	.file	"chase.c"
	.section	".text"
.Ltext0:
	.cfi_sections	.debug_frame
	.align 2
	.globl Chase_Init
	.type	Chase_Init, @function
Chase_Init:
.LFB38:
	.file 1 "d:/Data/Nintendo/TenebraeGX/src/chase.c"
	.loc 1 39 0
	.cfi_startproc
	stwu 1,-16(1)
.LCFI0:
	.cfi_def_cfa_offset 16
	mflr 0
	stw 31,12(1)
	.loc 1 40 0
	lis 31,.LANCHOR0@ha
	.cfi_offset 31, -4
	.cfi_register 65, 0
	la 31,.LANCHOR0@l(31)
	.loc 1 39 0
	stw 0,20(1)
	.loc 1 40 0
	mr 3,31
	.cfi_offset 65, 4
	bl Cvar_RegisterVariable
	.loc 1 41 0
	addi 3,31,20
	bl Cvar_RegisterVariable
	.loc 1 42 0
	addi 3,31,40
	bl Cvar_RegisterVariable
	.loc 1 43 0
	addi 3,31,60
	bl Cvar_RegisterVariable
	.loc 1 44 0
	lwz 0,20(1)
	lwz 31,12(1)
	mtlr 0
	addi 1,1,16
.LCFI1:
	.cfi_def_cfa_offset 0
	.cfi_restore 31
	blr
	.cfi_endproc
.LFE38:
	.size	Chase_Init, .-Chase_Init
	.align 2
	.globl Chase_Reset
	.type	Chase_Reset, @function
Chase_Reset:
.LFB39:
	.loc 1 47 0
	.cfi_startproc
	.loc 1 50 0
	blr
	.cfi_endproc
.LFE39:
	.size	Chase_Reset, .-Chase_Reset
	.align 2
	.globl TraceLine
	.type	TraceLine, @function
TraceLine:
.LFB40:
	.loc 1 53 0
	.cfi_startproc
.LVL0:
	stwu 1,-72(1)
.LCFI2:
	.cfi_def_cfa_offset 72
	mflr 0
	stw 29,60(1)
	mr 29,3
	.cfi_offset 29, -12
	.cfi_register 65, 0
	stw 30,64(1)
	.loc 1 56 0
	addi 3,1,8
.LVL1:
	.loc 1 53 0
	stw 31,68(1)
	mr 30,4
	.cfi_offset 31, -4
	.cfi_offset 30, -8
	mr 31,5
	.loc 1 56 0
	li 4,0
.LVL2:
	li 5,40
.LVL3:
	.loc 1 53 0
	stw 0,76(1)
	.loc 1 56 0
	.cfi_offset 65, 4
	bl memset
	.loc 1 57 0
	lis 9,cl+2688@ha
	lwz 3,cl+2688@l(9)
	lis 9,.LC0@ha
	lfs 2,.LC0@l(9)
	lis 9,.LC1@ha
	lfs 1,.LC1@l(9)
	mr 5,29
	mr 6,30
	addi 7,1,8
	addi 3,3,236
	li 4,0
	bl SV_RecursiveHullCheck
	.loc 1 59 0
	lwz 0,16(1)
	.loc 1 60 0
	lwz 29,60(1)
.LVL4:
	.loc 1 59 0
	stw 0,0(31)
	lwz 0,20(1)
	.loc 1 60 0
	lwz 30,64(1)
.LVL5:
	.loc 1 59 0
	stw 0,4(31)
	lwz 0,24(1)
	stw 0,8(31)
	.loc 1 60 0
	lwz 0,76(1)
	lwz 31,68(1)
.LVL6:
	mtlr 0
	addi 1,1,72
.LCFI3:
	.cfi_def_cfa_offset 0
	.cfi_restore 31
	.cfi_restore 30
	.cfi_restore 29
	blr
	.cfi_endproc
.LFE40:
	.size	TraceLine, .-TraceLine
	.align 2
	.globl Chase_Update
	.type	Chase_Update, @function
Chase_Update:
.LFB41:
	.loc 1 63 0
	.cfi_startproc
	stwu 1,-88(1)
.LCFI4:
	.cfi_def_cfa_offset 88
	mflr 0
	.loc 1 71 0
	lis 3,cl+444@ha
	.loc 1 63 0
	stw 30,80(1)
	.loc 1 71 0
	addi 30,1,32
	.cfi_offset 30, -8
	.cfi_register 65, 0
	.loc 1 63 0
	stw 31,84(1)
	.loc 1 71 0
	addi 31,1,56
	.cfi_offset 31, -4
	la 3,cl+444@l(3)
	mr 4,31
	mr 5,30
	addi 6,1,44
	.loc 1 63 0
	stw 29,76(1)
	lis 29,chase_dest@ha
	.cfi_offset 29, -12
	stw 0,92(1)
	la 29,chase_dest@l(29)
	stw 28,72(1)
	.loc 1 71 0
	.cfi_offset 28, -16
	.cfi_offset 65, 4
	bl AngleVectors
.LVL7:
	lis 10,.LANCHOR0@ha
	lis 11,r_refdef+108@ha
	la 10,.LANCHOR0@l(10)
	la 11,r_refdef+108@l(11)
	lfs 10,12(10)
	li 9,0
	lfs 11,52(10)
.LVL8:
.L5:
	.loc 1 62 0 discriminator 2
	lfsx 0,31,9
	.loc 1 74 0 discriminator 2
	cmpwi 7,9,8
	.loc 1 62 0 discriminator 2
	lfsx 13,30,9
	fneg 0,0
	.loc 1 76 0 discriminator 2
	lfsu 12,4(11)
	.loc 1 62 0 discriminator 2
	fneg 13,13
	.loc 1 76 0 discriminator 2
	fmadds 0,0,10,12
	.loc 1 77 0 discriminator 2
	fmadds 0,13,11,0
	.loc 1 75 0 discriminator 2
	stfsx 0,29,9
	.loc 1 74 0 discriminator 2
	addi 9,9,4
	bne+ 7,.L5
	.loc 1 78 0
	lis 30,r_refdef@ha
	lfs 0,32(10)
	la 30,r_refdef@l(30)
	.loc 1 81 0
	lis 9,.LC2@ha
	.loc 1 78 0
	lfs 13,120(30)
	.loc 1 81 0
	addi 28,30,112
	lfs 1,.LC2@l(9)
	addi 5,1,20
	.loc 1 78 0
	fadds 0,13,0
	.loc 1 81 0
	mr 3,28
	mr 4,31
	.loc 1 78 0
	stfs 0,8(29)
	.loc 1 81 0
	bl VectorMA
	.loc 1 82 0
	mr 3,28
	addi 4,1,20
	addi 5,1,8
	bl TraceLine
	.loc 1 85 0
	lfs 0,116(30)
	lfs 12,12(1)
	.loc 1 87 0
	lis 9,.LC0@ha
	.loc 1 85 0
	lfs 11,8(1)
	fsubs 12,12,0
	lfs 0,112(30)
	.loc 1 86 0
	lfs 13,60(1)
	.loc 1 85 0
	fsubs 11,11,0
	lfs 10,16(1)
	lfs 0,120(30)
	.loc 1 86 0
	fmuls 13,12,13
	.loc 1 85 0
	stfs 12,12(1)
	fsubs 0,10,0
	.loc 1 86 0
	lfs 10,56(1)
	.loc 1 85 0
	stfs 11,8(1)
	.loc 1 86 0
	fmadds 13,11,10,13
	lfs 10,64(1)
	.loc 1 85 0
	stfs 0,16(1)
	.loc 1 86 0
	fmadds 13,0,10,13
.LVL9:
	.loc 1 87 0
	lfs 10,.LC0@l(9)
	fcmpu 7,13,10
	bnl- 7,.L6
	.loc 1 88 0
	fmr 13,10
.LVL10:
.L6:
	.loc 1 89 0
	fdivs 0,0,13
	.loc 1 91 0
	lis 31,chase_dest@ha
	.loc 1 89 0
	fmr 1,0
	bl atan
.LVL11:
	lis 9,.LC3@ha
	fneg 1,1
	lfd 0,.LC3@l(9)
	lis 9,.LC5@ha
	.loc 1 91 0
	mr 4,29
	.loc 1 89 0
	lfs 13,.LC5@l(9)
	.loc 1 91 0
	addi 5,1,8
	.loc 1 89 0
	fdiv 0,1,0
	.loc 1 91 0
	mr 3,28
	.loc 1 89 0
	fmul 0,0,13
	frsp 0,0
	stfs 0,124(30)
	.loc 1 91 0
	bl TraceLine
	.loc 1 92 0
	addi 3,1,8
	bl Length
	lis 9,.LC1@ha
	lfs 0,.LC1@l(9)
	fcmpu 7,1,0
	beq- 7,.L12
	.loc 1 93 0
	lwz 0,16(1)
	lwz 11,8(1)
	.loc 1 96 0
	stw 0,120(30)
	.loc 1 93 0
	stw 0,8(29)
	.loc 1 97 0
	lwz 0,92(1)
	.loc 1 93 0
	lwz 9,12(1)
	.loc 1 97 0
	mtlr 0
	.loc 1 96 0
	stw 11,112(30)
	stw 9,116(30)
	.loc 1 97 0
	lwz 28,72(1)
	lwz 30,80(1)
	.loc 1 93 0
	stw 11,chase_dest@l(31)
	stw 9,4(29)
	.loc 1 97 0
	lwz 31,84(1)
	lwz 29,76(1)
	addi 1,1,88
	.cfi_remember_state
.LCFI5:
	.cfi_def_cfa_offset 0
	.cfi_restore 31
	.cfi_restore 30
	.cfi_restore 29
	.cfi_restore 28
	blr
.L12:
.LCFI6:
	.cfi_restore_state
	.loc 1 92 0
	lwz 0,8(29)
	lwz 11,chase_dest@l(31)
	.loc 1 96 0
	stw 0,120(30)
	.loc 1 97 0
	lwz 0,92(1)
	.loc 1 92 0
	lwz 9,4(29)
	.loc 1 97 0
	mtlr 0
	.loc 1 96 0
	stw 11,112(30)
	stw 9,116(30)
	.loc 1 97 0
	lwz 28,72(1)
	lwz 29,76(1)
	lwz 30,80(1)
	lwz 31,84(1)
	addi 1,1,88
	.cfi_restore 28
	.cfi_restore 29
	.cfi_restore 30
	.cfi_restore 31
.LCFI7:
	.cfi_def_cfa_offset 0
	blr
	.cfi_endproc
.LFE41:
	.size	Chase_Update, .-Chase_Update
	.comm	chase_dest_angles,12,4
	.comm	chase_dest,12,4
	.comm	chase_angles,12,4
	.comm	chase_pos,12,4
	.globl chase_active
	.globl chase_right
	.globl chase_up
	.globl chase_back
	.comm	causticschain,4,4
	.section	.rodata.cst4,"aM",@progbits,4
	.align 2
.LC0:
	.4byte	1065353216
.LC1:
	.4byte	0
.LC2:
	.4byte	1166016512
.LC5:
	.4byte	1127481344
	.section	.rodata.cst8,"aM",@progbits,8
	.align 3
.LC3:
	.4byte	1074340347
	.4byte	1413754136
	.section	".data"
	.align 2
	.set	.LANCHOR0,. + 0
	.type	chase_back, @object
	.size	chase_back, 20
chase_back:
	.long	.LC11
	.long	.LC12
	.zero	12
	.type	chase_up, @object
	.size	chase_up, 20
chase_up:
	.long	.LC9
	.long	.LC10
	.zero	12
	.type	chase_right, @object
	.size	chase_right, 20
chase_right:
	.long	.LC8
	.long	.LC7
	.zero	12
	.type	chase_active, @object
	.size	chase_active, 20
chase_active:
	.long	.LC6
	.long	.LC7
	.zero	12
	.section	.rodata.str1.4,"aMS",@progbits,1
	.align 2
.LC6:
	.string	"chase_active"
	.zero	3
.LC7:
	.string	"0"
	.zero	2
.LC8:
	.string	"chase_right"
.LC9:
	.string	"chase_up"
	.zero	3
.LC10:
	.string	"16"
	.zero	1
.LC11:
	.string	"chase_back"
	.zero	1
.LC12:
	.string	"100"
	.section	".text"
.Letext0:
	.file 2 "d:/Data/Nintendo/TenebraeGX/src/common.h"
	.file 3 "d:/Data/Nintendo/TenebraeGX/src/bspfile.h"
	.file 4 "d:/Data/Nintendo/TenebraeGX/src/vid.h"
	.file 5 "d:/Data/Nintendo/TenebraeGX/src/zone.h"
	.file 6 "d:/Data/Nintendo/TenebraeGX/src/mathlib.h"
	.file 7 "d:/Data/Nintendo/TenebraeGX/src/quakedef.h"
	.file 8 "d:/Data/Nintendo/TenebraeGX/src/cvar.h"
	.file 9 "d:/Data/Nintendo/TenebraeGX/src/sound.h"
	.file 10 "d:/Data/Nintendo/TenebraeGX/src/render.h"
	.file 11 "d:/Data/Nintendo/TenebraeGX/src/gl_model.h"
	.file 12 "d:/Data/Nintendo/TenebraeGX/src/glquake.h"
	.file 13 "d:/Data/Nintendo/TenebraeGX/src/client.h"
	.file 14 "d:/Data/Nintendo/TenebraeGX/src/pr_comp.h"
	.file 15 "d:/Data/Nintendo/TenebraeGX/src/progdefs.h"
	.file 16 "d:/Data/Nintendo/TenebraeGX/src/progs.h"
	.file 17 "d:/Data/Nintendo/TenebraeGX/src/modelgen.h"
	.file 18 "d:/Data/Nintendo/TenebraeGX/src/world.h"
	.file 19 "c:/utils/devkitPro/libogc/include/ogc/gx.h"