	.file	"cl_demo.c"
	.section	".text"
.Ltext0:
	.cfi_sections	.debug_frame
	.align 2
	.globl CL_WriteDemoMessage
	.type	CL_WriteDemoMessage, @function
CL_WriteDemoMessage:
.LFB39:
	.file 1 "d:/Data/Nintendo/TenebraeGX/src/cl_demo.c"
	.loc 1 68 0
	.cfi_startproc
	.loc 1 73 0
	lis 9,pausedemo+12@ha
	.loc 1 68 0
	mflr 0
	.loc 1 73 0
	lfs 13,pausedemo+12@l(9)
	lis 9,.LC0@ha
	lfs 0,.LC0@l(9)
	.loc 1 68 0
	stwu 1,-48(1)
.LCFI0:
	.cfi_def_cfa_offset 48
	.cfi_register 65, 0
	.loc 1 73 0
	fcmpu 7,13,0
	.loc 1 68 0
	stw 0,52(1)
	stw 27,28(1)
	stw 28,32(1)
	stw 29,36(1)
	stw 30,40(1)
	stw 31,44(1)
	.loc 1 73 0
	beq- 7,.L6
	.cfi_offset 31, -4
	.cfi_offset 30, -8
	.cfi_offset 29, -12
	.cfi_offset 28, -16
	.cfi_offset 27, -20
	.cfi_offset 65, 4
	.loc 1 85 0
	lwz 0,52(1)
	lwz 27,28(1)
	mtlr 0
	lwz 28,32(1)
	lwz 29,36(1)
	lwz 30,40(1)
	lwz 31,44(1)
	addi 1,1,48
	.cfi_remember_state
.LCFI1:
	.cfi_def_cfa_offset 0
	.cfi_restore 31
	.cfi_restore 30
	.cfi_restore 29
	.cfi_restore 28
	.cfi_restore 27
	blr
.L6:
.LCFI2:
	.cfi_restore_state
.LBB4:
.LBB5:
	.loc 1 76 0
	lis 9,LittleLong@ha
	lis 29,net_message@ha
	lwz 0,LittleLong@l(9)
	la 29,net_message@l(29)
	lwz 3,12(29)
	.loc 1 77 0
	lis 30,cls@ha
	.loc 1 76 0
	mtctr 0
	.loc 1 77 0
	la 30,cls@l(30)
	lis 31,cl+440@ha
	lis 28,LittleFloat@ha
	la 31,cl+440@l(31)
	la 28,LittleFloat@l(28)
	.loc 1 67 0
	addi 27,31,12
	.loc 1 76 0
	bctrl
	mr 9,1
	stwu 3,12(9)
.LVL0:
	.loc 1 77 0
	li 4,4
	lwz 6,2256(30)
	li 5,1
	mr 3,9
	bl fwrite
.LVL1:
.L3:
	.loc 1 80 0
	lwz 0,0(28)
	lfsu 1,4(31)
	mtctr 0
	bctrl
	.loc 1 81 0
	lwz 6,2256(30)
	addi 3,1,8
	li 4,4
	li 5,1
	.loc 1 80 0
	stfs 1,8(1)
	.loc 1 81 0
	bl fwrite
	.loc 1 78 0
	cmpw 7,31,27
	bne+ 7,.L3
	.loc 1 83 0
	lwz 4,12(29)
	li 5,1
	lwz 6,2256(30)
	lwz 3,4(29)
	bl fwrite
	.loc 1 84 0
	lwz 3,2256(30)
	bl fflush
.LBE5:
.LBE4:
	.loc 1 85 0
	lwz 0,52(1)
	lwz 27,28(1)
	mtlr 0
	lwz 28,32(1)
	lwz 29,36(1)
	lwz 30,40(1)
	lwz 31,44(1)
	addi 1,1,48
	.cfi_restore 27
	.cfi_restore 28
	.cfi_restore 29
	.cfi_restore 30
	.cfi_restore 31
.LCFI3:
	.cfi_def_cfa_offset 0
	blr
	.cfi_endproc
.LFE39:
	.size	CL_WriteDemoMessage, .-CL_WriteDemoMessage
	.align 2
	.globl CL_Stop_f
	.type	CL_Stop_f, @function
CL_Stop_f:
.LFB41:
	.loc 1 175 0
	.cfi_startproc
	mflr 0
	stwu 1,-16(1)
.LCFI4:
	.cfi_def_cfa_offset 16
	.cfi_register 65, 0
	.loc 1 176 0
	lis 9,cmd_source@ha
	.loc 1 175 0
	stw 30,8(1)
	stw 0,20(1)
	.loc 1 176 0
	lwz 0,cmd_source@l(9)
	.cfi_offset 65, 4
	.cfi_offset 30, -8
	.loc 1 175 0
	stw 31,12(1)
	.loc 1 176 0
	cmpwi 7,0,1
	beq- 7,.L10
	.cfi_offset 31, -4
	.loc 1 195 0
	lwz 0,20(1)
	lwz 30,8(1)
	mtlr 0
	lwz 31,12(1)
	addi 1,1,16
	.cfi_remember_state
.LCFI5:
	.cfi_def_cfa_offset 0
	.cfi_restore 31
	.cfi_restore 30
	blr
.L10:
.LCFI6:
	.cfi_restore_state
	.loc 1 179 0
	lis 31,cls@ha
	la 31,cls@l(31)
	lbz 0,2248(31)
	cmpwi 7,0,0
	beq- 7,.L11
	.loc 1 186 0
	lis 30,net_message@ha
	la 30,net_message@l(30)
	mr 3,30
	bl SZ_Clear
	.loc 1 187 0
	mr 3,30
	li 4,2
	bl MSG_WriteByte
	.loc 1 188 0
	bl CL_WriteDemoMessage
	.loc 1 191 0
	lwz 3,2256(31)
	bl fclose
	.loc 1 192 0
	li 0,0
	stw 0,2256(31)
	.loc 1 194 0
	lis 3,.LC2@ha
	.loc 1 193 0
	stb 0,2248(31)
	.loc 1 194 0
	la 3,.LC2@l(3)
	crxor 6,6,6
	bl Con_Printf
	.loc 1 195 0
	lwz 0,20(1)
	lwz 30,8(1)
	mtlr 0
	lwz 31,12(1)
	addi 1,1,16
	.cfi_remember_state
	.cfi_restore 30
	.cfi_restore 31
.LCFI7:
	.cfi_def_cfa_offset 0
	blr
.L11:
.LCFI8:
	.cfi_restore_state
	.loc 1 181 0
	lis 3,.LC1@ha
	la 3,.LC1@l(3)
	crxor 6,6,6
	bl Con_Printf
	.loc 1 195 0
	lwz 0,20(1)
	lwz 30,8(1)
	mtlr 0
	lwz 31,12(1)
	addi 1,1,16
	.cfi_restore 30
	.cfi_restore 31
.LCFI9:
	.cfi_def_cfa_offset 0
	blr
	.cfi_endproc
.LFE41:
	.size	CL_Stop_f, .-CL_Stop_f
	.align 2
	.globl CL_Record_f
	.type	CL_Record_f, @function
CL_Record_f:
.LFB42:
	.loc 1 205 0
	.cfi_startproc
	mflr 0
	stwu 1,-152(1)
.LCFI10:
	.cfi_def_cfa_offset 152
	.cfi_register 65, 0
	.loc 1 210 0
	lis 9,cmd_source@ha
	.loc 1 205 0
	stw 29,140(1)
	stw 0,156(1)
	.loc 1 210 0
	lwz 0,cmd_source@l(9)
	.cfi_offset 65, 4
	.cfi_offset 29, -12
	.loc 1 205 0
	stw 30,144(1)
	.loc 1 210 0
	cmpwi 7,0,1
	.loc 1 205 0
	stw 31,148(1)
	.loc 1 210 0
	beq- 7,.L22
	.cfi_offset 31, -4
	.cfi_offset 30, -8
.L12:
	.loc 1 266 0
	lwz 0,156(1)
	lwz 29,140(1)
	mtlr 0
	lwz 30,144(1)
	lwz 31,148(1)
	addi 1,1,152
	.cfi_remember_state
.LCFI11:
	.cfi_def_cfa_offset 0
	.cfi_restore 31
	.cfi_restore 30
	.cfi_restore 29
	blr
.L22:
.LCFI12:
	.cfi_restore_state
	.loc 1 213 0
	bl Cmd_Argc
	.loc 1 214 0
	addi 0,3,-2
	.loc 1 213 0
	mr 31,3
.LVL2:
	.loc 1 214 0
	cmplwi 7,0,2
	bgt- 7,.L23
	.loc 1 220 0
	li 3,1
.LVL3:
	bl Cmd_Argv
	lis 4,.LC4@ha
	la 4,.LC4@l(4)
	bl strstr
	cmpwi 7,3,0
	beq- 7,.L15
	.loc 1 222 0
	lis 3,.LC5@ha
	la 3,.LC5@l(3)
	crxor 6,6,6
	bl Con_Printf
	.loc 1 223 0
	b .L12
.L23:
	.loc 1 216 0
	lis 3,.LC3@ha
	la 3,.LC3@l(3)
	crxor 6,6,6
	bl Con_Printf
	.loc 1 217 0
	b .L12
.L15:
	.loc 1 226 0
	cmpwi 7,31,2
	beq- 7,.L24
	.loc 1 233 0
	cmpwi 7,31,4
	beq- 7,.L25
.LVL4:
	.loc 1 241 0
	li 3,1
	addi 31,1,8
.LVL5:
	bl Cmd_Argv
	lis 4,.LC8@ha
	lis 5,com_gamedir@ha
	mr 6,3
	la 4,.LC8@l(4)
	mr 3,31
	la 5,com_gamedir@l(5)
	lis 30,cls@ha
	crxor 6,6,6
	bl sprintf
	li 29,-1
	la 30,cls@l(30)
.LVL6:
.L19:
	.loc 1 247 0
	li 3,2
	bl Cmd_Argv
	mr 4,3
	lis 3,.LC9@ha
	la 3,.LC9@l(3)
	crxor 6,6,6
	bl va
	li 4,1
	bl Cmd_ExecuteString
.L20:
	.loc 1 252 0
	lis 4,.LC10@ha
	mr 3,31
	la 4,.LC10@l(4)
	bl COM_DefaultExtension
	.loc 1 254 0
	lis 3,.LC11@ha
	la 3,.LC11@l(3)
	mr 4,31
	crxor 6,6,6
	bl Con_Printf
	.loc 1 255 0
	lis 4,.LC12@ha
	mr 3,31
	la 4,.LC12@l(4)
	bl fopen
	.loc 1 256 0
	cmpwi 7,3,0
	.loc 1 255 0
	stw 3,2256(30)
	.loc 1 256 0
	beq- 7,.L26
	.loc 1 263 0
	lis 4,.LC14@ha
	mr 5,29
	la 4,.LC14@l(4)
	.loc 1 262 0
	stw 29,2252(30)
	.loc 1 263 0
	crxor 6,6,6
	bl fprintf
	.loc 1 265 0
	li 0,1
	stb 0,2248(30)
	b .L12
.LVL7:
.L24:
	.loc 1 226 0 discriminator 1
	lis 30,cls@ha
	lwz 0,cls@l(30)
	cmpwi 7,0,2
	beq- 7,.L27
.LVL8:
	.loc 1 241 0
	li 3,1
	addi 31,1,8
.LVL9:
	bl Cmd_Argv
	lis 4,.LC8@ha
	lis 5,com_gamedir@ha
	mr 6,3
	la 4,.LC8@l(4)
	mr 3,31
	la 5,com_gamedir@l(5)
	la 30,cls@l(30)
	crxor 6,6,6
	bl sprintf
	li 29,-1
	b .L20
.LVL10:
.L25:
	.loc 1 235 0
	li 3,3
	.loc 1 236 0
	lis 30,cls@ha
	.loc 1 235 0
	bl Cmd_Argv
	.loc 1 236 0
	la 30,cls@l(30)
	.loc 1 235 0
	bl atoi
	.loc 1 236 0
	lwz 4,2252(30)
	.loc 1 235 0
	mr 29,3
.LVL11:
	.loc 1 236 0
	lis 3,.LC7@ha
.LVL12:
	la 3,.LC7@l(3)
	.loc 1 241 0
	addi 31,1,8
.LVL13:
	.loc 1 236 0
	crxor 6,6,6
	bl Con_Printf
	.loc 1 241 0
	li 3,1
	bl Cmd_Argv
	lis 4,.LC8@ha
	lis 5,com_gamedir@ha
	mr 6,3
	la 4,.LC8@l(4)
	mr 3,31
	la 5,com_gamedir@l(5)
	crxor 6,6,6
	bl sprintf
	b .L19
.LVL14:
.L26:
	.loc 1 258 0
	lis 3,.LC13@ha
	la 3,.LC13@l(3)
	crxor 6,6,6
	bl Con_Printf
	.loc 1 259 0
	b .L12
.LVL15:
.L27:
	.loc 1 228 0
	lis 3,.LC6@ha
	la 3,.LC6@l(3)
	crxor 6,6,6
	bl Con_Printf
	.loc 1 229 0
	b .L12
	.cfi_endproc
.LFE42:
	.size	CL_Record_f, .-CL_Record_f
	.align 2
	.globl CL_PlayDemo_f
	.type	CL_PlayDemo_f, @function
CL_PlayDemo_f:
.LFB43:
	.loc 1 277 0
	.cfi_startproc
.LVL16:
	stwu 1,-280(1)
.LCFI13:
	.cfi_def_cfa_offset 280
	.loc 1 282 0
	lis 9,cmd_source@ha
	.loc 1 277 0
	mflr 0
	stw 31,276(1)
	.loc 1 282 0
	lwz 31,cmd_source@l(9)
	.cfi_offset 31, -4
	.cfi_register 65, 0
	.loc 1 277 0
	stw 0,284(1)
	.loc 1 282 0
	cmpwi 7,31,1
	.loc 1 277 0
	stw 28,264(1)
	stw 29,268(1)
	stw 30,272(1)
	.loc 1 282 0
	beq- 7,.L39
	.cfi_offset 30, -8
	.cfi_offset 29, -12
	.cfi_offset 28, -16
	.cfi_offset 65, 4
.LVL17:
.L28:
	.loc 1 325 0
	lwz 0,284(1)
	lwz 28,264(1)
	mtlr 0
	lwz 29,268(1)
	lwz 30,272(1)
	lwz 31,276(1)
	addi 1,1,280
	.cfi_remember_state
.LCFI14:
	.cfi_def_cfa_offset 0
	.cfi_restore 31
	.cfi_restore 30
	.cfi_restore 29
	.cfi_restore 28
	blr
.LVL18:
.L39:
.LCFI15:
	.cfi_restore_state
	.loc 1 285 0
	bl Cmd_Argc
	cmpwi 7,3,2
	mr 30,3
	beq- 7,.L30
	.loc 1 287 0
	lis 3,.LC15@ha
	la 3,.LC15@l(3)
	crxor 6,6,6
	bl Con_Printf
	.loc 1 325 0
	lwz 0,284(1)
	lwz 28,264(1)
	mtlr 0
	lwz 29,268(1)
	lwz 30,272(1)
	lwz 31,276(1)
	addi 1,1,280
	.cfi_remember_state
	.cfi_restore 28
	.cfi_restore 29
	.cfi_restore 30
	.cfi_restore 31
.LCFI16:
	.cfi_def_cfa_offset 0
	blr
.L30:
.LCFI17:
	.cfi_restore_state
	.loc 1 294 0
	bl CL_Disconnect
	.loc 1 299 0
	li 3,1
	bl Cmd_Argv
	li 5,256
	mr 4,3
	addi 3,1,8
	bl strncpy
	.loc 1 300 0
	lis 4,.LC10@ha
	addi 3,1,8
	la 4,.LC10@l(4)
	bl COM_DefaultExtension
	.loc 1 303 0
	lis 28,cls+2256@ha
	.loc 1 302 0
	lis 3,.LC16@ha
	addi 4,1,8
	la 3,.LC16@l(3)
	.loc 1 303 0
	la 28,cls+2256@l(28)
	.loc 1 302 0
	crxor 6,6,6
	bl Con_Printf
	.loc 1 304 0
	addi 29,28,-2256
	.loc 1 303 0
	mr 4,28
	addi 3,1,8
	bl COM_FOpenFile
	.loc 1 304 0
	lwz 4,2256(29)
	cmpwi 7,4,0
	beq- 7,.L40
	.loc 1 313 0
	li 0,0
	.loc 1 311 0
	stb 31,2249(29)
	.loc 1 312 0
	stw 30,-2256(28)
	.loc 1 280 0
	li 31,0
	.loc 1 313 0
	stw 0,2252(29)
	.loc 1 315 0
	lis 30,_impure_ptr@ha
	b .L38
.LVL19:
.L35:
	.loc 1 315 0 is_stmt 0 discriminator 2
	lwz 9,2256(29)
	lwz 11,0(9)
	addi 0,11,1
	lbz 3,0(11)
	stw 0,0(9)
.L36:
.LVL20:
	.loc 1 315 0 discriminator 1
	cmpwi 7,3,10
	.loc 1 316 0 is_stmt 1 discriminator 1
	cmpwi 6,3,45
	.loc 1 315 0 discriminator 1
	beq- 7,.L41
	.loc 1 316 0
	bne- 6,.L33
	lwz 4,2256(29)
	.loc 1 317 0
	li 31,1
.LVL21:
.L38:
	.loc 1 315 0 discriminator 1
	lwz 9,4(4)
	addi 0,9,-1
	cmpwi 7,0,0
	stw 0,4(4)
	bge+ 7,.L35
	lwz 3,_impure_ptr@l(30)
	bl __srget_r
	b .L36
.LVL22:
.L41:
	.loc 1 321 0
	cmpwi 7,31,0
	beq- 7,.L28
	.loc 1 322 0
	lwz 0,2252(29)
	neg 0,0
	stw 0,2252(29)
	b .L28
.L33:
	.loc 1 319 0
	lwz 0,2252(29)
	addi 3,3,-48
.LVL23:
	lwz 4,2256(29)
	mulli 0,0,10
	add 3,0,3
.LVL24:
	stw 3,2252(29)
	b .L38
.LVL25:
.L40:
	.loc 1 306 0
	lis 3,.LC13@ha
	la 3,.LC13@l(3)
	crxor 6,6,6
	bl Con_Printf
	.loc 1 307 0
	li 0,-1
	stw 0,2116(29)
	.loc 1 308 0
	b .L28
	.cfi_endproc
.LFE43:
	.size	CL_PlayDemo_f, .-CL_PlayDemo_f
	.align 2
	.globl CL_FinishTimeDemo
	.type	CL_FinishTimeDemo, @function
CL_FinishTimeDemo:
.LFB44:
	.loc 1 334 0
	.cfi_startproc
	mflr 0
	stwu 1,-16(1)
.LCFI18:
	.cfi_def_cfa_offset 16
	.cfi_register 65, 0
	.loc 1 338 0
	lis 9,cls@ha
	.loc 1 342 0
	lis 11,realtime@ha
	.loc 1 338 0
	la 9,cls@l(9)
	.loc 1 342 0
	lfd 13,realtime@l(11)
	.loc 1 334 0
	stw 0,20(1)
	.loc 1 341 0
	lis 11,host_framecount@ha
	lwz 4,host_framecount@l(11)
	.loc 1 343 0
	lis 11,.LC0@ha
	.loc 1 342 0
	lfs 0,2268(9)
	.loc 1 341 0
	lwz 0,2264(9)
	.cfi_offset 65, 4
	.loc 1 342 0
	fsub 0,13,0
	.loc 1 343 0
	lfs 13,.LC0@l(11)
	.loc 1 341 0
	subf 4,0,4
	.loc 1 338 0
	li 0,0
	stb 0,2250(9)
	.loc 1 341 0
	addi 4,4,-1
.LVL26:
	.loc 1 342 0
	frsp 0,0
.LVL27:
	.loc 1 343 0
	fcmpu 7,0,13
	bne- 7,.L43
	.loc 1 344 0
	lis 9,.LC17@ha
	lfs 0,.LC17@l(9)
.LVL28:
.L43:
	.loc 1 345 0
	xoris 0,4,0x8000
	lis 9,.LC20@ha
	stw 0,12(1)
	lis 0,0x4330
	stw 0,8(1)
	fmr 1,0
	lfs 13,.LC20@l(9)
	lis 3,.LC18@ha
	lfd 12,8(1)
	la 3,.LC18@l(3)
	fsub 13,12,13
	frsp 13,13
	fdivs 0,13,0
.LVL29:
	fmr 2,0
	creqv 6,6,6
	bl Con_Printf
.LVL30:
	.loc 1 346 0
	lwz 0,20(1)
	addi 1,1,16
.LCFI19:
	.cfi_def_cfa_offset 0
	mtlr 0
	blr
	.cfi_endproc
.LFE44:
	.size	CL_FinishTimeDemo, .-CL_FinishTimeDemo
	.align 2
	.globl CL_StopPlayback
	.type	CL_StopPlayback, @function
CL_StopPlayback:
.LFB38:
	.loc 1 46 0
	.cfi_startproc
	mflr 0
	stwu 1,-16(1)
.LCFI20:
	.cfi_def_cfa_offset 16
	.cfi_register 65, 0
	stw 30,8(1)
	.loc 1 47 0
	lis 30,cls@ha
	.cfi_offset 30, -8
	.loc 1 46 0
	stw 0,20(1)
	stw 31,12(1)
	.loc 1 47 0
	la 31,cls@l(30)
	.cfi_offset 31, -4
	.cfi_offset 65, 4
	lbz 0,2249(31)
	cmpwi 7,0,0
	bne- 7,.L47
.L45:
	.loc 1 57 0
	lwz 0,20(1)
	lwz 30,8(1)
	mtlr 0
	lwz 31,12(1)
	addi 1,1,16
	.cfi_remember_state
.LCFI21:
	.cfi_def_cfa_offset 0
	.cfi_restore 31
	.cfi_restore 30
	blr
.L47:
.LCFI22:
	.cfi_restore_state
	.loc 1 50 0
	lwz 3,2256(31)
	bl fclose
	.loc 1 55 0
	lbz 0,2250(31)
	cmpwi 7,0,0
	.loc 1 51 0
	li 0,0
	stb 0,2249(31)
	.loc 1 52 0
	li 0,0
	stw 0,2256(31)
	.loc 1 53 0
	li 0,1
	stw 0,cls@l(30)
	.loc 1 55 0
	beq+ 7,.L45
	.loc 1 57 0
	lwz 0,20(1)
	lwz 30,8(1)
	lwz 31,12(1)
	mtlr 0
	addi 1,1,16
.LCFI23:
	.cfi_def_cfa_offset 0
	.cfi_restore 31
	.cfi_restore 30
	.loc 1 56 0
	b CL_FinishTimeDemo
	.cfi_endproc
.LFE38:
	.size	CL_StopPlayback, .-CL_StopPlayback
	.align 2
	.globl CL_GetMessage
	.type	CL_GetMessage, @function
CL_GetMessage:
.LFB40:
	.loc 1 95 0
	.cfi_startproc
	mflr 0
	stwu 1,-40(1)
.LCFI24:
	.cfi_def_cfa_offset 40
	.cfi_register 65, 0
	stw 31,36(1)
	.loc 1 99 0
	lis 31,cls@ha
	.cfi_offset 31, -4
	.loc 1 95 0
	stw 0,44(1)
	.loc 1 99 0
	la 31,cls@l(31)
	.loc 1 95 0
	stw 28,24(1)
	.loc 1 99 0
	lbz 0,2249(31)
	.cfi_offset 28, -16
	.cfi_offset 65, 4
	.loc 1 95 0
	stw 29,28(1)
	.loc 1 99 0
	cmpwi 7,0,0
	.loc 1 95 0
	stw 30,32(1)
	.loc 1 99 0
	beq- 7,.L49
	.cfi_offset 30, -8
	.cfi_offset 29, -12
	.loc 1 102 0
	lwz 0,2272(31)
	cmpwi 7,0,4
	beq- 7,.L63
.L66:
	lis 29,cl@ha
	la 29,cl@l(29)
.L50:
	.loc 1 125 0
	lwz 6,2256(31)
	lis 3,net_message+12@ha
	la 3,net_message+12@l(3)
	li 4,4
	li 5,1
	lis 28,LittleFloat@ha
	bl fread
	.loc 1 126 0
	lwz 11,420(29)
	lwz 9,424(29)
	addi 30,29,416
	lwz 0,428(29)
	la 28,LittleFloat@l(28)
	stw 11,432(29)
	stw 9,436(29)
	stw 0,440(29)
.LVL31:
	.loc 1 94 0
	addi 29,29,428
.LVL32:
.L53:
	.loc 1 129 0 discriminator 2
	lwz 6,2256(31)
	li 4,4
	li 5,1
	addi 3,1,8
	bl fread
	.loc 1 130 0 discriminator 2
	lwz 0,0(28)
	lfs 1,8(1)
	mtctr 0
	bctrl
	stfsu 1,4(30)
	.loc 1 127 0 discriminator 2
	cmpw 7,30,29
	bne+ 7,.L53
	.loc 1 133 0
	lis 9,LittleLong@ha
	lis 30,net_message@ha
	lwz 0,LittleLong@l(9)
	la 30,net_message@l(30)
	lwz 3,12(30)
	mtctr 0
	bctrl
	.loc 1 134 0
	li 0,0
	ori 0,0,64000
	.loc 1 133 0
	mr 4,3
	.loc 1 134 0
	cmpw 7,3,0
	.loc 1 133 0
	stw 3,12(30)
	.loc 1 134 0
	bgt- 7,.L67
.L54:
	.loc 1 136 0
	lwz 3,4(30)
	li 5,1
	lwz 6,2256(31)
	.loc 1 143 0
	li 30,1
	.loc 1 136 0
	bl fread
.LVL33:
	.loc 1 137 0
	cmpwi 7,3,1
	beq- 7,.L51
	.loc 1 139 0
	bl CL_StopPlayback
.LVL34:
	.loc 1 140 0
	li 30,0
.L51:
	.loc 1 164 0
	lwz 0,44(1)
	mr 3,30
	lwz 28,24(1)
	mtlr 0
	lwz 29,28(1)
	lwz 30,32(1)
	lwz 31,36(1)
	addi 1,1,40
	.cfi_remember_state
.LCFI25:
	.cfi_def_cfa_offset 0
	.cfi_restore 31
	.cfi_restore 30
	.cfi_restore 29
	.cfi_restore 28
	blr
.LVL35:
.L49:
.LCFI26:
	.cfi_restore_state
	.loc 1 155 0
	lis 29,.LC22@ha
	.loc 1 154 0
	lis 28,net_message@ha
	.loc 1 155 0
	la 29,.LC22@l(29)
	b .L65
.LVL36:
.L68:
	.loc 1 154 0
	lwz 0,12(9)
	cmpwi 7,0,1
	bne- 7,.L55
	.loc 1 154 0 is_stmt 0 discriminator 1
	lwz 9,4(9)
	lbz 0,0(9)
	cmpwi 7,0,1
	bne- 7,.L55
	.loc 1 155 0 is_stmt 1
	crxor 6,6,6
	bl Con_Printf
.LVL37:
.L65:
	.loc 1 148 0
	lwz 3,2276(31)
	bl NET_GetMessage
	.loc 1 154 0
	la 9,net_message@l(28)
	.loc 1 150 0
	addi 0,3,-1
	.loc 1 148 0
	mr 30,3
.LVL38:
	.loc 1 150 0
	cmplwi 7,0,1
	.loc 1 155 0
	mr 3,29
.LVL39:
	.loc 1 150 0
	ble+ 7,.L68
	b .L51
.LVL40:
.L63:
	.loc 1 105 0
	lis 9,pausedemo+12@ha
	.loc 1 106 0
	li 30,0
	.loc 1 105 0
	lfs 13,pausedemo+12@l(9)
	lis 9,.LC0@ha
	lfs 0,.LC0@l(9)
	fcmpu 7,13,0
	bne- 7,.L51
	.loc 1 108 0
	lbz 0,2250(31)
	cmpwi 7,0,0
	beq- 7,.L52
	.loc 1 110 0
	lis 9,host_framecount@ha
	lwz 0,host_framecount@l(9)
	lwz 9,2260(31)
	cmpw 7,9,0
	beq- 7,.L51
	.loc 1 115 0
	lwz 9,2264(31)
	.loc 1 112 0
	stw 0,2260(31)
	.loc 1 115 0
	addi 9,9,1
	cmpw 7,0,9
	bne+ 7,.L66
	.loc 1 116 0
	lis 9,realtime@ha
	lis 29,cl@ha
	lfd 0,realtime@l(9)
	la 29,cl@l(29)
	frsp 0,0
	stfs 0,2268(31)
	b .L50
.LVL41:
.L55:
	.loc 1 160 0
	lbz 0,2248(31)
	cmpwi 7,0,0
	beq+ 7,.L51
	.loc 1 161 0
	bl CL_WriteDemoMessage
	.loc 1 164 0
	lwz 0,44(1)
	mr 3,30
	lwz 28,24(1)
	mtlr 0
	lwz 29,28(1)
	lwz 30,32(1)
.LVL42:
	lwz 31,36(1)
	addi 1,1,40
	.cfi_remember_state
	.cfi_restore 28
	.cfi_restore 29
	.cfi_restore 30
	.cfi_restore 31
.LCFI27:
	.cfi_def_cfa_offset 0
	blr
.LVL43:
.L67:
.LCFI28:
	.cfi_restore_state
	.loc 1 135 0
	lis 3,.LC21@ha
	la 3,.LC21@l(3)
	crxor 6,6,6
	bl Sys_Error
	lwz 4,12(30)
	b .L54
.LVL44:
.L52:
	.loc 1 118 0
	lis 29,cl@ha
	la 29,cl@l(29)
	lfd 13,568(29)
	lfd 0,552(29)
	fcmpu 7,13,0
	cror 30,28,30
	bne+ 7,.L50
	b .L51
	.cfi_endproc
.LFE40:
	.size	CL_GetMessage, .-CL_GetMessage
	.align 2
	.globl CL_TimeDemo_f
	.type	CL_TimeDemo_f, @function
CL_TimeDemo_f:
.LFB45:
	.loc 1 356 0
	.cfi_startproc
	stwu 1,-16(1)
.LCFI29:
	.cfi_def_cfa_offset 16
	.loc 1 357 0
	lis 9,cmd_source@ha
	.loc 1 356 0
	mflr 0
	stw 31,12(1)
	.loc 1 357 0
	lwz 31,cmd_source@l(9)
	.cfi_offset 31, -4
	.cfi_register 65, 0
	.loc 1 356 0
	stw 0,20(1)
	.loc 1 357 0
	cmpwi 7,31,1
	beq- 7,.L72
	.cfi_offset 65, 4
.L69:
	.loc 1 374 0
	lwz 0,20(1)
	lwz 31,12(1)
	mtlr 0
	addi 1,1,16
	.cfi_remember_state
.LCFI30:
	.cfi_def_cfa_offset 0
	.cfi_restore 31
	blr
.L72:
.LCFI31:
	.cfi_restore_state
	.loc 1 360 0
	bl Cmd_Argc
	cmpwi 7,3,2
	beq- 7,.L71
	.loc 1 362 0
	lis 3,.LC23@ha
	la 3,.LC23@l(3)
	crxor 6,6,6
	bl Con_Printf
	.loc 1 374 0
	lwz 0,20(1)
	lwz 31,12(1)
	mtlr 0
	addi 1,1,16
	.cfi_remember_state
	.cfi_restore 31
.LCFI32:
	.cfi_def_cfa_offset 0
	blr
.L71:
.LCFI33:
	.cfi_restore_state
	.loc 1 366 0
	bl CL_PlayDemo_f
	.loc 1 372 0
	lis 9,host_framecount@ha
	lwz 0,host_framecount@l(9)
	.loc 1 371 0
	lis 9,cls@ha
	la 9,cls@l(9)
	.loc 1 372 0
	stw 0,2264(9)
	.loc 1 373 0
	li 0,-1
	.loc 1 371 0
	stb 31,2250(9)
	.loc 1 373 0
	stw 0,2260(9)
	b .L69
	.cfi_endproc
.LFE45:
	.size	CL_TimeDemo_f, .-CL_TimeDemo_f
	.comm	causticschain,4,4
	.section	.rodata.cst4,"aM",@progbits,4
	.align 2
.LC0:
	.4byte	0
.LC17:
	.4byte	1065353216
.LC20:
	.4byte	1501560836
	.section	.rodata.str1.4,"aMS",@progbits,1
	.align 2
.LC1:
	.string	"Not recording a demo.\n"
	.zero	1
.LC2:
	.string	"Completed demo\n"
.LC3:
	.string	"record <demoname> [<map> [cd track]]\n"
	.zero	2
.LC4:
	.string	".."
	.zero	1
.LC5:
	.string	"Relative pathnames are not allowed.\n"
	.zero	3
.LC6:
	.string	"Can not record - already connected to server\nClient demo recording must be started before connecting\n"
	.zero	2
.LC7:
	.string	"Forcing CD track to %i\n"
.LC8:
	.string	"%s/%s"
	.zero	2
.LC9:
	.string	"map %s"
	.zero	1
.LC10:
	.string	".dem"
	.zero	3
.LC11:
	.string	"recording to %s.\n"
	.zero	2
.LC12:
	.string	"wb"
	.zero	1
.LC13:
	.string	"ERROR: couldn't open.\n"
	.zero	1
.LC14:
	.string	"%i\n"
.LC15:
	.string	"play <demoname> : plays a demo\n"
.LC16:
	.string	"Playing demo from %s.\n"
	.zero	1
.LC18:
	.string	"%i frames %5.1f seconds %5.1f fps\n"
	.zero	1
.LC21:
	.string	"Demo message > MAX_MSGLEN"
	.zero	2
.LC22:
	.string	"<-- server to client keepalive\n"
.LC23:
	.string	"timedemo <demoname> : gets demo speeds\n"
	.section	".text"
.Letext0:
	.file 2 "c:\\utils\\devkitpro\\devkitppc\\bin\\../lib/gcc/powerpc-eabi/4.6.3/../../../../powerpc-eabi/include/machine/_types.h"
	.file 3 "c:\\utils\\devkitpro\\devkitppc\\bin\\../lib/gcc/powerpc-eabi/4.6.3/../../../../powerpc-eabi/include/sys/lock.h"
	.file 4 "c:\\utils\\devkitpro\\devkitppc\\bin\\../lib/gcc/powerpc-eabi/4.6.3/include/stddef.h"
	.file 5 "c:\\utils\\devkitpro\\devkitppc\\bin\\../lib/gcc/powerpc-eabi/4.6.3/../../../../powerpc-eabi/include/sys/_types.h"
	.file 6 "c:\\utils\\devkitpro\\devkitppc\\bin\\../lib/gcc/powerpc-eabi/4.6.3/../../../../powerpc-eabi/include/sys/reent.h"
	.file 7 "c:\\utils\\devkitpro\\devkitppc\\bin\\../lib/gcc/powerpc-eabi/4.6.3/../../../../powerpc-eabi/include/stdio.h"
	.file 8 "d:/Data/Nintendo/TenebraeGX/src/common.h"
	.file 9 "d:/Data/Nintendo/TenebraeGX/src/bspfile.h"
	.file 10 "d:/Data/Nintendo/TenebraeGX/src/zone.h"
	.file 11 "d:/Data/Nintendo/TenebraeGX/src/mathlib.h"
	.file 12 "d:/Data/Nintendo/TenebraeGX/src/quakedef.h"
	.file 13 "d:/Data/Nintendo/TenebraeGX/src/cvar.h"
	.file 14 "d:/Data/Nintendo/TenebraeGX/src/net.h"
	.file 15 "d:/Data/Nintendo/TenebraeGX/src/cmd.h"
	.file 16 "d:/Data/Nintendo/TenebraeGX/src/sound.h"
	.file 17 "d:/Data/Nintendo/TenebraeGX/src/render.h"
	.file 18 "d:/Data/Nintendo/TenebraeGX/src/gl_model.h"
	.file 19 "d:/Data/Nintendo/TenebraeGX/src/glquake.h"
	.file 20 "d:/Data/Nintendo/TenebraeGX/src/client.h"
	.file 21 "d:/Data/Nintendo/TenebraeGX/src/modelgen.h"
	.file 22 "d:/Data/Nintendo/TenebraeGX/src/world.h"
	.file 23 "c:/utils/devkitPro/libogc/include/ogc/gx.h"