	.file	"cmd.c"
	.section	".text"
.Ltext0:
	.cfi_sections	.debug_frame
	.align 2
	.globl Cmd_Wait_f
	.type	Cmd_Wait_f, @function
Cmd_Wait_f:
.LFB38:
	.file 1 "d:/Data/Nintendo/TenebraeGX/src/cmd.c"
	.loc 1 54 0
	.cfi_startproc
	.loc 1 55 0
	li 0,1
	lis 9,cmd_wait@ha
	stb 0,cmd_wait@l(9)
	.loc 1 56 0
	blr
	.cfi_endproc
.LFE38:
	.size	Cmd_Wait_f, .-Cmd_Wait_f
	.align 2
	.globl Cmd_List_f
	.type	Cmd_List_f, @function
Cmd_List_f:
.LFB64:
	.loc 1 904 0
	.cfi_startproc
	stwu 1,-32(1)
.LCFI0:
	.cfi_def_cfa_offset 32
	mflr 0
	mfcr 12
	stw 31,28(1)
	.loc 1 910 0
	lis 31,.LANCHOR0@ha
	.cfi_offset 31, -4
	.cfi_register 70, 12
	.cfi_register 65, 0
	.loc 1 904 0
	stw 0,36(1)
	.loc 1 910 0
	lwz 0,.LANCHOR0@l(31)
	.cfi_offset 65, 4
	la 31,.LANCHOR0@l(31)
	.loc 1 904 0
	stw 28,16(1)
	.loc 1 918 0
	li 28,0
	.cfi_offset 28, -16
	.loc 1 910 0
	cmpwi 7,0,1
	.loc 1 904 0
	stw 30,24(1)
	stw 27,12(1)
	.loc 1 917 0
	li 30,0
	.cfi_offset 27, -20
	.cfi_offset 30, -8
	.loc 1 904 0
	stw 29,20(1)
	stw 12,8(1)
	.loc 1 910 0
	ble- 7,.L3
	.cfi_offset 70, -24
	.cfi_offset 29, -12
.LVL0:
.LBB66:
.LBB67:
	.loc 1 479 0
	lwz 30,8(31)
.LBE67:
.LBE66:
	.loc 1 913 0
	mr 3,30
	bl Q_strlen
	mr 28,3
.LVL1:
.L3:
	.loc 1 922 0
	lwz 31,324(31)
.LVL2:
	.loc 1 921 0
	li 29,0
	cmpwi 4,30,0
	.loc 1 922 0
	cmpwi 7,31,0
	beq- 7,.L4
	.loc 1 928 0
	lis 27,.LC0@ha
	la 27,.LC0@l(27)
.LVL3:
.L7:
	.loc 1 924 0
	mr 5,28
	mr 3,30
	beq- 4,.L5
	.loc 1 924 0 is_stmt 0 discriminator 1
	lwz 4,4(31)
	bl Q_strncmp
	cmpwi 7,3,0
	bne- 7,.L6
.L5:
	.loc 1 928 0 is_stmt 1
	lwz 4,4(31)
	mr 3,27
	.loc 1 929 0
	addi 29,29,1
	.loc 1 928 0
	crxor 6,6,6
	bl Con_Printf
.LVL4:
.L6:
	.loc 1 922 0
	lwz 31,0(31)
.LVL5:
	cmpwi 7,31,0
	bne+ 7,.L7
.LVL6:
.L4:
	.loc 1 932 0
	lis 3,.LC1@ha
	mr 4,29
	la 3,.LC1@l(3)
	crxor 6,6,6
	bl Con_Printf
	.loc 1 933 0
	beq- 4,.L8
	.loc 1 935 0
	lis 3,.LC2@ha
	mr 4,30
	la 3,.LC2@l(3)
	crxor 6,6,6
	bl Con_Printf
.L8:
	.loc 1 937 0
	lis 3,.LC3@ha
	la 3,.LC3@l(3)
	crxor 6,6,6
	bl Con_Printf
	.loc 1 938 0
	lwz 0,36(1)
	lwz 12,8(1)
	mtlr 0
	lwz 27,12(1)
	lwz 28,16(1)
.LVL7:
	mtcrf 8,12
	lwz 29,20(1)
	lwz 30,24(1)
.LVL8:
	lwz 31,28(1)
.LVL9:
	addi 1,1,32
.LCFI1:
	.cfi_def_cfa_offset 0
	.cfi_restore 70
	.cfi_restore 31
	.cfi_restore 30
	.cfi_restore 29
	.cfi_restore 28
	.cfi_restore 27
	blr
	.cfi_endproc
.LFE64:
	.size	Cmd_List_f, .-Cmd_List_f
	.align 2
	.globl Cmd_Echo_f
	.type	Cmd_Echo_f, @function
Cmd_Echo_f:
.LFB45:
	.loc 1 333 0
	.cfi_startproc
.LVL10:
	stwu 1,-24(1)
.LCFI2:
	.cfi_def_cfa_offset 24
	mflr 0
	stw 30,16(1)
.LBB68:
.LBB69:
	.loc 1 467 0
	lis 30,.LANCHOR0@ha
	.cfi_offset 30, -8
	.cfi_register 65, 0
.LBE69:
.LBE68:
	.loc 1 333 0
	stw 0,28(1)
.LBB72:
.LBB70:
	.loc 1 467 0
	lwz 0,.LANCHOR0@l(30)
	.cfi_offset 65, 4
.LBE70:
.LBE72:
	.loc 1 333 0
	stw 28,8(1)
	.loc 1 336 0
	cmpwi 7,0,1
	.loc 1 333 0
	stw 29,12(1)
	stw 31,20(1)
	.loc 1 336 0
	ble- 7,.L14
	.cfi_offset 31, -4
	.cfi_offset 29, -12
	.cfi_offset 28, -16
	lis 28,.LC5@ha
	li 31,1
	la 30,.LANCHOR0@l(30)
	la 28,.LC5@l(28)
.LBB73:
.LBB74:
	.loc 1 478 0
	lis 29,.LC4@ha
.LVL11:
.L16:
	.loc 1 477 0
	cmplw 7,31,0
	.loc 1 479 0
	addi 9,30,4
	.loc 1 332 0
	slwi 0,31,2
	.loc 1 478 0
	la 4,.LC4@l(29)
	.loc 1 477 0
	bge- 7,.L15
	.loc 1 479 0
	lwzx 4,9,0
.L15:
.LBE74:
.LBE73:
	.loc 1 337 0
	mr 3,28
	.loc 1 336 0
	addi 31,31,1
.LVL12:
	.loc 1 337 0
	crxor 6,6,6
	bl Con_Printf
.LVL13:
.LBB75:
.LBB71:
	.loc 1 467 0
	lwz 0,0(30)
.LBE71:
.LBE75:
	.loc 1 336 0
	cmpw 7,31,0
	blt+ 7,.L16
.LVL14:
.L14:
	.loc 1 338 0
	lis 3,.LC3@ha
	la 3,.LC3@l(3)
	crxor 6,6,6
	bl Con_Printf
	.loc 1 339 0
	lwz 0,28(1)
	lwz 28,8(1)
	mtlr 0
	lwz 29,12(1)
	lwz 30,16(1)
	lwz 31,20(1)
	addi 1,1,24
.LCFI3:
	.cfi_def_cfa_offset 0
	.cfi_restore 31
	.cfi_restore 30
	.cfi_restore 29
	.cfi_restore 28
	blr
	.cfi_endproc
.LFE45:
	.size	Cmd_Echo_f, .-Cmd_Echo_f
	.align 2
	.globl Cmd_ForwardToServer
	.type	Cmd_ForwardToServer, @function
Cmd_ForwardToServer:
.LFB62:
	.loc 1 850 0
	.cfi_startproc
	stwu 1,-24(1)
.LCFI4:
	.cfi_def_cfa_offset 24
	mflr 0
	stw 30,16(1)
	.loc 1 851 0
	lis 30,cls@ha
	.cfi_offset 30, -8
	.cfi_register 65, 0
	.loc 1 850 0
	stw 0,28(1)
	.loc 1 851 0
	lwz 0,cls@l(30)
	.cfi_offset 65, 4
	la 30,cls@l(30)
	.loc 1 850 0
	stw 29,12(1)
	.loc 1 851 0
	cmpwi 7,0,2
	.loc 1 850 0
	stw 31,20(1)
	.loc 1 851 0
	beq- 7,.L20
	.cfi_offset 31, -4
	.cfi_offset 29, -12
.LVL15:
.LBB90:
.LBB91:
	.loc 1 477 0
	lis 9,.LANCHOR0@ha
	lwz 0,.LANCHOR0@l(9)
	la 9,.LANCHOR0@l(9)
	cmpwi 7,0,0
	beq- 7,.L27
	.loc 1 479 0
	lwz 4,4(9)
.L21:
.LBE91:
.LBE90:
	.loc 1 853 0
	lis 3,.LC6@ha
	la 3,.LC6@l(3)
	crxor 6,6,6
	bl Con_Printf
.LVL16:
.L19:
	.loc 1 870 0
	lwz 0,28(1)
	lwz 29,12(1)
	mtlr 0
	lwz 30,16(1)
	lwz 31,20(1)
	addi 1,1,24
	.cfi_remember_state
.LCFI5:
	.cfi_def_cfa_offset 0
	.cfi_restore 31
	.cfi_restore 30
	.cfi_restore 29
	blr
.LVL17:
.L27:
.LCFI6:
	.cfi_restore_state
.LBB93:
.LBB92:
	.loc 1 478 0
	lis 4,.LC4@ha
	la 4,.LC4@l(4)
	b .L21
.LVL18:
.L20:
.LBE92:
.LBE93:
	.loc 1 857 0
	lbz 0,2249(30)
	cmpwi 7,0,0
	bne+ 7,.L19
.LBB94:
.LBB95:
	.loc 1 860 0
	addi 30,30,2280
.LBB96:
.LBB97:
	.loc 1 477 0
	lis 31,.LANCHOR0@ha
.LBE97:
.LBE96:
	.loc 1 860 0
	mr 3,30
	li 4,4
	bl MSG_WriteByte
.LVL19:
.LBB100:
.LBB98:
	.loc 1 477 0
	lwz 0,.LANCHOR0@l(31)
	la 29,.LANCHOR0@l(31)
	cmpwi 7,0,0
	beq- 7,.L28
	.loc 1 479 0
	lwz 3,4(29)
.L23:
.LBE98:
.LBE100:
	.loc 1 861 0
	lis 4,.LC7@ha
	la 4,.LC7@l(4)
	bl Q_strcasecmp
	cmpwi 7,3,0
	beq- 7,.L24
.LVL20:
.LBB101:
.LBB102:
	.loc 1 477 0
	lwz 0,.LANCHOR0@l(31)
	cmpwi 7,0,0
	beq- 7,.L29
	.loc 1 479 0
	lwz 4,4(29)
.L25:
.LBE102:
.LBE101:
	.loc 1 863 0
	mr 3,30
	bl SZ_Print
	.loc 1 864 0
	lis 4,.LC8@ha
	mr 3,30
	la 4,.LC8@l(4)
	bl SZ_Print
.LVL21:
.L24:
	.loc 1 866 0
	lwz 0,.LANCHOR0@l(31)
	cmpwi 7,0,1
	ble- 7,.L26
	.loc 1 867 0
	lwz 4,328(29)
	mr 3,30
	bl SZ_Print
	b .L19
.L28:
.LBB104:
.LBB99:
	.loc 1 478 0
	lis 3,.LC4@ha
	la 3,.LC4@l(3)
	b .L23
.LVL22:
.L29:
.LBE99:
.LBE104:
.LBB105:
.LBB103:
	lis 4,.LC4@ha
	la 4,.LC4@l(4)
	b .L25
.LVL23:
.L26:
.LBE103:
.LBE105:
	.loc 1 869 0
	lis 4,.LC3@ha
	mr 3,30
	la 4,.LC3@l(4)
	bl SZ_Print
	b .L19
.LBE95:
.LBE94:
	.cfi_endproc
.LFE62:
	.size	Cmd_ForwardToServer, .-Cmd_ForwardToServer
	.align 2
	.globl Cbuf_Init
	.type	Cbuf_Init, @function
Cbuf_Init:
.LFB39:
	.loc 1 74 0
	.cfi_startproc
	mflr 0
	stwu 1,-8(1)
.LCFI7:
	.cfi_def_cfa_offset 8
	.cfi_register 65, 0
	.loc 1 75 0
	lis 3,cmd_text@ha
	li 4,8192
	la 3,cmd_text@l(3)
	.loc 1 74 0
	stw 0,12(1)
	.loc 1 75 0
	.cfi_offset 65, 4
	bl SZ_Alloc
	.loc 1 76 0
	lwz 0,12(1)
	addi 1,1,8
.LCFI8:
	.cfi_def_cfa_offset 0
	mtlr 0
	blr
	.cfi_endproc
.LFE39:
	.size	Cbuf_Init, .-Cbuf_Init
	.align 2
	.globl Cbuf_AddText
	.type	Cbuf_AddText, @function
Cbuf_AddText:
.LFB40:
	.loc 1 87 0
	.cfi_startproc
.LVL24:
	stwu 1,-16(1)
.LCFI9:
	.cfi_def_cfa_offset 16
	mflr 0
	stw 31,12(1)
	.loc 1 92 0
	lis 31,cmd_text@ha
	.cfi_offset 31, -4
	.cfi_register 65, 0
	la 31,cmd_text@l(31)
	.loc 1 87 0
	stw 0,20(1)
	stw 30,8(1)
	.loc 1 87 0
	mr 30,3
	.cfi_offset 30, -8
	.cfi_offset 65, 4
	.loc 1 90 0
	bl Q_strlen
.LVL25:
	.loc 1 92 0
	lwz 9,12(31)
	lwz 0,8(31)
	add 9,3,9
	cmpw 7,9,0
	bge- 7,.L35
	.loc 1 98 0
	mr 3,30
.LVL26:
	bl Q_strlen
	mr 4,30
	mr 5,3
	mr 3,31
	bl SZ_Write
	.loc 1 99 0
	lwz 0,20(1)
	lwz 30,8(1)
.LVL27:
	mtlr 0
	lwz 31,12(1)
	addi 1,1,16
	.cfi_remember_state
.LCFI10:
	.cfi_def_cfa_offset 0
	.cfi_restore 31
	.cfi_restore 30
	blr
.LVL28:
.L35:
.LCFI11:
	.cfi_restore_state
	.loc 1 94 0
	lis 3,.LC9@ha
.LVL29:
	la 3,.LC9@l(3)
	crxor 6,6,6
	bl Con_Printf
	.loc 1 99 0
	lwz 0,20(1)
	lwz 30,8(1)
.LVL30:
	mtlr 0
	lwz 31,12(1)
	addi 1,1,16
	.cfi_restore 30
	.cfi_restore 31
.LCFI12:
	.cfi_def_cfa_offset 0
	blr
	.cfi_endproc
.LFE40:
	.size	Cbuf_AddText, .-Cbuf_AddText
	.align 2
	.globl Cbuf_InsertText
	.type	Cbuf_InsertText, @function
Cbuf_InsertText:
.LFB41:
	.loc 1 112 0
	.cfi_startproc
.LVL31:
	stwu 1,-24(1)
.LCFI13:
	.cfi_def_cfa_offset 24
	mflr 0
	stw 30,16(1)
	.loc 1 117 0
	lis 30,cmd_text@ha
	.cfi_offset 30, -8
	.cfi_register 65, 0
	la 30,cmd_text@l(30)
	.loc 1 112 0
	stw 31,20(1)
	.loc 1 117 0
	lwz 31,12(30)
	.cfi_offset 31, -4
.LVL32:
	.loc 1 112 0
	stw 29,12(1)
	mr 29,3
	.cfi_offset 29, -12
	.loc 1 118 0
	cmpwi 7,31,0
	.loc 1 112 0
	stw 0,28(1)
	stw 28,8(1)
	.loc 1 118 0
	bne- 7,.L38
	.cfi_offset 28, -16
	.cfi_offset 65, 4
.LVL33:
	.loc 1 136 0
	lwz 0,28(1)
	lwz 28,8(1)
	lwz 29,12(1)
	mtlr 0
	lwz 30,16(1)
	lwz 31,20(1)
	addi 1,1,24
	.cfi_remember_state
.LCFI14:
	.cfi_def_cfa_offset 0
	.cfi_restore 31
	.cfi_restore 30
	.cfi_restore 29
	.cfi_restore 28
	.loc 1 128 0
	b Cbuf_AddText
.LVL34:
.L38:
.LCFI15:
	.cfi_restore_state
	.loc 1 120 0
	mr 3,31
.LVL35:
	bl Z_Malloc
	.loc 1 121 0
	lwz 4,4(30)
	mr 5,31
	.loc 1 120 0
	mr 28,3
.LVL36:
	.loc 1 121 0
	bl Q_memcpy
.LVL37:
	.loc 1 122 0
	mr 3,30
	bl SZ_Clear
	.loc 1 128 0
	mr 3,29
	bl Cbuf_AddText
	.loc 1 133 0
	mr 3,30
	mr 4,28
	mr 5,31
	bl SZ_Write
	.loc 1 134 0
	mr 3,28
	bl Z_Free
	.loc 1 136 0
	lwz 0,28(1)
	lwz 28,8(1)
.LVL38:
	mtlr 0
	lwz 29,12(1)
.LVL39:
	lwz 30,16(1)
	lwz 31,20(1)
.LVL40:
	addi 1,1,24
.LCFI16:
	.cfi_def_cfa_offset 0
	.cfi_restore 31
	.cfi_restore 30
	.cfi_restore 29
	.cfi_restore 28
	blr
	.cfi_endproc
.LFE41:
	.size	Cbuf_InsertText, .-Cbuf_InsertText
	.align 2
	.globl Cmd_StuffCmds_f
	.type	Cmd_StuffCmds_f, @function
Cmd_StuffCmds_f:
.LFB43:
	.loc 1 214 0
	.cfi_startproc
	mflr 0
	stwu 1,-40(1)
.LCFI17:
	.cfi_def_cfa_offset 40
	.cfi_register 65, 0
	.loc 1 219 0
	lis 9,.LANCHOR0@ha
	.loc 1 214 0
	stw 24,8(1)
	stw 0,44(1)
	.loc 1 219 0
	lwz 0,.LANCHOR0@l(9)
	.cfi_offset 65, 4
	.cfi_offset 24, -32
	.loc 1 214 0
	stw 25,12(1)
	.loc 1 219 0
	cmpwi 7,0,1
	.loc 1 214 0
	stw 26,16(1)
	stw 27,20(1)
	stw 28,24(1)
	stw 29,28(1)
	stw 30,32(1)
	stw 31,36(1)
	.loc 1 219 0
	bne- 7,.L40
	.cfi_offset 31, -4
	.cfi_offset 30, -8
	.cfi_offset 29, -12
	.cfi_offset 28, -16
	.cfi_offset 27, -20
	.cfi_offset 26, -24
	.cfi_offset 25, -28
.LVL41:
.LBB112:
.LBB113:
	.loc 1 227 0
	lis 28,com_argc@ha
	lwz 0,com_argc@l(28)
	cmpwi 7,0,1
	ble- 7,.L39
	lis 27,com_argv@ha
	li 29,0
	li 31,1
	la 27,com_argv@l(27)
	la 28,com_argc@l(28)
.LVL42:
.L43:
	.loc 1 229 0
	lwz 9,0(27)
	slwi 0,31,2
	.loc 1 227 0
	addi 31,31,1
	.loc 1 229 0
	lwzx 3,9,0
	cmpwi 7,3,0
	beq- 7,.L42
	.loc 1 231 0
	bl Q_strlen
	addi 3,3,1
	add 29,29,3
.LVL43:
.L42:
	.loc 1 227 0
	lwz 0,0(28)
	cmpw 7,31,0
	blt+ 7,.L43
	.loc 1 233 0
	cmpwi 7,29,0
	bne- 7,.L64
.LVL44:
.L39:
.LBE113:
.LBE112:
	.loc 1 275 0
	lwz 0,44(1)
	lwz 24,8(1)
	mtlr 0
	lwz 25,12(1)
	lwz 26,16(1)
	lwz 27,20(1)
	lwz 28,24(1)
	lwz 29,28(1)
	lwz 30,32(1)
	lwz 31,36(1)
	addi 1,1,40
	.cfi_remember_state
.LCFI18:
	.cfi_def_cfa_offset 0
	.cfi_restore 31
	.cfi_restore 30
	.cfi_restore 29
	.cfi_restore 28
	.cfi_restore 27
	.cfi_restore 26
	.cfi_restore 25
	.cfi_restore 24
	blr
.LVL45:
.L64:
.LCFI19:
	.cfi_restore_state
.LBB116:
.LBB114:
	.loc 1 236 0
	addi 25,29,1
	mr 3,25
	bl Z_Malloc
	.loc 1 237 0
	li 0,0
	stb 0,0(3)
	.loc 1 236 0
	mr 30,3
.LVL46:
	.loc 1 238 0
	lwz 0,0(28)
	cmpwi 7,0,1
	ble- 7,.L44
	.loc 1 244 0
	lis 26,.LC8@ha
	.loc 1 238 0
	li 31,1
	.loc 1 244 0
	la 26,.LC8@l(26)
.LVL47:
.L47:
	.loc 1 240 0
	lwz 9,0(27)
	slwi 0,31,2
	.loc 1 242 0
	mr 3,30
	.loc 1 240 0
	lwzx 0,9,0
	cmpwi 7,0,0
	.loc 1 242 0
	mr 4,0
	.loc 1 240 0
	beq- 7,.L63
	.loc 1 242 0
	bl Q_strcat
	.loc 1 243 0
	lwz 9,0(28)
	.loc 1 244 0
	mr 3,30
	mr 4,26
	.loc 1 243 0
	addi 0,9,-1
	cmpw 7,31,0
	beq- 7,.L46
	.loc 1 244 0
	bl Q_strcat
.L63:
	lwz 9,0(28)
.L46:
	.loc 1 238 0
	addi 31,31,1
.LVL48:
	cmpw 7,31,9
	blt+ 7,.L47
.LVL49:
.L44:
	.loc 1 248 0
	mr 3,25
	bl Z_Malloc
	.loc 1 251 0
	addic. 27,29,-1
	.loc 1 249 0
	li 0,0
	.loc 1 248 0
	mr 26,3
.LVL50:
	.loc 1 249 0
	stb 0,0(3)
.LVL51:
	.loc 1 251 0
	ble- 0,.L48
	.loc 1 264 0
	lis 25,.LC3@ha
	.loc 1 251 0
	li 31,0
	.loc 1 261 0
	li 24,0
	.loc 1 264 0
	la 25,.LC3@l(25)
	b .L52
.LVL52:
.L49:
	.loc 1 251 0
	addi 31,31,1
.LVL53:
	cmpw 7,27,31
	ble- 7,.L65
.LVL54:
.L52:
	.loc 1 253 0
	lbzx 0,30,31
	cmpwi 7,0,43
	bne+ 7,.L49
	.loc 1 255 0
	addi 31,31,1
.LVL55:
	.loc 1 257 0
	li 28,43
	lbzx 0,30,31
	add 4,30,31
	mr 29,4
	cmpwi 7,0,43
	beq- 7,.L50
	cmpwi 7,0,45
	li 28,45
	beq- 7,.L50
	cmpwi 7,0,0
	li 28,0
	bne+ 7,.L58
	b .L50
.LVL56:
.L67:
	beq- 6,.L57
	beq- 1,.L66
.L58:
	addi 31,31,1
.LVL57:
	lbzx 0,30,31
	.loc 1 213 0
	add 29,30,31
	.loc 1 257 0
	cmpwi 7,0,43
	cmpwi 6,0,45
	cmpwi 1,0,0
	bne+ 7,.L67
	li 28,43
.L50:
.LVL58:
	.loc 1 261 0
	stb 24,0(29)
	.loc 1 263 0
	mr 3,26
	.loc 1 266 0
	addi 31,31,-1
.LVL59:
	.loc 1 263 0
	bl Q_strcat
	.loc 1 251 0
	addi 31,31,1
.LVL60:
	.loc 1 264 0
	mr 3,26
	mr 4,25
	bl Q_strcat
.LVL61:
	.loc 1 251 0
	cmpw 7,27,31
	.loc 1 265 0
	stb 28,0(29)
	.loc 1 251 0
	bgt+ 7,.L52
.LVL62:
.L65:
	.loc 1 270 0
	lbz 0,0(26)
	cmpwi 7,0,0
	bne- 7,.L68
.LVL63:
.L48:
	.loc 1 273 0
	mr 3,30
	bl Z_Free
	.loc 1 274 0
	mr 3,26
	bl Z_Free
.LBE114:
.LBE116:
	.loc 1 275 0
	lwz 0,44(1)
	lwz 24,8(1)
	mtlr 0
	lwz 25,12(1)
	lwz 26,16(1)
.LVL64:
	lwz 27,20(1)
.LVL65:
	lwz 28,24(1)
	lwz 29,28(1)
	lwz 30,32(1)
.LVL66:
	lwz 31,36(1)
	addi 1,1,40
	.cfi_remember_state
	.cfi_restore 24
	.cfi_restore 25
	.cfi_restore 26
	.cfi_restore 27
	.cfi_restore 28
	.cfi_restore 29
	.cfi_restore 30
	.cfi_restore 31
.LCFI20:
	.cfi_def_cfa_offset 0
	blr
.L40:
.LCFI21:
	.cfi_restore_state
	.loc 1 221 0
	lis 3,.LC10@ha
	la 3,.LC10@l(3)
	crxor 6,6,6
	bl Con_Printf
	.loc 1 275 0
	lwz 0,44(1)
	lwz 24,8(1)
	mtlr 0
	lwz 25,12(1)
	lwz 26,16(1)
	lwz 27,20(1)
	lwz 28,24(1)
	lwz 29,28(1)
	lwz 30,32(1)
	lwz 31,36(1)
	addi 1,1,40
	.cfi_remember_state
	.cfi_restore 24
	.cfi_restore 25
	.cfi_restore 26
	.cfi_restore 27
	.cfi_restore 28
	.cfi_restore 29
	.cfi_restore 30
	.cfi_restore 31
.LCFI22:
	.cfi_def_cfa_offset 0
	blr
.LVL67:
.L57:
.LCFI23:
	.cfi_restore_state
.LBB117:
.LBB115:
	.loc 1 257 0
	li 28,45
	b .L50
.LVL68:
.L68:
	.loc 1 271 0
	mr 3,26
	bl Cbuf_InsertText
	b .L48
.LVL69:
.L66:
	.loc 1 257 0
	li 28,0
	b .L50
.LBE115:
.LBE117:
	.cfi_endproc
.LFE43:
	.size	Cmd_StuffCmds_f, .-Cmd_StuffCmds_f
	.align 2
	.globl Cmd_Exec_f
	.type	Cmd_Exec_f, @function
Cmd_Exec_f:
.LFB44:
	.loc 1 284 0
	.cfi_startproc
	stwu 1,-24(1)
.LCFI24:
	.cfi_def_cfa_offset 24
	mflr 0
	stw 29,12(1)
	.loc 1 288 0
	lis 29,.LANCHOR0@ha
	.cfi_offset 29, -12
	.cfi_register 65, 0
	.loc 1 284 0
	stw 0,28(1)
	.loc 1 288 0
	lwz 0,.LANCHOR0@l(29)
	.cfi_offset 65, 4
	.loc 1 284 0
	stw 28,8(1)
	.loc 1 288 0
	la 28,.LANCHOR0@l(29)
	.cfi_offset 28, -16
	cmpwi 7,0,2
	.loc 1 284 0
	stw 30,16(1)
	stw 31,20(1)
	.loc 1 288 0
	beq- 7,.L70
	.cfi_offset 31, -4
	.cfi_offset 30, -8
	.loc 1 290 0
	lis 3,.LC11@ha
	la 3,.LC11@l(3)
	crxor 6,6,6
	bl Con_Printf
.L69:
	.loc 1 322 0
	lwz 0,28(1)
	lwz 28,8(1)
	mtlr 0
	lwz 29,12(1)
	lwz 30,16(1)
	lwz 31,20(1)
	addi 1,1,24
	.cfi_remember_state
.LCFI25:
	.cfi_def_cfa_offset 0
	.cfi_restore 31
	.cfi_restore 30
	.cfi_restore 29
	.cfi_restore 28
	blr
.L70:
.LCFI26:
	.cfi_restore_state
	.loc 1 294 0
	bl Hunk_LowMark
.LBB134:
.LBB135:
	.loc 1 477 0
	lwz 0,.LANCHOR0@l(29)
.LBE135:
.LBE134:
	.loc 1 294 0
	mr 31,3
.LVL70:
.LBB138:
.LBB136:
	.loc 1 477 0
	cmplwi 7,0,1
	ble- 7,.L76
	.loc 1 479 0
	lwz 3,8(28)
.LVL71:
.L72:
.LBE136:
.LBE138:
	.loc 1 295 0
	bl COM_LoadHunkFile
.LVL72:
.LBB139:
.LBB140:
.LBB141:
.LBB142:
	.loc 1 477 0
	lwz 0,.LANCHOR0@l(29)
.LBE142:
.LBE141:
.LBE140:
.LBE139:
	.loc 1 296 0
	mr. 30,3
.LBB151:
.LBB149:
.LBB146:
.LBB143:
	.loc 1 477 0
	cmplwi 7,0,1
.LBE143:
.LBE146:
.LBE149:
.LBE151:
	.loc 1 296 0
	beq- 0,.L79
.LVL73:
.LBB152:
.LBB153:
	.loc 1 477 0
	ble- 7,.L78
	.loc 1 479 0
	lwz 4,8(28)
.L75:
.LBE153:
.LBE152:
	.loc 1 318 0
	lis 3,.LC13@ha
.LVL74:
	la 3,.LC13@l(3)
	crxor 6,6,6
	bl Con_Printf
	.loc 1 320 0
	mr 3,30
	bl Cbuf_InsertText
	.loc 1 321 0
	mr 3,31
	bl Hunk_FreeToLowMark
	.loc 1 322 0
	lwz 0,28(1)
	lwz 28,8(1)
	mtlr 0
	lwz 29,12(1)
	lwz 30,16(1)
.LVL75:
	lwz 31,20(1)
.LVL76:
	addi 1,1,24
	.cfi_remember_state
	.cfi_restore 28
	.cfi_restore 29
	.cfi_restore 30
	.cfi_restore 31
.LCFI27:
	.cfi_def_cfa_offset 0
	blr
.LVL77:
.L76:
.LCFI28:
	.cfi_restore_state
.LBB155:
.LBB137:
	.loc 1 478 0
	lis 3,.LC4@ha
.LVL78:
	la 3,.LC4@l(3)
	b .L72
.LVL79:
.L78:
.LBE137:
.LBE155:
.LBB156:
.LBB154:
	lis 4,.LC4@ha
	la 4,.LC4@l(4)
	b .L75
.LVL80:
.L79:
.LBE154:
.LBE156:
.LBB157:
.LBB150:
.LBB147:
.LBB144:
	.loc 1 477 0
	ble- 7,.L77
	.loc 1 479 0
	lwz 4,8(28)
.L74:
.LBE144:
.LBE147:
	.loc 1 298 0
	lis 3,.LC12@ha
.LVL81:
	la 3,.LC12@l(3)
	crxor 6,6,6
	bl Con_Printf
	b .L69
.L77:
.LBB148:
.LBB145:
	.loc 1 478 0
	lis 4,.LC4@ha
	la 4,.LC4@l(4)
	b .L74
.LBE145:
.LBE148:
.LBE150:
.LBE157:
	.cfi_endproc
.LFE44:
	.size	Cmd_Exec_f, .-Cmd_Exec_f
	.align 2
	.globl CopyString
	.type	CopyString, @function
CopyString:
.LFB46:
	.loc 1 350 0
	.cfi_startproc
.LVL82:
	mflr 0
	stwu 1,-16(1)
.LCFI29:
	.cfi_def_cfa_offset 16
	.cfi_register 65, 0
	stw 30,8(1)
	mr 30,3
	.cfi_offset 30, -8
	stw 0,20(1)
	stw 31,12(1)
	.loc 1 353 0
	.cfi_offset 31, -4
	.cfi_offset 65, 4
	bl strlen
.LVL83:
	addi 3,3,1
	bl Z_Malloc
	.loc 1 354 0
	mr 4,30
	.loc 1 353 0
	mr 31,3
.LVL84:
	.loc 1 354 0
	bl strcpy
.LVL85:
	.loc 1 356 0
	lwz 0,20(1)
	mr 3,31
	lwz 30,8(1)
.LVL86:
	mtlr 0
	lwz 31,12(1)
.LVL87:
	addi 1,1,16
.LCFI30:
	.cfi_def_cfa_offset 0
	.cfi_restore 31
	.cfi_restore 30
	blr
	.cfi_endproc
.LFE46:
	.size	CopyString, .-CopyString
	.align 2
	.globl Cmd_Alias_f
	.type	Cmd_Alias_f, @function
Cmd_Alias_f:
.LFB47:
	.loc 1 359 0
	.cfi_startproc
	stwu 1,-1064(1)
.LCFI31:
	.cfi_def_cfa_offset 1064
	mflr 0
	mfcr 12
	stw 29,1052(1)
.LBB158:
.LBB159:
	.loc 1 467 0
	lis 29,.LANCHOR0@ha
	.cfi_offset 29, -12
	.cfi_register 70, 12
	.cfi_register 65, 0
.LBE159:
.LBE158:
	.loc 1 359 0
	stw 0,1068(1)
.LBB162:
.LBB160:
	.loc 1 467 0
	lwz 0,.LANCHOR0@l(29)
	.cfi_offset 65, 4
.LBE160:
.LBE162:
	.loc 1 359 0
	stw 28,1048(1)
.LBB163:
.LBB161:
	.loc 1 467 0
	la 28,.LANCHOR0@l(29)
	.cfi_offset 28, -16
.LBE161:
.LBE163:
	.loc 1 365 0
	cmpwi 7,0,1
	.loc 1 359 0
	stw 25,1036(1)
	stw 26,1040(1)
	stw 27,1044(1)
	stw 30,1056(1)
	stw 31,1060(1)
	stw 12,1032(1)
	.loc 1 365 0
	beq- 7,.L101
	.cfi_offset 70, -32
	.cfi_offset 31, -4
	.cfi_offset 30, -8
	.cfi_offset 27, -20
	.cfi_offset 26, -24
	.cfi_offset 25, -28
.LVL88:
.LBB164:
.LBB165:
	.loc 1 477 0
	cmplwi 7,0,1
	ble- 7,.L94
	.loc 1 479 0
	lwz 30,8(28)
.LBE165:
.LBE164:
	.loc 1 374 0
	mr 3,30
	bl strlen
	cmplwi 7,3,31
	bgt- 7,.L102
.L85:
	.loc 1 381 0
	lis 27,cmd_alias@ha
	lwz 26,cmd_alias@l(27)
.LVL89:
	cmpwi 7,26,0
	bne+ 7,.L97
	b .L86
.LVL90:
.L87:
	lwz 26,0(26)
.LVL91:
	cmpwi 7,26,0
	beq- 7,.L86
.L97:
	.loc 1 383 0
	addi 31,26,4
	mr 3,30
	mr 4,31
	bl strcmp
	cmpwi 7,3,0
	bne+ 7,.L87
	.loc 1 385 0
	lwz 3,36(26)
	bl Z_Free
.L88:
	.loc 1 396 0
	mr 4,30
	mr 3,31
	bl strcpy
.LBB167:
.LBB168:
	.loc 1 467 0
	lwz 29,.LANCHOR0@l(29)
.LVL92:
.LBE168:
.LBE167:
	.loc 1 399 0
	mr 30,1
	li 0,0
	.loc 1 401 0
	cmpwi 7,29,2
	.loc 1 399 0
	stbu 0,8(30)
	.loc 1 401 0
	ble- 7,.L90
	li 31,2
.LBB169:
.LBB170:
	.loc 1 478 0
	lis 27,.LC4@ha
	cmpw 4,31,29
.LBE170:
.LBE169:
	.loc 1 405 0
	li 25,8192
.LVL93:
.L93:
.LBB172:
.LBB171:
	.loc 1 477 0
	cmplw 7,31,29
	.loc 1 479 0
	addi 9,28,4
	.loc 1 358 0
	slwi 0,31,2
	.loc 1 478 0
	la 4,.LC4@l(27)
	.loc 1 477 0
	bge- 7,.L91
	.loc 1 479 0
	lwzx 4,9,0
.L91:
.LBE171:
.LBE172:
	.loc 1 403 0
	mr 3,30
	.loc 1 401 0
	addi 31,31,1
.LVL94:
	.loc 1 403 0
	bl strcat
	.loc 1 405 0
	mr 3,30
	.loc 1 404 0
	beq- 4,.L92
	.loc 1 405 0
	bl strlen
	sthx 25,30,3
.L92:
.LVL95:
	.loc 1 401 0
	cmpw 4,31,29
	bne+ 4,.L93
.LVL96:
.L90:
	.loc 1 407 0
	mr 3,30
	bl strlen
	li 0,2560
	sthx 0,30,3
	.loc 1 409 0
	mr 3,30
	bl CopyString
	stw 3,36(26)
.LVL97:
.L81:
	.loc 1 410 0
	lwz 0,1068(1)
	lwz 12,1032(1)
	mtlr 0
	lwz 25,1036(1)
	lwz 26,1040(1)
	mtcrf 8,12
	lwz 27,1044(1)
	lwz 28,1048(1)
	lwz 29,1052(1)
	lwz 30,1056(1)
	lwz 31,1060(1)
	addi 1,1,1064
	.cfi_remember_state
.LCFI32:
	.cfi_def_cfa_offset 0
	.cfi_restore 70
	.cfi_restore 31
	.cfi_restore 30
	.cfi_restore 29
	.cfi_restore 28
	.cfi_restore 27
	.cfi_restore 26
	.cfi_restore 25
	blr
.LVL98:
.L94:
.LCFI33:
	.cfi_restore_state
.LBB173:
.LBB166:
	.loc 1 478 0
	lis 30,.LC4@ha
	la 30,.LC4@l(30)
	b .L85
.L102:
.LBE166:
.LBE173:
	.loc 1 376 0
	lis 3,.LC16@ha
	la 3,.LC16@l(3)
	crxor 6,6,6
	bl Con_Printf
	.loc 1 410 0
	lwz 0,1068(1)
	lwz 12,1032(1)
	mtlr 0
	lwz 25,1036(1)
	lwz 26,1040(1)
	mtcrf 8,12
	lwz 27,1044(1)
	lwz 28,1048(1)
	lwz 29,1052(1)
	lwz 30,1056(1)
	lwz 31,1060(1)
	addi 1,1,1064
	.cfi_remember_state
	.cfi_restore 25
	.cfi_restore 26
	.cfi_restore 27
	.cfi_restore 28
	.cfi_restore 29
	.cfi_restore 30
	.cfi_restore 31
	.cfi_restore 70
.LCFI34:
	.cfi_def_cfa_offset 0
	blr
.LVL99:
.L101:
.LCFI35:
	.cfi_restore_state
	.loc 1 367 0
	lis 3,.LC14@ha
	la 3,.LC14@l(3)
	crxor 6,6,6
	bl Con_Printf
	.loc 1 368 0
	lis 9,cmd_alias@ha
	lwz 31,cmd_alias@l(9)
.LVL100:
	cmpwi 7,31,0
	beq- 7,.L81
	lis 30,.LC15@ha
	la 30,.LC15@l(30)
.LVL101:
.L84:
	.loc 1 369 0 discriminator 2
	lwz 5,36(31)
	addi 4,31,4
	mr 3,30
	crxor 6,6,6
	bl Con_Printf
	.loc 1 368 0 discriminator 2
	lwz 31,0(31)
.LVL102:
	cmpwi 7,31,0
	bne+ 7,.L84
	.loc 1 410 0
	lwz 0,1068(1)
	lwz 12,1032(1)
	mtlr 0
	lwz 25,1036(1)
	lwz 26,1040(1)
	mtcrf 8,12
	lwz 27,1044(1)
	lwz 28,1048(1)
	lwz 29,1052(1)
	lwz 30,1056(1)
	lwz 31,1060(1)
.LVL103:
	addi 1,1,1064
	.cfi_remember_state
	.cfi_restore 25
	.cfi_restore 26
	.cfi_restore 27
	.cfi_restore 28
	.cfi_restore 29
	.cfi_restore 30
	.cfi_restore 31
	.cfi_restore 70
.LCFI36:
	.cfi_def_cfa_offset 0
	blr
.LVL104:
.L86:
.LCFI37:
	.cfi_restore_state
	.loc 1 392 0
	li 3,40
	bl Z_Malloc
	.loc 1 393 0
	lwz 0,cmd_alias@l(27)
	.loc 1 392 0
	mr 26,3
.LVL105:
	addi 31,3,4
	.loc 1 393 0
	stw 0,0(3)
	.loc 1 394 0
	stw 3,cmd_alias@l(27)
	b .L88
	.cfi_endproc
.LFE47:
	.size	Cmd_Alias_f, .-Cmd_Alias_f
	.align 2
	.globl Cmd_Argc
	.type	Cmd_Argc, @function
Cmd_Argc:
.LFB49:
	.loc 1 466 0
	.cfi_startproc
	.loc 1 467 0
	lis 9,.LANCHOR0@ha
	.loc 1 468 0
	lwz 3,.LANCHOR0@l(9)
	blr
	.cfi_endproc
.LFE49:
	.size	Cmd_Argc, .-Cmd_Argc
	.align 2
	.globl Cmd_Argv
	.type	Cmd_Argv, @function
Cmd_Argv:
.LFB50:
	.loc 1 476 0
	.cfi_startproc
.LVL106:
	.loc 1 477 0
	lis 9,.LANCHOR0@ha
	lwz 0,.LANCHOR0@l(9)
	la 9,.LANCHOR0@l(9)
	cmplw 7,3,0
	bge- 7,.L106
	.loc 1 479 0
	slwi 3,3,2
.LVL107:
	add 9,9,3
	lwz 3,4(9)
	blr
.LVL108:
.L106:
	.loc 1 478 0
	lis 3,.LC4@ha
.LVL109:
	la 3,.LC4@l(3)
	.loc 1 480 0
	blr
	.cfi_endproc
.LFE50:
	.size	Cmd_Argv, .-Cmd_Argv
	.align 2
	.globl Cmd_Args
	.type	Cmd_Args, @function
Cmd_Args:
.LFB51:
	.loc 1 488 0
	.cfi_startproc
	.loc 1 489 0
	lis 9,.LANCHOR0+328@ha
	.loc 1 490 0
	lwz 3,.LANCHOR0+328@l(9)
	blr
	.cfi_endproc
.LFE51:
	.size	Cmd_Args, .-Cmd_Args
	.align 2
	.globl Cmd_TokenizeString
	.type	Cmd_TokenizeString, @function
Cmd_TokenizeString:
.LFB52:
	.loc 1 501 0
	.cfi_startproc
.LVL110:
	stwu 1,-32(1)
.LCFI38:
	.cfi_def_cfa_offset 32
	mflr 0
	stw 27,12(1)
	.loc 1 505 0
	lis 27,.LANCHOR0@ha
	.cfi_offset 27, -20
	.cfi_register 65, 0
	.loc 1 501 0
	stw 0,36(1)
	.loc 1 505 0
	lwz 0,.LANCHOR0@l(27)
	.cfi_offset 65, 4
	.loc 1 501 0
	stw 30,24(1)
	mr 30,3
	.cfi_offset 30, -8
	.loc 1 505 0
	cmpwi 7,0,0
	.loc 1 501 0
	stw 31,28(1)
	stw 28,16(1)
	.loc 1 505 0
	la 31,.LANCHOR0@l(27)
	.cfi_offset 28, -16
	.cfi_offset 31, -4
	.loc 1 501 0
	stw 29,20(1)
	.loc 1 505 0
	ble- 7,.L109
	.cfi_offset 29, -12
	mr 28,31
	li 29,0
.LVL111:
.L110:
	.loc 1 506 0 discriminator 2
	lwzu 3,4(28)
	.loc 1 505 0 discriminator 2
	addi 29,29,1
	.loc 1 506 0 discriminator 2
	bl Z_Free
.LVL112:
	.loc 1 505 0 discriminator 2
	lwz 0,0(31)
	cmpw 7,0,29
	bgt+ 7,.L110
.LVL113:
.L109:
	.loc 1 508 0
	li 0,0
	.loc 1 537 0
	lis 29,com_token@ha
	.loc 1 508 0
	stw 0,.LANCHOR0@l(27)
	.loc 1 537 0
	la 29,com_token@l(29)
	.loc 1 509 0
	stw 0,328(31)
.LVL114:
.L120:
	.loc 1 514 0 discriminator 1
	lbz 9,0(30)
	.loc 1 531 0 discriminator 1
	mr 3,30
	.loc 1 514 0 discriminator 1
	addi 0,9,-1
	.loc 1 525 0 discriminator 1
	cmpwi 6,9,0
	.loc 1 514 0 discriminator 1
	rlwinm 0,0,0,0xff
	cmpwi 1,9,10
	cmplwi 7,0,31
	bgt- 7,.L112
	.loc 1 516 0 discriminator 2
	addi 30,30,1
.LVL115:
	.loc 1 514 0 discriminator 2
	bne+ 1,.L120
.L108:
	.loc 1 543 0
	lwz 0,36(1)
	lwz 27,12(1)
	mtlr 0
	lwz 28,16(1)
	lwz 29,20(1)
	lwz 30,24(1)
	lwz 31,28(1)
	addi 1,1,32
	.cfi_remember_state
.LCFI39:
	.cfi_def_cfa_offset 0
	.cfi_restore 31
	.cfi_restore 30
	.cfi_restore 29
	.cfi_restore 28
	.cfi_restore 27
	blr
.L112:
.LCFI40:
	.cfi_restore_state
	.loc 1 525 0
	beq- 6,.L108
	.loc 1 528 0
	lwz 0,0(31)
	cmpwi 7,0,1
	beq- 7,.L121
.L115:
	.loc 1 531 0
	bl COM_Parse
.LVL116:
	.loc 1 532 0
	mr. 30,3
	beq- 0,.L108
	.loc 1 535 0
	lwz 28,0(31)
	cmpwi 7,28,79
	bgt+ 7,.L120
	.loc 1 537 0
	mr 3,29
.LVL117:
	slwi 28,28,2
	bl Q_strlen
	add 28,31,28
	addi 3,3,1
	bl Z_Malloc
	.loc 1 538 0
	lwz 0,0(31)
	.loc 1 537 0
	stw 3,4(28)
	.loc 1 538 0
	mr 4,29
	slwi 0,0,2
	add 9,31,0
	lwz 3,4(9)
	bl Q_strcpy
	.loc 1 539 0
	lwz 9,0(31)
	addi 0,9,1
	stw 0,0(31)
	b .L120
.LVL118:
.L121:
	.loc 1 529 0
	stw 30,328(31)
	b .L115
	.cfi_endproc
.LFE52:
	.size	Cmd_TokenizeString, .-Cmd_TokenizeString
	.align 2
	.globl Cmd_AddCommand
	.type	Cmd_AddCommand, @function
Cmd_AddCommand:
.LFB53:
	.loc 1 552 0
	.cfi_startproc
.LVL119:
	mflr 0
	stwu 1,-24(1)
.LCFI41:
	.cfi_def_cfa_offset 24
	.cfi_register 65, 0
	.loc 1 555 0
	lis 9,host_initialized@ha
	.loc 1 552 0
	stw 28,8(1)
	mr 28,4
	.cfi_offset 28, -16
	stw 0,28(1)
	.loc 1 555 0
	lbz 0,host_initialized@l(9)
	.cfi_offset 65, 4
	.loc 1 552 0
	stw 30,16(1)
	mr 30,3
	.cfi_offset 30, -8
	.loc 1 555 0
	cmpwi 7,0,0
	.loc 1 552 0
	stw 29,12(1)
	stw 31,20(1)
	.loc 1 555 0
	bne- 7,.L131
	.cfi_offset 31, -4
	.cfi_offset 29, -12
	.loc 1 559 0
	mr 3,30
	bl Cvar_VariableString
.LVL120:
	lbz 0,0(3)
	cmpwi 7,0,0
	bne- 7,.L132
.L124:
	.loc 1 566 0
	lis 29,.LANCHOR0@ha
	la 29,.LANCHOR0@l(29)
	lwz 31,324(29)
.LVL121:
	cmpwi 7,31,0
	bne+ 7,.L129
	b .L126
.LVL122:
.L127:
	lwz 31,0(31)
.LVL123:
	cmpwi 7,31,0
	beq- 7,.L126
.L129:
	.loc 1 568 0
	lwz 4,4(31)
	mr 3,30
	bl Q_strcmp
	cmpwi 7,3,0
	bne+ 7,.L127
	.loc 1 570 0
	lis 3,.LC19@ha
	mr 4,30
	la 3,.LC19@l(3)
	crxor 6,6,6
	bl Con_Printf
	.loc 1 580 0
	lwz 0,28(1)
	lwz 28,8(1)
.LVL124:
	mtlr 0
	lwz 29,12(1)
	lwz 30,16(1)
.LVL125:
	lwz 31,20(1)
.LVL126:
	addi 1,1,24
	.cfi_remember_state
.LCFI42:
	.cfi_def_cfa_offset 0
	.cfi_restore 31
	.cfi_restore 30
	.cfi_restore 29
	.cfi_restore 28
	blr
.LVL127:
.L126:
.LCFI43:
	.cfi_restore_state
.LBB176:
.LBB177:
	.loc 1 575 0
	li 3,12
	bl Hunk_Alloc
.LVL128:
	.loc 1 578 0
	lwz 0,324(29)
	.loc 1 576 0
	stw 30,4(3)
	.loc 1 578 0
	stw 0,0(3)
.LBE177:
.LBE176:
	.loc 1 580 0
	lwz 0,28(1)
.LBB180:
.LBB178:
	.loc 1 577 0
	stw 28,8(3)
.LBE178:
.LBE180:
	.loc 1 580 0
	mtlr 0
	lwz 28,8(1)
.LVL129:
	lwz 30,16(1)
.LVL130:
	lwz 31,20(1)
.LVL131:
.LBB181:
.LBB179:
	.loc 1 579 0
	stw 3,324(29)
.LBE179:
.LBE181:
	.loc 1 580 0
	lwz 29,12(1)
.LVL132:
	addi 1,1,24
	.cfi_remember_state
	.cfi_restore 28
	.cfi_restore 29
	.cfi_restore 30
	.cfi_restore 31
.LCFI44:
	.cfi_def_cfa_offset 0
	blr
.LVL133:
.L131:
.LCFI45:
	.cfi_restore_state
	.loc 1 556 0
	lis 3,.LC17@ha
.LVL134:
	la 3,.LC17@l(3)
	crxor 6,6,6
	bl Sys_Error
.LVL135:
	.loc 1 559 0
	mr 3,30
	bl Cvar_VariableString
	lbz 0,0(3)
	cmpwi 7,0,0
	beq+ 7,.L124
.L132:
	.loc 1 561 0
	lis 3,.LC18@ha
	mr 4,30
	la 3,.LC18@l(3)
	crxor 6,6,6
	bl Con_Printf
	.loc 1 580 0
	lwz 0,28(1)
	lwz 28,8(1)
.LVL136:
	mtlr 0
	lwz 29,12(1)
	lwz 30,16(1)
.LVL137:
	lwz 31,20(1)
	addi 1,1,24
	.cfi_restore 28
	.cfi_restore 29
	.cfi_restore 30
	.cfi_restore 31
.LCFI46:
	.cfi_def_cfa_offset 0
	blr
	.cfi_endproc
.LFE53:
	.size	Cmd_AddCommand, .-Cmd_AddCommand
	.align 2
	.globl Cmd_Init
	.type	Cmd_Init, @function
Cmd_Init:
.LFB48:
	.loc 1 446 0
	.cfi_startproc
	mflr 0
	stwu 1,-8(1)
.LCFI47:
	.cfi_def_cfa_offset 8
	.cfi_register 65, 0
	.loc 1 450 0
	lis 3,.LC20@ha
	lis 4,Cmd_StuffCmds_f@ha
	la 3,.LC20@l(3)
	la 4,Cmd_StuffCmds_f@l(4)
	.loc 1 446 0
	stw 0,12(1)
	.loc 1 450 0
	.cfi_offset 65, 4
	bl Cmd_AddCommand
	.loc 1 451 0
	lis 3,.LC21@ha
	lis 4,Cmd_Exec_f@ha
	la 3,.LC21@l(3)
	la 4,Cmd_Exec_f@l(4)
	bl Cmd_AddCommand
	.loc 1 452 0
	lis 3,.LC22@ha
	lis 4,Cmd_Echo_f@ha
	la 3,.LC22@l(3)
	la 4,Cmd_Echo_f@l(4)
	bl Cmd_AddCommand
	.loc 1 453 0
	lis 3,.LC23@ha
	lis 4,Cmd_Alias_f@ha
	la 3,.LC23@l(3)
	la 4,Cmd_Alias_f@l(4)
	bl Cmd_AddCommand
	.loc 1 454 0
	lis 3,.LC7@ha
	lis 4,Cmd_ForwardToServer@ha
	la 3,.LC7@l(3)
	la 4,Cmd_ForwardToServer@l(4)
	bl Cmd_AddCommand
	.loc 1 455 0
	lis 3,.LC24@ha
	lis 4,Cmd_Wait_f@ha
	la 3,.LC24@l(3)
	la 4,Cmd_Wait_f@l(4)
	bl Cmd_AddCommand
	.loc 1 456 0
	lis 3,.LC25@ha
	lis 4,Cmd_List_f@ha
	la 3,.LC25@l(3)
	la 4,Cmd_List_f@l(4)
	bl Cmd_AddCommand
	.loc 1 458 0
	lwz 0,12(1)
	.loc 1 457 0
	lis 3,.LC26@ha
	lis 4,Cvar_List_f@ha
	.loc 1 458 0
	mtlr 0
	.loc 1 457 0
	la 3,.LC26@l(3)
	la 4,Cvar_List_f@l(4)
	.loc 1 458 0
	addi 1,1,8
.LCFI48:
	.cfi_def_cfa_offset 0
	.loc 1 457 0
	b Cmd_AddCommand
	.cfi_endproc
.LFE48:
	.size	Cmd_Init, .-Cmd_Init
	.align 2
	.globl Cmd_Exists
	.type	Cmd_Exists, @function
Cmd_Exists:
.LFB54:
	.loc 1 588 0
	.cfi_startproc
.LVL138:
	stwu 1,-16(1)
.LCFI49:
	.cfi_def_cfa_offset 16
	.loc 1 591 0
	lis 9,.LANCHOR0+324@ha
	.loc 1 588 0
	mflr 0
	stw 31,12(1)
	.loc 1 591 0
	lwz 31,.LANCHOR0+324@l(9)
	.cfi_offset 31, -4
	.cfi_register 65, 0
.LVL139:
	.loc 1 588 0
	stw 30,8(1)
	mr 30,3
	.cfi_offset 30, -8
	.loc 1 591 0
	cmpwi 7,31,0
	.loc 1 588 0
	stw 0,20(1)
	.loc 1 597 0
	li 3,0
.LVL140:
	.loc 1 591 0
	bne+ 7,.L139
	.cfi_offset 65, 4
	b .L135
.LVL141:
.L142:
	lwz 31,0(31)
.LVL142:
	cmpwi 7,31,0
	beq- 7,.L141
.L139:
	.loc 1 593 0
	lwz 4,4(31)
	mr 3,30
	bl Q_strcmp
	cmpwi 7,3,0
	bne+ 7,.L142
	.loc 1 594 0
	li 3,1
.L135:
	.loc 1 598 0
	lwz 0,20(1)
	lwz 30,8(1)
.LVL143:
	mtlr 0
	lwz 31,12(1)
.LVL144:
	addi 1,1,16
	.cfi_remember_state
.LCFI50:
	.cfi_def_cfa_offset 0
	.cfi_restore 31
	.cfi_restore 30
	blr
.LVL145:
.L141:
.LCFI51:
	.cfi_restore_state
	lwz 0,20(1)
	.loc 1 597 0
	li 3,0
	.loc 1 598 0
	lwz 30,8(1)
.LVL146:
	mtlr 0
	lwz 31,12(1)
.LVL147:
	addi 1,1,16
	.cfi_restore 30
	.cfi_restore 31
.LCFI52:
	.cfi_def_cfa_offset 0
	blr
	.cfi_endproc
.LFE54:
	.size	Cmd_Exists, .-Cmd_Exists
	.align 2
	.globl Cmd_CompleteCommand
	.type	Cmd_CompleteCommand, @function
Cmd_CompleteCommand:
.LFB55:
	.loc 1 608 0
	.cfi_startproc
.LVL148:
	mflr 0
	stwu 1,-24(1)
.LCFI53:
	.cfi_def_cfa_offset 24
	.cfi_register 65, 0
	stw 29,12(1)
	mr 29,3
	.cfi_offset 29, -12
	stw 30,16(1)
	stw 0,28(1)
	stw 31,20(1)
	.loc 1 612 0
	.cfi_offset 31, -4
	.cfi_offset 65, 4
	.cfi_offset 30, -8
	bl Q_strlen
.LVL149:
	.loc 1 614 0
	mr. 30,3
	.loc 1 615 0
	li 3,0
.LVL150:
	.loc 1 614 0
	beq- 0,.L144
	.loc 1 618 0
	lis 9,.LANCHOR0+324@ha
	lwz 31,.LANCHOR0+324@l(9)
.LVL151:
	cmpwi 7,31,0
	bne+ 7,.L149
	b .L144
.LVL152:
.L145:
	lwz 31,0(31)
.LVL153:
	cmpwi 7,31,0
	beq- 7,.L151
.L149:
	.loc 1 619 0
	lwz 4,4(31)
	mr 3,29
	mr 5,30
	bl Q_strncmp
	cmpwi 7,3,0
	bne+ 7,.L145
	.loc 1 620 0
	lwz 3,4(31)
.LVL154:
.L144:
	.loc 1 623 0
	lwz 0,28(1)
	lwz 29,12(1)
.LVL155:
	mtlr 0
	lwz 30,16(1)
.LVL156:
	lwz 31,20(1)
	addi 1,1,24
	.cfi_remember_state
.LCFI54:
	.cfi_def_cfa_offset 0
	.cfi_restore 31
	.cfi_restore 30
	.cfi_restore 29
	blr
.LVL157:
.L151:
.LCFI55:
	.cfi_restore_state
	lwz 0,28(1)
	.loc 1 622 0
	li 3,0
	.loc 1 623 0
	lwz 29,12(1)
.LVL158:
	mtlr 0
	lwz 30,16(1)
.LVL159:
	lwz 31,20(1)
.LVL160:
	addi 1,1,24
	.cfi_restore 29
	.cfi_restore 30
	.cfi_restore 31
.LCFI56:
	.cfi_def_cfa_offset 0
	blr
	.cfi_endproc
.LFE55:
	.size	Cmd_CompleteCommand, .-Cmd_CompleteCommand
	.align 2
	.globl Cmd_CompleteCountPossible
	.type	Cmd_CompleteCountPossible, @function
Cmd_CompleteCountPossible:
.LFB56:
	.loc 1 631 0
	.cfi_startproc
.LVL161:
	mflr 0
	stwu 1,-24(1)
.LCFI57:
	.cfi_def_cfa_offset 24
	.cfi_register 65, 0
	stw 28,8(1)
	mr 28,3
	.cfi_offset 28, -16
	stw 29,12(1)
	stw 30,16(1)
	.loc 1 641 0
	li 30,0
	.cfi_offset 30, -8
	.cfi_offset 29, -12
	.loc 1 631 0
	stw 0,28(1)
	stw 31,20(1)
	.loc 1 638 0
	.cfi_offset 31, -4
	.cfi_offset 65, 4
	bl Q_strlen
.LVL162:
	.loc 1 640 0
	mr. 29,3
	beq- 0,.L153
	.loc 1 643 0
	lis 9,.LANCHOR0+324@ha
	lwz 31,.LANCHOR0+324@l(9)
.LVL163:
	cmpwi 7,31,0
	beq- 7,.L153
.LVL164:
.L155:
	.loc 1 644 0
	lwz 4,4(31)
	mr 3,28
	mr 5,29
	bl Q_strncmp
	.loc 1 643 0
	lwz 31,0(31)
.LVL165:
	.loc 1 645 0
	subfic 0,3,0
	addze 0,30
	.loc 1 643 0
	cmpwi 7,31,0
	.loc 1 645 0
	mr 30,0
.LVL166:
	.loc 1 643 0
	bne+ 7,.L155
.LVL167:
.L153:
	.loc 1 647 0
	lwz 0,28(1)
	mr 3,30
	lwz 28,8(1)
.LVL168:
	mtlr 0
	lwz 29,12(1)
.LVL169:
	lwz 30,16(1)
	lwz 31,20(1)
	addi 1,1,24
.LCFI58:
	.cfi_def_cfa_offset 0
	.cfi_restore 31
	.cfi_restore 30
	.cfi_restore 29
	.cfi_restore 28
	blr
	.cfi_endproc
.LFE56:
	.size	Cmd_CompleteCountPossible, .-Cmd_CompleteCountPossible
	.align 2
	.globl Cmd_CompletePrintPossible
	.type	Cmd_CompletePrintPossible, @function
Cmd_CompletePrintPossible:
.LFB57:
	.loc 1 655 0
	.cfi_startproc
.LVL170:
	mflr 0
	stwu 1,-2128(1)
.LCFI59:
	.cfi_def_cfa_offset 2128
	.cfi_register 65, 0
	stw 25,2100(1)
	stw 0,2132(1)
	stw 26,2104(1)
	mr 26,3
	.cfi_offset 26, -24
	.cfi_offset 65, 4
	.cfi_offset 25, -28
	stw 27,2108(1)
	stw 29,2116(1)
	stw 30,2120(1)
	stw 22,2088(1)
	stw 23,2092(1)
	stw 24,2096(1)
	stw 28,2112(1)
	stw 31,2124(1)
	.loc 1 665 0
	.cfi_offset 31, -4
	.cfi_offset 28, -16
	.cfi_offset 24, -32
	.cfi_offset 23, -36
	.cfi_offset 22, -40
	.cfi_offset 30, -8
	.cfi_offset 29, -12
	.cfi_offset 27, -20
	bl Q_strlen
.LVL171:
	.loc 1 666 0
	lis 4,.LC4@ha
	.loc 1 665 0
	mr 27,3
.LVL172:
	.loc 1 666 0
	la 4,.LC4@l(4)
	addi 3,1,40
.LVL173:
	bl Q_strcpy
	.loc 1 670 0
	lis 9,.LANCHOR0+324@ha
	lwz 29,.LANCHOR0+324@l(9)
	.loc 1 668 0
	lis 9,vid+20@ha
	lwz 25,vid+20@l(9)
	.loc 1 670 0
	cmpwi 7,29,0
	.loc 1 668 0
	srwi 25,25,3
	addi 30,25,-3
.LVL174:
	.loc 1 670 0
	beq- 7,.L160
	lis 28,.LC8@ha
	li 31,0
	.loc 1 688 0
	addi 25,25,-26
	la 28,.LC8@l(28)
	b .L167
.LVL175:
.L161:
	.loc 1 670 0
	lwz 29,0(29)
.LVL176:
	cmpwi 7,29,0
	beq- 7,.L160
.LVL177:
.L167:
	.loc 1 671 0
	lwz 4,4(29)
	mr 3,26
	mr 5,27
	bl Q_strncmp
	cmpwi 7,3,0
	bne+ 7,.L161
	.loc 1 673 0
	lwz 4,4(29)
	addi 3,1,8
	bl Q_strcpy
	.loc 1 675 0
	addi 3,1,8
	bl Q_strlen
	.loc 1 678 0
	cmpwi 7,3,19
	.loc 1 675 0
	mr 22,3
.LVL178:
	.loc 1 676 0
	add 31,31,3
.LVL179:
	.loc 1 678 0
	bgt- 7,.L162
	.loc 1 654 0
	subf 23,3,31
	.loc 1 676 0
	mr 24,31
	.loc 1 654 0
	addi 23,23,20
	b .L164
.LVL180:
.L163:
	.loc 1 678 0
	cmpw 7,24,23
	beq- 7,.L173
.L164:
	.loc 1 680 0
	cmpw 7,30,24
	.loc 1 683 0
	addi 24,24,1
.LVL181:
	.loc 1 680 0
	ble+ 7,.L163
	.loc 1 681 0
	addi 3,1,8
	mr 4,28
	bl Q_strcat
.LVL182:
	.loc 1 678 0
	cmpw 7,24,23
	bne+ 7,.L164
.L173:
	.loc 1 654 0
	subf 31,22,31
	addi 31,31,20
.LVL183:
.L162:
	.loc 1 686 0
	addi 3,1,40
	addi 4,1,8
	bl Q_strcat
	.loc 1 688 0
	cmpw 7,25,31
	bgt- 7,.L165
.LVL184:
	.loc 1 689 0 discriminator 1
	cmpw 7,30,31
	ble- 7,.L168
.L166:
	.loc 1 690 0 discriminator 2
	addi 3,1,40
	mr 4,28
	.loc 1 689 0 discriminator 2
	addi 31,31,1
.LVL185:
	.loc 1 690 0 discriminator 2
	bl Q_strcat
.LVL186:
	.loc 1 689 0 discriminator 2
	cmpw 7,30,31
	bgt+ 7,.L166
.L168:
	.loc 1 670 0
	lwz 29,0(29)
.LVL187:
	.loc 1 693 0
	li 31,0
.LVL188:
	.loc 1 670 0
	cmpwi 7,29,0
	bne+ 7,.L167
.LVL189:
.L160:
	.loc 1 696 0
	lis 3,.LC27@ha
	addi 4,1,40
	la 3,.LC27@l(3)
	crxor 6,6,6
	bl Con_Printf
	.loc 1 697 0
	lwz 0,2132(1)
	lwz 22,2088(1)
	mtlr 0
	lwz 23,2092(1)
	lwz 24,2096(1)
	lwz 25,2100(1)
	lwz 26,2104(1)
.LVL190:
	lwz 27,2108(1)
.LVL191:
	lwz 28,2112(1)
	lwz 29,2116(1)
.LVL192:
	lwz 30,2120(1)
.LVL193:
	lwz 31,2124(1)
	addi 1,1,2128
	.cfi_remember_state
.LCFI60:
	.cfi_def_cfa_offset 0
	.cfi_restore 31
	.cfi_restore 30
	.cfi_restore 29
	.cfi_restore 28
	.cfi_restore 27
	.cfi_restore 26
	.cfi_restore 25
	.cfi_restore 24
	.cfi_restore 23
	.cfi_restore 22
	blr
.LVL194:
.L165:
.LCFI61:
	.cfi_restore_state
	.loc 1 693 0
	cmpw 7,30,31
	mfcr 0
	rlwinm 0,0,30,1
	neg 0,0
	and 31,31,0
.LVL195:
	b .L161
	.cfi_endproc
.LFE57:
	.size	Cmd_CompletePrintPossible, .-Cmd_CompletePrintPossible
	.align 2
	.globl Cmd_CompleteAlias
	.type	Cmd_CompleteAlias, @function
Cmd_CompleteAlias:
.LFB58:
	.loc 1 707 0
	.cfi_startproc
.LVL196:
	mflr 0
	stwu 1,-24(1)
.LCFI62:
	.cfi_def_cfa_offset 24
	.cfi_register 65, 0
	stw 28,8(1)
	mr 28,3
	.cfi_offset 28, -16
	stw 29,12(1)
	stw 30,16(1)
	.loc 1 714 0
	li 30,0
	.cfi_offset 30, -8
	.cfi_offset 29, -12
	.loc 1 707 0
	stw 0,28(1)
	stw 31,20(1)
	.loc 1 711 0
	.cfi_offset 31, -4
	.cfi_offset 65, 4
	bl Q_strlen
.LVL197:
	.loc 1 713 0
	mr. 29,3
	beq- 0,.L175
	.loc 1 716 0
	lis 9,cmd_alias@ha
	lwz 31,cmd_alias@l(9)
.LVL198:
	cmpwi 7,31,0
	bne+ 7,.L179
	b .L175
.LVL199:
.L182:
	lwz 31,0(31)
.LVL200:
	cmpwi 7,31,0
	beq- 7,.L181
.L179:
	.loc 1 717 0
	addi 30,31,4
	mr 3,28
	mr 4,30
	mr 5,29
	bl Q_strncmp
	cmpwi 7,3,0
	bne+ 7,.L182
.LVL201:
.L175:
	.loc 1 720 0
	lwz 0,28(1)
	mr 3,30
	lwz 28,8(1)
.LVL202:
	mtlr 0
	lwz 29,12(1)
.LVL203:
	lwz 30,16(1)
	lwz 31,20(1)
	addi 1,1,24
	.cfi_remember_state
.LCFI63:
	.cfi_def_cfa_offset 0
	.cfi_restore 31
	.cfi_restore 30
	.cfi_restore 29
	.cfi_restore 28
	blr
.LVL204:
.L181:
.LCFI64:
	.cfi_restore_state
	lwz 0,28(1)
	.loc 1 719 0
	li 30,0
	.loc 1 720 0
	mr 3,30
	lwz 28,8(1)
.LVL205:
	mtlr 0
	lwz 29,12(1)
.LVL206:
	lwz 30,16(1)
	lwz 31,20(1)
.LVL207:
	addi 1,1,24
	.cfi_restore 28
	.cfi_restore 29
	.cfi_restore 30
	.cfi_restore 31
.LCFI65:
	.cfi_def_cfa_offset 0
	blr
	.cfi_endproc
.LFE58:
	.size	Cmd_CompleteAlias, .-Cmd_CompleteAlias
	.align 2
	.globl Cmd_CompleteAliasCountPossible
	.type	Cmd_CompleteAliasCountPossible, @function
Cmd_CompleteAliasCountPossible:
.LFB59:
	.loc 1 728 0
	.cfi_startproc
.LVL208:
	mflr 0
	stwu 1,-24(1)
.LCFI66:
	.cfi_def_cfa_offset 24
	.cfi_register 65, 0
	stw 28,8(1)
	mr 28,3
	.cfi_offset 28, -16
	stw 29,12(1)
	stw 30,16(1)
	.loc 1 738 0
	li 30,0
	.cfi_offset 30, -8
	.cfi_offset 29, -12
	.loc 1 728 0
	stw 0,28(1)
	stw 31,20(1)
	.loc 1 735 0
	.cfi_offset 31, -4
	.cfi_offset 65, 4
	bl Q_strlen
.LVL209:
	.loc 1 737 0
	mr. 29,3
	beq- 0,.L184
	.loc 1 740 0
	lis 9,cmd_alias@ha
	lwz 31,cmd_alias@l(9)
.LVL210:
	cmpwi 7,31,0
	beq- 7,.L184
.LVL211:
.L186:
	.loc 1 741 0
	addi 4,31,4
	mr 3,28
	mr 5,29
	bl Q_strncmp
	.loc 1 740 0
	lwz 31,0(31)
.LVL212:
	.loc 1 742 0
	subfic 0,3,0
	addze 0,30
	.loc 1 740 0
	cmpwi 7,31,0
	.loc 1 742 0
	mr 30,0
.LVL213:
	.loc 1 740 0
	bne+ 7,.L186
.LVL214:
.L184:
	.loc 1 744 0
	lwz 0,28(1)
	mr 3,30
	lwz 28,8(1)
.LVL215:
	mtlr 0
	lwz 29,12(1)
.LVL216:
	lwz 30,16(1)
	lwz 31,20(1)
	addi 1,1,24
.LCFI67:
	.cfi_def_cfa_offset 0
	.cfi_restore 31
	.cfi_restore 30
	.cfi_restore 29
	.cfi_restore 28
	blr
	.cfi_endproc
.LFE59:
	.size	Cmd_CompleteAliasCountPossible, .-Cmd_CompleteAliasCountPossible
	.align 2
	.globl Cmd_CompleteAliasPrintPossible
	.type	Cmd_CompleteAliasPrintPossible, @function
Cmd_CompleteAliasPrintPossible:
.LFB60:
	.loc 1 752 0
	.cfi_startproc
.LVL217:
	mflr 0
	stwu 1,-2128(1)
.LCFI68:
	.cfi_def_cfa_offset 2128
	.cfi_register 65, 0
	stw 24,2096(1)
	stw 0,2132(1)
	stw 25,2100(1)
	mr 25,3
	.cfi_offset 25, -28
	.cfi_offset 65, 4
	.cfi_offset 24, -32
	stw 26,2104(1)
	stw 29,2116(1)
	stw 30,2120(1)
	stw 22,2088(1)
	stw 23,2092(1)
	stw 27,2108(1)
	stw 28,2112(1)
	stw 31,2124(1)
	.loc 1 762 0
	.cfi_offset 31, -4
	.cfi_offset 28, -16
	.cfi_offset 27, -20
	.cfi_offset 23, -36
	.cfi_offset 22, -40
	.cfi_offset 30, -8
	.cfi_offset 29, -12
	.cfi_offset 26, -24
	bl Q_strlen
.LVL218:
	.loc 1 763 0
	lis 4,.LC4@ha
	.loc 1 762 0
	mr 26,3
.LVL219:
	.loc 1 763 0
	la 4,.LC4@l(4)
	addi 3,1,40
.LVL220:
	bl Q_strcpy
	.loc 1 767 0
	lis 9,cmd_alias@ha
	lwz 29,cmd_alias@l(9)
	.loc 1 765 0
	lis 9,vid+20@ha
	lwz 24,vid+20@l(9)
	.loc 1 767 0
	cmpwi 7,29,0
	.loc 1 765 0
	srwi 24,24,3
	addi 30,24,-3
.LVL221:
	.loc 1 767 0
	beq- 7,.L191
	lis 28,.LC8@ha
	li 31,0
	.loc 1 785 0
	addi 24,24,-26
	la 28,.LC8@l(28)
	b .L198
.LVL222:
.L192:
	.loc 1 767 0
	lwz 29,0(29)
.LVL223:
	cmpwi 7,29,0
	beq- 7,.L191
.LVL224:
.L198:
	.loc 1 768 0
	addi 27,29,4
	mr 3,25
	mr 4,27
	mr 5,26
	bl Q_strncmp
	cmpwi 7,3,0
	bne+ 7,.L192
	.loc 1 770 0
	mr 4,27
	addi 3,1,8
	bl Q_strcpy
	.loc 1 772 0
	addi 3,1,8
	bl Q_strlen
	.loc 1 775 0
	cmpwi 7,3,19
	.loc 1 772 0
	mr 22,3
.LVL225:
	.loc 1 773 0
	add 31,31,3
.LVL226:
	.loc 1 775 0
	bgt- 7,.L193
	.loc 1 751 0
	subf 23,3,31
	.loc 1 773 0
	mr 27,31
	.loc 1 751 0
	addi 23,23,20
	b .L195
.LVL227:
.L194:
	.loc 1 775 0
	cmpw 7,27,23
	beq- 7,.L204
.L195:
	.loc 1 777 0
	cmpw 7,30,27
	.loc 1 780 0
	addi 27,27,1
.LVL228:
	.loc 1 777 0
	ble+ 7,.L194
	.loc 1 778 0
	addi 3,1,8
	mr 4,28
	bl Q_strcat
.LVL229:
	.loc 1 775 0
	cmpw 7,27,23
	bne+ 7,.L195
.L204:
	.loc 1 751 0
	subf 31,22,31
	addi 31,31,20
.LVL230:
.L193:
	.loc 1 783 0
	addi 3,1,40
	addi 4,1,8
	bl Q_strcat
	.loc 1 785 0
	cmpw 7,24,31
	bgt- 7,.L196
.LVL231:
	.loc 1 786 0 discriminator 1
	cmpw 7,30,31
	ble- 7,.L199
.L197:
	.loc 1 787 0 discriminator 2
	addi 3,1,40
	mr 4,28
	.loc 1 786 0 discriminator 2
	addi 31,31,1
.LVL232:
	.loc 1 787 0 discriminator 2
	bl Q_strcat
.LVL233:
	.loc 1 786 0 discriminator 2
	cmpw 7,30,31
	bgt+ 7,.L197
.L199:
	.loc 1 767 0
	lwz 29,0(29)
.LVL234:
	.loc 1 790 0
	li 31,0
.LVL235:
	.loc 1 767 0
	cmpwi 7,29,0
	bne+ 7,.L198
.LVL236:
.L191:
	.loc 1 792 0
	lis 3,.LC27@ha
	addi 4,1,40
	la 3,.LC27@l(3)
	crxor 6,6,6
	bl Con_Printf
	.loc 1 793 0
	lwz 0,2132(1)
	lwz 22,2088(1)
	mtlr 0
	lwz 23,2092(1)
	lwz 24,2096(1)
	lwz 25,2100(1)
.LVL237:
	lwz 26,2104(1)
.LVL238:
	lwz 27,2108(1)
	lwz 28,2112(1)
	lwz 29,2116(1)
.LVL239:
	lwz 30,2120(1)
.LVL240:
	lwz 31,2124(1)
	addi 1,1,2128
	.cfi_remember_state
.LCFI69:
	.cfi_def_cfa_offset 0
	.cfi_restore 31
	.cfi_restore 30
	.cfi_restore 29
	.cfi_restore 28
	.cfi_restore 27
	.cfi_restore 26
	.cfi_restore 25
	.cfi_restore 24
	.cfi_restore 23
	.cfi_restore 22
	blr
.LVL241:
.L196:
.LCFI70:
	.cfi_restore_state
	.loc 1 790 0
	cmpw 7,30,31
	mfcr 0
	rlwinm 0,0,30,1
	neg 0,0
	and 31,31,0
.LVL242:
	b .L192
	.cfi_endproc
.LFE60:
	.size	Cmd_CompleteAliasPrintPossible, .-Cmd_CompleteAliasPrintPossible
	.align 2
	.globl Cmd_ExecuteString
	.type	Cmd_ExecuteString, @function
Cmd_ExecuteString:
.LFB61:
	.loc 1 804 0
	.cfi_startproc
.LVL243:
	stwu 1,-24(1)
.LCFI71:
	.cfi_def_cfa_offset 24
	mflr 0
	.loc 1 808 0
	lis 9,cmd_source@ha
	.loc 1 804 0
	stw 29,12(1)
	.loc 1 812 0
	lis 29,.LANCHOR0@ha
	.cfi_offset 29, -12
	.cfi_register 65, 0
	.loc 1 804 0
	stw 0,28(1)
	stw 30,16(1)
	.loc 1 812 0
	la 30,.LANCHOR0@l(29)
	.cfi_offset 30, -8
	.cfi_offset 65, 4
	.loc 1 804 0
	stw 31,20(1)
	.loc 1 808 0
	stw 4,cmd_source@l(9)
	.loc 1 809 0
	.cfi_offset 31, -4
	bl Cmd_TokenizeString
.LVL244:
	.loc 1 812 0
	lwz 0,.LANCHOR0@l(29)
	cmpwi 7,0,0
	beq- 7,.L205
	.loc 1 816 0
	lwz 31,324(30)
.LVL245:
	cmpwi 7,31,0
	bne+ 7,.L216
	b .L207
.LVL246:
.L208:
	lwz 31,0(31)
.LVL247:
	cmpwi 7,31,0
	beq- 7,.L207
.L216:
	.loc 1 818 0
	lwz 4,4(31)
	lwz 3,4(30)
	bl Q_strcasecmp
	cmpwi 7,3,0
	bne+ 7,.L208
	.loc 1 820 0
	lwz 0,8(31)
	mtctr 0
	bctrl
.LVL248:
.L205:
	.loc 1 839 0
	lwz 0,28(1)
	lwz 29,12(1)
	mtlr 0
	lwz 30,16(1)
	lwz 31,20(1)
	addi 1,1,24
	.cfi_remember_state
.LCFI72:
	.cfi_def_cfa_offset 0
	.cfi_restore 31
	.cfi_restore 30
	.cfi_restore 29
	blr
.LVL249:
.L207:
.LCFI73:
	.cfi_restore_state
	.loc 1 826 0
	lis 9,cmd_alias@ha
	lwz 31,cmd_alias@l(9)
.LVL250:
	cmpwi 7,31,0
	bne+ 7,.L215
	b .L210
.LVL251:
.L211:
	lwz 31,0(31)
.LVL252:
	cmpwi 7,31,0
	beq- 7,.L210
.L215:
	.loc 1 828 0
	lwz 3,4(30)
	addi 4,31,4
	bl Q_strcasecmp
	cmpwi 7,3,0
	bne+ 7,.L211
	.loc 1 839 0
	lwz 0,28(1)
	.loc 1 830 0
	lwz 3,36(31)
	.loc 1 839 0
	lwz 29,12(1)
	mtlr 0
	lwz 30,16(1)
	lwz 31,20(1)
.LVL253:
	addi 1,1,24
	.cfi_remember_state
.LCFI74:
	.cfi_def_cfa_offset 0
	.cfi_restore 31
	.cfi_restore 30
	.cfi_restore 29
	.loc 1 830 0
	b Cbuf_InsertText
.LVL254:
.L210:
.LCFI75:
	.cfi_restore_state
	.loc 1 836 0
	bl Cvar_Command
	cmpwi 7,3,0
	bne- 7,.L205
.LVL255:
.LBB182:
.LBB183:
	.loc 1 477 0
	lwz 0,.LANCHOR0@l(29)
	cmpwi 7,0,0
	beq- 7,.L214
	.loc 1 479 0
	lwz 4,4(30)
.L213:
.LBE183:
.LBE182:
	.loc 1 837 0
	lis 3,.LC28@ha
	la 3,.LC28@l(3)
	crxor 6,6,6
	bl Con_Printf
	b .L205
.L214:
.LBB185:
.LBB184:
	.loc 1 478 0
	lis 4,.LC4@ha
	la 4,.LC4@l(4)
	b .L213
.LBE184:
.LBE185:
	.cfi_endproc
.LFE61:
	.size	Cmd_ExecuteString, .-Cmd_ExecuteString
	.align 2
	.globl Cbuf_Execute
	.type	Cbuf_Execute, @function
Cbuf_Execute:
.LFB42:
	.loc 1 144 0
	.cfi_startproc
	mflr 0
	stwu 1,-1064(1)
.LCFI76:
	.cfi_def_cfa_offset 1064
	.cfi_register 65, 0
	stw 28,1048(1)
	lis 28,cmd_text@ha
	.cfi_offset 28, -16
	stw 0,1068(1)
	la 28,cmd_text@l(28)
	stw 27,1044(1)
	stw 29,1052(1)
	stw 30,1056(1)
	stw 31,1060(1)
	stw 24,1032(1)
	.loc 1 156 0
	li 24,0
	.cfi_offset 24, -32
	.cfi_offset 31, -4
	.cfi_offset 30, -8
	.cfi_offset 29, -12
	.cfi_offset 27, -20
	.cfi_offset 65, 4
	.loc 1 144 0
	stw 25,1036(1)
	.loc 1 168 0
	li 25,0
	.cfi_offset 25, -28
	.loc 1 144 0
	stw 26,1040(1)
	.loc 1 186 0
	lis 26,cmd_wait@ha
	.cfi_offset 26, -24
.L220:
	.loc 1 150 0 discriminator 1
	lwz 29,12(28)
	cmpwi 7,29,0
	beq- 7,.L219
	.loc 1 153 0
	lwz 30,4(28)
.LVL256:
	.loc 1 156 0
	ble- 7,.L221
	mtctr 29
	li 9,0
	li 31,0
.LVL257:
.L225:
	.loc 1 158 0
	lbzx 0,30,31
	.loc 1 159 0
	xori 11,0,34
	subfic 11,11,0
	addze 11,9
	.loc 1 162 0
	cmpwi 7,0,10
	.loc 1 159 0
	mr 9,11
.LVL258:
	.loc 1 160 0
	andi. 11,9,1
.LVL259:
	cmpwi 6,0,59
	bne- 0,.L223
	.loc 1 160 0 is_stmt 0 discriminator 1
	beq- 6,.L224
.L223:
	.loc 1 162 0 is_stmt 1
	beq- 7,.L224
	.loc 1 156 0
	addi 31,31,1
.LVL260:
	bdnz .L225
	.loc 1 167 0
	addi 27,1,8
	mr 5,31
	mr 3,27
	mr 4,30
	.loc 1 168 0
	add 31,1,31
.LVL261:
	.loc 1 167 0
	bl memcpy
.LVL262:
	.loc 1 168 0
	stb 25,8(31)
.L226:
	.loc 1 175 0
	stw 24,12(28)
.L228:
	.loc 1 184 0
	mr 3,27
	li 4,1
	bl Cmd_ExecuteString
	.loc 1 186 0
	lbz 0,cmd_wait@l(26)
	la 9,cmd_wait@l(26)
	cmpwi 7,0,0
	beq+ 7,.L220
	.loc 1 189 0
	li 0,0
	stb 0,0(9)
.LVL263:
.L219:
	.loc 1 193 0
	lwz 0,1068(1)
	lwz 24,1032(1)
	mtlr 0
	lwz 25,1036(1)
	lwz 26,1040(1)
	lwz 27,1044(1)
	lwz 28,1048(1)
	lwz 29,1052(1)
	lwz 30,1056(1)
	lwz 31,1060(1)
	addi 1,1,1064
	.cfi_remember_state
.LCFI77:
	.cfi_def_cfa_offset 0
	.cfi_restore 31
	.cfi_restore 30
	.cfi_restore 29
	.cfi_restore 28
	.cfi_restore 27
	.cfi_restore 26
	.cfi_restore 25
	.cfi_restore 24
	blr
.LVL264:
.L224:
.LCFI78:
	.cfi_restore_state
	.loc 1 167 0
	addi 27,1,8
	mr 4,30
	mr 5,31
	mr 3,27
	bl memcpy
.LVL265:
	.loc 1 174 0
	cmpw 7,31,29
	.loc 1 168 0
	add 9,1,31
	.loc 1 175 0
	addi 31,31,1
	.loc 1 168 0
	stb 25,8(9)
	.loc 1 175 0
	mr 4,31
	.loc 1 174 0
	beq- 7,.L226
.L231:
.LVL266:
	.loc 1 179 0
	subf 29,31,29
	.loc 1 180 0
	mr 3,30
	add 4,30,4
	mr 5,29
	.loc 1 179 0
	stw 29,12(28)
	.loc 1 180 0
	bl Q_memcpy
	b .L228
.LVL267:
.L221:
	.loc 1 168 0
	mr 27,1
	li 4,1
	stbu 25,8(27)
	li 31,1
	b .L231
	.cfi_endproc
.LFE42:
	.size	Cbuf_Execute, .-Cbuf_Execute
	.align 2
	.globl Cmd_CheckParm
	.type	Cmd_CheckParm, @function
Cmd_CheckParm:
.LFB63:
	.loc 1 883 0
	.cfi_startproc
.LVL268:
	stwu 1,-24(1)
.LCFI79:
	.cfi_def_cfa_offset 24
	mflr 0
	stw 29,12(1)
	.loc 1 886 0
	mr. 29,3
	.cfi_offset 29, -12
	.cfi_register 65, 0
	.loc 1 883 0
	stw 0,28(1)
	stw 28,8(1)
	stw 30,16(1)
	stw 31,20(1)
	.loc 1 886 0
	beq- 0,.L242
	.cfi_offset 31, -4
	.cfi_offset 30, -8
	.cfi_offset 28, -16
	.cfi_offset 65, 4
.LVL269:
.L235:
.LBB186:
.LBB187:
	.loc 1 467 0 discriminator 1
	lis 30,.LANCHOR0@ha
.LBE187:
.LBE186:
	.loc 1 893 0 discriminator 1
	li 31,0
.LBB190:
.LBB188:
	.loc 1 467 0 discriminator 1
	lwz 0,.LANCHOR0@l(30)
.LBE188:
.LBE190:
	.loc 1 889 0 discriminator 1
	cmpwi 7,0,1
	ble- 7,.L236
	.loc 1 889 0 is_stmt 0
	li 31,1
.LBB191:
.LBB192:
	.loc 1 478 0 is_stmt 1
	lis 28,.LC4@ha
	.loc 1 479 0
	la 30,.LANCHOR0@l(30)
	b .L238
.LVL270:
.L244:
.LBE192:
.LBE191:
.LBB194:
.LBB189:
	.loc 1 467 0
	lwz 0,0(30)
.LBE189:
.LBE194:
	.loc 1 889 0
	addi 31,31,1
.LVL271:
	cmpw 7,31,0
	bge- 7,.L243
.LVL272:
.L238:
.LBB195:
.LBB193:
	.loc 1 477 0
	cmplw 7,31,0
	.loc 1 479 0
	addi 9,30,4
	.loc 1 882 0
	slwi 0,31,2
	.loc 1 478 0
	la 4,.LC4@l(28)
	.loc 1 477 0
	bge- 7,.L237
	.loc 1 479 0
	lwzx 4,9,0
.L237:
.LBE193:
.LBE195:
	.loc 1 890 0
	mr 3,29
	bl Q_strcasecmp
	cmpwi 7,3,0
	bne+ 7,.L244
.LVL273:
.L236:
	.loc 1 894 0
	lwz 0,28(1)
	mr 3,31
	lwz 28,8(1)
	mtlr 0
	lwz 29,12(1)
.LVL274:
	lwz 30,16(1)
	lwz 31,20(1)
	addi 1,1,24
	.cfi_remember_state
.LCFI80:
	.cfi_def_cfa_offset 0
	.cfi_restore 31
	.cfi_restore 30
	.cfi_restore 29
	.cfi_restore 28
	blr
.LVL275:
.L243:
.LCFI81:
	.cfi_restore_state
	lwz 0,28(1)
	.loc 1 893 0
	li 31,0
.LVL276:
	.loc 1 894 0
	mr 3,31
	lwz 28,8(1)
	mtlr 0
	lwz 29,12(1)
.LVL277:
	lwz 30,16(1)
	lwz 31,20(1)
	addi 1,1,24
	.cfi_remember_state
	.cfi_restore 28
	.cfi_restore 29
	.cfi_restore 30
	.cfi_restore 31
.LCFI82:
	.cfi_def_cfa_offset 0
	blr
.LVL278:
.L242:
.LCFI83:
	.cfi_restore_state
	.loc 1 887 0
	lis 3,.LC29@ha
.LVL279:
	la 3,.LC29@l(3)
	crxor 6,6,6
	bl Sys_Error
	b .L235
	.cfi_endproc
.LFE63:
	.size	Cmd_CheckParm, .-Cmd_CheckParm
	.comm	cmd_source,4,4
	.comm	cmd_text,16,4
	.comm	cmd_wait,1,1
	.comm	trashspot,4,4
	.comm	trashtest,4,4
	.comm	cmd_alias,4,4
	.comm	causticschain,4,4
	.section	.rodata.str1.4,"aMS",@progbits,1
	.align 2
.LC0:
	.string	"\"%s\"\n"
	.zero	2
.LC1:
	.string	"%i command(s)"
	.zero	2
.LC2:
	.string	" beginning with \"%s\""
	.zero	3
.LC3:
	.string	"\n"
	.zero	2
.LC4:
	.string	""
	.zero	3
.LC5:
	.string	"%s "
.LC6:
	.string	"Can't \"%s\", not connected\n"
	.zero	1
.LC7:
	.string	"cmd"
.LC8:
	.string	" "
	.zero	2
.LC9:
	.string	"Cbuf_AddText: overflow\n"
.LC10:
	.string	"stuffcmds : execute command line parameters\n"
	.zero	3
.LC11:
	.string	"exec <filename> : execute a script file\n"
	.zero	3
.LC12:
	.string	"couldn't exec %s\n"
	.zero	2
.LC13:
	.string	"execing %s\n"
.LC14:
	.string	"Current alias commands:\n"
	.zero	3
.LC15:
	.string	"%s : %s\n"
	.zero	3
.LC16:
	.string	"Alias name is too long\n"
.LC17:
	.string	"Cmd_AddCommand after host_initialized"
	.zero	2
.LC18:
	.string	"Cmd_AddCommand: %s already defined as a var\n"
	.zero	3
.LC19:
	.string	"Cmd_AddCommand: %s already defined\n"
.LC20:
	.string	"stuffcmds"
	.zero	2
.LC21:
	.string	"exec"
	.zero	3
.LC22:
	.string	"echo"
	.zero	3
.LC23:
	.string	"alias"
	.zero	2
.LC24:
	.string	"wait"
	.zero	3
.LC25:
	.string	"cmdlist"
.LC26:
	.string	"cvarlist"
	.zero	3
.LC27:
	.string	"%s\n\n"
	.zero	3
.LC28:
	.string	"Unknown command \"%s\"\n"
	.zero	2
.LC29:
	.string	"Cmd_CheckParm: NULL"
	.section	".bss"
	.align 2
	.set	.LANCHOR0,. + 0
	.type	cmd_argc, @object
	.size	cmd_argc, 4
cmd_argc:
	.zero	4
	.type	cmd_argv, @object
	.size	cmd_argv, 320
cmd_argv:
	.zero	320
	.type	cmd_functions, @object
	.size	cmd_functions, 4
cmd_functions:
	.zero	4
	.type	cmd_args, @object
	.size	cmd_args, 4
cmd_args:
	.zero	4
	.section	".text"
.Letext0:
	.file 2 "c:\\utils\\devkitpro\\devkitppc\\bin\\../lib/gcc/powerpc-eabi/4.6.3/../../../../powerpc-eabi/include/machine/_types.h"
	.file 3 "c:\\utils\\devkitpro\\devkitppc\\bin\\../lib/gcc/powerpc-eabi/4.6.3/../../../../powerpc-eabi/include/sys/lock.h"
	.file 4 "c:\\utils\\devkitpro\\devkitppc\\bin\\../lib/gcc/powerpc-eabi/4.6.3/include/stddef.h"
	.file 5 "c:\\utils\\devkitpro\\devkitppc\\bin\\../lib/gcc/powerpc-eabi/4.6.3/../../../../powerpc-eabi/include/sys/_types.h"
	.file 6 "c:\\utils\\devkitpro\\devkitppc\\bin\\../lib/gcc/powerpc-eabi/4.6.3/../../../../powerpc-eabi/include/sys/reent.h"
	.file 7 "c:\\utils\\devkitpro\\devkitppc\\bin\\../lib/gcc/powerpc-eabi/4.6.3/../../../../powerpc-eabi/include/stdio.h"
	.file 8 "d:/Data/Nintendo/TenebraeGX/src/common.h"
	.file 9 "d:/Data/Nintendo/TenebraeGX/src/vid.h"
	.file 10 "d:/Data/Nintendo/TenebraeGX/src/mathlib.h"
	.file 11 "d:/Data/Nintendo/TenebraeGX/src/net.h"
	.file 12 "d:/Data/Nintendo/TenebraeGX/src/cmd.h"
	.file 13 "d:/Data/Nintendo/TenebraeGX/src/client.h"
	.file 14 "d:/Data/Nintendo/TenebraeGX/src/gl_model.h"
	.file 15 "c:/utils/devkitPro/libogc/include/ogc/gx.h"
	.file 16 "d:/Data/Nintendo/TenebraeGX/src/glquake.h"
	.file 17 "d:/Data/Nintendo/TenebraeGX/src/quakedef.h"