	.file	"common.c"
	.section	".text"
.Ltext0:
	.cfi_sections	.debug_frame
	.align 2
	.globl ShortSwap
	.type	ShortSwap, @function
ShortSwap:
.LFB57:
	.file 1 "d:/Data/Nintendo/TenebraeGX/src/common.c"
	.loc 1 527 0
	.cfi_startproc
.LVL0:
	.loc 1 535 0
	rlwinm 0,3,0,0xff
	rlwinm 3,3,24,24,31
.LVL1:
	slwi 0,0,8
	.loc 1 536 0
	.loc 1 535 0
	add 3,3,0
	.loc 1 536 0
	extsh 3,3
	blr
	.cfi_endproc
.LFE57:
	.size	ShortSwap, .-ShortSwap
	.align 2
	.globl ShortNoSwap
	.type	ShortNoSwap, @function
ShortNoSwap:
.LFB58:
	.loc 1 540 0
	.cfi_startproc
.LVL2:
	.loc 1 542 0
	blr
	.cfi_endproc
.LFE58:
	.size	ShortNoSwap, .-ShortNoSwap
	.align 2
	.globl LongSwap
	.type	LongSwap, @function
LongSwap:
.LFB59:
	.loc 1 546 0
	.cfi_startproc
.LVL3:
	.loc 1 556 0
	slwi 9,3,24
	rlwinm 0,3,8,8,15
	add 0,9,0
	rlwinm 9,3,24,16,23
	add 0,0,9
	srwi 3,3,24
.LVL4:
	.loc 1 557 0
	add 3,0,3
	blr
	.cfi_endproc
.LFE59:
	.size	LongSwap, .-LongSwap
	.align 2
	.globl LongNoSwap
	.type	LongNoSwap, @function
LongNoSwap:
.LFB60:
	.loc 1 561 0
	.cfi_startproc
.LVL5:
	.loc 1 563 0
	blr
	.cfi_endproc
.LFE60:
	.size	LongNoSwap, .-LongNoSwap
	.align 2
	.globl FloatSwap
	.type	FloatSwap, @function
FloatSwap:
.LFB61:
	.loc 1 567 0
	.cfi_startproc
.LVL6:
	stwu 1,-16(1)
.LCFI0:
	.cfi_def_cfa_offset 16
	.loc 1 576 0
	li 0,0
.LVL7:
	.loc 1 575 0
	stfs 1,8(1)
	lwz 9,8(1)
	.loc 1 576 0
	rlwimi 0,9,24,0,7
.LVL8:
	.loc 1 577 0
	rlwimi 0,9,8,8,15
	.loc 1 578 0
	rlwimi 0,9,24,16,23
	.loc 1 579 0
	rlwimi 0,9,8,24,31
	.loc 1 580 0
	stw 0,8(1)
	lfs 1,8(1)
.LVL9:
	.loc 1 581 0
	addi 1,1,16
.LCFI1:
	.cfi_def_cfa_offset 0
	blr
	.cfi_endproc
.LFE61:
	.size	FloatSwap, .-FloatSwap
	.align 2
	.globl FloatNoSwap
	.type	FloatNoSwap, @function
FloatNoSwap:
.LFB62:
	.loc 1 585 0
	.cfi_startproc
.LVL10:
	.loc 1 587 0
	blr
	.cfi_endproc
.LFE62:
	.size	FloatNoSwap, .-FloatNoSwap
	.align 2
	.globl COM_Path_f
	.type	COM_Path_f, @function
COM_Path_f:
.LFB97:
	.loc 1 1483 0
	.cfi_startproc
	mflr 0
	stwu 1,-24(1)
.LCFI2:
	.cfi_def_cfa_offset 24
	.cfi_register 65, 0
	.loc 1 1486 0
	lis 3,.LC0@ha
	la 3,.LC0@l(3)
	.loc 1 1483 0
	stw 31,20(1)
	stw 0,28(1)
	stw 29,12(1)
	stw 30,16(1)
	.loc 1 1486 0
	.cfi_offset 30, -8
	.cfi_offset 29, -12
	.cfi_offset 65, 4
	.cfi_offset 31, -4
	crxor 6,6,6
	bl Con_Printf
	.loc 1 1487 0
	lis 9,com_searchpaths@ha
	lwz 31,com_searchpaths@l(9)
.LVL11:
	cmpwi 7,31,0
	beq- 7,.L7
	.loc 1 1491 0
	lis 30,.LC1@ha
	.loc 1 1494 0
	lis 29,.LC2@ha
	.loc 1 1491 0
	la 30,.LC1@l(30)
	.loc 1 1494 0
	la 29,.LC2@l(29)
	b .L12
.LVL12:
.L15:
	.loc 1 1491 0
	lwz 5,132(4)
	crxor 6,6,6
	bl Con_Printf
	.loc 1 1487 0
	lwz 31,132(31)
.LVL13:
	cmpwi 7,31,0
	beq- 7,.L7
.L12:
	.loc 1 1489 0
	lwz 4,128(31)
	.loc 1 1491 0
	mr 3,30
	.loc 1 1489 0
	cmpwi 7,4,0
	bne+ 7,.L15
	.loc 1 1494 0
	mr 4,31
	mr 3,29
	crxor 6,6,6
	bl Con_Printf
	.loc 1 1487 0
	lwz 31,132(31)
.LVL14:
	cmpwi 7,31,0
	bne+ 7,.L12
.L7:
	.loc 1 1496 0
	lwz 0,28(1)
	lwz 29,12(1)
	mtlr 0
	lwz 30,16(1)
	lwz 31,20(1)
.LVL15:
	addi 1,1,24
.LCFI3:
	.cfi_def_cfa_offset 0
	.cfi_restore 31
	.cfi_restore 30
	.cfi_restore 29
	blr
	.cfi_endproc
.LFE97:
	.size	COM_Path_f, .-COM_Path_f
	.align 2
	.globl ClearLink
	.type	ClearLink, @function
ClearLink:
.LFB38:
	.loc 1 136 0
	.cfi_startproc
.LVL16:
	.loc 1 137 0
	stw 3,4(3)
	.loc 1 138 0
	.loc 1 137 0
	stw 3,0(3)
	.loc 1 138 0
	blr
	.cfi_endproc
.LFE38:
	.size	ClearLink, .-ClearLink
	.align 2
	.globl RemoveLink
	.type	RemoveLink, @function
RemoveLink:
.LFB39:
	.loc 1 142 0
	.cfi_startproc
.LVL17:
	.loc 1 143 0
	lwz 9,4(3)
	lwz 0,0(3)
	stw 0,0(9)
	.loc 1 144 0
	lwz 11,0(3)
	stw 9,4(11)
	.loc 1 145 0
	blr
	.cfi_endproc
.LFE39:
	.size	RemoveLink, .-RemoveLink
	.align 2
	.globl InsertLinkBefore
	.type	InsertLinkBefore, @function
InsertLinkBefore:
.LFB40:
	.loc 1 149 0
	.cfi_startproc
.LVL18:
	.loc 1 151 0
	lwz 9,0(4)
	.loc 1 150 0
	stw 4,4(3)
	.loc 1 152 0
	stw 3,4(9)
	.loc 1 151 0
	stw 9,0(3)
	.loc 1 153 0
	lwz 9,4(3)
	stw 3,0(9)
	.loc 1 154 0
	blr
	.cfi_endproc
.LFE40:
	.size	InsertLinkBefore, .-InsertLinkBefore
	.align 2
	.globl InsertLinkAfter
	.type	InsertLinkAfter, @function
InsertLinkAfter:
.LFB41:
	.loc 1 156 0
	.cfi_startproc
.LVL19:
	.loc 1 157 0
	lwz 0,4(4)
	.loc 1 158 0
	stw 4,0(3)
	.loc 1 157 0
	stw 0,4(3)
	.loc 1 159 0
	stw 3,4(4)
	.loc 1 160 0
	lwz 9,4(3)
	stw 3,0(9)
	.loc 1 161 0
	blr
	.cfi_endproc
.LFE41:
	.size	InsertLinkAfter, .-InsertLinkAfter
	.align 2
	.globl Q_memset
	.type	Q_memset, @function
Q_memset:
.LFB42:
	.loc 1 176 0
	.cfi_startproc
.LVL20:
	.loc 1 179 0
	or 0,3,5
	andi. 9,0,3
	beq- 0,.L21
.LVL21:
	.loc 1 187 0 discriminator 1
	cmpwi 7,5,0
	mtctr 5
	.loc 1 183 0 discriminator 1
	rlwinm 4,4,0,0xff
.LVL22:
	.loc 1 187 0 discriminator 1
	li 9,0
	blelr- 7
.LVL23:
.L26:
	.loc 1 188 0 discriminator 2
	stbx 4,3,9
	.loc 1 187 0 discriminator 2
	addi 9,9,1
.LVL24:
	bdnz .L26
	blr
.LVL25:
.L21:
	.loc 1 183 0
	srawi. 5,5,2
.LVL26:
	.loc 1 182 0
	slwi 9,4,8
	slwi 0,4,16
	or 0,9,0
	or 0,0,4
	slwi 4,4,24
.LVL27:
	or 0,0,4
.LVL28:
	.loc 1 183 0
	blelr- 0
	mtctr 5
	.loc 1 175 0
	addi 3,3,-4
.LVL29:
.L24:
	.loc 1 184 0 discriminator 2
	stwu 0,4(3)
	.loc 1 183 0 discriminator 2
	bdnz .L24
	blr
	.cfi_endproc
.LFE42:
	.size	Q_memset, .-Q_memset
	.align 2
	.globl Q_memcpy
	.type	Q_memcpy, @function
Q_memcpy:
.LFB43:
	.loc 1 193 0
	.cfi_startproc
.LVL30:
	.loc 1 196 0
	or 0,4,5
	or 0,3,0
	andi. 9,0,3
	beq- 0,.L30
.LVL31:
	.loc 1 203 0 discriminator 1
	cmpwi 7,5,0
	mtctr 5
	li 9,0
	blelr- 7
.LVL32:
.L35:
	.loc 1 204 0 discriminator 2
	lbzx 0,4,9
	stbx 0,3,9
	.loc 1 203 0 discriminator 2
	addi 9,9,1
.LVL33:
	bdnz .L35
	blr
.LVL34:
.L30:
.LBB36:
.LBB37:
	.loc 1 199 0
	srawi. 5,5,2
.LVL35:
	blelr- 0
.LBE37:
.LBE36:
	mtctr 5
.LBB39:
.LBB38:
	.loc 1 192 0
	addi 4,4,-4
.LVL36:
	addi 3,3,-4
.LVL37:
.L33:
	.loc 1 200 0
	lwzu 0,4(4)
	stwu 0,4(3)
	.loc 1 199 0
	bdnz .L33
	blr
.LBE38:
.LBE39:
	.cfi_endproc
.LFE43:
	.size	Q_memcpy, .-Q_memcpy
	.align 2
	.globl Q_memcmp
	.type	Q_memcmp, @function
Q_memcmp:
.LFB44:
	.loc 1 209 0
	.cfi_startproc
.LVL38:
	.loc 1 210 0
	cmpwi 0,5,0
	.loc 1 209 0
	mr 9,3
	.loc 1 216 0
	li 3,0
.LVL39:
	.loc 1 210 0
	beqlr- 0
	.loc 1 212 0
	addi 11,5,-1
.LVL40:
	.loc 1 214 0
	li 3,-1
	.loc 1 213 0
	lbzx 10,9,11
	lbzx 0,4,11
	cmpw 7,10,0
	bnelr- 7
	mtctr 5
	b .L47
.LVL41:
.L42:
	lbzx 10,9,11
	lbzx 0,4,11
	cmpw 7,10,0
	bne- 7,.L48
.L47:
	.loc 1 212 0
	addi 11,11,-1
.LVL42:
	.loc 1 210 0
	bdnz .L42
	.loc 1 216 0
	li 3,0
	blr
.LVL43:
.L48:
	.loc 1 214 0
	li 3,-1
	.loc 1 217 0
	blr
	.cfi_endproc
.LFE44:
	.size	Q_memcmp, .-Q_memcmp
	.align 2
	.globl Q_strcpy
	.type	Q_strcpy, @function
Q_strcpy:
.LFB45:
	.loc 1 221 0
	.cfi_startproc
.LVL44:
	.loc 1 222 0
	lbz 0,0(4)
	cmpwi 7,0,0
	beq- 7,.L50
.LVL45:
.L51:
	.loc 1 224 0
	stb 0,0(3)
	addi 3,3,1
.LVL46:
	.loc 1 222 0
	lbzu 0,1(4)
	cmpwi 7,0,0
	bne+ 7,.L51
.L50:
	.loc 1 226 0
	li 0,0
	.loc 1 227 0
	.loc 1 226 0
	stb 0,0(3)
.LVL47:
	.loc 1 227 0
	blr
	.cfi_endproc
.LFE45:
	.size	Q_strcpy, .-Q_strcpy
	.align 2
	.globl Q_strncpy
	.type	Q_strncpy, @function
Q_strncpy:
.LFB46:
	.loc 1 231 0
	.cfi_startproc
.LVL48:
	.loc 1 232 0
	lbz 0,0(4)
	mr 9,5
	cmpwi 7,0,0
	beq- 7,.L54
	cmpwi 7,5,0
	addi 9,5,-1
.LVL49:
	beq- 7,.L54
	addi 11,9,1
	mtctr 11
	b .L55
.LVL50:
.L59:
	.loc 1 232 0 is_stmt 0 discriminator 2
	addi 9,9,-1
.LVL51:
	bdz .L54
.L55:
	.loc 1 234 0 is_stmt 1
	stb 0,0(3)
	addi 3,3,1
.LVL52:
	.loc 1 232 0
	lbzu 0,1(4)
	cmpwi 7,0,0
	bne+ 7,.L59
.L54:
	.loc 1 236 0
	cmpwi 7,9,0
	beqlr- 7
	.loc 1 237 0
	li 0,0
	stb 0,0(3)
.LVL53:
	blr
	.cfi_endproc
.LFE46:
	.size	Q_strncpy, .-Q_strncpy
	.align 2
	.globl Q_strlen
	.type	Q_strlen, @function
Q_strlen:
.LFB47:
	.loc 1 242 0
	.cfi_startproc
.LVL54:
	.loc 1 246 0
	lbz 0,0(3)
	.loc 1 245 0
	li 9,0
	.loc 1 246 0
	cmpwi 7,0,0
	beq- 7,.L61
.LVL55:
.L62:
	.loc 1 247 0
	addi 9,9,1
.LVL56:
	.loc 1 246 0
	lbzx 0,3,9
	cmpwi 7,0,0
	bne+ 7,.L62
.LVL57:
.L61:
	.loc 1 251 0
	mr 3,9
.LVL58:
	blr
	.cfi_endproc
.LFE47:
	.size	Q_strlen, .-Q_strlen
	.align 2
	.globl Q_strrchr
	.type	Q_strrchr, @function
Q_strrchr:
.LFB48:
	.loc 1 255 0
	.cfi_startproc
.LVL59:
.LBB40:
.LBB41:
	.loc 1 246 0
	lbz 0,0(3)
.LBE41:
.LBE40:
	.loc 1 255 0
	mr 9,3
.LVL60:
.LBB43:
.LBB42:
	.loc 1 245 0
	li 11,0
	.loc 1 246 0
	cmpwi 7,0,0
	beq- 7,.L66
.LVL61:
.L67:
	.loc 1 247 0
	addi 11,11,1
.LVL62:
	.loc 1 246 0
	lbzx 0,9,11
	.loc 1 254 0
	add 3,9,11
	.loc 1 246 0
	cmpwi 7,0,0
	bne+ 7,.L67
.LVL63:
.L66:
	.loc 1 254 0
	addi 11,11,1
	.loc 1 246 0
	mr 9,3
.LVL64:
	.loc 1 254 0
	mtctr 11
.LBE42:
.LBE43:
	.loc 1 258 0
	bdz .L73
.L70:
	.loc 1 259 0
	lbzu 0,-1(9)
	addi 3,3,-1
.LVL65:
	cmpw 7,0,4
	beqlr- 7
	.loc 1 258 0
	bdnz .L70
.L73:
	.loc 1 260 0
	li 3,0
.LVL66:
	.loc 1 261 0
	blr
	.cfi_endproc
.LFE48:
	.size	Q_strrchr, .-Q_strrchr
	.align 2
	.globl Q_strcat
	.type	Q_strcat, @function
Q_strcat:
.LFB49:
	.loc 1 265 0
	.cfi_startproc
.LVL67:
.LBB44:
.LBB45:
	.loc 1 246 0
	lbz 0,0(3)
	cmpwi 7,0,0
	beq- 7,.L75
	mr 9,3
.LVL68:
.L76:
	.loc 1 264 0
	addi 9,9,1
	.loc 1 246 0
	lbz 0,0(9)
	.loc 1 264 0
	mr 3,9
	.loc 1 246 0
	cmpwi 7,0,0
	bne+ 7,.L76
.L75:
.LVL69:
.LBE45:
.LBE44:
.LBB46:
.LBB47:
	.loc 1 222 0
	lbz 0,0(4)
	cmpwi 7,0,0
	beq- 7,.L77
.LVL70:
.L78:
	.loc 1 224 0
	stb 0,0(3)
	addi 3,3,1
.LVL71:
	.loc 1 222 0
	lbzu 0,1(4)
	cmpwi 7,0,0
	bne+ 7,.L78
.L77:
	.loc 1 226 0
	li 0,0
	stb 0,0(3)
.LVL72:
.LBE47:
.LBE46:
	.loc 1 268 0
	blr
	.cfi_endproc
.LFE49:
	.size	Q_strcat, .-Q_strcat
	.align 2
	.globl Q_strncat
	.type	Q_strncat, @function
Q_strncat:
.LFB50:
	.loc 1 271 0
	.cfi_startproc
.LVL73:
.LBB48:
.LBB49:
	.loc 1 246 0
	lbz 0,0(3)
	mr 11,3
	.loc 1 245 0
	li 9,0
	.loc 1 246 0
	cmpwi 7,0,0
	beq- 7,.L82
.LVL74:
.L83:
	.loc 1 247 0
	addi 9,9,1
.LVL75:
	.loc 1 246 0
	lbzx 0,3,9
	.loc 1 270 0
	add 11,3,9
	.loc 1 246 0
	cmpwi 7,0,0
	bne+ 7,.L83
.LVL76:
.L82:
.LBE49:
.LBE48:
.LBB50:
.LBB51:
	.loc 1 232 0
	lbz 0,0(4)
	mr 10,9
	cmpwi 7,0,0
	beq- 7,.L84
.LVL77:
	cmpwi 7,9,0
	addi 10,9,-1
.LVL78:
	beq- 7,.L84
	addi 9,10,1
	mtctr 9
	b .L85
.LVL79:
.L91:
	addi 10,10,-1
.LVL80:
	bdz .L84
.L85:
	.loc 1 234 0
	stb 0,0(11)
	addi 11,11,1
.LVL81:
	.loc 1 232 0
	lbzu 0,1(4)
	cmpwi 7,0,0
	bne+ 7,.L91
.L84:
	.loc 1 236 0
	cmpwi 7,10,0
	beqlr- 7
	.loc 1 237 0
	li 0,0
	stb 0,0(11)
.LVL82:
	blr
.LBE51:
.LBE50:
	.cfi_endproc
.LFE50:
	.size	Q_strncat, .-Q_strncat
	.align 2
	.globl Q_strcmp
	.type	Q_strcmp, @function
Q_strcmp:
.LFB51:
	.loc 1 281 0
	.cfi_startproc
.LVL83:
	.loc 1 284 0
	lbz 11,0(3)
	.loc 1 285 0
	li 0,-1
	.loc 1 284 0
	lbz 9,0(4)
	cmpw 7,9,11
	bne- 7,.L93
	.loc 1 286 0
	cmpwi 7,9,0
	.loc 1 287 0
	li 0,0
	.loc 1 286 0
	bne+ 7,.L94
	b .L93
.LVL84:
.L95:
	beq- 6,.L98
.L94:
	.loc 1 284 0
	lbzu 0,1(4)
	lbzu 9,1(3)
	.loc 1 286 0
	cmpwi 6,0,0
	.loc 1 284 0
	cmpw 7,0,9
	beq+ 7,.L95
	.loc 1 285 0
	li 0,-1
.L93:
	.loc 1 293 0
	mr 3,0
	blr
.L98:
	.loc 1 287 0
	li 0,0
	.loc 1 293 0
	mr 3,0
	blr
	.cfi_endproc
.LFE51:
	.size	Q_strcmp, .-Q_strcmp
	.align 2
	.globl Q_strncmp
	.type	Q_strncmp, @function
Q_strncmp:
.LFB52:
	.loc 1 297 0
	.cfi_startproc
.LVL85:
	.loc 1 300 0
	cmpwi 0,5,0
	.loc 1 297 0
	mr 9,3
.LVL86:
	.loc 1 301 0
	li 3,0
.LVL87:
	.loc 1 300 0
	beqlr- 0
	.loc 1 302 0
	lbz 11,0(9)
	.loc 1 303 0
	li 3,-1
	.loc 1 302 0
	lbz 0,0(4)
	cmpw 7,0,11
	bnelr- 7
	.loc 1 304 0
	cmpwi 7,0,0
	.loc 1 296 0
	li 11,0
	mtctr 5
	.loc 1 305 0
	li 3,0
	.loc 1 304 0
	bne+ 7,.L101
	blr
.LVL88:
.L102:
	.loc 1 302 0
	lbz 0,1(10)
	addi 11,11,1
	lbz 10,1(8)
	.loc 1 304 0
	cmpwi 6,0,0
	.loc 1 302 0
	cmpw 7,0,10
	bne- 7,.L106
	.loc 1 304 0
	beq- 6,.L107
.L101:
	.loc 1 296 0
	add 8,9,11
	add 10,4,11
	.loc 1 300 0
	bdnz .L102
	.loc 1 301 0
	li 3,0
	blr
.L106:
	.loc 1 303 0
	li 3,-1
	blr
.L107:
	.loc 1 305 0
	li 3,0
	.loc 1 311 0
	blr
	.cfi_endproc
.LFE52:
	.size	Q_strncmp, .-Q_strncmp
	.align 2
	.globl Q_strncasecmp
	.type	Q_strncasecmp, @function
Q_strncasecmp:
.LFB53:
	.loc 1 315 0
	.cfi_startproc
.LVL89:
	.loc 1 314 0
	addi 5,5,1
.LVL90:
	li 9,0
	mtctr 5
.LVL91:
.L113:
	.loc 1 321 0
	lbzx 10,4,9
	.loc 1 320 0
	lbzx 11,3,9
.LVL92:
	.loc 1 331 0
	addi 0,10,-97
	.loc 1 329 0
	addi 8,11,-97
	.loc 1 327 0
	cmpw 7,11,10
	.loc 1 329 0
	cmplwi 1,8,25
	.loc 1 331 0
	cmplwi 6,0,25
	.loc 1 324 0
	bdz .L118
	.loc 1 321 0
	mr 0,10
	.loc 1 327 0
	beq- 7,.L110
	.loc 1 329 0
	bgt- 1,.L111
	.loc 1 330 0
	addi 11,11,-32
.LVL93:
.L111:
	.loc 1 331 0
	bgt- 6,.L112
	.loc 1 332 0
	addi 0,10,-32
.LVL94:
.L112:
	.loc 1 333 0
	cmpw 7,11,0
	bne- 7,.L115
.LVL95:
.L110:
	.loc 1 336 0
	cmpwi 7,11,0
	.loc 1 333 0
	addi 9,9,1
	.loc 1 336 0
	bne+ 7,.L113
.LVL96:
.L118:
	.loc 1 325 0
	li 3,0
	blr
.LVL97:
.L115:
	.loc 1 334 0
	li 3,-1
	.loc 1 343 0
	blr
	.cfi_endproc
.LFE53:
	.size	Q_strncasecmp, .-Q_strncasecmp
	.align 2
	.globl Q_strcasecmp
	.type	Q_strcasecmp, @function
Q_strcasecmp:
.LFB54:
	.loc 1 347 0
	.cfi_startproc
.LVL98:
	.loc 1 348 0
	lis 5,0x1
	.loc 1 349 0
	.loc 1 348 0
	ori 5,5,34463
	b Q_strncasecmp
.LVL99:
.LVL100:
	.cfi_endproc
.LFE54:
	.size	Q_strcasecmp, .-Q_strcasecmp
	.align 2
	.globl Q_atoi
	.type	Q_atoi, @function
Q_atoi:
.LFB55:
	.loc 1 353 0
	.cfi_startproc
.LVL101:
	.loc 1 358 0
	lbz 9,0(3)
	.loc 1 353 0
	mr 11,3
	.loc 1 364 0
	li 6,1
	.loc 1 358 0
	cmpwi 7,9,45
	beq- 7,.L142
.LVL102:
.L121:
	.loc 1 372 0
	cmpwi 7,9,48
	beq- 7,.L143
	.loc 1 392 0
	cmpwi 7,9,39
	beq- 7,.L144
.LVL103:
	.loc 1 403 0
	addi 0,9,-48
	li 3,0
	cmplwi 7,0,9
	bgtlr- 7
	.loc 1 402 0
	addi 11,11,1
.LVL104:
.L134:
	.loc 1 352 0
	addi 11,11,-1
.LVL105:
	li 0,0
.LVL106:
.L135:
	.loc 1 405 0
	mulli 0,0,10
	add 10,0,9
	.loc 1 402 0
	lbzu 9,1(11)
	.loc 1 405 0
	addi 0,10,-48
.LVL107:
	.loc 1 403 0
	addi 10,9,-48
	cmplwi 7,10,9
	ble+ 7,.L135
	mullw 3,6,0
	.loc 1 409 0
	blr
.LVL108:
.L143:
	.loc 1 372 0 discriminator 1
	lbz 0,1(11)
	cmpwi 7,0,120
	beq- 7,.L123
	cmpwi 7,0,88
	beq- 7,.L123
.LVL109:
	.loc 1 402 0
	addi 11,11,1
.LVL110:
	li 9,48
	b .L134
.LVL111:
.L142:
	.loc 1 361 0
	lbz 9,1(3)
	.loc 1 360 0
	li 6,-1
	.loc 1 361 0
	addi 11,3,1
	b .L121
.LVL112:
.L123:
	.loc 1 352 0
	addi 11,11,1
.LVL113:
	.loc 1 366 0
	li 0,0
.LVL114:
.L141:
	.loc 1 377 0
	lbzu 9,1(11)
.LVL115:
	.loc 1 379 0
	slwi 10,0,4
	.loc 1 378 0
	addi 7,9,-48
	.loc 1 380 0
	addi 8,9,-97
	.loc 1 378 0
	cmplwi 7,7,9
	.loc 1 380 0
	cmplwi 6,8,5
	.loc 1 379 0
	add 10,10,9
	.loc 1 378 0
	bgt- 7,.L128
.L145:
	.loc 1 377 0
	lbzu 9,1(11)
.LVL116:
	.loc 1 379 0
	addi 0,10,-48
.LVL117:
	slwi 10,0,4
	.loc 1 378 0
	addi 7,9,-48
	.loc 1 380 0
	addi 8,9,-97
	.loc 1 378 0
	cmplwi 7,7,9
	.loc 1 380 0
	cmplwi 6,8,5
	.loc 1 379 0
	add 10,10,9
	.loc 1 378 0
	ble- 7,.L145
.L128:
	.loc 1 382 0
	addi 10,9,-65
	.loc 1 381 0
	slwi 8,0,4
	.loc 1 382 0
	cmplwi 7,10,5
	.loc 1 381 0
	add 8,8,9
	.loc 1 380 0
	bgt- 6,.L130
	.loc 1 381 0
	addi 0,8,-87
.LVL118:
	b .L141
.L130:
	.loc 1 382 0
	bgt- 7,.L131
	.loc 1 383 0
	addi 0,8,-55
.LVL119:
	b .L141
.LVL120:
.L144:
	.loc 1 394 0
	lbz 3,1(11)
	mullw 3,3,6
	blr
.LVL121:
.L131:
	.loc 1 385 0
	mullw 3,6,0
	blr
	.cfi_endproc
.LFE55:
	.size	Q_atoi, .-Q_atoi
	.align 2
	.globl Q_atof
	.type	Q_atof, @function
Q_atof:
.LFB56:
	.loc 1 415 0
	.cfi_startproc
.LVL122:
	stwu 1,-80(1)
.LCFI4:
	.cfi_def_cfa_offset 80
	.loc 1 427 0
	li 12,1
	.loc 1 415 0
	stw 30,72(1)
	stw 31,76(1)
	.loc 1 421 0
	lbz 9,0(3)
	cmpwi 7,9,45
	beq- 7,.L170
	.cfi_offset 31, -4
	.cfi_offset 30, -8
.LVL123:
	.loc 1 435 0
	cmpwi 7,9,48
	beq- 7,.L171
.L148:
	.loc 1 455 0
	cmpwi 7,9,39
	beq- 7,.L157
.L150:
	.loc 1 468 0
	cmpwi 7,9,46
	.loc 1 414 0
	lis 10,.LC3@ha
	.loc 1 473 0
	addi 0,9,-48
	.loc 1 414 0
	lfd 0,.LC3@l(10)
	li 11,0
	li 4,-1
	lis 8,.LC5@ha
	.loc 1 475 0
	lis 5,0x4330
	lis 6,.LC13@ha
	lis 7,.LC9@ha
.LVL124:
	xoris 10,9,0x8000
	.loc 1 473 0
	cmplwi 6,0,9
	.loc 1 468 0
	beq- 7,.L166
.L172:
	.loc 1 473 0
	bgt- 6,.L160
	.loc 1 475 0
	stw 10,52(1)
	.loc 1 476 0
	addi 11,11,1
.LVL125:
	.loc 1 475 0
	stw 5,48(1)
	lfs 13,.LC5@l(8)
	lfd 12,48(1)
	lfs 11,.LC13@l(6)
	fsub 12,12,13
	lfs 13,.LC9@l(7)
	.loc 1 457 0
	lbzu 9,1(3)
.LVL126:
	.loc 1 475 0
	fmadd 0,0,11,12
.LVL127:
	fsub 0,0,13
.LVL128:
.L173:
	.loc 1 468 0
	cmpwi 7,9,46
	.loc 1 473 0
	addi 0,9,-48
	.loc 1 475 0
	xoris 10,9,0x8000
	.loc 1 473 0
	cmplwi 6,0,9
	.loc 1 468 0
	bne+ 7,.L172
.L166:
	mr 4,11
	.loc 1 457 0
	lbzu 9,1(3)
.LVL129:
	b .L173
.LVL130:
.L160:
	.loc 1 480 0
	cmpwi 7,4,-1
	beq- 7,.L161
	.loc 1 482 0 discriminator 1
	cmpw 7,4,11
	bge- 7,.L163
	lis 9,.LC13@ha
.LVL131:
	.loc 1 484 0
	subf 11,4,11
.LVL132:
	lfs 13,.LC13@l(9)
	mtctr 11
.L164:
	fdiv 0,0,13
.LVL133:
	.loc 1 482 0
	bdnz .L164
.L163:
	.loc 1 488 0
	xoris 12,12,0x8000
.LVL134:
	lis 0,0x4330
	stw 12,68(1)
	stw 0,64(1)
	lfs 13,.LC5@l(8)
	lfd 1,64(1)
	.loc 1 489 0
	lwz 30,72(1)
	.loc 1 488 0
	fsub 1,1,13
	.loc 1 489 0
	lwz 31,76(1)
	addi 1,1,80
	.cfi_remember_state
.LCFI5:
	.cfi_def_cfa_offset 0
	.cfi_restore 31
	.cfi_restore 30
	.loc 1 488 0
	fmul 0,1,0
.LVL135:
	frsp 1,0
	.loc 1 489 0
	blr
.LVL136:
.L170:
.LCFI6:
	.cfi_restore_state
	.loc 1 424 0
	lbz 9,1(3)
	.loc 1 423 0
	li 12,-1
	.loc 1 424 0
	addi 3,3,1
.LVL137:
	.loc 1 435 0
	cmpwi 7,9,48
	bne+ 7,.L148
.L171:
	.loc 1 435 0 is_stmt 0 discriminator 1
	lbz 0,1(3)
	cmpwi 7,0,120
	beq- 7,.L149
	cmpwi 7,0,88
	bne+ 7,.L150
.L149:
.LVL138:
	.loc 1 429 0 is_stmt 1
	lis 9,.LC3@ha
	.loc 1 414 0
	addi 11,3,1
	.loc 1 429 0
	lfd 0,.LC3@l(9)
	lis 8,.LC5@ha
	.loc 1 442 0
	lis 5,0x4330
	lis 6,.LC7@ha
	lis 4,.LC9@ha
	.loc 1 446 0
	lis 30,.LC15@ha
	lis 3,.LC13@ha
.LVL139:
	.loc 1 444 0
	lis 31,.LC11@ha
.LVL140:
.L169:
	.loc 1 440 0
	lbzu 9,1(11)
.LVL141:
	.loc 1 441 0
	addi 10,9,-48
	.loc 1 443 0
	addi 0,9,-97
	.loc 1 441 0
	cmplwi 7,10,9
	.loc 1 442 0
	xoris 7,9,0x8000
	.loc 1 443 0
	cmplwi 6,0,5
	.loc 1 441 0
	bgt- 7,.L152
.L174:
	.loc 1 442 0
	stw 7,12(1)
	stw 5,8(1)
	lfs 13,.LC5@l(8)
	lfd 12,8(1)
	.loc 1 440 0
	lbzu 9,1(11)
.LVL142:
	.loc 1 442 0
	fsub 12,12,13
	lfs 11,.LC7@l(6)
	.loc 1 441 0
	addi 10,9,-48
	.loc 1 442 0
	lfs 13,.LC9@l(4)
	.loc 1 441 0
	cmplwi 7,10,9
	.loc 1 443 0
	addi 0,9,-97
	.loc 1 442 0
	fmadd 0,0,11,12
.LVL143:
	xoris 7,9,0x8000
	.loc 1 443 0
	cmplwi 6,0,5
	.loc 1 442 0
	fsub 0,0,13
.LVL144:
	.loc 1 441 0
	ble- 7,.L174
.L152:
	.loc 1 444 0
	xoris 0,9,0x8000
	.loc 1 445 0
	addi 9,9,-65
.LVL145:
	cmplwi 7,9,5
	.loc 1 443 0
	bgt- 6,.L154
	.loc 1 444 0
	stw 0,20(1)
	stw 5,16(1)
	lfs 13,.LC5@l(8)
	lfd 11,16(1)
	lfs 10,.LC7@l(6)
	fsub 11,11,13
	lfs 12,.LC11@l(31)
	lfs 13,.LC13@l(3)
	fmadd 0,0,10,11
.LVL146:
	fsub 0,0,12
	fadd 0,0,13
.LVL147:
	b .L169
.L154:
	.loc 1 445 0
	bgt- 7,.L155
	.loc 1 446 0
	stw 0,28(1)
	stw 5,24(1)
	lfs 13,.LC5@l(8)
	lfd 11,24(1)
	lfs 10,.LC7@l(6)
	fsub 11,11,13
	lfs 12,.LC15@l(30)
	lfs 13,.LC13@l(3)
	fmadd 0,0,10,11
.LVL148:
	fsub 0,0,12
	fadd 0,0,13
.LVL149:
	b .L169
.LVL150:
.L157:
	.loc 1 457 0
	lbz 0,1(3)
	lis 9,.LC5@ha
	lfs 0,.LC5@l(9)
	mullw 12,0,12
.LVL151:
	lis 0,0x4330
	stw 0,40(1)
	.loc 1 489 0
	lwz 30,72(1)
	lwz 31,76(1)
	.loc 1 457 0
	xoris 12,12,0x8000
	stw 12,44(1)
	lfd 1,40(1)
	.loc 1 489 0
	addi 1,1,80
	.cfi_remember_state
	.cfi_restore 30
	.cfi_restore 31
.LCFI7:
	.cfi_def_cfa_offset 0
	.loc 1 457 0
	fsub 1,1,0
	frsp 1,1
	.loc 1 489 0
	blr
.LVL152:
.L161:
.LCFI8:
	.cfi_restore_state
	.loc 1 481 0
	xoris 12,12,0x8000
.LVL153:
	lis 0,0x4330
	stw 12,60(1)
	stw 0,56(1)
	lfs 13,.LC5@l(8)
	lfd 12,56(1)
	.loc 1 489 0
	lwz 30,72(1)
	.loc 1 481 0
	fsub 13,12,13
	.loc 1 489 0
	lwz 31,76(1)
	addi 1,1,80
	.cfi_remember_state
	.cfi_restore 30
	.cfi_restore 31
.LCFI9:
	.cfi_def_cfa_offset 0
	.loc 1 481 0
	fmul 0,13,0
.LVL154:
	frsp 1,0
	.loc 1 489 0
	blr
.LVL155:
.L155:
.LCFI10:
	.cfi_restore_state
	.loc 1 448 0
	xoris 12,12,0x8000
.LVL156:
	lis 0,0x4330
.LVL157:
	stw 12,36(1)
	stw 0,32(1)
	lfs 13,.LC5@l(8)
	lfd 12,32(1)
	.loc 1 489 0
	lwz 30,72(1)
	.loc 1 448 0
	fsub 13,12,13
	.loc 1 489 0
	lwz 31,76(1)
	addi 1,1,80
	.cfi_restore 30
	.cfi_restore 31
.LCFI11:
	.cfi_def_cfa_offset 0
	.loc 1 448 0
	fmul 0,13,0
.LVL158:
	frsp 1,0
	.loc 1 489 0
	blr
	.cfi_endproc
.LFE56:
	.size	Q_atof, .-Q_atof
	.align 2
	.globl MSG_BeginReading
	.type	MSG_BeginReading, @function
MSG_BeginReading:
.LFB71:
	.loc 1 711 0
	.cfi_startproc
	.loc 1 712 0
	li 0,0
	lis 9,msg_readcount@ha
	stw 0,msg_readcount@l(9)
	.loc 1 713 0
	lis 9,msg_badread@ha
	stb 0,msg_badread@l(9)
	.loc 1 714 0
	blr
	.cfi_endproc
.LFE71:
	.size	MSG_BeginReading, .-MSG_BeginReading
	.align 2
	.globl MSG_ReadChar
	.type	MSG_ReadChar, @function
MSG_ReadChar:
.LFB72:
	.loc 1 719 0
	.cfi_startproc
	.loc 1 722 0
	lis 10,net_message@ha
	lis 11,msg_readcount@ha
	la 10,net_message@l(10)
	lwz 9,msg_readcount@l(11)
	lwz 0,12(10)
	cmpw 7,0,9
	ble- 7,.L179
	.loc 1 728 0
	lwz 10,4(10)
	.loc 1 729 0
	addi 0,9,1
	.loc 1 728 0
	lbzx 3,10,9
	.loc 1 729 0
	stw 0,msg_readcount@l(11)
	.loc 1 728 0
	extsb 3,3
.LVL159:
	.loc 1 732 0
	blr
.LVL160:
.L179:
	.loc 1 724 0
	li 0,1
	lis 9,msg_badread@ha
	stb 0,msg_badread@l(9)
	.loc 1 725 0
	li 3,-1
	blr
	.cfi_endproc
.LFE72:
	.size	MSG_ReadChar, .-MSG_ReadChar
	.align 2
	.globl MSG_ReadByte
	.type	MSG_ReadByte, @function
MSG_ReadByte:
.LFB73:
	.loc 1 736 0
	.cfi_startproc
	.loc 1 739 0
	lis 10,net_message@ha
	lis 11,msg_readcount@ha
	la 10,net_message@l(10)
	lwz 9,msg_readcount@l(11)
	lwz 0,12(10)
	cmpw 7,0,9
	ble- 7,.L183
	.loc 1 745 0
	lwz 10,4(10)
	.loc 1 746 0
	addi 0,9,1
	.loc 1 745 0
	lbzx 3,10,9
.LVL161:
	.loc 1 746 0
	stw 0,msg_readcount@l(11)
	.loc 1 749 0
	blr
.LVL162:
.L183:
	.loc 1 741 0
	li 0,1
	lis 9,msg_badread@ha
	stb 0,msg_badread@l(9)
	.loc 1 742 0
	li 3,-1
	blr
	.cfi_endproc
.LFE73:
	.size	MSG_ReadByte, .-MSG_ReadByte
	.align 2
	.globl MSG_ReadShort
	.type	MSG_ReadShort, @function
MSG_ReadShort:
.LFB74:
	.loc 1 753 0
	.cfi_startproc
	.loc 1 756 0
	lis 11,msg_readcount@ha
	lis 10,net_message@ha
	lwz 9,msg_readcount@l(11)
	la 10,net_message@l(10)
	lwz 0,12(10)
	addi 8,9,1
	cmpw 7,8,0
	bge- 7,.L187
	.loc 1 762 0
	lwz 10,4(10)
	.loc 1 765 0
	addi 0,9,2
	.loc 1 763 0
	add 8,10,9
	.loc 1 762 0
	lbzx 9,10,9
	lbz 3,1(8)
	.loc 1 765 0
	stw 0,msg_readcount@l(11)
	.loc 1 762 0
	slwi 3,3,8
	add 3,3,9
	extsh 3,3
.LVL163:
	.loc 1 768 0
	blr
.LVL164:
.L187:
	.loc 1 758 0
	li 0,1
	lis 9,msg_badread@ha
	stb 0,msg_badread@l(9)
	.loc 1 759 0
	li 3,-1
	blr
	.cfi_endproc
.LFE74:
	.size	MSG_ReadShort, .-MSG_ReadShort
	.align 2
	.globl MSG_ReadLong
	.type	MSG_ReadLong, @function
MSG_ReadLong:
.LFB75:
	.loc 1 772 0
	.cfi_startproc
	.loc 1 775 0
	lis 11,msg_readcount@ha
	lis 9,net_message@ha
	lwz 10,msg_readcount@l(11)
	la 9,net_message@l(9)
	lwz 0,12(9)
	addi 8,10,3
	cmpw 7,8,0
	bge- 7,.L191
	.loc 1 782 0
	lwz 9,4(9)
	.loc 1 786 0
	addi 8,10,4
	.loc 1 782 0
	lbzux 7,9,10
	lbz 3,1(9)
	.loc 1 783 0
	lbz 10,2(9)
	.loc 1 784 0
	lbz 0,3(9)
	.loc 1 782 0
	slwi 3,3,8
	add 3,7,3
	.loc 1 783 0
	slwi 9,10,16
	add 3,3,9
	.loc 1 784 0
	slwi 0,0,24
	.loc 1 786 0
	stw 8,msg_readcount@l(11)
	.loc 1 781 0
	add 3,3,0
.LVL165:
	.loc 1 789 0
	blr
.LVL166:
.L191:
	.loc 1 777 0
	li 0,1
	lis 9,msg_badread@ha
	stb 0,msg_badread@l(9)
	.loc 1 778 0
	li 3,-1
	blr
	.cfi_endproc
.LFE75:
	.size	MSG_ReadLong, .-MSG_ReadLong
	.align 2
	.globl MSG_ReadFloat
	.type	MSG_ReadFloat, @function
MSG_ReadFloat:
.LFB76:
	.loc 1 793 0
	.cfi_startproc
	mflr 0
	stwu 1,-16(1)
.LCFI12:
	.cfi_def_cfa_offset 16
	.cfi_register 65, 0
	.loc 1 801 0
	lis 11,msg_readcount@ha
	lis 9,net_message+4@ha
	lwz 9,net_message+4@l(9)
	li 3,0
.LVL167:
	.loc 1 793 0
	stw 0,20(1)
	.loc 1 801 0
	lwz 10,msg_readcount@l(11)
	lbzux 7,9,10
	.loc 1 805 0
	addi 0,10,4
	.cfi_offset 65, 4
	.loc 1 802 0
	lbz 8,1(9)
	.loc 1 801 0
	rlwimi 3,7,24,0,7
.LVL168:
	.loc 1 803 0
	lbz 10,2(9)
	.loc 1 802 0
	rlwimi 3,8,16,8,15
	.loc 1 804 0
	lbz 9,3(9)
	.loc 1 803 0
	rlwimi 3,10,8,16,23
	.loc 1 805 0
	stw 0,msg_readcount@l(11)
	.loc 1 804 0
	rlwimi 3,9,0,24,31
	.loc 1 807 0
	lis 9,LittleLong@ha
	lwz 0,LittleLong@l(9)
	mtctr 0
	bctrl
.LVL169:
	.loc 1 811 0
	lwz 0,20(1)
	stw 3,8(1)
	mtlr 0
	lfs 1,8(1)
	addi 1,1,16
.LCFI13:
	.cfi_def_cfa_offset 0
	blr
	.cfi_endproc
.LFE76:
	.size	MSG_ReadFloat, .-MSG_ReadFloat
	.align 2
	.globl MSG_ReadString
	.type	MSG_ReadString, @function
MSG_ReadString:
.LFB77:
	.loc 1 815 0
	.cfi_startproc
.LVL170:
.LBB52:
.LBB53:
	.loc 1 819 0
	lis 5,msg_readcount@ha
	lis 9,net_message@ha
	lwz 8,msg_readcount@l(5)
	li 0,2047
	la 9,net_message@l(9)
	lis 3,.LANCHOR0@ha
	mtctr 0
	lwz 6,12(9)
	.loc 1 728 0
	lwz 7,4(9)
	.loc 1 819 0
	li 11,0
	.loc 1 728 0
	mr 9,8
	la 3,.LANCHOR0@l(3)
.LVL171:
.L196:
	.loc 1 722 0
	cmpw 7,6,9
	.loc 1 814 0
	add 10,7,8
	.loc 1 729 0
	addi 9,9,1
	.loc 1 722 0
	bgt- 7,.L194
	.loc 1 724 0
	li 0,1
	lis 9,msg_badread@ha
	stb 0,msg_badread@l(9)
.L195:
.LBE53:
.LBE52:
	.loc 1 829 0
	li 0,0
	stbx 0,3,11
	.loc 1 832 0
	blr
.L194:
.LBB55:
.LBB54:
	.loc 1 728 0
	lbzx 0,10,11
	.loc 1 729 0
	stw 9,msg_readcount@l(5)
	.loc 1 728 0
	extsb 10,0
.LVL172:
.LBE54:
.LBE55:
	.loc 1 823 0
	addi 10,10,1
.LVL173:
	cmplwi 7,10,1
	ble- 7,.L195
	.loc 1 825 0
	stbx 0,3,11
	.loc 1 826 0
	addi 11,11,1
.LVL174:
	.loc 1 827 0
	bdnz .L196
	.loc 1 829 0
	li 0,0
	stbx 0,3,11
	.loc 1 832 0
	blr
	.cfi_endproc
.LFE77:
	.size	MSG_ReadString, .-MSG_ReadString
	.align 2
	.globl MSG_ReadCoord
	.type	MSG_ReadCoord, @function
MSG_ReadCoord:
.LFB78:
	.loc 1 836 0
	.cfi_startproc
	mflr 0
	stwu 1,-16(1)
.LCFI14:
	.cfi_def_cfa_offset 16
	.cfi_register 65, 0
	stw 0,20(1)
	.loc 1 837 0
	.cfi_offset 65, 4
	bl MSG_ReadShort
	xoris 3,3,0x8000
	lis 0,0x4330
	stw 0,8(1)
	lis 9,.LC5@ha
	stw 3,12(1)
	lfs 0,.LC5@l(9)
	.loc 1 838 0
	lis 9,.LC16@ha
	.loc 1 837 0
	lfd 1,8(1)
	.loc 1 838 0
	lwz 0,20(1)
	.loc 1 837 0
	fsub 1,1,0
	.loc 1 838 0
	lfs 0,.LC16@l(9)
	mtlr 0
	addi 1,1,16
.LCFI15:
	.cfi_def_cfa_offset 0
	.loc 1 837 0
	frsp 1,1
	.loc 1 838 0
	fmuls 1,1,0
	blr
	.cfi_endproc
.LFE78:
	.size	MSG_ReadCoord, .-MSG_ReadCoord
	.align 2
	.globl MSG_ReadAngle
	.type	MSG_ReadAngle, @function
MSG_ReadAngle:
.LFB79:
	.loc 1 842 0
	.cfi_startproc
.LBB56:
.LBB57:
	.loc 1 722 0
	lis 10,net_message@ha
	lis 11,msg_readcount@ha
	la 10,net_message@l(10)
	lwz 9,msg_readcount@l(11)
	lwz 0,12(10)
.LBE57:
.LBE56:
	.loc 1 842 0
	stwu 1,-16(1)
.LCFI16:
	.cfi_def_cfa_offset 16
.LBB61:
.LBB58:
	.loc 1 722 0
	cmpw 7,0,9
	ble- 7,.L202
	.loc 1 728 0
	lwz 10,4(10)
	lbzx 0,10,9
	.loc 1 729 0
	lis 10,0x4330
	stw 10,8(1)
	lis 10,.LC5@ha
	.loc 1 728 0
	extsb 0,0
.LVL175:
	.loc 1 729 0
	lfs 0,.LC5@l(10)
	xoris 0,0,0x8000
.LVL176:
	addi 9,9,1
	stw 0,12(1)
	stw 9,msg_readcount@l(11)
	lis 9,.LC18@ha
	lfd 1,8(1)
.LBE58:
.LBE61:
	.loc 1 844 0
	addi 1,1,16
	.cfi_remember_state
.LCFI17:
	.cfi_def_cfa_offset 0
.LBB62:
.LBB59:
	.loc 1 729 0
	fsub 1,1,0
	lfs 0,.LC18@l(9)
	frsp 1,1
	fmuls 1,1,0
.LBE59:
.LBE62:
	.loc 1 844 0
	blr
.LVL177:
.L202:
.LCFI18:
	.cfi_restore_state
.LBB63:
.LBB60:
	.loc 1 724 0
	lis 9,msg_badread@ha
	li 0,1
	stb 0,msg_badread@l(9)
	lis 9,.LC17@ha
	lfs 1,.LC17@l(9)
.LBE60:
.LBE63:
	.loc 1 844 0
	addi 1,1,16
.LCFI19:
	.cfi_def_cfa_offset 0
	blr
	.cfi_endproc
.LFE79:
	.size	MSG_ReadAngle, .-MSG_ReadAngle
	.align 2
	.globl SZ_Alloc
	.type	SZ_Alloc, @function
SZ_Alloc:
.LFB80:
	.loc 1 850 0
	.cfi_startproc
.LVL178:
	.loc 1 851 0
	cmpwi 7,4,255
	.loc 1 850 0
	mflr 0
	stwu 1,-16(1)
.LCFI20:
	.cfi_def_cfa_offset 16
	.cfi_register 65, 0
	stw 30,8(1)
	mr 30,3
	.cfi_offset 30, -8
	stw 31,12(1)
	mr 31,4
	.cfi_offset 31, -4
	stw 0,20(1)
	.loc 1 851 0
	bgt- 7,.L204
	.cfi_offset 65, 4
	.loc 1 852 0
	li 31,256
.L204:
.LVL179:
	.loc 1 853 0
	lis 4,.LC19@ha
	mr 3,31
.LVL180:
	la 4,.LC19@l(4)
	bl Hunk_AllocName
	.loc 1 855 0
	li 0,0
	stw 0,12(30)
	.loc 1 856 0
	lwz 0,20(1)
	.loc 1 854 0
	stw 31,8(30)
	.loc 1 856 0
	mtlr 0
	.loc 1 853 0
	stw 3,4(30)
	.loc 1 856 0
	lwz 31,12(1)
.LVL181:
	lwz 30,8(1)
.LVL182:
	addi 1,1,16
.LCFI21:
	.cfi_def_cfa_offset 0
	.cfi_restore 31
	.cfi_restore 30
	blr
	.cfi_endproc
.LFE80:
	.size	SZ_Alloc, .-SZ_Alloc
	.align 2
	.globl SZ_Free
	.type	SZ_Free, @function
SZ_Free:
.LFB81:
	.loc 1 859 0
	.cfi_startproc
.LVL183:
	.loc 1 863 0
	li 0,0
	.loc 1 864 0
	.loc 1 863 0
	stw 0,12(3)
	.loc 1 864 0
	blr
	.cfi_endproc
.LFE81:
	.size	SZ_Free, .-SZ_Free
	.align 2
	.globl SZ_Clear
	.type	SZ_Clear, @function
SZ_Clear:
.LFB82:
	.loc 1 868 0
	.cfi_startproc
.LVL184:
	.loc 1 869 0
	li 0,0
	.loc 1 870 0
	.loc 1 869 0
	stw 0,12(3)
	.loc 1 870 0
	blr
	.cfi_endproc
.LFE82:
	.size	SZ_Clear, .-SZ_Clear
	.align 2
	.globl SZ_GetSpace
	.type	SZ_GetSpace, @function
SZ_GetSpace:
.LFB83:
	.loc 1 874 0
	.cfi_startproc
.LVL185:
	mflr 0
	stwu 1,-16(1)
.LCFI22:
	.cfi_def_cfa_offset 16
	.cfi_register 65, 0
	stw 31,12(1)
	mr 31,3
	.cfi_offset 31, -4
	stw 0,20(1)
	stw 30,8(1)
	.loc 1 874 0
	mr 30,4
	.cfi_offset 30, -8
	.cfi_offset 65, 4
	.loc 1 877 0
	lwz 3,12(3)
.LVL186:
	lwz 0,8(31)
	add 9,3,4
	cmpw 7,9,0
	ble- 7,.L213
	.loc 1 879 0
	lbz 9,0(31)
	cmpwi 7,9,0
	beq- 7,.L214
	.loc 1 882 0
	cmpw 7,30,0
	bgt- 7,.L215
.LVL187:
.L212:
	.loc 1 885 0
	li 0,1
	.loc 1 886 0
	lis 3,.LC22@ha
	.loc 1 885 0
	stb 0,1(31)
	.loc 1 886 0
	la 3,.LC22@l(3)
	crxor 6,6,6
	bl Con_Printf
.LVL188:
	.loc 1 891 0
	lwz 0,4(31)
	.loc 1 886 0
	li 3,0
.LVL189:
	.loc 1 892 0
	stw 30,12(31)
	.loc 1 895 0
	add 3,0,3
.LVL190:
	lwz 0,20(1)
	lwz 30,8(1)
.LVL191:
	mtlr 0
	lwz 31,12(1)
.LVL192:
	addi 1,1,16
	.cfi_remember_state
.LCFI23:
	.cfi_def_cfa_offset 0
	.cfi_restore 31
	.cfi_restore 30
	blr
.LVL193:
.L213:
.LCFI24:
	.cfi_restore_state
	.loc 1 891 0
	lwz 0,4(31)
.LVL194:
	.loc 1 877 0
	mr 30,9
	.loc 1 892 0
	stw 30,12(31)
	.loc 1 895 0
	add 3,0,3
.LVL195:
	lwz 0,20(1)
	lwz 30,8(1)
	mtlr 0
	lwz 31,12(1)
.LVL196:
	addi 1,1,16
	.cfi_remember_state
	.cfi_restore 30
	.cfi_restore 31
.LCFI25:
	.cfi_def_cfa_offset 0
	blr
.LVL197:
.L215:
.LCFI26:
	.cfi_restore_state
	.loc 1 883 0
	lis 3,.LC21@ha
	mr 4,30
	la 3,.LC21@l(3)
	crxor 6,6,6
	bl Sys_Error
	b .L212
.L214:
	.loc 1 880 0
	lis 3,.LC20@ha
	la 3,.LC20@l(3)
	crxor 6,6,6
	bl Sys_Error
	lwz 0,8(31)
	.loc 1 882 0
	cmpw 7,30,0
	ble+ 7,.L212
	b .L215
	.cfi_endproc
.LFE83:
	.size	SZ_GetSpace, .-SZ_GetSpace
	.align 2
	.globl MSG_WriteLong
	.type	MSG_WriteLong, @function
MSG_WriteLong:
.LFB66:
	.loc 1 654 0
	.cfi_startproc
.LVL198:
	stwu 1,-16(1)
.LCFI27:
	.cfi_def_cfa_offset 16
	mflr 0
	stw 31,12(1)
	mr 31,4
	.cfi_offset 31, -4
	.cfi_register 65, 0
	.loc 1 657 0
	li 4,4
.LVL199:
	.loc 1 654 0
	stw 0,20(1)
	.loc 1 657 0
	.cfi_offset 65, 4
	bl SZ_GetSpace
.LVL200:
	.loc 1 661 0
	srawi 0,31,24
	.loc 1 659 0
	srawi 11,31,8
	.loc 1 660 0
	srawi 9,31,16
	.loc 1 658 0
	stb 31,0(3)
	.loc 1 659 0
	stb 11,1(3)
	.loc 1 660 0
	stb 9,2(3)
	.loc 1 661 0
	stb 0,3(3)
	.loc 1 662 0
	lwz 0,20(1)
	lwz 31,12(1)
.LVL201:
	mtlr 0
	addi 1,1,16
.LCFI28:
	.cfi_def_cfa_offset 0
	.cfi_restore 31
	blr
	.cfi_endproc
.LFE66:
	.size	MSG_WriteLong, .-MSG_WriteLong
	.align 2
	.globl MSG_WriteShort
	.type	MSG_WriteShort, @function
MSG_WriteShort:
.LFB65:
	.loc 1 638 0
	.cfi_startproc
.LVL202:
	stwu 1,-16(1)
.LCFI29:
	.cfi_def_cfa_offset 16
	mflr 0
	stw 31,12(1)
	mr 31,4
	.cfi_offset 31, -4
	.cfi_register 65, 0
	.loc 1 647 0
	li 4,2
.LVL203:
	.loc 1 638 0
	stw 0,20(1)
	.loc 1 647 0
	.cfi_offset 65, 4
	bl SZ_GetSpace
.LVL204:
	.loc 1 649 0
	srawi 0,31,8
	.loc 1 648 0
	stb 31,0(3)
	.loc 1 649 0
	stb 0,1(3)
	.loc 1 650 0
	lwz 0,20(1)
	lwz 31,12(1)
.LVL205:
	mtlr 0
	addi 1,1,16
.LCFI30:
	.cfi_def_cfa_offset 0
	.cfi_restore 31
	blr
	.cfi_endproc
.LFE65:
	.size	MSG_WriteShort, .-MSG_WriteShort
	.align 2
	.globl MSG_WriteCoord
	.type	MSG_WriteCoord, @function
MSG_WriteCoord:
.LFB69:
	.loc 1 691 0
	.cfi_startproc
.LVL206:
	.loc 1 692 0
	lis 9,.LC23@ha
	.loc 1 691 0
	stwu 1,-16(1)
.LCFI31:
	.cfi_def_cfa_offset 16
	.loc 1 692 0
	lfs 0,.LC23@l(9)
	addi 9,1,8
	fmuls 0,1,0
	fctiwz 0,0
	stfiwx 0,0,9
	lwz 4,8(1)
	.loc 1 693 0
	addi 1,1,16
.LCFI32:
	.cfi_def_cfa_offset 0
	.loc 1 692 0
	b MSG_WriteShort
.LVL207:
.LVL208:
	.cfi_endproc
.LFE69:
	.size	MSG_WriteCoord, .-MSG_WriteCoord
	.align 2
	.globl MSG_WriteByte
	.type	MSG_WriteByte, @function
MSG_WriteByte:
.LFB64:
	.loc 1 623 0
	.cfi_startproc
.LVL209:
	stwu 1,-16(1)
.LCFI33:
	.cfi_def_cfa_offset 16
	mflr 0
	stw 31,12(1)
	mr 31,4
	.cfi_offset 31, -4
	.cfi_register 65, 0
	.loc 1 632 0
	li 4,1
.LVL210:
	.loc 1 623 0
	stw 0,20(1)
	.loc 1 632 0
	.cfi_offset 65, 4
	bl SZ_GetSpace
.LVL211:
	.loc 1 633 0
	stb 31,0(3)
	.loc 1 634 0
	lwz 0,20(1)
	lwz 31,12(1)
.LVL212:
	mtlr 0
	addi 1,1,16
.LCFI34:
	.cfi_def_cfa_offset 0
	.cfi_restore 31
	blr
	.cfi_endproc
.LFE64:
	.size	MSG_WriteByte, .-MSG_WriteByte
	.align 2
	.globl MSG_WriteAngle
	.type	MSG_WriteAngle, @function
MSG_WriteAngle:
.LFB70:
	.loc 1 696 0
	.cfi_startproc
.LVL213:
	.loc 1 697 0
	lis 9,.LC26@ha
	.loc 1 696 0
	stwu 1,-16(1)
.LCFI35:
	.cfi_def_cfa_offset 16
	.loc 1 697 0
	lfs 0,.LC26@l(9)
	.loc 1 698 0
	lis 9,.LC25@ha
	.loc 1 697 0
	fcmpu 7,1,0
	.loc 1 698 0
	lfs 0,.LC25@l(9)
	lis 9,.LC24@ha
	.loc 1 697 0
	cror 30,29,30
	.loc 1 698 0
	lfs 13,.LC24@l(9)
	.loc 1 697 0
	beq- 7,.L225
	.loc 1 700 0
	fmsubs 1,1,13,0
.LVL214:
	addi 9,1,8
	fctiwz 1,1
	stfiwx 1,0,9
	lwz 4,8(1)
	.loc 1 701 0
	addi 1,1,16
	.cfi_remember_state
.LCFI36:
	.cfi_def_cfa_offset 0
	.loc 1 700 0
	rlwinm 4,4,0,24,31
	b MSG_WriteByte
.LVL215:
.L225:
.LCFI37:
	.cfi_restore_state
	.loc 1 698 0
	fmadds 1,1,13,0
.LVL216:
	addi 9,1,12
	fctiwz 1,1
	stfiwx 1,0,9
	lwz 4,12(1)
	.loc 1 701 0
	addi 1,1,16
.LCFI38:
	.cfi_def_cfa_offset 0
	.loc 1 698 0
	rlwinm 4,4,0,24,31
	b MSG_WriteByte
.LVL217:
	.cfi_endproc
.LFE70:
	.size	MSG_WriteAngle, .-MSG_WriteAngle
	.align 2
	.globl MSG_WriteChar
	.type	MSG_WriteChar, @function
MSG_WriteChar:
.LFB63:
	.loc 1 608 0
	.cfi_startproc
.LVL218:
	stwu 1,-16(1)
.LCFI39:
	.cfi_def_cfa_offset 16
	mflr 0
	stw 31,12(1)
	mr 31,4
	.cfi_offset 31, -4
	.cfi_register 65, 0
	.loc 1 617 0
	li 4,1
.LVL219:
	.loc 1 608 0
	stw 0,20(1)
	.loc 1 617 0
	.cfi_offset 65, 4
	bl SZ_GetSpace
.LVL220:
	.loc 1 618 0
	stb 31,0(3)
	.loc 1 619 0
	lwz 0,20(1)
	lwz 31,12(1)
.LVL221:
	mtlr 0
	addi 1,1,16
.LCFI40:
	.cfi_def_cfa_offset 0
	.cfi_restore 31
	blr
	.cfi_endproc
.LFE63:
	.size	MSG_WriteChar, .-MSG_WriteChar
	.align 2
	.globl SZ_Write
	.type	SZ_Write, @function
SZ_Write:
.LFB84:
	.loc 1 899 0
	.cfi_startproc
.LVL222:
	stwu 1,-24(1)
.LCFI41:
	.cfi_def_cfa_offset 24
	mflr 0
	stw 31,20(1)
	mr 31,4
	.cfi_offset 31, -4
	.cfi_register 65, 0
	.loc 1 900 0
	mr 4,5
.LVL223:
	.loc 1 899 0
	stw 0,28(1)
	.loc 1 900 0
	stw 5,8(1)
	.cfi_offset 65, 4
	bl SZ_GetSpace
.LVL224:
	.loc 1 901 0
	lwz 0,28(1)
	.loc 1 900 0
	mr 4,31
	lwz 5,8(1)
	.loc 1 901 0
	lwz 31,20(1)
.LVL225:
	mtlr 0
	addi 1,1,24
.LCFI42:
	.cfi_def_cfa_offset 0
	.cfi_restore 31
	.loc 1 900 0
	b Q_memcpy
.LVL226:
	.cfi_endproc
.LFE84:
	.size	SZ_Write, .-SZ_Write
	.align 2
	.globl MSG_WriteString
	.type	MSG_WriteString, @function
MSG_WriteString:
.LFB68:
	.loc 1 682 0
	.cfi_startproc
.LVL227:
	.loc 1 683 0
	cmpwi 0,4,0
	.loc 1 682 0
	mr 0,3
	.loc 1 683 0
	beq- 0,.L229
.LVL228:
.LBB64:
.LBB65:
	.loc 1 246 0
	lbz 9,0(4)
	li 5,0
	cmpwi 7,9,0
	beq- 7,.L235
.LVL229:
.L233:
	.loc 1 247 0
	addi 5,5,1
.LVL230:
	.loc 1 246 0
	lbzx 9,4,5
	cmpwi 7,9,0
	bne+ 7,.L233
	addi 5,5,1
.LVL231:
.L231:
.LBE65:
.LBE64:
	.loc 1 686 0
	mr 3,0
	.loc 1 687 0
	.loc 1 686 0
	b SZ_Write
.LVL232:
.L235:
.LBB67:
.LBB66:
	.loc 1 246 0
	li 5,1
	b .L231
.LVL233:
.L229:
.LBE66:
.LBE67:
	.loc 1 684 0
	lis 4,.LC27@ha
.LVL234:
	li 5,1
	la 4,.LC27@l(4)
	.loc 1 687 0
	.loc 1 684 0
	b SZ_Write
.LVL235:
	.cfi_endproc
.LFE68:
	.size	MSG_WriteString, .-MSG_WriteString
	.align 2
	.globl MSG_WriteFloat
	.type	MSG_WriteFloat, @function
MSG_WriteFloat:
.LFB67:
	.loc 1 666 0
	.cfi_startproc
.LVL236:
	stwu 1,-40(1)
.LCFI43:
	.cfi_def_cfa_offset 40
	mflr 0
	.loc 1 675 0
	lis 9,LittleLong@ha
	.loc 1 666 0
	stfs 1,24(1)
	stw 0,44(1)
	.loc 1 675 0
	lwz 9,LittleLong@l(9)
	.loc 1 666 0
	lwz 0,24(1)
	stw 31,36(1)
	.loc 1 675 0
	mtctr 9
	.loc 1 674 0
	stw 0,8(1)
	.loc 1 666 0
	mr 31,3
	.cfi_offset 31, -4
	.cfi_offset 65, 4
	.loc 1 675 0
	mr 3,0
.LVL237:
	bctrl
.LVL238:
	mr 4,1
	stwu 3,8(4)
	.loc 1 677 0
	li 5,4
	mr 3,31
	bl SZ_Write
	.loc 1 678 0
	lwz 0,44(1)
	lwz 31,36(1)
.LVL239:
	mtlr 0
	addi 1,1,40
.LCFI44:
	.cfi_def_cfa_offset 0
	.cfi_restore 31
	blr
	.cfi_endproc
.LFE67:
	.size	MSG_WriteFloat, .-MSG_WriteFloat
	.align 2
	.globl SZ_Print
	.type	SZ_Print, @function
SZ_Print:
.LFB85:
	.loc 1 905 0
	.cfi_startproc
.LVL240:
	mflr 0
	stwu 1,-16(1)
.LCFI45:
	.cfi_def_cfa_offset 16
	.cfi_register 65, 0
	stw 30,8(1)
.LBB68:
.LBB69:
	.loc 1 246 0
	li 30,1
	.cfi_offset 30, -8
.LBE69:
.LBE68:
	.loc 1 905 0
	stw 31,12(1)
	mr 31,4
	.cfi_offset 31, -4
.LVL241:
	stw 0,20(1)
.LBB71:
.LBB70:
	.loc 1 246 0
	lbz 0,0(4)
	.cfi_offset 65, 4
	.loc 1 245 0
	li 4,0
.LVL242:
	.loc 1 246 0
	cmpwi 7,0,0
	beq- 7,.L238
.LVL243:
.L239:
	.loc 1 247 0
	addi 4,4,1
.LVL244:
	.loc 1 246 0
	lbzx 0,31,4
	cmpwi 7,0,0
	bne+ 7,.L239
	addi 30,4,1
.LVL245:
.L238:
.LBE70:
.LBE71:
	.loc 1 912 0
	lwz 0,12(3)
	lwz 9,4(3)
	add 9,9,0
	lbz 0,-1(9)
	cmpwi 7,0,0
	bne- 7,.L244
	.loc 1 915 0
	bl SZ_GetSpace
.LVL246:
	.loc 1 916 0
	lwz 0,20(1)
	.loc 1 915 0
	mr 4,31
	mr 5,30
	.loc 1 916 0
	lwz 31,12(1)
.LVL247:
	mtlr 0
	lwz 30,8(1)
.LVL248:
	.loc 1 915 0
	addi 3,3,-1
	.loc 1 916 0
	addi 1,1,16
	.cfi_remember_state
.LCFI46:
	.cfi_def_cfa_offset 0
	.cfi_restore 31
	.cfi_restore 30
	.loc 1 915 0
	b Q_memcpy
.LVL249:
.L244:
.LCFI47:
	.cfi_restore_state
	.loc 1 913 0
	mr 4,30
	bl SZ_GetSpace
.LVL250:
	.loc 1 916 0
	lwz 0,20(1)
	.loc 1 915 0
	mr 4,31
	mr 5,30
	.loc 1 916 0
	lwz 31,12(1)
.LVL251:
	mtlr 0
	lwz 30,8(1)
.LVL252:
	addi 1,1,16
	.cfi_restore 30
	.cfi_restore 31
.LCFI48:
	.cfi_def_cfa_offset 0
	.loc 1 915 0
	b Q_memcpy
.LVL253:
.LVL254:
.LVL255:
	.cfi_endproc
.LFE85:
	.size	SZ_Print, .-SZ_Print
	.align 2
	.globl COM_SkipPath
	.type	COM_SkipPath, @function
COM_SkipPath:
.LFB86:
	.loc 1 929 0
	.cfi_startproc
.LVL256:
	.loc 1 933 0
	lbz 0,0(3)
	cmpwi 7,0,0
	beqlr- 7
	.loc 1 928 0
	addi 9,3,1
	.loc 1 933 0
	mr 11,3
	b .L248
.LVL257:
.L247:
	lbzu 0,1(11)
	addi 9,9,1
	cmpwi 7,0,0
	beq- 7,.L251
.L248:
	.loc 1 935 0
	cmpwi 7,0,47
	bne+ 7,.L247
	.loc 1 933 0
	lbzu 0,1(11)
	.loc 1 936 0
	mr 3,9
.LVL258:
	.loc 1 933 0
	addi 9,9,1
	cmpwi 7,0,0
	bne+ 7,.L248
.L251:
	.loc 1 940 0
	blr
	.cfi_endproc
.LFE86:
	.size	COM_SkipPath, .-COM_SkipPath
	.align 2
	.globl COM_FileExtension
	.type	COM_FileExtension, @function
COM_FileExtension:
.LFB87:
	.loc 1 948 0
	.cfi_startproc
.LVL259:
	.loc 1 953 0
	lbz 0,0(3)
	cmpwi 7,0,0
	beq- 7,.L259
	cmpwi 7,0,46
	bne+ 7,.L261
	b .L254
.L264:
	.loc 1 953 0 is_stmt 0 discriminator 2
	beq- 6,.L254
.LVL260:
.L261:
	.loc 1 953 0
	lbz 0,1(3)
	.loc 1 954 0 is_stmt 1
	addi 3,3,1
.LVL261:
	.loc 1 953 0
	cmpwi 7,0,0
	cmpwi 6,0,46
	bne+ 7,.L264
	.loc 1 956 0
	lis 3,.LC27@ha
.LVL262:
	la 3,.LC27@l(3)
	.loc 1 962 0
	blr
.L254:
.LVL263:
	lis 10,.LANCHOR0@ha
	li 0,29
	la 10,.LANCHOR0@l(10)
	.loc 1 958 0
	li 9,0
	addi 11,10,2048
	mtctr 0
	b .L258
.LVL264:
.L257:
	.loc 1 959 0 discriminator 1
	stbx 0,11,9
	.loc 1 958 0 discriminator 1
	addi 9,9,1
.LVL265:
	bdz .L256
.LVL266:
.L258:
	.loc 1 958 0 is_stmt 0 discriminator 2
	lbzu 0,1(3)
	cmpwi 7,0,0
	bne+ 7,.L257
.L256:
	.loc 1 960 0 is_stmt 1
	add 9,10,9
	li 0,0
	stb 0,2048(9)
	.loc 1 961 0
	mr 3,11
	blr
.LVL267:
.L259:
	.loc 1 956 0
	lis 3,.LC27@ha
.LVL268:
	la 3,.LC27@l(3)
	blr
	.cfi_endproc
.LFE87:
	.size	COM_FileExtension, .-COM_FileExtension
	.align 2
	.globl COM_FileBase
	.type	COM_FileBase, @function
COM_FileBase:
.LFB88:
	.loc 1 971 0
	.cfi_startproc
.LVL269:
	mflr 0
	stwu 1,-24(1)
.LCFI49:
	.cfi_def_cfa_offset 24
	.cfi_register 65, 0
	stw 29,12(1)
	mr 29,3
	.cfi_offset 29, -12
	stw 30,16(1)
	stw 31,20(1)
	mr 31,4
	.cfi_offset 31, -4
	.cfi_offset 30, -8
	stw 0,28(1)
	.loc 1 975 0
	.cfi_offset 65, 4
	bl strlen
.LVL270:
	addi 3,3,-1
	add 30,29,3
.LVL271:
	.loc 1 977 0
	cmpw 7,29,30
	beq- 7,.L277
	lbzx 0,29,3
	cmpwi 7,0,46
	beq- 7,.L270
	subf 0,29,30
	mr 9,30
	mtctr 0
	b .L271
.L268:
	.loc 1 977 0 is_stmt 0 discriminator 2
	lbzu 0,-1(9)
	cmpwi 7,0,46
	beq- 7,.L270
.L271:
	.loc 1 978 0 is_stmt 1
	addi 30,30,-1
.LVL272:
	.loc 1 977 0
	bdnz .L268
.L277:
.LVL273:
	.loc 1 980 0
	lbz 0,0(29)
	.loc 1 977 0
	mr 30,29
.LVL274:
	.loc 1 980 0
	cmpwi 7,0,0
	beq- 7,.L269
	cmpwi 7,0,47
	beq- 7,.L269
.LVL275:
.L270:
	.loc 1 977 0
	mr 9,30
	.loc 1 970 0
	mr 4,30
	b .L274
.LVL276:
.L272:
	.loc 1 980 0 discriminator 2
	beq- 6,.L281
.LVL277:
.L274:
	.loc 1 980 0 is_stmt 0 discriminator 1
	lbzu 0,-1(9)
	addi 4,4,-1
.LVL278:
	cmpwi 7,0,0
	cmpwi 6,0,47
	bne+ 7,.L272
.L281:
	.loc 1 980 0
	subf 0,4,30
	.loc 1 983 0 is_stmt 1
	cmpwi 7,0,1
	ble- 7,.L269
.LVL279:
	.loc 1 987 0
	addi 30,30,-1
.LVL280:
	.loc 1 988 0
	mr 3,31
	subf 30,4,30
.LVL281:
	addi 4,4,1
.LVL282:
	mr 5,30
	bl strncpy
.LVL283:
	.loc 1 989 0
	li 0,0
	stbx 0,31,30
	.loc 1 991 0
	lwz 0,28(1)
	lwz 29,12(1)
.LVL284:
	mtlr 0
	lwz 30,16(1)
	lwz 31,20(1)
.LVL285:
	addi 1,1,24
	.cfi_remember_state
.LCFI50:
	.cfi_def_cfa_offset 0
	.cfi_restore 31
	.cfi_restore 30
	.cfi_restore 29
	blr
.LVL286:
.L269:
.LCFI51:
	.cfi_restore_state
	.loc 1 984 0
	lis 9,.LC28@ha
	la 11,.LC28@l(9)
	lwz 9,.LC28@l(9)
	lwz 0,4(11)
	stw 9,0(31)
	stw 0,4(31)
	.loc 1 991 0
	lwz 0,28(1)
	lwz 29,12(1)
.LVL287:
	mtlr 0
	lwz 30,16(1)
	lwz 31,20(1)
.LVL288:
	addi 1,1,24
	.cfi_restore 29
	.cfi_restore 30
	.cfi_restore 31
.LCFI52:
	.cfi_def_cfa_offset 0
	blr
	.cfi_endproc
.LFE88:
	.size	COM_FileBase, .-COM_FileBase
	.align 2
	.globl COM_DefaultExtension
	.type	COM_DefaultExtension, @function
COM_DefaultExtension:
.LFB89:
	.loc 1 1032 0
	.cfi_startproc
.LVL289:
	mflr 0
	stwu 1,-16(1)
.LCFI53:
	.cfi_def_cfa_offset 16
	.cfi_register 65, 0
	stw 30,8(1)
	mr 30,4
	.cfi_offset 30, -8
	stw 0,20(1)
	stw 31,12(1)
	.loc 1 1032 0
	mr 31,3
	.cfi_offset 31, -4
	.cfi_offset 65, 4
	.loc 1 1038 0
	bl strlen
.LVL290:
	addi 9,3,-1
	.loc 1 1041 0
	lbzx 0,31,9
	.loc 1 1038 0
	add 9,31,9
.LVL291:
	.loc 1 1041 0
	cmpwi 7,0,47
	beq- 7,.L283
	cmpw 7,31,9
	beq- 7,.L283
	.loc 1 1043 0
	cmpwi 7,0,46
	beq- 7,.L282
	subf 0,31,9
	mtctr 0
	b .L289
.L290:
	.loc 1 1041 0 discriminator 2
	bdz .L283
	.loc 1 1043 0
	beq- 6,.L282
.LVL292:
.L289:
	.loc 1 1041 0
	lbz 0,-1(9)
	.loc 1 1045 0
	addi 9,9,-1
.LVL293:
	.loc 1 1041 0
	cmpwi 7,0,47
	.loc 1 1043 0
	cmpwi 6,0,46
	.loc 1 1041 0
	bne+ 7,.L290
.LVL294:
.L283:
	.loc 1 1049 0
	mr 3,31
	mr 4,30
	bl strcat
.L282:
	.loc 1 1050 0
	lwz 0,20(1)
	lwz 30,8(1)
.LVL295:
	mtlr 0
	lwz 31,12(1)
.LVL296:
	addi 1,1,16
.LCFI54:
	.cfi_def_cfa_offset 0
	.cfi_restore 31
	.cfi_restore 30
	blr
	.cfi_endproc
.LFE89:
	.size	COM_DefaultExtension, .-COM_DefaultExtension
	.align 2
	.globl COM_Parse
	.type	COM_Parse, @function
COM_Parse:
.LFB90:
	.loc 1 1064 0
	.cfi_startproc
.LVL297:
	mfcr 12
	.loc 1 1071 0
	cmpwi 0,3,0
	.loc 1 1064 0
	stwu 1,-16(1)
.LCFI55:
	.cfi_def_cfa_offset 16
	.cfi_register 70, 12
	.loc 1 1069 0
	lis 10,com_token@ha
	li 0,0
	.loc 1 1064 0
	stw 12,12(1)
	.loc 1 1069 0
	stb 0,com_token@l(10)
	.loc 1 1071 0
	beq- 0,.L292
	.cfi_offset 70, -4
	lbz 0,0(3)
.L315:
	.loc 1 1076 0 discriminator 1
	cmpwi 7,0,32
	mr 9,0
.LVL298:
	ble- 7,.L294
.L318:
	.loc 1 1084 0
	cmpwi 7,0,47
	bne- 7,.L295
	.loc 1 1084 0 is_stmt 0 discriminator 1
	lbz 0,1(3)
.LVL299:
	cmpwi 7,0,47
	bne- 7,.L304
	.loc 1 1063 0 is_stmt 1 discriminator 1
	addi 9,3,1
.LVL300:
	mr 11,9
	b .L298
.L317:
	.loc 1 1086 0 discriminator 2
	beq- 6,.L310
	.loc 1 1086 0 is_stmt 0
	lbzu 0,1(11)
.L298:
	cmpwi 7,0,0
	.loc 1 1087 0 is_stmt 1
	mr 3,9
.LVL301:
	.loc 1 1086 0
	cmpwi 6,0,10
	addi 9,9,1
.LVL302:
	bne+ 7,.L317
	li 0,0
	.loc 1 1076 0
	cmpwi 7,0,32
	mr 9,0
.LVL303:
	bgt- 7,.L318
.L294:
	.loc 1 1078 0
	cmpwi 7,0,0
	beq- 7,.L308
.LVL304:
	.loc 1 1080 0
	lbz 0,1(3)
.LVL305:
	addi 3,3,1
.LVL306:
	b .L315
.LVL307:
.L310:
	.loc 1 1086 0
	li 0,10
	b .L315
.LVL308:
.L295:
	.loc 1 1094 0
	cmpwi 7,0,34
	beq- 7,.L319
	.loc 1 1112 0
	cmpwi 7,0,123
	bne- 7,.L320
.L303:
	.loc 1 1114 0
	la 9,com_token@l(10)
	stb 0,com_token@l(10)
.LVL309:
	.loc 1 1116 0
	li 0,0
.LVL310:
	.loc 1 1117 0
	addi 3,3,1
.LVL311:
	.loc 1 1116 0
	stb 0,1(9)
.LVL312:
.L292:
	.loc 1 1134 0
	lwz 12,12(1)
	addi 1,1,16
	.cfi_remember_state
.LCFI56:
	.cfi_def_cfa_offset 0
	.cfi_restore 70
	mtcrf 56,12
	blr
.LVL313:
.L308:
.LCFI57:
	.cfi_restore_state
	lwz 12,12(1)
	.loc 1 1079 0
	li 3,0
.LVL314:
	.loc 1 1134 0
	addi 1,1,16
	.cfi_remember_state
	.cfi_restore 70
.LCFI58:
	.cfi_def_cfa_offset 0
	mtcrf 56,12
	blr
.LVL315:
.L319:
.LCFI59:
	.cfi_restore_state
	.loc 1 1099 0
	lbz 0,1(3)
.LVL316:
	lis 11,com_token@ha
	addi 3,3,2
.LVL317:
	.loc 1 1068 0
	li 9,0
	.loc 1 1100 0
	cmpwi 7,0,34
	la 11,com_token@l(11)
	beq- 7,.L300
	cmpwi 7,0,0
	bne+ 7,.L301
	b .L300
.LVL318:
.L316:
	.loc 1 1100 0 is_stmt 0 discriminator 1
	beq- 6,.L300
.LVL319:
.L301:
	.loc 1 1105 0 is_stmt 1
	stbx 0,11,9
	.loc 1 1106 0
	addi 9,9,1
.LVL320:
	.loc 1 1099 0
	lbz 0,0(3)
.LVL321:
	addi 3,3,1
.LVL322:
	.loc 1 1100 0
	cmpwi 7,0,34
	cmpwi 6,0,0
	bne+ 7,.L316
.LVL323:
.L300:
	.loc 1 1102 0
	li 0,0
.LVL324:
	stbx 0,11,9
	.loc 1 1134 0
	lwz 12,12(1)
	addi 1,1,16
	.cfi_remember_state
	.cfi_restore 70
.LCFI60:
	.cfi_def_cfa_offset 0
	mtcrf 56,12
	blr
.LVL325:
.L320:
.LCFI61:
	.cfi_restore_state
	.loc 1 1112 0 discriminator 1
	cmpwi 7,0,125
	beq+ 7,.L303
	cmpwi 7,0,41
	beq+ 7,.L303
	cmpwi 7,0,40
	beq- 7,.L303
	cmpwi 7,0,39
	beq- 7,.L303
	cmpwi 7,0,58
	beq- 7,.L303
.LVL326:
.L304:
	lis 11,com_token@ha
	.loc 1 1117 0
	mr 8,3
	.loc 1 1063 0
	li 10,0
	la 11,com_token@l(11)
.LVL327:
.L306:
	.loc 1 1124 0
	stbx 9,11,10
	.loc 1 1125 0
	addi 3,3,1
.LVL328:
	.loc 1 1126 0
	addi 10,10,1
.LVL329:
	.loc 1 1127 0
	lbzu 9,1(8)
.LVL330:
	.loc 1 1128 0
	cmpwi 3,9,123
	cmpwi 4,9,125
	cmpwi 0,9,41
	cmpwi 1,9,40
	cmpwi 6,9,39
	cmpwi 7,9,58
	.loc 1 1130 0
	cmpwi 2,9,32
	.loc 1 1128 0
	beq- 3,.L305
	.loc 1 1128 0 is_stmt 0 discriminator 1
	beq- 4,.L305
	beq- 0,.L305
	beq- 1,.L305
	beq- 6,.L305
	beq- 7,.L305
	.loc 1 1130 0 is_stmt 1
	bgt+ 2,.L306
.L305:
	.loc 1 1132 0
	li 0,0
	stbx 0,11,10
	.loc 1 1134 0
	lwz 12,12(1)
	addi 1,1,16
	.cfi_restore 70
.LCFI62:
	.cfi_def_cfa_offset 0
	mtcrf 56,12
	blr
	.cfi_endproc
.LFE90:
	.size	COM_Parse, .-COM_Parse
	.align 2
	.globl COM_CheckParm
	.type	COM_CheckParm, @function
COM_CheckParm:
.LFB91:
	.loc 1 1148 0
	.cfi_startproc
.LVL331:
	.loc 1 1151 0
	lis 9,com_argc@ha
	.loc 1 1159 0
	li 7,0
	.loc 1 1151 0
	lwz 0,com_argc@l(9)
	cmpwi 7,0,1
	ble- 7,.L322
	lis 9,com_argv@ha
	li 7,1
	lwz 6,com_argv@l(9)
.LVL332:
.L326:
	.loc 1 1153 0
	lwzu 11,4(6)
	cmpwi 7,11,0
	beq- 7,.L323
.LVL333:
.LBB72:
.LBB73:
	.loc 1 284 0
	lbz 10,0(3)
	lbz 9,0(11)
	cmpw 7,9,10
	bne- 7,.L323
	.loc 1 286 0
	cmpwi 7,9,0
	beq- 7,.L322
	mr 10,3
	b .L324
.LVL334:
.L325:
	beq- 6,.L322
.L324:
	.loc 1 284 0
	lbzu 9,1(11)
	lbzu 8,1(10)
	.loc 1 286 0
	cmpwi 6,9,0
	.loc 1 284 0
	cmpw 7,9,8
	beq+ 7,.L325
.L323:
.LBE73:
.LBE72:
	.loc 1 1151 0
	addi 7,7,1
.LVL335:
	cmpw 7,7,0
	bne+ 7,.L326
	.loc 1 1159 0
	li 7,0
.LVL336:
.L322:
	.loc 1 1160 0
	mr 3,7
.LVL337:
	blr
	.cfi_endproc
.LFE91:
	.size	COM_CheckParm, .-COM_CheckParm
	.align 2
	.globl COM_InitArgv
	.type	COM_InitArgv, @function
COM_InitArgv:
.LFB93:
	.loc 1 1235 0
	.cfi_startproc
.LVL338:
	.loc 1 1243 0
	cmpwi 0,3,0
	.loc 1 1235 0
	mflr 0
	stwu 1,-24(1)
.LCFI63:
	.cfi_def_cfa_offset 24
	.cfi_register 65, 0
	stw 0,28(1)
	stw 29,12(1)
	stw 30,16(1)
	stw 31,20(1)
	.loc 1 1243 0
	ble- 0,.L330
	.cfi_offset 31, -4
	.cfi_offset 30, -8
	.cfi_offset 29, -12
	.cfi_offset 65, 4
	lis 7,com_cmdline@ha
	.loc 1 1234 0
	addi 8,4,-4
	.loc 1 1241 0
	li 10,0
	.loc 1 1243 0
	li 6,0
	la 7,com_cmdline@l(7)
	.loc 1 1255 0
	li 5,32
.LVL339:
.L331:
	.loc 1 1248 0
	lwzu 11,4(8)
	mr 9,10
	lbz 0,0(11)
	cmpwi 7,0,0
	beq- 7,.L334
	addi 11,10,1
	cmpwi 7,11,1023
	subfic 11,10,1023
	mtctr 11
	ble+ 7,.L351
	b .L361
.LVL340:
.L359:
	.loc 1 1248 0 is_stmt 0 discriminator 2
	lwz 11,0(8)
	lbzx 0,11,0
	cmpwi 7,0,0
	beq- 7,.L334
.LVL341:
.L351:
	.loc 1 1250 0 is_stmt 1
	stbx 0,7,9
	addi 9,9,1
.LVL342:
	.loc 1 1234 0
	subf 0,10,9
	.loc 1 1248 0
	bdnz .L359
.L335:
	.loc 1 1261 0
	li 0,0
	.loc 1 1267 0
	lis 30,com_argc@ha
	.loc 1 1261 0
	stbx 0,7,9
.LVL343:
	lis 29,.LANCHOR0@ha
	.loc 1 1267 0
	li 0,0
	la 29,.LANCHOR0@l(29)
	stw 0,com_argc@l(30)
	.loc 1 1234 0
	addi 3,3,1
.LVL344:
	li 6,0
	li 5,1
	.loc 1 1264 0
	li 31,0
	addi 9,29,2080
.LVL345:
	la 12,com_argc@l(30)
.LBB74:
.LBB75:
	.loc 1 284 0
	lis 11,.LC29@ha
.LVL346:
.L341:
.LBE75:
.LBE74:
	.loc 1 1270 0
	lwzx 0,4,6
	stwx 0,9,6
	.loc 1 1271 0
	lwzx 10,4,6
.LVL347:
.LBB78:
.LBB76:
	.loc 1 284 0
	lbz 0,0(10)
	cmpwi 7,0,45
	bne- 7,.L337
	la 8,.LC29@l(11)
	b .L338
.LVL348:
.L339:
	.loc 1 286 0
	beq- 6,.L349
.L338:
	.loc 1 284 0
	lbzu 0,1(10)
	lbzu 7,1(8)
	.loc 1 286 0
	cmpwi 6,0,0
	.loc 1 284 0
	cmpw 7,0,7
	beq+ 7,.L339
.L337:
.LBE76:
.LBE78:
	.loc 1 1267 0
	cmpwi 7,5,50
	.loc 1 1268 0
	mr 10,5
	stw 5,0(12)
	.loc 1 1267 0
	beq- 7,.L350
.L360:
	.loc 1 1267 0 is_stmt 0 discriminator 2
	addi 5,5,1
	addi 6,6,4
	cmpw 7,5,3
	bne+ 7,.L341
	.loc 1 1268 0 is_stmt 1
	mr 11,10
.L340:
	.loc 1 1276 0
	cmpwi 7,31,0
	beq- 7,.L342
	li 0,7
	lis 7,.LANCHOR1@ha
	mtctr 0
	li 10,0
	slwi 6,11,2
	la 7,.LANCHOR1@l(7)
.L343:
	.loc 1 1282 0 discriminator 2
	lwzx 0,7,10
	.loc 1 1234 0 discriminator 2
	add 8,9,6
	.loc 1 1282 0 discriminator 2
	stwx 0,8,10
	addi 10,10,4
	.loc 1 1280 0 discriminator 2
	bdnz .L343
	.loc 1 1280 0 is_stmt 0
	addi 10,11,7
	stw 10,com_argc@l(30)
.LVL349:
.L342:
	.loc 1 1288 0 is_stmt 1
	slwi 11,10,2
	lis 10,.LC30@ha
	add 11,29,11
	la 0,.LC30@l(10)
	stw 0,2080(11)
	.loc 1 1292 0
	lis 3,.LC31@ha
	.loc 1 1289 0
	lis 11,com_argv@ha
	.loc 1 1292 0
	la 3,.LC31@l(3)
	.loc 1 1289 0
	stw 9,com_argv@l(11)
	.loc 1 1292 0
	bl COM_CheckParm
.LVL350:
	cmpwi 7,3,0
	beq- 7,.L344
	.loc 1 1294 0
	li 0,1
	lis 9,rogue@ha
	stb 0,rogue@l(9)
	.loc 1 1295 0
	li 0,0
	lis 9,standard_quake@ha
	stb 0,standard_quake@l(9)
.L344:
	.loc 1 1299 0
	lis 3,.LC32@ha
	la 3,.LC32@l(3)
	bl COM_CheckParm
	cmpwi 7,3,0
	beq- 7,.L329
	.loc 1 1301 0
	li 0,1
	lis 9,hipnotic@ha
	stb 0,hipnotic@l(9)
	.loc 1 1302 0
	li 0,0
	lis 9,standard_quake@ha
	stb 0,standard_quake@l(9)
.L329:
	.loc 1 1304 0
	lwz 0,28(1)
	lwz 29,12(1)
	mtlr 0
	lwz 30,16(1)
	lwz 31,20(1)
	addi 1,1,24
	.cfi_remember_state
.LCFI64:
	.cfi_def_cfa_offset 0
	.cfi_restore 31
	.cfi_restore 30
	.cfi_restore 29
	blr
.LVL351:
.L334:
.LCFI65:
	.cfi_restore_state
	.loc 1 1243 0
	cmpwi 7,6,49
	.loc 1 1255 0
	stbx 5,7,9
	addi 10,9,1
.LVL352:
	.loc 1 1243 0
	addi 6,6,1
.LVL353:
	beq- 7,.L347
	.loc 1 1243 0 is_stmt 0 discriminator 2
	cmpw 7,6,3
	beq- 7,.L347
.LVL354:
	.loc 1 1248 0 is_stmt 1 discriminator 1
	cmpwi 7,10,1022
	ble+ 7,.L331
.LVL355:
.L347:
	.loc 1 1255 0
	mr 9,10
	b .L335
.LVL356:
.L349:
	.loc 1 1267 0
	cmpwi 7,5,50
.LBB79:
.LBB77:
	.loc 1 1272 0
	li 31,1
.LBE77:
.LBE79:
	.loc 1 1268 0
	mr 10,5
	stw 5,0(12)
	.loc 1 1267 0
	bne+ 7,.L360
.L350:
	.loc 1 1268 0
	li 11,50
	b .L340
.LVL357:
.L330:
	.loc 1 1261 0
	li 0,0
	lis 9,com_cmdline@ha
	lis 29,.LANCHOR0@ha
	stb 0,com_cmdline@l(9)
.LVL358:
	la 29,.LANCHOR0@l(29)
	.loc 1 1267 0
	lis 9,com_argc@ha
	li 0,0
	li 10,0
	stw 0,com_argc@l(9)
	addi 9,29,2080
	b .L342
.LVL359:
.L361:
	li 11,1
	mtctr 11
	b .L351
	.cfi_endproc
.LFE93:
	.size	COM_InitArgv, .-COM_InitArgv
	.align 2
	.globl va
	.type	va, @function
va:
.LFB95:
	.loc 1 1370 0
	.cfi_startproc
.LVL360:
	mflr 0
	stwu 1,-128(1)
.LCFI66:
	.cfi_def_cfa_offset 128
	.cfi_register 65, 0
	stw 31,124(1)
	stw 0,132(1)
	stw 4,28(1)
	stw 5,32(1)
	stw 6,36(1)
	stw 7,40(1)
	stw 8,44(1)
	stw 9,48(1)
	stw 10,52(1)
	bne- 1,.L363
	.cfi_offset 65, 4
	.cfi_offset 31, -4
	.loc 1 1370 0
	stfd 1,56(1)
	stfd 2,64(1)
	stfd 3,72(1)
	stfd 4,80(1)
	stfd 5,88(1)
	stfd 6,96(1)
	stfd 7,104(1)
	stfd 8,112(1)
.L363:
	.loc 1 1374 0
	li 0,1
	.loc 1 1375 0
	lis 31,.LANCHOR0@ha
	.loc 1 1374 0
	stb 0,8(1)
	.loc 1 1375 0
	la 31,.LANCHOR0@l(31)
	.loc 1 1374 0
	li 0,0
	.loc 1 1375 0
	addi 31,31,2312
	.loc 1 1374 0
	stb 0,9(1)
	addi 0,1,136
	stw 0,12(1)
	.loc 1 1370 0
	mr 4,3
	.loc 1 1374 0
	addi 0,1,24
	.loc 1 1375 0
	mr 3,31
.LVL361:
	addi 5,1,8
	.loc 1 1374 0
	stw 0,16(1)
	.loc 1 1375 0
	bl vsprintf
.LVL362:
	.loc 1 1380 0
	lwz 0,132(1)
	mr 3,31
	lwz 31,124(1)
	mtlr 0
	addi 1,1,128
.LCFI67:
	.cfi_def_cfa_offset 0
	.cfi_restore 31
	blr
	.cfi_endproc
.LFE95:
	.size	va, .-va
	.align 2
	.globl memsearch
	.type	memsearch, @function
memsearch:
.LFB96:
	.loc 1 1387 0
	.cfi_startproc
.LVL363:
	.loc 1 1390 0
	cmpwi 0,4,0
	.loc 1 1387 0
	mr 9,3
	.loc 1 1393 0
	li 3,-1
.LVL364:
	.loc 1 1390 0
	blelr- 0
	.loc 1 1391 0
	lbz 0,0(9)
	.loc 1 1390 0
	li 3,0
	.loc 1 1391 0
	mtctr 4
	cmpw 7,0,5
	bne+ 7,.L367
	blr
.LVL365:
.L368:
	lbzx 0,9,3
	cmpw 7,0,5
	beqlr- 7
.LVL366:
.L367:
	.loc 1 1390 0
	addi 3,3,1
.LVL367:
	bdnz .L368
	.loc 1 1393 0
	li 3,-1
.LVL368:
	.loc 1 1394 0
	blr
	.cfi_endproc
.LFE96:
	.size	memsearch, .-memsearch
	.align 2
	.globl COM_WriteFile
	.type	COM_WriteFile, @function
COM_WriteFile:
.LFB98:
	.loc 1 1508 0
	.cfi_startproc
.LVL369:
	stwu 1,-152(1)
.LCFI68:
	.cfi_def_cfa_offset 152
	mflr 0
	mr 6,3
	stw 30,144(1)
	mr 30,4
	.cfi_offset 30, -8
	.cfi_register 65, 0
	stw 31,148(1)
	.loc 1 1512 0
	lis 4,.LC33@ha
.LVL370:
	.loc 1 1508 0
	mr 31,5
	.cfi_offset 31, -4
	.loc 1 1512 0
	lis 5,com_gamedir@ha
.LVL371:
	la 4,.LC33@l(4)
	la 5,com_gamedir@l(5)
	addi 3,1,8
.LVL372:
	.loc 1 1508 0
	stw 0,156(1)
	stw 29,140(1)
	.loc 1 1512 0
	.cfi_offset 29, -12
	.cfi_offset 65, 4
	crxor 6,6,6
	bl sprintf
.LVL373:
	.loc 1 1515 0
	addi 3,1,8
	bl Sys_FileOpenWrite
	.loc 1 1516 0
	cmpwi 7,3,-1
	.loc 1 1515 0
	mr 29,3
.LVL374:
	.loc 1 1516 0
	beq- 7,.L374
	.loc 1 1522 0
	lis 3,.LC35@ha
.LVL375:
	addi 4,1,8
	la 3,.LC35@l(3)
	crxor 6,6,6
	bl Sys_Printf
	.loc 1 1523 0
	mr 4,30
	mr 5,31
	mr 3,29
	bl Sys_FileWrite
	.loc 1 1524 0
	mr 3,29
	bl Sys_FileClose
	.loc 1 1525 0
	lwz 0,156(1)
	lwz 29,140(1)
.LVL376:
	mtlr 0
	lwz 30,144(1)
.LVL377:
	lwz 31,148(1)
.LVL378:
	addi 1,1,152
	.cfi_remember_state
.LCFI69:
	.cfi_def_cfa_offset 0
	.cfi_restore 31
	.cfi_restore 30
	.cfi_restore 29
	blr
.LVL379:
.L374:
.LCFI70:
	.cfi_restore_state
	.loc 1 1518 0
	lis 3,.LC34@ha
.LVL380:
	addi 4,1,8
	la 3,.LC34@l(3)
	crxor 6,6,6
	bl Sys_Printf
	.loc 1 1525 0
	lwz 0,156(1)
	lwz 29,140(1)
.LVL381:
	mtlr 0
	lwz 30,144(1)
.LVL382:
	lwz 31,148(1)
.LVL383:
	addi 1,1,152
	.cfi_restore 29
	.cfi_restore 30
	.cfi_restore 31
.LCFI71:
	.cfi_def_cfa_offset 0
	blr
	.cfi_endproc
.LFE98:
	.size	COM_WriteFile, .-COM_WriteFile
	.align 2
	.globl COM_CreatePath
	.type	COM_CreatePath, @function
COM_CreatePath:
.LFB99:
	.loc 1 1539 0
	.cfi_startproc
.LVL384:
	mflr 0
	stwu 1,-24(1)
.LCFI72:
	.cfi_def_cfa_offset 24
	.cfi_register 65, 0
	stw 29,12(1)
	mr 29,3
	.cfi_offset 29, -12
.LVL385:
	stw 0,28(1)
	stw 28,8(1)
	stw 30,16(1)
	stw 31,20(1)
	.loc 1 1542 0
	lbz 31,1(3)
	.cfi_offset 31, -4
	.cfi_offset 30, -8
	.cfi_offset 28, -16
	.cfi_offset 65, 4
	cmpwi 7,31,0
	beq- 7,.L375
	addi 30,3,1
	.loc 1 1546 0
	li 28,0
	b .L378
.LVL386:
.L377:
	.loc 1 1542 0
	lbzu 31,1(30)
	cmpwi 7,31,0
	beq- 7,.L375
.L378:
	.loc 1 1544 0
	cmpwi 7,31,47
	bne+ 7,.L377
	.loc 1 1546 0
	stb 28,0(30)
	.loc 1 1547 0
	mr 3,29
	bl Sys_mkdir
	.loc 1 1548 0
	stb 31,0(30)
	.loc 1 1542 0
	lbzu 31,1(30)
	cmpwi 7,31,0
	bne+ 7,.L378
.L375:
	.loc 1 1551 0
	lwz 0,28(1)
	lwz 28,8(1)
	mtlr 0
	lwz 29,12(1)
.LVL387:
	lwz 30,16(1)
	lwz 31,20(1)
	addi 1,1,24
.LCFI73:
	.cfi_def_cfa_offset 0
	.cfi_restore 31
	.cfi_restore 30
	.cfi_restore 29
	.cfi_restore 28
	blr
	.cfi_endproc
.LFE99:
	.size	COM_CreatePath, .-COM_CreatePath
	.align 2
	.globl COM_CopyFile
	.type	COM_CopyFile, @function
COM_CopyFile:
.LFB100:
	.loc 1 1566 0
	.cfi_startproc
.LVL388:
	stwu 1,-4128(1)
.LCFI74:
	.cfi_def_cfa_offset 4128
	mflr 0
	stw 30,4120(1)
	mr 30,4
	.cfi_offset 30, -8
	.cfi_register 65, 0
	.loc 1 1571 0
	addi 4,1,8
.LVL389:
	.loc 1 1566 0
	stw 0,4132(1)
	stw 31,4124(1)
	.loc 1 1571 0
	.cfi_offset 31, -4
	.cfi_offset 65, 4
	bl Sys_FileOpenRead
.LVL390:
	mr 31,3
.LVL391:
	.loc 1 1572 0
	mr 3,30
.LVL392:
	bl COM_CreatePath
	.loc 1 1573 0
	mr 3,30
	bl Sys_FileOpenWrite
	.loc 1 1575 0
	cmpwi 7,31,0
	.loc 1 1573 0
	mr 30,3
.LVL393:
	.loc 1 1575 0
	beq- 7,.L381
	.loc 1 1577 0
	cmplwi 7,31,4095
	.loc 1 1581 0
	li 5,4096
	addi 4,1,12
.LVL394:
	lwz 3,8(1)
.LVL395:
	.loc 1 1577 0
	ble- 7,.L382
.L386:
.LVL396:
	.loc 1 1581 0
	bl Sys_FileRead
	.loc 1 1582 0
	mr 3,30
	addi 4,1,12
	li 5,4096
	bl Sys_FileWrite
.LVL397:
	.loc 1 1575 0
	addic. 31,31,-4096
.LVL398:
	beq- 0,.L381
	.loc 1 1577 0
	cmplwi 7,31,4095
	.loc 1 1581 0
	li 5,4096
	addi 4,1,12
	lwz 3,8(1)
	.loc 1 1577 0
	bgt- 7,.L386
.LVL399:
.L382:
	.loc 1 1581 0
	addi 4,1,12
	mr 5,31
	bl Sys_FileRead
	.loc 1 1582 0
	mr 3,30
	addi 4,1,12
	mr 5,31
	bl Sys_FileWrite
.LVL400:
.L381:
	.loc 1 1587 0
	lwz 3,8(1)
	bl Sys_FileClose
	.loc 1 1588 0
	mr 3,30
	bl Sys_FileClose
	.loc 1 1589 0
	lwz 0,4132(1)
	lwz 30,4120(1)
.LVL401:
	mtlr 0
	lwz 31,4124(1)
	addi 1,1,4128
.LCFI75:
	.cfi_def_cfa_offset 0
	.cfi_restore 31
	.cfi_restore 30
	blr
	.cfi_endproc
.LFE100:
	.size	COM_CopyFile, .-COM_CopyFile
	.align 2
	.globl COM_FindFile
	.type	COM_FindFile, @function
COM_FindFile:
.LFB101:
	.loc 1 1602 0
	.cfi_startproc
.LVL402:
	stwu 1,-328(1)
.LCFI76:
	.cfi_def_cfa_offset 328
	mfcr 12
	mflr 0
	.loc 1 1611 0
	cmpwi 4,4,0
	.loc 1 1602 0
	stw 25,300(1)
	.loc 1 1611 0
	mr. 25,5
	.cfi_offset 25, -28
	.cfi_register 65, 0
	.cfi_register 70, 12
	.loc 1 1602 0
	stw 28,312(1)
	mr 28,4
	.cfi_offset 28, -16
	stw 30,320(1)
	mr 30,3
	.cfi_offset 30, -8
	stw 0,332(1)
	stw 22,288(1)
	stw 23,292(1)
	stw 24,296(1)
	stw 26,304(1)
	stw 27,308(1)
	stw 29,316(1)
	stw 31,324(1)
	stw 12,284(1)
	.loc 1 1611 0
	beq- 0,.L388
	.cfi_offset 70, -44
	.cfi_offset 31, -4
	.cfi_offset 29, -12
	.cfi_offset 27, -20
	.cfi_offset 26, -24
	.cfi_offset 24, -32
	.cfi_offset 23, -36
	.cfi_offset 22, -40
	.cfi_offset 65, 4
	.loc 1 1611 0 is_stmt 0 discriminator 1
	beq- 4,.L390
	.loc 1 1612 0 is_stmt 1
	lis 3,.LC36@ha
.LVL403:
	la 3,.LC36@l(3)
	crxor 6,6,6
	bl Sys_Error
.LVL404:
.L390:
	.loc 1 1621 0
	lis 9,proghack@ha
	lbz 0,proghack@l(9)
	.loc 1 1620 0
	lis 9,com_searchpaths@ha
	lwz 29,com_searchpaths@l(9)
.LVL405:
	.loc 1 1621 0
	cmpwi 7,0,0
	beq- 7,.L391
	.loc 1 1623 0
	lis 4,.LC38@ha
	mr 3,30
	la 4,.LC38@l(4)
	bl strcmp
.LVL406:
	cmpwi 7,3,0
	beq- 7,.L413
.L391:
	.loc 1 1627 0
	lis 3,.LC39@ha
	mr 4,30
	la 3,.LC39@l(3)
	crxor 6,6,6
	bl Sys_Printf
	.loc 1 1628 0
	cmpwi 7,29,0
	beq- 7,.L392
	.loc 1 1672 0
	lis 26,.LC33@ha
	.loc 1 1635 0
	li 27,0
	.loc 1 1672 0
	la 26,.LC33@l(26)
.LVL407:
.L410:
	.loc 1 1631 0
	lwz 31,128(29)
	cmpwi 7,31,0
	beq- 7,.L393
.LVL408:
	.loc 1 1635 0
	lwz 22,132(31)
	stw 27,8(1)
	cmpwi 7,22,0
	ble- 7,.L394
	lwz 23,136(31)
	li 24,0
	b .L399
.LVL409:
.L395:
	stw 24,8(1)
	beq- 6,.L394
.L399:
	.loc 1 1636 0
	mr 3,23
	mr 4,30
	bl strcmp
	.loc 1 1635 0
	addi 24,24,1
	.loc 1 1636 0
	cmpwi 7,3,0
	.loc 1 1635 0
	cmpw 6,24,22
	addi 23,23,72
	.loc 1 1636 0
	bne+ 7,.L395
	.loc 1 1638 0
	lis 3,.LC40@ha
	mr 4,31
	la 3,.LC40@l(3)
	mr 5,30
	crxor 6,6,6
	bl Sys_Printf
	.loc 1 1639 0
	beq- 4,.L396
	.loc 1 1642 0
	lwz 0,8(1)
	.loc 1 1641 0
	lwz 11,128(31)
	.loc 1 1642 0
	lwz 9,136(31)
	mulli 0,0,72
	.loc 1 1641 0
	stw 11,0(28)
	.loc 1 1642 0
	add 9,9,0
	lwz 3,128(31)
	lwz 4,64(9)
	bl Sys_FileSeek
.L397:
	.loc 1 1650 0
	lwz 0,8(1)
	lwz 9,136(31)
	mulli 0,0,72
	add 9,9,0
	lwz 3,68(9)
	lis 9,com_filesize@ha
	stw 3,com_filesize@l(9)
.LVL410:
.L398:
	.loc 1 1727 0
	lwz 0,332(1)
	lwz 12,284(1)
	mtlr 0
	lwz 22,288(1)
	lwz 23,292(1)
	mtcrf 8,12
	lwz 24,296(1)
	lwz 25,300(1)
.LVL411:
	lwz 26,304(1)
	lwz 27,308(1)
	lwz 28,312(1)
.LVL412:
	lwz 29,316(1)
.LVL413:
	lwz 30,320(1)
.LVL414:
	lwz 31,324(1)
	addi 1,1,328
	.cfi_remember_state
.LCFI77:
	.cfi_def_cfa_offset 0
	.cfi_restore 70
	.cfi_restore 31
	.cfi_restore 30
	.cfi_restore 29
	.cfi_restore 28
	.cfi_restore 27
	.cfi_restore 26
	.cfi_restore 25
	.cfi_restore 24
	.cfi_restore 23
	.cfi_restore 22
	blr
.LVL415:
.L394:
.LCFI78:
	.cfi_restore_state
	.loc 1 1628 0
	lwz 29,132(29)
.LVL416:
	cmpwi 7,29,0
	bne+ 7,.L410
.L392:
	.loc 1 1719 0
	lis 3,.LC44@ha
	mr 4,30
	la 3,.LC44@l(3)
	crxor 6,6,6
	bl Sys_Printf
	.loc 1 1721 0
	beq- 4,.L408
	.loc 1 1722 0
	li 0,-1
	stw 0,0(28)
.L409:
	.loc 1 1725 0
	li 0,-1
	lis 9,com_filesize@ha
	stw 0,com_filesize@l(9)
	.loc 1 1726 0
	li 3,-1
	b .L398
.LVL417:
.L413:
	.loc 1 1624 0
	lwz 29,132(29)
.LVL418:
	b .L391
.LVL419:
.L393:
	.loc 1 1669 0
	lbz 0,0(30)
	.loc 1 1672 0
	addi 3,1,140
	.loc 1 1669 0
	cmpwi 7,0,47
	beq- 7,.L400
	.loc 1 1672 0
	mr 4,26
	mr 5,29
	mr 6,30
	crxor 6,6,6
	bl sprintf
.L401:
	.loc 1 1678 0
	addi 3,1,140
	bl Sys_FileTime
	.loc 1 1679 0
	cmpwi 7,3,-1
	.loc 1 1678 0
	mr 31,3
.LVL420:
	.loc 1 1679 0
	beq- 7,.L394
	.loc 1 1683 0
	lis 5,com_cachedir@ha
	lbz 0,com_cachedir@l(5)
	la 5,com_cachedir@l(5)
	cmpwi 7,0,0
	bne- 7,.L402
	.loc 1 1684 0
	addi 3,1,12
.LVL421:
	addi 4,1,140
	li 5,128
	bl strncpy
.L403:
	.loc 1 1705 0
	lis 3,.LC43@ha
	addi 4,1,140
	la 3,.LC43@l(3)
	.loc 1 1706 0
	lis 31,com_filesize@ha
.LVL422:
	.loc 1 1705 0
	crxor 6,6,6
	bl Sys_Printf
	.loc 1 1706 0
	addi 3,1,140
	addi 4,1,8
	bl Sys_FileOpenRead
	stw 3,com_filesize@l(31)
	.loc 1 1707 0
	beq- 4,.L405
	.loc 1 1708 0
	lwz 0,8(1)
	stw 0,0(28)
	.loc 1 1714 0
	lwz 3,com_filesize@l(31)
.L415:
	.loc 1 1727 0
	lwz 0,332(1)
	lwz 12,284(1)
	mtlr 0
	lwz 22,288(1)
	lwz 23,292(1)
	mtcrf 8,12
	lwz 24,296(1)
	lwz 25,300(1)
.LVL423:
	lwz 26,304(1)
	lwz 27,308(1)
	lwz 28,312(1)
.LVL424:
	lwz 29,316(1)
.LVL425:
	lwz 30,320(1)
.LVL426:
	lwz 31,324(1)
	addi 1,1,328
	.cfi_remember_state
	.cfi_restore 22
	.cfi_restore 23
	.cfi_restore 24
	.cfi_restore 25
	.cfi_restore 26
	.cfi_restore 27
	.cfi_restore 28
	.cfi_restore 29
	.cfi_restore 30
	.cfi_restore 31
	.cfi_restore 70
.LCFI79:
	.cfi_def_cfa_offset 0
	blr
.LVL427:
.L400:
.LCFI80:
	.cfi_restore_state
	.loc 1 1675 0
	mr 4,30
	li 5,128
	bl strncpy
	b .L401
.LVL428:
.L388:
	.loc 1 1613 0
	bne+ 4,.L390
	.loc 1 1614 0
	lis 3,.LC37@ha
	la 3,.LC37@l(3)
	crxor 6,6,6
	bl Sys_Error
	b .L390
.LVL429:
.L396:
	.loc 1 1646 0
	lis 4,.LC41@ha
	mr 3,31
	la 4,.LC41@l(4)
	bl fopen
	.loc 1 1647 0
	cmpwi 7,3,0
	.loc 1 1646 0
	stw 3,0(25)
	.loc 1 1647 0
	beq- 7,.L397
	.loc 1 1648 0
	lwz 0,8(1)
	li 7,0
	lwz 9,136(31)
	mulli 0,0,72
	add 9,9,0
	lwz 6,64(9)
	srawi 5,6,31
	bl fseek
	b .L397
.LVL430:
.L402:
	.loc 1 1693 0
	lis 4,.LC42@ha
	addi 6,1,140
	la 4,.LC42@l(4)
	addi 3,1,12
.LVL431:
	crxor 6,6,6
	bl sprintf
	.loc 1 1697 0
	addi 3,1,12
	bl Sys_FileTime
.LVL432:
	.loc 1 1699 0
	cmpw 7,3,31
	blt- 7,.L414
.LVL433:
.L404:
	.loc 1 1701 0
	addi 3,1,140
	addi 4,1,12
	li 5,128
	bl strncpy
	b .L403
.LVL434:
.L408:
	.loc 1 1724 0
	stw 28,0(25)
	b .L409
.LVL435:
.L414:
	.loc 1 1700 0
	addi 3,1,140
.LVL436:
	addi 4,1,12
	bl COM_CopyFile
	b .L404
.LVL437:
.L405:
	.loc 1 1711 0
	lwz 3,8(1)
	bl Sys_FileClose
	.loc 1 1712 0
	lis 4,.LC41@ha
	addi 3,1,140
	la 4,.LC41@l(4)
	bl fopen
	stw 3,0(25)
	.loc 1 1714 0
	lwz 3,com_filesize@l(31)
	b .L415
	.cfi_endproc
.LFE101:
	.size	COM_FindFile, .-COM_FindFile
	.align 2
	.globl COM_FindAllExt
	.type	COM_FindAllExt, @function
COM_FindAllExt:
.LFB102:
	.loc 1 1740 0
	.cfi_startproc
.LVL438:
	mflr 0
	stwu 1,-360(1)
.LCFI81:
	.cfi_def_cfa_offset 360
	.cfi_register 65, 0
	mfcr 12
	stw 29,348(1)
	mr 29,4
	.cfi_offset 29, -12
	.cfi_register 70, 12
	stw 30,352(1)
.LBB80:
.LBB81:
	.loc 1 245 0
	li 30,0
	.cfi_offset 30, -8
.LBE81:
.LBE80:
	.loc 1 1740 0
	stw 31,356(1)
	mr 31,3
	.cfi_offset 31, -4
.LVL439:
	stw 0,364(1)
	stw 23,324(1)
	stw 24,328(1)
	stw 25,332(1)
	stw 26,336(1)
	stw 27,340(1)
	stw 28,344(1)
	stw 12,320(1)
	.loc 1 1740 0
	stw 5,312(1)
.LBB83:
.LBB82:
	.loc 1 246 0
	lbz 0,0(3)
	.cfi_offset 70, -40
	.cfi_offset 28, -16
	.cfi_offset 27, -20
	.cfi_offset 26, -24
	.cfi_offset 25, -28
	.cfi_offset 24, -32
	.cfi_offset 23, -36
	.cfi_offset 65, 4
	cmpwi 7,0,0
	beq- 7,.L417
.LVL440:
.L418:
	.loc 1 247 0
	addi 30,30,1
.LVL441:
	.loc 1 246 0
	lbzx 0,31,30
	cmpwi 7,0,0
	bne+ 7,.L418
.LVL442:
.L417:
.LBE82:
.LBE83:
	.loc 1 1752 0
	lis 9,com_searchpaths@ha
	lwz 28,com_searchpaths@l(9)
.LVL443:
	.loc 1 1753 0
	cmpwi 7,28,0
	beq- 7,.L416
	.loc 1 1770 0
	lis 26,.LC33@ha
	.loc 1 1771 0
	lis 27,.LC45@ha
	cmpwi 4,30,0
	.loc 1 1770 0
	la 26,.LC33@l(26)
.LBB84:
.LBB85:
	.loc 1 1739 0
	addi 30,30,-1
.LBE85:
.LBE84:
	.loc 1 1771 0
	la 27,.LC45@l(27)
.LVL444:
.L434:
	.loc 1 1756 0
	lwz 23,128(28)
	cmpwi 7,23,0
	beq- 7,.L420
.LVL445:
	.loc 1 1760 0 discriminator 1
	lwz 8,132(23)
	cmpwi 7,8,0
	ble- 7,.L421
	.loc 1 1760 0 is_stmt 0
	li 25,0
	li 24,0
.LVL446:
.L429:
	.loc 1 1761 0 is_stmt 1
	lwz 9,136(23)
	add 3,9,25
.LVL447:
.LBB88:
.LBB86:
	.loc 1 300 0
	beq- 4,.L422
	.loc 1 302 0
	lbzx 9,9,25
	lbz 0,0(31)
	cmpw 7,0,9
	bne- 7,.L423
	.loc 1 304 0
	cmpwi 7,0,0
	beq- 7,.L422
.LBE86:
.LBE88:
	.loc 1 1739 0
	addi 0,30,1
	li 9,0
	mtctr 0
	b .L424
.LVL448:
.L425:
.LBB89:
.LBB87:
	.loc 1 302 0
	lbz 0,1(11)
	addi 9,9,1
	lbz 11,1(10)
	.loc 1 304 0
	cmpwi 6,0,0
	.loc 1 302 0
	cmpw 7,0,11
	bne- 7,.L423
	.loc 1 304 0
	beq- 6,.L422
.LVL449:
.L424:
	.loc 1 1739 0
	add 10,3,9
	add 11,31,9
	.loc 1 300 0
	bdnz .L425
.L422:
.LBE87:
.LBE89:
	.loc 1 1762 0
	bl COM_FileExtension
.LVL450:
.LBB90:
.LBB91:
	.loc 1 284 0
	lbz 0,0(29)
	lbz 9,0(3)
	cmpw 7,0,9
	bne- 7,.L441
	.loc 1 286 0
	cmpwi 7,0,0
	mr 9,29
	bne+ 7,.L427
	b .L426
.LVL451:
.L428:
	beq- 6,.L426
.L427:
	.loc 1 284 0
	lbzu 0,1(9)
	lbzu 11,1(3)
	.loc 1 286 0
	cmpwi 6,0,0
	.loc 1 284 0
	cmpw 7,0,11
	beq+ 7,.L428
.L441:
	lwz 8,132(23)
.L423:
.LBE91:
.LBE90:
	.loc 1 1760 0
	addi 24,24,1
.LVL452:
	addi 25,25,72
	cmpw 7,8,24
	bgt+ 7,.L429
.LVL453:
.L421:
	.loc 1 1753 0
	lwz 28,132(28)
.LVL454:
	cmpwi 7,28,0
	bne+ 7,.L434
.L416:
	.loc 1 1790 0
	lwz 0,364(1)
	lwz 12,320(1)
	mtlr 0
	lwz 23,324(1)
	lwz 24,328(1)
	mtcrf 8,12
	lwz 25,332(1)
	lwz 26,336(1)
	lwz 27,340(1)
	lwz 28,344(1)
.LVL455:
	lwz 29,348(1)
.LVL456:
	lwz 30,352(1)
	lwz 31,356(1)
.LVL457:
	addi 1,1,360
	.cfi_remember_state
.LCFI82:
	.cfi_def_cfa_offset 0
	.cfi_restore 70
	.cfi_restore 31
	.cfi_restore 30
	.cfi_restore 29
	.cfi_restore 28
	.cfi_restore 27
	.cfi_restore 26
	.cfi_restore 25
	.cfi_restore 24
	.cfi_restore 23
	blr
.LVL458:
.L426:
.LCFI83:
	.cfi_restore_state
	.loc 1 1765 0
	lwz 3,136(23)
	lwz 0,312(1)
	add 3,3,25
	mtctr 0
	bctrl
	lwz 8,132(23)
	b .L423
.L420:
	.loc 1 1770 0
	mr 6,31
	mr 4,26
	mr 5,28
	addi 3,1,40
	crxor 6,6,6
	bl sprintf
	.loc 1 1771 0
	mr 4,27
	mr 5,29
	addi 3,1,8
	crxor 6,6,6
	bl sprintf
	.loc 1 1780 0
	addi 3,1,40
	addi 4,1,8
	addi 5,1,168
	bl Sys_Findfirst
	cmpwi 7,3,0
	beq- 7,.L421
.L435:
	.loc 1 1784 0 discriminator 1
	lwz 0,312(1)
	addi 3,1,168
	mtctr 0
	bctrl
	.loc 1 1785 0 discriminator 1
	addi 3,1,168
	bl Sys_Findnext
	cmpwi 7,3,0
	bne+ 7,.L435
	.loc 1 1753 0
	lwz 28,132(28)
.LVL459:
	cmpwi 7,28,0
	bne+ 7,.L434
	b .L416
	.cfi_endproc
.LFE102:
	.size	COM_FindAllExt, .-COM_FindAllExt
	.align 2
	.globl COM_OpenFile
	.type	COM_OpenFile, @function
COM_OpenFile:
.LFB103:
	.loc 1 1804 0
	.cfi_startproc
.LVL460:
	.loc 1 1805 0
	li 5,0
	.loc 1 1806 0
	.loc 1 1805 0
	b COM_FindFile
.LVL461:
.LVL462:
	.cfi_endproc
.LFE103:
	.size	COM_OpenFile, .-COM_OpenFile
	.align 2
	.globl COM_FOpenFile
	.type	COM_FOpenFile, @function
COM_FOpenFile:
.LFB104:
	.loc 1 1818 0
	.cfi_startproc
.LVL463:
	.loc 1 1818 0
	mr 5,4
	.loc 1 1819 0
	li 4,0
.LVL464:
	.loc 1 1820 0
	.loc 1 1819 0
	b COM_FindFile
.LVL465:
.LVL466:
	.cfi_endproc
.LFE104:
	.size	COM_FOpenFile, .-COM_FOpenFile
	.align 2
	.globl COM_CloseFile
	.type	COM_CloseFile, @function
COM_CloseFile:
.LFB105:
	.loc 1 1832 0
	.cfi_startproc
.LVL467:
	.loc 1 1835 0
	lis 9,com_searchpaths@ha
	.loc 1 1832 0
	mflr 0
	.loc 1 1835 0
	lwz 9,com_searchpaths@l(9)
.LVL468:
	.loc 1 1832 0
	stwu 1,-8(1)
.LCFI84:
	.cfi_def_cfa_offset 8
	.cfi_register 65, 0
	.loc 1 1835 0
	cmpwi 7,9,0
	.loc 1 1832 0
	stw 0,12(1)
	.loc 1 1835 0
	beq- 7,.L445
	.cfi_offset 65, 4
.LVL469:
.L449:
	.loc 1 1836 0
	lwz 11,128(9)
	cmpwi 7,11,0
	beq- 7,.L446
	.loc 1 1836 0 is_stmt 0 discriminator 1
	lwz 0,128(11)
	cmpw 7,0,3
	beq- 7,.L444
.L446:
	.loc 1 1835 0 is_stmt 1
	lwz 9,132(9)
.LVL470:
	cmpwi 7,9,0
	bne+ 7,.L449
.L445:
	.loc 1 1839 0
	bl Sys_FileClose
.LVL471:
.L444:
	.loc 1 1840 0
	lwz 0,12(1)
	addi 1,1,8
.LCFI85:
	.cfi_def_cfa_offset 0
	mtlr 0
	blr
	.cfi_endproc
.LFE105:
	.size	COM_CloseFile, .-COM_CloseFile
	.align 2
	.globl COM_CheckRegistered
	.type	COM_CheckRegistered, @function
COM_CheckRegistered:
.LFB92:
	.loc 1 1180 0
	.cfi_startproc
	stwu 1,-328(1)
.LCFI86:
	.cfi_def_cfa_offset 328
	mflr 0
	stw 25,300(1)
	.loc 1 1185 0
	lis 25,.LC46@ha
	.cfi_offset 25, -28
	.cfi_register 65, 0
	.loc 1 1180 0
	stw 26,304(1)
	.loc 1 1185 0
	lis 26,com_cmdline@ha
	.cfi_offset 26, -24
	.loc 1 1180 0
	stw 27,308(1)
	.loc 1 1185 0
	la 25,.LC46@l(25)
	.loc 1 1180 0
	stw 29,316(1)
	.loc 1 1185 0
	la 26,com_cmdline@l(26)
	.loc 1 1186 0
	lis 29,.LC47@ha
	.cfi_offset 29, -12
	.cfi_offset 27, -20
	lis 27,.LC48@ha
	.loc 1 1185 0
	mr 3,25
	mr 4,26
	.loc 1 1186 0
	la 29,.LC47@l(29)
	la 27,.LC48@l(27)
	.loc 1 1180 0
	stw 0,332(1)
	stw 28,312(1)
	.loc 1 1187 0
	li 28,1
	.cfi_offset 28, -16
	.cfi_offset 65, 4
	.loc 1 1180 0
	stw 30,320(1)
	.loc 1 1187 0
	lis 30,static_registered@ha
	.cfi_offset 30, -8
	.loc 1 1180 0
	stw 21,284(1)
	stw 22,288(1)
	stw 23,292(1)
	stw 24,296(1)
	stw 31,324(1)
	.loc 1 1185 0
	.cfi_offset 31, -4
	.cfi_offset 24, -32
	.cfi_offset 23, -36
	.cfi_offset 22, -40
	.cfi_offset 21, -44
	bl Cvar_Set
	.loc 1 1186 0
	mr 3,29
	mr 4,27
	bl Cvar_Set
	.loc 1 1189 0
	lis 3,.LC49@ha
	la 3,.LC49@l(3)
	addi 4,1,8
	.loc 1 1187 0
	stw 28,static_registered@l(30)
	.loc 1 1189 0
	bl COM_OpenFile
.LVL472:
	.loc 1 1192 0
	lwz 3,8(1)
	.loc 1 1190 0
	li 0,0
	stw 0,static_registered@l(30)
	.loc 1 1192 0
	cmpwi 7,3,-1
	beq- 7,.L457
	.loc 1 1206 0
	addi 31,1,12
	li 5,256
	mr 4,31
	lis 21,.LANCHOR2@ha
	bl Sys_FileRead
	.loc 1 1207 0
	lwz 3,8(1)
	lis 22,BigShort@ha
	.loc 1 1212 0
	lis 23,.LC52@ha
	.loc 1 1207 0
	bl COM_CloseFile
	la 21,.LANCHOR2@l(21)
	.loc 1 1208 0
	stw 28,static_registered@l(30)
.LVL473:
	la 22,BigShort@l(22)
	li 28,0
	.loc 1 1212 0
	la 23,.LC52@l(23)
.LVL474:
.L455:
	.loc 1 1211 0
	lwz 0,0(22)
	lhax 3,31,28
	mtctr 0
	lhzx 24,21,28
	bctrl
	rlwinm 3,3,0,0xffff
	cmpw 7,24,3
	.loc 1 1212 0
	mr 3,23
	.loc 1 1211 0
	beq- 7,.L454
	.loc 1 1212 0
	crxor 6,6,6
	bl Sys_Error
.L454:
	.loc 1 1210 0
	cmpwi 7,28,254
	addi 28,28,2
	bne+ 7,.L455
	.loc 1 1214 0
	mr 3,25
	mr 4,26
	bl Cvar_Set
	.loc 1 1215 0
	mr 3,29
	mr 4,27
	bl Cvar_Set
	.loc 1 1217 0
	lis 3,.LC53@ha
	.loc 1 1216 0
	li 0,1
	.loc 1 1217 0
	la 3,.LC53@l(3)
	.loc 1 1216 0
	stw 0,static_registered@l(30)
	.loc 1 1217 0
	crxor 6,6,6
	bl Con_Printf
	.loc 1 1220 0
	lwz 0,332(1)
	lwz 21,284(1)
	mtlr 0
	lwz 22,288(1)
	lwz 23,292(1)
	lwz 24,296(1)
	lwz 25,300(1)
	lwz 26,304(1)
	lwz 27,308(1)
	lwz 28,312(1)
	lwz 29,316(1)
	lwz 30,320(1)
	lwz 31,324(1)
	addi 1,1,328
	.cfi_remember_state
.LCFI87:
	.cfi_def_cfa_offset 0
	.cfi_restore 31
	.cfi_restore 30
	.cfi_restore 29
	.cfi_restore 28
	.cfi_restore 27
	.cfi_restore 26
	.cfi_restore 25
	.cfi_restore 24
	.cfi_restore 23
	.cfi_restore 22
	.cfi_restore 21
	blr
.L457:
.LCFI88:
	.cfi_restore_state
	.loc 1 1197 0
	lis 3,.LC50@ha
	la 3,.LC50@l(3)
	crxor 6,6,6
	bl Con_Printf
	.loc 1 1201 0
	lis 4,.LC51@ha
	mr 3,29
	la 4,.LC51@l(4)
	bl Cvar_Set
	.loc 1 1220 0
	lwz 0,332(1)
	.loc 1 1202 0
	stw 28,static_registered@l(30)
	.loc 1 1220 0
	mtlr 0
	lwz 21,284(1)
	lwz 22,288(1)
	lwz 23,292(1)
	lwz 24,296(1)
	lwz 25,300(1)
	lwz 26,304(1)
	lwz 27,308(1)
	lwz 28,312(1)
	lwz 29,316(1)
	lwz 30,320(1)
	lwz 31,324(1)
	addi 1,1,328
	.cfi_restore 21
	.cfi_restore 22
	.cfi_restore 23
	.cfi_restore 24
	.cfi_restore 25
	.cfi_restore 26
	.cfi_restore 27
	.cfi_restore 28
	.cfi_restore 29
	.cfi_restore 30
	.cfi_restore 31
.LCFI89:
	.cfi_def_cfa_offset 0
	blr
	.cfi_endproc
.LFE92:
	.size	COM_CheckRegistered, .-COM_CheckRegistered
	.align 2
	.globl COM_LoadFile
	.type	COM_LoadFile, @function
COM_LoadFile:
.LFB106:
	.loc 1 1858 0
	.cfi_startproc
.LVL475:
	stwu 1,-72(1)
.LCFI90:
	.cfi_def_cfa_offset 72
	mflr 0
	stw 28,56(1)
	mr 28,4
	.cfi_offset 28, -16
	.cfi_register 65, 0
	.loc 1 1869 0
	addi 4,1,8
.LVL476:
	.loc 1 1858 0
	stw 0,76(1)
	stw 29,60(1)
	mr 29,3
	.cfi_offset 29, -12
	.cfi_offset 65, 4
	stw 30,64(1)
	stw 31,68(1)
	.loc 1 1869 0
	.cfi_offset 31, -4
	.cfi_offset 30, -8
	bl COM_OpenFile
.LVL477:
	.loc 1 1870 0
	lwz 0,8(1)
	.loc 1 1869 0
	mr 30,3
.LVL478:
	.loc 1 1871 0
	li 31,0
	.loc 1 1870 0
	cmpwi 7,0,-1
	beq- 7,.L459
	.loc 1 1874 0
	mr 3,29
.LVL479:
	addi 4,1,12
	bl COM_FileBase
	.loc 1 1876 0
	cmpwi 7,28,1
	beq- 7,.L472
	.loc 1 1878 0
	cmpwi 7,28,2
	beq- 7,.L470
	.loc 1 1880 0
	cmpwi 7,28,0
	beq- 7,.L473
	.loc 1 1882 0
	cmpwi 7,28,3
	beq- 7,.L474
	.loc 1 1884 0
	cmpwi 7,28,4
	bne- 7,.L465
	.loc 1 1886 0
	lis 9,loadsize@ha
	lwz 0,loadsize@l(9)
	cmpw 7,30,0
	bge- 7,.L470
	.loc 1 1889 0
	lis 9,loadbuf@ha
	lwz 31,loadbuf@l(9)
.LVL480:
	.loc 1 1895 0
	cmpwi 7,31,0
	beq- 7,.L467
.LVL481:
.L468:
	.loc 1 1898 0
	li 0,0
	.loc 1 1902 0
	mr 4,31
	.loc 1 1898 0
	stbx 0,31,30
	.loc 1 1902 0
	mr 5,30
	lwz 3,8(1)
	bl Sys_FileRead
	.loc 1 1903 0
	lwz 3,8(1)
	bl COM_CloseFile
.L459:
	.loc 1 1909 0
	lwz 0,76(1)
	mr 3,31
	lwz 28,56(1)
.LVL482:
	mtlr 0
	lwz 29,60(1)
.LVL483:
	lwz 30,64(1)
.LVL484:
	lwz 31,68(1)
	addi 1,1,72
	.cfi_remember_state
.LCFI91:
	.cfi_def_cfa_offset 0
	.cfi_restore 31
	.cfi_restore 30
	.cfi_restore 29
	.cfi_restore 28
	blr
.LVL485:
.L465:
.LCFI92:
	.cfi_restore_state
	.loc 1 1892 0
	lis 3,.LC54@ha
	la 3,.LC54@l(3)
	crxor 6,6,6
	bl Sys_Error
.LVL486:
.L467:
	.loc 1 1896 0
	lis 3,.LC55@ha
	mr 4,29
	la 3,.LC55@l(3)
	li 31,0
	crxor 6,6,6
	bl Sys_Error
	b .L468
.LVL487:
.L473:
	.loc 1 1881 0
	addi 3,30,1
	bl Z_Malloc
	mr 31,3
.LVL488:
.L461:
	.loc 1 1895 0
	cmpwi 7,31,0
	beq- 7,.L467
	.loc 1 1898 0
	li 0,0
	.loc 1 1902 0
	mr 4,31
	.loc 1 1898 0
	stbx 0,31,30
	.loc 1 1902 0
	mr 5,30
	lwz 3,8(1)
.LVL489:
	bl Sys_FileRead
.LVL490:
	.loc 1 1903 0
	lwz 3,8(1)
	bl COM_CloseFile
	b .L459
.LVL491:
.L470:
	.loc 1 1887 0
	addi 3,30,1
	bl Hunk_TempAlloc
	mr 31,3
.LVL492:
	b .L461
.LVL493:
.L472:
	.loc 1 1877 0
	addi 3,30,1
	addi 4,1,12
	bl Hunk_AllocName
	mr 31,3
.LVL494:
	b .L461
.LVL495:
.L474:
	.loc 1 1883 0
	lis 9,loadcache@ha
	addi 4,30,1
	lwz 3,loadcache@l(9)
	addi 5,1,12
	bl Cache_Alloc
	mr 31,3
.LVL496:
	b .L461
	.cfi_endproc
.LFE106:
	.size	COM_LoadFile, .-COM_LoadFile
	.align 2
	.globl COM_LoadHunkFile
	.type	COM_LoadHunkFile, @function
COM_LoadHunkFile:
.LFB107:
	.loc 1 1914 0
	.cfi_startproc
.LVL497:
	.loc 1 1915 0
	li 4,1
	.loc 1 1916 0
	.loc 1 1915 0
	b COM_LoadFile
.LVL498:
	.cfi_endproc
.LFE107:
	.size	COM_LoadHunkFile, .-COM_LoadHunkFile
	.align 2
	.globl COM_LoadTempFile
	.type	COM_LoadTempFile, @function
COM_LoadTempFile:
.LFB108:
	.loc 1 1920 0
	.cfi_startproc
.LVL499:
	.loc 1 1921 0
	li 4,2
	.loc 1 1922 0
	.loc 1 1921 0
	b COM_LoadFile
.LVL500:
	.cfi_endproc
.LFE108:
	.size	COM_LoadTempFile, .-COM_LoadTempFile
	.align 2
	.globl COM_LoadCacheFile
	.type	COM_LoadCacheFile, @function
COM_LoadCacheFile:
.LFB109:
	.loc 1 1926 0
	.cfi_startproc
.LVL501:
	.loc 1 1927 0
	lis 9,loadcache@ha
	.loc 1 1929 0
	.loc 1 1927 0
	stw 4,loadcache@l(9)
	.loc 1 1928 0
	li 4,3
.LVL502:
	b COM_LoadFile
.LVL503:
.LVL504:
	.cfi_endproc
.LFE109:
	.size	COM_LoadCacheFile, .-COM_LoadCacheFile
	.align 2
	.globl COM_LoadStackFile
	.type	COM_LoadStackFile, @function
COM_LoadStackFile:
.LFB110:
	.loc 1 1934 0
	.cfi_startproc
.LVL505:
	.loc 1 1937 0
	lis 9,loadbuf@ha
	.loc 1 1942 0
	.loc 1 1937 0
	stw 4,loadbuf@l(9)
	.loc 1 1938 0
	lis 9,loadsize@ha
	.loc 1 1939 0
	li 4,4
.LVL506:
	.loc 1 1938 0
	stw 5,loadsize@l(9)
	.loc 1 1939 0
	b COM_LoadFile
.LVL507:
.LVL508:
.LVL509:
	.cfi_endproc
.LFE110:
	.size	COM_LoadStackFile, .-COM_LoadStackFile
	.align 2
	.globl COM_LoadPackFile
	.type	COM_LoadPackFile, @function
COM_LoadPackFile:
.LFB111:
	.loc 1 1958 0
	.cfi_startproc
.LVL510:
	lis 0,0xfffd
	mr 12,1
	ori 0,0,65464
	.loc 1 1968 0
	mr 4,3
	.loc 1 1958 0
	stwux 1,1,0
.LCFI93:
	.cfi_def_cfa_offset 131144
	mflr 0
	stw 25,-28(12)
	stw 0,4(12)
	mr 25,3
	.cfi_offset 25, -28
	.cfi_offset 65, 4
	stw 24,-32(12)
	.loc 1 1968 0
	lis 3,.LC56@ha
.LVL511:
	.loc 1 1958 0
	stw 26,-24(12)
	.loc 1 1968 0
	la 3,.LC56@l(3)
	.loc 1 1958 0
	stw 27,-20(12)
	stw 28,-16(12)
	stw 29,-12(12)
	stw 30,-8(12)
	stw 31,-4(12)
	.loc 1 1968 0
	.cfi_offset 31, -4
	.cfi_offset 30, -8
	.cfi_offset 29, -12
	.cfi_offset 28, -16
	.cfi_offset 27, -20
	.cfi_offset 26, -24
	.cfi_offset 24, -32
	crxor 6,6,6
	bl Sys_Printf
.LVL512:
	.loc 1 1970 0
	mr 3,25
	addi 4,1,12
	bl Sys_FileOpenRead
	cmpwi 7,3,-1
	beq- 7,.L493
.LVL513:
	.loc 1 1976 0
	lwz 3,12(1)
	addi 4,1,16
	li 5,12
	bl Sys_FileRead
	.loc 1 1977 0
	lwz 9,16(1)
	xoris 0,9,0x5041
	cmpwi 7,0,17227
	beq 7,.L482
	.loc 1 1979 0
	lis 3,.LC58@ha
	mr 4,25
	la 3,.LC58@l(3)
	crxor 6,6,6
	bl Sys_Error
.L482:
	.loc 1 1980 0
	lis 31,LittleLong@ha
	lwz 3,20(1)
	lwz 0,LittleLong@l(31)
	mtctr 0
	bctrl
	.loc 1 1981 0
	lwz 0,LittleLong@l(31)
	.loc 1 1980 0
	stw 3,20(1)
	.loc 1 1981 0
	mtctr 0
	lwz 3,24(1)
	bctrl
	.loc 1 1984 0
	srwi 26,3,6
.LVL514:
	.loc 1 1981 0
	stw 3,24(1)
	.loc 1 1986 0
	cmpwi 7,26,2048
	bgt- 7,.L494
	.loc 1 1990 0
	cmpwi 7,26,339
	beq- 7,.L485
.L484:
	.loc 1 1991 0
	li 0,1
	lis 9,com_modified@ha
	stb 0,com_modified@l(9)
.L485:
	.loc 1 1993 0
	lis 3,.LC60@ha
	.loc 1 1998 0
	addi 27,1,28
	.loc 1 1993 0
	la 3,.LC60@l(3)
	crxor 6,6,6
	bl Sys_Printf
	.loc 1 1995 0
	mulli 3,26,72
	lis 4,.LC61@ha
	la 4,.LC61@l(4)
	bl Hunk_AllocName
	.loc 1 1997 0
	lwz 4,20(1)
	.loc 1 1995 0
	mr 24,3
.LVL515:
	.loc 1 1997 0
	lwz 3,12(1)
.LVL516:
	bl Sys_FileSeek
	.loc 1 1998 0
	lwz 5,24(1)
	lwz 3,12(1)
	mr 4,27
	bl Sys_FileRead
	.loc 1 2001 0
	addi 3,1,8
	bl CRC_Init
.LVL517:
	.loc 1 2002 0
	lwz 0,24(1)
	cmpwi 7,0,0
	ble- 7,.L486
	li 31,0
.LVL518:
.L487:
	.loc 1 2003 0 discriminator 2
	lbzx 4,27,31
	addi 3,1,8
	.loc 1 2002 0 discriminator 2
	addi 31,31,1
	.loc 1 2003 0 discriminator 2
	bl CRC_ProcessByte
.LVL519:
	.loc 1 2002 0 discriminator 2
	lwz 0,24(1)
	cmpw 7,0,31
	bgt+ 7,.L487
.LVL520:
.L486:
	.loc 1 2004 0
	lhz 9,8(1)
.LVL521:
	xoris 0,9,0xffff
.LVL522:
	cmpwi 7,0,-32555
	beq 7,.L488
	.loc 1 2005 0
	li 0,1
	lis 9,com_modified@ha
.LVL523:
	stb 0,com_modified@l(9)
.LVL524:
.L488:
	.loc 1 2009 0 discriminator 1
	cmpwi 7,26,0
	beq- 7,.L489
	lis 28,LittleLong@ha
	.loc 1 2009 0 is_stmt 0
	mr 31,24
	addi 29,1,84
	li 30,0
	la 28,LittleLong@l(28)
.LVL525:
.L490:
	.loc 1 2011 0 is_stmt 1 discriminator 2
	slwi 4,30,6
	li 5,64
	add 4,27,4
	mr 3,31
	bl strncpy
.LVL526:
	.loc 1 2012 0 discriminator 2
	lwz 0,0(28)
	lwz 3,0(29)
	.loc 1 2009 0 discriminator 2
	addi 30,30,1
	.loc 1 2012 0 discriminator 2
	mtctr 0
	bctrl
	.loc 1 2013 0 discriminator 2
	lwz 0,0(28)
	.loc 1 2012 0 discriminator 2
	stw 3,64(31)
	.loc 1 2013 0 discriminator 2
	mtctr 0
	lwz 3,4(29)
	.loc 1 2009 0 discriminator 2
	addi 29,29,64
	.loc 1 2013 0 discriminator 2
	bctrl
.LVL527:
	.loc 1 2009 0 discriminator 2
	cmpw 7,26,30
	.loc 1 2013 0 discriminator 2
	stw 3,68(31)
	.loc 1 2009 0 discriminator 2
	addi 31,31,72
	bne+ 7,.L490
.LVL528:
.L489:
	.loc 1 2016 0
	lis 3,.LC62@ha
	la 3,.LC62@l(3)
	crxor 6,6,6
	bl Sys_Printf
.LVL529:
	.loc 1 2018 0
	li 3,140
	bl Hunk_Alloc
	.loc 1 2019 0
	mr 4,25
	li 5,128
	.loc 1 2018 0
	mr 31,3
.LVL530:
	.loc 1 2019 0
	bl strncpy
.LVL531:
	.loc 1 2020 0
	lwz 0,12(1)
	.loc 1 2024 0
	lis 3,.LC63@ha
	.loc 1 2021 0
	stw 26,132(31)
	.loc 1 2020 0
	stw 0,128(31)
	.loc 1 2024 0
	la 3,.LC63@l(3)
	.loc 1 2022 0
	stw 24,136(31)
	.loc 1 2024 0
	mr 4,25
	mr 5,26
	crxor 6,6,6
	bl Con_Printf
.LVL532:
.L481:
	.loc 1 2026 0
	lwz 11,0(1)
	mr 3,31
	lwz 0,4(11)
	lwz 24,-32(11)
	mtlr 0
	lwz 25,-28(11)
.LVL533:
	lwz 26,-24(11)
	lwz 27,-20(11)
	lwz 28,-16(11)
	lwz 29,-12(11)
	lwz 30,-8(11)
	lwz 31,-4(11)
	mr 1,11
	.cfi_remember_state
.LCFI94:
	.cfi_def_cfa_offset 0
	.cfi_restore 31
	.cfi_restore 30
	.cfi_restore 29
	.cfi_restore 28
	.cfi_restore 27
	.cfi_restore 26
	.cfi_restore 25
	.cfi_restore 24
	blr
.LVL534:
.L494:
.LCFI95:
	.cfi_restore_state
	.loc 1 1987 0
	lis 3,.LC59@ha
	mr 4,25
	la 3,.LC59@l(3)
	mr 5,26
	crxor 6,6,6
	bl Sys_Error
	b .L484
.LVL535:
.L493:
	.loc 1 1972 0
	lis 3,.LC57@ha
	mr 4,25
	la 3,.LC57@l(3)
	.loc 1 1973 0
	li 31,0
	.loc 1 1972 0
	crxor 6,6,6
	bl Con_Printf
	.loc 1 1973 0
	b .L481
	.cfi_endproc
.LFE111:
	.size	COM_LoadPackFile, .-COM_LoadPackFile
	.align 2
	.globl COM_AddGameDirectory
	.type	COM_AddGameDirectory, @function
COM_AddGameDirectory:
.LFB112:
	.loc 1 2041 0
	.cfi_startproc
.LVL536:
	mflr 0
	stwu 1,-184(1)
.LCFI96:
	.cfi_def_cfa_offset 184
	.cfi_register 65, 0
	stw 27,164(1)
	mr 27,3
	.cfi_offset 27, -20
	stw 0,188(1)
	stw 30,176(1)
	lis 30,com_searchpaths@ha
	.cfi_offset 30, -8
	.cfi_offset 65, 4
	stw 25,156(1)
	stw 26,160(1)
	stw 28,168(1)
	stw 29,172(1)
	stw 31,180(1)
	.loc 1 2047 0
	.cfi_offset 31, -4
	.cfi_offset 29, -12
	.cfi_offset 28, -16
	.cfi_offset 26, -24
	.cfi_offset 25, -28
	bl Sys_mkdir
.LVL537:
	.loc 1 2050 0
	lis 3,com_gamedir@ha
	mr 4,27
	li 5,128
	la 3,com_gamedir@l(3)
	bl strncpy
	.loc 1 2055 0
	lis 4,.LC64@ha
	mr 3,27
	la 4,.LC64@l(4)
	addi 5,1,8
	bl Sys_Findfirst
	cmpwi 7,3,0
	beq- 7,.L496
	.loc 1 2065 0
	lis 28,.LC65@ha
	.loc 1 2055 0
	li 29,0
	.loc 1 2065 0
	la 28,.LC65@l(28)
.LVL538:
.L504:
	.loc 1 2059 0
	addi 3,1,8
	bl COM_LoadPackFile
.LVL539:
	.loc 1 2060 0
	mr. 25,3
	beq- 0,.L497
.LVL540:
.LBB92:
.LBB93:
	.loc 1 933 0
	lbz 0,8(1)
	addi 26,1,8
.LVL541:
	cmpwi 7,0,0
	beq- 7,.L498
	mr 9,26
	b .L501
.LVL542:
.L500:
	lbz 0,1(9)
	.loc 1 937 0
	mr 9,11
	.loc 1 933 0
	cmpwi 7,0,0
	beq- 7,.L498
.LVL543:
.L501:
	.loc 1 935 0
	cmpwi 7,0,47
	addi 11,9,1
	bne+ 7,.L500
	.loc 1 933 0
	lbz 0,1(9)
	.loc 1 936 0
	mr 26,11
.LVL544:
	.loc 1 937 0
	mr 9,11
	.loc 1 933 0
	cmpwi 7,0,0
	bne+ 7,.L501
.LVL545:
.L498:
.LBE93:
.LBE92:
	.loc 1 2063 0
	li 3,136
.LVL546:
	bl Hunk_Alloc
	.loc 1 2065 0
	mr 4,28
	.loc 1 2064 0
	stw 25,128(3)
	.loc 1 2063 0
	mr 31,3
.LVL547:
	.loc 1 2065 0
	li 5,3
	mr 3,26
.LVL548:
	bl Q_strncasecmp
	cmpwi 7,3,0
	beq- 7,.L502
	.loc 1 2067 0
	stw 29,132(31)
.LVL549:
	mr 29,31
.LVL550:
.L503:
	.loc 1 2075 0
	addi 3,1,8
	bl Sys_Findnext
	cmpwi 7,3,0
	bne+ 7,.L504
.LVL551:
.L497:
	.loc 1 2078 0
	cmpwi 7,29,0
	mr 9,29
	bne+ 7,.L505
.LVL552:
	b .L496
.LVL553:
.L508:
	.loc 1 2080 0
	mr 9,0
.LVL554:
.L505:
	.loc 1 2080 0 is_stmt 0 discriminator 1
	lwz 0,132(9)
	cmpwi 7,0,0
	bne+ 7,.L508
	.loc 1 2082 0 is_stmt 1
	lwz 0,com_searchpaths@l(30)
	.loc 1 2083 0
	stw 29,com_searchpaths@l(30)
	.loc 1 2082 0
	stw 0,132(9)
.LVL555:
.L496:
	.loc 1 2088 0
	li 3,136
	bl Hunk_Alloc
	.loc 1 2089 0
	mr 4,27
	li 5,128
	.loc 1 2088 0
	mr 31,3
.LVL556:
	.loc 1 2089 0
	bl strncpy
.LVL557:
	.loc 1 2090 0
	lwz 0,com_searchpaths@l(30)
	.loc 1 2096 0
	lwz 25,156(1)
	.loc 1 2090 0
	stw 0,132(31)
	.loc 1 2096 0
	lwz 0,188(1)
	.loc 1 2091 0
	stw 31,com_searchpaths@l(30)
	.loc 1 2096 0
	mtlr 0
	lwz 26,160(1)
	lwz 27,164(1)
.LVL558:
	lwz 28,168(1)
	lwz 29,172(1)
	lwz 30,176(1)
	lwz 31,180(1)
.LVL559:
	addi 1,1,184
	.cfi_remember_state
.LCFI97:
	.cfi_def_cfa_offset 0
	.cfi_restore 31
	.cfi_restore 30
	.cfi_restore 29
	.cfi_restore 28
	.cfi_restore 27
	.cfi_restore 26
	.cfi_restore 25
	blr
.LVL560:
.L502:
.LCFI98:
	.cfi_restore_state
	.loc 1 2071 0
	lwz 0,com_searchpaths@l(30)
	.loc 1 2072 0
	stw 31,com_searchpaths@l(30)
	.loc 1 2071 0
	stw 0,132(31)
	b .L503
	.cfi_endproc
.LFE112:
	.size	COM_AddGameDirectory, .-COM_AddGameDirectory
	.align 2
	.globl COM_AddGameFS
	.type	COM_AddGameFS, @function
COM_AddGameFS:
.LFB113:
	.loc 1 2111 0
	.cfi_startproc
.LVL561:
	stwu 1,-16(1)
.LCFI99:
	.cfi_def_cfa_offset 16
	mflr 0
	.loc 1 2116 0
	mr 4,3
	.loc 1 2111 0
	stw 31,12(1)
	mr 31,3
	.cfi_offset 31, -4
	.cfi_register 65, 0
	.loc 1 2116 0
	lis 3,.LC66@ha
.LVL562:
	.loc 1 2111 0
	stw 0,20(1)
	.loc 1 2116 0
	la 3,.LC66@l(3)
	.cfi_offset 65, 4
	crxor 6,6,6
	bl va
.LVL563:
	bl COM_AddGameDirectory
	.loc 1 2121 0
	lis 3,.LC67@ha
	mr 4,31
	la 3,.LC67@l(3)
	crxor 6,6,6
	bl va
	bl COM_AddGameDirectory
	.loc 1 2124 0
	lis 3,.LC31@ha
	la 3,.LC31@l(3)
	bl COM_CheckParm
	cmpwi 7,3,0
	bne- 7,.L515
.L512:
	.loc 1 2127 0
	lis 3,.LC32@ha
	la 3,.LC32@l(3)
	bl COM_CheckParm
	cmpwi 7,3,0
	bne- 7,.L516
.L513:
	.loc 1 2136 0
	lis 3,.LC70@ha
	la 3,.LC70@l(3)
	bl COM_CheckParm
.LVL564:
	.loc 1 2137 0
	cmpwi 0,3,0
	beq- 0,.L511
	.loc 1 2137 0 is_stmt 0 discriminator 1
	lis 9,com_argc@ha
	lwz 9,com_argc@l(9)
	addi 0,9,-1
	cmpw 7,3,0
	blt- 7,.L517
.L511:
	.loc 1 2142 0 is_stmt 1
	lwz 0,20(1)
	lwz 31,12(1)
.LVL565:
	mtlr 0
	addi 1,1,16
	.cfi_remember_state
.LCFI100:
	.cfi_def_cfa_offset 0
	.cfi_restore 31
	blr
.LVL566:
.L517:
.LCFI101:
	.cfi_restore_state
	.loc 1 2140 0
	lis 9,com_argv@ha
	addi 3,3,1
.LVL567:
	lwz 9,com_argv@l(9)
	slwi 3,3,2
.LVL568:
	.loc 1 2139 0
	li 0,1
	.loc 1 2140 0
	mr 4,31
	lwzx 5,9,3
	lis 3,.LC33@ha
	.loc 1 2139 0
	lis 9,com_modified@ha
	.loc 1 2140 0
	la 3,.LC33@l(3)
	.loc 1 2139 0
	stb 0,com_modified@l(9)
	.loc 1 2140 0
	crxor 6,6,6
	bl va
	.loc 1 2142 0
	lwz 0,20(1)
	lwz 31,12(1)
.LVL569:
	mtlr 0
	addi 1,1,16
	.cfi_remember_state
.LCFI102:
	.cfi_def_cfa_offset 0
	.cfi_restore 31
	.loc 1 2140 0
	b COM_AddGameDirectory
.LVL570:
.L516:
.LCFI103:
	.cfi_restore_state
	.loc 1 2128 0
	lis 3,.LC69@ha
	mr 4,31
	la 3,.LC69@l(3)
	crxor 6,6,6
	bl va
	bl COM_AddGameDirectory
	b .L513
.L515:
	.loc 1 2125 0
	lis 3,.LC68@ha
	mr 4,31
	la 3,.LC68@l(3)
	crxor 6,6,6
	bl va
	bl COM_AddGameDirectory
	b .L512
	.cfi_endproc
.LFE113:
	.size	COM_AddGameFS, .-COM_AddGameFS
	.align 2
	.globl COM_InitFilesystem
	.type	COM_InitFilesystem, @function
COM_InitFilesystem:
.LFB114:
	.loc 1 2155 0
	.cfi_startproc
	mflr 0
	stwu 1,-176(1)
.LCFI104:
	.cfi_def_cfa_offset 176
	.cfi_register 65, 0
	.loc 1 2167 0
	lis 3,.LC71@ha
	la 3,.LC71@l(3)
	.loc 1 2155 0
	stw 23,140(1)
	stw 0,180(1)
	stw 24,144(1)
	stw 25,148(1)
	stw 26,152(1)
	stw 27,156(1)
	stw 28,160(1)
	stw 29,164(1)
	stw 30,168(1)
	stw 31,172(1)
	.loc 1 2167 0
	.cfi_offset 31, -4
	.cfi_offset 30, -8
	.cfi_offset 29, -12
	.cfi_offset 28, -16
	.cfi_offset 27, -20
	.cfi_offset 26, -24
	.cfi_offset 25, -28
	.cfi_offset 24, -32
	.cfi_offset 65, 4
	.cfi_offset 23, -36
	bl COM_CheckParm
.LVL571:
	.loc 1 2168 0
	cmpwi 0,3,0
	beq- 0,.L519
	.loc 1 2168 0 is_stmt 0 discriminator 1
	lis 9,com_argc@ha
	lwz 9,com_argc@l(9)
	addi 0,9,-1
	cmpw 7,3,0
	blt- 7,.L534
.L519:
	.loc 1 2171 0 is_stmt 1
	lis 9,host_parms@ha
	addi 31,1,8
	lwz 4,host_parms@l(9)
	mr 3,31
.LVL572:
	li 5,128
	bl strncpy
.L520:
	.loc 1 2174 0
	mr 3,31
	bl strlen
.LVL573:
	.loc 1 2177 0
	cmpwi 0,3,0
	ble- 0,.L521
	.loc 1 2179 0
	addi 9,3,-1
	add 9,1,9
	lbz 0,8(9)
	cmpwi 7,0,92
	beq- 7,.L522
	.loc 1 2179 0 is_stmt 0 discriminator 1
	cmpwi 7,0,47
	beq- 7,.L522
.L521:
	.loc 1 2189 0 is_stmt 1
	lis 3,.LC72@ha
.LVL574:
	la 3,.LC72@l(3)
	bl COM_CheckParm
.LVL575:
	.loc 1 2190 0
	cmpwi 0,3,0
	beq- 0,.L523
	.loc 1 2190 0 is_stmt 0 discriminator 1
	lis 9,com_argc@ha
	lwz 9,com_argc@l(9)
	addi 0,9,-1
	cmpw 7,3,0
	blt- 7,.L535
.L523:
	.loc 1 2197 0 is_stmt 1
	lis 9,host_parms+4@ha
	lwz 4,host_parms+4@l(9)
	cmpwi 7,4,0
	beq- 7,.L526
.LVL576:
.L533:
	.loc 1 2198 0
	lis 3,com_cachedir@ha
	li 5,128
	la 3,com_cachedir@l(3)
	bl strncpy
.L525:
	.loc 1 2203 0
	mr 3,31
	bl COM_AddGameFS
	.loc 1 2223 0
	lis 3,.LC73@ha
	la 3,.LC73@l(3)
	bl COM_CheckParm
.LVL577:
	.loc 1 2224 0
	cmpwi 0,3,0
	beq- 0,.L527
	.loc 1 2228 0
	lis 25,com_argc@ha
	addi 29,3,1
	lwz 0,com_argc@l(25)
	.loc 1 2226 0
	lis 9,com_modified@ha
	.loc 1 2227 0
	lis 26,com_searchpaths@ha
	.loc 1 2228 0
	cmpw 7,0,29
	.loc 1 2226 0
	li 0,1
	stb 0,com_modified@l(9)
	.loc 1 2227 0
	li 0,0
	stw 0,com_searchpaths@l(26)
.LVL578:
	.loc 1 2228 0
	ble- 7,.L527
	.loc 1 2230 0
	lis 27,com_argv@ha
	slwi 28,29,2
	lwz 9,com_argv@l(27)
	lwzx 9,9,28
	cmpwi 7,9,0
	beq- 7,.L527
	lbz 0,0(9)
	cmpwi 7,0,43
	beq- 7,.L527
	cmpwi 7,0,45
	beq- 7,.L527
	.loc 1 2154 0
	addi 30,3,2
	lis 24,.LC65@ha
	.loc 1 2238 0
	lis 23,.LC74@ha
	.loc 1 2230 0
	slwi 30,30,2
	la 27,com_argv@l(27)
	la 24,.LC65@l(24)
	la 26,com_searchpaths@l(26)
	la 25,com_argc@l(25)
	.loc 1 2238 0
	la 23,.LC74@l(23)
	b .L528
.LVL579:
.L537:
	.loc 1 2236 0
	lwzx 3,9,28
.LVL580:
	bl COM_LoadPackFile
	.loc 1 2237 0
	cmpwi 7,3,0
	.loc 1 2236 0
	stw 3,128(31)
	.loc 1 2237 0
	beq- 7,.L536
.L530:
	.loc 1 2228 0
	lwz 0,0(25)
	addi 29,29,1
.LVL581:
	cmpw 7,29,0
	.loc 1 2242 0
	lwz 0,0(26)
	.loc 1 2243 0
	stw 31,0(26)
.LVL582:
	.loc 1 2242 0
	stw 0,132(31)
	.loc 1 2228 0
	bge- 7,.L527
.L531:
	.loc 1 2230 0
	lwz 9,0(27)
	addi 0,30,4
	mr 28,30
	lwzx 9,9,30
	mr 30,0
	cmpwi 7,9,0
	beq- 7,.L527
	.loc 1 2230 0 is_stmt 0 discriminator 1
	lbz 0,0(9)
	cmpwi 7,0,43
	cmpwi 6,0,45
	beq- 7,.L527
	beq- 6,.L527
.LVL583:
.L528:
	.loc 1 2233 0 is_stmt 1
	li 3,136
	bl Hunk_Alloc
	.loc 1 2234 0
	lwz 9,0(27)
	.loc 1 2233 0
	mr 31,3
.LVL584:
	.loc 1 2234 0
	lwzx 3,9,28
.LVL585:
	bl COM_FileExtension
	mr 4,24
	bl strcmp
	.loc 1 2236 0
	lwz 9,0(27)
	.loc 1 2234 0
	cmpwi 7,3,0
	.loc 1 2241 0
	li 5,128
	mr 3,31
	.loc 1 2234 0
	beq- 7,.L537
	.loc 1 2241 0
	lwzx 4,9,28
	.loc 1 2228 0
	addi 29,29,1
.LVL586:
	.loc 1 2241 0
	bl strncpy
	.loc 1 2228 0
	lwz 0,0(25)
	cmpw 7,29,0
	.loc 1 2242 0
	lwz 0,0(26)
	.loc 1 2243 0
	stw 31,0(26)
.LVL587:
	.loc 1 2242 0
	stw 0,132(31)
	.loc 1 2228 0
	blt+ 7,.L531
.LVL588:
.L527:
	.loc 1 2248 0
	lis 3,.LC75@ha
	la 3,.LC75@l(3)
	bl COM_CheckParm
	cmpwi 7,3,0
	beq- 7,.L518
	.loc 1 2249 0
	li 0,1
	lis 9,proghack@ha
	stb 0,proghack@l(9)
.L518:
	.loc 1 2250 0
	lwz 0,180(1)
	lwz 23,140(1)
	mtlr 0
	lwz 24,144(1)
	lwz 25,148(1)
	lwz 26,152(1)
	lwz 27,156(1)
	lwz 28,160(1)
	lwz 29,164(1)
	lwz 30,168(1)
	lwz 31,172(1)
	addi 1,1,176
	.cfi_remember_state
.LCFI105:
	.cfi_def_cfa_offset 0
	.cfi_restore 31
	.cfi_restore 30
	.cfi_restore 29
	.cfi_restore 28
	.cfi_restore 27
	.cfi_restore 26
	.cfi_restore 25
	.cfi_restore 24
	.cfi_restore 23
	blr
.LVL589:
.L535:
.LCFI106:
	.cfi_restore_state
	.loc 1 2192 0
	lis 9,com_argv@ha
	addi 3,3,1
.LVL590:
	lwz 9,com_argv@l(9)
	slwi 3,3,2
.LVL591:
	lwzx 4,9,3
	lbz 0,0(4)
	cmpwi 7,0,45
	bne- 7,.L533
	.loc 1 2193 0
	li 0,0
	lis 9,com_cachedir@ha
	stb 0,com_cachedir@l(9)
	b .L525
.LVL592:
.L522:
	.loc 1 2180 0
	li 0,0
	stb 0,8(9)
	b .L521
.LVL593:
.L526:
	.loc 1 2200 0
	lis 9,com_cachedir@ha
	stb 4,com_cachedir@l(9)
	b .L525
.L534:
	.loc 1 2169 0
	lis 9,com_argv@ha
	addi 3,3,1
.LVL594:
	lwz 9,com_argv@l(9)
	slwi 3,3,2
.LVL595:
	addi 31,1,8
	li 5,128
	lwzx 4,9,3
	mr 3,31
	bl strncpy
	b .L520
.LVL596:
.L536:
	.loc 1 2238 0
	lwz 9,0(27)
	mr 3,23
	lwzx 4,9,28
	crxor 6,6,6
	bl Sys_Error
	b .L530
	.cfi_endproc
.LFE114:
	.size	COM_InitFilesystem, .-COM_InitFilesystem
	.align 2
	.globl COM_Init
	.type	COM_Init, @function
COM_Init:
.LFB94:
	.loc 1 1315 0
	.cfi_startproc
.LVL597:
	mflr 0
	stwu 1,-16(1)
.LCFI107:
	.cfi_def_cfa_offset 16
	.cfi_register 65, 0
	.loc 1 1318 0
	lis 3,.LC76@ha
.LVL598:
	la 3,.LC76@l(3)
	.loc 1 1315 0
	stw 31,12(1)
	stw 0,20(1)
	.loc 1 1318 0
	.cfi_offset 65, 4
	.cfi_offset 31, -4
	crxor 6,6,6
	bl Sys_Printf
	.loc 1 1338 0
	li 0,1
	lis 9,bigendien@ha
	stb 0,bigendien@l(9)
	.loc 1 1339 0
	lis 9,ShortNoSwap@ha
	la 0,ShortNoSwap@l(9)
	lis 9,BigShort@ha
	stw 0,BigShort@l(9)
	.loc 1 1340 0
	lis 9,ShortSwap@ha
	la 0,ShortSwap@l(9)
	lis 9,LittleShort@ha
	stw 0,LittleShort@l(9)
	.loc 1 1341 0
	lis 9,LongNoSwap@ha
	la 0,LongNoSwap@l(9)
	lis 9,BigLong@ha
	stw 0,BigLong@l(9)
	.loc 1 1342 0
	lis 9,LongSwap@ha
	la 0,LongSwap@l(9)
	lis 9,LittleLong@ha
	stw 0,LittleLong@l(9)
	.loc 1 1343 0
	lis 9,FloatNoSwap@ha
	la 0,FloatNoSwap@l(9)
	.loc 1 1348 0
	lis 31,.LANCHOR2@ha
	.loc 1 1343 0
	lis 9,BigFloat@ha
	.loc 1 1348 0
	la 31,.LANCHOR2@l(31)
	.loc 1 1343 0
	stw 0,BigFloat@l(9)
	.loc 1 1344 0
	lis 9,FloatSwap@ha
	la 0,FloatSwap@l(9)
	.loc 1 1348 0
	addi 3,31,256
	.loc 1 1344 0
	lis 9,LittleFloat@ha
	stw 0,LittleFloat@l(9)
	.loc 1 1348 0
	bl Cvar_RegisterVariable
	.loc 1 1349 0
	addi 3,31,276
	bl Cvar_RegisterVariable
	.loc 1 1350 0
	lis 3,.LC77@ha
	lis 4,COM_Path_f@ha
	la 3,.LC77@l(3)
	la 4,COM_Path_f@l(4)
	bl Cmd_AddCommand
	.loc 1 1352 0
	bl COM_InitFilesystem
	.loc 1 1354 0
	lwz 0,20(1)
	lwz 31,12(1)
	mtlr 0
	addi 1,1,16
.LCFI108:
	.cfi_def_cfa_offset 0
	.cfi_restore 31
	.loc 1 1353 0
	b COM_CheckRegistered
	.cfi_endproc
.LFE94:
	.size	COM_Init, .-COM_Init
	.comm	loadsize,4,4
	.comm	loadbuf,4,4
	.comm	loadcache,4,4
	.comm	com_searchpaths,4,4
	.comm	com_gamedir,128,4
	.comm	com_cachedir,128,4
	.comm	com_filesize,4,4
	.comm	msg_badread,1,1
	.comm	msg_readcount,4,4
	.comm	LittleFloat,4,4
	.comm	BigFloat,4,4
	.comm	LittleLong,4,4
	.comm	BigLong,4,4
	.comm	LittleShort,4,4
	.comm	BigShort,4,4
	.comm	bigendien,1,1
	.globl pop
	.comm	hipnotic,1,1
	.comm	rogue,1,1
	.globl standard_quake
	.comm	com_cmdline,1024,4
	.comm	com_argv,4,4
	.comm	com_argc,4,4
	.comm	com_token,1024,4
	.globl msg_suppress_1
	.globl static_registered
	.comm	proghack,1,1
	.comm	com_modified,1,1
	.globl cmdline
	.globl registered
	.comm	causticschain,4,4
	.section	.rodata
	.align 2
	.set	.LANCHOR1,. + 0
	.type	safeargvs, @object
	.size	safeargvs, 28
safeargvs:
	.long	.LC78
	.long	.LC79
	.long	.LC80
	.long	.LC81
	.long	.LC82
	.long	.LC83
	.long	.LC84
	.section	.rodata.cst4,"aM",@progbits,4
	.align 2
.LC5:
	.4byte	1501560836
.LC7:
	.4byte	1098907648
.LC9:
	.4byte	1111490560
.LC11:
	.4byte	1120010240
.LC13:
	.4byte	1092616192
.LC15:
	.4byte	1115815936
.LC16:
	.4byte	1040187392
.LC17:
	.4byte	-1078722560
.LC18:
	.4byte	1068761088
.LC23:
	.4byte	1090519040
.LC24:
	.4byte	1060506465
.LC25:
	.4byte	1056964608
.LC26:
	.4byte	0
	.section	.rodata.cst8,"aM",@progbits,8
	.align 3
.LC3:
	.4byte	0
	.4byte	0
	.section	".data"
	.align 2
	.set	.LANCHOR2,. + 0
	.type	pop, @object
	.size	pop, 256
pop:
	.short	0
	.short	0
	.short	0
	.short	0
	.short	0
	.short	0
	.short	0
	.short	0
	.short	0
	.short	0
	.short	26112
	.short	0
	.short	0
	.short	0
	.short	26112
	.short	0
	.short	0
	.short	102
	.short	0
	.short	0
	.short	0
	.short	0
	.short	103
	.short	0
	.short	0
	.short	26213
	.short	0
	.short	0
	.short	0
	.short	0
	.short	101
	.short	26112
	.short	99
	.short	25953
	.short	0
	.short	0
	.short	0
	.short	0
	.short	97
	.short	25955
	.short	100
	.short	25953
	.short	0
	.short	0
	.short	0
	.short	0
	.short	97
	.short	25956
	.short	100
	.short	25956
	.short	0
	.short	25705
	.short	26985
	.short	25600
	.short	100
	.short	25956
	.short	99
	.short	25960
	.short	25088
	.short	100
	.short	26724
	.short	0
	.short	25192
	.short	25955
	.short	0
	.short	25959
	.short	26979
	.short	100
	.short	26468
	.short	99
	.short	26983
	.short	25856
	.short	0
	.short	25190
	.short	26473
	.short	27240
	.short	26472
	.short	27241
	.short	26470
	.short	25088
	.short	0
	.short	98
	.short	25958
	.short	26214
	.short	26214
	.short	26214
	.short	25954
	.short	0
	.short	0
	.short	0
	.short	98
	.short	25444
	.short	26212
	.short	25442
	.short	0
	.short	0
	.short	0
	.short	0
	.short	0
	.short	98
	.short	26210
	.short	0
	.short	0
	.short	0
	.short	0
	.short	0
	.short	0
	.short	97
	.short	26209
	.short	0
	.short	0
	.short	0
	.short	0
	.short	0
	.short	0
	.short	0
	.short	25856
	.short	0
	.short	0
	.short	0
	.short	0
	.short	0
	.short	0
	.short	0
	.short	25600
	.short	0
	.short	0
	.short	0
	.type	registered, @object
	.size	registered, 20
registered:
	.long	.LC47
	.long	.LC51
	.zero	12
	.type	cmdline, @object
	.size	cmdline, 20
cmdline:
	.long	.LC46
	.long	.LC51
	.byte	0
	.byte	1
	.zero	10
	.section	.rodata.str1.4,"aMS",@progbits,1
	.align 2
.LC0:
	.string	"Current search path:\n"
	.zero	2
.LC1:
	.string	"%s (%i files)\n"
	.zero	1
.LC2:
	.string	"%s\n"
.LC19:
	.string	"sizebuf"
.LC20:
	.string	"SZ_GetSpace: overflow without allowoverflow set"
.LC21:
	.string	"SZ_GetSpace: %i is > full buffer size"
	.zero	2
.LC22:
	.string	"SZ_GetSpace: overflow"
	.zero	2
.LC27:
	.string	""
	.zero	3
.LC28:
	.string	"?model?"
.LC29:
	.string	"-safe"
	.zero	2
.LC30:
	.string	" "
	.zero	2
.LC31:
	.string	"-rogue"
	.zero	1
.LC32:
	.string	"-hipnotic"
	.zero	2
.LC33:
	.string	"%s/%s"
	.zero	2
.LC34:
	.string	"COM_WriteFile: failed on %s\n"
	.zero	3
.LC35:
	.string	"COM_WriteFile: %s\n"
	.zero	1
.LC36:
	.string	"COM_FindFile: both handle and file set"
	.zero	1
.LC37:
	.string	"COM_FindFile: neither handle or file set"
	.zero	3
.LC38:
	.string	"progs.dat"
	.zero	2
.LC39:
	.string	"COM_COM_FindFile %s\n"
	.zero	3
.LC40:
	.string	"PackFile: %s : %s\n"
	.zero	1
.LC41:
	.string	"rb"
	.zero	1
.LC42:
	.string	"%s%s"
	.zero	3
.LC43:
	.string	"FindFile: %s\n"
	.zero	2
.LC44:
	.string	"FindFile: can't find %s\n"
	.zero	3
.LC45:
	.string	"*.%s"
	.zero	3
.LC46:
	.string	"cmdline"
.LC47:
	.string	"registered"
	.zero	1
.LC48:
	.string	"1"
	.zero	2
.LC49:
	.string	"gfx/pop.lmp"
.LC50:
	.string	"Playing shareware version.\n"
.LC51:
	.string	"0"
	.zero	2
.LC52:
	.string	"Corrupted data file."
	.zero	3
.LC53:
	.string	"Playing registered version.\n"
	.zero	3
.LC54:
	.string	"COM_LoadFile: bad usehunk"
	.zero	2
.LC55:
	.string	"COM_LoadFile: not enough space for %s"
	.zero	2
.LC56:
	.string	"Sys_FileOpenRead %s\n"
	.zero	3
.LC57:
	.string	"Couldn't open %s\n"
	.zero	2
.LC58:
	.string	"%s is not a packfile"
	.zero	3
.LC59:
	.string	"%s has %i files"
.LC60:
	.string	"Hunk_AllocName\n"
.LC61:
	.string	"packfile"
	.zero	3
.LC62:
	.string	"Hunk_Alloc"
	.zero	1
.LC63:
	.string	"Added packfile %s (%i files)\n"
	.zero	2
.LC64:
	.string	"*.pak"
	.zero	2
.LC65:
	.string	"pak"
.LC66:
	.string	"%s/id1"
	.zero	1
.LC67:
	.string	"%s/tenebrae"
.LC68:
	.string	"%s/rogue"
	.zero	3
.LC69:
	.string	"%s/hipnotic"
.LC70:
	.string	"-game"
	.zero	2
.LC71:
	.string	"-basedir"
	.zero	3
.LC72:
	.string	"-cachedir"
	.zero	2
.LC73:
	.string	"-path"
	.zero	2
.LC74:
	.string	"Couldn't load packfile: %s"
	.zero	1
.LC75:
	.string	"-proghack"
	.zero	2
.LC76:
	.string	"exec COM_Init"
	.zero	2
.LC77:
	.string	"path"
	.zero	3
.LC78:
	.string	"-stdvid"
.LC79:
	.string	"-nolan"
	.zero	1
.LC80:
	.string	"-nosound"
	.zero	3
.LC81:
	.string	"-nocdaudio"
	.zero	1
.LC82:
	.string	"-nojoy"
	.zero	1
.LC83:
	.string	"-nomouse"
	.zero	3
.LC84:
	.string	"-dibonly"
	.section	.sbss,"aw",@nobits
	.type	msg_suppress_1, @object
	.size	msg_suppress_1, 1
msg_suppress_1:
	.zero	1
	.section	.sdata,"aw",@progbits
	.align 2
	.type	standard_quake, @object
	.size	standard_quake, 1
standard_quake:
	.byte	1
	.zero	3
	.type	static_registered, @object
	.size	static_registered, 4
static_registered:
	.long	1
	.section	".bss"
	.align 2
	.set	.LANCHOR0,. + 0
	.type	string.15179, @object
	.size	string.15179, 2048
string.15179:
	.zero	2048
	.type	exten.15225, @object
	.size	exten.15225, 30
exten.15225:
	.zero	30
	.zero	2
	.type	largv, @object
	.size	largv, 232
largv:
	.zero	232
	.type	string.15315, @object
	.size	string.15315, 1024
string.15315:
	.zero	1024
	.section	".text"
.Letext0:
	.file 2 "c:\\utils\\devkitpro\\devkitppc\\bin\\../lib/gcc/powerpc-eabi/4.6.3/../../../../powerpc-eabi/include/machine/_types.h"
	.file 3 "c:\\utils\\devkitpro\\devkitppc\\bin\\../lib/gcc/powerpc-eabi/4.6.3/../../../../powerpc-eabi/include/sys/lock.h"
	.file 4 "c:\\utils\\devkitpro\\devkitppc\\bin\\../lib/gcc/powerpc-eabi/4.6.3/include/stddef.h"
	.file 5 "c:\\utils\\devkitpro\\devkitppc\\bin\\../lib/gcc/powerpc-eabi/4.6.3/../../../../powerpc-eabi/include/sys/_types.h"
	.file 6 "c:\\utils\\devkitpro\\devkitppc\\bin\\../lib/gcc/powerpc-eabi/4.6.3/../../../../powerpc-eabi/include/sys/reent.h"
	.file 7 "c:\\utils\\devkitpro\\devkitppc\\bin\\../lib/gcc/powerpc-eabi/4.6.3/include/stdarg.h"
	.file 8 "<built-in>"
	.file 9 "c:\\utils\\devkitpro\\devkitppc\\bin\\../lib/gcc/powerpc-eabi/4.6.3/../../../../powerpc-eabi/include/stdio.h"
	.file 10 "d:/Data/Nintendo/TenebraeGX/src/common.h"
	.file 11 "d:/Data/Nintendo/TenebraeGX/src/sys.h"
	.file 12 "d:/Data/Nintendo/TenebraeGX/src/zone.h"
	.file 13 "d:/Data/Nintendo/TenebraeGX/src/mathlib.h"
	.file 14 "d:/Data/Nintendo/TenebraeGX/src/cvar.h"
	.file 15 "d:/Data/Nintendo/TenebraeGX/src/gl_model.h"
	.file 16 "c:/utils/devkitPro/libogc/include/ogc/gx.h"
	.file 17 "d:/Data/Nintendo/TenebraeGX/src/quakedef.h"
	.file 18 "d:/Data/Nintendo/TenebraeGX/src/net.h"
	.file 19 "d:/Data/Nintendo/TenebraeGX/src/glquake.h"