	.file	"console.c"
	.section	".text"
.Ltext0:
	.cfi_sections	.debug_frame
	.align 2
	.globl Con_MessageMode_f
	.type	Con_MessageMode_f, @function
Con_MessageMode_f:
.LFB41:
	.file 1 "d:/Data/Nintendo/TenebraeGX/src/console.c"
	.loc 1 132 0
	.cfi_startproc
	.loc 1 133 0
	li 0,2
	lis 9,key_dest@ha
	stw 0,key_dest@l(9)
	.loc 1 134 0
	li 0,0
	lis 9,team_message@ha
	.loc 1 135 0
	.loc 1 134 0
	stb 0,team_message@l(9)
	.loc 1 135 0
	blr
	.cfi_endproc
.LFE41:
	.size	Con_MessageMode_f, .-Con_MessageMode_f
	.align 2
	.globl Con_MessageMode2_f
	.type	Con_MessageMode2_f, @function
Con_MessageMode2_f:
.LFB42:
	.loc 1 144 0
	.cfi_startproc
	.loc 1 145 0
	li 0,2
	lis 9,key_dest@ha
	stw 0,key_dest@l(9)
	.loc 1 146 0
	li 0,1
	lis 9,team_message@ha
	.loc 1 147 0
	.loc 1 146 0
	stb 0,team_message@l(9)
	.loc 1 147 0
	blr
	.cfi_endproc
.LFE42:
	.size	Con_MessageMode2_f, .-Con_MessageMode2_f
	.align 2
	.globl Con_Clear_f
	.type	Con_Clear_f, @function
Con_Clear_f:
.LFB39:
	.loc 1 103 0
	.cfi_startproc
	.loc 1 104 0
	lis 9,con_text@ha
	.loc 1 103 0
	mflr 0
	.loc 1 104 0
	lwz 3,con_text@l(9)
	.loc 1 103 0
	stwu 1,-8(1)
.LCFI0:
	.cfi_def_cfa_offset 8
	.cfi_register 65, 0
	.loc 1 104 0
	cmpwi 7,3,0
	.loc 1 103 0
	stw 0,12(1)
	.loc 1 104 0
	beq- 7,.L3
	.cfi_offset 65, 4
	.loc 1 105 0
	li 4,32
	lis 5,0x1
	bl Q_memset
.L3:
	.loc 1 106 0
	lwz 0,12(1)
	addi 1,1,8
.LCFI1:
	.cfi_def_cfa_offset 0
	mtlr 0
	blr
	.cfi_endproc
.LFE39:
	.size	Con_Clear_f, .-Con_Clear_f
	.align 2
	.globl Con_ToggleConsole_f
	.type	Con_ToggleConsole_f, @function
Con_ToggleConsole_f:
.LFB38:
	.loc 1 74 0
	.cfi_startproc
	mflr 0
	stwu 1,-8(1)
.LCFI2:
	.cfi_def_cfa_offset 8
	.cfi_register 65, 0
	.loc 1 75 0
	lis 9,key_dest@ha
	.loc 1 74 0
	stw 0,12(1)
	.loc 1 75 0
	lwz 0,key_dest@l(9)
	.cfi_offset 65, 4
	cmpwi 7,0,1
	beq- 7,.L10
	.loc 1 89 0
	li 0,1
	stw 0,key_dest@l(9)
	.loc 1 91 0
	bl SCR_EndLoadingPlaque
	.loc 1 92 0
	lis 11,con_times@ha
	li 0,0
	la 9,con_times@l(11)
	stw 0,con_times@l(11)
	stw 0,4(9)
	stw 0,8(9)
	stw 0,12(9)
	.loc 1 93 0
	lwz 0,12(1)
	addi 1,1,8
	.cfi_remember_state
.LCFI3:
	.cfi_def_cfa_offset 0
	mtlr 0
	blr
.L10:
.LCFI4:
	.cfi_restore_state
	.loc 1 77 0
	lis 11,cls@ha
	lwz 11,cls@l(11)
	cmpwi 7,11,2
	beq- 7,.L11
	.loc 1 85 0
	bl M_Menu_Main_f
	.loc 1 91 0
	bl SCR_EndLoadingPlaque
	.loc 1 92 0
	lis 11,con_times@ha
	li 0,0
	la 9,con_times@l(11)
	stw 0,4(9)
	stw 0,8(9)
	stw 0,12(9)
	stw 0,con_times@l(11)
	.loc 1 93 0
	lwz 0,12(1)
	addi 1,1,8
	.cfi_remember_state
.LCFI5:
	.cfi_def_cfa_offset 0
	mtlr 0
	blr
.L11:
.LCFI6:
	.cfi_restore_state
	.loc 1 80 0
	lis 11,edit_line@ha
	lis 10,key_lines@ha
	lwz 8,edit_line@l(11)
	la 10,key_lines@l(10)
	.loc 1 79 0
	li 11,0
	.loc 1 80 0
	slwi 8,8,8
	.loc 1 79 0
	stw 11,key_dest@l(9)
	.loc 1 80 0
	add 10,10,8
	.loc 1 81 0
	lis 9,key_linepos@ha
	.loc 1 80 0
	stb 11,1(10)
	.loc 1 81 0
	stw 0,key_linepos@l(9)
	.loc 1 91 0
	bl SCR_EndLoadingPlaque
	.loc 1 92 0
	lis 11,con_times@ha
	li 0,0
	la 9,con_times@l(11)
	stw 0,4(9)
	stw 0,8(9)
	stw 0,12(9)
	stw 0,con_times@l(11)
	.loc 1 93 0
	lwz 0,12(1)
	addi 1,1,8
.LCFI7:
	.cfi_def_cfa_offset 0
	mtlr 0
	blr
	.cfi_endproc
.LFE38:
	.size	Con_ToggleConsole_f, .-Con_ToggleConsole_f
	.align 2
	.globl Con_ClearNotify
	.type	Con_ClearNotify, @function
Con_ClearNotify:
.LFB40:
	.loc 1 115 0
	.cfi_startproc
.LVL0:
	.loc 1 119 0
	lis 11,con_times@ha
	li 0,0
	la 9,con_times@l(11)
	stw 0,con_times@l(11)
.LVL1:
	stw 0,4(9)
.LVL2:
	stw 0,8(9)
.LVL3:
	stw 0,12(9)
.LVL4:
	.loc 1 120 0
	blr
	.cfi_endproc
.LFE40:
	.size	Con_ClearNotify, .-Con_ClearNotify
	.align 2
	.globl Con_CheckResize
	.type	Con_CheckResize, @function
Con_CheckResize:
.LFB43:
	.loc 1 159 0
	.cfi_startproc
	mr 12,1
	.loc 1 163 0
	lis 9,vid+20@ha
	.loc 1 159 0
	stw 28,-16(12)
	lis 0,0xfffe
	.loc 1 163 0
	lwz 28,vid+20@l(9)
	.cfi_offset 28, 65576
	.loc 1 165 0
	lis 9,con_linewidth@ha
	.loc 1 159 0
	stw 30,-8(12)
	ori 0,0,65480
	.loc 1 163 0
	srwi 28,28,3
	.loc 1 165 0
	lwz 30,con_linewidth@l(9)
	.cfi_offset 30, 65584
	.loc 1 163 0
	addi 28,28,-2
.LVL5:
	.loc 1 159 0
	stwux 1,1,0
.LCFI8:
	.cfi_def_cfa_offset 65592
	.loc 1 165 0
	cmpw 7,28,30
	.loc 1 159 0
	mflr 0
	stw 21,-44(12)
	stw 22,-40(12)
	stw 0,4(12)
	stw 23,-36(12)
	stw 24,-32(12)
	stw 25,-28(12)
	stw 26,-24(12)
	stw 27,-20(12)
	stw 29,-12(12)
	stw 31,-4(12)
	.loc 1 165 0
	beq- 7,.L13
	.cfi_offset 31, -4
	.cfi_offset 29, -12
	.cfi_offset 27, -20
	.cfi_offset 26, -24
	.cfi_offset 25, -28
	.cfi_offset 24, -32
	.cfi_offset 23, -36
	.cfi_offset 22, -40
	.cfi_offset 21, -44
	.cfi_offset 65, 4
	.loc 1 168 0
	cmpwi 6,28,0
	ble- 6,.L27
.LVL6:
	.loc 1 180 0
	lis 0,0x1
	.loc 1 179 0
	lis 27,con_totallines@ha
	.loc 1 180 0
	divw 0,0,28
	.loc 1 179 0
	lwz 31,con_totallines@l(27)
.LVL7:
	.loc 1 178 0
	stw 28,con_linewidth@l(9)
	.loc 1 180 0
	cmpw 6,0,31
	mr 29,0
	stw 0,con_totallines@l(27)
.LVL8:
	bgt- 6,.L28
.LVL9:
	bgt- 7,.L29
.LVL10:
.L18:
	.loc 1 191 0
	lis 26,con_text@ha
	addi 3,1,8
	lwz 4,con_text@l(26)
	lis 5,0x1
	lis 21,con_current@ha
	bl Q_memcpy
.LVL11:
	.loc 1 192 0
	lwz 3,con_text@l(26)
	li 4,32
	lis 5,0x1
	bl Q_memset
.LVL12:
	.loc 1 194 0
	cmpwi 7,29,0
	ble- 7,.L20
	cmpwi 6,28,0
	li 11,0
	mr 22,21
	lis 23,con_totallines@ha
	lis 24,con_linewidth@ha
.LVL13:
.L19:
	.loc 1 196 0 discriminator 1
	ble- 6,.L22
	mtctr 28
	.loc 1 196 0 is_stmt 0
	li 9,0
	la 25,con_current@l(22)
	la 12,con_totallines@l(23)
	la 3,con_linewidth@l(24)
	la 4,con_text@l(26)
.LVL14:
.L21:
	.loc 1 199 0 is_stmt 1 discriminator 2
	lwz 0,0(25)
	addi 8,1,8
	.loc 1 198 0 discriminator 2
	lwz 10,0(12)
	.loc 1 199 0 discriminator 2
	add 6,8,9
	subf 0,11,0
	.loc 1 198 0 discriminator 2
	lwz 5,0(3)
	.loc 1 199 0 discriminator 2
	add 0,0,31
	.loc 1 198 0 discriminator 2
	addi 10,10,-1
	.loc 1 199 0 discriminator 2
	divw 7,0,31
	.loc 1 198 0 discriminator 2
	subf 10,11,10
	lwz 8,0(4)
	add 8,8,9
	.loc 1 196 0 discriminator 2
	addi 9,9,1
.LVL15:
	.loc 1 199 0 discriminator 2
	mullw 7,7,31
	subf 0,7,0
	.loc 1 198 0 discriminator 2
	mullw 10,10,5
	.loc 1 200 0 discriminator 2
	mullw 7,30,0
	.loc 1 199 0 discriminator 2
	lbzx 0,6,7
	.loc 1 198 0 discriminator 2
	stbx 0,8,10
	.loc 1 196 0 discriminator 2
	bdnz .L21
.LVL16:
.L22:
	.loc 1 194 0
	addi 11,11,1
.LVL17:
	cmpw 7,11,29
	bne+ 7,.L19
.LVL18:
.L20:
.LBB4:
.LBB5:
	.loc 1 119 0
	lis 11,con_times@ha
	li 0,0
	la 9,con_times@l(11)
	stw 0,con_times@l(11)
.LVL19:
	stw 0,4(9)
.LVL20:
	stw 0,8(9)
.LVL21:
	stw 0,12(9)
.LVL22:
.L16:
.LBE5:
.LBE4:
	.loc 1 208 0
	lwz 9,con_totallines@l(27)
	.loc 1 207 0
	li 11,0
	.loc 1 208 0
	addi 0,9,-1
	.loc 1 207 0
	lis 9,con_backscroll@ha
	stw 11,con_backscroll@l(9)
	.loc 1 208 0
	stw 0,con_current@l(21)
.L13:
	.loc 1 209 0
	lwz 11,0(1)
	lwz 0,4(11)
	lwz 21,-44(11)
	mtlr 0
	lwz 22,-40(11)
	lwz 23,-36(11)
	lwz 24,-32(11)
	lwz 25,-28(11)
	lwz 26,-24(11)
	lwz 27,-20(11)
	lwz 28,-16(11)
	lwz 29,-12(11)
	lwz 30,-8(11)
	lwz 31,-4(11)
	mr 1,11
	.cfi_remember_state
.LCFI9:
	.cfi_def_cfa_offset 0
	.cfi_restore 31
	.cfi_restore 30
	.cfi_restore 29
	.cfi_restore 28
	.cfi_restore 27
	.cfi_restore 26
	.cfi_restore 25
	.cfi_restore 24
	.cfi_restore 23
	.cfi_restore 22
	.cfi_restore 21
	blr
.LVL23:
.L29:
.LCFI10:
	.cfi_restore_state
	.loc 1 180 0
	mr 28,30
.LVL24:
	b .L18
.LVL25:
.L28:
	mr 29,31
.LVL26:
	ble- 7,.L18
	b .L29
.LVL27:
.L27:
	.loc 1 173 0
	lis 11,con_text@ha
	.loc 1 171 0
	li 0,38
	.loc 1 173 0
	lwz 3,con_text@l(11)
	.loc 1 172 0
	lis 27,con_totallines@ha
	.loc 1 171 0
	stw 0,con_linewidth@l(9)
	.loc 1 173 0
	li 4,32
	.loc 1 172 0
	li 0,1724
	.loc 1 173 0
	lis 5,0x1
	.loc 1 172 0
	stw 0,con_totallines@l(27)
	lis 21,con_current@ha
	.loc 1 173 0
	bl Q_memset
	b .L16
	.cfi_endproc
.LFE43:
	.size	Con_CheckResize, .-Con_CheckResize
	.align 2
	.globl Con_Linefeed
	.type	Con_Linefeed, @function
Con_Linefeed:
.LFB45:
	.loc 1 267 0
	.cfi_startproc
	mflr 0
	stwu 1,-8(1)
.LCFI11:
	.cfi_def_cfa_offset 8
	.cfi_register 65, 0
	.loc 1 270 0
	lis 9,con_initialized@ha
	.loc 1 267 0
	stw 0,12(1)
	.loc 1 270 0
	lbz 0,con_initialized@l(9)
	.cfi_offset 65, 4
	cmpwi 7,0,0
	beq+ 7,.L30
	.loc 1 273 0
	lis 10,con_current@ha
	.loc 1 274 0
	lis 11,con_totallines@ha
	.loc 1 273 0
	lwz 9,con_current@l(10)
	.loc 1 274 0
	lis 7,con_text@ha
	lwz 11,con_totallines@l(11)
	.loc 1 272 0
	li 6,0
	.loc 1 273 0
	addi 0,9,1
	.loc 1 274 0
	lis 9,con_linewidth@ha
	divw 8,0,11
	lwz 9,con_linewidth@l(9)
	.loc 1 273 0
	stw 0,con_current@l(10)
	.loc 1 274 0
	li 4,32
	mr 5,9
	lwz 3,con_text@l(7)
	.loc 1 272 0
	lis 7,con_x@ha
	stw 6,con_x@l(7)
	.loc 1 274 0
	mullw 11,8,11
	subf 0,11,0
	mullw 9,0,9
	add 3,3,9
	bl Q_memset
.L30:
	.loc 1 276 0
	lwz 0,12(1)
	addi 1,1,8
.LCFI12:
	.cfi_def_cfa_offset 0
	mtlr 0
	blr
	.cfi_endproc
.LFE45:
	.size	Con_Linefeed, .-Con_Linefeed
	.align 2
	.globl Con_Print
	.type	Con_Print, @function
Con_Print:
.LFB46:
	.loc 1 290 0
	.cfi_startproc
.LVL28:
	mflr 0
	stwu 1,-64(1)
.LCFI13:
	.cfi_def_cfa_offset 64
	.cfi_register 65, 0
	.loc 1 297 0
	lis 9,con_initialized@ha
	.loc 1 290 0
	stw 31,60(1)
	mr 31,3
	.cfi_offset 31, -4
	stw 0,68(1)
	.loc 1 297 0
	lbz 0,con_initialized@l(9)
	.cfi_offset 65, 4
	.loc 1 290 0
	stw 18,8(1)
	.loc 1 297 0
	cmpwi 7,0,0
	.loc 1 290 0
	stw 19,12(1)
	stw 20,16(1)
	stw 21,20(1)
	stw 22,24(1)
	stw 23,28(1)
	stw 24,32(1)
	stw 25,36(1)
	stw 26,40(1)
	stw 27,44(1)
	stw 28,48(1)
	stw 29,52(1)
	stw 30,56(1)
	.loc 1 297 0
	beq- 7,.L32
	.cfi_offset 30, -8
	.cfi_offset 29, -12
	.cfi_offset 28, -16
	.cfi_offset 27, -20
	.cfi_offset 26, -24
	.cfi_offset 25, -28
	.cfi_offset 24, -32
	.cfi_offset 23, -36
	.cfi_offset 22, -40
	.cfi_offset 21, -44
	.cfi_offset 20, -48
	.cfi_offset 19, -52
	.cfi_offset 18, -56
	.loc 1 299 0
	li 0,0
	lis 9,con_backscroll@ha
	stw 0,con_backscroll@l(9)
	.loc 1 301 0
	lbz 30,0(3)
	cmpwi 7,30,1
	beq- 7,.L56
	.loc 1 310 0
	cmpwi 7,30,2
	.loc 1 316 0
	li 23,0
	.loc 1 310 0
	beq- 7,.L54
.LVL29:
.L36:
	.loc 1 319 0 discriminator 1
	cmpwi 7,30,0
	.loc 1 327 0 discriminator 1
	lis 28,con_x@ha
	.loc 1 332 0 discriminator 1
	lis 27,.LANCHOR0@ha
	.loc 1 344 0 discriminator 1
	lis 18,con_times@ha
	.loc 1 322 0 discriminator 1
	lis 25,con_linewidth@ha
	.loc 1 323 0 discriminator 1
	li 26,0
	.loc 1 327 0 discriminator 1
	la 28,con_x@l(28)
	.loc 1 332 0 discriminator 1
	la 27,.LANCHOR0@l(27)
	.loc 1 334 0 discriminator 1
	lis 24,con_current@ha
	.loc 1 344 0 discriminator 1
	la 18,con_times@l(18)
	lis 19,realtime@ha
	.loc 1 359 0 discriminator 1
	lis 20,con_totallines@ha
	.loc 1 360 0 discriminator 1
	lis 21,con_text@ha
	.loc 1 355 0 discriminator 1
	li 22,1
.LVL30:
	.loc 1 319 0 discriminator 1
	beq- 7,.L32
.L59:
.LVL31:
	.loc 1 322 0 discriminator 1
	lwz 11,con_linewidth@l(25)
	cmpwi 7,11,0
	ble- 7,.L48
	.loc 1 323 0
	cmplwi 7,30,32
	li 9,0
	mtctr 11
	bgt+ 7,.L49
	b .L51
.LVL32:
.L38:
	lbzx 0,31,9
	cmplwi 7,0,32
	ble- 7,.L40
.LVL33:
.L49:
	.loc 1 322 0
	addi 9,9,1
.LVL34:
	bdnz .L38
.LVL35:
.L39:
	.loc 1 327 0
	lwz 0,0(28)
	mr 29,28
.L41:
.LVL36:
	.loc 1 332 0
	lwz 9,0(27)
	cmpwi 7,9,0
	beq- 7,.L42
	.loc 1 334 0
	lwz 9,con_current@l(24)
	.loc 1 335 0
	stw 26,0(27)
	.loc 1 334 0
	addi 9,9,-1
	stw 9,con_current@l(24)
.L42:
	.loc 1 339 0
	cmpwi 7,0,0
	beq- 7,.L57
.L43:
	.loc 1 347 0
	cmpwi 7,30,10
	beq- 7,.L55
	cmpwi 7,30,13
	beq- 7,.L58
.LVL37:
	.loc 1 359 0
	lwz 0,con_current@l(24)
	.loc 1 360 0
	or 30,30,23
.LVL38:
	.loc 1 359 0
	lwz 9,con_totallines@l(20)
	.loc 1 360 0
	lwz 8,con_linewidth@l(25)
	.loc 1 359 0
	divw 7,0,9
	.loc 1 360 0
	lwz 10,con_text@l(21)
	lwz 11,0(29)
	.loc 1 359 0
	mullw 9,7,9
	subf 0,9,0
	.loc 1 360 0
	mullw 0,0,8
	add 9,10,0
	stbx 30,9,11
	.loc 1 361 0
	lwz 11,0(29)
	.loc 1 362 0
	lwz 9,con_linewidth@l(25)
	.loc 1 361 0
	addi 0,11,1
	.loc 1 362 0
	cmpw 7,0,9
	.loc 1 361 0
	stw 0,0(29)
	.loc 1 362 0
	blt- 7,.L47
.LVL39:
.L55:
	.loc 1 363 0
	stw 26,0(29)
.L47:
	.loc 1 363 0 is_stmt 0 discriminator 1
	lbzu 30,1(31)
.LVL40:
.L60:
	.loc 1 319 0 is_stmt 1
	cmpwi 7,30,0
	bne+ 7,.L59
.LVL41:
.L32:
	.loc 1 368 0
	lwz 0,68(1)
	lwz 18,8(1)
	mtlr 0
	lwz 19,12(1)
	lwz 20,16(1)
	lwz 21,20(1)
	lwz 22,24(1)
	lwz 23,28(1)
	lwz 24,32(1)
	lwz 25,36(1)
	lwz 26,40(1)
	lwz 27,44(1)
	lwz 28,48(1)
	lwz 29,52(1)
	lwz 30,56(1)
	lwz 31,60(1)
.LVL42:
	addi 1,1,64
	.cfi_remember_state
.LCFI14:
	.cfi_def_cfa_offset 0
	.cfi_restore 31
	.cfi_restore 30
	.cfi_restore 29
	.cfi_restore 28
	.cfi_restore 27
	.cfi_restore 26
	.cfi_restore 25
	.cfi_restore 24
	.cfi_restore 23
	.cfi_restore 22
	.cfi_restore 21
	.cfi_restore 20
	.cfi_restore 19
	.cfi_restore 18
	blr
.LVL43:
.L48:
.LCFI15:
	.cfi_restore_state
	.loc 1 327 0
	beq- 7,.L39
.L51:
	li 9,0
.LVL44:
.L40:
	.loc 1 327 0 is_stmt 0 discriminator 1
	lwz 0,0(28)
	mr 29,28
	add 9,0,9
	cmpw 7,11,9
	bge- 7,.L41
	.loc 1 328 0 is_stmt 1
	stw 26,0(28)
	li 0,0
	b .L41
.LVL45:
.L58:
	.loc 1 354 0
	stw 26,0(29)
	.loc 1 355 0
	stw 22,0(27)
	.loc 1 363 0
	lbzu 30,1(31)
.LVL46:
	b .L60
.LVL47:
.L57:
	.loc 1 341 0
	bl Con_Linefeed
	.loc 1 343 0
	lwz 0,con_current@l(24)
	cmpwi 7,0,0
	blt- 7,.L43
	.loc 1 344 0
	lfd 0,realtime@l(19)
	rlwinm 0,0,2,28,29
	frsp 0,0
	stfsx 0,18,0
	b .L43
.LVL48:
.L56:
	.loc 1 305 0
	lis 3,.LC0@ha
.LVL49:
	la 3,.LC0@l(3)
	bl S_LocalSound
.LVL50:
.L54:
	.loc 1 308 0
	lbz 30,1(31)
	.loc 1 303 0
	li 23,128
	.loc 1 308 0
	addi 31,31,1
.LVL51:
	b .L36
	.cfi_endproc
.LFE46:
	.size	Con_Print, .-Con_Print
	.align 2
	.globl Con_DebugLog
	.type	Con_DebugLog, @function
Con_DebugLog:
.LFB47:
	.loc 1 378 0
	.cfi_startproc
.LVL52:
	mflr 0
	stwu 1,-120(1)
.LCFI16:
	.cfi_def_cfa_offset 120
	.cfi_register 65, 0
	stw 31,116(1)
	mr 31,3
	.cfi_offset 31, -4
	stw 0,124(1)
	stw 30,112(1)
	stw 5,24(1)
	stw 6,28(1)
	stw 7,32(1)
	stw 8,36(1)
	stw 9,40(1)
	stw 10,44(1)
	bne- 1,.L62
	.cfi_offset 30, -8
	.cfi_offset 65, 4
	.loc 1 378 0
	stfd 1,48(1)
	stfd 2,56(1)
	stfd 3,64(1)
	stfd 4,72(1)
	stfd 5,80(1)
	stfd 6,88(1)
	stfd 7,96(1)
	stfd 8,104(1)
.L62:
	.loc 1 383 0
	li 0,2
	.loc 1 390 0
	lis 30,.LANCHOR0@ha
	.loc 1 383 0
	stb 0,8(1)
	.loc 1 390 0
	la 30,.LANCHOR0@l(30)
	.loc 1 383 0
	li 0,0
	.loc 1 390 0
	addi 30,30,4
	.loc 1 383 0
	stb 0,9(1)
	addi 0,1,128
	.loc 1 390 0
	addi 6,1,8
	.loc 1 378 0
	mr 5,4
	.loc 1 383 0
	stw 0,12(1)
	.loc 1 390 0
	li 4,4096
.LVL53:
	.loc 1 383 0
	addi 0,1,16
	.loc 1 390 0
	mr 3,30
.LVL54:
	.loc 1 383 0
	stw 0,16(1)
	.loc 1 390 0
	bl vsnprintf
.LVL55:
	.loc 1 394 0
	li 4,521
	li 5,438
	mr 3,31
	crxor 6,6,6
	bl open
	mr 31,3
.LVL56:
	.loc 1 395 0
	mr 3,30
.LVL57:
	bl strlen
	mr 4,30
	mr 5,3
	mr 3,31
	bl write
	.loc 1 396 0
	mr 3,31
	bl close
	.loc 1 397 0
	lwz 0,124(1)
	lwz 30,112(1)
	mtlr 0
	lwz 31,116(1)
.LVL58:
	addi 1,1,120
.LCFI17:
	.cfi_def_cfa_offset 0
	.cfi_restore 31
	.cfi_restore 30
	blr
	.cfi_endproc
.LFE47:
	.size	Con_DebugLog, .-Con_DebugLog
	.align 2
	.globl Con_Printf
	.type	Con_Printf, @function
Con_Printf:
.LFB48:
	.loc 1 411 0
	.cfi_startproc
.LVL59:
	mflr 0
	stwu 1,-4224(1)
.LCFI18:
	.cfi_def_cfa_offset 4224
	.cfi_register 65, 0
	stw 30,4216(1)
	stw 0,4228(1)
	stw 31,4220(1)
	stw 4,4124(1)
	stw 5,4128(1)
	stw 6,4132(1)
	stw 7,4136(1)
	stw 8,4140(1)
	stw 9,4144(1)
	stw 10,4148(1)
	bne- 1,.L64
	.cfi_offset 31, -4
	.cfi_offset 65, 4
	.cfi_offset 30, -8
	.loc 1 411 0
	stfd 1,4152(1)
	stfd 2,4160(1)
	stfd 3,4168(1)
	stfd 4,4176(1)
	stfd 5,4184(1)
	stfd 6,4192(1)
	stfd 7,4200(1)
	stfd 8,4208(1)
.L64:
	.loc 1 416 0
	li 0,1
	.loc 1 429 0
	lis 31,.LC1@ha
	.loc 1 416 0
	stb 0,8(1)
	li 0,0
	stb 0,9(1)
	addi 0,1,4232
	.loc 1 411 0
	mr 5,3
	.loc 1 423 0
	li 4,4096
	addi 6,1,8
	.loc 1 416 0
	stw 0,12(1)
	.loc 1 423 0
	addi 3,1,20
.LVL60:
	.loc 1 416 0
	addi 0,1,4120
	.loc 1 429 0
	la 31,.LC1@l(31)
	.loc 1 416 0
	stw 0,16(1)
	.loc 1 423 0
	bl vsnprintf
.LVL61:
	.loc 1 429 0
	mr 3,31
	addi 4,1,20
	crxor 6,6,6
	bl Sys_Printf
	.loc 1 432 0
	lis 9,con_debuglog@ha
	lbz 0,con_debuglog@l(9)
	cmpwi 7,0,0
	bne- 7,.L67
.L65:
	.loc 1 435 0
	lis 9,con_initialized@ha
	lbz 0,con_initialized@l(9)
	cmpwi 7,0,0
	beq- 7,.L63
	.loc 1 438 0
	lis 31,cls@ha
	lwz 0,cls@l(31)
	la 31,cls@l(31)
	cmpwi 7,0,0
	bne- 7,.L68
.L63:
	.loc 1 456 0
	lwz 0,4228(1)
	lwz 30,4216(1)
	mtlr 0
	lwz 31,4220(1)
	addi 1,1,4224
	.cfi_remember_state
.LCFI19:
	.cfi_def_cfa_offset 0
	.cfi_restore 31
	.cfi_restore 30
	blr
.L68:
.LCFI20:
	.cfi_restore_state
	.loc 1 442 0
	addi 3,1,20
	bl Con_Print
	.loc 1 445 0
	lwz 0,2272(31)
	cmpwi 7,0,4
	beq- 7,.L63
	.loc 1 445 0 is_stmt 0 discriminator 1
	lis 9,scr_disabled_for_loading@ha
	lbz 0,scr_disabled_for_loading@l(9)
	cmpwi 7,0,0
	bne- 7,.L63
	.loc 1 449 0 is_stmt 1
	lis 31,.LANCHOR0@ha
	la 31,.LANCHOR0@l(31)
	lbz 30,4100(31)
	cmpwi 7,30,0
	bne+ 7,.L63
	.loc 1 451 0
	li 0,1
	stb 0,4100(31)
	.loc 1 452 0
	bl SCR_UpdateScreen
	.loc 1 453 0
	stb 30,4100(31)
	b .L63
.L67:
	.loc 1 433 0
	lis 3,.LC2@ha
	lis 4,com_gamedir@ha
	la 4,com_gamedir@l(4)
	la 3,.LC2@l(3)
	crxor 6,6,6
	bl va
	mr 4,31
	addi 5,1,20
	crxor 6,6,6
	bl Con_DebugLog
	b .L65
	.cfi_endproc
.LFE48:
	.size	Con_Printf, .-Con_Printf
	.align 2
	.globl Con_Init
	.type	Con_Init, @function
Con_Init:
.LFB44:
	.loc 1 219 0
	.cfi_startproc
.LVL62:
	mflr 0
	stwu 1,-1024(1)
.LCFI21:
	.cfi_def_cfa_offset 1024
	.cfi_register 65, 0
	.loc 1 226 0
	lis 3,.LC3@ha
	la 3,.LC3@l(3)
	.loc 1 219 0
	stw 31,1020(1)
	stw 0,1028(1)
	.loc 1 226 0
	.cfi_offset 65, 4
	.cfi_offset 31, -4
	bl COM_CheckParm
	cntlzw 3,3
	lis 9,con_debuglog@ha
	srwi 3,3,5
	xori 3,3,1
	.loc 1 228 0
	cmpwi 7,3,0
	.loc 1 226 0
	stb 3,con_debuglog@l(9)
	.loc 1 228 0
	beq- 7,.L70
	.loc 1 230 0
	lis 31,com_gamedir@ha
	la 31,com_gamedir@l(31)
	mr 3,31
	bl strlen
	cmplwi 7,3,986
	ble- 7,.L71
.L70:
	.loc 1 237 0
	lis 4,.LC6@ha
	lis 3,0x1
	la 4,.LC6@l(4)
	.loc 1 250 0
	lis 31,.LANCHOR1@ha
	.loc 1 237 0
	bl Hunk_AllocName
	.loc 1 239 0
	lis 5,0x1
	li 4,32
	.loc 1 237 0
	lis 9,con_text@ha
	stw 3,con_text@l(9)
	.loc 1 239 0
	bl Q_memset
	.loc 1 241 0
	li 0,-1
	lis 9,con_linewidth@ha
	stw 0,con_linewidth@l(9)
	.loc 1 243 0
	bl Con_CheckResize
	.loc 1 245 0
	lis 3,.LC7@ha
	.loc 1 250 0
	la 31,.LANCHOR1@l(31)
	.loc 1 245 0
	la 3,.LC7@l(3)
	crxor 6,6,6
	bl Con_Printf
	.loc 1 250 0
	mr 3,31
	bl Cvar_RegisterVariable
	.loc 1 251 0
	addi 3,31,20
	bl Cvar_RegisterVariable
	.loc 1 253 0
	lis 3,.LC8@ha
	lis 4,Con_ToggleConsole_f@ha
	la 3,.LC8@l(3)
	la 4,Con_ToggleConsole_f@l(4)
	bl Cmd_AddCommand
	.loc 1 254 0
	lis 3,.LC9@ha
	lis 4,Con_MessageMode_f@ha
	la 3,.LC9@l(3)
	la 4,Con_MessageMode_f@l(4)
	bl Cmd_AddCommand
	.loc 1 255 0
	lis 3,.LC10@ha
	lis 4,Con_MessageMode2_f@ha
	la 3,.LC10@l(3)
	la 4,Con_MessageMode2_f@l(4)
	bl Cmd_AddCommand
	.loc 1 256 0
	lis 3,.LC11@ha
	lis 4,Con_Clear_f@ha
	la 3,.LC11@l(3)
	la 4,Con_Clear_f@l(4)
	bl Cmd_AddCommand
	.loc 1 257 0
	li 0,1
	lis 9,con_initialized@ha
	.loc 1 258 0
	lwz 31,1020(1)
	.loc 1 257 0
	stb 0,con_initialized@l(9)
	.loc 1 258 0
	lwz 0,1028(1)
	addi 1,1,1024
	.cfi_remember_state
.LCFI22:
	.cfi_def_cfa_offset 0
	.cfi_restore 31
	mtlr 0
	blr
.L71:
.LCFI23:
	.cfi_restore_state
	.loc 1 232 0
	lis 4,.LC4@ha
	lis 6,.LC5@ha
	addi 3,1,8
	la 4,.LC4@l(4)
	mr 5,31
	la 6,.LC5@l(6)
	crxor 6,6,6
	bl sprintf
	.loc 1 233 0
	addi 3,1,8
	bl unlink
	b .L70
	.cfi_endproc
.LFE44:
	.size	Con_Init, .-Con_Init
	.align 2
	.globl Con_DPrintf
	.type	Con_DPrintf, @function
Con_DPrintf:
.LFB49:
	.loc 1 466 0
	.cfi_startproc
.LVL63:
	mflr 0
	stwu 1,-4232(1)
.LCFI24:
	.cfi_def_cfa_offset 4232
	.cfi_register 65, 0
	stw 29,4220(1)
	stw 0,4236(1)
	stw 30,4224(1)
	stw 31,4228(1)
	stw 4,4124(1)
	stw 5,4128(1)
	stw 6,4132(1)
	stw 7,4136(1)
	stw 8,4140(1)
	stw 9,4144(1)
	stw 10,4148(1)
	bne- 1,.L73
	.cfi_offset 31, -4
	.cfi_offset 30, -8
	.cfi_offset 65, 4
	.cfi_offset 29, -12
	.loc 1 466 0
	stfd 1,4152(1)
	stfd 2,4160(1)
	stfd 3,4168(1)
	stfd 4,4176(1)
	stfd 5,4184(1)
	stfd 6,4192(1)
	stfd 7,4200(1)
	stfd 8,4208(1)
.L73:
	.loc 1 471 0
	lis 9,developer+12@ha
	lfs 13,developer+12@l(9)
	lis 9,.LC12@ha
	lfs 0,.LC12@l(9)
	fcmpu 7,13,0
	beq+ 7,.L72
	.loc 1 474 0
	li 0,0
	.loc 1 478 0
	lis 31,scr_disabled_for_loading@ha
	.loc 1 474 0
	stb 0,9(1)
	addi 0,1,4240
	.loc 1 475 0
	mr 4,3
	.loc 1 474 0
	li 30,1
	.loc 1 475 0
	addi 5,1,8
	.loc 1 474 0
	stw 0,12(1)
	.loc 1 475 0
	addi 3,1,20
.LVL64:
	.loc 1 474 0
	addi 0,1,4120
	stw 0,16(1)
	stb 30,8(1)
	.loc 1 475 0
	bl vsprintf
.LVL65:
	.loc 1 478 0
	lbz 29,scr_disabled_for_loading@l(31)
.LVL66:
	.loc 1 480 0
	lis 3,.LC1@ha
	la 3,.LC1@l(3)
	addi 4,1,20
	.loc 1 479 0
	stb 30,scr_disabled_for_loading@l(31)
	.loc 1 480 0
	crxor 6,6,6
	bl Con_Printf
	.loc 1 482 0
	stb 29,scr_disabled_for_loading@l(31)
.LVL67:
.L72:
	.loc 1 483 0
	lwz 0,4236(1)
	lwz 29,4220(1)
	mtlr 0
	lwz 30,4224(1)
	lwz 31,4228(1)
	addi 1,1,4232
.LCFI25:
	.cfi_def_cfa_offset 0
	.cfi_restore 31
	.cfi_restore 30
	.cfi_restore 29
	blr
	.cfi_endproc
.LFE49:
	.size	Con_DPrintf, .-Con_DPrintf
	.align 2
	.globl Con_SafePrintf
	.type	Con_SafePrintf, @function
Con_SafePrintf:
.LFB50:
	.loc 1 494 0
	.cfi_startproc
.LVL68:
	mflr 0
	stwu 1,-1160(1)
.LCFI26:
	.cfi_def_cfa_offset 1160
	.cfi_register 65, 0
	stw 29,1148(1)
	stw 0,1164(1)
	stw 30,1152(1)
	stw 31,1156(1)
	stw 4,1052(1)
	stw 5,1056(1)
	stw 6,1060(1)
	stw 7,1064(1)
	stw 8,1068(1)
	stw 9,1072(1)
	stw 10,1076(1)
	bne- 1,.L76
	.cfi_offset 31, -4
	.cfi_offset 30, -8
	.cfi_offset 65, 4
	.cfi_offset 29, -12
	.loc 1 494 0
	stfd 1,1080(1)
	stfd 2,1088(1)
	stfd 3,1096(1)
	stfd 4,1104(1)
	stfd 5,1112(1)
	stfd 6,1120(1)
	stfd 7,1128(1)
	stfd 8,1136(1)
.L76:
	.loc 1 499 0
	li 0,0
	.loc 1 494 0
	mr 4,3
	.loc 1 499 0
	stb 0,9(1)
	addi 0,1,1168
	li 30,1
	.loc 1 500 0
	addi 5,1,8
	.loc 1 499 0
	stw 0,12(1)
	.loc 1 500 0
	addi 3,1,20
.LVL69:
	.loc 1 499 0
	addi 0,1,1048
	stb 30,8(1)
	stw 0,16(1)
	.loc 1 500 0
	bl vsprintf
.LVL70:
	.loc 1 505 0
	lis 3,.LC1@ha
	.loc 1 503 0
	lis 31,scr_disabled_for_loading@ha
	.loc 1 505 0
	addi 4,1,20
	la 3,.LC1@l(3)
	.loc 1 503 0
	lbz 29,scr_disabled_for_loading@l(31)
.LVL71:
	.loc 1 504 0
	stb 30,scr_disabled_for_loading@l(31)
	.loc 1 505 0
	crxor 6,6,6
	bl Con_Printf
	.loc 1 507 0
	lwz 0,1164(1)
	.loc 1 506 0
	stb 29,scr_disabled_for_loading@l(31)
	.loc 1 507 0
	mtlr 0
	lwz 29,1148(1)
.LVL72:
	lwz 30,1152(1)
	lwz 31,1156(1)
	addi 1,1,1160
.LCFI27:
	.cfi_def_cfa_offset 0
	.cfi_restore 31
	.cfi_restore 30
	.cfi_restore 29
	blr
	.cfi_endproc
.LFE50:
	.size	Con_SafePrintf, .-Con_SafePrintf
	.align 2
	.globl Con_DrawInput
	.type	Con_DrawInput, @function
Con_DrawInput:
.LFB51:
	.loc 1 527 0
	.cfi_startproc
	mflr 0
	stwu 1,-48(1)
.LCFI28:
	.cfi_def_cfa_offset 48
	.cfi_register 65, 0
	.loc 1 532 0
	lis 9,key_dest@ha
	.loc 1 527 0
	stw 25,20(1)
	stw 0,52(1)
	.loc 1 532 0
	lwz 0,key_dest@l(9)
	.cfi_offset 65, 4
	.cfi_offset 25, -28
	.loc 1 527 0
	stw 26,24(1)
	.loc 1 532 0
	cmpwi 7,0,1
	.loc 1 527 0
	stw 27,28(1)
	stw 28,32(1)
	stw 29,36(1)
	stw 30,40(1)
	stw 31,44(1)
	.loc 1 532 0
	beq- 7,.L78
	.cfi_offset 31, -4
	.cfi_offset 30, -8
	.cfi_offset 29, -12
	.cfi_offset 28, -16
	.cfi_offset 27, -20
	.cfi_offset 26, -24
	.loc 1 532 0 is_stmt 0 discriminator 1
	lis 9,con_forcedup@ha
	lbz 0,con_forcedup@l(9)
	cmpwi 7,0,0
	beq- 7,.L77
.L78:
	.loc 1 538 0 is_stmt 1
	lis 9,con_cursorspeed@ha
	lis 26,key_linepos@ha
	lfs 13,con_cursorspeed@l(9)
	lis 9,realtime@ha
	lfd 0,realtime@l(9)
	addi 6,1,8
	lwz 11,key_linepos@l(26)
	.loc 1 541 0
	lis 9,con_linewidth@ha
	.loc 1 538 0
	fmul 0,13,0
	.loc 1 541 0
	lwz 10,con_linewidth@l(9)
	.loc 1 535 0
	lis 25,edit_line@ha
	.loc 1 541 0
	addi 8,11,1
	cmpw 7,8,10
	.loc 1 535 0
	lis 27,key_lines@ha
	la 27,key_lines@l(27)
	.loc 1 538 0
	fctiwz 0,0
	stfiwx 0,0,6
	lwz 9,8(1)
	.loc 1 535 0
	lwz 7,edit_line@l(25)
	.loc 1 538 0
	rlwinm 9,9,0,31,31
	.loc 1 535 0
	slwi 7,7,8
	.loc 1 538 0
	addi 0,9,10
	.loc 1 535 0
	add 30,27,7
.LVL73:
	.loc 1 538 0
	stbx 0,30,11
	.loc 1 541 0
	bge- 7,.L80
	.loc 1 542 0 discriminator 2
	subf 6,8,10
	.loc 1 541 0 discriminator 2
	mr 9,8
	.loc 1 542 0 discriminator 2
	mtctr 6
	li 0,32
.LVL74:
.L81:
	stbx 0,30,9
	.loc 1 541 0 discriminator 2
	addi 9,9,1
.LVL75:
	bdnz .L81
.LVL76:
.L80:
	.loc 1 545 0
	cmpw 7,11,10
	bge- 7,.L87
.L82:
.LVL77:
	.loc 1 551 0
	cmpwi 7,10,0
	ble- 7,.L83
	lis 28,con_vislines@ha
	lis 29,con_linewidth@ha
	.loc 1 526 0
	addi 30,30,-1
.LVL78:
	.loc 1 551 0
	li 31,0
	la 28,con_vislines@l(28)
	la 29,con_linewidth@l(29)
.LVL79:
.L84:
	.loc 1 552 0 discriminator 2
	lwz 4,0(28)
	addi 31,31,1
	lbzu 5,1(30)
	slwi 3,31,3
	addi 4,4,-16
	bl Draw_Character
.LVL80:
	.loc 1 551 0 discriminator 2
	lwz 0,0(29)
	cmpw 7,0,31
	bgt+ 7,.L84
	.loc 1 551 0 is_stmt 0
	lwz 7,edit_line@l(25)
	lwz 11,key_linepos@l(26)
	slwi 7,7,8
.LVL81:
.L83:
	.loc 1 555 0 is_stmt 1
	add 11,7,11
	li 0,0
	stbx 0,27,11
.L77:
	.loc 1 556 0
	lwz 0,52(1)
	lwz 25,20(1)
	mtlr 0
	lwz 26,24(1)
	lwz 27,28(1)
	lwz 28,32(1)
	lwz 29,36(1)
	lwz 30,40(1)
	lwz 31,44(1)
	addi 1,1,48
	.cfi_remember_state
.LCFI29:
	.cfi_def_cfa_offset 0
	.cfi_restore 31
	.cfi_restore 30
	.cfi_restore 29
	.cfi_restore 28
	.cfi_restore 27
	.cfi_restore 26
	.cfi_restore 25
	blr
.LVL82:
.L87:
.LCFI30:
	.cfi_restore_state
	.loc 1 546 0
	subf 8,10,8
	add 30,30,8
.LVL83:
	b .L82
	.cfi_endproc
.LFE51:
	.size	Con_DrawInput, .-Con_DrawInput
	.align 2
	.globl Con_DrawNotify
	.type	Con_DrawNotify, @function
Con_DrawNotify:
.LFB52:
	.loc 1 567 0
	.cfi_startproc
.LVL84:
	stwu 1,-88(1)
.LCFI31:
	.cfi_def_cfa_offset 88
	mflr 0
	.loc 1 582 0
	lis 9,.LC12@ha
	.loc 1 567 0
	stw 26,56(1)
	.loc 1 575 0
	lis 26,con_current@ha
	.cfi_offset 26, -32
	.cfi_register 65, 0
	.loc 1 567 0
	stw 30,72(1)
	.loc 1 575 0
	lwz 30,con_current@l(26)
	.cfi_offset 30, -16
	la 26,con_current@l(26)
	.loc 1 567 0
	stfd 31,80(1)
	stw 25,52(1)
	.loc 1 580 0
	lis 25,con_times@ha
	.cfi_offset 25, -36
	.cfi_offset 63, -8
	.loc 1 567 0
	stw 0,92(1)
	.loc 1 575 0
	addi 30,30,-3
.LVL85:
	.loc 1 567 0
	stw 27,60(1)
	.loc 1 580 0
	la 25,con_times@l(25)
	.loc 1 567 0
	stw 29,68(1)
	stw 31,76(1)
	.loc 1 582 0
	lfs 31,.LC12@l(9)
	.loc 1 567 0
	stw 16,16(1)
	.loc 1 590 0
	lis 16,con_text@ha
	.cfi_offset 16, -72
	.cfi_offset 31, -12
	.cfi_offset 29, -20
	.cfi_offset 27, -28
	.cfi_offset 65, 4
	.loc 1 567 0
	stw 17,20(1)
	.loc 1 590 0
	lis 17,con_totallines@ha
	.cfi_offset 17, -68
	.loc 1 567 0
	stw 18,24(1)
	.loc 1 592 0
	lis 18,clearnotify@ha
	.cfi_offset 18, -64
	.loc 1 567 0
	stw 19,28(1)
	.loc 1 592 0
	li 19,0
	.cfi_offset 19, -60
	.loc 1 567 0
	stw 20,32(1)
	.loc 1 593 0
	lis 20,scr_copytop@ha
	.cfi_offset 20, -56
	.loc 1 567 0
	stw 21,36(1)
	.loc 1 593 0
	li 21,1
	.cfi_offset 21, -52
	.loc 1 567 0
	stw 22,40(1)
	.loc 1 585 0
	lis 22,realtime@ha
	.cfi_offset 22, -48
	.loc 1 567 0
	stw 23,44(1)
	.loc 1 587 0
	lis 23,.LANCHOR1@ha
	.cfi_offset 23, -44
	.loc 1 567 0
	stw 24,48(1)
	.loc 1 590 0
	lis 24,con_linewidth@ha
	.cfi_offset 24, -40
	.loc 1 567 0
	stw 28,64(1)
	.loc 1 574 0
	li 28,0
	.cfi_offset 28, -24
.LVL86:
.L92:
	.loc 1 577 0
	cmpwi 7,30,0
	blt- 7,.L89
	.loc 1 580 0
	rlwinm 0,30,2,28,29
	lfsx 0,25,0
.LVL87:
	.loc 1 582 0
	fcmpu 7,0,31
	beq- 7,.L89
	.loc 1 585 0
	lfd 13,realtime@l(22)
	.loc 1 587 0
	la 9,.LANCHOR1@l(23)
	.loc 1 585 0
	fsub 0,13,0
.LVL88:
	.loc 1 587 0
	lfs 13,12(9)
	.loc 1 585 0
	frsp 0,0
.LVL89:
	.loc 1 587 0
	fcmpu 7,13,0
	blt- 7,.L89
	.loc 1 590 0
	lwz 9,con_totallines@l(17)
	la 27,con_linewidth@l(24)
	lwz 0,con_linewidth@l(24)
	divw 11,30,9
	lwz 29,con_text@l(16)
	.loc 1 595 0
	cmpwi 7,0,0
	.loc 1 592 0
	stw 19,clearnotify@l(18)
	.loc 1 593 0
	stw 21,scr_copytop@l(20)
	.loc 1 590 0
	mullw 9,11,9
	subf 9,9,30
	mullw 0,9,0
	add 29,29,0
.LVL90:
	.loc 1 595 0
	ble- 7,.L90
	.loc 1 566 0
	addi 29,29,-1
.LVL91:
	.loc 1 595 0
	li 31,0
.LVL92:
.L91:
	.loc 1 596 0 discriminator 2
	addi 31,31,1
	lbzu 5,1(29)
	slwi 3,31,3
	mr 4,28
	bl Draw_Character
.LVL93:
	.loc 1 595 0 discriminator 2
	lwz 0,0(27)
	cmpw 7,0,31
	bgt+ 7,.L91
.LVL94:
.L90:
	.loc 1 598 0
	addi 28,28,8
.LVL95:
.L89:
	.loc 1 575 0
	lwz 0,0(26)
	addi 30,30,1
.LVL96:
	cmpw 7,0,30
	bge+ 7,.L92
	.loc 1 602 0
	lis 9,key_dest@ha
	lwz 0,key_dest@l(9)
	cmpwi 7,0,2
	beq- 7,.L101
.LVL97:
.L93:
	.loc 1 621 0
	lis 9,con_notifylines@ha
	lwz 0,con_notifylines@l(9)
	cmpw 7,28,0
	ble- 7,.L88
	.loc 1 622 0
	stw 28,con_notifylines@l(9)
.L88:
	.loc 1 623 0
	lwz 0,92(1)
	lwz 16,16(1)
	mtlr 0
	lwz 17,20(1)
	lwz 18,24(1)
	lwz 19,28(1)
	lwz 20,32(1)
	lwz 21,36(1)
	lwz 22,40(1)
	lwz 23,44(1)
	lwz 24,48(1)
	lwz 25,52(1)
	lwz 26,56(1)
	lwz 27,60(1)
	lwz 28,64(1)
.LVL98:
	lwz 29,68(1)
	lwz 30,72(1)
	lwz 31,76(1)
	lfd 31,80(1)
	addi 1,1,88
	.cfi_remember_state
.LCFI32:
	.cfi_def_cfa_offset 0
	.cfi_restore 63
	.cfi_restore 31
	.cfi_restore 30
	.cfi_restore 29
	.cfi_restore 28
	.cfi_restore 27
	.cfi_restore 26
	.cfi_restore 25
	.cfi_restore 24
	.cfi_restore 23
	.cfi_restore 22
	.cfi_restore 21
	.cfi_restore 20
	.cfi_restore 19
	.cfi_restore 18
	.cfi_restore 17
	.cfi_restore 16
	blr
.LVL99:
.L101:
.LCFI33:
	.cfi_restore_state
	.loc 1 604 0
	li 0,0
	lis 9,clearnotify@ha
	.loc 1 609 0
	lis 5,.LC13@ha
	.loc 1 604 0
	stw 0,clearnotify@l(9)
	.loc 1 609 0
	li 3,8
	la 5,.LC13@l(5)
	.loc 1 605 0
	li 0,1
	lis 9,scr_copytop@ha
	.loc 1 609 0
	mr 4,28
	.loc 1 611 0
	lis 30,chat_buffer@ha
.LVL100:
	.loc 1 605 0
	stw 0,scr_copytop@l(9)
.LVL101:
	.loc 1 609 0
	bl Draw_String
	.loc 1 611 0
	lbz 5,chat_buffer@l(30)
	li 3,40
	cmpwi 7,5,0
	beq- 7,.L94
	li 31,0
	la 30,chat_buffer@l(30)
.LVL102:
.L95:
	.loc 1 566 0
	addi 3,31,5
	.loc 1 613 0
	mr 4,28
	slwi 3,3,3
	.loc 1 614 0
	addi 31,31,1
	.loc 1 613 0
	bl Draw_Character
.LVL103:
	.loc 1 611 0
	lbzx 5,30,31
	cmpwi 7,5,0
	bne+ 7,.L95
	addi 3,31,5
	slwi 3,3,3
.LVL104:
.L94:
	.loc 1 617 0
	lis 9,con_cursorspeed@ha
	mr 4,28
	lfs 13,con_cursorspeed@l(9)
	lis 9,realtime@ha
	lfd 0,realtime@l(9)
	addi 9,1,8
	.loc 1 618 0
	addi 28,28,8
.LVL105:
	.loc 1 617 0
	fmul 0,13,0
	fctiwz 0,0
	stfiwx 0,0,9
	lwz 5,8(1)
	rlwinm 5,5,0,31,31
	addi 5,5,10
	bl Draw_Character
.LVL106:
	b .L93
	.cfi_endproc
.LFE52:
	.size	Con_DrawNotify, .-Con_DrawNotify
	.align 2
	.globl Con_DrawConsole
	.type	Con_DrawConsole, @function
Con_DrawConsole:
.LFB53:
	.loc 1 634 0
	.cfi_startproc
.LVL107:
	stwu 1,-48(1)
.LCFI34:
	.cfi_def_cfa_offset 48
	mflr 0
	stw 31,44(1)
	.loc 1 640 0
	mr. 31,3
	.cfi_offset 31, -4
	.cfi_register 65, 0
	.loc 1 634 0
	stw 22,8(1)
	mr 22,4
	.cfi_offset 22, -40
	stw 0,52(1)
	stw 23,12(1)
	stw 24,16(1)
	stw 25,20(1)
	stw 26,24(1)
	stw 27,28(1)
	stw 28,32(1)
	stw 29,36(1)
	stw 30,40(1)
	.loc 1 640 0
	ble- 0,.L102
	.cfi_offset 30, -8
	.cfi_offset 29, -12
	.cfi_offset 28, -16
	.cfi_offset 27, -20
	.cfi_offset 26, -24
	.cfi_offset 25, -28
	.cfi_offset 24, -32
	.cfi_offset 23, -36
	.cfi_offset 65, 4
	.loc 1 644 0
	lis 9,.LANCHOR1+32@ha
	lfs 13,.LANCHOR1+32@l(9)
	lis 9,.LC12@ha
	lfs 0,.LC12@l(9)
	fcmpu 7,13,0
	bne- 7,.L113
	.loc 1 647 0
	bl Draw_ConsoleBackground
.LVL108:
.L105:
	.loc 1 655 0
	lis 26,con_current@ha
	.loc 1 652 0
	addi 0,31,-16
	.loc 1 655 0
	lwz 11,con_current@l(26)
	.loc 1 652 0
	srawi 9,0,3
.LVL109:
	.loc 1 655 0
	subf 27,9,11
	addi 27,27,1
.LVL110:
	cmpw 7,11,27
	.loc 1 650 0
	lis 11,con_vislines@ha
	stw 31,con_vislines@l(11)
	.loc 1 655 0
	blt- 7,.L106
	.loc 1 653 0
	slwi 9,9,3
.LVL111:
	lis 23,con_backscroll@ha
	lis 28,con_linewidth@ha
	lis 24,con_text@ha
	lis 25,con_totallines@ha
	subf 29,9,0
	la 23,con_backscroll@l(23)
	la 28,con_linewidth@l(28)
	la 24,con_text@l(24)
	la 25,con_totallines@l(25)
	la 26,con_current@l(26)
.LVL112:
.L110:
	.loc 1 657 0
	lwz 0,0(23)
	.loc 1 660 0
	lwz 11,0(25)
	.loc 1 657 0
	subf 0,0,27
.LVL113:
	.loc 1 660 0
	lwz 30,0(24)
	nor 9,0,0
	srawi 9,9,31
	and 9,0,9
	lwz 0,0(28)
.LVL114:
	divw 10,9,11
	.loc 1 662 0
	cmpwi 7,0,0
	.loc 1 660 0
	mullw 11,10,11
	subf 9,11,9
	mullw 0,9,0
	add 30,30,0
.LVL115:
	.loc 1 662 0
	ble- 7,.L108
	.loc 1 633 0
	addi 30,30,-1
.LVL116:
	.loc 1 662 0
	li 31,0
.LVL117:
.L109:
	.loc 1 663 0 discriminator 2
	addi 31,31,1
	lbzu 5,1(30)
	slwi 3,31,3
	mr 4,29
	bl Draw_Character
.LVL118:
	.loc 1 662 0 discriminator 2
	lwz 0,0(28)
	cmpw 7,0,31
	bgt+ 7,.L109
.LVL119:
.L108:
	.loc 1 655 0
	lwz 0,0(26)
	addi 27,27,1
.LVL120:
	addi 29,29,8
.LVL121:
	cmpw 7,0,27
	bge+ 7,.L110
.LVL122:
.L106:
	.loc 1 667 0
	cmpwi 7,22,0
	beq+ 7,.L102
	.loc 1 669 0
	lwz 0,52(1)
	lwz 22,8(1)
	lwz 23,12(1)
	mtlr 0
	lwz 24,16(1)
	lwz 25,20(1)
	lwz 26,24(1)
	lwz 27,28(1)
.LVL123:
	lwz 28,32(1)
	lwz 29,36(1)
	lwz 30,40(1)
	lwz 31,44(1)
	addi 1,1,48
	.cfi_remember_state
.LCFI35:
	.cfi_def_cfa_offset 0
	.cfi_restore 31
	.cfi_restore 30
	.cfi_restore 29
	.cfi_restore 28
	.cfi_restore 27
	.cfi_restore 26
	.cfi_restore 25
	.cfi_restore 24
	.cfi_restore 23
	.cfi_restore 22
	.loc 1 668 0
	b Con_DrawInput
.L102:
.LCFI36:
	.cfi_restore_state
	.loc 1 669 0
	lwz 0,52(1)
	lwz 22,8(1)
	mtlr 0
	lwz 23,12(1)
	lwz 24,16(1)
	lwz 25,20(1)
	lwz 26,24(1)
	lwz 27,28(1)
	lwz 28,32(1)
	lwz 29,36(1)
	lwz 30,40(1)
	lwz 31,44(1)
	addi 1,1,48
	.cfi_remember_state
.LCFI37:
	.cfi_def_cfa_offset 0
	.cfi_restore 31
	.cfi_restore 30
	.cfi_restore 29
	.cfi_restore 28
	.cfi_restore 27
	.cfi_restore 26
	.cfi_restore 25
	.cfi_restore 24
	.cfi_restore 23
	.cfi_restore 22
	blr
.LVL124:
.L113:
.LCFI38:
	.cfi_restore_state
	.loc 1 645 0
	bl Draw_SpiralConsoleBackground
.LVL125:
	b .L105
	.cfi_endproc
.LFE53:
	.size	Con_DrawConsole, .-Con_DrawConsole
	.align 2
	.globl Con_NotifyBox
	.type	Con_NotifyBox, @function
Con_NotifyBox:
.LFB54:
	.loc 1 678 0
	.cfi_startproc
.LVL126:
	stwu 1,-32(1)
.LCFI39:
	.cfi_def_cfa_offset 32
	mflr 0
	stw 31,20(1)
	mr 31,3
	.cfi_offset 31, -12
	.cfi_register 65, 0
	.loc 1 682 0
	lis 3,.LC14@ha
.LVL127:
	.loc 1 678 0
	stw 0,36(1)
	.loc 1 682 0
	la 3,.LC14@l(3)
	.loc 1 678 0
	stw 29,12(1)
	stw 30,16(1)
	.loc 1 689 0
	lis 29,key_count@ha
	.cfi_offset 30, -16
	.cfi_offset 29, -20
	.cfi_offset 65, 4
	.loc 1 678 0
	stfd 31,24(1)
	.loc 1 682 0
	.cfi_offset 63, -8
	crxor 6,6,6
	bl Con_Printf
	.loc 1 684 0
	mr 3,31
	.loc 1 690 0
	lis 30,key_dest@ha
	.loc 1 684 0
	crxor 6,6,6
	bl Con_Printf
	.loc 1 686 0
	lis 3,.LC15@ha
	la 3,.LC15@l(3)
	lis 31,realtime@ha
.LVL128:
	crxor 6,6,6
	bl Con_Printf
	.loc 1 687 0
	lis 3,.LC16@ha
	la 3,.LC16@l(3)
	la 31,realtime@l(31)
	crxor 6,6,6
	bl Con_Printf
	.loc 1 689 0
	li 0,-2
	stw 0,key_count@l(29)
	.loc 1 690 0
	li 0,1
	stw 0,key_dest@l(30)
	la 29,key_count@l(29)
.L115:
	.loc 1 694 0 discriminator 1
	bl Sys_FloatTime
	fmr 31,1
.LVL129:
	.loc 1 695 0 discriminator 1
	bl SCR_UpdateScreen
.LVL130:
	.loc 1 696 0 discriminator 1
	bl Sys_SendKeyEvents
	.loc 1 697 0 discriminator 1
	bl Sys_FloatTime
.LVL131:
	.loc 1 699 0 discriminator 1
	lwz 0,0(29)
	.loc 1 698 0 discriminator 1
	fsub 31,1,31
.LVL132:
	lfd 0,0(31)
	.loc 1 699 0 discriminator 1
	cmpwi 7,0,0
	.loc 1 698 0 discriminator 1
	fadd 31,31,0
	stfd 31,0(31)
	.loc 1 699 0 discriminator 1
	blt+ 7,.L115
	.loc 1 701 0
	lis 3,.LC17@ha
	la 3,.LC17@l(3)
	crxor 6,6,6
	bl Con_Printf
.LVL133:
	.loc 1 702 0
	li 0,0
	stw 0,key_dest@l(30)
	.loc 1 703 0
	lis 9,.LC18@ha
	.loc 1 704 0
	lwz 0,36(1)
	.loc 1 703 0
	lfd 0,.LC18@l(9)
	.loc 1 704 0
	mtlr 0
	lwz 29,12(1)
	.loc 1 703 0
	stfd 0,0(31)
	.loc 1 704 0
	lwz 30,16(1)
	lwz 31,20(1)
	lfd 31,24(1)
	addi 1,1,32
.LCFI40:
	.cfi_def_cfa_offset 0
	.cfi_restore 63
	.cfi_restore 31
	.cfi_restore 30
	.cfi_restore 29
	blr
	.cfi_endproc
.LFE54:
	.size	Con_NotifyBox, .-Con_NotifyBox
	.comm	con_notifylines,4,4
	.comm	con_initialized,1,1
	.comm	con_debuglog,1,1
	.comm	con_vislines,4,4
	.comm	con_times,16,4
	.globl con_spiral
	.globl con_notifytime
	.globl con_text
	.comm	con_x,4,4
	.comm	con_current,4,4
	.comm	con_backscroll,4,4
	.comm	con_totallines,4,4
	.comm	con_forcedup,1,1
	.globl con_cursorspeed
	.comm	con_linewidth,4,4
	.comm	causticschain,4,4
	.section	.rodata.cst4,"aM",@progbits,4
	.align 2
.LC12:
	.4byte	0
	.section	.rodata.cst8,"aM",@progbits,8
	.align 3
.LC18:
	.4byte	0
	.4byte	0
	.section	".data"
	.align 2
	.set	.LANCHOR1,. + 0
	.type	con_notifytime, @object
	.size	con_notifytime, 20
con_notifytime:
	.long	.LC21
	.long	.LC22
	.zero	12
	.type	con_spiral, @object
	.size	con_spiral, 20
con_spiral:
	.long	.LC19
	.long	.LC20
	.byte	1
	.zero	11
	.section	.rodata.str1.4,"aMS",@progbits,1
	.align 2
.LC0:
	.string	"misc/talk.wav"
	.zero	2
.LC1:
	.string	"%s"
	.zero	1
.LC2:
	.string	"%s/qconsole.log"
.LC3:
	.string	"-condebug"
	.zero	2
.LC4:
	.string	"%s%s"
	.zero	3
.LC5:
	.string	"/qconsole.log"
	.zero	2
.LC6:
	.string	"context"
.LC7:
	.string	"Console initialized.\n"
	.zero	2
.LC8:
	.string	"toggleconsole"
	.zero	2
.LC9:
	.string	"messagemode"
.LC10:
	.string	"messagemode2"
	.zero	3
.LC11:
	.string	"clear"
	.zero	2
.LC13:
	.string	"say:"
	.zero	3
.LC14:
	.string	"\n\n\035\036\036\036\036\036\036\036\036\036\036\036\036\036\036\036\036\036\036\036\036\036\036\036\036\036\036\036\036\036\036\036\036\036\036\036\037\n"
	.zero	3
.LC15:
	.string	"Press a key.\n"
	.zero	2
.LC16:
	.string	"\035\036\036\036\036\036\036\036\036\036\036\036\036\036\036\036\036\036\036\036\036\036\036\036\036\036\036\036\036\036\036\036\036\036\036\036\037\n"
	.zero	1
.LC17:
	.string	"\n"
	.zero	2
.LC19:
	.string	"con_spiral"
	.zero	1
.LC20:
	.string	"0"
	.zero	2
.LC21:
	.string	"con_notifytime"
	.zero	1
.LC22:
	.string	"3"
	.section	.sbss,"aw",@nobits
	.align 2
	.type	con_text, @object
	.size	con_text, 4
con_text:
	.zero	4
	.section	.sdata,"aw",@progbits
	.align 2
	.type	con_cursorspeed, @object
	.size	con_cursorspeed, 4
con_cursorspeed:
	.long	1082130432
	.section	".bss"
	.align 2
	.set	.LANCHOR0,. + 0
	.type	cr.15310, @object
	.size	cr.15310, 4
cr.15310:
	.zero	4
	.type	data.15327, @object
	.size	data.15327, 4096
data.15327:
	.zero	4096
	.type	inupdate.15334, @object
	.size	inupdate.15334, 1
inupdate.15334:
	.zero	1
	.section	".text"
.Letext0:
	.file 2 "c:\\utils\\devkitpro\\devkitppc\\bin\\../lib/gcc/powerpc-eabi/4.6.3/../../../../powerpc-eabi/include/machine/_types.h"
	.file 3 "c:\\utils\\devkitpro\\devkitppc\\bin\\../lib/gcc/powerpc-eabi/4.6.3/../../../../powerpc-eabi/include/sys/lock.h"
	.file 4 "c:\\utils\\devkitpro\\devkitppc\\bin\\../lib/gcc/powerpc-eabi/4.6.3/include/stddef.h"
	.file 5 "c:\\utils\\devkitpro\\devkitppc\\bin\\../lib/gcc/powerpc-eabi/4.6.3/../../../../powerpc-eabi/include/sys/_types.h"
	.file 6 "c:\\utils\\devkitpro\\devkitppc\\bin\\../lib/gcc/powerpc-eabi/4.6.3/../../../../powerpc-eabi/include/sys/reent.h"
	.file 7 "c:\\utils\\devkitpro\\devkitppc\\bin\\../lib/gcc/powerpc-eabi/4.6.3/include/stdarg.h"
	.file 8 "<built-in>"
	.file 9 "c:\\utils\\devkitpro\\devkitppc\\bin\\../lib/gcc/powerpc-eabi/4.6.3/../../../../powerpc-eabi/include/stdio.h"
	.file 10 "d:/Data/Nintendo/TenebraeGX/src/common.h"
	.file 11 "d:/Data/Nintendo/TenebraeGX/src/vid.h"
	.file 12 "d:/Data/Nintendo/TenebraeGX/src/mathlib.h"
	.file 13 "d:/Data/Nintendo/TenebraeGX/src/cvar.h"
	.file 14 "d:/Data/Nintendo/TenebraeGX/src/net.h"
	.file 15 "d:/Data/Nintendo/TenebraeGX/src/client.h"
	.file 16 "d:/Data/Nintendo/TenebraeGX/src/gl_model.h"
	.file 17 "d:/Data/Nintendo/TenebraeGX/src/keys.h"
	.file 18 "c:/utils/devkitPro/libogc/include/ogc/gx.h"
	.file 19 "d:/Data/Nintendo/TenebraeGX/src/screen.h"
	.file 20 "d:/Data/Nintendo/TenebraeGX/src/glquake.h"
	.file 21 "d:/Data/Nintendo/TenebraeGX/src/quakedef.h"