	.file	"cvar.c"
	.section	".text"
.Ltext0:
	.cfi_sections	.debug_frame
	.align 2
	.globl Cvar_FindVar
	.type	Cvar_FindVar, @function
Cvar_FindVar:
.LFB38:
	.file 1 "d:/Data/Nintendo/TenebraeGX/src/cvar.c"
	.loc 1 33 0
	.cfi_startproc
.LVL0:
	stwu 1,-16(1)
.LCFI0:
	.cfi_def_cfa_offset 16
	.loc 1 36 0
	lis 9,cvar_vars@ha
	.loc 1 33 0
	mflr 0
	stw 31,12(1)
	.loc 1 36 0
	lwz 31,cvar_vars@l(9)
	.cfi_offset 31, -4
	.cfi_register 65, 0
.LVL1:
	.loc 1 33 0
	stw 30,8(1)
	mr 30,3
	.cfi_offset 30, -8
	.loc 1 36 0
	cmpwi 7,31,0
	.loc 1 33 0
	stw 0,20(1)
	.loc 1 36 0
	bne+ 7,.L4
	.cfi_offset 65, 4
	b .L2
.LVL2:
.L7:
	lwz 31,16(31)
.LVL3:
	cmpwi 7,31,0
	beq- 7,.L2
.L4:
	.loc 1 37 0
	lwz 4,0(31)
	mr 3,30
	bl Q_strcmp
	cmpwi 7,3,0
	bne+ 7,.L7
.L2:
	.loc 1 41 0
	lwz 0,20(1)
	mr 3,31
	lwz 30,8(1)
.LVL4:
	mtlr 0
	lwz 31,12(1)
.LVL5:
	addi 1,1,16
.LCFI1:
	.cfi_def_cfa_offset 0
	.cfi_restore 31
	.cfi_restore 30
	blr
	.cfi_endproc
.LFE38:
	.size	Cvar_FindVar, .-Cvar_FindVar
	.align 2
	.globl Cvar_VariableValue
	.type	Cvar_VariableValue, @function
Cvar_VariableValue:
.LFB39:
	.loc 1 49 0
	.cfi_startproc
.LVL6:
	mflr 0
	stwu 1,-8(1)
.LCFI2:
	.cfi_def_cfa_offset 8
	.cfi_register 65, 0
	stw 0,12(1)
	.loc 1 52 0
	.cfi_offset 65, 4
	bl Cvar_FindVar
.LVL7:
	.loc 1 53 0
	cmpwi 0,3,0
	.loc 1 54 0
	lis 9,.LC0@ha
	lfs 1,.LC0@l(9)
	.loc 1 53 0
	beq- 0,.L9
	.loc 1 55 0
	lwz 3,4(3)
.LVL8:
	bl Q_atof
.L9:
	.loc 1 56 0
	lwz 0,12(1)
	addi 1,1,8
.LCFI3:
	.cfi_def_cfa_offset 0
	mtlr 0
	blr
	.cfi_endproc
.LFE39:
	.size	Cvar_VariableValue, .-Cvar_VariableValue
	.align 2
	.globl Cvar_VariableString
	.type	Cvar_VariableString, @function
Cvar_VariableString:
.LFB40:
	.loc 1 65 0
	.cfi_startproc
.LVL9:
	mflr 0
	stwu 1,-8(1)
.LCFI4:
	.cfi_def_cfa_offset 8
	.cfi_register 65, 0
	stw 0,12(1)
	.loc 1 68 0
	.cfi_offset 65, 4
	bl Cvar_FindVar
.LVL10:
	.loc 1 69 0
	cmpwi 0,3,0
	beq- 0,.L14
	.loc 1 72 0
	lwz 0,12(1)
	.loc 1 71 0
	lwz 3,4(3)
.LVL11:
	.loc 1 72 0
	mtlr 0
	addi 1,1,8
	.cfi_remember_state
.LCFI5:
	.cfi_def_cfa_offset 0
	blr
.LVL12:
.L14:
.LCFI6:
	.cfi_restore_state
	lwz 0,12(1)
	.loc 1 70 0
	lis 9,cvar_null_string@ha
	lwz 3,cvar_null_string@l(9)
.LVL13:
	.loc 1 72 0
	mtlr 0
	addi 1,1,8
.LCFI7:
	.cfi_def_cfa_offset 0
	blr
	.cfi_endproc
.LFE40:
	.size	Cvar_VariableString, .-Cvar_VariableString
	.align 2
	.globl Cvar_CompleteVariable
	.type	Cvar_CompleteVariable, @function
Cvar_CompleteVariable:
.LFB41:
	.loc 1 81 0
	.cfi_startproc
.LVL14:
	mflr 0
	stwu 1,-24(1)
.LCFI8:
	.cfi_def_cfa_offset 24
	.cfi_register 65, 0
	stw 29,12(1)
	mr 29,3
	.cfi_offset 29, -12
	stw 30,16(1)
	stw 0,28(1)
	stw 31,20(1)
	.loc 1 85 0
	.cfi_offset 31, -4
	.cfi_offset 65, 4
	.cfi_offset 30, -8
	bl Q_strlen
.LVL15:
	.loc 1 87 0
	mr. 30,3
	.loc 1 88 0
	li 3,0
.LVL16:
	.loc 1 87 0
	beq- 0,.L16
	.loc 1 91 0
	lis 9,cvar_vars@ha
	lwz 31,cvar_vars@l(9)
.LVL17:
	cmpwi 7,31,0
	bne+ 7,.L21
	b .L16
.LVL18:
.L17:
	lwz 31,16(31)
.LVL19:
	cmpwi 7,31,0
	beq- 7,.L23
.L21:
	.loc 1 92 0
	lwz 4,0(31)
	mr 3,29
	mr 5,30
	bl Q_strncmp
	cmpwi 7,3,0
	bne+ 7,.L17
	.loc 1 93 0
	lwz 3,0(31)
.LVL20:
.L16:
	.loc 1 96 0
	lwz 0,28(1)
	lwz 29,12(1)
.LVL21:
	mtlr 0
	lwz 30,16(1)
.LVL22:
	lwz 31,20(1)
	addi 1,1,24
	.cfi_remember_state
.LCFI9:
	.cfi_def_cfa_offset 0
	.cfi_restore 31
	.cfi_restore 30
	.cfi_restore 29
	blr
.LVL23:
.L23:
.LCFI10:
	.cfi_restore_state
	lwz 0,28(1)
	.loc 1 95 0
	li 3,0
	.loc 1 96 0
	lwz 29,12(1)
.LVL24:
	mtlr 0
	lwz 30,16(1)
.LVL25:
	lwz 31,20(1)
.LVL26:
	addi 1,1,24
	.cfi_restore 29
	.cfi_restore 30
	.cfi_restore 31
.LCFI11:
	.cfi_def_cfa_offset 0
	blr
	.cfi_endproc
.LFE41:
	.size	Cvar_CompleteVariable, .-Cvar_CompleteVariable
	.align 2
	.globl Cvar_CompleteCountPossible
	.type	Cvar_CompleteCountPossible, @function
Cvar_CompleteCountPossible:
.LFB42:
	.loc 1 104 0
	.cfi_startproc
.LVL27:
	mflr 0
	stwu 1,-24(1)
.LCFI12:
	.cfi_def_cfa_offset 24
	.cfi_register 65, 0
	stw 28,8(1)
	mr 28,3
	.cfi_offset 28, -16
	stw 29,12(1)
	stw 30,16(1)
	.loc 1 114 0
	li 30,0
	.cfi_offset 30, -8
	.cfi_offset 29, -12
	.loc 1 104 0
	stw 0,28(1)
	stw 31,20(1)
	.loc 1 111 0
	.cfi_offset 31, -4
	.cfi_offset 65, 4
	bl Q_strlen
.LVL28:
	.loc 1 113 0
	mr. 29,3
	beq- 0,.L25
	.loc 1 117 0
	lis 9,cvar_vars@ha
	lwz 31,cvar_vars@l(9)
.LVL29:
	cmpwi 7,31,0
	beq- 7,.L25
.LVL30:
.L27:
	.loc 1 118 0
	lwz 4,0(31)
	mr 3,28
	mr 5,29
	bl Q_strncmp
	.loc 1 117 0
	lwz 31,16(31)
.LVL31:
	.loc 1 119 0
	subfic 0,3,0
	addze 0,30
	.loc 1 117 0
	cmpwi 7,31,0
	.loc 1 119 0
	mr 30,0
.LVL32:
	.loc 1 117 0
	bne+ 7,.L27
.LVL33:
.L25:
	.loc 1 121 0
	lwz 0,28(1)
	mr 3,30
	lwz 28,8(1)
.LVL34:
	mtlr 0
	lwz 29,12(1)
.LVL35:
	lwz 30,16(1)
	lwz 31,20(1)
	addi 1,1,24
.LCFI13:
	.cfi_def_cfa_offset 0
	.cfi_restore 31
	.cfi_restore 30
	.cfi_restore 29
	.cfi_restore 28
	blr
	.cfi_endproc
.LFE42:
	.size	Cvar_CompleteCountPossible, .-Cvar_CompleteCountPossible
	.align 2
	.globl Cvar_CompletePrintPossible
	.type	Cvar_CompletePrintPossible, @function
Cvar_CompletePrintPossible:
.LFB43:
	.loc 1 129 0
	.cfi_startproc
.LVL36:
	mflr 0
	stwu 1,-2128(1)
.LCFI14:
	.cfi_def_cfa_offset 2128
	.cfi_register 65, 0
	stw 25,2100(1)
	stw 0,2132(1)
	stw 26,2104(1)
	mr 26,3
	.cfi_offset 26, -24
	.cfi_offset 65, 4
	.cfi_offset 25, -28
	stw 27,2108(1)
	stw 29,2116(1)
	stw 30,2120(1)
	stw 22,2088(1)
	stw 23,2092(1)
	stw 24,2096(1)
	stw 28,2112(1)
	stw 31,2124(1)
	.loc 1 138 0
	.cfi_offset 31, -4
	.cfi_offset 28, -16
	.cfi_offset 24, -32
	.cfi_offset 23, -36
	.cfi_offset 22, -40
	.cfi_offset 30, -8
	.cfi_offset 29, -12
	.cfi_offset 27, -20
	bl Q_strlen
.LVL37:
	.loc 1 140 0
	lis 4,.LC1@ha
	.loc 1 138 0
	mr 27,3
.LVL38:
	.loc 1 140 0
	la 4,.LC1@l(4)
	addi 3,1,40
.LVL39:
	bl Q_strcpy
	.loc 1 146 0
	lis 9,cvar_vars@ha
	lwz 29,cvar_vars@l(9)
	.loc 1 143 0
	lis 9,vid+20@ha
	lwz 25,vid+20@l(9)
	.loc 1 146 0
	cmpwi 7,29,0
	.loc 1 143 0
	srwi 25,25,3
	addi 30,25,-3
.LVL40:
	.loc 1 146 0
	beq- 7,.L32
	lis 28,.LC2@ha
	li 31,0
	.loc 1 165 0
	addi 25,25,-26
	la 28,.LC2@l(28)
	b .L39
.LVL41:
.L33:
	.loc 1 146 0
	lwz 29,16(29)
.LVL42:
	cmpwi 7,29,0
	beq- 7,.L32
.LVL43:
.L39:
	.loc 1 147 0
	lwz 4,0(29)
	mr 3,26
	mr 5,27
	bl Q_strncmp
	cmpwi 7,3,0
	bne+ 7,.L33
	.loc 1 149 0
	lwz 4,0(29)
	addi 3,1,8
	bl Q_strcpy
	.loc 1 151 0
	addi 3,1,8
	bl Q_strlen
	.loc 1 155 0
	cmpwi 7,3,19
	.loc 1 151 0
	mr 22,3
.LVL44:
	.loc 1 152 0
	add 31,31,3
.LVL45:
	.loc 1 155 0
	bgt- 7,.L34
	.loc 1 128 0
	subf 23,3,31
	.loc 1 152 0
	mr 24,31
	.loc 1 128 0
	addi 23,23,20
	b .L36
.LVL46:
.L35:
	.loc 1 155 0
	cmpw 7,24,23
	beq- 7,.L45
.L36:
	.loc 1 157 0
	cmpw 7,30,24
	.loc 1 160 0
	addi 24,24,1
.LVL47:
	.loc 1 157 0
	ble+ 7,.L35
	.loc 1 158 0
	addi 3,1,8
	mr 4,28
	bl Q_strcat
.LVL48:
	.loc 1 155 0
	cmpw 7,24,23
	bne+ 7,.L36
.L45:
	.loc 1 128 0
	subf 31,22,31
	addi 31,31,20
.LVL49:
.L34:
	.loc 1 163 0
	addi 3,1,40
	addi 4,1,8
	bl Q_strcat
	.loc 1 165 0
	cmpw 7,25,31
	bgt- 7,.L37
.LVL50:
	.loc 1 166 0 discriminator 1
	cmpw 7,30,31
	ble- 7,.L40
.L38:
	.loc 1 167 0 discriminator 2
	addi 3,1,40
	mr 4,28
	.loc 1 166 0 discriminator 2
	addi 31,31,1
.LVL51:
	.loc 1 167 0 discriminator 2
	bl Q_strcat
.LVL52:
	.loc 1 166 0 discriminator 2
	cmpw 7,30,31
	bgt+ 7,.L38
.L40:
	.loc 1 146 0
	lwz 29,16(29)
.LVL53:
	.loc 1 170 0
	li 31,0
.LVL54:
	.loc 1 146 0
	cmpwi 7,29,0
	bne+ 7,.L39
.LVL55:
.L32:
	.loc 1 172 0
	lis 3,.LC3@ha
	addi 4,1,40
	la 3,.LC3@l(3)
	crxor 6,6,6
	bl Con_Printf
	.loc 1 173 0
	lwz 0,2132(1)
	lwz 22,2088(1)
	mtlr 0
	lwz 23,2092(1)
	lwz 24,2096(1)
	lwz 25,2100(1)
	lwz 26,2104(1)
.LVL56:
	lwz 27,2108(1)
.LVL57:
	lwz 28,2112(1)
	lwz 29,2116(1)
.LVL58:
	lwz 30,2120(1)
.LVL59:
	lwz 31,2124(1)
	addi 1,1,2128
	.cfi_remember_state
.LCFI15:
	.cfi_def_cfa_offset 0
	.cfi_restore 31
	.cfi_restore 30
	.cfi_restore 29
	.cfi_restore 28
	.cfi_restore 27
	.cfi_restore 26
	.cfi_restore 25
	.cfi_restore 24
	.cfi_restore 23
	.cfi_restore 22
	blr
.LVL60:
.L37:
.LCFI16:
	.cfi_restore_state
	.loc 1 170 0
	cmpw 7,30,31
	mfcr 0
	rlwinm 0,0,30,1
	neg 0,0
	and 31,31,0
.LVL61:
	b .L33
	.cfi_endproc
.LFE43:
	.size	Cvar_CompletePrintPossible, .-Cvar_CompletePrintPossible
	.align 2
	.globl Cvar_Set
	.type	Cvar_Set, @function
Cvar_Set:
.LFB44:
	.loc 1 181 0
	.cfi_startproc
.LVL62:
	mflr 0
	stwu 1,-24(1)
.LCFI17:
	.cfi_def_cfa_offset 24
	.cfi_register 65, 0
	stw 29,12(1)
	mr 29,3
	.cfi_offset 29, -12
	stw 30,16(1)
	mr 30,4
	.cfi_offset 30, -8
	stw 31,20(1)
	stw 0,28(1)
	stw 28,8(1)
	.loc 1 185 0
	.cfi_offset 28, -16
	.cfi_offset 65, 4
	.cfi_offset 31, -4
	bl Cvar_FindVar
.LVL63:
	.loc 1 186 0
	mr. 31,3
	beq- 0,.L51
	.loc 1 202 0
	lwz 3,4(31)
.LVL64:
	mr 4,30
	bl Q_strcmp
.LVL65:
	.loc 1 204 0
	cmpwi 7,3,0
	beq- 7,.L46
	.loc 1 207 0
	lwz 29,4(31)
.LVL66:
	cmpwi 7,29,0
	beq- 7,.L49
	.loc 1 207 0 is_stmt 0 discriminator 1
	mr 3,29
.LVL67:
	bl strlen
	mr 28,3
	mr 3,30
	bl strlen
	cmpw 7,28,3
	beq- 7,.L50
.L49:
	.loc 1 209 0 is_stmt 1
	mr 3,29
	bl Z_Free
	.loc 1 210 0
	mr 3,30
	bl strlen
	addi 3,3,1
	bl Z_Malloc
	stw 3,4(31)
	mr 29,3
.L50:
	.loc 1 215 0
	mr 3,29
	mr 4,30
	bl Q_strcpy
	.loc 1 216 0
	lwz 3,4(31)
	bl Q_atof
	.loc 1 217 0
	lbz 0,9(31)
	.loc 1 216 0
	stfs 1,12(31)
	.loc 1 217 0
	cmpwi 7,0,0
	beq- 7,.L46
	.loc 1 219 0
	lis 9,sv@ha
	lbz 0,sv@l(9)
	cmpwi 7,0,0
	bne- 7,.L52
.L46:
	.loc 1 222 0
	lwz 0,28(1)
	lwz 28,8(1)
	mtlr 0
	lwz 29,12(1)
	lwz 30,16(1)
.LVL68:
	lwz 31,20(1)
.LVL69:
	addi 1,1,24
	.cfi_remember_state
.LCFI18:
	.cfi_def_cfa_offset 0
	.cfi_restore 31
	.cfi_restore 30
	.cfi_restore 29
	.cfi_restore 28
	blr
.LVL70:
.L52:
.LCFI19:
	.cfi_restore_state
	.loc 1 220 0
	lwz 4,0(31)
	lis 3,.LC5@ha
	lwz 5,4(31)
	la 3,.LC5@l(3)
	crxor 6,6,6
	bl SV_BroadcastPrintf
	b .L46
.LVL71:
.L51:
	.loc 1 188 0
	lis 3,.LC4@ha
	mr 4,29
	la 3,.LC4@l(3)
	crxor 6,6,6
	bl Con_Printf
	.loc 1 222 0
	lwz 0,28(1)
	lwz 28,8(1)
	mtlr 0
	lwz 29,12(1)
.LVL72:
	lwz 30,16(1)
.LVL73:
	lwz 31,20(1)
.LVL74:
	addi 1,1,24
	.cfi_restore 28
	.cfi_restore 29
	.cfi_restore 30
	.cfi_restore 31
.LCFI20:
	.cfi_def_cfa_offset 0
	blr
	.cfi_endproc
.LFE44:
	.size	Cvar_Set, .-Cvar_Set
	.align 2
	.globl Cvar_SetValue
	.type	Cvar_SetValue, @function
Cvar_SetValue:
.LFB45:
	.loc 1 230 0
	.cfi_startproc
.LVL75:
	mflr 0
	stwu 1,-64(1)
.LCFI21:
	.cfi_def_cfa_offset 64
	.cfi_register 65, 0
	.loc 1 233 0
	fctiwz 0,1
	addi 9,1,48
	.loc 1 230 0
	stw 30,56(1)
	stw 0,68(1)
	.loc 1 233 0
	lis 0,0x4330
	.cfi_offset 65, 4
	.cfi_offset 30, -8
	stw 0,40(1)
	.loc 1 230 0
	mr 30,3
	stw 31,60(1)
	.loc 1 234 0
	addi 31,1,8
	.cfi_offset 31, -4
	.loc 1 233 0
	stfiwx 0,0,9
	lis 9,.LC7@ha
	lfs 0,.LC7@l(9)
	.loc 1 234 0
	mr 3,31
.LVL76:
	.loc 1 233 0
	lwz 5,48(1)
	xoris 0,5,0x8000
	stw 0,44(1)
	lfd 13,40(1)
	fsub 0,13,0
	frsp 0,0
	fcmpu 7,0,1
	beq- 7,.L56
	.loc 1 236 0
	lis 4,.LC9@ha
	la 4,.LC9@l(4)
	creqv 6,6,6
	bl sprintf
.LVL77:
	.loc 1 238 0
	mr 3,30
	mr 4,31
	bl Cvar_Set
	.loc 1 239 0
	lwz 0,68(1)
	lwz 30,56(1)
.LVL78:
	mtlr 0
	lwz 31,60(1)
	addi 1,1,64
	.cfi_remember_state
.LCFI22:
	.cfi_def_cfa_offset 0
	.cfi_restore 31
	.cfi_restore 30
	blr
.LVL79:
.L56:
.LCFI23:
	.cfi_restore_state
	.loc 1 234 0
	lis 4,.LC8@ha
	la 4,.LC8@l(4)
	crxor 6,6,6
	bl sprintf
.LVL80:
	.loc 1 238 0
	mr 3,30
	mr 4,31
	bl Cvar_Set
	.loc 1 239 0
	lwz 0,68(1)
	lwz 30,56(1)
.LVL81:
	mtlr 0
	lwz 31,60(1)
	addi 1,1,64
	.cfi_restore 30
	.cfi_restore 31
.LCFI24:
	.cfi_def_cfa_offset 0
	blr
	.cfi_endproc
.LFE45:
	.size	Cvar_SetValue, .-Cvar_SetValue
	.align 2
	.globl Cvar_RegisterVariable
	.type	Cvar_RegisterVariable, @function
Cvar_RegisterVariable:
.LFB46:
	.loc 1 250 0
	.cfi_startproc
.LVL82:
	mflr 0
	stwu 1,-16(1)
.LCFI25:
	.cfi_def_cfa_offset 16
	.cfi_register 65, 0
	stw 31,12(1)
	mr 31,3
	.cfi_offset 31, -4
	stw 0,20(1)
	stw 30,8(1)
	.loc 1 254 0
	lwz 3,0(3)
.LVL83:
	.cfi_offset 30, -8
	.cfi_offset 65, 4
	bl Cvar_FindVar
	cmpwi 7,3,0
	beq- 7,.L58
	.loc 1 256 0
	lis 3,.LC10@ha
	lwz 4,0(31)
	la 3,.LC10@l(3)
	crxor 6,6,6
	bl Con_Printf
.L57:
	.loc 1 278 0
	lwz 0,20(1)
	lwz 30,8(1)
	mtlr 0
	lwz 31,12(1)
.LVL84:
	addi 1,1,16
	.cfi_remember_state
.LCFI26:
	.cfi_def_cfa_offset 0
	.cfi_restore 31
	.cfi_restore 30
	blr
.LVL85:
.L58:
.LCFI27:
	.cfi_restore_state
	.loc 1 261 0
	lwz 3,0(31)
	bl Cmd_Exists
	cmpwi 7,3,0
	bne- 7,.L61
	.loc 1 268 0
	lwz 30,4(31)
.LVL86:
	.loc 1 269 0
	mr 3,30
	bl Q_strlen
.LVL87:
	addi 3,3,1
	bl Z_Malloc
	.loc 1 270 0
	mr 4,30
	.loc 1 269 0
	stw 3,4(31)
	.loc 1 270 0
	bl Q_strcpy
	.loc 1 271 0
	lwz 3,4(31)
	bl Q_atof
	.loc 1 273 0
	lwz 5,4(31)
	.loc 1 271 0
	stfs 1,12(31)
	.loc 1 273 0
	lis 3,.LC12@ha
	lwz 4,0(31)
	la 3,.LC12@l(3)
	mr 6,5
	crxor 6,6,6
	bl Sys_Printf
	.loc 1 276 0
	lis 9,cvar_vars@ha
	lwz 0,cvar_vars@l(9)
	.loc 1 278 0
	lwz 30,8(1)
.LVL88:
	.loc 1 276 0
	stw 0,16(31)
	.loc 1 278 0
	lwz 0,20(1)
	.loc 1 277 0
	stw 31,cvar_vars@l(9)
	.loc 1 278 0
	mtlr 0
	lwz 31,12(1)
.LVL89:
	addi 1,1,16
	.cfi_remember_state
	.cfi_restore 30
	.cfi_restore 31
.LCFI28:
	.cfi_def_cfa_offset 0
	blr
.LVL90:
.L61:
.LCFI29:
	.cfi_restore_state
	.loc 1 263 0
	lwz 4,0(31)
	lis 3,.LC11@ha
	la 3,.LC11@l(3)
	crxor 6,6,6
	bl Con_Printf
	.loc 1 264 0
	b .L57
	.cfi_endproc
.LFE46:
	.size	Cvar_RegisterVariable, .-Cvar_RegisterVariable
	.align 2
	.globl Cvar_Command
	.type	Cvar_Command, @function
Cvar_Command:
.LFB47:
	.loc 1 288 0
	.cfi_startproc
	mflr 0
	stwu 1,-16(1)
.LCFI30:
	.cfi_def_cfa_offset 16
	.cfi_register 65, 0
	.loc 1 292 0
	li 3,0
	.loc 1 288 0
	stw 31,12(1)
	stw 0,20(1)
	.loc 1 292 0
	.cfi_offset 65, 4
	.cfi_offset 31, -4
	bl Cmd_Argv
	bl Cvar_FindVar
.LVL91:
	.loc 1 293 0
	mr. 31,3
	.loc 1 294 0
	li 3,0
.LVL92:
	.loc 1 293 0
	beq- 0,.L63
	.loc 1 297 0
	bl Cmd_Argc
	cmpwi 7,3,1
	beq- 7,.L66
	.loc 1 303 0
	lwz 31,0(31)
.LVL93:
	li 3,1
	bl Cmd_Argv
	mr 4,3
	mr 3,31
	bl Cvar_Set
	.loc 1 304 0
	li 3,1
.L63:
	.loc 1 305 0
	lwz 0,20(1)
	lwz 31,12(1)
	mtlr 0
	addi 1,1,16
	.cfi_remember_state
.LCFI31:
	.cfi_def_cfa_offset 0
	.cfi_restore 31
	blr
.LVL94:
.L66:
.LCFI32:
	.cfi_restore_state
	.loc 1 299 0
	lwz 4,0(31)
	lis 3,.LC13@ha
	lwz 5,4(31)
	la 3,.LC13@l(3)
	crxor 6,6,6
	bl Con_Printf
	.loc 1 305 0
	lwz 0,20(1)
	lwz 31,12(1)
.LVL95:
	.loc 1 300 0
	li 3,1
	.loc 1 305 0
	mtlr 0
	addi 1,1,16
	.cfi_restore 31
.LCFI33:
	.cfi_def_cfa_offset 0
	blr
	.cfi_endproc
.LFE47:
	.size	Cvar_Command, .-Cvar_Command
	.align 2
	.globl Cvar_WriteVariables
	.type	Cvar_WriteVariables, @function
Cvar_WriteVariables:
.LFB48:
	.loc 1 317 0
	.cfi_startproc
.LVL96:
	stwu 1,-24(1)
.LCFI34:
	.cfi_def_cfa_offset 24
	.loc 1 320 0
	lis 9,cvar_vars@ha
	.loc 1 317 0
	mflr 0
	stw 31,20(1)
	.loc 1 320 0
	lwz 31,cvar_vars@l(9)
	.cfi_offset 31, -4
	.cfi_register 65, 0
.LVL97:
	.loc 1 317 0
	stw 30,16(1)
	mr 30,3
	.cfi_offset 30, -8
	.loc 1 320 0
	cmpwi 7,31,0
	.loc 1 317 0
	stw 0,28(1)
	stw 29,12(1)
	.loc 1 320 0
	beq- 7,.L67
	.cfi_offset 29, -12
	.cfi_offset 65, 4
	.loc 1 322 0
	lis 29,.LC14@ha
	la 29,.LC14@l(29)
	b .L71
.LVL98:
.L69:
	.loc 1 320 0
	lwz 31,16(31)
.LVL99:
	cmpwi 7,31,0
	beq- 7,.L67
.L71:
	.loc 1 321 0
	lbz 0,8(31)
	cmpwi 7,0,0
	beq+ 7,.L69
	.loc 1 322 0
	lwz 5,0(31)
	mr 3,30
	lwz 6,4(31)
	mr 4,29
	crxor 6,6,6
	bl fprintf
	.loc 1 320 0
	lwz 31,16(31)
.LVL100:
	cmpwi 7,31,0
	bne+ 7,.L71
.L67:
	.loc 1 323 0
	lwz 0,28(1)
	lwz 29,12(1)
	mtlr 0
	lwz 30,16(1)
.LVL101:
	lwz 31,20(1)
.LVL102:
	addi 1,1,24
.LCFI35:
	.cfi_def_cfa_offset 0
	.cfi_restore 31
	.cfi_restore 30
	.cfi_restore 29
	blr
	.cfi_endproc
.LFE48:
	.size	Cvar_WriteVariables, .-Cvar_WriteVariables
	.align 2
	.globl Cvar_List_f
	.type	Cvar_List_f, @function
Cvar_List_f:
.LFB49:
	.loc 1 333 0
	.cfi_startproc
	mflr 0
	stwu 1,-32(1)
.LCFI36:
	.cfi_def_cfa_offset 32
	.cfi_register 65, 0
	mfcr 12
	stw 28,16(1)
	.loc 1 347 0
	li 28,0
	.cfi_offset 28, -16
	.cfi_register 70, 12
	.loc 1 333 0
	stw 29,20(1)
	.loc 1 346 0
	li 29,0
	.cfi_offset 29, -12
	.loc 1 333 0
	stw 0,36(1)
	stw 27,12(1)
	stw 30,24(1)
	stw 31,28(1)
	stw 12,8(1)
	.loc 1 339 0
	.cfi_offset 70, -24
	.cfi_offset 31, -4
	.cfi_offset 30, -8
	.cfi_offset 27, -20
	.cfi_offset 65, 4
	bl Cmd_Argc
	cmpwi 7,3,1
	ble- 7,.L74
	.loc 1 341 0
	li 3,1
	bl Cmd_Argv
	mr 29,3
.LVL103:
	.loc 1 342 0
	bl Q_strlen
.LVL104:
	mr 28,3
.LVL105:
.L74:
	.loc 1 351 0
	lis 9,cvar_vars@ha
	.loc 1 350 0
	li 30,0
	.loc 1 351 0
	lwz 31,cvar_vars@l(9)
.LVL106:
	cmpwi 4,29,0
	cmpwi 7,31,0
	beq- 7,.L75
	.loc 1 357 0
	lis 27,.LC13@ha
	la 27,.LC13@l(27)
.LVL107:
.L78:
	.loc 1 353 0
	mr 5,28
	mr 3,29
	beq- 4,.L76
	.loc 1 353 0 is_stmt 0 discriminator 1
	lwz 4,0(31)
	bl Q_strncmp
	cmpwi 7,3,0
	bne- 7,.L77
.L76:
	.loc 1 357 0 is_stmt 1
	lwz 4,0(31)
	mr 3,27
	lwz 5,4(31)
	.loc 1 358 0
	addi 30,30,1
	.loc 1 357 0
	crxor 6,6,6
	bl Con_Printf
.LVL108:
.L77:
	.loc 1 351 0
	lwz 31,16(31)
.LVL109:
	cmpwi 7,31,0
	bne+ 7,.L78
.LVL110:
.L75:
	.loc 1 361 0
	lis 3,.LC15@ha
	mr 4,30
	la 3,.LC15@l(3)
	crxor 6,6,6
	bl Con_Printf
	.loc 1 362 0
	beq- 4,.L79
	.loc 1 364 0
	lis 3,.LC16@ha
	mr 4,29
	la 3,.LC16@l(3)
	crxor 6,6,6
	bl Con_Printf
.L79:
	.loc 1 366 0
	lis 3,.LC17@ha
	la 3,.LC17@l(3)
	crxor 6,6,6
	bl Con_Printf
	.loc 1 367 0
	lwz 0,36(1)
	lwz 12,8(1)
	mtlr 0
	lwz 27,12(1)
	lwz 28,16(1)
.LVL111:
	mtcrf 8,12
	lwz 29,20(1)
.LVL112:
	lwz 30,24(1)
	lwz 31,28(1)
.LVL113:
	addi 1,1,32
.LCFI37:
	.cfi_def_cfa_offset 0
	.cfi_restore 70
	.cfi_restore 31
	.cfi_restore 30
	.cfi_restore 29
	.cfi_restore 28
	.cfi_restore 27
	blr
	.cfi_endproc
.LFE49:
	.size	Cvar_List_f, .-Cvar_List_f
	.globl cvar_null_string
	.comm	cvar_vars,4,4
	.comm	causticschain,4,4
	.section	.rodata.cst4,"aM",@progbits,4
	.align 2
.LC0:
	.4byte	0
.LC7:
	.4byte	1501560836
	.section	.rodata.str1.4,"aMS",@progbits,1
	.align 2
.LC1:
	.string	""
	.zero	3
.LC2:
	.string	" "
	.zero	2
.LC3:
	.string	"%s\n\n"
	.zero	3
.LC4:
	.string	"Cvar_Set: variable %s not found\n"
	.zero	3
.LC5:
	.string	"\"%s\" changed to \"%s\"\n"
	.zero	2
.LC8:
	.string	"%d"
	.zero	1
.LC9:
	.string	"%f"
	.zero	1
.LC10:
	.string	"Can't register variable %s, allready defined\n"
	.zero	2
.LC11:
	.string	"Cvar_RegisterVariable: %s is a command\n"
.LC12:
	.string	"Cvar register: %s %s %p\n"
	.zero	3
.LC13:
	.string	"\"%s\" is \"%s\"\n"
	.zero	2
.LC14:
	.string	"%s \"%s\"\n"
	.zero	3
.LC15:
	.string	"%i cvar(s)"
	.zero	1
.LC16:
	.string	" beginning with \"%s\""
	.zero	3
.LC17:
	.string	"\n"
	.section	.sdata,"aw",@progbits
	.align 2
	.type	cvar_null_string, @object
	.size	cvar_null_string, 4
cvar_null_string:
	.long	.LC1
	.section	".text"
.Letext0:
	.file 2 "c:\\utils\\devkitpro\\devkitppc\\bin\\../lib/gcc/powerpc-eabi/4.6.3/../../../../powerpc-eabi/include/machine/_types.h"
	.file 3 "c:\\utils\\devkitpro\\devkitppc\\bin\\../lib/gcc/powerpc-eabi/4.6.3/../../../../powerpc-eabi/include/sys/lock.h"
	.file 4 "c:\\utils\\devkitpro\\devkitppc\\bin\\../lib/gcc/powerpc-eabi/4.6.3/include/stddef.h"
	.file 5 "c:\\utils\\devkitpro\\devkitppc\\bin\\../lib/gcc/powerpc-eabi/4.6.3/../../../../powerpc-eabi/include/sys/_types.h"
	.file 6 "c:\\utils\\devkitpro\\devkitppc\\bin\\../lib/gcc/powerpc-eabi/4.6.3/../../../../powerpc-eabi/include/sys/reent.h"
	.file 7 "c:\\utils\\devkitpro\\devkitppc\\bin\\../lib/gcc/powerpc-eabi/4.6.3/../../../../powerpc-eabi/include/stdio.h"
	.file 8 "d:/Data/Nintendo/TenebraeGX/src/common.h"
	.file 9 "d:/Data/Nintendo/TenebraeGX/src/bspfile.h"
	.file 10 "d:/Data/Nintendo/TenebraeGX/src/vid.h"
	.file 11 "d:/Data/Nintendo/TenebraeGX/src/zone.h"
	.file 12 "d:/Data/Nintendo/TenebraeGX/src/mathlib.h"
	.file 13 "d:/Data/Nintendo/TenebraeGX/src/quakedef.h"
	.file 14 "d:/Data/Nintendo/TenebraeGX/src/cvar.h"
	.file 15 "d:/Data/Nintendo/TenebraeGX/src/render.h"
	.file 16 "d:/Data/Nintendo/TenebraeGX/src/gl_model.h"
	.file 17 "d:/Data/Nintendo/TenebraeGX/src/glquake.h"
	.file 18 "d:/Data/Nintendo/TenebraeGX/src/pr_comp.h"
	.file 19 "d:/Data/Nintendo/TenebraeGX/src/progdefs.h"
	.file 20 "d:/Data/Nintendo/TenebraeGX/src/progs.h"
	.file 21 "d:/Data/Nintendo/TenebraeGX/src/server.h"
	.file 22 "d:/Data/Nintendo/TenebraeGX/src/modelgen.h"
	.file 23 "d:/Data/Nintendo/TenebraeGX/src/world.h"
	.file 24 "c:/utils/devkitPro/libogc/include/ogc/gx.h"