	.file	"dict.c"
	.section	".text"
.Ltext0:
	.cfi_sections	.debug_frame
	.align 2
	.globl __gl_dictListNewDict
	.type	__gl_dictListNewDict, @function
__gl_dictListNewDict:
.LFB0:
	.file 1 "d:/Data/Nintendo/TenebraeGX/gl2gx/source/libtess/dict.c"
	.loc 1 49 0
	.cfi_startproc
.LVL0:
	stwu 1,-16(1)
.LCFI0:
	.cfi_def_cfa_offset 16
	mflr 0
	stw 31,12(1)
	mr 31,3
	.cfi_offset 31, -4
	.cfi_register 65, 0
	.loc 1 50 0
	li 3,20
.LVL1:
	.loc 1 49 0
	stw 30,8(1)
	stw 0,20(1)
	.loc 1 49 0
	mr 30,4
	.cfi_offset 65, 4
	.cfi_offset 30, -8
	.loc 1 50 0
	bl malloc
.LVL2:
	.loc 1 53 0
	cmpwi 0,3,0
	beq- 0,.L2
.LVL3:
	.loc 1 57 0
	li 0,0
	.loc 1 58 0
	stw 3,4(3)
	.loc 1 57 0
	stw 0,0(3)
	.loc 1 59 0
	stw 3,8(3)
	.loc 1 61 0
	stw 31,12(3)
	.loc 1 62 0
	stw 30,16(3)
.LVL4:
.L2:
	.loc 1 65 0
	lwz 0,20(1)
	lwz 30,8(1)
.LVL5:
	mtlr 0
	lwz 31,12(1)
.LVL6:
	addi 1,1,16
.LCFI1:
	.cfi_def_cfa_offset 0
	.cfi_restore 31
	.cfi_restore 30
	blr
	.cfi_endproc
.LFE0:
	.size	__gl_dictListNewDict, .-__gl_dictListNewDict
	.align 2
	.globl __gl_dictListDeleteDict
	.type	__gl_dictListDeleteDict, @function
__gl_dictListDeleteDict:
.LFB1:
	.loc 1 69 0
	.cfi_startproc
.LVL7:
	mflr 0
	stwu 1,-16(1)
.LCFI2:
	.cfi_def_cfa_offset 16
	.cfi_register 65, 0
	stw 31,12(1)
	stw 0,20(1)
	stw 30,8(1)
	.loc 1 69 0
	mr 30,3
	.cfi_offset 30, -8
	.cfi_offset 65, 4
	.cfi_offset 31, -4
	.loc 1 72 0
	lwz 31,4(3)
.LVL8:
	cmpw 7,31,3
	beq- 7,.L5
.LVL9:
.L7:
	.loc 1 73 0 discriminator 2
	mr 3,31
	bl free
	.loc 1 72 0 discriminator 2
	lwz 31,4(31)
.LVL10:
	cmpw 7,31,30
	bne+ 7,.L7
.L5:
	.loc 1 75 0
	mr 3,30
	bl free
	.loc 1 76 0
	lwz 0,20(1)
	lwz 30,8(1)
.LVL11:
	mtlr 0
	lwz 31,12(1)
.LVL12:
	addi 1,1,16
.LCFI3:
	.cfi_def_cfa_offset 0
	.cfi_restore 31
	.cfi_restore 30
	blr
	.cfi_endproc
.LFE1:
	.size	__gl_dictListDeleteDict, .-__gl_dictListDeleteDict
	.align 2
	.globl __gl_dictListInsertBefore
	.type	__gl_dictListInsertBefore, @function
__gl_dictListInsertBefore:
.LFB2:
	.loc 1 80 0
	.cfi_startproc
.LVL13:
	mflr 0
	stwu 1,-24(1)
.LCFI4:
	.cfi_def_cfa_offset 24
	.cfi_register 65, 0
	stw 29,12(1)
	mr 29,5
	.cfi_offset 29, -12
	stw 0,28(1)
	stw 30,16(1)
	mr 30,3
	.cfi_offset 30, -8
	.cfi_offset 65, 4
	stw 31,20(1)
	mr 31,4
	.cfi_offset 31, -4
.LVL14:
.L11:
	.loc 1 84 0 discriminator 1
	lwz 31,8(31)
.LVL15:
	.loc 1 85 0 discriminator 1
	mr 5,29
	lwz 0,0(31)
	cmpwi 7,0,0
	mr 4,0
	beq- 7,.L10
	lwz 0,16(30)
	lwz 3,12(30)
	mtctr 0
	bctrl
	cmpwi 7,3,0
	beq+ 7,.L11
.L10:
	.loc 1 87 0
	li 3,12
	bl malloc
.LVL16:
	.loc 1 88 0
	cmpwi 0,3,0
	beq- 0,.L12
	.loc 1 91 0
	lwz 0,4(31)
	.loc 1 90 0
	stw 29,0(3)
	.loc 1 91 0
	stw 0,4(3)
	.loc 1 92 0
	lwz 9,4(31)
	.loc 1 94 0
	stw 3,4(31)
	.loc 1 92 0
	stw 3,8(9)
	.loc 1 93 0
	stw 31,8(3)
.L12:
	.loc 1 97 0
	lwz 0,28(1)
	lwz 29,12(1)
.LVL17:
	mtlr 0
	lwz 30,16(1)
.LVL18:
	lwz 31,20(1)
.LVL19:
	addi 1,1,24
.LCFI5:
	.cfi_def_cfa_offset 0
	.cfi_restore 31
	.cfi_restore 30
	.cfi_restore 29
	blr
	.cfi_endproc
.LFE2:
	.size	__gl_dictListInsertBefore, .-__gl_dictListInsertBefore
	.align 2
	.globl __gl_dictListDelete
	.type	__gl_dictListDelete, @function
__gl_dictListDelete:
.LFB3:
	.loc 1 101 0
	.cfi_startproc
.LVL20:
	mflr 0
	stwu 1,-8(1)
.LCFI6:
	.cfi_def_cfa_offset 8
	.cfi_register 65, 0
	.loc 1 102 0
	lwz 9,4(4)
	.loc 1 104 0
	mr 3,4
.LVL21:
	.loc 1 101 0
	stw 0,12(1)
	.loc 1 102 0
	lwz 0,8(4)
	.cfi_offset 65, 4
	stw 0,8(9)
	.loc 1 103 0
	lwz 11,8(4)
	stw 9,4(11)
	.loc 1 104 0
	bl free
.LVL22:
	.loc 1 105 0
	lwz 0,12(1)
	addi 1,1,8
.LCFI7:
	.cfi_def_cfa_offset 0
	mtlr 0
	blr
	.cfi_endproc
.LFE3:
	.size	__gl_dictListDelete, .-__gl_dictListDelete
	.align 2
	.globl __gl_dictListSearch
	.type	__gl_dictListSearch, @function
__gl_dictListSearch:
.LFB4:
	.loc 1 109 0
	.cfi_startproc
.LVL23:
	mflr 0
	stwu 1,-24(1)
.LCFI8:
	.cfi_def_cfa_offset 24
	.cfi_register 65, 0
	stw 29,12(1)
	mr 29,4
	.cfi_offset 29, -12
	stw 30,16(1)
	mr 30,3
	.cfi_offset 30, -8
	stw 31,20(1)
	.loc 1 110 0
	mr 31,3
	.cfi_offset 31, -4
.LVL24:
	.loc 1 109 0
	stw 0,28(1)
	b .L17
	.cfi_offset 65, 4
.LVL25:
.L19:
	.loc 1 114 0 discriminator 1
	lwz 0,16(30)
	lwz 3,12(30)
	mtctr 0
	bctrl
.LVL26:
	cmpwi 7,3,0
	bne- 7,.L16
.L17:
	.loc 1 113 0 discriminator 1
	lwz 31,4(31)
.LVL27:
	.loc 1 114 0 discriminator 1
	mr 4,29
	lwz 0,0(31)
	cmpwi 7,0,0
	mr 5,0
	bne+ 7,.L19
.L16:
	.loc 1 117 0
	lwz 0,28(1)
	mr 3,31
	lwz 29,12(1)
.LVL28:
	mtlr 0
	lwz 30,16(1)
.LVL29:
	lwz 31,20(1)
.LVL30:
	addi 1,1,24
.LCFI9:
	.cfi_def_cfa_offset 0
	.cfi_restore 31
	.cfi_restore 30
	.cfi_restore 29
	blr
	.cfi_endproc
.LFE4:
	.size	__gl_dictListSearch, .-__gl_dictListSearch
.Letext0:
	.file 2 "d:/Data/Nintendo/TenebraeGX/gl2gx/source/libtess/dict-list.h"