	.file	"error.c"
	.section	".text"
.Ltext0:
	.cfi_sections	.debug_frame
	.align 2
	.globl gluErrorString
	.type	gluErrorString, @function
gluErrorString:
.LFB0:
	.file 1 "d:/Data/Nintendo/TenebraeGX/gl2gx/source/libutil/error.c"
	.loc 1 69 0
	.cfi_startproc
.LVL0:
	.loc 1 70 0
	cmpwi 0,3,0
	.loc 1 69 0
	mflr 0
	stwu 1,-16(1)
.LCFI0:
	.cfi_def_cfa_offset 16
	.cfi_register 65, 0
	stw 0,20(1)
	stw 31,12(1)
	.loc 1 70 0
	beq- 0,.L6
	.cfi_offset 31, -4
	.cfi_offset 65, 4
	.loc 1 73 0
	addi 0,3,-1280
	cmplwi 7,0,5
	ble- 7,.L10
	.loc 1 77 0
	xoris 0,3,0xffff
	cmpwi 7,0,-32719
	beq 7,.L7
	.loc 1 80 0
	addis 9,3,0xfffe
	addi 0,9,30172
	cmplwi 7,0,4
	ble- 7,.L11
	.loc 1 83 0
	addi 0,9,30821
	cmplwi 7,0,36
	ble- 7,.L12
	.loc 1 86 0
	addi 0,9,30921
	.loc 1 90 0
	li 3,0
.LVL1:
	.loc 1 86 0
	cmplwi 7,0,7
	bgt- 7,.L2
	.loc 1 87 0
	addi 3,9,30922
	bl __gluTessErrorString
.LVL2:
	.loc 1 91 0
	lwz 0,20(1)
	lwz 31,12(1)
	mtlr 0
	addi 1,1,16
	.cfi_remember_state
	.cfi_restore 31
.LCFI1:
	.cfi_def_cfa_offset 0
	blr
.LVL3:
.L6:
.LCFI2:
	.cfi_restore_state
	.loc 1 71 0
	lis 3,.LC0@ha
.LVL4:
	la 3,.LC0@l(3)
.L2:
	.loc 1 91 0
	lwz 0,20(1)
	lwz 31,12(1)
	mtlr 0
	addi 1,1,16
	.cfi_remember_state
.LCFI3:
	.cfi_def_cfa_offset 0
	.cfi_restore 31
	blr
.LVL5:
.L10:
.LCFI4:
	.cfi_restore_state
	.loc 1 74 0
	lis 9,.LANCHOR1@ha
	slwi 0,0,2
	la 9,.LANCHOR1@l(9)
	lis 31,.LANCHOR0@ha
	lwzx 6,9,0
	lis 9,glErrFile@ha
	lwz 7,glErrFile@l(9)
	lis 9,glErrLine@ha
	la 31,.LANCHOR0@l(31)
	lwz 8,glErrLine@l(9)
	lis 5,.LC2@ha
	mr 3,31
.LVL6:
	li 4,1024
	la 5,.LC2@l(5)
	crxor 6,6,6
	bl snprintf
	.loc 1 91 0
	lwz 0,20(1)
	.loc 1 75 0
	mr 3,31
	.loc 1 91 0
	lwz 31,12(1)
	mtlr 0
	addi 1,1,16
	.cfi_remember_state
	.cfi_restore 31
.LCFI5:
	.cfi_def_cfa_offset 0
	blr
.LVL7:
.L11:
.LCFI6:
	.cfi_restore_state
	.loc 1 81 0
	lis 9,.LANCHOR1@ha
	slwi 0,0,2
	la 9,.LANCHOR1@l(9)
	.loc 1 91 0
	lwz 31,12(1)
	.loc 1 81 0
	add 9,9,0
	.loc 1 91 0
	lwz 0,20(1)
	.loc 1 81 0
	lwz 3,24(9)
.LVL8:
	.loc 1 91 0
	mtlr 0
	addi 1,1,16
	.cfi_remember_state
	.cfi_restore 31
.LCFI7:
	.cfi_def_cfa_offset 0
	blr
.LVL9:
.L7:
.LCFI8:
	.cfi_restore_state
	.loc 1 78 0
	lis 3,.LC1@ha
.LVL10:
	la 3,.LC1@l(3)
	b .L2
.LVL11:
.L12:
	.loc 1 84 0
	addi 3,9,30822
.LVL12:
	bl __gluNURBSErrorString
.LVL13:
	b .L2
	.cfi_endproc
.LFE0:
	.size	gluErrorString, .-gluErrorString
	.section	.rodata
	.align 2
	.set	.LANCHOR1,. + 0
	.type	glErrorStrings, @object
	.size	glErrorStrings, 24
glErrorStrings:
	.long	.LC3
	.long	.LC4
	.long	.LC5
	.long	.LC6
	.long	.LC7
	.long	.LC8
	.type	gluErrorStrings, @object
	.size	gluErrorStrings, 20
gluErrorStrings:
	.long	.LC3
	.long	.LC4
	.long	.LC8
	.long	.LC9
	.long	.LC5
	.section	.rodata.str1.4,"aMS",@progbits,1
	.align 2
.LC0:
	.string	"no error"
	.zero	3
.LC1:
	.string	"table too large"
.LC2:
	.string	"%s at %s - %d"
	.zero	2
.LC3:
	.string	"invalid enumerant"
	.zero	2
.LC4:
	.string	"invalid value"
	.zero	2
.LC5:
	.string	"invalid operation"
	.zero	2
.LC6:
	.string	"stack overflow"
	.zero	1
.LC7:
	.string	"stack underflow"
.LC8:
	.string	"out of memory"
	.zero	2
.LC9:
	.string	""
	.section	".bss"
	.align 2
	.set	.LANCHOR0,. + 0
	.type	error_string, @object
	.size	error_string, 1024
error_string:
	.zero	1024
	.section	".text"
.Letext0:
	.file 2 "d:/Data/Nintendo/TenebraeGX/gl2gx/include/GL/gl.h"