	.file	"gl.c"
	.section	".text"
.Ltext0:
	.cfi_sections	.debug_frame
	.align 2
	.globl glHint
	.type	glHint, @function
glHint:
.LFB64:
	.file 1 "d:/Data/Nintendo/TenebraeGX/gl2gx/source/gl.c"
	.loc 1 21 0
	.cfi_startproc
.LVL0:
	.loc 1 21 0
	lis 9,cur_state@ha
	lwz 0,cur_state@l(9)
	andi. 9,0,1
	beqlr- 0
.LVL1:
.LBB158:
.LBB159:
	.loc 1 1273 0
	li 0,1282
	lis 9,glErrCode@ha
	stw 0,glErrCode@l(9)
	.loc 1 1274 0
	lis 9,.LC0@ha
	la 0,.LC0@l(9)
	lis 9,glErrFile@ha
	stw 0,glErrFile@l(9)
	.loc 1 1275 0
	li 0,21
	lis 9,glErrLine@ha
	stw 0,glErrLine@l(9)
	blr
.LBE159:
.LBE158:
	.cfi_endproc
.LFE64:
	.size	glHint, .-glHint
	.align 2
	.globl glPolygonOffset
	.type	glPolygonOffset, @function
glPolygonOffset:
.LFB65:
	.loc 1 23 0
	.cfi_startproc
.LVL2:
	.loc 1 23 0
	lis 9,cur_state@ha
	lwz 0,cur_state@l(9)
	andi. 9,0,1
	beqlr- 0
.LVL3:
.LBB160:
.LBB161:
	.loc 1 1273 0
	li 0,1282
	lis 9,glErrCode@ha
	stw 0,glErrCode@l(9)
	.loc 1 1274 0
	lis 9,.LC0@ha
	la 0,.LC0@l(9)
	lis 9,glErrFile@ha
	stw 0,glErrFile@l(9)
	.loc 1 1275 0
	li 0,23
	lis 9,glErrLine@ha
	stw 0,glErrLine@l(9)
	blr
.LBE161:
.LBE160:
	.cfi_endproc
.LFE65:
	.size	glPolygonOffset, .-glPolygonOffset
	.align 2
	.globl glLightModeli
	.type	glLightModeli, @function
glLightModeli:
.LFB66:
	.loc 1 25 0
	.cfi_startproc
.LVL4:
	.loc 1 25 0
	lis 9,cur_state@ha
	lwz 0,cur_state@l(9)
	andi. 9,0,1
	beqlr- 0
.LVL5:
.LBB162:
.LBB163:
	.loc 1 1273 0
	li 0,1282
	lis 9,glErrCode@ha
	stw 0,glErrCode@l(9)
	.loc 1 1274 0
	lis 9,.LC0@ha
	la 0,.LC0@l(9)
	lis 9,glErrFile@ha
	stw 0,glErrFile@l(9)
	.loc 1 1275 0
	li 0,25
	lis 9,glErrLine@ha
	stw 0,glErrLine@l(9)
	blr
.LBE163:
.LBE162:
	.cfi_endproc
.LFE66:
	.size	glLightModeli, .-glLightModeli
	.align 2
	.globl glTexGeni
	.type	glTexGeni, @function
glTexGeni:
.LFB67:
	.loc 1 29 0
	.cfi_startproc
.LVL6:
	.loc 1 29 0
	blr
	.cfi_endproc
.LFE67:
	.size	glTexGeni, .-glTexGeni
	.align 2
	.globl glPolygonMode
	.type	glPolygonMode, @function
glPolygonMode:
.LFB68:
	.loc 1 31 0
	.cfi_startproc
.LVL7:
	.loc 1 31 0
	lis 9,cur_state@ha
	lwz 0,cur_state@l(9)
	andi. 9,0,1
	beqlr- 0
.LVL8:
.LBB164:
.LBB165:
	.loc 1 1273 0
	li 0,1282
	lis 9,glErrCode@ha
	stw 0,glErrCode@l(9)
	.loc 1 1274 0
	lis 9,.LC0@ha
	la 0,.LC0@l(9)
	lis 9,glErrFile@ha
	stw 0,glErrFile@l(9)
	.loc 1 1275 0
	li 0,31
	lis 9,glErrLine@ha
	stw 0,glErrLine@l(9)
	blr
.LBE165:
.LBE164:
	.cfi_endproc
.LFE68:
	.size	glPolygonMode, .-glPolygonMode
	.align 2
	.globl glShadeModel
	.type	glShadeModel, @function
glShadeModel:
.LFB69:
	.loc 1 35 0
	.cfi_startproc
.LVL9:
	.loc 1 35 0
	lis 9,cur_state@ha
	lwz 0,cur_state@l(9)
	andi. 9,0,1
	beqlr- 0
.LVL10:
.LBB166:
.LBB167:
	.loc 1 1273 0
	li 0,1282
	lis 9,glErrCode@ha
	stw 0,glErrCode@l(9)
	.loc 1 1274 0
	lis 9,.LC0@ha
	la 0,.LC0@l(9)
	lis 9,glErrFile@ha
	stw 0,glErrFile@l(9)
	.loc 1 1275 0
	li 0,35
	lis 9,glErrLine@ha
	stw 0,glErrLine@l(9)
	blr
.LBE167:
.LBE166:
	.cfi_endproc
.LFE69:
	.size	glShadeModel, .-glShadeModel
	.align 2
	.globl glClipPlane
	.type	glClipPlane, @function
glClipPlane:
.LFB70:
	.loc 1 37 0
	.cfi_startproc
.LVL11:
	.loc 1 37 0
	lis 9,cur_state@ha
	lwz 0,cur_state@l(9)
	andi. 9,0,1
	beqlr- 0
.LVL12:
.LBB168:
.LBB169:
	.loc 1 1273 0
	li 0,1282
	lis 9,glErrCode@ha
	stw 0,glErrCode@l(9)
	.loc 1 1274 0
	lis 9,.LC0@ha
	la 0,.LC0@l(9)
	lis 9,glErrFile@ha
	stw 0,glErrFile@l(9)
	.loc 1 1275 0
	li 0,37
	lis 9,glErrLine@ha
	stw 0,glErrLine@l(9)
	blr
.LBE169:
.LBE168:
	.cfi_endproc
.LFE70:
	.size	glClipPlane, .-glClipPlane
	.align 2
	.globl glColorMaterial
	.type	glColorMaterial, @function
glColorMaterial:
.LFB71:
	.loc 1 42 0
	.cfi_startproc
.LVL13:
	.loc 1 43 0
	lis 9,cur_state@ha
	lwz 0,cur_state@l(9)
	andi. 9,0,1
	bne- 0,.L21
	.loc 1 45 0
	cmpwi 7,4,5632
	beq- 7,.L19
	cmplwi 7,4,5632
	bgt- 7,.L20
	addi 0,4,-4608
	cmplwi 7,0,2
	ble- 7,.L19
.L18:
.LVL14:
.LBB170:
.LBB171:
	.loc 1 1273 0
	li 0,1280
	lis 9,glErrCode@ha
	stw 0,glErrCode@l(9)
	.loc 1 1274 0
	lis 9,.LC0@ha
	la 0,.LC0@l(9)
	lis 9,glErrFile@ha
	stw 0,glErrFile@l(9)
	.loc 1 1275 0
	li 0,52
	lis 9,glErrLine@ha
	stw 0,glErrLine@l(9)
	blr
.LVL15:
.L20:
.LBE171:
.LBE170:
	.loc 1 45 0
	cmpwi 7,4,5634
	bne+ 7,.L18
.L19:
	.loc 1 51 0
	lis 9,copy_material@ha
	stw 4,copy_material@l(9)
	blr
.L21:
.LVL16:
.LBB172:
.LBB173:
	.loc 1 1273 0
	li 0,1282
	lis 9,glErrCode@ha
	stw 0,glErrCode@l(9)
	.loc 1 1274 0
	lis 9,.LC0@ha
	la 0,.LC0@l(9)
	lis 9,glErrFile@ha
	stw 0,glErrFile@l(9)
	.loc 1 1275 0
	li 0,43
	lis 9,glErrLine@ha
	stw 0,glErrLine@l(9)
	blr
.LBE173:
.LBE172:
	.cfi_endproc
.LFE71:
	.size	glColorMaterial, .-glColorMaterial
	.align 2
	.globl glBlendFunc
	.type	glBlendFunc, @function
glBlendFunc:
.LFB72:
	.loc 1 57 0
	.cfi_startproc
.LVL17:
	.loc 1 58 0
	lis 9,cur_state@ha
	lwz 0,cur_state@l(9)
	andi. 0,0,1
	bne- 0,.L47
	.loc 1 60 0
	cmpwi 7,3,771
	beq- 7,.L29
	cmplwi 7,3,771
	bgt- 7,.L34
	cmpwi 7,3,1
	beq- 7,.L27
	cmplwi 7,3,1
	blt- 7,.L46
	cmpwi 7,3,770
	beq- 7,.L48
.L25:
.LVL18:
.LBB174:
.LBB175:
	.loc 1 1273 0
	li 0,1280
	lis 9,glErrCode@ha
	stw 0,glErrCode@l(9)
	.loc 1 1274 0
	lis 9,.LC0@ha
	la 0,.LC0@l(9)
	lis 9,glErrFile@ha
	stw 0,glErrFile@l(9)
	.loc 1 1275 0
	li 0,71
	lis 9,glErrLine@ha
	stw 0,glErrLine@l(9)
	b .L35
.LVL19:
.L47:
.LBE175:
.LBE174:
.LBB176:
.LBB177:
	.loc 1 1273 0
	li 0,1282
	lis 9,glErrCode@ha
	stw 0,glErrCode@l(9)
	.loc 1 1274 0
	lis 9,.LC0@ha
	la 0,.LC0@l(9)
	lis 9,glErrFile@ha
	stw 0,glErrFile@l(9)
	.loc 1 1275 0
	li 0,58
	lis 9,glErrLine@ha
	stw 0,glErrLine@l(9)
	blr
.LVL20:
.L34:
.LBE177:
.LBE176:
	.loc 1 60 0
	cmpwi 7,3,773
	beq- 7,.L31
	cmplwi 7,3,773
	bge- 7,.L49
	.loc 1 68 0
	li 0,6
	lis 9,blend_src@ha
	stb 0,blend_src@l(9)
	b .L35
.L29:
	.loc 1 67 0
	li 0,5
	lis 9,blend_src@ha
	stb 0,blend_src@l(9)
.L35:
	.loc 1 74 0
	cmpwi 7,4,769
	beq- 7,.L40
.L52:
	cmplwi 7,4,769
	bgt- 7,.L45
	cmpwi 7,4,1
	beq- 7,.L38
	cmplwi 7,4,1
	bge- 7,.L50
	.loc 1 76 0
	li 0,0
	lis 9,blend_dst@ha
	stb 0,blend_dst@l(9)
	blr
.L27:
	.loc 1 63 0
	lis 9,blend_src@ha
	stb 3,blend_src@l(9)
	b .L35
.L31:
	.loc 1 69 0
	li 0,7
	lis 9,blend_src@ha
	stb 0,blend_src@l(9)
	b .L35
.L45:
	.loc 1 74 0
	cmpwi 7,4,771
	beq- 7,.L42
	cmplwi 7,4,771
	bge- 7,.L51
	.loc 1 80 0
	li 0,4
	lis 9,blend_dst@ha
	stb 0,blend_dst@l(9)
	blr
.L32:
	.loc 1 64 0
	li 0,2
.L46:
	.loc 1 74 0
	cmpwi 7,4,769
	.loc 1 64 0
	lis 9,blend_src@ha
	stb 0,blend_src@l(9)
	.loc 1 74 0
	bne+ 7,.L52
.L40:
	.loc 1 79 0
	li 0,3
	lis 9,blend_dst@ha
	stb 0,blend_dst@l(9)
	blr
.L51:
	.loc 1 74 0
	cmpwi 7,4,772
	beq- 7,.L43
	cmpwi 7,4,773
	beq- 7,.L53
.L36:
.LVL21:
.LBB178:
.LBB179:
	.loc 1 1273 0
	li 0,1280
	lis 9,glErrCode@ha
	stw 0,glErrCode@l(9)
	.loc 1 1274 0
	lis 9,.LC0@ha
	la 0,.LC0@l(9)
	lis 9,glErrFile@ha
	stw 0,glErrFile@l(9)
	.loc 1 1275 0
	li 0,84
	lis 9,glErrLine@ha
	stw 0,glErrLine@l(9)
	blr
.LVL22:
.L53:
.LBE179:
.LBE178:
	.loc 1 83 0
	li 0,7
	lis 9,blend_dst@ha
	stb 0,blend_dst@l(9)
	blr
.L49:
	.loc 1 60 0
	cmpwi 7,3,774
	beq- 7,.L32
	cmpwi 7,3,775
	bne+ 7,.L25
	.loc 1 65 0
	li 0,3
	lis 9,blend_src@ha
	stb 0,blend_src@l(9)
	b .L35
.L50:
	.loc 1 74 0
	cmpwi 7,4,768
	bne+ 7,.L36
	.loc 1 78 0
	li 0,2
	lis 9,blend_dst@ha
	stb 0,blend_dst@l(9)
	blr
.L48:
	.loc 1 66 0
	li 0,4
	lis 9,blend_src@ha
	stb 0,blend_src@l(9)
	b .L35
.L42:
	.loc 1 81 0
	li 0,5
	lis 9,blend_dst@ha
	stb 0,blend_dst@l(9)
	blr
.L38:
	.loc 1 77 0
	lis 9,blend_dst@ha
	stb 4,blend_dst@l(9)
	blr
.L43:
	.loc 1 82 0
	li 0,6
	lis 9,blend_dst@ha
	stb 0,blend_dst@l(9)
	blr
	.cfi_endproc
.LFE72:
	.size	glBlendFunc, .-glBlendFunc
	.align 2
	.globl glScissor
	.type	glScissor, @function
glScissor:
.LFB73:
	.loc 1 89 0
	.cfi_startproc
.LVL23:
	.loc 1 90 0
	lis 9,cur_state@ha
	lwz 0,cur_state@l(9)
	andi. 9,0,1
	bne- 0,.L59
	.loc 1 92 0
	cmpwi 7,5,0
	blt- 7,.L57
	.loc 1 92 0 is_stmt 0 discriminator 1
	cmpwi 7,6,0
	blt- 7,.L57
	.loc 1 98 0 is_stmt 1
	lis 11,scissorInfo@ha
	la 9,scissorInfo@l(11)
	stw 3,scissorInfo@l(11)
	stw 4,4(9)
	stw 5,8(9)
	stw 6,12(9)
	blr
.L57:
.LVL24:
.LBB180:
.LBB181:
	.loc 1 1273 0
	li 0,1281
	lis 9,glErrCode@ha
	stw 0,glErrCode@l(9)
	.loc 1 1274 0
	lis 9,.LC0@ha
	la 0,.LC0@l(9)
	lis 9,glErrFile@ha
	stw 0,glErrFile@l(9)
	.loc 1 1275 0
	li 0,94
	lis 9,glErrLine@ha
	stw 0,glErrLine@l(9)
	blr
.LVL25:
.L59:
.LBE181:
.LBE180:
.LBB182:
.LBB183:
	.loc 1 1273 0
	li 0,1282
	lis 9,glErrCode@ha
	stw 0,glErrCode@l(9)
	.loc 1 1274 0
	lis 9,.LC0@ha
	la 0,.LC0@l(9)
	lis 9,glErrFile@ha
	stw 0,glErrFile@l(9)
	.loc 1 1275 0
	li 0,90
	lis 9,glErrLine@ha
	stw 0,glErrLine@l(9)
	blr
.LBE183:
.LBE182:
	.cfi_endproc
.LFE73:
	.size	glScissor, .-glScissor
	.align 2
	.globl glCullFace
	.type	glCullFace, @function
glCullFace:
.LFB74:
	.loc 1 105 0
	.cfi_startproc
.LVL26:
	.loc 1 106 0
	lis 9,cur_state@ha
	lwz 0,cur_state@l(9)
	andi. 9,0,1
	bne- 0,.L68
	.loc 1 108 0
	cmpwi 7,3,1029
	beq- 7,.L65
	cmpwi 7,3,1032
	beq- 7,.L66
	cmpwi 7,3,1028
	beq- 7,.L69
.LVL27:
.LBB184:
.LBB185:
	.loc 1 1273 0
	li 0,1280
	lis 9,glErrCode@ha
	stw 0,glErrCode@l(9)
	.loc 1 1274 0
	lis 9,.LC0@ha
	la 0,.LC0@l(9)
	lis 9,glErrFile@ha
	stw 0,glErrFile@l(9)
	.loc 1 1275 0
	li 0,120
	lis 9,glErrLine@ha
	stw 0,glErrLine@l(9)
	blr
.LVL28:
.L68:
.LBE185:
.LBE184:
.LBB186:
.LBB187:
	.loc 1 1273 0
	li 0,1282
	lis 9,glErrCode@ha
	stw 0,glErrCode@l(9)
	.loc 1 1274 0
	lis 9,.LC0@ha
	la 0,.LC0@l(9)
	lis 9,glErrFile@ha
	stw 0,glErrFile@l(9)
	.loc 1 1275 0
	li 0,106
	lis 9,glErrLine@ha
	stw 0,glErrLine@l(9)
	blr
.LVL29:
.L65:
.LBE187:
.LBE186:
	.loc 1 114 0
	li 0,2
	lis 9,cull_mode@ha
	stb 0,cull_mode@l(9)
	.loc 1 115 0
	blr
.L69:
	.loc 1 111 0
	li 0,1
	lis 9,cull_mode@ha
	stb 0,cull_mode@l(9)
	.loc 1 112 0
	blr
.L66:
	.loc 1 117 0
	li 0,3
	lis 9,cull_mode@ha
	stb 0,cull_mode@l(9)
	.loc 1 118 0
	blr
	.cfi_endproc
.LFE74:
	.size	glCullFace, .-glCullFace
	.align 2
	.globl glFrontFace
	.type	glFrontFace, @function
glFrontFace:
.LFB75:
	.loc 1 125 0
	.cfi_startproc
.LVL30:
	.loc 1 127 0
	lis 9,cur_state@ha
	lwz 0,cur_state@l(9)
	andi. 9,0,1
	bne- 0,.L75
	.loc 1 129 0
	addi 0,3,-2304
	cmplwi 7,0,1
	ble- 7,.L76
.LVL31:
.LBB188:
.LBB189:
	.loc 1 1273 0
	li 0,1280
	lis 9,glErrCode@ha
	stw 0,glErrCode@l(9)
	.loc 1 1274 0
	lis 9,.LC0@ha
	la 0,.LC0@l(9)
	lis 9,glErrFile@ha
	stw 0,glErrFile@l(9)
	.loc 1 1275 0
	li 0,135
	lis 9,glErrLine@ha
	stw 0,glErrLine@l(9)
	blr
.LVL32:
.L76:
.LBE189:
.LBE188:
	.loc 1 133 0
	lis 9,gxwinding@ha
	stw 3,gxwinding@l(9)
	blr
.L75:
.LVL33:
.LBB190:
.LBB191:
	.loc 1 1273 0
	li 0,1282
	lis 9,glErrCode@ha
	stw 0,glErrCode@l(9)
	.loc 1 1274 0
	lis 9,.LC0@ha
	la 0,.LC0@l(9)
	lis 9,glErrFile@ha
	stw 0,glErrFile@l(9)
	.loc 1 1275 0
	li 0,127
	lis 9,glErrLine@ha
	stw 0,glErrLine@l(9)
	blr
.LBE191:
.LBE190:
	.cfi_endproc
.LFE75:
	.size	glFrontFace, .-glFrontFace
	.align 2
	.globl glDepthRange
	.type	glDepthRange, @function
glDepthRange:
.LFB76:
	.loc 1 145 0
	.cfi_startproc
.LVL34:
	.loc 1 146 0
	lis 9,cur_state@ha
	lwz 0,cur_state@l(9)
	andi. 9,0,1
	bne- 0,.L80
	.loc 1 148 0
	frsp 1,1
.LVL35:
	lis 9,normNear@ha
	.loc 1 149 0
	frsp 2,2
.LVL36:
	.loc 1 148 0
	stfs 1,normNear@l(9)
	.loc 1 149 0
	lis 9,normFar@ha
	stfs 2,normFar@l(9)
	blr
.LVL37:
.L80:
.LBB192:
.LBB193:
	.loc 1 1273 0
	li 0,1282
	lis 9,glErrCode@ha
	stw 0,glErrCode@l(9)
	.loc 1 1274 0
	lis 9,.LC0@ha
	la 0,.LC0@l(9)
	lis 9,glErrFile@ha
	stw 0,glErrFile@l(9)
	.loc 1 1275 0
	li 0,146
	lis 9,glErrLine@ha
	stw 0,glErrLine@l(9)
	blr
.LBE193:
.LBE192:
	.cfi_endproc
.LFE76:
	.size	glDepthRange, .-glDepthRange
	.align 2
	.globl glViewport
	.type	glViewport, @function
glViewport:
.LFB77:
	.loc 1 156 0
	.cfi_startproc
.LVL38:
	.loc 1 157 0
	lis 9,cur_state@ha
	lwz 0,cur_state@l(9)
	andi. 9,0,1
	bne- 0,.L84
	.loc 1 158 0
	lis 11,viewPort@ha
	la 9,viewPort@l(11)
	stw 3,viewPort@l(11)
	stw 4,4(9)
	stw 5,8(9)
	stw 6,12(9)
	blr
.L84:
.LVL39:
.LBB194:
.LBB195:
	.loc 1 1273 0
	li 0,1282
	lis 9,glErrCode@ha
	stw 0,glErrCode@l(9)
	.loc 1 1274 0
	lis 9,.LC0@ha
	la 0,.LC0@l(9)
	lis 9,glErrFile@ha
	stw 0,glErrFile@l(9)
	.loc 1 1275 0
	li 0,157
	lis 9,glErrLine@ha
	stw 0,glErrLine@l(9)
	blr
.LBE195:
.LBE194:
	.cfi_endproc
.LFE77:
	.size	glViewport, .-glViewport
	.align 2
	.globl glVertex3f
	.type	glVertex3f, @function
glVertex3f:
.LFB82:
	.loc 1 180 0
	.cfi_startproc
.LVL40:
	.loc 1 181 0
	lis 6,vert_i@ha
	.loc 1 180 0
	stwu 1,-32(1)
.LCFI0:
	.cfi_def_cfa_offset 32
	.loc 1 181 0
	lwz 7,vert_i@l(6)
	.loc 1 180 0
	stw 26,8(1)
	.loc 1 181 0
	cmpwi 7,7,1000
	.loc 1 180 0
	stw 27,12(1)
	stw 28,16(1)
	stw 29,20(1)
	stw 30,24(1)
	stw 31,28(1)
	.loc 1 181 0
	bgt- 7,.L90
	.cfi_offset 31, -4
	.cfi_offset 30, -8
	.cfi_offset 29, -12
	.cfi_offset 28, -16
	.cfi_offset 27, -20
	.cfi_offset 26, -24
.LVL41:
.LBB202:
.LBB203:
	.loc 1 192 0
	lis 8,_tempcolorelement@ha
	.loc 1 194 0
	lis 10,_tempnormalelement@ha
	.loc 1 187 0
	mulli 0,7,12
	.loc 1 192 0
	la 9,_tempcolorelement@l(8)
	.loc 1 194 0
	la 11,_tempnormalelement@l(10)
	lis 4,_normalelements@ha
	la 4,_normalelements@l(4)
	.loc 1 192 0
	lwz 28,4(9)
	lwz 29,8(9)
	.loc 1 187 0
	lis 5,_vertexelements@ha
	.loc 1 192 0
	lwz 30,12(9)
	lis 12,_colorelements@ha
	.loc 1 194 0
	lwz 9,8(11)
	.loc 1 187 0
	la 5,_vertexelements@l(5)
	.loc 1 194 0
	lwz 27,_tempnormalelement@l(10)
	.loc 1 192 0
	la 12,_colorelements@l(12)
	.loc 1 194 0
	add 10,4,0
	lwz 31,4(11)
	.loc 1 192 0
	slwi 3,7,4
	lwz 26,_tempcolorelement@l(8)
	.loc 1 194 0
	stwx 27,4,0
	.loc 1 187 0
	add 8,5,0
	.loc 1 192 0
	add 11,12,3
	.loc 1 187 0
	stfsx 1,5,0
	.loc 1 194 0
	stw 9,8(10)
.LVL42:
	.loc 1 180 0
	li 0,8
	lis 9,_texcoordelements@ha
	.loc 1 192 0
	stwx 26,12,3
	.loc 1 180 0
	slwi 4,7,3
	.loc 1 188 0
	stfs 2,4(8)
	.loc 1 189 0
	stfs 3,8(8)
	.loc 1 180 0
	la 9,_texcoordelements@l(9)
	.loc 1 194 0
	lis 8,_temptexcoordelement-8@ha
	.loc 1 192 0
	stw 28,4(11)
	stw 29,8(11)
	.loc 1 180 0
	mtctr 0
	.loc 1 192 0
	stw 30,12(11)
	.loc 1 194 0
	la 8,_temptexcoordelement-8@l(8)
	stw 31,4(10)
	.loc 1 180 0
	add 9,4,9
.LVL43:
.L88:
	.loc 1 199 0
	addi 8,8,8
	lwz 10,0(8)
	lwz 11,4(8)
	stw 10,0(9)
	stw 11,4(9)
	addi 9,9,8000
	.loc 1 197 0
	bdnz .L88
	.loc 1 202 0
	addi 7,7,1
.LBE203:
.LBE202:
	.loc 1 203 0
	lwz 26,8(1)
	lwz 27,12(1)
	lwz 28,16(1)
	lwz 29,20(1)
	lwz 30,24(1)
	lwz 31,28(1)
.LBB205:
.LBB204:
	.loc 1 202 0
	stw 7,vert_i@l(6)
.LBE204:
.LBE205:
	.loc 1 203 0
	addi 1,1,32
	.cfi_remember_state
.LCFI1:
	.cfi_def_cfa_offset 0
	.cfi_restore 31
	.cfi_restore 30
	.cfi_restore 29
	.cfi_restore 28
	.cfi_restore 27
	.cfi_restore 26
	blr
.LVL44:
.L90:
.LCFI2:
	.cfi_restore_state
.LBB206:
.LBB207:
	.loc 1 1273 0
	li 0,1285
	lis 9,glErrCode@ha
	stw 0,glErrCode@l(9)
	.loc 1 1274 0
	lis 9,.LC0@ha
	la 0,.LC0@l(9)
	lis 9,glErrFile@ha
	stw 0,glErrFile@l(9)
	.loc 1 1275 0
	li 0,183
	lis 9,glErrLine@ha
.LBE207:
.LBE206:
	.loc 1 203 0
	lwz 26,8(1)
	lwz 27,12(1)
	lwz 28,16(1)
	lwz 29,20(1)
	lwz 30,24(1)
	lwz 31,28(1)
.LBB209:
.LBB208:
	.loc 1 1275 0
	stw 0,glErrLine@l(9)
.LBE208:
.LBE209:
	.loc 1 203 0
	addi 1,1,32
	.cfi_restore 26
	.cfi_restore 27
	.cfi_restore 28
	.cfi_restore 29
	.cfi_restore 30
	.cfi_restore 31
.LCFI3:
	.cfi_def_cfa_offset 0
	blr
	.cfi_endproc
.LFE82:
	.size	glVertex3f, .-glVertex3f
	.align 2
	.globl glVertex4f
	.type	glVertex4f, @function
glVertex4f:
.LFB81:
	.loc 1 176 0
	.cfi_startproc
.LVL45:
	.loc 1 178 0
	.loc 1 177 0
	b glVertex3f
.LVL46:
.LVL47:
.LVL48:
.LVL49:
	.cfi_endproc
.LFE81:
	.size	glVertex4f, .-glVertex4f
	.align 2
	.globl glVertex3fv
	.type	glVertex3fv, @function
glVertex3fv:
.LFB80:
	.loc 1 172 0
	.cfi_startproc
.LVL50:
	.loc 1 173 0
	lfs 1,0(3)
	.loc 1 174 0
	.loc 1 173 0
	lfs 2,4(3)
	lfs 3,8(3)
	b glVertex3f
.LVL51:
	.cfi_endproc
.LFE80:
	.size	glVertex3fv, .-glVertex3fv
	.align 2
	.globl glVertex2f
	.type	glVertex2f, @function
glVertex2f:
.LFB79:
	.loc 1 167 0
	.cfi_startproc
.LVL52:
	.loc 1 168 0
	lis 9,.LC1@ha
	.loc 1 169 0
	.loc 1 168 0
	lfs 3,.LC1@l(9)
	b glVertex3f
.LVL53:
.LVL54:
	.cfi_endproc
.LFE79:
	.size	glVertex2f, .-glVertex2f
	.align 2
	.globl glVertex2i
	.type	glVertex2i, @function
glVertex2i:
.LFB78:
	.loc 1 163 0
	.cfi_startproc
.LVL55:
	stwu 1,-24(1)
.LCFI4:
	.cfi_def_cfa_offset 24
	.loc 1 164 0
	lis 0,0x4330
	xoris 3,3,0x8000
.LVL56:
	xoris 4,4,0x8000
.LVL57:
	stw 3,12(1)
	lis 9,.LC3@ha
	stw 0,8(1)
	stw 4,20(1)
	stw 0,16(1)
	lfs 0,.LC3@l(9)
	lis 9,.LC1@ha
	lfd 1,8(1)
	lfd 2,16(1)
	.loc 1 165 0
	.loc 1 164 0
	fsub 1,1,0
	lfs 3,.LC1@l(9)
	fsub 2,2,0
	.loc 1 165 0
	addi 1,1,24
.LCFI5:
	.cfi_def_cfa_offset 0
	.loc 1 164 0
	frsp 1,1
	frsp 2,2
	b glVertex3f
.LVL58:
.LVL59:
	.cfi_endproc
.LFE78:
	.size	glVertex2i, .-glVertex2i
	.align 2
	.globl glNormal3f
	.type	glNormal3f, @function
glNormal3f:
.LFB83:
	.loc 1 205 0
	.cfi_startproc
.LVL60:
	.loc 1 206 0
	lis 11,_tempnormalelement@ha
	la 9,_tempnormalelement@l(11)
	stfs 1,_tempnormalelement@l(11)
	.loc 1 207 0
	stfs 2,4(9)
	.loc 1 208 0
	stfs 3,8(9)
	.loc 1 209 0
	blr
	.cfi_endproc
.LFE83:
	.size	glNormal3f, .-glNormal3f
	.align 2
	.globl glNormal3fv
	.type	glNormal3fv, @function
glNormal3fv:
.LFB84:
	.loc 1 211 0
	.cfi_startproc
.LVL61:
	.loc 1 212 0
	lwz 8,0(3)
.LBB210:
.LBB211:
	.loc 1 206 0
	lis 11,_tempnormalelement@ha
.LBE211:
.LBE210:
	.loc 1 212 0
	lwz 10,4(3)
.LBB215:
.LBB212:
	.loc 1 206 0
	la 9,_tempnormalelement@l(11)
.LBE212:
.LBE215:
	.loc 1 212 0
	lwz 0,8(3)
.LVL62:
.LBB216:
.LBB213:
	.loc 1 207 0
	stw 10,4(9)
	.loc 1 208 0
	stw 0,8(9)
.LBE213:
.LBE216:
	.loc 1 213 0
.LBB217:
.LBB214:
	.loc 1 206 0
	stw 8,_tempnormalelement@l(11)
.LBE214:
.LBE217:
	.loc 1 213 0
	blr
	.cfi_endproc
.LFE84:
	.size	glNormal3fv, .-glNormal3fv
	.align 2
	.globl glColor4f
	.type	glColor4f, @function
glColor4f:
.LFB86:
	.loc 1 219 0
	.cfi_startproc
.LVL63:
	.loc 1 225 0
	lis 9,copy_mat_enabled@ha
	.loc 1 221 0
	lis 11,_tempcolorelement@ha
	.loc 1 225 0
	lbz 0,copy_mat_enabled@l(9)
	.loc 1 221 0
	la 9,_tempcolorelement@l(11)
	stfs 1,_tempcolorelement@l(11)
	.loc 1 225 0
	cmpwi 7,0,0
	.loc 1 222 0
	stfs 2,4(9)
	.loc 1 223 0
	stfs 3,8(9)
	.loc 1 224 0
	stfs 4,12(9)
	.loc 1 225 0
	beqlr- 7
.LBB220:
.LBB221:
	.loc 1 227 0
	lis 10,copy_material@ha
	lwz 0,copy_material@l(10)
	cmpwi 7,0,4610
	beq- 7,.L101
	cmplwi 7,0,4610
	bgt- 7,.L104
	cmpwi 7,0,4608
	beq- 7,.L99
	cmpwi 7,0,4609
	bnelr+ 7
	.loc 1 231 0
	lwz 8,_tempcolorelement@l(11)
	lwz 10,4(9)
	lwz 11,8(9)
	lwz 0,12(9)
	lis 9,curmat@ha
	la 9,curmat@l(9)
	stw 8,32(9)
	stw 10,36(9)
	stw 11,40(9)
	stw 0,44(9)
	blr
.L104:
	.loc 1 227 0
	cmpwi 7,0,5632
	beq- 7,.L102
	cmpwi 7,0,5634
	bnelr+ 7
	.loc 1 234 0
	lwz 8,_tempcolorelement@l(11)
	lwz 10,4(9)
	lwz 11,8(9)
	lwz 0,12(9)
	lis 9,curmat@ha
	la 9,curmat@l(9)
	stw 8,16(9)
	stw 10,20(9)
	stw 11,24(9)
	stw 0,28(9)
	.loc 1 235 0
	stw 8,32(9)
	stw 10,36(9)
	stw 11,40(9)
	stw 0,44(9)
	blr
.L101:
	.loc 1 232 0
	lwz 8,_tempcolorelement@l(11)
	lwz 10,4(9)
	lwz 11,8(9)
	lwz 0,12(9)
	lis 9,curmat@ha
	la 9,curmat@l(9)
	stw 8,48(9)
	stw 10,52(9)
	stw 11,56(9)
	stw 0,60(9)
	blr
.L99:
	.loc 1 230 0
	lwz 8,_tempcolorelement@l(11)
	lwz 10,4(9)
	lwz 11,8(9)
	lwz 0,12(9)
	lis 9,curmat@ha
	la 9,curmat@l(9)
	stw 8,16(9)
	stw 10,20(9)
	stw 11,24(9)
	stw 0,28(9)
	blr
.L102:
	.loc 1 229 0
	lis 10,curmat@ha
	lwz 7,_tempcolorelement@l(11)
	lwz 8,4(9)
	lwz 11,8(9)
	lwz 0,12(9)
	la 9,curmat@l(10)
	stw 7,curmat@l(10)
	stw 8,4(9)
	stw 11,8(9)
	stw 0,12(9)
	blr
.LBE221:
.LBE220:
	.cfi_endproc
.LFE86:
	.size	glColor4f, .-glColor4f
	.align 2
	.globl glColor3f
	.type	glColor3f, @function
glColor3f:
.LFB85:
	.loc 1 215 0
	.cfi_startproc
.LVL64:
	.loc 1 216 0
	lis 9,.LC4@ha
	.loc 1 217 0
	.loc 1 216 0
	lfs 4,.LC4@l(9)
	b glColor4f
.LVL65:
.LVL66:
.LVL67:
	.cfi_endproc
.LFE85:
	.size	glColor3f, .-glColor3f
	.align 2
	.globl glColor4fv
	.type	glColor4fv, @function
glColor4fv:
.LFB87:
	.loc 1 241 0
	.cfi_startproc
.LVL68:
	.loc 1 242 0
	lfs 1,0(3)
	.loc 1 243 0
	.loc 1 242 0
	lfs 2,4(3)
	lfs 3,8(3)
	lfs 4,12(3)
	b glColor4f
.LVL69:
	.cfi_endproc
.LFE87:
	.size	glColor4fv, .-glColor4fv
	.align 2
	.globl glColor3ub
	.type	glColor3ub, @function
glColor3ub:
.LFB88:
	.loc 1 248 0
	.cfi_startproc
.LVL70:
	stwu 1,-32(1)
.LCFI6:
	.cfi_def_cfa_offset 32
	.loc 1 249 0
	lis 0,0x4330
	lis 9,.LC6@ha
	stw 3,12(1)
	stw 0,8(1)
	stw 4,20(1)
	stw 0,16(1)
	stw 5,28(1)
	stw 0,24(1)
	lfs 0,.LC6@l(9)
	lis 9,.LC7@ha
	lfd 1,8(1)
	lfd 2,16(1)
	lfd 3,24(1)
	fsub 1,1,0
	fsub 2,2,0
	.loc 1 250 0
	.loc 1 249 0
	fsub 3,3,0
	lfs 0,.LC7@l(9)
	frsp 1,1
	lis 9,.LC4@ha
	frsp 2,2
	lfs 4,.LC4@l(9)
	frsp 3,3
	.loc 1 250 0
	addi 1,1,32
.LCFI7:
	.cfi_def_cfa_offset 0
	.loc 1 249 0
	fdivs 1,1,0
	fdivs 2,2,0
	fdivs 3,3,0
	b glColor4f
.LVL71:
.LVL72:
.LVL73:
	.cfi_endproc
.LFE88:
	.size	glColor3ub, .-glColor3ub
	.align 2
	.globl glColor4ub
	.type	glColor4ub, @function
glColor4ub:
.LFB89:
	.loc 1 256 0
	.cfi_startproc
.LVL74:
	stwu 1,-40(1)
.LCFI8:
	.cfi_def_cfa_offset 40
	.loc 1 257 0
	lis 0,0x4330
	lis 9,.LC6@ha
	stw 3,12(1)
	stw 0,8(1)
	stw 4,20(1)
	stw 0,16(1)
	stw 5,28(1)
	stw 0,24(1)
	stw 6,36(1)
	stw 0,32(1)
	lfs 0,.LC6@l(9)
	lis 9,.LC7@ha
	lfd 1,8(1)
	lfd 2,16(1)
	lfd 3,24(1)
	fsub 1,1,0
	lfd 4,32(1)
	fsub 2,2,0
	fsub 3,3,0
	.loc 1 258 0
	.loc 1 257 0
	fsub 4,4,0
	lfs 0,.LC7@l(9)
	frsp 1,1
	.loc 1 258 0
	addi 1,1,40
.LCFI9:
	.cfi_def_cfa_offset 0
	.loc 1 257 0
	frsp 2,2
	frsp 3,3
	frsp 4,4
	fdivs 1,1,0
	fdivs 2,2,0
	fdivs 3,3,0
	fdivs 4,4,0
	b glColor4f
.LVL75:
.LVL76:
.LVL77:
.LVL78:
	.cfi_endproc
.LFE89:
	.size	glColor4ub, .-glColor4ub
	.align 2
	.globl glColor3fv
	.type	glColor3fv, @function
glColor3fv:
.LFB90:
	.loc 1 261 0
	.cfi_startproc
.LVL79:
	.loc 1 262 0
	lfs 1,0(3)
	.loc 1 263 0
	.loc 1 262 0
	lfs 2,4(3)
	lfs 3,8(3)
	b glColor3f
.LVL80:
	.cfi_endproc
.LFE90:
	.size	glColor3fv, .-glColor3fv
	.align 2
	.globl glTexCoord2f
	.type	glTexCoord2f, @function
glTexCoord2f:
.LFB91:
	.loc 1 266 0
	.cfi_startproc
.LVL81:
	.loc 1 267 0
	lis 9,cur_tex@ha
	lwz 0,cur_tex@l(9)
	lis 9,_temptexcoordelement@ha
	la 9,_temptexcoordelement@l(9)
	slwi 0,0,3
	add 11,9,0
	stfsx 1,9,0
	.loc 1 268 0
	stfs 2,4(11)
	.loc 1 269 0
	blr
	.cfi_endproc
.LFE91:
	.size	glTexCoord2f, .-glTexCoord2f
	.align 2
	.globl glTexCoord3f
	.type	glTexCoord3f, @function
glTexCoord3f:
.LFB92:
	.loc 1 271 0
	.cfi_startproc
.LVL82:
	.loc 1 272 0
	lis 9,cur_tex@ha
	lwz 0,cur_tex@l(9)
	lis 9,_temptexcoordelement@ha
	la 9,_temptexcoordelement@l(9)
	slwi 0,0,3
	add 11,9,0
	stfsx 1,9,0
	.loc 1 273 0
	stfs 2,4(11)
	.loc 1 274 0
	blr
	.cfi_endproc
.LFE92:
	.size	glTexCoord3f, .-glTexCoord3f
	.align 2
	.globl glTexCoord2fv
	.type	glTexCoord2fv, @function
glTexCoord2fv:
.LFB93:
	.loc 1 277 0
	.cfi_startproc
.LVL83:
	.loc 1 278 0
	lis 9,cur_tex@ha
	lwz 11,0(3)
	lwz 0,cur_tex@l(9)
	lis 9,_temptexcoordelement@ha
	la 9,_temptexcoordelement@l(9)
	slwi 0,0,3
	stwx 11,9,0
	add 9,9,0
	.loc 1 279 0
	lwz 0,4(3)
	stw 0,4(9)
	.loc 1 280 0
	blr
	.cfi_endproc
.LFE93:
	.size	glTexCoord2fv, .-glTexCoord2fv
	.align 2
	.globl glTexCoord3fv
	.type	glTexCoord3fv, @function
glTexCoord3fv:
.LFB94:
	.loc 1 283 0
	.cfi_startproc
.LVL84:
	.loc 1 284 0
	lis 9,cur_tex@ha
	lwz 11,0(3)
	lwz 0,cur_tex@l(9)
	lis 9,_temptexcoordelement@ha
	la 9,_temptexcoordelement@l(9)
	slwi 0,0,3
	stwx 11,9,0
	add 9,9,0
	.loc 1 285 0
	lwz 0,4(3)
	stw 0,4(9)
	.loc 1 287 0
	blr
	.cfi_endproc
.LFE94:
	.size	glTexCoord3fv, .-glTexCoord3fv
	.align 2
	.globl glLightModelfv
	.type	glLightModelfv, @function
glLightModelfv:
.LFB95:
	.loc 1 292 0
	.cfi_startproc
.LVL85:
	.loc 1 293 0
	lis 9,cur_state@ha
	lwz 0,cur_state@l(9)
	andi. 9,0,1
	bne- 0,.L120
	.loc 1 295 0
	cmpwi 7,3,2899
	beq- 7,.L121
.LVL86:
.LBB222:
.LBB223:
	.loc 1 1273 0
	li 0,1280
	lis 9,glErrCode@ha
	stw 0,glErrCode@l(9)
	.loc 1 1274 0
	lis 9,.LC0@ha
	la 0,.LC0@l(9)
	lis 9,glErrFile@ha
	stw 0,glErrFile@l(9)
	.loc 1 1275 0
	li 0,304
	lis 9,glErrLine@ha
	stw 0,glErrLine@l(9)
	blr
.LVL87:
.L121:
.LBE223:
.LBE222:
	.loc 1 298 0
	lwz 7,0(4)
	lis 11,globAmbient@ha
	.loc 1 299 0
	lwz 8,4(4)
	.loc 1 298 0
	la 9,globAmbient@l(11)
	.loc 1 300 0
	lwz 10,8(4)
	.loc 1 301 0
	lwz 0,12(4)
	.loc 1 298 0
	stw 7,globAmbient@l(11)
	.loc 1 299 0
	stw 8,4(9)
	.loc 1 300 0
	stw 10,8(9)
	.loc 1 301 0
	stw 0,12(9)
	.loc 1 302 0
	blr
.L120:
.LVL88:
.LBB224:
.LBB225:
	.loc 1 1273 0
	li 0,1282
	lis 9,glErrCode@ha
	stw 0,glErrCode@l(9)
	.loc 1 1274 0
	lis 9,.LC0@ha
	la 0,.LC0@l(9)
	lis 9,glErrFile@ha
	stw 0,glErrFile@l(9)
	.loc 1 1275 0
	li 0,293
	lis 9,glErrLine@ha
	stw 0,glErrLine@l(9)
	blr
.LBE225:
.LBE224:
	.cfi_endproc
.LFE95:
	.size	glLightModelfv, .-glLightModelfv
	.align 2
	.globl glLightN
	.type	glLightN, @function
glLightN:
.LFB96:
	.loc 1 310 0
	.cfi_startproc
.LVL89:
	.loc 1 312 0
	addi 3,3,-16384
.LVL90:
	cmplwi 7,3,7
	ble- 7,.L134
.LVL91:
.LBB230:
.LBB231:
.LBB232:
.LBB233:
	.loc 1 1273 0
	li 0,1280
	lis 9,glErrCode@ha
	stw 0,glErrCode@l(9)
	.loc 1 1274 0
	lis 9,.LC0@ha
	la 0,.LC0@l(9)
	lis 9,glErrFile@ha
	stw 0,glErrFile@l(9)
	.loc 1 1275 0
	li 0,323
	lis 9,glErrLine@ha
	li 3,-1
.LVL92:
	stw 0,glErrLine@l(9)
	blr
.LVL93:
.L134:
.LBE233:
.LBE232:
.LBE231:
.LBE230:
	.loc 1 312 0
	lis 9,.L132@ha
	slwi 3,3,2
.LVL94:
	la 9,.L132@l(9)
	lwzx 0,9,3
	add 9,0,9
	mtctr 9
	bctr
	.section	.rodata
	.align 2
	.align 2
.L132:
	.long .L124-.L132
	.long .L133-.L132
	.long .L126-.L132
	.long .L127-.L132
	.long .L128-.L132
	.long .L129-.L132
	.long .L130-.L132
	.long .L131-.L132
	.section	".text"
.L130:
.LVL95:
	.loc 1 320 0
	li 3,6
	blr
.LVL96:
.L131:
	.loc 1 321 0
	li 3,7
	blr
.LVL97:
.L124:
	.loc 1 314 0
	li 3,0
	blr
.L133:
	.loc 1 315 0
	li 3,1
	.loc 1 328 0
	blr
.L126:
.LVL98:
	.loc 1 316 0
	li 3,2
	blr
.LVL99:
.L127:
	.loc 1 317 0
	li 3,3
	blr
.LVL100:
.L128:
	.loc 1 318 0
	li 3,4
	blr
.LVL101:
.L129:
	.loc 1 319 0
	li 3,5
	blr
	.cfi_endproc
.LFE96:
	.size	glLightN, .-glLightN
	.align 2
	.globl glLightf
	.type	glLightf, @function
glLightf:
.LFB97:
	.loc 1 330 0
	.cfi_startproc
.LVL102:
	mflr 0
	stwu 1,-24(1)
.LCFI10:
	.cfi_def_cfa_offset 24
	.cfi_register 65, 0
	.loc 1 331 0
	lis 9,cur_state@ha
	.loc 1 330 0
	stw 0,28(1)
	.loc 1 331 0
	lwz 0,cur_state@l(9)
	.cfi_offset 65, 4
	andi. 9,0,1
	beq- 0,.L136
.LVL103:
.LBB234:
.LBB235:
	.loc 1 1273 0
	li 0,1282
	lis 9,glErrCode@ha
	stw 0,glErrCode@l(9)
	.loc 1 1274 0
	lis 9,.LC0@ha
	la 0,.LC0@l(9)
	lis 9,glErrFile@ha
	stw 0,glErrFile@l(9)
	.loc 1 1275 0
	li 0,331
	lis 9,glErrLine@ha
	stw 0,glErrLine@l(9)
.LVL104:
.L135:
.LBE235:
.LBE234:
	.loc 1 349 0
	lwz 0,28(1)
	addi 1,1,24
	.cfi_remember_state
.LCFI11:
	.cfi_def_cfa_offset 0
	mtlr 0
	blr
.LVL105:
.L136:
.LCFI12:
	.cfi_restore_state
	.loc 1 333 0
	stw 4,8(1)
	stfd 1,16(1)
	bl glLightN
.LVL106:
	.loc 1 335 0
	cmpwi 0,3,0
	lwz 4,8(1)
	lfd 1,16(1)
	blt- 0,.L135
	.loc 1 338 0
	addi 4,4,-4613
	cmplwi 7,4,4
	ble- 7,.L145
.LVL107:
.LBB236:
.LBB237:
	.loc 1 1273 0
	li 0,1280
	lis 9,glErrCode@ha
	stw 0,glErrCode@l(9)
	.loc 1 1274 0
	lis 9,.LC0@ha
	la 0,.LC0@l(9)
	lis 9,glErrFile@ha
	stw 0,glErrFile@l(9)
	.loc 1 1275 0
	li 0,346
	lis 9,glErrLine@ha
	stw 0,glErrLine@l(9)
	b .L135
.LVL108:
.L145:
.LBE237:
.LBE236:
	.loc 1 338 0
	lis 9,.L144@ha
	slwi 4,4,2
	la 9,.L144@l(9)
	.loc 1 344 0
	mulli 3,3,164
.LVL109:
	.loc 1 338 0
	lwzx 0,9,4
	add 9,0,9
	mtctr 9
	.loc 1 344 0
	lis 9,lights@ha
	la 0,lights@l(9)
	add 3,0,3
	.loc 1 338 0
	bctr
	.section	.rodata
	.align 2
	.align 2
.L144:
	.long .L139-.L144
	.long .L140-.L144
	.long .L141-.L144
	.long .L142-.L144
	.long .L143-.L144
	.section	".text"
.L142:
	.loc 1 343 0
	stfs 1,156(3)
	b .L135
.L141:
	.loc 1 342 0
	stfs 1,152(3)
	b .L135
.L140:
	.loc 1 340 0
	stfs 1,148(3)
	b .L135
.L139:
	.loc 1 341 0
	stfs 1,144(3)
	b .L135
.L143:
	.loc 1 344 0
	stfs 1,160(3)
	b .L135
	.cfi_endproc
.LFE97:
	.size	glLightf, .-glLightf
	.align 2
	.globl glLightfv
	.type	glLightfv, @function
glLightfv:
.LFB98:
	.loc 1 351 0
	.cfi_startproc
.LVL110:
	mflr 0
	stwu 1,-96(1)
.LCFI13:
	.cfi_def_cfa_offset 96
	.cfi_register 65, 0
	.loc 1 352 0
	lis 9,cur_state@ha
	.loc 1 351 0
	stw 31,92(1)
	mr 31,5
	.cfi_offset 31, -4
	stw 0,100(1)
	.loc 1 352 0
	lwz 0,cur_state@l(9)
	.cfi_offset 65, 4
	.loc 1 351 0
	stw 29,84(1)
	.loc 1 352 0
	andi. 9,0,1
	.loc 1 351 0
	stw 30,88(1)
	.loc 1 352 0
	beq- 0,.L147
	.cfi_offset 30, -8
	.cfi_offset 29, -12
.LVL111:
.LBB238:
.LBB239:
	.loc 1 1273 0
	li 0,1282
	lis 9,glErrCode@ha
	stw 0,glErrCode@l(9)
	.loc 1 1274 0
	lis 9,.LC0@ha
	la 0,.LC0@l(9)
	lis 9,glErrFile@ha
	stw 0,glErrFile@l(9)
	.loc 1 1275 0
	li 0,352
	lis 9,glErrLine@ha
	stw 0,glErrLine@l(9)
.LVL112:
.L146:
.LBE239:
.LBE238:
	.loc 1 411 0
	lwz 0,100(1)
	lwz 29,84(1)
	mtlr 0
	lwz 30,88(1)
	lwz 31,92(1)
.LVL113:
	addi 1,1,96
	.cfi_remember_state
.LCFI14:
	.cfi_def_cfa_offset 0
	.cfi_restore 31
	.cfi_restore 30
	.cfi_restore 29
	blr
.LVL114:
.L147:
.LCFI15:
	.cfi_restore_state
	.loc 1 354 0
	stw 4,72(1)
	bl glLightN
.LVL115:
	.loc 1 356 0
	cmpwi 0,3,0
	lwz 4,72(1)
	blt- 0,.L146
	.loc 1 361 0
	addi 4,4,-4608
	.loc 1 359 0
	li 0,0
	.loc 1 361 0
	cmplwi 7,4,4
	.loc 1 359 0
	stw 0,8(1)
	stw 0,12(1)
	stw 0,16(1)
	.loc 1 361 0
	ble- 7,.L156
.LVL116:
.LBB240:
.LBB241:
.LBB242:
	.loc 1 1273 0
	li 0,1280
	lis 9,glErrCode@ha
	stw 0,glErrCode@l(9)
	.loc 1 1274 0
	lis 9,.LC0@ha
	la 0,.LC0@l(9)
	lis 9,glErrFile@ha
	stw 0,glErrFile@l(9)
	.loc 1 1275 0
	li 0,407
	lis 9,glErrLine@ha
	stw 0,glErrLine@l(9)
	b .L146
.LVL117:
.L156:
.LBE242:
.LBE241:
.LBE240:
	.loc 1 361 0
	lis 9,.L155@ha
	slwi 4,4,2
	la 9,.L155@l(9)
	lwzx 0,9,4
	add 9,0,9
	mtctr 9
	bctr
	.section	.rodata
	.align 2
	.align 2
.L155:
	.long .L150-.L155
	.long .L151-.L155
	.long .L152-.L155
	.long .L153-.L155
	.long .L154-.L155
	.section	".text"
.L153:
	.loc 1 370 0
	mulli 30,3,164
	.loc 1 367 0
	lwz 0,8(31)
	.loc 1 365 0
	lwz 11,0(31)
	.loc 1 370 0
	lis 3,model_stack@ha
.LVL118:
	.loc 1 366 0
	lwz 9,4(31)
	.loc 1 370 0
	lis 29,lights@ha
	la 29,lights@l(29)
	la 3,model_stack@l(3)
	.loc 1 367 0
	stw 0,16(1)
	.loc 1 365 0
	stw 11,8(1)
	.loc 1 366 0
	stw 9,12(1)
	.loc 1 370 0
	bl TopMtx
	add 5,29,30
	addi 4,1,8
	addi 5,5,68
	.loc 1 372 0
	add 30,29,30
	.loc 1 370 0
	bl ps_guVecMultiply
	.loc 1 372 0
	lwz 0,12(31)
	stw 0,80(30)
	.loc 1 373 0
	b .L146
.LVL119:
.L152:
	.loc 1 388 0
	mulli 3,3,164
.LVL120:
	lis 9,lights@ha
	lwz 0,0(31)
	la 9,lights@l(9)
	add 3,9,3
	stw 0,128(3)
	.loc 1 389 0
	lwz 0,4(31)
	stw 0,132(3)
	.loc 1 390 0
	lwz 0,8(31)
	stw 0,136(3)
	.loc 1 391 0
	lwz 0,12(31)
	stw 0,140(3)
	.loc 1 392 0
	b .L146
.LVL121:
.L151:
	.loc 1 376 0
	mulli 3,3,164
.LVL122:
	lis 9,lights@ha
	lwz 0,0(31)
	la 9,lights@l(9)
	add 3,9,3
	stw 0,112(3)
	.loc 1 377 0
	lwz 0,4(31)
	stw 0,116(3)
	.loc 1 378 0
	lwz 0,8(31)
	stw 0,120(3)
	.loc 1 379 0
	lwz 0,12(31)
	stw 0,124(3)
	.loc 1 380 0
	b .L146
.LVL123:
.L150:
	.loc 1 382 0
	mulli 3,3,164
.LVL124:
	lis 9,lights@ha
	lwz 0,0(31)
	la 9,lights@l(9)
	add 3,9,3
	stw 0,96(3)
	.loc 1 383 0
	lwz 0,4(31)
	stw 0,100(3)
	.loc 1 384 0
	lwz 0,8(31)
	stw 0,104(3)
	.loc 1 385 0
	lwz 0,12(31)
	stw 0,108(3)
	.loc 1 386 0
	b .L146
.LVL125:
.L154:
.LBB243:
	.loc 1 395 0
	mulli 30,3,164
	lis 29,lights@ha
	lwz 0,0(31)
	la 29,lights@l(29)
	.loc 1 402 0
	lis 3,model_stack@ha
.LVL126:
	.loc 1 395 0
	add 9,29,30
	.loc 1 402 0
	la 3,model_stack@l(3)
	.loc 1 395 0
	stw 0,84(9)
	.loc 1 396 0
	lwz 0,4(31)
	stw 0,88(9)
	.loc 1 397 0
	lwz 0,8(31)
	stw 0,92(9)
	.loc 1 402 0
	bl TopMtx
	addi 4,1,20
	bl ps_guMtxTranspose
	.loc 1 404 0
	add 4,29,30
	addi 4,4,84
	addi 3,1,20
	mr 5,4
	bl ps_guVecMultiply
	.loc 1 405 0
	b .L146
.LBE243:
	.cfi_endproc
.LFE98:
	.size	glLightfv, .-glLightfv
	.align 2
	.globl glMaterialf
	.type	glMaterialf, @function
glMaterialf:
.LFB99:
	.loc 1 415 0
	.cfi_startproc
.LVL127:
	.loc 1 416 0
	cmpwi 7,4,5633
	beq- 7,.L162
.LVL128:
.LBB244:
.LBB245:
	.loc 1 1273 0
	li 0,1280
	lis 9,glErrCode@ha
	stw 0,glErrCode@l(9)
	.loc 1 1274 0
	lis 9,.LC0@ha
	la 0,.LC0@l(9)
	lis 9,glErrFile@ha
	stw 0,glErrFile@l(9)
	.loc 1 1275 0
	li 0,421
	lis 9,glErrLine@ha
	stw 0,glErrLine@l(9)
	blr
.LVL129:
.L162:
.LBE245:
.LBE244:
	.loc 1 419 0
	lis 9,curmat+64@ha
	stfs 1,curmat+64@l(9)
	blr
	.cfi_endproc
.LFE99:
	.size	glMaterialf, .-glMaterialf
	.align 2
	.globl glMaterialfv
	.type	glMaterialfv, @function
glMaterialfv:
.LFB100:
	.loc 1 426 0
	.cfi_startproc
.LVL130:
	.loc 1 427 0
	cmpwi 7,4,4610
	.loc 1 426 0
	mflr 0
	stwu 1,-16(1)
.LCFI16:
	.cfi_def_cfa_offset 16
	.cfi_register 65, 0
	stw 31,12(1)
	mr 31,5
	.cfi_offset 31, -4
	stw 0,20(1)
	.loc 1 427 0
	beq- 7,.L167
	.cfi_offset 65, 4
	cmplwi 7,4,4610
	ble- 7,.L173
	cmpwi 7,4,5633
	beq- 7,.L169
	cmpwi 7,4,5634
	beq- 7,.L170
	cmpwi 7,4,5632
	beq- 7,.L174
.L164:
.LVL131:
.LBB246:
.LBB247:
	.loc 1 1273 0
	li 0,1280
	lis 9,glErrCode@ha
	stw 0,glErrCode@l(9)
	.loc 1 1274 0
	lis 9,.LC0@ha
	la 0,.LC0@l(9)
	lis 9,glErrFile@ha
	stw 0,glErrFile@l(9)
	.loc 1 1275 0
	li 0,461
	lis 9,glErrLine@ha
.LBE247:
.LBE246:
	.loc 1 464 0
	lwz 31,12(1)
.LBB249:
.LBB248:
	.loc 1 1275 0
	stw 0,glErrLine@l(9)
.LBE248:
.LBE249:
	.loc 1 464 0
	lwz 0,20(1)
	addi 1,1,16
	.cfi_remember_state
.LCFI17:
	.cfi_def_cfa_offset 0
	.cfi_restore 31
	mtlr 0
	blr
.LVL132:
.L173:
.LCFI18:
	.cfi_restore_state
	.loc 1 427 0
	cmpwi 7,4,4608
	beq- 7,.L165
	cmpwi 7,4,4609
	bne+ 7,.L164
	b .L166
.L170:
	.loc 1 430 0
	li 4,4608
.LVL133:
	bl glMaterialfv
.LVL134:
.L166:
	.loc 1 440 0
	lwz 0,0(31)
	lis 9,curmat@ha
	la 9,curmat@l(9)
	stw 0,32(9)
	.loc 1 441 0
	lwz 0,4(31)
	stw 0,36(9)
	.loc 1 442 0
	lwz 0,8(31)
	stw 0,40(9)
	.loc 1 443 0
	lwz 0,12(31)
	.loc 1 464 0
	lwz 31,12(1)
.LVL135:
	.loc 1 443 0
	stw 0,44(9)
	.loc 1 464 0
	lwz 0,20(1)
	addi 1,1,16
	.cfi_remember_state
	.cfi_restore 31
.LCFI19:
	.cfi_def_cfa_offset 0
	mtlr 0
	blr
.LVL136:
.L169:
.LCFI20:
	.cfi_restore_state
	.loc 1 458 0
	lwz 0,0(5)
	lis 9,curmat+64@ha
	.loc 1 464 0
	lwz 31,12(1)
	.loc 1 458 0
	stw 0,curmat+64@l(9)
	.loc 1 464 0
	lwz 0,20(1)
	addi 1,1,16
	.cfi_remember_state
	.cfi_restore 31
.LCFI21:
	.cfi_def_cfa_offset 0
	mtlr 0
	blr
.L174:
.LCFI22:
	.cfi_restore_state
	.loc 1 434 0
	lis 11,curmat@ha
	.loc 1 437 0
	lwz 0,12(5)
	.loc 1 434 0
	la 9,curmat@l(11)
	lwz 7,0(5)
	.loc 1 435 0
	lwz 8,4(5)
	.loc 1 436 0
	lwz 10,8(5)
	.loc 1 437 0
	stw 0,12(9)
	.loc 1 464 0
	lwz 0,20(1)
	lwz 31,12(1)
	mtlr 0
	.loc 1 435 0
	stw 8,4(9)
	.loc 1 436 0
	stw 10,8(9)
	.loc 1 464 0
	.loc 1 434 0
	stw 7,curmat@l(11)
	.loc 1 464 0
	addi 1,1,16
	.cfi_remember_state
	.cfi_restore 31
.LCFI23:
	.cfi_def_cfa_offset 0
	blr
.L165:
.LCFI24:
	.cfi_restore_state
	.loc 1 446 0
	lwz 0,0(5)
	lis 9,curmat@ha
	la 9,curmat@l(9)
	.loc 1 464 0
	lwz 31,12(1)
	.loc 1 446 0
	stw 0,16(9)
	.loc 1 447 0
	lwz 0,4(5)
	stw 0,20(9)
	.loc 1 448 0
	lwz 0,8(5)
	stw 0,24(9)
	.loc 1 449 0
	lwz 0,12(5)
	stw 0,28(9)
	.loc 1 464 0
	lwz 0,20(1)
	addi 1,1,16
	.cfi_remember_state
	.cfi_restore 31
.LCFI25:
	.cfi_def_cfa_offset 0
	mtlr 0
	blr
.L167:
.LCFI26:
	.cfi_restore_state
	.loc 1 452 0
	lwz 0,0(5)
	lis 9,curmat@ha
	la 9,curmat@l(9)
	.loc 1 464 0
	lwz 31,12(1)
	.loc 1 452 0
	stw 0,48(9)
	.loc 1 453 0
	lwz 0,4(5)
	stw 0,52(9)
	.loc 1 454 0
	lwz 0,8(5)
	stw 0,56(9)
	.loc 1 455 0
	lwz 0,12(5)
	stw 0,60(9)
	.loc 1 464 0
	lwz 0,20(1)
	addi 1,1,16
	.cfi_restore 31
.LCFI27:
	.cfi_def_cfa_offset 0
	mtlr 0
	blr
	.cfi_endproc
.LFE100:
	.size	glMaterialfv, .-glMaterialfv
	.align 2
	.globl glGetMaterialfv
	.type	glGetMaterialfv, @function
glGetMaterialfv:
.LFB101:
	.loc 1 469 0
	.cfi_startproc
.LVL137:
	.loc 1 470 0
	lis 9,cur_state@ha
	lwz 0,cur_state@l(9)
	andi. 9,0,1
	bne- 0,.L186
.LVL138:
	.loc 1 474 0
	cmpwi 7,4,4610
	beq- 7,.L181
	cmplwi 7,4,4610
	bgt- 7,.L184
	cmpwi 7,4,4608
	beq- 7,.L179
	cmpwi 7,4,4609
	beq- 7,.L187
.L178:
.LVL139:
.LBB250:
.LBB251:
	.loc 1 1273 0
	li 0,1280
	lis 9,glErrCode@ha
	stw 0,glErrCode@l(9)
	.loc 1 1274 0
	lis 9,.LC0@ha
	la 0,.LC0@l(9)
	lis 9,glErrFile@ha
	stw 0,glErrFile@l(9)
	.loc 1 1275 0
	li 0,496
	lis 9,glErrLine@ha
	stw 0,glErrLine@l(9)
	blr
.LVL140:
.L186:
.LBE251:
.LBE250:
.LBB252:
.LBB253:
	.loc 1 1273 0
	li 0,1282
	lis 9,glErrCode@ha
	stw 0,glErrCode@l(9)
	.loc 1 1274 0
	lis 9,.LC0@ha
	la 0,.LC0@l(9)
	lis 9,glErrFile@ha
	stw 0,glErrFile@l(9)
	.loc 1 1275 0
	li 0,470
	lis 9,glErrLine@ha
	stw 0,glErrLine@l(9)
	blr
.LVL141:
.L184:
.LBE253:
.LBE252:
	.loc 1 474 0
	cmpwi 7,4,5632
	beq- 7,.L182
	cmpwi 7,4,5633
	bne+ 7,.L178
	.loc 1 493 0
	lis 9,curmat+64@ha
	lwz 0,curmat+64@l(9)
	stw 0,0(5)
	blr
.L181:
.LVL142:
	.loc 1 490 0
	lis 8,curmat@ha
	la 8,curmat@l(8)
	lwz 10,48(8)
.LVL143:
	lwz 11,52(8)
.LVL144:
	lwz 9,56(8)
.LVL145:
	lwz 0,60(8)
.LVL146:
.L185:
	.loc 1 502 0
	stw 10,0(5)
	.loc 1 503 0
	stw 11,4(5)
	.loc 1 504 0
	stw 9,8(5)
	.loc 1 505 0
	stw 0,12(5)
	blr
.LVL147:
.L179:
	.loc 1 486 0
	lis 8,curmat@ha
	la 8,curmat@l(8)
	lwz 10,16(8)
.LVL148:
	lwz 11,20(8)
.LVL149:
	lwz 9,24(8)
.LVL150:
	lwz 0,28(8)
.LVL151:
	.loc 1 502 0
	stw 10,0(5)
	.loc 1 503 0
	stw 11,4(5)
	.loc 1 504 0
	stw 9,8(5)
	.loc 1 505 0
	stw 0,12(5)
	blr
.LVL152:
.L182:
	.loc 1 478 0
	lis 9,curmat@ha
	la 8,curmat@l(9)
	lwz 10,curmat@l(9)
.LVL153:
	lwz 11,4(8)
.LVL154:
	lwz 9,8(8)
.LVL155:
	lwz 0,12(8)
.LVL156:
	.loc 1 479 0
	b .L185
.LVL157:
.L187:
	.loc 1 482 0
	lis 8,curmat@ha
	la 8,curmat@l(8)
	lwz 10,32(8)
.LVL158:
	lwz 11,36(8)
.LVL159:
	lwz 9,40(8)
.LVL160:
	lwz 0,44(8)
.LVL161:
	.loc 1 483 0
	b .L185
	.cfi_endproc
.LFE101:
	.size	glGetMaterialfv, .-glGetMaterialfv
	.align 2
	.globl glClear
	.type	glClear, @function
glClear:
.LFB103:
	.loc 1 576 0
	.cfi_startproc
.LVL162:
	.loc 1 577 0
	lis 9,cur_state@ha
	lwz 0,cur_state@l(9)
	andi. 9,0,1
	beqlr- 0
.LVL163:
.LBB254:
.LBB255:
	.loc 1 1273 0
	li 0,1282
	lis 9,glErrCode@ha
	stw 0,glErrCode@l(9)
	.loc 1 1274 0
	lis 9,.LC0@ha
	la 0,.LC0@l(9)
	lis 9,glErrFile@ha
	stw 0,glErrFile@l(9)
	.loc 1 1275 0
	li 0,577
	lis 9,glErrLine@ha
	stw 0,glErrLine@l(9)
	blr
.LBE255:
.LBE254:
	.cfi_endproc
.LFE103:
	.size	glClear, .-glClear
	.align 2
	.globl glClearColor
	.type	glClearColor, @function
glClearColor:
.LFB104:
	.loc 1 634 0
	.cfi_startproc
.LVL164:
	.loc 1 636 0
	lis 9,cur_state@ha
	.loc 1 634 0
	stwu 1,-24(1)
.LCFI28:
	.cfi_def_cfa_offset 24
	.loc 1 636 0
	lwz 0,cur_state@l(9)
	andi. 9,0,1
	bne- 0,.L193
	.loc 1 638 0
	lis 9,.LC7@ha
	lis 11,_clearcolor@ha
	lfs 0,.LC7@l(9)
	addi 9,1,8
	fmuls 1,1,0
.LVL165:
	.loc 1 639 0
	fmuls 2,2,0
.LVL166:
	.loc 1 640 0
	fmuls 3,3,0
.LVL167:
	.loc 1 638 0
	fctiwz 1,1
	.loc 1 641 0
	fmuls 0,4,0
	.loc 1 639 0
	fctiwz 2,2
	.loc 1 640 0
	fctiwz 3,3
	.loc 1 638 0
	stfiwx 1,0,9
	.loc 1 641 0
	fctiwz 0,0
	.loc 1 639 0
	addi 9,1,12
	stfiwx 2,0,9
	.loc 1 640 0
	addi 9,1,16
	stfiwx 3,0,9
	.loc 1 641 0
	addi 9,1,20
	stfiwx 0,0,9
	.loc 1 638 0
	la 9,_clearcolor@l(11)
	.loc 1 639 0
	lwz 8,12(1)
	.loc 1 640 0
	lwz 10,16(1)
	.loc 1 641 0
	lwz 0,20(1)
	.loc 1 638 0
	lwz 7,8(1)
	.loc 1 639 0
	stb 8,1(9)
	.loc 1 640 0
	stb 10,2(9)
	.loc 1 641 0
	stb 0,3(9)
	.loc 1 638 0
	stb 7,_clearcolor@l(11)
	.loc 1 642 0
	addi 1,1,24
	.cfi_remember_state
.LCFI29:
	.cfi_def_cfa_offset 0
	blr
.LVL168:
.L193:
.LCFI30:
	.cfi_restore_state
.LBB256:
.LBB257:
	.loc 1 1273 0
	li 0,1282
	lis 9,glErrCode@ha
	stw 0,glErrCode@l(9)
	.loc 1 1274 0
	lis 9,.LC0@ha
	la 0,.LC0@l(9)
	lis 9,glErrFile@ha
	stw 0,glErrFile@l(9)
	.loc 1 1275 0
	li 0,636
	lis 9,glErrLine@ha
.LBE257:
.LBE256:
	.loc 1 642 0
.LBB259:
.LBB258:
	.loc 1 1275 0
	stw 0,glErrLine@l(9)
.LBE258:
.LBE259:
	.loc 1 642 0
	addi 1,1,24
.LCFI31:
	.cfi_def_cfa_offset 0
	blr
	.cfi_endproc
.LFE104:
	.size	glClearColor, .-glClearColor
	.align 2
	.globl glClearDepth
	.type	glClearDepth, @function
glClearDepth:
.LFB105:
	.loc 1 644 0
	.cfi_startproc
.LVL169:
	.loc 1 646 0
	lis 9,cur_state@ha
	.loc 1 644 0
	stwu 1,-16(1)
.LCFI32:
	.cfi_def_cfa_offset 16
	.loc 1 646 0
	lwz 0,cur_state@l(9)
	andi. 9,0,1
	bne- 0,.L200
	.loc 1 648 0
	lis 9,.LC4@ha
	lfs 0,.LC4@l(9)
	fmr 13,0
	stfs 0,8(1)
	lwz 0,8(1)
	fcmpu 7,1,13
	bng- 7,.L201
.LVL170:
.L197:
	.loc 1 657 0
	lis 9,_cleardepth@ha
	.loc 1 658 0
	.loc 1 657 0
	stw 0,_cleardepth@l(9)
	.loc 1 658 0
	addi 1,1,16
	.cfi_remember_state
.LCFI33:
	.cfi_def_cfa_offset 0
	blr
.LVL171:
.L201:
.LCFI34:
	.cfi_restore_state
	.loc 1 652 0
	lis 9,.LC9@ha
	li 0,0
	lfd 0,.LC9@l(9)
	fcmpu 7,1,0
	blt+ 7,.L197
	frsp 1,1
.LVL172:
	stfs 1,8(1)
	lwz 0,8(1)
	b .L197
.LVL173:
.L200:
.LBB260:
.LBB261:
	.loc 1 1273 0
	li 0,1282
	lis 9,glErrCode@ha
	stw 0,glErrCode@l(9)
	.loc 1 1274 0
	lis 9,.LC0@ha
	la 0,.LC0@l(9)
	lis 9,glErrFile@ha
	stw 0,glErrFile@l(9)
	.loc 1 1275 0
	li 0,646
	lis 9,glErrLine@ha
.LBE261:
.LBE260:
	.loc 1 658 0
.LBB263:
.LBB262:
	.loc 1 1275 0
	stw 0,glErrLine@l(9)
.LBE262:
.LBE263:
	.loc 1 658 0
	addi 1,1,16
.LCFI35:
	.cfi_def_cfa_offset 0
	blr
	.cfi_endproc
.LFE105:
	.size	glClearDepth, .-glClearDepth
	.align 2
	.globl glFlush
	.type	glFlush, @function
glFlush:
.LFB106:
	.loc 1 662 0
	.cfi_startproc
	mflr 0
	stwu 1,-8(1)
.LCFI36:
	.cfi_def_cfa_offset 8
	.cfi_register 65, 0
	.loc 1 664 0
	lis 9,cur_state@ha
	.loc 1 662 0
	stw 0,12(1)
	.loc 1 664 0
	lwz 0,cur_state@l(9)
	.cfi_offset 65, 4
	andi. 9,0,1
	beq- 0,.L203
.LVL174:
.LBB264:
.LBB265:
	.loc 1 1273 0
	li 0,1282
	lis 9,glErrCode@ha
	stw 0,glErrCode@l(9)
	.loc 1 1274 0
	lis 9,.LC0@ha
	la 0,.LC0@l(9)
	lis 9,glErrFile@ha
	stw 0,glErrFile@l(9)
	.loc 1 1275 0
	li 0,664
	lis 9,glErrLine@ha
	stw 0,glErrLine@l(9)
.LBE265:
.LBE264:
	.loc 1 667 0
	lwz 0,12(1)
	addi 1,1,8
	.cfi_remember_state
.LCFI37:
	.cfi_def_cfa_offset 0
	mtlr 0
	blr
.LVL175:
.L203:
.LCFI38:
	.cfi_restore_state
	.loc 1 666 0
	bl GX_DrawDone
	.loc 1 667 0
	lwz 0,12(1)
	addi 1,1,8
.LCFI39:
	.cfi_def_cfa_offset 0
	mtlr 0
	blr
	.cfi_endproc
.LFE106:
	.size	glFlush, .-glFlush
	.align 2
	.globl updateFog
	.type	updateFog, @function
updateFog:
.LFB107:
	.loc 1 674 0
	.cfi_startproc
	mflr 0
	stwu 1,-16(1)
.LCFI40:
	.cfi_def_cfa_offset 16
	.cfi_register 65, 0
	.loc 1 675 0
	lis 3,projection_stack@ha
	la 3,projection_stack@l(3)
	.loc 1 674 0
	stw 0,20(1)
	.loc 1 675 0
	.cfi_offset 65, 4
	bl TopPrjMtx
.LVL176:
	.loc 1 676 0
	lis 9,fog_enable@ha
	lbz 0,fog_enable@l(9)
	cmpwi 7,0,0
	beq- 7,.L206
	.loc 1 678 0
	lis 9,fog_mode@ha
	.loc 1 680 0
	mr 4,1
	.loc 1 678 0
	lbz 0,fog_mode@l(9)
	.loc 1 680 0
	lis 9,fog_color@ha
	lwz 9,fog_color@l(9)
	stwu 9,8(4)
	.loc 1 678 0
	andi. 9,0,2
	bne- 0,.L209
	.loc 1 684 0
	lis 9,fog_density@ha
	lfs 3,68(3)
	lfs 2,fog_density@l(9)
	lis 9,.LC1@ha
	lfs 4,72(3)
	mr 3,0
.LVL177:
	lfs 1,.LC1@l(9)
	bl GX_SetFog
	.loc 1 691 0
	lwz 0,20(1)
	addi 1,1,16
	.cfi_remember_state
.LCFI41:
	.cfi_def_cfa_offset 0
	mtlr 0
	blr
.LVL178:
.L209:
.LCFI42:
	.cfi_restore_state
	.loc 1 680 0
	lis 9,fog_startz@ha
	lfs 3,68(3)
	lfs 1,fog_startz@l(9)
	lis 9,fog_endz@ha
	lfs 4,72(3)
	mr 3,0
.LVL179:
	lfs 2,fog_endz@l(9)
	bl GX_SetFog
	.loc 1 691 0
	lwz 0,20(1)
	addi 1,1,16
	.cfi_remember_state
.LCFI43:
	.cfi_def_cfa_offset 0
	mtlr 0
	blr
.LVL180:
.L206:
.LCFI44:
	.cfi_restore_state
	.loc 1 689 0
	lis 9,fog_color@ha
	mr 4,1
	lwz 0,fog_color@l(9)
	lis 9,fog_startz@ha
	lfs 1,fog_startz@l(9)
	lis 9,fog_endz@ha
	stwu 0,8(4)
	lfs 2,fog_endz@l(9)
	lfs 3,68(3)
	lfs 4,72(3)
	li 3,0
.LVL181:
	bl GX_SetFog
	.loc 1 691 0
	lwz 0,20(1)
	addi 1,1,16
.LCFI45:
	.cfi_def_cfa_offset 0
	mtlr 0
	blr
	.cfi_endproc
.LFE107:
	.size	updateFog, .-updateFog
	.align 2
	.globl glFogf
	.type	glFogf, @function
glFogf:
.LFB110:
	.loc 1 709 0
	.cfi_startproc
.LVL182:
	.loc 1 710 0
	lis 9,cur_state@ha
	.loc 1 709 0
	stwu 1,-16(1)
.LCFI46:
	.cfi_def_cfa_offset 16
	.loc 1 710 0
	lwz 0,cur_state@l(9)
	andi. 9,0,1
	bne- 0,.L230
	.loc 1 712 0
	cmpwi 7,3,2915
	beq- 7,.L215
	cmplwi 7,3,2915
	bgt- 7,.L218
	cmpwi 7,3,2914
	bne+ 7,.L213
	.loc 1 738 0
	lis 9,.LC1@ha
	lfs 0,.LC1@l(9)
	fcmpu 7,1,0
	bnl- 7,.L229
.LVL183:
.LBB286:
.LBB287:
	.loc 1 1273 0
	li 0,1281
	lis 9,glErrCode@ha
	stw 0,glErrCode@l(9)
	.loc 1 1274 0
	lis 9,.LC0@ha
	la 0,.LC0@l(9)
	lis 9,glErrFile@ha
	stw 0,glErrFile@l(9)
	.loc 1 1275 0
	li 0,740
	lis 9,glErrLine@ha
	stw 0,glErrLine@l(9)
	b .L210
.LVL184:
.L230:
.LBE287:
.LBE286:
.LBB288:
.LBB289:
	.loc 1 1273 0
	li 0,1282
	lis 9,glErrCode@ha
	stw 0,glErrCode@l(9)
	.loc 1 1274 0
	lis 9,.LC0@ha
	la 0,.LC0@l(9)
	lis 9,glErrFile@ha
	stw 0,glErrFile@l(9)
	.loc 1 1275 0
	li 0,710
	lis 9,glErrLine@ha
	stw 0,glErrLine@l(9)
.LVL185:
.L210:
.LBE289:
.LBE288:
	.loc 1 749 0
	addi 1,1,16
	.cfi_remember_state
.LCFI47:
	.cfi_def_cfa_offset 0
	blr
.LVL186:
.L218:
.LCFI48:
	.cfi_restore_state
	.loc 1 712 0
	cmpwi 7,3,2916
	beq- 7,.L216
	cmpwi 7,3,2917
	beq- 7,.L231
.L213:
.LVL187:
.LBB290:
.LBB291:
	.loc 1 1273 0
	li 0,1280
	lis 9,glErrCode@ha
	stw 0,glErrCode@l(9)
	.loc 1 1274 0
	lis 9,.LC0@ha
	la 0,.LC0@l(9)
	lis 9,glErrFile@ha
	stw 0,glErrFile@l(9)
	.loc 1 1275 0
	li 0,746
	lis 9,glErrLine@ha
.LBE291:
.LBE290:
	.loc 1 749 0
.LBB293:
.LBB292:
	.loc 1 1275 0
	stw 0,glErrLine@l(9)
.LBE292:
.LBE293:
	.loc 1 749 0
	addi 1,1,16
	.cfi_remember_state
.LCFI49:
	.cfi_def_cfa_offset 0
	blr
.LVL188:
.L215:
.LCFI50:
	.cfi_restore_state
	.loc 1 732 0
	lis 9,fog_startz@ha
	.loc 1 749 0
	.loc 1 732 0
	stfs 1,fog_startz@l(9)
	.loc 1 749 0
	addi 1,1,16
	.cfi_remember_state
.LCFI51:
	.cfi_def_cfa_offset 0
	blr
.L216:
.LCFI52:
	.cfi_restore_state
	.loc 1 735 0
	lis 9,fog_endz@ha
	.loc 1 749 0
	.loc 1 735 0
	stfs 1,fog_endz@l(9)
	.loc 1 749 0
	addi 1,1,16
	.cfi_remember_state
.LCFI53:
	.cfi_def_cfa_offset 0
	blr
.L231:
.LCFI54:
	.cfi_restore_state
.LVL189:
.LBB294:
.LBB295:
	.loc 1 715 0
	lis 9,.LC10@ha
	lfs 0,.LC10@l(9)
	fcmpu 7,1,0
	cror 30,29,30
	beq- 7,.L223
	fctiwz 1,1
.LVL190:
	addi 9,1,12
	stfiwx 1,0,9
	lwz 9,12(1)
.L224:
	cmpwi 7,9,2049
	beq- 7,.L221
	cmpwi 7,9,9729
	beq- 7,.L222
	cmpwi 7,9,2048
	beq- 7,.L232
.LVL191:
.LBB296:
.LBB297:
	.loc 1 1273 0
	li 0,1280
	lis 9,glErrCode@ha
	stw 0,glErrCode@l(9)
	.loc 1 1274 0
	lis 9,.LC0@ha
	la 0,.LC0@l(9)
	lis 9,glErrFile@ha
	stw 0,glErrFile@l(9)
	.loc 1 1275 0
	li 0,727
	lis 9,glErrLine@ha
	stw 0,glErrLine@l(9)
	b .L210
.LVL192:
.L229:
.LBE297:
.LBE296:
.LBE295:
.LBE294:
.LBB299:
.LBB300:
	.loc 1 698 0
	lis 9,.LC11@ha
	lfd 0,.LC11@l(9)
	lis 9,fog_density@ha
	fdiv 0,0,1
	frsp 0,0
	stfs 0,fog_density@l(9)
.LBE300:
.LBE299:
	.loc 1 744 0
	b .L210
.LVL193:
.L232:
.LBB301:
.LBB298:
	.loc 1 721 0
	li 0,4
	lis 9,fog_mode@ha
	stb 0,fog_mode@l(9)
	b .L210
.LVL194:
.L223:
	.loc 1 715 0
	fsubs 0,1,0
	addi 9,1,8
	fctiwz 0,0
	stfiwx 0,0,9
	lwz 9,8(1)
	addis 9,9,0x8000
	b .L224
.LVL195:
.L222:
	.loc 1 718 0
	li 0,2
	lis 9,fog_mode@ha
	stb 0,fog_mode@l(9)
	b .L210
.L221:
	.loc 1 724 0
	li 0,5
	lis 9,fog_mode@ha
	stb 0,fog_mode@l(9)
	b .L210
.LBE298:
.LBE301:
	.cfi_endproc
.LFE110:
	.size	glFogf, .-glFogf
	.align 2
	.globl glFogi
	.type	glFogi, @function
glFogi:
.LFB109:
	.loc 1 704 0
	.cfi_startproc
.LVL196:
	stwu 1,-16(1)
.LCFI55:
	.cfi_def_cfa_offset 16
	.loc 1 705 0
	xoris 4,4,0x8000
.LVL197:
	lis 0,0x4330
	lis 9,.LC3@ha
	stw 4,12(1)
	stw 0,8(1)
	lfs 0,.LC3@l(9)
	lfd 1,8(1)
	.loc 1 706 0
	addi 1,1,16
.LCFI56:
	.cfi_def_cfa_offset 0
	.loc 1 705 0
	fsub 1,1,0
	frsp 1,1
	b glFogf
.LVL198:
.LVL199:
	.cfi_endproc
.LFE109:
	.size	glFogi, .-glFogi
	.align 2
	.globl glFogfv
	.type	glFogfv, @function
glFogfv:
.LFB111:
	.loc 1 752 0
	.cfi_startproc
.LVL200:
	.loc 1 753 0
	lis 9,cur_state@ha
	.loc 1 752 0
	stwu 1,-24(1)
.LCFI57:
	.cfi_def_cfa_offset 24
	.loc 1 753 0
	lwz 0,cur_state@l(9)
	andi. 11,0,1
	bne- 0,.L240
	.loc 1 755 0
	cmpwi 7,3,2918
	beq- 7,.L241
	.loc 1 764 0
	lfs 1,0(4)
	.loc 1 767 0
	addi 1,1,24
	.cfi_remember_state
.LCFI58:
	.cfi_def_cfa_offset 0
	.loc 1 764 0
	b glFogf
.LVL201:
.L241:
.LCFI59:
	.cfi_restore_state
	.loc 1 758 0
	lis 9,.LC7@ha
	lfs 11,0(4)
	lfs 0,.LC7@l(9)
	.loc 1 759 0
	addi 11,1,12
	lfs 12,4(4)
	.loc 1 758 0
	addi 9,1,8
	.loc 1 760 0
	lfs 13,8(4)
	.loc 1 758 0
	fmuls 11,11,0
	.loc 1 761 0
	lfs 10,12(4)
	.loc 1 759 0
	fmuls 12,12,0
	.loc 1 760 0
	fmuls 13,13,0
	.loc 1 761 0
	fmuls 0,10,0
	.loc 1 758 0
	fctiwz 11,11
	.loc 1 759 0
	fctiwz 12,12
	.loc 1 760 0
	fctiwz 13,13
	.loc 1 761 0
	fctiwz 0,0
	.loc 1 758 0
	stfiwx 11,0,9
	.loc 1 759 0
	stfiwx 12,0,11
	.loc 1 760 0
	addi 9,1,16
	.loc 1 761 0
	addi 11,1,20
	.loc 1 760 0
	stfiwx 13,0,9
	.loc 1 761 0
	stfiwx 0,0,11
	.loc 1 758 0
	lis 11,fog_color@ha
	la 9,fog_color@l(11)
	.loc 1 759 0
	lwz 8,12(1)
	.loc 1 760 0
	lwz 10,16(1)
	.loc 1 761 0
	lwz 0,20(1)
	.loc 1 758 0
	lwz 7,8(1)
	.loc 1 759 0
	stb 8,1(9)
	.loc 1 760 0
	stb 10,2(9)
	.loc 1 761 0
	stb 0,3(9)
	.loc 1 758 0
	stb 7,fog_color@l(11)
	.loc 1 767 0
	addi 1,1,24
	.cfi_remember_state
.LCFI60:
	.cfi_def_cfa_offset 0
	blr
.L240:
.LCFI61:
	.cfi_restore_state
.LVL202:
.LBB302:
.LBB303:
	.loc 1 1273 0
	li 0,1282
	lis 9,glErrCode@ha
	stw 0,glErrCode@l(9)
	.loc 1 1274 0
	lis 9,.LC0@ha
	la 0,.LC0@l(9)
	lis 9,glErrFile@ha
	stw 0,glErrFile@l(9)
	.loc 1 1275 0
	li 0,753
	lis 9,glErrLine@ha
.LBE303:
.LBE302:
	.loc 1 767 0
.LBB305:
.LBB304:
	.loc 1 1275 0
	stw 0,glErrLine@l(9)
.LBE304:
.LBE305:
	.loc 1 767 0
	addi 1,1,24
.LCFI62:
	.cfi_def_cfa_offset 0
	blr
	.cfi_endproc
.LFE111:
	.size	glFogfv, .-glFogfv
	.align 2
	.globl glDepthMask
	.type	glDepthMask, @function
glDepthMask:
.LFB112:
	.loc 1 770 0
	.cfi_startproc
.LVL203:
	.loc 1 771 0
	lis 9,cur_state@ha
	lwz 0,cur_state@l(9)
	andi. 9,0,1
	bne- 0,.L249
	.loc 1 773 0
	cmpwi 7,3,0
	beq- 7,.L246
	cmpwi 7,3,1
	beq- 7,.L246
.LVL204:
.LBB306:
.LBB307:
	.loc 1 1273 0
	li 0,1280
	lis 9,glErrCode@ha
	stw 0,glErrCode@l(9)
	.loc 1 1274 0
	lis 9,.LC0@ha
	la 0,.LC0@l(9)
	lis 9,glErrFile@ha
	stw 0,glErrFile@l(9)
	.loc 1 1275 0
	li 0,778
	lis 9,glErrLine@ha
	stw 0,glErrLine@l(9)
	blr
.LVL205:
.L246:
.LBE307:
.LBE306:
	.loc 1 776 0
	lis 9,depthupdate@ha
	stb 3,depthupdate@l(9)
	blr
.L249:
.LVL206:
.LBB308:
.LBB309:
	.loc 1 1273 0
	li 0,1282
	lis 9,glErrCode@ha
	stw 0,glErrCode@l(9)
	.loc 1 1274 0
	lis 9,.LC0@ha
	la 0,.LC0@l(9)
	lis 9,glErrFile@ha
	stw 0,glErrFile@l(9)
	.loc 1 1275 0
	li 0,771
	lis 9,glErrLine@ha
	stw 0,glErrLine@l(9)
	blr
.LBE309:
.LBE308:
	.cfi_endproc
.LFE112:
	.size	glDepthMask, .-glDepthMask
	.align 2
	.globl glEnable
	.type	glEnable, @function
glEnable:
.LFB113:
	.loc 1 785 0
	.cfi_startproc
.LVL207:
	mflr 0
	stwu 1,-8(1)
.LCFI63:
	.cfi_def_cfa_offset 8
	.cfi_register 65, 0
	.loc 1 786 0
	lis 9,cur_state@ha
	.loc 1 785 0
	mr 4,3
	stw 0,12(1)
	.loc 1 786 0
	lwz 0,cur_state@l(9)
	.cfi_offset 65, 4
	andi. 9,0,1
	bne- 0,.L269
	.loc 1 788 0
	cmpwi 7,3,3008
	beq- 7,.L259
	cmplwi 7,3,3008
	bgt- 7,.L264
	cmpwi 7,3,2903
	beq- 7,.L256
	cmplwi 7,3,2903
	bgt- 7,.L265
	cmpwi 7,3,2884
	beq- 7,.L254
	cmpwi 7,3,2896
	beq- 7,.L270
.L253:
	.loc 1 818 0
	lis 3,.LC12@ha
.LVL208:
	la 3,.LC12@l(3)
	crxor 6,6,6
	bl printf
.LVL209:
.LBB310:
.LBB311:
	.loc 1 1273 0
	li 0,1280
	lis 9,glErrCode@ha
	stw 0,glErrCode@l(9)
	.loc 1 1274 0
	lis 9,.LC0@ha
	la 0,.LC0@l(9)
	lis 9,glErrFile@ha
	stw 0,glErrFile@l(9)
	.loc 1 1275 0
	li 0,819
	lis 9,glErrLine@ha
	stw 0,glErrLine@l(9)
	b .L250
.LVL210:
.L269:
.LBE311:
.LBE310:
.LBB312:
.LBB313:
	.loc 1 1273 0
	li 0,1282
	lis 9,glErrCode@ha
	stw 0,glErrCode@l(9)
	.loc 1 1274 0
	lis 9,.LC0@ha
	la 0,.LC0@l(9)
	lis 9,glErrFile@ha
	stw 0,glErrFile@l(9)
	.loc 1 1275 0
	li 0,786
	lis 9,glErrLine@ha
	stw 0,glErrLine@l(9)
.LVL211:
.L250:
.LBE313:
.LBE312:
	.loc 1 822 0
	lwz 0,12(1)
	addi 1,1,8
	.cfi_remember_state
.LCFI64:
	.cfi_def_cfa_offset 0
	mtlr 0
	blr
.LVL212:
.L264:
.LCFI65:
	.cfi_restore_state
	.loc 1 788 0
	cmpwi 7,3,3553
	beq- 7,.L262
	cmplwi 7,3,3553
	bgt- 7,.L266
	cmpwi 7,3,3042
	beq- 7,.L260
	cmpwi 7,3,3089
	bne+ 7,.L253
	.loc 1 816 0
	li 0,1
	lis 9,scissor_test@ha
	stb 0,scissor_test@l(9)
	b .L250
.L259:
	.loc 1 790 0
	li 0,1
	lis 9,_alphatest_enabled@ha
	stb 0,_alphatest_enabled@l(9)
	b .L250
.L256:
	.loc 1 815 0
	li 0,1
	lis 9,copy_mat_enabled@ha
	stb 0,copy_mat_enabled@l(9)
	b .L250
.L262:
	.loc 1 794 0
	li 3,1
.LVL213:
	bl _glSetEnableTex
.LVL214:
	b .L250
.LVL215:
.L270:
	.loc 1 793 0
	li 0,1
	lis 9,lighting@ha
	stb 0,lighting@l(9)
	b .L250
.L266:
	.loc 1 788 0
	addi 0,3,-16384
	cmplwi 7,0,7
	bgt- 7,.L253
.LBB314:
	.loc 1 804 0
	bl glLightN
.LVL216:
	.loc 1 805 0
	cmpwi 0,3,0
	blt- 0,.L271
	.loc 1 810 0
	mulli 3,3,164
.LVL217:
	lis 9,lights@ha
	li 0,1
	la 9,lights@l(9)
	stbx 0,9,3
	.loc 1 811 0
	b .L250
.LVL218:
.L265:
.LBE314:
	.loc 1 788 0
	cmpwi 7,3,2912
	beq- 7,.L257
	cmpwi 7,3,2929
	bne+ 7,.L253
	.loc 1 792 0
	li 0,1
	lis 9,depthtestenabled@ha
	stb 0,depthtestenabled@l(9)
	b .L250
.L257:
	.loc 1 814 0
	li 0,1
	lis 9,fog_enable@ha
	stb 0,fog_enable@l(9)
	b .L250
.L260:
	.loc 1 791 0
	li 0,1
	lis 9,blend_type@ha
	stb 0,blend_type@l(9)
	b .L250
.L254:
	.loc 1 813 0
	li 0,1
	lis 9,gxcullfaceanabled@ha
	stb 0,gxcullfaceanabled@l(9)
	b .L250
.LVL219:
.L271:
.LBB317:
.LBB315:
.LBB316:
	.loc 1 1273 0
	li 0,1280
	lis 9,glErrCode@ha
	stw 0,glErrCode@l(9)
	.loc 1 1274 0
	lis 9,.LC0@ha
	la 0,.LC0@l(9)
	lis 9,glErrFile@ha
	stw 0,glErrFile@l(9)
	.loc 1 1275 0
	li 0,807
	lis 9,glErrLine@ha
	stw 0,glErrLine@l(9)
	b .L250
.LBE316:
.LBE315:
.LBE317:
	.cfi_endproc
.LFE113:
	.size	glEnable, .-glEnable
	.align 2
	.globl glIsEnabled
	.type	glIsEnabled, @function
glIsEnabled:
.LFB114:
	.loc 1 825 0
	.cfi_startproc
.LVL220:
	mflr 0
	stwu 1,-8(1)
.LCFI66:
	.cfi_def_cfa_offset 8
	.cfi_register 65, 0
	.loc 1 827 0
	lis 9,cur_state@ha
	.loc 1 825 0
	stw 0,12(1)
	.loc 1 827 0
	lwz 0,cur_state@l(9)
	.cfi_offset 65, 4
	andi. 11,0,1
	bne- 0,.L297
	.loc 1 829 0
	cmpwi 7,3,3089
	beq- 7,.L283
	cmplwi 7,3,3089
	bgt- 7,.L286
	cmpwi 7,3,2912
	beq- 7,.L279
	cmplwi 7,3,2912
	bgt- 7,.L287
	cmplwi 7,3,2882
	ble- 7,.L298
	cmpwi 7,3,2896
	beq- 7,.L277
	cmpwi 7,3,2903
	beq- 7,.L278
	cmpwi 7,3,2884
	bne+ 7,.L275
	.loc 1 833 0
	lis 9,gxcullfaceanabled@ha
	lbz 3,gxcullfaceanabled@l(9)
.LVL221:
	b .L274
.LVL222:
.L297:
.LBB318:
.LBB319:
	.loc 1 1273 0
	li 0,1282
	lis 9,glErrCode@ha
	stw 0,glErrCode@l(9)
	.loc 1 1274 0
	lis 9,.LC0@ha
	la 0,.LC0@l(9)
	lis 9,glErrFile@ha
	stw 0,glErrFile@l(9)
	.loc 1 1275 0
	li 0,827
	lis 9,glErrLine@ha
.LBE319:
.LBE318:
	.loc 1 827 0
	li 3,0
.LVL223:
.LBB321:
.LBB320:
	.loc 1 1275 0
	stw 0,glErrLine@l(9)
.LVL224:
.L274:
.LBE320:
.LBE321:
	.loc 1 903 0
	lwz 0,12(1)
	addi 1,1,8
	.cfi_remember_state
.LCFI67:
	.cfi_def_cfa_offset 0
	mtlr 0
	blr
.LVL225:
.L286:
.LCFI68:
	.cfi_restore_state
	.loc 1 829 0
	cmplwi 7,3,10754
	ble- 7,.L299
	cmplwi 7,3,16391
	bgt- 7,.L293
	cmplwi 7,3,16384
	blt- 7,.L300
.LBB322:
	.loc 1 856 0
	bl glLightN
.LVL226:
	.loc 1 857 0
	cmpwi 0,3,0
	blt- 0,.L301
	.loc 1 862 0
	mulli 3,3,164
.LVL227:
	lis 9,lights@ha
	la 9,lights@l(9)
	lbzx 3,9,3
	b .L274
.LVL228:
.L283:
.LBE322:
	.loc 1 866 0
	lis 9,scissor_test@ha
	lbz 3,scissor_test@l(9)
.LVL229:
	b .L274
.LVL230:
.L299:
	.loc 1 829 0
	cmplwi 7,3,10753
	bge- 7,.L295
	cmpwi 7,3,3472
	beq- 7,.L295
	cmplwi 7,3,3472
	bgt- 7,.L292
	cmplwi 7,3,3168
	blt- 7,.L275
	cmplwi 7,3,3171
	ble- 7,.L295
	cmpwi 7,3,3456
	bne+ 7,.L275
.L295:
	.loc 1 897 0
	li 3,0
.LVL231:
	b .L274
.LVL232:
.L279:
	.loc 1 835 0
	lis 9,fog_enable@ha
	lbz 3,fog_enable@l(9)
.LVL233:
	b .L274
.LVL234:
.L287:
	.loc 1 829 0
	cmpwi 7,3,3008
	beq- 7,.L295
	cmplwi 7,3,3008
	bgt- 7,.L289
	cmpwi 7,3,2960
	beq- 7,.L295
	cmpwi 7,3,2977
	beq- 7,.L295
	cmpwi 7,3,2929
	bne+ 7,.L275
	.loc 1 834 0
	lis 9,depthtestenabled@ha
	lbz 3,depthtestenabled@l(9)
.LVL235:
	xori 3,3,1
	cntlzw 3,3
	srwi 3,3,5
	b .L274
.LVL236:
.L293:
	.loc 1 829 0
	xoris 0,3,0xffff
	cmpwi 7,0,-32713
	beq 7,.L295
	cmplwi 7,3,32823
	blt- 7,.L275
	addis 9,3,0xffff
	addi 9,9,32652
	cmplwi 7,9,5
	ble- 7,.L302
.L275:
.LVL237:
.LBB327:
.LBB328:
	.loc 1 1273 0
	li 0,1280
	lis 9,glErrCode@ha
	stw 0,glErrCode@l(9)
	.loc 1 1274 0
	lis 9,.LC0@ha
	la 0,.LC0@l(9)
	lis 9,glErrFile@ha
	stw 0,glErrFile@l(9)
	.loc 1 1275 0
	li 0,900
	lis 9,glErrLine@ha
.LBE328:
.LBE327:
	.loc 1 901 0
	li 3,0
.LVL238:
.LBB330:
.LBB329:
	.loc 1 1275 0
	stw 0,glErrLine@l(9)
.LBE329:
.LBE330:
	.loc 1 901 0
	b .L274
.LVL239:
.L298:
	.loc 1 829 0
	cmplwi 7,3,2881
	bge- 7,.L295
	cmpwi 7,3,2848
	beq- 7,.L295
	cmpwi 7,3,2852
	beq- 7,.L295
	cmpwi 7,3,2832
	bne+ 7,.L275
	.loc 1 897 0
	li 3,0
.LVL240:
	b .L274
.LVL241:
.L289:
	.loc 1 829 0
	cmpwi 7,3,3042
	beq- 7,.L281
	cmplwi 7,3,3042
	bgt- 7,.L290
	cmpwi 7,3,3024
	bne+ 7,.L275
	.loc 1 897 0
	li 3,0
.LVL242:
	b .L274
.LVL243:
.L300:
	.loc 1 829 0
	addi 9,3,-12288
	cmplwi 7,9,5
	bgt- 7,.L275
	.loc 1 897 0
	li 3,0
.LVL244:
	b .L274
.LVL245:
.L301:
.LBB331:
.LBB323:
.LBB324:
	.loc 1 1273 0
	li 0,1280
	lis 9,glErrCode@ha
	stw 0,glErrCode@l(9)
	.loc 1 1274 0
	lis 9,.LC0@ha
	la 0,.LC0@l(9)
	lis 9,glErrFile@ha
	stw 0,glErrFile@l(9)
	.loc 1 1275 0
	li 0,859
	lis 9,glErrLine@ha
.LBE324:
.LBE323:
	.loc 1 860 0
	li 3,0
.LVL246:
.LBB326:
.LBB325:
	.loc 1 1275 0
	stw 0,glErrLine@l(9)
.LBE325:
.LBE326:
	.loc 1 860 0
	b .L274
.LVL247:
.L278:
.LBE331:
	.loc 1 832 0
	lis 9,copy_mat_enabled@ha
	lbz 3,copy_mat_enabled@l(9)
.LVL248:
	b .L274
.LVL249:
.L277:
	.loc 1 865 0
	lis 9,lighting@ha
	lbz 3,lighting@l(9)
.LVL250:
	b .L274
.LVL251:
.L302:
	.loc 1 842 0
	bl _glIsArrayEnabled
.LVL252:
	b .L274
.LVL253:
.L281:
	.loc 1 831 0
	lis 9,blend_type@ha
	lbz 3,blend_type@l(9)
.LVL254:
	xori 3,3,1
	cntlzw 3,3
	srwi 3,3,5
	b .L274
.LVL255:
.L292:
	.loc 1 829 0
	cmplwi 7,3,3508
	blt- 7,.L275
	cmplwi 7,3,3512
	ble- 7,.L295
	addi 9,3,-3552
	cmplwi 7,9,1
	bgt- 7,.L275
.L282:
	.loc 1 846 0
	lis 9,cur_tex@ha
	lwz 3,cur_tex@l(9)
.LVL256:
	bl _glGetEnableTex
	b .L274
.LVL257:
.L290:
	.loc 1 829 0
	cmpwi 7,3,3057
	beq- 7,.L282
	cmpwi 7,3,3058
	bne+ 7,.L275
	.loc 1 897 0
	li 3,0
.LVL258:
	b .L274
	.cfi_endproc
.LFE114:
	.size	glIsEnabled, .-glIsEnabled
	.align 2
	.globl glDisable
	.type	glDisable, @function
glDisable:
.LFB115:
	.loc 1 906 0
	.cfi_startproc
.LVL259:
	mflr 0
	stwu 1,-16(1)
.LCFI69:
	.cfi_def_cfa_offset 16
	.cfi_register 65, 0
	.loc 1 907 0
	lis 9,cur_state@ha
	.loc 1 906 0
	mr 4,3
	stw 31,12(1)
	stw 0,20(1)
	.loc 1 907 0
	lwz 0,cur_state@l(9)
	.cfi_offset 65, 4
	.cfi_offset 31, -4
	andi. 31,0,1
	bne- 0,.L324
	.loc 1 909 0
	cmpwi 7,3,3058
	beq- 7,.L303
	cmplwi 7,3,3058
	bgt- 7,.L317
	cmpwi 7,3,2903
	beq- 7,.L309
	cmplwi 7,3,2903
	bgt- 7,.L318
	cmplwi 7,3,2882
	bgt- 7,.L319
	cmplwi 7,3,2881
	bge- 7,.L303
	cmpwi 7,3,2848
	beq- 7,.L303
	cmpwi 7,3,2852
	beq- 7,.L303
	cmpwi 7,3,2832
	bne+ 7,.L306
.LVL260:
.L303:
	.loc 1 971 0
	lwz 0,20(1)
	lwz 31,12(1)
	mtlr 0
	addi 1,1,16
	.cfi_remember_state
.LCFI70:
	.cfi_def_cfa_offset 0
	.cfi_restore 31
	blr
.LVL261:
.L324:
.LCFI71:
	.cfi_restore_state
.LBB332:
.LBB333:
	.loc 1 1273 0
	li 0,1282
	lis 9,glErrCode@ha
	stw 0,glErrCode@l(9)
	.loc 1 1274 0
	lis 9,.LC0@ha
	la 0,.LC0@l(9)
	lis 9,glErrFile@ha
	stw 0,glErrFile@l(9)
	.loc 1 1275 0
	li 0,907
	lis 9,glErrLine@ha
.LBE333:
.LBE332:
	.loc 1 971 0
	lwz 31,12(1)
.LBB335:
.LBB334:
	.loc 1 1275 0
	stw 0,glErrLine@l(9)
.LBE334:
.LBE335:
	.loc 1 971 0
	lwz 0,20(1)
	addi 1,1,16
	.cfi_remember_state
	.cfi_restore 31
.LCFI72:
	.cfi_def_cfa_offset 0
	mtlr 0
	blr
.LVL262:
.L317:
.LCFI73:
	.cfi_restore_state
	.loc 1 909 0
	cmpwi 7,3,3553
	beq- 7,.L315
	cmplwi 7,3,3553
	bgt- 7,.L321
	cmpwi 7,3,3456
	beq- 7,.L303
	cmplwi 7,3,3456
	ble- 7,.L325
	cmpwi 7,3,3472
	beq- 7,.L303
	cmplwi 7,3,3472
	blt- 7,.L306
	addi 0,3,-3508
	cmplwi 7,0,4
	bgt- 7,.L306
	b .L303
.L315:
	.loc 1 915 0
	li 3,0
.LVL263:
	bl _glSetEnableTex
.LVL264:
	b .L303
.LVL265:
.L309:
	.loc 1 933 0
	lis 9,copy_mat_enabled@ha
	stb 31,copy_mat_enabled@l(9)
	b .L303
.L318:
	.loc 1 909 0
	cmpwi 7,3,2977
	beq- 7,.L303
	cmplwi 7,3,2977
	ble- 7,.L326
	cmpwi 7,3,3024
	beq- 7,.L303
	cmpwi 7,3,3042
	beq- 7,.L313
	cmpwi 7,3,3008
	bne+ 7,.L306
	.loc 1 911 0
	li 0,0
	lis 9,_alphatest_enabled@ha
	stb 0,_alphatest_enabled@l(9)
	b .L303
.L321:
	.loc 1 909 0
	cmplwi 7,3,12293
	ble- 7,.L327
	cmplwi 7,3,16384
	blt- 7,.L306
	cmplwi 7,3,16391
	ble- 7,.L316
	xoris 0,3,0xffff
	cmpwi 7,0,-32713
	bne 7,.L306
	b .L303
.L327:
	cmplwi 7,3,12288
	bge- 7,.L303
	addi 0,3,-10753
	cmplwi 7,0,1
	ble- 7,.L303
.L306:
	.loc 1 967 0
	lis 3,.LC13@ha
.LVL266:
	la 3,.LC13@l(3)
	crxor 6,6,6
	bl printf
.LVL267:
.LBB336:
.LBB337:
	.loc 1 1273 0
	li 0,1280
	lis 9,glErrCode@ha
	stw 0,glErrCode@l(9)
	.loc 1 1274 0
	lis 9,.LC0@ha
	la 0,.LC0@l(9)
	lis 9,glErrFile@ha
	stw 0,glErrFile@l(9)
	.loc 1 1275 0
	li 0,968
	lis 9,glErrLine@ha
	stw 0,glErrLine@l(9)
	b .L303
.LVL268:
.L319:
.LBE337:
.LBE336:
	.loc 1 909 0
	cmpwi 7,3,2884
	beq- 7,.L307
	cmpwi 7,3,2896
	bne+ 7,.L306
	.loc 1 914 0
	lis 9,lighting@ha
	stb 31,lighting@l(9)
	b .L303
.L326:
	.loc 1 909 0
	cmpwi 7,3,2929
	beq- 7,.L311
	cmpwi 7,3,2960
	beq- 7,.L303
	cmpwi 7,3,2912
	bne+ 7,.L306
	.loc 1 932 0
	li 0,0
	lis 9,fog_enable@ha
	stb 0,fog_enable@l(9)
	b .L303
.L325:
	.loc 1 909 0
	cmpwi 7,3,3089
	beq- 7,.L314
	cmplwi 7,3,3089
	blt- 7,.L306
	addi 0,3,-3168
	cmplwi 7,0,3
	bgt- 7,.L306
	b .L303
.L316:
.LBB338:
	.loc 1 925 0
	bl glLightN
.LVL269:
	.loc 1 926 0
	cmpwi 0,3,0
	blt- 0,.L303
	.loc 1 928 0
	mulli 3,3,164
.LVL270:
	lis 9,lights@ha
	la 9,lights@l(9)
	stbx 31,9,3
	.loc 1 929 0
	b .L303
.LVL271:
.L307:
.LBE338:
	.loc 1 931 0
	lis 9,gxcullfaceanabled@ha
	stb 31,gxcullfaceanabled@l(9)
	b .L303
.L314:
	.loc 1 934 0
	lis 9,scissor_test@ha
	stb 31,scissor_test@l(9)
	b .L303
.L311:
	.loc 1 913 0
	lis 9,depthtestenabled@ha
	stb 31,depthtestenabled@l(9)
	b .L303
.L313:
	.loc 1 912 0
	lis 9,blend_type@ha
	stb 31,blend_type@l(9)
	b .L303
	.cfi_endproc
.LFE115:
	.size	glDisable, .-glDisable
	.align 2
	.globl glDepthFunc
	.type	glDepthFunc, @function
glDepthFunc:
.LFB116:
	.loc 1 975 0
	.cfi_startproc
.LVL272:
	.loc 1 976 0
	lis 9,cur_state@ha
	lwz 0,cur_state@l(9)
	andi. 9,0,1
	bne- 0,.L341
	.loc 1 978 0
	addi 3,3,-512
.LVL273:
	cmplwi 7,3,7
	ble- 7,.L342
.LVL274:
.LBB339:
.LBB340:
	.loc 1 1273 0
	li 0,1280
	lis 9,glErrCode@ha
	stw 0,glErrCode@l(9)
	.loc 1 1274 0
	lis 9,.LC0@ha
	la 0,.LC0@l(9)
	lis 9,glErrFile@ha
	stw 0,glErrFile@l(9)
	.loc 1 1275 0
	li 0,989
	lis 9,glErrLine@ha
	stw 0,glErrLine@l(9)
	blr
.LVL275:
.L342:
.LBE340:
.LBE339:
	.loc 1 978 0
	lis 9,.L340@ha
	slwi 3,3,2
.LVL276:
	la 9,.L340@l(9)
	lwzx 0,9,3
	add 9,0,9
	mtctr 9
	bctr
	.section	.rodata
	.align 2
	.align 2
.L340:
	.long .L332-.L340
	.long .L333-.L340
	.long .L334-.L340
	.long .L335-.L340
	.long .L336-.L340
	.long .L337-.L340
	.long .L338-.L340
	.long .L339-.L340
	.section	".text"
.LVL277:
.L341:
.LBB341:
.LBB342:
	.loc 1 1273 0
	li 0,1282
	lis 9,glErrCode@ha
	stw 0,glErrCode@l(9)
	.loc 1 1274 0
	lis 9,.LC0@ha
	la 0,.LC0@l(9)
	lis 9,glErrFile@ha
	stw 0,glErrFile@l(9)
	.loc 1 1275 0
	li 0,976
	lis 9,glErrLine@ha
	stw 0,glErrLine@l(9)
	blr
.LVL278:
.L338:
.LBE342:
.LBE341:
	.loc 1 986 0
	li 0,6
	lis 9,depthfunction@ha
	stw 0,depthfunction@l(9)
	blr
.L337:
	.loc 1 985 0
	li 0,5
	lis 9,depthfunction@ha
	stw 0,depthfunction@l(9)
	blr
.L336:
	.loc 1 984 0
	li 0,4
	lis 9,depthfunction@ha
	stw 0,depthfunction@l(9)
	blr
.L335:
	.loc 1 983 0
	li 0,3
	lis 9,depthfunction@ha
	stw 0,depthfunction@l(9)
	blr
.L334:
	.loc 1 982 0
	li 0,2
	lis 9,depthfunction@ha
	stw 0,depthfunction@l(9)
	blr
.L333:
	.loc 1 981 0
	li 0,1
	lis 9,depthfunction@ha
	stw 0,depthfunction@l(9)
	blr
.L332:
	.loc 1 980 0
	li 0,0
	lis 9,depthfunction@ha
	stw 0,depthfunction@l(9)
	blr
.L339:
	.loc 1 987 0
	li 0,7
	lis 9,depthfunction@ha
	stw 0,depthfunction@l(9)
	blr
	.cfi_endproc
.LFE116:
	.size	glDepthFunc, .-glDepthFunc
	.align 2
	.globl glAlphaFunc
	.type	glAlphaFunc, @function
glAlphaFunc:
.LFB117:
	.loc 1 996 0
	.cfi_startproc
.LVL279:
	.loc 1 997 0
	lis 9,cur_state@ha
	lwz 0,cur_state@l(9)
	andi. 9,0,1
	bne- 0,.L350
	.loc 1 998 0
	addi 0,3,-512
	cmplwi 7,0,7
	ble- 7,.L351
.LVL280:
.LBB343:
.LBB344:
	.loc 1 1273 0
	li 0,1280
	lis 9,glErrCode@ha
	stw 0,glErrCode@l(9)
	.loc 1 1274 0
	lis 9,.LC0@ha
	la 0,.LC0@l(9)
	lis 9,glErrFile@ha
	stw 0,glErrFile@l(9)
	.loc 1 1275 0
	li 0,1014
	lis 9,glErrLine@ha
	stw 0,glErrLine@l(9)
	blr
.LVL281:
.L351:
.LBE344:
.LBE343:
	.loc 1 1007 0
	lis 9,_alphatest_func@ha
	lis 11,_alphatest_ref@ha
	lwz 0,_alphatest_func@l(9)
	cmpw 7,0,3
	beq- 7,.L352
.L348:
	.loc 1 1008 0
	stw 3,_alphatest_func@l(9)
	.loc 1 1010 0
	li 0,1
	lis 9,_alphatest_dirty@ha
	.loc 1 1009 0
	stfs 1,_alphatest_ref@l(11)
	.loc 1 1010 0
	stb 0,_alphatest_dirty@l(9)
	blr
.L350:
.LVL282:
.LBB345:
.LBB346:
	.loc 1 1273 0
	li 0,1282
	lis 9,glErrCode@ha
	stw 0,glErrCode@l(9)
	.loc 1 1274 0
	lis 9,.LC0@ha
	la 0,.LC0@l(9)
	lis 9,glErrFile@ha
	stw 0,glErrFile@l(9)
	.loc 1 1275 0
	li 0,997
	lis 9,glErrLine@ha
	stw 0,glErrLine@l(9)
	blr
.LVL283:
.L352:
.LBE346:
.LBE345:
	.loc 1 1007 0 discriminator 1
	lfs 0,_alphatest_ref@l(11)
	fcmpu 7,0,1
	beqlr- 7
	b .L348
	.cfi_endproc
.LFE117:
	.size	glAlphaFunc, .-glAlphaFunc
	.align 2
	.globl gxgl_glGetDoublev
	.type	gxgl_glGetDoublev, @function
gxgl_glGetDoublev:
.LFB118:
	.loc 1 1024 0
	.cfi_startproc
.LVL284:
	.loc 1 1025 0
	cmplwi 7,3,2982
	.loc 1 1024 0
	mflr 0
	stwu 1,-8(1)
.LCFI74:
	.cfi_def_cfa_offset 8
	.cfi_register 65, 0
	stw 0,12(1)
	.loc 1 1025 0
	blt- 7,.L354
	.cfi_offset 65, 4
	cmplwi 7,3,2983
	bgt- 7,.L357
.L355:
	.loc 1 1029 0
	bl _glGetMatrixd
.LVL285:
	.loc 1 1035 0
	lwz 0,12(1)
	addi 1,1,8
	.cfi_remember_state
.LCFI75:
	.cfi_def_cfa_offset 0
	mtlr 0
	blr
.LVL286:
.L357:
.LCFI76:
	.cfi_restore_state
	.loc 1 1025 0
	xoris 0,3,0xffff
	cmpwi 7,0,-31489
	beq 7,.L355
.L354:
.LVL287:
.LBB347:
.LBB348:
	.loc 1 1273 0
	li 0,1280
	lis 9,glErrCode@ha
	stw 0,glErrCode@l(9)
	.loc 1 1274 0
	lis 9,.LC0@ha
	la 0,.LC0@l(9)
	lis 9,glErrFile@ha
	stw 0,glErrFile@l(9)
	.loc 1 1275 0
	li 0,1032
	lis 9,glErrLine@ha
	stw 0,glErrLine@l(9)
.LBE348:
.LBE347:
	.loc 1 1035 0
	lwz 0,12(1)
	addi 1,1,8
.LCFI77:
	.cfi_def_cfa_offset 0
	mtlr 0
	blr
	.cfi_endproc
.LFE118:
	.size	gxgl_glGetDoublev, .-gxgl_glGetDoublev
	.align 2
	.globl glMultiTexCoord2fARB
	.type	glMultiTexCoord2fARB, @function
glMultiTexCoord2fARB:
.LFB120:
	.loc 1 1112 0
	.cfi_startproc
.LVL288:
	.loc 1 1113 0
	addis 3,3,0xffff
.LVL289:
	addi 3,3,31552
.LVL290:
	cmplwi 7,3,8
	bgt- 7,.L361
.LVL291:
	.loc 1 1122 0
	lis 9,_temptexcoordelement@ha
	slwi 3,3,3
.LVL292:
	la 9,_temptexcoordelement@l(9)
	add 11,9,3
	stfsx 1,9,3
	stfs 2,4(11)
	blr
.LVL293:
.L361:
.LBB349:
.LBB350:
	.loc 1 1273 0
	li 0,1280
	lis 9,glErrCode@ha
	stw 0,glErrCode@l(9)
	.loc 1 1274 0
	lis 9,.LC0@ha
	la 0,.LC0@l(9)
	lis 9,glErrFile@ha
	stw 0,glErrFile@l(9)
	.loc 1 1275 0
	li 0,1115
	lis 9,glErrLine@ha
	stw 0,glErrLine@l(9)
	blr
.LBE350:
.LBE349:
	.cfi_endproc
.LFE120:
	.size	glMultiTexCoord2fARB, .-glMultiTexCoord2fARB
	.align 2
	.globl glClientActiveTextureARB
	.type	glClientActiveTextureARB, @function
glClientActiveTextureARB:
.LFB121:
	.loc 1 1126 0
	.cfi_startproc
.LVL294:
	.loc 1 1127 0
	addis 3,3,0xffff
.LVL295:
	addi 3,3,31552
.LVL296:
	cmplwi 7,3,8
	bgt- 7,.L365
	.loc 1 1133 0
	lis 9,cur_tex_client@ha
	stw 3,cur_tex_client@l(9)
	blr
.L365:
.LVL297:
.LBB351:
.LBB352:
	.loc 1 1273 0
	li 0,1280
	lis 9,glErrCode@ha
	stw 0,glErrCode@l(9)
	.loc 1 1274 0
	lis 9,.LC0@ha
	la 0,.LC0@l(9)
	lis 9,glErrFile@ha
	stw 0,glErrFile@l(9)
	.loc 1 1275 0
	li 0,1129
	lis 9,glErrLine@ha
	stw 0,glErrLine@l(9)
	blr
.LBE352:
.LBE351:
	.cfi_endproc
.LFE121:
	.size	glClientActiveTextureARB, .-glClientActiveTextureARB
	.align 2
	.globl glActiveTextureARB
	.type	glActiveTextureARB, @function
glActiveTextureARB:
.LFB122:
	.loc 1 1137 0
	.cfi_startproc
.LVL298:
	.loc 1 1138 0
	addis 3,3,0xffff
.LVL299:
	.loc 1 1137 0
	mflr 0
	.loc 1 1138 0
	addi 3,3,31552
.LVL300:
	.loc 1 1137 0
	stwu 1,-8(1)
.LCFI78:
	.cfi_def_cfa_offset 8
	.cfi_register 65, 0
	.loc 1 1138 0
	cmplwi 7,3,8
	.loc 1 1137 0
	stw 0,12(1)
	.loc 1 1138 0
	bgt- 7,.L369
	.cfi_offset 65, 4
	.loc 1 1146 0
	lis 9,cur_mode@ha
	lwz 0,cur_mode@l(9)
	.loc 1 1144 0
	lis 9,cur_tex@ha
	stw 3,cur_tex@l(9)
	.loc 1 1146 0
	cmpwi 7,0,5890
	beq- 7,.L370
	.loc 1 1150 0
	lwz 0,12(1)
	addi 1,1,8
	.cfi_remember_state
.LCFI79:
	.cfi_def_cfa_offset 0
	mtlr 0
	blr
.L369:
.LCFI80:
	.cfi_restore_state
.LVL301:
.LBB353:
.LBB354:
	.loc 1 1273 0
	li 0,1280
	lis 9,glErrCode@ha
	stw 0,glErrCode@l(9)
	.loc 1 1274 0
	lis 9,.LC0@ha
	la 0,.LC0@l(9)
	lis 9,glErrFile@ha
	stw 0,glErrFile@l(9)
	.loc 1 1275 0
	li 0,1140
	lis 9,glErrLine@ha
	stw 0,glErrLine@l(9)
.LBE354:
.LBE353:
	.loc 1 1150 0
	lwz 0,12(1)
	addi 1,1,8
	.cfi_remember_state
.LCFI81:
	.cfi_def_cfa_offset 0
	mtlr 0
	blr
.LVL302:
.L370:
.LCFI82:
	.cfi_restore_state
	.loc 1 1148 0
	li 3,5890
.LVL303:
	bl glMatrixMode
.LVL304:
	.loc 1 1150 0
	lwz 0,12(1)
	addi 1,1,8
.LCFI83:
	.cfi_def_cfa_offset 0
	mtlr 0
	blr
	.cfi_endproc
.LFE122:
	.size	glActiveTextureARB, .-glActiveTextureARB
	.align 2
	.globl glGetIntegerv
	.type	glGetIntegerv, @function
glGetIntegerv:
.LFB123:
	.loc 1 1152 0
	.cfi_startproc
.LVL305:
	mflr 0
	stwu 1,-32(1)
.LCFI84:
	.cfi_def_cfa_offset 32
	.cfi_register 65, 0
	.loc 1 1153 0
	lis 9,cur_state@ha
	.loc 1 1152 0
	stw 31,28(1)
	mr 31,4
	.cfi_offset 31, -4
	stw 0,36(1)
	.loc 1 1153 0
	lwz 0,cur_state@l(9)
	.cfi_offset 65, 4
	andi. 9,0,1
	bne- 0,.L397
	.loc 1 1155 0
	cmpwi 7,4,0
	beq- 7,.L371
	.loc 1 1157 0
	cmplwi 7,3,3359
	ble- 7,.L398
	cmpwi 7,3,3385
	beq- 7,.L387
	cmplwi 7,3,3385
	bgt- 7,.L394
	cmpwi 7,3,3381
	beq- 7,.L384
	cmplwi 7,3,3381
	ble- 7,.L399
	cmpwi 7,3,3382
	beq- 7,.L385
	cmpwi 7,3,3384
	bne+ 7,.L374
	.loc 1 1189 0
	lis 3,projection_stack@ha
.LVL306:
	la 3,projection_stack@l(3)
	bl MaxStackSize
.LVL307:
	stw 3,0(31)
.LVL308:
.L371:
	.loc 1 1250 0
	lwz 0,36(1)
	lwz 31,28(1)
.LVL309:
	mtlr 0
	addi 1,1,32
	.cfi_remember_state
.LCFI85:
	.cfi_def_cfa_offset 0
	.cfi_restore 31
	blr
.LVL310:
.L398:
.LCFI86:
	.cfi_restore_state
	.loc 1 1157 0
	cmplwi 7,3,3352
	bge- 7,.L381
	cmplwi 7,3,3317
	bgt- 7,.L392
	cmplwi 7,3,3312
	bge- 7,.L380
	cmpwi 7,3,2979
	beq- 7,.L377
	cmplwi 7,3,2979
	bgt- 7,.L393
	cmpwi 7,3,2976
	beq- 7,.L375
	cmpwi 7,3,2978
	bne+ 7,.L374
	.loc 1 1240 0
	lis 9,viewPort@ha
	lwz 0,viewPort@l(9)
	la 9,viewPort@l(9)
	stw 0,0(4)
	.loc 1 1241 0
	lwz 0,4(9)
	stw 0,4(4)
	.loc 1 1242 0
	lwz 0,8(9)
	stw 0,8(4)
	.loc 1 1243 0
	lwz 0,12(9)
	stw 0,12(4)
	.loc 1 1244 0
	b .L371
.L397:
.LVL311:
.LBB355:
.LBB356:
	.loc 1 1273 0
	li 0,1282
	lis 9,glErrCode@ha
	stw 0,glErrCode@l(9)
	.loc 1 1274 0
	lis 9,.LC0@ha
	la 0,.LC0@l(9)
	lis 9,glErrFile@ha
	stw 0,glErrFile@l(9)
	.loc 1 1275 0
	li 0,1153
	lis 9,glErrLine@ha
.LBE356:
.LBE355:
	.loc 1 1250 0
	lwz 31,28(1)
.LBB358:
.LBB357:
	.loc 1 1275 0
	stw 0,glErrLine@l(9)
.LBE357:
.LBE358:
	.loc 1 1250 0
	lwz 0,36(1)
	addi 1,1,32
	.cfi_remember_state
	.cfi_restore 31
.LCFI87:
	.cfi_def_cfa_offset 0
	mtlr 0
	blr
.LVL312:
.L394:
.LCFI88:
	.cfi_restore_state
	.loc 1 1157 0
	cmplwi 7,3,32878
	ble- 7,.L400
	xoris 0,3,0xffff
	cmpwi 7,0,-32535
	beq 7,.L389
	xoris 0,3,0xffff
	cmpwi 7,0,-31518
	beq 7,.L390
	xoris 0,3,0xffff
	cmpwi 7,0,-32536
	beq 7,.L389
.L374:
.LVL313:
.LBB359:
.LBB360:
	.loc 1 1273 0
	li 0,1280
	lis 9,glErrCode@ha
	stw 0,glErrCode@l(9)
	.loc 1 1274 0
	lis 9,.LC0@ha
	la 0,.LC0@l(9)
	lis 9,glErrFile@ha
	stw 0,glErrFile@l(9)
	.loc 1 1275 0
	li 0,1246
	lis 9,glErrLine@ha
	stw 0,glErrLine@l(9)
.LBE360:
.LBE359:
	.loc 1 1247 0
	li 0,0
	stw 0,0(31)
	.loc 1 1248 0
	b .L371
.LVL314:
.L392:
	.loc 1 1157 0
	cmplwi 7,3,3328
	blt- 7,.L374
	cmplwi 7,3,3333
	ble- 7,.L380
	addi 0,3,-3344
	cmplwi 7,0,5
	bgt- 7,.L374
.L381:
.LBB361:
	.loc 1 1235 0
	addi 4,1,8
.LVL315:
	bl _glGetPixelTransferf
.LVL316:
	.loc 1 1236 0
	lfs 0,8(1)
	fctiwz 0,0
	stfiwx 0,0,31
.LBE361:
	.loc 1 1238 0
	b .L371
.LVL317:
.L387:
	.loc 1 1186 0
	lis 3,texture_stack@ha
.LVL318:
	la 3,texture_stack@l(3)
	bl MaxStackSize
	stw 3,0(31)
	.loc 1 1187 0
	b .L371
.LVL319:
.L400:
	.loc 1 1157 0
	cmplwi 7,3,32875
	bge- 7,.L380
	cmpwi 7,3,3387
	bne+ 7,.L374
.L384:
	.loc 1 1199 0
	li 0,16
	stw 0,0(31)
	.loc 1 1200 0
	b .L371
.L399:
	.loc 1 1157 0
	cmpwi 7,3,3377
	beq- 7,.L390
	cmpwi 7,3,3379
	bne+ 7,.L374
	.loc 1 1166 0
	li 0,1024
	stw 0,0(4)
	.loc 1 1167 0
	b .L371
.L380:
	.loc 1 1217 0
	mr 4,31
	bl _glGetPixelStore
.LVL320:
	.loc 1 1218 0
	b .L371
.LVL321:
.L390:
	.loc 1 1171 0
	li 0,8
	stw 0,0(31)
	.loc 1 1172 0
	b .L371
.L389:
	.loc 1 1195 0
	li 0,32000
	stw 0,0(31)
	.loc 1 1196 0
	b .L371
.L385:
	.loc 1 1183 0
	lis 3,model_stack@ha
.LVL322:
	la 3,model_stack@l(3)
	bl MaxStackSize
	stw 3,0(31)
	.loc 1 1184 0
	b .L371
.LVL323:
.L375:
	.loc 1 1160 0
	lis 9,cur_mode@ha
	lwz 0,cur_mode@l(9)
	stw 0,0(4)
	.loc 1 1161 0
	b .L371
.L377:
	.loc 1 1174 0
	lis 3,model_stack@ha
.LVL324:
	la 3,model_stack@l(3)
	bl StackSize
	stw 3,0(31)
	.loc 1 1175 0
	b .L371
.LVL325:
.L393:
	.loc 1 1157 0
	cmpwi 7,3,2980
	beq- 7,.L378
	cmpwi 7,3,2981
	bne+ 7,.L374
	.loc 1 1177 0
	lis 3,texture_stack@ha
.LVL326:
	la 3,texture_stack@l(3)
	bl StackSize
	stw 3,0(31)
	.loc 1 1178 0
	b .L371
.LVL327:
.L378:
	.loc 1 1180 0
	lis 3,projection_stack@ha
.LVL328:
	la 3,projection_stack@l(3)
	bl StackSize
	stw 3,0(31)
	.loc 1 1181 0
	b .L371
	.cfi_endproc
.LFE123:
	.size	glGetIntegerv, .-glGetIntegerv
	.align 2
	.globl glGetFloatv
	.type	glGetFloatv, @function
glGetFloatv:
.LFB119:
	.loc 1 1038 0
	.cfi_startproc
.LVL329:
	mflr 0
	stwu 1,-40(1)
.LCFI89:
	.cfi_def_cfa_offset 40
	.cfi_register 65, 0
	.loc 1 1039 0
	lis 9,cur_state@ha
	.loc 1 1038 0
	stw 31,36(1)
	mr 31,4
	.cfi_offset 31, -4
	stw 0,44(1)
	.loc 1 1039 0
	lwz 0,cur_state@l(9)
	.cfi_offset 65, 4
	andi. 9,0,1
	bne- 0,.L416
	.loc 1 1041 0
	cmpwi 7,4,0
	beq- 7,.L417
	.loc 1 1047 0
	cmplwi 7,3,3359
	ble- 7,.L418
	cmplwi 7,3,32878
	ble- 7,.L419
	xoris 0,3,0xffff
	cmpwi 7,0,-31518
	beq 7,.L406
	cmplwi 7,3,34018
	ble- 7,.L420
	xoris 0,3,0xffff
	cmpwi 7,0,-31489
	bne 7,.L405
	.loc 1 1050 0
	lis 9,.LC14@ha
	lwz 0,.LC14@l(9)
	stw 0,0(4)
.L407:
	.loc 1 1054 0
	mr 4,31
.LVL330:
	bl _glGetMatrixf
.LVL331:
	.loc 1 1109 0
	lwz 0,44(1)
	lwz 31,36(1)
.LVL332:
	mtlr 0
	addi 1,1,40
	.cfi_remember_state
	.cfi_restore 31
.LCFI90:
	.cfi_def_cfa_offset 0
	blr
.LVL333:
.L418:
.LCFI91:
	.cfi_restore_state
	.loc 1 1047 0
	cmplwi 7,3,3352
	bge- 7,.L408
	cmplwi 7,3,3317
	bgt- 7,.L411
	cmplwi 7,3,3312
	bge- 7,.L406
	cmplwi 7,3,2981
	bgt- 7,.L412
	cmplwi 7,3,2979
	bge- 7,.L406
	cmpwi 7,3,2976
	bne+ 7,.L405
.L406:
.LBB362:
	.loc 1 1102 0
	addi 4,1,8
.LVL334:
	bl glGetIntegerv
.LVL335:
	.loc 1 1103 0
	lwz 0,8(1)
	lis 9,.LC3@ha
	xoris 0,0,0x8000
	lfs 0,.LC3@l(9)
	stw 0,28(1)
	lis 0,0x4330
	stw 0,24(1)
	lfd 13,24(1)
	fsub 0,13,0
	frsp 0,0
	stfs 0,0(31)
.L405:
.LVL336:
.LBE362:
.LBB363:
.LBB364:
	.loc 1 1273 0
	li 0,1280
	lis 9,glErrCode@ha
	stw 0,glErrCode@l(9)
	.loc 1 1274 0
	lis 9,.LC0@ha
	la 0,.LC0@l(9)
	lis 9,glErrFile@ha
	stw 0,glErrFile@l(9)
	.loc 1 1275 0
	li 0,1106
	lis 9,glErrLine@ha
.LBE364:
.LBE363:
	.loc 1 1109 0
	lwz 31,36(1)
.LVL337:
.LBB366:
.LBB365:
	.loc 1 1275 0
	stw 0,glErrLine@l(9)
.LBE365:
.LBE366:
	.loc 1 1109 0
	lwz 0,44(1)
	addi 1,1,40
	.cfi_remember_state
	.cfi_restore 31
.LCFI92:
	.cfi_def_cfa_offset 0
	mtlr 0
	blr
.LVL338:
.L416:
.LCFI93:
	.cfi_restore_state
.LBB367:
.LBB368:
	.loc 1 1273 0
	li 0,1282
	lis 9,glErrCode@ha
	stw 0,glErrCode@l(9)
	.loc 1 1274 0
	lis 9,.LC0@ha
	la 0,.LC0@l(9)
	lis 9,glErrFile@ha
	stw 0,glErrFile@l(9)
	.loc 1 1275 0
	li 0,1039
	lis 9,glErrLine@ha
	stw 0,glErrLine@l(9)
.LVL339:
.L401:
.LBE368:
.LBE367:
	.loc 1 1109 0
	lwz 0,44(1)
	lwz 31,36(1)
	mtlr 0
	addi 1,1,40
	.cfi_remember_state
.LCFI94:
	.cfi_def_cfa_offset 0
	.cfi_restore 31
	blr
.L419:
.LCFI95:
	.cfi_restore_state
	.loc 1 1047 0
	cmplwi 7,3,32875
	bge- 7,.L406
	cmpwi 7,3,3382
	beq- 7,.L406
	cmplwi 7,3,3382
	bgt- 7,.L414
	cmpwi 7,3,3377
	beq- 7,.L406
	cmpwi 7,3,3379
	bne+ 7,.L405
	b .L406
.L411:
	cmplwi 7,3,3328
	blt- 7,.L405
	cmplwi 7,3,3333
	ble- 7,.L406
	addi 0,3,-3344
	cmplwi 7,0,5
	bgt- 7,.L405
.L408:
	.loc 1 1070 0
	mr 4,31
.LVL340:
	bl _glGetPixelTransferf
.LVL341:
	.loc 1 1109 0
	lwz 0,44(1)
	lwz 31,36(1)
.LVL342:
	mtlr 0
	addi 1,1,40
	.cfi_remember_state
	.cfi_restore 31
.LCFI96:
	.cfi_def_cfa_offset 0
	blr
.LVL343:
.L417:
.LCFI97:
	.cfi_restore_state
.LBB369:
.LBB370:
	.loc 1 1273 0
	li 0,1281
	lis 9,glErrCode@ha
	stw 0,glErrCode@l(9)
	.loc 1 1274 0
	lis 9,.LC0@ha
	la 0,.LC0@l(9)
	lis 9,glErrFile@ha
	stw 0,glErrFile@l(9)
	.loc 1 1275 0
	li 0,1043
	lis 9,glErrLine@ha
	stw 0,glErrLine@l(9)
	b .L401
.LVL344:
.L420:
.LBE370:
.LBE369:
	.loc 1 1047 0
	addis 9,3,0xffff
	addi 0,9,32536
	cmplwi 7,0,1
	bgt- 7,.L405
	b .L406
.L414:
	addi 0,3,-3384
	cmplwi 7,0,1
	bgt- 7,.L405
	b .L406
.L412:
	cmplwi 7,3,2984
	bgt- 7,.L405
	b .L407
	.cfi_endproc
.LFE119:
	.size	glGetFloatv, .-glGetFloatv
	.align 2
	.globl glLineWidth
	.type	glLineWidth, @function
glLineWidth:
.LFB124:
	.loc 1 1253 0
	.cfi_startproc
.LVL345:
	.loc 1 1254 0
	lis 9,cur_state@ha
	lwz 0,cur_state@l(9)
	andi. 9,0,1
	bne- 0,.L424
	.loc 1 1256 0
	lis 9,line_width@ha
	stfs 1,line_width@l(9)
	blr
.L424:
.LVL346:
.LBB371:
.LBB372:
	.loc 1 1273 0
	li 0,1282
	lis 9,glErrCode@ha
	stw 0,glErrCode@l(9)
	.loc 1 1274 0
	lis 9,.LC0@ha
	la 0,.LC0@l(9)
	lis 9,glErrFile@ha
	stw 0,glErrFile@l(9)
	.loc 1 1275 0
	li 0,1254
	lis 9,glErrLine@ha
	stw 0,glErrLine@l(9)
	blr
.LBE372:
.LBE371:
	.cfi_endproc
.LFE124:
	.size	glLineWidth, .-glLineWidth
	.align 2
	.globl glPointSize
	.type	glPointSize, @function
glPointSize:
.LFB125:
	.loc 1 1260 0
	.cfi_startproc
.LVL347:
	.loc 1 1261 0
	lis 9,cur_state@ha
	lwz 0,cur_state@l(9)
	andi. 9,0,1
	bne- 0,.L428
	.loc 1 1263 0
	lis 9,point_size@ha
	stfs 1,point_size@l(9)
	blr
.L428:
.LVL348:
.LBB373:
.LBB374:
	.loc 1 1273 0
	li 0,1282
	lis 9,glErrCode@ha
	stw 0,glErrCode@l(9)
	.loc 1 1274 0
	lis 9,.LC0@ha
	la 0,.LC0@l(9)
	lis 9,glErrFile@ha
	stw 0,glErrFile@l(9)
	.loc 1 1275 0
	li 0,1261
	lis 9,glErrLine@ha
	stw 0,glErrLine@l(9)
	blr
.LBE374:
.LBE373:
	.cfi_endproc
.LFE125:
	.size	glPointSize, .-glPointSize
	.align 2
	.globl _glSetErrorEx
	.type	_glSetErrorEx, @function
_glSetErrorEx:
.LFB126:
	.loc 1 1272 0
	.cfi_startproc
.LVL349:
	.loc 1 1273 0
	lis 9,glErrCode@ha
	.loc 1 1276 0
	.loc 1 1273 0
	stw 3,glErrCode@l(9)
	.loc 1 1274 0
	lis 9,glErrFile@ha
	stw 4,glErrFile@l(9)
	.loc 1 1275 0
	lis 9,glErrLine@ha
	stw 5,glErrLine@l(9)
	.loc 1 1276 0
	blr
	.cfi_endproc
.LFE126:
	.size	_glSetErrorEx, .-_glSetErrorEx
	.align 2
	.globl glGetError
	.type	glGetError, @function
glGetError:
.LFB127:
	.loc 1 1278 0
	.cfi_startproc
	.loc 1 1279 0
	lis 9,cur_state@ha
	lwz 0,cur_state@l(9)
	andi. 0,0,1
	bne- 0,.L433
	.loc 1 1281 0
	lis 9,glErrCode@ha
	lwz 3,glErrCode@l(9)
.LVL350:
	.loc 1 1282 0
	stw 0,glErrCode@l(9)
	.loc 1 1284 0
	blr
.LVL351:
.L433:
.LBB375:
.LBB376:
	.loc 1 1273 0
	li 0,1282
	lis 9,glErrCode@ha
	stw 0,glErrCode@l(9)
	.loc 1 1274 0
	lis 9,.LC0@ha
	la 0,.LC0@l(9)
	lis 9,glErrFile@ha
	stw 0,glErrFile@l(9)
	.loc 1 1275 0
	li 0,1279
	lis 9,glErrLine@ha
.LBE376:
.LBE375:
	.loc 1 1279 0
	li 3,0
.LBB378:
.LBB377:
	.loc 1 1275 0
	stw 0,glErrLine@l(9)
.LBE377:
.LBE378:
	.loc 1 1279 0
	blr
	.cfi_endproc
.LFE127:
	.size	glGetError, .-glGetError
	.align 2
	.globl glColorMask
	.type	glColorMask, @function
glColorMask:
.LFB128:
	.loc 1 1290 0
	.cfi_startproc
.LVL352:
	.loc 1 1291 0
	xori 3,3,1
.LVL353:
	.loc 1 1292 0
	xori 4,4,1
.LVL354:
	.loc 1 1293 0
	xori 5,5,1
.LVL355:
	.loc 1 1294 0
	xori 6,6,1
.LVL356:
	.loc 1 1291 0
	lis 11,color_write_mask@ha
	cntlzw 3,3
	.loc 1 1292 0
	cntlzw 4,4
	.loc 1 1293 0
	cntlzw 5,5
	.loc 1 1294 0
	cntlzw 6,6
	.loc 1 1291 0
	la 9,color_write_mask@l(11)
	srwi 3,3,5
	.loc 1 1292 0
	srwi 4,4,5
	.loc 1 1293 0
	srwi 5,5,5
	.loc 1 1294 0
	srwi 6,6,5
	.loc 1 1292 0
	stb 4,1(9)
	.loc 1 1293 0
	stb 5,2(9)
	.loc 1 1294 0
	stb 6,3(9)
	.loc 1 1295 0
	.loc 1 1291 0
	stb 3,color_write_mask@l(11)
	.loc 1 1295 0
	blr
	.cfi_endproc
.LFE128:
	.size	glColorMask, .-glColorMask
	.globl glErrLine
	.globl glErrFile
	.globl glErrCode
	.comm	_alphatest_ref,4,4
	.comm	_alphatest_func,4,4
	.comm	_alphatest_dirty,1,1
	.comm	_alphatest_enabled,1,1
	.comm	call_offset,4,4
	.comm	read_mode,4,4
	.comm	glTexEnvs,864,4
	.comm	fog_color,4,1
	.comm	fog_density,4,4
	.comm	fog_endz,4,4
	.comm	fog_startz,4,4
	.comm	fog_mode,1,1
	.comm	fog_enable,1,1
	.comm	Trans,32,4
	.comm	_clearcolor,4,1
	.comm	copy_material,4,4
	.comm	copy_mat_enabled,1,1
	.comm	color_write_mask,4,4
	.comm	unpack,20,4
	.comm	pack,20,4
	.comm	point_size,4,4
	.comm	line_width,4,4
	.comm	normFar,4,4
	.comm	normNear,4,4
	.comm	viewPort,16,4
	.comm	scissorInfo,16,4
	.comm	scissor_test,1,1
	.comm	fb_max_width,4,4
	.comm	fb_max_height,4,4
	.comm	cur_state,4,4
	.comm	cull_mode,1,1
	.comm	blend_op,1,1
	.comm	blend_dst,1,1
	.comm	blend_src,1,1
	.comm	blend_type,1,1
	.comm	lighting,1,1
	.comm	gxwinding,4,4
	.comm	gxcullfaceanabled,1,1
	.comm	curmat,68,4
	.comm	globAmbient,16,4
	.comm	lights,1312,4
	.comm	cur_mode,4,4
	.comm	curmtx,4,4
	.comm	texture_stack,128,4
	.comm	projection_stack,16,4
	.comm	model_stack,16,4
	.comm	_cleardepth,4,4
	.comm	depthfunction,4,4
	.comm	depthupdate,1,1
	.comm	depthtestenabled,1,1
	.comm	cur_tex_client,4,4
	.comm	cur_tex,4,4
	.comm	_GLtype,4,4
	.comm	_type,4,4
	.comm	vert_i,4,4
	.comm	_colorelements,16000,32
	.comm	_texcoordelements,64000,32
	.comm	_vertexelements,12000,32
	.comm	_normalelements,12000,32
	.comm	color,20,4
	.comm	tex,160,4
	.comm	vert,20,4
	.comm	norm,20,4
	.comm	_temptexcoordelement,64,4
	.comm	_tempnormalelement,12,4
	.comm	_tempcolorelement,16,4
	.section	.rodata.cst4,"aM",@progbits,4
	.align 2
.LC1:
	.4byte	0
.LC3:
	.4byte	1501560836
.LC4:
	.4byte	1065353216
.LC6:
	.4byte	1501560832
.LC7:
	.4byte	1132396544
.LC10:
	.4byte	1325400064
.LC14:
	.4byte	1082130432
	.section	.rodata.cst8,"aM",@progbits,8
	.align 3
.LC9:
	.4byte	0
	.4byte	0
.LC11:
	.4byte	1075195458
	.4byte	-17155559
	.section	.rodata.str1.4,"aMS",@progbits,1
	.align 2
.LC0:
	.string	"d:/Data/Nintendo/TenebraeGX/gl2gx/source/gl.c"
	.zero	2
.LC12:
	.string	"glEnable invalind enum, 0x%X\n"
	.zero	2
.LC13:
	.string	"glDisable invalind enum, 0x%X\n"
	.section	.sbss,"aw",@nobits
	.align 2
	.type	glErrLine, @object
	.size	glErrLine, 4
glErrLine:
	.zero	4
	.type	glErrFile, @object
	.size	glErrFile, 4
glErrFile:
	.zero	4
	.type	glErrCode, @object
	.size	glErrCode, 4
glErrCode:
	.zero	4
	.section	".text"
.Letext0:
	.file 2 "c:\\utils\\devkitpro\\devkitppc\\bin\\../lib/gcc/powerpc-eabi/4.6.3/include/stddef.h"
	.file 3 "d:/Data/Nintendo/TenebraeGX/gl2gx/include/GL/gl.h"
	.file 4 "c:\\utils\\devkitpro\\devkitppc\\bin\\../lib/gcc/powerpc-eabi/4.6.3/../../../../powerpc-eabi/include/stdint.h"
	.file 5 "c:/utils/devkitPro/libogc/include/gctypes.h"
	.file 6 "c:/utils/devkitPro/libogc/include/ogc/gu.h"
	.file 7 "c:/utils/devkitPro/libogc/include/ogc/gx.h"
	.file 8 "d:/Data/Nintendo/TenebraeGX/gl2gx/source/include/glint.h"
	.file 9 "d:/Data/Nintendo/TenebraeGX/gl2gx/source/include/mat_stack.h"