	.file	"gl_bumpmap.c"
	.section	".text"
.Ltext0:
	.cfi_sections	.debug_frame
	.align 2
	.globl GL_EnableDiffuseShader
	.type	GL_EnableDiffuseShader, @function
GL_EnableDiffuseShader:
.LFB38:
	.file 1 "d:/Data/Nintendo/TenebraeGX/src/gl_bumpmap.c"
	.loc 1 40 0
	.cfi_startproc
	mflr 0
	stwu 1,-24(1)
.LCFI0:
	.cfi_def_cfa_offset 24
	.cfi_register 65, 0
	.loc 1 45 0
	li 3,0
	ori 3,3,33984
	.loc 1 40 0
	stfd 30,8(1)
	stw 0,28(1)
	stfd 31,16(1)
	.loc 1 45 0
	.cfi_offset 63, -8
	.cfi_offset 65, 4
	.cfi_offset 62, -16
	bl GL_SelectTexture
	.loc 1 46 0
	li 3,3553
	bl glDisable
	.loc 1 47 0
	li 3,0
	ori 3,3,34067
	bl glEnable
	.loc 1 48 0
	lis 9,normcube_texture_object@ha
	lwz 4,normcube_texture_object@l(9)
	li 3,0
	ori 3,3,34067
	bl glBindTexture
	.loc 1 49 0
	lis 9,.LC1@ha
	lfs 30,.LC1@l(9)
	li 3,8960
	li 4,8704
	fmr 1,30
	bl glTexEnvf
	.loc 1 50 0
	lis 9,.LC2@ha
	lfs 31,.LC2@l(9)
	li 4,0
	li 3,8960
	ori 4,4,34176
	fmr 1,31
	bl glTexEnvf
	.loc 1 51 0
	fmr 1,31
	li 4,0
	li 3,8960
	ori 4,4,34177
	bl glTexEnvf
	.loc 1 52 0
	lis 9,.LC3@ha
	lfs 1,.LC3@l(9)
	li 4,0
	li 3,8960
	ori 4,4,34161
	bl glTexEnvf
	.loc 1 54 0
	bl GL_EnableMultitexture
	.loc 1 55 0
	fmr 1,30
	li 3,8960
	li 4,8704
	bl glTexEnvf
	.loc 1 56 0
	lis 9,.LC4@ha
	lfs 1,.LC4@l(9)
	li 4,0
	li 3,8960
	ori 4,4,34176
	bl glTexEnvf
	.loc 1 57 0
	fmr 1,31
	li 4,0
	li 3,8960
	ori 4,4,34177
	bl glTexEnvf
	.loc 1 58 0
	lis 9,.LC5@ha
	lfs 1,.LC5@l(9)
	li 4,0
	li 3,8960
	ori 4,4,34161
	bl glTexEnvf
	.loc 1 59 0
	lwz 0,28(1)
	lfd 30,8(1)
	mtlr 0
	lfd 31,16(1)
	addi 1,1,24
.LCFI1:
	.cfi_def_cfa_offset 0
	.cfi_restore 63
	.cfi_restore 62
	blr
	.cfi_endproc
.LFE38:
	.size	GL_EnableDiffuseShader, .-GL_EnableDiffuseShader
	.align 2
	.globl GL_DisableDiffuseShader
	.type	GL_DisableDiffuseShader, @function
GL_DisableDiffuseShader:
.LFB39:
	.loc 1 61 0
	.cfi_startproc
	mflr 0
	stwu 1,-8(1)
.LCFI2:
	.cfi_def_cfa_offset 8
	.cfi_register 65, 0
	stw 0,12(1)
	.loc 1 62 0
	.cfi_offset 65, 4
	bl GL_DisableMultitexture
	.loc 1 63 0
	li 3,3553
	bl glEnable
	.loc 1 64 0
	li 3,0
	ori 3,3,34067
	bl glDisable
	.loc 1 65 0
	lwz 0,12(1)
	addi 1,1,8
.LCFI3:
	.cfi_def_cfa_offset 0
	mtlr 0
	blr
	.cfi_endproc
.LFE39:
	.size	GL_DisableDiffuseShader, .-GL_DisableDiffuseShader
	.align 2
	.globl GL_EnableSpecularShader
	.type	GL_EnableSpecularShader, @function
GL_EnableSpecularShader:
.LFB40:
	.loc 1 67 0
	.cfi_startproc
	mflr 0
	.loc 1 71 0
	lis 9,gl_cardtype@ha
	.loc 1 67 0
	stwu 1,-48(1)
.LCFI4:
	.cfi_def_cfa_offset 48
	.cfi_register 65, 0
	.loc 1 69 0
	lis 11,.LANCHOR0@ha
	.loc 1 71 0
	lwz 9,gl_cardtype@l(9)
	.loc 1 67 0
	stw 0,52(1)
	.loc 1 71 0
	addi 0,9,-1
	.cfi_offset 65, 4
	.loc 1 69 0
	la 9,.LANCHOR0@l(11)
	.loc 1 71 0
	cmplwi 7,0,1
	.loc 1 69 0
	lwz 10,.LANCHOR0@l(11)
	lwz 0,8(9)
	lwz 11,4(9)
	.loc 1 67 0
	stw 29,36(1)
	stw 30,40(1)
	stw 31,44(1)
	.loc 1 69 0
	stw 10,16(1)
	stw 11,20(1)
	stw 0,24(1)
	.loc 1 71 0
	ble- 7,.L7
	.cfi_offset 31, -4
	.cfi_offset 30, -8
	.cfi_offset 29, -12
	.loc 1 107 0
	bl GL_EnableDiffuseShader
	.loc 1 109 0
	lwz 0,52(1)
	lwz 29,36(1)
	mtlr 0
	lwz 30,40(1)
	lwz 31,44(1)
	addi 1,1,48
	.cfi_remember_state
.LCFI5:
	.cfi_def_cfa_offset 0
	.cfi_restore 31
	.cfi_restore 30
	.cfi_restore 29
	blr
.L7:
.LCFI6:
	.cfi_restore_state
	.loc 1 72 0
	li 3,0
	.loc 1 84 0
	lis 30,qglCombinerInputNV@ha
	.loc 1 72 0
	ori 3,3,33984
	.loc 1 86 0
	lis 29,qglCombinerOutputNV@ha
	.loc 1 72 0
	bl GL_SelectTexture
	.loc 1 73 0
	li 3,3553
	bl glDisable
	.loc 1 74 0
	li 3,0
	ori 3,3,34067
	.loc 1 86 0
	li 31,0
	.loc 1 74 0
	bl glEnable
	.loc 1 76 0
	lis 9,normcube_texture_object@ha
	lwz 4,normcube_texture_object@l(9)
	li 3,0
	ori 3,3,34067
	bl glBindTexture
	.loc 1 77 0
	bl GL_EnableMultitexture
	.loc 1 80 0
	lis 9,qglCombinerParameteriNV@ha
	lwz 0,qglCombinerParameteriNV@l(9)
	li 3,0
	ori 3,3,34126
	li 4,2
	mtctr 0
	bctrl
	.loc 1 81 0
	lis 9,qglCombinerParameterfvNV@ha
	lwz 0,qglCombinerParameterfvNV@l(9)
	li 3,0
	addi 4,1,16
	ori 3,3,34090
	mtctr 0
	bctrl
	.loc 1 84 0
	lwz 0,qglCombinerInputNV@l(30)
	li 3,0
	li 5,0
	li 6,0
	li 7,0
	mtctr 0
	ori 3,3,34128
	ori 5,5,34083
	ori 6,6,33985
	ori 7,7,34104
	li 4,6407
	li 8,6407
	bctrl
	.loc 1 85 0
	lwz 0,qglCombinerInputNV@l(30)
	li 3,0
	li 5,0
	li 6,0
	li 7,0
	mtctr 0
	ori 3,3,34128
	ori 5,5,34084
	ori 6,6,33984
	ori 7,7,34104
	li 4,6407
	li 8,6407
	bctrl
	.loc 1 86 0
	lwz 0,qglCombinerOutputNV@l(29)
	li 6,0
	li 3,0
	ori 6,6,34096
	li 5,0
	mr 7,6
	stw 31,8(1)
	stw 31,12(1)
	mtctr 0
	ori 3,3,34128
	ori 5,5,34094
	li 4,6407
	li 8,0
	li 9,0
	li 10,1
	bctrl
	.loc 1 89 0
	lwz 0,qglCombinerOutputNV@l(29)
	li 5,0
	li 3,0
	ori 5,5,34096
	stw 31,8(1)
	mr 6,5
	mr 7,5
	stw 31,12(1)
	mtctr 0
	ori 3,3,34128
	li 4,6406
	li 8,0
	li 9,0
	li 10,0
	bctrl
	.loc 1 92 0
	lwz 0,qglCombinerOutputNV@l(29)
	li 5,0
	li 3,0
	ori 5,5,34096
	li 9,0
	li 10,0
	mr 6,5
	mr 7,5
	stw 31,8(1)
	stw 31,12(1)
	mtctr 0
	ori 3,3,34129
	li 4,6407
	li 8,0
	bctrl
	.loc 1 95 0
	lwz 0,qglCombinerInputNV@l(30)
	li 3,0
	li 5,0
	li 6,0
	li 7,0
	mtctr 0
	ori 3,3,34129
	ori 5,5,34083
	ori 6,6,34094
	ori 7,7,34102
	li 4,6406
	li 8,6405
	bctrl
	.loc 1 96 0
	lwz 0,qglCombinerInputNV@l(30)
	li 3,0
	li 5,0
	li 6,0
	li 7,0
	mtctr 0
	ori 3,3,34129
	ori 5,5,34084
	ori 6,6,34094
	ori 7,7,34102
	li 4,6406
	li 8,6405
	bctrl
	.loc 1 97 0
	lwz 0,qglCombinerInputNV@l(30)
	li 3,0
	li 5,0
	li 6,0
	li 7,0
	mtctr 0
	ori 3,3,34129
	ori 5,5,34085
	ori 6,6,34090
	ori 7,7,34109
	li 4,6406
	li 8,6405
	bctrl
	.loc 1 98 0
	lwz 0,qglCombinerInputNV@l(30)
	li 3,0
	li 5,0
	li 7,0
	mtctr 0
	ori 3,3,34129
	ori 5,5,34086
	ori 7,7,34103
	li 4,6406
	li 6,0
	li 8,6406
	bctrl
	.loc 1 99 0
	lwz 0,qglCombinerOutputNV@l(29)
	li 5,0
	li 3,0
	ori 5,5,34096
	li 7,0
	li 8,0
	mr 6,5
	ori 7,7,34094
	ori 8,8,34111
	li 10,0
	stw 31,8(1)
	stw 31,12(1)
	mtctr 0
	ori 3,3,34129
	li 9,0
	li 4,6406
	bctrl
	.loc 1 103 0
	lis 9,qglFinalCombinerInputNV@ha
	lwz 0,qglFinalCombinerInputNV@l(9)
	li 3,0
	li 4,0
	li 5,0
	mtctr 0
	ori 3,3,34089
	ori 4,4,34094
	ori 5,5,34102
	li 6,6406
	bctrl
	.loc 1 105 0
	li 3,0
	ori 3,3,34082
	bl glEnable
	.loc 1 109 0
	lwz 0,52(1)
	lwz 29,36(1)
	mtlr 0
	lwz 30,40(1)
	lwz 31,44(1)
	addi 1,1,48
	.cfi_restore 29
	.cfi_restore 30
	.cfi_restore 31
.LCFI7:
	.cfi_def_cfa_offset 0
	blr
	.cfi_endproc
.LFE40:
	.size	GL_EnableSpecularShader, .-GL_EnableSpecularShader
	.align 2
	.globl GL_DisableSpecularShader
	.type	GL_DisableSpecularShader, @function
GL_DisableSpecularShader:
.LFB41:
	.loc 1 111 0
	.cfi_startproc
	mflr 0
	.loc 1 114 0
	lis 9,gl_cardtype@ha
	.loc 1 111 0
	stwu 1,-8(1)
.LCFI8:
	.cfi_def_cfa_offset 8
	.cfi_register 65, 0
	.loc 1 114 0
	lwz 9,gl_cardtype@l(9)
	.loc 1 111 0
	stw 0,12(1)
	.loc 1 114 0
	addi 0,9,-1
	.cfi_offset 65, 4
	cmplwi 7,0,1
	ble- 7,.L11
	.loc 1 122 0
	lwz 0,12(1)
	addi 1,1,8
	.cfi_remember_state
.LCFI9:
	.cfi_def_cfa_offset 0
	mtlr 0
	.loc 1 120 0
	b GL_DisableDiffuseShader
.L11:
.LCFI10:
	.cfi_restore_state
	.loc 1 115 0
	bl GL_DisableMultitexture
	.loc 1 116 0
	li 3,0
	ori 3,3,34082
	bl glDisable
	.loc 1 117 0
	li 3,3553
	bl glEnable
	.loc 1 118 0
	li 3,0
	ori 3,3,34067
	bl glDisable
	.loc 1 122 0
	lwz 0,12(1)
	addi 1,1,8
.LCFI11:
	.cfi_def_cfa_offset 0
	mtlr 0
	blr
	.cfi_endproc
.LFE41:
	.size	GL_DisableSpecularShader, .-GL_DisableSpecularShader
	.align 2
	.globl GL_EnableColorShader
	.type	GL_EnableColorShader, @function
GL_EnableColorShader:
.LFB42:
	.loc 1 124 0
	.cfi_startproc
.LVL0:
	mflr 0
	stwu 1,-8(1)
.LCFI12:
	.cfi_def_cfa_offset 8
	.cfi_register 65, 0
	.loc 1 164 0
	li 3,0
.LVL1:
	ori 3,3,33984
	.loc 1 124 0
	stw 0,12(1)
	.loc 1 164 0
	.cfi_offset 65, 4
	bl GL_SelectTexture
	.loc 1 166 0
	lis 9,.LC1@ha
	li 3,8960
	lfs 1,.LC1@l(9)
	li 4,8704
	bl glTexEnvf
	.loc 1 167 0
	lis 9,.LC4@ha
	lfs 1,.LC4@l(9)
	li 4,0
	li 3,8960
	ori 4,4,34176
	bl glTexEnvf
	.loc 1 168 0
	lis 9,.LC2@ha
	lfs 1,.LC2@l(9)
	li 4,0
	li 3,8960
	ori 4,4,34177
	bl glTexEnvf
	.loc 1 169 0
	lis 9,.LC6@ha
	lfs 1,.LC6@l(9)
	li 4,0
	li 3,8960
	ori 4,4,34161
	bl glTexEnvf
	.loc 1 174 0
	lwz 0,12(1)
	addi 1,1,8
.LCFI13:
	.cfi_def_cfa_offset 0
	mtlr 0
	blr
	.cfi_endproc
.LFE42:
	.size	GL_EnableColorShader, .-GL_EnableColorShader
	.align 2
	.globl GL_DisableColorShader
	.type	GL_DisableColorShader, @function
GL_DisableColorShader:
.LFB43:
	.loc 1 176 0
	.cfi_startproc
.LVL2:
	mflr 0
	stwu 1,-8(1)
.LCFI14:
	.cfi_def_cfa_offset 8
	.cfi_register 65, 0
	stw 0,12(1)
	.loc 1 188 0
	.cfi_offset 65, 4
	bl GL_DisableMultitexture
.LVL3:
	.loc 1 189 0
	li 3,3553
	bl glEnable
	.loc 1 191 0
	lwz 0,12(1)
	addi 1,1,8
.LCFI15:
	.cfi_def_cfa_offset 0
	mtlr 0
	blr
	.cfi_endproc
.LFE43:
	.size	GL_DisableColorShader, .-GL_DisableColorShader
	.align 2
	.globl GL_EnableAttShader
	.type	GL_EnableAttShader, @function
GL_EnableAttShader:
.LFB44:
	.loc 1 193 0
	.cfi_startproc
	mflr 0
	.loc 1 195 0
	lis 9,glow_texture_object@ha
	.loc 1 193 0
	stwu 1,-8(1)
.LCFI16:
	.cfi_def_cfa_offset 8
	.cfi_register 65, 0
	.loc 1 195 0
	lwz 3,glow_texture_object@l(9)
	.loc 1 193 0
	stw 0,12(1)
	.loc 1 195 0
	.cfi_offset 65, 4
	bl GL_Bind
	.loc 1 197 0
	lis 9,.LC6@ha
	lfs 1,.LC6@l(9)
	li 3,8960
	li 4,8704
	bl glTexEnvf
	.loc 1 198 0
	lwz 0,12(1)
	addi 1,1,8
.LCFI17:
	.cfi_def_cfa_offset 0
	mtlr 0
	blr
	.cfi_endproc
.LFE44:
	.size	GL_EnableAttShader, .-GL_EnableAttShader
	.align 2
	.globl GL_DisableAttShader
	.type	GL_DisableAttShader, @function
GL_DisableAttShader:
.LFB45:
	.loc 1 200 0
	.cfi_startproc
	mflr 0
	stwu 1,-8(1)
.LCFI18:
	.cfi_def_cfa_offset 8
	.cfi_register 65, 0
	.loc 1 202 0
	li 3,0
	ori 3,3,34082
	.loc 1 200 0
	stw 0,12(1)
	.loc 1 202 0
	.cfi_offset 65, 4
	bl glDisable
	.loc 1 203 0
	lwz 0,12(1)
	addi 1,1,8
.LCFI19:
	.cfi_def_cfa_offset 0
	mtlr 0
	blr
	.cfi_endproc
.LFE45:
	.size	GL_DisableAttShader, .-GL_DisableAttShader
	.align 2
	.globl GL_DrawAlpha
	.type	GL_DrawAlpha, @function
GL_DrawAlpha:
.LFB46:
	.loc 1 211 0
	.cfi_startproc
	mflr 0
	stwu 1,-8(1)
.LCFI20:
	.cfi_def_cfa_offset 8
	.cfi_register 65, 0
	.loc 1 212 0
	li 3,0
	li 4,0
	li 5,0
	li 6,1
	.loc 1 211 0
	stw 0,12(1)
	.loc 1 212 0
	.cfi_offset 65, 4
	bl glColorMask
	.loc 1 213 0
	li 3,3042
	bl glDisable
	.loc 1 214 0
	lwz 0,12(1)
	addi 1,1,8
.LCFI21:
	.cfi_def_cfa_offset 0
	mtlr 0
	blr
	.cfi_endproc
.LFE46:
	.size	GL_DrawAlpha, .-GL_DrawAlpha
	.align 2
	.globl GL_ModulateAlphaDrawAlpha
	.type	GL_ModulateAlphaDrawAlpha, @function
GL_ModulateAlphaDrawAlpha:
.LFB47:
	.loc 1 219 0
	.cfi_startproc
	mflr 0
	stwu 1,-8(1)
.LCFI22:
	.cfi_def_cfa_offset 8
	.cfi_register 65, 0
	.loc 1 220 0
	li 5,0
	li 6,1
	li 3,0
	li 4,0
	.loc 1 219 0
	stw 0,12(1)
	.loc 1 220 0
	.cfi_offset 65, 4
	bl glColorMask
	.loc 1 221 0
	li 3,772
	li 4,0
	bl glBlendFunc
	.loc 1 222 0
	li 3,3042
	bl glEnable
	.loc 1 223 0
	lwz 0,12(1)
	addi 1,1,8
.LCFI23:
	.cfi_def_cfa_offset 0
	mtlr 0
	blr
	.cfi_endproc
.LFE47:
	.size	GL_ModulateAlphaDrawAlpha, .-GL_ModulateAlphaDrawAlpha
	.align 2
	.globl GL_AddAlphaDrawAlpha
	.type	GL_AddAlphaDrawAlpha, @function
GL_AddAlphaDrawAlpha:
.LFB48:
	.loc 1 228 0
	.cfi_startproc
	mflr 0
	stwu 1,-8(1)
.LCFI24:
	.cfi_def_cfa_offset 8
	.cfi_register 65, 0
	.loc 1 229 0
	li 5,0
	li 6,1
	li 3,0
	li 4,0
	.loc 1 228 0
	stw 0,12(1)
	.loc 1 229 0
	.cfi_offset 65, 4
	bl glColorMask
	.loc 1 230 0
	li 3,1
	li 4,1
	bl glBlendFunc
	.loc 1 231 0
	li 3,3042
	bl glEnable
	.loc 1 232 0
	lwz 0,12(1)
	addi 1,1,8
.LCFI25:
	.cfi_def_cfa_offset 0
	mtlr 0
	blr
	.cfi_endproc
.LFE48:
	.size	GL_AddAlphaDrawAlpha, .-GL_AddAlphaDrawAlpha
	.align 2
	.globl GL_ModulateAlphaDrawColor
	.type	GL_ModulateAlphaDrawColor, @function
GL_ModulateAlphaDrawColor:
.LFB49:
	.loc 1 237 0
	.cfi_startproc
	mflr 0
	stwu 1,-8(1)
.LCFI26:
	.cfi_def_cfa_offset 8
	.cfi_register 65, 0
	.loc 1 238 0
	li 5,1
	li 6,1
	li 3,1
	li 4,1
	.loc 1 237 0
	stw 0,12(1)
	.loc 1 238 0
	.cfi_offset 65, 4
	bl glColorMask
	.loc 1 239 0
	li 3,772
	li 4,1
	bl glBlendFunc
	.loc 1 240 0
	li 3,3042
	bl glEnable
	.loc 1 241 0
	lwz 0,12(1)
	addi 1,1,8
.LCFI27:
	.cfi_def_cfa_offset 0
	mtlr 0
	blr
	.cfi_endproc
.LFE49:
	.size	GL_ModulateAlphaDrawColor, .-GL_ModulateAlphaDrawColor
	.align 2
	.globl GL_DrawSquareAlpha
	.type	GL_DrawSquareAlpha, @function
GL_DrawSquareAlpha:
.LFB50:
	.loc 1 246 0
	.cfi_startproc
	mflr 0
	stwu 1,-8(1)
.LCFI28:
	.cfi_def_cfa_offset 8
	.cfi_register 65, 0
	.loc 1 247 0
	li 5,0
	li 6,1
	li 3,0
	li 4,0
	.loc 1 246 0
	stw 0,12(1)
	.loc 1 247 0
	.cfi_offset 65, 4
	bl glColorMask
	.loc 1 248 0
	li 3,770
	li 4,0
	bl glBlendFunc
	.loc 1 249 0
	li 3,3042
	bl glEnable
	.loc 1 250 0
	lwz 0,12(1)
	addi 1,1,8
.LCFI29:
	.cfi_def_cfa_offset 0
	mtlr 0
	blr
	.cfi_endproc
.LFE50:
	.size	GL_DrawSquareAlpha, .-GL_DrawSquareAlpha
	.align 2
	.globl GL_SquareAlpha
	.type	GL_SquareAlpha, @function
GL_SquareAlpha:
.LFB51:
	.loc 1 255 0
	.cfi_startproc
	mflr 0
	stwu 1,-8(1)
.LCFI30:
	.cfi_def_cfa_offset 8
	.cfi_register 65, 0
	.loc 1 256 0
	li 5,0
	li 6,1
	li 3,0
	li 4,0
	.loc 1 255 0
	stw 0,12(1)
	.loc 1 256 0
	.cfi_offset 65, 4
	bl glColorMask
	.loc 1 257 0
	li 3,0
	li 4,772
	bl glBlendFunc
	.loc 1 258 0
	li 3,3042
	bl glEnable
	.loc 1 259 0
	lwz 0,12(1)
	addi 1,1,8
.LCFI31:
	.cfi_def_cfa_offset 0
	mtlr 0
	blr
	.cfi_endproc
.LFE51:
	.size	GL_SquareAlpha, .-GL_SquareAlpha
	.align 2
	.globl GL_AddColor
	.type	GL_AddColor, @function
GL_AddColor:
.LFB52:
	.loc 1 264 0
	.cfi_startproc
	mflr 0
	stwu 1,-8(1)
.LCFI32:
	.cfi_def_cfa_offset 8
	.cfi_register 65, 0
	.loc 1 265 0
	li 5,1
	li 6,1
	li 3,1
	li 4,1
	.loc 1 264 0
	stw 0,12(1)
	.loc 1 265 0
	.cfi_offset 65, 4
	bl glColorMask
	.loc 1 266 0
	li 3,1
	li 4,1
	bl glBlendFunc
	.loc 1 267 0
	li 3,3042
	bl glEnable
	.loc 1 268 0
	lwz 0,12(1)
	addi 1,1,8
.LCFI33:
	.cfi_def_cfa_offset 0
	mtlr 0
	blr
	.cfi_endproc
.LFE52:
	.size	GL_AddColor, .-GL_AddColor
	.align 2
	.globl GL_DrawColor
	.type	GL_DrawColor, @function
GL_DrawColor:
.LFB53:
	.loc 1 273 0
	.cfi_startproc
	mflr 0
	stwu 1,-8(1)
.LCFI34:
	.cfi_def_cfa_offset 8
	.cfi_register 65, 0
	.loc 1 274 0
	li 3,1
	li 4,1
	li 5,1
	li 6,1
	.loc 1 273 0
	stw 0,12(1)
	.loc 1 274 0
	.cfi_offset 65, 4
	bl glColorMask
	.loc 1 275 0
	li 3,3042
	bl glDisable
	.loc 1 276 0
	lwz 0,12(1)
	addi 1,1,8
.LCFI35:
	.cfi_def_cfa_offset 0
	mtlr 0
	blr
	.cfi_endproc
.LFE53:
	.size	GL_DrawColor, .-GL_DrawColor
	.align 2
	.globl R_WorldToObjectMatrix
	.type	R_WorldToObjectMatrix, @function
R_WorldToObjectMatrix:
.LFB54:
	.loc 1 295 0
	.cfi_startproc
.LVL4:
	mflr 0
	stwu 1,-88(1)
.LCFI36:
	.cfi_def_cfa_offset 88
	.cfi_register 65, 0
	.loc 1 298 0
	stw 3,72(1)
	.loc 1 295 0
	stw 0,92(1)
	stw 31,84(1)
	.loc 1 295 0
	mr 31,4
	.cfi_offset 31, -4
	.cfi_offset 65, 4
	.loc 1 298 0
	bl glPushMatrix
.LVL5:
	.loc 1 299 0
	bl glLoadIdentity
	.loc 1 300 0
	lwz 3,72(1)
	bl R_RotateForEntity
	.loc 1 301 0
	addi 4,1,8
	li 3,2982
	bl glGetFloatv
	.loc 1 302 0
	bl glPopMatrix
	.loc 1 303 0
	addi 3,1,8
	mr 4,31
	bl MatrixAffineInverse
	.loc 1 304 0
	lwz 0,92(1)
	lwz 31,84(1)
.LVL6:
	mtlr 0
	addi 1,1,88
.LCFI37:
	.cfi_def_cfa_offset 0
	.cfi_restore 31
	blr
	.cfi_endproc
.LFE54:
	.size	R_WorldToObjectMatrix, .-R_WorldToObjectMatrix
	.align 2
	.globl GL_SetupCubeMapMatrix
	.type	GL_SetupCubeMapMatrix, @function
GL_SetupCubeMapMatrix:
.LFB55:
	.loc 1 314 0
	.cfi_startproc
.LVL7:
	stwu 1,-24(1)
.LCFI38:
	.cfi_def_cfa_offset 24
	mflr 0
	stw 31,12(1)
	.loc 1 318 0
	lis 31,currentshadowlight@ha
	.cfi_offset 31, -12
	.cfi_register 65, 0
	.loc 1 314 0
	stw 0,28(1)
	stfd 31,16(1)
	stw 30,8(1)
	.loc 1 314 0
	mr 30,3
	.cfi_offset 30, -16
	.cfi_offset 63, -8
	.cfi_offset 65, 4
	.loc 1 316 0
	bl glLoadIdentity
.LVL8:
	.loc 1 318 0
	lwz 9,currentshadowlight@l(31)
	lis 11,.LC7@ha
	lfs 1,2156(9)
	lis 9,.LC8@ha
	lfs 31,.LC7@l(11)
	lfs 3,.LC8@l(9)
	fneg 1,1
	fmr 2,31
	fmr 4,3
	bl glRotatef
	.loc 1 319 0
	lwz 9,currentshadowlight@l(31)
	lis 11,.LC8@ha
	fmr 3,31
	lfs 2,.LC8@l(11)
	lfs 1,2160(9)
	fmr 4,2
	fneg 1,1
	bl glRotatef
	.loc 1 320 0
	lwz 9,currentshadowlight@l(31)
	lis 11,.LC8@ha
	fmr 4,31
	lfs 2,.LC8@l(11)
	lfs 1,2164(9)
	fmr 3,2
	fneg 1,1
	bl glRotatef
	.loc 1 322 0
	lwz 9,currentshadowlight@l(31)
	fmr 4,31
	lfs 1,2168(9)
	lis 9,cl+568@ha
	lfd 0,cl+568@l(9)
	lis 9,.LC8@ha
	lfs 2,.LC8@l(9)
	fmul 1,1,0
	fmr 3,2
	frsp 1,1
	bl glRotatef
	.loc 1 324 0
	lwz 9,currentshadowlight@l(31)
	lfs 1,0(9)
	lfs 2,4(9)
	lfs 3,8(9)
	fneg 1,1
	fneg 2,2
	fneg 3,3
	bl glTranslatef
	.loc 1 328 0
	cmpwi 7,30,0
	bne+ 7,.L25
	.loc 1 329 0
	lis 9,currententity@ha
	lwz 3,currententity@l(9)
	bl R_RotateForEntity
.L25:
	.loc 1 331 0
	lwz 0,28(1)
	lwz 30,8(1)
	mtlr 0
	lwz 31,12(1)
	lfd 31,16(1)
	addi 1,1,24
.LCFI39:
	.cfi_def_cfa_offset 0
	.cfi_restore 63
	.cfi_restore 31
	.cfi_restore 30
	blr
	.cfi_endproc
.LFE55:
	.size	GL_SetupCubeMapMatrix, .-GL_SetupCubeMapMatrix
	.align 2
	.globl R_DrawWorldLLV
	.type	R_DrawWorldLLV, @function
R_DrawWorldLLV:
.LFB56:
	.loc 1 354 0
	.cfi_startproc
.LVL9:
	mflr 0
	stwu 1,-48(1)
.LCFI40:
	.cfi_def_cfa_offset 48
	.cfi_register 65, 0
	stw 25,20(1)
	stw 0,52(1)
	stw 26,24(1)
	stw 28,32(1)
	stw 29,36(1)
	stw 31,44(1)
	stw 22,8(1)
	lis 22,qglMultiTexCoord2fARB@ha
	.cfi_offset 22, -40
	.cfi_offset 31, -4
	.cfi_offset 29, -12
	.cfi_offset 28, -16
	.cfi_offset 26, -24
	.cfi_offset 65, 4
	.cfi_offset 25, -28
	stw 23,12(1)
	.loc 1 388 0
	lis 23,globalVertexTable@ha
	.cfi_offset 23, -36
	.loc 1 354 0
	stw 24,16(1)
	.loc 1 373 0
	lis 24,r_framecount@ha
	.cfi_offset 24, -32
	.loc 1 354 0
	stw 27,28(1)
	mr 27,3
	.cfi_offset 27, -20
	stw 30,40(1)
	.loc 1 357 0
	li 30,0
	.cfi_offset 30, -8
.LVL10:
.L36:
	.loc 1 368 0
	slwi 0,30,2
	lwzx 29,27,0
.LVL11:
	.loc 1 369 0
	cmpwi 7,29,0
	beq- 7,.L27
.LVL12:
.L37:
	.loc 1 371 0
	addi 0,30,1
	slwi 0,0,2
	lwzx 31,27,0
.LVL13:
	.loc 1 373 0
	lwz 0,r_framecount@l(24)
.LVL14:
	lwz 9,0(31)
	cmpw 7,9,0
	beq- 7,.L30
	.loc 1 374 0
	lwz 9,36(31)
	lwz 0,8(9)
	mulli 0,0,5
	add 30,30,0
.LVL15:
	addi 30,30,6
.LVL16:
	.loc 1 368 0
	slwi 0,30,2
	lwzx 29,27,0
.LVL17:
	.loc 1 369 0
	cmpwi 7,29,0
	bne+ 7,.L37
.LVL18:
.L27:
	.loc 1 417 0
	lwz 0,52(1)
	lwz 22,8(1)
	mtlr 0
	lwz 23,12(1)
	lwz 24,16(1)
	lwz 25,20(1)
	lwz 26,24(1)
	lwz 27,28(1)
.LVL19:
	lwz 28,32(1)
	lwz 29,36(1)
.LVL20:
	lwz 30,40(1)
	lwz 31,44(1)
	addi 1,1,48
	.cfi_remember_state
.LCFI41:
	.cfi_def_cfa_offset 0
	.cfi_restore 31
	.cfi_restore 30
	.cfi_restore 29
	.cfi_restore 28
	.cfi_restore 27
	.cfi_restore 26
	.cfi_restore 25
	.cfi_restore 24
	.cfi_restore 23
	.cfi_restore 22
	blr
.LVL21:
.L30:
.LCFI42:
	.cfi_restore_state
	.loc 1 383 0
	lwz 11,48(31)
	.loc 1 379 0
	addi 28,30,6
	.loc 1 378 0
	lwz 9,36(31)
	.loc 1 383 0
	lwz 3,36(11)
	.loc 1 378 0
	lwz 26,8(9)
.LVL22:
	.loc 1 383 0
	bl R_TextureAnimation
.LVL23:
	.loc 1 384 0
	lwz 3,24(3)
.LVL24:
	addi 3,3,1
	bl GL_Bind
	.loc 1 386 0
	mr 3,29
	bl glBegin
	.loc 1 389 0
	cmpwi 7,26,0
	.loc 1 388 0
	lwz 9,36(31)
	lwz 0,globalVertexTable@l(23)
	lwz 31,24(9)
.LVL25:
	.loc 1 389 0
	ble- 7,.L34
	.loc 1 388 0
	mulli 31,31,28
	.loc 1 354 0
	addi 28,30,8
.LVL26:
	slwi 28,28,2
	.loc 1 389 0
	li 29,0
.LVL27:
	.loc 1 388 0
	add 31,0,31
	.loc 1 354 0
	add 28,27,28
	la 25,qglMultiTexCoord2fARB@l(22)
.LVL28:
.L33:
	.loc 1 408 0 discriminator 2
	mr 3,28
	.loc 1 389 0 discriminator 2
	addi 29,29,1
	.loc 1 408 0 discriminator 2
	bl glTexCoord3fv
	.loc 1 411 0 discriminator 2
	lwz 0,0(25)
	li 3,0
	lfs 1,12(31)
	lfs 2,16(31)
	ori 3,3,33985
	mtctr 0
	.loc 1 389 0 discriminator 2
	addi 28,28,20
	.loc 1 411 0 discriminator 2
	bctrl
	.loc 1 412 0 discriminator 2
	mr 3,31
	bl glVertex3fv
.LVL29:
	.loc 1 389 0 discriminator 2
	cmpw 7,29,26
	addi 31,31,28
.LVL30:
	bne+ 7,.L33
	.loc 1 354 0
	mulli 29,29,5
.LVL31:
	add 30,30,29
	addi 30,30,6
	.loc 1 414 0
	bl glEnd
	b .L36
.LVL32:
.L34:
	.loc 1 379 0
	mr 30,28
	.loc 1 414 0
	bl glEnd
.LVL33:
	b .L36
	.cfi_endproc
.LFE56:
	.size	R_DrawWorldLLV, .-R_DrawWorldLLV
	.align 2
	.globl R_DrawWorldHAV
	.type	R_DrawWorldHAV, @function
R_DrawWorldHAV:
.LFB57:
	.loc 1 428 0
	.cfi_startproc
.LVL34:
	mflr 0
	stwu 1,-112(1)
.LCFI43:
	.cfi_def_cfa_offset 112
	.cfi_register 65, 0
	stw 23,76(1)
	stw 0,116(1)
	stw 24,80(1)
	stw 26,88(1)
	stw 27,92(1)
	stw 29,100(1)
	stw 30,104(1)
	stw 31,108(1)
	stw 19,60(1)
	lis 19,r_refdef@ha
	.cfi_offset 19, -52
	.cfi_offset 31, -4
	.cfi_offset 30, -8
	.cfi_offset 29, -12
	.cfi_offset 27, -20
	.cfi_offset 26, -24
	.cfi_offset 24, -32
	.cfi_offset 65, 4
	.cfi_offset 23, -36
	stw 20,64(1)
	lis 20,qglMultiTexCoord2fARB@ha
	.cfi_offset 20, -48
	stw 21,68(1)
	.loc 1 462 0
	lis 21,globalVertexTable@ha
	.cfi_offset 21, -44
	.loc 1 428 0
	stw 22,72(1)
	.loc 1 448 0
	lis 22,r_framecount@ha
	.cfi_offset 22, -40
	.loc 1 428 0
	stw 25,84(1)
	mr 25,3
	.cfi_offset 25, -28
	stw 28,96(1)
	.loc 1 431 0
	li 28,0
	.cfi_offset 28, -16
.LVL35:
.L49:
	.loc 1 443 0
	slwi 0,28,2
	lwzx 31,25,0
.LVL36:
	.loc 1 444 0
	cmpwi 7,31,0
	beq- 7,.L38
.LVL37:
.L50:
	.loc 1 446 0
	addi 0,28,1
	slwi 0,0,2
	lwzx 30,25,0
.LVL38:
	.loc 1 448 0
	lwz 0,r_framecount@l(22)
.LVL39:
	lwz 9,0(30)
	cmpw 7,9,0
	beq- 7,.L41
	.loc 1 449 0
	lwz 9,36(30)
	lwz 0,8(9)
	mulli 0,0,5
	add 28,28,0
.LVL40:
	addi 28,28,6
.LVL41:
	.loc 1 443 0
	slwi 0,28,2
	lwzx 31,25,0
.LVL42:
	.loc 1 444 0
	cmpwi 7,31,0
	bne+ 7,.L50
.LVL43:
.L38:
	.loc 1 492 0
	lwz 0,116(1)
	lwz 19,60(1)
	mtlr 0
	lwz 20,64(1)
	lwz 21,68(1)
	lwz 22,72(1)
	lwz 23,76(1)
	lwz 24,80(1)
	lwz 25,84(1)
.LVL44:
	lwz 26,88(1)
	lwz 27,92(1)
	lwz 28,96(1)
	lwz 29,100(1)
	lwz 30,104(1)
	lwz 31,108(1)
.LVL45:
	addi 1,1,112
	.cfi_remember_state
.LCFI44:
	.cfi_def_cfa_offset 0
	.cfi_restore 31
	.cfi_restore 30
	.cfi_restore 29
	.cfi_restore 28
	.cfi_restore 27
	.cfi_restore 26
	.cfi_restore 25
	.cfi_restore 24
	.cfi_restore 23
	.cfi_restore 22
	.cfi_restore 21
	.cfi_restore 20
	.cfi_restore 19
	blr
.LVL46:
.L41:
.LCFI45:
	.cfi_restore_state
	.loc 1 457 0
	lwz 11,48(30)
	.loc 1 454 0
	addi 29,28,6
	.loc 1 453 0
	lwz 9,36(30)
	.loc 1 457 0
	lwz 3,36(11)
	.loc 1 453 0
	lwz 24,8(9)
.LVL47:
	.loc 1 457 0
	bl R_TextureAnimation
.LVL48:
	.loc 1 458 0
	lwz 3,24(3)
.LVL49:
	addi 3,3,1
	bl GL_Bind
	.loc 1 460 0
	mr 3,31
	bl glBegin
	.loc 1 463 0
	cmpwi 7,24,0
	.loc 1 462 0
	lwz 9,36(30)
	lwz 0,globalVertexTable@l(21)
	lwz 31,24(9)
.LVL50:
	.loc 1 463 0
	ble- 7,.L47
	.loc 1 462 0
	mulli 31,31,28
	.loc 1 428 0
	addi 29,28,8
.LVL51:
	slwi 29,29,2
	.loc 1 463 0
	li 27,0
	.loc 1 462 0
	add 31,0,31
	.loc 1 428 0
	add 29,25,29
	la 26,r_refdef@l(19)
	la 23,qglMultiTexCoord2fARB@l(20)
	b .L46
.LVL52:
.L52:
	.loc 1 476 0
	fnmadds 11,0,10,11
.L45:
	.loc 1 481 0
	lwz 9,48(30)
	.loc 1 486 0
	addi 3,1,32
	.loc 1 463 0
	addi 27,27,1
	addi 29,29,20
	.loc 1 482 0
	lfs 10,4(9)
	.loc 1 481 0
	lfs 9,20(9)
	.loc 1 482 0
	fmuls 10,12,10
	lfs 8,0(9)
	.loc 1 481 0
	fmuls 12,12,9
	lfs 9,16(9)
	.loc 1 482 0
	fmadds 10,13,8,10
	.loc 1 481 0
	fmadds 13,13,9,12
	.loc 1 482 0
	lfs 9,8(9)
	.loc 1 481 0
	lfs 12,24(9)
	.loc 1 482 0
	fmadds 10,0,9,10
	.loc 1 481 0
	fmadds 0,0,12,13
	.loc 1 484 0
	lfs 13,8(1)
	fadds 10,10,13
	lfs 13,12(1)
	fsubs 0,13,0
	lfs 13,16(1)
	stfs 10,32(1)
	fadds 11,13,11
	stfs 0,36(1)
	stfs 11,40(1)
	.loc 1 486 0
	bl glTexCoord3fv
	.loc 1 487 0
	lwz 0,0(23)
	li 3,0
	lfs 1,12(31)
	ori 3,3,33985
	lfs 2,16(31)
	mtctr 0
	bctrl
	.loc 1 488 0
	mr 3,31
	bl glVertex3fv
.LVL53:
	.loc 1 463 0
	cmpw 7,27,24
	addi 31,31,28
.LVL54:
	beq- 7,.L51
.LVL55:
.L46:
	.loc 1 466 0
	lwz 0,0(29)
	.loc 1 467 0
	addi 3,1,8
	.loc 1 466 0
	stw 0,8(1)
	lwz 0,4(29)
	stw 0,12(1)
	lwz 0,8(29)
	stw 0,16(1)
	.loc 1 467 0
	bl VectorNormalize
	.loc 1 471 0
	lfs 0,0(31)
	.loc 1 472 0
	addi 3,1,20
	.loc 1 471 0
	lfs 13,112(26)
	lfs 12,116(26)
	fsubs 0,13,0
	lfs 13,120(26)
	stfs 0,20(1)
	lfs 0,4(31)
	fsubs 0,12,0
	stfs 0,24(1)
	lfs 0,8(31)
	fsubs 0,13,0
	stfs 0,28(1)
	.loc 1 472 0
	bl VectorNormalize
	.loc 1 476 0
	lwz 9,4(30)
	.loc 1 475 0
	lwz 0,8(30)
	.loc 1 476 0
	lfs 11,4(9)
	lfs 12,24(1)
	lfs 0,0(9)
	lfs 10,8(9)
	.loc 1 475 0
	andi. 9,0,2
	.loc 1 476 0
	fmuls 11,12,11
	lfs 13,20(1)
	fmadds 11,13,0,11
	lfs 0,28(1)
	.loc 1 475 0
	bne- 0,.L52
	.loc 1 478 0
	fmadds 11,0,10,11
	b .L45
.LVL56:
.L51:
	.loc 1 428 0
	mulli 27,27,5
.LVL57:
	add 28,28,27
	addi 28,28,6
	.loc 1 490 0
	bl glEnd
	b .L49
.LVL58:
.L47:
	.loc 1 454 0
	mr 28,29
	.loc 1 490 0
	bl glEnd
.LVL59:
	b .L49
	.cfi_endproc
.LFE57:
	.size	R_DrawWorldHAV, .-R_DrawWorldHAV
	.align 2
	.globl R_DrawWorldATT
	.type	R_DrawWorldATT, @function
R_DrawWorldATT:
.LFB58:
	.loc 1 504 0
	.cfi_startproc
.LVL60:
	mflr 0
	stwu 1,-56(1)
.LCFI46:
	.cfi_def_cfa_offset 56
	.cfi_register 65, 0
	.loc 1 513 0
	lis 9,currentshadowlight@ha
	lwz 9,currentshadowlight@l(9)
	.loc 1 504 0
	stw 0,60(1)
	stfd 31,48(1)
	.loc 1 513 0
	lwz 0,2124(9)
	.cfi_offset 63, -8
	.cfi_offset 65, 4
	lis 9,d_lightstylevalue@ha
	la 9,d_lightstylevalue@l(9)
	.loc 1 504 0
	stw 26,24(1)
	.loc 1 513 0
	slwi 0,0,2
	.loc 1 504 0
	stw 28,32(1)
	.loc 1 513 0
	lwzx 0,9,0
	lis 9,.LC10@ha
	lfs 0,.LC10@l(9)
	lis 9,.LC12@ha
	xoris 0,0,0x8000
	.loc 1 504 0
	stw 29,36(1)
	.loc 1 513 0
	stw 0,12(1)
	lis 0,0x4330
	stw 0,8(1)
	.loc 1 504 0
	stw 30,40(1)
	.loc 1 513 0
	lfd 31,8(1)
	.loc 1 504 0
	stw 24,16(1)
	.loc 1 530 0
	lis 24,globalVertexTable@ha
	.cfi_offset 24, -40
	.cfi_offset 30, -16
	.cfi_offset 29, -20
	.cfi_offset 28, -24
	.cfi_offset 26, -32
	.loc 1 513 0
	fsub 31,31,0
	lfs 0,.LC12@l(9)
	.loc 1 504 0
	stw 25,20(1)
	.loc 1 523 0
	lis 25,r_framecount@ha
	.cfi_offset 25, -36
	.loc 1 504 0
	stw 27,28(1)
	mr 27,3
	.cfi_offset 27, -28
	.loc 1 513 0
	fdiv 31,31,0
	.loc 1 504 0
	stw 31,44(1)
	.loc 1 506 0
	li 31,0
	.cfi_offset 31, -12
	.loc 1 513 0
	frsp 31,31
.LVL61:
.L62:
	.loc 1 517 0
	slwi 0,31,2
	lwzx 29,27,0
.LVL62:
	.loc 1 518 0
	cmpwi 7,29,0
	beq- 7,.L53
.LVL63:
.L63:
	.loc 1 521 0
	addi 0,31,1
	.loc 1 523 0
	lwz 11,r_framecount@l(25)
	.loc 1 521 0
	slwi 0,0,2
	lwzx 9,27,0
.LVL64:
	addi 0,31,2
.LVL65:
	.loc 1 523 0
	lwz 10,0(9)
	cmpw 7,10,11
	beq- 7,.L56
	.loc 1 524 0
	lwz 9,36(9)
.LVL66:
	lwz 31,8(9)
	mulli 31,31,5
	addi 31,31,4
	add 31,31,0
.LVL67:
	.loc 1 517 0
	slwi 0,31,2
	lwzx 29,27,0
.LVL68:
	.loc 1 518 0
	cmpwi 7,29,0
	bne+ 7,.L63
.LVL69:
.L53:
	.loc 1 549 0
	lwz 0,60(1)
	lwz 24,16(1)
	mtlr 0
	lwz 25,20(1)
	lwz 26,24(1)
	lwz 27,28(1)
.LVL70:
	lwz 28,32(1)
	lwz 29,36(1)
.LVL71:
	lwz 30,40(1)
	lwz 31,44(1)
	lfd 31,48(1)
.LVL72:
	addi 1,1,56
	.cfi_remember_state
.LCFI47:
	.cfi_def_cfa_offset 0
	.cfi_restore 63
	.cfi_restore 31
	.cfi_restore 30
	.cfi_restore 29
	.cfi_restore 28
	.cfi_restore 27
	.cfi_restore 26
	.cfi_restore 25
	.cfi_restore 24
	blr
.LVL73:
.L56:
.LCFI48:
	.cfi_restore_state
	.loc 1 532 0
	slwi 0,0,2
.LVL74:
	.loc 1 528 0
	lwz 9,36(9)
.LVL75:
	.loc 1 532 0
	add 11,27,0
	lfsx 1,27,0
	lfs 2,4(11)
	lfs 3,8(11)
	fmuls 1,31,1
	lfs 4,12(11)
	fmuls 2,31,2
	fmuls 3,31,3
	.loc 1 528 0
	lwz 26,8(9)
.LVL76:
	.loc 1 532 0
	fmuls 4,31,4
	.loc 1 530 0
	lwz 28,24(9)
	lwz 30,globalVertexTable@l(24)
.LVL77:
	.loc 1 532 0
	bl glColor4f
.LVL78:
	.loc 1 539 0
	mr 3,29
	bl glBegin
	.loc 1 540 0
	cmpwi 7,26,0
	.loc 1 537 0
	addi 29,31,6
.LVL79:
	.loc 1 540 0
	ble- 7,.L60
	.loc 1 530 0
	mulli 28,28,28
.LVL80:
	.loc 1 504 0
	slwi 29,29,2
.LVL81:
	add 29,27,29
	.loc 1 530 0
	add 28,30,28
	.loc 1 540 0
	li 30,0
.LVL82:
.L59:
	.loc 1 542 0 discriminator 2
	mr 3,29
	.loc 1 540 0 discriminator 2
	addi 30,30,1
	.loc 1 542 0 discriminator 2
	bl glTexCoord2fv
	.loc 1 545 0 discriminator 2
	mr 3,28
	bl glVertex3fv
.LVL83:
	.loc 1 540 0 discriminator 2
	cmpw 7,30,26
	addi 28,28,28
.LVL84:
	addi 29,29,20
	bne+ 7,.L59
	.loc 1 504 0
	mulli 30,30,5
.LVL85:
	add 31,31,30
	addi 31,31,6
	.loc 1 547 0
	bl glEnd
	b .L62
.LVL86:
.L60:
	.loc 1 537 0
	mr 31,29
	.loc 1 547 0
	bl glEnd
	b .L62
	.cfi_endproc
.LFE58:
	.size	R_DrawWorldATT, .-R_DrawWorldATT
	.align 2
	.globl R_DrawWorldWV
	.type	R_DrawWorldWV, @function
R_DrawWorldWV:
.LFB59:
	.loc 1 560 0
	.cfi_startproc
.LVL87:
	mflr 0
	stwu 1,-48(1)
.LCFI49:
	.cfi_def_cfa_offset 48
	.cfi_register 65, 0
	mfcr 12
	.loc 1 588 0
	cmpwi 4,4,0
	.loc 1 560 0
	stw 26,24(1)
	stw 0,52(1)
	stw 27,28(1)
	stw 30,40(1)
	stw 31,44(1)
	stw 12,8(1)
	stw 23,12(1)
	lis 23,qglMultiTexCoord2fARB@ha
	.cfi_offset 23, -36
	.cfi_offset 31, -4
	.cfi_offset 30, -8
	.cfi_offset 27, -20
	.cfi_offset 65, 4
	.cfi_offset 26, -24
	.cfi_offset 70, -40
	stw 24,16(1)
	.loc 1 584 0
	lis 24,globalVertexTable@ha
	.cfi_offset 24, -32
	.loc 1 560 0
	stw 25,20(1)
	.loc 1 577 0
	lis 25,r_framecount@ha
	.cfi_offset 25, -28
	.loc 1 560 0
	stw 28,32(1)
	mr 28,3
	.cfi_offset 28, -16
	stw 29,36(1)
	.loc 1 563 0
	li 29,0
	.cfi_offset 29, -12
.LVL88:
.L75:
	.loc 1 572 0
	slwi 0,29,2
	lwzx 30,28,0
.LVL89:
	.loc 1 573 0
	cmpwi 7,30,0
	beq- 7,.L64
.LVL90:
.L76:
	.loc 1 575 0
	addi 0,29,1
	slwi 0,0,2
	lwzx 9,28,0
.LVL91:
	.loc 1 577 0
	lwz 0,r_framecount@l(25)
.LVL92:
	lwz 11,0(9)
	cmpw 7,11,0
	beq- 7,.L67
	.loc 1 578 0
	lwz 9,36(9)
.LVL93:
	lwz 0,8(9)
	mulli 0,0,5
	add 29,29,0
.LVL94:
	addi 29,29,6
.LVL95:
	.loc 1 572 0
	slwi 0,29,2
	lwzx 30,28,0
.LVL96:
	.loc 1 573 0
	cmpwi 7,30,0
	bne+ 7,.L76
.LVL97:
.L64:
	.loc 1 606 0
	lwz 0,52(1)
	lwz 12,8(1)
	mtlr 0
	lwz 23,12(1)
	lwz 24,16(1)
	mtcrf 8,12
	lwz 25,20(1)
	lwz 26,24(1)
	lwz 27,28(1)
	lwz 28,32(1)
.LVL98:
	lwz 29,36(1)
	lwz 30,40(1)
.LVL99:
	lwz 31,44(1)
	addi 1,1,48
	.cfi_remember_state
.LCFI50:
	.cfi_def_cfa_offset 0
	.cfi_restore 70
	.cfi_restore 31
	.cfi_restore 30
	.cfi_restore 29
	.cfi_restore 28
	.cfi_restore 27
	.cfi_restore 26
	.cfi_restore 25
	.cfi_restore 24
	.cfi_restore 23
	blr
.LVL100:
.L67:
.LCFI51:
	.cfi_restore_state
	.loc 1 587 0
	lwz 11,48(9)
	.loc 1 582 0
	lwz 9,36(9)
.LVL101:
	.loc 1 587 0
	lwz 3,36(11)
	.loc 1 582 0
	lwz 27,8(9)
.LVL102:
	.loc 1 584 0
	lwz 26,globalVertexTable@l(24)
	lwz 31,24(9)
.LVL103:
	.loc 1 587 0
	bl R_TextureAnimation
.LVL104:
	.loc 1 589 0
	lwz 3,24(3)
.LVL105:
	.loc 1 588 0
	beq- 4,.L69
	.loc 1 589 0
	addi 3,3,1
	bl GL_Bind
	.loc 1 595 0
	mr 3,30
	bl glBegin
	.loc 1 596 0
	cmpwi 7,27,0
	.loc 1 593 0
	addi 0,29,6
.LVL106:
	.loc 1 596 0
	ble- 7,.L73
.LVL107:
.L77:
	.loc 1 584 0
	mulli 31,31,28
	.loc 1 596 0
	li 30,0
.LVL108:
	.loc 1 584 0
	add 31,26,31
	la 26,qglMultiTexCoord2fARB@l(23)
.LVL109:
.L72:
	.loc 1 599 0 discriminator 2
	mr 3,31
	.loc 1 596 0 discriminator 2
	addi 30,30,1
	.loc 1 599 0 discriminator 2
	bl glTexCoord3fv
	.loc 1 600 0 discriminator 2
	lwz 0,0(26)
	li 3,0
	lfs 1,12(31)
	lfs 2,16(31)
	ori 3,3,33985
	mtctr 0
	bctrl
	.loc 1 601 0 discriminator 2
	mr 3,31
	bl glVertex3fv
.LVL110:
	.loc 1 596 0 discriminator 2
	cmpw 7,30,27
	addi 31,31,28
.LVL111:
	bne+ 7,.L72
	.loc 1 560 0
	mulli 30,30,5
.LVL112:
	add 29,29,30
	addi 29,29,6
	.loc 1 603 0
	bl glEnd
	b .L75
.LVL113:
.L69:
	.loc 1 591 0
	bl GL_Bind
	.loc 1 595 0
	mr 3,30
	bl glBegin
	.loc 1 596 0
	cmpwi 7,27,0
	.loc 1 593 0
	addi 0,29,6
.LVL114:
	.loc 1 596 0
	bgt+ 7,.L77
.LVL115:
.L73:
	.loc 1 593 0
	mr 29,0
	.loc 1 603 0
	bl glEnd
.LVL116:
	b .L75
	.cfi_endproc
.LFE59:
	.size	R_DrawWorldWV, .-R_DrawWorldWV
	.align 2
	.globl R_DrawBrushLLV
	.type	R_DrawBrushLLV, @function
R_DrawBrushLLV:
.LFB60:
	.loc 1 618 0
	.cfi_startproc
.LVL117:
	mflr 0
	stwu 1,-56(1)
.LCFI52:
	.cfi_def_cfa_offset 56
	.cfi_register 65, 0
	stw 22,16(1)
	stw 0,60(1)
	stw 24,24(1)
	.loc 1 620 0
	lwz 22,160(3)
	.cfi_offset 24, -32
	.cfi_offset 65, 4
	.cfi_offset 22, -40
.LVL118:
	.loc 1 618 0
	stw 25,28(1)
	.loc 1 631 0
	lwz 9,144(22)
	.loc 1 618 0
	stw 20,8(1)
	.loc 1 631 0
	cmpwi 7,9,0
	.loc 1 618 0
	stw 21,12(1)
	stw 23,20(1)
	stw 26,32(1)
	stw 27,36(1)
	stw 28,40(1)
	stw 29,44(1)
	stw 30,48(1)
	stw 31,52(1)
	.loc 1 624 0
	lwz 25,264(3)
	.cfi_offset 31, -4
	.cfi_offset 30, -8
	.cfi_offset 29, -12
	.cfi_offset 28, -16
	.cfi_offset 27, -20
	.cfi_offset 26, -24
	.cfi_offset 23, -36
	.cfi_offset 21, -44
	.cfi_offset 20, -48
	.cfi_offset 25, -28
.LVL119:
	.loc 1 630 0
	lwz 24,208(22)
	lwz 0,140(22)
.LVL120:
	.loc 1 631 0
	ble- 7,.L78
	.loc 1 630 0
	mulli 0,0,92
	.loc 1 618 0
	addis 23,25,0x2
	addi 23,23,-32677
	.loc 1 628 0
	li 28,0
	.loc 1 630 0
	add 24,24,0
	.loc 1 631 0
	li 26,0
	.loc 1 643 0
	lis 21,globalVertexTable@ha
	lis 20,qglMultiTexCoord2fARB@ha
	b .L83
.LVL121:
.L80:
	.loc 1 631 0
	addi 26,26,1
.LVL122:
	addi 24,24,92
.LVL123:
	cmpw 7,9,26
	ble- 7,.L78
.LVL124:
.L83:
	.loc 1 633 0
	lbzu 0,1(23)
	cmpwi 7,0,0
	beq+ 7,.L80
	.loc 1 638 0
	lwz 9,48(24)
	.loc 1 635 0
	lwz 29,36(24)
.LVL125:
	.loc 1 638 0
	lwz 3,36(9)
	bl R_TextureAnimation
.LVL126:
	.loc 1 639 0
	lwz 3,24(3)
.LVL127:
	addi 3,3,1
	bl GL_Bind
	.loc 1 641 0
	li 3,6
	bl glBegin
	.loc 1 644 0
	lwz 0,8(29)
	.loc 1 643 0
	lwz 9,globalVertexTable@l(21)
	.loc 1 644 0
	cmpwi 7,0,0
	.loc 1 643 0
	lwz 31,24(29)
.LVL128:
	.loc 1 644 0
	ble- 7,.L81
	.loc 1 643 0
	mulli 31,31,28
	.loc 1 644 0
	li 30,0
	la 27,qglMultiTexCoord2fARB@l(20)
	.loc 1 643 0
	add 31,9,31
.LVL129:
.L82:
	.loc 1 618 0 discriminator 2
	add 3,30,28
	.loc 1 644 0 discriminator 2
	addi 30,30,1
	.loc 1 646 0 discriminator 2
	mulli 3,3,12
	add 3,25,3
	addi 3,3,24668
	bl glTexCoord3fv
	.loc 1 647 0 discriminator 2
	lwz 0,0(27)
	li 3,0
	lfs 1,12(31)
	lfs 2,16(31)
	mtctr 0
	ori 3,3,33985
	bctrl
	.loc 1 648 0 discriminator 2
	mr 3,31
	bl glVertex3fv
.LVL130:
	.loc 1 644 0 discriminator 2
	lwz 0,8(29)
	addi 31,31,28
.LVL131:
	cmpw 7,0,30
	bgt+ 7,.L82
.LVL132:
.L81:
	.loc 1 650 0
	bl glEnd
	lwz 9,144(22)
	.loc 1 631 0
	addi 26,26,1
	.loc 1 651 0
	lwz 0,16(24)
	.loc 1 631 0
	cmpw 7,9,26
	addi 24,24,92
	.loc 1 651 0
	add 28,28,0
.LVL133:
	.loc 1 631 0
	bgt+ 7,.L83
.LVL134:
.L78:
	.loc 1 653 0
	lwz 0,60(1)
	lwz 20,8(1)
	mtlr 0
	lwz 21,12(1)
	lwz 22,16(1)
.LVL135:
	lwz 23,20(1)
	lwz 24,24(1)
	lwz 25,28(1)
.LVL136:
	lwz 26,32(1)
	lwz 27,36(1)
	lwz 28,40(1)
	lwz 29,44(1)
	lwz 30,48(1)
	lwz 31,52(1)
	addi 1,1,56
.LCFI53:
	.cfi_def_cfa_offset 0
	.cfi_restore 31
	.cfi_restore 30
	.cfi_restore 29
	.cfi_restore 28
	.cfi_restore 27
	.cfi_restore 26
	.cfi_restore 25
	.cfi_restore 24
	.cfi_restore 23
	.cfi_restore 22
	.cfi_restore 21
	.cfi_restore 20
	blr
	.cfi_endproc
.LFE60:
	.size	R_DrawBrushLLV, .-R_DrawBrushLLV
	.align 2
	.globl R_DrawBrushHAV
	.type	R_DrawBrushHAV, @function
R_DrawBrushHAV:
.LFB61:
	.loc 1 664 0
	.cfi_startproc
.LVL137:
	mflr 0
	stwu 1,-56(1)
.LCFI54:
	.cfi_def_cfa_offset 56
	.cfi_register 65, 0
	stw 22,16(1)
	stw 0,60(1)
	stw 24,24(1)
	.loc 1 666 0
	lwz 22,160(3)
	.cfi_offset 24, -32
	.cfi_offset 65, 4
	.cfi_offset 22, -40
.LVL138:
	.loc 1 664 0
	stw 25,28(1)
	.loc 1 677 0
	lwz 9,144(22)
	.loc 1 664 0
	stw 20,8(1)
	.loc 1 677 0
	cmpwi 7,9,0
	.loc 1 664 0
	stw 21,12(1)
	stw 23,20(1)
	stw 26,32(1)
	stw 27,36(1)
	stw 28,40(1)
	stw 29,44(1)
	stw 30,48(1)
	stw 31,52(1)
	.loc 1 670 0
	lwz 25,264(3)
	.cfi_offset 31, -4
	.cfi_offset 30, -8
	.cfi_offset 29, -12
	.cfi_offset 28, -16
	.cfi_offset 27, -20
	.cfi_offset 26, -24
	.cfi_offset 23, -36
	.cfi_offset 21, -44
	.cfi_offset 20, -48
	.cfi_offset 25, -28
.LVL139:
	.loc 1 676 0
	lwz 24,208(22)
	lwz 0,140(22)
.LVL140:
	.loc 1 677 0
	ble- 7,.L86
	.loc 1 676 0
	mulli 0,0,92
	.loc 1 664 0
	addis 23,25,0x2
	addi 23,23,-32677
	.loc 1 674 0
	li 28,0
	.loc 1 676 0
	add 24,24,0
	.loc 1 677 0
	li 26,0
	.loc 1 689 0
	lis 21,globalVertexTable@ha
	lis 20,qglMultiTexCoord2fARB@ha
	b .L91
.LVL141:
.L88:
	.loc 1 677 0
	addi 26,26,1
.LVL142:
	addi 24,24,92
.LVL143:
	cmpw 7,9,26
	ble- 7,.L86
.LVL144:
.L91:
	.loc 1 679 0
	lbzu 0,1(23)
	cmpwi 7,0,0
	beq+ 7,.L88
	.loc 1 684 0
	lwz 9,48(24)
	.loc 1 681 0
	lwz 29,36(24)
.LVL145:
	.loc 1 684 0
	lwz 3,36(9)
	bl R_TextureAnimation
.LVL146:
	.loc 1 685 0
	lwz 3,24(3)
.LVL147:
	addi 3,3,1
	bl GL_Bind
	.loc 1 687 0
	li 3,6
	bl glBegin
	.loc 1 690 0
	lwz 0,8(29)
	.loc 1 689 0
	lwz 9,globalVertexTable@l(21)
	.loc 1 690 0
	cmpwi 7,0,0
	.loc 1 689 0
	lwz 31,24(29)
.LVL148:
	.loc 1 690 0
	ble- 7,.L89
	.loc 1 689 0
	mulli 31,31,28
	.loc 1 690 0
	li 30,0
	la 27,qglMultiTexCoord2fARB@l(20)
	.loc 1 689 0
	add 31,9,31
.LVL149:
.L90:
	.loc 1 664 0 discriminator 2
	add 3,30,28
	.loc 1 690 0 discriminator 2
	addi 30,30,1
	.loc 1 692 0 discriminator 2
	mulli 3,3,12
	addis 3,3,0x1
	add 3,25,3
	addi 3,3,-16292
	bl glTexCoord3fv
	.loc 1 693 0 discriminator 2
	lwz 0,0(27)
	li 3,0
	lfs 1,12(31)
	lfs 2,16(31)
	mtctr 0
	ori 3,3,33985
	bctrl
	.loc 1 694 0 discriminator 2
	mr 3,31
	bl glVertex3fv
.LVL150:
	.loc 1 690 0 discriminator 2
	lwz 0,8(29)
	addi 31,31,28
.LVL151:
	cmpw 7,0,30
	bgt+ 7,.L90
.LVL152:
.L89:
	.loc 1 696 0
	bl glEnd
	lwz 9,144(22)
	.loc 1 677 0
	addi 26,26,1
	.loc 1 697 0
	lwz 0,16(24)
	.loc 1 677 0
	cmpw 7,9,26
	addi 24,24,92
	.loc 1 697 0
	add 28,28,0
.LVL153:
	.loc 1 677 0
	bgt+ 7,.L91
.LVL154:
.L86:
	.loc 1 699 0
	lwz 0,60(1)
	lwz 20,8(1)
	mtlr 0
	lwz 21,12(1)
	lwz 22,16(1)
.LVL155:
	lwz 23,20(1)
	lwz 24,24(1)
	lwz 25,28(1)
.LVL156:
	lwz 26,32(1)
	lwz 27,36(1)
	lwz 28,40(1)
	lwz 29,44(1)
	lwz 30,48(1)
	lwz 31,52(1)
	addi 1,1,56
.LCFI55:
	.cfi_def_cfa_offset 0
	.cfi_restore 31
	.cfi_restore 30
	.cfi_restore 29
	.cfi_restore 28
	.cfi_restore 27
	.cfi_restore 26
	.cfi_restore 25
	.cfi_restore 24
	.cfi_restore 23
	.cfi_restore 22
	.cfi_restore 21
	.cfi_restore 20
	blr
	.cfi_endproc
.LFE61:
	.size	R_DrawBrushHAV, .-R_DrawBrushHAV
	.align 2
	.globl R_DrawBrushATT
	.type	R_DrawBrushATT, @function
R_DrawBrushATT:
.LFB62:
	.loc 1 710 0
	.cfi_startproc
.LVL157:
	mflr 0
	stwu 1,-56(1)
.LCFI56:
	.cfi_def_cfa_offset 56
	.cfi_register 65, 0
	stw 22,16(1)
	stw 0,60(1)
	stw 25,28(1)
	.loc 1 712 0
	lwz 22,160(3)
	.cfi_offset 25, -28
	.cfi_offset 65, 4
	.cfi_offset 22, -40
.LVL158:
	.loc 1 710 0
	stw 27,36(1)
	.loc 1 722 0
	lwz 9,144(22)
	.loc 1 710 0
	stw 21,12(1)
	.loc 1 722 0
	cmpwi 7,9,0
	.loc 1 710 0
	stw 23,20(1)
	stw 24,24(1)
	stw 26,32(1)
	stw 28,40(1)
	stw 29,44(1)
	stw 30,48(1)
	stw 31,52(1)
	.loc 1 716 0
	lwz 27,264(3)
	.cfi_offset 31, -4
	.cfi_offset 30, -8
	.cfi_offset 29, -12
	.cfi_offset 28, -16
	.cfi_offset 26, -24
	.cfi_offset 24, -32
	.cfi_offset 23, -36
	.cfi_offset 21, -44
	.cfi_offset 27, -20
.LVL159:
	.loc 1 721 0
	lwz 25,208(22)
	lwz 0,140(22)
.LVL160:
	.loc 1 722 0
	ble- 7,.L94
	.loc 1 721 0
	mulli 0,0,92
	.loc 1 710 0
	addis 24,27,0x2
	addi 24,24,-32677
	.loc 1 720 0
	li 23,0
	.loc 1 721 0
	add 25,25,0
	.loc 1 719 0
	li 28,0
	.loc 1 722 0
	li 26,0
	.loc 1 737 0
	lis 21,globalVertexTable@ha
	b .L99
.LVL161:
.L96:
	.loc 1 722 0
	addi 26,26,1
.LVL162:
	addi 25,25,92
.LVL163:
	cmpw 7,9,26
	ble- 7,.L94
.LVL164:
.L99:
	.loc 1 724 0
	lbzu 0,1(24)
	cmpwi 7,0,0
	beq+ 7,.L96
	.loc 1 730 0
	addi 9,23,22548
	.loc 1 726 0
	lwz 29,36(25)
.LVL165:
	.loc 1 730 0
	slwi 9,9,2
	.loc 1 731 0
	addi 23,23,1
	.loc 1 730 0
	add 9,27,9
	lfs 1,12(9)
.LVL166:
	.loc 1 733 0
	fmr 2,1
	fmr 3,1
	fmr 4,1
	bl glColor4f
.LVL167:
	.loc 1 735 0
	li 3,6
	bl glBegin
	.loc 1 738 0
	lwz 0,8(29)
	.loc 1 737 0
	lwz 9,globalVertexTable@l(21)
	.loc 1 738 0
	cmpwi 7,0,0
	.loc 1 737 0
	lwz 30,24(29)
.LVL168:
	.loc 1 738 0
	ble- 7,.L97
	.loc 1 737 0
	mulli 30,30,28
	.loc 1 738 0
	li 31,0
	.loc 1 737 0
	add 30,9,30
.LVL169:
.L98:
	.loc 1 710 0 discriminator 2
	add 3,31,28
	.loc 1 738 0 discriminator 2
	addi 31,31,1
	.loc 1 740 0 discriminator 2
	addi 3,3,9226
	slwi 3,3,3
	add 3,27,3
	addi 3,3,12
	bl glTexCoord2fv
	.loc 1 742 0 discriminator 2
	mr 3,30
	bl glVertex3fv
.LVL170:
	.loc 1 738 0 discriminator 2
	lwz 0,8(29)
	addi 30,30,28
.LVL171:
	cmpw 7,0,31
	bgt+ 7,.L98
.LVL172:
.L97:
	.loc 1 744 0
	bl glEnd
	lwz 9,144(22)
	.loc 1 722 0
	addi 26,26,1
	.loc 1 745 0
	lwz 0,16(25)
	.loc 1 722 0
	cmpw 7,9,26
	addi 25,25,92
	.loc 1 745 0
	add 28,28,0
.LVL173:
	.loc 1 722 0
	bgt+ 7,.L99
.LVL174:
.L94:
	.loc 1 747 0
	lwz 0,60(1)
	lwz 21,12(1)
	mtlr 0
	lwz 22,16(1)
.LVL175:
	lwz 23,20(1)
	lwz 24,24(1)
	lwz 25,28(1)
	lwz 26,32(1)
	lwz 27,36(1)
.LVL176:
	lwz 28,40(1)
	lwz 29,44(1)
	lwz 30,48(1)
	lwz 31,52(1)
	addi 1,1,56
.LCFI57:
	.cfi_def_cfa_offset 0
	.cfi_restore 31
	.cfi_restore 30
	.cfi_restore 29
	.cfi_restore 28
	.cfi_restore 27
	.cfi_restore 26
	.cfi_restore 25
	.cfi_restore 24
	.cfi_restore 23
	.cfi_restore 22
	.cfi_restore 21
	blr
	.cfi_endproc
.LFE62:
	.size	R_DrawBrushATT, .-R_DrawBrushATT
	.align 2
	.globl R_DrawBrushWV
	.type	R_DrawBrushWV, @function
R_DrawBrushWV:
.LFB63:
	.loc 1 756 0
	.cfi_startproc
.LVL177:
	mflr 0
	stwu 1,-56(1)
.LCFI58:
	.cfi_def_cfa_offset 56
	.cfi_register 65, 0
	mfcr 12
	stw 31,52(1)
	stw 0,60(1)
	stw 24,24(1)
	.loc 1 758 0
	lwz 31,160(3)
	.cfi_offset 24, -32
	.cfi_offset 65, 4
	.cfi_offset 31, -4
	.cfi_register 70, 12
.LVL178:
	.loc 1 756 0
	stw 25,28(1)
	.loc 1 769 0
	lwz 9,144(31)
	.loc 1 756 0
	stw 22,16(1)
	.loc 1 769 0
	cmpwi 7,9,0
	.loc 1 756 0
	stw 23,20(1)
	stw 26,32(1)
	stw 27,36(1)
	stw 28,40(1)
	stw 29,44(1)
	stw 30,48(1)
	stw 12,12(1)
	.loc 1 762 0
	lwz 24,264(3)
.LVL179:
	.loc 1 768 0
	lwz 25,208(31)
	.cfi_offset 70, -44
	.cfi_offset 30, -8
	.cfi_offset 29, -12
	.cfi_offset 28, -16
	.cfi_offset 27, -20
	.cfi_offset 26, -24
	.cfi_offset 23, -36
	.cfi_offset 22, -40
	.cfi_offset 25, -28
	lwz 0,140(31)
.LVL180:
	.loc 1 769 0
	ble- 7,.L102
.LVL181:
	.loc 1 768 0
	mulli 0,0,92
	.loc 1 756 0
	addis 24,24,0x2
	.loc 1 777 0
	cmpwi 4,4,0
	.loc 1 756 0
	addi 24,24,-32677
	.loc 1 768 0
	add 25,25,0
	.loc 1 769 0
	li 26,0
	.loc 1 784 0
	lis 23,globalVertexTable@ha
	lis 22,qglMultiTexCoord2fARB@ha
	b .L109
.LVL182:
.L104:
	.loc 1 769 0
	addi 26,26,1
.LVL183:
	addi 25,25,92
.LVL184:
	cmpw 7,9,26
	ble- 7,.L102
.LVL185:
.L109:
	.loc 1 771 0
	lbzu 0,1(24)
	cmpwi 7,0,0
	beq+ 7,.L104
	.loc 1 776 0
	lwz 9,48(25)
	.loc 1 773 0
	lwz 28,36(25)
.LVL186:
	.loc 1 776 0
	lwz 3,36(9)
	bl R_TextureAnimation
.LVL187:
	.loc 1 778 0
	lwz 3,24(3)
.LVL188:
	.loc 1 777 0
	beq- 4,.L105
	.loc 1 778 0
	addi 3,3,1
	bl GL_Bind
.L106:
	.loc 1 782 0
	li 3,6
	bl glBegin
	.loc 1 785 0
	lwz 0,8(28)
	.loc 1 784 0
	lwz 9,globalVertexTable@l(23)
	.loc 1 785 0
	cmpwi 7,0,0
	.loc 1 784 0
	lwz 30,24(28)
.LVL189:
	.loc 1 785 0
	ble- 7,.L107
	.loc 1 784 0
	mulli 30,30,28
	.loc 1 785 0
	li 29,0
	la 27,qglMultiTexCoord2fARB@l(22)
	.loc 1 784 0
	add 30,9,30
.LVL190:
.L108:
	.loc 1 787 0 discriminator 2
	mr 3,30
	.loc 1 785 0 discriminator 2
	addi 29,29,1
	.loc 1 787 0 discriminator 2
	bl glTexCoord3fv
	.loc 1 788 0 discriminator 2
	lwz 0,0(27)
	li 3,0
	lfs 1,12(30)
	lfs 2,16(30)
	mtctr 0
	ori 3,3,33985
	bctrl
	.loc 1 789 0 discriminator 2
	mr 3,30
	bl glVertex3fv
.LVL191:
	.loc 1 785 0 discriminator 2
	lwz 0,8(28)
	addi 30,30,28
.LVL192:
	cmpw 7,0,29
	bgt+ 7,.L108
.LVL193:
.L107:
	.loc 1 791 0
	bl glEnd
	lwz 9,144(31)
	.loc 1 769 0
	addi 26,26,1
.LVL194:
	addi 25,25,92
.LVL195:
	cmpw 7,9,26
	bgt+ 7,.L109
.LVL196:
.L102:
	.loc 1 794 0
	lwz 0,60(1)
	lwz 12,12(1)
	mtlr 0
	lwz 22,16(1)
	lwz 23,20(1)
	mtcrf 8,12
	lwz 24,24(1)
	lwz 25,28(1)
	lwz 26,32(1)
	lwz 27,36(1)
	lwz 28,40(1)
	lwz 29,44(1)
	lwz 30,48(1)
	lwz 31,52(1)
.LVL197:
	addi 1,1,56
	.cfi_remember_state
.LCFI59:
	.cfi_def_cfa_offset 0
	.cfi_restore 70
	.cfi_restore 31
	.cfi_restore 30
	.cfi_restore 29
	.cfi_restore 28
	.cfi_restore 27
	.cfi_restore 26
	.cfi_restore 25
	.cfi_restore 24
	.cfi_restore 23
	.cfi_restore 22
	blr
.LVL198:
.L105:
.LCFI60:
	.cfi_restore_state
	.loc 1 780 0
	bl GL_Bind
	b .L106
	.cfi_endproc
.LFE63:
	.size	R_DrawBrushWV, .-R_DrawBrushWV
	.align 2
	.globl R_DrawBrushObjectLight
	.type	R_DrawBrushObjectLight, @function
R_DrawBrushObjectLight:
.LFB64:
	.loc 1 805 0
	.cfi_startproc
.LVL199:
	stwu 1,-32(1)
.LCFI61:
	.cfi_def_cfa_offset 32
	mflr 0
	stw 30,24(1)
	.loc 1 812 0
	lis 30,currentshadowlight@ha
	.cfi_offset 30, -8
	.cfi_register 65, 0
	.loc 1 805 0
	stw 0,36(1)
	.loc 1 815 0
	li 0,-1
	.cfi_offset 65, 4
	.loc 1 812 0
	lwz 9,currentshadowlight@l(30)
	.loc 1 805 0
	stw 27,12(1)
	stw 28,16(1)
	.loc 1 812 0
	lwz 27,0(9)
	.cfi_offset 28, -16
	.cfi_offset 27, -20
.LVL200:
	lwz 28,4(9)
.LVL201:
	.loc 1 805 0
	stw 29,20(1)
	.loc 1 812 0
	lwz 29,8(9)
	.cfi_offset 29, -12
.LVL202:
	.loc 1 814 0
	lis 9,currententity@ha
	.loc 1 805 0
	stw 31,28(1)
	mr 31,3
	.cfi_offset 31, -4
	.loc 1 814 0
	stw 3,currententity@l(9)
	.loc 1 815 0
	lis 9,currenttexture@ha
	stw 0,currenttexture@l(9)
.LVL203:
	.loc 1 805 0
	stw 26,8(1)
	.loc 1 805 0
	mr 26,4
	.cfi_offset 26, -24
	.loc 1 819 0
	bl glPushMatrix
.LVL204:
	.loc 1 820 0
	lfs 0,148(31)
	.loc 1 821 0
	mr 3,31
	.loc 1 820 0
	fneg 0,0
	stfs 0,148(31)
	.loc 1 821 0
	bl R_RotateForEntity
	.loc 1 822 0
	lfs 0,148(31)
	.loc 1 824 0
	mr 3,31
	mtctr 26
	.loc 1 822 0
	fneg 0,0
	stfs 0,148(31)
	.loc 1 824 0
	bctrl
	.loc 1 826 0
	lwz 9,currentshadowlight@l(30)
	stw 27,0(9)
	stw 28,4(9)
	stw 29,8(9)
	.loc 1 827 0
	bl glPopMatrix
	.loc 1 828 0
	lwz 0,36(1)
	lwz 26,8(1)
.LVL205:
	mtlr 0
	lwz 27,12(1)
.LVL206:
	lwz 28,16(1)
.LVL207:
	lwz 29,20(1)
.LVL208:
	lwz 30,24(1)
	lwz 31,28(1)
.LVL209:
	addi 1,1,32
.LCFI62:
	.cfi_def_cfa_offset 0
	.cfi_restore 31
	.cfi_restore 30
	.cfi_restore 29
	.cfi_restore 28
	.cfi_restore 27
	.cfi_restore 26
	blr
	.cfi_endproc
.LFE64:
	.size	R_DrawBrushObjectLight, .-R_DrawBrushObjectLight
	.align 2
	.globl R_DrawAliasFrameLLV
	.type	R_DrawAliasFrameLLV, @function
R_DrawAliasFrameLLV:
.LFB65:
	.loc 1 831 0
	.cfi_startproc
.LVL210:
	.loc 1 840 0
	lis 9,cl+568@ha
	.loc 1 831 0
	mflr 0
	.loc 1 840 0
	lfd 13,cl+568@l(9)
	lis 9,.LC14@ha
	lfs 0,.LC14@l(9)
	.loc 1 841 0
	lis 9,currententity@ha
	.loc 1 831 0
	stwu 1,-32(1)
.LCFI63:
	.cfi_def_cfa_offset 32
	.cfi_register 65, 0
	.loc 1 840 0
	fmul 0,13,0
	.loc 1 841 0
	lwz 9,currententity@l(9)
	.loc 1 831 0
	stw 0,36(1)
	.loc 1 840 0
	addi 11,1,8
	.loc 1 831 0
	stw 29,20(1)
	stw 30,24(1)
	.loc 1 840 0
	fctiwz 0,0
	.loc 1 831 0
	stw 31,28(1)
	.loc 1 841 0
	lwz 0,184(9)
	.cfi_offset 31, -4
	.cfi_offset 30, -8
	.cfi_offset 29, -12
	.cfi_offset 65, 4
	.loc 1 831 0
	mr 9,3
	mr 31,4
	.loc 1 840 0
	stfiwx 0,0,11
	.loc 1 841 0
	slwi 0,0,2
	.loc 1 840 0
	lwz 11,8(1)
	.loc 1 836 0
	lwz 29,140(3)
	.loc 1 840 0
	rlwinm 11,11,0,30,31
	.loc 1 841 0
	add 11,0,11
	.loc 1 836 0
	add 29,9,29
	.loc 1 841 0
	addi 11,11,36
	slwi 11,11,2
	add 11,3,11
	lwz 3,4(11)
.LVL211:
	.loc 1 834 0
	addis 11,4,0x2
	lwz 30,44(11)
.LVL212:
	.loc 1 841 0
	addi 3,3,1
	bl GL_Bind
.LVL213:
	.loc 1 843 0
	addi 6,31,44
	li 4,5126
	li 5,0
	li 3,3
	.loc 1 846 0
	lis 31,qglClientActiveTextureARB@ha
.LVL214:
	.loc 1 843 0
	bl glVertexPointer
.LVL215:
	.loc 1 844 0
	li 3,0
	ori 3,3,32884
	bl glEnableClientState
	.loc 1 846 0
	lwz 0,qglClientActiveTextureARB@l(31)
	li 3,0
	mtctr 0
	ori 3,3,33984
	bctrl
	.loc 1 847 0
	addi 6,30,24672
	li 4,5126
	li 5,0
	li 3,3
	bl glTexCoordPointer
	.loc 1 848 0
	li 3,0
	ori 3,3,32888
	bl glEnableClientState
	.loc 1 850 0
	lwz 0,qglClientActiveTextureARB@l(31)
	li 3,0
	mtctr 0
	ori 3,3,33985
	bctrl
	.loc 1 851 0
	mr 6,29
	li 4,5126
	li 5,0
	li 3,2
	bl glTexCoordPointer
	.loc 1 852 0
	li 3,0
	ori 3,3,32888
	bl glEnableClientState
	.loc 1 854 0
	addis 6,30,0x2
	lwz 4,-6048(6)
	li 5,5125
	addi 6,6,-30624
	li 3,4
	mulli 4,4,3
	bl glDrawElements
	.loc 1 865 0
	li 3,0
	ori 3,3,32884
	bl glDisableClientState
	.loc 1 866 0
	li 3,0
	ori 3,3,32888
	bl glDisableClientState
	.loc 1 867 0
	lwz 0,qglClientActiveTextureARB@l(31)
	li 3,0
	mtctr 0
	ori 3,3,33984
	bctrl
	.loc 1 868 0
	li 3,0
	ori 3,3,32888
	bl glDisableClientState
	.loc 1 869 0
	lwz 0,36(1)
	lwz 29,20(1)
.LVL216:
	mtlr 0
	lwz 30,24(1)
.LVL217:
	lwz 31,28(1)
	addi 1,1,32
.LCFI64:
	.cfi_def_cfa_offset 0
	.cfi_restore 31
	.cfi_restore 30
	.cfi_restore 29
	blr
	.cfi_endproc
.LFE65:
	.size	R_DrawAliasFrameLLV, .-R_DrawAliasFrameLLV
	.align 2
	.globl R_DrawAliasFrameHAV
	.type	R_DrawAliasFrameHAV, @function
R_DrawAliasFrameHAV:
.LFB66:
	.loc 1 872 0
	.cfi_startproc
.LVL218:
	.loc 1 881 0
	lis 9,cl+568@ha
	.loc 1 872 0
	mflr 0
	.loc 1 881 0
	lfd 13,cl+568@l(9)
	lis 9,.LC14@ha
	lfs 0,.LC14@l(9)
	.loc 1 882 0
	lis 9,currententity@ha
	.loc 1 872 0
	stwu 1,-32(1)
.LCFI65:
	.cfi_def_cfa_offset 32
	.cfi_register 65, 0
	.loc 1 881 0
	fmul 0,13,0
	.loc 1 882 0
	lwz 9,currententity@l(9)
	.loc 1 872 0
	stw 0,36(1)
	.loc 1 881 0
	addi 11,1,8
	.loc 1 872 0
	stw 29,20(1)
	stw 30,24(1)
	.loc 1 881 0
	fctiwz 0,0
	.loc 1 872 0
	stw 31,28(1)
	.loc 1 882 0
	lwz 0,184(9)
	.cfi_offset 31, -4
	.cfi_offset 30, -8
	.cfi_offset 29, -12
	.cfi_offset 65, 4
	.loc 1 872 0
	mr 9,3
	mr 31,4
	.loc 1 881 0
	stfiwx 0,0,11
	.loc 1 882 0
	slwi 0,0,2
	.loc 1 881 0
	lwz 11,8(1)
	.loc 1 877 0
	lwz 29,140(3)
	.loc 1 881 0
	rlwinm 11,11,0,30,31
	.loc 1 882 0
	add 11,0,11
	.loc 1 877 0
	add 29,9,29
	.loc 1 882 0
	addi 11,11,36
	slwi 11,11,2
	add 11,3,11
	lwz 3,4(11)
.LVL219:
	.loc 1 875 0
	addis 11,4,0x2
	lwz 30,44(11)
.LVL220:
	.loc 1 882 0
	addi 3,3,1
	bl GL_Bind
.LVL221:
	.loc 1 884 0
	addi 6,31,44
	li 4,5126
	li 5,0
	li 3,3
	.loc 1 887 0
	lis 31,qglClientActiveTextureARB@ha
.LVL222:
	.loc 1 884 0
	bl glVertexPointer
.LVL223:
	.loc 1 885 0
	li 3,0
	ori 3,3,32884
	bl glEnableClientState
	.loc 1 887 0
	lwz 0,qglClientActiveTextureARB@l(31)
	li 3,0
	mtctr 0
	ori 3,3,33984
	bctrl
	.loc 1 888 0
	addis 6,30,0x1
	li 4,5126
	li 5,0
	addi 6,6,-16288
	li 3,3
	bl glTexCoordPointer
	.loc 1 889 0
	li 3,0
	ori 3,3,32888
	bl glEnableClientState
	.loc 1 891 0
	lwz 0,qglClientActiveTextureARB@l(31)
	li 3,0
	mtctr 0
	ori 3,3,33985
	bctrl
	.loc 1 892 0
	mr 6,29
	li 4,5126
	li 5,0
	li 3,2
	bl glTexCoordPointer
	.loc 1 893 0
	li 3,0
	ori 3,3,32888
	bl glEnableClientState
	.loc 1 895 0
	addis 6,30,0x2
	lwz 4,-6048(6)
	li 5,5125
	addi 6,6,-30624
	li 3,4
	mulli 4,4,3
	bl glDrawElements
	.loc 1 906 0
	li 3,0
	ori 3,3,32884
	bl glDisableClientState
	.loc 1 907 0
	li 3,0
	ori 3,3,32888
	bl glDisableClientState
	.loc 1 908 0
	lwz 0,qglClientActiveTextureARB@l(31)
	li 3,0
	mtctr 0
	ori 3,3,33984
	bctrl
	.loc 1 909 0
	li 3,0
	ori 3,3,32888
	bl glDisableClientState
	.loc 1 911 0
	lwz 0,36(1)
	lwz 29,20(1)
.LVL224:
	mtlr 0
	lwz 30,24(1)
.LVL225:
	lwz 31,28(1)
	addi 1,1,32
.LCFI66:
	.cfi_def_cfa_offset 0
	.cfi_restore 31
	.cfi_restore 30
	.cfi_restore 29
	blr
	.cfi_endproc
.LFE66:
	.size	R_DrawAliasFrameHAV, .-R_DrawAliasFrameHAV
	.align 2
	.globl R_DrawAliasFrameWV
	.type	R_DrawAliasFrameWV, @function
R_DrawAliasFrameWV:
.LFB67:
	.loc 1 921 0
	.cfi_startproc
.LVL226:
	.loc 1 930 0
	lis 9,cl+568@ha
	.loc 1 921 0
	mflr 0
	.loc 1 930 0
	lfd 13,cl+568@l(9)
	lis 9,.LC14@ha
	lfs 0,.LC14@l(9)
	.loc 1 925 0
	addis 9,4,0x2
	.loc 1 921 0
	stwu 1,-48(1)
.LCFI67:
	.cfi_def_cfa_offset 48
	.cfi_register 65, 0
	.loc 1 931 0
	cmpwi 7,5,0
	.loc 1 930 0
	fmul 0,13,0
	.loc 1 921 0
	stw 0,52(1)
	stw 26,24(1)
	.loc 1 925 0
	lwz 26,44(9)
	.cfi_offset 26, -24
	.cfi_offset 65, 4
.LVL227:
	.loc 1 930 0
	addi 9,1,8
.LVL228:
	fctiwz 0,0
	.loc 1 921 0
	stw 25,20(1)
	stw 29,36(1)
	mr 29,3
	.cfi_offset 29, -12
	.cfi_offset 25, -28
	stw 30,40(1)
	mr 30,4
	.cfi_offset 30, -8
	stw 27,28(1)
	stw 28,32(1)
	stw 31,44(1)
	.loc 1 930 0
	stfiwx 0,0,9
	.loc 1 932 0
	lis 9,currententity@ha
	lwz 9,currententity@l(9)
	.loc 1 930 0
	lwz 0,8(1)
	.loc 1 932 0
	lwz 9,184(9)
	.loc 1 930 0
	rlwinm 0,0,0,30,31
	.loc 1 927 0
	lwz 25,140(3)
.LVL229:
	.loc 1 932 0
	slwi 9,9,2
	add 9,9,0
	addi 9,9,36
	slwi 9,9,2
	add 9,3,9
	lwz 3,4(9)
.LVL230:
	.loc 1 931 0
	beq- 7,.L116
	.cfi_offset 31, -4
	.cfi_offset 28, -16
	.cfi_offset 27, -20
	.loc 1 932 0
	addi 3,3,1
	bl GL_Bind
.LVL231:
.L117:
	.loc 1 936 0
	addi 27,30,44
	li 4,5126
	li 5,0
	mr 6,27
	li 3,3
	.loc 1 939 0
	lis 31,qglClientActiveTextureARB@ha
	.loc 1 936 0
	bl glVertexPointer
	.loc 1 937 0
	li 3,0
	ori 3,3,32884
	.loc 1 943 0
	lis 28,gl_cardtype@ha
	.loc 1 937 0
	bl glEnableClientState
	.loc 1 939 0
	lwz 0,qglClientActiveTextureARB@l(31)
	li 3,0
	mtctr 0
	ori 3,3,33984
	bctrl
	.loc 1 940 0
	li 3,3
	li 4,5126
	li 5,0
	mr 6,27
	bl glTexCoordPointer
	.loc 1 941 0
	li 3,0
	ori 3,3,32888
	bl glEnableClientState
	.loc 1 943 0
	lwz 0,gl_cardtype@l(28)
	cmplwi 7,0,1
	ble- 7,.L120
.L118:
	.loc 1 956 0
	addis 6,26,0x2
	li 3,4
	lwz 4,-6048(6)
	li 5,5125
	addi 6,6,-30624
	mulli 4,4,3
	bl glDrawElements
	.loc 1 967 0
	lwz 0,gl_cardtype@l(28)
	cmplwi 7,0,1
	ble- 7,.L121
.L119:
	.loc 1 973 0
	lwz 0,qglClientActiveTextureARB@l(31)
	li 3,0
	ori 3,3,33984
	mtctr 0
	bctrl
	.loc 1 974 0
	li 3,0
	ori 3,3,32884
	bl glDisableClientState
	.loc 1 975 0
	li 3,0
	ori 3,3,32888
	bl glDisableClientState
	.loc 1 976 0
	lwz 0,52(1)
	lwz 25,20(1)
.LVL232:
	mtlr 0
	lwz 26,24(1)
.LVL233:
	lwz 27,28(1)
	lwz 28,32(1)
	lwz 29,36(1)
.LVL234:
	lwz 30,40(1)
.LVL235:
	lwz 31,44(1)
	addi 1,1,48
	.cfi_remember_state
.LCFI68:
	.cfi_def_cfa_offset 0
	.cfi_restore 31
	.cfi_restore 30
	.cfi_restore 29
	.cfi_restore 28
	.cfi_restore 27
	.cfi_restore 26
	.cfi_restore 25
	blr
.LVL236:
.L116:
.LCFI69:
	.cfi_restore_state
	.loc 1 934 0
	bl GL_Bind
.LVL237:
	b .L117
.L121:
	.loc 1 968 0
	li 3,0
	ori 3,3,32885
	bl glDisableClientState
	.loc 1 969 0
	li 3,0
	ori 3,3,32888
	bl glDisableClientState
	.loc 1 970 0
	li 3,0
	ori 3,3,32886
	bl glDisableClientState
	b .L119
.L120:
	.loc 1 945 0
	lwz 0,qglClientActiveTextureARB@l(31)
	li 3,0
	ori 3,3,33985
	mtctr 0
	bctrl
	.loc 1 946 0
	add 6,29,25
	li 4,5126
	li 5,0
	li 3,2
	bl glTexCoordPointer
	.loc 1 947 0
	li 3,0
	ori 3,3,32888
	bl glEnableClientState
	.loc 1 949 0
	addi 5,30,24620
	li 4,0
	li 3,5126
	bl glNormalPointer
	.loc 1 950 0
	li 3,0
	ori 3,3,32885
	bl glEnableClientState
	.loc 1 952 0
	li 3,0
	ori 3,3,32886
	bl glEnableClientState
	.loc 1 953 0
	addis 6,26,0x1
	li 3,3
	li 4,5126
	li 5,0
	addi 6,6,8288
	bl glColorPointer
	b .L118
	.cfi_endproc
.LFE67:
	.size	R_DrawAliasFrameWV, .-R_DrawAliasFrameWV
	.align 2
	.globl PrintScreenPos
	.type	PrintScreenPos, @function
PrintScreenPos:
.LFB68:
	.loc 1 978 0
	.cfi_startproc
.LVL238:
	stwu 1,-320(1)
.LCFI70:
	.cfi_def_cfa_offset 320
	mflr 0
	stw 31,316(1)
	.loc 1 985 0
	addi 4,1,48
	.loc 1 978 0
	mr 31,3
	.cfi_offset 31, -4
	.cfi_register 65, 0
	.loc 1 985 0
	li 3,2982
.LVL239:
	.loc 1 978 0
	stw 0,324(1)
	.loc 1 985 0
	.cfi_offset 65, 4
	crxor 6,6,6
	bl gxgl_glGetDoublev
	.loc 1 986 0
	addi 4,1,176
	li 3,2983
	crxor 6,6,6
	bl gxgl_glGetDoublev
	.loc 1 987 0
	addi 4,1,32
	li 3,2978
	bl glGetIntegerv
	.loc 1 988 0
	lfs 1,0(31)
	lfs 2,4(31)
	addi 4,1,176
	lfs 3,8(31)
	addi 5,1,32
	addi 6,1,24
	addi 7,1,16
	addi 8,1,8
	addi 3,1,48
	bl gluProject
.LVL240:
	.loc 1 990 0
	lfd 1,24(1)
.LVL241:
	lfd 2,16(1)
	lis 3,.LC15@ha
.LVL242:
	lfd 3,8(1)
	la 3,.LC15@l(3)
	creqv 6,6,6
	bl Con_Printf
	.loc 1 991 0
	lwz 0,324(1)
	lwz 31,316(1)
.LVL243:
	mtlr 0
	addi 1,1,320
.LCFI71:
	.cfi_def_cfa_offset 0
	.cfi_restore 31
	blr
	.cfi_endproc
.LFE68:
	.size	PrintScreenPos, .-PrintScreenPos
	.align 2
	.globl R_DrawAliasObjectLight
	.type	R_DrawAliasObjectLight, @function
R_DrawAliasObjectLight:
.LFB69:
	.loc 1 1002 0
	.cfi_startproc
.LVL244:
	stwu 1,-48(1)
.LCFI72:
	.cfi_def_cfa_offset 48
	mflr 0
	.loc 1 1012 0
	lis 9,currententity@ha
	.loc 1 1002 0
	stw 26,24(1)
	mr 26,3
	.cfi_offset 26, -24
	.cfi_register 65, 0
	.loc 1 1012 0
	stw 3,currententity@l(9)
	.loc 1 1002 0
	stw 0,52(1)
	stw 4,8(1)
	stw 27,28(1)
	stw 28,32(1)
	stw 31,44(1)
	stw 25,20(1)
	stw 29,36(1)
	stw 30,40(1)
	.loc 1 1017 0
	.cfi_offset 30, -8
	.cfi_offset 29, -12
	.cfi_offset 25, -28
	.cfi_offset 31, -4
	.cfi_offset 28, -16
	.cfi_offset 27, -20
	.cfi_offset 65, 4
	bl glPushMatrix
.LVL245:
	.loc 1 1018 0
	mr 3,26
	bl R_RotateForEntity
	.loc 1 1023 0
	lwz 3,160(26)
	bl Mod_Extradata
	.loc 1 1025 0
	lwz 31,260(26)
	.loc 1 1024 0
	lwz 27,0(3)
	.loc 1 1023 0
	mr 28,3
.LVL246:
	.loc 1 1027 0
	cmpwi 7,27,0
	ble- 7,.L124
	.loc 1 1031 0
	cmpwi 7,31,0
	.loc 1 1029 0
	lwz 9,4(3)
.LVL247:
	.loc 1 1031 0
	beq- 7,.L125
	.loc 1 1029 0
	add 9,3,9
	.loc 1 1001 0
	addi 29,3,4
	.loc 1 1027 0
	li 30,0
	.loc 1 1046 0
	lis 25,currentshadowlight@ha
	b .L127
.LVL248:
.L132:
	.loc 1 1029 0
	lwzu 9,4(29)
	add 9,28,9
.LVL249:
	.loc 1 1031 0
	beq- 6,.L125
.LVL250:
.L127:
	.loc 1 1037 0
	lbz 0,40(31)
	.loc 1 1027 0
	addi 30,30,1
	.loc 1 1052 0
	mr 3,9
	mr 4,31
	.loc 1 1037 0
	cmpwi 7,0,0
	bne- 7,.L129
.LVL251:
	.loc 1 1039 0
	lwz 0,168(26)
	lwz 9,68(9)
	cmpwi 6,0,0
	cmpw 7,0,9
	bge- 7,.L124
	.loc 1 1039 0 is_stmt 0 discriminator 1
	blt- 6,.L124
	.loc 1 1046 0 is_stmt 1
	lwz 9,currentshadowlight@l(25)
	lwz 0,8(9)
	lwz 10,0(9)
	lwz 11,4(9)
	stw 0,2188(9)
	.loc 1 1052 0
	lwz 0,8(1)
	.loc 1 1046 0
	stw 10,2180(9)
	stw 11,2184(9)
	.loc 1 1052 0
	mtctr 0
	bctrl
.LVL252:
	.loc 1 1054 0
	lwz 31,0(31)
.LVL253:
.L129:
	.loc 1 1027 0
	cmpw 7,30,27
	.loc 1 1031 0
	cmpwi 6,31,0
	.loc 1 1027 0
	bne+ 7,.L132
.LVL254:
.L124:
	.loc 1 1058 0
	bl glPopMatrix
	.loc 1 1059 0
	lwz 0,52(1)
	lwz 25,20(1)
	mtlr 0
	lwz 26,24(1)
.LVL255:
	lwz 27,28(1)
.LVL256:
	lwz 28,32(1)
.LVL257:
	lwz 29,36(1)
	lwz 30,40(1)
	lwz 31,44(1)
.LVL258:
	addi 1,1,48
	.cfi_remember_state
.LCFI73:
	.cfi_def_cfa_offset 0
	.cfi_restore 31
	.cfi_restore 30
	.cfi_restore 29
	.cfi_restore 28
	.cfi_restore 27
	.cfi_restore 26
	.cfi_restore 25
	blr
.LVL259:
.L125:
.LCFI74:
	.cfi_restore_state
	.loc 1 1032 0
	bl glPopMatrix
	.loc 1 1033 0
	lwz 4,160(26)
	lis 3,.LC16@ha
	la 3,.LC16@l(3)
	crxor 6,6,6
	bl Con_Printf
	.loc 1 1059 0
	lwz 0,52(1)
	lwz 25,20(1)
	mtlr 0
	lwz 26,24(1)
.LVL260:
	lwz 27,28(1)
.LVL261:
	lwz 28,32(1)
.LVL262:
	lwz 29,36(1)
	lwz 30,40(1)
	lwz 31,44(1)
.LVL263:
	addi 1,1,48
	.cfi_restore 25
	.cfi_restore 26
	.cfi_restore 27
	.cfi_restore 28
	.cfi_restore 29
	.cfi_restore 30
	.cfi_restore 31
.LCFI75:
	.cfi_def_cfa_offset 0
	blr
	.cfi_endproc
.LFE69:
	.size	R_DrawAliasObjectLight, .-R_DrawAliasObjectLight
	.align 2
	.globl R_DrawSpriteModelWV
	.type	R_DrawSpriteModelWV, @function
R_DrawSpriteModelWV:
.LFB70:
	.loc 1 1072 0
	.cfi_startproc
.LVL264:
	mflr 0
	stwu 1,-88(1)
.LCFI76:
	.cfi_def_cfa_offset 88
	.cfi_register 65, 0
	stw 30,72(1)
	mr 30,3
	.cfi_offset 30, -16
	stw 0,92(1)
	stw 31,76(1)
	stfd 31,80(1)
	stw 27,60(1)
	stw 28,64(1)
	stw 29,68(1)
	.loc 1 1079 0
	.cfi_offset 29, -20
	.cfi_offset 28, -24
	.cfi_offset 27, -28
	.cfi_offset 63, -8
	.cfi_offset 31, -12
	.cfi_offset 65, 4
	bl R_GetSpriteFrame
.LVL265:
	.loc 1 1080 0
	lis 9,currententity@ha
	.loc 1 1079 0
	mr 31,3
.LVL266:
	.loc 1 1080 0
	lwz 3,currententity@l(9)
.LVL267:
	lwz 9,160(3)
.LVL268:
	.loc 1 1082 0
	lwz 9,416(9)
	lwz 0,0(9)
	cmpwi 7,0,3
	beq- 7,.L138
	.loc 1 1091 0
	lis 29,vright@ha
	.loc 1 1090 0
	lis 28,vup@ha
	.loc 1 1091 0
	la 29,vright@l(29)
	.loc 1 1090 0
	la 28,vup@l(28)
.LVL269:
.L136:
	.loc 1 1094 0
	lwz 3,24(31)
	.loc 1 1098 0
	lis 27,qglMultiTexCoord2fARB@ha
	.loc 1 1099 0
	addi 30,30,112
.LVL270:
	.loc 1 1094 0
	bl GL_Bind
	.loc 1 1096 0
	li 3,7
	bl glBegin
	.loc 1 1098 0
	lis 9,.LC7@ha
	lwz 0,qglMultiTexCoord2fARB@l(27)
	li 3,0
	lfs 31,.LC7@l(9)
	lis 9,.LC8@ha
	lfs 1,.LC8@l(9)
	mtctr 0
	fmr 2,31
	ori 3,3,33985
	bctrl
	.loc 1 1099 0
	lfs 1,12(31)
	mr 4,28
	addi 5,1,44
	mr 3,30
	bl VectorMA
	.loc 1 1100 0
	lfs 1,16(31)
	addi 3,1,44
	mr 4,29
	mr 5,3
	bl VectorMA
	.loc 1 1101 0
	addi 3,1,44
	bl glTexCoord3fv
	.loc 1 1102 0
	addi 3,1,44
	bl glVertex3fv
	.loc 1 1104 0
	lis 9,.LC8@ha
	lfs 1,.LC8@l(9)
	li 3,0
	lwz 0,qglMultiTexCoord2fARB@l(27)
	ori 3,3,33985
	fmr 2,1
	mtctr 0
	bctrl
	.loc 1 1105 0
	lfs 1,8(31)
	mr 3,30
	mr 4,28
	addi 5,1,44
	bl VectorMA
	.loc 1 1106 0
	lfs 1,16(31)
	addi 3,1,44
	mr 4,29
	mr 5,3
	bl VectorMA
	.loc 1 1107 0
	addi 3,1,44
	bl glTexCoord3fv
	.loc 1 1108 0
	addi 3,1,44
	bl glVertex3fv
	.loc 1 1110 0
	lwz 0,qglMultiTexCoord2fARB@l(27)
	lis 9,.LC8@ha
	li 3,0
	lfs 2,.LC8@l(9)
	mtctr 0
	fmr 1,31
	ori 3,3,33985
	bctrl
	.loc 1 1111 0
	lfs 1,8(31)
	mr 3,30
	mr 4,28
	addi 5,1,44
	bl VectorMA
	.loc 1 1112 0
	lfs 1,20(31)
	addi 3,1,44
	mr 4,29
	mr 5,3
	bl VectorMA
	.loc 1 1113 0
	addi 3,1,44
	bl glTexCoord3fv
	.loc 1 1114 0
	addi 3,1,44
	bl glVertex3fv
	.loc 1 1116 0
	lwz 0,qglMultiTexCoord2fARB@l(27)
	li 3,0
	fmr 2,31
	mtctr 0
	fmr 1,31
	ori 3,3,33985
	bctrl
	.loc 1 1117 0
	lfs 1,12(31)
	mr 3,30
	mr 4,28
	addi 5,1,44
	bl VectorMA
	.loc 1 1118 0
	lfs 1,20(31)
	addi 3,1,44
	mr 4,29
	mr 5,3
	bl VectorMA
	.loc 1 1119 0
	addi 3,1,44
	bl glTexCoord3fv
	.loc 1 1120 0
	addi 3,1,44
	bl glVertex3fv
	.loc 1 1122 0
	bl glEnd
	.loc 1 1124 0
	lwz 0,92(1)
	lwz 27,60(1)
	mtlr 0
	lwz 28,64(1)
.LVL271:
	lwz 29,68(1)
.LVL272:
	lwz 30,72(1)
.LVL273:
	lwz 31,76(1)
.LVL274:
	lfd 31,80(1)
	addi 1,1,88
	.cfi_remember_state
.LCFI77:
	.cfi_def_cfa_offset 0
	.cfi_restore 63
	.cfi_restore 31
	.cfi_restore 30
	.cfi_restore 29
	.cfi_restore 28
	.cfi_restore 27
	blr
.LVL275:
.L138:
.LCFI78:
	.cfi_restore_state
	.loc 1 1084 0
	addi 3,3,148
	addi 4,1,32
	addi 5,1,20
	addi 6,1,8
	bl AngleVectors
.LVL276:
	.loc 1 1086 0
	addi 29,1,20
.LVL277:
	.loc 1 1085 0
	addi 28,1,8
.LVL278:
	b .L136
	.cfi_endproc
.LFE70:
	.size	R_DrawSpriteModelWV, .-R_DrawSpriteModelWV
	.align 2
	.globl R_DrawWorldBumpedGF
	.type	R_DrawWorldBumpedGF, @function
R_DrawWorldBumpedGF:
.LFB71:
	.loc 1 1139 0
	.cfi_startproc
	stwu 1,-16(1)
.LCFI79:
	.cfi_def_cfa_offset 16
	mflr 0
	stw 31,12(1)
	.loc 1 1141 0
	lis 31,currentshadowlight@ha
	.cfi_offset 31, -4
	.cfi_register 65, 0
	.loc 1 1139 0
	stw 0,20(1)
	.loc 1 1141 0
	lwz 9,currentshadowlight@l(31)
	lbz 0,44(9)
	.cfi_offset 65, 4
	cmpwi 7,0,0
	beq+ 7,.L139
	.loc 1 1144 0
	li 3,0
	bl glDepthMask
	.loc 1 1145 0
	li 3,7425
	bl glShadeModel
	.loc 1 1208 0
	li 5,1
	li 6,0
	li 3,1
	li 4,1
	bl glColorMask
	.loc 1 1209 0
	li 4,1
	li 3,1
	bl glBlendFunc
	.loc 1 1210 0
	li 3,3042
	bl glEnable
	.loc 1 1214 0
	lwz 3,currentshadowlight@l(31)
	addi 3,3,12
	bl glColor3fv
	.loc 1 1215 0
	li 3,0
	bl GL_EnableColorShader
	.loc 1 1216 0
	lwz 9,currentshadowlight@l(31)
	li 4,0
	lwz 3,2116(9)
	bl R_DrawWorldWV
	.loc 1 1217 0
	li 3,0
	bl GL_DisableColorShader
	.loc 1 1276 0
	lis 9,.LC7@ha
	lfs 1,.LC7@l(9)
	fmr 2,1
	fmr 3,1
	bl glColor3f
	.loc 1 1277 0
	li 3,3042
	bl glDisable
	.loc 1 1278 0
	li 3,770
	li 4,771
	bl glBlendFunc
	.loc 1 1279 0
	li 3,1
	bl glDepthMask
.L139:
	.loc 1 1280 0
	lwz 0,20(1)
	lwz 31,12(1)
	mtlr 0
	addi 1,1,16
.LCFI80:
	.cfi_def_cfa_offset 0
	.cfi_restore 31
	blr
	.cfi_endproc
.LFE71:
	.size	R_DrawWorldBumpedGF, .-R_DrawWorldBumpedGF
	.align 2
	.globl R_DrawWorldBumpedGEN
	.type	R_DrawWorldBumpedGEN, @function
R_DrawWorldBumpedGEN:
.LFB72:
	.loc 1 1282 0
	.cfi_startproc
	.loc 1 1284 0
	.loc 1 1283 0
	b R_DrawWorldBumpedGF
	.cfi_endproc
.LFE72:
	.size	R_DrawWorldBumpedGEN, .-R_DrawWorldBumpedGEN
	.align 2
	.globl R_DrawAliasBumped
	.type	R_DrawAliasBumped, @function
R_DrawAliasBumped:
.LFB73:
	.loc 1 1381 0
	.cfi_startproc
.LVL279:
	stwu 1,-16(1)
.LCFI81:
	.cfi_def_cfa_offset 16
	mflr 0
	.loc 1 1402 0
	li 5,1
	li 6,0
	.loc 1 1381 0
	stw 30,8(1)
	mr 30,3
	.cfi_offset 30, -8
	.cfi_register 65, 0
	stw 31,12(1)
	.loc 1 1402 0
	li 3,1
.LVL280:
	.loc 1 1381 0
	mr 31,4
	.cfi_offset 31, -4
	.loc 1 1402 0
	li 4,1
.LVL281:
	.loc 1 1381 0
	stw 0,20(1)
	.loc 1 1402 0
	.cfi_offset 65, 4
	bl glColorMask
	.loc 1 1403 0
	li 4,1
	li 3,1
	bl glBlendFunc
	.loc 1 1404 0
	li 3,3042
	bl glEnable
	.loc 1 1408 0
	li 3,0
	bl GL_EnableColorShader
	.loc 1 1409 0
	mr 3,30
	mr 4,31
	li 5,0
	bl R_DrawAliasFrameWV
	.loc 1 1455 0
	lwz 0,20(1)
	lwz 30,8(1)
.LVL282:
	.loc 1 1410 0
	li 3,0
	.loc 1 1455 0
	lwz 31,12(1)
.LVL283:
	mtlr 0
	addi 1,1,16
.LCFI82:
	.cfi_def_cfa_offset 0
	.cfi_restore 31
	.cfi_restore 30
	.loc 1 1410 0
	b GL_DisableColorShader
	.cfi_endproc
.LFE73:
	.size	R_DrawAliasBumped, .-R_DrawAliasBumped
	.comm	object_vieworg,12,4
	.comm	causticschain,4,4
	.section	.rodata
	.align 2
	.set	.LANCHOR0,. + 0
.LC0:
	.long	1061158912
	.long	1061158912
	.long	1061158912
	.section	.rodata.cst4,"aM",@progbits,4
	.align 2
.LC1:
	.4byte	1191538688
.LC2:
	.4byte	1169690624
.LC3:
	.4byte	1173358592
.LC4:
	.4byte	1191540736
.LC5:
	.4byte	1191620352
.LC6:
	.4byte	1174667264
.LC7:
	.4byte	1065353216
.LC8:
	.4byte	0
.LC10:
	.4byte	1501560836
.LC12:
	.4byte	1132396544
.LC14:
	.4byte	1092616192
	.section	.rodata.str1.4,"aMS",@progbits,1
	.align 2
.LC15:
	.string	"Pos: %f %f %f\n"
	.zero	1
.LC16:
	.string	"R_DrawAliasObjectLight: missing instant for ent %s\n"
	.section	".text"
.Letext0:
	.file 2 "d:/Data/Nintendo/TenebraeGX/src/common.h"
	.file 3 "d:/Data/Nintendo/TenebraeGX/src/bspfile.h"
	.file 4 "d:/Data/Nintendo/TenebraeGX/src/vid.h"
	.file 5 "d:/Data/Nintendo/TenebraeGX/src/zone.h"
	.file 6 "d:/Data/Nintendo/TenebraeGX/src/mathlib.h"
	.file 7 "d:/Data/Nintendo/TenebraeGX/src/quakedef.h"
	.file 8 "d:/Data/Nintendo/TenebraeGX/src/sound.h"
	.file 9 "d:/Data/Nintendo/TenebraeGX/src/render.h"
	.file 10 "d:/Data/Nintendo/TenebraeGX/src/gl_model.h"
	.file 11 "d:/Data/Nintendo/TenebraeGX/src/glquake.h"
	.file 12 "d:/Data/Nintendo/TenebraeGX/src/client.h"
	.file 13 "d:/Data/Nintendo/TenebraeGX/src/modelgen.h"
	.file 14 "d:/Data/Nintendo/TenebraeGX/src/spritegn.h"
	.file 15 "d:/Data/Nintendo/TenebraeGX/src/world.h"
	.file 16 "d:/Data/Nintendo/TenebraeGX/gl2gx/include/GL/gl.h"
	.file 17 "d:/Data/Nintendo/TenebraeGX/gl2gx/include/GL/glext.h"
	.file 18 "d:/Data/Nintendo/TenebraeGX/src/gl_md3.h"
	.file 19 "c:/utils/devkitPro/libogc/include/ogc/gx.h"