	.file	"gl_brushinstant.c"
	.section	".text"
.Ltext0:
	.cfi_sections	.debug_frame
	.align 2
	.globl BINST_InitMem
	.type	BINST_InitMem, @function
BINST_InitMem:
.LFB38:
	.file 1 "d:/Data/Nintendo/TenebraeGX/src/gl_brushinstant.c"
	.loc 1 47 0
	.cfi_startproc
	mflr 0
	stwu 1,-16(1)
.LCFI0:
	.cfi_def_cfa_offset 16
	.cfi_register 65, 0
	stw 30,8(1)
	stw 0,20(1)
	stw 31,12(1)
	.loc 1 49 0
	.cfi_offset 31, -4
	.cfi_offset 65, 4
	.cfi_offset 30, -8
	bl SYS_GetArena2Lo
	bl align32
	mr 31,3
.LVL0:
	.loc 1 50 0
	lis 3,.LC0@ha
.LVL1:
	mr 4,31
	la 3,.LC0@l(3)
	.loc 1 52 0
	addis 30,31,0x26
	.loc 1 50 0
	crxor 6,6,6
	bl Sys_Printf
	.loc 1 52 0
	addi 30,30,-30560
.LVL2:
	.loc 1 53 0
	lis 3,.LC1@ha
	mr 4,30
	.loc 1 51 0
	lis 9,BLightInstantCache@ha
	.loc 1 53 0
	la 3,.LC1@l(3)
	.loc 1 51 0
	stw 31,BLightInstantCache@l(9)
	.loc 1 53 0
	crxor 6,6,6
	bl Sys_Printf
	.loc 1 55 0
	mr 3,30
	bl align32
.LVL3:
	.loc 1 56 0
	crxor 6,6,6
	bl SYS_SetArena2Lo
	.loc 1 58 0
	lwz 0,20(1)
	lwz 30,8(1)
	mtlr 0
	lwz 31,12(1)
	addi 1,1,16
.LCFI1:
	.cfi_def_cfa_offset 0
	.cfi_restore 31
	.cfi_restore 30
	blr
	.cfi_endproc
.LFE38:
	.size	BINST_InitMem, .-BINST_InitMem
	.align 2
	.globl R_AllocateBrushLightInstant
	.type	R_AllocateBrushLightInstant, @function
R_AllocateBrushLightInstant:
.LFB39:
	.loc 1 65 0
	.cfi_startproc
.LVL4:
	.loc 1 88 0
	lis 9,BLightInstantCache@ha
	.loc 1 71 0
	lis 11,currentshadowlight@ha
	.loc 1 88 0
	lwz 9,BLightInstantCache@l(9)
	.loc 1 65 0
	li 8,24
	.loc 1 71 0
	lwz 0,currentshadowlight@l(11)
	.loc 1 65 0
	mtctr 8
	.loc 1 71 0
	mr 5,9
	.loc 1 65 0
	mr 11,9
	b .L5
.LVL5:
.L3:
	.loc 1 71 0
	addi 11,8,-28580
	.loc 1 70 0
	bdz .L15
.L5:
	.loc 1 71 0
	lwz 10,56(11)
	addis 8,11,0x2
	cmpw 7,10,3
	mr 10,11
	bne+ 7,.L3
	.loc 1 71 0 is_stmt 0 discriminator 1
	lwz 11,60(11)
	cmpw 7,11,0
	bne+ 7,.L3
	.loc 1 97 0 is_stmt 1
	mr 3,10
.LVL6:
	blr
.LVL7:
.L15:
	.loc 1 81 0
	li 8,24
	.loc 1 79 0
	lis 11,r_framecount@ha
	.loc 1 81 0
	mtctr 8
	.loc 1 79 0
	lwz 7,r_framecount@l(11)
.LVL8:
	.loc 1 80 0
	li 6,-1
	.loc 1 79 0
	mr 11,9
.LVL9:
	.loc 1 81 0
	li 10,0
.LVL10:
.L7:
	.loc 1 82 0
	lwz 8,0(11)
	.loc 1 81 0
	addis 11,11,0x2
	addi 11,11,-28580
	.loc 1 82 0
	cmpw 7,8,7
	bge- 7,.L6
	mr 6,10
	mr 7,8
.LVL11:
.L6:
	.loc 1 81 0
	addi 10,10,1
.LVL12:
	bdnz .L7
	.loc 1 88 0
	cmpwi 7,6,-1
	beq- 7,.L16
.LVL13:
.L8:
	.loc 1 96 0
	lis 10,0x1
	.loc 1 97 0
	.loc 1 96 0
	ori 10,10,36956
	mullw 10,6,10
	add 10,9,10
	.loc 1 97 0
	mr 3,10
.LVL14:
	blr
.LVL15:
.L16:
	.loc 1 88 0
	li 10,24
.LVL16:
	mtctr 10
	b .L9
.L17:
	.loc 1 90 0
	bdz .L8
.L9:
	.loc 1 91 0
	lwz 10,60(5)
	addis 11,5,0x2
	cmpw 7,0,10
	mr 10,5
	addi 5,11,-28580
	beq+ 7,.L17
	.loc 1 97 0
	mr 3,10
.LVL17:
	blr
	.cfi_endproc
.LFE39:
	.size	R_AllocateBrushLightInstant, .-R_AllocateBrushLightInstant
	.align 2
	.globl R_ClearBrushInstantCaches
	.type	R_ClearBrushInstantCaches, @function
R_ClearBrushInstantCaches:
.LFB40:
	.loc 1 100 0
	.cfi_startproc
.LVL18:
	.loc 1 100 0
	lis 9,BLightInstantCache@ha
	li 11,0
	lwz 10,BLightInstantCache@l(9)
	.loc 1 104 0
	li 9,24
	mtctr 9
	.loc 1 105 0
	li 0,0
.LVL19:
.L19:
	.loc 1 105 0 is_stmt 0 discriminator 2
	mr 9,10
	stwux 0,9,11
	.loc 1 106 0 is_stmt 1 discriminator 2
	addis 11,11,0x2
	addi 11,11,-28580
	stw 0,56(9)
	.loc 1 104 0 discriminator 2
	bdnz .L19
	.loc 1 108 0
	blr
	.cfi_endproc
.LFE40:
	.size	R_ClearBrushInstantCaches, .-R_ClearBrushInstantCaches
	.align 2
	.globl R_SetupBrushObjectSpace
	.type	R_SetupBrushObjectSpace, @function
R_SetupBrushObjectSpace:
.LFB41:
	.loc 1 110 0
	.cfi_startproc
.LVL20:
	mflr 0
	stwu 1,-120(1)
.LCFI2:
	.cfi_def_cfa_offset 120
	.cfi_register 65, 0
	stw 29,108(1)
	mr 29,3
	.cfi_offset 29, -12
	stw 0,124(1)
	stw 30,112(1)
	.loc 1 117 0
	lfs 0,148(3)
	.loc 1 110 0
	stw 31,116(1)
	.loc 1 110 0
	mr 31,4
	.cfi_offset 31, -4
	.cfi_offset 30, -8
	.cfi_offset 65, 4
	.loc 1 117 0
	fneg 0,0
	.loc 1 118 0
	addi 4,1,40
.LVL21:
	.loc 1 117 0
	stfs 0,148(3)
	.loc 1 118 0
	bl R_WorldToObjectMatrix
.LVL22:
	.loc 1 119 0
	lfs 0,148(29)
	.loc 1 121 0
	lis 9,currentshadowlight@ha
	.loc 1 125 0
	addi 3,1,24
	.loc 1 121 0
	lwz 10,currentshadowlight@l(9)
	.loc 1 119 0
	fneg 0,0
	.loc 1 125 0
	addi 4,1,40
	addi 5,1,8
	.loc 1 121 0
	lwz 11,0(10)
	.loc 1 122 0
	lwz 9,4(10)
	.loc 1 123 0
	lwz 0,8(10)
	.loc 1 124 0
	lis 10,.LC2@ha
	lwz 30,.LC2@l(10)
	.loc 1 119 0
	stfs 0,148(29)
	.loc 1 121 0
	stw 11,24(1)
	.loc 1 122 0
	stw 9,28(1)
	.loc 1 123 0
	stw 0,32(1)
	.loc 1 124 0
	stw 30,36(1)
	.loc 1 125 0
	bl Mat_Mul_1x4_4x4
	.loc 1 130 0
	lis 10,r_refdef@ha
	.loc 1 134 0
	addi 3,1,24
	.loc 1 130 0
	la 10,r_refdef@l(10)
	.loc 1 134 0
	addi 4,1,40
	.loc 1 132 0
	lwz 0,120(10)
	.loc 1 134 0
	addi 5,1,8
	.loc 1 130 0
	lwz 11,112(10)
	.loc 1 131 0
	lwz 9,116(10)
	.loc 1 126 0
	lwz 10,8(1)
	.loc 1 132 0
	stw 0,32(1)
	.loc 1 126 0
	stw 10,64(31)
	.loc 1 127 0
	lwz 10,12(1)
	.loc 1 133 0
	stw 30,36(1)
	.loc 1 127 0
	stw 10,68(31)
	.loc 1 128 0
	lwz 10,16(1)
	.loc 1 130 0
	stw 11,24(1)
	.loc 1 128 0
	stw 10,72(31)
	.loc 1 131 0
	stw 9,28(1)
	.loc 1 134 0
	bl Mat_Mul_1x4_4x4
	.loc 1 135 0
	lwz 0,8(1)
	.loc 1 138 0
	lwz 29,108(1)
.LVL23:
	.loc 1 135 0
	stw 0,76(31)
	.loc 1 136 0
	lwz 0,12(1)
	.loc 1 138 0
	lwz 30,112(1)
	.loc 1 136 0
	stw 0,80(31)
	.loc 1 137 0
	lwz 0,16(1)
	stw 0,84(31)
	.loc 1 138 0
	lwz 0,124(1)
	lwz 31,116(1)
.LVL24:
	mtlr 0
	addi 1,1,120
.LCFI3:
	.cfi_def_cfa_offset 0
	.cfi_restore 31
	.cfi_restore 30
	.cfi_restore 29
	blr
	.cfi_endproc
.LFE41:
	.size	R_SetupBrushObjectSpace, .-R_SetupBrushObjectSpace
	.align 2
	.globl bdist
	.type	bdist, @function
bdist:
.LFB42:
	.loc 1 146 0
	.cfi_startproc
.LVL25:
	mflr 0
	stwu 1,-24(1)
.LCFI4:
	.cfi_def_cfa_offset 24
	.cfi_register 65, 0
	.loc 1 148 0
	lfs 12,0(4)
	lfs 13,4(4)
	.loc 1 146 0
	stw 0,28(1)
	.loc 1 148 0
	lfs 0,8(4)
	lfs 9,0(3)
	lfs 10,4(3)
	lfs 11,8(3)
	fsubs 12,9,12
	fsubs 13,10,13
	.loc 1 149 0
	addi 3,1,8
.LVL26:
	.loc 1 148 0
	fsubs 0,11,0
	stfs 12,8(1)
	stfs 13,12(1)
	stfs 0,16(1)
	.loc 1 149 0
	.cfi_offset 65, 4
	bl Length
.LVL27:
	.loc 1 150 0
	lwz 0,28(1)
	addi 1,1,24
.LCFI5:
	.cfi_def_cfa_offset 0
	mtlr 0
	blr
	.cfi_endproc
.LFE42:
	.size	bdist, .-bdist
	.align 2
	.globl CheckBrushLightUpdate
	.type	CheckBrushLightUpdate, @function
CheckBrushLightUpdate:
.LFB43:
	.loc 1 152 0
	.cfi_startproc
.LVL28:
	.loc 1 163 0
	lis 9,sh_nocache+12@ha
	.loc 1 152 0
	mflr 0
	.loc 1 163 0
	lfs 13,sh_nocache+12@l(9)
	lis 9,.LC5@ha
	lfs 0,.LC5@l(9)
	.loc 1 152 0
	stwu 1,-32(1)
.LCFI6:
	.cfi_def_cfa_offset 32
	.cfi_register 65, 0
	.loc 1 163 0
	fcmpu 7,13,0
	.loc 1 152 0
	stw 0,36(1)
	mr 0,3
	.cfi_offset 65, 4
	stw 31,20(1)
	.loc 1 163 0
	li 3,1
.LVL29:
	.loc 1 152 0
	stfd 31,24(1)
	mr 31,4
	.cfi_offset 63, -8
	.cfi_offset 31, -12
	stw 29,12(1)
	stw 30,16(1)
	.loc 1 163 0
	bne- 7,.L24
	.cfi_offset 30, -16
	.cfi_offset 29, -20
	.loc 1 167 0
	lwz 30,56(4)
	cmpw 7,30,0
	beq- 7,.L35
.LVL30:
.L25:
	.loc 1 180 0
	lis 9,atest@ha
	.loc 1 181 0
	li 3,1
	.loc 1 180 0
	lwz 11,atest@l(9)
	addi 0,11,-1
	stw 0,atest@l(9)
.L24:
	.loc 1 183 0
	lwz 0,36(1)
	lwz 29,12(1)
	mtlr 0
	lwz 30,16(1)
	lwz 31,20(1)
.LVL31:
	lfd 31,24(1)
	addi 1,1,32
	.cfi_remember_state
.LCFI7:
	.cfi_def_cfa_offset 0
	.cfi_restore 63
	.cfi_restore 31
	.cfi_restore 30
	.cfi_restore 29
	blr
.LVL32:
.L35:
.LCFI8:
	.cfi_restore_state
	.loc 1 167 0 discriminator 1
	lis 29,currentshadowlight@ha
	.loc 1 168 0 discriminator 1
	lwz 4,60(4)
.LVL33:
	.loc 1 167 0 discriminator 1
	lwz 0,currentshadowlight@l(29)
.LVL34:
	cmpw 7,4,0
	bne+ 7,.L25
	.loc 1 169 0
	addi 3,31,16
	bl bdist
	.loc 1 168 0
	lis 9,.LC3@ha
	lfd 31,.LC3@l(9)
	fcmpu 7,1,31
	bnl+ 7,.L25
	.loc 1 170 0
	addi 3,31,4
	addi 4,30,112
	bl bdist
	.loc 1 169 0
	fcmpu 7,1,31
	bnl+ 7,.L25
	.loc 1 171 0
	addi 3,31,28
	addi 4,30,148
	bl bdist
	.loc 1 170 0
	lis 9,.LC4@ha
	lfs 0,.LC4@l(9)
	fcmpu 7,1,0
	bnl- 7,.L25
	.loc 1 172 0
	lwz 9,currentshadowlight@l(29)
	lfs 13,52(31)
	lfs 0,36(9)
	fsubs 0,13,0
	fabs 0,0
	.loc 1 171 0
	fcmpu 7,0,31
	cror 30,28,30
	bne- 7,.L25
	.loc 1 172 0
	lbz 9,89(31)
	lbz 0,88(31)
	cmpw 7,9,0
	bne+ 7,.L25
	.loc 1 174 0
	lis 9,r_framecount@ha
	lwz 0,r_framecount@l(9)
	.loc 1 173 0
	lwz 9,0(31)
	.loc 1 174 0
	addic 0,0,-10
	.loc 1 173 0
	cmpw 7,9,0
	blt+ 7,.L25
	.loc 1 177 0
	lis 9,atest@ha
	.loc 1 178 0
	li 3,0
	.loc 1 177 0
	lwz 0,atest@l(9)
	addic 0,0,1
	stw 0,atest@l(9)
	.loc 1 178 0
	b .L24
	.cfi_endproc
.LFE43:
	.size	CheckBrushLightUpdate, .-CheckBrushLightUpdate
	.align 2
	.globl CheckBrushHalfAngle
	.type	CheckBrushHalfAngle, @function
CheckBrushHalfAngle:
.LFB44:
	.loc 1 186 0
	.cfi_startproc
.LVL35:
	mflr 0
	stwu 1,-8(1)
.LCFI9:
	.cfi_def_cfa_offset 8
	.cfi_register 65, 0
	.loc 1 187 0
	lis 4,r_refdef+112@ha
	addi 3,3,40
.LVL36:
	la 4,r_refdef+112@l(4)
	.loc 1 186 0
	stw 0,12(1)
	.loc 1 187 0
	.cfi_offset 65, 4
	bl bdist
.LVL37:
	lis 9,.LC4@ha
	lfs 0,.LC4@l(9)
	.loc 1 189 0
	lis 9,atest@ha
	lwz 11,atest@l(9)
	.loc 1 187 0
	fcmpu 7,1,0
	blt- 7,.L42
	.loc 1 192 0
	addi 0,11,-1
	.loc 1 193 0
	li 3,1
	.loc 1 192 0
	stw 0,atest@l(9)
	.loc 1 195 0
	lwz 0,12(1)
	addi 1,1,8
	.cfi_remember_state
.LCFI10:
	.cfi_def_cfa_offset 0
	mtlr 0
	blr
.L42:
.LCFI11:
	.cfi_restore_state
	.loc 1 189 0
	addi 0,11,1
	.loc 1 190 0
	li 3,0
	.loc 1 189 0
	stw 0,atest@l(9)
	.loc 1 195 0
	lwz 0,12(1)
	addi 1,1,8
.LCFI12:
	.cfi_def_cfa_offset 0
	mtlr 0
	blr
	.cfi_endproc
.LFE44:
	.size	CheckBrushHalfAngle, .-CheckBrushHalfAngle
	.align 2
	.globl R_IsVisibleSurf
	.type	R_IsVisibleSurf, @function
R_IsVisibleSurf:
.LFB45:
	.loc 1 201 0
	.cfi_startproc
.LVL38:
	stwu 1,-24(1)
.LCFI13:
	.cfi_def_cfa_offset 24
	.loc 1 201 0
	mr 9,3
	.loc 1 207 0
	lwz 0,8(3)
	.loc 1 208 0
	li 3,0
.LVL39:
	.loc 1 207 0
	andi. 0,0,20
	bne- 0,.L44
	.loc 1 213 0
	lwz 10,36(9)
	.loc 1 215 0
	lis 11,r_lightTimestamp@ha
	lwz 8,r_lightTimestamp@l(11)
	lwz 7,16(10)
	.loc 1 211 0
	lwz 11,4(9)
.LVL40:
	.loc 1 215 0
	cmpw 7,7,8
	beq- 7,.L58
	.loc 1 221 0
	lbz 0,16(11)
	cmpwi 7,0,1
	beq- 7,.L48
.L62:
	cmplwi 7,0,1
	bge- 7,.L59
	.loc 1 224 0
	lfs 13,64(4)
	lfs 0,12(11)
	fsubs 0,13,0
.LVL41:
.L50:
	.loc 1 238 0
	lwz 0,8(9)
	lis 9,.LC5@ha
.LVL42:
	lfs 13,.LC5@l(9)
	.loc 1 241 0
	li 3,0
	.loc 1 238 0
	andi. 9,0,2
	fcmpu 7,0,13
	bne- 0,.L60
	.loc 1 239 0
	blt- 7,.L44
.L52:
	.loc 1 245 0
	fctiwz 0,0
.LVL43:
	addi 9,1,16
	lis 0,0x4330
	.loc 1 247 0
	li 3,0
	.loc 1 245 0
	stfiwx 0,0,9
	stw 0,8(1)
	lwz 0,16(1)
	srawi 9,0,31
	xor 0,9,0
	subf 0,9,0
	lis 9,.LC7@ha
	xoris 0,0,0x8000
	lfs 0,.LC7@l(9)
	stw 0,12(1)
	lis 9,currentshadowlight@ha
	lwz 9,currentshadowlight@l(9)
	lfd 13,8(1)
	fsub 13,13,0
	lfs 0,36(9)
	frsp 13,13
	fcmpu 7,13,0
	bgt- 7,.L44
	.loc 1 250 0
	stw 8,16(10)
	.loc 1 252 0
	li 3,1
.LVL44:
.L44:
	.loc 1 253 0
	addi 1,1,24
	.cfi_remember_state
.LCFI14:
	.cfi_def_cfa_offset 0
	blr
.LVL45:
.L60:
.LCFI15:
	.cfi_restore_state
	.loc 1 238 0 discriminator 1
	bng+ 7,.L52
	.loc 1 253 0
	addi 1,1,24
	.cfi_remember_state
.LCFI16:
	.cfi_def_cfa_offset 0
	blr
.LVL46:
.L59:
.LCFI17:
	.cfi_restore_state
	.loc 1 221 0
	cmpwi 7,0,2
	beq- 7,.L61
	.loc 1 233 0
	lfs 0,4(11)
	lfs 13,68(4)
	lfs 12,64(4)
	fmuls 13,13,0
	lfs 0,0(11)
	lfs 11,72(4)
	fmadds 12,12,0,13
	lfs 0,8(11)
	lfs 13,12(11)
	fmadds 0,11,0,12
	fsubs 0,0,13
.LVL47:
	.loc 1 234 0
	b .L50
.LVL48:
.L48:
	.loc 1 227 0
	lfs 13,68(4)
	lfs 0,12(11)
	fsubs 0,13,0
.LVL49:
	.loc 1 228 0
	b .L50
.LVL50:
.L58:
	.loc 1 218 0
	stw 0,16(10)
	.loc 1 221 0
	lbz 0,16(11)
	cmpwi 7,0,1
	bne+ 7,.L62
	b .L48
.L61:
	.loc 1 230 0
	lfs 13,72(4)
	lfs 0,12(11)
	fsubs 0,13,0
.LVL51:
	.loc 1 231 0
	b .L50
	.cfi_endproc
.LFE45:
	.size	R_IsVisibleSurf, .-R_IsVisibleSurf
	.align 2
	.globl R_CalcBrushVolumeVerts
	.type	R_CalcBrushVolumeVerts, @function
R_CalcBrushVolumeVerts:
.LFB46:
	.loc 1 255 0
	.cfi_startproc
.LVL52:
	mflr 0
	stwu 1,-104(1)
.LCFI18:
	.cfi_def_cfa_offset 104
	.cfi_register 65, 0
	stw 17,36(1)
	stw 0,108(1)
	stw 26,72(1)
	mr 26,4
	.cfi_offset 26, -32
	.cfi_offset 65, 4
	.cfi_offset 17, -68
	.loc 1 257 0
	lwz 17,160(3)
.LVL53:
	.loc 1 255 0
	stw 30,88(1)
	.loc 1 269 0
	lwz 0,144(17)
	.loc 1 255 0
	stfd 31,96(1)
	.loc 1 269 0
	cmpwi 7,0,0
	.loc 1 255 0
	stw 14,24(1)
	stw 15,28(1)
	stw 16,32(1)
	stw 18,40(1)
	stw 19,44(1)
	stw 20,48(1)
	stw 21,52(1)
	stw 22,56(1)
	stw 23,60(1)
	stw 24,64(1)
	stw 25,68(1)
	stw 27,76(1)
	stw 28,80(1)
	stw 29,84(1)
	stw 31,92(1)
	.loc 1 268 0
	lwz 30,208(17)
	.cfi_offset 31, -12
	.cfi_offset 29, -20
	.cfi_offset 28, -24
	.cfi_offset 27, -28
	.cfi_offset 25, -36
	.cfi_offset 24, -40
	.cfi_offset 23, -44
	.cfi_offset 22, -48
	.cfi_offset 21, -52
	.cfi_offset 20, -56
	.cfi_offset 19, -60
	.cfi_offset 18, -64
	.cfi_offset 16, -72
	.cfi_offset 15, -76
	.cfi_offset 14, -80
	.cfi_offset 63, -8
	.cfi_offset 30, -16
	lwz 9,140(17)
.LVL54:
	.loc 1 269 0
	ble- 7,.L64
.LVL55:
	.loc 1 268 0
	mulli 0,9,92
	.loc 1 255 0
	addis 29,4,0x2
	addi 29,29,-32677
	.loc 1 269 0
	li 31,0
	.loc 1 268 0
	add 30,30,0
.LVL56:
.L65:
	.loc 1 271 0 discriminator 2
	mr 3,30
	mr 4,26
	bl R_IsVisibleSurf
	.loc 1 269 0 discriminator 2
	addi 31,31,1
.LVL57:
	.loc 1 271 0 discriminator 2
	stbu 3,1(29)
	.loc 1 269 0 discriminator 2
	addi 30,30,92
.LVL58:
	lwz 0,144(17)
	cmpw 7,0,31
	bgt+ 7,.L65
.LVL59:
.L64:
	.loc 1 274 0
	lis 20,currentshadowlight@ha
	lwz 9,currentshadowlight@l(20)
	lbz 9,46(9)
	cmpwi 7,9,0
	beq- 7,.L63
.LVL60:
	.loc 1 280 0
	cmpwi 7,0,0
	.loc 1 279 0
	lwz 24,208(17)
	lwz 9,140(17)
.LVL61:
	.loc 1 280 0
	ble- 7,.L63
	.loc 1 279 0
	mulli 9,9,92
	.loc 1 255 0
	addis 16,26,0x2
	addi 16,16,-32677
	.loc 1 280 0
	li 18,0
	.loc 1 279 0
	add 24,24,9
	.loc 1 293 0
	lis 9,.LC5@ha
	lfs 31,.LC5@l(9)
	.loc 1 276 0
	li 15,0
	lis 14,.LC2@ha
	.loc 1 294 0
	lis 19,.LC8@ha
.LVL62:
.L74:
	.loc 1 282 0
	lbzu 9,1(16)
	cmpwi 7,9,0
	beq- 7,.L67
	.loc 1 286 0
	lwz 10,16(24)
	.loc 1 284 0
	lwz 25,36(24)
.LVL63:
	.loc 1 286 0
	cmpwi 7,10,0
	ble- 7,.L68
	.loc 1 255 0
	mulli 31,15,12
	lis 9,globalVertexTable@ha
	la 21,globalVertexTable@l(9)
	lis 9,sh_visiblevolumes@ha
	add 31,26,31
	.loc 1 286 0
	li 29,0
	.loc 1 255 0
	addi 31,31,92
	la 22,sh_visiblevolumes@l(9)
	la 23,.LC2@l(14)
	b .L71
.LVL64:
.L84:
	.loc 1 294 0
	lfs 13,0(23)
	lfs 0,.LC8@l(19)
	fdivs 1,13,1
.LVL65:
	fmuls 1,1,0
	bl VectorScale
.L70:
	.loc 1 298 0
	lfsx 0,27,28
	.loc 1 286 0
	addi 29,29,1
.LVL66:
	.loc 1 298 0
	lfs 13,8(1)
	fadds 0,13,0
	lfs 13,12(1)
	stfs 0,0(31)
	lfs 0,4(30)
	fadds 0,13,0
	lfs 13,16(1)
	stfs 0,4(31)
	lfs 0,8(30)
	fadds 0,13,0
	stfs 0,8(31)
	.loc 1 286 0
	addi 31,31,12
	lwz 10,16(24)
	cmpw 7,10,29
	ble- 7,.L83
.LVL67:
.L71:
	.loc 1 289 0
	lwz 28,24(25)
	.loc 1 291 0
	addi 3,1,8
	.loc 1 289 0
	lwz 27,0(21)
	add 28,29,28
	.loc 1 290 0
	lfs 0,64(26)
	.loc 1 289 0
	mulli 28,28,28
	.loc 1 290 0
	lfs 13,68(26)
	lfsx 12,27,28
	.loc 1 289 0
	add 30,27,28
.LVL68:
	.loc 1 290 0
	fsubs 12,12,0
	lfs 0,72(26)
	stfs 12,8(1)
	lfs 12,4(30)
	fsubs 13,12,13
	stfs 13,12(1)
	lfs 13,8(30)
	fsubs 0,13,0
	stfs 0,16(1)
	.loc 1 291 0
	bl Length
.LVL69:
	.loc 1 293 0
	lfs 0,12(22)
	.loc 1 294 0
	addi 3,1,8
	mr 4,3
	.loc 1 293 0
	fcmpu 7,0,31
	bne- 7,.L84
	.loc 1 296 0
	lfs 0,0(23)
	addi 3,1,8
	lwz 9,currentshadowlight@l(20)
	mr 4,3
	fdivs 1,0,1
.LVL70:
	lfs 0,36(9)
	fmuls 1,1,0
	fadds 1,1,1
	bl VectorScale
	b .L70
.LVL71:
.L83:
	.loc 1 302 0
	cmpwi 7,10,0
	ble- 7,.L82
	.loc 1 255 0
	lwz 8,20(25)
	.loc 1 310 0
	mtctr 10
	.loc 1 255 0
	li 9,0
	add 6,26,15
	addi 8,8,-4
.LVL72:
.L73:
	.loc 1 305 0
	lwzu 11,4(8)
	.loc 1 255 0
	add 7,6,9
	addis 7,7,0x2
	.loc 1 310 0
	li 0,1
	.loc 1 305 0
	cmpwi 7,11,0
	.loc 1 302 0
	addi 9,9,1
	.loc 1 305 0
	beq- 7,.L72
	.loc 1 255 0
	lwz 11,16(11)
	lwz 0,16(25)
	xor 0,11,0
	cntlzw 0,0
	srwi 0,0,5
	xori 0,0,1
.L72:
.LVL73:
	.loc 1 313 0
	stb 0,-30628(7)
	.loc 1 302 0
	bdnz .L73
.LVL74:
.L82:
	lwz 0,144(17)
.LVL75:
.L68:
	.loc 1 315 0
	add 15,15,10
.LVL76:
.L67:
	.loc 1 280 0
	addi 18,18,1
.LVL77:
	addi 24,24,92
.LVL78:
	cmpw 7,0,18
	bgt+ 7,.L74
.LVL79:
.L63:
	.loc 1 317 0
	lwz 0,108(1)
	lwz 14,24(1)
	mtlr 0
	lwz 15,28(1)
	lwz 16,32(1)
	lwz 17,36(1)
.LVL80:
	lwz 18,40(1)
	lwz 19,44(1)
	lwz 20,48(1)
	lwz 21,52(1)
	lwz 22,56(1)
	lwz 23,60(1)
	lwz 24,64(1)
	lwz 25,68(1)
	lwz 26,72(1)
.LVL81:
	lwz 27,76(1)
	lwz 28,80(1)
	lwz 29,84(1)
	lwz 30,88(1)
	lwz 31,92(1)
	lfd 31,96(1)
	addi 1,1,104
.LCFI19:
	.cfi_def_cfa_offset 0
	.cfi_restore 63
	.cfi_restore 31
	.cfi_restore 30
	.cfi_restore 29
	.cfi_restore 28
	.cfi_restore 27
	.cfi_restore 26
	.cfi_restore 25
	.cfi_restore 24
	.cfi_restore 23
	.cfi_restore 22
	.cfi_restore 21
	.cfi_restore 20
	.cfi_restore 19
	.cfi_restore 18
	.cfi_restore 17
	.cfi_restore 16
	.cfi_restore 15
	.cfi_restore 14
	blr
	.cfi_endproc
.LFE46:
	.size	R_CalcBrushVolumeVerts, .-R_CalcBrushVolumeVerts
	.align 2
	.globl R_CalcBrushAttenCoords
	.type	R_CalcBrushAttenCoords, @function
R_CalcBrushAttenCoords:
.LFB47:
	.loc 1 319 0
	.cfi_startproc
.LVL82:
	mflr 0
	stwu 1,-152(1)
.LCFI20:
	.cfi_def_cfa_offset 152
	.cfi_register 65, 0
	stw 24,104(1)
	mr 24,3
	.cfi_offset 24, -48
	stw 0,156(1)
	stw 28,120(1)
	mr 28,4
	.cfi_offset 28, -32
	.cfi_offset 65, 4
	.loc 1 329 0
	lwz 9,160(3)
	.loc 1 319 0
	stw 31,132(1)
	.loc 1 333 0
	lwz 0,144(9)
	.loc 1 319 0
	stfd 30,136(1)
	.loc 1 333 0
	cmpwi 7,0,0
	.loc 1 319 0
	stfd 31,144(1)
	stw 16,72(1)
	stw 17,76(1)
	stw 18,80(1)
	stw 19,84(1)
	stw 20,88(1)
	stw 21,92(1)
	stw 22,96(1)
	stw 23,100(1)
	stw 25,108(1)
	stw 26,112(1)
	stw 27,116(1)
	stw 29,124(1)
	stw 30,128(1)
	.loc 1 329 0
	lwz 31,208(9)
	.cfi_offset 30, -24
	.cfi_offset 29, -28
	.cfi_offset 27, -36
	.cfi_offset 26, -40
	.cfi_offset 25, -44
	.cfi_offset 23, -52
	.cfi_offset 22, -56
	.cfi_offset 21, -60
	.cfi_offset 20, -64
	.cfi_offset 19, -68
	.cfi_offset 18, -72
	.cfi_offset 17, -76
	.cfi_offset 16, -80
	.cfi_offset 63, -8
	.cfi_offset 62, -16
	.cfi_offset 31, -20
	lwz 0,140(9)
.LVL83:
	.loc 1 333 0
	ble- 7,.L85
	.loc 1 329 0
	mulli 0,0,92
	.loc 1 368 0
	lis 11,.LC5@ha
	.loc 1 319 0
	addis 29,4,0x2
	.loc 1 368 0
	lfs 30,.LC5@l(11)
	.loc 1 329 0
	add 31,31,0
	.loc 1 319 0
	addi 29,29,-32677
	.loc 1 332 0
	li 25,0
	.loc 1 331 0
	li 27,0
	.loc 1 333 0
	li 30,0
	.loc 1 361 0
	lis 17,0x4330
	lis 18,.LC7@ha
	.loc 1 363 0
	addi 19,4,64
	.loc 1 365 0
	lis 20,currentshadowlight@ha
	lis 21,.LC9@ha
	lis 22,.LC2@ha
	.loc 1 374 0
	lis 23,globalVertexTable@ha
	lis 16,.LC4@ha
.LVL84:
.L95:
	.loc 1 335 0
	lbzu 0,1(29)
	cmpwi 7,0,0
	beq- 7,.L87
	.loc 1 340 0
	lwz 9,48(31)
	.loc 1 338 0
	lwz 26,36(31)
.LVL85:
	.loc 1 340 0
	lwz 11,8(9)
	.loc 1 341 0
	lwz 0,24(9)
	.loc 1 340 0
	lwz 7,0(9)
	lwz 8,4(9)
	.loc 1 341 0
	lwz 10,16(9)
	.loc 1 340 0
	stw 11,40(1)
	.loc 1 341 0
	stw 0,28(1)
	.loc 1 343 0
	lwz 11,4(31)
.LVL86:
	.loc 1 341 0
	lwz 9,20(9)
	.loc 1 345 0
	lbz 0,16(11)
	.loc 1 340 0
	stw 7,32(1)
	.loc 1 345 0
	cmpwi 7,0,1
	.loc 1 340 0
	stw 8,36(1)
	.loc 1 341 0
	stw 10,20(1)
	stw 9,24(1)
	.loc 1 345 0
	beq- 7,.L90
	cmplwi 7,0,1
	bge- 7,.L102
	.loc 1 348 0
	lfs 13,64(28)
	lfs 0,12(11)
	fsubs 0,13,0
.LVL87:
.L92:
	.loc 1 361 0
	fctiwz 0,0
.LVL88:
	addi 9,1,64
	stw 17,56(1)
	.loc 1 363 0
	mr 3,19
	addi 4,1,32
	addi 5,1,20
	.loc 1 361 0
	stfiwx 0,0,9
	.loc 1 363 0
	addi 6,1,8
	.loc 1 361 0
	lfs 0,.LC7@l(18)
	lwz 0,64(1)
	srawi 11,0,31
	xor 0,11,0
	subf 0,11,0
	xoris 0,0,0x8000
	stw 0,60(1)
	lfd 31,56(1)
	fsub 31,31,0
	.loc 1 363 0
	bl ProjectPlane
.LVL89:
	.loc 1 365 0
	lwz 9,currentshadowlight@l(20)
	lfs 13,.LC2@l(22)
	.loc 1 361 0
	frsp 31,31
.LVL90:
	.loc 1 365 0
	lfs 12,36(9)
	lfs 11,.LC9@l(21)
	.loc 1 366 0
	fdivs 0,31,12
	fsubs 0,13,0
	.loc 1 365 0
	fmsubs 12,12,11,31
	.loc 1 368 0
	fcmpu 7,0,30
	.loc 1 365 0
	fdivs 11,13,12
.LVL91:
	.loc 1 368 0
	bnl- 7,.L93
	lis 9,.LC5@ha
	lfs 0,.LC5@l(9)
.LVL92:
.L93:
	.loc 1 376 0
	lwz 10,8(26)
	.loc 1 370 0
	addi 9,27,22548
	slwi 9,9,2
	.loc 1 371 0
	addi 27,27,1
.LVL93:
	.loc 1 376 0
	cmpwi 7,10,0
	.loc 1 370 0
	add 9,28,9
	stfs 0,12(9)
	.loc 1 374 0
	lwz 0,24(26)
	lwz 9,globalVertexTable@l(23)
.LVL94:
	.loc 1 376 0
	ble- 7,.L103
	.loc 1 374 0
	mulli 8,0,28
	.loc 1 319 0
	addi 11,25,9226
	slwi 11,11,3
	mulli 0,10,28
	.loc 1 374 0
	add 9,9,8
	.loc 1 319 0
	add 11,28,11
	.loc 1 374 0
	lfs 31,8(1)
.LVL95:
	.loc 1 319 0
	addi 11,11,12
	.loc 1 374 0
	lfs 1,12(1)
	.loc 1 319 0
	add 0,9,0
	.loc 1 374 0
	lfs 2,16(1)
	lfs 3,32(1)
	lfs 4,36(1)
	lfs 5,40(1)
	lfs 6,20(1)
	lfs 7,24(1)
	lfs 8,28(1)
	.loc 1 382 0
	lfs 10,.LC4@l(16)
.LVL96:
.L94:
	.loc 1 379 0 discriminator 2
	lfs 12,4(9)
	lfs 13,0(9)
	fsubs 12,12,1
	lfs 0,8(9)
	fsubs 13,13,31
.LVL97:
	.loc 1 376 0 discriminator 2
	addi 9,9,28
	.loc 1 379 0 discriminator 2
	fsubs 0,0,2
.LVL98:
	.loc 1 376 0 discriminator 2
	cmpw 7,9,0
	.loc 1 382 0 discriminator 2
	fmuls 9,12,4
	.loc 1 383 0 discriminator 2
	fmuls 12,12,7
.LVL99:
	.loc 1 382 0 discriminator 2
	fmadds 9,13,3,9
	.loc 1 383 0 discriminator 2
	fmadds 13,13,6,12
.LVL100:
	.loc 1 382 0 discriminator 2
	fmadds 9,0,5,9
	.loc 1 383 0 discriminator 2
	fmadds 0,0,8,13
.LVL101:
	.loc 1 382 0 discriminator 2
	fmadds 9,9,11,10
	.loc 1 383 0 discriminator 2
	fmadds 0,0,11,10
	.loc 1 382 0 discriminator 2
	stfs 9,0(11)
	.loc 1 383 0 discriminator 2
	stfs 0,4(11)
.LVL102:
	.loc 1 376 0 discriminator 2
	addi 11,11,8
	bne+ 7,.L94
	lwz 9,160(24)
.LVL103:
	.loc 1 319 0
	add 25,25,10
.LVL104:
.L87:
	.loc 1 333 0
	lwz 0,144(9)
	addi 30,30,1
.LVL105:
	addi 31,31,92
.LVL106:
	cmpw 7,0,30
	bgt+ 7,.L95
.LVL107:
.L85:
	.loc 1 387 0
	lwz 0,156(1)
	lwz 16,72(1)
	mtlr 0
	lwz 17,76(1)
	lwz 18,80(1)
	lwz 19,84(1)
	lwz 20,88(1)
	lwz 21,92(1)
	lwz 22,96(1)
	lwz 23,100(1)
	lwz 24,104(1)
.LVL108:
	lwz 25,108(1)
	lwz 26,112(1)
	lwz 27,116(1)
	lwz 28,120(1)
.LVL109:
	lwz 29,124(1)
	lwz 30,128(1)
	lwz 31,132(1)
	lfd 30,136(1)
	lfd 31,144(1)
	addi 1,1,152
	.cfi_remember_state
.LCFI21:
	.cfi_def_cfa_offset 0
	.cfi_restore 63
	.cfi_restore 62
	.cfi_restore 31
	.cfi_restore 30
	.cfi_restore 29
	.cfi_restore 28
	.cfi_restore 27
	.cfi_restore 26
	.cfi_restore 25
	.cfi_restore 24
	.cfi_restore 23
	.cfi_restore 22
	.cfi_restore 21
	.cfi_restore 20
	.cfi_restore 19
	.cfi_restore 18
	.cfi_restore 17
	.cfi_restore 16
	blr
.LVL110:
.L102:
.LCFI22:
	.cfi_restore_state
	.loc 1 345 0
	cmpwi 7,0,2
	beq- 7,.L104
	.loc 1 357 0
	lfs 13,68(28)
	lfs 0,4(11)
	lfs 12,64(28)
	fmuls 0,13,0
	lfs 13,0(11)
	lfs 11,72(28)
	fmadds 12,12,13,0
	lfs 13,8(11)
	lfs 0,12(11)
	fmadds 13,11,13,12
	fsubs 0,13,0
.LVL111:
	.loc 1 358 0
	b .L92
.LVL112:
.L90:
	.loc 1 351 0
	lfs 13,68(28)
	lfs 0,12(11)
	fsubs 0,13,0
.LVL113:
	.loc 1 352 0
	b .L92
.LVL114:
.L104:
	.loc 1 354 0
	lfs 13,72(28)
	lfs 0,12(11)
	fsubs 0,13,0
.LVL115:
	.loc 1 355 0
	b .L92
.LVL116:
.L103:
	lwz 9,160(24)
.LVL117:
	b .L87
	.cfi_endproc
.LFE47:
	.size	R_CalcBrushAttenCoords, .-R_CalcBrushAttenCoords
	.align 2
	.globl R_SetupBrushLightHAV
	.type	R_SetupBrushLightHAV, @function
R_SetupBrushLightHAV:
.LFB48:
	.loc 1 390 0
	.cfi_startproc
.LVL118:
	mflr 0
	stwu 1,-112(1)
.LCFI23:
	.cfi_def_cfa_offset 112
	.cfi_register 65, 0
	stfd 29,88(1)
	stw 0,116(1)
	stfd 30,96(1)
	.loc 1 399 0
	lwz 9,160(3)
	.loc 1 390 0
	stfd 31,104(1)
	.loc 1 401 0
	lwz 0,144(9)
	.cfi_offset 63, -8
	.cfi_offset 62, -16
	.cfi_offset 65, 4
	.cfi_offset 61, -24
	.loc 1 390 0
	stw 27,68(1)
	mr 27,4
	.cfi_offset 27, -44
	.loc 1 401 0
	cmpwi 7,0,0
	.loc 1 390 0
	stw 28,72(1)
	stw 31,84(1)
	mr 31,3
	.cfi_offset 31, -28
	.cfi_offset 28, -40
	stw 21,44(1)
	stw 22,48(1)
	stw 23,52(1)
	stw 24,56(1)
	stw 25,60(1)
	stw 26,64(1)
	stw 29,76(1)
	stw 30,80(1)
	.loc 1 398 0
	lfs 31,64(4)
.LVL119:
	lfs 30,68(4)
.LVL120:
	lfs 29,72(4)
.LVL121:
	.loc 1 399 0
	lwz 28,208(9)
	lwz 0,140(9)
.LVL122:
	.loc 1 401 0
	ble- 7,.L105
	.cfi_offset 30, -32
	.cfi_offset 29, -36
	.cfi_offset 26, -48
	.cfi_offset 25, -52
	.cfi_offset 24, -56
	.cfi_offset 23, -60
	.cfi_offset 22, -64
	.cfi_offset 21, -68
	.loc 1 399 0
	mulli 0,0,92
	.loc 1 389 0
	addis 22,4,0x2
	addi 22,22,-32677
	.loc 1 400 0
	li 25,0
	.loc 1 399 0
	add 28,28,0
	.loc 1 401 0
	li 23,0
	.loc 1 409 0
	lis 21,globalVertexTable@ha
.LVL123:
.L113:
	.loc 1 403 0
	lbzu 0,1(22)
	cmpwi 7,0,0
	beq- 7,.L107
	.loc 1 406 0
	lwz 24,36(28)
.LVL124:
	.loc 1 409 0
	lwz 11,globalVertexTable@l(21)
	.loc 1 410 0
	lwz 0,8(24)
	.loc 1 409 0
	lwz 10,24(24)
.LVL125:
	.loc 1 410 0
	cmpwi 7,0,0
	ble- 7,.L107
	.loc 1 389 0
	mulli 30,25,12
	.loc 1 409 0
	lwz 0,8(28)
	mulli 10,10,28
	.loc 1 410 0
	li 26,0
	.loc 1 389 0
	addis 30,30,0x1
	rlwinm 0,0,0,30,30
	add 30,27,30
	.loc 1 409 0
	add 29,11,10
	.loc 1 389 0
	addi 30,30,-16284
	b .L112
.LVL126:
.L117:
	.loc 1 417 0
	fnmadds 11,0,10,11
	stfs 11,-24576(30)
.L109:
	.loc 1 421 0
	lwz 9,48(28)
	.loc 1 425 0
	addi 3,1,20
	.loc 1 422 0
	lfs 10,4(9)
	.loc 1 421 0
	lfs 11,20(9)
	lfs 9,16(9)
	fmuls 11,12,11
	.loc 1 422 0
	fmuls 12,12,10
	lfs 10,0(9)
	.loc 1 421 0
	fmadds 11,13,9,11
	.loc 1 422 0
	fmadds 13,13,10,12
	.loc 1 421 0
	lfs 10,24(9)
	.loc 1 422 0
	lfs 12,8(9)
	.loc 1 421 0
	fnmadds 11,0,10,11
	.loc 1 422 0
	fmadds 0,0,12,13
	.loc 1 421 0
	stfs 11,-24580(30)
	.loc 1 422 0
	stfs 0,-24584(30)
	.loc 1 425 0
	bl VectorNormalize
	.loc 1 427 0
	lfs 0,0(29)
	lfs 13,76(27)
	.loc 1 428 0
	addi 3,1,8
	.loc 1 427 0
	lfs 12,80(27)
	fsubs 0,13,0
	lfs 13,84(27)
	stfs 0,8(1)
	lfs 0,4(29)
	fsubs 0,12,0
	stfs 0,12(1)
	lfs 0,8(29)
	fsubs 0,13,0
	stfs 0,16(1)
	.loc 1 428 0
	bl VectorNormalize
	.loc 1 429 0
	lfs 0,8(1)
	lfs 13,20(1)
	lfs 12,24(1)
	fadds 13,13,0
	lfs 0,12(1)
	lfs 11,28(1)
	fadds 12,12,0
	lfs 0,16(1)
	.loc 1 432 0
	lwz 0,8(28)
	.loc 1 429 0
	fadds 0,11,0
	stfs 13,8(1)
	stfs 12,12(1)
	.loc 1 432 0
	andi. 0,0,2
	.loc 1 429 0
	stfs 0,16(1)
	.loc 1 433 0
	lwz 9,4(28)
	lfs 11,4(9)
	lfs 9,0(9)
	fmuls 11,12,11
	lfs 10,8(9)
	fmadds 11,13,9,11
	.loc 1 432 0
	beq- 0,.L110
	.loc 1 433 0
	fnmadds 11,0,10,11
	stfs 11,0(30)
.L111:
	.loc 1 438 0
	lwz 9,48(28)
	.loc 1 410 0
	addi 26,26,1
	lwz 11,8(24)
	.loc 1 441 0
	addi 25,25,1
.LVL127:
	.loc 1 439 0
	lfs 10,4(9)
	.loc 1 410 0
	addi 29,29,28
.LVL128:
	.loc 1 438 0
	lfs 11,20(9)
	.loc 1 410 0
	cmpw 7,11,26
	.loc 1 438 0
	lfs 9,16(9)
	fmuls 11,12,11
	.loc 1 439 0
	fmuls 12,12,10
	lfs 10,0(9)
	.loc 1 438 0
	fmadds 11,13,9,11
	.loc 1 439 0
	fmadds 13,13,10,12
	.loc 1 438 0
	lfs 10,24(9)
	.loc 1 439 0
	lfs 12,8(9)
	.loc 1 438 0
	fnmadds 11,0,10,11
	.loc 1 439 0
	fmadds 0,0,12,13
	.loc 1 438 0
	stfs 11,-4(30)
	.loc 1 439 0
	stfs 0,-8(30)
	.loc 1 410 0
	addi 30,30,12
	ble- 7,.L116
.LVL129:
.L112:
	.loc 1 413 0
	lfs 13,0(29)
	.loc 1 416 0
	cmpwi 7,0,0
	.loc 1 413 0
	fsubs 13,31,13
	stfs 13,20(1)
	lfs 12,4(29)
	fsubs 12,30,12
	stfs 12,24(1)
	lfs 0,8(29)
	fsubs 0,29,0
	stfs 0,28(1)
	.loc 1 417 0
	lwz 9,4(28)
	lfs 11,4(9)
	lfs 9,0(9)
	fmuls 11,12,11
	lfs 10,8(9)
	fmadds 11,13,9,11
	.loc 1 416 0
	bne- 7,.L117
	.loc 1 419 0
	fmadds 11,0,10,11
	stfs 11,-24576(30)
	b .L109
.L110:
	.loc 1 435 0
	fmadds 11,0,10,11
	stfs 11,0(30)
	b .L111
.LVL130:
.L116:
	lwz 9,160(31)
.LVL131:
.L107:
	.loc 1 401 0
	lwz 0,144(9)
	addi 23,23,1
.LVL132:
	addi 28,28,92
.LVL133:
	cmpw 7,0,23
	bgt+ 7,.L113
.LVL134:
.L105:
	.loc 1 444 0
	lwz 0,116(1)
	lwz 21,44(1)
	mtlr 0
	lwz 22,48(1)
	lwz 23,52(1)
	lwz 24,56(1)
	lwz 25,60(1)
	lwz 26,64(1)
	lwz 27,68(1)
.LVL135:
	lwz 28,72(1)
	lwz 29,76(1)
	lwz 30,80(1)
	lwz 31,84(1)
.LVL136:
	lfd 29,88(1)
.LVL137:
	lfd 30,96(1)
.LVL138:
	lfd 31,104(1)
.LVL139:
	addi 1,1,112
.LCFI24:
	.cfi_def_cfa_offset 0
	.cfi_restore 63
	.cfi_restore 62
	.cfi_restore 61
	.cfi_restore 31
	.cfi_restore 30
	.cfi_restore 29
	.cfi_restore 28
	.cfi_restore 27
	.cfi_restore 26
	.cfi_restore 25
	.cfi_restore 24
	.cfi_restore 23
	.cfi_restore 22
	.cfi_restore 21
	blr
	.cfi_endproc
.LFE48:
	.size	R_SetupBrushLightHAV, .-R_SetupBrushLightHAV
	.align 2
	.globl R_SetupBrushInstantForLight
	.type	R_SetupBrushInstantForLight, @function
R_SetupBrushInstantForLight:
.LFB49:
	.loc 1 447 0
	.cfi_startproc
.LVL140:
	stwu 1,-64(1)
.LCFI25:
	.cfi_def_cfa_offset 64
	mflr 0
	mfcr 12
	stw 30,56(1)
	mr 30,3
	.cfi_offset 30, -8
	.cfi_register 70, 12
	.cfi_register 65, 0
	stw 0,68(1)
	stw 12,40(1)
	stw 31,60(1)
	stw 27,44(1)
	stw 28,48(1)
	stw 29,52(1)
	.loc 1 452 0
	.cfi_offset 29, -12
	.cfi_offset 28, -16
	.cfi_offset 27, -20
	.cfi_offset 31, -4
	.cfi_offset 70, -24
	.cfi_offset 65, 4
	bl R_AllocateBrushLightInstant
.LVL141:
	.loc 1 454 0
	lwz 9,160(30)
	.loc 1 452 0
	mr 31,3
.LVL142:
	.loc 1 454 0
	lfs 12,112(30)
	.loc 1 457 0
	addi 4,1,8
	.loc 1 454 0
	lfs 9,84(9)
	.loc 1 457 0
	addi 3,1,20
.LVL143:
	.loc 1 454 0
	lfs 10,88(9)
	lfs 11,92(9)
	fadds 9,12,9
	.loc 1 455 0
	lfs 6,96(9)
	lfs 7,100(9)
	lfs 8,104(9)
	fadds 12,12,6
	.loc 1 454 0
	lfs 13,116(30)
	lfs 0,120(30)
	fadds 10,13,10
	stfs 9,20(1)
	fadds 11,0,11
	.loc 1 455 0
	stfs 12,8(1)
	fadds 13,13,7
	fadds 0,0,8
	.loc 1 454 0
	stfs 10,24(1)
	stfs 11,28(1)
	.loc 1 455 0
	stfs 13,12(1)
	stfs 0,16(1)
	.loc 1 457 0
	bl R_CullBox
	stb 3,88(31)
	.loc 1 464 0
	mr 4,31
	.loc 1 462 0
	stw 31,264(30)
	.loc 1 464 0
	mr 3,30
	bl R_SetupBrushObjectSpace
	.loc 1 466 0
	mr 3,30
	mr 4,31
	bl CheckBrushLightUpdate
.LVL144:
	.loc 1 467 0
	cmpwi 4,3,0
	bne- 4,.L125
	.loc 1 488 0
	lis 9,brushCacheRequests@ha
	.loc 1 491 0
	mr 3,31
.LVL145:
	.loc 1 488 0
	lwz 11,brushCacheRequests@l(9)
	addi 0,11,1
	stw 0,brushCacheRequests@l(9)
	.loc 1 491 0
	bl CheckBrushHalfAngle
	cmpwi 7,3,0
	beq- 7,.L122
	lbz 0,88(31)
	cmpwi 7,0,0
	.loc 1 492 0
	beq- 7,.L126
.L123:
	.loc 1 494 0
	lis 9,r_refdef@ha
	la 9,r_refdef@l(9)
	lwz 10,112(9)
	lwz 11,116(9)
	lwz 0,120(9)
	stw 10,40(31)
	stw 11,44(31)
	stw 0,48(31)
	.loc 1 496 0
	bne- 4,.L124
	.loc 1 496 0 is_stmt 0 discriminator 1
	lis 9,brushPartialCacheHits@ha
	lwz 11,brushPartialCacheHits@l(9)
	addi 0,11,1
	stw 0,brushPartialCacheHits@l(9)
.L124:
	.loc 1 502 0 is_stmt 1
	lis 9,r_framecount@ha
	.loc 1 503 0
	lwz 12,40(1)
	.loc 1 502 0
	lwz 0,r_framecount@l(9)
	.loc 1 503 0
	lwz 27,44(1)
	mtcrf 8,12
	.loc 1 502 0
	stw 0,0(31)
	.loc 1 503 0
	lwz 0,68(1)
	lwz 28,48(1)
	mtlr 0
	lwz 29,52(1)
	lwz 30,56(1)
.LVL146:
	lwz 31,60(1)
.LVL147:
	addi 1,1,64
	.cfi_remember_state
.LCFI26:
	.cfi_def_cfa_offset 0
	.cfi_restore 70
	.cfi_restore 31
	.cfi_restore 30
	.cfi_restore 29
	.cfi_restore 28
	.cfi_restore 27
	blr
.LVL148:
.L125:
.LCFI27:
	.cfi_restore_state
	.loc 1 469 0
	mr 3,30
.LVL149:
	mr 4,31
	bl R_CalcBrushVolumeVerts
	.loc 1 471 0
	lbz 0,88(31)
	cmpwi 7,0,0
	bne- 7,.L120
	.loc 1 472 0
	lis 9,gl_cardtype@ha
	lwz 9,gl_cardtype@l(9)
	cmplwi 6,9,1
	ble- 6,.L127
.L120:
	.loc 1 480 0
	lis 9,currentshadowlight@ha
	.loc 1 488 0
	lis 11,brushCacheRequests@ha
	.loc 1 480 0
	lwz 9,currentshadowlight@l(9)
	.loc 1 488 0
	lwz 10,brushCacheRequests@l(11)
	.loc 1 480 0
	lwz 12,0(9)
	.loc 1 479 0
	lwz 27,112(30)
	.loc 1 488 0
	addi 10,10,1
	.loc 1 479 0
	lwz 28,116(30)
	lwz 29,120(30)
	.loc 1 480 0
	lwz 3,4(9)
	lwz 4,8(9)
	.loc 1 481 0
	lwz 5,148(30)
	lwz 6,152(30)
	lwz 7,156(30)
	.loc 1 482 0
	lwz 8,36(9)
	.loc 1 488 0
	stw 10,brushCacheRequests@l(11)
	.loc 1 479 0
	stw 27,4(31)
	stw 28,8(31)
	stw 29,12(31)
	.loc 1 480 0
	stw 12,16(31)
	stw 3,20(31)
	stw 4,24(31)
	.loc 1 481 0
	stw 5,28(31)
	stw 6,32(31)
	stw 7,36(31)
	.loc 1 482 0
	stw 8,52(31)
	.loc 1 483 0
	stw 9,60(31)
	.loc 1 484 0
	stw 30,56(31)
	.loc 1 485 0
	stb 0,89(31)
	.loc 1 492 0
	bne+ 7,.L123
.L126:
	.loc 1 493 0
	mr 3,30
	mr 4,31
	bl R_SetupBrushLightHAV
	b .L123
.L122:
	.loc 1 498 0
	lis 9,brushFullCacheHits@ha
	.loc 1 503 0
	lwz 12,40(1)
	.loc 1 498 0
	lwz 11,brushFullCacheHits@l(9)
	.loc 1 503 0
	lwz 27,44(1)
	mtcrf 8,12
	.loc 1 498 0
	addi 0,11,1
	.loc 1 503 0
	lwz 28,48(1)
	.loc 1 498 0
	stw 0,brushFullCacheHits@l(9)
	.loc 1 502 0
	lis 9,r_framecount@ha
	lwz 0,r_framecount@l(9)
	.loc 1 503 0
	lwz 29,52(1)
	.loc 1 502 0
	stw 0,0(31)
	.loc 1 503 0
	lwz 0,68(1)
	lwz 30,56(1)
.LVL150:
	mtlr 0
	lwz 31,60(1)
.LVL151:
	addi 1,1,64
	.cfi_remember_state
	.cfi_restore 27
	.cfi_restore 28
	.cfi_restore 29
	.cfi_restore 30
	.cfi_restore 31
	.cfi_restore 70
.LCFI28:
	.cfi_def_cfa_offset 0
	blr
.LVL152:
.L127:
.LCFI29:
	.cfi_restore_state
	.loc 1 473 0
	mr 3,30
	mr 4,31
	bl R_CalcBrushAttenCoords
	lbz 0,88(31)
	cmpwi 7,0,0
	b .L120
	.cfi_endproc
.LFE49:
	.size	R_SetupBrushInstantForLight, .-R_SetupBrushInstantForLight
	.comm	atest,4,4
	.comm	brushPartialCacheHits,4,4
	.comm	brushFullCacheHits,4,4
	.comm	brushCacheRequests,4,4
	.comm	BLightInstantCache,4,4
	.comm	causticschain,4,4
	.section	.rodata.cst4,"aM",@progbits,4
	.align 2
.LC2:
	.4byte	1065353216
.LC4:
	.4byte	1056964608
.LC5:
	.4byte	0
.LC7:
	.4byte	1501560836
.LC8:
	.4byte	1112014848
.LC9:
	.4byte	1073741824
	.section	.rodata.cst8,"aM",@progbits,8
	.align 3
.LC3:
	.4byte	1069128089
	.4byte	-1717986918
	.section	.rodata.str1.4,"aMS",@progbits,1
	.align 2
.LC0:
	.string	"Allocated BLightInstantCache at %p\n"
.LC1:
	.string	"End at %p\n"
	.section	".text"
.Letext0:
	.file 2 "d:/Data/Nintendo/TenebraeGX/src/common.h"
	.file 3 "d:/Data/Nintendo/TenebraeGX/src/bspfile.h"
	.file 4 "d:/Data/Nintendo/TenebraeGX/src/vid.h"
	.file 5 "d:/Data/Nintendo/TenebraeGX/src/zone.h"
	.file 6 "d:/Data/Nintendo/TenebraeGX/src/mathlib.h"
	.file 7 "d:/Data/Nintendo/TenebraeGX/src/quakedef.h"
	.file 8 "d:/Data/Nintendo/TenebraeGX/src/cvar.h"
	.file 9 "d:/Data/Nintendo/TenebraeGX/src/render.h"
	.file 10 "d:/Data/Nintendo/TenebraeGX/src/gl_model.h"
	.file 11 "d:/Data/Nintendo/TenebraeGX/src/glquake.h"
	.file 12 "d:/Data/Nintendo/TenebraeGX/src/modelgen.h"
	.file 13 "d:/Data/Nintendo/TenebraeGX/src/world.h"
	.file 14 "c:/utils/devkitPro/libogc/include/ogc/gx.h"