	.file	"gl_bumpgxext.c"
	.section	".text"
.Ltext0:
	.cfi_sections	.debug_frame
	.align 2
	.globl R_DrawWorldBumped
	.type	R_DrawWorldBumped, @function
R_DrawWorldBumped:
.LFB38:
	.file 1 "d:/Data/Nintendo/TenebraeGX/src/gl_bumpgxext.c"
	.loc 1 12 0
	.cfi_startproc
.LVL0:
	stwu 1,-96(1)
.LCFI0:
	.cfi_def_cfa_offset 96
	mflr 0
	stw 31,84(1)
	.loc 1 18 0
	lis 31,currentshadowlight@ha
	.cfi_offset 31, -12
	.cfi_register 65, 0
	.loc 1 12 0
	stw 0,100(1)
	.loc 1 18 0
	lwz 3,currentshadowlight@l(31)
	.loc 1 12 0
	stw 30,80(1)
	.loc 1 25 0
	lbz 0,44(3)
	.cfi_offset 30, -16
	.cfi_offset 65, 4
	.loc 1 12 0
	stfd 31,88(1)
	.loc 1 25 0
	cmpwi 7,0,0
	.loc 1 12 0
	stw 20,40(1)
	stw 21,44(1)
	stw 22,48(1)
	stw 23,52(1)
	stw 24,56(1)
	stw 25,60(1)
	stw 26,64(1)
	stw 27,68(1)
	stw 28,72(1)
	stw 29,76(1)
	.loc 1 18 0
	lwz 30,2116(3)
.LVL1:
	.loc 1 25 0
	bne- 7,.L13
	.cfi_offset 29, -20
	.cfi_offset 28, -24
	.cfi_offset 27, -28
	.cfi_offset 26, -32
	.cfi_offset 25, -36
	.cfi_offset 24, -40
	.cfi_offset 23, -44
	.cfi_offset 22, -48
	.cfi_offset 21, -52
	.cfi_offset 20, -56
	.cfi_offset 63, -8
.LVL2:
.L1:
	.loc 1 81 0
	lwz 0,100(1)
	lwz 20,40(1)
	mtlr 0
	lwz 21,44(1)
	lwz 22,48(1)
	lwz 23,52(1)
	lwz 24,56(1)
	lwz 25,60(1)
	lwz 26,64(1)
	lwz 27,68(1)
	lwz 28,72(1)
.LVL3:
	lwz 29,76(1)
	lwz 30,80(1)
.LVL4:
	lwz 31,84(1)
	lfd 31,88(1)
	addi 1,1,96
	.cfi_remember_state
.LCFI1:
	.cfi_def_cfa_offset 0
	.cfi_restore 63
	.cfi_restore 31
	.cfi_restore 30
	.cfi_restore 29
	.cfi_restore 28
	.cfi_restore 27
	.cfi_restore 26
	.cfi_restore 25
	.cfi_restore 24
	.cfi_restore 23
	.cfi_restore 22
	.cfi_restore 21
	.cfi_restore 20
	blr
.LVL5:
.L13:
.LCFI2:
	.cfi_restore_state
	.loc 1 29 0
	lis 4,r_worldentity@ha
	.loc 1 32 0
	lis 26,.LC3@ha
	.loc 1 29 0
	la 4,r_worldentity@l(4)
	bl GX_InitWorldBumpShader
	.loc 1 32 0
	lwz 9,currentshadowlight@l(31)
	lfs 13,.LC3@l(26)
	lwz 0,2124(9)
	lis 9,d_lightstylevalue@ha
	la 9,d_lightstylevalue@l(9)
	slwi 0,0,2
	lwzx 0,9,0
	lis 9,.LC2@ha
	lfs 0,.LC2@l(9)
	.loc 1 33 0
	lis 9,.LC0@ha
	.loc 1 32 0
	xoris 0,0,0x8000
	stw 0,12(1)
	lis 0,0x4330
	stw 0,8(1)
	lfd 31,8(1)
	fsub 31,31,0
	.loc 1 33 0
	lfs 0,.LC0@l(9)
	.loc 1 32 0
	frsp 31,31
	fdivs 31,31,13
.LVL6:
	.loc 1 33 0
	fcmpu 7,31,0
	bgt- 7,.L14
.LVL7:
.L3:
	.loc 1 64 0
	li 31,0
	.loc 1 45 0
	lis 29,r_framecount@ha
	.loc 1 55 0
	lis 22,globalVertexTable@ha
	lis 21,wgPipe@ha
.LVL8:
.L11:
	.loc 1 39 0
	slwi 0,31,2
	lwzx 20,30,0
.LVL9:
	.loc 1 40 0
	cmpwi 7,20,0
	beq- 7,.L1
	.loc 1 43 0
	addi 0,31,1
.LVL10:
	addi 24,31,2
	slwi 0,0,2
	lwzx 27,30,0
.LVL11:
	.loc 1 45 0
	lwz 0,r_framecount@l(29)
.LVL12:
	lwz 9,0(27)
	cmpw 7,9,0
	beq- 7,.L5
.LVL13:
.L15:
	.loc 1 46 0
	lwz 9,36(27)
	lwz 31,8(9)
	mulli 31,31,5
	addi 31,31,4
	add 31,31,24
.LVL14:
	.loc 1 39 0
	slwi 0,31,2
	lwzx 20,30,0
.LVL15:
	.loc 1 40 0
	cmpwi 7,20,0
	beq- 7,.L1
	.loc 1 43 0
	addi 0,31,1
.LVL16:
	addi 24,31,2
	slwi 0,0,2
	lwzx 27,30,0
.LVL17:
	.loc 1 45 0
	lwz 0,r_framecount@l(29)
.LVL18:
	lwz 9,0(27)
	cmpw 7,9,0
	bne+ 7,.L15
.LVL19:
.L5:
	.loc 1 51 0
	lwz 9,48(27)
	.loc 1 58 0
	slwi 24,24,2
.LVL20:
	.loc 1 64 0
	addi 25,31,6
	.loc 1 51 0
	lwz 3,36(9)
	bl R_TextureAnimation
.LVL21:
	.loc 1 52 0
	lwz 4,24(3)
	li 3,0
.LVL22:
	bl GX_BindGLTex
	.loc 1 58 0
	lfsx 12,30,24
	lfs 0,.LC3@l(26)
	addi 11,1,20
	.loc 1 54 0
	lwz 9,36(27)
	.loc 1 62 0
	addi 4,1,16
	.loc 1 58 0
	fmuls 12,12,0
	.loc 1 62 0
	li 3,3
	.loc 1 54 0
	lwz 27,8(9)
.LVL23:
	.loc 1 61 0
	fmuls 13,31,0
	.loc 1 55 0
	lwz 23,24(9)
	.loc 1 58 0
	add 9,30,24
.LVL24:
	fmuls 12,12,31
	.loc 1 61 0
	fctiwz 13,13
	.loc 1 58 0
	fctiwz 12,12
	stfiwx 12,0,11
	.loc 1 59 0
	addi 11,1,24
	lfs 12,4(9)
	.loc 1 58 0
	lwz 0,20(1)
	.loc 1 59 0
	fmuls 12,12,0
	.loc 1 55 0
	lwz 24,globalVertexTable@l(22)
.LVL25:
	.loc 1 58 0
	rlwimi 28,0,24,0,7
	.loc 1 59 0
	fmuls 12,12,31
	fctiwz 12,12
	stfiwx 12,0,11
	.loc 1 60 0
	addi 11,1,28
	lfs 12,8(9)
	.loc 1 61 0
	addi 9,1,32
	.loc 1 59 0
	lwz 0,24(1)
	.loc 1 60 0
	fmuls 0,12,0
	.loc 1 61 0
	stfiwx 13,0,9
	.loc 1 59 0
	rlwimi 28,0,16,8,15
	.loc 1 61 0
	lwz 0,32(1)
	.loc 1 60 0
	fmuls 0,0,31
	fctiwz 0,0
	stfiwx 0,0,11
	lwz 9,28(1)
	rlwimi 28,9,8,16,23
	.loc 1 61 0
	rlwimi 28,0,0,24,31
	.loc 1 62 0
	stw 28,16(1)
	bl GX_SetTevColor
.LVL26:
	.loc 1 66 0
	mr 3,20
	bl GX_AsGXPrimitiveType
	li 4,2
	rlwinm 3,3,0,0xff
	rlwinm 5,27,0,0xffff
	bl GX_Begin
.LVL27:
	.loc 1 67 0
	cmpwi 7,27,0
	ble- 7,.L9
	.loc 1 55 0
	mulli 23,23,28
.LVL28:
	.loc 1 12 0
	slwi 25,25,2
.LVL29:
.LBB20:
.LBB21:
.LBB22:
	.file 2 "c:/utils/devkitPro/libogc/include/ogc/gx.h"
	.loc 2 2123 0
	lwz 9,wgPipe@l(21)
	mtctr 27
.LBE22:
.LBE21:
.LBE20:
	.loc 1 55 0
	add 24,24,23
	.loc 1 12 0
	add 25,30,25
	.loc 1 67 0
	li 11,0
.LVL30:
.L7:
.LBB29:
	.loc 1 69 0 discriminator 2
	lwz 8,0(24)
	lwz 10,4(24)
	lwz 0,8(24)
.LVL31:
.LBB24:
.LBB23:
	.loc 2 2123 0 discriminator 2
	stw 8,0(9)
	.loc 2 2124 0 discriminator 2
	.loc 2 2125 0 discriminator 2
	stw 10,0(9)
	.loc 2 2126 0 discriminator 2
	.loc 2 2127 0 discriminator 2
	stw 0,0(9)
	.loc 2 2128 0 discriminator 2
.LBE23:
.LBE24:
	.loc 1 70 0 discriminator 2
	lwz 10,12(24)
	lwz 0,16(24)
.LVL32:
.LBB25:
.LBB26:
	.loc 2 2323 0 discriminator 2
	stw 10,0(9)
	.loc 2 2324 0 discriminator 2
	.loc 2 2325 0 discriminator 2
	stw 0,0(9)
	.loc 2 2326 0 discriminator 2
.LBE26:
.LBE25:
	.loc 1 71 0 discriminator 2
	lwz 10,0(25)
	lwz 0,4(25)
.LVL33:
.LBB27:
.LBB28:
	.loc 2 2323 0 discriminator 2
	stw 10,0(9)
	.loc 2 2324 0 discriminator 2
	.loc 2 2325 0 discriminator 2
	stw 0,0(9)
	.loc 2 2326 0 discriminator 2
.LBE28:
.LBE27:
.LBE29:
	.loc 1 67 0 discriminator 2
	addi 11,11,1
.LVL34:
	addi 24,24,28
.LVL35:
	addi 25,25,20
.LVL36:
	bdnz .L7
	.loc 1 12 0
	mulli 11,11,5
.LVL37:
	add 31,31,11
	addi 31,31,6
	b .L11
.LVL38:
.L14:
	.loc 1 34 0
	fmr 31,0
.LVL39:
	b .L3
.LVL40:
.L9:
	.loc 1 64 0
	mr 31,25
	b .L11
	.cfi_endproc
.LFE38:
	.size	R_DrawWorldBumped, .-R_DrawWorldBumped
	.align 2
	.globl R_DrawBrushBumped
	.type	R_DrawBrushBumped, @function
R_DrawBrushBumped:
.LFB39:
	.loc 1 91 0
	.cfi_startproc
.LVL41:
	mflr 0
	stwu 1,-96(1)
.LCFI3:
	.cfi_def_cfa_offset 96
	.cfi_register 65, 0
	mr 9,3
	stw 22,48(1)
	.loc 1 107 0
	lis 22,currentshadowlight@ha
	.cfi_offset 22, -48
	.loc 1 91 0
	stw 0,100(1)
	.loc 1 107 0
	mr 4,9
	.loc 1 91 0
	stw 23,52(1)
	.loc 1 100 0
	lwz 23,160(3)
	.cfi_offset 23, -44
	.cfi_offset 65, 4
.LVL42:
	.loc 1 107 0
	lwz 3,currentshadowlight@l(22)
.LVL43:
	.loc 1 91 0
	stw 28,72(1)
	stw 29,76(1)
	stfd 31,88(1)
	.loc 1 101 0
	lwz 29,264(9)
	.cfi_offset 63, -8
	.cfi_offset 29, -20
	.cfi_offset 28, -24
.LVL44:
	.loc 1 91 0
	stw 18,32(1)
	stw 19,36(1)
	stw 20,40(1)
	stw 21,44(1)
	stw 24,56(1)
	stw 25,60(1)
	stw 26,64(1)
	stw 27,68(1)
	stw 30,80(1)
	stw 31,84(1)
	.loc 1 107 0
	.cfi_offset 31, -12
	.cfi_offset 30, -16
	.cfi_offset 27, -28
	.cfi_offset 26, -32
	.cfi_offset 25, -36
	.cfi_offset 24, -40
	.cfi_offset 21, -52
	.cfi_offset 20, -56
	.cfi_offset 19, -60
	.cfi_offset 18, -64
	bl GX_InitWorldBumpShader
.LVL45:
	.loc 1 110 0
	lwz 9,144(23)
	.loc 1 109 0
	lwz 28,208(23)
	.loc 1 110 0
	cmpwi 7,9,0
	.loc 1 109 0
	lwz 0,140(23)
.LVL46:
	.loc 1 110 0
	ble- 7,.L16
	.loc 1 109 0
	mulli 0,0,92
	.loc 1 91 0
	addis 25,29,0x2
	addi 25,25,-32677
	.loc 1 104 0
	li 24,0
	.loc 1 109 0
	add 28,28,0
	.loc 1 103 0
	li 30,0
	.loc 1 110 0
	li 27,0
	.loc 1 117 0
	lis 19,.LC0@ha
	.loc 1 127 0
	lis 20,.LC3@ha
	.loc 1 135 0
	lis 21,globalVertexTable@ha
	lis 18,wgPipe@ha
.LVL47:
.L22:
	.loc 1 112 0
	lbzu 0,1(25)
	cmpwi 7,0,0
	beq- 7,.L18
	.loc 1 116 0
	addi 9,24,22548
	.loc 1 117 0
	lfs 0,.LC0@l(19)
	.loc 1 116 0
	slwi 9,9,2
	.loc 1 114 0
	lwz 31,36(28)
.LVL48:
	.loc 1 116 0
	add 9,29,9
	lfs 31,12(9)
.LVL49:
	.loc 1 117 0
	fcmpu 7,31,0
	bng- 7,.L19
	.loc 1 118 0
	fmr 31,0
.L19:
.LVL50:
	.loc 1 123 0
	lwz 9,48(28)
	.loc 1 120 0
	addi 24,24,1
.LVL51:
	.loc 1 123 0
	lwz 3,36(9)
	bl R_TextureAnimation
.LVL52:
	.loc 1 124 0
	lwz 4,24(3)
	li 3,0
.LVL53:
	bl GX_BindGLTex
	.loc 1 127 0
	lwz 9,currentshadowlight@l(22)
	lfs 0,.LC3@l(20)
	addi 11,1,12
	lfs 12,24(9)
	.loc 1 131 0
	li 3,3
	.loc 1 130 0
	fmuls 13,31,0
	.loc 1 131 0
	addi 4,1,8
	.loc 1 127 0
	fmuls 12,12,0
	.loc 1 130 0
	fctiwz 13,13
	.loc 1 127 0
	fmuls 12,12,31
	fctiwz 12,12
	stfiwx 12,0,11
	.loc 1 128 0
	addi 11,1,16
	lfs 12,28(9)
	.loc 1 127 0
	lwz 0,12(1)
	.loc 1 128 0
	fmuls 12,12,0
	.loc 1 127 0
	rlwimi 26,0,24,0,7
	.loc 1 128 0
	fmuls 12,12,31
	fctiwz 12,12
	stfiwx 12,0,11
	.loc 1 129 0
	addi 11,1,20
	lfs 12,32(9)
	.loc 1 130 0
	addi 9,1,24
	.loc 1 128 0
	lwz 0,16(1)
	.loc 1 129 0
	fmuls 0,12,0
	.loc 1 130 0
	stfiwx 13,0,9
	.loc 1 128 0
	rlwimi 26,0,16,8,15
	.loc 1 130 0
	lwz 0,24(1)
	.loc 1 129 0
	fmuls 31,0,31
.LVL54:
	fctiwz 31,31
	stfiwx 31,0,11
	lwz 9,20(1)
	rlwimi 26,9,8,16,23
	.loc 1 130 0
	rlwimi 26,0,0,24,31
	.loc 1 131 0
	stw 26,8(1)
	bl GX_SetTevColor
	.loc 1 133 0
	lhz 5,10(31)
	li 3,160
	li 4,2
	bl GX_Begin
	.loc 1 136 0
	lwz 0,8(31)
	.loc 1 135 0
	lwz 10,globalVertexTable@l(21)
	.loc 1 136 0
	cmpwi 7,0,0
	.loc 1 135 0
	lwz 9,24(31)
.LVL55:
	.loc 1 136 0
	ble- 7,.L20
	.loc 1 135 0
	mulli 9,9,28
.LBB30:
.LBB31:
.LBB32:
	.loc 2 2123 0
	lwz 11,wgPipe@l(18)
.LBE32:
.LBE31:
.LBE30:
	.loc 1 135 0
	add 9,10,9
	.loc 1 136 0
	li 10,0
.LVL56:
.L21:
.LBB41:
	.loc 1 91 0 discriminator 2
	add 8,10,30
	.loc 1 139 0 discriminator 2
	lwz 5,0(9)
	.loc 1 138 0 discriminator 2
	addi 8,8,9226
	.loc 1 139 0 discriminator 2
	lwz 6,4(9)
	.loc 1 138 0 discriminator 2
	slwi 8,8,3
	.loc 1 139 0 discriminator 2
	lwz 0,8(9)
	.loc 1 138 0 discriminator 2
	add 8,29,8
.LBB35:
.LBB33:
	.loc 2 2123 0 discriminator 2
	stw 5,0(11)
.LBE33:
.LBE35:
	.loc 1 138 0 discriminator 2
	addi 7,8,12
.LVL57:
.LBB36:
.LBB34:
	.loc 2 2124 0 discriminator 2
	.loc 2 2125 0 discriminator 2
	stw 6,0(11)
	.loc 2 2126 0 discriminator 2
	.loc 2 2127 0 discriminator 2
	stw 0,0(11)
	.loc 2 2128 0 discriminator 2
.LBE34:
.LBE36:
	.loc 1 140 0 discriminator 2
	lwz 6,12(9)
	lwz 0,16(9)
.LVL58:
.LBB37:
.LBB38:
	.loc 2 2323 0 discriminator 2
	stw 6,0(11)
	.loc 2 2324 0 discriminator 2
	.loc 2 2325 0 discriminator 2
	stw 0,0(11)
	.loc 2 2326 0 discriminator 2
.LBE38:
.LBE37:
	.loc 1 141 0 discriminator 2
	lwz 8,12(8)
	lwz 0,4(7)
.LVL59:
.LBB39:
.LBB40:
	.loc 2 2323 0 discriminator 2
	stw 8,0(11)
	.loc 2 2324 0 discriminator 2
	.loc 2 2325 0 discriminator 2
	stw 0,0(11)
	.loc 2 2326 0 discriminator 2
.LBE40:
.LBE39:
.LBE41:
	.loc 1 136 0 discriminator 2
	lwz 0,8(31)
	addi 10,10,1
.LVL60:
	addi 9,9,28
.LVL61:
	cmpw 7,0,10
	bgt+ 7,.L21
.LVL62:
.L20:
	.loc 1 146 0
	lwz 0,16(28)
	lwz 9,144(23)
	add 30,30,0
.LVL63:
.L18:
	.loc 1 110 0
	addi 27,27,1
.LVL64:
	addi 28,28,92
.LVL65:
	cmpw 7,9,27
	bgt+ 7,.L22
.LVL66:
.L16:
	.loc 1 148 0
	lwz 0,100(1)
	lwz 18,32(1)
	mtlr 0
	lwz 19,36(1)
	lwz 20,40(1)
	lwz 21,44(1)
	lwz 22,48(1)
	lwz 23,52(1)
.LVL67:
	lwz 24,56(1)
	lwz 25,60(1)
	lwz 26,64(1)
.LVL68:
	lwz 27,68(1)
	lwz 28,72(1)
	lwz 29,76(1)
.LVL69:
	lwz 30,80(1)
	lwz 31,84(1)
	lfd 31,88(1)
	addi 1,1,96
.LCFI4:
	.cfi_def_cfa_offset 0
	.cfi_restore 63
	.cfi_restore 31
	.cfi_restore 30
	.cfi_restore 29
	.cfi_restore 28
	.cfi_restore 27
	.cfi_restore 26
	.cfi_restore 25
	.cfi_restore 24
	.cfi_restore 23
	.cfi_restore 22
	.cfi_restore 21
	.cfi_restore 20
	.cfi_restore 19
	.cfi_restore 18
	blr
	.cfi_endproc
.LFE39:
	.size	R_DrawBrushBumped, .-R_DrawBrushBumped
	.align 2
	.globl R_DrawBrushObjectLightGX
	.type	R_DrawBrushObjectLightGX, @function
R_DrawBrushObjectLightGX:
.LFB40:
	.loc 1 161 0
	.cfi_startproc
.LVL70:
	stwu 1,-32(1)
.LCFI5:
	.cfi_def_cfa_offset 32
	mflr 0
	stw 30,24(1)
	.loc 1 168 0
	lis 30,currentshadowlight@ha
	.cfi_offset 30, -8
	.cfi_register 65, 0
	.loc 1 161 0
	stw 0,36(1)
	.loc 1 171 0
	li 0,-1
	.cfi_offset 65, 4
	.loc 1 168 0
	lwz 9,currentshadowlight@l(30)
	.loc 1 161 0
	stw 27,12(1)
	stw 28,16(1)
	.loc 1 168 0
	lwz 27,0(9)
	.cfi_offset 28, -16
	.cfi_offset 27, -20
.LVL71:
	lwz 28,4(9)
.LVL72:
	.loc 1 161 0
	stw 29,20(1)
	.loc 1 168 0
	lwz 29,8(9)
	.cfi_offset 29, -12
.LVL73:
	.loc 1 170 0
	lis 9,currententity@ha
	.loc 1 161 0
	stw 31,28(1)
	.loc 1 161 0
	mr 31,3
	.cfi_offset 31, -4
	.loc 1 170 0
	stw 3,currententity@l(9)
	.loc 1 171 0
	lis 9,currenttexture@ha
	stw 0,currenttexture@l(9)
.LVL74:
	.loc 1 175 0
	bl glPushMatrix
.LVL75:
	.loc 1 176 0
	lfs 0,148(31)
	.loc 1 177 0
	mr 3,31
	.loc 1 176 0
	fneg 0,0
	stfs 0,148(31)
	.loc 1 177 0
	bl R_RotateForEntity
	.loc 1 178 0
	lfs 0,148(31)
	fneg 0,0
	stfs 0,148(31)
	.loc 1 180 0
	bl GX_LoadGLModelView
	.loc 1 181 0
	mr 3,31
	bl R_DrawBrushBumped
	.loc 1 183 0
	lwz 9,currentshadowlight@l(30)
	stw 27,0(9)
	stw 28,4(9)
	stw 29,8(9)
	.loc 1 184 0
	bl glPopMatrix
	.loc 1 185 0
	lwz 0,36(1)
	lwz 27,12(1)
.LVL76:
	mtlr 0
	lwz 28,16(1)
.LVL77:
	lwz 29,20(1)
.LVL78:
	lwz 30,24(1)
	lwz 31,28(1)
.LVL79:
	addi 1,1,32
.LCFI6:
	.cfi_def_cfa_offset 0
	.cfi_restore 31
	.cfi_restore 30
	.cfi_restore 29
	.cfi_restore 28
	.cfi_restore 27
	blr
	.cfi_endproc
.LFE40:
	.size	R_DrawBrushObjectLightGX, .-R_DrawBrushObjectLightGX
	.align 2
	.globl R_DrawLightEntities
	.type	R_DrawLightEntities, @function
R_DrawLightEntities:
.LFB41:
	.loc 1 196 0
	.cfi_startproc
.LVL80:
	.loc 1 199 0
	lis 9,r_drawentities+12@ha
	.loc 1 196 0
	mflr 0
	.loc 1 199 0
	lfs 13,r_drawentities+12@l(9)
	lis 9,.LC4@ha
	lfs 0,.LC4@l(9)
	.loc 1 196 0
	stwu 1,-24(1)
.LCFI7:
	.cfi_def_cfa_offset 24
	.cfi_register 65, 0
	.loc 1 199 0
	fcmpu 7,13,0
	.loc 1 196 0
	stw 0,28(1)
	stw 28,8(1)
	stw 29,12(1)
	stw 30,16(1)
	stw 31,20(1)
	.loc 1 199 0
	beq- 7,.L27
	.cfi_offset 31, -4
	.cfi_offset 30, -8
	.cfi_offset 29, -12
	.cfi_offset 28, -16
	.cfi_offset 65, 4
	.loc 1 202 0
	lis 9,currentshadowlight@ha
	lwz 9,currentshadowlight@l(9)
	lbz 0,44(9)
	cmpwi 7,0,0
	beq- 7,.L27
.LVL81:
	.loc 1 239 0 discriminator 1
	lis 29,cl_numlightvisedicts@ha
	lwz 0,cl_numlightvisedicts@l(29)
	cmpwi 7,0,0
	ble- 7,.L27
	.loc 1 239 0 is_stmt 0
	lis 30,cl_lightvisedicts-4@ha
	lis 28,currententity@ha
	la 30,cl_lightvisedicts-4@l(30)
	li 31,0
	la 28,currententity@l(28)
	la 29,cl_numlightvisedicts@l(29)
	b .L30
.LVL82:
.L29:
	lwz 0,0(29)
	cmpw 7,0,31
	ble- 7,.L27
.LVL83:
.L30:
	.loc 1 240 0 is_stmt 1
	lwzu 3,4(30)
.LVL84:
	.loc 1 239 0
	addi 31,31,1
	.loc 1 242 0
	lwz 9,160(3)
.LVL85:
	.loc 1 240 0
	stw 3,0(28)
	.loc 1 242 0
	lwz 0,68(9)
	cmpwi 7,0,0
	bne- 7,.L29
	.loc 1 243 0
	lwz 9,264(3)
	cmpwi 7,9,0
	beq- 7,.L29
	.loc 1 245 0
	lbz 0,88(9)
	cmpwi 7,0,0
	bne+ 7,.L29
	.loc 1 248 0
	bl R_DrawBrushObjectLightGX
.LVL86:
	.loc 1 239 0
	lwz 0,0(29)
	cmpw 7,0,31
	bgt+ 7,.L30
.LVL87:
.L27:
	.loc 1 253 0
	lwz 0,28(1)
	lwz 28,8(1)
	mtlr 0
	lwz 29,12(1)
	lwz 30,16(1)
	lwz 31,20(1)
	addi 1,1,24
.LCFI8:
	.cfi_def_cfa_offset 0
	.cfi_restore 31
	.cfi_restore 30
	.cfi_restore 29
	.cfi_restore 28
	blr
	.cfi_endproc
.LFE41:
	.size	R_DrawLightEntities, .-R_DrawLightEntities
	.comm	causticschain,4,4
	.section	.rodata.cst4,"aM",@progbits,4
	.align 2
.LC0:
	.4byte	1065353216
.LC2:
	.4byte	1501560836
.LC3:
	.4byte	1132396544
.LC4:
	.4byte	0
	.section	".text"
.Letext0:
	.file 3 "d:/Data/Nintendo/TenebraeGX/src/common.h"
	.file 4 "c:\\utils\\devkitpro\\devkitppc\\bin\\../lib/gcc/powerpc-eabi/4.6.3/../../../../powerpc-eabi/include/stdint.h"
	.file 5 "c:/utils/devkitPro/libogc/include/gctypes.h"
	.file 6 "d:/Data/Nintendo/TenebraeGX/src/bspfile.h"
	.file 7 "d:/Data/Nintendo/TenebraeGX/src/zone.h"
	.file 8 "d:/Data/Nintendo/TenebraeGX/src/mathlib.h"
	.file 9 "d:/Data/Nintendo/TenebraeGX/src/quakedef.h"
	.file 10 "d:/Data/Nintendo/TenebraeGX/src/cvar.h"
	.file 11 "d:/Data/Nintendo/TenebraeGX/src/render.h"
	.file 12 "d:/Data/Nintendo/TenebraeGX/src/gl_model.h"
	.file 13 "d:/Data/Nintendo/TenebraeGX/src/glquake.h"
	.file 14 "d:/Data/Nintendo/TenebraeGX/src/modelgen.h"
	.file 15 "d:/Data/Nintendo/TenebraeGX/src/world.h"
	.file 16 "d:/Data/Nintendo/TenebraeGX/src/client.h"