	.file	"gl_common.c"
	.section	".text"
.Ltext0:
	.cfi_sections	.debug_frame
	.align 2
	.globl VID_SetPalette
	.type	VID_SetPalette, @function
VID_SetPalette:
.LFB38:
	.file 1 "d:/Data/Nintendo/TenebraeGX/src/gl_common.c"
	.loc 1 104 0
	.cfi_startproc
.LVL0:
	stwu 1,-16(1)
.LCFI0:
	.cfi_def_cfa_offset 16
	.loc 1 140 0
	li 0,256
	.loc 1 167 0
	lis 11,d_8to24table-4@ha
	lis 9,d_8to8graytable-1@ha
	.loc 1 140 0
	lis 6,0xaaaa
	.loc 1 104 0
	stw 30,8(1)
	stw 31,12(1)
	.loc 1 140 0
	mtctr 0
	.loc 1 167 0
	la 11,d_8to24table-4@l(11)
	la 9,d_8to8graytable-1@l(9)
	.loc 1 140 0
	ori 6,6,43691
.LVL1:
.L2:
	.loc 1 124 0 discriminator 2
	lbz 8,0(3)
.LVL2:
	.loc 1 125 0 discriminator 2
	lbz 10,1(3)
.LVL3:
	.loc 1 126 0 discriminator 2
	lbz 0,2(3)
.LVL4:
	.loc 1 127 0 discriminator 2
	addi 3,3,3
.LVL5:
	.loc 1 140 0 discriminator 2
	add 7,10,8
	.loc 1 136 0 discriminator 2
	slwi 8,8,24
.LVL6:
	.loc 1 140 0 discriminator 2
	add 7,7,0
	.loc 1 136 0 discriminator 2
	slwi 10,10,16
.LVL7:
	.loc 1 140 0 discriminator 2
	mulhwu 7,7,6
	.loc 1 136 0 discriminator 2
	add 10,8,10
	addi 10,10,255
.LVL8:
	slwi 0,0,8
.LVL9:
	add 0,10,0
	.loc 1 140 0 discriminator 2
	srwi 10,7,1
	.loc 1 138 0 discriminator 2
	stwu 0,4(11)
	.loc 1 140 0 discriminator 2
	stbu 10,1(9)
	.loc 1 122 0 discriminator 2
	bdnz .L2
	.cfi_offset 31, -4
	.cfi_offset 30, -8
	.loc 1 146 0
	lis 31,d_8to24table@ha
	lis 30,d_15to8table@ha
	la 31,d_8to24table@l(31)
	.loc 1 150 0
	li 12,0
	.loc 1 146 0
	lwz 0,1020(31)
	la 30,d_15to8table@l(30)
	rlwinm 0,0,0,0,23
	stw 0,1020(31)
.LVL10:
.L5:
	.loc 1 160 0
	li 0,256
	.loc 1 157 0
	rlwinm 4,12,3,24,28
	.loc 1 158 0
	rlwinm 5,12,30,24,28
	.loc 1 159 0
	rlwinm 6,12,25,24,28
	.loc 1 161 0
	lis 7,0x5f5
	.loc 1 160 0
	mtctr 0
	.loc 1 157 0
	addi 4,4,4
.LVL11:
	.loc 1 158 0
	addi 5,5,4
.LVL12:
	.loc 1 159 0
	addi 6,6,4
.LVL13:
	.loc 1 161 0
	ori 7,7,57600
	li 3,0
	li 8,0
	.loc 1 160 0
	mr 9,31
.LVL14:
.L4:
	.loc 1 162 0
	lbz 10,0(9)
	.loc 1 163 0
	lbz 11,1(9)
	.loc 1 164 0
	lbz 0,2(9)
	.loc 1 162 0
	subf 10,10,4
.LVL15:
	.loc 1 163 0
	subf 11,11,5
.LVL16:
	.loc 1 165 0
	mullw 10,10,10
.LVL17:
	.loc 1 164 0
	subf 0,0,6
.LVL18:
	.loc 1 161 0
	addi 9,9,4
	.loc 1 165 0
	mullw 11,11,11
.LVL19:
	mullw 0,0,0
.LVL20:
	add 11,10,11
	add 0,11,0
.LVL21:
	.loc 1 166 0
	cmpw 7,0,7
	bge- 7,.L3
	.loc 1 167 0
	mr 3,8
.LVL22:
	mr 7,0
.LVL23:
.L3:
	.loc 1 161 0
	addi 8,8,1
.LVL24:
	bdnz .L4
	.loc 1 150 0
	addi 0,12,1
.LVL25:
	.loc 1 171 0
	stbx 3,30,12
	.loc 1 150 0
	rlwinm 12,0,0,0xffff
.LVL26:
	andi. 0,12,32768
	beq+ 0,.L5
	.loc 1 173 0
	lwz 30,8(1)
	lwz 31,12(1)
	addi 1,1,16
.LCFI1:
	.cfi_def_cfa_offset 0
	.cfi_restore 31
	.cfi_restore 30
	blr
	.cfi_endproc
.LFE38:
	.size	VID_SetPalette, .-VID_SetPalette
	.align 2
	.globl VID_ShiftPalette
	.type	VID_ShiftPalette, @function
VID_ShiftPalette:
.LFB39:
	.loc 1 178 0
	.cfi_startproc
.LVL27:
	.loc 1 185 0
	blr
	.cfi_endproc
.LFE39:
	.size	VID_ShiftPalette, .-VID_ShiftPalette
	.align 2
	.globl CheckPalettedTexture
	.type	CheckPalettedTexture, @function
CheckPalettedTexture:
.LFB40:
	.loc 1 190 0
	.cfi_startproc
	mflr 0
	.loc 1 191 0
	lis 9,gl_extensions@ha
	.loc 1 190 0
	stwu 1,-8(1)
.LCFI2:
	.cfi_def_cfa_offset 8
	.cfi_register 65, 0
	.loc 1 191 0
	lis 4,.LC0@ha
	lwz 3,gl_extensions@l(9)
	la 4,.LC0@l(4)
	.loc 1 190 0
	stw 0,12(1)
	.loc 1 191 0
	.cfi_offset 65, 4
	bl strstr
	cmpwi 7,3,0
	beq- 7,.L11
	.loc 1 194 0
	lis 3,.LC1@ha
	.loc 1 193 0
	li 0,1
	lis 9,gl_palettedtex@ha
	.loc 1 194 0
	la 3,.LC1@l(3)
	.loc 1 193 0
	stb 0,gl_palettedtex@l(9)
	.loc 1 194 0
	crxor 6,6,6
	bl Con_Printf
.L11:
	.loc 1 196 0
	lwz 0,12(1)
	addi 1,1,8
.LCFI3:
	.cfi_def_cfa_offset 0
	mtlr 0
	blr
	.cfi_endproc
.LFE40:
	.size	CheckPalettedTexture, .-CheckPalettedTexture
	.align 2
	.globl CheckMultiTextureExtensions
	.type	CheckMultiTextureExtensions, @function
CheckMultiTextureExtensions:
.LFB41:
	.loc 1 236 0
	.cfi_startproc
	mflr 0
	.loc 1 237 0
	lis 9,gl_extensions@ha
	.loc 1 236 0
	stwu 1,-8(1)
.LCFI4:
	.cfi_def_cfa_offset 8
	.cfi_register 65, 0
	.loc 1 237 0
	lis 4,.LC2@ha
	lwz 3,gl_extensions@l(9)
	la 4,.LC2@l(4)
	.loc 1 236 0
	stw 0,12(1)
	.loc 1 237 0
	.cfi_offset 65, 4
	bl strstr
	cmpwi 7,3,0
	beq- 7,.L14
.LBB26:
	.loc 1 239 0
	lis 3,.LC3@ha
	la 3,.LC3@l(3)
	crxor 6,6,6
	bl _glGetProcAddress
	lis 9,qglActiveTextureARB@ha
	stw 3,qglActiveTextureARB@l(9)
	.loc 1 240 0
	lis 3,.LC4@ha
	la 3,.LC4@l(3)
	crxor 6,6,6
	bl _glGetProcAddress
	lis 9,qglClientActiveTextureARB@ha
	stw 3,qglClientActiveTextureARB@l(9)
	.loc 1 241 0
	lis 3,.LC5@ha
	la 3,.LC5@l(3)
	crxor 6,6,6
	bl _glGetProcAddress
	lis 9,qglMultiTexCoord1fARB@ha
	stw 3,qglMultiTexCoord1fARB@l(9)
	.loc 1 242 0
	lis 3,.LC6@ha
	la 3,.LC6@l(3)
	crxor 6,6,6
	bl _glGetProcAddress
	lis 9,qglMultiTexCoord2fARB@ha
	stw 3,qglMultiTexCoord2fARB@l(9)
	.loc 1 243 0
	lis 3,.LC7@ha
	la 3,.LC7@l(3)
	crxor 6,6,6
	bl _glGetProcAddress
	lis 9,qglMultiTexCoord2fvARB@ha
	stw 3,qglMultiTexCoord2fvARB@l(9)
	.loc 1 244 0
	lis 3,.LC8@ha
	la 3,.LC8@l(3)
	crxor 6,6,6
	bl _glGetProcAddress
	lis 9,qglMultiTexCoord3fARB@ha
	stw 3,qglMultiTexCoord3fARB@l(9)
	.loc 1 245 0
	lis 3,.LC9@ha
	la 3,.LC9@l(3)
	crxor 6,6,6
	bl _glGetProcAddress
	lis 9,qglMultiTexCoord3fvARB@ha
	.loc 1 246 0
	li 0,1
	.loc 1 245 0
	stw 3,qglMultiTexCoord3fvARB@l(9)
	.loc 1 246 0
	lis 9,gl_mtexable@ha
	stb 0,gl_mtexable@l(9)
.LBE26:
	.loc 1 251 0
	lwz 0,12(1)
	addi 1,1,8
	.cfi_remember_state
.LCFI5:
	.cfi_def_cfa_offset 0
	mtlr 0
	blr
.L14:
.LCFI6:
	.cfi_restore_state
	.loc 1 249 0
	lis 3,.LC10@ha
	la 3,.LC10@l(3)
	crxor 6,6,6
	bl Sys_Error
	.loc 1 251 0
	lwz 0,12(1)
	addi 1,1,8
.LCFI7:
	.cfi_def_cfa_offset 0
	mtlr 0
	blr
	.cfi_endproc
.LFE41:
	.size	CheckMultiTextureExtensions, .-CheckMultiTextureExtensions
	.align 2
	.globl CheckDiffuseBumpMappingExtensions
	.type	CheckDiffuseBumpMappingExtensions, @function
CheckDiffuseBumpMappingExtensions:
.LFB42:
	.loc 1 259 0
	.cfi_startproc
	.loc 1 280 0
	blr
	.cfi_endproc
.LFE42:
	.size	CheckDiffuseBumpMappingExtensions, .-CheckDiffuseBumpMappingExtensions
	.align 2
	.globl CheckSpecularBumpMappingExtensions
	.type	CheckSpecularBumpMappingExtensions, @function
CheckSpecularBumpMappingExtensions:
.LFB43:
	.loc 1 286 0
	.cfi_startproc
	.loc 1 306 0
	blr
	.cfi_endproc
.LFE43:
	.size	CheckSpecularBumpMappingExtensions, .-CheckSpecularBumpMappingExtensions
	.align 2
	.globl CheckGeforce3Extensions
	.type	CheckGeforce3Extensions, @function
CheckGeforce3Extensions:
.LFB44:
	.loc 1 312 0
	.cfi_startproc
	.loc 1 360 0
	blr
	.cfi_endproc
.LFE44:
	.size	CheckGeforce3Extensions, .-CheckGeforce3Extensions
	.align 2
	.globl CheckVertexArrayRange
	.type	CheckVertexArrayRange, @function
CheckVertexArrayRange:
.LFB45:
	.loc 1 368 0
	.cfi_startproc
	.loc 1 390 0
	li 0,0
	lis 9,gl_var@ha
	stb 0,gl_var@l(9)
	.loc 1 393 0
	blr
	.cfi_endproc
.LFE45:
	.size	CheckVertexArrayRange, .-CheckVertexArrayRange
	.align 2
	.globl CheckRadeonExtensions
	.type	CheckRadeonExtensions, @function
CheckRadeonExtensions:
.LFB46:
	.loc 1 400 0
	.cfi_startproc
	.loc 1 423 0
	blr
	.cfi_endproc
.LFE46:
	.size	CheckRadeonExtensions, .-CheckRadeonExtensions
	.align 2
	.globl CheckParheliaExtensions
	.type	CheckParheliaExtensions, @function
CheckParheliaExtensions:
.LFB47:
	.loc 1 426 0
	.cfi_startproc
	.loc 1 447 0
	blr
	.cfi_endproc
.LFE47:
	.size	CheckParheliaExtensions, .-CheckParheliaExtensions
	.align 2
	.globl CheckARBFragmentExtensions
	.type	CheckARBFragmentExtensions, @function
CheckARBFragmentExtensions:
.LFB48:
	.loc 1 451 0
	.cfi_startproc
	.loc 1 473 0
	blr
	.cfi_endproc
.LFE48:
	.size	CheckARBFragmentExtensions, .-CheckARBFragmentExtensions
	.align 2
	.globl CheckNV3xFragmentExtensions
	.type	CheckNV3xFragmentExtensions, @function
CheckNV3xFragmentExtensions:
.LFB49:
	.loc 1 476 0
	.cfi_startproc
	.loc 1 525 0
	blr
	.cfi_endproc
.LFE49:
	.size	CheckNV3xFragmentExtensions, .-CheckNV3xFragmentExtensions
	.align 2
	.globl CheckGL2FragmentExtensions
	.type	CheckGL2FragmentExtensions, @function
CheckGL2FragmentExtensions:
.LFB50:
	.loc 1 528 0
	.cfi_startproc
	.loc 1 552 0
	blr
	.cfi_endproc
.LFE50:
	.size	CheckGL2FragmentExtensions, .-CheckGL2FragmentExtensions
	.align 2
	.globl CheckAnisotropicExtension
	.type	CheckAnisotropicExtension, @function
CheckAnisotropicExtension:
.LFB51:
	.loc 1 556 0
	.cfi_startproc
	.loc 1 578 0
	blr
	.cfi_endproc
.LFE51:
	.size	CheckAnisotropicExtension, .-CheckAnisotropicExtension
	.align 2
	.globl CheckTextureCompressionExtension
	.type	CheckTextureCompressionExtension, @function
CheckTextureCompressionExtension:
.LFB52:
	.loc 1 581 0
	.cfi_startproc
	.loc 1 589 0
	blr
	.cfi_endproc
.LFE52:
	.size	CheckTextureCompressionExtension, .-CheckTextureCompressionExtension
	.align 2
	.globl CheckDepthBoundsExtension
	.type	CheckDepthBoundsExtension, @function
CheckDepthBoundsExtension:
.LFB53:
	.loc 1 593 0
	.cfi_startproc
	.loc 1 603 0
	blr
	.cfi_endproc
.LFE53:
	.size	CheckDepthBoundsExtension, .-CheckDepthBoundsExtension
	.align 2
	.globl CheckTwoSidedStencil
	.type	CheckTwoSidedStencil, @function
CheckTwoSidedStencil:
.LFB54:
	.loc 1 606 0
	.cfi_startproc
	mflr 0
	stwu 1,-8(1)
.LCFI8:
	.cfi_def_cfa_offset 8
	.cfi_register 65, 0
	.loc 1 607 0
	lis 3,.LC11@ha
	la 3,.LC11@l(3)
	.loc 1 606 0
	stw 0,12(1)
	.loc 1 607 0
	.cfi_offset 65, 4
	bl COM_CheckParm
	.loc 1 624 0
	lwz 0,12(1)
	addi 1,1,8
.LCFI9:
	.cfi_def_cfa_offset 0
	mtlr 0
	blr
	.cfi_endproc
.LFE54:
	.size	CheckTwoSidedStencil, .-CheckTwoSidedStencil
	.align 2
	.globl GL_Init
	.type	GL_Init, @function
GL_Init:
.LFB55:
	.loc 1 632 0
	.cfi_startproc
	mflr 0
	stwu 1,-40(1)
.LCFI10:
	.cfi_def_cfa_offset 40
	.cfi_register 65, 0
	.loc 1 635 0
	li 3,7936
	.loc 1 632 0
	stw 30,24(1)
	.loc 1 640 0
	lis 30,gl_version@ha
	.cfi_offset 30, -16
	.loc 1 632 0
	stw 0,44(1)
	stw 31,28(1)
	.loc 1 637 0
	lis 31,gl_renderer@ha
	.cfi_offset 31, -12
	.cfi_offset 65, 4
	.loc 1 632 0
	stfd 31,32(1)
	.loc 1 635 0
	.cfi_offset 63, -8
	bl glGetString
	mr 0,3
	.loc 1 636 0
	mr 4,3
	lis 3,.LC12@ha
	.loc 1 635 0
	lis 9,gl_vendor@ha
	.loc 1 636 0
	la 3,.LC12@l(3)
	.loc 1 635 0
	stw 0,gl_vendor@l(9)
	.loc 1 636 0
	crxor 6,6,6
	bl Con_Printf
	.loc 1 637 0
	li 3,7937
	bl glGetString
	mr 0,3
	.loc 1 638 0
	mr 4,3
	lis 3,.LC13@ha
	.loc 1 637 0
	stw 0,gl_renderer@l(31)
	.loc 1 638 0
	la 3,.LC13@l(3)
	crxor 6,6,6
	bl Con_Printf
	.loc 1 640 0
	li 3,7938
	bl glGetString
	mr 0,3
	.loc 1 641 0
	mr 4,3
	lis 3,.LC14@ha
	.loc 1 640 0
	stw 0,gl_version@l(30)
	.loc 1 641 0
	la 3,.LC14@l(3)
	crxor 6,6,6
	bl Con_Printf
	.loc 1 642 0
	li 3,7939
	bl glGetString
	lis 9,gl_extensions@ha
	mr 0,3
	.loc 1 643 0
	lis 3,.LC15@ha
	mr 4,0
	la 3,.LC15@l(3)
	.loc 1 642 0
	stw 0,gl_extensions@l(9)
	.loc 1 643 0
	crxor 6,6,6
	bl Con_Printf
	.loc 1 645 0
	lwz 4,gl_renderer@l(31)
	lis 3,.LC16@ha
	lwz 5,gl_version@l(30)
	la 3,.LC16@l(3)
	crxor 6,6,6
	bl Con_Printf
	.loc 1 647 0
	lwz 3,gl_renderer@l(31)
	lis 4,.LC17@ha
	li 5,7
	la 4,.LC17@l(4)
	bl Q_strncasecmp
	cmpwi 7,3,0
	bne- 7,.L30
	.loc 1 648 0
	li 0,1
	lis 9,fullsbardraw@ha
	stb 0,fullsbardraw@l(9)
.L30:
	.loc 1 650 0
	lwz 3,gl_renderer@l(31)
	lis 4,.LC18@ha
	la 4,.LC18@l(4)
	li 5,8
	bl Q_strncasecmp
	cmpwi 7,3,0
	bne- 7,.L31
	.loc 1 651 0
	li 0,1
	lis 9,isPermedia@ha
	stb 0,isPermedia@l(9)
.L31:
	.loc 1 653 0
	lis 3,.LC19@ha
	.loc 1 662 0
	lis 31,gl_cardtype@ha
	.loc 1 653 0
	la 3,.LC19@l(3)
	crxor 6,6,6
	bl Con_Printf
	.loc 1 654 0
	bl CheckPalettedTexture
	.loc 1 656 0
	lis 3,.LC20@ha
	la 3,.LC20@l(3)
	crxor 6,6,6
	bl Con_Printf
	.loc 1 657 0
	bl CheckMultiTextureExtensions
	.loc 1 659 0
	lis 3,.LC21@ha
	la 3,.LC21@l(3)
	crxor 6,6,6
	bl Con_Printf
	.loc 1 664 0
	lis 3,.LC22@ha
	.loc 1 662 0
	li 0,0
	.loc 1 664 0
	la 3,.LC22@l(3)
	.loc 1 662 0
	stw 0,gl_cardtype@l(31)
	.loc 1 664 0
	crxor 6,6,6
	bl Con_Printf
	.loc 1 667 0
	lwz 0,gl_cardtype@l(31)
	cmpwi 7,0,0
	beq- 7,.L44
.L33:
	.loc 1 691 0
	lis 3,.LC29@ha
	la 3,.LC29@l(3)
	crxor 6,6,6
	bl Con_Printf
	.loc 1 693 0
	lis 3,.LC30@ha
.LBB27:
.LBB28:
	.loc 1 390 0
	li 0,0
	lis 9,gl_var@ha
.LBE28:
.LBE27:
	.loc 1 693 0
	la 3,.LC30@l(3)
.LBB30:
.LBB29:
	.loc 1 390 0
	stb 0,gl_var@l(9)
.LBE29:
.LBE30:
	.loc 1 693 0
	crxor 6,6,6
	bl Con_Printf
	.loc 1 695 0
	lis 3,.LC31@ha
	la 3,.LC31@l(3)
	crxor 6,6,6
	bl Con_Printf
	.loc 1 697 0
	lis 3,.LC32@ha
	la 3,.LC32@l(3)
	crxor 6,6,6
	bl Con_Printf
	.loc 1 699 0
	lis 3,.LC33@ha
	la 3,.LC33@l(3)
	crxor 6,6,6
	bl Con_Printf
	.loc 1 700 0
	bl CheckTwoSidedStencil
	.loc 1 702 0
	lwz 0,gl_cardtype@l(31)
	cmplwi 7,0,7
	bgt- 7,.L34
	lis 9,.L43@ha
	slwi 0,0,2
	la 9,.L43@l(9)
	lwzx 0,9,0
	add 9,0,9
	mtctr 9
	bctr
	.section	.rodata
	.align 2
	.align 2
.L43:
	.long .L35-.L43
	.long .L36-.L43
	.long .L37-.L43
	.long .L38-.L43
	.long .L39-.L43
	.long .L40-.L43
	.long .L41-.L43
	.long .L42-.L43
	.section	".text"
.L42:
	.loc 1 726 0
	lis 3,.LC41@ha
	la 3,.LC41@l(3)
	crxor 6,6,6
	bl Con_Printf
.L34:
	.loc 1 730 0
	li 3,0
	addi 4,1,8
	ori 3,3,34018
	bl glGetIntegerv
.LVL28:
	.loc 1 731 0
	lwz 4,8(1)
	lis 3,.LC42@ha
	la 3,.LC42@l(3)
	crxor 6,6,6
	bl Con_Printf
	.loc 1 734 0
	lis 3,.LC43@ha
	la 3,.LC43@l(3)
	bl Cbuf_AddText
	.loc 1 736 0
	lis 9,.LC44@ha
	lfs 1,.LC44@l(9)
	fmr 2,1
	fmr 3,1
	fmr 4,1
	bl glClearColor
	.loc 1 737 0
	li 3,1028
	bl glCullFace
	.loc 1 738 0
	li 3,3553
	bl glEnable
	.loc 1 740 0
	li 3,3008
	bl glEnable
	.loc 1 741 0
	lis 9,.LC45@ha
	lfs 1,.LC45@l(9)
	li 3,516
	bl glAlphaFunc
	.loc 1 743 0
	li 4,6914
	li 3,1032
	bl glPolygonMode
	.loc 1 744 0
	li 3,7424
	bl glShadeModel
	.loc 1 746 0
	lis 9,.LC46@ha
	lfs 31,.LC46@l(9)
	li 3,3553
	li 4,10241
	fmr 1,31
	bl glTexParameterf
	.loc 1 747 0
	fmr 1,31
	li 3,3553
	li 4,10240
	bl glTexParameterf
	.loc 1 748 0
	lis 9,.LC47@ha
	lfs 31,.LC47@l(9)
	li 3,3553
	li 4,10242
	fmr 1,31
	bl glTexParameterf
	.loc 1 749 0
	fmr 1,31
	li 3,3553
	li 4,10243
	bl glTexParameterf
	.loc 1 751 0
	li 3,770
	li 4,771
	bl glBlendFunc
	.loc 1 754 0
	lis 9,.LC48@ha
	lfs 1,.LC48@l(9)
	li 3,8960
	li 4,8704
	bl glTexEnvf
	.loc 1 765 0
	lwz 0,44(1)
	lwz 30,24(1)
	mtlr 0
	lwz 31,28(1)
	lfd 31,32(1)
	addi 1,1,40
	.cfi_remember_state
.LCFI11:
	.cfi_def_cfa_offset 0
	.cfi_restore 63
	.cfi_restore 31
	.cfi_restore 30
	blr
.LVL29:
.L44:
.LCFI12:
	.cfi_restore_state
	.loc 1 669 0
	lis 3,.LC23@ha
	la 3,.LC23@l(3)
	crxor 6,6,6
	bl Con_Printf
	.loc 1 673 0
	lwz 0,gl_cardtype@l(31)
	cmpwi 7,0,0
	bne- 7,.L33
	.loc 1 675 0
	lis 3,.LC24@ha
	la 3,.LC24@l(3)
	crxor 6,6,6
	bl Con_Printf
	.loc 1 679 0
	lwz 0,gl_cardtype@l(31)
	cmpwi 7,0,0
	bne- 7,.L33
	.loc 1 681 0
	lis 3,.LC25@ha
	la 3,.LC25@l(3)
	crxor 6,6,6
	bl Con_Printf
	.loc 1 683 0
	lis 3,.LC26@ha
	la 3,.LC26@l(3)
	crxor 6,6,6
	bl Con_Printf
	.loc 1 685 0
	lis 3,.LC27@ha
	la 3,.LC27@l(3)
	crxor 6,6,6
	bl Con_Printf
	.loc 1 687 0
	lis 3,.LC28@ha
	la 3,.LC28@l(3)
	crxor 6,6,6
	bl Con_Printf
	b .L33
.L41:
	.loc 1 723 0
	lis 3,.LC40@ha
	la 3,.LC40@l(3)
	crxor 6,6,6
	bl Con_Printf
	.loc 1 724 0
	b .L34
.L35:
	.loc 1 705 0
	lis 3,.LC34@ha
	la 3,.LC34@l(3)
	crxor 6,6,6
	bl Con_Printf
	.loc 1 706 0
	b .L34
.L36:
	.loc 1 708 0
	lis 3,.LC35@ha
	la 3,.LC35@l(3)
	crxor 6,6,6
	bl Con_Printf
	.loc 1 709 0
	b .L34
.L37:
	.loc 1 711 0
	lis 3,.LC36@ha
	la 3,.LC36@l(3)
	crxor 6,6,6
	bl Con_Printf
	.loc 1 712 0
	b .L34
.L38:
	.loc 1 714 0
	lis 3,.LC37@ha
	la 3,.LC37@l(3)
	crxor 6,6,6
	bl Con_Printf
	.loc 1 715 0
	b .L34
.L39:
	.loc 1 717 0
	lis 3,.LC38@ha
	la 3,.LC38@l(3)
	crxor 6,6,6
	bl Con_Printf
	.loc 1 718 0
	b .L34
.L40:
	.loc 1 720 0
	lis 3,.LC39@ha
	la 3,.LC39@l(3)
	crxor 6,6,6
	bl Con_Printf
	.loc 1 721 0
	b .L34
	.cfi_endproc
.LFE55:
	.size	GL_Init, .-GL_Init
	.align 2
	.globl VID_Is8bit
	.type	VID_Is8bit, @function
VID_Is8bit:
.LFB56:
	.loc 1 767 0
	.cfi_startproc
	.loc 1 768 0
	lis 9,is8bit@ha
	.loc 1 769 0
	lbz 3,is8bit@l(9)
	blr
	.cfi_endproc
.LFE56:
	.size	VID_Is8bit, .-VID_Is8bit
	.align 2
	.globl VID_Init8bitPalette
	.type	VID_Init8bitPalette, @function
VID_Init8bitPalette:
.LFB57:
	.loc 1 774 0
	.cfi_startproc
	.loc 1 828 0
	blr
	.cfi_endproc
.LFE57:
	.size	VID_Init8bitPalette, .-VID_Init8bitPalette
	.comm	gl_depthbounds,1,1
	.comm	AGP_Buffer,4,4
	.comm	d_8to8graytable,256,4
	.comm	d_15to8table,65536,4
	.comm	d_8to24table,1024,4
	.comm	d_8to16table,512,2
	.globl gl_textureanisotropylevel
	.globl gl_texturefilteranisotropic
	.globl gl_palettedtex
	.comm	gldepthmax,4,4
	.comm	gldepthmin,4,4
	.globl texture_extension_number
	.globl texture_mode
	.comm	qglStencilFuncSeparateATI,4,4
	.comm	qglStencilOpSeparateATI,4,4
	.comm	qglActiveStencilFaceEXT,4,4
	.comm	qgl3DfxSetPaletteEXT,4,4
	.comm	qglColorTableEXT,4,4
	.globl gl_twosidedstencil
	.globl gl_texcomp
	.globl gl_var
	.globl gl_cardtype
	.globl gl_mtexable
	.globl isPermedia
	.globl is8bit
	.globl vid_gamma
	.globl fullsbardraw
	.comm	gl_extensions,4,4
	.comm	gl_version,4,4
	.comm	gl_renderer,4,4
	.comm	gl_vendor,4,4
	.comm	causticschain,4,4
	.section	.rodata.cst4,"aM",@progbits,4
	.align 2
.LC44:
	.4byte	1056964608
.LC45:
	.4byte	1059749626
.LC46:
	.4byte	1175977984
.LC47:
	.4byte	1176765440
.LC48:
	.4byte	1173358592
	.section	.rodata.str1.4,"aMS",@progbits,1
	.align 2
.LC0:
	.string	"GL_EXT_paletted_texture"
.LC1:
	.string	"Found GL_EXT_paletted_texture...\n"
	.zero	2
.LC2:
	.string	"GL_ARB_multitexture"
.LC3:
	.string	"glActiveTextureARB"
	.zero	1
.LC4:
	.string	"glClientActiveTextureARB"
	.zero	3
.LC5:
	.string	"glMultiTexCoord1fARB"
	.zero	3
.LC6:
	.string	"glMultiTexCoord2fARB"
	.zero	3
.LC7:
	.string	"glMultiTexCoord2fvARB"
	.zero	2
.LC8:
	.string	"glMultiTexCoord3fARB"
	.zero	3
.LC9:
	.string	"glMultiTexCoord3fvARB"
	.zero	2
.LC10:
	.string	"No multitexturing found.\nProbably your 3d-card is not supported.\n"
	.zero	2
.LC11:
	.string	"-notwosidedstencil"
	.zero	1
.LC12:
	.string	"GL_VENDOR: %s\n"
	.zero	1
.LC13:
	.string	"GL_RENDERER: %s\n"
	.zero	3
.LC14:
	.string	"GL_VERSION: %s\n"
.LC15:
	.string	"GL_EXTENSIONS: %s\n"
	.zero	1
.LC16:
	.string	"%s %s\n"
	.zero	1
.LC17:
	.string	"PowerVR"
.LC18:
	.string	"Permedia"
	.zero	3
.LC19:
	.string	"Checking paletted texture\n"
	.zero	1
.LC20:
	.string	"Checking multitexture\n"
	.zero	1
.LC21:
	.string	"Checking diffuse bumpmap extensions\n"
	.zero	3
.LC22:
	.string	"Checking GL2 extensions\n"
	.zero	3
.LC23:
	.string	"Checking NV3x extensions\n"
	.zero	2
.LC24:
	.string	"Checking ARB extensions\n"
	.zero	3
.LC25:
	.string	"Checking GeForce 1/2/4-MX\n"
	.zero	1
.LC26:
	.string	"Checking GeForce 3/4\n"
	.zero	2
.LC27:
	.string	"Checking Radeon 8500+\n"
	.zero	1
.LC28:
	.string	"Checking Parhelia\n"
	.zero	1
.LC29:
	.string	"Checking VAR\n"
	.zero	2
.LC30:
	.string	"Checking AF\n"
	.zero	3
.LC31:
	.string	"Checking TC\n"
	.zero	3
.LC32:
	.string	"Checking DB\n"
	.zero	3
.LC33:
	.string	"Checking two-sided stencil\n"
.LC34:
	.string	"Using generic path.\n"
	.zero	3
.LC35:
	.string	"Using GeForce 1/2/4-MX path\n"
	.zero	3
.LC36:
	.string	"Using GeForce 3/4 path\n"
.LC37:
	.string	"Using Radeon path.\n"
.LC38:
	.string	"Using Parhelia path.\n"
	.zero	2
.LC39:
	.string	"Using ARB_fragment_program path.\n"
	.zero	2
.LC40:
	.string	"Using NV3x GeForce FX path.\n"
	.zero	3
.LC41:
	.string	"Using GL2 path.\n"
	.zero	3
.LC42:
	.string	"%i texture units\n"
	.zero	2
.LC43:
	.string	"+mlook"
	.section	.sbss,"aw",@nobits
	.align 2
	.type	gl_texturefilteranisotropic, @object
	.size	gl_texturefilteranisotropic, 1
gl_texturefilteranisotropic:
	.zero	1
	.type	gl_palettedtex, @object
	.size	gl_palettedtex, 1
gl_palettedtex:
	.zero	1
	.zero	2
	.type	gl_twosidedstencil, @object
	.size	gl_twosidedstencil, 4
gl_twosidedstencil:
	.zero	4
	.type	gl_texcomp, @object
	.size	gl_texcomp, 1
gl_texcomp:
	.zero	1
	.type	gl_var, @object
	.size	gl_var, 1
gl_var:
	.zero	1
	.zero	2
	.type	gl_cardtype, @object
	.size	gl_cardtype, 4
gl_cardtype:
	.zero	4
	.type	gl_mtexable, @object
	.size	gl_mtexable, 1
gl_mtexable:
	.zero	1
	.type	isPermedia, @object
	.size	isPermedia, 1
isPermedia:
	.zero	1
	.type	is8bit, @object
	.size	is8bit, 1
is8bit:
	.zero	1
	.type	fullsbardraw, @object
	.size	fullsbardraw, 1
fullsbardraw:
	.zero	1
	.section	.sdata,"aw",@progbits
	.align 2
	.type	gl_textureanisotropylevel, @object
	.size	gl_textureanisotropylevel, 4
gl_textureanisotropylevel:
	.long	1073741824
	.type	texture_extension_number, @object
	.size	texture_extension_number, 4
texture_extension_number:
	.long	1
	.type	texture_mode, @object
	.size	texture_mode, 4
texture_mode:
	.long	9729
	.type	vid_gamma, @object
	.size	vid_gamma, 4
vid_gamma:
	.long	1065353216
	.section	".text"
.Letext0:
	.file 2 "d:/Data/Nintendo/TenebraeGX/src/common.h"
	.file 3 "d:/Data/Nintendo/TenebraeGX/src/mathlib.h"
	.file 4 "d:/Data/Nintendo/TenebraeGX/src/gl_model.h"
	.file 5 "d:/Data/Nintendo/TenebraeGX/gl2gx/include/GL/gl.h"
	.file 6 "d:/Data/Nintendo/TenebraeGX/gl2gx/include/GL/glext.h"
	.file 7 "d:/Data/Nintendo/TenebraeGX/src/glquake.h"
	.file 8 "c:/utils/devkitPro/libogc/include/ogc/gx.h"