	.file	"gl_model.c"
	.section	".text"
.Ltext0:
	.cfi_sections	.debug_frame
	.align 2
	.globl Mod_Init
	.type	Mod_Init, @function
Mod_Init:
.LFB38:
	.file 1 "d:/Data/Nintendo/TenebraeGX/src/gl_model.c"
	.loc 1 49 0
	.cfi_startproc
	mflr 0
	stwu 1,-8(1)
.LCFI0:
	.cfi_def_cfa_offset 8
	.cfi_register 65, 0
	.loc 1 50 0
	lis 3,.LANCHOR0@ha
	la 3,.LANCHOR0@l(3)
	.loc 1 49 0
	stw 0,12(1)
	.loc 1 50 0
	.cfi_offset 65, 4
	bl Cvar_RegisterVariable
	.loc 1 51 0
	lis 3,mod_novis@ha
	li 4,255
	la 3,mod_novis@l(3)
	li 5,1024
	bl memset
	.loc 1 52 0
	lwz 0,12(1)
	addi 1,1,8
.LCFI1:
	.cfi_def_cfa_offset 0
	mtlr 0
	blr
	.cfi_endproc
.LFE38:
	.size	Mod_Init, .-Mod_Init
	.align 2
	.globl Mod_PointInLeaf
	.type	Mod_PointInLeaf, @function
Mod_PointInLeaf:
.LFB40:
	.loc 1 90 0
	.cfi_startproc
.LVL0:
	stwu 1,-16(1)
.LCFI2:
	.cfi_def_cfa_offset 16
	mflr 0
	stw 30,8(1)
	.loc 1 95 0
	mr. 30,4
	.cfi_offset 30, -8
	.cfi_register 65, 0
	.loc 1 90 0
	stw 31,12(1)
	mr 31,3
	.cfi_offset 31, -4
	stw 0,20(1)
	.loc 1 95 0
	beq- 0,.L3
	.cfi_offset 65, 4
	.loc 1 95 0 is_stmt 0 discriminator 1
	lwz 3,192(30)
.LVL1:
	cmpwi 7,3,0
	beq- 7,.L3
.LVL2:
.L12:
	.loc 1 105 0 is_stmt 1
	lis 9,.LC1@ha
	lfs 10,.LC1@l(9)
.L14:
.LVL3:
	.loc 1 101 0
	lwz 0,0(3)
	cmpwi 7,0,0
	blt- 7,.L16
.L6:
	.loc 1 103 0
	lwz 9,36(3)
.LVL4:
	.loc 1 104 0
	lfs 13,4(31)
	lfs 0,4(9)
	lfs 12,0(31)
	fmuls 13,13,0
	lfs 0,0(9)
	lfs 11,8(31)
	fmadds 12,12,0,13
	lfs 0,8(9)
	lfs 13,12(9)
	fmadds 0,11,0,12
	fsubs 0,0,13
.LVL5:
	.loc 1 105 0
	fcmpu 7,0,10
	bng- 7,.L13
	.loc 1 106 0
	lwz 3,40(3)
.LVL6:
	.loc 1 101 0
	lwz 0,0(3)
	cmpwi 7,0,0
	bge+ 7,.L6
.LVL7:
.L16:
	.loc 1 112 0
	lwz 0,20(1)
	lwz 30,8(1)
.LVL8:
	mtlr 0
	lwz 31,12(1)
.LVL9:
	addi 1,1,16
	.cfi_remember_state
.LCFI3:
	.cfi_def_cfa_offset 0
	.cfi_restore 31
	.cfi_restore 30
	blr
.LVL10:
.L13:
.LCFI4:
	.cfi_restore_state
	.loc 1 108 0
	lwz 3,44(3)
.LVL11:
	b .L14
.LVL12:
.L3:
	.loc 1 96 0
	lis 3,.LC0@ha
	la 3,.LC0@l(3)
	crxor 6,6,6
	bl Sys_Error
	lwz 3,192(30)
.LVL13:
	b .L12
	.cfi_endproc
.LFE40:
	.size	Mod_PointInLeaf, .-Mod_PointInLeaf
	.align 2
	.globl Mod_DecompressVis
	.type	Mod_DecompressVis, @function
Mod_DecompressVis:
.LFB41:
	.loc 1 121 0
	.cfi_startproc
.LVL14:
	.loc 1 133 0
	mr. 9,3
	.loc 1 127 0
	lwz 7,164(4)
	.loc 1 135 0
	lis 3,.LANCHOR1@ha
.LVL15:
	.loc 1 127 0
	addi 7,7,7
	.loc 1 135 0
	la 3,.LANCHOR1@l(3)
	.loc 1 127 0
	srawi 7,7,3
.LVL16:
	.loc 1 133 0
	beq- 0,.L30
	.loc 1 128 0
	mr 6,3
	.loc 1 133 0
	mr 10,3
	.loc 1 155 0
	li 0,0
	b .L24
.LVL17:
.L32:
	.loc 1 147 0
	stb 11,0(10)
	addi 9,9,1
.LVL18:
	addi 10,10,1
.LVL19:
.L22:
	.loc 1 158 0
	subf 11,6,10
	cmpw 7,7,11
	ble- 7,.L31
.LVL20:
.L24:
	.loc 1 145 0
	lbz 11,0(9)
	cmpwi 7,11,0
	bne- 7,.L32
	.loc 1 151 0
	lbz 8,1(9)
.LVL21:
	.loc 1 152 0
	addi 9,9,2
.LVL22:
	.loc 1 153 0
	cmpwi 7,8,0
	beq- 7,.L22
	.loc 1 155 0
	mtctr 8
	.loc 1 120 0
	addi 11,10,-1
.LVL23:
.L23:
	.loc 1 155 0
	stbu 0,1(11)
	.loc 1 153 0
	bdnz .L23
	add 10,10,8
.LVL24:
	.loc 1 158 0
	subf 11,6,10
	cmpw 7,7,11
	bgt+ 7,.L24
.L31:
	.loc 1 162 0
	blr
.LVL25:
.L30:
	.loc 1 135 0 discriminator 1
	cmpwi 7,7,0
	beqlr- 7
	.loc 1 137 0
	mtctr 7
	.loc 1 135 0
	addi 9,3,-1
.LVL26:
	.loc 1 137 0
	li 0,-1
.LVL27:
.L20:
	stbu 0,1(9)
	.loc 1 135 0
	bdnz .L20
	blr
	.cfi_endproc
.LFE41:
	.size	Mod_DecompressVis, .-Mod_DecompressVis
	.align 2
	.globl Mod_LeafPVS
	.type	Mod_LeafPVS, @function
Mod_LeafPVS:
.LFB42:
	.loc 1 165 0
	.cfi_startproc
.LVL28:
	.loc 1 166 0
	lwz 0,168(4)
	cmpw 7,0,3
	beq- 7,.L34
	.loc 1 168 0
	lwz 3,36(3)
.LVL29:
	.loc 1 169 0
	.loc 1 168 0
	b Mod_DecompressVis
.LVL30:
.L34:
	.loc 1 167 0
	lis 3,mod_novis@ha
.LVL31:
	.loc 1 169 0
	la 3,mod_novis@l(3)
	blr
	.cfi_endproc
.LFE42:
	.size	Mod_LeafPVS, .-Mod_LeafPVS
	.align 2
	.globl Mod_ClearAll
	.type	Mod_ClearAll, @function
Mod_ClearAll:
.LFB43:
	.loc 1 177 0
	.cfi_startproc
.LVL32:
	.loc 1 181 0
	lis 9,mod_numknown@ha
	lwz 0,mod_numknown@l(9)
	cmpwi 7,0,0
	blelr- 7
	lis 9,mod_known@ha
	.loc 1 183 0
	mtctr 0
	.loc 1 181 0
	la 9,mod_known@l(9)
	.loc 1 183 0
	li 11,1
.LVL33:
.L38:
	.loc 1 182 0
	lwz 0,68(9)
	cmpwi 7,0,2
	beq- 7,.L37
	.loc 1 183 0
	stb 11,64(9)
.L37:
	.loc 1 181 0
	addi 9,9,420
.LVL34:
	bdnz .L38
	blr
	.cfi_endproc
.LFE43:
	.size	Mod_ClearAll, .-Mod_ClearAll
	.align 2
	.globl Mod_UncacheAll
	.type	Mod_UncacheAll, @function
Mod_UncacheAll:
.LFB44:
	.loc 1 191 0
	.cfi_startproc
	mflr 0
	stwu 1,-8(1)
.LCFI5:
	.cfi_def_cfa_offset 8
	.cfi_register 65, 0
	stw 0,12(1)
	.loc 1 203 0
	.cfi_offset 65, 4
	bl Cache_Flush
.LVL35:
.LBB4:
.LBB5:
	.loc 1 181 0
	lis 9,mod_numknown@ha
	lwz 0,mod_numknown@l(9)
	cmpwi 7,0,0
	ble- 7,.L40
	lis 9,mod_known@ha
	.loc 1 183 0
	mtctr 0
	.loc 1 181 0
	la 9,mod_known@l(9)
	.loc 1 183 0
	li 11,1
.LVL36:
.L43:
	.loc 1 182 0
	lwz 0,68(9)
	cmpwi 7,0,2
	beq- 7,.L42
	.loc 1 183 0
	stb 11,64(9)
.L42:
	.loc 1 181 0
	addi 9,9,420
.LVL37:
	bdnz .L43
.LVL38:
.L40:
.LBE5:
.LBE4:
	.loc 1 205 0
	lwz 0,12(1)
	addi 1,1,8
.LCFI6:
	.cfi_def_cfa_offset 0
	mtlr 0
	blr
	.cfi_endproc
.LFE44:
	.size	Mod_UncacheAll, .-Mod_UncacheAll
	.align 2
	.globl Mod_FindName
	.type	Mod_FindName, @function
Mod_FindName:
.LFB45:
	.loc 1 214 0
	.cfi_startproc
.LVL39:
	mflr 0
	stwu 1,-32(1)
.LCFI7:
	.cfi_def_cfa_offset 32
	.cfi_register 65, 0
	stw 29,20(1)
	mr 29,3
	.cfi_offset 29, -12
	stw 0,36(1)
	stw 27,12(1)
	stw 28,16(1)
	stw 30,24(1)
	stw 31,28(1)
	.loc 1 218 0
	lbz 0,0(3)
	.cfi_offset 31, -4
	.cfi_offset 30, -8
	.cfi_offset 28, -16
	.cfi_offset 27, -20
	.cfi_offset 65, 4
	cmpwi 7,0,0
	beq- 7,.L55
.LVL40:
.L46:
	.loc 1 224 0
	lis 27,mod_numknown@ha
	lis 31,mod_known@ha
	lwz 28,mod_numknown@l(27)
	la 31,mod_known@l(31)
	cmpwi 7,28,0
	ble- 7,.L47
	li 30,0
	b .L49
.LVL41:
.L57:
	addi 31,31,420
.LVL42:
	beq- 6,.L56
.LVL43:
.L49:
	.loc 1 225 0
	mr 3,31
	mr 4,29
	bl strcmp
	.loc 1 224 0
	addi 30,30,1
	.loc 1 225 0
	cmpwi 7,3,0
	.loc 1 224 0
	cmpw 6,30,28
	.loc 1 225 0
	bne+ 7,.L57
.L48:
	.loc 1 238 0
	lwz 0,36(1)
	mr 3,31
	lwz 27,12(1)
	mtlr 0
	lwz 28,16(1)
	lwz 29,20(1)
.LVL44:
	lwz 30,24(1)
	lwz 31,28(1)
	addi 1,1,32
	.cfi_remember_state
.LCFI8:
	.cfi_def_cfa_offset 0
	.cfi_restore 31
	.cfi_restore 30
	.cfi_restore 29
	.cfi_restore 28
	.cfi_restore 27
	blr
.LVL45:
.L56:
.LCFI9:
	.cfi_restore_state
	.loc 1 230 0
	cmpwi 7,30,512
	beq- 7,.L58
.LVL46:
.L51:
	.loc 1 232 0
	mr 3,31
	mr 4,29
	bl strcpy
	.loc 1 234 0
	lwz 9,mod_numknown@l(27)
	.loc 1 238 0
	mr 3,31
	lwz 28,16(1)
	.loc 1 234 0
	addi 0,9,1
	.loc 1 233 0
	li 9,1
	.loc 1 234 0
	stw 0,mod_numknown@l(27)
	.loc 1 238 0
	lwz 0,36(1)
	.loc 1 233 0
	stb 9,64(31)
	.loc 1 238 0
	mtlr 0
	lwz 27,12(1)
	lwz 29,20(1)
.LVL47:
	lwz 30,24(1)
	lwz 31,28(1)
	addi 1,1,32
	.cfi_remember_state
	.cfi_restore 27
	.cfi_restore 28
	.cfi_restore 29
	.cfi_restore 30
	.cfi_restore 31
.LCFI10:
	.cfi_def_cfa_offset 0
	blr
.LVL48:
.L55:
.LCFI11:
	.cfi_restore_state
	.loc 1 219 0
	lis 3,.LC2@ha
.LVL49:
	la 3,.LC2@l(3)
	crxor 6,6,6
	bl Sys_Error
	b .L46
.LVL50:
.L58:
	.loc 1 231 0
	lis 3,.LC3@ha
	la 3,.LC3@l(3)
	crxor 6,6,6
	bl Sys_Error
	b .L51
.LVL51:
.L47:
	.loc 1 228 0
	bne+ 7,.L48
	b .L51
	.cfi_endproc
.LFE45:
	.size	Mod_FindName, .-Mod_FindName
	.align 2
	.globl Mod_TouchModel
	.type	Mod_TouchModel, @function
Mod_TouchModel:
.LFB46:
	.loc 1 247 0
	.cfi_startproc
.LVL52:
	mflr 0
	stwu 1,-8(1)
.LCFI12:
	.cfi_def_cfa_offset 8
	.cfi_register 65, 0
	stw 0,12(1)
	.loc 1 250 0
	.cfi_offset 65, 4
	bl Mod_FindName
.LVL53:
	.loc 1 252 0
	lbz 0,64(3)
	cmpwi 7,0,0
	bne- 7,.L59
	.loc 1 254 0
	lwz 0,68(3)
	cmpwi 7,0,2
	beq- 7,.L61
.L59:
	.loc 1 257 0
	lwz 0,12(1)
	addi 1,1,8
	.cfi_remember_state
.LCFI13:
	.cfi_def_cfa_offset 0
	mtlr 0
	blr
.L61:
.LCFI14:
	.cfi_restore_state
	.loc 1 255 0
	addi 3,3,416
.LVL54:
	bl Cache_Check
.LVL55:
	.loc 1 257 0
	lwz 0,12(1)
	addi 1,1,8
.LCFI15:
	.cfi_def_cfa_offset 0
	mtlr 0
	blr
	.cfi_endproc
.LFE46:
	.size	Mod_TouchModel, .-Mod_TouchModel
	.align 2
	.globl Mod_OverrideMd3
	.type	Mod_OverrideMd3, @function
Mod_OverrideMd3:
.LFB48:
	.loc 1 348 0
	.cfi_startproc
.LVL56:
	stwu 1,-16(1)
.LCFI16:
	.cfi_def_cfa_offset 16
	mflr 0
	stw 31,12(1)
	mr 31,3
	.cfi_offset 31, -4
	.cfi_register 65, 0
	.loc 1 352 0
	mr 3,4
.LVL57:
	mr 4,31
.LVL58:
	.loc 1 348 0
	stw 0,20(1)
	stw 30,8(1)
	.loc 1 354 0
	.cfi_offset 30, -8
	.cfi_offset 65, 4
	bl strcpy
.LVL59:
	.loc 1 356 0
	lwz 0,20(1)
	lwz 30,8(1)
	mtlr 0
	lwz 31,12(1)
.LVL60:
	addi 1,1,16
.LCFI17:
	.cfi_def_cfa_offset 0
	.cfi_restore 31
	.cfi_restore 30
	blr
	.cfi_endproc
.LFE48:
	.size	Mod_OverrideMd3, .-Mod_OverrideMd3
	.align 2
	.globl Mod_LoadTextures
	.type	Mod_LoadTextures, @function
Mod_LoadTextures:
.LFB50:
	.loc 1 397 0
	.cfi_startproc
.LVL61:
	mflr 0
	stwu 1,-168(1)
.LCFI18:
	.cfi_def_cfa_offset 168
	.cfi_register 65, 0
	mfcr 12
	stw 15,100(1)
	stw 0,172(1)
	stw 16,104(1)
	.loc 1 405 0
	lwz 0,4(3)
	.cfi_offset 16, -64
	.cfi_offset 65, 4
	.cfi_offset 15, -68
	.cfi_register 70, 12
	.loc 1 397 0
	stw 17,108(1)
	.loc 1 405 0
	cmpwi 7,0,0
	.loc 1 397 0
	stw 18,112(1)
	stw 19,116(1)
	stw 20,120(1)
	stw 21,124(1)
	stw 22,128(1)
	stw 23,132(1)
	stw 24,136(1)
	stw 25,140(1)
	stw 26,144(1)
	stw 27,148(1)
	stw 28,152(1)
	stw 29,156(1)
	stw 30,160(1)
	stw 31,164(1)
	stw 12,96(1)
	.loc 1 405 0
	bne- 7,.L66
	.cfi_offset 70, -72
	.cfi_offset 31, -4
	.cfi_offset 30, -8
	.cfi_offset 29, -12
	.cfi_offset 28, -16
	.cfi_offset 27, -20
	.cfi_offset 26, -24
	.cfi_offset 25, -28
	.cfi_offset 24, -32
	.cfi_offset 23, -36
	.cfi_offset 22, -40
	.cfi_offset 21, -44
	.cfi_offset 20, -48
	.cfi_offset 19, -52
	.cfi_offset 18, -56
	.cfi_offset 17, -60
	.loc 1 407 0
	lis 9,loadmodel@ha
	lwz 9,loadmodel@l(9)
	stw 0,400(9)
.LVL62:
.L65:
	.loc 1 554 0
	lwz 0,172(1)
	lwz 12,96(1)
	mtlr 0
	lwz 15,100(1)
	lwz 16,104(1)
	mtcrf 24,12
	lwz 17,108(1)
	lwz 18,112(1)
	lwz 19,116(1)
	lwz 20,120(1)
	lwz 21,124(1)
	lwz 22,128(1)
	lwz 23,132(1)
	lwz 24,136(1)
	lwz 25,140(1)
	lwz 26,144(1)
	lwz 27,148(1)
	lwz 28,152(1)
	lwz 29,156(1)
	lwz 30,160(1)
	lwz 31,164(1)
	addi 1,1,168
	.cfi_remember_state
.LCFI19:
	.cfi_def_cfa_offset 0
	.cfi_restore 70
	.cfi_restore 31
	.cfi_restore 30
	.cfi_restore 29
	.cfi_restore 28
	.cfi_restore 27
	.cfi_restore 26
	.cfi_restore 25
	.cfi_restore 24
	.cfi_restore 23
	.cfi_restore 22
	.cfi_restore 21
	.cfi_restore 20
	.cfi_restore 19
	.cfi_restore 18
	.cfi_restore 17
	.cfi_restore 16
	.cfi_restore 15
	blr
.LVL63:
.L66:
.LCFI20:
	.cfi_restore_state
	.loc 1 410 0
	lis 9,mod_base@ha
	.loc 1 412 0
	lis 29,LittleLong@ha
	.loc 1 410 0
	lwz 30,mod_base@l(9)
	.loc 1 414 0
	lis 24,loadmodel@ha
	.loc 1 410 0
	lwz 31,0(3)
	.loc 1 415 0
	lis 25,loadname@ha
	.loc 1 412 0
	lwz 0,LittleLong@l(29)
	.loc 1 415 0
	la 25,loadname@l(25)
	.loc 1 412 0
	lwzx 3,30,31
.LVL64:
	.loc 1 410 0
	add 27,30,31
.LVL65:
	.loc 1 412 0
	mtctr 0
	bctrl
.LVL66:
	.loc 1 414 0
	lwz 28,loadmodel@l(24)
	.loc 1 412 0
	stwx 3,30,31
	.loc 1 415 0
	mr 4,25
	.loc 1 414 0
	stw 3,396(28)
	.loc 1 415 0
	slwi 3,3,2
	bl Hunk_AllocName
	.loc 1 417 0
	lwzx 0,30,31
	.loc 1 415 0
	stw 3,400(28)
.LVL67:
	.loc 1 417 0
	cmpwi 7,0,0
	ble- 7,.L65
	.loc 1 443 0
	lis 23,.LC6@ha
	.loc 1 429 0
	lis 21,.LC5@ha
	.loc 1 417 0
	li 28,0
	li 26,0
	la 29,LittleLong@l(29)
	.loc 1 443 0
	la 23,.LC6@l(23)
	.loc 1 450 0
	lis 22,cls@ha
	.loc 1 453 0
	lis 20,texture_mode@ha
	li 18,9985
	.loc 1 456 0
	li 19,9729
	.loc 1 429 0
	la 21,.LC5@l(21)
.LVL68:
.L74:
	.loc 1 419 0
	lwz 0,0(29)
	.loc 1 396 0
	add 31,27,28
	.loc 1 419 0
	lwz 3,4(31)
	mtctr 0
	bctrl
	.loc 1 420 0
	cmpwi 7,3,-1
	.loc 1 419 0
	mr 16,3
	stw 3,4(31)
	.loc 1 420 0
	beq- 7,.L68
	.loc 1 423 0
	lwz 0,0(29)
	.loc 1 422 0
	add 31,27,3
.LVL69:
	.loc 1 423 0
	lwz 3,16(31)
	.loc 1 424 0
	mr 17,31
	.loc 1 423 0
	mtctr 0
	bctrl
	.loc 1 424 0
	lwz 0,0(29)
	.loc 1 423 0
	stw 3,16(31)
	.loc 1 424 0
	mtctr 0
	lwz 3,20(31)
	bctrl
	.loc 1 396 0
	li 0,4
	.loc 1 424 0
	stwu 3,20(17)
.LVL70:
	.loc 1 396 0
	stw 0,88(1)
	mr 30,17
.LVL71:
.L69:
	.loc 1 426 0 discriminator 2
	lwz 0,0(29)
	lwzu 3,4(30)
	mtctr 0
	bctrl
	.loc 1 425 0 discriminator 2
	lwz 0,88(1)
	.loc 1 426 0 discriminator 2
	stw 3,0(30)
	.loc 1 425 0 discriminator 2
	addic. 9,0,-1
	stw 9,88(1)
	bne+ 0,.L69
	.loc 1 428 0
	lwz 0,16(31)
	andi. 9,0,15
	bne- 0,.L70
	.loc 1 428 0 is_stmt 0 discriminator 1
	lwz 15,20(31)
	andi. 9,15,15
	beq- 0,.L71
.L70:
	.loc 1 429 0 is_stmt 1
	mr 3,21
	mr 4,31
	crxor 6,6,6
	bl Sys_Error
	lwz 0,16(31)
	lwz 15,20(31)
.L71:
	.loc 1 430 0
	mullw 15,15,0
	.loc 1 431 0
	mr 4,25
	.loc 1 430 0
	srwi 15,15,6
	mulli 15,15,85
.LVL72:
	.loc 1 431 0
	addi 3,15,72
	bl Hunk_AllocName
	.loc 1 432 0
	lwz 11,loadmodel@l(24)
	.loc 1 437 0
	li 0,4
	.loc 1 431 0
	mr 30,3
.LVL73:
	.loc 1 432 0
	lwz 11,400(11)
	.loc 1 437 0
	mtctr 0
	.loc 1 396 0
	addi 9,3,52
	.loc 1 432 0
	stwx 3,11,28
	.loc 1 434 0
	lwz 11,8(31)
	lwz 0,12(31)
	lwzx 8,27,16
	lwz 10,4(31)
	stw 8,0(3)
	stw 10,4(3)
	stw 11,8(3)
	stw 0,12(3)
	.loc 1 435 0
	lwz 11,16(31)
	.loc 1 436 0
	lwz 0,20(31)
	.loc 1 435 0
	stw 11,16(3)
	.loc 1 436 0
	stw 0,20(3)
.LVL74:
.L72:
	.loc 1 438 0 discriminator 2
	lwzu 11,4(17)
	addi 0,11,32
	stwu 0,4(9)
	.loc 1 437 0 discriminator 2
	bdnz .L72
	.loc 1 440 0
	addi 17,30,72
	mr 5,15
	addi 4,31,40
	mr 3,17
.LVL75:
	bl memcpy
	.loc 1 443 0
	mr 3,31
	mr 4,23
	li 5,3
	bl Q_strncmp
	cmpwi 7,3,0
	beq- 7,.L110
	.loc 1 450 0
	lwz 0,cls@l(22)
	cmpwi 7,0,0
	bne- 7,.L111
.LVL76:
.L68:
	.loc 1 417 0
	lwz 15,0(27)
	addi 26,26,1
.LVL77:
	addi 28,28,4
	cmpw 7,15,26
	bgt+ 7,.L74
.LVL78:
	.loc 1 463 0 discriminator 1
	cmpwi 7,15,0
	ble- 7,.L65
	lis 26,loadmodel@ha
	.loc 1 543 0
	lis 17,.LC8@ha
	.loc 1 522 0
	lis 16,.LC7@ha
	.loc 1 463 0
	li 30,1
	li 29,0
	la 26,loadmodel@l(26)
	.loc 1 473 0
	addi 20,1,8
	.loc 1 543 0
	la 17,.LC8@l(17)
	.loc 1 522 0
	la 16,.LC7@l(16)
.LVL79:
.L96:
	.loc 1 465 0
	lwz 9,0(26)
	lwz 9,400(9)
	lwzx 31,9,29
.LVL80:
	.loc 1 466 0
	cmpwi 7,31,0
	beq- 7,.L109
	.loc 1 466 0 is_stmt 0 discriminator 1
	lbz 0,0(31)
	cmpwi 7,0,43
	beq- 7,.L77
.L109:
	.loc 1 468 0 is_stmt 1
	mr 28,30
.LVL81:
.L76:
	.loc 1 463 0
	cmpw 7,15,28
	.loc 1 539 0
	addi 29,29,4
	addi 30,30,1
.LVL82:
	.loc 1 463 0
	bgt+ 7,.L96
	b .L65
.LVL83:
.L77:
	.loc 1 468 0
	lwz 0,48(31)
	cmpwi 7,0,0
	bne+ 7,.L109
	.loc 1 472 0
	li 4,0
	li 5,40
	addi 3,1,48
	bl memset
	.loc 1 473 0
	mr 3,20
	li 4,0
	li 5,40
	bl memset
	.loc 1 475 0
	lbz 23,1(31)
.LVL84:
	.loc 1 477 0
	addi 0,23,-97
	cmplwi 7,0,25
	bgt- 7,.L79
	.loc 1 478 0
	addi 23,23,-32
.LVL85:
.L79:
	.loc 1 479 0
	addi 0,23,-48
	cmplwi 7,0,9
	ble- 7,.L112
	.loc 1 486 0
	addi 0,23,-65
	cmplwi 7,0,9
	bgt- 7,.L82
.LVL86:
	.loc 1 490 0
	slwi 0,0,2
.LVL87:
	.loc 1 491 0
	addi 22,23,-64
.LVL88:
	.loc 1 490 0
	stwx 31,20,0
	.loc 1 489 0
	li 23,0
.LVL89:
.L81:
	.loc 1 496 0
	lwz 15,0(27)
	mr 28,30
.LVL90:
	cmpw 7,30,15
	bge- 7,.L83
	slwi 21,30,2
	mr 24,30
	.loc 1 501 0
	addi 19,31,2
	b .L88
.LVL91:
.L84:
	.loc 1 496 0
	addi 24,24,1
.LVL92:
	addi 21,21,4
	cmpw 7,15,24
	ble- 7,.L83
.LVL93:
.L88:
	.loc 1 498 0
	lwz 9,0(26)
	lwz 9,400(9)
	lwzx 25,9,21
.LVL94:
	.loc 1 499 0
	cmpwi 7,25,0
	beq- 7,.L84
	.loc 1 499 0 is_stmt 0 discriminator 1
	lbz 0,0(25)
	cmpwi 7,0,43
	bne+ 7,.L84
	.loc 1 501 0 is_stmt 1
	addi 3,25,2
	mr 4,19
	bl strcmp
.LVL95:
	cmpwi 7,3,0
	bne- 7,.L84
	.loc 1 504 0
	lbz 9,1(25)
.LVL96:
	.loc 1 505 0
	addi 0,9,-97
	cmplwi 7,0,25
	bgt- 7,.L85
	.loc 1 506 0
	addi 9,9,-32
.LVL97:
.L85:
	.loc 1 507 0
	addi 0,9,-48
	cmplwi 7,0,9
	bgt- 7,.L86
.LVL98:
	.loc 1 511 0
	cmpw 7,0,23
	.loc 1 510 0
	slwi 0,0,2
.LVL99:
	add 11,20,0
	stw 25,40(11)
	.loc 1 511 0
	blt- 7,.L84
	.loc 1 512 0
	addi 23,9,-47
.LVL100:
	b .L84
.LVL101:
.L110:
	.loc 1 444 0
	mr 3,30
	bl R_InitSky
	b .L68
.L111:
	.loc 1 454 0
	lwz 4,16(30)
	mr 6,17
	lwz 5,20(30)
	li 7,0
	li 8,0
	li 9,1
	mr 3,31
	.loc 1 453 0
	stw 18,texture_mode@l(20)
	.loc 1 454 0
	bl GL_LoadTexture
	.loc 1 455 0
	li 4,1
	.loc 1 454 0
	stw 3,24(30)
	.loc 1 455 0
	mr 3,31
	bl GL_LoadLuma
	.loc 1 456 0
	stw 19,texture_mode@l(20)
	.loc 1 455 0
	stw 3,28(30)
	b .L68
.LVL102:
.L112:
	.loc 1 483 0
	slwi 0,0,2
	.loc 1 484 0
	addi 23,23,-47
.LVL103:
	.loc 1 483 0
	add 9,20,0
	.loc 1 482 0
	li 22,0
	.loc 1 483 0
	stw 31,40(9)
	b .L81
.LVL104:
.L83:
	.loc 1 527 0 discriminator 1
	cmpwi 3,23,0
	cmpwi 4,22,0
	ble- 3,.L89
	.loc 1 527 0 is_stmt 0
	slwi 18,23,1
	addi 19,1,44
	li 24,0
	li 21,0
.LVL105:
.L92:
	.loc 1 529 0 is_stmt 1
	lwzu 25,4(19)
.LVL106:
	.loc 1 530 0
	cmpwi 7,25,0
	beq- 7,.L113
.LVL107:
.L90:
	.loc 1 534 0
	addi 24,24,1
	.loc 1 533 0
	stw 21,40(25)
	.loc 1 535 0
	divw 9,24,23
	.loc 1 396 0
	slwi 21,24,1
	.loc 1 527 0
	cmpw 7,24,23
	.loc 1 532 0
	stw 18,36(25)
	.loc 1 534 0
	stw 21,44(25)
	.loc 1 535 0
	mullw 9,9,23
	subf 9,9,24
	slwi 9,9,2
	add 9,20,9
	lwz 0,40(9)
	stw 0,48(25)
	.loc 1 536 0
	beq- 4,.L91
	.loc 1 537 0
	lwz 0,8(1)
	stw 0,52(25)
.L91:
.LVL108:
	.loc 1 527 0
	bne+ 7,.L92
.LVL109:
.L89:
	.loc 1 539 0 discriminator 1
	ble- 4,.L108
	.loc 1 539 0 is_stmt 0
	slwi 19,22,1
	addi 21,1,4
	li 24,0
	li 23,0
.LVL110:
.L95:
	.loc 1 541 0 is_stmt 1
	lwzu 25,4(21)
.LVL111:
	.loc 1 542 0
	cmpwi 7,25,0
	beq- 7,.L114
.LVL112:
.L93:
	.loc 1 546 0
	addi 24,24,1
	.loc 1 545 0
	stw 23,40(25)
	.loc 1 547 0
	divw 0,24,22
	.loc 1 396 0
	slwi 23,24,1
	.loc 1 539 0
	cmpw 7,24,22
	.loc 1 544 0
	stw 19,36(25)
	.loc 1 546 0
	stw 23,44(25)
	.loc 1 547 0
	mullw 0,0,22
	subf 0,0,24
	slwi 0,0,2
	lwzx 0,20,0
	stw 0,48(25)
	.loc 1 548 0
	beq- 3,.L94
	.loc 1 549 0
	lwz 0,48(1)
	stw 0,52(25)
.L94:
.LVL113:
	.loc 1 539 0
	bne+ 7,.L95
.LVL114:
.L108:
	lwz 15,0(27)
	b .L76
.LVL115:
.L114:
	.loc 1 543 0
	mr 4,24
	mr 3,17
	mr 5,31
	crxor 6,6,6
	bl Sys_Error
	b .L93
.LVL116:
.L113:
	.loc 1 531 0
	mr 4,24
	mr 3,17
	mr 5,31
	crxor 6,6,6
	bl Sys_Error
	b .L90
.LVL117:
.L86:
	.loc 1 514 0
	addi 0,9,-65
	cmplwi 7,0,9
	bgt- 7,.L87
.LVL118:
	.loc 1 518 0
	cmpw 7,22,0
	.loc 1 517 0
	slwi 0,0,2
.LVL119:
	stwx 25,20,0
	.loc 1 518 0
	bgt- 7,.L84
	.loc 1 519 0
	addi 22,9,-64
.LVL120:
	b .L84
.LVL121:
.L87:
	.loc 1 522 0
	mr 3,16
	mr 4,31
	crxor 6,6,6
	bl Sys_Error
.LVL122:
	lwz 15,0(27)
	b .L84
.LVL123:
.L82:
	.loc 1 494 0
	mr 3,16
	mr 4,31
	crxor 6,6,6
	bl Sys_Error
	.loc 1 476 0
	li 22,0
	b .L81
	.cfi_endproc
.LFE50:
	.size	Mod_LoadTextures, .-Mod_LoadTextures
	.align 2
	.globl Mod_LoadLighting
	.type	Mod_LoadLighting, @function
Mod_LoadLighting:
.LFB51:
	.loc 1 562 0
	.cfi_startproc
.LVL124:
	mflr 0
	stwu 1,-24(1)
.LCFI21:
	.cfi_def_cfa_offset 24
	.cfi_register 65, 0
	stw 31,20(1)
	mr 31,3
	.cfi_offset 31, -4
	stw 0,28(1)
	stw 29,12(1)
	.loc 1 563 0
	lwz 3,4(3)
.LVL125:
	.loc 1 562 0
	stw 30,16(1)
	.loc 1 563 0
	cmpwi 7,3,0
	bne- 7,.L116
	.cfi_offset 30, -8
	.cfi_offset 29, -12
	.cfi_offset 65, 4
	.loc 1 570 0
	lwz 0,28(1)
	.loc 1 565 0
	lis 9,loadmodel@ha
	lwz 9,loadmodel@l(9)
	.loc 1 570 0
	mtlr 0
	lwz 29,12(1)
	lwz 30,16(1)
	lwz 31,20(1)
.LVL126:
	.loc 1 565 0
	stw 3,408(9)
	.loc 1 570 0
	addi 1,1,24
	.cfi_remember_state
.LCFI22:
	.cfi_def_cfa_offset 0
	.cfi_restore 31
	.cfi_restore 30
	.cfi_restore 29
	blr
.LVL127:
.L116:
.LCFI23:
	.cfi_restore_state
	.loc 1 568 0
	lis 30,loadmodel@ha
	lis 4,loadname@ha
	lwz 29,loadmodel@l(30)
	la 4,loadname@l(4)
	bl Hunk_AllocName
	.loc 1 569 0
	lwz 9,loadmodel@l(30)
	.loc 1 568 0
	stw 3,408(29)
	.loc 1 569 0
	lis 11,mod_base@ha
	lwz 0,0(31)
	lwz 4,mod_base@l(11)
	lwz 5,4(31)
	lwz 3,408(9)
	add 4,4,0
	bl memcpy
	.loc 1 570 0
	lwz 0,28(1)
	lwz 29,12(1)
	mtlr 0
	lwz 30,16(1)
	lwz 31,20(1)
.LVL128:
	addi 1,1,24
	.cfi_restore 29
	.cfi_restore 30
	.cfi_restore 31
.LCFI24:
	.cfi_def_cfa_offset 0
	blr
	.cfi_endproc
.LFE51:
	.size	Mod_LoadLighting, .-Mod_LoadLighting
	.align 2
	.globl Mod_LoadVisibility
	.type	Mod_LoadVisibility, @function
Mod_LoadVisibility:
.LFB52:
	.loc 1 579 0
	.cfi_startproc
.LVL129:
	mflr 0
	stwu 1,-24(1)
.LCFI25:
	.cfi_def_cfa_offset 24
	.cfi_register 65, 0
	stw 31,20(1)
	mr 31,3
	.cfi_offset 31, -4
	stw 0,28(1)
	stw 29,12(1)
	.loc 1 580 0
	lwz 3,4(3)
.LVL130:
	.loc 1 579 0
	stw 30,16(1)
	.loc 1 580 0
	cmpwi 7,3,0
	bne- 7,.L119
	.cfi_offset 30, -8
	.cfi_offset 29, -12
	.cfi_offset 65, 4
	.loc 1 587 0
	lwz 0,28(1)
	.loc 1 582 0
	lis 9,loadmodel@ha
	lwz 9,loadmodel@l(9)
	.loc 1 587 0
	mtlr 0
	lwz 29,12(1)
	lwz 30,16(1)
	lwz 31,20(1)
.LVL131:
	.loc 1 582 0
	stw 3,404(9)
	.loc 1 587 0
	addi 1,1,24
	.cfi_remember_state
.LCFI26:
	.cfi_def_cfa_offset 0
	.cfi_restore 31
	.cfi_restore 30
	.cfi_restore 29
	blr
.LVL132:
.L119:
.LCFI27:
	.cfi_restore_state
	.loc 1 585 0
	lis 30,loadmodel@ha
	lis 4,loadname@ha
	lwz 29,loadmodel@l(30)
	la 4,loadname@l(4)
	bl Hunk_AllocName
	.loc 1 586 0
	lwz 9,loadmodel@l(30)
	.loc 1 585 0
	stw 3,404(29)
	.loc 1 586 0
	lis 11,mod_base@ha
	lwz 0,0(31)
	lwz 4,mod_base@l(11)
	lwz 5,4(31)
	lwz 3,404(9)
	add 4,4,0
	bl memcpy
	.loc 1 587 0
	lwz 0,28(1)
	lwz 29,12(1)
	mtlr 0
	lwz 30,16(1)
	lwz 31,20(1)
.LVL133:
	addi 1,1,24
	.cfi_restore 29
	.cfi_restore 30
	.cfi_restore 31
.LCFI28:
	.cfi_def_cfa_offset 0
	blr
	.cfi_endproc
.LFE52:
	.size	Mod_LoadVisibility, .-Mod_LoadVisibility
	.align 2
	.globl Mod_LoadEntities
	.type	Mod_LoadEntities, @function
Mod_LoadEntities:
.LFB53:
	.loc 1 596 0
	.cfi_startproc
.LVL134:
	stwu 1,-168(1)
.LCFI29:
	.cfi_def_cfa_offset 168
	mflr 0
	.loc 1 601 0
	lis 4,.LC9@ha
	.loc 1 596 0
	stw 31,164(1)
	.loc 1 601 0
	lis 31,loadname@ha
	.cfi_offset 31, -4
	.cfi_register 65, 0
	la 31,loadname@l(31)
	.loc 1 596 0
	stw 29,156(1)
	.loc 1 601 0
	la 4,.LC9@l(4)
	mr 5,31
	.loc 1 596 0
	mr 29,3
	.cfi_offset 29, -12
	.loc 1 601 0
	addi 3,1,12
.LVL135:
	.loc 1 596 0
	stw 0,172(1)
	stw 30,160(1)
	stw 28,152(1)
	.loc 1 601 0
	.cfi_offset 28, -16
	.cfi_offset 30, -8
	.cfi_offset 65, 4
	crxor 6,6,6
	bl sprintf
	.loc 1 602 0
	addi 3,1,12
	addi 4,1,8
	bl COM_FOpenFile
.LVL136:
	.loc 1 604 0
	lwz 0,8(1)
	.loc 1 602 0
	mr 30,3
.LVL137:
	.loc 1 604 0
	cmpwi 7,0,0
	beq- 7,.L122
	.loc 1 605 0
	lis 3,.LC10@ha
.LVL138:
	.loc 1 606 0
	lis 29,loadmodel@ha
.LVL139:
	.loc 1 605 0
	la 3,.LC10@l(3)
	crxor 6,6,6
	bl Con_Printf
	.loc 1 606 0
	lwz 28,loadmodel@l(29)
	mr 4,31
	mr 3,30
	bl Hunk_AllocName
	.loc 1 607 0
	lwz 9,loadmodel@l(29)
	.loc 1 606 0
	stw 3,412(28)
	.loc 1 607 0
	mr 5,30
	lwz 6,8(1)
	li 4,1
	lwz 3,412(9)
	bl fread
	.loc 1 608 0
	lwz 3,8(1)
	bl fclose
	.loc 1 619 0
	lwz 0,172(1)
	lwz 28,152(1)
	mtlr 0
	lwz 29,156(1)
	lwz 30,160(1)
.LVL140:
	lwz 31,164(1)
	addi 1,1,168
	.cfi_remember_state
.LCFI30:
	.cfi_def_cfa_offset 0
	.cfi_restore 31
	.cfi_restore 30
	.cfi_restore 29
	.cfi_restore 28
	blr
.LVL141:
.L122:
.LCFI31:
	.cfi_restore_state
	.loc 1 612 0
	lwz 3,4(29)
.LVL142:
	cmpwi 7,3,0
	bne- 7,.L124
	.loc 1 619 0
	lwz 0,172(1)
	.loc 1 614 0
	lis 9,loadmodel@ha
	lwz 9,loadmodel@l(9)
	.loc 1 619 0
	mtlr 0
	lwz 28,152(1)
	lwz 29,156(1)
.LVL143:
	lwz 30,160(1)
.LVL144:
	lwz 31,164(1)
	.loc 1 614 0
	stw 3,412(9)
	.loc 1 619 0
	addi 1,1,168
	.cfi_remember_state
	.cfi_restore 28
	.cfi_restore 29
	.cfi_restore 30
	.cfi_restore 31
.LCFI32:
	.cfi_def_cfa_offset 0
	blr
.LVL145:
.L124:
.LCFI33:
	.cfi_restore_state
	.loc 1 617 0
	lis 30,loadmodel@ha
.LVL146:
	mr 4,31
	lwz 28,loadmodel@l(30)
	bl Hunk_AllocName
	.loc 1 618 0
	lwz 9,loadmodel@l(30)
	lis 11,mod_base@ha
	.loc 1 617 0
	stw 3,412(28)
	.loc 1 618 0
	lwz 0,0(29)
	lwz 4,mod_base@l(11)
	lwz 5,4(29)
	lwz 3,412(9)
	add 4,4,0
	bl memcpy
	.loc 1 619 0
	lwz 0,172(1)
	lwz 28,152(1)
	mtlr 0
	lwz 29,156(1)
.LVL147:
	lwz 30,160(1)
	lwz 31,164(1)
	addi 1,1,168
	.cfi_restore 28
	.cfi_restore 29
	.cfi_restore 30
	.cfi_restore 31
.LCFI34:
	.cfi_def_cfa_offset 0
	blr
	.cfi_endproc
.LFE53:
	.size	Mod_LoadEntities, .-Mod_LoadEntities
	.align 2
	.globl Mod_LoadVertexes
	.type	Mod_LoadVertexes, @function
Mod_LoadVertexes:
.LFB54:
	.loc 1 628 0
	.cfi_startproc
.LVL148:
	mflr 0
	stwu 1,-32(1)
.LCFI35:
	.cfi_def_cfa_offset 32
	.cfi_register 65, 0
	.loc 1 634 0
	lis 9,0xaaaa
	.loc 1 633 0
	lis 11,mod_base@ha
	.loc 1 634 0
	ori 9,9,43691
	.loc 1 628 0
	stw 28,16(1)
	stw 0,36(1)
	stw 29,20(1)
	.loc 1 634 0
	lwz 0,4(3)
	.cfi_offset 29, -12
	.cfi_offset 65, 4
	.cfi_offset 28, -16
	.loc 1 628 0
	stw 30,24(1)
	lis 30,loadmodel@ha
	.cfi_offset 30, -8
	.loc 1 634 0
	mulhwu 9,0,9
	.loc 1 628 0
	stw 31,28(1)
	stw 27,12(1)
	.loc 1 628 0
	mr 31,3
	.cfi_offset 27, -20
	.cfi_offset 31, -4
	.loc 1 633 0
	lwz 28,mod_base@l(11)
	lwz 29,0(3)
.LVL149:
	.loc 1 634 0
	srwi 9,9,3
	mulli 9,9,12
	cmpw 7,0,9
	bne- 7,.L131
.LVL150:
.L126:
	.loc 1 636 0
	lis 31,0xaaaa
.LVL151:
	.loc 1 637 0
	lis 4,loadname@ha
	.loc 1 636 0
	ori 31,31,43691
	.loc 1 637 0
	la 4,loadname@l(4)
	.loc 1 636 0
	mulhwu 31,0,31
	srwi 31,31,3
.LVL152:
	.loc 1 637 0
	mulli 3,31,12
	bl Hunk_AllocName
	.loc 1 642 0
	cmpwi 7,31,0
	.loc 1 639 0
	lwz 9,loadmodel@l(30)
	.loc 1 637 0
	mr 27,3
.LVL153:
	.loc 1 639 0
	stw 3,176(9)
	.loc 1 640 0
	stw 31,172(9)
.LVL154:
	.loc 1 642 0
	beq- 7,.L125
	lis 30,LittleFloat@ha
	.loc 1 633 0
	add 29,28,29
.LVL155:
	la 30,LittleFloat@l(30)
	.loc 1 642 0
	li 28,0
.LVL156:
.L128:
	.loc 1 644 0 discriminator 2
	lwz 0,0(30)
	.loc 1 642 0 discriminator 2
	addi 28,28,1
	.loc 1 644 0 discriminator 2
	lfs 1,0(29)
	mtctr 0
	bctrl
	.loc 1 645 0 discriminator 2
	lwz 0,0(30)
	.loc 1 644 0 discriminator 2
	stfs 1,0(27)
	.loc 1 645 0 discriminator 2
	mtctr 0
	lfs 1,4(29)
	bctrl
	.loc 1 646 0 discriminator 2
	lwz 0,0(30)
	.loc 1 645 0 discriminator 2
	stfs 1,4(27)
	.loc 1 646 0 discriminator 2
	mtctr 0
	lfs 1,8(29)
	.loc 1 642 0 discriminator 2
	addi 29,29,12
	.loc 1 646 0 discriminator 2
	bctrl
.LVL157:
	.loc 1 642 0 discriminator 2
	cmpw 7,31,28
	.loc 1 646 0 discriminator 2
	stfs 1,8(27)
	.loc 1 642 0 discriminator 2
	addi 27,27,12
.LVL158:
	bne+ 7,.L128
.LVL159:
.L125:
	.loc 1 648 0
	lwz 0,36(1)
	lwz 27,12(1)
.LVL160:
	mtlr 0
	lwz 28,16(1)
	lwz 29,20(1)
	lwz 30,24(1)
	lwz 31,28(1)
.LVL161:
	addi 1,1,32
	.cfi_remember_state
.LCFI36:
	.cfi_def_cfa_offset 0
	.cfi_restore 31
	.cfi_restore 30
	.cfi_restore 29
	.cfi_restore 28
	.cfi_restore 27
	blr
.LVL162:
.L131:
.LCFI37:
	.cfi_restore_state
	.loc 1 635 0
	lwz 4,loadmodel@l(30)
	lis 3,.LC11@ha
.LVL163:
	la 3,.LC11@l(3)
	crxor 6,6,6
	bl Sys_Error
	lwz 0,4(31)
	b .L126
	.cfi_endproc
.LFE54:
	.size	Mod_LoadVertexes, .-Mod_LoadVertexes
	.align 2
	.globl Mod_LoadSubmodels
	.type	Mod_LoadSubmodels, @function
Mod_LoadSubmodels:
.LFB55:
	.loc 1 656 0
	.cfi_startproc
.LVL164:
	mflr 0
	stwu 1,-64(1)
.LCFI38:
	.cfi_def_cfa_offset 64
	.cfi_register 65, 0
	stw 28,40(1)
	stw 0,68(1)
	stw 29,44(1)
	.loc 1 662 0
	lwz 0,4(3)
	.cfi_offset 29, -20
	.cfi_offset 65, 4
	.cfi_offset 28, -24
	.loc 1 656 0
	stw 30,48(1)
	lis 30,loadmodel@ha
	.cfi_offset 30, -16
	.loc 1 662 0
	andi. 9,0,63
	.loc 1 661 0
	lis 9,mod_base@ha
	.loc 1 656 0
	stw 31,52(1)
	mr 31,3
	.cfi_offset 31, -12
	stfd 31,56(1)
	stw 23,20(1)
	stw 24,24(1)
	stw 25,28(1)
	stw 26,32(1)
	stw 27,36(1)
	.loc 1 661 0
	lwz 28,mod_base@l(9)
	lwz 29,0(3)
.LVL165:
	.loc 1 662 0
	bne- 0,.L143
	.cfi_offset 27, -28
	.cfi_offset 26, -32
	.cfi_offset 25, -36
	.cfi_offset 24, -40
	.cfi_offset 23, -44
	.cfi_offset 63, -8
.LVL166:
.L133:
	.loc 1 664 0
	srwi 31,0,6
.LVL167:
	.loc 1 665 0
	lis 4,loadname@ha
	slwi 3,31,6
	la 4,loadname@l(4)
	bl Hunk_AllocName
	.loc 1 670 0
	cmpwi 7,31,0
	.loc 1 667 0
	lwz 9,loadmodel@l(30)
	.loc 1 665 0
	mr 27,3
.LVL168:
	.loc 1 667 0
	stw 3,152(9)
	.loc 1 668 0
	stw 31,148(9)
.LVL169:
	.loc 1 670 0
	ble- 7,.L132
	lis 30,LittleFloat@ha
	lis 24,.LC12@ha
	lis 26,LittleLong@ha
	.loc 1 661 0
	add 25,28,29
	.loc 1 670 0
	li 23,0
	la 30,LittleFloat@l(30)
	la 24,.LC12@l(24)
	la 26,LittleLong@l(26)
.LVL170:
.L138:
	.loc 1 656 0
	li 0,3
	.loc 1 661 0
	mr 28,25
	.loc 1 656 0
	stw 0,8(1)
	.loc 1 661 0
	mr 29,27
.LVL171:
.L136:
	.loc 1 674 0 discriminator 2
	lwz 0,0(30)
	lfs 1,0(28)
	mtctr 0
	bctrl
	lfs 31,0(24)
	.loc 1 675 0 discriminator 2
	lwz 0,0(30)
	.loc 1 674 0 discriminator 2
	fsubs 1,1,31
	.loc 1 675 0 discriminator 2
	mtctr 0
	.loc 1 674 0 discriminator 2
	stfs 1,0(29)
	.loc 1 675 0 discriminator 2
	lfs 1,12(28)
	bctrl
	.loc 1 676 0 discriminator 2
	lwz 0,0(30)
	.loc 1 675 0 discriminator 2
	fadds 1,1,31
	.loc 1 676 0 discriminator 2
	mtctr 0
	.loc 1 675 0 discriminator 2
	stfs 1,12(29)
	.loc 1 676 0 discriminator 2
	lfs 1,24(28)
	addi 28,28,4
	bctrl
	.loc 1 672 0 discriminator 2
	lwz 0,8(1)
	.loc 1 676 0 discriminator 2
	stfs 1,24(29)
	addi 29,29,4
	.loc 1 672 0 discriminator 2
	addic. 9,0,-1
	stw 9,8(1)
	bne+ 0,.L136
	.loc 1 655 0
	li 0,4
	addi 28,25,32
	stw 0,8(1)
	addi 29,27,32
.L137:
	.loc 1 679 0 discriminator 2
	lwz 0,0(26)
	lwzu 3,4(28)
	mtctr 0
	bctrl
	.loc 1 678 0 discriminator 2
	lwz 0,8(1)
	.loc 1 679 0 discriminator 2
	stwu 3,4(29)
	.loc 1 678 0 discriminator 2
	addic. 9,0,-1
	stw 9,8(1)
	bne+ 0,.L137
	.loc 1 680 0
	lwz 0,0(26)
	.loc 1 670 0
	addi 23,23,1
	.loc 1 680 0
	lwz 3,52(25)
	mtctr 0
	bctrl
	.loc 1 681 0
	lwz 0,0(26)
	.loc 1 680 0
	stw 3,52(27)
	.loc 1 681 0
	mtctr 0
	lwz 3,56(25)
	bctrl
	.loc 1 682 0
	lwz 0,0(26)
	.loc 1 681 0
	stw 3,56(27)
	.loc 1 682 0
	mtctr 0
	lwz 3,60(25)
	.loc 1 670 0
	addi 25,25,64
	.loc 1 682 0
	bctrl
.LVL172:
	.loc 1 670 0
	cmpw 7,31,23
	.loc 1 682 0
	stw 3,60(27)
	.loc 1 670 0
	addi 27,27,64
.LVL173:
	bne+ 7,.L138
.LVL174:
.L132:
	.loc 1 684 0
	lwz 0,68(1)
	lwz 23,20(1)
	mtlr 0
	lwz 24,24(1)
	lwz 25,28(1)
	lwz 26,32(1)
	lwz 27,36(1)
.LVL175:
	lwz 28,40(1)
	lwz 29,44(1)
	lwz 30,48(1)
	lwz 31,52(1)
.LVL176:
	lfd 31,56(1)
	addi 1,1,64
	.cfi_remember_state
.LCFI39:
	.cfi_def_cfa_offset 0
	.cfi_restore 63
	.cfi_restore 31
	.cfi_restore 30
	.cfi_restore 29
	.cfi_restore 28
	.cfi_restore 27
	.cfi_restore 26
	.cfi_restore 25
	.cfi_restore 24
	.cfi_restore 23
	blr
.LVL177:
.L143:
.LCFI40:
	.cfi_restore_state
	.loc 1 663 0
	lwz 4,loadmodel@l(30)
	lis 3,.LC11@ha
.LVL178:
	la 3,.LC11@l(3)
	crxor 6,6,6
	bl Sys_Error
	lwz 0,4(31)
	b .L133
	.cfi_endproc
.LFE55:
	.size	Mod_LoadSubmodels, .-Mod_LoadSubmodels
	.align 2
	.globl Mod_LoadEdges
	.type	Mod_LoadEdges, @function
Mod_LoadEdges:
.LFB56:
	.loc 1 692 0
	.cfi_startproc
.LVL179:
	mflr 0
	stwu 1,-32(1)
.LCFI41:
	.cfi_def_cfa_offset 32
	.cfi_register 65, 0
	.loc 1 697 0
	lis 9,mod_base@ha
	.loc 1 692 0
	stw 31,28(1)
	stw 0,36(1)
	stw 27,12(1)
	.loc 1 698 0
	lwz 31,4(3)
	.cfi_offset 27, -20
	.cfi_offset 65, 4
	.cfi_offset 31, -4
	.loc 1 692 0
	stw 28,16(1)
	.loc 1 698 0
	andi. 0,31,3
	.loc 1 692 0
	stw 29,20(1)
	stw 30,24(1)
	lis 29,loadmodel@ha
	.cfi_offset 30, -8
	.cfi_offset 29, -12
	.cfi_offset 28, -16
	.loc 1 692 0
	mr 30,3
	.loc 1 697 0
	lwz 27,mod_base@l(9)
	lwz 28,0(3)
.LVL180:
	.loc 1 698 0
	bne- 0,.L150
.LVL181:
.L145:
	.loc 1 700 0
	srwi 31,31,2
.LVL182:
	.loc 1 701 0
	lis 4,loadname@ha
	addi 3,31,1
	la 4,loadname@l(4)
	slwi 3,3,3
	bl Hunk_AllocName
	.loc 1 706 0
	cmpwi 7,31,0
	.loc 1 703 0
	lwz 9,loadmodel@l(29)
	.loc 1 701 0
	mr 30,3
.LVL183:
	.loc 1 703 0
	stw 3,184(9)
	.loc 1 704 0
	stw 31,180(9)
.LVL184:
	.loc 1 706 0
	ble- 7,.L144
	.loc 1 697 0
	add 28,27,28
.LVL185:
	lis 27,LittleShort@ha
	.loc 1 706 0
	li 29,0
	la 27,LittleShort@l(27)
.LVL186:
.L147:
	.loc 1 708 0 discriminator 2
	lwz 0,0(27)
	.loc 1 706 0 discriminator 2
	addi 29,29,1
	.loc 1 708 0 discriminator 2
	lha 3,0(28)
	mtctr 0
	bctrl
	.loc 1 709 0 discriminator 2
	lwz 0,0(27)
	.loc 1 708 0 discriminator 2
	sth 3,0(30)
	.loc 1 709 0 discriminator 2
	mtctr 0
	lha 3,2(28)
	.loc 1 706 0 discriminator 2
	addi 28,28,4
	.loc 1 709 0 discriminator 2
	bctrl
.LVL187:
	.loc 1 706 0 discriminator 2
	cmpw 7,31,29
	.loc 1 709 0 discriminator 2
	sth 3,2(30)
	.loc 1 706 0 discriminator 2
	addi 30,30,8
.LVL188:
	bne+ 7,.L147
.LVL189:
.L144:
	.loc 1 711 0
	lwz 0,36(1)
	lwz 27,12(1)
	mtlr 0
	lwz 28,16(1)
	lwz 29,20(1)
	lwz 30,24(1)
.LVL190:
	lwz 31,28(1)
.LVL191:
	addi 1,1,32
	.cfi_remember_state
.LCFI42:
	.cfi_def_cfa_offset 0
	.cfi_restore 31
	.cfi_restore 30
	.cfi_restore 29
	.cfi_restore 28
	.cfi_restore 27
	blr
.LVL192:
.L150:
.LCFI43:
	.cfi_restore_state
	.loc 1 699 0
	lwz 4,loadmodel@l(29)
	lis 3,.LC11@ha
.LVL193:
	la 3,.LC11@l(3)
	crxor 6,6,6
	bl Sys_Error
	lwz 31,4(30)
	b .L145
	.cfi_endproc
.LFE56:
	.size	Mod_LoadEdges, .-Mod_LoadEdges
	.align 2
	.globl Mod_LoadTexinfo
	.type	Mod_LoadTexinfo, @function
Mod_LoadTexinfo:
.LFB57:
	.loc 1 719 0
	.cfi_startproc
.LVL194:
	mflr 0
	stwu 1,-88(1)
.LCFI44:
	.cfi_def_cfa_offset 88
	.cfi_register 65, 0
	.loc 1 727 0
	lis 9,0xcccc
	.loc 1 726 0
	lis 11,mod_base@ha
	.loc 1 727 0
	ori 9,9,52429
	.loc 1 719 0
	stw 28,64(1)
	stw 0,92(1)
	stw 29,68(1)
	.loc 1 727 0
	lwz 0,4(3)
	.cfi_offset 29, -20
	.cfi_offset 65, 4
	.cfi_offset 28, -24
	.loc 1 719 0
	stw 30,72(1)
	lis 30,loadmodel@ha
	.cfi_offset 30, -16
	.loc 1 727 0
	mulhwu 9,0,9
	.loc 1 719 0
	stw 31,76(1)
	stfd 31,80(1)
	mr 31,3
	.cfi_offset 63, -8
	.cfi_offset 31, -12
	stw 14,8(1)
	stw 15,12(1)
	.loc 1 727 0
	srwi 9,9,5
	.loc 1 719 0
	stw 16,16(1)
	.loc 1 727 0
	mulli 9,9,40
	.loc 1 719 0
	stw 17,20(1)
	stw 18,24(1)
	.loc 1 727 0
	cmpw 7,0,9
	.loc 1 719 0
	stw 19,28(1)
	stw 20,32(1)
	stw 21,36(1)
	stw 22,40(1)
	stw 23,44(1)
	stw 24,48(1)
	stw 25,52(1)
	stw 26,56(1)
	stw 27,60(1)
	.loc 1 726 0
	lwz 28,mod_base@l(11)
	lwz 29,0(3)
.LVL195:
	.loc 1 727 0
	bne- 7,.L176
	.cfi_offset 27, -28
	.cfi_offset 26, -32
	.cfi_offset 25, -36
	.cfi_offset 24, -40
	.cfi_offset 23, -44
	.cfi_offset 22, -48
	.cfi_offset 21, -52
	.cfi_offset 20, -56
	.cfi_offset 19, -60
	.cfi_offset 18, -64
	.cfi_offset 17, -68
	.cfi_offset 16, -72
	.cfi_offset 15, -76
	.cfi_offset 14, -80
.LVL196:
.L152:
	.loc 1 729 0
	lis 31,0xcccc
.LVL197:
	.loc 1 730 0
	lis 4,loadname@ha
	.loc 1 729 0
	ori 31,31,52429
	.loc 1 730 0
	la 4,loadname@l(4)
	.loc 1 729 0
	mulhwu 31,0,31
	srwi 31,31,5
.LVL198:
	.loc 1 730 0
	mulli 3,31,44
	bl Hunk_AllocName
	.loc 1 735 0
	cmpwi 7,31,0
	.loc 1 732 0
	lwz 9,loadmodel@l(30)
	.loc 1 730 0
	mr 27,3
.LVL199:
	.loc 1 732 0
	stw 3,200(9)
	.loc 1 733 0
	stw 31,196(9)
.LVL200:
	.loc 1 735 0
	beq- 7,.L151
	lis 30,LittleFloat@ha
	lis 22,.LC13@ha
	lis 23,.LC14@ha
	lis 25,LittleLong@ha
	lis 24,loadmodel@ha
	.loc 1 768 0
	lis 18,.LC20@ha
	.loc 1 726 0
	add 29,28,29
.LVL201:
	la 30,LittleFloat@l(30)
	.loc 1 735 0
	li 28,0
	la 22,.LC13@l(22)
	la 23,.LC14@l(23)
	la 25,LittleLong@l(25)
	la 24,loadmodel@l(24)
	.loc 1 744 0
	lis 20,.LC16@ha
	.loc 1 746 0
	lis 16,.LC18@ha
	.loc 1 749 0
	lis 14,.LC12@ha
	.loc 1 747 0
	lis 15,.LC19@ha
	.loc 1 745 0
	lis 17,.LC17@ha
	.loc 1 743 0
	lis 21,.LC15@ha
	.loc 1 772 0
	lis 19,r_notexture_mip@ha
	.loc 1 768 0
	la 18,.LC20@l(18)
.LVL202:
.L166:
	.loc 1 719 0
	li 26,0
.LVL203:
.L155:
	.loc 1 738 0 discriminator 2
	lwz 0,0(30)
	lfsx 1,29,26
	mtctr 0
	bctrl
	.loc 1 737 0 discriminator 2
	cmpwi 7,26,28
	.loc 1 738 0 discriminator 2
	stfsx 1,27,26
	.loc 1 737 0 discriminator 2
	addi 26,26,4
	bne+ 7,.L155
	.loc 1 739 0
	mr 3,27
	bl Length
	.loc 1 740 0
	addi 3,27,16
	.loc 1 739 0
	fmr 31,1
.LVL204:
	.loc 1 740 0
	bl Length
.LVL205:
	.loc 1 741 0
	lfs 13,0(22)
	.loc 1 742 0
	lfd 0,0(23)
	.loc 1 741 0
	fadds 31,31,1
.LVL206:
	fmuls 31,31,13
.LVL207:
	.loc 1 742 0
	fcmpu 7,31,0
	bnl- 7,.L173
	.loc 1 743 0
	lwz 0,.LC15@l(21)
	stw 0,32(27)
.L158:
	.loc 1 757 0
	lwz 0,0(25)
	lwz 3,32(29)
	mtctr 0
	bctrl
.LVL208:
	.loc 1 758 0
	lwz 0,0(25)
	.loc 1 757 0
	mr 26,3
.LVL209:
	.loc 1 758 0
	lwz 3,36(29)
.LVL210:
	mtctr 0
	bctrl
	.loc 1 760 0
	lwz 11,0(24)
	.loc 1 758 0
	stw 3,40(27)
	.loc 1 760 0
	lwz 9,400(11)
	cmpwi 7,9,0
	beq- 7,.L177
.L163:
	.loc 1 767 0
	lwz 0,396(11)
	cmpw 7,26,0
	bge- 7,.L178
	.loc 1 769 0
	slwi 26,26,2
.LVL211:
	lwzx 0,9,26
	.loc 1 770 0
	cmpwi 7,0,0
	.loc 1 769 0
	stw 0,36(27)
	.loc 1 770 0
	beq- 7,.L179
.L164:
	.loc 1 735 0
	addi 28,28,1
.LVL212:
	addi 29,29,40
.LVL213:
	cmpw 7,31,28
	addi 27,27,44
.LVL214:
	bne+ 7,.L166
.LVL215:
.L151:
	.loc 1 777 0
	lwz 0,92(1)
	lwz 14,8(1)
	mtlr 0
	lwz 15,12(1)
	lwz 16,16(1)
	lwz 17,20(1)
	lwz 18,24(1)
	lwz 19,28(1)
	lwz 20,32(1)
	lwz 21,36(1)
	lwz 22,40(1)
	lwz 23,44(1)
	lwz 24,48(1)
	lwz 25,52(1)
	lwz 26,56(1)
	lwz 27,60(1)
.LVL216:
	lwz 28,64(1)
	lwz 29,68(1)
	lwz 30,72(1)
	lwz 31,76(1)
.LVL217:
	lfd 31,80(1)
	addi 1,1,88
	.cfi_remember_state
.LCFI45:
	.cfi_def_cfa_offset 0
	.cfi_restore 63
	.cfi_restore 31
	.cfi_restore 30
	.cfi_restore 29
	.cfi_restore 28
	.cfi_restore 27
	.cfi_restore 26
	.cfi_restore 25
	.cfi_restore 24
	.cfi_restore 23
	.cfi_restore 22
	.cfi_restore 21
	.cfi_restore 20
	.cfi_restore 19
	.cfi_restore 18
	.cfi_restore 17
	.cfi_restore 16
	.cfi_restore 15
	.cfi_restore 14
	blr
.LVL218:
.L173:
.LCFI46:
	.cfi_restore_state
	.loc 1 744 0
	lfd 0,.LC16@l(20)
	fcmpu 7,31,0
	bnl- 7,.L174
	.loc 1 745 0
	lwz 0,.LC17@l(17)
	.loc 1 757 0
	lwz 3,32(29)
	.loc 1 745 0
	stw 0,32(27)
	.loc 1 757 0
	lwz 0,0(25)
	mtctr 0
	bctrl
.LVL219:
	.loc 1 758 0
	lwz 0,0(25)
	.loc 1 757 0
	mr 26,3
.LVL220:
	.loc 1 758 0
	lwz 3,36(29)
.LVL221:
	mtctr 0
	bctrl
	.loc 1 760 0
	lwz 11,0(24)
	.loc 1 758 0
	stw 3,40(27)
	.loc 1 760 0
	lwz 9,400(11)
	cmpwi 7,9,0
	bne+ 7,.L163
.L177:
	.loc 1 762 0
	lwz 0,r_notexture_mip@l(19)
	.loc 1 763 0
	stw 9,40(27)
	.loc 1 762 0
	stw 0,36(27)
	b .L164
.LVL222:
.L174:
	.loc 1 746 0
	lfd 0,.LC18@l(16)
	fcmpu 7,31,0
	bnl- 7,.L175
	.loc 1 747 0
	lwz 0,.LC19@l(15)
	stw 0,32(27)
	b .L158
.LVL223:
.L178:
	.loc 1 768 0
	mr 3,18
	.loc 1 769 0
	slwi 26,26,2
.LVL224:
	.loc 1 768 0
	crxor 6,6,6
	bl Sys_Error
	lwz 9,0(24)
	lwz 9,400(9)
	.loc 1 769 0
	lwzx 0,9,26
	.loc 1 770 0
	cmpwi 7,0,0
	.loc 1 769 0
	stw 0,36(27)
	.loc 1 770 0
	bne+ 7,.L164
.L179:
	.loc 1 772 0
	lwz 9,r_notexture_mip@l(19)
	.loc 1 773 0
	stw 0,40(27)
	.loc 1 772 0
	stw 9,36(27)
	b .L164
.LVL225:
.L175:
	.loc 1 749 0
	lwz 0,.LC12@l(14)
	stw 0,32(27)
	b .L158
.LVL226:
.L176:
	.loc 1 728 0
	lwz 4,loadmodel@l(30)
	lis 3,.LC11@ha
.LVL227:
	la 3,.LC11@l(3)
	crxor 6,6,6
	bl Sys_Error
	lwz 0,4(31)
	b .L152
	.cfi_endproc
.LFE57:
	.size	Mod_LoadTexinfo, .-Mod_LoadTexinfo
	.align 2
	.globl CalcSurfaceExtents
	.type	CalcSurfaceExtents, @function
CalcSurfaceExtents:
.LFB58:
	.loc 1 787 0
	.cfi_startproc
.LVL228:
	mflr 0
	stwu 1,-80(1)
.LCFI47:
	.cfi_def_cfa_offset 80
	.cfi_register 65, 0
	.loc 1 794 0
	lis 9,.LC22@ha
	.loc 1 787 0
	stw 30,56(1)
	mr 30,3
	.cfi_offset 30, -24
	stw 0,84(1)
	.loc 1 794 0
	lwz 0,.LC22@l(9)
	.cfi_offset 65, 4
	.loc 1 795 0
	lis 9,.LC21@ha
	.loc 1 799 0
	lwz 6,16(3)
	.loc 1 795 0
	lwz 9,.LC21@l(9)
	.loc 1 799 0
	cmpwi 7,6,0
	.loc 1 787 0
	stw 31,60(1)
	stfd 30,64(1)
	stfd 31,72(1)
	stw 28,48(1)
	stw 29,52(1)
	.loc 1 794 0
	stw 0,20(1)
	stw 0,16(1)
	.loc 1 795 0
	stw 9,12(1)
	stw 9,8(1)
	.loc 1 797 0
	lwz 31,48(3)
	.cfi_offset 29, -28
	.cfi_offset 28, -32
	.cfi_offset 63, -8
	.cfi_offset 62, -16
	.cfi_offset 31, -20
.LVL229:
	.loc 1 799 0
	ble- 7,.L195
	lis 11,loadmodel@ha
	.loc 1 786 0
	lwz 10,12(3)
	.loc 1 799 0
	lwz 11,loadmodel@l(11)
	.loc 1 786 0
	addi 10,10,-1
	lwz 8,216(11)
	slwi 10,10,2
	lwz 4,184(11)
	lwz 5,176(11)
	add 8,8,10
	stw 9,40(1)
	.loc 1 799 0
	li 10,0
	.loc 1 786 0
	lfs 12,40(1)
	stw 0,40(1)
	.loc 1 801 0
	lwzu 0,4(8)
.LVL230:
	.loc 1 786 0
	lfs 13,40(1)
	.loc 1 802 0
	cmpwi 7,0,0
	blt- 7,.L182
.LVL231:
.L199:
	.loc 1 803 0
	slwi 0,0,3
.LVL232:
	lhzx 9,4,0
	mulli 9,9,12
	add 9,5,9
.LVL233:
.L183:
	.loc 1 805 0
	lfs 6,0(9)
	.loc 1 799 0
	li 11,0
	.loc 1 805 0
	lfs 7,4(9)
	lfs 8,8(9)
	mr 9,31
.LVL234:
.L189:
	.loc 1 810 0
	lfs 0,4(9)
	.loc 1 807 0
	cmpwi 7,11,4
	.loc 1 809 0
	lfs 9,0(9)
	.loc 1 810 0
	fmuls 0,7,0
	lfs 10,8(9)
	.loc 1 809 0
	lfs 11,12(9)
	.loc 1 816 0
	addi 9,9,16
	.loc 1 809 0
	fmadds 0,9,6,0
	.loc 1 810 0
	fmadds 0,10,8,0
	.loc 1 809 0
	fadds 0,0,11
.LVL235:
	.loc 1 813 0
	fcmpu 1,0,13
	.loc 1 815 0
	fcmpu 6,0,12
	.loc 1 813 0
	bnl- 1,.L184
	.loc 1 814 0
	addi 7,1,16
	stfsx 0,11,7
.L184:
	.loc 1 815 0
	bng- 6,.L186
	.loc 1 816 0
	addi 7,1,8
	stfsx 0,11,7
.L186:
	.loc 1 807 0
	addi 11,11,4
	beq- 7,.L188
	addi 7,1,16
	lfsx 13,11,7
	addi 7,1,8
	lfsx 12,11,7
	b .L189
.L188:
	.loc 1 799 0
	addi 10,10,1
.LVL236:
	cmpw 7,10,6
	beq- 7,.L198
	.loc 1 801 0
	lwzu 0,4(8)
.LVL237:
	.loc 1 786 0
	lfs 13,16(1)
	.loc 1 802 0
	cmpwi 7,0,0
	.loc 1 786 0
	lfs 12,8(1)
	.loc 1 802 0
	bge+ 7,.L199
.LVL238:
.L182:
	.loc 1 805 0
	mulli 0,0,-8
.LVL239:
	add 9,4,0
	lhz 9,2(9)
	mulli 9,9,12
	add 9,5,9
.LVL240:
	b .L183
.LVL241:
.L198:
	.loc 1 786 0
	lis 29,.LC27@ha
	.loc 1 799 0
	lfs 1,16(1)
	.loc 1 786 0
	lfs 31,.LC27@l(29)
	fmuls 1,1,31
	bl floor
.LVL242:
	fmr 30,1
	lfs 1,8(1)
	fmuls 1,1,31
	bl ceil
.L181:
.LVL243:
	.loc 1 822 0
	fctiwz 30,30
	addi 9,1,32
	.loc 1 823 0
	fctiwz 1,1
	addi 11,1,36
	.loc 1 822 0
	stfiwx 30,0,9
	.loc 1 823 0
	stfiwx 1,0,11
	.loc 1 827 0
	lwz 28,40(31)
	.loc 1 822 0
	lwz 0,32(1)
	.loc 1 823 0
	lwz 9,36(1)
	.loc 1 827 0
	andi. 11,28,1
	.loc 1 826 0
	subf 9,0,9
	.loc 1 825 0
	slwi 0,0,4
	.loc 1 826 0
	slwi 9,9,4
	.loc 1 825 0
	sth 0,20(30)
	.loc 1 826 0
	extsh 9,9
	sth 9,24(30)
	.loc 1 827 0
	bne- 0,.L193
	cmpwi 7,9,512
	bgt- 7,.L200
.L193:
.LVL244:
	.loc 1 828 0
	lfs 1,20(1)
	.loc 1 786 0
	lfs 31,.LC27@l(29)
	fmuls 1,1,31
	bl floor
	fmr 30,1
	lfs 1,12(1)
	fmuls 1,1,31
	.loc 1 822 0
	fctiwz 30,30
	.loc 1 786 0
	bl ceil
	.loc 1 822 0
	addi 9,1,24
	.loc 1 823 0
	fctiwz 1,1
	addi 11,1,28
	.loc 1 822 0
	stfiwx 30,0,9
	.loc 1 823 0
	stfiwx 1,0,11
	.loc 1 827 0
	andi. 11,28,1
	.loc 1 822 0
	lwz 0,24(1)
	.loc 1 823 0
	lwz 9,28(1)
	.loc 1 826 0
	subf 9,0,9
	.loc 1 825 0
	slwi 0,0,4
	.loc 1 826 0
	slwi 9,9,4
	.loc 1 825 0
	sth 0,22(30)
	.loc 1 826 0
	extsh 9,9
	sth 9,26(30)
	.loc 1 827 0
	bne- 0,.L180
	.loc 1 827 0 is_stmt 0 discriminator 1
	cmpwi 7,9,512
	bgt- 7,.L201
.L180:
	.loc 1 830 0 is_stmt 1
	lwz 0,84(1)
	lwz 28,48(1)
	mtlr 0
	lwz 29,52(1)
	lwz 30,56(1)
.LVL245:
	lwz 31,60(1)
.LVL246:
	lfd 30,64(1)
	lfd 31,72(1)
	addi 1,1,80
	.cfi_remember_state
.LCFI48:
	.cfi_def_cfa_offset 0
	.cfi_restore 63
	.cfi_restore 62
	.cfi_restore 31
	.cfi_restore 30
	.cfi_restore 29
	.cfi_restore 28
	blr
.LVL247:
.L201:
.LCFI49:
	.cfi_restore_state
	.loc 1 828 0
	lis 3,.LC28@ha
	la 3,.LC28@l(3)
	crxor 6,6,6
	bl Sys_Error
	.loc 1 830 0
	lwz 0,84(1)
	lwz 28,48(1)
	mtlr 0
	lwz 29,52(1)
	lwz 30,56(1)
.LVL248:
	lwz 31,60(1)
.LVL249:
	lfd 30,64(1)
	lfd 31,72(1)
	addi 1,1,80
	.cfi_remember_state
	.cfi_restore 28
	.cfi_restore 29
	.cfi_restore 30
	.cfi_restore 31
	.cfi_restore 62
	.cfi_restore 63
.LCFI50:
	.cfi_def_cfa_offset 0
	blr
.LVL250:
.L200:
.LCFI51:
	.cfi_restore_state
	.loc 1 828 0
	lis 3,.LC28@ha
	la 3,.LC28@l(3)
	crxor 6,6,6
	bl Sys_Error
	lwz 28,40(31)
	b .L193
.L195:
	.loc 1 799 0
	lis 9,.LC24@ha
	lis 29,.LC27@ha
	lfs 1,.LC24@l(9)
	lis 9,.LC26@ha
	lfs 30,.LC26@l(9)
	b .L181
	.cfi_endproc
.LFE58:
	.size	CalcSurfaceExtents, .-CalcSurfaceExtents
	.align 2
	.globl Mod_LoadFaces
	.type	Mod_LoadFaces, @function
Mod_LoadFaces:
.LFB59:
	.loc 1 839 0
	.cfi_startproc
.LVL251:
	mflr 0
	stwu 1,-88(1)
.LCFI52:
	.cfi_def_cfa_offset 88
	.cfi_register 65, 0
	.loc 1 846 0
	lis 9,0xcccc
	.loc 1 845 0
	lis 11,mod_base@ha
	.loc 1 846 0
	ori 9,9,52429
	.loc 1 839 0
	stw 28,72(1)
	stw 0,92(1)
	stw 29,76(1)
	lis 29,loadmodel@ha
	.cfi_offset 29, -12
	.cfi_offset 65, 4
	.cfi_offset 28, -16
	.loc 1 846 0
	lwz 0,4(3)
	.loc 1 839 0
	stw 30,80(1)
	.loc 1 846 0
	mulhwu 9,0,9
	.loc 1 839 0
	stw 31,84(1)
	stw 14,16(1)
	mr 31,3
	.cfi_offset 14, -72
	.cfi_offset 31, -4
	.cfi_offset 30, -8
	stw 15,20(1)
	stw 16,24(1)
	.loc 1 846 0
	srwi 9,9,4
	.loc 1 839 0
	stw 17,28(1)
	.loc 1 846 0
	mulli 9,9,20
	.loc 1 839 0
	stw 18,32(1)
	stw 19,36(1)
	.loc 1 846 0
	cmpw 7,0,9
	.loc 1 839 0
	stw 20,40(1)
	stw 21,44(1)
	stw 22,48(1)
	stw 23,52(1)
	stw 24,56(1)
	stw 25,60(1)
	stw 26,64(1)
	stw 27,68(1)
	.loc 1 845 0
	lwz 28,mod_base@l(11)
	lwz 30,0(3)
.LVL252:
	.loc 1 846 0
	bne- 7,.L221
	.cfi_offset 27, -20
	.cfi_offset 26, -24
	.cfi_offset 25, -28
	.cfi_offset 24, -32
	.cfi_offset 23, -36
	.cfi_offset 22, -40
	.cfi_offset 21, -44
	.cfi_offset 20, -48
	.cfi_offset 19, -52
	.cfi_offset 18, -56
	.cfi_offset 17, -60
	.cfi_offset 16, -64
	.cfi_offset 15, -68
.LVL253:
.L203:
	.loc 1 848 0
	lis 25,0xcccc
	.loc 1 849 0
	lis 4,loadname@ha
	.loc 1 848 0
	ori 25,25,52429
	.loc 1 849 0
	la 4,loadname@l(4)
	.loc 1 848 0
	mulhwu 25,0,25
	srwi 25,25,4
.LVL254:
	.loc 1 849 0
	mulli 3,25,92
	bl Hunk_AllocName
	.loc 1 854 0
	cmpwi 7,25,0
	.loc 1 851 0
	lwz 9,loadmodel@l(29)
	.loc 1 849 0
	mr 31,3
.LVL255:
	.loc 1 851 0
	stw 3,208(9)
	.loc 1 852 0
	stw 25,204(9)
.LVL256:
	.loc 1 854 0
	beq- 7,.L202
	lis 27,LittleLong@ha
	lis 29,LittleShort@ha
	lis 26,loadmodel@ha
	lis 24,.LC6@ha
	.loc 1 895 0
	lis 21,.LC29@ha
	.loc 1 931 0
	lis 22,.LC34@ha
	.loc 1 905 0
	lis 18,.LC30@ha
	.loc 1 911 0
	lis 19,.LC32@ha
	.loc 1 920 0
	lis 20,.LC33@ha
	.loc 1 906 0
	lis 23,.LC31@ha
	.loc 1 845 0
	add 30,28,30
.LVL257:
	la 27,LittleLong@l(27)
	.loc 1 854 0
	li 28,0
	la 29,LittleShort@l(29)
	la 26,loadmodel@l(26)
	la 24,.LC6@l(24)
	.loc 1 895 0
	la 21,.LC29@l(21)
	.loc 1 931 0
	la 22,.LC34@l(22)
	.loc 1 905 0
	la 18,.LC30@l(18)
	.loc 1 911 0
	la 19,.LC32@l(19)
	.loc 1 920 0
	la 20,.LC33@l(20)
	.loc 1 906 0
	la 23,.LC31@l(23)
	lis 17,mir_forcewater@ha
	b .L217
.LVL258:
.L223:
	.loc 1 887 0
	lwz 0,8(31)
	ori 0,0,36
	stw 0,8(31)
.LVL259:
.L209:
	.loc 1 854 0
	addi 28,28,1
.LVL260:
	addi 30,30,20
.LVL261:
	cmpw 7,25,28
	addi 31,31,92
.LVL262:
	beq- 7,.L202
.LVL263:
.L217:
	.loc 1 856 0
	lwz 0,0(27)
	lwz 3,4(30)
	mtctr 0
	bctrl
	.loc 1 857 0
	lwz 0,0(29)
	.loc 1 856 0
	stw 3,12(31)
	.loc 1 857 0
	mtctr 0
	lha 3,8(30)
	bctrl
	.loc 1 860 0
	li 0,0
	stw 0,8(31)
	.loc 1 857 0
	stw 3,16(31)
	.loc 1 862 0
	lwz 0,0(29)
	lha 3,0(30)
	mtctr 0
	bctrl
	.loc 1 863 0
	lwz 0,0(29)
	.loc 1 862 0
	mr 16,3
.LVL264:
	.loc 1 863 0
	lha 3,2(30)
.LVL265:
	mtctr 0
	bctrl
.LVL266:
	.loc 1 864 0
	cmpwi 7,3,0
	beq- 7,.L205
	.loc 1 865 0
	lwz 0,8(31)
	ori 0,0,2
	stw 0,8(31)
.L205:
	.loc 1 867 0
	lwz 9,0(26)
	mulli 16,16,20
.LVL267:
	.loc 1 869 0
	lwz 0,0(29)
	.loc 1 867 0
	lwz 11,160(9)
	.loc 1 869 0
	mtctr 0
	.loc 1 867 0
	add 16,11,16
	stw 16,4(31)
	.loc 1 869 0
	lha 3,10(30)
.LVL268:
	lwz 16,200(9)
	bctrl
	mulli 0,3,44
	.loc 1 871 0
	mr 3,31
	.loc 1 869 0
	add 0,16,0
	stw 0,48(31)
	.loc 1 871 0
	bl CalcSurfaceExtents
.LVL269:
	.loc 1 876 0
	lbz 9,12(30)
	.loc 1 877 0
	lwz 0,0(27)
	.loc 1 876 0
	stb 9,64(31)
.LVL270:
	.loc 1 877 0
	mtctr 0
	.loc 1 876 0
	lbz 9,13(30)
	stb 9,65(31)
.LVL271:
	lbz 9,14(30)
	stb 9,66(31)
.LVL272:
	lbz 9,15(30)
	stb 9,67(31)
.LVL273:
	.loc 1 877 0
	lwz 3,16(30)
	bctrl
.LVL274:
	.loc 1 878 0
	cmpwi 7,3,-1
	beq- 7,.L222
	.loc 1 881 0
	lwz 9,0(26)
	lwz 0,408(9)
	add 3,0,3
.LVL275:
	stw 3,88(31)
.L207:
	.loc 1 885 0
	lwz 9,48(31)
	mr 4,24
	li 5,3
	lwz 3,36(9)
	bl Q_strncmp
	cmpwi 7,3,0
	beq+ 7,.L223
	.loc 1 895 0
	lwz 9,48(31)
	mr 4,21
	li 5,1
	lwz 3,36(9)
	bl Q_strncmp
	cmpwi 7,3,0
	beq- 7,.L210
	lwz 9,48(31)
	mr 15,23
	lwz 16,36(9)
.L211:
	.loc 1 926 0
	mr 3,16
	mr 4,15
	bl strstr
	cmpwi 7,3,0
	beq- 7,.L216
	.loc 1 927 0
	lwz 0,8(31)
	ori 0,0,256
	stw 0,8(31)
.L216:
	.loc 1 931 0
	mr 3,16
	mr 4,22
	bl strstr
	cmpwi 7,3,0
	beq- 7,.L209
	.loc 1 854 0
	addi 28,28,1
.LVL276:
	.loc 1 933 0
	lwz 0,8(31)
	.loc 1 854 0
	cmpw 7,25,28
	addi 30,30,20
.LVL277:
	.loc 1 933 0
	ori 0,0,1024
	stw 0,8(31)
	.loc 1 854 0
	addi 31,31,92
.LVL278:
	bne+ 7,.L217
.LVL279:
.L202:
	.loc 1 937 0
	lwz 0,92(1)
	lwz 14,16(1)
	mtlr 0
	lwz 15,20(1)
	lwz 16,24(1)
	lwz 17,28(1)
	lwz 18,32(1)
	lwz 19,36(1)
	lwz 20,40(1)
	lwz 21,44(1)
	lwz 22,48(1)
	lwz 23,52(1)
	lwz 24,56(1)
	lwz 25,60(1)
.LVL280:
	lwz 26,64(1)
	lwz 27,68(1)
	lwz 28,72(1)
	lwz 29,76(1)
	lwz 30,80(1)
	lwz 31,84(1)
.LVL281:
	addi 1,1,88
	.cfi_remember_state
.LCFI53:
	.cfi_def_cfa_offset 0
	.cfi_restore 31
	.cfi_restore 30
	.cfi_restore 29
	.cfi_restore 28
	.cfi_restore 27
	.cfi_restore 26
	.cfi_restore 25
	.cfi_restore 24
	.cfi_restore 23
	.cfi_restore 22
	.cfi_restore 21
	.cfi_restore 20
	.cfi_restore 19
	.cfi_restore 18
	.cfi_restore 17
	.cfi_restore 16
	.cfi_restore 15
	.cfi_restore 14
	blr
.LVL282:
.L222:
.LCFI54:
	.cfi_restore_state
	.loc 1 879 0
	li 0,0
	stw 0,88(31)
	b .L207
.LVL283:
.L210:
	.loc 1 897 0
	lwz 11,8(31)
	.loc 1 900 0
	li 9,16384
	.loc 1 901 0
	li 0,-8192
	.loc 1 900 0
	sth 9,24(31)
	.loc 1 897 0
	ori 11,11,48
	.loc 1 901 0
	sth 0,20(31)
	.loc 1 897 0
	stw 11,8(31)
.LVL284:
	.loc 1 903 0
	mr 3,31
	.loc 1 900 0
	sth 9,26(31)
	mr 15,23
	.loc 1 901 0
	sth 0,22(31)
.LVL285:
	.loc 1 903 0
	bl GL_SubdivideSurface
	.loc 1 905 0
	lwz 9,48(31)
	mr 4,18
	lwz 16,36(9)
	mr 3,16
	bl strstr
	cmpwi 7,3,0
	beq- 7,.L212
	.loc 1 906 0
	mr 3,16
	mr 4,23
	bl strstr
	cmpwi 7,3,0
	beq- 7,.L224
.L213:
	.loc 1 907 0
	lwz 0,8(31)
	ori 0,0,256
	stw 0,8(31)
.L212:
	.loc 1 911 0
	mr 3,16
	mr 4,19
	bl strstr
	cmpwi 7,3,0
	beq- 7,.L214
	.loc 1 912 0
	lwz 0,8(31)
	.loc 1 913 0
	mr 3,16
	mr 4,15
	.loc 1 912 0
	ori 14,0,512
	stw 14,8(31)
	.loc 1 913 0
	stw 0,8(1)
	bl strstr
	lwz 0,8(1)
	cmpwi 7,3,0
	beq- 7,.L215
	.loc 1 914 0
	ori 14,0,768
	stw 14,8(31)
.L215:
	.loc 1 916 0
	rlwinm 14,14,0,25,23
	stw 14,8(31)
.L214:
	.loc 1 920 0
	mr 3,16
	mr 4,20
	bl strstr
	cmpwi 7,3,0
	beq- 7,.L211
	.loc 1 922 0
	lwz 0,8(31)
	rlwinm 0,0,0,25,23
	stw 0,8(31)
	b .L211
.LVL286:
.L221:
	.loc 1 847 0
	lwz 4,loadmodel@l(29)
	lis 3,.LC11@ha
.LVL287:
	la 3,.LC11@l(3)
	crxor 6,6,6
	bl Sys_Error
	lwz 0,4(31)
	b .L203
.LVL288:
.L224:
	.loc 1 906 0 discriminator 1
	la 9,mir_forcewater@l(17)
	lfs 13,12(9)
	lis 9,.LC1@ha
	lfs 0,.LC1@l(9)
	fcmpu 7,13,0
	beq- 7,.L212
	b .L213
	.cfi_endproc
.LFE59:
	.size	Mod_LoadFaces, .-Mod_LoadFaces
	.align 2
	.globl Mod_SetParent
	.type	Mod_SetParent, @function
Mod_SetParent:
.LFB60:
	.loc 1 946 0
	.cfi_startproc
.LVL289:
	mflr 0
	stwu 1,-16(1)
.LCFI55:
	.cfi_def_cfa_offset 16
	.cfi_register 65, 0
	stw 31,12(1)
	mr 31,3
	.cfi_offset 31, -4
	stw 0,20(1)
	.loc 1 947 0
	stw 4,32(3)
	.loc 1 948 0
	lwz 0,0(3)
	.cfi_offset 65, 4
	cmpwi 7,0,0
	blt- 7,.L225
.LVL290:
.L229:
	.loc 1 950 0
	lwz 3,40(31)
	mr 4,31
	bl Mod_SetParent
	.loc 1 951 0
	lwz 9,44(31)
	.loc 1 948 0
	lwz 0,0(9)
	.loc 1 947 0
	stw 31,32(9)
	.loc 1 948 0
	mr 31,9
	cmpwi 7,0,0
	bge+ 7,.L229
.L225:
	.loc 1 952 0
	lwz 0,20(1)
	lwz 31,12(1)
	mtlr 0
	addi 1,1,16
.LCFI56:
	.cfi_def_cfa_offset 0
	.cfi_restore 31
	blr
	.cfi_endproc
.LFE60:
	.size	Mod_SetParent, .-Mod_SetParent
	.align 2
	.globl Mod_LoadNodes
	.type	Mod_LoadNodes, @function
Mod_LoadNodes:
.LFB61:
	.loc 1 960 0
	.cfi_startproc
.LVL291:
	mflr 0
	stwu 1,-88(1)
.LCFI57:
	.cfi_def_cfa_offset 88
	.cfi_register 65, 0
	.loc 1 966 0
	lis 9,0xaaaa
	.loc 1 965 0
	lis 11,mod_base@ha
	.loc 1 966 0
	ori 9,9,43691
	.loc 1 960 0
	stw 28,64(1)
	stw 0,92(1)
	stw 29,68(1)
	.loc 1 966 0
	lwz 0,4(3)
	.cfi_offset 29, -20
	.cfi_offset 65, 4
	.cfi_offset 28, -24
	.loc 1 960 0
	stw 30,72(1)
	lis 30,loadmodel@ha
	.cfi_offset 30, -16
	.loc 1 966 0
	mulhwu 9,0,9
	.loc 1 960 0
	stw 31,76(1)
	stfd 31,80(1)
	mr 31,3
	.cfi_offset 63, -8
	.cfi_offset 31, -12
	stw 18,24(1)
	stw 19,28(1)
	.loc 1 966 0
	srwi 9,9,4
	.loc 1 960 0
	stw 20,32(1)
	.loc 1 966 0
	mulli 9,9,24
	.loc 1 960 0
	stw 21,36(1)
	stw 22,40(1)
	.loc 1 966 0
	cmpw 7,0,9
	.loc 1 960 0
	stw 23,44(1)
	stw 24,48(1)
	stw 25,52(1)
	stw 26,56(1)
	stw 27,60(1)
	.loc 1 965 0
	lwz 28,mod_base@l(11)
	lwz 29,0(3)
.LVL292:
	.loc 1 966 0
	bne- 7,.L243
	.cfi_offset 27, -28
	.cfi_offset 26, -32
	.cfi_offset 25, -36
	.cfi_offset 24, -40
	.cfi_offset 23, -44
	.cfi_offset 22, -48
	.cfi_offset 21, -52
	.cfi_offset 20, -56
	.cfi_offset 19, -60
	.cfi_offset 18, -64
.LVL293:
.L231:
	.loc 1 968 0
	lis 31,0xaaaa
.LVL294:
	.loc 1 969 0
	lis 4,loadname@ha
	.loc 1 968 0
	ori 31,31,43691
	.loc 1 969 0
	la 4,loadname@l(4)
	.loc 1 968 0
	mulhwu 31,0,31
	srwi 31,31,4
.LVL295:
	.loc 1 969 0
	mulli 3,31,52
	bl Hunk_AllocName
	.loc 1 974 0
	cmpwi 7,31,0
	.loc 1 971 0
	lwz 9,loadmodel@l(30)
	.loc 1 969 0
	mr 24,3
.LVL296:
	.loc 1 971 0
	stw 3,192(9)
	.loc 1 972 0
	stw 31,188(9)
.LVL297:
	.loc 1 974 0
	beq- 7,.L233
	lis 27,LittleShort@ha
	lis 20,.LC36@ha
	lis 18,LittleLong@ha
	lis 21,loadmodel@ha
	.loc 1 965 0
	add 26,28,29
	.loc 1 974 0
	li 19,0
	la 27,LittleShort@l(27)
	la 20,.LC36@l(20)
	la 18,LittleLong@l(18)
	la 21,loadmodel@l(21)
	.loc 1 978 0
	lis 22,0x4330
.LVL298:
.L238:
	.loc 1 959 0
	mr 23,24
	addi 28,24,-4
	li 29,0
.LVL299:
.L234:
	.loc 1 978 0 discriminator 2
	lwz 0,0(27)
	.loc 1 959 0 discriminator 2
	add 25,26,29
	.loc 1 978 0 discriminator 2
	lha 3,8(25)
	addi 28,28,4
	mtctr 0
	bctrl
	stw 22,8(1)
	xoris 3,3,0x8000
	lfs 31,0(20)
	stw 3,12(1)
	.loc 1 979 0 discriminator 2
	lwz 0,0(27)
	.loc 1 978 0 discriminator 2
	lfd 0,8(1)
	.loc 1 979 0 discriminator 2
	lha 3,14(25)
	mtctr 0
	.loc 1 978 0 discriminator 2
	fsub 0,0,31
	frsp 0,0
	stfs 0,8(28)
	.loc 1 979 0 discriminator 2
	bctrl
	stw 22,16(1)
	xoris 3,3,0x8000
	.loc 1 976 0 discriminator 2
	cmpwi 7,29,4
	.loc 1 979 0 discriminator 2
	stw 3,20(1)
	.loc 1 976 0 discriminator 2
	addi 29,29,2
	.loc 1 979 0 discriminator 2
	lfd 0,16(1)
	fsub 31,0,31
	frsp 31,31
	stfs 31,20(28)
	.loc 1 976 0 discriminator 2
	bne+ 7,.L234
	.loc 1 982 0
	lwz 0,0(18)
	.loc 1 986 0
	li 29,0
	.loc 1 982 0
	lwz 3,0(26)
	mtctr 0
	bctrl
.LVL300:
	.loc 1 983 0
	lwz 9,0(21)
	mulli 3,3,20
.LVL301:
	.loc 1 985 0
	lwz 0,0(27)
	.loc 1 983 0
	lwz 9,160(9)
	.loc 1 985 0
	mtctr 0
	.loc 1 983 0
	add 9,9,3
	.loc 1 985 0
	lha 3,20(26)
	.loc 1 983 0
	stw 9,36(24)
	.loc 1 985 0
	bctrl
	.loc 1 986 0
	lwz 0,0(27)
	.loc 1 985 0
	sth 3,48(24)
	.loc 1 986 0
	mtctr 0
	lha 3,22(26)
	bctrl
	sth 3,50(24)
.LVL302:
.L237:
	.loc 1 990 0
	lwz 0,0(27)
	.loc 1 959 0
	add 9,26,29
	.loc 1 990 0
	lha 3,4(9)
	mtctr 0
	bctrl
.LVL303:
	.loc 1 992 0
	lwz 9,0(21)
	.loc 1 991 0
	cmpwi 0,3,0
	.loc 1 992 0
	mulli 0,3,52
	.loc 1 991 0
	blt- 0,.L235
	.loc 1 992 0
	lwz 9,192(9)
	add 0,9,0
	stw 0,40(23)
.LVL304:
.L236:
	.loc 1 988 0
	cmpwi 7,29,2
	.loc 1 994 0
	addi 23,23,4
	.loc 1 988 0
	addi 29,29,2
	bne- 7,.L237
	.loc 1 974 0
	addi 19,19,1
.LVL305:
	addi 26,26,24
.LVL306:
	cmpw 7,31,19
	addi 24,24,52
.LVL307:
	bne+ 7,.L238
	lwz 9,loadmodel@l(30)
	lwz 24,192(9)
.LVL308:
.L233:
	.loc 1 999 0
	lwz 0,92(1)
	.loc 1 998 0
	mr 3,24
	.loc 1 999 0
	lwz 18,24(1)
	.loc 1 998 0
	li 4,0
	.loc 1 999 0
	lwz 19,28(1)
	mtlr 0
	lwz 20,32(1)
	lwz 21,36(1)
	lwz 22,40(1)
	lwz 23,44(1)
	lwz 24,48(1)
	lwz 25,52(1)
	lwz 26,56(1)
	lwz 27,60(1)
	lwz 28,64(1)
	lwz 29,68(1)
	lwz 30,72(1)
	lwz 31,76(1)
.LVL309:
	lfd 31,80(1)
	addi 1,1,88
	.cfi_remember_state
.LCFI58:
	.cfi_def_cfa_offset 0
	.cfi_restore 63
	.cfi_restore 31
	.cfi_restore 30
	.cfi_restore 29
	.cfi_restore 28
	.cfi_restore 27
	.cfi_restore 26
	.cfi_restore 25
	.cfi_restore 24
	.cfi_restore 23
	.cfi_restore 22
	.cfi_restore 21
	.cfi_restore 20
	.cfi_restore 19
	.cfi_restore 18
	.loc 1 998 0
	b Mod_SetParent
.LVL310:
.L235:
.LCFI59:
	.cfi_restore_state
	.loc 1 994 0
	lwz 0,168(9)
	nor 3,3,3
.LVL311:
	slwi 3,3,6
.LVL312:
	add 3,0,3
	stw 3,40(23)
	b .L236
.LVL313:
.L243:
	.loc 1 967 0
	lwz 4,loadmodel@l(30)
	lis 3,.LC11@ha
.LVL314:
	la 3,.LC11@l(3)
	crxor 6,6,6
	bl Sys_Error
	lwz 0,4(31)
	b .L231
	.cfi_endproc
.LFE61:
	.size	Mod_LoadNodes, .-Mod_LoadNodes
	.align 2
	.globl Mod_LoadLeafs
	.type	Mod_LoadLeafs, @function
Mod_LoadLeafs:
.LFB62:
	.loc 1 1007 0
	.cfi_startproc
.LVL315:
	mflr 0
	stwu 1,-104(1)
.LCFI60:
	.cfi_def_cfa_offset 104
	.cfi_register 65, 0
	.loc 1 1013 0
	lis 11,0x2492
	.loc 1 1012 0
	lis 10,mod_base@ha
	.loc 1 1013 0
	ori 11,11,18725
	.loc 1 1007 0
	stw 28,80(1)
	stw 0,108(1)
	stw 29,84(1)
	lis 29,loadmodel@ha
	.cfi_offset 29, -20
	.cfi_offset 65, 4
	.cfi_offset 28, -24
	.loc 1 1013 0
	lwz 0,4(3)
	.loc 1 1007 0
	stw 30,88(1)
	.loc 1 1013 0
	srwi 9,0,2
	.loc 1 1007 0
	stw 31,92(1)
	.loc 1 1013 0
	mulhwu 11,9,11
	.loc 1 1007 0
	stfd 31,96(1)
	stw 15,28(1)
	mr 31,3
	.cfi_offset 15, -76
	.cfi_offset 63, -8
	.cfi_offset 31, -12
	.cfi_offset 30, -16
	stw 16,32(1)
	stw 17,36(1)
	.loc 1 1013 0
	mulli 11,11,28
	.loc 1 1007 0
	stw 18,40(1)
	stw 19,44(1)
	.loc 1 1013 0
	cmpw 7,0,11
	.loc 1 1007 0
	stw 20,48(1)
	stw 21,52(1)
	stw 22,56(1)
	stw 23,60(1)
	stw 24,64(1)
	stw 25,68(1)
	stw 26,72(1)
	stw 27,76(1)
	.loc 1 1012 0
	lwz 28,mod_base@l(10)
	lwz 30,0(3)
.LVL316:
	.loc 1 1013 0
	bne- 7,.L273
	.cfi_offset 27, -28
	.cfi_offset 26, -32
	.cfi_offset 25, -36
	.cfi_offset 24, -40
	.cfi_offset 23, -44
	.cfi_offset 22, -48
	.cfi_offset 21, -52
	.cfi_offset 20, -56
	.cfi_offset 19, -60
	.cfi_offset 18, -64
	.cfi_offset 17, -68
	.cfi_offset 16, -72
.LVL317:
.L245:
	.loc 1 1015 0
	lis 16,0x2492
	.loc 1 1016 0
	lis 4,loadname@ha
	.loc 1 1015 0
	ori 16,16,18725
	.loc 1 1016 0
	la 4,loadname@l(4)
	.loc 1 1015 0
	mulhwu 16,9,16
.LVL318:
	.loc 1 1016 0
	slwi 3,16,6
	bl Hunk_AllocName
.LVL319:
	.loc 1 1021 0
	cmpwi 7,16,0
	.loc 1 1018 0
	lwz 9,loadmodel@l(29)
	stw 3,168(9)
	.loc 1 1019 0
	stw 16,164(9)
.LVL320:
	.loc 1 1021 0
	beq- 7,.L244
	.loc 1 1012 0
	add 30,28,30
.LVL321:
	lis 20,.LC36@ha
	lis 28,LittleShort@ha
	lis 18,LittleLong@ha
	lis 17,loadmodel@ha
	lis 19,.LC33@ha
.LBB6:
	.loc 1 1054 0
	lis 15,.LC32@ha
.LBE6:
	.loc 1 1006 0
	addi 31,3,-4
.LVL322:
.LBB7:
	.loc 1 1021 0
	li 22,0
	la 28,LittleShort@l(28)
	la 20,.LC36@l(20)
	la 18,LittleLong@l(18)
	la 17,loadmodel@l(17)
.LBE7:
	.loc 1 1007 0
	li 26,0
	.loc 1 1025 0
	lis 25,0x4330
	la 19,.LC33@l(19)
.LBB8:
	.loc 1 1054 0
	la 15,.LC32@l(15)
.LVL323:
.L262:
.LBE8:
	.loc 1 1007 0
	mr 27,31
	li 29,0
.LVL324:
.L248:
	.loc 1 1025 0 discriminator 2
	lwz 0,0(28)
	.loc 1 1006 0 discriminator 2
	add 24,30,29
	.loc 1 1025 0 discriminator 2
	lha 3,8(24)
	addi 27,27,4
	mtctr 0
	bctrl
	stw 25,8(1)
	xoris 3,3,0x8000
	lfs 31,0(20)
	stw 3,12(1)
	lfd 0,8(1)
	.loc 1 1026 0 discriminator 2
	lwz 0,0(28)
	.loc 1 1025 0 discriminator 2
	fsub 0,0,31
	.loc 1 1026 0 discriminator 2
	mtctr 0
	.loc 1 1025 0 discriminator 2
	frsp 0,0
	stfs 0,8(27)
	.loc 1 1026 0 discriminator 2
	lha 3,14(24)
	bctrl
	stw 25,16(1)
	xoris 3,3,0x8000
	.loc 1 1023 0 discriminator 2
	cmpwi 7,29,4
	.loc 1 1026 0 discriminator 2
	stw 3,20(1)
	.loc 1 1023 0 discriminator 2
	addi 29,29,2
	.loc 1 1026 0 discriminator 2
	lfd 0,16(1)
	fsub 31,0,31
	frsp 31,31
	stfs 31,20(27)
	.loc 1 1023 0 discriminator 2
	bne+ 7,.L248
	.loc 1 1029 0
	lwz 0,0(18)
	lwz 3,0(30)
	mtctr 0
	bctrl
.LVL325:
	.loc 1 1033 0
	lwz 0,0(28)
	.loc 1 1030 0
	stw 3,4(31)
	.loc 1 1033 0
	mtctr 0
	.loc 1 1032 0
	lwz 9,0(17)
	.loc 1 1033 0
	lha 3,20(30)
.LVL326:
	.loc 1 1032 0
	lwz 29,232(9)
	.loc 1 1033 0
	bctrl
.LVL327:
	.loc 1 1034 0
	lwz 0,0(28)
	.loc 1 1032 0
	slwi 3,3,2
	add 29,29,3
	.loc 1 1034 0
	mtctr 0
	.loc 1 1032 0
	stw 29,48(31)
	.loc 1 1034 0
	lha 3,22(30)
	bctrl
	.loc 1 1036 0
	lwz 0,0(18)
	.loc 1 1034 0
	stw 3,52(31)
	.loc 1 1036 0
	mtctr 0
	lwz 3,4(30)
	bctrl
.LVL328:
	.loc 1 1037 0
	cmpwi 7,3,-1
	beq- 7,.L274
	.loc 1 1040 0
	lwz 9,0(17)
	lwz 0,404(9)
	add 3,0,3
.LVL329:
	stw 3,40(31)
.L250:
	.loc 1 1041 0
	stw 26,44(31)
.LVL330:
	.loc 1 1047 0
	lwz 9,4(31)
	.loc 1 1044 0
	lbz 0,24(30)
	.loc 1 1047 0
	cmpwi 7,9,-3
.LBB9:
	.loc 1 1051 0
	lwz 27,52(31)
.LBE9:
	.loc 1 1044 0
	stb 0,64(31)
.LVL331:
	lbz 0,25(30)
	stb 0,65(31)
.LVL332:
	lbz 0,26(30)
	stb 0,66(31)
.LVL333:
	lbz 0,27(30)
	stb 0,67(31)
.LVL334:
	.loc 1 1047 0
	beq- 7,.L251
.LVL335:
.LBB10:
	.loc 1 1070 0 discriminator 1
	cmpwi 7,27,0
	ble- 7,.L253
.LVL336:
.L256:
	.loc 1 1072 0
	mtctr 27
.LBE10:
.LBB11:
	.loc 1 1006 0
	li 9,0
.L259:
.LBE11:
.LBB12:
	.loc 1 1071 0
	lwz 11,48(31)
	.loc 1 1006 0
	slwi 0,9,2
	.loc 1 1070 0
	addi 9,9,1
	.loc 1 1071 0
	lwzx 10,11,0
	lwz 10,8(10)
	andi. 8,10,1024
	beq- 0,.L258
	.loc 1 1072 0
	stwx 26,11,0
.L258:
.LVL337:
	.loc 1 1070 0
	bdnz .L259
	mtctr 27
	li 11,0
	li 9,0
.LVL338:
.L261:
	.loc 1 1078 0
	lwz 10,48(31)
	slwi 0,9,2
	.loc 1 1079 0
	slwi 8,11,2
	.loc 1 1077 0
	addi 9,9,1
	.loc 1 1078 0
	lwzx 0,10,0
	cmpwi 7,0,0
	beq- 7,.L260
	.loc 1 1079 0
	stwx 0,10,8
	.loc 1 1080 0
	addi 11,11,1
.LVL339:
.L260:
	.loc 1 1077 0
	bdnz .L261
.LBE12:
	.loc 1 1090 0
	stw 22,60(31)
	.loc 1 1021 0
	addi 22,22,1
.LVL340:
	cmpw 7,16,22
.LBB13:
	.loc 1 1083 0
	stw 11,52(31)
.LBE13:
	.loc 1 1021 0
	addi 30,30,28
.LVL341:
	addi 31,31,64
	bne+ 7,.L262
.LVL342:
.L244:
	.loc 1 1092 0
	lwz 0,108(1)
	lwz 15,28(1)
	mtlr 0
	lwz 16,32(1)
.LVL343:
	lwz 17,36(1)
	lwz 18,40(1)
	lwz 19,44(1)
	lwz 20,48(1)
	lwz 21,52(1)
	lwz 22,56(1)
	lwz 23,60(1)
	lwz 24,64(1)
	lwz 25,68(1)
	lwz 26,72(1)
	lwz 27,76(1)
	lwz 28,80(1)
	lwz 29,84(1)
	lwz 30,88(1)
	lwz 31,92(1)
	lfd 31,96(1)
	addi 1,1,104
	.cfi_remember_state
.LCFI61:
	.cfi_def_cfa_offset 0
	.cfi_restore 63
	.cfi_restore 31
	.cfi_restore 30
	.cfi_restore 29
	.cfi_restore 28
	.cfi_restore 27
	.cfi_restore 26
	.cfi_restore 25
	.cfi_restore 24
	.cfi_restore 23
	.cfi_restore 22
	.cfi_restore 21
	.cfi_restore 20
	.cfi_restore 19
	.cfi_restore 18
	.cfi_restore 17
	.cfi_restore 16
	.cfi_restore 15
	blr
.LVL344:
.L251:
.LCFI62:
	.cfi_restore_state
.LBB14:
	.loc 1 1051 0 discriminator 1
	cmpwi 7,27,0
	ble- 7,.L253
	.loc 1 1006 0
	lwz 23,48(31)
.LBE14:
	li 21,1
	li 29,0
.LBB15:
	addi 23,23,-4
	b .L255
.LVL345:
.L264:
	.loc 1 1051 0
	addi 29,29,1
	.loc 1 1056 0
	li 21,0
.LVL346:
	.loc 1 1051 0
	cmpw 7,29,27
	beq- 7,.L275
.LVL347:
.L255:
	.loc 1 1053 0
	lwzu 9,4(23)
	mr 4,19
	lwz 9,48(9)
	lwz 24,36(9)
	mr 3,24
	bl strstr
	cmpwi 7,3,0
	bne+ 7,.L264
	.loc 1 1054 0 discriminator 1
	mr 3,24
	mr 4,15
	.loc 1 1051 0 discriminator 1
	addi 29,29,1
	.loc 1 1054 0 discriminator 1
	bl strstr
	.loc 1 1051 0 discriminator 1
	cmpw 7,29,27
	.loc 1 1056 0 discriminator 1
	addic 3,3,-1
	subfe 3,3,3
	and 21,21,3
.LVL348:
	.loc 1 1051 0 discriminator 1
	bne+ 7,.L255
.LVL349:
.L275:
	.loc 1 1060 0
	cmpwi 7,21,0
	beq+ 7,.L256
.LVL350:
	.loc 1 1006 0
	lwz 11,48(31)
	mtctr 29
	addi 11,11,-4
.LVL351:
.L257:
	.loc 1 1061 0 discriminator 2
	lwzu 9,4(11)
	lwz 0,8(9)
	ori 0,0,128
	stw 0,8(9)
	.loc 1 1060 0 discriminator 2
	bdnz .L257
	.loc 1 1060 0 is_stmt 0
	lwz 27,52(31)
.LVL352:
.LBE15:
.LBB16:
	.loc 1 1070 0 is_stmt 1
	cmpwi 7,27,0
	bgt+ 7,.L256
.L253:
.LVL353:
.LBE16:
	.loc 1 1090 0
	stw 22,60(31)
	.loc 1 1021 0
	addi 22,22,1
.LVL354:
	cmpw 7,16,22
.LBB17:
	.loc 1 1070 0
	li 11,0
	.loc 1 1083 0
	stw 11,52(31)
.LBE17:
	.loc 1 1021 0
	addi 30,30,28
.LVL355:
	addi 31,31,64
	bne+ 7,.L262
	b .L244
.LVL356:
.L274:
	.loc 1 1038 0
	stw 26,40(31)
	b .L250
.LVL357:
.L273:
	.loc 1 1014 0
	lwz 4,loadmodel@l(29)
	lis 3,.LC11@ha
.LVL358:
	la 3,.LC11@l(3)
	crxor 6,6,6
	bl Sys_Error
	lwz 0,4(31)
	srwi 9,0,2
	b .L245
	.cfi_endproc
.LFE62:
	.size	Mod_LoadLeafs, .-Mod_LoadLeafs
	.align 2
	.globl Mod_LoadClipnodes
	.type	Mod_LoadClipnodes, @function
Mod_LoadClipnodes:
.LFB63:
	.loc 1 1100 0
	.cfi_startproc
.LVL359:
	mflr 0
	stwu 1,-32(1)
.LCFI63:
	.cfi_def_cfa_offset 32
	.cfi_register 65, 0
	.loc 1 1105 0
	lis 9,mod_base@ha
	.loc 1 1100 0
	stw 31,28(1)
	stw 0,36(1)
	stw 27,12(1)
	.loc 1 1106 0
	lwz 31,4(3)
	.cfi_offset 27, -20
	.cfi_offset 65, 4
	.cfi_offset 31, -4
	.loc 1 1100 0
	stw 28,16(1)
	.loc 1 1106 0
	andi. 0,31,7
	.loc 1 1100 0
	stw 29,20(1)
	stw 30,24(1)
	lis 29,loadmodel@ha
	.cfi_offset 30, -8
	.cfi_offset 29, -12
	.cfi_offset 28, -16
	stw 26,8(1)
	.loc 1 1100 0
	mr 30,3
	.loc 1 1105 0
	lwz 27,mod_base@l(9)
	lwz 28,0(3)
.LVL360:
	.loc 1 1106 0
	bne- 0,.L282
	.cfi_offset 26, -24
.LVL361:
.L277:
	.loc 1 1108 0
	srwi 31,31,3
.LVL362:
	.loc 1 1109 0
	lis 4,loadname@ha
	la 4,loadname@l(4)
	slwi 3,31,3
	bl Hunk_AllocName
	.loc 1 1124 0
	lis 11,.LC40@ha
	lwz 0,.LC40@l(11)
	.loc 1 1119 0
	lis 11,.LC37@ha
	lwz 4,.LC37@l(11)
	.loc 1 1121 0
	lis 11,.LC38@ha
	.loc 1 1111 0
	lwz 9,loadmodel@l(29)
	.loc 1 1122 0
	lis 10,.LC39@ha
	.loc 1 1121 0
	lwz 11,.LC38@l(11)
	.loc 1 1138 0
	cmpwi 7,31,0
	.loc 1 1122 0
	lwz 5,.LC39@l(10)
	.loc 1 1131 0
	lis 10,.LC41@ha
	.loc 1 1121 0
	stw 11,300(9)
	.loc 1 1116 0
	li 6,0
	.loc 1 1133 0
	stw 11,340(9)
	.loc 1 1136 0
	lis 11,.LC42@ha
	.loc 1 1118 0
	lwz 8,160(9)
	.loc 1 1117 0
	addi 7,31,-1
	.loc 1 1131 0
	lwz 10,.LC41@l(10)
	.loc 1 1109 0
	mr 30,3
.LVL363:
	.loc 1 1124 0
	stw 0,312(9)
	.loc 1 1134 0
	stw 0,344(9)
	.loc 1 1135 0
	stw 0,348(9)
	.loc 1 1136 0
	lwz 0,.LC42@l(11)
	.loc 1 1111 0
	stw 3,224(9)
	.loc 1 1112 0
	stw 31,220(9)
.LVL364:
	.loc 1 1115 0
	stw 3,276(9)
	.loc 1 1116 0
	stw 6,284(9)
	.loc 1 1117 0
	stw 7,288(9)
	.loc 1 1118 0
	stw 8,280(9)
	.loc 1 1119 0
	stw 4,292(9)
	.loc 1 1120 0
	stw 4,296(9)
	.loc 1 1122 0
	stw 5,304(9)
	.loc 1 1123 0
	stw 5,308(9)
	.loc 1 1127 0
	stw 3,316(9)
	.loc 1 1128 0
	stw 6,324(9)
	.loc 1 1129 0
	stw 7,328(9)
	.loc 1 1130 0
	stw 8,320(9)
	.loc 1 1131 0
	stw 10,332(9)
	.loc 1 1132 0
	stw 10,336(9)
	.loc 1 1136 0
	stw 0,352(9)
.LVL365:
	.loc 1 1138 0
	ble- 7,.L276
	.loc 1 1105 0
	add 28,27,28
.LVL366:
	lis 26,LittleLong@ha
	lis 27,LittleShort@ha
	.loc 1 1138 0
	li 29,0
	la 26,LittleLong@l(26)
	la 27,LittleShort@l(27)
.LVL367:
.L279:
	.loc 1 1140 0 discriminator 2
	lwz 0,0(26)
	.loc 1 1138 0 discriminator 2
	addi 29,29,1
	.loc 1 1140 0 discriminator 2
	lwz 3,0(28)
	mtctr 0
	bctrl
	.loc 1 1141 0 discriminator 2
	lwz 0,0(27)
	.loc 1 1140 0 discriminator 2
	stw 3,0(30)
	.loc 1 1141 0 discriminator 2
	mtctr 0
	lha 3,4(28)
	bctrl
	.loc 1 1142 0 discriminator 2
	lwz 0,0(27)
	.loc 1 1141 0 discriminator 2
	sth 3,4(30)
	.loc 1 1142 0 discriminator 2
	mtctr 0
	lha 3,6(28)
	.loc 1 1138 0 discriminator 2
	addi 28,28,8
	.loc 1 1142 0 discriminator 2
	bctrl
.LVL368:
	.loc 1 1138 0 discriminator 2
	cmpw 7,31,29
	.loc 1 1142 0 discriminator 2
	sth 3,6(30)
	.loc 1 1138 0 discriminator 2
	addi 30,30,8
.LVL369:
	bne+ 7,.L279
.LVL370:
.L276:
	.loc 1 1144 0
	lwz 0,36(1)
	lwz 26,8(1)
	mtlr 0
	lwz 27,12(1)
	lwz 28,16(1)
	lwz 29,20(1)
	lwz 30,24(1)
.LVL371:
	lwz 31,28(1)
.LVL372:
	addi 1,1,32
	.cfi_remember_state
.LCFI64:
	.cfi_def_cfa_offset 0
	.cfi_restore 31
	.cfi_restore 30
	.cfi_restore 29
	.cfi_restore 28
	.cfi_restore 27
	.cfi_restore 26
	blr
.LVL373:
.L282:
.LCFI65:
	.cfi_restore_state
	.loc 1 1107 0
	lwz 4,loadmodel@l(29)
	lis 3,.LC11@ha
.LVL374:
	la 3,.LC11@l(3)
	crxor 6,6,6
	bl Sys_Error
	lwz 31,4(30)
	b .L277
	.cfi_endproc
.LFE63:
	.size	Mod_LoadClipnodes, .-Mod_LoadClipnodes
	.align 2
	.globl Mod_MakeHull0
	.type	Mod_MakeHull0, @function
Mod_MakeHull0:
.LFB64:
	.loc 1 1154 0
	.cfi_startproc
	stwu 1,-24(1)
.LCFI66:
	.cfi_def_cfa_offset 24
	mflr 0
	.loc 1 1164 0
	lis 4,loadname@ha
	.loc 1 1154 0
	stw 28,8(1)
	.loc 1 1160 0
	lis 28,loadmodel@ha
	.cfi_offset 28, -16
	.cfi_register 65, 0
	.loc 1 1154 0
	stw 0,28(1)
	.loc 1 1164 0
	la 4,loadname@l(4)
	.loc 1 1154 0
	stw 30,16(1)
	.loc 1 1160 0
	lwz 30,loadmodel@l(28)
	.cfi_offset 30, -8
	.cfi_offset 65, 4
.LVL375:
	.loc 1 1154 0
	stw 29,12(1)
	.loc 1 1163 0
	lwz 29,188(30)
	.cfi_offset 29, -12
	.loc 1 1154 0
	stw 31,20(1)
	.loc 1 1164 0
	slwi 3,29,3
	.loc 1 1162 0
	lwz 31,192(30)
	.cfi_offset 31, -4
.LVL376:
	.loc 1 1164 0
	bl Hunk_AllocName
.LVL377:
	.loc 1 1169 0
	lwz 10,loadmodel@l(28)
	.loc 1 1171 0
	cmpwi 7,29,0
	.loc 1 1168 0
	addi 0,29,-1
	.loc 1 1169 0
	lwz 7,160(10)
	.loc 1 1167 0
	li 9,0
	.loc 1 1166 0
	stw 3,236(30)
	.loc 1 1167 0
	stw 9,244(30)
	.loc 1 1168 0
	stw 0,248(30)
	.loc 1 1169 0
	stw 7,240(30)
.LVL378:
	.loc 1 1171 0
	ble- 7,.L283
	.loc 1 1173 0
	lis 6,0xcccc
	.loc 1 1180 0
	lis 8,0xc4ec
	.loc 1 1173 0
	ori 6,6,52429
	.loc 1 1180 0
	ori 8,8,20165
	mtctr 29
	b .L289
.LVL379:
.L291:
	lwz 0,192(10)
	subf 9,0,9
.LVL380:
	srawi 9,9,2
	mullw 9,9,8
	sth 9,4(3)
.LVL381:
	.loc 1 1176 0
	lwz 9,44(31)
.LVL382:
	.loc 1 1177 0
	lwz 0,0(9)
	cmpwi 7,0,0
	blt- 7,.L287
.LVL383:
.L292:
	.loc 1 1180 0
	lwz 0,192(10)
	.loc 1 1171 0
	addi 31,31,52
.LVL384:
	.loc 1 1180 0
	subf 9,0,9
.LVL385:
	srawi 9,9,2
	mullw 9,9,8
	sth 9,6(3)
.LVL386:
	.loc 1 1171 0
	addi 3,3,8
.LVL387:
	bdz .L283
.LVL388:
.L289:
	.loc 1 1173 0
	lwz 11,36(31)
	.loc 1 1176 0
	lwz 9,40(31)
	.loc 1 1173 0
	subf 11,7,11
	.loc 1 1177 0
	lwz 0,0(9)
	.loc 1 1173 0
	srawi 11,11,2
	mullw 11,11,6
	.loc 1 1177 0
	cmpwi 7,0,0
	.loc 1 1173 0
	stw 11,0(3)
.LVL389:
	.loc 1 1177 0
	bge+ 7,.L291
	.loc 1 1176 0
	lwz 9,44(31)
	.loc 1 1178 0
	sth 0,4(3)
.LVL390:
	.loc 1 1177 0
	lwz 0,0(9)
	cmpwi 7,0,0
	bge+ 7,.L292
.LVL391:
.L287:
	.loc 1 1178 0
	sth 0,6(3)
.LVL392:
	.loc 1 1171 0
	addi 31,31,52
.LVL393:
	addi 3,3,8
.LVL394:
	bdnz .L289
.LVL395:
.L283:
	.loc 1 1183 0
	lwz 0,28(1)
	lwz 28,8(1)
	mtlr 0
	lwz 29,12(1)
.LVL396:
	lwz 30,16(1)
.LVL397:
	lwz 31,20(1)
.LVL398:
	addi 1,1,24
.LCFI67:
	.cfi_def_cfa_offset 0
	.cfi_restore 31
	.cfi_restore 30
	.cfi_restore 29
	.cfi_restore 28
	blr
	.cfi_endproc
.LFE64:
	.size	Mod_MakeHull0, .-Mod_MakeHull0
	.align 2
	.globl Mod_LoadMarksurfaces
	.type	Mod_LoadMarksurfaces, @function
Mod_LoadMarksurfaces:
.LFB65:
	.loc 1 1191 0
	.cfi_startproc
.LVL399:
	mflr 0
	stwu 1,-40(1)
.LCFI68:
	.cfi_def_cfa_offset 40
	.cfi_register 65, 0
	.loc 1 1196 0
	lis 9,mod_base@ha
	.loc 1 1191 0
	stw 30,32(1)
	stw 0,44(1)
	stw 31,36(1)
	.loc 1 1197 0
	lwz 30,4(3)
	.cfi_offset 31, -4
	.cfi_offset 65, 4
	.cfi_offset 30, -8
	.loc 1 1196 0
	lwz 31,mod_base@l(9)
	.loc 1 1197 0
	andi. 0,30,1
	.loc 1 1196 0
	lwz 0,0(3)
	.loc 1 1191 0
	stw 28,24(1)
	lis 28,loadmodel@ha
	.cfi_offset 28, -16
	stw 29,28(1)
	.loc 1 1196 0
	add 31,31,0
.LVL400:
	.loc 1 1191 0
	stw 24,8(1)
	mr 29,3
	.cfi_offset 24, -32
	.cfi_offset 29, -12
	stw 25,12(1)
	stw 26,16(1)
	stw 27,20(1)
	.loc 1 1197 0
	bne- 0,.L300
	.cfi_offset 27, -20
	.cfi_offset 26, -24
	.cfi_offset 25, -28
.LVL401:
.L294:
	.loc 1 1199 0
	srwi 30,30,1
.LVL402:
	.loc 1 1200 0
	lis 4,loadname@ha
	slwi 3,30,2
	la 4,loadname@l(4)
	bl Hunk_AllocName
.LVL403:
	.loc 1 1205 0
	cmpwi 7,30,0
	.loc 1 1202 0
	lwz 9,loadmodel@l(28)
	stw 3,232(9)
	.loc 1 1203 0
	stw 30,228(9)
.LVL404:
	.loc 1 1205 0
	beq- 7,.L293
	lis 25,LittleShort@ha
	lis 26,loadmodel@ha
	.loc 1 1209 0
	lis 24,.LC43@ha
	.loc 1 1190 0
	addi 27,3,-4
	slwi 30,30,1
.LVL405:
	li 29,0
.LVL406:
	la 25,LittleShort@l(25)
	la 26,loadmodel@l(26)
	.loc 1 1209 0
	la 24,.LC43@l(24)
	b .L297
.LVL407:
.L296:
	.loc 1 1205 0
	cmpw 7,29,30
	.loc 1 1210 0
	lwz 0,208(9)
	mulli 28,28,92
	add 28,0,28
	stwu 28,4(27)
	.loc 1 1205 0
	beq- 7,.L293
.LVL408:
.L297:
	.loc 1 1207 0
	lwz 0,0(25)
	lhax 3,31,29
	.loc 1 1210 0
	addi 29,29,2
	.loc 1 1207 0
	mtctr 0
	bctrl
	.loc 1 1208 0
	lwz 9,0(26)
	.loc 1 1207 0
	mr 28,3
.LVL409:
	.loc 1 1208 0
	lwz 0,204(9)
	cmpw 7,3,0
	blt+ 7,.L296
	.loc 1 1209 0
	mr 3,24
.LVL410:
	.loc 1 1210 0
	mulli 28,28,92
.LVL411:
	.loc 1 1209 0
	crxor 6,6,6
	bl Sys_Error
	lwz 9,0(26)
	.loc 1 1205 0
	cmpw 7,29,30
	.loc 1 1210 0
	lwz 0,208(9)
	add 28,0,28
	stwu 28,4(27)
	.loc 1 1205 0
	bne+ 7,.L297
.L293:
	.loc 1 1212 0
	lwz 0,44(1)
	lwz 24,8(1)
	mtlr 0
	lwz 25,12(1)
	lwz 26,16(1)
	lwz 27,20(1)
	lwz 28,24(1)
	lwz 29,28(1)
	lwz 30,32(1)
	lwz 31,36(1)
.LVL412:
	addi 1,1,40
	.cfi_remember_state
.LCFI69:
	.cfi_def_cfa_offset 0
	.cfi_restore 31
	.cfi_restore 30
	.cfi_restore 29
	.cfi_restore 28
	.cfi_restore 27
	.cfi_restore 26
	.cfi_restore 25
	.cfi_restore 24
	blr
.LVL413:
.L300:
.LCFI70:
	.cfi_restore_state
	.loc 1 1198 0
	lwz 4,loadmodel@l(28)
	lis 3,.LC11@ha
.LVL414:
	la 3,.LC11@l(3)
	crxor 6,6,6
	bl Sys_Error
	lwz 30,4(29)
	b .L294
	.cfi_endproc
.LFE65:
	.size	Mod_LoadMarksurfaces, .-Mod_LoadMarksurfaces
	.align 2
	.globl Mod_LoadSurfedges
	.type	Mod_LoadSurfedges, @function
Mod_LoadSurfedges:
.LFB66:
	.loc 1 1220 0
	.cfi_startproc
.LVL415:
	mflr 0
	stwu 1,-32(1)
.LCFI71:
	.cfi_def_cfa_offset 32
	.cfi_register 65, 0
	.loc 1 1224 0
	lis 9,mod_base@ha
	.loc 1 1220 0
	stw 31,28(1)
	stw 0,36(1)
	stw 28,16(1)
	.loc 1 1225 0
	lwz 31,4(3)
	.cfi_offset 28, -16
	.cfi_offset 65, 4
	.cfi_offset 31, -4
	.loc 1 1224 0
	lwz 28,mod_base@l(9)
	.loc 1 1225 0
	andi. 0,31,3
	.loc 1 1224 0
	lwz 0,0(3)
	.loc 1 1220 0
	stw 29,20(1)
	lis 29,loadmodel@ha
	.cfi_offset 29, -12
	stw 30,24(1)
	.loc 1 1224 0
	add 28,28,0
.LVL416:
	.loc 1 1220 0
	stw 27,12(1)
	.loc 1 1220 0
	mr 30,3
	.cfi_offset 27, -20
	.cfi_offset 30, -8
	.loc 1 1225 0
	bne- 0,.L307
.LVL417:
.L302:
	.loc 1 1227 0
	srwi 31,31,2
.LVL418:
	.loc 1 1228 0
	lis 4,loadname@ha
	slwi 3,31,2
	la 4,loadname@l(4)
	bl Hunk_AllocName
.LVL419:
	.loc 1 1233 0
	cmpwi 7,31,0
	.loc 1 1230 0
	lwz 9,loadmodel@l(29)
	stw 3,216(9)
	.loc 1 1231 0
	stw 31,212(9)
.LVL420:
	.loc 1 1233 0
	ble- 7,.L301
	lis 27,LittleLong@ha
	.loc 1 1219 0
	addi 28,28,-4
.LVL421:
	addi 29,3,-4
	.loc 1 1233 0
	li 30,0
.LVL422:
	la 27,LittleLong@l(27)
.LVL423:
.L304:
	.loc 1 1234 0 discriminator 2
	lwz 0,0(27)
	.loc 1 1233 0 discriminator 2
	addi 30,30,1
	.loc 1 1234 0 discriminator 2
	lwzu 3,4(28)
	mtctr 0
	bctrl
.LVL424:
	.loc 1 1233 0 discriminator 2
	cmpw 7,31,30
	.loc 1 1234 0 discriminator 2
	stwu 3,4(29)
	.loc 1 1233 0 discriminator 2
	bne+ 7,.L304
.LVL425:
.L301:
	.loc 1 1235 0
	lwz 0,36(1)
	lwz 27,12(1)
	mtlr 0
	lwz 28,16(1)
	lwz 29,20(1)
	lwz 30,24(1)
	lwz 31,28(1)
.LVL426:
	addi 1,1,32
	.cfi_remember_state
.LCFI72:
	.cfi_def_cfa_offset 0
	.cfi_restore 31
	.cfi_restore 30
	.cfi_restore 29
	.cfi_restore 28
	.cfi_restore 27
	blr
.LVL427:
.L307:
.LCFI73:
	.cfi_restore_state
	.loc 1 1226 0
	lwz 4,loadmodel@l(29)
	lis 3,.LC11@ha
.LVL428:
	la 3,.LC11@l(3)
	crxor 6,6,6
	bl Sys_Error
	lwz 31,4(30)
	b .L302
	.cfi_endproc
.LFE66:
	.size	Mod_LoadSurfedges, .-Mod_LoadSurfedges
	.align 2
	.globl Mod_LoadPlanes
	.type	Mod_LoadPlanes, @function
Mod_LoadPlanes:
.LFB67:
	.loc 1 1244 0
	.cfi_startproc
.LVL429:
	mflr 0
	stwu 1,-56(1)
.LCFI74:
	.cfi_def_cfa_offset 56
	.cfi_register 65, 0
	.loc 1 1252 0
	lis 9,0xcccc
	.loc 1 1251 0
	lis 11,mod_base@ha
	.loc 1 1252 0
	ori 9,9,52429
	.loc 1 1244 0
	stw 28,32(1)
	stw 0,60(1)
	stw 29,36(1)
	.loc 1 1252 0
	lwz 0,4(3)
	.cfi_offset 29, -20
	.cfi_offset 65, 4
	.cfi_offset 28, -24
	.loc 1 1244 0
	stw 30,40(1)
	lis 30,loadmodel@ha
	.cfi_offset 30, -16
	.loc 1 1252 0
	mulhwu 9,0,9
	.loc 1 1244 0
	stw 31,44(1)
	stfd 31,48(1)
	mr 31,3
	.cfi_offset 63, -8
	.cfi_offset 31, -12
	stw 22,8(1)
	stw 23,12(1)
	.loc 1 1252 0
	srwi 9,9,4
	.loc 1 1244 0
	stw 24,16(1)
	.loc 1 1252 0
	mulli 9,9,20
	.loc 1 1244 0
	stw 25,20(1)
	stw 26,24(1)
	.loc 1 1252 0
	cmpw 7,0,9
	.loc 1 1244 0
	stw 27,28(1)
	.loc 1 1251 0
	lwz 28,mod_base@l(11)
	lwz 29,0(3)
.LVL430:
	.loc 1 1252 0
	bne- 7,.L320
	.cfi_offset 27, -28
	.cfi_offset 26, -32
	.cfi_offset 25, -36
	.cfi_offset 24, -40
	.cfi_offset 23, -44
	.cfi_offset 22, -48
.LVL431:
.L309:
	.loc 1 1254 0
	lis 31,0xcccc
.LVL432:
	.loc 1 1255 0
	lis 4,loadname@ha
	.loc 1 1254 0
	ori 31,31,52429
	.loc 1 1255 0
	la 4,loadname@l(4)
	.loc 1 1254 0
	mulhwu 31,0,31
	srwi 31,31,4
.LVL433:
	.loc 1 1255 0
	mulli 3,31,40
	bl Hunk_AllocName
	.loc 1 1260 0
	cmpwi 7,31,0
	.loc 1 1257 0
	lwz 9,loadmodel@l(30)
	.loc 1 1255 0
	mr 27,3
.LVL434:
	.loc 1 1257 0
	stw 3,160(9)
	.loc 1 1258 0
	stw 31,156(9)
.LVL435:
	.loc 1 1260 0
	beq- 7,.L308
	.loc 1 1266 0
	lis 9,.LC1@ha
	.loc 1 1251 0
	add 29,28,29
.LVL436:
	lis 24,LittleLong@ha
	lis 28,LittleFloat@ha
	.loc 1 1266 0
	lfs 31,.LC1@l(9)
	.loc 1 1260 0
	li 25,0
	la 28,LittleFloat@l(28)
	la 24,LittleLong@l(24)
	.loc 1 1267 0
	li 26,1
.LVL437:
.L315:
	.loc 1 1244 0
	li 23,0
	li 30,0
	li 22,0
.LVL438:
.L314:
	.loc 1 1265 0
	lwz 0,0(28)
	lfsx 1,29,23
	mtctr 0
	bctrl
	.loc 1 1263 0
	cmpwi 7,23,8
	.loc 1 1266 0
	fcmpu 6,1,31
	.loc 1 1267 0
	slw 0,26,22
	.loc 1 1265 0
	stfsx 1,27,23
	.loc 1 1263 0
	addi 22,22,1
	addi 23,23,4
	.loc 1 1266 0
	bnl- 6,.L312
	.loc 1 1267 0
	or 30,30,0
.LVL439:
.L312:
	.loc 1 1263 0
	bne+ 7,.L314
	.loc 1 1270 0
	lwz 0,0(28)
	.loc 1 1260 0
	addi 25,25,1
	.loc 1 1270 0
	lfs 1,12(29)
	mtctr 0
	bctrl
	.loc 1 1271 0
	lwz 0,0(24)
	.loc 1 1270 0
	stfs 1,12(27)
	.loc 1 1271 0
	mtctr 0
	lwz 3,16(29)
	.loc 1 1260 0
	addi 29,29,20
	.loc 1 1271 0
	bctrl
.LVL440:
	.loc 1 1260 0
	cmpw 7,31,25
	.loc 1 1271 0
	stb 3,16(27)
	.loc 1 1272 0
	stb 30,17(27)
	.loc 1 1260 0
	addi 27,27,20
.LVL441:
	bne+ 7,.L315
.LVL442:
.L308:
	.loc 1 1274 0
	lwz 0,60(1)
	lwz 22,8(1)
	mtlr 0
	lwz 23,12(1)
	lwz 24,16(1)
	lwz 25,20(1)
	lwz 26,24(1)
	lwz 27,28(1)
.LVL443:
	lwz 28,32(1)
	lwz 29,36(1)
	lwz 30,40(1)
	lwz 31,44(1)
.LVL444:
	lfd 31,48(1)
	addi 1,1,56
	.cfi_remember_state
.LCFI75:
	.cfi_def_cfa_offset 0
	.cfi_restore 63
	.cfi_restore 31
	.cfi_restore 30
	.cfi_restore 29
	.cfi_restore 28
	.cfi_restore 27
	.cfi_restore 26
	.cfi_restore 25
	.cfi_restore 24
	.cfi_restore 23
	.cfi_restore 22
	blr
.LVL445:
.L320:
.LCFI76:
	.cfi_restore_state
	.loc 1 1253 0
	lwz 4,loadmodel@l(30)
	lis 3,.LC11@ha
.LVL446:
	la 3,.LC11@l(3)
	crxor 6,6,6
	bl Sys_Error
	lwz 0,4(31)
	b .L309
	.cfi_endproc
.LFE67:
	.size	Mod_LoadPlanes, .-Mod_LoadPlanes
	.align 2
	.globl RadiusFromBounds
	.type	RadiusFromBounds, @function
RadiusFromBounds:
.LFB68:
	.loc 1 1282 0
	.cfi_startproc
.LVL447:
	mflr 0
	stwu 1,-24(1)
.LCFI77:
	.cfi_def_cfa_offset 24
	.cfi_register 65, 0
	mr 9,3
	li 11,0
	addi 3,1,8
.LVL448:
	stw 0,28(1)
.LVL449:
.L324:
	.loc 1 1288 0
	lfsx 13,9,11
	.loc 1 1286 0
	cmpwi 7,11,8
	.loc 1 1288 0
	lfsx 0,4,11
	fabs 13,13
	fabs 0,0
	fcmpu 6,13,0
	bng- 6,.L322
	.cfi_offset 65, 4
	fmr 0,13
.L322:
	.loc 1 1288 0 is_stmt 0 discriminator 3
	stfsx 0,3,11
	.loc 1 1286 0 is_stmt 1 discriminator 3
	addi 11,11,4
	bne+ 7,.L324
	.loc 1 1291 0
	bl Length
.LVL450:
	.loc 1 1292 0
	lwz 0,28(1)
	addi 1,1,24
.LCFI78:
	.cfi_def_cfa_offset 0
	mtlr 0
	blr
	.cfi_endproc
.LFE68:
	.size	RadiusFromBounds, .-RadiusFromBounds
	.align 2
	.globl Mod_LoadBrushModel
	.type	Mod_LoadBrushModel, @function
Mod_LoadBrushModel:
.LFB69:
	.loc 1 1300 0
	.cfi_startproc
.LVL451:
	stwu 1,-64(1)
.LCFI79:
	.cfi_def_cfa_offset 64
	mflr 0
	stw 29,52(1)
	.loc 1 1305 0
	lis 29,loadmodel@ha
	.cfi_offset 29, -12
	.cfi_register 65, 0
	lwz 9,loadmodel@l(29)
	.loc 1 1300 0
	stw 0,68(1)
	.loc 1 1305 0
	li 0,0
	.cfi_offset 65, 4
	.loc 1 1300 0
	stw 30,56(1)
	mr 30,4
	.cfi_offset 30, -8
	stw 31,60(1)
	mr 31,3
	.cfi_offset 31, -4
	stw 22,24(1)
	stw 23,28(1)
	stw 24,32(1)
	stw 25,36(1)
	stw 26,40(1)
	stw 27,44(1)
	stw 28,48(1)
	.loc 1 1305 0
	stw 0,68(9)
.LVL452:
	.loc 1 1309 0
	lis 9,LittleLong@ha
	lwz 0,LittleLong@l(9)
	lwz 3,0(4)
.LVL453:
	mtctr 0
	.cfi_offset 28, -16
	.cfi_offset 27, -20
	.cfi_offset 26, -24
	.cfi_offset 25, -28
	.cfi_offset 24, -32
	.cfi_offset 23, -36
	.cfi_offset 22, -40
	bctrl
.LVL454:
	.loc 1 1310 0
	cmpwi 7,3,29
	.loc 1 1309 0
	mr 5,3
.LVL455:
	.loc 1 1310 0
	beq- 7,.L328
	.loc 1 1311 0
	lis 3,.LC44@ha
.LVL456:
	mr 4,31
	la 3,.LC44@l(3)
	li 6,29
	crxor 6,6,6
	bl Sys_Error
.LVL457:
.L328:
	.loc 1 1314 0
	lis 9,mod_base@ha
	lis 26,LittleLong@ha
	stw 30,mod_base@l(9)
.LVL458:
	.loc 1 1316 0
	li 27,0
	li 28,0
	la 26,LittleLong@l(26)
.LVL459:
.L329:
	.loc 1 1317 0 discriminator 2
	lwz 0,0(26)
	slwi 27,27,2
	lwzx 3,30,27
	.loc 1 1316 0 discriminator 2
	addi 28,28,1
	.loc 1 1317 0 discriminator 2
	mtctr 0
	bctrl
.LVL460:
	.loc 1 1316 0 discriminator 2
	cmpwi 7,28,31
	.loc 1 1317 0 discriminator 2
	stwx 3,30,27
	.loc 1 1316 0 discriminator 2
	mr 27,28
	bne+ 7,.L329
	.loc 1 1321 0
	lis 3,.LC45@ha
	la 3,.LC45@l(3)
	crxor 6,6,6
	bl Con_DPrintf
	.loc 1 1322 0
	addi 3,30,28
	bl Mod_LoadVertexes
	.loc 1 1323 0
	lis 3,.LC46@ha
	la 3,.LC46@l(3)
	crxor 6,6,6
	bl Con_DPrintf
	.loc 1 1324 0
	addi 3,30,100
	bl Mod_LoadEdges
	.loc 1 1325 0
	lis 3,.LC47@ha
	la 3,.LC47@l(3)
	crxor 6,6,6
	bl Con_DPrintf
	.loc 1 1326 0
	addi 3,30,108
	bl Mod_LoadSurfedges
	.loc 1 1327 0
	lis 3,.LC48@ha
	la 3,.LC48@l(3)
	crxor 6,6,6
	bl Con_DPrintf
	.loc 1 1328 0
	addi 3,30,20
	bl Mod_LoadTextures
	.loc 1 1329 0
	lis 3,.LC49@ha
	la 3,.LC49@l(3)
	crxor 6,6,6
	bl Con_DPrintf
	.loc 1 1330 0
	addi 3,30,68
	bl Mod_LoadLighting
	.loc 1 1331 0
	lis 3,.LC50@ha
	la 3,.LC50@l(3)
	crxor 6,6,6
	bl Con_DPrintf
	.loc 1 1332 0
	addi 3,30,12
	bl Mod_LoadPlanes
	.loc 1 1333 0
	lis 3,.LC51@ha
	la 3,.LC51@l(3)
	crxor 6,6,6
	bl Con_DPrintf
	.loc 1 1334 0
	addi 3,30,52
	bl Mod_LoadTexinfo
	.loc 1 1335 0
	lis 3,.LC52@ha
	la 3,.LC52@l(3)
	crxor 6,6,6
	bl Con_DPrintf
	.loc 1 1336 0
	addi 3,30,60
	bl Mod_LoadFaces
	.loc 1 1337 0
	lis 3,.LC53@ha
	la 3,.LC53@l(3)
	crxor 6,6,6
	bl Con_DPrintf
	.loc 1 1338 0
	addi 3,30,92
	bl Mod_LoadMarksurfaces
	.loc 1 1339 0
	lis 3,.LC54@ha
	la 3,.LC54@l(3)
	crxor 6,6,6
	bl Con_DPrintf
	.loc 1 1340 0
	addi 3,30,36
	bl Mod_LoadVisibility
	.loc 1 1341 0
	lis 3,.LC55@ha
	la 3,.LC55@l(3)
	crxor 6,6,6
	bl Con_DPrintf
	.loc 1 1342 0
	addi 3,30,84
	bl Mod_LoadLeafs
	.loc 1 1343 0
	lis 3,.LC56@ha
	la 3,.LC56@l(3)
	crxor 6,6,6
	bl Con_DPrintf
	.loc 1 1344 0
	addi 3,30,44
	bl Mod_LoadNodes
	.loc 1 1345 0
	lis 3,.LC57@ha
	la 3,.LC57@l(3)
	crxor 6,6,6
	bl Con_DPrintf
	.loc 1 1346 0
	addi 3,30,76
	bl Mod_LoadClipnodes
	.loc 1 1347 0
	lis 3,.LC58@ha
	la 3,.LC58@l(3)
	crxor 6,6,6
	bl Con_DPrintf
	.loc 1 1348 0
	addi 3,30,4
	bl Mod_LoadEntities
	.loc 1 1349 0
	lis 3,.LC59@ha
	la 3,.LC59@l(3)
	crxor 6,6,6
	bl Con_DPrintf
	.loc 1 1350 0
	addi 3,30,116
	bl Mod_LoadSubmodels
	.loc 1 1352 0
	bl Mod_MakeHull0
	.loc 1 1359 0
	lwz 0,148(31)
	cmpwi 7,0,0
	.loc 1 1354 0
	li 0,2
	stw 0,72(31)
.LVL461:
	.loc 1 1359 0
	ble- 7,.L327
.LBB18:
	.loc 1 1384 0
	lis 24,.LC60@ha
.LBE18:
	.loc 1 1359 0
	li 28,1
	li 30,0
.LVL462:
.LBB19:
	.loc 1 1384 0
	la 24,.LC60@l(24)
	.loc 1 1388 0
	li 25,0
	b .L333
.LVL463:
.L332:
.LBE19:
	.loc 1 1359 0
	cmpw 7,9,27
.LBB20:
	.loc 1 1388 0
	addi 30,30,1
	addi 28,28,1
.LBE20:
	.loc 1 1359 0
	ble- 7,.L327
.LVL464:
.L333:
	.loc 1 1361 0
	lwz 11,152(31)
	slwi 9,30,6
	.loc 1 1363 0
	lwz 22,220(31)
	.loc 1 1361 0
	add 27,11,9
.LVL465:
	.loc 1 1374 0
	lwzx 10,11,9
	.loc 1 1366 0
	lwz 3,48(27)
	.loc 1 1363 0
	addi 0,22,-1
	.loc 1 1370 0
	lwz 4,56(27)
	.loc 1 1374 0
	lwz 11,4(27)
	lwz 9,8(27)
	.loc 1 1363 0
	lwz 23,36(27)
	.loc 1 1366 0
	lwz 12,40(27)
	lwz 26,44(27)
	.loc 1 1371 0
	lwz 5,60(27)
	.loc 1 1373 0
	lwz 6,12(27)
	lwz 7,16(27)
	lwz 8,20(27)
	.loc 1 1367 0
	stw 0,288(31)
	stw 0,328(31)
	.loc 1 1366 0
	stw 3,364(31)
	.loc 1 1376 0
	addi 3,31,84
	.loc 1 1367 0
	stw 0,368(31)
	.loc 1 1370 0
	stw 4,140(31)
	.loc 1 1376 0
	addi 4,31,96
	.loc 1 1374 0
	stw 11,88(31)
	stw 9,92(31)
	.loc 1 1363 0
	stw 23,244(31)
.LVL466:
	.loc 1 1366 0
	stw 12,284(31)
	stw 26,324(31)
	.loc 1 1371 0
	stw 5,144(31)
	.loc 1 1373 0
	stw 6,96(31)
	stw 7,100(31)
	stw 8,104(31)
	.loc 1 1374 0
	stw 10,84(31)
	.loc 1 1376 0
	bl RadiusFromBounds
	.loc 1 1380 0
	lwz 9,148(31)
	.loc 1 1378 0
	lwz 0,52(27)
	.loc 1 1380 0
	mr 27,28
.LVL467:
	addi 11,9,-1
	.loc 1 1376 0
	stfs 1,108(31)
	.loc 1 1380 0
	cmpw 7,11,30
	.loc 1 1378 0
	stw 0,164(31)
	.loc 1 1380 0
	ble+ 7,.L332
.LBB21:
	.loc 1 1384 0
	mr 5,28
	mr 4,24
	addi 3,1,8
	.loc 1 1388 0
	addi 30,30,1
	.loc 1 1384 0
	crxor 6,6,6
	bl sprintf
	.loc 1 1385 0
	addi 3,1,8
	bl Mod_FindName
	.loc 1 1386 0
	mr 4,31
	.loc 1 1385 0
	mr 26,3
	.loc 1 1386 0
	li 5,420
	.loc 1 1385 0
	stw 3,loadmodel@l(29)
	.loc 1 1386 0
	bl memcpy
	.loc 1 1387 0
	mr 3,26
	addi 4,1,8
	bl strcpy
	.loc 1 1388 0
	lwz 31,loadmodel@l(29)
.LVL468:
	addi 28,28,1
	lwz 9,148(31)
	stw 25,68(31)
.LVL469:
.LBE21:
	.loc 1 1359 0
	cmpw 7,9,27
	bgt+ 7,.L333
.LVL470:
.L327:
	.loc 1 1392 0
	lwz 0,68(1)
	lwz 22,24(1)
	mtlr 0
	lwz 23,28(1)
	lwz 24,32(1)
	lwz 25,36(1)
	lwz 26,40(1)
	lwz 27,44(1)
	lwz 28,48(1)
	lwz 29,52(1)
	lwz 30,56(1)
	lwz 31,60(1)
.LVL471:
	addi 1,1,64
.LCFI80:
	.cfi_def_cfa_offset 0
	.cfi_restore 31
	.cfi_restore 30
	.cfi_restore 29
	.cfi_restore 28
	.cfi_restore 27
	.cfi_restore 26
	.cfi_restore 25
	.cfi_restore 24
	.cfi_restore 23
	.cfi_restore 22
	blr
	.cfi_endproc
.LFE69:
	.size	Mod_LoadBrushModel, .-Mod_LoadBrushModel
	.align 2
	.globl Mod_LoadAliasFrame
	.type	Mod_LoadAliasFrame, @function
Mod_LoadAliasFrame:
.LFB70:
	.loc 1 1423 0
	.cfi_startproc
.LVL472:
	stwu 1,-24(1)
.LCFI81:
	.cfi_def_cfa_offset 24
	mflr 0
	stw 31,20(1)
	mr 31,4
	.cfi_offset 31, -4
	.cfi_register 65, 0
	stw 29,12(1)
	.loc 1 1430 0
	addi 4,3,8
.LVL473:
	.loc 1 1423 0
	stw 30,16(1)
	.loc 1 1431 0
	lis 29,posenum@ha
	.cfi_offset 30, -8
	.cfi_offset 29, -12
	.loc 1 1423 0
	mr 30,3
.LVL474:
	.loc 1 1430 0
	addi 3,31,24
.LVL475:
	.loc 1 1423 0
	stw 0,28(1)
	.loc 1 1430 0
	.cfi_offset 65, 4
	bl strcpy
	.loc 1 1431 0
	lwz 12,posenum@l(29)
	.loc 1 1432 0
	li 0,1
	lis 4,aliasbboxmins@ha
	lis 5,aliasbboxmaxs@ha
	.loc 1 1431 0
	stw 12,0(31)
	.loc 1 1432 0
	li 9,0
	stw 0,4(31)
.LVL476:
	.loc 1 1436 0
	li 11,0
	la 4,aliasbboxmins@l(4)
	la 5,aliasbboxmaxs@l(5)
.LVL477:
.L339:
	.loc 1 1438 0 discriminator 2
	mr 10,30
	.loc 1 1441 0 discriminator 2
	lwzx 6,4,9
	.loc 1 1438 0 discriminator 2
	lbzux 0,10,11
	.loc 1 1422 0 discriminator 2
	add 7,31,11
	.loc 1 1436 0 discriminator 2
	cmpwi 7,11,2
	addi 11,11,1
	.loc 1 1438 0 discriminator 2
	stb 0,12(7)
	.loc 1 1441 0 discriminator 2
	cmpw 6,0,6
	mr 8,0
	.loc 1 1439 0 discriminator 2
	lbz 10,4(10)
	.loc 1 1442 0 discriminator 2
	mr 0,10
	.loc 1 1439 0 discriminator 2
	stb 10,16(7)
	.loc 1 1441 0 discriminator 2
	ble- 6,.L337
	mr 8,6
.L337:
	.loc 1 1442 0 discriminator 2
	lwzx 10,5,9
	.loc 1 1441 0 discriminator 2
	stwx 8,4,9
	.loc 1 1442 0 discriminator 2
	cmpw 6,0,10
	bge- 6,.L338
	mr 0,10
.L338:
	stwx 0,5,9
	.loc 1 1436 0 discriminator 2
	addi 9,9,4
	bne+ 7,.L339
	.loc 1 1451 0
	lis 9,pheader@ha
	.loc 1 1446 0
	addi 30,30,24
.LVL478:
	.loc 1 1451 0
	lwz 9,pheader@l(9)
	.loc 1 1448 0
	slwi 0,12,2
	.loc 1 1449 0
	addi 12,12,1
	.loc 1 1454 0
	lwz 31,20(1)
.LVL479:
	.loc 1 1451 0
	lwz 3,60(9)
	.loc 1 1448 0
	lis 9,poseverts@ha
	la 9,poseverts@l(9)
	.loc 1 1449 0
	stw 12,posenum@l(29)
.LVL480:
	.loc 1 1448 0
	stwx 30,9,0
	.loc 1 1451 0
	slwi 3,3,2
	.loc 1 1454 0
	lwz 0,28(1)
	add 3,30,3
	lwz 29,12(1)
	mtlr 0
	lwz 30,16(1)
.LVL481:
	addi 1,1,24
.LCFI82:
	.cfi_def_cfa_offset 0
	.cfi_restore 31
	.cfi_restore 30
	.cfi_restore 29
	blr
	.cfi_endproc
.LFE70:
	.size	Mod_LoadAliasFrame, .-Mod_LoadAliasFrame
	.align 2
	.globl Mod_LoadAliasGroup
	.type	Mod_LoadAliasGroup, @function
Mod_LoadAliasGroup:
.LFB71:
	.loc 1 1463 0
	.cfi_startproc
.LVL482:
	mflr 0
	stwu 1,-24(1)
.LCFI83:
	.cfi_def_cfa_offset 24
	.cfi_register 65, 0
	.loc 1 1471 0
	lis 9,LittleLong@ha
	.loc 1 1463 0
	stw 28,8(1)
	stw 0,28(1)
	.loc 1 1471 0
	lwz 0,LittleLong@l(9)
	.cfi_offset 65, 4
	.cfi_offset 28, -16
	.loc 1 1463 0
	stw 29,12(1)
	mr 29,4
	.cfi_offset 29, -12
	stw 30,16(1)
	.loc 1 1471 0
	mtctr 0
	.loc 1 1463 0
	stw 31,20(1)
	.loc 1 1463 0
	mr 31,3
	.cfi_offset 31, -4
	.cfi_offset 30, -8
.LVL483:
	.loc 1 1471 0
	lwz 3,0(3)
.LVL484:
	.loc 1 1473 0
	lis 30,posenum@ha
	.loc 1 1471 0
	bctrl
.LVL485:
	.loc 1 1473 0
	lwz 0,posenum@l(30)
	lis 4,aliasbboxmins@ha
	lis 5,aliasbboxmaxs@ha
	stw 0,0(29)
	.loc 1 1471 0
	mr 28,3
.LVL486:
	.loc 1 1474 0
	stw 3,4(29)
.LVL487:
	li 9,0
	.loc 1 1476 0
	li 11,0
	la 4,aliasbboxmins@l(4)
	la 5,aliasbboxmaxs@l(5)
.LVL488:
.L344:
	.loc 1 1462 0 discriminator 2
	add 7,31,11
	.loc 1 1482 0 discriminator 2
	lwzx 6,4,9
	.loc 1 1479 0 discriminator 2
	lbz 0,4(7)
	.loc 1 1462 0 discriminator 2
	add 8,29,11
	.loc 1 1476 0 discriminator 2
	cmpwi 7,11,2
	addi 11,11,1
	.loc 1 1479 0 discriminator 2
	stb 0,12(8)
	.loc 1 1482 0 discriminator 2
	cmpw 6,0,6
	mr 10,0
	.loc 1 1480 0 discriminator 2
	lbz 7,8(7)
	.loc 1 1483 0 discriminator 2
	mr 0,7
	.loc 1 1480 0 discriminator 2
	stb 7,16(8)
	.loc 1 1482 0 discriminator 2
	ble- 6,.L342
	mr 10,6
.L342:
	.loc 1 1483 0 discriminator 2
	lwzx 8,5,9
	.loc 1 1482 0 discriminator 2
	stwx 10,4,9
	.loc 1 1483 0 discriminator 2
	cmpw 6,0,8
	bge- 6,.L343
	mr 0,8
.L343:
	stwx 0,5,9
	.loc 1 1476 0 discriminator 2
	addi 9,9,4
	bne+ 7,.L344
	.loc 1 1488 0
	lis 9,LittleFloat@ha
	lfs 1,12(31)
	lwz 0,LittleFloat@l(9)
	.loc 1 1486 0
	addi 31,31,12
.LVL489:
	.loc 1 1488 0
	mtctr 0
	bctrl
.LVL490:
	.loc 1 1494 0
	cmpwi 7,28,0
	.loc 1 1490 0
	slwi 0,28,2
	.loc 1 1488 0
	stfs 1,8(29)
	.loc 1 1490 0
	add 31,31,0
.LVL491:
	.loc 1 1492 0
	mr 3,31
	.loc 1 1494 0
	ble- 7,.L345
	lis 9,pheader@ha
	lwz 7,posenum@l(30)
	lwz 9,pheader@l(9)
	lis 8,poseverts@ha
	.loc 1 1462 0
	addi 0,31,24
	mr 11,7
	.loc 1 1494 0
	lwz 10,60(9)
	la 8,poseverts@l(8)
	.loc 1 1462 0
	mr 9,7
	mtctr 28
	.loc 1 1494 0
	addi 10,10,6
	slwi 10,10,2
	b .L346
.LVL492:
.L348:
	mr 11,9
.L346:
	.loc 1 1496 0 discriminator 2
	slwi 11,11,2
	.loc 1 1497 0 discriminator 2
	addi 9,9,1
	.loc 1 1496 0 discriminator 2
	stwx 0,8,11
	.loc 1 1497 0 discriminator 2
	add 0,0,10
	.loc 1 1494 0 discriminator 2
	bdnz .L348
	.loc 1 1462 0
	mullw 10,28,10
	.loc 1 1494 0
	add 28,28,7
.LVL493:
	stw 28,posenum@l(30)
	add 3,31,10
.L345:
	.loc 1 1503 0
	lwz 0,28(1)
	lwz 28,8(1)
	mtlr 0
	lwz 29,12(1)
.LVL494:
	lwz 30,16(1)
	lwz 31,20(1)
.LVL495:
	addi 1,1,24
.LCFI84:
	.cfi_def_cfa_offset 0
	.cfi_restore 31
	.cfi_restore 30
	.cfi_restore 29
	.cfi_restore 28
	blr
	.cfi_endproc
.LFE71:
	.size	Mod_LoadAliasGroup, .-Mod_LoadAliasGroup
	.align 2
	.globl Mod_FloodFillSkin
	.type	Mod_FloodFillSkin, @function
Mod_FloodFillSkin:
.LFB72:
	.loc 1 1538 0
	.cfi_startproc
.LVL496:
	stwu 1,-16424(1)
.LCFI85:
	.cfi_def_cfa_offset 16424
	.loc 1 1539 0
	lis 9,d_8to24table-4@ha
	.loc 1 1549 0
	li 10,256
	.loc 1 1539 0
	lbz 0,0(3)
.LVL497:
	.loc 1 1538 0
	stw 24,16392(1)
	.loc 1 1539 0
	la 9,d_8to24table-4@l(9)
	.loc 1 1538 0
	stw 25,16396(1)
	.loc 1 1549 0
	li 11,0
	.loc 1 1538 0
	stw 26,16400(1)
	.loc 1 1549 0
	mtctr 10
	.loc 1 1538 0
	stw 27,16404(1)
	stw 28,16408(1)
	stw 29,16412(1)
	stw 30,16416(1)
	stw 31,16420(1)
	b .L352
	.cfi_offset 31, -4
	.cfi_offset 30, -8
	.cfi_offset 29, -12
	.cfi_offset 28, -16
	.cfi_offset 27, -20
	.cfi_offset 26, -24
	.cfi_offset 25, -28
	.cfi_offset 24, -32
.LVL498:
.L368:
	.loc 1 1549 0
	addi 11,11,1
.LVL499:
	bdz .L367
.LVL500:
.L352:
	.loc 1 1550 0
	lwzu 10,4(9)
	cmpwi 7,10,255
	bne+ 7,.L368
.L351:
.LVL501:
	.loc 1 1558 0
	cmpw 7,0,11
	beq- 7,.L350
	.loc 1 1558 0 is_stmt 0 discriminator 1
	cmpwi 7,0,255
	beq- 7,.L350
	.loc 1 1564 0 is_stmt 1
	li 9,0
	addi 28,5,-1
	sth 9,8(1)
	addi 27,4,-1
	sth 9,10(1)
.LVL502:
	li 10,0
	li 9,0
	.loc 1 1541 0
	li 8,0
	.loc 1 1565 0
	li 5,1
.LVL503:
.LBB22:
	.loc 1 1575 0
	li 26,-1
	addi 12,1,8
	b .L362
.LVL504:
.L355:
	.loc 1 1575 0 is_stmt 0 discriminator 2
	cmpwi 7,30,255
	mr 7,11
	beq- 7,.L354
	.loc 1 1575 0 discriminator 1
	mr 7,30
.LVL505:
.L354:
	.loc 1 1576 0 is_stmt 1
	cmpw 7,9,27
	bge- 7,.L356
	.loc 1 1576 0 is_stmt 0 discriminator 1
	lbz 30,1(6)
	cmpw 7,30,0
	beq- 7,.L369
	.loc 1 1576 0 discriminator 2
	cmpwi 7,30,255
	beq- 7,.L356
	.loc 1 1576 0 discriminator 1
	mr 7,30
.LVL506:
.L356:
	.loc 1 1577 0 is_stmt 1
	cmpwi 7,10,0
	ble- 7,.L358
	.loc 1 1577 0 is_stmt 0 discriminator 1
	subf 29,4,6
	lbz 30,0(29)
	cmpw 7,30,0
	beq- 7,.L370
	.loc 1 1577 0 discriminator 2
	cmpwi 7,30,255
	beq- 7,.L358
	.loc 1 1577 0 discriminator 1
	mr 7,30
.LVL507:
.L358:
	.loc 1 1578 0 is_stmt 1
	cmpw 7,10,28
	bge- 7,.L360
	.loc 1 1578 0 is_stmt 0 discriminator 1
	lbzx 30,6,4
	cmpw 7,30,0
	beq- 7,.L371
	.loc 1 1578 0 discriminator 2
	cmpwi 7,30,255
	beq- 7,.L360
	.loc 1 1578 0 discriminator 1
	mr 7,30
.LVL508:
.L360:
.LBE22:
	.loc 1 1567 0 is_stmt 1
	cmpw 7,5,8
.LBB23:
	.loc 1 1579 0
	stbx 7,3,31
.LBE23:
	.loc 1 1567 0
	beq- 7,.L350
	slwi 9,8,2
.LVL509:
	add 10,12,9
	lhax 9,12,9
	lha 10,2(10)
.LVL510:
.L362:
.LBB24:
	.loc 1 1571 0
	mullw 31,4,10
	.loc 1 1575 0
	cmpwi 7,9,0
	.loc 1 1573 0
	addi 8,8,1
	rlwinm 8,8,0,20,31
	.loc 1 1575 0
	mr 7,11
	.loc 1 1571 0
	add 31,31,9
	add 6,3,31
.LVL511:
	.loc 1 1575 0
	ble- 7,.L354
	.loc 1 1575 0 is_stmt 0 discriminator 1
	lbz 30,-1(6)
	cmpw 7,30,0
	bne+ 7,.L355
	slwi 7,5,2
	addi 29,9,-1
	add 30,12,7
	addi 5,5,1
	sthx 29,12,7
	rlwinm 5,5,0,20,31
.LVL512:
	stb 26,-1(6)
	mr 7,11
	sth 10,2(30)
	b .L354
.LVL513:
.L370:
	.loc 1 1577 0 is_stmt 1 discriminator 1
	slwi 30,5,2
	addi 24,10,-1
	add 25,12,30
	addi 5,5,1
.LVL514:
	stb 26,0(29)
	rlwinm 5,5,0,20,31
.LVL515:
	sthx 9,12,30
	sth 24,2(25)
	b .L358
.LVL516:
.L350:
.LBE24:
	.loc 1 1581 0
	lwz 24,16392(1)
	lwz 25,16396(1)
	lwz 26,16400(1)
	lwz 27,16404(1)
	lwz 28,16408(1)
	lwz 29,16412(1)
	lwz 30,16416(1)
	lwz 31,16420(1)
	addi 1,1,16424
	.cfi_remember_state
.LCFI86:
	.cfi_def_cfa_offset 0
	.cfi_restore 31
	.cfi_restore 30
	.cfi_restore 29
	.cfi_restore 28
	.cfi_restore 27
	.cfi_restore 26
	.cfi_restore 25
	.cfi_restore 24
	blr
.LVL517:
.L369:
.LCFI87:
	.cfi_restore_state
.LBB25:
	.loc 1 1576 0 discriminator 1
	slwi 30,5,2
	addi 25,9,1
	add 29,12,30
	addi 5,5,1
.LVL518:
	stb 26,1(6)
	rlwinm 5,5,0,20,31
.LVL519:
	sthx 25,12,30
	sth 10,2(29)
	b .L356
.L371:
	.loc 1 1578 0 discriminator 1
	slwi 30,5,2
	addi 10,10,1
.LVL520:
	add 29,12,30
	addi 5,5,1
.LVL521:
	stbx 26,6,4
	rlwinm 5,5,0,20,31
.LVL522:
	sthx 9,12,30
	sth 10,2(29)
	b .L360
.LVL523:
.L367:
.LBE25:
	.loc 1 1547 0
	li 11,0
.LVL524:
	b .L351
	.cfi_endproc
.LFE72:
	.size	Mod_FloodFillSkin, .-Mod_FloodFillSkin
	.align 2
	.globl Mod_LoadAllSkins
	.type	Mod_LoadAllSkins, @function
Mod_LoadAllSkins:
.LFB73:
	.loc 1 1589 0
	.cfi_startproc
.LVL525:
	mflr 0
	stwu 1,-120(1)
.LCFI88:
	.cfi_def_cfa_offset 120
	.cfi_register 65, 0
	stw 16,56(1)
	mr 16,3
	.cfi_offset 16, -64
	stw 0,124(1)
	.loc 1 1601 0
	addi 0,3,-1
	.cfi_offset 65, 4
	cmplwi 7,0,31
	.loc 1 1589 0
	stw 20,72(1)
	stw 22,80(1)
	mr 20,4
	.cfi_offset 22, -40
	.cfi_offset 20, -48
	stw 14,48(1)
	.loc 1 1599 0
	addi 22,4,4
.LVL526:
	.loc 1 1589 0
	stw 15,52(1)
	stw 17,60(1)
	stw 18,64(1)
	stw 19,68(1)
	stw 21,76(1)
	stw 23,84(1)
	stw 24,88(1)
	stw 25,92(1)
	stw 26,96(1)
	stw 27,100(1)
	stw 28,104(1)
	stw 29,108(1)
	stw 30,112(1)
	stw 31,116(1)
	.loc 1 1601 0
	bgt- 7,.L389
	.cfi_offset 31, -4
	.cfi_offset 30, -8
	.cfi_offset 29, -12
	.cfi_offset 28, -16
	.cfi_offset 27, -20
	.cfi_offset 26, -24
	.cfi_offset 25, -28
	.cfi_offset 24, -32
	.cfi_offset 23, -36
	.cfi_offset 21, -44
	.cfi_offset 19, -52
	.cfi_offset 18, -56
	.cfi_offset 17, -60
	.cfi_offset 15, -68
	.cfi_offset 14, -72
	.loc 1 1604 0
	lis 9,pheader@ha
	lwz 9,pheader@l(9)
	lwz 25,52(9)
	lwz 0,56(9)
	mullw 25,25,0
.LVL527:
.L383:
	lis 29,pheader@ha
	lis 19,.LC63@ha
	.loc 1 1644 0
	lis 18,loadname@ha
	.loc 1 1630 0
	addi 0,25,4
	.loc 1 1589 0
	li 26,0
	la 29,pheader@l(29)
	.loc 1 1635 0
	lis 15,LittleLong@ha
	lis 14,loadmodel@ha
	la 19,.LC63@l(19)
	.loc 1 1644 0
	la 18,loadname@l(18)
	.loc 1 1630 0
	stw 0,40(1)
	b .L382
.LVL528:
.L390:
	.loc 1 1609 0
	lwz 9,0(29)
	mr 3,22
	.loc 1 1615 0
	addi 30,20,4
	.loc 1 1609 0
	lwz 5,56(9)
	lwz 4,52(9)
	bl Mod_FloodFillSkin
	.loc 1 1613 0
	mr 4,18
	mr 3,25
	bl Hunk_AllocName
.LVL529:
	.loc 1 1614 0
	lwz 0,0(29)
	addi 9,26,292
	.loc 1 1615 0
	mr 4,30
	.loc 1 1614 0
	slwi 9,9,2
	.loc 1 1615 0
	mr 5,25
	.loc 1 1614 0
	add 9,0,9
	subf 0,0,3
	stw 0,4(9)
	.loc 1 1615 0
	bl memcpy
.LVL530:
	.loc 1 1617 0
	lis 9,.LC64@ha
	lwz 4,.LC64@l(9)
	mr 6,26
	lwz 5,loadmodel@l(14)
	addi 3,1,8
	crxor 6,6,6
	bl sprintf
	.loc 1 1622 0
	lwz 31,0(29)
	mr 6,30
	li 7,1
	lwz 4,52(31)
	li 8,0
	lwz 5,56(31)
	li 9,1
	addi 3,1,8
	.loc 1 1621 0
	slwi 30,26,4
	.loc 1 1622 0
	bl GL_LoadTexture
	.loc 1 1618 0
	addi 0,26,9
	slwi 0,0,4
	.loc 1 1621 0
	add 9,31,30
	.loc 1 1618 0
	add 31,31,0
	.loc 1 1621 0
	stw 3,160(9)
	.loc 1 1620 0
	stw 3,156(9)
	.loc 1 1628 0
	li 4,1
	.loc 1 1619 0
	stw 3,152(9)
	.loc 1 1618 0
	stw 3,4(31)
	.loc 1 1628 0
	addi 3,1,8
	.loc 1 1627 0
	lwz 31,0(29)
	.loc 1 1628 0
	bl GL_LoadLuma
	.loc 1 1624 0
	addi 0,26,41
	slwi 0,0,4
	.loc 1 1627 0
	add 30,31,30
	.loc 1 1624 0
	add 31,31,0
	.loc 1 1630 0
	lwz 0,40(1)
	.loc 1 1627 0
	stw 3,672(30)
	.loc 1 1626 0
	stw 3,668(30)
	.loc 1 1630 0
	add 20,20,0
.LVL531:
	.loc 1 1625 0
	stw 3,664(30)
	.loc 1 1624 0
	stw 3,4(31)
.LVL532:
.L376:
	.loc 1 1606 0
	addi 26,26,1
.LVL533:
	cmpw 7,26,16
	beq- 7,.L374
.LVL534:
.L382:
	.loc 1 1608 0
	lwz 0,0(20)
	cmpwi 7,0,0
	beq- 7,.L390
.LVL535:
	.loc 1 1635 0
	lwz 0,LittleLong@l(15)
	lwz 3,4(20)
	.loc 1 1636 0
	addi 20,20,8
.LVL536:
	.loc 1 1635 0
	mtctr 0
	bctrl
	.loc 1 1640 0
	cmpwi 7,3,0
	.loc 1 1638 0
	slwi 0,3,2
	.loc 1 1635 0
	mr 23,3
.LVL537:
	.loc 1 1638 0
	add 20,20,0
.LVL538:
	.loc 1 1640 0
	ble- 7,.L391
	.loc 1 1645 0
	addi 17,26,292
	.loc 1 1638 0
	mr 28,20
	.loc 1 1640 0
	li 31,0
	la 21,loadmodel@l(14)
	slwi 24,26,2
	.loc 1 1645 0
	slwi 17,17,2
	b .L380
.LVL539:
.L379:
	.loc 1 1648 0
	lwz 5,0(21)
	mr 7,31
	mr 4,19
	mr 6,26
	addi 3,1,8
	.loc 1 1649 0
	rlwinm 27,31,0,30,31
	.loc 1 1648 0
	crxor 6,6,6
	bl sprintf
	.loc 1 1650 0
	lwz 30,0(29)
	mr 6,28
	li 7,1
	lwz 4,52(30)
	li 8,0
	lwz 5,56(30)
	li 9,1
	.loc 1 1649 0
	add 27,24,27
	.loc 1 1650 0
	addi 3,1,8
	bl GL_LoadTexture
	.loc 1 1649 0
	addi 0,27,36
	slwi 0,0,2
	.loc 1 1652 0
	li 4,1
	.loc 1 1649 0
	add 30,30,0
	.loc 1 1640 0
	addi 31,31,1
	.loc 1 1649 0
	stw 3,4(30)
	.loc 1 1652 0
	addi 3,1,8
	lwz 30,0(29)
	addi 27,27,164
	bl GL_LoadLuma
	.loc 1 1640 0
	cmpw 7,31,23
	.loc 1 1652 0
	slwi 27,27,2
	.loc 1 1654 0
	add 28,28,25
.LVL540:
	.loc 1 1652 0
	add 30,30,27
	stw 3,4(30)
	.loc 1 1640 0
	beq- 7,.L392
.LVL541:
.L380:
	.loc 1 1642 0
	lwz 9,0(29)
	mr 3,22
	lwz 5,56(9)
	lwz 4,52(9)
	bl Mod_FloodFillSkin
	.loc 1 1643 0
	cmpwi 7,31,0
	bne+ 7,.L379
	.loc 1 1644 0
	mr 4,18
	mr 3,25
	bl Hunk_AllocName
.LVL542:
	.loc 1 1645 0
	lwz 0,0(29)
	.loc 1 1646 0
	mr 4,28
	mr 5,25
	.loc 1 1645 0
	add 9,0,17
	subf 0,0,3
	stw 0,4(9)
	.loc 1 1646 0
	bl memcpy
.LVL543:
	b .L379
.LVL544:
.L392:
	.loc 1 1657 0
	mr 9,31
	.loc 1 1588 0
	mullw 31,31,25
.LVL545:
	.loc 1 1657 0
	cmpwi 7,9,3
	.loc 1 1640 0
	add 20,20,31
	.loc 1 1657 0
	bgt- 7,.L376
.LVL546:
.L381:
	addi 0,9,1
	.loc 1 1640 0 discriminator 2
	lwz 8,0(29)
	cmpwi 7,0,4
	.loc 1 1588 0 discriminator 2
	slwi 11,26,4
	add 11,8,11
	subfic 0,9,4
	addi 11,11,144
	mtctr 0
	bgt- 7,.L393
.L378:
	.loc 1 1658 0 discriminator 2
	rlwinm 10,9,0,30,31
	.loc 1 1659 0 discriminator 2
	lwzu 0,4(11)
	.loc 1 1658 0 discriminator 2
	add 10,24,10
	.loc 1 1657 0 discriminator 2
	addi 9,9,1
.LVL547:
	.loc 1 1658 0 discriminator 2
	addi 10,10,36
	slwi 10,10,2
	add 10,8,10
	stw 0,4(10)
	.loc 1 1657 0 discriminator 2
	bdnz .L378
.LVL548:
	.loc 1 1606 0
	addi 26,26,1
.LVL549:
	cmpw 7,26,16
	bne+ 7,.L382
.LVL550:
.L374:
	.loc 1 1664 0
	lwz 0,124(1)
	mr 3,20
	lwz 14,48(1)
	mtlr 0
	lwz 15,52(1)
	lwz 16,56(1)
.LVL551:
	lwz 17,60(1)
	lwz 18,64(1)
	lwz 19,68(1)
	lwz 20,72(1)
.LVL552:
	lwz 21,76(1)
	lwz 22,80(1)
.LVL553:
	lwz 23,84(1)
	lwz 24,88(1)
	lwz 25,92(1)
.LVL554:
	lwz 26,96(1)
	lwz 27,100(1)
	lwz 28,104(1)
	lwz 29,108(1)
	lwz 30,112(1)
	lwz 31,116(1)
	addi 1,1,120
	.cfi_remember_state
.LCFI89:
	.cfi_def_cfa_offset 0
	.cfi_restore 31
	.cfi_restore 30
	.cfi_restore 29
	.cfi_restore 28
	.cfi_restore 27
	.cfi_restore 26
	.cfi_restore 25
	.cfi_restore 24
	.cfi_restore 23
	.cfi_restore 22
	.cfi_restore 21
	.cfi_restore 20
	.cfi_restore 19
	.cfi_restore 18
	.cfi_restore 17
	.cfi_restore 16
	.cfi_restore 15
	.cfi_restore 14
	blr
.LVL555:
.L391:
.LCFI90:
	.cfi_restore_state
	.loc 1 1640 0
	li 9,0
	slwi 24,26,2
	b .L381
.LVL556:
.L389:
	.loc 1 1602 0
	lis 3,.LC61@ha
	mr 4,16
.LVL557:
	la 3,.LC61@l(3)
	crxor 6,6,6
	bl Sys_Error
	.loc 1 1604 0
	lis 9,pheader@ha
	lwz 9,pheader@l(9)
	.loc 1 1606 0
	cmpwi 7,16,0
	.loc 1 1604 0
	lwz 25,52(9)
	lwz 0,56(9)
	mullw 25,25,0
.LVL558:
	.loc 1 1606 0
	bgt+ 7,.L383
	b .L374
.LVL559:
.L393:
	li 0,1
	mtctr 0
	b .L378
	.cfi_endproc
.LFE73:
	.size	Mod_LoadAllSkins, .-Mod_LoadAllSkins
	.align 2
	.globl Mod_LoadAliasModel
	.type	Mod_LoadAliasModel, @function
Mod_LoadAliasModel:
.LFB74:
	.loc 1 1674 0
	.cfi_startproc
.LVL560:
	stwu 1,-88(1)
.LCFI91:
	.cfi_def_cfa_offset 88
	mflr 0
	mfcr 12
	stw 29,76(1)
	.loc 1 1690 0
	lis 29,LittleLong@ha
	.cfi_offset 29, -12
	.cfi_register 70, 12
	.cfi_register 65, 0
	.loc 1 1674 0
	stw 0,92(1)
	stw 28,72(1)
	stw 30,80(1)
	mr 30,4
	.cfi_offset 30, -8
	.cfi_offset 28, -16
	.cfi_offset 65, 4
	stw 31,84(1)
	mr 31,3
	.cfi_offset 31, -4
	stw 12,24(1)
	stw 17,28(1)
	stw 18,32(1)
	stw 19,36(1)
	stw 20,40(1)
	stw 21,44(1)
	stw 22,48(1)
	stw 23,52(1)
	stw 24,56(1)
	stw 25,60(1)
	stw 26,64(1)
	stw 27,68(1)
	.loc 1 1686 0
	.cfi_offset 27, -20
	.cfi_offset 26, -24
	.cfi_offset 25, -28
	.cfi_offset 24, -32
	.cfi_offset 23, -36
	.cfi_offset 22, -40
	.cfi_offset 21, -44
	.cfi_offset 20, -48
	.cfi_offset 19, -52
	.cfi_offset 18, -56
	.cfi_offset 17, -60
	.cfi_offset 70, -64
	bl Hunk_LowMark
.LVL561:
	.loc 1 1690 0
	lwz 0,LittleLong@l(29)
	.loc 1 1686 0
	mr 28,3
.LVL562:
	.loc 1 1690 0
	lwz 3,4(30)
.LVL563:
	mtctr 0
	bctrl
	.loc 1 1691 0
	cmpwi 7,3,6
	.loc 1 1690 0
	mr 5,3
.LVL564:
	.loc 1 1691 0
	beq- 7,.L395
	.loc 1 1692 0
	lis 3,.LC65@ha
.LVL565:
	mr 4,31
	la 3,.LC65@l(3)
	li 6,6
	crxor 6,6,6
	bl Sys_Error
.LVL566:
.L395:
	.loc 1 1697 0
	lis 25,loadname@ha
	li 3,8
	la 25,loadname@l(25)
	.loc 1 1707 0
	lis 27,pheader@ha
	.loc 1 1697 0
	mr 4,25
	.loc 1 1717 0
	lis 24,LittleFloat@ha
	.loc 1 1697 0
	bl Hunk_AllocName
	.loc 1 1705 0
	lwz 0,LittleLong@l(29)
	.loc 1 1698 0
	li 9,1
	.loc 1 1697 0
	mr 26,3
.LVL567:
	.loc 1 1698 0
	stw 9,0(3)
	.loc 1 1705 0
	mtctr 0
	lwz 3,68(30)
.LVL568:
	bctrl
.LVL569:
	.loc 1 1707 0
	mr 4,25
	.loc 1 1705 0
	addi 3,3,-1
.LVL570:
	mulli 3,3,40
.LVL571:
	.loc 1 1707 0
	addi 3,3,1340
.LVL572:
	bl Hunk_AllocName
.LVL573:
	.loc 1 1711 0
	lwz 0,LittleLong@l(29)
	.loc 1 1709 0
	subf 9,26,3
	.loc 1 1707 0
	stw 3,pheader@l(27)
	.loc 1 1711 0
	mtctr 0
	.loc 1 1709 0
	stw 9,4(26)
	.loc 1 1711 0
	lwz 3,76(30)
	bctrl
	.loc 1 1716 0
	lwz 23,pheader@l(27)
	.loc 1 1717 0
	lwz 0,LittleFloat@l(24)
	.loc 1 1716 0
	lis 9,0x3350
	ori 9,9,17481
	.loc 1 1711 0
	stw 3,80(31)
	.loc 1 1717 0
	mtctr 0
	lfs 1,32(30)
	.loc 1 1716 0
	stw 9,0(23)
	.loc 1 1717 0
	bctrl
	.loc 1 1718 0
	lwz 0,LittleLong@l(29)
	.loc 1 1717 0
	stfs 1,32(23)
	.loc 1 1718 0
	mtctr 0
	lwz 3,48(30)
	lwz 23,pheader@l(27)
	bctrl
	.loc 1 1719 0
	lwz 0,LittleLong@l(29)
	.loc 1 1718 0
	stw 3,48(23)
	.loc 1 1719 0
	mtctr 0
	lwz 3,52(30)
	lwz 23,pheader@l(27)
	bctrl
	.loc 1 1720 0
	lwz 0,LittleLong@l(29)
	.loc 1 1719 0
	stw 3,52(23)
	.loc 1 1720 0
	mtctr 0
	lwz 3,56(30)
	lwz 23,pheader@l(27)
	bctrl
	stw 3,56(23)
	.loc 1 1722 0
	lwz 23,pheader@l(27)
	lwz 0,56(23)
	cmpwi 7,0,480
	bgt- 7,.L426
	.loc 1 1726 0
	lwz 0,LittleLong@l(29)
	lwz 3,60(30)
	mtctr 0
	bctrl
	stw 3,60(23)
	.loc 1 1728 0
	lwz 23,pheader@l(27)
	lwz 0,60(23)
	cmpwi 7,0,0
	ble- 7,.L427
.L397:
	.loc 1 1731 0
	cmpwi 7,0,2048
	bgt- 7,.L428
	.loc 1 1734 0
	lwz 0,LittleLong@l(29)
	lwz 3,64(30)
	mtctr 0
	bctrl
	stw 3,64(23)
	.loc 1 1736 0
	lwz 23,pheader@l(27)
	lwz 0,64(23)
	cmpwi 7,0,0
	ble- 7,.L429
.L399:
	.loc 1 1739 0
	cmpwi 7,0,2048
	bgt- 7,.L430
	.loc 1 1742 0
	lwz 0,LittleLong@l(29)
	lwz 3,68(30)
	mtctr 0
	bctrl
	.loc 1 1743 0
	lwz 22,pheader@l(27)
	.loc 1 1742 0
	stw 3,68(23)
	.loc 1 1743 0
	lwz 23,68(22)
.LVL574:
	.loc 1 1744 0
	cmpwi 4,23,0
	ble- 4,.L431
.LVL575:
.L401:
	.loc 1 1747 0
	lwz 0,LittleFloat@l(24)
	lis 20,LittleFloat@ha
	lfs 1,80(30)
	.loc 1 1749 0
	mr 21,30
	.loc 1 1747 0
	mtctr 0
	la 20,LittleFloat@l(20)
	bctrl
	lis 9,.LC72@ha
	lfd 0,.LC72@l(9)
	.loc 1 1748 0
	lwz 0,LittleLong@l(29)
	lis 29,pheader@ha
	.loc 1 1747 0
	fmul 0,1,0
	.loc 1 1748 0
	lwz 3,72(30)
	mtctr 0
	la 29,pheader@l(29)
	.loc 1 1747 0
	frsp 0,0
	stfs 0,80(22)
	.loc 1 1751 0
	li 22,0
	.loc 1 1748 0
	bctrl
	.loc 1 1749 0
	lwz 24,pheader@l(27)
	lwz 0,68(24)
	.loc 1 1748 0
	stw 3,76(31)
	.loc 1 1749 0
	stw 0,72(31)
.LVL576:
.L403:
	.loc 1 1753 0 discriminator 2
	lwz 0,0(20)
	lfs 1,8(21)
	mtctr 0
	bctrl
	slwi 0,22,2
	add 24,24,0
	.loc 1 1754 0 discriminator 2
	lwz 0,0(20)
	.loc 1 1753 0 discriminator 2
	stfs 1,8(24)
	.loc 1 1754 0 discriminator 2
	mtctr 0
	lwz 24,0(29)
	lfs 1,20(21)
	bctrl
	addi 0,22,4
	slwi 0,0,2
	add 9,24,0
	.loc 1 1755 0 discriminator 2
	lwz 0,0(20)
	.loc 1 1754 0 discriminator 2
	stfs 1,4(9)
	.loc 1 1755 0 discriminator 2
	mtctr 0
	lwz 24,0(29)
	lfs 1,36(21)
	.loc 1 1751 0 discriminator 2
	addi 21,21,4
	.loc 1 1755 0 discriminator 2
	bctrl
.LVL577:
	.loc 1 1751 0 discriminator 2
	cmpwi 7,22,2
	.loc 1 1755 0 discriminator 2
	addi 0,22,8
	.loc 1 1751 0 discriminator 2
	addi 22,22,1
.LVL578:
	.loc 1 1755 0 discriminator 2
	slwi 0,0,2
.LVL579:
	add 9,24,0
	stfs 1,4(9)
	.loc 1 1751 0 discriminator 2
	beq- 7,.L402
	.loc 1 1751 0 is_stmt 0
	lwz 24,0(29)
	b .L403
.L402:
.LVL580:
	.loc 1 1763 0 is_stmt 1
	lwz 9,0(29)
	addi 4,30,84
	lwz 3,48(9)
	bl Mod_LoadAllSkins
	.loc 1 1770 0
	lwz 11,0(29)
	.loc 1 1763 0
	mr 19,3
.LVL581:
	.loc 1 1770 0
	lwz 9,60(11)
	cmpwi 7,9,0
	ble- 7,.L404
	lis 30,LittleLong@ha
.LVL582:
	lis 18,stverts@ha
	li 20,0
	li 21,0
	la 30,LittleLong@l(30)
	la 18,stverts@l(18)
.LVL583:
.L405:
	.loc 1 1772 0 discriminator 2
	lwz 0,0(30)
	mr 22,19
	lwzux 3,22,20
	mr 24,18
	mtctr 0
	.loc 1 1770 0 discriminator 2
	addi 21,21,1
	.loc 1 1772 0 discriminator 2
	bctrl
	.loc 1 1773 0 discriminator 2
	lwz 0,0(30)
	.loc 1 1772 0 discriminator 2
	stwux 3,24,20
	.loc 1 1770 0 discriminator 2
	addi 20,20,12
	.loc 1 1773 0 discriminator 2
	mtctr 0
	lwz 3,4(22)
	bctrl
	.loc 1 1774 0 discriminator 2
	lwz 0,0(30)
	.loc 1 1773 0 discriminator 2
	stw 3,4(24)
	.loc 1 1774 0 discriminator 2
	mtctr 0
	lwz 3,8(22)
	bctrl
.LVL584:
	.loc 1 1770 0 discriminator 2
	lwz 11,0(29)
	.loc 1 1774 0 discriminator 2
	stw 3,8(24)
	.loc 1 1770 0 discriminator 2
	lwz 9,60(11)
	cmpw 7,9,21
	bgt+ 7,.L405
.LVL585:
.L404:
	.loc 1 1782 0
	lwz 0,64(11)
	.loc 1 1780 0
	mulli 9,9,12
	.loc 1 1782 0
	cmpwi 7,0,0
	.loc 1 1780 0
	add 17,19,9
.LVL586:
	.loc 1 1782 0
	ble- 7,.L406
	lis 22,triangles@ha
	lis 30,LittleLong@ha
	mr 21,17
	la 22,triangles@l(22)
	li 20,0
	la 30,LittleLong@l(30)
.LVL587:
.L408:
	.loc 1 1784 0
	lwz 0,0(30)
	li 24,0
	lwz 3,0(21)
	mtctr 0
	bctrl
	stw 3,0(22)
.LVL588:
.L407:
	.loc 1 1789 0 discriminator 2
	lwz 0,0(30)
	.loc 1 1673 0 discriminator 2
	add 9,21,24
	.loc 1 1789 0 discriminator 2
	lwz 3,4(9)
	mtctr 0
	bctrl
	.loc 1 1786 0 discriminator 2
	cmpwi 7,24,8
	.loc 1 1673 0 discriminator 2
	add 9,22,24
	.loc 1 1786 0 discriminator 2
	addi 24,24,4
	.loc 1 1788 0 discriminator 2
	stw 3,4(9)
	.loc 1 1786 0 discriminator 2
	bne+ 7,.L407
	.loc 1 1782 0
	lwz 9,0(29)
	addi 20,20,1
.LVL589:
	addi 21,21,16
	addi 22,22,28
	lwz 0,64(9)
	cmpw 7,0,20
	bgt+ 7,.L408
.LVL590:
.L406:
	.loc 1 1799 0
	lis 19,aliasbboxmins@ha
.LVL591:
	.loc 1 1800 0
	lis 20,aliasbboxmaxs@ha
	.loc 1 1799 0
	lis 8,0x1
	.loc 1 1800 0
	lis 7,0xfffe
	.loc 1 1799 0
	ori 8,8,34463
	.loc 1 1800 0
	ori 7,7,31073
	.loc 1 1799 0
	la 21,aliasbboxmins@l(19)
	.loc 1 1800 0
	la 22,aliasbboxmaxs@l(20)
	.loc 1 1796 0
	lis 18,posenum@ha
	li 9,0
	stw 9,posenum@l(18)
.LVL592:
	.loc 1 1799 0
	stw 8,8(21)
	stw 8,4(21)
	stw 8,aliasbboxmins@l(19)
	.loc 1 1800 0
	stw 7,8(22)
	stw 7,4(22)
	stw 7,aliasbboxmaxs@l(20)
.LVL593:
	.loc 1 1802 0
	ble- 4,.L421
	.loc 1 1797 0
	slwi 0,0,4
.LVL594:
	lis 30,LittleLong@ha
	add 17,17,0
.LVL595:
	.loc 1 1802 0
	li 24,0
	la 30,LittleLong@l(30)
	b .L412
.LVL596:
.L433:
.LBB26:
	.loc 1 1811 0
	lwz 0,0(29)
.LBE26:
	.loc 1 1802 0
	addi 24,24,1
.LBB27:
	.loc 1 1811 0
	add 9,0,9
	.loc 1 1810 0
	addi 4,9,1300
	bl Mod_LoadAliasFrame
.LBE27:
	.loc 1 1802 0
	cmpw 7,24,23
.LBB28:
	.loc 1 1810 0
	mr 17,3
.LVL597:
.LBE28:
	.loc 1 1802 0
	beq- 7,.L432
.LVL598:
.L412:
.LBB29:
	.loc 1 1806 0
	lwz 0,0(30)
	lwz 3,0(17)
	mtctr 0
	bctrl
.LVL599:
	.loc 1 1811 0
	mulli 9,24,40
	.loc 1 1808 0
	cmpwi 7,3,0
	.loc 1 1810 0
	addi 3,17,4
.LVL600:
	.loc 1 1808 0
	beq- 7,.L433
	.loc 1 1816 0
	lwz 4,0(29)
	.loc 1 1815 0
	addi 3,17,4
.LBE29:
	.loc 1 1802 0
	addi 24,24,1
.LBB30:
	.loc 1 1816 0
	add 4,4,9
	.loc 1 1815 0
	addi 4,4,1300
	bl Mod_LoadAliasGroup
.LBE30:
	.loc 1 1802 0
	cmpw 7,24,23
.LBB31:
	.loc 1 1815 0
	mr 17,3
.LVL601:
.LBE31:
	.loc 1 1802 0
	bne+ 7,.L412
.L432:
	lwz 0,posenum@l(18)
	lwz 8,aliasbboxmins@l(19)
	lwz 7,aliasbboxmaxs@l(20)
.LVL602:
.L409:
	.loc 1 1820 0
	lwz 9,pheader@l(27)
	.loc 1 1827 0
	lis 11,.LC36@ha
	lfs 11,.LC36@l(11)
	.loc 1 1822 0
	mr 10,31
	.loc 1 1820 0
	stw 0,108(9)
	.loc 1 1822 0
	li 0,2
	stw 0,68(31)
.LVL603:
	li 11,0
	.loc 1 1827 0
	lis 0,0x4330
.LVL604:
.L414:
	.loc 1 1827 0 is_stmt 0 discriminator 2
	xoris 8,8,0x8000
	lfs 0,8(9)
	lfs 12,20(9)
	.loc 1 1828 0 is_stmt 1 discriminator 2
	xoris 7,7,0x8000
	.loc 1 1827 0 discriminator 2
	stw 8,12(1)
	.loc 1 1825 0 discriminator 2
	cmpwi 7,11,8
	.loc 1 1827 0 discriminator 2
	stw 0,8(1)
	.loc 1 1825 0 discriminator 2
	addi 11,11,4
	.loc 1 1827 0 discriminator 2
	lfd 13,8(1)
	fsub 13,13,11
	frsp 13,13
	fmadds 13,13,0,12
	stfs 13,84(10)
	.loc 1 1828 0 discriminator 2
	stw 7,20(1)
	stw 0,16(1)
	lfd 10,16(1)
	fsub 10,10,11
	frsp 10,10
	fmadds 0,0,10,12
	stfs 0,96(10)
	.loc 1 1830 0 discriminator 2
	addi 10,10,4
	.loc 1 1829 0 discriminator 2
	stfs 13,84(9)
	.loc 1 1830 0 discriminator 2
	stfs 0,96(9)
	addi 9,9,4
	.loc 1 1825 0 discriminator 2
	beq- 7,.L413
	.loc 1 1825 0 is_stmt 0
	lwzx 8,21,11
	lwzx 7,22,11
	b .L414
.L413:
	.loc 1 1833 0 is_stmt 1
	addi 3,31,84
	addi 4,31,96
	bl RadiusFromBounds
	.loc 1 1841 0
	lis 29,.LC73@ha
	.loc 1 1833 0
	stfs 1,108(31)
	.loc 1 1838 0
	mr 3,31
	lwz 4,pheader@l(27)
	.loc 1 1841 0
	la 29,.LC73@l(29)
	.loc 1 1838 0
	bl GL_MakeAliasModelDisplayLists
	.loc 1 1841 0
	mr 3,31
	mr 4,29
	bl strcmp
	cmpwi 7,3,0
	beq- 7,.L415
	.loc 1 1842 0
	lis 4,.LC74@ha
	mr 3,31
	la 4,.LC74@l(4)
	bl strcmp
	cmpwi 7,3,0
	bne- 7,.L434
.L415:
	.loc 1 1850 0
	lwz 30,80(31)
	.loc 1 1853 0
	mr 3,31
	mr 4,29
	.loc 1 1850 0
	ori 30,30,512
	stw 30,80(31)
	.loc 1 1853 0
	bl strcmp
	cmpwi 7,3,0
	beq- 7,.L417
	.loc 1 1854 0
	lis 4,.LC74@ha
	mr 3,31
	la 4,.LC74@l(4)
	bl strcmp
	cmpwi 7,3,0
	bne- 7,.L435
.L417:
	.loc 1 1860 0
	ori 30,30,1024
	stw 30,80(31)
.L419:
	.loc 1 1867 0
	bl Hunk_LowMark
.LVL605:
	.loc 1 1870 0
	mr 5,25
	.loc 1 1868 0
	subf 30,28,3
.LVL606:
	.loc 1 1870 0
	addi 3,31,416
.LVL607:
	mr 4,30
	bl Cache_Alloc
	.loc 1 1871 0
	lwz 3,416(31)
	cmpwi 7,3,0
	beq- 7,.L394
	.loc 1 1873 0
	mr 4,26
	mr 5,30
	bl memcpy
	.loc 1 1875 0
	mr 3,28
	bl Hunk_FreeToLowMark
.L394:
	.loc 1 1876 0
	lwz 0,92(1)
	lwz 12,24(1)
	mtlr 0
	lwz 17,28(1)
	lwz 18,32(1)
	mtcrf 8,12
	lwz 19,36(1)
	lwz 20,40(1)
	lwz 21,44(1)
	lwz 22,48(1)
	lwz 23,52(1)
.LVL608:
	lwz 24,56(1)
	lwz 25,60(1)
	lwz 26,64(1)
.LVL609:
	lwz 27,68(1)
	lwz 28,72(1)
.LVL610:
	lwz 29,76(1)
	lwz 30,80(1)
.LVL611:
	lwz 31,84(1)
.LVL612:
	addi 1,1,88
	.cfi_remember_state
.LCFI92:
	.cfi_def_cfa_offset 0
	.cfi_restore 70
	.cfi_restore 31
	.cfi_restore 30
	.cfi_restore 29
	.cfi_restore 28
	.cfi_restore 27
	.cfi_restore 26
	.cfi_restore 25
	.cfi_restore 24
	.cfi_restore 23
	.cfi_restore 22
	.cfi_restore 21
	.cfi_restore 20
	.cfi_restore 19
	.cfi_restore 18
	.cfi_restore 17
	blr
.LVL613:
.L435:
.LCFI93:
	.cfi_restore_state
	lis 27,.LC76@ha
	la 27,.LC76@l(27)
.L416:
	.loc 1 1855 0
	mr 3,31
	mr 4,27
	bl strcmp
	cmpwi 7,3,0
	beq- 7,.L417
	.loc 1 1856 0
	lis 4,.LC78@ha
	mr 3,31
	la 4,.LC78@l(4)
	bl strcmp
	cmpwi 7,3,0
	beq- 7,.L417
	.loc 1 1857 0
	lis 4,.LC79@ha
	mr 3,31
	la 4,.LC79@l(4)
	bl strcmp
	cmpwi 7,3,0
	beq- 7,.L417
	.loc 1 1858 0
	lis 4,.LC80@ha
	mr 3,31
	la 4,.LC80@l(4)
	bl strcmp
	cmpwi 7,3,0
	beq- 7,.L417
	.loc 1 1862 0
	rlwinm 30,30,0,22,20
	stw 30,80(31)
	b .L419
.L434:
	.loc 1 1843 0
	lis 4,.LC75@ha
	mr 3,31
	la 4,.LC75@l(4)
	bl strcmp
	cmpwi 7,3,0
	beq- 7,.L415
	.loc 1 1844 0
	lis 27,.LC76@ha
	mr 3,31
	la 27,.LC76@l(27)
	mr 4,27
	bl strcmp
	cmpwi 7,3,0
	beq- 7,.L415
	.loc 1 1845 0
	lis 4,.LC77@ha
	mr 3,31
	la 4,.LC77@l(4)
	bl strcmp
	cmpwi 7,3,0
	beq- 7,.L415
	.loc 1 1846 0
	lis 4,.LC78@ha
	mr 3,31
	la 4,.LC78@l(4)
	bl strcmp
	cmpwi 7,3,0
	beq- 7,.L415
	.loc 1 1847 0
	lis 4,.LC79@ha
	mr 3,31
	la 4,.LC79@l(4)
	bl strcmp
	cmpwi 7,3,0
	beq- 7,.L415
	.loc 1 1848 0
	lis 4,.LC80@ha
	mr 3,31
	la 4,.LC80@l(4)
	bl strcmp
	cmpwi 7,3,0
	beq- 7,.L415
	lwz 30,80(31)
	b .L416
.LVL614:
.L430:
	.loc 1 1740 0
	lis 3,.LC70@ha
	mr 4,31
	la 3,.LC70@l(3)
	crxor 6,6,6
	bl Sys_Error
	.loc 1 1742 0
	lwz 0,LittleLong@l(29)
	lwz 3,68(30)
	mtctr 0
	.loc 1 1740 0
	lwz 23,pheader@l(27)
	.loc 1 1742 0
	bctrl
	.loc 1 1743 0
	lwz 22,pheader@l(27)
	.loc 1 1742 0
	stw 3,68(23)
	.loc 1 1743 0
	lwz 23,68(22)
.LVL615:
	.loc 1 1744 0
	cmpwi 4,23,0
	bgt+ 4,.L401
.LVL616:
.L431:
	.loc 1 1745 0
	lis 3,.LC71@ha
	mr 4,23
	la 3,.LC71@l(3)
	crxor 6,6,6
	bl Sys_Error
	lis 9,pheader@ha
	lwz 22,pheader@l(9)
	b .L401
.LVL617:
.L428:
	.loc 1 1732 0
	lis 3,.LC68@ha
	mr 4,31
	la 3,.LC68@l(3)
	crxor 6,6,6
	bl Sys_Error
	.loc 1 1734 0
	lwz 0,LittleLong@l(29)
	lwz 3,64(30)
	mtctr 0
	.loc 1 1732 0
	lwz 23,pheader@l(27)
	.loc 1 1734 0
	bctrl
	stw 3,64(23)
	.loc 1 1736 0
	lwz 23,pheader@l(27)
	lwz 0,64(23)
	cmpwi 7,0,0
	bgt+ 7,.L399
.L429:
	.loc 1 1737 0
	lis 3,.LC69@ha
	mr 4,31
	la 3,.LC69@l(3)
	crxor 6,6,6
	bl Sys_Error
	lis 9,pheader@ha
	lwz 23,pheader@l(9)
	lwz 0,64(23)
	b .L399
.L426:
	.loc 1 1723 0
	lis 3,.LC66@ha
	mr 4,31
	la 3,.LC66@l(3)
	li 5,480
	crxor 6,6,6
	bl Sys_Error
	.loc 1 1726 0
	lwz 0,LittleLong@l(29)
	lwz 3,60(30)
	mtctr 0
	.loc 1 1723 0
	lwz 23,pheader@l(27)
	.loc 1 1726 0
	bctrl
	stw 3,60(23)
	.loc 1 1728 0
	lwz 23,pheader@l(27)
	lwz 0,60(23)
	cmpwi 7,0,0
	bgt+ 7,.L397
.L427:
	.loc 1 1729 0
	lis 3,.LC67@ha
	mr 4,31
	la 3,.LC67@l(3)
	crxor 6,6,6
	bl Sys_Error
	lis 9,pheader@ha
	lwz 23,pheader@l(9)
	lwz 0,60(23)
	b .L397
.LVL618:
.L421:
	.loc 1 1802 0
	li 0,0
.LVL619:
	b .L409
	.cfi_endproc
.LFE74:
	.size	Mod_LoadAliasModel, .-Mod_LoadAliasModel
	.align 2
	.globl Mod_LoadSpriteFrame
	.type	Mod_LoadSpriteFrame, @function
Mod_LoadSpriteFrame:
.LFB75:
	.loc 1 1886 0
	.cfi_startproc
.LVL620:
	stwu 1,-136(1)
.LCFI94:
	.cfi_def_cfa_offset 136
	mflr 0
	stw 26,112(1)
	.loc 1 1894 0
	lis 26,LittleLong@ha
	.cfi_offset 26, -24
	.cfi_register 65, 0
	.loc 1 1886 0
	stw 0,140(1)
	.loc 1 1894 0
	lwz 0,LittleLong@l(26)
	.cfi_offset 65, 4
	.loc 1 1886 0
	stw 24,104(1)
	stw 25,108(1)
	.loc 1 1894 0
	mtctr 0
	.loc 1 1886 0
	stw 27,116(1)
	mr 25,5
	.cfi_offset 27, -20
	.cfi_offset 25, -28
	.cfi_offset 24, -32
	stw 28,120(1)
	stw 29,124(1)
	mr 29,4
	.cfi_offset 29, -12
	.cfi_offset 28, -16
	stw 30,128(1)
	mr 30,3
	.cfi_offset 30, -8
.LVL621:
	stw 31,132(1)
	.loc 1 1894 0
	lwz 3,8(3)
.LVL622:
	.cfi_offset 31, -4
	bctrl
.LVL623:
	.loc 1 1895 0
	lwz 0,LittleLong@l(26)
	.loc 1 1894 0
	mr 27,3
.LVL624:
	.loc 1 1895 0
	lwz 3,12(30)
.LVL625:
	mtctr 0
	bctrl
	.loc 1 1898 0
	lis 4,loadname@ha
	.loc 1 1895 0
	mr 28,3
.LVL626:
	.loc 1 1898 0
	la 4,loadname@l(4)
	li 3,28
.LVL627:
	bl Hunk_AllocName
	.loc 1 1900 0
	li 4,0
	.loc 1 1898 0
	mr 31,3
	.loc 1 1900 0
	li 5,28
	bl Q_memset
	.loc 1 1902 0
	stw 31,0(29)
	.loc 1 1906 0
	lwz 3,0(30)
	.loc 1 1896 0
	mullw 29,27,28
.LVL628:
	.loc 1 1906 0
	lwz 0,LittleLong@l(26)
	.loc 1 1905 0
	stw 28,4(31)
	.loc 1 1904 0
	stw 27,0(31)
	.loc 1 1906 0
	mtctr 0
	.loc 1 1917 0
	addi 29,29,16
.LVL629:
	.loc 1 1906 0
	bctrl
	.loc 1 1907 0
	lwz 0,LittleLong@l(26)
	.loc 1 1906 0
	mr 24,3
.LVL630:
	.loc 1 1907 0
	lwz 3,4(30)
.LVL631:
	mtctr 0
	bctrl
.LVL632:
	.loc 1 1909 0
	lis 0,0x4330
	xoris 9,3,0x8000
	stw 0,72(1)
	stw 9,76(1)
	lis 9,.LC36@ha
	lfs 0,.LC36@l(9)
	.loc 1 1910 0
	subf 3,28,3
.LVL633:
	.loc 1 1909 0
	lfd 13,72(1)
	.loc 1 1910 0
	xoris 3,3,0x8000
	.loc 1 1911 0
	xoris 11,24,0x8000
	.loc 1 1912 0
	add 9,27,24
	.loc 1 1909 0
	fsub 13,13,0
	.loc 1 1912 0
	xoris 9,9,0x8000
	.loc 1 1914 0
	lis 10,loadmodel@ha
	lis 4,.LC62@ha
	lwz 5,loadmodel@l(10)
	mr 6,25
	.loc 1 1909 0
	frsp 13,13
	.loc 1 1914 0
	la 4,.LC62@l(4)
	.loc 1 1909 0
	stfs 13,8(31)
	.loc 1 1910 0
	stw 0,80(1)
	stw 3,84(1)
	.loc 1 1914 0
	addi 3,1,8
	.loc 1 1910 0
	lfd 13,80(1)
	fsub 13,13,0
	frsp 13,13
	stfs 13,12(31)
	.loc 1 1911 0
	stw 0,88(1)
	stw 11,92(1)
	lfd 13,88(1)
	fsub 13,13,0
	frsp 13,13
	stfs 13,16(31)
	.loc 1 1912 0
	stw 0,96(1)
	stw 9,100(1)
	lfd 13,96(1)
	fsub 0,13,0
	frsp 0,0
	stfs 0,20(31)
	.loc 1 1914 0
	crxor 6,6,6
	bl sprintf
.LVL634:
	.loc 1 1915 0
	addi 3,1,8
	mr 4,27
	mr 5,28
	addi 6,30,16
	li 7,1
	li 8,1
	li 9,0
	bl GL_LoadTexture
	.loc 1 1918 0
	lwz 0,140(1)
	.loc 1 1915 0
	stw 3,24(31)
	.loc 1 1918 0
	add 3,30,29
	mtlr 0
	lwz 24,104(1)
.LVL635:
	lwz 25,108(1)
.LVL636:
	lwz 26,112(1)
	lwz 27,116(1)
.LVL637:
	lwz 28,120(1)
.LVL638:
	lwz 29,124(1)
.LVL639:
	lwz 30,128(1)
.LVL640:
	lwz 31,132(1)
.LVL641:
	addi 1,1,136
.LCFI95:
	.cfi_def_cfa_offset 0
	.cfi_restore 31
	.cfi_restore 30
	.cfi_restore 29
	.cfi_restore 28
	.cfi_restore 27
	.cfi_restore 26
	.cfi_restore 25
	.cfi_restore 24
	blr
	.cfi_endproc
.LFE75:
	.size	Mod_LoadSpriteFrame, .-Mod_LoadSpriteFrame
	.align 2
	.globl Mod_LoadSpriteGroup
	.type	Mod_LoadSpriteGroup, @function
Mod_LoadSpriteGroup:
.LFB76:
	.loc 1 1927 0
	.cfi_startproc
.LVL642:
	mflr 0
	stwu 1,-56(1)
.LCFI96:
	.cfi_def_cfa_offset 56
	.cfi_register 65, 0
	.loc 1 1937 0
	lis 9,LittleLong@ha
	.loc 1 1927 0
	stw 24,16(1)
	stw 0,60(1)
	.loc 1 1937 0
	lwz 0,LittleLong@l(9)
	.cfi_offset 65, 4
	.cfi_offset 24, -40
	.loc 1 1927 0
	stw 25,20(1)
	.loc 1 1937 0
	mtctr 0
	.loc 1 1927 0
	stw 26,24(1)
	stw 27,28(1)
	.loc 1 1939 0
	lis 26,loadname@ha
	.cfi_offset 27, -28
	.cfi_offset 26, -32
	.cfi_offset 25, -36
	.loc 1 1927 0
	stw 28,32(1)
	mr 27,4
	stw 29,36(1)
	mr 28,5
	.cfi_offset 29, -20
	.cfi_offset 28, -24
	stw 30,40(1)
	.loc 1 1939 0
	la 26,loadname@l(26)
	.loc 1 1927 0
	stw 31,44(1)
	mr 31,3
	.cfi_offset 31, -12
	.cfi_offset 30, -16
.LVL643:
	stfd 31,48(1)
	.loc 1 1946 0
	addi 24,31,4
	.loc 1 1927 0
	stw 22,8(1)
	stw 23,12(1)
	.loc 1 1937 0
	lwz 3,0(3)
.LVL644:
	.cfi_offset 23, -44
	.cfi_offset 22, -48
	.cfi_offset 63, -8
	bctrl
.LVL645:
	.loc 1 1939 0
	mr 4,26
	.loc 1 1937 0
	mr 30,3
.LVL646:
	.loc 1 1939 0
	addi 3,3,2
.LVL647:
	slwi 3,3,2
	.loc 1 1948 0
	slwi 25,30,2
	.loc 1 1939 0
	bl Hunk_AllocName
	.loc 1 1948 0
	mr 4,26
	.loc 1 1942 0
	stw 30,0(3)
	.loc 1 1939 0
	mr 29,3
.LVL648:
	.loc 1 1944 0
	stw 3,0(27)
	.loc 1 1948 0
	mr 3,25
.LVL649:
	bl Hunk_AllocName
	.loc 1 1952 0
	cmpwi 7,30,0
	.loc 1 1948 0
	mr 26,3
.LVL650:
	.loc 1 1950 0
	stw 3,4(29)
.LVL651:
	.loc 1 1946 0
	mr 3,24
.LVL652:
	.loc 1 1952 0
	ble- 7,.L438
	lis 23,LittleFloat@ha
	.loc 1 1955 0
	lis 9,.LC1@ha
	.loc 1 1956 0
	lis 22,.LC81@ha
	.loc 1 1926 0
	addi 26,26,-4
.LVL653:
	.loc 1 1952 0
	li 27,0
.LVL654:
	la 23,LittleFloat@l(23)
	.loc 1 1955 0
	lfs 31,.LC1@l(9)
	.loc 1 1956 0
	la 22,.LC81@l(22)
	b .L441
.LVL655:
.L439:
	.loc 1 1952 0
	cmpw 7,27,30
	beq- 7,.L447
.LVL656:
.L441:
	.loc 1 1954 0
	lwz 0,0(23)
	.loc 1 1952 0
	addi 27,27,1
	.loc 1 1954 0
	lfsu 1,4(31)
	mtctr 0
	bctrl
	.loc 1 1955 0
	fcmpu 7,1,31
	.loc 1 1954 0
	stfsu 1,4(26)
	.loc 1 1955 0
	cror 30,28,30
	bne+ 7,.L439
	.loc 1 1956 0
	mr 3,22
	crxor 6,6,6
	bl Sys_Error
.LVL657:
	.loc 1 1952 0
	cmpw 7,27,30
	bne+ 7,.L441
.L447:
.LVL658:
	mulli 28,28,100
.LVL659:
	.loc 1 1959 0
	add 3,24,25
	.loc 1 1952 0
	li 31,0
.LVL660:
.L442:
	.loc 1 1966 0 discriminator 2
	slwi 4,31,2
	add 5,28,31
	add 4,29,4
	.loc 1 1964 0 discriminator 2
	addi 31,31,1
	.loc 1 1966 0 discriminator 2
	addi 4,4,8
	bl Mod_LoadSpriteFrame
.LVL661:
	.loc 1 1964 0 discriminator 2
	cmpw 7,31,30
	bne+ 7,.L442
.LVL662:
.L438:
	.loc 1 1970 0
	lwz 0,60(1)
	lwz 22,8(1)
	mtlr 0
	lwz 23,12(1)
	lwz 24,16(1)
.LVL663:
	lwz 25,20(1)
	lwz 26,24(1)
	lwz 27,28(1)
	lwz 28,32(1)
	lwz 29,36(1)
.LVL664:
	lwz 30,40(1)
.LVL665:
	lwz 31,44(1)
	lfd 31,48(1)
	addi 1,1,56
.LCFI97:
	.cfi_def_cfa_offset 0
	.cfi_restore 63
	.cfi_restore 31
	.cfi_restore 30
	.cfi_restore 29
	.cfi_restore 28
	.cfi_restore 27
	.cfi_restore 26
	.cfi_restore 25
	.cfi_restore 24
	.cfi_restore 23
	.cfi_restore 22
	blr
	.cfi_endproc
.LFE76:
	.size	Mod_LoadSpriteGroup, .-Mod_LoadSpriteGroup
	.align 2
	.globl Mod_LoadSpriteModel
	.type	Mod_LoadSpriteModel, @function
Mod_LoadSpriteModel:
.LFB77:
	.loc 1 1979 0
	.cfi_startproc
.LVL666:
	stwu 1,-344(1)
.LCFI98:
	.cfi_def_cfa_offset 344
	mflr 0
	stw 29,332(1)
	.loc 1 1992 0
	lis 29,LittleLong@ha
	.cfi_offset 29, -12
	.cfi_register 65, 0
	.loc 1 1979 0
	stw 0,348(1)
	.loc 1 1992 0
	lwz 0,LittleLong@l(29)
	.cfi_offset 65, 4
	.loc 1 1979 0
	stw 30,336(1)
	mr 30,4
	.cfi_offset 30, -8
.LVL667:
	stw 31,340(1)
	.loc 1 1992 0
	mtctr 0
	.loc 1 1979 0
	stw 25,316(1)
	mr 31,3
	.cfi_offset 25, -28
	.cfi_offset 31, -4
	stw 26,320(1)
	stw 27,324(1)
	stw 28,328(1)
	.loc 1 1992 0
	lwz 3,4(4)
.LVL668:
	.cfi_offset 28, -16
	.cfi_offset 27, -20
	.cfi_offset 26, -24
	bctrl
.LVL669:
	.loc 1 1993 0
	cmpwi 7,3,1
	.loc 1 1992 0
	mr 5,3
.LVL670:
	.loc 1 1993 0
	beq- 7,.L449
	.loc 1 1994 0
	lis 3,.LC65@ha
.LVL671:
	mr 4,31
	la 3,.LC65@l(3)
	li 6,1
	crxor 6,6,6
	bl Sys_Error
.LVL672:
.L449:
	.loc 1 1997 0
	lwz 0,LittleLong@l(29)
	lwz 3,24(30)
	mtctr 0
	bctrl
	.loc 1 2001 0
	lis 4,loadname@ha
	.loc 1 1997 0
	mr 26,3
.LVL673:
	.loc 1 1999 0
	addi 3,3,3
.LVL674:
	.loc 1 2001 0
	la 4,loadname@l(4)
	slwi 3,3,3
	bl Hunk_AllocName
	.loc 1 2005 0
	lwz 0,LittleLong@l(29)
	.loc 1 2001 0
	mr 28,3
.LVL675:
	.loc 1 2003 0
	stw 3,416(31)
	.loc 1 2005 0
	mtctr 0
	lwz 3,8(30)
.LVL676:
	bctrl
	.loc 1 2009 0
	lis 4,.LC82@ha
	.loc 1 2005 0
	stw 3,0(28)
	.loc 1 2009 0
	la 4,.LC82@l(4)
	mr 5,31
	addi 3,1,140
	crxor 6,6,6
	bl sprintf
	.loc 1 2010 0
	lis 4,.LC83@ha
	la 4,.LC83@l(4)
	addi 5,1,12
	addi 3,1,140
	bl GL_GetOverrideName
	.loc 1 2011 0
	addi 3,1,12
	li 4,0
	addi 5,1,8
	bl COM_FindFile
.LVL677:
	.loc 1 2012 0
	lwz 3,8(1)
	cmpwi 7,3,0
	beq- 7,.L450
	.loc 1 2014 0
	lwz 9,0(28)
	addi 0,9,5
	stw 0,0(28)
	.loc 1 2015 0
	bl fclose
.L450:
	.loc 1 2018 0
	lwz 0,LittleLong@l(29)
	lwz 3,16(30)
	mtctr 0
	bctrl
	.loc 1 2019 0
	lwz 0,LittleLong@l(29)
	.loc 1 2018 0
	stw 3,4(28)
	.loc 1 2019 0
	mtctr 0
	lwz 3,20(30)
	bctrl
	.loc 1 2020 0
	lis 9,LittleFloat@ha
	lwz 0,LittleFloat@l(9)
	.loc 1 2019 0
	stw 3,8(28)
	.loc 1 2020 0
	mtctr 0
	lfs 1,28(30)
	bctrl
	.loc 1 2021 0
	lwz 0,LittleLong@l(29)
	.loc 1 2020 0
	stfs 1,16(28)
	.loc 1 2021 0
	mtctr 0
	lwz 3,32(30)
	bctrl
	.loc 1 2024 0
	lwz 11,4(28)
	lis 0,0x4330
	.loc 1 2021 0
	stw 3,76(31)
	.loc 1 2024 0
	srawi 9,11,1
	addze 9,9
	.loc 1 2025 0
	srawi 11,11,1
	addze 11,11
	.loc 1 2022 0
	stw 26,12(28)
	.loc 1 2024 0
	neg 9,9
	.loc 1 2025 0
	xoris 11,11,0x8000
	.loc 1 2024 0
	xoris 9,9,0x8000
	stw 0,280(1)
	stw 9,284(1)
	.loc 1 2032 0
	cmpwi 7,26,0
	.loc 1 2025 0
	stw 11,292(1)
	stw 0,288(1)
	.loc 1 2024 0
	lfd 12,280(1)
	.loc 1 2026 0
	lwz 11,8(28)
	stw 0,296(1)
	srawi 9,11,1
	addze 9,9
	.loc 1 2027 0
	srawi 11,11,1
	addze 11,11
	stw 0,304(1)
	.loc 1 2026 0
	neg 9,9
	.loc 1 2027 0
	xoris 11,11,0x8000
	.loc 1 2026 0
	xoris 9,9,0x8000
	.loc 1 2027 0
	stw 11,308(1)
	.loc 1 2026 0
	stw 9,300(1)
	.loc 1 2024 0
	lis 9,.LC36@ha
	.loc 1 2025 0
	lfd 13,288(1)
	.loc 1 2026 0
	lfd 11,296(1)
	.loc 1 2027 0
	lfd 10,304(1)
	.loc 1 2024 0
	lfs 0,.LC36@l(9)
	fsub 12,12,0
	.loc 1 2025 0
	fsub 13,13,0
	.loc 1 2026 0
	fsub 11,11,0
	.loc 1 2027 0
	fsub 0,10,0
	.loc 1 2024 0
	frsp 12,12
	.loc 1 2025 0
	frsp 13,13
	.loc 1 2026 0
	frsp 11,11
	.loc 1 2027 0
	frsp 0,0
	.loc 1 2024 0
	stfs 12,88(31)
	stfs 12,84(31)
	.loc 1 2025 0
	stfs 13,100(31)
	stfs 13,96(31)
	.loc 1 2026 0
	stfs 11,92(31)
	.loc 1 2027 0
	stfs 0,104(31)
	.loc 1 2032 0
	ble- 7,.L457
	lis 25,LittleLong@ha
	.loc 1 2035 0
	stw 26,72(31)
	.loc 1 2037 0
	addi 30,30,36
.LVL678:
	mr 27,28
	.loc 1 2039 0
	li 29,0
	la 25,LittleLong@l(25)
	b .L455
.LVL679:
.L458:
	addi 29,29,1
.LBB32:
	.loc 1 2048 0
	bl Mod_LoadSpriteFrame
.LVL680:
.LBE32:
	.loc 1 2039 0
	cmpw 7,29,26
.LBB33:
	.loc 1 2048 0
	mr 30,3
.LVL681:
.LBE33:
	.loc 1 2039 0
	addi 27,27,8
	beq- 7,.L452
.LVL682:
.L455:
.LBB34:
	.loc 1 2043 0
	lwz 0,0(25)
	lwz 3,0(30)
	mtctr 0
	bctrl
	.loc 1 2049 0
	addi 4,29,2
	.loc 1 2046 0
	cmpwi 7,3,0
	.loc 1 2049 0
	slwi 4,4,3
	.loc 1 2043 0
	mr 0,3
.LVL683:
	.loc 1 2049 0
	add 4,28,4
	.loc 1 2055 0
	mr 9,4
	.loc 1 2048 0
	addi 3,30,4
.LVL684:
	addi 4,4,12
	mr 5,29
	.loc 1 2044 0
	stw 0,24(27)
	.loc 1 2046 0
	beq- 7,.L458
	.loc 1 2054 0
	mr 5,29
	addi 3,30,4
	addi 4,9,12
.LBE34:
	.loc 1 2039 0
	addi 29,29,1
.LBB35:
	.loc 1 2054 0
	bl Mod_LoadSpriteGroup
.LVL685:
.LBE35:
	.loc 1 2039 0
	cmpw 7,29,26
.LBB36:
	.loc 1 2054 0
	mr 30,3
.LVL686:
.LBE36:
	.loc 1 2039 0
	addi 27,27,8
	bne+ 7,.L455
.L452:
	.loc 1 2060 0
	li 0,1
	.loc 1 2061 0
	lwz 25,316(1)
	.loc 1 2060 0
	stw 0,68(31)
	.loc 1 2061 0
	lwz 0,348(1)
	lwz 26,320(1)
.LVL687:
	mtlr 0
	lwz 27,324(1)
	lwz 28,328(1)
.LVL688:
	lwz 29,332(1)
.LVL689:
	lwz 30,336(1)
	lwz 31,340(1)
.LVL690:
	addi 1,1,344
	.cfi_remember_state
.LCFI99:
	.cfi_def_cfa_offset 0
	.cfi_restore 31
	.cfi_restore 30
	.cfi_restore 29
	.cfi_restore 28
	.cfi_restore 27
	.cfi_restore 26
	.cfi_restore 25
	blr
.LVL691:
.L457:
.LCFI100:
	.cfi_restore_state
	.loc 1 2033 0
	lis 3,.LC84@ha
	mr 4,26
	la 3,.LC84@l(3)
	crxor 6,6,6
	bl Sys_Error
	.loc 1 2060 0
	li 0,1
	stw 0,68(31)
	.loc 1 2061 0
	lwz 0,348(1)
	.loc 1 2035 0
	stw 26,72(31)
.LVL692:
	.loc 1 2061 0
	mtlr 0
	lwz 25,316(1)
	lwz 26,320(1)
.LVL693:
	lwz 27,324(1)
	lwz 28,328(1)
.LVL694:
	lwz 29,332(1)
	lwz 30,336(1)
.LVL695:
	lwz 31,340(1)
.LVL696:
	addi 1,1,344
	.cfi_restore 25
	.cfi_restore 26
	.cfi_restore 27
	.cfi_restore 28
	.cfi_restore 29
	.cfi_restore 30
	.cfi_restore 31
.LCFI101:
	.cfi_def_cfa_offset 0
	blr
	.cfi_endproc
.LFE77:
	.size	Mod_LoadSpriteModel, .-Mod_LoadSpriteModel
	.align 2
	.type	Mod_LoadModel.part.0, @function
Mod_LoadModel.part.0:
.LFB79:
	.loc 1 266 0
	.cfi_startproc
.LVL697:
	mflr 0
	stwu 1,-1048(1)
.LCFI102:
	.cfi_def_cfa_offset 1048
	.cfi_register 65, 0
	stw 30,1040(1)
	mr 30,4
	.cfi_offset 30, -8
	stw 31,1044(1)
	mr 31,3
	.cfi_offset 31, -4
	stw 0,1052(1)
	stw 29,1036(1)
	.loc 1 297 0
	lbz 0,0(3)
	.cfi_offset 29, -12
	.cfi_offset 65, 4
	cmpwi 7,0,47
	beq- 7,.L460
.LVL698:
.L470:
	.loc 1 300 0
	addi 4,1,8
.LVL699:
	li 5,1024
	bl COM_LoadStackFile
	.loc 1 302 0
	cmpwi 7,3,0
	.loc 1 300 0
	mr 29,3
.LVL700:
	.loc 1 302 0
	beq- 7,.L471
	.loc 1 312 0
	lis 4,loadname@ha
	mr 3,31
.LVL701:
	la 4,loadname@l(4)
	bl COM_FileBase
	.loc 1 314 0
	lis 9,loadmodel@ha
	stw 31,loadmodel@l(9)
	.loc 1 321 0
	li 0,0
	.loc 1 323 0
	lis 9,LittleLong@ha
	.loc 1 321 0
	stb 0,64(31)
	.loc 1 323 0
	lwz 0,LittleLong@l(9)
	lwz 3,0(29)
	mtctr 0
	bctrl
	xoris 0,3,0x4f50
	cmpwi 7,0,17481
	beq 7,.L466
	xoris 0,3,0x5053
	cmpwi 7,0,17481
	beq 7,.L467
	lis 0,0x3350
	.loc 1 327 0
	mr 4,29
	.loc 1 323 0
	ori 0,0,17481
	cmpw 7,3,0
	.loc 1 327 0
	mr 3,31
	.loc 1 323 0
	beq- 7,.L472
	.loc 1 339 0
	bl Mod_LoadBrushModel
.LVL702:
.L463:
	.loc 1 344 0
	lwz 0,1052(1)
	mr 3,31
	lwz 29,1036(1)
.LVL703:
	mtlr 0
	lwz 30,1040(1)
	lwz 31,1044(1)
	addi 1,1,1048
	.cfi_remember_state
.LCFI103:
	.cfi_def_cfa_offset 0
	.cfi_restore 31
	.cfi_restore 30
	.cfi_restore 29
	blr
.LVL704:
.L471:
.LCFI104:
	.cfi_restore_state
	.loc 1 304 0
	cmpwi 7,30,0
	bne- 7,.L473
	.loc 1 344 0
	lwz 0,1052(1)
	.loc 1 306 0
	li 31,0
.LVL705:
	.loc 1 344 0
	mr 3,31
.LVL706:
	lwz 29,1036(1)
.LVL707:
	mtlr 0
	lwz 30,1040(1)
	lwz 31,1044(1)
	addi 1,1,1048
	.cfi_remember_state
	.cfi_restore 29
	.cfi_restore 30
	.cfi_restore 31
.LCFI105:
	.cfi_def_cfa_offset 0
	blr
.LVL708:
.L460:
.LCFI106:
	.cfi_restore_state
	.loc 1 300 0
	addi 3,3,1
.LVL709:
	b .L470
.LVL710:
.L466:
	.loc 1 331 0
	mr 3,31
	mr 4,29
	bl Mod_LoadAliasModel
	.loc 1 344 0
	lwz 0,1052(1)
	mr 3,31
	lwz 29,1036(1)
.LVL711:
	mtlr 0
	lwz 30,1040(1)
	lwz 31,1044(1)
.LVL712:
	addi 1,1,1048
	.cfi_remember_state
	.cfi_restore 29
	.cfi_restore 30
	.cfi_restore 31
.LCFI107:
	.cfi_def_cfa_offset 0
	blr
.LVL713:
.L472:
.LCFI108:
	.cfi_restore_state
	.loc 1 327 0
	bl Mod_LoadMd3Model
.LVL714:
	.loc 1 344 0
	lwz 0,1052(1)
	mr 3,31
	lwz 29,1036(1)
.LVL715:
	mtlr 0
	lwz 30,1040(1)
	lwz 31,1044(1)
.LVL716:
	addi 1,1,1048
	.cfi_remember_state
	.cfi_restore 29
	.cfi_restore 30
	.cfi_restore 31
.LCFI109:
	.cfi_def_cfa_offset 0
	blr
.LVL717:
.L467:
.LCFI110:
	.cfi_restore_state
	.loc 1 335 0
	mr 3,31
	mr 4,29
	bl Mod_LoadSpriteModel
	.loc 1 344 0
	lwz 0,1052(1)
	mr 3,31
	lwz 29,1036(1)
.LVL718:
	mtlr 0
	lwz 30,1040(1)
	lwz 31,1044(1)
.LVL719:
	addi 1,1,1048
	.cfi_remember_state
	.cfi_restore 29
	.cfi_restore 30
	.cfi_restore 31
.LCFI111:
	.cfi_def_cfa_offset 0
	blr
.LVL720:
.L473:
.LCFI112:
	.cfi_restore_state
	.loc 1 305 0
	lis 3,.LC85@ha
.LVL721:
	mr 4,31
	la 3,.LC85@l(3)
	.loc 1 306 0
	li 31,0
.LVL722:
	.loc 1 305 0
	crxor 6,6,6
	bl Sys_Error
.LVL723:
	b .L463
	.cfi_endproc
.LFE79:
	.size	Mod_LoadModel.part.0, .-Mod_LoadModel.part.0
	.align 2
	.globl Mod_LoadModel
	.type	Mod_LoadModel, @function
Mod_LoadModel:
.LFB47:
	.loc 1 267 0
	.cfi_startproc
.LVL724:
	mflr 0
	stwu 1,-24(1)
.LCFI113:
	.cfi_def_cfa_offset 24
	.cfi_register 65, 0
	stw 31,20(1)
	mr 31,3
	.cfi_offset 31, -4
	stw 0,28(1)
	.loc 1 272 0
	lbz 0,64(3)
	.cfi_offset 65, 4
	cmpwi 7,0,0
	bne- 7,.L475
	.loc 1 274 0
	lwz 0,68(3)
	cmpwi 7,0,2
	beq- 7,.L477
.LVL725:
.L476:
	.loc 1 344 0
	lwz 0,28(1)
	mr 3,31
	lwz 31,20(1)
.LVL726:
	mtlr 0
	addi 1,1,24
	.cfi_remember_state
.LCFI114:
	.cfi_def_cfa_offset 0
	.cfi_restore 31
	blr
.LVL727:
.L477:
.LCFI115:
	.cfi_restore_state
	.loc 1 276 0
	addi 3,3,416
.LVL728:
	stw 4,8(1)
	bl Cache_Check
.LVL729:
	.loc 1 277 0
	lwz 4,8(1)
	cmpwi 7,3,0
	bne+ 7,.L476
.LVL730:
.L475:
	.loc 1 344 0
	lwz 0,28(1)
	.loc 1 277 0
	mr 3,31
	.loc 1 344 0
	lwz 31,20(1)
.LVL731:
	mtlr 0
	addi 1,1,24
.LCFI116:
	.cfi_def_cfa_offset 0
	.cfi_restore 31
	.loc 1 277 0
	b Mod_LoadModel.part.0
.LVL732:
	.cfi_endproc
.LFE47:
	.size	Mod_LoadModel, .-Mod_LoadModel
	.align 2
	.globl Mod_ForName
	.type	Mod_ForName, @function
Mod_ForName:
.LFB49:
	.loc 1 367 0
	.cfi_startproc
.LVL733:
	stwu 1,-144(1)
.LCFI117:
	.cfi_def_cfa_offset 144
	mflr 0
	stw 31,140(1)
	mr 31,4
	.cfi_offset 31, -4
	.cfi_register 65, 0
	.loc 1 372 0
	addi 4,1,8
.LVL734:
	.loc 1 367 0
	stw 0,148(1)
	.loc 1 372 0
	.cfi_offset 65, 4
	bl Mod_OverrideMd3
.LVL735:
	.loc 1 374 0
	addi 3,1,8
	bl Mod_FindName
	.loc 1 376 0
	mr 4,31
	bl Mod_LoadModel
	.loc 1 377 0
	lwz 0,148(1)
	lwz 31,140(1)
	mtlr 0
	addi 1,1,144
.LCFI118:
	.cfi_def_cfa_offset 0
	.cfi_restore 31
	blr
	.cfi_endproc
.LFE49:
	.size	Mod_ForName, .-Mod_ForName
	.align 2
	.globl Mod_Extradata
	.type	Mod_Extradata, @function
Mod_Extradata:
.LFB39:
	.loc 1 62 0
	.cfi_startproc
.LVL736:
	stwu 1,-16(1)
.LCFI119:
	.cfi_def_cfa_offset 16
	mflr 0
	stw 31,12(1)
	mr 31,3
	.cfi_offset 31, -4
	.cfi_register 65, 0
	.loc 1 65 0
	addi 3,3,416
.LVL737:
	.loc 1 62 0
	stw 30,8(1)
	stw 0,20(1)
	.loc 1 65 0
	.cfi_offset 65, 4
	.cfi_offset 30, -8
	bl Cache_Check
.LVL738:
	.loc 1 66 0
	mr. 30,3
	beq- 0,.L483
.LVL739:
.L480:
	.loc 1 82 0
	lwz 0,20(1)
	mr 3,30
	lwz 31,12(1)
.LVL740:
	mtlr 0
	lwz 30,8(1)
	addi 1,1,16
	.cfi_remember_state
.LCFI120:
	.cfi_def_cfa_offset 0
	.cfi_restore 31
	.cfi_restore 30
	blr
.LVL741:
.L483:
.LCFI121:
	.cfi_restore_state
	.loc 1 69 0
	mr 3,31
.LVL742:
	li 4,1
	bl Mod_LoadModel
	.loc 1 71 0
	lwz 30,416(31)
.LVL743:
	cmpwi 7,30,0
	bne+ 7,.L480
	.loc 1 73 0
	lwz 0,68(31)
	cmpwi 7,0,2
	bne- 7,.L484
	.loc 1 78 0
	lis 3,.LC87@ha
	mr 4,31
	la 3,.LC87@l(3)
	crxor 6,6,6
	bl Sys_Error
	lwz 30,416(31)
	.loc 1 81 0
	b .L480
.L484:
	.loc 1 74 0
	lis 3,.LC86@ha
	mr 4,31
	la 3,.LC86@l(3)
	crxor 6,6,6
	bl Con_Printf
	.loc 1 75 0
	b .L480
	.cfi_endproc
.LFE39:
	.size	Mod_Extradata, .-Mod_Extradata
	.align 2
	.globl Mod_Print
	.type	Mod_Print, @function
Mod_Print:
.LFB78:
	.loc 1 2071 0
	.cfi_startproc
	stwu 1,-24(1)
.LCFI122:
	.cfi_def_cfa_offset 24
	mflr 0
	.loc 1 2075 0
	lis 3,.LC88@ha
	.loc 1 2071 0
	stw 29,12(1)
	.loc 1 2075 0
	la 3,.LC88@l(3)
	.loc 1 2076 0
	lis 29,mod_numknown@ha
	.cfi_offset 29, -12
	.cfi_register 65, 0
	.loc 1 2071 0
	stw 0,28(1)
	stw 28,8(1)
	stw 30,16(1)
	stw 31,20(1)
	.loc 1 2075 0
	.cfi_offset 31, -4
	.cfi_offset 30, -8
	.cfi_offset 28, -16
	.cfi_offset 65, 4
	crxor 6,6,6
	bl Con_Printf
.LVL744:
	.loc 1 2076 0
	lwz 0,mod_numknown@l(29)
	cmpwi 7,0,0
	ble- 7,.L485
	lis 31,mod_known@ha
	lis 28,.LC89@ha
	la 31,mod_known@l(31)
	li 30,0
	la 28,.LC89@l(28)
	la 29,mod_numknown@l(29)
.LVL745:
.L487:
	.loc 1 2078 0 discriminator 2
	lwz 4,416(31)
	mr 5,31
	mr 3,28
	.loc 1 2076 0 discriminator 2
	addi 30,30,1
	.loc 1 2078 0 discriminator 2
	crxor 6,6,6
	bl Con_Printf
.LVL746:
	.loc 1 2076 0 discriminator 2
	lwz 0,0(29)
	addi 31,31,420
.LVL747:
	cmpw 7,0,30
	bgt+ 7,.L487
.LVL748:
.L485:
	.loc 1 2080 0
	lwz 0,28(1)
	lwz 28,8(1)
	mtlr 0
	lwz 29,12(1)
	lwz 30,16(1)
	lwz 31,20(1)
	addi 1,1,24
.LCFI123:
	.cfi_def_cfa_offset 0
	.cfi_restore 31
	.cfi_restore 30
	.cfi_restore 29
	.cfi_restore 28
	blr
	.cfi_endproc
.LFE78:
	.size	Mod_Print, .-Mod_Print
	.comm	aliasbboxmaxs,12,4
	.comm	aliasbboxmins,12,4
	.comm	player_8bit_texels,4,4
	.comm	player_8bit_texels_tbl,4,4
	.comm	posenum,4,4
	.comm	poseverts,1024,4
	.comm	triangles,57344,4
	.comm	stverts,24576,4
	.comm	pheader,4,4
	.comm	mod_base,4,4
	.globl gl_subdivide_size
	.globl mod_numknown
	.comm	mod_known,215040,4
	.comm	mod_novis,1024,4
	.comm	loadname,32,4
	.comm	loadmodel,4,4
	.comm	causticschain,4,4
	.section	.rodata.cst4,"aM",@progbits,4
	.align 2
.LC1:
	.4byte	0
.LC12:
	.4byte	1065353216
.LC13:
	.4byte	1056964608
.LC15:
	.4byte	1082130432
.LC17:
	.4byte	1077936128
.LC19:
	.4byte	1073741824
.LC21:
	.4byte	-943501440
.LC22:
	.4byte	1232348144
.LC24:
	.4byte	-977057792
.LC26:
	.4byte	1198793472
.LC27:
	.4byte	1031798784
.LC36:
	.4byte	1501560836
.LC37:
	.4byte	-1048576000
.LC38:
	.4byte	-1044381696
.LC39:
	.4byte	1098907648
.LC40:
	.4byte	1107296256
.LC41:
	.4byte	-1040187392
.LC42:
	.4byte	1115684864
.LC64:
	.4byte	.LC62
	.section	.rodata.cst8,"aM",@progbits,8
	.align 3
.LC14:
	.4byte	1070889697
	.4byte	1202590843
.LC16:
	.4byte	1071602728
	.4byte	-171798692
.LC18:
	.4byte	1072672276
	.4byte	2061584302
.LC72:
	.4byte	1068975569
	.4byte	1952257862
	.section	".data"
	.align 2
	.set	.LANCHOR0,. + 0
	.type	gl_subdivide_size, @object
	.size	gl_subdivide_size, 20
gl_subdivide_size:
	.long	.LC90
	.long	.LC91
	.byte	1
	.zero	11
	.section	.rodata.str1.4,"aMS",@progbits,1
	.align 2
.LC0:
	.string	"Mod_PointInLeaf: bad model"
	.zero	1
.LC2:
	.string	"Mod_ForName: NULL name"
	.zero	1
.LC3:
	.string	"mod_numknown == MAX_MOD_KNOWN"
	.zero	2
.LC4:
	.string	"progs/player.mdl"
	.zero	3
.LC5:
	.string	"Texture %s is not 16 aligned"
	.zero	3
.LC6:
	.string	"sky"
.LC7:
	.string	"Bad animating texture %s"
	.zero	3
.LC8:
	.string	"Missing frame %i of %s"
	.zero	1
.LC9:
	.string	"maps/%s.edo"
.LC10:
	.string	"Loading entities from edo file\n"
.LC11:
	.string	"MOD_LoadBmodel: funny lump size in %s"
	.zero	2
.LC20:
	.string	"miptex >= loadmodel->numtextures"
	.zero	3
.LC28:
	.string	"Bad surface extents"
.LC29:
	.string	"*"
	.zero	2
.LC30:
	.string	"water"
	.zero	2
.LC31:
	.string	"mirror"
	.zero	1
.LC32:
	.string	"glass"
	.zero	2
.LC33:
	.string	"teleport"
	.zero	3
.LC34:
	.string	"caulk"
	.zero	2
.LC43:
	.string	"Mod_ParseMarksurfaces: bad surface number"
	.zero	2
.LC44:
	.string	"Mod_LoadBrushModel: %s has wrong version number (%i should be %i)"
	.zero	2
.LC45:
	.string	"Vertexes\n"
	.zero	2
.LC46:
	.string	"Edges\n"
	.zero	1
.LC47:
	.string	"SurfEdges\n"
	.zero	1
.LC48:
	.string	"Textures\n"
	.zero	2
.LC49:
	.string	"Lighting\n"
	.zero	2
.LC50:
	.string	"Planes\n"
.LC51:
	.string	"Texinfo\n"
	.zero	3
.LC52:
	.string	"Faces\n"
	.zero	1
.LC53:
	.string	"MarkSurfaces\n"
	.zero	2
.LC54:
	.string	"Visibility\n"
.LC55:
	.string	"Leafs\n"
	.zero	1
.LC56:
	.string	"Nodes\n"
	.zero	1
.LC57:
	.string	"ClipNodes\n"
	.zero	1
.LC58:
	.string	"Entities\n"
	.zero	2
.LC59:
	.string	"Submodels\n"
	.zero	1
.LC60:
	.string	"*%i"
.LC61:
	.string	"Mod_LoadAliasModel: Invalid # of skins: %d\n"
.LC62:
	.string	"%s_%i"
	.zero	2
.LC63:
	.string	"%s_%i_%i"
	.zero	3
.LC65:
	.string	"%s has wrong version number (%i should be %i)"
	.zero	2
.LC66:
	.string	"model %s has a skin taller than %d"
	.zero	1
.LC67:
	.string	"model %s has no vertices"
	.zero	3
.LC68:
	.string	"model %s has too many vertices"
	.zero	1
.LC69:
	.string	"model %s has no triangles"
	.zero	2
.LC70:
	.string	"model %s has too many triangles"
.LC71:
	.string	"Mod_LoadAliasModel: Invalid # of frames: %d\n"
	.zero	3
.LC73:
	.string	"progs/flame2.mdl"
	.zero	3
.LC74:
	.string	"progs/flame.mdl"
.LC75:
	.string	"progs/lavaball.mdl"
	.zero	1
.LC76:
	.string	"progs/laser.mdl"
.LC77:
	.string	"progs/k_spike.mdl"
	.zero	2
.LC78:
	.string	"progs/bolt.mdl"
	.zero	1
.LC79:
	.string	"progs/bolt2.mdl"
.LC80:
	.string	"progs/bolt3.mdl"
.LC81:
	.string	"Mod_LoadSpriteGroup: interval<=0"
	.zero	3
.LC82:
	.string	"%s_0"
	.zero	3
.LC83:
	.string	""
	.zero	3
.LC84:
	.string	"Mod_LoadSpriteModel: Invalid # of frames: %d\n"
	.zero	2
.LC85:
	.string	"Mod_NumForName: %s not found"
	.zero	3
.LC86:
	.string	"Mod_Extradata: %s is not an alias model"
.LC87:
	.string	"Mod_Extradata: caching failed for %s"
	.zero	3
.LC88:
	.string	"Cached models:\n"
.LC89:
	.string	"%8p : %s\n"
	.zero	2
.LC90:
	.string	"gl_subdivide_size"
	.zero	2
.LC91:
	.string	"64"
	.section	.sbss,"aw",@nobits
	.align 2
	.type	mod_numknown, @object
	.size	mod_numknown, 4
mod_numknown:
	.zero	4
	.section	".bss"
	.align 2
	.set	.LANCHOR1,. + 0
	.type	decompressed.14951, @object
	.size	decompressed.14951, 1024
decompressed.14951:
	.zero	1024
	.section	".text"
.Letext0:
	.file 2 "c:\\utils\\devkitpro\\devkitppc\\bin\\../lib/gcc/powerpc-eabi/4.6.3/../../../../powerpc-eabi/include/machine/_types.h"
	.file 3 "c:\\utils\\devkitpro\\devkitppc\\bin\\../lib/gcc/powerpc-eabi/4.6.3/../../../../powerpc-eabi/include/sys/lock.h"
	.file 4 "c:\\utils\\devkitpro\\devkitppc\\bin\\../lib/gcc/powerpc-eabi/4.6.3/include/stddef.h"
	.file 5 "c:\\utils\\devkitpro\\devkitppc\\bin\\../lib/gcc/powerpc-eabi/4.6.3/../../../../powerpc-eabi/include/sys/_types.h"
	.file 6 "c:\\utils\\devkitpro\\devkitppc\\bin\\../lib/gcc/powerpc-eabi/4.6.3/../../../../powerpc-eabi/include/sys/reent.h"
	.file 7 "c:\\utils\\devkitpro\\devkitppc\\bin\\../lib/gcc/powerpc-eabi/4.6.3/../../../../powerpc-eabi/include/stdio.h"
	.file 8 "d:/Data/Nintendo/TenebraeGX/src/common.h"
	.file 9 "d:/Data/Nintendo/TenebraeGX/src/bspfile.h"
	.file 10 "d:/Data/Nintendo/TenebraeGX/src/zone.h"
	.file 11 "d:/Data/Nintendo/TenebraeGX/src/mathlib.h"
	.file 12 "d:/Data/Nintendo/TenebraeGX/src/quakedef.h"
	.file 13 "d:/Data/Nintendo/TenebraeGX/src/cvar.h"
	.file 14 "d:/Data/Nintendo/TenebraeGX/src/net.h"
	.file 15 "d:/Data/Nintendo/TenebraeGX/src/render.h"
	.file 16 "d:/Data/Nintendo/TenebraeGX/src/gl_model.h"
	.file 17 "d:/Data/Nintendo/TenebraeGX/src/glquake.h"
	.file 18 "d:/Data/Nintendo/TenebraeGX/src/client.h"
	.file 19 "d:/Data/Nintendo/TenebraeGX/src/modelgen.h"
	.file 20 "d:/Data/Nintendo/TenebraeGX/src/spritegn.h"
	.file 21 "d:/Data/Nintendo/TenebraeGX/src/world.h"
	.file 22 "d:/Data/Nintendo/TenebraeGX/src/gl_md3.h"
	.file 23 "c:/utils/devkitPro/libogc/include/ogc/gx.h"