	.file	"gl_mesh.c"
	.section	".text"
.Ltext0:
	.cfi_sections	.debug_frame
	.align 2
	.globl findneighbour
	.type	findneighbour, @function
findneighbour:
.LFB38:
	.file 1 "d:/Data/Nintendo/TenebraeGX/src/gl_mesh.c"
	.loc 1 33 0
	.cfi_startproc
.LVL0:
	.loc 1 45 0
	cmpwi 0,5,0
	.loc 1 33 0
	stwu 1,-40(1)
.LCFI0:
	.cfi_def_cfa_offset 40
	.loc 1 35 0
	mulli 11,3,28
	lis 9,triangles@ha
	la 9,triangles@l(9)
	.loc 1 33 0
	stw 24,8(1)
	stw 25,12(1)
	mr 0,3
	stw 26,16(1)
	.loc 1 35 0
	add 11,9,11
.LVL1:
	.loc 1 33 0
	stw 27,20(1)
	stw 28,24(1)
	stw 29,28(1)
	stw 30,32(1)
	stw 31,36(1)
	.loc 1 45 0
	ble- 0,.L11
	.cfi_offset 31, -4
	.cfi_offset 30, -8
	.cfi_offset 29, -12
	.cfi_offset 28, -16
	.cfi_offset 27, -20
	.cfi_offset 26, -24
	.cfi_offset 25, -28
	.cfi_offset 24, -32
.LVL2:
	.loc 1 51 0
	lis 29,0x5555
	addi 8,4,1
	ori 29,29,21846
	srawi 10,8,31
	mulhw 7,8,29
	.loc 1 46 0
	slwi 4,4,2
.LVL3:
	.loc 1 44 0
	li 26,0
	.loc 1 34 0
	li 25,0
	.loc 1 43 0
	li 3,-1
	.loc 1 51 0
	subf 10,10,7
	.loc 1 46 0
	add 27,11,4
	.loc 1 51 0
	mulli 10,10,3
	subf 10,10,8
	.loc 1 54 0
	slwi 28,10,2
	.loc 1 45 0
	li 10,0
	.loc 1 54 0
	add 28,11,28
.LVL4:
.L9:
	.loc 1 46 0
	cmpw 7,10,0
	beq- 7,.L3
	.loc 1 33 0
	mulli 8,10,28
	.loc 1 46 0
	lwz 6,4(27)
	mulli 31,10,7
	.loc 1 33 0
	li 11,1
	add 8,9,8
.L8:
	.loc 1 50 0
	lwzu 7,4(8)
	srawi 4,11,31
	.loc 1 33 0
	addi 30,11,-1
	.loc 1 50 0
	cmpw 7,7,6
	beq- 7,.L4
	mulhw 12,11,29
	subf 4,4,12
	mulli 4,4,3
	subf 4,4,11
	add 4,31,4
	slwi 4,4,2
	add 4,9,4
	lwz 4,4(4)
.L5:
	.loc 1 52 0
	cmpw 7,6,4
	beq- 7,.L17
.L7:
.LVL5:
	.loc 1 49 0
	cmpwi 7,11,3
	addi 11,11,1
	bne+ 7,.L8
.LVL6:
.L3:
	.loc 1 45 0
	addi 10,10,1
.LVL7:
	cmpw 7,10,5
	bne+ 7,.L9
	.loc 1 70 0
	cmpwi 7,26,0
	bne- 7,.L18
.LVL8:
.L2:
	.loc 1 71 0
	mulli 11,3,7
	add 11,11,25
	addi 11,11,4
	slwi 11,11,2
	stwx 0,9,11
.L10:
	.loc 1 77 0
	lwz 24,8(1)
	lwz 25,12(1)
	lwz 26,16(1)
	lwz 27,20(1)
	lwz 28,24(1)
	lwz 29,28(1)
	lwz 30,32(1)
	lwz 31,36(1)
	addi 1,1,40
	.cfi_remember_state
.LCFI1:
	.cfi_def_cfa_offset 0
	.cfi_restore 31
	.cfi_restore 30
	.cfi_restore 29
	.cfi_restore 28
	.cfi_restore 27
	.cfi_restore 26
	.cfi_restore 25
	.cfi_restore 24
	blr
.L4:
.LCFI2:
	.cfi_restore_state
	.loc 1 51 0
	mulhw 24,11,29
	srawi 4,11,31
	lwz 12,4(28)
	subf 4,4,24
	mulli 4,4,3
	subf 4,4,11
	add 4,31,4
	slwi 4,4,2
	add 4,9,4
	lwz 4,4(4)
	cmpw 7,12,4
	bne+ 7,.L5
	.loc 1 57 0
	cmpwi 7,3,-1
	beq- 7,.L19
.L12:
	.loc 1 63 0
	li 26,1
	b .L7
.L17:
	.loc 1 54 0
	lwz 4,4(28)
	cmpw 7,7,4
	bne+ 7,.L7
	.loc 1 57 0
	cmpwi 7,3,-1
	bne+ 7,.L12
.L19:
	mr 25,30
	mr 3,10
	b .L7
.LVL9:
.L18:
	.loc 1 76 0
	li 3,-1
.LVL10:
	b .L10
.LVL11:
.L11:
	.loc 1 43 0
	li 3,-1
	.loc 1 34 0
	li 25,0
	b .L2
	.cfi_endproc
.LFE38:
	.size	findneighbour, .-findneighbour
	.align 2
	.globl TangentForTri
	.type	TangentForTri, @function
TangentForTri:
.LFB39:
	.loc 1 82 0
	.cfi_startproc
.LVL12:
	mflr 0
	stwu 1,-112(1)
.LCFI3:
	.cfi_def_cfa_offset 112
	.cfi_register 65, 0
	stw 22,72(1)
	stw 0,116(1)
	stw 23,76(1)
	.loc 1 91 0
	lwz 11,0(3)
	.loc 1 92 0
	lwz 9,4(3)
	.loc 1 93 0
	lwz 0,8(3)
	.cfi_offset 23, -36
	.cfi_offset 65, 4
	.cfi_offset 22, -40
	.loc 1 91 0
	slwi 22,11,4
	.loc 1 92 0
	slwi 23,9,4
	.loc 1 82 0
	stw 24,80(1)
	.loc 1 94 0
	slwi 11,11,3
	.loc 1 93 0
	slwi 24,0,4
	.cfi_offset 24, -32
	.loc 1 95 0
	slwi 9,9,3
	.loc 1 96 0
	slwi 0,0,3
	.loc 1 82 0
	stw 25,84(1)
	.loc 1 91 0
	add 22,4,22
.LVL13:
	.loc 1 82 0
	stw 26,88(1)
	mr 25,7
	.cfi_offset 26, -24
	.cfi_offset 25, -28
	stw 27,92(1)
	.loc 1 92 0
	add 23,4,23
.LVL14:
	.loc 1 82 0
	stw 28,96(1)
	.loc 1 93 0
	add 24,4,24
.LVL15:
	.loc 1 82 0
	stw 29,100(1)
	.loc 1 94 0
	add 26,5,11
.LVL16:
	.loc 1 82 0
	stw 30,104(1)
	.loc 1 95 0
	add 27,5,9
	.cfi_offset 30, -8
	.cfi_offset 29, -12
	.cfi_offset 28, -16
	.cfi_offset 27, -20
.LVL17:
	.loc 1 82 0
	stw 31,108(1)
	.loc 1 96 0
	add 28,5,0
.LVL18:
	.loc 1 82 0
	mr 31,6
	.cfi_offset 31, -4
	.loc 1 107 0
	addi 29,1,32
	.loc 1 96 0
	li 30,0
.LVL19:
.L21:
	.loc 1 102 0 discriminator 2
	lfsx 6,24,30
	.loc 1 105 0 discriminator 2
	addi 3,1,20
	.loc 1 99 0 discriminator 2
	lfsx 12,22,30
	.loc 1 103 0 discriminator 2
	lfs 7,0(28)
	.loc 1 104 0 discriminator 2
	lfs 8,4(28)
	.loc 1 99 0 discriminator 2
	lfsx 9,23,30
	.loc 1 100 0 discriminator 2
	lfs 13,0(26)
	.loc 1 101 0 discriminator 2
	lfs 0,4(26)
	.loc 1 99 0 discriminator 2
	fsubs 9,9,12
	.loc 1 100 0 discriminator 2
	lfs 10,0(27)
	.loc 1 102 0 discriminator 2
	fsubs 12,6,12
	.loc 1 101 0 discriminator 2
	lfs 11,4(27)
	.loc 1 100 0 discriminator 2
	fsubs 10,10,13
	.loc 1 99 0 discriminator 2
	stfs 9,20(1)
	.loc 1 101 0 discriminator 2
	fsubs 11,11,0
	.loc 1 102 0 discriminator 2
	stfs 12,8(1)
	.loc 1 103 0 discriminator 2
	fsubs 13,7,13
	.loc 1 104 0 discriminator 2
	fsubs 0,8,0
	.loc 1 100 0 discriminator 2
	stfs 10,24(1)
	.loc 1 101 0 discriminator 2
	stfs 11,28(1)
	.loc 1 103 0 discriminator 2
	stfs 13,12(1)
	.loc 1 104 0 discriminator 2
	stfs 0,16(1)
	.loc 1 105 0 discriminator 2
	bl VectorNormalize
	.loc 1 106 0 discriminator 2
	addi 3,1,8
	bl VectorNormalize
	.loc 1 107 0 discriminator 2
	mr 5,29
	addi 3,1,20
	addi 4,1,8
	bl CrossProduct
	.loc 1 98 0 discriminator 2
	cmpwi 7,30,8
	.loc 1 107 0 discriminator 2
	addi 29,29,12
	.loc 1 98 0 discriminator 2
	addi 30,30,4
	bne+ 7,.L21
	.loc 1 112 0
	lfs 6,36(1)
	.loc 1 118 0
	mr 3,31
	.loc 1 113 0
	lfs 7,48(1)
	.loc 1 114 0
	lfs 9,60(1)
	.loc 1 112 0
	fneg 6,6
	.loc 1 115 0
	lfs 8,40(1)
	.loc 1 113 0
	fneg 7,7
	.loc 1 116 0
	lfs 10,52(1)
	.loc 1 114 0
	fneg 9,9
	.loc 1 117 0
	lfs 11,64(1)
	.loc 1 115 0
	fneg 8,8
	.loc 1 116 0
	fneg 10,10
	.loc 1 112 0
	lfs 12,32(1)
	.loc 1 117 0
	fneg 11,11
	.loc 1 113 0
	lfs 13,44(1)
	.loc 1 114 0
	lfs 0,56(1)
	.loc 1 112 0
	fdivs 6,6,12
	.loc 1 113 0
	fdivs 7,7,13
	.loc 1 112 0
	stfs 6,0(31)
	.loc 1 114 0
	fdivs 9,9,0
	.loc 1 113 0
	stfs 7,4(31)
	.loc 1 115 0
	fdivs 12,8,12
	.loc 1 114 0
	stfs 9,8(31)
	.loc 1 116 0
	fdivs 13,10,13
	.loc 1 115 0
	stfs 12,0(25)
	.loc 1 117 0
	fdivs 0,11,0
	.loc 1 116 0
	stfs 13,4(25)
	.loc 1 117 0
	stfs 0,8(25)
	.loc 1 118 0
	bl VectorNormalize
	.loc 1 119 0
	mr 3,25
	bl VectorNormalize
	.loc 1 120 0
	lwz 0,116(1)
	lwz 22,72(1)
.LVL20:
	mtlr 0
	lwz 23,76(1)
.LVL21:
	lwz 24,80(1)
.LVL22:
	lwz 25,84(1)
.LVL23:
	lwz 26,88(1)
.LVL24:
	lwz 27,92(1)
.LVL25:
	lwz 28,96(1)
.LVL26:
	lwz 29,100(1)
	lwz 30,104(1)
	lwz 31,108(1)
.LVL27:
	addi 1,1,112
.LCFI4:
	.cfi_def_cfa_offset 0
	.cfi_restore 31
	.cfi_restore 30
	.cfi_restore 29
	.cfi_restore 28
	.cfi_restore 27
	.cfi_restore 26
	.cfi_restore 25
	.cfi_restore 24
	.cfi_restore 23
	.cfi_restore 22
	blr
	.cfi_endproc
.LFE39:
	.size	TangentForTri, .-TangentForTri
	.align 2
	.globl NormalToLatLong
	.type	NormalToLatLong, @function
NormalToLatLong:
.LFB40:
	.loc 1 122 0
	.cfi_startproc
.LVL28:
	mflr 0
	stwu 1,-64(1)
.LCFI5:
	.cfi_def_cfa_offset 64
	.cfi_register 65, 0
.LVL29:
	.loc 1 127 0
	lis 9,.LC5@ha
	lfs 0,.LC5@l(9)
	.loc 1 122 0
	stw 0,68(1)
	stw 31,36(1)
	mr 31,3
	.cfi_offset 31, -28
	.cfi_offset 65, 4
	.loc 1 127 0
	lfs 2,0(3)
	.loc 1 122 0
	stfd 29,40(1)
	.loc 1 127 0
	fcmpu 7,2,0
	.loc 1 122 0
	stfd 30,48(1)
	stfd 31,56(1)
	.loc 1 127 0
	lfs 1,4(3)
	bne- 7,.L25
	.cfi_offset 63, -8
	.cfi_offset 62, -16
	.cfi_offset 61, -24
	.loc 1 127 0 is_stmt 0 discriminator 1
	fcmpu 7,1,0
	beq- 7,.L31
.L25:
.LBB2:
	.loc 1 139 0 is_stmt 1
	bl atan2
.LVL30:
	lis 9,.LC1@ha
	lfs 29,.LC1@l(9)
	lis 9,.LC2@ha
	lfd 30,.LC2@l(9)
	lis 9,.LC4@ha
	fmul 0,1,29
	lfs 31,.LC4@l(9)
	addi 9,1,24
	.loc 1 142 0
	lfs 1,8(31)
	.loc 1 139 0
	fdiv 0,0,30
	fmul 0,0,31
	fctiwz 0,0
	stfiwx 0,0,9
	lwz 31,24(1)
.LVL31:
	.loc 1 142 0
	bl acos
.LVL32:
	fmul 29,1,29
	addi 9,1,28
	.loc 1 146 0
	stb 31,9(1)
	.loc 1 142 0
	fdiv 30,29,30
	fmul 31,30,31
	fctiwz 31,31
	stfiwx 31,0,9
	lwz 0,28(1)
.LVL33:
.LBE2:
	.loc 1 150 0
	lwz 31,36(1)
.LVL34:
.LBB3:
	.loc 1 145 0
	stb 0,8(1)
.LBE3:
	.loc 1 150 0
	lwz 0,68(1)
.LVL35:
	lhz 3,8(1)
	mtlr 0
	lfd 29,40(1)
	lfd 30,48(1)
	lfd 31,56(1)
	addi 1,1,64
	.cfi_remember_state
.LCFI6:
	.cfi_def_cfa_offset 0
	.cfi_restore 63
	.cfi_restore 62
	.cfi_restore 61
	.cfi_restore 31
	blr
.LVL36:
.L31:
.LCFI7:
	.cfi_restore_state
	.loc 1 128 0
	lfs 13,8(3)
	fcmpu 7,13,0
	bng- 7,.L30
	.loc 1 129 0
	li 0,0
	.loc 1 150 0
	lwz 31,36(1)
	.loc 1 130 0
	stb 0,8(1)
	.loc 1 131 0
	stb 0,9(1)
	.loc 1 150 0
	lwz 0,68(1)
.LVL37:
	lhz 3,8(1)
.LVL38:
	mtlr 0
	lfd 29,40(1)
	lfd 30,48(1)
	lfd 31,56(1)
	addi 1,1,64
	.cfi_remember_state
	.cfi_restore 31
	.cfi_restore 61
	.cfi_restore 62
	.cfi_restore 63
.LCFI8:
	.cfi_def_cfa_offset 0
	blr
.LVL39:
.L30:
.LCFI9:
	.cfi_restore_state
	.loc 1 133 0
	li 0,-128
	.loc 1 150 0
	lwz 31,36(1)
	.loc 1 133 0
	stb 0,8(1)
	.loc 1 134 0
	li 0,0
	stb 0,9(1)
	.loc 1 150 0
	lwz 0,68(1)
.LVL40:
	lhz 3,8(1)
.LVL41:
	mtlr 0
	lfd 29,40(1)
	lfd 30,48(1)
	lfd 31,56(1)
	addi 1,1,64
	.cfi_restore 31
	.cfi_restore 61
	.cfi_restore 62
	.cfi_restore 63
.LCFI10:
	.cfi_def_cfa_offset 0
	blr
	.cfi_endproc
.LFE40:
	.size	NormalToLatLong, .-NormalToLatLong
	.align 2
	.globl GL_MakeAliasModelDisplayLists
	.type	GL_MakeAliasModelDisplayLists, @function
GL_MakeAliasModelDisplayLists:
.LFB41:
	.loc 1 167 0
	.cfi_startproc
.LVL42:
	mflr 0
	stwu 1,-320(1)
.LCFI11:
	.cfi_def_cfa_offset 320
	.cfi_register 65, 0
	.loc 1 181 0
	lis 11,aliasmodel@ha
	.loc 1 167 0
	stw 24,264(1)
	.loc 1 182 0
	lis 24,paliashdr@ha
	.cfi_offset 24, -56
	.loc 1 167 0
	stw 0,324(1)
	stfd 29,296(1)
	.loc 1 237 0
	lwz 0,64(4)
	.cfi_offset 61, -24
	.cfi_offset 65, 4
	.loc 1 227 0
	lwz 9,60(4)
	.loc 1 237 0
	cmpwi 7,0,0
	.loc 1 167 0
	stfd 30,304(1)
	stfd 31,312(1)
	stw 14,224(1)
	stw 15,228(1)
	stw 16,232(1)
	stw 17,236(1)
	stw 18,240(1)
	stw 19,244(1)
	stw 20,248(1)
	stw 21,252(1)
	stw 22,256(1)
	stw 23,260(1)
	stw 25,268(1)
	stw 26,272(1)
	stw 27,276(1)
	stw 28,280(1)
	stw 29,284(1)
	stw 30,288(1)
	stw 31,292(1)
	.loc 1 181 0
	stw 3,aliasmodel@l(11)
	.loc 1 182 0
	stw 4,paliashdr@l(24)
	.loc 1 227 0
	stw 9,112(4)
.LVL43:
	.loc 1 237 0
	ble- 7,.L81
	.cfi_offset 31, -28
	.cfi_offset 30, -32
	.cfi_offset 29, -36
	.cfi_offset 28, -40
	.cfi_offset 27, -44
	.cfi_offset 26, -48
	.cfi_offset 25, -52
	.cfi_offset 23, -60
	.cfi_offset 22, -64
	.cfi_offset 21, -68
	.cfi_offset 20, -72
	.cfi_offset 19, -76
	.cfi_offset 18, -80
	.cfi_offset 17, -84
	.cfi_offset 16, -88
	.cfi_offset 15, -92
	.cfi_offset 14, -96
	.cfi_offset 63, -8
	.cfi_offset 62, -16
	.loc 1 166 0
	mulli 0,0,28
	.loc 1 237 0
	lis 9,triangles+16@ha
	la 9,triangles+16@l(9)
	.loc 1 166 0
	add 11,9,0
	.loc 1 239 0
	li 0,-1
.LVL44:
.L34:
	.loc 1 239 0 is_stmt 0 discriminator 1
	stw 0,0(9)
.LVL45:
	stw 0,4(9)
.LVL46:
	stw 0,8(9)
.LVL47:
	addi 9,9,28
	.loc 1 237 0 is_stmt 1 discriminator 1
	cmpw 7,9,11
	bne+ 7,.L34
.LVL48:
	lis 28,triangles@ha
	.loc 1 237 0 is_stmt 0
	lwz 5,64(4)
	li 29,0
	la 28,triangles@l(28)
.LVL49:
.L35:
	.loc 1 166 0 is_stmt 1
	mulli 30,29,28
	li 31,0
	addi 30,30,12
	add 30,28,30
.LVL50:
.L37:
	.loc 1 249 0
	lwzu 0,4(30)
	cmpwi 7,0,-1
	beq- 7,.L103
.L36:
.LVL51:
	.loc 1 247 0
	cmpwi 7,31,2
	addi 31,31,1
.LVL52:
	bne+ 7,.L37
	.loc 1 246 0
	addi 29,29,1
.LVL53:
	cmpw 7,29,5
	blt+ 7,.L35
.LVL54:
	.loc 1 256 0
	lwz 31,112(4)
.LVL55:
	cmpwi 7,31,0
	bgt+ 7,.L104
.LVL56:
.L38:
	.loc 1 261 0
	lwz 0,64(4)
	cmpwi 7,0,0
	ble- 7,.L40
	.loc 1 263 0
	lis 7,stverts@ha
	.loc 1 265 0
	lis 6,dupIndex@ha
	.loc 1 261 0
	lwz 4,paliashdr@l(24)
	mr 11,28
	li 8,0
	.loc 1 263 0
	la 7,stverts@l(7)
	.loc 1 265 0
	la 6,dupIndex@l(6)
.LVL57:
.L41:
	.loc 1 263 0 discriminator 1
	lwz 0,0(11)
	li 9,0
	cmpwi 6,0,0
.LVL58:
.L43:
	.loc 1 166 0
	add 10,11,9
	.loc 1 262 0
	cmpwi 7,9,8
	.loc 1 263 0
	bne- 6,.L42
	.loc 1 263 0 is_stmt 0 discriminator 1
	lwz 0,4(10)
	mulli 10,0,12
	.loc 1 265 0 is_stmt 1 discriminator 1
	slwi 0,0,2
	.loc 1 263 0 discriminator 1
	lwzx 10,7,10
	cmpwi 1,10,0
	beq- 1,.L42
	.loc 1 265 0
	lwzx 10,6,0
	cmpwi 1,10,0
	bne- 1,.L42
	.loc 1 268 0
	stwx 31,6,0
	.loc 1 269 0
	addi 31,31,1
.LVL59:
.L42:
	.loc 1 262 0
	addi 9,9,4
	bne+ 7,.L43
	.loc 1 261 0
	lwz 0,64(4)
	addi 8,8,1
.LVL60:
	addi 11,11,28
	cmpw 7,0,8
	bgt+ 7,.L41
.LVL61:
.L40:
	.loc 1 274 0 discriminator 1
	cmpwi 7,31,0
	ble- 7,.L44
	.loc 1 275 0
	slwi 11,31,2
	.loc 1 274 0
	lis 9,dupIndex-4@ha
	.loc 1 275 0
	addi 11,11,-4
	.loc 1 274 0
	la 9,dupIndex-4@l(9)
	.loc 1 275 0
	srwi 11,11,2
	li 0,0
	addi 11,11,1
	mtctr 11
.LVL62:
.L45:
	.loc 1 275 0 is_stmt 0 discriminator 2
	stwu 0,4(9)
	.loc 1 274 0 is_stmt 1 discriminator 2
	bdnz .L45
.L44:
	.loc 1 278 0
	lwz 3,108(4)
	lis 27,pheader@ha
	mullw 3,31,3
	slwi 3,3,4
	bl Hunk_Alloc
	.loc 1 279 0
	lwz 9,paliashdr@l(24)
	.loc 1 278 0
	mr 26,3
.LVL63:
	.loc 1 281 0
	lwz 11,64(9)
	.loc 1 279 0
	subf 0,9,3
	stw 0,116(9)
.LVL64:
	.loc 1 281 0
	cmpwi 7,11,0
	ble- 7,.L47
	lis 27,pheader@ha
	lis 17,stverts@ha
	lis 22,r_avertexnormals@ha
.LBB4:
	.loc 1 297 0
	stw 31,220(1)
	stw 27,216(1)
.LBE4:
	.loc 1 166 0
	addi 18,28,12
	.loc 1 281 0
	li 16,0
	la 17,stverts@l(17)
	.loc 1 166 0
	slwi 21,31,4
	la 22,r_avertexnormals@l(22)
.LBB5:
	.loc 1 323 0
	lis 29,0x4330
.LVL65:
.L59:
.LBE5:
	.loc 1 166 0
	mulli 19,16,28
	add 19,28,19
.LVL66:
.L58:
	.loc 1 286 0
	lwz 0,-12(18)
	.loc 1 283 0
	lwzu 11,4(19)
	.loc 1 286 0
	cmpwi 7,0,0
	.loc 1 283 0
	mulli 0,11,12
	add 10,17,0
	lwz 14,4(10)
.LVL67:
	.loc 1 284 0
	lwz 20,8(10)
.LVL68:
	.loc 1 286 0
	bne- 7,.L48
	.loc 1 286 0 is_stmt 0 discriminator 1
	lwzx 0,17,0
	cmpwi 7,0,0
	beq- 7,.L48
.LBB6:
	.loc 1 289 0 is_stmt 1
	lis 10,dupIndex@ha
.LVL69:
	slwi 0,11,2
	la 10,dupIndex@l(10)
	lwzx 11,10,0
	cmpwi 7,11,0
	beq- 7,.L52
	.loc 1 290 0
	stw 11,0(19)
.LVL70:
.L51:
.LBE6:
	.loc 1 282 0
	cmpw 7,18,19
	bne+ 7,.L58
	.loc 1 281 0
	lwz 0,64(9)
	addi 16,16,1
.LVL71:
	addi 18,18,28
	cmpw 7,0,16
	bgt+ 7,.L59
	lwz 31,220(1)
	lwz 27,216(1)
.LVL72:
.L47:
	.loc 1 332 0
	lwz 4,112(9)
	cmpw 7,4,31
	beq- 7,.L60
	.loc 1 333 0
	lis 3,.LC9@ha
	mr 5,31
	la 3,.LC9@l(3)
	crxor 6,6,6
	bl Con_Printf
.L60:
	.loc 1 350 0
	lwz 9,paliashdr@l(24)
	lwz 3,112(9)
	slwi 3,3,3
	bl Hunk_Alloc
	.loc 1 351 0
	lwz 7,paliashdr@l(24)
	.loc 1 350 0
	mr 17,3
.LVL73:
	.loc 1 352 0
	lwz 0,112(7)
	.loc 1 351 0
	subf 9,7,3
	stw 9,140(7)
.LVL74:
	.loc 1 352 0
	cmpwi 7,0,0
	ble- 7,.L61
	lwz 11,pheader@l(27)
	lis 9,0x4330
	.loc 1 166 0
	mulli 0,0,12
	.loc 1 352 0
	lwz 10,52(11)
	stw 9,176(1)
	xoris 10,10,0x8000
	stw 10,180(1)
	lis 10,.LC8@ha
	lfs 13,.LC8@l(10)
	lwz 11,56(11)
	stw 9,184(1)
	fmr 0,13
	xoris 11,11,0x8000
	lfd 9,176(1)
	stw 11,188(1)
	lis 9,stverts+4@ha
	.loc 1 357 0
	lis 11,.LC11@ha
	.loc 1 352 0
	la 9,stverts+4@l(9)
	lfd 10,184(1)
	fsub 9,9,0
	.loc 1 166 0
	add 6,9,0
	.loc 1 353 0
	lis 0,0x4330
	.loc 1 352 0
	fsub 10,10,0
	.loc 1 357 0
	lfs 0,.LC11@l(11)
	.loc 1 352 0
	mr 11,3
.LVL75:
.L62:
	.loc 1 353 0 discriminator 2
	lwz 8,0(9)
	.loc 1 354 0 discriminator 2
	lwz 10,4(9)
	.loc 1 360 0 discriminator 2
	addi 9,9,12
.LVL76:
	.loc 1 353 0 discriminator 2
	xoris 8,8,0x8000
	stw 0,192(1)
	.loc 1 354 0 discriminator 2
	xoris 10,10,0x8000
	.loc 1 353 0 discriminator 2
	stw 8,196(1)
	.loc 1 354 0 discriminator 2
	stw 10,204(1)
	.loc 1 352 0 discriminator 2
	cmpw 7,9,6
	.loc 1 354 0 discriminator 2
	stw 0,200(1)
	.loc 1 353 0 discriminator 2
	lfd 11,192(1)
	.loc 1 354 0 discriminator 2
	lfd 12,200(1)
	.loc 1 353 0 discriminator 2
	fsub 11,11,13
	.loc 1 354 0 discriminator 2
	fsub 12,12,13
	.loc 1 353 0 discriminator 2
	frsp 11,11
	.loc 1 354 0 discriminator 2
	frsp 12,12
	.loc 1 357 0 discriminator 2
	fsub 11,11,0
	.loc 1 358 0 discriminator 2
	fsub 12,12,0
	.loc 1 357 0 discriminator 2
	fdiv 11,11,9
.LVL77:
	.loc 1 358 0 discriminator 2
	fdiv 12,12,10
.LVL78:
	.loc 1 357 0 discriminator 2
	frsp 11,11
.LVL79:
	.loc 1 358 0 discriminator 2
	frsp 12,12
.LVL80:
	.loc 1 357 0 discriminator 2
	stfs 11,0(11)
	.loc 1 358 0 discriminator 2
	stfs 12,4(11)
	.loc 1 360 0 discriminator 2
	addi 11,11,8
	.loc 1 352 0 discriminator 2
	bne+ 7,.L62
.LVL81:
.L61:
	.loc 1 364 0
	lwz 3,64(7)
.LVL82:
	mulli 3,3,28
	bl Hunk_Alloc
	.loc 1 365 0
	lwz 9,paliashdr@l(24)
	.loc 1 366 0
	mr 4,28
	.loc 1 364 0
	mr 14,3
.LVL83:
	.loc 1 366 0
	lwz 5,64(9)
	.loc 1 365 0
	subf 0,9,3
	stw 0,124(9)
	.loc 1 366 0
	mulli 5,5,28
	bl Q_memcpy
.LVL84:
	.loc 1 369 0
	lwz 9,paliashdr@l(24)
	lwz 0,108(9)
	lwz 3,64(9)
	mullw 3,3,0
	slwi 3,3,4
	bl Hunk_Alloc
	.loc 1 370 0
	lwz 9,paliashdr@l(24)
	.loc 1 369 0
	mr 28,3
.LVL85:
	.loc 1 371 0
	lwz 11,108(9)
	.loc 1 370 0
	subf 0,9,3
	stw 0,128(9)
.LVL86:
	.loc 1 371 0
	cmpwi 7,11,0
	lwz 3,64(9)
.LVL87:
	ble- 7,.L67
	li 30,0
	lis 20,paliashdr@ha
	lis 21,.LC12@ha
	addi 29,1,104
.LVL88:
.L64:
	.loc 1 372 0 discriminator 1
	cmpwi 7,3,0
	ble- 7,.L68
	.loc 1 166 0
	addi 25,14,-4
	li 31,0
	la 23,paliashdr@l(20)
	la 22,.LC12@l(21)
.LVL89:
.L66:
	.loc 1 460 0
	lwz 6,112(9)
	.loc 1 166 0
	mr 11,25
	.loc 1 460 0
	addi 9,1,68
	mullw 6,30,6
.LVL90:
.L65:
	.loc 1 371 0
	addi 11,11,4
	.loc 1 376 0
	lwz 0,4(11)
	add 0,6,0
	slwi 0,0,4
	add 10,26,0
.LVL91:
	.loc 1 378 0
	lwzx 7,26,0
	lwz 8,4(10)
	lwz 0,8(10)
	stw 7,0(9)
.LVL92:
	stw 8,4(9)
.LVL93:
	stw 0,8(9)
.LVL94:
	addi 9,9,12
	.loc 1 375 0
	cmpw 7,9,29
	bne+ 7,.L65
	.loc 1 382 0
	lfs 30,68(1)
	.loc 1 384 0
	addi 4,1,56
	.loc 1 382 0
	lfs 12,80(1)
	.loc 1 384 0
	addi 5,1,32
	.loc 1 383 0
	lfs 8,92(1)
	.loc 1 384 0
	addi 3,1,44
	.loc 1 382 0
	fsubs 9,30,12
	lfs 29,72(1)
	.loc 1 383 0
	fsubs 12,8,12
	.loc 1 382 0
	lfs 13,84(1)
	.loc 1 383 0
	lfs 8,96(1)
	.loc 1 372 0
	addi 25,25,28
	.loc 1 382 0
	fsubs 10,29,13
	lfs 31,76(1)
	.loc 1 383 0
	fsubs 13,8,13
	.loc 1 382 0
	lfs 0,88(1)
	.loc 1 383 0
	lfs 8,100(1)
	.loc 1 382 0
	fsubs 11,31,0
	stfs 9,56(1)
	.loc 1 383 0
	fsubs 0,8,0
	stfs 13,48(1)
	.loc 1 382 0
	stfs 10,60(1)
	stfs 11,64(1)
	.loc 1 383 0
	stfs 12,44(1)
	stfs 0,52(1)
	.loc 1 384 0
	bl CrossProduct
.LVL95:
	.loc 1 385 0
	addi 3,1,32
	bl Length
	lfs 0,0(22)
	lwz 9,0(23)
	addi 3,1,32
	fdivs 1,0,1
	lwz 4,64(9)
	mullw 4,30,4
	add 4,4,31
	slwi 4,4,4
	add 4,28,4
	bl VectorScale
	.loc 1 388 0
	lwz 9,0(23)
	lwz 3,64(9)
	mullw 0,3,30
	add 0,0,31
	.loc 1 372 0
	addi 31,31,1
.LVL96:
	.loc 1 388 0
	slwi 0,0,4
	.loc 1 372 0
	cmpw 7,3,31
	.loc 1 388 0
	add 11,28,0
	lfsx 13,28,0
	lfs 0,4(11)
	fmuls 29,29,0
	lfs 0,8(11)
	fmadds 30,30,13,29
	fmadds 31,31,0,30
	stfs 31,12(11)
	.loc 1 372 0
	bgt+ 7,.L66
.LVL97:
.L68:
	.loc 1 371 0
	lwz 0,108(9)
	addi 30,30,1
.LVL98:
	cmpw 7,0,30
	bgt+ 7,.L64
.LVL99:
.L67:
	.loc 1 394 0
	mulli 3,3,12
	bl Hunk_Alloc
.LVL100:
	.loc 1 395 0
	lwz 10,paliashdr@l(24)
	.loc 1 396 0
	lwz 9,64(10)
	.loc 1 395 0
	subf 0,10,3
	stw 0,144(10)
.LVL101:
	.loc 1 396 0
	cmpwi 7,9,0
	ble- 7,.L69
	lis 9,triangles+4@ha
	li 11,0
	la 9,triangles+4@l(9)
.LVL102:
.L70:
	.loc 1 399 0 discriminator 1
	lwz 0,0(9)
	.loc 1 396 0 discriminator 1
	addi 11,11,1
	.loc 1 399 0 discriminator 1
	stw 0,0(3)
.LVL103:
	lwz 0,4(9)
	stw 0,4(3)
.LVL104:
	lwz 0,8(9)
	.loc 1 396 0 discriminator 1
	addi 9,9,28
	.loc 1 399 0 discriminator 1
	stw 0,8(3)
	.loc 1 166 0 discriminator 1
	addi 3,3,12
.LVL105:
	.loc 1 396 0 discriminator 1
	lwz 0,64(10)
	cmpw 7,0,11
	bgt+ 7,.L70
.LVL106:
.L69:
	.loc 1 406 0
	lwz 0,108(10)
	.loc 1 412 0
	li 28,0
.LVL107:
	.loc 1 406 0
	lwz 3,112(10)
.LVL108:
	.loc 1 403 0
	lwz 9,pheader@l(27)
	.loc 1 406 0
	mullw 3,3,0
	.loc 1 403 0
	lwz 0,144(9)
	add 0,9,0
	.loc 1 406 0
	mulli 3,3,12
	.loc 1 403 0
	stw 0,216(1)
.LVL109:
	.loc 1 406 0
	bl Hunk_Alloc
.LVL110:
	.loc 1 409 0
	lwz 11,pheader@l(27)
	.loc 1 406 0
	mr 30,3
.LVL111:
	.loc 1 407 0
	lwz 9,paliashdr@l(24)
	.loc 1 409 0
	lwz 3,112(11)
.LVL112:
	lwz 11,108(11)
	.loc 1 407 0
	subf 0,9,30
	stw 0,132(9)
	.loc 1 409 0
	mullw 3,3,11
	mulli 3,3,12
	bl Hunk_Alloc
	.loc 1 412 0
	lwz 8,paliashdr@l(24)
	.loc 1 410 0
	lwz 6,pheader@l(27)
	.loc 1 409 0
	mr 29,3
.LVL113:
	.loc 1 412 0
	lwz 9,108(8)
	.loc 1 410 0
	subf 0,6,3
	.loc 1 412 0
	cmpwi 7,9,0
	.loc 1 410 0
	stw 0,136(6)
.LVL114:
	.loc 1 412 0
	ble- 7,.L32
	lis 23,numNormals@ha
	.loc 1 415 0 discriminator 1
	li 25,0
	.loc 1 416 0 discriminator 1
	li 31,0
	la 23,numNormals@l(23)
	.loc 1 443 0 discriminator 1
	lis 20,0x4330
	lis 21,.LC8@ha
.LVL115:
.L100:
	.loc 1 415 0 discriminator 1
	lwz 0,112(6)
	cmpwi 7,0,0
	ble- 7,.L80
	.loc 1 415 0 is_stmt 0
	lis 10,numNormals-4@ha
	lwz 5,pheader@l(27)
	la 7,numNormals-4@l(10)
	li 9,0
.LVL116:
.L73:
	.loc 1 416 0 is_stmt 1 discriminator 2
	mullw 0,28,0
	add 0,0,9
	.loc 1 415 0 discriminator 2
	addi 9,9,1
.LVL117:
	.loc 1 416 0 discriminator 2
	mulli 0,0,12
	add 10,30,0
	.loc 1 419 0 discriminator 2
	add 11,29,0
	.loc 1 416 0 discriminator 2
	stwx 31,30,0
	.loc 1 417 0 discriminator 2
	stw 31,4(10)
	.loc 1 418 0 discriminator 2
	stw 31,8(10)
	.loc 1 419 0 discriminator 2
	stwx 31,29,0
	.loc 1 420 0 discriminator 2
	stw 31,4(11)
	.loc 1 421 0 discriminator 2
	stw 31,8(11)
	.loc 1 422 0 discriminator 2
	stwu 25,4(7)
	.loc 1 415 0 discriminator 2
	lwz 0,112(5)
	cmpw 7,0,9
	bgt+ 7,.L73
.LVL118:
.L80:
	.loc 1 427 0 discriminator 1
	lwz 0,64(8)
	cmpwi 7,0,0
	ble- 7,.L74
	lis 9,paliashdr@ha
	lis 10,pheader@ha
	.loc 1 427 0 is_stmt 0
	lwz 18,216(1)
	mr 22,14
	li 19,0
	la 15,paliashdr@l(9)
	la 16,pheader@l(10)
.LVL119:
.L76:
.LBB7:
	.loc 1 429 0 is_stmt 1
	lwz 4,112(6)
	mr 3,18
	addi 6,1,20
	mr 5,17
	mullw 4,28,4
	addi 7,1,8
	slwi 4,4,4
	add 4,26,4
	bl TangentForTri
.LVL120:
	lwz 8,0(15)
	lwz 6,0(16)
	li 10,0
.LVL121:
.L75:
	.loc 1 432 0 discriminator 2
	lwz 9,112(8)
	.loc 1 166 0 discriminator 2
	add 11,22,10
	.loc 1 431 0 discriminator 2
	lwz 7,4(11)
.LVL122:
	.loc 1 430 0 discriminator 2
	cmpwi 7,10,8
	.loc 1 432 0 discriminator 2
	mullw 9,28,9
	lfs 0,20(1)
	.loc 1 434 0 discriminator 2
	lwz 0,112(6)
	.loc 1 430 0 discriminator 2
	addi 10,10,4
	.loc 1 432 0 discriminator 2
	add 9,9,7
	.loc 1 434 0 discriminator 2
	mullw 0,28,0
	.loc 1 432 0 discriminator 2
	mulli 9,9,12
	.loc 1 434 0 discriminator 2
	add 0,0,7
	.loc 1 436 0 discriminator 2
	slwi 7,7,2
	.loc 1 434 0 discriminator 2
	mulli 0,0,12
	.loc 1 432 0 discriminator 2
	lfsx 13,30,9
	add 11,30,9
.LVL123:
	.loc 1 436 0 discriminator 2
	lwzx 5,23,7
	.loc 1 432 0 discriminator 2
	fadds 0,13,0
	.loc 1 436 0 discriminator 2
	addi 5,5,1
	.loc 1 432 0 discriminator 2
	stfsx 0,30,9
	.loc 1 434 0 discriminator 2
	add 9,29,0
	.loc 1 432 0 discriminator 2
	lfs 12,4(11)
	lfs 0,24(1)
	lfs 13,8(11)
	fadds 0,12,0
	stfs 0,4(11)
	lfs 0,28(1)
	fadds 0,13,0
	stfs 0,8(11)
	.loc 1 434 0 discriminator 2
	lfsx 13,29,0
	lfs 0,8(1)
	fadds 0,13,0
	stfsx 0,29,0
	lfs 12,4(9)
	lfs 0,12(1)
	lfs 13,8(9)
	fadds 0,12,0
	stfs 0,4(9)
	lfs 0,16(1)
	fadds 0,13,0
	stfs 0,8(9)
	.loc 1 436 0 discriminator 2
	stwx 5,23,7
	.loc 1 430 0 discriminator 2
	bne+ 7,.L75
.LBE7:
	.loc 1 427 0
	lwz 0,64(8)
	addi 19,19,1
.LVL124:
	addi 18,18,12
	addi 22,22,28
	cmpw 7,0,19
	bgt+ 7,.L76
.LVL125:
.L74:
	.loc 1 441 0 discriminator 1
	lwz 11,112(8)
	cmpwi 7,11,0
	ble- 7,.L77
	.loc 1 441 0 is_stmt 0
	lis 9,numNormals-4@ha
	mr 0,11
	la 19,numNormals-4@l(9)
	li 22,0
	b .L79
.LVL126:
.L78:
	addi 22,22,1
.LVL127:
	mr 11,0
	cmpw 7,22,0
	bge- 7,.L77
.LVL128:
.L79:
	.loc 1 442 0 is_stmt 1
	lwzu 9,4(19)
	cmpwi 7,9,0
	beq+ 7,.L78
	.loc 1 443 0
	xoris 9,9,0x8000
	stw 20,208(1)
	stw 9,212(1)
	mullw 11,28,11
	lfs 0,.LC8@l(21)
	lfd 13,208(1)
	.loc 1 447 0
	lwz 9,pheader@l(27)
	.loc 1 443 0
	fsub 0,13,0
	add 10,11,22
	mulli 10,10,12
	.loc 1 444 0
	mullw 8,28,0
	.loc 1 447 0
	lwz 0,112(9)
	.loc 1 443 0
	frsp 0,0
	lfsx 13,30,10
	add 11,30,10
	.loc 1 451 0
	mr 3,11
	.loc 1 443 0
	fdivs 13,13,0
	.loc 1 444 0
	add 8,8,22
	mulli 8,8,12
	.loc 1 447 0
	mullw 0,28,0
	.loc 1 444 0
	add 8,30,8
	.loc 1 447 0
	add 0,0,22
	mulli 0,0,12
	add 9,29,0
	.loc 1 443 0
	stfsx 13,30,10
	.loc 1 444 0
	lfs 13,4(8)
	fdivs 13,13,0
	stfs 13,4(8)
	.loc 1 445 0
	lfs 13,8(11)
	fdivs 13,13,0
	stfs 13,8(11)
	.loc 1 447 0
	lfsx 13,29,0
	fdivs 13,13,0
	stfsx 13,29,0
	.loc 1 449 0
	lfs 12,8(9)
	.loc 1 448 0
	lfs 13,4(9)
	fdivs 13,13,0
	.loc 1 449 0
	fdivs 0,12,0
	.loc 1 448 0
	stfs 13,4(9)
	.loc 1 449 0
	stfs 0,8(9)
	.loc 1 451 0
	bl VectorNormalize
	.loc 1 452 0
	lwz 9,paliashdr@l(24)
	lwz 3,112(9)
	mullw 3,28,3
	add 3,3,22
	mulli 3,3,12
	add 3,29,3
	bl VectorNormalize
	.loc 1 454 0
	lwz 9,pheader@l(27)
	addi 4,1,32
	lwz 9,112(9)
	mullw 9,28,9
	add 9,9,22
	slwi 9,9,4
	add 9,26,9
	lwz 3,12(9)
	bl DecodeNormal
	.loc 1 456 0
	lwz 9,pheader@l(27)
	addi 3,1,32
	lwz 4,112(9)
	mullw 4,28,4
	add 4,4,22
	mulli 4,4,12
	add 4,30,4
	mr 5,4
	bl Orthogonalize
	.loc 1 457 0
	lwz 9,pheader@l(27)
	addi 3,1,32
	lwz 4,112(9)
	mullw 4,28,4
	add 4,4,22
	.loc 1 441 0
	addi 22,22,1
	.loc 1 457 0
	mulli 4,4,12
	add 4,29,4
	mr 5,4
	bl Orthogonalize
.LVL129:
	lwz 8,paliashdr@l(24)
	lwz 0,112(8)
	.loc 1 441 0
	cmpw 7,22,0
	mr 11,0
	blt+ 7,.L79
.LVL130:
.L77:
	.loc 1 412 0
	lwz 0,108(8)
	addi 28,28,1
.LVL131:
	cmpw 7,0,28
	ble- 7,.L32
	lwz 6,pheader@l(27)
	b .L100
.LVL132:
.L81:
	.loc 1 256 0
	lwz 31,112(4)
	lis 28,triangles@ha
	la 28,triangles@l(28)
	cmpwi 7,31,0
	ble- 7,.L38
.LVL133:
.L104:
	lis 11,dupIndex-4@ha
	li 9,0
	la 11,dupIndex-4@l(11)
	.loc 1 257 0
	li 0,0
.LVL134:
.L39:
	.loc 1 257 0 is_stmt 0 discriminator 2
	stwu 0,4(11)
	.loc 1 256 0 is_stmt 1 discriminator 2
	addi 9,9,1
.LVL135:
	lwz 31,112(4)
	cmpw 7,31,9
	bgt+ 7,.L39
	b .L38
.LVL136:
.L103:
	.loc 1 250 0
	mr 4,31
	mr 3,29
	bl findneighbour
	lwz 4,paliashdr@l(24)
	stw 3,0(30)
	lwz 5,64(4)
	b .L36
.LVL137:
.L48:
.LBB8:
	.loc 1 322 0 discriminator 1
	lwz 0,108(9)
	cmpwi 7,0,0
	ble- 7,.L51
.LBE8:
	.loc 1 286 0
	slwi 0,11,2
.LBB9:
	.loc 1 323 0
	lis 10,.LC8@ha
.LBE9:
	slwi 11,11,4
.LBB10:
	lfs 31,.LC8@l(10)
.LBE10:
	add 30,26,11
	.loc 1 286 0
	lis 10,poseverts-4@ha
	lis 11,paliashdr@ha
	mr 20,0
.LVL138:
	la 23,poseverts-4@l(10)
.LBB11:
	.loc 1 166 0
	li 25,0
	la 15,paliashdr@l(11)
	b .L57
.LVL139:
.L105:
	.loc 1 322 0
	lwz 11,0(19)
	slwi 0,11,2
.LVL140:
.L57:
	.loc 1 323 0 discriminator 2
	lwzu 11,4(23)
	.loc 1 322 0 discriminator 2
	addi 25,25,1
	.loc 1 323 0 discriminator 2
	lbzx 10,11,20
	stw 29,152(1)
	xoris 10,10,0x8000
	stw 10,156(1)
	add 10,11,20
	.loc 1 327 0 discriminator 2
	add 11,11,0
	.loc 1 323 0 discriminator 2
	lfd 0,152(1)
	lfs 12,8(9)
	fsub 0,0,31
	lfs 13,20(9)
	frsp 0,0
	fmadds 0,0,12,13
	stfs 0,0(30)
	.loc 1 324 0 discriminator 2
	lbz 0,1(10)
	stw 29,160(1)
	xoris 0,0,0x8000
	stw 0,164(1)
	lfd 0,160(1)
	lfs 12,12(9)
	fsub 0,0,31
	lfs 13,24(9)
	frsp 0,0
	fmadds 0,0,12,13
	stfs 0,4(30)
	.loc 1 325 0 discriminator 2
	lbz 0,2(10)
	stw 29,168(1)
	xoris 0,0,0x8000
	stw 0,172(1)
	lfd 0,168(1)
	lfs 12,16(9)
	fsub 0,0,31
	lfs 13,28(9)
	frsp 0,0
	fmadds 0,0,12,13
	stfs 0,8(30)
	.loc 1 327 0 discriminator 2
	lbz 3,3(11)
	mulli 3,3,12
	add 3,22,3
	bl NormalToLatLong
.LVL141:
	.loc 1 322 0 discriminator 2
	lwz 9,0(15)
	.loc 1 327 0 discriminator 2
	stw 3,12(30)
	.loc 1 322 0 discriminator 2
	add 30,30,21
	lwz 0,108(9)
	cmpw 7,0,25
	bgt+ 7,.L105
	b .L51
.LVL142:
.L52:
.LBE11:
.LBB12:
	.loc 1 294 0
	lwz 31,112(9)
.LVL143:
	.loc 1 296 0
	cmpwi 7,31,2047
	bgt- 7,.L106
.LVL144:
	.loc 1 301 0 discriminator 1
	lwz 11,108(9)
	cmpwi 7,11,0
	ble- 7,.L82
.LVL145:
.L107:
	.loc 1 302 0
	lis 10,.LC8@ha
	.loc 1 301 0
	lis 11,poseverts-4@ha
	.loc 1 302 0
	slwi 30,31,4
	lfs 31,.LC8@l(10)
	.loc 1 301 0
	la 23,poseverts-4@l(11)
	lis 10,paliashdr@ha
	lis 11,.LC8@ha
	.loc 1 302 0
	add 30,26,30
.LBE12:
	.loc 1 166 0
	li 25,0
	la 15,paliashdr@l(10)
	la 27,.LC8@l(11)
.LVL146:
.L56:
.LBB13:
	.loc 1 302 0 discriminator 2
	lwzu 11,4(23)
	.loc 1 301 0 discriminator 2
	addi 25,25,1
	.loc 1 302 0 discriminator 2
	lbzx 10,11,0
	add 11,11,0
	stw 29,104(1)
	xoris 10,10,0x8000
	stw 10,108(1)
	lfd 0,104(1)
	lfs 12,8(9)
	fsub 0,0,31
	lfs 13,20(9)
	frsp 0,0
	fmadds 0,0,12,13
	stfs 0,0(30)
	.loc 1 303 0 discriminator 2
	lbz 0,1(11)
	stw 29,112(1)
	xoris 0,0,0x8000
	stw 0,116(1)
	lfd 0,112(1)
	lfs 12,12(9)
	fsub 0,0,31
	lfs 13,24(9)
	frsp 0,0
	fmadds 0,0,12,13
	stfs 0,4(30)
	.loc 1 304 0 discriminator 2
	lbz 0,2(11)
	stw 29,120(1)
	xoris 0,0,0x8000
	stw 0,124(1)
	lfd 0,120(1)
	lfs 12,16(9)
	fsub 0,0,31
	lfs 13,28(9)
	frsp 0,0
	fmadds 0,0,12,13
	stfs 0,8(30)
	.loc 1 305 0 discriminator 2
	lbz 3,3(11)
	mulli 3,3,12
	add 3,22,3
	bl NormalToLatLong
.LVL147:
	.loc 1 301 0 discriminator 2
	lwz 9,0(15)
	.loc 1 305 0 discriminator 2
	stw 3,12(30)
	.loc 1 301 0 discriminator 2
	add 30,30,21
	lwz 11,0(19)
	lwz 0,108(9)
	cmpw 7,0,25
	slwi 0,11,2
	bgt+ 7,.L56
.LVL148:
.L54:
	.loc 1 309 0
	lwz 10,216(1)
.LBE13:
	.loc 1 283 0
	xoris 14,14,0x8000
.LVL149:
	stw 14,132(1)
	.loc 1 284 0
	xoris 20,20,0x8000
.LVL150:
	.loc 1 283 0
	stw 29,128(1)
.LBB14:
	.loc 1 309 0
	lwz 11,pheader@l(10)
.LBE14:
	.loc 1 283 0
	lfd 13,128(1)
.LBB15:
	.loc 1 309 0
	lwz 11,52(11)
	stw 29,136(1)
	srawi 11,11,1
	addze 11,11
.LBE15:
	.loc 1 283 0
	lfs 0,0(27)
.LBB16:
	.loc 1 309 0
	xoris 11,11,0x8000
.LBE16:
	.loc 1 284 0
	stw 20,148(1)
.LBB17:
	.loc 1 309 0
	stw 11,140(1)
.LBE17:
	.loc 1 283 0
	fsub 13,13,0
	.loc 1 284 0
	stw 29,144(1)
.LBB18:
	.loc 1 314 0
	lis 11,dupIndex@ha
	.loc 1 309 0
	lfd 12,136(1)
	.loc 1 314 0
	la 11,dupIndex@l(11)
.LBE18:
	.loc 1 284 0
	lfd 11,144(1)
	.loc 1 283 0
	frsp 13,13
.LVL151:
.LBB19:
	.loc 1 309 0
	fsub 12,12,0
	.loc 1 314 0
	stwx 31,11,0
.LBE19:
	.loc 1 284 0
	fsub 0,11,0
.LBB20:
	.loc 1 315 0
	stw 31,0(19)
	.loc 1 310 0
	mulli 11,31,12
	.loc 1 309 0
	frsp 12,12
	.loc 1 318 0
	lwz 0,112(9)
.LBE20:
	.loc 1 284 0
	frsp 0,0
.LBB21:
	.loc 1 310 0
	add 11,17,11
	addi 10,11,4
	.loc 1 318 0
	addic 0,0,1
	.loc 1 309 0
	fadds 13,12,13
	.loc 1 311 0
	addi 11,11,8
	fctiwz 0,0
	.loc 1 310 0
	fctiwz 13,13
	.loc 1 311 0
	stfiwx 0,0,11
	.loc 1 310 0
	stfiwx 13,0,10
	.loc 1 318 0
	stw 0,112(9)
.LBE21:
	.loc 1 286 0
	b .L51
.LVL152:
.L106:
.LBB22:
	.loc 1 297 0
	lis 11,.LC13@ha
	lwz 3,.LC13@l(11)
	crxor 6,6,6
	bl Con_Printf
	lwz 11,0(19)
	lwz 9,paliashdr@l(24)
	slwi 0,11,2
.LVL153:
	.loc 1 301 0
	lwz 11,108(9)
	cmpwi 7,11,0
	bgt+ 7,.L107
.L82:
	lis 10,.LC8@ha
	la 27,.LC8@l(10)
	b .L54
.LVL154:
.L32:
.LBE22:
	.loc 1 460 0
	lwz 0,324(1)
	lwz 14,224(1)
.LVL155:
	mtlr 0
	lwz 15,228(1)
	lwz 16,232(1)
	lwz 17,236(1)
.LVL156:
	lwz 18,240(1)
	lwz 19,244(1)
	lwz 20,248(1)
	lwz 21,252(1)
	lwz 22,256(1)
	lwz 23,260(1)
	lwz 24,264(1)
	lwz 25,268(1)
	lwz 26,272(1)
.LVL157:
	lwz 27,276(1)
	lwz 28,280(1)
	lwz 29,284(1)
.LVL158:
	lwz 30,288(1)
.LVL159:
	lwz 31,292(1)
	lfd 29,296(1)
	lfd 30,304(1)
	lfd 31,312(1)
	addi 1,1,320
.LCFI12:
	.cfi_def_cfa_offset 0
	.cfi_restore 63
	.cfi_restore 62
	.cfi_restore 61
	.cfi_restore 31
	.cfi_restore 30
	.cfi_restore 29
	.cfi_restore 28
	.cfi_restore 27
	.cfi_restore 26
	.cfi_restore 25
	.cfi_restore 24
	.cfi_restore 23
	.cfi_restore 22
	.cfi_restore 21
	.cfi_restore 20
	.cfi_restore 19
	.cfi_restore 18
	.cfi_restore 17
	.cfi_restore 16
	.cfi_restore 15
	.cfi_restore 14
	blr
	.cfi_endproc
.LFE41:
	.size	GL_MakeAliasModelDisplayLists, .-GL_MakeAliasModelDisplayLists
	.comm	dupIndex,8192,4
	.comm	numNormals,8192,4
	.comm	paliashdr,4,4
	.comm	aliasmodel,4,4
	.comm	causticschain,4,4
	.section	.rodata.cst4,"aM",@progbits,4
	.align 2
.LC1:
	.4byte	1127481344
.LC4:
	.4byte	1060459861
.LC5:
	.4byte	0
.LC8:
	.4byte	1501560836
.LC11:
	.4byte	1056964608
.LC12:
	.4byte	1065353216
.LC13:
	.4byte	.LC6
	.section	.rodata.cst8,"aM",@progbits,8
	.align 3
.LC2:
	.4byte	1074340347
	.4byte	1413754136
	.section	.rodata.str1.4,"aMS",@progbits,1
	.align 2
.LC6:
	.string	"To many verts"
	.zero	2
.LC9:
	.string	"Not equal %i %i\n"
	.section	".text"
.Letext0:
	.file 2 "d:/Data/Nintendo/TenebraeGX/src/common.h"
	.file 3 "d:/Data/Nintendo/TenebraeGX/src/bspfile.h"
	.file 4 "d:/Data/Nintendo/TenebraeGX/src/zone.h"
	.file 5 "d:/Data/Nintendo/TenebraeGX/src/mathlib.h"
	.file 6 "d:/Data/Nintendo/TenebraeGX/src/quakedef.h"
	.file 7 "d:/Data/Nintendo/TenebraeGX/src/render.h"
	.file 8 "d:/Data/Nintendo/TenebraeGX/src/gl_model.h"
	.file 9 "d:/Data/Nintendo/TenebraeGX/src/glquake.h"
	.file 10 "d:/Data/Nintendo/TenebraeGX/src/modelgen.h"
	.file 11 "d:/Data/Nintendo/TenebraeGX/src/world.h"
	.file 12 "c:/utils/devkitPro/libogc/include/ogc/gx.h"