	.file	"gl_qgxext.c"
	.section	".text"
.Ltext0:
	.cfi_sections	.debug_frame
	.align 2
	.globl GX_InitGXExt
	.type	GX_InitGXExt, @function
GX_InitGXExt:
.LFB38:
	.file 1 "d:/Data/Nintendo/TenebraeGX/src/gl_qgxext.c"
	.loc 1 38 0
	.cfi_startproc
	mflr 0
	stwu 1,-8(1)
.LCFI0:
	.cfi_def_cfa_offset 8
	.cfi_register 65, 0
	.loc 1 39 0
	lis 11,.LANCHOR0@ha
	.loc 1 45 0
	li 3,1
	.loc 1 39 0
	la 9,.LANCHOR0@l(11)
	.loc 1 45 0
	li 4,9
	.loc 1 38 0
	stw 0,12(1)
	.loc 1 39 0
	li 0,0
	.cfi_offset 65, 4
	.loc 1 40 0
	stw 0,4(9)
	.loc 1 45 0
	li 5,1
	.loc 1 41 0
	stw 0,8(9)
	.loc 1 45 0
	li 6,4
	li 7,0
	.loc 1 39 0
	stw 0,.LANCHOR0@l(11)
	.loc 1 45 0
	bl GX_SetVtxAttrFmt
	.loc 1 46 0
	li 3,1
	li 4,13
	li 5,1
	li 6,4
	li 7,0
	bl GX_SetVtxAttrFmt
	.loc 1 47 0
	li 3,1
	li 4,14
	li 5,1
	li 6,4
	li 7,0
	bl GX_SetVtxAttrFmt
	.loc 1 50 0
	li 3,2
	li 4,9
	li 5,1
	li 6,4
	li 7,0
	bl GX_SetVtxAttrFmt
	.loc 1 51 0
	li 3,2
	li 4,13
	li 5,1
	li 6,4
	li 7,0
	bl GX_SetVtxAttrFmt
	.loc 1 52 0
	li 3,2
	li 4,14
	li 5,1
	li 6,4
	li 7,0
	bl GX_SetVtxAttrFmt
	.loc 1 55 0
	li 3,3
	li 4,9
	li 5,1
	li 6,4
	li 7,0
	bl GX_SetVtxAttrFmt
	.loc 1 58 0
	lwz 0,12(1)
	addi 1,1,8
.LCFI1:
	.cfi_def_cfa_offset 0
	mtlr 0
	blr
	.cfi_endproc
.LFE38:
	.size	GX_InitGXExt, .-GX_InitGXExt
	.align 2
	.globl GX_BindGLTex
	.type	GX_BindGLTex, @function
GX_BindGLTex:
.LFB39:
	.loc 1 82 0
	.cfi_startproc
.LVL0:
	stwu 1,-16(1)
.LCFI2:
	.cfi_def_cfa_offset 16
	mflr 0
	stw 31,12(1)
	mr 31,3
	.cfi_offset 31, -4
	.cfi_register 65, 0
	.loc 1 83 0
	mr 3,4
.LVL1:
	.loc 1 82 0
	stw 0,20(1)
	.loc 1 83 0
	.cfi_offset 65, 4
	bl GX_getTexObj
.LVL2:
	.loc 1 84 0
	cmpwi 7,3,0
	beq- 7,.L2
	.loc 1 85 0
	mr 4,31
	bl GX_LoadTexObj
.LVL3:
.L2:
	.loc 1 87 0
	lwz 0,20(1)
	lwz 31,12(1)
	mtlr 0
	addi 1,1,16
.LCFI3:
	.cfi_def_cfa_offset 0
	.cfi_restore 31
	blr
	.cfi_endproc
.LFE39:
	.size	GX_BindGLTex, .-GX_BindGLTex
	.align 2
	.globl GX_AsGXPrimitiveType
	.type	GX_AsGXPrimitiveType, @function
GX_AsGXPrimitiveType:
.LFB40:
	.loc 1 96 0
	.cfi_startproc
.LVL4:
	.loc 1 96 0
	cmplwi 7,3,9
	li 0,0
	bgt- 7,.L6
	lis 9,.LANCHOR1@ha
	la 9,.LANCHOR1@l(9)
	lbzx 0,9,3
.L6:
	.loc 1 117 0
	mr 3,0
.LVL5:
	blr
	.cfi_endproc
.LFE40:
	.size	GX_AsGXPrimitiveType, .-GX_AsGXPrimitiveType
	.align 2
	.globl GX_SetupGLRender
	.type	GX_SetupGLRender, @function
GX_SetupGLRender:
.LFB41:
	.loc 1 126 0
	.cfi_startproc
	mflr 0
	stwu 1,-24(1)
.LCFI4:
	.cfi_def_cfa_offset 24
	.cfi_register 65, 0
	stw 31,20(1)
	.loc 1 146 0
	li 31,0
	.cfi_offset 31, -4
	.loc 1 126 0
	stw 0,28(1)
	.loc 1 128 0
	.cfi_offset 65, 4
	bl GX_LoadGLProjection
	.loc 1 131 0
	li 3,2
	bl GX_SetCullMode
	.loc 1 134 0
	li 3,1
	bl GX_SetAlphaUpdate
	.loc 1 135 0
	li 3,1
	bl GX_SetColorUpdate
	.loc 1 138 0
	li 4,3
	li 5,1
	li 3,1
	bl GX_SetZMode
	.loc 1 141 0
	li 3,1
	bl GX_SetZCompLoc
	.loc 1 142 0
	li 3,7
	li 4,1
	li 5,0
	li 6,7
	li 7,1
	bl GX_SetAlphaCompare
	.loc 1 146 0
	li 0,0
.LVL6:
	rlwimi 0,31,24,0,7
.LVL7:
	.loc 1 147 0
	lis 9,.LC0@ha
	.loc 1 146 0
	rlwimi 0,31,16,8,15
	.loc 1 147 0
	lfs 2,.LC0@l(9)
	lis 9,.LC1@ha
	.loc 1 146 0
	rlwimi 0,31,8,16,23
	.loc 1 147 0
	lfs 3,.LC1@l(9)
	lis 9,.LC2@ha
	.loc 1 146 0
	rlwimi 0,31,0,24,31
	.loc 1 147 0
	mr 4,1
	lfs 4,.LC2@l(9)
	lis 9,.LC3@ha
	stwu 0,8(4)
	li 3,0
	lfs 1,.LC3@l(9)
	bl GX_SetFog
.LVL8:
	.loc 1 155 0
	lwz 0,28(1)
	.loc 1 150 0
	lis 11,.LANCHOR0@ha
	.loc 1 155 0
	mtlr 0
	.loc 1 150 0
	la 9,.LANCHOR0@l(11)
	.loc 1 151 0
	stw 31,4(9)
	.loc 1 152 0
	stw 31,8(9)
	.loc 1 150 0
	stw 31,.LANCHOR0@l(11)
	.loc 1 155 0
	lwz 31,20(1)
	addi 1,1,24
.LCFI5:
	.cfi_def_cfa_offset 0
	.cfi_restore 31
	blr
	.cfi_endproc
.LFE41:
	.size	GX_SetupGLRender, .-GX_SetupGLRender
	.align 2
	.globl GX_InitAmbientShader
	.type	GX_InitAmbientShader, @function
GX_InitAmbientShader:
.LFB42:
	.loc 1 169 0
	.cfi_startproc
.LVL9:
	stwu 1,-16(1)
.LCFI6:
	.cfi_def_cfa_offset 16
	mflr 0
	stw 31,12(1)
	.loc 1 171 0
	lis 31,.LANCHOR0@ha
	.cfi_offset 31, -4
	.cfi_register 65, 0
	.loc 1 169 0
	stw 0,20(1)
	.loc 1 171 0
	lwz 0,.LANCHOR0@l(31)
	.cfi_offset 65, 4
	cmpwi 7,0,1
	beq- 7,.L10
	.loc 1 174 0
	bl GX_ClearVtxDesc
.LVL10:
	.loc 1 175 0
	li 3,9
	li 4,1
	bl GX_SetVtxDesc
	.loc 1 176 0
	li 3,13
	li 4,1
	bl GX_SetVtxDesc
	.loc 1 177 0
	li 4,1
	li 3,14
	bl GX_SetVtxDesc
	.loc 1 178 0
	bl GX_InvVtxCache
	.loc 1 181 0
	li 3,2
	bl GX_SetNumTexGens
	.loc 1 184 0
	li 3,0
	li 4,1
	li 5,4
	li 6,60
	bl GX_SetTexCoordGen
	.loc 1 185 0
	li 3,1
	li 4,1
	li 5,5
	li 6,60
	bl GX_SetTexCoordGen
	.loc 1 188 0
	li 3,0
	li 4,15
	li 5,8
	li 6,13
	li 7,15
	bl GX_SetTevColorIn
	.loc 1 189 0
	li 8,0
	li 7,1
	li 3,0
	li 4,0
	li 5,0
	li 6,0
	bl GX_SetTevColorOp
	.loc 1 190 0
	li 4,0
	li 5,0
	li 6,6
	li 3,0
	bl GX_SetTevOrder
	.loc 1 191 0
	li 3,0
	bl GX_SetTevDirect
	.loc 1 193 0
	li 3,1
	li 4,15
	li 5,9
	li 6,0
	li 7,15
	bl GX_SetTevColorIn
	.loc 1 194 0
	li 8,0
	li 7,1
	li 3,1
	li 4,0
	li 5,0
	li 6,0
	bl GX_SetTevColorOp
	.loc 1 195 0
	li 4,1
	li 5,1
	li 6,6
	li 3,1
	bl GX_SetTevOrder
	.loc 1 196 0
	li 3,1
	bl GX_SetTevDirect
	.loc 1 198 0
	li 3,2
	li 4,15
	li 5,9
	li 6,12
	li 7,0
	bl GX_SetTevColorIn
	.loc 1 199 0
	li 7,1
	li 8,0
	li 3,2
	li 4,0
	li 5,0
	li 6,0
	bl GX_SetTevColorOp
	.loc 1 200 0
	li 4,0
	li 5,2
	li 6,6
	li 3,2
	bl GX_SetTevOrder
	.loc 1 201 0
	li 3,2
	bl GX_SetTevDirect
	.loc 1 204 0
	li 0,1
	.loc 1 207 0
	li 3,0
	.loc 1 204 0
	stw 0,.LANCHOR0@l(31)
	.loc 1 207 0
	bl GX_SetAlphaUpdate
	.loc 1 208 0
	li 3,1
	bl GX_SetColorUpdate
	.loc 1 211 0
	li 4,1
	li 5,1
	li 3,0
	li 6,5
	bl GX_SetBlendMode
	.loc 1 214 0
	li 3,2
	bl GX_SetCullMode
	.loc 1 217 0
	li 3,1
	li 4,3
	li 5,1
	bl GX_SetZMode
.L10:
	.loc 1 222 0
	li 3,1
	bl GX_SetNumTevStages
	.loc 1 224 0
	lwz 0,20(1)
	lwz 31,12(1)
	mtlr 0
	addi 1,1,16
.LCFI7:
	.cfi_def_cfa_offset 0
	.cfi_restore 31
	blr
	.cfi_endproc
.LFE42:
	.size	GX_InitAmbientShader, .-GX_InitAmbientShader
	.align 2
	.globl GX_InitWorldBumpShader
	.type	GX_InitWorldBumpShader, @function
GX_InitWorldBumpShader:
.LFB43:
	.loc 1 246 0
	.cfi_startproc
.LVL11:
	stwu 1,-168(1)
.LCFI8:
	.cfi_def_cfa_offset 168
	mflr 0
	stw 30,160(1)
	.loc 1 248 0
	lis 30,.LANCHOR0@ha
	.cfi_offset 30, -8
	.cfi_register 65, 0
	.loc 1 246 0
	stw 0,172(1)
	.loc 1 248 0
	lwz 0,.LANCHOR0@l(30)
	.cfi_offset 65, 4
	.loc 1 246 0
	stw 29,156(1)
	mr 29,4
	.cfi_offset 29, -12
	.loc 1 248 0
	cmpwi 7,0,2
	.loc 1 246 0
	stw 31,164(1)
	.loc 1 246 0
	mr 31,3
	.cfi_offset 31, -4
	.loc 1 248 0
	beq- 7,.L12
	.loc 1 252 0
	li 0,2
	stw 0,.LANCHOR0@l(30)
	.loc 1 255 0
	bl GX_PixModeSync
.LVL12:
	.loc 1 256 0
	bl GX_DrawDone
	.loc 1 259 0
	bl GX_ClearVtxDesc
	.loc 1 260 0
	li 3,9
	li 4,1
	bl GX_SetVtxDesc
	.loc 1 261 0
	li 3,13
	li 4,1
	bl GX_SetVtxDesc
	.loc 1 262 0
	li 3,14
	li 4,1
	bl GX_SetVtxDesc
	.loc 1 263 0
	bl GX_InvVtxCache
	.loc 1 266 0
	lis 9,glow_texture_object@ha
	lwz 4,glow_texture_object@l(9)
	li 3,1
	bl GX_BindGLTex
	.loc 1 269 0
	li 3,3
	bl GX_SetNumTexGens
	.loc 1 272 0
	li 3,0
	li 4,1
	li 5,4
	li 6,60
	bl GX_SetTexCoordGen
	.loc 1 273 0
	li 3,1
	li 4,1
	li 5,5
	li 6,60
	bl GX_SetTexCoordGen
	.loc 1 274 0
	li 8,64
	li 3,2
	li 4,0
	li 5,0
	li 6,30
	li 7,0
	bl GX_SetTexCoordGen2
	.loc 1 277 0
	li 3,0
	li 4,15
	li 5,8
	li 6,6
	li 7,15
	bl GX_SetTevColorIn
	.loc 1 278 0
	li 8,1
	li 7,1
	li 3,0
	li 4,0
	li 5,0
	li 6,0
	bl GX_SetTevColorOp
	.loc 1 279 0
	li 4,1
	li 5,1
	li 6,4
	li 3,0
	bl GX_SetTevOrder
	.loc 1 280 0
	li 3,0
	bl GX_SetTevDirect
	.loc 1 282 0
	li 3,1
	li 4,15
	li 5,8
	li 6,2
	li 7,15
	bl GX_SetTevColorIn
	.loc 1 283 0
	li 8,0
	li 7,1
	li 3,1
	li 4,0
	li 5,0
	li 6,1
	bl GX_SetTevColorOp
	.loc 1 284 0
	li 4,0
	li 5,0
	li 6,6
	li 3,1
	bl GX_SetTevOrder
	.loc 1 285 0
	li 3,1
	bl GX_SetTevDirect
	.loc 1 287 0
	li 3,2
	li 4,8
	li 5,15
	li 6,0
	li 7,15
	bl GX_SetTevColorIn
	.loc 1 288 0
	li 7,0
	li 8,0
	li 3,2
	li 4,15
	li 5,0
	li 6,0
	bl GX_SetTevColorOp
	.loc 1 289 0
	li 4,2
	li 5,5
	li 6,6
	li 3,2
	bl GX_SetTevOrder
	.loc 1 290 0
	li 3,2
	bl GX_SetTevDirect
	.loc 1 293 0
	li 3,0
	bl GX_SetAlphaUpdate
	.loc 1 294 0
	li 3,1
	bl GX_SetColorUpdate
	.loc 1 297 0
	li 4,1
	li 5,1
	li 6,5
	li 3,1
	bl GX_SetBlendMode
	.loc 1 300 0
	li 3,2
	bl GX_SetCullMode
	.loc 1 303 0
	li 3,3
	bl GX_SetNumTevStages
	.loc 1 306 0
	li 3,1
	li 4,3
	li 5,1
	bl GX_SetZMode
.L12:
	.loc 1 310 0
	la 30,.LANCHOR0@l(30)
	lwz 0,8(30)
	cmpw 7,0,29
	beq- 7,.L13
.LBB2:
	.loc 1 313 0
	stw 29,8(30)
	.loc 1 316 0
	bl GX_GetCurrGLModelViewMtx
	mr 4,3
	li 5,48
	addi 3,1,8
	bl memcpy
	.loc 1 317 0
	addi 3,1,8
	li 4,30
	li 5,1
	bl GX_LoadTexMtxImm
.L13:
.LBE2:
	.loc 1 321 0
	lwz 0,4(30)
	cmpw 7,0,31
	beq- 7,.L11
.LBB3:
	.loc 1 324 0
	stw 31,4(30)
	.loc 1 326 0
	bl GX_GetCurrGLPrjMtx
	mr 4,3
	li 5,64
	addi 3,1,56
	bl memcpy
.LVL13:
	.loc 1 331 0
	lis 9,glwidth@ha
	lwz 10,glwidth@l(9)
	.loc 1 332 0
	lis 9,glheight@ha
	.loc 1 329 0
	lwz 8,2132(31)
	lis 0,0x4330
	.loc 1 330 0
	lwz 11,2136(31)
	.loc 1 331 0
	xoris 10,10,0x8000
	.loc 1 332 0
	lwz 9,glheight@l(9)
	.loc 1 329 0
	xoris 8,8,0x8000
	.loc 1 330 0
	xoris 11,11,0x8000
	.loc 1 329 0
	stw 0,120(1)
	.loc 1 332 0
	xoris 9,9,0x8000
	.loc 1 331 0
	stw 0,128(1)
	.loc 1 330 0
	stw 0,136(1)
	.loc 1 338 0
	addi 3,1,8
	.loc 1 332 0
	stw 9,148(1)
	.loc 1 329 0
	lis 9,.LC6@ha
	.loc 1 332 0
	stw 0,144(1)
	.loc 1 338 0
	li 4,64
	.loc 1 329 0
	stw 8,124(1)
	.loc 1 333 0
	li 0,0
	.loc 1 331 0
	stw 10,132(1)
	.loc 1 338 0
	li 5,1
	.loc 1 330 0
	stw 11,140(1)
	.loc 1 329 0
	lfs 0,.LC6@l(9)
	.loc 1 331 0
	lis 9,.LC7@ha
	.loc 1 332 0
	lfd 10,144(1)
	.loc 1 329 0
	lfd 11,120(1)
	.loc 1 331 0
	lfd 13,128(1)
	.loc 1 330 0
	lfd 12,136(1)
	.loc 1 329 0
	fsub 11,11,0
	.loc 1 331 0
	fsub 13,13,0
	.loc 1 333 0
	stw 0,12(1)
	.loc 1 330 0
	fsub 12,12,0
	.loc 1 333 0
	stw 0,20(1)
	.loc 1 332 0
	fsub 0,10,0
	.loc 1 328 0
	lfs 10,76(1)
	.loc 1 331 0
	frsp 13,13
	.loc 1 333 0
	stw 0,24(1)
	.loc 1 330 0
	frsp 12,12
	.loc 1 333 0
	stw 0,36(1)
	.loc 1 329 0
	frsp 11,11
	.loc 1 333 0
	stw 0,40(1)
	.loc 1 332 0
	frsp 0,0
	.loc 1 333 0
	stw 0,44(1)
	.loc 1 331 0
	fdivs 11,11,13
	lfs 13,.LC7@l(9)
	.loc 1 333 0
	lis 9,.LC8@ha
	lwz 9,.LC8@l(9)
	stw 9,48(1)
	.loc 1 328 0
	lis 9,.LC4@ha
	.loc 1 332 0
	fdivs 0,12,0
	.loc 1 328 0
	lfs 12,.LC4@l(9)
	fmuls 12,10,12
.LVL14:
	.loc 1 327 0
	lfs 10,56(1)
	.loc 1 331 0
	fsubs 11,11,13
.LVL15:
	.loc 1 332 0
	fsubs 0,0,13
.LVL16:
	.loc 1 327 0
	fmuls 13,10,13
	.loc 1 333 0
	stfs 12,28(1)
	stfs 11,16(1)
	stfs 0,32(1)
	stfs 13,8(1)
	stw 0,52(1)
	.loc 1 338 0
	bl GX_LoadTexMtxImm
.LVL17:
.L11:
.LBE3:
	.loc 1 342 0
	lwz 0,172(1)
	lwz 29,156(1)
.LVL18:
	mtlr 0
	lwz 30,160(1)
	lwz 31,164(1)
.LVL19:
	addi 1,1,168
.LCFI9:
	.cfi_def_cfa_offset 0
	.cfi_restore 31
	.cfi_restore 30
	.cfi_restore 29
	blr
	.cfi_endproc
.LFE43:
	.size	GX_InitWorldBumpShader, .-GX_InitWorldBumpShader
	.align 2
	.globl GX_InitShadowShader
	.type	GX_InitShadowShader, @function
GX_InitShadowShader:
.LFB44:
	.loc 1 354 0
	.cfi_startproc
.LVL20:
	mflr 0
	stwu 1,-24(1)
.LCFI10:
	.cfi_def_cfa_offset 24
	.cfi_register 65, 0
	stw 30,16(1)
	mr 30,3
	.cfi_offset 30, -8
	stw 0,28(1)
	stw 31,20(1)
	.loc 1 354 0
	mr 31,4
	.cfi_offset 31, -4
	.cfi_offset 65, 4
	.loc 1 357 0
	bl GX_PixModeSync
.LVL21:
	.loc 1 358 0
	bl GX_DrawDone
	.loc 1 360 0
	lis 9,.LANCHOR0@ha
	lwz 0,.LANCHOR0@l(9)
	cmpwi 7,0,3
	beq- 7,.L16
.LBB4:
	.loc 1 364 0
	li 0,3
	stw 0,.LANCHOR0@l(9)
	.loc 1 367 0
	bl GX_ClearVtxDesc
	.loc 1 368 0
	li 4,1
	li 3,9
	bl GX_SetVtxDesc
	.loc 1 369 0
	bl GX_InvVtxCache
	.loc 1 372 0
	li 3,0
	bl GX_SetNumTexGens
	.loc 1 378 0
	li 9,0
	li 0,0
.LVL22:
	.loc 1 382 0
	mr 4,1
	.loc 1 378 0
	rlwimi 0,9,24,0,7
.LVL23:
	.loc 1 382 0
	li 3,0
	.loc 1 379 0
	rlwimi 0,9,16,8,15
	.loc 1 380 0
	rlwimi 0,9,8,16,23
	.loc 1 381 0
	li 9,4
	rlwimi 0,9,0,24,31
	.loc 1 382 0
	stwu 0,8(4)
	bl GX_SetTevKColor
.LVL24:
	.loc 1 383 0
	li 3,0
	li 4,28
	bl GX_SetTevKAlphaSel
	.loc 1 384 0
	li 3,0
	li 4,15
	li 5,15
	li 6,15
	li 7,15
	bl GX_SetTevColorIn
	.loc 1 385 0
	li 8,0
	li 3,0
	li 4,0
	li 5,0
	li 6,0
	li 7,1
	bl GX_SetTevColorOp
	.loc 1 386 0
	li 3,0
	li 4,7
	li 5,7
	li 6,7
	li 7,6
	bl GX_SetTevAlphaIn
	.loc 1 387 0
	li 7,1
	li 8,0
	li 3,0
	li 4,0
	li 5,0
	li 6,0
	bl GX_SetTevAlphaOp
	.loc 1 388 0
	li 4,255
	li 5,256
	li 6,6
	li 3,0
	bl GX_SetTevOrder
	.loc 1 389 0
	li 3,0
	bl GX_SetTevDirect
	.loc 1 392 0
	li 3,1
	bl GX_SetAlphaUpdate
	.loc 1 393 0
	li 3,0
	bl GX_SetColorUpdate
	.loc 1 396 0
	li 3,1
	bl GX_SetNumTevStages
	.loc 1 399 0
	li 3,1
	li 4,6
	li 5,0
	bl GX_SetZMode
.L16:
.LBE4:
	.loc 1 404 0
	cmpwi 7,30,0
	beq- 7,.L17
	.loc 1 405 0
	cmpwi 7,31,0
	bne- 7,.L23
	.loc 1 408 0
	li 3,1
	bl GX_SetCullMode
.L19:
	.loc 1 410 0
	li 3,1
	li 4,1
	li 5,1
	li 6,5
	bl GX_SetBlendMode
	.loc 1 420 0
	lwz 0,28(1)
	lwz 30,16(1)
	mtlr 0
	lwz 31,20(1)
	addi 1,1,24
	.cfi_remember_state
	.cfi_restore 30
	.cfi_restore 31
.LCFI11:
	.cfi_def_cfa_offset 0
	blr
.L17:
.LCFI12:
	.cfi_restore_state
	.loc 1 412 0
	cmpwi 7,31,0
	bne- 7,.L24
	.loc 1 415 0
	li 3,2
	bl GX_SetCullMode
.L22:
	.loc 1 417 0
	li 3,3
	li 4,1
	li 5,1
	li 6,5
	bl GX_SetBlendMode
	.loc 1 420 0
	lwz 0,28(1)
	lwz 30,16(1)
	mtlr 0
	lwz 31,20(1)
	addi 1,1,24
	.cfi_remember_state
.LCFI13:
	.cfi_def_cfa_offset 0
	.cfi_restore 31
	.cfi_restore 30
	blr
.L24:
.LCFI14:
	.cfi_restore_state
	.loc 1 413 0
	li 3,1
	bl GX_SetCullMode
	b .L22
.L23:
	.loc 1 406 0
	li 3,2
	bl GX_SetCullMode
	b .L19
	.cfi_endproc
.LFE44:
	.size	GX_InitShadowShader, .-GX_InitShadowShader
	.align 2
	.globl GX_GrabEFB
	.type	GX_GrabEFB, @function
GX_GrabEFB:
.LFB45:
	.loc 1 428 0
	.cfi_startproc
.LVL25:
	stwu 1,-40(1)
.LCFI15:
	.cfi_def_cfa_offset 40
	mflr 0
	stw 26,16(1)
	mr 26,3
	.cfi_offset 26, -24
	.cfi_register 65, 0
	stw 27,20(1)
	mr 27,4
	.cfi_offset 27, -20
	stw 28,24(1)
	mr 28,5
	.cfi_offset 28, -16
	stw 31,36(1)
	.loc 1 432 0
	rlwinm 31,6,0,0xffff
	.cfi_offset 31, -4
	.loc 1 428 0
	stw 0,44(1)
	stw 25,12(1)
	mr 25,8
	.cfi_offset 25, -28
	.cfi_offset 65, 4
	stw 29,28(1)
	mr 29,9
	.cfi_offset 29, -12
	stw 30,32(1)
	.loc 1 428 0
	mr 30,7
	.cfi_offset 30, -8
	.loc 1 429 0
	bl GX_PixModeSync
.LVL26:
	.loc 1 430 0
	bl GX_DrawDone
	.loc 1 432 0
	rlwinm 3,26,0,0xffff
	rlwinm 4,27,0,0xffff
	rlwinm 5,28,0,0xffff
	mr 6,31
	bl GX_SetTexCopySrc
	.loc 1 433 0
	lis 9,glwidth@ha
	lwz 3,glwidth@l(9)
	mr 5,30
	mr 6,29
	mr 4,31
	rlwinm 3,3,0,0xffff
	bl GX_SetTexCopyDst
	.loc 1 436 0
	lwz 3,48(1)
	mr 4,25
	bl GX_CopyTex
	.loc 1 437 0
	bl GX_PixModeSync
	.loc 1 441 0
	lwz 0,44(1)
	lwz 25,12(1)
	mtlr 0
	lwz 26,16(1)
.LVL27:
	lwz 27,20(1)
.LVL28:
	lwz 28,24(1)
.LVL29:
	lwz 29,28(1)
	lwz 30,32(1)
	lwz 31,36(1)
	addi 1,1,40
.LCFI16:
	.cfi_def_cfa_offset 0
	.cfi_restore 31
	.cfi_restore 30
	.cfi_restore 29
	.cfi_restore 28
	.cfi_restore 27
	.cfi_restore 26
	.cfi_restore 25
	blr
	.cfi_endproc
.LFE45:
	.size	GX_GrabEFB, .-GX_GrabEFB
	.comm	causticschain,4,4
	.section	.rodata
	.align 2
	.set	.LANCHOR1,. + 0
	.type	CSWTCH.11, @object
	.size	CSWTCH.11, 10
CSWTCH.11:
	.byte	-72
	.byte	-88
	.byte	0
	.byte	-80
	.byte	-112
	.byte	-104
	.byte	-96
	.byte	-128
	.byte	-104
	.byte	-96
	.section	.rodata.cst4,"aM",@progbits,4
	.align 2
.LC0:
	.4byte	1266679807
.LC1:
	.4byte	1036831949
.LC2:
	.4byte	1065353216
.LC3:
	.4byte	0
.LC4:
	.4byte	-1090519040
.LC6:
	.4byte	1501560836
.LC7:
	.4byte	1056964608
.LC8:
	.4byte	-1082130432
	.section	".bss"
	.align 2
	.set	.LANCHOR0,. + 0
	.type	gxCurrentShader, @object
	.size	gxCurrentShader, 4
gxCurrentShader:
	.zero	4
	.type	currentBumpShaderLight, @object
	.size	currentBumpShaderLight, 4
currentBumpShaderLight:
	.zero	4
	.type	currentBumpShaderEntity, @object
	.size	currentBumpShaderEntity, 4
currentBumpShaderEntity:
	.zero	4
	.section	".text"
.Letext0:
	.file 2 "d:/Data/Nintendo/TenebraeGX/src/common.h"
	.file 3 "c:\\utils\\devkitpro\\devkitppc\\bin\\../lib/gcc/powerpc-eabi/4.6.3/../../../../powerpc-eabi/include/stdint.h"
	.file 4 "c:/utils/devkitPro/libogc/include/gctypes.h"
	.file 5 "d:/Data/Nintendo/TenebraeGX/src/bspfile.h"
	.file 6 "d:/Data/Nintendo/TenebraeGX/src/zone.h"
	.file 7 "d:/Data/Nintendo/TenebraeGX/src/mathlib.h"
	.file 8 "d:/Data/Nintendo/TenebraeGX/src/quakedef.h"
	.file 9 "d:/Data/Nintendo/TenebraeGX/src/render.h"
	.file 10 "d:/Data/Nintendo/TenebraeGX/src/gl_model.h"
	.file 11 "d:/Data/Nintendo/TenebraeGX/src/glquake.h"
	.file 12 "d:/Data/Nintendo/TenebraeGX/src/modelgen.h"
	.file 13 "d:/Data/Nintendo/TenebraeGX/src/world.h"
	.file 14 "d:/Data/Nintendo/TenebraeGX/gl2gx/include/GL/gl.h"
	.file 15 "c:/utils/devkitPro/libogc/include/ogc/gu.h"
	.file 16 "c:/utils/devkitPro/libogc/include/ogc/gx.h"