	.file	"gl_rsurfgxext.c"
	.section	".text"
.Ltext0:
	.cfi_sections	.debug_frame
	.align 2
	.globl DrawTextureChainsGX
	.type	DrawTextureChainsGX, @function
DrawTextureChainsGX:
.LFB38:
	.file 1 "d:/Data/Nintendo/TenebraeGX/src/gl_rsurfgxext.c"
	.loc 1 26 0
	.cfi_startproc
.LVL0:
	stwu 1,-80(1)
.LCFI0:
	.cfi_def_cfa_offset 80
	mflr 0
	stw 20,32(1)
	.loc 1 41 0
	lis 20,cl@ha
	.cfi_offset 20, -48
	.cfi_register 65, 0
	la 20,cl@l(20)
	.loc 1 26 0
	stw 0,84(1)
	.loc 1 41 0
	lwz 9,2688(20)
	.loc 1 26 0
	stw 18,24(1)
	.loc 1 39 0
	lis 18,causticschain@ha
	.cfi_offset 18, -56
	.cfi_offset 65, 4
	.loc 1 41 0
	lwz 0,396(9)
	.loc 1 26 0
	stw 15,12(1)
	.loc 1 41 0
	cmpwi 7,0,0
	.loc 1 39 0
	li 0,0
	.loc 1 26 0
	stw 16,16(1)
	stw 17,20(1)
	stw 19,28(1)
	stw 21,36(1)
	stw 22,40(1)
	stw 23,44(1)
	stw 24,48(1)
	stw 25,52(1)
	stw 26,56(1)
	stw 27,60(1)
	stw 28,64(1)
	stw 29,68(1)
	stw 30,72(1)
	stw 31,76(1)
	.loc 1 39 0
	stw 0,causticschain@l(18)
.LVL1:
	.loc 1 41 0
	ble- 7,.L1
	.cfi_offset 31, -4
	.cfi_offset 30, -8
	.cfi_offset 29, -12
	.cfi_offset 28, -16
	.cfi_offset 27, -20
	.cfi_offset 26, -24
	.cfi_offset 25, -28
	.cfi_offset 24, -32
	.cfi_offset 23, -36
	.cfi_offset 22, -40
	.cfi_offset 21, -44
	.cfi_offset 19, -52
	.cfi_offset 17, -60
	.cfi_offset 16, -64
	.cfi_offset 15, -68
	li 29,0
	.loc 1 53 0
	lis 19,skytexturenum@ha
	lis 21,wgPipe@ha
	lis 15,lightmap_textures@ha
	lis 16,globalVertexTable@ha
	lis 17,c_brush_polys@ha
	b .L11
.LVL2:
.L3:
	.loc 1 41 0
	lwz 9,2688(20)
	addi 29,29,1
.LVL3:
	lwz 0,396(9)
	cmpw 7,0,29
	ble- 7,.L1
.LVL4:
.L11:
	.loc 1 43 0
	lwz 9,400(9)
	slwi 0,29,2
	lwzx 28,9,0
.LVL5:
	.loc 1 44 0
	cmpwi 7,28,0
	beq- 7,.L3
	.loc 1 47 0
	lwz 30,32(28)
.LVL6:
	.loc 1 48 0
	cmpwi 7,30,0
	beq- 7,.L3
.LVL7:
	.loc 1 53 0
	lwz 0,skytexturenum@l(19)
.LVL8:
	cmpw 7,29,0
	beq- 7,.L3
	.loc 1 58 0
	lwz 0,8(30)
	andi. 8,0,16
	bne+ 0,.L3
	.loc 1 62 0
	lwz 9,48(30)
	lwz 3,36(9)
	bl R_TextureAnimation
.LVL9:
	.loc 1 63 0
	lwz 4,24(3)
	li 3,0
.LVL10:
	bl GX_BindGLTex
	.loc 1 66 0
	lwz 4,28(28)
	cntlzw 24,4
	srwi 24,24,5
	xori 24,24,1
.LVL11:
	.loc 1 67 0
	cmpwi 7,24,0
	bne- 7,.L18
.L19:
	la 22,lightmap_textures@l(15)
	la 23,globalVertexTable@l(16)
	la 27,c_brush_polys@l(17)
.L14:
	.loc 1 74 0
	lwz 0,0(22)
	li 3,1
	lwz 4,60(30)
	add 4,4,0
	bl GX_BindGLTex
	.loc 1 75 0
	mr 3,24
	bl GX_InitAmbientShader
	.loc 1 77 0
	lwz 31,36(30)
.LVL12:
	.loc 1 80 0
	li 3,160
	li 4,1
	lhz 5,10(31)
	.loc 1 78 0
	lwz 26,0(23)
	lwz 25,24(31)
.LVL13:
	.loc 1 80 0
	bl GX_Begin
.LVL14:
	.loc 1 82 0
	lwz 0,8(31)
	cmpwi 7,0,0
	ble- 7,.L5
	.loc 1 78 0
	mulli 25,25,28
.LVL15:
.LBB19:
.LBB20:
	.file 2 "c:/utils/devkitPro/libogc/include/ogc/gx.h"
	.loc 2 2123 0
	lwz 9,wgPipe@l(21)
.LBE20:
.LBE19:
	.loc 1 82 0
	li 11,0
	.loc 1 78 0
	add 26,26,25
.LVL16:
.L6:
	.loc 1 83 0 discriminator 2
	lwz 8,0(26)
	lwz 10,4(26)
	lwz 0,8(26)
.LVL17:
.LBB22:
.LBB21:
	.loc 2 2123 0 discriminator 2
	stw 8,0(9)
	.loc 2 2124 0 discriminator 2
	.loc 2 2125 0 discriminator 2
	stw 10,0(9)
	.loc 2 2126 0 discriminator 2
	.loc 2 2127 0 discriminator 2
	stw 0,0(9)
	.loc 2 2128 0 discriminator 2
.LBE21:
.LBE22:
	.loc 1 84 0 discriminator 2
	lwz 10,12(26)
	lwz 0,16(26)
.LVL18:
.LBB23:
.LBB24:
	.loc 2 2323 0 discriminator 2
	stw 10,0(9)
	.loc 2 2324 0 discriminator 2
	.loc 2 2325 0 discriminator 2
	stw 0,0(9)
	.loc 2 2326 0 discriminator 2
.LBE24:
.LBE23:
	.loc 1 85 0 discriminator 2
	lwz 10,20(26)
	lwz 0,24(26)
.LVL19:
.LBB25:
.LBB26:
	.loc 2 2323 0 discriminator 2
	stw 10,0(9)
	.loc 2 2324 0 discriminator 2
	.loc 2 2325 0 discriminator 2
	stw 0,0(9)
	.loc 2 2326 0 discriminator 2
.LBE26:
.LBE25:
	.loc 1 82 0 discriminator 2
	lwz 0,8(31)
	addi 11,11,1
.LVL20:
	addi 26,26,28
.LVL21:
	cmpw 7,0,11
	bgt+ 7,.L6
.LVL22:
.L5:
	.loc 1 92 0
	lwz 30,40(30)
.LVL23:
	.loc 1 93 0
	lwz 9,0(27)
	.loc 1 73 0
	cmpwi 7,30,0
	.loc 1 93 0
	addi 0,9,1
	stw 0,0(27)
	.loc 1 73 0
	bne+ 7,.L14
	.loc 1 96 0
	lwz 9,32(28)
.LVL24:
	.loc 1 98 0
	lwz 10,causticschain@l(18)
	cmpwi 7,9,0
	beq- 7,.L8
.LVL25:
.L10:
.LBB27:
	.loc 1 103 0
	lwz 11,8(9)
	.loc 1 101 0
	lwz 0,40(9)
.LVL26:
	.loc 1 103 0
	andi. 8,11,128
.LBE27:
	.loc 1 98 0
	cmpwi 7,0,0
.LBB28:
	.loc 1 103 0
	beq- 0,.L9
	.loc 1 104 0
	stw 10,40(9)
	mr 10,9
.L9:
.LBE28:
	.loc 1 98 0 discriminator 1
	beq- 7,.L21
	.loc 1 98 0 is_stmt 0
	mr 9,0
.LVL27:
	b .L10
.LVL28:
.L21:
	stw 10,causticschain@l(18)
.LVL29:
.L8:
	.loc 1 41 0 is_stmt 1
	lwz 9,2688(20)
	.loc 1 111 0
	li 0,0
	stw 0,32(28)
	.loc 1 41 0
	addi 29,29,1
.LVL30:
	lwz 0,396(9)
	cmpw 7,0,29
	bgt+ 7,.L11
.LVL31:
.L1:
	.loc 1 113 0
	lwz 0,84(1)
	lwz 15,12(1)
	mtlr 0
	lwz 16,16(1)
	lwz 17,20(1)
	lwz 18,24(1)
	lwz 19,28(1)
	lwz 20,32(1)
	lwz 21,36(1)
	lwz 22,40(1)
	lwz 23,44(1)
	lwz 24,48(1)
	lwz 25,52(1)
	lwz 26,56(1)
	lwz 27,60(1)
	lwz 28,64(1)
	lwz 29,68(1)
	lwz 30,72(1)
	lwz 31,76(1)
	addi 1,1,80
	.cfi_remember_state
.LCFI1:
	.cfi_def_cfa_offset 0
	.cfi_restore 31
	.cfi_restore 30
	.cfi_restore 29
	.cfi_restore 28
	.cfi_restore 27
	.cfi_restore 26
	.cfi_restore 25
	.cfi_restore 24
	.cfi_restore 23
	.cfi_restore 22
	.cfi_restore 21
	.cfi_restore 20
	.cfi_restore 19
	.cfi_restore 18
	.cfi_restore 17
	.cfi_restore 16
	.cfi_restore 15
	blr
.LVL32:
.L18:
.LCFI2:
	.cfi_restore_state
	.loc 1 68 0
	li 3,2
	bl GX_BindGLTex
	b .L19
	.cfi_endproc
.LFE38:
	.size	DrawTextureChainsGX, .-DrawTextureChainsGX
	.align 2
	.globl R_RenderBrushPoly
	.type	R_RenderBrushPoly, @function
R_RenderBrushPoly:
.LFB39:
	.loc 1 124 0
	.cfi_startproc
.LVL33:
	mflr 0
	stwu 1,-24(1)
.LCFI3:
	.cfi_def_cfa_offset 24
	.cfi_register 65, 0
	stw 31,20(1)
	mr 31,3
	.cfi_offset 31, -4
	stw 0,28(1)
	stw 29,12(1)
	.loc 1 131 0
	lwz 0,8(3)
	.cfi_offset 29, -12
	.cfi_offset 65, 4
	.loc 1 124 0
	stw 30,16(1)
	.loc 1 131 0
	andi. 9,0,4
	bne- 0,.L29
	.cfi_offset 30, -8
	.loc 1 137 0
	lwz 9,48(3)
	lwz 3,36(9)
.LVL34:
	bl R_TextureAnimation
	.loc 1 138 0
	lwz 4,24(3)
	.loc 1 137 0
	mr 30,3
.LVL35:
	.loc 1 138 0
	li 3,0
.LVL36:
	bl GX_BindGLTex
	.loc 1 140 0
	lwz 0,8(31)
	andi. 9,0,16
	bne- 0,.L30
	.loc 1 147 0
	lwz 4,28(30)
	cntlzw 30,4
.LVL37:
	srwi 30,30,5
	xori 30,30,1
.LVL38:
	.loc 1 148 0
	cmpwi 7,30,0
	bne- 7,.L31
.L26:
	.loc 1 153 0
	lis 9,lightmap_textures@ha
	lwz 4,60(31)
	lwz 0,lightmap_textures@l(9)
	li 3,1
	add 4,4,0
	bl GX_BindGLTex
	.loc 1 154 0
	mr 3,30
	bl GX_InitAmbientShader
	.loc 1 156 0
	lwz 31,36(31)
.LVL39:
	.loc 1 157 0
	lis 9,globalVertexTable@ha
	.loc 1 159 0
	li 3,160
	lhz 5,10(31)
	li 4,1
	.loc 1 157 0
	lwz 30,globalVertexTable@l(9)
.LVL40:
	lwz 29,24(31)
.LVL41:
	.loc 1 159 0
	bl GX_Begin
.LVL42:
	.loc 1 161 0
	lwz 0,8(31)
	cmpwi 7,0,0
	ble- 7,.L22
	.loc 1 157 0
	mulli 29,29,28
.LVL43:
	lis 9,wgPipe@ha
.LBB29:
.LBB30:
	.loc 2 2123 0
	lwz 9,wgPipe@l(9)
.LBE30:
.LBE29:
	.loc 1 161 0
	li 11,0
	.loc 1 157 0
	add 30,30,29
.LVL44:
.L27:
	.loc 1 162 0 discriminator 2
	lwz 8,0(30)
	lwz 10,4(30)
	lwz 0,8(30)
.LVL45:
.LBB32:
.LBB31:
	.loc 2 2123 0 discriminator 2
	stw 8,0(9)
	.loc 2 2124 0 discriminator 2
	.loc 2 2125 0 discriminator 2
	stw 10,0(9)
	.loc 2 2126 0 discriminator 2
	.loc 2 2127 0 discriminator 2
	stw 0,0(9)
	.loc 2 2128 0 discriminator 2
.LBE31:
.LBE32:
	.loc 1 163 0 discriminator 2
	lwz 10,12(30)
	lwz 0,16(30)
.LVL46:
.LBB33:
.LBB34:
	.loc 2 2323 0 discriminator 2
	stw 10,0(9)
	.loc 2 2324 0 discriminator 2
	.loc 2 2325 0 discriminator 2
	stw 0,0(9)
	.loc 2 2326 0 discriminator 2
.LBE34:
.LBE33:
	.loc 1 164 0 discriminator 2
	lwz 10,20(30)
	lwz 0,24(30)
.LVL47:
.LBB35:
.LBB36:
	.loc 2 2323 0 discriminator 2
	stw 10,0(9)
	.loc 2 2324 0 discriminator 2
	.loc 2 2325 0 discriminator 2
	stw 0,0(9)
	.loc 2 2326 0 discriminator 2
.LBE36:
.LBE35:
	.loc 1 161 0 discriminator 2
	lwz 0,8(31)
	addi 11,11,1
.LVL48:
	addi 30,30,28
.LVL49:
	cmpw 7,0,11
	bgt+ 7,.L27
.LVL50:
.L22:
	.loc 1 169 0
	lwz 0,28(1)
	lwz 29,12(1)
	mtlr 0
	lwz 30,16(1)
	lwz 31,20(1)
.LVL51:
	addi 1,1,24
	.cfi_remember_state
.LCFI4:
	.cfi_def_cfa_offset 0
	.cfi_restore 31
	.cfi_restore 30
	.cfi_restore 29
	blr
.LVL52:
.L29:
.LCFI5:
	.cfi_restore_state
	.loc 1 133 0
	bl EmitBothSkyLayers
.LVL53:
	.loc 1 169 0
	lwz 0,28(1)
	lwz 29,12(1)
	mtlr 0
	lwz 30,16(1)
	lwz 31,20(1)
.LVL54:
	addi 1,1,24
	.cfi_remember_state
	.cfi_restore 29
	.cfi_restore 30
	.cfi_restore 31
.LCFI6:
	.cfi_def_cfa_offset 0
	blr
.LVL55:
.L30:
.LCFI7:
	.cfi_restore_state
	.loc 1 142 0
	mr 3,31
	bl EmitWaterPolys
	.loc 1 169 0
	lwz 0,28(1)
	lwz 29,12(1)
	mtlr 0
	lwz 30,16(1)
.LVL56:
	lwz 31,20(1)
.LVL57:
	addi 1,1,24
	.cfi_remember_state
	.cfi_restore 29
	.cfi_restore 30
	.cfi_restore 31
.LCFI8:
	.cfi_def_cfa_offset 0
	blr
.LVL58:
.L31:
.LCFI9:
	.cfi_restore_state
	.loc 1 149 0
	li 3,2
	bl GX_BindGLTex
	b .L26
	.cfi_endproc
.LFE39:
	.size	R_RenderBrushPoly, .-R_RenderBrushPoly
	.align 2
	.globl R_DrawBrushModel
	.type	R_DrawBrushModel, @function
R_DrawBrushModel:
.LFB40:
	.loc 1 181 0
	.cfi_startproc
.LVL59:
	mflr 0
	stwu 1,-112(1)
.LCFI10:
	.cfi_def_cfa_offset 112
	.cfi_register 65, 0
	.loc 1 194 0
	lis 9,.LC0@ha
	lfs 0,.LC0@l(9)
	.loc 1 189 0
	lis 9,currententity@ha
	.loc 1 181 0
	stw 0,116(1)
	.loc 1 190 0
	li 0,-1
	.cfi_offset 65, 4
	.loc 1 189 0
	stw 3,currententity@l(9)
	.loc 1 190 0
	lis 9,currenttexture@ha
	.loc 1 194 0
	lfs 13,148(3)
	.loc 1 181 0
	stw 30,80(1)
	.loc 1 194 0
	fcmpu 7,13,0
	.loc 1 181 0
	stw 31,84(1)
	stfd 29,88(1)
	mr 31,3
	.cfi_offset 61, -24
	.cfi_offset 31, -28
	.cfi_offset 30, -32
	stfd 30,96(1)
	stfd 31,104(1)
	stw 28,72(1)
	stw 29,76(1)
	.loc 1 190 0
	stw 0,currenttexture@l(9)
	.loc 1 192 0
	lwz 30,160(3)
.LVL60:
	.loc 1 194 0
	bne- 7,.L33
	.cfi_offset 29, -36
	.cfi_offset 28, -40
	.cfi_offset 63, -8
	.cfi_offset 62, -16
	.loc 1 194 0 is_stmt 0 discriminator 1
	lfs 13,152(3)
	fcmpu 7,13,0
	beq- 7,.L34
.L33:
	.loc 1 194 0 discriminator 2
	lfs 13,108(30)
	.loc 1 181 0 is_stmt 1 discriminator 2
	li 9,0
	addi 3,1,56
.LVL61:
	addi 4,1,44
.L35:
	.loc 1 180 0 discriminator 2
	add 11,31,9
	.loc 1 197 0 discriminator 2
	cmpwi 7,9,8
	.loc 1 199 0 discriminator 2
	lfs 0,112(11)
	fsubs 12,0,13
	.loc 1 200 0 discriminator 2
	fadds 0,0,13
	.loc 1 199 0 discriminator 2
	stfsx 12,3,9
	.loc 1 200 0 discriminator 2
	stfsx 0,4,9
	.loc 1 197 0 discriminator 2
	addi 9,9,4
	bne+ 7,.L35
	.loc 1 210 0
	bl R_CullBox
.LVL62:
	.loc 1 196 0
	li 29,1
.LVL63:
	.loc 1 210 0
	cmpwi 7,3,0
	beq- 7,.L45
.LVL64:
.L32:
	.loc 1 266 0
	lwz 0,116(1)
	lwz 28,72(1)
	mtlr 0
	lwz 29,76(1)
	lwz 30,80(1)
.LVL65:
	lwz 31,84(1)
.LVL66:
	lfd 29,88(1)
	lfd 30,96(1)
	lfd 31,104(1)
	addi 1,1,112
	.cfi_remember_state
.LCFI11:
	.cfi_def_cfa_offset 0
	.cfi_restore 63
	.cfi_restore 62
	.cfi_restore 61
	.cfi_restore 31
	.cfi_restore 30
	.cfi_restore 29
	.cfi_restore 28
	blr
.LVL67:
.L34:
.LCFI12:
	.cfi_restore_state
	.loc 1 194 0 discriminator 1
	lfs 13,156(3)
	fcmpu 7,13,0
	bne- 7,.L33
.LVL68:
	.loc 1 206 0
	lfs 12,112(3)
	addi 4,1,44
	lfs 13,116(3)
	.loc 1 205 0
	li 29,0
.LVL69:
	.loc 1 206 0
	lfs 0,120(3)
	addi 3,1,56
.LVL70:
	lfs 9,84(30)
	lfs 10,88(30)
	lfs 11,92(30)
	fadds 9,12,9
	.loc 1 207 0
	lfs 6,96(30)
	.loc 1 206 0
	fadds 10,13,10
	.loc 1 207 0
	lfs 7,100(30)
	.loc 1 206 0
	fadds 11,0,11
	.loc 1 207 0
	lfs 8,104(30)
	fadds 12,12,6
	fadds 13,13,7
	.loc 1 206 0
	stfs 9,56(1)
	.loc 1 207 0
	fadds 0,0,8
	.loc 1 206 0
	stfs 10,60(1)
	stfs 11,64(1)
	.loc 1 207 0
	stfs 12,44(1)
	stfs 13,48(1)
	stfs 0,52(1)
	.loc 1 210 0
	bl R_CullBox
	cmpwi 7,3,0
	bne+ 7,.L32
.LVL71:
.L45:
	.loc 1 213 0
	lis 3,lightmap_polys@ha
	li 4,0
	la 3,lightmap_polys@l(3)
	li 5,256
	bl memset
	.loc 1 215 0
	lis 9,r_refdef@ha
	la 9,r_refdef@l(9)
	lfs 12,112(31)
	lfs 30,112(9)
	.loc 1 216 0
	cmpwi 7,29,0
	.loc 1 215 0
	lfs 29,116(9)
	lis 28,modelorg@ha
	lfs 13,116(31)
	fsubs 30,30,12
	lfs 31,120(9)
	la 29,modelorg@l(28)
	lfs 0,120(31)
	fsubs 29,29,13
	stfs 30,modelorg@l(28)
	fsubs 31,31,0
	stfs 29,4(29)
	stfs 31,8(29)
	.loc 1 216 0
	bne- 7,.L46
.L39:
	.loc 1 228 0
	lwz 28,208(30)
	lwz 29,140(30)
.LVL72:
	.loc 1 230 0
	bl glPushMatrix
.LVL73:
	.loc 1 231 0
	lfs 0,148(31)
	.loc 1 232 0
	mr 3,31
	.loc 1 231 0
	fneg 0,0
	stfs 0,148(31)
	.loc 1 232 0
	bl R_RotateForEntity
	.loc 1 233 0
	lfs 0,148(31)
	fneg 0,0
	stfs 0,148(31)
	.loc 1 236 0
	bl GX_LoadGLModelView
	.loc 1 252 0
	lwz 0,144(30)
	lis 9,c_brush_polys@ha
	.loc 1 256 0
	cmpwi 7,0,0
	.loc 1 252 0
	lwz 11,c_brush_polys@l(9)
	add 0,0,11
	stw 0,c_brush_polys@l(9)
.LVL74:
	.loc 1 256 0
	ble- 7,.L40
	.loc 1 228 0
	mulli 31,29,92
.LVL75:
	.loc 1 256 0
	li 29,0
.LVL76:
	.loc 1 228 0
	add 31,28,31
.LVL77:
.L41:
	.loc 1 261 0 discriminator 2
	mr 3,31
	.loc 1 256 0 discriminator 2
	addi 29,29,1
	.loc 1 261 0 discriminator 2
	bl R_RenderBrushPoly
.LVL78:
	.loc 1 256 0 discriminator 2
	lwz 0,144(30)
	addi 31,31,92
.LVL79:
	cmpw 7,0,29
	bgt+ 7,.L41
.LVL80:
.L40:
	.loc 1 264 0
	bl glPopMatrix
	.loc 1 266 0
	lwz 0,116(1)
	lwz 28,72(1)
	mtlr 0
	lwz 29,76(1)
	lwz 30,80(1)
.LVL81:
	lwz 31,84(1)
	lfd 29,88(1)
	lfd 30,96(1)
	lfd 31,104(1)
	addi 1,1,112
	.cfi_remember_state
	.cfi_restore 28
	.cfi_restore 29
	.cfi_restore 30
	.cfi_restore 31
	.cfi_restore 61
	.cfi_restore 62
	.cfi_restore 63
.LCFI13:
	.cfi_def_cfa_offset 0
	blr
.LVL82:
.L46:
.LCFI14:
	.cfi_restore_state
.LBB37:
	.loc 1 222 0
	addi 3,31,148
	addi 4,1,32
	addi 5,1,20
	addi 6,1,8
	bl AngleVectors
	.loc 1 223 0
	lfs 13,36(1)
	.loc 1 225 0
	lfs 12,12(1)
	.loc 1 224 0
	lfs 0,24(1)
	.loc 1 223 0
	fmuls 13,29,13
	.loc 1 224 0
	fmuls 0,29,0
	.loc 1 225 0
	fmuls 29,29,12
.LVL83:
	.loc 1 223 0
	lfs 12,32(1)
	fmadds 13,30,12,13
	.loc 1 224 0
	lfs 12,20(1)
	fmadds 0,30,12,0
	.loc 1 225 0
	lfs 12,8(1)
	fmadds 30,30,12,29
.LVL84:
	.loc 1 223 0
	lfs 12,40(1)
	fmadds 13,31,12,13
	.loc 1 224 0
	lfs 12,28(1)
	fnmadds 0,31,12,0
	.loc 1 225 0
	lfs 12,16(1)
	.loc 1 223 0
	stfs 13,modelorg@l(28)
	.loc 1 225 0
	fmadds 31,31,12,30
.LVL85:
	.loc 1 224 0
	stfs 0,4(29)
	.loc 1 225 0
	stfs 31,8(29)
	b .L39
.LBE37:
	.cfi_endproc
.LFE40:
	.size	R_DrawBrushModel, .-R_DrawBrushModel
	.comm	causticschain,4,4
	.section	.rodata.cst4,"aM",@progbits,4
	.align 2
.LC0:
	.4byte	0
	.section	".text"
.Letext0:
	.file 3 "d:/Data/Nintendo/TenebraeGX/src/common.h"
	.file 4 "d:/Data/Nintendo/TenebraeGX/src/bspfile.h"
	.file 5 "d:/Data/Nintendo/TenebraeGX/src/vid.h"
	.file 6 "d:/Data/Nintendo/TenebraeGX/src/zone.h"
	.file 7 "d:/Data/Nintendo/TenebraeGX/src/mathlib.h"
	.file 8 "d:/Data/Nintendo/TenebraeGX/src/quakedef.h"
	.file 9 "d:/Data/Nintendo/TenebraeGX/src/sound.h"
	.file 10 "d:/Data/Nintendo/TenebraeGX/src/render.h"
	.file 11 "d:/Data/Nintendo/TenebraeGX/src/gl_model.h"
	.file 12 "d:/Data/Nintendo/TenebraeGX/src/glquake.h"
	.file 13 "d:/Data/Nintendo/TenebraeGX/src/client.h"
	.file 14 "d:/Data/Nintendo/TenebraeGX/src/modelgen.h"
	.file 15 "d:/Data/Nintendo/TenebraeGX/src/world.h"
	.file 16 "c:/utils/devkitPro/libogc/include/gctypes.h"