	.file	"gl_refrag.c"
	.section	".text"
.Ltext0:
	.cfi_sections	.debug_frame
	.align 2
	.globl R_RemoveEfrags
	.type	R_RemoveEfrags, @function
R_RemoveEfrags:
.LFB38:
	.file 1 "d:/Data/Nintendo/TenebraeGX/src/gl_refrag.c"
	.loc 1 52 0
	.cfi_startproc
.LVL0:
	.loc 1 55 0
	lwz 11,164(3)
.LVL1:
	.loc 1 57 0
	cmpwi 7,11,0
	beq- 7,.L2
	lis 8,cl@ha
	la 8,cl@l(8)
.LVL2:
.L8:
	.loc 1 59 0
	lwz 10,0(11)
.LVL3:
	.loc 1 62 0
	lwz 9,40(10)
.LVL4:
	.loc 1 63 0
	cmpwi 7,9,0
	beq- 7,.L3
.LVL5:
	.loc 1 65 0
	cmpw 7,9,11
	.loc 1 59 0
	addi 10,10,40
	.loc 1 65 0
	bne+ 7,.L10
	b .L5
.LVL6:
.L7:
	beq- 6,.L5
.L10:
	.loc 1 71 0
	addi 10,9,4
	.loc 1 62 0
	lwz 9,4(9)
.LVL7:
	.loc 1 63 0
	cmpwi 7,9,0
	.loc 1 65 0
	cmpw 6,9,11
	.loc 1 63 0
	bne+ 7,.L7
.LVL8:
.L3:
	.loc 1 75 0
	lwz 0,12(11)
.LVL9:
	.loc 1 78 0
	lwz 9,2692(8)
.LVL10:
	.loc 1 57 0
	cmpwi 7,0,0
	.loc 1 78 0
	stw 9,12(11)
	.loc 1 79 0
	stw 11,2692(8)
	.loc 1 57 0
	beq- 7,.L2
.LVL11:
.L9:
	.loc 1 75 0
	mr 11,0
.LVL12:
	b .L8
.LVL13:
.L5:
	.loc 1 67 0
	lwz 0,4(11)
	stw 0,0(10)
.LVL14:
	.loc 1 75 0
	lwz 0,12(11)
.LVL15:
	.loc 1 78 0
	lwz 9,2692(8)
.LVL16:
	.loc 1 57 0
	cmpwi 7,0,0
	.loc 1 78 0
	stw 9,12(11)
	.loc 1 79 0
	stw 11,2692(8)
	.loc 1 57 0
	bne+ 7,.L9
.LVL17:
.L2:
	.loc 1 82 0
	li 0,0
	.loc 1 83 0
	.loc 1 82 0
	stw 0,164(3)
	.loc 1 83 0
	blr
	.cfi_endproc
.LFE38:
	.size	R_RemoveEfrags, .-R_RemoveEfrags
	.align 2
	.globl R_SplitEntityOnNode
	.type	R_SplitEntityOnNode, @function
R_SplitEntityOnNode:
.LFB39:
	.loc 1 91 0
	.cfi_startproc
.LVL18:
	mflr 0
	stwu 1,-32(1)
.LCFI0:
	.cfi_def_cfa_offset 32
	.cfi_register 65, 0
	stw 31,28(1)
	mr 31,3
	.cfi_offset 31, -4
	stw 0,36(1)
	stw 27,12(1)
	.loc 1 97 0
	lwz 0,0(3)
	.cfi_offset 27, -20
	.cfi_offset 65, 4
	.loc 1 91 0
	stw 28,16(1)
	.loc 1 97 0
	cmpwi 7,0,-2
	.loc 1 91 0
	stw 29,20(1)
	stw 30,24(1)
	.loc 1 97 0
	beq- 7,.L13
	.cfi_offset 30, -8
	.cfi_offset 29, -12
	.cfi_offset 28, -16
	.loc 1 104 0
	cmpwi 7,0,0
	blt- 7,.L15
	lis 30,r_emins@ha
	.loc 1 138 0
	lis 29,r_emaxs@ha
	la 30,r_emins@l(30)
	.loc 1 144 0
	lis 28,r_pefragtopnode@ha
	.loc 1 138 0
	la 29,r_emaxs@l(29)
	b .L17
.LVL19:
.L27:
	.loc 1 150 0
	lwz 3,40(31)
	bl R_SplitEntityOnNode
	.loc 1 152 0
	cmpwi 7,27,0
	beq- 7,.L13
.L30:
	.loc 1 153 0
	lwz 31,44(31)
	.loc 1 97 0
	lwz 0,0(31)
	cmpwi 7,0,-2
	beq- 7,.L13
	.loc 1 104 0
	cmpwi 7,0,0
	blt- 7,.L15
.LVL20:
.L17:
	.loc 1 137 0
	lwz 5,36(31)
.LVL21:
	.loc 1 138 0
	lbz 0,16(5)
	cmplwi 7,0,2
	bgt- 7,.L20
	.loc 1 138 0 is_stmt 0 discriminator 1
	slwi 0,0,2
	lfs 0,12(5)
	lfsx 13,30,0
	li 27,0
	fcmpu 7,0,13
	cror 30,28,30
	beq- 7,.L27
	.loc 1 138 0 discriminator 2
	lfsx 13,29,0
	fcmpu 7,0,13
	cror 30,29,30
	beq- 7,.L30
.LVL22:
.L22:
	.loc 1 144 0 is_stmt 1
	lwz 0,r_pefragtopnode@l(28)
	cmpwi 7,0,0
	beq- 7,.L33
	.loc 1 91 0
	li 27,2
	b .L27
.LVL23:
.L20:
	.loc 1 138 0 discriminator 2
	mr 3,30
	mr 4,29
	bl BoxOnPlaneSide
.LVL24:
	.loc 1 140 0 discriminator 2
	cmpwi 7,3,3
	beq- 7,.L22
	.loc 1 149 0
	andi. 0,3,1
	.loc 1 140 0
	rlwinm 27,3,0,30,30
	.loc 1 149 0
	bne- 0,.L27
	.loc 1 152 0
	cmpwi 7,27,0
	bne+ 7,.L30
.LVL25:
.L13:
	.loc 1 154 0
	lwz 0,36(1)
	lwz 27,12(1)
	mtlr 0
	lwz 28,16(1)
	lwz 29,20(1)
	lwz 30,24(1)
	lwz 31,28(1)
	addi 1,1,32
	.cfi_remember_state
.LCFI1:
	.cfi_def_cfa_offset 0
	.cfi_restore 31
	.cfi_restore 30
	.cfi_restore 29
	.cfi_restore 28
	.cfi_restore 27
	blr
.L33:
.LCFI2:
	.cfi_restore_state
	.loc 1 145 0
	stw 31,r_pefragtopnode@l(28)
	.loc 1 91 0
	li 27,2
	b .L27
.L15:
	.loc 1 106 0
	lis 9,r_pefragtopnode@ha
	lwz 0,r_pefragtopnode@l(9)
	cmpwi 7,0,0
	beq- 7,.L34
.L18:
.LVL26:
	.loc 1 112 0
	lis 11,cl@ha
	la 11,cl@l(11)
	lwz 9,2692(11)
.LVL27:
	.loc 1 113 0
	cmpwi 7,9,0
	beq- 7,.L35
	.loc 1 123 0
	lis 10,lastlink@ha
	.loc 1 120 0
	lis 8,r_addent@ha
	.loc 1 118 0
	lwz 7,12(9)
	.loc 1 120 0
	lwz 0,r_addent@l(8)
	.loc 1 123 0
	lwz 8,lastlink@l(10)
	.loc 1 118 0
	stw 7,2692(11)
	.loc 1 124 0
	addi 11,9,12
.LVL28:
	.loc 1 120 0
	stw 0,8(9)
	.loc 1 123 0
	stw 9,0(8)
	.loc 1 124 0
	stw 11,lastlink@l(10)
	.loc 1 125 0
	li 11,0
	.loc 1 129 0
	lwz 0,40(31)
	.loc 1 154 0
	lwz 27,12(1)
	.loc 1 129 0
	stw 0,4(9)
	.loc 1 154 0
	lwz 0,36(1)
	.loc 1 128 0
	stw 31,0(9)
	.loc 1 154 0
	mtlr 0
	.loc 1 125 0
	stw 11,12(9)
	.loc 1 154 0
	lwz 28,16(1)
	.loc 1 130 0
	stw 9,40(31)
	.loc 1 154 0
	lwz 29,20(1)
	lwz 30,24(1)
	lwz 31,28(1)
.LVL29:
	addi 1,1,32
	.cfi_remember_state
	.cfi_restore 27
	.cfi_restore 28
	.cfi_restore 29
	.cfi_restore 30
	.cfi_restore 31
.LCFI3:
	.cfi_def_cfa_offset 0
	blr
.LVL30:
.L34:
.LCFI4:
	.cfi_restore_state
	.loc 1 107 0
	stw 31,r_pefragtopnode@l(9)
	b .L18
.LVL31:
.L35:
	.loc 1 115 0
	lis 3,.LC0@ha
	la 3,.LC0@l(3)
	crxor 6,6,6
	bl Con_Printf
.LVL32:
	.loc 1 116 0
	b .L13
	.cfi_endproc
.LFE39:
	.size	R_SplitEntityOnNode, .-R_SplitEntityOnNode
	.align 2
	.globl R_AddEfrags
	.type	R_AddEfrags, @function
R_AddEfrags:
.LFB40:
	.loc 1 164 0
	.cfi_startproc
.LVL33:
	mflr 0
	stwu 1,-16(1)
.LCFI5:
	.cfi_def_cfa_offset 16
	.cfi_register 65, 0
	stw 31,12(1)
	mr 31,3
	.cfi_offset 31, -4
	stw 0,20(1)
	stw 30,8(1)
	.loc 1 168 0
	lwz 11,160(3)
	cmpwi 7,11,0
	beq- 7,.L40
	.cfi_offset 30, -8
	.cfi_offset 65, 4
.LVL34:
.L37:
	.loc 1 175 0
	lis 9,r_addent@ha
	.loc 1 177 0
	addi 0,31,164
	.loc 1 175 0
	stw 31,r_addent@l(9)
	.loc 1 177 0
	lis 9,lastlink@ha
	stw 0,lastlink@l(9)
	.loc 1 178 0
	lis 30,r_pefragtopnode@ha
	li 0,0
	lis 7,r_emins@ha
	lis 8,r_emaxs@ha
	stw 0,r_pefragtopnode@l(30)
.LVL35:
	li 9,0
	la 7,r_emins@l(7)
	la 8,r_emaxs@l(8)
.LVL36:
.L38:
	.loc 1 163 0 discriminator 2
	add 10,31,9
	.loc 1 184 0 discriminator 2
	lfs 13,84(11)
	lfs 0,112(10)
	.loc 1 182 0 discriminator 2
	cmpwi 7,9,8
	.loc 1 185 0 discriminator 2
	lfs 12,96(11)
	addi 11,11,4
	.loc 1 184 0 discriminator 2
	fadds 13,0,13
	.loc 1 185 0 discriminator 2
	fadds 0,0,12
	.loc 1 184 0 discriminator 2
	stfsx 13,7,9
	.loc 1 185 0 discriminator 2
	stfsx 0,8,9
	.loc 1 182 0 discriminator 2
	addi 9,9,4
	bne+ 7,.L38
	.loc 1 188 0
	lis 9,cl+2688@ha
	lwz 9,cl+2688@l(9)
	lwz 3,192(9)
	bl R_SplitEntityOnNode
	.loc 1 190 0
	lwz 0,r_pefragtopnode@l(30)
	.loc 1 191 0
	lwz 30,8(1)
	.loc 1 190 0
	stw 0,208(31)
	.loc 1 191 0
	lwz 0,20(1)
	lwz 31,12(1)
.LVL37:
	mtlr 0
	addi 1,1,16
	.cfi_remember_state
.LCFI6:
	.cfi_def_cfa_offset 0
	.cfi_restore 31
	.cfi_restore 30
	blr
.LVL38:
.L40:
.LCFI7:
	.cfi_restore_state
	.loc 1 169 0
	lis 3,.LC1@ha
.LVL39:
	la 3,.LC1@l(3)
	crxor 6,6,6
	bl Sys_Error
	lwz 11,160(31)
	b .L37
	.cfi_endproc
.LFE40:
	.size	R_AddEfrags, .-R_AddEfrags
	.align 2
	.globl R_StoreEfrags
	.type	R_StoreEfrags, @function
R_StoreEfrags:
.LFB41:
	.loc 1 206 0
	.cfi_startproc
.LVL40:
	mflr 0
	stwu 1,-32(1)
.LCFI8:
	.cfi_def_cfa_offset 32
	.cfi_register 65, 0
	stw 27,12(1)
	.loc 1 234 0
	lis 27,cl_visedicts@ha
	.cfi_offset 27, -20
	.loc 1 206 0
	stw 30,24(1)
	.loc 1 244 0
	lis 30,.LC2@ha
	.cfi_offset 30, -8
	.loc 1 206 0
	stw 0,36(1)
	.loc 1 244 0
	la 30,.LC2@l(30)
	.loc 1 206 0
	stw 28,16(1)
	.loc 1 234 0
	la 27,cl_visedicts@l(27)
	.loc 1 206 0
	stw 29,20(1)
	.loc 1 231 0
	lis 28,r_framecount@ha
	.cfi_offset 29, -12
	.cfi_offset 28, -16
	.cfi_offset 65, 4
	.loc 1 206 0
	stw 31,28(1)
	.loc 1 232 0
	lis 29,cl_numvisedicts@ha
	.loc 1 206 0
	mr 31,3
	.cfi_offset 31, -4
.LVL41:
.L49:
	.loc 1 212 0 discriminator 1
	lwz 9,0(31)
.LVL42:
	.loc 1 244 0 discriminator 1
	mr 3,30
	.loc 1 212 0 discriminator 1
	cmpwi 7,9,0
	beq- 7,.L50
.LVL43:
.L48:
	.loc 1 214 0
	lwz 11,8(9)
.LVL44:
	.loc 1 215 0
	lwz 10,160(11)
.LVL45:
	.loc 1 218 0
	cmpwi 7,10,0
	beq- 7,.L51
.L43:
	.loc 1 222 0
	lwz 4,68(10)
	cmplwi 7,4,2
	ble- 7,.L52
	.loc 1 244 0
	crxor 6,6,6
	bl Sys_Error
.LVL46:
	.loc 1 212 0
	lwz 9,0(31)
.LVL47:
	.loc 1 244 0
	mr 3,30
	.loc 1 212 0
	cmpwi 7,9,0
	bne+ 7,.L48
.LVL48:
.L50:
	.loc 1 247 0
	lwz 0,36(1)
	lwz 27,12(1)
	mtlr 0
	lwz 28,16(1)
	lwz 29,20(1)
	lwz 30,24(1)
	lwz 31,28(1)
.LVL49:
	addi 1,1,32
	.cfi_remember_state
.LCFI9:
	.cfi_def_cfa_offset 0
	.cfi_restore 31
	.cfi_restore 30
	.cfi_restore 29
	.cfi_restore 28
	.cfi_restore 27
	blr
.LVL50:
.L52:
.LCFI10:
	.cfi_restore_state
	.loc 1 231 0
	lwz 10,188(11)
.LVL51:
	.loc 1 240 0
	addi 31,9,4
.LVL52:
	.loc 1 231 0
	lwz 0,r_framecount@l(28)
	cmpw 7,10,0
	beq- 7,.L49
	.loc 1 232 0 discriminator 1
	lwz 9,cl_numvisedicts@l(29)
.LVL53:
	.loc 1 231 0 discriminator 1
	cmpwi 7,9,255
	.loc 1 234 0 discriminator 1
	slwi 10,9,2
	addi 9,9,1
	.loc 1 231 0 discriminator 1
	bgt- 7,.L49
	.loc 1 234 0
	stwx 11,27,10
	stw 9,cl_numvisedicts@l(29)
	.loc 1 237 0
	stw 0,188(11)
.LVL54:
	.loc 1 241 0
	b .L49
.LVL55:
.L51:
	.loc 1 219 0
	addi 31,9,4
.LVL56:
	b .L43
	.cfi_endproc
.LFE41:
	.size	R_StoreEfrags, .-R_StoreEfrags
	.align 2
	.globl R_SplitEntityOnNodePenta
	.type	R_SplitEntityOnNodePenta, @function
R_SplitEntityOnNodePenta:
.LFB42:
	.loc 1 301 0
	.cfi_startproc
.LVL57:
	mflr 0
	stwu 1,-32(1)
.LCFI11:
	.cfi_def_cfa_offset 32
	.cfi_register 65, 0
	stw 28,16(1)
	mr 28,3
	.cfi_offset 28, -16
	stw 0,36(1)
	stw 31,28(1)
	mr 31,4
	.cfi_offset 31, -4
	.cfi_offset 65, 4
	.loc 1 307 0
	lwz 0,0(4)
	.loc 1 301 0
	stw 27,12(1)
	.loc 1 307 0
	cmpwi 7,0,-2
	.loc 1 301 0
	stw 29,20(1)
	stw 30,24(1)
	.loc 1 307 0
	beq- 7,.L53
	.cfi_offset 30, -8
	.cfi_offset 29, -12
	.cfi_offset 27, -20
	.loc 1 312 0
	cmpwi 7,0,0
	blt- 7,.L55
	lis 30,r_emins@ha
	.loc 1 330 0
	lis 29,r_emaxs@ha
	la 30,r_emins@l(30)
	la 29,r_emaxs@l(29)
	b .L57
.LVL58:
.L64:
	.loc 1 334 0
	lwz 4,40(31)
	mr 3,28
	bl R_SplitEntityOnNodePenta
	.loc 1 336 0
	cmpwi 7,27,0
	beq- 7,.L53
.L60:
	.loc 1 337 0
	lwz 31,44(31)
	.loc 1 307 0
	lwz 0,0(31)
	cmpwi 7,0,-2
	beq- 7,.L53
	.loc 1 312 0
	cmpwi 7,0,0
	blt- 7,.L55
.LVL59:
.L57:
	.loc 1 329 0
	lwz 5,36(31)
.LVL60:
	.loc 1 330 0
	lbz 0,16(5)
	cmplwi 7,0,2
	bgt- 7,.L58
	.loc 1 330 0 is_stmt 0 discriminator 1
	slwi 0,0,2
	lfs 0,12(5)
	lfsx 13,30,0
	li 27,0
	fcmpu 7,0,13
	cror 30,28,30
	beq- 7,.L64
	.loc 1 330 0 discriminator 2
	lfsx 13,29,0
	fcmpu 7,0,13
	cror 30,29,30
	beq- 7,.L60
	.loc 1 330 0
	li 27,2
	b .L64
.L58:
	.loc 1 330 0 discriminator 2
	mr 3,30
	mr 4,29
	bl BoxOnPlaneSide
.LVL61:
	.loc 1 333 0 is_stmt 1 discriminator 2
	andi. 0,3,1
	rlwinm 27,3,0,30,30
	bne- 0,.L64
	.loc 1 336 0
	cmpwi 7,27,0
	bne+ 7,.L60
.LVL62:
.L53:
	.loc 1 338 0
	lwz 0,36(1)
	lwz 27,12(1)
	mtlr 0
	lwz 28,16(1)
.LVL63:
	lwz 29,20(1)
	lwz 30,24(1)
	lwz 31,28(1)
	addi 1,1,32
	.cfi_remember_state
.LCFI12:
	.cfi_def_cfa_offset 0
	.cfi_restore 31
	.cfi_restore 30
	.cfi_restore 29
	.cfi_restore 28
	.cfi_restore 27
	blr
.LVL64:
.L55:
.LCFI13:
	.cfi_restore_state
	.loc 1 314 0
	lwz 9,268(28)
	cmpwi 7,9,128
	beq- 7,.L53
.LVL65:
	.loc 1 320 0
	lis 11,cl+2688@ha
	.loc 1 322 0
	addi 0,9,136
	.loc 1 320 0
	lwz 11,cl+2688@l(11)
	.loc 1 322 0
	slwi 0,0,1
	.loc 1 323 0
	addi 9,9,1
	.loc 1 338 0
	lwz 27,12(1)
	.loc 1 320 0
	lwz 11,168(11)
	.loc 1 338 0
	lwz 29,20(1)
	.loc 1 320 0
	subf 11,11,31
	.loc 1 323 0
	stw 9,268(28)
	.loc 1 320 0
	srawi 11,11,6
	.loc 1 338 0
	lwz 30,24(1)
	.loc 1 320 0
	addi 11,11,-1
	.loc 1 338 0
	lwz 31,28(1)
.LVL66:
	.loc 1 322 0
	sthx 11,28,0
	.loc 1 338 0
	lwz 0,36(1)
	lwz 28,16(1)
.LVL67:
	mtlr 0
	addi 1,1,32
	.cfi_restore 27
	.cfi_restore 28
	.cfi_restore 29
	.cfi_restore 30
	.cfi_restore 31
.LCFI14:
	.cfi_def_cfa_offset 0
	blr
	.cfi_endproc
.LFE42:
	.size	R_SplitEntityOnNodePenta, .-R_SplitEntityOnNodePenta
	.align 2
	.globl R_FillEntityLeafs
	.type	R_FillEntityLeafs, @function
R_FillEntityLeafs:
.LFB43:
	.loc 1 347 0
	.cfi_startproc
.LVL68:
	mflr 0
	stwu 1,-16(1)
.LCFI15:
	.cfi_def_cfa_offset 16
	.cfi_register 65, 0
	stw 31,12(1)
	mr 31,3
	.cfi_offset 31, -4
	stw 0,20(1)
	.loc 1 351 0
	lwz 8,160(3)
	cmpwi 7,8,0
	beq- 7,.L67
	.cfi_offset 65, 4
	.loc 1 354 0
	lis 9,cl_entities@ha
	la 0,cl_entities@l(9)
	cmpw 7,3,0
	beq- 7,.L67
	.loc 1 357 0
	lis 9,r_addent@ha
	lis 11,r_emins@ha
	stw 3,r_addent@l(9)
.LVL69:
	lis 9,r_emaxs@ha
	li 10,0
	la 11,r_emins@l(11)
	la 9,r_emaxs@l(9)
.LVL70:
.L69:
	.loc 1 346 0 discriminator 2
	add 7,31,10
	.loc 1 363 0 discriminator 2
	lfs 13,84(8)
	lfs 0,112(7)
	.loc 1 361 0 discriminator 2
	cmpwi 7,10,8
	.loc 1 364 0 discriminator 2
	lfs 12,96(8)
	addi 8,8,4
	.loc 1 363 0 discriminator 2
	fadds 13,0,13
	.loc 1 364 0 discriminator 2
	fadds 0,0,12
	.loc 1 363 0 discriminator 2
	stfsx 13,11,10
	.loc 1 364 0 discriminator 2
	stfsx 0,9,10
	.loc 1 361 0 discriminator 2
	addi 10,10,4
	bne+ 7,.L69
	.loc 1 368 0
	lis 10,.LC3@ha
	.loc 1 371 0
	lfs 12,0(9)
	.loc 1 368 0
	lfs 0,.LC3@l(10)
	.loc 1 376 0
	lis 10,cl+2688@ha
	.loc 1 372 0
	lfs 13,4(9)
	.loc 1 375 0
	li 0,0
	.loc 1 373 0
	lfs 8,8(9)
	.loc 1 371 0
	fadds 12,12,0
	.loc 1 368 0
	lfs 9,0(11)
	.loc 1 372 0
	fadds 13,13,0
	.loc 1 369 0
	lfs 10,4(11)
	.loc 1 376 0
	mr 3,31
.LVL71:
	.loc 1 370 0
	lfs 11,8(11)
	.loc 1 368 0
	fsubs 9,9,0
	.loc 1 369 0
	fsubs 10,10,0
	.loc 1 376 0
	lwz 10,cl+2688@l(10)
	.loc 1 370 0
	fsubs 11,11,0
	.loc 1 375 0
	stw 0,268(31)
	.loc 1 373 0
	fadds 0,8,0
	.loc 1 371 0
	stfs 12,0(9)
	.loc 1 372 0
	stfs 13,4(9)
	.loc 1 376 0
	lwz 4,192(10)
	.loc 1 373 0
	stfs 0,8(9)
	.loc 1 368 0
	stfs 9,0(11)
	.loc 1 369 0
	stfs 10,4(11)
	.loc 1 370 0
	stfs 11,8(11)
	.loc 1 376 0
	bl R_SplitEntityOnNodePenta
.LVL72:
	.loc 1 378 0
	lis 9,r_pefragtopnode@ha
	lwz 0,r_pefragtopnode@l(9)
	stw 0,208(31)
.L67:
	.loc 1 379 0
	lwz 0,20(1)
	lwz 31,12(1)
.LVL73:
	mtlr 0
	addi 1,1,16
.LCFI16:
	.cfi_def_cfa_offset 0
	.cfi_restore 31
	blr
	.cfi_endproc
.LFE43:
	.size	R_FillEntityLeafs, .-R_FillEntityLeafs
	.comm	r_addent,4,4
	.comm	r_emaxs,12,4
	.comm	r_emins,12,4
	.comm	lastlink,4,4
	.comm	r_pefragtopnode,4,4
	.comm	causticschain,4,4
	.section	.rodata.cst4,"aM",@progbits,4
	.align 2
.LC3:
	.4byte	1084227584
	.section	.rodata.str1.4,"aMS",@progbits,1
	.align 2
.LC0:
	.string	"Too many efrags!\n"
	.zero	2
.LC1:
	.string	"Ent with NULL model\n"
	.zero	3
.LC2:
	.string	"R_StoreEfrags: Bad entity type %d\n"
	.section	".text"
.Letext0:
	.file 2 "d:/Data/Nintendo/TenebraeGX/src/common.h"
	.file 3 "d:/Data/Nintendo/TenebraeGX/src/bspfile.h"
	.file 4 "d:/Data/Nintendo/TenebraeGX/src/zone.h"
	.file 5 "d:/Data/Nintendo/TenebraeGX/src/mathlib.h"
	.file 6 "d:/Data/Nintendo/TenebraeGX/src/quakedef.h"
	.file 7 "d:/Data/Nintendo/TenebraeGX/src/sound.h"
	.file 8 "d:/Data/Nintendo/TenebraeGX/src/render.h"
	.file 9 "d:/Data/Nintendo/TenebraeGX/src/gl_model.h"
	.file 10 "d:/Data/Nintendo/TenebraeGX/src/glquake.h"
	.file 11 "d:/Data/Nintendo/TenebraeGX/src/client.h"
	.file 12 "d:/Data/Nintendo/TenebraeGX/src/modelgen.h"
	.file 13 "d:/Data/Nintendo/TenebraeGX/src/world.h"
	.file 14 "c:/utils/devkitPro/libogc/include/ogc/gx.h"