	.file	"gl_rsurf.c"
	.section	".text"
.Ltext0:
	.cfi_sections	.debug_frame
	.align 2
	.globl R_GetNextVertexIndex
	.type	R_GetNextVertexIndex, @function
R_GetNextVertexIndex:
.LFB38:
	.file 1 "d:/Data/Nintendo/TenebraeGX/src/gl_rsurf.c"
	.loc 1 75 0
	.cfi_startproc
	.loc 1 76 0
	lis 9,numTempVertices@ha
	.loc 1 77 0
	lwz 3,numTempVertices@l(9)
	blr
	.cfi_endproc
.LFE38:
	.size	R_GetNextVertexIndex, .-R_GetNextVertexIndex
	.align 2
	.globl R_AllocateVertexInTemp
	.type	R_AllocateVertexInTemp, @function
R_AllocateVertexInTemp:
.LFB39:
	.loc 1 81 0
	.cfi_startproc
.LVL0:
	stwu 1,-40(1)
.LCFI0:
	.cfi_def_cfa_offset 40
	mflr 0
	stw 30,32(1)
	.loc 1 87 0
	lis 30,tempVertices@ha
	.cfi_offset 30, -8
	.cfi_register 65, 0
	.loc 1 81 0
	stw 0,44(1)
	.loc 1 87 0
	lwz 0,tempVertices@l(30)
	.cfi_offset 65, 4
	.loc 1 81 0
	stw 26,16(1)
	mr 26,4
	.cfi_offset 26, -24
	.loc 1 87 0
	cmpwi 7,0,0
	.loc 1 81 0
	stw 27,20(1)
	stw 31,36(1)
	mr 27,5
	.cfi_offset 31, -4
	.cfi_offset 27, -20
	stw 24,8(1)
	mr 31,3
	stw 25,12(1)
	stw 28,24(1)
	stw 29,28(1)
	.loc 1 87 0
	beq- 7,.L3
	.cfi_offset 29, -12
	.cfi_offset 28, -16
	.cfi_offset 25, -28
	.cfi_offset 24, -32
	lis 28,numTempVertices@ha
	lis 25,tempVerticesSize@ha
	lwz 3,numTempVertices@l(28)
.LVL1:
	lwz 24,tempVerticesSize@l(25)
	.loc 1 93 0
	cmpw 7,3,24
	bge- 7,.L9
.LVL2:
.L5:
	.loc 1 89 0
	lwz 29,tempVertices@l(30)
.L6:
	.loc 1 103 0
	lwz 11,0(31)
	mulli 0,3,28
	.loc 1 108 0
	addi 9,3,1
	.loc 1 110 0
	lwz 24,8(1)
	.loc 1 103 0
	stwx 11,29,0
	add 29,29,0
	.loc 1 110 0
	lwz 25,12(1)
	.loc 1 103 0
	lwz 0,4(31)
	.loc 1 110 0
	lwz 30,32(1)
	.loc 1 103 0
	stw 0,4(29)
	lwz 0,8(31)
	.loc 1 110 0
	lwz 31,36(1)
.LVL3:
	.loc 1 103 0
	stw 0,8(29)
.LVL4:
	.loc 1 105 0
	lwz 0,0(26)
	stw 0,12(29)
	.loc 1 106 0
	lwz 0,0(27)
	.loc 1 108 0
	stw 9,numTempVertices@l(28)
	.loc 1 106 0
	stw 0,20(29)
.LVL5:
	.loc 1 110 0
	lwz 28,24(1)
	.loc 1 105 0
	lwz 0,4(26)
	.loc 1 110 0
	lwz 26,16(1)
.LVL6:
	.loc 1 105 0
	stw 0,16(29)
	.loc 1 106 0
	lwz 0,4(27)
	.loc 1 110 0
	lwz 27,20(1)
.LVL7:
	.loc 1 106 0
	stw 0,24(29)
.LVL8:
	.loc 1 110 0
	lwz 0,44(1)
	lwz 29,28(1)
	mtlr 0
	addi 1,1,40
	.cfi_remember_state
.LCFI1:
	.cfi_def_cfa_offset 0
	.cfi_restore 31
	.cfi_restore 30
	.cfi_restore 29
	.cfi_restore 28
	.cfi_restore 27
	.cfi_restore 26
	.cfi_restore 25
	.cfi_restore 24
	blr
.LVL9:
.L9:
.LCFI2:
	.cfi_restore_state
	.loc 1 95 0
	addi 24,24,512
	.loc 1 96 0
	mulli 3,24,28
	.loc 1 95 0
	stw 24,tempVerticesSize@l(25)
	.loc 1 96 0
	bl malloc
.LVL10:
	.loc 1 97 0
	mr. 29,3
	beq- 0,.L10
.LVL11:
.L7:
	.loc 1 98 0
	addi 5,24,-512
	lwz 4,tempVertices@l(30)
	mulli 5,5,28
	mr 3,29
	bl Q_memcpy
	.loc 1 99 0
	lwz 3,tempVertices@l(30)
	bl free
	.loc 1 100 0
	stw 29,tempVertices@l(30)
	lwz 3,numTempVertices@l(28)
	b .L6
.LVL12:
.L3:
	.loc 1 88 0
	li 0,512
	lis 9,tempVerticesSize@ha
	.loc 1 89 0
	li 3,14336
	.loc 1 88 0
	stw 0,tempVerticesSize@l(9)
	.loc 1 89 0
	bl malloc
	lis 28,numTempVertices@ha
	stw 3,tempVertices@l(30)
	li 3,0
	b .L5
.LVL13:
.L10:
	.loc 1 97 0 discriminator 1
	lis 3,.LC0@ha
.LVL14:
	la 3,.LC0@l(3)
	crxor 6,6,6
	bl Sys_Error
	lwz 24,tempVerticesSize@l(25)
	b .L7
	.cfi_endproc
.LFE39:
	.size	R_AllocateVertexInTemp, .-R_AllocateVertexInTemp
	.align 2
	.globl R_CopyVerticesToHunk
	.type	R_CopyVerticesToHunk, @function
R_CopyVerticesToHunk:
.LFB40:
	.loc 1 113 0
	.cfi_startproc
	stwu 1,-16(1)
.LCFI3:
	.cfi_def_cfa_offset 16
	mflr 0
	stw 31,12(1)
	.loc 1 114 0
	lis 31,numTempVertices@ha
	.cfi_offset 31, -4
	.cfi_register 65, 0
	lwz 3,numTempVertices@l(31)
	.loc 1 113 0
	stw 0,20(1)
	.loc 1 114 0
	mulli 3,3,28
	.loc 1 113 0
	stw 30,8(1)
	.loc 1 115 0
	lis 30,tempVertices@ha
	.cfi_offset 30, -8
	.cfi_offset 65, 4
	.loc 1 114 0
	bl Hunk_Alloc
	.loc 1 115 0
	lwz 5,numTempVertices@l(31)
	lwz 4,tempVertices@l(30)
	.loc 1 114 0
	lis 9,globalVertexTable@ha
	.loc 1 115 0
	mulli 5,5,28
	.loc 1 114 0
	stw 3,globalVertexTable@l(9)
	.loc 1 115 0
	bl Q_memcpy
	.loc 1 116 0
	lwz 3,tempVertices@l(30)
	bl free
	.loc 1 117 0
	lwz 4,numTempVertices@l(31)
	lis 3,.LC1@ha
	la 3,.LC1@l(3)
	crxor 6,6,6
	bl Con_Printf
	.loc 1 119 0
	li 0,0
	.loc 1 120 0
	lis 9,tempVerticesSize@ha
	.loc 1 119 0
	stw 0,tempVertices@l(30)
	.loc 1 121 0
	stw 0,numTempVertices@l(31)
	.loc 1 120 0
	stw 0,tempVerticesSize@l(9)
	.loc 1 122 0
	lwz 0,20(1)
	lwz 30,8(1)
	mtlr 0
	lwz 31,12(1)
	addi 1,1,16
.LCFI4:
	.cfi_def_cfa_offset 0
	.cfi_restore 31
	.cfi_restore 30
	blr
	.cfi_endproc
.LFE40:
	.size	R_CopyVerticesToHunk, .-R_CopyVerticesToHunk
	.align 2
	.globl R_EnableVertexTable
	.type	R_EnableVertexTable, @function
R_EnableVertexTable:
.LFB41:
	.loc 1 124 0
	.cfi_startproc
.LVL15:
	stwu 1,-24(1)
.LCFI5:
	.cfi_def_cfa_offset 24
	mflr 0
	.loc 1 126 0
	li 4,5126
	li 5,28
	.loc 1 124 0
	stw 29,12(1)
	.loc 1 126 0
	lis 29,globalVertexTable@ha
	.cfi_offset 29, -12
	.cfi_register 65, 0
	lwz 6,globalVertexTable@l(29)
	.loc 1 124 0
	stw 31,20(1)
	mr 31,3
	.cfi_offset 31, -4
	.loc 1 126 0
	li 3,3
.LVL16:
	.loc 1 124 0
	stw 0,28(1)
	stw 30,16(1)
	.loc 1 126 0
	.cfi_offset 30, -8
	.cfi_offset 65, 4
	bl glVertexPointer
	.loc 1 127 0
	li 3,0
	lis 30,qglClientActiveTextureARB@ha
	ori 3,3,32884
	bl glEnableClientState
	.loc 1 129 0
	andi. 0,31,1
	bne- 0,.L16
.L13:
	.loc 1 135 0
	andi. 0,31,2
	beq+ 0,.L14
	.loc 1 136 0
	lwz 0,qglClientActiveTextureARB@l(30)
	li 3,0
	ori 3,3,33985
	mtctr 0
	bctrl
	.loc 1 137 0
	lwz 6,globalVertexTable@l(29)
	li 3,2
	li 4,5126
	li 5,28
	addi 6,6,20
	bl glTexCoordPointer
	.loc 1 138 0
	li 3,0
	ori 3,3,32888
	bl glEnableClientState
.L14:
	.loc 1 140 0
	lwz 0,qglClientActiveTextureARB@l(30)
	li 3,0
	ori 3,3,33984
	mtctr 0
	bctrl
	.loc 1 141 0
	lwz 0,28(1)
	lwz 29,12(1)
	mtlr 0
	lwz 30,16(1)
	lwz 31,20(1)
.LVL17:
	addi 1,1,24
	.cfi_remember_state
.LCFI6:
	.cfi_def_cfa_offset 0
	.cfi_restore 31
	.cfi_restore 30
	.cfi_restore 29
	blr
.LVL18:
.L16:
.LCFI7:
	.cfi_restore_state
	.loc 1 130 0
	lwz 0,qglClientActiveTextureARB@l(30)
	li 3,0
	ori 3,3,33984
	mtctr 0
	bctrl
	.loc 1 131 0
	lwz 6,globalVertexTable@l(29)
	li 3,2
	li 4,5126
	li 5,28
	addi 6,6,12
	bl glTexCoordPointer
	.loc 1 132 0
	li 3,0
	ori 3,3,32888
	bl glEnableClientState
	b .L13
	.cfi_endproc
.LFE41:
	.size	R_EnableVertexTable, .-R_EnableVertexTable
	.align 2
	.globl R_DisableVertexTable
	.type	R_DisableVertexTable, @function
R_DisableVertexTable:
.LFB42:
	.loc 1 143 0
	.cfi_startproc
.LVL19:
	stwu 1,-16(1)
.LCFI8:
	.cfi_def_cfa_offset 16
	mflr 0
	.loc 1 145 0
	lis 9,globalVertexTable@ha
	li 4,5126
	lwz 6,globalVertexTable@l(9)
	li 5,0
	.loc 1 143 0
	stw 31,12(1)
	mr 31,3
	.cfi_offset 31, -4
	.cfi_register 65, 0
	.loc 1 145 0
	li 3,3
.LVL20:
	.loc 1 143 0
	stw 0,20(1)
	stw 30,8(1)
	.loc 1 145 0
	.cfi_offset 30, -8
	.cfi_offset 65, 4
	bl glVertexPointer
	.loc 1 146 0
	li 3,0
	lis 30,qglClientActiveTextureARB@ha
	ori 3,3,32884
	bl glDisableClientState
	.loc 1 148 0
	andi. 0,31,1
	bne- 0,.L21
.L18:
	.loc 1 153 0
	andi. 0,31,2
	beq+ 0,.L19
	.loc 1 154 0
	lwz 0,qglClientActiveTextureARB@l(30)
	li 3,0
	ori 3,3,33985
	mtctr 0
	bctrl
	.loc 1 155 0
	li 3,0
	ori 3,3,32888
	bl glDisableClientState
.L19:
	.loc 1 157 0
	lwz 0,qglClientActiveTextureARB@l(30)
	li 3,0
	ori 3,3,33984
	mtctr 0
	bctrl
	.loc 1 158 0
	lwz 0,20(1)
	lwz 30,8(1)
	mtlr 0
	lwz 31,12(1)
.LVL21:
	addi 1,1,16
	.cfi_remember_state
.LCFI9:
	.cfi_def_cfa_offset 0
	.cfi_restore 31
	.cfi_restore 30
	blr
.LVL22:
.L21:
.LCFI10:
	.cfi_restore_state
	.loc 1 149 0
	lwz 0,qglClientActiveTextureARB@l(30)
	li 3,0
	ori 3,3,33984
	mtctr 0
	bctrl
	.loc 1 150 0
	li 3,0
	ori 3,3,32888
	bl glDisableClientState
	b .L18
	.cfi_endproc
.LFE42:
	.size	R_DisableVertexTable, .-R_DisableVertexTable
	.align 2
	.globl R_AddDynamicLights
	.type	R_AddDynamicLights, @function
R_AddDynamicLights:
.LFB43:
	.loc 1 168 0
	.cfi_startproc
.LVL23:
	stwu 1,-160(1)
.LCFI11:
	.cfi_def_cfa_offset 160
	.loc 1 205 0
	lis 11,0x4330
	.loc 1 179 0
	lha 0,26(3)
	.loc 1 223 0
	lis 12,.LC7@ha
	.loc 1 178 0
	lha 5,24(3)
	.loc 1 168 0
	stw 26,112(1)
	.loc 1 208 0
	srawi. 26,0,4
	.cfi_offset 26, -48
	.loc 1 178 0
	srawi 5,5,4
	.loc 1 168 0
	stw 29,124(1)
	.loc 1 178 0
	addi 5,5,1
.LVL24:
	.loc 1 167 0
	addi 26,26,1
	.loc 1 180 0
	lis 29,cl_dlights+12@ha
	.cfi_offset 29, -36
	.loc 1 168 0
	stfd 29,136(1)
	stfd 30,144(1)
	cmpwi 6,5,0
	stfd 31,152(1)
	.loc 1 180 0
	la 29,cl_dlights+12@l(29)
	.loc 1 168 0
	stw 25,108(1)
	.loc 1 167 0
	slwi 5,5,2
.LVL25:
	.loc 1 168 0
	stw 30,128(1)
	.loc 1 167 0
	slwi 26,26,4
	.loc 1 168 0
	stw 22,96(1)
	.loc 1 167 0
	lis 22,blocklights@ha
	.cfi_offset 22, -64
	.cfi_offset 30, -32
	.cfi_offset 25, -52
	.cfi_offset 63, -8
	.cfi_offset 62, -16
	.cfi_offset 61, -24
	.loc 1 168 0
	stw 23,100(1)
	.loc 1 205 0
	lis 23,.LC3@ha
	.cfi_offset 23, -60
	.loc 1 168 0
	stw 24,104(1)
	stw 27,116(1)
	mr 27,3
	.cfi_offset 27, -44
	.cfi_offset 24, -56
	stw 28,120(1)
	.loc 1 182 0
	li 28,0
	.cfi_offset 28, -40
	.loc 1 168 0
	stw 31,132(1)
	.loc 1 223 0
	lis 31,.LC5@ha
	.cfi_offset 31, -28
	.loc 1 180 0
	lwz 24,48(3)
.LVL26:
	.loc 1 223 0
	lis 3,.LC6@ha
.LVL27:
.L33:
	.loc 1 184 0
	lwz 0,56(27)
	sraw 0,0,28
	rlwinm 8,0,0,31,31
	cmpwi 7,8,0
	beq- 7,.L23
	.loc 1 188 0
	lwz 9,4(27)
	lfs 8,-8(29)
	lfs 6,4(9)
	lfs 10,-12(29)
	fmuls 7,8,6
	lfs 9,0(9)
	lfs 13,-4(29)
	lfs 12,8(9)
	fmadds 7,10,9,7
	lfs 0,12(9)
	.loc 1 187 0
	lfs 5,0(29)
.LVL28:
	.loc 1 191 0
	lfs 11,12(29)
	.loc 1 188 0
	fmadds 7,13,12,7
	fsubs 0,7,0
.LVL29:
	.loc 1 190 0
	fabs 7,0
	fsubs 7,5,7
.LVL30:
	.loc 1 192 0
	fcmpu 7,7,11
	blt- 7,.L23
	.loc 1 205 0
	lha 0,20(27)
	.loc 1 167 0
	fneg 5,0
	.loc 1 202 0
	lfs 30,4(24)
	.loc 1 167 0
	fneg 9,9
	.loc 1 205 0
	xoris 0,0,0x8000
	.loc 1 202 0
	lfs 29,0(24)
	lfs 3,8(24)
	.loc 1 198 0
	fmadds 8,5,6,8
	.loc 1 202 0
	lfs 4,12(24)
	.loc 1 198 0
	fmadds 0,9,0,10
.LVL31:
	.loc 1 205 0
	stw 0,28(1)
	.loc 1 198 0
	fmadds 13,5,12,13
	.loc 1 205 0
	stw 11,24(1)
	.loc 1 202 0
	fmuls 30,8,30
	.loc 1 205 0
	lfs 6,.LC3@l(23)
	.loc 1 194 0
	fsubs 11,7,11
.LVL32:
	.loc 1 203 0
	lfs 1,20(24)
	.loc 1 205 0
	la 25,.LC3@l(23)
	.loc 1 206 0
	lha 0,22(27)
	.loc 1 202 0
	fmadds 12,0,29,30
	.loc 1 203 0
	fmuls 1,8,1
	lfs 31,16(24)
	.loc 1 206 0
	xoris 0,0,0x8000
	.loc 1 203 0
	lfs 2,24(24)
	lfs 9,28(24)
	.loc 1 205 0
	fmr 10,6
	.loc 1 203 0
	fmadds 5,0,31,1
	.loc 1 206 0
	stw 0,36(1)
	stw 11,32(1)
	.loc 1 202 0
	fmadds 3,13,3,12
	.loc 1 205 0
	lfd 12,24(1)
	.loc 1 203 0
	fmadds 5,13,2,5
	.loc 1 206 0
	lfd 13,32(1)
	.loc 1 205 0
	fsub 12,12,10
	.loc 1 198 0
	stfs 0,8(1)
.LVL33:
	.loc 1 206 0
	fsub 13,13,10
	.loc 1 198 0
	stfs 8,12(1)
.LVL34:
	.loc 1 202 0
	fadds 10,3,4
	.loc 1 205 0
	frsp 12,12
	.loc 1 203 0
	fadds 5,5,9
	.loc 1 206 0
	frsp 13,13
	.loc 1 205 0
	fsubs 10,10,12
.LVL35:
	.loc 1 206 0
	fsubs 5,5,13
.LVL36:
	.loc 1 208 0
	blt- 0,.L23
	.loc 1 167 0
	la 6,blocklights@l(22)
	li 30,0
.LVL37:
.L32:
	.loc 1 210 0
	xoris 0,30,0x8000
	stw 11,40(1)
	stw 0,44(1)
	addi 9,1,88
	lfd 0,40(1)
	fsub 0,0,6
	frsp 0,0
	fsubs 0,5,0
	fctiwz 0,0
	stfiwx 0,0,9
	lwz 10,88(1)
.LVL38:
	srawi 0,10,31
	xor 10,0,10
	subf 10,0,10
.LVL39:
	.loc 1 213 0
	ble- 6,.L24
	.loc 1 215 0
	lfs 13,0(25)
	.loc 1 219 0
	srawi 4,10,1
	.loc 1 167 0
	li 9,0
	b .L31
.LVL40:
.L38:
	.loc 1 219 0
	stw 8,60(1)
	stw 11,56(1)
	lfd 0,56(1)
	fsub 0,0,13
	frsp 0,0
.LVL41:
.L26:
	.loc 1 222 0
	fcmpu 7,0,11
	bnl- 7,.L27
	.loc 1 223 0
	lwzx 0,6,9
.LVL42:
	fsubs 0,7,0
.LVL43:
	stw 11,72(1)
	stw 0,76(1)
	lfs 12,.LC5@l(31)
	lfd 9,72(1)
	lfs 8,.LC6@l(3)
	fsub 9,9,12
	lfs 12,.LC7@l(12)
	frsp 9,9
	fmadds 0,0,8,9
	fcmpu 7,0,12
	cror 30,29,30
	beq- 7,.L29
	fctiwz 0,0
	stfiwx 0,6,9
.L27:
	addi 9,9,4
	.loc 1 213 0
	cmpw 7,9,5
	beq- 7,.L24
.L31:
	.loc 1 167 0
	slwi 0,9,2
	.loc 1 215 0
	stw 11,48(1)
	xoris 0,0,0x8000
	addi 8,1,84
	stw 0,52(1)
	lfd 0,48(1)
	fsub 0,0,13
	frsp 0,0
	fsubs 0,10,0
	fctiwz 0,0
	stfiwx 0,0,8
	lwz 0,84(1)
.LVL44:
	srawi 8,0,31
.LVL45:
	xor 0,8,0
	subf 0,8,0
.LVL46:
	.loc 1 218 0
	cmpw 7,0,10
	.loc 1 221 0
	srawi 8,0,1
	add 8,10,8
	xoris 7,8,0x8000
	.loc 1 219 0
	add 8,0,4
	xoris 8,8,0x8000
	.loc 1 218 0
	bgt- 7,.L38
	.loc 1 221 0
	stw 7,68(1)
	stw 11,64(1)
	lfd 0,64(1)
	fsub 0,0,13
	frsp 0,0
.LVL47:
	b .L26
.LVL48:
.L29:
	.loc 1 223 0
	fsubs 0,0,12
	addi 8,1,80
	fctiwz 0,0
	stfiwx 0,0,8
	lwz 8,80(1)
	addis 0,8,0x8000
	stwx 0,6,9
	addi 9,9,4
	.loc 1 213 0
	cmpw 7,9,5
	bne+ 7,.L31
.L24:
	addi 30,30,16
	add 6,6,5
	.loc 1 208 0
	cmpw 7,30,26
	bne+ 7,.L32
.LVL49:
.L23:
	.loc 1 182 0
	cmpwi 7,28,31
	addi 29,29,72
	addi 28,28,1
.LVL50:
	bne+ 7,.L33
	.loc 1 227 0
	lwz 22,96(1)
	lwz 23,100(1)
	lwz 24,104(1)
	lwz 25,108(1)
	lwz 26,112(1)
	lwz 27,116(1)
.LVL51:
	lwz 28,120(1)
.LVL52:
	lwz 29,124(1)
	lwz 30,128(1)
	lwz 31,132(1)
	lfd 29,136(1)
	lfd 30,144(1)
	lfd 31,152(1)
	addi 1,1,160
.LCFI12:
	.cfi_def_cfa_offset 0
	.cfi_restore 63
	.cfi_restore 62
	.cfi_restore 61
	.cfi_restore 31
	.cfi_restore 30
	.cfi_restore 29
	.cfi_restore 28
	.cfi_restore 27
	.cfi_restore 26
	.cfi_restore 25
	.cfi_restore 24
	.cfi_restore 23
	.cfi_restore 22
	blr
	.cfi_endproc
.LFE43:
	.size	R_AddDynamicLights, .-R_AddDynamicLights
	.align 2
	.globl R_BuildLightMap
	.type	R_BuildLightMap, @function
R_BuildLightMap:
.LFB44:
	.loc 1 238 0
	.cfi_startproc
.LVL53:
	mflr 0
	stwu 1,-48(1)
.LCFI13:
	.cfi_def_cfa_offset 48
	.cfi_register 65, 0
	.loc 1 255 0
	lis 9,r_fullbright+12@ha
	lis 11,.LC9@ha
	lfs 13,r_fullbright+12@l(9)
	.loc 1 247 0
	lis 9,r_framecount@ha
	.loc 1 238 0
	stw 0,52(1)
	.loc 1 255 0
	lfs 0,.LC9@l(11)
	.loc 1 247 0
	lwz 9,r_framecount@l(9)
	lwz 0,52(3)
	.cfi_offset 65, 4
	.loc 1 255 0
	fcmpu 7,13,0
	.loc 1 238 0
	stw 30,40(1)
	stw 31,44(1)
	.loc 1 247 0
	xor 0,0,9
	.loc 1 249 0
	lha 31,24(3)
	.cfi_offset 31, -4
	.cfi_offset 30, -8
	.loc 1 247 0
	cntlzw 0,0
	.loc 1 250 0
	lha 30,26(3)
	.loc 1 247 0
	srwi 0,0,5
	.loc 1 249 0
	srawi 31,31,4
	.loc 1 238 0
	stw 28,32(1)
	.loc 1 250 0
	srawi 30,30,4
	.loc 1 249 0
	addi 31,31,1
.LVL54:
	.loc 1 250 0
	addi 30,30,1
.LVL55:
	.loc 1 238 0
	stw 24,16(1)
	stw 25,20(1)
	.loc 1 251 0
	mullw 12,31,30
.LVL56:
	.loc 1 238 0
	stw 26,24(1)
	stw 27,28(1)
	stw 29,36(1)
	.loc 1 252 0
	lwz 28,88(3)
	.cfi_offset 29, -12
	.cfi_offset 27, -20
	.cfi_offset 26, -24
	.cfi_offset 25, -28
	.cfi_offset 24, -32
	.cfi_offset 28, -16
.LVL57:
	.loc 1 247 0
	stb 0,84(3)
	.loc 1 255 0
	bne- 7,.L40
	.loc 1 255 0 is_stmt 0 discriminator 1
	lis 11,cl+2688@ha
	lwz 11,cl+2688@l(11)
	lwz 0,408(11)
	cmpwi 7,0,0
	beq- 7,.L40
.LVL58:
	.loc 1 263 0 is_stmt 1 discriminator 1
	cmpwi 6,12,0
	ble- 6,.L42
	.loc 1 264 0
	slwi 10,12,2
	.loc 1 257 0
	lis 11,blocklights-4@ha
	.loc 1 264 0
	addi 10,10,-4
	.loc 1 257 0
	la 11,blocklights-4@l(11)
	.loc 1 264 0
	srwi 10,10,2
	li 0,0
	addi 10,10,1
	mtctr 10
.LVL59:
.L45:
	.loc 1 264 0 is_stmt 0 discriminator 2
	stwu 0,4(11)
	.loc 1 263 0 is_stmt 1 discriminator 2
	bdnz .L45
.L42:
	.loc 1 267 0
	cmpwi 7,28,0
	beq- 7,.L46
	.loc 1 273 0
	lis 25,blocklights-4@ha
	.loc 1 237 0
	slwi 6,12,2
	.loc 1 273 0
	la 25,blocklights-4@l(25)
	.loc 1 271 0
	lis 24,d_lightstylevalue@ha
	.loc 1 237 0
	addi 26,3,63
	addi 27,3,64
	addi 28,28,-1
	li 29,0
	.loc 1 271 0
	la 24,d_lightstylevalue@l(24)
	.loc 1 237 0
	add 6,25,6
.LVL60:
.L47:
	.loc 1 268 0 discriminator 2
	lbzu 0,1(26)
	cmpwi 7,0,255
	beq- 7,.L46
	.loc 1 271 0
	slwi 0,0,2
	lwzx 7,24,0
.LVL61:
	.loc 1 272 0
	stwu 7,4(27)
.LVL62:
	.loc 1 273 0
	ble- 6,.L48
	mr 11,25
	.loc 1 237 0
	mr 10,28
.LVL63:
.L49:
	.loc 1 274 0 discriminator 2
	lbzu 0,1(10)
	lwzu 8,4(11)
	mullw 0,0,7
	.loc 1 273 0 discriminator 2
	cmpw 7,11,6
	.loc 1 274 0 discriminator 2
	add 0,8,0
	stw 0,0(11)
	.loc 1 273 0 discriminator 2
	bne+ 7,.L49
.L48:
.LVL64:
	.loc 1 268 0
	cmpwi 7,29,3
	.loc 1 269 0
	add 28,28,12
	.loc 1 268 0
	addi 29,29,1
.LVL65:
	bne+ 7,.L47
.LVL66:
.L46:
	.loc 1 279 0
	lwz 0,52(3)
	cmpw 7,9,0
	beq- 7,.L76
.LVL67:
.L43:
	.loc 1 284 0
	lis 9,gl_lightmap_format@ha
	lwz 0,gl_lightmap_format@l(9)
	cmpwi 7,0,6408
	beq- 7,.L53
.L77:
	bgt- 7,.L54
	cmpwi 7,0,6406
	beq- 7,.L52
.L51:
	.loc 1 321 0
	lis 3,.LC8@ha
	la 3,.LC8@l(3)
	crxor 6,6,6
	bl Sys_Error
.L39:
	.loc 1 323 0
	lwz 0,52(1)
	lwz 24,16(1)
	mtlr 0
	lwz 25,20(1)
	lwz 26,24(1)
	lwz 27,28(1)
	lwz 28,32(1)
	lwz 29,36(1)
	lwz 30,40(1)
.LVL68:
	lwz 31,44(1)
.LVL69:
	addi 1,1,48
	.cfi_remember_state
.LCFI14:
	.cfi_def_cfa_offset 0
	.cfi_restore 31
	.cfi_restore 30
	.cfi_restore 29
	.cfi_restore 28
	.cfi_restore 27
	.cfi_restore 26
	.cfi_restore 25
	.cfi_restore 24
	blr
.LVL70:
.L40:
.LCFI15:
	.cfi_restore_state
	.loc 1 257 0 discriminator 1
	cmpwi 7,12,0
	ble- 7,.L43
	.loc 1 258 0
	slwi 11,12,2
	.loc 1 257 0
	lis 9,blocklights-4@ha
	.loc 1 258 0
	addi 11,11,-4
	li 0,0
	srwi 11,11,2
	.loc 1 257 0
	la 9,blocklights-4@l(9)
	.loc 1 258 0
	addi 11,11,1
	ori 0,0,65280
	mtctr 11
.LVL71:
.L44:
	.loc 1 258 0 is_stmt 0 discriminator 2
	stwu 0,4(9)
	.loc 1 257 0 is_stmt 1 discriminator 2
	bdnz .L44
	.loc 1 284 0
	lis 9,gl_lightmap_format@ha
	lwz 0,gl_lightmap_format@l(9)
	cmpwi 7,0,6408
	bne+ 7,.L77
.LVL72:
.L53:
	.loc 1 289 0
	cmpwi 7,30,0
	ble- 7,.L39
	.loc 1 287 0
	slwi 7,31,2
	.loc 1 288 0
	lis 8,blocklights@ha
	cmpwi 6,31,0
	.loc 1 287 0
	subf 5,7,5
.LVL73:
	.loc 1 289 0
	li 10,0
	.loc 1 288 0
	la 8,blocklights@l(8)
.LVL74:
.L57:
	.loc 1 291 0 discriminator 1
	ble- 6,.L60
	cmpwi 7,31,0
	.loc 1 237 0
	addi 11,8,-4
	mr 9,4
	.loc 1 298 0
	mtctr 31
	ble- 7,.L78
.LVL75:
.L59:
	.loc 1 293 0
	lwzu 0,4(11)
.LVL76:
	.loc 1 294 0
	srawi 0,0,7
.LVL77:
	.loc 1 298 0
	cmpwi 7,0,255
	ble- 7,.L58
	li 0,255
.L58:
	stb 0,3(9)
	.loc 1 299 0
	addi 9,9,4
.LVL78:
	.loc 1 291 0
	bdnz .L59
	.loc 1 237 0
	add 8,8,7
	add 4,4,7
.LVL79:
.L60:
	.loc 1 289 0
	addi 10,10,1
.LVL80:
	add 4,4,5
.LVL81:
	cmpw 7,30,10
	bgt+ 7,.L57
	.loc 1 323 0
	lwz 0,52(1)
	lwz 24,16(1)
	mtlr 0
	lwz 25,20(1)
	lwz 26,24(1)
	lwz 27,28(1)
	lwz 28,32(1)
	lwz 29,36(1)
	lwz 30,40(1)
.LVL82:
	lwz 31,44(1)
.LVL83:
	addi 1,1,48
	.cfi_remember_state
	.cfi_restore 24
	.cfi_restore 25
	.cfi_restore 26
	.cfi_restore 27
	.cfi_restore 28
	.cfi_restore 29
	.cfi_restore 30
	.cfi_restore 31
.LCFI16:
	.cfi_def_cfa_offset 0
	blr
.LVL84:
.L54:
.LCFI17:
	.cfi_restore_state
	.loc 1 284 0
	cmpwi 7,0,6409
	beq- 7,.L52
	xoris 9,0,0xffff
	cmpwi 7,9,-32695
	bne 7,.L51
.L52:
.LVL85:
	.loc 1 307 0 discriminator 1
	cmpwi 7,30,0
	ble- 7,.L39
	.loc 1 307 0 is_stmt 0
	lis 8,blocklights@ha
	cmpwi 6,31,0
	li 10,0
	la 8,blocklights@l(8)
	.loc 1 237 0 is_stmt 1
	slwi 7,31,2
.LVL86:
.L56:
	.loc 1 309 0 discriminator 1
	ble- 6,.L63
	cmpwi 7,31,0
	.loc 1 237 0
	addi 11,8,-4
	li 9,0
	.loc 1 316 0
	mtctr 31
	ble- 7,.L79
.LVL87:
.L62:
	.loc 1 311 0
	lwzu 0,4(11)
.LVL88:
	.loc 1 312 0
	srawi 0,0,7
.LVL89:
	.loc 1 316 0
	cmpwi 7,0,255
	ble- 7,.L61
	li 0,255
.L61:
	stbx 0,4,9
	.loc 1 309 0
	addi 9,9,1
.LVL90:
	bdnz .L62
	add 8,8,7
.LVL91:
.L63:
	.loc 1 307 0
	addi 10,10,1
.LVL92:
	add 4,4,5
.LVL93:
	cmpw 7,30,10
	bgt+ 7,.L56
	.loc 1 323 0
	lwz 0,52(1)
	lwz 24,16(1)
	mtlr 0
	lwz 25,20(1)
	lwz 26,24(1)
	lwz 27,28(1)
	lwz 28,32(1)
	lwz 29,36(1)
	lwz 30,40(1)
.LVL94:
	lwz 31,44(1)
.LVL95:
	addi 1,1,48
	.cfi_remember_state
	.cfi_restore 24
	.cfi_restore 25
	.cfi_restore 26
	.cfi_restore 27
	.cfi_restore 28
	.cfi_restore 29
	.cfi_restore 30
	.cfi_restore 31
.LCFI18:
	.cfi_def_cfa_offset 0
	blr
.LVL96:
.L76:
.LCFI19:
	.cfi_restore_state
	.loc 1 280 0
	stw 4,8(1)
	stw 5,12(1)
	bl R_AddDynamicLights
.LVL97:
	lwz 5,12(1)
	lwz 4,8(1)
	b .L43
.LVL98:
.L78:
	li 0,1
	mtctr 0
	b .L59
.L79:
	li 0,1
	mtctr 0
	b .L62
	.cfi_endproc
.LFE44:
	.size	R_BuildLightMap, .-R_BuildLightMap
	.align 2
	.globl R_TextureAnimation
	.type	R_TextureAnimation, @function
R_TextureAnimation:
.LFB45:
	.loc 1 334 0
	.cfi_startproc
.LVL99:
	mflr 0
	stwu 1,-40(1)
.LCFI20:
	.cfi_def_cfa_offset 40
	.cfi_register 65, 0
	.loc 1 338 0
	lis 9,currententity@ha
	lwz 9,currententity@l(9)
	.loc 1 334 0
	stw 0,44(1)
	stw 31,36(1)
	mr 31,3
	.cfi_offset 31, -4
	.cfi_offset 65, 4
	.loc 1 338 0
	lwz 0,168(9)
	.loc 1 334 0
	stw 27,20(1)
	.loc 1 338 0
	cmpwi 7,0,0
	.loc 1 334 0
	stw 28,24(1)
	stw 29,28(1)
	stw 30,32(1)
	.loc 1 338 0
	beq- 7,.L81
	.cfi_offset 30, -8
	.cfi_offset 29, -12
	.cfi_offset 28, -16
	.cfi_offset 27, -20
	.loc 1 340 0
	lwz 0,52(3)
	cmpwi 7,0,0
	beq- 7,.L81
	mr 31,0
.L81:
.LVL100:
	.loc 1 344 0
	lwz 0,36(31)
	cmpwi 7,0,0
	beq- 7,.L82
	.loc 1 347 0
	lis 9,cl+568@ha
	.loc 1 354 0
	lis 27,.LC12@ha
	.loc 1 347 0
	lfd 13,cl+568@l(9)
	lis 9,.LC11@ha
	lfs 0,.LC11@l(9)
	addi 9,1,8
	.loc 1 356 0
	lis 28,.LC13@ha
	.loc 1 349 0
	li 30,0
	.loc 1 347 0
	fmul 0,13,0
	.loc 1 354 0
	la 27,.LC12@l(27)
	.loc 1 356 0
	la 28,.LC13@l(28)
	.loc 1 347 0
	fctiwz 0,0
	stfiwx 0,0,9
	lwz 9,8(1)
	divw 29,9,0
	mullw 0,29,0
	subf 29,0,9
.LVL101:
.L89:
	.loc 1 350 0 discriminator 1
	lwz 0,40(31)
	.loc 1 355 0 discriminator 1
	addi 30,30,1
.LVL102:
	.loc 1 350 0 discriminator 1
	cmpw 7,29,0
	blt- 7,.L86
	.loc 1 350 0 is_stmt 0 discriminator 2
	lwz 0,44(31)
	cmpw 7,29,0
	blt- 7,.L82
.L86:
	.loc 1 352 0 is_stmt 1
	lwz 31,48(31)
.LVL103:
	.loc 1 353 0
	cmpwi 7,31,0
	beq- 7,.L90
.L84:
.LVL104:
	.loc 1 355 0
	cmpwi 7,30,100
	ble+ 7,.L89
	.loc 1 356 0
	mr 3,28
	crxor 6,6,6
	bl Sys_Error
	b .L89
.LVL105:
.L82:
	.loc 1 360 0
	lwz 0,44(1)
	mr 3,31
	lwz 27,20(1)
	mtlr 0
	lwz 28,24(1)
	lwz 29,28(1)
	lwz 30,32(1)
	lwz 31,36(1)
.LVL106:
	addi 1,1,40
	.cfi_remember_state
.LCFI21:
	.cfi_def_cfa_offset 0
	.cfi_restore 31
	.cfi_restore 30
	.cfi_restore 29
	.cfi_restore 28
	.cfi_restore 27
	blr
.LVL107:
.L90:
.LCFI22:
	.cfi_restore_state
	.loc 1 354 0
	mr 3,27
	crxor 6,6,6
	bl Sys_Error
	b .L84
	.cfi_endproc
.LFE45:
	.size	R_TextureAnimation, .-R_TextureAnimation
	.align 2
	.globl GL_DisableMultitexture
	.type	GL_DisableMultitexture, @function
GL_DisableMultitexture:
.LFB46:
	.loc 1 542 0
	.cfi_startproc
	stwu 1,-16(1)
.LCFI23:
	.cfi_def_cfa_offset 16
	mflr 0
	stw 31,12(1)
	.loc 1 543 0
	lis 31,mtexenabled@ha
	.cfi_offset 31, -4
	.cfi_register 65, 0
	.loc 1 542 0
	stw 0,20(1)
	.loc 1 543 0
	lbz 0,mtexenabled@l(31)
	.cfi_offset 65, 4
	cmpwi 7,0,0
	beq+ 7,.L91
.LBB6:
.LBB7:
	.loc 1 544 0
	li 3,3553
	bl glDisable
	.loc 1 545 0
	li 3,0
	ori 3,3,33984
	bl GL_SelectTexture
	.loc 1 546 0
	li 0,0
	stb 0,mtexenabled@l(31)
.L91:
.LBE7:
.LBE6:
	.loc 1 548 0
	lwz 0,20(1)
	lwz 31,12(1)
	mtlr 0
	addi 1,1,16
.LCFI24:
	.cfi_def_cfa_offset 0
	.cfi_restore 31
	blr
	.cfi_endproc
.LFE46:
	.size	GL_DisableMultitexture, .-GL_DisableMultitexture
	.align 2
	.globl GL_EnableMultitexture
	.type	GL_EnableMultitexture, @function
GL_EnableMultitexture:
.LFB47:
	.loc 1 551 0
	.cfi_startproc
	mflr 0
	stwu 1,-8(1)
.LCFI25:
	.cfi_def_cfa_offset 8
	.cfi_register 65, 0
	.loc 1 552 0
	lis 9,gl_mtexable@ha
	.loc 1 551 0
	stw 0,12(1)
	.loc 1 552 0
	lbz 0,gl_mtexable@l(9)
	.cfi_offset 65, 4
	cmpwi 7,0,0
	beq+ 7,.L93
.LBB10:
.LBB11:
	.loc 1 553 0
	li 3,0
	ori 3,3,33985
	bl GL_SelectTexture
	.loc 1 554 0
	li 3,3553
	bl glEnable
	.loc 1 555 0
	li 0,1
	lis 9,mtexenabled@ha
	stb 0,mtexenabled@l(9)
.L93:
.LBE11:
.LBE10:
	.loc 1 557 0
	lwz 0,12(1)
	addi 1,1,8
.LCFI26:
	.cfi_def_cfa_offset 0
	mtlr 0
	blr
	.cfi_endproc
.LFE47:
	.size	GL_EnableMultitexture, .-GL_EnableMultitexture
	.align 2
	.globl DrawGLWaterPoly
	.type	DrawGLWaterPoly, @function
DrawGLWaterPoly:
.LFB49:
	.loc 1 798 0
	.cfi_startproc
.LVL108:
	mflr 0
	stwu 1,-104(1)
.LCFI27:
	.cfi_def_cfa_offset 104
	.cfi_register 65, 0
	stw 29,36(1)
	mr 29,3
	.cfi_offset 29, -68
	stw 0,108(1)
	stw 31,44(1)
	stfd 25,48(1)
	stfd 26,56(1)
	stfd 27,64(1)
	stfd 28,72(1)
	stfd 29,80(1)
	stfd 30,88(1)
	stfd 31,96(1)
	stw 26,24(1)
	stw 27,28(1)
	stw 28,32(1)
	stw 30,40(1)
	.loc 1 803 0
	.cfi_offset 30, -64
	.cfi_offset 28, -72
	.cfi_offset 27, -76
	.cfi_offset 26, -80
	.cfi_offset 63, -8
	.cfi_offset 62, -16
	.cfi_offset 61, -24
	.cfi_offset 60, -32
	.cfi_offset 59, -40
	.cfi_offset 58, -48
	.cfi_offset 57, -56
	.cfi_offset 31, -60
	.cfi_offset 65, 4
	bl GL_DisableMultitexture
.LVL109:
	.loc 1 805 0
	li 3,6
	bl glBegin
	.loc 1 808 0
	lwz 0,8(29)
	.loc 1 807 0
	lis 9,globalVertexTable@ha
	lwz 31,24(29)
	.loc 1 808 0
	cmpwi 7,0,0
	.loc 1 807 0
	lwz 0,globalVertexTable@l(9)
.LVL110:
	.loc 1 808 0
	ble- 7,.L96
	.loc 1 807 0
	mulli 31,31,28
	lis 26,realtime@ha
	lis 27,.LC14@ha
	lis 28,.LC16@ha
	add 31,0,31
	.loc 1 808 0
	li 30,0
	la 26,realtime@l(26)
	la 27,.LC14@l(27)
	la 28,.LC16@l(28)
.LVL111:
.L97:
	.loc 1 810 0 discriminator 2
	lfs 2,16(31)
	.loc 1 808 0 discriminator 2
	addi 30,30,1
	.loc 1 810 0 discriminator 2
	lfs 1,12(31)
	bl glTexCoord2f
	.loc 1 812 0 discriminator 2
	lfs 29,4(31)
	lfd 31,0(26)
	lfd 30,0(27)
	fmadd 1,29,30,31
	bl sin
	lfs 27,8(31)
	fmr 25,1
	fmr 1,27
	fmadd 1,1,30,31
	bl sin
	lfs 26,0(28)
	lfs 0,0(31)
	fmr 28,1
	fmul 25,25,26
	fmadd 25,25,1,0
	frsp 25,25
	stfs 25,8(1)
	.loc 1 813 0 discriminator 2
	lfs 1,0(31)
	.loc 1 808 0 discriminator 2
	addi 31,31,28
	.loc 1 813 0 discriminator 2
	fmadd 1,1,30,31
	bl sin
	.loc 1 816 0 discriminator 2
	addi 3,1,8
	.loc 1 813 0 discriminator 2
	fmul 26,1,26
	.loc 1 814 0 discriminator 2
	stfs 27,16(1)
	.loc 1 813 0 discriminator 2
	fmadd 29,28,26,29
	frsp 29,29
	stfs 29,12(1)
	.loc 1 816 0 discriminator 2
	bl glVertex3fv
.LVL112:
	.loc 1 808 0 discriminator 2
	lwz 0,8(29)
	cmpw 7,0,30
	bgt+ 7,.L97
.LVL113:
.L96:
	.loc 1 818 0
	bl glEnd
	.loc 1 819 0
	lwz 0,108(1)
	lwz 26,24(1)
	mtlr 0
	lwz 27,28(1)
	lwz 28,32(1)
	lwz 29,36(1)
.LVL114:
	lwz 30,40(1)
	lwz 31,44(1)
	lfd 25,48(1)
	lfd 26,56(1)
	lfd 27,64(1)
	lfd 28,72(1)
	lfd 29,80(1)
	lfd 30,88(1)
	lfd 31,96(1)
	addi 1,1,104
.LCFI28:
	.cfi_def_cfa_offset 0
	.cfi_restore 63
	.cfi_restore 62
	.cfi_restore 61
	.cfi_restore 60
	.cfi_restore 59
	.cfi_restore 58
	.cfi_restore 57
	.cfi_restore 31
	.cfi_restore 30
	.cfi_restore 29
	.cfi_restore 28
	.cfi_restore 27
	.cfi_restore 26
	blr
	.cfi_endproc
.LFE49:
	.size	DrawGLWaterPoly, .-DrawGLWaterPoly
	.align 2
	.globl DrawGLWaterPolyLightmap
	.type	DrawGLWaterPolyLightmap, @function
DrawGLWaterPolyLightmap:
.LFB50:
	.loc 1 822 0
	.cfi_startproc
.LVL115:
	mflr 0
	stwu 1,-104(1)
.LCFI29:
	.cfi_def_cfa_offset 104
	.cfi_register 65, 0
	stw 29,36(1)
	mr 29,3
	.cfi_offset 29, -68
	stw 0,108(1)
	stw 31,44(1)
	stfd 25,48(1)
	stfd 26,56(1)
	stfd 27,64(1)
	stfd 28,72(1)
	stfd 29,80(1)
	stfd 30,88(1)
	stfd 31,96(1)
	stw 26,24(1)
	stw 27,28(1)
	stw 28,32(1)
	stw 30,40(1)
	.loc 1 827 0
	.cfi_offset 30, -64
	.cfi_offset 28, -72
	.cfi_offset 27, -76
	.cfi_offset 26, -80
	.cfi_offset 63, -8
	.cfi_offset 62, -16
	.cfi_offset 61, -24
	.cfi_offset 60, -32
	.cfi_offset 59, -40
	.cfi_offset 58, -48
	.cfi_offset 57, -56
	.cfi_offset 31, -60
	.cfi_offset 65, 4
	bl GL_DisableMultitexture
.LVL116:
	.loc 1 829 0
	li 3,6
	bl glBegin
	.loc 1 832 0
	lwz 0,8(29)
	.loc 1 831 0
	lis 9,globalVertexTable@ha
	lwz 31,24(29)
	.loc 1 832 0
	cmpwi 7,0,0
	.loc 1 831 0
	lwz 0,globalVertexTable@l(9)
.LVL117:
	.loc 1 832 0
	ble- 7,.L100
	.loc 1 831 0
	mulli 31,31,28
	lis 26,realtime@ha
	lis 27,.LC14@ha
	lis 28,.LC16@ha
	add 31,0,31
	.loc 1 832 0
	li 30,0
	la 26,realtime@l(26)
	la 27,.LC14@l(27)
	la 28,.LC16@l(28)
.LVL118:
.L101:
	.loc 1 834 0 discriminator 2
	lfs 2,24(31)
	.loc 1 832 0 discriminator 2
	addi 30,30,1
	.loc 1 834 0 discriminator 2
	lfs 1,20(31)
	bl glTexCoord2f
	.loc 1 836 0 discriminator 2
	lfs 29,4(31)
	lfd 31,0(26)
	lfd 30,0(27)
	fmadd 1,29,30,31
	bl sin
	lfs 27,8(31)
	fmr 25,1
	fmr 1,27
	fmadd 1,1,30,31
	bl sin
	lfs 26,0(28)
	lfs 0,0(31)
	fmr 28,1
	fmul 25,25,26
	fmadd 25,25,1,0
	frsp 25,25
	stfs 25,8(1)
	.loc 1 837 0 discriminator 2
	lfs 1,0(31)
	.loc 1 832 0 discriminator 2
	addi 31,31,28
	.loc 1 837 0 discriminator 2
	fmadd 1,1,30,31
	bl sin
	.loc 1 840 0 discriminator 2
	addi 3,1,8
	.loc 1 837 0 discriminator 2
	fmul 26,1,26
	.loc 1 838 0 discriminator 2
	stfs 27,16(1)
	.loc 1 837 0 discriminator 2
	fmadd 29,28,26,29
	frsp 29,29
	stfs 29,12(1)
	.loc 1 840 0 discriminator 2
	bl glVertex3fv
.LVL119:
	.loc 1 832 0 discriminator 2
	lwz 0,8(29)
	cmpw 7,0,30
	bgt+ 7,.L101
.LVL120:
.L100:
	.loc 1 842 0
	bl glEnd
	.loc 1 843 0
	lwz 0,108(1)
	lwz 26,24(1)
	mtlr 0
	lwz 27,28(1)
	lwz 28,32(1)
	lwz 29,36(1)
.LVL121:
	lwz 30,40(1)
	lwz 31,44(1)
	lfd 25,48(1)
	lfd 26,56(1)
	lfd 27,64(1)
	lfd 28,72(1)
	lfd 29,80(1)
	lfd 30,88(1)
	lfd 31,96(1)
	addi 1,1,104
.LCFI30:
	.cfi_def_cfa_offset 0
	.cfi_restore 63
	.cfi_restore 62
	.cfi_restore 61
	.cfi_restore 60
	.cfi_restore 59
	.cfi_restore 58
	.cfi_restore 57
	.cfi_restore 31
	.cfi_restore 30
	.cfi_restore 29
	.cfi_restore 28
	.cfi_restore 27
	.cfi_restore 26
	blr
	.cfi_endproc
.LFE50:
	.size	DrawGLWaterPolyLightmap, .-DrawGLWaterPolyLightmap
	.align 2
	.globl DrawGLPoly
	.type	DrawGLPoly, @function
DrawGLPoly:
.LFB51:
	.loc 1 851 0
	.cfi_startproc
.LVL122:
	stwu 1,-24(1)
.LCFI31:
	.cfi_def_cfa_offset 24
	mflr 0
	stw 29,12(1)
	mr 29,3
	.cfi_offset 29, -12
	.cfi_register 65, 0
	.loc 1 855 0
	li 3,6
.LVL123:
	.loc 1 851 0
	stw 0,28(1)
	stw 31,20(1)
	stw 30,16(1)
	.loc 1 855 0
	.cfi_offset 30, -8
	.cfi_offset 31, -4
	.cfi_offset 65, 4
	bl glBegin
	.loc 1 858 0
	lwz 0,8(29)
	.loc 1 857 0
	lis 9,globalVertexTable@ha
	lwz 31,24(29)
	.loc 1 858 0
	cmpwi 7,0,0
	.loc 1 857 0
	lwz 0,globalVertexTable@l(9)
.LVL124:
	.loc 1 858 0
	ble- 7,.L104
	.loc 1 857 0
	mulli 31,31,28
	.loc 1 858 0
	li 30,0
	.loc 1 857 0
	add 31,0,31
.LVL125:
.L105:
	.loc 1 860 0 discriminator 2
	lfs 1,12(31)
	.loc 1 858 0 discriminator 2
	addi 30,30,1
	.loc 1 860 0 discriminator 2
	lfs 2,16(31)
	bl glTexCoord2f
	.loc 1 861 0 discriminator 2
	mr 3,31
	bl glVertex3fv
.LVL126:
	.loc 1 858 0 discriminator 2
	lwz 0,8(29)
	addi 31,31,28
.LVL127:
	cmpw 7,0,30
	bgt+ 7,.L105
.LVL128:
.L104:
	.loc 1 863 0
	bl glEnd
	.loc 1 864 0
	lwz 0,28(1)
	lwz 29,12(1)
.LVL129:
	mtlr 0
	lwz 30,16(1)
	lwz 31,20(1)
	addi 1,1,24
.LCFI32:
	.cfi_def_cfa_offset 0
	.cfi_restore 31
	.cfi_restore 30
	.cfi_restore 29
	blr
	.cfi_endproc
.LFE51:
	.size	DrawGLPoly, .-DrawGLPoly
	.align 2
	.globl R_BlendLightmaps
	.type	R_BlendLightmaps, @function
R_BlendLightmaps:
.LFB52:
	.loc 1 883 0
	.cfi_startproc
	stwu 1,-56(1)
.LCFI33:
	.cfi_def_cfa_offset 56
	.loc 1 888 0
	lis 9,r_fullbright+12@ha
	lfs 0,r_fullbright+12@l(9)
	lis 9,.LC9@ha
	.loc 1 883 0
	stfd 31,48(1)
	mflr 0
	.loc 1 888 0
	lfs 31,.LC9@l(9)
	.cfi_register 65, 0
	.cfi_offset 63, -8
	.loc 1 883 0
	stw 22,8(1)
	.loc 1 888 0
	fcmpu 7,0,31
	.loc 1 883 0
	stw 0,60(1)
	stw 23,12(1)
	stw 24,16(1)
	stw 25,20(1)
	stw 26,24(1)
	stw 27,28(1)
	stw 28,32(1)
	stw 29,36(1)
	stw 30,40(1)
	stw 31,44(1)
	.loc 1 888 0
	bne- 7,.L107
	.cfi_offset 31, -12
	.cfi_offset 30, -16
	.cfi_offset 29, -20
	.cfi_offset 28, -24
	.cfi_offset 27, -28
	.cfi_offset 26, -32
	.cfi_offset 25, -36
	.cfi_offset 24, -40
	.cfi_offset 23, -44
	.cfi_offset 65, 4
	.cfi_offset 22, -48
	.loc 1 891 0
	lis 27,gl_lightmap_format@ha
	lwz 0,gl_lightmap_format@l(27)
	cmpwi 7,0,6409
	beq- 7,.L122
	.loc 1 893 0
	li 9,0
	.loc 1 895 0
	lis 28,.LC17@ha
	.loc 1 893 0
	ori 9,9,32841
	lis 29,.LC18@ha
	cmpw 7,0,9
	beq- 7,.L123
.L110:
	.loc 1 905 0
	lis 9,sh_lightmapbright+12@ha
	.loc 1 906 0
	lis 22,lightmap_polys-4@ha
	.loc 1 905 0
	lfs 1,sh_lightmapbright+12@l(9)
	.loc 1 913 0
	lis 30,lightmap_textures@ha
	lis 31,globalVertexTable@ha
	.loc 1 906 0
	la 22,lightmap_polys-4@l(22)
	.loc 1 905 0
	fmr 2,1
	.loc 1 908 0
	li 23,0
	.loc 1 905 0
	fmr 3,1
	bl glColor3f
	.loc 1 906 0
	lfs 1,.LC17@l(28)
	li 3,8960
	li 4,8704
	bl glTexEnvf
.LVL130:
.L115:
	.loc 1 910 0
	lwzu 25,4(22)
.LVL131:
	.loc 1 911 0
	cmpwi 7,25,0
	beq- 7,.L111
	.loc 1 913 0
	lwz 3,lightmap_textures@l(30)
	la 24,globalVertexTable@l(31)
	add 3,23,3
	bl GL_Bind
.LVL132:
.L114:
	.loc 1 918 0
	li 3,6
	bl glBegin
	.loc 1 921 0
	lwz 0,8(25)
	.loc 1 920 0
	lwz 9,0(24)
	.loc 1 921 0
	cmpwi 7,0,0
	.loc 1 920 0
	lwz 28,24(25)
.LVL133:
	.loc 1 921 0
	ble- 7,.L112
	.loc 1 920 0
	mulli 28,28,28
	.loc 1 921 0
	li 26,0
	.loc 1 920 0
	add 28,9,28
.LVL134:
.L113:
	.loc 1 923 0 discriminator 2
	lfs 1,20(28)
	.loc 1 921 0 discriminator 2
	addi 26,26,1
	.loc 1 923 0 discriminator 2
	lfs 2,24(28)
	bl glTexCoord2f
	.loc 1 924 0 discriminator 2
	mr 3,28
	bl glVertex3fv
.LVL135:
	.loc 1 921 0 discriminator 2
	lwz 0,8(25)
	addi 28,28,28
.LVL136:
	cmpw 7,0,26
	bgt+ 7,.L113
.LVL137:
.L112:
	.loc 1 926 0
	bl glEnd
	.loc 1 916 0
	lwz 25,4(25)
.LVL138:
	cmpwi 7,25,0
	bne+ 7,.L114
	.loc 1 928 0
	stw 25,0(22)
.L111:
.LVL139:
	.loc 1 908 0
	cmpwi 7,23,63
	addi 23,23,1
.LVL140:
	bne+ 7,.L115
	.loc 1 931 0
	lfs 31,.LC18@l(29)
	fmr 1,31
	fmr 2,31
	fmr 3,31
	bl glColor3f
	.loc 1 933 0
	li 3,3042
	bl glDisable
	.loc 1 934 0
	lwz 0,gl_lightmap_format@l(27)
	cmpwi 7,0,6409
	beq- 7,.L124
	.loc 1 936 0
	xoris 9,0,0xffff
	cmpwi 7,9,-32695
	beq 7,.L125
.LVL141:
.L107:
	.loc 1 941 0
	lwz 0,60(1)
	lwz 22,8(1)
	mtlr 0
	lwz 23,12(1)
	lwz 24,16(1)
	lwz 25,20(1)
	lwz 26,24(1)
	lwz 27,28(1)
	lwz 28,32(1)
	lwz 29,36(1)
	lwz 30,40(1)
	lwz 31,44(1)
	lfd 31,48(1)
	addi 1,1,56
	.cfi_remember_state
.LCFI34:
	.cfi_def_cfa_offset 0
	.cfi_restore 63
	.cfi_restore 31
	.cfi_restore 30
	.cfi_restore 29
	.cfi_restore 28
	.cfi_restore 27
	.cfi_restore 26
	.cfi_restore 25
	.cfi_restore 24
	.cfi_restore 23
	.cfi_restore 22
	blr
.L122:
.LCFI35:
	.cfi_restore_state
	.loc 1 892 0
	li 3,0
	li 4,768
	bl glBlendFunc
	lis 28,.LC17@ha
	lis 29,.LC18@ha
	b .L110
.LVL142:
.L125:
	.loc 1 938 0
	lis 9,.LC19@ha
	li 3,8960
	lfs 1,.LC19@l(9)
	li 4,8704
	bl glTexEnvf
	.loc 1 939 0
	fmr 1,31
	fmr 2,31
	fmr 3,31
	fmr 4,31
	bl glColor4f
	.loc 1 941 0
	lwz 0,60(1)
	lwz 22,8(1)
	mtlr 0
	lwz 23,12(1)
.LVL143:
	lwz 24,16(1)
	lwz 25,20(1)
.LVL144:
	lwz 26,24(1)
	lwz 27,28(1)
	lwz 28,32(1)
	lwz 29,36(1)
	lwz 30,40(1)
	lwz 31,44(1)
	lfd 31,48(1)
	addi 1,1,56
	.cfi_remember_state
	.cfi_restore 22
	.cfi_restore 23
	.cfi_restore 24
	.cfi_restore 25
	.cfi_restore 26
	.cfi_restore 27
	.cfi_restore 28
	.cfi_restore 29
	.cfi_restore 30
	.cfi_restore 31
	.cfi_restore 63
.LCFI36:
	.cfi_def_cfa_offset 0
	blr
.LVL145:
.L124:
.LCFI37:
	.cfi_restore_state
	.loc 1 935 0
	li 3,770
	li 4,771
	bl glBlendFunc
	.loc 1 941 0
	lwz 0,60(1)
	lwz 22,8(1)
	mtlr 0
	lwz 23,12(1)
.LVL146:
	lwz 24,16(1)
	lwz 25,20(1)
.LVL147:
	lwz 26,24(1)
	lwz 27,28(1)
	lwz 28,32(1)
	lwz 29,36(1)
	lwz 30,40(1)
	lwz 31,44(1)
	lfd 31,48(1)
	addi 1,1,56
	.cfi_remember_state
	.cfi_restore 22
	.cfi_restore 23
	.cfi_restore 24
	.cfi_restore 25
	.cfi_restore 26
	.cfi_restore 27
	.cfi_restore 28
	.cfi_restore 29
	.cfi_restore 30
	.cfi_restore 31
	.cfi_restore 63
.LCFI38:
	.cfi_def_cfa_offset 0
	blr
.L123:
.LCFI39:
	.cfi_restore_state
	.loc 1 895 0
	lfs 1,.LC17@l(28)
	li 3,8960
	li 4,8704
	.loc 1 896 0
	lis 29,.LC18@ha
	.loc 1 895 0
	bl glTexEnvf
	.loc 1 896 0
	fmr 1,31
	fmr 2,31
	lfs 4,.LC18@l(29)
	fmr 3,31
	bl glColor4f
	.loc 1 897 0
	li 3,770
	li 4,771
	bl glBlendFunc
	b .L110
	.cfi_endproc
.LFE52:
	.size	R_BlendLightmaps, .-R_BlendLightmaps
	.align 2
	.globl R_RenderBrushPolyLuma
	.type	R_RenderBrushPolyLuma, @function
R_RenderBrushPolyLuma:
.LFB53:
	.loc 1 1011 0
	.cfi_startproc
.LVL148:
	mflr 0
	stwu 1,-24(1)
.LCFI40:
	.cfi_def_cfa_offset 24
	.cfi_register 65, 0
	stw 31,20(1)
	mr 31,3
	.cfi_offset 31, -4
	stw 0,28(1)
	stw 29,12(1)
	.loc 1 1010 0
	lwz 0,8(3)
	.cfi_offset 29, -12
	.cfi_offset 65, 4
	.loc 1 1011 0
	stw 30,16(1)
	.loc 1 1020 0
	andi. 9,0,20
	beq- 0,.L131
	.cfi_offset 30, -8
	.loc 1 1037 0
	lwz 0,28(1)
	lwz 29,12(1)
	mtlr 0
	lwz 30,16(1)
	lwz 31,20(1)
	addi 1,1,24
	.cfi_remember_state
.LCFI41:
	.cfi_def_cfa_offset 0
	.cfi_restore 31
	.cfi_restore 30
	.cfi_restore 29
	blr
.L131:
.LCFI42:
	.cfi_restore_state
	.loc 1 1023 0
	lwz 9,48(3)
	lwz 3,36(9)
.LVL149:
	bl R_TextureAnimation
.LVL150:
	.loc 1 1025 0
	lwz 3,28(3)
.LVL151:
	bl GL_Bind
	.loc 1 1027 0
	li 3,6
	bl glBegin
	.loc 1 1028 0
	lwz 29,36(31)
.LVL152:
	.loc 1 1030 0
	lis 9,globalVertexTable@ha
	.loc 1 1031 0
	lwz 0,8(29)
	.loc 1 1030 0
	lwz 9,globalVertexTable@l(9)
	.loc 1 1031 0
	cmpwi 7,0,0
	.loc 1 1030 0
	lwz 31,24(29)
.LVL153:
	.loc 1 1031 0
	ble- 7,.L128
	.loc 1 1030 0
	mulli 31,31,28
	.loc 1 1031 0
	li 30,0
	.loc 1 1030 0
	add 31,9,31
.LVL154:
.L129:
	.loc 1 1033 0 discriminator 2
	lfs 1,12(31)
	.loc 1 1031 0 discriminator 2
	addi 30,30,1
	.loc 1 1033 0 discriminator 2
	lfs 2,16(31)
	bl glTexCoord2f
	.loc 1 1034 0 discriminator 2
	mr 3,31
	bl glVertex3fv
.LVL155:
	.loc 1 1031 0 discriminator 2
	lwz 0,8(29)
	addi 31,31,28
.LVL156:
	cmpw 7,0,30
	bgt+ 7,.L129
.LVL157:
.L128:
	.loc 1 1036 0
	bl glEnd
	.loc 1 1037 0
	lwz 0,28(1)
	lwz 29,12(1)
.LVL158:
	mtlr 0
	lwz 30,16(1)
	lwz 31,20(1)
	addi 1,1,24
	.cfi_restore 29
	.cfi_restore 30
	.cfi_restore 31
.LCFI43:
	.cfi_def_cfa_offset 0
	blr
	.cfi_endproc
.LFE53:
	.size	R_RenderBrushPolyLuma, .-R_RenderBrushPolyLuma
	.align 2
	.globl R_RenderBrushPolyLightmap
	.type	R_RenderBrushPolyLightmap, @function
R_RenderBrushPolyLightmap:
.LFB54:
	.loc 1 1057 0
	.cfi_startproc
.LVL159:
	mflr 0
	stwu 1,-24(1)
.LCFI44:
	.cfi_def_cfa_offset 24
	.cfi_register 65, 0
	stw 31,20(1)
	mr 31,3
	.cfi_offset 31, -4
	stw 0,28(1)
	stw 29,12(1)
	.loc 1 1055 0
	lwz 0,8(3)
	.cfi_offset 29, -12
	.cfi_offset 65, 4
	.loc 1 1057 0
	stw 30,16(1)
	.loc 1 1069 0
	andi. 9,0,20
	beq- 0,.L137
	.cfi_offset 30, -8
	.loc 1 1094 0
	lwz 0,28(1)
	lwz 29,12(1)
	mtlr 0
	lwz 30,16(1)
	lwz 31,20(1)
	addi 1,1,24
	.cfi_remember_state
.LCFI45:
	.cfi_def_cfa_offset 0
	.cfi_restore 31
	.cfi_restore 30
	.cfi_restore 29
	blr
.L137:
.LCFI46:
	.cfi_restore_state
	.loc 1 1073 0
	lis 9,lightmap_textures@ha
	lwz 3,60(3)
.LVL160:
	lwz 0,lightmap_textures@l(9)
	add 3,3,0
	bl GL_Bind
	.loc 1 1075 0
	li 3,6
	bl glBegin
	.loc 1 1077 0
	lwz 29,36(31)
.LVL161:
	.loc 1 1080 0
	lis 9,globalVertexTable@ha
	.loc 1 1082 0
	lwz 0,8(29)
	.loc 1 1080 0
	lwz 9,globalVertexTable@l(9)
	.loc 1 1082 0
	cmpwi 7,0,0
	.loc 1 1080 0
	lwz 31,24(29)
.LVL162:
	.loc 1 1082 0
	ble- 7,.L134
	.loc 1 1080 0
	mulli 31,31,28
	.loc 1 1082 0
	li 30,0
	.loc 1 1080 0
	add 31,9,31
.LVL163:
.L135:
	.loc 1 1086 0 discriminator 2
	lfs 1,20(31)
	.loc 1 1082 0 discriminator 2
	addi 30,30,1
	.loc 1 1086 0 discriminator 2
	lfs 2,24(31)
	bl glTexCoord2f
	.loc 1 1088 0 discriminator 2
	mr 3,31
	bl glVertex3fv
.LVL164:
	.loc 1 1082 0 discriminator 2
	lwz 0,8(29)
	addi 31,31,28
.LVL165:
	cmpw 7,0,30
	bgt+ 7,.L135
.LVL166:
.L134:
	.loc 1 1092 0
	bl glEnd
	.loc 1 1094 0
	lwz 0,28(1)
	lwz 29,12(1)
.LVL167:
	mtlr 0
	lwz 30,16(1)
	lwz 31,20(1)
	addi 1,1,24
	.cfi_restore 29
	.cfi_restore 30
	.cfi_restore 31
.LCFI47:
	.cfi_def_cfa_offset 0
	blr
	.cfi_endproc
.LFE54:
	.size	R_RenderBrushPolyLightmap, .-R_RenderBrushPolyLightmap
	.align 2
	.globl R_RenderBrushPolyCaustics
	.type	R_RenderBrushPolyCaustics, @function
R_RenderBrushPolyCaustics:
.LFB55:
	.loc 1 1098 0
	.cfi_startproc
.LVL168:
	stwu 1,-24(1)
.LCFI48:
	.cfi_def_cfa_offset 24
	mflr 0
	stw 31,20(1)
	mr 31,3
	.cfi_offset 31, -4
	.cfi_register 65, 0
	.loc 1 1102 0
	li 3,6
.LVL169:
	.loc 1 1098 0
	stw 0,28(1)
	stw 29,12(1)
	stw 30,16(1)
	.loc 1 1102 0
	.cfi_offset 30, -8
	.cfi_offset 29, -12
	.cfi_offset 65, 4
	bl glBegin
	.loc 1 1103 0
	lwz 29,36(31)
.LVL170:
	.loc 1 1105 0
	lis 9,globalVertexTable@ha
	lwz 9,globalVertexTable@l(9)
	.loc 1 1106 0
	lwz 0,8(29)
	.loc 1 1105 0
	lwz 31,24(29)
.LVL171:
	.loc 1 1106 0
	cmpwi 7,0,0
	ble- 7,.L139
	.loc 1 1105 0
	mulli 31,31,28
	.loc 1 1106 0
	li 30,0
	.loc 1 1105 0
	add 31,9,31
.LVL172:
.L140:
	.loc 1 1108 0 discriminator 2
	lfs 1,20(31)
	.loc 1 1106 0 discriminator 2
	addi 30,30,1
	.loc 1 1108 0 discriminator 2
	lfs 2,24(31)
	bl glTexCoord2f
	.loc 1 1109 0 discriminator 2
	mr 3,31
	bl glVertex3fv
.LVL173:
	.loc 1 1106 0 discriminator 2
	lwz 0,8(29)
	addi 31,31,28
.LVL174:
	cmpw 7,0,30
	bgt+ 7,.L140
.LVL175:
.L139:
	.loc 1 1112 0
	bl glEnd
	.loc 1 1113 0
	lwz 0,28(1)
	lwz 29,12(1)
.LVL176:
	mtlr 0
	lwz 30,16(1)
	lwz 31,20(1)
	addi 1,1,24
.LCFI49:
	.cfi_def_cfa_offset 0
	.cfi_restore 31
	.cfi_restore 30
	.cfi_restore 29
	blr
	.cfi_endproc
.LFE55:
	.size	R_RenderBrushPolyCaustics, .-R_RenderBrushPolyCaustics
	.align 2
	.globl R_RenderDynamicLightmaps
	.type	R_RenderDynamicLightmaps, @function
R_RenderDynamicLightmaps:
.LFB56:
	.loc 1 1121 0
	.cfi_startproc
.LVL177:
	.loc 1 1129 0
	lwz 0,8(3)
	.loc 1 1127 0
	lis 9,c_brush_polys@ha
	lwz 11,c_brush_polys@l(9)
	.loc 1 1129 0
	andi. 10,0,20
	.loc 1 1127 0
	addi 0,11,1
	stw 0,c_brush_polys@l(9)
	.loc 1 1129 0
	bnelr- 0
	.loc 1 1132 0
	lwz 6,60(3)
	lis 11,lightmap_polys@ha
	la 11,lightmap_polys@l(11)
	lwz 10,36(3)
	slwi 7,6,2
	.loc 1 1138 0
	lis 8,d_lightstylevalue@ha
	.loc 1 1132 0
	lwzx 0,11,7
	.loc 1 1120 0
	addi 9,3,63
	.loc 1 1138 0
	la 8,d_lightstylevalue@l(8)
	.loc 1 1132 0
	stw 0,4(10)
	.loc 1 1138 0
	li 0,4
	mtctr 0
	.loc 1 1133 0
	stwx 10,11,7
.LVL178:
	.loc 1 1120 0
	addi 11,3,64
.LVL179:
.L144:
	.loc 1 1136 0 discriminator 2
	lbzu 0,1(9)
	cmpwi 7,0,255
	.loc 1 1138 0 discriminator 2
	slwi 10,0,2
	.loc 1 1136 0 discriminator 2
	beq- 7,.L146
	.loc 1 1138 0
	lwzx 10,8,10
	lwzu 0,4(11)
	cmpw 7,10,0
	bne- 7,.L145
	.loc 1 1136 0
	bdnz .L144
.L146:
	.loc 1 1141 0
	lis 11,r_framecount@ha
	lwz 9,52(3)
	lwz 0,r_framecount@l(11)
	cmpw 7,9,0
	beq- 7,.L145
	.loc 1 1142 0
	lbz 0,84(3)
	cmpwi 7,0,0
	beqlr- 7
.L145:
	.loc 1 1145 0
	lis 9,r_dynamic+12@ha
	lfs 13,r_dynamic+12@l(9)
	lis 9,.LC9@ha
	lfs 0,.LC9@l(9)
	fcmpu 7,13,0
	beqlr- 7
	.loc 1 1148 0
	lis 8,lightmap_rectchange@ha
	.loc 1 1149 0
	lwz 0,32(3)
	.loc 1 1148 0
	la 8,lightmap_rectchange@l(8)
	.loc 1 1147 0
	lis 10,lightmap_modified@ha
	.loc 1 1148 0
	add 9,8,7
.LVL180:
	.loc 1 1147 0
	li 5,1
	.loc 1 1149 0
	lbz 11,1(9)
	.loc 1 1147 0
	la 10,lightmap_modified@l(10)
	stbx 5,10,6
	.loc 1 1149 0
	cmpw 7,0,11
	blt- 7,.L148
	.loc 1 1154 0
	lwz 0,28(3)
	lbzx 10,8,7
	.loc 1 1149 0
	lbz 6,3(9)
	.loc 1 1154 0
	cmpw 7,0,10
	blt- 7,.L151
.L159:
	lbz 5,2(9)
.L152:
	.loc 1 1159 0
	lha 7,24(3)
	.loc 1 1161 0
	add 5,5,10
	.loc 1 1159 0
	srawi 7,7,4
	addi 7,7,1
.LVL181:
	.loc 1 1161 0
	add 8,7,0
	cmpw 7,5,8
	.loc 1 1160 0
	lha 8,26(3)
	srawi 8,8,4
	addi 8,8,1
.LVL182:
	.loc 1 1161 0
	bge- 7,.L154
	.loc 1 1162 0
	subf 0,10,0
	add 7,0,7
.LVL183:
	stb 7,2(9)
.L154:
	.loc 1 1163 0
	lwz 10,32(3)
	add 6,6,11
	add 8,10,8
.LVL184:
	cmpw 7,6,8
	bge- 7,.L155
	.loc 1 1164 0
	subf 11,11,8
	stb 11,3(9)
	lwz 10,32(3)
.L155:
	.loc 1 1165 0
	lis 9,lightmap_bytes@ha
.LVL185:
	lwz 4,60(3)
	lwz 5,lightmap_bytes@l(9)
	.loc 1 1166 0
	slwi 10,10,7
	lwz 0,28(3)
	.loc 1 1165 0
	lis 9,lightmaps@ha
	mullw 4,5,4
	la 9,lightmaps@l(9)
	.loc 1 1166 0
	add 0,10,0
	.loc 1 1170 0
	.loc 1 1166 0
	mullw 0,5,0
	.loc 1 1165 0
	slwi 4,4,14
	add 4,4,9
	.loc 1 1167 0
	slwi 5,5,7
	add 4,4,0
	b R_BuildLightMap
.LVL186:
.L148:
	.loc 1 1150 0
	lbz 10,3(9)
	li 6,0
	cmpwi 7,10,0
	beq- 7,.L150
	.loc 1 1151 0
	add 11,10,11
	subf 0,0,11
	rlwinm 6,0,0,0xff
	stb 6,3(9)
	lwz 0,32(3)
.L150:
	.loc 1 1152 0
	rlwinm 11,0,0,0xff
	.loc 1 1154 0
	lbzx 10,8,7
	.loc 1 1152 0
	stb 11,1(9)
	.loc 1 1154 0
	lwz 0,28(3)
	cmpw 7,0,10
	bge- 7,.L159
.L151:
	.loc 1 1155 0
	lbz 4,2(9)
	li 5,0
	cmpwi 7,4,0
	beq- 7,.L153
	.loc 1 1156 0
	add 10,4,10
	subf 0,0,10
	rlwinm 5,0,0,0xff
	stb 5,2(9)
	lwz 0,28(3)
.L153:
	.loc 1 1157 0
	rlwinm 10,0,0,0xff
	stbx 10,8,7
	lwz 0,28(3)
	b .L152
	.cfi_endproc
.LFE56:
	.size	R_RenderDynamicLightmaps, .-R_RenderDynamicLightmaps
	.align 2
	.globl R_DrawSequentialPoly
	.type	R_DrawSequentialPoly, @function
R_DrawSequentialPoly:
.LFB48:
	.loc 1 667 0
	.cfi_startproc
.LVL187:
	mflr 0
	stwu 1,-72(1)
.LCFI50:
	.cfi_def_cfa_offset 72
	.cfi_register 65, 0
	stw 30,56(1)
	stw 0,76(1)
	stw 29,52(1)
	mr 29,3
	.cfi_offset 29, -20
	.cfi_offset 65, 4
	.cfi_offset 30, -16
	.loc 1 678 0
	lwz 0,8(3)
	.loc 1 667 0
	stfd 31,64(1)
	.loc 1 678 0
	andi. 30,0,20
	.loc 1 667 0
	stw 26,40(1)
	stw 27,44(1)
	stw 28,48(1)
	stw 31,60(1)
	.loc 1 678 0
	beq- 0,.L175
	.cfi_offset 31, -12
	.cfi_offset 28, -24
	.cfi_offset 27, -28
	.cfi_offset 26, -32
	.cfi_offset 63, -8
	.loc 1 757 0
	andi. 9,0,16
	bne- 0,.L176
	.loc 1 768 0
	andi. 9,0,4
	bne- 0,.L177
	.loc 1 786 0
	lwz 0,76(1)
	lwz 26,40(1)
	mtlr 0
	lwz 27,44(1)
	lwz 28,48(1)
	lwz 29,52(1)
	lwz 30,56(1)
	lwz 31,60(1)
	lfd 31,64(1)
	addi 1,1,72
	.cfi_remember_state
.LCFI51:
	.cfi_def_cfa_offset 0
	.cfi_restore 63
	.cfi_restore 31
	.cfi_restore 30
	.cfi_restore 29
	.cfi_restore 28
	.cfi_restore 27
	.cfi_restore 26
	blr
.L177:
.LCFI52:
	.cfi_restore_state
	.loc 1 770 0
	bl GL_DisableMultitexture
.LVL188:
	.loc 1 771 0
	lis 9,solidskytexture@ha
	lwz 3,solidskytexture@l(9)
	.loc 1 772 0
	lis 28,realtime@ha
	.loc 1 773 0
	lis 30,0x4330
	lis 31,speedscale@ha
	.loc 1 771 0
	bl GL_Bind
	.loc 1 772 0
	lis 9,.LC16@ha
	lfd 13,realtime@l(28)
	.loc 1 775 0
	mr 3,29
	.loc 1 772 0
	lfs 0,.LC16@l(9)
	.loc 1 773 0
	lis 9,.LC3@ha
	lfs 31,.LC3@l(9)
	addi 9,1,32
	.loc 1 772 0
	fmul 0,13,0
	.loc 1 773 0
	stw 30,16(1)
	.loc 1 772 0
	frsp 0,0
.LVL189:
	.loc 1 773 0
	fctiwz 13,0
.LVL190:
	stfiwx 13,0,9
	lwz 0,32(1)
	rlwinm 0,0,0,0,24
	xoris 0,0,0x8000
	stw 0,20(1)
	lfd 13,16(1)
	fsub 13,13,31
	frsp 13,13
	fsubs 0,0,13
.LVL191:
	stfs 0,speedscale@l(31)
	.loc 1 775 0
	bl EmitSkyPolys
	.loc 1 777 0
	li 3,3042
	bl glEnable
	.loc 1 778 0
	lis 9,alphaskytexture@ha
	lwz 3,alphaskytexture@l(9)
	bl GL_Bind
	.loc 1 779 0
	lis 9,.LC22@ha
	lfd 13,realtime@l(28)
	.loc 1 781 0
	mr 3,29
	.loc 1 779 0
	lfs 0,.LC22@l(9)
	.loc 1 780 0
	addi 9,1,36
	stw 30,24(1)
	.loc 1 779 0
	fmul 0,13,0
	frsp 0,0
	.loc 1 780 0
	fctiwz 13,0
.LVL192:
	stfiwx 13,0,9
	lwz 0,36(1)
	rlwinm 0,0,0,0,24
	xoris 0,0,0x8000
	stw 0,28(1)
	lfd 13,24(1)
	fsub 31,13,31
	frsp 31,31
	fsubs 0,0,31
.LVL193:
	stfs 0,speedscale@l(31)
	.loc 1 781 0
	bl EmitSkyPolys
	.loc 1 783 0
	li 3,3042
	bl glDisable
	.loc 1 786 0
	lwz 0,76(1)
	lwz 26,40(1)
	mtlr 0
	lwz 27,44(1)
	lwz 28,48(1)
	lwz 29,52(1)
.LVL194:
	lwz 30,56(1)
	lwz 31,60(1)
	lfd 31,64(1)
	addi 1,1,72
	.cfi_remember_state
	.cfi_restore 26
	.cfi_restore 27
	.cfi_restore 28
	.cfi_restore 29
	.cfi_restore 30
	.cfi_restore 31
	.cfi_restore 63
.LCFI53:
	.cfi_def_cfa_offset 0
	blr
.LVL195:
.L175:
.LCFI54:
	.cfi_restore_state
	.loc 1 680 0
	bl R_RenderDynamicLightmaps
.LVL196:
	.loc 1 681 0
	lis 9,gl_mtexable@ha
	lbz 0,gl_mtexable@l(9)
	.loc 1 684 0
	lwz 9,48(29)
	.loc 1 681 0
	cmpwi 7,0,0
	beq- 7,.L162
	.loc 1 684 0
	lwz 3,36(9)
	.loc 1 682 0
	lwz 31,36(29)
.LVL197:
	.loc 1 684 0
	bl R_TextureAnimation
.LVL198:
	mr 28,3
.LVL199:
	.loc 1 686 0
	li 3,0
.LVL200:
	ori 3,3,33984
	bl GL_SelectTexture
	.loc 1 687 0
	lwz 3,24(28)
	bl GL_Bind
	.loc 1 688 0
	lis 9,.LC19@ha
	lfs 1,.LC19@l(9)
	li 3,8960
	li 4,8704
	bl glTexEnvf
	.loc 1 690 0
	bl GL_EnableMultitexture
	.loc 1 691 0
	lis 9,lightmap_textures@ha
	lwz 0,lightmap_textures@l(9)
	lwz 3,60(29)
	add 3,3,0
	bl GL_Bind
	.loc 1 692 0
	lwz 26,60(29)
.LVL201:
	.loc 1 693 0
	lis 9,lightmap_modified@ha
	la 9,lightmap_modified@l(9)
	lbzx 0,9,26
	cmpwi 7,0,0
	bne- 7,.L178
.LVL202:
.L163:
	.loc 1 708 0
	lis 9,.LC20@ha
	li 3,8960
	lfs 1,.LC20@l(9)
	li 4,8704
	bl glTexEnvf
	.loc 1 709 0
	li 3,6
	bl glBegin
	.loc 1 712 0
	lwz 0,8(31)
	.loc 1 711 0
	lis 9,globalVertexTable@ha
	lwz 30,24(31)
	.loc 1 712 0
	cmpwi 7,0,0
	.loc 1 711 0
	lwz 0,globalVertexTable@l(9)
.LVL203:
	.loc 1 712 0
	ble- 7,.L164
	.loc 1 711 0
	mulli 30,30,28
	lis 28,qglMultiTexCoord2fARB@ha
	.loc 1 712 0
	li 29,0
	la 28,qglMultiTexCoord2fARB@l(28)
	.loc 1 711 0
	add 30,0,30
.LVL204:
.L165:
	.loc 1 714 0 discriminator 2
	lwz 0,0(28)
	li 3,0
	lfs 1,12(30)
	ori 3,3,33984
	lfs 2,16(30)
	mtctr 0
	.loc 1 712 0 discriminator 2
	addi 29,29,1
	.loc 1 714 0 discriminator 2
	bctrl
	.loc 1 715 0 discriminator 2
	lwz 0,0(28)
	li 3,0
	lfs 1,20(30)
	lfs 2,24(30)
	mtctr 0
	ori 3,3,33985
	bctrl
	.loc 1 716 0 discriminator 2
	mr 3,30
	bl glVertex3fv
.LVL205:
	.loc 1 712 0 discriminator 2
	lwz 0,8(31)
	addi 30,30,28
.LVL206:
	cmpw 7,0,29
	bgt+ 7,.L165
.LVL207:
.L164:
	.loc 1 718 0
	bl glEnd
	.loc 1 786 0
	lwz 0,76(1)
	lwz 26,40(1)
	mtlr 0
	lwz 27,44(1)
	lwz 28,48(1)
	lwz 29,52(1)
	lwz 30,56(1)
	lwz 31,60(1)
.LVL208:
	lfd 31,64(1)
	addi 1,1,72
	.cfi_remember_state
	.cfi_restore 26
	.cfi_restore 27
	.cfi_restore 28
	.cfi_restore 29
	.cfi_restore 30
	.cfi_restore 31
	.cfi_restore 63
.LCFI55:
	.cfi_def_cfa_offset 0
	blr
.LVL209:
.L162:
.LCFI56:
	.cfi_restore_state
	.loc 1 723 0
	lwz 3,36(9)
	.loc 1 727 0
	lis 27,globalVertexTable@ha
	.loc 1 721 0
	lwz 28,36(29)
.LVL210:
	.loc 1 723 0
	bl R_TextureAnimation
.LVL211:
	.loc 1 724 0
	lwz 3,24(3)
.LVL212:
	bl GL_Bind
	.loc 1 725 0
	li 3,6
	bl glBegin
	.loc 1 728 0
	lwz 0,8(28)
	.loc 1 727 0
	lwz 9,globalVertexTable@l(27)
	.loc 1 728 0
	cmpwi 7,0,0
	.loc 1 727 0
	lwz 31,24(28)
.LVL213:
	.loc 1 728 0
	ble- 7,.L167
	.loc 1 727 0
	mulli 31,31,28
	.loc 1 728 0
	li 30,0
	.loc 1 727 0
	add 31,9,31
.LVL214:
.L168:
	.loc 1 730 0 discriminator 2
	lfs 1,12(31)
	.loc 1 728 0 discriminator 2
	addi 30,30,1
	.loc 1 730 0 discriminator 2
	lfs 2,16(31)
	bl glTexCoord2f
	.loc 1 731 0 discriminator 2
	mr 3,31
	bl glVertex3fv
.LVL215:
	.loc 1 728 0 discriminator 2
	lwz 0,8(28)
	addi 31,31,28
.LVL216:
	cmpw 7,0,30
	bgt+ 7,.L168
.LVL217:
.L167:
	.loc 1 733 0
	bl glEnd
	.loc 1 735 0
	lis 9,lightmap_textures@ha
	lwz 0,lightmap_textures@l(9)
	lwz 3,60(29)
	add 3,3,0
	bl GL_Bind
	.loc 1 736 0
	li 3,3042
	bl glEnable
	.loc 1 737 0
	li 3,6
	bl glBegin
	.loc 1 740 0
	lwz 0,8(28)
	.loc 1 739 0
	lwz 9,globalVertexTable@l(27)
	.loc 1 740 0
	cmpwi 7,0,0
	.loc 1 739 0
	lwz 31,24(28)
.LVL218:
	.loc 1 740 0
	ble- 7,.L169
	.loc 1 739 0
	mulli 31,31,28
	.loc 1 740 0
	li 30,0
	.loc 1 739 0
	add 31,9,31
.LVL219:
.L170:
	.loc 1 742 0 discriminator 2
	lfs 1,20(31)
	.loc 1 740 0 discriminator 2
	addi 30,30,1
	.loc 1 742 0 discriminator 2
	lfs 2,24(31)
	bl glTexCoord2f
	.loc 1 743 0 discriminator 2
	mr 3,31
	bl glVertex3fv
.LVL220:
	.loc 1 740 0 discriminator 2
	lwz 0,8(28)
	addi 31,31,28
.LVL221:
	cmpw 7,0,30
	bgt+ 7,.L170
.LVL222:
.L169:
	.loc 1 745 0
	bl glEnd
	.loc 1 747 0
	li 3,3042
	bl glDisable
	.loc 1 786 0
	lwz 0,76(1)
	lwz 26,40(1)
	mtlr 0
	lwz 27,44(1)
	lwz 28,48(1)
.LVL223:
	lwz 29,52(1)
.LVL224:
	lwz 30,56(1)
	lwz 31,60(1)
	lfd 31,64(1)
	addi 1,1,72
	.cfi_remember_state
	.cfi_restore 26
	.cfi_restore 27
	.cfi_restore 28
	.cfi_restore 29
	.cfi_restore 30
	.cfi_restore 31
	.cfi_restore 63
.LCFI57:
	.cfi_def_cfa_offset 0
	blr
.LVL225:
.L176:
.LCFI58:
	.cfi_restore_state
	.loc 1 759 0
	bl GL_DisableMultitexture
.LVL226:
	.loc 1 760 0
	lwz 9,48(29)
	lwz 9,36(9)
	lwz 3,24(9)
	bl GL_Bind
	.loc 1 761 0
	mr 3,29
	bl EmitWaterPolys
	.loc 1 786 0
	lwz 0,76(1)
	lwz 26,40(1)
	mtlr 0
	lwz 27,44(1)
	lwz 28,48(1)
	lwz 29,52(1)
.LVL227:
	lwz 30,56(1)
	lwz 31,60(1)
	lfd 31,64(1)
	addi 1,1,72
	.cfi_remember_state
	.cfi_restore 26
	.cfi_restore 27
	.cfi_restore 28
	.cfi_restore 29
	.cfi_restore 30
	.cfi_restore 31
	.cfi_restore 63
.LCFI59:
	.cfi_def_cfa_offset 0
	blr
.LVL228:
.L178:
.LCFI60:
	.cfi_restore_state
	.loc 1 695 0
	stbx 30,9,26
	.loc 1 696 0
	lis 28,lightmap_rectchange@ha
.LVL229:
	la 28,lightmap_rectchange@l(28)
	slwi 27,26,2
	.loc 1 698 0
	li 3,3553
	li 4,10242
	li 5,10497
	.loc 1 696 0
	add 29,27,28
.LVL230:
	.loc 1 698 0
	bl glTexParameteri
	.loc 1 699 0
	li 3,3553
	li 4,10243
	li 5,10497
	bl glTexParameteri
	.loc 1 700 0
	lbz 6,1(29)
	.loc 1 702 0
	lis 9,lightmap_bytes@ha
	slwi 11,26,7
	lwz 0,lightmap_bytes@l(9)
	add 11,6,11
	slwi 11,11,7
	.loc 1 700 0
	lis 10,lightmaps@ha
	.loc 1 702 0
	mullw 11,11,0
	.loc 1 700 0
	lis 9,gl_lightmap_format@ha
	lbz 8,3(29)
	la 0,lightmaps@l(10)
	lwz 9,gl_lightmap_format@l(9)
	li 3,3553
	li 4,0
	add 0,11,0
	li 5,0
	li 7,128
	li 10,5121
	stw 0,8(1)
	bl glTexSubImage2D
	.loc 1 703 0
	li 0,-128
	.loc 1 705 0
	stb 30,3(29)
	.loc 1 703 0
	stbx 0,27,28
	.loc 1 704 0
	stb 0,1(29)
	.loc 1 706 0
	stb 30,2(29)
	b .L163
	.cfi_endproc
.LFE48:
	.size	R_DrawSequentialPoly, .-R_DrawSequentialPoly
	.align 2
	.globl R_MirrorChain
	.type	R_MirrorChain, @function
R_MirrorChain:
.LFB57:
	.loc 1 1178 0
	.cfi_startproc
.LVL231:
	.loc 1 1184 0
	blr
	.cfi_endproc
.LFE57:
	.size	R_MirrorChain, .-R_MirrorChain
	.align 2
	.globl R_DrawWaterSurfaces
	.type	R_DrawWaterSurfaces, @function
R_DrawWaterSurfaces:
.LFB58:
	.loc 1 1243 0
	.cfi_startproc
	stwu 1,-56(1)
.LCFI61:
	.cfi_def_cfa_offset 56
	mflr 0
	.loc 1 1258 0
	lis 3,r_world_matrix@ha
	.loc 1 1243 0
	stw 29,36(1)
	.loc 1 1260 0
	lis 29,r_wateralpha@ha
	.cfi_offset 29, -20
	.cfi_register 65, 0
	.loc 1 1243 0
	stw 28,32(1)
	.loc 1 1258 0
	la 3,r_world_matrix@l(3)
	.loc 1 1260 0
	la 29,r_wateralpha@l(29)
	lis 28,.LC18@ha
	.cfi_offset 28, -24
	.loc 1 1243 0
	stfd 31,48(1)
	stw 0,60(1)
	stw 23,12(1)
	stw 24,16(1)
	stw 25,20(1)
	stw 26,24(1)
	stw 27,28(1)
	stw 30,40(1)
	stw 31,44(1)
	.loc 1 1258 0
	.cfi_offset 31, -12
	.cfi_offset 30, -16
	.cfi_offset 27, -28
	.cfi_offset 26, -32
	.cfi_offset 25, -36
	.cfi_offset 24, -40
	.cfi_offset 23, -44
	.cfi_offset 65, 4
	.cfi_offset 63, -8
	bl glLoadMatrixf
	.loc 1 1260 0
	lfs 31,.LC18@l(28)
	lfs 0,12(29)
	fcmpu 7,0,31
	bnl- 7,.L207
	.loc 1 1261 0
	lis 9,gl_watershader+12@ha
	.loc 1 1262 0
	li 3,3042
	.loc 1 1261 0
	lfs 0,gl_watershader+12@l(9)
	fcmpu 7,0,31
	blt- 7,.L211
	.loc 1 1267 0
	bl glEnable
	.loc 1 1268 0
	fmr 2,31
	fmr 3,31
	lfs 4,12(29)
	fmr 1,31
	bl glColor4f
	.loc 1 1269 0
	lis 9,.LC17@ha
	lfs 1,.LC17@l(9)
	li 3,8960
	li 4,8704
	bl glTexEnvf
	.loc 1 1272 0
	li 3,770
	li 4,771
	bl glBlendFunc
	.loc 1 1273 0
	li 3,5890
	bl glMatrixMode
	.loc 1 1274 0
	bl glLoadIdentity
.L185:
.LVL232:
	.loc 1 1292 0 discriminator 1
	lis 30,cl@ha
	li 31,0
	la 30,cl@l(30)
	lwz 9,2688(30)
	lwz 0,396(9)
	cmpwi 7,0,0
	ble- 7,.L187
	.loc 1 1325 0
	lis 26,fog_color@ha
	.loc 1 1318 0
	lis 27,gl_watershader@ha
	.loc 1 1320 0
	lis 25,.LC17@ha
	.loc 1 1325 0
	la 26,fog_color@l(26)
	b .L203
.LVL233:
.L188:
	.loc 1 1292 0
	lwz 9,2688(30)
	addi 31,31,1
.LVL234:
	lwz 0,396(9)
	cmpw 7,0,31
	ble- 7,.L187
.LVL235:
.L203:
	.loc 1 1294 0
	lwz 9,400(9)
	slwi 0,31,2
	lwzx 23,9,0
.LVL236:
	.loc 1 1295 0
	cmpwi 7,23,0
	beq- 7,.L188
	.loc 1 1297 0
	lwz 24,32(23)
.LVL237:
	.loc 1 1298 0
	cmpwi 7,24,0
	beq- 7,.L188
	.loc 1 1300 0
	lwz 0,8(24)
.LVL238:
	andi. 9,0,16
	beq- 0,.L188
	.loc 1 1303 0
	andi. 9,0,256
	bne+ 0,.L188
	.loc 1 1308 0
	mr 3,23
	bl OverrideFluidTex
.LVL239:
	cmpwi 7,3,0
	beq- 7,.L212
.L204:
	.loc 1 1313 0 discriminator 2
	mr 3,24
	bl EmitWaterPolys
	.loc 1 1312 0 discriminator 2
	lwz 24,40(24)
.LVL240:
	cmpwi 7,24,0
	bne+ 7,.L204
	.loc 1 1318 0
	la 9,gl_watershader@l(27)
	lfs 0,.LC18@l(28)
	lfs 13,12(9)
	.loc 1 1315 0
	stw 24,32(23)
	.loc 1 1318 0
	fcmpu 7,13,0
	bne- 7,.L188
	.loc 1 1318 0 is_stmt 0 discriminator 1
	lfs 13,12(29)
	fcmpu 7,13,0
	bnl+ 7,.L188
	.loc 1 1319 0 is_stmt 1
	bl glLoadIdentity
	.loc 1 1320 0
	lfs 1,.LC17@l(25)
	li 4,8704
	li 3,8960
	bl glTexEnvf
	.loc 1 1292 0
	addi 31,31,1
	.loc 1 1321 0
	bl GL_DisableMultitexture
	.loc 1 1322 0
	bl glLoadIdentity
	.loc 1 1323 0
	li 3,3168
	bl glDisable
	.loc 1 1324 0
	li 3,3169
	bl glDisable
	.loc 1 1325 0
	li 3,2918
	mr 4,26
	bl glFogfv
.LVL241:
	.loc 1 1292 0
	lwz 9,2688(30)
	lwz 0,396(9)
	cmpw 7,0,31
	bgt+ 7,.L203
.LVL242:
.L187:
	.loc 1 1330 0
	lfs 4,12(29)
	lfs 31,.LC18@l(28)
	fcmpu 7,4,31
	bnl- 7,.L209
	.loc 1 1332 0
	lis 9,gl_watershader+12@ha
	lfs 0,gl_watershader+12@l(9)
	fcmpu 7,0,31
	bnl- 7,.L210
	.loc 1 1333 0
	fmr 2,31
	fmr 3,31
	fmr 1,31
	bl glColor4f
	.loc 1 1334 0
	lis 9,.LC19@ha
	lfs 1,.LC19@l(9)
	li 3,8960
	li 4,8704
	bl glTexEnvf
	.loc 1 1335 0
	li 3,3042
	bl glDisable
	.loc 1 1349 0
	lwz 0,60(1)
	lwz 23,12(1)
	mtlr 0
	lwz 24,16(1)
	lwz 25,20(1)
	lwz 26,24(1)
	lwz 27,28(1)
	lwz 28,32(1)
	lwz 29,36(1)
	lwz 30,40(1)
	lwz 31,44(1)
	lfd 31,48(1)
	addi 1,1,56
	.cfi_remember_state
.LCFI62:
	.cfi_def_cfa_offset 0
	.cfi_restore 63
	.cfi_restore 31
	.cfi_restore 30
	.cfi_restore 29
	.cfi_restore 28
	.cfi_restore 27
	.cfi_restore 26
	.cfi_restore 25
	.cfi_restore 24
	.cfi_restore 23
	blr
.L211:
.LCFI63:
	.cfi_restore_state
	.loc 1 1262 0
	bl glEnable
	.loc 1 1263 0
	fmr 1,31
	fmr 2,31
	lfs 4,12(29)
	fmr 3,31
	bl glColor4f
	.loc 1 1264 0
	lis 9,.LC17@ha
	lfs 1,.LC17@l(9)
	li 3,8960
	li 4,8704
	bl glTexEnvf
	.loc 1 1265 0
	li 3,770
	li 4,771
	bl glBlendFunc
	b .L185
.L210:
	.loc 1 1338 0
	lis 9,.LC19@ha
	li 3,8960
	lfs 1,.LC19@l(9)
	li 4,8704
	bl glTexEnvf
	.loc 1 1340 0
	fmr 1,31
	fmr 2,31
	fmr 3,31
	fmr 4,31
	bl glColor4f
	.loc 1 1341 0
	li 4,771
	li 3,770
	bl glBlendFunc
	.loc 1 1342 0
	li 3,3042
	bl glDisable
	.loc 1 1343 0
	li 3,5888
	bl glMatrixMode
	.loc 1 1349 0
	lwz 0,60(1)
	lwz 23,12(1)
	mtlr 0
	lwz 24,16(1)
	lwz 25,20(1)
	lwz 26,24(1)
	lwz 27,28(1)
	lwz 28,32(1)
	lwz 29,36(1)
	lwz 30,40(1)
	lwz 31,44(1)
	lfd 31,48(1)
	addi 1,1,56
	.cfi_remember_state
	.cfi_restore 23
	.cfi_restore 24
	.cfi_restore 25
	.cfi_restore 26
	.cfi_restore 27
	.cfi_restore 28
	.cfi_restore 29
	.cfi_restore 30
	.cfi_restore 31
	.cfi_restore 63
.LCFI64:
	.cfi_def_cfa_offset 0
	blr
.LVL243:
.L212:
.LCFI65:
	.cfi_restore_state
	.loc 1 1309 0
	lwz 3,24(23)
	bl GL_Bind
	b .L204
.LVL244:
.L209:
	.loc 1 1346 0
	li 3,770
	li 4,771
	bl glBlendFunc
	.loc 1 1349 0
	lwz 0,60(1)
	lwz 23,12(1)
	mtlr 0
	lwz 24,16(1)
	lwz 25,20(1)
	lwz 26,24(1)
	lwz 27,28(1)
	lwz 28,32(1)
	lwz 29,36(1)
	lwz 30,40(1)
	lwz 31,44(1)
	lfd 31,48(1)
	addi 1,1,56
	.cfi_remember_state
	.cfi_restore 23
	.cfi_restore 24
	.cfi_restore 25
	.cfi_restore 26
	.cfi_restore 27
	.cfi_restore 28
	.cfi_restore 29
	.cfi_restore 30
	.cfi_restore 31
	.cfi_restore 63
.LCFI66:
	.cfi_def_cfa_offset 0
	blr
.L207:
.LCFI67:
	.cfi_restore_state
	.loc 1 1277 0
	fmr 1,31
	fmr 2,31
	fmr 3,31
	fmr 4,31
	bl glColor4f
	b .L185
	.cfi_endproc
.LFE58:
	.size	R_DrawWaterSurfaces, .-R_DrawWaterSurfaces
	.align 2
	.globl DrawTextureChains
	.type	DrawTextureChains, @function
DrawTextureChains:
.LFB59:
	.loc 1 1362 0
	.cfi_startproc
.LVL245:
	mflr 0
	stwu 1,-80(1)
.LCFI68:
	.cfi_def_cfa_offset 80
	.cfi_register 65, 0
	.loc 1 1370 0
	li 3,1
	.loc 1 1362 0
	stfd 31,72(1)
	stw 0,84(1)
	stw 23,36(1)
	.loc 1 1373 0
	lis 23,sh_lightmapbright@ha
	.cfi_offset 23, -44
	.cfi_offset 65, 4
	.cfi_offset 63, -8
	.loc 1 1362 0
	stw 17,12(1)
	.loc 1 1373 0
	la 23,sh_lightmapbright@l(23)
	.loc 1 1362 0
	stw 18,16(1)
	stw 19,20(1)
	stw 20,24(1)
	stw 21,28(1)
	stw 22,32(1)
	stw 24,40(1)
	stw 25,44(1)
	stw 26,48(1)
	stw 27,52(1)
	stw 28,56(1)
	stw 29,60(1)
	stw 30,64(1)
	stw 31,68(1)
	.loc 1 1370 0
	.cfi_offset 31, -12
	.cfi_offset 30, -16
	.cfi_offset 29, -20
	.cfi_offset 28, -24
	.cfi_offset 27, -28
	.cfi_offset 26, -32
	.cfi_offset 25, -36
	.cfi_offset 24, -40
	.cfi_offset 22, -48
	.cfi_offset 21, -52
	.cfi_offset 20, -56
	.cfi_offset 19, -60
	.cfi_offset 18, -64
	.cfi_offset 17, -68
	bl glDepthMask
	.loc 1 1371 0
	bl GL_DisableMultitexture
	.loc 1 1372 0
	lis 9,.LC17@ha
	lfs 31,.LC17@l(9)
	li 3,8960
	li 4,8704
	fmr 1,31
	bl glTexEnvf
	.loc 1 1373 0
	lfs 1,12(23)
	fmr 2,1
	fmr 3,1
	bl glColor3f
	.loc 1 1375 0
	bl GL_EnableMultitexture
	.loc 1 1376 0
	lis 9,sh_colormaps+12@ha
	lis 8,.LC9@ha
	lfs 13,sh_colormaps+12@l(9)
	lfs 0,.LC9@l(8)
	fcmpu 7,13,0
	beq- 7,.L214
	.loc 1 1377 0
	fmr 1,31
	li 3,8960
	li 4,8704
	bl glTexEnvf
	.loc 1 1395 0
	lis 9,gl_wireframe+12@ha
	lfs 13,gl_wireframe+12@l(9)
	lis 9,.LC9@ha
	lfs 0,.LC9@l(9)
	fcmpu 7,13,0
	bne- 7,.L232
.L216:
	.loc 1 1406 0
	lis 26,cl@ha
	.loc 1 1402 0
	li 0,0
	lis 24,causticschain@ha
	.loc 1 1404 0
	li 3,3
	.loc 1 1406 0
	la 26,cl@l(26)
	.loc 1 1402 0
	stw 0,causticschain@l(24)
	.loc 1 1404 0
	bl R_EnableVertexTable
.LVL246:
	.loc 1 1406 0
	lwz 9,2688(26)
	lwz 0,396(9)
	cmpwi 7,0,0
	ble- 7,.L217
	.loc 1 1456 0
	lis 17,color_black@ha
	.loc 1 1478 0
	lis 19,fog_color@ha
	.loc 1 1406 0
	li 30,0
	.loc 1 1418 0
	lis 25,skytexturenum@ha
	lis 20,lightmap_textures@ha
	lis 21,c_brush_polys@ha
	.loc 1 1496 0
	li 22,0
	.loc 1 1456 0
	la 17,color_black@l(17)
	.loc 1 1462 0
	lis 18,.LC18@ha
	.loc 1 1478 0
	la 19,fog_color@l(19)
	b .L226
.LVL247:
.L218:
	.loc 1 1406 0
	lwz 9,2688(26)
	addi 30,30,1
.LVL248:
	lwz 0,396(9)
	cmpw 7,0,30
	ble- 7,.L217
.LVL249:
.L226:
	.loc 1 1408 0
	lwz 9,400(9)
	slwi 0,30,2
	lwzx 29,9,0
.LVL250:
	.loc 1 1409 0
	cmpwi 7,29,0
	beq- 7,.L218
	.loc 1 1412 0
	lwz 31,32(29)
.LVL251:
	.loc 1 1413 0
	cmpwi 7,31,0
	beq- 7,.L218
.LVL252:
	.loc 1 1418 0
	lwz 0,skytexturenum@l(25)
.LVL253:
	cmpw 7,30,0
	beq- 7,.L218
	.loc 1 1433 0
	lwz 0,8(31)
	andi. 8,0,16
	bne+ 0,.L218
	.loc 1 1436 0
	li 3,0
	la 27,lightmap_textures@l(20)
	ori 3,3,33984
	la 28,c_brush_polys@l(21)
	bl GL_SelectTexture
.LVL254:
	.loc 1 1437 0
	lwz 9,48(31)
	lwz 3,36(9)
	bl R_TextureAnimation
.LVL255:
	.loc 1 1438 0
	lwz 3,24(3)
.LVL256:
	bl GL_Bind
	.loc 1 1442 0
	li 3,0
	ori 3,3,33985
	bl GL_SelectTexture
.L219:
	.loc 1 1445 0
	lwz 0,0(27)
	lwz 3,60(31)
	add 3,3,0
	bl GL_Bind
	.loc 1 1446 0
	lwz 9,36(31)
	li 3,6
	lwz 4,24(9)
	lwz 5,8(9)
	bl glDrawArrays
	.loc 1 1447 0
	lwz 31,40(31)
.LVL257:
	.loc 1 1448 0
	lwz 9,0(28)
	.loc 1 1443 0
	cmpwi 7,31,0
	.loc 1 1448 0
	addi 0,9,1
	stw 0,0(28)
	.loc 1 1443 0
	bne+ 7,.L219
	.loc 1 1450 0
	li 3,0
	ori 3,3,33984
	bl GL_SelectTexture
	.loc 1 1454 0
	lwz 0,28(29)
	cmpwi 7,0,0
	bne- 7,.L233
.L220:
	.loc 1 1481 0
	lwz 9,32(29)
.LVL258:
	.loc 1 1483 0
	lwz 10,causticschain@l(24)
	cmpwi 7,9,0
	beq- 7,.L223
.LVL259:
.L225:
.LBB12:
	.loc 1 1488 0
	lwz 11,8(9)
	.loc 1 1486 0
	lwz 0,40(9)
.LVL260:
	.loc 1 1488 0
	andi. 8,11,128
.LBE12:
	.loc 1 1483 0
	cmpwi 7,0,0
.LBB13:
	.loc 1 1488 0
	beq- 0,.L224
	.loc 1 1489 0
	stw 10,40(9)
	mr 10,9
.L224:
.LBE13:
	.loc 1 1483 0 discriminator 1
	beq- 7,.L234
	.loc 1 1483 0 is_stmt 0
	mr 9,0
.LVL261:
	b .L225
.LVL262:
.L234:
	stw 10,causticschain@l(24)
.LVL263:
.L223:
	.loc 1 1406 0 is_stmt 1
	lwz 9,2688(26)
	addi 30,30,1
.LVL264:
	.loc 1 1496 0
	stw 22,32(29)
	.loc 1 1406 0
	lwz 0,396(9)
	cmpw 7,0,30
	bgt+ 7,.L226
.LVL265:
.L217:
	.loc 1 1498 0
	li 3,3
	bl R_DisableVertexTable
	.loc 1 1499 0
	li 3,0
	ori 3,3,33985
	bl GL_SelectTexture
	.loc 1 1500 0
	bl GL_DisableMultitexture
	.loc 1 1502 0
	li 3,770
	li 4,771
	bl glBlendFunc
	.loc 1 1503 0
	li 3,1
	bl glDepthMask
	.loc 1 1504 0
	lwz 0,84(1)
	lwz 17,12(1)
	mtlr 0
	lwz 18,16(1)
	lwz 19,20(1)
	lwz 20,24(1)
	lwz 21,28(1)
	lwz 22,32(1)
	lwz 23,36(1)
	lwz 24,40(1)
	lwz 25,44(1)
	lwz 26,48(1)
	lwz 27,52(1)
	lwz 28,56(1)
	lwz 29,60(1)
	lwz 30,64(1)
	lwz 31,68(1)
	lfd 31,72(1)
	addi 1,1,80
	.cfi_remember_state
.LCFI69:
	.cfi_def_cfa_offset 0
	.cfi_restore 63
	.cfi_restore 31
	.cfi_restore 30
	.cfi_restore 29
	.cfi_restore 28
	.cfi_restore 27
	.cfi_restore 26
	.cfi_restore 25
	.cfi_restore 24
	.cfi_restore 23
	.cfi_restore 22
	.cfi_restore 21
	.cfi_restore 20
	.cfi_restore 19
	.cfi_restore 18
	.cfi_restore 17
	blr
.LVL266:
.L214:
.LCFI70:
	.cfi_restore_state
	.loc 1 1384 0
	li 3,0
	ori 3,3,33984
	bl GL_SelectTexture
	.loc 1 1385 0
	li 3,3553
	bl glDisable
	.loc 1 1386 0
	li 3,0
	ori 3,3,33985
	bl GL_SelectTexture
	.loc 1 1387 0
	lis 9,.LC23@ha
	lfs 1,.LC23@l(9)
	li 3,8960
	li 4,8704
	bl glTexEnvf
	.loc 1 1388 0
	lis 9,.LC24@ha
	lfs 1,.LC24@l(9)
	li 4,0
	li 3,8960
	ori 4,4,34176
	bl glTexEnvf
	.loc 1 1389 0
	lis 9,.LC25@ha
	lfs 1,.LC25@l(9)
	li 4,0
	li 3,8960
	ori 4,4,34177
	bl glTexEnvf
	.loc 1 1390 0
	fmr 1,31
	li 4,0
	li 3,8960
	ori 4,4,34161
	bl glTexEnvf
	.loc 1 1395 0
	lis 9,gl_wireframe+12@ha
	lfs 13,gl_wireframe+12@l(9)
	lis 9,.LC9@ha
	lfs 0,.LC9@l(9)
	fcmpu 7,13,0
	beq+ 7,.L216
.L232:
	.loc 1 1396 0
	li 3,0
	ori 3,3,33984
	bl GL_SelectTexture
	.loc 1 1397 0
	li 3,3553
	bl glDisable
	.loc 1 1398 0
	li 3,0
	ori 3,3,33985
	bl GL_SelectTexture
	.loc 1 1399 0
	li 3,3553
	bl glDisable
	b .L216
.LVL267:
.L233:
	.loc 1 1456 0
	mr 4,17
	li 3,2918
	bl glFogfv
	.loc 1 1457 0
	li 3,3042
	bl glEnable
	.loc 1 1458 0
	li 4,1
	li 3,1
	bl glBlendFunc
	.loc 1 1459 0
	li 3,0
	ori 3,3,33985
	bl GL_SelectTexture
	.loc 1 1460 0
	li 3,3553
	bl glDisable
	.loc 1 1461 0
	li 3,0
	ori 3,3,33984
	bl GL_SelectTexture
	.loc 1 1462 0
	lfs 1,.LC18@l(18)
	fmr 2,1
	fmr 3,1
	bl glColor3f
	.loc 1 1464 0
	lwz 31,32(29)
.LVL268:
	.loc 1 1465 0
	lwz 3,28(29)
	bl GL_Bind
.LVL269:
	.loc 1 1467 0
	cmpwi 7,31,0
	beq- 7,.L221
.L228:
	.loc 1 1469 0 discriminator 2
	lwz 9,36(31)
	li 3,6
	lwz 4,24(9)
	lwz 5,8(9)
	bl glDrawArrays
	.loc 1 1467 0 discriminator 2
	lwz 31,40(31)
.LVL270:
	cmpwi 7,31,0
	bne+ 7,.L228
.L221:
	.loc 1 1472 0
	lfs 1,12(23)
	fmr 2,1
	fmr 3,1
	bl glColor3f
	.loc 1 1473 0
	li 3,0
	ori 3,3,33985
	bl GL_SelectTexture
	.loc 1 1474 0
	li 3,3553
	bl glEnable
	.loc 1 1475 0
	li 3,0
	ori 3,3,33984
	bl GL_SelectTexture
	.loc 1 1476 0
	li 3,0
	ori 3,3,33985
	bl GL_SelectTexture
	.loc 1 1477 0
	li 3,3042
	bl glDisable
	.loc 1 1478 0
	li 3,2918
	mr 4,19
	bl glFogfv
	b .L220
	.cfi_endproc
.LFE59:
	.size	DrawTextureChains, .-DrawTextureChains
	.align 2
	.globl R_DrawCaustics
	.type	R_DrawCaustics, @function
R_DrawCaustics:
.LFB60:
	.loc 1 1516 0
	.cfi_startproc
	.loc 1 1616 0
	blr
	.cfi_endproc
.LFE60:
	.size	R_DrawCaustics, .-R_DrawCaustics
	.align 2
	.globl R_DrawBrushModelCaustics
	.type	R_DrawBrushModelCaustics, @function
R_DrawBrushModelCaustics:
.LFB61:
	.loc 1 1787 0
	.cfi_startproc
.LVL271:
	mflr 0
	stwu 1,-120(1)
.LCFI71:
	.cfi_def_cfa_offset 120
	.cfi_register 65, 0
	.loc 1 1803 0
	lis 9,.LC9@ha
	lfs 0,.LC9@l(9)
	.loc 1 1798 0
	lis 9,currententity@ha
	.loc 1 1787 0
	stw 0,124(1)
	.loc 1 1799 0
	li 0,-1
	.cfi_offset 65, 4
	.loc 1 1798 0
	stw 3,currententity@l(9)
	.loc 1 1799 0
	lis 9,currenttexture@ha
	.loc 1 1803 0
	lfs 13,148(3)
	.loc 1 1787 0
	stw 29,84(1)
	.loc 1 1803 0
	fcmpu 7,13,0
	.loc 1 1787 0
	stw 30,88(1)
	stfd 29,96(1)
	mr 30,3
	.cfi_offset 61, -24
	.cfi_offset 30, -32
	.cfi_offset 29, -36
	stfd 30,104(1)
	stfd 31,112(1)
	stw 26,72(1)
	stw 27,76(1)
	stw 28,80(1)
	stw 31,92(1)
	.loc 1 1799 0
	stw 0,currenttexture@l(9)
	.loc 1 1801 0
	lwz 29,160(3)
.LVL272:
	.loc 1 1803 0
	bne- 7,.L237
	.cfi_offset 31, -28
	.cfi_offset 28, -40
	.cfi_offset 27, -44
	.cfi_offset 26, -48
	.cfi_offset 63, -8
	.cfi_offset 62, -16
	.loc 1 1803 0 is_stmt 0 discriminator 1
	lfs 13,152(3)
	fcmpu 7,13,0
	beq- 7,.L238
.L237:
	.loc 1 1803 0 discriminator 2
	lfs 13,108(29)
	.loc 1 1787 0 is_stmt 1 discriminator 2
	li 9,0
	addi 3,1,56
.LVL273:
	addi 4,1,44
.L239:
	.loc 1 1786 0 discriminator 2
	add 11,30,9
	.loc 1 1806 0 discriminator 2
	cmpwi 7,9,8
	.loc 1 1808 0 discriminator 2
	lfs 0,112(11)
	fsubs 12,0,13
	.loc 1 1809 0 discriminator 2
	fadds 0,0,13
	.loc 1 1808 0 discriminator 2
	stfsx 12,3,9
	.loc 1 1809 0 discriminator 2
	stfsx 0,4,9
	.loc 1 1806 0 discriminator 2
	addi 9,9,4
	bne+ 7,.L239
	.loc 1 1805 0
	li 31,1
.LVL274:
.L241:
	.loc 1 1819 0
	bl R_CullBox
.LVL275:
	cmpwi 7,3,0
	bne- 7,.L236
	.loc 1 1822 0
	lis 9,r_refdef@ha
	lfs 12,112(30)
	la 9,r_refdef@l(9)
	lfs 13,116(30)
	lfs 30,112(9)
	.loc 1 1823 0
	cmpwi 7,31,0
	.loc 1 1822 0
	lfs 29,116(9)
	lis 28,modelorg@ha
	lfs 31,120(9)
	fsubs 30,30,12
	lfs 0,120(30)
	fsubs 29,29,13
	la 31,modelorg@l(28)
.LVL276:
	fsubs 31,31,0
	stfs 30,modelorg@l(28)
	stfs 29,4(31)
	stfs 31,8(31)
	.loc 1 1823 0
	bne- 7,.L253
.L243:
	.loc 1 1835 0
	lwz 28,208(29)
	lwz 27,140(29)
.LVL277:
	.loc 1 1837 0
	bl glPushMatrix
.LVL278:
	.loc 1 1838 0
	lfs 0,148(30)
	.loc 1 1839 0
	mr 3,30
	.loc 1 1838 0
	fneg 0,0
	stfs 0,148(30)
	.loc 1 1839 0
	bl R_RotateForEntity
	.loc 1 1840 0
	lfs 0,148(30)
	.loc 1 1843 0
	lis 9,.LC17@ha
	li 3,8960
	.loc 1 1840 0
	fneg 0,0
	.loc 1 1843 0
	lfs 1,.LC17@l(9)
	li 4,8704
	.loc 1 1840 0
	stfs 0,148(30)
	.loc 1 1843 0
	bl glTexEnvf
.LVL279:
	.loc 1 1848 0
	lwz 0,144(29)
	cmpwi 7,0,0
	ble- 7,.L244
	.loc 1 1835 0
	mulli 27,27,92
.LVL280:
	.loc 1 1848 0
	li 30,0
.LVL281:
	.loc 1 1857 0
	lis 26,.LC27@ha
	.loc 1 1835 0
	add 28,28,27
	.loc 1 1856 0
	lis 27,.LC26@ha
	b .L249
.LVL282:
.L245:
	.loc 1 1857 0
	lfd 12,.LC27@l(26)
	fcmpu 7,0,12
	bng- 7,.L247
.L246:
	.loc 1 1859 0
	bl R_RenderBrushPolyCaustics
.LVL283:
	lwz 0,144(29)
.L247:
	.loc 1 1848 0
	addi 30,30,1
.LVL284:
	addi 28,28,92
.LVL285:
	cmpw 7,0,30
	ble- 7,.L244
.LVL286:
.L249:
	.loc 1 1851 0
	lwz 9,4(28)
.LVL287:
	.loc 1 1859 0
	mr 3,28
	.loc 1 1853 0
	lfs 11,4(31)
	lfs 0,4(9)
	lfs 12,0(31)
	fmuls 11,11,0
	lfs 0,0(9)
	.loc 1 1856 0
	lwz 11,8(28)
	.loc 1 1853 0
	lfs 13,8(31)
	fmadds 12,12,0,11
	lfs 0,8(9)
	.loc 1 1856 0
	andi. 10,11,2
	.loc 1 1853 0
	fmadds 13,13,0,12
	lfs 0,12(9)
	fsubs 0,13,0
.LVL288:
	.loc 1 1856 0
	beq- 0,.L245
	.loc 1 1856 0 is_stmt 0 discriminator 1
	lfd 12,.LC26@l(27)
	fcmpu 7,0,12
	blt- 7,.L246
	.loc 1 1848 0 is_stmt 1
	addi 30,30,1
.LVL289:
	addi 28,28,92
.LVL290:
	cmpw 7,0,30
	bgt+ 7,.L249
.LVL291:
.L244:
	.loc 1 1864 0
	lis 9,.LC19@ha
	li 3,8960
	lfs 1,.LC19@l(9)
	li 4,8704
	bl glTexEnvf
	.loc 1 1865 0
	bl glPopMatrix
.L236:
	.loc 1 1866 0
	lwz 0,124(1)
	lwz 26,72(1)
	mtlr 0
	lwz 27,76(1)
	lwz 28,80(1)
	lwz 29,84(1)
.LVL292:
	lwz 30,88(1)
	lwz 31,92(1)
	lfd 29,96(1)
	lfd 30,104(1)
	lfd 31,112(1)
	addi 1,1,120
	.cfi_remember_state
.LCFI72:
	.cfi_def_cfa_offset 0
	.cfi_restore 63
	.cfi_restore 62
	.cfi_restore 61
	.cfi_restore 31
	.cfi_restore 30
	.cfi_restore 29
	.cfi_restore 28
	.cfi_restore 27
	.cfi_restore 26
	blr
.LVL293:
.L238:
.LCFI73:
	.cfi_restore_state
	.loc 1 1803 0 discriminator 1
	lfs 13,156(3)
	fcmpu 7,13,0
	bne- 7,.L237
.LVL294:
	.loc 1 1815 0
	lfs 12,112(3)
	.loc 1 1814 0
	li 31,0
	.loc 1 1815 0
	lfs 13,116(3)
	addi 4,1,44
	lfs 0,120(3)
	addi 3,1,56
.LVL295:
	lfs 9,84(29)
	lfs 10,88(29)
	lfs 11,92(29)
	fadds 9,12,9
	.loc 1 1816 0
	lfs 6,96(29)
	.loc 1 1815 0
	fadds 10,13,10
	.loc 1 1816 0
	lfs 7,100(29)
	.loc 1 1815 0
	fadds 11,0,11
	.loc 1 1816 0
	lfs 8,104(29)
	fadds 12,12,6
	fadds 13,13,7
	.loc 1 1815 0
	stfs 9,56(1)
	.loc 1 1816 0
	fadds 0,0,8
	.loc 1 1815 0
	stfs 10,60(1)
	stfs 11,64(1)
	.loc 1 1816 0
	stfs 12,44(1)
	stfs 13,48(1)
	stfs 0,52(1)
	b .L241
.LVL296:
.L253:
.LBB14:
	.loc 1 1829 0
	addi 3,30,148
	addi 4,1,32
	addi 5,1,20
	addi 6,1,8
	bl AngleVectors
	.loc 1 1830 0
	lfs 13,36(1)
	.loc 1 1832 0
	lfs 12,12(1)
	.loc 1 1831 0
	lfs 0,24(1)
	.loc 1 1830 0
	fmuls 13,29,13
	.loc 1 1831 0
	fmuls 0,29,0
	.loc 1 1832 0
	fmuls 29,29,12
.LVL297:
	.loc 1 1830 0
	lfs 12,32(1)
	fmadds 13,30,12,13
	.loc 1 1831 0
	lfs 12,20(1)
	fmadds 0,30,12,0
	.loc 1 1832 0
	lfs 12,8(1)
	fmadds 30,30,12,29
.LVL298:
	.loc 1 1830 0
	lfs 12,40(1)
	fmadds 13,31,12,13
	.loc 1 1831 0
	lfs 12,28(1)
	fnmadds 0,31,12,0
	.loc 1 1832 0
	lfs 12,16(1)
	.loc 1 1830 0
	stfs 13,modelorg@l(28)
	.loc 1 1832 0
	fmadds 31,31,12,30
.LVL299:
	.loc 1 1831 0
	stfs 0,4(31)
	.loc 1 1832 0
	stfs 31,8(31)
	b .L243
.LBE14:
	.cfi_endproc
.LFE61:
	.size	R_DrawBrushModelCaustics, .-R_DrawBrushModelCaustics
	.align 2
	.globl R_DrawBrushModelAmbient
	.type	R_DrawBrushModelAmbient, @function
R_DrawBrushModelAmbient:
.LFB62:
	.loc 1 1874 0
	.cfi_startproc
.LVL300:
	mflr 0
	stwu 1,-120(1)
.LCFI74:
	.cfi_def_cfa_offset 120
	.cfi_register 65, 0
	.loc 1 1890 0
	lis 9,.LC9@ha
	lfs 0,.LC9@l(9)
	.loc 1 1885 0
	lis 9,currententity@ha
	.loc 1 1874 0
	stw 0,124(1)
	.loc 1 1886 0
	li 0,-1
	.cfi_offset 65, 4
	.loc 1 1885 0
	stw 3,currententity@l(9)
	.loc 1 1886 0
	lis 9,currenttexture@ha
	.loc 1 1890 0
	lfs 13,148(3)
	.loc 1 1874 0
	stw 29,84(1)
	.loc 1 1890 0
	fcmpu 7,13,0
	.loc 1 1874 0
	stw 30,88(1)
	stfd 29,96(1)
	mr 30,3
	.cfi_offset 61, -24
	.cfi_offset 30, -32
	.cfi_offset 29, -36
	stfd 30,104(1)
	stfd 31,112(1)
	stw 26,72(1)
	stw 27,76(1)
	stw 28,80(1)
	stw 31,92(1)
	.loc 1 1886 0
	stw 0,currenttexture@l(9)
	.loc 1 1888 0
	lwz 29,160(3)
.LVL301:
	.loc 1 1890 0
	bne- 7,.L255
	.cfi_offset 31, -28
	.cfi_offset 28, -40
	.cfi_offset 27, -44
	.cfi_offset 26, -48
	.cfi_offset 63, -8
	.cfi_offset 62, -16
.LVL302:
	.loc 1 1890 0 is_stmt 0 discriminator 1
	lfs 13,152(3)
	fcmpu 7,13,0
	beq- 7,.L256
.LVL303:
.L255:
	.loc 1 1890 0 discriminator 2
	lfs 13,108(29)
	.loc 1 1874 0 is_stmt 1 discriminator 2
	li 9,0
	addi 3,1,56
.LVL304:
	addi 4,1,44
.L257:
	.loc 1 1873 0 discriminator 2
	add 11,30,9
	.loc 1 1893 0 discriminator 2
	cmpwi 7,9,8
	.loc 1 1895 0 discriminator 2
	lfs 0,112(11)
	fsubs 12,0,13
	.loc 1 1896 0 discriminator 2
	fadds 0,0,13
	.loc 1 1895 0 discriminator 2
	stfsx 12,3,9
	.loc 1 1896 0 discriminator 2
	stfsx 0,4,9
	.loc 1 1893 0 discriminator 2
	addi 9,9,4
	bne+ 7,.L257
	.loc 1 1892 0
	li 31,1
.LVL305:
.L259:
	.loc 1 1906 0
	bl R_CullBox
.LVL306:
	cmpwi 7,3,0
	bne- 7,.L254
	.loc 1 1909 0
	lis 9,r_refdef@ha
	lfs 12,112(30)
	la 9,r_refdef@l(9)
	lfs 13,116(30)
	lfs 30,112(9)
	.loc 1 1910 0
	cmpwi 7,31,0
	.loc 1 1909 0
	lfs 29,116(9)
	lis 28,modelorg@ha
	lfs 31,120(9)
	fsubs 30,30,12
	lfs 0,120(30)
	fsubs 29,29,13
	la 31,modelorg@l(28)
.LVL307:
	fsubs 31,31,0
	stfs 30,modelorg@l(28)
	stfs 29,4(31)
	stfs 31,8(31)
	.loc 1 1910 0
	bne- 7,.L271
.L261:
	.loc 1 1922 0
	lwz 28,208(29)
	lwz 27,140(29)
.LVL308:
	.loc 1 1924 0
	bl glPushMatrix
.LVL309:
	.loc 1 1925 0
	lfs 0,148(30)
	.loc 1 1926 0
	mr 3,30
	.loc 1 1925 0
	fneg 0,0
	stfs 0,148(30)
	.loc 1 1926 0
	bl R_RotateForEntity
	.loc 1 1927 0
	lfs 0,148(30)
	.loc 1 1930 0
	lis 9,.LC17@ha
	li 3,8960
	.loc 1 1927 0
	fneg 0,0
	.loc 1 1930 0
	lfs 1,.LC17@l(9)
	li 4,8704
	.loc 1 1927 0
	stfs 0,148(30)
	.loc 1 1930 0
	bl glTexEnvf
.LVL310:
	.loc 1 1935 0
	lwz 0,144(29)
	cmpwi 7,0,0
	ble- 7,.L262
	.loc 1 1922 0
	mulli 27,27,92
.LVL311:
	.loc 1 1935 0
	li 30,0
.LVL312:
	.loc 1 1944 0
	lis 26,.LC27@ha
	.loc 1 1922 0
	add 28,28,27
	.loc 1 1943 0
	lis 27,.LC26@ha
	b .L267
.LVL313:
.L263:
	.loc 1 1944 0
	lfd 12,.LC27@l(26)
	fcmpu 7,0,12
	bng- 7,.L265
.L264:
	.loc 1 1946 0
	bl R_RenderBrushPolyLightmap
.LVL314:
	lwz 0,144(29)
.L265:
	.loc 1 1935 0
	addi 30,30,1
.LVL315:
	addi 28,28,92
.LVL316:
	cmpw 7,0,30
	ble- 7,.L262
.LVL317:
.L267:
	.loc 1 1938 0
	lwz 9,4(28)
.LVL318:
	.loc 1 1946 0
	mr 3,28
	.loc 1 1940 0
	lfs 11,4(31)
	lfs 0,4(9)
	lfs 12,0(31)
	fmuls 11,11,0
	lfs 0,0(9)
	.loc 1 1943 0
	lwz 11,8(28)
	.loc 1 1940 0
	lfs 13,8(31)
	fmadds 12,12,0,11
	lfs 0,8(9)
	.loc 1 1943 0
	andi. 10,11,2
	.loc 1 1940 0
	fmadds 13,13,0,12
	lfs 0,12(9)
	fsubs 0,13,0
.LVL319:
	.loc 1 1943 0
	beq- 0,.L263
	.loc 1 1943 0 is_stmt 0 discriminator 1
	lfd 12,.LC26@l(27)
	fcmpu 7,0,12
	blt- 7,.L264
	.loc 1 1935 0 is_stmt 1
	addi 30,30,1
.LVL320:
	addi 28,28,92
.LVL321:
	cmpw 7,0,30
	bgt+ 7,.L267
.LVL322:
.L262:
	.loc 1 1951 0
	lis 9,.LC19@ha
	li 3,8960
	lfs 1,.LC19@l(9)
	li 4,8704
	bl glTexEnvf
	.loc 1 1952 0
	bl glPopMatrix
.L254:
	.loc 1 1953 0
	lwz 0,124(1)
	lwz 26,72(1)
	mtlr 0
	lwz 27,76(1)
	lwz 28,80(1)
	lwz 29,84(1)
.LVL323:
	lwz 30,88(1)
	lwz 31,92(1)
	lfd 29,96(1)
	lfd 30,104(1)
	lfd 31,112(1)
	addi 1,1,120
	.cfi_remember_state
.LCFI75:
	.cfi_def_cfa_offset 0
	.cfi_restore 63
	.cfi_restore 62
	.cfi_restore 61
	.cfi_restore 31
	.cfi_restore 30
	.cfi_restore 29
	.cfi_restore 28
	.cfi_restore 27
	.cfi_restore 26
	blr
.LVL324:
.L256:
.LCFI76:
	.cfi_restore_state
	.loc 1 1890 0 discriminator 1
	lfs 13,156(3)
	fcmpu 7,13,0
	bne- 7,.L255
.LVL325:
	.loc 1 1902 0
	lfs 12,112(3)
	.loc 1 1901 0
	li 31,0
	.loc 1 1902 0
	lfs 13,116(3)
	addi 4,1,44
	lfs 0,120(3)
	addi 3,1,56
.LVL326:
	lfs 9,84(29)
	lfs 10,88(29)
	lfs 11,92(29)
	fadds 9,12,9
	.loc 1 1903 0
	lfs 6,96(29)
	.loc 1 1902 0
	fadds 10,13,10
	.loc 1 1903 0
	lfs 7,100(29)
	.loc 1 1902 0
	fadds 11,0,11
	.loc 1 1903 0
	lfs 8,104(29)
	fadds 12,12,6
	fadds 13,13,7
	.loc 1 1902 0
	stfs 9,56(1)
	.loc 1 1903 0
	fadds 0,0,8
	.loc 1 1902 0
	stfs 10,60(1)
	stfs 11,64(1)
	.loc 1 1903 0
	stfs 12,44(1)
	stfs 13,48(1)
	stfs 0,52(1)
	b .L259
.LVL327:
.L271:
.LBB15:
	.loc 1 1916 0
	addi 3,30,148
	addi 4,1,32
	addi 5,1,20
	addi 6,1,8
	bl AngleVectors
	.loc 1 1917 0
	lfs 13,36(1)
	.loc 1 1919 0
	lfs 12,12(1)
	.loc 1 1918 0
	lfs 0,24(1)
	.loc 1 1917 0
	fmuls 13,29,13
	.loc 1 1918 0
	fmuls 0,29,0
	.loc 1 1919 0
	fmuls 29,29,12
.LVL328:
	.loc 1 1917 0
	lfs 12,32(1)
	fmadds 13,30,12,13
	.loc 1 1918 0
	lfs 12,20(1)
	fmadds 0,30,12,0
	.loc 1 1919 0
	lfs 12,8(1)
	fmadds 30,30,12,29
.LVL329:
	.loc 1 1917 0
	lfs 12,40(1)
	fmadds 13,31,12,13
	.loc 1 1918 0
	lfs 12,28(1)
	fnmadds 0,31,12,0
	.loc 1 1919 0
	lfs 12,16(1)
	.loc 1 1917 0
	stfs 13,modelorg@l(28)
	.loc 1 1919 0
	fmadds 31,31,12,30
.LVL330:
	.loc 1 1918 0
	stfs 0,4(31)
	.loc 1 1919 0
	stfs 31,8(31)
	b .L261
.LBE15:
	.cfi_endproc
.LFE62:
	.size	R_DrawBrushModelAmbient, .-R_DrawBrushModelAmbient
	.align 2
	.globl R_RecursiveWorldNode
	.type	R_RecursiveWorldNode, @function
R_RecursiveWorldNode:
.LFB63:
	.loc 1 1974 0
	.cfi_startproc
.LVL331:
	mflr 0
	stwu 1,-96(1)
.LCFI77:
	.cfi_def_cfa_offset 96
	.cfi_register 65, 0
	stw 31,84(1)
	mr 31,3
	.cfi_offset 31, -12
	stw 0,100(1)
	stfd 31,88(1)
	.loc 1 1981 0
	lwz 0,0(3)
	.cfi_offset 63, -8
	.cfi_offset 65, 4
	.loc 1 1974 0
	stw 14,16(1)
	.loc 1 1981 0
	cmpwi 7,0,-2
	.loc 1 1974 0
	stw 15,20(1)
	stw 16,24(1)
	stw 17,28(1)
	stw 18,32(1)
	stw 19,36(1)
	stw 20,40(1)
	stw 21,44(1)
	stw 22,48(1)
	stw 23,52(1)
	stw 24,56(1)
	stw 25,60(1)
	stw 26,64(1)
	stw 27,68(1)
	stw 28,72(1)
	stw 29,76(1)
	stw 30,80(1)
	.loc 1 1981 0
	beq- 7,.L272
	.cfi_offset 30, -16
	.cfi_offset 29, -20
	.cfi_offset 28, -24
	.cfi_offset 27, -28
	.cfi_offset 26, -32
	.cfi_offset 25, -36
	.cfi_offset 24, -40
	.cfi_offset 23, -44
	.cfi_offset 22, -48
	.cfi_offset 21, -52
	.cfi_offset 20, -56
	.cfi_offset 19, -60
	.cfi_offset 18, -64
	.cfi_offset 17, -68
	.cfi_offset 16, -72
	.cfi_offset 15, -76
	.cfi_offset 14, -80
	.loc 1 1984 0
	lis 24,r_visframecount@ha
	lwz 9,4(3)
	lwz 0,r_visframecount@l(24)
	cmpw 7,9,0
	bne- 7,.L272
.LBB16:
	.loc 1 1998 0
	lis 18,mirror_far_plane@ha
.LBE16:
	.loc 1 2140 0
	lis 16,lightmap_polys@ha
	.loc 1 1991 0
	lis 28,mirror@ha
.LBB17:
	.loc 1 1993 0
	lis 19,mirror_plane@ha
	.loc 1 1994 0
	lis 20,mirror_clipside@ha
	.loc 1 1998 0
	la 18,mirror_far_plane@l(18)
.LBE17:
	.loc 1 2058 0
	lis 25,modelorg@ha
	.loc 1 2068 0
	lis 27,.LC28@ha
	.loc 1 2081 0
	lis 22,cl@ha
	.loc 1 2083 0
	lis 23,.LC26@ha
	.loc 1 2140 0
	la 16,lightmap_polys@l(16)
	lis 21,r_framecount@ha
	.loc 1 2085 0
	lis 17,.LC27@ha
.LVL332:
.L300:
	.loc 1 1987 0
	addi 29,31,8
	addi 30,31,20
	mr 3,29
	mr 4,30
	bl R_CullBox
	cmpwi 7,3,0
	bne- 7,.L272
	.loc 1 1991 0
	lbz 0,mirror@l(28)
	la 26,mirror@l(28)
	cmpwi 7,0,0
	bne- 7,.L302
	.loc 1 2005 0
	lwz 0,0(31)
	cmpwi 7,0,0
	blt- 7,.L303
.L277:
	.loc 1 2050 0
	lwz 9,36(31)
.LVL333:
	.loc 1 2052 0
	lbz 0,16(9)
	cmpwi 7,0,1
	beq- 7,.L282
	cmplwi 7,0,1
	bge- 7,.L304
	.loc 1 2055 0
	lfs 31,modelorg@l(25)
	lfs 0,12(9)
	fsubs 31,31,0
.LVL334:
.L284:
	.loc 1 2068 0
	lfd 0,.LC28@l(27)
	la 15,.LC28@l(27)
	fcmpu 7,31,0
	cror 30,29,30
	mfcr 29
	rlwinm 29,29,31,1
	.loc 1 2069 0
	xori 29,29,1
.LVL335:
	.loc 1 2074 0
	addi 9,29,8
	.loc 1 2079 0
	xori 14,29,1
	.loc 1 2074 0
	slwi 9,9,2
	add 9,31,9
	lwz 3,8(9)
	bl R_RecursiveWorldNode
.LVL336:
	.loc 1 2077 0
	lhz 0,50(31)
	.loc 1 2079 0
	cmpwi 7,0,0
	.loc 1 2077 0
	stw 0,8(1)
.LVL337:
	.loc 1 2079 0
	beq- 7,.L286
	.loc 1 2083 0
	lfd 0,.LC26@l(23)
	.loc 1 2081 0
	la 9,cl@l(22)
	lwz 9,2688(9)
	lhz 30,48(31)
	.loc 1 2083 0
	fcmpu 7,31,0
	.loc 1 2081 0
	lwz 0,208(9)
.LVL338:
	mulli 30,30,92
	add 30,0,30
.LVL339:
	.loc 1 2083 0
	blt- 7,.L294
	.loc 1 2085 0
	lfd 0,.LC27@l(17)
	fcmpu 7,31,0
	bgt- 7,.L295
	xori 14,29,1
	la 29,r_framecount@l(21)
.LVL340:
.L292:
	.loc 1 2109 0
	li 0,0
	b .L296
.L288:
.LVL341:
	.loc 1 2088 0
	lwz 9,8(1)
	addi 30,30,92
.LVL342:
	addic. 10,9,-1
	stw 10,8(1)
	beq- 0,.L286
.LVL343:
.L296:
	.loc 1 2090 0
	lwz 11,0(30)
	lwz 9,0(29)
	cmpw 7,11,9
	bne+ 7,.L288
	.loc 1 2095 0
	lfd 0,0(15)
	lwz 9,8(30)
	fcmpu 7,31,0
	rlwinm 10,9,31,31,31
	mfcr 11
	rlwinm 11,11,29,1
	cmpw 7,10,11
	bne- 7,.L288
	.loc 1 2100 0
	andi. 10,9,256
	beq- 0,.L289
	.loc 1 2105 0
	andi. 9,9,656
	cmpwi 7,9,656
	beq- 7,.L290
	.loc 1 2107 0
	lbz 9,0(26)
	cmpwi 7,9,0
	beq- 7,.L305
.L290:
	.loc 1 2109 0
	stw 0,0(30)
.L306:
.LVL344:
	.loc 1 2088 0
	lwz 9,8(1)
	addi 30,30,92
.LVL345:
	addic. 10,9,-1
	stw 10,8(1)
	bne+ 0,.L296
.LVL346:
.L286:
	.loc 1 2161 0
	addi 14,14,8
	slwi 14,14,2
	add 31,31,14
	lwz 31,8(31)
	.loc 1 1981 0
	lwz 0,0(31)
	cmpwi 7,0,-2
	beq- 7,.L272
	.loc 1 1984 0
	lwz 9,4(31)
	lwz 0,r_visframecount@l(24)
	cmpw 7,9,0
	beq+ 7,.L300
.LVL347:
.L272:
	.loc 1 2162 0
	lwz 0,100(1)
	lwz 14,16(1)
	mtlr 0
	lwz 15,20(1)
	lwz 16,24(1)
	lwz 17,28(1)
	lwz 18,32(1)
	lwz 19,36(1)
	lwz 20,40(1)
	lwz 21,44(1)
	lwz 22,48(1)
	lwz 23,52(1)
	lwz 24,56(1)
	lwz 25,60(1)
	lwz 26,64(1)
	lwz 27,68(1)
	lwz 28,72(1)
	lwz 29,76(1)
	lwz 30,80(1)
	lwz 31,84(1)
	lfd 31,88(1)
	addi 1,1,96
	.cfi_remember_state
.LCFI78:
	.cfi_def_cfa_offset 0
	.cfi_restore 63
	.cfi_restore 31
	.cfi_restore 30
	.cfi_restore 29
	.cfi_restore 28
	.cfi_restore 27
	.cfi_restore 26
	.cfi_restore 25
	.cfi_restore 24
	.cfi_restore 23
	.cfi_restore 22
	.cfi_restore 21
	.cfi_restore 20
	.cfi_restore 19
	.cfi_restore 18
	.cfi_restore 17
	.cfi_restore 16
	.cfi_restore 15
	.cfi_restore 14
	blr
.LVL348:
.L305:
.LCFI79:
	.cfi_restore_state
	.loc 1 2107 0 discriminator 1
	mr 3,30
	stw 0,12(1)
	bl R_AllocateMirror
	lwz 0,12(1)
	.loc 1 2109 0 discriminator 1
	stw 0,0(30)
	b .L306
.LVL349:
.L304:
	.loc 1 2052 0
	cmpwi 7,0,2
	beq- 7,.L307
	.loc 1 2064 0
	la 11,modelorg@l(25)
	lfs 0,4(9)
	lfs 13,4(11)
	lfs 12,modelorg@l(25)
	fmuls 0,13,0
	lfs 13,0(9)
	lfs 31,8(11)
	fmadds 13,12,13,0
	lfs 12,8(9)
	lfs 0,12(9)
	fmadds 31,31,12,13
	fsubs 31,31,0
.LVL350:
	.loc 1 2065 0
	b .L284
.LVL351:
.L289:
	.loc 1 2113 0
	andi. 11,9,272
	cmpwi 7,11,272
	beq- 7,.L288
	.loc 1 2117 0
	andi. 10,9,16
	beq- 0,.L291
	.loc 1 2117 0 is_stmt 0 discriminator 1
	lbz 11,0(26)
	cmpwi 7,11,0
	bne- 7,.L288
.L291:
	.loc 1 2129 0 is_stmt 1
	lwz 11,48(30)
	.loc 1 2139 0
	andi. 10,9,20
	.loc 1 2129 0
	lwz 9,36(11)
	lwz 11,32(9)
	stw 11,40(30)
	.loc 1 2130 0
	stw 30,32(9)
	.loc 1 2139 0
	bne- 0,.L288
	.loc 1 2140 0
	lwz 9,60(30)
	lwz 11,36(30)
	slwi 9,9,2
	lwzx 10,16,9
	stw 10,4(11)
	.loc 1 2141 0
	stwx 11,16,9
	b .L288
.LVL352:
.L302:
.LBB18:
	.loc 1 1993 0
	lwz 5,mirror_plane@l(19)
	mr 3,29
	mr 4,30
	bl BoxOnPlaneSide
.LVL353:
	.loc 1 1994 0
	lwz 0,mirror_clipside@l(20)
	cmpw 7,0,3
	beq- 7,.L272
	.loc 1 1998 0
	mr 3,29
.LVL354:
	mr 4,30
	mr 5,18
	bl BoxOnPlaneSide
	cmpwi 7,3,1
	beq- 7,.L272
.LBE18:
	.loc 1 2005 0
	lwz 0,0(31)
	cmpwi 7,0,0
	bge+ 7,.L277
.L303:
.LVL355:
	.loc 1 2019 0
	lwz 11,48(31)
	.loc 1 2018 0
	lwz 9,44(31)
.LVL356:
	.loc 1 2021 0
	cmpwi 7,11,0
	beq- 7,.L278
	lis 10,r_framecount@ha
	.loc 1 1973 0
	mtctr 11
	.loc 1 2021 0
	lwz 0,r_framecount@l(10)
	.loc 1 1973 0
	addi 9,9,-4
.LVL357:
.L279:
	.loc 1 2033 0 discriminator 1
	lwzu 11,4(9)
	stw 0,0(11)
	.loc 1 2035 0 discriminator 1
	bdnz .L279
.L278:
	.loc 1 2041 0
	lwz 0,40(31)
	cmpwi 7,0,0
	beq- 7,.L272
	.loc 1 2042 0
	addi 3,31,40
	bl R_StoreEfrags
	b .L272
.LVL358:
.L294:
	.loc 1 2083 0
	li 14,0
	la 29,r_framecount@l(21)
.LVL359:
	b .L292
.LVL360:
.L282:
	.loc 1 2058 0
	la 11,modelorg@l(25)
	lfs 0,12(9)
	lfs 31,4(11)
	fsubs 31,31,0
.LVL361:
	.loc 1 2059 0
	b .L284
.LVL362:
.L307:
	.loc 1 2061 0
	la 11,modelorg@l(25)
	lfs 0,12(9)
	lfs 31,8(11)
	fsubs 31,31,0
.LVL363:
	.loc 1 2062 0
	b .L284
.LVL364:
.L295:
	.loc 1 2085 0
	li 14,1
.LVL365:
	la 29,r_framecount@l(21)
	b .L292
	.cfi_endproc
.LFE63:
	.size	R_RecursiveWorldNode, .-R_RecursiveWorldNode
	.align 2
	.globl R_InitDrawWorld
	.type	R_InitDrawWorld, @function
R_InitDrawWorld:
.LFB64:
	.loc 1 2180 0
	.cfi_startproc
	stwu 1,-608(1)
.LCFI80:
	.cfi_def_cfa_offset 608
	mflr 0
	.loc 1 2183 0
	li 4,0
	li 5,584
	.loc 1 2180 0
	stw 30,600(1)
	.loc 1 2183 0
	addi 30,1,8
	.cfi_offset 30, -8
	.cfi_register 65, 0
	mr 3,30
	.loc 1 2180 0
	stw 0,612(1)
	stw 31,604(1)
	.loc 1 2183 0
	.cfi_offset 31, -4
	.cfi_offset 65, 4
	bl memset
	.loc 1 2191 0
	lis 9,.LC18@ha
	.loc 1 2186 0
	lis 11,modelorg@ha
	.loc 1 2191 0
	lfs 1,.LC18@l(9)
	.loc 1 2186 0
	lis 9,r_refdef@ha
	la 9,r_refdef@l(9)
	.loc 1 2184 0
	lis 31,cl@ha
	.loc 1 2186 0
	lwz 10,116(9)
	.loc 1 2191 0
	fmr 2,1
	.loc 1 2186 0
	lwz 0,120(9)
	.loc 1 2191 0
	fmr 3,1
	.loc 1 2186 0
	lwz 8,112(9)
	.loc 1 2184 0
	la 31,cl@l(31)
	.loc 1 2186 0
	la 9,modelorg@l(11)
	.loc 1 2184 0
	lwz 7,2688(31)
	.loc 1 2186 0
	stw 10,4(9)
	stw 0,8(9)
	.loc 1 2188 0
	lis 9,currententity@ha
	.loc 1 2189 0
	li 0,-1
	.loc 1 2188 0
	stw 30,currententity@l(9)
	.loc 1 2189 0
	lis 9,currenttexture@ha
	.loc 1 2184 0
	stw 7,168(1)
	.loc 1 2189 0
	stw 0,currenttexture@l(9)
	.loc 1 2186 0
	stw 8,modelorg@l(11)
	.loc 1 2191 0
	bl glColor3f
	.loc 1 2192 0
	lis 3,lightmap_polys@ha
	li 4,0
	li 5,256
	la 3,lightmap_polys@l(3)
	bl memset
	.loc 1 2195 0
	bl R_ClearSkyBox
	.loc 1 2199 0
	lwz 9,2688(31)
	lwz 3,192(9)
	bl R_RecursiveWorldNode
	.loc 1 2202 0
	lis 9,gl_wireframe+12@ha
	lfs 13,gl_wireframe+12@l(9)
	lis 9,.LC9@ha
	lfs 0,.LC9@l(9)
	fcmpu 7,13,0
	bne+ 7,.L308
	.loc 1 2203 0
	bl R_DrawSkyBox
.L308:
	.loc 1 2206 0
	lwz 0,612(1)
	lwz 30,600(1)
	mtlr 0
	lwz 31,604(1)
	addi 1,1,608
.LCFI81:
	.cfi_def_cfa_offset 0
	.cfi_restore 31
	.cfi_restore 30
	blr
	.cfi_endproc
.LFE64:
	.size	R_InitDrawWorld, .-R_InitDrawWorld
	.align 2
	.globl R_DrawWorldAmbient
	.type	R_DrawWorldAmbient, @function
R_DrawWorldAmbient:
.LFB65:
	.loc 1 2219 0
	.cfi_startproc
	.loc 1 2221 0
	.loc 1 2220 0
	b R_BlendLightmaps
	.cfi_endproc
.LFE65:
	.size	R_DrawWorldAmbient, .-R_DrawWorldAmbient
	.align 2
	.globl R_WorldMultiplyTextures
	.type	R_WorldMultiplyTextures, @function
R_WorldMultiplyTextures:
.LFB66:
	.loc 1 2231 0
	.cfi_startproc
	mflr 0
	stwu 1,-8(1)
.LCFI82:
	.cfi_def_cfa_offset 8
	.cfi_register 65, 0
	stw 0,12(1)
	.loc 1 2235 0
	.cfi_offset 65, 4
	bl DrawTextureChainsGX
	.loc 1 2238 0
	lwz 0,12(1)
	addi 1,1,8
.LCFI83:
	.cfi_def_cfa_offset 0
	mtlr 0
	blr
	.cfi_endproc
.LFE66:
	.size	R_WorldMultiplyTextures, .-R_WorldMultiplyTextures
	.align 2
	.globl R_MarkLeaves
	.type	R_MarkLeaves, @function
R_MarkLeaves:
.LFB67:
	.loc 1 2256 0
	.cfi_startproc
	.loc 1 2271 0
	lis 9,r_novis+12@ha
	.loc 1 2256 0
	stwu 1,-4120(1)
.LCFI84:
	.cfi_def_cfa_offset 4120
	.loc 1 2271 0
	lfs 13,r_novis+12@l(9)
	lis 9,.LC9@ha
	lfs 0,.LC9@l(9)
	.loc 1 2256 0
	mflr 0
	stw 30,4112(1)
	.loc 1 2268 0
	lis 30,r_visframecount@ha
	.cfi_offset 30, -8
	.cfi_register 65, 0
	.loc 1 2271 0
	fcmpu 7,13,0
	.loc 1 2268 0
	lwz 9,r_visframecount@l(30)
	.loc 1 2269 0
	lis 11,r_viewleaf@ha
	.loc 1 2256 0
	stw 0,4124(1)
	.loc 1 2269 0
	lwz 3,r_viewleaf@l(11)
.LVL366:
	.loc 1 2268 0
	addi 0,9,1
	.cfi_offset 65, 4
	.loc 1 2256 0
	stw 29,4108(1)
	.loc 1 2269 0
	lis 9,r_oldviewleaf@ha
	.loc 1 2274 0
	lis 29,cl@ha
	.cfi_offset 29, -12
	.loc 1 2256 0
	stw 28,4104(1)
	stw 31,4116(1)
	.loc 1 2274 0
	la 29,cl@l(29)
	.loc 1 2268 0
	stw 0,r_visframecount@l(30)
	.loc 1 2269 0
	stw 3,r_oldviewleaf@l(9)
.LVL367:
	.loc 1 2271 0
	beq- 7,.L313
	.cfi_offset 31, -4
	.cfi_offset 28, -16
.LVL368:
	.loc 1 2274 0
	lwz 31,2688(29)
	addi 3,1,8
.LVL369:
	li 4,255
	lwz 28,164(31)
	addi 5,28,7
	srawi 5,5,3
	bl memset
	.loc 1 2273 0
	addi 3,1,8
.LVL370:
.L314:
	.loc 1 2279 0
	cmpwi 7,28,0
	ble- 7,.L312
	lwz 6,2688(29)
	li 8,64
	lwz 11,r_visframecount@l(30)
	li 10,0
	lwz 7,164(6)
.LVL371:
.L318:
	.loc 1 2281 0
	srawi 0,10,3
	lbzx 9,3,0
	rlwinm 0,10,0,29,31
	sraw 0,9,0
	andi. 9,0,1
	beq- 0,.L316
	.loc 1 2283 0
	lwz 9,168(31)
	add 9,9,8
.LVL372:
	b .L317
.L321:
	.loc 1 2288 0
	stw 11,4(9)
	.loc 1 2289 0
	lwz 9,32(9)
.LVL373:
	.loc 1 2290 0
	cmpwi 7,9,0
	beq- 7,.L316
.L317:
	.loc 1 2286 0
	lwz 0,4(9)
	cmpw 7,0,11
	bne+ 7,.L321
.LVL374:
.L316:
	.loc 1 2279 0
	addi 10,10,1
.LVL375:
	addi 8,8,64
	cmpw 7,7,10
	ble- 7,.L312
	mr 31,6
	b .L318
.LVL376:
.L312:
	.loc 1 2293 0
	lwz 0,4124(1)
	lwz 28,4104(1)
	mtlr 0
	lwz 29,4108(1)
	lwz 30,4112(1)
	lwz 31,4116(1)
	addi 1,1,4120
	.cfi_remember_state
.LCFI85:
	.cfi_def_cfa_offset 0
	.cfi_restore 31
	.cfi_restore 30
	.cfi_restore 29
	.cfi_restore 28
	blr
.LVL377:
.L313:
.LCFI86:
	.cfi_restore_state
	.loc 1 2277 0
	lwz 4,2688(29)
	bl Mod_LeafPVS
.LVL378:
	lwz 31,2688(29)
	lwz 28,164(31)
	b .L314
	.cfi_endproc
.LFE67:
	.size	R_MarkLeaves, .-R_MarkLeaves
	.align 2
	.globl AllocBlock
	.type	AllocBlock, @function
AllocBlock:
.LFB68:
	.loc 1 2307 0
	.cfi_startproc
.LVL379:
	mflr 0
	stwu 1,-24(1)
.LCFI87:
	.cfi_def_cfa_offset 24
	.cfi_register 65, 0
	.loc 1 2344 0
	subfic 11,3,128
	lis 9,allocated@ha
	la 9,allocated@l(9)
	.loc 1 2307 0
	stw 28,8(1)
	stw 0,28(1)
	mr 0,3
	.cfi_offset 65, 4
	.cfi_offset 28, -16
	stw 30,16(1)
	cmpwi 1,11,0
	stw 31,20(1)
	cmpwi 6,0,0
	stw 29,12(1)
	.loc 1 2312 0
	li 3,0
.LVL380:
	.loc 1 2344 0
	mr 29,9
	.cfi_offset 29, -12
	.cfi_offset 31, -4
	.cfi_offset 30, -8
.LVL381:
.L323:
	.loc 1 2316 0 discriminator 1
	li 12,128
	ble- 1,.L328
	.loc 1 2316 0 is_stmt 0
	li 31,0
	.loc 1 2306 0 is_stmt 1
	slwi 28,3,7
.LVL382:
.L335:
	.loc 1 2320 0 discriminator 1
	ble- 6,.L329
	.loc 1 2306 0
	slwi 10,31,2
	addi 30,31,1
	.loc 1 2322 0
	lwzx 10,29,10
	cmpw 7,12,10
	ble- 7,.L324
	.loc 1 2306 0
	add 8,28,30
	mtctr 0
	slwi 8,8,2
	li 7,0
	add 8,9,8
	addi 8,8,-4
.LVL383:
.L330:
	.loc 1 2322 0
	cmpw 7,7,10
	bge- 7,.L325
	mr 7,10
.L325:
.LVL384:
	.loc 1 2320 0
	bdz .L327
	.loc 1 2322 0
	lwzu 10,4(8)
	cmpw 7,10,12
	blt+ 7,.L330
.LVL385:
.L324:
	.loc 1 2316 0
	cmpw 7,30,11
	mr 31,30
.LVL386:
	bne+ 7,.L335
.LVL387:
.L328:
	.loc 1 2334 0
	add 12,12,4
	cmpwi 7,12,128
	bgt- 7,.L331
.LVL388:
	.loc 1 2337 0
	cmpwi 7,0,0
	mtctr 0
	li 11,0
	slwi 10,3,7
	ble- 7,.L333
.LVL389:
.L340:
	.loc 1 2338 0 discriminator 2
	lwz 0,0(5)
	add 0,11,0
	.loc 1 2337 0 discriminator 2
	addi 11,11,1
.LVL390:
	.loc 1 2338 0 discriminator 2
	add 0,10,0
	slwi 0,0,2
	stwx 12,9,0
	.loc 1 2337 0 discriminator 2
	bdnz .L340
.LVL391:
.L333:
	.loc 1 2345 0
	lwz 0,28(1)
	lwz 28,8(1)
	mtlr 0
	lwz 29,12(1)
	lwz 30,16(1)
	lwz 31,20(1)
	addi 1,1,24
	.cfi_remember_state
.LCFI88:
	.cfi_def_cfa_offset 0
	.cfi_restore 31
	.cfi_restore 30
	.cfi_restore 29
	.cfi_restore 28
	blr
.LVL392:
.L344:
.LCFI89:
	.cfi_restore_state
	.loc 1 2327 0
	li 7,0
	addi 30,31,1
.LVL393:
.L327:
	.loc 1 2316 0
	cmpw 7,30,11
	.loc 1 2329 0
	stw 31,0(5)
.LVL394:
	.loc 1 2330 0
	mr 12,7
	stw 7,0(6)
	.loc 1 2316 0
	mr 31,30
.LVL395:
	bne+ 7,.L335
	b .L328
.LVL396:
.L331:
	.loc 1 2312 0
	cmpwi 7,3,63
	addi 29,29,512
	addi 3,3,1
.LVL397:
	bne+ 7,.L323
	.loc 1 2343 0
	lis 3,.LC29@ha
.LVL398:
	la 3,.LC29@l(3)
	crxor 6,6,6
	bl Sys_Error
.LVL399:
	.loc 1 2344 0
	li 3,0
	b .L333
.LVL400:
.L329:
	.loc 1 2327 0
	beq- 6,.L344
	addi 30,31,1
.LVL401:
	.loc 1 2316 0
	cmpw 7,30,11
	mr 31,30
.LVL402:
	bne+ 7,.L335
	b .L328
	.cfi_endproc
.LFE68:
	.size	AllocBlock, .-AllocBlock
	.align 2
	.globl SetupSurfaceConnectivity
	.type	SetupSurfaceConnectivity, @function
SetupSurfaceConnectivity:
.LFB69:
	.loc 1 2371 0
	.cfi_startproc
.LVL403:
	mflr 0
	stwu 1,-16(1)
.LCFI90:
	.cfi_def_cfa_offset 16
	.cfi_register 65, 0
	stw 31,12(1)
	mr 31,3
	.cfi_offset 31, -4
	stw 0,20(1)
	.loc 1 2375 0
	lwz 4,16(3)
	cmpwi 7,4,50
	bgt- 7,.L355
	.cfi_offset 65, 4
.LVL404:
.L347:
	.loc 1 2379 0 discriminator 1
	cmpwi 7,4,0
	ble- 7,.L346
	.loc 1 2379 0 is_stmt 0
	lwz 7,12(31)
	lis 12,tempEdges@ha
	lis 3,currentmodel@ha
	.loc 1 2370 0 is_stmt 1
	li 10,0
	.loc 1 2379 0
	slwi 7,7,2
	la 12,tempEdges@l(12)
	la 3,currentmodel@l(3)
	.loc 1 2384 0
	li 5,0
.LVL405:
.L352:
	.loc 1 2381 0
	lwz 9,0(3)
	.loc 1 2382 0
	lwz 11,0(12)
	.loc 1 2381 0
	lwz 9,216(9)
	.loc 1 2384 0
	lwz 8,36(31)
	.loc 1 2382 0
	lwzx 9,9,7
	.loc 1 2384 0
	lwz 6,20(8)
	.loc 1 2370 0
	slwi 8,10,2
	.loc 1 2382 0
	srawi 0,9,31
	xor 9,0,9
	subf 9,0,9
	mulli 9,9,12
	.loc 1 2385 0
	lwzx 0,11,9
	.loc 1 2382 0
	add 9,11,9
.LVL406:
	.loc 1 2384 0
	stwx 5,6,8
.LVL407:
	.loc 1 2385 0
	cmpwi 7,0,0
	ble- 7,.L349
	mtctr 0
	.loc 1 2370 0
	addi 9,9,-4
.LVL408:
.L351:
	.loc 1 2385 0
	addi 9,9,4
	.loc 1 2386 0
	lwz 11,36(31)
	lwz 0,4(9)
	cmpw 7,0,11
	beq- 7,.L350
	.loc 1 2387 0
	lwz 11,20(11)
	stwx 0,11,8
.L350:
	.loc 1 2385 0
	bdnz .L351
.L349:
	.loc 1 2379 0
	addi 10,10,1
.LVL409:
	addi 7,7,4
.LVL410:
	cmpw 7,10,4
	bne+ 7,.L352
.LVL411:
.L346:
	.loc 1 2391 0
	lwz 0,20(1)
	lwz 31,12(1)
.LVL412:
	mtlr 0
	addi 1,1,16
	.cfi_remember_state
.LCFI91:
	.cfi_def_cfa_offset 0
	.cfi_restore 31
	blr
.LVL413:
.L355:
.LCFI92:
	.cfi_restore_state
	.loc 1 2376 0
	lis 3,.LC30@ha
.LVL414:
	la 3,.LC30@l(3)
	crxor 6,6,6
	bl Con_Printf
	lwz 4,16(31)
	b .L347
	.cfi_endproc
.LFE69:
	.size	SetupSurfaceConnectivity, .-SetupSurfaceConnectivity
	.align 2
	.globl PrintTempEdges
	.type	PrintTempEdges, @function
PrintTempEdges:
.LFB70:
	.loc 1 2401 0
	.cfi_startproc
.LVL415:
	stwu 1,-32(1)
.LCFI93:
	.cfi_def_cfa_offset 32
	mflr 0
	stw 29,20(1)
	.loc 1 2405 0
	lis 29,currentmodel@ha
	.cfi_offset 29, -12
	.cfi_register 65, 0
	.loc 1 2401 0
	stw 0,36(1)
	.loc 1 2405 0
	lwz 9,currentmodel@l(29)
	.loc 1 2401 0
	stw 27,12(1)
	.loc 1 2405 0
	lwz 0,180(9)
	.cfi_offset 27, -20
	.cfi_offset 65, 4
	.loc 1 2401 0
	stw 28,16(1)
	.loc 1 2405 0
	cmpwi 7,0,0
	.loc 1 2401 0
	stw 30,24(1)
	stw 31,28(1)
	.loc 1 2405 0
	ble- 7,.L356
	.cfi_offset 31, -4
	.cfi_offset 30, -8
	.cfi_offset 28, -16
	lis 27,.LC31@ha
	lis 28,tempEdges@ha
	li 30,0
	li 31,0
	la 27,.LC31@l(27)
	la 28,tempEdges@l(28)
	la 29,currentmodel@l(29)
.LVL416:
.L358:
	.loc 1 2409 0 discriminator 2
	lwz 9,0(28)
	mr 3,27
	.loc 1 2405 0 discriminator 2
	addi 31,31,1
	.loc 1 2409 0 discriminator 2
	lwzx 4,9,30
	.loc 1 2405 0 discriminator 2
	addi 30,30,12
.LVL417:
	.loc 1 2409 0 discriminator 2
	crxor 6,6,6
	bl Con_Printf
.LVL418:
	.loc 1 2405 0 discriminator 2
	lwz 9,0(29)
	lwz 0,180(9)
	cmpw 7,0,31
	bgt+ 7,.L358
.LVL419:
.L356:
	.loc 1 2411 0
	lwz 0,36(1)
	lwz 27,12(1)
	mtlr 0
	lwz 28,16(1)
	lwz 29,20(1)
	lwz 30,24(1)
	lwz 31,28(1)
	addi 1,1,32
.LCFI94:
	.cfi_def_cfa_offset 0
	.cfi_restore 31
	.cfi_restore 30
	.cfi_restore 29
	.cfi_restore 28
	.cfi_restore 27
	blr
	.cfi_endproc
.LFE70:
	.size	PrintTempEdges, .-PrintTempEdges
	.align 2
	.globl BuildPolyFromSurface
	.type	BuildPolyFromSurface, @function
BuildPolyFromSurface:
.LFB71:
	.loc 1 2422 0
	.cfi_startproc
.LVL420:
	mflr 0
	stwu 1,-152(1)
.LCFI95:
	.cfi_def_cfa_offset 152
	.cfi_register 65, 0
	stw 23,84(1)
	.loc 1 2433 0
	lis 23,currentmodel@ha
	.cfi_offset 23, -68
	.loc 1 2422 0
	stw 0,156(1)
	.loc 1 2433 0
	lwz 9,currentmodel@l(23)
	.loc 1 2422 0
	stw 27,100(1)
	stw 31,116(1)
	mr 31,3
	.cfi_offset 31, -36
	.cfi_offset 27, -52
	.cfi_offset 65, 4
	.loc 1 2434 0
	lwz 27,16(3)
	.loc 1 2440 0
	li 3,28
.LVL421:
	.loc 1 2422 0
	stw 25,92(1)
	stw 26,96(1)
	.loc 1 2433 0
	lwz 25,184(9)
	.cfi_offset 26, -56
	.cfi_offset 25, -60
.LVL422:
	.loc 1 2422 0
	stfd 28,120(1)
	stfd 29,128(1)
	stfd 30,136(1)
	stfd 31,144(1)
	stw 21,76(1)
	stw 22,80(1)
	stw 24,88(1)
	stw 28,104(1)
	stw 29,108(1)
	stw 30,112(1)
	.loc 1 2440 0
	.cfi_offset 30, -40
	.cfi_offset 29, -44
	.cfi_offset 28, -48
	.cfi_offset 24, -64
	.cfi_offset 22, -72
	.cfi_offset 21, -76
	.cfi_offset 63, -8
	.cfi_offset 62, -16
	.cfi_offset 61, -24
	.cfi_offset 60, -32
	bl Hunk_Alloc
.LVL423:
	mr 26,3
.LVL424:
	.loc 1 2443 0
	slwi 3,27,2
.LVL425:
	bl Hunk_Alloc
	.loc 1 2450 0
	cmpwi 7,27,0
	.loc 1 2449 0
	lis 10,numTempVertices@ha
	.loc 1 2445 0
	lwz 11,36(31)
	.loc 1 2446 0
	lwz 9,8(31)
	.loc 1 2449 0
	lwz 0,numTempVertices@l(10)
	.loc 1 2443 0
	stw 3,20(26)
	.loc 1 2445 0
	stw 11,0(26)
	.loc 1 2446 0
	stw 9,12(26)
	.loc 1 2447 0
	stw 26,36(31)
	.loc 1 2448 0
	stw 27,8(26)
	.loc 1 2449 0
	stw 0,24(26)
.LVL426:
	.loc 1 2450 0
	ble- 7,.L361
	lis 9,.LC5@ha
	lis 22,r_pcurrentvertbase@ha
	.loc 1 2465 0
	lfs 28,.LC5@l(9)
	.loc 1 2474 0
	lis 9,.LC3@ha
	lfs 31,.LC3@l(9)
	.loc 1 2476 0
	lis 9,.LC16@ha
	lfs 29,.LC16@l(9)
	lis 24,tempEdges@ha
	.loc 1 2477 0
	lis 9,.LC32@ha
	.loc 1 2495 0
	lis 21,.LC33@ha
	.loc 1 2477 0
	lfs 30,.LC32@l(9)
	.loc 1 2450 0
	li 29,0
	la 23,currentmodel@l(23)
	la 22,r_pcurrentvertbase@l(22)
	la 24,tempEdges@l(24)
	.loc 1 2465 0
	lis 30,0x4330
	.loc 1 2495 0
	la 21,.LC33@l(21)
	b .L366
.LVL427:
.L364:
	mr 3,21
	.loc 1 2450 0
	addi 29,29,1
	.loc 1 2495 0
	crxor 6,6,6
	bl Con_Printf
.LVL428:
	.loc 1 2450 0
	cmpw 7,29,27
	beq- 7,.L361
.LVL429:
.L366:
	.loc 1 2452 0
	lwz 9,0(23)
	lwz 0,12(31)
	lwz 9,216(9)
	add 0,29,0
	slwi 0,0,2
	lwzx 28,9,0
.LVL430:
	.loc 1 2454 0
	cmpwi 7,28,0
	ble- 7,.L362
.LVL431:
	.loc 1 2457 0
	slwi 0,28,3
.LVL432:
	lhzx 11,25,0
	lwz 0,0(22)
	mulli 11,11,12
	add 11,0,11
.LVL433:
.L363:
	.loc 1 2464 0
	lwz 9,48(31)
	.loc 1 2486 0
	mr 3,11
	.loc 1 2464 0
	lfs 11,4(11)
	.loc 1 2486 0
	addi 4,1,16
	.loc 1 2464 0
	lfs 0,4(9)
	.loc 1 2486 0
	addi 5,1,8
	.loc 1 2465 0
	lwz 10,36(9)
	.loc 1 2464 0
	fmuls 11,11,0
	lfs 8,0(11)
	lfs 10,0(9)
	.loc 1 2465 0
	lwz 0,16(10)
	.loc 1 2464 0
	fmadds 8,8,10,11
	lfs 0,8(11)
	lfs 13,8(9)
	lfs 12,12(9)
	.loc 1 2465 0
	stw 0,28(1)
	.loc 1 2464 0
	fmadds 8,0,13,8
	.loc 1 2465 0
	stw 30,24(1)
	lfd 13,24(1)
	.loc 1 2464 0
	fadds 8,8,12
	.loc 1 2467 0
	lfs 9,20(9)
	.loc 1 2465 0
	fsub 13,13,28
	.loc 1 2468 0
	lwz 10,36(9)
	.loc 1 2467 0
	lfs 11,16(9)
	.loc 1 2468 0
	lwz 10,20(10)
	.loc 1 2465 0
	frsp 13,13
	.loc 1 2467 0
	lfs 10,8(11)
	lfs 12,24(9)
	.loc 1 2474 0
	lha 0,20(31)
	.loc 1 2465 0
	fdivs 8,8,13
	.loc 1 2467 0
	lfs 13,28(9)
	.loc 1 2474 0
	xoris 0,0,0x8000
	.loc 1 2465 0
	stfs 8,16(1)
	.loc 1 2467 0
	lfs 7,4(11)
	lfs 8,0(11)
	fmuls 7,9,7
	.loc 1 2468 0
	stw 10,36(1)
	stw 30,32(1)
	.loc 1 2467 0
	fmadds 7,8,11,7
	.loc 1 2473 0
	lfs 4,0(9)
	lfs 6,8(9)
	lfs 5,4(9)
	.loc 1 2467 0
	fmadds 7,10,12,7
	.loc 1 2468 0
	lfd 10,32(1)
	.loc 1 2473 0
	lfs 8,12(9)
	.loc 1 2468 0
	fsub 10,10,28
	.loc 1 2467 0
	fadds 7,7,13
	.loc 1 2468 0
	frsp 10,10
	fdivs 10,7,10
	stfs 10,20(1)
	.loc 1 2473 0
	lfs 10,4(11)
	lfs 7,0(11)
	fmuls 5,10,5
	.loc 1 2474 0
	stw 0,44(1)
	.loc 1 2475 0
	lwz 0,28(31)
	.loc 1 2479 0
	fmuls 10,9,10
	.loc 1 2474 0
	stw 30,40(1)
	.loc 1 2473 0
	fmadds 7,7,4,5
	.loc 1 2475 0
	slwi 0,0,4
	xoris 0,0,0x8000
	stw 30,48(1)
	stw 0,52(1)
	.loc 1 2473 0
	fmadds 7,0,6,7
	.loc 1 2474 0
	lfd 6,40(1)
	.loc 1 2480 0
	lha 9,22(31)
	.loc 1 2474 0
	fsub 6,6,31
	.loc 1 2481 0
	lwz 0,32(31)
	.loc 1 2473 0
	fadds 7,7,8
	.loc 1 2475 0
	lfd 8,48(1)
	.loc 1 2480 0
	xoris 9,9,0x8000
	.loc 1 2481 0
	slwi 0,0,4
	.loc 1 2474 0
	frsp 6,6
	.loc 1 2481 0
	xoris 0,0,0x8000
	.loc 1 2475 0
	fsub 8,8,31
	.loc 1 2474 0
	fsubs 7,7,6
	.loc 1 2475 0
	frsp 8,8
	fadds 9,7,8
	.loc 1 2476 0
	fadds 9,9,29
	.loc 1 2477 0
	fmuls 9,9,30
	stfs 9,8(1)
	.loc 1 2479 0
	lfs 9,0(11)
	.loc 1 2480 0
	stw 9,60(1)
	stw 30,56(1)
	.loc 1 2479 0
	fmadds 11,11,9,10
	.loc 1 2481 0
	stw 0,68(1)
	.loc 1 2480 0
	lfd 8,56(1)
	.loc 1 2481 0
	stw 30,64(1)
	.loc 1 2479 0
	fmadds 0,0,12,11
	.loc 1 2480 0
	fsub 8,8,31
	.loc 1 2481 0
	lfd 10,64(1)
	.loc 1 2479 0
	fadds 0,13,0
	.loc 1 2480 0
	frsp 8,8
	.loc 1 2481 0
	fsub 10,10,31
	.loc 1 2480 0
	fsubs 0,0,8
	.loc 1 2481 0
	frsp 10,10
	fadds 0,0,10
	.loc 1 2482 0
	fadds 0,0,29
	.loc 1 2483 0
	fmuls 0,0,30
	stfs 0,12(1)
	.loc 1 2486 0
	bl R_AllocateVertexInTemp
.LVL434:
	.loc 1 2489 0
	srawi 0,28,31
	lwz 9,0(24)
	xor 28,0,28
.LVL435:
	subf 28,0,28
	mulli 28,28,12
	.loc 1 2491 0
	lwzx 11,9,28
	.loc 1 2489 0
	add 0,9,28
.LVL436:
	.loc 1 2491 0
	cmpwi 7,11,1
	bgt- 7,.L364
	.loc 1 2450 0
	addi 29,29,1
.LVL437:
	.loc 1 2492 0
	slwi 10,11,2
	.loc 1 2450 0
	cmpw 7,29,27
	.loc 1 2492 0
	add 10,0,10
	.loc 1 2493 0
	addi 11,11,1
	.loc 1 2492 0
	stw 26,4(10)
	.loc 1 2493 0
	stwx 11,9,28
	.loc 1 2450 0
	bne+ 7,.L366
.LVL438:
.L361:
	.loc 1 2501 0
	lwz 0,156(1)
	.loc 1 2499 0
	stw 27,8(26)
	.loc 1 2501 0
	mtlr 0
	lwz 21,76(1)
	lwz 22,80(1)
	lwz 23,84(1)
	lwz 24,88(1)
	lwz 25,92(1)
.LVL439:
	lwz 26,96(1)
.LVL440:
	lwz 27,100(1)
.LVL441:
	lwz 28,104(1)
	lwz 29,108(1)
	lwz 30,112(1)
	lwz 31,116(1)
.LVL442:
	lfd 28,120(1)
	lfd 29,128(1)
	lfd 30,136(1)
	lfd 31,144(1)
	addi 1,1,152
	.cfi_remember_state
.LCFI96:
	.cfi_def_cfa_offset 0
	.cfi_restore 63
	.cfi_restore 62
	.cfi_restore 61
	.cfi_restore 60
	.cfi_restore 31
	.cfi_restore 30
	.cfi_restore 29
	.cfi_restore 28
	.cfi_restore 27
	.cfi_restore 26
	.cfi_restore 25
	.cfi_restore 24
	.cfi_restore 23
	.cfi_restore 22
	.cfi_restore 21
	blr
.LVL443:
.L362:
.LCFI97:
	.cfi_restore_state
	.loc 1 2462 0
	mulli 9,28,-8
	lwz 0,0(22)
	add 9,25,9
	lhz 11,2(9)
	mulli 11,11,12
	add 11,0,11
.LVL444:
	b .L363
	.cfi_endproc
.LFE71:
	.size	BuildPolyFromSurface, .-BuildPolyFromSurface
	.align 2
	.globl GL_CreateSurfaceLightmap
	.type	GL_CreateSurfaceLightmap, @function
GL_CreateSurfaceLightmap:
.LFB72:
	.loc 1 2509 0
	.cfi_startproc
.LVL445:
	mflr 0
	stwu 1,-16(1)
.LCFI98:
	.cfi_def_cfa_offset 16
	.cfi_register 65, 0
	stw 31,12(1)
	mr 31,3
	.cfi_offset 31, -4
	stw 0,20(1)
	.loc 1 2513 0
	lwz 0,8(3)
	.cfi_offset 65, 4
	andi. 9,0,20
	beq- 0,.L370
	.loc 1 2523 0
	lwz 0,20(1)
	lwz 31,12(1)
	mtlr 0
	addi 1,1,16
	.cfi_remember_state
.LCFI99:
	.cfi_def_cfa_offset 0
	.cfi_restore 31
	blr
.L370:
.LCFI100:
	.cfi_restore_state
.LVL446:
	.loc 1 2517 0
	lha 4,26(31)
	.loc 1 2519 0
	addi 5,31,28
	.loc 1 2516 0
	lha 3,24(3)
.LVL447:
	.loc 1 2519 0
	addi 6,31,32
	.loc 1 2517 0
	srawi 4,4,4
	.loc 1 2516 0
	srawi 3,3,4
	.loc 1 2519 0
	addi 4,4,1
	addi 3,3,1
	bl AllocBlock
.LVL448:
	.loc 1 2520 0
	lis 9,lightmap_bytes@ha
	lwz 5,lightmap_bytes@l(9)
	.loc 1 2521 0
	lwz 0,32(31)
	lwz 9,28(31)
	.loc 1 2520 0
	mullw 4,3,5
	.loc 1 2521 0
	slwi 0,0,7
	.loc 1 2519 0
	stw 3,60(31)
	.loc 1 2521 0
	add 0,0,9
	.loc 1 2520 0
	lis 9,lightmaps@ha
	.loc 1 2521 0
	mullw 0,5,0
	.loc 1 2520 0
	slwi 4,4,14
	la 9,lightmaps@l(9)
	add 4,4,9
	.loc 1 2522 0
	mr 3,31
	.loc 1 2523 0
	lwz 31,12(1)
.LVL449:
	.loc 1 2522 0
	add 4,4,0
	.loc 1 2523 0
	lwz 0,20(1)
	.loc 1 2522 0
	slwi 5,5,7
	.loc 1 2523 0
	mtlr 0
	addi 1,1,16
.LCFI101:
	.cfi_def_cfa_offset 0
	.cfi_restore 31
	.loc 1 2522 0
	b R_BuildLightMap
.LVL450:
	.cfi_endproc
.LFE72:
	.size	GL_CreateSurfaceLightmap, .-GL_CreateSurfaceLightmap
	.align 2
	.globl GL_BuildLightmaps
	.type	GL_BuildLightmaps, @function
GL_BuildLightmaps:
.LFB73:
	.loc 1 2535 0
	.cfi_startproc
	stwu 1,-80(1)
.LCFI102:
	.cfi_def_cfa_offset 80
	mflr 0
	.loc 1 2540 0
	li 5,0
	li 4,0
	.loc 1 2535 0
	stw 25,44(1)
	.loc 1 2540 0
	lis 25,allocated@ha
	.cfi_offset 25, -36
	.cfi_register 65, 0
	la 25,allocated@l(25)
	.loc 1 2535 0
	stw 26,48(1)
	.loc 1 2540 0
	mr 3,25
	ori 5,5,32768
	.loc 1 2544 0
	lis 26,lightmap_textures@ha
	.cfi_offset 26, -32
	.loc 1 2535 0
	stw 0,84(1)
	stfd 31,72(1)
	stw 19,20(1)
	stw 20,24(1)
	stw 21,28(1)
	stw 22,32(1)
	stw 23,36(1)
	stw 24,40(1)
	stw 27,52(1)
	stw 28,56(1)
	stw 29,60(1)
	stw 30,64(1)
	stw 31,68(1)
	.loc 1 2540 0
	.cfi_offset 31, -12
	.cfi_offset 30, -16
	.cfi_offset 29, -20
	.cfi_offset 28, -24
	.cfi_offset 27, -28
	.cfi_offset 24, -40
	.cfi_offset 23, -44
	.cfi_offset 22, -48
	.cfi_offset 21, -52
	.cfi_offset 20, -56
	.cfi_offset 19, -60
	.cfi_offset 63, -8
	.cfi_offset 65, 4
	bl memset
	.loc 1 2544 0
	lwz 0,lightmap_textures@l(26)
	.loc 1 2542 0
	lis 9,r_framecount@ha
	.loc 1 2544 0
	cmpwi 7,0,0
	.loc 1 2542 0
	li 0,1
	stw 0,r_framecount@l(9)
	.loc 1 2544 0
	bne- 7,.L372
	.loc 1 2546 0
	lis 9,texture_extension_number@ha
	lwz 11,texture_extension_number@l(9)
	.loc 1 2547 0
	addi 0,11,64
	.loc 1 2546 0
	stw 11,lightmap_textures@l(26)
	.loc 1 2547 0
	stw 0,texture_extension_number@l(9)
.L372:
	.loc 1 2553 0
	lis 9,isPermedia@ha
	.loc 1 2550 0
	lis 27,gl_lightmap_format@ha
	.loc 1 2553 0
	lbz 0,isPermedia@l(9)
	cmpwi 7,0,0
	.loc 1 2550 0
	li 0,6409
	stw 0,gl_lightmap_format@l(27)
	.loc 1 2553 0
	beq- 7,.L373
	.loc 1 2554 0
	li 0,6408
	stw 0,gl_lightmap_format@l(27)
.L373:
	.loc 1 2556 0
	lis 3,.LC34@ha
	la 3,.LC34@l(3)
	bl COM_CheckParm
	cmpwi 7,3,0
	beq- 7,.L374
	.loc 1 2557 0
	li 0,6409
	stw 0,gl_lightmap_format@l(27)
.L374:
	.loc 1 2558 0
	lis 3,.LC35@ha
	la 3,.LC35@l(3)
	bl COM_CheckParm
	cmpwi 7,3,0
	beq- 7,.L375
	.loc 1 2559 0
	li 0,6406
	stw 0,gl_lightmap_format@l(27)
.L375:
	.loc 1 2560 0
	lis 3,.LC36@ha
	la 3,.LC36@l(3)
	bl COM_CheckParm
	cmpwi 7,3,0
	beq- 7,.L376
	.loc 1 2561 0
	li 0,0
	ori 0,0,32841
	stw 0,gl_lightmap_format@l(27)
.L376:
	.loc 1 2562 0
	lis 3,.LC37@ha
	la 3,.LC37@l(3)
	bl COM_CheckParm
	cmpwi 7,3,0
	beq- 7,.L377
	.loc 1 2563 0
	li 0,0
	ori 0,0,32854
	stw 0,gl_lightmap_format@l(27)
.L377:
	.loc 1 2564 0
	lis 3,.LC38@ha
	la 3,.LC38@l(3)
	bl COM_CheckParm
	cmpwi 7,3,0
	beq- 7,.L378
	.loc 1 2565 0
	li 0,6408
	stw 0,gl_lightmap_format@l(27)
.L379:
	.loc 1 2570 0
	li 0,4
	lis 9,lightmap_bytes@ha
	stw 0,lightmap_bytes@l(9)
.L380:
.LVL451:
	.loc 1 2579 0 discriminator 1
	lis 24,cl+588@ha
	.loc 1 2590 0 discriminator 1
	lis 19,r_pcurrentvertbase@ha
	.loc 1 2579 0 discriminator 1
	la 24,cl+588@l(24)
	.loc 1 2591 0 discriminator 1
	lis 20,currentmodel@ha
	.loc 1 2534 0 discriminator 1
	addi 22,24,1020
	mr 23,24
	.loc 1 2594 0 discriminator 1
	lis 21,tempEdges@ha
	.loc 1 2605 0 discriminator 1
	li 28,0
.LVL452:
.L392:
	.loc 1 2584 0
	lwzu 31,4(23)
.LVL453:
	.loc 1 2585 0
	cmpwi 7,31,0
	beq- 7,.L384
	.loc 1 2587 0
	lbz 0,0(31)
	cmpwi 7,0,42
	beq- 7,.L385
	.loc 1 2594 0
	lwz 3,180(31)
	.loc 1 2590 0
	lwz 0,176(31)
	.loc 1 2594 0
	mulli 3,3,12
	.loc 1 2591 0
	stw 31,currentmodel@l(20)
	.loc 1 2590 0
	stw 0,r_pcurrentvertbase@l(19)
	.loc 1 2594 0
	bl Hunk_TempAlloc
.LVL454:
	.loc 1 2597 0
	lwz 0,180(31)
	.loc 1 2594 0
	stw 3,tempEdges@l(21)
.LVL455:
	.loc 1 2597 0
	cmpwi 7,0,0
	ble- 7,.L386
	.loc 1 2598 0
	mtctr 0
.LVL456:
.L387:
	.loc 1 2598 0 is_stmt 0 discriminator 2
	stw 28,0(3)
	.loc 1 2599 0 is_stmt 1 discriminator 2
	stw 28,4(3)
	.loc 1 2600 0 discriminator 2
	stw 28,8(3)
	.loc 1 2597 0 discriminator 2
	addi 3,3,12
	bdnz .L387
.L386:
.LVL457:
	.loc 1 2605 0 discriminator 1
	lwz 0,204(31)
	cmpwi 7,0,0
	ble- 7,.L385
	.loc 1 2605 0 is_stmt 0
	li 30,0
	li 29,0
	b .L389
.LVL458:
.L388:
	lwz 0,204(31)
	cmpw 7,0,29
	ble- 7,.L407
.LVL459:
.L389:
	.loc 1 2607 0 is_stmt 1
	lwz 3,208(31)
	.loc 1 2605 0
	addi 29,29,1
	.loc 1 2607 0
	add 3,3,30
	bl GL_CreateSurfaceLightmap
	.loc 1 2608 0
	lwz 3,208(31)
	add 3,3,30
	.loc 1 2605 0
	addi 30,30,92
	.loc 1 2608 0
	lwz 0,8(3)
	andi. 9,0,16
	bne+ 0,.L388
	.loc 1 2614 0
	bl BuildPolyFromSurface
.LVL460:
	.loc 1 2605 0
	lwz 0,204(31)
	cmpw 7,0,29
	bgt+ 7,.L389
.L407:
.LVL461:
	.loc 1 2618 0 discriminator 1
	cmpwi 7,0,0
	ble- 7,.L385
	.loc 1 2618 0 is_stmt 0
	li 29,0
	li 30,0
	b .L391
.LVL462:
.L390:
	cmpw 7,0,30
	ble- 7,.L385
.LVL463:
.L391:
	.loc 1 2620 0 is_stmt 1
	lwz 3,208(31)
	.loc 1 2618 0
	addi 30,30,1
	.loc 1 2620 0
	add 3,3,29
	.loc 1 2618 0
	addi 29,29,92
	.loc 1 2534 0
	lwz 9,8(3)
	.loc 1 2623 0
	andi. 11,9,20
	bne+ 0,.L390
	.loc 1 2626 0
	bl SetupSurfaceConnectivity
	lwz 0,204(31)
.LVL464:
	.loc 1 2618 0
	cmpw 7,0,30
	bgt+ 7,.L391
.LVL465:
.L385:
	.loc 1 2582 0
	cmpw 7,23,22
	bne+ 7,.L392
.L384:
	.loc 1 2630 0
	lis 3,.LC39@ha
	la 3,.LC39@l(3)
	crxor 6,6,6
	bl Con_Printf
.LVL466:
.L396:
.LBB19:
	.loc 1 2640 0
	lwzu 29,4(24)
.LVL467:
	.loc 1 2641 0
	cmpwi 7,29,0
	beq- 7,.L393
	.loc 1 2643 0
	lbz 0,0(29)
	cmpwi 7,0,42
	beq- 7,.L394
	.loc 1 2647 0
	lwz 0,196(29)
	.loc 1 2646 0
	lwz 31,200(29)
.LVL468:
	.loc 1 2647 0
	cmpwi 7,0,0
	ble- 7,.L394
	li 30,0
.LVL469:
.L395:
	.loc 1 2648 0 discriminator 2
	mr 3,31
	.loc 1 2647 0 discriminator 2
	addi 30,30,1
	.loc 1 2648 0 discriminator 2
	bl VectorNormalize
	.loc 1 2649 0 discriminator 2
	addi 3,31,16
	bl VectorNormalize
.LVL470:
	.loc 1 2647 0 discriminator 2
	lwz 0,196(29)
	addi 31,31,44
	cmpw 7,0,30
	bgt+ 7,.L395
.LVL471:
.L394:
.LBE19:
	.loc 1 2636 0
	cmpw 7,24,22
	bne+ 7,.L396
.L393:
	.loc 1 2658 0
	lis 3,.LC40@ha
	lis 30,lightmap_rectchange@ha
	la 3,.LC40@l(3)
	.loc 1 2674 0
	lis 23,lightmaps@ha
	.loc 1 2679 0
	lis 20,.LC42@ha
	.loc 1 2658 0
	crxor 6,6,6
	bl Sys_Printf
.LVL472:
	la 30,lightmap_rectchange@l(30)
	.loc 1 2662 0
	li 31,0
	.loc 1 2666 0
	lis 24,lightmap_modified@ha
	li 29,0
.LVL473:
	.loc 1 2667 0
	li 28,-128
	.loc 1 2672 0
	lis 21,.LC41@ha
	.loc 1 2676 0
	lis 22,lightmap_bytes@ha
	.loc 1 2674 0
	la 23,lightmaps@l(23)
	.loc 1 2679 0
	la 20,.LC42@l(20)
	b .L399
.LVL474:
.L398:
	.loc 1 2662 0
	cmpwi 7,31,63
	addi 31,31,1
.LVL475:
	beq- 7,.L397
.LVL476:
.L399:
	.loc 1 2534 0
	slwi 0,31,9
	.loc 1 2666 0
	la 9,lightmap_modified@l(24)
	.loc 1 2664 0
	lwzx 0,25,0
	cmpwi 7,0,0
	beq- 7,.L397
	.loc 1 2671 0
	lwz 3,lightmap_textures@l(26)
	.loc 1 2666 0
	stbx 29,9,31
	.loc 1 2667 0
	stb 28,0(30)
	.loc 1 2671 0
	add 3,31,3
	.loc 1 2668 0
	stb 28,1(30)
	.loc 1 2669 0
	stb 29,2(30)
	.loc 1 2670 0
	stb 29,3(30)
	.loc 1 2662 0
	addi 30,30,4
	.loc 1 2671 0
	bl GL_Bind
	.loc 1 2672 0
	lfs 31,.LC41@l(21)
	li 3,3553
	li 4,10241
	fmr 1,31
	bl glTexParameterf
	.loc 1 2673 0
	fmr 1,31
	li 3,3553
	li 4,10240
	bl glTexParameterf
	.loc 1 2676 0
	lwz 5,lightmap_bytes@l(22)
	.loc 1 2534 0
	slwi 0,31,14
	.loc 1 2674 0
	lwz 9,gl_lightmap_format@l(27)
	.loc 1 2676 0
	mullw 0,5,0
	.loc 1 2674 0
	li 4,0
	li 6,128
	li 7,128
	li 8,0
	add 0,0,23
	li 10,5121
	li 3,3553
	stw 0,8(1)
	bl glTexImage2D
	.loc 1 2678 0
	bl glGetError
	cmpwi 7,3,1285
	bne+ 7,.L398
	.loc 1 2679 0
	lwz 5,lightmap_textures@l(26)
	mr 4,31
	mr 3,20
	add 5,31,5
	crxor 6,6,6
	bl Sys_Printf
.LVL477:
	.loc 1 2662 0
	cmpwi 7,31,63
	addi 31,31,1
.LVL478:
	bne+ 7,.L399
.LVL479:
.L397:
	.loc 1 2683 0
	lis 3,.LC43@ha
	la 3,.LC43@l(3)
	crxor 6,6,6
	bl Sys_Printf
	.loc 1 2690 0
	lwz 0,84(1)
	lwz 19,20(1)
	mtlr 0
	lwz 20,24(1)
	lwz 21,28(1)
	lwz 22,32(1)
	lwz 23,36(1)
	lwz 24,40(1)
	lwz 25,44(1)
	lwz 26,48(1)
	lwz 27,52(1)
	lwz 28,56(1)
	lwz 29,60(1)
	lwz 30,64(1)
	lwz 31,68(1)
	lfd 31,72(1)
	addi 1,1,80
	.cfi_remember_state
.LCFI103:
	.cfi_def_cfa_offset 0
	.cfi_restore 63
	.cfi_restore 31
	.cfi_restore 30
	.cfi_restore 29
	.cfi_restore 28
	.cfi_restore 27
	.cfi_restore 26
	.cfi_restore 25
	.cfi_restore 24
	.cfi_restore 23
	.cfi_restore 22
	.cfi_restore 21
	.cfi_restore 20
	.cfi_restore 19
	blr
.L378:
.LCFI104:
	.cfi_restore_state
	.loc 1 2567 0
	lwz 0,gl_lightmap_format@l(27)
	cmpwi 7,0,6409
	beq- 7,.L381
	ble- 7,.L408
	xoris 9,0,0xffff
	cmpwi 7,9,-32695
	beq 7,.L381
	xoris 9,0,0xffff
	cmpwi 7,9,-32682
	bne 7,.L380
	.loc 1 2573 0
	li 0,2
	lis 9,lightmap_bytes@ha
	stw 0,lightmap_bytes@l(9)
	.loc 1 2574 0
	b .L380
.L381:
	.loc 1 2578 0
	li 0,1
	lis 9,lightmap_bytes@ha
	stw 0,lightmap_bytes@l(9)
	.loc 1 2579 0
	b .L380
.L408:
	.loc 1 2567 0
	cmpwi 7,0,6406
	beq- 7,.L381
	cmpwi 7,0,6408
	bne+ 7,.L380
	b .L379
	.cfi_endproc
.LFE73:
	.size	GL_BuildLightmaps, .-GL_BuildLightmaps
	.comm	tempEdges,4,4
	.comm	nColinElim,4,4
	.comm	currentmodel,4,4
	.comm	r_pcurrentvertbase,4,4
	.comm	didnode,1,1
	.globl mtexenabled
	.globl wglFreeMemoryNV
	.globl wglAllocateMemoryNV
	.globl glVertexArrayRangeNV
	.globl qglFlushVertexArrayRangeNV
	.globl qglVertexAttribs4ubvNV
	.globl qglVertexAttribs4svNV
	.globl qglVertexAttribs4fvNV
	.globl qglVertexAttribs4dvNV
	.globl qglVertexAttribs3svNV
	.globl qglVertexAttribs3fvNV
	.globl qglVertexAttribs3dvNV
	.globl qglVertexAttribs2svNV
	.globl qglVertexAttribs2fvNV
	.globl qglVertexAttribs2dvNV
	.globl qglVertexAttribs1svNV
	.globl qglVertexAttribs1fvNV
	.globl qglVertexAttribs1dvNV
	.globl qglVertexAttrib4ubvNV
	.globl qglVertexAttrib4svNV
	.globl qglVertexAttrib4sNV
	.globl qglVertexAttrib4fvNV
	.globl qglVertexAttrib4fNV
	.globl qglVertexAttrib4dvNV
	.globl qglVertexAttrib4dNV
	.globl qglVertexAttrib3svNV
	.globl qglVertexAttrib3sNV
	.globl qglVertexAttrib3fvNV
	.globl qglVertexAttrib3fNV
	.globl qglVertexAttrib3dvNV
	.globl qglVertexAttrib3dNV
	.globl qglVertexAttrib2svNV
	.globl qglVertexAttrib2sNV
	.globl qglVertexAttrib2fvNV
	.globl qglVertexAttrib2fNV
	.globl qglVertexAttrib2dvNV
	.globl qglVertexAttrib2dNV
	.globl qglVertexAttrib1svNV
	.globl qglVertexAttrib1sNV
	.globl qglVertexAttrib1fvNV
	.globl qglVertexAttrib1fNV
	.globl qglVertexAttrib1dvNV
	.globl qglVertexAttrib1dNV
	.globl qglVertexAttribPointerNV
	.globl qglTrackMatrixNV
	.globl qglRequestResidentProgramsNV
	.globl qglProgramParameters4fvNV
	.globl qglProgramParameters4dvNV
	.globl qglProgramParameter4fvNV
	.globl qglProgramParameter4fNV
	.globl qglProgramParameter4dvNV
	.globl qglProgramParameter4dNV
	.globl qglLoadProgramNV
	.globl qglIsProgramNV
	.globl qglGetVertexAttribPointervNV
	.globl qglGetVertexAttribivNV
	.globl qglGetVertexAttribfvNV
	.globl qglGetVertexAttribdvNV
	.globl qglGetTrackMatrixivNV
	.globl qglGetProgramStringNV
	.globl qglGetProgramivNV
	.globl qglGetProgramParameterfvNV
	.globl qglGetProgramParameterdvNV
	.globl qglGenProgramsNV
	.globl qglExecuteProgramNV
	.globl qglDeleteProgramsNV
	.globl qglBindProgramNV
	.globl qglAreProgramsResidentNV
	.globl qglMultiTexCoord3fvARB
	.globl qglMultiTexCoord3fARB
	.globl qglMultiTexCoord2fvARB
	.globl qglMultiTexCoord2fARB
	.globl qglMultiTexCoord1fARB
	.globl qglClientActiveTextureARB
	.globl qglActiveTextureARB
	.globl qglDepthBoundsNV
	.globl qglTexImage3DEXT
	.globl qglGetFinalCombinerInputParameterivNV
	.globl qglGetFinalCombinerInputParameterfvNV
	.globl qglGetCombinerOutputParameterivNV
	.globl qglGetCombinerOutputParameterfvNV
	.globl qglGetCombinerInputParameterivNV
	.globl qglGetCombinerInputParameterfvNV
	.globl qglFinalCombinerInputNV
	.globl qglCombinerOutputNV
	.globl qglCombinerInputNV
	.globl qglCombinerParameteriNV
	.globl qglCombinerParameterfNV
	.globl qglCombinerParameterivNV
	.globl qglCombinerParameterfvNV
	.globl numTempVertices
	.globl tempVerticesSize
	.globl tempVertices
	.globl globalVertexTable
	.globl waterchain
	.globl skychain
	.comm	lightmaps,4194304,4
	.comm	allocated,32768,4
	.comm	lightmap_rectchange,256,1
	.comm	lightmap_modified,64,4
	.comm	lightmap_polys,256,4
	.comm	active_lightmaps,4,4
	.comm	blocklights,1296,4
	.comm	lightmap_textures,4,4
	.comm	lightmap_bytes,4,4
	.comm	causticschain,4,4
	.section	.rodata.cst4,"aM",@progbits,4
	.align 2
.LC3:
	.4byte	1501560836
.LC5:
	.4byte	1501560832
.LC6:
	.4byte	1132462080
.LC7:
	.4byte	1325400064
.LC9:
	.4byte	0
.LC11:
	.4byte	1092616192
.LC16:
	.4byte	1090519040
.LC17:
	.4byte	1174667264
.LC18:
	.4byte	1065353216
.LC19:
	.4byte	1173358592
.LC20:
	.4byte	1161699328
.LC22:
	.4byte	1098907648
.LC23:
	.4byte	1191538688
.LC24:
	.4byte	1191540480
.LC25:
	.4byte	1169690624
.LC32:
	.4byte	973078528
.LC41:
	.4byte	1175979008
	.section	.rodata.cst8,"aM",@progbits,8
	.align 3
.LC14:
	.4byte	1068079513
	.4byte	-1717986918
.LC26:
	.4byte	-1081836831
	.4byte	1202590843
.LC27:
	.4byte	1065646817
	.4byte	1202590843
.LC28:
	.4byte	0
	.4byte	0
	.section	.rodata.str1.4,"aMS",@progbits,1
	.align 2
.LC0:
	.string	"R_AllocateVertexInTemp: malloc failed\n"
	.zero	1
.LC1:
	.string	"Copied %i vertices to hunk\n"
.LC8:
	.string	"Bad lightmap format"
.LC12:
	.string	"R_TextureAnimation: broken cycle"
	.zero	3
.LC13:
	.string	"R_TextureAnimation: infinite cycle"
	.zero	1
.LC29:
	.string	"AllocBlock: full"
	.zero	3
.LC30:
	.string	"to many edges %i\n"
	.zero	2
.LC31:
	.string	"moord en brand %d\n"
	.zero	1
.LC33:
	.string	"BuildSurfaceDisplayList: Edge used by more than 2 surfaces\n"
.LC34:
	.string	"-lm_1"
	.zero	2
.LC35:
	.string	"-lm_a"
	.zero	2
.LC36:
	.string	"-lm_i"
	.zero	2
.LC37:
	.string	"-lm_2"
	.zero	2
.LC38:
	.string	"-lm_4"
	.zero	2
.LC39:
	.string	"Connectivity calculated\n"
	.zero	3
.LC40:
	.string	">>>>>>>> Loading lightmaps....\n"
.LC42:
	.string	"Out of memory loading lightmap %d (texid %d)\n"
	.zero	2
.LC43:
	.string	"End Loading lightmaps....\n"
	.section	.sbss,"aw",@nobits
	.align 2
	.type	mtexenabled, @object
	.size	mtexenabled, 1
mtexenabled:
	.zero	1
	.zero	3
	.type	wglFreeMemoryNV, @object
	.size	wglFreeMemoryNV, 4
wglFreeMemoryNV:
	.zero	4
	.type	wglAllocateMemoryNV, @object
	.size	wglAllocateMemoryNV, 4
wglAllocateMemoryNV:
	.zero	4
	.type	glVertexArrayRangeNV, @object
	.size	glVertexArrayRangeNV, 4
glVertexArrayRangeNV:
	.zero	4
	.type	qglFlushVertexArrayRangeNV, @object
	.size	qglFlushVertexArrayRangeNV, 4
qglFlushVertexArrayRangeNV:
	.zero	4
	.type	qglVertexAttribs4ubvNV, @object
	.size	qglVertexAttribs4ubvNV, 4
qglVertexAttribs4ubvNV:
	.zero	4
	.type	qglVertexAttribs4svNV, @object
	.size	qglVertexAttribs4svNV, 4
qglVertexAttribs4svNV:
	.zero	4
	.type	qglVertexAttribs4fvNV, @object
	.size	qglVertexAttribs4fvNV, 4
qglVertexAttribs4fvNV:
	.zero	4
	.type	qglVertexAttribs4dvNV, @object
	.size	qglVertexAttribs4dvNV, 4
qglVertexAttribs4dvNV:
	.zero	4
	.type	qglVertexAttribs3svNV, @object
	.size	qglVertexAttribs3svNV, 4
qglVertexAttribs3svNV:
	.zero	4
	.type	qglVertexAttribs3fvNV, @object
	.size	qglVertexAttribs3fvNV, 4
qglVertexAttribs3fvNV:
	.zero	4
	.type	qglVertexAttribs3dvNV, @object
	.size	qglVertexAttribs3dvNV, 4
qglVertexAttribs3dvNV:
	.zero	4
	.type	qglVertexAttribs2svNV, @object
	.size	qglVertexAttribs2svNV, 4
qglVertexAttribs2svNV:
	.zero	4
	.type	qglVertexAttribs2fvNV, @object
	.size	qglVertexAttribs2fvNV, 4
qglVertexAttribs2fvNV:
	.zero	4
	.type	qglVertexAttribs2dvNV, @object
	.size	qglVertexAttribs2dvNV, 4
qglVertexAttribs2dvNV:
	.zero	4
	.type	qglVertexAttribs1svNV, @object
	.size	qglVertexAttribs1svNV, 4
qglVertexAttribs1svNV:
	.zero	4
	.type	qglVertexAttribs1fvNV, @object
	.size	qglVertexAttribs1fvNV, 4
qglVertexAttribs1fvNV:
	.zero	4
	.type	qglVertexAttribs1dvNV, @object
	.size	qglVertexAttribs1dvNV, 4
qglVertexAttribs1dvNV:
	.zero	4
	.type	qglVertexAttrib4ubvNV, @object
	.size	qglVertexAttrib4ubvNV, 4
qglVertexAttrib4ubvNV:
	.zero	4
	.type	qglVertexAttrib4svNV, @object
	.size	qglVertexAttrib4svNV, 4
qglVertexAttrib4svNV:
	.zero	4
	.type	qglVertexAttrib4sNV, @object
	.size	qglVertexAttrib4sNV, 4
qglVertexAttrib4sNV:
	.zero	4
	.type	qglVertexAttrib4fvNV, @object
	.size	qglVertexAttrib4fvNV, 4
qglVertexAttrib4fvNV:
	.zero	4
	.type	qglVertexAttrib4fNV, @object
	.size	qglVertexAttrib4fNV, 4
qglVertexAttrib4fNV:
	.zero	4
	.type	qglVertexAttrib4dvNV, @object
	.size	qglVertexAttrib4dvNV, 4
qglVertexAttrib4dvNV:
	.zero	4
	.type	qglVertexAttrib4dNV, @object
	.size	qglVertexAttrib4dNV, 4
qglVertexAttrib4dNV:
	.zero	4
	.type	qglVertexAttrib3svNV, @object
	.size	qglVertexAttrib3svNV, 4
qglVertexAttrib3svNV:
	.zero	4
	.type	qglVertexAttrib3sNV, @object
	.size	qglVertexAttrib3sNV, 4
qglVertexAttrib3sNV:
	.zero	4
	.type	qglVertexAttrib3fvNV, @object
	.size	qglVertexAttrib3fvNV, 4
qglVertexAttrib3fvNV:
	.zero	4
	.type	qglVertexAttrib3fNV, @object
	.size	qglVertexAttrib3fNV, 4
qglVertexAttrib3fNV:
	.zero	4
	.type	qglVertexAttrib3dvNV, @object
	.size	qglVertexAttrib3dvNV, 4
qglVertexAttrib3dvNV:
	.zero	4
	.type	qglVertexAttrib3dNV, @object
	.size	qglVertexAttrib3dNV, 4
qglVertexAttrib3dNV:
	.zero	4
	.type	qglVertexAttrib2svNV, @object
	.size	qglVertexAttrib2svNV, 4
qglVertexAttrib2svNV:
	.zero	4
	.type	qglVertexAttrib2sNV, @object
	.size	qglVertexAttrib2sNV, 4
qglVertexAttrib2sNV:
	.zero	4
	.type	qglVertexAttrib2fvNV, @object
	.size	qglVertexAttrib2fvNV, 4
qglVertexAttrib2fvNV:
	.zero	4
	.type	qglVertexAttrib2fNV, @object
	.size	qglVertexAttrib2fNV, 4
qglVertexAttrib2fNV:
	.zero	4
	.type	qglVertexAttrib2dvNV, @object
	.size	qglVertexAttrib2dvNV, 4
qglVertexAttrib2dvNV:
	.zero	4
	.type	qglVertexAttrib2dNV, @object
	.size	qglVertexAttrib2dNV, 4
qglVertexAttrib2dNV:
	.zero	4
	.type	qglVertexAttrib1svNV, @object
	.size	qglVertexAttrib1svNV, 4
qglVertexAttrib1svNV:
	.zero	4
	.type	qglVertexAttrib1sNV, @object
	.size	qglVertexAttrib1sNV, 4
qglVertexAttrib1sNV:
	.zero	4
	.type	qglVertexAttrib1fvNV, @object
	.size	qglVertexAttrib1fvNV, 4
qglVertexAttrib1fvNV:
	.zero	4
	.type	qglVertexAttrib1fNV, @object
	.size	qglVertexAttrib1fNV, 4
qglVertexAttrib1fNV:
	.zero	4
	.type	qglVertexAttrib1dvNV, @object
	.size	qglVertexAttrib1dvNV, 4
qglVertexAttrib1dvNV:
	.zero	4
	.type	qglVertexAttrib1dNV, @object
	.size	qglVertexAttrib1dNV, 4
qglVertexAttrib1dNV:
	.zero	4
	.type	qglVertexAttribPointerNV, @object
	.size	qglVertexAttribPointerNV, 4
qglVertexAttribPointerNV:
	.zero	4
	.type	qglTrackMatrixNV, @object
	.size	qglTrackMatrixNV, 4
qglTrackMatrixNV:
	.zero	4
	.type	qglRequestResidentProgramsNV, @object
	.size	qglRequestResidentProgramsNV, 4
qglRequestResidentProgramsNV:
	.zero	4
	.type	qglProgramParameters4fvNV, @object
	.size	qglProgramParameters4fvNV, 4
qglProgramParameters4fvNV:
	.zero	4
	.type	qglProgramParameters4dvNV, @object
	.size	qglProgramParameters4dvNV, 4
qglProgramParameters4dvNV:
	.zero	4
	.type	qglProgramParameter4fvNV, @object
	.size	qglProgramParameter4fvNV, 4
qglProgramParameter4fvNV:
	.zero	4
	.type	qglProgramParameter4fNV, @object
	.size	qglProgramParameter4fNV, 4
qglProgramParameter4fNV:
	.zero	4
	.type	qglProgramParameter4dvNV, @object
	.size	qglProgramParameter4dvNV, 4
qglProgramParameter4dvNV:
	.zero	4
	.type	qglProgramParameter4dNV, @object
	.size	qglProgramParameter4dNV, 4
qglProgramParameter4dNV:
	.zero	4
	.type	qglLoadProgramNV, @object
	.size	qglLoadProgramNV, 4
qglLoadProgramNV:
	.zero	4
	.type	qglIsProgramNV, @object
	.size	qglIsProgramNV, 4
qglIsProgramNV:
	.zero	4
	.type	qglGetVertexAttribPointervNV, @object
	.size	qglGetVertexAttribPointervNV, 4
qglGetVertexAttribPointervNV:
	.zero	4
	.type	qglGetVertexAttribivNV, @object
	.size	qglGetVertexAttribivNV, 4
qglGetVertexAttribivNV:
	.zero	4
	.type	qglGetVertexAttribfvNV, @object
	.size	qglGetVertexAttribfvNV, 4
qglGetVertexAttribfvNV:
	.zero	4
	.type	qglGetVertexAttribdvNV, @object
	.size	qglGetVertexAttribdvNV, 4
qglGetVertexAttribdvNV:
	.zero	4
	.type	qglGetTrackMatrixivNV, @object
	.size	qglGetTrackMatrixivNV, 4
qglGetTrackMatrixivNV:
	.zero	4
	.type	qglGetProgramStringNV, @object
	.size	qglGetProgramStringNV, 4
qglGetProgramStringNV:
	.zero	4
	.type	qglGetProgramivNV, @object
	.size	qglGetProgramivNV, 4
qglGetProgramivNV:
	.zero	4
	.type	qglGetProgramParameterfvNV, @object
	.size	qglGetProgramParameterfvNV, 4
qglGetProgramParameterfvNV:
	.zero	4
	.type	qglGetProgramParameterdvNV, @object
	.size	qglGetProgramParameterdvNV, 4
qglGetProgramParameterdvNV:
	.zero	4
	.type	qglGenProgramsNV, @object
	.size	qglGenProgramsNV, 4
qglGenProgramsNV:
	.zero	4
	.type	qglExecuteProgramNV, @object
	.size	qglExecuteProgramNV, 4
qglExecuteProgramNV:
	.zero	4
	.type	qglDeleteProgramsNV, @object
	.size	qglDeleteProgramsNV, 4
qglDeleteProgramsNV:
	.zero	4
	.type	qglBindProgramNV, @object
	.size	qglBindProgramNV, 4
qglBindProgramNV:
	.zero	4
	.type	qglAreProgramsResidentNV, @object
	.size	qglAreProgramsResidentNV, 4
qglAreProgramsResidentNV:
	.zero	4
	.type	qglMultiTexCoord3fvARB, @object
	.size	qglMultiTexCoord3fvARB, 4
qglMultiTexCoord3fvARB:
	.zero	4
	.type	qglMultiTexCoord3fARB, @object
	.size	qglMultiTexCoord3fARB, 4
qglMultiTexCoord3fARB:
	.zero	4
	.type	qglMultiTexCoord2fvARB, @object
	.size	qglMultiTexCoord2fvARB, 4
qglMultiTexCoord2fvARB:
	.zero	4
	.type	qglMultiTexCoord2fARB, @object
	.size	qglMultiTexCoord2fARB, 4
qglMultiTexCoord2fARB:
	.zero	4
	.type	qglMultiTexCoord1fARB, @object
	.size	qglMultiTexCoord1fARB, 4
qglMultiTexCoord1fARB:
	.zero	4
	.type	qglClientActiveTextureARB, @object
	.size	qglClientActiveTextureARB, 4
qglClientActiveTextureARB:
	.zero	4
	.type	qglActiveTextureARB, @object
	.size	qglActiveTextureARB, 4
qglActiveTextureARB:
	.zero	4
	.type	qglDepthBoundsNV, @object
	.size	qglDepthBoundsNV, 4
qglDepthBoundsNV:
	.zero	4
	.type	qglTexImage3DEXT, @object
	.size	qglTexImage3DEXT, 4
qglTexImage3DEXT:
	.zero	4
	.type	qglGetFinalCombinerInputParameterivNV, @object
	.size	qglGetFinalCombinerInputParameterivNV, 4
qglGetFinalCombinerInputParameterivNV:
	.zero	4
	.type	qglGetFinalCombinerInputParameterfvNV, @object
	.size	qglGetFinalCombinerInputParameterfvNV, 4
qglGetFinalCombinerInputParameterfvNV:
	.zero	4
	.type	qglGetCombinerOutputParameterivNV, @object
	.size	qglGetCombinerOutputParameterivNV, 4
qglGetCombinerOutputParameterivNV:
	.zero	4
	.type	qglGetCombinerOutputParameterfvNV, @object
	.size	qglGetCombinerOutputParameterfvNV, 4
qglGetCombinerOutputParameterfvNV:
	.zero	4
	.type	qglGetCombinerInputParameterivNV, @object
	.size	qglGetCombinerInputParameterivNV, 4
qglGetCombinerInputParameterivNV:
	.zero	4
	.type	qglGetCombinerInputParameterfvNV, @object
	.size	qglGetCombinerInputParameterfvNV, 4
qglGetCombinerInputParameterfvNV:
	.zero	4
	.type	qglFinalCombinerInputNV, @object
	.size	qglFinalCombinerInputNV, 4
qglFinalCombinerInputNV:
	.zero	4
	.type	qglCombinerOutputNV, @object
	.size	qglCombinerOutputNV, 4
qglCombinerOutputNV:
	.zero	4
	.type	qglCombinerInputNV, @object
	.size	qglCombinerInputNV, 4
qglCombinerInputNV:
	.zero	4
	.type	qglCombinerParameteriNV, @object
	.size	qglCombinerParameteriNV, 4
qglCombinerParameteriNV:
	.zero	4
	.type	qglCombinerParameterfNV, @object
	.size	qglCombinerParameterfNV, 4
qglCombinerParameterfNV:
	.zero	4
	.type	qglCombinerParameterivNV, @object
	.size	qglCombinerParameterivNV, 4
qglCombinerParameterivNV:
	.zero	4
	.type	qglCombinerParameterfvNV, @object
	.size	qglCombinerParameterfvNV, 4
qglCombinerParameterfvNV:
	.zero	4
	.type	numTempVertices, @object
	.size	numTempVertices, 4
numTempVertices:
	.zero	4
	.type	tempVerticesSize, @object
	.size	tempVerticesSize, 4
tempVerticesSize:
	.zero	4
	.type	tempVertices, @object
	.size	tempVertices, 4
tempVertices:
	.zero	4
	.type	globalVertexTable, @object
	.size	globalVertexTable, 4
globalVertexTable:
	.zero	4
	.type	waterchain, @object
	.size	waterchain, 4
waterchain:
	.zero	4
	.type	skychain, @object
	.size	skychain, 4
skychain:
	.zero	4
	.section	".text"
.Letext0:
	.file 2 "d:/Data/Nintendo/TenebraeGX/src/common.h"
	.file 3 "d:/Data/Nintendo/TenebraeGX/src/bspfile.h"
	.file 4 "d:/Data/Nintendo/TenebraeGX/src/vid.h"
	.file 5 "d:/Data/Nintendo/TenebraeGX/src/zone.h"
	.file 6 "d:/Data/Nintendo/TenebraeGX/src/mathlib.h"
	.file 7 "d:/Data/Nintendo/TenebraeGX/src/quakedef.h"
	.file 8 "d:/Data/Nintendo/TenebraeGX/src/cvar.h"
	.file 9 "d:/Data/Nintendo/TenebraeGX/src/sound.h"
	.file 10 "d:/Data/Nintendo/TenebraeGX/src/render.h"
	.file 11 "d:/Data/Nintendo/TenebraeGX/src/gl_model.h"
	.file 12 "d:/Data/Nintendo/TenebraeGX/src/glquake.h"
	.file 13 "d:/Data/Nintendo/TenebraeGX/src/client.h"
	.file 14 "d:/Data/Nintendo/TenebraeGX/src/modelgen.h"
	.file 15 "d:/Data/Nintendo/TenebraeGX/src/world.h"
	.file 16 "d:/Data/Nintendo/TenebraeGX/gl2gx/include/GL/gl.h"
	.file 17 "d:/Data/Nintendo/TenebraeGX/gl2gx/include/GL/glext.h"
	.file 18 "c:/utils/devkitPro/libogc/include/ogc/gx.h"