	.file	"gl_shadow.c"
	.section	".text"
.Ltext0:
	.cfi_sections	.debug_frame
	.align 2
	.globl AllocShadowLight
	.type	AllocShadowLight, @function
AllocShadowLight:
.LFB38:
	.file 1 "d:/Data/Nintendo/TenebraeGX/src/gl_shadow.c"
	.loc 1 65 0
	.cfi_startproc
	.loc 1 67 0
	lis 11,numShadowLights@ha
	.loc 1 68 0
	li 3,0
	.loc 1 67 0
	lwz 9,numShadowLights@l(11)
	cmpwi 7,9,127
	bgtlr- 7
	.loc 1 71 0
	mulli 0,9,2192
	lis 10,shadowlights@ha
	la 10,shadowlights@l(10)
	.loc 1 72 0
	addi 9,9,1
	.loc 1 71 0
	add 10,10,0
	.loc 1 72 0
	stw 9,numShadowLights@l(11)
	.loc 1 71 0
	stw 3,2128(10)
	.loc 1 73 0
	mr 3,10
	.loc 1 74 0
	blr
	.cfi_endproc
.LFE38:
	.size	AllocShadowLight, .-AllocShadowLight
	.align 2
	.globl R_ShadowFromDlight
	.type	R_ShadowFromDlight, @function
R_ShadowFromDlight:
.LFB39:
	.loc 1 81 0
	.cfi_startproc
.LVL0:
.LBB42:
.LBB43:
	.loc 1 67 0
	lis 11,numShadowLights@ha
.LBE43:
.LBE42:
	.loc 1 81 0
	stwu 1,-48(1)
.LCFI0:
	.cfi_def_cfa_offset 48
.LBB53:
.LBB44:
	.loc 1 67 0
	lwz 9,numShadowLights@l(11)
.LBE44:
.LBE53:
	.loc 1 81 0
	stw 22,8(1)
.LBB54:
.LBB45:
	.loc 1 67 0
	cmpwi 7,9,127
.LBE45:
.LBE54:
	.loc 1 81 0
	stw 23,12(1)
	stw 24,16(1)
	stw 25,20(1)
	stw 26,24(1)
	stw 27,28(1)
	stw 28,32(1)
	stw 29,36(1)
	stw 30,40(1)
	stw 31,44(1)
.LBB55:
.LBB46:
	.loc 1 67 0
	bgt- 7,.L5
	.cfi_offset 31, -4
	.cfi_offset 30, -8
	.cfi_offset 29, -12
	.cfi_offset 28, -16
	.cfi_offset 27, -20
	.cfi_offset 26, -24
	.cfi_offset 25, -28
	.cfi_offset 24, -32
	.cfi_offset 23, -36
	.cfi_offset 22, -40
	.loc 1 71 0
	mulli 4,9,2192
.LBE46:
.LBE55:
	.loc 1 97 0
	lis 10,.LC0@ha
.LBB56:
.LBB47:
	.loc 1 71 0
	lis 12,shadowlights@ha
.LBE47:
.LBE56:
	.loc 1 88 0
	lwz 22,0(3)
	.loc 1 92 0
	lwz 0,40(3)
.LBB57:
.LBB48:
	.loc 1 71 0
	la 12,shadowlights@l(12)
.LBE48:
.LBE57:
	.loc 1 88 0
	lwz 23,4(3)
.LBB58:
.LBB49:
	.loc 1 71 0
	li 8,0
.LBE49:
.LBE58:
	.loc 1 88 0
	lwz 24,8(3)
.LBB59:
.LBB50:
	.loc 1 72 0
	addi 9,9,1
.LBE50:
.LBE59:
	.loc 1 89 0
	lwz 25,12(3)
	.loc 1 90 0
	lwz 5,32(3)
	.loc 1 91 0
	lwz 6,36(3)
	.loc 1 101 0
	lwz 26,44(3)
	.loc 1 102 0
	lwz 27,68(3)
	.loc 1 107 0
	lwz 28,48(3)
	.loc 1 108 0
	lwz 29,56(3)
	.loc 1 109 0
	lwz 30,52(3)
	.loc 1 97 0
	lwz 7,.LC0@l(10)
.LBB60:
.LBB51:
	.loc 1 71 0
	add 10,12,4
.LBE51:
.LBE60:
	.loc 1 111 0
	lwz 31,60(3)
.LBB61:
.LBB52:
	.loc 1 72 0
	stw 9,numShadowLights@l(11)
.LBE52:
.LBE61:
	.loc 1 88 0
	stwx 22,12,4
	.loc 1 92 0
	stw 0,32(10)
	.loc 1 95 0
	stw 0,20(10)
	.loc 1 88 0
	stw 23,4(10)
	stw 24,8(10)
	.loc 1 89 0
	stw 25,36(10)
	.loc 1 90 0
	stw 5,24(10)
	.loc 1 91 0
	stw 6,28(10)
	.loc 1 93 0
	stw 5,12(10)
	.loc 1 94 0
	stw 6,16(10)
	.loc 1 97 0
	stw 7,40(10)
	.loc 1 98 0
	stb 8,45(10)
	.loc 1 99 0
	stw 8,2120(10)
	.loc 1 100 0
	stw 8,2100(10)
	.loc 1 101 0
	stw 26,2124(10)
	.loc 1 102 0
	stw 27,2128(10)
	.loc 1 107 0
	stw 28,2160(10)
	.loc 1 108 0
	stw 29,2156(10)
	.loc 1 109 0
	stw 30,2164(10)
	.loc 1 117 0
	lwz 0,64(3)
	.loc 1 111 0
	stw 31,2152(10)
	.loc 1 117 0
	andi. 9,0,1
	.loc 1 112 0
	li 9,0
	stw 9,2168(10)
	.loc 1 114 0
	li 9,1
	.loc 1 113 0
	stw 7,2172(10)
	.loc 1 114 0
	stb 9,46(10)
	.loc 1 117 0
	bne- 0,.L9
	.loc 1 123 0
	andi. 0,0,2
	bne- 0,.L10
.L8:
	.loc 1 126 0
	stb 0,47(10)
.L5:
	.loc 1 128 0
	lwz 22,8(1)
	lwz 23,12(1)
	lwz 24,16(1)
	lwz 25,20(1)
	lwz 26,24(1)
	lwz 27,28(1)
	lwz 28,32(1)
	lwz 29,36(1)
	lwz 30,40(1)
	lwz 31,44(1)
	addi 1,1,48
	.cfi_remember_state
.LCFI1:
	.cfi_def_cfa_offset 0
	.cfi_restore 31
	.cfi_restore 30
	.cfi_restore 29
	.cfi_restore 28
	.cfi_restore 27
	.cfi_restore 26
	.cfi_restore 25
	.cfi_restore 24
	.cfi_restore 23
	.cfi_restore 22
	blr
.L9:
.LCFI2:
	.cfi_restore_state
	.loc 1 123 0
	andi. 0,0,2
	.loc 1 118 0
	stb 8,46(10)
	.loc 1 123 0
	beq+ 0,.L8
.L10:
	.loc 1 124 0
	li 0,1
	.loc 1 128 0
	lwz 22,8(1)
	lwz 23,12(1)
	lwz 24,16(1)
	lwz 25,20(1)
	lwz 26,24(1)
	lwz 27,28(1)
	lwz 28,32(1)
	lwz 29,36(1)
	lwz 30,40(1)
	lwz 31,44(1)
	.loc 1 124 0
	stb 0,47(10)
	.loc 1 128 0
	addi 1,1,48
	.cfi_restore 22
	.cfi_restore 23
	.cfi_restore 24
	.cfi_restore 25
	.cfi_restore 26
	.cfi_restore 27
	.cfi_restore 28
	.cfi_restore 29
	.cfi_restore 30
	.cfi_restore 31
.LCFI3:
	.cfi_def_cfa_offset 0
	blr
	.cfi_endproc
.LFE39:
	.size	R_ShadowFromDlight, .-R_ShadowFromDlight
	.align 2
	.globl R_CubeMapLookup
	.type	R_CubeMapLookup, @function
R_CubeMapLookup:
.LFB40:
	.loc 1 140 0
	.cfi_startproc
.LVL1:
	.loc 1 154 0
	li 3,0
.LVL2:
	blr
	.cfi_endproc
.LFE40:
	.size	R_CubeMapLookup, .-R_CubeMapLookup
	.align 2
	.globl R_ShadowFromEntity
	.type	R_ShadowFromEntity, @function
R_ShadowFromEntity:
.LFB41:
	.loc 1 161 0
	.cfi_startproc
.LVL3:
.LBB62:
.LBB63:
	.loc 1 67 0
	lis 11,numShadowLights@ha
.LBE63:
.LBE62:
	.loc 1 161 0
	stwu 1,-32(1)
.LCFI4:
	.cfi_def_cfa_offset 32
.LBB72:
.LBB64:
	.loc 1 67 0
	lwz 9,numShadowLights@l(11)
.LBE64:
.LBE72:
	.loc 1 161 0
	stw 29,20(1)
.LBB73:
.LBB65:
	.loc 1 67 0
	cmpwi 7,9,127
.LBE65:
.LBE73:
	.loc 1 161 0
	stw 30,24(1)
	stw 31,28(1)
.LBB74:
.LBB66:
	.loc 1 67 0
	bgt- 7,.L12
	.cfi_offset 31, -4
	.cfi_offset 30, -8
	.cfi_offset 29, -12
.LBE66:
.LBE74:
	.loc 1 183 0
	lwz 4,232(3)
.LBB75:
.LBB67:
	.loc 1 71 0
	mulli 6,9,2192
	.loc 1 72 0
	addi 9,9,1
.LBE67:
.LBE75:
	.loc 1 168 0
	lwz 29,112(3)
	.loc 1 183 0
	cmpwi 7,4,0
	.loc 1 170 0
	lis 8,.LC0@ha
.LBB76:
.LBB68:
	.loc 1 71 0
	lis 5,shadowlights@ha
	.loc 1 72 0
	stw 9,numShadowLights@l(11)
.LBE68:
.LBE76:
	.loc 1 169 0
	lis 9,.LC1@ha
	.loc 1 168 0
	lwz 30,116(3)
	lwz 31,120(3)
.LBB77:
.LBB69:
	.loc 1 71 0
	la 5,shadowlights@l(5)
.LBE69:
.LBE77:
	.loc 1 181 0
	lwz 12,228(3)
.LBB78:
.LBB70:
	.loc 1 71 0
	add 10,5,6
.LBE70:
.LBE78:
	.loc 1 170 0
	lwz 0,.LC0@l(8)
.LBB79:
.LBB71:
	.loc 1 71 0
	li 7,0
.LBE71:
.LBE79:
	.loc 1 169 0
	lwz 9,.LC1@l(9)
	.loc 1 168 0
	stwx 29,5,6
	.loc 1 169 0
	stw 9,36(10)
	.loc 1 168 0
	stw 30,4(10)
	stw 31,8(10)
	.loc 1 170 0
	stw 0,24(10)
	.loc 1 171 0
	stw 0,28(10)
	.loc 1 172 0
	stw 0,32(10)
	.loc 1 174 0
	stw 0,40(10)
	.loc 1 175 0
	stb 7,45(10)
	.loc 1 176 0
	stw 7,2120(10)
	.loc 1 177 0
	stw 7,2100(10)
	.loc 1 179 0
	stw 3,2128(10)
	.loc 1 181 0
	stw 12,2124(10)
	.loc 1 183 0
	beq- 7,.L14
	.loc 1 184 0
	xoris 4,4,0x8000
	lis 0,0x4330
	stw 4,12(1)
	lis 9,.LC3@ha
	stw 0,8(1)
	lfs 0,.LC3@l(9)
	lfd 13,8(1)
	fsub 0,13,0
	frsp 0,0
	stfs 0,36(10)
.L14:
	.loc 1 191 0
	lis 9,.LC5@ha
	.loc 1 189 0
	lfs 0,212(3)
	.loc 1 191 0
	lfs 13,.LC5@l(9)
	.loc 1 189 0
	lfs 12,216(3)
	.loc 1 191 0
	fcmpu 7,0,13
	.loc 1 189 0
	lfs 11,220(3)
	stfs 0,12(10)
	stfs 12,16(10)
	stfs 11,20(10)
	.loc 1 191 0
	beq- 7,.L17
.L15:
	.loc 1 213 0
	lwz 0,236(3)
	.loc 1 209 0
	lfs 13,224(3)
	.loc 1 161 0
	andi. 9,0,1
	.loc 1 209 0
	lis 9,.LC4@ha
	lfs 0,.LC4@l(9)
	.loc 1 204 0
	lwz 5,148(3)
	.loc 1 161 0
	mfcr 9
	rlwinm 9,9,3,1
	.loc 1 209 0
	fmuls 0,13,0
	.loc 1 205 0
	lwz 6,156(3)
	.loc 1 206 0
	lwz 7,152(3)
	.loc 1 219 0
	andi. 0,0,2
	.loc 1 210 0
	lwz 11,.LC0@l(8)
	.loc 1 194 0
	li 8,0
	stw 8,2152(10)
	.loc 1 204 0
	stw 5,2160(10)
	.loc 1 205 0
	stw 6,2156(10)
	.loc 1 206 0
	stw 7,2164(10)
	.loc 1 209 0
	stfs 0,2168(10)
	.loc 1 210 0
	stw 11,2172(10)
	.loc 1 161 0
	stb 9,46(10)
	.loc 1 219 0
	bne- 0,.L18
	.loc 1 222 0
	stb 0,47(10)
.L12:
	.loc 1 225 0
	lwz 29,20(1)
	lwz 30,24(1)
	lwz 31,28(1)
	addi 1,1,32
	.cfi_remember_state
.LCFI5:
	.cfi_def_cfa_offset 0
	.cfi_restore 31
	.cfi_restore 30
	.cfi_restore 29
	blr
.L17:
.LCFI6:
	.cfi_restore_state
	.loc 1 191 0 discriminator 1
	fcmpu 7,12,13
	bne- 7,.L15
	fcmpu 7,11,13
	bne- 7,.L15
	.loc 1 192 0
	lwz 0,.LC0@l(8)
	stw 0,12(10)
	.loc 1 193 0
	stw 0,16(10)
	.loc 1 194 0
	stw 0,20(10)
	b .L15
.L18:
	.loc 1 220 0
	li 0,1
	.loc 1 225 0
	lwz 29,20(1)
	lwz 30,24(1)
	lwz 31,28(1)
	.loc 1 220 0
	stb 0,47(10)
	.loc 1 225 0
	addi 1,1,32
	.cfi_restore 29
	.cfi_restore 30
	.cfi_restore 31
.LCFI7:
	.cfi_def_cfa_offset 0
	blr
	.cfi_endproc
.LFE41:
	.size	R_ShadowFromEntity, .-R_ShadowFromEntity
	.align 2
	.globl R_MarkDlights
	.type	R_MarkDlights, @function
R_MarkDlights:
.LFB42:
	.loc 1 235 0
	.cfi_startproc
.LVL4:
	stwu 1,-32(1)
.LCFI8:
	.cfi_def_cfa_offset 32
	mflr 0
	.loc 1 242 0
	lis 9,.LC5@ha
	.loc 1 235 0
	stw 31,20(1)
	.loc 1 234 0
	lis 31,cl_dlights@ha
	.cfi_offset 31, -12
	.cfi_register 65, 0
	.loc 1 235 0
	stw 30,16(1)
	.loc 1 234 0
	la 31,cl_dlights@l(31)
	lis 30,cl@ha
	.cfi_offset 30, -16
	.loc 1 235 0
	stfd 31,24(1)
	stw 29,12(1)
	la 30,cl@l(30)
	stw 0,36(1)
	.loc 1 234 0
	addi 29,31,2304
	.cfi_offset 65, 4
	.cfi_offset 29, -20
	.cfi_offset 63, -8
	.loc 1 242 0
	lfs 31,.LC5@l(9)
	b .L21
.LVL5:
.L20:
	.loc 1 240 0
	addi 31,31,72
.LVL6:
	cmpw 7,31,29
	beq- 7,.L23
.LVL7:
.L21:
	.loc 1 242 0
	lfs 13,16(31)
	lfd 0,568(30)
	fcmpu 7,13,0
	blt- 7,.L20
	.loc 1 242 0 is_stmt 0 discriminator 1
	lfs 0,12(31)
	fcmpu 7,0,31
	beq+ 7,.L20
	.loc 1 244 0 is_stmt 1
	mr 3,31
	.loc 1 240 0
	addi 31,31,72
	.loc 1 244 0
	bl R_ShadowFromDlight
.LVL8:
	.loc 1 240 0
	cmpw 7,31,29
	bne+ 7,.L21
.L23:
	.loc 1 246 0
	lwz 0,36(1)
	lwz 29,12(1)
	mtlr 0
	lwz 30,16(1)
	lwz 31,20(1)
.LVL9:
	lfd 31,24(1)
	addi 1,1,32
.LCFI9:
	.cfi_def_cfa_offset 0
	.cfi_restore 63
	.cfi_restore 31
	.cfi_restore 30
	.cfi_restore 29
	blr
	.cfi_endproc
.LFE42:
	.size	R_MarkDlights, .-R_MarkDlights
	.align 2
	.globl R_MarkEntities
	.type	R_MarkEntities, @function
R_MarkEntities:
.LFB43:
	.loc 1 260 0
	.cfi_startproc
.LVL10:
	stwu 1,-40(1)
.LCFI10:
	.cfi_def_cfa_offset 40
	mflr 0
	stw 28,24(1)
	.loc 1 264 0
	lis 28,cl@ha
	.cfi_offset 28, -16
	.cfi_register 65, 0
	la 28,cl@l(28)
	.loc 1 260 0
	stw 0,44(1)
	.loc 1 264 0
	lwz 0,2700(28)
	.cfi_offset 65, 4
	.loc 1 260 0
	stw 25,12(1)
	.loc 1 264 0
	cmpwi 7,0,0
	.loc 1 260 0
	stw 26,16(1)
	stw 27,20(1)
	stw 29,28(1)
	stw 30,32(1)
	stw 31,36(1)
	.loc 1 264 0
	ble- 7,.L24
	.cfi_offset 31, -4
	.cfi_offset 30, -8
	.cfi_offset 29, -12
	.cfi_offset 27, -20
	.cfi_offset 26, -24
	.cfi_offset 25, -28
	lis 25,cl_static_entities@ha
	lis 26,.LC6@ha
	.loc 1 269 0
	lis 27,.LC7@ha
	.loc 1 264 0
	li 31,0
	la 25,cl_static_entities@l(25)
	la 26,.LC6@l(26)
	.loc 1 269 0
	la 27,.LC7@l(27)
.LVL11:
.L28:
	.loc 1 266 0
	mulli 29,31,584
	.loc 1 268 0
	mr 4,26
	.loc 1 264 0
	addi 31,31,1
	.loc 1 266 0
	add 29,25,29
.LVL12:
	.loc 1 268 0
	lwz 30,160(29)
	mr 3,30
	bl strcmp
	.loc 1 269 0
	mr 4,27
	.loc 1 268 0
	cmpwi 7,3,0
	.loc 1 269 0
	mr 3,30
	.loc 1 268 0
	beq- 7,.L26
	.loc 1 269 0
	bl strcmp
	cmpwi 7,3,0
	bne- 7,.L27
.L26:
	.loc 1 271 0
	mr 3,29
	bl R_ShadowFromEntity
.L27:
.LVL13:
	.loc 1 264 0
	lwz 0,2700(28)
	cmpw 7,0,31
	bgt+ 7,.L28
.LVL14:
.L24:
	.loc 1 274 0
	lwz 0,44(1)
	lwz 25,12(1)
	mtlr 0
	lwz 26,16(1)
	lwz 27,20(1)
	lwz 28,24(1)
	lwz 29,28(1)
	lwz 30,32(1)
	lwz 31,36(1)
	addi 1,1,40
.LCFI11:
	.cfi_def_cfa_offset 0
	.cfi_restore 31
	.cfi_restore 30
	.cfi_restore 29
	.cfi_restore 28
	.cfi_restore 27
	.cfi_restore 26
	.cfi_restore 25
	blr
	.cfi_endproc
.LFE43:
	.size	R_MarkEntities, .-R_MarkEntities
	.align 2
	.globl R_MarkShadowSurf
	.type	R_MarkShadowSurf, @function
R_MarkShadowSurf:
.LFB45:
	.loc 1 322 0
	.cfi_startproc
.LVL15:
	stwu 1,-24(1)
.LCFI12:
	.cfi_def_cfa_offset 24
	.loc 1 322 0
	mr 9,3
	.loc 1 328 0
	lwz 0,8(3)
	.loc 1 329 0
	li 3,0
.LVL16:
	.loc 1 328 0
	andi. 0,0,20
	bne- 0,.L31
.LVL17:
.LBB82:
.LBB83:
	.loc 1 334 0
	lwz 10,36(9)
	.loc 1 336 0
	lis 11,r_lightTimestamp@ha
	lwz 8,r_lightTimestamp@l(11)
	.loc 1 337 0
	mr 3,0
	.loc 1 336 0
	lwz 7,16(10)
	.loc 1 332 0
	lwz 11,4(9)
.LVL18:
	.loc 1 336 0
	cmpw 7,7,8
	beq- 7,.L31
	.loc 1 340 0
	lbz 0,16(11)
	cmpwi 7,0,1
	beq- 7,.L35
	cmplwi 7,0,1
	blt- 7,.L34
	cmpwi 7,0,2
	beq- 7,.L46
	.loc 1 352 0
	lfs 0,4(11)
	lfs 13,4(4)
	lfs 12,0(4)
	fmuls 13,13,0
	lfs 0,0(11)
	lfs 11,8(4)
	fmadds 12,12,0,13
	lfs 0,8(11)
	lfs 13,12(11)
	fmadds 0,11,0,12
	fsubs 0,0,13
.LVL19:
.L37:
	.loc 1 357 0
	lwz 0,8(9)
	lis 9,.LC5@ha
.LVL20:
	lfs 13,.LC5@l(9)
	.loc 1 360 0
	li 3,0
	.loc 1 357 0
	andi. 9,0,2
	fcmpu 7,0,13
	bne- 0,.L47
.L38:
	.loc 1 358 0
	blt- 7,.L31
.L39:
	.loc 1 364 0
	fctiwz 0,0
.LVL21:
	addi 9,1,16
	lis 0,0x4330
	.loc 1 366 0
	li 3,0
	.loc 1 364 0
	stfiwx 0,0,9
	stw 0,8(1)
	lwz 0,16(1)
	lfs 0,36(4)
	srawi 9,0,31
	xor 0,9,0
	subf 0,9,0
	lis 9,.LC3@ha
	xoris 0,0,0x8000
	lfs 13,.LC3@l(9)
	stw 0,12(1)
	lfd 12,8(1)
	fsub 13,12,13
	frsp 13,13
	fcmpu 7,13,0
	bgt- 7,.L31
	.loc 1 369 0
	stw 8,16(10)
	.loc 1 371 0
	li 3,1
.LVL22:
.L31:
.LBE83:
.LBE82:
	.loc 1 372 0
	addi 1,1,24
	.cfi_remember_state
.LCFI13:
	.cfi_def_cfa_offset 0
	blr
.LVL23:
.L34:
.LCFI14:
	.cfi_restore_state
.LBB85:
.LBB84:
	.loc 1 343 0
	lfs 13,0(4)
	.loc 1 360 0
	li 3,0
	.loc 1 357 0
	lwz 0,8(9)
	lis 9,.LC5@ha
.LVL24:
	.loc 1 343 0
	lfs 0,12(11)
	fsubs 0,13,0
.LVL25:
	.loc 1 357 0
	lfs 13,.LC5@l(9)
	andi. 9,0,2
	fcmpu 7,0,13
	beq- 0,.L38
.L47:
	bng+ 7,.L39
	b .L31
.LVL26:
.L35:
	.loc 1 346 0
	lfs 13,4(4)
	lfs 0,12(11)
	fsubs 0,13,0
.LVL27:
	b .L37
.LVL28:
.L46:
	.loc 1 349 0
	lfs 13,8(4)
	lfs 0,12(11)
	fsubs 0,13,0
.LVL29:
	b .L37
.LBE84:
.LBE85:
	.cfi_endproc
.LFE45:
	.size	R_MarkShadowSurf, .-R_MarkShadowSurf
	.align 2
	.globl InShadowEntity
	.type	InShadowEntity, @function
InShadowEntity:
.LFB46:
	.loc 1 388 0
	.cfi_startproc
.LVL30:
	stwu 1,-40(1)
.LCFI15:
	.cfi_def_cfa_offset 40
	mflr 0
	stw 30,24(1)
	.loc 1 397 0
	lis 30,currentshadowlight@ha
	.cfi_offset 30, -16
	.cfi_register 65, 0
	.loc 1 388 0
	stw 0,44(1)
	.loc 1 397 0
	lwz 9,currentshadowlight@l(30)
	lfs 12,112(3)
	lfs 9,0(9)
	lfs 10,4(9)
	lfs 11,8(9)
	fsubs 12,9,12
	lfs 13,116(3)
	lfs 0,120(3)
	fsubs 13,10,13
	.loc 1 396 0
	lwz 9,160(3)
	.loc 1 397 0
	fsubs 0,11,0
	.loc 1 388 0
	stw 31,28(1)
	mr 31,3
	.cfi_offset 31, -12
	.cfi_offset 65, 4
.LVL31:
	.loc 1 398 0
	addi 3,1,8
.LVL32:
	.loc 1 388 0
	stfd 31,32(1)
	.loc 1 397 0
	stfs 0,16(1)
	.loc 1 396 0
	lfs 31,108(9)
	.cfi_offset 63, -8
.LVL33:
	.loc 1 397 0
	stfs 12,8(1)
	stfs 13,12(1)
	.loc 1 398 0
	bl Length
.LVL34:
	.loc 1 400 0
	lwz 11,currentshadowlight@l(30)
	.loc 1 418 0
	li 3,0
	.loc 1 400 0
	lfs 0,36(11)
	fadds 0,31,0
	fcmpu 7,0,1
	bng- 7,.L49
	.loc 1 402 0
	lis 9,sh_noefrags+12@ha
	li 3,1
	lfs 13,sh_noefrags+12@l(9)
	lis 9,.LC5@ha
	lfs 0,.LC5@l(9)
	fcmpu 7,13,0
	bne- 7,.L49
.LVL35:
	.loc 1 404 0 discriminator 1
	lwz 0,268(31)
	cmpwi 7,0,0
	ble- 7,.L51
	.loc 1 405 0
	lha 9,272(31)
.LVL36:
	.loc 1 388 0
	mtctr 0
	addi 31,31,272
.LVL37:
	.loc 1 407 0
	srawi 10,9,3
	rlwinm 9,9,0,29,31
.LVL38:
	add 10,11,10
	lbz 10,1076(10)
	sraw 9,10,9
	andi. 10,9,1
	bne- 0,.L49
.LVL39:
.L52:
	.loc 1 404 0
	bdz .L51
	.loc 1 405 0
	lhau 0,2(31)
.LVL40:
	.loc 1 407 0
	srawi 9,0,3
	rlwinm 0,0,0,29,31
.LVL41:
	add 9,11,9
	lbz 9,1076(9)
	sraw 0,9,0
	andi. 9,0,1
	beq+ 0,.L52
	.loc 1 409 0
	li 3,1
.L49:
	.loc 1 419 0
	lwz 0,44(1)
	lwz 30,24(1)
	mtlr 0
	lwz 31,28(1)
	lfd 31,32(1)
.LVL42:
	addi 1,1,40
	.cfi_remember_state
.LCFI16:
	.cfi_def_cfa_offset 0
	.cfi_restore 63
	.cfi_restore 31
	.cfi_restore 30
	blr
.LVL43:
.L51:
.LCFI17:
	.cfi_restore_state
	lwz 0,44(1)
	.loc 1 388 0
	mfcr 3
	rlwinm 3,3,31,1
	.loc 1 419 0
	lwz 30,24(1)
	mtlr 0
	lwz 31,28(1)
	lfd 31,32(1)
.LVL44:
	addi 1,1,40
	.cfi_restore 30
	.cfi_restore 31
	.cfi_restore 63
.LCFI18:
	.cfi_def_cfa_offset 0
	blr
	.cfi_endproc
.LFE46:
	.size	InShadowEntity, .-InShadowEntity
	.align 2
	.globl MarkShadowEntities
	.type	MarkShadowEntities, @function
MarkShadowEntities:
.LFB47:
	.loc 1 429 0
	.cfi_startproc
	.loc 1 434 0
	lis 9,r_drawentities+12@ha
	.loc 1 429 0
	mflr 0
	.loc 1 434 0
	lfs 13,r_drawentities+12@l(9)
	lis 9,.LC5@ha
	lfs 0,.LC5@l(9)
	.loc 1 429 0
	stwu 1,-96(1)
.LCFI19:
	.cfi_def_cfa_offset 96
	.cfi_register 65, 0
	.loc 1 434 0
	fcmpu 7,13,0
	.loc 1 429 0
	stw 0,100(1)
	stw 19,44(1)
	stw 20,48(1)
	stw 21,52(1)
	stw 22,56(1)
	stw 23,60(1)
	stw 24,64(1)
	stw 25,68(1)
	stw 26,72(1)
	stw 27,76(1)
	stw 28,80(1)
	stw 29,84(1)
	stw 30,88(1)
	stw 31,92(1)
	.loc 1 434 0
	beq- 7,.L60
	.cfi_offset 31, -4
	.cfi_offset 30, -8
	.cfi_offset 29, -12
	.cfi_offset 28, -16
	.cfi_offset 27, -20
	.cfi_offset 26, -24
	.cfi_offset 25, -28
	.cfi_offset 24, -32
	.cfi_offset 23, -36
	.cfi_offset 22, -40
	.cfi_offset 21, -44
	.cfi_offset 20, -48
	.cfi_offset 19, -52
	.cfi_offset 65, 4
	.loc 1 438 0
	lis 28,cl_numvisedicts@ha
	.loc 1 437 0
	lis 25,cl_numlightvisedicts@ha
	.loc 1 438 0
	lwz 0,cl_numvisedicts@l(28)
	cmpwi 7,0,0
	.loc 1 437 0
	li 0,0
	stw 0,cl_numlightvisedicts@l(25)
.LVL45:
	.loc 1 438 0
	ble- 7,.L60
	lis 30,cl_visedicts-4@ha
	lis 29,currententity@ha
	.loc 1 465 0
	lis 23,cl_lightvisedicts@ha
	.loc 1 453 0
	lis 21,mirror_far_plane@ha
	.loc 1 438 0
	la 30,cl_visedicts-4@l(30)
	li 31,0
	la 29,currententity@l(29)
	.loc 1 446 0
	lis 27,mirror@ha
	.loc 1 461 0
	lis 26,currentshadowlight@ha
	.loc 1 467 0
	lis 24,cut_ent@ha
	.loc 1 464 0
	lis 22,r_lightTimestamp@ha
	.loc 1 465 0
	la 23,cl_lightvisedicts@l(23)
	.loc 1 449 0
	lis 19,mirror_plane@ha
	lis 20,mirror_clipside@ha
	.loc 1 453 0
	la 21,mirror_far_plane@l(21)
	b .L65
.LVL46:
.L68:
	.loc 1 465 0
	lwz 11,cl_numlightvisedicts@l(25)
	.loc 1 464 0
	lwz 9,0(29)
	lwz 10,r_lightTimestamp@l(22)
	.loc 1 465 0
	slwi 0,11,2
	.loc 1 466 0
	addi 11,11,1
	.loc 1 464 0
	stw 10,192(9)
	.loc 1 466 0
	stw 11,cl_numlightvisedicts@l(25)
	.loc 1 465 0
	stwx 9,23,0
.L62:
	.loc 1 438 0
	lwz 0,cl_numvisedicts@l(28)
	addi 31,31,1
.LVL47:
	cmpw 7,0,31
	ble- 7,.L60
.LVL48:
.L65:
	.loc 1 440 0
	lwzu 9,4(30)
	.loc 1 442 0
	lwz 11,160(9)
	.loc 1 440 0
	stw 9,0(29)
	.loc 1 442 0
	lwz 0,80(11)
	rlwinm 0,0,0,21,22
	cmpwi 7,0,1536
	beq- 7,.L62
	.loc 1 446 0
	lbz 0,mirror@l(27)
	cmpwi 7,0,0
	bne- 7,.L67
.L63:
	.loc 1 461 0
	lwz 11,currentshadowlight@l(26)
	.loc 1 463 0
	mr 3,9
	.loc 1 461 0
	lwz 0,2128(11)
	cmpw 7,9,0
	beq- 7,.L62
	.loc 1 463 0
	bl InShadowEntity
	cmpwi 7,3,0
	bne- 7,.L68
	.loc 1 467 0
	lwz 9,cut_ent@l(24)
	.loc 1 438 0
	addi 31,31,1
.LVL49:
	.loc 1 467 0
	addi 0,9,1
	stw 0,cut_ent@l(24)
	.loc 1 438 0
	lwz 0,cl_numvisedicts@l(28)
	cmpw 7,0,31
	bgt+ 7,.L65
.LVL50:
.L60:
	.loc 1 470 0
	lwz 0,100(1)
	lwz 19,44(1)
	mtlr 0
	lwz 20,48(1)
	lwz 21,52(1)
	lwz 22,56(1)
	lwz 23,60(1)
	lwz 24,64(1)
	lwz 25,68(1)
	lwz 26,72(1)
	lwz 27,76(1)
	lwz 28,80(1)
	lwz 29,84(1)
	lwz 30,88(1)
	lwz 31,92(1)
	addi 1,1,96
	.cfi_remember_state
.LCFI20:
	.cfi_def_cfa_offset 0
	.cfi_restore 31
	.cfi_restore 30
	.cfi_restore 29
	.cfi_restore 28
	.cfi_restore 27
	.cfi_restore 26
	.cfi_restore 25
	.cfi_restore 24
	.cfi_restore 23
	.cfi_restore 22
	.cfi_restore 21
	.cfi_restore 20
	.cfi_restore 19
	blr
.L67:
.LCFI21:
	.cfi_restore_state
	.loc 1 447 0
	lfs 12,112(9)
	.loc 1 449 0
	addi 4,1,8
	.loc 1 447 0
	lfs 13,116(9)
	.loc 1 449 0
	addi 3,1,20
	.loc 1 447 0
	lfs 0,120(9)
	lfs 9,84(11)
	lfs 10,88(11)
	lfs 11,92(11)
	fadds 9,12,9
	.loc 1 448 0
	lfs 6,96(11)
	.loc 1 447 0
	fadds 10,13,10
	.loc 1 448 0
	lfs 7,100(11)
	.loc 1 447 0
	fadds 11,0,11
	.loc 1 448 0
	lfs 8,104(11)
	fadds 12,12,6
	fadds 13,13,7
	.loc 1 449 0
	lwz 5,mirror_plane@l(19)
	.loc 1 448 0
	fadds 0,0,8
	.loc 1 447 0
	stfs 9,20(1)
	stfs 10,24(1)
	stfs 11,28(1)
	.loc 1 448 0
	stfs 12,8(1)
	stfs 13,12(1)
	stfs 0,16(1)
	.loc 1 449 0
	bl BoxOnPlaneSide
	lwz 0,mirror_clipside@l(20)
	.loc 1 453 0
	addi 4,1,8
	mr 5,21
	.loc 1 449 0
	cmpw 7,3,0
	.loc 1 453 0
	addi 3,1,20
	.loc 1 449 0
	beq- 7,.L62
	.loc 1 453 0
	bl BoxOnPlaneSide
	cmpwi 7,3,1
	beq- 7,.L60
	lwz 9,0(29)
	b .L63
	.cfi_endproc
.LFE47:
	.size	MarkShadowEntities, .-MarkShadowEntities
	.align 2
	.globl R_ProjectSphere
	.type	R_ProjectSphere, @function
R_ProjectSphere:
.LFB48:
	.loc 1 483 0
	.cfi_startproc
.LVL51:
	stwu 1,-224(1)
.LCFI22:
	.cfi_def_cfa_offset 224
	.loc 1 496 0
	lis 9,.LC11@ha
	.loc 1 483 0
	mflr 0
	stfd 28,192(1)
	.loc 1 496 0
	lfs 28,.LC11@l(9)
	.cfi_offset 60, -32
	.cfi_register 65, 0
	.loc 1 494 0
	lis 9,.LC13@ha
	.loc 1 483 0
	stfd 27,184(1)
	.loc 1 494 0
	lfs 27,.LC13@l(9)
	.cfi_offset 59, -40
	.loc 1 491 0
	lis 9,.LC8@ha
	.loc 1 483 0
	stw 0,228(1)
	stfd 29,200(1)
	.loc 1 496 0
	fmr 29,28
	.cfi_offset 61, -24
	.cfi_offset 65, 4
	.loc 1 483 0
	stfd 30,208(1)
	.loc 1 494 0
	fmr 30,27
	.cfi_offset 62, -16
	.loc 1 491 0
	lfd 1,.LC8@l(9)
	lis 9,.LC9@ha
	.loc 1 483 0
	stfd 26,176(1)
	stfd 31,216(1)
	stw 16,104(1)
	lis 16,r_Iviewport@ha
	.cfi_offset 16, -120
	.cfi_offset 63, -8
	.cfi_offset 58, -48
	stw 18,112(1)
	lis 18,.LC3@ha
	.cfi_offset 18, -112
	stw 21,124(1)
	lis 21,r_Dworld_matrix@ha
	.cfi_offset 21, -100
	stw 22,128(1)
	lis 22,r_Dproject_matrix@ha
	.cfi_offset 22, -96
	stw 23,132(1)
	lis 23,glheight@ha
	.cfi_offset 23, -92
	stw 28,152(1)
	lis 28,vup@ha
	.cfi_offset 28, -72
	stw 29,156(1)
	lis 29,vright@ha
	.cfi_offset 29, -68
	stfd 25,168(1)
	la 28,vup@l(28)
	.loc 1 537 0
	lfs 31,36(3)
	la 29,vright@l(29)
	.loc 1 491 0
	lfd 26,.LC9@l(9)
	la 21,r_Dworld_matrix@l(21)
	.loc 1 483 0
	stw 17,108(1)
	la 22,r_Dproject_matrix@l(22)
	stw 19,116(1)
	mr 17,4
	.cfi_offset 19, -108
	.cfi_offset 17, -116
	.cfi_offset 57, -56
	stw 20,120(1)
	la 23,glheight@l(23)
	stw 24,136(1)
	.loc 1 506 0
	lis 19,.LC15@ha
	.loc 1 483 0
	stw 25,140(1)
	la 24,r_Iviewport@l(16)
	.cfi_offset 25, -84
	.cfi_offset 24, -88
	.cfi_offset 20, -104
	stw 26,144(1)
	la 25,.LC3@l(18)
	stw 27,148(1)
	.loc 1 518 0
	lis 26,0x4330
	.cfi_offset 27, -76
	.cfi_offset 26, -80
	.loc 1 483 0
	stw 30,160(1)
	addi 27,1,32
	stw 31,164(1)
	.loc 1 483 0
	mr 30,3
	.cfi_offset 31, -60
	.cfi_offset 30, -64
.LVL52:
	.loc 1 506 0
	li 31,16
	lis 20,.LC16@ha
.LVL53:
.L76:
	li 9,0
.LVL54:
.L70:
	.loc 1 510 0 discriminator 2
	lfsx 0,29,9
	.loc 1 509 0 discriminator 2
	cmpwi 7,9,8
	.loc 1 510 0 discriminator 2
	lfsx 13,28,9
	fmul 0,0,26
	lfsx 12,30,9
	fmul 13,13,1
	fmadd 0,0,31,12
	fmadd 0,13,31,0
	frsp 0,0
	stfsx 0,27,9
	.loc 1 509 0 discriminator 2
	addi 9,9,4
	bne+ 7,.L70
	.loc 1 512 0
	lfs 1,32(1)
	mr 3,21
	lfs 2,36(1)
	mr 4,22
	lfs 3,40(1)
	mr 5,24
	addi 6,1,24
	addi 7,1,16
	addi 8,1,8
	bl gluProject
	.loc 1 518 0
	lwz 0,0(23)
	stw 26,56(1)
	xoris 0,0,0x8000
	lfs 0,0(25)
	stw 0,60(1)
	.loc 1 520 0
	lfd 13,24(1)
	.loc 1 518 0
	lfd 12,56(1)
	.loc 1 520 0
	fcmpu 7,13,28
	.loc 1 518 0
	fsub 0,12,0
	lfd 12,16(1)
	fsub 0,0,12
	stfd 0,16(1)
	.loc 1 520 0
	bng- 7,.L71
	fmr 28,13
.L71:
.LVL55:
	.loc 1 521 0
	fcmpu 7,27,13
	bng- 7,.L72
	fmr 27,13
.L72:
.LVL56:
	.loc 1 522 0
	fcmpu 7,29,0
	bnl- 7,.L73
	fmr 29,0
.L73:
.LVL57:
	.loc 1 523 0
	fcmpu 7,30,0
	bng- 7,.L74
	fmr 30,0
.L74:
.LVL58:
	.loc 1 506 0
	cmpwi 7,31,0
	addi 31,31,-1
.LVL59:
	beq- 7,.L75
.LVL60:
	xoris 0,31,0x8000
	stw 26,64(1)
	stw 0,68(1)
	lfs 0,0(25)
	lfd 25,64(1)
	lfs 13,.LC15@l(19)
	fsub 25,25,0
	lfd 0,.LC16@l(20)
	fmul 25,25,13
	fmul 25,25,0
	fadd 25,25,25
	frsp 25,25
	.loc 1 482 0
	fmr 1,25
	bl cos
	fmr 26,1
	fmr 1,25
	bl sin
	b .L76
.L75:
	.loc 1 527 0
	lwz 0,r_Iviewport@l(16)
	lfs 0,.LC3@l(18)
	xoris 0,0,0x8000
	stw 0,76(1)
	lis 0,0x4330
	stw 0,72(1)
	lfd 13,72(1)
	fsub 0,13,0
	fcmpu 7,0,27
	bng- 7,.L77
	fmr 27,0
.LVL61:
.L77:
	.loc 1 528 0
	fcmpu 7,0,28
	bng- 7,.L78
	fmr 28,0
.LVL62:
.L78:
	.loc 1 530 0
	lwz 0,8(24)
	lfs 0,.LC3@l(18)
	xoris 0,0,0x8000
	stw 0,84(1)
	lis 0,0x4330
	stw 0,80(1)
	lfd 13,80(1)
	fsub 0,13,0
	fcmpu 7,0,28
	bnl- 7,.L79
	fmr 28,0
.LVL63:
.L79:
	.loc 1 531 0
	fcmpu 7,27,0
	bng- 7,.L80
	fmr 27,0
.LVL64:
.L80:
	.loc 1 533 0
	lwz 0,4(24)
	lfs 0,.LC3@l(18)
	xoris 0,0,0x8000
	stw 0,92(1)
	lis 0,0x4330
	stw 0,88(1)
	lfd 13,88(1)
	fsub 0,13,0
	fcmpu 7,0,30
	bng- 7,.L81
	fmr 30,0
.LVL65:
.L81:
	.loc 1 534 0
	fcmpu 7,0,29
	bng- 7,.L82
	fmr 29,0
.LVL66:
.L82:
	.loc 1 536 0
	lwz 0,12(24)
	lfs 0,.LC3@l(18)
	xoris 0,0,0x8000
	stw 0,100(1)
	lis 0,0x4330
	stw 0,96(1)
	lfd 13,96(1)
	fsub 0,13,0
	fcmpu 7,0,29
	bnl- 7,.L83
	fmr 29,0
.LVL67:
.L83:
	.loc 1 537 0
	fcmpu 7,30,0
	bng- 7,.L84
	fmr 30,0
.LVL68:
.L84:
	.loc 1 544 0
	lwz 0,228(1)
	.loc 1 540 0
	fctiwz 27,27
.LVL69:
	.loc 1 541 0
	fctiwz 30,30
.LVL70:
	addi 10,17,4
	.loc 1 544 0
	mtlr 0
	.loc 1 542 0
	fctiwz 28,28
.LVL71:
	.loc 1 543 0
	fctiwz 29,29
.LVL72:
	.loc 1 542 0
	addi 11,17,8
	.loc 1 543 0
	addi 9,17,12
	.loc 1 540 0
	stfiwx 27,0,17
	.loc 1 544 0
	lwz 16,104(1)
	.loc 1 541 0
	stfiwx 30,0,10
	.loc 1 544 0
	lwz 17,108(1)
.LVL73:
	.loc 1 542 0
	stfiwx 28,0,11
	.loc 1 544 0
	lwz 18,112(1)
	.loc 1 543 0
	stfiwx 29,0,9
	.loc 1 544 0
	lwz 19,116(1)
	lwz 20,120(1)
	lwz 21,124(1)
	lwz 22,128(1)
	lwz 23,132(1)
	lwz 24,136(1)
	lwz 25,140(1)
	lwz 26,144(1)
	lwz 27,148(1)
	lwz 28,152(1)
	lwz 29,156(1)
	lwz 30,160(1)
.LVL74:
	lwz 31,164(1)
.LVL75:
	lfd 25,168(1)
	lfd 26,176(1)
	lfd 27,184(1)
	lfd 28,192(1)
	lfd 29,200(1)
	lfd 30,208(1)
	lfd 31,216(1)
	addi 1,1,224
.LCFI23:
	.cfi_def_cfa_offset 0
	.cfi_restore 63
	.cfi_restore 62
	.cfi_restore 61
	.cfi_restore 60
	.cfi_restore 59
	.cfi_restore 58
	.cfi_restore 57
	.cfi_restore 31
	.cfi_restore 30
	.cfi_restore 29
	.cfi_restore 28
	.cfi_restore 27
	.cfi_restore 26
	.cfi_restore 25
	.cfi_restore 24
	.cfi_restore 23
	.cfi_restore 22
	.cfi_restore 21
	.cfi_restore 20
	.cfi_restore 19
	.cfi_restore 18
	.cfi_restore 17
	.cfi_restore 16
	blr
	.cfi_endproc
.LFE48:
	.size	R_ProjectSphere, .-R_ProjectSphere
	.align 2
	.globl HasSharedLeafs
	.type	HasSharedLeafs, @function
HasSharedLeafs:
.LFB49:
	.loc 1 562 0
	.cfi_startproc
.LVL76:
	.loc 1 566 0
	lis 9,cl+2688@ha
	.loc 1 562 0
	mr 11,3
	.loc 1 566 0
	lwz 9,cl+2688@l(9)
	.loc 1 574 0
	li 3,0
.LVL77:
	.loc 1 566 0
	lwz 0,164(9)
	cmpwi 7,0,0
	blelr- 7
	mtctr 0
	li 9,0
.LVL78:
.L101:
	.loc 1 568 0
	srawi 10,9,3
	rlwinm 0,9,0,29,31
	lbzx 8,11,10
	.loc 1 566 0
	addi 9,9,1
	.loc 1 568 0
	sraw 8,8,0
	andi. 7,8,1
	beq- 0,.L100
	.loc 1 570 0
	lbzx 10,4,10
	sraw 0,10,0
	andi. 10,0,1
	bne- 0,.L103
.L100:
.LVL79:
	.loc 1 566 0
	bdnz .L101
	.loc 1 574 0
	li 3,0
	blr
.LVL80:
.L103:
	.loc 1 571 0
	li 3,1
	.loc 1 575 0
	blr
	.cfi_endproc
.LFE49:
	.size	HasSharedLeafs, .-HasSharedLeafs
	.align 2
	.globl R_MarkShadowCasting
	.type	R_MarkShadowCasting, @function
R_MarkShadowCasting:
.LFB50:
	.loc 1 597 0
	.cfi_startproc
.LVL81:
	mflr 0
	stwu 1,-32(1)
.LCFI24:
	.cfi_def_cfa_offset 32
	.cfi_register 65, 0
	stw 27,12(1)
	stw 0,36(1)
	stw 28,16(1)
	stw 29,20(1)
	stw 30,24(1)
	mr 30,3
	.cfi_offset 30, -8
	.cfi_offset 29, -12
	.cfi_offset 28, -16
	.cfi_offset 65, 4
	.cfi_offset 27, -20
	stw 31,28(1)
	mr 31,4
	.cfi_offset 31, -4
.LVL82:
.L120:
	.loc 1 604 0
	lwz 0,0(31)
	cmpwi 7,0,0
	blt- 7,.L123
.L107:
	.loc 1 629 0
	lwz 9,36(31)
.LVL83:
	.loc 1 630 0
	lfs 12,4(30)
	lfs 0,4(9)
	lfs 13,0(30)
	fmuls 12,12,0
	lfs 0,0(9)
	lfs 11,8(30)
	fmadds 0,13,0,12
	lfs 13,8(9)
	lfs 12,12(9)
	fmadds 13,11,13,0
	.loc 1 632 0
	lfs 0,36(30)
	.loc 1 630 0
	fsubs 13,13,12
.LVL84:
	.loc 1 637 0
	fneg 12,0
	.loc 1 632 0
	fcmpu 7,0,13
	bnl- 7,.L119
	.loc 1 634 0
	lwz 31,40(31)
.LVL85:
	.loc 1 604 0
	lwz 0,0(31)
	cmpwi 7,0,0
	bge+ 7,.L107
.LVL86:
.L123:
	.loc 1 607 0
	lwz 9,56(31)
	addi 0,9,-1
.LVL87:
	.loc 1 610 0
	lis 9,lightvis@ha
	lwz 11,lightvis@l(9)
	srawi 9,0,3
	rlwinm 0,0,0,29,31
.LVL88:
	lbzx 9,11,9
	sraw 0,9,0
	andi. 9,0,1
	beq- 0,.L105
.LVL89:
	.loc 1 617 0
	lwz 0,48(31)
	.loc 1 615 0
	lwz 28,44(31)
.LVL90:
	.loc 1 617 0
	cmpwi 7,0,0
	ble- 7,.L105
	.loc 1 596 0
	addi 28,28,-4
	.loc 1 617 0
	li 29,0
	.loc 1 620 0
	lis 27,shadowchain@ha
.LVL91:
.L110:
	.loc 1 619 0
	lwzu 3,4(28)
	mr 4,30
	.loc 1 617 0
	addi 29,29,1
	.loc 1 619 0
	bl R_MarkShadowSurf
	cmpwi 7,3,0
	beq- 7,.L109
	.loc 1 620 0
	lwz 0,shadowchain@l(27)
	lwz 9,0(28)
	stw 0,44(9)
	.loc 1 621 0
	lwz 0,0(28)
	stw 0,shadowchain@l(27)
.L109:
.LVL92:
	.loc 1 617 0
	lwz 0,48(31)
	cmpw 7,0,29
	bgt+ 7,.L110
.LVL93:
.L105:
	.loc 1 645 0
	lwz 0,36(1)
	lwz 27,12(1)
	mtlr 0
	lwz 28,16(1)
	lwz 29,20(1)
	lwz 30,24(1)
.LVL94:
	lwz 31,28(1)
.LVL95:
	addi 1,1,32
	.cfi_remember_state
.LCFI25:
	.cfi_def_cfa_offset 0
	.cfi_restore 31
	.cfi_restore 30
	.cfi_restore 29
	.cfi_restore 28
	.cfi_restore 27
	blr
.LVL96:
.L119:
.LCFI26:
	.cfi_restore_state
	.loc 1 637 0
	fcmpu 7,12,13
	bng- 7,.L121
	.loc 1 644 0
	lwz 31,44(31)
	b .L120
.L121:
	.loc 1 643 0
	lwz 4,40(31)
	mr 3,30
	bl R_MarkShadowCasting
.LVL97:
	.loc 1 644 0
	lwz 31,44(31)
	b .L120
	.cfi_endproc
.LFE50:
	.size	R_MarkShadowCasting, .-R_MarkShadowCasting
	.align 2
	.globl SphereInFrustum
	.type	SphereInFrustum, @function
SphereInFrustum:
.LFB51:
	.loc 1 648 0
	.cfi_startproc
.LVL98:
	.loc 1 647 0
	li 0,6
	.loc 1 656 0
	fneg 7,1
	lis 9,frustumPlanes@ha
	lfs 8,0(3)
	lfs 9,4(3)
	.loc 1 647 0
	mtctr 0
	.loc 1 656 0
	lfs 10,8(3)
	la 9,frustumPlanes@l(9)
.LVL99:
.L126:
	.loc 1 654 0
	lfs 0,4(9)
	lfs 11,0(9)
	fmuls 0,9,0
	lfs 12,8(9)
	lfs 13,12(9)
	.loc 1 655 0
	addi 9,9,16
	.loc 1 654 0
	fmadds 0,11,8,0
	fmadds 0,12,10,0
	fadds 0,0,13
.LVL100:
	.loc 1 655 0
	fcmpu 7,0,7
	cror 30,28,30
	beq- 7,.L127
.LVL101:
	.loc 1 652 0
	bdnz .L126
	.loc 1 658 0
	fadds 1,1,0
.LVL102:
	blr
.LVL103:
.L127:
	.loc 1 656 0
	lis 9,.LC5@ha
	lfs 1,.LC5@l(9)
.LVL104:
	.loc 1 659 0
	blr
	.cfi_endproc
.LFE51:
	.size	SphereInFrustum, .-SphereInFrustum
	.align 2
	.globl R_ContributeFrame
	.type	R_ContributeFrame, @function
R_ContributeFrame:
.LFB52:
	.loc 1 670 0
	.cfi_startproc
.LVL105:
	mflr 0
	stwu 1,-48(1)
.LCFI27:
	.cfi_def_cfa_offset 48
	.cfi_register 65, 0
	.loc 1 674 0
	lis 9,d_lightstylevalue@ha
	la 9,d_lightstylevalue@l(9)
	.loc 1 670 0
	stw 29,36(1)
	stw 0,52(1)
	.loc 1 682 0
	li 29,0
	.cfi_offset 65, 4
	.cfi_offset 29, -12
	.loc 1 670 0
	stw 31,44(1)
	mr 31,3
	.cfi_offset 31, -4
	.loc 1 674 0
	lwz 0,2124(3)
	.loc 1 670 0
	stw 30,40(1)
	.loc 1 674 0
	slwi 0,0,2
	lwzx 0,9,0
	lis 9,.LC3@ha
	lfs 0,.LC3@l(9)
	lis 9,.LC18@ha
	xoris 0,0,0x8000
	stw 0,28(1)
	lis 0,0x4330
	stw 0,24(1)
	lfd 13,24(1)
	fsub 0,13,0
	lfs 13,.LC18@l(9)
	.loc 1 682 0
	lis 9,.LC19@ha
	.loc 1 674 0
	fdiv 0,0,13
	.loc 1 682 0
	lfd 13,.LC19@l(9)
	.loc 1 674 0
	frsp 0,0
.LVL106:
	.loc 1 682 0
	fmr 12,0
	fcmpu 7,12,13
	blt- 7,.L130
	.cfi_offset 30, -8
	.loc 1 684 0
	lfs 12,12(3)
	.loc 1 685 0
	lfs 13,16(3)
	.loc 1 686 0
	lfs 11,20(3)
	.loc 1 684 0
	fmuls 12,12,0
	.loc 1 685 0
	fmuls 13,13,0
	.loc 1 690 0
	lfs 1,36(3)
	.loc 1 686 0
	fmuls 0,11,0
.LVL107:
	.loc 1 684 0
	stfs 12,24(3)
	.loc 1 685 0
	stfs 13,28(3)
	.loc 1 686 0
	stfs 0,32(3)
	.loc 1 690 0
	bl SphereInFrustum
.LVL108:
	.loc 1 704 0
	lis 9,.LC5@ha
	lfs 0,.LC5@l(9)
	fcmpu 7,1,0
	beq- 7,.L130
	.loc 1 711 0
	lis 9,sh_noscissor+12@ha
	lfs 13,sh_noscissor+12@l(9)
	fcmpu 7,13,0
	crnot 30,30
	mfcr 30
	rlwinm 30,30,31,1
	bne- 7,.L142
.LVL109:
.L131:
	.loc 1 747 0
	lbz 0,45(31)
	.loc 1 746 0
	lis 9,shadowchain@ha
	.loc 1 747 0
	cmpwi 7,0,0
	.loc 1 746 0
	li 0,0
	stw 0,shadowchain@l(9)
	.loc 1 747 0
	beq- 7,.L134
	.loc 1 748 0
	addi 3,31,52
	lis 9,lightvis@ha
	stw 3,lightvis@l(9)
.L135:
	.loc 1 756 0
	lis 4,worldvis@ha
	la 4,worldvis@l(4)
	bl HasSharedLeafs
	mr 29,3
.L130:
	.loc 1 780 0
	lwz 0,52(1)
	mr 3,29
	lwz 30,40(1)
	mtlr 0
	lwz 29,36(1)
	lwz 31,44(1)
.LVL110:
	addi 1,1,48
	.cfi_remember_state
.LCFI28:
	.cfi_def_cfa_offset 0
	.cfi_restore 31
	.cfi_restore 30
	.cfi_restore 29
	blr
.LVL111:
.L142:
.LCFI29:
	.cfi_restore_state
.LBB86:
	.loc 1 714 0
	lis 9,r_refdef@ha
	lfs 9,0(31)
	la 9,r_refdef@l(9)
	lfs 10,4(31)
	lfs 12,112(9)
	.loc 1 715 0
	addi 3,1,8
	.loc 1 714 0
	lfs 13,116(9)
	lfs 11,8(31)
	fsubs 12,9,12
	lfs 0,120(9)
	fsubs 13,10,13
	fsubs 0,11,0
	stfs 12,8(1)
	stfs 13,12(1)
	stfs 0,16(1)
	.loc 1 715 0
	bl Length
.LVL112:
	.loc 1 717 0
	lfs 0,36(31)
	fcmpu 7,0,1
	blt- 7,.L143
	.loc 1 736 0
	lis 11,r_Iviewport@ha
	la 9,r_Iviewport@l(11)
	lwz 11,r_Iviewport@l(11)
	.loc 1 737 0
	lwz 0,4(9)
	.loc 1 738 0
	lwz 10,8(9)
	.loc 1 739 0
	lwz 9,12(9)
	.loc 1 738 0
	add 10,11,10
	.loc 1 736 0
	stw 11,2132(31)
	.loc 1 739 0
	add 9,0,9
	.loc 1 737 0
	stw 0,2136(31)
	.loc 1 738 0
	stw 10,2140(31)
	.loc 1 739 0
	stw 9,2144(31)
	b .L131
.LVL113:
.L134:
.LBE86:
	.loc 1 750 0
	lis 30,cl@ha
	mr 3,31
	la 30,cl@l(30)
	lwz 4,2688(30)
	bl Mod_PointInLeaf
	.loc 1 751 0
	lwz 4,2688(30)
	lis 30,lightvis@ha
	bl Mod_LeafPVS
	.loc 1 752 0
	li 5,1024
	.loc 1 751 0
	mr 0,3
	.loc 1 752 0
	mr 4,3
	addi 3,31,52
	.loc 1 751 0
	stw 0,lightvis@l(30)
	.loc 1 752 0
	bl Q_memcpy
	.loc 1 753 0
	lwz 4,lightvis@l(30)
	addi 3,31,1076
	li 5,1024
	bl Q_memcpy
	lwz 3,lightvis@l(30)
	b .L135
.LVL114:
.L143:
.LBB87:
	.loc 1 719 0
	mr 3,31
	addi 4,31,2132
	bl R_ProjectSphere
.LVL115:
	.loc 1 722 0
	lwz 0,2132(31)
	lwz 9,2140(31)
	.loc 1 724 0
	mr 29,30
	.loc 1 722 0
	cmpw 7,0,9
	bge- 7,.L130
	.loc 1 723 0 discriminator 1
	lwz 11,2136(31)
	lwz 10,2144(31)
	.loc 1 722 0 discriminator 1
	cmpw 7,11,10
	bge- 7,.L130
	.loc 1 728 0
	addi 9,9,1
	.loc 1 729 0
	addi 10,10,1
	.loc 1 728 0
	rlwinm 8,9,0,0,30
	.loc 1 726 0
	rlwinm 0,0,0,0,30
	.loc 1 727 0
	rlwinm 11,11,0,0,30
	.loc 1 729 0
	rlwinm 9,10,0,0,30
	.loc 1 726 0
	stw 0,2132(31)
	.loc 1 727 0
	stw 11,2136(31)
	.loc 1 728 0
	stw 8,2140(31)
	.loc 1 729 0
	stw 9,2144(31)
	b .L131
.LBE87:
	.cfi_endproc
.LFE52:
	.size	R_ContributeFrame, .-R_ContributeFrame
	.align 2
	.globl R_InitShadowsForFrame
	.type	R_InitShadowsForFrame, @function
R_InitShadowsForFrame:
.LFB44:
	.loc 1 285 0
	.cfi_startproc
	mflr 0
	stwu 1,-40(1)
.LCFI30:
	.cfi_def_cfa_offset 40
	.cfi_register 65, 0
	.loc 1 290 0
	lis 9,numStaticShadowLights@ha
	.loc 1 285 0
	stw 29,28(1)
	.loc 1 299 0
	lis 29,worldvis@ha
	.cfi_offset 29, -12
	.loc 1 285 0
	stw 0,44(1)
	.loc 1 299 0
	la 29,worldvis@l(29)
	.loc 1 290 0
	lwz 0,numStaticShadowLights@l(9)
	.cfi_offset 65, 4
	.loc 1 285 0
	stw 30,32(1)
	.loc 1 290 0
	lis 30,numShadowLights@ha
	.cfi_offset 30, -8
	.loc 1 285 0
	stw 31,36(1)
	.loc 1 295 0
	lis 31,numUsedShadowLights@ha
	.cfi_offset 31, -4
	.loc 1 290 0
	stw 0,numShadowLights@l(30)
	.loc 1 285 0
	stw 24,8(1)
	stw 25,12(1)
	stw 26,16(1)
	stw 27,20(1)
	stw 28,24(1)
	.loc 1 292 0
	.cfi_offset 28, -16
	.cfi_offset 27, -20
	.cfi_offset 26, -24
	.cfi_offset 25, -28
	.cfi_offset 24, -32
	bl R_MarkDlights
	.loc 1 295 0
	li 0,0
	.loc 1 299 0
	li 5,1024
	.loc 1 298 0
	lis 9,cut_ent@ha
	.loc 1 299 0
	mr 3,29
	li 4,0
	.loc 1 298 0
	stw 0,cut_ent@l(9)
	.loc 1 295 0
	stw 0,numUsedShadowLights@l(31)
	.loc 1 299 0
	bl Q_memset
	.loc 1 301 0
	lis 9,r_viewleaf@ha
	lwz 3,r_viewleaf@l(9)
	lis 9,cl+2688@ha
	lwz 4,cl+2688@l(9)
	bl Mod_LeafPVS
	.loc 1 302 0
	li 5,1024
	.loc 1 301 0
	mr 4,3
.LVL116:
	.loc 1 302 0
	mr 3,29
.LVL117:
	bl Q_memcpy
.LVL118:
	.loc 1 304 0
	lwz 0,numShadowLights@l(30)
	cmpwi 7,0,0
	ble- 7,.L144
	lis 27,shadowlights@ha
	lis 28,currentshadowlight@ha
	.loc 1 312 0
	lis 24,.LC20@ha
	.loc 1 309 0
	lis 25,usedshadowlights@ha
	.loc 1 304 0
	li 29,0
	la 27,shadowlights@l(27)
	la 28,currentshadowlight@l(28)
	la 30,numShadowLights@l(30)
	.loc 1 307 0
	li 26,1
	.loc 1 312 0
	la 24,.LC20@l(24)
	.loc 1 309 0
	la 25,usedshadowlights@l(25)
	b .L149
.LVL119:
.L151:
	.loc 1 308 0
	lwz 9,numUsedShadowLights@l(31)
	.loc 1 307 0
	lwz 11,0(28)
	.loc 1 308 0
	cmpwi 7,9,63
	.loc 1 309 0
	slwi 0,9,2
	.loc 1 307 0
	stb 26,44(11)
	.loc 1 310 0
	addi 9,9,1
	.loc 1 308 0
	bgt- 7,.L147
	.loc 1 309 0
	stwx 11,25,0
	.loc 1 310 0
	stw 9,numUsedShadowLights@l(31)
.L148:
	.loc 1 304 0
	lwz 0,0(30)
	addi 29,29,1
.LVL120:
	cmpw 7,0,29
	ble- 7,.L144
.LVL121:
.L149:
	.loc 1 305 0
	mulli 0,29,2192
	add 0,27,0
	.loc 1 306 0
	mr 3,0
	.loc 1 305 0
	stw 0,0(28)
	.loc 1 306 0
	bl R_ContributeFrame
	cmpwi 0,3,0
	bne- 0,.L151
	.loc 1 304 0
	lwz 0,0(30)
	addi 29,29,1
.LVL122:
	.loc 1 315 0
	lwz 9,0(28)
	.loc 1 304 0
	cmpw 7,0,29
	.loc 1 315 0
	stb 3,44(9)
	.loc 1 304 0
	bgt+ 7,.L149
.LVL123:
.L144:
	.loc 1 318 0
	lwz 0,44(1)
	lwz 24,8(1)
	mtlr 0
	lwz 25,12(1)
	lwz 26,16(1)
	lwz 27,20(1)
	lwz 28,24(1)
	lwz 29,28(1)
	lwz 30,32(1)
	lwz 31,36(1)
	addi 1,1,40
	.cfi_remember_state
.LCFI31:
	.cfi_def_cfa_offset 0
	.cfi_restore 31
	.cfi_restore 30
	.cfi_restore 29
	.cfi_restore 28
	.cfi_restore 27
	.cfi_restore 26
	.cfi_restore 25
	.cfi_restore 24
	blr
.L147:
.LCFI32:
	.cfi_restore_state
	.loc 1 312 0
	mr 3,24
	crxor 6,6,6
	bl Con_Printf
	b .L148
	.cfi_endproc
.LFE44:
	.size	R_InitShadowsForFrame, .-R_InitShadowsForFrame
	.align 2
	.globl R_FillShadowChain
	.type	R_FillShadowChain, @function
R_FillShadowChain:
.LFB53:
	.loc 1 791 0
	.cfi_startproc
.LVL124:
	.loc 1 793 0
	lis 9,r_lightTimestamp@ha
	.loc 1 791 0
	stwu 1,-16(1)
.LCFI33:
	.cfi_def_cfa_offset 16
	.loc 1 793 0
	lwz 11,r_lightTimestamp@l(9)
	.loc 1 791 0
	mflr 0
	stw 31,12(1)
	.loc 1 795 0
	lis 31,shadowchain@ha
	.cfi_offset 31, -4
	.cfi_register 65, 0
	.loc 1 793 0
	addi 11,11,1
	.loc 1 791 0
	stw 30,8(1)
	.loc 1 793 0
	stw 11,r_lightTimestamp@l(9)
	.loc 1 795 0
	li 9,0
	.loc 1 791 0
	mr 30,3
	.cfi_offset 30, -8
	stw 0,20(1)
	.loc 1 795 0
	stw 9,shadowchain@l(31)
	.loc 1 797 0
	addi 0,3,52
	.cfi_offset 65, 4
	lis 9,lightvis@ha
	stw 0,lightvis@l(9)
	.loc 1 801 0
	bl MarkShadowEntities
.LVL125:
	.loc 1 804 0
	lbz 0,45(30)
	.loc 1 807 0
	li 3,1
	.loc 1 804 0
	cmpwi 7,0,0
	bne+ 7,.L153
	.loc 1 805 0
	lis 9,cl+2688@ha
	mr 3,30
	lwz 9,cl+2688@l(9)
	lwz 4,192(9)
	bl R_MarkShadowCasting
	.loc 1 810 0
	lwz 3,shadowchain@l(31)
	cntlzw 3,3
	srwi 3,3,5
	xori 3,3,1
.L153:
	.loc 1 811 0
	lwz 0,20(1)
	lwz 30,8(1)
.LVL126:
	mtlr 0
	lwz 31,12(1)
	addi 1,1,16
.LCFI34:
	.cfi_def_cfa_offset 0
	.cfi_restore 31
	.cfi_restore 30
	blr
	.cfi_endproc
.LFE53:
	.size	R_FillShadowChain, .-R_FillShadowChain
	.align 2
	.globl R_MarkBrushModelSurfaces
	.type	R_MarkBrushModelSurfaces, @function
R_MarkBrushModelSurfaces:
.LFB56:
	.loc 1 884 0
	.cfi_startproc
.LVL127:
	mflr 0
	stwu 1,-128(1)
.LCFI35:
	.cfi_def_cfa_offset 128
	.cfi_register 65, 0
	.loc 1 902 0
	lis 9,.LC5@ha
	.loc 1 897 0
	lis 11,currententity@ha
	.loc 1 902 0
	lfs 0,.LC5@l(9)
	.loc 1 884 0
	stw 0,132(1)
	.loc 1 898 0
	li 0,-1
	.cfi_offset 65, 4
	.loc 1 884 0
	stw 28,64(1)
	.loc 1 895 0
	lis 28,currentshadowlight@ha
	.cfi_offset 28, -64
	.loc 1 902 0
	lfs 13,148(3)
	.loc 1 895 0
	lwz 9,currentshadowlight@l(28)
	.loc 1 902 0
	fcmpu 7,13,0
	.loc 1 884 0
	stfd 29,104(1)
	.loc 1 895 0
	lfs 29,0(9)
	.cfi_offset 61, -24
.LVL128:
	.loc 1 897 0
	stw 3,currententity@l(11)
	.loc 1 898 0
	lis 11,currenttexture@ha
	.loc 1 884 0
	stfd 30,112(1)
	stfd 31,120(1)
	stw 30,72(1)
	mr 30,3
	.cfi_offset 30, -56
	.cfi_offset 63, -8
	.cfi_offset 62, -16
	stw 31,76(1)
	.loc 1 898 0
	stw 0,currenttexture@l(11)
	.loc 1 904 0
	li 0,1
	.loc 1 884 0
	stfd 26,80(1)
	stfd 27,88(1)
	stfd 28,96(1)
	stw 27,60(1)
	stw 29,68(1)
	.loc 1 895 0
	lfs 30,4(9)
.LVL129:
	lfs 31,8(9)
.LVL130:
	.loc 1 900 0
	lwz 31,160(3)
	.cfi_offset 29, -60
	.cfi_offset 27, -68
	.cfi_offset 60, -32
	.cfi_offset 59, -40
	.cfi_offset 58, -48
	.cfi_offset 31, -52
.LVL131:
	.loc 1 902 0
	bne- 7,.L156
.LVL132:
	.loc 1 902 0 is_stmt 0 discriminator 1
	lfs 13,152(3)
	fcmpu 7,13,0
	beq- 7,.L163
.LVL133:
.L156:
	.loc 1 918 0 is_stmt 1
	lis 11,r_refdef@ha
	lfs 12,112(30)
	la 11,r_refdef@l(11)
	lfs 13,116(30)
	lfs 0,120(30)
	.loc 1 920 0
	cmpwi 7,0,0
	.loc 1 918 0
	lfs 27,112(11)
	lis 27,modelorg@ha
	lfs 26,116(11)
	la 29,modelorg@l(27)
	lfs 28,120(11)
	fsubs 27,27,12
	fsubs 26,26,13
	fsubs 28,28,0
	.loc 1 919 0
	fsubs 12,29,12
	.loc 1 918 0
	stfs 27,modelorg@l(27)
	.loc 1 919 0
	fsubs 13,30,13
	.loc 1 918 0
	stfs 26,4(29)
	.loc 1 919 0
	fsubs 0,31,0
	.loc 1 918 0
	stfs 28,8(29)
	.loc 1 919 0
	stfs 12,0(9)
	stfs 13,4(9)
	stfs 0,8(9)
	.loc 1 920 0
	bne- 7,.L164
.LVL134:
.L157:
	.loc 1 938 0
	lwz 27,208(31)
	lwz 29,140(31)
.LVL135:
	.loc 1 940 0
	bl glPushMatrix
.LVL136:
	.loc 1 941 0
	lfs 0,148(30)
	.loc 1 942 0
	mr 3,30
	.loc 1 941 0
	fneg 0,0
	stfs 0,148(30)
	.loc 1 942 0
	bl R_RotateForEntity
	.loc 1 946 0
	lwz 0,144(31)
	.loc 1 943 0
	lfs 0,148(30)
	.loc 1 946 0
	cmpwi 7,0,0
	.loc 1 943 0
	fneg 0,0
	stfs 0,148(30)
.LVL137:
	.loc 1 946 0
	ble- 7,.L158
	.loc 1 938 0
	mulli 29,29,92
.LVL138:
	.loc 1 946 0
	li 30,0
.LVL139:
	.loc 1 938 0
	add 29,27,29
	lis 27,currentshadowlight@ha
	la 27,currentshadowlight@l(27)
.LVL140:
.L159:
	.loc 1 948 0 discriminator 2
	lwz 4,0(27)
	mr 3,29
	.loc 1 946 0 discriminator 2
	addi 30,30,1
	addi 29,29,92
	.loc 1 948 0 discriminator 2
	bl R_MarkShadowSurf
.LVL141:
	.loc 1 946 0 discriminator 2
	lwz 0,144(31)
	cmpw 7,0,30
	bgt+ 7,.L159
.LVL142:
.L158:
	.loc 1 951 0
	lwz 9,currentshadowlight@l(28)
	stfs 29,0(9)
	stfs 30,4(9)
	stfs 31,8(9)
	.loc 1 952 0
	bl glPopMatrix
	.loc 1 953 0
	lwz 0,132(1)
	lwz 27,60(1)
	mtlr 0
	lwz 28,64(1)
	lwz 29,68(1)
	lwz 30,72(1)
	lwz 31,76(1)
.LVL143:
	lfd 26,80(1)
	lfd 27,88(1)
	lfd 28,96(1)
	lfd 29,104(1)
.LVL144:
	lfd 30,112(1)
.LVL145:
	lfd 31,120(1)
.LVL146:
	addi 1,1,128
	.cfi_remember_state
.LCFI36:
	.cfi_def_cfa_offset 0
	.cfi_restore 63
	.cfi_restore 62
	.cfi_restore 61
	.cfi_restore 60
	.cfi_restore 59
	.cfi_restore 58
	.cfi_restore 31
	.cfi_restore 30
	.cfi_restore 29
	.cfi_restore 28
	.cfi_restore 27
	blr
.LVL147:
.L163:
.LCFI37:
	.cfi_restore_state
	.loc 1 884 0 discriminator 1
	lfs 13,156(3)
	fcmpu 7,13,0
	crnot 30,30
	mfcr 0
	rlwinm 0,0,31,1
	b .L156
.LVL148:
.L164:
.LBB88:
	.loc 1 926 0
	addi 3,30,148
.LVL149:
	addi 4,1,32
	addi 5,1,20
	addi 6,1,8
	bl AngleVectors
.LVL150:
	.loc 1 931 0
	lwz 9,currentshadowlight@l(28)
	.loc 1 927 0
	lfs 11,36(1)
	.loc 1 931 0
	lfs 0,4(9)
	.loc 1 928 0
	lfs 12,24(1)
	.loc 1 927 0
	fmuls 9,26,11
	.loc 1 929 0
	lfs 13,12(1)
	.loc 1 932 0
	fmuls 6,11,0
	.loc 1 928 0
	fmuls 10,26,12
	.loc 1 927 0
	lfs 11,32(1)
	.loc 1 933 0
	fmuls 7,12,0
	.loc 1 928 0
	lfs 12,20(1)
	.loc 1 934 0
	fmuls 8,13,0
	.loc 1 931 0
	lfs 0,0(9)
.LVL151:
	.loc 1 929 0
	fmuls 26,26,13
	lfs 13,8(1)
	.loc 1 927 0
	fmadds 9,27,11,9
	.loc 1 928 0
	fmadds 10,27,12,10
	.loc 1 932 0
	fmadds 6,11,0,6
	.loc 1 927 0
	lfs 11,40(1)
	.loc 1 933 0
	fmadds 7,12,0,7
	.loc 1 928 0
	lfs 12,28(1)
	.loc 1 934 0
	fmadds 8,13,0,8
	.loc 1 931 0
	lfs 0,8(9)
.LVL152:
	.loc 1 929 0
	fmadds 27,27,13,26
	lfs 13,16(1)
	.loc 1 927 0
	fmadds 9,28,11,9
	.loc 1 928 0
	fnmadds 10,28,12,10
	.loc 1 932 0
	fmadds 11,11,0,6
	.loc 1 933 0
	fnmadds 12,12,0,7
	.loc 1 927 0
	stfs 9,modelorg@l(27)
	.loc 1 929 0
	fmadds 28,28,13,27
	.loc 1 928 0
	stfs 10,4(29)
	.loc 1 934 0
	fmadds 0,13,0,8
	.loc 1 929 0
	stfs 28,8(29)
	.loc 1 932 0
	stfs 11,0(9)
	.loc 1 933 0
	stfs 12,4(9)
	.loc 1 934 0
	stfs 0,8(9)
	b .L157
.LBE88:
	.cfi_endproc
.LFE56:
	.size	R_MarkBrushModelSurfaces, .-R_MarkBrushModelSurfaces
	.align 2
	.globl R_DrawBrushModelVolumes
	.type	R_DrawBrushModelVolumes, @function
R_DrawBrushModelVolumes:
.LFB57:
	.loc 1 1120 0
	.cfi_startproc
.LVL153:
	mflr 0
	stwu 1,-64(1)
.LCFI38:
	.cfi_def_cfa_offset 64
	.cfi_register 65, 0
	stw 31,60(1)
	mr 31,3
	.cfi_offset 31, -4
	stw 0,68(1)
	stw 19,12(1)
	stw 25,36(1)
	.loc 1 1122 0
	lwz 19,160(3)
	.cfi_offset 25, -28
	.cfi_offset 19, -52
	.cfi_offset 65, 4
.LVL154:
	.loc 1 1120 0
	stw 28,48(1)
	.loc 1 1126 0
	lwz 25,264(3)
.LVL155:
	.loc 1 1120 0
	stw 20,16(1)
	stw 21,20(1)
	stw 22,24(1)
	stw 23,28(1)
	stw 24,32(1)
	stw 26,40(1)
	stw 27,44(1)
	stw 29,52(1)
	stw 30,56(1)
	.loc 1 1131 0
	.cfi_offset 30, -8
	.cfi_offset 29, -12
	.cfi_offset 27, -20
	.cfi_offset 26, -24
	.cfi_offset 24, -32
	.cfi_offset 23, -36
	.cfi_offset 22, -40
	.cfi_offset 21, -44
	.cfi_offset 20, -48
	.cfi_offset 28, -16
	bl glPushMatrix
.LVL156:
	.loc 1 1132 0
	lfs 0,148(31)
	.loc 1 1133 0
	mr 3,31
	.loc 1 1132 0
	fneg 0,0
	stfs 0,148(31)
	.loc 1 1133 0
	bl R_RotateForEntity
	.loc 1 1134 0
	lfs 0,148(31)
	fneg 0,0
	stfs 0,148(31)
	.loc 1 1136 0
	bl GX_LoadGLModelView
	.loc 1 1139 0
	lwz 9,144(19)
	.loc 1 1138 0
	lwz 28,208(19)
	.loc 1 1139 0
	cmpwi 7,9,0
	.loc 1 1138 0
	lwz 0,140(19)
.LVL157:
	.loc 1 1139 0
	ble- 7,.L166
	.loc 1 1138 0
	mulli 0,0,92
	.loc 1 1120 0
	addis 20,25,0x2
	addi 20,20,-32677
	.loc 1 1128 0
	li 26,0
	.loc 1 1138 0
	add 28,28,0
	.loc 1 1139 0
	li 21,0
	lis 24,wgPipe@ha
.LBB89:
.LBB90:
	.loc 1 1150 0
	lis 23,globalVertexTable@ha
.LVL158:
.L176:
.LBE90:
	.loc 1 1141 0
	lbzu 0,1(20)
	cmpwi 7,0,0
	beq- 7,.L167
	.loc 1 1145 0
	lwz 29,16(28)
	.loc 1 1143 0
	lwz 22,36(28)
.LVL159:
	.loc 1 1145 0
	cmpwi 7,29,0
	ble- 7,.L168
	li 31,1
	li 30,0
	add 27,25,26
	b .L171
.LVL160:
.L170:
	lwz 29,16(28)
	addi 30,30,1
	addi 31,31,1
	cmpw 7,29,0
	ble- 7,.L181
.LVL161:
.L171:
	.loc 1 1120 0
	add 9,27,30
	.loc 1 1147 0
	mr 0,31
	.loc 1 1120 0
	addis 9,9,0x2
	.loc 1 1147 0
	lbz 9,-30628(9)
	cmpwi 7,9,0
	beq+ 7,.L170
.LBB103:
	.loc 1 1148 0
	li 3,152
	li 4,3
	li 5,4
	bl GX_Begin
	.loc 1 1152 0
	lwz 8,8(22)
	.loc 1 1150 0
	lwz 9,36(28)
	.loc 1 1120 0
	add 4,30,26
	.loc 1 1152 0
	divw 6,31,8
	.loc 1 1150 0
	lwz 11,globalVertexTable@l(23)
	lwz 7,24(9)
	.loc 1 1152 0
	mr 0,31
.LBB91:
.LBB92:
	.file 2 "c:/utils/devkitPro/libogc/include/ogc/gx.h"
	.loc 2 2123 0
	lwz 9,wgPipe@l(24)
.LBE92:
.LBE91:
	.loc 1 1150 0
	add 10,7,30
	.loc 1 1152 0
	mullw 6,6,8
	subf 6,6,31
	.loc 1 1150 0
	mulli 10,10,28
	.loc 1 1153 0
	add 8,26,6
	.loc 1 1151 0
	mulli 4,4,12
	.loc 1 1153 0
	mulli 8,8,12
	.loc 1 1152 0
	add 6,7,6
	.loc 1 1154 0
	lwzx 12,11,10
	.loc 1 1152 0
	mulli 6,6,28
	.loc 1 1151 0
	addi 4,4,80
	.loc 1 1153 0
	addi 8,8,80
	.loc 1 1150 0
	add 10,11,10
.LVL162:
	.loc 1 1151 0
	add 4,25,4
	.loc 1 1153 0
	add 8,25,8
	.loc 1 1154 0
	lwz 29,4(10)
	lwz 3,8(10)
	.loc 1 1151 0
	addi 5,4,12
.LVL163:
.LBB95:
.LBB93:
	.loc 2 2123 0
	stw 12,0(9)
.LBE93:
.LBE95:
	.loc 1 1152 0
	add 7,11,6
.LVL164:
	.loc 1 1153 0
	addi 10,8,12
.LVL165:
.LBB96:
.LBB94:
	.loc 2 2124 0
	.loc 2 2125 0
	stw 29,0(9)
	.loc 2 2126 0
	.loc 2 2127 0
	stw 3,0(9)
	.loc 2 2128 0
.LBE94:
.LBE96:
	.loc 1 1155 0
	lwz 3,12(4)
.LVL166:
	lwz 5,8(5)
.LVL167:
	lwz 4,16(4)
.LVL168:
.LBB97:
.LBB98:
	.loc 2 2123 0
	stw 3,0(9)
	.loc 2 2124 0
	.loc 2 2125 0
	stw 4,0(9)
	.loc 2 2126 0
	.loc 2 2127 0
	stw 5,0(9)
	.loc 2 2128 0
.LBE98:
.LBE97:
	.loc 1 1156 0
	lwzx 5,11,6
.LVL169:
	lwz 6,4(7)
	lwz 11,8(7)
.LVL170:
.LBB99:
.LBB100:
	.loc 2 2123 0
	stw 5,0(9)
	.loc 2 2124 0
	.loc 2 2125 0
	stw 6,0(9)
	.loc 2 2126 0
	.loc 2 2127 0
	stw 11,0(9)
	.loc 2 2128 0
.LBE100:
.LBE99:
	.loc 1 1157 0
	lwz 7,12(8)
.LVL171:
	lwz 11,8(10)
.LVL172:
	lwz 8,16(8)
.LVL173:
.LBB101:
.LBB102:
	.loc 2 2123 0
	stw 7,0(9)
	.loc 2 2124 0
	.loc 2 2125 0
	stw 8,0(9)
	.loc 2 2126 0
	.loc 2 2127 0
	stw 11,0(9)
	.loc 2 2128 0
.LVL174:
.LBE102:
.LBE101:
.LBE103:
	.loc 1 1145 0
	lwz 29,16(28)
.LVL175:
	addi 30,30,1
	addi 31,31,1
.LVL176:
	cmpw 7,29,0
	bgt+ 7,.L171
.LVL177:
.L181:
	.loc 1 1173 0
	rlwinm 31,29,0,0xffff
	li 3,160
	li 4,3
	mr 5,31
	bl GX_Begin
.LVL178:
	.loc 1 1174 0
	cmpwi 7,29,0
	ble- 7,.L172
.LBB104:
.LBB105:
.LBB106:
	.loc 2 2123 0
	lwz 11,wgPipe@l(24)
	mtctr 29
.LBE106:
.LBE105:
.LBE104:
	.loc 1 1174 0
	li 9,0
	la 6,globalVertexTable@l(23)
.LVL179:
.L173:
.LBB109:
	.loc 1 1178 0 discriminator 2
	lwz 10,36(28)
	lwz 8,0(6)
	lwz 10,24(10)
	add 10,9,10
	mulli 10,10,28
	.loc 1 1179 0 discriminator 2
	lwzx 7,8,10
	.loc 1 1178 0 discriminator 2
	add 10,8,10
.LVL180:
	.loc 1 1179 0 discriminator 2
	lwz 8,4(10)
	lwz 0,8(10)
.LVL181:
.LBB108:
.LBB107:
	.loc 2 2123 0 discriminator 2
	stw 7,0(11)
	.loc 2 2124 0 discriminator 2
	.loc 2 2125 0 discriminator 2
	stw 8,0(11)
	.loc 2 2126 0 discriminator 2
	.loc 2 2127 0 discriminator 2
	stw 0,0(11)
	.loc 2 2128 0 discriminator 2
.LBE107:
.LBE108:
.LBE109:
	.loc 1 1174 0 discriminator 2
	addi 9,9,1
.LVL182:
	bdnz .L173
.LVL183:
.L172:
	.loc 1 1186 0
	li 3,160
	li 4,3
	mr 5,31
	bl GX_Begin
.LVL184:
	.loc 1 1187 0
	addic. 9,29,-1
	blt- 0,.L174
.LVL185:
.LBB110:
.LBB111:
.LBB112:
	.loc 2 2123 0
	lwz 11,wgPipe@l(24)
	mtctr 29
.LVL186:
.L175:
.LBE112:
.LBE111:
	.loc 1 1120 0 discriminator 2
	add 10,9,26
	.loc 1 1190 0 discriminator 2
	mulli 10,10,12
	addi 10,10,80
	add 10,25,10
	.loc 1 1191 0 discriminator 2
	lwz 7,12(10)
.LVL187:
	lwz 8,16(10)
	lwz 0,20(10)
.LVL188:
.LBB114:
.LBB113:
	.loc 2 2123 0 discriminator 2
	stw 7,0(11)
	.loc 2 2124 0 discriminator 2
	.loc 2 2125 0 discriminator 2
	stw 8,0(11)
	.loc 2 2126 0 discriminator 2
	.loc 2 2127 0 discriminator 2
	stw 0,0(11)
	.loc 2 2128 0 discriminator 2
.LBE113:
.LBE114:
.LBE110:
	.loc 1 1187 0 discriminator 2
	addi 9,9,-1
.LVL189:
	bdnz .L175
.LVL190:
.L174:
	.loc 1 1196 0
	lwz 0,16(28)
	lwz 9,144(19)
.LVL191:
	add 26,26,0
.LVL192:
.L167:
.LBE89:
	.loc 1 1139 0
	addi 21,21,1
.LVL193:
	addi 28,28,92
.LVL194:
	cmpw 7,9,21
	bgt+ 7,.L176
.LVL195:
.L166:
	.loc 1 1199 0
	bl glPopMatrix
	.loc 1 1200 0
	lwz 0,68(1)
	lwz 19,12(1)
.LVL196:
	mtlr 0
	lwz 20,16(1)
	lwz 21,20(1)
	lwz 22,24(1)
	lwz 23,28(1)
	lwz 24,32(1)
	lwz 25,36(1)
.LVL197:
	lwz 26,40(1)
	lwz 27,44(1)
	lwz 28,48(1)
	lwz 29,52(1)
	lwz 30,56(1)
	lwz 31,60(1)
	addi 1,1,64
	.cfi_remember_state
.LCFI39:
	.cfi_def_cfa_offset 0
	.cfi_restore 31
	.cfi_restore 30
	.cfi_restore 29
	.cfi_restore 28
	.cfi_restore 27
	.cfi_restore 26
	.cfi_restore 25
	.cfi_restore 24
	.cfi_restore 23
	.cfi_restore 22
	.cfi_restore 21
	.cfi_restore 20
	.cfi_restore 19
	blr
.LVL198:
.L168:
.LCFI40:
	.cfi_restore_state
.LBB115:
	.loc 1 1173 0
	rlwinm 31,29,0,0xffff
	li 3,160
	li 4,3
	mr 5,31
	bl GX_Begin
	b .L172
.LBE115:
	.cfi_endproc
.LFE57:
	.size	R_DrawBrushModelVolumes, .-R_DrawBrushModelVolumes
	.align 2
	.globl getVertexIndexFromSurf
	.type	getVertexIndexFromSurf, @function
getVertexIndexFromSurf:
.LFB58:
	.loc 1 1218 0
	.cfi_startproc
.LVL199:
	.loc 1 1220 0
	lwz 0,12(3)
	lwz 9,216(5)
	add 0,4,0
	slwi 0,0,2
	lwzx 0,9,0
.LVL200:
	.loc 1 1227 0
	lwz 9,184(5)
	.loc 1 1223 0
	cmpwi 7,0,0
	ble- 7,.L183
	.loc 1 1227 0
	slwi 0,0,3
.LVL201:
	lhzx 3,9,0
.LVL202:
	blr
.LVL203:
.L183:
	.loc 1 1233 0
	mulli 0,0,-8
.LVL204:
	add 9,9,0
	lhz 3,2(9)
.LVL205:
	.loc 1 1235 0
	blr
	.cfi_endproc
.LFE58:
	.size	getVertexIndexFromSurf, .-getVertexIndexFromSurf
	.align 2
	.globl PrecalcVolumesForLight
	.type	PrecalcVolumesForLight, @function
PrecalcVolumesForLight:
.LFB59:
	.loc 1 1252 0
	.cfi_startproc
.LVL206:
	stwu 1,-160(1)
.LCFI41:
	.cfi_def_cfa_offset 160
	.loc 1 1276 0
	lis 9,shadowchain@ha
	.loc 1 1252 0
	mflr 0
	stw 31,140(1)
	.loc 1 1276 0
	lwz 31,shadowchain@l(9)
	.cfi_offset 31, -20
	.cfi_register 65, 0
.LVL207:
	.loc 1 1252 0
	stw 0,164(1)
	.loc 1 1280 0
	cmpwi 7,31,0
	.loc 1 1252 0
	stfd 30,144(1)
	stfd 31,152(1)
	stw 14,72(1)
	stw 15,76(1)
	stw 16,80(1)
	stw 17,84(1)
	stw 18,88(1)
	stw 19,92(1)
	stw 20,96(1)
	stw 21,100(1)
	stw 22,104(1)
	stw 23,108(1)
	stw 24,112(1)
	stw 25,116(1)
	stw 26,120(1)
	stw 27,124(1)
	stw 28,128(1)
	stw 29,132(1)
	stw 30,136(1)
	.loc 1 1280 0
	beq- 7,.L215
	.cfi_offset 30, -24
	.cfi_offset 29, -28
	.cfi_offset 28, -32
	.cfi_offset 27, -36
	.cfi_offset 26, -40
	.cfi_offset 25, -44
	.cfi_offset 24, -48
	.cfi_offset 23, -52
	.cfi_offset 22, -56
	.cfi_offset 21, -60
	.cfi_offset 20, -64
	.cfi_offset 19, -68
	.cfi_offset 18, -72
	.cfi_offset 17, -76
	.cfi_offset 16, -80
	.cfi_offset 15, -84
	.cfi_offset 14, -88
	.cfi_offset 63, -8
	.cfi_offset 62, -16
	.cfi_offset 65, 4
	.loc 1 1418 0
	lis 8,.LC5@ha
	lis 28,volumeVertsBuff@ha
	lis 25,volumeCmdsBuff@ha
	lis 26,lightCmdsBuff@ha
	.loc 1 1407 0
	lis 27,currentshadowlight@ha
	.loc 1 1418 0
	lfs 31,.LC5@l(8)
	la 28,volumeVertsBuff@l(28)
	.loc 1 1280 0
	li 23,0
	li 21,0
	li 30,0
	li 22,0
	li 29,0
	la 25,volumeCmdsBuff@l(25)
	la 26,lightCmdsBuff@l(26)
	.loc 1 1407 0
	la 27,currentshadowlight@l(27)
	.loc 1 1410 0
	lis 18,.LC3@ha
	.loc 1 1415 0
	lis 19,.LC27@ha
	lis 20,.LC0@ha
.LVL208:
.L213:
	.loc 1 1285 0
	lwz 0,8(31)
	.loc 1 1283 0
	lwz 17,36(31)
.LVL209:
	.loc 1 1285 0
	andi. 9,0,20
	bne- 0,.L224
.LVL210:
	.loc 1 1293 0
	slwi 0,29,2
	li 9,6
	stwx 9,25,0
.LVL211:
	.loc 1 1294 0
	addi 0,29,1
	slwi 0,0,2
	.loc 1 1293 0
	mr 11,29
	.loc 1 1294 0
	lwz 9,16(31)
	addi 29,29,2
.LVL212:
	stwx 9,25,0
	.loc 1 1296 0
	lis 9,0x5555
	ori 9,9,21846
	srawi 0,30,31
	.loc 1 1297 0
	lwz 10,16(31)
	.loc 1 1296 0
	mulhw 9,30,9
	.loc 1 1297 0
	cmpwi 7,10,0
	.loc 1 1296 0
	subf 0,0,9
	stw 0,52(1)
	.loc 1 1322 0
	mr 6,0
	.loc 1 1297 0
	ble- 7,.L189
	.loc 1 1252 0
	addi 0,11,1
	.loc 1 1306 0
	stw 26,56(1)
	.loc 1 1252 0
	slwi 0,0,2
	.loc 1 1306 0
	stw 25,60(1)
	.loc 1 1252 0
	add 0,0,25
	.loc 1 1283 0
	mr 9,17
	.loc 1 1297 0
	li 24,0
	.loc 1 1306 0
	mr 26,0
	mr 25,6
	b .L193
.LVL213:
.L225:
	lis 11,.LC0@ha
	lis 8,.LC22@ha
	la 11,.LC0@l(11)
	lfs 0,.LC22@l(8)
	lfs 13,0(11)
	fdivs 1,13,1
.LVL214:
	fmuls 1,1,0
	bl VectorScale
.L191:
.LVL215:
	.loc 1 1318 0
	lwz 0,16(31)
	nor 9,24,24
	.loc 1 1314 0
	lfs 13,4(16)
	.loc 1 1297 0
	addi 24,24,1
	.loc 1 1318 0
	add 0,9,0
	.loc 1 1314 0
	lfs 11,24(1)
	.loc 1 1318 0
	add 0,0,25
	.loc 1 1314 0
	lfs 0,8(16)
	lfsx 12,14,15
	fadds 13,11,13
.LVL216:
	.loc 1 1318 0
	stwu 0,4(26)
	.loc 1 1315 0
	slwi 0,30,2
	.loc 1 1314 0
	lfs 11,28(1)
	.loc 1 1315 0
	add 9,28,0
	.loc 1 1297 0
	lwz 10,16(31)
	.loc 1 1316 0
	addi 30,30,3
.LVL217:
	.loc 1 1314 0
	fadds 0,11,0
.LVL218:
	lfs 11,20(1)
	.loc 1 1297 0
	cmpw 7,10,24
	.loc 1 1318 0
	addi 29,29,1
.LVL219:
	.loc 1 1314 0
	fadds 12,11,12
	.loc 1 1315 0
	stfsx 12,28,0
	stfs 13,4(9)
	stfs 0,8(9)
	.loc 1 1297 0
	ble- 7,.L192
	lwz 9,36(31)
.LVL220:
.L193:
	.loc 1 1300 0
	lwz 15,24(9)
	lis 8,globalVertexTable@ha
	la 8,globalVertexTable@l(8)
	.loc 1 1301 0
	lwz 9,0(27)
	.loc 1 1300 0
	add 15,24,15
	lwz 14,0(8)
	mulli 15,15,28
	.loc 1 1301 0
	lfs 0,0(9)
	lfs 13,4(9)
	.loc 1 1303 0
	addi 3,1,20
	.loc 1 1301 0
	lfsx 12,14,15
	.loc 1 1300 0
	add 16,14,15
.LVL221:
	.loc 1 1301 0
	fsubs 12,12,0
	lfs 0,8(9)
	stfs 12,20(1)
	lfs 12,4(16)
	fsubs 13,12,13
	stfs 13,24(1)
	lfs 13,8(16)
	fsubs 0,13,0
	stfs 0,28(1)
	.loc 1 1303 0
	bl Length
.LVL222:
	.loc 1 1304 0
	lis 9,sh_visiblevolumes@ha
	.loc 1 1306 0
	addi 3,1,20
	.loc 1 1304 0
	la 9,sh_visiblevolumes@l(9)
	.loc 1 1306 0
	mr 4,3
	.loc 1 1304 0
	lfs 0,12(9)
	fcmpu 7,0,31
	bne- 7,.L225
	.loc 1 1310 0
	lis 9,.LC0@ha
	lis 11,.LC23@ha
	la 9,.LC0@l(9)
	addi 3,1,20
	lfs 0,0(9)
	mr 4,3
	lwz 9,0(27)
	fdivs 1,0,1
.LVL223:
	lfs 0,.LC23@l(11)
	lfs 13,36(9)
	fmuls 1,1,13
	fmuls 1,1,0
	bl VectorScale
	b .L191
.LVL224:
.L192:
	.loc 1 1322 0
	lis 6,0x5555
	.loc 1 1323 0
	cmpwi 7,10,0
	.loc 1 1322 0
	ori 6,6,21846
	srawi 0,30,31
	mulhw 6,30,6
	lwz 26,56(1)
	lwz 25,60(1)
	subf 6,0,6
.LVL225:
	.loc 1 1323 0
	ble- 7,.L189
	.loc 1 1327 0
	lwz 11,36(31)
	lis 8,globalVertexTable@ha
	la 8,globalVertexTable@l(8)
	.loc 1 1323 0
	mtctr 10
	.loc 1 1327 0
	lwz 0,24(11)
	.loc 1 1252 0
	slwi 11,30,2
	.loc 1 1327 0
	lwz 9,0(8)
	.loc 1 1252 0
	lis 8,volumeVertsBuff@ha
	.loc 1 1327 0
	mulli 0,0,28
	.loc 1 1252 0
	la 8,volumeVertsBuff@l(8)
	add 11,11,8
	.loc 1 1323 0
	li 8,0
	.loc 1 1327 0
	add 9,9,0
.LVL226:
.L194:
	.loc 1 1327 0 is_stmt 0 discriminator 2
	lwz 0,0(9)
	.loc 1 1323 0 is_stmt 1 discriminator 2
	addi 8,8,1
.LVL227:
	.loc 1 1327 0 discriminator 2
	stw 0,0(11)
	.loc 1 1328 0 discriminator 2
	lwz 0,4(9)
	stw 0,4(11)
	.loc 1 1329 0 discriminator 2
	lwz 0,8(9)
	.loc 1 1323 0 discriminator 2
	addi 9,9,28
	.loc 1 1329 0 discriminator 2
	stw 0,8(11)
.LVL228:
	.loc 1 1323 0 discriminator 2
	addi 11,11,12
	bdnz .L194
	.loc 1 1252 0
	mulli 8,8,3
.LVL229:
	add 30,30,8
.LVL230:
.L189:
	.loc 1 1333 0
	lis 0,0x1
	ori 0,0,21845
	cmpw 7,30,0
	bgt- 7,.L195
.LVL231:
	.loc 1 1343 0 discriminator 1
	cmpwi 7,10,0
	ble- 7,.L197
	.loc 1 1252 0
	lwz 11,52(1)
	li 0,0
	lwz 7,20(17)
	mr 8,6
	subf 4,6,11
	mr 16,11
	addi 7,7,-4
	li 9,1
	.loc 1 1360 0
	li 24,8
	.loc 1 1362 0
	li 3,4
	mr 11,0
	b .L203
.LVL232:
.L198:
	.loc 1 1358 0
	cmpwi 7,11,0
	addi 23,23,2
.LVL233:
	bne- 7,.L201
	.loc 1 1360 0
	addi 21,29,1
.LVL234:
	.loc 1 1366 0
	addi 10,29,2
	.loc 1 1367 0
	addi 0,29,3
	.loc 1 1360 0
	slwi 23,29,2
.LVL235:
	.loc 1 1362 0
	slwi 5,21,2
	.loc 1 1366 0
	slwi 10,10,2
	.loc 1 1367 0
	slwi 0,0,2
	.loc 1 1252 0
	add 11,4,8
	.loc 1 1360 0
	stwx 24,25,23
	.loc 1 1367 0
	addi 29,29,4
	.loc 1 1362 0
	stwx 3,25,5
.LVL236:
	.loc 1 1367 0
	li 23,4
	.loc 1 1366 0
	stwx 8,25,10
.LVL237:
	.loc 1 1367 0
	stwx 11,25,0
.LVL238:
.L201:
	.loc 1 1371 0
	lwz 0,8(17)
	slwi 15,29,2
	.loc 1 1372 0
	addi 10,29,1
	.loc 1 1371 0
	mr 5,9
	divw 14,9,0
	.loc 1 1372 0
	slwi 10,10,2
	addi 29,29,2
.LVL239:
	li 11,1
	.loc 1 1371 0
	mullw 0,14,0
	subf 0,0,9
	add 0,0,6
	stwx 0,25,15
.LVL240:
	.loc 1 1372 0
	lwz 0,8(17)
	divw 15,9,0
	mullw 0,15,0
	subf 0,0,9
	add 0,0,16
	stwx 0,25,10
	lwz 10,16(31)
.LVL241:
.L202:
	.loc 1 1343 0
	cmpw 7,10,5
	.loc 1 1379 0
	addi 9,9,1
.LVL242:
	addi 8,8,1
	.loc 1 1343 0
	ble- 7,.L226
.LVL243:
.L203:
	.loc 1 1348 0
	lwzu 5,4(7)
	cmpwi 7,5,0
	beq- 7,.L198
	.loc 1 1349 0
	lwz 5,16(5)
	lwz 0,16(17)
	cmpw 7,5,0
	bne+ 7,.L198
	.loc 1 1377 0
	cmpwi 7,11,0
	mr 5,9
	beq- 7,.L202
	.loc 1 1379 0
	slwi 0,21,2
	mr 5,9
	stwx 23,25,0
	.loc 1 1346 0
	li 11,0
.LVL244:
	.loc 1 1379 0
	addi 9,9,1
.LVL245:
	addi 8,8,1
	lwz 10,16(31)
	.loc 1 1343 0
	cmpw 7,10,5
	bgt+ 7,.L203
.LVL246:
.L226:
	.loc 1 1385 0
	cmpwi 7,11,0
	beq- 7,.L197
	.loc 1 1387 0
	slwi 0,21,2
	stwx 23,25,0
.L197:
	.loc 1 1390 0
	lis 0,0x2
	cmpw 7,29,0
	bgt- 7,.L227
	.loc 1 1405 0
	lwz 9,4(31)
	.loc 1 1410 0
	lis 0,0x4330
	.loc 1 1407 0
	lwz 3,0(27)
	.loc 1 1410 0
	addi 8,1,48
	.loc 1 1407 0
	lfs 0,4(9)
	lfs 13,4(3)
	lfs 12,0(3)
	fmuls 0,13,0
	lfs 13,0(9)
	lfs 11,8(3)
	.loc 1 1397 0
	lwz 24,48(31)
	.loc 1 1407 0
	fmadds 12,12,13,0
	lfs 13,8(9)
.LVL247:
	lfs 0,12(9)
	.loc 1 1398 0
	addi 5,24,16
.LVL248:
	.loc 1 1410 0
	stw 0,40(1)
	.loc 1 1407 0
	fmadds 13,11,13,12
	fsubs 0,13,0
	.loc 1 1410 0
	lfs 13,.LC3@l(18)
	fctiwz 0,0
	stfiwx 0,0,8
	lwz 0,48(1)
	srawi 9,0,31
	xor 0,9,0
	subf 0,9,0
	xoris 0,0,0x8000
	stw 0,44(1)
	lfd 30,40(1)
	.loc 1 1412 0
	lfs 0,36(3)
	.loc 1 1410 0
	fsub 30,30,13
	frsp 30,30
.LVL249:
	.loc 1 1412 0
	fcmpu 7,0,30
	blt- 7,.L228
.LVL250:
.L205:
	.loc 1 1413 0
	mr 4,24
	addi 6,1,8
	bl ProjectPlane
	.loc 1 1415 0
	lwz 10,0(27)
	lfs 13,.LC0@l(20)
	lfs 12,36(10)
	lfs 11,.LC27@l(19)
	.loc 1 1416 0
	fdivs 0,30,12
	fsubs 0,13,0
	.loc 1 1415 0
	fmsubs 12,12,11,30
	.loc 1 1418 0
	fcmpu 7,0,31
	.loc 1 1415 0
	fdivs 11,13,12
.LVL251:
	.loc 1 1418 0
	bnl- 7,.L207
	lis 8,.LC5@ha
	lfs 0,.LC5@l(8)
.LVL252:
.L207:
	.loc 1 1420 0
	addi 0,22,1
	slwi 9,22,2
	.loc 1 1422 0
	slwi 0,0,2
	.loc 1 1420 0
	li 11,6
	stwx 11,26,9
	.loc 1 1423 0
	addi 9,22,3
	.loc 1 1422 0
	stwx 31,26,0
.LVL253:
	addi 0,22,2
	.loc 1 1423 0
	slwi 0,0,2
	.loc 1 1424 0
	slwi 9,9,2
	.loc 1 1423 0
	lfs 13,24(10)
	.loc 1 1424 0
	addi 7,22,4
	.loc 1 1425 0
	slwi 7,7,2
	.loc 1 1429 0
	lis 8,globalVertexTable@ha
	.loc 1 1423 0
	fmuls 13,13,0
	.loc 1 1426 0
	addi 11,22,6
	.loc 1 1423 0
	stfsx 13,26,0
.LVL254:
	.loc 1 1425 0
	addi 0,22,5
	.loc 1 1426 0
	slwi 0,0,2
	.loc 1 1424 0
	lfs 13,28(10)
	fmuls 13,13,0
	stfsx 13,26,9
	.loc 1 1429 0
	lwz 9,globalVertexTable@l(8)
	.loc 1 1425 0
	lfs 13,32(10)
	fmuls 13,13,0
	stfsx 13,26,7
.LVL255:
	.loc 1 1426 0
	stfsx 0,26,0
	.loc 1 1430 0
	lwz 5,8(17)
	.loc 1 1429 0
	lwz 8,36(31)
	.loc 1 1430 0
	cmpwi 7,5,0
	.loc 1 1429 0
	lwz 0,24(8)
.LVL256:
	.loc 1 1430 0
	ble- 7,.L219
	.loc 1 1429 0
	mulli 0,0,28
	.loc 1 1436 0
	lis 8,.LC28@ha
	.loc 1 1252 0
	mulli 6,5,28
	.loc 1 1429 0
	lfs 3,8(1)
	add 9,9,0
	lfs 4,12(1)
	lfs 5,16(1)
	.loc 1 1252 0
	add 6,9,6
	.loc 1 1436 0
	lfs 10,.LC28@l(8)
	b .L211
.LVL257:
.L230:
.LBB116:
	.loc 1 1446 0
	fnmadds 9,0,8,9
.LVL258:
.L210:
	.loc 1 1452 0
	lfs 7,4(24)
.LBE116:
	.loc 1 1430 0
	addi 9,9,28
.LBB117:
	.loc 1 1451 0
	lfs 8,20(24)
.LBE117:
	.loc 1 1430 0
	cmpw 7,9,6
.LBB118:
	.loc 1 1451 0
	lfs 6,16(24)
	.loc 1 1252 0
	addi 7,11,2
	.loc 1 1451 0
	fmuls 8,12,8
	.loc 1 1252 0
	addi 8,11,3
	.loc 1 1452 0
	fmuls 12,12,7
.LVL259:
	lfs 7,0(24)
	.loc 1 1252 0
	addi 0,11,4
	.loc 1 1453 0
	slwi 7,7,2
	.loc 1 1451 0
	fmadds 8,13,6,8
	.loc 1 1454 0
	slwi 8,8,2
	.loc 1 1452 0
	fmadds 13,13,7,12
.LVL260:
	.loc 1 1451 0
	lfs 7,24(24)
	.loc 1 1452 0
	lfs 12,8(24)
	.loc 1 1455 0
	slwi 0,0,2
	.loc 1 1451 0
	fnmadds 8,0,7,8
.LVL261:
	.loc 1 1455 0
	addi 11,11,5
.LVL262:
	.loc 1 1452 0
	fmadds 0,0,12,13
.LVL263:
	.loc 1 1453 0
	stfsx 0,26,7
.LVL264:
	.loc 1 1454 0
	stfsx 8,26,8
.LVL265:
	.loc 1 1455 0
	stfsx 9,26,0
.LBE118:
	.loc 1 1430 0
	beq- 7,.L229
.LVL266:
.L211:
	.loc 1 1433 0
	lfs 12,4(9)
	.loc 1 1436 0
	slwi 8,11,2
	.loc 1 1433 0
	lfs 13,0(9)
	.loc 1 1252 0
	addi 0,11,1
	.loc 1 1433 0
	fsubs 12,12,4
	.loc 1 1436 0
	lfs 9,4(24)
	.loc 1 1433 0
	fsubs 13,13,3
.LVL267:
	.loc 1 1436 0
	lfs 8,0(24)
	.loc 1 1433 0
	lfs 0,8(9)
	.loc 1 1437 0
	slwi 0,0,2
	.loc 1 1436 0
	fmuls 9,12,9
	.loc 1 1433 0
	fsubs 0,0,5
.LVL268:
	.loc 1 1436 0
	fmadds 9,13,8,9
	lfs 8,8(24)
	fmadds 9,0,8,9
	fmadds 9,9,11,10
	stfsx 9,26,8
.LVL269:
	.loc 1 1437 0
	lfs 9,20(24)
	lfs 8,16(24)
	fmuls 12,12,9
.LVL270:
	lfs 9,24(24)
	fmadds 13,13,8,12
.LVL271:
	fmadds 0,0,9,13
.LVL272:
	fmadds 0,0,11,10
	stfsx 0,26,0
.LVL273:
.LBB119:
	.loc 1 1445 0
	lwz 0,8(31)
	.loc 1 1443 0
	lfs 8,4(10)
	lfs 12,4(9)
	.loc 1 1445 0
	andi. 8,0,2
	.loc 1 1443 0
	lfs 9,8(10)
	.loc 1 1446 0
	lwz 8,4(31)
	.loc 1 1443 0
	fsubs 12,8,12
	lfs 0,8(9)
	lfs 7,0(10)
	lfs 13,0(9)
	fsubs 0,9,0
	.loc 1 1446 0
	lfs 9,4(8)
	.loc 1 1443 0
	fsubs 13,7,13
.LVL274:
	.loc 1 1446 0
	lfs 7,0(8)
	fmuls 9,12,9
	lfs 8,8(8)
	fmadds 9,13,7,9
	.loc 1 1445 0
	bne- 0,.L230
	.loc 1 1448 0
	fmadds 9,0,8,9
.LVL275:
	b .L210
.LVL276:
.L229:
.LBE119:
	.loc 1 1252 0
	mulli 5,5,5
	.loc 1 1458 0
	lis 0,0x1
	.loc 1 1252 0
	add 22,22,5
	addi 22,22,6
	.loc 1 1458 0
	cmpw 7,22,0
	bgt- 7,.L231
.LVL277:
.L212:
	.loc 1 1463 0
	lwz 31,44(31)
.LVL278:
.L188:
	.loc 1 1280 0 discriminator 1
	cmpwi 7,31,0
	bne+ 7,.L213
	.loc 1 1280 0 is_stmt 0
	addi 9,22,1
	addi 0,29,1
.LVL279:
.L186:
	.loc 1 1468 0 is_stmt 1
	li 11,0
	slwi 22,22,2
	.loc 1 1469 0
	slwi 29,29,2
	.loc 1 1468 0
	stwx 11,26,22
.LVL280:
	.loc 1 1469 0
	stwx 11,25,29
.LVL281:
	.loc 1 1471 0
	lis 11,numLightCmds@ha
	stw 9,numLightCmds@l(11)
	.loc 1 1472 0
	lis 9,numVolumeCmds@ha
.LVL282:
	stw 0,numVolumeCmds@l(9)
	.loc 1 1473 0
	lis 9,numVolumeVerts@ha
	.loc 1 1474 0
	lwz 0,164(1)
.LVL283:
	lwz 14,72(1)
	mtlr 0
	lwz 15,76(1)
	lwz 16,80(1)
	lwz 17,84(1)
	lwz 18,88(1)
	lwz 19,92(1)
	lwz 20,96(1)
	lwz 21,100(1)
	lwz 22,104(1)
	lwz 23,108(1)
	lwz 24,112(1)
	lwz 25,116(1)
	lwz 26,120(1)
	lwz 27,124(1)
	lwz 28,128(1)
	lwz 29,132(1)
	lwz 31,140(1)
.LVL284:
	lfd 30,144(1)
	lfd 31,152(1)
	.loc 1 1473 0
	stw 30,numVolumeVerts@l(9)
	.loc 1 1474 0
	lwz 30,136(1)
.LVL285:
	addi 1,1,160
	.cfi_remember_state
.LCFI42:
	.cfi_def_cfa_offset 0
	.cfi_restore 63
	.cfi_restore 62
	.cfi_restore 31
	.cfi_restore 30
	.cfi_restore 29
	.cfi_restore 28
	.cfi_restore 27
	.cfi_restore 26
	.cfi_restore 25
	.cfi_restore 24
	.cfi_restore 23
	.cfi_restore 22
	.cfi_restore 21
	.cfi_restore 20
	.cfi_restore 19
	.cfi_restore 18
	.cfi_restore 17
	.cfi_restore 16
	.cfi_restore 15
	.cfi_restore 14
	blr
.LVL286:
.L224:
.LCFI43:
	.cfi_restore_state
	.loc 1 1287 0
	lis 11,.LC30@ha
	.loc 1 1286 0
	lwz 31,44(31)
.LVL287:
	.loc 1 1287 0
	lwz 3,.LC30@l(11)
	crxor 6,6,6
	bl Con_Printf
	.loc 1 1288 0
	b .L188
.LVL288:
.L228:
	.loc 1 1412 0 discriminator 1
	lis 11,.LC31@ha
	stw 5,64(1)
	lwz 3,.LC31@l(11)
	crxor 6,6,6
	bl Con_Printf
.LVL289:
	lwz 3,0(27)
	lwz 5,64(1)
	b .L205
.LVL290:
.L219:
	.loc 1 1426 0
	mr 22,11
	.loc 1 1458 0
	lis 0,0x1
.LVL291:
	cmpw 7,22,0
	ble+ 7,.L212
.LVL292:
.L231:
	.loc 1 1459 0
	lis 3,.LC29@ha
	mr 4,22
	la 3,.LC29@l(3)
	crxor 6,6,6
	bl Con_Printf
.LVL293:
	addi 9,22,1
	addi 0,29,1
	.loc 1 1460 0
	b .L186
.LVL294:
.L227:
	.loc 1 1391 0
	lis 3,.LC25@ha
	mr 4,29
	la 3,.LC25@l(3)
	crxor 6,6,6
	bl Con_Printf
	addi 9,22,1
	addi 0,29,1
	.loc 1 1392 0
	b .L186
.LVL295:
.L195:
	.loc 1 1334 0
	lis 3,.LC24@ha
	mr 4,29
	la 3,.LC24@l(3)
	crxor 6,6,6
	bl Con_Printf
	addi 9,22,1
	addi 0,29,1
	.loc 1 1335 0
	b .L186
.LVL296:
.L215:
	lis 25,volumeCmdsBuff@ha
	lis 26,lightCmdsBuff@ha
	.loc 1 1280 0
	li 0,1
	li 29,0
	li 9,1
	li 22,0
	.loc 1 1260 0
	li 30,0
	la 25,volumeCmdsBuff@l(25)
	la 26,lightCmdsBuff@l(26)
	b .L186
	.cfi_endproc
.LFE59:
	.size	PrecalcVolumesForLight, .-PrecalcVolumesForLight
	.align 2
	.globl R_ConstructShadowVolume
	.type	R_ConstructShadowVolume, @function
R_ConstructShadowVolume:
.LFB54:
	.loc 1 822 0
	.cfi_startproc
.LVL297:
	mflr 0
	stwu 1,-16(1)
.LCFI44:
	.cfi_def_cfa_offset 16
	.cfi_register 65, 0
	stw 30,8(1)
	mr 30,3
	.cfi_offset 30, -8
	stw 0,20(1)
	stw 31,12(1)
	.loc 1 824 0
	lbz 0,45(3)
	.cfi_offset 31, -4
	.cfi_offset 65, 4
	cmpwi 7,0,0
	beq- 7,.L233
	lwz 4,2108(3)
.LVL298:
.L234:
	.loc 1 833 0
	lis 9,gl_var@ha
	.loc 1 831 0
	lis 31,VolumeVertsPointer@ha
	.loc 1 833 0
	lbz 0,gl_var@l(9)
	.loc 1 831 0
	stw 4,VolumeVertsPointer@l(31)
	.loc 1 833 0
	cmpwi 7,0,0
	beq- 7,.L232
	.loc 1 834 0
	lwz 5,2112(30)
	cmpwi 7,5,2047
	ble- 7,.L236
.L232:
	.loc 1 839 0
	lwz 0,20(1)
	lwz 30,8(1)
.LVL299:
	mtlr 0
	lwz 31,12(1)
	addi 1,1,16
	.cfi_remember_state
.LCFI45:
	.cfi_def_cfa_offset 0
	.cfi_restore 31
	.cfi_restore 30
	blr
.LVL300:
.L236:
.LCFI46:
	.cfi_restore_state
	.loc 1 835 0
	lis 30,AGP_Buffer@ha
.LVL301:
	slwi 5,5,2
	lwz 3,AGP_Buffer@l(30)
	bl memcpy
	.loc 1 836 0
	lwz 0,AGP_Buffer@l(30)
	.loc 1 839 0
	lwz 30,8(1)
	.loc 1 836 0
	stw 0,VolumeVertsPointer@l(31)
	.loc 1 839 0
	lwz 0,20(1)
	lwz 31,12(1)
	mtlr 0
	addi 1,1,16
	.cfi_remember_state
	.cfi_restore 30
	.cfi_restore 31
.LCFI47:
	.cfi_def_cfa_offset 0
	blr
.LVL302:
.L233:
.LCFI48:
	.cfi_restore_state
	.loc 1 825 0
	lis 9,cl+2688@ha
	lwz 3,cl+2688@l(9)
.LVL303:
	bl PrecalcVolumesForLight
	.loc 1 826 0
	lis 9,volumeCmdsBuff@ha
	la 0,volumeCmdsBuff@l(9)
	.loc 1 827 0
	lis 4,volumeVertsBuff@ha
	.loc 1 828 0
	lis 9,lightCmdsBuff@ha
	.loc 1 827 0
	la 4,volumeVertsBuff@l(4)
	.loc 1 826 0
	stw 0,2104(30)
	.loc 1 828 0
	la 0,lightCmdsBuff@l(9)
	.loc 1 827 0
	stw 4,2108(30)
	.loc 1 828 0
	stw 0,2116(30)
	b .L234
	.cfi_endproc
.LFE54:
	.size	R_ConstructShadowVolume, .-R_ConstructShadowVolume
	.align 2
	.globl DrawVolumeFromCmds
	.type	DrawVolumeFromCmds, @function
DrawVolumeFromCmds:
.LFB60:
	.loc 1 1482 0
	.cfi_startproc
.LVL304:
	mflr 0
	stwu 1,-40(1)
.LCFI49:
	.cfi_def_cfa_offset 40
	.cfi_register 65, 0
	stw 26,16(1)
	stw 0,44(1)
	stw 28,24(1)
	stw 29,28(1)
	stw 24,8(1)
	lis 24,wgPipe@ha
	.cfi_offset 24, -32
	.cfi_offset 29, -12
	.cfi_offset 28, -16
	.cfi_offset 65, 4
	.cfi_offset 26, -24
	stw 25,12(1)
	mr 25,4
	.cfi_offset 25, -28
	stw 27,20(1)
	mr 27,3
	.cfi_offset 27, -20
	stw 30,32(1)
	.loc 1 1485 0
	li 30,0
	.cfi_offset 30, -8
	.loc 1 1482 0
	stw 31,36(1)
	.loc 1 1482 0
	mr 31,5
	.cfi_offset 31, -4
.LVL305:
.L253:
	.loc 1 1495 0
	slwi 0,30,2
	lwzx 29,27,0
.LVL306:
	.loc 1 1496 0
	cmpwi 7,29,0
	beq- 7,.L239
.LVL307:
.L255:
	.loc 1 1497 0
	addi 26,30,1
	.loc 1 1502 0
	mr 3,29
	.loc 1 1497 0
	slwi 26,26,2
	.loc 1 1504 0
	addi 29,29,-7
.LVL308:
	.loc 1 1497 0
	lwzx 28,27,26
.LVL309:
	.loc 1 1502 0
	bl GX_AsGXPrimitiveType
.LVL310:
	rlwinm 3,3,0,0xff
	li 4,3
	rlwinm 5,28,0,0xffff
	.loc 1 1497 0
	add 26,27,26
	.loc 1 1502 0
	bl GX_Begin
	.loc 1 1504 0
	cmplwi 7,29,1
	.loc 1 1497 0
	addi 0,30,2
.LVL311:
	.loc 1 1504 0
	ble- 7,.L240
.LVL312:
	.loc 1 1512 0 discriminator 1
	cmpwi 7,28,0
	ble- 7,.L249
.LBB120:
.LBB121:
.LBB122:
	.loc 2 2123 0
	lwz 9,wgPipe@l(24)
	mtctr 28
.LBE122:
.LBE121:
.LBE120:
	.loc 1 1482 0
	li 10,0
.LVL313:
.L244:
.LBB125:
	.loc 1 1514 0 discriminator 2
	lwzu 11,4(26)
.LVL314:
	mulli 11,11,12
	.loc 1 1515 0 discriminator 2
	lwzx 7,31,11
	.loc 1 1514 0 discriminator 2
	add 11,31,11
.LVL315:
	.loc 1 1515 0 discriminator 2
	lwz 8,4(11)
	lwz 0,8(11)
.LVL316:
.LBB124:
.LBB123:
	.loc 2 2123 0 discriminator 2
	stw 7,0(9)
	.loc 2 2124 0 discriminator 2
	.loc 2 2125 0 discriminator 2
	stw 8,0(9)
	.loc 2 2126 0 discriminator 2
	.loc 2 2127 0 discriminator 2
	stw 0,0(9)
	.loc 2 2128 0 discriminator 2
.LBE123:
.LBE124:
.LBE125:
	.loc 1 1512 0 discriminator 2
	addi 10,10,1
.LVL317:
	bdnz .L244
	.loc 1 1482 0
	add 30,30,10
	addi 30,30,2
.LVL318:
.L258:
	.loc 1 1495 0
	slwi 0,30,2
	lwzx 29,27,0
.LVL319:
	.loc 1 1496 0
	cmpwi 7,29,0
	bne+ 7,.L255
.LVL320:
.L239:
	.loc 1 1548 0
	lis 9,sh_visiblevolumes+12@ha
	lfs 13,sh_visiblevolumes+12@l(9)
	lis 9,.LC5@ha
	lfs 0,.LC5@l(9)
	fcmpu 7,13,0
	bne- 7,.L237
	li 31,0
.LVL321:
	.loc 1 1562 0
	lis 27,globalVertexTable@ha
.LVL322:
	.loc 1 1552 0
	slwi 0,31,2
	lis 26,wgPipe@ha
.LVL323:
	lwzx 3,25,0
.LVL324:
	.loc 1 1553 0
	cmpwi 7,3,0
	beq- 7,.L237
.LVL325:
.L257:
	.loc 1 1555 0
	addi 0,31,1
	.loc 1 1556 0
	addi 28,31,6
	.loc 1 1555 0
	slwi 0,0,2
	lwzx 29,25,0
.LVL326:
	.loc 1 1557 0
	lwz 9,36(29)
	lwz 30,8(9)
.LVL327:
	.loc 1 1559 0
	bl GX_AsGXPrimitiveType
.LVL328:
	rlwinm 3,3,0,0xff
	li 4,3
	rlwinm 5,30,0,0xffff
	bl GX_Begin
	.loc 1 1563 0
	cmpwi 7,30,0
	.loc 1 1562 0
	lwz 9,36(29)
	lwz 0,globalVertexTable@l(27)
	lwz 9,24(9)
.LVL329:
	.loc 1 1563 0
	bgt- 7,.L256
	.loc 1 1548 0
	mr 31,28
.LVL330:
.L259:
	.loc 1 1552 0
	slwi 0,31,2
	lwzx 3,25,0
.LVL331:
	.loc 1 1553 0
	cmpwi 7,3,0
	bne+ 7,.L257
.LVL332:
.L237:
	.loc 1 1574 0
	lwz 0,44(1)
	lwz 24,8(1)
	mtlr 0
	lwz 25,12(1)
.LVL333:
	lwz 26,16(1)
	lwz 27,20(1)
	lwz 28,24(1)
	lwz 29,28(1)
	lwz 30,32(1)
	lwz 31,36(1)
	addi 1,1,40
	.cfi_remember_state
.LCFI50:
	.cfi_def_cfa_offset 0
	.cfi_restore 31
	.cfi_restore 30
	.cfi_restore 29
	.cfi_restore 28
	.cfi_restore 27
	.cfi_restore 26
	.cfi_restore 25
	.cfi_restore 24
	blr
.LVL334:
.L240:
.LCFI51:
	.cfi_restore_state
	.loc 1 1505 0 discriminator 1
	cmpwi 7,28,0
	ble- 7,.L249
.LBB126:
.LBB127:
.LBB128:
	.loc 2 2123 0
	lwz 9,wgPipe@l(24)
	mtctr 28
.LBE128:
.LBE127:
.LBE126:
	.loc 1 1482 0
	li 10,0
.LVL335:
.L243:
.LBB131:
	.loc 1 1507 0 discriminator 2
	lwzu 11,4(26)
.LVL336:
	mulli 11,11,12
	.loc 1 1508 0 discriminator 2
	lwzx 7,31,11
	.loc 1 1507 0 discriminator 2
	add 11,31,11
.LVL337:
	.loc 1 1508 0 discriminator 2
	lwz 8,4(11)
	lwz 0,8(11)
.LVL338:
.LBB130:
.LBB129:
	.loc 2 2123 0 discriminator 2
	stw 7,0(9)
	.loc 2 2124 0 discriminator 2
	.loc 2 2125 0 discriminator 2
	stw 8,0(9)
	.loc 2 2126 0 discriminator 2
	.loc 2 2127 0 discriminator 2
	stw 0,0(9)
	.loc 2 2128 0 discriminator 2
.LBE129:
.LBE130:
.LBE131:
	.loc 1 1505 0 discriminator 2
	addi 10,10,1
.LVL339:
	bdnz .L243
	.loc 1 1482 0
	add 30,30,10
	addi 30,30,2
	b .L258
.LVL340:
.L256:
	.loc 1 1562 0
	mulli 9,9,28
.LVL341:
.LBB132:
.LBB133:
	.loc 2 2123 0
	lwz 11,wgPipe@l(26)
.LBE133:
.LBE132:
	.loc 1 1482 0
	mulli 7,30,28
	.loc 1 1562 0
	add 9,0,9
	.loc 1 1482 0
	add 7,9,7
.LVL342:
.L247:
	.loc 1 1569 0 discriminator 2
	lwz 8,0(9)
	lwz 10,4(9)
	lwz 0,8(9)
.LVL343:
.LBB135:
.LBB134:
	.loc 2 2123 0 discriminator 2
	stw 8,0(11)
	.loc 2 2124 0 discriminator 2
	.loc 2 2125 0 discriminator 2
	stw 10,0(11)
	.loc 2 2126 0 discriminator 2
	.loc 2 2127 0 discriminator 2
	stw 0,0(11)
	.loc 2 2128 0 discriminator 2
.LBE134:
.LBE135:
	.loc 1 1563 0 discriminator 2
	addi 9,9,28
.LVL344:
	cmpw 7,9,7
	bne- 7,.L247
	.loc 1 1482 0
	mulli 30,30,5
.LVL345:
	add 31,31,30
	addi 28,31,6
	.loc 1 1548 0
	mr 31,28
	b .L259
.LVL346:
.L249:
	.loc 1 1505 0
	mr 30,0
	b .L253
	.cfi_endproc
.LFE60:
	.size	DrawVolumeFromCmds, .-DrawVolumeFromCmds
	.align 2
	.globl R_DrawShadowVolume
	.type	R_DrawShadowVolume, @function
R_DrawShadowVolume:
.LFB55:
	.loc 1 850 0
	.cfi_startproc
.LVL347:
	.loc 1 850 0
	mr 9,3
	.loc 1 861 0
	lwz 3,2104(3)
.LVL348:
	lwz 4,2116(9)
	lis 9,VolumeVertsPointer@ha
.LVL349:
	lwz 5,VolumeVertsPointer@l(9)
	.loc 1 866 0
	.loc 1 861 0
	b DrawVolumeFromCmds
	.cfi_endproc
.LFE55:
	.size	R_DrawShadowVolume, .-R_DrawShadowVolume
	.align 2
	.globl R_RenderGlow
	.type	R_RenderGlow, @function
R_RenderGlow:
.LFB61:
	.loc 1 1594 0
	.cfi_startproc
.LVL350:
	mflr 0
	stwu 1,-128(1)
.LCFI52:
	.cfi_def_cfa_offset 128
	.cfi_register 65, 0
	.loc 1 1595 0
	lis 9,.LC5@ha
	.loc 1 1594 0
	stfd 31,120(1)
	stw 0,132(1)
	.loc 1 1595 0
	lfs 31,.LC5@l(9)
	.cfi_offset 65, 4
	.cfi_offset 63, -8
	.loc 1 1601 0
	lbz 0,47(3)
	.loc 1 1594 0
	stw 31,108(1)
	mr 31,3
	.cfi_offset 31, -20
	.loc 1 1601 0
	cmpwi 7,0,0
	.loc 1 1594 0
	stfd 30,112(1)
	stw 30,104(1)
	.loc 1 1595 0
	stfs 31,40(1)
	stfs 31,44(1)
	stfs 31,48(1)
	.loc 1 1601 0
	beq- 7,.L261
	.cfi_offset 30, -24
	.cfi_offset 62, -16
	.loc 1 1601 0 is_stmt 0 discriminator 1
	lis 9,gl_wireframe+12@ha
	lfs 0,gl_wireframe+12@l(9)
	fcmpu 7,0,31
	beq- 7,.L268
.LVL351:
.L261:
	.loc 1 1705 0 is_stmt 1
	lwz 0,132(1)
	lwz 30,104(1)
	mtlr 0
	lwz 31,108(1)
.LVL352:
	lfd 30,112(1)
	lfd 31,120(1)
	addi 1,1,128
	.cfi_remember_state
.LCFI53:
	.cfi_def_cfa_offset 0
	.cfi_restore 63
	.cfi_restore 62
	.cfi_restore 31
	.cfi_restore 30
	blr
.LVL353:
.L268:
.LCFI54:
	.cfi_restore_state
	.loc 1 1605 0
	mr 4,3
	lis 3,r_refdef+112@ha
.LVL354:
	addi 5,1,40
	la 3,r_refdef+112@l(3)
	bl TraceLine
	.loc 1 1608 0
	addi 3,1,40
	bl Length
	fcmpu 7,1,31
	beq- 7,.L263
	.loc 1 1609 0
	lis 9,cl@ha
	la 9,cl@l(9)
	lfd 13,568(9)
	lfd 0,576(9)
	lis 9,.LC27@ha
	lfs 12,.LC27@l(9)
	fsub 0,13,0
	lfs 13,2176(31)
	.loc 1 1593 0
	fneg 0,0
	.loc 1 1609 0
	fmadd 0,0,12,13
	frsp 0,0
	.loc 1 1610 0
	fcmpu 7,0,31
	.loc 1 1609 0
	stfs 0,2176(31)
	.loc 1 1610 0
	blt- 7,.L261
.LVL355:
	.loc 1 1623 0
	lfs 1,0(31)
	lis 3,r_Dworld_matrix@ha
	lfs 2,4(31)
	lis 4,r_Dproject_matrix@ha
	lfs 3,8(31)
	lis 5,r_Iviewport@ha
	la 3,r_Dworld_matrix@l(3)
	la 4,r_Dproject_matrix@l(4)
	la 5,r_Iviewport@l(5)
	addi 6,1,32
	addi 7,1,24
	addi 8,1,16
	bl gluProject
	lis 30,.LC0@ha
.LVL356:
.L264:
	.loc 1 1643 0
	lis 9,glheight@ha
	lis 0,0x4330
	lwz 11,glheight@l(9)
	.loc 1 1645 0
	lis 9,glwidth@ha
	lwz 9,glwidth@l(9)
	.loc 1 1643 0
	xoris 11,11,0x8000
	stw 0,56(1)
	.loc 1 1645 0
	xoris 9,9,0x8000
	stw 0,64(1)
	stw 9,68(1)
	.loc 1 1643 0
	lis 9,.LC3@ha
	stw 11,60(1)
	lfs 13,.LC3@l(9)
	.loc 1 1645 0
	lis 9,vid@ha
	lfd 12,64(1)
	la 9,vid@l(9)
	.loc 1 1643 0
	lfd 0,56(1)
	lfd 11,24(1)
	fsub 0,0,13
	.loc 1 1645 0
	lwz 11,20(9)
	fsub 13,12,13
	.loc 1 1646 0
	lwz 9,24(9)
	.loc 1 1645 0
	stw 0,72(1)
	.loc 1 1646 0
	frsp 12,0
	stw 0,88(1)
	.loc 1 1643 0
	fsub 0,0,11
.LVL357:
	.loc 1 1645 0
	lfd 11,32(1)
	frsp 13,13
	stw 11,76(1)
	.loc 1 1646 0
	stw 9,92(1)
	.loc 1 1645 0
	lis 9,.LC34@ha
	.loc 1 1646 0
	fdiv 12,0,12
.LVL358:
	.loc 1 1645 0
	lfs 0,.LC34@l(9)
.LVL359:
	.loc 1 1646 0
	lfd 10,88(1)
	.loc 1 1649 0
	lis 9,halo_texture_object@ha
	lwz 3,halo_texture_object@l(9)
	.loc 1 1645 0
	fdiv 13,11,13
	lfd 11,72(1)
	fsub 11,11,0
	.loc 1 1646 0
	fsub 0,10,0
	.loc 1 1645 0
	fmul 13,13,11
	.loc 1 1646 0
	fmul 0,12,0
	.loc 1 1645 0
	stfd 13,32(1)
	.loc 1 1646 0
	stfd 0,24(1)
.LVL360:
	.loc 1 1649 0
	bl GL_Bind
.LVL361:
	.loc 1 1650 0
	lis 9,.LC35@ha
	li 4,8704
	lfs 1,.LC35@l(9)
	li 3,8960
	bl glTexEnvf
	.loc 1 1651 0
	li 3,7425
	bl glShadeModel
	.loc 1 1652 0
	li 3,3042
	bl glEnable
	.loc 1 1653 0
	li 4,1
	li 3,770
	bl glBlendFunc
	.loc 1 1654 0
	li 3,3008
	bl glDisable
	.loc 1 1658 0
	li 3,7
	bl glBegin
	.loc 1 1660 0
	lis 9,.LC36@ha
	lfd 0,.LC36@l(9)
	lfs 4,2176(31)
	lfs 3,32(31)
	fmul 4,4,0
	lfs 1,24(31)
	lfs 2,28(31)
	frsp 4,4
	bl glColor4f
	.loc 1 1662 0
	lis 9,.LC5@ha
	lfs 1,.LC5@l(9)
	fmr 2,1
	bl glTexCoord2f
	.loc 1 1663 0
	lis 9,.LC38@ha
	lfs 30,.LC38@l(9)
	lfd 1,32(1)
	lfd 2,24(1)
	fsub 1,1,30
	fsub 2,2,30
	frsp 1,1
	frsp 2,2
	bl glVertex2f
	.loc 1 1664 0
	lfs 31,.LC0@l(30)
	lis 9,.LC5@ha
	fmr 1,31
	lfs 2,.LC5@l(9)
	bl glTexCoord2f
	.loc 1 1665 0
	lfd 1,32(1)
	lfd 2,24(1)
	fadd 1,1,30
	fsub 2,2,30
	frsp 1,1
	frsp 2,2
	bl glVertex2f
	.loc 1 1666 0
	fmr 1,31
	fmr 2,31
	bl glTexCoord2f
	.loc 1 1667 0
	lfd 1,32(1)
	lfd 2,24(1)
	fadd 1,1,30
	fadd 2,2,30
	frsp 1,1
	frsp 2,2
	bl glVertex2f
	.loc 1 1668 0
	lis 9,.LC5@ha
	fmr 2,31
	lfs 1,.LC5@l(9)
	bl glTexCoord2f
	.loc 1 1669 0
	lfd 0,24(1)
	lfd 1,32(1)
	fsub 1,1,30
	fadd 30,0,30
	frsp 1,1
	frsp 2,30
	bl glVertex2f
	.loc 1 1671 0
	bl glEnd
	.loc 1 1698 0
	li 3,3008
	bl glEnable
	.loc 1 1699 0
	fmr 1,31
	fmr 2,31
	fmr 3,31
	bl glColor3f
	.loc 1 1700 0
	li 3,3042
	bl glDisable
	.loc 1 1702 0
	li 4,771
	li 3,770
	bl glBlendFunc
	.loc 1 1703 0
	li 3,1
	bl glDepthMask
	.loc 1 1704 0
	fmr 1,31
	fmr 2,31
	fmr 3,31
	bl glColor3f
	.loc 1 1705 0
	lwz 0,132(1)
	lwz 30,104(1)
	mtlr 0
	lwz 31,108(1)
.LVL362:
	lfd 30,112(1)
	lfd 31,120(1)
	addi 1,1,128
	.cfi_remember_state
	.cfi_restore 30
	.cfi_restore 31
	.cfi_restore 62
	.cfi_restore 63
.LCFI55:
	.cfi_def_cfa_offset 0
	blr
.LVL363:
.L263:
.LCFI56:
	.cfi_restore_state
	.loc 1 1623 0
	lfs 1,0(31)
	lis 4,r_Dproject_matrix@ha
	lfs 2,4(31)
	lis 5,r_Iviewport@ha
	lfs 3,8(31)
	lis 3,r_Dworld_matrix@ha
	la 4,r_Dproject_matrix@l(4)
	la 5,r_Iviewport@l(5)
	addi 6,1,32
	addi 7,1,24
	addi 8,1,16
	la 3,r_Dworld_matrix@l(3)
	bl gluProject
.LVL364:
	.loc 1 1630 0
	lfd 13,32(1)
.LVL365:
	lfd 0,24(1)
	addi 9,1,96
	fctiwz 13,13
	li 5,1
	fctiwz 0,0
	li 6,1
	li 7,6402
	li 8,5126
	stfiwx 13,0,9
	addi 9,1,100
	stfiwx 0,0,9
	addi 9,1,8
	lwz 3,96(1)
	lwz 4,100(1)
	bl glReadPixels
.LVL366:
	.loc 1 1631 0
	lfs 13,8(1)
.LVL367:
	lfd 0,16(1)
	fcmpu 7,13,0
	bnl- 7,.L269
	.loc 1 1632 0
	lis 9,cl@ha
	lfs 13,2176(31)
	la 9,cl@l(9)
	lis 30,.LC0@ha
	lfd 0,576(9)
	lfd 12,568(9)
	lis 9,.LC27@ha
	fsub 12,12,0
	lfs 0,.LC27@l(9)
	.loc 1 1593 0
	fneg 12,12
	.loc 1 1632 0
	fmadd 0,12,0,13
	frsp 0,0
	.loc 1 1633 0
	fcmpu 7,0,31
	.loc 1 1632 0
	stfs 0,2176(31)
	.loc 1 1633 0
	bnl+ 7,.L264
	b .L261
.L269:
	.loc 1 1636 0
	lis 30,.LC0@ha
	lwz 0,.LC0@l(30)
	stw 0,2176(31)
	b .L264
	.cfi_endproc
.LFE61:
	.size	R_RenderGlow, .-R_RenderGlow
	.align 2
	.globl CutLeafs
	.type	CutLeafs, @function
CutLeafs:
.LFB62:
	.loc 1 1727 0
	.cfi_startproc
.LVL368:
	.loc 1 1735 0
	lis 9,sh_norevis+12@ha
	.loc 1 1727 0
	mflr 0
	.loc 1 1735 0
	lfs 13,sh_norevis+12@l(9)
	lis 9,.LC5@ha
	lfs 0,.LC5@l(9)
	.loc 1 1727 0
	stwu 1,-48(1)
.LCFI57:
	.cfi_def_cfa_offset 48
	.cfi_register 65, 0
	.loc 1 1735 0
	fcmpu 7,13,0
	.loc 1 1727 0
	stw 27,28(1)
	mr 27,3
	.cfi_offset 27, -20
	stw 0,52(1)
	stw 22,8(1)
	stw 23,12(1)
	stw 24,16(1)
	stw 25,20(1)
	stw 26,24(1)
	stw 28,32(1)
	stw 29,36(1)
	stw 30,40(1)
	stw 31,44(1)
	.loc 1 1735 0
	bne- 7,.L270
	.cfi_offset 31, -4
	.cfi_offset 30, -8
	.cfi_offset 29, -12
	.cfi_offset 28, -16
	.cfi_offset 26, -24
	.cfi_offset 25, -28
	.cfi_offset 24, -32
	.cfi_offset 23, -36
	.cfi_offset 22, -40
	.cfi_offset 65, 4
.LVL369:
	.loc 1 1737 0 discriminator 1
	lis 25,cl@ha
	la 25,cl@l(25)
	lwz 9,2688(25)
	lwz 0,164(9)
	cmpwi 7,0,0
	ble- 7,.L270
	.loc 1 1748 0
	lis 23,.LC39@ha
	.loc 1 1737 0
	li 31,0
	.loc 1 1759 0
	li 22,1
	.loc 1 1751 0
	lis 24,r_lightTimestamp@ha
	.loc 1 1748 0
	la 23,.LC39@l(23)
.LVL370:
.L277:
	.loc 1 1740 0
	srawi 30,31,3
	rlwinm 29,31,0,29,31
	lbzx 0,27,30
	sraw 0,0,29
	andi. 11,0,1
	beq- 0,.L272
	.loc 1 1744 0
	lwz 28,168(9)
	.loc 1 1727 0
	slwi 0,31,6
	.loc 1 1744 0
	add 28,28,0
.LVL371:
	.loc 1 1748 0
	lwz 5,56(28)
	.loc 1 1746 0
	lwz 26,44(28)
.LVL372:
	.loc 1 1748 0
	cmpw 7,5,31
	beq- 7,.L273
	.loc 1 1748 0 is_stmt 0 discriminator 1
	mr 3,23
	mr 4,31
	crxor 6,6,6
	bl Con_Printf
.LVL373:
.L273:
	.loc 1 1750 0 is_stmt 1
	lwz 0,48(28)
	cmpwi 7,0,0
	ble- 7,.L274
	.loc 1 1751 0
	lwz 9,0(26)
	.loc 1 1750 0
	mtctr 0
	.loc 1 1751 0
	lwz 11,r_lightTimestamp@l(24)
	lwz 9,36(9)
	lwz 9,16(9)
	cmpw 7,9,11
	beq- 7,.L272
.LVL374:
.L275:
	.loc 1 1750 0
	bdz .L274
	.loc 1 1751 0
	lwzu 9,4(26)
	lwz 9,36(9)
	lwz 0,16(9)
	cmpw 7,0,11
	bne+ 7,.L275
.LVL375:
.L272:
	.loc 1 1737 0
	lwz 9,2688(25)
	addi 31,31,1
.LVL376:
	lwz 0,164(9)
	cmpw 7,0,31
	bgt+ 7,.L277
.LVL377:
.L270:
	.loc 1 1766 0
	lwz 0,52(1)
	lwz 22,8(1)
	mtlr 0
	lwz 23,12(1)
	lwz 24,16(1)
	lwz 25,20(1)
	lwz 26,24(1)
	lwz 27,28(1)
.LVL378:
	lwz 28,32(1)
	lwz 29,36(1)
	lwz 30,40(1)
	lwz 31,44(1)
	addi 1,1,48
	.cfi_remember_state
.LCFI58:
	.cfi_def_cfa_offset 0
	.cfi_restore 31
	.cfi_restore 30
	.cfi_restore 29
	.cfi_restore 28
	.cfi_restore 27
	.cfi_restore 26
	.cfi_restore 25
	.cfi_restore 24
	.cfi_restore 23
	.cfi_restore 22
	blr
.LVL379:
.L274:
.LCFI59:
	.cfi_restore_state
	.loc 1 1759 0
	lbzx 0,27,30
	slw 29,22,29
	.loc 1 1737 0
	addi 31,31,1
	.loc 1 1759 0
	andc 29,0,29
	stbx 29,27,30
.LVL380:
	.loc 1 1737 0
	lwz 9,2688(25)
	lwz 0,164(9)
	cmpw 7,0,31
	bgt+ 7,.L277
	b .L270
	.cfi_endproc
.LFE62:
	.size	CutLeafs, .-CutLeafs
	.align 2
	.globl AddToShadowBsp
	.type	AddToShadowBsp, @function
AddToShadowBsp:
.LFB63:
	.loc 1 1776 0
	.cfi_startproc
.LVL381:
	mflr 0
	stwu 1,-392(1)
.LCFI60:
	.cfi_def_cfa_offset 392
	.cfi_register 65, 0
	mr 6,3
	stw 0,396(1)
	.loc 1 1824 0
	lwz 5,16(3)
	cmpwi 7,5,32
	bgt- 7,.L286
	.cfi_offset 65, 4
	.loc 1 1832 0
	cmpwi 7,5,0
	lwz 8,36(3)
	.loc 1 1829 0
	li 0,0
	.loc 1 1832 0
	lis 9,globalVertexTable@ha
	.loc 1 1829 0
	stw 0,0(3)
.LVL382:
	.loc 1 1832 0
	lwz 0,globalVertexTable@l(9)
	lwz 9,24(8)
.LVL383:
	ble- 7,.L282
	mulli 9,9,28
	addi 11,1,8
	.loc 1 1776 0
	mulli 10,5,28
	.loc 1 1832 0
	add 9,0,9
	.loc 1 1776 0
	add 10,9,10
.LVL384:
.L283:
	.loc 1 1833 0 discriminator 2
	lwz 0,0(9)
	stw 0,0(11)
	lwz 0,4(9)
	stw 0,4(11)
	lwz 0,8(9)
	.loc 1 1832 0 discriminator 2
	addi 9,9,28
	cmpw 7,9,10
	.loc 1 1833 0 discriminator 2
	stw 0,8(11)
.LVL385:
	.loc 1 1832 0 discriminator 2
	addi 11,11,12
	bne+ 7,.L283
.LVL386:
.L282:
	.loc 1 1836 0
	lis 9,sh_nosvbsp+12@ha
	lfs 13,sh_nosvbsp+12@l(9)
	lis 9,.LC5@ha
	lfs 0,.LC5@l(9)
	fcmpu 7,13,0
	beq- 7,.L287
	.loc 1 1843 0
	lis 9,svBsp_NumKeptPolys@ha
	.loc 1 1840 0
	lis 11,shadowchain@ha
	.loc 1 1843 0
	lwz 5,svBsp_NumKeptPolys@l(9)
	.loc 1 1841 0
	lis 10,r_lightTimestamp@ha
	.loc 1 1840 0
	lwz 7,shadowchain@l(11)
	.loc 1 1843 0
	addi 0,5,1
	.loc 1 1841 0
	lwz 10,r_lightTimestamp@l(10)
	.loc 1 1843 0
	stw 0,svBsp_NumKeptPolys@l(9)
	.loc 1 1845 0
	lwz 0,396(1)
	.loc 1 1840 0
	stw 7,44(6)
	.loc 1 1845 0
	mtlr 0
	.loc 1 1841 0
	stw 10,16(8)
	.loc 1 1842 0
	stw 6,shadowchain@l(11)
	.loc 1 1845 0
	addi 1,1,392
	.cfi_remember_state
.LCFI61:
	.cfi_def_cfa_offset 0
	blr
.LVL387:
.L286:
.LCFI62:
	.cfi_restore_state
	.loc 1 1825 0
	lis 3,.LC40@ha
.LVL388:
	la 3,.LC40@l(3)
	crxor 6,6,6
	bl Con_Printf
.LVL389:
	.loc 1 1845 0
	lwz 0,396(1)
	addi 1,1,392
	.cfi_remember_state
.LCFI63:
	.cfi_def_cfa_offset 0
	mtlr 0
	blr
.LVL390:
.L287:
.LCFI64:
	.cfi_restore_state
	.loc 1 1837 0
	lis 9,svBsp_NumAddedPolys@ha
	.loc 1 1838 0
	lis 10,currentlightroot@ha
	.loc 1 1837 0
	lwz 11,svBsp_NumAddedPolys@l(9)
	.loc 1 1838 0
	addi 4,1,8
	lwz 3,currentlightroot@l(10)
.LVL391:
	li 7,0
	.loc 1 1837 0
	addi 0,11,1
	stw 0,svBsp_NumAddedPolys@l(9)
	.loc 1 1838 0
	bl R_AddShadowCaster
.LVL392:
	.loc 1 1845 0
	lwz 0,396(1)
	addi 1,1,392
.LCFI65:
	.cfi_def_cfa_offset 0
	mtlr 0
	blr
	.cfi_endproc
.LFE63:
	.size	AddToShadowBsp, .-AddToShadowBsp
	.align 2
	.globl R_RecursiveShadowAdd
	.type	R_RecursiveShadowAdd, @function
R_RecursiveShadowAdd:
.LFB64:
	.loc 1 1855 0
	.cfi_startproc
.LVL393:
	mflr 0
	stwu 1,-48(1)
.LCFI66:
	.cfi_def_cfa_offset 48
	.cfi_register 65, 0
	stw 30,32(1)
	mr 30,3
	.cfi_offset 30, -16
	stw 0,52(1)
	stfd 31,40(1)
	.loc 1 1865 0
	lwz 0,0(3)
	.cfi_offset 63, -8
	.cfi_offset 65, 4
	.loc 1 1855 0
	stw 26,16(1)
	.loc 1 1865 0
	cmpwi 7,0,0
	.loc 1 1855 0
	stw 27,20(1)
	stw 28,24(1)
	stw 29,28(1)
	stw 31,36(1)
	.loc 1 1865 0
	blt- 7,.L288
	.cfi_offset 31, -12
	.cfi_offset 29, -20
	.cfi_offset 28, -24
	.cfi_offset 27, -28
	.cfi_offset 26, -32
	lis 9,.LC41@ha
	lis 27,currentshadowlight@ha
	.loc 1 1889 0
	lfd 31,.LC41@l(9)
	la 27,currentshadowlight@l(27)
	.loc 1 1904 0
	lis 26,cl@ha
	.loc 1 1908 0
	lis 29,r_lightTimestamp@ha
.LVL394:
.L298:
	.loc 1 1871 0
	lwz 9,36(30)
.LVL395:
	.loc 1 1873 0
	lbz 0,16(9)
	cmpwi 7,0,1
	beq- 7,.L292
	cmplwi 7,0,1
	bge- 7,.L302
	.loc 1 1876 0
	lwz 11,0(27)
	lfs 0,12(9)
	lfs 13,0(11)
	fsubs 0,13,0
.LVL396:
.L294:
	.loc 1 1889 0
	fcmpu 7,0,31
	cror 30,29,30
	mfcr 28
	rlwinm 28,28,31,1
	.loc 1 1890 0
	xori 28,28,1
.LVL397:
	.loc 1 1895 0
	addi 9,28,8
	slwi 9,9,2
	add 9,30,9
	lwz 3,8(9)
	bl R_RecursiveShadowAdd
.LVL398:
	.loc 1 1899 0
	lhz 0,50(30)
	.loc 1 1901 0
	cmpwi 7,0,0
	.loc 1 1899 0
	stw 0,8(1)
.LVL399:
	.loc 1 1901 0
	beq- 7,.L295
	.loc 1 1904 0
	la 9,cl@l(26)
	lhz 31,48(30)
	lwz 9,2688(9)
	mulli 31,31,92
	lwz 0,208(9)
.LVL400:
	add 31,0,31
.LVL401:
.L297:
	.loc 1 1907 0
	lwz 9,36(31)
	cmpwi 7,9,0
	beq- 7,.L296
	.loc 1 1908 0
	lwz 9,16(9)
	lwz 0,r_lightTimestamp@l(29)
	cmpw 7,9,0
	beq- 7,.L303
.L296:
	.loc 1 1914 0
	lwz 0,8(1)
	.loc 1 1913 0
	addi 31,31,92
.LVL402:
	.loc 1 1914 0
	addic. 9,0,-1
	stw 9,8(1)
	bne+ 0,.L297
.LVL403:
.L295:
	.loc 1 1918 0
	xori 28,28,1
.LVL404:
	addi 28,28,8
.LVL405:
	slwi 28,28,2
.LVL406:
	add 30,30,28
	lwz 30,8(30)
	.loc 1 1865 0
	lwz 0,0(30)
	cmpwi 7,0,0
	bge+ 7,.L298
.LVL407:
.L288:
	.loc 1 1919 0
	lwz 0,52(1)
	lwz 26,16(1)
	mtlr 0
	lwz 27,20(1)
	lwz 28,24(1)
	lwz 29,28(1)
	lwz 30,32(1)
	lwz 31,36(1)
	lfd 31,40(1)
	addi 1,1,48
	.cfi_remember_state
.LCFI67:
	.cfi_def_cfa_offset 0
	.cfi_restore 63
	.cfi_restore 31
	.cfi_restore 30
	.cfi_restore 29
	.cfi_restore 28
	.cfi_restore 27
	.cfi_restore 26
	blr
.LVL408:
.L303:
.LCFI68:
	.cfi_restore_state
	.loc 1 1910 0
	mr 3,31
	bl AddToShadowBsp
	b .L296
.LVL409:
.L302:
	.loc 1 1873 0
	cmpwi 7,0,2
	beq- 7,.L304
	.loc 1 1885 0
	lwz 11,0(27)
	lfs 0,4(9)
	lfs 13,4(11)
	lfs 12,0(11)
	fmuls 13,13,0
	lfs 0,0(9)
	lfs 11,8(11)
	fmadds 12,12,0,13
	lfs 0,8(9)
	lfs 13,12(9)
	fmadds 0,11,0,12
	fsubs 0,0,13
.LVL410:
	.loc 1 1886 0
	b .L294
.LVL411:
.L292:
	.loc 1 1879 0
	lwz 11,0(27)
	lfs 0,12(9)
	lfs 13,4(11)
	fsubs 0,13,0
.LVL412:
	.loc 1 1880 0
	b .L294
.LVL413:
.L304:
	.loc 1 1882 0
	lwz 11,0(27)
	lfs 0,12(9)
	lfs 13,8(11)
	fsubs 0,13,0
.LVL414:
	.loc 1 1883 0
	b .L294
	.cfi_endproc
.LFE64:
	.size	R_RecursiveShadowAdd, .-R_RecursiveShadowAdd
	.align 2
	.globl R_MarkLightLeaves
	.type	R_MarkLightLeaves, @function
R_MarkLightLeaves:
.LFB65:
	.loc 1 1931 0
	.cfi_startproc
	mflr 0
	stwu 1,-4112(1)
.LCFI69:
	.cfi_def_cfa_offset 4112
	.cfi_register 65, 0
	.loc 1 1936 0
	lis 9,r_visframecount@ha
	.loc 1 1937 0
	lis 10,currentshadowlight@ha
	.loc 1 1931 0
	stw 31,4108(1)
	.loc 1 1937 0
	lis 31,cl@ha
	.cfi_offset 31, -4
	.loc 1 1931 0
	stw 0,4116(1)
	.loc 1 1937 0
	la 31,cl@l(31)
	.loc 1 1936 0
	lwz 11,r_visframecount@l(9)
	.loc 1 1937 0
	lwz 3,currentshadowlight@l(10)
	lwz 4,2688(31)
	.loc 1 1936 0
	addi 0,11,1
	.cfi_offset 65, 4
	stw 0,r_visframecount@l(9)
	.loc 1 1937 0
	bl Mod_PointInLeaf
	.loc 1 1939 0
	lis 9,r_novis+12@ha
	lfs 13,r_novis+12@l(9)
	lis 9,.LC5@ha
	lfs 0,.LC5@l(9)
	fcmpu 7,13,0
	bne- 7,.L308
	.loc 1 1945 0
	lwz 4,2688(31)
	bl Mod_LeafPVS
	.loc 1 1946 0
	lwz 0,4116(1)
	.loc 1 1945 0
	lis 9,lightvis@ha
	.loc 1 1946 0
	lwz 31,4108(1)
	mtlr 0
	.loc 1 1945 0
	stw 3,lightvis@l(9)
	.loc 1 1946 0
	addi 1,1,4112
	.cfi_remember_state
.LCFI70:
	.cfi_def_cfa_offset 0
	.cfi_restore 31
	blr
.L308:
.LCFI71:
	.cfi_restore_state
	.loc 1 1942 0
	lwz 9,2688(31)
	.loc 1 1941 0
	addi 0,1,8
	.loc 1 1942 0
	mr 3,0
	li 4,255
	lwz 5,164(9)
	.loc 1 1941 0
	lis 9,lightvis@ha
	stw 0,lightvis@l(9)
	.loc 1 1942 0
	addi 5,5,7
	srawi 5,5,3
	bl memset
	.loc 1 1946 0
	lwz 0,4116(1)
	lwz 31,4108(1)
	mtlr 0
	addi 1,1,4112
	.cfi_restore 31
.LCFI72:
	.cfi_def_cfa_offset 0
	blr
	.cfi_endproc
.LFE65:
	.size	R_MarkLightLeaves, .-R_MarkLightLeaves
	.align 2
	.globl ShadowVolumeBsp
	.type	ShadowVolumeBsp, @function
ShadowVolumeBsp:
.LFB66:
	.loc 1 1956 0
	.cfi_startproc
	stwu 1,-16(1)
.LCFI73:
	.cfi_def_cfa_offset 16
	mflr 0
	stw 31,12(1)
	.loc 1 1959 0
	lis 31,cl@ha
	.cfi_offset 31, -4
	.cfi_register 65, 0
	.loc 1 1956 0
	stw 0,20(1)
	.loc 1 1959 0
	la 31,cl@l(31)
	.loc 1 1957 0
	.cfi_offset 65, 4
	bl R_CreateEmptyTree
	lis 9,currentlightroot@ha
	stw 3,currentlightroot@l(9)
	.loc 1 1958 0
	bl R_MarkLightLeaves
	.loc 1 1959 0
	lwz 9,2688(31)
	lis 11,currentshadowlight@ha
	lwz 3,currentshadowlight@l(11)
	lwz 4,192(9)
	bl R_MarkShadowCasting
	.loc 1 1962 0
	lwz 9,2688(31)
	.loc 1 1960 0
	li 0,0
	.loc 1 1963 0
	lwz 31,12(1)
	.loc 1 1962 0
	lwz 3,192(9)
	.loc 1 1960 0
	lis 9,shadowchain@ha
	stw 0,shadowchain@l(9)
	.loc 1 1961 0
	lis 9,svBsp_NumKeptPolys@ha
	stw 0,svBsp_NumKeptPolys@l(9)
	.loc 1 1963 0
	lwz 0,20(1)
	addi 1,1,16
.LCFI74:
	.cfi_def_cfa_offset 0
	.cfi_restore 31
	mtlr 0
	.loc 1 1962 0
	b R_RecursiveShadowAdd
	.cfi_endproc
.LFE66:
	.size	ShadowVolumeBsp, .-ShadowVolumeBsp
	.align 2
	.globl R_CalcSvBsp
	.type	R_CalcSvBsp, @function
R_CalcSvBsp:
.LFB67:
	.loc 1 1974 0
	.cfi_startproc
.LVL415:
	mflr 0
	stwu 1,-40(1)
.LCFI75:
	.cfi_def_cfa_offset 40
	.cfi_register 65, 0
	stw 31,36(1)
	stw 0,44(1)
	stw 30,32(1)
	mr 30,3
	.cfi_offset 30, -8
	.cfi_offset 65, 4
	.cfi_offset 31, -4
	.loc 1 1983 0
	lwz 31,160(3)
	.loc 1 1974 0
	stw 25,12(1)
	.loc 1 1983 0
	cmpwi 7,31,0
	.loc 1 1974 0
	stw 26,16(1)
	stw 27,20(1)
	stw 28,24(1)
	stw 29,28(1)
	.loc 1 1983 0
	beq- 7,.L332
	.cfi_offset 29, -12
	.cfi_offset 28, -16
	.cfi_offset 27, -20
	.cfi_offset 26, -24
	.cfi_offset 25, -28
	.loc 1 1988 0
	lis 26,.LC6@ha
	mr 3,31
.LVL416:
	la 26,.LC6@l(26)
	mr 4,26
	bl strcmp
	cmpwi 7,3,0
	beq- 7,.L313
	.loc 1 1989 0
	lis 4,.LC7@ha
	mr 3,31
	la 4,.LC7@l(4)
	bl strcmp
	cmpwi 7,3,0
	bne- 7,.L333
.L313:
	.loc 1 2001 0
	lis 9,r_framecount@ha
	.loc 1 1995 0
	lis 11,done@ha
	.loc 1 2001 0
	lwz 10,r_framecount@l(9)
	.loc 1 2000 0
	lis 28,r_lightTimestamp@ha
	.loc 1 1995 0
	lwz 7,done@l(11)
	.loc 1 1994 0
	li 0,0
	.loc 1 2000 0
	lwz 8,r_lightTimestamp@l(28)
	.loc 1 2001 0
	addi 10,10,1
	stw 10,r_framecount@l(9)
	.loc 1 2003 0
	lis 9,svBsp_NumCutPolys@ha
	stw 0,svBsp_NumCutPolys@l(9)
	.loc 1 1995 0
	addi 7,7,1
	.loc 1 2005 0
	lis 9,svBsp_NumAddedPolys@ha
	.loc 1 2000 0
	addi 8,8,1
	.loc 1 1994 0
	lis 29,shadowchain@ha
	.loc 1 2004 0
	lis 27,svBsp_NumKeptPolys@ha
	.loc 1 2008 0
	mr 3,30
	.loc 1 2005 0
	stw 0,svBsp_NumAddedPolys@l(9)
	.loc 1 1994 0
	stw 0,shadowchain@l(29)
	.loc 1 1995 0
	stw 7,done@l(11)
	.loc 1 2004 0
	stw 0,svBsp_NumKeptPolys@l(27)
	.loc 1 2000 0
	stw 8,r_lightTimestamp@l(28)
	.loc 1 2008 0
	bl R_ShadowFromEntity
	.loc 1 2011 0
	lis 9,numShadowLights@ha
	lwz 11,numShadowLights@l(9)
	.loc 1 2009 0
	lis 9,numStaticShadowLights@ha
	lwz 10,numStaticShadowLights@l(9)
	.loc 1 2011 0
	cmpwi 7,11,127
	.loc 1 2009 0
	addi 0,10,1
	stw 0,numStaticShadowLights@l(9)
	.loc 1 2011 0
	bgt- 7,.L334
	.loc 1 2016 0
	addi 9,11,-1
	.loc 1 2019 0
	lwz 25,160(30)
	.loc 1 2016 0
	mulli 9,9,2192
	lis 11,shadowlights@ha
	la 0,shadowlights@l(11)
	lis 31,currentshadowlight@ha
	.loc 1 2019 0
	mr 3,25
	.loc 1 2016 0
	add 30,9,0
.LVL417:
	.loc 1 2019 0
	mr 4,26
	.loc 1 2016 0
	stw 30,currentshadowlight@l(31)
	.loc 1 2019 0
	bl strcmp
	cmpwi 7,3,0
	bne- 7,.L315
.L331:
	.loc 1 2028 0
	lis 9,.LC0@ha
	lwz 0,.LC0@l(9)
	.loc 1 2029 0
	lis 9,.LC47@ha
	.loc 1 2028 0
	stw 0,12(30)
	.loc 1 2029 0
	lwz 0,.LC47@l(9)
	.loc 1 2030 0
	lis 9,.LC48@ha
	.loc 1 2029 0
	stw 0,16(30)
	.loc 1 2030 0
	lwz 0,.LC48@l(9)
	stw 0,20(30)
.L316:
	.loc 1 2033 0
	li 0,1
	stb 0,45(30)
	.loc 1 2049 0
	lis 30,cl@ha
	la 30,cl@l(30)
	.loc 1 2036 0
	bl ShadowVolumeBsp
	.loc 1 2044 0
	lwz 3,svBsp_NumKeptPolys@l(27)
	lwz 26,currentshadowlight@l(31)
	slwi 3,3,2
	bl Hunk_Alloc
	.loc 1 2049 0
	lwz 10,2688(30)
	.loc 1 2045 0
	lwz 9,currentshadowlight@l(31)
	.loc 1 2049 0
	lwz 11,396(10)
	.loc 1 2045 0
	lwz 0,svBsp_NumKeptPolys@l(27)
	.loc 1 2049 0
	cmpwi 7,11,0
	.loc 1 2044 0
	stw 3,2100(26)
	.loc 1 2045 0
	stw 0,2120(9)
	.loc 1 2046 0
	lwz 8,shadowchain@l(29)
.LVL418:
	.loc 1 2049 0
	ble- 7,.L318
	.loc 1 1974 0
	lwz 10,400(10)
	.loc 1 2052 0
	mtctr 11
	li 7,0
	.loc 1 1974 0
	addi 10,10,-4
.LVL419:
.L320:
	.loc 1 2051 0
	lwzu 11,4(10)
	cmpwi 7,11,0
	beq- 7,.L319
	.loc 1 2052 0
	stw 7,32(11)
.L319:
	.loc 1 2049 0
	bdnz .L320
.L318:
	.loc 1 2057 0
	cmpwi 7,0,0
	.loc 1 2056 0
	lwz 7,r_lightTimestamp@l(28)
	addi 7,7,1
	stw 7,r_lightTimestamp@l(28)
.LVL420:
	.loc 1 2057 0
	ble- 7,.L321
	li 11,0
	mtctr 0
	b .L322
.LVL421:
.L335:
	lwz 9,currentshadowlight@l(31)
.LVL422:
.L322:
	.loc 1 2058 0 discriminator 2
	lwz 10,36(8)
	.loc 1 2059 0 discriminator 2
	slwi 0,11,2
	lwz 9,2100(9)
	.loc 1 2057 0 discriminator 2
	addi 11,11,1
.LVL423:
	.loc 1 2058 0 discriminator 2
	stw 7,16(10)
	.loc 1 2059 0 discriminator 2
	stwx 8,9,0
	.loc 1 2061 0 discriminator 2
	lwz 9,48(8)
	lwz 9,36(9)
	lwz 0,32(9)
	stw 0,40(8)
	.loc 1 2062 0 discriminator 2
	stw 8,32(9)
	.loc 1 2057 0 discriminator 2
	lwz 8,44(8)
.LVL424:
	bdnz .L335
.LVL425:
.L321:
	.loc 1 2067 0
	lwz 4,2688(30)
	.loc 1 2066 0
	li 0,0
	stw 0,shadowchain@l(29)
.LVL426:
	.loc 1 2067 0
	lwz 7,396(4)
	cmpwi 7,7,0
	ble- 7,.L323
	lwz 6,400(4)
	li 10,0
.LVL427:
.L326:
	.loc 1 2069 0
	slwi 0,10,2
	lwzx 8,6,0
.LVL428:
	.loc 1 2070 0
	cmpwi 7,8,0
	beq- 7,.L324
	.loc 1 2072 0
	lwz 9,32(8)
.LVL429:
	.loc 1 2073 0
	lwz 11,shadowchain@l(29)
	cmpwi 7,9,0
	bne+ 7,.L325
	b .L324
.LVL430:
.L327:
	.loc 1 2077 0
	mr 9,0
.LVL431:
.L325:
	.loc 1 2077 0 is_stmt 0 discriminator 2
	lwz 0,40(9)
.LVL432:
	.loc 1 2078 0 is_stmt 1 discriminator 2
	stw 11,44(9)
	.loc 1 2077 0 discriminator 2
	mr 11,9
	cmpwi 7,0,0
	bne+ 7,.L327
	.loc 1 2077 0 is_stmt 0
	stw 9,shadowchain@l(29)
	.loc 1 2082 0 is_stmt 1
	stw 0,32(8)
.LVL433:
.L324:
	.loc 1 2067 0
	addi 10,10,1
.LVL434:
	cmpw 7,7,10
	bgt+ 7,.L326
.LVL435:
.L323:
	.loc 1 2086 0
	lwz 29,currentshadowlight@l(31)
	mr 3,29
	bl Mod_PointInLeaf
	.loc 1 2087 0
	lwz 9,currentshadowlight@l(31)
	.loc 1 2086 0
	stw 3,48(29)
	.loc 1 2087 0
	lis 29,lightvis@ha
	lwz 4,2688(30)
	lwz 3,48(9)
	bl Mod_LeafPVS
	.loc 1 2088 0
	li 5,1024
	.loc 1 2087 0
	mr 0,3
	.loc 1 2088 0
	lwz 3,currentshadowlight@l(31)
	mr 4,0
	.loc 1 2087 0
	stw 0,lightvis@l(29)
	.loc 1 2088 0
	addi 3,3,52
	bl Q_memcpy
	.loc 1 2089 0
	lwz 3,currentshadowlight@l(31)
	lwz 4,lightvis@l(29)
	li 5,1024
	addi 3,3,1076
	.loc 1 2094 0
	lis 29,numVolumeCmds@ha
	.loc 1 2089 0
	bl Q_memcpy
	.loc 1 2090 0
	lwz 3,currentshadowlight@l(31)
	addi 3,3,52
	bl CutLeafs
	.loc 1 2093 0
	lwz 3,2688(30)
	.loc 1 2097 0
	lis 30,numVolumeVerts@ha
	.loc 1 2093 0
	bl PrecalcVolumesForLight
	.loc 1 2094 0
	lwz 3,numVolumeCmds@l(29)
	lwz 28,currentshadowlight@l(31)
	slwi 3,3,2
	bl Hunk_Alloc
	.loc 1 2095 0
	lwz 9,currentshadowlight@l(31)
	.loc 1 2094 0
	stw 3,2104(28)
	.loc 1 2095 0
	lis 4,volumeCmdsBuff@ha
	lwz 5,numVolumeCmds@l(29)
	la 4,volumeCmdsBuff@l(4)
	lwz 3,2104(9)
	slwi 5,5,2
	bl Q_memcpy
	.loc 1 2097 0
	lwz 3,numVolumeVerts@l(30)
	lwz 29,currentshadowlight@l(31)
	slwi 3,3,2
	bl Hunk_Alloc
	.loc 1 2098 0
	lwz 9,currentshadowlight@l(31)
	lwz 5,numVolumeVerts@l(30)
	.loc 1 2099 0
	lis 4,volumeVertsBuff@ha
	.loc 1 2097 0
	stw 3,2108(29)
	.loc 1 2099 0
	la 4,volumeVertsBuff@l(4)
	.loc 1 2098 0
	stw 5,2112(9)
	.loc 1 2101 0
	lis 30,numLightCmds@ha
	.loc 1 2099 0
	lwz 3,2108(9)
	slwi 5,5,2
	bl Q_memcpy
	.loc 1 2101 0
	lwz 3,numLightCmds@l(30)
	lwz 29,currentshadowlight@l(31)
	slwi 3,3,2
	bl Hunk_Alloc
	.loc 1 2102 0
	lwz 9,currentshadowlight@l(31)
	.loc 1 2101 0
	stw 3,2116(29)
	.loc 1 2102 0
	lis 4,lightCmdsBuff@ha
	lwz 5,numLightCmds@l(30)
	la 4,lightCmdsBuff@l(4)
	lwz 3,2116(9)
	slwi 5,5,2
	bl Q_memcpy
.L310:
	.loc 1 2108 0
	lwz 0,44(1)
	lwz 25,12(1)
	mtlr 0
	lwz 26,16(1)
	lwz 27,20(1)
	lwz 28,24(1)
	lwz 29,28(1)
	lwz 30,32(1)
	lwz 31,36(1)
	addi 1,1,40
	.cfi_remember_state
.LCFI76:
	.cfi_def_cfa_offset 0
	.cfi_restore 31
	.cfi_restore 30
	.cfi_restore 29
	.cfi_restore 28
	.cfi_restore 27
	.cfi_restore 26
	.cfi_restore 25
	blr
.L315:
.LCFI77:
	.cfi_restore_state
	.loc 1 2023 0
	lis 4,.LC7@ha
	mr 3,25
	la 4,.LC7@l(4)
	bl strcmp
	cmpwi 7,3,0
	beq- 7,.L331
	.loc 1 2027 0
	lis 4,.LC43@ha
	mr 3,25
	la 4,.LC43@l(4)
	bl strcmp
	cmpwi 7,3,0
	bne- 7,.L316
	b .L331
.LVL436:
.L333:
	.loc 1 1990 0
	lis 4,.LC43@ha
	mr 3,31
	la 4,.LC43@l(4)
	bl strcmp
	cmpwi 7,3,0
	beq- 7,.L313
	.loc 1 1991 0
	lis 4,.LC44@ha
	mr 3,31
	la 4,.LC44@l(4)
	bl strcmp
	cmpwi 7,3,0
	beq- 7,.L313
	.loc 1 1992 0
	lis 4,.LC45@ha
	mr 3,31
	la 4,.LC45@l(4)
	bl strcmp
	cmpwi 7,3,0
	beq+ 7,.L313
	b .L310
.L334:
	.loc 1 2012 0
	lis 3,.LC46@ha
	la 3,.LC46@l(3)
	crxor 6,6,6
	bl Con_Printf
	.loc 1 2108 0
	lwz 0,44(1)
	lwz 25,12(1)
	mtlr 0
	lwz 26,16(1)
	lwz 27,20(1)
	lwz 28,24(1)
	lwz 29,28(1)
	lwz 30,32(1)
.LVL437:
	lwz 31,36(1)
	addi 1,1,40
	.cfi_remember_state
	.cfi_restore 25
	.cfi_restore 26
	.cfi_restore 27
	.cfi_restore 28
	.cfi_restore 29
	.cfi_restore 30
	.cfi_restore 31
.LCFI78:
	.cfi_def_cfa_offset 0
	blr
.LVL438:
.L332:
.LCFI79:
	.cfi_restore_state
	.loc 1 1984 0
	lis 3,.LC42@ha
.LVL439:
	la 3,.LC42@l(3)
	crxor 6,6,6
	bl Con_Printf
	.loc 1 1985 0
	b .L310
	.cfi_endproc
.LFE67:
	.size	R_CalcSvBsp, .-R_CalcSvBsp
	.align 2
	.globl LightFromSurface
	.type	LightFromSurface, @function
LightFromSurface:
.LFB68:
	.loc 1 2115 0
	.cfi_startproc
.LVL440:
	mflr 0
	stwu 1,-696(1)
.LCFI80:
	.cfi_def_cfa_offset 696
	.cfi_register 65, 0
	.loc 1 2125 0
	lis 9,.LC3@ha
	lfs 0,.LC3@l(9)
	lis 9,.LC0@ha
	.loc 1 2115 0
	stw 0,700(1)
	.loc 1 2125 0
	lis 0,0x4330
	.cfi_offset 65, 4
	.loc 1 2115 0
	stw 31,692(1)
	mr 31,3
	.cfi_offset 31, -4
	.loc 1 2124 0
	lwz 10,36(3)
.LVL441:
	.loc 1 2115 0
	stw 25,668(1)
	.loc 1 2125 0
	lwz 11,8(10)
	stw 0,648(1)
	xoris 0,11,0x8000
	.loc 1 2131 0
	cmpwi 7,11,0
	.loc 1 2125 0
	stw 0,652(1)
	.loc 1 2130 0
	li 0,0
	.loc 1 2115 0
	stw 26,672(1)
	.loc 1 2125 0
	lfd 1,648(1)
	.loc 1 2115 0
	stw 27,676(1)
	.loc 1 2125 0
	fsub 1,1,0
	lfs 0,.LC0@l(9)
	.loc 1 2129 0
	lis 9,globalVertexTable@ha
	.loc 1 2115 0
	stw 28,680(1)
	.loc 1 2129 0
	lwz 8,globalVertexTable@l(9)
	.loc 1 2125 0
	fdiv 1,0,1
	.loc 1 2115 0
	stw 29,684(1)
	stw 30,688(1)
	.loc 1 2129 0
	lwz 9,24(10)
	.loc 1 2130 0
	stw 0,52(1)
	stw 0,48(1)
	stw 0,44(1)
	.loc 1 2125 0
	frsp 1,1
.LVL442:
	.loc 1 2131 0
	ble- 7,.L337
	.cfi_offset 30, -8
	.cfi_offset 29, -12
	.cfi_offset 28, -16
	.cfi_offset 27, -20
	.cfi_offset 26, -24
	.cfi_offset 25, -28
.LVL443:
	.loc 1 2129 0
	stw 0,656(1)
	mulli 9,9,28
	.loc 1 2131 0
	mtctr 11
	.loc 1 2129 0
	lfs 0,656(1)
	add 9,8,9
	fmr 12,0
	fmr 13,0
.LVL444:
.L338:
	.loc 1 2133 0 discriminator 2
	lfs 11,0(9)
	fadds 13,13,11
	stfs 13,44(1)
	lfs 11,4(9)
	fadds 12,12,11
	stfs 12,48(1)
	lfs 11,8(9)
	.loc 1 2131 0 discriminator 2
	addi 9,9,28
	.loc 1 2133 0 discriminator 2
	fadds 0,0,11
	stfs 0,52(1)
.LVL445:
	.loc 1 2131 0 discriminator 2
	bdnz .L338
.LVL446:
.L337:
	.loc 1 2135 0
	addi 3,1,44
.LVL447:
	mr 4,3
	bl VectorScale
.LVL448:
	.loc 1 2137 0
	lwz 0,8(31)
	andi. 9,0,2
	bne- 0,.L348
	.loc 1 2140 0
	lwz 9,4(31)
	addi 30,1,20
	lwz 10,0(9)
	lwz 11,4(9)
	lwz 0,8(9)
	stw 10,20(1)
	stw 11,24(1)
	stw 0,28(1)
.L340:
	.loc 1 2143 0
	lis 9,.LC51@ha
	addi 3,1,44
	lfs 1,.LC51@l(9)
	mr 4,30
	addi 5,1,32
	.loc 1 2149 0
	lis 28,numShadowLights@ha
	.loc 1 2143 0
	bl VectorMA
.LVL449:
	.loc 1 2149 0
	lwz 0,numShadowLights@l(28)
	cmpwi 7,0,0
	ble- 7,.L341
	lis 29,shadowlights@ha
	lis 26,sh_radiusscale@ha
	lis 27,.LC1@ha
	li 25,0
	li 31,0
.LVL450:
	la 29,shadowlights@l(29)
	la 26,sh_radiusscale@l(26)
	la 27,.LC1@l(27)
	la 28,numShadowLights@l(28)
.LVL451:
.L343:
.LBB136:
	.loc 1 2152 0
	mulli 0,31,2192
	.loc 1 2153 0
	lfs 11,32(1)
	.loc 1 2154 0
	addi 3,1,8
.LBE136:
	.loc 1 2149 0
	addi 31,31,1
.LBB137:
	.loc 1 2153 0
	lfsx 12,29,0
	.loc 1 2152 0
	add 30,29,0
.LVL452:
	.loc 1 2153 0
	lfs 13,4(30)
	fsubs 12,11,12
	lfs 11,36(1)
	lfs 0,8(30)
	fsubs 13,11,13
	lfs 11,40(1)
	stfs 12,8(1)
	fsubs 0,11,0
	stfs 13,12(1)
	stfs 0,16(1)
	.loc 1 2154 0
	bl Length
.LVL453:
	.loc 1 2156 0
	lfs 0,12(26)
	lfs 13,36(30)
	fmr 12,0
.LBE137:
	.loc 1 2149 0
	lwz 0,0(28)
.LBB138:
	.loc 1 2156 0
	fmuls 0,0,13
	lfs 13,0(27)
.LBE138:
	.loc 1 2149 0
	cmpw 7,0,31
.LBB139:
	.loc 1 2156 0
	fmadd 13,12,13,0
	fcmpu 6,1,13
	bnl- 6,.L342
	.loc 1 2157 0
	li 25,1
.L342:
.LVL454:
.LBE139:
	.loc 1 2149 0
	bgt+ 7,.L343
	.loc 1 2162 0
	cmpwi 7,25,0
	beq- 7,.L341
	.loc 1 2171 0
	lwz 0,700(1)
	lwz 25,668(1)
	mtlr 0
	lwz 26,672(1)
	lwz 27,676(1)
	lwz 28,680(1)
	lwz 29,684(1)
	lwz 30,688(1)
.LVL455:
	lwz 31,692(1)
.LVL456:
	addi 1,1,696
	.cfi_remember_state
.LCFI81:
	.cfi_def_cfa_offset 0
	.cfi_restore 31
	.cfi_restore 30
	.cfi_restore 29
	.cfi_restore 28
	.cfi_restore 27
	.cfi_restore 26
	.cfi_restore 25
	blr
.LVL457:
.L341:
.LCFI82:
	.cfi_restore_state
	.loc 1 2163 0
	li 5,584
	addi 3,1,56
	li 4,0
	bl Q_memset
	.loc 1 2164 0
	li 0,350
	stw 0,288(1)
	.loc 1 2166 0
	lis 3,.LC45@ha
	.loc 1 2165 0
	lwz 0,32(1)
	.loc 1 2166 0
	li 4,1
	la 3,.LC45@l(3)
	.loc 1 2165 0
	stw 0,168(1)
	lwz 0,36(1)
	stw 0,172(1)
	lwz 0,40(1)
	stw 0,176(1)
	.loc 1 2166 0
	bl Mod_ForName
	stw 3,216(1)
	.loc 1 2167 0
	addi 3,1,56
	bl R_CalcSvBsp
	.loc 1 2168 0
	lis 3,.LC53@ha
	la 3,.LC53@l(3)
	crxor 6,6,6
	bl Con_Printf
	.loc 1 2171 0
	lwz 0,700(1)
	lwz 25,668(1)
	mtlr 0
	lwz 26,672(1)
	lwz 27,676(1)
	lwz 28,680(1)
	lwz 29,684(1)
	lwz 30,688(1)
	lwz 31,692(1)
	addi 1,1,696
	.cfi_remember_state
	.cfi_restore 25
	.cfi_restore 26
	.cfi_restore 27
	.cfi_restore 28
	.cfi_restore 29
	.cfi_restore 30
	.cfi_restore 31
.LCFI83:
	.cfi_def_cfa_offset 0
	blr
.LVL458:
.L348:
.LCFI84:
	.cfi_restore_state
	.loc 1 2138 0
	lis 9,.LC50@ha
	addi 30,1,20
	lwz 3,4(31)
	mr 4,30
	lfs 1,.LC50@l(9)
	bl VectorScale
	b .L340
	.cfi_endproc
.LFE68:
	.size	LightFromSurface, .-LightFromSurface
	.align 2
	.globl LightFromFile
	.type	LightFromFile, @function
LightFromFile:
.LFB69:
	.loc 1 2179 0
	.cfi_startproc
.LVL459:
	stwu 1,-648(1)
.LCFI85:
	.cfi_def_cfa_offset 648
	mflr 0
	stw 27,628(1)
	.loc 1 2191 0
	lis 27,numShadowLights@ha
	.cfi_offset 27, -20
	.cfi_register 65, 0
	.loc 1 2179 0
	stw 0,652(1)
	.loc 1 2191 0
	lwz 0,numShadowLights@l(27)
	.cfi_offset 65, 4
	.loc 1 2179 0
	stw 31,644(1)
	mr 31,3
	.cfi_offset 31, -4
	.loc 1 2191 0
	cmpwi 7,0,0
	.loc 1 2179 0
	stw 24,616(1)
	stw 25,620(1)
	stw 26,624(1)
	stw 28,632(1)
	stw 29,636(1)
	stw 30,640(1)
	.loc 1 2191 0
	ble- 7,.L350
	.cfi_offset 30, -8
	.cfi_offset 29, -12
	.cfi_offset 28, -16
	.cfi_offset 26, -24
	.cfi_offset 25, -28
	.cfi_offset 24, -32
	lis 28,shadowlights@ha
	lis 25,sh_radiusscale@ha
	lis 26,.LC1@ha
	li 24,0
	li 30,0
	la 28,shadowlights@l(28)
	la 25,sh_radiusscale@l(25)
	la 26,.LC1@l(26)
	la 27,numShadowLights@l(27)
.LVL460:
.L352:
.LBB140:
	.loc 1 2194 0
	mulli 0,30,2192
	.loc 1 2195 0
	lfs 9,0(31)
	lfs 10,4(31)
	.loc 1 2196 0
	addi 3,1,8
	.loc 1 2195 0
	lfs 11,8(31)
.LBE140:
	.loc 1 2191 0
	addi 30,30,1
.LBB141:
	.loc 1 2194 0
	add 29,28,0
.LVL461:
	.loc 1 2195 0
	lfsx 12,28,0
	lfs 13,4(29)
	lfs 0,8(29)
	fsubs 12,9,12
	fsubs 13,10,13
	fsubs 0,11,0
	stfs 12,8(1)
	stfs 13,12(1)
	stfs 0,16(1)
	.loc 1 2196 0
	bl Length
.LVL462:
	.loc 1 2198 0
	lfs 0,12(25)
	lfs 13,36(29)
	fmr 12,0
.LBE141:
	.loc 1 2191 0
	lwz 0,0(27)
.LBB142:
	.loc 1 2198 0
	fmuls 0,0,13
	lfs 13,0(26)
.LBE142:
	.loc 1 2191 0
	cmpw 7,0,30
.LBB143:
	.loc 1 2198 0
	fmadd 13,12,13,0
	fcmpu 6,1,13
	bnl- 6,.L351
	.loc 1 2199 0
	li 24,1
.L351:
.LVL463:
.LBE143:
	.loc 1 2191 0
	bgt+ 7,.L352
	.loc 1 2204 0
	cmpwi 7,24,0
	beq- 7,.L350
	.loc 1 2214 0
	lwz 0,652(1)
	lwz 24,616(1)
	mtlr 0
	lwz 25,620(1)
	lwz 26,624(1)
	lwz 27,628(1)
	lwz 28,632(1)
	lwz 29,636(1)
.LVL464:
	lwz 30,640(1)
.LVL465:
	lwz 31,644(1)
.LVL466:
	addi 1,1,648
	.cfi_remember_state
.LCFI86:
	.cfi_def_cfa_offset 0
	.cfi_restore 31
	.cfi_restore 30
	.cfi_restore 29
	.cfi_restore 28
	.cfi_restore 27
	.cfi_restore 26
	.cfi_restore 25
	.cfi_restore 24
	blr
.LVL467:
.L350:
.LCFI87:
	.cfi_restore_state
	.loc 1 2205 0
	addi 3,1,24
	li 5,584
	li 4,0
	bl Q_memset
	.loc 1 2207 0
	lwz 0,8(31)
	lwz 11,0(31)
	.loc 1 2208 0
	lis 3,.LC45@ha
	.loc 1 2207 0
	lwz 9,4(31)
	.loc 1 2206 0
	li 10,350
	.loc 1 2208 0
	li 4,1
	la 3,.LC45@l(3)
	.loc 1 2207 0
	stw 0,144(1)
	.loc 1 2206 0
	stw 10,256(1)
	.loc 1 2207 0
	stw 11,136(1)
	stw 9,140(1)
	.loc 1 2208 0
	bl Mod_ForName
	stw 3,184(1)
	.loc 1 2209 0
	addi 3,1,24
	bl R_CalcSvBsp
	.loc 1 2214 0
	lwz 0,652(1)
	lwz 24,616(1)
	mtlr 0
	lwz 25,620(1)
	lwz 26,624(1)
	lwz 27,628(1)
	lwz 28,632(1)
	lwz 29,636(1)
	lwz 30,640(1)
	lwz 31,644(1)
.LVL468:
	addi 1,1,648
	.cfi_restore 24
	.cfi_restore 25
	.cfi_restore 26
	.cfi_restore 27
	.cfi_restore 28
	.cfi_restore 29
	.cfi_restore 30
	.cfi_restore 31
.LCFI88:
	.cfi_def_cfa_offset 0
	blr
	.cfi_endproc
.LFE69:
	.size	LightFromFile, .-LightFromFile
	.align 2
	.globl ParseVector
	.type	ParseVector, @function
ParseVector:
.LFB70:
	.loc 1 2218 0
	.cfi_startproc
.LVL469:
	mflr 0
	stwu 1,-152(1)
.LCFI89:
	.cfi_def_cfa_offset 152
	.cfi_register 65, 0
	.loc 1 2223 0
	li 5,128
	.loc 1 2218 0
	stw 31,148(1)
	mr 31,4
	.cfi_offset 31, -4
	stw 0,156(1)
	mr 0,3
	.cfi_offset 65, 4
	.loc 1 2223 0
	mr 4,0
.LVL470:
	addi 3,1,8
.LVL471:
	.loc 1 2218 0
	stw 28,136(1)
	.loc 1 2230 0
	li 28,0
	.cfi_offset 28, -16
	.loc 1 2218 0
	stw 29,140(1)
	.loc 1 2223 0
	li 29,0
	.cfi_offset 29, -12
	.loc 1 2218 0
	stw 30,144(1)
	.loc 1 2223 0
	.cfi_offset 30, -8
	bl strncpy
.LVL472:
	.loc 1 2224 0
	addi 3,1,8
.LVL473:
.L357:
	.loc 1 2228 0 discriminator 1
	lbz 0,0(3)
	mr 30,3
	cmpwi 7,0,0
	beq- 7,.L358
.LVL474:
	.loc 1 2228 0 is_stmt 0
	cmpwi 7,0,32
	mr 9,3
	bne+ 7,.L359
	b .L358
.LVL475:
.L364:
	.loc 1 2228 0 discriminator 2
	beq- 6,.L358
.L359:
	.loc 1 2228 0
	lbzu 0,1(9)
	.loc 1 2229 0 is_stmt 1
	addi 30,30,1
.LVL476:
	.loc 1 2228 0
	cmpwi 7,0,0
	cmpwi 6,0,32
	bne+ 7,.L364
.L358:
	.loc 1 2230 0
	stb 28,0(30)
	.loc 1 2231 0
	bl atof
.LVL477:
	.loc 1 2226 0
	cmpwi 7,29,8
	.loc 1 2231 0
	frsp 1,1
	.loc 1 2232 0
	addi 3,30,1
.LVL478:
	.loc 1 2231 0
	stfsx 1,31,29
	.loc 1 2226 0
	addi 29,29,4
	bne+ 7,.L357
	.loc 1 2234 0
	lwz 0,156(1)
	lwz 28,136(1)
	mtlr 0
	lwz 29,140(1)
	lwz 30,144(1)
	lwz 31,148(1)
.LVL479:
	addi 1,1,152
.LCFI90:
	.cfi_def_cfa_offset 0
	.cfi_restore 31
	.cfi_restore 30
	.cfi_restore 29
	.cfi_restore 28
	blr
	.cfi_endproc
.LFE70:
	.size	ParseVector, .-ParseVector
	.align 2
	.globl ParseEnt
	.type	ParseEnt, @function
ParseEnt:
.LFB71:
	.loc 1 2239 0
	.cfi_startproc
.LVL480:
	mflr 0
	stwu 1,-320(1)
.LCFI91:
	.cfi_def_cfa_offset 320
	.cfi_register 65, 0
	stw 20,272(1)
	.loc 1 2253 0
	lis 20,.LC54@ha
	.cfi_offset 20, -48
	.loc 1 2239 0
	stw 21,276(1)
	.loc 1 2260 0
	lis 21,.LC55@ha
	.cfi_offset 21, -44
	.loc 1 2239 0
	stw 22,280(1)
	.loc 1 2263 0
	lis 22,.LC56@ha
	.cfi_offset 22, -40
	.loc 1 2239 0
	stw 26,296(1)
	.loc 1 2276 0
	lis 26,.LC60@ha
	.cfi_offset 26, -24
	.loc 1 2239 0
	stw 28,304(1)
	.loc 1 2274 0
	lis 28,.LC59@ha
	.cfi_offset 28, -16
	.loc 1 2239 0
	stw 29,308(1)
	.loc 1 2268 0
	lis 29,.LC57@ha
	.cfi_offset 29, -12
	.loc 1 2239 0
	stw 31,316(1)
	lis 31,com_token@ha
	.cfi_offset 31, -4
	stw 0,324(1)
	la 31,com_token@l(31)
	stw 19,268(1)
	.loc 1 2253 0
	la 20,.LC54@l(20)
	.loc 1 2239 0
	stw 23,284(1)
	.loc 1 2260 0
	la 21,.LC55@l(21)
	.loc 1 2239 0
	stw 24,288(1)
	.loc 1 2242 0
	li 23,0
	.cfi_offset 24, -32
	.cfi_offset 23, -36
	.cfi_offset 19, -52
	.cfi_offset 65, 4
	.loc 1 2239 0
	stw 25,292(1)
	mr 24,5
	stw 27,300(1)
	.loc 1 2263 0
	la 22,.LC56@l(22)
	.loc 1 2239 0
	stw 30,312(1)
	.loc 1 2239 0
	mr 27,4
	.cfi_offset 30, -8
	.cfi_offset 27, -20
	.cfi_offset 25, -28
	mr 30,3
	.loc 1 2268 0
	la 29,.LC57@l(29)
	.loc 1 2274 0
	la 28,.LC59@l(28)
	.loc 1 2276 0
	la 26,.LC60@l(26)
	.loc 1 2279 0
	lis 25,.LC62@ha
.LVL481:
.L384:
	.loc 1 2249 0
	mr 3,30
	bl COM_Parse
	.loc 1 2250 0
	lbz 0,0(31)
	.loc 1 2249 0
	mr 30,3
.LVL482:
	.loc 1 2250 0
	cmpwi 7,0,125
	beq- 7,.L367
.L388:
	.loc 1 2252 0
	cmpwi 7,3,0
	beq- 7,.L385
.LVL483:
.L368:
	.loc 1 2255 0
	mr 4,31
	li 5,256
	addi 3,1,8
	bl strncpy
	.loc 1 2258 0
	mr 3,30
	bl COM_Parse
.LVL484:
	.loc 1 2259 0
	mr. 30,3
	beq- 0,.L386
.LVL485:
.L369:
	.loc 1 2262 0
	lbz 0,0(31)
	cmpwi 7,0,125
	beq- 7,.L387
.L370:
.LVL486:
	.loc 1 2268 0
	addi 3,1,8
	mr 4,29
	bl strcmp
	mr. 19,3
	bne- 0,.L371
	.loc 1 2269 0
	lis 4,.LC58@ha
	mr 3,31
	la 4,.LC58@l(4)
	bl strcmp
	cmpwi 7,3,0
	bne- 7,.L372
	.loc 1 2270 0
	li 0,1
	.loc 1 2249 0
	mr 3,30
	.loc 1 2270 0
	stb 0,0(27)
	.loc 1 2249 0
	bl COM_Parse
	.loc 1 2250 0
	lbz 0,0(31)
	.loc 1 2249 0
	mr 30,3
.LVL487:
	.loc 1 2250 0
	cmpwi 7,0,125
	bne+ 7,.L388
.LVL488:
.L367:
	.loc 1 2306 0
	lwz 0,324(1)
	.loc 1 2304 0
	addic 3,23,-1
	subfe 3,3,3
.LVL489:
	.loc 1 2306 0
	and 3,30,3
	lwz 19,268(1)
	mtlr 0
	lwz 20,272(1)
	lwz 21,276(1)
	lwz 22,280(1)
	lwz 23,284(1)
	lwz 24,288(1)
.LVL490:
	lwz 25,292(1)
	lwz 26,296(1)
	lwz 27,300(1)
.LVL491:
	lwz 28,304(1)
	lwz 29,308(1)
	lwz 30,312(1)
.LVL492:
	lwz 31,316(1)
	addi 1,1,320
	.cfi_remember_state
.LCFI92:
	.cfi_def_cfa_offset 0
	.cfi_restore 31
	.cfi_restore 30
	.cfi_restore 29
	.cfi_restore 28
	.cfi_restore 27
	.cfi_restore 26
	.cfi_restore 25
	.cfi_restore 24
	.cfi_restore 23
	.cfi_restore 22
	.cfi_restore 21
	.cfi_restore 20
	.cfi_restore 19
	blr
.LVL493:
.L371:
.LCFI93:
	.cfi_restore_state
	.loc 1 2274 0
	addi 3,1,8
	mr 4,28
	bl strcmp
	cmpwi 7,3,0
	beq- 7,.L389
	.loc 1 2276 0
	addi 3,1,8
	mr 4,26
	bl strcmp
	cmpwi 7,3,0
	beq- 7,.L390
	.loc 1 2279 0
	addi 3,1,8
	la 4,.LC62@l(25)
	bl strcmp
	cmpwi 7,3,0
	beq- 7,.L391
	.loc 1 2281 0
	lis 4,.LC63@ha
	addi 3,1,8
	la 4,.LC63@l(4)
	bl strcmp
	cmpwi 7,3,0
	beq- 7,.L392
	.loc 1 2283 0
	lis 4,.LC64@ha
	addi 3,1,8
	la 4,.LC64@l(4)
	bl strcmp
	cmpwi 7,3,0
	beq- 7,.L393
	.loc 1 2286 0
	lis 4,.LC67@ha
	addi 3,1,8
	la 4,.LC67@l(4)
	bl strcmp
	cmpwi 7,3,0
	beq- 7,.L394
	.loc 1 2291 0
	lis 4,.LC71@ha
	addi 3,1,8
	la 4,.LC71@l(4)
	bl strcmp
	cmpwi 7,3,0
	beq- 7,.L395
	.loc 1 2293 0
	lis 4,.LC73@ha
	addi 3,1,8
	la 4,.LC73@l(4)
	bl strcmp
	cmpwi 7,3,0
	bne+ 7,.L384
	.loc 1 2294 0
	lis 3,.LC74@ha
	mr 4,31
	la 3,.LC74@l(3)
	bl Cvar_Set
	b .L384
.L372:
	.loc 1 2272 0
	stb 19,0(27)
	b .L384
.L389:
	.loc 1 2275 0
	mr 3,31
	mr 4,24
	bl ParseVector
	b .L384
.LVL494:
.L387:
	.loc 1 2263 0
	mr 3,22
	crxor 6,6,6
	bl Sys_Error
	b .L370
.LVL495:
.L390:
	.loc 1 2277 0
	lis 3,.LC61@ha
	.loc 1 2278 0
	li 23,1
	.loc 1 2277 0
	la 3,.LC61@l(3)
	crxor 6,6,6
	bl Con_Printf
.LVL496:
	b .L384
.LVL497:
.L391:
	.loc 1 2280 0
	lis 3,skybox_name@ha
	mr 4,31
	li 5,64
	la 3,skybox_name@l(3)
	bl strncpy
	b .L384
.LVL498:
.L386:
	.loc 1 2260 0
	mr 3,21
	crxor 6,6,6
	bl Sys_Error
	b .L369
.LVL499:
.L385:
	.loc 1 2253 0
	mr 3,20
.LVL500:
	crxor 6,6,6
	bl Sys_Error
	b .L368
.LVL501:
.L392:
	.loc 1 2282 0
	mr 3,31
	bl atof
	lis 9,skybox_cloudspeed@ha
	frsp 1,1
	stfs 1,skybox_cloudspeed@l(9)
	b .L384
.L393:
	.loc 1 2284 0
	lis 3,.LC65@ha
	mr 4,31
	la 3,.LC65@l(3)
	bl Cvar_Set
	.loc 1 2285 0
	lis 9,sh_lightmapbright+12@ha
	lfs 1,sh_lightmapbright+12@l(9)
	lis 3,.LC66@ha
	la 3,.LC66@l(3)
	creqv 6,6,6
	bl Con_Printf
	b .L384
.L394:
	.loc 1 2287 0
	mr 4,24
	mr 3,31
	bl ParseVector
	.loc 1 2288 0
	lfs 1,0(24)
	lis 3,.LC68@ha
	la 3,.LC68@l(3)
	bl Cvar_SetValue
	.loc 1 2289 0
	lfs 1,4(24)
	lis 3,.LC69@ha
	la 3,.LC69@l(3)
	bl Cvar_SetValue
	.loc 1 2290 0
	lfs 1,8(24)
	lis 3,.LC70@ha
	la 3,.LC70@l(3)
	bl Cvar_SetValue
	b .L384
.L395:
	.loc 1 2292 0
	lis 3,.LC72@ha
	mr 4,31
	la 3,.LC72@l(3)
	bl Cvar_Set
	b .L384
	.cfi_endproc
.LFE71:
	.size	ParseEnt, .-ParseEnt
	.align 2
	.globl LoadLightsFromFile
	.type	LoadLightsFromFile, @function
LoadLightsFromFile:
.LFB72:
	.loc 1 2309 0
	.cfi_startproc
.LVL502:
	stwu 1,-40(1)
.LCFI94:
	.cfi_def_cfa_offset 40
	mflr 0
	.loc 1 2313 0
	lis 9,.LC5@ha
	lfs 1,.LC5@l(9)
	.loc 1 2309 0
	stw 30,32(1)
	mr 30,3
	.cfi_offset 30, -8
	.cfi_register 65, 0
	.loc 1 2313 0
	lis 3,.LC72@ha
.LVL503:
	.loc 1 2309 0
	stw 0,44(1)
	.loc 1 2313 0
	la 3,.LC72@l(3)
	.loc 1 2309 0
	stw 28,24(1)
	stw 29,28(1)
	.loc 1 2324 0
	lis 29,.LC75@ha
	.cfi_offset 29, -12
	.cfi_offset 28, -16
	.cfi_offset 65, 4
	.loc 1 2309 0
	stw 31,36(1)
	.loc 1 2313 0
	.cfi_offset 31, -4
	bl Cvar_SetValue
	.loc 1 2314 0
	lis 9,.LC5@ha
	lis 3,.LC74@ha
	lfs 1,.LC5@l(9)
	la 3,.LC74@l(3)
	.loc 1 2323 0
	lis 31,com_token@ha
	.loc 1 2324 0
	la 29,.LC75@l(29)
	.loc 1 2314 0
	bl Cvar_SetValue
	.loc 1 2323 0
	la 31,com_token@l(31)
	.loc 1 2326 0
	li 28,0
.LVL504:
.L404:
	.loc 1 2320 0
	mr 3,30
	bl COM_Parse
.LVL505:
	.loc 1 2324 0
	mr 4,31
	.loc 1 2321 0
	mr. 30,3
	.loc 1 2324 0
	mr 3,29
.LVL506:
	.loc 1 2321 0
	beq- 0,.L398
.L405:
	.loc 1 2323 0
	lbz 0,0(31)
	cmpwi 7,0,123
	beq- 7,.L399
	.loc 1 2324 0
	crxor 6,6,6
	bl Sys_Error
.L399:
	.loc 1 2327 0
	mr 3,30
	addi 4,1,8
	addi 5,1,12
	.loc 1 2326 0
	stb 28,8(1)
.LVL507:
	.loc 1 2327 0
	bl ParseEnt
	.loc 1 2328 0
	lbz 0,8(1)
.LVL508:
	.loc 1 2327 0
	mr 30,3
.LVL509:
	.loc 1 2328 0
	cmpwi 7,0,0
.LVL510:
	beq+ 7,.L404
	.loc 1 2329 0
	addi 3,1,12
.LVL511:
	bl LightFromFile
.LVL512:
	.loc 1 2320 0
	mr 3,30
	bl COM_Parse
.LVL513:
	.loc 1 2324 0
	mr 4,31
	.loc 1 2321 0
	mr. 30,3
	.loc 1 2324 0
	mr 3,29
.LVL514:
	.loc 1 2321 0
	bne+ 0,.L405
.L398:
	.loc 1 2334 0
	lis 9,fog_start+12@ha
	lfs 0,fog_start+12@l(9)
	lis 9,.LC5@ha
	lfs 1,.LC5@l(9)
	fcmpu 7,0,1
	bne- 7,.L396
	.loc 1 2334 0 is_stmt 0 discriminator 1
	lis 9,fog_end+12@ha
	lfs 0,fog_end+12@l(9)
	fcmpu 7,0,1
	beq- 7,.L406
.L396:
	.loc 1 2337 0 is_stmt 1
	lwz 0,44(1)
	lwz 28,24(1)
	mtlr 0
	lwz 29,28(1)
	lwz 30,32(1)
.LVL515:
	lwz 31,36(1)
	addi 1,1,40
	.cfi_remember_state
.LCFI95:
	.cfi_def_cfa_offset 0
	.cfi_restore 31
	.cfi_restore 30
	.cfi_restore 29
	.cfi_restore 28
	blr
.LVL516:
.L406:
.LCFI96:
	.cfi_restore_state
	.loc 1 2335 0
	lis 3,.LC76@ha
	la 3,.LC76@l(3)
	bl Cvar_SetValue
	.loc 1 2337 0
	lwz 0,44(1)
	lwz 28,24(1)
	mtlr 0
	lwz 29,28(1)
	lwz 30,32(1)
.LVL517:
	lwz 31,36(1)
	addi 1,1,40
	.cfi_restore 28
	.cfi_restore 29
	.cfi_restore 30
	.cfi_restore 31
.LCFI97:
	.cfi_def_cfa_offset 0
	blr
	.cfi_endproc
.LFE72:
	.size	LoadLightsFromFile, .-LoadLightsFromFile
	.align 2
	.globl R_AutomaticLightPos
	.type	R_AutomaticLightPos, @function
R_AutomaticLightPos:
.LFB73:
	.loc 1 2339 0
	.cfi_startproc
	.loc 1 2349 0
	lis 9,cl+2688@ha
	lwz 9,cl+2688@l(9)
	lwz 3,412(9)
	.loc 1 2350 0
	.loc 1 2349 0
	b LoadLightsFromFile
	.cfi_endproc
.LFE73:
	.size	R_AutomaticLightPos, .-R_AutomaticLightPos
	.globl done
	.globl testvect
	.comm	currentlightroot,4,4
	.comm	VolumeVertsPointer,4,4
	.comm	numLeafList,4,4
	.comm	leafList,128,4
	.comm	cut_ent,4,4
	.comm	cubemap_tex_obj,256,4
	.comm	worldvis,1024,4
	.comm	lightvis,4,4
	.comm	shadowchain,4,4
	.comm	numVolumeVerts,4,4
	.comm	numLightCmds,4,4
	.comm	numVolumeCmds,4,4
	.comm	lightCmdsBuff,262656,4
	.comm	volumeVertsBuff,350036,4
	.comm	volumeCmdsBuff,524800,4
	.comm	currentshadowlight,4,4
	.comm	usedshadowlights,256,4
	.comm	shadowlights,280576,4
	.comm	numUsedShadowLights,4,4
	.comm	numStaticShadowLights,4,4
	.comm	numShadowLights,4,4
	.comm	causticschain,4,4
	.section	.rodata.cst4,"aM",@progbits,4
	.align 2
.LC0:
	.4byte	1065353216
.LC1:
	.4byte	1135542272
.LC3:
	.4byte	1501560836
.LC4:
	.4byte	1140850688
.LC5:
	.4byte	0
.LC11:
	.4byte	-915135488
.LC13:
	.4byte	1232348160
.LC15:
	.4byte	1031798784
.LC18:
	.4byte	1132396544
.LC22:
	.4byte	1112014848
.LC23:
	.4byte	1092616192
.LC27:
	.4byte	1073741824
.LC28:
	.4byte	1056964608
.LC30:
	.4byte	.LC21
.LC31:
	.4byte	.LC26
.LC34:
	.4byte	1501560832
.LC35:
	.4byte	1174667264
.LC38:
	.4byte	1106247680
.LC47:
	.4byte	1063675494
.LC48:
	.4byte	1061158912
.LC50:
	.4byte	-1082130432
.LC51:
	.4byte	1098907648
	.section	.rodata.cst8,"aM",@progbits,8
	.align 3
.LC8:
	.4byte	1049065381
	.4byte	-814559571
.LC9:
	.4byte	1072693247
	.4byte	-138
.LC16:
	.4byte	1074340347
	.4byte	1413754136
.LC19:
	.4byte	1069128089
	.4byte	-1717986918
.LC36:
	.4byte	1072064102
	.4byte	1717986918
.LC41:
	.4byte	0
	.4byte	0
	.section	".data"
	.align 2
	.type	testvect, @object
	.size	testvect, 12
testvect:
	.long	1092616192
	.long	1092616192
	.long	1092616192
	.section	.rodata.str1.4,"aMS",@progbits,1
	.align 2
.LC6:
	.string	"progs/flame2.mdl"
	.zero	3
.LC7:
	.string	"progs/flame.mdl"
.LC20:
	.string	"R_InitShadowsForFrame: More than MAXUSEDSHADOWLIGHS lights for frame\n"
	.zero	2
.LC21:
	.string	"Water/Sky in shadow chain!!"
.LC24:
	.string	"More than MAX_VOLUME_VERTS vetices! %i\n"
.LC25:
	.string	"More than MAX_VOLUME_COMMANDS commands! %i\n"
.LC26:
	.string	"Polygon to far\n"
.LC29:
	.string	"More than MAX_LIGHT_COMMANDS commands %i\n"
	.zero	2
.LC39:
	.string	"Weird leaf index %i, %i\n"
	.zero	3
.LC40:
	.string	"Error: to many edges"
	.zero	3
.LC42:
	.string	"null model"
	.zero	1
.LC43:
	.string	"progs/s_light.spr"
	.zero	2
.LC44:
	.string	"progs/b_light.spr"
	.zero	2
.LC45:
	.string	"progs/w_light.spr"
	.zero	2
.LC46:
	.string	"R_CalcSvBsp: More than MAXSHADOWLIGHTS lights"
	.zero	2
.LC53:
	.string	"Added surface light"
.LC54:
	.string	"ParseEnt: EOF without closing brace"
.LC55:
	.string	"ED_ParseEntity: EOF without closing brace"
	.zero	2
.LC56:
	.string	"ED_ParseEntity: closing brace without data"
	.zero	1
.LC57:
	.string	"classname"
	.zero	2
.LC58:
	.string	"light"
	.zero	2
.LC59:
	.string	"origin"
	.zero	1
.LC60:
	.string	"_noautolight"
	.zero	3
.LC61:
	.string	"Automatic light gen disabled\n"
	.zero	2
.LC62:
	.string	"_skybox"
.LC63:
	.string	"_cloudspeed"
.LC64:
	.string	"_lightmapbright"
.LC65:
	.string	"sh_lightmapbright"
	.zero	2
.LC66:
	.string	"Lightmap brightness set to %f\n"
	.zero	1
.LC67:
	.string	"_fog_color"
	.zero	1
.LC68:
	.string	"fog_r"
	.zero	2
.LC69:
	.string	"fog_g"
	.zero	2
.LC70:
	.string	"fog_b"
	.zero	2
.LC71:
	.string	"_fog_start"
	.zero	1
.LC72:
	.string	"fog_start"
	.zero	2
.LC73:
	.string	"_fog_end"
	.zero	3
.LC74:
	.string	"fog_end"
.LC75:
	.string	"ED_LoadFromFile: found %s when expecting {"
	.zero	1
.LC76:
	.string	"fog_enabled"
	.section	.sbss,"aw",@nobits
	.align 2
	.type	done, @object
	.size	done, 4
done:
	.zero	4
	.section	".text"
.Letext0:
	.file 3 "d:/Data/Nintendo/TenebraeGX/src/common.h"
	.file 4 "d:/Data/Nintendo/TenebraeGX/src/bspfile.h"
	.file 5 "d:/Data/Nintendo/TenebraeGX/src/vid.h"
	.file 6 "d:/Data/Nintendo/TenebraeGX/src/zone.h"
	.file 7 "d:/Data/Nintendo/TenebraeGX/src/mathlib.h"
	.file 8 "d:/Data/Nintendo/TenebraeGX/src/quakedef.h"
	.file 9 "d:/Data/Nintendo/TenebraeGX/src/cvar.h"
	.file 10 "d:/Data/Nintendo/TenebraeGX/src/sound.h"
	.file 11 "d:/Data/Nintendo/TenebraeGX/src/render.h"
	.file 12 "d:/Data/Nintendo/TenebraeGX/src/gl_model.h"
	.file 13 "d:/Data/Nintendo/TenebraeGX/src/glquake.h"
	.file 14 "d:/Data/Nintendo/TenebraeGX/src/client.h"
	.file 15 "d:/Data/Nintendo/TenebraeGX/src/modelgen.h"
	.file 16 "d:/Data/Nintendo/TenebraeGX/src/world.h"
	.file 17 "d:/Data/Nintendo/TenebraeGX/gl2gx/include/GL/gl.h"
	.file 18 "c:/utils/devkitPro/libogc/include/gctypes.h"