	.file	"gl_stacks.c"
	.section	".text"
.Ltext0:
	.cfi_sections	.debug_frame
	.align 2
	.type	pushAccum, @function
pushAccum:
.LFB64:
	.file 1 "d:/Data/Nintendo/TenebraeGX/gl2gx/source/gl_stacks.c"
	.loc 1 18 0
	.cfi_startproc
.LVL0:
	.loc 1 21 0
	lwz 9,0(3)
	li 0,0
	addi 9,9,16
	cmplw 7,9,4
	bgt- 7,.L2
	.loc 1 23 0
	stw 9,0(3)
	.loc 1 25 0
	li 0,1
.L2:
	.loc 1 26 0
	mr 3,0
.LVL1:
	blr
	.cfi_endproc
.LFE64:
	.size	pushAccum, .-pushAccum
	.align 2
	.type	popAccum, @function
popAccum:
.LFB65:
	.loc 1 29 0
	.cfi_startproc
.LVL2:
	.loc 1 32 0
	lwz 9,0(3)
	.loc 1 33 0
	.loc 1 32 0
	addi 0,9,-16
	stw 0,0(3)
	.loc 1 33 0
	blr
	.cfi_endproc
.LFE65:
	.size	popAccum, .-popAccum
	.align 2
	.type	popColorBuffer, @function
popColorBuffer:
.LFB67:
	.loc 1 97 0
	.cfi_startproc
.LVL3:
	.loc 1 100 0
	lwz 9,0(3)
	.loc 1 102 0
	lis 11,blend_type@ha
	.loc 1 108 0
	lis 10,color_write_mask@ha
	.loc 1 100 0
	addi 0,9,-44
	stw 0,0(3)
	.loc 1 102 0
	lbz 0,-28(9)
	.loc 1 107 0
	lwz 8,-4(9)
	.loc 1 102 0
	stb 0,blend_type@l(11)
	.loc 1 103 0
	lis 11,blend_src@ha
	lbz 0,-27(9)
	stb 0,blend_src@l(11)
	.loc 1 104 0
	lis 11,blend_dst@ha
	lbz 0,-26(9)
	stb 0,blend_dst@l(11)
	.loc 1 108 0
	la 11,color_write_mask@l(10)
	.loc 1 105 0
	lbz 0,-25(9)
	.loc 1 107 0
	lis 9,_clearcolor@ha
	stw 8,_clearcolor@l(9)
	.loc 1 105 0
	lis 9,blend_op@ha
	stb 0,blend_op@l(9)
	.loc 1 108 0
	lwz 9,0(3)
	lwz 0,0(9)
	rlwinm 7,0,5,31,31
	.loc 1 109 0
	rlwinm 8,0,6,31,31
	.loc 1 110 0
	rlwinm 9,0,7,31,31
	.loc 1 111 0
	rlwinm 0,0,8,31,31
	.loc 1 109 0
	stb 8,1(11)
	.loc 1 110 0
	stb 9,2(11)
	.loc 1 111 0
	stb 0,3(11)
	.loc 1 112 0
	.loc 1 108 0
	stb 7,color_write_mask@l(10)
	.loc 1 112 0
	blr
	.cfi_endproc
.LFE67:
	.size	popColorBuffer, .-popColorBuffer
	.align 2
	.type	popCurrent, @function
popCurrent:
.LFB69:
	.loc 1 162 0
	.cfi_startproc
.LVL4:
	.loc 1 165 0
	lwz 8,0(3)
	.loc 1 168 0
	lis 10,_tempnormalelement@ha
	.loc 1 162 0
	stwu 1,-24(1)
.LCFI0:
	.cfi_def_cfa_offset 24
	.loc 1 167 0
	lis 7,_tempcolorelement@ha
	.loc 1 168 0
	lwz 0,-168(8)
	la 11,_tempnormalelement@l(10)
	.loc 1 167 0
	lwz 12,-184(8)
	la 9,_tempcolorelement@l(7)
	lwz 4,-180(8)
	.loc 1 168 0
	lwz 5,-176(8)
	lwz 6,-172(8)
	.loc 1 162 0
	stw 29,12(1)
	.loc 1 165 0
	addi 29,8,-200
	.cfi_offset 29, -12
	.loc 1 162 0
	stw 30,16(1)
	stw 31,20(1)
	.loc 1 167 0
	lwz 30,-192(8)
	.cfi_offset 31, -4
	.cfi_offset 30, -8
	lwz 31,-188(8)
	.loc 1 161 0
	addi 8,8,-172
	.loc 1 165 0
	stw 29,0(3)
	.loc 1 168 0
	stw 0,8(11)
.LVL5:
	.loc 1 161 0
	li 0,8
	.loc 1 167 0
	stw 31,4(9)
	.loc 1 161 0
	mtctr 0
	.loc 1 167 0
	stw 12,8(9)
	stw 4,12(9)
	.loc 1 168 0
	lis 9,_temptexcoordelement-8@ha
	.loc 1 167 0
	stw 30,_tempcolorelement@l(7)
	.loc 1 168 0
	la 9,_temptexcoordelement-8@l(9)
	stw 5,_tempnormalelement@l(10)
	stw 6,4(11)
.LVL6:
.L8:
	.loc 1 173 0 discriminator 2
	addi 8,8,8
	lwz 10,0(8)
	lwz 11,4(8)
	stwu 10,8(9)
	stw 11,4(9)
	.loc 1 171 0 discriminator 2
	bdnz .L8
	.loc 1 175 0
	lwz 29,12(1)
	lwz 30,16(1)
	lwz 31,20(1)
	addi 1,1,24
.LCFI1:
	.cfi_def_cfa_offset 0
	.cfi_restore 31
	.cfi_restore 30
	.cfi_restore 29
	blr
	.cfi_endproc
.LFE69:
	.size	popCurrent, .-popCurrent
	.align 2
	.type	popDepthBuffer, @function
popDepthBuffer:
.LFB71:
	.loc 1 205 0
	.cfi_startproc
.LVL7:
	.loc 1 208 0
	lwz 9,0(3)
	.loc 1 210 0
	lis 10,depthtestenabled@ha
	.loc 1 208 0
	addi 0,9,-8
	.loc 1 213 0
	lwz 11,-4(9)
	.loc 1 208 0
	stw 0,0(3)
	.loc 1 210 0
	lwz 0,-8(9)
	srwi 8,0,31
	.loc 1 211 0
	rlwinm 0,0,2,31,31
	.loc 1 210 0
	stb 8,depthtestenabled@l(10)
	.loc 1 211 0
	lis 10,depthupdate@ha
	stb 0,depthupdate@l(10)
	.loc 1 212 0
	lbz 0,-7(9)
	lis 9,depthfunction@ha
	.loc 1 214 0
	.loc 1 212 0
	stw 0,depthfunction@l(9)
	.loc 1 213 0
	lis 9,_cleardepth@ha
	stw 11,_cleardepth@l(9)
	.loc 1 214 0
	blr
	.cfi_endproc
.LFE71:
	.size	popDepthBuffer, .-popDepthBuffer
	.align 2
	.type	pushEval, @function
pushEval:
.LFB74:
	.loc 1 343 0
	.cfi_startproc
.LVL8:
	.loc 1 342 0
	lwz 3,0(3)
.LVL9:
	.loc 1 351 0
	subfc 3,3,4
	li 3,0
	adde 3,3,3
	blr
	.cfi_endproc
.LFE74:
	.size	pushEval, .-pushEval
	.align 2
	.type	popEval, @function
popEval:
.LFB75:
	.loc 1 354 0
	.cfi_startproc
.LVL10:
	.loc 1 358 0
	blr
	.cfi_endproc
.LFE75:
	.size	popEval, .-popEval
	.align 2
	.type	popFog, @function
popFog:
.LFB77:
	.loc 1 403 0
	.cfi_startproc
.LVL11:
	.loc 1 406 0
	lwz 9,0(3)
	.loc 1 408 0
	lis 8,fog_enable@ha
	.loc 1 406 0
	addi 0,9,-24
	.loc 1 411 0
	lwz 10,-16(9)
	.loc 1 406 0
	stw 0,0(3)
	.loc 1 412 0
	lwz 11,-12(9)
	.loc 1 408 0
	lwz 0,-24(9)
	rlwinm 0,0,0,0,0
	cntlzw 0,0
	srwi 0,0,5
	xori 0,0,1
	stb 0,fog_enable@l(8)
	.loc 1 414 0
	lwz 0,-4(9)
	.loc 1 409 0
	lbz 8,-23(9)
	lis 9,fog_mode@ha
	.loc 1 415 0
	.loc 1 409 0
	stb 8,fog_mode@l(9)
	.loc 1 411 0
	lis 9,fog_startz@ha
	stw 10,fog_startz@l(9)
	.loc 1 412 0
	lis 9,fog_endz@ha
	stw 11,fog_endz@l(9)
	.loc 1 414 0
	lis 9,fog_color@ha
	stw 0,fog_color@l(9)
	.loc 1 415 0
	blr
	.cfi_endproc
.LFE77:
	.size	popFog, .-popFog
	.align 2
	.type	pushHint, @function
pushHint:
.LFB78:
	.loc 1 427 0
	.cfi_startproc
.LVL12:
	.loc 1 426 0
	lwz 3,0(3)
.LVL13:
	.loc 1 435 0
	subfc 3,3,4
	li 3,0
	adde 3,3,3
	blr
	.cfi_endproc
.LFE78:
	.size	pushHint, .-pushHint
	.align 2
	.type	popHint, @function
popHint:
.LFB79:
	.loc 1 438 0
	.cfi_startproc
.LVL14:
	.loc 1 442 0
	blr
	.cfi_endproc
.LFE79:
	.size	popHint, .-popHint
	.align 2
	.type	popLighting, @function
popLighting:
.LFB81:
	.loc 1 497 0
	.cfi_startproc
.LVL15:
	mflr 0
	stwu 1,-24(1)
.LCFI2:
	.cfi_def_cfa_offset 24
	.cfi_register 65, 0
	.loc 1 505 0
	lis 11,globAmbient@ha
	.loc 1 497 0
	stw 29,12(1)
	.loc 1 505 0
	la 9,globAmbient@l(11)
	.loc 1 497 0
	stw 0,28(1)
	stw 30,16(1)
	.loc 1 500 0
	lwz 29,0(3)
	.cfi_offset 30, -8
	.cfi_offset 65, 4
	.cfi_offset 29, -12
	.loc 1 497 0
	stw 28,8(1)
	lis 28,lights@ha
	.cfi_offset 28, -16
	.loc 1 500 0
	addi 30,29,-1412
	.loc 1 497 0
	stw 31,20(1)
	.loc 1 500 0
	stw 30,0(3)
	.loc 1 502 0
	lis 3,copy_mat_enabled@ha
.LVL16:
	.loc 1 504 0
	lwz 4,-1404(29)
	.loc 1 505 0
	li 31,0
	.cfi_offset 31, -4
	.loc 1 502 0
	lwz 10,-1412(29)
	la 28,lights@l(28)
	.loc 1 505 0
	lwz 5,-1400(29)
	.loc 1 502 0
	rlwinm 0,10,0,0,0
	.loc 1 505 0
	lwz 6,-1396(29)
	.loc 1 502 0
	cntlzw 0,0
	.loc 1 505 0
	lwz 7,-1392(29)
	.loc 1 502 0
	srwi 0,0,5
	.loc 1 505 0
	lwz 8,-1388(29)
	.loc 1 502 0
	xori 0,0,1
	.loc 1 503 0
	rlwinm 10,10,2,31,31
	.loc 1 502 0
	stb 0,copy_mat_enabled@l(3)
	.loc 1 503 0
	lis 3,lighting@ha
	stb 10,lighting@l(3)
	.loc 1 504 0
	lis 10,copy_material@ha
	stw 4,copy_material@l(10)
	.loc 1 505 0
	stw 5,globAmbient@l(11)
	stw 6,4(9)
	stw 7,8(9)
	stw 8,12(9)
.LVL17:
.L17:
	.loc 1 496 0 discriminator 2
	add 4,30,31
	.loc 1 511 0 discriminator 2
	add 3,28,31
	addi 4,4,28
	li 5,164
	bl memcpy
	.loc 1 509 0 discriminator 2
	cmpwi 7,31,1148
	addi 31,31,164
	bne+ 7,.L17
	.loc 1 514 0
	lis 3,curmat@ha
	addi 4,29,-72
	la 3,curmat@l(3)
	li 5,68
	bl memcpy
	.loc 1 515 0
	lwz 0,28(1)
	lwz 28,8(1)
	mtlr 0
	lwz 29,12(1)
	lwz 30,16(1)
	lwz 31,20(1)
	addi 1,1,24
.LCFI3:
	.cfi_def_cfa_offset 0
	.cfi_restore 31
	.cfi_restore 30
	.cfi_restore 29
	.cfi_restore 28
	blr
	.cfi_endproc
.LFE81:
	.size	popLighting, .-popLighting
	.align 2
	.type	popLine, @function
popLine:
.LFB83:
	.loc 1 542 0
	.cfi_startproc
.LVL18:
	.loc 1 545 0
	lwz 9,0(3)
	.loc 1 547 0
	lwz 0,-4(9)
	.loc 1 545 0
	addi 9,9,-16
	stw 9,0(3)
	.loc 1 547 0
	lis 9,line_width@ha
	stw 0,line_width@l(9)
	.loc 1 548 0
	blr
	.cfi_endproc
.LFE83:
	.size	popLine, .-popLine
	.align 2
	.type	popListBase, @function
popListBase:
.LFB85:
	.loc 1 568 0
	.cfi_startproc
.LVL19:
	.loc 1 571 0
	lwz 9,0(3)
	.loc 1 573 0
	lwz 0,-4(9)
	.loc 1 571 0
	addi 9,9,-4
	stw 9,0(3)
	.loc 1 573 0
	lis 9,call_offset@ha
	stw 0,call_offset@l(9)
	.loc 1 574 0
	blr
	.cfi_endproc
.LFE85:
	.size	popListBase, .-popListBase
	.align 2
	.type	popPixelMode, @function
popPixelMode:
.LFB87:
	.loc 1 620 0
	.cfi_startproc
.LVL20:
	.loc 1 623 0
	lwz 12,0(3)
	.loc 1 620 0
	stwu 1,-16(1)
.LCFI4:
	.cfi_def_cfa_offset 16
	.loc 1 627 0
	lwz 9,-40(12)
	.loc 1 620 0
	stw 31,12(1)
	.loc 1 625 0
	lis 31,Trans@ha
	.cfi_offset 31, -4
	lwz 4,-60(12)
	la 31,Trans@l(31)
	lwz 5,-56(12)
	.loc 1 626 0
	lwz 6,-52(12)
	lwz 7,-48(12)
	.loc 1 627 0
	lwz 8,-44(12)
	.loc 1 628 0
	lwz 10,-36(12)
	lwz 11,-32(12)
	.loc 1 629 0
	lwz 0,-4(12)
	.loc 1 623 0
	addi 12,12,-64
	stw 12,0(3)
	.loc 1 627 0
	stw 9,20(31)
	.loc 1 629 0
	lis 9,read_mode@ha
	.loc 1 625 0
	stw 4,0(31)
	stw 5,4(31)
	.loc 1 626 0
	stw 6,8(31)
	stw 7,12(31)
	.loc 1 627 0
	stw 8,16(31)
	.loc 1 628 0
	stw 10,24(31)
	stw 11,28(31)
	.loc 1 629 0
	stw 0,read_mode@l(9)
	.loc 1 630 0
	lwz 31,12(1)
	addi 1,1,16
.LCFI5:
	.cfi_def_cfa_offset 0
	.cfi_restore 31
	blr
	.cfi_endproc
.LFE87:
	.size	popPixelMode, .-popPixelMode
	.align 2
	.type	popPoint, @function
popPoint:
.LFB89:
	.loc 1 653 0
	.cfi_startproc
.LVL21:
	.loc 1 656 0
	lwz 9,0(3)
	.loc 1 658 0
	lwz 0,-4(9)
	.loc 1 656 0
	addi 9,9,-8
	stw 9,0(3)
	.loc 1 658 0
	lis 9,point_size@ha
	stw 0,point_size@l(9)
	.loc 1 659 0
	blr
	.cfi_endproc
.LFE89:
	.size	popPoint, .-popPoint
	.align 2
	.type	pushPolyStipple, @function
pushPolyStipple:
.LFB92:
	.loc 1 735 0
	.cfi_startproc
.LVL22:
	.loc 1 738 0
	lwz 9,0(3)
	li 0,0
	addi 9,9,4
	cmplw 7,9,4
	bgt- 7,.L24
.LVL23:
	.loc 1 740 0
	stw 9,0(3)
	.loc 1 742 0
	li 0,1
.LVL24:
.L24:
	.loc 1 743 0
	mr 3,0
.LVL25:
	blr
	.cfi_endproc
.LFE92:
	.size	pushPolyStipple, .-pushPolyStipple
	.align 2
	.type	popPolyStipple, @function
popPolyStipple:
.LFB93:
	.loc 1 746 0
	.cfi_startproc
.LVL26:
	.loc 1 749 0
	lwz 9,0(3)
	.loc 1 750 0
	.loc 1 749 0
	addi 0,9,-4
	stw 0,0(3)
	.loc 1 750 0
	blr
	.cfi_endproc
.LFE93:
	.size	popPolyStipple, .-popPolyStipple
	.align 2
	.type	popScissor, @function
popScissor:
.LFB95:
	.loc 1 773 0
	.cfi_startproc
.LVL27:
	.loc 1 776 0
	lwz 9,0(3)
	.loc 1 779 0
	lis 11,scissorInfo@ha
	.loc 1 778 0
	lis 6,scissor_test@ha
	.loc 1 776 0
	addi 0,9,-20
	.loc 1 779 0
	lwz 8,-12(9)
	.loc 1 776 0
	stw 0,0(3)
	.loc 1 779 0
	lwz 10,-8(9)
	.loc 1 778 0
	lwz 5,-20(9)
	.loc 1 779 0
	lwz 0,-4(9)
	lwz 7,-16(9)
	.loc 1 778 0
	srwi 5,5,31
	.loc 1 779 0
	la 9,scissorInfo@l(11)
	.loc 1 778 0
	stb 5,scissor_test@l(6)
	.loc 1 779 0
	stw 8,4(9)
	stw 10,8(9)
	stw 0,12(9)
	.loc 1 780 0
	.loc 1 779 0
	stw 7,scissorInfo@l(11)
	.loc 1 780 0
	blr
	.cfi_endproc
.LFE95:
	.size	popScissor, .-popScissor
	.align 2
	.type	pushStencil, @function
pushStencil:
.LFB96:
	.loc 1 800 0
	.cfi_startproc
.LVL28:
	.loc 1 803 0
	lwz 9,0(3)
	li 0,0
	addi 9,9,32
	cmplw 7,9,4
	bgt- 7,.L29
.LVL29:
	.loc 1 805 0
	stw 9,0(3)
	.loc 1 807 0
	li 0,1
.LVL30:
.L29:
	.loc 1 808 0
	mr 3,0
.LVL31:
	blr
	.cfi_endproc
.LFE96:
	.size	pushStencil, .-pushStencil
	.align 2
	.type	popStencil, @function
popStencil:
.LFB97:
	.loc 1 811 0
	.cfi_startproc
.LVL32:
	.loc 1 814 0
	lwz 9,0(3)
	.loc 1 815 0
	.loc 1 814 0
	addi 0,9,-32
	stw 0,0(3)
	.loc 1 815 0
	blr
	.cfi_endproc
.LFE97:
	.size	popStencil, .-popStencil
	.align 2
	.type	popTexture, @function
popTexture:
.LFB99:
	.loc 1 853 0
	.cfi_startproc
.LVL33:
	mflr 0
	stwu 1,-24(1)
.LCFI6:
	.cfi_def_cfa_offset 24
	.cfi_register 65, 0
	stw 29,12(1)
	.loc 1 856 0
	lis 29,_temptexcoordelement-8@ha
	.cfi_offset 29, -12
	.loc 1 853 0
	stw 0,28(1)
	.loc 1 856 0
	la 29,_temptexcoordelement-8@l(29)
	.loc 1 853 0
	stw 30,16(1)
	.loc 1 856 0
	lis 30,glTexEnvs@ha
	.cfi_offset 30, -8
	.cfi_offset 65, 4
	lwz 4,0(3)
	la 30,glTexEnvs@l(30)
	.loc 1 853 0
	stw 28,8(1)
	mr 28,3
	.cfi_offset 28, -16
.LVL34:
	.loc 1 856 0
	addi 4,4,-928
	.loc 1 853 0
	stw 31,20(1)
	.loc 1 856 0
	stw 4,0(3)
.LVL35:
	.loc 1 860 0
	li 31,0
	.cfi_offset 31, -4
	b .L34
.LVL36:
.L35:
	lwz 4,0(28)
.LVL37:
.L34:
	.loc 1 862 0 discriminator 2
	slwi 9,31,3
	.loc 1 863 0 discriminator 2
	mulli 0,31,108
	.loc 1 862 0 discriminator 2
	add 9,4,9
	.loc 1 863 0 discriminator 2
	mr 3,30
	.loc 1 862 0 discriminator 2
	lwz 10,0(9)
	.loc 1 863 0 discriminator 2
	add 4,4,0
	.loc 1 862 0 discriminator 2
	lwz 11,4(9)
	.loc 1 863 0 discriminator 2
	addi 4,4,64
	.loc 1 862 0 discriminator 2
	stwu 10,8(29)
	.loc 1 863 0 discriminator 2
	li 5,108
	.loc 1 860 0 discriminator 2
	addi 30,30,108
	.loc 1 862 0 discriminator 2
	stw 11,4(29)
	.loc 1 863 0 discriminator 2
	bl memcpy
.LVL38:
	.loc 1 860 0 discriminator 2
	cmpwi 7,31,7
	addi 31,31,1
.LVL39:
	bne+ 7,.L35
	.loc 1 865 0
	lwz 0,28(1)
	lwz 28,8(1)
.LVL40:
	mtlr 0
	lwz 29,12(1)
	lwz 30,16(1)
	lwz 31,20(1)
.LVL41:
	addi 1,1,24
.LCFI7:
	.cfi_def_cfa_offset 0
	.cfi_restore 31
	.cfi_restore 30
	.cfi_restore 29
	.cfi_restore 28
	blr
	.cfi_endproc
.LFE99:
	.size	popTexture, .-popTexture
	.align 2
	.type	popTransform, @function
popTransform:
.LFB101:
	.loc 1 897 0
	.cfi_startproc
.LVL42:
	.loc 1 900 0
	lwz 9,0(3)
	.loc 1 902 0
	lwz 0,-4(9)
	.loc 1 900 0
	addi 9,9,-104
	stw 9,0(3)
	.loc 1 902 0
	lis 9,cur_mode@ha
	stw 0,cur_mode@l(9)
	.loc 1 903 0
	blr
	.cfi_endproc
.LFE101:
	.size	popTransform, .-popTransform
	.align 2
	.type	popViewport, @function
popViewport:
.LFB103:
	.loc 1 927 0
	.cfi_startproc
.LVL43:
	.loc 1 930 0
	lwz 9,0(3)
	.loc 1 934 0
	lis 10,viewPort@ha
	la 11,viewPort@l(10)
	.loc 1 932 0
	lwz 4,-24(9)
	.loc 1 933 0
	lwz 5,-20(9)
	.loc 1 934 0
	lwz 6,-16(9)
	lwz 7,-12(9)
	lwz 8,-8(9)
	lwz 0,-4(9)
	.loc 1 930 0
	addi 9,9,-24
	stw 9,0(3)
	.loc 1 932 0
	lis 9,normNear@ha
	stw 4,normNear@l(9)
	.loc 1 933 0
	lis 9,normFar@ha
	stw 5,normFar@l(9)
	.loc 1 935 0
	.loc 1 934 0
	stw 6,viewPort@l(10)
	stw 7,4(11)
	stw 8,8(11)
	stw 0,12(11)
	.loc 1 935 0
	blr
	.cfi_endproc
.LFE103:
	.size	popViewport, .-popViewport
	.align 2
	.type	popPixelStore, @function
popPixelStore:
.LFB113:
	.loc 1 1139 0
	.cfi_startproc
.LVL44:
	.loc 1 1142 0
	lwz 9,0(3)
	.loc 1 1144 0
	lis 7,pack@ha
	.loc 1 1139 0
	stwu 1,-32(1)
.LCFI8:
	.cfi_def_cfa_offset 32
	.loc 1 1145 0
	lis 8,unpack@ha
	lwz 12,-20(9)
	.loc 1 1144 0
	la 10,pack@l(7)
	.loc 1 1145 0
	lwz 4,-16(9)
	la 11,unpack@l(8)
	lwz 5,-12(9)
	lwz 6,-8(9)
	lwz 0,-4(9)
	.loc 1 1139 0
	stw 27,12(1)
	stw 28,16(1)
	.loc 1 1144 0
	lwz 27,-40(9)
	.cfi_offset 28, -16
	.cfi_offset 27, -20
	lwz 28,-36(9)
	.loc 1 1139 0
	stw 29,20(1)
	stw 30,24(1)
	.loc 1 1144 0
	lwz 29,-32(9)
	.cfi_offset 30, -8
	.cfi_offset 29, -12
	lwz 30,-28(9)
	.loc 1 1139 0
	stw 31,28(1)
	.loc 1 1144 0
	lwz 31,-24(9)
	.cfi_offset 31, -4
	.loc 1 1142 0
	addi 9,9,-40
	stw 9,0(3)
	.loc 1 1144 0
	stw 27,pack@l(7)
	stw 28,4(10)
	stw 29,8(10)
	stw 30,12(10)
	stw 31,16(10)
	.loc 1 1146 0
	lwz 27,12(1)
	lwz 28,16(1)
	lwz 29,20(1)
	lwz 30,24(1)
	lwz 31,28(1)
	.loc 1 1145 0
	stw 12,unpack@l(8)
	stw 4,4(11)
	stw 5,8(11)
	stw 6,12(11)
	stw 0,16(11)
	.loc 1 1146 0
	addi 1,1,32
.LCFI9:
	.cfi_def_cfa_offset 0
	.cfi_restore 31
	.cfi_restore 30
	.cfi_restore 29
	.cfi_restore 28
	.cfi_restore 27
	blr
	.cfi_endproc
.LFE113:
	.size	popPixelStore, .-popPixelStore
	.align 2
	.type	popVertexArray, @function
popVertexArray:
.LFB115:
	.loc 1 1179 0
	.cfi_startproc
.LVL45:
	.loc 1 1182 0
	lwz 9,0(3)
	.loc 1 1184 0
	lis 10,norm@ha
	la 11,norm@l(10)
	.loc 1 1182 0
	addi 0,9,-220
	stw 0,0(3)
	.loc 1 1184 0
	lwz 5,-220(9)
	lwz 6,-216(9)
	lwz 7,-212(9)
	lwz 8,-208(9)
	lwz 0,-204(9)
	stw 6,4(11)
	stw 7,8(11)
	stw 8,12(11)
	stw 0,16(11)
	stw 5,norm@l(10)
	.loc 1 1185 0
	lis 10,vert@ha
	la 11,vert@l(10)
	lwz 9,0(3)
	lwz 5,20(9)
	lwz 6,24(9)
	lwz 7,28(9)
	lwz 8,32(9)
	lwz 0,36(9)
	stw 6,4(11)
	stw 7,8(11)
	stw 8,12(11)
	stw 5,vert@l(10)
	.loc 1 1186 0
	lis 10,color@ha
	.loc 1 1185 0
	stw 0,16(11)
	.loc 1 1186 0
	la 11,color@l(10)
	lwz 9,0(3)
	lwz 5,200(9)
	lwz 6,204(9)
	lwz 7,208(9)
	lwz 8,212(9)
	lwz 0,216(9)
	lis 9,tex@ha
	stw 5,color@l(10)
	la 9,tex@l(9)
	stw 6,4(11)
	.loc 1 1189 0
	li 10,0
	.loc 1 1186 0
	stw 7,8(11)
	stw 8,12(11)
	stw 0,16(11)
.LVL46:
	.loc 1 1189 0
	li 0,8
	mtctr 0
.LVL47:
.L40:
	.loc 1 1191 0 discriminator 2
	lwz 11,0(3)
	mulli 0,10,20
	.loc 1 1189 0 discriminator 2
	addi 10,10,1
.LVL48:
	.loc 1 1191 0 discriminator 2
	add 11,11,0
	lwz 0,52(11)
	lwz 6,40(11)
	lwz 7,44(11)
	lwz 8,48(11)
	stw 6,0(9)
	stw 7,4(9)
	stw 8,8(9)
	stw 0,12(9)
	lwz 0,56(11)
	stw 0,16(9)
	.loc 1 1189 0 discriminator 2
	addi 9,9,20
	bdnz .L40
	.loc 1 1193 0
	blr
	.cfi_endproc
.LFE115:
	.size	popVertexArray, .-popVertexArray
	.align 2
	.type	popPolygon, @function
popPolygon:
.LFB91:
	.loc 1 717 0
	.cfi_startproc
.LVL49:
	mflr 0
	stwu 1,-16(1)
.LCFI10:
	.cfi_def_cfa_offset 16
	.cfi_register 65, 0
	stw 31,12(1)
	mr 31,3
	.cfi_offset 31, -4
.LVL50:
	stw 0,20(1)
	.loc 1 720 0
	lwz 9,0(3)
	addi 0,9,-24
	.cfi_offset 65, 4
	stw 0,0(3)
	.loc 1 722 0
	lwz 3,-20(9)
.LVL51:
	bl glCullFace
	.loc 1 724 0
	lwz 9,0(31)
	.loc 1 726 0
	lwz 31,12(1)
.LVL52:
	.loc 1 724 0
	lwz 0,0(9)
	andis. 9,0,16384
	.loc 1 725 0
	rlwinm 0,0,0,0,0
	cntlzw 0,0
	.loc 1 724 0
	lis 9,gxwinding@ha
	mfcr 11
	rlwinm 11,11,3,1
	.loc 1 725 0
	srwi 0,0,5
	xori 0,0,1
	.loc 1 724 0
	subfic 11,11,2305
	stw 11,gxwinding@l(9)
	.loc 1 725 0
	lis 9,gxcullfaceanabled@ha
	stb 0,gxcullfaceanabled@l(9)
	.loc 1 726 0
	lwz 0,20(1)
	addi 1,1,16
.LCFI11:
	.cfi_def_cfa_offset 0
	.cfi_restore 31
	mtlr 0
	blr
	.cfi_endproc
.LFE91:
	.size	popPolygon, .-popPolygon
	.align 2
	.type	popEnable, @function
popEnable:
.LFB73:
	.loc 1 305 0
	.cfi_startproc
.LVL53:
	mflr 0
	stwu 1,-8(1)
.LCFI12:
	.cfi_def_cfa_offset 8
	.cfi_register 65, 0
	.loc 1 310 0
	lis 11,blend_type@ha
	.loc 1 305 0
	stw 0,12(1)
	.loc 1 308 0
	lwz 9,0(3)
	addi 0,9,-8
	.cfi_offset 65, 4
	stw 0,0(3)
	.loc 1 310 0
	lwz 0,-8(9)
	rlwinm 6,0,3,31,31
	.loc 1 313 0
	rlwinm 7,0,6,31,31
	.loc 1 310 0
	stb 6,blend_type@l(11)
	.loc 1 313 0
	lis 11,depthtestenabled@ha
	.loc 1 311 0
	rlwinm 8,0,4,31,31
	.loc 1 313 0
	stb 7,depthtestenabled@l(11)
	.loc 1 311 0
	lis 11,copy_mat_enabled@ha
	.loc 1 312 0
	rlwinm 10,0,5,31,31
	.loc 1 311 0
	stb 8,copy_mat_enabled@l(11)
	.loc 1 312 0
	lis 11,gxcullfaceanabled@ha
	stb 10,gxcullfaceanabled@l(11)
	.loc 1 314 0
	rlwinm 0,0,8,31,31
	lis 11,fog_enable@ha
	.loc 1 320 0
	li 10,1
	.loc 1 314 0
	stb 0,fog_enable@l(11)
	.loc 1 317 0
	li 0,0
	stb 0,-6(9)
.LVL54:
	.loc 1 320 0
	li 0,8
	.loc 1 317 0
	lis 11,lights@ha
	.loc 1 320 0
	mtctr 0
	.loc 1 317 0
	lwz 7,0(3)
	la 11,lights@l(11)
	.loc 1 318 0
	li 9,0
	.loc 1 317 0
	lbz 8,2(7)
.LVL55:
.L47:
	.loc 1 320 0
	slw 0,10,9
	.loc 1 318 0
	addi 9,9,1
	.loc 1 320 0
	and. 6,0,8
	beq- 0,.L46
	.loc 1 322 0
	stb 10,0(11)
.L46:
.LVL56:
	.loc 1 318 0
	addi 11,11,164
	bdnz .L47
	.loc 1 326 0
	lwz 0,0(7)
	lis 9,lighting@ha
.LVL57:
	rlwinm 0,0,25,31,31
	stb 0,lighting@l(9)
	.loc 1 327 0
	lis 9,scissor_test@ha
	lwz 3,4(7)
.LVL58:
	rlwinm 0,3,5,31,31
	.loc 1 330 0
	rlwinm 3,3,8,31,31
	.loc 1 327 0
	stb 0,scissor_test@l(9)
.LVL59:
	.loc 1 330 0
	bl _glSetEnableTex
.LVL60:
	.loc 1 331 0
	lwz 0,12(1)
	addi 1,1,8
.LCFI13:
	.cfi_def_cfa_offset 0
	mtlr 0
	blr
	.cfi_endproc
.LFE73:
	.size	popEnable, .-popEnable
	.align 2
	.type	pop, @function
pop:
.LFB109:
	.loc 1 1077 0
	.cfi_startproc
.LVL61:
	mflr 0
	stwu 1,-32(1)
.LCFI14:
	.cfi_def_cfa_offset 32
	.cfi_register 65, 0
	stw 31,28(1)
	mr 31,3
	.cfi_offset 31, -4
	stw 0,36(1)
	stw 27,12(1)
	.loc 1 1080 0
	lwz 9,64(3)
	.loc 1 1077 0
	stw 28,16(1)
	.loc 1 1080 0
	cmpwi 7,9,0
	.loc 1 1077 0
	stw 29,20(1)
	stw 30,24(1)
	.loc 1 1080 0
	beq- 7,.L60
	.cfi_offset 30, -8
	.cfi_offset 29, -12
	.cfi_offset 28, -16
	.cfi_offset 27, -20
	.cfi_offset 65, 4
	.loc 1 1090 0
	lwz 11,68(3)
	.loc 1 1086 0
	addi 9,9,-1
	.loc 1 1090 0
	lwz 0,72(3)
	.loc 1 1088 0
	slwi 10,9,2
	.loc 1 1086 0
	stw 9,64(3)
	.loc 1 1090 0
	cmplw 7,11,0
	.loc 1 1088 0
	lwzx 28,3,10
.LVL62:
	.loc 1 1090 0
	bgt- 7,.L61
.LVL63:
.LBB18:
.LBB19:
	.loc 1 986 0
	lwz 9,76(3)
	add 11,11,9
.LBE19:
.LBE18:
	.loc 1 1091 0
	cmplw 7,0,11
	bgt- 7,.L62
.LVL64:
	.loc 1 1093 0
	addic. 29,5,-1
	blt- 0,.L49
	.loc 1 1095 0
	mulli 30,5,12
	.loc 1 1097 0
	addi 27,3,72
	.loc 1 1095 0
	addi 30,30,-12
	add 30,4,30
	b .L55
.LVL65:
.L54:
	.loc 1 1093 0
	addic. 29,29,-1
.LVL66:
	addi 30,30,-12
	blt- 0,.L63
.L55:
	.loc 1 1095 0
	lwz 0,0(30)
	and 9,0,28
	cmpw 7,0,9
	bne+ 7,.L54
	.loc 1 1097 0
	lwz 0,8(30)
	mr 3,27
	.loc 1 1093 0
	addi 30,30,-12
	.loc 1 1097 0
	mtctr 0
	bctrl
.LVL67:
	.loc 1 1093 0
	addic. 29,29,-1
.LVL68:
	bge+ 0,.L55
.L63:
	.loc 1 1101 0
	lwz 9,68(31)
	lwz 0,72(31)
	cmplw 7,9,0
	bgt- 7,.L64
	.loc 1 1102 0
	lwz 11,76(31)
	add 9,9,11
	cmplw 7,0,9
	bgt- 7,.L65
.L49:
	.loc 1 1103 0
	lwz 0,36(1)
	lwz 27,12(1)
	mtlr 0
	lwz 28,16(1)
.LVL69:
	lwz 29,20(1)
.LVL70:
	lwz 30,24(1)
	lwz 31,28(1)
.LVL71:
	addi 1,1,32
	.cfi_remember_state
.LCFI15:
	.cfi_def_cfa_offset 0
	.cfi_restore 31
	.cfi_restore 30
	.cfi_restore 29
	.cfi_restore 28
	.cfi_restore 27
	blr
.LVL72:
.L60:
.LCFI16:
	.cfi_restore_state
	.loc 1 1082 0
	lis 4,.LC0@ha
.LVL73:
	li 3,1284
.LVL74:
	la 4,.LC0@l(4)
	li 5,1082
.LVL75:
	bl _glSetErrorEx
	.loc 1 1103 0
	lwz 0,36(1)
	lwz 27,12(1)
	mtlr 0
	lwz 28,16(1)
	lwz 29,20(1)
	lwz 30,24(1)
	lwz 31,28(1)
.LVL76:
	addi 1,1,32
	.cfi_remember_state
	.cfi_restore 27
	.cfi_restore 28
	.cfi_restore 29
	.cfi_restore 30
	.cfi_restore 31
.LCFI17:
	.cfi_def_cfa_offset 0
	blr
.LVL77:
.L65:
.LCFI18:
	.cfi_restore_state
	.loc 1 1102 0 discriminator 1
	lis 3,.LC0@ha
	li 4,1102
	la 3,.LC0@l(3)
.LVL78:
.L59:
	lis 5,.LANCHOR0@ha
	lis 6,.LC2@ha
	la 5,.LANCHOR0@l(5)
	la 6,.LC2@l(6)
	bl __assert_func
.LVL79:
.L64:
	.loc 1 1101 0 discriminator 1
	lis 3,.LC0@ha
	li 4,1101
	la 3,.LC0@l(3)
.LVL80:
.L58:
	lis 5,.LANCHOR0@ha
	lis 6,.LC1@ha
	la 5,.LANCHOR0@l(5)
	la 6,.LC1@l(6)
	bl __assert_func
.LVL81:
.L62:
	.loc 1 1091 0 discriminator 1
	lis 3,.LC0@ha
	li 4,1091
.LVL82:
	la 3,.LC0@l(3)
	b .L59
.LVL83:
.L61:
	.loc 1 1090 0 discriminator 1
	lis 3,.LC0@ha
	li 4,1090
.LVL84:
	la 3,.LC0@l(3)
	b .L58
	.cfi_endproc
.LFE109:
	.size	pop, .-pop
	.align 2
	.type	pushColorBuffer, @function
pushColorBuffer:
.LFB66:
	.loc 1 77 0
	.cfi_startproc
.LVL85:
	.loc 1 80 0
	lwz 11,0(3)
	.loc 1 77 0
	mr 9,3
.LVL86:
	.loc 1 80 0
	li 3,0
.LVL87:
	addi 0,11,44
	cmplw 7,0,4
	bgtlr- 7
.LVL88:
.LBB22:
.LBB23:
	.loc 1 82 0
	lis 10,blend_type@ha
	.loc 1 91 0
	li 3,1
	.loc 1 82 0
	lbz 0,blend_type@l(10)
	.loc 1 88 0
	lis 10,color_write_mask@ha
	lbz 8,color_write_mask@l(10)
	la 10,color_write_mask@l(10)
	.loc 1 82 0
	stb 0,16(11)
	.loc 1 83 0
	lis 11,blend_src@ha
	lbz 0,blend_src@l(11)
	lwz 11,0(9)
	stb 0,17(11)
	.loc 1 84 0
	lis 11,blend_dst@ha
	lbz 0,blend_dst@l(11)
	lwz 11,0(9)
	stb 0,18(11)
	.loc 1 85 0
	lis 11,blend_op@ha
	lbz 0,blend_op@l(11)
	lwz 11,0(9)
	stb 0,19(11)
	.loc 1 87 0
	lis 11,_clearcolor@ha
	lwz 0,_clearcolor@l(11)
	lwz 11,0(9)
	stw 0,40(11)
	.loc 1 88 0
	lwz 11,0(9)
	lwz 0,0(11)
	rlwimi 0,8,27,4,4
	stw 0,0(11)
	.loc 1 89 0
	lwz 11,0(9)
	lbz 8,1(10)
	lwz 0,0(11)
	rlwimi 0,8,26,5,5
	stw 0,0(11)
	.loc 1 90 0
	lwz 11,0(9)
	lbz 8,2(10)
	lwz 0,0(11)
	rlwimi 0,8,25,6,6
	stw 0,0(11)
	.loc 1 91 0
	lwz 11,0(9)
	lbz 8,3(10)
	lwz 0,0(11)
	addi 10,11,44
	rlwimi 0,8,24,7,7
	stw 0,0(11)
	stw 10,0(9)
.LBE23:
.LBE22:
	.loc 1 94 0
	blr
	.cfi_endproc
.LFE66:
	.size	pushColorBuffer, .-pushColorBuffer
	.align 2
	.type	pushCurrent, @function
pushCurrent:
.LFB68:
	.loc 1 142 0
	.cfi_startproc
.LVL89:
	.loc 1 145 0
	lwz 9,0(3)
	li 0,0
	addi 8,9,200
	cmplw 7,8,4
	bgt- 7,.L70
.LVL90:
.LBB26:
.LBB27:
	.loc 1 148 0
	lis 7,_tempnormalelement@ha
	.loc 1 147 0
	lis 6,_tempcolorelement@ha
	.loc 1 148 0
	la 10,_tempnormalelement@l(7)
	.loc 1 147 0
	la 11,_tempcolorelement@l(6)
	.loc 1 148 0
	lwz 0,8(10)
	lwz 7,_tempnormalelement@l(7)
	.loc 1 147 0
	lwz 5,12(11)
	lwz 4,8(11)
.LVL91:
	lwz 12,4(11)
	lwz 6,_tempcolorelement@l(6)
	.loc 1 148 0
	lwz 11,4(10)
	stw 0,32(9)
.LVL92:
	.loc 1 141 0
	li 0,8
	.loc 1 148 0
	stw 7,24(9)
	.loc 1 141 0
	mtctr 0
	.loc 1 148 0
	lis 7,_temptexcoordelement-8@ha
	.loc 1 147 0
	stw 6,8(9)
	stw 12,12(9)
	.loc 1 148 0
	la 7,_temptexcoordelement-8@l(7)
	.loc 1 147 0
	stw 4,16(9)
	stw 5,20(9)
	.loc 1 148 0
	stw 11,28(9)
	.loc 1 141 0
	addi 9,9,28
.LVL93:
.L71:
	.loc 1 153 0
	addi 7,7,8
	lwz 10,0(7)
	lwz 11,4(7)
	stwu 10,8(9)
	stw 11,4(9)
	.loc 1 151 0
	bdnz .L71
	.loc 1 156 0
	stw 8,0(3)
	li 0,1
.LVL94:
.L70:
.LBE27:
.LBE26:
	.loc 1 159 0
	mr 3,0
.LVL95:
	blr
	.cfi_endproc
.LFE68:
	.size	pushCurrent, .-pushCurrent
	.align 2
	.type	pushDepthBuffer, @function
pushDepthBuffer:
.LFB70:
	.loc 1 191 0
	.cfi_startproc
.LVL96:
	.loc 1 194 0
	lwz 11,0(3)
	.loc 1 191 0
	mr 9,3
.LVL97:
	.loc 1 194 0
	li 3,0
.LVL98:
	addi 0,11,8
	cmplw 7,0,4
	bgtlr- 7
.LVL99:
.LBB30:
.LBB31:
	.loc 1 196 0
	lis 10,depthtestenabled@ha
	.loc 1 199 0
	li 3,1
	.loc 1 196 0
	lbz 0,depthtestenabled@l(10)
	lwz 10,0(11)
	xori 0,0,1
	cntlzw 0,0
	srwi 0,0,5
	rlwimi 10,0,31,0,0
	stw 10,0(11)
	.loc 1 197 0
	lis 11,depthupdate@ha
	lbz 0,depthupdate@l(11)
	lwz 11,0(9)
	xori 0,0,1
	lwz 10,0(11)
	cntlzw 0,0
	srwi 0,0,5
	rlwimi 10,0,30,1,1
	stw 10,0(11)
	.loc 1 198 0
	lis 10,depthfunction@ha
	lwz 11,0(9)
	lwz 0,depthfunction@l(10)
	.loc 1 199 0
	lis 10,_cleardepth@ha
	.loc 1 198 0
	stb 0,1(11)
	.loc 1 199 0
	lwz 11,0(9)
	lwz 10,_cleardepth@l(10)
	addi 0,11,8
	stw 10,4(11)
	stw 0,0(9)
.LBE31:
.LBE30:
	.loc 1 202 0
	blr
	.cfi_endproc
.LFE70:
	.size	pushDepthBuffer, .-pushDepthBuffer
	.align 2
	.type	pushFog, @function
pushFog:
.LFB76:
	.loc 1 386 0
	.cfi_startproc
.LVL100:
	.loc 1 389 0
	lwz 11,0(3)
	.loc 1 386 0
	mr 9,3
.LVL101:
	.loc 1 389 0
	li 3,0
.LVL102:
	addi 0,11,24
	cmplw 7,0,4
	bgtlr- 7
.LVL103:
.LBB34:
.LBB35:
	.loc 1 391 0
	lis 10,fog_enable@ha
	lwz 0,0(11)
	lbz 10,fog_enable@l(10)
	.loc 1 397 0
	li 3,1
	.loc 1 391 0
	rlwimi 0,10,31,0,0
	.loc 1 392 0
	lis 10,fog_mode@ha
	.loc 1 391 0
	stw 0,0(11)
	.loc 1 392 0
	lwz 11,0(9)
	lbz 0,fog_mode@l(10)
	.loc 1 394 0
	lis 10,fog_startz@ha
	.loc 1 392 0
	stb 0,1(11)
	.loc 1 394 0
	lwz 7,fog_startz@l(10)
	.loc 1 395 0
	lis 10,fog_endz@ha
	.loc 1 394 0
	lwz 11,0(9)
	.loc 1 395 0
	lwz 8,fog_endz@l(10)
	.loc 1 397 0
	lis 10,fog_color@ha
	lwz 10,fog_color@l(10)
	addi 0,11,24
	.loc 1 394 0
	stw 7,8(11)
	.loc 1 395 0
	stw 8,12(11)
	.loc 1 397 0
	stw 10,20(11)
	stw 0,0(9)
.LBE35:
.LBE34:
	.loc 1 400 0
	blr
	.cfi_endproc
.LFE76:
	.size	pushFog, .-pushFog
	.align 2
	.type	pushLighting, @function
pushLighting:
.LFB80:
	.loc 1 474 0
	.cfi_startproc
.LVL104:
	mflr 0
	stwu 1,-32(1)
.LCFI19:
	.cfi_def_cfa_offset 32
	.cfi_register 65, 0
	stw 30,24(1)
	stw 0,36(1)
	stw 27,12(1)
	.loc 1 477 0
	lwz 30,0(3)
	.cfi_offset 27, -20
	.cfi_offset 65, 4
	.cfi_offset 30, -8
	.loc 1 474 0
	stw 28,16(1)
	mr 28,3
	.cfi_offset 28, -16
.LVL105:
	.loc 1 477 0
	addi 27,30,1412
	.loc 1 474 0
	stw 29,20(1)
	.loc 1 477 0
	cmplw 7,27,4
	.loc 1 474 0
	stw 31,28(1)
	.loc 1 477 0
	li 3,0
.LVL106:
	bgt- 7,.L81
	.cfi_offset 31, -4
	.cfi_offset 29, -12
.LVL107:
.LBB38:
.LBB39:
	.loc 1 479 0
	lis 9,copy_mat_enabled@ha
	lwz 0,0(30)
	lbz 9,copy_mat_enabled@l(9)
	.loc 1 482 0
	lis 11,globAmbient@ha
	.loc 1 481 0
	lis 8,copy_material@ha
	lis 29,lights@ha
	.loc 1 479 0
	rlwimi 0,9,31,0,0
	.loc 1 480 0
	lis 9,lighting@ha
	.loc 1 479 0
	stw 0,0(30)
	.loc 1 482 0
	li 31,0
	la 29,lights@l(29)
	.loc 1 480 0
	lbz 9,lighting@l(9)
	rlwimi 0,9,30,1,1
	.loc 1 482 0
	la 9,globAmbient@l(11)
	.loc 1 480 0
	stw 0,0(30)
	.loc 1 482 0
	lwz 0,12(9)
	lwz 10,8(9)
	lwz 11,globAmbient@l(11)
	lwz 9,4(9)
	.loc 1 481 0
	lwz 8,copy_material@l(8)
	.loc 1 482 0
	stw 11,12(30)
	.loc 1 481 0
	stw 8,8(30)
	.loc 1 482 0
	stw 9,16(30)
	stw 10,20(30)
	stw 0,24(30)
.LVL108:
.L82:
	.loc 1 473 0
	add 3,30,31
	.loc 1 488 0
	add 4,29,31
	addi 3,3,28
	li 5,164
	bl memcpy
	.loc 1 486 0
	cmpwi 7,31,1148
	addi 31,31,164
	bne+ 7,.L82
	.loc 1 491 0
	lis 4,curmat@ha
	addi 3,30,1340
	la 4,curmat@l(4)
	li 5,68
	bl memcpy
	stw 27,0(28)
	li 3,1
.LVL109:
.L81:
.LBE39:
.LBE38:
	.loc 1 494 0
	lwz 0,36(1)
	lwz 27,12(1)
	mtlr 0
	lwz 28,16(1)
.LVL110:
	lwz 29,20(1)
	lwz 30,24(1)
	lwz 31,28(1)
	addi 1,1,32
.LCFI20:
	.cfi_def_cfa_offset 0
	.cfi_restore 31
	.cfi_restore 30
	.cfi_restore 29
	.cfi_restore 28
	.cfi_restore 27
	blr
	.cfi_endproc
.LFE80:
	.size	pushLighting, .-pushLighting
	.align 2
	.type	pushLine, @function
pushLine:
.LFB82:
	.loc 1 531 0
	.cfi_startproc
.LVL111:
	.loc 1 534 0
	lwz 11,0(3)
	li 0,0
	addi 9,11,16
	cmplw 7,9,4
	bgt- 7,.L86
.LVL112:
.LBB42:
.LBB43:
	.loc 1 536 0
	lis 10,line_width@ha
	li 0,1
	lwz 10,line_width@l(10)
	stw 10,12(11)
	stw 9,0(3)
.LVL113:
.L86:
.LBE43:
.LBE42:
	.loc 1 539 0
	mr 3,0
.LVL114:
	blr
	.cfi_endproc
.LFE82:
	.size	pushLine, .-pushLine
	.align 2
	.type	pushListBase, @function
pushListBase:
.LFB84:
	.loc 1 557 0
	.cfi_startproc
.LVL115:
	.loc 1 560 0
	lwz 11,0(3)
	li 0,0
	addi 9,11,4
	cmplw 7,9,4
	bgt- 7,.L89
.LVL116:
.LBB46:
.LBB47:
	.loc 1 562 0
	lis 10,call_offset@ha
	li 0,1
	lwz 10,call_offset@l(10)
	stw 10,0(11)
	stw 9,0(3)
.LVL117:
.L89:
.LBE47:
.LBE46:
	.loc 1 565 0
	mr 3,0
.LVL118:
	blr
	.cfi_endproc
.LFE84:
	.size	pushListBase, .-pushListBase
	.align 2
	.type	pushPixelMode, @function
pushPixelMode:
.LFB86:
	.loc 1 605 0
	.cfi_startproc
.LVL119:
	.loc 1 608 0
	lwz 9,0(3)
	li 0,0
	.loc 1 605 0
	stwu 1,-24(1)
.LCFI21:
	.cfi_def_cfa_offset 24
	.loc 1 608 0
	addi 11,9,64
	cmplw 7,11,4
	.loc 1 605 0
	stw 28,8(1)
	stw 29,12(1)
	stw 30,16(1)
	stw 31,20(1)
	.loc 1 608 0
	bgt- 7,.L92
	.cfi_offset 31, -4
	.cfi_offset 30, -8
	.cfi_offset 29, -12
	.cfi_offset 28, -16
.LVL120:
.LBB50:
.LBB51:
	.loc 1 610 0
	lis 10,Trans@ha
	la 10,Trans@l(10)
	lwz 29,4(10)
	.loc 1 611 0
	lwz 30,8(10)
	lwz 31,12(10)
	.loc 1 612 0
	lwz 4,16(10)
.LVL121:
	lwz 5,20(10)
	.loc 1 613 0
	lwz 6,24(10)
	lwz 7,28(10)
	.loc 1 610 0
	lwz 28,0(10)
	.loc 1 614 0
	lis 10,read_mode@ha
	lwz 0,read_mode@l(10)
	.loc 1 610 0
	stw 28,4(9)
	.loc 1 614 0
	stw 0,60(9)
	li 0,1
	.loc 1 610 0
	stw 29,8(9)
	.loc 1 611 0
	stw 30,12(9)
	stw 31,16(9)
	.loc 1 612 0
	stw 4,20(9)
	stw 5,24(9)
	.loc 1 613 0
	stw 6,28(9)
	stw 7,32(9)
	.loc 1 614 0
	stw 11,0(3)
.LVL122:
.L92:
.LBE51:
.LBE50:
	.loc 1 617 0
	lwz 28,8(1)
	mr 3,0
.LVL123:
	lwz 29,12(1)
	lwz 30,16(1)
	lwz 31,20(1)
	addi 1,1,24
.LCFI22:
	.cfi_def_cfa_offset 0
	.cfi_restore 31
	.cfi_restore 30
	.cfi_restore 29
	.cfi_restore 28
	blr
	.cfi_endproc
.LFE86:
	.size	pushPixelMode, .-pushPixelMode
	.align 2
	.type	pushPoint, @function
pushPoint:
.LFB88:
	.loc 1 642 0
	.cfi_startproc
.LVL124:
	.loc 1 645 0
	lwz 11,0(3)
	li 0,0
	addi 9,11,8
	cmplw 7,9,4
	bgt- 7,.L95
.LVL125:
.LBB54:
.LBB55:
	.loc 1 647 0
	lis 10,point_size@ha
	li 0,1
	lwz 10,point_size@l(10)
	stw 10,4(11)
	stw 9,0(3)
.LVL126:
.L95:
.LBE55:
.LBE54:
	.loc 1 650 0
	mr 3,0
.LVL127:
	blr
	.cfi_endproc
.LFE88:
	.size	pushPoint, .-pushPoint
	.align 2
	.type	pushScissor, @function
pushScissor:
.LFB94:
	.loc 1 761 0
	.cfi_startproc
.LVL128:
	.loc 1 764 0
	lwz 9,0(3)
	li 0,0
	addi 11,9,20
	cmplw 7,11,4
	bgt- 7,.L98
.LVL129:
.LBB58:
.LBB59:
	.loc 1 766 0
	lis 10,scissor_test@ha
	.loc 1 767 0
	lis 8,scissorInfo@ha
	.loc 1 766 0
	lbz 0,scissor_test@l(10)
	lwz 10,0(9)
	xori 0,0,1
	cntlzw 0,0
	srwi 0,0,5
	rlwimi 10,0,31,0,0
	stw 10,0(9)
	.loc 1 767 0
	la 10,scissorInfo@l(8)
	lwz 0,8(10)
	lwz 7,4(10)
	lwz 6,12(10)
	lwz 10,scissorInfo@l(8)
	stw 6,16(9)
	stw 0,12(9)
	li 0,1
	stw 10,4(9)
	stw 7,8(9)
	stw 11,0(3)
.LVL130:
.L98:
.LBE59:
.LBE58:
	.loc 1 770 0
	mr 3,0
.LVL131:
	blr
	.cfi_endproc
.LFE94:
	.size	pushScissor, .-pushScissor
	.align 2
	.type	pushTexture, @function
pushTexture:
.LFB98:
	.loc 1 834 0
	.cfi_startproc
.LVL132:
	mflr 0
	stwu 1,-24(1)
.LCFI23:
	.cfi_def_cfa_offset 24
	.cfi_register 65, 0
	stw 28,8(1)
	mr 28,3
	.cfi_offset 28, -16
.LVL133:
	stw 0,28(1)
	stw 29,12(1)
	.loc 1 837 0
	lwz 9,0(3)
	li 3,0
.LVL134:
	.loc 1 834 0
	stw 30,16(1)
	.loc 1 837 0
	addi 0,9,928
	.cfi_offset 30, -8
	.cfi_offset 29, -12
	.cfi_offset 65, 4
	.loc 1 834 0
	stw 31,20(1)
	.loc 1 837 0
	cmplw 7,0,4
	bgt- 7,.L101
	.cfi_offset 31, -4
	lis 29,_temptexcoordelement-8@ha
	lis 30,glTexEnvs@ha
	la 29,_temptexcoordelement-8@l(29)
	la 30,glTexEnvs@l(30)
	li 31,0
.LVL135:
.L103:
.LBB62:
.LBB63:
	.loc 1 843 0
	addi 29,29,8
	.loc 1 844 0
	mulli 0,31,108
	.loc 1 843 0
	lwz 10,0(29)
	slwi 8,31,3
	lwz 11,4(29)
	add 8,9,8
	stw 10,0(8)
	.loc 1 844 0
	add 9,9,0
	.loc 1 843 0
	stw 11,4(8)
	.loc 1 844 0
	mr 4,30
	addi 3,9,64
	li 5,108
	bl memcpy
.LVL136:
	.loc 1 841 0
	cmpwi 7,31,7
	lwz 9,0(28)
	addi 30,30,108
	addi 31,31,1
.LVL137:
	bne+ 7,.L103
	.loc 1 847 0
	addi 0,9,928
	li 3,1
	stw 0,0(28)
.LVL138:
.L101:
.LBE63:
.LBE62:
	.loc 1 850 0
	lwz 0,28(1)
	lwz 28,8(1)
.LVL139:
	mtlr 0
	lwz 29,12(1)
	lwz 30,16(1)
	lwz 31,20(1)
	addi 1,1,24
.LCFI24:
	.cfi_def_cfa_offset 0
	.cfi_restore 31
	.cfi_restore 30
	.cfi_restore 29
	.cfi_restore 28
	blr
	.cfi_endproc
.LFE98:
	.size	pushTexture, .-pushTexture
	.align 2
	.type	pushTransform, @function
pushTransform:
.LFB100:
	.loc 1 886 0
	.cfi_startproc
.LVL140:
	.loc 1 889 0
	lwz 11,0(3)
	li 0,0
	addi 9,11,104
	cmplw 7,9,4
	bgt- 7,.L106
.LVL141:
.LBB66:
.LBB67:
	.loc 1 891 0
	lis 10,cur_mode@ha
	li 0,1
	lwz 10,cur_mode@l(10)
	stw 10,100(11)
	stw 9,0(3)
.LVL142:
.L106:
.LBE67:
.LBE66:
	.loc 1 894 0
	mr 3,0
.LVL143:
	blr
	.cfi_endproc
.LFE100:
	.size	pushTransform, .-pushTransform
	.align 2
	.type	pushViewport, @function
pushViewport:
.LFB102:
	.loc 1 914 0
	.cfi_startproc
.LVL144:
	.loc 1 917 0
	lwz 9,0(3)
	li 0,0
	addi 11,9,24
	cmplw 7,11,4
	bgt- 7,.L109
.LVL145:
.LBB70:
.LBB71:
	.loc 1 921 0
	lis 8,viewPort@ha
	.loc 1 919 0
	lis 6,normNear@ha
	.loc 1 921 0
	la 10,viewPort@l(8)
	.loc 1 919 0
	lwz 5,normNear@l(6)
	.loc 1 920 0
	lis 6,normFar@ha
	.loc 1 921 0
	lwz 0,12(10)
	lwz 7,8(10)
	lwz 8,viewPort@l(8)
	lwz 10,4(10)
	.loc 1 920 0
	lwz 6,normFar@l(6)
	.loc 1 921 0
	stw 0,20(9)
	li 0,1
	.loc 1 919 0
	stw 5,0(9)
	.loc 1 920 0
	stw 6,4(9)
	.loc 1 921 0
	stw 8,8(9)
	stw 10,12(9)
	stw 7,16(9)
	stw 11,0(3)
.LVL146:
.L109:
.LBE71:
.LBE70:
	.loc 1 924 0
	mr 3,0
.LVL147:
	blr
	.cfi_endproc
.LFE102:
	.size	pushViewport, .-pushViewport
	.align 2
	.type	pushPixelStore, @function
pushPixelStore:
.LFB112:
	.loc 1 1127 0
	.cfi_startproc
.LVL148:
	.loc 1 1130 0
	lwz 9,0(3)
	li 0,0
	.loc 1 1127 0
	stwu 1,-24(1)
.LCFI25:
	.cfi_def_cfa_offset 24
	.loc 1 1130 0
	addi 11,9,40
	cmplw 7,11,4
	.loc 1 1127 0
	stw 29,12(1)
	stw 30,16(1)
	stw 31,20(1)
	.loc 1 1130 0
	bgt- 7,.L112
	.cfi_offset 31, -4
	.cfi_offset 30, -8
	.cfi_offset 29, -12
.LVL149:
.LBB74:
.LBB75:
	.loc 1 1132 0
	lis 6,pack@ha
	.loc 1 1133 0
	lis 7,unpack@ha
	.loc 1 1132 0
	la 8,pack@l(6)
	.loc 1 1133 0
	la 10,unpack@l(7)
	lwz 0,16(10)
	.loc 1 1132 0
	lwz 4,16(8)
.LVL150:
	lwz 12,12(8)
	lwz 31,8(8)
	lwz 30,4(8)
	.loc 1 1133 0
	lwz 5,4(10)
	lwz 8,12(10)
	.loc 1 1132 0
	lwz 29,pack@l(6)
	.loc 1 1133 0
	lwz 7,unpack@l(7)
	lwz 6,8(10)
	stw 0,36(9)
	li 0,1
	.loc 1 1132 0
	stw 29,0(9)
	stw 30,4(9)
	stw 31,8(9)
	stw 12,12(9)
	stw 4,16(9)
	.loc 1 1133 0
	stw 7,20(9)
	stw 5,24(9)
	stw 6,28(9)
	stw 8,32(9)
	stw 11,0(3)
.LVL151:
.L112:
.LBE75:
.LBE74:
	.loc 1 1136 0
	lwz 29,12(1)
	mr 3,0
.LVL152:
	lwz 30,16(1)
	lwz 31,20(1)
	addi 1,1,24
.LCFI26:
	.cfi_def_cfa_offset 0
	.cfi_restore 31
	.cfi_restore 30
	.cfi_restore 29
	blr
	.cfi_endproc
.LFE112:
	.size	pushPixelStore, .-pushPixelStore
	.align 2
	.type	pushVertexArray, @function
pushVertexArray:
.LFB114:
	.loc 1 1158 0
	.cfi_startproc
.LVL153:
	.loc 1 1161 0
	lwz 11,0(3)
	.loc 1 1158 0
	mr 9,3
.LVL154:
	.loc 1 1161 0
	li 3,0
.LVL155:
	addi 0,11,220
	cmplw 7,0,4
	bgtlr- 7
.LVL156:
.LBB78:
.LBB79:
	.loc 1 1163 0
	lis 8,norm@ha
	la 10,norm@l(8)
	lwz 8,norm@l(8)
	lwz 0,16(10)
	lwz 7,12(10)
	lwz 6,8(10)
	lwz 5,4(10)
	stw 8,0(11)
	.loc 1 1164 0
	lis 8,vert@ha
	.loc 1 1163 0
	stw 5,4(11)
	.loc 1 1164 0
	la 10,vert@l(8)
	.loc 1 1163 0
	stw 6,8(11)
	stw 7,12(11)
	stw 0,16(11)
	.loc 1 1164 0
	lwz 7,12(10)
	lwz 11,0(9)
	lwz 0,16(10)
	lwz 6,8(10)
	lwz 5,4(10)
	lwz 4,vert@l(8)
.LVL157:
	.loc 1 1165 0
	lis 8,color@ha
	.loc 1 1164 0
	stw 5,24(11)
	.loc 1 1165 0
	la 10,color@l(8)
	.loc 1 1164 0
	stw 6,28(11)
	stw 7,32(11)
	stw 0,36(11)
	stw 4,20(11)
	.loc 1 1165 0
	lwz 0,16(10)
	lwz 11,0(9)
	lwz 5,color@l(8)
	lwz 6,4(10)
	lwz 8,12(10)
	lwz 7,8(10)
	stw 0,216(11)
.LVL158:
	.loc 1 1168 0
	li 0,8
	.loc 1 1165 0
	stw 8,212(11)
	.loc 1 1168 0
	mtctr 0
	.loc 1 1165 0
	stw 5,200(11)
	.loc 1 1168 0
	li 8,0
	.loc 1 1165 0
	stw 6,204(11)
	stw 7,208(11)
	lis 11,tex@ha
	la 11,tex@l(11)
.LVL159:
.L116:
	.loc 1 1170 0
	lwz 4,0(9)
	mulli 10,8,20
	lwz 0,12(11)
	.loc 1 1168 0
	addi 8,8,1
.LVL160:
	.loc 1 1170 0
	lwz 5,0(11)
	add 10,4,10
	lwz 6,4(11)
	lwz 7,8(11)
	stw 5,40(10)
	stw 6,44(10)
	stw 7,48(10)
	stw 0,52(10)
	lwz 0,16(11)
	.loc 1 1168 0
	addi 11,11,20
	.loc 1 1170 0
	stw 0,56(10)
	.loc 1 1168 0
	bdnz .L116
	.loc 1 1173 0
	lwz 11,0(9)
	li 3,1
	addi 0,11,220
	stw 0,0(9)
.LBE79:
.LBE78:
	.loc 1 1176 0
	blr
	.cfi_endproc
.LFE114:
	.size	pushVertexArray, .-pushVertexArray
	.align 2
	.type	pushPolygon, @function
pushPolygon:
.LFB90:
	.loc 1 691 0
	.cfi_startproc
.LVL161:
	mflr 0
	stwu 1,-8(1)
.LCFI27:
	.cfi_def_cfa_offset 8
	.cfi_register 65, 0
	stw 0,12(1)
	.loc 1 694 0
	lwz 9,0(3)
	addi 0,9,24
	.cfi_offset 65, 4
	cmplw 7,0,4
	bgt- 7,.L126
	.loc 1 696 0
	lis 11,cull_mode@ha
	lbz 11,cull_mode@l(11)
	cmpwi 7,11,2
	beq- 7,.L123
	cmpwi 7,11,3
	beq- 7,.L124
	cmpwi 7,11,1
	beq- 7,.L128
.LBB82:
.LBB83:
	.loc 1 708 0
	lis 5,.LANCHOR0@ha
	lis 3,.LC0@ha
.LVL162:
	la 5,.LANCHOR0@l(5)
	lis 6,.LC3@ha
	la 3,.LC0@l(3)
	li 4,708
.LVL163:
	addi 5,5,4
	la 6,.LC3@l(6)
	bl __assert_func
.LVL164:
.L126:
.LBE83:
.LBE82:
	.loc 1 714 0
	lwz 0,12(1)
	.loc 1 694 0
	li 9,0
	.loc 1 714 0
	mr 3,9
.LVL165:
	mtlr 0
	addi 1,1,8
	.cfi_remember_state
.LCFI28:
	.cfi_def_cfa_offset 0
	blr
.LVL166:
.L123:
.LCFI29:
	.cfi_restore_state
	.loc 1 702 0
	li 11,1029
	stw 11,4(9)
.L125:
	.loc 1 710 0
	lis 11,gxwinding@ha
	lwz 10,0(9)
	lwz 11,gxwinding@l(11)
	xori 11,11,2305
	cntlzw 11,11
	srwi 11,11,5
	rlwimi 10,11,30,1,1
	.loc 1 711 0
	lis 11,gxcullfaceanabled@ha
	.loc 1 710 0
	stw 10,0(9)
	.loc 1 711 0
	lbz 11,gxcullfaceanabled@l(11)
	rlwimi 10,11,31,0,0
	stw 10,0(9)
	.loc 1 713 0
	li 9,1
	.loc 1 711 0
	stw 0,0(3)
	.loc 1 714 0
	mr 3,9
.LVL167:
	lwz 0,12(1)
	addi 1,1,8
	.cfi_remember_state
.LCFI30:
	.cfi_def_cfa_offset 0
	mtlr 0
	blr
.LVL168:
.L128:
.LCFI31:
	.cfi_restore_state
	.loc 1 699 0
	li 11,1028
	stw 11,4(9)
	.loc 1 700 0
	b .L125
.L124:
	.loc 1 705 0
	li 11,1032
	stw 11,4(9)
	.loc 1 706 0
	b .L125
	.cfi_endproc
.LFE90:
	.size	pushPolygon, .-pushPolygon
	.align 2
	.type	pushEnable, @function
pushEnable:
.LFB72:
	.loc 1 276 0
	.cfi_startproc
.LVL169:
	mflr 0
	stwu 1,-16(1)
.LCFI32:
	.cfi_def_cfa_offset 16
	.cfi_register 65, 0
	stw 31,12(1)
	mr 31,3
	.cfi_offset 31, -4
.LVL170:
	stw 0,20(1)
	stw 30,8(1)
	.loc 1 279 0
	lwz 9,0(3)
	li 3,0
.LVL171:
	addi 0,9,8
	.cfi_offset 30, -8
	.cfi_offset 65, 4
	cmplw 7,0,4
	bgt- 7,.L130
.LVL172:
.LBB86:
.LBB87:
	.loc 1 281 0
	lis 11,blend_type@ha
	.loc 1 293 0
	li 7,1
	.loc 1 281 0
	lbz 0,blend_type@l(11)
	lwz 11,0(9)
	xori 0,0,1
	cntlzw 0,0
	srwi 0,0,5
	rlwimi 11,0,29,2,2
	stw 11,0(9)
	.loc 1 282 0
	lis 11,copy_mat_enabled@ha
	lwz 9,0(31)
	lbz 11,copy_mat_enabled@l(11)
	lwz 0,0(9)
	rlwimi 0,11,28,3,3
	.loc 1 283 0
	lis 11,gxcullfaceanabled@ha
	.loc 1 282 0
	stw 0,0(9)
	.loc 1 283 0
	lwz 9,0(31)
	lbz 11,gxcullfaceanabled@l(11)
	lwz 0,0(9)
	rlwimi 0,11,27,4,4
	stw 0,0(9)
	.loc 1 284 0
	lis 9,depthtestenabled@ha
	lbz 0,depthtestenabled@l(9)
	lwz 9,0(31)
	xori 0,0,1
	lwz 11,0(9)
	cntlzw 0,0
	srwi 0,0,5
	rlwimi 11,0,26,5,5
	stw 11,0(9)
	.loc 1 285 0
	lis 9,fog_enable@ha
	.loc 1 288 0
	lis 11,lights@ha
	.loc 1 285 0
	lwz 10,0(31)
	.loc 1 288 0
	la 11,lights@l(11)
	.loc 1 285 0
	lbz 8,fog_enable@l(9)
	.loc 1 289 0
	li 9,0
	.loc 1 285 0
	lwz 0,0(10)
	rlwimi 0,8,24,7,7
	stw 0,0(10)
	.loc 1 293 0
	li 0,8
	mtctr 0
	.loc 1 288 0
	lwz 10,0(31)
	stb 3,2(10)
.LVL173:
.L132:
	.loc 1 291 0
	lbz 0,0(11)
	.loc 1 293 0
	slw 8,7,9
	.loc 1 289 0
	addi 11,11,164
	addi 9,9,1
	.loc 1 291 0
	cmpwi 7,0,0
	beq- 7,.L131
	.loc 1 293 0
	lwz 10,0(31)
	lbz 0,2(10)
	or 8,8,0
	stb 8,2(10)
.L131:
.LVL174:
	.loc 1 289 0
	bdnz .L132
	.loc 1 297 0
	lwz 9,0(31)
.LVL175:
	lis 11,lighting@ha
	lbz 11,lighting@l(11)
	lwz 0,0(9)
	rlwimi 0,11,7,24,24
	stw 0,0(9)
	.loc 1 298 0
	lis 9,scissor_test@ha
	lbz 0,scissor_test@l(9)
	lwz 9,0(31)
	xori 0,0,1
	lwz 11,4(9)
	cntlzw 0,0
	srwi 0,0,5
	rlwimi 11,0,27,4,4
	stw 11,4(9)
	.loc 1 299 0
	lis 9,cur_tex@ha
	lwz 30,0(31)
	lwz 3,cur_tex@l(9)
	bl _glGetEnableTex
.LVL176:
	lwz 0,4(30)
	addi 9,30,8
	rlwimi 0,3,24,7,7
	li 3,1
	stw 0,4(30)
	stw 9,0(31)
.LVL177:
.L130:
.LBE87:
.LBE86:
	.loc 1 302 0
	lwz 0,20(1)
	lwz 30,8(1)
	mtlr 0
	lwz 31,12(1)
.LVL178:
	addi 1,1,16
.LCFI33:
	.cfi_def_cfa_offset 0
	.cfi_restore 31
	.cfi_restore 30
	blr
	.cfi_endproc
.LFE72:
	.size	pushEnable, .-pushEnable
	.align 2
	.type	resizeStack, @function
resizeStack:
.LFB105:
	.loc 1 990 0
	.cfi_startproc
.LVL179:
	mflr 0
	stwu 1,-16(1)
.LCFI34:
	.cfi_def_cfa_offset 16
	.cfi_register 65, 0
	stw 30,8(1)
	.loc 1 995 0
	li 30,1024
	.cfi_offset 30, -8
	.loc 1 990 0
	stw 0,20(1)
	stw 31,12(1)
	.loc 1 990 0
	mr 31,3
	.cfi_offset 31, -4
	.cfi_offset 65, 4
	.loc 1 993 0
	lwz 0,76(3)
	cmpwi 7,0,0
	beq- 7,.L136
	.loc 1 999 0
	slwi 30,0,1
.LVL180:
.L136:
	.loc 1 1002 0
	lwz 3,68(31)
.LVL181:
	li 4,1024
	bl realloc
.LVL182:
	.loc 1 1004 0
	cmpwi 0,3,0
	beq- 0,.L140
.LBB96:
	.loc 1 1006 0
	lwz 9,72(31)
	lwz 0,68(31)
	.loc 1 1008 0
	stw 30,76(31)
	.loc 1 1006 0
	subf 0,0,9
.LVL183:
	.loc 1 1007 0
	stw 3,68(31)
	.loc 1 1011 0
	add 0,3,0
.LVL184:
	.loc 1 1012 0
	cmplw 7,3,0
	.loc 1 1011 0
	stw 0,72(31)
	.loc 1 1012 0
	bgt- 7,.L142
.LVL185:
.LBB97:
.LBB98:
	.loc 1 986 0
	add 30,3,30
.LVL186:
.LBE98:
.LBE97:
	.loc 1 1014 0
	li 3,1
.LVL187:
	.loc 1 1013 0
	cmplw 7,0,30
	bgt- 7,.L143
.LBE96:
	.loc 1 1020 0
	lwz 0,20(1)
	lwz 30,8(1)
	mtlr 0
	lwz 31,12(1)
.LVL188:
	addi 1,1,16
	.cfi_remember_state
.LCFI35:
	.cfi_def_cfa_offset 0
	.cfi_restore 31
	.cfi_restore 30
	blr
.LVL189:
.L140:
.LCFI36:
	.cfi_restore_state
	lwz 0,20(1)
	.loc 1 1018 0
	li 3,0
.LVL190:
	.loc 1 1020 0
	lwz 30,8(1)
.LVL191:
	mtlr 0
	lwz 31,12(1)
.LVL192:
	addi 1,1,16
	.cfi_remember_state
	.cfi_restore 30
	.cfi_restore 31
.LCFI37:
	.cfi_def_cfa_offset 0
	blr
.LVL193:
.L142:
.LCFI38:
	.cfi_restore_state
.LBB99:
.LBB100:
.LBB101:
	.loc 1 1012 0
	lis 5,.LANCHOR0@ha
	lis 3,.LC0@ha
.LVL194:
	la 5,.LANCHOR0@l(5)
	lis 6,.LC1@ha
	la 3,.LC0@l(3)
	li 4,1012
	addi 5,5,16
	la 6,.LC1@l(6)
	bl __assert_func
.LVL195:
.L143:
.LBE101:
.LBE100:
.LBE99:
.LBB102:
	.loc 1 1013 0 discriminator 1
	lis 5,.LANCHOR0@ha
	lis 3,.LC0@ha
	la 5,.LANCHOR0@l(5)
	lis 6,.LC2@ha
	la 3,.LC0@l(3)
	li 4,1013
	addi 5,5,16
	la 6,.LC2@l(6)
	bl __assert_func
.LVL196:
.LVL197:
.LVL198:
.LBE102:
	.cfi_endproc
.LFE105:
	.size	resizeStack, .-resizeStack
	.align 2
	.type	push, @function
push:
.LFB108:
	.loc 1 1038 0
	.cfi_startproc
.LVL199:
	mflr 0
	stwu 1,-48(1)
.LCFI39:
	.cfi_def_cfa_offset 48
	.cfi_register 65, 0
	stw 27,28(1)
	mr 27,6
	.cfi_offset 27, -20
	stw 0,52(1)
	stw 30,40(1)
	mr 30,5
	.cfi_offset 30, -8
	.cfi_offset 65, 4
	.loc 1 1041 0
	lwz 0,64(3)
	.loc 1 1038 0
	stw 31,44(1)
	mr 31,3
	.cfi_offset 31, -4
	.loc 1 1041 0
	cmpwi 7,0,15
	.loc 1 1038 0
	stw 28,32(1)
	stw 29,36(1)
	.loc 1 1041 0
	bgt- 7,.L163
	.cfi_offset 29, -12
	.cfi_offset 28, -16
	.loc 1 1047 0
	lwz 0,72(3)
	.loc 1 1049 0
	lwz 9,68(3)
	.loc 1 1047 0
	stw 0,8(1)
.LVL200:
	.loc 1 1049 0
	cmplw 7,0,9
	blt- 7,.L164
.LVL201:
.LBB103:
.LBB104:
	.loc 1 986 0
	lwz 11,76(3)
	add 10,9,11
.LBE104:
.LBE103:
	.loc 1 1050 0
	cmplw 7,0,10
	bgt- 7,.L148
.LVL202:
	.loc 1 1052 0 discriminator 1
	cmpwi 7,5,0
	.loc 1 1050 0 discriminator 1
	mr 29,4
	.loc 1 1052 0 discriminator 1
	li 28,0
	beq- 7,.L150
.LVL203:
.L158:
	.loc 1 1054 0
	lwz 0,0(29)
	and 11,0,27
	cmpw 7,0,11
	beq- 7,.L152
.L151:
	.loc 1 1052 0
	addi 28,28,1
.LVL204:
	addi 29,29,12
	cmpw 7,28,30
	bne+ 7,.L158
	lwz 0,72(31)
	.loc 1 1069 0
	cmplw 7,9,0
	bgt- 7,.L160
	lwz 11,76(31)
.LVL205:
.L150:
.LBB105:
.LBB106:
	.loc 1 986 0
	add 9,9,11
.LVL206:
.LBE106:
.LBE105:
	.loc 1 1070 0
	cmplw 7,0,9
	bgt- 7,.L165
	.loc 1 1073 0
	lwz 9,64(31)
	.loc 1 1072 0
	lwz 11,8(1)
	.loc 1 1073 0
	slwi 0,9,2
	addi 9,9,1
	stwx 27,31,0
	.loc 1 1074 0
	lwz 0,52(1)
	.loc 1 1072 0
	stw 11,72(31)
	.loc 1 1074 0
	mtlr 0
	.loc 1 1073 0
	stw 9,64(31)
	.loc 1 1074 0
	lwz 27,28(1)
.LVL207:
	lwz 28,32(1)
	lwz 29,36(1)
	lwz 30,40(1)
.LVL208:
	lwz 31,44(1)
.LVL209:
	addi 1,1,48
	.cfi_remember_state
	.cfi_restore 27
	.cfi_restore 28
	.cfi_restore 29
	.cfi_restore 30
	.cfi_restore 31
.LCFI40:
	.cfi_def_cfa_offset 0
	blr
.LVL210:
.L167:
.LCFI41:
	.cfi_restore_state
	.loc 1 1059 0
	lwz 9,68(31)
.LVL211:
.L152:
.LBB107:
.LBB108:
	.loc 1 986 0 discriminator 1
	lwz 4,76(31)
.LBE108:
.LBE107:
	.loc 1 1056 0 discriminator 1
	addi 3,1,8
	lwz 0,4(29)
	add 4,9,4
	mtctr 0
	bctrl
.LVL212:
	cmpwi 7,3,0
	bne- 7,.L166
	.loc 1 1059 0
	mr 3,31
	bl resizeStack
	cmpwi 7,3,0
	bne+ 7,.L167
	.loc 1 1062 0
	lis 4,.LC0@ha
	li 3,1283
	la 4,.LC0@l(4)
	li 5,1062
	bl _glSetErrorEx
	.loc 1 1074 0
	lwz 0,52(1)
	lwz 27,28(1)
.LVL213:
	mtlr 0
	lwz 28,32(1)
	lwz 29,36(1)
	lwz 30,40(1)
.LVL214:
	lwz 31,44(1)
.LVL215:
	addi 1,1,48
	.cfi_remember_state
.LCFI42:
	.cfi_def_cfa_offset 0
	.cfi_restore 31
	.cfi_restore 30
	.cfi_restore 29
	.cfi_restore 28
	.cfi_restore 27
	blr
.LVL216:
.L166:
.LCFI43:
	.cfi_restore_state
	.loc 1 1056 0
	lwz 9,68(31)
	b .L151
.LVL217:
.L163:
	.loc 1 1043 0
	lis 4,.LC0@ha
.LVL218:
	li 3,1283
	la 4,.LC0@l(4)
	li 5,1043
	bl _glSetErrorEx
	.loc 1 1074 0
	lwz 0,52(1)
	lwz 27,28(1)
.LVL219:
	mtlr 0
	lwz 28,32(1)
	lwz 29,36(1)
	lwz 30,40(1)
.LVL220:
	lwz 31,44(1)
.LVL221:
	addi 1,1,48
	.cfi_remember_state
	.cfi_restore 27
	.cfi_restore 28
	.cfi_restore 29
	.cfi_restore 30
	.cfi_restore 31
.LCFI44:
	.cfi_def_cfa_offset 0
	blr
.LVL222:
.L164:
.LCFI45:
	.cfi_restore_state
	.loc 1 1049 0 discriminator 1
	lis 3,.LC0@ha
.LVL223:
	li 4,1049
.LVL224:
	la 3,.LC0@l(3)
.LVL225:
.L161:
	.loc 1 1069 0 discriminator 1
	lis 5,.LANCHOR0@ha
	lis 6,.LC1@ha
	la 5,.LANCHOR0@l(5)
	la 6,.LC1@l(6)
	addi 5,5,28
	bl __assert_func
.LVL226:
.L148:
	.loc 1 1050 0 discriminator 1
	lis 3,.LC0@ha
	li 4,1050
.LVL227:
	la 3,.LC0@l(3)
.LVL228:
.L162:
	.loc 1 1070 0 discriminator 1
	lis 5,.LANCHOR0@ha
	lis 6,.LC2@ha
	la 5,.LANCHOR0@l(5)
	la 6,.LC2@l(6)
	addi 5,5,28
	bl __assert_func
.L165:
	lis 3,.LC0@ha
	li 4,1070
	la 3,.LC0@l(3)
	b .L162
.LVL229:
.L160:
	.loc 1 1069 0 discriminator 1
	lis 3,.LC0@ha
	li 4,1069
	la 3,.LC0@l(3)
	b .L161
	.cfi_endproc
.LFE108:
	.size	push, .-push
	.align 2
	.type	initStack, @function
initStack:
.LFB106:
	.loc 1 1023 0
	.cfi_startproc
.LVL230:
	stwu 1,-16(1)
.LCFI46:
	.cfi_def_cfa_offset 16
	mflr 0
	.loc 1 1024 0
	li 4,0
	li 5,80
	.loc 1 1023 0
	stw 31,12(1)
	mr 31,3
	.cfi_offset 31, -4
	.cfi_register 65, 0
	stw 0,20(1)
	.loc 1 1024 0
	.cfi_offset 65, 4
	bl memset
.LVL231:
	.loc 1 1025 0
	mr 3,31
	bl resizeStack
	.loc 1 1028 0
	lwz 0,68(31)
	.loc 1 1027 0
	li 9,0
	.loc 1 1028 0
	stw 0,72(31)
	.loc 1 1029 0
	lwz 0,20(1)
	.loc 1 1027 0
	stw 9,64(31)
	.loc 1 1029 0
	mtlr 0
	lwz 31,12(1)
.LVL232:
	addi 1,1,16
.LCFI47:
	.cfi_def_cfa_offset 0
	.cfi_restore 31
	blr
	.cfi_endproc
.LFE106:
	.size	initStack, .-initStack
	.align 2
	.globl _glInitStacks
	.type	_glInitStacks, @function
_glInitStacks:
.LFB107:
	.loc 1 1032 0
	.cfi_startproc
	stwu 1,-16(1)
.LCFI48:
	.cfi_def_cfa_offset 16
	mflr 0
	stw 31,12(1)
	.loc 1 1033 0
	lis 31,.LANCHOR1@ha
	.cfi_offset 31, -4
	.cfi_register 65, 0
	la 31,.LANCHOR1@l(31)
	.loc 1 1032 0
	stw 0,20(1)
	.loc 1 1033 0
	mr 3,31
	.cfi_offset 65, 4
	bl initStack
	.loc 1 1035 0
	lwz 0,20(1)
	.loc 1 1034 0
	addi 3,31,80
	.loc 1 1035 0
	lwz 31,12(1)
	mtlr 0
	addi 1,1,16
.LCFI49:
	.cfi_def_cfa_offset 0
	.cfi_restore 31
	.loc 1 1034 0
	b initStack
	.cfi_endproc
.LFE107:
	.size	_glInitStacks, .-_glInitStacks
	.align 2
	.globl glPushAttrib
	.type	glPushAttrib, @function
glPushAttrib:
.LFB110:
	.loc 1 1106 0
	.cfi_startproc
.LVL233:
	mflr 0
	stwu 1,-8(1)
.LCFI50:
	.cfi_def_cfa_offset 8
	.cfi_register 65, 0
	.loc 1 1107 0
	lis 9,cur_state@ha
	.loc 1 1106 0
	mr 6,3
	stw 0,12(1)
	.loc 1 1107 0
	lwz 0,cur_state@l(9)
	.cfi_offset 65, 4
	andi. 9,0,1
	bne- 0,.L173
	.loc 1 1110 0
	lwz 0,12(1)
	.loc 1 1109 0
	lis 3,.LANCHOR1@ha
.LVL234:
	lis 4,.LANCHOR2@ha
	.loc 1 1110 0
	mtlr 0
	.loc 1 1109 0
	la 3,.LANCHOR1@l(3)
	la 4,.LANCHOR2@l(4)
	li 5,20
	.loc 1 1110 0
	addi 1,1,8
	.cfi_remember_state
.LCFI51:
	.cfi_def_cfa_offset 0
	.loc 1 1109 0
	b push
.LVL235:
.L173:
.LCFI52:
	.cfi_restore_state
	.loc 1 1107 0 discriminator 1
	lis 4,.LC0@ha
	li 3,1282
.LVL236:
	la 4,.LC0@l(4)
	li 5,1107
	bl _glSetErrorEx
.LVL237:
	.loc 1 1110 0 discriminator 1
	lwz 0,12(1)
	addi 1,1,8
.LCFI53:
	.cfi_def_cfa_offset 0
	mtlr 0
	blr
	.cfi_endproc
.LFE110:
	.size	glPushAttrib, .-glPushAttrib
	.align 2
	.globl glPopAttrib
	.type	glPopAttrib, @function
glPopAttrib:
.LFB111:
	.loc 1 1113 0
	.cfi_startproc
	mflr 0
	stwu 1,-8(1)
.LCFI54:
	.cfi_def_cfa_offset 8
	.cfi_register 65, 0
	.loc 1 1114 0
	lis 9,cur_state@ha
	.loc 1 1113 0
	stw 0,12(1)
	.loc 1 1114 0
	lwz 0,cur_state@l(9)
	.cfi_offset 65, 4
	andi. 9,0,1
	bne- 0,.L177
	.loc 1 1117 0
	lwz 0,12(1)
	.loc 1 1116 0
	lis 3,.LANCHOR1@ha
	lis 4,.LANCHOR2@ha
	.loc 1 1117 0
	mtlr 0
	.loc 1 1116 0
	la 3,.LANCHOR1@l(3)
	la 4,.LANCHOR2@l(4)
	li 5,20
	.loc 1 1117 0
	addi 1,1,8
	.cfi_remember_state
.LCFI55:
	.cfi_def_cfa_offset 0
	.loc 1 1116 0
	b pop
.L177:
.LCFI56:
	.cfi_restore_state
	.loc 1 1114 0 discriminator 1
	lis 4,.LC0@ha
	li 3,1282
	la 4,.LC0@l(4)
	li 5,1114
	bl _glSetErrorEx
	.loc 1 1117 0 discriminator 1
	lwz 0,12(1)
	addi 1,1,8
.LCFI57:
	.cfi_def_cfa_offset 0
	mtlr 0
	blr
	.cfi_endproc
.LFE111:
	.size	glPopAttrib, .-glPopAttrib
	.align 2
	.globl glPushClientAttrib
	.type	glPushClientAttrib, @function
glPushClientAttrib:
.LFB116:
	.loc 1 1201 0
	.cfi_startproc
.LVL238:
	mflr 0
	stwu 1,-8(1)
.LCFI58:
	.cfi_def_cfa_offset 8
	.cfi_register 65, 0
	.loc 1 1202 0
	lis 9,cur_state@ha
	.loc 1 1201 0
	mr 6,3
	stw 0,12(1)
	.loc 1 1202 0
	lwz 0,cur_state@l(9)
	.cfi_offset 65, 4
	andi. 9,0,1
	bne- 0,.L181
	.loc 1 1205 0
	lwz 0,12(1)
	.loc 1 1204 0
	lis 3,.LANCHOR1@ha
.LVL239:
	lis 4,.LANCHOR2@ha
	la 3,.LANCHOR1@l(3)
	la 4,.LANCHOR2@l(4)
	.loc 1 1205 0
	mtlr 0
	.loc 1 1204 0
	addi 3,3,80
	addi 4,4,240
	li 5,2
	.loc 1 1205 0
	addi 1,1,8
	.cfi_remember_state
.LCFI59:
	.cfi_def_cfa_offset 0
	.loc 1 1204 0
	b push
.LVL240:
.L181:
.LCFI60:
	.cfi_restore_state
	.loc 1 1202 0 discriminator 1
	lis 4,.LC0@ha
	li 3,1282
.LVL241:
	la 4,.LC0@l(4)
	li 5,1202
	bl _glSetErrorEx
.LVL242:
	.loc 1 1205 0 discriminator 1
	lwz 0,12(1)
	addi 1,1,8
.LCFI61:
	.cfi_def_cfa_offset 0
	mtlr 0
	blr
	.cfi_endproc
.LFE116:
	.size	glPushClientAttrib, .-glPushClientAttrib
	.align 2
	.globl glPopClientAttrib
	.type	glPopClientAttrib, @function
glPopClientAttrib:
.LFB117:
	.loc 1 1208 0
	.cfi_startproc
	mflr 0
	stwu 1,-8(1)
.LCFI62:
	.cfi_def_cfa_offset 8
	.cfi_register 65, 0
	.loc 1 1209 0
	lis 9,cur_state@ha
	.loc 1 1208 0
	stw 0,12(1)
	.loc 1 1209 0
	lwz 0,cur_state@l(9)
	.cfi_offset 65, 4
	andi. 9,0,1
	bne- 0,.L185
	.loc 1 1212 0
	lwz 0,12(1)
	.loc 1 1211 0
	lis 3,.LANCHOR1@ha
	lis 4,.LANCHOR2@ha
	la 3,.LANCHOR1@l(3)
	la 4,.LANCHOR2@l(4)
	.loc 1 1212 0
	mtlr 0
	.loc 1 1211 0
	addi 3,3,80
	addi 4,4,240
	li 5,2
	.loc 1 1212 0
	addi 1,1,8
	.cfi_remember_state
.LCFI63:
	.cfi_def_cfa_offset 0
	.loc 1 1211 0
	b pop
.L185:
.LCFI64:
	.cfi_restore_state
	.loc 1 1209 0 discriminator 1
	lis 4,.LC0@ha
	li 3,1282
	la 4,.LC0@l(4)
	li 5,1209
	bl _glSetErrorEx
	.loc 1 1212 0 discriminator 1
	lwz 0,12(1)
	addi 1,1,8
.LCFI65:
	.cfi_def_cfa_offset 0
	mtlr 0
	blr
	.cfi_endproc
.LFE117:
	.size	glPopClientAttrib, .-glPopClientAttrib
	.globl clientAttribs
	.globl attribs
	.comm	call_offset,4,4
	.comm	read_mode,4,4
	.comm	glTexEnvs,864,4
	.comm	fog_color,4,1
	.comm	fog_density,4,4
	.comm	fog_endz,4,4
	.comm	fog_startz,4,4
	.comm	fog_mode,1,1
	.comm	fog_enable,1,1
	.comm	Trans,32,4
	.comm	_clearcolor,4,1
	.comm	copy_material,4,4
	.comm	copy_mat_enabled,1,1
	.comm	color_write_mask,4,4
	.comm	unpack,20,4
	.comm	pack,20,4
	.comm	point_size,4,4
	.comm	line_width,4,4
	.comm	normFar,4,4
	.comm	normNear,4,4
	.comm	viewPort,16,4
	.comm	scissorInfo,16,4
	.comm	scissor_test,1,1
	.comm	fb_max_width,4,4
	.comm	fb_max_height,4,4
	.comm	cur_state,4,4
	.comm	cull_mode,1,1
	.comm	blend_op,1,1
	.comm	blend_dst,1,1
	.comm	blend_src,1,1
	.comm	blend_type,1,1
	.comm	lighting,1,1
	.comm	gxwinding,4,4
	.comm	gxcullfaceanabled,1,1
	.comm	curmat,68,4
	.comm	globAmbient,16,4
	.comm	lights,1312,4
	.comm	cur_mode,4,4
	.comm	curmtx,4,4
	.comm	texture_stack,128,4
	.comm	projection_stack,16,4
	.comm	model_stack,16,4
	.comm	_cleardepth,4,4
	.comm	depthfunction,4,4
	.comm	depthupdate,1,1
	.comm	depthtestenabled,1,1
	.comm	cur_tex_client,4,4
	.comm	cur_tex,4,4
	.comm	_GLtype,4,4
	.comm	_type,4,4
	.comm	vert_i,4,4
	.comm	_colorelements,16000,32
	.comm	_texcoordelements,64000,32
	.comm	_vertexelements,12000,32
	.comm	_normalelements,12000,32
	.comm	color,20,4
	.comm	tex,160,4
	.comm	vert,20,4
	.comm	norm,20,4
	.comm	_temptexcoordelement,64,4
	.comm	_tempnormalelement,12,4
	.comm	_tempcolorelement,16,4
	.section	.rodata
	.align 2
	.set	.LANCHOR0,. + 0
	.type	__FUNCTION__.14259, @object
	.size	__FUNCTION__.14259, 4
__FUNCTION__.14259:
	.string	"pop"
	.type	__FUNCTION__.14096, @object
	.size	__FUNCTION__.14096, 12
__FUNCTION__.14096:
	.string	"pushPolygon"
	.type	__FUNCTION__.14230, @object
	.size	__FUNCTION__.14230, 12
__FUNCTION__.14230:
	.string	"resizeStack"
	.type	__FUNCTION__.14245, @object
	.size	__FUNCTION__.14245, 5
__FUNCTION__.14245:
	.string	"push"
	.section	".data"
	.align 2
	.set	.LANCHOR2,. + 0
	.type	attribs, @object
	.size	attribs, 240
attribs:
	.long	512
	.long	pushAccum
	.long	popAccum
	.long	16384
	.long	pushColorBuffer
	.long	popColorBuffer
	.long	1
	.long	pushCurrent
	.long	popCurrent
	.long	256
	.long	pushDepthBuffer
	.long	popDepthBuffer
	.long	8192
	.long	pushEnable
	.long	popEnable
	.long	65536
	.long	pushEval
	.long	popEval
	.long	128
	.long	pushFog
	.long	popFog
	.long	32768
	.long	pushHint
	.long	popHint
	.long	64
	.long	pushLighting
	.long	popLighting
	.long	4
	.long	pushLine
	.long	popLine
	.long	131072
	.long	pushListBase
	.long	popListBase
	.long	32
	.long	pushPixelMode
	.long	popPixelMode
	.long	2
	.long	pushPoint
	.long	popPoint
	.long	8
	.long	pushPolygon
	.long	popPolygon
	.long	16
	.long	pushPolyStipple
	.long	popPolyStipple
	.long	524288
	.long	pushScissor
	.long	popScissor
	.long	1024
	.long	pushStencil
	.long	popStencil
	.long	262144
	.long	pushTexture
	.long	popTexture
	.long	4096
	.long	pushTransform
	.long	popTransform
	.long	2048
	.long	pushViewport
	.long	popViewport
	.type	clientAttribs, @object
	.size	clientAttribs, 24
clientAttribs:
	.long	1
	.long	pushPixelStore
	.long	popPixelStore
	.long	2
	.long	pushVertexArray
	.long	popVertexArray
	.section	.rodata.str1.4,"aMS",@progbits,1
	.align 2
.LC0:
	.string	"d:/Data/Nintendo/TenebraeGX/gl2gx/source/gl_stacks.c"
	.zero	3
.LC1:
	.string	"ptr->begin <= ptr->cur"
	.zero	1
.LC2:
	.string	"ptr->cur <= stackEnd(ptr)"
	.zero	2
.LC3:
	.string	"0"
	.section	".bss"
	.align 2
	.set	.LANCHOR1,. + 0
	.type	attribStack, @object
	.size	attribStack, 80
attribStack:
	.zero	80
	.type	clientAttribStack, @object
	.size	clientAttribStack, 80
clientAttribStack:
	.zero	80
	.section	".text"
.Letext0:
	.file 2 "c:\\utils\\devkitpro\\devkitppc\\bin\\../lib/gcc/powerpc-eabi/4.6.3/include/stddef.h"
	.file 3 "d:/Data/Nintendo/TenebraeGX/gl2gx/include/GL/gl.h"
	.file 4 "c:\\utils\\devkitpro\\devkitppc\\bin\\../lib/gcc/powerpc-eabi/4.6.3/../../../../powerpc-eabi/include/stdint.h"
	.file 5 "c:/utils/devkitPro/libogc/include/gctypes.h"
	.file 6 "c:/utils/devkitPro/libogc/include/ogc/gu.h"
	.file 7 "c:/utils/devkitPro/libogc/include/ogc/gx.h"
	.file 8 "d:/Data/Nintendo/TenebraeGX/gl2gx/source/include/glint.h"
	.file 9 "d:/Data/Nintendo/TenebraeGX/gl2gx/source/include/mat_stack.h"