	.file	"gl_transfer.c"
	.section	".text"
.Ltext0:
	.cfi_sections	.debug_frame
	.align 2
	.globl getBYTE
	.type	getBYTE, @function
getBYTE:
.LFB79:
	.file 1 "d:/Data/Nintendo/TenebraeGX/gl2gx/source/gl_transfer.c"
	.loc 1 224 0
	.cfi_startproc
.LVL0:
	.loc 1 226 0
	lwz 9,0(3)
	.loc 1 224 0
	stwu 1,-24(1)
.LCFI0:
	.cfi_def_cfa_offset 24
	.loc 1 226 0
	lbz 0,0(9)
.LVL1:
	addi 9,9,1
	stw 9,0(3)
.LVL2:
.LBB2059:
.LBB2060:
	.loc 1 16 0
	extsb. 0,0
	.loc 1 18 0
	xoris 0,0,0x8000
.LVL3:
	.loc 1 16 0
	blt- 0,.L2
.LVL4:
	.loc 1 18 0
	stw 0,12(1)
	lis 0,0x4330
.LVL5:
	stw 0,8(1)
	lis 9,.LC1@ha
	lfs 0,.LC1@l(9)
	lis 9,.LC2@ha
	lfd 13,8(1)
.LBE2060:
.LBE2059:
	.loc 1 228 0
	addi 1,1,24
	.cfi_remember_state
.LCFI1:
	.cfi_def_cfa_offset 0
.LBB2064:
.LBB2061:
	.loc 1 18 0
	fsub 0,13,0
	lfs 13,.LC2@l(9)
	frsp 0,0
	fdivs 0,0,13
.LBE2061:
.LBE2064:
	.loc 1 227 0
	stfs 0,0(4)
	.loc 1 228 0
	blr
.LVL6:
.L2:
.LCFI2:
	.cfi_restore_state
.LBB2065:
.LBB2062:
	.loc 1 22 0
	stw 0,20(1)
	lis 0,0x4330
.LVL7:
	stw 0,16(1)
	lis 9,.LC1@ha
	lfs 0,.LC1@l(9)
	lis 9,.LC3@ha
	lfd 13,16(1)
.LBE2062:
.LBE2065:
	.loc 1 228 0
	addi 1,1,24
.LCFI3:
	.cfi_def_cfa_offset 0
.LBB2066:
.LBB2063:
	.loc 1 22 0
	fsub 0,13,0
	lfs 13,.LC3@l(9)
	frsp 0,0
	fmuls 0,0,13
.LBE2063:
.LBE2066:
	.loc 1 227 0
	stfs 0,0(4)
	.loc 1 228 0
	blr
	.cfi_endproc
.LFE79:
	.size	getBYTE, .-getBYTE
	.align 2
	.globl getUBYTE
	.type	getUBYTE, @function
getUBYTE:
.LFB80:
	.loc 1 230 0
	.cfi_startproc
.LVL8:
	stwu 1,-16(1)
.LCFI4:
	.cfi_def_cfa_offset 16
	.loc 1 233 0
	lis 11,0x4330
	.loc 1 232 0
	lwz 9,0(3)
	lbz 0,0(9)
.LVL9:
	addi 9,9,1
	.loc 1 233 0
	stw 11,8(1)
	lis 11,.LC1@ha
	xoris 0,0,0x8000
.LVL10:
	lfs 0,.LC1@l(11)
	stw 0,12(1)
	.loc 1 232 0
	stw 9,0(3)
	.loc 1 233 0
	lis 9,.LC4@ha
	lfd 13,8(1)
	.loc 1 234 0
	addi 1,1,16
.LCFI5:
	.cfi_def_cfa_offset 0
	.loc 1 233 0
	fsub 0,13,0
	lfs 13,.LC4@l(9)
	frsp 0,0
	fdivs 0,0,13
	stfs 0,0(4)
	.loc 1 234 0
	blr
	.cfi_endproc
.LFE80:
	.size	getUBYTE, .-getUBYTE
	.align 2
	.globl getSHORT
	.type	getSHORT, @function
getSHORT:
.LFB81:
	.loc 1 236 0
	.cfi_startproc
.LVL11:
	.loc 1 238 0
	lwz 9,0(3)
	.loc 1 236 0
	stwu 1,-24(1)
.LCFI6:
	.cfi_def_cfa_offset 24
	.loc 1 238 0
	lha 0,0(9)
.LVL12:
	addi 9,9,2
	stw 9,0(3)
.LVL13:
.LBB2067:
.LBB2068:
	.loc 1 28 0
	cmpwi 7,0,0
	.loc 1 30 0
	xoris 0,0,0x8000
	.loc 1 28 0
	blt- 7,.L7
.LVL14:
	.loc 1 30 0
	stw 0,12(1)
	lis 0,0x4330
	stw 0,8(1)
	lis 9,.LC1@ha
	lfs 0,.LC1@l(9)
	lis 9,.LC5@ha
	lfd 13,8(1)
.LBE2068:
.LBE2067:
	.loc 1 240 0
	addi 1,1,24
	.cfi_remember_state
.LCFI7:
	.cfi_def_cfa_offset 0
.LBB2072:
.LBB2069:
	.loc 1 30 0
	fsub 0,13,0
	lfs 13,.LC5@l(9)
	frsp 0,0
	fdivs 0,0,13
.LBE2069:
.LBE2072:
	.loc 1 239 0
	stfs 0,0(4)
	.loc 1 240 0
	blr
.L7:
.LCFI8:
	.cfi_restore_state
.LBB2073:
.LBB2070:
	.loc 1 34 0
	stw 0,20(1)
	lis 0,0x4330
	stw 0,16(1)
	lis 9,.LC1@ha
	lfs 0,.LC1@l(9)
	lis 9,.LC6@ha
	lfd 13,16(1)
.LBE2070:
.LBE2073:
	.loc 1 240 0
	addi 1,1,24
.LCFI9:
	.cfi_def_cfa_offset 0
.LBB2074:
.LBB2071:
	.loc 1 34 0
	fsub 0,13,0
	lfs 13,.LC6@l(9)
	frsp 0,0
	fmuls 0,0,13
.LBE2071:
.LBE2074:
	.loc 1 239 0
	stfs 0,0(4)
	.loc 1 240 0
	blr
	.cfi_endproc
.LFE81:
	.size	getSHORT, .-getSHORT
	.align 2
	.globl getUSHORT
	.type	getUSHORT, @function
getUSHORT:
.LFB82:
	.loc 1 242 0
	.cfi_startproc
.LVL15:
	.loc 1 244 0
	lwz 9,0(3)
	.loc 1 245 0
	lis 11,0x4330
	.loc 1 242 0
	stwu 1,-16(1)
.LCFI10:
	.cfi_def_cfa_offset 16
	.loc 1 244 0
	lhz 0,0(9)
.LVL16:
	addi 9,9,2
	.loc 1 245 0
	stw 11,8(1)
	lis 11,.LC1@ha
	xoris 0,0,0x8000
.LVL17:
	lfs 0,.LC1@l(11)
	stw 0,12(1)
	.loc 1 244 0
	stw 9,0(3)
	.loc 1 245 0
	lis 9,.LC7@ha
	lfd 13,8(1)
	.loc 1 246 0
	addi 1,1,16
.LCFI11:
	.cfi_def_cfa_offset 0
	.loc 1 245 0
	fsub 0,13,0
	lfs 13,.LC7@l(9)
	frsp 0,0
	fdivs 0,0,13
	stfs 0,0(4)
	.loc 1 246 0
	blr
	.cfi_endproc
.LFE82:
	.size	getUSHORT, .-getUSHORT
	.align 2
	.globl getUINT
	.type	getUINT, @function
getUINT:
.LFB83:
	.loc 1 248 0
	.cfi_startproc
.LVL18:
	.loc 1 250 0
	lwz 9,0(3)
	.loc 1 251 0
	lis 11,0x4330
	.loc 1 248 0
	stwu 1,-16(1)
.LCFI12:
	.cfi_def_cfa_offset 16
	.loc 1 250 0
	lwz 0,0(9)
.LVL19:
	addi 9,9,4
	.loc 1 251 0
	stw 11,8(1)
	lis 11,.LC9@ha
	stw 0,12(1)
	lfs 0,.LC9@l(11)
	lfd 13,8(1)
	.loc 1 252 0
	.loc 1 250 0
	stw 9,0(3)
	.loc 1 251 0
	lis 9,.LC10@ha
	fsub 0,13,0
	lfs 13,.LC10@l(9)
	.loc 1 252 0
	addi 1,1,16
.LCFI13:
	.cfi_def_cfa_offset 0
	.loc 1 251 0
	frsp 0,0
	fmuls 0,0,13
	stfs 0,0(4)
	.loc 1 252 0
	blr
	.cfi_endproc
.LFE83:
	.size	getUINT, .-getUINT
	.align 2
	.globl getINT
	.type	getINT, @function
getINT:
.LFB84:
	.loc 1 254 0
	.cfi_startproc
.LVL20:
	.loc 1 256 0
	lwz 9,0(3)
	.loc 1 254 0
	stwu 1,-24(1)
.LCFI14:
	.cfi_def_cfa_offset 24
	.loc 1 256 0
	lwz 0,0(9)
.LVL21:
	addi 9,9,4
	stw 9,0(3)
.LVL22:
.LBB2075:
.LBB2076:
	.loc 1 40 0
	cmpwi 7,0,0
	.loc 1 42 0
	xoris 0,0,0x8000
	.loc 1 40 0
	blt- 7,.L12
	.loc 1 42 0
	stw 0,12(1)
	lis 0,0x4330
	stw 0,8(1)
	.loc 1 46 0
	lis 9,.LC1@ha
	lfs 0,.LC1@l(9)
	lis 9,.LC11@ha
	.loc 1 42 0
	lfd 13,8(1)
.LBE2076:
.LBE2075:
	.loc 1 258 0
	addi 1,1,24
	.cfi_remember_state
.LCFI15:
	.cfi_def_cfa_offset 0
.LBB2080:
.LBB2077:
	.loc 1 46 0
	fsub 0,13,0
	lfs 13,.LC11@l(9)
	frsp 0,0
	fmuls 0,0,13
.LBE2077:
.LBE2080:
	.loc 1 257 0
	stfs 0,0(4)
	.loc 1 258 0
	blr
.L12:
.LCFI16:
	.cfi_restore_state
.LBB2081:
.LBB2078:
	.loc 1 46 0
	stw 0,20(1)
	lis 0,0x4330
	stw 0,16(1)
	lis 9,.LC1@ha
	lfs 0,.LC1@l(9)
	lis 9,.LC11@ha
	lfd 13,16(1)
.LBE2078:
.LBE2081:
	.loc 1 258 0
	addi 1,1,24
.LCFI17:
	.cfi_def_cfa_offset 0
.LBB2082:
.LBB2079:
	.loc 1 46 0
	fsub 0,13,0
	lfs 13,.LC11@l(9)
	frsp 0,0
	fmuls 0,0,13
.LBE2079:
.LBE2082:
	.loc 1 257 0
	stfs 0,0(4)
	.loc 1 258 0
	blr
	.cfi_endproc
.LFE84:
	.size	getINT, .-getINT
	.align 2
	.globl getFLOAT
	.type	getFLOAT, @function
getFLOAT:
.LFB85:
	.loc 1 260 0
	.cfi_startproc
.LVL23:
	.loc 1 262 0
	lwz 9,0(3)
	lwz 0,0(9)
.LVL24:
	addi 9,9,4
	stw 9,0(3)
	.loc 1 264 0
	.loc 1 263 0
	stw 0,0(4)
	.loc 1 264 0
	blr
	.cfi_endproc
.LFE85:
	.size	getFLOAT, .-getFLOAT
	.align 2
	.globl glPixelTransferf
	.type	glPixelTransferf, @function
glPixelTransferf:
.LFB68:
	.loc 1 56 0
	.cfi_startproc
.LVL25:
	.loc 1 57 0
	addi 3,3,-3348
.LVL26:
	.loc 1 56 0
	mflr 0
	.loc 1 57 0
	cmplwi 7,3,9
	.loc 1 56 0
	stwu 1,-8(1)
.LCFI18:
	.cfi_def_cfa_offset 8
	.cfi_register 65, 0
	stw 0,12(1)
	.loc 1 57 0
	ble- 7,.L28
	.cfi_offset 65, 4
.LVL27:
.L17:
	.loc 1 74 0
	lis 4,.LC12@ha
	li 3,1280
	la 4,.LC12@l(4)
	li 5,74
	bl _glSetErrorEx
.LVL28:
	.loc 1 77 0
	lwz 0,12(1)
	addi 1,1,8
	.cfi_remember_state
.LCFI19:
	.cfi_def_cfa_offset 0
	mtlr 0
	blr
.LVL29:
.L28:
.LCFI20:
	.cfi_restore_state
	.loc 1 57 0
	lis 9,.L26@ha
	slwi 3,3,2
.LVL30:
	la 9,.L26@l(9)
	lwzx 0,9,3
	add 9,0,9
	mtctr 9
	bctr
	.section	.rodata
	.align 2
	.align 2
.L26:
	.long .L19-.L26
	.long .L19-.L26
	.long .L17-.L26
	.long .L17-.L26
	.long .L21-.L26
	.long .L21-.L26
	.long .L23-.L26
	.long .L23-.L26
	.long .L24-.L26
	.long .L25-.L26
	.section	".text"
.L23:
	.loc 1 77 0
	lwz 0,12(1)
	.loc 1 64 0
	lis 9,Trans+16@ha
	.loc 1 77 0
	.loc 1 64 0
	stfs 1,Trans+16@l(9)
	.loc 1 77 0
	mtlr 0
	addi 1,1,8
	.cfi_remember_state
.LCFI21:
	.cfi_def_cfa_offset 0
	blr
.L21:
.LCFI22:
	.cfi_restore_state
	lwz 0,12(1)
	.loc 1 62 0
	lis 9,Trans+8@ha
	.loc 1 77 0
	.loc 1 62 0
	stfs 1,Trans+8@l(9)
	.loc 1 77 0
	mtlr 0
	addi 1,1,8
	.cfi_remember_state
.LCFI23:
	.cfi_def_cfa_offset 0
	blr
.L19:
.LCFI24:
	.cfi_restore_state
	lwz 0,12(1)
	.loc 1 60 0
	lis 9,Trans@ha
	.loc 1 77 0
	.loc 1 60 0
	stfs 1,Trans@l(9)
	.loc 1 77 0
	mtlr 0
	addi 1,1,8
	.cfi_remember_state
.LCFI25:
	.cfi_def_cfa_offset 0
	blr
.L24:
.LCFI26:
	.cfi_restore_state
	lwz 0,12(1)
	.loc 1 65 0
	lis 9,Trans+24@ha
	.loc 1 77 0
	.loc 1 65 0
	stfs 1,Trans+24@l(9)
	.loc 1 77 0
	mtlr 0
	addi 1,1,8
	.cfi_remember_state
.LCFI27:
	.cfi_def_cfa_offset 0
	blr
.L25:
.LCFI28:
	.cfi_restore_state
	lwz 0,12(1)
	.loc 1 66 0
	lis 9,Trans+28@ha
	.loc 1 77 0
	.loc 1 66 0
	stfs 1,Trans+28@l(9)
	.loc 1 77 0
	mtlr 0
	addi 1,1,8
.LCFI29:
	.cfi_def_cfa_offset 0
	blr
	.cfi_endproc
.LFE68:
	.size	glPixelTransferf, .-glPixelTransferf
	.align 2
	.globl glPixelTransferi
	.type	glPixelTransferi, @function
glPixelTransferi:
.LFB67:
	.loc 1 51 0
	.cfi_startproc
.LVL31:
	stwu 1,-16(1)
.LCFI30:
	.cfi_def_cfa_offset 16
	.loc 1 52 0
	xoris 4,4,0x8000
.LVL32:
	lis 0,0x4330
	lis 9,.LC1@ha
	stw 4,12(1)
	stw 0,8(1)
	lfs 0,.LC1@l(9)
	lfd 1,8(1)
	.loc 1 53 0
	addi 1,1,16
.LCFI31:
	.cfi_def_cfa_offset 0
	.loc 1 52 0
	fsub 1,1,0
	frsp 1,1
	b glPixelTransferf
.LVL33:
.LVL34:
	.cfi_endproc
.LFE67:
	.size	glPixelTransferi, .-glPixelTransferi
	.align 2
	.globl _glGetPixelTransferf
	.type	_glGetPixelTransferf, @function
_glGetPixelTransferf:
.LFB69:
	.loc 1 80 0
	.cfi_startproc
.LVL35:
	stwu 1,-16(1)
.LCFI32:
	.cfi_def_cfa_offset 16
	mflr 0
	stw 30,8(1)
	.loc 1 81 0
	mr. 30,4
	.cfi_offset 30, -8
	.cfi_register 65, 0
	.loc 1 80 0
	stw 31,12(1)
	mr 31,3
	.cfi_offset 31, -4
	stw 0,20(1)
	.loc 1 81 0
	beq- 0,.L45
	.cfi_offset 65, 4
.LVL36:
.L31:
	.loc 1 87 0
	addi 31,31,-3344
.LVL37:
	cmplwi 7,31,15
	ble- 7,.L46
.LVL38:
.L32:
	.loc 1 104 0
	lis 4,.LC12@ha
	li 3,1280
	la 4,.LC12@l(4)
	li 5,104
	bl _glSetErrorEx
.L30:
	.loc 1 108 0
	lwz 0,20(1)
	lwz 30,8(1)
.LVL39:
	mtlr 0
	lwz 31,12(1)
	addi 1,1,16
	.cfi_remember_state
.LCFI33:
	.cfi_def_cfa_offset 0
	.cfi_restore 31
	.cfi_restore 30
	blr
.LVL40:
.L46:
.LCFI34:
	.cfi_restore_state
	.loc 1 87 0
	lis 9,.L43@ha
	slwi 31,31,2
.LVL41:
	la 9,.L43@l(9)
	lwzx 0,9,31
	add 9,0,9
	mtctr 9
	bctr
	.section	.rodata
	.align 2
	.align 2
.L43:
	.long .L33-.L43
	.long .L33-.L43
	.long .L33-.L43
	.long .L33-.L43
	.long .L35-.L43
	.long .L35-.L43
	.long .L32-.L43
	.long .L32-.L43
	.long .L37-.L43
	.long .L37-.L43
	.long .L39-.L43
	.long .L39-.L43
	.long .L40-.L43
	.long .L41-.L43
	.long .L42-.L43
	.long .L33-.L43
	.section	".text"
.L39:
	.loc 1 94 0
	lis 9,Trans+16@ha
	.loc 1 108 0
	lwz 31,12(1)
	.loc 1 94 0
	lwz 0,Trans+16@l(9)
	stw 0,0(30)
	.loc 1 108 0
	lwz 0,20(1)
	lwz 30,8(1)
.LVL42:
	mtlr 0
	addi 1,1,16
	.cfi_remember_state
	.cfi_restore 30
	.cfi_restore 31
.LCFI35:
	.cfi_def_cfa_offset 0
	blr
.LVL43:
.L35:
.LCFI36:
	.cfi_restore_state
	.loc 1 90 0
	lis 9,Trans@ha
	.loc 1 108 0
	lwz 31,12(1)
	.loc 1 90 0
	lwz 0,Trans@l(9)
	stw 0,0(30)
	.loc 1 108 0
	lwz 0,20(1)
	lwz 30,8(1)
.LVL44:
	mtlr 0
	addi 1,1,16
	.cfi_remember_state
	.cfi_restore 30
	.cfi_restore 31
.LCFI37:
	.cfi_def_cfa_offset 0
	blr
.LVL45:
.L37:
.LCFI38:
	.cfi_restore_state
	.loc 1 92 0
	lis 9,Trans+8@ha
	.loc 1 108 0
	lwz 31,12(1)
	.loc 1 92 0
	lwz 0,Trans+8@l(9)
	stw 0,0(30)
	.loc 1 108 0
	lwz 0,20(1)
	lwz 30,8(1)
.LVL46:
	mtlr 0
	addi 1,1,16
	.cfi_remember_state
	.cfi_restore 30
	.cfi_restore 31
.LCFI39:
	.cfi_def_cfa_offset 0
	blr
.LVL47:
.L33:
.LCFI40:
	.cfi_restore_state
	.loc 1 102 0
	li 0,0
	stw 0,0(30)
	b .L30
.L41:
	.loc 1 96 0
	lis 9,Trans+28@ha
	lwz 0,Trans+28@l(9)
	stw 0,0(30)
	b .L30
.L40:
	.loc 1 95 0
	lis 9,Trans+24@ha
	lwz 0,Trans+24@l(9)
	stw 0,0(30)
	b .L30
.L42:
	.loc 1 97 0
	lis 9,.LC13@ha
	lwz 0,.LC13@l(9)
	stw 0,0(30)
	b .L30
.LVL48:
.L45:
	.loc 1 83 0
	lis 4,.LC12@ha
	li 3,1281
.LVL49:
	la 4,.LC12@l(4)
	li 5,83
	bl _glSetErrorEx
	b .L31
	.cfi_endproc
.LFE69:
	.size	_glGetPixelTransferf, .-_glGetPixelTransferf
	.align 2
	.globl PlaceII
	.type	PlaceII, @function
PlaceII:
.LFB74:
	.loc 1 153 0
	.cfi_startproc
.LVL50:
	.loc 1 154 0
	cmpwi 0,6,0
	bne- 0,.L51
.LVL51:
.LBB2083:
.LBB2084:
	.loc 1 116 0
	lwz 9,0(5)
	.loc 1 115 0
	srwi 4,4,4
.LVL52:
	rlwinm 3,3,0,0,27
.LVL53:
	or 4,4,3
	.loc 1 116 0
	addi 0,9,1
	stb 4,0(9)
	stw 0,0(5)
	blr
.LVL54:
.L51:
.LBE2084:
.LBE2083:
	.loc 1 154 0
	cmpwi 7,6,1
	bnelr+ 7
.LVL55:
.LBB2085:
.LBB2086:
	.loc 1 122 0
	lwz 9,0(5)
.LBE2086:
.LBE2085:
.LBB2088:
.LBB2089:
	addi 0,9,2
.LBE2089:
.LBE2088:
.LBB2091:
.LBB2087:
	stb 3,0(9)
.LVL56:
.LBE2087:
.LBE2091:
.LBB2092:
.LBB2090:
	stb 3,1(9)
	stw 0,0(5)
	blr
.LBE2090:
.LBE2092:
	.cfi_endproc
.LFE74:
	.size	PlaceII, .-PlaceII
	.align 2
	.globl PlaceIA
	.type	PlaceIA, @function
PlaceIA:
.LFB75:
	.loc 1 162 0
	.cfi_startproc
.LVL57:
	.loc 1 163 0
	cmpwi 7,6,2
	beq- 7,.L55
	cmplwi 7,6,2
	ble- 7,.L59
	cmpwi 7,6,3
	beq- 7,.L56
	cmpwi 7,6,39
	bnelr+ 7
.LVL58:
.LBB2093:
.LBB2094:
	.loc 1 122 0
	lwz 9,0(5)
	addi 0,9,1
	stb 4,0(9)
	stw 0,0(5)
	blr
.LVL59:
.L59:
.LBE2094:
.LBE2093:
	.loc 1 163 0
	cmpwi 7,6,1
	bnelr+ 7
.LVL60:
.LBB2095:
.LBB2096:
	.loc 1 122 0
	lwz 9,0(5)
	addi 0,9,1
	stb 3,0(9)
	stw 0,0(5)
	blr
.LVL61:
.L55:
.LBE2096:
.LBE2095:
.LBB2097:
.LBB2098:
	.loc 1 116 0
	lwz 9,0(5)
	.loc 1 115 0
	srwi 4,4,4
.LVL62:
	rlwinm 3,3,0,0,27
.LVL63:
	or 4,4,3
	.loc 1 116 0
	addi 0,9,1
	stb 4,0(9)
	stw 0,0(5)
	blr
.LVL64:
.L56:
.LBE2098:
.LBE2097:
.LBB2099:
.LBB2100:
	.loc 1 122 0
	lwz 9,0(5)
.LBE2100:
.LBE2099:
.LBB2102:
.LBB2103:
	addi 0,9,2
.LBE2103:
.LBE2102:
.LBB2105:
.LBB2101:
	stb 3,0(9)
.LVL65:
.LBE2101:
.LBE2105:
.LBB2106:
.LBB2104:
	stb 4,1(9)
	stw 0,0(5)
	blr
.LBE2104:
.LBE2106:
	.cfi_endproc
.LFE75:
	.size	PlaceIA, .-PlaceIA
	.align 2
	.globl Offset
	.type	Offset, @function
Offset:
.LFB77:
	.loc 1 178 0
	.cfi_startproc
.LVL66:
	.loc 1 178 0
	cmplwi 7,4,39
	li 0,0
	bgt- 7,.L61
	.loc 1 1563 0
	lis 9,.LANCHOR0@ha
	la 9,.LANCHOR0@l(9)
	lbzx 0,9,4
.L61:
.LVL67:
.LBB2107:
.LBB2108:
	.file 2 "d:/Data/Nintendo/TenebraeGX/gl2gx/source/include/glint.h"
	.loc 2 350 0
	lwz 9,0(3)
.LBE2108:
.LBE2107:
	.loc 1 193 0
.LBB2110:
.LBB2109:
	.loc 2 350 0
	add 0,9,0
.LVL68:
	stw 0,0(3)
.LBE2109:
.LBE2110:
	.loc 1 193 0
	blr
	.cfi_endproc
.LFE77:
	.size	Offset, .-Offset
	.align 2
	.globl ReadValue
	.type	ReadValue, @function
ReadValue:
.LFB86:
	.loc 1 268 0
	.cfi_startproc
.LVL69:
	.loc 1 269 0
	addi 4,4,-5120
.LVL70:
	.loc 1 268 0
	stwu 1,-80(1)
.LCFI41:
	.cfi_def_cfa_offset 80
	.loc 1 269 0
	cmplwi 7,4,6
	bgt- 7,.L63
	lis 9,.L72@ha
	slwi 4,4,2
.LVL71:
	la 9,.L72@l(9)
	lwzx 0,9,4
	add 9,0,9
	mtctr 9
.LBB2111:
	.loc 1 317 0
	lwz 9,0(3)
.LBE2111:
	.loc 1 269 0
	bctr
	.section	.rodata
	.align 2
	.align 2
.L72:
	.long .L65-.L72
	.long .L66-.L72
	.long .L67-.L72
	.long .L68-.L72
	.long .L69-.L72
	.long .L70-.L72
	.long .L71-.L72
	.section	".text"
.L71:
.LVL72:
.LBB2112:
	.loc 1 317 0
	lwz 0,0(9)
.LVL73:
	addi 9,9,4
	stw 9,0(3)
	.loc 1 318 0
	stw 0,0(5)
.LVL74:
.L63:
.LBE2112:
	.loc 1 322 0
	addi 1,1,80
	.cfi_remember_state
.LCFI42:
	.cfi_def_cfa_offset 0
	blr
.L70:
.LCFI43:
	.cfi_restore_state
.LVL75:
.LBB2113:
	.loc 1 303 0
	lwz 0,0(9)
.LVL76:
	.loc 1 304 0
	lis 11,0x4330
	stw 11,56(1)
	lis 11,.LC9@ha
	stw 0,60(1)
	.loc 1 303 0
	addi 9,9,4
.LVL77:
	.loc 1 304 0
	lfs 0,.LC9@l(11)
	lfd 13,56(1)
	.loc 1 303 0
	stw 9,0(3)
	.loc 1 304 0
	lis 9,.LC10@ha
	fsub 0,13,0
	lfs 13,.LC10@l(9)
	frsp 0,0
	fmuls 0,0,13
	stfs 0,0(5)
.LVL78:
.L80:
.LBE2113:
	.loc 1 322 0
	addi 1,1,80
	.cfi_remember_state
.LCFI44:
	.cfi_def_cfa_offset 0
	blr
.L65:
.LCFI45:
	.cfi_restore_state
.LVL79:
.LBB2114:
	.loc 1 281 0
	lbz 0,0(9)
.LVL80:
	addi 9,9,1
	stw 9,0(3)
.LVL81:
.LBB2115:
.LBB2116:
	.loc 1 16 0
	extsb. 0,0
	.loc 1 18 0
	xoris 0,0,0x8000
.LVL82:
	.loc 1 16 0
	blt- 0,.L73
	.loc 1 18 0
	stw 0,20(1)
	lis 0,0x4330
.LVL83:
	stw 0,16(1)
	lis 9,.LC1@ha
	lfs 0,.LC1@l(9)
	lis 9,.LC2@ha
	lfd 13,16(1)
	fsub 0,13,0
	lfs 13,.LC2@l(9)
	frsp 0,0
	fdivs 0,0,13
.LBE2116:
.LBE2115:
.LBE2114:
.LBB2119:
	.loc 1 304 0
	stfs 0,0(5)
	b .L80
.LVL84:
.L66:
.LBE2119:
.LBB2120:
	.loc 1 274 0
	lbz 0,0(9)
.LVL85:
	.loc 1 275 0
	lis 11,0x4330
	stw 11,8(1)
	lis 11,.LC1@ha
	xoris 0,0,0x8000
.LVL86:
	lfs 0,.LC1@l(11)
	stw 0,12(1)
	.loc 1 274 0
	addi 9,9,1
	stw 9,0(3)
	.loc 1 275 0
	lis 9,.LC4@ha
	lfd 13,8(1)
.LBE2120:
	.loc 1 322 0
	addi 1,1,80
	.cfi_remember_state
.LCFI46:
	.cfi_def_cfa_offset 0
.LBB2121:
	.loc 1 275 0
	fsub 0,13,0
	lfs 13,.LC4@l(9)
	frsp 0,0
	fdivs 0,0,13
	stfs 0,0(5)
.LBE2121:
	.loc 1 322 0
	blr
.LVL87:
.L67:
.LCFI47:
	.cfi_restore_state
.LBB2122:
	.loc 1 295 0
	lha 0,0(9)
.LVL88:
	addi 9,9,2
	stw 9,0(3)
.LVL89:
.LBB2123:
.LBB2124:
	.loc 1 28 0
	cmpwi 7,0,0
	.loc 1 30 0
	xoris 0,0,0x8000
	.loc 1 28 0
	blt- 7,.L75
	.loc 1 30 0
	stw 0,44(1)
	lis 0,0x4330
	stw 0,40(1)
	lis 9,.LC1@ha
	lfs 0,.LC1@l(9)
	lis 9,.LC5@ha
	lfd 13,40(1)
	fsub 0,13,0
	lfs 13,.LC5@l(9)
	frsp 0,0
	fdivs 0,0,13
.LBE2124:
.LBE2123:
.LBE2122:
.LBB2127:
	.loc 1 304 0
	stfs 0,0(5)
	b .L80
.LVL90:
.L68:
.LBE2127:
.LBB2128:
	.loc 1 288 0
	lhz 0,0(9)
.LVL91:
	.loc 1 289 0
	lis 11,0x4330
	stw 11,32(1)
	lis 11,.LC1@ha
	xoris 0,0,0x8000
.LVL92:
	lfs 0,.LC1@l(11)
	stw 0,36(1)
	.loc 1 288 0
	addi 9,9,2
	stw 9,0(3)
	.loc 1 289 0
	lis 9,.LC7@ha
	lfd 13,32(1)
.LBE2128:
	.loc 1 322 0
	addi 1,1,80
	.cfi_remember_state
.LCFI48:
	.cfi_def_cfa_offset 0
.LBB2129:
	.loc 1 289 0
	fsub 0,13,0
	lfs 13,.LC7@l(9)
	frsp 0,0
	fdivs 0,0,13
	stfs 0,0(5)
.LBE2129:
	.loc 1 322 0
	blr
.LVL93:
.L69:
.LCFI49:
	.cfi_restore_state
.LBB2130:
	.loc 1 310 0
	lwz 0,0(9)
.LVL94:
	addi 9,9,4
	stw 9,0(3)
.LVL95:
.LBB2131:
.LBB2132:
	.loc 1 40 0
	cmpwi 7,0,0
	.loc 1 42 0
	xoris 0,0,0x8000
	.loc 1 40 0
	blt- 7,.L77
	.loc 1 42 0
	stw 0,68(1)
	lis 0,0x4330
	stw 0,64(1)
	lis 9,.LC1@ha
	lfs 0,.LC1@l(9)
	lis 9,.LC11@ha
	lfd 13,64(1)
	fsub 0,13,0
	lfs 13,.LC11@l(9)
	frsp 0,0
	fmuls 0,0,13
.LBE2132:
.LBE2131:
.LBE2130:
.LBB2135:
	.loc 1 304 0
	stfs 0,0(5)
	b .L80
.LVL96:
.L73:
.LBE2135:
.LBB2136:
.LBB2118:
.LBB2117:
	.loc 1 22 0
	stw 0,28(1)
	lis 0,0x4330
.LVL97:
	stw 0,24(1)
	lis 9,.LC1@ha
	lfs 0,.LC1@l(9)
	lis 9,.LC3@ha
	lfd 13,24(1)
	fsub 13,13,0
	lfs 0,.LC3@l(9)
	frsp 13,13
	fmuls 0,13,0
.LBE2117:
.LBE2118:
.LBE2136:
.LBB2137:
	.loc 1 304 0
	stfs 0,0(5)
	b .L80
.LVL98:
.L77:
.LBE2137:
.LBB2138:
.LBB2134:
.LBB2133:
	.loc 1 46 0
	stw 0,76(1)
	lis 0,0x4330
	stw 0,72(1)
	lis 9,.LC1@ha
	lfs 0,.LC1@l(9)
	lis 9,.LC11@ha
	lfd 13,72(1)
	fsub 13,13,0
	lfs 0,.LC11@l(9)
	frsp 13,13
	fmuls 0,13,0
.LBE2133:
.LBE2134:
.LBE2138:
.LBB2139:
	.loc 1 304 0
	stfs 0,0(5)
	b .L80
.LVL99:
.L75:
.LBE2139:
.LBB2140:
.LBB2126:
.LBB2125:
	.loc 1 34 0
	stw 0,52(1)
	lis 0,0x4330
	stw 0,48(1)
	lis 9,.LC1@ha
	lfs 0,.LC1@l(9)
	lis 9,.LC6@ha
	lfd 13,48(1)
	fsub 13,13,0
	lfs 0,.LC6@l(9)
	frsp 13,13
	fmuls 0,13,0
.LBE2125:
.LBE2126:
.LBE2140:
.LBB2141:
	.loc 1 304 0
	stfs 0,0(5)
	b .L80
.LBE2141:
	.cfi_endproc
.LFE86:
	.size	ReadValue, .-ReadValue
	.align 2
	.globl pixel_offset
	.type	pixel_offset, @function
pixel_offset:
.LFB87:
	.loc 1 325 0
	.cfi_startproc
.LVL100:
	.loc 1 329 0
	cmplwi 7,5,32820
	bgt- 7,.L85
	cmplwi 7,5,32819
	blt- 7,.L102
.L83:
	.loc 1 345 0
	li 7,2
.LVL101:
.L82:
	.loc 1 361 0
	cmpwi 7,3,6408
	beq- 7,.L90
.L105:
	cmplwi 7,3,6408
	bgt- 7,.L92
	cmplwi 7,3,6403
	bge- 7,.L103
.L87:
	.loc 1 327 0
	li 11,0
.LVL102:
.L88:
	.loc 1 375 0
	cmplwi 7,5,32818
	blt- 7,.L94
	cmplwi 7,5,32822
	ble- 7,.L99
	addis 5,5,0xffff
.LVL103:
	addi 5,5,31902
.LVL104:
	cmplwi 7,5,6
	ble- 7,.L99
.LVL105:
.L94:
	.loc 1 394 0
	lwz 0,4(10)
	cmpwi 7,0,0
	ble- 7,.L95
.LVL106:
	.loc 1 396 0
	mr 6,0
.LVL107:
.L95:
	.loc 1 399 0
	mullw 11,11,7
.LVL108:
	.loc 1 401 0
	lwz 0,16(10)
	.loc 1 399 0
	mullw 6,6,11
.LVL109:
	.loc 1 401 0
	divwu 7,6,0
.LVL110:
	mullw 7,7,0
.LVL111:
	.loc 1 403 0
	subf. 7,7,6
.LVL112:
	beq- 0,.L96
	.loc 1 405 0
	add 6,6,0
.LVL113:
	subf 6,7,6
.LVL114:
.L96:
	.loc 1 408 0
	lwz 3,8(10)
.LVL115:
	.loc 1 409 0
	.loc 1 408 0
	lwz 0,12(10)
	add 9,9,3
.LVL116:
	add 8,8,0
.LVL117:
	mullw 6,6,9
.LVL118:
	mullw 11,11,8
	add 3,6,11
	.loc 1 409 0
	add 3,4,3
	blr
.LVL119:
.L85:
	.loc 1 329 0
	cmplwi 7,5,33638
	ble- 7,.L104
	cmplwi 7,5,33640
	ble- 7,.L84
.L97:
	.loc 1 335 0
	li 7,1
.LVL120:
.L106:
	.loc 1 361 0
	cmpwi 7,3,6408
	bne+ 7,.L105
.L90:
.LVL121:
	.loc 1 372 0
	li 11,4
	b .L88
.LVL122:
.L104:
	.loc 1 329 0
	cmplwi 7,5,33635
	bge- 7,.L83
	cmplwi 7,5,32822
	bgt- 7,.L97
.L84:
.LVL123:
	.loc 1 354 0
	li 7,4
.LVL124:
	.loc 1 355 0
	b .L82
.LVL125:
.L102:
	.loc 1 329 0
	cmplwi 7,5,5122
	blt- 7,.L97
	cmplwi 7,5,5123
	ble- 7,.L83
	cmplwi 7,5,5126
	ble- 7,.L84
	.loc 1 335 0
	li 7,1
.LVL126:
	b .L106
.LVL127:
.L99:
	.loc 1 389 0
	li 11,1
.LVL128:
	b .L94
.LVL129:
.L92:
	.loc 1 361 0
	cmpwi 7,3,6410
	.loc 1 368 0
	li 11,2
	.loc 1 361 0
	beq- 7,.L88
	cmplwi 7,3,6410
	blt- 7,.L98
	xoris 0,3,0xffff
	cmpwi 7,0,-32544
	beq 7,.L89
	xoris 0,3,0xffff
	cmpwi 7,0,-32543
	bne 7,.L87
.LVL130:
	.loc 1 372 0
	li 11,4
	b .L88
.LVL131:
.L103:
	.loc 1 361 0
	cmplwi 7,3,6406
	bgt- 7,.L89
.L98:
	.loc 1 367 0
	li 11,1
	b .L88
.L89:
.LVL132:
	.loc 1 370 0
	li 11,3
	b .L88
	.cfi_endproc
.LFE87:
	.size	pixel_offset, .-pixel_offset
	.align 2
	.globl ReadCompositeColor
	.type	ReadCompositeColor, @function
ReadCompositeColor:
.LFB88:
	.loc 1 412 0
	.cfi_startproc
.LVL133:
	.loc 1 414 0
	addis 3,3,0xffff
.LVL134:
	.loc 1 412 0
	mflr 0
	.loc 1 414 0
	addi 3,3,32544
.LVL135:
	.loc 1 412 0
	stwu 1,-360(1)
.LCFI50:
	.cfi_def_cfa_offset 360
	.cfi_register 65, 0
	.loc 1 414 0
	cmplwi 7,3,1
	.loc 1 412 0
	stw 0,364(1)
	.loc 1 414 0
	bgt- 7,.L109
	.cfi_offset 65, 4
	mr 0,6
	.loc 1 420 0
	mr 6,8
.LVL136:
	.loc 1 421 0
	mr 8,0
.LVL137:
.L109:
	.loc 1 427 0
	xoris 0,4,0xffff
	cmpwi 7,0,-31902
	beq 7,.L116
	cmplwi 7,4,33634
	li 0,0
	ble- 7,.L131
	ori 0,0,33637
	cmpw 7,4,0
	beq- 7,.L119
	cmplwi 7,4,33637
	li 0,0
	bgt- 7,.L125
	ori 0,0,33635
	cmpw 7,4,0
	beq- 7,.L117
	xoris 0,4,0xffff
	cmpwi 7,0,-31900
	beq 7,.L132
.L110:
	.loc 1 550 0
	lis 5,.LANCHOR0@ha
.LVL138:
	lis 3,.LC12@ha
.LVL139:
	la 5,.LANCHOR0@l(5)
	lis 6,.LC20@ha
.LVL140:
	la 3,.LC12@l(3)
	li 4,550
.LVL141:
	addi 5,5,40
	la 6,.LC20@l(6)
	bl __assert_func
.LVL142:
.L131:
	.loc 1 427 0
	ori 0,0,32820
	cmpw 7,4,0
	beq- 7,.L113
	cmplwi 7,4,32820
	li 0,0
	ble- 7,.L133
	ori 0,0,32821
	cmpw 7,4,0
	beq- 7,.L114
	xoris 0,4,0xffff
	cmpwi 7,0,-32714
	bne 7,.L110
.LBB2142:
	.loc 1 531 0
	lwz 11,0(5)
.LVL143:
	.loc 1 533 0
	lis 0,0x4330
	stw 0,296(1)
	srwi 10,11,22
	.loc 1 534 0
	rlwinm 5,11,20,22,31
.LVL144:
	.loc 1 533 0
	stw 10,300(1)
	lis 10,.LC9@ha
	lfs 0,.LC9@l(10)
	lis 10,.LC19@ha
	lfd 12,296(1)
	lfs 13,.LC19@l(10)
	.loc 1 535 0
	rlwinm 10,11,30,22,31
	.loc 1 533 0
	fsub 12,12,0
	.loc 1 536 0
	rlwinm 11,11,0,30,31
.LVL145:
	.loc 1 533 0
	frsp 12,12
	fdivs 12,12,13
	stfs 12,0(6)
	.loc 1 534 0
	stw 5,308(1)
	stw 0,304(1)
	.loc 1 535 0
	stw 10,316(1)
	stw 0,312(1)
	.loc 1 534 0
	lfd 12,304(1)
	.loc 1 535 0
	lfd 11,312(1)
	.loc 1 534 0
	fsub 12,12,0
	.loc 1 535 0
	fsub 11,11,0
	.loc 1 534 0
	frsp 12,12
	.loc 1 535 0
	frsp 11,11
	.loc 1 534 0
	fdivs 12,12,13
	.loc 1 535 0
	fdivs 13,11,13
	.loc 1 534 0
	stfs 12,0(7)
	.loc 1 535 0
	stfs 13,0(8)
	.loc 1 536 0
	stw 11,324(1)
	lis 11,.LC15@ha
	stw 0,320(1)
	lfd 13,320(1)
	fsub 0,13,0
	lfs 13,.LC15@l(11)
	frsp 0,0
	fdivs 0,0,13
	stfs 0,0(9)
.LBE2142:
	.loc 1 538 0
	b .L107
.LVL146:
.L125:
	.loc 1 427 0
	ori 0,0,33639
	cmpw 7,4,0
	beq- 7,.L121
	cmplwi 7,4,33639
	bge- 7,.L134
.LBB2143:
	.loc 1 501 0
	lhz 11,0(5)
.LVL147:
	.loc 1 503 0
	lis 0,0x4330
	.loc 1 504 0
	stw 0,208(1)
	rlwinm 10,11,22,27,31
	.loc 1 503 0
	stw 0,200(1)
	.loc 1 504 0
	xoris 10,10,0x8000
	stw 10,212(1)
	.loc 1 503 0
	lis 10,.LC1@ha
	lfs 0,.LC1@l(10)
	.loc 1 504 0
	lis 10,.LC16@ha
	lfd 12,208(1)
	lfs 13,.LC16@l(10)
	.loc 1 503 0
	srwi 10,11,15
	.loc 1 504 0
	fsub 12,12,0
	.loc 1 503 0
	xoris 10,10,0x8000
	stw 10,204(1)
	.loc 1 505 0
	rlwinm 10,11,27,27,31
	xoris 10,10,0x8000
	.loc 1 506 0
	rlwinm 11,11,0,27,31
.LVL148:
	.loc 1 504 0
	frsp 12,12
	.loc 1 503 0
	lfd 11,200(1)
	.loc 1 506 0
	xoris 11,11,0x8000
	.loc 1 503 0
	fsub 11,11,0
	.loc 1 504 0
	fdivs 12,12,13
	.loc 1 503 0
	frsp 11,11
	stfs 11,0(9)
	.loc 1 504 0
	stfs 12,0(8)
	.loc 1 505 0
	stw 10,220(1)
	stw 0,216(1)
	.loc 1 506 0
	stw 11,228(1)
	.loc 1 505 0
	lfd 12,216(1)
	.loc 1 506 0
	stw 0,224(1)
	.loc 1 505 0
	fsub 12,12,0
	.loc 1 506 0
	lfd 11,224(1)
.LVL149:
.L130:
.LBE2143:
.LBB2144:
	.loc 1 546 0
	fsub 0,11,0
	.loc 1 545 0
	frsp 12,12
	.loc 1 546 0
	frsp 0,0
	.loc 1 545 0
	fdivs 12,12,13
	.loc 1 546 0
	fdivs 13,0,13
	.loc 1 545 0
	stfs 12,0(7)
	.loc 1 546 0
	stfs 13,0(6)
.L107:
.LBE2144:
	.loc 1 552 0
	lwz 0,364(1)
	addi 1,1,360
	.cfi_remember_state
.LCFI51:
	.cfi_def_cfa_offset 0
	mtlr 0
	blr
.LVL150:
.L133:
.LCFI52:
	.cfi_restore_state
	.loc 1 427 0
	ori 0,0,32818
	cmpw 7,4,0
	beq- 7,.L111
	xoris 0,4,0xffff
	cmpwi 7,0,-32717
	bne 7,.L110
.LBB2145:
	.loc 1 471 0
	lhz 11,0(5)
.LVL151:
	.loc 1 473 0
	lis 0,0x4330
	stw 0,104(1)
	srwi 10,11,12
	.loc 1 474 0
	rlwinm 5,11,24,28,31
.LVL152:
	.loc 1 473 0
	xoris 10,10,0x8000
	.loc 1 474 0
	xoris 5,5,0x8000
	.loc 1 473 0
	stw 10,108(1)
	lis 10,.LC1@ha
	lfs 13,.LC1@l(10)
	lis 10,.LC18@ha
	lfd 12,104(1)
	lfs 0,.LC18@l(10)
	.loc 1 475 0
	rlwinm 10,11,28,28,31
	.loc 1 473 0
	fsub 12,12,13
	.loc 1 475 0
	xoris 10,10,0x8000
	.loc 1 476 0
	rlwinm 11,11,0,28,31
.LVL153:
	xoris 11,11,0x8000
	.loc 1 473 0
	frsp 12,12
	fdivs 12,12,0
	stfs 12,0(6)
	.loc 1 474 0
	stw 5,116(1)
	stw 0,112(1)
	.loc 1 475 0
	stw 10,124(1)
	stw 0,120(1)
	.loc 1 474 0
	lfd 11,112(1)
	.loc 1 475 0
	lfd 12,120(1)
	.loc 1 474 0
	fsub 11,11,13
	.loc 1 475 0
	fsub 12,12,13
	.loc 1 474 0
	frsp 11,11
	.loc 1 475 0
	frsp 12,12
	.loc 1 474 0
	fdivs 11,11,0
	.loc 1 475 0
	fdivs 12,12,0
	.loc 1 474 0
	stfs 11,0(7)
	.loc 1 475 0
	stfs 12,0(8)
	.loc 1 476 0
	stw 11,132(1)
	stw 0,128(1)
	lfd 12,128(1)
	fsub 13,12,13
	frsp 13,13
	fdivs 0,13,0
	stfs 0,0(9)
.LBE2145:
	.loc 1 478 0
	b .L107
.LVL154:
.L111:
.LBB2146:
	.loc 1 433 0
	lbz 11,0(5)
	lis 0,0x4330
	stw 0,8(1)
	rlwinm 10,11,27,30,31
	xoris 10,10,0x8000
	stw 10,12(1)
	lis 10,.LC1@ha
	lfs 0,.LC1@l(10)
	lis 10,.LC14@ha
	lfd 12,8(1)
	lfs 13,.LC14@l(10)
	.loc 1 434 0
	rlwinm 10,11,30,29,31
	.loc 1 433 0
	fsub 12,12,0
	.loc 1 434 0
	xoris 10,10,0x8000
	.loc 1 435 0
	rlwinm 11,11,0,30,31
	xoris 11,11,0x8000
	.loc 1 433 0
	frsp 12,12
	fdivs 12,12,13
	stfs 12,0(6)
	.loc 1 434 0
	stw 0,16(1)
	stw 10,20(1)
	.loc 1 435 0
	stw 11,28(1)
	lis 11,.LC15@ha
	stw 0,24(1)
	.loc 1 434 0
	lfd 12,16(1)
	.loc 1 435 0
	lfd 11,24(1)
	.loc 1 434 0
	fsub 12,12,0
	.loc 1 435 0
	fsub 0,11,0
	.loc 1 434 0
	frsp 12,12
	.loc 1 435 0
	frsp 0,0
	.loc 1 434 0
	fdivs 13,12,13
	.loc 1 435 0
	lfs 12,.LC15@l(11)
	.loc 1 436 0
	lis 11,.LC13@ha
	lwz 0,.LC13@l(11)
	.loc 1 435 0
	fdivs 0,0,12
	.loc 1 434 0
	stfs 13,0(7)
	.loc 1 435 0
	stfs 0,0(8)
	.loc 1 436 0
	stw 0,0(9)
.LBE2146:
	.loc 1 438 0
	b .L107
.LVL155:
.L114:
.LBB2147:
	.loc 1 511 0
	lwz 11,0(5)
.LVL156:
	.loc 1 513 0
	lis 0,0x4330
	stw 0,232(1)
	srwi 10,11,24
	.loc 1 514 0
	rlwinm 5,11,16,24,31
.LVL157:
	.loc 1 513 0
	stw 10,236(1)
	lis 10,.LC9@ha
	lfs 13,.LC9@l(10)
	lis 10,.LC4@ha
	lfd 12,232(1)
	lfs 0,.LC4@l(10)
	.loc 1 515 0
	rlwinm 10,11,24,24,31
	.loc 1 513 0
	fsub 12,12,13
	.loc 1 516 0
	rlwinm 11,11,0,24,31
.LVL158:
	.loc 1 513 0
	frsp 12,12
	fdivs 12,12,0
	stfs 12,0(6)
	.loc 1 514 0
	stw 5,244(1)
	stw 0,240(1)
	.loc 1 515 0
	stw 10,252(1)
	stw 0,248(1)
	.loc 1 514 0
	lfd 11,240(1)
	.loc 1 515 0
	lfd 12,248(1)
	.loc 1 514 0
	fsub 11,11,13
	.loc 1 515 0
	fsub 12,12,13
	.loc 1 514 0
	frsp 11,11
	.loc 1 515 0
	frsp 12,12
	.loc 1 514 0
	fdivs 11,11,0
	.loc 1 515 0
	fdivs 12,12,0
	.loc 1 514 0
	stfs 11,0(7)
	.loc 1 515 0
	stfs 12,0(8)
	.loc 1 516 0
	stw 11,260(1)
	stw 0,256(1)
	lfd 12,256(1)
	fsub 13,12,13
	frsp 13,13
	fdivs 0,13,0
	stfs 0,0(9)
.LBE2147:
	.loc 1 518 0
	b .L107
.LVL159:
.L113:
.LBB2148:
	.loc 1 491 0
	lhz 11,0(5)
.LVL160:
	.loc 1 493 0
	lis 0,0x4330
	stw 0,168(1)
	srwi 10,11,11
	.loc 1 494 0
	rlwinm 5,11,26,27,31
.LVL161:
	.loc 1 493 0
	xoris 10,10,0x8000
	.loc 1 494 0
	xoris 5,5,0x8000
	.loc 1 493 0
	stw 10,172(1)
	lis 10,.LC1@ha
	lfs 0,.LC1@l(10)
	lis 10,.LC16@ha
	lfd 12,168(1)
	lfs 13,.LC16@l(10)
	.loc 1 495 0
	rlwinm 10,11,31,27,31
	.loc 1 493 0
	fsub 12,12,0
	.loc 1 495 0
	xoris 10,10,0x8000
	.loc 1 496 0
	rlwinm 11,11,0,31,31
.LVL162:
	xoris 11,11,0x8000
	.loc 1 493 0
	frsp 12,12
	fdivs 12,12,13
	stfs 12,0(6)
	.loc 1 494 0
	stw 5,180(1)
	stw 0,176(1)
	.loc 1 495 0
	stw 10,188(1)
	stw 0,184(1)
	.loc 1 494 0
	lfd 12,176(1)
	.loc 1 495 0
	lfd 11,184(1)
	.loc 1 494 0
	fsub 12,12,0
	.loc 1 495 0
	fsub 11,11,0
	.loc 1 494 0
	frsp 12,12
	.loc 1 495 0
	frsp 11,11
	.loc 1 494 0
	fdivs 12,12,13
	.loc 1 495 0
	fdivs 13,11,13
	.loc 1 494 0
	stfs 12,0(7)
	.loc 1 495 0
	stfs 13,0(8)
	.loc 1 496 0
	stw 11,196(1)
	stw 0,192(1)
	lfd 13,192(1)
	fsub 0,13,0
	frsp 0,0
	stfs 0,0(9)
.LBE2148:
	.loc 1 498 0
	b .L107
.LVL163:
.L116:
.LBB2149:
	.loc 1 441 0
	lbz 11,0(5)
.LVL164:
	.loc 1 443 0
	lis 0,0x4330
	stw 0,32(1)
	lis 5,.LC15@ha
.LVL165:
	srwi 10,11,6
	lfs 13,.LC15@l(5)
	xoris 10,10,0x8000
	.loc 1 444 0
	lis 5,.LC14@ha
	.loc 1 443 0
	stw 10,36(1)
	lis 10,.LC1@ha
	lfs 0,.LC1@l(10)
	.loc 1 444 0
	rlwinm 10,11,29,29,31
	.loc 1 443 0
	lfd 12,32(1)
	.loc 1 444 0
	xoris 10,10,0x8000
	.loc 1 445 0
	rlwinm 11,11,0,29,31
.LVL166:
	.loc 1 443 0
	fsub 12,12,0
	.loc 1 445 0
	xoris 11,11,0x8000
	.loc 1 443 0
	frsp 12,12
	fdivs 12,12,13
	.loc 1 444 0
	lfs 13,.LC14@l(5)
	.loc 1 443 0
	stfs 12,0(8)
	.loc 1 444 0
	stw 10,44(1)
	stw 0,40(1)
	.loc 1 445 0
	stw 11,52(1)
	.loc 1 444 0
	lfd 12,40(1)
	.loc 1 445 0
	stw 0,48(1)
	.loc 1 444 0
	fsub 12,12,0
	.loc 1 445 0
	lfd 11,48(1)
	.loc 1 444 0
	frsp 12,12
	.loc 1 445 0
	fsub 0,11,0
	.loc 1 444 0
	fdivs 12,12,13
	.loc 1 445 0
	frsp 0,0
.L128:
.LBE2149:
.LBB2150:
	.loc 1 465 0
	fdivs 13,0,13
	.loc 1 466 0
	lis 11,.LC13@ha
	lwz 0,.LC13@l(11)
	.loc 1 464 0
	stfs 12,0(7)
	.loc 1 465 0
	stfs 13,0(6)
	.loc 1 466 0
	stw 0,0(9)
.LBE2150:
	.loc 1 552 0
	lwz 0,364(1)
	addi 1,1,360
	.cfi_remember_state
.LCFI53:
	.cfi_def_cfa_offset 0
	mtlr 0
	blr
.LVL167:
.L119:
.LCFI54:
	.cfi_restore_state
.LBB2151:
	.loc 1 481 0
	lhz 11,0(5)
.LVL168:
	.loc 1 483 0
	lis 0,0x4330
	stw 0,136(1)
	srwi 5,11,12
.LVL169:
	.loc 1 484 0
	rlwinm 10,11,24,28,31
	xoris 10,10,0x8000
	.loc 1 483 0
	xoris 5,5,0x8000
	.loc 1 484 0
	stw 10,148(1)
	.loc 1 483 0
	lis 10,.LC1@ha
	stw 5,140(1)
	.loc 1 484 0
	stw 0,144(1)
	.loc 1 483 0
	lfs 13,.LC1@l(10)
	lis 10,.LC18@ha
	lfd 11,136(1)
	.loc 1 484 0
	lfd 12,144(1)
	.loc 1 483 0
	fsub 11,11,13
	lfs 0,.LC18@l(10)
	.loc 1 484 0
	fsub 12,12,13
	.loc 1 485 0
	rlwinm 10,11,28,28,31
	xoris 10,10,0x8000
	.loc 1 486 0
	rlwinm 11,11,0,28,31
.LVL170:
	.loc 1 483 0
	frsp 11,11
	.loc 1 486 0
	xoris 11,11,0x8000
	.loc 1 484 0
	frsp 12,12
	.loc 1 483 0
	fdivs 11,11,0
	.loc 1 484 0
	fdivs 12,12,0
	.loc 1 483 0
	stfs 11,0(9)
	.loc 1 484 0
	stfs 12,0(8)
	.loc 1 485 0
	stw 10,156(1)
	stw 0,152(1)
	.loc 1 486 0
	stw 11,164(1)
	.loc 1 485 0
	lfd 12,152(1)
	.loc 1 486 0
	stw 0,160(1)
	.loc 1 485 0
	fsub 12,12,13
	.loc 1 486 0
	lfd 11,160(1)
.L129:
.LBE2151:
.LBB2152:
	.loc 1 526 0
	fsub 13,11,13
.LBE2152:
	.loc 1 552 0
	lwz 0,364(1)
.LBB2153:
	.loc 1 525 0
	frsp 12,12
.LBE2153:
	.loc 1 552 0
	mtlr 0
.LBB2154:
	.loc 1 526 0
	frsp 13,13
	.loc 1 525 0
	fdivs 12,12,0
	.loc 1 526 0
	fdivs 0,13,0
	.loc 1 525 0
	stfs 12,0(7)
	.loc 1 526 0
	stfs 0,0(6)
.LBE2154:
	.loc 1 552 0
	addi 1,1,360
	.cfi_remember_state
.LCFI55:
	.cfi_def_cfa_offset 0
	blr
.LVL171:
.L121:
.LCFI56:
	.cfi_restore_state
.LBB2155:
	.loc 1 521 0
	lwz 11,0(5)
.LVL172:
	.loc 1 523 0
	lis 0,0x4330
	stw 0,264(1)
	.loc 1 524 0
	rlwinm 10,11,16,24,31
	.loc 1 523 0
	srwi 5,11,24
.LVL173:
	.loc 1 524 0
	stw 10,276(1)
	.loc 1 523 0
	lis 10,.LC9@ha
	stw 5,268(1)
	.loc 1 524 0
	stw 0,272(1)
	.loc 1 523 0
	lfs 13,.LC9@l(10)
	lis 10,.LC4@ha
	lfd 11,264(1)
	.loc 1 524 0
	lfd 12,272(1)
	.loc 1 523 0
	fsub 11,11,13
	lfs 0,.LC4@l(10)
	.loc 1 524 0
	fsub 12,12,13
	.loc 1 525 0
	rlwinm 10,11,24,24,31
	.loc 1 526 0
	rlwinm 11,11,0,24,31
.LVL174:
	.loc 1 523 0
	frsp 11,11
	.loc 1 524 0
	frsp 12,12
	.loc 1 523 0
	fdivs 11,11,0
	.loc 1 524 0
	fdivs 12,12,0
	.loc 1 523 0
	stfs 11,0(9)
	.loc 1 524 0
	stfs 12,0(8)
	.loc 1 525 0
	stw 10,284(1)
	stw 0,280(1)
	.loc 1 526 0
	stw 11,292(1)
	stw 0,288(1)
	.loc 1 525 0
	lfd 12,280(1)
	.loc 1 526 0
	lfd 11,288(1)
	.loc 1 525 0
	fsub 12,12,13
	b .L129
.LVL175:
.L132:
.LBE2155:
.LBB2156:
	.loc 1 461 0
	lhz 11,0(5)
.LVL176:
	.loc 1 463 0
	lis 0,0x4330
	stw 0,80(1)
	srwi 10,11,11
	xoris 10,10,0x8000
	stw 10,84(1)
	lis 10,.LC1@ha
	lfs 0,.LC1@l(10)
	lis 10,.LC16@ha
	lfd 12,80(1)
	lfs 13,.LC16@l(10)
	.loc 1 464 0
	rlwinm 10,11,27,26,31
	.loc 1 463 0
	fsub 12,12,0
	.loc 1 464 0
	xoris 10,10,0x8000
	.loc 1 465 0
	rlwinm 11,11,0,27,31
.LVL177:
	xoris 11,11,0x8000
	.loc 1 463 0
	frsp 12,12
	fdivs 12,12,13
	stfs 12,0(8)
	.loc 1 464 0
	stw 10,92(1)
	stw 0,88(1)
	.loc 1 465 0
	stw 11,100(1)
	.loc 1 464 0
	lis 11,.LC17@ha
	lfd 12,88(1)
	.loc 1 465 0
	stw 0,96(1)
	.loc 1 464 0
	fsub 12,12,0
	.loc 1 465 0
	lfd 11,96(1)
	.loc 1 464 0
	frsp 12,12
	.loc 1 465 0
	fsub 0,11,0
	.loc 1 464 0
	lfs 11,.LC17@l(11)
	fdivs 12,12,11
	.loc 1 465 0
	frsp 0,0
	b .L128
.L117:
.LBE2156:
.LBB2157:
	.loc 1 451 0
	lhz 11,0(5)
.LVL178:
	.loc 1 453 0
	lis 0,0x4330
	stw 0,56(1)
	srwi 10,11,11
	xoris 10,10,0x8000
	stw 10,60(1)
	lis 10,.LC1@ha
	lfs 0,.LC1@l(10)
	lis 10,.LC16@ha
	lfd 12,56(1)
	lfs 13,.LC16@l(10)
	.loc 1 454 0
	rlwinm 10,11,27,26,31
	.loc 1 453 0
	fsub 12,12,0
	.loc 1 455 0
	rlwinm 11,11,0,27,31
.LVL179:
	xoris 11,11,0x8000
	.loc 1 454 0
	xoris 10,10,0x8000
	.loc 1 453 0
	frsp 12,12
	fdivs 12,12,13
	stfs 12,0(6)
	.loc 1 454 0
	stw 0,64(1)
	.loc 1 455 0
	stw 11,76(1)
	.loc 1 454 0
	lis 11,.LC17@ha
	.loc 1 455 0
	stw 0,72(1)
	.loc 1 454 0
	stw 10,68(1)
	.loc 1 455 0
	lfd 11,72(1)
	.loc 1 454 0
	lfd 12,64(1)
	fsub 12,12,0
	.loc 1 455 0
	fsub 0,11,0
	.loc 1 454 0
	lfs 11,.LC17@l(11)
	.loc 1 456 0
	lis 11,.LC13@ha
	.loc 1 454 0
	frsp 12,12
	.loc 1 456 0
	lwz 0,.LC13@l(11)
	.loc 1 455 0
	frsp 0,0
	.loc 1 454 0
	fdivs 12,12,11
	.loc 1 455 0
	fdivs 13,0,13
	.loc 1 454 0
	stfs 12,0(7)
	.loc 1 455 0
	stfs 13,0(8)
	.loc 1 456 0
	stw 0,0(9)
.LBE2157:
	.loc 1 458 0
	b .L107
.L134:
	.loc 1 427 0
	xoris 0,4,0xffff
	cmpwi 7,0,-31896
	bne 7,.L110
.LBB2158:
	.loc 1 541 0
	lwz 11,0(5)
.LVL180:
	.loc 1 543 0
	lis 0,0x4330
	stw 0,328(1)
	srwi 5,11,30
.LVL181:
	.loc 1 544 0
	rlwinm 10,11,12,22,31
	.loc 1 543 0
	stw 5,332(1)
	lis 5,.LC15@ha
	.loc 1 544 0
	stw 10,340(1)
	.loc 1 543 0
	lis 10,.LC9@ha
	.loc 1 544 0
	stw 0,336(1)
	.loc 1 543 0
	lfs 0,.LC9@l(10)
	.loc 1 544 0
	lis 10,.LC19@ha
	.loc 1 543 0
	lfd 11,328(1)
	.loc 1 544 0
	lfd 12,336(1)
	.loc 1 543 0
	fsub 11,11,0
	.loc 1 544 0
	lfs 13,.LC19@l(10)
	fsub 12,12,0
	.loc 1 543 0
	lfs 10,.LC15@l(5)
	.loc 1 545 0
	rlwinm 10,11,22,22,31
	.loc 1 546 0
	rlwinm 11,11,0,22,31
.LVL182:
	.loc 1 543 0
	frsp 11,11
	.loc 1 544 0
	frsp 12,12
	.loc 1 543 0
	fdivs 11,11,10
	.loc 1 544 0
	fdivs 12,12,13
	.loc 1 543 0
	stfs 11,0(9)
	.loc 1 544 0
	stfs 12,0(8)
	.loc 1 545 0
	stw 10,348(1)
	stw 0,344(1)
	.loc 1 546 0
	stw 11,356(1)
	stw 0,352(1)
	.loc 1 545 0
	lfd 12,344(1)
	.loc 1 546 0
	lfd 11,352(1)
	.loc 1 545 0
	fsub 12,12,0
	b .L130
.LBE2158:
	.cfi_endproc
.LFE88:
	.size	ReadCompositeColor, .-ReadCompositeColor
	.align 2
	.globl ReadColor
	.type	ReadColor, @function
ReadColor:
.LFB89:
	.loc 1 555 0
	.cfi_startproc
.LVL183:
	stwu 1,-40(1)
.LCFI57:
	.cfi_def_cfa_offset 40
	mflr 0
	stw 26,16(1)
	mr 26,7
	.cfi_offset 26, -24
	.cfi_register 65, 0
	stw 27,20(1)
	mr 27,9
	.cfi_offset 27, -20
	stw 28,24(1)
	mr 28,8
	.cfi_offset 28, -16
	stw 29,28(1)
	mr 29,6
	.cfi_offset 29, -12
	.loc 1 556 0
	lwz 7,48(1)
.LVL184:
	mr 6,10
.LVL185:
	lwz 8,52(1)
.LVL186:
	lis 10,unpack@ha
.LVL187:
	lwz 9,56(1)
.LVL188:
	la 10,unpack@l(10)
	.loc 1 555 0
	stw 31,36(1)
	mr 31,5
	.cfi_offset 31, -4
	stw 30,32(1)
	mr 30,3
	.cfi_offset 30, -8
	stw 0,44(1)
	.loc 1 555 0
	stw 4,8(1)
	.loc 1 556 0
	.cfi_offset 65, 4
	bl pixel_offset
.LVL189:
	.loc 1 558 0
	cmplwi 7,31,32818
	.loc 1 556 0
	mr 5,3
.LVL190:
	stw 3,8(1)
.LVL191:
	.loc 1 558 0
	blt- 7,.L136
	cmplwi 7,31,32822
	bgt- 7,.L155
.L137:
	.loc 1 572 0
	mr 3,30
.LVL192:
	mr 4,31
	mr 6,29
	mr 7,26
	mr 8,28
	mr 9,27
	bl ReadCompositeColor
.LVL193:
.L135:
	.loc 1 643 0
	lwz 0,44(1)
	lwz 26,16(1)
.LVL194:
	mtlr 0
	lwz 27,20(1)
.LVL195:
	lwz 28,24(1)
.LVL196:
	lwz 29,28(1)
.LVL197:
	lwz 30,32(1)
	lwz 31,36(1)
.LVL198:
	addi 1,1,40
	.cfi_remember_state
.LCFI58:
	.cfi_def_cfa_offset 0
	.cfi_restore 31
	.cfi_restore 30
	.cfi_restore 29
	.cfi_restore 28
	.cfi_restore 27
	.cfi_restore 26
	blr
.LVL199:
.L155:
.LCFI59:
	.cfi_restore_state
	.loc 1 558 0
	addis 9,31,0xffff
	addi 0,9,31902
	cmplwi 7,0,6
	ble- 7,.L137
.L136:
	.loc 1 578 0
	cmpwi 7,30,6407
	beq- 7,.L144
	cmplwi 7,30,6407
	ble- 7,.L156
	cmpwi 7,30,6410
	beq- 7,.L147
	cmplwi 7,30,6410
	bgt- 7,.L152
	cmpwi 7,30,6408
	beq- 7,.L145
	cmpwi 7,30,6409
	beq- 7,.L157
.L139:
	.loc 1 641 0
	lis 5,.LANCHOR0@ha
	lis 3,.LC12@ha
	la 5,.LANCHOR0@l(5)
	lis 6,.LC20@ha
	la 3,.LC12@l(3)
	li 4,641
	addi 5,5,60
	la 6,.LC20@l(6)
	bl __assert_func
.L156:
	.loc 1 578 0
	cmpwi 7,30,6404
	beq- 7,.L141
	cmplwi 7,30,6404
	bgt- 7,.L151
	cmpwi 7,30,6403
	bne+ 7,.L139
	.loc 1 581 0
	addi 3,1,8
	mr 4,31
	mr 5,29
	bl ReadValue
	.loc 1 582 0
	li 0,0
	.loc 1 584 0
	lis 9,.LC13@ha
	.loc 1 582 0
	stw 0,0(26)
	.loc 1 583 0
	stw 0,0(28)
	.loc 1 584 0
	lwz 0,.LC13@l(9)
	stw 0,0(27)
	.loc 1 585 0
	b .L135
.L141:
	.loc 1 587 0
	li 30,0
.LVL200:
	.loc 1 588 0
	addi 3,1,8
	.loc 1 587 0
	stw 30,0(29)
	.loc 1 588 0
	mr 4,31
	mr 5,26
	bl ReadValue
	.loc 1 590 0
	lis 9,.LC13@ha
	lwz 0,.LC13@l(9)
	.loc 1 589 0
	stw 30,0(28)
	.loc 1 590 0
	stw 0,0(27)
	.loc 1 591 0
	b .L135
.LVL201:
.L147:
	.loc 1 635 0
	addi 3,1,8
	mr 4,31
	mr 5,29
	bl ReadValue
	.loc 1 636 0
	lwz 0,0(29)
	.loc 1 638 0
	addi 3,1,8
	mr 4,31
	.loc 1 636 0
	stw 0,0(26)
	.loc 1 638 0
	mr 5,27
	.loc 1 637 0
	lwz 0,0(29)
	stw 0,0(28)
	.loc 1 638 0
	bl ReadValue
	.loc 1 639 0
	b .L135
.L151:
	.loc 1 578 0
	cmpwi 7,30,6405
	beq- 7,.L142
	cmpwi 7,30,6406
	bne+ 7,.L139
	.loc 1 599 0
	li 0,0
	.loc 1 602 0
	addi 3,1,8
	.loc 1 599 0
	stw 0,0(29)
	.loc 1 602 0
	mr 4,31
	.loc 1 600 0
	stw 0,0(26)
	.loc 1 602 0
	mr 5,27
	.loc 1 601 0
	stw 0,0(28)
	.loc 1 602 0
	bl ReadValue
	.loc 1 603 0
	b .L135
.L152:
	.loc 1 578 0
	xoris 0,30,0xffff
	cmpwi 7,0,-32544
	beq 7,.L148
	xoris 0,30,0xffff
	cmpwi 7,0,-32543
	bne 7,.L139
	.loc 1 623 0
	addi 3,1,8
	mr 4,31
	mr 5,28
	bl ReadValue
	.loc 1 624 0
	addi 3,1,8
	mr 4,31
	mr 5,26
	bl ReadValue
	.loc 1 625 0
	addi 3,1,8
	mr 4,31
	mr 5,29
.L154:
	bl ReadValue
	.loc 1 626 0
	addi 3,1,8
	mr 4,31
	mr 5,27
	bl ReadValue
	.loc 1 643 0
	lwz 0,44(1)
	lwz 26,16(1)
.LVL202:
	mtlr 0
	lwz 27,20(1)
.LVL203:
	lwz 28,24(1)
.LVL204:
	lwz 29,28(1)
.LVL205:
	lwz 30,32(1)
.LVL206:
	lwz 31,36(1)
.LVL207:
	addi 1,1,40
	.cfi_remember_state
	.cfi_restore 26
	.cfi_restore 27
	.cfi_restore 28
	.cfi_restore 29
	.cfi_restore 30
	.cfi_restore 31
.LCFI60:
	.cfi_def_cfa_offset 0
	blr
.LVL208:
.L148:
.LCFI61:
	.cfi_restore_state
	.loc 1 611 0
	addi 3,1,8
	mr 4,31
	mr 5,28
	bl ReadValue
	.loc 1 612 0
	addi 3,1,8
	mr 4,31
	mr 5,26
	bl ReadValue
	.loc 1 613 0
	addi 3,1,8
	mr 4,31
	mr 5,29
	bl ReadValue
	.loc 1 614 0
	lis 9,.LC13@ha
	lwz 0,.LC13@l(9)
	stw 0,0(27)
	.loc 1 615 0
	b .L135
.L142:
	.loc 1 593 0
	li 0,0
	stw 0,0(29)
	.loc 1 594 0
	stw 0,0(26)
.L153:
	.loc 1 607 0
	addi 3,1,8
	mr 4,31
	mr 5,28
	bl ReadValue
	.loc 1 608 0
	lis 9,.LC13@ha
	lwz 0,.LC13@l(9)
	.loc 1 643 0
	lwz 26,16(1)
.LVL209:
	.loc 1 608 0
	stw 0,0(27)
	.loc 1 643 0
	lwz 0,44(1)
	lwz 27,20(1)
.LVL210:
	mtlr 0
	lwz 28,24(1)
.LVL211:
	lwz 29,28(1)
.LVL212:
	lwz 30,32(1)
.LVL213:
	lwz 31,36(1)
.LVL214:
	addi 1,1,40
	.cfi_remember_state
	.cfi_restore 26
	.cfi_restore 27
	.cfi_restore 28
	.cfi_restore 29
	.cfi_restore 30
	.cfi_restore 31
.LCFI62:
	.cfi_def_cfa_offset 0
	blr
.LVL215:
.L145:
.LCFI63:
	.cfi_restore_state
	.loc 1 617 0
	addi 3,1,8
	mr 4,31
	mr 5,29
	bl ReadValue
	.loc 1 618 0
	addi 3,1,8
	mr 4,31
	mr 5,26
	bl ReadValue
	.loc 1 619 0
	addi 3,1,8
	mr 4,31
	mr 5,28
	b .L154
.L144:
	.loc 1 605 0
	addi 3,1,8
	mr 4,31
	mr 5,29
	bl ReadValue
	.loc 1 606 0
	addi 3,1,8
	mr 4,31
	mr 5,26
	bl ReadValue
	b .L153
.L157:
	.loc 1 629 0
	addi 3,1,8
	mr 4,31
	mr 5,29
	bl ReadValue
	.loc 1 630 0
	lwz 0,0(29)
	.loc 1 632 0
	lis 9,.LC13@ha
	.loc 1 630 0
	stw 0,0(26)
	.loc 1 631 0
	lwz 0,0(29)
	stw 0,0(28)
	.loc 1 632 0
	lwz 0,.LC13@l(9)
	stw 0,0(27)
	.loc 1 633 0
	b .L135
	.cfi_endproc
.LFE89:
	.size	ReadColor, .-ReadColor
	.align 2
	.globl setSrcColorFunc
	.type	setSrcColorFunc, @function
setSrcColorFunc:
.LFB113:
	.loc 1 920 0
	.cfi_startproc
.LVL216:
	.loc 1 921 0
	addi 3,3,-5120
.LVL217:
	.loc 1 920 0
	mflr 0
	.loc 1 921 0
	cmplwi 7,3,6
	.loc 1 920 0
	stwu 1,-8(1)
.LCFI64:
	.cfi_def_cfa_offset 8
	.cfi_register 65, 0
	stw 0,12(1)
	.loc 1 921 0
	ble- 7,.L169
	.cfi_offset 65, 4
	.loc 1 938 0
	lis 5,.LANCHOR0@ha
	lis 3,.LC12@ha
.LVL218:
	la 5,.LANCHOR0@l(5)
	lis 6,.LC20@ha
	la 3,.LC12@l(3)
	li 4,938
	addi 5,5,72
	la 6,.LC20@l(6)
	bl __assert_func
.LVL219:
.L169:
	.loc 1 921 0
	lis 9,.L167@ha
	slwi 3,3,2
.LVL220:
	la 9,.L167@l(9)
	lwzx 0,9,3
	add 9,0,9
	mtctr 9
	bctr
	.section	.rodata
	.align 2
	.align 2
.L167:
	.long .L160-.L167
	.long .L161-.L167
	.long .L162-.L167
	.long .L163-.L167
	.long .L164-.L167
	.long .L165-.L167
	.long .L166-.L167
	.section	".text"
.L165:
	.loc 1 932 0
	lis 9,getUINT@ha
	la 0,getUINT@l(9)
	lis 9,.LANCHOR1@ha
	stw 0,.LANCHOR1@l(9)
	.loc 1 940 0
	lwz 0,12(1)
	addi 1,1,8
	.cfi_remember_state
.LCFI65:
	.cfi_def_cfa_offset 0
	mtlr 0
	blr
.L166:
.LCFI66:
	.cfi_restore_state
	.loc 1 936 0
	lis 9,getFLOAT@ha
	la 0,getFLOAT@l(9)
	lis 9,.LANCHOR1@ha
	stw 0,.LANCHOR1@l(9)
	.loc 1 940 0
	lwz 0,12(1)
	addi 1,1,8
	.cfi_remember_state
.LCFI67:
	.cfi_def_cfa_offset 0
	mtlr 0
	blr
.L160:
.LCFI68:
	.cfi_restore_state
	.loc 1 926 0
	lis 9,getBYTE@ha
	la 0,getBYTE@l(9)
	lis 9,.LANCHOR1@ha
	stw 0,.LANCHOR1@l(9)
	.loc 1 940 0
	lwz 0,12(1)
	addi 1,1,8
	.cfi_remember_state
.LCFI69:
	.cfi_def_cfa_offset 0
	mtlr 0
	blr
.L161:
.LCFI70:
	.cfi_restore_state
	.loc 1 924 0
	lis 9,getUBYTE@ha
	la 0,getUBYTE@l(9)
	lis 9,.LANCHOR1@ha
	stw 0,.LANCHOR1@l(9)
	.loc 1 940 0
	lwz 0,12(1)
	addi 1,1,8
	.cfi_remember_state
.LCFI71:
	.cfi_def_cfa_offset 0
	mtlr 0
	blr
.L162:
.LCFI72:
	.cfi_restore_state
	.loc 1 928 0
	lis 9,getSHORT@ha
	la 0,getSHORT@l(9)
	lis 9,.LANCHOR1@ha
	stw 0,.LANCHOR1@l(9)
	.loc 1 940 0
	lwz 0,12(1)
	addi 1,1,8
	.cfi_remember_state
.LCFI73:
	.cfi_def_cfa_offset 0
	mtlr 0
	blr
.L163:
.LCFI74:
	.cfi_restore_state
	.loc 1 930 0
	lis 9,getUSHORT@ha
	la 0,getUSHORT@l(9)
	lis 9,.LANCHOR1@ha
	stw 0,.LANCHOR1@l(9)
	.loc 1 940 0
	lwz 0,12(1)
	addi 1,1,8
	.cfi_remember_state
.LCFI75:
	.cfi_def_cfa_offset 0
	mtlr 0
	blr
.L164:
.LCFI76:
	.cfi_restore_state
	.loc 1 934 0
	lis 9,getINT@ha
	la 0,getINT@l(9)
	lis 9,.LANCHOR1@ha
	stw 0,.LANCHOR1@l(9)
	.loc 1 940 0
	lwz 0,12(1)
	addi 1,1,8
.LCFI77:
	.cfi_def_cfa_offset 0
	mtlr 0
	blr
	.cfi_endproc
.LFE113:
	.size	setSrcColorFunc, .-setSrcColorFunc
	.align 2
	.globl TransferPixelsFast
	.type	TransferPixelsFast, @function
TransferPixelsFast:
.LFB129:
	.loc 1 1067 0
	.cfi_startproc
.LVL221:
	stwu 1,-3232(1)
.LCFI78:
	.cfi_def_cfa_offset 3232
	mfcr 12
	mflr 0
	lwz 9,3244(1)
.LVL222:
	stw 18,3168(1)
	.loc 1 1072 0
	cmplwi 7,9,32820
	.loc 1 1067 0
	stw 23,3188(1)
	stw 24,3192(1)
	stw 26,3200(1)
	stw 28,3208(1)
	stw 29,3212(1)
	mr 29,8
	.cfi_offset 29, -20
	.cfi_offset 28, -24
	.cfi_offset 26, -32
	.cfi_offset 24, -40
	.cfi_offset 23, -44
	.cfi_offset 18, -64
	.cfi_register 65, 0
	.cfi_register 70, 12
	stw 30,3216(1)
	mr 30,6
	.cfi_offset 30, -16
	stw 31,3220(1)
	mr 31,3
	.cfi_offset 31, -12
	stw 0,3236(1)
	stfd 31,3224(1)
	stw 14,3152(1)
	stw 15,3156(1)
	stw 16,3160(1)
	stw 17,3164(1)
	stw 19,3172(1)
	stw 20,3176(1)
	stw 21,3180(1)
	stw 22,3184(1)
	stw 25,3196(1)
	stw 27,3204(1)
	stw 12,3148(1)
	.loc 1 1067 0
	lwz 18,3240(1)
	lwz 28,3248(1)
	lwz 24,3252(1)
	lwz 26,3256(1)
	lwz 23,3260(1)
	.loc 1 1072 0
	bgt- 7,.L174
	.cfi_offset 70, -84
	.cfi_offset 27, -28
	.cfi_offset 25, -36
	.cfi_offset 22, -48
	.cfi_offset 21, -52
	.cfi_offset 20, -56
	.cfi_offset 19, -60
	.cfi_offset 17, -68
	.cfi_offset 16, -72
	.cfi_offset 15, -76
	.cfi_offset 14, -80
	.cfi_offset 63, -8
	.cfi_offset 65, 4
	cmplwi 7,9,32819
	blt- 7,.L4300
.L172:
	.loc 1 1088 0
	li 25,2
.LVL223:
.L171:
	.loc 1 1104 0
	cmpwi 4,18,6408
	beq- 4,.L179
.L4306:
	cmplwi 7,18,6408
	bgt- 7,.L181
	cmplwi 7,18,6403
	bge- 7,.L4301
.LVL224:
.L3283:
	.loc 1 1070 0
	li 8,0
.LVL225:
.L176:
	.loc 1 1128 0
	cmplwi 7,9,32818
	.loc 1 1065 0
	addis 15,18,0xffff
	addi 15,15,32544
	subfic 15,15,1
	li 15,0
	adde 15,15,15
.LVL226:
	.loc 1 1128 0
	blt- 7,.L182
	cmplwi 7,9,32822
	ble- 7,.L183
	addis 11,9,0xffff
	addi 0,11,31902
	cmplwi 7,0,6
	ble- 7,.L183
.LVL227:
.L182:
	.loc 1 1149 0
	lis 11,unpack@ha
	la 11,unpack@l(11)
	lwz 0,4(11)
	cmpwi 7,0,0
	ble- 7,.L184
.LVL228:
	.loc 1 1151 0
	mr 5,0
.LVL229:
.L184:
	.loc 1 1154 0
	mullw 25,8,25
.LVL230:
	.loc 1 1156 0
	lwz 0,16(11)
	.loc 1 1154 0
	mullw 22,5,25
.LVL231:
	.loc 1 1156 0
	divwu 8,22,0
.LVL232:
	mullw 8,8,0
.LVL233:
	.loc 1 1158 0
	subf. 8,8,22
.LVL234:
	beq- 0,.L185
	.loc 1 1160 0
	add 22,22,0
.LVL235:
	subf 22,8,22
.LVL236:
.L185:
	.loc 1 1165 0
	lwz 21,8(11)
	cmplwi 7,4,39
	lwz 0,12(11)
	mullw 21,22,21
	mullw 0,25,0
	add 21,21,0
	add 21,10,21
.LVL237:
	bgt- 7,.L186
	.loc 1 1319 0
	cmpwi 7,4,5
	.loc 1 1563 0
	lis 11,.LANCHOR0@ha
	la 11,.LANCHOR0@l(11)
	.loc 1 1186 0
	add 26,26,28
	.loc 1 1563 0
	add 11,11,4
	.loc 1 1187 0
	add 23,23,24
	.loc 1 1563 0
	lbz 27,88(11)
.LVL238:
	.loc 1 1189 0
	divwu 20,5,30
.LVL239:
	.loc 1 1190 0
	divwu 19,7,29
.LVL240:
	.loc 1 1319 0
	bne- 7,.L187
	.loc 1 1319 0 is_stmt 0 discriminator 1
	xoris 0,9,0xffff
	cmpwi 7,0,-32716
	beq 7,.L4302
	.loc 1 1332 0 is_stmt 1 discriminator 1
	xoris 0,9,0xffff
	cmpwi 7,0,-31898
	beq 7,.L4303
.L219:
	.loc 1 1371 0
	xoris 0,9,0xffff
	cmpwi 7,0,-32714
	beq 7,.L309
.LVL241:
.L4308:
	cmplwi 7,9,32822
	li 0,0
	bgt- 7,.L317
	ori 0,0,32818
	cmpw 7,9,0
	beq- 7,.L305
	cmplwi 7,9,32818
	bgt- 7,.L318
	addi 0,9,-5120
	cmplwi 7,0,6
	ble- 7,.L4304
.LVL242:
.L170:
	.loc 1 1419 0
	lwz 0,3236(1)
	lwz 12,3148(1)
	mtlr 0
	lwz 14,3152(1)
	lwz 15,3156(1)
	mtcrf 56,12
	lwz 16,3160(1)
	lwz 17,3164(1)
	lwz 18,3168(1)
	lwz 19,3172(1)
	lwz 20,3176(1)
	lwz 21,3180(1)
.LVL243:
	lwz 22,3184(1)
	lwz 23,3188(1)
.LVL244:
	lwz 24,3192(1)
	lwz 25,3196(1)
	lwz 26,3200(1)
.LVL245:
	lwz 27,3204(1)
	lwz 28,3208(1)
	lwz 29,3212(1)
	lwz 30,3216(1)
.LVL246:
	lwz 31,3220(1)
.LVL247:
	lfd 31,3224(1)
	addi 1,1,3232
	.cfi_remember_state
.LCFI79:
	.cfi_def_cfa_offset 0
	.cfi_restore 70
	.cfi_restore 63
	.cfi_restore 31
	.cfi_restore 30
	.cfi_restore 29
	.cfi_restore 28
	.cfi_restore 27
	.cfi_restore 26
	.cfi_restore 25
	.cfi_restore 24
	.cfi_restore 23
	.cfi_restore 22
	.cfi_restore 21
	.cfi_restore 20
	.cfi_restore 19
	.cfi_restore 18
	.cfi_restore 17
	.cfi_restore 16
	.cfi_restore 15
	.cfi_restore 14
	blr
.LVL248:
.L174:
.LCFI80:
	.cfi_restore_state
	.loc 1 1072 0
	cmplwi 7,9,33638
	ble- 7,.L4305
	cmplwi 7,9,33640
	ble- 7,.L173
.L3282:
	.loc 1 1078 0
	li 25,1
.L4307:
.LVL249:
	.loc 1 1104 0
	cmpwi 4,18,6408
	bne+ 4,.L4306
.L179:
.LVL250:
	.loc 1 1115 0
	li 8,4
.LVL251:
	b .L176
.LVL252:
.L4305:
	.loc 1 1072 0
	cmplwi 7,9,33635
	bge- 7,.L172
	cmplwi 7,9,32822
	bgt- 7,.L3282
.L173:
.LVL253:
	.loc 1 1097 0
	li 25,4
	.loc 1 1098 0
	b .L171
.LVL254:
.L4300:
	.loc 1 1072 0
	cmplwi 7,9,5122
	blt- 7,.L3282
	cmplwi 7,9,5123
	ble- 7,.L172
	cmplwi 7,9,5126
	ble- 7,.L173
	.loc 1 1078 0
	li 25,1
	b .L4307
.LVL255:
.L183:
	.loc 1 1142 0
	li 8,1
.LVL256:
	b .L182
.LVL257:
.L186:
	.loc 1 1371 0
	xoris 0,9,0xffff
	.loc 1 1186 0
	add 26,26,28
.LVL258:
	.loc 1 1371 0
	cmpwi 7,0,-32714
	.loc 1 1187 0
	add 23,23,24
.LVL259:
	.loc 1 1189 0
	divwu 20,5,30
.LVL260:
	.loc 1 1190 0
	li 27,0
	divwu 19,7,29
.LVL261:
	.loc 1 1371 0
	bne 7,.L4308
.LVL262:
.L309:
	.loc 1 1393 0
	cmplwi 7,4,39
	ble- 7,.L4309
.LVL263:
.L1652:
	.loc 1 1393 0 is_stmt 0 discriminator 1
	lis 3,.LC12@ha
.LVL264:
	li 4,1393
	la 3,.LC12@l(3)
	b .L4298
.LVL265:
.L181:
	.loc 1 1104 0 is_stmt 1
	cmpwi 7,18,6410
	.loc 1 1111 0
	li 8,2
	.loc 1 1104 0
	beq- 7,.L176
	cmplwi 7,18,6410
	blt- 7,.L177
	xoris 0,18,0xffff
	cmpwi 7,0,-32544
	beq 7,.L178
	xoris 0,18,0xffff
	cmpwi 7,0,-32543
	bne 7,.L3283
.LVL266:
	.loc 1 1115 0
	li 8,4
	b .L176
.LVL267:
.L4301:
	.loc 1 1104 0
	cmplwi 7,18,6406
	bgt- 7,.L178
.L177:
	.loc 1 1110 0
	li 8,1
	b .L176
.LVL268:
.L317:
	.loc 1 1371 0
	ori 0,0,33637
	cmpw 7,9,0
	beq- 7,.L313
	cmplwi 7,9,33637
	li 0,0
	bgt- 7,.L319
	ori 0,0,33635
	cmpw 7,9,0
	beq- 7,.L311
	cmplwi 7,9,33635
	bgt- 7,.L312
	xoris 0,9,0xffff
	cmpwi 7,0,-31902
	bne 7,.L170
	.loc 1 1375 0
	cmplwi 7,4,39
	ble- 7,.L4310
.LVL269:
.L452:
	.loc 1 1375 0 is_stmt 0 discriminator 1
	lis 3,.LC12@ha
	li 4,1375
	la 3,.LC12@l(3)
	b .L4298
.LVL270:
.L178:
	.loc 1 1113 0 is_stmt 1
	li 8,3
	b .L176
.LVL271:
.L313:
	.loc 1 1383 0
	cmplwi 7,4,39
	ble- 7,.L4311
.LVL272:
.L982:
	.loc 1 1383 0 is_stmt 0 discriminator 1
	lis 3,.LC12@ha
	li 4,1383
	la 3,.LC12@l(3)
	b .L4298
.LVL273:
.L305:
	.loc 1 1373 0 is_stmt 1
	cmplwi 7,4,39
	ble- 7,.L4312
.LVL274:
.L320:
	.loc 1 1373 0 is_stmt 0 discriminator 1
	lis 3,.LC12@ha
	li 4,1373
	la 3,.LC12@l(3)
	b .L4298
.LVL275:
.L4303:
	.loc 1 1334 0 is_stmt 1
	cmpwi 7,15,0
	bne- 7,.L4313
.LVL276:
	.loc 1 1336 0 discriminator 1
	cmpwi 7,19,0
	ble- 7,.L170
.LBB4915:
	.loc 1 1336 0 is_stmt 0
	mullw 6,27,30
.LVL277:
	cmpwi 4,20,0
	cmpwi 1,29,0
	cmpwi 6,30,0
	li 4,0
.LVL278:
	li 18,0
.LBB4916:
.LBB4917:
.LBB4918:
	.loc 1 1041 0 is_stmt 1
	li 5,-31776
.LVL279:
.L222:
.LBE4918:
.LBE4917:
.LBE4916:
.LBE4915:
	.loc 1 1336 0 discriminator 1
	ble- 4,.L232
	.loc 1 1336 0 is_stmt 0
	li 11,0
	li 3,0
.LBB4934:
	.loc 1 1065 0 is_stmt 1
	add 7,4,29
.LVL280:
.L235:
.LBE4934:
	.loc 1 1336 0 discriminator 1
	beq- 1,.L233
.LBB4935:
	.loc 1 1336 0 is_stmt 0
	cmplw 7,23,4
	blt- 7,.L170
	mr 0,4
	addi 10,4,1
	cmplw 7,24,0
	bgt- 7,.L223
.LVL281:
.L4316:
	.loc 1 1336 0 discriminator 1
	beq- 6,.L225
.LBB4927:
	.loc 1 1336 0
	mullw 17,0,22
.LBE4927:
	.loc 1 1065 0 is_stmt 1
	li 9,0
	.loc 1 1336 0
	li 0,0
.LBB4928:
.LBB4922:
.LBB4919:
	.loc 1 1041 0
	mtctr 30
	.loc 1 1037 0
	add 17,21,17
	b .L230
.LVL282:
.L4315:
.LBE4919:
.LBE4922:
	.loc 1 1336 0 discriminator 2
	cmplw 7,26,0
	blt- 7,.L226
.LVL283:
	.loc 1 1336 0 is_stmt 0 discriminator 1
	mullw 8,0,25
.LBB4923:
.LBB4920:
	.loc 1 1037 0 is_stmt 1 discriminator 1
	lhzx 0,17,8
.LVL284:
	.loc 1 1039 0 discriminator 1
	extsh. 8,0
	blt- 0,.L4314
	.loc 1 1045 0
	rlwinm 16,0,29,24,27
	rlwinm 8,0,7,20,23
	or 8,16,8
	rlwinm 0,0,22,27,30
.LVL285:
	or 0,8,0
	sth 0,0(31)
	addi 31,31,2
.LVL286:
.L228:
.LBE4920:
.LBE4923:
.LBE4928:
	.loc 1 1336 0 discriminator 3
	addi 9,9,1
.LVL287:
	mr 0,9
	bdz .L225
.LVL288:
.L230:
.LBB4929:
	.loc 1 1336 0 is_stmt 0 discriminator 2
	add 0,11,0
.LVL289:
	cmplw 7,28,0
	ble- 7,.L4315
.L226:
.LVL290:
.LBE4929:
	.loc 1 1336 0
	addi 9,9,1
.LBB4930:
.LBB4924:
.LBB4925:
	.loc 2 350 0 is_stmt 1
	add 31,31,27
.LVL291:
.LBE4925:
.LBE4924:
.LBE4930:
	.loc 1 1336 0
	mr 0,9
.LVL292:
	bdnz .L230
.LVL293:
.L225:
.LBE4935:
	.loc 1 1336 0 is_stmt 0 discriminator 2
	cmpw 7,10,7
	beq- 7,.L233
.LVL294:
.LBB4936:
	cmplw 7,23,10
	addi 9,10,1
	blt- 7,.L170
	.loc 1 1336 0
	mr 0,10
	mr 10,9
.LVL295:
	cmplw 7,24,0
	ble- 7,.L4316
.LVL296:
.L223:
.LBB4931:
.LBB4932:
	.loc 2 350 0 is_stmt 1 discriminator 1
	add 31,31,6
.LVL297:
.LBE4932:
.LBE4931:
	.loc 1 1336 0 discriminator 1
	b .L225
.LVL298:
.L4304:
.LBE4936:
	.loc 1 1403 0
	mr 3,9
.LVL299:
	stw 4,3112(1)
	bl setSrcColorFunc
.LVL300:
	.loc 1 1404 0
	cmpwi 7,18,6407
	lwz 4,3112(1)
	beq- 7,.L1924
	cmplwi 7,18,6407
	ble- 7,$+8
	b .L1928
	cmpwi 7,18,6404
	bne+ 7,$+8
	b .L1921
	cmplwi 7,18,6404
	ble- 7,$+8
	b .L1929
	cmpwi 7,18,6403
	bne+ 7,.L170
	.loc 1 1406 0
	cmplwi 7,4,39
	bgt- 7,$+8
	b .L4317
.L1931:
	.loc 1 1406 0 is_stmt 0 discriminator 1
	lis 3,.LC12@ha
	li 4,1406
	la 3,.LC12@l(3)
.L4298:
	.loc 1 1375 0 is_stmt 1 discriminator 1
	lis 5,.LANCHOR0@ha
	lis 6,.LC20@ha
	la 5,.LANCHOR0@l(5)
	la 6,.LC20@l(6)
	addi 5,5,128
	bl __assert_func
.LVL301:
.L312:
	.loc 1 1379 0
	cmplwi 7,4,39
	ble- 7,.L4318
.LVL302:
.L716:
	.loc 1 1379 0 is_stmt 0 discriminator 1
	lis 3,.LC12@ha
	li 4,1379
	la 3,.LC12@l(3)
	b .L4298
.LVL303:
.L187:
	.loc 1 1345 0 is_stmt 1
	cmpwi 7,4,4
	bne- 7,.L219
	.loc 1 1345 0 is_stmt 0 discriminator 1
	xoris 0,9,0xffff
	cmpwi 7,0,-31901
	beq 7,.L4319
	.loc 1 1358 0 is_stmt 1 discriminator 1
	xoris 0,9,0xffff
	cmpwi 7,0,-31900
	bne 7,.L219
	.loc 1 1360 0
	cmpwi 7,15,0
	bne- 7,.L4320
.LVL304:
	.loc 1 1362 0 discriminator 1
	cmpwi 7,19,0
	ble- 7,.L170
.LBB4937:
	.loc 1 1362 0 is_stmt 0
	mullw 5,30,27
.LVL305:
	cmpwi 4,20,0
	cmpwi 1,29,0
	cmpwi 6,30,0
	li 4,0
.LVL306:
	li 18,0
.LVL307:
.L279:
.LBE4937:
	.loc 1 1362 0 discriminator 1
	ble- 4,.L288
	.loc 1 1362 0
	li 11,0
	li 3,0
.LBB4951:
	.loc 1 1065 0 is_stmt 1
	add 6,4,29
.LVL308:
.L291:
.LBE4951:
	.loc 1 1362 0 discriminator 1
	beq- 1,.L289
.LBB4952:
	.loc 1 1362 0 is_stmt 0
	cmplw 7,23,4
	blt- 7,.L170
	mr 7,4
	addi 10,4,1
	cmplw 7,24,7
	bgt- 7,.L280
.LVL309:
.L4322:
	.loc 1 1362 0 discriminator 1
	beq- 6,.L282
.LBB4938:
	.loc 1 1362 0
	mullw 7,7,22
.LBE4938:
	li 0,0
	.loc 1 1065 0 is_stmt 1
	li 9,0
.LBB4945:
.LBB4939:
.LBB4940:
	.loc 1 988 0
	mtctr 30
	add 7,21,7
	b .L286
.LVL310:
.L4321:
.LBE4940:
.LBE4939:
	.loc 1 1362 0 discriminator 2
	cmplw 7,26,0
	blt- 7,.L283
.LVL311:
	.loc 1 1362 0 is_stmt 0 discriminator 1
	mullw 8,0,25
.LBE4945:
	addi 9,9,1
.LBB4946:
.LBB4942:
.LBB4941:
	.loc 1 988 0 is_stmt 1 discriminator 1
	lhzx 0,7,8
.LVL312:
	.loc 1 990 0 discriminator 1
	rlwinm 17,0,0,21,26
	srwi 8,0,11
	or 8,17,8
	slwi 0,0,11
.LVL313:
	or 0,8,0
	sth 0,0(31)
	addi 31,31,2
.LVL314:
.LBE4941:
.LBE4942:
.LBE4946:
	.loc 1 1362 0 discriminator 1
	mr 0,9
	bdz .L282
.LVL315:
.L286:
.LBB4947:
	.loc 1 1362 0 is_stmt 0 discriminator 2
	add 0,0,11
.LVL316:
	cmplw 7,28,0
	ble- 7,.L4321
.L283:
.LVL317:
.LBE4947:
	.loc 1 1362 0
	addi 9,9,1
.LBB4948:
.LBB4943:
.LBB4944:
	.loc 2 350 0 is_stmt 1
	add 31,31,27
.LVL318:
.LBE4944:
.LBE4943:
.LBE4948:
	.loc 1 1362 0
	mr 0,9
.LVL319:
	bdnz .L286
.LVL320:
.L282:
.LBE4952:
	.loc 1 1362 0 is_stmt 0 discriminator 2
	cmpw 7,10,6
	beq- 7,.L289
.LVL321:
.LBB4953:
	cmplw 7,23,10
	addi 0,10,1
	blt- 7,.L170
	.loc 1 1362 0
	mr 7,10
	mr 10,0
.LVL322:
	cmplw 7,24,7
	ble- 7,.L4322
.LVL323:
.L280:
.LBB4949:
.LBB4950:
	.loc 2 350 0 is_stmt 1 discriminator 1
	add 31,31,5
.LVL324:
.LBE4950:
.LBE4949:
	.loc 1 1362 0 discriminator 1
	b .L282
.LVL325:
.L319:
.LBE4953:
	.loc 1 1371 0
	ori 0,0,33639
	cmpw 7,9,0
	beq- 7,.L315
	cmplwi 7,9,33639
	blt- 7,.L314
	xoris 0,9,0xffff
	cmpwi 7,0,-31896
	bne 7,.L170
	.loc 1 1395 0
	cmplwi 7,4,39
	ble- 7,.L4323
.LVL326:
.L1786:
	.loc 1 1395 0 is_stmt 0 discriminator 1
	lis 3,.LC12@ha
.LVL327:
	li 4,1395
	la 3,.LC12@l(3)
	b .L4298
.LVL328:
.L314:
	.loc 1 1387 0 is_stmt 1
	cmplwi 7,4,39
	ble- 7,.L4324
.LVL329:
.L1250:
	.loc 1 1387 0 is_stmt 0 discriminator 1
	lis 3,.LC12@ha
	li 4,1387
	la 3,.LC12@l(3)
	b .L4298
.LVL330:
.L318:
	.loc 1 1371 0 is_stmt 1
	xoris 0,9,0xffff
	cmpwi 7,0,-32716
	beq 7,.L307
	cmplwi 7,9,32820
	ble- 7,.L4325
	.loc 1 1389 0
	cmplwi 7,4,39
	ble- 7,.L4326
.LVL331:
.L1384:
	.loc 1 1389 0 is_stmt 0 discriminator 1
	lis 3,.LC12@ha
	li 4,1389
	la 3,.LC12@l(3)
	b .L4298
.LVL332:
.L4325:
	.loc 1 1381 0 is_stmt 1
	cmplwi 7,4,39
	ble- 7,.L4327
.LVL333:
.L848:
	.loc 1 1381 0 is_stmt 0 discriminator 1
	lis 3,.LC12@ha
	li 4,1381
	la 3,.LC12@l(3)
	b .L4298
.LVL334:
.L4302:
	.loc 1 1321 0 is_stmt 1
	cmpwi 7,15,0
	bne- 7,.L4328
.LVL335:
	.loc 1 1323 0 discriminator 1
	cmpwi 7,19,0
	ble- 7,.L170
.LBB4954:
	.loc 1 1323 0 is_stmt 0
	mullw 4,27,30
.LVL336:
	cmpwi 4,20,0
	cmpwi 1,29,0
	cmpwi 6,30,0
	li 3,0
	li 17,0
.LBB4955:
.LBB4956:
.LBB4957:
	.loc 1 1009 0 is_stmt 1
	li 5,-32768
.LVL337:
.L192:
.LBE4957:
.LBE4956:
.LBE4955:
.LBE4954:
	.loc 1 1323 0 discriminator 1
	ble- 4,.L202
	.loc 1 1323 0 is_stmt 0
	li 11,0
	li 18,0
.LBB4973:
	.loc 1 1065 0 is_stmt 1
	add 6,3,29
.LVL338:
.L205:
.LBE4973:
	.loc 1 1323 0 discriminator 1
	beq- 1,.L203
.LBB4974:
	.loc 1 1323 0 is_stmt 0
	cmplw 7,23,3
	blt- 7,.L170
	mr 0,3
	addi 10,3,1
	cmplw 7,24,0
	bgt- 7,.L193
.LVL339:
.L4330:
	.loc 1 1323 0 discriminator 1
	beq- 6,.L195
.LBB4966:
	.loc 1 1323 0
	mullw 7,0,22
.LBE4966:
	.loc 1 1065 0 is_stmt 1
	li 9,0
	.loc 1 1323 0
	li 0,0
.LBB4967:
.LBB4961:
.LBB4958:
	.loc 1 1009 0
	mtctr 30
	.loc 1 1005 0
	add 7,21,7
	b .L200
.LVL340:
.L4329:
.LBE4958:
.LBE4961:
	.loc 1 1323 0 discriminator 2
	cmplw 7,26,0
	blt- 7,.L196
.LVL341:
	.loc 1 1323 0 is_stmt 0 discriminator 1
	mullw 8,0,25
.LBB4962:
.LBB4959:
	.loc 1 1005 0 is_stmt 1 discriminator 1
	lhzx 0,7,8
.LVL342:
	.loc 1 1007 0 discriminator 1
	andi. 8,0,1
	beq- 0,.L199
	.loc 1 1009 0
	srwi 0,0,1
.LVL343:
	or 0,0,5
	sth 0,0(31)
	addi 31,31,2
.LVL344:
.L198:
.LBE4959:
.LBE4962:
.LBE4967:
	.loc 1 1323 0 discriminator 3
	addi 9,9,1
.LVL345:
	mr 0,9
	bdz .L195
.LVL346:
.L200:
.LBB4968:
	.loc 1 1323 0 is_stmt 0 discriminator 2
	add 0,11,0
.LVL347:
	cmplw 7,28,0
	ble- 7,.L4329
.L196:
.LVL348:
.LBE4968:
	.loc 1 1323 0
	addi 9,9,1
.LBB4969:
.LBB4963:
.LBB4964:
	.loc 2 350 0 is_stmt 1
	add 31,31,27
.LVL349:
.LBE4964:
.LBE4963:
.LBE4969:
	.loc 1 1323 0
	mr 0,9
.LVL350:
	bdnz .L200
.LVL351:
.L195:
.LBE4974:
	.loc 1 1323 0 is_stmt 0 discriminator 2
	cmpw 7,10,6
	beq- 7,.L203
.LVL352:
.LBB4975:
	cmplw 7,23,10
	addi 9,10,1
	blt- 7,.L170
	.loc 1 1323 0
	mr 0,10
	mr 10,9
.LVL353:
	cmplw 7,24,0
	ble- 7,.L4330
.LVL354:
.L193:
.LBB4970:
.LBB4971:
	.loc 2 350 0 is_stmt 1 discriminator 1
	add 31,31,4
.LVL355:
.LBE4971:
.LBE4970:
	.loc 1 1323 0 discriminator 1
	b .L195
.LVL356:
.L4319:
.LBE4975:
	.loc 1 1347 0
	cmpwi 7,15,0
	bne- 7,.L4331
.LVL357:
	.loc 1 1349 0 discriminator 1
	cmpwi 7,19,0
	ble- 7,.L170
.LBB4976:
	.loc 1 1349 0 is_stmt 0
	mullw 5,30,27
.LVL358:
	cmpwi 4,20,0
	cmpwi 1,29,0
	cmpwi 6,30,0
	li 4,0
.LVL359:
	li 18,0
.LVL360:
.L252:
.LBE4976:
	.loc 1 1349 0 discriminator 1
	ble- 4,.L261
	.loc 1 1349 0
	li 11,0
	li 3,0
.LBB4990:
	.loc 1 1065 0 is_stmt 1
	add 6,4,29
.LVL361:
.L264:
.LBE4990:
	.loc 1 1349 0 discriminator 1
	beq- 1,.L262
.LBB4991:
	.loc 1 1349 0 is_stmt 0
	cmplw 7,23,4
	blt- 7,.L170
	mr 0,4
	addi 10,4,1
	cmplw 7,24,0
	bgt- 7,.L253
.LVL362:
.L4333:
	.loc 1 1349 0 discriminator 1
	beq- 6,.L255
.LBB4977:
	.loc 1 1349 0
	mullw 7,0,22
.LBE4977:
	.loc 1 1065 0 is_stmt 1
	li 9,0
	.loc 1 1349 0
	li 0,0
.LBB4984:
.LBB4978:
.LBB4979:
	.loc 1 997 0
	mtctr 30
	add 7,21,7
	b .L259
.LVL363:
.L4332:
.LBE4979:
.LBE4978:
	.loc 1 1349 0 discriminator 2
	cmplw 7,26,0
	blt- 7,.L256
.LVL364:
	.loc 1 1349 0 is_stmt 0 discriminator 1
	mullw 8,0,25
.LBE4984:
	addi 9,9,1
.LBB4985:
.LBB4981:
.LBB4980:
	.loc 1 997 0 is_stmt 1 discriminator 1
	lhzx 0,7,8
.LVL365:
	sth 0,0(31)
	addi 31,31,2
.LVL366:
.LBE4980:
.LBE4981:
.LBE4985:
	.loc 1 1349 0 discriminator 1
	mr 0,9
	bdz .L255
.LVL367:
.L259:
.LBB4986:
	.loc 1 1349 0 is_stmt 0 discriminator 2
	add 0,11,0
.LVL368:
	cmplw 7,28,0
	ble- 7,.L4332
.L256:
.LVL369:
.LBE4986:
	.loc 1 1349 0
	addi 9,9,1
.LBB4987:
.LBB4982:
.LBB4983:
	.loc 2 350 0 is_stmt 1
	add 31,31,27
.LVL370:
.LBE4983:
.LBE4982:
.LBE4987:
	.loc 1 1349 0
	mr 0,9
.LVL371:
	bdnz .L259
.LVL372:
.L255:
.LBE4991:
	.loc 1 1349 0 is_stmt 0 discriminator 2
	cmpw 7,10,6
	beq- 7,.L262
.LVL373:
.LBB4992:
	cmplw 7,23,10
	addi 9,10,1
	blt- 7,.L170
	.loc 1 1349 0
	mr 0,10
	mr 10,9
.LVL374:
	cmplw 7,24,0
	ble- 7,.L4333
.LVL375:
.L253:
.LBB4988:
.LBB4989:
	.loc 2 350 0 is_stmt 1 discriminator 1
	add 31,31,5
.LVL376:
.LBE4989:
.LBE4988:
	.loc 1 1349 0 discriminator 1
	b .L255
.LVL377:
.L307:
.LBE4992:
	.loc 1 1385 0
	cmplwi 7,4,39
	ble- 7,.L4334
.LVL378:
.L1116:
	.loc 1 1385 0 is_stmt 0 discriminator 1
	lis 3,.LC12@ha
.LVL379:
	li 4,1385
	la 3,.LC12@l(3)
	b .L4298
.LVL380:
.L311:
	.loc 1 1377 0 is_stmt 1
	cmplwi 7,4,39
	ble- 7,.L4335
.LVL381:
.L584:
	.loc 1 1377 0 is_stmt 0 discriminator 1
	lis 3,.LC12@ha
	li 4,1377
	la 3,.LC12@l(3)
	b .L4298
.LVL382:
.L315:
	.loc 1 1391 0 is_stmt 1
	cmplwi 7,4,39
	ble- 7,.L4336
.LVL383:
.L1518:
	.loc 1 1391 0 is_stmt 0 discriminator 1
	lis 3,.LC12@ha
	li 4,1391
	la 3,.LC12@l(3)
	b .L4298
.LVL384:
.L4328:
	.loc 1 1327 0 is_stmt 1 discriminator 1
	cmpwi 7,19,0
	ble- 7,.L170
.LBB4993:
	.loc 1 1327 0 is_stmt 0
	mullw 4,27,30
.LVL385:
	cmpwi 4,20,0
	cmpwi 1,29,0
	cmpwi 6,30,0
	li 3,0
	li 17,0
.LBB4994:
.LBB4995:
.LBB4996:
	.loc 1 1025 0 is_stmt 1
	li 5,-32768
.LVL386:
.L191:
.LBE4996:
.LBE4995:
.LBE4994:
.LBE4993:
	.loc 1 1327 0 discriminator 1
	ble- 4,.L215
	.loc 1 1327 0 is_stmt 0
	li 11,0
	li 18,0
.LBB5012:
	.loc 1 1065 0 is_stmt 1
	add 6,3,29
.LVL387:
.L218:
.LBE5012:
	.loc 1 1327 0 discriminator 1
	beq- 1,.L216
.LBB5013:
	.loc 1 1327 0 is_stmt 0
	cmplw 7,23,3
	blt- 7,.L170
	mr 0,3
	addi 10,3,1
	cmplw 7,24,0
	bgt- 7,.L206
.LVL388:
.L4338:
	.loc 1 1327 0 discriminator 1
	beq- 6,.L208
.LBB5005:
	.loc 1 1327 0
	mullw 7,0,22
.LBE5005:
	.loc 1 1065 0 is_stmt 1
	li 9,0
	.loc 1 1327 0
	li 0,0
.LBB5006:
.LBB5000:
.LBB4997:
	.loc 1 1025 0
	mtctr 30
	.loc 1 1021 0
	add 7,21,7
	b .L213
.LVL389:
.L4337:
.LBE4997:
.LBE5000:
	.loc 1 1327 0 discriminator 2
	cmplw 7,26,0
	blt- 7,.L209
.LVL390:
	.loc 1 1327 0 is_stmt 0 discriminator 1
	mullw 8,0,25
.LBB5001:
.LBB4998:
	.loc 1 1021 0 is_stmt 1 discriminator 1
	lhzx 0,7,8
.LVL391:
	.loc 1 1023 0 discriminator 1
	andi. 12,0,1
	beq- 0,.L212
	.loc 1 1025 0
	srwi 8,0,11
	rlwinm 16,0,9,17,21
	or 8,8,5
	rlwinm 0,0,31,22,26
.LVL392:
	or 8,8,16
	or 0,8,0
	sth 0,0(31)
	addi 31,31,2
.LVL393:
.L211:
.LBE4998:
.LBE5001:
.LBE5006:
	.loc 1 1327 0 discriminator 3
	addi 9,9,1
.LVL394:
	mr 0,9
	bdz .L208
.LVL395:
.L213:
.LBB5007:
	.loc 1 1327 0 is_stmt 0 discriminator 2
	add 0,11,0
.LVL396:
	cmplw 7,28,0
	ble- 7,.L4337
.L209:
.LVL397:
.LBE5007:
	.loc 1 1327 0
	addi 9,9,1
.LBB5008:
.LBB5002:
.LBB5003:
	.loc 2 350 0 is_stmt 1
	add 31,31,27
.LVL398:
.LBE5003:
.LBE5002:
.LBE5008:
	.loc 1 1327 0
	mr 0,9
.LVL399:
	bdnz .L213
.LVL400:
.L208:
.LBE5013:
	.loc 1 1327 0 is_stmt 0 discriminator 2
	cmpw 7,10,6
	beq- 7,.L216
.LVL401:
.LBB5014:
	cmplw 7,23,10
.LBE5014:
	.loc 1 1323 0 is_stmt 1 discriminator 2
	addi 9,10,1
.LBB5015:
	.loc 1 1327 0 discriminator 2
	blt- 7,.L170
	.loc 1 1327 0 is_stmt 0
	mr 0,10
	mr 10,9
.LVL402:
	cmplw 7,24,0
	ble- 7,.L4338
.LVL403:
.L206:
.LBB5009:
.LBB5010:
	.loc 2 350 0 is_stmt 1 discriminator 1
	add 31,31,4
.LVL404:
.LBE5010:
.LBE5009:
	.loc 1 1327 0 discriminator 1
	b .L208
.LVL405:
.L4313:
.LBE5015:
	.loc 1 1340 0 discriminator 1
	cmpwi 7,19,0
	ble- 7,.L170
.LBB5016:
	.loc 1 1340 0 is_stmt 0
	mullw 6,27,30
	cmpwi 4,20,0
	cmpwi 1,29,0
	cmpwi 6,30,0
	li 5,0
.LVL406:
	li 3,0
.LVL407:
.L221:
.LBE5016:
	.loc 1 1340 0 discriminator 1
	ble- 4,.L245
	.loc 1 1340 0
	li 11,0
	li 4,0
.LBB5032:
	.loc 1 1065 0 is_stmt 1
	add 7,5,29
.LVL408:
.L248:
.LBE5032:
	.loc 1 1340 0 discriminator 1
	beq- 1,.L246
.LBB5033:
	.loc 1 1340 0 is_stmt 0
	cmplw 7,23,5
	blt- 7,.L170
	mr 0,5
	addi 10,5,1
	cmplw 7,24,0
	bgt- 7,.L236
.LVL409:
.L4340:
	.loc 1 1340 0 discriminator 1
	beq- 6,.L238
.LBB5017:
	.loc 1 1340 0
	mullw 18,0,22
.LBE5017:
	.loc 1 1065 0 is_stmt 1
	li 9,0
	.loc 1 1340 0
	li 0,0
.LBB5026:
.LBB5018:
.LBB5019:
	.loc 1 1053 0
	mtctr 30
	add 18,21,18
	b .L243
.LVL410:
.L4339:
.LBE5019:
.LBE5018:
	.loc 1 1340 0 discriminator 2
	cmplw 7,26,0
	blt- 7,.L239
.LVL411:
	.loc 1 1340 0 is_stmt 0 discriminator 1
	mullw 8,0,25
.LBB5022:
.LBB5020:
	.loc 1 1053 0 is_stmt 1 discriminator 1
	lhzx 0,18,8
.LVL412:
	.loc 1 1055 0 discriminator 1
	andi. 14,0,32768
	bne- 0,.L4297
	.loc 1 1061 0
	rlwinm 8,0,31,28,31
	rlwinm 0,0,29,20,27
.LVL413:
	or 0,0,8
.L4297:
.LBE5020:
.LBE5022:
.LBE5026:
	.loc 1 1340 0
	addi 9,9,1
.LBB5027:
.LBB5023:
.LBB5021:
	.loc 1 1061 0
	sth 0,0(31)
	addi 31,31,2
.LVL414:
.LBE5021:
.LBE5023:
.LBE5027:
	.loc 1 1340 0
	mr 0,9
	bdz .L238
.LVL415:
.L243:
.LBB5028:
	.loc 1 1340 0 is_stmt 0 discriminator 2
	add 0,11,0
.LVL416:
	cmplw 7,28,0
	ble- 7,.L4339
.L239:
.LVL417:
.LBE5028:
	.loc 1 1340 0
	addi 9,9,1
.LBB5029:
.LBB5024:
.LBB5025:
	.loc 2 350 0 is_stmt 1
	add 31,31,27
.LVL418:
.LBE5025:
.LBE5024:
.LBE5029:
	.loc 1 1340 0
	mr 0,9
.LVL419:
	bdnz .L243
.LVL420:
.L238:
.LBE5033:
	.loc 1 1340 0 is_stmt 0 discriminator 2
	cmpw 7,10,7
	beq- 7,.L246
.LVL421:
.LBB5034:
	cmplw 7,23,10
.LBE5034:
	.loc 1 1336 0 is_stmt 1 discriminator 2
	addi 9,10,1
.LBB5035:
	.loc 1 1340 0 discriminator 2
	blt- 7,.L170
	.loc 1 1340 0 is_stmt 0
	mr 0,10
	mr 10,9
.LVL422:
	cmplw 7,24,0
	ble- 7,.L4340
.LVL423:
.L236:
.LBB5030:
.LBB5031:
	.loc 2 350 0 is_stmt 1 discriminator 1
	add 31,31,6
.LVL424:
.LBE5031:
.LBE5030:
	.loc 1 1340 0 discriminator 1
	b .L238
.LVL425:
.L4331:
.LBE5035:
	.loc 1 1353 0 discriminator 1
	cmpwi 7,19,0
	ble- 7,.L170
.LBB5036:
	.loc 1 1353 0 is_stmt 0
	mullw 5,30,27
.LVL426:
	cmpwi 4,20,0
	cmpwi 1,29,0
	cmpwi 6,30,0
	li 4,0
.LVL427:
	li 18,0
.LVL428:
.L251:
.LBE5036:
	.loc 1 1353 0 discriminator 1
	ble- 4,.L273
	.loc 1 1353 0
	li 11,0
	li 3,0
.LBB5050:
	.loc 1 1065 0 is_stmt 1
	add 6,4,29
.LVL429:
.L276:
.LBE5050:
	.loc 1 1353 0 discriminator 1
	beq- 1,.L274
.LBB5051:
	.loc 1 1353 0 is_stmt 0
	cmplw 7,23,4
	blt- 7,.L170
	mr 7,4
	addi 10,4,1
	cmplw 7,24,7
	bgt- 7,.L265
.LVL430:
.L4342:
	.loc 1 1353 0 discriminator 1
	beq- 6,.L267
.LBB5037:
	.loc 1 1353 0
	mullw 7,7,22
.LBE5037:
	li 0,0
	.loc 1 1065 0 is_stmt 1
	li 9,0
.LBB5044:
.LBB5038:
.LBB5039:
	.loc 1 988 0
	mtctr 30
	add 7,21,7
	b .L271
.LVL431:
.L4341:
.LBE5039:
.LBE5038:
	.loc 1 1353 0 discriminator 2
	cmplw 7,26,0
	blt- 7,.L268
.LVL432:
	.loc 1 1353 0 is_stmt 0 discriminator 1
	mullw 8,0,25
.LBE5044:
	addi 9,9,1
.LBB5045:
.LBB5041:
.LBB5040:
	.loc 1 988 0 is_stmt 1 discriminator 1
	lhzx 0,7,8
.LVL433:
	.loc 1 990 0 discriminator 1
	rlwinm 17,0,0,21,26
	srwi 8,0,11
	or 8,17,8
	slwi 0,0,11
.LVL434:
	or 0,8,0
	sth 0,0(31)
	addi 31,31,2
.LVL435:
.LBE5040:
.LBE5041:
.LBE5045:
	.loc 1 1353 0 discriminator 1
	mr 0,9
	bdz .L267
.LVL436:
.L271:
.LBB5046:
	.loc 1 1353 0 is_stmt 0 discriminator 2
	add 0,11,0
.LVL437:
	cmplw 7,28,0
	ble- 7,.L4341
.L268:
.LVL438:
.LBE5046:
	.loc 1 1353 0
	addi 9,9,1
.LBB5047:
.LBB5042:
.LBB5043:
	.loc 2 350 0 is_stmt 1
	add 31,31,27
.LVL439:
.LBE5043:
.LBE5042:
.LBE5047:
	.loc 1 1353 0
	mr 0,9
.LVL440:
	bdnz .L271
.LVL441:
.L267:
.LBE5051:
	.loc 1 1353 0 is_stmt 0 discriminator 2
	cmpw 7,10,6
	beq- 7,.L274
.LVL442:
.LBB5052:
	cmplw 7,23,10
.LBE5052:
	.loc 1 1349 0 is_stmt 1 discriminator 2
	addi 0,10,1
.LBB5053:
	.loc 1 1353 0 discriminator 2
	blt- 7,.L170
	.loc 1 1353 0 is_stmt 0
	mr 7,10
	mr 10,0
.LVL443:
	cmplw 7,24,7
	ble- 7,.L4342
.LVL444:
.L265:
.LBB5048:
.LBB5049:
	.loc 2 350 0 is_stmt 1 discriminator 1
	add 31,31,5
.LVL445:
.LBE5049:
.LBE5048:
	.loc 1 1353 0 discriminator 1
	b .L267
.LVL446:
.L4320:
.LBE5053:
	.loc 1 1366 0 discriminator 1
	cmpwi 7,19,0
	ble- 7,.L170
.LBB5054:
	.loc 1 1366 0 is_stmt 0
	mullw 5,30,27
.LVL447:
	cmpwi 4,20,0
	cmpwi 1,29,0
	cmpwi 6,30,0
	li 4,0
.LVL448:
	li 18,0
.LVL449:
.L278:
.LBE5054:
	.loc 1 1366 0 discriminator 1
	ble- 4,.L300
	.loc 1 1366 0
	li 11,0
	li 3,0
.LBB5068:
	.loc 1 1065 0 is_stmt 1
	add 6,4,29
.LVL450:
.L303:
.LBE5068:
	.loc 1 1366 0 discriminator 1
	beq- 1,.L301
.LBB5069:
	.loc 1 1366 0 is_stmt 0
	cmplw 7,23,4
	blt- 7,.L170
	mr 0,4
	addi 10,4,1
	cmplw 7,24,0
	bgt- 7,.L292
.LVL451:
.L4344:
	.loc 1 1366 0 discriminator 1
	beq- 6,.L294
.LBB5055:
	.loc 1 1366 0
	mullw 7,0,22
.LBE5055:
	.loc 1 1065 0 is_stmt 1
	li 9,0
	.loc 1 1366 0
	li 0,0
.LBB5062:
.LBB5056:
.LBB5057:
	.loc 1 997 0
	mtctr 30
	add 7,21,7
	b .L298
.LVL452:
.L4343:
.LBE5057:
.LBE5056:
	.loc 1 1366 0 discriminator 2
	cmplw 7,26,0
	blt- 7,.L295
.LVL453:
	.loc 1 1366 0 is_stmt 0 discriminator 1
	mullw 8,0,25
.LBE5062:
	addi 9,9,1
.LBB5063:
.LBB5059:
.LBB5058:
	.loc 1 997 0 is_stmt 1 discriminator 1
	lhzx 0,7,8
.LVL454:
	sth 0,0(31)
	addi 31,31,2
.LVL455:
.LBE5058:
.LBE5059:
.LBE5063:
	.loc 1 1366 0 discriminator 1
	mr 0,9
	bdz .L294
.LVL456:
.L298:
.LBB5064:
	.loc 1 1366 0 is_stmt 0 discriminator 2
	add 0,11,0
.LVL457:
	cmplw 7,28,0
	ble- 7,.L4343
.L295:
.LVL458:
.LBE5064:
	.loc 1 1366 0
	addi 9,9,1
.LBB5065:
.LBB5060:
.LBB5061:
	.loc 2 350 0 is_stmt 1
	add 31,31,27
.LVL459:
.LBE5061:
.LBE5060:
.LBE5065:
	.loc 1 1366 0
	mr 0,9
.LVL460:
	bdnz .L298
.LVL461:
.L294:
.LBE5069:
	.loc 1 1366 0 is_stmt 0 discriminator 2
	cmpw 7,10,6
	beq- 7,.L301
.LVL462:
.LBB5070:
	cmplw 7,23,10
.LBE5070:
	.loc 1 1362 0 is_stmt 1 discriminator 2
	addi 9,10,1
.LBB5071:
	.loc 1 1366 0 discriminator 2
	blt- 7,.L170
	.loc 1 1366 0 is_stmt 0
	mr 0,10
	mr 10,9
.LVL463:
	cmplw 7,24,0
	ble- 7,.L4344
.LVL464:
.L292:
.LBB5066:
.LBB5067:
	.loc 2 350 0 is_stmt 1 discriminator 1
	add 31,31,5
.LVL465:
.LBE5067:
.LBE5066:
	.loc 1 1366 0 discriminator 1
	b .L294
.LVL466:
.L4318:
.LBE5071:
	.loc 1 1379 0
	lis 9,.L724@ha
	slwi 4,4,2
.LVL467:
	la 9,.L724@l(9)
	lwzx 0,9,4
	add 9,0,9
	mtctr 9
	bctr
	.section	.rodata
	.align 2
	.align 2
.L724:
	.long .L716-.L724
	.long .L717-.L724
	.long .L718-.L724
	.long .L719-.L724
	.long .L720-.L724
	.long .L721-.L724
	.long .L722-.L724
	.long .L716-.L724
	.long .L716-.L724
	.long .L716-.L724
	.long .L716-.L724
	.long .L716-.L724
	.long .L716-.L724
	.long .L716-.L724
	.long .L716-.L724
	.long .L716-.L724
	.long .L716-.L724
	.long .L716-.L724
	.long .L716-.L724
	.long .L716-.L724
	.long .L716-.L724
	.long .L716-.L724
	.long .L716-.L724
	.long .L716-.L724
	.long .L716-.L724
	.long .L716-.L724
	.long .L716-.L724
	.long .L716-.L724
	.long .L716-.L724
	.long .L716-.L724
	.long .L716-.L724
	.long .L716-.L724
	.long .L716-.L724
	.long .L716-.L724
	.long .L716-.L724
	.long .L716-.L724
	.long .L716-.L724
	.long .L716-.L724
	.long .L716-.L724
	.long .L723-.L724
	.section	".text"
.LVL468:
.L4326:
	.loc 1 1389 0
	lis 9,.L1392@ha
	slwi 4,4,2
.LVL469:
	la 9,.L1392@l(9)
	lwzx 0,9,4
	add 9,0,9
	mtctr 9
	bctr
	.section	.rodata
	.align 2
	.align 2
.L1392:
	.long .L1384-.L1392
	.long .L1385-.L1392
	.long .L1386-.L1392
	.long .L1387-.L1392
	.long .L1388-.L1392
	.long .L1389-.L1392
	.long .L1390-.L1392
	.long .L1384-.L1392
	.long .L1384-.L1392
	.long .L1384-.L1392
	.long .L1384-.L1392
	.long .L1384-.L1392
	.long .L1384-.L1392
	.long .L1384-.L1392
	.long .L1384-.L1392
	.long .L1384-.L1392
	.long .L1384-.L1392
	.long .L1384-.L1392
	.long .L1384-.L1392
	.long .L1384-.L1392
	.long .L1384-.L1392
	.long .L1384-.L1392
	.long .L1384-.L1392
	.long .L1384-.L1392
	.long .L1384-.L1392
	.long .L1384-.L1392
	.long .L1384-.L1392
	.long .L1384-.L1392
	.long .L1384-.L1392
	.long .L1384-.L1392
	.long .L1384-.L1392
	.long .L1384-.L1392
	.long .L1384-.L1392
	.long .L1384-.L1392
	.long .L1384-.L1392
	.long .L1384-.L1392
	.long .L1384-.L1392
	.long .L1384-.L1392
	.long .L1384-.L1392
	.long .L1391-.L1392
	.section	".text"
.LVL470:
.L4334:
	.loc 1 1385 0
	lis 9,.L1124@ha
	slwi 4,4,2
.LVL471:
	la 9,.L1124@l(9)
	lwzx 0,9,4
	add 9,0,9
	mtctr 9
	bctr
	.section	.rodata
	.align 2
	.align 2
.L1124:
	.long .L1116-.L1124
	.long .L1117-.L1124
	.long .L1118-.L1124
	.long .L1119-.L1124
	.long .L1120-.L1124
	.long .L1121-.L1124
	.long .L1122-.L1124
	.long .L1116-.L1124
	.long .L1116-.L1124
	.long .L1116-.L1124
	.long .L1116-.L1124
	.long .L1116-.L1124
	.long .L1116-.L1124
	.long .L1116-.L1124
	.long .L1116-.L1124
	.long .L1116-.L1124
	.long .L1116-.L1124
	.long .L1116-.L1124
	.long .L1116-.L1124
	.long .L1116-.L1124
	.long .L1116-.L1124
	.long .L1116-.L1124
	.long .L1116-.L1124
	.long .L1116-.L1124
	.long .L1116-.L1124
	.long .L1116-.L1124
	.long .L1116-.L1124
	.long .L1116-.L1124
	.long .L1116-.L1124
	.long .L1116-.L1124
	.long .L1116-.L1124
	.long .L1116-.L1124
	.long .L1116-.L1124
	.long .L1116-.L1124
	.long .L1116-.L1124
	.long .L1116-.L1124
	.long .L1116-.L1124
	.long .L1116-.L1124
	.long .L1116-.L1124
	.long .L1123-.L1124
	.section	".text"
.LVL472:
.L4336:
	.loc 1 1391 0
	lis 9,.L1526@ha
	slwi 4,4,2
.LVL473:
	la 9,.L1526@l(9)
	lwzx 0,9,4
	add 9,0,9
	mtctr 9
	bctr
	.section	.rodata
	.align 2
	.align 2
.L1526:
	.long .L1518-.L1526
	.long .L1519-.L1526
	.long .L1520-.L1526
	.long .L1521-.L1526
	.long .L1522-.L1526
	.long .L1523-.L1526
	.long .L1524-.L1526
	.long .L1518-.L1526
	.long .L1518-.L1526
	.long .L1518-.L1526
	.long .L1518-.L1526
	.long .L1518-.L1526
	.long .L1518-.L1526
	.long .L1518-.L1526
	.long .L1518-.L1526
	.long .L1518-.L1526
	.long .L1518-.L1526
	.long .L1518-.L1526
	.long .L1518-.L1526
	.long .L1518-.L1526
	.long .L1518-.L1526
	.long .L1518-.L1526
	.long .L1518-.L1526
	.long .L1518-.L1526
	.long .L1518-.L1526
	.long .L1518-.L1526
	.long .L1518-.L1526
	.long .L1518-.L1526
	.long .L1518-.L1526
	.long .L1518-.L1526
	.long .L1518-.L1526
	.long .L1518-.L1526
	.long .L1518-.L1526
	.long .L1518-.L1526
	.long .L1518-.L1526
	.long .L1518-.L1526
	.long .L1518-.L1526
	.long .L1518-.L1526
	.long .L1518-.L1526
	.long .L1525-.L1526
	.section	".text"
.LVL474:
.L4335:
	.loc 1 1377 0
	lis 9,.L592@ha
	slwi 4,4,2
.LVL475:
	la 9,.L592@l(9)
	lwzx 0,9,4
	add 9,0,9
	mtctr 9
	bctr
	.section	.rodata
	.align 2
	.align 2
.L592:
	.long .L584-.L592
	.long .L585-.L592
	.long .L586-.L592
	.long .L587-.L592
	.long .L588-.L592
	.long .L589-.L592
	.long .L590-.L592
	.long .L584-.L592
	.long .L584-.L592
	.long .L584-.L592
	.long .L584-.L592
	.long .L584-.L592
	.long .L584-.L592
	.long .L584-.L592
	.long .L584-.L592
	.long .L584-.L592
	.long .L584-.L592
	.long .L584-.L592
	.long .L584-.L592
	.long .L584-.L592
	.long .L584-.L592
	.long .L584-.L592
	.long .L584-.L592
	.long .L584-.L592
	.long .L584-.L592
	.long .L584-.L592
	.long .L584-.L592
	.long .L584-.L592
	.long .L584-.L592
	.long .L584-.L592
	.long .L584-.L592
	.long .L584-.L592
	.long .L584-.L592
	.long .L584-.L592
	.long .L584-.L592
	.long .L584-.L592
	.long .L584-.L592
	.long .L584-.L592
	.long .L584-.L592
	.long .L591-.L592
	.section	".text"
.LVL476:
.L4327:
	.loc 1 1381 0
	lis 9,.L856@ha
	slwi 4,4,2
.LVL477:
	la 9,.L856@l(9)
	lwzx 0,9,4
	add 9,0,9
	mtctr 9
	bctr
	.section	.rodata
	.align 2
	.align 2
.L856:
	.long .L848-.L856
	.long .L849-.L856
	.long .L850-.L856
	.long .L851-.L856
	.long .L852-.L856
	.long .L853-.L856
	.long .L854-.L856
	.long .L848-.L856
	.long .L848-.L856
	.long .L848-.L856
	.long .L848-.L856
	.long .L848-.L856
	.long .L848-.L856
	.long .L848-.L856
	.long .L848-.L856
	.long .L848-.L856
	.long .L848-.L856
	.long .L848-.L856
	.long .L848-.L856
	.long .L848-.L856
	.long .L848-.L856
	.long .L848-.L856
	.long .L848-.L856
	.long .L848-.L856
	.long .L848-.L856
	.long .L848-.L856
	.long .L848-.L856
	.long .L848-.L856
	.long .L848-.L856
	.long .L848-.L856
	.long .L848-.L856
	.long .L848-.L856
	.long .L848-.L856
	.long .L848-.L856
	.long .L848-.L856
	.long .L848-.L856
	.long .L848-.L856
	.long .L848-.L856
	.long .L848-.L856
	.long .L855-.L856
	.section	".text"
.LVL478:
.L4324:
	.loc 1 1387 0
	lis 9,.L1258@ha
	slwi 4,4,2
.LVL479:
	la 9,.L1258@l(9)
	lwzx 0,9,4
	add 9,0,9
	mtctr 9
	bctr
	.section	.rodata
	.align 2
	.align 2
.L1258:
	.long .L1250-.L1258
	.long .L1251-.L1258
	.long .L1252-.L1258
	.long .L1253-.L1258
	.long .L1254-.L1258
	.long .L1255-.L1258
	.long .L1256-.L1258
	.long .L1250-.L1258
	.long .L1250-.L1258
	.long .L1250-.L1258
	.long .L1250-.L1258
	.long .L1250-.L1258
	.long .L1250-.L1258
	.long .L1250-.L1258
	.long .L1250-.L1258
	.long .L1250-.L1258
	.long .L1250-.L1258
	.long .L1250-.L1258
	.long .L1250-.L1258
	.long .L1250-.L1258
	.long .L1250-.L1258
	.long .L1250-.L1258
	.long .L1250-.L1258
	.long .L1250-.L1258
	.long .L1250-.L1258
	.long .L1250-.L1258
	.long .L1250-.L1258
	.long .L1250-.L1258
	.long .L1250-.L1258
	.long .L1250-.L1258
	.long .L1250-.L1258
	.long .L1250-.L1258
	.long .L1250-.L1258
	.long .L1250-.L1258
	.long .L1250-.L1258
	.long .L1250-.L1258
	.long .L1250-.L1258
	.long .L1250-.L1258
	.long .L1250-.L1258
	.long .L1257-.L1258
	.section	".text"
.LVL480:
.L4312:
	.loc 1 1373 0
	lis 9,.L328@ha
	slwi 4,4,2
.LVL481:
	la 9,.L328@l(9)
	lwzx 0,9,4
	add 9,0,9
	mtctr 9
	bctr
	.section	.rodata
	.align 2
	.align 2
.L328:
	.long .L320-.L328
	.long .L321-.L328
	.long .L322-.L328
	.long .L323-.L328
	.long .L324-.L328
	.long .L325-.L328
	.long .L326-.L328
	.long .L320-.L328
	.long .L320-.L328
	.long .L320-.L328
	.long .L320-.L328
	.long .L320-.L328
	.long .L320-.L328
	.long .L320-.L328
	.long .L320-.L328
	.long .L320-.L328
	.long .L320-.L328
	.long .L320-.L328
	.long .L320-.L328
	.long .L320-.L328
	.long .L320-.L328
	.long .L320-.L328
	.long .L320-.L328
	.long .L320-.L328
	.long .L320-.L328
	.long .L320-.L328
	.long .L320-.L328
	.long .L320-.L328
	.long .L320-.L328
	.long .L320-.L328
	.long .L320-.L328
	.long .L320-.L328
	.long .L320-.L328
	.long .L320-.L328
	.long .L320-.L328
	.long .L320-.L328
	.long .L320-.L328
	.long .L320-.L328
	.long .L320-.L328
	.long .L327-.L328
	.section	".text"
.LVL482:
.L4311:
	.loc 1 1383 0
	lis 9,.L990@ha
	slwi 4,4,2
.LVL483:
	la 9,.L990@l(9)
	lwzx 0,9,4
	add 9,0,9
	mtctr 9
	bctr
	.section	.rodata
	.align 2
	.align 2
.L990:
	.long .L982-.L990
	.long .L983-.L990
	.long .L984-.L990
	.long .L985-.L990
	.long .L986-.L990
	.long .L987-.L990
	.long .L988-.L990
	.long .L982-.L990
	.long .L982-.L990
	.long .L982-.L990
	.long .L982-.L990
	.long .L982-.L990
	.long .L982-.L990
	.long .L982-.L990
	.long .L982-.L990
	.long .L982-.L990
	.long .L982-.L990
	.long .L982-.L990
	.long .L982-.L990
	.long .L982-.L990
	.long .L982-.L990
	.long .L982-.L990
	.long .L982-.L990
	.long .L982-.L990
	.long .L982-.L990
	.long .L982-.L990
	.long .L982-.L990
	.long .L982-.L990
	.long .L982-.L990
	.long .L982-.L990
	.long .L982-.L990
	.long .L982-.L990
	.long .L982-.L990
	.long .L982-.L990
	.long .L982-.L990
	.long .L982-.L990
	.long .L982-.L990
	.long .L982-.L990
	.long .L982-.L990
	.long .L989-.L990
	.section	".text"
.LVL484:
.L4309:
	.loc 1 1393 0
	lis 9,.L1660@ha
	slwi 4,4,2
.LVL485:
	la 9,.L1660@l(9)
	lwzx 0,9,4
	add 9,0,9
	mtctr 9
	bctr
	.section	.rodata
	.align 2
	.align 2
.L1660:
	.long .L1652-.L1660
	.long .L1653-.L1660
	.long .L1654-.L1660
	.long .L1655-.L1660
	.long .L1656-.L1660
	.long .L1657-.L1660
	.long .L1658-.L1660
	.long .L1652-.L1660
	.long .L1652-.L1660
	.long .L1652-.L1660
	.long .L1652-.L1660
	.long .L1652-.L1660
	.long .L1652-.L1660
	.long .L1652-.L1660
	.long .L1652-.L1660
	.long .L1652-.L1660
	.long .L1652-.L1660
	.long .L1652-.L1660
	.long .L1652-.L1660
	.long .L1652-.L1660
	.long .L1652-.L1660
	.long .L1652-.L1660
	.long .L1652-.L1660
	.long .L1652-.L1660
	.long .L1652-.L1660
	.long .L1652-.L1660
	.long .L1652-.L1660
	.long .L1652-.L1660
	.long .L1652-.L1660
	.long .L1652-.L1660
	.long .L1652-.L1660
	.long .L1652-.L1660
	.long .L1652-.L1660
	.long .L1652-.L1660
	.long .L1652-.L1660
	.long .L1652-.L1660
	.long .L1652-.L1660
	.long .L1652-.L1660
	.long .L1652-.L1660
	.long .L1659-.L1660
	.section	".text"
.LVL486:
.L1924:
	.loc 1 1413 0
	cmplwi 7,4,39
	bgt- 7,$+8
	b .L4345
.L2822:
	.loc 1 1413 0 is_stmt 0 discriminator 1
	lis 3,.LC12@ha
	li 4,1413
	la 3,.LC12@l(3)
	b .L4298
.LVL487:
.L723:
	.loc 1 1379 0 is_stmt 1 discriminator 1
	cmpwi 7,19,0
	ble- 7,.L170
.LBB5072:
	.loc 1 1379 0 is_stmt 0
	mullw 6,27,30
	cmpwi 4,20,0
	cmpwi 1,29,0
	cmpwi 6,30,0
	li 5,0
.LVL488:
	li 4,0
.LBB5073:
.LBB5074:
.LBB5075:
.LBB5076:
	.loc 1 122 0 is_stmt 1
	li 7,-1
.LVL489:
.L725:
.LBE5076:
.LBE5075:
.LBE5074:
.LBE5073:
.LBE5072:
	.loc 1 1379 0 discriminator 1
	ble- 4,.L752
	.loc 1 1379 0 is_stmt 0
	li 11,0
	li 3,0
.LBB5089:
	.loc 1 1065 0 is_stmt 1
	add 8,5,29
.LVL490:
.L755:
.LBE5089:
	.loc 1 1379 0 discriminator 1
	beq- 1,.L753
.LBB5090:
	.loc 1 1379 0 is_stmt 0
	cmplw 7,5,23
	bgt- 7,.L170
	addi 10,5,1
	mr 0,5
.LVL491:
.L754:
	.loc 1 1379 0 discriminator 2
	cmplw 7,24,0
	bgt- 7,.L744
.LVL492:
	.loc 1 1379 0 discriminator 1
	li 0,0
	.loc 1 1065 0 is_stmt 1 discriminator 1
	li 9,0
	.loc 1 1379 0 discriminator 1
	beq- 6,.L746
.LBB5085:
.LBB5081:
.LBB5079:
.LBB5077:
	.loc 1 122 0 discriminator 2
	mtctr 30
.LVL493:
.L3756:
.LBE5077:
.LBE5079:
.LBE5081:
	.loc 1 1379 0 discriminator 2
	add 0,11,0
.LVL494:
	cmplw 7,28,0
	bgt- 7,.L747
	cmplw 7,0,26
	ble- 7,.L748
.L747:
.LVL495:
.LBB5082:
.LBB5083:
	.loc 2 350 0
	add 31,31,27
.LVL496:
.L749:
.LBE5083:
.LBE5082:
.LBE5085:
	.loc 1 1379 0 discriminator 13
	addi 9,9,1
.LVL497:
	mr 0,9
.LVL498:
	bdnz .L3756
.LVL499:
.L746:
.LBE5090:
	.loc 1 1379 0 is_stmt 0 discriminator 12
	cmpw 7,10,8
	beq- 7,.L753
.LVL500:
.LBB5091:
	.loc 1 1379 0 discriminator 2
	cmplw 7,10,23
.LBE5091:
	addi 9,10,1
.LBB5092:
	bgt- 7,.L170
	.loc 1 1379 0
	mr 0,10
	mr 10,9
.LVL501:
	b .L754
.LVL502:
.L748:
.LBB5086:
.LBB5084:
.LBB5080:
.LBB5078:
	.loc 1 122 0 is_stmt 1 discriminator 2
	stb 7,0(31)
	addi 31,31,1
.LVL503:
	b .L749
.LVL504:
.L722:
.LBE5078:
.LBE5080:
.LBE5084:
.LBE5086:
.LBE5092:
	.loc 1 1379 0 discriminator 1
	cmpwi 7,19,0
	ble- 7,.L170
.LBB5093:
	.loc 1 1379 0 is_stmt 0
	mullw 3,27,30
.LVL505:
	li 4,0
	cmpwi 4,20,0
	stw 4,3080(1)
	cmpwi 0,29,0
	cmpwi 1,30,0
.LBB5094:
	cmpwi 6,15,0
.LBE5094:
	li 5,0
.LVL506:
.LBB5117:
.LBB5095:
.LBB5096:
.LBB5097:
	.loc 1 122 0 is_stmt 1
	li 4,-1
.LBE5097:
.LBE5096:
.LBE5095:
.LBB5102:
.LBB5103:
	.loc 1 689 0
	lis 10,0x4330
.LVL507:
	lis 7,.LC1@ha
.LVL508:
	lis 8,.LC22@ha
.LVL509:
.LBE5103:
.LBE5102:
.LBE5117:
.LBE5093:
.LBB5124:
.LBB5125:
.LBB5126:
.LBB5127:
	.loc 1 690 0
	lis 18,.LC23@ha
.LVL510:
.L726:
.LBE5127:
.LBE5126:
.LBE5125:
.LBE5124:
	.loc 1 1379 0 discriminator 1
	ble- 4,.L844
	.loc 1 1379 0 is_stmt 0
	li 11,0
	li 16,0
.LBB5151:
	.loc 1 1065 0 is_stmt 1
	add 6,5,29
.LVL511:
.L847:
.LBE5151:
	.loc 1 1379 0 discriminator 1
	beq- 0,.L845
.LBB5152:
	.loc 1 1379 0 is_stmt 0
	cmplw 7,5,23
	bgt- 7,.L170
	addi 15,5,1
	mr 0,5
.LVL512:
.L846:
	.loc 1 1379 0 discriminator 2
	cmplw 7,24,0
	bgt- 7,.L824
.LVL513:
	.loc 1 1379 0 discriminator 1
	beq- 1,.L826
.LBB5118:
	.loc 1 1379 0
	mullw 14,0,22
.LBB5109:
.LBB5104:
	.loc 1 689 0 is_stmt 1
	mtctr 30
.LBE5104:
.LBE5109:
.LBE5118:
	.loc 1 1379 0
	li 0,0
	.loc 1 1065 0
	li 9,0
.LBB5119:
.LBB5110:
.LBB5105:
	.loc 1 687 0
	add 14,21,14
.LVL514:
.L832:
.LBE5105:
.LBE5110:
	.loc 1 1379 0 discriminator 2
	add 0,0,11
.LVL515:
	cmplw 7,28,0
	bgt- 7,.L827
	cmplw 7,0,26
	ble- 7,.L828
.L827:
.LVL516:
.LBB5111:
.LBB5112:
	.loc 2 350 0
	add 31,31,27
.LVL517:
.L829:
.LBE5112:
.LBE5111:
.LBE5119:
	.loc 1 1379 0 discriminator 26
	addi 9,9,1
.LVL518:
	mr 0,9
	bdnz .L832
.LVL519:
.L826:
.LBE5152:
	.loc 1 1379 0 is_stmt 0 discriminator 25
	cmpw 7,15,6
	beq- 7,.L4346
.LVL520:
.LBB5153:
	.loc 1 1379 0 discriminator 2
	cmplw 7,15,23
.LBE5153:
	addi 9,15,1
.LBB5154:
	bgt- 7,.L170
	.loc 1 1379 0
	mr 0,15
	mr 15,9
.LVL521:
	b .L846
.LVL522:
.L828:
.LBB5120:
	.loc 1 1379 0 discriminator 1
	mullw 12,0,25
.LBB5113:
.LBB5106:
	.loc 1 687 0 is_stmt 1 discriminator 1
	lhzx 0,14,12
.LVL523:
.LBE5106:
.LBE5113:
	.loc 1 1379 0 discriminator 1
	bne- 6,.L830
.LBB5114:
.LBB5107:
	.loc 1 691 0
	rlwinm 0,0,0,27,31
.LVL524:
	stw 10,816(1)
	xoris 0,0,0x8000
	lfs 13,.LC1@l(7)
	stw 0,820(1)
	addi 12,1,2784
	lfs 0,.LC22@l(8)
	lfd 12,816(1)
	fsub 13,12,13
	frsp 13,13
	fmuls 0,13,0
	fctiwz 0,0
	stfiwx 0,0,12
	lwz 0,2784(1)
	rlwinm 0,0,0,0xff
.L831:
.LVL525:
.LBE5107:
.LBE5114:
.LBB5115:
.LBB5099:
.LBB5098:
	.loc 1 122 0 discriminator 2
	stb 4,0(31)
.LVL526:
.LBE5098:
.LBE5099:
.LBB5100:
.LBB5101:
	stb 0,1(31)
	addi 31,31,2
.LVL527:
	b .L829
.LVL528:
.L721:
.LBE5101:
.LBE5100:
.LBE5115:
.LBE5120:
.LBE5154:
	.loc 1 1379 0 discriminator 1
	cmpwi 7,19,0
	ble- 7,.L170
.LBB5155:
	.loc 1 1379 0 is_stmt 0
	mullw 14,27,30
	li 5,0
.LVL529:
	stw 5,3084(1)
	cmpwi 4,20,0
	cmpwi 0,29,0
	cmpwi 1,30,0
.LBB5156:
	cmpwi 6,15,0
.LBE5156:
	li 12,0
.LBB5174:
.LBB5157:
.LBB5158:
	.loc 1 689 0 is_stmt 1
	lis 10,0x4330
.LVL530:
	lis 16,.LC1@ha
	lis 17,.LC22@ha
	.loc 1 690 0
	lis 18,.LC23@ha
.LBE5158:
.LBE5157:
.LBB5161:
.LBB5162:
.LBB5163:
	.loc 1 142 0
	li 3,-32768
.LVL531:
.L727:
.LBE5163:
.LBE5162:
.LBE5161:
.LBE5174:
.LBE5155:
	.loc 1 1379 0 discriminator 1
	ble- 4,.L807
	.loc 1 1379 0 is_stmt 0
	li 8,0
	li 0,0
	stw 8,3080(1)
.LBB5180:
	.loc 1 1065 0 is_stmt 1
	add 4,12,29
.LVL532:
.L810:
.LBE5180:
	.loc 1 1379 0 discriminator 1
	beq- 0,.L808
.LBB5181:
	.loc 1 1379 0 is_stmt 0
	cmplw 7,12,23
	bgt- 7,.L170
	addi 11,12,1
	mr 9,12
.LVL533:
.L809:
	.loc 1 1379 0 discriminator 2
	cmplw 7,24,9
	bgt- 7,.L798
.LVL534:
	.loc 1 1379 0 discriminator 1
	beq- 1,.L800
.LBB5175:
	.loc 1 1379 0
	mullw 5,9,22
.LBB5168:
.LBB5166:
.LBB5164:
	.loc 1 142 0 is_stmt 1
	mtctr 30
.LBE5164:
.LBE5166:
.LBE5168:
.LBE5175:
	.loc 1 1379 0
	li 8,0
	.loc 1 1065 0
	li 9,0
.LBB5176:
.LBB5169:
.LBB5159:
	.loc 1 687 0
	add 5,21,5
.LVL535:
.L805:
.LBE5159:
.LBE5169:
	.loc 1 1379 0 discriminator 2
	add 8,0,8
.LVL536:
	cmplw 7,28,8
	bgt- 7,.L801
	cmplw 7,8,26
	ble- 7,.L802
.L801:
.LVL537:
.LBB5170:
.LBB5171:
	.loc 2 350 0
	add 31,31,27
.LVL538:
.L803:
.LBE5171:
.LBE5170:
.LBE5176:
	.loc 1 1379 0 discriminator 22
	addi 9,9,1
.LVL539:
	mr 8,9
	bdnz .L805
.LVL540:
.L800:
.LBE5181:
	.loc 1 1379 0 is_stmt 0 discriminator 21
	cmpw 7,11,4
	beq- 7,.L808
.LVL541:
.LBB5182:
	.loc 1 1379 0 discriminator 2
	cmplw 7,23,11
.LBE5182:
	addi 8,11,1
.LBB5183:
	blt- 7,.L170
	.loc 1 1379 0
	mr 9,11
	mr 11,8
.LVL542:
	b .L809
.LVL543:
.L802:
.LBB5177:
	.loc 1 1379 0 discriminator 1
	mullw 8,8,25
.LVL544:
.LBB5172:
.LBB5160:
	.loc 1 689 0 is_stmt 1 discriminator 1
	lfs 0,.LC1@l(16)
	lfs 13,.LC22@l(17)
	.loc 1 690 0 discriminator 1
	addi 15,1,2804
	lfs 10,.LC23@l(18)
	.loc 1 687 0 discriminator 1
	lhzx 8,5,8
.LVL545:
	.loc 1 689 0 discriminator 1
	stw 10,768(1)
	srwi 6,8,11
	.loc 1 690 0 discriminator 1
	rlwinm 7,8,27,26,31
	.loc 1 691 0 discriminator 1
	rlwinm 8,8,0,27,31
.LVL546:
	.loc 1 689 0 discriminator 1
	xoris 6,6,0x8000
	.loc 1 690 0 discriminator 1
	xoris 7,7,0x8000
	.loc 1 691 0 discriminator 1
	xoris 8,8,0x8000
	.loc 1 689 0 discriminator 1
	stw 6,772(1)
	.loc 1 691 0 discriminator 1
	addi 6,1,2808
	.loc 1 690 0 discriminator 1
	stw 7,780(1)
	.loc 1 691 0 discriminator 1
	stw 8,788(1)
	.loc 1 689 0 discriminator 1
	addi 8,1,2800
	.loc 1 690 0 discriminator 1
	stw 10,776(1)
	.loc 1 691 0 discriminator 1
	stw 10,784(1)
	.loc 1 689 0 discriminator 1
	lfd 12,768(1)
	.loc 1 690 0 discriminator 1
	lfd 9,776(1)
	.loc 1 691 0 discriminator 1
	lfd 11,784(1)
	.loc 1 689 0 discriminator 1
	fsub 12,12,0
	.loc 1 690 0 discriminator 1
	fsub 9,9,0
	.loc 1 691 0 discriminator 1
	fsub 11,11,0
	.loc 1 689 0 discriminator 1
	frsp 12,12
	.loc 1 690 0 discriminator 1
	frsp 0,9
	.loc 1 691 0 discriminator 1
	frsp 11,11
	.loc 1 689 0 discriminator 1
	fmuls 12,12,13
	.loc 1 690 0 discriminator 1
	fmuls 0,0,10
	.loc 1 691 0 discriminator 1
	fmuls 13,11,13
	.loc 1 689 0 discriminator 1
	fctiwz 12,12
	.loc 1 690 0 discriminator 1
	fctiwz 0,0
	.loc 1 691 0 discriminator 1
	fctiwz 13,13
	.loc 1 689 0 discriminator 1
	stfiwx 12,0,8
	.loc 1 690 0 discriminator 1
	stfiwx 0,0,15
	.loc 1 691 0 discriminator 1
	stfiwx 13,0,6
	.loc 1 689 0 discriminator 1
	lwz 7,2800(1)
	.loc 1 690 0 discriminator 1
	lwz 6,2804(1)
	.loc 1 691 0 discriminator 1
	lwz 8,2808(1)
	.loc 1 689 0 discriminator 1
	rlwinm 7,7,0,0xff
.LVL547:
	.loc 1 690 0 discriminator 1
	rlwinm 6,6,0,0xff
	.loc 1 691 0 discriminator 1
	rlwinm 8,8,0,0xff
.LVL548:
.LBE5160:
.LBE5172:
	.loc 1 1379 0 discriminator 1
	beq- 6,.L804
	.loc 1 1379 0 is_stmt 0
	mr 15,8
	mr 8,7
.LVL549:
	mr 7,15
.LVL550:
.L804:
.LBB5173:
.LBB5167:
.LBB5165:
	.loc 1 142 0 is_stmt 1 discriminator 2
	rlwinm 6,6,2,22,26
	srwi 7,7,3
.LVL551:
	or 6,6,3
	rlwinm 8,8,7,17,21
.LVL552:
	or 7,6,7
	or 8,7,8
	.loc 1 149 0 discriminator 2
	sth 8,0(31)
	addi 31,31,2
.LVL553:
	b .L803
.LVL554:
.L720:
.LBE5165:
.LBE5167:
.LBE5173:
.LBE5177:
.LBE5183:
	.loc 1 1379 0 discriminator 1
	cmpwi 7,19,0
	ble- 7,.L170
.LBB5184:
	.loc 1 1379 0 is_stmt 0
	mullw 14,27,30
	li 6,0
	stw 6,3080(1)
	cmpwi 4,20,0
	cmpwi 0,29,0
	cmpwi 1,30,0
.LBB5185:
	cmpwi 6,15,0
.LBE5185:
	li 12,0
.LBB5197:
.LBB5186:
.LBB5187:
	.loc 1 689 0 is_stmt 1
	lis 10,0x4330
.LVL555:
	lis 17,.LC1@ha
	lis 18,.LC22@ha
	.loc 1 690 0
	lis 3,.LC23@ha
.LVL556:
.L728:
.LBE5187:
.LBE5186:
.LBE5197:
.LBE5184:
	.loc 1 1379 0 discriminator 1
	ble- 4,.L820
	.loc 1 1379 0 is_stmt 0
	li 0,0
	li 15,0
.LBB5203:
	.loc 1 1065 0 is_stmt 1
	add 4,12,29
.LVL557:
.L823:
.LBE5203:
	.loc 1 1379 0 discriminator 1
	beq- 0,.L821
.LBB5204:
	.loc 1 1379 0 is_stmt 0
	cmplw 7,12,23
	bgt- 7,.L170
	addi 11,12,1
	mr 9,12
.LVL558:
.L822:
	.loc 1 1379 0 discriminator 2
	cmplw 7,24,9
	bgt- 7,.L811
.LVL559:
	.loc 1 1379 0 discriminator 1
	beq- 1,.L813
.LBB5198:
	.loc 1 1379 0
	mullw 5,9,22
	mtctr 30
.LBE5198:
	li 8,0
	.loc 1 1065 0 is_stmt 1
	li 9,0
.LBB5199:
.LBB5190:
.LBB5188:
	.loc 1 687 0
	add 5,21,5
.LVL560:
.L818:
.LBE5188:
.LBE5190:
	.loc 1 1379 0 discriminator 2
	add 8,8,0
.LVL561:
	cmplw 7,28,8
	bgt- 7,.L814
	cmplw 7,8,26
	ble- 7,.L815
.L814:
.LVL562:
.LBB5191:
.LBB5192:
	.loc 2 350 0
	add 31,31,27
.LVL563:
.L816:
.LBE5192:
.LBE5191:
.LBE5199:
	.loc 1 1379 0 discriminator 24
	addi 9,9,1
.LVL564:
	mr 8,9
	bdnz .L818
.LVL565:
.L813:
.LBE5204:
	.loc 1 1379 0 is_stmt 0 discriminator 23
	cmpw 7,11,4
	beq- 7,.L821
.LVL566:
.LBB5205:
	.loc 1 1379 0 discriminator 2
	cmplw 7,23,11
.LBE5205:
	addi 8,11,1
.LBB5206:
	blt- 7,.L170
	.loc 1 1379 0
	mr 9,11
	mr 11,8
.LVL567:
	b .L822
.LVL568:
.L815:
.LBB5200:
	.loc 1 1379 0 discriminator 1
	mullw 8,8,25
.LVL569:
.LBB5193:
.LBB5189:
	.loc 1 689 0 is_stmt 1 discriminator 1
	lfs 0,.LC1@l(17)
	lfs 13,.LC22@l(18)
	.loc 1 690 0 discriminator 1
	lfs 10,.LC23@l(3)
	.loc 1 687 0 discriminator 1
	lhzx 8,5,8
.LVL570:
	.loc 1 689 0 discriminator 1
	stw 10,792(1)
	srwi 6,8,11
	.loc 1 690 0 discriminator 1
	rlwinm 7,8,27,26,31
	.loc 1 691 0 discriminator 1
	rlwinm 8,8,0,27,31
.LVL571:
	.loc 1 689 0 discriminator 1
	xoris 6,6,0x8000
	.loc 1 690 0 discriminator 1
	xoris 7,7,0x8000
	.loc 1 691 0 discriminator 1
	xoris 8,8,0x8000
	.loc 1 689 0 discriminator 1
	stw 6,796(1)
	addi 6,1,2788
	.loc 1 690 0 discriminator 1
	stw 7,804(1)
	addi 7,1,2792
	.loc 1 691 0 discriminator 1
	stw 8,812(1)
	addi 8,1,2796
	.loc 1 690 0 discriminator 1
	stw 10,800(1)
	.loc 1 691 0 discriminator 1
	stw 10,808(1)
	.loc 1 689 0 discriminator 1
	lfd 12,792(1)
	.loc 1 690 0 discriminator 1
	lfd 9,800(1)
	.loc 1 691 0 discriminator 1
	lfd 11,808(1)
	.loc 1 689 0 discriminator 1
	fsub 12,12,0
	.loc 1 690 0 discriminator 1
	fsub 9,9,0
	.loc 1 691 0 discriminator 1
	fsub 11,11,0
	.loc 1 689 0 discriminator 1
	frsp 12,12
	.loc 1 690 0 discriminator 1
	frsp 0,9
	.loc 1 691 0 discriminator 1
	frsp 11,11
	.loc 1 689 0 discriminator 1
	fmuls 12,12,13
	.loc 1 690 0 discriminator 1
	fmuls 0,0,10
	.loc 1 691 0 discriminator 1
	fmuls 13,11,13
	.loc 1 689 0 discriminator 1
	fctiwz 12,12
	.loc 1 690 0 discriminator 1
	fctiwz 0,0
	.loc 1 691 0 discriminator 1
	fctiwz 13,13
	.loc 1 689 0 discriminator 1
	stfiwx 12,0,6
	.loc 1 690 0 discriminator 1
	stfiwx 0,0,7
	.loc 1 691 0 discriminator 1
	stfiwx 13,0,8
	.loc 1 689 0 discriminator 1
	lwz 7,2788(1)
	.loc 1 690 0 discriminator 1
	lwz 6,2792(1)
	.loc 1 691 0 discriminator 1
	lwz 8,2796(1)
	.loc 1 689 0 discriminator 1
	rlwinm 7,7,0,0xff
.LVL572:
	.loc 1 690 0 discriminator 1
	rlwinm 6,6,0,0xff
	.loc 1 691 0 discriminator 1
	rlwinm 8,8,0,0xff
.LVL573:
.LBE5189:
.LBE5193:
	.loc 1 1379 0 discriminator 1
	beq- 6,.L817
	.loc 1 1379 0 is_stmt 0
	mr 16,8
	mr 8,7
.LVL574:
	mr 7,16
.LVL575:
.L817:
.LBB5194:
.LBB5195:
.LBB5196:
	.loc 1 130 0 is_stmt 1 discriminator 2
	srwi 7,7,3
.LVL576:
	rlwinm 6,6,3,21,26
	or 7,7,6
	rlwinm 8,8,8,16,20
.LVL577:
	or 8,7,8
	.loc 1 132 0 discriminator 2
	sth 8,0(31)
	addi 31,31,2
.LVL578:
	b .L816
.LVL579:
.L719:
.LBE5196:
.LBE5195:
.LBE5194:
.LBE5200:
.LBE5206:
	.loc 1 1379 0 discriminator 4
	cmpwi 7,18,6406
	bne+ 7,$+8
	b .L4347
.LVL580:
	.loc 1 1379 0 is_stmt 0 discriminator 1
	cmpwi 7,19,0
	ble- 7,.L170
.LBB5207:
	.loc 1 1379 0
	mullw 6,27,30
	li 7,0
.LVL581:
	li 8,0
.LVL582:
	stw 7,3084(1)
	stw 8,3092(1)
	cmpwi 4,20,0
	cmpwi 0,29,0
	stw 6,3080(1)
	cmpwi 1,30,0
.LBB5208:
	cmpwi 6,15,0
.LBB5209:
.LBB5210:
	.loc 1 689 0 is_stmt 1
	lis 10,0x4330
.LVL583:
	lis 12,.LC1@ha
	lis 14,.LC22@ha
	.loc 1 690 0
	lis 16,.LC23@ha
.LBE5210:
.LBE5209:
.LBB5213:
.LBB5214:
.LBB5215:
	.loc 1 174 0
	lis 17,.LC9@ha
	lis 18,.LC15@ha
.LBE5215:
.LBE5214:
.LBB5218:
.LBB5219:
	.loc 1 122 0
	li 3,-1
.LVL584:
.L772:
.LBE5219:
.LBE5218:
.LBE5213:
.LBE5208:
.LBE5207:
	.loc 1 1379 0 discriminator 1
	bgt+ 4,$+8
	b .L794
	.loc 1 1379 0 is_stmt 0
	li 11,0
.LBB5239:
	.loc 1 1065 0 is_stmt 1
	lwz 15,3084(1)
.LBE5239:
	.loc 1 1379 0
	stw 11,3088(1)
	li 0,0
.LBB5240:
	.loc 1 1065 0
	add 4,15,29
.LVL585:
.L797:
.LBE5240:
	.loc 1 1379 0 discriminator 1
	bne+ 0,$+8
	b .L795
.LBB5241:
	.loc 1 1379 0 is_stmt 0
	lwz 5,3084(1)
	cmplw 7,5,23
	bgt- 7,.L170
	addi 11,5,1
.LVL586:
.L796:
	.loc 1 1379 0 discriminator 2
	cmplw 7,24,5
	bgt- 7,.L785
.LVL587:
	.loc 1 1379 0 discriminator 1
	beq- 1,.L787
.LBB5234:
	.loc 1 1379 0
	mullw 5,5,22
.LBB5228:
.LBB5223:
.LBB5220:
	.loc 1 122 0 is_stmt 1
	mtctr 30
.LBE5220:
.LBE5223:
.LBE5228:
.LBE5234:
	.loc 1 1379 0
	li 8,0
	.loc 1 1065 0
	li 9,0
.LBB5235:
.LBB5229:
.LBB5211:
	.loc 1 687 0
	add 5,21,5
.LVL588:
.L792:
.LBE5211:
.LBE5229:
	.loc 1 1379 0 discriminator 2
	add 8,8,0
.LVL589:
	cmplw 7,28,8
	bgt- 7,.L788
	cmplw 7,8,26
	ble- 7,.L789
.L788:
.LVL590:
.LBB5230:
.LBB5231:
	.loc 2 350 0
	add 31,31,27
.LVL591:
.L790:
.LBE5231:
.LBE5230:
.LBE5235:
	.loc 1 1379 0 discriminator 20
	addi 9,9,1
.LVL592:
	mr 8,9
	bdnz .L792
.LVL593:
.L787:
.LBE5241:
	.loc 1 1379 0 is_stmt 0 discriminator 19
	cmpw 7,11,4
	bne+ 7,$+8
	b .L795
.LVL594:
.LBB5242:
	.loc 1 1379 0 discriminator 2
	cmplw 7,11,23
.LBE5242:
	addi 9,11,1
.LBB5243:
	bgt- 7,.L170
	.loc 1 1379 0
	mr 5,11
	mr 11,9
.LVL595:
	b .L796
.LVL596:
.L718:
.LBE5243:
	.loc 1 1379 0 discriminator 1
	cmpwi 7,19,0
	ble- 7,.L170
.LBB5244:
	.loc 1 1379 0
	mullw 12,27,30
	li 7,0
.LVL597:
	li 8,0
.LVL598:
	stw 7,3080(1)
	stw 8,3088(1)
	cmpwi 4,20,0
	cmpwi 0,29,0
	cmpwi 1,30,0
.LBB5245:
	cmpwi 6,15,0
.LBB5246:
.LBB5247:
	.loc 1 689 0 is_stmt 1
	lis 10,0x4330
.LVL599:
	lis 14,.LC1@ha
	lis 16,.LC22@ha
	.loc 1 690 0
	lis 17,.LC23@ha
.LBE5247:
.LBE5246:
.LBB5250:
.LBB5251:
.LBB5252:
	.loc 1 174 0
	lis 18,.LC9@ha
	lis 3,.LC15@ha
.LVL600:
.L729:
.LBE5252:
.LBE5251:
.LBE5250:
.LBE5245:
.LBE5244:
	.loc 1 1379 0 discriminator 1
	ble- 4,.L765
	.loc 1 1379 0 is_stmt 0
	li 9,0
.LBB5270:
	.loc 1 1065 0 is_stmt 1
	lwz 11,3080(1)
.LBE5270:
	.loc 1 1379 0
	stw 9,3084(1)
	li 0,0
.LBB5271:
	.loc 1 1065 0
	add 4,11,29
.LVL601:
.L768:
.LBE5271:
	.loc 1 1379 0 discriminator 1
	beq- 0,.L766
.LBB5272:
	.loc 1 1379 0 is_stmt 0
	lwz 15,3080(1)
	cmplw 7,15,23
	bgt- 7,.L170
	addi 11,15,1
	mr 9,15
.LVL602:
.L767:
	.loc 1 1379 0 discriminator 2
	cmplw 7,24,9
	bgt- 7,.L756
.LVL603:
	.loc 1 1379 0 discriminator 1
	beq- 1,.L758
.LBB5265:
	.loc 1 1379 0
	mullw 5,9,22
.LBB5259:
.LBB5255:
.LBB5253:
	.loc 1 174 0 is_stmt 1
	mtctr 30
.LBE5253:
.LBE5255:
.LBE5259:
.LBE5265:
	.loc 1 1379 0
	li 8,0
	.loc 1 1065 0
	li 9,0
.LBB5266:
.LBB5260:
.LBB5248:
	.loc 1 687 0
	add 5,21,5
.LVL604:
.L763:
.LBE5248:
.LBE5260:
	.loc 1 1379 0 discriminator 2
	add 8,8,0
.LVL605:
	cmplw 7,28,8
	bgt- 7,.L759
	cmplw 7,8,26
	ble- 7,.L760
.L759:
.LVL606:
.LBB5261:
.LBB5262:
	.loc 2 350 0
	add 31,31,27
.LVL607:
.L761:
.LBE5262:
.LBE5261:
.LBE5266:
	.loc 1 1379 0 discriminator 15
	addi 9,9,1
.LVL608:
	mr 8,9
	bdnz .L763
.LVL609:
.L758:
.LBE5272:
	.loc 1 1379 0 is_stmt 0 discriminator 14
	cmpw 7,11,4
	beq- 7,.L766
.LVL610:
.LBB5273:
	.loc 1 1379 0 discriminator 2
	cmplw 7,23,11
.LBE5273:
	addi 8,11,1
.LBB5274:
	blt- 7,.L170
	.loc 1 1379 0
	mr 9,11
	mr 11,8
.LVL611:
	b .L767
.LVL612:
.L760:
.LBB5267:
	.loc 1 1379 0 discriminator 1
	mullw 8,8,25
.LVL613:
.LBB5263:
.LBB5249:
	.loc 1 689 0 is_stmt 1 discriminator 1
	lfs 0,.LC1@l(14)
	lfs 13,.LC22@l(16)
	.loc 1 690 0 discriminator 1
	addi 15,1,2836
	lfs 10,.LC23@l(17)
	.loc 1 687 0 discriminator 1
	lhzx 8,5,8
.LVL614:
	.loc 1 689 0 discriminator 1
	stw 10,672(1)
	srwi 6,8,11
	.loc 1 690 0 discriminator 1
	rlwinm 7,8,27,26,31
	.loc 1 691 0 discriminator 1
	rlwinm 8,8,0,27,31
.LVL615:
	.loc 1 689 0 discriminator 1
	xoris 6,6,0x8000
	.loc 1 690 0 discriminator 1
	xoris 7,7,0x8000
	.loc 1 691 0 discriminator 1
	xoris 8,8,0x8000
	.loc 1 689 0 discriminator 1
	stw 6,676(1)
	.loc 1 691 0 discriminator 1
	addi 6,1,2840
	.loc 1 690 0 discriminator 1
	stw 7,684(1)
	.loc 1 691 0 discriminator 1
	stw 8,692(1)
	.loc 1 689 0 discriminator 1
	addi 8,1,2832
	.loc 1 690 0 discriminator 1
	stw 10,680(1)
	.loc 1 691 0 discriminator 1
	stw 10,688(1)
	.loc 1 689 0 discriminator 1
	lfd 12,672(1)
	.loc 1 690 0 discriminator 1
	lfd 9,680(1)
	.loc 1 691 0 discriminator 1
	lfd 11,688(1)
	.loc 1 689 0 discriminator 1
	fsub 12,12,0
	.loc 1 690 0 discriminator 1
	fsub 9,9,0
	.loc 1 691 0 discriminator 1
	fsub 11,11,0
	.loc 1 689 0 discriminator 1
	frsp 12,12
	.loc 1 690 0 discriminator 1
	frsp 0,9
	.loc 1 691 0 discriminator 1
	frsp 11,11
	.loc 1 689 0 discriminator 1
	fmuls 12,12,13
	.loc 1 690 0 discriminator 1
	fmuls 0,0,10
	.loc 1 691 0 discriminator 1
	fmuls 13,11,13
	.loc 1 689 0 discriminator 1
	fctiwz 12,12
	.loc 1 690 0 discriminator 1
	fctiwz 0,0
	.loc 1 691 0 discriminator 1
	fctiwz 13,13
	.loc 1 689 0 discriminator 1
	stfiwx 12,0,8
	.loc 1 690 0 discriminator 1
	stfiwx 0,0,15
	.loc 1 691 0 discriminator 1
	stfiwx 13,0,6
	.loc 1 689 0 discriminator 1
	lwz 8,2832(1)
	.loc 1 690 0 discriminator 1
	lwz 6,2836(1)
	.loc 1 691 0 discriminator 1
	lwz 7,2840(1)
	.loc 1 689 0 discriminator 1
	rlwinm 8,8,0,0xff
.LVL616:
	.loc 1 690 0 discriminator 1
	rlwinm 6,6,0,0xff
	.loc 1 691 0 discriminator 1
	rlwinm 7,7,0,0xff
.LVL617:
.LBE5249:
.LBE5263:
	.loc 1 1379 0 discriminator 1
	beq- 6,.L762
	.loc 1 1379 0 is_stmt 0
	mr 15,7
	mr 7,8
.LVL618:
	mr 8,15
.LVL619:
.L762:
.LBB5264:
.LBB5256:
.LBB5254:
	.loc 1 174 0 is_stmt 1 discriminator 2
	stw 7,700(1)
	addi 7,1,2828
.LVL620:
	stw 10,696(1)
	stw 6,708(1)
	stw 10,704(1)
	lfs 0,.LC9@l(18)
	lfd 11,696(1)
	lfd 12,704(1)
	stw 8,716(1)
	fsub 11,11,0
	stw 10,712(1)
	fsub 12,12,0
	lfd 13,712(1)
	frsp 11,11
	frsp 12,12
	fsub 0,13,0
	lfs 13,.LC15@l(3)
	fadds 12,11,12
	frsp 0,0
	fadds 0,12,0
	fdivs 0,0,13
	fctiwz 0,0
	stfiwx 0,0,7
	lwz 8,2828(1)
.LVL621:
.LBE5254:
.LBE5256:
.LBB5257:
.LBB5258:
	.loc 1 115 0 discriminator 2
	ori 8,8,15
	.loc 1 116 0 discriminator 2
	stb 8,0(31)
	addi 31,31,1
.LVL622:
	b .L761
.LVL623:
.L717:
.LBE5258:
.LBE5257:
.LBE5264:
.LBE5267:
.LBE5274:
	.loc 1 1379 0 discriminator 1
	cmpwi 7,19,0
	ble- 7,.L170
.LBB5275:
	.loc 1 1379 0 is_stmt 0
	mullw 12,27,30
	li 9,0
	li 10,0
.LVL624:
	stw 9,3080(1)
	cmpwi 4,20,0
	stw 10,3088(1)
	cmpwi 0,29,0
	cmpwi 1,30,0
.LBB5276:
	cmpwi 6,15,0
.LBB5277:
.LBB5278:
	.loc 1 689 0 is_stmt 1
	lis 10,0x4330
	lis 14,.LC1@ha
	lis 16,.LC22@ha
	.loc 1 690 0
	lis 17,.LC23@ha
.LBE5278:
.LBE5277:
.LBB5281:
.LBB5282:
.LBB5283:
	.loc 1 174 0
	lis 18,.LC9@ha
	lis 3,.LC15@ha
.LVL625:
.L730:
.LBE5283:
.LBE5282:
.LBE5281:
.LBE5276:
.LBE5275:
	.loc 1 1379 0 discriminator 1
	ble- 4,.L740
	.loc 1 1379 0 is_stmt 0
	li 11,0
.LBB5301:
	.loc 1 1065 0 is_stmt 1
	lwz 15,3080(1)
.LBE5301:
	.loc 1 1379 0
	stw 11,3084(1)
	li 0,0
.LBB5302:
	.loc 1 1065 0
	add 4,15,29
.LVL626:
.L743:
.LBE5302:
	.loc 1 1379 0 discriminator 1
	beq- 0,.L741
.LBB5303:
	.loc 1 1379 0 is_stmt 0
	lwz 5,3080(1)
	cmplw 7,5,23
	bgt- 7,.L170
	addi 11,5,1
	mr 9,5
.LVL627:
.L742:
	.loc 1 1379 0 discriminator 2
	cmplw 7,24,9
	bgt- 7,.L731
.LVL628:
	.loc 1 1379 0 discriminator 1
	beq- 1,.L733
.LBB5296:
	.loc 1 1379 0
	mullw 5,9,22
.LBB5290:
.LBB5286:
.LBB5284:
	.loc 1 174 0 is_stmt 1
	mtctr 30
.LBE5284:
.LBE5286:
.LBE5290:
.LBE5296:
	.loc 1 1379 0
	li 8,0
	.loc 1 1065 0
	li 9,0
.LBB5297:
.LBB5291:
.LBB5279:
	.loc 1 687 0
	add 5,21,5
.LVL629:
.L738:
.LBE5279:
.LBE5291:
	.loc 1 1379 0 discriminator 2
	add 8,0,8
.LVL630:
	cmplw 7,28,8
	bgt- 7,.L734
	cmplw 7,8,26
	ble- 7,.L735
.L734:
.LVL631:
.LBB5292:
.LBB5293:
	.loc 2 350 0
	add 31,31,27
.LVL632:
.L736:
.LBE5293:
.LBE5292:
.LBE5297:
	.loc 1 1379 0 discriminator 10
	addi 9,9,1
.LVL633:
	mr 8,9
	bdnz .L738
.LVL634:
.L733:
.LBE5303:
	.loc 1 1379 0 is_stmt 0 discriminator 9
	cmpw 7,11,4
	beq- 7,.L741
.LVL635:
.LBB5304:
	.loc 1 1379 0 discriminator 2
	cmplw 7,23,11
	addi 8,11,1
	blt- 7,.L170
	.loc 1 1379 0
	mr 9,11
	mr 11,8
.LVL636:
	b .L742
.LVL637:
.L735:
.LBB5298:
	.loc 1 1379 0 discriminator 1
	mullw 8,8,25
.LVL638:
.LBB5294:
.LBB5280:
	.loc 1 689 0 is_stmt 1 discriminator 1
	lfs 0,.LC1@l(14)
	lfs 13,.LC22@l(16)
	addi 15,1,2848
	.loc 1 690 0 discriminator 1
	lfs 10,.LC23@l(17)
	.loc 1 687 0 discriminator 1
	lhzx 8,5,8
.LVL639:
	.loc 1 689 0 discriminator 1
	stw 10,624(1)
	srwi 6,8,11
	.loc 1 690 0 discriminator 1
	rlwinm 7,8,27,26,31
	.loc 1 691 0 discriminator 1
	rlwinm 8,8,0,27,31
.LVL640:
	.loc 1 689 0 discriminator 1
	xoris 6,6,0x8000
	.loc 1 690 0 discriminator 1
	xoris 7,7,0x8000
	.loc 1 691 0 discriminator 1
	xoris 8,8,0x8000
	.loc 1 689 0 discriminator 1
	stw 6,628(1)
	.loc 1 690 0 discriminator 1
	addi 6,1,2852
	stw 7,636(1)
	.loc 1 691 0 discriminator 1
	addi 7,1,2856
	stw 8,644(1)
	.loc 1 690 0 discriminator 1
	stw 10,632(1)
	.loc 1 691 0 discriminator 1
	stw 10,640(1)
	.loc 1 689 0 discriminator 1
	lfd 12,624(1)
	.loc 1 690 0 discriminator 1
	lfd 9,632(1)
	.loc 1 691 0 discriminator 1
	lfd 11,640(1)
	.loc 1 689 0 discriminator 1
	fsub 12,12,0
	.loc 1 690 0 discriminator 1
	fsub 9,9,0
	.loc 1 691 0 discriminator 1
	fsub 11,11,0
	.loc 1 689 0 discriminator 1
	frsp 12,12
	.loc 1 690 0 discriminator 1
	frsp 0,9
	.loc 1 691 0 discriminator 1
	frsp 11,11
	.loc 1 689 0 discriminator 1
	fmuls 12,12,13
	.loc 1 690 0 discriminator 1
	fmuls 0,0,10
	.loc 1 691 0 discriminator 1
	fmuls 13,11,13
	.loc 1 689 0 discriminator 1
	fctiwz 12,12
	.loc 1 690 0 discriminator 1
	fctiwz 0,0
	.loc 1 691 0 discriminator 1
	fctiwz 13,13
	.loc 1 689 0 discriminator 1
	stfiwx 12,0,15
	.loc 1 690 0 discriminator 1
	stfiwx 0,0,6
	.loc 1 691 0 discriminator 1
	stfiwx 13,0,7
	.loc 1 689 0 discriminator 1
	lwz 8,2848(1)
	.loc 1 690 0 discriminator 1
	lwz 6,2852(1)
	.loc 1 691 0 discriminator 1
	lwz 7,2856(1)
	.loc 1 689 0 discriminator 1
	rlwinm 8,8,0,0xff
.LVL641:
	.loc 1 690 0 discriminator 1
	rlwinm 6,6,0,0xff
	.loc 1 691 0 discriminator 1
	rlwinm 7,7,0,0xff
.LVL642:
.LBE5280:
.LBE5294:
	.loc 1 1379 0 discriminator 1
	beq- 6,.L737
	.loc 1 1379 0 is_stmt 0
	mr 15,7
	mr 7,8
.LVL643:
	mr 8,15
.LVL644:
.L737:
.LBB5295:
.LBB5287:
.LBB5285:
	.loc 1 174 0 is_stmt 1 discriminator 2
	stw 7,652(1)
	stw 10,648(1)
	stw 6,660(1)
	stw 10,656(1)
	lfs 0,.LC9@l(18)
	lfd 11,648(1)
	lfd 12,656(1)
	stw 8,668(1)
	fsub 11,11,0
	stw 10,664(1)
	fsub 12,12,0
	addi 8,1,2844
.LVL645:
	lfd 13,664(1)
	frsp 11,11
	frsp 12,12
	fsub 0,13,0
	lfs 13,.LC15@l(3)
	fadds 12,11,12
	frsp 0,0
	fadds 0,12,0
	fdivs 0,0,13
	fctiwz 0,0
	stfiwx 0,0,8
	lwz 8,2844(1)
	stb 8,0(31)
.LBE5285:
.LBE5287:
.LBB5288:
.LBB5289:
	.loc 1 122 0 discriminator 2
	addi 31,31,1
.LVL646:
	b .L736
.LVL647:
.L590:
.LBE5289:
.LBE5288:
.LBE5295:
.LBE5298:
.LBE5304:
	.loc 1 1377 0 discriminator 1
	cmpwi 7,19,0
	ble- 7,.L170
.LBB5305:
	.loc 1 1377 0 is_stmt 0
	mullw 3,27,30
.LVL648:
	li 4,0
	cmpwi 4,20,0
	stw 4,3080(1)
	cmpwi 0,29,0
	cmpwi 1,30,0
.LBB5306:
	cmpwi 6,15,0
.LBE5306:
	li 5,0
.LVL649:
.LBB5329:
.LBB5307:
.LBB5308:
.LBB5309:
	.loc 1 122 0 is_stmt 1
	li 4,-1
.LBE5309:
.LBE5308:
.LBE5307:
.LBB5314:
.LBB5315:
	.loc 1 682 0
	lis 10,0x4330
.LVL650:
	lis 7,.LC1@ha
.LVL651:
	lis 8,.LC22@ha
.LVL652:
.LBE5315:
.LBE5314:
.LBE5329:
.LBE5305:
.LBB5336:
.LBB5337:
.LBB5338:
.LBB5339:
	.loc 1 681 0
	lis 18,.LC23@ha
.LVL653:
.L594:
.LBE5339:
.LBE5338:
.LBE5337:
.LBE5336:
	.loc 1 1377 0 discriminator 1
	ble- 4,.L712
	.loc 1 1377 0 is_stmt 0
	li 11,0
	li 16,0
.LBB5363:
	.loc 1 1065 0 is_stmt 1
	add 6,5,29
.LVL654:
.L715:
.LBE5363:
	.loc 1 1377 0 discriminator 1
	beq- 0,.L713
.LBB5364:
	.loc 1 1377 0 is_stmt 0
	cmplw 7,5,23
	bgt- 7,.L170
	addi 15,5,1
	mr 0,5
.LVL655:
.L714:
	.loc 1 1377 0 discriminator 2
	cmplw 7,24,0
	bgt- 7,.L692
.LVL656:
	.loc 1 1377 0 discriminator 1
	beq- 1,.L694
.LBB5330:
	.loc 1 1377 0
	mullw 14,0,22
.LBB5321:
.LBB5316:
	.loc 1 682 0 is_stmt 1
	mtctr 30
.LBE5316:
.LBE5321:
.LBE5330:
	.loc 1 1377 0
	li 0,0
	.loc 1 1065 0
	li 9,0
.LBB5331:
.LBB5322:
.LBB5317:
	.loc 1 678 0
	add 14,21,14
.LVL657:
.L700:
.LBE5317:
.LBE5322:
	.loc 1 1377 0 discriminator 2
	add 0,11,0
.LVL658:
	cmplw 7,28,0
	bgt- 7,.L695
	cmplw 7,0,26
	ble- 7,.L696
.L695:
.LVL659:
.LBB5323:
.LBB5324:
	.loc 2 350 0
	add 31,31,27
.LVL660:
.L697:
.LBE5324:
.LBE5323:
.LBE5331:
	.loc 1 1377 0 discriminator 26
	addi 9,9,1
.LVL661:
	mr 0,9
	bdnz .L700
.LVL662:
.L694:
.LBE5364:
	.loc 1 1377 0 is_stmt 0 discriminator 25
	cmpw 7,15,6
	beq- 7,.L4348
.LVL663:
.LBB5365:
	.loc 1 1377 0 discriminator 2
	cmplw 7,23,15
.LBE5365:
	addi 9,15,1
.LBB5366:
	blt- 7,.L170
	.loc 1 1377 0
	mr 0,15
	mr 15,9
.LVL664:
	b .L714
.LVL665:
.L696:
.LBB5332:
	.loc 1 1377 0 discriminator 1
	mullw 12,0,25
.LBB5325:
.LBB5318:
	.loc 1 678 0 is_stmt 1 discriminator 1
	lhzx 0,14,12
.LVL666:
.LBE5318:
.LBE5325:
	.loc 1 1377 0 discriminator 1
	bne- 6,.L698
.LBB5326:
.LBB5319:
	.loc 1 680 0
	srwi 0,0,11
.LVL667:
	stw 10,584(1)
	xoris 0,0,0x8000
	lfs 13,.LC1@l(7)
	stw 0,588(1)
	addi 12,1,2876
	lfs 0,.LC22@l(8)
	lfd 12,584(1)
	fsub 13,12,13
	frsp 13,13
	fmuls 0,13,0
	fctiwz 0,0
	stfiwx 0,0,12
	lwz 0,2876(1)
	rlwinm 0,0,0,0xff
.L699:
.LVL668:
.LBE5319:
.LBE5326:
.LBB5327:
.LBB5311:
.LBB5310:
	.loc 1 122 0 discriminator 2
	stb 4,0(31)
.LVL669:
.LBE5310:
.LBE5311:
.LBB5312:
.LBB5313:
	stb 0,1(31)
	addi 31,31,2
.LVL670:
	b .L697
.LVL671:
.L1659:
.LBE5313:
.LBE5312:
.LBE5327:
.LBE5332:
.LBE5366:
	.loc 1 1393 0 discriminator 1
	cmpwi 7,19,0
	ble- 7,.L170
.LBB5367:
	.loc 1 1393 0 is_stmt 0
	mullw 6,27,30
	cmpwi 4,20,0
	cmpwi 1,29,0
	cmpwi 6,30,0
	li 5,0
.LVL672:
	li 4,0
.LVL673:
.L1661:
.LBE5367:
	.loc 1 1393 0 discriminator 1
	ble- 4,.L1688
	.loc 1 1393 0
	li 11,0
	li 3,0
.LBB5382:
	.loc 1 1065 0 is_stmt 1
	add 7,5,29
.LVL674:
.L1691:
.LBE5382:
	.loc 1 1393 0 discriminator 1
	beq- 1,.L1689
.LBB5383:
	.loc 1 1393 0 is_stmt 0
	cmplw 7,5,23
	bgt- 7,.L170
	addi 10,5,1
	mr 0,5
.LVL675:
.L1690:
	.loc 1 1393 0 discriminator 2
	cmplw 7,24,0
	bgt- 7,.L1680
.LVL676:
	.loc 1 1393 0 discriminator 1
	beq- 6,.L1682
.LBB5368:
	.loc 1 1393 0
	mullw 18,0,22
.LBE5368:
	.loc 1 1065 0 is_stmt 1
	li 9,0
	.loc 1 1393 0
	li 0,0
.LBB5378:
.LBB5369:
.LBB5370:
	.loc 1 750 0
	mtctr 30
	add 18,21,18
	b .L1686
.LVL677:
.L4349:
.LBE5370:
.LBE5369:
	.loc 1 1393 0 discriminator 2
	cmplw 7,0,26
	bgt- 7,.L1683
.LVL678:
	.loc 1 1393 0 is_stmt 0 discriminator 1
	mullw 8,0,25
.LBB5372:
.LBB5371:
	.loc 1 755 0 is_stmt 1 discriminator 1
	lwzx 0,18,8
.LVL679:
	rlwinm 0,0,0,30,31
	mulli 0,0,85
.LBE5371:
.LBE5372:
.LBB5373:
.LBB5374:
.LBB5375:
	.loc 1 122 0 discriminator 1
	stb 0,0(31)
	addi 31,31,1
.LVL680:
.L1685:
.LBE5375:
.LBE5374:
.LBE5373:
.LBE5378:
	.loc 1 1393 0 discriminator 13
	addi 9,9,1
.LVL681:
	mr 0,9
	bdz .L1682
.LVL682:
.L1686:
.LBB5379:
	.loc 1 1393 0 is_stmt 0 discriminator 2
	add 0,11,0
.LVL683:
	cmplw 7,28,0
	ble- 7,.L4349
.L1683:
.LVL684:
.LBB5376:
.LBB5377:
	.loc 2 350 0 is_stmt 1
	add 31,31,27
.LVL685:
.LBE5377:
.LBE5376:
	.loc 1 1393 0
	b .L1685
.LVL686:
.L1525:
.LBE5379:
.LBE5383:
	.loc 1 1391 0 discriminator 1
	cmpwi 7,19,0
	ble- 7,.L170
.LBB5384:
	.loc 1 1391 0 is_stmt 0
	mullw 5,27,30
.LVL687:
	cmpwi 4,20,0
	cmpwi 1,29,0
	cmpwi 6,30,0
	li 4,0
	li 3,0
.LVL688:
.L1527:
.LBE5384:
	.loc 1 1391 0 discriminator 1
	ble- 4,.L1554
	.loc 1 1391 0
	li 11,0
	li 18,0
.LBB5399:
	.loc 1 1065 0 is_stmt 1
	add 6,4,29
.LVL689:
.L1557:
.LBE5399:
	.loc 1 1391 0 discriminator 1
	beq- 1,.L1555
.LBB5400:
	.loc 1 1391 0 is_stmt 0
	cmplw 7,4,23
	bgt- 7,.L170
	addi 10,4,1
	mr 0,4
.LVL690:
.L1556:
	.loc 1 1391 0 discriminator 2
	cmplw 7,24,0
	bgt- 7,.L1546
.LVL691:
	.loc 1 1391 0 discriminator 1
	beq- 6,.L1548
.LBB5385:
	.loc 1 1391 0
	mullw 7,0,22
.LBE5385:
	.loc 1 1065 0 is_stmt 1
	li 9,0
	.loc 1 1391 0
	li 0,0
.LBB5395:
.LBB5386:
.LBB5387:
	.loc 1 741 0
	mtctr 30
	add 7,21,7
	b .L1552
.LVL692:
.L4350:
.LBE5387:
.LBE5386:
	.loc 1 1391 0 discriminator 2
	cmplw 7,0,26
	bgt- 7,.L1549
.LVL693:
	.loc 1 1391 0 is_stmt 0 discriminator 1
	mullw 8,0,25
.LBB5389:
.LBB5388:
	.loc 1 743 0 is_stmt 1 discriminator 1
	lbzx 0,7,8
.LVL694:
	stb 0,0(31)
.LBE5388:
.LBE5389:
.LBB5390:
.LBB5391:
.LBB5392:
	.loc 1 122 0 discriminator 1
	addi 31,31,1
.LVL695:
.L1551:
.LBE5392:
.LBE5391:
.LBE5390:
.LBE5395:
	.loc 1 1391 0 discriminator 13
	addi 9,9,1
.LVL696:
	mr 0,9
	bdz .L1548
.LVL697:
.L1552:
.LBB5396:
	.loc 1 1391 0 is_stmt 0 discriminator 2
	add 0,11,0
.LVL698:
	cmplw 7,28,0
	ble- 7,.L4350
.L1549:
.LVL699:
.LBB5393:
.LBB5394:
	.loc 2 350 0 is_stmt 1
	add 31,31,27
.LVL700:
.LBE5394:
.LBE5393:
	.loc 1 1391 0
	b .L1551
.LVL701:
.L1123:
.LBE5396:
.LBE5400:
	.loc 1 1385 0 discriminator 1
	cmpwi 7,19,0
	ble- 7,.L170
.LBB5401:
	.loc 1 1385 0 is_stmt 0
	mullw 6,27,30
	cmpwi 4,20,0
	cmpwi 1,29,0
	cmpwi 6,30,0
	li 5,0
.LVL702:
	li 4,0
.LVL703:
.L1125:
.LBE5401:
	.loc 1 1385 0 discriminator 1
	ble- 4,.L1152
	.loc 1 1385 0
	li 11,0
	li 3,0
.LBB5418:
	.loc 1 1065 0 is_stmt 1
	add 7,5,29
.LVL704:
.L1155:
.LBE5418:
	.loc 1 1385 0 discriminator 1
	beq- 1,.L1153
.LBB5419:
	.loc 1 1385 0 is_stmt 0
	cmplw 7,5,23
	bgt- 7,.L170
	addi 10,5,1
	mr 0,5
.LVL705:
.L1154:
	.loc 1 1385 0 discriminator 2
	cmplw 7,24,0
	bgt- 7,.L1144
.LVL706:
	.loc 1 1385 0 discriminator 1
	beq- 6,.L1146
.LBB5402:
	.loc 1 1385 0
	mullw 18,0,22
.LBB5403:
.LBB5404:
	.loc 1 714 0 is_stmt 1
	mtctr 30
.LBE5404:
.LBE5403:
.LBE5402:
	.loc 1 1385 0
	li 0,0
	.loc 1 1065 0
	li 9,0
.LBB5414:
.LBB5407:
.LBB5405:
	.loc 1 714 0
	add 18,21,18
.LVL707:
.L1150:
.LBE5405:
.LBE5407:
	.loc 1 1385 0 discriminator 2
	add 0,11,0
.LVL708:
	cmplw 7,28,0
	bgt- 7,.L1147
	cmplw 7,0,26
	ble- 7,.L1148
.L1147:
.LVL709:
.LBB5408:
.LBB5409:
	.loc 2 350 0
	add 31,31,27
.LVL710:
.L1149:
.LBE5409:
.LBE5408:
.LBE5414:
	.loc 1 1385 0 discriminator 13
	addi 9,9,1
.LVL711:
	mr 0,9
	bdnz .L1150
.LVL712:
.L1146:
.LBE5419:
	.loc 1 1385 0 is_stmt 0 discriminator 12
	cmpw 7,10,7
	beq- 7,.L1153
.LVL713:
.LBB5420:
	.loc 1 1385 0 discriminator 2
	cmplw 7,23,10
.LBE5420:
	addi 9,10,1
.LBB5421:
	blt- 7,.L170
	.loc 1 1385 0
	mr 0,10
	mr 10,9
.LVL714:
	b .L1154
.LVL715:
.L1148:
.LBB5415:
	.loc 1 1385 0 discriminator 1
	mullw 8,0,25
.LBB5410:
.LBB5406:
	.loc 1 719 0 is_stmt 1 discriminator 1
	lhzx 0,18,8
.LVL716:
	rlwinm 0,0,0,31,31
	neg 0,0
.LBE5406:
.LBE5410:
.LBB5411:
.LBB5412:
.LBB5413:
	.loc 1 122 0 discriminator 1
	stb 0,0(31)
	addi 31,31,1
.LVL717:
	b .L1149
.LVL718:
.L1122:
.LBE5413:
.LBE5412:
.LBE5411:
.LBE5415:
.LBE5421:
	.loc 1 1385 0 discriminator 1
	cmpwi 7,19,0
	ble- 7,.L170
.LBB5422:
	.loc 1 1385 0 is_stmt 0
	mullw 3,27,30
.LVL719:
	cmpwi 4,20,0
	cmpwi 0,29,0
	cmpwi 1,30,0
.LBB5423:
	cmpwi 6,15,0
.LBE5423:
	li 4,0
	li 18,0
.LBB5443:
.LBB5424:
.LBB5425:
	.loc 1 718 0 is_stmt 1
	lis 8,0x4330
.LVL720:
	lis 6,.LC1@ha
	lis 7,.LC22@ha
.LVL721:
.L1126:
.LBE5425:
.LBE5424:
.LBE5443:
.LBE5422:
	.loc 1 1385 0 discriminator 1
	ble- 4,.L1246
	.loc 1 1385 0 is_stmt 0
	li 11,0
	li 17,0
.LBB5450:
	.loc 1 1065 0 is_stmt 1
	add 5,4,29
.LVL722:
.L1249:
.LBE5450:
	.loc 1 1385 0 discriminator 1
	beq- 0,.L1247
.LBB5451:
	.loc 1 1385 0 is_stmt 0
	cmplw 7,4,23
	bgt- 7,.L170
	addi 10,4,1
	mr 0,4
.LVL723:
.L1248:
	.loc 1 1385 0 discriminator 2
	cmplw 7,24,0
	bgt- 7,.L1226
.LVL724:
	.loc 1 1385 0 discriminator 1
	beq- 1,.L1228
.LBB5444:
	.loc 1 1385 0
	mullw 15,0,22
.LBB5431:
.LBB5426:
	.loc 1 718 0 is_stmt 1
	mtctr 30
.LBE5426:
.LBE5431:
.LBE5444:
	.loc 1 1385 0
	li 0,0
	.loc 1 1065 0
	li 9,0
.LBB5445:
.LBB5432:
.LBB5427:
	.loc 1 714 0
	add 15,21,15
.LVL725:
.L1234:
.LBE5427:
.LBE5432:
	.loc 1 1385 0 discriminator 2
	add 0,11,0
.LVL726:
	cmplw 7,28,0
	bgt- 7,.L1229
	cmplw 7,0,26
	ble- 7,.L1230
.L1229:
.LVL727:
.LBB5433:
.LBB5434:
	.loc 2 350 0
	add 31,31,27
.LVL728:
.L1231:
.LBE5434:
.LBE5433:
.LBE5445:
	.loc 1 1385 0 discriminator 26
	addi 9,9,1
.LVL729:
	mr 0,9
	bdnz .L1234
.LVL730:
.L1228:
.LBE5451:
	.loc 1 1385 0 is_stmt 0 discriminator 25
	cmpw 7,10,5
	beq- 7,.L4351
.LVL731:
.LBB5452:
	.loc 1 1385 0 discriminator 2
	cmplw 7,23,10
.LBE5452:
	addi 9,10,1
.LBB5453:
	blt- 7,.L170
	.loc 1 1385 0
	mr 0,10
	mr 10,9
.LVL732:
	b .L1248
.LVL733:
.L1230:
.LBB5446:
	.loc 1 1385 0 discriminator 1
	mullw 16,0,25
.LBB5435:
.LBB5428:
	.loc 1 714 0 is_stmt 1 discriminator 1
	lhzx 0,15,16
.LVL734:
	.loc 1 719 0 discriminator 1
	rlwinm 16,0,0,31,31
	neg 16,16
	rlwinm 16,16,0,0xff
.LBE5428:
.LBE5435:
	.loc 1 1385 0 discriminator 1
	bne- 6,.L1232
.LBB5436:
.LBB5429:
	.loc 1 716 0
	srwi 0,0,11
.LVL735:
	stw 8,1192(1)
	xoris 0,0,0x8000
	lfs 13,.LC1@l(6)
	stw 0,1196(1)
	addi 12,1,2668
	lfs 0,.LC22@l(7)
	lfd 12,1192(1)
	fsub 13,12,13
	frsp 13,13
	fmuls 0,13,0
	fctiwz 0,0
	stfiwx 0,0,12
	lwz 0,2668(1)
	rlwinm 0,0,0,0xff
.L1233:
.LVL736:
.LBE5429:
.LBE5436:
.LBB5437:
.LBB5438:
.LBB5439:
	.loc 1 122 0 discriminator 2
	stb 16,0(31)
.LVL737:
.LBE5439:
.LBE5438:
.LBB5440:
.LBB5441:
	stb 0,1(31)
	addi 31,31,2
.LVL738:
	b .L1231
.LVL739:
.L1121:
.LBE5441:
.LBE5440:
.LBE5437:
.LBE5446:
.LBE5453:
	.loc 1 1385 0 discriminator 1
	cmpwi 7,19,0
	ble- 7,.L170
.LBB5454:
	.loc 1 1385 0 is_stmt 0
	mullw 14,27,30
	li 4,0
	stw 4,3084(1)
	cmpwi 4,20,0
	cmpwi 0,29,0
	cmpwi 1,30,0
.LBB5455:
	cmpwi 6,15,0
.LBE5455:
	li 12,0
.LBB5476:
.LBB5456:
.LBB5457:
	.loc 1 716 0 is_stmt 1
	lis 10,0x4330
.LVL740:
	lis 17,.LC1@ha
	lis 18,.LC22@ha
.LBE5457:
.LBE5456:
.LBB5460:
.LBB5461:
.LBB5462:
	.loc 1 142 0
	li 15,-32768
.LVL741:
.L1127:
.LBE5462:
.LBE5461:
.LBE5460:
.LBE5476:
.LBE5454:
	.loc 1 1385 0 discriminator 1
	ble- 4,.L1209
	.loc 1 1385 0 is_stmt 0
	li 7,0
	li 0,0
	stw 7,3080(1)
.LBB5483:
	.loc 1 1065 0 is_stmt 1
	add 3,12,29
.LVL742:
.L1212:
.LBE5483:
	.loc 1 1385 0 discriminator 1
	beq- 0,.L1210
.LBB5484:
	.loc 1 1385 0 is_stmt 0
	cmplw 7,12,23
	bgt- 7,.L170
	addi 11,12,1
	mr 9,12
.LVL743:
.L1211:
	.loc 1 1385 0 discriminator 2
	cmplw 7,24,9
	bgt- 7,.L1198
.LVL744:
	.loc 1 1385 0 discriminator 1
	beq- 1,.L1200
.LBB5477:
	.loc 1 1385 0
	mullw 4,9,22
.LBB5469:
.LBB5466:
.LBB5463:
	.loc 1 142 0 is_stmt 1
	mtctr 30
.LBE5463:
.LBE5466:
.LBE5469:
.LBE5477:
	.loc 1 1385 0
	li 8,0
	.loc 1 1065 0
	li 9,0
.LBB5478:
.LBB5470:
.LBB5458:
	.loc 1 714 0
	add 4,21,4
.LVL745:
.L1207:
.LBE5458:
.LBE5470:
	.loc 1 1385 0 discriminator 2
	add 8,8,0
.LVL746:
	cmplw 7,28,8
	bgt- 7,.L1201
	cmplw 7,8,26
	ble- 7,.L1202
.L1201:
.LVL747:
.LBB5471:
.LBB5472:
	.loc 2 350 0
	add 31,31,27
.LVL748:
.L1203:
.LBE5472:
.LBE5471:
.LBE5478:
	.loc 1 1385 0 discriminator 22
	addi 9,9,1
.LVL749:
	mr 8,9
	bdnz .L1207
.LVL750:
.L1200:
.LBE5484:
	.loc 1 1385 0 is_stmt 0 discriminator 21
	cmpw 7,11,3
	beq- 7,.L1210
.LVL751:
.LBB5485:
	.loc 1 1385 0 discriminator 2
	cmplw 7,23,11
.LBE5485:
	addi 8,11,1
.LBB5486:
	blt- 7,.L170
	.loc 1 1385 0
	mr 9,11
	mr 11,8
.LVL752:
	b .L1211
.LVL753:
.L1202:
.LBB5479:
	.loc 1 1385 0 discriminator 1
	mullw 8,8,25
.LVL754:
.LBB5473:
.LBB5459:
	.loc 1 716 0 is_stmt 1 discriminator 1
	lfs 13,.LC1@l(17)
	lfs 0,.LC22@l(18)
	.loc 1 714 0 discriminator 1
	lhzx 6,4,8
.LVL755:
	.loc 1 716 0 discriminator 1
	stw 10,1144(1)
	srwi 5,6,11
	.loc 1 717 0 discriminator 1
	rlwinm 7,6,26,27,31
	.loc 1 718 0 discriminator 1
	rlwinm 8,6,31,27,31
	.loc 1 716 0 discriminator 1
	xoris 5,5,0x8000
	.loc 1 717 0 discriminator 1
	xoris 7,7,0x8000
	.loc 1 718 0 discriminator 1
	xoris 8,8,0x8000
	.loc 1 716 0 discriminator 1
	stw 5,1148(1)
	.loc 1 718 0 discriminator 1
	addi 5,1,2692
	.loc 1 717 0 discriminator 1
	stw 7,1156(1)
	.loc 1 716 0 discriminator 1
	addi 7,1,2684
	.loc 1 718 0 discriminator 1
	stw 8,1164(1)
	.loc 1 717 0 discriminator 1
	addi 8,1,2688
	stw 10,1152(1)
	.loc 1 719 0 discriminator 1
	rlwinm 6,6,0,31,31
.LVL756:
	.loc 1 718 0 discriminator 1
	stw 10,1160(1)
	.loc 1 719 0 discriminator 1
	neg 6,6
	.loc 1 716 0 discriminator 1
	lfd 12,1144(1)
	.loc 1 719 0 discriminator 1
	rlwinm 6,6,0,0xff
	.loc 1 717 0 discriminator 1
	lfd 10,1152(1)
	.loc 1 718 0 discriminator 1
	lfd 11,1160(1)
	.loc 1 716 0 discriminator 1
	fsub 12,12,13
	.loc 1 717 0 discriminator 1
	fsub 10,10,13
	.loc 1 718 0 discriminator 1
	fsub 11,11,13
	.loc 1 716 0 discriminator 1
	frsp 12,12
	.loc 1 717 0 discriminator 1
	frsp 13,10
	.loc 1 718 0 discriminator 1
	frsp 11,11
	.loc 1 716 0 discriminator 1
	fmuls 12,12,0
	.loc 1 717 0 discriminator 1
	fmuls 13,13,0
	.loc 1 718 0 discriminator 1
	fmuls 0,11,0
	.loc 1 716 0 discriminator 1
	fctiwz 12,12
	.loc 1 717 0 discriminator 1
	fctiwz 13,13
	.loc 1 718 0 discriminator 1
	fctiwz 0,0
	.loc 1 716 0 discriminator 1
	stfiwx 12,0,7
	.loc 1 717 0 discriminator 1
	stfiwx 13,0,8
	.loc 1 718 0 discriminator 1
	stfiwx 0,0,5
	.loc 1 716 0 discriminator 1
	lwz 8,2684(1)
	.loc 1 717 0 discriminator 1
	lwz 5,2688(1)
	.loc 1 718 0 discriminator 1
	lwz 7,2692(1)
	.loc 1 716 0 discriminator 1
	rlwinm 8,8,0,0xff
.LVL757:
	.loc 1 717 0 discriminator 1
	rlwinm 5,5,0,0xff
	.loc 1 718 0 discriminator 1
	rlwinm 7,7,0,0xff
.LVL758:
.LBE5459:
.LBE5473:
	.loc 1 1385 0 discriminator 1
	beq- 6,.L1204
	.loc 1 1385 0 is_stmt 0
	mr 16,8
	mr 8,7
.LVL759:
	mr 7,16
.LVL760:
.L1204:
.LBB5474:
.LBB5467:
.LBB5464:
	.loc 1 140 0 is_stmt 1 discriminator 2
	cmplwi 7,6,224
	bgt- 7,.L4352
	.loc 1 146 0
	rlwinm 5,5,0,24,27
	rlwinm 6,6,7,17,19
.LVL761:
	or 6,5,6
	srwi 7,7,4
.LVL762:
	or 7,6,7
	rlwinm 8,8,4,20,23
.LVL763:
	or 8,7,8
	rlwinm 8,8,0,0xffff
.LVL764:
.L1206:
	.loc 1 149 0
	sth 8,0(31)
	addi 31,31,2
.LVL765:
	b .L1203
.LVL766:
.L986:
.LBE5464:
.LBE5467:
.LBE5474:
.LBE5479:
.LBE5486:
	.loc 1 1383 0 discriminator 1
	cmpwi 7,19,0
	ble- 7,.L170
.LBB5487:
	.loc 1 1383 0 is_stmt 0
	mullw 5,27,30
.LVL767:
	cmpwi 4,20,0
	cmpwi 0,29,0
	cmpwi 1,30,0
.LBB5488:
	cmpwi 6,15,0
.LBE5488:
	li 4,0
	li 3,0
.LVL768:
.L994:
.LBE5487:
	.loc 1 1383 0 discriminator 1
	ble- 4,.L1088
	.loc 1 1383 0
	li 11,0
	li 18,0
.LBB5503:
	.loc 1 1065 0 is_stmt 1
	add 6,4,29
.LVL769:
.L1091:
.LBE5503:
	.loc 1 1383 0 discriminator 1
	beq- 0,.L1089
.LBB5504:
	.loc 1 1383 0 is_stmt 0
	cmplw 7,4,23
	bgt- 7,.L170
	addi 10,4,1
	mr 0,4
.LVL770:
.L1090:
	.loc 1 1383 0 discriminator 2
	cmplw 7,24,0
	bgt- 7,.L1079
.LVL771:
	.loc 1 1383 0 discriminator 1
	beq- 1,.L1081
.LBB5498:
	.loc 1 1383 0
	mullw 7,0,22
.LBE5498:
	.loc 1 1065 0 is_stmt 1
	li 9,0
	.loc 1 1383 0
	li 0,0
.LBB5499:
	mtctr 30
.LBB5489:
.LBB5490:
	.loc 1 705 0
	add 7,21,7
	b .L1086
.LVL772:
.L4353:
.LBE5490:
.LBE5489:
	.loc 1 1383 0 discriminator 2
	cmplw 7,0,26
	bgt- 7,.L1082
.LVL773:
	.loc 1 1383 0 is_stmt 0 discriminator 1
	mullw 8,0,25
.LBB5492:
.LBB5491:
	.loc 1 705 0 is_stmt 1 discriminator 1
	lhzx 0,7,8
.LVL774:
	.loc 1 708 0 discriminator 1
	rlwinm 8,0,24,28,31
	.loc 1 709 0 discriminator 1
	rlwinm 17,0,28,28,31
	.loc 1 710 0 discriminator 1
	rlwinm 0,0,0,28,31
.LVL775:
	.loc 1 708 0 discriminator 1
	mulli 8,8,17
	.loc 1 709 0 discriminator 1
	mulli 17,17,17
	.loc 1 710 0 discriminator 1
	mulli 0,0,17
	.loc 1 708 0 discriminator 1
	rlwinm 8,8,0,0xff
.LVL776:
	.loc 1 709 0 discriminator 1
	rlwinm 17,17,0,0xff
	.loc 1 710 0 discriminator 1
	rlwinm 0,0,0,0xff
.LVL777:
.LBE5491:
.LBE5492:
	.loc 1 1383 0 discriminator 1
	beq- 6,.L1085
	.loc 1 1383 0 is_stmt 0
	mr 16,0
	mr 0,8
.LVL778:
	mr 8,16
.LVL779:
.L1085:
.LBB5493:
.LBB5494:
.LBB5495:
	.loc 1 130 0 is_stmt 1 discriminator 2
	srwi 8,8,3
.LVL780:
	rlwinm 17,17,3,21,26
.LVL781:
	or 8,8,17
	rlwinm 0,0,8,16,20
.LVL782:
	or 0,8,0
	.loc 1 132 0 discriminator 2
	sth 0,0(31)
	addi 31,31,2
.LVL783:
.L1084:
.LBE5495:
.LBE5494:
.LBE5493:
.LBE5499:
	.loc 1 1383 0 discriminator 24
	addi 9,9,1
.LVL784:
	mr 0,9
	bdz .L1081
.LVL785:
.L1086:
.LBB5500:
	.loc 1 1383 0 is_stmt 0 discriminator 2
	add 0,11,0
.LVL786:
	cmplw 7,28,0
	ble- 7,.L4353
.L1082:
.LVL787:
.LBB5496:
.LBB5497:
	.loc 2 350 0 is_stmt 1
	add 31,31,27
.LVL788:
.LBE5497:
.LBE5496:
	.loc 1 1383 0
	b .L1084
.LVL789:
.L589:
.LBE5500:
.LBE5504:
	.loc 1 1377 0 discriminator 1
	cmpwi 7,19,0
	ble- 7,.L170
.LBB5505:
	.loc 1 1377 0 is_stmt 0
	mullw 14,27,30
	li 5,0
.LVL790:
	stw 5,3084(1)
	cmpwi 4,20,0
	cmpwi 0,29,0
	cmpwi 1,30,0
.LBB5506:
	cmpwi 6,15,0
.LBE5506:
	li 12,0
.LBB5524:
.LBB5507:
.LBB5508:
	.loc 1 680 0 is_stmt 1
	lis 10,0x4330
.LVL791:
	lis 16,.LC1@ha
	lis 17,.LC22@ha
	.loc 1 681 0
	lis 18,.LC23@ha
.LBE5508:
.LBE5507:
.LBB5511:
.LBB5512:
.LBB5513:
	.loc 1 142 0
	li 3,-32768
.LVL792:
.L595:
.LBE5513:
.LBE5512:
.LBE5511:
.LBE5524:
.LBE5505:
	.loc 1 1377 0 discriminator 1
	ble- 4,.L675
	.loc 1 1377 0 is_stmt 0
	li 8,0
	li 0,0
	stw 8,3080(1)
.LBB5530:
	.loc 1 1065 0 is_stmt 1
	add 4,12,29
.LVL793:
.L678:
.LBE5530:
	.loc 1 1377 0 discriminator 1
	beq- 0,.L676
.LBB5531:
	.loc 1 1377 0 is_stmt 0
	cmplw 7,12,23
	bgt- 7,.L170
	addi 11,12,1
	mr 9,12
.LVL794:
.L677:
	.loc 1 1377 0 discriminator 2
	cmplw 7,24,9
	bgt- 7,.L666
.LVL795:
	.loc 1 1377 0 discriminator 1
	beq- 1,.L668
.LBB5525:
	.loc 1 1377 0
	mullw 5,9,22
.LBB5518:
.LBB5516:
.LBB5514:
	.loc 1 142 0 is_stmt 1
	mtctr 30
.LBE5514:
.LBE5516:
.LBE5518:
.LBE5525:
	.loc 1 1377 0
	li 8,0
	.loc 1 1065 0
	li 9,0
.LBB5526:
.LBB5519:
.LBB5509:
	.loc 1 678 0
	add 5,21,5
.LVL796:
.L673:
.LBE5509:
.LBE5519:
	.loc 1 1377 0 discriminator 2
	add 8,8,0
.LVL797:
	cmplw 7,28,8
	bgt- 7,.L669
	cmplw 7,8,26
	ble- 7,.L670
.L669:
.LVL798:
.LBB5520:
.LBB5521:
	.loc 2 350 0
	add 31,31,27
.LVL799:
.L671:
.LBE5521:
.LBE5520:
.LBE5526:
	.loc 1 1377 0 discriminator 22
	addi 9,9,1
.LVL800:
	mr 8,9
	bdnz .L673
.LVL801:
.L668:
.LBE5531:
	.loc 1 1377 0 is_stmt 0 discriminator 21
	cmpw 7,11,4
	beq- 7,.L676
.LVL802:
.LBB5532:
	.loc 1 1377 0 discriminator 2
	cmplw 7,23,11
.LBE5532:
	addi 8,11,1
.LBB5533:
	blt- 7,.L170
	.loc 1 1377 0
	mr 9,11
	mr 11,8
.LVL803:
	b .L677
.LVL804:
.L670:
.LBB5527:
	.loc 1 1377 0 discriminator 1
	mullw 8,8,25
.LVL805:
.LBB5522:
.LBB5510:
	.loc 1 680 0 is_stmt 1 discriminator 1
	lfs 0,.LC1@l(16)
	lfs 13,.LC22@l(17)
	.loc 1 681 0 discriminator 1
	addi 15,1,2896
	lfs 10,.LC23@l(18)
	.loc 1 678 0 discriminator 1
	lhzx 8,5,8
.LVL806:
	.loc 1 680 0 discriminator 1
	stw 10,536(1)
	srwi 6,8,11
	.loc 1 681 0 discriminator 1
	rlwinm 7,8,27,26,31
	.loc 1 682 0 discriminator 1
	rlwinm 8,8,0,27,31
.LVL807:
	.loc 1 680 0 discriminator 1
	xoris 6,6,0x8000
	.loc 1 681 0 discriminator 1
	xoris 7,7,0x8000
	.loc 1 682 0 discriminator 1
	xoris 8,8,0x8000
	.loc 1 680 0 discriminator 1
	stw 6,540(1)
	.loc 1 682 0 discriminator 1
	addi 6,1,2900
	.loc 1 681 0 discriminator 1
	stw 7,548(1)
	.loc 1 682 0 discriminator 1
	stw 8,556(1)
	.loc 1 680 0 discriminator 1
	addi 8,1,2892
	.loc 1 681 0 discriminator 1
	stw 10,544(1)
	.loc 1 682 0 discriminator 1
	stw 10,552(1)
	.loc 1 680 0 discriminator 1
	lfd 12,536(1)
	.loc 1 681 0 discriminator 1
	lfd 9,544(1)
	.loc 1 682 0 discriminator 1
	lfd 11,552(1)
	.loc 1 680 0 discriminator 1
	fsub 12,12,0
	.loc 1 681 0 discriminator 1
	fsub 9,9,0
	.loc 1 682 0 discriminator 1
	fsub 11,11,0
	.loc 1 680 0 discriminator 1
	frsp 12,12
	.loc 1 681 0 discriminator 1
	frsp 0,9
	.loc 1 682 0 discriminator 1
	frsp 11,11
	.loc 1 680 0 discriminator 1
	fmuls 12,12,13
	.loc 1 681 0 discriminator 1
	fmuls 0,0,10
	.loc 1 682 0 discriminator 1
	fmuls 13,11,13
	.loc 1 680 0 discriminator 1
	fctiwz 12,12
	.loc 1 681 0 discriminator 1
	fctiwz 0,0
	.loc 1 682 0 discriminator 1
	fctiwz 13,13
	.loc 1 680 0 discriminator 1
	stfiwx 12,0,8
	.loc 1 681 0 discriminator 1
	stfiwx 0,0,15
	.loc 1 682 0 discriminator 1
	stfiwx 13,0,6
	.loc 1 680 0 discriminator 1
	lwz 8,2892(1)
	.loc 1 681 0 discriminator 1
	lwz 6,2896(1)
	.loc 1 682 0 discriminator 1
	lwz 7,2900(1)
	.loc 1 680 0 discriminator 1
	rlwinm 8,8,0,0xff
.LVL808:
	.loc 1 681 0 discriminator 1
	rlwinm 6,6,0,0xff
	.loc 1 682 0 discriminator 1
	rlwinm 7,7,0,0xff
.LVL809:
.LBE5510:
.LBE5522:
	.loc 1 1377 0 discriminator 1
	beq- 6,.L672
	.loc 1 1377 0 is_stmt 0
	mr 15,8
	mr 8,7
.LVL810:
	mr 7,15
.LVL811:
.L672:
.LBB5523:
.LBB5517:
.LBB5515:
	.loc 1 142 0 is_stmt 1 discriminator 2
	rlwinm 6,6,2,22,26
	srwi 7,7,3
.LVL812:
	or 6,6,3
	rlwinm 8,8,7,17,21
.LVL813:
	or 7,6,7
	or 8,7,8
	.loc 1 149 0 discriminator 2
	sth 8,0(31)
	addi 31,31,2
.LVL814:
	b .L671
.LVL815:
.L588:
.LBE5515:
.LBE5517:
.LBE5523:
.LBE5527:
.LBE5533:
	.loc 1 1377 0 discriminator 1
	cmpwi 7,19,0
	ble- 7,.L170
.LBB5534:
	.loc 1 1377 0 is_stmt 0
	mullw 14,27,30
	li 6,0
	stw 6,3080(1)
	cmpwi 4,20,0
	cmpwi 0,29,0
	cmpwi 1,30,0
.LBB5535:
	cmpwi 6,15,0
.LBE5535:
	li 12,0
.LBB5547:
.LBB5536:
.LBB5537:
	.loc 1 680 0 is_stmt 1
	lis 10,0x4330
.LVL816:
	lis 17,.LC1@ha
	lis 18,.LC22@ha
	.loc 1 681 0
	lis 3,.LC23@ha
.LVL817:
.L596:
.LBE5537:
.LBE5536:
.LBE5547:
.LBE5534:
	.loc 1 1377 0 discriminator 1
	ble- 4,.L688
	.loc 1 1377 0 is_stmt 0
	li 0,0
	li 15,0
.LBB5553:
	.loc 1 1065 0 is_stmt 1
	add 4,12,29
.LVL818:
.L691:
.LBE5553:
	.loc 1 1377 0 discriminator 1
	beq- 0,.L689
.LBB5554:
	.loc 1 1377 0 is_stmt 0
	cmplw 7,12,23
	bgt- 7,.L170
	addi 11,12,1
	mr 9,12
.LVL819:
.L690:
	.loc 1 1377 0 discriminator 2
	cmplw 7,24,9
	bgt- 7,.L679
.LVL820:
	.loc 1 1377 0 discriminator 1
	beq- 1,.L681
.LBB5548:
	.loc 1 1377 0
	mullw 5,9,22
	mtctr 30
.LBE5548:
	li 8,0
	.loc 1 1065 0 is_stmt 1
	li 9,0
.LBB5549:
.LBB5540:
.LBB5538:
	.loc 1 678 0
	add 5,21,5
.LVL821:
.L686:
.LBE5538:
.LBE5540:
	.loc 1 1377 0 discriminator 2
	add 8,8,0
.LVL822:
	cmplw 7,28,8
	bgt- 7,.L682
	cmplw 7,8,26
	ble- 7,.L683
.L682:
.LVL823:
.LBB5541:
.LBB5542:
	.loc 2 350 0
	add 31,31,27
.LVL824:
.L684:
.LBE5542:
.LBE5541:
.LBE5549:
	.loc 1 1377 0 discriminator 24
	addi 9,9,1
.LVL825:
	mr 8,9
	bdnz .L686
.LVL826:
.L681:
.LBE5554:
	.loc 1 1377 0 is_stmt 0 discriminator 23
	cmpw 7,11,4
	beq- 7,.L689
.LVL827:
.LBB5555:
	.loc 1 1377 0 discriminator 2
	cmplw 7,23,11
.LBE5555:
	addi 8,11,1
.LBB5556:
	blt- 7,.L170
	.loc 1 1377 0
	mr 9,11
	mr 11,8
.LVL828:
	b .L690
.LVL829:
.L683:
.LBB5550:
	.loc 1 1377 0 discriminator 1
	mullw 8,8,25
.LVL830:
.LBB5543:
.LBB5539:
	.loc 1 680 0 is_stmt 1 discriminator 1
	lfs 0,.LC1@l(17)
	lfs 13,.LC22@l(18)
	.loc 1 681 0 discriminator 1
	lfs 10,.LC23@l(3)
	.loc 1 678 0 discriminator 1
	lhzx 8,5,8
.LVL831:
	.loc 1 680 0 discriminator 1
	stw 10,560(1)
	srwi 6,8,11
	.loc 1 681 0 discriminator 1
	rlwinm 7,8,27,26,31
	.loc 1 682 0 discriminator 1
	rlwinm 8,8,0,27,31
.LVL832:
	.loc 1 680 0 discriminator 1
	xoris 6,6,0x8000
	.loc 1 681 0 discriminator 1
	xoris 7,7,0x8000
	.loc 1 682 0 discriminator 1
	xoris 8,8,0x8000
	.loc 1 680 0 discriminator 1
	stw 6,564(1)
	addi 6,1,2880
	.loc 1 681 0 discriminator 1
	stw 7,572(1)
	addi 7,1,2884
	.loc 1 682 0 discriminator 1
	stw 8,580(1)
	addi 8,1,2888
	.loc 1 681 0 discriminator 1
	stw 10,568(1)
	.loc 1 682 0 discriminator 1
	stw 10,576(1)
	.loc 1 680 0 discriminator 1
	lfd 12,560(1)
	.loc 1 681 0 discriminator 1
	lfd 9,568(1)
	.loc 1 682 0 discriminator 1
	lfd 11,576(1)
	.loc 1 680 0 discriminator 1
	fsub 12,12,0
	.loc 1 681 0 discriminator 1
	fsub 9,9,0
	.loc 1 682 0 discriminator 1
	fsub 11,11,0
	.loc 1 680 0 discriminator 1
	frsp 12,12
	.loc 1 681 0 discriminator 1
	frsp 0,9
	.loc 1 682 0 discriminator 1
	frsp 11,11
	.loc 1 680 0 discriminator 1
	fmuls 12,12,13
	.loc 1 681 0 discriminator 1
	fmuls 0,0,10
	.loc 1 682 0 discriminator 1
	fmuls 13,11,13
	.loc 1 680 0 discriminator 1
	fctiwz 12,12
	.loc 1 681 0 discriminator 1
	fctiwz 0,0
	.loc 1 682 0 discriminator 1
	fctiwz 13,13
	.loc 1 680 0 discriminator 1
	stfiwx 12,0,6
	.loc 1 681 0 discriminator 1
	stfiwx 0,0,7
	.loc 1 682 0 discriminator 1
	stfiwx 13,0,8
	.loc 1 680 0 discriminator 1
	lwz 8,2880(1)
	.loc 1 681 0 discriminator 1
	lwz 6,2884(1)
	.loc 1 682 0 discriminator 1
	lwz 7,2888(1)
	.loc 1 680 0 discriminator 1
	rlwinm 8,8,0,0xff
.LVL833:
	.loc 1 681 0 discriminator 1
	rlwinm 6,6,0,0xff
	.loc 1 682 0 discriminator 1
	rlwinm 7,7,0,0xff
.LVL834:
.LBE5539:
.LBE5543:
	.loc 1 1377 0 discriminator 1
	beq- 6,.L685
	.loc 1 1377 0 is_stmt 0
	mr 16,8
	mr 8,7
.LVL835:
	mr 7,16
.LVL836:
.L685:
.LBB5544:
.LBB5545:
.LBB5546:
	.loc 1 130 0 is_stmt 1 discriminator 2
	srwi 7,7,3
.LVL837:
	rlwinm 6,6,3,21,26
	or 7,7,6
	rlwinm 8,8,8,16,20
.LVL838:
	or 8,7,8
	.loc 1 132 0 discriminator 2
	sth 8,0(31)
	addi 31,31,2
.LVL839:
	b .L684
.LVL840:
.L587:
.LBE5546:
.LBE5545:
.LBE5544:
.LBE5550:
.LBE5556:
	.loc 1 1377 0 discriminator 4
	cmpwi 7,18,6406
	bne+ 7,$+8
	b .L4354
.LVL841:
	.loc 1 1377 0 is_stmt 0 discriminator 1
	cmpwi 7,19,0
	ble- 7,.L170
.LBB5557:
	.loc 1 1377 0
	mullw 6,27,30
	li 7,0
.LVL842:
	li 8,0
.LVL843:
	stw 7,3084(1)
	stw 8,3092(1)
	cmpwi 4,20,0
	cmpwi 0,29,0
	stw 6,3080(1)
	cmpwi 1,30,0
.LBB5558:
	cmpwi 6,15,0
.LBB5559:
.LBB5560:
	.loc 1 680 0 is_stmt 1
	lis 10,0x4330
.LVL844:
	lis 12,.LC1@ha
	lis 14,.LC22@ha
	.loc 1 681 0
	lis 16,.LC23@ha
.LBE5560:
.LBE5559:
.LBB5563:
.LBB5564:
.LBB5565:
	.loc 1 174 0
	lis 17,.LC9@ha
	lis 18,.LC15@ha
.LBE5565:
.LBE5564:
.LBB5568:
.LBB5569:
	.loc 1 122 0
	li 3,-1
.LVL845:
.L640:
.LBE5569:
.LBE5568:
.LBE5563:
.LBE5558:
.LBE5557:
	.loc 1 1377 0 discriminator 1
	bgt+ 4,$+8
	b .L662
	.loc 1 1377 0 is_stmt 0
	li 11,0
.LBB5589:
	.loc 1 1065 0 is_stmt 1
	lwz 15,3084(1)
.LBE5589:
	.loc 1 1377 0
	stw 11,3088(1)
	li 0,0
.LBB5590:
	.loc 1 1065 0
	add 4,15,29
.LVL846:
.L665:
.LBE5590:
	.loc 1 1377 0 discriminator 1
	bne+ 0,$+8
	b .L663
.LBB5591:
	.loc 1 1377 0 is_stmt 0
	lwz 5,3084(1)
	cmplw 7,5,23
	bgt- 7,.L170
	addi 11,5,1
.LVL847:
.L664:
	.loc 1 1377 0 discriminator 2
	cmplw 7,24,5
	bgt- 7,.L653
.LVL848:
	.loc 1 1377 0 discriminator 1
	beq- 1,.L655
.LBB5584:
	.loc 1 1377 0
	mullw 5,5,22
.LBB5578:
.LBB5573:
.LBB5570:
	.loc 1 122 0 is_stmt 1
	mtctr 30
.LBE5570:
.LBE5573:
.LBE5578:
.LBE5584:
	.loc 1 1377 0
	li 8,0
	.loc 1 1065 0
	li 9,0
.LBB5585:
.LBB5579:
.LBB5561:
	.loc 1 678 0
	add 5,21,5
.LVL849:
.L660:
.LBE5561:
.LBE5579:
	.loc 1 1377 0 discriminator 2
	add 8,0,8
.LVL850:
	cmplw 7,28,8
	bgt- 7,.L656
	cmplw 7,8,26
	ble- 7,.L657
.L656:
.LVL851:
.LBB5580:
.LBB5581:
	.loc 2 350 0
	add 31,31,27
.LVL852:
.L658:
.LBE5581:
.LBE5580:
.LBE5585:
	.loc 1 1377 0 discriminator 20
	addi 9,9,1
.LVL853:
	mr 8,9
	bdnz .L660
.LVL854:
.L655:
.LBE5591:
	.loc 1 1377 0 is_stmt 0 discriminator 19
	cmpw 7,11,4
	bne+ 7,$+8
	b .L663
.LVL855:
.LBB5592:
	.loc 1 1377 0 discriminator 2
	cmplw 7,23,11
.LBE5592:
	addi 9,11,1
.LBB5593:
	blt- 7,.L170
	.loc 1 1377 0
	mr 5,11
	mr 11,9
.LVL856:
	b .L664
.LVL857:
.L586:
.LBE5593:
	.loc 1 1377 0 discriminator 1
	cmpwi 7,19,0
	ble- 7,.L170
.LBB5594:
	.loc 1 1377 0
	mullw 14,27,30
	li 7,0
.LVL858:
	li 8,0
.LVL859:
	stw 7,3080(1)
	stw 8,3088(1)
	cmpwi 4,20,0
	cmpwi 0,29,0
	cmpwi 1,30,0
.LBB5595:
	cmpwi 6,15,0
.LBB5596:
.LBB5597:
	.loc 1 680 0 is_stmt 1
	lis 10,0x4330
.LVL860:
	lis 16,.LC1@ha
	lis 17,.LC22@ha
	.loc 1 681 0
	lis 18,.LC23@ha
.LBE5597:
.LBE5596:
.LBB5600:
.LBB5601:
.LBB5602:
	.loc 1 174 0
	lis 12,.LC9@ha
	lis 3,.LC15@ha
.LVL861:
.L597:
.LBE5602:
.LBE5601:
.LBE5600:
.LBE5595:
.LBE5594:
	.loc 1 1377 0 discriminator 1
	ble- 4,.L633
	.loc 1 1377 0 is_stmt 0
	li 9,0
.LBB5620:
	.loc 1 1065 0 is_stmt 1
	lwz 11,3080(1)
.LBE5620:
	.loc 1 1377 0
	stw 9,3084(1)
	li 0,0
.LBB5621:
	.loc 1 1065 0
	add 4,11,29
.LVL862:
.L636:
.LBE5621:
	.loc 1 1377 0 discriminator 1
	beq- 0,.L634
.LBB5622:
	.loc 1 1377 0 is_stmt 0
	lwz 15,3080(1)
	cmplw 7,15,23
	bgt- 7,.L170
	addi 11,15,1
	mr 9,15
.LVL863:
.L635:
	.loc 1 1377 0 discriminator 2
	cmplw 7,24,9
	bgt- 7,.L624
.LVL864:
	.loc 1 1377 0 discriminator 1
	beq- 1,.L626
.LBB5615:
	.loc 1 1377 0
	mullw 5,9,22
.LBB5609:
.LBB5605:
.LBB5603:
	.loc 1 174 0 is_stmt 1
	mtctr 30
.LBE5603:
.LBE5605:
.LBE5609:
.LBE5615:
	.loc 1 1377 0
	li 8,0
	.loc 1 1065 0
	li 9,0
.LBB5616:
.LBB5610:
.LBB5598:
	.loc 1 678 0
	add 5,21,5
.LVL865:
.L631:
.LBE5598:
.LBE5610:
	.loc 1 1377 0 discriminator 2
	add 8,8,0
.LVL866:
	cmplw 7,28,8
	bgt- 7,.L627
	cmplw 7,8,26
	ble- 7,.L628
.L627:
.LVL867:
.LBB5611:
.LBB5612:
	.loc 2 350 0
	add 31,31,27
.LVL868:
.L629:
.LBE5612:
.LBE5611:
.LBE5616:
	.loc 1 1377 0 discriminator 15
	addi 9,9,1
.LVL869:
	mr 8,9
	bdnz .L631
.LVL870:
.L626:
.LBE5622:
	.loc 1 1377 0 is_stmt 0 discriminator 14
	cmpw 7,11,4
	beq- 7,.L634
.LVL871:
.LBB5623:
	.loc 1 1377 0 discriminator 2
	cmplw 7,23,11
.LBE5623:
	addi 8,11,1
.LBB5624:
	blt- 7,.L170
	.loc 1 1377 0
	mr 9,11
	mr 11,8
.LVL872:
	b .L635
.LVL873:
.L628:
.LBB5617:
	.loc 1 1377 0 discriminator 1
	mullw 8,8,25
.LVL874:
.LBB5613:
.LBB5599:
	.loc 1 680 0 is_stmt 1 discriminator 1
	lfs 0,.LC1@l(16)
	lfs 13,.LC22@l(17)
	.loc 1 681 0 discriminator 1
	addi 15,1,2928
	lfs 10,.LC23@l(18)
	.loc 1 678 0 discriminator 1
	lhzx 8,5,8
.LVL875:
	.loc 1 680 0 discriminator 1
	stw 10,440(1)
	srwi 6,8,11
	.loc 1 681 0 discriminator 1
	rlwinm 7,8,27,26,31
	.loc 1 682 0 discriminator 1
	rlwinm 8,8,0,27,31
.LVL876:
	.loc 1 680 0 discriminator 1
	xoris 6,6,0x8000
	.loc 1 681 0 discriminator 1
	xoris 7,7,0x8000
	.loc 1 682 0 discriminator 1
	xoris 8,8,0x8000
	.loc 1 680 0 discriminator 1
	stw 6,444(1)
	.loc 1 682 0 discriminator 1
	addi 6,1,2932
	.loc 1 681 0 discriminator 1
	stw 7,452(1)
	.loc 1 682 0 discriminator 1
	stw 8,460(1)
	.loc 1 680 0 discriminator 1
	addi 8,1,2924
	.loc 1 681 0 discriminator 1
	stw 10,448(1)
	.loc 1 682 0 discriminator 1
	stw 10,456(1)
	.loc 1 680 0 discriminator 1
	lfd 12,440(1)
	.loc 1 681 0 discriminator 1
	lfd 9,448(1)
	.loc 1 682 0 discriminator 1
	lfd 11,456(1)
	.loc 1 680 0 discriminator 1
	fsub 12,12,0
	.loc 1 681 0 discriminator 1
	fsub 9,9,0
	.loc 1 682 0 discriminator 1
	fsub 11,11,0
	.loc 1 680 0 discriminator 1
	frsp 12,12
	.loc 1 681 0 discriminator 1
	frsp 0,9
	.loc 1 682 0 discriminator 1
	frsp 11,11
	.loc 1 680 0 discriminator 1
	fmuls 12,12,13
	.loc 1 681 0 discriminator 1
	fmuls 0,0,10
	.loc 1 682 0 discriminator 1
	fmuls 13,11,13
	.loc 1 680 0 discriminator 1
	fctiwz 12,12
	.loc 1 681 0 discriminator 1
	fctiwz 0,0
	.loc 1 682 0 discriminator 1
	fctiwz 13,13
	.loc 1 680 0 discriminator 1
	stfiwx 12,0,8
	.loc 1 681 0 discriminator 1
	stfiwx 0,0,15
	.loc 1 682 0 discriminator 1
	stfiwx 13,0,6
	.loc 1 680 0 discriminator 1
	lwz 7,2924(1)
	.loc 1 681 0 discriminator 1
	lwz 6,2928(1)
	.loc 1 682 0 discriminator 1
	lwz 8,2932(1)
	.loc 1 680 0 discriminator 1
	rlwinm 7,7,0,0xff
.LVL877:
	.loc 1 681 0 discriminator 1
	rlwinm 6,6,0,0xff
	.loc 1 682 0 discriminator 1
	rlwinm 8,8,0,0xff
.LVL878:
.LBE5599:
.LBE5613:
	.loc 1 1377 0 discriminator 1
	beq- 6,.L630
	.loc 1 1377 0 is_stmt 0
	mr 15,7
	mr 7,8
.LVL879:
	mr 8,15
.LVL880:
.L630:
.LBB5614:
.LBB5606:
.LBB5604:
	.loc 1 174 0 is_stmt 1 discriminator 2
	stw 7,468(1)
	addi 7,1,2920
.LVL881:
	stw 10,464(1)
	stw 6,476(1)
	stw 10,472(1)
	lfs 0,.LC9@l(12)
	lfd 11,464(1)
	lfd 12,472(1)
	stw 8,484(1)
	fsub 11,11,0
	stw 10,480(1)
	fsub 12,12,0
	lfd 13,480(1)
	frsp 11,11
	frsp 12,12
	fsub 0,13,0
	lfs 13,.LC15@l(3)
	fadds 12,11,12
	frsp 0,0
	fadds 0,12,0
	fdivs 0,0,13
	fctiwz 0,0
	stfiwx 0,0,7
	lwz 8,2920(1)
.LVL882:
.LBE5604:
.LBE5606:
.LBB5607:
.LBB5608:
	.loc 1 115 0 discriminator 2
	ori 8,8,15
	.loc 1 116 0 discriminator 2
	stb 8,0(31)
	addi 31,31,1
.LVL883:
	b .L629
.LVL884:
.L585:
.LBE5608:
.LBE5607:
.LBE5614:
.LBE5617:
.LBE5624:
	.loc 1 1377 0 discriminator 1
	cmpwi 7,19,0
	ble- 7,.L170
.LBB5625:
	.loc 1 1377 0 is_stmt 0
	mullw 12,27,30
	li 9,0
	li 10,0
.LVL885:
	stw 9,3080(1)
	cmpwi 4,20,0
	stw 10,3088(1)
	cmpwi 0,29,0
	cmpwi 1,30,0
.LBB5626:
	cmpwi 6,15,0
.LBB5627:
.LBB5628:
	.loc 1 680 0 is_stmt 1
	lis 10,0x4330
	lis 14,.LC1@ha
	lis 16,.LC22@ha
	.loc 1 681 0
	lis 17,.LC23@ha
.LBE5628:
.LBE5627:
.LBB5631:
.LBB5632:
.LBB5633:
	.loc 1 174 0
	lis 18,.LC9@ha
	lis 3,.LC15@ha
.LVL886:
.L598:
.LBE5633:
.LBE5632:
.LBE5631:
.LBE5626:
.LBE5625:
	.loc 1 1377 0 discriminator 1
	ble- 4,.L608
	.loc 1 1377 0 is_stmt 0
	li 11,0
.LBB5651:
	.loc 1 1065 0 is_stmt 1
	lwz 15,3080(1)
.LBE5651:
	.loc 1 1377 0
	stw 11,3084(1)
	li 0,0
.LBB5652:
	.loc 1 1065 0
	add 4,15,29
.LVL887:
.L611:
.LBE5652:
	.loc 1 1377 0 discriminator 1
	beq- 0,.L609
.LBB5653:
	.loc 1 1377 0 is_stmt 0
	lwz 5,3080(1)
	cmplw 7,5,23
	bgt- 7,.L170
	addi 11,5,1
	mr 9,5
.LVL888:
.L610:
	.loc 1 1377 0 discriminator 2
	cmplw 7,9,24
	blt- 7,.L599
.LVL889:
	.loc 1 1377 0 discriminator 1
	beq- 1,.L601
.LBB5646:
	.loc 1 1377 0
	mullw 5,9,22
.LBB5640:
.LBB5636:
.LBB5634:
	.loc 1 174 0 is_stmt 1
	mtctr 30
.LBE5634:
.LBE5636:
.LBE5640:
.LBE5646:
	.loc 1 1377 0
	li 8,0
	.loc 1 1065 0
	li 9,0
.LBB5647:
.LBB5641:
.LBB5629:
	.loc 1 678 0
	add 5,21,5
.LVL890:
.L606:
.LBE5629:
.LBE5641:
	.loc 1 1377 0 discriminator 2
	add 8,0,8
.LVL891:
	cmplw 7,28,8
	bgt- 7,.L602
	cmplw 7,8,26
	ble- 7,.L603
.L602:
.LVL892:
.LBB5642:
.LBB5643:
	.loc 2 350 0
	add 31,31,27
.LVL893:
.L604:
.LBE5643:
.LBE5642:
.LBE5647:
	.loc 1 1377 0 discriminator 10
	addi 9,9,1
.LVL894:
	mr 8,9
	bdnz .L606
.LVL895:
.L601:
.LBE5653:
	.loc 1 1377 0 is_stmt 0 discriminator 9
	cmpw 7,11,4
	beq- 7,.L609
.LVL896:
.LBB5654:
	.loc 1 1377 0 discriminator 2
	cmplw 7,23,11
	addi 8,11,1
	blt- 7,.L170
	.loc 1 1377 0
	mr 9,11
	mr 11,8
.LVL897:
	b .L610
.LVL898:
.L603:
.LBB5648:
	.loc 1 1377 0 discriminator 1
	mullw 8,8,25
.LVL899:
.LBB5644:
.LBB5630:
	.loc 1 680 0 is_stmt 1 discriminator 1
	lfs 0,.LC1@l(14)
	lfs 13,.LC22@l(16)
	addi 15,1,2940
	.loc 1 681 0 discriminator 1
	lfs 10,.LC23@l(17)
	.loc 1 678 0 discriminator 1
	lhzx 8,5,8
.LVL900:
	.loc 1 680 0 discriminator 1
	stw 10,392(1)
	srwi 6,8,11
	.loc 1 681 0 discriminator 1
	rlwinm 7,8,27,26,31
	.loc 1 682 0 discriminator 1
	rlwinm 8,8,0,27,31
.LVL901:
	.loc 1 680 0 discriminator 1
	xoris 6,6,0x8000
	.loc 1 681 0 discriminator 1
	xoris 7,7,0x8000
	.loc 1 682 0 discriminator 1
	xoris 8,8,0x8000
	.loc 1 680 0 discriminator 1
	stw 6,396(1)
	.loc 1 681 0 discriminator 1
	addi 6,1,2944
	stw 7,404(1)
	.loc 1 682 0 discriminator 1
	addi 7,1,2948
	stw 8,412(1)
	.loc 1 681 0 discriminator 1
	stw 10,400(1)
	.loc 1 682 0 discriminator 1
	stw 10,408(1)
	.loc 1 680 0 discriminator 1
	lfd 12,392(1)
	.loc 1 681 0 discriminator 1
	lfd 9,400(1)
	.loc 1 682 0 discriminator 1
	lfd 11,408(1)
	.loc 1 680 0 discriminator 1
	fsub 12,12,0
	.loc 1 681 0 discriminator 1
	fsub 9,9,0
	.loc 1 682 0 discriminator 1
	fsub 11,11,0
	.loc 1 680 0 discriminator 1
	frsp 12,12
	.loc 1 681 0 discriminator 1
	frsp 0,9
	.loc 1 682 0 discriminator 1
	frsp 11,11
	.loc 1 680 0 discriminator 1
	fmuls 12,12,13
	.loc 1 681 0 discriminator 1
	fmuls 0,0,10
	.loc 1 682 0 discriminator 1
	fmuls 13,11,13
	.loc 1 680 0 discriminator 1
	fctiwz 12,12
	.loc 1 681 0 discriminator 1
	fctiwz 0,0
	.loc 1 682 0 discriminator 1
	fctiwz 13,13
	.loc 1 680 0 discriminator 1
	stfiwx 12,0,15
	.loc 1 681 0 discriminator 1
	stfiwx 0,0,6
	.loc 1 682 0 discriminator 1
	stfiwx 13,0,7
	.loc 1 680 0 discriminator 1
	lwz 7,2940(1)
	.loc 1 681 0 discriminator 1
	lwz 6,2944(1)
	.loc 1 682 0 discriminator 1
	lwz 8,2948(1)
	.loc 1 680 0 discriminator 1
	rlwinm 7,7,0,0xff
.LVL902:
	.loc 1 681 0 discriminator 1
	rlwinm 6,6,0,0xff
	.loc 1 682 0 discriminator 1
	rlwinm 8,8,0,0xff
.LVL903:
.LBE5630:
.LBE5644:
	.loc 1 1377 0 discriminator 1
	beq- 6,.L605
	.loc 1 1377 0 is_stmt 0
	mr 15,7
	mr 7,8
.LVL904:
	mr 8,15
.LVL905:
.L605:
.LBB5645:
.LBB5637:
.LBB5635:
	.loc 1 174 0 is_stmt 1 discriminator 2
	stw 7,420(1)
	stw 10,416(1)
	stw 6,428(1)
	stw 10,424(1)
	lfs 0,.LC9@l(18)
	lfd 11,416(1)
	lfd 12,424(1)
	stw 8,436(1)
	fsub 11,11,0
	stw 10,432(1)
	fsub 12,12,0
	addi 8,1,2936
.LVL906:
	lfd 13,432(1)
	frsp 11,11
	frsp 12,12
	fsub 0,13,0
	lfs 13,.LC15@l(3)
	fadds 12,11,12
	frsp 0,0
	fadds 0,12,0
	fdivs 0,0,13
	fctiwz 0,0
	stfiwx 0,0,8
	lwz 8,2936(1)
	stb 8,0(31)
.LBE5635:
.LBE5637:
.LBB5638:
.LBB5639:
	.loc 1 122 0 discriminator 2
	addi 31,31,1
.LVL907:
	b .L604
.LVL908:
.L591:
.LBE5639:
.LBE5638:
.LBE5645:
.LBE5648:
.LBE5654:
	.loc 1 1377 0 discriminator 1
	cmpwi 7,19,0
	ble- 7,.L170
.LBB5655:
	.loc 1 1377 0 is_stmt 0
	mullw 6,27,30
	cmpwi 4,20,0
	cmpwi 1,29,0
	cmpwi 6,30,0
	li 5,0
.LVL909:
	li 4,0
.LBB5656:
.LBB5657:
.LBB5658:
.LBB5659:
	.loc 1 122 0 is_stmt 1
	li 7,-1
.LVL910:
.L593:
.LBE5659:
.LBE5658:
.LBE5657:
.LBE5656:
.LBE5655:
	.loc 1 1377 0 discriminator 1
	ble- 4,.L620
	.loc 1 1377 0 is_stmt 0
	li 11,0
	li 3,0
.LBB5672:
	.loc 1 1065 0 is_stmt 1
	add 8,5,29
.LVL911:
.L623:
.LBE5672:
	.loc 1 1377 0 discriminator 1
	beq- 1,.L621
.LBB5673:
	.loc 1 1377 0 is_stmt 0
	cmplw 7,5,23
	bgt- 7,.L170
	addi 10,5,1
	mr 0,5
.LVL912:
.L622:
	.loc 1 1377 0 discriminator 2
	cmplw 7,24,0
	bgt- 7,.L612
.LVL913:
	.loc 1 1377 0 discriminator 1
	li 0,0
	.loc 1 1065 0 is_stmt 1 discriminator 1
	li 9,0
	.loc 1 1377 0 discriminator 1
	beq- 6,.L614
.LBB5668:
.LBB5664:
.LBB5662:
.LBB5660:
	.loc 1 122 0 discriminator 2
	mtctr 30
.LVL914:
.L3754:
.LBE5660:
.LBE5662:
.LBE5664:
	.loc 1 1377 0 discriminator 2
	add 0,0,11
.LVL915:
	cmplw 7,28,0
	bgt- 7,.L615
	cmplw 7,0,26
	ble- 7,.L616
.L615:
.LVL916:
.LBB5665:
.LBB5666:
	.loc 2 350 0
	add 31,31,27
.LVL917:
.L617:
.LBE5666:
.LBE5665:
.LBE5668:
	.loc 1 1377 0 discriminator 13
	addi 9,9,1
.LVL918:
	mr 0,9
.LVL919:
	bdnz .L3754
.LVL920:
.L614:
.LBE5673:
	.loc 1 1377 0 is_stmt 0 discriminator 12
	cmpw 7,10,8
	beq- 7,.L621
.LVL921:
.LBB5674:
	.loc 1 1377 0 discriminator 2
	cmplw 7,23,10
.LBE5674:
	addi 9,10,1
.LBB5675:
	blt- 7,.L170
	.loc 1 1377 0
	mr 0,10
	mr 10,9
.LVL922:
	b .L622
.LVL923:
.L616:
.LBB5669:
.LBB5667:
.LBB5663:
.LBB5661:
	.loc 1 122 0 is_stmt 1 discriminator 2
	stb 7,0(31)
	addi 31,31,1
.LVL924:
	b .L617
.LVL925:
.L1391:
.LBE5661:
.LBE5663:
.LBE5667:
.LBE5669:
.LBE5675:
	.loc 1 1389 0 discriminator 1
	cmpwi 7,19,0
	ble- 7,.L170
.LBB5676:
	.loc 1 1389 0 is_stmt 0
	mullw 5,27,30
.LVL926:
	cmpwi 4,20,0
	cmpwi 1,29,0
	cmpwi 6,30,0
	li 4,0
	li 3,0
.LVL927:
.L1393:
.LBE5676:
	.loc 1 1389 0 discriminator 1
	ble- 4,.L1420
	.loc 1 1389 0
	li 11,0
	li 18,0
.LBB5691:
	.loc 1 1065 0 is_stmt 1
	add 6,4,29
.LVL928:
.L1423:
.LBE5691:
	.loc 1 1389 0 discriminator 1
	beq- 1,.L1421
.LBB5692:
	.loc 1 1389 0 is_stmt 0
	cmplw 7,4,23
	bgt- 7,.L170
	addi 10,4,1
	mr 0,4
.LVL929:
.L1422:
	.loc 1 1389 0 discriminator 2
	cmplw 7,24,0
	bgt- 7,.L1412
.LVL930:
	.loc 1 1389 0 discriminator 1
	beq- 6,.L1414
.LBB5677:
	.loc 1 1389 0
	mullw 7,0,22
.LBE5677:
	.loc 1 1065 0 is_stmt 1
	li 9,0
	.loc 1 1389 0
	li 0,0
.LBB5687:
.LBB5678:
.LBB5679:
	.loc 1 732 0
	mtctr 30
	add 7,21,7
	b .L1418
.LVL931:
.L4355:
.LBE5679:
.LBE5678:
	.loc 1 1389 0 discriminator 2
	cmplw 7,0,26
	bgt- 7,.L1415
.LVL932:
	.loc 1 1389 0 is_stmt 0 discriminator 1
	mullw 8,0,25
.LBB5681:
.LBB5680:
	.loc 1 737 0 is_stmt 1 discriminator 1
	lwzx 0,7,8
.LVL933:
	stb 0,0(31)
.LBE5680:
.LBE5681:
.LBB5682:
.LBB5683:
.LBB5684:
	.loc 1 122 0 discriminator 1
	addi 31,31,1
.LVL934:
.L1417:
.LBE5684:
.LBE5683:
.LBE5682:
.LBE5687:
	.loc 1 1389 0 discriminator 13
	addi 9,9,1
.LVL935:
	mr 0,9
	bdz .L1414
.LVL936:
.L1418:
.LBB5688:
	.loc 1 1389 0 is_stmt 0 discriminator 2
	add 0,11,0
.LVL937:
	cmplw 7,28,0
	ble- 7,.L4355
.L1415:
.LVL938:
.LBB5685:
.LBB5686:
	.loc 2 350 0 is_stmt 1
	add 31,31,27
.LVL939:
.LBE5686:
.LBE5685:
	.loc 1 1389 0
	b .L1417
.LVL940:
.L1390:
.LBE5688:
.LBE5692:
	.loc 1 1389 0 is_stmt 0 discriminator 1
	cmpwi 7,19,0
	ble- 7,.L170
.LBB5693:
	.loc 1 1389 0
	mullw 5,27,30
.LVL941:
	cmpwi 4,20,0
	cmpwi 0,29,0
	cmpwi 1,30,0
.LBB5694:
	cmpwi 6,15,0
.LBE5694:
	li 6,0
	li 4,0
.LVL942:
.L1394:
.LBE5693:
	.loc 1 1389 0 discriminator 1
	ble- 4,.L1514
	.loc 1 1389 0
	li 11,0
	li 3,0
.LBB5716:
	.loc 1 1065 0 is_stmt 1
	add 7,6,29
.LVL943:
.L1517:
.LBE5716:
	.loc 1 1389 0 discriminator 1
	beq- 0,.L1515
.LBB5717:
	.loc 1 1389 0 is_stmt 0
	cmplw 7,6,23
	bgt- 7,.L170
	addi 10,6,1
	mr 0,6
.LVL944:
.L1516:
	.loc 1 1389 0 discriminator 2
	cmplw 7,24,0
	bgt- 7,.L1494
.LVL945:
	.loc 1 1389 0 discriminator 1
	beq- 1,.L1496
.LBB5710:
	.loc 1 1389 0
	mullw 18,0,22
.LBE5710:
	.loc 1 1065 0 is_stmt 1
	li 9,0
	.loc 1 1389 0
	li 0,0
.LBB5711:
	mtctr 30
.LBB5695:
.LBB5696:
	.loc 1 732 0
	add 18,21,18
	b .L1502
.LVL946:
.L4356:
.LBE5696:
.LBE5695:
	.loc 1 1389 0 discriminator 2
	cmplw 7,0,26
	bgt- 7,.L1497
.LVL947:
	.loc 1 1389 0 is_stmt 0 discriminator 1
	mullw 8,0,25
.LBB5700:
.LBB5697:
	.loc 1 732 0 is_stmt 1 discriminator 1
	lwzx 0,18,8
.LVL948:
	.loc 1 737 0 discriminator 1
	rlwinm 8,0,0,0xff
.LVL949:
.LBE5697:
.LBE5700:
	.loc 1 1389 0 discriminator 1
	bne- 6,.L1500
.LBB5701:
.LBB5698:
	.loc 1 734 0
	srwi 0,0,24
.LVL950:
.L1501:
.LBE5698:
.LBE5701:
.LBB5702:
.LBB5703:
.LBB5704:
	.loc 1 122 0 discriminator 2
	stb 8,0(31)
.LVL951:
.LBE5704:
.LBE5703:
.LBB5705:
.LBB5706:
	stb 0,1(31)
	addi 31,31,2
.LVL952:
.L1499:
.LBE5706:
.LBE5705:
.LBE5702:
.LBE5711:
	.loc 1 1389 0 discriminator 26
	addi 9,9,1
.LVL953:
	mr 0,9
	bdz .L1496
.LVL954:
.L1502:
.LBB5712:
	.loc 1 1389 0 is_stmt 0 discriminator 2
	add 0,11,0
.LVL955:
	cmplw 7,28,0
	ble- 7,.L4356
.L1497:
.LVL956:
.LBB5707:
.LBB5708:
	.loc 2 350 0 is_stmt 1
	add 31,31,27
.LVL957:
.LBE5708:
.LBE5707:
	.loc 1 1389 0
	b .L1499
.LVL958:
.L1389:
.LBE5712:
.LBE5717:
	.loc 1 1389 0 is_stmt 0 discriminator 1
	cmpwi 7,19,0
	ble- 7,.L170
.LBB5718:
	.loc 1 1389 0
	mullw 3,27,30
.LVL959:
	cmpwi 4,20,0
	cmpwi 0,29,0
	cmpwi 1,30,0
.LBB5719:
	cmpwi 6,15,0
.LBE5719:
	li 18,0
	li 17,0
.LBB5738:
.LBB5720:
.LBB5721:
.LBB5722:
	.loc 1 142 0 is_stmt 1
	li 4,-32768
.LVL960:
.L1395:
.LBE5722:
.LBE5721:
.LBE5720:
.LBE5738:
.LBE5718:
	.loc 1 1389 0 discriminator 1
	ble- 4,.L1477
	.loc 1 1389 0 is_stmt 0
	li 11,0
	li 16,0
.LBB5745:
	.loc 1 1065 0 is_stmt 1
	add 5,18,29
.LVL961:
.L1480:
.LBE5745:
	.loc 1 1389 0 discriminator 1
	beq- 0,.L1478
.LBB5746:
	.loc 1 1389 0 is_stmt 0
	cmplw 7,18,23
	bgt- 7,.L170
	addi 10,18,1
	mr 0,18
.LVL962:
.L1479:
	.loc 1 1389 0 discriminator 2
	cmplw 7,24,0
	bgt- 7,.L1466
.LVL963:
	.loc 1 1389 0 discriminator 1
	beq- 1,.L1468
.LBB5739:
	.loc 1 1389 0
	mullw 6,0,22
.LBE5739:
	.loc 1 1065 0 is_stmt 1
	li 9,0
	.loc 1 1389 0
	li 0,0
.LBB5740:
.LBB5729:
.LBB5726:
.LBB5723:
	.loc 1 142 0
	mtctr 30
.LBE5723:
.LBE5726:
.LBE5729:
.LBB5730:
.LBB5731:
	.loc 1 732 0
	add 6,21,6
	b .L1475
.LVL964:
.L4358:
.LBE5731:
.LBE5730:
	.loc 1 1389 0 discriminator 2
	cmplw 7,0,26
	bgt- 7,.L1469
.LVL965:
	.loc 1 1389 0 is_stmt 0 discriminator 1
	mullw 8,0,25
.LBB5733:
.LBB5732:
	.loc 1 732 0 is_stmt 1 discriminator 1
	lwzx 0,6,8
.LVL966:
	.loc 1 734 0 discriminator 1
	srwi 8,0,24
.LVL967:
	.loc 1 735 0 discriminator 1
	rlwinm 15,0,16,24,31
	.loc 1 736 0 discriminator 1
	rlwinm 7,0,24,24,31
.LVL968:
	.loc 1 737 0 discriminator 1
	rlwinm 0,0,0,0xff
.LVL969:
.LBE5732:
.LBE5733:
	.loc 1 1389 0 discriminator 1
	beq- 6,.L1472
	.loc 1 1389 0 is_stmt 0
	mr 14,8
	mr 8,7
.LVL970:
	mr 7,14
.LVL971:
.L1472:
.LBB5734:
.LBB5727:
.LBB5724:
	.loc 1 140 0 is_stmt 1 discriminator 2
	cmplwi 7,0,224
	bgt- 7,.L4357
	.loc 1 146 0
	rlwinm 0,0,7,17,19
.LVL972:
	rlwinm 15,15,0,24,27
.LVL973:
	or 0,0,15
	srwi 7,7,4
.LVL974:
	or 0,0,7
	rlwinm 8,8,4,20,23
.LVL975:
	or 0,0,8
	rlwinm 0,0,0,0xffff
.LVL976:
.L1474:
	.loc 1 149 0
	sth 0,0(31)
	addi 31,31,2
.LVL977:
.L1471:
.LBE5724:
.LBE5727:
.LBE5734:
.LBE5740:
	.loc 1 1389 0 discriminator 22
	addi 9,9,1
.LVL978:
	mr 0,9
	bdz .L1468
.LVL979:
.L1475:
.LBB5741:
	.loc 1 1389 0 is_stmt 0 discriminator 2
	add 0,0,11
.LVL980:
	cmplw 7,28,0
	ble- 7,.L4358
.L1469:
.LVL981:
.LBB5735:
.LBB5736:
	.loc 2 350 0 is_stmt 1
	add 31,31,27
.LVL982:
.LBE5736:
.LBE5735:
	.loc 1 1389 0
	b .L1471
.LVL983:
.L1388:
.LBE5741:
.LBE5746:
	.loc 1 1389 0 is_stmt 0 discriminator 1
	cmpwi 7,19,0
	ble- 7,.L170
.LBB5747:
	.loc 1 1389 0
	mullw 5,27,30
.LVL984:
	cmpwi 4,20,0
	cmpwi 0,29,0
	cmpwi 1,30,0
.LBB5748:
	cmpwi 6,15,0
.LBE5748:
	li 4,0
	li 3,0
.LVL985:
.L1396:
.LBE5747:
	.loc 1 1389 0 discriminator 1
	ble- 4,.L1490
	.loc 1 1389 0
	li 11,0
	li 18,0
.LBB5763:
	.loc 1 1065 0 is_stmt 1
	add 6,4,29
.LVL986:
.L1493:
.LBE5763:
	.loc 1 1389 0 discriminator 1
	beq- 0,.L1491
.LBB5764:
	.loc 1 1389 0 is_stmt 0
	cmplw 7,4,23
	bgt- 7,.L170
	addi 10,4,1
	mr 0,4
.LVL987:
.L1492:
	.loc 1 1389 0 discriminator 2
	cmplw 7,24,0
	bgt- 7,.L1481
.LVL988:
	.loc 1 1389 0 discriminator 1
	beq- 1,.L1483
.LBB5758:
	.loc 1 1389 0
	mullw 7,0,22
.LBE5758:
	.loc 1 1065 0 is_stmt 1
	li 9,0
	.loc 1 1389 0
	li 0,0
.LBB5759:
	mtctr 30
.LBB5749:
.LBB5750:
	.loc 1 732 0
	add 7,21,7
	b .L1488
.LVL989:
.L4359:
.LBE5750:
.LBE5749:
	.loc 1 1389 0 discriminator 2
	cmplw 7,0,26
	bgt- 7,.L1484
.LVL990:
	.loc 1 1389 0 is_stmt 0 discriminator 1
	mullw 8,0,25
.LBB5752:
.LBB5751:
	.loc 1 732 0 is_stmt 1 discriminator 1
	lwzx 0,7,8
.LVL991:
	.loc 1 734 0 discriminator 1
	srwi 8,0,24
.LVL992:
	.loc 1 735 0 discriminator 1
	rlwinm 17,0,16,24,31
	.loc 1 736 0 discriminator 1
	rlwinm 0,0,24,24,31
.LVL993:
.LBE5751:
.LBE5752:
	.loc 1 1389 0 discriminator 1
	beq- 6,.L1487
	.loc 1 1389 0 is_stmt 0
	mr 16,8
	mr 8,0
.LVL994:
	mr 0,16
.LVL995:
.L1487:
.LBB5753:
.LBB5754:
.LBB5755:
	.loc 1 130 0 is_stmt 1 discriminator 2
	srwi 0,0,3
.LVL996:
	rlwinm 17,17,3,21,26
.LVL997:
	or 0,0,17
	rlwinm 8,8,8,16,20
.LVL998:
	or 8,0,8
	.loc 1 132 0 discriminator 2
	sth 8,0(31)
	addi 31,31,2
.LVL999:
.L1486:
.LBE5755:
.LBE5754:
.LBE5753:
.LBE5759:
	.loc 1 1389 0 discriminator 24
	addi 9,9,1
.LVL1000:
	mr 0,9
	bdz .L1483
.LVL1001:
.L1488:
.LBB5760:
	.loc 1 1389 0 is_stmt 0 discriminator 2
	add 0,11,0
.LVL1002:
	cmplw 7,28,0
	ble- 7,.L4359
.L1484:
.LVL1003:
.LBB5756:
.LBB5757:
	.loc 2 350 0 is_stmt 1
	add 31,31,27
.LVL1004:
.LBE5757:
.LBE5756:
	.loc 1 1389 0
	b .L1486
.LVL1005:
.L1387:
.LBE5760:
.LBE5764:
	.loc 1 1389 0 is_stmt 0 discriminator 4
	cmpwi 7,18,6406
	bne+ 7,$+8
	b .L4360
.LVL1006:
	.loc 1 1389 0 discriminator 1
	cmpwi 7,19,0
	ble- 7,.L170
.LBB5765:
	.loc 1 1389 0
	mullw 14,27,30
	li 5,0
.LVL1007:
	stw 5,3080(1)
	cmpwi 4,20,0
	cmpwi 0,29,0
	cmpwi 1,30,0
.LBB5766:
	cmpwi 6,15,0
.LBE5766:
	li 12,0
.LBB5788:
.LBB5767:
.LBB5768:
.LBB5769:
	.loc 1 174 0 is_stmt 1
	lis 10,0x4330
.LVL1008:
	lis 18,.LC9@ha
	lis 3,.LC15@ha
.LVL1009:
.L1440:
.LBE5769:
.LBE5768:
.LBE5767:
.LBE5788:
.LBE5765:
	.loc 1 1389 0 discriminator 1
	bgt+ 4,$+8
	b .L1462
	.loc 1 1389 0 is_stmt 0
	li 0,0
	li 15,0
.LBB5794:
	.loc 1 1065 0 is_stmt 1
	add 16,12,29
.LVL1010:
.L1465:
.LBE5794:
	.loc 1 1389 0 discriminator 1
	bne+ 0,$+8
	b .L1463
.LBB5795:
	.loc 1 1389 0 is_stmt 0
	cmplw 7,12,23
	bgt- 7,.L170
	addi 11,12,1
	mr 9,12
.LVL1011:
.L1464:
	.loc 1 1389 0 discriminator 2
	cmplw 7,24,9
	bgt- 7,.L1453
.LVL1012:
	.loc 1 1389 0 discriminator 1
	beq- 1,.L1455
.LBB5789:
	.loc 1 1389 0
	mullw 4,9,22
.LBE5789:
	li 8,0
	.loc 1 1065 0 is_stmt 1
	li 9,0
.LBB5790:
.LBB5780:
.LBB5773:
.LBB5770:
	.loc 1 174 0
	mtctr 30
.LBE5770:
.LBE5773:
.LBE5780:
.LBB5781:
.LBB5782:
	.loc 1 732 0
	add 4,21,4
	b .L1460
.LVL1013:
.L4361:
.LBE5782:
.LBE5781:
	.loc 1 1389 0 discriminator 2
	cmplw 7,8,26
	bgt- 7,.L1456
.LVL1014:
	.loc 1 1389 0 is_stmt 0 discriminator 1
	mullw 8,8,25
.LVL1015:
.LBB5784:
.LBB5783:
	.loc 1 732 0 is_stmt 1 discriminator 1
	lwzx 6,4,8
.LVL1016:
	.loc 1 734 0 discriminator 1
	srwi 7,6,24
.LVL1017:
	.loc 1 735 0 discriminator 1
	rlwinm 5,6,16,24,31
	.loc 1 736 0 discriminator 1
	rlwinm 8,6,24,24,31
.LVL1018:
	.loc 1 737 0 discriminator 1
	rlwinm 6,6,0,0xff
.LVL1019:
.LBE5783:
.LBE5784:
	.loc 1 1389 0 discriminator 1
	beq- 6,.L1459
	.loc 1 1389 0 is_stmt 0
	mr 17,7
	mr 7,8
.LVL1020:
	mr 8,17
.LVL1021:
.L1459:
.LBB5785:
.LBB5774:
.LBB5771:
	.loc 1 174 0 is_stmt 1 discriminator 2
	stw 7,1516(1)
	stw 10,1512(1)
	stw 5,1524(1)
	stw 10,1520(1)
	lfd 11,1512(1)
	lfd 12,1520(1)
	lfs 0,.LC9@l(18)
	stw 8,1532(1)
	stw 10,1528(1)
	fsub 11,11,0
	fsub 12,12,0
	lfd 13,1528(1)
	frsp 11,11
.LBE5771:
.LBE5774:
.LBB5775:
.LBB5776:
	.loc 1 122 0 discriminator 2
	stb 6,1(31)
.LBE5776:
.LBE5775:
.LBB5778:
.LBB5772:
	.loc 1 174 0 discriminator 2
	fsub 0,13,0
	lfs 13,.LC15@l(3)
	frsp 12,12
	addi 6,1,2548
	frsp 0,0
	fadds 12,11,12
	fadds 0,12,0
	fdivs 0,0,13
	fctiwz 0,0
	stfiwx 0,0,6
	lwz 8,2548(1)
.LVL1022:
	stb 8,0(31)
.LVL1023:
.LBE5772:
.LBE5778:
.LBB5779:
.LBB5777:
	.loc 1 122 0 discriminator 2
	addi 31,31,2
.LVL1024:
.L1458:
.LBE5777:
.LBE5779:
.LBE5785:
.LBE5790:
	.loc 1 1389 0 discriminator 20
	addi 9,9,1
.LVL1025:
	mr 8,9
	bdz .L1455
.LVL1026:
.L1460:
.LBB5791:
	.loc 1 1389 0 is_stmt 0 discriminator 2
	add 8,8,0
.LVL1027:
	cmplw 7,28,8
	ble- 7,.L4361
.L1456:
.LVL1028:
.LBB5786:
.LBB5787:
	.loc 2 350 0 is_stmt 1
	add 31,31,27
.LVL1029:
.LBE5787:
.LBE5786:
	.loc 1 1389 0
	b .L1458
.LVL1030:
.L1386:
.LBE5791:
.LBE5795:
	.loc 1 1389 0 is_stmt 0 discriminator 1
	cmpwi 7,19,0
	ble- 7,.L170
.LBB5796:
	.loc 1 1389 0
	mullw 14,27,30
	li 4,0
	stw 4,3080(1)
	cmpwi 4,20,0
	cmpwi 0,29,0
	cmpwi 1,30,0
.LBB5797:
	cmpwi 6,15,0
.LBE5797:
	li 12,0
.LBB5819:
.LBB5798:
.LBB5799:
.LBB5800:
	.loc 1 174 0 is_stmt 1
	lis 10,0x4330
.LVL1031:
	lis 18,.LC9@ha
	lis 3,.LC15@ha
.LVL1032:
.L1397:
.LBE5800:
.LBE5799:
.LBE5798:
.LBE5819:
.LBE5796:
	.loc 1 1389 0 discriminator 1
	ble- 4,.L1433
	.loc 1 1389 0 is_stmt 0
	li 0,0
	li 15,0
.LBB5825:
	.loc 1 1065 0 is_stmt 1
	add 16,12,29
.LVL1033:
.L1436:
.LBE5825:
	.loc 1 1389 0 discriminator 1
	beq- 0,.L1434
.LBB5826:
	.loc 1 1389 0 is_stmt 0
	cmplw 7,12,23
	bgt- 7,.L170
	addi 11,12,1
	mr 9,12
.LVL1034:
.L1435:
	.loc 1 1389 0 discriminator 2
	cmplw 7,24,9
	bgt- 7,.L1424
.LVL1035:
	.loc 1 1389 0 discriminator 1
	beq- 1,.L1426
.LBB5820:
	.loc 1 1389 0
	mullw 4,9,22
.LBE5820:
	li 8,0
	.loc 1 1065 0 is_stmt 1
	li 9,0
.LBB5821:
.LBB5811:
.LBB5804:
.LBB5801:
	.loc 1 174 0
	mtctr 30
.LBE5801:
.LBE5804:
.LBE5811:
.LBB5812:
.LBB5813:
	.loc 1 732 0
	add 4,21,4
	b .L1431
.LVL1036:
.L4362:
.LBE5813:
.LBE5812:
	.loc 1 1389 0 discriminator 2
	cmplw 7,8,26
	bgt- 7,.L1427
.LVL1037:
	.loc 1 1389 0 is_stmt 0 discriminator 1
	mullw 8,8,25
.LVL1038:
.LBB5815:
.LBB5814:
	.loc 1 732 0 is_stmt 1 discriminator 1
	lwzx 6,4,8
.LVL1039:
	.loc 1 734 0 discriminator 1
	srwi 7,6,24
.LVL1040:
	.loc 1 735 0 discriminator 1
	rlwinm 5,6,16,24,31
	.loc 1 736 0 discriminator 1
	rlwinm 8,6,24,24,31
.LVL1041:
	.loc 1 737 0 discriminator 1
	rlwinm 6,6,0,0xff
.LVL1042:
.LBE5814:
.LBE5815:
	.loc 1 1389 0 discriminator 1
	beq- 6,.L1430
	.loc 1 1389 0 is_stmt 0
	mr 17,7
	mr 7,8
.LVL1043:
	mr 8,17
.LVL1044:
.L1430:
.LBB5816:
.LBB5805:
.LBB5802:
	.loc 1 174 0 is_stmt 1 discriminator 2
	stw 7,1492(1)
	addi 17,1,2552
	stw 10,1488(1)
.LBE5802:
.LBE5805:
.LBB5806:
.LBB5807:
	.loc 1 115 0 discriminator 2
	srwi 6,6,4
.LVL1045:
.LBE5807:
.LBE5806:
.LBB5809:
.LBB5803:
	.loc 1 174 0 discriminator 2
	stw 5,1500(1)
	stw 10,1496(1)
	lfs 0,.LC9@l(18)
	lfd 11,1488(1)
	lfd 12,1496(1)
	stw 8,1508(1)
	fsub 11,11,0
	stw 10,1504(1)
	fsub 12,12,0
	lfd 13,1504(1)
	frsp 11,11
	frsp 12,12
	fsub 0,13,0
	lfs 13,.LC15@l(3)
	fadds 12,11,12
	frsp 0,0
	fadds 0,12,0
	fdivs 0,0,13
	fctiwz 0,0
	stfiwx 0,0,17
	lwz 8,2552(1)
.LVL1046:
.LBE5803:
.LBE5809:
.LBB5810:
.LBB5808:
	.loc 1 115 0 discriminator 2
	rlwinm 8,8,0,0,27
	or 6,8,6
	.loc 1 116 0 discriminator 2
	stb 6,0(31)
	addi 31,31,1
.LVL1047:
.L1429:
.LBE5808:
.LBE5810:
.LBE5816:
.LBE5821:
	.loc 1 1389 0 discriminator 15
	addi 9,9,1
.LVL1048:
	mr 8,9
	bdz .L1426
.LVL1049:
.L1431:
.LBB5822:
	.loc 1 1389 0 is_stmt 0 discriminator 2
	add 8,0,8
.LVL1050:
	cmplw 7,28,8
	ble- 7,.L4362
.L1427:
.LVL1051:
.LBB5817:
.LBB5818:
	.loc 2 350 0 is_stmt 1
	add 31,31,27
.LVL1052:
.LBE5818:
.LBE5817:
	.loc 1 1389 0
	b .L1429
.LVL1053:
.L1385:
.LBE5822:
.LBE5826:
	.loc 1 1389 0 is_stmt 0 discriminator 1
	cmpwi 7,19,0
	ble- 7,.L170
.LBB5827:
	.loc 1 1389 0
	mullw 3,27,30
.LVL1054:
	cmpwi 4,20,0
	cmpwi 0,29,0
	cmpwi 1,30,0
.LBB5828:
	cmpwi 6,15,0
.LBE5828:
	li 18,0
	li 17,0
.LBB5846:
.LBB5829:
.LBB5830:
.LBB5831:
	.loc 1 174 0 is_stmt 1
	lis 8,0x4330
.LVL1055:
	lis 5,.LC9@ha
.LVL1056:
	lis 6,.LC15@ha
.LVL1057:
.L1398:
.LBE5831:
.LBE5830:
.LBE5829:
.LBE5846:
.LBE5827:
	.loc 1 1389 0 discriminator 1
	ble- 4,.L1408
	.loc 1 1389 0 is_stmt 0
	li 11,0
	li 16,0
.LBB5852:
	.loc 1 1065 0 is_stmt 1
	add 4,18,29
.LVL1058:
.L1411:
.LBE5852:
	.loc 1 1389 0 discriminator 1
	beq- 0,.L1409
.LBB5853:
	.loc 1 1389 0 is_stmt 0
	cmplw 7,18,23
	bgt- 7,.L170
	addi 10,18,1
	mr 0,18
.LVL1059:
.L1410:
	.loc 1 1389 0 discriminator 2
	cmplw 7,24,0
	bgt- 7,.L1399
.LVL1060:
	.loc 1 1389 0 discriminator 1
	beq- 1,.L1401
.LBB5847:
	.loc 1 1389 0
	mullw 7,0,22
.LBE5847:
	.loc 1 1065 0 is_stmt 1
	li 9,0
	.loc 1 1389 0
	li 0,0
.LBB5848:
.LBB5838:
.LBB5834:
.LBB5832:
	.loc 1 174 0
	mtctr 30
.LBE5832:
.LBE5834:
.LBE5838:
.LBB5839:
.LBB5840:
	.loc 1 732 0
	add 7,21,7
	b .L1406
.LVL1061:
.L4363:
.LBE5840:
.LBE5839:
	.loc 1 1389 0 discriminator 2
	cmplw 7,0,26
	bgt- 7,.L1402
.LVL1062:
	.loc 1 1389 0 is_stmt 0 discriminator 1
	mullw 15,0,25
.LBB5842:
.LBB5841:
	.loc 1 732 0 is_stmt 1 discriminator 1
	lwzx 0,7,15
.LVL1063:
	.loc 1 734 0 discriminator 1
	srwi 15,0,24
.LVL1064:
	.loc 1 735 0 discriminator 1
	rlwinm 14,0,16,24,31
	.loc 1 736 0 discriminator 1
	rlwinm 0,0,24,24,31
.LVL1065:
.LBE5841:
.LBE5842:
	.loc 1 1389 0 discriminator 1
	beq- 6,.L1405
	.loc 1 1389 0 is_stmt 0
	mr 12,15
	mr 15,0
.LVL1066:
	mr 0,12
.LVL1067:
.L1405:
.LBB5843:
.LBB5835:
.LBB5833:
	.loc 1 174 0 is_stmt 1 discriminator 2
	stw 15,1468(1)
	addi 12,1,2556
	stw 8,1464(1)
	stw 14,1476(1)
	stw 8,1472(1)
	lfs 0,.LC9@l(5)
	lfd 11,1464(1)
	lfd 12,1472(1)
	stw 0,1484(1)
	fsub 11,11,0
	stw 8,1480(1)
	fsub 12,12,0
	lfd 13,1480(1)
	frsp 11,11
	frsp 12,12
	fsub 0,13,0
	lfs 13,.LC15@l(6)
	fadds 12,11,12
	frsp 0,0
	fadds 0,12,0
	fdivs 0,0,13
	fctiwz 0,0
	stfiwx 0,0,12
	lwz 0,2556(1)
.LVL1068:
	stb 0,0(31)
.LBE5833:
.LBE5835:
.LBB5836:
.LBB5837:
	.loc 1 122 0 discriminator 2
	addi 31,31,1
.LVL1069:
.L1404:
.LBE5837:
.LBE5836:
.LBE5843:
.LBE5848:
	.loc 1 1389 0 discriminator 10
	addi 9,9,1
.LVL1070:
	mr 0,9
	bdz .L1401
.LVL1071:
.L1406:
.LBB5849:
	.loc 1 1389 0 is_stmt 0 discriminator 2
	add 0,11,0
.LVL1072:
	cmplw 7,28,0
	ble- 7,.L4363
.L1402:
.LVL1073:
.LBB5844:
.LBB5845:
	.loc 2 350 0 is_stmt 1
	add 31,31,27
.LVL1074:
.LBE5845:
.LBE5844:
	.loc 1 1389 0
	b .L1404
.LVL1075:
.L988:
.LBE5849:
.LBE5853:
	.loc 1 1383 0 discriminator 1
	cmpwi 7,19,0
	ble- 7,.L170
.LBB5854:
	.loc 1 1383 0 is_stmt 0
	mullw 5,27,30
.LVL1076:
	cmpwi 4,20,0
	cmpwi 0,29,0
	cmpwi 1,30,0
.LBB5855:
	cmpwi 6,15,0
.LBE5855:
	li 6,0
	li 4,0
.LVL1077:
.L992:
.LBE5854:
	.loc 1 1383 0 discriminator 1
	ble- 4,.L1112
	.loc 1 1383 0
	li 11,0
	li 3,0
.LBB5877:
	.loc 1 1065 0 is_stmt 1
	add 7,6,29
.LVL1078:
.L1115:
.LBE5877:
	.loc 1 1383 0 discriminator 1
	beq- 0,.L1113
.LBB5878:
	.loc 1 1383 0 is_stmt 0
	cmplw 7,6,23
	bgt- 7,.L170
	addi 10,6,1
	mr 0,6
.LVL1079:
.L1114:
	.loc 1 1383 0 discriminator 2
	cmplw 7,24,0
	bgt- 7,.L1092
.LVL1080:
	.loc 1 1383 0 discriminator 1
	beq- 1,.L1094
.LBB5871:
	.loc 1 1383 0
	mullw 18,0,22
.LBE5871:
	.loc 1 1065 0 is_stmt 1
	li 9,0
	.loc 1 1383 0
	li 0,0
.LBB5872:
	mtctr 30
.LBB5856:
.LBB5857:
	.loc 1 705 0
	add 18,21,18
	b .L1100
.LVL1081:
.L4364:
.LBE5857:
.LBE5856:
	.loc 1 1383 0 discriminator 2
	cmplw 7,0,26
	bgt- 7,.L1095
.LVL1082:
	.loc 1 1383 0 is_stmt 0 discriminator 1
	mullw 8,0,25
.LBB5861:
.LBB5858:
	.loc 1 705 0 is_stmt 1 discriminator 1
	lhzx 0,18,8
.LVL1083:
	.loc 1 707 0 discriminator 1
	srwi 8,0,12
	mulli 8,8,17
	rlwinm 8,8,0,0xff
.LVL1084:
.LBE5858:
.LBE5861:
	.loc 1 1383 0 discriminator 1
	bne- 6,.L1098
.LBB5862:
.LBB5859:
	.loc 1 710 0
	rlwinm 0,0,0,28,31
.LVL1085:
	mulli 0,0,17
	rlwinm 0,0,0,0xff
.L1099:
.LVL1086:
.LBE5859:
.LBE5862:
.LBB5863:
.LBB5864:
.LBB5865:
	.loc 1 122 0 discriminator 2
	stb 8,0(31)
.LVL1087:
.LBE5865:
.LBE5864:
.LBB5866:
.LBB5867:
	stb 0,1(31)
	addi 31,31,2
.LVL1088:
.L1097:
.LBE5867:
.LBE5866:
.LBE5863:
.LBE5872:
	.loc 1 1383 0 discriminator 26
	addi 9,9,1
.LVL1089:
	mr 0,9
	bdz .L1094
.LVL1090:
.L1100:
.LBB5873:
	.loc 1 1383 0 is_stmt 0 discriminator 2
	add 0,0,11
.LVL1091:
	cmplw 7,28,0
	ble- 7,.L4364
.L1095:
.LVL1092:
.LBB5868:
.LBB5869:
	.loc 2 350 0 is_stmt 1
	add 31,31,27
.LVL1093:
.LBE5869:
.LBE5868:
	.loc 1 1383 0
	b .L1097
.LVL1094:
.L987:
.LBE5873:
.LBE5878:
	.loc 1 1383 0 is_stmt 0 discriminator 1
	cmpwi 7,19,0
	ble- 7,.L170
.LBB5879:
	.loc 1 1383 0
	mullw 3,27,30
.LVL1095:
	cmpwi 4,20,0
	cmpwi 0,29,0
	cmpwi 1,30,0
.LBB5880:
	cmpwi 6,15,0
.LBE5880:
	li 18,0
	li 17,0
.LBB5899:
.LBB5881:
.LBB5882:
.LBB5883:
	.loc 1 142 0 is_stmt 1
	li 4,-32768
.LVL1096:
.L993:
.LBE5883:
.LBE5882:
.LBE5881:
.LBE5899:
.LBE5879:
	.loc 1 1383 0 discriminator 1
	ble- 4,.L1075
	.loc 1 1383 0 is_stmt 0
	li 11,0
	li 16,0
.LBB5906:
	.loc 1 1065 0 is_stmt 1
	add 5,18,29
.LVL1097:
.L1078:
.LBE5906:
	.loc 1 1383 0 discriminator 1
	beq- 0,.L1076
.LBB5907:
	.loc 1 1383 0 is_stmt 0
	cmplw 7,18,23
	bgt- 7,.L170
	addi 10,18,1
	mr 0,18
.LVL1098:
.L1077:
	.loc 1 1383 0 discriminator 2
	cmplw 7,24,0
	bgt- 7,.L1064
.LVL1099:
	.loc 1 1383 0 discriminator 1
	beq- 1,.L1066
.LBB5900:
	.loc 1 1383 0
	mullw 6,0,22
.LBE5900:
	.loc 1 1065 0 is_stmt 1
	li 9,0
	.loc 1 1383 0
	li 0,0
.LBB5901:
.LBB5890:
.LBB5887:
.LBB5884:
	.loc 1 142 0
	mtctr 30
.LBE5884:
.LBE5887:
.LBE5890:
.LBB5891:
.LBB5892:
	.loc 1 705 0
	add 6,21,6
	b .L1073
.LVL1100:
.L4366:
.LBE5892:
.LBE5891:
	.loc 1 1383 0 discriminator 2
	cmplw 7,0,26
	bgt- 7,.L1067
.LVL1101:
	.loc 1 1383 0 is_stmt 0 discriminator 1
	mullw 8,0,25
.LBB5894:
.LBB5893:
	.loc 1 705 0 is_stmt 1 discriminator 1
	lhzx 0,6,8
.LVL1102:
	.loc 1 707 0 discriminator 1
	srwi 7,0,12
	.loc 1 708 0 discriminator 1
	rlwinm 8,0,24,28,31
	.loc 1 709 0 discriminator 1
	rlwinm 15,0,28,28,31
	.loc 1 710 0 discriminator 1
	rlwinm 0,0,0,28,31
.LVL1103:
	.loc 1 707 0 discriminator 1
	mulli 7,7,17
	.loc 1 708 0 discriminator 1
	mulli 8,8,17
	.loc 1 709 0 discriminator 1
	mulli 15,15,17
	.loc 1 707 0 discriminator 1
	rlwinm 7,7,0,0xff
	.loc 1 710 0 discriminator 1
	mulli 0,0,17
	.loc 1 708 0 discriminator 1
	rlwinm 8,8,0,0xff
.LVL1104:
	.loc 1 709 0 discriminator 1
	rlwinm 15,15,0,0xff
	.loc 1 710 0 discriminator 1
	rlwinm 0,0,0,0xff
.LVL1105:
.LBE5893:
.LBE5894:
	.loc 1 1383 0 discriminator 1
	beq- 6,.L1070
	.loc 1 1383 0 is_stmt 0
	mr 14,0
	mr 0,8
.LVL1106:
	mr 8,14
.LVL1107:
.L1070:
.LBB5895:
.LBB5888:
.LBB5885:
	.loc 1 140 0 is_stmt 1 discriminator 2
	cmplwi 7,7,224
	bgt- 7,.L4365
	.loc 1 146 0
	rlwinm 7,7,7,17,19
.LVL1108:
	rlwinm 15,15,0,24,27
.LVL1109:
	or 7,7,15
	srwi 8,8,4
.LVL1110:
	or 8,7,8
	rlwinm 0,0,4,20,23
.LVL1111:
	or 0,8,0
	rlwinm 0,0,0,0xffff
.LVL1112:
.L1072:
	.loc 1 149 0
	sth 0,0(31)
	addi 31,31,2
.LVL1113:
.L1069:
.LBE5885:
.LBE5888:
.LBE5895:
.LBE5901:
	.loc 1 1383 0 discriminator 22
	addi 9,9,1
.LVL1114:
	mr 0,9
	bdz .L1066
.LVL1115:
.L1073:
.LBB5902:
	.loc 1 1383 0 is_stmt 0 discriminator 2
	add 0,0,11
.LVL1116:
	cmplw 7,28,0
	ble- 7,.L4366
.L1067:
.LVL1117:
.LBB5896:
.LBB5897:
	.loc 2 350 0 is_stmt 1
	add 31,31,27
.LVL1118:
.LBE5897:
.LBE5896:
	.loc 1 1383 0
	b .L1069
.LVL1119:
.L1524:
.LBE5902:
.LBE5907:
	.loc 1 1391 0 discriminator 1
	cmpwi 7,19,0
	ble- 7,.L170
.LBB5908:
	.loc 1 1391 0 is_stmt 0
	mullw 5,27,30
.LVL1120:
	cmpwi 4,20,0
	cmpwi 0,29,0
	cmpwi 1,30,0
.LBB5909:
	cmpwi 6,15,0
.LBE5909:
	li 6,0
	li 4,0
.LVL1121:
.L1528:
.LBE5908:
	.loc 1 1391 0 discriminator 1
	ble- 4,.L1648
	.loc 1 1391 0
	li 11,0
	li 3,0
.LBB5931:
	.loc 1 1065 0 is_stmt 1
	add 7,6,29
.LVL1122:
.L1651:
.LBE5931:
	.loc 1 1391 0 discriminator 1
	beq- 0,.L1649
.LBB5932:
	.loc 1 1391 0 is_stmt 0
	cmplw 7,6,23
	bgt- 7,.L170
	addi 10,6,1
	mr 0,6
.LVL1123:
.L1650:
	.loc 1 1391 0 discriminator 2
	cmplw 7,24,0
	bgt- 7,.L1628
.LVL1124:
	.loc 1 1391 0 discriminator 1
	beq- 1,.L1630
.LBB5925:
	.loc 1 1391 0
	mullw 18,0,22
.LBE5925:
	.loc 1 1065 0 is_stmt 1
	li 9,0
	.loc 1 1391 0
	li 0,0
.LBB5926:
	mtctr 30
.LBB5910:
.LBB5911:
	.loc 1 741 0
	add 18,21,18
	b .L1636
.LVL1125:
.L4367:
.LBE5911:
.LBE5910:
	.loc 1 1391 0 discriminator 2
	cmplw 7,0,26
	bgt- 7,.L1631
.LVL1126:
	.loc 1 1391 0 is_stmt 0 discriminator 1
	mullw 8,0,25
.LBB5915:
.LBB5912:
	.loc 1 741 0 is_stmt 1 discriminator 1
	lwzx 0,18,8
.LVL1127:
	.loc 1 743 0 discriminator 1
	srwi 8,0,24
.LVL1128:
.LBE5912:
.LBE5915:
	.loc 1 1391 0 discriminator 1
	bne- 6,.L1634
.LBB5916:
.LBB5913:
	.loc 1 746 0
	rlwinm 0,0,0,0xff
.LVL1129:
.L1635:
.LBE5913:
.LBE5916:
.LBB5917:
.LBB5918:
.LBB5919:
	.loc 1 122 0 discriminator 2
	stb 8,0(31)
.LVL1130:
.LBE5919:
.LBE5918:
.LBB5920:
.LBB5921:
	stb 0,1(31)
	addi 31,31,2
.LVL1131:
.L1633:
.LBE5921:
.LBE5920:
.LBE5917:
.LBE5926:
	.loc 1 1391 0 discriminator 26
	addi 9,9,1
.LVL1132:
	mr 0,9
	bdz .L1630
.LVL1133:
.L1636:
.LBB5927:
	.loc 1 1391 0 is_stmt 0 discriminator 2
	add 0,11,0
.LVL1134:
	cmplw 7,28,0
	ble- 7,.L4367
.L1631:
.LVL1135:
.LBB5922:
.LBB5923:
	.loc 2 350 0 is_stmt 1
	add 31,31,27
.LVL1136:
.LBE5923:
.LBE5922:
	.loc 1 1391 0
	b .L1633
.LVL1137:
.L1523:
.LBE5927:
.LBE5932:
	.loc 1 1391 0 is_stmt 0 discriminator 1
	cmpwi 7,19,0
	ble- 7,.L170
.LBB5933:
	.loc 1 1391 0
	mullw 3,27,30
.LVL1138:
	cmpwi 4,20,0
	cmpwi 0,29,0
	cmpwi 1,30,0
.LBB5934:
	cmpwi 6,15,0
.LBE5934:
	li 18,0
	li 17,0
.LBB5953:
.LBB5935:
.LBB5936:
.LBB5937:
	.loc 1 142 0 is_stmt 1
	li 4,-32768
.LVL1139:
.L1529:
.LBE5937:
.LBE5936:
.LBE5935:
.LBE5953:
.LBE5933:
	.loc 1 1391 0 discriminator 1
	ble- 4,.L1611
	.loc 1 1391 0 is_stmt 0
	li 11,0
	li 16,0
.LBB5960:
	.loc 1 1065 0 is_stmt 1
	add 5,18,29
.LVL1140:
.L1614:
.LBE5960:
	.loc 1 1391 0 discriminator 1
	beq- 0,.L1612
.LBB5961:
	.loc 1 1391 0 is_stmt 0
	cmplw 7,18,23
	bgt- 7,.L170
	addi 10,18,1
	mr 0,18
.LVL1141:
.L1613:
	.loc 1 1391 0 discriminator 2
	cmplw 7,24,0
	bgt- 7,.L1600
.LVL1142:
	.loc 1 1391 0 discriminator 1
	beq- 1,.L1602
.LBB5954:
	.loc 1 1391 0
	mullw 6,0,22
.LBE5954:
	.loc 1 1065 0 is_stmt 1
	li 9,0
	.loc 1 1391 0
	li 0,0
.LBB5955:
.LBB5944:
.LBB5941:
.LBB5938:
	.loc 1 142 0
	mtctr 30
.LBE5938:
.LBE5941:
.LBE5944:
.LBB5945:
.LBB5946:
	.loc 1 741 0
	add 6,21,6
	b .L1609
.LVL1143:
.L4369:
.LBE5946:
.LBE5945:
	.loc 1 1391 0 discriminator 2
	cmplw 7,0,26
	bgt- 7,.L1603
.LVL1144:
	.loc 1 1391 0 is_stmt 0 discriminator 1
	mullw 8,0,25
.LBB5948:
.LBB5947:
	.loc 1 741 0 is_stmt 1 discriminator 1
	lwzx 0,6,8
.LVL1145:
	.loc 1 743 0 discriminator 1
	srwi 7,0,24
	.loc 1 744 0 discriminator 1
	rlwinm 8,0,16,24,31
.LVL1146:
	.loc 1 745 0 discriminator 1
	rlwinm 15,0,24,24,31
	.loc 1 746 0 discriminator 1
	rlwinm 0,0,0,0xff
.LVL1147:
.LBE5947:
.LBE5948:
	.loc 1 1391 0 discriminator 1
	beq- 6,.L1606
	.loc 1 1391 0 is_stmt 0
	mr 14,0
	mr 0,8
.LVL1148:
	mr 8,14
.LVL1149:
.L1606:
.LBB5949:
.LBB5942:
.LBB5939:
	.loc 1 140 0 is_stmt 1 discriminator 2
	cmplwi 7,7,224
	bgt- 7,.L4368
	.loc 1 146 0
	rlwinm 7,7,7,17,19
.LVL1150:
	rlwinm 15,15,0,24,27
.LVL1151:
	or 7,7,15
	srwi 8,8,4
.LVL1152:
	or 8,7,8
	rlwinm 0,0,4,20,23
.LVL1153:
	or 0,8,0
	rlwinm 0,0,0,0xffff
.LVL1154:
.L1608:
	.loc 1 149 0
	sth 0,0(31)
	addi 31,31,2
.LVL1155:
.L1605:
.LBE5939:
.LBE5942:
.LBE5949:
.LBE5955:
	.loc 1 1391 0 discriminator 22
	addi 9,9,1
.LVL1156:
	mr 0,9
	bdz .L1602
.LVL1157:
.L1609:
.LBB5956:
	.loc 1 1391 0 is_stmt 0 discriminator 2
	add 0,11,0
.LVL1158:
	cmplw 7,28,0
	ble- 7,.L4369
.L1603:
.LVL1159:
.LBB5950:
.LBB5951:
	.loc 2 350 0 is_stmt 1
	add 31,31,27
.LVL1160:
.LBE5951:
.LBE5950:
	.loc 1 1391 0
	b .L1605
.LVL1161:
.L989:
.LBE5956:
.LBE5961:
	.loc 1 1383 0 discriminator 1
	cmpwi 7,19,0
	ble- 7,.L170
.LBB5962:
	.loc 1 1383 0 is_stmt 0
	mullw 6,27,30
	cmpwi 4,20,0
	cmpwi 1,29,0
	cmpwi 6,30,0
	li 5,0
.LVL1162:
	li 4,0
.LVL1163:
.L991:
.LBE5962:
	.loc 1 1383 0 discriminator 1
	ble- 4,.L1018
	.loc 1 1383 0
	li 11,0
	li 3,0
.LBB5977:
	.loc 1 1065 0 is_stmt 1
	add 7,5,29
.LVL1164:
.L1021:
.LBE5977:
	.loc 1 1383 0 discriminator 1
	beq- 1,.L1019
.LBB5978:
	.loc 1 1383 0 is_stmt 0
	cmplw 7,5,23
	bgt- 7,.L170
	addi 10,5,1
	mr 0,5
.LVL1165:
.L1020:
	.loc 1 1383 0 discriminator 2
	cmplw 7,24,0
	bgt- 7,.L1010
.LVL1166:
	.loc 1 1383 0 discriminator 1
	beq- 6,.L1012
.LBB5963:
	.loc 1 1383 0
	mullw 18,0,22
.LBE5963:
	.loc 1 1065 0 is_stmt 1
	li 9,0
	.loc 1 1383 0
	li 0,0
.LBB5973:
.LBB5964:
.LBB5965:
	.loc 1 705 0
	mtctr 30
	add 18,21,18
	b .L1016
.LVL1167:
.L4370:
.LBE5965:
.LBE5964:
	.loc 1 1383 0 discriminator 2
	cmplw 7,0,26
	bgt- 7,.L1013
.LVL1168:
	.loc 1 1383 0 is_stmt 0 discriminator 1
	mullw 8,0,25
.LBB5967:
.LBB5966:
	.loc 1 707 0 is_stmt 1 discriminator 1
	lhzx 0,18,8
.LVL1169:
	srwi 0,0,12
	mulli 0,0,17
.LBE5966:
.LBE5967:
.LBB5968:
.LBB5969:
.LBB5970:
	.loc 1 122 0 discriminator 1
	stb 0,0(31)
	addi 31,31,1
.LVL1170:
.L1015:
.LBE5970:
.LBE5969:
.LBE5968:
.LBE5973:
	.loc 1 1383 0 discriminator 13
	addi 9,9,1
.LVL1171:
	mr 0,9
	bdz .L1012
.LVL1172:
.L1016:
.LBB5974:
	.loc 1 1383 0 is_stmt 0 discriminator 2
	add 0,11,0
.LVL1173:
	cmplw 7,28,0
	ble- 7,.L4370
.L1013:
.LVL1174:
.LBB5971:
.LBB5972:
	.loc 2 350 0 is_stmt 1
	add 31,31,27
.LVL1175:
.LBE5972:
.LBE5971:
	.loc 1 1383 0
	b .L1015
.LVL1176:
.L855:
.LBE5974:
.LBE5978:
	.loc 1 1381 0 discriminator 1
	cmpwi 7,19,0
	ble- 7,.L170
.LBB5979:
	.loc 1 1381 0 is_stmt 0
	mullw 6,27,30
	cmpwi 4,20,0
	cmpwi 1,29,0
	cmpwi 6,30,0
	li 5,0
.LVL1177:
	li 4,0
.LVL1178:
.L857:
.LBE5979:
	.loc 1 1381 0 discriminator 1
	ble- 4,.L884
	.loc 1 1381 0
	li 11,0
	li 3,0
.LBB5994:
	.loc 1 1065 0 is_stmt 1
	add 7,5,29
.LVL1179:
.L887:
.LBE5994:
	.loc 1 1381 0 discriminator 1
	beq- 1,.L885
.LBB5995:
	.loc 1 1381 0 is_stmt 0
	cmplw 7,5,23
	bgt- 7,.L170
	addi 10,5,1
	mr 0,5
.LVL1180:
.L886:
	.loc 1 1381 0 discriminator 2
	cmplw 7,24,0
	bgt- 7,.L876
.LVL1181:
	.loc 1 1381 0 discriminator 1
	beq- 6,.L878
.LBB5980:
	.loc 1 1381 0
	mullw 18,0,22
.LBE5980:
	.loc 1 1065 0 is_stmt 1
	li 9,0
	.loc 1 1381 0
	li 0,0
.LBB5990:
.LBB5981:
.LBB5982:
	.loc 1 696 0
	mtctr 30
	add 18,21,18
	b .L882
.LVL1182:
.L4371:
.LBE5982:
.LBE5981:
	.loc 1 1381 0 discriminator 2
	cmplw 7,0,26
	bgt- 7,.L879
.LVL1183:
	.loc 1 1381 0 is_stmt 0 discriminator 1
	mullw 8,0,25
.LBB5984:
.LBB5983:
	.loc 1 701 0 is_stmt 1 discriminator 1
	lhzx 0,18,8
.LVL1184:
	rlwinm 0,0,0,28,31
	mulli 0,0,17
.LBE5983:
.LBE5984:
.LBB5985:
.LBB5986:
.LBB5987:
	.loc 1 122 0 discriminator 1
	stb 0,0(31)
	addi 31,31,1
.LVL1185:
.L881:
.LBE5987:
.LBE5986:
.LBE5985:
.LBE5990:
	.loc 1 1381 0 discriminator 13
	addi 9,9,1
.LVL1186:
	mr 0,9
	bdz .L878
.LVL1187:
.L882:
.LBB5991:
	.loc 1 1381 0 is_stmt 0 discriminator 2
	add 0,0,11
.LVL1188:
	cmplw 7,28,0
	ble- 7,.L4371
.L879:
.LVL1189:
.LBB5988:
.LBB5989:
	.loc 2 350 0 is_stmt 1
	add 31,31,27
.LVL1190:
.LBE5989:
.LBE5988:
	.loc 1 1381 0
	b .L881
.LVL1191:
.L854:
.LBE5991:
.LBE5995:
	.loc 1 1381 0 is_stmt 0 discriminator 1
	cmpwi 7,19,0
	ble- 7,.L170
.LBB5996:
	.loc 1 1381 0
	mullw 5,27,30
.LVL1192:
	cmpwi 4,20,0
	cmpwi 0,29,0
	cmpwi 1,30,0
.LBB5997:
	cmpwi 6,15,0
.LBE5997:
	li 6,0
	li 4,0
.LVL1193:
.L858:
.LBE5996:
	.loc 1 1381 0 discriminator 1
	ble- 4,.L978
	.loc 1 1381 0
	li 11,0
	li 3,0
.LBB6019:
	.loc 1 1065 0 is_stmt 1
	add 7,6,29
.LVL1194:
.L981:
.LBE6019:
	.loc 1 1381 0 discriminator 1
	beq- 0,.L979
.LBB6020:
	.loc 1 1381 0 is_stmt 0
	cmplw 7,6,23
	bgt- 7,.L170
	addi 10,6,1
	mr 0,6
.LVL1195:
.L980:
	.loc 1 1381 0 discriminator 2
	cmplw 7,24,0
	bgt- 7,.L958
.LVL1196:
	.loc 1 1381 0 discriminator 1
	beq- 1,.L960
.LBB6013:
	.loc 1 1381 0
	mullw 18,0,22
.LBE6013:
	.loc 1 1065 0 is_stmt 1
	li 9,0
	.loc 1 1381 0
	li 0,0
.LBB6014:
	mtctr 30
.LBB5998:
.LBB5999:
	.loc 1 696 0
	add 18,21,18
	b .L966
.LVL1197:
.L4372:
.LBE5999:
.LBE5998:
	.loc 1 1381 0 discriminator 2
	cmplw 7,0,26
	bgt- 7,.L961
.LVL1198:
	.loc 1 1381 0 is_stmt 0 discriminator 1
	mullw 8,0,25
.LBB6003:
.LBB6000:
	.loc 1 696 0 is_stmt 1 discriminator 1
	lhzx 0,18,8
.LVL1199:
	.loc 1 701 0 discriminator 1
	rlwinm 8,0,0,28,31
	mulli 8,8,17
	rlwinm 8,8,0,0xff
.LBE6000:
.LBE6003:
	.loc 1 1381 0 discriminator 1
	bne- 6,.L964
.LBB6004:
.LBB6001:
	.loc 1 698 0
	srwi 0,0,12
.LVL1200:
	mulli 0,0,17
	rlwinm 0,0,0,0xff
.L965:
.LVL1201:
.LBE6001:
.LBE6004:
.LBB6005:
.LBB6006:
.LBB6007:
	.loc 1 122 0 discriminator 2
	stb 8,0(31)
.LVL1202:
.LBE6007:
.LBE6006:
.LBB6008:
.LBB6009:
	stb 0,1(31)
	addi 31,31,2
.LVL1203:
.L963:
.LBE6009:
.LBE6008:
.LBE6005:
.LBE6014:
	.loc 1 1381 0 discriminator 26
	addi 9,9,1
.LVL1204:
	mr 0,9
	bdz .L960
.LVL1205:
.L966:
.LBB6015:
	.loc 1 1381 0 is_stmt 0 discriminator 2
	add 0,11,0
.LVL1206:
	cmplw 7,28,0
	ble- 7,.L4372
.L961:
.LVL1207:
.LBB6010:
.LBB6011:
	.loc 2 350 0 is_stmt 1
	add 31,31,27
.LVL1208:
.LBE6011:
.LBE6010:
	.loc 1 1381 0
	b .L963
.LVL1209:
.L853:
.LBE6015:
.LBE6020:
	.loc 1 1381 0 is_stmt 0 discriminator 1
	cmpwi 7,19,0
	ble- 7,.L170
.LBB6021:
	.loc 1 1381 0
	mullw 3,27,30
.LVL1210:
	cmpwi 4,20,0
	cmpwi 0,29,0
	cmpwi 1,30,0
.LBB6022:
	cmpwi 6,15,0
.LBE6022:
	li 18,0
	li 17,0
.LBB6041:
.LBB6023:
.LBB6024:
.LBB6025:
	.loc 1 142 0 is_stmt 1
	li 4,-32768
.LVL1211:
.L859:
.LBE6025:
.LBE6024:
.LBE6023:
.LBE6041:
.LBE6021:
	.loc 1 1381 0 discriminator 1
	ble- 4,.L941
	.loc 1 1381 0 is_stmt 0
	li 11,0
	li 16,0
.LBB6048:
	.loc 1 1065 0 is_stmt 1
	add 5,18,29
.LVL1212:
.L944:
.LBE6048:
	.loc 1 1381 0 discriminator 1
	beq- 0,.L942
.LBB6049:
	.loc 1 1381 0 is_stmt 0
	cmplw 7,18,23
	bgt- 7,.L170
	addi 10,18,1
	mr 0,18
.LVL1213:
.L943:
	.loc 1 1381 0 discriminator 2
	cmplw 7,24,0
	bgt- 7,.L930
.LVL1214:
	.loc 1 1381 0 discriminator 1
	beq- 1,.L932
.LBB6042:
	.loc 1 1381 0
	mullw 6,0,22
.LBE6042:
	.loc 1 1065 0 is_stmt 1
	li 9,0
	.loc 1 1381 0
	li 0,0
.LBB6043:
.LBB6032:
.LBB6029:
.LBB6026:
	.loc 1 142 0
	mtctr 30
.LBE6026:
.LBE6029:
.LBE6032:
.LBB6033:
.LBB6034:
	.loc 1 696 0
	add 6,21,6
	b .L939
.LVL1215:
.L4374:
.LBE6034:
.LBE6033:
	.loc 1 1381 0 discriminator 2
	cmplw 7,0,26
	bgt- 7,.L933
.LVL1216:
	.loc 1 1381 0 is_stmt 0 discriminator 1
	mullw 8,0,25
.LBB6036:
.LBB6035:
	.loc 1 696 0 is_stmt 1 discriminator 1
	lhzx 0,6,8
.LVL1217:
	.loc 1 698 0 discriminator 1
	srwi 8,0,12
	.loc 1 699 0 discriminator 1
	rlwinm 15,0,24,28,31
	.loc 1 700 0 discriminator 1
	rlwinm 7,0,28,28,31
	.loc 1 701 0 discriminator 1
	rlwinm 0,0,0,28,31
.LVL1218:
	.loc 1 698 0 discriminator 1
	mulli 8,8,17
	.loc 1 699 0 discriminator 1
	mulli 15,15,17
	.loc 1 700 0 discriminator 1
	mulli 7,7,17
	.loc 1 698 0 discriminator 1
	rlwinm 8,8,0,0xff
.LVL1219:
	.loc 1 701 0 discriminator 1
	mulli 0,0,17
	.loc 1 699 0 discriminator 1
	rlwinm 15,15,0,0xff
	.loc 1 700 0 discriminator 1
	rlwinm 7,7,0,0xff
.LVL1220:
	.loc 1 701 0 discriminator 1
	rlwinm 0,0,0,0xff
.LBE6035:
.LBE6036:
	.loc 1 1381 0 discriminator 1
	beq- 6,.L936
	.loc 1 1381 0 is_stmt 0
	mr 14,8
	mr 8,7
.LVL1221:
	mr 7,14
.LVL1222:
.L936:
.LBB6037:
.LBB6030:
.LBB6027:
	.loc 1 140 0 is_stmt 1 discriminator 2
	cmplwi 7,0,224
	bgt- 7,.L4373
	.loc 1 146 0
	rlwinm 0,0,7,17,19
.LVL1223:
	rlwinm 15,15,0,24,27
.LVL1224:
	or 0,0,15
	srwi 7,7,4
.LVL1225:
	or 0,0,7
	rlwinm 8,8,4,20,23
.LVL1226:
	or 0,0,8
	rlwinm 0,0,0,0xffff
.LVL1227:
.L938:
	.loc 1 149 0
	sth 0,0(31)
	addi 31,31,2
.LVL1228:
.L935:
.LBE6027:
.LBE6030:
.LBE6037:
.LBE6043:
	.loc 1 1381 0 discriminator 22
	addi 9,9,1
.LVL1229:
	mr 0,9
	bdz .L932
.LVL1230:
.L939:
.LBB6044:
	.loc 1 1381 0 is_stmt 0 discriminator 2
	add 0,0,11
.LVL1231:
	cmplw 7,28,0
	ble- 7,.L4374
.L933:
.LVL1232:
.LBB6038:
.LBB6039:
	.loc 2 350 0 is_stmt 1
	add 31,31,27
.LVL1233:
.LBE6039:
.LBE6038:
	.loc 1 1381 0
	b .L935
.LVL1234:
.L852:
.LBE6044:
.LBE6049:
	.loc 1 1381 0 is_stmt 0 discriminator 1
	cmpwi 7,19,0
	ble- 7,.L170
.LBB6050:
	.loc 1 1381 0
	mullw 5,27,30
.LVL1235:
	cmpwi 4,20,0
	cmpwi 0,29,0
	cmpwi 1,30,0
.LBB6051:
	cmpwi 6,15,0
.LBE6051:
	li 4,0
	li 3,0
.LVL1236:
.L860:
.LBE6050:
	.loc 1 1381 0 discriminator 1
	ble- 4,.L954
	.loc 1 1381 0
	li 11,0
	li 18,0
.LBB6066:
	.loc 1 1065 0 is_stmt 1
	add 6,4,29
.LVL1237:
.L957:
.LBE6066:
	.loc 1 1381 0 discriminator 1
	beq- 0,.L955
.LBB6067:
	.loc 1 1381 0 is_stmt 0
	cmplw 7,4,23
	bgt- 7,.L170
	addi 10,4,1
	mr 0,4
.LVL1238:
.L956:
	.loc 1 1381 0 discriminator 2
	cmplw 7,24,0
	bgt- 7,.L945
.LVL1239:
	.loc 1 1381 0 discriminator 1
	beq- 1,.L947
.LBB6061:
	.loc 1 1381 0
	mullw 7,0,22
.LBE6061:
	.loc 1 1065 0 is_stmt 1
	li 9,0
	.loc 1 1381 0
	li 0,0
.LBB6062:
	mtctr 30
.LBB6052:
.LBB6053:
	.loc 1 696 0
	add 7,21,7
	b .L952
.LVL1240:
.L4375:
.LBE6053:
.LBE6052:
	.loc 1 1381 0 discriminator 2
	cmplw 7,0,26
	bgt- 7,.L948
.LVL1241:
	.loc 1 1381 0 is_stmt 0 discriminator 1
	mullw 8,0,25
.LBB6055:
.LBB6054:
	.loc 1 696 0 is_stmt 1 discriminator 1
	lhzx 0,7,8
.LVL1242:
	.loc 1 698 0 discriminator 1
	srwi 8,0,12
	.loc 1 699 0 discriminator 1
	rlwinm 17,0,24,28,31
	.loc 1 700 0 discriminator 1
	rlwinm 0,0,28,28,31
.LVL1243:
	.loc 1 698 0 discriminator 1
	mulli 8,8,17
	.loc 1 699 0 discriminator 1
	mulli 17,17,17
	.loc 1 700 0 discriminator 1
	mulli 0,0,17
	.loc 1 698 0 discriminator 1
	rlwinm 8,8,0,0xff
.LVL1244:
	.loc 1 699 0 discriminator 1
	rlwinm 17,17,0,0xff
	.loc 1 700 0 discriminator 1
	rlwinm 0,0,0,0xff
.LVL1245:
.LBE6054:
.LBE6055:
	.loc 1 1381 0 discriminator 1
	beq- 6,.L951
	.loc 1 1381 0 is_stmt 0
	mr 16,8
	mr 8,0
.LVL1246:
	mr 0,16
.LVL1247:
.L951:
.LBB6056:
.LBB6057:
.LBB6058:
	.loc 1 130 0 is_stmt 1 discriminator 2
	srwi 0,0,3
.LVL1248:
	rlwinm 17,17,3,21,26
.LVL1249:
	or 0,0,17
	rlwinm 8,8,8,16,20
.LVL1250:
	or 8,0,8
	.loc 1 132 0 discriminator 2
	sth 8,0(31)
	addi 31,31,2
.LVL1251:
.L950:
.LBE6058:
.LBE6057:
.LBE6056:
.LBE6062:
	.loc 1 1381 0 discriminator 24
	addi 9,9,1
.LVL1252:
	mr 0,9
	bdz .L947
.LVL1253:
.L952:
.LBB6063:
	.loc 1 1381 0 is_stmt 0 discriminator 2
	add 0,0,11
.LVL1254:
	cmplw 7,28,0
	ble- 7,.L4375
.L948:
.LVL1255:
.LBB6059:
.LBB6060:
	.loc 2 350 0 is_stmt 1
	add 31,31,27
.LVL1256:
.LBE6060:
.LBE6059:
	.loc 1 1381 0
	b .L950
.LVL1257:
.L851:
.LBE6063:
.LBE6067:
	.loc 1 1381 0 is_stmt 0 discriminator 4
	cmpwi 7,18,6406
	bne+ 7,$+8
	b .L4376
.LVL1258:
	.loc 1 1381 0 discriminator 1
	cmpwi 7,19,0
	ble- 7,.L170
.LBB6068:
	.loc 1 1381 0
	mullw 14,27,30
	li 5,0
.LVL1259:
	stw 5,3080(1)
	cmpwi 4,20,0
	cmpwi 0,29,0
	cmpwi 1,30,0
.LBB6069:
	cmpwi 6,15,0
.LBE6069:
	li 12,0
.LBB6091:
.LBB6070:
.LBB6071:
.LBB6072:
	.loc 1 174 0 is_stmt 1
	lis 10,0x4330
.LVL1260:
	lis 18,.LC9@ha
	lis 3,.LC15@ha
.LVL1261:
.L904:
.LBE6072:
.LBE6071:
.LBE6070:
.LBE6091:
.LBE6068:
	.loc 1 1381 0 discriminator 1
	bgt+ 4,$+8
	b .L926
	.loc 1 1381 0 is_stmt 0
	li 0,0
	li 15,0
.LBB6097:
	.loc 1 1065 0 is_stmt 1
	add 16,12,29
.LVL1262:
.L929:
.LBE6097:
	.loc 1 1381 0 discriminator 1
	bne+ 0,$+8
	b .L927
.LBB6098:
	.loc 1 1381 0 is_stmt 0
	cmplw 7,12,23
	bgt- 7,.L170
	addi 11,12,1
	mr 9,12
.LVL1263:
.L928:
	.loc 1 1381 0 discriminator 2
	cmplw 7,24,9
	bgt- 7,.L917
.LVL1264:
	.loc 1 1381 0 discriminator 1
	beq- 1,.L919
.LBB6092:
	.loc 1 1381 0
	mullw 4,9,22
.LBE6092:
	li 8,0
	.loc 1 1065 0 is_stmt 1
	li 9,0
.LBB6093:
.LBB6083:
.LBB6076:
.LBB6073:
	.loc 1 174 0
	mtctr 30
.LBE6073:
.LBE6076:
.LBE6083:
.LBB6084:
.LBB6085:
	.loc 1 696 0
	add 4,21,4
	b .L924
.LVL1265:
.L4377:
.LBE6085:
.LBE6084:
	.loc 1 1381 0 discriminator 2
	cmplw 7,8,26
	bgt- 7,.L920
.LVL1266:
	.loc 1 1381 0 is_stmt 0 discriminator 1
	mullw 8,8,25
.LVL1267:
.LBB6087:
.LBB6086:
	.loc 1 696 0 is_stmt 1 discriminator 1
	lhzx 6,4,8
.LVL1268:
	.loc 1 698 0 discriminator 1
	srwi 7,6,12
	.loc 1 699 0 discriminator 1
	rlwinm 5,6,24,28,31
	.loc 1 700 0 discriminator 1
	rlwinm 8,6,28,28,31
	.loc 1 701 0 discriminator 1
	rlwinm 6,6,0,28,31
.LVL1269:
	.loc 1 698 0 discriminator 1
	mulli 7,7,17
	.loc 1 699 0 discriminator 1
	mulli 5,5,17
	.loc 1 700 0 discriminator 1
	mulli 8,8,17
	.loc 1 698 0 discriminator 1
	rlwinm 7,7,0,0xff
.LVL1270:
	.loc 1 701 0 discriminator 1
	mulli 6,6,17
	.loc 1 699 0 discriminator 1
	rlwinm 5,5,0,0xff
	.loc 1 700 0 discriminator 1
	rlwinm 8,8,0,0xff
.LVL1271:
	.loc 1 701 0 discriminator 1
	rlwinm 6,6,0,0xff
.LBE6086:
.LBE6087:
	.loc 1 1381 0 discriminator 1
	beq- 6,.L923
	.loc 1 1381 0 is_stmt 0
	mr 17,7
	mr 7,8
.LVL1272:
	mr 8,17
.LVL1273:
.L923:
.LBB6088:
.LBB6077:
.LBB6074:
	.loc 1 174 0 is_stmt 1 discriminator 2
	stw 7,908(1)
	stw 10,904(1)
	stw 5,916(1)
	stw 10,912(1)
	lfd 11,904(1)
	lfd 12,912(1)
	lfs 0,.LC9@l(18)
	stw 8,924(1)
	stw 10,920(1)
	fsub 11,11,0
	fsub 12,12,0
	lfd 13,920(1)
	frsp 11,11
.LBE6074:
.LBE6077:
.LBB6078:
.LBB6079:
	.loc 1 122 0 discriminator 2
	stb 6,1(31)
.LBE6079:
.LBE6078:
.LBB6081:
.LBB6075:
	.loc 1 174 0 discriminator 2
	fsub 0,13,0
	lfs 13,.LC15@l(3)
	frsp 12,12
	addi 6,1,2756
	frsp 0,0
	fadds 12,11,12
	fadds 0,12,0
	fdivs 0,0,13
	fctiwz 0,0
	stfiwx 0,0,6
	lwz 8,2756(1)
.LVL1274:
	stb 8,0(31)
.LVL1275:
.LBE6075:
.LBE6081:
.LBB6082:
.LBB6080:
	.loc 1 122 0 discriminator 2
	addi 31,31,2
.LVL1276:
.L922:
.LBE6080:
.LBE6082:
.LBE6088:
.LBE6093:
	.loc 1 1381 0 discriminator 20
	addi 9,9,1
.LVL1277:
	mr 8,9
	bdz .L919
.LVL1278:
.L924:
.LBB6094:
	.loc 1 1381 0 is_stmt 0 discriminator 2
	add 8,0,8
.LVL1279:
	cmplw 7,28,8
	ble- 7,.L4377
.L920:
.LVL1280:
.LBB6089:
.LBB6090:
	.loc 2 350 0 is_stmt 1
	add 31,31,27
.LVL1281:
.LBE6090:
.LBE6089:
	.loc 1 1381 0
	b .L922
.LVL1282:
.L850:
.LBE6094:
.LBE6098:
	.loc 1 1381 0 is_stmt 0 discriminator 1
	cmpwi 7,19,0
	ble- 7,.L170
.LBB6099:
	.loc 1 1381 0
	mullw 14,27,30
	li 4,0
	stw 4,3080(1)
	cmpwi 4,20,0
	cmpwi 0,29,0
	cmpwi 1,30,0
.LBB6100:
	cmpwi 6,15,0
.LBE6100:
	li 12,0
.LBB6122:
.LBB6101:
.LBB6102:
.LBB6103:
	.loc 1 174 0 is_stmt 1
	lis 10,0x4330
.LVL1283:
	lis 18,.LC9@ha
	lis 3,.LC15@ha
.LVL1284:
.L861:
.LBE6103:
.LBE6102:
.LBE6101:
.LBE6122:
.LBE6099:
	.loc 1 1381 0 discriminator 1
	ble- 4,.L897
	.loc 1 1381 0 is_stmt 0
	li 0,0
	li 15,0
.LBB6128:
	.loc 1 1065 0 is_stmt 1
	add 16,12,29
.LVL1285:
.L900:
.LBE6128:
	.loc 1 1381 0 discriminator 1
	beq- 0,.L898
.LBB6129:
	.loc 1 1381 0 is_stmt 0
	cmplw 7,12,23
	bgt- 7,.L170
	addi 11,12,1
	mr 9,12
.LVL1286:
.L899:
	.loc 1 1381 0 discriminator 2
	cmplw 7,24,9
	bgt- 7,.L888
.LVL1287:
	.loc 1 1381 0 discriminator 1
	beq- 1,.L890
.LBB6123:
	.loc 1 1381 0
	mullw 4,9,22
.LBE6123:
	li 8,0
	.loc 1 1065 0 is_stmt 1
	li 9,0
.LBB6124:
.LBB6114:
.LBB6107:
.LBB6104:
	.loc 1 174 0
	mtctr 30
.LBE6104:
.LBE6107:
.LBE6114:
.LBB6115:
.LBB6116:
	.loc 1 696 0
	add 4,21,4
	b .L895
.LVL1288:
.L4378:
.LBE6116:
.LBE6115:
	.loc 1 1381 0 discriminator 2
	cmplw 7,8,26
	bgt- 7,.L891
.LVL1289:
	.loc 1 1381 0 is_stmt 0 discriminator 1
	mullw 8,8,25
.LVL1290:
.LBB6118:
.LBB6117:
	.loc 1 696 0 is_stmt 1 discriminator 1
	lhzx 6,4,8
.LVL1291:
	.loc 1 698 0 discriminator 1
	srwi 7,6,12
	.loc 1 699 0 discriminator 1
	rlwinm 5,6,24,28,31
	.loc 1 700 0 discriminator 1
	rlwinm 8,6,28,28,31
	.loc 1 701 0 discriminator 1
	rlwinm 6,6,0,28,31
.LVL1292:
	.loc 1 698 0 discriminator 1
	mulli 7,7,17
	.loc 1 699 0 discriminator 1
	mulli 5,5,17
	.loc 1 700 0 discriminator 1
	mulli 8,8,17
	.loc 1 698 0 discriminator 1
	rlwinm 7,7,0,0xff
.LVL1293:
	.loc 1 701 0 discriminator 1
	mulli 6,6,17
	.loc 1 699 0 discriminator 1
	rlwinm 5,5,0,0xff
	.loc 1 700 0 discriminator 1
	rlwinm 8,8,0,0xff
.LVL1294:
	.loc 1 701 0 discriminator 1
	rlwinm 6,6,0,0xff
.LBE6117:
.LBE6118:
	.loc 1 1381 0 discriminator 1
	beq- 6,.L894
	.loc 1 1381 0 is_stmt 0
	mr 17,7
	mr 7,8
.LVL1295:
	mr 8,17
.LVL1296:
.L894:
.LBB6119:
.LBB6108:
.LBB6105:
	.loc 1 174 0 is_stmt 1 discriminator 2
	stw 7,884(1)
	addi 17,1,2760
	stw 10,880(1)
.LBE6105:
.LBE6108:
.LBB6109:
.LBB6110:
	.loc 1 115 0 discriminator 2
	srwi 6,6,4
.LVL1297:
.LBE6110:
.LBE6109:
.LBB6112:
.LBB6106:
	.loc 1 174 0 discriminator 2
	stw 5,892(1)
	stw 10,888(1)
	lfs 0,.LC9@l(18)
	lfd 11,880(1)
	lfd 12,888(1)
	stw 8,900(1)
	fsub 11,11,0
	stw 10,896(1)
	fsub 12,12,0
	lfd 13,896(1)
	frsp 11,11
	frsp 12,12
	fsub 0,13,0
	lfs 13,.LC15@l(3)
	fadds 12,11,12
	frsp 0,0
	fadds 0,12,0
	fdivs 0,0,13
	fctiwz 0,0
	stfiwx 0,0,17
	lwz 8,2760(1)
.LVL1298:
.LBE6106:
.LBE6112:
.LBB6113:
.LBB6111:
	.loc 1 115 0 discriminator 2
	rlwinm 8,8,0,0,27
	or 6,8,6
	.loc 1 116 0 discriminator 2
	stb 6,0(31)
	addi 31,31,1
.LVL1299:
.L893:
.LBE6111:
.LBE6113:
.LBE6119:
.LBE6124:
	.loc 1 1381 0 discriminator 15
	addi 9,9,1
.LVL1300:
	mr 8,9
	bdz .L890
.LVL1301:
.L895:
.LBB6125:
	.loc 1 1381 0 is_stmt 0 discriminator 2
	add 8,0,8
.LVL1302:
	cmplw 7,28,8
	ble- 7,.L4378
.L891:
.LVL1303:
.LBB6120:
.LBB6121:
	.loc 2 350 0 is_stmt 1
	add 31,31,27
.LVL1304:
.LBE6121:
.LBE6120:
	.loc 1 1381 0
	b .L893
.LVL1305:
.L849:
.LBE6125:
.LBE6129:
	.loc 1 1381 0 is_stmt 0 discriminator 1
	cmpwi 7,19,0
	ble- 7,.L170
.LBB6130:
	.loc 1 1381 0
	mullw 3,27,30
.LVL1306:
	cmpwi 4,20,0
	cmpwi 0,29,0
	cmpwi 1,30,0
.LBB6131:
	cmpwi 6,15,0
.LBE6131:
	li 18,0
	li 17,0
.LBB6149:
.LBB6132:
.LBB6133:
.LBB6134:
	.loc 1 174 0 is_stmt 1
	lis 8,0x4330
.LVL1307:
	lis 5,.LC9@ha
.LVL1308:
	lis 6,.LC15@ha
.LVL1309:
.L862:
.LBE6134:
.LBE6133:
.LBE6132:
.LBE6149:
.LBE6130:
	.loc 1 1381 0 discriminator 1
	ble- 4,.L872
	.loc 1 1381 0 is_stmt 0
	li 11,0
	li 16,0
.LBB6155:
	.loc 1 1065 0 is_stmt 1
	add 4,18,29
.LVL1310:
.L875:
.LBE6155:
	.loc 1 1381 0 discriminator 1
	beq- 0,.L873
.LBB6156:
	.loc 1 1381 0 is_stmt 0
	cmplw 7,18,23
	bgt- 7,.L170
	addi 10,18,1
	mr 0,18
.LVL1311:
.L874:
	.loc 1 1381 0 discriminator 2
	cmplw 7,24,0
	bgt- 7,.L863
.LVL1312:
	.loc 1 1381 0 discriminator 1
	beq- 1,.L865
.LBB6150:
	.loc 1 1381 0
	mullw 7,0,22
.LBE6150:
	.loc 1 1065 0 is_stmt 1
	li 9,0
	.loc 1 1381 0
	li 0,0
.LBB6151:
.LBB6141:
.LBB6137:
.LBB6135:
	.loc 1 174 0
	mtctr 30
.LBE6135:
.LBE6137:
.LBE6141:
.LBB6142:
.LBB6143:
	.loc 1 696 0
	add 7,21,7
	b .L870
.LVL1313:
.L4379:
.LBE6143:
.LBE6142:
	.loc 1 1381 0 discriminator 2
	cmplw 7,0,26
	bgt- 7,.L866
.LVL1314:
	.loc 1 1381 0 is_stmt 0 discriminator 1
	mullw 15,0,25
.LBB6145:
.LBB6144:
	.loc 1 696 0 is_stmt 1 discriminator 1
	lhzx 0,7,15
.LVL1315:
	.loc 1 698 0 discriminator 1
	srwi 15,0,12
	.loc 1 699 0 discriminator 1
	rlwinm 14,0,24,28,31
	.loc 1 700 0 discriminator 1
	rlwinm 0,0,28,28,31
.LVL1316:
	.loc 1 698 0 discriminator 1
	mulli 15,15,17
	.loc 1 699 0 discriminator 1
	mulli 14,14,17
	.loc 1 700 0 discriminator 1
	mulli 0,0,17
	.loc 1 698 0 discriminator 1
	rlwinm 15,15,0,0xff
.LVL1317:
	.loc 1 699 0 discriminator 1
	rlwinm 14,14,0,0xff
	.loc 1 700 0 discriminator 1
	rlwinm 0,0,0,0xff
.LVL1318:
.LBE6144:
.LBE6145:
	.loc 1 1381 0 discriminator 1
	beq- 6,.L869
	.loc 1 1381 0 is_stmt 0
	mr 12,15
	mr 15,0
.LVL1319:
	mr 0,12
.LVL1320:
.L869:
.LBB6146:
.LBB6138:
.LBB6136:
	.loc 1 174 0 is_stmt 1 discriminator 2
	stw 15,860(1)
	addi 12,1,2764
	stw 8,856(1)
	stw 14,868(1)
	stw 8,864(1)
	lfs 0,.LC9@l(5)
	lfd 11,856(1)
	lfd 12,864(1)
	stw 0,876(1)
	fsub 11,11,0
	stw 8,872(1)
	fsub 12,12,0
	lfd 13,872(1)
	frsp 11,11
	frsp 12,12
	fsub 0,13,0
	lfs 13,.LC15@l(6)
	fadds 12,11,12
	frsp 0,0
	fadds 0,12,0
	fdivs 0,0,13
	fctiwz 0,0
	stfiwx 0,0,12
	lwz 0,2764(1)
.LVL1321:
	stb 0,0(31)
.LBE6136:
.LBE6138:
.LBB6139:
.LBB6140:
	.loc 1 122 0 discriminator 2
	addi 31,31,1
.LVL1322:
.L868:
.LBE6140:
.LBE6139:
.LBE6146:
.LBE6151:
	.loc 1 1381 0 discriminator 10
	addi 9,9,1
.LVL1323:
	mr 0,9
	bdz .L865
.LVL1324:
.L870:
.LBB6152:
	.loc 1 1381 0 is_stmt 0 discriminator 2
	add 0,0,11
.LVL1325:
	cmplw 7,28,0
	ble- 7,.L4379
.L866:
.LVL1326:
.LBB6147:
.LBB6148:
	.loc 2 350 0 is_stmt 1
	add 31,31,27
.LVL1327:
.LBE6148:
.LBE6147:
	.loc 1 1381 0
	b .L868
.LVL1328:
.L1522:
.LBE6152:
.LBE6156:
	.loc 1 1391 0 discriminator 1
	cmpwi 7,19,0
	ble- 7,.L170
.LBB6157:
	.loc 1 1391 0 is_stmt 0
	mullw 5,27,30
.LVL1329:
	cmpwi 4,20,0
	cmpwi 0,29,0
	cmpwi 1,30,0
.LBB6158:
	cmpwi 6,15,0
.LBE6158:
	li 4,0
	li 3,0
.LVL1330:
.L1530:
.LBE6157:
	.loc 1 1391 0 discriminator 1
	ble- 4,.L1624
	.loc 1 1391 0
	li 11,0
	li 18,0
.LBB6173:
	.loc 1 1065 0 is_stmt 1
	add 6,4,29
.LVL1331:
.L1627:
.LBE6173:
	.loc 1 1391 0 discriminator 1
	beq- 0,.L1625
.LBB6174:
	.loc 1 1391 0 is_stmt 0
	cmplw 7,4,23
	bgt- 7,.L170
	addi 10,4,1
	mr 0,4
.LVL1332:
.L1626:
	.loc 1 1391 0 discriminator 2
	cmplw 7,24,0
	bgt- 7,.L1615
.LVL1333:
	.loc 1 1391 0 discriminator 1
	beq- 1,.L1617
.LBB6168:
	.loc 1 1391 0
	mullw 7,0,22
.LBE6168:
	.loc 1 1065 0 is_stmt 1
	li 9,0
	.loc 1 1391 0
	li 0,0
.LBB6169:
	mtctr 30
.LBB6159:
.LBB6160:
	.loc 1 741 0
	add 7,21,7
	b .L1622
.LVL1334:
.L4380:
.LBE6160:
.LBE6159:
	.loc 1 1391 0 discriminator 2
	cmplw 7,0,26
	bgt- 7,.L1618
.LVL1335:
	.loc 1 1391 0 is_stmt 0 discriminator 1
	mullw 8,0,25
.LBB6162:
.LBB6161:
	.loc 1 741 0 is_stmt 1 discriminator 1
	lwzx 0,7,8
.LVL1336:
	.loc 1 744 0 discriminator 1
	rlwinm 8,0,16,24,31
.LVL1337:
	.loc 1 745 0 discriminator 1
	rlwinm 17,0,24,24,31
	.loc 1 746 0 discriminator 1
	rlwinm 0,0,0,0xff
.LVL1338:
.LBE6161:
.LBE6162:
	.loc 1 1391 0 discriminator 1
	beq- 6,.L1621
	.loc 1 1391 0 is_stmt 0
	mr 16,0
	mr 0,8
.LVL1339:
	mr 8,16
.LVL1340:
.L1621:
.LBB6163:
.LBB6164:
.LBB6165:
	.loc 1 130 0 is_stmt 1 discriminator 2
	srwi 8,8,3
.LVL1341:
	rlwinm 17,17,3,21,26
.LVL1342:
	or 8,8,17
	rlwinm 0,0,8,16,20
.LVL1343:
	or 0,8,0
	.loc 1 132 0 discriminator 2
	sth 0,0(31)
	addi 31,31,2
.LVL1344:
.L1620:
.LBE6165:
.LBE6164:
.LBE6163:
.LBE6169:
	.loc 1 1391 0 discriminator 24
	addi 9,9,1
.LVL1345:
	mr 0,9
	bdz .L1617
.LVL1346:
.L1622:
.LBB6170:
	.loc 1 1391 0 is_stmt 0 discriminator 2
	add 0,0,11
.LVL1347:
	cmplw 7,28,0
	ble- 7,.L4380
.L1618:
.LVL1348:
.LBB6166:
.LBB6167:
	.loc 2 350 0 is_stmt 1
	add 31,31,27
.LVL1349:
.LBE6167:
.LBE6166:
	.loc 1 1391 0
	b .L1620
.LVL1350:
.L1521:
.LBE6170:
.LBE6174:
	.loc 1 1391 0 is_stmt 0 discriminator 4
	cmpwi 7,18,6406
	bne+ 7,$+8
	b .L4381
.LVL1351:
	.loc 1 1391 0 discriminator 1
	cmpwi 7,19,0
	ble- 7,.L170
.LBB6175:
	.loc 1 1391 0
	mullw 14,27,30
	li 10,0
.LVL1352:
	cmpwi 4,20,0
	stw 10,3080(1)
	cmpwi 0,29,0
	cmpwi 1,30,0
.LBB6176:
	cmpwi 6,15,0
.LBE6176:
	li 12,0
.LBB6198:
.LBB6177:
.LBB6178:
.LBB6179:
	.loc 1 174 0 is_stmt 1
	lis 10,0x4330
	lis 18,.LC9@ha
	lis 3,.LC15@ha
.LVL1353:
.L1574:
.LBE6179:
.LBE6178:
.LBE6177:
.LBE6198:
.LBE6175:
	.loc 1 1391 0 discriminator 1
	bgt+ 4,$+8
	b .L1596
	.loc 1 1391 0 is_stmt 0
	li 0,0
	li 15,0
.LBB6204:
	.loc 1 1065 0 is_stmt 1
	add 16,12,29
.LVL1354:
.L1599:
.LBE6204:
	.loc 1 1391 0 discriminator 1
	bne+ 0,$+8
	b .L1597
.LBB6205:
	.loc 1 1391 0 is_stmt 0
	cmplw 7,12,23
	bgt- 7,.L170
	addi 11,12,1
	mr 9,12
.LVL1355:
.L1598:
	.loc 1 1391 0 discriminator 2
	cmplw 7,24,9
	bgt- 7,.L1587
.LVL1356:
	.loc 1 1391 0 discriminator 1
	beq- 1,.L1589
.LBB6199:
	.loc 1 1391 0
	mullw 4,9,22
.LBE6199:
	li 8,0
	.loc 1 1065 0 is_stmt 1
	li 9,0
.LBB6200:
.LBB6190:
.LBB6183:
.LBB6180:
	.loc 1 174 0
	mtctr 30
.LBE6180:
.LBE6183:
.LBE6190:
.LBB6191:
.LBB6192:
	.loc 1 741 0
	add 4,21,4
	b .L1594
.LVL1357:
.L4382:
.LBE6192:
.LBE6191:
	.loc 1 1391 0 discriminator 2
	cmplw 7,8,26
	bgt- 7,.L1590
.LVL1358:
	.loc 1 1391 0 is_stmt 0 discriminator 1
	mullw 8,8,25
.LVL1359:
.LBB6194:
.LBB6193:
	.loc 1 741 0 is_stmt 1 discriminator 1
	lwzx 7,4,8
.LVL1360:
	.loc 1 743 0 discriminator 1
	srwi 6,7,24
	.loc 1 744 0 discriminator 1
	rlwinm 8,7,16,24,31
.LVL1361:
	.loc 1 745 0 discriminator 1
	rlwinm 5,7,24,24,31
	.loc 1 746 0 discriminator 1
	rlwinm 7,7,0,0xff
.LVL1362:
.LBE6193:
.LBE6194:
	.loc 1 1391 0 discriminator 1
	beq- 6,.L1593
	.loc 1 1391 0 is_stmt 0
	mr 17,7
	mr 7,8
.LVL1363:
	mr 8,17
.LVL1364:
.L1593:
.LBB6195:
.LBB6184:
.LBB6181:
	.loc 1 174 0 is_stmt 1 discriminator 2
	stw 7,1588(1)
	addi 17,1,2536
	stw 10,1584(1)
	stw 5,1596(1)
	stw 10,1592(1)
	lfd 11,1584(1)
	lfd 12,1592(1)
	lfs 0,.LC9@l(18)
	stw 8,1604(1)
	stw 10,1600(1)
	fsub 11,11,0
	fsub 12,12,0
	lfd 13,1600(1)
	frsp 11,11
.LBE6181:
.LBE6184:
.LBB6185:
.LBB6186:
	.loc 1 122 0 discriminator 2
	stb 6,1(31)
.LBE6186:
.LBE6185:
.LBB6188:
.LBB6182:
	.loc 1 174 0 discriminator 2
	fsub 0,13,0
	lfs 13,.LC15@l(3)
	frsp 12,12
	frsp 0,0
	fadds 12,11,12
	fadds 0,12,0
	fdivs 0,0,13
	fctiwz 0,0
	stfiwx 0,0,17
	lwz 8,2536(1)
.LVL1365:
	stb 8,0(31)
.LVL1366:
.LBE6182:
.LBE6188:
.LBB6189:
.LBB6187:
	.loc 1 122 0 discriminator 2
	addi 31,31,2
.LVL1367:
.L1592:
.LBE6187:
.LBE6189:
.LBE6195:
.LBE6200:
	.loc 1 1391 0 discriminator 20
	addi 9,9,1
.LVL1368:
	mr 8,9
	bdz .L1589
.LVL1369:
.L1594:
.LBB6201:
	.loc 1 1391 0 is_stmt 0 discriminator 2
	add 8,8,0
.LVL1370:
	cmplw 7,28,8
	ble- 7,.L4382
.L1590:
.LVL1371:
.LBB6196:
.LBB6197:
	.loc 2 350 0 is_stmt 1
	add 31,31,27
.LVL1372:
.LBE6197:
.LBE6196:
	.loc 1 1391 0
	b .L1592
.LVL1373:
.L1520:
.LBE6201:
.LBE6205:
	.loc 1 1391 0 is_stmt 0 discriminator 1
	cmpwi 7,19,0
	ble- 7,.L170
.LBB6206:
	.loc 1 1391 0
	mullw 14,27,30
	li 4,0
	stw 4,3080(1)
	cmpwi 4,20,0
	cmpwi 0,29,0
	cmpwi 1,30,0
.LBB6207:
	cmpwi 6,15,0
.LBE6207:
	li 12,0
.LBB6229:
.LBB6208:
.LBB6209:
.LBB6210:
	.loc 1 174 0 is_stmt 1
	lis 10,0x4330
.LVL1374:
	lis 18,.LC9@ha
	lis 3,.LC15@ha
.LVL1375:
.L1531:
.LBE6210:
.LBE6209:
.LBE6208:
.LBE6229:
.LBE6206:
	.loc 1 1391 0 discriminator 1
	ble- 4,.L1567
	.loc 1 1391 0 is_stmt 0
	li 0,0
	li 15,0
.LBB6235:
	.loc 1 1065 0 is_stmt 1
	add 16,12,29
.LVL1376:
.L1570:
.LBE6235:
	.loc 1 1391 0 discriminator 1
	beq- 0,.L1568
.LBB6236:
	.loc 1 1391 0 is_stmt 0
	cmplw 7,12,23
	bgt- 7,.L170
	addi 11,12,1
	mr 9,12
.LVL1377:
.L1569:
	.loc 1 1391 0 discriminator 2
	cmplw 7,24,9
	bgt- 7,.L1558
.LVL1378:
	.loc 1 1391 0 discriminator 1
	beq- 1,.L1560
.LBB6230:
	.loc 1 1391 0
	mullw 4,9,22
.LBE6230:
	li 8,0
	.loc 1 1065 0 is_stmt 1
	li 9,0
.LBB6231:
.LBB6221:
.LBB6214:
.LBB6211:
	.loc 1 174 0
	mtctr 30
.LBE6211:
.LBE6214:
.LBE6221:
.LBB6222:
.LBB6223:
	.loc 1 741 0
	add 4,21,4
	b .L1565
.LVL1379:
.L4383:
.LBE6223:
.LBE6222:
	.loc 1 1391 0 discriminator 2
	cmplw 7,8,26
	bgt- 7,.L1561
.LVL1380:
	.loc 1 1391 0 is_stmt 0 discriminator 1
	mullw 8,8,25
.LVL1381:
.LBB6225:
.LBB6224:
	.loc 1 741 0 is_stmt 1 discriminator 1
	lwzx 7,4,8
.LVL1382:
	.loc 1 743 0 discriminator 1
	srwi 6,7,24
	.loc 1 744 0 discriminator 1
	rlwinm 8,7,16,24,31
.LVL1383:
	.loc 1 745 0 discriminator 1
	rlwinm 5,7,24,24,31
	.loc 1 746 0 discriminator 1
	rlwinm 7,7,0,0xff
.LVL1384:
.LBE6224:
.LBE6225:
	.loc 1 1391 0 discriminator 1
	beq- 6,.L1564
	.loc 1 1391 0 is_stmt 0
	mr 17,7
	mr 7,8
.LVL1385:
	mr 8,17
.LVL1386:
.L1564:
.LBB6226:
.LBB6215:
.LBB6212:
	.loc 1 174 0 is_stmt 1 discriminator 2
	stw 7,1564(1)
.LBE6212:
.LBE6215:
.LBB6216:
.LBB6217:
	.loc 1 115 0 discriminator 2
	srwi 6,6,4
.LVL1387:
.LBE6217:
.LBE6216:
.LBB6219:
.LBB6213:
	.loc 1 174 0 discriminator 2
	stw 10,1560(1)
	stw 5,1572(1)
	stw 10,1568(1)
	lfs 0,.LC9@l(18)
	lfd 11,1560(1)
	lfd 12,1568(1)
	stw 8,1580(1)
	fsub 11,11,0
	stw 10,1576(1)
	fsub 12,12,0
	addi 8,1,2540
.LVL1388:
	lfd 13,1576(1)
	frsp 11,11
	frsp 12,12
	fsub 0,13,0
	lfs 13,.LC15@l(3)
	fadds 12,11,12
	frsp 0,0
	fadds 0,12,0
	fdivs 0,0,13
	fctiwz 0,0
	stfiwx 0,0,8
	lwz 8,2540(1)
.LBE6213:
.LBE6219:
.LBB6220:
.LBB6218:
	.loc 1 115 0 discriminator 2
	rlwinm 8,8,0,0,27
	or 6,8,6
	.loc 1 116 0 discriminator 2
	stb 6,0(31)
	addi 31,31,1
.LVL1389:
.L1563:
.LBE6218:
.LBE6220:
.LBE6226:
.LBE6231:
	.loc 1 1391 0 discriminator 15
	addi 9,9,1
.LVL1390:
	mr 8,9
	bdz .L1560
.LVL1391:
.L1565:
.LBB6232:
	.loc 1 1391 0 is_stmt 0 discriminator 2
	add 8,8,0
.LVL1392:
	cmplw 7,28,8
	ble- 7,.L4383
.L1561:
.LVL1393:
.LBB6227:
.LBB6228:
	.loc 2 350 0 is_stmt 1
	add 31,31,27
.LVL1394:
.LBE6228:
.LBE6227:
	.loc 1 1391 0
	b .L1563
.LVL1395:
.L1519:
.LBE6232:
.LBE6236:
	.loc 1 1391 0 is_stmt 0 discriminator 1
	cmpwi 7,19,0
	ble- 7,.L170
.LBB6237:
	.loc 1 1391 0
	mullw 18,27,30
	cmpwi 4,20,0
	cmpwi 0,29,0
	cmpwi 1,30,0
.LBB6238:
	cmpwi 6,15,0
.LBE6238:
	li 17,0
	li 16,0
.LBB6256:
.LBB6239:
.LBB6240:
.LBB6241:
	.loc 1 174 0 is_stmt 1
	lis 8,0x4330
.LVL1396:
	lis 4,.LC9@ha
	lis 5,.LC15@ha
.LVL1397:
.L1532:
.LBE6241:
.LBE6240:
.LBE6239:
.LBE6256:
.LBE6237:
	.loc 1 1391 0 discriminator 1
	ble- 4,.L1542
	.loc 1 1391 0 is_stmt 0
	li 11,0
	li 15,0
.LBB6262:
	.loc 1 1065 0 is_stmt 1
	add 3,17,29
.LVL1398:
.L1545:
.LBE6262:
	.loc 1 1391 0 discriminator 1
	beq- 0,.L1543
.LBB6263:
	.loc 1 1391 0 is_stmt 0
	cmplw 7,17,23
	bgt- 7,.L170
	addi 10,17,1
	mr 0,17
.LVL1399:
.L1544:
	.loc 1 1391 0 discriminator 2
	cmplw 7,24,0
	bgt- 7,.L1533
.LVL1400:
	.loc 1 1391 0 discriminator 1
	beq- 1,.L1535
.LBB6257:
	.loc 1 1391 0
	mullw 6,0,22
.LBE6257:
	.loc 1 1065 0 is_stmt 1
	li 9,0
	.loc 1 1391 0
	li 0,0
.LBB6258:
.LBB6248:
.LBB6244:
.LBB6242:
	.loc 1 174 0
	mtctr 30
.LBE6242:
.LBE6244:
.LBE6248:
.LBB6249:
.LBB6250:
	.loc 1 741 0
	add 6,21,6
	b .L1540
.LVL1401:
.L4384:
.LBE6250:
.LBE6249:
	.loc 1 1391 0 discriminator 2
	cmplw 7,0,26
	bgt- 7,.L1536
.LVL1402:
	.loc 1 1391 0 is_stmt 0 discriminator 1
	mullw 7,0,25
.LBB6252:
.LBB6251:
	.loc 1 741 0 is_stmt 1 discriminator 1
	lwzx 0,6,7
.LVL1403:
	.loc 1 744 0 discriminator 1
	rlwinm 7,0,16,24,31
.LVL1404:
	.loc 1 745 0 discriminator 1
	rlwinm 14,0,24,24,31
	.loc 1 746 0 discriminator 1
	rlwinm 0,0,0,0xff
.LVL1405:
.LBE6251:
.LBE6252:
	.loc 1 1391 0 discriminator 1
	beq- 6,.L1539
	.loc 1 1391 0 is_stmt 0
	mr 12,0
	mr 0,7
.LVL1406:
	mr 7,12
.LVL1407:
.L1539:
.LBB6253:
.LBB6245:
.LBB6243:
	.loc 1 174 0 is_stmt 1 discriminator 2
	stw 0,1540(1)
	stw 8,1536(1)
	stw 14,1548(1)
	stw 8,1544(1)
	lfs 0,.LC9@l(4)
	lfd 11,1536(1)
	lfd 12,1544(1)
	stw 7,1556(1)
	fsub 11,11,0
	stw 8,1552(1)
	fsub 12,12,0
	addi 7,1,2544
.LVL1408:
	lfd 13,1552(1)
	frsp 11,11
	frsp 12,12
	fsub 0,13,0
	lfs 13,.LC15@l(5)
	fadds 12,11,12
	frsp 0,0
	fadds 0,12,0
	fdivs 0,0,13
	fctiwz 0,0
	stfiwx 0,0,7
	lwz 0,2544(1)
.LVL1409:
	stb 0,0(31)
.LBE6243:
.LBE6245:
.LBB6246:
.LBB6247:
	.loc 1 122 0 discriminator 2
	addi 31,31,1
.LVL1410:
.L1538:
.LBE6247:
.LBE6246:
.LBE6253:
.LBE6258:
	.loc 1 1391 0 discriminator 10
	addi 9,9,1
.LVL1411:
	mr 0,9
	bdz .L1535
.LVL1412:
.L1540:
.LBB6259:
	.loc 1 1391 0 is_stmt 0 discriminator 2
	add 0,11,0
.LVL1413:
	cmplw 7,28,0
	ble- 7,.L4384
.L1536:
.LVL1414:
.LBB6254:
.LBB6255:
	.loc 2 350 0 is_stmt 1
	add 31,31,27
.LVL1415:
.LBE6255:
.LBE6254:
	.loc 1 1391 0
	b .L1538
.LVL1416:
.L1120:
.LBE6259:
.LBE6263:
	.loc 1 1385 0 discriminator 1
	cmpwi 7,19,0
	ble- 7,.L170
.LBB6264:
	.loc 1 1385 0 is_stmt 0
	mullw 4,27,30
	cmpwi 4,20,0
	cmpwi 0,29,0
	cmpwi 1,30,0
.LBB6265:
	cmpwi 6,15,0
.LBE6265:
	li 3,0
.LVL1417:
	li 18,0
.LBB6277:
.LBB6266:
.LBB6267:
	.loc 1 716 0 is_stmt 1
	lis 8,0x4330
.LVL1418:
	lis 5,.LC1@ha
.LVL1419:
	lis 6,.LC22@ha
.LVL1420:
.L1128:
.LBE6267:
.LBE6266:
.LBE6277:
.LBE6264:
	.loc 1 1385 0 discriminator 1
	ble- 4,.L1222
	.loc 1 1385 0 is_stmt 0
	li 11,0
	li 17,0
.LBB6283:
	.loc 1 1065 0 is_stmt 1
	add 7,3,29
.LVL1421:
.L1225:
.LBE6283:
	.loc 1 1385 0 discriminator 1
	beq- 0,.L1223
.LBB6284:
	.loc 1 1385 0 is_stmt 0
	cmplw 7,3,23
	bgt- 7,.L170
	addi 10,3,1
	mr 0,3
.LVL1422:
.L1224:
	.loc 1 1385 0 discriminator 2
	cmplw 7,24,0
	bgt- 7,.L1213
.LVL1423:
	.loc 1 1385 0 discriminator 1
	beq- 1,.L1215
.LBB6278:
	.loc 1 1385 0
	mullw 16,0,22
	mtctr 30
.LBE6278:
	li 0,0
	.loc 1 1065 0 is_stmt 1
	li 9,0
.LBB6279:
.LBB6270:
.LBB6268:
	.loc 1 714 0
	add 16,21,16
.LVL1424:
.L1220:
.LBE6268:
.LBE6270:
	.loc 1 1385 0 discriminator 2
	add 0,11,0
.LVL1425:
	cmplw 7,28,0
	bgt- 7,.L1216
	cmplw 7,0,26
	ble- 7,.L1217
.L1216:
.LVL1426:
.LBB6271:
.LBB6272:
	.loc 2 350 0
	add 31,31,27
.LVL1427:
.L1218:
.LBE6272:
.LBE6271:
.LBE6279:
	.loc 1 1385 0 discriminator 24
	addi 9,9,1
.LVL1428:
	mr 0,9
	bdnz .L1220
.LVL1429:
.L1215:
.LBE6284:
	.loc 1 1385 0 is_stmt 0 discriminator 23
	cmpw 7,10,7
	beq- 7,.L1223
.LVL1430:
.LBB6285:
	.loc 1 1385 0 discriminator 2
	cmplw 7,23,10
.LBE6285:
	addi 9,10,1
.LBB6286:
	blt- 7,.L170
	.loc 1 1385 0
	mr 0,10
	mr 10,9
.LVL1431:
	b .L1224
.LVL1432:
.L1217:
.LBB6280:
	.loc 1 1385 0 discriminator 1
	mullw 15,0,25
.LBB6273:
.LBB6269:
	.loc 1 716 0 is_stmt 1 discriminator 1
	lfs 13,.LC1@l(5)
	lfs 0,.LC22@l(6)
	addi 12,1,2672
	.loc 1 714 0 discriminator 1
	lhzx 0,16,15
.LVL1433:
	.loc 1 716 0 discriminator 1
	stw 8,1168(1)
	srwi 14,0,11
	.loc 1 717 0 discriminator 1
	rlwinm 15,0,26,27,31
	.loc 1 718 0 discriminator 1
	rlwinm 0,0,31,27,31
.LVL1434:
	.loc 1 716 0 discriminator 1
	xoris 14,14,0x8000
	.loc 1 717 0 discriminator 1
	xoris 15,15,0x8000
	.loc 1 718 0 discriminator 1
	xoris 0,0,0x8000
	.loc 1 716 0 discriminator 1
	stw 14,1172(1)
	.loc 1 717 0 discriminator 1
	addi 14,1,2676
	stw 15,1180(1)
	.loc 1 718 0 discriminator 1
	addi 15,1,2680
	stw 0,1188(1)
	.loc 1 717 0 discriminator 1
	stw 8,1176(1)
	.loc 1 718 0 discriminator 1
	stw 8,1184(1)
	.loc 1 716 0 discriminator 1
	lfd 12,1168(1)
	.loc 1 717 0 discriminator 1
	lfd 10,1176(1)
	.loc 1 718 0 discriminator 1
	lfd 11,1184(1)
	.loc 1 716 0 discriminator 1
	fsub 12,12,13
	.loc 1 717 0 discriminator 1
	fsub 10,10,13
	.loc 1 718 0 discriminator 1
	fsub 11,11,13
	.loc 1 716 0 discriminator 1
	frsp 12,12
	.loc 1 717 0 discriminator 1
	frsp 13,10
	.loc 1 718 0 discriminator 1
	frsp 11,11
	.loc 1 716 0 discriminator 1
	fmuls 12,12,0
	.loc 1 717 0 discriminator 1
	fmuls 13,13,0
	.loc 1 718 0 discriminator 1
	fmuls 0,11,0
	.loc 1 716 0 discriminator 1
	fctiwz 12,12
	.loc 1 717 0 discriminator 1
	fctiwz 13,13
	.loc 1 718 0 discriminator 1
	fctiwz 0,0
	.loc 1 716 0 discriminator 1
	stfiwx 12,0,12
	.loc 1 717 0 discriminator 1
	stfiwx 13,0,14
	.loc 1 718 0 discriminator 1
	stfiwx 0,0,15
	.loc 1 716 0 discriminator 1
	lwz 0,2672(1)
	.loc 1 717 0 discriminator 1
	lwz 14,2676(1)
	.loc 1 718 0 discriminator 1
	lwz 15,2680(1)
	.loc 1 716 0 discriminator 1
	rlwinm 0,0,0,0xff
.LVL1435:
	.loc 1 717 0 discriminator 1
	rlwinm 14,14,0,0xff
	.loc 1 718 0 discriminator 1
	rlwinm 15,15,0,0xff
.LVL1436:
.LBE6269:
.LBE6273:
	.loc 1 1385 0 discriminator 1
	beq- 6,.L1219
	.loc 1 1385 0 is_stmt 0
	mr 12,0
	mr 0,15
.LVL1437:
	mr 15,12
.LVL1438:
.L1219:
.LBB6274:
.LBB6275:
.LBB6276:
	.loc 1 130 0 is_stmt 1 discriminator 2
	srwi 15,15,3
.LVL1439:
	rlwinm 14,14,3,21,26
	or 15,15,14
	rlwinm 0,0,8,16,20
.LVL1440:
	or 0,15,0
	.loc 1 132 0 discriminator 2
	sth 0,0(31)
	addi 31,31,2
.LVL1441:
	b .L1218
.LVL1442:
.L1119:
.LBE6276:
.LBE6275:
.LBE6274:
.LBE6280:
.LBE6286:
	.loc 1 1385 0 discriminator 4
	cmpwi 7,18,6406
	bne+ 7,$+8
	b .L4385
.LVL1443:
	.loc 1 1385 0 is_stmt 0 discriminator 1
	cmpwi 7,19,0
	ble- 7,.L170
.LBB6287:
	.loc 1 1385 0
	mullw 12,27,30
	li 7,0
.LVL1444:
	li 8,0
.LVL1445:
	stw 7,3080(1)
	stw 8,3088(1)
	cmpwi 4,20,0
	cmpwi 0,29,0
	cmpwi 1,30,0
.LBB6288:
	cmpwi 6,15,0
.LBB6289:
.LBB6290:
	.loc 1 716 0 is_stmt 1
	lis 10,0x4330
.LVL1446:
	lis 14,.LC1@ha
	lis 16,.LC22@ha
.LBE6290:
.LBE6289:
.LBB6293:
.LBB6294:
.LBB6295:
	.loc 1 174 0
	lis 17,.LC9@ha
	lis 18,.LC15@ha
.LVL1447:
.L1172:
.LBE6295:
.LBE6294:
.LBE6293:
.LBE6288:
.LBE6287:
	.loc 1 1385 0 discriminator 1
	ble- 4,.L1194
	.loc 1 1385 0 is_stmt 0
	li 11,0
.LBB6317:
	.loc 1 1065 0 is_stmt 1
	lwz 15,3080(1)
.LBE6317:
	.loc 1 1385 0
	stw 11,3084(1)
	li 0,0
.LBB6318:
	.loc 1 1065 0
	add 3,15,29
.LVL1448:
.L1197:
.LBE6318:
	.loc 1 1385 0 discriminator 1
	beq- 0,.L1195
.LBB6319:
	.loc 1 1385 0 is_stmt 0
	lwz 4,3080(1)
	cmplw 7,4,23
	bgt- 7,.L170
	addi 11,4,1
	mr 9,4
.LVL1449:
.L1196:
	.loc 1 1385 0 discriminator 2
	cmplw 7,24,9
	bgt- 7,.L1185
.LVL1450:
	.loc 1 1385 0 discriminator 1
	beq- 1,.L1187
.LBB6312:
	.loc 1 1385 0
	mullw 4,9,22
.LBB6306:
.LBB6299:
.LBB6296:
	.loc 1 174 0 is_stmt 1
	mtctr 30
.LBE6296:
.LBE6299:
.LBE6306:
.LBE6312:
	.loc 1 1385 0
	li 8,0
	.loc 1 1065 0
	li 9,0
.LBB6313:
.LBB6307:
.LBB6291:
	.loc 1 714 0
	add 4,21,4
.LVL1451:
.L1192:
.LBE6291:
.LBE6307:
	.loc 1 1385 0 discriminator 2
	add 8,0,8
.LVL1452:
	cmplw 7,28,8
	bgt- 7,.L1188
	cmplw 7,8,26
	ble- 7,.L1189
.L1188:
.LVL1453:
.LBB6308:
.LBB6309:
	.loc 2 350 0
	add 31,31,27
.LVL1454:
.L1190:
.LBE6309:
.LBE6308:
.LBE6313:
	.loc 1 1385 0 discriminator 20
	addi 9,9,1
.LVL1455:
	mr 8,9
	bdnz .L1192
.LVL1456:
.L1187:
.LBE6319:
	.loc 1 1385 0 is_stmt 0 discriminator 19
	cmpw 7,11,3
	beq- 7,.L1195
.LVL1457:
.LBB6320:
	.loc 1 1385 0 discriminator 2
	cmplw 7,23,11
.LBE6320:
	addi 8,11,1
.LBB6321:
	blt- 7,.L170
	.loc 1 1385 0
	mr 9,11
	mr 11,8
.LVL1458:
	b .L1196
.LVL1459:
.L1118:
.LBE6321:
	.loc 1 1385 0 discriminator 1
	cmpwi 7,19,0
	ble- 7,.L170
.LBB6322:
	.loc 1 1385 0
	mullw 12,27,30
	li 5,0
.LVL1460:
	li 6,0
	stw 5,3080(1)
	stw 6,3088(1)
	cmpwi 4,20,0
	cmpwi 0,29,0
	cmpwi 1,30,0
.LBB6323:
	cmpwi 6,15,0
.LBB6324:
.LBB6325:
	.loc 1 716 0 is_stmt 1
	lis 10,0x4330
.LVL1461:
	lis 14,.LC1@ha
	lis 16,.LC22@ha
.LBE6325:
.LBE6324:
.LBB6328:
.LBB6329:
.LBB6330:
	.loc 1 174 0
	lis 17,.LC9@ha
	lis 18,.LC15@ha
.LVL1462:
.L1129:
.LBE6330:
.LBE6329:
.LBE6328:
.LBE6323:
.LBE6322:
	.loc 1 1385 0 discriminator 1
	ble- 4,.L1165
	.loc 1 1385 0 is_stmt 0
	li 11,0
.LBB6352:
	.loc 1 1065 0 is_stmt 1
	lwz 15,3080(1)
.LBE6352:
	.loc 1 1385 0
	stw 11,3084(1)
	li 0,0
.LBB6353:
	.loc 1 1065 0
	add 3,15,29
.LVL1463:
.L1168:
.LBE6353:
	.loc 1 1385 0 discriminator 1
	beq- 0,.L1166
.LBB6354:
	.loc 1 1385 0 is_stmt 0
	lwz 4,3080(1)
	cmplw 7,4,23
	bgt- 7,.L170
	addi 11,4,1
	mr 9,4
.LVL1464:
.L1167:
	.loc 1 1385 0 discriminator 2
	cmplw 7,24,9
	bgt- 7,.L1156
.LVL1465:
	.loc 1 1385 0 discriminator 1
	beq- 1,.L1158
.LBB6347:
	.loc 1 1385 0
	mullw 4,9,22
.LBB6341:
.LBB6334:
.LBB6331:
	.loc 1 174 0 is_stmt 1
	mtctr 30
.LBE6331:
.LBE6334:
.LBE6341:
.LBE6347:
	.loc 1 1385 0
	li 8,0
	.loc 1 1065 0
	li 9,0
.LBB6348:
.LBB6342:
.LBB6326:
	.loc 1 714 0
	add 4,21,4
.LVL1466:
.L1163:
.LBE6326:
.LBE6342:
	.loc 1 1385 0 discriminator 2
	add 8,0,8
.LVL1467:
	cmplw 7,28,8
	bgt- 7,.L1159
	cmplw 7,8,26
	ble- 7,.L1160
.L1159:
.LVL1468:
.LBB6343:
.LBB6344:
	.loc 2 350 0
	add 31,31,27
.LVL1469:
.L1161:
.LBE6344:
.LBE6343:
.LBE6348:
	.loc 1 1385 0 discriminator 15
	addi 9,9,1
.LVL1470:
	mr 8,9
	bdnz .L1163
.LVL1471:
.L1158:
.LBE6354:
	.loc 1 1385 0 is_stmt 0 discriminator 14
	cmpw 7,11,3
	beq- 7,.L1166
.LVL1472:
.LBB6355:
	.loc 1 1385 0 discriminator 2
	cmplw 7,23,11
.LBE6355:
	addi 8,11,1
.LBB6356:
	blt- 7,.L170
	.loc 1 1385 0
	mr 9,11
	mr 11,8
.LVL1473:
	b .L1167
.LVL1474:
.L1160:
.LBB6349:
	.loc 1 1385 0 discriminator 1
	mullw 8,8,25
.LVL1475:
.LBB6345:
.LBB6327:
	.loc 1 716 0 is_stmt 1 discriminator 1
	lfs 13,.LC1@l(14)
	lfs 0,.LC22@l(16)
	addi 15,1,2716
	.loc 1 714 0 discriminator 1
	lhzx 6,4,8
.LVL1476:
	.loc 1 716 0 discriminator 1
	stw 10,1048(1)
	srwi 5,6,11
	.loc 1 717 0 discriminator 1
	rlwinm 7,6,26,27,31
	.loc 1 718 0 discriminator 1
	rlwinm 8,6,31,27,31
	.loc 1 716 0 discriminator 1
	xoris 5,5,0x8000
	.loc 1 717 0 discriminator 1
	xoris 7,7,0x8000
	.loc 1 718 0 discriminator 1
	xoris 8,8,0x8000
	.loc 1 716 0 discriminator 1
	stw 5,1052(1)
	.loc 1 717 0 discriminator 1
	addi 5,1,2720
	stw 7,1060(1)
	.loc 1 718 0 discriminator 1
	addi 7,1,2724
	stw 8,1068(1)
	.loc 1 719 0 discriminator 1
	rlwinm 6,6,0,31,31
.LVL1477:
	.loc 1 717 0 discriminator 1
	stw 10,1056(1)
	.loc 1 719 0 discriminator 1
	neg 6,6
	.loc 1 718 0 discriminator 1
	stw 10,1064(1)
	.loc 1 719 0 discriminator 1
	rlwinm 6,6,0,0xff
	.loc 1 716 0 discriminator 1
	lfd 12,1048(1)
	.loc 1 717 0 discriminator 1
	lfd 10,1056(1)
	.loc 1 718 0 discriminator 1
	lfd 11,1064(1)
	.loc 1 716 0 discriminator 1
	fsub 12,12,13
	.loc 1 717 0 discriminator 1
	fsub 10,10,13
	.loc 1 718 0 discriminator 1
	fsub 11,11,13
	.loc 1 716 0 discriminator 1
	frsp 12,12
	.loc 1 717 0 discriminator 1
	frsp 13,10
	.loc 1 718 0 discriminator 1
	frsp 11,11
	.loc 1 716 0 discriminator 1
	fmuls 12,12,0
	.loc 1 717 0 discriminator 1
	fmuls 13,13,0
	.loc 1 718 0 discriminator 1
	fmuls 0,11,0
	.loc 1 716 0 discriminator 1
	fctiwz 12,12
	.loc 1 717 0 discriminator 1
	fctiwz 13,13
	.loc 1 718 0 discriminator 1
	fctiwz 0,0
	.loc 1 716 0 discriminator 1
	stfiwx 12,0,15
	.loc 1 717 0 discriminator 1
	stfiwx 13,0,5
	.loc 1 718 0 discriminator 1
	stfiwx 0,0,7
	.loc 1 716 0 discriminator 1
	lwz 7,2716(1)
	.loc 1 717 0 discriminator 1
	lwz 5,2720(1)
	.loc 1 718 0 discriminator 1
	lwz 8,2724(1)
	.loc 1 716 0 discriminator 1
	rlwinm 7,7,0,0xff
.LVL1478:
	.loc 1 717 0 discriminator 1
	rlwinm 5,5,0,0xff
	.loc 1 718 0 discriminator 1
	rlwinm 8,8,0,0xff
.LVL1479:
.LBE6327:
.LBE6345:
	.loc 1 1385 0 discriminator 1
	beq- 6,.L1162
	.loc 1 1385 0 is_stmt 0
	mr 15,7
	mr 7,8
.LVL1480:
	mr 8,15
.LVL1481:
.L1162:
.LBB6346:
.LBB6335:
.LBB6332:
	.loc 1 174 0 is_stmt 1 discriminator 2
	stw 7,1076(1)
.LBE6332:
.LBE6335:
.LBB6336:
.LBB6337:
	.loc 1 115 0 discriminator 2
	srwi 6,6,4
.LVL1482:
.LBE6337:
.LBE6336:
.LBB6339:
.LBB6333:
	.loc 1 174 0 discriminator 2
	stw 10,1072(1)
	stw 5,1084(1)
	stw 10,1080(1)
	lfs 0,.LC9@l(17)
	lfd 11,1072(1)
	lfd 12,1080(1)
	stw 8,1092(1)
	fsub 11,11,0
	stw 10,1088(1)
	fsub 12,12,0
	addi 8,1,2712
.LVL1483:
	lfd 13,1088(1)
	frsp 11,11
	frsp 12,12
	fsub 0,13,0
	lfs 13,.LC15@l(18)
	fadds 12,11,12
	frsp 0,0
	fadds 0,12,0
	fdivs 0,0,13
	fctiwz 0,0
	stfiwx 0,0,8
	lwz 8,2712(1)
.LBE6333:
.LBE6339:
.LBB6340:
.LBB6338:
	.loc 1 115 0 discriminator 2
	rlwinm 8,8,0,0,27
	or 6,8,6
	.loc 1 116 0 discriminator 2
	stb 6,0(31)
	addi 31,31,1
.LVL1484:
	b .L1161
.LVL1485:
.L1117:
.LBE6338:
.LBE6340:
.LBE6346:
.LBE6349:
.LBE6356:
	.loc 1 1385 0 discriminator 1
	cmpwi 7,19,0
	ble- 7,.L170
.LBB6357:
	.loc 1 1385 0 is_stmt 0
	mullw 14,27,30
	li 7,0
.LVL1486:
	stw 7,3084(1)
	cmpwi 4,20,0
	cmpwi 0,29,0
	cmpwi 1,30,0
.LBB6358:
	cmpwi 6,15,0
.LBE6358:
	li 12,0
.LBB6378:
.LBB6359:
.LBB6360:
	.loc 1 716 0 is_stmt 1
	lis 10,0x4330
.LVL1487:
	lis 16,.LC1@ha
	lis 17,.LC22@ha
.LBE6360:
.LBE6359:
.LBB6363:
.LBB6364:
.LBB6365:
	.loc 1 174 0
	lis 18,.LC9@ha
	lis 3,.LC15@ha
.LVL1488:
.L1130:
.LBE6365:
.LBE6364:
.LBE6363:
.LBE6378:
.LBE6357:
	.loc 1 1385 0 discriminator 1
	ble- 4,.L1140
	.loc 1 1385 0 is_stmt 0
	li 9,0
	li 0,0
	stw 9,3080(1)
.LBB6384:
	.loc 1 1065 0 is_stmt 1
	add 4,12,29
.LVL1489:
.L1143:
.LBE6384:
	.loc 1 1385 0 discriminator 1
	beq- 0,.L1141
.LBB6385:
	.loc 1 1385 0 is_stmt 0
	cmplw 7,12,23
	bgt- 7,.L170
	addi 11,12,1
	mr 9,12
.LVL1490:
.L1142:
	.loc 1 1385 0 discriminator 2
	cmplw 7,24,9
	bgt- 7,.L1131
.LVL1491:
	.loc 1 1385 0 discriminator 1
	beq- 1,.L1133
.LBB6379:
	.loc 1 1385 0
	mullw 5,9,22
.LBB6372:
.LBB6368:
.LBB6366:
	.loc 1 174 0 is_stmt 1
	mtctr 30
.LBE6366:
.LBE6368:
.LBE6372:
.LBE6379:
	.loc 1 1385 0
	li 8,0
	.loc 1 1065 0
	li 9,0
.LBB6380:
.LBB6373:
.LBB6361:
	.loc 1 714 0
	add 5,21,5
.LVL1492:
.L1138:
.LBE6361:
.LBE6373:
	.loc 1 1385 0 discriminator 2
	add 8,8,0
.LVL1493:
	cmplw 7,28,8
	bgt- 7,.L1134
	cmplw 7,8,26
	ble- 7,.L1135
.L1134:
.LVL1494:
.LBB6374:
.LBB6375:
	.loc 2 350 0
	add 31,31,27
.LVL1495:
.L1136:
.LBE6375:
.LBE6374:
.LBE6380:
	.loc 1 1385 0 discriminator 10
	addi 9,9,1
.LVL1496:
	mr 8,9
	bdnz .L1138
.LVL1497:
.L1133:
.LBE6385:
	.loc 1 1385 0 is_stmt 0 discriminator 9
	cmpw 7,11,4
	beq- 7,.L1141
.LVL1498:
.LBB6386:
	.loc 1 1385 0 discriminator 2
	cmplw 7,23,11
	addi 8,11,1
	blt- 7,.L170
	.loc 1 1385 0
	mr 9,11
	mr 11,8
.LVL1499:
	b .L1142
.LVL1500:
.L1135:
.LBB6381:
	.loc 1 1385 0 discriminator 1
	mullw 8,8,25
.LVL1501:
.LBB6376:
.LBB6362:
	.loc 1 716 0 is_stmt 1 discriminator 1
	lfs 13,.LC1@l(16)
	lfs 0,.LC22@l(17)
	.loc 1 717 0 discriminator 1
	addi 15,1,2736
	.loc 1 714 0 discriminator 1
	lhzx 8,5,8
.LVL1502:
	.loc 1 716 0 discriminator 1
	stw 10,1000(1)
	srwi 6,8,11
	.loc 1 717 0 discriminator 1
	rlwinm 7,8,26,27,31
	.loc 1 718 0 discriminator 1
	rlwinm 8,8,31,27,31
.LVL1503:
	.loc 1 716 0 discriminator 1
	xoris 6,6,0x8000
	.loc 1 717 0 discriminator 1
	xoris 7,7,0x8000
	.loc 1 718 0 discriminator 1
	xoris 8,8,0x8000
	.loc 1 716 0 discriminator 1
	stw 6,1004(1)
	.loc 1 718 0 discriminator 1
	addi 6,1,2740
	.loc 1 717 0 discriminator 1
	stw 7,1012(1)
	.loc 1 718 0 discriminator 1
	stw 8,1020(1)
	.loc 1 716 0 discriminator 1
	addi 8,1,2732
	.loc 1 717 0 discriminator 1
	stw 10,1008(1)
	.loc 1 718 0 discriminator 1
	stw 10,1016(1)
	.loc 1 716 0 discriminator 1
	lfd 12,1000(1)
	.loc 1 717 0 discriminator 1
	lfd 10,1008(1)
	.loc 1 718 0 discriminator 1
	lfd 11,1016(1)
	.loc 1 716 0 discriminator 1
	fsub 12,12,13
	.loc 1 717 0 discriminator 1
	fsub 10,10,13
	.loc 1 718 0 discriminator 1
	fsub 11,11,13
	.loc 1 716 0 discriminator 1
	frsp 12,12
	.loc 1 717 0 discriminator 1
	frsp 13,10
	.loc 1 718 0 discriminator 1
	frsp 11,11
	.loc 1 716 0 discriminator 1
	fmuls 12,12,0
	.loc 1 717 0 discriminator 1
	fmuls 13,13,0
	.loc 1 718 0 discriminator 1
	fmuls 0,11,0
	.loc 1 716 0 discriminator 1
	fctiwz 12,12
	.loc 1 717 0 discriminator 1
	fctiwz 13,13
	.loc 1 718 0 discriminator 1
	fctiwz 0,0
	.loc 1 716 0 discriminator 1
	stfiwx 12,0,8
	.loc 1 717 0 discriminator 1
	stfiwx 13,0,15
	.loc 1 718 0 discriminator 1
	stfiwx 0,0,6
	.loc 1 716 0 discriminator 1
	lwz 7,2732(1)
	.loc 1 717 0 discriminator 1
	lwz 6,2736(1)
	.loc 1 718 0 discriminator 1
	lwz 8,2740(1)
	.loc 1 716 0 discriminator 1
	rlwinm 7,7,0,0xff
.LVL1504:
	.loc 1 717 0 discriminator 1
	rlwinm 6,6,0,0xff
	.loc 1 718 0 discriminator 1
	rlwinm 8,8,0,0xff
.LVL1505:
.LBE6362:
.LBE6376:
	.loc 1 1385 0 discriminator 1
	beq- 6,.L1137
	.loc 1 1385 0 is_stmt 0
	mr 15,7
	mr 7,8
.LVL1506:
	mr 8,15
.LVL1507:
.L1137:
.LBB6377:
.LBB6369:
.LBB6367:
	.loc 1 174 0 is_stmt 1 discriminator 2
	stw 7,1028(1)
	addi 7,1,2728
.LVL1508:
	stw 10,1024(1)
	stw 6,1036(1)
	stw 10,1032(1)
	lfs 0,.LC9@l(18)
	lfd 11,1024(1)
	lfd 12,1032(1)
	stw 8,1044(1)
	fsub 11,11,0
	stw 10,1040(1)
	fsub 12,12,0
	lfd 13,1040(1)
	frsp 11,11
	frsp 12,12
	fsub 0,13,0
	lfs 13,.LC15@l(3)
	fadds 12,11,12
	frsp 0,0
	fadds 0,12,0
	fdivs 0,0,13
	fctiwz 0,0
	stfiwx 0,0,7
	lwz 8,2728(1)
.LVL1509:
	stb 8,0(31)
.LBE6367:
.LBE6369:
.LBB6370:
.LBB6371:
	.loc 1 122 0 discriminator 2
	addi 31,31,1
.LVL1510:
	b .L1136
.LVL1511:
.L984:
.LBE6371:
.LBE6370:
.LBE6377:
.LBE6381:
.LBE6386:
	.loc 1 1383 0 discriminator 1
	cmpwi 7,19,0
	ble- 7,.L170
.LBB6387:
	.loc 1 1383 0 is_stmt 0
	mullw 14,27,30
	li 4,0
	stw 4,3080(1)
	cmpwi 4,20,0
	cmpwi 0,29,0
	cmpwi 1,30,0
.LBB6388:
	cmpwi 6,15,0
.LBE6388:
	li 12,0
.LBB6410:
.LBB6389:
.LBB6390:
.LBB6391:
	.loc 1 174 0 is_stmt 1
	lis 10,0x4330
.LVL1512:
	lis 18,.LC9@ha
	lis 3,.LC15@ha
.LVL1513:
.L995:
.LBE6391:
.LBE6390:
.LBE6389:
.LBE6410:
.LBE6387:
	.loc 1 1383 0 discriminator 1
	ble- 4,.L1031
	.loc 1 1383 0 is_stmt 0
	li 0,0
	li 15,0
.LBB6416:
	.loc 1 1065 0 is_stmt 1
	add 16,12,29
.LVL1514:
.L1034:
.LBE6416:
	.loc 1 1383 0 discriminator 1
	beq- 0,.L1032
.LBB6417:
	.loc 1 1383 0 is_stmt 0
	cmplw 7,12,23
	bgt- 7,.L170
	addi 11,12,1
	mr 9,12
.LVL1515:
.L1033:
	.loc 1 1383 0 discriminator 2
	cmplw 7,24,9
	bgt- 7,.L1022
.LVL1516:
	.loc 1 1383 0 discriminator 1
	beq- 1,.L1024
.LBB6411:
	.loc 1 1383 0
	mullw 4,9,22
.LBE6411:
	li 8,0
	.loc 1 1065 0 is_stmt 1
	li 9,0
.LBB6412:
.LBB6402:
.LBB6395:
.LBB6392:
	.loc 1 174 0
	mtctr 30
.LBE6392:
.LBE6395:
.LBE6402:
.LBB6403:
.LBB6404:
	.loc 1 705 0
	add 4,21,4
	b .L1029
.LVL1517:
.L4386:
.LBE6404:
.LBE6403:
	.loc 1 1383 0 discriminator 2
	cmplw 7,8,26
	bgt- 7,.L1025
.LVL1518:
	.loc 1 1383 0 is_stmt 0 discriminator 1
	mullw 8,8,25
.LVL1519:
.LBB6406:
.LBB6405:
	.loc 1 705 0 is_stmt 1 discriminator 1
	lhzx 7,4,8
.LVL1520:
	.loc 1 707 0 discriminator 1
	srwi 6,7,12
	.loc 1 708 0 discriminator 1
	rlwinm 8,7,24,28,31
	.loc 1 709 0 discriminator 1
	rlwinm 5,7,28,28,31
	.loc 1 710 0 discriminator 1
	rlwinm 7,7,0,28,31
.LVL1521:
	.loc 1 707 0 discriminator 1
	mulli 6,6,17
	.loc 1 708 0 discriminator 1
	mulli 8,8,17
	.loc 1 709 0 discriminator 1
	mulli 5,5,17
	.loc 1 707 0 discriminator 1
	rlwinm 6,6,0,0xff
	.loc 1 710 0 discriminator 1
	mulli 7,7,17
	.loc 1 708 0 discriminator 1
	rlwinm 8,8,0,0xff
.LVL1522:
	.loc 1 709 0 discriminator 1
	rlwinm 5,5,0,0xff
	.loc 1 710 0 discriminator 1
	rlwinm 7,7,0,0xff
.LVL1523:
.LBE6405:
.LBE6406:
	.loc 1 1383 0 discriminator 1
	beq- 6,.L1028
	.loc 1 1383 0 is_stmt 0
	mr 17,7
	mr 7,8
.LVL1524:
	mr 8,17
.LVL1525:
.L1028:
.LBB6407:
.LBB6396:
.LBB6393:
	.loc 1 174 0 is_stmt 1 discriminator 2
	stw 7,956(1)
.LBE6393:
.LBE6396:
.LBB6397:
.LBB6398:
	.loc 1 115 0 discriminator 2
	srwi 6,6,4
.LVL1526:
.LBE6398:
.LBE6397:
.LBB6400:
.LBB6394:
	.loc 1 174 0 discriminator 2
	stw 10,952(1)
	stw 5,964(1)
	stw 10,960(1)
	lfs 0,.LC9@l(18)
	lfd 11,952(1)
	lfd 12,960(1)
	stw 8,972(1)
	fsub 11,11,0
	stw 10,968(1)
	fsub 12,12,0
	addi 8,1,2748
.LVL1527:
	lfd 13,968(1)
	frsp 11,11
	frsp 12,12
	fsub 0,13,0
	lfs 13,.LC15@l(3)
	fadds 12,11,12
	frsp 0,0
	fadds 0,12,0
	fdivs 0,0,13
	fctiwz 0,0
	stfiwx 0,0,8
	lwz 8,2748(1)
.LBE6394:
.LBE6400:
.LBB6401:
.LBB6399:
	.loc 1 115 0 discriminator 2
	rlwinm 8,8,0,0,27
	or 6,8,6
	.loc 1 116 0 discriminator 2
	stb 6,0(31)
	addi 31,31,1
.LVL1528:
.L1027:
.LBE6399:
.LBE6401:
.LBE6407:
.LBE6412:
	.loc 1 1383 0 discriminator 15
	addi 9,9,1
.LVL1529:
	mr 8,9
	bdz .L1024
.LVL1530:
.L1029:
.LBB6413:
	.loc 1 1383 0 is_stmt 0 discriminator 2
	add 8,8,0
.LVL1531:
	cmplw 7,28,8
	ble- 7,.L4386
.L1025:
.LVL1532:
.LBB6408:
.LBB6409:
	.loc 2 350 0 is_stmt 1
	add 31,31,27
.LVL1533:
.LBE6409:
.LBE6408:
	.loc 1 1383 0
	b .L1027
.LVL1534:
.L983:
.LBE6413:
.LBE6417:
	.loc 1 1383 0 is_stmt 0 discriminator 1
	cmpwi 7,19,0
	ble- 7,.L170
.LBB6418:
	.loc 1 1383 0
	mullw 18,27,30
	cmpwi 4,20,0
	cmpwi 0,29,0
	cmpwi 1,30,0
.LBB6419:
	cmpwi 6,15,0
.LBE6419:
	li 17,0
	li 16,0
.LBB6437:
.LBB6420:
.LBB6421:
.LBB6422:
	.loc 1 174 0 is_stmt 1
	lis 8,0x4330
.LVL1535:
	lis 4,.LC9@ha
	lis 5,.LC15@ha
.LVL1536:
.L996:
.LBE6422:
.LBE6421:
.LBE6420:
.LBE6437:
.LBE6418:
	.loc 1 1383 0 discriminator 1
	ble- 4,.L1006
	.loc 1 1383 0 is_stmt 0
	li 11,0
	li 15,0
.LBB6443:
	.loc 1 1065 0 is_stmt 1
	add 3,17,29
.LVL1537:
.L1009:
.LBE6443:
	.loc 1 1383 0 discriminator 1
	beq- 0,.L1007
.LBB6444:
	.loc 1 1383 0 is_stmt 0
	cmplw 7,17,23
	bgt- 7,.L170
	addi 10,17,1
	mr 0,17
.LVL1538:
.L1008:
	.loc 1 1383 0 discriminator 2
	cmplw 7,24,0
	bgt- 7,.L997
.LVL1539:
	.loc 1 1383 0 discriminator 1
	beq- 1,.L999
.LBB6438:
	.loc 1 1383 0
	mullw 6,0,22
.LBE6438:
	.loc 1 1065 0 is_stmt 1
	li 9,0
	.loc 1 1383 0
	li 0,0
.LBB6439:
.LBB6429:
.LBB6425:
.LBB6423:
	.loc 1 174 0
	mtctr 30
.LBE6423:
.LBE6425:
.LBE6429:
.LBB6430:
.LBB6431:
	.loc 1 705 0
	add 6,21,6
	b .L1004
.LVL1540:
.L4387:
.LBE6431:
.LBE6430:
	.loc 1 1383 0 discriminator 2
	cmplw 7,0,26
	bgt- 7,.L1000
.LVL1541:
	.loc 1 1383 0 is_stmt 0 discriminator 1
	mullw 7,0,25
.LBB6433:
.LBB6432:
	.loc 1 705 0 is_stmt 1 discriminator 1
	lhzx 0,6,7
.LVL1542:
	.loc 1 708 0 discriminator 1
	rlwinm 7,0,24,28,31
	.loc 1 709 0 discriminator 1
	rlwinm 14,0,28,28,31
	.loc 1 710 0 discriminator 1
	rlwinm 0,0,0,28,31
.LVL1543:
	.loc 1 708 0 discriminator 1
	mulli 7,7,17
	.loc 1 709 0 discriminator 1
	mulli 14,14,17
	.loc 1 710 0 discriminator 1
	mulli 0,0,17
	.loc 1 708 0 discriminator 1
	rlwinm 7,7,0,0xff
.LVL1544:
	.loc 1 709 0 discriminator 1
	rlwinm 14,14,0,0xff
	.loc 1 710 0 discriminator 1
	rlwinm 0,0,0,0xff
.LVL1545:
.LBE6432:
.LBE6433:
	.loc 1 1383 0 discriminator 1
	beq- 6,.L1003
	.loc 1 1383 0 is_stmt 0
	mr 12,0
	mr 0,7
.LVL1546:
	mr 7,12
.LVL1547:
.L1003:
.LBB6434:
.LBB6426:
.LBB6424:
	.loc 1 174 0 is_stmt 1 discriminator 2
	stw 0,932(1)
	stw 8,928(1)
	stw 14,940(1)
	stw 8,936(1)
	lfs 0,.LC9@l(4)
	lfd 11,928(1)
	lfd 12,936(1)
	stw 7,948(1)
	fsub 11,11,0
	stw 8,944(1)
	fsub 12,12,0
	addi 7,1,2752
.LVL1548:
	lfd 13,944(1)
	frsp 11,11
	frsp 12,12
	fsub 0,13,0
	lfs 13,.LC15@l(5)
	fadds 12,11,12
	frsp 0,0
	fadds 0,12,0
	fdivs 0,0,13
	fctiwz 0,0
	stfiwx 0,0,7
	lwz 0,2752(1)
.LVL1549:
	stb 0,0(31)
.LBE6424:
.LBE6426:
.LBB6427:
.LBB6428:
	.loc 1 122 0 discriminator 2
	addi 31,31,1
.LVL1550:
.L1002:
.LBE6428:
.LBE6427:
.LBE6434:
.LBE6439:
	.loc 1 1383 0 discriminator 10
	addi 9,9,1
.LVL1551:
	mr 0,9
	bdz .L999
.LVL1552:
.L1004:
.LBB6440:
	.loc 1 1383 0 is_stmt 0 discriminator 2
	add 0,11,0
.LVL1553:
	cmplw 7,28,0
	ble- 7,.L4387
.L1000:
.LVL1554:
.LBB6435:
.LBB6436:
	.loc 2 350 0 is_stmt 1
	add 31,31,27
.LVL1555:
.LBE6436:
.LBE6435:
	.loc 1 1383 0
	b .L1002
.LVL1556:
.L985:
.LBE6440:
.LBE6444:
	.loc 1 1383 0 is_stmt 0 discriminator 4
	cmpwi 7,18,6406
	bne+ 7,$+8
	b .L4388
.LVL1557:
	.loc 1 1383 0 discriminator 1
	cmpwi 7,19,0
	ble- 7,.L170
.LBB6445:
	.loc 1 1383 0
	mullw 14,27,30
	li 10,0
.LVL1558:
	cmpwi 4,20,0
	stw 10,3080(1)
	cmpwi 0,29,0
	cmpwi 1,30,0
.LBB6446:
	cmpwi 6,15,0
.LBE6446:
	li 12,0
.LBB6468:
.LBB6447:
.LBB6448:
.LBB6449:
	.loc 1 174 0 is_stmt 1
	lis 10,0x4330
	lis 18,.LC9@ha
	lis 3,.LC15@ha
.LVL1559:
.L1038:
.LBE6449:
.LBE6448:
.LBE6447:
.LBE6468:
.LBE6445:
	.loc 1 1383 0 discriminator 1
	ble- 4,.L1060
	.loc 1 1383 0 is_stmt 0
	li 0,0
	li 15,0
.LBB6474:
	.loc 1 1065 0 is_stmt 1
	add 16,12,29
.LVL1560:
.L1063:
.LBE6474:
	.loc 1 1383 0 discriminator 1
	beq- 0,.L1061
.LBB6475:
	.loc 1 1383 0 is_stmt 0
	cmplw 7,12,23
	bgt- 7,.L170
	addi 11,12,1
	mr 9,12
.LVL1561:
.L1062:
	.loc 1 1383 0 discriminator 2
	cmplw 7,24,9
	bgt- 7,.L1051
.LVL1562:
	.loc 1 1383 0 discriminator 1
	beq- 1,.L1053
.LBB6469:
	.loc 1 1383 0
	mullw 4,9,22
.LBE6469:
	li 8,0
	.loc 1 1065 0 is_stmt 1
	li 9,0
.LBB6470:
.LBB6460:
.LBB6453:
.LBB6450:
	.loc 1 174 0
	mtctr 30
.LBE6450:
.LBE6453:
.LBE6460:
.LBB6461:
.LBB6462:
	.loc 1 705 0
	add 4,21,4
	b .L1058
.LVL1563:
.L4389:
.LBE6462:
.LBE6461:
	.loc 1 1383 0 discriminator 2
	cmplw 7,8,26
	bgt- 7,.L1054
.LVL1564:
	.loc 1 1383 0 is_stmt 0 discriminator 1
	mullw 8,8,25
.LVL1565:
.LBB6464:
.LBB6463:
	.loc 1 705 0 is_stmt 1 discriminator 1
	lhzx 7,4,8
.LVL1566:
	.loc 1 707 0 discriminator 1
	srwi 6,7,12
	.loc 1 708 0 discriminator 1
	rlwinm 8,7,24,28,31
	.loc 1 709 0 discriminator 1
	rlwinm 5,7,28,28,31
	.loc 1 710 0 discriminator 1
	rlwinm 7,7,0,28,31
.LVL1567:
	.loc 1 707 0 discriminator 1
	mulli 6,6,17
	.loc 1 708 0 discriminator 1
	mulli 8,8,17
	.loc 1 709 0 discriminator 1
	mulli 5,5,17
	.loc 1 707 0 discriminator 1
	rlwinm 6,6,0,0xff
	.loc 1 710 0 discriminator 1
	mulli 7,7,17
	.loc 1 708 0 discriminator 1
	rlwinm 8,8,0,0xff
.LVL1568:
	.loc 1 709 0 discriminator 1
	rlwinm 5,5,0,0xff
	.loc 1 710 0 discriminator 1
	rlwinm 7,7,0,0xff
.LVL1569:
.LBE6463:
.LBE6464:
	.loc 1 1383 0 discriminator 1
	beq- 6,.L1057
	.loc 1 1383 0 is_stmt 0
	mr 17,7
	mr 7,8
.LVL1570:
	mr 8,17
.LVL1571:
.L1057:
.LBB6465:
.LBB6454:
.LBB6451:
	.loc 1 174 0 is_stmt 1 discriminator 2
	stw 7,980(1)
	addi 17,1,2744
	stw 10,976(1)
	stw 5,988(1)
	stw 10,984(1)
	lfd 11,976(1)
	lfd 12,984(1)
	lfs 0,.LC9@l(18)
	stw 8,996(1)
	stw 10,992(1)
	fsub 11,11,0
	fsub 12,12,0
	lfd 13,992(1)
	frsp 11,11
.LBE6451:
.LBE6454:
.LBB6455:
.LBB6456:
	.loc 1 122 0 discriminator 2
	stb 6,1(31)
.LBE6456:
.LBE6455:
.LBB6458:
.LBB6452:
	.loc 1 174 0 discriminator 2
	fsub 0,13,0
	lfs 13,.LC15@l(3)
	frsp 12,12
	frsp 0,0
	fadds 12,11,12
	fadds 0,12,0
	fdivs 0,0,13
	fctiwz 0,0
	stfiwx 0,0,17
	lwz 8,2744(1)
.LVL1572:
	stb 8,0(31)
.LVL1573:
.LBE6452:
.LBE6458:
.LBB6459:
.LBB6457:
	.loc 1 122 0 discriminator 2
	addi 31,31,2
.LVL1574:
.L1056:
.LBE6457:
.LBE6459:
.LBE6465:
.LBE6470:
	.loc 1 1383 0 discriminator 20
	addi 9,9,1
.LVL1575:
	mr 8,9
	bdz .L1053
.LVL1576:
.L1058:
.LBB6471:
	.loc 1 1383 0 is_stmt 0 discriminator 2
	add 8,8,0
.LVL1577:
	cmplw 7,28,8
	ble- 7,.L4389
.L1054:
.LVL1578:
.LBB6466:
.LBB6467:
	.loc 2 350 0 is_stmt 1
	add 31,31,27
.LVL1579:
.LBE6467:
.LBE6466:
	.loc 1 1383 0
	b .L1056
.LVL1580:
.L327:
.LBE6471:
.LBE6475:
	.loc 1 1373 0 discriminator 1
	cmpwi 7,19,0
	ble- 7,.L170
.LBB6476:
	.loc 1 1373 0 is_stmt 0
	mullw 6,27,30
	cmpwi 4,20,0
	cmpwi 1,29,0
	cmpwi 6,30,0
	li 5,0
.LVL1581:
	li 4,0
.LBB6477:
.LBB6478:
.LBB6479:
.LBB6480:
	.loc 1 122 0 is_stmt 1
	li 7,-1
.LVL1582:
.L329:
.LBE6480:
.LBE6479:
.LBE6478:
.LBE6477:
.LBE6476:
	.loc 1 1373 0 discriminator 1
	ble- 4,.L356
	.loc 1 1373 0 is_stmt 0
	li 11,0
	li 3,0
.LBB6493:
	.loc 1 1065 0 is_stmt 1
	add 8,5,29
.LVL1583:
.L359:
.LBE6493:
	.loc 1 1373 0 discriminator 1
	beq- 1,.L357
.LBB6494:
	.loc 1 1373 0 is_stmt 0
	cmplw 7,5,23
	bgt- 7,.L170
	addi 10,5,1
	mr 0,5
.LVL1584:
.L358:
	.loc 1 1373 0 discriminator 2
	cmplw 7,24,0
	bgt- 7,.L348
.LVL1585:
	.loc 1 1373 0 discriminator 1
	li 0,0
	.loc 1 1065 0 is_stmt 1 discriminator 1
	li 9,0
	.loc 1 1373 0 discriminator 1
	beq- 6,.L350
.LBB6489:
.LBB6485:
.LBB6483:
.LBB6481:
	.loc 1 122 0 discriminator 2
	mtctr 30
.LVL1586:
.L3760:
.LBE6481:
.LBE6483:
.LBE6485:
	.loc 1 1373 0 discriminator 2
	add 0,0,11
.LVL1587:
	cmplw 7,28,0
	bgt- 7,.L351
	cmplw 7,0,26
	ble- 7,.L352
.L351:
.LVL1588:
.LBB6486:
.LBB6487:
	.loc 2 350 0
	add 31,31,27
.LVL1589:
.L353:
.LBE6487:
.LBE6486:
.LBE6489:
	.loc 1 1373 0 discriminator 5
	addi 9,9,1
.LVL1590:
	mr 0,9
.LVL1591:
	bdnz .L3760
.LVL1592:
.L350:
.LBE6494:
	.loc 1 1373 0 is_stmt 0 discriminator 4
	cmpw 7,10,8
	beq- 7,.L357
.LVL1593:
.LBB6495:
	.loc 1 1373 0 discriminator 2
	cmplw 7,23,10
.LBE6495:
	addi 9,10,1
.LBB6496:
	blt- 7,.L170
	.loc 1 1373 0
	mr 0,10
	mr 10,9
.LVL1594:
	b .L358
.LVL1595:
.L352:
.LBB6490:
.LBB6488:
.LBB6484:
.LBB6482:
	.loc 1 122 0 is_stmt 1 discriminator 2
	stb 7,0(31)
	addi 31,31,1
.LVL1596:
	b .L353
.LVL1597:
.L1257:
.LBE6482:
.LBE6484:
.LBE6488:
.LBE6490:
.LBE6496:
	.loc 1 1387 0 discriminator 1
	cmpwi 7,19,0
	ble- 7,.L170
.LBB6497:
	.loc 1 1387 0 is_stmt 0
	mullw 6,27,30
	cmpwi 4,20,0
	cmpwi 1,29,0
	cmpwi 6,30,0
	li 5,0
.LVL1598:
	li 4,0
.LVL1599:
.L1259:
.LBE6497:
	.loc 1 1387 0 discriminator 1
	ble- 4,.L1286
	.loc 1 1387 0
	li 11,0
	li 3,0
.LBB6514:
	.loc 1 1065 0 is_stmt 1
	add 7,5,29
.LVL1600:
.L1289:
.LBE6514:
	.loc 1 1387 0 discriminator 1
	beq- 1,.L1287
.LBB6515:
	.loc 1 1387 0 is_stmt 0
	cmplw 7,5,23
	bgt- 7,.L170
	addi 10,5,1
	mr 0,5
.LVL1601:
.L1288:
	.loc 1 1387 0 discriminator 2
	cmplw 7,24,0
	bgt- 7,.L1278
.LVL1602:
	.loc 1 1387 0 discriminator 1
	beq- 6,.L1280
.LBB6498:
	.loc 1 1387 0
	mullw 18,0,22
.LBB6499:
.LBB6500:
	.loc 1 723 0 is_stmt 1
	mtctr 30
.LBE6500:
.LBE6499:
.LBE6498:
	.loc 1 1387 0
	li 0,0
	.loc 1 1065 0
	li 9,0
.LBB6510:
.LBB6503:
.LBB6501:
	.loc 1 723 0
	add 18,21,18
.LVL1603:
.L1284:
.LBE6501:
.LBE6503:
	.loc 1 1387 0 discriminator 2
	add 0,11,0
.LVL1604:
	cmplw 7,28,0
	bgt- 7,.L1281
	cmplw 7,0,26
	ble- 7,.L1282
.L1281:
.LVL1605:
.LBB6504:
.LBB6505:
	.loc 2 350 0
	add 31,31,27
.LVL1606:
.L1283:
.LBE6505:
.LBE6504:
.LBE6510:
	.loc 1 1387 0 discriminator 13
	addi 9,9,1
.LVL1607:
	mr 0,9
	bdnz .L1284
.LVL1608:
.L1280:
.LBE6515:
	.loc 1 1387 0 is_stmt 0 discriminator 12
	cmpw 7,10,7
	beq- 7,.L1287
.LVL1609:
.LBB6516:
	.loc 1 1387 0 discriminator 2
	cmplw 7,23,10
.LBE6516:
	addi 9,10,1
.LBB6517:
	blt- 7,.L170
	.loc 1 1387 0
	mr 0,10
	mr 10,9
.LVL1610:
	b .L1288
.LVL1611:
.L1282:
.LBB6511:
	.loc 1 1387 0 discriminator 1
	mullw 8,0,25
.LBB6506:
.LBB6502:
	.loc 1 725 0 is_stmt 1 discriminator 1
	lhzx 0,18,8
.LVL1612:
	srwi 0,0,15
	neg 0,0
.LBE6502:
.LBE6506:
.LBB6507:
.LBB6508:
.LBB6509:
	.loc 1 122 0 discriminator 1
	stb 0,0(31)
	addi 31,31,1
.LVL1613:
	b .L1283
.LVL1614:
.L1256:
.LBE6509:
.LBE6508:
.LBE6507:
.LBE6511:
.LBE6517:
	.loc 1 1387 0 discriminator 1
	cmpwi 7,19,0
	ble- 7,.L170
.LBB6518:
	.loc 1 1387 0 is_stmt 0
	mullw 3,27,30
.LVL1615:
	cmpwi 4,20,0
	cmpwi 0,29,0
	cmpwi 1,30,0
.LBB6519:
	cmpwi 6,15,0
.LBE6519:
	li 4,0
	li 18,0
.LBB6539:
.LBB6520:
.LBB6521:
	.loc 1 726 0 is_stmt 1
	lis 8,0x4330
.LVL1616:
	lis 6,.LC1@ha
	lis 7,.LC22@ha
.LVL1617:
.L1260:
.LBE6521:
.LBE6520:
.LBE6539:
.LBE6518:
	.loc 1 1387 0 discriminator 1
	ble- 4,.L1380
	.loc 1 1387 0 is_stmt 0
	li 11,0
	li 17,0
.LBB6546:
	.loc 1 1065 0 is_stmt 1
	add 5,4,29
.LVL1618:
.L1383:
.LBE6546:
	.loc 1 1387 0 discriminator 1
	beq- 0,.L1381
.LBB6547:
	.loc 1 1387 0 is_stmt 0
	cmplw 7,4,23
	bgt- 7,.L170
	addi 10,4,1
	mr 0,4
.LVL1619:
.L1382:
	.loc 1 1387 0 discriminator 2
	cmplw 7,24,0
	bgt- 7,.L1360
.LVL1620:
	.loc 1 1387 0 discriminator 1
	beq- 1,.L1362
.LBB6540:
	.loc 1 1387 0
	mullw 15,0,22
.LBB6527:
.LBB6522:
	.loc 1 726 0 is_stmt 1
	mtctr 30
.LBE6522:
.LBE6527:
.LBE6540:
	.loc 1 1387 0
	li 0,0
	.loc 1 1065 0
	li 9,0
.LBB6541:
.LBB6528:
.LBB6523:
	.loc 1 723 0
	add 15,21,15
.LVL1621:
.L1368:
.LBE6523:
.LBE6528:
	.loc 1 1387 0 discriminator 2
	add 0,11,0
.LVL1622:
	cmplw 7,28,0
	bgt- 7,.L1363
	cmplw 7,0,26
	ble- 7,.L1364
.L1363:
.LVL1623:
.LBB6529:
.LBB6530:
	.loc 2 350 0
	add 31,31,27
.LVL1624:
.L1365:
.LBE6530:
.LBE6529:
.LBE6541:
	.loc 1 1387 0 discriminator 26
	addi 9,9,1
.LVL1625:
	mr 0,9
	bdnz .L1368
.LVL1626:
.L1362:
.LBE6547:
	.loc 1 1387 0 is_stmt 0 discriminator 25
	cmpw 7,10,5
	beq- 7,.L4390
.LVL1627:
.LBB6548:
	.loc 1 1387 0 discriminator 2
	cmplw 7,23,10
.LBE6548:
	addi 9,10,1
.LBB6549:
	blt- 7,.L170
	.loc 1 1387 0
	mr 0,10
	mr 10,9
.LVL1628:
	b .L1382
.LVL1629:
.L1364:
.LBB6542:
	.loc 1 1387 0 discriminator 1
	mullw 16,0,25
.LBB6531:
.LBB6524:
	.loc 1 723 0 is_stmt 1 discriminator 1
	lhzx 0,15,16
.LVL1630:
	.loc 1 725 0 discriminator 1
	srwi 16,0,15
	neg 16,16
	rlwinm 16,16,0,0xff
.LVL1631:
.LBE6524:
.LBE6531:
	.loc 1 1387 0 discriminator 1
	bne- 6,.L1366
.LBB6532:
.LBB6525:
	.loc 1 728 0
	rlwinm 0,0,0,27,31
.LVL1632:
	stw 8,1424(1)
	xoris 0,0,0x8000
.LVL1633:
	lfs 13,.LC1@l(6)
	stw 0,1428(1)
	addi 12,1,2576
	lfs 0,.LC22@l(7)
	lfd 12,1424(1)
	fsub 13,12,13
	frsp 13,13
	fmuls 0,13,0
	fctiwz 0,0
	stfiwx 0,0,12
	lwz 0,2576(1)
.LVL1634:
	rlwinm 0,0,0,0xff
.LVL1635:
.L1367:
.LBE6525:
.LBE6532:
.LBB6533:
.LBB6534:
.LBB6535:
	.loc 1 122 0 discriminator 2
	stb 16,0(31)
.LVL1636:
.LBE6535:
.LBE6534:
.LBB6536:
.LBB6537:
	stb 0,1(31)
	addi 31,31,2
.LVL1637:
	b .L1365
.LVL1638:
.L1255:
.LBE6537:
.LBE6536:
.LBE6533:
.LBE6542:
.LBE6549:
	.loc 1 1387 0 discriminator 1
	cmpwi 7,19,0
	ble- 7,.L170
.LBB6550:
	.loc 1 1387 0 is_stmt 0
	mullw 14,27,30
	li 4,0
	stw 4,3084(1)
	cmpwi 4,20,0
	cmpwi 0,29,0
	cmpwi 1,30,0
.LBB6551:
	cmpwi 6,15,0
.LBE6551:
	li 12,0
.LBB6572:
.LBB6552:
.LBB6553:
	.loc 1 726 0 is_stmt 1
	lis 10,0x4330
.LVL1639:
	lis 17,.LC1@ha
	lis 18,.LC22@ha
.LBE6553:
.LBE6552:
.LBB6556:
.LBB6557:
.LBB6558:
	.loc 1 142 0
	li 15,-32768
.LVL1640:
.L1261:
.LBE6558:
.LBE6557:
.LBE6556:
.LBE6572:
.LBE6550:
	.loc 1 1387 0 discriminator 1
	ble- 4,.L1343
	.loc 1 1387 0 is_stmt 0
	li 7,0
	li 0,0
	stw 7,3080(1)
.LBB6579:
	.loc 1 1065 0 is_stmt 1
	add 3,12,29
.LVL1641:
.L1346:
.LBE6579:
	.loc 1 1387 0 discriminator 1
	beq- 0,.L1344
.LBB6580:
	.loc 1 1387 0 is_stmt 0
	cmplw 7,12,23
	bgt- 7,.L170
	addi 11,12,1
	mr 9,12
.LVL1642:
.L1345:
	.loc 1 1387 0 discriminator 2
	cmplw 7,24,9
	bgt- 7,.L1332
.LVL1643:
	.loc 1 1387 0 discriminator 1
	beq- 1,.L1334
.LBB6573:
	.loc 1 1387 0
	mullw 4,9,22
.LBB6565:
.LBB6562:
.LBB6559:
	.loc 1 142 0 is_stmt 1
	mtctr 30
.LBE6559:
.LBE6562:
.LBE6565:
.LBE6573:
	.loc 1 1387 0
	li 8,0
	.loc 1 1065 0
	li 9,0
.LBB6574:
.LBB6566:
.LBB6554:
	.loc 1 723 0
	add 4,21,4
.LVL1644:
.L1341:
.LBE6554:
.LBE6566:
	.loc 1 1387 0 discriminator 2
	add 8,0,8
.LVL1645:
	cmplw 7,28,8
	bgt- 7,.L1335
	cmplw 7,8,26
	ble- 7,.L1336
.L1335:
.LVL1646:
.LBB6567:
.LBB6568:
	.loc 2 350 0
	add 31,31,27
.LVL1647:
.L1337:
.LBE6568:
.LBE6567:
.LBE6574:
	.loc 1 1387 0 discriminator 22
	addi 9,9,1
.LVL1648:
	mr 8,9
	bdnz .L1341
.LVL1649:
.L1334:
.LBE6580:
	.loc 1 1387 0 is_stmt 0 discriminator 21
	cmpw 7,11,3
	beq- 7,.L1344
.LVL1650:
.LBB6581:
	.loc 1 1387 0 discriminator 2
	cmplw 7,23,11
.LBE6581:
	addi 8,11,1
.LBB6582:
	blt- 7,.L170
	.loc 1 1387 0
	mr 9,11
	mr 11,8
.LVL1651:
	b .L1345
.LVL1652:
.L1336:
.LBB6575:
	.loc 1 1387 0 discriminator 1
	mullw 8,8,25
.LVL1653:
.LBB6569:
.LBB6555:
	.loc 1 726 0 is_stmt 1 discriminator 1
	lfs 13,.LC1@l(17)
	lfs 0,.LC22@l(18)
	.loc 1 723 0 discriminator 1
	lhzx 8,4,8
.LVL1654:
	.loc 1 726 0 discriminator 1
	stw 10,1376(1)
	rlwinm 5,8,22,27,31
	.loc 1 727 0 discriminator 1
	rlwinm 6,8,27,27,31
	.loc 1 728 0 discriminator 1
	rlwinm 7,8,0,27,31
	.loc 1 726 0 discriminator 1
	xoris 5,5,0x8000
	.loc 1 727 0 discriminator 1
	xoris 6,6,0x8000
	.loc 1 728 0 discriminator 1
	xoris 7,7,0x8000
	.loc 1 726 0 discriminator 1
	stw 5,1380(1)
	.loc 1 728 0 discriminator 1
	addi 5,1,2600
	.loc 1 727 0 discriminator 1
	stw 6,1388(1)
	.loc 1 726 0 discriminator 1
	addi 6,1,2592
	.loc 1 728 0 discriminator 1
	stw 7,1396(1)
	.loc 1 727 0 discriminator 1
	addi 7,1,2596
	stw 10,1384(1)
	.loc 1 728 0 discriminator 1
	stw 10,1392(1)
	.loc 1 726 0 discriminator 1
	lfd 12,1376(1)
	.loc 1 727 0 discriminator 1
	lfd 10,1384(1)
	.loc 1 728 0 discriminator 1
	lfd 11,1392(1)
	.loc 1 726 0 discriminator 1
	fsub 12,12,13
	.loc 1 727 0 discriminator 1
	fsub 10,10,13
	.loc 1 728 0 discriminator 1
	fsub 11,11,13
	.loc 1 726 0 discriminator 1
	frsp 12,12
	.loc 1 727 0 discriminator 1
	frsp 13,10
	.loc 1 728 0 discriminator 1
	frsp 11,11
	.loc 1 726 0 discriminator 1
	fmuls 12,12,0
	.loc 1 727 0 discriminator 1
	fmuls 13,13,0
	.loc 1 728 0 discriminator 1
	fmuls 0,11,0
	.loc 1 726 0 discriminator 1
	fctiwz 12,12
	.loc 1 727 0 discriminator 1
	fctiwz 13,13
	.loc 1 728 0 discriminator 1
	fctiwz 0,0
	.loc 1 726 0 discriminator 1
	stfiwx 12,0,6
	.loc 1 725 0 discriminator 1
	srwi 6,8,15
	.loc 1 727 0 discriminator 1
	stfiwx 13,0,7
	.loc 1 725 0 discriminator 1
	neg 6,6
	.loc 1 728 0 discriminator 1
	stfiwx 0,0,5
	.loc 1 725 0 discriminator 1
	rlwinm 6,6,0,0xff
	.loc 1 726 0 discriminator 1
	lwz 7,2592(1)
	.loc 1 727 0 discriminator 1
	lwz 5,2596(1)
	.loc 1 728 0 discriminator 1
	lwz 16,2600(1)
	.loc 1 726 0 discriminator 1
	rlwinm 7,7,0,0xff
.LVL1655:
	.loc 1 727 0 discriminator 1
	rlwinm 5,5,0,0xff
	.loc 1 728 0 discriminator 1
	rlwinm 8,16,0,0xff
.LVL1656:
.LBE6555:
.LBE6569:
	.loc 1 1387 0 discriminator 1
	beq- 6,.L1338
	.loc 1 1387 0 is_stmt 0
	mr 16,8
.LVL1657:
	mr 8,7
.LVL1658:
	mr 7,16
.LVL1659:
.L1338:
.LBB6570:
.LBB6563:
.LBB6560:
	.loc 1 140 0 is_stmt 1 discriminator 2
	cmplwi 7,6,224
	bgt- 7,.L4391
	.loc 1 146 0
	rlwinm 5,5,0,24,27
	rlwinm 6,6,7,17,19
.LVL1660:
	or 6,5,6
	srwi 7,7,4
.LVL1661:
	or 7,6,7
	rlwinm 8,8,4,20,23
.LVL1662:
	or 8,7,8
	rlwinm 8,8,0,0xffff
.LVL1663:
.L1340:
	.loc 1 149 0
	sth 8,0(31)
	addi 31,31,2
.LVL1664:
	b .L1337
.LVL1665:
.L1656:
.LBE6560:
.LBE6563:
.LBE6570:
.LBE6575:
.LBE6582:
	.loc 1 1393 0 discriminator 1
	cmpwi 7,19,0
	ble- 7,.L170
.LBB6583:
	.loc 1 1393 0 is_stmt 0
	mullw 5,27,30
.LVL1666:
	cmpwi 4,20,0
	cmpwi 0,29,0
	cmpwi 1,30,0
.LBB6584:
	cmpwi 6,15,0
.LBE6584:
	li 4,0
	li 3,0
.LVL1667:
.L1664:
.LBE6583:
	.loc 1 1393 0 discriminator 1
	ble- 4,.L1758
	.loc 1 1393 0
	li 11,0
	li 18,0
.LBB6599:
	.loc 1 1065 0 is_stmt 1
	add 6,4,29
.LVL1668:
.L1761:
.LBE6599:
	.loc 1 1393 0 discriminator 1
	beq- 0,.L1759
.LBB6600:
	.loc 1 1393 0 is_stmt 0
	cmplw 7,4,23
	bgt- 7,.L170
	addi 10,4,1
	mr 0,4
.LVL1669:
.L1760:
	.loc 1 1393 0 discriminator 2
	cmplw 7,24,0
	bgt- 7,.L1749
.LVL1670:
	.loc 1 1393 0 discriminator 1
	beq- 1,.L1751
.LBB6594:
	.loc 1 1393 0
	mullw 7,0,22
.LBE6594:
	.loc 1 1065 0 is_stmt 1
	li 9,0
	.loc 1 1393 0
	li 0,0
.LBB6595:
	mtctr 30
.LBB6585:
.LBB6586:
	.loc 1 750 0
	add 7,21,7
	b .L1756
.LVL1671:
.L4392:
.LBE6586:
.LBE6585:
	.loc 1 1393 0 discriminator 2
	cmplw 7,0,26
	bgt- 7,.L1752
.LVL1672:
	.loc 1 1393 0 is_stmt 0 discriminator 1
	mullw 8,0,25
.LBB6588:
.LBB6587:
	.loc 1 750 0 is_stmt 1 discriminator 1
	lwzx 0,7,8
.LVL1673:
	.loc 1 752 0 discriminator 1
	srwi 8,0,24
.LVL1674:
	.loc 1 753 0 discriminator 1
	rlwinm 17,0,18,24,31
	.loc 1 754 0 discriminator 1
	rlwinm 0,0,28,24,31
.LVL1675:
.LBE6587:
.LBE6588:
	.loc 1 1393 0 discriminator 1
	beq- 6,.L1755
	.loc 1 1393 0 is_stmt 0
	mr 16,8
	mr 8,0
.LVL1676:
	mr 0,16
.LVL1677:
.L1755:
.LBB6589:
.LBB6590:
.LBB6591:
	.loc 1 130 0 is_stmt 1 discriminator 2
	srwi 0,0,3
.LVL1678:
	rlwinm 17,17,3,21,26
.LVL1679:
	or 0,0,17
	rlwinm 8,8,8,16,20
.LVL1680:
	or 8,0,8
	.loc 1 132 0 discriminator 2
	sth 8,0(31)
	addi 31,31,2
.LVL1681:
.L1754:
.LBE6591:
.LBE6590:
.LBE6589:
.LBE6595:
	.loc 1 1393 0 discriminator 24
	addi 9,9,1
.LVL1682:
	mr 0,9
	bdz .L1751
.LVL1683:
.L1756:
.LBB6596:
	.loc 1 1393 0 is_stmt 0 discriminator 2
	add 0,0,11
.LVL1684:
	cmplw 7,28,0
	ble- 7,.L4392
.L1752:
.LVL1685:
.LBB6592:
.LBB6593:
	.loc 2 350 0 is_stmt 1
	add 31,31,27
.LVL1686:
.LBE6593:
.LBE6592:
	.loc 1 1393 0
	b .L1754
.LVL1687:
.L1254:
.LBE6596:
.LBE6600:
	.loc 1 1387 0 discriminator 1
	cmpwi 7,19,0
	ble- 7,.L170
.LBB6601:
	.loc 1 1387 0 is_stmt 0
	mullw 4,27,30
	cmpwi 4,20,0
	cmpwi 0,29,0
	cmpwi 1,30,0
.LBB6602:
	cmpwi 6,15,0
.LBE6602:
	li 3,0
.LVL1688:
	li 18,0
.LBB6614:
.LBB6603:
.LBB6604:
	.loc 1 726 0 is_stmt 1
	lis 8,0x4330
.LVL1689:
	lis 5,.LC1@ha
.LVL1690:
	lis 6,.LC22@ha
.LVL1691:
.L1262:
.LBE6604:
.LBE6603:
.LBE6614:
.LBE6601:
	.loc 1 1387 0 discriminator 1
	ble- 4,.L1356
	.loc 1 1387 0 is_stmt 0
	li 11,0
	li 17,0
.LBB6620:
	.loc 1 1065 0 is_stmt 1
	add 7,3,29
.LVL1692:
.L1359:
.LBE6620:
	.loc 1 1387 0 discriminator 1
	beq- 0,.L1357
.LBB6621:
	.loc 1 1387 0 is_stmt 0
	cmplw 7,3,23
	bgt- 7,.L170
	addi 10,3,1
	mr 0,3
.LVL1693:
.L1358:
	.loc 1 1387 0 discriminator 2
	cmplw 7,24,0
	bgt- 7,.L1347
.LVL1694:
	.loc 1 1387 0 discriminator 1
	beq- 1,.L1349
.LBB6615:
	.loc 1 1387 0
	mullw 16,0,22
	mtctr 30
.LBE6615:
	li 0,0
	.loc 1 1065 0 is_stmt 1
	li 9,0
.LBB6616:
.LBB6607:
.LBB6605:
	.loc 1 723 0
	add 16,21,16
.LVL1695:
.L1354:
.LBE6605:
.LBE6607:
	.loc 1 1387 0 discriminator 2
	add 0,0,11
.LVL1696:
	cmplw 7,28,0
	bgt- 7,.L1350
	cmplw 7,0,26
	ble- 7,.L1351
.L1350:
.LVL1697:
.LBB6608:
.LBB6609:
	.loc 2 350 0
	add 31,31,27
.LVL1698:
.L1352:
.LBE6609:
.LBE6608:
.LBE6616:
	.loc 1 1387 0 discriminator 24
	addi 9,9,1
.LVL1699:
	mr 0,9
	bdnz .L1354
.LVL1700:
.L1349:
.LBE6621:
	.loc 1 1387 0 is_stmt 0 discriminator 23
	cmpw 7,10,7
	beq- 7,.L1357
.LVL1701:
.LBB6622:
	.loc 1 1387 0 discriminator 2
	cmplw 7,23,10
.LBE6622:
	addi 9,10,1
.LBB6623:
	blt- 7,.L170
	.loc 1 1387 0
	mr 0,10
	mr 10,9
.LVL1702:
	b .L1358
.LVL1703:
.L1351:
.LBB6617:
	.loc 1 1387 0 discriminator 1
	mullw 15,0,25
.LBB6610:
.LBB6606:
	.loc 1 726 0 is_stmt 1 discriminator 1
	lfs 13,.LC1@l(5)
	lfs 0,.LC22@l(6)
	addi 12,1,2580
	lhzx 0,16,15
.LVL1704:
	stw 8,1400(1)
	rlwinm 14,0,22,27,31
	.loc 1 727 0 discriminator 1
	rlwinm 15,0,27,27,31
	.loc 1 728 0 discriminator 1
	rlwinm 0,0,0,27,31
	.loc 1 726 0 discriminator 1
	xoris 14,14,0x8000
	.loc 1 727 0 discriminator 1
	xoris 15,15,0x8000
	.loc 1 728 0 discriminator 1
	xoris 0,0,0x8000
	.loc 1 726 0 discriminator 1
	stw 14,1404(1)
	.loc 1 727 0 discriminator 1
	addi 14,1,2584
	stw 15,1412(1)
	.loc 1 728 0 discriminator 1
	addi 15,1,2588
	stw 0,1420(1)
	.loc 1 727 0 discriminator 1
	stw 8,1408(1)
	.loc 1 728 0 discriminator 1
	stw 8,1416(1)
	.loc 1 726 0 discriminator 1
	lfd 12,1400(1)
	.loc 1 727 0 discriminator 1
	lfd 10,1408(1)
	.loc 1 728 0 discriminator 1
	lfd 11,1416(1)
	.loc 1 726 0 discriminator 1
	fsub 12,12,13
	.loc 1 727 0 discriminator 1
	fsub 10,10,13
	.loc 1 728 0 discriminator 1
	fsub 11,11,13
	.loc 1 726 0 discriminator 1
	frsp 12,12
	.loc 1 727 0 discriminator 1
	frsp 13,10
	.loc 1 728 0 discriminator 1
	frsp 11,11
	.loc 1 726 0 discriminator 1
	fmuls 12,12,0
	.loc 1 727 0 discriminator 1
	fmuls 13,13,0
	.loc 1 728 0 discriminator 1
	fmuls 0,11,0
	.loc 1 726 0 discriminator 1
	fctiwz 12,12
	.loc 1 727 0 discriminator 1
	fctiwz 13,13
	.loc 1 728 0 discriminator 1
	fctiwz 0,0
	.loc 1 726 0 discriminator 1
	stfiwx 12,0,12
	.loc 1 727 0 discriminator 1
	stfiwx 13,0,14
	.loc 1 728 0 discriminator 1
	stfiwx 0,0,15
	.loc 1 726 0 discriminator 1
	lwz 15,2580(1)
	.loc 1 727 0 discriminator 1
	lwz 14,2584(1)
	.loc 1 728 0 discriminator 1
	lwz 0,2588(1)
	.loc 1 726 0 discriminator 1
	rlwinm 15,15,0,0xff
.LVL1705:
	.loc 1 727 0 discriminator 1
	rlwinm 14,14,0,0xff
	.loc 1 728 0 discriminator 1
	rlwinm 0,0,0,0xff
.LVL1706:
.LBE6606:
.LBE6610:
	.loc 1 1387 0 discriminator 1
	beq- 6,.L1353
	.loc 1 1387 0 is_stmt 0
	mr 12,0
	mr 0,15
.LVL1707:
	mr 15,12
.LVL1708:
.L1353:
.LBB6611:
.LBB6612:
.LBB6613:
	.loc 1 130 0 is_stmt 1 discriminator 2
	srwi 15,15,3
.LVL1709:
	rlwinm 14,14,3,21,26
	or 15,15,14
	rlwinm 0,0,8,16,20
.LVL1710:
	or 0,15,0
	.loc 1 132 0 discriminator 2
	sth 0,0(31)
	addi 31,31,2
.LVL1711:
	b .L1352
.LVL1712:
.L1253:
.LBE6613:
.LBE6612:
.LBE6611:
.LBE6617:
.LBE6623:
	.loc 1 1387 0 discriminator 4
	cmpwi 7,18,6406
	bne+ 7,$+8
	b .L4393
.LVL1713:
	.loc 1 1387 0 is_stmt 0 discriminator 1
	cmpwi 7,19,0
	ble- 7,.L170
.LBB6624:
	.loc 1 1387 0
	mullw 12,27,30
	li 6,0
	li 7,0
.LVL1714:
	stw 6,3080(1)
	stw 7,3088(1)
	cmpwi 4,20,0
	cmpwi 0,29,0
	cmpwi 1,30,0
.LBB6625:
	cmpwi 6,15,0
.LBB6626:
.LBB6627:
	.loc 1 726 0 is_stmt 1
	lis 10,0x4330
.LVL1715:
	lis 14,.LC1@ha
	lis 16,.LC22@ha
.LBE6627:
.LBE6626:
.LBB6630:
.LBB6631:
.LBB6632:
	.loc 1 174 0
	lis 17,.LC9@ha
	lis 18,.LC15@ha
.LVL1716:
.L1306:
.LBE6632:
.LBE6631:
.LBE6630:
.LBE6625:
.LBE6624:
	.loc 1 1387 0 discriminator 1
	bgt+ 4,$+8
	b .L1328
	.loc 1 1387 0 is_stmt 0
	li 9,0
.LBB6654:
	.loc 1 1065 0 is_stmt 1
	lwz 11,3080(1)
.LBE6654:
	.loc 1 1387 0
	stw 9,3084(1)
	li 0,0
.LBB6655:
	.loc 1 1065 0
	add 3,11,29
.LVL1717:
.L1331:
.LBE6655:
	.loc 1 1387 0 discriminator 1
	bne+ 0,$+8
	b .L1329
.LBB6656:
	.loc 1 1387 0 is_stmt 0
	lwz 15,3080(1)
	cmplw 7,15,23
	bgt- 7,.L170
	addi 11,15,1
	mr 9,15
.LVL1718:
.L1330:
	.loc 1 1387 0 discriminator 2
	cmplw 7,24,9
	bgt- 7,.L1319
.LVL1719:
	.loc 1 1387 0 discriminator 1
	beq- 1,.L1321
.LBB6649:
	.loc 1 1387 0
	mullw 4,9,22
.LBB6643:
.LBB6636:
.LBB6633:
	.loc 1 174 0 is_stmt 1
	mtctr 30
.LBE6633:
.LBE6636:
.LBE6643:
.LBE6649:
	.loc 1 1387 0
	li 8,0
	.loc 1 1065 0
	li 9,0
.LBB6650:
.LBB6644:
.LBB6628:
	.loc 1 723 0
	add 4,21,4
.LVL1720:
.L1326:
.LBE6628:
.LBE6644:
	.loc 1 1387 0 discriminator 2
	add 8,8,0
.LVL1721:
	cmplw 7,28,8
	bgt- 7,.L1322
	cmplw 7,8,26
	ble- 7,.L1323
.L1322:
.LVL1722:
.LBB6645:
.LBB6646:
	.loc 2 350 0
	add 31,31,27
.LVL1723:
.L1324:
.LBE6646:
.LBE6645:
.LBE6650:
	.loc 1 1387 0 discriminator 20
	addi 9,9,1
.LVL1724:
	mr 8,9
	bdnz .L1326
.LVL1725:
.L1321:
.LBE6656:
	.loc 1 1387 0 is_stmt 0 discriminator 19
	cmpw 7,11,3
	bne+ 7,$+8
	b .L1329
.LVL1726:
.LBB6657:
	.loc 1 1387 0 discriminator 2
	cmplw 7,23,11
.LBE6657:
	addi 8,11,1
.LBB6658:
	blt- 7,.L170
	.loc 1 1387 0
	mr 9,11
	mr 11,8
.LVL1727:
	b .L1330
.LVL1728:
.L1252:
.LBE6658:
	.loc 1 1387 0 discriminator 1
	cmpwi 7,19,0
	ble- 7,.L170
.LBB6659:
	.loc 1 1387 0
	mullw 12,27,30
	li 5,0
.LVL1729:
	li 6,0
	stw 5,3080(1)
	stw 6,3088(1)
	cmpwi 4,20,0
	cmpwi 0,29,0
	cmpwi 1,30,0
.LBB6660:
	cmpwi 6,15,0
.LBB6661:
.LBB6662:
	.loc 1 726 0 is_stmt 1
	lis 10,0x4330
.LVL1730:
	lis 14,.LC1@ha
	lis 16,.LC22@ha
.LBE6662:
.LBE6661:
.LBB6665:
.LBB6666:
.LBB6667:
	.loc 1 174 0
	lis 17,.LC9@ha
	lis 18,.LC15@ha
.LVL1731:
.L1263:
.LBE6667:
.LBE6666:
.LBE6665:
.LBE6660:
.LBE6659:
	.loc 1 1387 0 discriminator 1
	ble- 4,.L1299
	.loc 1 1387 0 is_stmt 0
	li 9,0
.LBB6689:
	.loc 1 1065 0 is_stmt 1
	lwz 11,3080(1)
.LBE6689:
	.loc 1 1387 0
	stw 9,3084(1)
	li 0,0
.LBB6690:
	.loc 1 1065 0
	add 3,11,29
.LVL1732:
.L1302:
.LBE6690:
	.loc 1 1387 0 discriminator 1
	beq- 0,.L1300
.LBB6691:
	.loc 1 1387 0 is_stmt 0
	lwz 15,3080(1)
	cmplw 7,15,23
	bgt- 7,.L170
	addi 11,15,1
	mr 9,15
.LVL1733:
.L1301:
	.loc 1 1387 0 discriminator 2
	cmplw 7,24,9
	bgt- 7,.L1290
.LVL1734:
	.loc 1 1387 0 discriminator 1
	beq- 1,.L1292
.LBB6684:
	.loc 1 1387 0
	mullw 4,9,22
.LBB6678:
.LBB6671:
.LBB6668:
	.loc 1 174 0 is_stmt 1
	mtctr 30
.LBE6668:
.LBE6671:
.LBE6678:
.LBE6684:
	.loc 1 1387 0
	li 8,0
	.loc 1 1065 0
	li 9,0
.LBB6685:
.LBB6679:
.LBB6663:
	.loc 1 723 0
	add 4,21,4
.LVL1735:
.L1297:
.LBE6663:
.LBE6679:
	.loc 1 1387 0 discriminator 2
	add 8,0,8
.LVL1736:
	cmplw 7,28,8
	bgt- 7,.L1293
	cmplw 7,8,26
	ble- 7,.L1294
.L1293:
.LVL1737:
.LBB6680:
.LBB6681:
	.loc 2 350 0
	add 31,31,27
.LVL1738:
.L1295:
.LBE6681:
.LBE6680:
.LBE6685:
	.loc 1 1387 0 discriminator 15
	addi 9,9,1
.LVL1739:
	mr 8,9
	bdnz .L1297
.LVL1740:
.L1292:
.LBE6691:
	.loc 1 1387 0 is_stmt 0 discriminator 14
	cmpw 7,11,3
	beq- 7,.L1300
.LVL1741:
.LBB6692:
	.loc 1 1387 0 discriminator 2
	cmplw 7,23,11
.LBE6692:
	addi 8,11,1
.LBB6693:
	blt- 7,.L170
	.loc 1 1387 0
	mr 9,11
	mr 11,8
.LVL1742:
	b .L1301
.LVL1743:
.L1294:
.LBB6686:
	.loc 1 1387 0 discriminator 1
	mullw 8,8,25
.LVL1744:
.LBB6682:
.LBB6664:
	.loc 1 726 0 is_stmt 1 discriminator 1
	lfs 13,.LC1@l(14)
	lfs 0,.LC22@l(16)
	addi 15,1,2624
	.loc 1 723 0 discriminator 1
	lhzx 8,4,8
.LVL1745:
	.loc 1 726 0 discriminator 1
	stw 10,1280(1)
	rlwinm 5,8,22,27,31
	.loc 1 727 0 discriminator 1
	rlwinm 6,8,27,27,31
	.loc 1 728 0 discriminator 1
	rlwinm 7,8,0,27,31
	.loc 1 726 0 discriminator 1
	xoris 5,5,0x8000
	.loc 1 727 0 discriminator 1
	xoris 6,6,0x8000
	.loc 1 728 0 discriminator 1
	xoris 7,7,0x8000
	.loc 1 726 0 discriminator 1
	stw 5,1284(1)
	.loc 1 727 0 discriminator 1
	addi 5,1,2628
	stw 6,1292(1)
	.loc 1 728 0 discriminator 1
	addi 6,1,2632
	stw 7,1300(1)
	.loc 1 727 0 discriminator 1
	stw 10,1288(1)
	.loc 1 728 0 discriminator 1
	stw 10,1296(1)
	.loc 1 726 0 discriminator 1
	lfd 12,1280(1)
	.loc 1 727 0 discriminator 1
	lfd 10,1288(1)
	.loc 1 728 0 discriminator 1
	lfd 11,1296(1)
	.loc 1 726 0 discriminator 1
	fsub 12,12,13
	.loc 1 727 0 discriminator 1
	fsub 10,10,13
	.loc 1 728 0 discriminator 1
	fsub 11,11,13
	.loc 1 726 0 discriminator 1
	frsp 12,12
	.loc 1 727 0 discriminator 1
	frsp 13,10
	.loc 1 728 0 discriminator 1
	frsp 11,11
	.loc 1 726 0 discriminator 1
	fmuls 12,12,0
	.loc 1 727 0 discriminator 1
	fmuls 13,13,0
	.loc 1 728 0 discriminator 1
	fmuls 0,11,0
	.loc 1 726 0 discriminator 1
	fctiwz 12,12
	.loc 1 727 0 discriminator 1
	fctiwz 13,13
	.loc 1 728 0 discriminator 1
	fctiwz 0,0
	.loc 1 726 0 discriminator 1
	stfiwx 12,0,15
	.loc 1 727 0 discriminator 1
	stfiwx 13,0,5
	.loc 1 728 0 discriminator 1
	stfiwx 0,0,6
	.loc 1 725 0 discriminator 1
	srwi 6,8,15
	neg 6,6
	.loc 1 726 0 discriminator 1
	lwz 15,2624(1)
	.loc 1 725 0 discriminator 1
	rlwinm 6,6,0,0xff
	.loc 1 727 0 discriminator 1
	lwz 5,2628(1)
	.loc 1 728 0 discriminator 1
	lwz 7,2632(1)
	.loc 1 726 0 discriminator 1
	rlwinm 8,15,0,0xff
.LVL1746:
	.loc 1 727 0 discriminator 1
	rlwinm 5,5,0,0xff
	.loc 1 728 0 discriminator 1
	rlwinm 7,7,0,0xff
.LVL1747:
.LBE6664:
.LBE6682:
	.loc 1 1387 0 discriminator 1
	beq- 6,.L1296
	.loc 1 1387 0 is_stmt 0
	mr 15,7
.LVL1748:
	mr 7,8
.LVL1749:
	mr 8,15
.LVL1750:
.L1296:
.LBB6683:
.LBB6672:
.LBB6669:
	.loc 1 174 0 is_stmt 1 discriminator 2
	stw 7,1308(1)
	addi 7,1,2620
.LVL1751:
	stw 10,1304(1)
.LBE6669:
.LBE6672:
.LBB6673:
.LBB6674:
	.loc 1 115 0 discriminator 2
	srwi 6,6,4
.LVL1752:
.LBE6674:
.LBE6673:
.LBB6676:
.LBB6670:
	.loc 1 174 0 discriminator 2
	stw 5,1316(1)
	stw 10,1312(1)
	lfs 0,.LC9@l(17)
	lfd 11,1304(1)
	lfd 12,1312(1)
	stw 8,1324(1)
	fsub 11,11,0
	stw 10,1320(1)
	fsub 12,12,0
	lfd 13,1320(1)
	frsp 11,11
	frsp 12,12
	fsub 0,13,0
	lfs 13,.LC15@l(18)
	fadds 12,11,12
	frsp 0,0
	fadds 0,12,0
	fdivs 0,0,13
	fctiwz 0,0
	stfiwx 0,0,7
	lwz 8,2620(1)
.LVL1753:
.LBE6670:
.LBE6676:
.LBB6677:
.LBB6675:
	.loc 1 115 0 discriminator 2
	rlwinm 8,8,0,0,27
	or 6,8,6
	.loc 1 116 0 discriminator 2
	stb 6,0(31)
	addi 31,31,1
.LVL1754:
	b .L1295
.LVL1755:
.L1251:
.LBE6675:
.LBE6677:
.LBE6683:
.LBE6686:
.LBE6693:
	.loc 1 1387 0 discriminator 1
	cmpwi 7,19,0
	ble- 7,.L170
.LBB6694:
	.loc 1 1387 0 is_stmt 0
	mullw 14,27,30
	li 7,0
.LVL1756:
	stw 7,3084(1)
	cmpwi 4,20,0
	cmpwi 0,29,0
	cmpwi 1,30,0
.LBB6695:
	cmpwi 6,15,0
.LBE6695:
	li 12,0
.LBB6715:
.LBB6696:
.LBB6697:
	.loc 1 726 0 is_stmt 1
	lis 10,0x4330
.LVL1757:
	lis 16,.LC1@ha
	lis 17,.LC22@ha
.LBE6697:
.LBE6696:
.LBB6700:
.LBB6701:
.LBB6702:
	.loc 1 174 0
	lis 18,.LC9@ha
	lis 3,.LC15@ha
.LVL1758:
.L1264:
.LBE6702:
.LBE6701:
.LBE6700:
.LBE6715:
.LBE6694:
	.loc 1 1387 0 discriminator 1
	ble- 4,.L1274
	.loc 1 1387 0 is_stmt 0
	li 9,0
	li 0,0
	stw 9,3080(1)
.LBB6721:
	.loc 1 1065 0 is_stmt 1
	add 4,12,29
.LVL1759:
.L1277:
.LBE6721:
	.loc 1 1387 0 discriminator 1
	beq- 0,.L1275
.LBB6722:
	.loc 1 1387 0 is_stmt 0
	cmplw 7,12,23
	bgt- 7,.L170
	addi 11,12,1
	mr 9,12
.LVL1760:
.L1276:
	.loc 1 1387 0 discriminator 2
	cmplw 7,24,9
	bgt- 7,.L1265
.LVL1761:
	.loc 1 1387 0 discriminator 1
	beq- 1,.L1267
.LBB6716:
	.loc 1 1387 0
	mullw 5,9,22
.LBB6709:
.LBB6705:
.LBB6703:
	.loc 1 174 0 is_stmt 1
	mtctr 30
.LBE6703:
.LBE6705:
.LBE6709:
.LBE6716:
	.loc 1 1387 0
	li 8,0
	.loc 1 1065 0
	li 9,0
.LBB6717:
.LBB6710:
.LBB6698:
	.loc 1 723 0
	add 5,21,5
.LVL1762:
.L1272:
.LBE6698:
.LBE6710:
	.loc 1 1387 0 discriminator 2
	add 8,0,8
.LVL1763:
	cmplw 7,28,8
	bgt- 7,.L1268
	cmplw 7,8,26
	ble- 7,.L1269
.L1268:
.LVL1764:
.LBB6711:
.LBB6712:
	.loc 2 350 0
	add 31,31,27
.LVL1765:
.L1270:
.LBE6712:
.LBE6711:
.LBE6717:
	.loc 1 1387 0 discriminator 10
	addi 9,9,1
.LVL1766:
	mr 8,9
	bdnz .L1272
.LVL1767:
.L1267:
.LBE6722:
	.loc 1 1387 0 is_stmt 0 discriminator 9
	cmpw 7,11,4
	beq- 7,.L1275
.LVL1768:
.LBB6723:
	.loc 1 1387 0 discriminator 2
	cmplw 7,23,11
	addi 8,11,1
	blt- 7,.L170
	.loc 1 1387 0
	mr 9,11
	mr 11,8
.LVL1769:
	b .L1276
.LVL1770:
.L1269:
.LBB6718:
	.loc 1 1387 0 discriminator 1
	mullw 8,8,25
.LVL1771:
.LBB6713:
.LBB6699:
	.loc 1 726 0 is_stmt 1 discriminator 1
	lfs 13,.LC1@l(16)
	lfs 0,.LC22@l(17)
	.loc 1 727 0 discriminator 1
	addi 15,1,2644
	.loc 1 726 0 discriminator 1
	lhzx 8,5,8
	stw 10,1232(1)
	rlwinm 6,8,22,27,31
	.loc 1 727 0 discriminator 1
	rlwinm 7,8,27,27,31
	.loc 1 728 0 discriminator 1
	rlwinm 8,8,0,27,31
	.loc 1 726 0 discriminator 1
	xoris 6,6,0x8000
	.loc 1 727 0 discriminator 1
	xoris 7,7,0x8000
	.loc 1 728 0 discriminator 1
	xoris 8,8,0x8000
	.loc 1 726 0 discriminator 1
	stw 6,1236(1)
	.loc 1 728 0 discriminator 1
	addi 6,1,2648
	.loc 1 727 0 discriminator 1
	stw 7,1244(1)
	.loc 1 728 0 discriminator 1
	stw 8,1252(1)
	.loc 1 726 0 discriminator 1
	addi 8,1,2640
	.loc 1 727 0 discriminator 1
	stw 10,1240(1)
	.loc 1 728 0 discriminator 1
	stw 10,1248(1)
	.loc 1 726 0 discriminator 1
	lfd 12,1232(1)
	.loc 1 727 0 discriminator 1
	lfd 10,1240(1)
	.loc 1 728 0 discriminator 1
	lfd 11,1248(1)
	.loc 1 726 0 discriminator 1
	fsub 12,12,13
	.loc 1 727 0 discriminator 1
	fsub 10,10,13
	.loc 1 728 0 discriminator 1
	fsub 11,11,13
	.loc 1 726 0 discriminator 1
	frsp 12,12
	.loc 1 727 0 discriminator 1
	frsp 13,10
	.loc 1 728 0 discriminator 1
	frsp 11,11
	.loc 1 726 0 discriminator 1
	fmuls 12,12,0
	.loc 1 727 0 discriminator 1
	fmuls 13,13,0
	.loc 1 728 0 discriminator 1
	fmuls 0,11,0
	.loc 1 726 0 discriminator 1
	fctiwz 12,12
	.loc 1 727 0 discriminator 1
	fctiwz 13,13
	.loc 1 728 0 discriminator 1
	fctiwz 0,0
	.loc 1 726 0 discriminator 1
	stfiwx 12,0,8
	.loc 1 727 0 discriminator 1
	stfiwx 13,0,15
	.loc 1 728 0 discriminator 1
	stfiwx 0,0,6
	.loc 1 726 0 discriminator 1
	lwz 8,2640(1)
	.loc 1 727 0 discriminator 1
	lwz 6,2644(1)
	.loc 1 728 0 discriminator 1
	lwz 7,2648(1)
	.loc 1 726 0 discriminator 1
	rlwinm 8,8,0,0xff
.LVL1772:
	.loc 1 727 0 discriminator 1
	rlwinm 6,6,0,0xff
	.loc 1 728 0 discriminator 1
	rlwinm 7,7,0,0xff
.LVL1773:
.LBE6699:
.LBE6713:
	.loc 1 1387 0 discriminator 1
	beq- 6,.L1271
	.loc 1 1387 0 is_stmt 0
	mr 15,7
	mr 7,8
.LVL1774:
	mr 8,15
.LVL1775:
.L1271:
.LBB6714:
.LBB6706:
.LBB6704:
	.loc 1 174 0 is_stmt 1 discriminator 2
	stw 7,1260(1)
	addi 7,1,2636
.LVL1776:
	stw 10,1256(1)
	stw 6,1268(1)
	stw 10,1264(1)
	lfs 0,.LC9@l(18)
	lfd 11,1256(1)
	lfd 12,1264(1)
	stw 8,1276(1)
	fsub 11,11,0
	stw 10,1272(1)
	fsub 12,12,0
	lfd 13,1272(1)
	frsp 11,11
	frsp 12,12
	fsub 0,13,0
	lfs 13,.LC15@l(3)
	fadds 12,11,12
	frsp 0,0
	fadds 0,12,0
	fdivs 0,0,13
	fctiwz 0,0
	stfiwx 0,0,7
	lwz 8,2636(1)
.LVL1777:
	stb 8,0(31)
.LBE6704:
.LBE6706:
.LBB6707:
.LBB6708:
	.loc 1 122 0 discriminator 2
	addi 31,31,1
.LVL1778:
	b .L1270
.LVL1779:
.L324:
.LBE6708:
.LBE6707:
.LBE6714:
.LBE6718:
.LBE6723:
	.loc 1 1373 0 discriminator 1
	cmpwi 7,19,0
	ble- 7,.L170
.LBB6724:
	.loc 1 1373 0 is_stmt 0
	mullw 4,27,30
	cmpwi 4,20,0
	cmpwi 0,29,0
	cmpwi 1,30,0
.LBB6725:
	cmpwi 6,15,0
.LBE6725:
	li 3,0
.LVL1780:
	li 18,0
.LBB6737:
.LBB6726:
.LBB6727:
	.loc 1 662 0 is_stmt 1
	lis 8,0x4330
.LVL1781:
	lis 5,.LC1@ha
.LVL1782:
	lis 6,.LC21@ha
.LVL1783:
.L332:
.LBE6727:
.LBE6726:
.LBE6737:
.LBE6724:
	.loc 1 1373 0 discriminator 1
	ble- 4,.L424
	.loc 1 1373 0 is_stmt 0
	li 11,0
	li 17,0
.LBB6743:
	.loc 1 1065 0 is_stmt 1
	add 7,3,29
.LVL1784:
.L427:
.LBE6743:
	.loc 1 1373 0 discriminator 1
	beq- 0,.L425
.LBB6744:
	.loc 1 1373 0 is_stmt 0
	cmplw 7,3,23
	bgt- 7,.L170
	addi 10,3,1
	mr 0,3
.LVL1785:
.L426:
	.loc 1 1373 0 discriminator 2
	cmplw 7,24,0
	bgt- 7,.L415
.LVL1786:
	.loc 1 1373 0 discriminator 1
	beq- 1,.L417
.LBB6738:
	.loc 1 1373 0
	mullw 16,0,22
	mtctr 30
.LBE6738:
	li 0,0
	.loc 1 1065 0 is_stmt 1
	li 9,0
.LBB6739:
.LBB6730:
.LBB6728:
	.loc 1 660 0
	add 16,21,16
.LVL1787:
.L422:
.LBE6728:
.LBE6730:
	.loc 1 1373 0 discriminator 2
	add 0,11,0
.LVL1788:
	cmplw 7,28,0
	bgt- 7,.L418
	cmplw 7,0,26
	ble- 7,.L419
.L418:
.LVL1789:
.LBB6731:
.LBB6732:
	.loc 2 350 0
	add 31,31,27
.LVL1790:
.L420:
.LBE6732:
.LBE6731:
.LBE6739:
	.loc 1 1373 0 discriminator 16
	addi 9,9,1
.LVL1791:
	mr 0,9
	bdnz .L422
.LVL1792:
.L417:
.LBE6744:
	.loc 1 1373 0 is_stmt 0 discriminator 15
	cmpw 7,10,7
	beq- 7,.L425
.LVL1793:
.LBB6745:
	.loc 1 1373 0 discriminator 2
	cmplw 7,23,10
.LBE6745:
	addi 9,10,1
.LBB6746:
	blt- 7,.L170
	.loc 1 1373 0
	mr 0,10
	mr 10,9
.LVL1794:
	b .L426
.LVL1795:
.L419:
.LBB6740:
	.loc 1 1373 0 discriminator 1
	mullw 15,0,25
.LBB6733:
.LBB6729:
	.loc 1 662 0 is_stmt 1 discriminator 1
	lfs 13,.LC1@l(5)
	lfs 0,.LC21@l(6)
	addi 12,1,3028
	.loc 1 660 0 discriminator 1
	lbzx 0,16,15
.LVL1796:
	.loc 1 662 0 discriminator 1
	stw 8,176(1)
	rlwinm 14,0,27,30,31
	.loc 1 663 0 discriminator 1
	rlwinm 15,0,30,29,31
	.loc 1 662 0 discriminator 1
	xoris 14,14,0x8000
	.loc 1 663 0 discriminator 1
	xoris 15,15,0x8000
	.loc 1 662 0 discriminator 1
	stw 14,180(1)
	.loc 1 663 0 discriminator 1
	addi 14,1,3032
	stw 15,188(1)
	.loc 1 664 0 discriminator 1
	rlwinm 15,0,0,30,31
	.loc 1 663 0 discriminator 1
	stw 8,184(1)
	.loc 1 664 0 discriminator 1
	mulli 15,15,85
	.loc 1 662 0 discriminator 1
	lfd 11,176(1)
	.loc 1 663 0 discriminator 1
	lfd 12,184(1)
	.loc 1 664 0 discriminator 1
	rlwinm 15,15,0,0xff
	.loc 1 662 0 discriminator 1
