	.file	"gl_vidogc.c"
	.section	".text"
.Ltext0:
	.cfi_sections	.debug_frame
	.align 2
	.globl VID_Init
	.type	VID_Init, @function
VID_Init:
.LFB61:
	.file 1 "d:/Data/Nintendo/TenebraeGX/src/gl_vidogc.c"
	.loc 1 27 0
	.cfi_startproc
.LVL0:
	stwu 1,-160(1)
.LCFI0:
	.cfi_def_cfa_offset 160
	mflr 0
	stw 30,152(1)
	mr 30,3
	.cfi_offset 30, -8
	.cfi_register 65, 0
	stw 31,156(1)
	.loc 1 31 0
	li 3,200
.LVL1:
	lis 31,vid@ha
	.cfi_offset 31, -4
	.loc 1 27 0
	stw 0,164(1)
	.loc 1 31 0
	la 31,vid@l(31)
	.cfi_offset 65, 4
	bl glutGet
	stw 3,20(31)
	.loc 1 32 0
	li 3,201
	bl glutGet
	.loc 1 35 0
	lis 11,host_colormap@ha
	lwz 8,host_colormap@l(11)
	.loc 1 33 0
	li 7,320
	.loc 1 37 0
	lwz 9,20(31)
	lis 11,.LANCHOR0@ha
	la 10,.LANCHOR0@l(11)
	.loc 1 32 0
	mr 0,3
	.loc 1 33 0
	stw 7,56(31)
	.loc 1 34 0
	li 7,200
	stw 7,60(31)
	.loc 1 43 0
	li 4,0
	.loc 1 35 0
	stw 8,4(31)
	.loc 1 43 0
	li 3,0
	.loc 1 38 0
	stw 0,4(10)
	.loc 1 32 0
	stw 0,24(31)
	.loc 1 40 0
	stw 0,52(31)
	.loc 1 41 0
	stw 9,48(31)
	.loc 1 37 0
	stw 9,.LANCHOR0@l(11)
	.loc 1 43 0
	bl glutInit
	.loc 1 44 0
	lis 3,.LC0@ha
	la 3,.LC0@l(3)
	bl glutCreateWindow
	.loc 1 45 0
	lwz 3,20(31)
	lwz 4,24(31)
	bl glutInitWindowSize
	.loc 1 47 0
	lwz 11,24(31)
	lwz 9,20(31)
	lis 0,0x4330
	stw 11,140(1)
	stw 0,136(1)
	stw 9,148(1)
	lis 9,.LC2@ha
	stw 0,144(1)
	.loc 1 48 0
	li 0,2
	.loc 1 47 0
	lfd 13,136(1)
	lfd 12,144(1)
	lfs 0,.LC2@l(9)
	lis 9,.LC3@ha
	.loc 1 48 0
	stw 0,32(31)
	.loc 1 47 0
	fsub 13,13,0
	fsub 0,12,0
	frsp 13,13
	frsp 0,0
	fdivs 0,13,0
	lfd 13,.LC3@l(9)
	fmul 0,0,13
	frsp 0,0
	stfs 0,28(31)
	.loc 1 51 0
	bl GL_Init
	.loc 1 53 0
	bl GX_InitGXExt
	.loc 1 55 0
	lis 5,com_gamedir@ha
	lis 4,.LC4@ha
	la 5,com_gamedir@l(5)
	la 4,.LC4@l(4)
	addi 3,1,8
	crxor 6,6,6
	bl sprintf
	.loc 1 56 0
	lis 3,.LC5@ha
	addi 4,1,8
	la 3,.LC5@l(3)
	crxor 6,6,6
	bl Con_SafePrintf
	.loc 1 59 0
	mr 3,30
	bl VID_SetPalette
	.loc 1 61 0
	lwz 4,20(31)
	lwz 5,24(31)
	lis 3,.LC6@ha
	la 3,.LC6@l(3)
	crxor 6,6,6
	bl Con_SafePrintf
	.loc 1 63 0
	li 0,1
	stw 0,36(31)
	.loc 1 65 0
	lwz 0,164(1)
	lwz 30,152(1)
.LVL2:
	mtlr 0
	lwz 31,156(1)
	addi 1,1,160
.LCFI1:
	.cfi_def_cfa_offset 0
	.cfi_restore 31
	.cfi_restore 30
	blr
	.cfi_endproc
.LFE61:
	.size	VID_Init, .-VID_Init
	.align 2
	.globl VID_Setup
	.type	VID_Setup, @function
VID_Setup:
.LFB62:
	.loc 1 67 0
	.cfi_startproc
	mflr 0
	stwu 1,-8(1)
.LCFI2:
	.cfi_def_cfa_offset 8
	.cfi_register 65, 0
	.loc 1 71 0
	li 3,18
	.loc 1 67 0
	stw 0,12(1)
	.loc 1 71 0
	.cfi_offset 65, 4
	bl glutInitDisplayMode
	.loc 1 73 0
	lwz 0,12(1)
	addi 1,1,8
.LCFI3:
	.cfi_def_cfa_offset 0
	mtlr 0
	blr
	.cfi_endproc
.LFE62:
	.size	VID_Setup, .-VID_Setup
	.align 2
	.globl VID_Shutdown
	.type	VID_Shutdown, @function
VID_Shutdown:
.LFB63:
	.loc 1 75 0
	.cfi_startproc
	.loc 1 77 0
	blr
	.cfi_endproc
.LFE63:
	.size	VID_Shutdown, .-VID_Shutdown
	.align 2
	.globl GL_BeginRendering
	.type	GL_BeginRendering, @function
GL_BeginRendering:
.LFB64:
	.loc 1 79 0
	.cfi_startproc
.LVL3:
	.loc 1 82 0
	lis 9,.LANCHOR0@ha
	.loc 1 81 0
	li 0,0
	.loc 1 82 0
	la 10,.LANCHOR0@l(9)
	lwz 11,.LANCHOR0@l(9)
	.loc 1 83 0
	lwz 9,4(10)
	.loc 1 85 0
	.loc 1 81 0
	stw 0,0(4)
	stw 0,0(3)
	.loc 1 82 0
	stw 11,0(5)
	.loc 1 83 0
	stw 9,0(6)
	.loc 1 85 0
	blr
	.cfi_endproc
.LFE64:
	.size	GL_BeginRendering, .-GL_BeginRendering
	.align 2
	.globl GL_EndRendering
	.type	GL_EndRendering, @function
GL_EndRendering:
.LFB65:
	.loc 1 88 0
	.cfi_startproc
	mflr 0
	stwu 1,-8(1)
.LCFI4:
	.cfi_def_cfa_offset 8
	.cfi_register 65, 0
	stw 0,12(1)
	.loc 1 89 0
	.cfi_offset 65, 4
	bl glFlush
	.loc 1 90 0
	bl glutSwapBuffers
	.loc 1 91 0
	lwz 0,12(1)
	addi 1,1,8
.LCFI5:
	.cfi_def_cfa_offset 0
	mtlr 0
	blr
	.cfi_endproc
.LFE65:
	.size	GL_EndRendering, .-GL_EndRendering
	.comm	causticschain,4,4
	.section	.rodata.cst4,"aM",@progbits,4
	.align 2
.LC2:
	.4byte	1501560832
	.section	.rodata.cst8,"aM",@progbits,8
	.align 3
.LC3:
	.4byte	1073042773
	.4byte	1431655765
	.section	.rodata.str1.4,"aMS",@progbits,1
	.align 2
.LC0:
	.string	""
	.zero	3
.LC4:
	.string	"%s/glquake"
	.zero	1
.LC5:
	.string	"Create GL dir %s\n"
	.zero	2
.LC6:
	.string	"Video mode %dx%d initialized.\n"
	.section	".bss"
	.align 2
	.set	.LANCHOR0,. + 0
	.type	scr_width, @object
	.size	scr_width, 4
scr_width:
	.zero	4
	.type	scr_height, @object
	.size	scr_height, 4
scr_height:
	.zero	4
	.section	".text"
.Letext0:
	.file 2 "c:/utils/devkitPro/libogc/include/ogc/gx.h"
	.file 3 "d:/Data/Nintendo/TenebraeGX/gl2gx/include/GL/gl.h"
	.file 4 "d:/Data/Nintendo/TenebraeGX/src/common.h"
	.file 5 "d:/Data/Nintendo/TenebraeGX/src/vid.h"
	.file 6 "d:/Data/Nintendo/TenebraeGX/src/mathlib.h"
	.file 7 "d:/Data/Nintendo/TenebraeGX/src/gl_model.h"
	.file 8 "d:/Data/Nintendo/TenebraeGX/src/glquake.h"
	.file 9 "d:/Data/Nintendo/TenebraeGX/src/quakedef.h"