	.file	"glut.c"
	.section	".text"
.Ltext0:
	.cfi_sections	.debug_frame
	.align 2
	.globl glutThread
	.type	glutThread, @function
glutThread:
.LFB82:
	.file 1 "d:/Data/Nintendo/TenebraeGX/gl2gx/source/glut.c"
	.loc 1 523 0
	.cfi_startproc
.LVL0:
	mflr 0
	stwu 1,-24(1)
.LCFI0:
	.cfi_def_cfa_offset 24
	.cfi_register 65, 0
	.loc 1 525 0
	lis 9,displayfunc@ha
	.loc 1 523 0
	stw 29,12(1)
	stw 0,28(1)
	.loc 1 525 0
	lwz 0,displayfunc@l(9)
	.cfi_offset 65, 4
	.cfi_offset 29, -12
	.loc 1 523 0
	stw 30,16(1)
	.loc 1 525 0
	cmpwi 7,0,0
	.loc 1 523 0
	stw 31,20(1)
	.loc 1 525 0
	beq- 7,.L8
	.cfi_offset 31, -4
	.cfi_offset 30, -8
	.loc 1 525 0 is_stmt 0 discriminator 1
	mtctr 0
	bctrl
.LVL1:
.L8:
	lis 31,count@ha
	lis 30,idlefunc@ha
	la 31,count@l(31)
	la 30,idlefunc@l(30)
	.loc 1 528 0 is_stmt 1 discriminator 1
	li 29,0
.L7:
	.loc 1 529 0
	lwz 0,0(30)
	.loc 1 528 0
	stb 29,0(31)
	.loc 1 529 0
	cmpwi 7,0,0
	beq- 7,.L3
	.loc 1 529 0 is_stmt 0 discriminator 1
	mtctr 0
	bctrl
.L3:
	.loc 1 530 0 is_stmt 1
	bl LWP_YieldThread
	.loc 1 531 0
	b .L7
	.cfi_endproc
.LFE82:
	.size	glutThread, .-glutThread
	.align 2
	.globl timercallback
	.type	timercallback, @function
timercallback:
.LFB80:
	.loc 1 501 0
	.cfi_startproc
.LVL2:
	stwu 1,-16(1)
.LCFI1:
	.cfi_def_cfa_offset 16
	mflr 0
	stw 31,12(1)
	.loc 1 502 0
	lis 31,count@ha
	.cfi_offset 31, -4
	.cfi_register 65, 0
	lbz 9,count@l(31)
	.loc 1 501 0
	stw 0,20(1)
	.loc 1 502 0
	addi 0,9,1
	.cfi_offset 65, 4
	rlwinm 0,0,0,0xff
	stb 0,count@l(31)
	.loc 1 503 0
	lbz 0,count@l(31)
	cmplwi 7,0,2
	bgt- 7,.L13
.LVL3:
.L11:
	.loc 1 509 0
	lbz 0,count@l(31)
	cmplwi 7,0,10
	ble- 7,.L12
	.loc 1 511 0
	li 0,1
	lis 9,kill@ha
	stb 0,kill@l(9)
.L12:
	.loc 1 514 0
	lis 9,incFPS@ha
	lis 11,FPS@ha
	lbz 0,incFPS@l(9)
	.loc 1 516 0
	lwz 31,12(1)
	.loc 1 514 0
	stb 0,FPS@l(11)
	.loc 1 515 0
	li 0,0
	stb 0,incFPS@l(9)
	.loc 1 516 0
	lwz 0,20(1)
	addi 1,1,16
	.cfi_remember_state
.LCFI2:
	.cfi_def_cfa_offset 0
	.cfi_restore 31
	mtlr 0
	blr
.LVL4:
.L13:
.LCFI3:
	.cfi_restore_state
	.loc 1 505 0
	lbz 4,count@l(31)
.LVL5:
	lis 3,.LC3@ha
.LVL6:
	la 3,.LC3@l(3)
	crxor 6,6,6
	bl printf
	.loc 1 506 0
	bl GX_AbortFrame
	b .L11
	.cfi_endproc
.LFE80:
	.size	timercallback, .-timercallback
	.align 2
	.globl glutInit
	.type	glutInit, @function
glutInit:
.LFB64:
	.loc 1 67 0
	.cfi_startproc
.LVL7:
	mflr 0
	stwu 1,-8(1)
.LCFI4:
	.cfi_def_cfa_offset 8
	.cfi_register 65, 0
	.loc 1 77 0
	lis 9,.LC4@ha
	.loc 1 67 0
	stw 0,12(1)
	.loc 1 77 0
	la 0,.LC4@l(9)
	.cfi_offset 65, 4
	lis 9,__glutProgramName@ha
	stw 0,__glutProgramName@l(9)
	.loc 1 79 0
	bl initTextures
.LVL8:
	.loc 1 80 0
	bl initCalllist
	.loc 1 81 0
	bl initTextureSlots
	.loc 1 83 0
	lwz 0,12(1)
	addi 1,1,8
.LCFI5:
	.cfi_def_cfa_offset 0
	mtlr 0
	blr
	.cfi_endproc
.LFE64:
	.size	glutInit, .-glutInit
	.align 2
	.globl initGlutData
	.type	initGlutData, @function
initGlutData:
.LFB65:
	.loc 1 86 0
	.cfi_startproc
	stwu 1,-80(1)
.LCFI6:
	.cfi_def_cfa_offset 80
	mflr 0
	stw 27,52(1)
	.loc 1 89 0
	lis 27,.LC5@ha
	.cfi_offset 27, -28
	.cfi_register 65, 0
	.loc 1 86 0
	stfd 31,72(1)
	.loc 1 89 0
	lfs 31,.LC5@l(27)
	.cfi_offset 63, -8
	.loc 1 86 0
	stw 0,84(1)
	.loc 1 89 0
	fmr 3,31
	.loc 1 86 0
	stw 18,16(1)
	.loc 1 89 0
	fmr 1,31
	.loc 1 86 0
	stw 19,20(1)
	.loc 1 89 0
	fmr 2,31
	.loc 1 86 0
	stw 20,24(1)
	stw 21,28(1)
	stw 22,32(1)
	stw 23,36(1)
	stw 24,40(1)
	stw 25,44(1)
	stw 26,48(1)
	stw 28,56(1)
	stw 29,60(1)
	stw 30,64(1)
	stw 31,68(1)
	.loc 1 89 0
	.cfi_offset 31, -12
	.cfi_offset 30, -16
	.cfi_offset 29, -20
	.cfi_offset 28, -24
	.cfi_offset 26, -32
	.cfi_offset 25, -36
	.cfi_offset 24, -40
	.cfi_offset 23, -44
	.cfi_offset 22, -48
	.cfi_offset 21, -52
	.cfi_offset 20, -56
	.cfi_offset 19, -60
	.cfi_offset 18, -64
	.cfi_offset 65, 4
	bl glColor3f
	.loc 1 90 0
	lis 9,.LC9@ha
	lfs 1,.LC9@l(9)
	fmr 2,1
	bl glTexCoord2f
	.loc 1 91 0
	lis 11,.LC9@ha
	lfs 1,.LC9@l(11)
	fmr 3,31
	fmr 2,1
	bl glNormal3f
.LVL9:
	.loc 1 103 0
	lis 9,.LC6@ha
	lwz 3,.LC6@l(9)
	.loc 1 105 0
	lis 9,.LC7@ha
	.loc 1 95 0
	stfs 31,8(1)
	.loc 1 91 0
	lis 8,lights@ha
	.loc 1 105 0
	lwz 4,.LC7@l(9)
	.loc 1 91 0
	li 9,8
	la 8,lights@l(8)
	.loc 1 95 0
	lwz 0,8(1)
	.loc 1 105 0
	mtctr 9
	.loc 1 91 0
	mr 7,8
	.loc 1 95 0
	li 6,0
	.loc 1 98 0
	li 5,0
.LVL10:
.L16:
	.loc 1 95 0 discriminator 2
	stw 6,68(7)
	li 11,0
	stw 6,72(7)
	.loc 1 98 0 discriminator 2
	li 10,0
	.loc 1 95 0 discriminator 2
	stw 0,76(7)
	.loc 1 109 0 discriminator 2
	addi 9,9,-1
	.loc 1 96 0 discriminator 2
	stw 6,80(7)
	.loc 1 98 0 discriminator 2
	stb 5,0(7)
	.loc 1 99 0 discriminator 2
	stw 6,96(7)
	stw 6,100(7)
	stw 6,104(7)
	stw 0,108(7)
	.loc 1 100 0 discriminator 2
	stw 6,112(7)
	stw 6,116(7)
	stw 6,120(7)
	stw 0,124(7)
	.loc 1 101 0 discriminator 2
	stw 6,128(7)
	stw 6,132(7)
	stw 6,136(7)
	stw 0,140(7)
	.loc 1 103 0 discriminator 2
	stw 3,148(7)
	.loc 1 104 0 discriminator 2
	stw 6,144(7)
	.loc 1 105 0 discriminator 2
	stw 6,84(7)
	stw 6,88(7)
	stw 4,92(7)
	.loc 1 107 0 discriminator 2
	stw 0,152(7)
	.loc 1 108 0 discriminator 2
	stw 6,156(7)
	.loc 1 109 0 discriminator 2
	stw 6,160(7)
	addi 7,7,164
	.loc 1 94 0 discriminator 2
	bdnz .L16
	.loc 1 112 0
	lis 6,.LANCHOR0@ha
	.loc 1 118 0
	lis 12,curmat@ha
	.loc 1 112 0
	la 7,.LANCHOR0@l(6)
	lwz 22,.LANCHOR0@l(6)
	.loc 1 115 0
	lwz 5,24(7)
	lis 26,globAmbient@ha
	lwz 6,28(7)
	.loc 1 118 0
	la 30,curmat@l(12)
	.loc 1 115 0
	lwz 31,20(7)
	.loc 1 130 0
	lis 28,model_stack@ha
	.loc 1 112 0
	lwz 23,4(7)
	.loc 1 130 0
	la 28,model_stack@l(28)
	.loc 1 112 0
	lwz 24,8(7)
	.loc 1 130 0
	li 4,32
	.loc 1 112 0
	lwz 25,12(7)
	.loc 1 130 0
	mr 3,28
	.loc 1 115 0
	lwz 29,16(7)
	.loc 1 120 0
	lwz 18,32(7)
	lwz 19,36(7)
	lwz 20,40(7)
	lwz 21,44(7)
	.loc 1 115 0
	la 7,globAmbient@l(26)
	stw 31,4(7)
	.loc 1 118 0
	stw 11,curmat@l(12)
	.loc 1 112 0
	stw 22,112(8)
	stw 23,116(8)
	stw 24,120(8)
	stw 25,124(8)
	.loc 1 113 0
	stw 22,128(8)
	stw 23,132(8)
	stw 24,136(8)
	stw 25,140(8)
	.loc 1 115 0
	stw 5,8(7)
	stw 6,12(7)
	.loc 1 119 0
	stw 5,24(30)
	stw 6,28(30)
	.loc 1 115 0
	stw 29,globAmbient@l(26)
	.loc 1 118 0
	stw 11,4(30)
	stw 11,8(30)
	stw 0,12(30)
	.loc 1 119 0
	stw 29,16(30)
	lis 29,texture_stack@ha
	stw 31,20(30)
	la 29,texture_stack@l(29)
	.loc 1 120 0
	stw 18,32(30)
	.loc 1 138 0
	li 31,0
	.loc 1 120 0
	stw 19,36(30)
	.loc 1 121 0
	stw 11,48(30)
	stw 11,52(30)
	stw 11,56(30)
	.loc 1 123 0
	lis 11,blend_type@ha
	stb 9,blend_type@l(11)
	.loc 1 124 0
	lis 9,blend_src@ha
	.loc 1 121 0
	stw 0,60(30)
	.loc 1 124 0
	li 0,1
	stb 0,blend_src@l(9)
	.loc 1 125 0
	lis 9,blend_dst@ha
	stb 10,blend_dst@l(9)
	.loc 1 126 0
	lis 9,blend_op@ha
	stb 10,blend_op@l(9)
	.loc 1 128 0
	li 0,2
	lis 9,cull_mode@ha
	.loc 1 120 0
	stw 20,40(30)
	.loc 1 128 0
	stb 0,cull_mode@l(9)
	.loc 1 120 0
	stw 21,44(30)
	.loc 1 130 0
	bl InitStackMtx
	.loc 1 131 0
	li 3,5888
	bl glMatrixMode
	.loc 1 132 0
	bl glLoadIdentity
	.loc 1 134 0
	lis 3,projection_stack@ha
	li 4,2
	la 3,projection_stack@l(3)
	bl InitStackPrjMtx
	.loc 1 135 0
	li 3,5889
	bl glMatrixMode
	.loc 1 136 0
	bl glLoadIdentity
.LVL11:
.L17:
	.loc 1 140 0 discriminator 2
	slwi 3,31,4
	li 4,2
	add 3,29,3
	bl InitStackMtx
	.loc 1 141 0 discriminator 2
	li 3,5890
	bl glMatrixMode
	.loc 1 86 0 discriminator 2
	addis 3,31,0x1
	.loc 1 142 0 discriminator 2
	addi 3,3,-31552
	bl glActiveTextureARB
	.loc 1 143 0 discriminator 2
	bl glLoadIdentity
.LVL12:
	.loc 1 138 0 discriminator 2
	cmpwi 7,31,7
	addi 31,31,1
.LVL13:
	bne+ 7,.L17
	.loc 1 146 0
	li 3,0
	ori 3,3,33984
	bl glActiveTextureARB
	.loc 1 148 0
	lis 5,norm@ha
	li 6,0
	la 11,norm@l(5)
	stb 6,norm@l(5)
	.loc 1 149 0
	lis 5,_normalelements@ha
	.loc 1 154 0
	lis 7,vert@ha
	.loc 1 150 0
	li 8,12
	.loc 1 151 0
	li 0,5126
	.loc 1 152 0
	li 10,3
	.loc 1 149 0
	la 5,_normalelements@l(5)
	.loc 1 154 0
	la 9,vert@l(7)
	.loc 1 150 0
	stb 8,8(11)
	.loc 1 151 0
	stw 0,16(11)
	.loc 1 152 0
	stw 10,12(11)
	.loc 1 149 0
	stw 5,4(11)
	.loc 1 155 0
	lis 11,_vertexelements@ha
	la 11,_vertexelements@l(11)
	.loc 1 158 0
	stw 0,16(9)
.LVL14:
	.loc 1 166 0
	li 0,8
	.loc 1 155 0
	stw 11,4(9)
	.loc 1 156 0
	stb 8,8(9)
	.loc 1 166 0
	mtctr 0
	.loc 1 157 0
	stw 10,12(9)
	.loc 1 158 0
	lis 9,tex+4@ha
	.loc 1 154 0
	stb 6,vert@l(7)
	.loc 1 158 0
	la 9,tex+4@l(9)
	.loc 1 162 0
	li 11,0
	.loc 1 163 0
	li 7,8
	.loc 1 164 0
	li 8,2
	.loc 1 165 0
	li 10,5126
.LVL15:
.L18:
	.loc 1 162 0 discriminator 2
	stw 11,0(9)
	li 0,0
	.loc 1 163 0 discriminator 2
	stb 7,4(9)
	.loc 1 164 0 discriminator 2
	stw 8,8(9)
	.loc 1 165 0 discriminator 2
	stw 10,12(9)
	.loc 1 166 0 discriminator 2
	stb 11,-4(9)
	addi 9,9,20
	.loc 1 160 0 discriminator 2
	bdnz .L18
	.loc 1 172 0
	lis 3,color@ha
	.loc 1 175 0
	li 6,4
	.loc 1 172 0
	la 8,color@l(3)
	stb 0,color@l(3)
	.loc 1 173 0
	lis 3,_colorelements@ha
	.loc 1 175 0
	stw 6,12(8)
	.loc 1 173 0
	la 3,_colorelements@l(3)
	.loc 1 193 0
	li 31,1
	.loc 1 173 0
	stw 3,4(8)
	.loc 1 174 0
	li 3,16
	stb 3,8(8)
	.loc 1 176 0
	li 3,5126
	stw 3,16(8)
	.loc 1 178 0
	lis 8,curmtx@ha
	stw 28,curmtx@l(8)
	.loc 1 179 0
	li 3,5888
	lis 8,cur_mode@ha
	.loc 1 183 0
	li 9,0
	.loc 1 179 0
	stw 3,cur_mode@l(8)
	.loc 1 180 0
	lis 8,cur_tex@ha
	stw 0,cur_tex@l(8)
	.loc 1 181 0
	lis 8,cur_tex_client@ha
	stw 0,cur_tex_client@l(8)
	.loc 1 186 0
	lis 8,lighting@ha
	stb 0,lighting@l(8)
	.loc 1 189 0
	lis 8,gxcullfaceanabled@ha
	stb 0,gxcullfaceanabled@l(8)
	.loc 1 190 0
	li 3,2305
	lis 8,gxwinding@ha
	.loc 1 202 0
	lis 4,_clearcolor@ha
	.loc 1 190 0
	stw 3,gxwinding@l(8)
	.loc 1 192 0
	lis 8,depthtestenabled@ha
	stb 0,depthtestenabled@l(8)
	.loc 1 193 0
	lis 8,depthfunction@ha
	stw 31,depthfunction@l(8)
	.loc 1 194 0
	lis 8,depthupdate@ha
	stb 31,depthupdate@l(8)
	.loc 1 196 0
	lis 8,_alphatest_enabled@ha
	stb 0,_alphatest_enabled@l(8)
	.loc 1 197 0
	li 3,519
	lis 8,_alphatest_func@ha
	.loc 1 203 0
	lwz 11,.LC5@l(27)
	.loc 1 197 0
	stw 3,_alphatest_func@l(8)
	.loc 1 198 0
	lis 8,_alphatest_ref@ha
	stw 9,_alphatest_ref@l(8)
	.loc 1 199 0
	lis 8,_alphatest_dirty@ha
	.loc 1 202 0
	la 7,_clearcolor@l(4)
	.loc 1 199 0
	stb 31,_alphatest_dirty@l(8)
	.loc 1 202 0
	li 8,-1
	.loc 1 212 0
	lis 5,Trans@ha
	.loc 1 202 0
	stb 8,3(7)
	.loc 1 203 0
	lis 8,_cleardepth@ha
	stw 11,_cleardepth@l(8)
	.loc 1 206 0
	lis 8,cur_state@ha
	.loc 1 212 0
	la 10,Trans@l(5)
	.loc 1 206 0
	stw 0,cur_state@l(8)
	.loc 1 208 0
	lis 8,scissor_test@ha
	.loc 1 202 0
	stb 0,1(7)
	stb 0,2(7)
	.loc 1 228 0
	lis 7,fog_color@ha
	.loc 1 208 0
	stb 0,scissor_test@l(8)
.LVL16:
	.loc 1 228 0
	la 8,fog_color@l(7)
	.loc 1 183 0
	stw 9,64(30)
	.loc 1 202 0
	stb 0,_clearcolor@l(4)
	.loc 1 212 0
	stw 11,Trans@l(5)
	.loc 1 218 0
	li 5,1029
	.loc 1 212 0
	stw 9,4(10)
.LVL17:
	stw 11,8(10)
	stw 9,12(10)
.LVL18:
	stw 11,16(10)
	stw 9,20(10)
.LVL19:
	stw 11,24(10)
	stw 9,28(10)
.LVL20:
	.loc 1 215 0
	lis 10,normNear@ha
	stw 9,normNear@l(10)
	.loc 1 216 0
	lis 10,normFar@ha
	stw 11,normFar@l(10)
	.loc 1 218 0
	lis 10,read_mode@ha
	stw 5,read_mode@l(10)
	.loc 1 220 0
	lis 10,copy_mat_enabled@ha
	stb 0,copy_mat_enabled@l(10)
	.loc 1 221 0
	li 5,5634
	lis 10,copy_material@ha
	.loc 1 228 0
	stb 0,1(8)
	.loc 1 221 0
	stw 5,copy_material@l(10)
	.loc 1 223 0
	lis 10,fog_enable@ha
	stb 0,fog_enable@l(10)
	.loc 1 224 0
	lis 10,fog_mode@ha
	stb 6,fog_mode@l(10)
	.loc 1 225 0
	lis 10,fog_startz@ha
	stw 9,fog_startz@l(10)
	.loc 1 226 0
	lis 9,fog_endz@ha
	stw 11,fog_endz@l(9)
	.loc 1 227 0
	lis 9,.LC8@ha
	lwz 11,.LC8@l(9)
	lis 9,fog_density@ha
	.loc 1 228 0
	stb 0,2(8)
	stb 31,3(8)
	.loc 1 227 0
	stw 11,fog_density@l(9)
	.loc 1 228 0
	stb 0,fog_color@l(7)
	.loc 1 230 0
	bl _glInitStacks
.LVL21:
	.loc 1 240 0
	lwz 0,84(1)
	.loc 1 234 0
	lis 11,color_write_mask@ha
	la 9,color_write_mask@l(11)
	.loc 1 240 0
	lwz 18,16(1)
	mtlr 0
	.loc 1 234 0
	stb 31,1(9)
	stb 31,2(9)
	stb 31,3(9)
	.loc 1 240 0
	lwz 19,20(1)
	lwz 20,24(1)
	lwz 21,28(1)
	lwz 22,32(1)
	lwz 23,36(1)
	lwz 24,40(1)
	lwz 25,44(1)
	lwz 26,48(1)
	lwz 27,52(1)
	lwz 28,56(1)
	lwz 29,60(1)
	lwz 30,64(1)
	lfd 31,72(1)
	.loc 1 234 0
	stb 31,color_write_mask@l(11)
.LVL22:
	.loc 1 240 0
	lwz 31,68(1)
	addi 1,1,80
.LCFI7:
	.cfi_def_cfa_offset 0
	.cfi_restore 63
	.cfi_restore 31
	.cfi_restore 30
	.cfi_restore 29
	.cfi_restore 28
	.cfi_restore 27
	.cfi_restore 26
	.cfi_restore 25
	.cfi_restore 24
	.cfi_restore 23
	.cfi_restore 22
	.cfi_restore 21
	.cfi_restore 20
	.cfi_restore 19
	.cfi_restore 18
	blr
	.cfi_endproc
.LFE65:
	.size	initGlutData, .-initGlutData
	.align 2
	.globl ShowConsole
	.type	ShowConsole, @function
ShowConsole:
.LFB66:
	.loc 1 247 0
	.cfi_startproc
	.loc 1 248 0
	li 0,1
	lis 9,_console_enabled@ha
	stb 0,_console_enabled@l(9)
	.loc 1 251 0
	blr
	.cfi_endproc
.LFE66:
	.size	ShowConsole, .-ShowConsole
	.align 2
	.globl HideConsole
	.type	HideConsole, @function
HideConsole:
.LFB67:
	.loc 1 254 0
	.cfi_startproc
	.loc 1 257 0
	li 0,0
	lis 9,_console_enabled@ha
	stb 0,_console_enabled@l(9)
	.loc 1 258 0
	blr
	.cfi_endproc
.LFE67:
	.size	HideConsole, .-HideConsole
	.align 2
	.globl getVImode
	.type	getVImode, @function
getVImode:
.LFB68:
	.loc 1 261 0
	.cfi_startproc
.LVL23:
	.loc 1 262 0
	lis 9,rmode@ha
	lwz 9,rmode@l(9)
	lhz 11,14(9)
	.loc 1 263 0
	lhz 0,16(9)
	.loc 1 264 0
	.loc 1 262 0
	stw 11,0(3)
	.loc 1 263 0
	stw 0,0(4)
	.loc 1 264 0
	blr
	.cfi_endproc
.LFE68:
	.size	getVImode, .-getVImode
	.align 2
	.globl glutInitDisplayMode
	.type	glutInitDisplayMode, @function
glutInitDisplayMode:
.LFB69:
	.loc 1 266 0
	.cfi_startproc
.LVL24:
	mflr 0
	stwu 1,-56(1)
.LCFI8:
	.cfi_def_cfa_offset 56
	.cfi_register 65, 0
	stw 29,44(1)
	.loc 1 280 0
	lis 29,.LANCHOR1@ha
	.cfi_offset 29, -12
	.loc 1 266 0
	stw 0,60(1)
	stw 30,48(1)
	.loc 1 280 0
	la 30,.LANCHOR1@l(29)
	.cfi_offset 30, -8
	.cfi_offset 65, 4
	.loc 1 266 0
	stw 31,52(1)
	.loc 1 270 0
	lis 31,rmode@ha
	.cfi_offset 31, -4
	.loc 1 266 0
	stw 27,36(1)
	stw 28,40(1)
	.loc 1 268 0
	.cfi_offset 28, -16
	.cfi_offset 27, -20
	bl VIDEO_Init
.LVL25:
	.loc 1 270 0
	li 3,0
	bl VIDEO_GetPreferredMode
	.loc 1 273 0
	lhz 9,10(3)
	.loc 1 270 0
	stw 3,rmode@l(31)
	.loc 1 273 0
	addi 0,9,-10
	.loc 1 272 0
	li 9,660
	.loc 1 273 0
	sth 0,10(3)
	.loc 1 275 0
	li 0,480
	.loc 1 272 0
	sth 9,14(3)
	.loc 1 275 0
	sth 0,6(3)
	.loc 1 277 0
	bl initGlutData
	.loc 1 280 0
	lwz 3,rmode@l(31)
	bl SYS_AllocateFramebuffer
	addis 0,3,0x4000
	.loc 1 281 0
	lwz 3,rmode@l(31)
	.loc 1 280 0
	stw 0,.LANCHOR1@l(29)
	.loc 1 281 0
	bl SYS_AllocateFramebuffer
	.loc 1 282 0
	lwz 9,rmode@l(31)
	.loc 1 281 0
	addis 0,3,0x4000
	.loc 1 282 0
	lwz 3,.LANCHOR1@l(29)
	lhz 6,4(9)
	li 4,20
	lhz 7,8(9)
	li 5,20
	slwi 8,6,1
	.loc 1 281 0
	stw 0,4(30)
	.loc 1 282 0
	bl CON_Init
	.loc 1 284 0
	lwz 4,.LANCHOR1@l(29)
	lwz 3,rmode@l(31)
	li 5,0
	.loc 1 288 0
	lis 29,fb@ha
	.loc 1 284 0
	bl VIDEO_ClearFrameBuffer
	.loc 1 285 0
	lwz 4,4(30)
	lwz 3,rmode@l(31)
	li 5,0
	bl VIDEO_ClearFrameBuffer
	.loc 1 287 0
	lwz 3,rmode@l(31)
	bl VIDEO_Configure
	.loc 1 288 0
	lwz 0,fb@l(29)
	slwi 0,0,2
	lwzx 3,30,0
	bl VIDEO_SetNextFramebuffer
	.loc 1 289 0
	li 3,0
	bl VIDEO_SetBlack
	.loc 1 290 0
	bl VIDEO_Flush
	.loc 1 291 0
	bl VIDEO_WaitVSync
	.loc 1 292 0
	lwz 9,rmode@l(31)
	lwz 0,0(9)
	andi. 9,0,1
	bne- 0,.L33
.L26:
.LVL26:
	.loc 1 309 0
	lis 4,0x8
	li 3,32
	bl memalign
	.loc 1 310 0
	lis 5,0x8
	.loc 1 309 0
	mr 28,3
.LVL27:
	.loc 1 310 0
	li 4,0
	bl memset
.LVL28:
	.loc 1 312 0
	lis 4,0x8
	mr 3,28
	.loc 1 320 0
	lis 27,fb_max_height@ha
	.loc 1 312 0
	bl GX_Init
	.loc 1 315 0
	lwz 9,rmode@l(31)
	lis 0,0x4330
	lhz 11,4(9)
	stw 0,8(1)
	stw 11,12(1)
	lhz 9,6(9)
	stw 0,16(1)
	stw 9,20(1)
	lis 9,.LC11@ha
	lfs 0,.LC11@l(9)
	lis 9,.LC9@ha
	lfd 3,8(1)
	lfd 4,16(1)
	fsub 3,3,0
	lfs 1,.LC9@l(9)
	fsub 4,4,0
	lis 9,.LC5@ha
	fmr 2,1
	lfs 6,.LC5@l(9)
	frsp 3,3
	frsp 4,4
	fmr 5,1
	bl GX_SetViewport
	.loc 1 316 0
	lwz 9,rmode@l(31)
	lhz 4,8(9)
	lhz 3,6(9)
	bl GX_GetYScaleFactor
	.loc 1 317 0
	bl GX_SetDispCopyYScale
	.loc 1 319 0
	lwz 9,rmode@l(31)
	.loc 1 317 0
	mr 28,3
.LVL29:
	.loc 1 319 0
	li 4,0
	lhz 5,4(9)
	li 3,0
.LVL30:
	lhz 6,6(9)
	bl GX_SetScissor
	.loc 1 320 0
	lwz 9,rmode@l(31)
	.loc 1 322 0
	lis 12,scissorInfo@ha
	.loc 1 323 0
	lis 7,viewPort@ha
	.loc 1 320 0
	lhz 0,6(9)
	.loc 1 322 0
	li 11,0
	.loc 1 321 0
	lhz 9,4(9)
	.loc 1 322 0
	la 8,scissorInfo@l(12)
	.loc 1 323 0
	la 10,viewPort@l(7)
	.loc 1 322 0
	stw 0,12(8)
	stw 9,8(8)
	.loc 1 325 0
	mr 6,0
	.loc 1 323 0
	stw 9,8(10)
	.loc 1 325 0
	mr 5,9
	.loc 1 323 0
	stw 0,12(10)
	.loc 1 325 0
	li 3,0
	.loc 1 322 0
	stw 11,4(8)
	.loc 1 325 0
	li 4,0
	.loc 1 323 0
	stw 11,4(10)
	.loc 1 320 0
	stw 0,fb_max_height@l(27)
	.loc 1 321 0
	lis 27,fb_max_width@ha
	.loc 1 322 0
	stw 11,scissorInfo@l(12)
	.loc 1 323 0
	stw 11,viewPort@l(7)
	.loc 1 321 0
	stw 9,fb_max_width@l(27)
	.loc 1 325 0
	bl GX_SetDispCopySrc
	.loc 1 326 0
	lwz 9,rmode@l(31)
	rlwinm 4,28,0,0xffff
	lhz 3,4(9)
	bl GX_SetDispCopyDst
	.loc 1 327 0
	lwz 6,rmode@l(31)
	li 5,1
	lbz 3,25(6)
	addi 4,6,26
	addi 6,6,50
	bl GX_SetCopyFilter
	.loc 1 328 0
	lwz 9,rmode@l(31)
	lhz 0,8(9)
	lhz 4,16(9)
	slwi 0,0,1
	lbz 3,24(9)
	xor 4,4,0
	cntlzw 4,4
	srwi 4,4,5
	bl GX_SetFieldMode
	.loc 1 330 0
	lwz 9,rmode@l(31)
	lbz 0,25(9)
	cmpwi 7,0,0
	beq- 7,.L27
	.loc 1 331 0
	li 3,2
	li 4,0
	bl GX_SetPixelFmt
.L28:
	.loc 1 337 0
	mr 31,1
	.loc 1 335 0
	li 28,0
.LVL31:
	.loc 1 337 0
	stwu 28,24(31)
.LVL32:
	li 4,0
	mr 3,31
	bl GX_SetCopyClear
	.loc 1 338 0
	lwz 0,fb@l(29)
	li 4,1
	slwi 0,0,2
	lwzx 3,30,0
	bl GX_CopyDisp
	.loc 1 339 0
	lis 4,0xff
	mr 3,31
	ori 4,4,65535
	stw 28,24(1)
	bl GX_SetCopyClear
	.loc 1 340 0
	lwz 0,fb@l(29)
	li 4,1
	.loc 1 366 0
	li 31,0
	.loc 1 340 0
	slwi 0,0,2
	lwzx 3,30,0
	bl GX_CopyDisp
	.loc 1 341 0
	lwz 0,fb@l(29)
	li 4,1
	slwi 0,0,2
	lwzx 3,30,0
	bl GX_CopyDisp
	.loc 1 342 0
	li 3,0
	bl GX_SetDispCopyGamma
	.loc 1 351 0
	li 3,0
	li 4,9
	li 5,1
	li 6,4
	li 7,0
	bl GX_SetVtxAttrFmt
	.loc 1 352 0
	li 3,0
	li 4,10
	li 5,0
	li 6,4
	li 7,0
	bl GX_SetVtxAttrFmt
	.loc 1 353 0
	li 5,1
	li 6,5
	li 7,0
	li 3,0
	li 4,11
	bl GX_SetVtxAttrFmt
	.loc 1 358 0
	bl GX_ClearVtxDesc
	.loc 1 359 0
	li 3,9
	li 4,1
	bl GX_SetVtxDesc
	.loc 1 360 0
	li 3,10
	li 4,1
	bl GX_SetVtxDesc
	.loc 1 361 0
	li 3,11
	li 4,1
	bl GX_SetVtxDesc
	.loc 1 362 0
	li 3,13
	li 4,1
	bl GX_SetVtxDesc
.LVL33:
.L29:
	.loc 1 368 0 discriminator 2
	rlwinm 3,31,0,0xff
	bl incTexDesc
	li 5,1
	mr 4,3
	li 6,4
	li 3,0
	li 7,0
	bl GX_SetVtxAttrFmt
.LVL34:
	.loc 1 366 0 discriminator 2
	cmpwi 7,31,7
	addi 31,31,1
.LVL35:
	bne+ 7,.L29
	.loc 1 371 0
	li 3,9
	li 4,0
	li 5,0
	.loc 1 374 0
	li 31,0
.LVL36:
	.loc 1 371 0
	bl GX_SetArray
	.loc 1 372 0
	li 3,10
	li 4,0
	li 5,0
	bl GX_SetArray
	.loc 1 373 0
	li 3,11
	li 4,0
	li 5,0
	bl GX_SetArray
.LVL37:
.L30:
	.loc 1 376 0 discriminator 2
	rlwinm 3,31,0,0xff
	bl incTexDesc
	li 4,0
	li 5,0
	bl GX_SetArray
.LVL38:
	.loc 1 374 0 discriminator 2
	cmpwi 7,31,7
	addi 31,31,1
.LVL39:
	bne+ 7,.L30
	.loc 1 381 0
	li 4,1
	li 5,4
	li 6,60
	li 3,0
	bl GX_SetTexCoordGen
	.loc 1 383 0
	li 3,1
	bl GX_SetNumChans
	.loc 1 385 0
	li 3,1
	bl GX_SetNumTexGens
	.loc 1 386 0
	bl GX_InvalidateTexAll
	.loc 1 388 0
	li 5,255
	li 6,4
	li 3,0
	li 4,255
	bl GX_SetTevOrder
	.loc 1 389 0
	li 4,4
	li 3,0
	bl GX_SetTevOp
	.loc 1 392 0
	li 3,1
	bl GX_SetAlphaUpdate
	.loc 1 394 0
	li 3,0
	bl GX_SetCullMode
	.loc 1 396 0
	bl GX_DrawDone
	.loc 1 399 0
	bl ResetArrays
	.loc 1 401 0
	lwz 0,60(1)
	lwz 27,36(1)
	mtlr 0
	lwz 28,40(1)
.LVL40:
	lwz 29,44(1)
	lwz 30,48(1)
	lwz 31,52(1)
.LVL41:
	addi 1,1,56
	.cfi_remember_state
.LCFI9:
	.cfi_def_cfa_offset 0
	.cfi_restore 31
	.cfi_restore 30
	.cfi_restore 29
	.cfi_restore 28
	.cfi_restore 27
	blr
.LVL42:
.L27:
.LCFI10:
	.cfi_restore_state
	.loc 1 333 0
	li 3,1
	li 4,0
	bl GX_SetPixelFmt
	b .L28
.LVL43:
.L33:
	.loc 1 292 0 discriminator 1
	bl VIDEO_WaitVSync
	b .L26
	.cfi_endproc
.LFE69:
	.size	glutInitDisplayMode, .-glutInitDisplayMode
	.align 2
	.globl computeFactor
	.type	computeFactor, @function
computeFactor:
.LFB71:
	.loc 1 415 0
	.cfi_startproc
	.loc 1 416 0
	lis 9,rmode@ha
	.loc 1 415 0
	stwu 1,-24(1)
.LCFI11:
	.cfi_def_cfa_offset 24
	.loc 1 416 0
	lwz 11,rmode@l(9)
	lis 9,offset@ha
	lwz 9,offset@l(9)
	lis 0,0x4330
	lhz 11,6(11)
	slwi 9,9,1
	stw 0,8(1)
	stw 11,12(1)
	xoris 9,9,0x8000
	stw 9,20(1)
	lis 9,.LC11@ha
	lfd 13,8(1)
	stw 0,16(1)
	lfs 0,.LC11@l(9)
	lis 9,.LC13@ha
	lfd 1,16(1)
	.loc 1 417 0
	.loc 1 416 0
	fsub 0,13,0
	lfs 13,.LC13@l(9)
	.loc 1 417 0
	addi 1,1,24
.LCFI12:
	.cfi_def_cfa_offset 0
	.loc 1 416 0
	fsub 1,1,13
	frsp 0,0
	frsp 1,1
	fsubs 1,0,1
	.loc 1 417 0
	fdivs 1,1,0
	blr
	.cfi_endproc
.LFE71:
	.size	computeFactor, .-computeFactor
	.align 2
	.globl GX_SetModViewport
	.type	GX_SetModViewport, @function
GX_SetModViewport:
.LFB72:
	.loc 1 420 0
	.cfi_startproc
.LVL44:
	mflr 0
	stwu 1,-32(1)
.LCFI13:
	.cfi_def_cfa_offset 32
	.cfi_register 65, 0
.LBB8:
.LBB9:
	.loc 1 416 0
	lis 9,offset@ha
	lis 11,rmode@ha
	lwz 9,offset@l(9)
.LBE9:
.LBE8:
	.loc 1 423 0
	fadds 2,2,4
.LVL45:
	.loc 1 420 0
	stw 0,36(1)
.LBB16:
.LBB10:
	.loc 1 416 0
	lis 0,0x4330
	.cfi_offset 65, 4
	lwz 11,rmode@l(11)
	slwi 10,9,1
	xoris 10,10,0x8000
.LBE10:
.LBE16:
	.loc 1 419 0
	fneg 2,2
.LBB17:
.LBB11:
	.loc 1 416 0
	lhz 11,6(11)
	stw 0,8(1)
	stw 10,20(1)
	lis 10,.LC13@ha
	stw 11,12(1)
.LBE11:
.LBE17:
	.loc 1 423 0
	subf 9,9,11
.LBB18:
.LBB12:
	.loc 1 416 0
	lfs 13,.LC13@l(10)
	lis 10,.LC11@ha
	stw 0,16(1)
.LBE12:
.LBE18:
	.loc 1 423 0
	xoris 9,9,0x8000
.LBB19:
.LBB13:
	.loc 1 416 0
	lfd 12,8(1)
	lfs 0,.LC11@l(10)
.LBE13:
.LBE19:
	.loc 1 423 0
	stw 0,24(1)
.LBB20:
.LBB14:
	.loc 1 416 0
	fsub 12,12,0
	lfd 0,16(1)
.LBE14:
.LBE20:
	.loc 1 423 0
	stw 9,28(1)
.LBB21:
.LBB15:
	.loc 1 416 0
	fsub 0,0,13
	frsp 12,12
	frsp 0,0
	fsubs 0,12,0
	fdivs 0,0,12
.LBE15:
.LBE21:
	.loc 1 423 0
	lfd 12,24(1)
	fsub 13,12,13
	fmuls 4,4,0
.LVL46:
	frsp 13,13
	fmadds 2,2,0,13
	bl GX_SetViewport
.LVL47:
	.loc 1 424 0
	lwz 0,36(1)
	addi 1,1,32
.LCFI14:
	.cfi_def_cfa_offset 0
	mtlr 0
	blr
	.cfi_endproc
.LFE72:
	.size	GX_SetModViewport, .-GX_SetModViewport
	.align 2
	.globl glutCreateWindow
	.type	glutCreateWindow, @function
glutCreateWindow:
.LFB70:
	.loc 1 403 0
	.cfi_startproc
.LVL48:
	mflr 0
	stwu 1,-40(1)
.LCFI15:
	.cfi_def_cfa_offset 40
	.cfi_register 65, 0
	.loc 1 404 0
	lis 9,rmode@ha
	lwz 9,rmode@l(9)
	.loc 1 403 0
	stw 0,44(1)
	.loc 1 404 0
	lis 0,0x4330
	.cfi_offset 65, 4
	.loc 1 403 0
	stfd 31,32(1)
	.loc 1 404 0
	lhz 11,4(9)
	stw 0,16(1)
	stw 11,20(1)
	lhz 9,6(9)
	stw 0,24(1)
	stw 9,28(1)
	lis 9,.LC11@ha
	lfs 0,.LC11@l(9)
	lis 9,.LC9@ha
	lfd 3,16(1)
	lfd 4,24(1)
	lfs 1,.LC9@l(9)
	fsub 3,3,0
	fsub 4,4,0
	lis 9,.LC5@ha
	lfs 31,.LC5@l(9)
	.cfi_offset 63, -8
	fmr 2,1
	fmr 5,1
	fmr 6,31
	frsp 3,3
	frsp 4,4
	bl GX_SetModViewport
.LVL49:
	.loc 1 406 0
	li 3,5888
	bl glMatrixMode
	.loc 1 407 0
	bl glLoadIdentity
	.loc 1 408 0
	lis 9,.LC14@ha
	lfd 0,.LC14@l(9)
	fmr 8,31
	lis 9,.LC7@ha
	fmr 1,0
	lfs 6,.LC7@l(9)
	fmr 2,0
	stfd 0,8(1)
	fmr 3,0
	fmr 4,0
	fmr 5,0
	fmr 7,0
	bl gluLookAt
	.loc 1 410 0
	lwz 0,44(1)
	lfd 31,32(1)
	li 3,0
	mtlr 0
	addi 1,1,40
.LCFI16:
	.cfi_def_cfa_offset 0
	.cfi_restore 63
	blr
	.cfi_endproc
.LFE70:
	.size	glutCreateWindow, .-glutCreateWindow
	.align 2
	.globl GX_SetModScissor
	.type	GX_SetModScissor, @function
GX_SetModScissor:
.LFB73:
	.loc 1 427 0
	.cfi_startproc
.LVL50:
	mflr 0
	stwu 1,-64(1)
.LCFI17:
	.cfi_def_cfa_offset 64
	.cfi_register 65, 0
.LBB22:
.LBB23:
	.loc 1 416 0
	lis 9,offset@ha
	lis 8,.LC13@ha
	lwz 11,offset@l(9)
	lis 9,rmode@ha
.LBE23:
.LBE22:
	.loc 1 427 0
	stw 0,68(1)
.LBB33:
.LBB24:
	.loc 1 416 0
	lis 0,0x4330
	.cfi_offset 65, 4
	lwz 10,rmode@l(9)
	slwi 9,11,1
	xoris 9,9,0x8000
	lfs 12,.LC13@l(8)
	lhz 10,6(10)
.LBE24:
.LBE33:
	.loc 1 430 0
	add 4,6,4
.LVL51:
.LBB34:
.LBB25:
	.loc 1 416 0
	stw 9,20(1)
	lis 9,.LC11@ha
	stw 10,12(1)
.LBE25:
.LBE34:
	.loc 1 430 0
	subf 11,11,10
.LBB35:
.LBB26:
	.loc 1 416 0
	stw 0,8(1)
.LBE26:
.LBE35:
	.loc 1 430 0
	xoris 11,11,0x8000
.LBB36:
.LBB27:
	.loc 1 416 0
	stw 0,16(1)
	lfs 11,.LC11@l(9)
	lfd 10,8(1)
	lfd 13,16(1)
	fsub 10,10,11
.LBE27:
.LBE36:
	.loc 1 430 0
	stw 4,28(1)
.LBB37:
.LBB28:
	.loc 1 416 0
	fsub 13,13,12
.LBE28:
.LBE37:
	.loc 1 430 0
	stw 0,24(1)
	stw 11,36(1)
	lis 11,.LC17@ha
.LBB38:
.LBB29:
	.loc 1 416 0
	frsp 10,10
.LBE29:
.LBE38:
	.loc 1 430 0
	lfd 0,24(1)
.LBB39:
.LBB30:
	.loc 1 416 0
	frsp 13,13
.LBE30:
.LBE39:
	.loc 1 430 0
	stw 0,32(1)
	fsub 0,0,11
	lfd 11,32(1)
.LBB40:
.LBB31:
	.loc 1 416 0
	fsubs 13,10,13
.LBE31:
.LBE40:
	.loc 1 430 0
	fsub 12,11,12
	frsp 0,0
.LBB41:
.LBB32:
	.loc 1 416 0
	fdivs 13,13,10
.LBE32:
.LBE41:
	.loc 1 430 0
	lfs 10,.LC17@l(11)
	frsp 12,12
	.loc 1 426 0
	fneg 0,0
	.loc 1 430 0
	fmadds 0,0,13,12
	fcmpu 7,0,10
	cror 30,29,30
	beq- 7,.L38
	fctiwz 0,0
	addi 10,1,60
	lis 0,0x4330
	lfs 12,.LC17@l(11)
	stfiwx 0,0,10
	stw 6,44(1)
	stw 0,40(1)
	lfs 0,.LC11@l(9)
	lfd 11,40(1)
	lwz 4,60(1)
	fsub 0,11,0
	frsp 0,0
	fmuls 0,0,13
	fcmpu 7,0,12
	cror 30,29,30
	beq- 7,.L40
.L42:
	fctiwz 0,0
	addi 9,1,52
	stfiwx 0,0,9
	lwz 6,52(1)
.LVL52:
	bl GX_SetScissor
.LVL53:
	.loc 1 431 0
	lwz 0,68(1)
	addi 1,1,64
	.cfi_remember_state
.LCFI18:
	.cfi_def_cfa_offset 0
	mtlr 0
	blr
.LVL54:
.L38:
.LCFI19:
	.cfi_restore_state
	.loc 1 430 0
	fsubs 0,0,10
	addi 10,1,56
	lis 0,0x4330
	lfs 12,.LC17@l(11)
	fctiwz 0,0
	stfiwx 0,0,10
	stw 6,44(1)
	stw 0,40(1)
	lfs 0,.LC11@l(9)
	lfd 11,40(1)
	lwz 4,56(1)
	fsub 0,11,0
	addis 4,4,0x8000
	frsp 0,0
	fmuls 0,0,13
	fcmpu 7,0,12
	cror 30,29,30
	bne+ 7,.L42
.L40:
	fsubs 0,0,12
	addi 10,1,48
	fctiwz 0,0
	stfiwx 0,0,10
	lwz 6,48(1)
.LVL55:
	addis 6,6,0x8000
	bl GX_SetScissor
.LVL56:
	.loc 1 431 0
	lwz 0,68(1)
	addi 1,1,64
.LCFI20:
	.cfi_def_cfa_offset 0
	mtlr 0
	blr
	.cfi_endproc
.LFE73:
	.size	GX_SetModScissor, .-GX_SetModScissor
	.align 2
	.globl GX_SetMaxScissor
	.type	GX_SetMaxScissor, @function
GX_SetMaxScissor:
.LFB74:
	.loc 1 434 0
	.cfi_startproc
	.loc 1 435 0
	lis 9,rmode@ha
	li 3,0
	lwz 9,rmode@l(9)
	li 4,0
	lhz 5,4(9)
	lhz 6,6(9)
	.loc 1 436 0
	.loc 1 435 0
	b GX_SetModScissor
	.cfi_endproc
.LFE74:
	.size	GX_SetMaxScissor, .-GX_SetMaxScissor
	.align 2
	.globl glutSwapBuffers
	.type	glutSwapBuffers, @function
glutSwapBuffers:
.LFB75:
	.loc 1 441 0
	.cfi_startproc
	stwu 1,-16(1)
.LCFI21:
	.cfi_def_cfa_offset 16
	mflr 0
	stw 31,12(1)
	.loc 1 444 0
	lis 31,fb@ha
	.cfi_offset 31, -4
	.cfi_register 65, 0
	.loc 1 441 0
	stw 0,20(1)
	stw 30,8(1)
	.loc 1 442 0
	.cfi_offset 30, -8
	.cfi_offset 65, 4
	bl glFlush
	.loc 1 444 0
	lwz 0,fb@l(31)
	.loc 1 446 0
	li 5,1
	li 4,7
	li 3,1
	.loc 1 444 0
	xori 0,0,1
	.loc 1 449 0
	lis 30,.LANCHOR1@ha
	.loc 1 444 0
	stw 0,fb@l(31)
	.loc 1 446 0
	bl GX_SetZMode
	.loc 1 447 0
	li 3,1
	.loc 1 449 0
	la 30,.LANCHOR1@l(30)
	.loc 1 447 0
	bl GX_SetColorUpdate
	.loc 1 448 0
	li 3,1
	bl GX_SetAlphaUpdate
	.loc 1 449 0
	lwz 0,fb@l(31)
	li 4,1
	slwi 0,0,2
	lwzx 3,30,0
	bl GX_CopyDisp
	.loc 1 451 0
	bl GX_DrawDone
	.loc 1 452 0
	lis 9,incFPS@ha
	.loc 1 460 0
	lwz 11,fb@l(31)
	.loc 1 452 0
	lbz 10,incFPS@l(9)
	.loc 1 460 0
	slwi 11,11,2
	.loc 1 452 0
	addi 0,10,1
	.loc 1 460 0
	lwzx 3,30,11
	.loc 1 452 0
	rlwinm 0,0,0,0xff
	stb 0,incFPS@l(9)
	.loc 1 460 0
	bl VIDEO_SetNextFramebuffer
	.loc 1 463 0
	bl VIDEO_Flush
	.loc 1 466 0
	lwz 0,20(1)
	lwz 30,8(1)
	mtlr 0
	lwz 31,12(1)
	addi 1,1,16
.LCFI22:
	.cfi_def_cfa_offset 0
	.cfi_restore 31
	.cfi_restore 30
	blr
	.cfi_endproc
.LFE75:
	.size	glutSwapBuffers, .-glutSwapBuffers
	.align 2
	.globl glutInitWindowSize
	.type	glutInitWindowSize, @function
glutInitWindowSize:
.LFB76:
	.loc 1 468 0
	.cfi_startproc
.LVL57:
	stwu 1,-24(1)
.LCFI23:
	.cfi_def_cfa_offset 24
	.loc 1 469 0
	lis 0,0x4330
	xoris 3,3,0x8000
.LVL58:
	xoris 4,4,0x8000
.LVL59:
	stw 3,12(1)
	lis 9,.LC13@ha
	stw 0,8(1)
	stw 4,20(1)
	stw 0,16(1)
	lfs 0,.LC13@l(9)
	lis 9,.LC9@ha
	lfd 3,8(1)
	lfd 4,16(1)
	.loc 1 470 0
	.loc 1 469 0
	fsub 3,3,0
	lfs 1,.LC9@l(9)
	fsub 4,4,0
	lis 9,.LC5@ha
	fmr 2,1
	lfs 6,.LC5@l(9)
	frsp 3,3
	.loc 1 470 0
	addi 1,1,24
.LCFI24:
	.cfi_def_cfa_offset 0
	.loc 1 469 0
	frsp 4,4
	fmr 5,1
	b GX_SetModViewport
.LVL60:
.LVL61:
	.cfi_endproc
.LFE76:
	.size	glutInitWindowSize, .-glutInitWindowSize
	.align 2
	.globl glutGet
	.type	glutGet, @function
glutGet:
.LFB77:
	.loc 1 472 0
	.cfi_startproc
.LVL62:
	.loc 1 474 0
	cmpwi 7,3,201
	.loc 1 477 0
	li 0,480
	.loc 1 474 0
	beq- 7,.L48
	cmpwi 7,3,504
	.loc 1 478 0
	li 0,18
	.loc 1 474 0
	beq- 7,.L48
	.loc 1 473 0
	xori 0,3,200
	addic 0,0,-1
	subfe 0,0,0
	andi. 0,0,640
.L48:
.LVL63:
	.loc 1 481 0
	mr 3,0
.LVL64:
	blr
	.cfi_endproc
.LFE77:
	.size	glutGet, .-glutGet
	.align 2
	.globl glutDisplayFunc
	.type	glutDisplayFunc, @function
glutDisplayFunc:
.LFB78:
	.loc 1 485 0
	.cfi_startproc
.LVL65:
	.loc 1 486 0
	lis 9,displayfunc@ha
	.loc 1 487 0
	.loc 1 486 0
	stw 3,displayfunc@l(9)
	.loc 1 487 0
	blr
	.cfi_endproc
.LFE78:
	.size	glutDisplayFunc, .-glutDisplayFunc
	.align 2
	.globl glutIdleFunc
	.type	glutIdleFunc, @function
glutIdleFunc:
.LFB79:
	.loc 1 491 0
	.cfi_startproc
.LVL66:
	.loc 1 492 0
	lis 9,idlefunc@ha
	.loc 1 493 0
	.loc 1 492 0
	stw 3,idlefunc@l(9)
	.loc 1 493 0
	blr
	.cfi_endproc
.LFE79:
	.size	glutIdleFunc, .-glutIdleFunc
	.align 2
	.globl getFPS
	.type	getFPS, @function
getFPS:
.LFB81:
	.loc 1 519 0
	.cfi_startproc
	.loc 1 520 0
	lis 9,FPS@ha
	.loc 1 521 0
	lbz 3,FPS@l(9)
	blr
	.cfi_endproc
.LFE81:
	.size	getFPS, .-getFPS
	.align 2
	.globl glutMainLoop
	.type	glutMainLoop, @function
glutMainLoop:
.LFB83:
	.loc 1 535 0
	.cfi_startproc
.LVL67:
	stwu 1,-48(1)
.LCFI25:
	.cfi_def_cfa_offset 48
	mflr 0
	stw 31,44(1)
	.loc 1 540 0
	lis 31,watchdog@ha
	.cfi_offset 31, -4
	.cfi_register 65, 0
	la 3,watchdog@l(31)
	.loc 1 535 0
	stw 0,52(1)
	.loc 1 540 0
	.cfi_offset 65, 4
	bl SYS_CreateAlarm
.LVL68:
	.loc 1 542 0
	lis 11,kill@ha
	.loc 1 550 0
	mr. 0,3
	.loc 1 542 0
	li 10,0
	.loc 1 544 0
	li 9,0
	.loc 1 542 0
	stb 10,kill@l(11)
	.loc 1 547 0
	li 11,1
	.loc 1 544 0
	stw 9,20(1)
	.loc 1 545 0
	stw 9,24(1)
	.loc 1 547 0
	stw 11,12(1)
	.loc 1 548 0
	stw 9,16(1)
	.loc 1 550 0
	bne+ 0,.L56
	.loc 1 554 0
	lis 6,timercallback@ha
	lwz 3,watchdog@l(31)
.LVL69:
	.loc 1 552 0
	lis 9,count@ha
	.loc 1 554 0
	addi 4,1,20
	addi 5,1,12
	la 6,timercallback@l(6)
	li 7,0
	.loc 1 552 0
	stb 0,count@l(9)
	.loc 1 554 0
	bl SYS_SetPeriodicAlarm
.LVL70:
.L56:
	.loc 1 559 0
	lis 4,glutThread@ha
	addi 3,1,8
	la 4,glutThread@l(4)
	li 5,0
	li 6,0
	li 7,0
	li 8,67
	lis 31,kill@ha
	bl LWP_CreateThread
	la 31,kill@l(31)
.L62:
	.loc 1 563 0
	addi 3,1,12
	bl nanosleep
	.loc 1 564 0
	lbz 0,0(31)
	cmpwi 7,0,0
	beq+ 7,.L62
	.loc 1 566 0
	bl do_reset
	b .L62
	.cfi_endproc
.LFE83:
	.size	glutMainLoop, .-glutMainLoop
	.align 2
	.globl getFrontFramebuffer
	.type	getFrontFramebuffer, @function
getFrontFramebuffer:
.LFB84:
	.loc 1 573 0
	.cfi_startproc
	.loc 1 574 0
	lis 9,fb@ha
	lwz 0,fb@l(9)
	.loc 1 575 0
	lis 9,.LANCHOR1@ha
	la 9,.LANCHOR1@l(9)
	.loc 1 574 0
	slwi 0,0,2
	.loc 1 575 0
	lwzx 3,9,0
	blr
	.cfi_endproc
.LFE84:
	.size	getFrontFramebuffer, .-getFrontFramebuffer
	.align 2
	.globl getBackFramebuffer
	.type	getBackFramebuffer, @function
getBackFramebuffer:
.LFB85:
	.loc 1 578 0
	.cfi_startproc
	.loc 1 579 0
	lis 9,fb@ha
	lwz 0,fb@l(9)
	.loc 1 580 0
	lis 9,.LANCHOR1@ha
	la 9,.LANCHOR1@l(9)
	.loc 1 579 0
	xori 0,0,1
	slwi 0,0,2
	.loc 1 580 0
	lwzx 3,9,0
	blr
	.cfi_endproc
.LFE85:
	.size	getBackFramebuffer, .-getBackFramebuffer
	.align 2
	.globl power_off
	.type	power_off, @function
power_off:
.LFB86:
	.loc 1 583 0
	.cfi_startproc
.LVL71:
	.loc 1 584 0
	li 0,1
	lis 9,kill@ha
	stb 0,kill@l(9)
	.loc 1 585 0
	blr
	.cfi_endproc
.LFE86:
	.size	power_off, .-power_off
	.comm	kill,1,1
	.comm	count,1,1
	.globl idlefunc
	.globl displayfunc
	.globl incFPS
	.globl FPS
	.globl offset
	.globl _console_inited
	.globl _console_enabled
	.globl fb
	.comm	watchdog,4,4
	.comm	rmode,4,4
	.globl __glutProgramName
	.comm	call_offset,4,4
	.comm	read_mode,4,4
	.comm	glTexEnvs,864,4
	.comm	fog_color,4,1
	.comm	fog_density,4,4
	.comm	fog_endz,4,4
	.comm	fog_startz,4,4
	.comm	fog_mode,1,1
	.comm	fog_enable,1,1
	.comm	Trans,32,4
	.comm	_clearcolor,4,1
	.comm	copy_material,4,4
	.comm	copy_mat_enabled,1,1
	.comm	color_write_mask,4,4
	.comm	unpack,20,4
	.comm	pack,20,4
	.comm	point_size,4,4
	.comm	line_width,4,4
	.comm	normFar,4,4
	.comm	normNear,4,4
	.comm	viewPort,16,4
	.comm	scissorInfo,16,4
	.comm	scissor_test,1,1
	.comm	fb_max_width,4,4
	.comm	fb_max_height,4,4
	.comm	cur_state,4,4
	.comm	cull_mode,1,1
	.comm	blend_op,1,1
	.comm	blend_dst,1,1
	.comm	blend_src,1,1
	.comm	blend_type,1,1
	.comm	lighting,1,1
	.comm	gxwinding,4,4
	.comm	gxcullfaceanabled,1,1
	.comm	curmat,68,4
	.comm	globAmbient,16,4
	.comm	lights,1312,4
	.comm	cur_mode,4,4
	.comm	curmtx,4,4
	.comm	texture_stack,128,4
	.comm	projection_stack,16,4
	.comm	model_stack,16,4
	.comm	_cleardepth,4,4
	.comm	depthfunction,4,4
	.comm	depthupdate,1,1
	.comm	depthtestenabled,1,1
	.comm	cur_tex_client,4,4
	.comm	cur_tex,4,4
	.comm	_GLtype,4,4
	.comm	_type,4,4
	.comm	vert_i,4,4
	.comm	_colorelements,16000,32
	.comm	_texcoordelements,64000,32
	.comm	_vertexelements,12000,32
	.comm	_normalelements,12000,32
	.comm	color,20,4
	.comm	tex,160,4
	.comm	vert,20,4
	.comm	norm,20,4
	.comm	_temptexcoordelement,64,4
	.comm	_tempnormalelement,12,4
	.comm	_tempcolorelement,16,4
	.section	.rodata
	.align 2
	.set	.LANCHOR0,. + 0
.LC0:
	.long	1065353216
	.long	1065353216
	.long	1065353216
	.long	1065353216
.LC1:
	.long	1045220557
	.long	1045220557
	.long	1045220557
	.long	1065353216
.LC2:
	.long	1061997773
	.long	1061997773
	.long	1061997773
	.long	1065353216
	.section	.rodata.cst4,"aM",@progbits,4
	.align 2
.LC5:
	.4byte	1065353216
.LC6:
	.4byte	1127481344
.LC7:
	.4byte	-1082130432
.LC8:
	.4byte	1085370904
.LC9:
	.4byte	0
.LC11:
	.4byte	1501560832
.LC13:
	.4byte	1501560836
.LC17:
	.4byte	1325400064
	.section	.rodata.cst8,"aM",@progbits,8
	.align 3
.LC14:
	.4byte	0
	.4byte	0
	.section	.rodata.str1.4,"aMS",@progbits,1
	.align 2
.LC3:
	.string	"%d\n"
.LC4:
	.string	"test"
	.section	.sbss,"aw",@nobits
	.align 2
	.type	idlefunc, @object
	.size	idlefunc, 4
idlefunc:
	.zero	4
	.type	displayfunc, @object
	.size	displayfunc, 4
displayfunc:
	.zero	4
	.type	incFPS, @object
	.size	incFPS, 1
incFPS:
	.zero	1
	.type	FPS, @object
	.size	FPS, 1
FPS:
	.zero	1
	.zero	2
	.type	offset, @object
	.size	offset, 4
offset:
	.zero	4
	.type	_console_inited, @object
	.size	_console_inited, 1
_console_inited:
	.zero	1
	.type	_console_enabled, @object
	.size	_console_enabled, 1
_console_enabled:
	.zero	1
	.zero	2
	.type	fb, @object
	.size	fb, 4
fb:
	.zero	4
	.type	__glutProgramName, @object
	.size	__glutProgramName, 4
__glutProgramName:
	.zero	4
	.section	".bss"
	.align 2
	.set	.LANCHOR1,. + 0
	.type	frameBuffer, @object
	.size	frameBuffer, 8
frameBuffer:
	.zero	8
	.section	".text"
.Letext0:
	.file 2 "c:\\utils\\devkitpro\\devkitppc\\bin\\../lib/gcc/powerpc-eabi/4.6.3/include/stddef.h"
	.file 3 "c:\\utils\\devkitpro\\devkitppc\\bin\\../lib/gcc/powerpc-eabi/4.6.3/../../../../powerpc-eabi/include/sys/types.h"
	.file 4 "c:\\utils\\devkitpro\\devkitppc\\bin\\../lib/gcc/powerpc-eabi/4.6.3/../../../../powerpc-eabi/include/stdint.h"
	.file 5 "c:/utils/devkitPro/libogc/include/gctypes.h"
	.file 6 "c:/utils/devkitPro/libogc/include/ogc/gx_struct.h"
	.file 7 "c:/utils/devkitPro/libogc/include/ogc/gu.h"
	.file 8 "c:/utils/devkitPro/libogc/include/ogc/lwp.h"
	.file 9 "c:/utils/devkitPro/libogc/include/ogc/gx.h"
	.file 10 "c:/utils/devkitPro/libogc/include/ogc/system.h"
	.file 11 "d:/Data/Nintendo/TenebraeGX/gl2gx/include/GL/gl.h"
	.file 12 "d:/Data/Nintendo/TenebraeGX/gl2gx/source/include/glint.h"
	.file 13 "d:/Data/Nintendo/TenebraeGX/gl2gx/source/include/mat_stack.h"