	.file	"glut_stroke.c"
	.section	".text"
.Ltext0:
	.cfi_sections	.debug_frame
	.align 2
	.globl glutStrokeCharacter
	.type	glutStrokeCharacter, @function
glutStrokeCharacter:
.LFB0:
	.file 1 "d:/Data/Nintendo/TenebraeGX/gl2gx/source/glut/glut_stroke.c"
	.loc 1 13 0
	.cfi_startproc
.LVL0:
	.loc 1 20 0
	cmpwi 0,4,0
.LVL1:
	.loc 1 13 0
	mflr 0
	stwu 1,-32(1)
.LCFI0:
	.cfi_def_cfa_offset 32
	.cfi_register 65, 0
	stw 0,36(1)
	stw 29,20(1)
	stw 30,24(1)
	stw 31,28(1)
	.loc 1 20 0
	blt- 0,.L1
	.cfi_offset 31, -4
	.cfi_offset 30, -8
	.cfi_offset 29, -12
	.cfi_offset 65, 4
	.loc 1 20 0 is_stmt 0 discriminator 1
	lwz 0,4(3)
	cmpw 7,4,0
	bge- 7,.L1
	.loc 1 22 0 is_stmt 1
	lwz 9,8(3)
	slwi 4,4,4
.LVL2:
	.loc 1 23 0
	add. 30,9,4
	beq- 0,.L1
	.loc 1 24 0
	lwzx 9,9,4
	lwz 31,4(30)
	cmpwi 7,9,0
	stw 9,12(1)
.LVL3:
	ble- 7,.L3
.LVL4:
.L7:
	.loc 1 26 0
	li 3,3
	bl glBegin
.LVL5:
	.loc 1 27 0
	lwz 0,0(31)
	lwz 29,4(31)
	cmpwi 7,0,0
	stw 0,8(1)
.LVL6:
	ble- 7,.L4
.LVL7:
.L8:
	.loc 1 29 0
	lfs 1,0(29)
	lfs 2,4(29)
	.loc 1 28 0
	addi 29,29,8
.LVL8:
	.loc 1 29 0
	bl glVertex2f
.LVL9:
	.loc 1 27 0
	lwz 0,8(1)
	addic. 9,0,-1
	stw 9,8(1)
	bne+ 0,.L8
.LVL10:
.L4:
	.loc 1 31 0
	bl glEnd
.LVL11:
	.loc 1 24 0
	lwz 0,12(1)
	.loc 1 25 0
	addi 31,31,8
.LVL12:
	.loc 1 24 0
	addic. 9,0,-1
	stw 9,12(1)
	bne+ 0,.L7
.LVL13:
.L3:
	.loc 1 33 0
	lis 9,.LC0@ha
.LVL14:
	lfs 1,12(30)
	lfs 2,.LC0@l(9)
	fmr 3,2
	bl glTranslatef
.LVL15:
.L1:
	.loc 1 35 0
	lwz 0,36(1)
	lwz 29,20(1)
	mtlr 0
	lwz 30,24(1)
	lwz 31,28(1)
	addi 1,1,32
.LCFI1:
	.cfi_def_cfa_offset 0
	.cfi_restore 31
	.cfi_restore 30
	.cfi_restore 29
	blr
	.cfi_endproc
.LFE0:
	.size	glutStrokeCharacter, .-glutStrokeCharacter
	.section	.rodata.cst4,"aM",@progbits,4
	.align 2
.LC0:
	.4byte	0
	.section	".text"
.Letext0:
	.file 2 "d:/Data/Nintendo/TenebraeGX/gl2gx/source/glut/glutstroke.h"