	.file	"host.c"
	.section	".text"
.Ltext0:
	.cfi_sections	.debug_frame
	.align 2
	.globl Host_FindMaxClients
	.type	Host_FindMaxClients, @function
Host_FindMaxClients:
.LFB40:
	.file 1 "d:/Data/Nintendo/TenebraeGX/src/host.c"
	.loc 1 174 0
	.cfi_startproc
	stwu 1,-24(1)
.LCFI0:
	.cfi_def_cfa_offset 24
	mflr 0
	.loc 1 179 0
	lis 3,.LC0@ha
	.loc 1 174 0
	stw 29,12(1)
	.loc 1 179 0
	la 3,.LC0@l(3)
	.loc 1 174 0
	stw 31,20(1)
	.loc 1 177 0
	li 29,1
	.cfi_offset 31, -4
	.cfi_offset 29, -12
	.cfi_register 65, 0
	lis 31,svs@ha
	.loc 1 174 0
	stw 0,28(1)
	stw 30,16(1)
	.loc 1 177 0
	stw 29,svs@l(31)
	.loc 1 179 0
	.cfi_offset 30, -8
	.cfi_offset 65, 4
	bl COM_CheckParm
.LVL0:
	.loc 1 180 0
	cmpwi 0,3,0
	beq- 0,.L2
	.loc 1 183 0
	lis 9,com_argc@ha
	.loc 1 182 0
	lis 30,cls@ha
	.loc 1 183 0
	lwz 9,com_argc@l(9)
	addi 0,9,-1
	cmpw 7,0,3
	.loc 1 182 0
	li 0,0
	stw 0,cls@l(30)
	.loc 1 183 0
	beq- 7,.L3
	.loc 1 185 0
	lis 9,com_argv@ha
	addi 3,3,1
.LVL1:
	lwz 9,com_argv@l(9)
	slwi 3,3,2
.LVL2:
	lwzx 3,9,3
	bl Q_atoi
	stw 3,svs@l(31)
	.loc 1 193 0
	lis 3,.LC1@ha
	la 3,.LC1@l(3)
	bl COM_CheckParm
.LVL3:
	.loc 1 194 0
	mr. 29,3
	.loc 1 208 0
	lwz 3,svs@l(31)
.LVL4:
	.loc 1 194 0
	bne- 0,.L18
.L8:
	.loc 1 203 0
	cmpwi 7,3,0
	ble- 7,.L19
.LVL5:
.L10:
	.loc 1 205 0
	cmpwi 7,3,64
	ble- 7,.L12
	.loc 1 206 0
	li 0,64
	lis 3,0x3e
	stw 0,svs@l(31)
	ori 3,3,48640
.L11:
	.loc 1 208 0
	la 30,svs@l(31)
	stw 0,4(30)
.L14:
	.loc 1 211 0
	lis 4,.LC3@ha
	la 4,.LC3@l(4)
	bl Hunk_AllocName
	.loc 1 213 0
	lwz 0,svs@l(31)
	.loc 1 211 0
	stw 3,8(30)
	.loc 1 213 0
	cmpwi 7,0,1
	ble- 7,.L15
	.loc 1 214 0
	lis 9,.LC5@ha
	lis 3,.LC4@ha
	lfs 1,.LC5@l(9)
	la 3,.LC4@l(3)
	bl Cvar_SetValue
	.loc 1 217 0
	lwz 0,28(1)
	lwz 29,12(1)
	mtlr 0
	lwz 30,16(1)
	lwz 31,20(1)
	addi 1,1,24
	.cfi_remember_state
.LCFI1:
	.cfi_def_cfa_offset 0
	.cfi_restore 31
	.cfi_restore 30
	.cfi_restore 29
	blr
.LVL6:
.L2:
.LCFI2:
	.cfi_restore_state
	.loc 1 191 0
	lis 30,cls@ha
	stw 29,cls@l(30)
.L4:
	.loc 1 193 0
	lis 3,.LC1@ha
.LVL7:
	la 3,.LC1@l(3)
	bl COM_CheckParm
.LVL8:
	.loc 1 194 0
	mr. 29,3
	.loc 1 208 0
	lwz 3,svs@l(31)
.LVL9:
	.loc 1 194 0
	beq- 0,.L8
.L18:
	.loc 1 196 0
	lwz 0,cls@l(30)
	cmpwi 7,0,0
	beq- 7,.L20
	.loc 1 198 0
	lis 9,com_argc@ha
	lwz 9,com_argc@l(9)
	addi 0,9,-1
	cmpw 7,0,29
	beq- 7,.L7
.L21:
	.loc 1 199 0
	lis 9,com_argv@ha
	addi 29,29,1
.LVL10:
	lwz 9,com_argv@l(9)
	slwi 29,29,2
.LVL11:
	lwzx 3,9,29
	bl Q_atoi
	.loc 1 203 0
	cmpwi 7,3,0
	.loc 1 199 0
	stw 3,svs@l(31)
	.loc 1 203 0
	bgt+ 7,.L10
.L19:
	.loc 1 204 0
	li 0,8
	lis 3,0x7
	stw 0,svs@l(31)
	ori 3,3,55232
	b .L11
.LVL12:
.L3:
	.loc 1 188 0
	li 0,8
	stw 0,svs@l(31)
	b .L4
.LVL13:
.L7:
	.loc 1 201 0
	la 30,svs@l(31)
	.loc 1 208 0
	li 0,8
	.loc 1 201 0
	li 9,8
	.loc 1 208 0
	stw 0,4(30)
	.loc 1 201 0
	stw 9,svs@l(31)
.LVL14:
.L9:
	.loc 1 209 0
	li 3,0
	ori 3,3,64248
	mullw 3,0,3
	b .L14
.L15:
	.loc 1 216 0
	lis 9,.LC6@ha
	lis 3,.LC4@ha
	lfs 1,.LC6@l(9)
	la 3,.LC4@l(3)
	bl Cvar_SetValue
	.loc 1 217 0
	lwz 0,28(1)
	lwz 29,12(1)
	mtlr 0
	lwz 30,16(1)
	lwz 31,20(1)
	addi 1,1,24
	.cfi_remember_state
	.cfi_restore 29
	.cfi_restore 30
	.cfi_restore 31
.LCFI3:
	.cfi_def_cfa_offset 0
	blr
.LVL15:
.L20:
.LCFI4:
	.cfi_restore_state
	.loc 1 197 0
	lis 3,.LC2@ha
	la 3,.LC2@l(3)
	crxor 6,6,6
	bl Sys_Error
	.loc 1 198 0
	lis 9,com_argc@ha
	lwz 9,com_argc@l(9)
	addi 0,9,-1
	cmpw 7,0,29
	bne- 7,.L21
	b .L7
.LVL16:
.L12:
	.loc 1 208 0
	lwz 0,svs@l(31)
	la 30,svs@l(31)
	.loc 1 209 0
	cmpwi 7,0,3
	.loc 1 208 0
	stw 0,4(30)
	.loc 1 209 0
	bgt- 7,.L9
	.loc 1 210 0
	li 0,4
	lis 3,0x3
	stw 0,4(30)
	ori 3,3,60384
	b .L14
	.cfi_endproc
.LFE40:
	.size	Host_FindMaxClients, .-Host_FindMaxClients
	.align 2
	.globl Host_InitLocal
	.type	Host_InitLocal, @function
Host_InitLocal:
.LFB41:
	.loc 1 226 0
	.cfi_startproc
	stwu 1,-16(1)
.LCFI5:
	.cfi_def_cfa_offset 16
	mflr 0
	stw 31,12(1)
	.loc 1 229 0
	lis 31,.LANCHOR0@ha
	.cfi_offset 31, -4
	.cfi_register 65, 0
	la 31,.LANCHOR0@l(31)
	.loc 1 226 0
	stw 0,20(1)
	.loc 1 227 0
	.cfi_offset 65, 4
	bl Host_InitCommands
	.loc 1 229 0
	mr 3,31
	bl Cvar_RegisterVariable
	.loc 1 230 0
	addi 3,31,20
	bl Cvar_RegisterVariable
	.loc 1 232 0
	addi 3,31,40
	bl Cvar_RegisterVariable
	.loc 1 233 0
	addi 3,31,60
	bl Cvar_RegisterVariable
	.loc 1 235 0
	addi 3,31,80
	bl Cvar_RegisterVariable
	.loc 1 236 0
	addi 3,31,100
	bl Cvar_RegisterVariable
	.loc 1 237 0
	addi 3,31,120
	bl Cvar_RegisterVariable
	.loc 1 238 0
	addi 3,31,140
	bl Cvar_RegisterVariable
	.loc 1 239 0
	addi 3,31,160
	bl Cvar_RegisterVariable
	.loc 1 240 0
	addi 3,31,180
	bl Cvar_RegisterVariable
	.loc 1 241 0
	addi 3,31,200
	bl Cvar_RegisterVariable
	.loc 1 242 0
	addi 3,31,220
	bl Cvar_RegisterVariable
	.loc 1 243 0
	addi 3,31,240
	bl Cvar_RegisterVariable
	.loc 1 245 0
	addi 3,31,260
	bl Cvar_RegisterVariable
	.loc 1 246 0
	addi 3,31,280
	bl Cvar_RegisterVariable
	.loc 1 247 0
	addi 3,31,300
	bl Cvar_RegisterVariable
	.loc 1 249 0
	addi 3,31,320
	bl Cvar_RegisterVariable
	.loc 1 251 0
	bl Host_FindMaxClients
	.loc 1 254 0
	lwz 0,20(1)
	.loc 1 253 0
	lis 9,.LC5@ha
	.loc 1 254 0
	lwz 31,12(1)
	mtlr 0
	.loc 1 253 0
	lfs 0,.LC5@l(9)
	lis 9,host_time@ha
	.loc 1 254 0
	.loc 1 253 0
	stfd 0,host_time@l(9)
	.loc 1 254 0
	addi 1,1,16
.LCFI6:
	.cfi_def_cfa_offset 0
	.cfi_restore 31
	blr
	.cfi_endproc
.LFE41:
	.size	Host_InitLocal, .-Host_InitLocal
	.align 2
	.globl SV_ClientPrintf
	.type	SV_ClientPrintf, @function
SV_ClientPrintf:
.LFB42:
	.loc 1 296 0
	.cfi_startproc
.LVL17:
	mflr 0
	stwu 1,-1152(1)
.LCFI7:
	.cfi_def_cfa_offset 1152
	.cfi_register 65, 0
	stw 31,1148(1)
	stw 0,1156(1)
	stw 4,1052(1)
	stw 5,1056(1)
	stw 6,1060(1)
	stw 7,1064(1)
	stw 8,1068(1)
	stw 9,1072(1)
	stw 10,1076(1)
	bne- 1,.L24
	.cfi_offset 65, 4
	.cfi_offset 31, -4
	.loc 1 296 0
	stfd 1,1080(1)
	stfd 2,1088(1)
	stfd 3,1096(1)
	stfd 4,1104(1)
	stfd 5,1112(1)
	stfd 6,1120(1)
	stfd 7,1128(1)
	stfd 8,1136(1)
.L24:
	.loc 1 300 0
	li 0,1
	.loc 1 301 0
	addi 5,1,8
	.loc 1 300 0
	stb 0,8(1)
	li 0,0
	stb 0,9(1)
	addi 0,1,1160
	.loc 1 296 0
	mr 4,3
	.loc 1 304 0
	lis 31,host_client@ha
	.loc 1 300 0
	stw 0,12(1)
	.loc 1 301 0
	addi 3,1,20
.LVL18:
	.loc 1 300 0
	addi 0,1,1048
	stw 0,16(1)
	.loc 1 301 0
	bl vsprintf
.LVL19:
	.loc 1 304 0
	lwz 3,host_client@l(31)
	li 4,8
	addi 3,3,56
	bl MSG_WriteByte
	.loc 1 305 0
	lwz 3,host_client@l(31)
	addi 4,1,20
	addi 3,3,56
	bl MSG_WriteString
	.loc 1 306 0
	lwz 0,1156(1)
	lwz 31,1148(1)
	mtlr 0
	addi 1,1,1152
.LCFI8:
	.cfi_def_cfa_offset 0
	.cfi_restore 31
	blr
	.cfi_endproc
.LFE42:
	.size	SV_ClientPrintf, .-SV_ClientPrintf
	.align 2
	.globl SV_BroadcastPrintf
	.type	SV_BroadcastPrintf, @function
SV_BroadcastPrintf:
.LFB43:
	.loc 1 316 0
	.cfi_startproc
.LVL20:
	mflr 0
	stwu 1,-1160(1)
.LCFI9:
	.cfi_def_cfa_offset 1160
	.cfi_register 65, 0
	stw 29,1148(1)
	stw 0,1164(1)
	stw 30,1152(1)
	stw 31,1156(1)
	stw 4,1052(1)
	stw 5,1056(1)
	stw 6,1060(1)
	stw 7,1064(1)
	stw 8,1068(1)
	stw 9,1072(1)
	stw 10,1076(1)
	bne- 1,.L26
	.cfi_offset 31, -4
	.cfi_offset 30, -8
	.cfi_offset 65, 4
	.cfi_offset 29, -12
	.loc 1 316 0
	stfd 1,1080(1)
	stfd 2,1088(1)
	stfd 3,1096(1)
	stfd 4,1104(1)
	stfd 5,1112(1)
	stfd 6,1120(1)
	stfd 7,1128(1)
	stfd 8,1136(1)
.L26:
	.loc 1 321 0
	li 0,1
	.loc 1 316 0
	mr 4,3
	.loc 1 321 0
	stb 0,8(1)
	li 0,0
	stb 0,9(1)
	addi 0,1,1168
	stw 0,12(1)
	.loc 1 322 0
	addi 3,1,20
.LVL21:
	.loc 1 321 0
	addi 0,1,1048
	.loc 1 322 0
	addi 5,1,8
	.loc 1 325 0
	lis 29,svs@ha
	.loc 1 321 0
	stw 0,16(1)
	.loc 1 322 0
	bl vsprintf
.LVL22:
	.loc 1 325 0
	lwz 0,svs@l(29)
	cmpwi 7,0,0
	ble- 7,.L25
	li 31,0
	li 30,0
	la 29,svs@l(29)
	b .L29
.LVL23:
.L28:
	lwz 0,0(29)
	addis 31,31,0x1
	addi 31,31,-1288
	cmpw 7,0,30
	ble- 7,.L25
.LVL24:
.L29:
	.loc 1 326 0
	lwz 9,8(29)
	.loc 1 325 0
	addi 30,30,1
	.loc 1 326 0
	lbzx 0,9,31
	add 9,9,31
	cmpwi 7,0,0
	beq- 7,.L28
	.loc 1 326 0 is_stmt 0 discriminator 1
	lbz 0,1(9)
	cmpwi 7,0,0
	beq+ 7,.L28
	.loc 1 328 0 is_stmt 1
	addi 3,9,56
	li 4,8
	bl MSG_WriteByte
	.loc 1 329 0
	lwz 3,8(29)
	addi 4,1,20
	add 3,3,31
	.loc 1 325 0
	addis 31,31,0x1
	.loc 1 329 0
	addi 3,3,56
	.loc 1 325 0
	addi 31,31,-1288
	.loc 1 329 0
	bl MSG_WriteString
.LVL25:
	.loc 1 325 0
	lwz 0,0(29)
	cmpw 7,0,30
	bgt+ 7,.L29
.LVL26:
.L25:
	.loc 1 331 0
	lwz 0,1164(1)
	lwz 29,1148(1)
	mtlr 0
	lwz 30,1152(1)
	lwz 31,1156(1)
	addi 1,1,1160
.LCFI10:
	.cfi_def_cfa_offset 0
	.cfi_restore 31
	.cfi_restore 30
	.cfi_restore 29
	blr
	.cfi_endproc
.LFE43:
	.size	SV_BroadcastPrintf, .-SV_BroadcastPrintf
	.align 2
	.globl Host_ClientCommands
	.type	Host_ClientCommands, @function
Host_ClientCommands:
.LFB44:
	.loc 1 341 0
	.cfi_startproc
.LVL27:
	mflr 0
	stwu 1,-1152(1)
.LCFI11:
	.cfi_def_cfa_offset 1152
	.cfi_register 65, 0
	stw 31,1148(1)
	stw 0,1156(1)
	stw 4,1052(1)
	stw 5,1056(1)
	stw 6,1060(1)
	stw 7,1064(1)
	stw 8,1068(1)
	stw 9,1072(1)
	stw 10,1076(1)
	bne- 1,.L32
	.cfi_offset 65, 4
	.cfi_offset 31, -4
	.loc 1 341 0
	stfd 1,1080(1)
	stfd 2,1088(1)
	stfd 3,1096(1)
	stfd 4,1104(1)
	stfd 5,1112(1)
	stfd 6,1120(1)
	stfd 7,1128(1)
	stfd 8,1136(1)
.L32:
	.loc 1 345 0
	li 0,1
	.loc 1 346 0
	addi 5,1,8
	.loc 1 345 0
	stb 0,8(1)
	li 0,0
	stb 0,9(1)
	addi 0,1,1160
	.loc 1 341 0
	mr 4,3
	.loc 1 349 0
	lis 31,host_client@ha
	.loc 1 345 0
	stw 0,12(1)
	.loc 1 346 0
	addi 3,1,20
.LVL28:
	.loc 1 345 0
	addi 0,1,1048
	stw 0,16(1)
	.loc 1 346 0
	bl vsprintf
.LVL29:
	.loc 1 349 0
	lwz 3,host_client@l(31)
	li 4,9
	addi 3,3,56
	bl MSG_WriteByte
	.loc 1 350 0
	lwz 3,host_client@l(31)
	addi 4,1,20
	addi 3,3,56
	bl MSG_WriteString
	.loc 1 351 0
	lwz 0,1156(1)
	lwz 31,1148(1)
	mtlr 0
	addi 1,1,1152
.LCFI12:
	.cfi_def_cfa_offset 0
	.cfi_restore 31
	blr
	.cfi_endproc
.LFE44:
	.size	Host_ClientCommands, .-Host_ClientCommands
	.align 2
	.globl SV_DropClient
	.type	SV_DropClient, @function
SV_DropClient:
.LFB45:
	.loc 1 363 0
	.cfi_startproc
.LVL30:
	.loc 1 368 0
	cmpwi 7,3,0
	.loc 1 363 0
	mflr 0
	stwu 1,-40(1)
.LCFI13:
	.cfi_def_cfa_offset 40
	.cfi_register 65, 0
	stw 27,20(1)
	lis 27,host_client@ha
	.cfi_offset 27, -20
	stw 0,44(1)
	stw 25,12(1)
	stw 26,16(1)
	stw 28,24(1)
	stw 29,28(1)
	stw 30,32(1)
	stw 31,36(1)
	.loc 1 368 0
	beq- 7,.L42
	.cfi_offset 31, -4
	.cfi_offset 30, -8
	.cfi_offset 29, -12
	.cfi_offset 28, -16
	.cfi_offset 26, -24
	.cfi_offset 25, -28
	.cfi_offset 65, 4
.LVL31:
.L34:
	.loc 1 391 0
	lwz 9,host_client@l(27)
	.loc 1 401 0
	lis 28,svs@ha
	.loc 1 391 0
	lwz 3,16(9)
	bl NET_Close
	.loc 1 401 0
	lwz 0,svs@l(28)
	.loc 1 392 0
	lwz 9,host_client@l(27)
	.loc 1 398 0
	lis 11,net_activeconnections@ha
	.loc 1 401 0
	cmpwi 7,0,0
	.loc 1 398 0
	lwz 8,net_activeconnections@l(11)
	.loc 1 392 0
	li 0,0
	.loc 1 396 0
	addis 10,9,0x1
	.loc 1 395 0
	stb 0,0(9)
	.loc 1 398 0
	addi 8,8,-1
	.loc 1 392 0
	stw 0,16(9)
	.loc 1 401 0
	la 28,svs@l(28)
	.loc 1 396 0
	stb 0,-1460(10)
	.loc 1 397 0
	lis 0,0xfff0
	ori 0,0,48577
	.loc 1 398 0
	stw 8,net_activeconnections@l(11)
.LVL32:
	.loc 1 397 0
	stw 0,-1292(10)
	.loc 1 401 0
	lwz 31,8(28)
.LVL33:
	ble- 7,.L33
	.loc 1 406 0
	lis 26,0x99d5
	.loc 1 407 0
	lis 25,.LC9@ha
	.loc 1 401 0
	li 30,0
	.loc 1 406 0
	ori 26,26,64671
	.loc 1 407 0
	la 25,.LC9@l(25)
	b .L39
.LVL34:
.L38:
	.loc 1 401 0
	lwz 0,0(28)
	addis 31,31,0x1
.LVL35:
	addi 31,31,-1288
.LVL36:
	cmpw 7,0,30
	ble- 7,.L33
.LVL37:
.L39:
	.loc 1 403 0
	lbz 0,0(31)
	.loc 1 401 0
	addi 30,30,1
	.loc 1 403 0
	cmpwi 7,0,0
	beq+ 7,.L38
	.loc 1 405 0
	addi 29,31,56
	li 4,13
	mr 3,29
	.loc 1 401 0
	addis 31,31,0x1
.LVL38:
	.loc 1 405 0
	bl MSG_WriteByte
	.loc 1 406 0
	lwz 0,8(28)
	lwz 4,host_client@l(27)
	mr 3,29
	.loc 1 401 0
	addi 31,31,-1288
	.loc 1 406 0
	subf 4,0,4
	srawi 4,4,3
	mullw 4,4,26
	bl MSG_WriteByte
	.loc 1 407 0
	mr 3,29
	mr 4,25
	bl MSG_WriteString
	.loc 1 408 0
	mr 3,29
	li 4,14
	bl MSG_WriteByte
	.loc 1 409 0
	lwz 0,8(28)
	lwz 4,host_client@l(27)
	mr 3,29
	subf 4,0,4
	srawi 4,4,3
	mullw 4,4,26
	bl MSG_WriteByte
	.loc 1 410 0
	mr 3,29
	li 4,0
	bl MSG_WriteShort
	.loc 1 411 0
	mr 3,29
	li 4,17
	bl MSG_WriteByte
	.loc 1 412 0
	lwz 0,8(28)
	lwz 4,host_client@l(27)
	mr 3,29
	subf 4,0,4
	srawi 4,4,3
	mullw 4,4,26
	bl MSG_WriteByte
	.loc 1 413 0
	mr 3,29
	li 4,0
	bl MSG_WriteByte
.LVL39:
	.loc 1 401 0
	lwz 0,0(28)
	cmpw 7,0,30
	bgt+ 7,.L39
.LVL40:
.L33:
	.loc 1 415 0
	lwz 0,44(1)
	lwz 25,12(1)
	mtlr 0
	lwz 26,16(1)
	lwz 27,20(1)
	lwz 28,24(1)
	lwz 29,28(1)
	lwz 30,32(1)
	lwz 31,36(1)
.LVL41:
	addi 1,1,40
	.cfi_remember_state
.LCFI14:
	.cfi_def_cfa_offset 0
	.cfi_restore 31
	.cfi_restore 30
	.cfi_restore 29
	.cfi_restore 28
	.cfi_restore 27
	.cfi_restore 26
	.cfi_restore 25
	blr
.LVL42:
.L42:
.LCFI15:
	.cfi_restore_state
	.loc 1 371 0
	lwz 9,host_client@l(27)
	lwz 3,16(9)
.LVL43:
	bl NET_CanSendMessage
	cmpwi 7,3,0
	bne- 7,.L43
.L35:
	.loc 1 377 0
	lwz 9,host_client@l(27)
	addis 4,9,0x1
	lwz 0,-1464(4)
	cmpwi 7,0,0
	beq- 7,.L36
	.loc 1 377 0 is_stmt 0 discriminator 1
	lbz 9,1(9)
	cmpwi 7,9,0
	bne- 7,.L44
.L36:
	.loc 1 387 0 is_stmt 1
	lis 3,.LC8@ha
	addi 4,4,-1460
	la 3,.LC8@l(3)
	crxor 6,6,6
	bl Sys_Printf
	b .L34
.L44:
	.loc 1 382 0
	lis 9,sv+3500@ha
	.loc 1 381 0
	lis 31,pr_global_struct@ha
	.loc 1 382 0
	lwz 11,sv+3500@l(9)
	.loc 1 381 0
	lwz 9,pr_global_struct@l(31)
	.loc 1 382 0
	subf 0,11,0
	.loc 1 381 0
	lwz 30,112(9)
.LVL44:
	.loc 1 383 0
	lwz 3,356(9)
	.loc 1 382 0
	stw 0,112(9)
	.loc 1 383 0
	bl PR_ExecuteProgram
.LVL45:
	.loc 1 384 0
	lis 9,host_client@ha
	lwz 11,pr_global_struct@l(31)
	lwz 9,host_client@l(9)
	stw 30,112(11)
	addis 4,9,0x1
	b .L36
.LVL46:
.L43:
	.loc 1 373 0
	lwz 3,host_client@l(27)
	li 4,2
	addi 3,3,56
	bl MSG_WriteByte
	.loc 1 374 0
	lwz 4,host_client@l(27)
	lwz 3,16(4)
	addi 4,4,56
	bl NET_SendMessage
	b .L35
	.cfi_endproc
.LFE45:
	.size	SV_DropClient, .-SV_DropClient
	.align 2
	.globl Host_ShutdownServer
	.type	Host_ShutdownServer, @function
Host_ShutdownServer:
.LFB46:
	.loc 1 425 0
	.cfi_startproc
.LVL47:
	stwu 1,-88(1)
.LCFI16:
	.cfi_def_cfa_offset 88
	mflr 0
	stw 30,72(1)
	.loc 1 432 0
	lis 30,sv@ha
	.cfi_offset 30, -16
	.cfi_register 65, 0
	.loc 1 425 0
	stw 0,92(1)
	.loc 1 432 0
	lbz 0,sv@l(30)
	.cfi_offset 65, 4
	.loc 1 425 0
	stw 25,52(1)
	mr 25,3
	.cfi_offset 25, -36
	.loc 1 432 0
	cmpwi 7,0,0
	.loc 1 425 0
	stfd 31,80(1)
	stw 23,44(1)
	stw 24,48(1)
	stw 26,56(1)
	stw 27,60(1)
	stw 28,64(1)
	stw 29,68(1)
	stw 31,76(1)
	.loc 1 432 0
	beq- 7,.L45
	.cfi_offset 31, -12
	.cfi_offset 29, -20
	.cfi_offset 28, -24
	.cfi_offset 27, -28
	.cfi_offset 26, -32
	.cfi_offset 24, -40
	.cfi_offset 23, -44
	.cfi_offset 63, -8
.LVL48:
.LBB4:
.LBB5:
	.loc 1 438 0
	lis 9,cls@ha
	lwz 0,cls@l(9)
	cmpwi 7,0,2
	.loc 1 435 0
	li 0,0
	stb 0,sv@l(30)
	.loc 1 438 0
	beq- 7,.L62
.LVL49:
.L47:
	.loc 1 442 0
	bl Sys_FloatTime
	lis 23,svs@ha
	fmr 31,1
.LVL50:
	lis 24,host_client@ha
	lis 26,.LC11@ha
	la 31,svs@l(23)
	la 28,host_client@l(24)
	la 26,.LC11@l(26)
.LVL51:
.L53:
	.loc 1 446 0
	lwz 0,0(31)
	.loc 1 445 0
	li 27,0
	.loc 1 446 0
	lwz 9,8(31)
	cmpwi 7,0,0
	stw 9,0(28)
	ble- 7,.L48
	li 29,0
	b .L51
.LVL52:
.L49:
	lwz 0,0(31)
	addi 29,29,1
.LVL53:
	addis 9,9,0x1
	cmpw 7,29,0
	addi 9,9,-1288
	stw 9,0(28)
	bge- 7,.L48
.LVL54:
.L51:
	.loc 1 448 0
	lbz 0,0(9)
	cmpwi 7,0,0
	beq- 7,.L49
	lwz 0,68(9)
	cmpwi 7,0,0
	beq+ 7,.L49
	.loc 1 450 0
	lwz 3,16(9)
	bl NET_CanSendMessage
	cmpwi 7,3,0
	beq- 7,.L50
	.loc 1 452 0
	lwz 4,0(28)
	.loc 1 446 0
	addi 29,29,1
	.loc 1 452 0
	lwz 3,16(4)
	addi 4,4,56
	bl NET_SendMessage
	.loc 1 453 0
	lwz 3,0(28)
	addi 3,3,56
	bl SZ_Clear
	.loc 1 446 0
	lwz 0,0(31)
	.loc 1 453 0
	lwz 9,0(28)
.LVL55:
	.loc 1 446 0
	cmpw 7,29,0
	addis 9,9,0x1
	addi 9,9,-1288
	stw 9,0(28)
	blt+ 7,.L51
.LVL56:
.L48:
	.loc 1 462 0
	bl Sys_FloatTime
	lfs 0,0(26)
	fsub 1,1,31
	fcmpu 7,1,0
	bgt- 7,.L52
	.loc 1 465 0
	cmpwi 7,27,0
	bne+ 7,.L53
.L52:
	.loc 1 468 0
	addi 0,1,8
	.loc 1 471 0
	li 4,2
	.loc 1 468 0
	stw 0,16(1)
	.loc 1 469 0
	li 0,4
	.loc 1 471 0
	addi 3,1,12
	.loc 1 469 0
	stw 0,20(1)
	.loc 1 470 0
	li 0,0
	stw 0,24(1)
	.loc 1 471 0
	bl MSG_WriteByte
	.loc 1 472 0
	li 4,5
	addi 3,1,12
	bl NET_SendToAll
.LVL57:
	.loc 1 473 0
	mr. 4,3
	bne- 0,.L63
.LVL58:
.L54:
	.loc 1 476 0
	lwz 0,svs@l(23)
	lwz 9,8(31)
	cmpwi 7,0,0
	stw 9,host_client@l(24)
	ble- 7,.L55
	li 29,0
	b .L57
.LVL59:
.L56:
	lwz 0,0(31)
	addis 9,9,0x1
	addi 9,9,-1288
	cmpw 7,29,0
	stw 9,0(28)
	bge- 7,.L55
.LVL60:
.L57:
	.loc 1 477 0
	lbz 0,0(9)
	.loc 1 476 0
	addi 29,29,1
	.loc 1 477 0
	cmpwi 7,0,0
	beq+ 7,.L56
	.loc 1 478 0
	mr 3,25
	bl SV_DropClient
	.loc 1 476 0
	lwz 0,0(31)
	.loc 1 478 0
	lwz 9,0(28)
.LVL61:
	.loc 1 476 0
	cmpw 7,29,0
	addis 9,9,0x1
	addi 9,9,-1288
	stw 9,0(28)
	blt+ 7,.L57
.LVL62:
.L55:
	.loc 1 483 0
	lis 5,0x1
	li 4,0
	ori 5,5,3560
	la 3,sv@l(30)
	bl memset
	.loc 1 484 0
	lwz 0,4(31)
	lwz 3,8(31)
	li 4,0
	slwi 9,0,2
	slwi 5,0,8
	subf 5,9,5
	subf 5,0,5
	slwi 5,5,5
	subf 5,0,5
	slwi 5,5,3
	bl memset
.LVL63:
.L45:
.LBE5:
.LBE4:
	.loc 1 485 0
	lwz 0,92(1)
	lwz 23,44(1)
	mtlr 0
	lwz 24,48(1)
	lwz 25,52(1)
	lwz 26,56(1)
	lwz 27,60(1)
	lwz 28,64(1)
	lwz 29,68(1)
	lwz 30,72(1)
	lwz 31,76(1)
	lfd 31,80(1)
	addi 1,1,88
	.cfi_remember_state
.LCFI17:
	.cfi_def_cfa_offset 0
	.cfi_restore 63
	.cfi_restore 31
	.cfi_restore 30
	.cfi_restore 29
	.cfi_restore 28
	.cfi_restore 27
	.cfi_restore 26
	.cfi_restore 25
	.cfi_restore 24
	.cfi_restore 23
	blr
.LVL64:
.L50:
.LCFI18:
	.cfi_restore_state
.LBB7:
.LBB6:
	.loc 1 457 0
	lwz 9,0(28)
	.loc 1 458 0
	addi 27,27,1
	.loc 1 457 0
	lwz 3,16(9)
	bl NET_GetMessage
.LVL65:
	.loc 1 458 0
	lwz 9,0(28)
	b .L49
.LVL66:
.L63:
	.loc 1 474 0
	lis 3,.LC12@ha
.LVL67:
	la 3,.LC12@l(3)
	crxor 6,6,6
	bl Con_Printf
.LVL68:
	b .L54
.LVL69:
.L62:
	.loc 1 439 0
	bl CL_Disconnect
.LVL70:
	b .L47
.LBE6:
.LBE7:
	.cfi_endproc
.LFE46:
	.size	Host_ShutdownServer, .-Host_ShutdownServer
	.align 2
	.globl Host_Error
	.type	Host_Error, @function
Host_Error:
.LFB39:
	.loc 1 138 0
	.cfi_startproc
.LVL71:
	mflr 0
	stwu 1,-1160(1)
.LCFI19:
	.cfi_def_cfa_offset 1160
	.cfi_register 65, 0
	stw 29,1148(1)
	stw 0,1164(1)
	stw 30,1152(1)
	stw 31,1156(1)
	stw 4,1052(1)
	stw 5,1056(1)
	stw 6,1060(1)
	stw 7,1064(1)
	stw 8,1068(1)
	stw 9,1072(1)
	stw 10,1076(1)
	bne- 1,.L65
	.cfi_offset 31, -4
	.cfi_offset 30, -8
	.cfi_offset 65, 4
	.cfi_offset 29, -12
	.loc 1 138 0
	stfd 1,1080(1)
	stfd 2,1088(1)
	stfd 3,1096(1)
	stfd 4,1104(1)
	stfd 5,1112(1)
	stfd 6,1120(1)
	stfd 7,1128(1)
	stfd 8,1136(1)
.L65:
	.loc 1 143 0
	lis 31,.LANCHOR1@ha
	.loc 1 138 0
	mr 29,3
	.loc 1 143 0
	lbz 0,.LANCHOR1@l(31)
	cmpwi 7,0,0
	bne- 7,.L69
.LVL72:
.L66:
	.loc 1 145 0
	li 30,1
	stb 30,.LANCHOR1@l(31)
	.loc 1 147 0
	bl SCR_EndLoadingPlaque
	.loc 1 149 0
	li 0,0
	.loc 1 150 0
	mr 4,29
	.loc 1 149 0
	stb 0,9(1)
	.loc 1 152 0
	lis 29,.LC14@ha
.LVL73:
	.loc 1 149 0
	addi 0,1,1168
	.loc 1 150 0
	addi 5,1,8
	.loc 1 149 0
	stw 0,12(1)
	.loc 1 150 0
	addi 3,1,20
	.loc 1 149 0
	addi 0,1,1048
	.loc 1 152 0
	la 29,.LC14@l(29)
	.loc 1 149 0
	stw 0,16(1)
	stb 30,8(1)
	.loc 1 150 0
	bl vsprintf
.LVL74:
	.loc 1 152 0
	mr 3,29
	addi 4,1,20
	crxor 6,6,6
	bl Con_Printf
	.loc 1 154 0
	lis 9,sv@ha
	lbz 0,sv@l(9)
	cmpwi 7,0,0
	bne- 7,.L70
.L67:
	.loc 1 157 0
	lis 30,cls@ha
	lwz 0,cls@l(30)
	cmpwi 7,0,0
	beq- 7,.L71
.L68:
	.loc 1 160 0
	bl CL_Disconnect
	.loc 1 161 0
	la 30,cls@l(30)
	li 0,-1
	.loc 1 165 0
	lis 3,host_abortserver@ha
	.loc 1 161 0
	stw 0,2116(30)
	.loc 1 165 0
	la 3,host_abortserver@l(3)
	.loc 1 163 0
	li 0,0
	.loc 1 165 0
	li 4,1
	.loc 1 163 0
	stb 0,.LANCHOR1@l(31)
	.loc 1 165 0
	bl longjmp
.LVL75:
.L69:
	.loc 1 144 0
	lis 3,.LC13@ha
.LVL76:
	la 3,.LC13@l(3)
	crxor 6,6,6
	bl Sys_Error
	b .L66
.LVL77:
.L71:
	.loc 1 158 0
	mr 3,29
	addi 4,1,20
	crxor 6,6,6
	bl Sys_Error
	b .L68
.L70:
	.loc 1 155 0
	li 3,0
	bl Host_ShutdownServer
	b .L67
	.cfi_endproc
.LFE39:
	.size	Host_Error, .-Host_Error
	.align 2
	.globl Host_EndGame
	.type	Host_EndGame, @function
Host_EndGame:
.LFB38:
	.loc 1 107 0
	.cfi_startproc
.LVL78:
	mflr 0
	stwu 1,-1152(1)
.LCFI20:
	.cfi_def_cfa_offset 1152
	.cfi_register 65, 0
	stw 30,1144(1)
	stw 0,1156(1)
	stw 31,1148(1)
	stw 4,1052(1)
	stw 5,1056(1)
	stw 6,1060(1)
	stw 7,1064(1)
	stw 8,1068(1)
	stw 9,1072(1)
	stw 10,1076(1)
	bne- 1,.L73
	.cfi_offset 31, -4
	.cfi_offset 65, 4
	.cfi_offset 30, -8
	.loc 1 107 0
	stfd 1,1080(1)
	stfd 2,1088(1)
	stfd 3,1096(1)
	stfd 4,1104(1)
	stfd 5,1112(1)
	stfd 6,1120(1)
	stfd 7,1128(1)
	stfd 8,1136(1)
.L73:
	.loc 1 111 0
	li 0,1
	.loc 1 114 0
	lis 30,.LC15@ha
	.loc 1 111 0
	stb 0,8(1)
	li 0,0
	stb 0,9(1)
	addi 0,1,1160
	.loc 1 107 0
	mr 4,3
	.loc 1 112 0
	addi 5,1,8
	.loc 1 111 0
	stw 0,12(1)
	.loc 1 112 0
	addi 3,1,20
.LVL79:
	.loc 1 111 0
	addi 0,1,1048
	.loc 1 114 0
	la 30,.LC15@l(30)
	.loc 1 111 0
	stw 0,16(1)
	.loc 1 112 0
	bl vsprintf
.LVL80:
	.loc 1 114 0
	mr 3,30
	addi 4,1,20
	crxor 6,6,6
	bl Con_DPrintf
	.loc 1 116 0
	lis 9,sv@ha
	lbz 0,sv@l(9)
	cmpwi 7,0,0
	bne- 7,.L78
.L74:
	.loc 1 119 0
	lis 31,cls@ha
	lwz 0,cls@l(31)
	cmpwi 7,0,0
	beq- 7,.L79
.L75:
	.loc 1 122 0
	la 31,cls@l(31)
	lwz 0,2116(31)
	cmpwi 7,0,-1
	beq- 7,.L76
	.loc 1 123 0
	bl CL_NextDemo
.L77:
	.loc 1 127 0
	lis 3,host_abortserver@ha
	li 4,1
	la 3,host_abortserver@l(3)
	bl longjmp
.L78:
	.loc 1 117 0
	li 3,0
	bl Host_ShutdownServer
	b .L74
.L79:
	.loc 1 120 0
	mr 3,30
	addi 4,1,20
	crxor 6,6,6
	bl Sys_Error
	b .L75
.L76:
	.loc 1 125 0
	bl CL_Disconnect
	b .L77
	.cfi_endproc
.LFE38:
	.size	Host_EndGame, .-Host_EndGame
	.align 2
	.globl Host_ClearMemory
	.type	Host_ClearMemory, @function
Host_ClearMemory:
.LFB47:
	.loc 1 497 0
	.cfi_startproc
	mflr 0
	stwu 1,-32(1)
.LCFI21:
	.cfi_def_cfa_offset 32
	.cfi_register 65, 0
	.loc 1 498 0
	lis 3,.LC16@ha
	la 3,.LC16@l(3)
	.loc 1 497 0
	stw 27,12(1)
	stw 0,36(1)
	stw 28,16(1)
	stw 29,20(1)
	stw 30,24(1)
	stw 31,28(1)
	.loc 1 498 0
	.cfi_offset 31, -4
	.cfi_offset 30, -8
	.cfi_offset 29, -12
	.cfi_offset 28, -16
	.cfi_offset 65, 4
	.cfi_offset 27, -20
	crxor 6,6,6
	bl Con_DPrintf
	.loc 1 499 0
	bl D_FlushCaches
	.loc 1 501 0
	bl Mod_UncacheAll
	.loc 1 502 0
	lis 9,host_hunklevel@ha
	lwz 3,host_hunklevel@l(9)
	cmpwi 7,3,0
	bne- 7,.L87
.L81:
	.loc 1 505 0
	lis 9,cls@ha
	li 30,0
	la 9,cls@l(9)
	.loc 1 506 0
	lis 5,0x1
	.loc 1 505 0
	stw 30,2272(9)
	.loc 1 506 0
	lis 3,sv@ha
	li 4,0
	ori 5,5,3560
	la 3,sv@l(3)
	.loc 1 511 0
	lis 31,.LANCHOR0@ha
	.loc 1 506 0
	bl memset
	.loc 1 507 0
	lis 3,cl@ha
	la 3,cl@l(3)
	li 4,0
	li 5,3304
	.loc 1 511 0
	la 31,.LANCHOR0@l(31)
	.loc 1 507 0
	bl memset
	.loc 1 511 0
	lwz 27,340(31)
	.loc 1 510 0
	lis 9,lightmap_textures@ha
	.loc 1 511 0
	cmpwi 7,27,0
	.loc 1 510 0
	stw 30,lightmap_textures@l(9)
	.loc 1 511 0
	blt- 7,.L82
.LBB8:
	.loc 1 513 0
	lis 30,texture_extension_number@ha
	lwz 28,texture_extension_number@l(30)
	subf 28,27,28
.LVL81:
	.loc 1 514 0
	slwi 3,28,2
	bl malloc
	.loc 1 515 0
	lwz 5,texture_extension_number@l(30)
	.loc 1 514 0
	mr 29,3
.LVL82:
	.loc 1 515 0
	cmpw 7,5,27
	ble- 7,.L83
.LBE8:
	.loc 1 496 0
	subf 0,27,5
.LBB9:
	addi 11,3,-4
.LBE9:
	mtctr 0
	mr 9,27
.LVL83:
.L84:
.LBB10:
	.loc 1 516 0 discriminator 2
	stwu 9,4(11)
	.loc 1 515 0 discriminator 2
	addi 9,9,1
.LVL84:
	bdnz .L84
.LVL85:
.L83:
	.loc 1 518 0
	lis 3,.LC17@ha
.LVL86:
	mr 4,27
	la 3,.LC17@l(3)
	crxor 6,6,6
	bl Con_Printf
	.loc 1 519 0
	mr 3,28
	mr 4,29
	bl glDeleteTextures
	.loc 1 520 0
	lwz 9,340(31)
	.loc 1 521 0
	lwz 0,344(31)
	.loc 1 522 0
	mr 3,29
	.loc 1 520 0
	stw 9,texture_extension_number@l(30)
	.loc 1 521 0
	lis 9,numgltextures@ha
	stw 0,numgltextures@l(9)
	.loc 1 522 0
	bl free
.LBE10:
	.loc 1 529 0
	lwz 0,36(1)
	lwz 27,12(1)
	mtlr 0
	lwz 28,16(1)
.LVL87:
	lwz 29,20(1)
.LVL88:
	lwz 30,24(1)
	lwz 31,28(1)
	addi 1,1,32
	.cfi_remember_state
.LCFI22:
	.cfi_def_cfa_offset 0
	.cfi_restore 31
	.cfi_restore 30
	.cfi_restore 29
	.cfi_restore 28
	.cfi_restore 27
	blr
.L87:
.LCFI23:
	.cfi_restore_state
	.loc 1 503 0
	bl Hunk_FreeToLowMark
	b .L81
.L82:
	.loc 1 524 0
	lis 9,texture_extension_number@ha
	.loc 1 526 0
	lis 3,.LC18@ha
	.loc 1 524 0
	lwz 0,texture_extension_number@l(9)
	.loc 1 525 0
	lis 9,numgltextures@ha
	lwz 9,numgltextures@l(9)
	.loc 1 526 0
	la 3,.LC18@l(3)
	.loc 1 524 0
	stw 0,340(31)
	.loc 1 526 0
	mr 4,0
	.loc 1 525 0
	stw 9,344(31)
	.loc 1 526 0
	crxor 6,6,6
	bl Con_DPrintf
	.loc 1 529 0
	lwz 0,36(1)
	lwz 27,12(1)
	mtlr 0
	lwz 28,16(1)
	lwz 29,20(1)
	lwz 30,24(1)
	lwz 31,28(1)
	addi 1,1,32
	.cfi_restore 27
	.cfi_restore 28
	.cfi_restore 29
	.cfi_restore 30
	.cfi_restore 31
.LCFI24:
	.cfi_def_cfa_offset 0
	blr
	.cfi_endproc
.LFE47:
	.size	Host_ClearMemory, .-Host_ClearMemory
	.align 2
	.globl Host_FilterTime
	.type	Host_FilterTime, @function
Host_FilterTime:
.LFB48:
	.loc 1 542 0
	.cfi_startproc
.LVL89:
	mflr 0
	stwu 1,-24(1)
.LCFI25:
	.cfi_def_cfa_offset 24
	.cfi_register 65, 0
	stw 31,20(1)
	.loc 1 545 0
	lis 31,.LANCHOR0@ha
	.cfi_offset 31, -4
	.loc 1 542 0
	stw 0,28(1)
	.loc 1 545 0
	la 31,.LANCHOR0@l(31)
	.loc 1 542 0
	stw 30,16(1)
	.loc 1 545 0
	lis 30,.LC5@ha
	.cfi_offset 30, -8
	.cfi_offset 65, 4
	.loc 1 542 0
	stw 29,12(1)
	.loc 1 543 0
	lis 29,realtime@ha
	.cfi_offset 29, -12
	.loc 1 545 0
	lfs 13,.LC5@l(30)
	lfs 12,312(31)
	.loc 1 543 0
	lfd 0,realtime@l(29)
	.loc 1 545 0
	fcmpu 7,12,13
	.loc 1 543 0
	fadd 1,1,0
.LVL90:
	stfd 1,realtime@l(29)
	.loc 1 545 0
	blt- 7,.L112
.L89:
	.loc 1 546 0
	lis 9,cls+2250@ha
	lbz 0,cls+2250@l(9)
	cmpwi 7,0,0
	beq- 7,.L91
	.loc 1 550 0
	lfs 13,292(31)
	.loc 1 546 0
	lis 9,oldrealtime@ha
	.loc 1 550 0
	lfs 12,.LC5@l(30)
	.loc 1 551 0
	lis 11,host_frametime@ha
	.loc 1 546 0
	lfd 0,oldrealtime@l(9)
	.loc 1 550 0
	fcmpu 7,13,12
	.loc 1 546 0
	fsub 0,1,0
	.loc 1 550 0
	bne- 7,.L94
.L110:
	.loc 1 557 0
	lis 10,.LC6@ha
	.loc 1 553 0
	stfd 0,host_frametime@l(11)
	.loc 1 557 0
	lfs 13,.LC6@l(10)
	lfs 0,12(31)
	.loc 1 555 0
	stfd 1,oldrealtime@l(9)
	.loc 1 557 0
	fcmpu 7,0,13
	bgt- 7,.L113
.L107:
	.loc 1 561 0
	lis 9,.LC21@ha
	lfd 0,host_frametime@l(11)
	lfd 13,.LC21@l(9)
	lis 9,host_frametime@ha
	fcmpu 7,0,13
	bgt- 7,.L111
	.loc 1 563 0
	lis 11,.LC22@ha
	.loc 1 567 0
	li 3,1
	.loc 1 563 0
	lfd 13,.LC22@l(11)
	fcmpu 7,0,13
	bnl- 7,.L93
.L111:
	.loc 1 564 0
	stfd 13,host_frametime@l(9)
	.loc 1 567 0
	li 3,1
.L93:
	.loc 1 568 0
	lwz 0,28(1)
	lwz 29,12(1)
	mtlr 0
	lwz 30,16(1)
	lwz 31,20(1)
	addi 1,1,24
	.cfi_remember_state
.LCFI26:
	.cfi_def_cfa_offset 0
	.cfi_restore 31
	.cfi_restore 30
	.cfi_restore 29
	blr
.L91:
.LCFI27:
	.cfi_restore_state
	.loc 1 546 0 discriminator 1
	lfs 0,312(31)
	lis 9,oldrealtime@ha
	lfs 13,.LC5@l(30)
	.loc 1 548 0 discriminator 1
	li 3,0
	.loc 1 546 0 discriminator 1
	fdiv 13,13,0
	lfd 0,oldrealtime@l(9)
	fsub 0,1,0
	fcmpu 7,0,13
	blt- 7,.L93
	.loc 1 550 0
	lfs 13,292(31)
	.loc 1 551 0
	lis 11,host_frametime@ha
	.loc 1 550 0
	lfs 12,.LC5@l(30)
	fcmpu 7,13,12
	beq- 7,.L110
.L94:
	.loc 1 553 0
	fmul 0,13,0
	.loc 1 557 0
	lis 10,.LC6@ha
	lfs 13,.LC6@l(10)
	.loc 1 555 0
	stfd 1,oldrealtime@l(9)
	.loc 1 553 0
	stfd 0,host_frametime@l(11)
	.loc 1 557 0
	lfs 0,12(31)
	fcmpu 7,0,13
	bng+ 7,.L107
.L113:
	.loc 1 568 0
	lwz 0,28(1)
	.loc 1 567 0
	li 3,1
	.loc 1 568 0
	lwz 29,12(1)
	mtlr 0
	lwz 30,16(1)
	lwz 31,20(1)
	.loc 1 558 0
	stfd 0,host_frametime@l(11)
	.loc 1 568 0
	addi 1,1,24
	.cfi_remember_state
	.cfi_restore 29
	.cfi_restore 30
	.cfi_restore 31
.LCFI28:
	.cfi_def_cfa_offset 0
	blr
.L112:
.LCFI29:
	.cfi_restore_state
	.loc 1 545 0 discriminator 1
	lis 9,.LC20@ha
	lis 3,.LC19@ha
	lfs 1,.LC20@l(9)
	la 3,.LC19@l(3)
	bl Cvar_SetValue
	lfd 1,realtime@l(29)
	b .L89
	.cfi_endproc
.LFE48:
	.size	Host_FilterTime, .-Host_FilterTime
	.align 2
	.globl Host_GetConsoleCommands
	.type	Host_GetConsoleCommands, @function
Host_GetConsoleCommands:
.LFB49:
	.loc 1 579 0
	.cfi_startproc
	mflr 0
	stwu 1,-8(1)
.LCFI30:
	.cfi_def_cfa_offset 8
	.cfi_register 65, 0
	stw 0,12(1)
	b .L116
	.cfi_offset 65, 4
.LVL91:
.L117:
	.loc 1 587 0
	bl Cbuf_AddText
.LVL92:
.L116:
	.loc 1 584 0
	bl Sys_ConsoleInput
.LVL93:
	.loc 1 585 0
	cmpwi 7,3,0
	bne+ 7,.L117
	.loc 1 589 0
	lwz 0,12(1)
	addi 1,1,8
.LCFI31:
	.cfi_def_cfa_offset 0
	mtlr 0
	blr
	.cfi_endproc
.LFE49:
	.size	Host_GetConsoleCommands, .-Host_GetConsoleCommands
	.align 2
	.globl Host_ServerFrame
	.type	Host_ServerFrame, @function
Host_ServerFrame:
.LFB50:
	.loc 1 647 0
	.cfi_startproc
	.loc 1 649 0
	lis 9,host_frametime@ha
	.loc 1 647 0
	mflr 0
	.loc 1 649 0
	lfd 0,host_frametime@l(9)
	lis 9,pr_global_struct@ha
	.loc 1 647 0
	stwu 1,-8(1)
.LCFI32:
	.cfi_def_cfa_offset 8
	.cfi_register 65, 0
	.loc 1 649 0
	frsp 0,0
	lwz 9,pr_global_struct@l(9)
	.loc 1 647 0
	stw 0,12(1)
	.loc 1 649 0
	stfs 0,128(9)
	.loc 1 652 0
	.cfi_offset 65, 4
	bl SV_ClearDatagram
	.loc 1 655 0
	bl SV_CheckForNewClients
	.loc 1 658 0
	bl SV_RunClients
	.loc 1 662 0
	lis 9,sv+1@ha
	lbz 0,sv+1@l(9)
	cmpwi 7,0,0
	bne- 7,.L119
	.loc 1 662 0 is_stmt 0 discriminator 1
	lis 9,svs@ha
	lwz 0,svs@l(9)
	cmpwi 7,0,1
	ble- 7,.L121
	.loc 1 663 0 is_stmt 1
	bl SV_Physics
.L119:
	.loc 1 666 0
	bl SV_SendClientMessages
	.loc 1 667 0
	lwz 0,12(1)
	addi 1,1,8
	.cfi_remember_state
.LCFI33:
	.cfi_def_cfa_offset 0
	mtlr 0
	blr
.L121:
.LCFI34:
	.cfi_restore_state
	.loc 1 662 0 discriminator 1
	lis 9,key_dest@ha
	lwz 0,key_dest@l(9)
	cmpwi 7,0,0
	bne- 7,.L119
	.loc 1 663 0
	bl SV_Physics
	b .L119
	.cfi_endproc
.LFE50:
	.size	Host_ServerFrame, .-Host_ServerFrame
	.align 2
	.globl _Host_Frame
	.type	_Host_Frame, @function
_Host_Frame:
.LFB51:
	.loc 1 680 0
	.cfi_startproc
.LVL94:
	mflr 0
	stwu 1,-40(1)
.LCFI35:
	.cfi_def_cfa_offset 40
	.cfi_register 65, 0
	.loc 1 686 0
	lis 3,host_abortserver@ha
	la 3,host_abortserver@l(3)
	.loc 1 680 0
	stfd 31,32(1)
	stw 0,44(1)
	stw 30,24(1)
	stw 31,28(1)
	.loc 1 680 0
	stfs 1,20(1)
	.loc 1 686 0
	.cfi_offset 31, -12
	.cfi_offset 30, -16
	.cfi_offset 65, 4
	.cfi_offset 63, -8
	bl setjmp
.LVL95:
	cmpwi 7,3,0
	beq- 7,.L133
.L122:
	.loc 1 778 0
	lwz 0,44(1)
	lwz 30,24(1)
	mtlr 0
	lwz 31,28(1)
	lfd 31,32(1)
	addi 1,1,40
	.cfi_remember_state
.LCFI36:
	.cfi_def_cfa_offset 0
	.cfi_restore 63
	.cfi_restore 31
	.cfi_restore 30
	blr
.L133:
.LCFI37:
	.cfi_restore_state
	.loc 1 690 0
	bl rand
	.loc 1 693 0
	lfs 1,20(1)
	bl Host_FilterTime
	cmpwi 7,3,0
	beq+ 7,.L122
	.loc 1 697 0
	bl Sys_SendKeyEvents
	.loc 1 700 0
	bl IN_Commands
	.loc 1 703 0
	bl Cbuf_Execute
	.loc 1 705 0
	bl NET_Poll
	.loc 1 708 0
	lis 9,sv@ha
	lbz 0,sv@l(9)
	cmpwi 7,0,0
	bne- 7,.L134
.L124:
	.loc 1 720 0
	lis 31,sv@ha
	.loc 1 718 0
	bl Host_GetConsoleCommands
	.loc 1 720 0
	lbz 0,sv@l(31)
	cmpwi 7,0,0
	bne- 7,.L135
.L125:
	.loc 1 732 0
	bl CL_SendCmd
.L126:
	.loc 1 737 0
	lis 11,cls@ha
	.loc 1 734 0
	lis 9,host_time@ha
	.loc 1 737 0
	lwz 0,cls@l(11)
	.loc 1 734 0
	lis 11,host_frametime@ha
	lfd 13,host_time@l(9)
	lfd 0,host_frametime@l(11)
	.loc 1 737 0
	cmpwi 7,0,2
	.loc 1 734 0
	fadd 0,13,0
	stfd 0,host_time@l(9)
	.loc 1 737 0
	beq- 7,.L136
.L127:
	.loc 1 743 0
	lis 9,.LANCHOR0+32@ha
	lfs 13,.LANCHOR0+32@l(9)
	lis 9,.LC6@ha
	lfs 0,.LC6@l(9)
	fcmpu 7,13,0
	bne- 7,.L137
.L128:
	.loc 1 746 0
	bl SCR_UpdateScreen
	.loc 1 748 0
	lis 9,.LANCHOR0+32@ha
	lfs 13,.LANCHOR0+32@l(9)
	lis 9,.LC6@ha
	lfs 0,.LC6@l(9)
	fcmpu 7,13,0
	bne- 7,.L138
.L129:
	.loc 1 752 0
	lis 9,cls+2272@ha
	lwz 0,cls+2272@l(9)
	cmpwi 7,0,4
	beq- 7,.L139
	.loc 1 758 0
	lis 3,vec3_origin@ha
	la 3,vec3_origin@l(3)
	mr 4,3
	mr 5,3
	mr 6,3
	bl S_Update
.L131:
	.loc 1 760 0
	bl CDAudio_Update
	.loc 1 762 0
	lis 9,.LANCHOR0+32@ha
	lfs 13,.LANCHOR0+32@l(9)
	lis 9,.LC6@ha
	lfs 0,.LC6@l(9)
	fcmpu 7,13,0
	bne- 7,.L140
.L132:
	.loc 1 776 0
	lis 9,fps_count@ha
	.loc 1 773 0
	lis 11,host_framecount@ha
	.loc 1 776 0
	lwz 8,fps_count@l(9)
	.loc 1 773 0
	lwz 10,host_framecount@l(11)
	.loc 1 776 0
	addi 0,8,1
	.loc 1 778 0
	lwz 30,24(1)
	.loc 1 776 0
	stw 0,fps_count@l(9)
	.loc 1 773 0
	addi 10,10,1
	.loc 1 778 0
	lwz 0,44(1)
	lwz 31,28(1)
	mtlr 0
	lfd 31,32(1)
	.loc 1 773 0
	stw 10,host_framecount@l(11)
	.loc 1 778 0
	addi 1,1,40
	.cfi_remember_state
	.cfi_restore 30
	.cfi_restore 31
	.cfi_restore 63
.LCFI38:
	.cfi_def_cfa_offset 0
	blr
.L135:
.LCFI39:
	.cfi_restore_state
	.loc 1 721 0
	bl Host_ServerFrame
	.loc 1 731 0
	lbz 0,sv@l(31)
	cmpwi 7,0,0
	bne+ 7,.L126
	b .L125
.L134:
	.loc 1 709 0
	bl CL_SendCmd
	b .L124
.L140:
	.loc 1 764 0
	lis 31,.LANCHOR1@ha
	lis 9,.LC24@ha
	la 31,.LANCHOR1@l(31)
	lfs 31,.LC24@l(9)
	lfd 13,8(31)
	addi 9,1,8
	lfd 0,24(31)
	fsub 0,13,0
	fmul 0,0,31
	fctiwz 0,0
	stfiwx 0,0,9
	lwz 30,8(1)
.LVL96:
	.loc 1 765 0
	bl Sys_FloatTime
.LVL97:
	.loc 1 766 0
	lfd 0,16(31)
	.loc 1 767 0
	addi 9,1,16
	.loc 1 766 0
	lfd 12,8(31)
	.loc 1 768 0
	lis 3,.LC25@ha
	.loc 1 767 0
	fsub 13,1,0
	.loc 1 768 0
	la 3,.LC25@l(3)
	.loc 1 766 0
	fsub 0,0,12
	.loc 1 768 0
	mr 5,30
	.loc 1 767 0
	fmul 13,13,31
	.loc 1 766 0
	fmul 31,0,31
	.loc 1 767 0
	fctiwz 13,13
	.loc 1 766 0
	fctiwz 31,31
	.loc 1 767 0
	stfiwx 13,0,9
	.loc 1 766 0
	addi 9,1,12
	stfiwx 31,0,9
	lwz 6,12(1)
.LVL98:
	.loc 1 767 0
	lwz 0,16(1)
.LVL99:
	.loc 1 769 0
	add 4,30,6
	.loc 1 765 0
	stfd 1,24(31)
	.loc 1 768 0
	mr 7,0
	add 4,4,0
	crxor 6,6,6
	bl Con_Printf
.LVL100:
	b .L132
.LVL101:
.L138:
	.loc 1 749 0
	bl Sys_FloatTime
	lis 9,.LANCHOR1+16@ha
	stfd 1,.LANCHOR1+16@l(9)
	b .L129
.L137:
	.loc 1 744 0
	bl Sys_FloatTime
	lis 9,.LANCHOR1+8@ha
	stfd 1,.LANCHOR1+8@l(9)
	b .L128
.L139:
	.loc 1 754 0
	lis 3,r_origin@ha
	lis 4,vpn@ha
	lis 5,vright@ha
	lis 6,vup@ha
	la 3,r_origin@l(3)
	la 4,vpn@l(4)
	la 5,vright@l(5)
	la 6,vup@l(6)
	bl S_Update
	.loc 1 755 0
	bl CL_DecayLights
	b .L131
.L136:
	.loc 1 739 0
	bl CL_ReadFromServer
	b .L127
	.cfi_endproc
.LFE51:
	.size	_Host_Frame, .-_Host_Frame
	.align 2
	.globl Host_Frame
	.type	Host_Frame, @function
Host_Frame:
.LFB52:
	.loc 1 781 0
	.cfi_startproc
.LVL102:
	.loc 1 787 0
	lis 9,.LANCHOR0+72@ha
	.loc 1 781 0
	mflr 0
	.loc 1 787 0
	lfs 13,.LANCHOR0+72@l(9)
	lis 9,.LC6@ha
	lfs 0,.LC6@l(9)
	.loc 1 781 0
	stwu 1,-40(1)
.LCFI40:
	.cfi_def_cfa_offset 40
	.cfi_register 65, 0
	.loc 1 787 0
	fcmpu 7,13,0
	.loc 1 781 0
	stfd 31,32(1)
	fmr 31,1
	.cfi_offset 63, -8
	stw 0,44(1)
	stfd 30,24(1)
	.loc 1 787 0
	beq- 7,.L149
	.cfi_offset 62, -16
	.cfi_offset 65, 4
	.loc 1 793 0
	bl Sys_FloatTime
.LVL103:
	fmr 30,1
.LVL104:
	.loc 1 794 0
	fmr 1,31
.LVL105:
	bl _Host_Frame
	.loc 1 795 0
	bl Sys_FloatTime
.LVL106:
	.loc 1 797 0
	lis 9,.LANCHOR1@ha
	la 9,.LANCHOR1@l(9)
	fsub 30,1,30
.LVL107:
	.loc 1 798 0
	lwz 11,40(9)
	.loc 1 797 0
	lfd 0,32(9)
	.loc 1 798 0
	addi 0,11,1
	.loc 1 800 0
	cmpwi 7,0,999
	.loc 1 797 0
	fadd 30,30,0
	.loc 1 798 0
	stw 0,40(9)
	.loc 1 797 0
	stfd 30,32(9)
	.loc 1 800 0
	ble- 7,.L141
	.loc 1 803 0
	xoris 0,0,0x8000
	lis 11,.LC24@ha
	stw 0,12(1)
	lis 0,0x4330
	stw 0,8(1)
	lis 10,.LC27@ha
	lfs 0,.LC24@l(11)
	.loc 1 807 0
	lis 11,svs@ha
	.loc 1 803 0
	lfd 13,8(1)
	.loc 1 806 0
	li 4,0
	.loc 1 803 0
	fmul 30,30,0
	lfs 0,.LC27@l(10)
	.loc 1 804 0
	li 10,0
	.loc 1 807 0
	lwz 0,svs@l(11)
	.loc 1 803 0
	fsub 0,13,0
	.loc 1 804 0
	stw 10,40(9)
	.loc 1 805 0
	lis 10,.LC28@ha
	.loc 1 807 0
	cmpwi 7,0,0
	la 11,svs@l(11)
	.loc 1 803 0
	fdiv 30,30,0
	.loc 1 805 0
	lfd 0,.LC28@l(10)
	stfd 0,32(9)
	.loc 1 803 0
	addi 9,1,16
	fctiwz 30,30
	stfiwx 30,0,9
	lwz 5,16(1)
.LVL108:
	.loc 1 807 0
	ble- 7,.L144
	lwz 9,8(11)
.LVL109:
	mtctr 0
.LVL110:
.L146:
	.loc 1 809 0
	lbz 0,0(9)
	.loc 1 807 0
	addis 9,9,0x1
	addi 9,9,-1288
	.loc 1 809 0
	cmpwi 7,0,0
	beq- 7,.L145
	.loc 1 810 0
	addi 4,4,1
.LVL111:
.L145:
	.loc 1 807 0
	bdnz .L146
.LVL112:
.L144:
	.loc 1 813 0
	lis 3,.LC29@ha
	la 3,.LC29@l(3)
	crxor 6,6,6
	bl Con_Printf
.LVL113:
.L141:
	.loc 1 814 0
	lwz 0,44(1)
	lfd 30,24(1)
	mtlr 0
	lfd 31,32(1)
.LVL114:
	addi 1,1,40
	.cfi_remember_state
.LCFI41:
	.cfi_def_cfa_offset 0
	.cfi_restore 63
	.cfi_restore 62
	blr
.LVL115:
.L149:
.LCFI42:
	.cfi_restore_state
	lwz 0,44(1)
	lfd 30,24(1)
	lfd 31,32(1)
	mtlr 0
	addi 1,1,40
.LCFI43:
	.cfi_def_cfa_offset 0
	.cfi_restore 63
	.cfi_restore 62
	.loc 1 789 0
	b _Host_Frame
.LVL116:
	.cfi_endproc
.LFE52:
	.size	Host_Frame, .-Host_Frame
	.align 2
	.globl Host_InitVCR
	.type	Host_InitVCR, @function
Host_InitVCR:
.LFB53:
	.loc 1 821 0
	.cfi_startproc
.LVL117:
	stwu 1,-56(1)
.LCFI44:
	.cfi_def_cfa_offset 56
	mflr 0
	stw 25,28(1)
	.loc 1 825 0
	lis 25,.LC30@ha
	.cfi_offset 25, -28
	.cfi_register 65, 0
	la 25,.LC30@l(25)
	.loc 1 821 0
	stw 24,24(1)
	mr 24,3
	.cfi_offset 24, -32
	.loc 1 825 0
	mr 3,25
.LVL118:
	.loc 1 821 0
	stw 0,60(1)
	stw 26,32(1)
	stw 27,36(1)
	stw 28,40(1)
	stw 29,44(1)
	stw 30,48(1)
	stw 31,52(1)
	.loc 1 825 0
	.cfi_offset 31, -4
	.cfi_offset 30, -8
	.cfi_offset 29, -12
	.cfi_offset 28, -16
	.cfi_offset 27, -20
	.cfi_offset 26, -24
	.cfi_offset 65, 4
	bl COM_CheckParm
	cmpwi 7,3,0
	beq- 7,.L151
	.loc 1 827 0
	lis 26,com_argc@ha
	lwz 0,com_argc@l(26)
	cmpwi 7,0,2
	beq- 7,.L152
	.loc 1 828 0
	lis 3,.LC31@ha
	la 3,.LC31@l(3)
	crxor 6,6,6
	bl Sys_Error
.L152:
	.loc 1 830 0
	lis 30,vcrFile@ha
	lis 3,.LC32@ha
	la 31,vcrFile@l(30)
	la 3,.LC32@l(3)
	mr 4,31
	bl Sys_FileOpenRead
	.loc 1 831 0
	lwz 3,vcrFile@l(30)
	cmpwi 7,3,-1
	beq- 7,.L163
.L153:
	.loc 1 834 0
	addi 4,1,12
	li 5,4
	bl Sys_FileRead
.LVL119:
	.loc 1 835 0
	lwz 9,12(1)
	xoris 0,9,0x5643
	cmpwi 7,0,21041
	beq 7,.L154
	.loc 1 836 0
	lis 3,.LC34@ha
	la 3,.LC34@l(3)
	crxor 6,6,6
	bl Sys_Error
.L154:
	.loc 1 838 0
	la 29,com_argc@l(26)
	lwz 3,vcrFile@l(30)
	mr 4,29
	li 5,4
	bl Sys_FileRead
	.loc 1 839 0
	lwz 3,com_argc@l(26)
	lis 27,com_argv@ha
	slwi 3,3,2
	bl malloc
	.loc 1 841 0
	lwz 9,com_argc@l(26)
	.loc 1 840 0
	lwz 11,12(24)
	.loc 1 839 0
	stw 3,com_argv@l(27)
	.loc 1 841 0
	cmpwi 7,9,0
	.loc 1 840 0
	lwz 0,0(11)
	stw 0,0(3)
	.loc 1 841 0
	li 0,0
	stw 0,12(1)
	ble- 7,.L155
	addi 28,1,8
	la 27,com_argv@l(27)
.LVL120:
.L156:
	.loc 1 843 0 discriminator 2
	lwz 3,0(31)
	mr 4,28
	li 5,4
	bl Sys_FileRead
	.loc 1 844 0 discriminator 2
	lwz 3,8(1)
	bl malloc
	.loc 1 845 0 discriminator 2
	lwz 5,8(1)
	.loc 1 844 0 discriminator 2
	mr 30,3
.LVL121:
	.loc 1 845 0 discriminator 2
	lwz 3,0(31)
.LVL122:
	mr 4,30
	bl Sys_FileRead
	.loc 1 846 0 discriminator 2
	lwz 11,12(1)
	.loc 1 841 0 discriminator 2
	lwz 9,0(29)
	.loc 1 846 0 discriminator 2
	addi 0,11,1
	lwz 10,0(27)
	.loc 1 841 0 discriminator 2
	cmpw 7,9,0
	.loc 1 846 0 discriminator 2
	slwi 11,0,2
	stwx 30,10,11
	.loc 1 841 0 discriminator 2
	stw 0,12(1)
	bgt+ 7,.L156
	.loc 1 841 0 is_stmt 0
	lwz 3,0(27)
.LVL123:
.L155:
	.loc 1 848 0 is_stmt 1
	addi 9,9,1
.LVL124:
	.loc 1 850 0
	stw 3,12(24)
	.loc 1 848 0
	stw 9,com_argc@l(26)
.LVL125:
	.loc 1 849 0
	stw 9,8(24)
.L151:
	.loc 1 853 0
	lis 3,.LC35@ha
	la 3,.LC35@l(3)
	bl COM_CheckParm
.LVL126:
	mr. 27,3
	bne- 0,.L164
.LVL127:
.L150:
	.loc 1 876 0
	lwz 0,60(1)
	lwz 24,24(1)
.LVL128:
	mtlr 0
	lwz 25,28(1)
	lwz 26,32(1)
	lwz 27,36(1)
.LVL129:
	lwz 28,40(1)
	lwz 29,44(1)
	lwz 30,48(1)
	lwz 31,52(1)
	addi 1,1,56
	.cfi_remember_state
.LCFI45:
	.cfi_def_cfa_offset 0
	.cfi_restore 31
	.cfi_restore 30
	.cfi_restore 29
	.cfi_restore 28
	.cfi_restore 27
	.cfi_restore 26
	.cfi_restore 25
	.cfi_restore 24
	blr
.LVL130:
.L164:
.LCFI46:
	.cfi_restore_state
	.loc 1 855 0
	lis 3,.LC32@ha
.LVL131:
	.loc 1 857 0
	mr 31,1
	.loc 1 855 0
	la 3,.LC32@l(3)
	lis 30,vcrFile@ha
	bl Sys_FileOpenWrite
	.loc 1 857 0
	lis 0,0x5643
	ori 0,0,21041
	.loc 1 858 0
	li 5,4
	.loc 1 857 0
	stwu 0,12(31)
.LVL132:
	.loc 1 859 0
	lis 26,com_argc@ha
	.loc 1 855 0
	stw 3,vcrFile@l(30)
	.loc 1 858 0
	mr 4,31
	bl Sys_FileWrite
	.loc 1 859 0
	lwz 9,com_argc@l(26)
	.loc 1 860 0
	lwz 3,vcrFile@l(30)
	mr 4,31
	.loc 1 859 0
	addi 0,9,-1
	.loc 1 860 0
	li 5,4
	.loc 1 859 0
	stw 0,12(1)
.LVL133:
	.loc 1 860 0
	bl Sys_FileWrite
	.loc 1 861 0
	lwz 0,com_argc@l(26)
	cmpwi 7,0,1
	li 0,1
	stw 0,12(1)
	ble- 7,.L150
	la 31,vcrFile@l(30)
	la 29,com_argc@l(26)
	addi 28,1,8
	.loc 1 870 0
	lis 30,com_argv@ha
	.loc 1 865 0
	li 26,10
	b .L160
.L158:
	.loc 1 870 0
	lwz 11,com_argv@l(30)
	lwzx 3,11,9
	bl Q_strlen
	.loc 1 871 0
	mr 4,28
	.loc 1 870 0
	addi 0,3,1
	.loc 1 871 0
	lwz 3,0(31)
	li 5,4
	.loc 1 870 0
	stw 0,8(1)
	.loc 1 871 0
	bl Sys_FileWrite
	.loc 1 872 0
	lwz 0,12(1)
	lwz 9,com_argv@l(30)
	slwi 0,0,2
	lwz 3,0(31)
	lwzx 4,9,0
	lwz 5,8(1)
	bl Sys_FileWrite
.L159:
	.loc 1 861 0
	lwz 11,12(1)
	lwz 9,0(29)
	addi 0,11,1
	cmpw 7,9,0
	stw 0,12(1)
	ble- 7,.L150
.L160:
	.loc 1 863 0
	cmpw 7,27,0
	.loc 1 870 0
	slwi 9,0,2
	.loc 1 863 0
	bne+ 7,.L158
	.loc 1 866 0
	lwz 3,0(31)
	mr 4,28
	li 5,4
	.loc 1 865 0
	stw 26,8(1)
	.loc 1 866 0
	bl Sys_FileWrite
	.loc 1 867 0
	lwz 3,0(31)
	lwz 5,8(1)
	mr 4,25
	bl Sys_FileWrite
	.loc 1 868 0
	b .L159
.LVL134:
.L163:
	.loc 1 832 0
	lis 3,.LC33@ha
	la 3,.LC33@l(3)
	crxor 6,6,6
	bl Sys_Error
	lwz 3,vcrFile@l(30)
	b .L153
	.cfi_endproc
.LFE53:
	.size	Host_InitVCR, .-Host_InitVCR
	.align 2
	.globl Host_Init
	.type	Host_Init, @function
Host_Init:
.LFB54:
	.loc 1 885 0
	.cfi_startproc
.LVL135:
	.loc 1 886 0
	lis 9,standard_quake@ha
	.loc 1 885 0
	stwu 1,-40(1)
.LCFI47:
	.cfi_def_cfa_offset 40
	.loc 1 886 0
	lbz 9,standard_quake@l(9)
	.loc 1 885 0
	mflr 0
	stw 31,36(1)
	mr 31,3
	.cfi_offset 31, -4
	.cfi_register 65, 0
	.loc 1 887 0
	addic 9,9,-1
	subfe 9,9,9
	.loc 1 891 0
	lis 3,.LC36@ha
.LVL136:
	.loc 1 887 0
	rlwinm 9,9,0,11,11
	.loc 1 885 0
	stw 30,32(1)
	.loc 1 887 0
	addis 9,9,0x55
	.loc 1 886 0
	lis 30,minimum_memory@ha
	.cfi_offset 30, -8
	.loc 1 891 0
	la 3,.LC36@l(3)
	.loc 1 885 0
	stw 0,44(1)
	stw 28,24(1)
	stw 29,28(1)
	.loc 1 886 0
	stw 9,minimum_memory@l(30)
	.loc 1 891 0
	.cfi_offset 29, -12
	.cfi_offset 28, -16
	.cfi_offset 65, 4
	bl COM_CheckParm
	cmpwi 7,3,0
	.loc 1 892 0
	lwz 0,minimum_memory@l(30)
	.loc 1 891 0
	beq- 7,.L168
	.loc 1 892 0
	stw 0,20(31)
.L168:
	.loc 1 894 0
	lwz 10,12(31)
	lis 11,host_parms@ha
	lwz 6,0(31)
	la 9,host_parms@l(11)
	lwz 7,4(31)
	lwz 8,8(31)
	stw 6,host_parms@l(11)
	stw 7,4(9)
	stw 8,8(9)
	stw 10,12(9)
	lwz 10,16(31)
	lwz 11,20(31)
	stw 10,16(9)
	stw 11,20(9)
	.loc 1 896 0
	lwz 5,20(31)
	cmpw 7,5,0
	blt- 7,.L175
	lis 28,.LC27@ha
	lis 29,.LC38@ha
.L169:
	.loc 1 899 0
	lwz 11,8(31)
	lis 9,com_argc@ha
	.loc 1 900 0
	lwz 0,12(31)
	.loc 1 902 0
	lis 3,.LC39@ha
	lwz 4,16(31)
	la 3,.LC39@l(3)
	.loc 1 899 0
	stw 11,com_argc@l(9)
	.loc 1 900 0
	lis 9,com_argv@ha
	stw 0,com_argv@l(9)
	.loc 1 902 0
	crxor 6,6,6
	bl Sys_Printf
	.loc 1 903 0
	lwz 4,20(31)
	.loc 1 913 0
	lis 30,cls@ha
	.loc 1 903 0
	lwz 3,16(31)
	bl Memory_Init
	.loc 1 905 0
	bl Cbuf_Init
	.loc 1 906 0
	bl Cmd_Init
	.loc 1 907 0
	bl V_Init
	.loc 1 908 0
	bl Chase_Init
	.loc 1 909 0
	mr 3,31
	bl Host_InitVCR
	.loc 1 911 0
	lwz 3,0(31)
	bl COM_Init
	.loc 1 912 0
	bl Host_InitLocal
	.loc 1 913 0
	lwz 4,cls@l(30)
	lis 3,.LC40@ha
	li 5,0
	la 3,.LC40@l(3)
	crxor 6,6,6
	bl Sys_Printf
	.loc 1 914 0
	lis 3,.LC41@ha
	la 3,.LC41@l(3)
	bl W_LoadWadFile
	.loc 1 915 0
	bl Key_Init
	.loc 1 916 0
	bl Con_Init
	.loc 1 917 0
	bl M_Init
	.loc 1 918 0
	bl PR_Init
	.loc 1 919 0
	bl Mod_Init
	.loc 1 920 0
	bl NET_Init
	.loc 1 921 0
	bl SV_Init
	.loc 1 923 0
	lis 3,.LC42@ha
	la 3,.LC42@l(3)
	crxor 6,6,6
	bl Con_Printf
	.loc 1 924 0
	lis 3,.LC43@ha
	la 3,.LC43@l(3)
	crxor 6,6,6
	bl Con_Printf
	.loc 1 925 0
	lwz 0,20(31)
	lfs 13,.LC27@l(28)
	lis 3,.LC44@ha
	xoris 0,0,0x8000
	lfs 0,.LC38@l(29)
	stw 0,20(1)
	lis 0,0x4330
	stw 0,16(1)
	la 3,.LC44@l(3)
	lfd 1,16(1)
	fsub 1,1,13
	fmul 1,1,0
	creqv 6,6,6
	bl Con_Printf
	.loc 1 927 0
	bl R_InitTextures
	.loc 1 929 0
	lwz 0,cls@l(30)
	cmpwi 7,0,0
	bne- 7,.L176
.LVL137:
.L170:
	.loc 1 967 0
	lis 3,.LC50@ha
	la 3,.LC50@l(3)
	bl Cbuf_InsertText
	.loc 1 969 0
	lis 4,.LC51@ha
	la 4,.LC51@l(4)
	li 3,0
	bl Hunk_AllocName
	.loc 1 970 0
	bl Hunk_LowMark
	lis 9,host_hunklevel@ha
	stw 3,host_hunklevel@l(9)
	.loc 1 977 0
	lis 3,.LC52@ha
	.loc 1 972 0
	li 0,1
	lis 9,host_initialized@ha
	.loc 1 977 0
	la 3,.LC52@l(3)
	.loc 1 972 0
	stb 0,host_initialized@l(9)
	.loc 1 977 0
	crxor 6,6,6
	bl Sys_Printf
	.loc 1 978 0
	lwz 0,44(1)
	lwz 28,24(1)
	mtlr 0
	lwz 29,28(1)
	lwz 30,32(1)
	lwz 31,36(1)
	addi 1,1,40
	.cfi_remember_state
.LCFI48:
	.cfi_def_cfa_offset 0
	.cfi_restore 31
	.cfi_restore 30
	.cfi_restore 29
	.cfi_restore 28
	blr
.LVL138:
.L176:
.LCFI49:
	.cfi_restore_state
	.loc 1 931 0
	lis 3,.LC46@ha
	lis 31,host_basepal@ha
.LVL139:
	la 3,.LC46@l(3)
	bl COM_LoadHunkFile
	.loc 1 932 0
	cmpwi 7,3,0
	.loc 1 931 0
	stw 3,host_basepal@l(31)
	.loc 1 932 0
	beq- 7,.L177
.L171:
	.loc 1 934 0
	lis 3,.LC48@ha
	la 3,.LC48@l(3)
	bl COM_LoadHunkFile
	lis 9,host_colormap@ha
	.loc 1 935 0
	cmpwi 7,3,0
	.loc 1 934 0
	stw 3,host_colormap@l(9)
	.loc 1 935 0
	beq- 7,.L178
.L172:
	.loc 1 939 0
	bl IN_Init
	.loc 1 941 0
	lwz 3,host_basepal@l(31)
	bl VID_Init
	.loc 1 943 0
	bl Draw_Init
	.loc 1 944 0
	bl SCR_Init
	.loc 1 945 0
	bl R_Init
	.loc 1 949 0
	bl S_Init
	.loc 1 958 0
	bl CDAudio_Init
	.loc 1 959 0
	bl Sbar_Init
	.loc 1 960 0
	bl CL_Init
	b .L170
.LVL140:
.L175:
	.loc 1 897 0
	xoris 5,5,0x8000
	lis 0,0x4330
	stw 5,12(1)
	lis 28,.LC27@ha
	stw 0,8(1)
	lis 29,.LC38@ha
	lfs 0,.LC27@l(28)
	lis 3,.LC37@ha
	lfd 1,8(1)
	la 3,.LC37@l(3)
	fsub 1,1,0
	lfs 0,.LC38@l(29)
	frsp 1,1
	fmuls 1,1,0
	creqv 6,6,6
	bl Sys_Error
	lwz 5,20(31)
	b .L169
.LVL141:
.L177:
	.loc 1 933 0
	lis 3,.LC47@ha
	la 3,.LC47@l(3)
	crxor 6,6,6
	bl Sys_Error
	b .L171
.L178:
	.loc 1 936 0
	lis 3,.LC49@ha
	la 3,.LC49@l(3)
	crxor 6,6,6
	bl Sys_Error
	b .L172
	.cfi_endproc
.LFE54:
	.size	Host_Init, .-Host_Init
	.align 2
	.globl Host_Shutdown
	.type	Host_Shutdown, @function
Host_Shutdown:
.LFB55:
	.loc 1 990 0
	.cfi_startproc
	mflr 0
	stwu 1,-8(1)
.LCFI50:
	.cfi_def_cfa_offset 8
	.cfi_register 65, 0
	.loc 1 993 0
	lis 9,.LANCHOR1@ha
	la 9,.LANCHOR1@l(9)
	.loc 1 990 0
	stw 0,12(1)
	.loc 1 993 0
	lbz 0,44(9)
	.cfi_offset 65, 4
	cmpwi 7,0,0
	bne- 7,.L182
	.loc 1 998 0
	li 0,1
	stb 0,44(9)
	.loc 1 1015 0
	lwz 0,12(1)
	addi 1,1,8
	.cfi_remember_state
.LCFI51:
	.cfi_def_cfa_offset 0
	mtlr 0
	blr
.L182:
.LCFI52:
	.cfi_restore_state
	.loc 1 995 0
	lis 3,.LC53@ha
	la 3,.LC53@l(3)
	bl puts
	.loc 1 1015 0
	lwz 0,12(1)
	addi 1,1,8
.LCFI53:
	.cfi_def_cfa_offset 0
	mtlr 0
	blr
	.cfi_endproc
.LFE55:
	.size	Host_Shutdown, .-Host_Shutdown
	.comm	fps_count,4,4
	.globl temp1
	.globl timescalecvar
	.globl maxfps
	.globl pausedemo
	.globl pausable
	.globl coop
	.globl deathmatch
	.globl skill
	.globl developer
	.globl noexit
	.globl samelevel
	.globl teamplay
	.globl timelimit
	.globl fraglimit
	.globl serverprofile
	.globl sys_ticrate
	.globl host_speeds
	.globl host_framerate
	.comm	host_colormap,4,4
	.comm	host_basepal,4,4
	.comm	host_abortserver,256,8
	.comm	host_client,4,4
	.comm	minimum_memory,4,4
	.comm	host_hunklevel,4,4
	.comm	host_framecount,4,4
	.comm	oldrealtime,8,8
	.comm	realtime,8,8
	.comm	host_time,8,8
	.comm	host_frametime,8,8
	.comm	host_initialized,1,1
	.comm	host_parms,24,4
	.comm	causticschain,4,4
	.section	.rodata.cst4,"aM",@progbits,4
	.align 2
.LC5:
	.4byte	1065353216
.LC6:
	.4byte	0
.LC11:
	.4byte	1077936128
.LC20:
	.4byte	1123024896
.LC24:
	.4byte	1148846080
.LC27:
	.4byte	1501560836
.LC38:
	.4byte	897581056
	.section	.rodata.cst8,"aM",@progbits,8
	.align 3
.LC21:
	.4byte	1069128089
	.4byte	-1717986918
.LC22:
	.4byte	1062232653
	.4byte	-755914244
.LC28:
	.4byte	0
	.4byte	0
	.section	".data"
	.align 2
	.set	.LANCHOR0,. + 0
	.type	host_framerate, @object
	.size	host_framerate, 20
host_framerate:
	.long	.LC73
	.long	.LC55
	.zero	12
	.type	host_speeds, @object
	.size	host_speeds, 20
host_speeds:
	.long	.LC72
	.long	.LC55
	.zero	12
	.type	sys_ticrate, @object
	.size	sys_ticrate, 20
sys_ticrate:
	.long	.LC70
	.long	.LC71
	.zero	12
	.type	serverprofile, @object
	.size	serverprofile, 20
serverprofile:
	.long	.LC69
	.long	.LC55
	.zero	12
	.type	fraglimit, @object
	.size	fraglimit, 20
fraglimit:
	.long	.LC68
	.long	.LC55
	.byte	0
	.byte	1
	.zero	10
	.type	timelimit, @object
	.size	timelimit, 20
timelimit:
	.long	.LC67
	.long	.LC55
	.byte	0
	.byte	1
	.zero	10
	.type	teamplay, @object
	.size	teamplay, 20
teamplay:
	.long	.LC66
	.long	.LC55
	.byte	0
	.byte	1
	.zero	10
	.type	samelevel, @object
	.size	samelevel, 20
samelevel:
	.long	.LC65
	.long	.LC55
	.zero	12
	.type	noexit, @object
	.size	noexit, 20
noexit:
	.long	.LC64
	.long	.LC55
	.byte	0
	.byte	1
	.zero	10
	.type	skill, @object
	.size	skill, 20
skill:
	.long	.LC62
	.long	.LC57
	.zero	12
	.type	developer, @object
	.size	developer, 20
developer:
	.long	.LC63
	.long	.LC57
	.zero	12
	.type	deathmatch, @object
	.size	deathmatch, 20
deathmatch:
	.long	.LC4
	.long	.LC55
	.zero	12
	.type	coop, @object
	.size	coop, 20
coop:
	.long	.LC61
	.long	.LC55
	.zero	12
	.type	pausable, @object
	.size	pausable, 20
pausable:
	.long	.LC60
	.long	.LC57
	.zero	12
	.type	timescalecvar, @object
	.size	timescalecvar, 20
timescalecvar:
	.long	.LC56
	.long	.LC57
	.zero	12
	.type	maxfps, @object
	.size	maxfps, 20
maxfps:
	.long	.LC19
	.long	.LC58
	.byte	1
	.zero	11
	.type	temp1, @object
	.size	temp1, 20
temp1:
	.long	.LC54
	.long	.LC55
	.zero	12
	.type	textureBaseLine, @object
	.size	textureBaseLine, 4
textureBaseLine:
	.long	-1
	.type	glTextureBaseLine, @object
	.size	glTextureBaseLine, 4
glTextureBaseLine:
	.long	-1
	.type	pausedemo, @object
	.size	pausedemo, 20
pausedemo:
	.long	.LC59
	.long	.LC55
	.zero	12
	.section	.rodata.str1.4,"aMS",@progbits,1
	.align 2
.LC0:
	.string	"-dedicated"
	.zero	1
.LC1:
	.string	"-listen"
.LC2:
	.string	"Only one of -dedicated or -listen can be specified"
	.zero	1
.LC3:
	.string	"clients"
.LC4:
	.string	"deathmatch"
	.zero	1
.LC8:
	.string	"Client %s removed\n"
	.zero	1
.LC9:
	.string	""
	.zero	3
.LC12:
	.string	"Host_ShutdownServer: NET_SendToAll failed for %u clients\n"
	.zero	2
.LC13:
	.string	"Host_Error: recursively entered"
.LC14:
	.string	"Host_Error: %s\n"
.LC15:
	.string	"Host_EndGame: %s\n"
	.zero	2
.LC16:
	.string	"Clearing memory\n"
	.zero	3
.LC17:
	.string	"Deleting GL Texture range : %d - %d\n"
	.zero	3
.LC18:
	.string	">> Setting basetexture to ID: %d\n"
	.zero	2
.LC19:
	.string	"maxfps"
	.zero	1
.LC25:
	.string	"%3i tot %3i server %3i gfx %3i snd\n"
.LC29:
	.string	"serverprofile: %2i clients %2i msec\n"
	.zero	3
.LC30:
	.string	"-playback"
	.zero	2
.LC31:
	.string	"No other parameters allowed with -playback\n"
.LC32:
	.string	"quake.vcr"
	.zero	2
.LC33:
	.string	"playback file not found\n"
	.zero	3
.LC34:
	.string	"Invalid signature in vcr file\n"
	.zero	1
.LC35:
	.string	"-record"
.LC36:
	.string	"-minmemory"
	.zero	1
.LC37:
	.string	"Only %4.1f megs of memory available, can't execute game"
.LC39:
	.string	"host init membase %p %d\n"
	.zero	3
.LC40:
	.string	" cls.state %d ca_dedicated %d\n"
	.zero	1
.LC41:
	.string	"gfx.wad"
.LC42:
	.string	"Exe: 16:14:01 Sep 23 2012\n"
	.zero	1
.LC43:
	.string	"Modified by Charles 'Pentagram' Hollemeersch\n"
	.zero	2
.LC44:
	.string	"%4.1f megabyte heap\n"
	.zero	3
.LC46:
	.string	"gfx/palette.lmp"
.LC47:
	.string	"Couldn't load gfx/palette.lmp"
	.zero	2
.LC48:
	.string	"gfx/colormap.lmp"
	.zero	3
.LC49:
	.string	"Couldn't load gfx/colormap.lmp"
	.zero	1
.LC50:
	.string	"exec quake.rc\n"
	.zero	1
.LC51:
	.string	"-HOST_HUNKLEVEL-"
	.zero	3
.LC52:
	.string	"========Quake Initialized=========\n"
.LC53:
	.string	"recursive shutdown"
	.zero	1
.LC54:
	.string	"temp1"
	.zero	2
.LC55:
	.string	"0"
	.zero	2
.LC56:
	.string	"timescale"
	.zero	2
.LC57:
	.string	"1"
	.zero	2
.LC58:
	.string	"120"
.LC59:
	.string	"pausedemo"
	.zero	2
.LC60:
	.string	"pausable"
	.zero	3
.LC61:
	.string	"coop"
	.zero	3
.LC62:
	.string	"skill"
	.zero	2
.LC63:
	.string	"developer"
	.zero	2
.LC64:
	.string	"noexit"
	.zero	1
.LC65:
	.string	"samelevel"
	.zero	2
.LC66:
	.string	"teamplay"
	.zero	3
.LC67:
	.string	"timelimit"
	.zero	2
.LC68:
	.string	"fraglimit"
	.zero	2
.LC69:
	.string	"serverprofile"
	.zero	2
.LC70:
	.string	"sys_ticrate"
.LC71:
	.string	"0.05"
	.zero	3
.LC72:
	.string	"host_speeds"
.LC73:
	.string	"host_framerate"
	.section	".bss"
	.align 3
	.set	.LANCHOR1,. + 0
	.type	inerror.14963, @object
	.size	inerror.14963, 1
inerror.14963:
	.zero	1
	.zero	7
	.type	time1.15041, @object
	.size	time1.15041, 8
time1.15041:
	.zero	8
	.type	time2.15042, @object
	.size	time2.15042, 8
time2.15042:
	.zero	8
	.type	time3.15043, @object
	.size	time3.15043, 8
time3.15043:
	.zero	8
	.type	timetotal.15052, @object
	.size	timetotal.15052, 8
timetotal.15052:
	.zero	8
	.type	timecount.15053, @object
	.size	timecount.15053, 4
timecount.15053:
	.zero	4
	.type	isdown.15081, @object
	.size	isdown.15081, 1
isdown.15081:
	.zero	1
	.section	".text"
.Letext0:
	.file 2 "c:\\utils\\devkitpro\\devkitppc\\bin\\../lib/gcc/powerpc-eabi/4.6.3/../../../../powerpc-eabi/include/machine/_types.h"
	.file 3 "c:\\utils\\devkitpro\\devkitppc\\bin\\../lib/gcc/powerpc-eabi/4.6.3/../../../../powerpc-eabi/include/sys/lock.h"
	.file 4 "c:\\utils\\devkitpro\\devkitppc\\bin\\../lib/gcc/powerpc-eabi/4.6.3/include/stddef.h"
	.file 5 "c:\\utils\\devkitpro\\devkitppc\\bin\\../lib/gcc/powerpc-eabi/4.6.3/../../../../powerpc-eabi/include/sys/_types.h"
	.file 6 "c:\\utils\\devkitpro\\devkitppc\\bin\\../lib/gcc/powerpc-eabi/4.6.3/../../../../powerpc-eabi/include/sys/reent.h"
	.file 7 "c:\\utils\\devkitpro\\devkitppc\\bin\\../lib/gcc/powerpc-eabi/4.6.3/include/stdarg.h"
	.file 8 "<built-in>"
	.file 9 "c:\\utils\\devkitpro\\devkitppc\\bin\\../lib/gcc/powerpc-eabi/4.6.3/../../../../powerpc-eabi/include/stdio.h"
	.file 10 "c:\\utils\\devkitpro\\devkitppc\\bin\\../lib/gcc/powerpc-eabi/4.6.3/../../../../powerpc-eabi/include/machine/setjmp.h"
	.file 11 "d:/Data/Nintendo/TenebraeGX/src/common.h"
	.file 12 "d:/Data/Nintendo/TenebraeGX/src/bspfile.h"
	.file 13 "d:/Data/Nintendo/TenebraeGX/src/zone.h"
	.file 14 "d:/Data/Nintendo/TenebraeGX/src/mathlib.h"
	.file 15 "d:/Data/Nintendo/TenebraeGX/src/quakedef.h"
	.file 16 "d:/Data/Nintendo/TenebraeGX/src/cvar.h"
	.file 17 "d:/Data/Nintendo/TenebraeGX/src/net.h"
	.file 18 "d:/Data/Nintendo/TenebraeGX/src/sound.h"
	.file 19 "d:/Data/Nintendo/TenebraeGX/src/render.h"
	.file 20 "d:/Data/Nintendo/TenebraeGX/src/gl_model.h"
	.file 21 "d:/Data/Nintendo/TenebraeGX/src/glquake.h"
	.file 22 "d:/Data/Nintendo/TenebraeGX/src/client.h"
	.file 23 "d:/Data/Nintendo/TenebraeGX/src/pr_comp.h"
	.file 24 "d:/Data/Nintendo/TenebraeGX/src/progdefs.h"
	.file 25 "d:/Data/Nintendo/TenebraeGX/src/progs.h"
	.file 26 "d:/Data/Nintendo/TenebraeGX/src/server.h"
	.file 27 "d:/Data/Nintendo/TenebraeGX/src/modelgen.h"
	.file 28 "d:/Data/Nintendo/TenebraeGX/src/world.h"
	.file 29 "d:/Data/Nintendo/TenebraeGX/src/keys.h"
	.file 30 "d:/Data/Nintendo/TenebraeGX/gl2gx/include/GL/gl.h"
	.file 31 "c:/utils/devkitPro/libogc/include/ogc/gx.h"