	.file	"mipmap.c"
	.section	".text"
.Ltext0:
	.cfi_sections	.debug_frame
	.align 2
	.type	bytes_per_element, @function
bytes_per_element:
.LFB45:
	.file 1 "d:/Data/Nintendo/TenebraeGX/gl2gx/source/libutil/mipmap.c"
	.loc 1 4813 0
	.cfi_startproc
.LVL0:
	.loc 1 4817 0
	xoris 0,3,0xffff
	cmpwi 7,0,-32718
	beq 7,.L10
	cmplwi 7,3,32818
	ble- 7,.L17
	xoris 0,3,0xffff
	cmpwi 7,0,-31902
	beq 7,.L10
	cmplwi 7,3,33634
	ble- 7,.L18
	cmplwi 7,3,33638
	ble- 7,.L15
.L2:
	.loc 1 4850 0
	lis 9,.LC2@ha
	lfs 1,.LC2@l(9)
	blr
.L17:
	.loc 1 4817 0
	cmplwi 7,3,5123
	ble- 7,.L19
	cmpwi 7,3,5125
	beq- 7,.L2
	cmplwi 7,3,5125
	blt- 7,.L2
	cmpwi 7,3,5126
	beq- 7,.L2
	cmpwi 7,3,6656
	bne+ 7,.L2
	.loc 1 4819 0
	lis 9,.LC0@ha
	lfs 1,.LC0@l(9)
	blr
.L19:
	.loc 1 4817 0
	cmplwi 7,3,5122
	bge- 7,.L15
	cmpwi 7,3,5120
	beq- 7,.L10
	cmpwi 7,3,5121
	bne+ 7,.L2
.L10:
	.loc 1 4836 0
	lis 9,.LC3@ha
	lfs 1,.LC3@l(9)
	blr
.L18:
	.loc 1 4817 0
	cmplwi 7,3,32820
	bgt- 7,.L2
.L15:
	.loc 1 4821 0
	lis 9,.LC1@ha
	lfs 1,.LC1@l(9)
	.loc 1 4852 0
	blr
	.cfi_endproc
.LFE45:
	.size	bytes_per_element, .-bytes_per_element
	.align 2
	.type	extract332, @function
extract332:
.LFB50:
	.loc 1 5489 0
	.cfi_startproc
.LVL1:
	.loc 1 5490 0
	lbz 9,0(4)
.LVL2:
	.loc 1 5498 0
	lis 0,0x4330
	.loc 1 5489 0
	stwu 1,-32(1)
.LCFI0:
	.cfi_def_cfa_offset 32
	.loc 1 5498 0
	srwi 10,9,5
	.loc 1 5499 0
	rlwinm 11,9,30,29,31
	.loc 1 5498 0
	xoris 10,10,0x8000
	.loc 1 5500 0
	rlwinm 9,9,0,30,31
.LVL3:
	.loc 1 5498 0
	stw 10,12(1)
	.loc 1 5500 0
	xoris 9,9,0x8000
	.loc 1 5498 0
	stw 0,8(1)
	.loc 1 5499 0
	xoris 11,11,0x8000
	.loc 1 5500 0
	stw 9,28(1)
	.loc 1 5498 0
	lis 9,.LC5@ha
	lfs 0,.LC5@l(9)
	lis 9,.LC6@ha
	lfd 12,8(1)
	.loc 1 5499 0
	stw 11,20(1)
	stw 0,16(1)
	.loc 1 5498 0
	fsub 12,12,0
	.loc 1 5500 0
	stw 0,24(1)
	.loc 1 5499 0
	lfd 11,16(1)
	.loc 1 5500 0
	lfd 13,24(1)
	.loc 1 5498 0
	frsp 12,12
	.loc 1 5499 0
	fsub 11,11,0
	.loc 1 5501 0
	.loc 1 5500 0
	fsub 0,13,0
	.loc 1 5498 0
	lfs 13,.LC6@l(9)
	.loc 1 5500 0
	lis 9,.LC7@ha
	.loc 1 5501 0
	addi 1,1,32
.LCFI1:
	.cfi_def_cfa_offset 0
	.loc 1 5498 0
	fdivs 12,12,13
	.loc 1 5499 0
	frsp 11,11
	.loc 1 5498 0
	stfs 12,0(5)
	.loc 1 5500 0
	frsp 0,0
	lfs 12,.LC7@l(9)
	.loc 1 5499 0
	fdivs 13,11,13
	.loc 1 5500 0
	fdivs 0,0,12
	.loc 1 5499 0
	stfs 13,4(5)
	.loc 1 5500 0
	stfs 0,8(5)
	.loc 1 5501 0
	blr
	.cfi_endproc
.LFE50:
	.size	extract332, .-extract332
	.align 2
	.type	extract233rev, @function
extract233rev:
.LFB52:
	.loc 1 5525 0
	.cfi_startproc
.LVL4:
	.loc 1 5526 0
	lbz 9,0(4)
.LVL5:
	.loc 1 5534 0
	lis 0,0x4330
	.loc 1 5525 0
	stwu 1,-32(1)
.LCFI2:
	.cfi_def_cfa_offset 32
	.loc 1 5534 0
	rlwinm 10,9,0,29,31
	.loc 1 5535 0
	rlwinm 11,9,29,29,31
	.loc 1 5534 0
	xoris 10,10,0x8000
	.loc 1 5536 0
	srwi 9,9,6
.LVL6:
	.loc 1 5534 0
	stw 10,12(1)
	.loc 1 5536 0
	xoris 9,9,0x8000
	.loc 1 5534 0
	stw 0,8(1)
	.loc 1 5535 0
	xoris 11,11,0x8000
	.loc 1 5536 0
	stw 9,28(1)
	.loc 1 5534 0
	lis 9,.LC5@ha
	lfs 0,.LC5@l(9)
	lis 9,.LC6@ha
	lfd 12,8(1)
	.loc 1 5535 0
	stw 11,20(1)
	stw 0,16(1)
	.loc 1 5534 0
	fsub 12,12,0
	.loc 1 5536 0
	stw 0,24(1)
	.loc 1 5535 0
	lfd 11,16(1)
	.loc 1 5536 0
	lfd 13,24(1)
	.loc 1 5534 0
	frsp 12,12
	.loc 1 5535 0
	fsub 11,11,0
	.loc 1 5537 0
	.loc 1 5536 0
	fsub 0,13,0
	.loc 1 5534 0
	lfs 13,.LC6@l(9)
	.loc 1 5536 0
	lis 9,.LC7@ha
	.loc 1 5537 0
	addi 1,1,32
.LCFI3:
	.cfi_def_cfa_offset 0
	.loc 1 5534 0
	fdivs 12,12,13
	.loc 1 5535 0
	frsp 11,11
	.loc 1 5534 0
	stfs 12,0(5)
	.loc 1 5536 0
	frsp 0,0
	lfs 12,.LC7@l(9)
	.loc 1 5535 0
	fdivs 13,11,13
	.loc 1 5536 0
	fdivs 0,0,12
	.loc 1 5535 0
	stfs 13,4(5)
	.loc 1 5536 0
	stfs 0,8(5)
	.loc 1 5537 0
	blr
	.cfi_endproc
.LFE52:
	.size	extract233rev, .-extract233rev
	.align 2
	.type	extract565, @function
extract565:
.LFB54:
	.loc 1 5561 0
	.cfi_startproc
.LVL7:
	.loc 1 5564 0
	cmpwi 7,3,0
.LVL8:
	.loc 1 5561 0
	stwu 1,-32(1)
.LCFI4:
	.cfi_def_cfa_offset 32
	.loc 1 5564 0
	bne- 7,.L25
	.loc 1 5568 0
	lhz 0,0(4)
.LVL9:
.L24:
	.loc 1 5575 0
	srwi 10,0,11
	.loc 1 5576 0
	rlwinm 11,0,27,26,31
	.loc 1 5577 0
	rlwinm 9,0,0,27,31
	.loc 1 5575 0
	xoris 10,10,0x8000
	lis 0,0x4330
.LVL10:
	.loc 1 5577 0
	xoris 9,9,0x8000
	.loc 1 5576 0
	xoris 11,11,0x8000
	.loc 1 5577 0
	stw 9,28(1)
	.loc 1 5575 0
	stw 10,12(1)
	lis 9,.LC5@ha
	stw 0,8(1)
	.loc 1 5576 0
	stw 11,20(1)
	stw 0,16(1)
	.loc 1 5577 0
	stw 0,24(1)
	.loc 1 5575 0
	lfs 0,.LC5@l(9)
	lis 9,.LC8@ha
	.loc 1 5577 0
	lfd 13,24(1)
	.loc 1 5575 0
	lfd 11,8(1)
	.loc 1 5576 0
	lfd 12,16(1)
	.loc 1 5578 0
	.loc 1 5575 0
	fsub 11,11,0
	.loc 1 5578 0
	addi 1,1,32
	.cfi_remember_state
.LCFI5:
	.cfi_def_cfa_offset 0
	.loc 1 5576 0
	fsub 12,12,0
	.loc 1 5577 0
	fsub 0,13,0
	.loc 1 5575 0
	lfs 13,.LC8@l(9)
	frsp 11,11
	.loc 1 5576 0
	lis 9,.LC9@ha
	frsp 12,12
	lfs 10,.LC9@l(9)
	.loc 1 5577 0
	frsp 0,0
	.loc 1 5575 0
	fdivs 11,11,13
	.loc 1 5576 0
	fdivs 12,12,10
	.loc 1 5575 0
	stfs 11,0(5)
	.loc 1 5577 0
	fdivs 13,0,13
	.loc 1 5576 0
	stfs 12,4(5)
	.loc 1 5577 0
	stfs 13,8(5)
	.loc 1 5578 0
	blr
.LVL11:
.L25:
.LCFI6:
	.cfi_restore_state
	.loc 1 5565 0
	lbz 0,1(4)
	lbz 9,0(4)
	slwi 0,0,8
	or 0,0,9
.LVL12:
	b .L24
	.cfi_endproc
.LFE54:
	.size	extract565, .-extract565
	.align 2
	.type	extract565rev, @function
extract565rev:
.LFB56:
	.loc 1 5602 0
	.cfi_startproc
.LVL13:
	.loc 1 5605 0
	cmpwi 7,3,0
.LVL14:
	.loc 1 5602 0
	stwu 1,-32(1)
.LCFI7:
	.cfi_def_cfa_offset 32
	.loc 1 5605 0
	bne- 7,.L29
	.loc 1 5609 0
	lhz 0,0(4)
.LVL15:
.L28:
	.loc 1 5616 0
	rlwinm 10,0,0,27,31
	.loc 1 5617 0
	rlwinm 11,0,27,26,31
	.loc 1 5618 0
	srwi 9,0,11
	.loc 1 5616 0
	xoris 10,10,0x8000
	lis 0,0x4330
.LVL16:
	.loc 1 5618 0
	xoris 9,9,0x8000
	.loc 1 5617 0
	xoris 11,11,0x8000
	.loc 1 5618 0
	stw 9,28(1)
	.loc 1 5616 0
	stw 10,12(1)
	lis 9,.LC5@ha
	stw 0,8(1)
	.loc 1 5617 0
	stw 11,20(1)
	stw 0,16(1)
	.loc 1 5618 0
	stw 0,24(1)
	.loc 1 5616 0
	lfs 0,.LC5@l(9)
	lis 9,.LC8@ha
	.loc 1 5618 0
	lfd 13,24(1)
	.loc 1 5616 0
	lfd 11,8(1)
	.loc 1 5617 0
	lfd 12,16(1)
	.loc 1 5619 0
	.loc 1 5616 0
	fsub 11,11,0
	.loc 1 5619 0
	addi 1,1,32
	.cfi_remember_state
.LCFI8:
	.cfi_def_cfa_offset 0
	.loc 1 5617 0
	fsub 12,12,0
	.loc 1 5618 0
	fsub 0,13,0
	.loc 1 5616 0
	lfs 13,.LC8@l(9)
	frsp 11,11
	.loc 1 5617 0
	lis 9,.LC9@ha
	frsp 12,12
	lfs 10,.LC9@l(9)
	.loc 1 5618 0
	frsp 0,0
	.loc 1 5616 0
	fdivs 11,11,13
	.loc 1 5617 0
	fdivs 12,12,10
	.loc 1 5616 0
	stfs 11,0(5)
	.loc 1 5618 0
	fdivs 13,0,13
	.loc 1 5617 0
	stfs 12,4(5)
	.loc 1 5618 0
	stfs 13,8(5)
	.loc 1 5619 0
	blr
.LVL17:
.L29:
.LCFI9:
	.cfi_restore_state
	.loc 1 5606 0
	lbz 0,1(4)
	lbz 9,0(4)
	slwi 0,0,8
	or 0,0,9
.LVL18:
	b .L28
	.cfi_endproc
.LFE56:
	.size	extract565rev, .-extract565rev
	.align 2
	.type	extract4444, @function
extract4444:
.LFB58:
	.loc 1 5643 0
	.cfi_startproc
.LVL19:
	.loc 1 5646 0
	cmpwi 7,3,0
	.loc 1 5643 0
	stwu 1,-40(1)
.LCFI10:
	.cfi_def_cfa_offset 40
	.loc 1 5646 0
	bne- 7,.L33
	.loc 1 5650 0
	lhz 0,0(4)
.LVL20:
.L32:
	.loc 1 5658 0
	srwi 8,0,12
	.loc 1 5659 0
	rlwinm 10,0,24,28,31
	.loc 1 5660 0
	rlwinm 11,0,28,28,31
	.loc 1 5661 0
	rlwinm 9,0,0,28,31
	xoris 9,9,0x8000
	.loc 1 5658 0
	lis 0,0x4330
.LVL21:
	xoris 8,8,0x8000
	.loc 1 5659 0
	xoris 10,10,0x8000
	.loc 1 5660 0
	xoris 11,11,0x8000
	.loc 1 5661 0
	stw 9,36(1)
	.loc 1 5658 0
	stw 8,12(1)
	lis 9,.LC5@ha
	stw 0,8(1)
	.loc 1 5659 0
	stw 10,20(1)
	stw 0,16(1)
	.loc 1 5660 0
	stw 11,28(1)
	stw 0,24(1)
	.loc 1 5661 0
	stw 0,32(1)
	.loc 1 5658 0
	lfs 0,.LC5@l(9)
	lis 9,.LC10@ha
	.loc 1 5661 0
	lfd 12,32(1)
	.loc 1 5658 0
	lfd 10,8(1)
	.loc 1 5659 0
	lfd 11,16(1)
	.loc 1 5660 0
	lfd 13,24(1)
	.loc 1 5658 0
	fsub 10,10,0
	.loc 1 5659 0
	fsub 11,11,0
	.loc 1 5662 0
	.loc 1 5660 0
	fsub 13,13,0
	.loc 1 5662 0
	addi 1,1,40
	.cfi_remember_state
.LCFI11:
	.cfi_def_cfa_offset 0
	.loc 1 5661 0
	fsub 0,12,0
	.loc 1 5658 0
	frsp 10,10
	.loc 1 5659 0
	frsp 11,11
	.loc 1 5661 0
	frsp 12,0
	.loc 1 5658 0
	lfs 0,.LC10@l(9)
	.loc 1 5660 0
	frsp 13,13
	.loc 1 5658 0
	fdivs 10,10,0
	.loc 1 5659 0
	fdivs 11,11,0
	.loc 1 5658 0
	stfs 10,0(5)
	.loc 1 5660 0
	fdivs 13,13,0
	.loc 1 5659 0
	stfs 11,4(5)
	.loc 1 5661 0
	fdivs 0,12,0
	.loc 1 5660 0
	stfs 13,8(5)
	.loc 1 5661 0
	stfs 0,12(5)
	.loc 1 5662 0
	blr
.L33:
.LCFI12:
	.cfi_restore_state
	.loc 1 5647 0
	lbz 0,1(4)
	lbz 9,0(4)
	slwi 0,0,8
	or 0,0,9
.LVL22:
	b .L32
	.cfi_endproc
.LFE58:
	.size	extract4444, .-extract4444
	.align 2
	.type	extract4444rev, @function
extract4444rev:
.LFB60:
	.loc 1 5685 0
	.cfi_startproc
.LVL23:
	.loc 1 5688 0
	cmpwi 7,3,0
	.loc 1 5685 0
	stwu 1,-40(1)
.LCFI13:
	.cfi_def_cfa_offset 40
	.loc 1 5688 0
	bne- 7,.L37
	.loc 1 5692 0
	lhz 0,0(4)
.LVL24:
.L36:
	.loc 1 5701 0
	rlwinm 8,0,0,28,31
	.loc 1 5702 0
	rlwinm 10,0,28,28,31
	.loc 1 5703 0
	rlwinm 11,0,24,28,31
	.loc 1 5704 0
	srwi 9,0,12
	xoris 9,9,0x8000
	.loc 1 5701 0
	lis 0,0x4330
.LVL25:
	xoris 8,8,0x8000
	.loc 1 5702 0
	xoris 10,10,0x8000
	.loc 1 5703 0
	xoris 11,11,0x8000
	.loc 1 5704 0
	stw 9,36(1)
	.loc 1 5701 0
	stw 8,12(1)
	lis 9,.LC5@ha
	stw 0,8(1)
	.loc 1 5702 0
	stw 10,20(1)
	stw 0,16(1)
	.loc 1 5703 0
	stw 11,28(1)
	stw 0,24(1)
	.loc 1 5704 0
	stw 0,32(1)
	.loc 1 5701 0
	lfs 0,.LC5@l(9)
	lis 9,.LC10@ha
	.loc 1 5704 0
	lfd 12,32(1)
	.loc 1 5701 0
	lfd 10,8(1)
	.loc 1 5702 0
	lfd 11,16(1)
	.loc 1 5703 0
	lfd 13,24(1)
	.loc 1 5701 0
	fsub 10,10,0
	.loc 1 5702 0
	fsub 11,11,0
	.loc 1 5705 0
	.loc 1 5703 0
	fsub 13,13,0
	.loc 1 5705 0
	addi 1,1,40
	.cfi_remember_state
.LCFI14:
	.cfi_def_cfa_offset 0
	.loc 1 5704 0
	fsub 0,12,0
	.loc 1 5701 0
	frsp 10,10
	.loc 1 5702 0
	frsp 11,11
	.loc 1 5704 0
	frsp 12,0
	.loc 1 5701 0
	lfs 0,.LC10@l(9)
	.loc 1 5703 0
	frsp 13,13
	.loc 1 5701 0
	fdivs 10,10,0
	.loc 1 5702 0
	fdivs 11,11,0
	.loc 1 5701 0
	stfs 10,0(5)
	.loc 1 5703 0
	fdivs 13,13,0
	.loc 1 5702 0
	stfs 11,4(5)
	.loc 1 5704 0
	fdivs 0,12,0
	.loc 1 5703 0
	stfs 13,8(5)
	.loc 1 5704 0
	stfs 0,12(5)
	.loc 1 5705 0
	blr
.L37:
.LCFI15:
	.cfi_restore_state
	.loc 1 5689 0
	lbz 0,1(4)
	lbz 9,0(4)
	slwi 0,0,8
	or 0,0,9
.LVL26:
	b .L36
	.cfi_endproc
.LFE60:
	.size	extract4444rev, .-extract4444rev
	.align 2
	.type	extract5551, @function
extract5551:
.LFB62:
	.loc 1 5733 0
	.cfi_startproc
.LVL27:
	.loc 1 5736 0
	cmpwi 7,3,0
	.loc 1 5733 0
	stwu 1,-40(1)
.LCFI16:
	.cfi_def_cfa_offset 40
	.loc 1 5736 0
	bne- 7,.L41
	.loc 1 5740 0
	lhz 9,0(4)
.LVL28:
.L40:
	.loc 1 5748 0
	srwi 8,9,11
	.loc 1 5749 0
	rlwinm 10,9,26,27,31
	.loc 1 5750 0
	rlwinm 11,9,31,27,31
	.loc 1 5748 0
	lis 0,0x4330
	.loc 1 5750 0
	xoris 11,11,0x8000
	.loc 1 5748 0
	xoris 8,8,0x8000
	.loc 1 5749 0
	xoris 10,10,0x8000
	.loc 1 5750 0
	stw 11,28(1)
	.loc 1 5748 0
	stw 8,12(1)
	lis 11,.LC5@ha
	stw 0,8(1)
	.loc 1 5751 0
	rlwinm 9,9,0,31,31
.LVL29:
	.loc 1 5749 0
	stw 10,20(1)
	.loc 1 5751 0
	xoris 9,9,0x8000
	.loc 1 5749 0
	stw 0,16(1)
	.loc 1 5750 0
	stw 0,24(1)
	.loc 1 5748 0
	lfs 0,.LC5@l(11)
	lis 11,.LC8@ha
	lfd 9,8(1)
	.loc 1 5749 0
	lfd 11,16(1)
	.loc 1 5750 0
	lfd 10,24(1)
	.loc 1 5748 0
	fsub 9,9,0
	.loc 1 5749 0
	fsub 11,11,0
	.loc 1 5748 0
	lfs 13,.LC8@l(11)
	.loc 1 5750 0
	fsub 10,10,0
	.loc 1 5751 0
	stw 9,36(1)
	.loc 1 5748 0
	frsp 9,9
	.loc 1 5751 0
	stw 0,32(1)
	.loc 1 5749 0
	frsp 11,11
	.loc 1 5750 0
	frsp 10,10
	.loc 1 5751 0
	lfd 12,32(1)
	.loc 1 5748 0
	fdivs 9,9,13
	.loc 1 5752 0
	addi 1,1,40
	.cfi_remember_state
.LCFI17:
	.cfi_def_cfa_offset 0
	.loc 1 5749 0
	fdivs 11,11,13
	.loc 1 5748 0
	stfs 9,0(5)
	.loc 1 5750 0
	fdivs 13,10,13
	.loc 1 5749 0
	stfs 11,4(5)
	.loc 1 5751 0
	fsub 0,12,0
	.loc 1 5750 0
	stfs 13,8(5)
	.loc 1 5751 0
	frsp 0,0
	stfs 0,12(5)
	.loc 1 5752 0
	blr
.L41:
.LCFI18:
	.cfi_restore_state
	.loc 1 5737 0
	lbz 9,1(4)
	lbz 0,0(4)
	slwi 9,9,8
	or 9,9,0
.LVL30:
	b .L40
	.cfi_endproc
.LFE62:
	.size	extract5551, .-extract5551
	.align 2
	.type	extract1555rev, @function
extract1555rev:
.LFB64:
	.loc 1 5780 0
	.cfi_startproc
.LVL31:
	.loc 1 5783 0
	cmpwi 7,3,0
	.loc 1 5780 0
	stwu 1,-40(1)
.LCFI19:
	.cfi_def_cfa_offset 40
	.loc 1 5783 0
	bne- 7,.L45
	.loc 1 5787 0
	lhz 9,0(4)
.LVL32:
.L44:
	.loc 1 5796 0
	rlwinm 8,9,0,27,31
	.loc 1 5797 0
	rlwinm 10,9,27,27,31
	.loc 1 5798 0
	rlwinm 11,9,22,27,31
	.loc 1 5796 0
	lis 0,0x4330
	.loc 1 5798 0
	xoris 11,11,0x8000
	.loc 1 5796 0
	xoris 8,8,0x8000
	.loc 1 5797 0
	xoris 10,10,0x8000
	.loc 1 5798 0
	stw 11,28(1)
	.loc 1 5796 0
	stw 8,12(1)
	lis 11,.LC5@ha
	stw 0,8(1)
	.loc 1 5799 0
	srwi 9,9,15
.LVL33:
	.loc 1 5797 0
	stw 10,20(1)
	.loc 1 5799 0
	xoris 9,9,0x8000
	.loc 1 5797 0
	stw 0,16(1)
	.loc 1 5798 0
	stw 0,24(1)
	.loc 1 5796 0
	lfs 0,.LC5@l(11)
	lis 11,.LC8@ha
	lfd 9,8(1)
	.loc 1 5797 0
	lfd 11,16(1)
	.loc 1 5798 0
	lfd 10,24(1)
	.loc 1 5796 0
	fsub 9,9,0
	.loc 1 5797 0
	fsub 11,11,0
	.loc 1 5796 0
	lfs 13,.LC8@l(11)
	.loc 1 5798 0
	fsub 10,10,0
	.loc 1 5799 0
	stw 9,36(1)
	.loc 1 5796 0
	frsp 9,9
	.loc 1 5799 0
	stw 0,32(1)
	.loc 1 5797 0
	frsp 11,11
	.loc 1 5798 0
	frsp 10,10
	.loc 1 5799 0
	lfd 12,32(1)
	.loc 1 5796 0
	fdivs 9,9,13
	.loc 1 5800 0
	addi 1,1,40
	.cfi_remember_state
.LCFI20:
	.cfi_def_cfa_offset 0
	.loc 1 5797 0
	fdivs 11,11,13
	.loc 1 5796 0
	stfs 9,0(5)
	.loc 1 5798 0
	fdivs 13,10,13
	.loc 1 5797 0
	stfs 11,4(5)
	.loc 1 5799 0
	fsub 0,12,0
	.loc 1 5798 0
	stfs 13,8(5)
	.loc 1 5799 0
	frsp 0,0
	stfs 0,12(5)
	.loc 1 5800 0
	blr
.L45:
.LCFI21:
	.cfi_restore_state
	.loc 1 5784 0
	lbz 9,1(4)
	lbz 0,0(4)
	slwi 9,9,8
	or 9,9,0
.LVL34:
	b .L44
	.cfi_endproc
.LFE64:
	.size	extract1555rev, .-extract1555rev
	.align 2
	.type	extract8888, @function
extract8888:
.LFB66:
	.loc 1 5828 0
	.cfi_startproc
.LVL35:
	.loc 1 5831 0
	cmpwi 7,3,0
	.loc 1 5828 0
	stwu 1,-40(1)
.LCFI22:
	.cfi_def_cfa_offset 40
	.loc 1 5831 0
	bne- 7,.L49
	.loc 1 5835 0
	lwz 9,0(4)
.LVL36:
.L48:
	.loc 1 5844 0
	lis 0,0x4330
	srwi 8,9,24
	.loc 1 5845 0
	rlwinm 10,9,16,24,31
	.loc 1 5846 0
	rlwinm 11,9,24,24,31
	.loc 1 5847 0
	rlwinm 9,9,0,24,31
.LVL37:
	.loc 1 5844 0
	stw 8,12(1)
	.loc 1 5847 0
	stw 9,36(1)
	.loc 1 5844 0
	lis 9,.LC12@ha
	stw 0,8(1)
	.loc 1 5845 0
	stw 10,20(1)
	stw 0,16(1)
	.loc 1 5846 0
	stw 11,28(1)
	stw 0,24(1)
	.loc 1 5847 0
	stw 0,32(1)
	.loc 1 5844 0
	lfs 0,.LC12@l(9)
	lis 9,.LC13@ha
	.loc 1 5847 0
	lfd 12,32(1)
	.loc 1 5844 0
	lfd 10,8(1)
	.loc 1 5845 0
	lfd 11,16(1)
	.loc 1 5846 0
	lfd 13,24(1)
	.loc 1 5844 0
	fsub 10,10,0
	.loc 1 5845 0
	fsub 11,11,0
	.loc 1 5848 0
	.loc 1 5846 0
	fsub 13,13,0
	.loc 1 5848 0
	addi 1,1,40
	.cfi_remember_state
.LCFI23:
	.cfi_def_cfa_offset 0
	.loc 1 5847 0
	fsub 0,12,0
	.loc 1 5844 0
	frsp 10,10
	.loc 1 5845 0
	frsp 11,11
	.loc 1 5847 0
	frsp 12,0
	.loc 1 5844 0
	lfs 0,.LC13@l(9)
	.loc 1 5846 0
	frsp 13,13
	.loc 1 5844 0
	fdivs 10,10,0
	.loc 1 5845 0
	fdivs 11,11,0
	.loc 1 5844 0
	stfs 10,0(5)
	.loc 1 5846 0
	fdivs 13,13,0
	.loc 1 5845 0
	stfs 11,4(5)
	.loc 1 5847 0
	fdivs 0,12,0
	.loc 1 5846 0
	stfs 13,8(5)
	.loc 1 5847 0
	stfs 0,12(5)
	.loc 1 5848 0
	blr
.L49:
.LCFI24:
	.cfi_restore_state
	.loc 1 5832 0
	lbz 10,3(4)
	lbz 9,2(4)
	slwi 10,10,24
	lbz 11,0(4)
	slwi 9,9,16
	lbz 0,1(4)
	or 9,10,9
	or 9,9,11
	slwi 0,0,8
	or 9,9,0
.LVL38:
	b .L48
	.cfi_endproc
.LFE66:
	.size	extract8888, .-extract8888
	.align 2
	.type	extract8888rev, @function
extract8888rev:
.LFB68:
	.loc 1 5876 0
	.cfi_startproc
.LVL39:
	.loc 1 5879 0
	cmpwi 7,3,0
	.loc 1 5876 0
	stwu 1,-40(1)
.LCFI25:
	.cfi_def_cfa_offset 40
	.loc 1 5879 0
	bne- 7,.L53
	.loc 1 5883 0
	lwz 9,0(4)
.LVL40:
.L52:
	.loc 1 5892 0
	lis 0,0x4330
	rlwinm 8,9,0,24,31
	.loc 1 5893 0
	rlwinm 10,9,24,24,31
	.loc 1 5894 0
	rlwinm 11,9,16,24,31
	.loc 1 5895 0
	srwi 9,9,24
.LVL41:
	.loc 1 5892 0
	stw 8,12(1)
	.loc 1 5895 0
	stw 9,36(1)
	.loc 1 5892 0
	lis 9,.LC12@ha
	stw 0,8(1)
	.loc 1 5893 0
	stw 10,20(1)
	stw 0,16(1)
	.loc 1 5894 0
	stw 11,28(1)
	stw 0,24(1)
	.loc 1 5895 0
	stw 0,32(1)
	.loc 1 5892 0
	lfs 0,.LC12@l(9)
	lis 9,.LC13@ha
	.loc 1 5895 0
	lfd 12,32(1)
	.loc 1 5892 0
	lfd 10,8(1)
	.loc 1 5893 0
	lfd 11,16(1)
	.loc 1 5894 0
	lfd 13,24(1)
	.loc 1 5892 0
	fsub 10,10,0
	.loc 1 5893 0
	fsub 11,11,0
	.loc 1 5896 0
	.loc 1 5894 0
	fsub 13,13,0
	.loc 1 5896 0
	addi 1,1,40
	.cfi_remember_state
.LCFI26:
	.cfi_def_cfa_offset 0
	.loc 1 5895 0
	fsub 0,12,0
	.loc 1 5892 0
	frsp 10,10
	.loc 1 5893 0
	frsp 11,11
	.loc 1 5895 0
	frsp 12,0
	.loc 1 5892 0
	lfs 0,.LC13@l(9)
	.loc 1 5894 0
	frsp 13,13
	.loc 1 5892 0
	fdivs 10,10,0
	.loc 1 5893 0
	fdivs 11,11,0
	.loc 1 5892 0
	stfs 10,0(5)
	.loc 1 5894 0
	fdivs 13,13,0
	.loc 1 5893 0
	stfs 11,4(5)
	.loc 1 5895 0
	fdivs 0,12,0
	.loc 1 5894 0
	stfs 13,8(5)
	.loc 1 5895 0
	stfs 0,12(5)
	.loc 1 5896 0
	blr
.L53:
.LCFI27:
	.cfi_restore_state
	.loc 1 5880 0
	lbz 10,3(4)
	lbz 9,2(4)
	slwi 10,10,24
	lbz 11,0(4)
	slwi 9,9,16
	lbz 0,1(4)
	or 9,10,9
	or 9,9,11
	slwi 0,0,8
	or 9,9,0
.LVL42:
	b .L52
	.cfi_endproc
.LFE68:
	.size	extract8888rev, .-extract8888rev
	.align 2
	.type	extract1010102, @function
extract1010102:
.LFB70:
	.loc 1 5924 0
	.cfi_startproc
.LVL43:
	.loc 1 5927 0
	cmpwi 7,3,0
	.loc 1 5924 0
	stwu 1,-40(1)
.LCFI28:
	.cfi_def_cfa_offset 40
	.loc 1 5927 0
	bne- 7,.L57
	.loc 1 5931 0
	lwz 9,0(4)
.LVL44:
.L56:
	.loc 1 5940 0
	lis 0,0x4330
	.loc 1 5941 0
	rlwinm 10,9,20,22,31
	stw 10,20(1)
	.loc 1 5940 0
	srwi 8,9,22
	.loc 1 5941 0
	stw 0,16(1)
	.loc 1 5942 0
	rlwinm 11,9,30,22,31
	.loc 1 5943 0
	rlwinm 9,9,0,30,31
.LVL45:
	.loc 1 5940 0
	stw 8,12(1)
	.loc 1 5943 0
	stw 9,36(1)
	.loc 1 5940 0
	lis 9,.LC12@ha
	lfs 0,.LC12@l(9)
	lis 9,.LC14@ha
	.loc 1 5941 0
	lfd 12,16(1)
	.loc 1 5940 0
	stw 0,8(1)
	.loc 1 5942 0
	stw 11,28(1)
	.loc 1 5941 0
	fsub 12,12,0
	.loc 1 5942 0
	stw 0,24(1)
	.loc 1 5943 0
	stw 0,32(1)
	.loc 1 5940 0
	lfd 10,8(1)
	.loc 1 5941 0
	frsp 12,12
	.loc 1 5943 0
	lfd 13,32(1)
	.loc 1 5942 0
	lfd 11,24(1)
	.loc 1 5940 0
	fsub 10,10,0
	.loc 1 5944 0
	addi 1,1,40
	.cfi_remember_state
.LCFI29:
	.cfi_def_cfa_offset 0
	.loc 1 5942 0
	fsub 11,11,0
	.loc 1 5943 0
	fsub 0,13,0
	.loc 1 5940 0
	lfs 13,.LC14@l(9)
	frsp 10,10
	.loc 1 5943 0
	lis 9,.LC7@ha
	.loc 1 5941 0
	fdivs 12,12,13
	.loc 1 5942 0
	frsp 11,11
	.loc 1 5941 0
	stfs 12,4(5)
	.loc 1 5943 0
	frsp 0,0
	lfs 12,.LC7@l(9)
	.loc 1 5940 0
	fdivs 10,10,13
	.loc 1 5943 0
	fdivs 0,0,12
	.loc 1 5940 0
	stfs 10,0(5)
	.loc 1 5942 0
	fdivs 13,11,13
	.loc 1 5943 0
	stfs 0,12(5)
	.loc 1 5942 0
	stfs 13,8(5)
	.loc 1 5944 0
	blr
.L57:
.LCFI30:
	.cfi_restore_state
	.loc 1 5928 0
	lbz 10,3(4)
	lbz 9,2(4)
	slwi 10,10,24
	lbz 11,0(4)
	slwi 9,9,16
	lbz 0,1(4)
	or 9,10,9
	or 9,9,11
	slwi 0,0,8
	or 9,9,0
.LVL46:
	b .L56
	.cfi_endproc
.LFE70:
	.size	extract1010102, .-extract1010102
	.align 2
	.type	extract2101010rev, @function
extract2101010rev:
.LFB72:
	.loc 1 5973 0
	.cfi_startproc
.LVL47:
	.loc 1 5976 0
	cmpwi 7,3,0
	.loc 1 5973 0
	stwu 1,-40(1)
.LCFI31:
	.cfi_def_cfa_offset 40
	.loc 1 5976 0
	bne- 7,.L61
	.loc 1 5980 0
	lwz 9,0(4)
.LVL48:
.L60:
	.loc 1 5989 0
	lis 0,0x4330
	.loc 1 5990 0
	rlwinm 10,9,22,22,31
	stw 10,20(1)
	.loc 1 5989 0
	rlwinm 8,9,0,22,31
	.loc 1 5990 0
	stw 0,16(1)
	.loc 1 5991 0
	rlwinm 11,9,12,22,31
	.loc 1 5992 0
	srwi 9,9,30
.LVL49:
	.loc 1 5989 0
	stw 8,12(1)
	.loc 1 5992 0
	stw 9,36(1)
	.loc 1 5989 0
	lis 9,.LC12@ha
	lfs 0,.LC12@l(9)
	lis 9,.LC14@ha
	.loc 1 5990 0
	lfd 12,16(1)
	.loc 1 5989 0
	stw 0,8(1)
	.loc 1 5991 0
	stw 11,28(1)
	.loc 1 5990 0
	fsub 12,12,0
	.loc 1 5991 0
	stw 0,24(1)
	.loc 1 5992 0
	stw 0,32(1)
	.loc 1 5989 0
	lfd 10,8(1)
	.loc 1 5990 0
	frsp 12,12
	.loc 1 5992 0
	lfd 13,32(1)
	.loc 1 5991 0
	lfd 11,24(1)
	.loc 1 5989 0
	fsub 10,10,0
	.loc 1 5994 0
	addi 1,1,40
	.cfi_remember_state
.LCFI32:
	.cfi_def_cfa_offset 0
	.loc 1 5991 0
	fsub 11,11,0
	.loc 1 5992 0
	fsub 0,13,0
	.loc 1 5989 0
	lfs 13,.LC14@l(9)
	frsp 10,10
	.loc 1 5992 0
	lis 9,.LC7@ha
	.loc 1 5990 0
	fdivs 12,12,13
	.loc 1 5991 0
	frsp 11,11
	.loc 1 5990 0
	stfs 12,4(5)
	.loc 1 5992 0
	frsp 0,0
	lfs 12,.LC7@l(9)
	.loc 1 5989 0
	fdivs 10,10,13
	.loc 1 5992 0
	fdivs 0,0,12
	.loc 1 5989 0
	stfs 10,0(5)
	.loc 1 5991 0
	fdivs 13,11,13
	.loc 1 5992 0
	stfs 0,12(5)
	.loc 1 5991 0
	stfs 13,8(5)
	.loc 1 5994 0
	blr
.L61:
.LCFI33:
	.cfi_restore_state
	.loc 1 5977 0
	lbz 10,3(4)
	lbz 9,2(4)
	slwi 10,10,24
	lbz 11,0(4)
	slwi 9,9,16
	lbz 0,1(4)
	or 9,10,9
	or 9,9,11
	slwi 0,0,8
	or 9,9,0
.LVL50:
	b .L60
	.cfi_endproc
.LFE72:
	.size	extract2101010rev, .-extract2101010rev
	.align 2
	.type	shove2101010rev, @function
shove2101010rev:
.LFB73:
	.loc 1 5998 0
	.cfi_startproc
.LVL51:
	mflr 0
	stwu 1,-40(1)
.LCFI34:
	.cfi_def_cfa_offset 40
	.cfi_register 65, 0
	.loc 1 6004 0
	lis 7,.LC24@ha
	lfs 0,.LC24@l(7)
	.loc 1 5998 0
	stw 0,44(1)
	.loc 1 6004 0
	lfs 12,0(3)
	fcmpu 7,12,0
	cror 30,29,30
	bne- 7,.L63
	.cfi_offset 65, 4
	.loc 1 6004 0 is_stmt 0 discriminator 2
	lis 9,.LC3@ha
	lfs 13,.LC3@l(9)
	fcmpu 7,12,13
	cror 30,28,30
	bne- 7,.L63
	.loc 1 6005 0 is_stmt 1
	lfs 11,4(3)
	fcmpu 7,11,0
	cror 30,29,30
	bne- 7,.L65
	.loc 1 6005 0 is_stmt 0 discriminator 2
	fcmpu 7,11,13
	cror 30,28,30
	bne- 7,.L65
	.loc 1 6006 0 is_stmt 1
	lfs 10,8(3)
	fcmpu 7,10,0
	cror 30,29,30
	bne- 7,.L67
	.loc 1 6006 0 is_stmt 0 discriminator 2
	fcmpu 7,10,13
	cror 30,28,30
	bne- 7,.L67
	.loc 1 6007 0 is_stmt 1
	lfs 9,12(3)
	fcmpu 7,9,0
	cror 30,29,30
	bne- 7,.L69
	.loc 1 6007 0 is_stmt 0 discriminator 2
	fcmpu 7,9,13
	cror 30,28,30
	bne- 7,.L69
	.loc 1 6017 0 is_stmt 1
	lis 9,.LC7@ha
	lis 11,.LC21@ha
	lfs 0,.LC7@l(9)
	lis 9,.LC23@ha
	lfs 13,.LC21@l(11)
	.loc 1 6016 0
	slwi 4,4,2
.LVL52:
	.loc 1 6017 0
	fmuls 9,9,0
	lfs 0,.LC23@l(9)
	fadd 9,9,13
	fcmpu 7,9,0
	cror 30,29,30
	beq- 7,.L71
	.loc 1 6011 0
	lis 10,.LC14@ha
	lfs 13,.LC21@l(11)
	lfs 0,.LC14@l(10)
	.loc 1 6017 0
	fctiwz 9,9
	addi 8,1,36
	.loc 1 6011 0
	fmuls 12,12,0
	lfs 0,.LC23@l(9)
	.loc 1 6017 0
	stfiwx 9,0,8
	.loc 1 6011 0
	fadd 12,12,13
	.loc 1 6017 0
	lwz 7,36(1)
	slwi 8,7,30
	.loc 1 6011 0
	fcmpu 7,12,0
	cror 30,29,30
	beq- 7,.L73
.L79:
	.loc 1 6013 0
	lfs 0,.LC14@l(10)
	.loc 1 6011 0
	fctiwz 12,12
	.loc 1 6013 0
	lfs 13,.LC21@l(11)
	.loc 1 6011 0
	addi 7,1,28
	.loc 1 6013 0
	fmuls 11,11,0
	lfs 0,.LC23@l(9)
	.loc 1 6011 0
	stfiwx 12,0,7
	.loc 1 6013 0
	fadd 11,11,13
	.loc 1 6011 0
	lwz 7,28(1)
	rlwinm 0,7,0,22,31
	.loc 1 6013 0
	fcmpu 7,11,0
	.loc 1 6012 0
	or 7,8,0
	.loc 1 6013 0
	cror 30,29,30
	beq- 7,.L75
.L80:
	.loc 1 6015 0
	lfs 0,.LC14@l(10)
	.loc 1 6013 0
	fctiwz 11,11
	.loc 1 6015 0
	lfs 13,.LC21@l(11)
	.loc 1 6013 0
	addi 8,1,20
	.loc 1 6015 0
	fmuls 10,10,0
	lfs 0,.LC23@l(9)
	.loc 1 6013 0
	stfiwx 11,0,8
	.loc 1 6015 0
	fadd 10,10,13
	.loc 1 6013 0
	lwz 8,20(1)
	rlwinm 8,8,10,12,21
	.loc 1 6015 0
	fcmpu 7,10,0
	.loc 1 6014 0
	or 8,7,8
	.loc 1 6015 0
	cror 30,29,30
	beq- 7,.L77
.L81:
	fctiwz 10,10
	addi 9,1,12
	stfiwx 10,0,9
	.loc 1 6018 0
	lwz 0,44(1)
	.loc 1 6015 0
	lwz 9,12(1)
	.loc 1 6018 0
	mtlr 0
	.loc 1 6015 0
	rlwinm 9,9,20,2,11
	.loc 1 6016 0
	or 9,8,9
	stwx 9,5,4
	.loc 1 6018 0
	addi 1,1,40
	.cfi_remember_state
.LCFI35:
	.cfi_def_cfa_offset 0
	blr
.L71:
.LCFI36:
	.cfi_restore_state
	.loc 1 6017 0
	fsub 0,9,0
	addi 10,1,32
	.loc 1 6011 0
	lfs 13,.LC21@l(11)
	.loc 1 6017 0
	fctiwz 0,0
	stfiwx 0,0,10
	.loc 1 6011 0
	lis 10,.LC14@ha
	lfs 0,.LC14@l(10)
	.loc 1 6017 0
	lwz 7,32(1)
	.loc 1 6011 0
	fmuls 12,12,0
	lfs 0,.LC23@l(9)
	.loc 1 6017 0
	addis 7,7,0x8000
	slwi 8,7,30
	.loc 1 6011 0
	fadd 12,12,13
	fcmpu 7,12,0
	cror 30,29,30
	bne+ 7,.L79
.L73:
	fsub 0,12,0
	addi 7,1,24
	.loc 1 6013 0
	lfs 13,.LC21@l(11)
	.loc 1 6011 0
	fctiwz 0,0
	stfiwx 0,0,7
	.loc 1 6013 0
	lfs 0,.LC14@l(10)
	.loc 1 6011 0
	lwz 7,24(1)
	.loc 1 6013 0
	fmuls 11,11,0
	lfs 0,.LC23@l(9)
	.loc 1 6011 0
	addis 7,7,0x8000
	rlwinm 0,7,0,22,31
	.loc 1 6013 0
	fadd 11,11,13
	.loc 1 6012 0
	or 7,8,0
	.loc 1 6013 0
	fcmpu 7,11,0
	cror 30,29,30
	bne+ 7,.L80
.L75:
	fsub 0,11,0
	addi 8,1,16
	.loc 1 6015 0
	lfs 13,.LC21@l(11)
	.loc 1 6013 0
	fctiwz 0,0
	stfiwx 0,0,8
	.loc 1 6015 0
	lfs 0,.LC14@l(10)
	.loc 1 6013 0
	lwz 8,16(1)
	.loc 1 6015 0
	fmuls 10,10,0
	lfs 0,.LC23@l(9)
	.loc 1 6013 0
	addis 8,8,0x8000
	rlwinm 8,8,10,12,21
	.loc 1 6015 0
	fadd 10,10,13
	.loc 1 6014 0
	or 8,7,8
	.loc 1 6015 0
	fcmpu 7,10,0
	cror 30,29,30
	bne+ 7,.L81
.L77:
	fsub 0,10,0
	addi 10,1,8
	fctiwz 0,0
	stfiwx 0,0,10
	.loc 1 6018 0
	lwz 0,44(1)
	.loc 1 6015 0
	lwz 9,8(1)
	.loc 1 6018 0
	mtlr 0
	.loc 1 6015 0
	addis 9,9,0x8000
	rlwinm 9,9,20,2,11
	.loc 1 6016 0
	or 9,8,9
	stwx 9,5,4
	.loc 1 6018 0
	addi 1,1,40
	.cfi_remember_state
.LCFI37:
	.cfi_def_cfa_offset 0
	blr
.LVL53:
.L67:
.LCFI38:
	.cfi_restore_state
	.loc 1 6006 0 discriminator 1
	lis 3,.LC15@ha
.LVL54:
	lis 5,.LANCHOR0@ha
.LVL55:
	lis 6,.LC18@ha
	la 3,.LC15@l(3)
	li 4,6006
.LVL56:
	la 5,.LANCHOR0@l(5)
	la 6,.LC18@l(6)
	bl __assert_func
.LVL57:
.L65:
	.loc 1 6005 0 discriminator 1
	lis 3,.LC15@ha
.LVL58:
	lis 5,.LANCHOR0@ha
.LVL59:
	lis 6,.LC17@ha
	la 3,.LC15@l(3)
	li 4,6005
.LVL60:
	la 5,.LANCHOR0@l(5)
	la 6,.LC17@l(6)
	bl __assert_func
.LVL61:
.L69:
	.loc 1 6007 0 discriminator 1
	lis 3,.LC15@ha
.LVL62:
	lis 5,.LANCHOR0@ha
.LVL63:
	lis 6,.LC19@ha
	la 3,.LC15@l(3)
	li 4,6007
.LVL64:
	la 5,.LANCHOR0@l(5)
	la 6,.LC19@l(6)
	bl __assert_func
.LVL65:
.L63:
	.loc 1 6004 0 discriminator 1
	lis 3,.LC15@ha
.LVL66:
	lis 5,.LANCHOR0@ha
.LVL67:
	lis 6,.LC16@ha
	la 3,.LC15@l(3)
	li 4,6004
.LVL68:
	la 5,.LANCHOR0@l(5)
	la 6,.LC16@l(6)
	bl __assert_func
	.cfi_endproc
.LFE73:
	.size	shove2101010rev, .-shove2101010rev
	.align 2
	.type	shove1010102, @function
shove1010102:
.LFB71:
	.loc 1 5948 0
	.cfi_startproc
.LVL69:
	mflr 0
	stwu 1,-40(1)
.LCFI39:
	.cfi_def_cfa_offset 40
	.cfi_register 65, 0
	.loc 1 5954 0
	lis 7,.LC24@ha
	lfs 0,.LC24@l(7)
	.loc 1 5948 0
	stw 0,44(1)
	.loc 1 5954 0
	lfs 12,0(3)
	fcmpu 7,12,0
	cror 30,29,30
	bne- 7,.L83
	.cfi_offset 65, 4
	.loc 1 5954 0 is_stmt 0 discriminator 2
	lis 9,.LC3@ha
	lfs 13,.LC3@l(9)
	fcmpu 7,12,13
	cror 30,28,30
	bne- 7,.L83
	.loc 1 5955 0 is_stmt 1
	lfs 11,4(3)
	fcmpu 7,11,0
	cror 30,29,30
	bne- 7,.L85
	.loc 1 5955 0 is_stmt 0 discriminator 2
	fcmpu 7,11,13
	cror 30,28,30
	bne- 7,.L85
	.loc 1 5956 0 is_stmt 1
	lfs 10,8(3)
	fcmpu 7,10,0
	cror 30,29,30
	bne- 7,.L87
	.loc 1 5956 0 is_stmt 0 discriminator 2
	fcmpu 7,10,13
	cror 30,28,30
	bne- 7,.L87
	.loc 1 5957 0 is_stmt 1
	lfs 9,12(3)
	fcmpu 7,9,0
	cror 30,29,30
	bne- 7,.L89
	.loc 1 5957 0 is_stmt 0 discriminator 2
	fcmpu 7,9,13
	cror 30,28,30
	bne- 7,.L89
	.loc 1 5967 0 is_stmt 1
	lis 9,.LC7@ha
	lis 11,.LC21@ha
	lfs 0,.LC7@l(9)
	lis 9,.LC23@ha
	lfs 13,.LC21@l(11)
	.loc 1 5966 0
	slwi 4,4,2
.LVL70:
	.loc 1 5967 0
	fmuls 9,9,0
	lfs 0,.LC23@l(9)
	fadd 9,9,13
	fcmpu 7,9,0
	cror 30,29,30
	beq- 7,.L91
	.loc 1 5961 0
	lis 10,.LC14@ha
	lfs 13,.LC21@l(11)
	lfs 0,.LC14@l(10)
	.loc 1 5967 0
	fctiwz 9,9
	addi 8,1,36
	.loc 1 5961 0
	fmuls 12,12,0
	lfs 0,.LC23@l(9)
	.loc 1 5967 0
	stfiwx 9,0,8
	.loc 1 5961 0
	fadd 12,12,13
	.loc 1 5967 0
	lwz 7,36(1)
	rlwinm 8,7,0,30,31
	.loc 1 5961 0
	fcmpu 7,12,0
	cror 30,29,30
	beq- 7,.L93
.L99:
	.loc 1 5963 0
	lfs 0,.LC14@l(10)
	.loc 1 5961 0
	fctiwz 12,12
	.loc 1 5963 0
	lfs 13,.LC21@l(11)
	.loc 1 5961 0
	addi 7,1,28
	.loc 1 5963 0
	fmuls 11,11,0
	lfs 0,.LC23@l(9)
	.loc 1 5961 0
	stfiwx 12,0,7
	.loc 1 5963 0
	fadd 11,11,13
	.loc 1 5961 0
	lwz 7,28(1)
	slwi 0,7,22
	.loc 1 5963 0
	fcmpu 7,11,0
	.loc 1 5962 0
	or 7,8,0
	.loc 1 5963 0
	cror 30,29,30
	beq- 7,.L95
.L100:
	.loc 1 5965 0
	lfs 0,.LC14@l(10)
	.loc 1 5963 0
	fctiwz 11,11
	.loc 1 5965 0
	lfs 13,.LC21@l(11)
	.loc 1 5963 0
	addi 8,1,20
	.loc 1 5965 0
	fmuls 10,10,0
	lfs 0,.LC23@l(9)
	.loc 1 5963 0
	stfiwx 11,0,8
	.loc 1 5965 0
	fadd 10,10,13
	.loc 1 5963 0
	lwz 8,20(1)
	rlwinm 8,8,12,10,19
	.loc 1 5965 0
	fcmpu 7,10,0
	.loc 1 5964 0
	or 8,7,8
	.loc 1 5965 0
	cror 30,29,30
	beq- 7,.L97
.L101:
	fctiwz 10,10
	addi 9,1,12
	stfiwx 10,0,9
	.loc 1 5968 0
	lwz 0,44(1)
	.loc 1 5965 0
	lwz 9,12(1)
	.loc 1 5968 0
	mtlr 0
	.loc 1 5965 0
	rlwinm 9,9,2,20,29
	.loc 1 5966 0
	or 9,8,9
	stwx 9,5,4
	.loc 1 5968 0
	addi 1,1,40
	.cfi_remember_state
.LCFI40:
	.cfi_def_cfa_offset 0
	blr
.L91:
.LCFI41:
	.cfi_restore_state
	.loc 1 5967 0
	fsub 0,9,0
	addi 10,1,32
	.loc 1 5961 0
	lfs 13,.LC21@l(11)
	.loc 1 5967 0
	fctiwz 0,0
	stfiwx 0,0,10
	.loc 1 5961 0
	lis 10,.LC14@ha
	lfs 0,.LC14@l(10)
	.loc 1 5967 0
	lwz 7,32(1)
	.loc 1 5961 0
	fmuls 12,12,0
	lfs 0,.LC23@l(9)
	.loc 1 5967 0
	addis 7,7,0x8000
	rlwinm 8,7,0,30,31
	.loc 1 5961 0
	fadd 12,12,13
	fcmpu 7,12,0
	cror 30,29,30
	bne+ 7,.L99
.L93:
	fsub 0,12,0
	addi 7,1,24
	.loc 1 5963 0
	lfs 13,.LC21@l(11)
	.loc 1 5961 0
	fctiwz 0,0
	stfiwx 0,0,7
	.loc 1 5963 0
	lfs 0,.LC14@l(10)
	.loc 1 5961 0
	lwz 7,24(1)
	.loc 1 5963 0
	fmuls 11,11,0
	lfs 0,.LC23@l(9)
	.loc 1 5961 0
	addis 7,7,0x8000
	slwi 0,7,22
	.loc 1 5963 0
	fadd 11,11,13
	.loc 1 5962 0
	or 7,8,0
	.loc 1 5963 0
	fcmpu 7,11,0
	cror 30,29,30
	bne+ 7,.L100
.L95:
	fsub 0,11,0
	addi 8,1,16
	.loc 1 5965 0
	lfs 13,.LC21@l(11)
	.loc 1 5963 0
	fctiwz 0,0
	stfiwx 0,0,8
	.loc 1 5965 0
	lfs 0,.LC14@l(10)
	.loc 1 5963 0
	lwz 8,16(1)
	.loc 1 5965 0
	fmuls 10,10,0
	lfs 0,.LC23@l(9)
	.loc 1 5963 0
	addis 8,8,0x8000
	rlwinm 8,8,12,10,19
	.loc 1 5965 0
	fadd 10,10,13
	.loc 1 5964 0
	or 8,7,8
	.loc 1 5965 0
	fcmpu 7,10,0
	cror 30,29,30
	bne+ 7,.L101
.L97:
	fsub 0,10,0
	addi 10,1,8
	fctiwz 0,0
	stfiwx 0,0,10
	.loc 1 5968 0
	lwz 0,44(1)
	.loc 1 5965 0
	lwz 9,8(1)
	.loc 1 5968 0
	mtlr 0
	.loc 1 5965 0
	addis 9,9,0x8000
	rlwinm 9,9,2,20,29
	.loc 1 5966 0
	or 9,8,9
	stwx 9,5,4
	.loc 1 5968 0
	addi 1,1,40
	.cfi_remember_state
.LCFI42:
	.cfi_def_cfa_offset 0
	blr
.LVL71:
.L87:
.LCFI43:
	.cfi_restore_state
	.loc 1 5956 0 discriminator 1
	lis 5,.LANCHOR0@ha
.LVL72:
	lis 3,.LC15@ha
.LVL73:
	la 5,.LANCHOR0@l(5)
	lis 6,.LC18@ha
	la 3,.LC15@l(3)
	li 4,5956
.LVL74:
	addi 5,5,16
	la 6,.LC18@l(6)
	bl __assert_func
.LVL75:
.L85:
	.loc 1 5955 0 discriminator 1
	lis 5,.LANCHOR0@ha
.LVL76:
	lis 3,.LC15@ha
.LVL77:
	la 5,.LANCHOR0@l(5)
	lis 6,.LC17@ha
	la 3,.LC15@l(3)
	li 4,5955
.LVL78:
	addi 5,5,16
	la 6,.LC17@l(6)
	bl __assert_func
.LVL79:
.L89:
	.loc 1 5957 0 discriminator 1
	lis 5,.LANCHOR0@ha
.LVL80:
	lis 3,.LC15@ha
.LVL81:
	la 5,.LANCHOR0@l(5)
	lis 6,.LC19@ha
	la 3,.LC15@l(3)
	li 4,5957
.LVL82:
	addi 5,5,16
	la 6,.LC19@l(6)
	bl __assert_func
.LVL83:
.L83:
	.loc 1 5954 0 discriminator 1
	lis 5,.LANCHOR0@ha
.LVL84:
	lis 3,.LC15@ha
.LVL85:
	la 5,.LANCHOR0@l(5)
	lis 6,.LC16@ha
	la 3,.LC15@l(3)
	li 4,5954
.LVL86:
	addi 5,5,16
	la 6,.LC16@l(6)
	bl __assert_func
	.cfi_endproc
.LFE71:
	.size	shove1010102, .-shove1010102
	.align 2
	.type	shove8888rev, @function
shove8888rev:
.LFB69:
	.loc 1 5900 0
	.cfi_startproc
.LVL87:
	mflr 0
	stwu 1,-40(1)
.LCFI44:
	.cfi_def_cfa_offset 40
	.cfi_register 65, 0
	.loc 1 5906 0
	lis 7,.LC24@ha
	lfs 0,.LC24@l(7)
	.loc 1 5900 0
	stw 0,44(1)
	.loc 1 5906 0
	lfs 12,0(3)
	fcmpu 7,12,0
	cror 30,29,30
	bne- 7,.L103
	.cfi_offset 65, 4
	.loc 1 5906 0 is_stmt 0 discriminator 2
	lis 9,.LC3@ha
	lfs 13,.LC3@l(9)
	fcmpu 7,12,13
	cror 30,28,30
	bne- 7,.L103
	.loc 1 5907 0 is_stmt 1
	lfs 11,4(3)
	fcmpu 7,11,0
	cror 30,29,30
	bne- 7,.L105
	.loc 1 5907 0 is_stmt 0 discriminator 2
	fcmpu 7,11,13
	cror 30,28,30
	bne- 7,.L105
	.loc 1 5908 0 is_stmt 1
	lfs 10,8(3)
	fcmpu 7,10,0
	cror 30,29,30
	bne- 7,.L107
	.loc 1 5908 0 is_stmt 0 discriminator 2
	fcmpu 7,10,13
	cror 30,28,30
	bne- 7,.L107
	.loc 1 5909 0 is_stmt 1
	lfs 9,12(3)
	fcmpu 7,9,0
	cror 30,29,30
	bne- 7,.L109
	.loc 1 5909 0 is_stmt 0 discriminator 2
	fcmpu 7,9,13
	cror 30,28,30
	bne- 7,.L109
	.loc 1 5919 0 is_stmt 1
	lis 10,.LC13@ha
	lis 11,.LC21@ha
	lfs 0,.LC13@l(10)
	lis 9,.LC23@ha
	lfs 13,.LC21@l(11)
	.loc 1 5918 0
	slwi 4,4,2
.LVL88:
	.loc 1 5919 0
	fmuls 9,9,0
	lfs 0,.LC23@l(9)
	fadd 9,9,13
	fcmpu 7,9,0
	cror 30,29,30
	beq- 7,.L111
	.loc 1 5913 0
	lfs 0,.LC13@l(10)
	.loc 1 5919 0
	fctiwz 9,9
	.loc 1 5913 0
	lfs 13,.LC21@l(11)
	.loc 1 5919 0
	addi 8,1,36
	.loc 1 5913 0
	fmuls 12,12,0
	lfs 0,.LC23@l(9)
	.loc 1 5919 0
	stfiwx 9,0,8
	.loc 1 5913 0
	fadd 12,12,13
	.loc 1 5919 0
	lwz 7,36(1)
	slwi 8,7,24
	.loc 1 5913 0
	fcmpu 7,12,0
	cror 30,29,30
	beq- 7,.L113
.L119:
	.loc 1 5915 0
	lfs 0,.LC13@l(10)
	.loc 1 5913 0
	fctiwz 12,12
	.loc 1 5915 0
	lfs 13,.LC21@l(11)
	.loc 1 5913 0
	addi 7,1,28
	.loc 1 5915 0
	fmuls 11,11,0
	lfs 0,.LC23@l(9)
	.loc 1 5913 0
	stfiwx 12,0,7
	.loc 1 5915 0
	fadd 11,11,13
	.loc 1 5913 0
	lwz 7,28(1)
	rlwinm 0,7,0,24,31
	.loc 1 5915 0
	fcmpu 7,11,0
	.loc 1 5914 0
	or 7,8,0
	.loc 1 5915 0
	cror 30,29,30
	beq- 7,.L115
.L120:
	.loc 1 5917 0
	lfs 0,.LC13@l(10)
	.loc 1 5915 0
	fctiwz 11,11
	.loc 1 5917 0
	lfs 13,.LC21@l(11)
	.loc 1 5915 0
	addi 8,1,20
	.loc 1 5917 0
	fmuls 10,10,0
	lfs 0,.LC23@l(9)
	.loc 1 5915 0
	stfiwx 11,0,8
	.loc 1 5917 0
	fadd 10,10,13
	.loc 1 5915 0
	lwz 8,20(1)
	rlwinm 8,8,8,16,23
	.loc 1 5917 0
	fcmpu 7,10,0
	.loc 1 5916 0
	or 8,7,8
	.loc 1 5917 0
	cror 30,29,30
	beq- 7,.L117
.L121:
	fctiwz 10,10
	addi 9,1,12
	stfiwx 10,0,9
	.loc 1 5920 0
	lwz 0,44(1)
	.loc 1 5917 0
	lwz 9,12(1)
	.loc 1 5920 0
	mtlr 0
	.loc 1 5917 0
	rlwinm 9,9,16,8,15
	.loc 1 5918 0
	or 9,8,9
	stwx 9,5,4
	.loc 1 5920 0
	addi 1,1,40
	.cfi_remember_state
.LCFI45:
	.cfi_def_cfa_offset 0
	blr
.L111:
.LCFI46:
	.cfi_restore_state
	.loc 1 5919 0
	fsub 0,9,0
	addi 7,1,32
	.loc 1 5913 0
	lfs 13,.LC21@l(11)
	.loc 1 5919 0
	fctiwz 0,0
	stfiwx 0,0,7
	.loc 1 5913 0
	lfs 0,.LC13@l(10)
	.loc 1 5919 0
	lwz 7,32(1)
	.loc 1 5913 0
	fmuls 12,12,0
	lfs 0,.LC23@l(9)
	.loc 1 5919 0
	addis 7,7,0x8000
	slwi 8,7,24
	.loc 1 5913 0
	fadd 12,12,13
	fcmpu 7,12,0
	cror 30,29,30
	bne+ 7,.L119
.L113:
	fsub 0,12,0
	addi 7,1,24
	.loc 1 5915 0
	lfs 13,.LC21@l(11)
	.loc 1 5913 0
	fctiwz 0,0
	stfiwx 0,0,7
	.loc 1 5915 0
	lfs 0,.LC13@l(10)
	.loc 1 5913 0
	lwz 7,24(1)
	.loc 1 5915 0
	fmuls 11,11,0
	lfs 0,.LC23@l(9)
	.loc 1 5913 0
	addis 7,7,0x8000
	rlwinm 0,7,0,24,31
	.loc 1 5915 0
	fadd 11,11,13
	.loc 1 5914 0
	or 7,8,0
	.loc 1 5915 0
	fcmpu 7,11,0
	cror 30,29,30
	bne+ 7,.L120
.L115:
	fsub 0,11,0
	addi 8,1,16
	.loc 1 5917 0
	lfs 13,.LC21@l(11)
	.loc 1 5915 0
	fctiwz 0,0
	stfiwx 0,0,8
	.loc 1 5917 0
	lfs 0,.LC13@l(10)
	.loc 1 5915 0
	lwz 8,16(1)
	.loc 1 5917 0
	fmuls 10,10,0
	lfs 0,.LC23@l(9)
	.loc 1 5915 0
	addis 8,8,0x8000
	rlwinm 8,8,8,16,23
	.loc 1 5917 0
	fadd 10,10,13
	.loc 1 5916 0
	or 8,7,8
	.loc 1 5917 0
	fcmpu 7,10,0
	cror 30,29,30
	bne+ 7,.L121
.L117:
	fsub 0,10,0
	addi 7,1,8
	fctiwz 0,0
	stfiwx 0,0,7
	.loc 1 5920 0
	lwz 0,44(1)
	.loc 1 5917 0
	lwz 9,8(1)
	.loc 1 5920 0
	mtlr 0
	.loc 1 5917 0
	addis 9,9,0x8000
	rlwinm 9,9,16,8,15
	.loc 1 5918 0
	or 9,8,9
	stwx 9,5,4
	.loc 1 5920 0
	addi 1,1,40
	.cfi_remember_state
.LCFI47:
	.cfi_def_cfa_offset 0
	blr
.LVL89:
.L107:
.LCFI48:
	.cfi_restore_state
	.loc 1 5908 0 discriminator 1
	lis 5,.LANCHOR0@ha
.LVL90:
	lis 3,.LC15@ha
.LVL91:
	la 5,.LANCHOR0@l(5)
	lis 6,.LC18@ha
	la 3,.LC15@l(3)
	li 4,5908
.LVL92:
	addi 5,5,32
	la 6,.LC18@l(6)
	bl __assert_func
.LVL93:
.L105:
	.loc 1 5907 0 discriminator 1
	lis 5,.LANCHOR0@ha
.LVL94:
	lis 3,.LC15@ha
.LVL95:
	la 5,.LANCHOR0@l(5)
	lis 6,.LC17@ha
	la 3,.LC15@l(3)
	li 4,5907
.LVL96:
	addi 5,5,32
	la 6,.LC17@l(6)
	bl __assert_func
.LVL97:
.L109:
	.loc 1 5909 0 discriminator 1
	lis 5,.LANCHOR0@ha
.LVL98:
	lis 3,.LC15@ha
.LVL99:
	la 5,.LANCHOR0@l(5)
	lis 6,.LC19@ha
	la 3,.LC15@l(3)
	li 4,5909
.LVL100:
	addi 5,5,32
	la 6,.LC19@l(6)
	bl __assert_func
.LVL101:
.L103:
	.loc 1 5906 0 discriminator 1
	lis 5,.LANCHOR0@ha
.LVL102:
	lis 3,.LC15@ha
.LVL103:
	la 5,.LANCHOR0@l(5)
	lis 6,.LC16@ha
	la 3,.LC15@l(3)
	li 4,5906
.LVL104:
	addi 5,5,32
	la 6,.LC16@l(6)
	bl __assert_func
	.cfi_endproc
.LFE69:
	.size	shove8888rev, .-shove8888rev
	.align 2
	.type	shove8888, @function
shove8888:
.LFB67:
	.loc 1 5852 0
	.cfi_startproc
.LVL105:
	mflr 0
	stwu 1,-40(1)
.LCFI49:
	.cfi_def_cfa_offset 40
	.cfi_register 65, 0
	.loc 1 5858 0
	lis 7,.LC24@ha
	lfs 0,.LC24@l(7)
	.loc 1 5852 0
	stw 0,44(1)
	.loc 1 5858 0
	lfs 12,0(3)
	fcmpu 7,12,0
	cror 30,29,30
	bne- 7,.L123
	.cfi_offset 65, 4
	.loc 1 5858 0 is_stmt 0 discriminator 2
	lis 9,.LC3@ha
	lfs 13,.LC3@l(9)
	fcmpu 7,12,13
	cror 30,28,30
	bne- 7,.L123
	.loc 1 5859 0 is_stmt 1
	lfs 11,4(3)
	fcmpu 7,11,0
	cror 30,29,30
	bne- 7,.L125
	.loc 1 5859 0 is_stmt 0 discriminator 2
	fcmpu 7,11,13
	cror 30,28,30
	bne- 7,.L125
	.loc 1 5860 0 is_stmt 1
	lfs 10,8(3)
	fcmpu 7,10,0
	cror 30,29,30
	bne- 7,.L127
	.loc 1 5860 0 is_stmt 0 discriminator 2
	fcmpu 7,10,13
	cror 30,28,30
	bne- 7,.L127
	.loc 1 5861 0 is_stmt 1
	lfs 9,12(3)
	fcmpu 7,9,0
	cror 30,29,30
	bne- 7,.L129
	.loc 1 5861 0 is_stmt 0 discriminator 2
	fcmpu 7,9,13
	cror 30,28,30
	bne- 7,.L129
	.loc 1 5871 0 is_stmt 1
	lis 10,.LC13@ha
	lis 11,.LC21@ha
	lfs 0,.LC13@l(10)
	lis 9,.LC23@ha
	lfs 13,.LC21@l(11)
	.loc 1 5870 0
	slwi 4,4,2
.LVL106:
	.loc 1 5871 0
	fmuls 9,9,0
	lfs 0,.LC23@l(9)
	fadd 9,9,13
	fcmpu 7,9,0
	cror 30,29,30
	beq- 7,.L131
	.loc 1 5865 0
	lfs 0,.LC13@l(10)
	.loc 1 5871 0
	fctiwz 9,9
	.loc 1 5865 0
	lfs 13,.LC21@l(11)
	.loc 1 5871 0
	addi 8,1,36
	.loc 1 5865 0
	fmuls 12,12,0
	lfs 0,.LC23@l(9)
	.loc 1 5871 0
	stfiwx 9,0,8
	.loc 1 5865 0
	fadd 12,12,13
	.loc 1 5871 0
	lwz 7,36(1)
	rlwinm 8,7,0,24,31
	.loc 1 5865 0
	fcmpu 7,12,0
	cror 30,29,30
	beq- 7,.L133
.L139:
	.loc 1 5867 0
	lfs 0,.LC13@l(10)
	.loc 1 5865 0
	fctiwz 12,12
	.loc 1 5867 0
	lfs 13,.LC21@l(11)
	.loc 1 5865 0
	addi 7,1,28
	.loc 1 5867 0
	fmuls 11,11,0
	lfs 0,.LC23@l(9)
	.loc 1 5865 0
	stfiwx 12,0,7
	.loc 1 5867 0
	fadd 11,11,13
	.loc 1 5865 0
	lwz 7,28(1)
	slwi 0,7,24
	.loc 1 5867 0
	fcmpu 7,11,0
	.loc 1 5866 0
	or 7,8,0
	.loc 1 5867 0
	cror 30,29,30
	beq- 7,.L135
.L140:
	.loc 1 5869 0
	lfs 0,.LC13@l(10)
	.loc 1 5867 0
	fctiwz 11,11
	.loc 1 5869 0
	lfs 13,.LC21@l(11)
	.loc 1 5867 0
	addi 8,1,20
	.loc 1 5869 0
	fmuls 10,10,0
	lfs 0,.LC23@l(9)
	.loc 1 5867 0
	stfiwx 11,0,8
	.loc 1 5869 0
	fadd 10,10,13
	.loc 1 5867 0
	lwz 8,20(1)
	rlwinm 8,8,16,8,15
	.loc 1 5869 0
	fcmpu 7,10,0
	.loc 1 5868 0
	or 8,7,8
	.loc 1 5869 0
	cror 30,29,30
	beq- 7,.L137
.L141:
	fctiwz 10,10
	addi 9,1,12
	stfiwx 10,0,9
	.loc 1 5872 0
	lwz 0,44(1)
	.loc 1 5869 0
	lwz 9,12(1)
	.loc 1 5872 0
	mtlr 0
	.loc 1 5869 0
	rlwinm 9,9,8,16,23
	.loc 1 5870 0
	or 9,8,9
	stwx 9,5,4
	.loc 1 5872 0
	addi 1,1,40
	.cfi_remember_state
.LCFI50:
	.cfi_def_cfa_offset 0
	blr
.L131:
.LCFI51:
	.cfi_restore_state
	.loc 1 5871 0
	fsub 0,9,0
	addi 7,1,32
	.loc 1 5865 0
	lfs 13,.LC21@l(11)
	.loc 1 5871 0
	fctiwz 0,0
	stfiwx 0,0,7
	.loc 1 5865 0
	lfs 0,.LC13@l(10)
	.loc 1 5871 0
	lwz 7,32(1)
	.loc 1 5865 0
	fmuls 12,12,0
	lfs 0,.LC23@l(9)
	.loc 1 5871 0
	addis 7,7,0x8000
	rlwinm 8,7,0,24,31
	.loc 1 5865 0
	fadd 12,12,13
	fcmpu 7,12,0
	cror 30,29,30
	bne+ 7,.L139
.L133:
	fsub 0,12,0
	addi 7,1,24
	.loc 1 5867 0
	lfs 13,.LC21@l(11)
	.loc 1 5865 0
	fctiwz 0,0
	stfiwx 0,0,7
	.loc 1 5867 0
	lfs 0,.LC13@l(10)
	.loc 1 5865 0
	lwz 7,24(1)
	.loc 1 5867 0
	fmuls 11,11,0
	lfs 0,.LC23@l(9)
	.loc 1 5865 0
	addis 7,7,0x8000
	slwi 0,7,24
	.loc 1 5867 0
	fadd 11,11,13
	.loc 1 5866 0
	or 7,8,0
	.loc 1 5867 0
	fcmpu 7,11,0
	cror 30,29,30
	bne+ 7,.L140
.L135:
	fsub 0,11,0
	addi 8,1,16
	.loc 1 5869 0
	lfs 13,.LC21@l(11)
	.loc 1 5867 0
	fctiwz 0,0
	stfiwx 0,0,8
	.loc 1 5869 0
	lfs 0,.LC13@l(10)
	.loc 1 5867 0
	lwz 8,16(1)
	.loc 1 5869 0
	fmuls 10,10,0
	lfs 0,.LC23@l(9)
	.loc 1 5867 0
	addis 8,8,0x8000
	rlwinm 8,8,16,8,15
	.loc 1 5869 0
	fadd 10,10,13
	.loc 1 5868 0
	or 8,7,8
	.loc 1 5869 0
	fcmpu 7,10,0
	cror 30,29,30
	bne+ 7,.L141
.L137:
	fsub 0,10,0
	addi 7,1,8
	fctiwz 0,0
	stfiwx 0,0,7
	.loc 1 5872 0
	lwz 0,44(1)
	.loc 1 5869 0
	lwz 9,8(1)
	.loc 1 5872 0
	mtlr 0
	.loc 1 5869 0
	addis 9,9,0x8000
	rlwinm 9,9,8,16,23
	.loc 1 5870 0
	or 9,8,9
	stwx 9,5,4
	.loc 1 5872 0
	addi 1,1,40
	.cfi_remember_state
.LCFI52:
	.cfi_def_cfa_offset 0
	blr
.LVL107:
.L127:
.LCFI53:
	.cfi_restore_state
	.loc 1 5860 0 discriminator 1
	lis 5,.LANCHOR0@ha
.LVL108:
	lis 3,.LC15@ha
.LVL109:
	la 5,.LANCHOR0@l(5)
	lis 6,.LC18@ha
	la 3,.LC15@l(3)
	li 4,5860
.LVL110:
	addi 5,5,48
	la 6,.LC18@l(6)
	bl __assert_func
.LVL111:
.L125:
	.loc 1 5859 0 discriminator 1
	lis 5,.LANCHOR0@ha
.LVL112:
	lis 3,.LC15@ha
.LVL113:
	la 5,.LANCHOR0@l(5)
	lis 6,.LC17@ha
	la 3,.LC15@l(3)
	li 4,5859
.LVL114:
	addi 5,5,48
	la 6,.LC17@l(6)
	bl __assert_func
.LVL115:
.L129:
	.loc 1 5861 0 discriminator 1
	lis 5,.LANCHOR0@ha
.LVL116:
	lis 3,.LC15@ha
.LVL117:
	la 5,.LANCHOR0@l(5)
	lis 6,.LC19@ha
	la 3,.LC15@l(3)
	li 4,5861
.LVL118:
	addi 5,5,48
	la 6,.LC19@l(6)
	bl __assert_func
.LVL119:
.L123:
	.loc 1 5858 0 discriminator 1
	lis 5,.LANCHOR0@ha
.LVL120:
	lis 3,.LC15@ha
.LVL121:
	la 5,.LANCHOR0@l(5)
	lis 6,.LC16@ha
	la 3,.LC15@l(3)
	li 4,5858
.LVL122:
	addi 5,5,48
	la 6,.LC16@l(6)
	bl __assert_func
	.cfi_endproc
.LFE67:
	.size	shove8888, .-shove8888
	.align 2
	.type	shove1555rev, @function
shove1555rev:
.LFB65:
	.loc 1 5804 0
	.cfi_startproc
.LVL123:
	mflr 0
	stwu 1,-24(1)
.LCFI54:
	.cfi_def_cfa_offset 24
	.cfi_register 65, 0
	.loc 1 5810 0
	lis 9,.LC24@ha
	lfs 0,.LC24@l(9)
	.loc 1 5804 0
	stw 0,28(1)
	.loc 1 5810 0
	lfs 12,0(3)
	fcmpu 7,12,0
	cror 30,29,30
	bne- 7,.L143
	.cfi_offset 65, 4
	.loc 1 5810 0 is_stmt 0 discriminator 2
	lis 9,.LC3@ha
	lfs 13,.LC3@l(9)
	fcmpu 7,12,13
	cror 30,28,30
	bne- 7,.L143
	.loc 1 5811 0 is_stmt 1
	lfs 11,4(3)
	fcmpu 7,11,0
	cror 30,29,30
	bne- 7,.L145
	.loc 1 5811 0 is_stmt 0 discriminator 2
	fcmpu 7,11,13
	cror 30,28,30
	bne- 7,.L145
	.loc 1 5812 0 is_stmt 1
	lfs 10,8(3)
	fcmpu 7,10,0
	cror 30,29,30
	bne- 7,.L147
	.loc 1 5812 0 is_stmt 0 discriminator 2
	fcmpu 7,10,13
	cror 30,28,30
	bne- 7,.L147
	.loc 1 5813 0 is_stmt 1
	lfs 9,12(3)
	fcmpu 7,9,0
	cror 30,29,30
	bne- 7,.L149
	.loc 1 5813 0 is_stmt 0 discriminator 2
	fcmpu 7,9,13
	cror 30,28,30
	bne- 7,.L149
	.loc 1 5817 0 is_stmt 1
	lis 9,.LC8@ha
	.loc 1 5822 0
	slwi 4,4,1
.LVL124:
	.loc 1 5817 0
	lfs 0,.LC8@l(9)
	.loc 1 5823 0
	lis 9,.LC21@ha
	.loc 1 5817 0
	fmuls 12,12,0
	.loc 1 5819 0
	fmuls 11,11,0
	.loc 1 5821 0
	fmuls 10,10,0
	.loc 1 5823 0
	lfs 0,.LC21@l(9)
	addi 9,1,8
	fadd 9,9,0
	.loc 1 5817 0
	fadd 12,12,0
	.loc 1 5819 0
	fadd 11,11,0
	.loc 1 5823 0
	fctiwz 9,9
	.loc 1 5821 0
	fadd 0,10,0
	.loc 1 5817 0
	fctiwz 12,12
	.loc 1 5819 0
	fctiwz 11,11
	.loc 1 5823 0
	stfiwx 9,0,9
	.loc 1 5817 0
	addi 9,1,12
	.loc 1 5821 0
	fctiwz 0,0
	.loc 1 5817 0
	stfiwx 12,0,9
	.loc 1 5819 0
	addi 9,1,16
	stfiwx 11,0,9
	.loc 1 5821 0
	addi 9,1,20
	.loc 1 5823 0
	lwz 10,8(1)
	.loc 1 5817 0
	lwz 0,12(1)
	.loc 1 5821 0
	stfiwx 0,0,9
	.loc 1 5823 0
	rlwinm 10,10,15,1,16
	.loc 1 5816 0
	rlwinm 0,0,0,27,31
	.loc 1 5819 0
	lwz 11,16(1)
	.loc 1 5818 0
	or 0,10,0
	.loc 1 5821 0
	lwz 9,20(1)
	.loc 1 5818 0
	rlwinm 11,11,5,22,26
	.loc 1 5820 0
	or 0,0,11
	rlwinm 9,9,10,17,21
	.loc 1 5822 0
	or 0,0,9
	sthx 0,5,4
	.loc 1 5824 0
	lwz 0,28(1)
	addi 1,1,24
	.cfi_remember_state
.LCFI55:
	.cfi_def_cfa_offset 0
	mtlr 0
	blr
.LVL125:
.L143:
.LCFI56:
	.cfi_restore_state
	.loc 1 5810 0 discriminator 1
	lis 5,.LANCHOR0@ha
.LVL126:
	lis 3,.LC15@ha
.LVL127:
	la 5,.LANCHOR0@l(5)
	lis 6,.LC16@ha
	la 3,.LC15@l(3)
	li 4,5810
.LVL128:
	addi 5,5,60
	la 6,.LC16@l(6)
	bl __assert_func
.LVL129:
.L149:
	.loc 1 5813 0 discriminator 1
	lis 5,.LANCHOR0@ha
.LVL130:
	lis 3,.LC15@ha
.LVL131:
	la 5,.LANCHOR0@l(5)
	lis 6,.LC19@ha
	la 3,.LC15@l(3)
	li 4,5813
.LVL132:
	addi 5,5,60
	la 6,.LC19@l(6)
	bl __assert_func
.LVL133:
.L147:
	.loc 1 5812 0 discriminator 1
	lis 5,.LANCHOR0@ha
.LVL134:
	lis 3,.LC15@ha
.LVL135:
	la 5,.LANCHOR0@l(5)
	lis 6,.LC18@ha
	la 3,.LC15@l(3)
	li 4,5812
.LVL136:
	addi 5,5,60
	la 6,.LC18@l(6)
	bl __assert_func
.LVL137:
.L145:
	.loc 1 5811 0 discriminator 1
	lis 5,.LANCHOR0@ha
.LVL138:
	lis 3,.LC15@ha
.LVL139:
	la 5,.LANCHOR0@l(5)
	lis 6,.LC17@ha
	la 3,.LC15@l(3)
	li 4,5811
.LVL140:
	addi 5,5,60
	la 6,.LC17@l(6)
	bl __assert_func
	.cfi_endproc
.LFE65:
	.size	shove1555rev, .-shove1555rev
	.align 2
	.type	shove5551, @function
shove5551:
.LFB63:
	.loc 1 5756 0
	.cfi_startproc
.LVL141:
	mflr 0
	stwu 1,-24(1)
.LCFI57:
	.cfi_def_cfa_offset 24
	.cfi_register 65, 0
	.loc 1 5762 0
	lis 9,.LC24@ha
	lfs 0,.LC24@l(9)
	.loc 1 5756 0
	stw 0,28(1)
	.loc 1 5762 0
	lfs 12,0(3)
	fcmpu 7,12,0
	cror 30,29,30
	bne- 7,.L152
	.cfi_offset 65, 4
	.loc 1 5762 0 is_stmt 0 discriminator 2
	lis 9,.LC3@ha
	lfs 13,.LC3@l(9)
	fcmpu 7,12,13
	cror 30,28,30
	bne- 7,.L152
	.loc 1 5763 0 is_stmt 1
	lfs 11,4(3)
	fcmpu 7,11,0
	cror 30,29,30
	bne- 7,.L154
	.loc 1 5763 0 is_stmt 0 discriminator 2
	fcmpu 7,11,13
	cror 30,28,30
	bne- 7,.L154
	.loc 1 5764 0 is_stmt 1
	lfs 10,8(3)
	fcmpu 7,10,0
	cror 30,29,30
	bne- 7,.L156
	.loc 1 5764 0 is_stmt 0 discriminator 2
	fcmpu 7,10,13
	cror 30,28,30
	bne- 7,.L156
	.loc 1 5765 0 is_stmt 1
	lfs 9,12(3)
	fcmpu 7,9,0
	cror 30,29,30
	bne- 7,.L158
	.loc 1 5765 0 is_stmt 0 discriminator 2
	fcmpu 7,9,13
	cror 30,28,30
	bne- 7,.L158
	.loc 1 5769 0 is_stmt 1
	lis 9,.LC8@ha
	.loc 1 5774 0
	slwi 4,4,1
.LVL142:
	.loc 1 5769 0
	lfs 0,.LC8@l(9)
	lis 9,.LC21@ha
	fmuls 12,12,0
	.loc 1 5771 0
	fmuls 11,11,0
	.loc 1 5773 0
	fmuls 10,10,0
	.loc 1 5769 0
	lfs 0,.LC21@l(9)
	addi 9,1,8
	fadd 12,12,0
	.loc 1 5771 0
	fadd 11,11,0
	.loc 1 5775 0
	fadd 9,9,0
	.loc 1 5769 0
	fctiwz 12,12
	.loc 1 5773 0
	fadd 0,10,0
	.loc 1 5771 0
	fctiwz 11,11
	.loc 1 5775 0
	fctiwz 9,9
	.loc 1 5769 0
	stfiwx 12,0,9
	.loc 1 5771 0
	addi 9,1,12
	.loc 1 5773 0
	fctiwz 0,0
	.loc 1 5771 0
	stfiwx 11,0,9
	.loc 1 5775 0
	addi 9,1,16
	stfiwx 9,0,9
	.loc 1 5773 0
	addi 9,1,20
	.loc 1 5769 0
	lwz 10,8(1)
	.loc 1 5771 0
	lwz 0,12(1)
	.loc 1 5773 0
	stfiwx 0,0,9
	.loc 1 5769 0
	rlwinm 10,10,11,5,20
	.loc 1 5770 0
	rlwinm 0,0,6,21,25
	.loc 1 5775 0
	lwz 11,16(1)
	.loc 1 5770 0
	or 0,10,0
	.loc 1 5773 0
	lwz 9,20(1)
	.loc 1 5774 0
	rlwinm 11,11,0,31,31
	.loc 1 5772 0
	or 0,0,11
	rlwinm 9,9,1,26,30
	.loc 1 5774 0
	or 0,0,9
	sthx 0,5,4
	.loc 1 5776 0
	lwz 0,28(1)
	addi 1,1,24
	.cfi_remember_state
.LCFI58:
	.cfi_def_cfa_offset 0
	mtlr 0
	blr
.LVL143:
.L152:
.LCFI59:
	.cfi_restore_state
	.loc 1 5762 0 discriminator 1
	lis 5,.LANCHOR0@ha
.LVL144:
	lis 3,.LC15@ha
.LVL145:
	la 5,.LANCHOR0@l(5)
	lis 6,.LC16@ha
	la 3,.LC15@l(3)
	li 4,5762
.LVL146:
	addi 5,5,76
	la 6,.LC16@l(6)
	bl __assert_func
.LVL147:
.L158:
	.loc 1 5765 0 discriminator 1
	lis 5,.LANCHOR0@ha
.LVL148:
	lis 3,.LC15@ha
.LVL149:
	la 5,.LANCHOR0@l(5)
	lis 6,.LC19@ha
	la 3,.LC15@l(3)
	li 4,5765
.LVL150:
	addi 5,5,76
	la 6,.LC19@l(6)
	bl __assert_func
.LVL151:
.L156:
	.loc 1 5764 0 discriminator 1
	lis 5,.LANCHOR0@ha
.LVL152:
	lis 3,.LC15@ha
.LVL153:
	la 5,.LANCHOR0@l(5)
	lis 6,.LC18@ha
	la 3,.LC15@l(3)
	li 4,5764
.LVL154:
	addi 5,5,76
	la 6,.LC18@l(6)
	bl __assert_func
.LVL155:
.L154:
	.loc 1 5763 0 discriminator 1
	lis 5,.LANCHOR0@ha
.LVL156:
	lis 3,.LC15@ha
.LVL157:
	la 5,.LANCHOR0@l(5)
	lis 6,.LC17@ha
	la 3,.LC15@l(3)
	li 4,5763
.LVL158:
	addi 5,5,76
	la 6,.LC17@l(6)
	bl __assert_func
	.cfi_endproc
.LFE63:
	.size	shove5551, .-shove5551
	.align 2
	.type	shove4444rev, @function
shove4444rev:
.LFB61:
	.loc 1 5709 0
	.cfi_startproc
.LVL159:
	mflr 0
	stwu 1,-24(1)
.LCFI60:
	.cfi_def_cfa_offset 24
	.cfi_register 65, 0
	.loc 1 5715 0
	lis 9,.LC24@ha
	lfs 0,.LC24@l(9)
	.loc 1 5709 0
	stw 0,28(1)
	.loc 1 5715 0
	lfs 12,0(3)
	fcmpu 7,12,0
	cror 30,29,30
	bne- 7,.L161
	.cfi_offset 65, 4
	.loc 1 5715 0 is_stmt 0 discriminator 2
	lis 9,.LC3@ha
	lfs 13,.LC3@l(9)
	fcmpu 7,12,13
	cror 30,28,30
	bne- 7,.L161
	.loc 1 5716 0 is_stmt 1
	lfs 11,4(3)
	fcmpu 7,11,0
	cror 30,29,30
	bne- 7,.L163
	.loc 1 5716 0 is_stmt 0 discriminator 2
	fcmpu 7,11,13
	cror 30,28,30
	bne- 7,.L163
	.loc 1 5717 0 is_stmt 1
	lfs 10,8(3)
	fcmpu 7,10,0
	cror 30,29,30
	bne- 7,.L165
	.loc 1 5717 0 is_stmt 0 discriminator 2
	fcmpu 7,10,13
	cror 30,28,30
	bne- 7,.L165
	.loc 1 5718 0 is_stmt 1
	lfs 9,12(3)
	fcmpu 7,9,0
	cror 30,29,30
	bne- 7,.L167
	.loc 1 5718 0 is_stmt 0 discriminator 2
	fcmpu 7,9,13
	cror 30,28,30
	bne- 7,.L167
	.loc 1 5728 0 is_stmt 1
	lis 9,.LC10@ha
	.loc 1 5727 0
	slwi 4,4,1
.LVL160:
	.loc 1 5728 0
	lfs 0,.LC10@l(9)
	lis 9,.LC21@ha
	fmuls 9,9,0
	.loc 1 5722 0
	fmuls 12,12,0
	.loc 1 5724 0
	fmuls 11,11,0
	.loc 1 5726 0
	fmuls 10,10,0
	.loc 1 5728 0
	lfs 0,.LC21@l(9)
	addi 9,1,8
	fadd 9,9,0
	.loc 1 5722 0
	fadd 12,12,0
	.loc 1 5724 0
	fadd 11,11,0
	.loc 1 5728 0
	fctiwz 9,9
	.loc 1 5726 0
	fadd 0,10,0
	.loc 1 5722 0
	fctiwz 12,12
	.loc 1 5724 0
	fctiwz 11,11
	.loc 1 5728 0
	stfiwx 9,0,9
	.loc 1 5722 0
	addi 9,1,12
	.loc 1 5726 0
	fctiwz 0,0
	.loc 1 5722 0
	stfiwx 12,0,9
	.loc 1 5724 0
	addi 9,1,16
	stfiwx 11,0,9
	.loc 1 5726 0
	addi 9,1,20
	.loc 1 5728 0
	lwz 10,8(1)
	.loc 1 5722 0
	lwz 0,12(1)
	.loc 1 5726 0
	stfiwx 0,0,9
	.loc 1 5728 0
	rlwinm 10,10,12,4,19
	.loc 1 5721 0
	rlwinm 0,0,0,28,31
	.loc 1 5724 0
	lwz 11,16(1)
	.loc 1 5723 0
	or 0,10,0
	.loc 1 5726 0
	lwz 9,20(1)
	.loc 1 5723 0
	rlwinm 11,11,4,24,27
	.loc 1 5725 0
	or 0,0,11
	rlwinm 9,9,8,20,23
	.loc 1 5727 0
	or 0,0,9
	sthx 0,5,4
	.loc 1 5729 0
	lwz 0,28(1)
	addi 1,1,24
	.cfi_remember_state
.LCFI61:
	.cfi_def_cfa_offset 0
	mtlr 0
	blr
.LVL161:
.L161:
.LCFI62:
	.cfi_restore_state
	.loc 1 5715 0 discriminator 1
	lis 5,.LANCHOR0@ha
.LVL162:
	lis 3,.LC15@ha
.LVL163:
	la 5,.LANCHOR0@l(5)
	lis 6,.LC16@ha
	la 3,.LC15@l(3)
	li 4,5715
.LVL164:
	addi 5,5,88
	la 6,.LC16@l(6)
	bl __assert_func
.LVL165:
.L167:
	.loc 1 5718 0 discriminator 1
	lis 5,.LANCHOR0@ha
.LVL166:
	lis 3,.LC15@ha
.LVL167:
	la 5,.LANCHOR0@l(5)
	lis 6,.LC19@ha
	la 3,.LC15@l(3)
	li 4,5718
.LVL168:
	addi 5,5,88
	la 6,.LC19@l(6)
	bl __assert_func
.LVL169:
.L165:
	.loc 1 5717 0 discriminator 1
	lis 5,.LANCHOR0@ha
.LVL170:
	lis 3,.LC15@ha
.LVL171:
	la 5,.LANCHOR0@l(5)
	lis 6,.LC18@ha
	la 3,.LC15@l(3)
	li 4,5717
.LVL172:
	addi 5,5,88
	la 6,.LC18@l(6)
	bl __assert_func
.LVL173:
.L163:
	.loc 1 5716 0 discriminator 1
	lis 5,.LANCHOR0@ha
.LVL174:
	lis 3,.LC15@ha
.LVL175:
	la 5,.LANCHOR0@l(5)
	lis 6,.LC17@ha
	la 3,.LC15@l(3)
	li 4,5716
.LVL176:
	addi 5,5,88
	la 6,.LC17@l(6)
	bl __assert_func
	.cfi_endproc
.LFE61:
	.size	shove4444rev, .-shove4444rev
	.align 2
	.type	shove4444, @function
shove4444:
.LFB59:
	.loc 1 5666 0
	.cfi_startproc
.LVL177:
	mflr 0
	stwu 1,-24(1)
.LCFI63:
	.cfi_def_cfa_offset 24
	.cfi_register 65, 0
	.loc 1 5667 0
	lis 9,.LC24@ha
	lfs 0,.LC24@l(9)
	.loc 1 5666 0
	stw 0,28(1)
	.loc 1 5667 0
	lfs 12,0(3)
	fcmpu 7,12,0
	cror 30,29,30
	bne- 7,.L170
	.cfi_offset 65, 4
	.loc 1 5667 0 is_stmt 0 discriminator 2
	lis 9,.LC3@ha
	lfs 13,.LC3@l(9)
	fcmpu 7,12,13
	cror 30,28,30
	bne- 7,.L170
	.loc 1 5668 0 is_stmt 1
	lfs 11,4(3)
	fcmpu 7,11,0
	cror 30,29,30
	bne- 7,.L172
	.loc 1 5668 0 is_stmt 0 discriminator 2
	fcmpu 7,11,13
	cror 30,28,30
	bne- 7,.L172
	.loc 1 5669 0 is_stmt 1
	lfs 10,8(3)
	fcmpu 7,10,0
	cror 30,29,30
	bne- 7,.L174
	.loc 1 5669 0 is_stmt 0 discriminator 2
	fcmpu 7,10,13
	cror 30,28,30
	bne- 7,.L174
	.loc 1 5670 0 is_stmt 1
	lfs 9,12(3)
	fcmpu 7,9,0
	cror 30,29,30
	bne- 7,.L176
	.loc 1 5670 0 is_stmt 0 discriminator 2
	fcmpu 7,9,13
	cror 30,28,30
	bne- 7,.L176
	.loc 1 5674 0 is_stmt 1
	lis 9,.LC10@ha
	.loc 1 5679 0
	slwi 4,4,1
.LVL178:
	.loc 1 5674 0
	lfs 0,.LC10@l(9)
	lis 9,.LC21@ha
	fmuls 12,12,0
	.loc 1 5676 0
	fmuls 11,11,0
	.loc 1 5680 0
	fmuls 9,9,0
	.loc 1 5678 0
	fmuls 10,10,0
	.loc 1 5674 0
	lfs 0,.LC21@l(9)
	addi 9,1,8
	fadd 12,12,0
	.loc 1 5676 0
	fadd 11,11,0
	.loc 1 5680 0
	fadd 9,9,0
	.loc 1 5674 0
	fctiwz 12,12
	.loc 1 5678 0
	fadd 0,10,0
	.loc 1 5676 0
	fctiwz 11,11
	.loc 1 5680 0
	fctiwz 9,9
	.loc 1 5674 0
	stfiwx 12,0,9
	.loc 1 5676 0
	addi 9,1,12
	.loc 1 5678 0
	fctiwz 0,0
	.loc 1 5676 0
	stfiwx 11,0,9
	.loc 1 5680 0
	addi 9,1,16
	stfiwx 9,0,9
	.loc 1 5678 0
	addi 9,1,20
	.loc 1 5674 0
	lwz 10,8(1)
	.loc 1 5676 0
	lwz 0,12(1)
	.loc 1 5678 0
	stfiwx 0,0,9
	.loc 1 5674 0
	rlwinm 10,10,12,4,19
	.loc 1 5675 0
	rlwinm 0,0,8,20,23
	.loc 1 5680 0
	lwz 11,16(1)
	.loc 1 5675 0
	or 0,10,0
	.loc 1 5678 0
	lwz 9,20(1)
	.loc 1 5679 0
	rlwinm 11,11,0,28,31
	.loc 1 5677 0
	or 0,0,11
	rlwinm 9,9,4,24,27
	.loc 1 5679 0
	or 0,0,9
	sthx 0,5,4
	.loc 1 5681 0
	lwz 0,28(1)
	addi 1,1,24
	.cfi_remember_state
.LCFI64:
	.cfi_def_cfa_offset 0
	mtlr 0
	blr
.LVL179:
.L170:
.LCFI65:
	.cfi_restore_state
	.loc 1 5667 0 discriminator 1
	lis 5,.LANCHOR0@ha
.LVL180:
	lis 3,.LC15@ha
.LVL181:
	la 5,.LANCHOR0@l(5)
	lis 6,.LC16@ha
	la 3,.LC15@l(3)
	li 4,5667
.LVL182:
	addi 5,5,104
	la 6,.LC16@l(6)
	bl __assert_func
.LVL183:
.L176:
	.loc 1 5670 0 discriminator 1
	lis 5,.LANCHOR0@ha
.LVL184:
	lis 3,.LC15@ha
.LVL185:
	la 5,.LANCHOR0@l(5)
	lis 6,.LC19@ha
	la 3,.LC15@l(3)
	li 4,5670
.LVL186:
	addi 5,5,104
	la 6,.LC19@l(6)
	bl __assert_func
.LVL187:
.L174:
	.loc 1 5669 0 discriminator 1
	lis 5,.LANCHOR0@ha
.LVL188:
	lis 3,.LC15@ha
.LVL189:
	la 5,.LANCHOR0@l(5)
	lis 6,.LC18@ha
	la 3,.LC15@l(3)
	li 4,5669
.LVL190:
	addi 5,5,104
	la 6,.LC18@l(6)
	bl __assert_func
.LVL191:
.L172:
	.loc 1 5668 0 discriminator 1
	lis 5,.LANCHOR0@ha
.LVL192:
	lis 3,.LC15@ha
.LVL193:
	la 5,.LANCHOR0@l(5)
	lis 6,.LC17@ha
	la 3,.LC15@l(3)
	li 4,5668
.LVL194:
	addi 5,5,104
	la 6,.LC17@l(6)
	bl __assert_func
	.cfi_endproc
.LFE59:
	.size	shove4444, .-shove4444
	.align 2
	.type	shove565rev, @function
shove565rev:
.LFB57:
	.loc 1 5623 0
	.cfi_startproc
.LVL195:
	mflr 0
	stwu 1,-24(1)
.LCFI66:
	.cfi_def_cfa_offset 24
	.cfi_register 65, 0
	.loc 1 5628 0
	lis 9,.LC24@ha
	lfs 0,.LC24@l(9)
	.loc 1 5623 0
	stw 0,28(1)
	.loc 1 5628 0
	lfs 13,0(3)
	fcmpu 7,13,0
	cror 30,29,30
	bne- 7,.L179
	.cfi_offset 65, 4
	.loc 1 5628 0 is_stmt 0 discriminator 2
	lis 9,.LC3@ha
	lfs 12,.LC3@l(9)
	fcmpu 7,13,12
	cror 30,28,30
	bne- 7,.L179
	.loc 1 5629 0 is_stmt 1
	lfs 11,4(3)
	fcmpu 7,11,0
	cror 30,29,30
	bne- 7,.L181
	.loc 1 5629 0 is_stmt 0 discriminator 2
	fcmpu 7,11,12
	cror 30,28,30
	bne- 7,.L181
	.loc 1 5630 0 is_stmt 1
	lfs 10,8(3)
	fcmpu 7,10,0
	cror 30,29,30
	bne- 7,.L183
	.loc 1 5630 0 is_stmt 0 discriminator 2
	fcmpu 7,10,12
	cror 30,28,30
	bne- 7,.L183
	.loc 1 5638 0 is_stmt 1
	lis 9,.LC21@ha
	.loc 1 5637 0
	slwi 4,4,1
.LVL196:
	.loc 1 5638 0
	lfs 0,.LC21@l(9)
	lis 9,.LC8@ha
	lfs 12,.LC8@l(9)
	.loc 1 5636 0
	lis 9,.LC9@ha
	.loc 1 5638 0
	fmadd 10,10,12,0
	.loc 1 5634 0
	fmadd 12,13,12,0
	.loc 1 5636 0
	lfs 13,.LC9@l(9)
	.loc 1 5638 0
	addi 9,1,8
	.loc 1 5636 0
	fmadd 0,11,13,0
	.loc 1 5638 0
	fctiwz 10,10
	.loc 1 5634 0
	fctiwz 12,12
	.loc 1 5636 0
	fctiwz 0,0
	.loc 1 5638 0
	stfiwx 10,0,9
	.loc 1 5634 0
	addi 9,1,12
	stfiwx 12,0,9
	.loc 1 5636 0
	addi 9,1,16
	stfiwx 0,0,9
	.loc 1 5638 0
	lwz 11,8(1)
	.loc 1 5634 0
	lwz 0,12(1)
	.loc 1 5636 0
	lwz 9,16(1)
	.loc 1 5638 0
	rlwinm 11,11,11,5,20
	.loc 1 5633 0
	rlwinm 0,0,0,27,31
	.loc 1 5635 0
	or 0,11,0
	rlwinm 9,9,5,21,26
	.loc 1 5637 0
	or 0,0,9
	sthx 0,5,4
	.loc 1 5639 0
	lwz 0,28(1)
	addi 1,1,24
	.cfi_remember_state
.LCFI67:
	.cfi_def_cfa_offset 0
	mtlr 0
	blr
.LVL197:
.L179:
.LCFI68:
	.cfi_restore_state
	.loc 1 5628 0 discriminator 1
	lis 5,.LANCHOR0@ha
.LVL198:
	lis 3,.LC15@ha
.LVL199:
	la 5,.LANCHOR0@l(5)
	lis 6,.LC16@ha
	la 3,.LC15@l(3)
	li 4,5628
.LVL200:
	addi 5,5,116
	la 6,.LC16@l(6)
	bl __assert_func
.LVL201:
.L183:
	.loc 1 5630 0 discriminator 1
	lis 5,.LANCHOR0@ha
.LVL202:
	lis 3,.LC15@ha
.LVL203:
	la 5,.LANCHOR0@l(5)
	lis 6,.LC18@ha
	la 3,.LC15@l(3)
	li 4,5630
.LVL204:
	addi 5,5,116
	la 6,.LC18@l(6)
	bl __assert_func
.LVL205:
.L181:
	.loc 1 5629 0 discriminator 1
	lis 5,.LANCHOR0@ha
.LVL206:
	lis 3,.LC15@ha
.LVL207:
	la 5,.LANCHOR0@l(5)
	lis 6,.LC17@ha
	la 3,.LC15@l(3)
	li 4,5629
.LVL208:
	addi 5,5,116
	la 6,.LC17@l(6)
	bl __assert_func
	.cfi_endproc
.LFE57:
	.size	shove565rev, .-shove565rev
	.align 2
	.type	shove565, @function
shove565:
.LFB55:
	.loc 1 5582 0
	.cfi_startproc
.LVL209:
	mflr 0
	stwu 1,-24(1)
.LCFI69:
	.cfi_def_cfa_offset 24
	.cfi_register 65, 0
	.loc 1 5587 0
	lis 9,.LC24@ha
	lfs 0,.LC24@l(9)
	.loc 1 5582 0
	stw 0,28(1)
	.loc 1 5587 0
	lfs 13,0(3)
	fcmpu 7,13,0
	cror 30,29,30
	bne- 7,.L186
	.cfi_offset 65, 4
	.loc 1 5587 0 is_stmt 0 discriminator 2
	lis 9,.LC3@ha
	lfs 12,.LC3@l(9)
	fcmpu 7,13,12
	cror 30,28,30
	bne- 7,.L186
	.loc 1 5588 0 is_stmt 1
	lfs 11,4(3)
	fcmpu 7,11,0
	cror 30,29,30
	bne- 7,.L188
	.loc 1 5588 0 is_stmt 0 discriminator 2
	fcmpu 7,11,12
	cror 30,28,30
	bne- 7,.L188
	.loc 1 5589 0 is_stmt 1
	lfs 10,8(3)
	fcmpu 7,10,0
	cror 30,29,30
	bne- 7,.L190
	.loc 1 5589 0 is_stmt 0 discriminator 2
	fcmpu 7,10,12
	cror 30,28,30
	bne- 7,.L190
	.loc 1 5593 0 is_stmt 1
	lis 9,.LC8@ha
	.loc 1 5596 0
	slwi 4,4,1
.LVL210:
	.loc 1 5593 0
	lfs 0,.LC8@l(9)
	.loc 1 5595 0
	lis 9,.LC9@ha
	lfs 12,.LC9@l(9)
	.loc 1 5593 0
	lis 9,.LC21@ha
	fmuls 13,13,0
	.loc 1 5597 0
	fmuls 10,10,0
	.loc 1 5593 0
	lfs 0,.LC21@l(9)
	.loc 1 5595 0
	fmuls 11,11,12
	.loc 1 5593 0
	addi 9,1,8
	fadd 13,13,0
	.loc 1 5595 0
	fadd 11,11,0
	.loc 1 5597 0
	fadd 0,10,0
	.loc 1 5593 0
	fctiwz 13,13
	.loc 1 5595 0
	fctiwz 11,11
	.loc 1 5597 0
	fctiwz 0,0
	.loc 1 5593 0
	stfiwx 13,0,9
	.loc 1 5595 0
	addi 9,1,12
	stfiwx 11,0,9
	.loc 1 5597 0
	addi 9,1,16
	stfiwx 0,0,9
	.loc 1 5593 0
	lwz 11,8(1)
	.loc 1 5595 0
	lwz 0,12(1)
	.loc 1 5597 0
	lwz 9,16(1)
	.loc 1 5593 0
	rlwinm 11,11,11,5,20
	.loc 1 5594 0
	rlwinm 0,0,5,21,26
	or 0,11,0
	.loc 1 5596 0
	rlwinm 9,9,0,27,31
	or 0,0,9
	sthx 0,5,4
	.loc 1 5598 0
	lwz 0,28(1)
	addi 1,1,24
	.cfi_remember_state
.LCFI70:
	.cfi_def_cfa_offset 0
	mtlr 0
	blr
.LVL211:
.L186:
.LCFI71:
	.cfi_restore_state
	.loc 1 5587 0 discriminator 1
	lis 5,.LANCHOR0@ha
.LVL212:
	lis 3,.LC15@ha
.LVL213:
	la 5,.LANCHOR0@l(5)
	lis 6,.LC16@ha
	la 3,.LC15@l(3)
	li 4,5587
.LVL214:
	addi 5,5,128
	la 6,.LC16@l(6)
	bl __assert_func
.LVL215:
.L190:
	.loc 1 5589 0 discriminator 1
	lis 5,.LANCHOR0@ha
.LVL216:
	lis 3,.LC15@ha
.LVL217:
	la 5,.LANCHOR0@l(5)
	lis 6,.LC18@ha
	la 3,.LC15@l(3)
	li 4,5589
.LVL218:
	addi 5,5,128
	la 6,.LC18@l(6)
	bl __assert_func
.LVL219:
.L188:
	.loc 1 5588 0 discriminator 1
	lis 5,.LANCHOR0@ha
.LVL220:
	lis 3,.LC15@ha
.LVL221:
	la 5,.LANCHOR0@l(5)
	lis 6,.LC17@ha
	la 3,.LC15@l(3)
	li 4,5588
.LVL222:
	addi 5,5,128
	la 6,.LC17@l(6)
	bl __assert_func
	.cfi_endproc
.LFE55:
	.size	shove565, .-shove565
	.align 2
	.type	shove233rev, @function
shove233rev:
.LFB53:
	.loc 1 5541 0
	.cfi_startproc
.LVL223:
	mflr 0
	stwu 1,-24(1)
.LCFI72:
	.cfi_def_cfa_offset 24
	.cfi_register 65, 0
	.loc 1 5546 0
	lis 9,.LC24@ha
	lfs 0,.LC24@l(9)
	.loc 1 5541 0
	stw 0,28(1)
	.loc 1 5546 0
	lfs 13,0(3)
	fcmpu 7,13,0
	cror 30,29,30
	bne- 7,.L193
	.cfi_offset 65, 4
	.loc 1 5546 0 is_stmt 0 discriminator 2
	lis 9,.LC3@ha
	lfs 12,.LC3@l(9)
	fcmpu 7,13,12
	cror 30,28,30
	bne- 7,.L193
	.loc 1 5547 0 is_stmt 1
	lfs 11,4(3)
	fcmpu 7,11,0
	cror 30,29,30
	bne- 7,.L195
	.loc 1 5547 0 is_stmt 0 discriminator 2
	fcmpu 7,11,12
	cror 30,28,30
	bne- 7,.L195
	.loc 1 5548 0 is_stmt 1
	lfs 11,8(3)
	fcmpu 7,11,0
	cror 30,29,30
	bne- 7,.L197
	.loc 1 5548 0 is_stmt 0 discriminator 2
	fcmpu 7,11,12
	cror 30,28,30
	bne- 7,.L197
	.loc 1 5552 0 is_stmt 1
	lis 9,.LC21@ha
	addi 11,1,8
	lfs 0,.LC21@l(9)
	lis 9,.LC6@ha
	lfs 12,.LC6@l(9)
	fmadd 13,13,12,0
	fctiwz 13,13
	stfiwx 13,0,11
	.loc 1 5554 0
	addi 11,1,12
	.loc 1 5552 0
	lwz 9,8(1)
	.loc 1 5551 0
	rlwinm 9,9,0,29,31
	stbx 9,5,4
	.loc 1 5554 0
	lfs 13,4(3)
	fmadd 12,13,12,0
	fctiwz 12,12
	stfiwx 12,0,11
	lwz 0,12(1)
	.loc 1 5553 0
	rlwinm 0,0,3,26,28
	or 0,0,9
	.loc 1 5556 0
	lis 9,.LC7@ha
	.loc 1 5553 0
	stbx 0,5,4
	.loc 1 5556 0
	lfs 13,.LC7@l(9)
	addi 9,1,16
	lfs 12,8(3)
	fmadd 0,12,13,0
	fctiwz 0,0
	stfiwx 0,0,9
	lwz 9,16(1)
	rlwinm 9,9,6,18,25
	.loc 1 5555 0
	or 0,0,9
	stbx 0,5,4
	.loc 1 5557 0
	lwz 0,28(1)
	addi 1,1,24
	.cfi_remember_state
.LCFI73:
	.cfi_def_cfa_offset 0
	mtlr 0
	blr
.L193:
.LCFI74:
	.cfi_restore_state
	.loc 1 5546 0 discriminator 1
	lis 5,.LANCHOR0@ha
.LVL224:
	lis 3,.LC15@ha
.LVL225:
	la 5,.LANCHOR0@l(5)
	lis 6,.LC16@ha
	la 3,.LC15@l(3)
	li 4,5546
.LVL226:
	addi 5,5,140
	la 6,.LC16@l(6)
	bl __assert_func
.LVL227:
.L197:
	.loc 1 5548 0 discriminator 1
	lis 5,.LANCHOR0@ha
.LVL228:
	lis 3,.LC15@ha
.LVL229:
	la 5,.LANCHOR0@l(5)
	lis 6,.LC18@ha
	la 3,.LC15@l(3)
	li 4,5548
.LVL230:
	addi 5,5,140
	la 6,.LC18@l(6)
	bl __assert_func
.LVL231:
.L195:
	.loc 1 5547 0 discriminator 1
	lis 5,.LANCHOR0@ha
.LVL232:
	lis 3,.LC15@ha
.LVL233:
	la 5,.LANCHOR0@l(5)
	lis 6,.LC17@ha
	la 3,.LC15@l(3)
	li 4,5547
.LVL234:
	addi 5,5,140
	la 6,.LC17@l(6)
	bl __assert_func
	.cfi_endproc
.LFE53:
	.size	shove233rev, .-shove233rev
	.align 2
	.type	shove332, @function
shove332:
.LFB51:
	.loc 1 5505 0
	.cfi_startproc
.LVL235:
	mflr 0
	stwu 1,-24(1)
.LCFI75:
	.cfi_def_cfa_offset 24
	.cfi_register 65, 0
	.loc 1 5510 0
	lis 9,.LC24@ha
	lfs 0,.LC24@l(9)
	.loc 1 5505 0
	stw 0,28(1)
	.loc 1 5510 0
	lfs 13,0(3)
	fcmpu 7,13,0
	cror 30,29,30
	bne- 7,.L200
	.cfi_offset 65, 4
	.loc 1 5510 0 is_stmt 0 discriminator 2
	lis 9,.LC3@ha
	lfs 12,.LC3@l(9)
	fcmpu 7,13,12
	cror 30,28,30
	bne- 7,.L200
	.loc 1 5511 0 is_stmt 1
	lfs 11,4(3)
	fcmpu 7,11,0
	cror 30,29,30
	bne- 7,.L202
	.loc 1 5511 0 is_stmt 0 discriminator 2
	fcmpu 7,11,12
	cror 30,28,30
	bne- 7,.L202
	.loc 1 5512 0 is_stmt 1
	lfs 11,8(3)
	fcmpu 7,11,0
	cror 30,29,30
	bne- 7,.L204
	.loc 1 5512 0 is_stmt 0 discriminator 2
	fcmpu 7,11,12
	cror 30,28,30
	bne- 7,.L204
	.loc 1 5516 0 is_stmt 1
	lis 9,.LC6@ha
	addi 11,1,8
	lfs 12,.LC6@l(9)
	lis 9,.LC21@ha
	lfs 0,.LC21@l(9)
	fmuls 13,13,12
	fadd 13,13,0
	fctiwz 13,13
	stfiwx 13,0,11
	.loc 1 5518 0
	addi 11,1,12
	.loc 1 5516 0
	lwz 9,8(1)
	.loc 1 5515 0
	rlwinm 9,9,5,24,26
	stbx 9,5,4
	.loc 1 5518 0
	lfs 13,4(3)
	fmuls 12,13,12
	fadd 12,12,0
	fctiwz 12,12
	stfiwx 12,0,11
	lwz 0,12(1)
	.loc 1 5517 0
	rlwinm 0,0,2,27,29
	or 0,0,9
	.loc 1 5520 0
	lis 9,.LC7@ha
	.loc 1 5517 0
	extsb 0,0
	.loc 1 5520 0
	lfs 13,.LC7@l(9)
	.loc 1 5517 0
	stbx 0,5,4
	.loc 1 5520 0
	addi 9,1,16
	lfs 12,8(3)
	fmuls 13,12,13
	fadd 0,13,0
	fctiwz 0,0
	stfiwx 0,0,9
	lwz 9,16(1)
	.loc 1 5519 0
	rlwinm 9,9,0,30,31
	or 0,0,9
	stbx 0,5,4
	.loc 1 5521 0
	lwz 0,28(1)
	addi 1,1,24
	.cfi_remember_state
.LCFI76:
	.cfi_def_cfa_offset 0
	mtlr 0
	blr
.L200:
.LCFI77:
	.cfi_restore_state
	.loc 1 5510 0 discriminator 1
	lis 5,.LANCHOR0@ha
.LVL236:
	lis 3,.LC15@ha
.LVL237:
	la 5,.LANCHOR0@l(5)
	lis 6,.LC16@ha
	la 3,.LC15@l(3)
	li 4,5510
.LVL238:
	addi 5,5,152
	la 6,.LC16@l(6)
	bl __assert_func
.LVL239:
.L204:
	.loc 1 5512 0 discriminator 1
	lis 5,.LANCHOR0@ha
.LVL240:
	lis 3,.LC15@ha
.LVL241:
	la 5,.LANCHOR0@l(5)
	lis 6,.LC18@ha
	la 3,.LC15@l(3)
	li 4,5512
.LVL242:
	addi 5,5,152
	la 6,.LC18@l(6)
	bl __assert_func
.LVL243:
.L202:
	.loc 1 5511 0 discriminator 1
	lis 5,.LANCHOR0@ha
.LVL244:
	lis 3,.LC15@ha
.LVL245:
	la 5,.LANCHOR0@l(5)
	lis 6,.LC17@ha
	la 3,.LC15@l(3)
	li 4,5511
.LVL246:
	addi 5,5,152
	la 6,.LC17@l(6)
	bl __assert_func
	.cfi_endproc
.LFE51:
	.size	shove332, .-shove332
	.align 2
	.type	closestFit, @function
closestFit:
.LFB34:
	.loc 1 3437 0
	.cfi_startproc
.LVL247:
	stwu 1,-120(1)
.LCFI78:
	.cfi_def_cfa_offset 120
	mflr 0
	mfcr 12
	stw 29,108(1)
	mr 29,3
	.cfi_offset 29, -12
	.cfi_register 70, 12
	.cfi_register 65, 0
	.loc 1 3439 0
	li 3,7938
.LVL248:
	.loc 1 3437 0
	stw 0,124(1)
	stw 19,68(1)
	mr 19,9
	.cfi_offset 19, -52
	.cfi_offset 65, 4
	stw 20,72(1)
	mr 20,10
	.cfi_offset 20, -48
	stw 21,76(1)
	mr 21,4
	.cfi_offset 21, -44
	stw 22,80(1)
	mr 22,5
	.cfi_offset 22, -40
	stw 23,84(1)
	mr 23,8
	.cfi_offset 23, -36
	stw 24,88(1)
	mr 24,7
	.cfi_offset 24, -32
	stw 25,92(1)
	mr 25,6
	.cfi_offset 25, -28
	stw 12,56(1)
	stw 17,60(1)
	stw 18,64(1)
	stw 26,96(1)
	stw 27,100(1)
	stw 28,104(1)
	stw 30,112(1)
	stw 31,116(1)
	.loc 1 3439 0
	.cfi_offset 31, -4
	.cfi_offset 30, -8
	.cfi_offset 28, -16
	.cfi_offset 27, -20
	.cfi_offset 26, -24
	.cfi_offset 18, -56
	.cfi_offset 17, -60
	.cfi_offset 70, -64
	bl glGetString
.LVL249:
	li 4,0
	bl strtod
	lis 9,.LC29@ha
	lfd 0,.LC29@l(9)
	fcmpu 7,1,0
	cror 30,29,30
	bne- 7,.L261
.LBB88:
.LBB89:
.LBB90:
	.loc 1 317 0
	cmpwi 7,21,0
.LBE90:
.LBE89:
	.loc 1 3441 0
	mr 26,21
.LVL250:
.LBB93:
.LBB91:
	.loc 1 317 0
	li 30,-1
	mfcr 0
	rlwinm 0,0,28,0xf0000000
	stw 0,44(1)
	beq- 7,.L209
	.loc 1 320 0
	cmpwi 7,21,1
	li 30,1
	beq- 7,.L209
	.loc 1 322 0
	cmpwi 7,21,3
	li 30,4
	beq- 7,.L209
	mr 0,21
	li 30,1
	b .L211
.LVL251:
.L212:
	cmpwi 7,0,3
	beq- 7,.L264
.LVL252:
.L211:
	.loc 1 325 0
	srwi 0,0,1
.LVL253:
	.loc 1 326 0
	slwi 30,30,1
.LVL254:
	.loc 1 320 0
	cmpwi 7,0,1
	bne+ 7,.L212
.LVL255:
.L209:
.LBE91:
.LBE93:
.LBB94:
.LBB95:
	.loc 1 317 0
	cmpwi 7,22,0
.LBE95:
.LBE94:
	.loc 1 3442 0
	mr 27,22
.LVL256:
.LBB100:
.LBB96:
	.loc 1 317 0
	li 31,-1
	mfcr 9
	rlwinm 9,9,28,0xf0000000
	stw 9,48(1)
	bne- 7,.L265
.LVL257:
.L256:
.LBE96:
.LBE100:
.LBB101:
	.loc 1 3457 0
	li 0,0
	.loc 1 3448 0
	cmpwi 4,30,1
	.loc 1 3457 0
	ori 0,0,32868
	cmpwi 2,29,3553
	cmpw 7,29,0
	.loc 1 3459 0
	li 18,0
	.loc 1 3457 0
	mfcr 9
	rlwinm 9,9,28,0xf0000000
	.loc 1 3464 0
	cmpwi 7,29,3552
	mfcr 0
	rlwinm 0,0,28,0xf0000000
	.loc 1 3457 0
	stw 9,32(1)
	.loc 1 3464 0
	stw 0,36(1)
	li 0,0
	ori 0,0,32867
	cmpw 7,29,0
	.loc 1 3448 0
	mr 29,30
.LVL258:
	.loc 1 3464 0
	mfcr 9
	rlwinm 9,9,28,0xf0000000
	stw 9,40(1)
	.loc 1 3448 0
	ble- 4,.L218
.LVL259:
.L270:
	.loc 1 3448 0 is_stmt 0 discriminator 1
	srawi 29,30,1
.LVL260:
.L218:
	.loc 1 3451 0 is_stmt 1
	cmpwi 3,31,1
	mr 28,31
	ble- 3,.L219
.LVL261:
	.loc 1 3451 0 is_stmt 0 discriminator 1
	srawi 28,31,1
.LVL262:
.L219:
	.loc 1 3454 0 is_stmt 1
	cmpwi 7,29,0
	ble- 7,.L266
	.loc 1 3454 0 is_stmt 0 discriminator 2
	cmpwi 7,28,0
	ble- 7,.L267
	.loc 1 3457 0 is_stmt 1
	beq- 2,.L222
	.loc 1 3457 0 is_stmt 0 discriminator 1
	lwz 0,32(1)
.LVL263:
	rlwinm 0,0,4,0xffffffff
	mtcrf 1,0
	rlwinm 0,0,28,0xffffffff
	beq- 7,.L222
	.loc 1 3464 0 is_stmt 1
	lwz 0,36(1)
	rlwinm 0,0,4,0xffffffff
	mtcrf 1,0
	rlwinm 0,0,28,0xffffffff
	beq- 7,.L225
	.loc 1 3464 0 is_stmt 0 discriminator 1
	lwz 0,40(1)
	rlwinm 0,0,4,0xffffffff
	mtcrf 1,0
	rlwinm 0,0,28,0xffffffff
	bne- 7,.L268
.L225:
.LVL264:
	.loc 1 3466 0 is_stmt 1
	li 3,0
	li 4,1
	ori 3,3,32867
	mr 5,25
	mr 6,29
	li 7,0
	mr 8,24
	mr 9,23
	li 10,0
	bl glTexImage1D
	.loc 1 3465 0
	li 3,0
	ori 3,3,32867
.LVL265:
.L224:
	.loc 1 3469 0
	addi 6,1,16
	li 4,1
	li 5,4096
	mr 17,6
	bl glGetTexLevelParameteriv
.LVL266:
	.loc 1 3471 0
	lwz 0,16(1)
	cmpwi 7,0,0
	bne- 7,.L226
	.loc 1 3472 0
	beq- 4,.L269
.L263:
	mr 30,29
.LVL267:
	mr 31,28
.LVL268:
	.loc 1 3448 0
	cmpwi 4,30,1
	mr 29,30
.LVL269:
	bgt+ 4,.L270
.LVL270:
	b .L218
.LVL271:
.L226:
.LBE101:
	.loc 1 3489 0
	stw 30,0(19)
	.loc 1 3490 0
	stw 31,0(20)
.LVL272:
.L206:
.LBE88:
	.loc 1 3506 0
	lwz 0,124(1)
	lwz 12,56(1)
	mtlr 0
	lwz 17,60(1)
	lwz 18,64(1)
	mtcrf 56,12
	lwz 19,68(1)
.LVL273:
	lwz 20,72(1)
.LVL274:
	lwz 21,76(1)
.LVL275:
	lwz 22,80(1)
.LVL276:
	lwz 23,84(1)
.LVL277:
	lwz 24,88(1)
.LVL278:
	lwz 25,92(1)
.LVL279:
	lwz 26,96(1)
	lwz 27,100(1)
	lwz 28,104(1)
	lwz 29,108(1)
	lwz 30,112(1)
	lwz 31,116(1)
	addi 1,1,120
	.cfi_remember_state
.LCFI79:
	.cfi_def_cfa_offset 0
	.cfi_restore 70
	.cfi_restore 31
	.cfi_restore 30
	.cfi_restore 29
	.cfi_restore 28
	.cfi_restore 27
	.cfi_restore 26
	.cfi_restore 25
	.cfi_restore 24
	.cfi_restore 23
	.cfi_restore 22
	.cfi_restore 21
	.cfi_restore 20
	.cfi_restore 19
	.cfi_restore 18
	.cfi_restore 17
	blr
.LVL280:
.L222:
.LCFI80:
	.cfi_restore_state
.LBB108:
.LBB102:
	.loc 1 3459 0
	li 3,0
	li 4,1
	ori 3,3,32868
	mr 5,25
	mr 6,29
	mr 7,28
	li 8,0
	mr 9,24
	mr 10,23
	stw 18,8(1)
	bl glTexImage2D
	.loc 1 3458 0
	li 3,0
	ori 3,3,32868
	.loc 1 3459 0
	b .L224
.LVL281:
.L269:
	.loc 1 3472 0 discriminator 1
	bne+ 3,.L263
.L228:
.LBE102:
.LBE108:
.LBB109:
	.loc 1 3498 0
	li 3,3379
	mr 4,17
	bl glGetIntegerv
.LVL282:
.LBB110:
.LBB111:
	.loc 1 317 0
	lwz 0,44(1)
	rlwinm 0,0,4,0xffffffff
	mtcrf 1,0
	rlwinm 0,0,28,0xffffffff
	bne- 7,.L271
.LVL283:
.L248:
	li 0,-1
.LVL284:
.L230:
.LBE111:
.LBE110:
	.loc 1 3501 0
	lwz 9,16(1)
	cmpw 7,0,9
	ble- 7,.L234
	mr 0,9
.L234:
	stw 0,0(19)
.LVL285:
.LBB114:
.LBB115:
	.loc 1 317 0
	lwz 0,48(1)
	rlwinm 0,0,4,0xffffffff
	mtcrf 1,0
	rlwinm 0,0,28,0xffffffff
	beq- 7,.L251
	.loc 1 320 0
	cmpwi 7,22,1
	li 0,1
	beq- 7,.L235
	.loc 1 322 0
	cmpwi 7,22,3
	li 0,4
	beq- 7,.L235
	li 0,1
	b .L237
.LVL286:
.L238:
	cmpwi 7,27,3
	beq- 7,.L272
.LVL287:
.L237:
	.loc 1 325 0
	srwi 27,27,1
.LVL288:
	.loc 1 326 0
	slwi 0,0,1
.LVL289:
	.loc 1 320 0
	cmpwi 7,27,1
	bne+ 7,.L238
.LVL290:
.L235:
.LBE115:
.LBE114:
	.loc 1 3503 0
	cmpw 7,9,0
	.loc 1 3502 0
	stw 0,0(20)
	.loc 1 3503 0
	bge- 7,.L206
	.loc 1 3503 0 is_stmt 0 discriminator 1
	stw 9,0(20)
	b .L206
.LVL291:
.L265:
.LBE109:
.LBB120:
.LBB103:
.LBB97:
	.loc 1 320 0 is_stmt 1
	cmpwi 7,22,1
	li 31,1
	beq- 7,.L256
	.loc 1 322 0
	cmpwi 7,22,3
	li 31,4
	beq- 7,.L256
	mr 0,22
	li 31,1
	b .L215
.LVL292:
.L216:
	cmpwi 7,0,3
	beq- 7,.L273
.LVL293:
.L215:
	.loc 1 325 0
	srwi 0,0,1
.LVL294:
	.loc 1 326 0
	slwi 31,31,1
.LVL295:
	.loc 1 320 0
	cmpwi 7,0,1
	bne+ 7,.L216
	b .L256
.LVL296:
.L261:
	cmpwi 7,21,0
	addi 17,1,16
.LBE97:
.LBE103:
.LBE120:
.LBB121:
	.loc 1 3498 0
	li 3,3379
	mr 4,17
	mfcr 0
	rlwinm 0,0,28,0xf0000000
	cmpwi 7,22,0
.LBE121:
.LBB122:
	.loc 1 3490 0
	mr 26,21
	mr 27,22
	stw 0,44(1)
	mfcr 0
	rlwinm 0,0,28,0xf0000000
	stw 0,48(1)
.LBE122:
.LBB123:
	.loc 1 3498 0
	bl glGetIntegerv
.LVL297:
.LBB117:
.LBB112:
	.loc 1 317 0
	lwz 0,44(1)
	rlwinm 0,0,4,0xffffffff
	mtcrf 1,0
	rlwinm 0,0,28,0xffffffff
	beq- 7,.L248
.LVL298:
.L271:
	.loc 1 320 0
	cmpwi 7,21,1
	li 0,1
	beq- 7,.L230
	.loc 1 322 0
	cmpwi 7,21,3
	li 0,4
	beq- 7,.L230
	li 0,1
	b .L232
.LVL299:
.L233:
	cmpwi 7,26,3
	beq- 7,.L274
.LVL300:
.L232:
	.loc 1 325 0
	srwi 26,26,1
.LVL301:
	.loc 1 326 0
	slwi 0,0,1
.LVL302:
	.loc 1 320 0
	cmpwi 7,26,1
	bne+ 7,.L233
	b .L230
.LVL303:
.L264:
.LBE112:
.LBE117:
.LBE123:
.LBB124:
.LBB104:
.LBB98:
	.loc 1 317 0
	cmpwi 7,22,0
.LBE98:
.LBE104:
.LBB105:
.LBB92:
	.loc 1 322 0
	slwi 30,30,2
.LVL304:
.LBE92:
.LBE105:
	.loc 1 3442 0
	mr 27,22
.LVL305:
.LBB106:
.LBB99:
	.loc 1 317 0
	li 31,-1
	mfcr 9
	rlwinm 9,9,28,0xf0000000
	stw 9,48(1)
	beq- 7,.L256
	b .L265
.LVL306:
.L273:
	.loc 1 322 0
	slwi 31,31,2
.LVL307:
	b .L256
.LVL308:
.L251:
.LBE99:
.LBE106:
.LBE124:
.LBB125:
.LBB118:
.LBB116:
	.loc 1 317 0
	li 0,-1
	b .L235
.LVL309:
.L272:
	.loc 1 322 0
	slwi 0,0,2
.LVL310:
	b .L235
.LVL311:
.L274:
.LBE116:
.LBE118:
.LBB119:
.LBB113:
	slwi 0,0,2
.LVL312:
	b .L230
.LVL313:
.L266:
.LBE113:
.LBE119:
.LBE125:
.LBB126:
.LBB107:
	.loc 1 3454 0 discriminator 1
	lis 5,.LANCHOR0@ha
	lis 3,.LC15@ha
	la 5,.LANCHOR0@l(5)
	lis 6,.LC30@ha
	la 3,.LC15@l(3)
	li 4,3454
	addi 5,5,164
	la 6,.LC30@l(6)
	bl __assert_func
.L267:
	lis 5,.LANCHOR0@ha
	lis 3,.LC15@ha
	la 5,.LANCHOR0@l(5)
	lis 6,.LC31@ha
	la 3,.LC15@l(3)
	li 4,3454
	addi 5,5,164
	la 6,.LC31@l(6)
	bl __assert_func
.L268:
	.loc 1 3464 0 discriminator 2
	lis 5,.LANCHOR0@ha
	lis 3,.LC15@ha
	la 5,.LANCHOR0@l(5)
	lis 6,.LC32@ha
	la 3,.LC15@l(3)
	li 4,3464
	addi 5,5,164
	la 6,.LC32@l(6)
	bl __assert_func
.LBE107:
.LBE126:
	.cfi_endproc
.LFE34:
	.size	closestFit, .-closestFit
	.align 2
	.type	retrieveStoreModes, @function
retrieveStoreModes:
.LFB0:
	.loc 1 249 0
	.cfi_startproc
.LVL314:
	stwu 1,-16(1)
.LCFI81:
	.cfi_def_cfa_offset 16
	mflr 0
	.loc 1 250 0
	addi 4,3,32
	.loc 1 249 0
	stw 31,12(1)
	mr 31,3
	.cfi_offset 31, -4
	.cfi_register 65, 0
	.loc 1 250 0
	li 3,3317
.LVL315:
	.loc 1 249 0
	stw 0,20(1)
	.loc 1 250 0
	.cfi_offset 65, 4
	bl glGetIntegerv
	.loc 1 251 0
	addi 4,31,36
	li 3,3314
	bl glGetIntegerv
	.loc 1 252 0
	addi 4,31,40
	li 3,3315
	bl glGetIntegerv
	.loc 1 253 0
	addi 4,31,44
	li 3,3316
	bl glGetIntegerv
	.loc 1 254 0
	addi 4,31,48
	li 3,3313
	bl glGetIntegerv
	.loc 1 255 0
	addi 4,31,52
	li 3,3312
	bl glGetIntegerv
	.loc 1 257 0
	mr 4,31
	li 3,3333
	bl glGetIntegerv
	.loc 1 258 0
	addi 4,31,4
	li 3,3330
	bl glGetIntegerv
	.loc 1 259 0
	addi 4,31,8
	li 3,3331
	bl glGetIntegerv
	.loc 1 260 0
	addi 4,31,12
	li 3,3332
	bl glGetIntegerv
	.loc 1 261 0
	addi 4,31,16
	li 3,3329
	bl glGetIntegerv
	.loc 1 262 0
	addi 4,31,20
	li 3,3328
	bl glGetIntegerv
	.loc 1 263 0
	lwz 0,20(1)
	lwz 31,12(1)
.LVL316:
	mtlr 0
	addi 1,1,16
.LCFI82:
	.cfi_def_cfa_offset 0
	.cfi_restore 31
	blr
	.cfi_endproc
.LFE0:
	.size	retrieveStoreModes, .-retrieveStoreModes
	.align 2
	.type	scale_internal, @function
scale_internal:
.LFB19:
	.loc 1 1266 0
	.cfi_startproc
.LVL317:
	mflr 0
	stwu 1,-344(1)
.LCFI83:
	.cfi_def_cfa_offset 344
	.cfi_register 65, 0
	mfcr 12
	stw 26,176(1)
	mr 26,8
	.cfi_offset 26, -168
	.cfi_register 70, 12
	stw 0,348(1)
	.loc 1 1277 0
	slwi 0,7,1
	.cfi_offset 65, 4
	cmpw 7,0,4
	.loc 1 1266 0
	stfd 14,200(1)
	stfd 15,208(1)
	stfd 16,216(1)
	stfd 17,224(1)
	stfd 18,232(1)
	stfd 19,240(1)
	stfd 20,248(1)
	stfd 21,256(1)
	stfd 22,264(1)
	stfd 23,272(1)
	stfd 24,280(1)
	stfd 25,288(1)
	stfd 26,296(1)
	stfd 27,304(1)
	stfd 28,312(1)
	stfd 29,320(1)
	stfd 30,328(1)
	stfd 31,336(1)
	stw 14,128(1)
	stw 15,132(1)
	stw 16,136(1)
	stw 17,140(1)
	stw 18,144(1)
	stw 19,148(1)
	stw 20,152(1)
	stw 21,156(1)
	stw 22,160(1)
	stw 23,164(1)
	stw 24,168(1)
	stw 25,172(1)
	stw 27,180(1)
	mr 27,6
	.cfi_offset 27, -164
	.cfi_offset 25, -172
	.cfi_offset 24, -176
	.cfi_offset 23, -180
	.cfi_offset 22, -184
	.cfi_offset 21, -188
	.cfi_offset 20, -192
	.cfi_offset 19, -196
	.cfi_offset 18, -200
	.cfi_offset 17, -204
	.cfi_offset 16, -208
	.cfi_offset 15, -212
	.cfi_offset 14, -216
	.cfi_offset 63, -8
	.cfi_offset 62, -16
	.cfi_offset 61, -24
	.cfi_offset 60, -32
	.cfi_offset 59, -40
	.cfi_offset 58, -48
	.cfi_offset 57, -56
	.cfi_offset 56, -64
	.cfi_offset 55, -72
	.cfi_offset 54, -80
	.cfi_offset 53, -88
	.cfi_offset 52, -96
	.cfi_offset 51, -104
	.cfi_offset 50, -112
	.cfi_offset 49, -120
	.cfi_offset 48, -128
	.cfi_offset 47, -136
	.cfi_offset 46, -144
	stw 28,184(1)
	mr 28,5
	.cfi_offset 28, -160
	stw 29,188(1)
	mr 29,3
	.cfi_offset 29, -156
	stw 30,192(1)
	mr 30,4
	.cfi_offset 30, -152
	stw 31,196(1)
	mr 31,7
	.cfi_offset 31, -148
	stw 12,124(1)
	.loc 1 1277 0
	beq- 7,.L317
	.cfi_offset 70, -220
.L277:
	.loc 1 1281 0
	lis 23,.LC5@ha
	lis 0,0x4330
	lfs 15,.LC5@l(23)
	xoris 7,28,0x8000
.LVL318:
	xoris 8,26,0x8000
.LVL319:
	.loc 1 1282 0
	xoris 10,30,0x8000
	xoris 11,31,0x8000
	.loc 1 1281 0
	stw 7,28(1)
	stw 0,24(1)
	fmr 0,15
	stw 8,36(1)
	.loc 1 1285 0
	cmpwi 7,26,0
	.loc 1 1281 0
	stw 0,32(1)
	.loc 1 1283 0
	lis 15,.LC21@ha
	.loc 1 1282 0
	stw 10,44(1)
	stw 0,40(1)
	stw 11,52(1)
	stw 0,48(1)
	.loc 1 1281 0
	lfd 14,24(1)
	lfd 13,32(1)
	.loc 1 1282 0
	lfd 22,40(1)
	.loc 1 1281 0
	fsub 14,14,0
	.loc 1 1282 0
	lfd 12,48(1)
	.loc 1 1281 0
	fsub 13,13,0
	.loc 1 1282 0
	fsub 22,22,0
	.loc 1 1283 0
	lfs 24,.LC21@l(15)
	.loc 1 1282 0
	fsub 0,12,0
	.loc 1 1281 0
	frsp 14,14
	frsp 13,13
	.loc 1 1282 0
	frsp 22,22
	frsp 0,0
	.loc 1 1281 0
	fdivs 14,14,13
.LVL320:
	.loc 1 1282 0
	fdivs 22,22,0
.LVL321:
	.loc 1 1284 0
	fmuls 20,14,24
	.loc 1 1283 0
	fmuls 21,22,24
.LVL322:
	.loc 1 1285 0
	ble- 7,.L276
	.loc 1 1262 0
	mullw 0,31,29
	cmpwi 7,31,0
	.loc 1 1286 0
	fmr 16,24
	.loc 1 1262 0
	slwi 24,29,2
	cmpw 2,26,28
	cmpwi 4,29,0
	mfcr 10
	rlwinm 10,10,28,0xf0000000
	slwi 0,0,1
	stw 0,108(1)
	cmpw 3,31,30
	addi 0,1,4
	stw 10,112(1)
	addi 17,9,-2
.LBB127:
.LBB128:
	.loc 1 1285 0
	li 18,0
	la 23,.LC5@l(23)
	la 15,.LC21@l(15)
.LBE128:
.LBE127:
	.loc 1 1286 0
	lis 25,0x4330
	.loc 1 1262 0
	slwi 16,29,1
	.loc 1 1309 0
	li 21,0
	.loc 1 1262 0
	add 24,0,24
.LVL323:
.L304:
	.loc 1 1286 0
	xoris 0,18,0x8000
	stw 25,56(1)
	stw 0,60(1)
	lfd 25,56(1)
	fsub 25,25,15
	fadd 25,25,16
	fmul 25,25,14
	frsp 25,25
.LVL324:
	.loc 1 1287 0
	bge- 2,.L284
	.loc 1 1288 0
	fadds 27,25,20
.LVL325:
	.loc 1 1289 0
	fsubs 25,25,20
.LVL326:
.L285:
	.loc 1 1294 0
	lwz 9,112(1)
	rlwinm 9,9,4,0xffffffff
	mtcrf 1,9
	rlwinm 9,9,28,0xffffffff
	ble- 7,.L286
	.loc 1 1262 0
	fmr 1,25
.LBB132:
.LBB129:
	mr 19,17
.LBE129:
.LBE132:
	.loc 1 1294 0
	fmr 17,22
.LBB133:
.LBB130:
	li 20,0
.LBE130:
.LBE133:
	.loc 1 1262 0
	bl floor
	.loc 1 1295 0
	lfs 23,0(15)
	.loc 1 1262 0
	fctiwz 1,1
	addi 9,1,104
	.loc 1 1295 0
	fmr 18,23
	lfs 19,0(23)
	.loc 1 1262 0
	stfiwx 1,0,9
	lwz 14,104(1)
.LVL327:
.L303:
	.loc 1 1295 0
	xoris 0,20,0x8000
	stw 25,64(1)
	stw 0,68(1)
	lfd 26,64(1)
	fsub 26,26,19
	fadd 26,26,18
	fmul 26,26,17
	frsp 26,26
.LVL328:
	.loc 1 1296 0
	bge- 3,.L287
	.loc 1 1297 0
	fadds 31,26,21
.LVL329:
	.loc 1 1298 0
	fsubs 26,26,21
.LVL330:
.L288:
	.loc 1 1312 0
	fmr 29,25
	.loc 1 1310 0
	lis 10,.LC24@ha
	.loc 1 1309 0
	stw 21,20(1)
	.loc 1 1313 0
	mr 22,14
	.loc 1 1309 0
	stw 21,16(1)
	.loc 1 1314 0
	fcmpu 7,29,27
	.loc 1 1309 0
	stw 21,12(1)
	stw 21,8(1)
.LVL331:
	.loc 1 1310 0
	lfs 30,.LC24@l(10)
.LVL332:
	.loc 1 1314 0
	bnl- 7,.L318
.LVL333:
.L300:
	.loc 1 1262 0
	add 0,22,28
	.loc 1 1316 0
	addi 22,22,1
.LVL334:
	.loc 1 1315 0
	divw 8,0,28
	.loc 1 1316 0
	xoris 9,22,0x8000
	stw 9,76(1)
	stw 25,72(1)
	lfs 0,0(23)
	lfd 28,72(1)
	fsub 28,28,0
	frsp 28,28
	fcmpu 7,28,27
	.loc 1 1315 0
	mullw 8,8,28
	subf 0,8,0
.LVL335:
	.loc 1 1316 0
	bng- 7,.L315
	.loc 1 1317 0
	fsubs 29,27,29
.LVL336:
.L292:
	.loc 1 1323 0
	fmr 1,26
	stw 0,116(1)
	bl floor
.LVL337:
	.loc 1 1322 0
	fmr 12,26
	.loc 1 1323 0
	fctiwz 1,1
	addi 11,1,100
	.loc 1 1335 0
	lwz 0,116(1)
.LVL338:
	.loc 1 1325 0
	fcmpu 7,12,31
	.loc 1 1323 0
	stfiwx 1,0,11
	.loc 1 1335 0
	mullw 8,0,30
	.loc 1 1323 0
	lwz 10,100(1)
.LVL339:
	.loc 1 1325 0
	bnl- 7,.L319
.LVL340:
.L299:
	.loc 1 1262 0
	add 0,10,30
	.loc 1 1327 0
	addi 10,10,1
.LVL341:
	.loc 1 1326 0
	divw 9,0,30
	.loc 1 1327 0
	xoris 11,10,0x8000
	stw 11,84(1)
	stw 25,80(1)
	lfs 0,0(23)
	lfd 10,80(1)
	fsub 10,10,0
	frsp 10,10
	fcmpu 7,10,31
	.loc 1 1326 0
	mullw 9,9,30
	subf 0,9,0
.LVL342:
	.loc 1 1327 0
	bng- 7,.L316
	.loc 1 1328 0
	fsubs 12,31,12
.LVL343:
.L296:
	.loc 1 1333 0
	fmuls 12,12,29
.LVL344:
	.loc 1 1335 0
	add 0,8,0
.LVL345:
	mullw 11,0,29
	.loc 1 1334 0
	fadds 30,30,12
.LVL346:
	.loc 1 1336 0
	ble- 4,.L297
	.loc 1 1262 0
	addi 11,11,-1
.LVL347:
	.loc 1 1337 0
	lfs 11,0(23)
	.loc 1 1262 0
	slwi 11,11,1
.LVL348:
	.loc 1 1336 0
	addi 9,1,4
	.loc 1 1262 0
	add 11,27,11
.LVL349:
.L298:
	.loc 1 1337 0 discriminator 2
	lhzu 0,2(11)
	stw 25,88(1)
	xoris 0,0,0x8000
	stw 0,92(1)
	lfd 0,88(1)
	lfsu 13,4(9)
	fsub 0,0,11
	.loc 1 1336 0 discriminator 2
	cmpw 7,9,24
	.loc 1 1337 0 discriminator 2
	frsp 0,0
	fmadds 0,0,12,13
	stfs 0,0(9)
	.loc 1 1336 0 discriminator 2
	bne+ 7,.L298
.L297:
	.loc 1 1341 0
	fmr 12,10
.LVL350:
	.loc 1 1325 0
	fcmpu 7,12,31
	blt+ 7,.L299
.LVL351:
.L319:
	.loc 1 1344 0
	fmr 29,28
.LVL352:
	.loc 1 1314 0
	fcmpu 7,29,27
	blt+ 7,.L300
.LVL353:
.L318:
	.loc 1 1348 0
	ble- 4,.L301
	.loc 1 1352 0
	lfs 13,0(15)
	.loc 1 1348 0
	addi 9,1,4
	.loc 1 1262 0
	mr 11,19
.LVL354:
.L302:
	.loc 1 1352 0 discriminator 2
	lfsu 0,4(9)
	addi 10,1,96
	fadd 0,0,13
	.loc 1 1348 0 discriminator 2
	cmpw 7,9,24
	.loc 1 1352 0 discriminator 2
	fdiv 0,0,30
	fctiwz 0,0
	stfiwx 0,0,10
	lwz 0,96(1)
	sthu 0,2(11)
	.loc 1 1348 0 discriminator 2
	bne+ 7,.L302
.L301:
	.loc 1 1294 0
	addi 20,20,1
.LVL355:
	add 19,19,16
	cmpw 7,20,31
	bne+ 7,.L303
.LVL356:
.L286:
	.loc 1 1285 0
	addi 18,18,1
.LVL357:
	lwz 11,108(1)
	cmpw 7,18,26
	add 17,17,11
	bne+ 7,.L304
.LVL358:
.L276:
	.loc 1 1356 0
	lwz 0,348(1)
	lwz 12,124(1)
	mtlr 0
	lwz 14,128(1)
	lwz 15,132(1)
	mtcrf 56,12
	lwz 16,136(1)
	lwz 17,140(1)
	lwz 18,144(1)
	lwz 19,148(1)
	lwz 20,152(1)
	lwz 21,156(1)
	lwz 22,160(1)
	lwz 23,164(1)
	lwz 24,168(1)
	lwz 25,172(1)
	lwz 26,176(1)
	lwz 27,180(1)
	lwz 28,184(1)
	lwz 29,188(1)
	lwz 30,192(1)
	lwz 31,196(1)
	lfd 14,200(1)
	lfd 15,208(1)
	lfd 16,216(1)
	lfd 17,224(1)
	lfd 18,232(1)
	lfd 19,240(1)
	lfd 20,248(1)
	lfd 21,256(1)
	lfd 22,264(1)
	lfd 23,272(1)
	lfd 24,280(1)
	lfd 25,288(1)
	lfd 26,296(1)
	lfd 27,304(1)
	lfd 28,312(1)
	lfd 29,320(1)
	lfd 30,328(1)
	lfd 31,336(1)
	addi 1,1,344
	.cfi_remember_state
.LCFI84:
	.cfi_def_cfa_offset 0
	.cfi_restore 70
	.cfi_restore 63
	.cfi_restore 62
	.cfi_restore 61
	.cfi_restore 60
	.cfi_restore 59
	.cfi_restore 58
	.cfi_restore 57
	.cfi_restore 56
	.cfi_restore 55
	.cfi_restore 54
	.cfi_restore 53
	.cfi_restore 52
	.cfi_restore 51
	.cfi_restore 50
	.cfi_restore 49
	.cfi_restore 48
	.cfi_restore 47
	.cfi_restore 46
	.cfi_restore 31
	.cfi_restore 30
	.cfi_restore 29
	.cfi_restore 28
	.cfi_restore 27
	.cfi_restore 26
	.cfi_restore 25
	.cfi_restore 24
	.cfi_restore 23
	.cfi_restore 22
	.cfi_restore 21
	.cfi_restore 20
	.cfi_restore 19
	.cfi_restore 18
	.cfi_restore 17
	.cfi_restore 16
	.cfi_restore 15
	.cfi_restore 14
	blr
.LVL359:
.L316:
.LCFI85:
	.cfi_restore_state
	.loc 1 1330 0
	fsubs 12,10,12
.LVL360:
	b .L296
.LVL361:
.L315:
	.loc 1 1319 0
	fsubs 29,28,29
.LVL362:
	b .L292
.LVL363:
.L287:
	.loc 1 1300 0
	fadds 31,26,23
.LVL364:
	.loc 1 1301 0
	fsubs 26,26,23
.LVL365:
	b .L288
.LVL366:
.L284:
	.loc 1 1291 0
	fadds 27,25,24
.LVL367:
	.loc 1 1292 0
	fsubs 25,25,24
.LVL368:
	b .L285
.LVL369:
.L317:
	.loc 1 1277 0 discriminator 1
	slwi 11,8,1
	cmpw 7,11,5
	bne+ 7,.L277
.LVL370:
.LBB134:
.LBB131:
	.loc 1 354 0
	srwi. 31,11,1
.LVL371:
	.loc 1 347 0
	srwi 5,0,1
.LVL372:
	.loc 1 349 0
	mullw 0,0,3
.LVL373:
	.loc 1 354 0
	beq- 0,.L276
.LVL374:
	slwi 11,3,1
.LVL375:
	cmpwi 6,5,0
	add 3,3,0
	cmpwi 7,29,0
	slwi 4,0,1
	slwi 3,3,1
	li 8,0
	.loc 1 1262 0
	addi 0,11,-2
.LVL376:
.L279:
	.loc 1 355 0
	beq- 6,.L281
	li 7,0
.LVL377:
.L283:
	.loc 1 356 0
	ble- 7,.L282
	.loc 1 1262 0
	addi 10,27,-2
	addi 6,9,-2
	add 30,9,0
.LVL378:
.L280:
	.loc 1 357 0
	lhzu 25,2(10)
	lhzx 26,10,11
	lhzx 28,10,4
	lhzx 29,10,3
	add 26,25,26
	add 28,26,28
	add 29,28,29
	.loc 1 358 0
	addi 29,29,2
	srawi 29,29,2
	.loc 1 357 0
	sthu 29,2(6)
	.loc 1 356 0
	cmpw 1,6,30
	bne+ 1,.L280
	add 9,9,11
	add 27,27,11
.L282:
	.loc 1 355 0
	addi 7,7,1
	.loc 1 361 0
	add 27,27,11
.LVL379:
	.loc 1 355 0
	cmpw 1,5,7
	bne+ 1,.L283
.LVL380:
.L281:
	.loc 1 354 0
	addi 8,8,1
	.loc 1 363 0
	add 27,27,4
.LVL381:
	.loc 1 354 0
	cmpw 1,31,8
	bne+ 1,.L279
	b .L276
.LBE131:
.LBE134:
	.cfi_endproc
.LFE19:
	.size	scale_internal, .-scale_internal
	.align 2
	.type	elements_per_group, @function
elements_per_group:
.LFB44:
	.loc 1 4776 0
	.cfi_startproc
.LVL382:
	.loc 1 4782 0
	li 0,0
	ori 0,0,32818
	cmpw 7,4,0
	.loc 1 4794 0
	li 0,1
	.loc 1 4782 0
	beq- 7,.L321
	.loc 1 4782 0 is_stmt 0 discriminator 1
	xoris 9,4,0xffff
	cmpwi 7,9,-31902
	beq 7,.L321
	.loc 1 4783 0 is_stmt 1
	xoris 9,4,0xffff
	cmpwi 7,9,-31901
	beq 7,.L321
	.loc 1 4784 0
	xoris 9,4,0xffff
	cmpwi 7,9,-31900
	beq 7,.L321
	.loc 1 4785 0
	xoris 9,4,0xffff
	cmpwi 7,9,-32717
	beq 7,.L321
	.loc 1 4786 0
	xoris 9,4,0xffff
	cmpwi 7,9,-31899
	beq 7,.L321
	.loc 1 4787 0
	xoris 9,4,0xffff
	cmpwi 7,9,-32716
	beq 7,.L321
	.loc 1 4788 0
	xoris 9,4,0xffff
	cmpwi 7,9,-31898
	beq 7,.L321
	.loc 1 4789 0
	xoris 9,4,0xffff
	cmpwi 7,9,-32715
	beq 7,.L321
	.loc 1 4790 0
	xoris 9,4,0xffff
	cmpwi 7,9,-31897
	beq 7,.L321
	.loc 1 4791 0
	li 0,0
	ori 0,0,32822
	cmpw 7,4,0
	.loc 1 4794 0
	li 0,1
	.loc 1 4791 0
	beq- 7,.L321
	.loc 1 4792 0
	xoris 9,4,0xffff
	cmpwi 7,9,-31896
	beq 7,.L321
.LVL383:
.LBB137:
.LBB138:
	.loc 1 4798 0
	cmpwi 7,3,6410
	.loc 1 4803 0
	li 0,2
	.loc 1 4798 0
	beq- 7,.L321
.LVL384:
	cmplwi 7,3,6410
	bgt- 7,.L326
	cmpwi 7,3,6407
	beq- 7,.L323
	cmpwi 7,3,6408
	beq- 7,.L324
.LVL385:
.L322:
	.loc 1 4808 0
	li 0,1
.LVL386:
.L321:
.LBE138:
.LBE137:
	.loc 1 4810 0
	mr 3,0
.LVL387:
	blr
.LVL388:
.L326:
.LBB140:
.LBB139:
	.loc 1 4798 0
	xoris 0,3,0xffff
	cmpwi 7,0,-32544
	beq 7,.L323
	xoris 0,3,0xffff
	cmpwi 7,0,-32543
	bne 7,.L322
.L324:
	.loc 1 4806 0
	li 0,4
	b .L321
.L323:
	.loc 1 4801 0
	li 0,3
	b .L321
.LBE139:
.LBE140:
	.cfi_endproc
.LFE44:
	.size	elements_per_group, .-elements_per_group
	.align 2
	.type	isTypePackedPixel, @function
isTypePackedPixel:
.LFB31:
	.loc 1 3364 0
	.cfi_startproc
.LVL389:
.LBB147:
.LBB148:
	.loc 1 3335 0
	cmplwi 7,3,32822
.LBE148:
.LBE147:
	.loc 1 3364 0
	mflr 0
	stwu 1,-8(1)
.LCFI86:
	.cfi_def_cfa_offset 8
	.cfi_register 65, 0
	stw 0,12(1)
.LBB152:
.LBB149:
	.loc 1 3335 0
	bgt- 7,.L343
	.cfi_offset 65, 4
.LVL390:
	cmplwi 7,3,32818
	blt- 7,.L356
.LVL391:
.L342:
.LBE149:
.LBE152:
	.loc 1 3367 0
	li 0,0
	ori 0,0,32818
	cmpw 7,3,0
	.loc 1 3379 0
	li 0,1
	.loc 1 3367 0
	beq- 7,.L344
	.loc 1 3367 0 is_stmt 0 discriminator 1
	xoris 9,3,0xffff
	cmpwi 7,9,-31902
	beq 7,.L344
	.loc 1 3368 0 is_stmt 1
	xoris 9,3,0xffff
	cmpwi 7,9,-31901
	beq 7,.L344
	.loc 1 3369 0
	xoris 9,3,0xffff
	cmpwi 7,9,-31900
	beq 7,.L344
	.loc 1 3370 0
	xoris 9,3,0xffff
	cmpwi 7,9,-32717
	beq 7,.L344
	.loc 1 3371 0
	xoris 9,3,0xffff
	cmpwi 7,9,-31899
	beq 7,.L344
	.loc 1 3372 0
	xoris 9,3,0xffff
	cmpwi 7,9,-32716
	beq 7,.L344
	.loc 1 3373 0
	xoris 9,3,0xffff
	cmpwi 7,9,-31898
	beq 7,.L344
	.loc 1 3374 0
	xoris 9,3,0xffff
	cmpwi 7,9,-32715
	beq 7,.L344
	.loc 1 3375 0
	xoris 9,3,0xffff
	cmpwi 7,9,-31897
	beq 7,.L344
	.loc 1 3376 0
	li 0,0
	ori 0,0,32822
	cmpw 7,3,0
	.loc 1 3379 0
	li 0,1
	.loc 1 3376 0
	beq- 7,.L344
	.loc 1 3379 0
	xori 0,3,33640
	cntlzw 0,0
	srwi 0,0,5
.L344:
	.loc 1 3382 0
	mr 3,0
.LVL392:
	lwz 0,12(1)
	addi 1,1,8
	.cfi_remember_state
.LCFI87:
	.cfi_def_cfa_offset 0
	mtlr 0
	blr
.LVL393:
.L343:
.LCFI88:
	.cfi_restore_state
.LBB153:
.LBB150:
	.loc 1 3335 0
	addis 9,3,0xffff
	addi 0,9,31902
	cmplwi 7,0,6
	ble- 7,.L342
.L341:
.LBE150:
.LBE153:
.LBB154:
.LBB155:
	.loc 1 3365 0
	lis 5,.LANCHOR0@ha
	lis 3,.LC15@ha
.LVL394:
	la 5,.LANCHOR0@l(5)
	lis 6,.LC33@ha
	la 3,.LC15@l(3)
	li 4,3365
	addi 5,5,176
	la 6,.LC33@l(6)
	bl __assert_func
.LVL395:
.L356:
.LBE155:
.LBE154:
.LBB156:
.LBB151:
	.loc 1 3335 0
	cmplwi 7,3,5120
	blt- 7,.L341
	cmplwi 7,3,5126
	ble- 7,.L342
	cmpwi 7,3,6656
	bne+ 7,.L341
	b .L342
.LBE151:
.LBE156:
	.cfi_endproc
.LFE31:
	.size	isTypePackedPixel, .-isTypePackedPixel
	.align 2
	.type	fill_image, @function
fill_image:
.LFB48:
	.loc 1 4887 0
	.cfi_startproc
.LVL396:
	stwu 1,-272(1)
.LCFI89:
	.cfi_def_cfa_offset 272
	mflr 0
	mfcr 12
	stw 25,244(1)
	mr 25,4
	.cfi_offset 25, -28
	.cfi_register 70, 12
	.cfi_register 65, 0
	stw 26,248(1)
	.loc 1 4902 0
	mr 4,7
.LVL397:
	.loc 1 4887 0
	mr 26,3
	.cfi_offset 26, -24
	.loc 1 4902 0
	mr 3,6
.LVL398:
	.loc 1 4887 0
	stw 0,276(1)
	stw 14,200(1)
	stw 17,212(1)
	stw 23,236(1)
	mr 23,9
	.cfi_offset 23, -36
	.cfi_offset 17, -60
	.cfi_offset 14, -72
	.cfi_offset 65, 4
	stw 24,240(1)
	mr 24,8
	.cfi_offset 24, -32
	stw 27,252(1)
	mr 27,5
	.cfi_offset 27, -20
	stw 28,256(1)
	mr 28,7
	.cfi_offset 28, -16
	stw 29,260(1)
	mr 29,6
	.cfi_offset 29, -12
	stw 15,204(1)
	stw 16,208(1)
	stw 18,216(1)
	stw 19,220(1)
	stw 20,224(1)
	stw 21,228(1)
	stw 22,232(1)
	stw 30,264(1)
	stw 31,268(1)
	stw 12,196(1)
	.loc 1 4887 0
	stw 10,168(1)
	.loc 1 4902 0
	.cfi_offset 70, -76
	.cfi_offset 31, -4
	.cfi_offset 30, -8
	.cfi_offset 22, -40
	.cfi_offset 21, -44
	.cfi_offset 20, -48
	.cfi_offset 19, -52
	.cfi_offset 18, -56
	.cfi_offset 16, -64
	.cfi_offset 15, -68
	bl elements_per_group
.LVL399:
	.loc 1 4903 0
	lwz 14,36(26)
	.loc 1 4901 0
	lwz 17,52(26)
.LVL400:
	.loc 1 4903 0
	cmpwi 7,14,0
	.loc 1 4902 0
	stw 3,164(1)
.LVL401:
	.loc 1 4903 0
	ble- 7,.L447
.L358:
.LVL402:
	.loc 1 4910 0
	cmpwi 7,28,6656
	beq- 7,.L448
	.loc 1 4952 0
	mr 3,28
.LVL403:
	bl bytes_per_element
.LVL404:
	addi 9,1,144
	fctiwz 1,1
	stfiwx 1,0,9
	lwz 20,144(1)
.LVL405:
	.loc 1 4953 0
	lwz 10,164(1)
	.loc 1 4954 0
	cmpwi 7,20,1
	.loc 1 4953 0
	mullw 10,20,10
	stw 10,176(1)
.LVL406:
	.loc 1 4954 0
	beq- 7,.L449
.LVL407:
.L371:
	.loc 1 4956 0
	lwz 11,176(1)
	.loc 1 4957 0
	lwz 0,32(26)
	.loc 1 4956 0
	mullw 14,14,11
.LVL408:
	.loc 1 4957 0
	divw 9,14,0
.LVL409:
	mullw 9,9,0
.LVL410:
	.loc 1 4958 0
	subf. 9,9,14
.LVL411:
	bne- 0,.L450
.L372:
	.loc 1 4966 0
	cmpwi 7,27,0
	.loc 1 4963 0
	lwz 8,164(1)
	.loc 1 4961 0
	lwz 9,40(26)
.LVL412:
	.loc 1 4962 0
	lwz 0,44(26)
.LVL413:
	.loc 1 4963 0
	mullw 19,25,8
.LVL414:
	.loc 1 4965 0
	lwz 21,168(1)
	.loc 1 4966 0
	ble- 7,.L373
	.loc 1 4962 0
	lwz 10,176(1)
.LVL415:
	.loc 1 4961 0
	mullw 9,9,14
	cmpwi 7,19,0
	.loc 1 4966 0
	li 16,0
	lis 18,.LC34@ha
	.loc 1 4962 0
	mullw 0,0,10
	.loc 1 4961 0
	add 0,9,0
	mfcr 11
	rlwinm 11,11,28,0xf0000000
	add 0,23,0
	stw 0,180(1)
	mr 15,0
.LBB157:
	.loc 1 4972 0
	li 0,0
	stw 11,156(1)
	ori 0,0,32820
	cmpw 4,28,0
	li 0,0
	ori 0,0,33636
	cmpw 3,28,0
	li 0,0
	ori 0,0,33638
	cmpw 7,28,0
	li 0,0
	ori 0,0,33639
	mfcr 8
	rlwinm 8,8,28,0xf0000000
	cmpw 7,28,0
	li 0,0
	ori 0,0,33640
	stw 8,148(1)
	mfcr 8
	rlwinm 8,8,28,0xf0000000
	cmpw 7,28,0
	li 0,0
	ori 0,0,32822
	stw 8,160(1)
	mfcr 8
	rlwinm 8,8,28,0xf0000000
	cmpw 7,28,0
	stw 8,172(1)
	mfcr 8
	rlwinm 8,8,28,0xf0000000
	stw 8,152(1)
.LVL416:
.L374:
.LBE157:
	.loc 1 4968 0 discriminator 1
	lwz 10,156(1)
	rlwinm 10,10,4,0xffffffff
	mtcrf 1,10
	rlwinm 10,10,28,0xffffffff
	ble- 7,.L419
.LBB184:
	.loc 1 4972 0
	li 0,0
.LBE184:
	.loc 1 4968 0
	mr 30,15
.LBB185:
	.loc 1 4972 0
	ori 0,0,33634
.LBE185:
	.loc 1 4968 0
	li 22,0
.LBB186:
	.loc 1 4972 0
	cmpw 2,28,0
.LVL417:
.L418:
	beq- 4,.L382
	cmplwi 7,28,32820
	bgt- 7,.L392
	cmplwi 7,28,5123
	bgt- 7,.L393
	cmplwi 7,28,5122
	blt- 7,.L451
	.loc 1 5038 0
	cmpwi 7,17,0
	beq- 7,.L403
	.loc 1 5045 0
	cmpwi 7,28,5122
	.loc 1 5039 0
	lbz 9,1(30)
	.loc 1 5040 0
	lbz 0,0(30)
	.loc 1 5039 0
	rlwimi 31,9,24,0,7
	.loc 1 5040 0
	rlwimi 31,0,16,8,15
	.loc 1 5045 0
	beq- 7,.L452
.L405:
	.loc 1 5053 0
	rlwinm 0,31,16,16,31
	sth 0,0(21)
	addi 21,21,2
.LVL418:
.L375:
.LBE186:
	.loc 1 4968 0
	addi 22,22,1
.LBB187:
	.loc 1 5115 0
	add 30,30,20
.LVL419:
.LBE187:
	.loc 1 4968 0
	cmpw 7,22,19
	bne+ 7,.L418
.LVL420:
.L419:
	.loc 1 4966 0
	addi 16,16,1
	.loc 1 5117 0
	add 15,15,14
.LVL421:
	.loc 1 4966 0
	cmpw 7,16,27
	bne+ 7,.L374
	.loc 1 4883 0
	mullw 30,14,27
	.loc 1 4966 0
	lwz 9,180(1)
	add 30,9,30
.LVL422:
.L373:
	.loc 1 5127 0
	mr 3,28
	bl isTypePackedPixel
	cmpwi 7,3,0
	beq- 7,.L453
	.loc 1 5131 0
	mullw 25,25,27
.LVL423:
	mr 3,29
	li 4,0
	bl elements_per_group
	lwz 10,168(1)
	mullw 0,25,3
	slwi 0,0,1
	add 0,10,0
	cmpw 7,21,0
	bne- 7,.L454
.L421:
	.loc 1 5134 0
	lwz 9,40(26)
	lwz 0,44(26)
	lwz 11,176(1)
	add 27,27,9
.LVL424:
	mullw 14,27,14
.LVL425:
	mullw 0,11,0
	add 0,14,0
	add 23,23,0
.LVL426:
	cmpw 7,30,23
	bne- 7,.L455
.LVL427:
.L357:
	.loc 1 5139 0
	lwz 0,276(1)
	lwz 12,196(1)
	mtlr 0
	lwz 14,200(1)
	lwz 15,204(1)
	mtcrf 56,12
	lwz 16,208(1)
	lwz 17,212(1)
.LVL428:
	lwz 18,216(1)
	lwz 19,220(1)
	lwz 20,224(1)
	lwz 21,228(1)
	lwz 22,232(1)
	lwz 23,236(1)
	lwz 24,240(1)
	lwz 25,244(1)
	lwz 26,248(1)
.LVL429:
	lwz 27,252(1)
	lwz 28,256(1)
.LVL430:
	lwz 29,260(1)
	lwz 30,264(1)
	lwz 31,268(1)
.LVL431:
	addi 1,1,272
	.cfi_remember_state
.LCFI90:
	.cfi_def_cfa_offset 0
	.cfi_restore 70
	.cfi_restore 31
	.cfi_restore 30
	.cfi_restore 29
	.cfi_restore 28
	.cfi_restore 27
	.cfi_restore 26
	.cfi_restore 25
	.cfi_restore 24
	.cfi_restore 23
	.cfi_restore 22
	.cfi_restore 21
	.cfi_restore 20
	.cfi_restore 19
	.cfi_restore 18
	.cfi_restore 17
	.cfi_restore 16
	.cfi_restore 15
	.cfi_restore 14
	blr
.LVL432:
.L392:
.LCFI91:
	.cfi_restore_state
.LBB188:
	.loc 1 4972 0
	beq- 3,.L387
	cmplwi 7,28,33636
	bgt- 7,.L394
	lwz 0,152(1)
	rlwinm 0,0,4,0xffffffff
	mtcrf 1,0
	rlwinm 0,0,28,0xffffffff
	beq- 7,.L384
	cmplwi 7,28,32822
	blt- 7,.L383
	beq- 2,.L385
	xoris 0,28,0xffff
	cmpwi 7,0,-31901
	bne 7,.L375
	.loc 1 5001 0
	mr 3,17
	mr 4,30
	addi 5,1,8
	bl extract565
.LVL433:
	.loc 1 5003 0
	lfs 13,.LC34@l(18)
	.loc 1 5001 0
	addi 9,1,4
	.loc 1 4883 0
	addi 11,21,-2
	addi 10,1,16
.LVL434:
.L397:
	.loc 1 5003 0 discriminator 2
	lfsu 0,4(9)
	addi 8,1,116
	fmuls 0,0,13
	.loc 1 5002 0 discriminator 2
	cmpw 7,9,10
	.loc 1 5003 0 discriminator 2
	fctiwz 0,0
	stfiwx 0,0,8
	lwz 0,116(1)
	sthu 0,2(11)
	.loc 1 5002 0 discriminator 2
	bne+ 7,.L397
.LVL435:
	.loc 1 4982 0
	addi 21,21,6
.LVL436:
	b .L375
.LVL437:
.L393:
	.loc 1 4972 0
	xoris 0,28,0xffff
	cmpwi 7,0,-32718
	beq 7,.L380
	cmplwi 7,28,32818
	bgt- 7,.L381
	cmplwi 7,28,5126
	bgt- 7,.L375
	.loc 1 5083 0
	cmpwi 7,17,0
	beq- 7,.L411
	.loc 1 5084 0
	lbz 9,3(30)
	.loc 1 5094 0
	cmpwi 7,28,5126
	.loc 1 5085 0
	lbz 0,2(30)
	.loc 1 5084 0
	rlwimi 31,9,24,0,7
	.loc 1 5086 0
	lbz 9,1(30)
	.loc 1 5085 0
	rlwimi 31,0,16,8,15
	.loc 1 5087 0
	lbz 0,0(30)
	.loc 1 5086 0
	rlwimi 31,9,8,16,23
	.loc 1 5087 0
	rlwimi 31,0,0,24,31
	.loc 1 5094 0
	beq- 7,.L456
.L413:
	.loc 1 5100 0
	cmpwi 7,28,5125
	beq- 7,.L457
	.loc 1 5107 0
	cmpwi 7,24,0
	.loc 1 5110 0
	srawi 0,31,15
	.loc 1 5107 0
	beq- 7,.L441
.L446:
	.loc 1 5108 0
	sth 31,0(21)
	addi 21,21,2
.LVL438:
	b .L375
.L394:
	.loc 1 4972 0
	lwz 0,148(1)
	rlwinm 0,0,4,0xffffffff
	mtcrf 1,0
	rlwinm 0,0,28,0xffffffff
	beq- 7,.L389
	cmplwi 7,28,33638
	blt- 7,.L388
	lwz 0,160(1)
	rlwinm 0,0,4,0xffffffff
	mtcrf 1,0
	rlwinm 0,0,28,0xffffffff
	beq- 7,.L390
	lwz 0,172(1)
	rlwinm 0,0,4,0xffffffff
	mtcrf 1,0
	rlwinm 0,0,28,0xffffffff
	bne+ 7,.L375
	.loc 1 5075 0
	mr 3,17
	mr 4,30
	addi 5,1,8
	bl extract2101010rev
.LVL439:
	.loc 1 5077 0
	li 10,4
	lfs 13,.LC34@l(18)
	mtctr 10
	.loc 1 5075 0
	addi 11,1,4
	.loc 1 4883 0
	addi 9,21,-2
.LVL440:
.L410:
	.loc 1 5077 0 discriminator 2
	lfsu 0,4(11)
	addi 8,1,80
	fmuls 0,0,13
	fctiwz 0,0
	stfiwx 0,0,8
	lwz 0,80(1)
	sthu 0,2(9)
	.loc 1 5076 0 discriminator 2
	bdnz .L410
	.loc 1 5076 0 is_stmt 0
	addi 21,21,8
	b .L375
.LVL441:
.L451:
	.loc 1 4972 0 is_stmt 1
	cmpwi 7,28,5120
	beq- 7,.L376
	cmpwi 7,28,5121
	bne+ 7,.L375
	.loc 1 4986 0
	cmpwi 7,24,0
	.loc 1 4987 0
	lbz 0,0(30)
	.loc 1 4986 0
	bne- 7,.L441
	.loc 1 4989 0
	slwi 9,0,8
	add 0,9,0
	sth 0,0(21)
	addi 21,21,2
.LVL442:
	b .L375
.L441:
	.loc 1 5110 0
	sth 0,0(21)
	addi 21,21,2
.LVL443:
	b .L375
.L376:
	.loc 1 4993 0
	cmpwi 7,24,0
	.loc 1 4994 0
	lbz 0,0(30)
	extsb 0,0
	.loc 1 4993 0
	bne- 7,.L441
	.loc 1 4997 0
	slwi 9,0,2
	slwi 0,0,9
	add 0,9,0
	sth 0,0(21)
	addi 21,21,2
.LVL444:
	b .L375
.L387:
	.loc 1 5007 0
	mr 3,17
	mr 4,30
	addi 5,1,8
	bl extract565rev
.LVL445:
	.loc 1 5009 0
	lfs 13,.LC34@l(18)
	.loc 1 5007 0
	addi 9,1,4
	.loc 1 4883 0
	addi 11,21,-2
	addi 10,1,16
.LVL446:
.L398:
	.loc 1 5009 0 discriminator 2
	lfsu 0,4(9)
	addi 8,1,112
	fmuls 0,0,13
	.loc 1 5008 0 discriminator 2
	cmpw 7,9,10
	.loc 1 5009 0 discriminator 2
	fctiwz 0,0
	stfiwx 0,0,8
	lwz 0,112(1)
	sthu 0,2(11)
	.loc 1 5008 0 discriminator 2
	bne+ 7,.L398
.LVL447:
	.loc 1 4982 0
	addi 21,21,6
.LVL448:
	b .L375
.LVL449:
.L382:
	.loc 1 5025 0
	mr 3,17
	mr 4,30
	addi 5,1,8
	bl extract5551
.LVL450:
	.loc 1 5027 0
	li 10,4
	lfs 13,.LC34@l(18)
	mtctr 10
	.loc 1 5025 0
	addi 11,1,4
	.loc 1 4883 0
	addi 9,21,-2
.LVL451:
.L401:
	.loc 1 5027 0 discriminator 2
	lfsu 0,4(11)
	addi 8,1,100
	fmuls 0,0,13
	fctiwz 0,0
	stfiwx 0,0,8
	lwz 0,100(1)
	sthu 0,2(9)
	.loc 1 5026 0 discriminator 2
	bdnz .L401
	.loc 1 5076 0
	addi 21,21,8
	b .L375
.LVL452:
.L381:
	.loc 1 5013 0
	mr 3,17
	mr 4,30
	addi 5,1,8
	bl extract4444
.LVL453:
	.loc 1 5015 0
	li 10,4
	lfs 13,.LC34@l(18)
	mtctr 10
	.loc 1 5013 0
	addi 11,1,4
	.loc 1 4883 0
	addi 9,21,-2
.LVL454:
.L399:
	.loc 1 5015 0 discriminator 2
	lfsu 0,4(11)
	addi 8,1,108
	fmuls 0,0,13
	fctiwz 0,0
	stfiwx 0,0,8
	lwz 0,108(1)
	sthu 0,2(9)
	.loc 1 5014 0 discriminator 2
	bdnz .L399
	.loc 1 5076 0
	addi 21,21,8
	b .L375
.LVL455:
.L380:
.LBB158:
.LBB159:
	.loc 1 5490 0
	lbz 9,0(30)
.LVL456:
	.loc 1 5498 0
	lis 0,0x4330
	stw 0,24(1)
.LBE159:
.LBE158:
	.loc 1 4976 0
	addi 8,1,132
.LBB165:
.LBB160:
	.loc 1 5498 0
	srwi 10,9,5
	.loc 1 5499 0
	rlwinm 11,9,30,29,31
	.loc 1 5500 0
	rlwinm 9,9,0,30,31
.LVL457:
	.loc 1 5498 0
	xoris 10,10,0x8000
	.loc 1 5499 0
	xoris 11,11,0x8000
	.loc 1 5500 0
	xoris 9,9,0x8000
	.loc 1 5498 0
	stw 10,28(1)
.LBE160:
.LBE165:
	.loc 1 4976 0
	addi 10,1,140
.LBB166:
.LBB161:
	.loc 1 5499 0
	stw 11,36(1)
	stw 0,32(1)
	.loc 1 5500 0
	stw 9,44(1)
	.loc 1 5498 0
	lis 9,.LC5@ha
	.loc 1 5500 0
	stw 0,40(1)
	.loc 1 5498 0
	lfs 0,.LC5@l(9)
	lis 9,.LC6@ha
	.loc 1 5500 0
	lfd 10,40(1)
	.loc 1 5498 0
	lfd 11,24(1)
	.loc 1 5499 0
	lfd 9,32(1)
	.loc 1 5498 0
	fsub 11,11,0
	lfs 12,.LC6@l(9)
	.loc 1 5499 0
	fsub 9,9,0
	.loc 1 5500 0
	lis 9,.LC7@ha
	fsub 0,10,0
	lfs 13,.LC7@l(9)
	.loc 1 5498 0
	frsp 11,11
.LBE161:
.LBE166:
	.loc 1 4976 0
	addi 9,1,136
.LBB167:
.LBB162:
	.loc 1 5499 0
	frsp 9,9
	.loc 1 5500 0
	frsp 10,0
.LBE162:
.LBE167:
	.loc 1 4976 0
	lfs 0,.LC34@l(18)
.LBB168:
.LBB163:
	.loc 1 5498 0
	fdivs 11,11,12
	.loc 1 5500 0
	fdivs 13,10,13
	.loc 1 5498 0
	stfs 11,8(1)
	.loc 1 5499 0
	fdivs 12,9,12
.LBE163:
.LBE168:
	.loc 1 4976 0
	fmuls 11,11,0
.LBB169:
.LBB164:
	.loc 1 5499 0
	stfs 12,12(1)
.LBE164:
.LBE169:
	.loc 1 4976 0
	fmuls 12,12,0
	fmuls 0,13,0
	fctiwz 11,11
	fctiwz 12,12
	fctiwz 0,0
	stfiwx 11,0,8
	stfiwx 12,0,9
	stfiwx 0,0,10
	lwz 11,132(1)
	lwz 9,136(1)
	lwz 0,140(1)
.LVL458:
.L440:
	.loc 1 4982 0
	sth 11,0(21)
	sth 9,2(21)
	sth 0,4(21)
	addi 21,21,6
.LVL459:
.LBB170:
.LBB171:
	.loc 1 5536 0
	stfs 13,16(1)
.LVL460:
	b .L375
.LVL461:
.L390:
.LBE171:
.LBE170:
	.loc 1 5063 0
	mr 3,17
	mr 4,30
	addi 5,1,8
	bl extract8888rev
.LVL462:
	.loc 1 5065 0
	li 10,4
	lfs 13,.LC34@l(18)
	mtctr 10
	.loc 1 5063 0
	addi 11,1,4
	.loc 1 4883 0
	addi 9,21,-2
.LVL463:
.L408:
	.loc 1 5065 0 discriminator 2
	lfsu 0,4(11)
	addi 8,1,88
	fmuls 0,0,13
	fctiwz 0,0
	stfiwx 0,0,8
	lwz 0,88(1)
	sthu 0,2(9)
	.loc 1 5064 0 discriminator 2
	bdnz .L408
	.loc 1 5076 0
	addi 21,21,8
	b .L375
.LVL464:
.L384:
	.loc 1 5069 0
	mr 3,17
	mr 4,30
	addi 5,1,8
	bl extract1010102
.LVL465:
	.loc 1 5071 0
	li 10,4
	lfs 13,.LC34@l(18)
	mtctr 10
	.loc 1 5069 0
	addi 11,1,4
	.loc 1 4883 0
	addi 9,21,-2
.LVL466:
.L409:
	.loc 1 5071 0 discriminator 2
	lfsu 0,4(11)
	addi 8,1,84
	fmuls 0,0,13
	fctiwz 0,0
	stfiwx 0,0,8
	lwz 0,84(1)
	sthu 0,2(9)
	.loc 1 5070 0 discriminator 2
	bdnz .L409
	.loc 1 5076 0
	addi 21,21,8
	b .L375
.LVL467:
.L388:
	.loc 1 5019 0
	mr 3,17
	mr 4,30
	addi 5,1,8
	bl extract4444rev
.LVL468:
	.loc 1 5021 0
	li 10,4
	lfs 13,.LC34@l(18)
	mtctr 10
	.loc 1 5019 0
	addi 11,1,4
	.loc 1 4883 0
	addi 9,21,-2
.LVL469:
.L400:
	.loc 1 5021 0 discriminator 2
	lfsu 0,4(11)
	addi 8,1,104
	fmuls 0,0,13
	fctiwz 0,0
	stfiwx 0,0,8
	lwz 0,104(1)
	sthu 0,2(9)
	.loc 1 5020 0 discriminator 2
	bdnz .L400
	.loc 1 5076 0
	addi 21,21,8
	b .L375
.LVL470:
.L389:
	.loc 1 5031 0
	mr 3,17
	mr 4,30
	addi 5,1,8
	bl extract1555rev
.LVL471:
	.loc 1 5033 0
	li 10,4
	lfs 13,.LC34@l(18)
	mtctr 10
	.loc 1 5031 0
	addi 11,1,4
	.loc 1 4883 0
	addi 9,21,-2
.LVL472:
.L402:
	.loc 1 5033 0 discriminator 2
	lfsu 0,4(11)
	addi 8,1,96
	fmuls 0,0,13
	fctiwz 0,0
	stfiwx 0,0,8
	lwz 0,96(1)
	sthu 0,2(9)
	.loc 1 5032 0 discriminator 2
	bdnz .L402
	.loc 1 5076 0
	addi 21,21,8
	b .L375
.LVL473:
.L385:
.LBB178:
.LBB172:
	.loc 1 5526 0
	lbz 9,0(30)
.LVL474:
	.loc 1 5534 0
	lis 0,0x4330
	stw 0,48(1)
.LBE172:
.LBE178:
	.loc 1 4982 0
	addi 8,1,124
.LBB179:
.LBB173:
	.loc 1 5534 0
	rlwinm 10,9,0,29,31
	.loc 1 5535 0
	rlwinm 11,9,29,29,31
	.loc 1 5536 0
	srwi 9,9,6
.LVL475:
	.loc 1 5535 0
	xoris 11,11,0x8000
	.loc 1 5536 0
	xoris 9,9,0x8000
	.loc 1 5534 0
	xoris 10,10,0x8000
	.loc 1 5535 0
	stw 11,60(1)
.LBE173:
.LBE179:
	.loc 1 4982 0
	addi 11,1,120
.LBB180:
.LBB174:
	.loc 1 5535 0
	stw 0,56(1)
	.loc 1 5536 0
	stw 9,68(1)
	.loc 1 5534 0
	lis 9,.LC5@ha
	.loc 1 5536 0
	stw 0,64(1)
	.loc 1 5534 0
	stw 10,52(1)
	.loc 1 5536 0
	lfd 10,64(1)
	.loc 1 5534 0
	lfs 0,.LC5@l(9)
	lis 9,.LC6@ha
	lfd 11,48(1)
	.loc 1 5535 0
	lfd 9,56(1)
	.loc 1 5534 0
	fsub 11,11,0
	lfs 12,.LC6@l(9)
	.loc 1 5535 0
	fsub 9,9,0
	.loc 1 5536 0
	lis 9,.LC7@ha
	fsub 0,10,0
	lfs 13,.LC7@l(9)
	.loc 1 5534 0
	frsp 11,11
.LBE174:
.LBE180:
	.loc 1 4982 0
	addi 9,1,128
.LBB181:
.LBB175:
	.loc 1 5535 0
	frsp 9,9
	.loc 1 5536 0
	frsp 10,0
.LBE175:
.LBE181:
	.loc 1 4982 0
	lfs 0,.LC34@l(18)
.LBB182:
.LBB176:
	.loc 1 5534 0
	fdivs 11,11,12
	.loc 1 5536 0
	fdivs 13,10,13
	.loc 1 5534 0
	stfs 11,8(1)
	.loc 1 5535 0
	fdivs 12,9,12
.LBE176:
.LBE182:
	.loc 1 4982 0
	fmuls 11,11,0
.LBB183:
.LBB177:
	.loc 1 5535 0
	stfs 12,12(1)
.LBE177:
.LBE183:
	.loc 1 4982 0
	fmuls 12,12,0
	fmuls 0,13,0
	fctiwz 11,11
	fctiwz 12,12
	fctiwz 0,0
	stfiwx 11,0,11
	stfiwx 12,0,8
	stfiwx 0,0,9
	lwz 11,120(1)
	lwz 9,124(1)
	lwz 0,128(1)
	b .L440
.LVL476:
.L383:
	.loc 1 5057 0
	mr 3,17
	mr 4,30
	addi 5,1,8
	bl extract8888
.LVL477:
	.loc 1 5059 0
	li 10,4
	lfs 13,.LC34@l(18)
	mtctr 10
	.loc 1 5057 0
	addi 11,1,4
	.loc 1 4883 0
	addi 9,21,-2
.LVL478:
.L407:
	.loc 1 5059 0 discriminator 2
	lfsu 0,4(11)
	addi 8,1,92
	fmuls 0,0,13
	fctiwz 0,0
	stfiwx 0,0,8
	lwz 0,92(1)
	sthu 0,2(9)
	.loc 1 5058 0 discriminator 2
	bdnz .L407
	.loc 1 5076 0
	addi 21,21,8
	b .L375
.LVL479:
.L411:
	.loc 1 5089 0
	lbz 9,0(30)
	.loc 1 5094 0
	cmpwi 7,28,5126
	.loc 1 5090 0
	lbz 0,1(30)
	.loc 1 5089 0
	rlwimi 31,9,24,0,7
	.loc 1 5091 0
	lbz 9,2(30)
	.loc 1 5090 0
	rlwimi 31,0,16,8,15
	.loc 1 5092 0
	lbz 0,3(30)
	.loc 1 5091 0
	rlwimi 31,9,8,16,23
	.loc 1 5092 0
	rlwimi 31,0,0,24,31
	.loc 1 5094 0
	bne+ 7,.L413
.L456:
	.loc 1 5095 0
	cmpwi 7,24,0
	beq- 7,.L414
	.loc 1 5096 0
	stw 31,184(1)
	addi 8,1,76
	lfs 13,184(1)
	fctiwz 0,13
	stfiwx 0,0,8
	lwz 0,76(1)
	sth 0,0(21)
	addi 21,21,2
.LVL480:
	b .L375
.L403:
	.loc 1 5045 0
	cmpwi 7,28,5122
	.loc 1 5042 0
	lbz 9,0(30)
	.loc 1 5043 0
	lbz 0,1(30)
	.loc 1 5042 0
	rlwimi 31,9,24,0,7
	.loc 1 5043 0
	rlwimi 31,0,16,8,15
	.loc 1 5045 0
	bne+ 7,.L405
.L452:
	.loc 1 5046 0
	cmpwi 7,24,0
	.loc 1 5047 0
	srawi 0,31,16
	.loc 1 5046 0
	bne- 7,.L441
	.loc 1 5050 0
	slwi 0,0,1
	sth 0,0(21)
	addi 21,21,2
.LVL481:
	b .L375
.L457:
	.loc 1 5101 0
	cmpwi 7,24,0
	bne- 7,.L446
	.loc 1 5104 0
	srwi 0,31,16
	sth 0,0(21)
	addi 21,21,2
.LVL482:
	b .L375
.L414:
	.loc 1 5098 0
	stw 31,184(1)
	addi 8,1,72
	lfs 0,.LC34@l(18)
	lfs 13,184(1)
	fmuls 0,13,0
	fctiwz 0,0
	stfiwx 0,0,8
	lwz 0,72(1)
	sth 0,0(21)
	addi 21,21,2
.LVL483:
	b .L375
.LVL484:
.L450:
.LBE188:
	.loc 1 4959 0
	subf 0,9,0
	add 14,14,0
.LVL485:
	b .L372
.LVL486:
.L453:
	.loc 1 5128 0
	mullw 0,25,27
	lwz 8,164(1)
	lwz 9,168(1)
	mullw 0,0,8
	slwi 0,0,1
	add 0,9,0
	cmpw 7,21,0
	beq+ 7,.L421
	.loc 1 5128 0 is_stmt 0 discriminator 1
	lis 5,.LANCHOR0@ha
	lis 3,.LC15@ha
	la 5,.LANCHOR0@l(5)
	lis 6,.LC35@ha
	la 3,.LC15@l(3)
	li 4,5128
	addi 5,5,196
	la 6,.LC35@l(6)
	bl __assert_func
.LVL487:
.L448:
.LBB189:
	.loc 1 4914 0 is_stmt 1
	lwz 0,164(1)
	mullw 30,14,0
	.loc 1 4915 0
	lwz 0,32(26)
	.loc 1 4914 0
	addi 30,30,7
	srawi 30,30,3
	addze 30,30
.LVL488:
	.loc 1 4915 0
	divw 9,30,0
	mullw 9,9,0
.LVL489:
	.loc 1 4916 0
	subf. 9,9,30
.LVL490:
	bne- 0,.L458
.L360:
	.loc 1 4923 0
	cmpwi 7,27,0
	.loc 1 4921 0
	lwz 8,164(1)
	.loc 1 4919 0
	lwz 11,40(26)
	.loc 1 4920 0
	lwz 0,44(26)
.LVL491:
	.loc 1 4921 0
	mullw 7,25,8
.LVL492:
	.loc 1 4923 0
	ble- 7,.L357
	.loc 1 4920 0
	mullw 0,0,8
	.loc 1 4934 0
	cmpwi 1,24,0
	.loc 1 4922 0
	lwz 8,168(1)
	cmpwi 0,7,0
	.loc 1 4923 0
	li 4,0
	.loc 1 4883 0
	slwi 7,7,1
.LVL493:
	.loc 1 4919 0
	mullw 11,11,30
	.loc 1 4920 0
	srawi 9,0,3
	addze 9,9
.LVL494:
	.loc 1 4925 0
	slwi 29,9,3
.LVL495:
	subf 29,29,0
	.loc 1 4919 0
	add 9,11,9
	.loc 1 4931 0
	li 6,1
	.loc 1 4919 0
	add 23,23,9
.LVL496:
	.loc 1 4937 0
	li 31,-1
	.loc 1 4935 0
	li 3,1
.LVL497:
.L370:
	.loc 1 4926 0
	ble- 0,.L362
	.loc 1 4928 0
	lwz 0,48(26)
	.loc 1 4925 0
	mr 9,29
	.loc 1 4883 0
	mr 10,23
	li 11,0
	cmpwi 6,0,0
.LVL498:
.L369:
	.loc 1 4928 0
	beq- 6,.L363
	.loc 1 4929 0
	lbz 5,0(10)
	slw 0,6,9
	and 0,5,0
.LVL499:
	.loc 1 4933 0
	cmpwi 7,0,0
	beq- 7,.L365
.L460:
	.loc 1 4934 0
	beq- 1,.L366
	.loc 1 4935 0
	sthx 3,8,11
.L367:
.LVL500:
	.loc 1 4943 0
	cmpwi 7,9,7
	addi 9,9,1
.LVL501:
	beq- 7,.L459
.LVL502:
.L368:
	.loc 1 4945 0
	addi 11,11,2
	.loc 1 4926 0
	cmpw 7,11,7
	bne+ 7,.L369
	add 8,8,7
.LVL503:
.L362:
	.loc 1 4923 0
	addi 4,4,1
.LVL504:
	cmpw 7,4,27
	beq- 7,.L357
	.loc 1 4949 0
	add 23,23,30
	b .L370
.LVL505:
.L363:
	.loc 1 4931 0
	subfic 0,9,7
	lbz 5,0(10)
	slw 0,6,0
	and 0,0,5
.LVL506:
	.loc 1 4933 0
	cmpwi 7,0,0
	bne- 7,.L460
.L365:
	.loc 1 4943 0
	cmpwi 7,9,7
	.loc 1 4940 0
	sthx 0,8,11
.LVL507:
	.loc 1 4943 0
	addi 9,9,1
.LVL508:
	bne+ 7,.L368
.L459:
.LVL509:
	.loc 1 4945 0
	addi 10,10,1
.LVL510:
	.loc 1 4944 0
	li 9,0
	b .L368
.LVL511:
.L366:
	.loc 1 4937 0
	sthx 31,8,11
	b .L367
.LVL512:
.L447:
.LBE189:
	.loc 1 4906 0
	mr 14,25
	b .L358
.LVL513:
.L449:
	.loc 1 4954 0
	li 17,0
.LVL514:
	b .L371
.LVL515:
.L458:
.LBB190:
	.loc 1 4917 0
	subf 0,9,0
	add 30,30,0
.LVL516:
	b .L360
.LVL517:
.L454:
.LBE190:
	.loc 1 5131 0 discriminator 1
	lis 5,.LANCHOR0@ha
	lis 3,.LC15@ha
	la 5,.LANCHOR0@l(5)
	lis 6,.LC36@ha
	la 3,.LC15@l(3)
	li 4,5132
	addi 5,5,196
	la 6,.LC36@l(6)
	bl __assert_func
.LVL518:
.L455:
	.loc 1 5134 0 discriminator 1
	lis 5,.LANCHOR0@ha
	lis 3,.LC15@ha
	la 5,.LANCHOR0@l(5)
	lis 6,.LC37@ha
	la 3,.LC15@l(3)
	li 4,5136
	addi 5,5,196
	la 6,.LC37@l(6)
	bl __assert_func
	.cfi_endproc
.LFE48:
	.size	fill_image, .-fill_image
	.align 2
	.type	isLegalFormatForPackedPixelType, @function
isLegalFormatForPackedPixelType:
.LFB32:
	.loc 1 3386 0
	.cfi_startproc
.LVL519:
	stwu 1,-16(1)
.LCFI92:
	.cfi_def_cfa_offset 16
	mflr 0
	stw 30,8(1)
	mr 30,3
	.cfi_offset 30, -8
	.cfi_register 65, 0
	.loc 1 3388 0
	mr 3,4
.LVL520:
	.loc 1 3386 0
	stw 31,12(1)
	stw 0,20(1)
	.loc 1 3386 0
	mr 31,4
	.cfi_offset 65, 4
	.cfi_offset 31, -4
	.loc 1 3388 0
	bl isTypePackedPixel
.LVL521:
	cmpwi 7,3,0
	.loc 1 3389 0
	li 3,1
	.loc 1 3388 0
	beq- 7,.L462
	.loc 1 3393 0
	xoris 0,31,0xffff
	cmpwi 7,0,-32718
	beq 7,.L463
	.loc 1 3393 0 is_stmt 0 discriminator 1
	xoris 0,31,0xffff
	cmpwi 7,0,-31902
	beq 7,.L463
	xoris 0,31,0xffff
	cmpwi 7,0,-31901
	beq 7,.L463
	.loc 1 3394 0 is_stmt 1
	xoris 0,31,0xffff
	cmpwi 7,0,-31900
	beq 7,.L463
.L464:
.LVL522:
.LBB193:
.LBB194:
	.loc 1 3401 0
	xoris 0,31,0xffff
	cmpwi 7,0,-32717
	beq 7,.L465
	xoris 0,31,0xffff
	cmpwi 7,0,-31899
	beq 7,.L465
	.loc 1 3402 0
	xoris 0,31,0xffff
	cmpwi 7,0,-32716
	beq 7,.L465
	.loc 1 3403 0
	xoris 0,31,0xffff
	cmpwi 7,0,-31898
	beq 7,.L465
	.loc 1 3404 0
	xoris 0,31,0xffff
	cmpwi 7,0,-32715
	beq 7,.L465
	.loc 1 3405 0
	xoris 0,31,0xffff
	cmpwi 7,0,-31897
	beq 7,.L465
	.loc 1 3406 0
	xoris 0,31,0xffff
	cmpwi 7,0,-32714
	beq 7,.L465
	.loc 1 3407 0
	li 0,0
	.loc 1 3414 0
	li 3,1
	.loc 1 3407 0
	ori 0,0,33640
	cmpw 7,31,0
	beq- 7,.L465
.LVL523:
.L462:
.LBE194:
.LBE193:
	.loc 1 3415 0
	lwz 0,20(1)
	lwz 30,8(1)
.LVL524:
	mtlr 0
	lwz 31,12(1)
.LVL525:
	addi 1,1,16
	.cfi_remember_state
.LCFI93:
	.cfi_def_cfa_offset 0
	.cfi_restore 31
	.cfi_restore 30
	blr
.LVL526:
.L463:
.LCFI94:
	.cfi_restore_state
	.loc 1 3395 0
	cmpwi 7,30,6407
	.loc 1 3396 0
	li 3,0
	.loc 1 3395 0
	beq- 7,.L464
	.loc 1 3415 0
	lwz 0,20(1)
	lwz 30,8(1)
.LVL527:
	mtlr 0
	lwz 31,12(1)
.LVL528:
	addi 1,1,16
	.cfi_remember_state
	.cfi_restore 30
	.cfi_restore 31
.LCFI95:
	.cfi_def_cfa_offset 0
	blr
.LVL529:
.L465:
.LCFI96:
	.cfi_restore_state
.LBB198:
.LBB195:
	.loc 1 3408 0
	cmpwi 7,30,6408
	.loc 1 3414 0
	li 3,1
	.loc 1 3408 0
	beq- 7,.L462
.LBE195:
.LBE198:
	.loc 1 3415 0
	lwz 0,20(1)
.LBB199:
.LBB196:
	.loc 1 3411 0
	xori 3,30,32993
	cntlzw 3,3
.LBE196:
.LBE199:
	.loc 1 3415 0
	lwz 30,8(1)
.LVL530:
	mtlr 0
	lwz 31,12(1)
.LVL531:
.LBB200:
.LBB197:
	.loc 1 3411 0
	srwi 3,3,5
.LBE197:
.LBE200:
	.loc 1 3415 0
	addi 1,1,16
	.cfi_restore 30
	.cfi_restore 31
.LCFI97:
	.cfi_def_cfa_offset 0
	blr
	.cfi_endproc
.LFE32:
	.size	isLegalFormatForPackedPixelType, .-isLegalFormatForPackedPixelType
	.align 2
	.type	checkMipmapArgs, @function
checkMipmapArgs:
.LFB27:
	.loc 1 3223 0
	.cfi_startproc
.LVL532:
.LBB211:
.LBB212:
	.loc 1 3266 0
	cmplwi 7,3,6410
.LBE212:
.LBE211:
	.loc 1 3223 0
	mflr 0
	stwu 1,-24(1)
.LCFI98:
	.cfi_def_cfa_offset 24
	.cfi_register 65, 0
	stw 31,20(1)
	mr 31,4
	.cfi_offset 31, -4
	stw 0,28(1)
.LBB217:
.LBB213:
	.loc 1 3266 0
	bgt- 7,.L476
	.cfi_offset 65, 4
.LVL533:
	cmplwi 7,3,6406
	blt- 7,.L487
.LVL534:
.L475:
	.loc 1 3321 0
	li 3,7938
	stw 5,8(1)
	bl glGetString
.LVL535:
	li 4,0
	bl strtod
	lis 9,.LC29@ha
	lfd 0,.LC29@l(9)
	lwz 5,8(1)
	fcmpu 7,1,0
	cror 30,29,30
	bne- 7,.L488
.L474:
.LVL536:
.LBE213:
.LBE217:
.LBB218:
.LBB219:
.LBB220:
.LBB221:
	.loc 1 3243 0
	cmplwi 7,31,6400
	bge- 7,.L489
.LVL537:
.L481:
.LBE221:
.LBE220:
.LBE219:
.LBE218:
.LBB230:
.LBB214:
	.loc 1 3225 0
	lis 3,0x1
	ori 3,3,35364
.L473:
.LBE214:
.LBE230:
	.loc 1 3239 0
	lwz 0,28(1)
	lwz 31,20(1)
.LVL538:
	mtlr 0
	addi 1,1,24
	.cfi_remember_state
.LCFI99:
	.cfi_def_cfa_offset 0
	.cfi_restore 31
	blr
.LVL539:
.L476:
.LCFI100:
	.cfi_restore_state
.LBB231:
.LBB215:
	.loc 1 3266 0
	cmpwi 7,3,10768
	beq- 7,.L475
	cmplwi 7,3,10768
	blt- 7,.L481
	addis 3,3,0xffff
.LVL540:
	addi 3,3,32709
.LVL541:
	cmplwi 7,3,32
	bgt- 7,.L481
.LVL542:
	b .L475
.LVL543:
.L487:
	addi 3,3,-1
.LVL544:
	cmplwi 7,3,3
	bgt- 7,.L481
.LVL545:
.LBE215:
.LBE231:
.LBB232:
.LBB228:
.LBB223:
.LBB222:
	.loc 1 3243 0
	cmplwi 7,31,6400
	blt- 7,.L481
.LVL546:
.L489:
	cmplwi 7,31,6410
	ble- 7,.L478
	addis 9,31,0xffff
	addi 0,9,32544
	cmplwi 7,0,1
	bgt- 7,.L481
.L478:
.LVL547:
.LBE222:
.LBE223:
.LBB224:
.LBB225:
	.loc 1 3335 0
	cmplwi 7,5,32822
	bgt- 7,.L480
	cmplwi 7,5,32818
	bge- 7,.L479
	cmplwi 7,5,5120
	blt- 7,.L481
	cmplwi 7,5,5126
	ble- 7,.L479
	cmpwi 7,5,6656
	bne+ 7,.L481
.L479:
.LBE225:
.LBE224:
	.loc 1 3230 0
	cmpwi 7,31,6401
	.loc 1 3231 0
	lis 3,0x1
	ori 3,3,35364
	.loc 1 3230 0
	beq+ 7,.L473
	.loc 1 3234 0
	mr 3,31
	mr 4,5
	bl isLegalFormatForPackedPixelType
.LVL548:
	cmpwi 7,3,0
	.loc 1 3238 0
	li 3,0
	.loc 1 3234 0
	bne- 7,.L473
	.loc 1 3235 0
	lis 3,0x1
	ori 3,3,35368
	b .L473
.LVL549:
.L488:
.LBE228:
.LBE232:
.LBB233:
.LBB216:
	.loc 1 3323 0
	li 3,7939
	bl glGetString
	mr 4,3
	lis 3,.LC38@ha
	la 3,.LC38@l(3)
	bl gluCheckExtension
	lwz 5,8(1)
	cmpwi 7,3,0
	.loc 1 3225 0
	lis 3,0x1
	ori 3,3,35364
	.loc 1 3323 0
	beq- 7,.L473
	b .L474
.LVL550:
.L480:
.LBE216:
.LBE233:
.LBB234:
.LBB229:
.LBB227:
.LBB226:
	.loc 1 3335 0
	addis 9,5,0xffff
	addi 0,9,31902
	cmplwi 7,0,6
	bgt- 7,.L481
	b .L479
.LBE226:
.LBE227:
.LBE229:
.LBE234:
	.cfi_endproc
.LFE27:
	.size	checkMipmapArgs, .-checkMipmapArgs
	.align 2
	.type	image_size, @function
image_size:
.LFB47:
	.loc 1 4864 0
	.cfi_startproc
.LVL551:
	stwu 1,-40(1)
.LCFI101:
	.cfi_def_cfa_offset 40
	mflr 0
	stw 30,32(1)
	.loc 1 4868 0
	mr. 30,3
	.cfi_offset 30, -8
	.cfi_register 65, 0
	.loc 1 4864 0
	stw 29,28(1)
	mr 29,6
	.cfi_offset 29, -12
	stw 31,36(1)
	mr 31,4
	.cfi_offset 31, -4
	stw 0,44(1)
	stw 28,24(1)
	.loc 1 4868 0
	ble- 0,.L495
	.cfi_offset 28, -16
	.cfi_offset 65, 4
	.loc 1 4869 0
	cmpwi 7,4,0
	ble- 7,.L496
	.loc 1 4870 0
	mr 3,5
.LVL552:
	mr 4,6
.LVL553:
	bl elements_per_group
.LVL554:
	.loc 1 4871 0
	cmpwi 7,29,6656
	.loc 1 4870 0
	mr 28,3
.LVL555:
	.loc 1 4871 0
	beq- 7,.L497
	.loc 1 4874 0
	mr 3,29
.LVL556:
	xoris 30,30,0x8000
.LVL557:
	bl bytes_per_element
	lis 0,0x4330
	stw 30,12(1)
	lis 9,.LC5@ha
	stw 0,8(1)
	lfs 0,.LC5@l(9)
	addi 9,1,16
	lfd 13,8(1)
	fsub 0,13,0
	frsp 0,0
	fmuls 0,1,0
	fctiwz 0,0
	stfiwx 0,0,9
	lwz 30,16(1)
.LVL558:
	.loc 1 4877 0
	lwz 0,44(1)
	.loc 1 4876 0
	mullw 31,30,31
.LVL559:
	.loc 1 4877 0
	lwz 29,28(1)
.LVL560:
	mtlr 0
	lwz 30,32(1)
	mullw 3,31,28
	lwz 28,24(1)
.LVL561:
	lwz 31,36(1)
	addi 1,1,40
	.cfi_remember_state
.LCFI102:
	.cfi_def_cfa_offset 0
	.cfi_restore 31
	.cfi_restore 30
	.cfi_restore 29
	.cfi_restore 28
	blr
.LVL562:
.L497:
.LCFI103:
	.cfi_restore_state
	lwz 0,44(1)
	.loc 1 4872 0
	addi 30,30,7
.LVL563:
	srawi 30,30,3
.LVL564:
	.loc 1 4877 0
	lwz 29,28(1)
.LVL565:
	.loc 1 4876 0
	mullw 31,30,31
.LVL566:
	.loc 1 4877 0
	mtlr 0
	lwz 30,32(1)
.LVL567:
	mullw 3,31,28
.LVL568:
	lwz 28,24(1)
.LVL569:
	lwz 31,36(1)
	addi 1,1,40
	.cfi_remember_state
	.cfi_restore 28
	.cfi_restore 29
	.cfi_restore 30
	.cfi_restore 31
.LCFI104:
	.cfi_def_cfa_offset 0
	blr
.LVL570:
.L495:
.LCFI105:
	.cfi_restore_state
.LBB237:
.LBB238:
	.loc 1 4868 0
	lis 5,.LANCHOR0@ha
.LVL571:
	lis 3,.LC15@ha
.LVL572:
	la 5,.LANCHOR0@l(5)
	lis 6,.LC39@ha
.LVL573:
	la 3,.LC15@l(3)
	li 4,4868
.LVL574:
	addi 5,5,208
	la 6,.LC39@l(6)
	bl __assert_func
.LVL575:
.L496:
.LBE238:
.LBE237:
	.loc 1 4869 0 discriminator 1
	lis 5,.LANCHOR0@ha
.LVL576:
	lis 3,.LC15@ha
	la 5,.LANCHOR0@l(5)
	lis 6,.LC40@ha
	la 3,.LC15@l(3)
	li 4,4869
	addi 5,5,208
	la 6,.LC40@l(6)
	bl __assert_func
	.cfi_endproc
.LFE47:
	.size	image_size, .-image_size
	.align 2
	.type	gluBuild1DMipmapLevelsCore, @function
gluBuild1DMipmapLevelsCore:
.LFB36:
	.loc 1 3562 0
	.cfi_startproc
.LVL577:
	stwu 1,-120(1)
.LCFI106:
	.cfi_def_cfa_offset 120
	mflr 0
	stw 20,72(1)
	mr 20,3
	.cfi_offset 20, -48
	.cfi_register 65, 0
	stw 21,76(1)
	.loc 1 3574 0
	mr 3,4
.LVL578:
	.loc 1 3562 0
	stw 28,104(1)
	mr 21,4
	.cfi_offset 28, -16
	.cfi_offset 21, -44
	mr 28,5
	.loc 1 3574 0
	mr 4,7
.LVL579:
	mr 5,8
.LVL580:
	.loc 1 3562 0
	stw 22,80(1)
	stw 23,84(1)
	mr 23,7
	.cfi_offset 23, -36
	.cfi_offset 22, -40
	stw 25,92(1)
	mr 25,10
	.cfi_offset 25, -28
	stw 26,96(1)
	mr 26,8
	.cfi_offset 26, -24
	stw 30,112(1)
	mr 30,9
	.cfi_offset 30, -8
	stw 31,116(1)
	mr 31,6
	.cfi_offset 31, -4
	stw 0,124(1)
	stw 24,88(1)
	stw 27,100(1)
	stw 29,108(1)
	.loc 1 3562 0
	lwz 22,128(1)
	.loc 1 3574 0
	.cfi_offset 29, -12
	.cfi_offset 27, -20
	.cfi_offset 24, -32
	.cfi_offset 65, 4
	bl checkMipmapArgs
.LVL581:
	cmpwi 7,3,0
	bne- 7,.L519
	.loc 1 3575 0
	cmpwi 7,28,0
	ble- 7,.L520
.LVL582:
.LBB239:
.LBB240:
	.loc 1 293 0
	cmpwi 7,31,0
.LBE240:
.LBE239:
	.loc 1 3580 0
	mr 0,31
.LVL583:
.LBB242:
.LBB241:
	.loc 1 293 0
	li 29,-1
	beq- 7,.L501
	.loc 1 296 0
	andi. 9,31,1
	li 29,0
	bne- 0,.L503
.LVL584:
.L518:
	.loc 1 301 0
	srwi 0,0,1
.LVL585:
	.loc 1 302 0
	addi 29,29,1
.LVL586:
	.loc 1 296 0
	andi. 9,0,1
	beq+ 0,.L518
.LVL587:
.L503:
	.loc 1 298 0
	cmpwi 7,0,1
	beq- 7,.L501
	li 29,-1
.L501:
.LVL588:
.LBE241:
.LBE242:
	.loc 1 3584 0
	addi 3,1,8
	.loc 1 3589 0
	lis 24,0x1
	.loc 1 3584 0
	bl retrieveStoreModes
.LVL589:
	.loc 1 3586 0
	li 4,1
	mr 5,23
	li 6,5123
	mr 3,28
	.loc 1 3589 0
	ori 24,24,35366
	.loc 1 3586 0
	bl image_size
	.loc 1 3585 0
	bl malloc
.LVL590:
	.loc 1 3588 0
	mr. 27,3
	beq- 0,.L504
	.loc 1 3591 0
	lwz 9,132(1)
.LBB243:
.LBB244:
	.loc 1 4856 0
	addi 8,23,-6400
.LBE244:
.LBE243:
	.loc 1 3591 0
	mr 7,26
	li 5,1
	mr 6,23
	subfic 8,8,1
	li 8,0
	adde 8,8,8
	mr 10,27
	addi 3,1,8
.LVL591:
	mr 4,28
	bl fill_image
.LVL592:
	.loc 1 3593 0
	mr 4,26
	mr 3,23
	.loc 1 3582 0
	add 26,30,29
.LVL593:
	.loc 1 3593 0
	bl elements_per_group
.LVL594:
	.loc 1 3594 0
	li 4,2
	.loc 1 3593 0
	mr 24,3
	.loc 1 3594 0
	li 3,3317
	bl glPixelStorei
	.loc 1 3595 0
	li 3,3315
	li 4,0
	bl glPixelStorei
	.loc 1 3596 0
	li 3,3316
	li 4,0
	bl glPixelStorei
	.loc 1 3597 0
	li 3,3314
	li 4,0
	bl glPixelStorei
.LVL595:
	.loc 1 3601 0
	li 3,3312
	li 4,0
	bl glPixelStorei
.LVL596:
	.loc 1 3603 0
	cmpw 7,30,26
	bgt- 7,.L505
	li 29,0
.LVL597:
	b .L510
.LVL598:
.L506:
	.loc 1 3611 0
	cmpwi 7,29,0
	beq- 7,.L521
.L508:
.LVL599:
	.loc 1 3623 0
	mr 3,24
	mr 4,28
	li 5,1
	mr 6,27
	mr 7,31
	li 8,1
	mr 9,29
	bl scale_internal
.LVL600:
	.loc 1 3631 0
	cmpw 7,25,30
	bgt- 7,.L515
	.loc 1 3631 0 is_stmt 0 discriminator 1
	cmpw 7,22,30
	bge- 7,.L522
.L515:
	.loc 1 3631 0
	mr 0,27
	mr 28,31
	.loc 1 3628 0 is_stmt 1
	mr 27,29
.LVL601:
	.loc 1 3631 0
	mr 29,0
.LVL602:
.L507:
	.loc 1 3636 0
	cmpwi 7,31,1
	ble- 7,.L509
	.loc 1 3636 0 is_stmt 0 discriminator 1
	srawi 31,31,1
.LVL603:
.L509:
	.loc 1 3603 0 is_stmt 1
	addi 30,30,1
.LVL604:
	cmpw 7,26,30
	blt- 7,.L523
.LVL605:
.L510:
	.loc 1 3604 0
	cmpw 7,28,31
	bne+ 7,.L506
	.loc 1 3606 0
	cmpw 7,25,30
	bgt- 7,.L507
	.loc 1 3606 0 is_stmt 0 discriminator 1
	cmpw 7,22,30
	blt+ 7,.L507
	.loc 1 3607 0 is_stmt 1
	mr 3,20
	mr 4,30
	mr 5,21
	mr 6,28
	li 7,0
	mr 8,23
	li 9,5123
	mr 10,27
	bl glTexImage1D
	b .L507
.L521:
	.loc 1 3612 0
	li 4,1
	mr 5,23
	li 6,5123
	mr 3,31
	bl image_size
	.loc 1 3613 0
	bl malloc
.LVL606:
	.loc 1 3614 0
	mr. 29,3
	bne+ 0,.L508
	.loc 1 3615 0
	lwz 4,40(1)
	li 3,3317
.LVL607:
	.loc 1 3620 0
	lis 24,0x1
.LVL608:
	.loc 1 3615 0
	bl glPixelStorei
	.loc 1 3616 0
	lwz 4,48(1)
	li 3,3315
	.loc 1 3620 0
	ori 24,24,35366
	.loc 1 3616 0
	bl glPixelStorei
	.loc 1 3617 0
	lwz 4,52(1)
	li 3,3316
	bl glPixelStorei
	.loc 1 3618 0
	lwz 4,44(1)
	li 3,3314
	bl glPixelStorei
	.loc 1 3619 0
	lwz 4,60(1)
	li 3,3312
	bl glPixelStorei
.LVL609:
.L504:
	.loc 1 3649 0
	lwz 0,124(1)
	mr 3,24
	lwz 20,72(1)
.LVL610:
	mtlr 0
	lwz 21,76(1)
.LVL611:
	lwz 22,80(1)
	lwz 23,84(1)
.LVL612:
	lwz 24,88(1)
	lwz 25,92(1)
.LVL613:
	lwz 26,96(1)
	lwz 27,100(1)
.LVL614:
	lwz 28,104(1)
.LVL615:
	lwz 29,108(1)
	lwz 30,112(1)
	lwz 31,116(1)
.LVL616:
	addi 1,1,120
	.cfi_remember_state
.LCFI107:
	.cfi_def_cfa_offset 0
	.cfi_restore 31
	.cfi_restore 30
	.cfi_restore 29
	.cfi_restore 28
	.cfi_restore 27
	.cfi_restore 26
	.cfi_restore 25
	.cfi_restore 24
	.cfi_restore 23
	.cfi_restore 22
	.cfi_restore 21
	.cfi_restore 20
	blr
.LVL617:
.L522:
.LCFI108:
	.cfi_restore_state
	.loc 1 3632 0
	mr 10,29
	mr 3,20
	mr 4,30
	mr 5,21
	mr 6,31
	li 7,0
	mr 8,23
	li 9,5123
	bl glTexImage1D
	mr 0,27
	mr 28,31
	.loc 1 3628 0
	mr 27,29
.LVL618:
	.loc 1 3632 0
	mr 29,0
.LVL619:
	b .L507
.LVL620:
.L523:
	.loc 1 3638 0
	lwz 4,40(1)
	li 3,3317
	.loc 1 3648 0
	li 24,0
.LVL621:
	.loc 1 3638 0
	bl glPixelStorei
	.loc 1 3639 0
	lwz 4,48(1)
	li 3,3315
	bl glPixelStorei
	.loc 1 3640 0
	lwz 4,52(1)
	li 3,3316
	bl glPixelStorei
	.loc 1 3641 0
	lwz 4,44(1)
	li 3,3314
	bl glPixelStorei
	.loc 1 3642 0
	lwz 4,60(1)
	li 3,3312
	bl glPixelStorei
	.loc 1 3644 0
	mr 3,27
	bl free
	.loc 1 3645 0
	cmpwi 7,29,0
	beq- 7,.L504
	.loc 1 3646 0
	mr 3,29
	bl free
	b .L504
.LVL622:
.L505:
	.loc 1 3638 0
	lwz 4,40(1)
	li 3,3317
	.loc 1 3648 0
	li 24,0
.LVL623:
	.loc 1 3638 0
	bl glPixelStorei
	.loc 1 3639 0
	lwz 4,48(1)
	li 3,3315
	bl glPixelStorei
	.loc 1 3640 0
	lwz 4,52(1)
	li 3,3316
	bl glPixelStorei
	.loc 1 3641 0
	lwz 4,44(1)
	li 3,3314
	bl glPixelStorei
	.loc 1 3642 0
	lwz 4,60(1)
	li 3,3312
	bl glPixelStorei
	.loc 1 3644 0
	mr 3,27
	bl free
	b .L504
.LVL624:
.L520:
	.loc 1 3575 0 discriminator 1
	lis 5,.LANCHOR0@ha
	lis 3,.LC15@ha
	la 5,.LANCHOR0@l(5)
	lis 6,.LC42@ha
	la 3,.LC15@l(3)
	li 4,3575
	addi 5,5,220
	la 6,.LC42@l(6)
	bl __assert_func
.L519:
	.loc 1 3574 0 discriminator 1
	lis 5,.LANCHOR0@ha
	lis 3,.LC15@ha
	la 5,.LANCHOR0@l(5)
	lis 6,.LC41@ha
	la 3,.LC15@l(3)
	li 4,3574
	addi 5,5,220
	la 6,.LC41@l(6)
	bl __assert_func
	.cfi_endproc
.LFE36:
	.size	gluBuild1DMipmapLevelsCore, .-gluBuild1DMipmapLevelsCore
	.align 2
	.type	halveImage_ubyte, @function
halveImage_ubyte:
.LFB5:
	.loc 1 370 0
	.cfi_startproc
.LVL625:
	.loc 1 377 0
	cmpwi 7,4,1
	.loc 1 370 0
	mflr 0
	stwu 1,-40(1)
.LCFI109:
	.cfi_def_cfa_offset 40
	.cfi_register 65, 0
	stw 31,36(1)
	mr 31,10
	.cfi_offset 31, -4
	stw 0,44(1)
	stw 25,12(1)
	stw 26,16(1)
	stw 27,20(1)
	stw 28,24(1)
	stw 29,28(1)
	stw 30,32(1)
	.loc 1 377 0
	beq- 7,.L525
	.cfi_offset 30, -8
	.cfi_offset 29, -12
	.cfi_offset 28, -16
	.cfi_offset 27, -20
	.cfi_offset 26, -24
	.cfi_offset 25, -28
	.cfi_offset 65, 4
	.loc 1 377 0 is_stmt 0 discriminator 1
	cmpwi 7,5,1
	beq- 7,.L555
.LVL626:
.LBB253:
.LBB254:
	.loc 1 390 0 is_stmt 1
	srwi. 25,5,1
	.loc 1 384 0
	srwi 28,4,1
.LVL627:
	.loc 1 390 0
	ble- 0,.L524
.LVL628:
	.loc 1 367 0
	mullw 27,3,8
	cmpwi 1,28,0
	cmpwi 6,3,0
	.loc 1 390 0
	li 26,0
.LVL629:
.L540:
	.loc 1 391 0
	ble- 1,.L542
	li 29,0
.LVL630:
.L544:
	.loc 1 392 0
	ble- 6,.L543
	mtctr 3
	add 30,31,9
	mr 11,6
	li 12,0
.LVL631:
.L541:
	.loc 1 393 0
	lbzx 0,11,31
	lbz 5,0(11)
	.loc 1 394 0
	lbzx 10,11,9
	.loc 1 395 0
	lbzx 4,11,30
	.loc 1 393 0
	add 5,5,0
	.loc 1 394 0
	add 5,5,10
	.loc 1 397 0
	add 11,11,8
.LVL632:
	.loc 1 395 0
	add 5,5,4
	.loc 1 396 0
	addi 0,5,2
	srawi 0,0,2
	.loc 1 393 0
	stbx 0,7,12
.LVL633:
	.loc 1 392 0
	addi 12,12,1
.LVL634:
	bdnz .L541
	.loc 1 367 0
	add 7,7,3
	add 6,6,27
.LVL635:
.L543:
	.loc 1 391 0
	addi 29,29,1
	.loc 1 399 0
	add 6,6,31
.LVL636:
	.loc 1 391 0
	cmpw 7,28,29
	bne+ 7,.L544
.LVL637:
.L542:
	.loc 1 390 0
	addi 26,26,1
	.loc 1 401 0
	add 6,6,9
.LVL638:
	.loc 1 390 0
	cmpw 7,25,26
	bne+ 7,.L540
.LVL639:
.L524:
.LBE254:
.LBE253:
	.loc 1 403 0
	lwz 0,44(1)
	lwz 25,12(1)
	mtlr 0
	lwz 26,16(1)
	lwz 27,20(1)
	lwz 28,24(1)
	lwz 29,28(1)
	lwz 30,32(1)
	lwz 31,36(1)
	addi 1,1,40
	.cfi_remember_state
.LCFI110:
	.cfi_def_cfa_offset 0
	.cfi_restore 31
	.cfi_restore 30
	.cfi_restore 29
	.cfi_restore 28
	.cfi_restore 27
	.cfi_restore 26
	.cfi_restore 25
	blr
.LVL640:
.L525:
.LCFI111:
	.cfi_restore_state
	.loc 1 378 0 discriminator 1
	cmpwi 7,5,1
	beq- 7,.L556
.LVL641:
.LBB255:
.LBB256:
.LBB257:
	.loc 1 447 0
	srwi. 29,5,1
	.loc 1 441 0
	subf 31,10,9
.LVL642:
	.loc 1 447 0
	ble- 0,.L557
.LVL643:
.LBB258:
	.loc 1 367 0
	mullw 26,8,3
	cmpwi 7,3,0
.LBE258:
	.loc 1 447 0
	mr 30,7
	mr 28,6
	li 27,0
.LVL644:
.L529:
.LBB259:
	.loc 1 449 0
	ble- 7,.L537
	mtctr 3
	mr 11,28
	li 10,0
.LVL645:
.L536:
	.loc 1 450 0
	lbz 4,0(11)
	lbzx 0,11,9
	.loc 1 452 0
	add 11,11,8
.LVL646:
	.loc 1 450 0
	add 0,4,0
	srawi 0,0,1
	stbx 0,30,10
	.loc 1 449 0
	addi 10,10,1
.LVL647:
	bdnz .L536
	.loc 1 367 0
	add 28,28,26
	add 30,30,3
.LVL648:
.L537:
.LBE259:
	.loc 1 447 0
	addi 27,27,1
.LBB260:
	.loc 1 455 0
	add 28,28,31
.LVL649:
.LBE260:
	.loc 1 447 0
	cmpw 6,29,27
.LBB261:
	.loc 1 456 0
	add 28,28,9
.LVL650:
.LBE261:
	.loc 1 447 0
	bne+ 6,.L529
	.loc 1 443 0
	li 26,1
.LVL651:
.L530:
.LBE257:
	.loc 1 460 0
	mullw 9,9,5
.LVL652:
	add 6,6,9
.LVL653:
	cmpw 7,28,6
	bne- 7,.L558
	.loc 1 461 0
	mullw 8,3,8
.LVL654:
	mullw 26,8,26
.LVL655:
	mullw 29,26,29
.LVL656:
	add 7,7,29
.LVL657:
	cmpw 7,30,7
	beq+ 7,.L524
	lis 5,.LANCHOR0@ha
.LVL658:
	lis 3,.LC15@ha
.LVL659:
	la 5,.LANCHOR0@l(5)
	lis 6,.LC45@ha
	la 3,.LC15@l(3)
	li 4,462
	addi 5,5,268
	la 6,.LC45@l(6)
	bl __assert_func
.LVL660:
.L555:
	.loc 1 424 0
	srwi. 26,4,1
	mr 30,7
	mr 28,6
	ble- 0,.L534
.LVL661:
.LBB262:
	.loc 1 367 0
	mullw 25,8,3
	cmpwi 7,3,0
.LBE262:
	.loc 1 424 0
	li 27,0
.LVL662:
.L532:
.LBB263:
	.loc 1 426 0
	ble- 7,.L535
	mtctr 3
	mr 11,28
	li 10,0
.LVL663:
.L533:
	.loc 1 427 0
	lbz 29,0(11)
	lbzx 0,11,31
	.loc 1 430 0
	add 11,11,8
.LVL664:
	.loc 1 427 0
	add 0,29,0
	.loc 1 428 0
	srawi 0,0,1
	.loc 1 427 0
	stbx 0,30,10
	.loc 1 426 0
	addi 10,10,1
.LVL665:
	bdnz .L533
	.loc 1 367 0
	add 28,28,25
	add 30,30,3
.LVL666:
.L535:
.LBE263:
	.loc 1 424 0
	addi 27,27,1
.LBB264:
	.loc 1 433 0
	add 28,28,31
.LVL667:
.LBE264:
	.loc 1 424 0
	cmpw 6,27,26
	bne+ 6,.L532
.LVL668:
.L534:
.LBB265:
	.loc 1 436 0
	mullw 0,31,4
	.loc 1 422 0
	li 29,1
	.loc 1 436 0
	subf 0,0,9
	.loc 1 437 0
	add 28,28,0
.LVL669:
	b .L530
.LVL670:
.L557:
.LBE265:
.LBB266:
	.loc 1 447 0
	mr 30,7
	mr 28,6
	.loc 1 443 0
	li 26,1
	b .L530
.LVL671:
.L556:
.LBE266:
.LBE256:
.LBE255:
	.loc 1 378 0 discriminator 2
	lis 5,.LANCHOR0@ha
.LVL672:
	lis 3,.LC15@ha
.LVL673:
	la 5,.LANCHOR0@l(5)
	lis 6,.LC43@ha
.LVL674:
	la 3,.LC15@l(3)
	li 4,378
.LVL675:
	addi 5,5,248
	la 6,.LC43@l(6)
	bl __assert_func
.LVL676:
.L558:
.LBB268:
.LBB267:
	.loc 1 460 0
	lis 5,.LANCHOR0@ha
.LVL677:
	lis 3,.LC15@ha
.LVL678:
	la 5,.LANCHOR0@l(5)
	lis 6,.LC44@ha
	la 3,.LC15@l(3)
	li 4,460
	addi 5,5,268
	la 6,.LC44@l(6)
	bl __assert_func
.LVL679:
.LVL680:
.LVL681:
.LVL682:
.LBE267:
.LBE268:
	.cfi_endproc
.LFE5:
	.size	halveImage_ubyte, .-halveImage_ubyte
	.align 2
	.type	halveImage_byte, @function
halveImage_byte:
.LFB7:
	.loc 1 469 0
	.cfi_startproc
.LVL683:
	.loc 1 476 0
	cmpwi 7,4,1
	.loc 1 469 0
	mflr 0
	stwu 1,-40(1)
.LCFI112:
	.cfi_def_cfa_offset 40
	.cfi_register 65, 0
	stw 31,36(1)
	mr 31,10
	.cfi_offset 31, -4
	stw 0,44(1)
	stw 25,12(1)
	stw 26,16(1)
	stw 27,20(1)
	stw 28,24(1)
	stw 29,28(1)
	stw 30,32(1)
	.loc 1 476 0
	beq- 7,.L560
	.cfi_offset 30, -8
	.cfi_offset 29, -12
	.cfi_offset 28, -16
	.cfi_offset 27, -20
	.cfi_offset 26, -24
	.cfi_offset 25, -28
	.cfi_offset 65, 4
	.loc 1 476 0 is_stmt 0 discriminator 1
	cmpwi 7,5,1
	beq- 7,.L589
.LVL684:
.LBB276:
.LBB277:
	.loc 1 489 0 is_stmt 1
	srwi. 25,5,1
	.loc 1 483 0
	srwi 28,4,1
.LVL685:
	.loc 1 489 0
	ble- 0,.L559
.LVL686:
	.loc 1 465 0
	mullw 27,3,8
	cmpwi 1,28,0
	cmpwi 6,3,0
	.loc 1 489 0
	li 26,0
.LVL687:
.L575:
	.loc 1 490 0
	ble- 1,.L577
	li 29,0
.LVL688:
.L579:
	.loc 1 491 0
	ble- 6,.L578
	mtctr 3
	add 30,31,9
	mr 11,6
	li 12,0
.LVL689:
.L576:
	.loc 1 492 0
	lbz 10,0(11)
	lbzx 5,11,31
	.loc 1 493 0
	lbzx 0,11,9
	.loc 1 492 0
	extsb 10,10
	.loc 1 494 0
	lbzx 4,11,30
	.loc 1 492 0
	extsb 5,5
	.loc 1 493 0
	extsb 0,0
	.loc 1 492 0
	add 5,10,5
	.loc 1 493 0
	add 5,5,0
	.loc 1 494 0
	extsb 4,4
	add 5,5,4
	.loc 1 496 0
	add 11,11,8
.LVL690:
	.loc 1 495 0
	addi 0,5,2
	srawi 0,0,2
	addze 0,0
	.loc 1 492 0
	stbx 0,7,12
.LVL691:
	.loc 1 491 0
	addi 12,12,1
.LVL692:
	bdnz .L576
	.loc 1 465 0
	add 7,7,3
	add 6,6,27
.LVL693:
.L578:
	.loc 1 490 0
	addi 29,29,1
	.loc 1 498 0
	add 6,6,31
.LVL694:
	.loc 1 490 0
	cmpw 7,28,29
	bne+ 7,.L579
.LVL695:
.L577:
	.loc 1 489 0
	addi 26,26,1
	.loc 1 500 0
	add 6,6,9
.LVL696:
	.loc 1 489 0
	cmpw 7,25,26
	bne+ 7,.L575
.LVL697:
.L559:
.LBE277:
.LBE276:
	.loc 1 502 0
	lwz 0,44(1)
	lwz 25,12(1)
	mtlr 0
	lwz 26,16(1)
	lwz 27,20(1)
	lwz 28,24(1)
	lwz 29,28(1)
	lwz 30,32(1)
	lwz 31,36(1)
	addi 1,1,40
	.cfi_remember_state
.LCFI113:
	.cfi_def_cfa_offset 0
	.cfi_restore 31
	.cfi_restore 30
	.cfi_restore 29
	.cfi_restore 28
	.cfi_restore 27
	.cfi_restore 26
	.cfi_restore 25
	blr
.LVL698:
.L560:
.LCFI114:
	.cfi_restore_state
	.loc 1 477 0 discriminator 1
	cmpwi 7,5,1
	beq- 7,.L590
.LVL699:
.LBB278:
.LBB279:
.LBB280:
	.loc 1 543 0
	srwi. 27,5,1
	mr 10,7
.LVL700:
	mr 29,6
	.loc 1 537 0
	subf 31,31,9
.LVL701:
	.loc 1 543 0
	ble- 0,.L565
.LVL702:
.LBB281:
	.loc 1 465 0
	mullw 26,8,3
	cmpwi 7,3,0
.LBE281:
	.loc 1 543 0
	mr 10,7
	mr 29,6
	li 28,0
.LVL703:
.L564:
.LBB282:
	.loc 1 545 0
	ble- 7,.L572
	mtctr 3
	mr 11,29
	li 4,0
.LVL704:
.L571:
	.loc 1 546 0
	lbz 30,0(11)
	lbzx 0,11,9
	.loc 1 548 0
	add 11,11,8
.LVL705:
	.loc 1 546 0
	extsb 30,30
	extsb 0,0
	add 0,30,0
	srawi 0,0,1
	addze 0,0
	stbx 0,10,4
	.loc 1 545 0
	addi 4,4,1
.LVL706:
	bdnz .L571
	.loc 1 465 0
	add 29,29,26
	add 10,10,3
.LVL707:
.L572:
.LBE282:
	.loc 1 543 0
	addi 28,28,1
.LBB283:
	.loc 1 551 0
	add 29,29,31
.LVL708:
.LBE283:
	.loc 1 543 0
	cmpw 6,27,28
.LBB284:
	.loc 1 552 0
	add 29,29,9
.LVL709:
.LBE284:
	.loc 1 543 0
	bne+ 6,.L564
.LVL710:
.L565:
	.loc 1 555 0
	mullw 9,9,5
.LVL711:
	add 6,6,9
.LVL712:
	cmpw 7,29,6
	bne- 7,.L573
	mullw 8,3,8
.LVL713:
	mullw 30,27,8
.LVL714:
.L567:
.LBE280:
	.loc 1 558 0
	add 7,7,30
.LVL715:
	cmpw 7,10,7
	beq+ 7,.L559
	lis 5,.LANCHOR0@ha
	lis 3,.LC15@ha
.LVL716:
	la 5,.LANCHOR0@l(5)
	lis 6,.LC45@ha
	la 3,.LC15@l(3)
	li 4,559
	addi 5,5,304
	la 6,.LC45@l(6)
	bl __assert_func
.LVL717:
.L589:
	.loc 1 521 0
	srwi. 4,4,1
.LVL718:
	ble- 0,.L591
.LVL719:
	mullw 29,3,8
	cmpwi 7,3,0
	mr 10,7
.LVL720:
	li 30,0
.LVL721:
.L568:
.LBB285:
	.loc 1 523 0
	ble- 7,.L570
	mtctr 3
	mr 9,6
	li 11,0
.LVL722:
.L569:
	.loc 1 524 0
	lbz 5,0(9)
	lbzx 0,9,31
	.loc 1 526 0
	add 9,9,8
.LVL723:
	.loc 1 524 0
	extsb 5,5
	extsb 0,0
	add 0,5,0
	srawi 0,0,1
	addze 0,0
	stbx 0,10,11
	.loc 1 523 0
	addi 11,11,1
.LVL724:
	bdnz .L569
	.loc 1 465 0
	add 6,6,29
	add 10,10,3
.LVL725:
.L570:
.LBE285:
	.loc 1 521 0
	addi 30,30,1
.LBB286:
	.loc 1 529 0
	add 6,6,31
.LVL726:
.LBE286:
	.loc 1 521 0
	cmpw 6,30,4
	bne+ 6,.L568
	mullw 30,30,29
.LVL727:
	b .L567
.LVL728:
.L591:
	mullw 8,3,8
.LVL729:
	mr 10,7
	mullw 30,4,8
	b .L567
.LVL730:
.L590:
.LBE279:
.LBE278:
	.loc 1 477 0 discriminator 2
	lis 5,.LANCHOR0@ha
.LVL731:
	lis 3,.LC15@ha
.LVL732:
	la 5,.LANCHOR0@l(5)
	lis 6,.LC43@ha
.LVL733:
	la 3,.LC15@l(3)
	li 4,477
.LVL734:
	addi 5,5,288
	la 6,.LC43@l(6)
	bl __assert_func
.LVL735:
.L573:
.LBB289:
.LBB288:
.LBB287:
	.loc 1 555 0
	lis 5,.LANCHOR0@ha
.LVL736:
	lis 3,.LC15@ha
.LVL737:
	la 5,.LANCHOR0@l(5)
	lis 6,.LC44@ha
	la 3,.LC15@l(3)
	li 4,555
	addi 5,5,304
	la 6,.LC44@l(6)
	bl __assert_func
.LVL738:
.LVL739:
.LVL740:
.LVL741:
.LVL742:
.LBE287:
.LBE288:
.LBE289:
	.cfi_endproc
.LFE7:
	.size	halveImage_byte, .-halveImage_byte
	.align 2
	.type	halveImage_ushort, @function
halveImage_ushort:
.LFB9:
	.loc 1 566 0
	.cfi_startproc
.LVL743:
	.loc 1 573 0
	cmpwi 7,4,1
	.loc 1 566 0
	mflr 0
	stwu 1,-72(1)
.LCFI115:
	.cfi_def_cfa_offset 72
	.cfi_register 65, 0
	stw 0,76(1)
	stw 17,12(1)
	stw 18,16(1)
	stw 19,20(1)
	stw 20,24(1)
	stw 21,28(1)
	stw 22,32(1)
	stw 23,36(1)
	stw 24,40(1)
	stw 25,44(1)
	stw 26,48(1)
	stw 27,52(1)
	stw 28,56(1)
	stw 29,60(1)
	stw 30,64(1)
	stw 31,68(1)
	.loc 1 566 0
	lwz 0,80(1)
	.cfi_offset 31, -4
	.cfi_offset 30, -8
	.cfi_offset 29, -12
	.cfi_offset 28, -16
	.cfi_offset 27, -20
	.cfi_offset 26, -24
	.cfi_offset 25, -28
	.cfi_offset 24, -32
	.cfi_offset 23, -36
	.cfi_offset 22, -40
	.cfi_offset 21, -44
	.cfi_offset 20, -48
	.cfi_offset 19, -52
	.cfi_offset 18, -56
	.cfi_offset 17, -60
	.cfi_offset 65, 4
	.loc 1 573 0
	beq- 7,.L593
	.loc 1 573 0 is_stmt 0 discriminator 1
	cmpwi 7,5,1
	beq- 7,.L635
.LVL744:
.LBB299:
.LBB300:
	.loc 1 586 0 is_stmt 1
	cmpwi 7,0,0
	.loc 1 580 0
	srwi 27,4,1
.LVL745:
	.loc 1 581 0
	srwi 24,5,1
.LVL746:
	.loc 1 586 0
	bne- 7,.L636
.LVL747:
	.loc 1 587 0
	cmpwi 7,24,0
	ble- 7,.L592
	.loc 1 562 0
	slwi 26,3,1
	cmpwi 6,3,0
	mullw 3,3,8
.LVL748:
	cmpwi 1,27,0
	.loc 1 587 0
	li 23,0
	.loc 1 562 0
	addi 25,26,-2
.LVL749:
.L614:
	.loc 1 588 0
	ble- 1,.L616
	li 28,0
.LVL750:
.L618:
	.loc 1 589 0
	ble- 6,.L617
	add 29,10,9
	.loc 1 562 0
	addi 12,7,-2
	add 30,7,25
.LBE300:
.LBE299:
.LBB303:
.LBB304:
	mr 11,6
.LVL751:
.L615:
.LBE304:
.LBE303:
.LBB323:
.LBB301:
	.loc 1 590 0
	lhzx 0,11,10
	lhz 5,0(11)
	.loc 1 591 0
	lhzx 31,11,9
	.loc 1 592 0
	lhzx 4,11,29
	.loc 1 590 0
	add 5,5,0
	.loc 1 591 0
	add 5,5,31
	.loc 1 594 0
	add 11,11,8
.LVL752:
	.loc 1 592 0
	add 5,5,4
	.loc 1 593 0
	addi 0,5,2
	srawi 0,0,2
	.loc 1 590 0
	sthu 0,2(12)
.LVL753:
	.loc 1 589 0
	cmpw 7,12,30
	bne+ 7,.L615
	add 7,7,26
	add 6,6,3
.LVL754:
.L617:
	.loc 1 588 0
	addi 28,28,1
	.loc 1 596 0
	add 6,6,10
.LVL755:
	.loc 1 588 0
	cmpw 7,27,28
	bne+ 7,.L618
.LVL756:
.L616:
	.loc 1 587 0
	addi 23,23,1
	.loc 1 598 0
	add 6,6,9
.LVL757:
	.loc 1 587 0
	cmpw 7,24,23
	bne+ 7,.L614
.LVL758:
.L592:
.LBE301:
.LBE323:
	.loc 1 614 0
	lwz 0,76(1)
	lwz 17,12(1)
	mtlr 0
	lwz 18,16(1)
	lwz 19,20(1)
	lwz 20,24(1)
	lwz 21,28(1)
	lwz 22,32(1)
	lwz 23,36(1)
	lwz 24,40(1)
	lwz 25,44(1)
	lwz 26,48(1)
	lwz 27,52(1)
	lwz 28,56(1)
	lwz 29,60(1)
	lwz 30,64(1)
	lwz 31,68(1)
	addi 1,1,72
	.cfi_remember_state
.LCFI116:
	.cfi_def_cfa_offset 0
	.cfi_restore 31
	.cfi_restore 30
	.cfi_restore 29
	.cfi_restore 28
	.cfi_restore 27
	.cfi_restore 26
	.cfi_restore 25
	.cfi_restore 24
	.cfi_restore 23
	.cfi_restore 22
	.cfi_restore 21
	.cfi_restore 20
	.cfi_restore 19
	.cfi_restore 18
	.cfi_restore 17
	blr
.LVL759:
.L636:
.LCFI117:
	.cfi_restore_state
.LBB324:
.LBB302:
	.loc 1 601 0
	cmpwi 7,24,0
	ble- 7,.L592
	.loc 1 562 0
	mullw 21,8,3
	slwi 26,3,1
	cmpwi 1,27,0
	cmpwi 6,3,0
	.loc 1 601 0
	li 22,0
	.loc 1 562 0
	addi 23,10,1
	addi 25,26,-2
.LVL760:
.L613:
	.loc 1 602 0
	ble- 1,.L620
	li 28,0
.LVL761:
.L622:
	.loc 1 603 0
	ble- 6,.L621
	add 0,10,9
	.loc 1 562 0
	add 12,6,23
	addi 5,7,-2
	add 29,7,25
	mr 11,6
.LVL762:
.L619:
	subf 4,10,12
	.loc 1 604 0
	lbz 19,1(11)
	.loc 1 605 0
	lbz 30,0(12)
	.loc 1 608 0
	add 12,12,8
	.loc 1 604 0
	lbz 17,0(11)
	slwi 19,19,8
	.loc 1 605 0
	lbzx 18,11,10
	slwi 30,30,8
	.loc 1 606 0
	lbzx 3,4,9
	.loc 1 604 0
	or 19,19,17
	.loc 1 606 0
	lbzx 20,11,9
	.loc 1 604 0
	or 30,30,18
	.loc 1 607 0
	lbzx 4,4,0
	.loc 1 606 0
	slwi 3,3,8
	.loc 1 607 0
	lbzx 31,11,0
	.loc 1 604 0
	add 30,19,30
	.loc 1 605 0
	or 3,3,20
	.loc 1 607 0
	slwi 4,4,8
	.loc 1 605 0
	add 3,30,3
	.loc 1 606 0
	or 4,4,31
	add 4,3,4
	.loc 1 608 0
	add 11,11,8
.LVL763:
	.loc 1 607 0
	addi 4,4,2
	srawi 4,4,2
	.loc 1 604 0
	sthu 4,2(5)
.LVL764:
	.loc 1 603 0
	cmpw 7,5,29
	bne+ 7,.L619
	add 7,7,26
	add 6,6,21
.LVL765:
.L621:
	.loc 1 602 0
	addi 28,28,1
	.loc 1 610 0
	add 6,6,10
.LVL766:
	.loc 1 602 0
	cmpw 7,27,28
	bne+ 7,.L622
.LVL767:
.L620:
	.loc 1 601 0
	addi 22,22,1
	.loc 1 612 0
	add 6,6,9
.LVL768:
	.loc 1 601 0
	cmpw 7,24,22
	bne+ 7,.L613
	b .L592
.LVL769:
.L593:
.LBE302:
.LBE324:
	.loc 1 574 0 discriminator 1
	cmpwi 7,5,1
	beq- 7,.L637
.LVL770:
.LBB325:
.LBB321:
.LBB305:
	.loc 1 666 0
	srwi. 23,5,1
	mr 28,7
	mr 25,6
	.loc 1 660 0
	subf 10,10,9
.LVL771:
	.loc 1 666 0
	ble- 0,.L598
.LVL772:
.LBB306:
	.loc 1 562 0
	mullw 21,3,8
	slwi 22,3,1
	cmpwi 1,3,0
	cmpwi 6,0,0
.LBE306:
	.loc 1 666 0
	mr 28,7
	mr 25,6
	li 24,0
.LBB309:
	.loc 1 562 0
	addi 20,22,-2
	neg 30,9
.LVL773:
.L597:
	.loc 1 668 0
	ble- 1,.L609
	.loc 1 562 0
	addi 4,28,-2
	add 11,25,9
	add 29,28,20
.LVL774:
.L608:
.LBB307:
	.loc 1 671 0
	beq- 6,.L606
	.loc 1 562 0
	add 31,11,30
	.loc 1 673 0
	lbz 0,1(11)
	.loc 1 672 0
	lbz 31,1(31)
	lbzx 26,11,30
	.loc 1 673 0
	slwi 0,0,8
	lbz 27,0(11)
	.loc 1 672 0
	slwi 31,31,8
	or 31,31,26
.LVL775:
	.loc 1 673 0
	or 0,0,27
.LVL776:
.L607:
	.loc 1 679 0
	add 0,31,0
.LVL777:
	add 11,11,8
	srawi 0,0,1
	sthu 0,2(4)
.LBE307:
	.loc 1 668 0
	cmpw 7,4,29
	bne+ 7,.L608
	add 25,25,21
	add 28,28,22
.LVL778:
.L609:
.LBE309:
	.loc 1 666 0
	addi 24,24,1
.LBB310:
	.loc 1 684 0
	add 25,25,10
.LVL779:
.LBE310:
	.loc 1 666 0
	cmpw 7,23,24
.LBB311:
	.loc 1 685 0
	add 25,25,9
.LVL780:
.LBE311:
	.loc 1 666 0
	bne+ 7,.L597
.LVL781:
.L598:
	.loc 1 688 0
	mullw 9,9,5
.LVL782:
	add 6,6,9
.LVL783:
	cmpw 7,25,6
	bne- 7,.L610
	mullw 8,3,8
.LVL784:
	mullw 4,23,8
.LVL785:
.L600:
.LBE305:
	.loc 1 691 0
	add 7,7,4
.LVL786:
	cmpw 7,28,7
	beq+ 7,.L592
	lis 5,.LANCHOR0@ha
	lis 3,.LC15@ha
	la 5,.LANCHOR0@l(5)
	lis 6,.LC45@ha
	la 3,.LC15@l(3)
	li 4,692
	addi 5,5,344
	la 6,.LC45@l(6)
	bl __assert_func
.LVL787:
.L606:
.LBB313:
.LBB312:
.LBB308:
	.loc 1 676 0
	lhzx 31,11,30
.LVL788:
	.loc 1 677 0
	lhz 0,0(11)
.LVL789:
	b .L607
.LVL790:
.L635:
.LBE308:
.LBE312:
.LBE313:
	.loc 1 634 0
	srwi. 4,4,1
.LVL791:
	ble- 0,.L638
.LVL792:
.LBB314:
	.loc 1 562 0
	slwi 25,3,1
	cmpwi 6,0,0
	mullw 26,3,8
	cmpwi 1,3,0
.LBE314:
	.loc 1 634 0
	mr 28,7
	li 27,0
.LBB317:
	.loc 1 562 0
	addi 24,25,-2
	neg 3,10
.LVL793:
.L601:
	.loc 1 636 0
	ble- 1,.L605
	.loc 1 562 0
	addi 11,28,-2
	add 9,6,10
	add 31,28,24
.LVL794:
.L604:
.LBB315:
	.loc 1 639 0
	beq- 6,.L602
	.loc 1 562 0
	add 5,9,3
	.loc 1 641 0
	lbz 0,1(9)
	.loc 1 640 0
	lbz 5,1(5)
	lbzx 29,9,3
	.loc 1 641 0
	slwi 0,0,8
	lbz 30,0(9)
	.loc 1 640 0
	slwi 5,5,8
	or 5,5,29
.LVL795:
	.loc 1 641 0
	or 0,0,30
.LVL796:
.L603:
	.loc 1 648 0
	add 0,5,0
.LVL797:
	add 9,9,8
	srawi 0,0,1
	sthu 0,2(11)
.LBE315:
	.loc 1 636 0
	cmpw 7,11,31
	bne+ 7,.L604
	add 6,6,26
	add 28,28,25
.LVL798:
.L605:
.LBE317:
	.loc 1 634 0
	addi 27,27,1
.LBB318:
	.loc 1 652 0
	add 6,6,10
.LVL799:
.LBE318:
	.loc 1 634 0
	cmpw 7,27,4
	bne+ 7,.L601
	mullw 4,27,26
.LVL800:
	b .L600
.LVL801:
.L602:
.LBB319:
.LBB316:
	.loc 1 644 0
	lhzx 5,9,3
.LVL802:
	.loc 1 645 0
	lhz 0,0(9)
.LVL803:
	b .L603
.LVL804:
.L610:
.LBE316:
.LBE319:
.LBB320:
	.loc 1 688 0
	lis 5,.LANCHOR0@ha
.LVL805:
	lis 3,.LC15@ha
.LVL806:
	la 5,.LANCHOR0@l(5)
	lis 6,.LC44@ha
	la 3,.LC15@l(3)
	li 4,688
	addi 5,5,344
	la 6,.LC44@l(6)
	bl __assert_func
.LVL807:
.L637:
.LBE320:
.LBE321:
.LBE325:
	.loc 1 574 0 discriminator 2
	lis 5,.LANCHOR0@ha
.LVL808:
	lis 3,.LC15@ha
.LVL809:
	la 5,.LANCHOR0@l(5)
	lis 6,.LC43@ha
.LVL810:
	la 3,.LC15@l(3)
	li 4,574
.LVL811:
	addi 5,5,324
	la 6,.LC43@l(6)
	bl __assert_func
.LVL812:
.L638:
.LBB326:
.LBB322:
	.loc 1 634 0
	mullw 8,3,8
.LVL813:
	mr 28,7
	mullw 4,4,8
.LVL814:
	b .L600
.LBE322:
.LBE326:
	.cfi_endproc
.LFE9:
	.size	halveImage_ushort, .-halveImage_ushort
	.align 2
	.type	halveImage_short, @function
halveImage_short:
.LFB11:
	.loc 1 701 0
	.cfi_startproc
.LVL815:
	.loc 1 708 0
	cmpwi 7,4,1
	.loc 1 701 0
	mflr 0
	stwu 1,-72(1)
.LCFI118:
	.cfi_def_cfa_offset 72
	.cfi_register 65, 0
	stw 0,76(1)
	stw 17,12(1)
	stw 18,16(1)
	stw 19,20(1)
	stw 20,24(1)
	stw 21,28(1)
	stw 22,32(1)
	stw 23,36(1)
	stw 24,40(1)
	stw 25,44(1)
	stw 26,48(1)
	stw 27,52(1)
	stw 28,56(1)
	stw 29,60(1)
	stw 30,64(1)
	stw 31,68(1)
	.loc 1 701 0
	lwz 0,80(1)
	.cfi_offset 31, -4
	.cfi_offset 30, -8
	.cfi_offset 29, -12
	.cfi_offset 28, -16
	.cfi_offset 27, -20
	.cfi_offset 26, -24
	.cfi_offset 25, -28
	.cfi_offset 24, -32
	.cfi_offset 23, -36
	.cfi_offset 22, -40
	.cfi_offset 21, -44
	.cfi_offset 20, -48
	.cfi_offset 19, -52
	.cfi_offset 18, -56
	.cfi_offset 17, -60
	.cfi_offset 65, 4
	.loc 1 708 0
	beq- 7,.L640
	.loc 1 708 0 is_stmt 0 discriminator 1
	cmpwi 7,5,1
	beq- 7,.L682
.LVL816:
.LBB337:
.LBB338:
	.loc 1 721 0 is_stmt 1
	cmpwi 7,0,0
	.loc 1 715 0
	srwi 27,4,1
.LVL817:
	.loc 1 716 0
	srwi 24,5,1
.LVL818:
	.loc 1 721 0
	bne- 7,.L683
.LVL819:
	.loc 1 722 0
	cmpwi 7,24,0
	ble- 7,.L639
	.loc 1 697 0
	slwi 26,3,1
	cmpwi 6,3,0
	mullw 3,3,8
.LVL820:
	cmpwi 1,27,0
	.loc 1 722 0
	li 23,0
	.loc 1 697 0
	addi 25,26,-2
.LVL821:
.L661:
	.loc 1 723 0
	ble- 1,.L663
	li 28,0
.LVL822:
.L665:
	.loc 1 724 0
	ble- 6,.L664
	add 29,10,9
	.loc 1 697 0
	addi 12,7,-2
	add 30,7,25
.LBE338:
.LBE337:
.LBB342:
.LBB343:
	mr 11,6
.LVL823:
.L662:
.LBE343:
.LBE342:
.LBB362:
.LBB340:
	.loc 1 725 0
	lhax 0,11,10
	lha 5,0(11)
	.loc 1 726 0
	lhax 31,11,9
	.loc 1 727 0
	lhax 4,11,29
	.loc 1 725 0
	add 5,5,0
	.loc 1 726 0
	add 5,5,31
	.loc 1 729 0
	add 11,11,8
.LVL824:
	.loc 1 727 0
	add 5,5,4
	.loc 1 728 0
	addi 0,5,2
	srawi 0,0,2
	addze 0,0
	.loc 1 725 0
	sthu 0,2(12)
.LVL825:
	.loc 1 724 0
	cmpw 7,12,30
	bne+ 7,.L662
	add 7,7,26
	add 6,6,3
.LVL826:
.L664:
	.loc 1 723 0
	addi 28,28,1
	.loc 1 731 0
	add 6,6,10
.LVL827:
	.loc 1 723 0
	cmpw 7,27,28
	bne+ 7,.L665
.LVL828:
.L663:
	.loc 1 722 0
	addi 23,23,1
	.loc 1 733 0
	add 6,6,9
.LVL829:
	.loc 1 722 0
	cmpw 7,24,23
	bne+ 7,.L661
.LVL830:
.L639:
.LBE340:
.LBE362:
	.loc 1 756 0
	lwz 0,76(1)
	lwz 17,12(1)
	mtlr 0
	lwz 18,16(1)
	lwz 19,20(1)
	lwz 20,24(1)
	lwz 21,28(1)
	lwz 22,32(1)
	lwz 23,36(1)
	lwz 24,40(1)
	lwz 25,44(1)
	lwz 26,48(1)
	lwz 27,52(1)
	lwz 28,56(1)
	lwz 29,60(1)
	lwz 30,64(1)
	lwz 31,68(1)
	addi 1,1,72
	.cfi_remember_state
.LCFI119:
	.cfi_def_cfa_offset 0
	.cfi_restore 31
	.cfi_restore 30
	.cfi_restore 29
	.cfi_restore 28
	.cfi_restore 27
	.cfi_restore 26
	.cfi_restore 25
	.cfi_restore 24
	.cfi_restore 23
	.cfi_restore 22
	.cfi_restore 21
	.cfi_restore 20
	.cfi_restore 19
	.cfi_restore 18
	.cfi_restore 17
	blr
.LVL831:
.L683:
.LCFI120:
	.cfi_restore_state
.LBB363:
.LBB341:
	.loc 1 736 0
	cmpwi 7,24,0
	ble- 7,.L639
	.loc 1 697 0
	mullw 21,8,3
	slwi 26,3,1
	cmpwi 1,27,0
	cmpwi 6,3,0
	.loc 1 736 0
	li 22,0
	.loc 1 697 0
	addi 23,10,1
	addi 25,26,-2
.LVL832:
.L660:
	.loc 1 737 0
	ble- 1,.L667
	li 28,0
.LVL833:
.L669:
	.loc 1 738 0
	ble- 6,.L668
	add 0,10,9
	.loc 1 697 0
	add 12,6,23
	addi 5,7,-2
	add 29,7,25
	mr 11,6
.LVL834:
.L666:
.LBB339:
	.loc 1 741 0
	lbz 30,1(11)
	.loc 1 697 0
	subf 4,10,12
	.loc 1 743 0
	lbz 20,0(12)
	.loc 1 750 0
	add 12,12,8
	.loc 1 741 0
	lbz 17,0(11)
	.loc 1 743 0
	lbzx 18,11,10
	slwi 20,20,8
	.loc 1 745 0
	lbzx 31,4,9
	lbzx 19,11,9
	.loc 1 743 0
	or 20,20,18
	.loc 1 747 0
	lbzx 3,4,0
	.loc 1 741 0
	slwi 4,30,8
	or 4,4,17
	.loc 1 747 0
	lbzx 30,11,0
	.loc 1 745 0
	slwi 31,31,8
	.loc 1 742 0
	extsh 4,4
.LVL835:
	.loc 1 744 0
	extsh 20,20
	.loc 1 745 0
	or 31,31,19
	.loc 1 747 0
	slwi 3,3,8
	.loc 1 744 0
	add 4,4,20
.LVL836:
	.loc 1 746 0
	extsh 31,31
	.loc 1 747 0
	or 3,3,30
	.loc 1 746 0
	add 4,4,31
.LVL837:
	.loc 1 748 0
	extsh 3,3
	add 4,4,3
	.loc 1 750 0
	add 11,11,8
.LVL838:
	.loc 1 749 0
	addi 4,4,2
	srawi 4,4,2
	addze 4,4
	sthu 4,2(5)
.LVL839:
.LBE339:
	.loc 1 738 0
	cmpw 7,5,29
	bne+ 7,.L666
	add 7,7,26
	add 6,6,21
.LVL840:
.L668:
	.loc 1 737 0
	addi 28,28,1
	.loc 1 752 0
	add 6,6,10
.LVL841:
	.loc 1 737 0
	cmpw 7,27,28
	bne+ 7,.L669
.LVL842:
.L667:
	.loc 1 736 0
	addi 22,22,1
	.loc 1 754 0
	add 6,6,9
.LVL843:
	.loc 1 736 0
	cmpw 7,24,22
	bne+ 7,.L660
	b .L639
.LVL844:
.L640:
.LBE341:
.LBE363:
	.loc 1 709 0 discriminator 1
	cmpwi 7,5,1
	beq- 7,.L684
.LVL845:
.LBB364:
.LBB360:
.LBB344:
	.loc 1 808 0
	srwi. 23,5,1
	mr 28,7
	mr 25,6
	.loc 1 802 0
	subf 10,10,9
.LVL846:
	.loc 1 808 0
	ble- 0,.L645
.LVL847:
.LBB345:
	.loc 1 697 0
	mullw 20,3,8
	slwi 22,3,1
	cmpwi 1,3,0
	cmpwi 6,0,0
.LBE345:
	.loc 1 808 0
	mr 28,7
	mr 25,6
	li 24,0
.LBB348:
	.loc 1 697 0
	addi 21,22,-2
	neg 30,9
.LVL848:
.L644:
	.loc 1 810 0
	ble- 1,.L656
	.loc 1 697 0
	addi 4,28,-2
	add 11,25,9
	add 29,28,21
.LVL849:
.L655:
.LBB346:
	.loc 1 813 0
	beq- 6,.L653
	.loc 1 697 0
	add 31,11,30
	.loc 1 815 0
	lbz 0,1(11)
	.loc 1 814 0
	lbz 31,1(31)
	lbzx 26,11,30
	.loc 1 815 0
	slwi 0,0,8
	lbz 27,0(11)
	.loc 1 814 0
	slwi 31,31,8
	or 31,31,26
	.loc 1 815 0
	or 0,0,27
	.loc 1 814 0
	extsh 31,31
.LVL850:
	.loc 1 815 0
	extsh 0,0
.LVL851:
.L654:
	.loc 1 821 0
	add 0,31,0
.LVL852:
	add 11,11,8
	srawi 0,0,1
	addze 0,0
	sthu 0,2(4)
.LBE346:
	.loc 1 810 0
	cmpw 7,4,29
	bne+ 7,.L655
	add 25,25,20
	add 28,28,22
.LVL853:
.L656:
.LBE348:
	.loc 1 808 0
	addi 24,24,1
.LBB349:
	.loc 1 826 0
	add 25,25,10
.LVL854:
.LBE349:
	.loc 1 808 0
	cmpw 7,23,24
.LBB350:
	.loc 1 827 0
	add 25,25,9
.LVL855:
.LBE350:
	.loc 1 808 0
	bne+ 7,.L644
.LVL856:
.L645:
	.loc 1 830 0
	mullw 9,9,5
.LVL857:
	add 6,6,9
.LVL858:
	cmpw 7,25,6
	bne- 7,.L657
	mullw 8,3,8
.LVL859:
	mullw 4,23,8
.LVL860:
.L647:
.LBE344:
	.loc 1 833 0
	add 7,7,4
.LVL861:
	cmpw 7,28,7
	beq+ 7,.L639
	lis 5,.LANCHOR0@ha
	lis 3,.LC15@ha
	la 5,.LANCHOR0@l(5)
	lis 6,.LC45@ha
	la 3,.LC15@l(3)
	li 4,834
	addi 5,5,384
	la 6,.LC45@l(6)
	bl __assert_func
.LVL862:
.L653:
.LBB352:
.LBB351:
.LBB347:
	.loc 1 818 0
	lhax 31,11,30
.LVL863:
	.loc 1 819 0
	lha 0,0(11)
.LVL864:
	b .L654
.LVL865:
.L682:
.LBE347:
.LBE351:
.LBE352:
	.loc 1 776 0
	srwi. 4,4,1
.LVL866:
	ble- 0,.L685
.LVL867:
.LBB353:
	.loc 1 697 0
	slwi 25,3,1
	cmpwi 6,0,0
	mullw 26,3,8
	cmpwi 1,3,0
.LBE353:
	.loc 1 776 0
	mr 28,7
	li 27,0
.LBB356:
	.loc 1 697 0
	addi 24,25,-2
	neg 3,10
.LVL868:
.L648:
	.loc 1 778 0
	ble- 1,.L652
	.loc 1 697 0
	addi 11,28,-2
	add 9,6,10
	add 31,28,24
.LVL869:
.L651:
.LBB354:
	.loc 1 781 0
	beq- 6,.L649
	.loc 1 697 0
	add 5,9,3
	.loc 1 783 0
	lbz 0,1(9)
	.loc 1 782 0
	lbz 5,1(5)
	lbzx 29,9,3
	.loc 1 783 0
	slwi 0,0,8
	lbz 30,0(9)
	.loc 1 782 0
	slwi 5,5,8
	or 5,5,29
	.loc 1 783 0
	or 0,0,30
	.loc 1 782 0
	extsh 5,5
.LVL870:
	.loc 1 783 0
	extsh 0,0
.LVL871:
.L650:
	.loc 1 790 0
	add 0,5,0
.LVL872:
	add 9,9,8
	srawi 0,0,1
	addze 0,0
	sthu 0,2(11)
.LBE354:
	.loc 1 778 0
	cmpw 7,11,31
	bne+ 7,.L651
	add 6,6,26
	add 28,28,25
.LVL873:
.L652:
.LBE356:
	.loc 1 776 0
	addi 27,27,1
.LBB357:
	.loc 1 794 0
	add 6,6,10
.LVL874:
.LBE357:
	.loc 1 776 0
	cmpw 7,27,4
	bne+ 7,.L648
	mullw 4,27,26
.LVL875:
	b .L647
.LVL876:
.L649:
.LBB358:
.LBB355:
	.loc 1 786 0
	lhax 5,9,3
.LVL877:
	.loc 1 787 0
	lha 0,0(9)
.LVL878:
	b .L650
.LVL879:
.L657:
.LBE355:
.LBE358:
.LBB359:
	.loc 1 830 0
	lis 5,.LANCHOR0@ha
.LVL880:
	lis 3,.LC15@ha
.LVL881:
	la 5,.LANCHOR0@l(5)
	lis 6,.LC44@ha
	la 3,.LC15@l(3)
	li 4,830
	addi 5,5,384
	la 6,.LC44@l(6)
	bl __assert_func
.LVL882:
.L684:
.LBE359:
.LBE360:
.LBE364:
	.loc 1 709 0 discriminator 2
	lis 5,.LANCHOR0@ha
.LVL883:
	lis 3,.LC15@ha
.LVL884:
	la 5,.LANCHOR0@l(5)
	lis 6,.LC43@ha
.LVL885:
	la 3,.LC15@l(3)
	li 4,709
.LVL886:
	addi 5,5,364
	la 6,.LC43@l(6)
	bl __assert_func
.LVL887:
.L685:
.LBB365:
.LBB361:
	.loc 1 776 0
	mullw 8,3,8
.LVL888:
	mr 28,7
	mullw 4,4,8
.LVL889:
	b .L647
.LBE361:
.LBE365:
	.cfi_endproc
.LFE11:
	.size	halveImage_short, .-halveImage_short
	.align 2
	.type	scale_internal_short, @function
scale_internal_short:
.LFB23:
	.loc 1 2069 0
	.cfi_startproc
.LVL890:
	.loc 1 2092 0
	slwi 11,7,1
	.loc 1 2069 0
	mfcr 12
	.loc 1 2092 0
	cmpw 7,11,4
	.loc 1 2069 0
	mflr 0
	stwu 1,-512(1)
.LCFI121:
	.cfi_def_cfa_offset 512
	.cfi_register 65, 0
	.cfi_register 70, 12
	mr 11,5
	stw 0,516(1)
	mr 0,4
	.cfi_offset 65, 4
	stw 24,448(1)
	mr 24,9
	.cfi_offset 24, -64
	stw 25,452(1)
	stw 27,460(1)
	stw 28,464(1)
	mr 28,7
	.cfi_offset 28, -48
	.cfi_offset 27, -52
	.cfi_offset 25, -60
	stw 29,468(1)
	mr 29,6
	.cfi_offset 29, -44
	stw 30,472(1)
	mr 30,3
	.cfi_offset 30, -40
	stw 31,476(1)
	stfd 28,480(1)
	stfd 29,488(1)
	stfd 30,496(1)
	stfd 31,504(1)
	stw 14,408(1)
	stw 15,412(1)
	stw 16,416(1)
	stw 17,420(1)
	stw 18,424(1)
	stw 19,428(1)
	stw 20,432(1)
	stw 21,436(1)
	stw 22,440(1)
	stw 23,444(1)
	stw 26,456(1)
	stw 12,404(1)
	.loc 1 2069 0
	stw 8,348(1)
	lwz 27,520(1)
	lwz 31,524(1)
	.cfi_offset 70, -108
	.cfi_offset 26, -56
	.cfi_offset 23, -68
	.cfi_offset 22, -72
	.cfi_offset 21, -76
	.cfi_offset 20, -80
	.cfi_offset 19, -84
	.cfi_offset 18, -88
	.cfi_offset 17, -92
	.cfi_offset 16, -96
	.cfi_offset 15, -100
	.cfi_offset 14, -104
	.cfi_offset 63, -8
	.cfi_offset 62, -16
	.cfi_offset 61, -24
	.cfi_offset 60, -32
	.cfi_offset 31, -36
	lwz 25,528(1)
	.loc 1 2092 0
	beq- 7,.L813
.LVL891:
.L687:
	.loc 1 2098 0
	lwz 7,348(1)
.LVL892:
	lis 26,0x4330
	xoris 11,11,0x8000
	stw 26,24(1)
	xoris 9,7,0x8000
	stw 11,28(1)
	stw 9,36(1)
	lis 23,.LC5@ha
	stw 26,32(1)
	.loc 1 2099 0
	xoris 0,0,0x8000
.LVL893:
	.loc 1 2098 0
	lfs 31,.LC5@l(23)
	.loc 1 2099 0
	xoris 9,28,0x8000
	.loc 1 2098 0
	lfd 30,24(1)
	lfd 13,32(1)
	.loc 1 2099 0
	stw 0,44(1)
	.loc 1 2098 0
	fsub 30,30,31
	.loc 1 2099 0
	stw 9,52(1)
	.loc 1 2098 0
	fsub 13,13,31
	.loc 1 2099 0
	stw 26,40(1)
	stw 26,48(1)
	.loc 1 2098 0
	frsp 30,30
	.loc 1 2099 0
	lfd 29,40(1)
	.loc 1 2098 0
	frsp 13,13
	.loc 1 2099 0
	lfd 0,48(1)
	fsub 29,29,31
	.loc 1 2100 0
	stw 10,388(1)
	.loc 1 2099 0
	fsub 0,0,31
	.loc 1 2098 0
	fdivs 30,30,13
.LVL894:
	.loc 1 2099 0
	frsp 0,0
	frsp 29,29
	.loc 1 2100 0
	fmr 1,30
	.loc 1 2099 0
	fdivs 29,29,0
.LVL895:
	.loc 1 2100 0
	bl floor
.LVL896:
	fmr 28,1
.LVL897:
	.loc 1 2102 0
	fmr 1,29
.LVL898:
	bl floor
	addi 8,1,336
	fctiwz 1,1
	.loc 1 2103 0
	stw 26,56(1)
	.loc 1 2105 0
	fmuls 8,29,30
	.loc 1 2102 0
	stfiwx 1,0,8
	lwz 0,336(1)
	.loc 1 2112 0
	lwz 11,348(1)
	.loc 1 2102 0
	stw 0,340(1)
.LVL899:
	.loc 1 2103 0
	xoris 0,0,0x8000
	stw 0,60(1)
	.loc 1 2112 0
	cmpwi 7,11,0
	lwz 10,388(1)
	.loc 1 2103 0
	lfd 0,56(1)
	fsub 0,0,31
	frsp 0,0
	fsubs 29,29,0
.LVL900:
	.loc 1 2112 0
	ble- 7,.L686
	.loc 1 2100 0
	fctiwz 28,28
.LVL901:
	addi 4,1,332
	.loc 1 2101 0
	stw 26,64(1)
	.loc 1 2108 0
	lis 7,.LC24@ha
	.loc 1 2063 0
	mullw 0,28,30
	.loc 1 2108 0
	lfs 7,.LC24@l(7)
	.loc 1 2100 0
	stfiwx 28,0,4
	.loc 1 2063 0
	addi 24,24,-2
.LVL902:
	stfs 7,392(1)
	slwi 11,30,1
	.loc 1 2100 0
	lwz 5,332(1)
	.loc 1 2063 0
	slwi 26,30,2
	mullw 21,10,30
	slwi 0,0,1
	.loc 1 2101 0
	xoris 9,5,0x8000
	.loc 1 2100 0
	stw 5,352(1)
	.loc 1 2101 0
	stw 9,68(1)
	.loc 1 2112 0
	li 9,0
	lis 19,.LC3@ha
	.loc 1 2063 0
	stw 24,356(1)
	.loc 1 2101 0
	lfd 0,64(1)
	.loc 1 2063 0
	addi 4,1,4
	.loc 1 2112 0
	stw 9,360(1)
	cmpwi 2,28,0
	.loc 1 2101 0
	fsub 0,0,31
	.loc 1 2063 0
	lwz 20,392(1)
	cmpwi 1,30,0
	cmpwi 7,25,0
	stw 0,380(1)
	.loc 1 2109 0
	mr 6,5
	.loc 1 2101 0
	frsp 0,0
	.loc 1 2063 0
	stw 11,376(1)
	.loc 1 2107 0
	li 8,0
.LVL903:
	la 19,.LC3@l(19)
	mr 11,23
	.loc 1 2321 0
	lis 0,0x4330
	.loc 1 2101 0
	fsubs 30,30,0
.LVL904:
	.loc 1 2063 0
	add 26,4,26
	.loc 1 2110 0
	fmr 9,30
.LVL905:
.L689:
	.loc 1 2118 0 discriminator 1
	ble- 2,.L779
	.loc 1 2171 0
	mullw 4,6,27
	.loc 1 2063 0
	addi 7,6,-1
	.loc 1 2206 0
	addi 15,8,1
	.loc 1 2063 0
	lwz 14,356(1)
	subf 7,8,7
	fmr 11,29
	cmpw 3,6,8
	.loc 1 2124 0
	stw 20,20(1)
	.loc 1 2131 0
	mullw 9,8,27
	.loc 1 2171 0
	stw 4,368(1)
	.loc 1 2063 0
	li 23,0
	.loc 1 2124 0
	stw 20,16(1)
	.loc 1 2063 0
	lis 5,.LC24@ha
	.loc 1 2124 0
	stw 20,12(1)
	.loc 1 2063 0
	lfs 0,.LC24@l(5)
	li 17,0
	.loc 1 2311 0
	mullw 4,27,15
	.loc 1 2131 0
	stw 9,344(1)
	.loc 1 2063 0
	lwz 9,340(1)
	cmpw 4,15,6
	.loc 1 2124 0
	stw 20,8(1)
	.loc 1 2128 0
	cmpw 6,9,23
	.loc 1 2063 0
	mullw 7,7,27
	.loc 1 2311 0
	stw 4,372(1)
	.loc 1 2063 0
	stw 7,384(1)
	.loc 1 2127 0
	mullw 18,23,31
.LVL906:
	.loc 1 2128 0
	bgt- 3,.L814
.LVL907:
.L690:
	.loc 1 2258 0
	ble- 6,.L743
	.loc 1 2260 0
	lfs 13,0(19)
	.loc 1 2259 0
	fsubs 12,9,7
.LVL908:
	.loc 1 2262 0
	lwz 5,344(1)
	.loc 1 2260 0
	fsubs 0,13,0
	.loc 1 2262 0
	add 24,5,18
	add 24,29,24
	.loc 1 2260 0
	fmuls 13,0,12
.LVL909:
	.loc 1 2263 0
	ble- 1,.L744
	.loc 1 2063 0
	lis 8,.LC24@ha
	.loc 1 2263 0
	addi 5,1,8
	.loc 1 2063 0
	lfs 0,.LC24@l(8)
	.loc 1 2263 0
	mr 7,24
	la 8,.LC5@l(11)
	.loc 1 2265 0
	beq- 7,.L745
.LVL910:
.L815:
	.loc 1 2266 0
	lbz 3,1(7)
	.loc 1 2263 0
	cmpw 6,5,26
	.loc 1 2266 0
	lbz 4,0(7)
	.loc 1 2264 0
	add 7,7,10
.LVL911:
	.loc 1 2266 0
	slwi 3,3,8
.LVL912:
	.loc 1 2267 0
	stw 0,248(1)
	.loc 1 2266 0
	or 4,3,4
	.loc 1 2267 0
	lfs 10,0(8)
	extsh 4,4
	xoris 4,4,0x8000
	stw 4,252(1)
	lfd 6,248(1)
	fsub 10,6,10
	frsp 10,10
	fmadds 0,10,13,0
	stfs 0,0(5)
	.loc 1 2263 0
	beq- 6,.L744
.L816:
	.loc 1 2264 0
	lfsu 0,4(5)
	.loc 1 2265 0
	bne- 7,.L815
.L745:
	.loc 1 2269 0
	lha 4,0(7)
	.loc 1 2263 0
	cmpw 6,5,26
	.loc 1 2269 0
	stw 0,256(1)
	.loc 1 2264 0
	add 7,7,10
	.loc 1 2269 0
	xoris 4,4,0x8000
	lfs 10,0(8)
	stw 4,260(1)
	lfd 6,256(1)
	fsub 10,6,10
	frsp 10,10
	fmadds 0,10,13,0
	stfs 0,0(5)
	.loc 1 2263 0
	bne+ 6,.L816
.L744:
	.loc 1 2272 0
	addi 25,23,1
.LVL913:
	.loc 1 2262 0
	mr 22,24
	.loc 1 2272 0
	cmpw 6,9,25
	ble- 6,.L749
.LVL914:
.L786:
	.loc 1 2273 0
	add 22,22,31
.LVL915:
	.loc 1 2274 0
	ble- 1,.L750
	.loc 1 2280 0
	mtctr 30
	.loc 1 2274 0
	addi 8,1,8
	.loc 1 2273 0
	mr 7,22
	la 5,.LC5@l(11)
.LVL916:
.L753:
	.loc 1 2276 0
	beq- 7,.L751
.LVL917:
	.loc 1 2277 0
	lbz 3,1(7)
	lbz 4,0(7)
	slwi 3,3,8
	.loc 1 2278 0
	stw 0,264(1)
	.loc 1 2277 0
	or 4,3,4
	.loc 1 2278 0
	lfs 13,0(5)
	extsh 4,4
	xoris 4,4,0x8000
	stw 4,268(1)
	lfd 10,264(1)
	lfs 0,0(8)
	fsub 13,10,13
	frsp 13,13
	fmadds 0,13,12,0
	stfs 0,0(8)
.LVL918:
.L752:
	.loc 1 2275 0
	add 7,7,10
.LVL919:
	addi 8,8,4
	.loc 1 2274 0
	bdnz .L753
.LVL920:
.L750:
	.loc 1 2272 0
	addi 25,25,1
.LVL921:
	cmpw 6,25,9
	bne+ 6,.L786
	.loc 1 2063 0
	addi 8,9,-1
	subf 8,23,8
	mullw 8,8,31
	.loc 1 2272 0
	add 24,24,8
.L749:
.LVL922:
	.loc 1 2285 0
	fmuls 12,12,11
.LVL923:
	.loc 1 2286 0
	ble- 1,.L739
	.loc 1 2292 0
	mtctr 30
	.loc 1 2284 0
	addi 7,1,8
	.loc 1 2286 0
	add 24,24,31
	la 8,.LC5@l(11)
.LVL924:
.L757:
	.loc 1 2288 0
	beq- 7,.L755
.LVL925:
	.loc 1 2289 0
	lbz 4,1(24)
	lbz 5,0(24)
	slwi 4,4,8
	.loc 1 2290 0
	stw 0,280(1)
	.loc 1 2289 0
	or 5,4,5
	.loc 1 2290 0
	lfs 13,0(8)
	extsh 5,5
	xoris 5,5,0x8000
	stw 5,284(1)
	lfd 10,280(1)
	lfs 0,0(7)
	fsub 13,10,13
	frsp 13,13
	fmadds 0,13,12,0
	stfs 0,0(7)
.LVL926:
.L756:
	.loc 1 2287 0
	add 24,24,10
.LVL927:
	addi 7,7,4
	.loc 1 2286 0
	bdnz .L757
.LVL928:
.L739:
	.loc 1 2312 0
	bge- 4,.L720
	.loc 1 2310 0
	lwz 4,372(1)
	add 22,31,18
	addi 5,23,1
	add 22,22,4
	add 22,29,22
.LVL929:
.L763:
	cmpw 0,9,5
	.loc 1 2063 0
	mr 18,15
.LVL930:
.L771:
	.loc 1 2314 0
	ble- 0,.L765
	.loc 1 2314 0 is_stmt 0 discriminator 1
	mr 24,5
	mr 23,22
.LVL931:
.L769:
	.loc 1 2315 0 is_stmt 1 discriminator 1
	ble- 1,.L770
	.loc 1 2321 0
	mtctr 30
	.loc 1 2315 0
	addi 8,1,8
	mr 7,23
	la 4,.LC5@l(11)
.LVL932:
.L768:
	.loc 1 2317 0
	beq- 7,.L766
.LVL933:
	.loc 1 2318 0
	lbz 25,1(7)
	lbz 3,0(7)
	slwi 25,25,8
	.loc 1 2319 0
	stw 0,312(1)
	.loc 1 2318 0
	or 3,25,3
	.loc 1 2319 0
	lfs 0,0(4)
	extsh 3,3
	xoris 3,3,0x8000
	stw 3,316(1)
	lfd 12,312(1)
	lfs 13,0(8)
	fsub 0,12,0
	frsp 0,0
	fadds 0,13,0
	stfs 0,0(8)
.LVL934:
.L767:
	.loc 1 2316 0
	add 7,7,10
.LVL935:
	addi 8,8,4
	.loc 1 2315 0
	bdnz .L768
.LVL936:
.L770:
	.loc 1 2314 0
	addi 24,24,1
	.loc 1 2324 0
	add 23,23,31
.LVL937:
	.loc 1 2314 0
	cmpw 6,24,9
	bne+ 6,.L769
.LVL938:
.L765:
	.loc 1 2312 0
	addi 18,18,1
	.loc 1 2326 0
	add 22,22,27
.LVL939:
	.loc 1 2312 0
	cmpw 6,18,6
	blt+ 6,.L771
.LVL940:
.L720:
	.loc 1 2330 0
	ble- 1,.L772
	addi 8,1,4
	.loc 1 2063 0
	mr 7,14
.LVL941:
.L773:
	.loc 1 2331 0 discriminator 2
	lfsu 0,4(8)
	addi 5,1,328
	fdivs 0,0,8
	.loc 1 2330 0 discriminator 2
	cmpw 6,8,26
	.loc 1 2331 0 discriminator 2
	fctiwz 0,0
	stfiwx 0,0,5
	lwz 5,328(1)
	sthu 5,2(7)
	.loc 1 2330 0 discriminator 2
	bne+ 6,.L773
.L772:
.LVL942:
	.loc 1 2337 0
	fadds 12,11,29
	.loc 1 2338 0
	lfs 0,0(19)
	.loc 1 2336 0
	lwz 7,340(1)
	.loc 1 2338 0
	fcmpu 6,12,0
	.loc 1 2336 0
	add 8,9,7
.LVL943:
	.loc 1 2338 0
	bng- 6,.L774
	.loc 1 2339 0
	fsubs 12,12,0
.LVL944:
	.loc 1 2340 0
	addi 8,8,1
.LVL945:
.L774:
	.loc 1 2118 0
	addi 17,17,1
.LVL946:
	lwz 4,376(1)
	cmpw 6,17,28
	add 14,14,4
	beq- 6,.L779
	mr 23,9
	mr 9,8
.LVL947:
	fmr 0,11
	.loc 1 2124 0
	stw 20,20(1)
	.loc 1 2118 0
	fmr 11,12
.LVL948:
	.loc 1 2124 0
	stw 20,16(1)
	stw 20,12(1)
	.loc 1 2127 0
	mullw 18,23,31
.LVL949:
	.loc 1 2124 0
	stw 20,8(1)
	.loc 1 2128 0
	cmpw 6,9,23
	ble- 3,.L690
.LVL950:
.L814:
	.loc 1 2128 0 is_stmt 0 discriminator 1
	ble- 6,.L691
	.loc 1 2130 0 is_stmt 1
	lfs 13,0(19)
	.loc 1 2131 0
	lwz 5,344(1)
	.loc 1 2130 0
	fsubs 12,13,7
.LVL951:
	.loc 1 2132 0
	fsubs 13,13,0
	.loc 1 2131 0
	add 12,18,5
	add 12,29,12
.LVL952:
	.loc 1 2132 0
	fmuls 10,13,12
.LVL953:
	.loc 1 2133 0
	ble- 1,.L692
	.loc 1 2063 0
	lis 8,.LC24@ha
	.loc 1 2133 0
	addi 5,1,8
	.loc 1 2063 0
	lfs 0,.LC24@l(8)
	.loc 1 2133 0
	mr 7,12
	la 8,.LC5@l(11)
	.loc 1 2135 0
	beq- 7,.L693
.LVL954:
.L817:
	.loc 1 2136 0
	lbz 3,1(7)
	.loc 1 2133 0
	cmpw 6,5,26
	.loc 1 2136 0
	lbz 4,0(7)
	.loc 1 2134 0
	add 7,7,10
.LVL955:
	.loc 1 2136 0
	slwi 3,3,8
.LVL956:
	.loc 1 2137 0
	stw 0,72(1)
	.loc 1 2136 0
	or 4,3,4
	.loc 1 2137 0
	lfs 6,0(8)
	extsh 4,4
	xoris 4,4,0x8000
	stw 4,76(1)
	lfd 5,72(1)
	fsub 6,5,6
	frsp 6,6
	fmadds 0,6,10,0
	stfs 0,0(5)
	.loc 1 2133 0
	beq- 6,.L692
.L818:
	.loc 1 2134 0
	lfsu 0,4(5)
	.loc 1 2135 0
	bne- 7,.L817
.L693:
	.loc 1 2139 0
	lha 4,0(7)
	.loc 1 2133 0
	cmpw 6,5,26
	.loc 1 2139 0
	stw 0,80(1)
	.loc 1 2134 0
	add 7,7,10
	.loc 1 2139 0
	xoris 4,4,0x8000
	lfs 6,0(8)
	stw 4,84(1)
	lfd 5,80(1)
	fsub 6,5,6
	frsp 6,6
	fmadds 0,6,10,0
	stfs 0,0(5)
	.loc 1 2133 0
	bne+ 6,.L818
.L692:
.LVL957:
	.loc 1 2143 0
	addi 5,23,1
.LVL958:
	.loc 1 2131 0
	mr 8,12
	.loc 1 2143 0
	cmpw 0,5,9
	mr 24,5
	.loc 1 2131 0
	mr 22,12
	.loc 1 2143 0
	bge- 0,.L697
.LVL959:
.L785:
	.loc 1 2144 0
	add 22,22,31
.LVL960:
	.loc 1 2145 0
	ble- 1,.L698
	.loc 1 2151 0
	mtctr 30
	.loc 1 2145 0
	addi 8,1,8
	.loc 1 2144 0
	mr 7,22
	la 4,.LC5@l(11)
.LVL961:
.L701:
	.loc 1 2147 0
	beq- 7,.L699
.LVL962:
	.loc 1 2148 0
	lbz 25,1(7)
	lbz 3,0(7)
	slwi 25,25,8
	.loc 1 2149 0
	stw 0,88(1)
	.loc 1 2148 0
	or 3,25,3
	.loc 1 2149 0
	lfs 10,0(4)
	extsh 3,3
	xoris 3,3,0x8000
	stw 3,92(1)
	lfd 6,88(1)
	lfs 0,0(8)
	fsub 10,6,10
	frsp 10,10
	fmadds 0,10,12,0
	stfs 0,0(8)
.LVL963:
.L700:
	.loc 1 2146 0
	add 7,7,10
.LVL964:
	addi 8,8,4
	.loc 1 2145 0
	bdnz .L701
.LVL965:
.L698:
	.loc 1 2143 0
	addi 24,24,1
.LVL966:
	cmpw 6,24,9
	bne+ 6,.L785
	.loc 1 2063 0
	addi 8,9,-1
	subf 8,23,8
	mullw 8,8,31
	.loc 1 2143 0
	add 8,12,8
.L697:
	.loc 1 2155 0
	add 8,8,31
	.loc 1 2157 0
	fmuls 12,12,11
.LVL967:
	.loc 1 2155 0
	stw 8,364(1)
.LVL968:
	.loc 1 2158 0
	ble- 1,.L703
	addi 7,1,8
	.loc 1 2164 0
	mtctr 30
	.loc 1 2158 0
	mr 3,8
	mr 4,7
	la 8,.LC5@l(11)
.LVL969:
.L706:
	.loc 1 2160 0
	beq- 7,.L704
.LVL970:
	.loc 1 2161 0
	lbz 24,1(3)
	lbz 25,0(3)
	slwi 24,24,8
	.loc 1 2162 0
	stw 0,104(1)
	.loc 1 2161 0
	or 25,24,25
	.loc 1 2162 0
	lfs 10,0(8)
	extsh 25,25
	xoris 25,25,0x8000
	stw 25,108(1)
	lfd 6,104(1)
	lfs 0,0(4)
	fsub 10,6,10
	frsp 10,10
	fmadds 0,10,12,0
	stfs 0,0(4)
.LVL971:
.L705:
	.loc 1 2159 0
	add 3,3,10
.LVL972:
	addi 4,4,4
	.loc 1 2158 0
	bdnz .L706
.LVL973:
	.loc 1 2171 0
	lwz 4,368(1)
	.loc 1 2170 0
	fmuls 0,9,13
.LVL974:
	.loc 1 2178 0
	mtctr 30
	.loc 1 2171 0
	add 16,18,4
	add 16,29,16
.LVL975:
	mr 4,16
.LVL976:
.L709:
	.loc 1 2174 0
	beq- 7,.L707
.LVL977:
	.loc 1 2175 0
	lbz 25,1(4)
	lbz 3,0(4)
	slwi 25,25,8
	.loc 1 2176 0
	stw 0,120(1)
	.loc 1 2175 0
	or 3,25,3
	.loc 1 2176 0
	lfs 10,0(8)
	extsh 3,3
	xoris 3,3,0x8000
	stw 3,124(1)
	lfd 6,120(1)
	lfs 12,0(7)
	fsub 10,6,10
	frsp 10,10
	fmadds 12,10,0,12
	stfs 12,0(7)
.LVL978:
.L708:
	.loc 1 2173 0
	add 4,4,10
.LVL979:
	addi 7,7,4
	.loc 1 2172 0
	bdnz .L709
.LVL980:
.L780:
	.loc 1 2181 0 discriminator 1
	bge- 0,.L710
	.loc 1 2181 0 is_stmt 0
	mr 24,5
	mr 22,16
.LVL981:
.L715:
	.loc 1 2182 0 is_stmt 1
	add 22,22,31
.LVL982:
	.loc 1 2183 0
	ble- 1,.L711
	.loc 1 2189 0
	mtctr 30
	.loc 1 2183 0
	addi 8,1,8
	.loc 1 2182 0
	mr 7,22
	la 4,.LC5@l(11)
.LVL983:
.L714:
	.loc 1 2185 0
	beq- 7,.L712
.LVL984:
	.loc 1 2186 0
	lbz 25,1(7)
	lbz 3,0(7)
	slwi 25,25,8
	.loc 1 2187 0
	stw 0,136(1)
	.loc 1 2186 0
	or 3,25,3
	.loc 1 2187 0
	lfs 12,0(4)
	extsh 3,3
	xoris 3,3,0x8000
	stw 3,140(1)
	lfd 10,136(1)
	lfs 0,0(8)
	fsub 12,10,12
	frsp 12,12
	fmadds 0,9,12,0
	stfs 0,0(8)
.LVL985:
.L713:
	.loc 1 2184 0
	add 7,7,10
.LVL986:
	addi 8,8,4
	.loc 1 2183 0
	bdnz .L714
.LVL987:
.L711:
	.loc 1 2181 0
	addi 24,24,1
.LVL988:
	cmpw 6,24,9
	bne+ 6,.L715
	.loc 1 2063 0
	addi 8,9,-1
	subf 8,23,8
	mullw 8,31,8
	.loc 1 2181 0
	add 16,16,8
.LVL989:
.L710:
	.loc 1 2194 0
	fmuls 0,11,9
.LVL990:
	.loc 1 2195 0
	ble- 1,.L716
	.loc 1 2201 0
	mtctr 30
	.loc 1 2193 0
	addi 7,1,8
	.loc 1 2195 0
	add 16,16,31
	la 8,.LC5@l(11)
.LVL991:
.L719:
	.loc 1 2197 0
	beq- 7,.L717
.LVL992:
	.loc 1 2198 0
	lbz 3,1(16)
	lbz 4,0(16)
	slwi 3,3,8
	.loc 1 2199 0
	stw 0,152(1)
	.loc 1 2198 0
	or 4,3,4
	.loc 1 2199 0
	lfs 10,0(8)
	extsh 4,4
	xoris 4,4,0x8000
	stw 4,156(1)
	lfd 6,152(1)
	lfs 12,0(7)
	fsub 10,6,10
	frsp 10,10
	fmadds 12,10,0,12
	stfs 12,0(7)
.LVL993:
.L718:
	.loc 1 2196 0
	add 16,16,10
.LVL994:
	addi 7,7,4
	.loc 1 2195 0
	bdnz .L719
.LVL995:
.L716:
	.loc 1 2206 0
	bge- 4,.L720
	.loc 1 2156 0
	lwz 25,364(1)
	.loc 1 2206 0
	mr 22,15
.LVL996:
.L725:
	.loc 1 2207 0
	add 12,12,27
.LVL997:
	.loc 1 2208 0
	add 25,25,27
.LVL998:
	.loc 1 2209 0
	ble- 1,.L721
	.loc 1 2218 0
	mtctr 30
	.loc 1 2209 0
	addi 8,1,8
	.loc 1 2208 0
	mr 4,25
	.loc 1 2207 0
	mr 7,12
	la 3,.LC5@l(11)
.LVL999:
.L724:
	.loc 1 2211 0
	beq- 7,.L722
.LVL1000:
	.loc 1 2214 0
	lbz 23,1(4)
	lbz 24,0(4)
	slwi 23,23,8
	.loc 1 2215 0
	stw 0,168(1)
	.loc 1 2214 0
	or 24,23,24
	.loc 1 2215 0
	lfs 0,0(3)
	extsh 24,24
	xoris 24,24,0x8000
	stw 24,172(1)
	.loc 1 2212 0
	lbz 23,1(7)
	lbz 24,0(7)
	slwi 23,23,8
	.loc 1 2213 0
	stw 0,176(1)
	.loc 1 2212 0
	or 24,23,24
	.loc 1 2215 0
	lfd 12,168(1)
	.loc 1 2213 0
	extsh 24,24
	xoris 24,24,0x8000
	.loc 1 2215 0
	fsub 12,12,0
	.loc 1 2213 0
	stw 24,180(1)
	lfd 10,176(1)
	.loc 1 2215 0
	frsp 12,12
	.loc 1 2213 0
	fsub 0,10,0
	lfs 10,0(8)
	frsp 0,0
	fmadds 0,13,0,10
	.loc 1 2215 0
	fmadds 0,12,11,0
	stfs 0,0(8)
.LVL1001:
.L723:
	.loc 1 2210 0
	add 7,7,10
.LVL1002:
	add 4,4,10
.LVL1003:
	addi 8,8,4
	.loc 1 2209 0
	bdnz .L724
	.loc 1 2063 0
	add 12,12,21
	add 25,25,21
.LVL1004:
.L721:
	.loc 1 2206 0
	addi 22,22,1
.LVL1005:
	cmpw 6,22,6
	bne+ 6,.L725
	.loc 1 2310 0
	lwz 8,372(1)
	add 22,18,8
.LVL1006:
	add 22,22,31
	add 22,29,22
.LVL1007:
	b .L763
.LVL1008:
.L691:
	.loc 1 2224 0
	lfs 12,0(19)
	.loc 1 2223 0
	fsubs 0,11,0
.LVL1009:
	.loc 1 2225 0
	lwz 5,344(1)
	.loc 1 2224 0
	fsubs 12,12,7
	.loc 1 2225 0
	add 24,5,18
	add 24,29,24
	.loc 1 2224 0
	fmuls 12,12,0
.LVL1010:
	.loc 1 2226 0
	ble- 1,.L727
	.loc 1 2063 0
	lis 8,.LC24@ha
	.loc 1 2226 0
	addi 7,1,8
	.loc 1 2063 0
	lfs 13,.LC24@l(8)
	.loc 1 2226 0
	mr 5,24
	la 8,.LC5@l(11)
	.loc 1 2228 0
	beq- 7,.L728
.LVL1011:
.L819:
	.loc 1 2229 0
	lbz 3,1(5)
	.loc 1 2226 0
	cmpw 6,7,26
	.loc 1 2229 0
	lbz 4,0(5)
	.loc 1 2227 0
	add 5,5,10
.LVL1012:
	.loc 1 2229 0
	slwi 3,3,8
.LVL1013:
	.loc 1 2230 0
	stw 0,200(1)
	.loc 1 2229 0
	or 4,3,4
	.loc 1 2230 0
	lfs 10,0(8)
	extsh 4,4
	xoris 4,4,0x8000
	stw 4,204(1)
	lfd 6,200(1)
	fsub 10,6,10
	frsp 10,10
	fmadds 13,10,12,13
	stfs 13,0(7)
	.loc 1 2226 0
	beq- 6,.L727
.L820:
	.loc 1 2227 0
	lfsu 13,4(7)
	.loc 1 2228 0
	bne- 7,.L819
.L728:
	.loc 1 2232 0
	lha 4,0(5)
	.loc 1 2226 0
	cmpw 6,7,26
	.loc 1 2232 0
	stw 0,208(1)
	.loc 1 2227 0
	add 5,5,10
	.loc 1 2232 0
	xoris 4,4,0x8000
	lfs 10,0(8)
	stw 4,212(1)
	lfd 6,208(1)
	fsub 10,6,10
	frsp 10,10
	fmadds 13,10,12,13
	stfs 13,0(7)
	.loc 1 2226 0
	bne+ 6,.L820
.L727:
	.loc 1 2235 0
	bge- 4,.L732
	mr 25,15
	.loc 1 2225 0
	mr 22,24
.LVL1014:
.L737:
	.loc 1 2236 0
	add 22,22,27
.LVL1015:
	.loc 1 2237 0
	ble- 1,.L733
	.loc 1 2243 0
	mtctr 30
	.loc 1 2237 0
	addi 8,1,8
	.loc 1 2236 0
	mr 7,22
	la 5,.LC5@l(11)
.LVL1016:
.L736:
	.loc 1 2239 0
	beq- 7,.L734
.LVL1017:
	.loc 1 2240 0
	lbz 3,1(7)
	lbz 4,0(7)
	slwi 3,3,8
	.loc 1 2241 0
	stw 0,216(1)
	.loc 1 2240 0
	or 4,3,4
	.loc 1 2241 0
	lfs 12,0(5)
	extsh 4,4
	xoris 4,4,0x8000
	stw 4,220(1)
	lfd 10,216(1)
	lfs 13,0(8)
	fsub 12,10,12
	frsp 12,12
	fmadds 13,12,0,13
	stfs 13,0(8)
.LVL1018:
.L735:
	.loc 1 2238 0
	add 7,7,10
.LVL1019:
	addi 8,8,4
	.loc 1 2237 0
	bdnz .L736
.LVL1020:
.L733:
	.loc 1 2235 0
	addi 25,25,1
.LVL1021:
	cmpw 6,25,6
	bne+ 6,.L737
	lwz 4,384(1)
	add 24,24,4
.LVL1022:
.L732:
	.loc 1 2247 0
	fmuls 0,0,9
.LVL1023:
	.loc 1 2249 0
	ble- 1,.L739
	.loc 1 2248 0
	addi 7,1,8
	.loc 1 2249 0
	add 24,24,27
	la 8,.LC5@l(11)
	.loc 1 2255 0
	mtctr 30
	.loc 1 2251 0
	beq- 7,.L740
.LVL1024:
.L821:
	.loc 1 2252 0
	lbz 4,1(24)
	lbz 5,0(24)
	slwi 4,4,8
	.loc 1 2253 0
	stw 0,232(1)
	.loc 1 2252 0
	or 5,4,5
	.loc 1 2253 0
	lfs 12,0(8)
	extsh 5,5
	xoris 5,5,0x8000
	stw 5,236(1)
	lfd 10,232(1)
	lfs 13,0(7)
	fsub 12,10,12
	frsp 12,12
	fmadds 13,12,0,13
	stfs 13,0(7)
.LVL1025:
.L741:
	.loc 1 2250 0
	add 24,24,10
.LVL1026:
	addi 7,7,4
	.loc 1 2249 0
	bdz .L739
	.loc 1 2251 0
	bne- 7,.L821
.LVL1027:
.L740:
	.loc 1 2255 0
	lha 5,0(24)
	stw 0,240(1)
	xoris 5,5,0x8000
	lfs 12,0(8)
	stw 5,244(1)
	lfd 10,240(1)
	lfs 13,0(7)
	fsub 12,10,12
	frsp 12,12
	fmadds 13,12,0,13
	stfs 13,0(7)
	b .L741
.LVL1028:
.L766:
	.loc 1 2321 0
	lha 3,0(7)
	stw 0,320(1)
	xoris 3,3,0x8000
	lfs 0,0(4)
	stw 3,324(1)
	lfd 12,320(1)
	lfs 13,0(8)
	fsub 0,12,0
	frsp 0,0
	fadds 0,13,0
	stfs 0,0(8)
	b .L767
.LVL1029:
.L734:
	.loc 1 2243 0
	lha 4,0(7)
	stw 0,224(1)
	xoris 4,4,0x8000
	lfs 12,0(5)
	stw 4,228(1)
	lfd 10,224(1)
	lfs 13,0(8)
	fsub 12,10,12
	frsp 12,12
	fmadds 13,12,0,13
	stfs 13,0(8)
	b .L735
.LVL1030:
.L712:
	.loc 1 2189 0
	lha 3,0(7)
	stw 0,144(1)
	xoris 3,3,0x8000
	lfs 12,0(4)
	stw 3,148(1)
	lfd 10,144(1)
	lfs 0,0(8)
	fsub 12,10,12
	frsp 12,12
	fmadds 0,9,12,0
	stfs 0,0(8)
	b .L713
.LVL1031:
.L722:
	.loc 1 2218 0
	lha 24,0(4)
	stw 0,184(1)
	xoris 24,24,0x8000
	lfs 0,0(3)
	stw 24,188(1)
	.loc 1 2217 0
	lha 24,0(7)
	.loc 1 2218 0
	lfd 10,184(1)
	.loc 1 2217 0
	xoris 24,24,0x8000
	stw 0,192(1)
	stw 24,196(1)
	.loc 1 2218 0
	fsub 10,10,0
	.loc 1 2217 0
	lfd 6,192(1)
	.loc 1 2218 0
	frsp 10,10
	.loc 1 2217 0
	lfs 12,0(8)
	fsub 0,6,0
	.loc 1 2218 0
	fmuls 10,10,11
	.loc 1 2217 0
	frsp 0,0
	.loc 1 2218 0
	fmadds 0,13,0,10
	.loc 1 2217 0
	fadds 0,12,0
	stfs 0,0(8)
	b .L723
.LVL1032:
.L699:
	.loc 1 2151 0
	lha 3,0(7)
	stw 0,96(1)
	xoris 3,3,0x8000
	lfs 10,0(4)
	stw 3,100(1)
	lfd 6,96(1)
	lfs 0,0(8)
	fsub 10,6,10
	frsp 10,10
	fmadds 0,10,12,0
	stfs 0,0(8)
	b .L700
.LVL1033:
.L707:
	.loc 1 2178 0
	lha 3,0(4)
	stw 0,128(1)
	xoris 3,3,0x8000
	lfs 10,0(8)
	stw 3,132(1)
	lfd 6,128(1)
	lfs 12,0(7)
	fsub 10,6,10
	frsp 10,10
	fmadds 12,10,0,12
	stfs 12,0(7)
	b .L708
.LVL1034:
.L717:
	.loc 1 2201 0
	lha 4,0(16)
	stw 0,160(1)
	xoris 4,4,0x8000
	lfs 10,0(8)
	stw 4,164(1)
	lfd 6,160(1)
	lfs 12,0(7)
	fsub 10,6,10
	frsp 10,10
	fmadds 12,10,0,12
	stfs 12,0(7)
	b .L718
.LVL1035:
.L704:
	.loc 1 2164 0
	lha 25,0(3)
	stw 0,112(1)
	xoris 25,25,0x8000
	lfs 10,0(8)
	stw 25,116(1)
	lfd 6,112(1)
	lfs 0,0(4)
	fsub 10,6,10
	frsp 10,10
	fmadds 0,10,12,0
	stfs 0,0(4)
	b .L705
.LVL1036:
.L751:
	.loc 1 2280 0
	lha 4,0(7)
	stw 0,272(1)
	xoris 4,4,0x8000
	lfs 13,0(5)
	stw 4,276(1)
	lfd 10,272(1)
	lfs 0,0(8)
	fsub 13,10,13
	frsp 13,13
	fmadds 0,13,12,0
	stfs 0,0(8)
	b .L752
.LVL1037:
.L755:
	.loc 1 2292 0
	lha 5,0(24)
	stw 0,288(1)
	xoris 5,5,0x8000
	lfs 13,0(8)
	stw 5,292(1)
	lfd 10,288(1)
	lfs 0,0(7)
	fsub 13,10,13
	frsp 13,13
	fmadds 0,13,12,0
	stfs 0,0(7)
	b .L756
.LVL1038:
.L743:
	.loc 1 2296 0
	fsubs 13,9,7
	fsubs 0,11,0
	fmuls 13,13,0
.LVL1039:
	.loc 1 2298 0
	ble- 1,.L739
	.loc 1 2297 0
	lwz 4,344(1)
	.loc 1 2063 0
	lis 8,.LC24@ha
	lfs 0,.LC24@l(8)
	.loc 1 2297 0
	addi 5,1,8
	add 7,4,18
	la 8,.LC5@l(11)
	.loc 1 2298 0
	add 7,29,7
	.loc 1 2300 0
	beq- 7,.L759
.LVL1040:
.L822:
	.loc 1 2301 0
	lbz 3,1(7)
	lbz 4,0(7)
	slwi 3,3,8
	.loc 1 2302 0
	stw 0,296(1)
	.loc 1 2301 0
	or 4,3,4
	.loc 1 2302 0
	lfs 12,0(8)
	extsh 4,4
	xoris 4,4,0x8000
	stw 4,300(1)
	lfd 10,296(1)
	fsub 12,10,12
	frsp 12,12
	fmadds 0,12,13,0
	stfs 0,0(5)
.LVL1041:
.L760:
	.loc 1 2298 0
	cmpw 6,5,26
	.loc 1 2299 0
	add 7,7,10
	.loc 1 2298 0
	beq- 6,.L739
	.loc 1 2299 0
	lfsu 0,4(5)
	.loc 1 2300 0
	bne- 7,.L822
.L759:
	.loc 1 2304 0
	lha 4,0(7)
	stw 0,304(1)
	xoris 4,4,0x8000
	lfs 12,0(8)
	stw 4,308(1)
	lfd 10,304(1)
	fsub 12,10,12
	frsp 12,12
	fmadds 0,12,13,0
	stfs 0,0(5)
	b .L760
.LVL1042:
.L779:
	.loc 1 2346 0
	fadds 0,9,30
	.loc 1 2347 0
	lfs 13,0(19)
	.loc 1 2345 0
	lwz 5,352(1)
	.loc 1 2347 0
	fcmpu 6,0,13
	.loc 1 2345 0
	add 9,6,5
.LVL1043:
	.loc 1 2347 0
	bng- 6,.L777
	.loc 1 2348 0
	fsubs 0,0,13
.LVL1044:
	.loc 1 2349 0
	addi 9,9,1
.LVL1045:
.L777:
	.loc 1 2112 0
	lwz 7,360(1)
	lwz 8,348(1)
	addi 7,7,1
	lwz 4,356(1)
	cmpw 6,7,8
	lwz 5,380(1)
	stw 7,360(1)
.LVL1046:
	add 4,4,5
	stw 4,356(1)
	beq- 6,.L686
	fmr 7,9
	mr 8,6
	fmr 9,0
.LVL1047:
	mr 6,9
.LVL1048:
	b .L689
.LVL1049:
.L703:
	.loc 1 2171 0
	lwz 7,368(1)
	add 16,18,7
	add 16,29,16
.LVL1050:
	b .L780
.LVL1051:
.L686:
	.loc 1 2352 0
	lwz 0,516(1)
	lwz 12,404(1)
	mtlr 0
	lwz 14,408(1)
	lwz 15,412(1)
	mtcrf 56,12
	lwz 16,416(1)
	lwz 17,420(1)
	lwz 18,424(1)
	lwz 19,428(1)
	lwz 20,432(1)
	lwz 21,436(1)
	lwz 22,440(1)
	lwz 23,444(1)
	lwz 24,448(1)
	lwz 25,452(1)
	lwz 26,456(1)
	lwz 27,460(1)
	lwz 28,464(1)
.LVL1052:
	lwz 29,468(1)
.LVL1053:
	lwz 30,472(1)
.LVL1054:
	lwz 31,476(1)
	lfd 28,480(1)
	lfd 29,488(1)
.LVL1055:
	lfd 30,496(1)
	lfd 31,504(1)
	addi 1,1,512
	.cfi_remember_state
.LCFI122:
	.cfi_def_cfa_offset 0
	.cfi_restore 70
	.cfi_restore 63
	.cfi_restore 62
	.cfi_restore 61
	.cfi_restore 60
	.cfi_restore 31
	.cfi_restore 30
	.cfi_restore 29
	.cfi_restore 28
	.cfi_restore 27
	.cfi_restore 26
	.cfi_restore 25
	.cfi_restore 24
	.cfi_restore 23
	.cfi_restore 22
	.cfi_restore 21
	.cfi_restore 20
	.cfi_restore 19
	.cfi_restore 18
	.cfi_restore 17
	.cfi_restore 16
	.cfi_restore 15
	.cfi_restore 14
	blr
.LVL1056:
.L813:
.LCFI123:
	.cfi_restore_state
	.loc 1 2092 0 discriminator 1
	slwi 9,8,1
.LVL1057:
	cmpw 7,9,5
	bne+ 7,.L687
	.loc 1 2352 0
	lwz 0,516(1)
.LVL1058:
	.loc 1 2093 0
	mr 7,24
.LVL1059:
	.loc 1 2352 0
	lwz 12,404(1)
	.loc 1 2093 0
	mr 8,10
	stw 25,520(1)
	mr 9,27
	.loc 1 2352 0
	lwz 14,408(1)
	.loc 1 2093 0
	mr 10,31
.LVL1060:
	.loc 1 2352 0
	lwz 15,412(1)
	mtlr 0
	lwz 16,416(1)
	mtcrf 56,12
	lwz 17,420(1)
	lwz 18,424(1)
	lwz 19,428(1)
	lwz 20,432(1)
	lwz 21,436(1)
	lwz 22,440(1)
	lwz 23,444(1)
	lwz 24,448(1)
.LVL1061:
	lwz 25,452(1)
	lwz 26,456(1)
	lwz 27,460(1)
	lwz 28,464(1)
.LVL1062:
	lwz 29,468(1)
	lwz 30,472(1)
	lwz 31,476(1)
	lfd 28,480(1)
	lfd 29,488(1)
	lfd 30,496(1)
	lfd 31,504(1)
	addi 1,1,512
.LCFI124:
	.cfi_def_cfa_offset 0
	.cfi_restore 70
	.cfi_restore 63
	.cfi_restore 62
	.cfi_restore 61
	.cfi_restore 60
	.cfi_restore 31
	.cfi_restore 30
	.cfi_restore 29
	.cfi_restore 28
	.cfi_restore 27
	.cfi_restore 26
	.cfi_restore 25
	.cfi_restore 24
	.cfi_restore 23
	.cfi_restore 22
	.cfi_restore 21
	.cfi_restore 20
	.cfi_restore 19
	.cfi_restore 18
	.cfi_restore 17
	.cfi_restore 16
	.cfi_restore 15
	.cfi_restore 14
	.loc 1 2093 0
	b halveImage_short
.LVL1063:
.LVL1064:
.LVL1065:
.LVL1066:
.LVL1067:
.LVL1068:
	.cfi_endproc
.LFE23:
	.size	scale_internal_short, .-scale_internal_short
	.align 2
	.type	halveImage_uint, @function
halveImage_uint:
.LFB13:
	.loc 1 843 0
	.cfi_startproc
.LVL1069:
	.loc 1 850 0
	cmpwi 7,4,1
	.loc 1 843 0
	mflr 0
	stwu 1,-192(1)
.LCFI125:
	.cfi_def_cfa_offset 192
	.cfi_register 65, 0
	stw 0,196(1)
	stw 15,124(1)
	stw 16,128(1)
	stw 17,132(1)
	stw 18,136(1)
	stw 19,140(1)
	stw 20,144(1)
	stw 21,148(1)
	stw 22,152(1)
	stw 23,156(1)
	stw 24,160(1)
	stw 25,164(1)
	stw 26,168(1)
	stw 27,172(1)
	stw 28,176(1)
	stw 29,180(1)
	stw 30,184(1)
	stw 31,188(1)
	.loc 1 843 0
	lwz 0,200(1)
	.cfi_offset 31, -4
	.cfi_offset 30, -8
	.cfi_offset 29, -12
	.cfi_offset 28, -16
	.cfi_offset 27, -20
	.cfi_offset 26, -24
	.cfi_offset 25, -28
	.cfi_offset 24, -32
	.cfi_offset 23, -36
	.cfi_offset 22, -40
	.cfi_offset 21, -44
	.cfi_offset 20, -48
	.cfi_offset 19, -52
	.cfi_offset 18, -56
	.cfi_offset 17, -60
	.cfi_offset 16, -64
	.cfi_offset 15, -68
	.cfi_offset 65, 4
	.loc 1 850 0
	beq- 7,.L824
	.loc 1 850 0 is_stmt 0 discriminator 1
	cmpwi 7,5,1
	beq- 7,.L874
.LVL1070:
.LBB376:
.LBB377:
	.loc 1 863 0 is_stmt 1
	cmpwi 7,0,0
	.loc 1 857 0
	srwi 26,4,1
.LVL1071:
	.loc 1 858 0
	srwi 20,5,1
.LVL1072:
	.loc 1 863 0
	bne- 7,.L875
.LVL1073:
	.loc 1 864 0
	cmpwi 7,20,0
	ble- 7,.L823
	.loc 1 839 0
	mullw 29,3,8
	cmpwi 6,26,0
	cmpwi 1,3,0
	.loc 1 864 0
	li 22,0
	lis 23,.LC12@ha
	lis 24,.LC21@ha
	lis 25,.LC23@ha
	lis 27,.LC47@ha
	.loc 1 868 0
	lis 0,0x4330
	.loc 1 839 0
	slwi 28,3,2
.LVL1074:
.L849:
	.loc 1 865 0
	ble- 6,.L853
	li 30,0
.LVL1075:
.L855:
	.loc 1 866 0
	ble- 1,.L854
	add 4,10,9
	.loc 1 839 0
	addi 31,7,-4
.LBE377:
.LBE376:
.LBB386:
.LBB387:
	mr 11,6
.LBE387:
.LBE386:
.LBB415:
.LBB384:
	.loc 1 868 0
	lfs 0,.LC12@l(23)
	.loc 1 871 0
	lfs 9,.LC47@l(27)
	.loc 1 868 0
	mtctr 3
	.loc 1 871 0
	lfs 10,.LC21@l(24)
	.loc 1 868 0
	lfs 11,.LC23@l(25)
	b .L852
.LVL1076:
.L877:
	fctiwz 13,13
	.loc 1 872 0
	add 11,11,8
.LVL1077:
	.loc 1 868 0
	stfiwx 13,0,31
	.loc 1 866 0
	bdz .L876
.L852:
	.loc 1 868 0
	lwz 5,0(11)
	.loc 1 864 0
	addi 31,31,4
	.loc 1 868 0
	stw 0,40(1)
	stw 5,44(1)
	.loc 1 869 0
	lwzx 5,11,10
	stw 0,48(1)
	stw 5,52(1)
	.loc 1 868 0
	lfd 12,40(1)
	.loc 1 869 0
	lfd 13,48(1)
	.loc 1 870 0
	lwzx 5,11,9
	.loc 1 868 0
	fsub 12,12,0
	.loc 1 869 0
	fsub 13,13,0
	.loc 1 870 0
	stw 0,56(1)
	stw 5,60(1)
	.loc 1 868 0
	fadd 13,12,13
	.loc 1 870 0
	lfd 12,56(1)
	.loc 1 871 0
	lwzx 5,11,4
	.loc 1 870 0
	fsub 12,12,0
	.loc 1 871 0
	stw 0,64(1)
	stw 5,68(1)
	.loc 1 869 0
	fadd 13,13,12
	.loc 1 871 0
	lfd 12,64(1)
	fsub 12,12,0
	.loc 1 870 0
	fadd 13,13,12
	.loc 1 871 0
	fmadd 13,13,9,10
	.loc 1 868 0
	fcmpu 7,13,11
	cror 30,29,30
	bne+ 7,.L877
	fsub 13,13,11
	addi 5,1,108
	.loc 1 872 0
	add 11,11,8
.LVL1078:
	.loc 1 868 0
	fctiwz 13,13
	stfiwx 13,0,5
	lwz 5,108(1)
	addis 5,5,0x8000
	stw 5,0(31)
.LVL1079:
	.loc 1 866 0
	bdnz .L852
.L876:
	.loc 1 839 0
	add 7,7,28
	add 6,6,29
.LVL1080:
.L854:
	.loc 1 865 0
	addi 30,30,1
	.loc 1 875 0
	add 6,6,10
.LVL1081:
	.loc 1 865 0
	cmpw 7,26,30
	bne+ 7,.L855
.LVL1082:
.L853:
	.loc 1 864 0
	addi 22,22,1
	.loc 1 877 0
	add 6,6,9
.LVL1083:
	.loc 1 864 0
	cmpw 7,20,22
	bne+ 7,.L849
.LVL1084:
.L823:
.LBE384:
.LBE415:
	.loc 1 897 0
	lwz 0,196(1)
	lwz 15,124(1)
	mtlr 0
	lwz 16,128(1)
	lwz 17,132(1)
	lwz 18,136(1)
	lwz 19,140(1)
	lwz 20,144(1)
	lwz 21,148(1)
	lwz 22,152(1)
	lwz 23,156(1)
	lwz 24,160(1)
	lwz 25,164(1)
	lwz 26,168(1)
	lwz 27,172(1)
	lwz 28,176(1)
	lwz 29,180(1)
	lwz 30,184(1)
	lwz 31,188(1)
	addi 1,1,192
	.cfi_remember_state
.LCFI126:
	.cfi_def_cfa_offset 0
	.cfi_restore 31
	.cfi_restore 30
	.cfi_restore 29
	.cfi_restore 28
	.cfi_restore 27
	.cfi_restore 26
	.cfi_restore 25
	.cfi_restore 24
	.cfi_restore 23
	.cfi_restore 22
	.cfi_restore 21
	.cfi_restore 20
	.cfi_restore 19
	.cfi_restore 18
	.cfi_restore 17
	.cfi_restore 16
	.cfi_restore 15
	blr
.LVL1085:
.L875:
.LCFI127:
	.cfi_restore_state
.LBB416:
.LBB385:
	.loc 1 880 0
	cmpwi 7,20,0
	ble- 7,.L823
	.loc 1 839 0
	mullw 24,3,8
	.loc 1 882 0
	add 25,10,9
	cmpwi 6,26,0
	cmpwi 1,3,0
	.loc 1 880 0
	li 17,0
	lis 18,.LC12@ha
	lis 19,.LC21@ha
	lis 21,.LC23@ha
	lis 22,.LC47@ha
	neg 30,25
.LBB378:
	.loc 1 885 0
	lis 0,0x4330
.LBE378:
	.loc 1 839 0
	slwi 23,3,2
.LVL1086:
.L848:
	.loc 1 881 0
	ble- 6,.L859
	li 27,0
.LVL1087:
.L861:
	.loc 1 882 0
	ble- 1,.L860
	.loc 1 839 0
	add 5,6,10
	add 12,6,9
	add 11,6,25
	addi 31,7,-4
.LBB379:
	.loc 1 885 0
	lfs 0,.LC12@l(18)
	.loc 1 889 0
	mtctr 3
	lfs 9,.LC47@l(22)
	lfs 10,.LC21@l(19)
	lfs 11,.LC23@l(21)
	b .L858
.LVL1088:
.L879:
	fctiwz 13,13
.LBE379:
	.loc 1 882 0
	add 5,5,8
	add 12,12,8
	add 11,11,8
.LBB380:
	.loc 1 889 0
	stfiwx 13,0,31
.LBE380:
	.loc 1 882 0
	bdz .L878
.L858:
	.loc 1 839 0
	add 4,11,30
.LBB381:
	.loc 1 885 0
	lbzx 28,11,30
	lbz 16,3(4)
.LBE381:
	.loc 1 839 0
	addi 31,31,4
.LBB382:
	.loc 1 885 0
	lbz 15,2(4)
	lbz 29,1(4)
	slwi 16,16,24
	slwi 4,15,16
	stw 0,72(1)
	or 4,16,4
	slwi 29,29,8
	or 4,4,28
	or 4,4,29
	stw 4,76(1)
	.loc 1 886 0
	lbz 16,3(5)
	lbz 4,2(5)
	lbz 28,0(5)
	slwi 16,16,24
	lbz 29,1(5)
	slwi 4,4,16
	or 4,16,4
	stw 0,80(1)
	or 4,4,28
	slwi 29,29,8
	or 4,4,29
	.loc 1 885 0
	lfd 12,72(1)
	.loc 1 886 0
	stw 4,84(1)
	.loc 1 885 0
	fsub 12,12,0
	.loc 1 887 0
	lbz 16,3(12)
	lbz 4,2(12)
	lbz 28,0(12)
	slwi 16,16,24
	lbz 29,1(12)
	slwi 4,4,16
	or 4,16,4
	stw 0,88(1)
	or 4,4,28
	slwi 29,29,8
	or 4,4,29
	.loc 1 886 0
	lfd 13,80(1)
	.loc 1 887 0
	stw 4,92(1)
	.loc 1 886 0
	fsub 13,13,0
	.loc 1 888 0
	lbz 16,3(11)
	lbz 4,2(11)
	lbz 28,0(11)
	slwi 16,16,24
	lbz 29,1(11)
	slwi 4,4,16
	.loc 1 885 0
	fadd 13,12,13
	.loc 1 888 0
	or 4,16,4
	.loc 1 887 0
	lfd 12,88(1)
	.loc 1 888 0
	or 4,4,28
	slwi 29,29,8
	stw 0,96(1)
	.loc 1 887 0
	fsub 12,12,0
	.loc 1 888 0
	or 4,4,29
	stw 4,100(1)
	.loc 1 886 0
	fadd 13,13,12
	.loc 1 888 0
	lfd 12,96(1)
	fsub 12,12,0
	.loc 1 885 0
	fadd 13,13,12
	.loc 1 889 0
	fmadd 13,13,9,10
	fcmpu 7,13,11
	cror 30,29,30
	bne+ 7,.L879
	fsub 13,13,11
	addi 4,1,104
.LBE382:
	.loc 1 882 0
	add 5,5,8
	add 12,12,8
	add 11,11,8
.LBB383:
	.loc 1 889 0
	fctiwz 13,13
	stfiwx 13,0,4
	lwz 4,104(1)
	addis 4,4,0x8000
	stw 4,0(31)
.LBE383:
	.loc 1 882 0
	bdnz .L858
.L878:
	.loc 1 839 0
	add 7,7,23
	add 6,6,24
.L860:
	.loc 1 881 0
	addi 27,27,1
	.loc 1 893 0
	add 6,6,10
.LVL1089:
	.loc 1 881 0
	cmpw 7,26,27
	bne+ 7,.L861
.LVL1090:
.L859:
	.loc 1 880 0
	addi 17,17,1
	.loc 1 895 0
	add 6,6,9
.LVL1091:
	.loc 1 880 0
	cmpw 7,20,17
	bne+ 7,.L848
	b .L823
.LVL1092:
.L824:
.LBE385:
.LBE416:
	.loc 1 851 0 discriminator 1
	cmpwi 7,5,1
	beq- 7,.L880
.LVL1093:
.LBB417:
.LBB412:
.LBB388:
	.loc 1 950 0
	srwi. 22,5,1
	mr 25,7
	mr 24,6
	.loc 1 944 0
	subf 10,10,9
.LVL1094:
	.loc 1 950 0
	ble- 0,.L829
.LBB389:
	.loc 1 839 0
	mullw 17,8,3
	cmpwi 1,3,0
	cmpwi 6,0,0
.LBE389:
	.loc 1 950 0
	mr 25,7
	mr 24,6
	li 23,0
	lis 18,.LC12@ha
	lis 19,.LC21@ha
	lis 20,.LC23@ha
.LBB395:
.LBB390:
	.loc 1 963 0
	lis 0,0x4330
.LBE390:
	.loc 1 839 0
	slwi 21,3,2
.LVL1095:
.L828:
	.loc 1 952 0
	ble- 1,.L844
.LBB391:
	.loc 1 963 0
	lfs 13,.LC12@l(18)
	mtctr 3
	lfs 10,.LC21@l(19)
.LBE391:
	.loc 1 839 0
	addi 31,25,-4
.LBB392:
	.loc 1 963 0
	lfs 11,.LC23@l(20)
.LBE392:
	.loc 1 839 0
	add 4,24,9
.LBE395:
.LBE388:
	mr 11,24
.LVL1096:
.L843:
.LBB400:
.LBB396:
.LBB393:
	.loc 1 955 0
	beq- 6,.L839
	.loc 1 956 0
	lbz 12,3(11)
	.loc 1 961 0
	addi 31,31,4
	.loc 1 956 0
	lbz 27,2(11)
	.loc 1 957 0
	lbz 15,3(4)
	.loc 1 956 0
	slwi 12,12,24
	.loc 1 957 0
	lbz 28,2(4)
	.loc 1 956 0
	slwi 27,27,16
	lbz 16,0(11)
	.loc 1 957 0
	slwi 15,15,24
	.loc 1 956 0
	lbz 29,1(11)
	.loc 1 957 0
	slwi 28,28,16
	lbz 26,0(4)
	.loc 1 956 0
	or 27,12,27
	.loc 1 957 0
	lbz 30,1(4)
	or 28,15,28
	.loc 1 956 0
	or 27,27,16
	slwi 29,29,8
	.loc 1 957 0
	or 28,28,26
	slwi 30,30,8
	.loc 1 956 0
	or 29,27,29
.LVL1097:
	.loc 1 957 0
	or 30,28,30
.LVL1098:
	.loc 1 963 0
	stw 29,28(1)
	stw 0,24(1)
	stw 30,36(1)
	stw 0,32(1)
	lfd 12,24(1)
	lfd 0,32(1)
	fsub 12,12,13
	fsub 0,0,13
	fadd 0,12,0
	fmul 0,0,10
	fcmpu 7,0,11
	cror 30,29,30
	beq- 7,.L841
.L881:
	fctiwz 0,0
	stfiwx 0,0,31
.LVL1099:
.L842:
	.loc 1 965 0
	add 11,11,8
.LVL1100:
.LBE393:
	.loc 1 952 0
	add 4,4,8
	bdnz .L843
	.loc 1 839 0
	add 24,24,17
	add 25,25,21
.LVL1101:
.L844:
.LBE396:
	.loc 1 950 0
	addi 23,23,1
.LBB397:
	.loc 1 968 0
	add 24,24,10
.LVL1102:
.LBE397:
	.loc 1 950 0
	cmpw 7,22,23
.LBB398:
	.loc 1 969 0
	add 24,24,9
.LVL1103:
.LBE398:
	.loc 1 950 0
	bne+ 7,.L828
.LVL1104:
.L829:
	.loc 1 972 0
	mullw 9,9,5
.LVL1105:
	add 6,6,9
.LVL1106:
	cmpw 7,24,6
	bne- 7,.L845
	mullw 8,3,8
.LVL1107:
	mullw 4,22,8
.LVL1108:
.L831:
.LBE400:
	.loc 1 975 0
	add 7,7,4
.LVL1109:
	cmpw 7,25,7
	beq+ 7,.L823
	lis 5,.LANCHOR0@ha
	lis 3,.LC15@ha
.LVL1110:
	la 5,.LANCHOR0@l(5)
	lis 6,.LC45@ha
	la 3,.LC15@l(3)
	li 4,976
	addi 5,5,420
	la 6,.LC45@l(6)
	bl __assert_func
.LVL1111:
.L839:
.LBB401:
.LBB399:
.LBB394:
	.loc 1 960 0
	lwz 29,0(11)
.LVL1112:
	.loc 1 961 0
	addi 31,31,4
	lwz 30,0(4)
.LVL1113:
	.loc 1 963 0
	stw 29,28(1)
	stw 0,24(1)
	stw 30,36(1)
	stw 0,32(1)
	lfd 12,24(1)
	lfd 0,32(1)
	fsub 12,12,13
	fsub 0,0,13
	fadd 0,12,0
	fmul 0,0,10
	fcmpu 7,0,11
	cror 30,29,30
	bne+ 7,.L881
.LVL1114:
.L841:
	fsub 0,0,11
	addi 30,1,112
.LVL1115:
	fctiwz 0,0
	stfiwx 0,0,30
	lwz 30,112(1)
	addis 30,30,0x8000
	stw 30,0(31)
	b .L842
.LVL1116:
.L874:
.LBE394:
.LBE399:
.LBE401:
	.loc 1 918 0
	srwi. 4,4,1
.LVL1117:
	ble- 0,.L882
.LVL1118:
	mullw 23,3,8
	cmpwi 1,3,0
	cmpwi 6,0,0
	mr 25,7
	li 24,0
	lis 19,.LC12@ha
	lis 20,.LC21@ha
	lis 21,.LC23@ha
.LBB402:
.LBB403:
	.loc 1 931 0
	lis 0,0x4330
.LBE403:
	.loc 1 839 0
	slwi 22,3,2
.LVL1119:
.L832:
	.loc 1 920 0
	ble- 1,.L838
.LBB404:
	.loc 1 931 0
	lfs 13,.LC12@l(19)
	mtctr 3
	lfs 10,.LC21@l(20)
.LBE404:
	.loc 1 839 0
	addi 5,25,-4
.LBB405:
	.loc 1 931 0
	lfs 11,.LC23@l(21)
.LBE405:
	.loc 1 839 0
	add 11,6,10
.LBE402:
.LBE412:
.LBE417:
	mr 9,6
.LVL1120:
.L837:
.LBB418:
.LBB413:
.LBB408:
.LBB406:
	.loc 1 923 0
	beq- 6,.L833
	.loc 1 924 0
	lbz 17,3(9)
	.loc 1 929 0
	addi 5,5,4
	.loc 1 924 0
	lbz 28,2(9)
	.loc 1 925 0
	lbz 18,3(11)
	.loc 1 924 0
	slwi 17,17,24
	.loc 1 925 0
	lbz 29,2(11)
	.loc 1 924 0
	slwi 28,28,16
	lbz 26,0(9)
	.loc 1 925 0
	slwi 18,18,24
	.loc 1 924 0
	lbz 30,1(9)
	.loc 1 925 0
	slwi 29,29,16
	lbz 27,0(11)
	.loc 1 924 0
	or 28,17,28
	.loc 1 925 0
	lbz 31,1(11)
	or 29,18,29
	.loc 1 924 0
	or 28,28,26
	slwi 30,30,8
	.loc 1 925 0
	or 29,29,27
	slwi 31,31,8
	.loc 1 924 0
	or 30,28,30
.LVL1121:
	.loc 1 925 0
	or 31,29,31
.LVL1122:
	.loc 1 931 0
	stw 30,12(1)
	stw 0,8(1)
	stw 31,20(1)
	stw 0,16(1)
	lfd 12,8(1)
	lfd 0,16(1)
	fsub 12,12,13
	fsub 0,0,13
	fadd 0,12,0
	fmul 0,0,10
	fcmpu 7,0,11
	cror 30,29,30
	beq- 7,.L835
.L883:
	fctiwz 0,0
	stfiwx 0,0,5
.LVL1123:
.L836:
	.loc 1 933 0
	add 9,9,8
.LVL1124:
.LBE406:
	.loc 1 920 0
	add 11,11,8
	bdnz .L837
	.loc 1 839 0
	add 6,6,23
	add 25,25,22
.LVL1125:
.L838:
.LBE408:
	.loc 1 918 0
	addi 24,24,1
.LBB409:
	.loc 1 936 0
	add 6,6,10
.LVL1126:
.LBE409:
	.loc 1 918 0
	cmpw 7,24,4
	bne+ 7,.L832
	mullw 4,24,23
.LVL1127:
	b .L831
.LVL1128:
.L833:
.LBB410:
.LBB407:
	.loc 1 928 0
	lwz 30,0(9)
.LVL1129:
	.loc 1 929 0
	addi 5,5,4
	lwz 31,0(11)
.LVL1130:
	.loc 1 931 0
	stw 30,12(1)
	stw 0,8(1)
	stw 31,20(1)
	stw 0,16(1)
	lfd 12,8(1)
	lfd 0,16(1)
	fsub 12,12,13
	fsub 0,0,13
	fadd 0,12,0
	fmul 0,0,10
	fcmpu 7,0,11
	cror 30,29,30
	bne+ 7,.L883
.LVL1131:
.L835:
	fsub 0,0,11
	addi 30,1,116
.LVL1132:
	fctiwz 0,0
	stfiwx 0,0,30
	lwz 31,116(1)
.LVL1133:
	addis 31,31,0x8000
	stw 31,0(5)
	b .L836
.LVL1134:
.L845:
.LBE407:
.LBE410:
.LBB411:
	.loc 1 972 0
	lis 5,.LANCHOR0@ha
.LVL1135:
	lis 3,.LC15@ha
.LVL1136:
	la 5,.LANCHOR0@l(5)
	lis 6,.LC44@ha
	la 3,.LC15@l(3)
	li 4,972
	addi 5,5,420
	la 6,.LC44@l(6)
	bl __assert_func
.LVL1137:
.L880:
.LBE411:
.LBE413:
.LBE418:
	.loc 1 851 0 discriminator 2
	lis 5,.LANCHOR0@ha
.LVL1138:
	lis 3,.LC15@ha
.LVL1139:
	la 5,.LANCHOR0@l(5)
	lis 6,.LC43@ha
.LVL1140:
	la 3,.LC15@l(3)
	li 4,851
.LVL1141:
	addi 5,5,404
	la 6,.LC43@l(6)
	bl __assert_func
.LVL1142:
.L882:
.LBB419:
.LBB414:
	.loc 1 918 0
	mullw 8,3,8
.LVL1143:
	mr 25,7
	mullw 4,4,8
.LVL1144:
	b .L831
.LBE414:
.LBE419:
	.cfi_endproc
.LFE13:
	.size	halveImage_uint, .-halveImage_uint
	.align 2
	.type	scale_internal_uint, @function
scale_internal_uint:
.LFB24:
	.loc 1 2360 0
	.cfi_startproc
.LVL1145:
	.loc 1 2381 0
	slwi 11,7,1
	.loc 1 2360 0
	mfcr 12
	.loc 1 2381 0
	cmpw 7,11,4
	.loc 1 2360 0
	mflr 0
	stwu 1,-520(1)
.LCFI128:
	.cfi_def_cfa_offset 520
	.cfi_register 65, 0
	.cfi_register 70, 12
	mr 11,5
	stw 0,524(1)
	mr 0,4
	.cfi_offset 65, 4
	stw 25,460(1)
	mr 25,9
	.cfi_offset 25, -60
	stw 26,464(1)
	stw 27,468(1)
	stw 28,472(1)
	mr 28,7
	.cfi_offset 28, -48
	.cfi_offset 27, -52
	.cfi_offset 26, -56
	stw 29,476(1)
	mr 29,6
	.cfi_offset 29, -44
	stw 30,480(1)
	mr 30,3
	.cfi_offset 30, -40
	stw 31,484(1)
	stfd 28,488(1)
	stfd 29,496(1)
	stfd 30,504(1)
	stfd 31,512(1)
	stw 14,416(1)
	stw 15,420(1)
	stw 16,424(1)
	stw 17,428(1)
	stw 18,432(1)
	stw 19,436(1)
	stw 20,440(1)
	stw 21,444(1)
	stw 22,448(1)
	stw 23,452(1)
	stw 24,456(1)
	stw 12,412(1)
	.loc 1 2360 0
	stw 8,352(1)
	lwz 27,528(1)
	lwz 31,532(1)
	.cfi_offset 70, -108
	.cfi_offset 24, -64
	.cfi_offset 23, -68
	.cfi_offset 22, -72
	.cfi_offset 21, -76
	.cfi_offset 20, -80
	.cfi_offset 19, -84
	.cfi_offset 18, -88
	.cfi_offset 17, -92
	.cfi_offset 16, -96
	.cfi_offset 15, -100
	.cfi_offset 14, -104
	.cfi_offset 63, -8
	.cfi_offset 62, -16
	.cfi_offset 61, -24
	.cfi_offset 60, -32
	.cfi_offset 31, -36
	lwz 26,536(1)
	.loc 1 2381 0
	beq- 7,.L1019
.LVL1146:
.L885:
	.loc 1 2387 0
	lwz 7,352(1)
.LVL1147:
	lis 24,0x4330
	xoris 11,11,0x8000
	stw 24,24(1)
	xoris 9,7,0x8000
	stw 11,28(1)
	stw 9,36(1)
	lis 9,.LC5@ha
	stw 24,32(1)
	.loc 1 2388 0
	xoris 0,0,0x8000
.LVL1148:
	.loc 1 2387 0
	lfs 31,.LC5@l(9)
	.loc 1 2388 0
	xoris 9,28,0x8000
	.loc 1 2387 0
	lfd 30,24(1)
	lfd 13,32(1)
	.loc 1 2388 0
	stw 0,44(1)
	.loc 1 2387 0
	fsub 30,30,31
	.loc 1 2388 0
	stw 9,52(1)
	.loc 1 2387 0
	fsub 13,13,31
	.loc 1 2388 0
	stw 24,40(1)
	stw 24,48(1)
	.loc 1 2387 0
	frsp 30,30
	.loc 1 2388 0
	lfd 29,40(1)
	.loc 1 2387 0
	frsp 13,13
	.loc 1 2388 0
	lfd 0,48(1)
	fsub 29,29,31
	.loc 1 2389 0
	stw 10,396(1)
	.loc 1 2388 0
	fsub 0,0,31
	.loc 1 2387 0
	fdivs 30,30,13
.LVL1149:
	.loc 1 2388 0
	frsp 0,0
	frsp 29,29
	.loc 1 2389 0
	fmr 1,30
	.loc 1 2388 0
	fdivs 29,29,0
.LVL1150:
	.loc 1 2389 0
	bl floor
.LVL1151:
	fmr 28,1
.LVL1152:
	.loc 1 2391 0
	fmr 1,29
.LVL1153:
	bl floor
	addi 8,1,336
	fctiwz 1,1
	.loc 1 2392 0
	stw 24,56(1)
	.loc 1 2394 0
	fmuls 8,29,30
	.loc 1 2391 0
	stfiwx 1,0,8
	lwz 0,336(1)
	.loc 1 2401 0
	lwz 11,352(1)
	.loc 1 2391 0
	stw 0,344(1)
.LVL1154:
	.loc 1 2392 0
	xoris 0,0,0x8000
	stw 0,60(1)
	.loc 1 2401 0
	cmpwi 7,11,0
	lwz 10,396(1)
	.loc 1 2392 0
	lfd 0,56(1)
	fsub 0,0,31
	frsp 0,0
	fsubs 29,29,0
.LVL1155:
	.loc 1 2401 0
	ble- 7,.L884
	.loc 1 2389 0
	fctiwz 28,28
.LVL1156:
	addi 4,1,332
	.loc 1 2390 0
	stw 24,64(1)
	.loc 1 2397 0
	lis 7,.LC24@ha
	.loc 1 2354 0
	mullw 0,28,30
	.loc 1 2397 0
	lfs 7,.LC24@l(7)
	.loc 1 2389 0
	stfiwx 28,0,4
	.loc 1 2354 0
	slwi 23,30,2
	stfs 7,400(1)
	addi 4,1,4
	.loc 1 2389 0
	lwz 6,332(1)
	.loc 1 2354 0
	add 4,4,23
	mullw 20,10,30
	slwi 0,0,2
	.loc 1 2390 0
	xoris 9,6,0x8000
	.loc 1 2389 0
	stw 6,360(1)
	.loc 1 2390 0
	stw 9,68(1)
	.loc 1 2401 0
	li 9,0
	lis 18,.LC3@ha
	.loc 1 2354 0
	stw 25,364(1)
	.loc 1 2390 0
	lfd 0,64(1)
	cmpwi 2,28,0
	.loc 1 2401 0
	stw 9,368(1)
	cmpwi 1,30,0
	.loc 1 2390 0
	fsub 0,0,31
	.loc 1 2354 0
	lwz 19,400(1)
	cmpwi 7,26,0
	stw 4,356(1)
	stw 28,384(1)
	.loc 1 2398 0
	mr 5,6
	.loc 1 2390 0
	frsp 0,0
	.loc 1 2354 0
	stw 0,388(1)
	.loc 1 2396 0
	li 8,0
.LVL1157:
	la 18,.LC3@l(18)
	lis 11,.LC12@ha
	.loc 1 2599 0
	lis 0,0x4330
	.loc 1 2390 0
	fsubs 30,30,0
.LVL1158:
	.loc 1 2399 0
	fmr 9,30
.LVL1159:
.L887:
	.loc 1 2407 0 discriminator 1
	ble- 2,.L982
	.loc 1 2458 0
	mullw 4,5,27
	.loc 1 2491 0
	addi 6,8,1
	stw 6,340(1)
	.loc 1 2354 0
	addi 7,5,-1
	subf 7,8,7
	lwz 17,364(1)
	cmpw 3,5,8
	fmr 11,29
	.loc 1 2420 0
	mullw 9,8,27
	.loc 1 2458 0
	stw 4,376(1)
	.loc 1 2590 0
	lwz 4,340(1)
	.loc 1 2354 0
	lis 6,.LC24@ha
	lfs 0,.LC24@l(6)
	li 22,0
	lwz 6,340(1)
	li 15,0
	.loc 1 2590 0
	mullw 4,27,4
	.loc 1 2420 0
	stw 9,348(1)
	.loc 1 2354 0
	lwz 9,344(1)
	cmpw 4,6,5
	.loc 1 2413 0
	stw 19,20(1)
	stw 19,16(1)
	.loc 1 2417 0
	cmpw 6,9,22
	.loc 1 2354 0
	mullw 7,7,27
	.loc 1 2590 0
	stw 4,380(1)
	.loc 1 2413 0
	stw 19,12(1)
	stw 19,8(1)
	.loc 1 2354 0
	stw 7,392(1)
	.loc 1 2416 0
	mullw 16,22,31
.LVL1160:
	.loc 1 2417 0
	bgt- 3,.L1020
.LVL1161:
.L888:
	.loc 1 2540 0
	ble- 6,.L941
	.loc 1 2542 0
	lfs 13,0(18)
	.loc 1 2541 0
	fsubs 12,9,7
.LVL1162:
	.loc 1 2544 0
	lwz 7,348(1)
	.loc 1 2542 0
	fsubs 0,13,0
	.loc 1 2544 0
	add 24,7,16
	add 24,29,24
	.loc 1 2542 0
	fmuls 13,0,12
.LVL1163:
	.loc 1 2545 0
	ble- 1,.L942
	.loc 1 2354 0
	lis 8,.LC24@ha
	.loc 1 2545 0
	addi 6,1,8
	.loc 1 2354 0
	lfs 0,.LC24@l(8)
	.loc 1 2545 0
	mr 7,24
	la 8,.LC12@l(11)
	.loc 1 2547 0
	beq- 7,.L943
.LVL1164:
.L1021:
	.loc 1 2548 0
	lbz 26,3(7)
	lbz 28,2(7)
	lbz 3,0(7)
	slwi 26,26,24
	lbz 4,1(7)
	slwi 28,28,16
	or 28,26,28
	stw 0,248(1)
	or 3,28,3
	slwi 4,4,8
	or 4,3,4
	lfs 10,0(8)
	stw 4,252(1)
	.loc 1 2546 0
	add 7,7,10
	.loc 1 2545 0
	lwz 4,356(1)
	.loc 1 2548 0
	lfd 6,248(1)
	.loc 1 2545 0
	cmpw 6,6,4
	.loc 1 2548 0
	fsub 10,6,10
	frsp 10,10
	fmadds 0,10,13,0
	stfs 0,0(6)
	.loc 1 2545 0
	beq- 6,.L942
.L1022:
	.loc 1 2546 0
	lfsu 0,4(6)
	.loc 1 2547 0
	bne- 7,.L1021
.L943:
	.loc 1 2550 0
	lwz 4,0(7)
	.loc 1 2546 0
	add 7,7,10
	.loc 1 2550 0
	stw 0,256(1)
	stw 4,260(1)
	lfs 10,0(8)
	lfd 6,256(1)
	.loc 1 2545 0
	lwz 4,356(1)
	.loc 1 2550 0
	fsub 10,6,10
	.loc 1 2545 0
	cmpw 6,6,4
	.loc 1 2550 0
	frsp 10,10
	fmadds 0,10,13,0
	stfs 0,0(6)
	.loc 1 2545 0
	bne+ 6,.L1022
.L942:
	.loc 1 2553 0
	addi 25,22,1
.LVL1165:
	.loc 1 2544 0
	mr 21,24
	.loc 1 2553 0
	cmpw 6,25,9
	bge- 6,.L947
.LVL1166:
.L990:
	.loc 1 2554 0
	add 21,21,31
.LVL1167:
	.loc 1 2555 0
	ble- 1,.L948
	.loc 1 2561 0
	mtctr 30
	.loc 1 2555 0
	addi 7,1,8
	.loc 1 2554 0
	mr 8,21
	la 6,.LC12@l(11)
.LVL1168:
.L951:
	.loc 1 2557 0
	beq- 7,.L949
	.loc 1 2559 0
	lbz 26,3(8)
	lbz 28,2(8)
	lbz 3,0(8)
	slwi 26,26,24
	lbz 4,1(8)
	slwi 28,28,16
	or 28,26,28
	stw 0,264(1)
	or 3,28,3
	slwi 4,4,8
	or 4,3,4
	lfs 13,0(6)
	stw 4,268(1)
	lfd 10,264(1)
	.loc 1 2558 0
	lfs 0,0(7)
	.loc 1 2559 0
	fsub 13,10,13
	frsp 13,13
	.loc 1 2558 0
	fmadds 0,13,12,0
	stfs 0,0(7)
.L950:
	.loc 1 2556 0
	add 8,8,10
.LVL1169:
	addi 7,7,4
	.loc 1 2555 0
	bdnz .L951
.LVL1170:
.L948:
	.loc 1 2553 0
	addi 25,25,1
.LVL1171:
	cmpw 6,25,9
	bne+ 6,.L990
	.loc 1 2354 0
	addi 8,9,-1
	subf 8,22,8
	mullw 8,8,31
	.loc 1 2553 0
	add 24,24,8
.L947:
.LVL1172:
	.loc 1 2566 0
	fmuls 12,12,11
.LVL1173:
	.loc 1 2567 0
	ble- 1,.L937
	.loc 1 2572 0
	mtctr 30
	.loc 1 2565 0
	addi 7,1,8
	.loc 1 2567 0
	add 24,24,31
	la 8,.LC12@l(11)
.LVL1174:
.L955:
	.loc 1 2569 0
	beq- 7,.L953
	.loc 1 2570 0
	lbz 28,3(24)
	lbz 3,2(24)
	lbz 4,0(24)
	slwi 28,28,24
	lbz 6,1(24)
	slwi 3,3,16
	or 3,28,3
	stw 0,280(1)
	or 4,3,4
	slwi 6,6,8
	or 6,4,6
	lfs 13,0(8)
	stw 6,284(1)
	lfd 10,280(1)
	lfs 0,0(7)
	fsub 13,10,13
	frsp 13,13
	fmadds 0,13,12,0
	stfs 0,0(7)
.L954:
	.loc 1 2568 0
	add 24,24,10
.LVL1175:
	addi 7,7,4
	.loc 1 2567 0
	bdnz .L955
.LVL1176:
.L937:
	.loc 1 2591 0
	bge- 4,.L918
	.loc 1 2589 0
	lwz 6,380(1)
	add 16,31,16
.LVL1177:
	.loc 1 2354 0
	lwz 21,340(1)
	.loc 1 2589 0
	add 16,16,6
	addi 6,22,1
	cmpw 0,6,9
	add 16,29,16
.LVL1178:
.L969:
	.loc 1 2593 0
	bge- 0,.L963
	.loc 1 2593 0 is_stmt 0 discriminator 1
	mr 24,6
	mr 22,16
.LVL1179:
.L967:
	.loc 1 2594 0 is_stmt 1 discriminator 1
	ble- 1,.L968
.LVL1180:
	.loc 1 2599 0
	mtctr 30
	.loc 1 2594 0
	addi 7,1,8
	mr 8,22
	la 4,.LC12@l(11)
.LVL1181:
.L966:
	.loc 1 2596 0
	beq- 7,.L964
	.loc 1 2597 0
	lbz 25,3(8)
	lbz 26,2(8)
	lbz 28,0(8)
	slwi 25,25,24
	lbz 3,1(8)
	slwi 26,26,16
	or 26,25,26
	stw 0,312(1)
	or 26,26,28
	slwi 3,3,8
	or 26,26,3
	lfs 0,0(4)
	stw 26,316(1)
	lfd 12,312(1)
	lfs 13,0(7)
	fsub 0,12,0
	frsp 0,0
	fadds 0,13,0
	stfs 0,0(7)
.L965:
	.loc 1 2595 0
	add 8,8,10
.LVL1182:
	addi 7,7,4
	.loc 1 2594 0
	bdnz .L966
.LVL1183:
.L968:
	.loc 1 2593 0
	addi 24,24,1
	.loc 1 2602 0
	add 22,22,31
.LVL1184:
	.loc 1 2593 0
	cmpw 6,24,9
	bne+ 6,.L967
.LVL1185:
.L963:
	.loc 1 2591 0
	addi 21,21,1
	.loc 1 2604 0
	add 16,16,27
.LVL1186:
	.loc 1 2591 0
	cmpw 6,21,5
	blt+ 6,.L969
.LVL1187:
.L918:
	.loc 1 2608 0
	ble- 1,.L970
.LBB420:
	.loc 1 2611 0
	lis 7,.LC48@ha
.LBE420:
	.loc 1 2608 0
	li 8,0
.LBB421:
	.loc 1 2611 0
	lfs 13,.LC48@l(7)
	addi 7,1,8
.LVL1188:
.L976:
	.loc 1 2610 0
	lfsx 0,7,8
	fdivs 0,0,8
.LVL1189:
	.loc 1 2611 0
	fcmpu 6,0,13
	cror 26,25,26
	bne- 6,.L1011
	.loc 1 2612 0
	li 4,-1
	stwx 4,17,8
.LVL1190:
.L973:
	.loc 1 2614 0
	addi 8,8,4
.LBE421:
	.loc 1 2608 0
	cmpw 6,8,23
	bne+ 6,.L976
.L970:
.LVL1191:
	.loc 1 2619 0
	fadds 12,11,29
	.loc 1 2620 0
	lfs 0,0(18)
	.loc 1 2618 0
	lwz 6,344(1)
	.loc 1 2620 0
	fcmpu 6,12,0
	.loc 1 2618 0
	add 8,9,6
.LVL1192:
	.loc 1 2620 0
	bng- 6,.L977
	.loc 1 2621 0
	fsubs 12,12,0
.LVL1193:
	.loc 1 2622 0
	addi 8,8,1
.LVL1194:
.L977:
	.loc 1 2407 0
	lwz 7,384(1)
	addi 15,15,1
.LVL1195:
	add 17,17,23
	cmpw 6,15,7
	beq- 6,.L982
	mr 22,9
	mr 9,8
.LVL1196:
	fmr 0,11
	.loc 1 2413 0
	stw 19,20(1)
	.loc 1 2407 0
	fmr 11,12
.LVL1197:
	.loc 1 2413 0
	stw 19,16(1)
	stw 19,12(1)
	.loc 1 2416 0
	mullw 16,22,31
.LVL1198:
	.loc 1 2413 0
	stw 19,8(1)
	.loc 1 2417 0
	cmpw 6,9,22
	ble- 3,.L888
.LVL1199:
.L1020:
	.loc 1 2417 0 is_stmt 0 discriminator 1
	ble- 6,.L889
	.loc 1 2419 0 is_stmt 1
	lfs 13,0(18)
	.loc 1 2420 0
	lwz 6,348(1)
	.loc 1 2419 0
	fsubs 12,13,7
.LVL1200:
	.loc 1 2421 0
	fsubs 13,13,0
	.loc 1 2420 0
	add 12,16,6
	add 12,29,12
.LVL1201:
	.loc 1 2421 0
	fmuls 10,13,12
.LVL1202:
	.loc 1 2422 0
	ble- 1,.L890
	.loc 1 2354 0
	lis 8,.LC24@ha
	.loc 1 2422 0
	addi 6,1,8
	.loc 1 2354 0
	lfs 0,.LC24@l(8)
	.loc 1 2422 0
	mr 7,12
	la 8,.LC12@l(11)
	lwz 4,356(1)
	.loc 1 2424 0
	beq- 7,.L891
.LVL1203:
.L1023:
	.loc 1 2425 0
	lbz 25,3(7)
	.loc 1 2422 0
	cmpw 6,6,4
	.loc 1 2425 0
	lbz 26,2(7)
	lbz 28,0(7)
	slwi 25,25,24
	lbz 3,1(7)
	slwi 26,26,16
	or 26,25,26
	stw 0,72(1)
	or 28,26,28
	slwi 3,3,8
	or 3,28,3
	lfs 6,0(8)
	stw 3,76(1)
	.loc 1 2423 0
	add 7,7,10
	.loc 1 2425 0
	lfd 5,72(1)
	fsub 6,5,6
	frsp 6,6
	fmadds 0,6,10,0
	stfs 0,0(6)
	.loc 1 2422 0
	beq- 6,.L890
.L1024:
	.loc 1 2423 0
	lfsu 0,4(6)
	.loc 1 2424 0
	bne- 7,.L1023
.L891:
	.loc 1 2427 0
	lwz 3,0(7)
	.loc 1 2422 0
	cmpw 6,6,4
	.loc 1 2427 0
	stw 0,80(1)
	.loc 1 2423 0
	add 7,7,10
	.loc 1 2427 0
	stw 3,84(1)
	lfs 6,0(8)
	lfd 5,80(1)
	fsub 6,5,6
	frsp 6,6
	fmadds 0,6,10,0
	stfs 0,0(6)
	.loc 1 2422 0
	bne+ 6,.L1024
.L890:
.LVL1204:
	.loc 1 2431 0
	addi 6,22,1
.LVL1205:
	.loc 1 2420 0
	mr 8,12
	.loc 1 2431 0
	cmpw 0,6,9
	mr 24,6
	.loc 1 2420 0
	mr 21,12
	.loc 1 2431 0
	bge- 0,.L895
.LVL1206:
.L989:
	.loc 1 2432 0
	add 21,21,31
.LVL1207:
	.loc 1 2433 0
	ble- 1,.L896
	.loc 1 2439 0
	mtctr 30
	.loc 1 2433 0
	addi 7,1,8
	.loc 1 2432 0
	mr 8,21
	la 4,.LC12@l(11)
.LVL1208:
.L899:
	.loc 1 2435 0
	beq- 7,.L897
	.loc 1 2437 0
	lbz 25,3(8)
	lbz 26,2(8)
	lbz 28,0(8)
	slwi 25,25,24
	lbz 3,1(8)
	slwi 26,26,16
	or 26,25,26
	stw 0,88(1)
	or 28,26,28
	slwi 3,3,8
	or 3,28,3
	lfs 10,0(4)
	stw 3,92(1)
	lfd 6,88(1)
	.loc 1 2436 0
	lfs 0,0(7)
	.loc 1 2437 0
	fsub 10,6,10
	frsp 10,10
	.loc 1 2436 0
	fmadds 0,10,12,0
	stfs 0,0(7)
.L898:
	.loc 1 2434 0
	add 8,8,10
.LVL1209:
	addi 7,7,4
	.loc 1 2433 0
	bdnz .L899
.LVL1210:
.L896:
	.loc 1 2431 0
	addi 24,24,1
.LVL1211:
	cmpw 6,24,9
	bne+ 6,.L989
	.loc 1 2354 0
	addi 8,9,-1
	subf 8,22,8
	mullw 8,8,31
	.loc 1 2431 0
	add 8,12,8
.L895:
	.loc 1 2443 0
	add 8,8,31
	.loc 1 2445 0
	fmuls 12,12,11
.LVL1212:
	.loc 1 2443 0
	stw 8,372(1)
.LVL1213:
	.loc 1 2446 0
	ble- 1,.L901
	addi 4,1,8
	.loc 1 2451 0
	mtctr 30
	.loc 1 2446 0
	mr 7,8
	mr 3,4
	la 8,.LC12@l(11)
.LVL1214:
.L904:
	.loc 1 2448 0
	beq- 7,.L902
	.loc 1 2449 0
	lbz 24,3(7)
	lbz 25,2(7)
	lbz 26,0(7)
	slwi 24,24,24
	lbz 28,1(7)
	slwi 25,25,16
	or 25,24,25
	stw 0,104(1)
	or 26,25,26
	slwi 28,28,8
	or 28,26,28
	lfs 10,0(8)
	stw 28,108(1)
	lfd 6,104(1)
	lfs 0,0(3)
	fsub 10,6,10
	frsp 10,10
	fmadds 0,10,12,0
	stfs 0,0(3)
.L903:
	.loc 1 2447 0
	add 7,7,10
.LVL1215:
	addi 3,3,4
	.loc 1 2446 0
	bdnz .L904
.LVL1216:
	.loc 1 2458 0
	lwz 7,376(1)
.LVL1217:
	.loc 1 2457 0
	fmuls 0,9,13
.LVL1218:
	.loc 1 2464 0
	mtctr 30
	.loc 1 2458 0
	add 14,16,7
	add 14,29,14
.LVL1219:
	mr 7,14
.LVL1220:
.L907:
	.loc 1 2461 0
	beq- 7,.L905
	.loc 1 2462 0
	lbz 25,3(7)
	lbz 26,2(7)
	lbz 28,0(7)
	slwi 25,25,24
	lbz 3,1(7)
	slwi 26,26,16
	or 26,25,26
	stw 0,120(1)
	or 28,26,28
	slwi 3,3,8
	or 3,28,3
	lfs 10,0(8)
	stw 3,124(1)
	lfd 6,120(1)
	lfs 12,0(4)
	fsub 10,6,10
	frsp 10,10
	fmadds 12,10,0,12
	stfs 12,0(4)
.L906:
	.loc 1 2460 0
	add 7,7,10
.LVL1221:
	addi 4,4,4
	.loc 1 2459 0
	bdnz .L907
.LVL1222:
.L983:
	.loc 1 2467 0 discriminator 1
	bge- 0,.L908
	.loc 1 2467 0 is_stmt 0
	mr 24,6
	mr 21,14
.LVL1223:
.L913:
	.loc 1 2468 0 is_stmt 1
	add 21,21,31
.LVL1224:
	.loc 1 2469 0
	ble- 1,.L909
	.loc 1 2475 0
	mtctr 30
	.loc 1 2469 0
	addi 7,1,8
	.loc 1 2468 0
	mr 8,21
	la 4,.LC12@l(11)
.LVL1225:
.L912:
	.loc 1 2471 0
	beq- 7,.L910
	.loc 1 2473 0
	lbz 25,3(8)
	lbz 26,2(8)
	lbz 28,0(8)
	slwi 25,25,24
	lbz 3,1(8)
	slwi 26,26,16
	or 26,25,26
	stw 0,136(1)
	or 28,26,28
	slwi 3,3,8
	or 3,28,3
	lfs 12,0(4)
	stw 3,140(1)
	lfd 10,136(1)
	.loc 1 2472 0
	lfs 0,0(7)
	.loc 1 2473 0
	fsub 12,10,12
	frsp 12,12
	.loc 1 2472 0
	fmadds 0,9,12,0
	stfs 0,0(7)
.L911:
	.loc 1 2470 0
	add 8,8,10
.LVL1226:
	addi 7,7,4
	.loc 1 2469 0
	bdnz .L912
.LVL1227:
.L909:
	.loc 1 2467 0
	addi 24,24,1
.LVL1228:
	cmpw 6,24,9
	bne+ 6,.L913
	.loc 1 2354 0
	addi 8,9,-1
	subf 8,22,8
	mullw 8,31,8
	.loc 1 2467 0
	add 14,14,8
.LVL1229:
.L908:
	.loc 1 2480 0
	fmuls 0,11,9
.LVL1230:
	.loc 1 2481 0
	ble- 1,.L914
	.loc 1 2486 0
	mtctr 30
	.loc 1 2479 0
	addi 7,1,8
	.loc 1 2481 0
	add 14,14,31
	la 8,.LC12@l(11)
.LVL1231:
.L917:
	.loc 1 2483 0
	beq- 7,.L915
	.loc 1 2484 0
	lbz 26,3(14)
	lbz 28,2(14)
	lbz 3,0(14)
	slwi 26,26,24
	lbz 4,1(14)
	slwi 28,28,16
	or 28,26,28
	stw 0,152(1)
	or 3,28,3
	slwi 4,4,8
	or 4,3,4
	lfs 10,0(8)
	stw 4,156(1)
	lfd 6,152(1)
	lfs 12,0(7)
	fsub 10,6,10
	frsp 10,10
	fmadds 12,10,0,12
	stfs 12,0(7)
.L916:
	.loc 1 2482 0
	add 14,14,10
.LVL1232:
	addi 7,7,4
	.loc 1 2481 0
	bdnz .L917
.LVL1233:
.L914:
	.loc 1 2491 0
	bge- 4,.L918
	.loc 1 2444 0
	lwz 28,372(1)
	.loc 1 2491 0
	lwz 21,340(1)
.LVL1234:
.L923:
	.loc 1 2492 0
	add 12,12,27
.LVL1235:
	.loc 1 2493 0
	add 28,28,27
.LVL1236:
	.loc 1 2494 0
	ble- 1,.L919
	.loc 1 2502 0
	mtctr 30
	.loc 1 2494 0
	addi 4,1,8
	.loc 1 2493 0
	mr 7,28
	.loc 1 2492 0
	mr 8,12
	la 3,.LC12@l(11)
.LVL1237:
.L922:
	.loc 1 2496 0
	beq- 7,.L920
	.loc 1 2499 0
	lbz 22,3(7)
	lbz 24,2(7)
	lbz 25,0(7)
	slwi 22,22,24
	lbz 26,1(7)
	slwi 24,24,16
	or 24,22,24
	stw 0,168(1)
	or 25,24,25
	slwi 26,26,8
	or 26,25,26
	lfs 0,0(3)
	stw 26,172(1)
	.loc 1 2498 0
	lbz 22,3(8)
	lbz 24,2(8)
	lbz 25,0(8)
	slwi 22,22,24
	lbz 26,1(8)
	slwi 24,24,16
	.loc 1 2499 0
	lfd 10,168(1)
	.loc 1 2498 0
	or 24,22,24
	or 25,24,25
	slwi 26,26,8
	.loc 1 2499 0
	fsub 10,10,0
	.loc 1 2498 0
	or 26,25,26
	stw 26,180(1)
	stw 0,176(1)
	.loc 1 2499 0
	frsp 10,10
	.loc 1 2497 0
	lfs 12,0(4)
	.loc 1 2498 0
	lfd 6,176(1)
.L1017:
	.loc 1 2501 0
	fsub 0,6,0
	.loc 1 2495 0
	add 8,8,10
.LVL1238:
	.loc 1 2502 0
	fmuls 10,10,11
	.loc 1 2495 0
	add 7,7,10
.LVL1239:
	.loc 1 2501 0
	frsp 0,0
	.loc 1 2502 0
	fmadds 0,13,0,10
	.loc 1 2501 0
	fadds 0,12,0
	stfs 0,0(4)
.LVL1240:
	.loc 1 2495 0
	addi 4,4,4
	.loc 1 2494 0
	bdnz .L922
	.loc 1 2354 0
	add 12,12,20
	add 28,28,20
.LVL1241:
.L919:
	.loc 1 2491 0
	addi 21,21,1
.LVL1242:
	cmpw 6,21,5
	bne+ 6,.L923
	.loc 1 2589 0
	lwz 8,380(1)
	.loc 1 2354 0
	lwz 21,340(1)
.LVL1243:
	.loc 1 2589 0
	add 16,16,8
.LVL1244:
	add 16,16,31
	add 16,29,16
.LVL1245:
	b .L969
.LVL1246:
.L889:
	.loc 1 2508 0
	lfs 12,0(18)
	.loc 1 2507 0
	fsubs 0,11,0
.LVL1247:
	.loc 1 2509 0
	lwz 8,348(1)
	.loc 1 2508 0
	fsubs 12,12,7
	.loc 1 2509 0
	add 24,8,16
	add 24,29,24
	.loc 1 2508 0
	fmuls 12,12,0
.LVL1248:
	.loc 1 2510 0
	ble- 1,.L925
	.loc 1 2354 0
	lis 4,.LC24@ha
	.loc 1 2510 0
	addi 6,1,8
	.loc 1 2354 0
	lfs 13,.LC24@l(4)
	.loc 1 2510 0
	mr 7,24
	la 8,.LC12@l(11)
	lwz 4,356(1)
	.loc 1 2512 0
	beq- 7,.L926
.LVL1249:
.L1025:
	.loc 1 2513 0
	lbz 25,3(7)
	.loc 1 2510 0
	cmpw 6,6,4
	.loc 1 2513 0
	lbz 26,2(7)
	lbz 28,0(7)
	slwi 25,25,24
	lbz 3,1(7)
	slwi 26,26,16
	or 26,25,26
	stw 0,200(1)
	or 28,26,28
	slwi 3,3,8
	or 3,28,3
	lfs 10,0(8)
	stw 3,204(1)
	.loc 1 2511 0
	add 7,7,10
	.loc 1 2513 0
	lfd 6,200(1)
	fsub 10,6,10
	frsp 10,10
	fmadds 13,10,12,13
	stfs 13,0(6)
	.loc 1 2510 0
	beq- 6,.L925
.L1026:
	.loc 1 2511 0
	lfsu 13,4(6)
	.loc 1 2512 0
	bne- 7,.L1025
.L926:
	.loc 1 2515 0
	lwz 3,0(7)
	.loc 1 2510 0
	cmpw 6,6,4
	.loc 1 2515 0
	stw 0,208(1)
	.loc 1 2511 0
	add 7,7,10
	.loc 1 2515 0
	stw 3,212(1)
	lfs 10,0(8)
	lfd 6,208(1)
	fsub 10,6,10
	frsp 10,10
	fmadds 13,10,12,13
	stfs 13,0(6)
	.loc 1 2510 0
	bne+ 6,.L1026
.L925:
	.loc 1 2518 0
	bge- 4,.L930
	lwz 25,340(1)
	.loc 1 2509 0
	mr 21,24
.LVL1250:
.L935:
	.loc 1 2519 0
	add 21,21,27
.LVL1251:
	.loc 1 2520 0
	ble- 1,.L931
	.loc 1 2526 0
	mtctr 30
	.loc 1 2520 0
	addi 7,1,8
	.loc 1 2519 0
	mr 8,21
	la 6,.LC12@l(11)
.LVL1252:
.L934:
	.loc 1 2522 0
	beq- 7,.L932
	.loc 1 2524 0
	lbz 26,3(8)
	lbz 28,2(8)
	lbz 3,0(8)
	slwi 26,26,24
	lbz 4,1(8)
	slwi 28,28,16
	or 28,26,28
	stw 0,216(1)
	or 3,28,3
	slwi 4,4,8
	or 4,3,4
	lfs 12,0(6)
	stw 4,220(1)
	lfd 10,216(1)
	.loc 1 2523 0
	lfs 13,0(7)
	.loc 1 2524 0
	fsub 12,10,12
	frsp 12,12
	.loc 1 2523 0
	fmadds 13,12,0,13
	stfs 13,0(7)
.L933:
	.loc 1 2521 0
	add 8,8,10
.LVL1253:
	addi 7,7,4
	.loc 1 2520 0
	bdnz .L934
.LVL1254:
.L931:
	.loc 1 2518 0
	addi 25,25,1
.LVL1255:
	cmpw 6,25,5
	bne+ 6,.L935
	lwz 6,392(1)
	add 24,24,6
.LVL1256:
.L930:
	.loc 1 2530 0
	fmuls 0,0,9
.LVL1257:
	.loc 1 2532 0
	ble- 1,.L937
	.loc 1 2531 0
	addi 7,1,8
	.loc 1 2532 0
	add 24,24,27
	la 8,.LC12@l(11)
	.loc 1 2537 0
	mtctr 30
	.loc 1 2534 0
	beq- 7,.L938
.LVL1258:
.L1027:
	.loc 1 2535 0
	lbz 28,3(24)
	lbz 3,2(24)
	lbz 4,0(24)
	slwi 28,28,24
	lbz 6,1(24)
	slwi 3,3,16
	or 3,28,3
	stw 0,232(1)
	or 4,3,4
	slwi 6,6,8
	or 6,4,6
	lfs 12,0(8)
	stw 6,236(1)
	lfd 10,232(1)
	lfs 13,0(7)
	fsub 12,10,12
	frsp 12,12
	fmadds 13,12,0,13
	stfs 13,0(7)
.L939:
	.loc 1 2533 0
	add 24,24,10
.LVL1259:
	addi 7,7,4
	.loc 1 2532 0
	bdz .L937
	.loc 1 2534 0
	bne- 7,.L1027
.LVL1260:
.L938:
	.loc 1 2537 0
	lwz 6,0(24)
	stw 0,240(1)
	stw 6,244(1)
	lfs 12,0(8)
	lfd 10,240(1)
	lfs 13,0(7)
	fsub 12,10,12
	frsp 12,12
	fmadds 13,12,0,13
	stfs 13,0(7)
	b .L939
.LVL1261:
.L964:
	.loc 1 2599 0
	lwz 3,0(8)
	stw 0,320(1)
	stw 3,324(1)
	lfs 0,0(4)
	lfd 12,320(1)
	lfs 13,0(7)
	fsub 0,12,0
	frsp 0,0
	fadds 0,13,0
	stfs 0,0(7)
	b .L965
.LVL1262:
.L932:
	.loc 1 2526 0
	lwz 4,0(8)
	stw 0,224(1)
	stw 4,228(1)
	lfs 12,0(6)
	lfd 10,224(1)
	lfs 13,0(7)
	fsub 12,10,12
	frsp 12,12
	fmadds 13,12,0,13
	stfs 13,0(7)
	b .L933
.LVL1263:
.L1011:
.LBB422:
	.loc 1 2614 0
	lis 6,.LC23@ha
	lfs 12,.LC23@l(6)
	fcmpu 6,0,12
	cror 26,25,26
	beq- 6,.L974
	fctiwz 0,0
.LVL1264:
	stfiwx 0,17,8
	b .L973
.LVL1265:
.L974:
	fsubs 0,0,12
.LVL1266:
	addi 4,1,328
	fctiwz 0,0
	stfiwx 0,0,4
	lwz 6,328(1)
	addis 6,6,0x8000
	stwx 6,17,8
	b .L973
.LVL1267:
.L910:
.LBE422:
	.loc 1 2475 0
	lwz 3,0(8)
	stw 0,144(1)
	stw 3,148(1)
	lfs 12,0(4)
	lfd 10,144(1)
	lfs 0,0(7)
	fsub 12,10,12
	frsp 12,12
	fmadds 0,9,12,0
	stfs 0,0(7)
	b .L911
.LVL1268:
.L920:
	.loc 1 2502 0
	lwz 26,0(7)
	stw 0,184(1)
	stw 26,188(1)
	lfs 0,0(3)
	lfd 10,184(1)
	.loc 1 2501 0
	lwz 26,0(8)
	.loc 1 2502 0
	fsub 10,10,0
	.loc 1 2501 0
	stw 0,192(1)
	stw 26,196(1)
	.loc 1 2502 0
	frsp 10,10
	.loc 1 2501 0
	lfs 12,0(4)
	lfd 6,192(1)
	b .L1017
.LVL1269:
.L897:
	.loc 1 2439 0
	lwz 3,0(8)
	stw 0,96(1)
	stw 3,100(1)
	lfs 10,0(4)
	lfd 6,96(1)
	lfs 0,0(7)
	fsub 10,6,10
	frsp 10,10
	fmadds 0,10,12,0
	stfs 0,0(7)
	b .L898
.LVL1270:
.L905:
	.loc 1 2464 0
	lwz 3,0(7)
	stw 0,128(1)
	stw 3,132(1)
	lfs 10,0(8)
	lfd 6,128(1)
	lfs 12,0(4)
	fsub 10,6,10
	frsp 10,10
	fmadds 12,10,0,12
	stfs 12,0(4)
	b .L906
.LVL1271:
.L915:
	.loc 1 2486 0
	lwz 4,0(14)
	stw 0,160(1)
	stw 4,164(1)
	lfs 10,0(8)
	lfd 6,160(1)
	lfs 12,0(7)
	fsub 10,6,10
	frsp 10,10
	fmadds 12,10,0,12
	stfs 12,0(7)
	b .L916
.LVL1272:
.L902:
	.loc 1 2451 0
	lwz 28,0(7)
	stw 0,112(1)
	stw 28,116(1)
	lfs 10,0(8)
	lfd 6,112(1)
	lfs 0,0(3)
	fsub 10,6,10
	frsp 10,10
	fmadds 0,10,12,0
	stfs 0,0(3)
	b .L903
.LVL1273:
.L949:
	.loc 1 2561 0
	lwz 4,0(8)
	stw 0,272(1)
	stw 4,276(1)
	lfs 13,0(6)
	lfd 10,272(1)
	lfs 0,0(7)
	fsub 13,10,13
	frsp 13,13
	fmadds 0,13,12,0
	stfs 0,0(7)
	b .L950
.LVL1274:
.L953:
	.loc 1 2572 0
	lwz 6,0(24)
	stw 0,288(1)
	stw 6,292(1)
	lfs 13,0(8)
	lfd 10,288(1)
	lfs 0,0(7)
	fsub 13,10,13
	frsp 13,13
	fmadds 0,13,12,0
	stfs 0,0(7)
	b .L954
.LVL1275:
.L941:
	.loc 1 2576 0
	fsubs 13,9,7
	fsubs 0,11,0
	fmuls 13,13,0
.LVL1276:
	.loc 1 2578 0
	ble- 1,.L937
	.loc 1 2577 0
	lwz 6,348(1)
	.loc 1 2354 0
	lis 8,.LC24@ha
	lfs 0,.LC24@l(8)
	la 8,.LC12@l(11)
	.loc 1 2577 0
	add 7,6,16
	addi 6,1,8
	.loc 1 2578 0
	add 7,29,7
	.loc 1 2580 0
	beq- 7,.L957
.LVL1277:
.L1028:
	.loc 1 2581 0
	lbz 26,3(7)
	lbz 28,2(7)
	lbz 3,0(7)
	slwi 26,26,24
	lbz 4,1(7)
	slwi 28,28,16
	or 28,26,28
	stw 0,296(1)
	or 3,28,3
	slwi 4,4,8
	or 4,3,4
	lfs 12,0(8)
	stw 4,300(1)
	lfd 10,296(1)
	fsub 12,10,12
	frsp 12,12
	fmadds 0,12,13,0
	stfs 0,0(6)
.L958:
	.loc 1 2578 0
	lwz 4,356(1)
	.loc 1 2579 0
	add 7,7,10
	.loc 1 2578 0
	cmpw 6,6,4
	beq- 6,.L937
	.loc 1 2579 0
	lfsu 0,4(6)
	.loc 1 2580 0
	bne- 7,.L1028
.L957:
	.loc 1 2583 0
	lwz 4,0(7)
	stw 0,304(1)
	stw 4,308(1)
	lfs 12,0(8)
	lfd 10,304(1)
	fsub 12,10,12
	frsp 12,12
	fmadds 0,12,13,0
	stfs 0,0(6)
	b .L958
.LVL1278:
.L982:
	.loc 1 2628 0
	fadds 0,9,30
	.loc 1 2629 0
	lfs 13,0(18)
	.loc 1 2627 0
	lwz 8,360(1)
	.loc 1 2629 0
	fcmpu 6,0,13
	.loc 1 2627 0
	add 9,5,8
.LVL1279:
	.loc 1 2629 0
	bng- 6,.L980
	.loc 1 2630 0
	fsubs 0,0,13
.LVL1280:
	.loc 1 2631 0
	addi 9,9,1
.LVL1281:
.L980:
	.loc 1 2401 0
	lwz 4,368(1)
	lwz 7,352(1)
	addi 4,4,1
	lwz 8,364(1)
	cmpw 6,4,7
	stw 4,368(1)
.LVL1282:
	lwz 4,388(1)
.LVL1283:
	add 8,8,4
	stw 8,364(1)
	beq- 6,.L884
	fmr 7,9
	mr 8,5
	fmr 9,0
.LVL1284:
	mr 5,9
.LVL1285:
	b .L887
.LVL1286:
.L901:
	.loc 1 2458 0
	lwz 7,376(1)
	add 14,16,7
	add 14,29,14
.LVL1287:
	b .L983
.LVL1288:
.L884:
	.loc 1 2634 0
	lwz 0,524(1)
	lwz 12,412(1)
	mtlr 0
	lwz 14,416(1)
	lwz 15,420(1)
	mtcrf 56,12
	lwz 16,424(1)
	lwz 17,428(1)
	lwz 18,432(1)
	lwz 19,436(1)
	lwz 20,440(1)
	lwz 21,444(1)
	lwz 22,448(1)
	lwz 23,452(1)
	lwz 24,456(1)
	lwz 25,460(1)
	lwz 26,464(1)
	lwz 27,468(1)
	lwz 28,472(1)
	lwz 29,476(1)
.LVL1289:
	lwz 30,480(1)
.LVL1290:
	lwz 31,484(1)
	lfd 28,488(1)
	lfd 29,496(1)
.LVL1291:
	lfd 30,504(1)
	lfd 31,512(1)
	addi 1,1,520
	.cfi_remember_state
.LCFI129:
	.cfi_def_cfa_offset 0
	.cfi_restore 70
	.cfi_restore 63
	.cfi_restore 62
	.cfi_restore 61
	.cfi_restore 60
	.cfi_restore 31
	.cfi_restore 30
	.cfi_restore 29
	.cfi_restore 28
	.cfi_restore 27
	.cfi_restore 26
	.cfi_restore 25
	.cfi_restore 24
	.cfi_restore 23
	.cfi_restore 22
	.cfi_restore 21
	.cfi_restore 20
	.cfi_restore 19
	.cfi_restore 18
	.cfi_restore 17
	.cfi_restore 16
	.cfi_restore 15
	.cfi_restore 14
	blr
.LVL1292:
.L1019:
.LCFI130:
	.cfi_restore_state
	.loc 1 2381 0 discriminator 1
	slwi 9,8,1
.LVL1293:
	cmpw 7,9,5
	bne+ 7,.L885
	.loc 1 2634 0
	lwz 0,524(1)
.LVL1294:
	.loc 1 2382 0
	mr 7,25
.LVL1295:
	.loc 1 2634 0
	lwz 12,412(1)
	.loc 1 2382 0
	mr 8,10
	stw 26,528(1)
	mr 9,27
	.loc 1 2634 0
	lwz 14,416(1)
	.loc 1 2382 0
	mr 10,31
.LVL1296:
	.loc 1 2634 0
	lwz 15,420(1)
	mtlr 0
	lwz 16,424(1)
	mtcrf 56,12
	lwz 17,428(1)
	lwz 18,432(1)
	lwz 19,436(1)
	lwz 20,440(1)
	lwz 21,444(1)
	lwz 22,448(1)
	lwz 23,452(1)
	lwz 24,456(1)
	lwz 25,460(1)
.LVL1297:
	lwz 26,464(1)
	lwz 27,468(1)
	lwz 28,472(1)
.LVL1298:
	lwz 29,476(1)
	lwz 30,480(1)
	lwz 31,484(1)
	lfd 28,488(1)
	lfd 29,496(1)
	lfd 30,504(1)
	lfd 31,512(1)
	addi 1,1,520
.LCFI131:
	.cfi_def_cfa_offset 0
	.cfi_restore 70
	.cfi_restore 63
	.cfi_restore 62
	.cfi_restore 61
	.cfi_restore 60
	.cfi_restore 31
	.cfi_restore 30
	.cfi_restore 29
	.cfi_restore 28
	.cfi_restore 27
	.cfi_restore 26
	.cfi_restore 25
	.cfi_restore 24
	.cfi_restore 23
	.cfi_restore 22
	.cfi_restore 21
	.cfi_restore 20
	.cfi_restore 19
	.cfi_restore 18
	.cfi_restore 17
	.cfi_restore 16
	.cfi_restore 15
	.cfi_restore 14
	.loc 1 2382 0
	b halveImage_uint
.LVL1299:
.LVL1300:
.LVL1301:
.LVL1302:
.LVL1303:
.LVL1304:
	.cfi_endproc
.LFE24:
	.size	scale_internal_uint, .-scale_internal_uint
	.align 2
	.type	halveImage_int, @function
halveImage_int:
.LFB15:
	.loc 1 983 0
	.cfi_startproc
.LVL1305:
	.loc 1 990 0
	cmpwi 7,4,1
	.loc 1 983 0
	mflr 0
	stwu 1,-168(1)
.LCFI132:
	.cfi_def_cfa_offset 168
	.cfi_register 65, 0
	stw 0,172(1)
	stw 16,104(1)
	stw 17,108(1)
	stw 18,112(1)
	stw 19,116(1)
	stw 20,120(1)
	stw 21,124(1)
	stw 22,128(1)
	stw 23,132(1)
	stw 24,136(1)
	stw 25,140(1)
	stw 26,144(1)
	stw 27,148(1)
	stw 28,152(1)
	stw 29,156(1)
	stw 30,160(1)
	stw 31,164(1)
	.loc 1 983 0
	lwz 0,176(1)
	.cfi_offset 31, -4
	.cfi_offset 30, -8
	.cfi_offset 29, -12
	.cfi_offset 28, -16
	.cfi_offset 27, -20
	.cfi_offset 26, -24
	.cfi_offset 25, -28
	.cfi_offset 24, -32
	.cfi_offset 23, -36
	.cfi_offset 22, -40
	.cfi_offset 21, -44
	.cfi_offset 20, -48
	.cfi_offset 19, -52
	.cfi_offset 18, -56
	.cfi_offset 17, -60
	.cfi_offset 16, -64
	.cfi_offset 65, 4
	.loc 1 990 0
	beq- 7,.L1030
	.loc 1 990 0 is_stmt 0 discriminator 1
	cmpwi 7,5,1
	beq- 7,.L1072
.LVL1306:
.LBB433:
.LBB434:
	.loc 1 1003 0 is_stmt 1
	cmpwi 7,0,0
	.loc 1 997 0
	srwi 27,4,1
.LVL1307:
	.loc 1 998 0
	srwi 22,5,1
.LVL1308:
	.loc 1 1003 0
	bne- 7,.L1073
.LVL1309:
	.loc 1 1004 0
	cmpwi 7,22,0
	ble- 7,.L1029
	.loc 1 980 0
	mullw 29,3,8
	cmpwi 1,27,0
	cmpwi 6,3,0
	.loc 1 1004 0
	li 23,0
	lis 24,.LC21@ha
	lis 25,.LC5@ha
	lis 26,.LC47@ha
	.loc 1 1007 0
	lis 0,0x4330
	.loc 1 980 0
	slwi 28,3,2
.LVL1310:
.L1051:
	.loc 1 1005 0
	ble- 1,.L1053
	li 30,0
.LVL1311:
.L1055:
	.loc 1 1006 0
	ble- 6,.L1054
	.loc 1 1007 0
	lfs 0,.LC5@l(25)
	.loc 1 1010 0
	mtctr 3
	lfs 9,.LC47@l(26)
	.loc 1 1006 0
	add 4,10,9
	.loc 1 1010 0
	lfs 10,.LC21@l(24)
	.loc 1 980 0
	addi 31,7,-4
.LBE434:
.LBE433:
.LBB444:
.LBB445:
	mr 11,6
.LVL1312:
.L1052:
.LBE445:
.LBE444:
.LBB473:
.LBB442:
	.loc 1 1007 0
	lwz 5,0(11)
	addi 31,31,4
	stw 0,40(1)
	xoris 5,5,0x8000
	stw 5,44(1)
	.loc 1 1008 0
	lwzx 5,11,10
	stw 0,48(1)
	xoris 5,5,0x8000
	.loc 1 1007 0
	lfd 13,40(1)
	.loc 1 1008 0
	stw 5,52(1)
	.loc 1 1007 0
	fsub 13,13,0
	.loc 1 1009 0
	lwzx 5,11,9
	.loc 1 1008 0
	lfd 12,48(1)
	.loc 1 1009 0
	xoris 5,5,0x8000
	stw 0,56(1)
	stw 5,60(1)
	.loc 1 1008 0
	fsub 12,12,0
	.loc 1 1007 0
	frsp 13,13
	.loc 1 1010 0
	lwzx 5,11,4
	.loc 1 1011 0
	add 11,11,8
.LVL1313:
	.loc 1 1008 0
	frsp 12,12
	.loc 1 1009 0
	lfd 11,56(1)
	.loc 1 1010 0
	xoris 5,5,0x8000
	stw 0,64(1)
	stw 5,68(1)
	.loc 1 1009 0
	fsub 11,11,0
	.loc 1 1007 0
	fadds 13,13,12
	.loc 1 1010 0
	lfd 12,64(1)
	.loc 1 1009 0
	frsp 11,11
	.loc 1 1010 0
	fsub 12,12,0
	.loc 1 1008 0
	fadds 13,13,11
	.loc 1 1010 0
	frsp 12,12
	.loc 1 1009 0
	fadds 13,13,12
	.loc 1 1010 0
	fmuls 13,13,9
	fadd 13,13,10
	.loc 1 1007 0
	fctiwz 13,13
	stfiwx 13,0,31
.LVL1314:
	.loc 1 1006 0
	bdnz .L1052
	.loc 1 980 0
	add 7,7,28
	add 6,6,29
.LVL1315:
.L1054:
	.loc 1 1005 0
	addi 30,30,1
	.loc 1 1013 0
	add 6,6,10
.LVL1316:
	.loc 1 1005 0
	cmpw 7,27,30
	bne+ 7,.L1055
.LVL1317:
.L1053:
	.loc 1 1004 0
	addi 23,23,1
	.loc 1 1015 0
	add 6,6,9
.LVL1318:
	.loc 1 1004 0
	cmpw 7,22,23
	bne+ 7,.L1051
.LVL1319:
.L1029:
.LBE442:
.LBE473:
	.loc 1 1039 0
	lwz 0,172(1)
	lwz 16,104(1)
	mtlr 0
	lwz 17,108(1)
	lwz 18,112(1)
	lwz 19,116(1)
	lwz 20,120(1)
	lwz 21,124(1)
	lwz 22,128(1)
	lwz 23,132(1)
	lwz 24,136(1)
	lwz 25,140(1)
	lwz 26,144(1)
	lwz 27,148(1)
	lwz 28,152(1)
	lwz 29,156(1)
	lwz 30,160(1)
	lwz 31,164(1)
	addi 1,1,168
	.cfi_remember_state
.LCFI133:
	.cfi_def_cfa_offset 0
	.cfi_restore 31
	.cfi_restore 30
	.cfi_restore 29
	.cfi_restore 28
	.cfi_restore 27
	.cfi_restore 26
	.cfi_restore 25
	.cfi_restore 24
	.cfi_restore 23
	.cfi_restore 22
	.cfi_restore 21
	.cfi_restore 20
	.cfi_restore 19
	.cfi_restore 18
	.cfi_restore 17
	.cfi_restore 16
	blr
.LVL1320:
.L1073:
.LCFI134:
	.cfi_restore_state
.LBB474:
.LBB443:
	.loc 1 1018 0
	cmpwi 7,22,0
	ble- 7,.L1029
	.loc 1 980 0
	mullw 25,3,8
	.loc 1 1020 0
	add 26,10,9
	cmpwi 1,27,0
	cmpwi 6,3,0
	.loc 1 1018 0
	li 19,0
	lis 20,.LC21@ha
	lis 21,.LC5@ha
	lis 23,.LC47@ha
	neg 30,26
.LBB435:
	.loc 1 1024 0
	lis 0,0x4330
.LBE435:
	.loc 1 980 0
	slwi 24,3,2
.LVL1321:
.L1050:
	.loc 1 1019 0
	ble- 1,.L1057
	li 28,0
.LVL1322:
.L1059:
	.loc 1 1020 0
	ble- 6,.L1058
.LBB436:
	.loc 1 1024 0
	lfs 0,.LC5@l(21)
	.loc 1 1031 0
	mtctr 3
	lfs 9,.LC47@l(23)
.LBE436:
	.loc 1 980 0
	add 5,6,10
.LBB437:
	.loc 1 1031 0
	lfs 10,.LC21@l(20)
.LBE437:
	.loc 1 980 0
	add 12,6,9
	add 11,6,26
	addi 31,7,-4
.LVL1323:
.L1056:
	add 4,11,30
.LBB438:
	.loc 1 1023 0
	lbzx 18,11,30
	lbz 17,3(4)
	.loc 1 1031 0
	addi 31,31,4
	.loc 1 1023 0
	lbz 16,2(4)
	lbz 29,1(4)
	slwi 17,17,24
	slwi 4,16,16
	.loc 1 1024 0
	stw 0,72(1)
	.loc 1 1023 0
	or 4,17,4
	slwi 29,29,8
	or 4,4,18
	or 4,4,29
	.loc 1 1024 0
	xoris 4,4,0x8000
	stw 4,76(1)
	.loc 1 1025 0
	lbz 17,3(5)
	lbz 4,2(5)
	lbz 18,0(5)
	slwi 17,17,24
	lbz 29,1(5)
	slwi 4,4,16
	or 4,17,4
	.loc 1 1026 0
	stw 0,80(1)
	.loc 1 1025 0
	or 4,4,18
	slwi 29,29,8
	or 4,4,29
	.loc 1 1024 0
	lfd 13,72(1)
	.loc 1 1026 0
	xoris 4,4,0x8000
.LBE438:
	.loc 1 1020 0
	add 5,5,8
.LBB439:
	.loc 1 1026 0
	stw 4,84(1)
	.loc 1 1024 0
	fsub 13,13,0
	.loc 1 1027 0
	lbz 17,3(12)
	lbz 4,2(12)
	.loc 1 1024 0
	frsp 13,13
.LVL1324:
	.loc 1 1027 0
	lbz 18,0(12)
	slwi 17,17,24
	lbz 29,1(12)
	slwi 4,4,16
	or 4,17,4
	.loc 1 1028 0
	stw 0,88(1)
	.loc 1 1027 0
	or 4,4,18
	slwi 29,29,8
	or 4,4,29
	.loc 1 1026 0
	lfd 12,80(1)
	.loc 1 1028 0
	xoris 4,4,0x8000
.LBE439:
	.loc 1 1020 0
	add 12,12,8
.LBB440:
	.loc 1 1028 0
	stw 4,92(1)
	.loc 1 1026 0
	fsub 12,12,0
	.loc 1 1029 0
	lbz 17,3(11)
	lbz 4,2(11)
	.loc 1 1026 0
	frsp 12,12
	.loc 1 1029 0
	lbz 18,0(11)
	slwi 17,17,24
	lbz 29,1(11)
	slwi 4,4,16
	or 4,17,4
	.loc 1 1028 0
	lfd 11,88(1)
	.loc 1 1029 0
	or 4,4,18
	slwi 29,29,8
	or 4,4,29
	.loc 1 1030 0
	stw 0,96(1)
	xoris 4,4,0x8000
	.loc 1 1028 0
	fsub 11,11,0
	.loc 1 1030 0
	stw 4,100(1)
	.loc 1 1026 0
	fadds 13,13,12
.LVL1325:
.LBE440:
	.loc 1 1020 0
	add 11,11,8
.LBB441:
	.loc 1 1030 0
	lfd 12,96(1)
	.loc 1 1028 0
	frsp 11,11
	.loc 1 1030 0
	fsub 12,12,0
	.loc 1 1028 0
	fadds 13,13,11
.LVL1326:
	.loc 1 1030 0
	frsp 12,12
	fadds 13,13,12
	.loc 1 1031 0
	fmuls 13,13,9
	fadd 13,13,10
	fctiwz 13,13
	stfiwx 13,0,31
.LBE441:
	.loc 1 1020 0
	bdnz .L1056
	.loc 1 980 0
	add 7,7,24
	add 6,6,25
.L1058:
	.loc 1 1019 0
	addi 28,28,1
	.loc 1 1035 0
	add 6,6,10
.LVL1327:
	.loc 1 1019 0
	cmpw 7,27,28
	bne+ 7,.L1059
.LVL1328:
.L1057:
	.loc 1 1018 0
	addi 19,19,1
	.loc 1 1037 0
	add 6,6,9
.LVL1329:
	.loc 1 1018 0
	cmpw 7,22,19
	bne+ 7,.L1050
	b .L1029
.LVL1330:
.L1030:
.LBE443:
.LBE474:
	.loc 1 991 0 discriminator 1
	cmpwi 7,5,1
	beq- 7,.L1074
.LVL1331:
.LBB475:
.LBB470:
.LBB446:
	.loc 1 1092 0
	srwi. 22,5,1
	mr 26,7
	mr 24,6
	.loc 1 1086 0
	subf 10,10,9
.LVL1332:
	.loc 1 1092 0
	ble- 0,.L1035
.LVL1333:
.LBB447:
	.loc 1 980 0
	mullw 18,8,3
	cmpwi 6,3,0
	cmpwi 7,0,0
.LBE447:
	.loc 1 1092 0
	mr 26,7
	mr 24,6
	li 23,0
	lis 19,.LC12@ha
	lis 20,.LC21@ha
.LBB453:
.LBB448:
	.loc 1 1105 0
	lis 0,0x4330
.LBE448:
	.loc 1 980 0
	slwi 21,3,2
.LVL1334:
.L1034:
	.loc 1 1094 0
	ble- 6,.L1046
.LBB449:
	.loc 1 1105 0
	lfs 0,.LC12@l(19)
	mtctr 3
	lfs 11,.LC21@l(20)
.LBE449:
	.loc 1 980 0
	addi 31,26,-4
	add 4,24,9
.LBE453:
.LBE446:
	mr 11,24
.LVL1335:
.L1045:
.LBB458:
.LBB454:
.LBB450:
	.loc 1 1097 0
	beq- 7,.L1043
	.loc 1 1098 0
	lbz 12,3(11)
	lbz 27,2(11)
	.loc 1 1099 0
	lbz 16,3(4)
	.loc 1 1098 0
	slwi 12,12,24
	.loc 1 1099 0
	lbz 28,2(4)
	.loc 1 1098 0
	slwi 27,27,16
	lbz 17,0(11)
	.loc 1 1099 0
	slwi 16,16,24
	.loc 1 1098 0
	lbz 29,1(11)
	.loc 1 1099 0
	slwi 28,28,16
	lbz 25,0(4)
	.loc 1 1098 0
	or 27,12,27
	.loc 1 1099 0
	lbz 30,1(4)
	or 28,16,28
	.loc 1 1098 0
	or 27,27,17
	slwi 29,29,8
	.loc 1 1099 0
	or 28,28,25
	slwi 30,30,8
	.loc 1 1098 0
	or 29,27,29
.LVL1336:
	.loc 1 1099 0
	or 30,28,30
.LVL1337:
.L1044:
	.loc 1 1105 0
	stw 29,28(1)
	addi 31,31,4
	stw 0,24(1)
	.loc 1 1107 0
	add 11,11,8
.LVL1338:
	.loc 1 1105 0
	stw 30,36(1)
.LBE450:
	.loc 1 1094 0
	add 4,4,8
.LBB451:
	.loc 1 1105 0
	stw 0,32(1)
	lfd 12,24(1)
	lfd 13,32(1)
	fsub 12,12,0
	fsub 13,13,0
	frsp 12,12
	frsp 13,13
	fadds 13,12,13
	fmul 13,13,11
	fctiwz 13,13
	stfiwx 13,0,31
.LBE451:
	.loc 1 1094 0
	bdnz .L1045
	.loc 1 980 0
	add 24,24,18
	add 26,26,21
.LVL1339:
.L1046:
.LBE454:
	.loc 1 1092 0
	addi 23,23,1
.LBB455:
	.loc 1 1110 0
	add 24,24,10
.LVL1340:
.LBE455:
	.loc 1 1092 0
	cmpw 1,22,23
.LBB456:
	.loc 1 1111 0
	add 24,24,9
.LVL1341:
.LBE456:
	.loc 1 1092 0
	bne+ 1,.L1034
.LVL1342:
.L1035:
	.loc 1 1114 0
	mullw 9,9,5
.LVL1343:
	add 6,6,9
.LVL1344:
	cmpw 7,24,6
	bne- 7,.L1047
	mullw 8,3,8
.LVL1345:
	mullw 4,22,8
.LVL1346:
.L1037:
.LBE458:
	.loc 1 1117 0
	add 7,7,4
.LVL1347:
	cmpw 7,26,7
	beq+ 7,.L1029
	lis 5,.LANCHOR0@ha
	lis 3,.LC15@ha
.LVL1348:
	la 5,.LANCHOR0@l(5)
	lis 6,.LC45@ha
	la 3,.LC15@l(3)
	li 4,1118
	addi 5,5,456
	la 6,.LC45@l(6)
	bl __assert_func
.LVL1349:
.L1043:
.LBB459:
.LBB457:
.LBB452:
	.loc 1 1102 0
	lwz 29,0(11)
.LVL1350:
	.loc 1 1103 0
	lwz 30,0(4)
.LVL1351:
	b .L1044
.LVL1352:
.L1072:
.LBE452:
.LBE457:
.LBE459:
	.loc 1 1060 0
	srwi. 4,4,1
.LVL1353:
	ble- 0,.L1075
.LVL1354:
	mullw 23,3,8
	cmpwi 6,3,0
	cmpwi 7,0,0
	mr 26,7
	li 24,0
	lis 20,.LC12@ha
	lis 21,.LC21@ha
.LBB460:
.LBB461:
	.loc 1 1073 0
	lis 0,0x4330
.LBE461:
	.loc 1 980 0
	slwi 22,3,2
.LVL1355:
.L1038:
	.loc 1 1062 0
	ble- 6,.L1042
.LBB462:
	.loc 1 1073 0
	lfs 0,.LC12@l(20)
	mtctr 3
	lfs 11,.LC21@l(21)
.LBE462:
	.loc 1 980 0
	addi 5,26,-4
	add 11,6,10
.LBE460:
.LBE470:
.LBE475:
	mr 9,6
.LVL1356:
.L1041:
.LBB476:
.LBB471:
.LBB466:
.LBB463:
	.loc 1 1065 0
	beq- 7,.L1039
	.loc 1 1066 0
	lbz 18,3(9)
	lbz 28,2(9)
	.loc 1 1067 0
	lbz 19,3(11)
	.loc 1 1066 0
	slwi 18,18,24
	.loc 1 1067 0
	lbz 29,2(11)
	.loc 1 1066 0
	slwi 28,28,16
	lbz 25,0(9)
	.loc 1 1067 0
	slwi 19,19,24
	.loc 1 1066 0
	lbz 30,1(9)
	.loc 1 1067 0
	slwi 29,29,16
	lbz 27,0(11)
	.loc 1 1066 0
	or 28,18,28
	.loc 1 1067 0
	lbz 31,1(11)
	or 29,19,29
	.loc 1 1066 0
	or 28,28,25
	slwi 30,30,8
	.loc 1 1067 0
	or 29,29,27
	slwi 31,31,8
	.loc 1 1066 0
	or 30,28,30
.LVL1357:
	.loc 1 1067 0
	or 31,29,31
.LVL1358:
.L1040:
	.loc 1 1073 0
	stw 30,12(1)
	addi 5,5,4
	stw 0,8(1)
	.loc 1 1075 0
	add 9,9,8
.LVL1359:
	.loc 1 1073 0
	stw 31,20(1)
.LBE463:
	.loc 1 1062 0
	add 11,11,8
.LBB464:
	.loc 1 1073 0
	stw 0,16(1)
	lfd 12,8(1)
	lfd 13,16(1)
	fsub 12,12,0
	fsub 13,13,0
	frsp 12,12
	frsp 13,13
	fadds 13,12,13
	fmul 13,13,11
	fctiwz 13,13
	stfiwx 13,0,5
.LBE464:
	.loc 1 1062 0
	bdnz .L1041
	.loc 1 980 0
	add 6,6,23
	add 26,26,22
.LVL1360:
.L1042:
.LBE466:
	.loc 1 1060 0
	addi 24,24,1
.LBB467:
	.loc 1 1078 0
	add 6,6,10
.LVL1361:
.LBE467:
	.loc 1 1060 0
	cmpw 1,24,4
	bne+ 1,.L1038
	mullw 4,24,23
.LVL1362:
	b .L1037
.LVL1363:
.L1039:
.LBB468:
.LBB465:
	.loc 1 1070 0
	lwz 30,0(9)
.LVL1364:
	.loc 1 1071 0
	lwz 31,0(11)
.LVL1365:
	b .L1040
.LVL1366:
.L1047:
.LBE465:
.LBE468:
.LBB469:
	.loc 1 1114 0
	lis 5,.LANCHOR0@ha
.LVL1367:
	lis 3,.LC15@ha
.LVL1368:
	la 5,.LANCHOR0@l(5)
	lis 6,.LC44@ha
	la 3,.LC15@l(3)
	li 4,1114
	addi 5,5,456
	la 6,.LC44@l(6)
	bl __assert_func
.LVL1369:
.L1074:
.LBE469:
.LBE471:
.LBE476:
	.loc 1 991 0 discriminator 2
	lis 5,.LANCHOR0@ha
.LVL1370:
	lis 3,.LC15@ha
.LVL1371:
	la 5,.LANCHOR0@l(5)
	lis 6,.LC43@ha
.LVL1372:
	la 3,.LC15@l(3)
	li 4,991
.LVL1373:
	addi 5,5,440
	la 6,.LC43@l(6)
	bl __assert_func
.LVL1374:
.L1075:
.LBB477:
.LBB472:
	.loc 1 1060 0
	mullw 8,3,8
.LVL1375:
	mr 26,7
	mullw 4,4,8
.LVL1376:
	b .L1037
.LBE472:
.LBE477:
	.cfi_endproc
.LFE15:
	.size	halveImage_int, .-halveImage_int
	.align 2
	.type	scale_internal_int, @function
scale_internal_int:
.LFB25:
	.loc 1 2644 0
	.cfi_startproc
.LVL1377:
	.loc 1 2667 0
	slwi 11,7,1
	.loc 1 2644 0
	mfcr 12
	.loc 1 2667 0
	cmpw 7,11,4
	.loc 1 2644 0
	mflr 0
	stwu 1,-512(1)
.LCFI135:
	.cfi_def_cfa_offset 512
	.cfi_register 65, 0
	.cfi_register 70, 12
	mr 11,5
	stw 0,516(1)
	mr 0,4
	.cfi_offset 65, 4
	stw 25,452(1)
	mr 25,9
	.cfi_offset 25, -60
	stw 26,456(1)
	stw 27,460(1)
	stw 28,464(1)
	mr 28,7
	.cfi_offset 28, -48
	.cfi_offset 27, -52
	.cfi_offset 26, -56
	stw 29,468(1)
	mr 29,6
	.cfi_offset 29, -44
	stw 30,472(1)
	mr 30,3
	.cfi_offset 30, -40
	stw 31,476(1)
	stfd 28,480(1)
	stfd 29,488(1)
	stfd 30,496(1)
	stfd 31,504(1)
	stw 14,408(1)
	stw 15,412(1)
	stw 16,416(1)
	stw 17,420(1)
	stw 18,424(1)
	stw 19,428(1)
	stw 20,432(1)
	stw 21,436(1)
	stw 22,440(1)
	stw 23,444(1)
	stw 24,448(1)
	stw 12,404(1)
	.loc 1 2644 0
	stw 8,348(1)
	lwz 27,520(1)
	lwz 31,524(1)
	.cfi_offset 70, -108
	.cfi_offset 24, -64
	.cfi_offset 23, -68
	.cfi_offset 22, -72
	.cfi_offset 21, -76
	.cfi_offset 20, -80
	.cfi_offset 19, -84
	.cfi_offset 18, -88
	.cfi_offset 17, -92
	.cfi_offset 16, -96
	.cfi_offset 15, -100
	.cfi_offset 14, -104
	.cfi_offset 63, -8
	.cfi_offset 62, -16
	.cfi_offset 61, -24
	.cfi_offset 60, -32
	.cfi_offset 31, -36
	lwz 26,528(1)
	.loc 1 2667 0
	beq- 7,.L1203
.LVL1378:
.L1077:
	.loc 1 2673 0
	lwz 7,348(1)
.LVL1379:
	lis 24,0x4330
	xoris 11,11,0x8000
	stw 24,24(1)
	xoris 9,7,0x8000
	stw 11,28(1)
	stw 9,36(1)
	lis 23,.LC5@ha
	stw 24,32(1)
	.loc 1 2674 0
	xoris 0,0,0x8000
.LVL1380:
	.loc 1 2673 0
	lfs 31,.LC5@l(23)
	.loc 1 2674 0
	xoris 9,28,0x8000
	.loc 1 2673 0
	lfd 30,24(1)
	lfd 13,32(1)
	.loc 1 2674 0
	stw 0,44(1)
	.loc 1 2673 0
	fsub 30,30,31
	.loc 1 2674 0
	stw 9,52(1)
	.loc 1 2673 0
	fsub 13,13,31
	.loc 1 2674 0
	stw 24,40(1)
	stw 24,48(1)
	.loc 1 2673 0
	frsp 30,30
	.loc 1 2674 0
	lfd 29,40(1)
	.loc 1 2673 0
	frsp 13,13
	.loc 1 2674 0
	lfd 0,48(1)
	fsub 29,29,31
	.loc 1 2675 0
	stw 10,392(1)
	.loc 1 2674 0
	fsub 0,0,31
	.loc 1 2673 0
	fdivs 30,30,13
.LVL1381:
	.loc 1 2674 0
	frsp 0,0
	frsp 29,29
	.loc 1 2675 0
	fmr 1,30
	.loc 1 2674 0
	fdivs 29,29,0
.LVL1382:
	.loc 1 2675 0
	bl floor
.LVL1383:
	fmr 28,1
.LVL1384:
	.loc 1 2677 0
	fmr 1,29
.LVL1385:
	bl floor
	addi 8,1,332
	fctiwz 1,1
	.loc 1 2678 0
	stw 24,56(1)
	.loc 1 2680 0
	fmuls 8,29,30
	.loc 1 2677 0
	stfiwx 1,0,8
	lwz 0,332(1)
	.loc 1 2687 0
	lwz 11,348(1)
	.loc 1 2677 0
	stw 0,340(1)
.LVL1386:
	.loc 1 2678 0
	xoris 0,0,0x8000
	stw 0,60(1)
	.loc 1 2687 0
	cmpwi 7,11,0
	lwz 10,392(1)
	.loc 1 2678 0
	lfd 0,56(1)
	fsub 0,0,31
	frsp 0,0
	fsubs 29,29,0
.LVL1387:
	.loc 1 2687 0
	ble- 7,.L1076
	.loc 1 2675 0
	fctiwz 28,28
.LVL1388:
	addi 4,1,328
	.loc 1 2676 0
	stw 24,64(1)
	.loc 1 2683 0
	lis 7,.LC24@ha
	.loc 1 2638 0
	mullw 0,28,30
	.loc 1 2683 0
	lfs 7,.LC24@l(7)
	.loc 1 2675 0
	stfiwx 28,0,4
	.loc 1 2638 0
	slwi 22,30,2
	stfs 7,396(1)
	addi 4,1,4
	.loc 1 2675 0
	lwz 6,328(1)
	.loc 1 2638 0
	add 4,4,22
	mullw 20,10,30
	slwi 0,0,2
	.loc 1 2676 0
	xoris 9,6,0x8000
	.loc 1 2675 0
	stw 6,356(1)
	.loc 1 2676 0
	stw 9,68(1)
	.loc 1 2687 0
	li 9,0
	lis 18,.LC3@ha
	.loc 1 2638 0
	stw 25,360(1)
	.loc 1 2676 0
	lfd 0,64(1)
	cmpwi 2,28,0
	.loc 1 2687 0
	stw 9,364(1)
	cmpwi 1,30,0
	.loc 1 2676 0
	fsub 0,0,31
	.loc 1 2638 0
	lwz 19,396(1)
	cmpwi 7,26,0
	stw 4,352(1)
	stw 28,380(1)
	.loc 1 2684 0
	mr 5,6
	.loc 1 2676 0
	frsp 0,0
	.loc 1 2638 0
	stw 0,384(1)
	.loc 1 2682 0
	li 8,0
.LVL1389:
	la 18,.LC3@l(18)
	mr 11,23
	.loc 1 2896 0
	lis 0,0x4330
	.loc 1 2676 0
	fsubs 30,30,0
.LVL1390:
	.loc 1 2685 0
	fmr 9,30
.LVL1391:
.L1079:
	.loc 1 2693 0 discriminator 1
	ble- 2,.L1169
	.loc 1 2746 0
	mullw 6,5,27
	.loc 1 2781 0
	addi 9,8,1
	stw 9,336(1)
	.loc 1 2638 0
	addi 7,5,-1
	subf 7,8,7
	lwz 9,340(1)
	cmpw 3,5,8
	lwz 21,360(1)
	.loc 1 2746 0
	stw 6,372(1)
	.loc 1 2706 0
	mullw 4,8,27
	.loc 1 2886 0
	lwz 6,336(1)
	.loc 1 2638 0
	li 23,0
	lwz 8,336(1)
	fmr 11,29
	li 15,0
	.loc 1 2699 0
	stw 19,20(1)
	.loc 1 2886 0
	mullw 6,27,6
	.loc 1 2706 0
	stw 4,344(1)
	.loc 1 2638 0
	lis 4,.LC24@ha
	.loc 1 2699 0
	stw 19,16(1)
	.loc 1 2638 0
	lfs 0,.LC24@l(4)
	cmpw 4,8,5
	.loc 1 2699 0
	stw 19,12(1)
	.loc 1 2703 0
	cmpw 6,9,23
	.loc 1 2638 0
	mullw 7,7,27
	.loc 1 2886 0
	stw 6,376(1)
	.loc 1 2699 0
	stw 19,8(1)
	.loc 1 2638 0
	stw 7,388(1)
	.loc 1 2702 0
	mullw 16,23,31
.LVL1392:
	.loc 1 2703 0
	bgt- 3,.L1204
.LVL1393:
.L1080:
	.loc 1 2833 0
	ble- 6,.L1133
	.loc 1 2835 0
	lfs 13,0(18)
	.loc 1 2834 0
	fsubs 12,9,7
.LVL1394:
	.loc 1 2837 0
	lwz 7,344(1)
	.loc 1 2835 0
	fsubs 0,13,0
	.loc 1 2837 0
	add 24,7,16
	add 24,29,24
	.loc 1 2835 0
	fmuls 13,0,12
.LVL1395:
	.loc 1 2838 0
	ble- 1,.L1134
	.loc 1 2638 0
	lis 8,.LC24@ha
	.loc 1 2838 0
	addi 6,1,8
	.loc 1 2638 0
	lfs 0,.LC24@l(8)
	.loc 1 2838 0
	mr 7,24
	la 8,.LC5@l(11)
	.loc 1 2840 0
	beq- 7,.L1135
.LVL1396:
.L1205:
	.loc 1 2841 0
	lbz 26,3(7)
	lbz 28,2(7)
	lbz 3,0(7)
	slwi 26,26,24
	lbz 4,1(7)
	slwi 28,28,16
	or 28,26,28
	.loc 1 2842 0
	stw 0,248(1)
	.loc 1 2841 0
	or 3,28,3
	slwi 4,4,8
	or 4,3,4
	.loc 1 2842 0
	lfs 10,0(8)
	xoris 4,4,0x8000
	.loc 1 2839 0
	add 7,7,10
.LVL1397:
	.loc 1 2842 0
	stw 4,252(1)
	.loc 1 2838 0
	lwz 4,352(1)
.LVL1398:
	.loc 1 2842 0
	lfd 6,248(1)
	.loc 1 2838 0
	cmpw 6,6,4
	.loc 1 2842 0
	fsub 10,6,10
	frsp 10,10
	fmadds 0,10,13,0
	stfs 0,0(6)
	.loc 1 2838 0
	beq- 6,.L1134
.LVL1399:
.L1206:
	.loc 1 2839 0
	lfsu 0,4(6)
	.loc 1 2840 0
	bne- 7,.L1205
.L1135:
	.loc 1 2844 0
	lwz 4,0(7)
	.loc 1 2839 0
	add 7,7,10
	.loc 1 2844 0
	stw 0,256(1)
	xoris 4,4,0x8000
	lfs 10,0(8)
	stw 4,260(1)
	.loc 1 2838 0
	lwz 4,352(1)
	.loc 1 2844 0
	lfd 6,256(1)
	.loc 1 2838 0
	cmpw 6,6,4
	.loc 1 2844 0
	fsub 10,6,10
	frsp 10,10
	fmadds 0,10,13,0
	stfs 0,0(6)
	.loc 1 2838 0
	bne+ 6,.L1206
.L1134:
	.loc 1 2847 0
	addi 25,23,1
.LVL1400:
	.loc 1 2837 0
	mr 17,24
	.loc 1 2847 0
	cmpw 6,25,9
	bge- 6,.L1139
.LVL1401:
.L1176:
	.loc 1 2848 0
	add 17,17,31
.LVL1402:
	.loc 1 2849 0
	ble- 1,.L1140
	.loc 1 2855 0
	mtctr 30
	.loc 1 2849 0
	addi 7,1,8
	.loc 1 2848 0
	mr 8,17
	la 6,.LC5@l(11)
.LVL1403:
.L1143:
	.loc 1 2851 0
	beq- 7,.L1141
.LVL1404:
	.loc 1 2852 0
	lbz 26,3(8)
	lbz 28,2(8)
	lbz 3,0(8)
	slwi 26,26,24
	lbz 4,1(8)
	slwi 28,28,16
	or 28,26,28
	.loc 1 2853 0
	stw 0,264(1)
	.loc 1 2852 0
	or 3,28,3
	slwi 4,4,8
	or 4,3,4
	.loc 1 2853 0
	lfs 13,0(6)
	xoris 4,4,0x8000
	stw 4,268(1)
	lfd 10,264(1)
	lfs 0,0(7)
	fsub 13,10,13
	frsp 13,13
	fmadds 0,13,12,0
	stfs 0,0(7)
.LVL1405:
.L1142:
	.loc 1 2850 0
	add 8,8,10
.LVL1406:
	addi 7,7,4
	.loc 1 2849 0
	bdnz .L1143
.LVL1407:
.L1140:
	.loc 1 2847 0
	addi 25,25,1
.LVL1408:
	cmpw 6,25,9
	bne+ 6,.L1176
	.loc 1 2638 0
	addi 8,9,-1
	subf 8,23,8
	mullw 8,8,31
	.loc 1 2847 0
	add 24,24,8
.L1139:
.LVL1409:
	.loc 1 2860 0
	fmuls 12,12,11
.LVL1410:
	.loc 1 2861 0
	ble- 1,.L1129
	.loc 1 2867 0
	mtctr 30
	.loc 1 2859 0
	addi 7,1,8
	.loc 1 2861 0
	add 24,24,31
	la 8,.LC5@l(11)
.LVL1411:
.L1147:
	.loc 1 2863 0
	beq- 7,.L1145
.LVL1412:
	.loc 1 2864 0
	lbz 28,3(24)
	lbz 3,2(24)
	lbz 4,0(24)
	slwi 28,28,24
	lbz 6,1(24)
	slwi 3,3,16
	or 3,28,3
	.loc 1 2865 0
	stw 0,280(1)
	.loc 1 2864 0
	or 4,3,4
	slwi 6,6,8
	or 6,4,6
	.loc 1 2865 0
	lfs 13,0(8)
	xoris 6,6,0x8000
	stw 6,284(1)
	lfd 10,280(1)
	lfs 0,0(7)
	fsub 13,10,13
	frsp 13,13
	fmadds 0,13,12,0
	stfs 0,0(7)
.LVL1413:
.L1146:
	.loc 1 2862 0
	add 24,24,10
.LVL1414:
	addi 7,7,4
	.loc 1 2861 0
	bdnz .L1147
.LVL1415:
.L1129:
	.loc 1 2887 0
	bge- 4,.L1110
	.loc 1 2885 0
	lwz 6,376(1)
	add 17,31,16
	add 17,17,6
	addi 6,23,1
	add 17,29,17
.LVL1416:
.L1153:
	.loc 1 2638 0
	lwz 16,336(1)
.LVL1417:
	cmpw 0,9,6
.L1161:
.LVL1418:
	.loc 1 2889 0
	ble- 0,.L1155
	.loc 1 2889 0 is_stmt 0 discriminator 1
	mr 24,6
	mr 23,17
.LVL1419:
.L1159:
	.loc 1 2890 0 is_stmt 1 discriminator 1
	ble- 1,.L1160
	.loc 1 2896 0
	mtctr 30
	.loc 1 2890 0
	addi 7,1,8
	mr 8,23
	la 4,.LC5@l(11)
.LVL1420:
.L1158:
	.loc 1 2892 0
	beq- 7,.L1156
.LVL1421:
	.loc 1 2893 0
	lbz 25,3(8)
	lbz 26,2(8)
	lbz 28,0(8)
	slwi 25,25,24
	lbz 3,1(8)
	slwi 26,26,16
	or 26,25,26
	.loc 1 2894 0
	stw 0,312(1)
	.loc 1 2893 0
	or 26,26,28
	slwi 3,3,8
	or 26,26,3
	.loc 1 2894 0
	lfs 0,0(4)
	xoris 26,26,0x8000
	stw 26,316(1)
	lfd 12,312(1)
	lfs 13,0(7)
	fsub 0,12,0
	frsp 0,0
	fadds 0,13,0
	stfs 0,0(7)
.LVL1422:
.L1157:
	.loc 1 2891 0
	add 8,8,10
.LVL1423:
	addi 7,7,4
	.loc 1 2890 0
	bdnz .L1158
.LVL1424:
.L1160:
	.loc 1 2889 0
	addi 24,24,1
	.loc 1 2899 0
	add 23,23,31
.LVL1425:
	.loc 1 2889 0
	cmpw 6,24,9
	bne+ 6,.L1159
.LVL1426:
.L1155:
	.loc 1 2887 0
	addi 16,16,1
	.loc 1 2901 0
	add 17,17,27
.LVL1427:
	.loc 1 2887 0
	cmpw 6,16,5
	blt+ 6,.L1161
.LVL1428:
.L1110:
	.loc 1 2905 0
	ble- 1,.L1162
	li 8,0
	addi 7,1,8
.LVL1429:
.L1163:
	.loc 1 2906 0 discriminator 2
	lfsx 0,7,8
	fdivs 0,0,8
	fctiwz 0,0
	stfiwx 0,21,8
	addi 8,8,4
	.loc 1 2905 0 discriminator 2
	cmpw 6,8,22
	bne+ 6,.L1163
.L1162:
.LVL1430:
	.loc 1 2912 0
	fadds 12,11,29
	.loc 1 2913 0
	lfs 0,0(18)
	.loc 1 2911 0
	lwz 7,340(1)
	.loc 1 2913 0
	fcmpu 6,12,0
	.loc 1 2911 0
	add 8,9,7
.LVL1431:
	.loc 1 2913 0
	bng- 6,.L1164
	.loc 1 2914 0
	fsubs 12,12,0
.LVL1432:
	.loc 1 2915 0
	addi 8,8,1
.LVL1433:
.L1164:
	.loc 1 2693 0
	lwz 4,380(1)
	addi 15,15,1
.LVL1434:
	add 21,21,22
	cmpw 6,15,4
	beq- 6,.L1169
	mr 23,9
	mr 9,8
.LVL1435:
	fmr 0,11
	.loc 1 2699 0
	stw 19,20(1)
	.loc 1 2693 0
	fmr 11,12
.LVL1436:
	.loc 1 2699 0
	stw 19,16(1)
	stw 19,12(1)
	.loc 1 2702 0
	mullw 16,23,31
.LVL1437:
	.loc 1 2699 0
	stw 19,8(1)
	.loc 1 2703 0
	cmpw 6,9,23
	ble- 3,.L1080
.LVL1438:
.L1204:
	.loc 1 2703 0 is_stmt 0 discriminator 1
	ble- 6,.L1081
	.loc 1 2705 0 is_stmt 1
	lfs 13,0(18)
	.loc 1 2706 0
	lwz 6,344(1)
	.loc 1 2705 0
	fsubs 12,13,7
.LVL1439:
	.loc 1 2707 0
	fsubs 13,13,0
	.loc 1 2706 0
	add 12,16,6
	add 12,29,12
.LVL1440:
	.loc 1 2707 0
	fmuls 10,13,12
.LVL1441:
	.loc 1 2708 0
	ble- 1,.L1082
	.loc 1 2638 0
	lis 8,.LC24@ha
	.loc 1 2708 0
	addi 6,1,8
	.loc 1 2638 0
	lfs 0,.LC24@l(8)
	.loc 1 2708 0
	mr 7,12
	la 8,.LC5@l(11)
	lwz 4,352(1)
	.loc 1 2710 0
	beq- 7,.L1083
.LVL1442:
.L1207:
	.loc 1 2711 0
	lbz 25,3(7)
	.loc 1 2708 0
	cmpw 6,6,4
	.loc 1 2711 0
	lbz 26,2(7)
	lbz 28,0(7)
	slwi 25,25,24
	lbz 3,1(7)
	slwi 26,26,16
	or 26,25,26
	.loc 1 2712 0
	stw 0,72(1)
	.loc 1 2711 0
	or 28,26,28
	slwi 3,3,8
	or 3,28,3
	.loc 1 2712 0
	lfs 6,0(8)
	xoris 3,3,0x8000
	.loc 1 2709 0
	add 7,7,10
.LVL1443:
	.loc 1 2712 0
	stw 3,76(1)
	lfd 5,72(1)
	fsub 6,5,6
	frsp 6,6
	fmadds 0,6,10,0
	stfs 0,0(6)
	.loc 1 2708 0
	beq- 6,.L1082
.LVL1444:
.L1208:
	.loc 1 2709 0
	lfsu 0,4(6)
	.loc 1 2710 0
	bne- 7,.L1207
.L1083:
	.loc 1 2714 0
	lwz 3,0(7)
	.loc 1 2708 0
	cmpw 6,6,4
	.loc 1 2714 0
	stw 0,80(1)
	.loc 1 2709 0
	add 7,7,10
	.loc 1 2714 0
	xoris 3,3,0x8000
	lfs 6,0(8)
	stw 3,84(1)
	lfd 5,80(1)
	fsub 6,5,6
	frsp 6,6
	fmadds 0,6,10,0
	stfs 0,0(6)
	.loc 1 2708 0
	bne+ 6,.L1208
.L1082:
.LVL1445:
	.loc 1 2718 0
	addi 6,23,1
.LVL1446:
	.loc 1 2706 0
	mr 8,12
	.loc 1 2718 0
	cmpw 0,6,9
	mr 24,6
	.loc 1 2706 0
	mr 17,12
	.loc 1 2718 0
	bge- 0,.L1087
.LVL1447:
.L1175:
	.loc 1 2719 0
	add 17,17,31
.LVL1448:
	.loc 1 2720 0
	ble- 1,.L1088
	.loc 1 2726 0
	mtctr 30
	.loc 1 2720 0
	addi 7,1,8
	.loc 1 2719 0
	mr 8,17
	la 4,.LC5@l(11)
.LVL1449:
.L1091:
	.loc 1 2722 0
	beq- 7,.L1089
.LVL1450:
	.loc 1 2723 0
	lbz 25,3(8)
	lbz 26,2(8)
	lbz 28,0(8)
	slwi 25,25,24
	lbz 3,1(8)
	slwi 26,26,16
	or 26,25,26
	.loc 1 2724 0
	stw 0,88(1)
	.loc 1 2723 0
	or 28,26,28
	slwi 3,3,8
	or 3,28,3
	.loc 1 2724 0
	lfs 10,0(4)
	xoris 3,3,0x8000
	stw 3,92(1)
	lfd 6,88(1)
	lfs 0,0(7)
	fsub 10,6,10
	frsp 10,10
	fmadds 0,10,12,0
	stfs 0,0(7)
.LVL1451:
.L1090:
	.loc 1 2721 0
	add 8,8,10
.LVL1452:
	addi 7,7,4
	.loc 1 2720 0
	bdnz .L1091
.LVL1453:
.L1088:
	.loc 1 2718 0
	addi 24,24,1
.LVL1454:
	cmpw 6,24,9
	bne+ 6,.L1175
	.loc 1 2638 0
	addi 8,9,-1
	subf 8,23,8
	mullw 8,8,31
	.loc 1 2718 0
	add 8,12,8
.L1087:
	.loc 1 2730 0
	add 8,8,31
	.loc 1 2732 0
	fmuls 12,12,11
.LVL1455:
	.loc 1 2730 0
	stw 8,368(1)
.LVL1456:
	.loc 1 2733 0
	ble- 1,.L1093
	addi 4,1,8
	.loc 1 2739 0
	mtctr 30
	.loc 1 2733 0
	mr 7,8
	mr 3,4
	la 8,.LC5@l(11)
.LVL1457:
.L1096:
	.loc 1 2735 0
	beq- 7,.L1094
.LVL1458:
	.loc 1 2736 0
	lbz 24,3(7)
	lbz 25,2(7)
	lbz 26,0(7)
	slwi 24,24,24
	lbz 28,1(7)
	slwi 25,25,16
	or 25,24,25
	.loc 1 2737 0
	stw 0,104(1)
	.loc 1 2736 0
	or 26,25,26
	slwi 28,28,8
	or 28,26,28
	.loc 1 2737 0
	lfs 10,0(8)
	xoris 28,28,0x8000
	stw 28,108(1)
	lfd 6,104(1)
	lfs 0,0(3)
	fsub 10,6,10
	frsp 10,10
	fmadds 0,10,12,0
	stfs 0,0(3)
.LVL1459:
.L1095:
	.loc 1 2734 0
	add 7,7,10
.LVL1460:
	addi 3,3,4
	.loc 1 2733 0
	bdnz .L1096
.LVL1461:
	.loc 1 2746 0
	lwz 7,372(1)
.LVL1462:
	.loc 1 2745 0
	fmuls 0,9,13
.LVL1463:
	.loc 1 2753 0
	mtctr 30
	.loc 1 2746 0
	add 14,16,7
	add 14,29,14
.LVL1464:
	mr 7,14
.LVL1465:
.L1099:
	.loc 1 2749 0
	beq- 7,.L1097
.LVL1466:
	.loc 1 2750 0
	lbz 25,3(7)
	lbz 26,2(7)
	lbz 28,0(7)
	slwi 25,25,24
	lbz 3,1(7)
	slwi 26,26,16
	or 26,25,26
	.loc 1 2751 0
	stw 0,120(1)
	.loc 1 2750 0
	or 28,26,28
	slwi 3,3,8
	or 3,28,3
	.loc 1 2751 0
	lfs 10,0(8)
	xoris 3,3,0x8000
	stw 3,124(1)
	lfd 6,120(1)
	lfs 12,0(4)
	fsub 10,6,10
	frsp 10,10
	fmadds 12,10,0,12
	stfs 12,0(4)
.LVL1467:
.L1098:
	.loc 1 2748 0
	add 7,7,10
.LVL1468:
	addi 4,4,4
	.loc 1 2747 0
	bdnz .L1099
.LVL1469:
.L1170:
	.loc 1 2756 0 discriminator 1
	bge- 0,.L1100
	.loc 1 2756 0 is_stmt 0
	mr 24,6
	mr 17,14
.LVL1470:
.L1105:
	.loc 1 2757 0 is_stmt 1
	add 17,17,31
.LVL1471:
	.loc 1 2758 0
	ble- 1,.L1101
	.loc 1 2764 0
	mtctr 30
	.loc 1 2758 0
	addi 7,1,8
	.loc 1 2757 0
	mr 8,17
	la 4,.LC5@l(11)
.LVL1472:
.L1104:
	.loc 1 2760 0
	beq- 7,.L1102
.LVL1473:
	.loc 1 2761 0
	lbz 25,3(8)
	lbz 26,2(8)
	lbz 28,0(8)
	slwi 25,25,24
	lbz 3,1(8)
	slwi 26,26,16
	or 26,25,26
	.loc 1 2762 0
	stw 0,136(1)
	.loc 1 2761 0
	or 28,26,28
	slwi 3,3,8
	or 3,28,3
	.loc 1 2762 0
	lfs 12,0(4)
	xoris 3,3,0x8000
	stw 3,140(1)
	lfd 10,136(1)
	lfs 0,0(7)
	fsub 12,10,12
	frsp 12,12
	fmadds 0,9,12,0
	stfs 0,0(7)
.LVL1474:
.L1103:
	.loc 1 2759 0
	add 8,8,10
.LVL1475:
	addi 7,7,4
	.loc 1 2758 0
	bdnz .L1104
.LVL1476:
.L1101:
	.loc 1 2756 0
	addi 24,24,1
.LVL1477:
	cmpw 6,24,9
	bne+ 6,.L1105
	.loc 1 2638 0
	addi 8,9,-1
	subf 8,23,8
	mullw 8,31,8
	.loc 1 2756 0
	add 14,14,8
.LVL1478:
.L1100:
	.loc 1 2769 0
	fmuls 0,11,9
.LVL1479:
	.loc 1 2770 0
	ble- 1,.L1106
	.loc 1 2776 0
	mtctr 30
	.loc 1 2768 0
	addi 7,1,8
	.loc 1 2770 0
	add 14,14,31
	la 8,.LC5@l(11)
.LVL1480:
.L1109:
	.loc 1 2772 0
	beq- 7,.L1107
.LVL1481:
	.loc 1 2773 0
	lbz 26,3(14)
	lbz 28,2(14)
	lbz 3,0(14)
	slwi 26,26,24
	lbz 4,1(14)
	slwi 28,28,16
	or 28,26,28
	.loc 1 2774 0
	stw 0,152(1)
	.loc 1 2773 0
	or 3,28,3
	slwi 4,4,8
	or 4,3,4
	.loc 1 2774 0
	lfs 10,0(8)
	xoris 4,4,0x8000
	stw 4,156(1)
	lfd 6,152(1)
	lfs 12,0(7)
	fsub 10,6,10
	frsp 10,10
	fmadds 12,10,0,12
	stfs 12,0(7)
.LVL1482:
.L1108:
	.loc 1 2771 0
	add 14,14,10
.LVL1483:
	addi 7,7,4
	.loc 1 2770 0
	bdnz .L1109
.LVL1484:
.L1106:
	.loc 1 2781 0
	bge- 4,.L1110
	.loc 1 2731 0
	lwz 28,368(1)
	.loc 1 2781 0
	lwz 17,336(1)
.LVL1485:
.L1115:
	.loc 1 2782 0
	add 12,12,27
.LVL1486:
	.loc 1 2783 0
	add 28,28,27
.LVL1487:
	.loc 1 2784 0
	ble- 1,.L1111
	.loc 1 2793 0
	mtctr 30
	.loc 1 2784 0
	addi 4,1,8
	.loc 1 2783 0
	mr 7,28
	.loc 1 2782 0
	mr 8,12
	la 3,.LC5@l(11)
.LVL1488:
.L1114:
	.loc 1 2786 0
	beq- 7,.L1112
.LVL1489:
	.loc 1 2789 0
	lbz 23,3(7)
	lbz 24,2(7)
	lbz 25,0(7)
	slwi 23,23,24
	lbz 26,1(7)
	slwi 24,24,16
	or 24,23,24
	.loc 1 2790 0
	stw 0,168(1)
	.loc 1 2789 0
	or 25,24,25
	slwi 26,26,8
	or 26,25,26
	.loc 1 2790 0
	lfs 0,0(3)
	xoris 26,26,0x8000
	stw 26,172(1)
	.loc 1 2787 0
	lbz 23,3(8)
	lbz 24,2(8)
	lbz 25,0(8)
	slwi 23,23,24
	lbz 26,1(8)
	slwi 24,24,16
	or 24,23,24
	.loc 1 2788 0
	stw 0,176(1)
	.loc 1 2787 0
	or 25,24,25
	slwi 26,26,8
	or 26,25,26
	.loc 1 2790 0
	lfd 12,168(1)
	.loc 1 2788 0
	xoris 26,26,0x8000
	stw 26,180(1)
	.loc 1 2790 0
	fsub 12,12,0
	.loc 1 2788 0
	lfd 10,176(1)
	.loc 1 2790 0
	frsp 12,12
	.loc 1 2788 0
	fsub 0,10,0
	lfs 10,0(4)
	frsp 0,0
	fmadds 0,13,0,10
	.loc 1 2790 0
	fmadds 0,12,11,0
	stfs 0,0(4)
.LVL1490:
.L1113:
	.loc 1 2785 0
	add 8,8,10
.LVL1491:
	add 7,7,10
.LVL1492:
	addi 4,4,4
	.loc 1 2784 0
	bdnz .L1114
	.loc 1 2638 0
	add 12,12,20
	add 28,28,20
.LVL1493:
.L1111:
	.loc 1 2781 0
	addi 17,17,1
.LVL1494:
	cmpw 6,17,5
	bne+ 6,.L1115
	.loc 1 2885 0
	lwz 7,376(1)
	add 17,16,7
.LVL1495:
	add 17,17,31
	add 17,29,17
.LVL1496:
	b .L1153
.LVL1497:
.L1081:
	.loc 1 2799 0
	lfs 12,0(18)
	.loc 1 2798 0
	fsubs 0,11,0
.LVL1498:
	.loc 1 2800 0
	lwz 8,344(1)
	.loc 1 2799 0
	fsubs 12,12,7
	.loc 1 2800 0
	add 24,8,16
	add 24,29,24
	.loc 1 2799 0
	fmuls 12,12,0
.LVL1499:
	.loc 1 2801 0
	ble- 1,.L1117
	.loc 1 2638 0
	lis 4,.LC24@ha
	.loc 1 2801 0
	addi 6,1,8
	.loc 1 2638 0
	lfs 13,.LC24@l(4)
	.loc 1 2801 0
	mr 7,24
	la 8,.LC5@l(11)
	lwz 4,352(1)
	.loc 1 2803 0
	beq- 7,.L1118
.LVL1500:
.L1209:
	.loc 1 2804 0
	lbz 25,3(7)
	.loc 1 2801 0
	cmpw 6,6,4
	.loc 1 2804 0
	lbz 26,2(7)
	lbz 28,0(7)
	slwi 25,25,24
	lbz 3,1(7)
	slwi 26,26,16
	or 26,25,26
	.loc 1 2805 0
	stw 0,200(1)
	.loc 1 2804 0
	or 28,26,28
	slwi 3,3,8
	or 3,28,3
	.loc 1 2805 0
	lfs 10,0(8)
	xoris 3,3,0x8000
	.loc 1 2802 0
	add 7,7,10
.LVL1501:
	.loc 1 2805 0
	stw 3,204(1)
	lfd 6,200(1)
	fsub 10,6,10
	frsp 10,10
	fmadds 13,10,12,13
	stfs 13,0(6)
	.loc 1 2801 0
	beq- 6,.L1117
.LVL1502:
.L1210:
	.loc 1 2802 0
	lfsu 13,4(6)
	.loc 1 2803 0
	bne- 7,.L1209
.L1118:
	.loc 1 2807 0
	lwz 3,0(7)
	.loc 1 2801 0
	cmpw 6,6,4
	.loc 1 2807 0
	stw 0,208(1)
	.loc 1 2802 0
	add 7,7,10
	.loc 1 2807 0
	xoris 3,3,0x8000
	lfs 10,0(8)
	stw 3,212(1)
	lfd 6,208(1)
	fsub 10,6,10
	frsp 10,10
	fmadds 13,10,12,13
	stfs 13,0(6)
	.loc 1 2801 0
	bne+ 6,.L1210
.L1117:
	.loc 1 2810 0
	bge- 4,.L1122
	lwz 25,336(1)
	.loc 1 2800 0
	mr 17,24
.LVL1503:
.L1127:
	.loc 1 2811 0
	add 17,17,27
.LVL1504:
	.loc 1 2812 0
	ble- 1,.L1123
	.loc 1 2818 0
	mtctr 30
	.loc 1 2812 0
	addi 7,1,8
	.loc 1 2811 0
	mr 8,17
	la 6,.LC5@l(11)
.LVL1505:
.L1126:
	.loc 1 2814 0
	beq- 7,.L1124
.LVL1506:
	.loc 1 2815 0
	lbz 26,3(8)
	lbz 28,2(8)
	lbz 3,0(8)
	slwi 26,26,24
	lbz 4,1(8)
	slwi 28,28,16
	or 28,26,28
	.loc 1 2816 0
	stw 0,216(1)
	.loc 1 2815 0
	or 3,28,3
	slwi 4,4,8
	or 4,3,4
	.loc 1 2816 0
	lfs 12,0(6)
	xoris 4,4,0x8000
	stw 4,220(1)
	lfd 10,216(1)
	lfs 13,0(7)
	fsub 12,10,12
	frsp 12,12
	fmadds 13,12,0,13
	stfs 13,0(7)
.LVL1507:
.L1125:
	.loc 1 2813 0
	add 8,8,10
.LVL1508:
	addi 7,7,4
	.loc 1 2812 0
	bdnz .L1126
.LVL1509:
.L1123:
	.loc 1 2810 0
	addi 25,25,1
.LVL1510:
	cmpw 6,25,5
	bne+ 6,.L1127
	lwz 6,388(1)
	add 24,24,6
.LVL1511:
.L1122:
	.loc 1 2822 0
	fmuls 0,0,9
.LVL1512:
	.loc 1 2824 0
	ble- 1,.L1129
	.loc 1 2823 0
	addi 7,1,8
	.loc 1 2824 0
	add 24,24,27
	la 8,.LC5@l(11)
	.loc 1 2830 0
	mtctr 30
	.loc 1 2826 0
	beq- 7,.L1130
.LVL1513:
.L1211:
	.loc 1 2827 0
	lbz 28,3(24)
	lbz 3,2(24)
	lbz 4,0(24)
	slwi 28,28,24
	lbz 6,1(24)
	slwi 3,3,16
	or 3,28,3
	.loc 1 2828 0
	stw 0,232(1)
	.loc 1 2827 0
	or 4,3,4
	slwi 6,6,8
	or 6,4,6
	.loc 1 2828 0
	lfs 12,0(8)
	xoris 6,6,0x8000
	stw 6,236(1)
	lfd 10,232(1)
	lfs 13,0(7)
	fsub 12,10,12
	frsp 12,12
	fmadds 13,12,0,13
	stfs 13,0(7)
.LVL1514:
.L1131:
	.loc 1 2825 0
	add 24,24,10
.LVL1515:
	addi 7,7,4
	.loc 1 2824 0
	bdz .L1129
	.loc 1 2826 0
	bne- 7,.L1211
.LVL1516:
.L1130:
	.loc 1 2830 0
	lwz 6,0(24)
	stw 0,240(1)
	xoris 6,6,0x8000
	lfs 12,0(8)
	stw 6,244(1)
	lfd 10,240(1)
	lfs 13,0(7)
	fsub 12,10,12
	frsp 12,12
	fmadds 13,12,0,13
	stfs 13,0(7)
	b .L1131
.LVL1517:
.L1156:
	.loc 1 2896 0
	lwz 3,0(8)
	stw 0,320(1)
	xoris 3,3,0x8000
	lfs 0,0(4)
	stw 3,324(1)
	lfd 12,320(1)
	lfs 13,0(7)
	fsub 0,12,0
	frsp 0,0
	fadds 0,13,0
	stfs 0,0(7)
	b .L1157
.LVL1518:
.L1124:
	.loc 1 2818 0
	lwz 4,0(8)
	stw 0,224(1)
	xoris 4,4,0x8000
	lfs 12,0(6)
	stw 4,228(1)
	lfd 10,224(1)
	lfs 13,0(7)
	fsub 12,10,12
	frsp 12,12
	fmadds 13,12,0,13
	stfs 13,0(7)
	b .L1125
.LVL1519:
.L1102:
	.loc 1 2764 0
	lwz 3,0(8)
	stw 0,144(1)
	xoris 3,3,0x8000
	lfs 12,0(4)
	stw 3,148(1)
	lfd 10,144(1)
	lfs 0,0(7)
	fsub 12,10,12
	frsp 12,12
	fmadds 0,9,12,0
	stfs 0,0(7)
	b .L1103
.LVL1520:
.L1112:
	.loc 1 2793 0
	lwz 26,0(7)
	stw 0,184(1)
	xoris 26,26,0x8000
	lfs 0,0(3)
	stw 26,188(1)
	.loc 1 2792 0
	lwz 26,0(8)
	.loc 1 2793 0
	lfd 10,184(1)
	.loc 1 2792 0
	xoris 26,26,0x8000
	stw 0,192(1)
	stw 26,196(1)
	.loc 1 2793 0
	fsub 10,10,0
	.loc 1 2792 0
	lfd 6,192(1)
	.loc 1 2793 0
	frsp 10,10
	.loc 1 2792 0
	lfs 12,0(4)
	fsub 0,6,0
	.loc 1 2793 0
	fmuls 10,10,11
	.loc 1 2792 0
	frsp 0,0
	.loc 1 2793 0
	fmadds 0,13,0,10
	.loc 1 2792 0
	fadds 0,12,0
	stfs 0,0(4)
	b .L1113
.LVL1521:
.L1089:
	.loc 1 2726 0
	lwz 3,0(8)
	stw 0,96(1)
	xoris 3,3,0x8000
	lfs 10,0(4)
	stw 3,100(1)
	lfd 6,96(1)
	lfs 0,0(7)
	fsub 10,6,10
	frsp 10,10
	fmadds 0,10,12,0
	stfs 0,0(7)
	b .L1090
.LVL1522:
.L1097:
	.loc 1 2753 0
	lwz 3,0(7)
	stw 0,128(1)
	xoris 3,3,0x8000
	lfs 10,0(8)
	stw 3,132(1)
	lfd 6,128(1)
	lfs 12,0(4)
	fsub 10,6,10
	frsp 10,10
	fmadds 12,10,0,12
	stfs 12,0(4)
	b .L1098
.LVL1523:
.L1107:
	.loc 1 2776 0
	lwz 4,0(14)
	stw 0,160(1)
	xoris 4,4,0x8000
	lfs 10,0(8)
	stw 4,164(1)
	lfd 6,160(1)
	lfs 12,0(7)
	fsub 10,6,10
	frsp 10,10
	fmadds 12,10,0,12
	stfs 12,0(7)
	b .L1108
.LVL1524:
.L1094:
	.loc 1 2739 0
	lwz 28,0(7)
	stw 0,112(1)
	xoris 28,28,0x8000
	lfs 10,0(8)
	stw 28,116(1)
	lfd 6,112(1)
	lfs 0,0(3)
	fsub 10,6,10
	frsp 10,10
	fmadds 0,10,12,0
	stfs 0,0(3)
	b .L1095
.LVL1525:
.L1141:
	.loc 1 2855 0
	lwz 4,0(8)
	stw 0,272(1)
	xoris 4,4,0x8000
	lfs 13,0(6)
	stw 4,276(1)
	lfd 10,272(1)
	lfs 0,0(7)
	fsub 13,10,13
	frsp 13,13
	fmadds 0,13,12,0
	stfs 0,0(7)
	b .L1142
.LVL1526:
.L1145:
	.loc 1 2867 0
	lwz 6,0(24)
	stw 0,288(1)
	xoris 6,6,0x8000
	lfs 13,0(8)
	stw 6,292(1)
	lfd 10,288(1)
	lfs 0,0(7)
	fsub 13,10,13
	frsp 13,13
	fmadds 0,13,12,0
	stfs 0,0(7)
	b .L1146
.LVL1527:
.L1133:
	.loc 1 2871 0
	fsubs 13,9,7
	fsubs 0,11,0
	fmuls 13,13,0
.LVL1528:
	.loc 1 2873 0
	ble- 1,.L1129
	.loc 1 2872 0
	lwz 6,344(1)
	.loc 1 2638 0
	lis 8,.LC24@ha
	lfs 0,.LC24@l(8)
	la 8,.LC5@l(11)
	.loc 1 2872 0
	add 7,6,16
	addi 6,1,8
	.loc 1 2873 0
	add 7,29,7
	.loc 1 2875 0
	beq- 7,.L1149
.LVL1529:
.L1212:
	.loc 1 2876 0
	lbz 26,3(7)
	lbz 28,2(7)
	lbz 3,0(7)
	slwi 26,26,24
	lbz 4,1(7)
	slwi 28,28,16
	or 28,26,28
	.loc 1 2877 0
	stw 0,296(1)
	.loc 1 2876 0
	or 3,28,3
	slwi 4,4,8
	or 4,3,4
	.loc 1 2877 0
	lfs 12,0(8)
	xoris 4,4,0x8000
	stw 4,300(1)
	lfd 10,296(1)
	fsub 12,10,12
	frsp 12,12
	fmadds 0,12,13,0
	stfs 0,0(6)
.LVL1530:
.L1150:
	.loc 1 2873 0
	lwz 4,352(1)
	.loc 1 2874 0
	add 7,7,10
	.loc 1 2873 0
	cmpw 6,6,4
	beq- 6,.L1129
	.loc 1 2874 0
	lfsu 0,4(6)
	.loc 1 2875 0
	bne- 7,.L1212
.L1149:
	.loc 1 2879 0
	lwz 4,0(7)
	stw 0,304(1)
	xoris 4,4,0x8000
	lfs 12,0(8)
	stw 4,308(1)
	lfd 10,304(1)
	fsub 12,10,12
	frsp 12,12
	fmadds 0,12,13,0
	stfs 0,0(6)
	b .L1150
.LVL1531:
.L1169:
	.loc 1 2921 0
	fadds 0,9,30
	.loc 1 2922 0
	lfs 13,0(18)
	.loc 1 2920 0
	lwz 6,356(1)
	.loc 1 2922 0
	fcmpu 6,0,13
	.loc 1 2920 0
	add 9,5,6
.LVL1532:
	.loc 1 2922 0
	bng- 6,.L1167
	.loc 1 2923 0
	fsubs 0,0,13
.LVL1533:
	.loc 1 2924 0
	addi 9,9,1
.LVL1534:
.L1167:
	.loc 1 2687 0
	lwz 7,364(1)
	lwz 8,348(1)
	addi 7,7,1
	lwz 4,360(1)
	cmpw 6,7,8
	lwz 6,384(1)
	stw 7,364(1)
.LVL1535:
	add 4,4,6
	stw 4,360(1)
	beq- 6,.L1076
	fmr 7,9
	mr 8,5
	fmr 9,0
.LVL1536:
	mr 5,9
.LVL1537:
	b .L1079
.LVL1538:
.L1093:
	.loc 1 2746 0
	lwz 4,372(1)
	add 14,16,4
	add 14,29,14
.LVL1539:
	b .L1170
.LVL1540:
.L1076:
	.loc 1 2927 0
	lwz 0,516(1)
	lwz 12,404(1)
	mtlr 0
	lwz 14,408(1)
	lwz 15,412(1)
	mtcrf 56,12
	lwz 16,416(1)
	lwz 17,420(1)
	lwz 18,424(1)
	lwz 19,428(1)
	lwz 20,432(1)
	lwz 21,436(1)
	lwz 22,440(1)
	lwz 23,444(1)
	lwz 24,448(1)
	lwz 25,452(1)
	lwz 26,456(1)
	lwz 27,460(1)
	lwz 28,464(1)
	lwz 29,468(1)
.LVL1541:
	lwz 30,472(1)
.LVL1542:
	lwz 31,476(1)
	lfd 28,480(1)
	lfd 29,488(1)
.LVL1543:
	lfd 30,496(1)
	lfd 31,504(1)
	addi 1,1,512
	.cfi_remember_state
.LCFI136:
	.cfi_def_cfa_offset 0
	.cfi_restore 70
	.cfi_restore 63
	.cfi_restore 62
	.cfi_restore 61
	.cfi_restore 60
	.cfi_restore 31
	.cfi_restore 30
	.cfi_restore 29
	.cfi_restore 28
	.cfi_restore 27
	.cfi_restore 26
	.cfi_restore 25
	.cfi_restore 24
	.cfi_restore 23
	.cfi_restore 22
	.cfi_restore 21
	.cfi_restore 20
	.cfi_restore 19
	.cfi_restore 18
	.cfi_restore 17
	.cfi_restore 16
	.cfi_restore 15
	.cfi_restore 14
	blr
.LVL1544:
.L1203:
.LCFI137:
	.cfi_restore_state
	.loc 1 2667 0 discriminator 1
	slwi 9,8,1
.LVL1545:
	cmpw 7,9,5
	bne+ 7,.L1077
	.loc 1 2927 0
	lwz 0,516(1)
.LVL1546:
	.loc 1 2668 0
	mr 7,25
.LVL1547:
	.loc 1 2927 0
	lwz 12,404(1)
	.loc 1 2668 0
	mr 8,10
	stw 26,520(1)
	mr 9,27
	.loc 1 2927 0
	lwz 14,408(1)
	.loc 1 2668 0
	mr 10,31
.LVL1548:
	.loc 1 2927 0
	lwz 15,412(1)
	mtlr 0
	lwz 16,416(1)
	mtcrf 56,12
	lwz 17,420(1)
	lwz 18,424(1)
	lwz 19,428(1)
	lwz 20,432(1)
	lwz 21,436(1)
	lwz 22,440(1)
	lwz 23,444(1)
	lwz 24,448(1)
	lwz 25,452(1)
.LVL1549:
	lwz 26,456(1)
	lwz 27,460(1)
	lwz 28,464(1)
.LVL1550:
	lwz 29,468(1)
	lwz 30,472(1)
	lwz 31,476(1)
	lfd 28,480(1)
	lfd 29,488(1)
	lfd 30,496(1)
	lfd 31,504(1)
	addi 1,1,512
.LCFI138:
	.cfi_def_cfa_offset 0
	.cfi_restore 70
	.cfi_restore 63
	.cfi_restore 62
	.cfi_restore 61
	.cfi_restore 60
	.cfi_restore 31
	.cfi_restore 30
	.cfi_restore 29
	.cfi_restore 28
	.cfi_restore 27
	.cfi_restore 26
	.cfi_restore 25
	.cfi_restore 24
	.cfi_restore 23
	.cfi_restore 22
	.cfi_restore 21
	.cfi_restore 20
	.cfi_restore 19
	.cfi_restore 18
	.cfi_restore 17
	.cfi_restore 16
	.cfi_restore 15
	.cfi_restore 14
	.loc 1 2668 0
	b halveImage_int
.LVL1551:
.LVL1552:
.LVL1553:
.LVL1554:
.LVL1555:
.LVL1556:
	.cfi_endproc
.LFE25:
	.size	scale_internal_int, .-scale_internal_int
	.align 2
	.type	halveImage_float, @function
halveImage_float:
.LFB17:
	.loc 1 1127 0
	.cfi_startproc
.LVL1557:
	.loc 1 1134 0
	cmpwi 7,4,1
	.loc 1 1127 0
	mflr 0
	stwu 1,-104(1)
.LCFI139:
	.cfi_def_cfa_offset 104
	.cfi_register 65, 0
	stw 0,108(1)
	stw 19,52(1)
	stw 20,56(1)
	stw 21,60(1)
	stw 22,64(1)
	stw 23,68(1)
	stw 24,72(1)
	stw 25,76(1)
	stw 26,80(1)
	stw 27,84(1)
	stw 28,88(1)
	stw 29,92(1)
	stw 30,96(1)
	stw 31,100(1)
	.loc 1 1127 0
	lwz 0,112(1)
	.cfi_offset 31, -4
	.cfi_offset 30, -8
	.cfi_offset 29, -12
	.cfi_offset 28, -16
	.cfi_offset 27, -20
	.cfi_offset 26, -24
	.cfi_offset 25, -28
	.cfi_offset 24, -32
	.cfi_offset 23, -36
	.cfi_offset 22, -40
	.cfi_offset 21, -44
	.cfi_offset 20, -48
	.cfi_offset 19, -52
	.cfi_offset 65, 4
	.loc 1 1134 0
	beq- 7,.L1214
	.loc 1 1134 0 is_stmt 0 discriminator 1
	cmpwi 7,5,1
	beq- 7,.L1257
.LVL1558:
.LBB489:
.LBB490:
	.loc 1 1147 0 is_stmt 1
	cmpwi 7,0,0
	.loc 1 1141 0
	srwi 26,4,1
.LVL1559:
	.loc 1 1142 0
	srwi 22,5,1
.LVL1560:
	.loc 1 1147 0
	bne- 7,.L1258
.LVL1561:
	.loc 1 1148 0
	cmpwi 7,22,0
	ble- 7,.L1213
	.loc 1 1123 0
	mullw 4,3,8
.LVL1562:
	cmpwi 1,26,0
	cmpwi 6,3,0
	.loc 1 1148 0
	li 28,0
	lis 29,.LC47@ha
	.loc 1 1123 0
	slwi 30,3,2
.LVL1563:
.L1235:
	.loc 1 1149 0
	ble- 1,.L1237
	li 5,0
.LVL1564:
.L1239:
	.loc 1 1150 0
	ble- 6,.L1238
	.loc 1 1154 0
	lfs 11,.LC47@l(29)
	mtctr 3
	.loc 1 1150 0
	add 0,10,9
	.loc 1 1123 0
	addi 31,7,-4
.LBE490:
.LBE489:
.LBB498:
.LBB499:
.LBB500:
	mr 11,6
.LVL1565:
.L1236:
.LBE500:
.LBE499:
.LBE498:
.LBB529:
.LBB496:
	.loc 1 1151 0
	lfs 13,0(11)
	lfsx 0,11,10
	.loc 1 1152 0
	lfsx 12,11,9
	.loc 1 1151 0
	fadds 0,13,0
	.loc 1 1153 0
	lfsx 13,11,0
	.loc 1 1155 0
	add 11,11,8
.LVL1566:
	.loc 1 1152 0
	fadds 0,0,12
	.loc 1 1153 0
	fadds 0,0,13
	.loc 1 1154 0
	fmuls 0,0,11
	.loc 1 1151 0
	stfsu 0,4(31)
.LVL1567:
	.loc 1 1150 0
	bdnz .L1236
	.loc 1 1123 0
	add 7,7,30
	add 6,6,4
.LVL1568:
.L1238:
	.loc 1 1149 0
	addi 5,5,1
	.loc 1 1157 0
	add 6,6,10
.LVL1569:
	.loc 1 1149 0
	cmpw 7,26,5
	bne+ 7,.L1239
.LVL1570:
.L1237:
	.loc 1 1148 0
	addi 28,28,1
	.loc 1 1159 0
	add 6,6,9
.LVL1571:
	.loc 1 1148 0
	cmpw 7,22,28
	bne+ 7,.L1235
.LVL1572:
.L1213:
.LBE496:
.LBE529:
	.loc 1 1181 0
	lwz 0,108(1)
	lwz 19,52(1)
	mtlr 0
	lwz 20,56(1)
	lwz 21,60(1)
	lwz 22,64(1)
	lwz 23,68(1)
	lwz 24,72(1)
	lwz 25,76(1)
	lwz 26,80(1)
	lwz 27,84(1)
	lwz 28,88(1)
	lwz 29,92(1)
	lwz 30,96(1)
	lwz 31,100(1)
	addi 1,1,104
	.cfi_remember_state
.LCFI140:
	.cfi_def_cfa_offset 0
	.cfi_restore 31
	.cfi_restore 30
	.cfi_restore 29
	.cfi_restore 28
	.cfi_restore 27
	.cfi_restore 26
	.cfi_restore 25
	.cfi_restore 24
	.cfi_restore 23
	.cfi_restore 22
	.cfi_restore 21
	.cfi_restore 20
	.cfi_restore 19
	blr
.LVL1573:
.L1258:
.LCFI141:
	.cfi_restore_state
.LBB530:
.LBB497:
	.loc 1 1162 0
	cmpwi 7,22,0
	ble- 7,.L1213
	.loc 1 1123 0
	mullw 25,3,8
	cmpwi 1,26,0
	cmpwi 6,3,0
	.loc 1 1162 0
	li 20,0
	.loc 1 1123 0
	add 21,10,9
	lis 23,.LC47@ha
	slwi 24,3,2
.LVL1574:
.L1234:
	.loc 1 1163 0
	ble- 1,.L1241
	li 27,0
.LVL1575:
.L1243:
	.loc 1 1164 0
	ble- 6,.L1242
.LBB491:
	.loc 1 1174 0
	lfs 13,.LC47@l(23)
	mtctr 3
.LBE491:
	.loc 1 1123 0
	add 31,6,10
	add 4,6,9
	add 5,6,21
	mr 12,7
	mr 11,6
.LVL1576:
.L1240:
.LBB492:
	.loc 1 1166 0
	lbz 28,3(11)
	lbz 0,2(11)
	lbz 29,0(11)
	slwi 28,28,24
	lbz 30,1(11)
	slwi 0,0,16
	or 0,28,0
	.loc 1 1175 0
	add 11,11,8
.LVL1577:
	.loc 1 1166 0
	or 0,0,29
	slwi 30,30,8
	.loc 1 1167 0
	or 0,0,30
.LVL1578:
	stw 0,0(12)
.LVL1579:
	.loc 1 1168 0
	lbz 19,3(31)
	lbz 30,2(31)
	lbz 28,0(31)
	slwi 19,19,24
	lbz 29,1(31)
	slwi 30,30,16
	or 30,19,30
	.loc 1 1169 0
	stw 0,40(1)
	.loc 1 1168 0
	or 30,30,28
	slwi 29,29,8
	or 30,30,29
	.loc 1 1169 0
	lfs 11,40(1)
	stw 30,40(1)
.LBE492:
	.loc 1 1164 0
	add 31,31,8
.LVL1580:
.LBB493:
	.loc 1 1169 0
	lfs 12,40(1)
	fadds 0,11,12
	stfs 0,0(12)
.LVL1581:
	.loc 1 1170 0
	lbz 28,3(4)
	lbz 0,2(4)
	lbz 29,0(4)
	slwi 28,28,24
	lbz 30,1(4)
	slwi 0,0,16
	or 0,28,0
.LBE493:
	.loc 1 1164 0
	add 4,4,8
.LVL1582:
.LBB494:
	.loc 1 1170 0
	or 0,0,29
	slwi 30,30,8
	or 0,0,30
.LVL1583:
	.loc 1 1171 0
	stw 0,40(1)
	lfs 11,40(1)
	fadds 0,0,11
	stfs 0,0(12)
.LVL1584:
	.loc 1 1172 0
	lbz 28,3(5)
	lbz 0,2(5)
	lbz 29,0(5)
	slwi 28,28,24
	lbz 30,1(5)
	slwi 0,0,16
	or 0,28,0
.LBE494:
	.loc 1 1164 0
	add 5,5,8
.LVL1585:
.LBB495:
	.loc 1 1172 0
	or 0,0,29
	slwi 30,30,8
	or 0,0,30
.LVL1586:
	.loc 1 1173 0
	stw 0,40(1)
	lfs 12,40(1)
	fadds 0,0,12
	.loc 1 1174 0
	fmuls 0,0,13
	stfs 0,0(12)
	.loc 1 1175 0
	addi 12,12,4
.LVL1587:
.LBE495:
	.loc 1 1164 0
	bdnz .L1240
	.loc 1 1123 0
	add 7,7,24
	add 6,6,25
.LVL1588:
.L1242:
	.loc 1 1163 0
	addi 27,27,1
	.loc 1 1177 0
	add 6,6,10
.LVL1589:
	.loc 1 1163 0
	cmpw 7,26,27
	bne+ 7,.L1243
.LVL1590:
.L1241:
	.loc 1 1162 0
	addi 20,20,1
	.loc 1 1179 0
	add 6,6,9
.LVL1591:
	.loc 1 1162 0
	cmpw 7,22,20
	bne+ 7,.L1234
	b .L1213
.LVL1592:
.L1214:
.LBE497:
.LBE530:
	.loc 1 1135 0 discriminator 1
	cmpwi 7,5,1
	beq- 7,.L1259
.LVL1593:
.LBB531:
.LBB527:
.LBB512:
	.loc 1 1234 0
	srwi. 22,5,1
	.loc 1 1228 0
	subf 10,10,9
.LVL1594:
	.loc 1 1234 0
	ble- 0,.L1260
.LVL1595:
.LBB501:
	.loc 1 1123 0
	mullw 19,8,3
	cmpwi 6,3,0
	cmpwi 7,0,0
.LBE501:
	.loc 1 1234 0
	mr 24,7
	mr 25,6
	li 23,0
	lis 20,.LC21@ha
.LBB507:
.LBB502:
	.loc 1 1240 0
	lis 0,0x4330
	lis 26,.LC12@ha
.LBE502:
	.loc 1 1123 0
	slwi 21,3,2
.LVL1596:
.L1218:
	.loc 1 1236 0
	ble- 6,.L1230
.LBB503:
	.loc 1 1247 0
	lfs 11,.LC21@l(20)
	mtctr 3
.LBE503:
	.loc 1 1123 0
	addi 31,24,-4
	add 4,25,9
.LBE507:
.LBE512:
	mr 11,25
.LVL1597:
.L1229:
.LBB513:
.LBB508:
.LBB504:
	.loc 1 1239 0
	beq- 7,.L1227
	.loc 1 1240 0
	lbz 27,3(11)
	lbz 29,2(11)
	lbz 28,0(11)
	slwi 27,27,24
	lbz 30,1(11)
	slwi 29,29,16
	or 29,27,29
	stw 0,24(1)
	or 29,29,28
	slwi 30,30,8
	or 30,29,30
	lfs 12,.LC12@l(26)
	stw 30,28(1)
	.loc 1 1241 0
	lbz 27,3(4)
	lbz 29,2(4)
	lbz 28,0(4)
	slwi 27,27,24
	lbz 30,1(4)
	slwi 29,29,16
	or 29,27,29
	stw 0,32(1)
	or 29,29,28
	slwi 30,30,8
	or 30,29,30
	.loc 1 1240 0
	lfd 13,24(1)
	.loc 1 1241 0
	stw 30,36(1)
	.loc 1 1240 0
	fsub 13,13,12
	.loc 1 1241 0
	lfd 0,32(1)
	fsub 0,0,12
	.loc 1 1240 0
	frsp 13,13
.LVL1598:
	.loc 1 1241 0
	frsp 0,0
.LVL1599:
.L1228:
	.loc 1 1247 0
	fadds 0,0,13
.LVL1600:
	.loc 1 1249 0
	add 11,11,8
.LVL1601:
.LBE504:
	.loc 1 1236 0
	add 4,4,8
.LBB505:
	.loc 1 1247 0
	fmuls 0,0,11
	stfsu 0,4(31)
.LBE505:
	.loc 1 1236 0
	bdnz .L1229
	.loc 1 1123 0
	add 25,25,19
	add 24,24,21
.LVL1602:
.L1230:
.LBE508:
	.loc 1 1234 0
	addi 23,23,1
.LBB509:
	.loc 1 1252 0
	add 25,25,10
.LVL1603:
.LBE509:
	.loc 1 1234 0
	cmpw 1,22,23
.LBB510:
	.loc 1 1253 0
	add 25,25,9
.LVL1604:
.LBE510:
	.loc 1 1234 0
	bne+ 1,.L1218
	.loc 1 1230 0
	li 21,1
.LVL1605:
.L1219:
.LBE513:
	.loc 1 1257 0
	mullw 9,9,5
.LVL1606:
	add 6,6,9
.LVL1607:
	cmpw 7,25,6
	bne- 7,.L1261
	.loc 1 1258 0
	mullw 8,3,8
.LVL1608:
	mullw 21,8,21
.LVL1609:
	mullw 22,21,22
.LVL1610:
	add 7,7,22
.LVL1611:
	cmpw 7,24,7
	beq+ 7,.L1213
	lis 5,.LANCHOR0@ha
.LVL1612:
	lis 3,.LC15@ha
.LVL1613:
	la 5,.LANCHOR0@l(5)
	lis 6,.LC45@ha
	la 3,.LC15@l(3)
	li 4,1259
	addi 5,5,496
	la 6,.LC45@l(6)
	bl __assert_func
.LVL1614:
.L1227:
.LBB514:
.LBB511:
.LBB506:
	.loc 1 1244 0
	lfs 13,0(11)
.LVL1615:
	.loc 1 1245 0
	lfs 0,0(4)
.LVL1616:
	b .L1228
.LVL1617:
.L1257:
.LBE506:
.LBE511:
.LBE514:
	.loc 1 1202 0
	srwi. 21,4,1
	mr 24,7
	mr 25,6
	ble- 0,.L1225
.LBB515:
	.loc 1 1123 0
	mullw 19,8,3
	cmpwi 6,3,0
	cmpwi 7,0,0
.LBE515:
	.loc 1 1202 0
	li 22,0
	lis 12,.LC21@ha
.LBB521:
.LBB516:
	.loc 1 1208 0
	lis 0,0x4330
	lis 23,.LC12@ha
.LBE516:
	.loc 1 1123 0
	slwi 20,3,2
.LVL1618:
.L1221:
	.loc 1 1204 0
	ble- 6,.L1226
.LBB517:
	.loc 1 1216 0
	lfs 11,.LC21@l(12)
	mtctr 3
.LBE517:
	.loc 1 1123 0
	addi 30,24,-4
	add 31,25,10
.LBE521:
.LBE527:
.LBE531:
	mr 11,25
.LVL1619:
.L1224:
.LBB532:
.LBB528:
.LBB522:
.LBB518:
	.loc 1 1207 0
	beq- 7,.L1222
	.loc 1 1208 0
	lbz 26,3(11)
	lbz 28,2(11)
	lbz 27,0(11)
	slwi 26,26,24
	lbz 29,1(11)
	slwi 28,28,16
	or 28,26,28
	stw 0,8(1)
	or 28,28,27
	slwi 29,29,8
	or 29,28,29
	lfs 12,.LC12@l(23)
	stw 29,12(1)
	.loc 1 1209 0
	lbz 26,3(31)
	lbz 28,2(31)
	lbz 27,0(31)
	slwi 26,26,24
	lbz 29,1(31)
	slwi 28,28,16
	or 28,26,28
	stw 0,16(1)
	or 28,28,27
	slwi 29,29,8
	or 29,28,29
	.loc 1 1208 0
	lfd 13,8(1)
	.loc 1 1209 0
	stw 29,20(1)
	.loc 1 1208 0
	fsub 13,13,12
	.loc 1 1209 0
	lfd 0,16(1)
	fsub 0,0,12
	.loc 1 1208 0
	frsp 13,13
.LVL1620:
	.loc 1 1209 0
	frsp 0,0
.LVL1621:
.L1223:
	.loc 1 1216 0
	fadds 0,0,13
.LVL1622:
	.loc 1 1217 0
	add 11,11,8
.LVL1623:
.LBE518:
	.loc 1 1204 0
	add 31,31,8
.LBB519:
	.loc 1 1216 0
	fmuls 0,0,11
	stfsu 0,4(30)
.LBE519:
	.loc 1 1204 0
	bdnz .L1224
	.loc 1 1123 0
	add 25,25,19
	add 24,24,20
.LVL1624:
.L1226:
.LBE522:
	.loc 1 1202 0
	addi 22,22,1
.LBB523:
	.loc 1 1220 0
	add 25,25,10
.LVL1625:
.LBE523:
	.loc 1 1202 0
	cmpw 1,22,21
	bne+ 1,.L1221
.LVL1626:
.L1225:
.LBB524:
	.loc 1 1223 0
	mullw 0,10,4
	.loc 1 1200 0
	li 22,1
	.loc 1 1223 0
	subf 0,0,9
	.loc 1 1224 0
	add 25,25,0
.LVL1627:
	b .L1219
.LVL1628:
.L1222:
.LBE524:
.LBB525:
.LBB520:
	.loc 1 1212 0
	lfs 13,0(11)
.LVL1629:
	.loc 1 1213 0
	lfs 0,0(31)
.LVL1630:
	b .L1223
.LVL1631:
.L1260:
.LBE520:
.LBE525:
.LBB526:
	.loc 1 1234 0
	mr 24,7
	mr 25,6
	.loc 1 1230 0
	li 21,1
	b .L1219
.LVL1632:
.L1261:
.LBE526:
	.loc 1 1257 0
	lis 5,.LANCHOR0@ha
.LVL1633:
	lis 3,.LC15@ha
.LVL1634:
	la 5,.LANCHOR0@l(5)
	lis 6,.LC44@ha
	la 3,.LC15@l(3)
	li 4,1257
	addi 5,5,496
	la 6,.LC44@l(6)
	bl __assert_func
.LVL1635:
.L1259:
.LBE528:
.LBE532:
	.loc 1 1135 0 discriminator 2
	lis 5,.LANCHOR0@ha
.LVL1636:
	lis 3,.LC15@ha
.LVL1637:
	la 5,.LANCHOR0@l(5)
	lis 6,.LC43@ha
.LVL1638:
	la 3,.LC15@l(3)
	li 4,1135
.LVL1639:
	addi 5,5,476
	la 6,.LC43@l(6)
	bl __assert_func
.LVL1640:
.LVL1641:
.LVL1642:
.LVL1643:
	.cfi_endproc
.LFE17:
	.size	halveImage_float, .-halveImage_float
	.align 2
	.type	scale_internal_float, @function
scale_internal_float:
.LFB26:
	.loc 1 2937 0
	.cfi_startproc
.LVL1644:
	.loc 1 2960 0
	slwi 11,7,1
	.loc 1 2937 0
	mfcr 12
	.loc 1 2960 0
	cmpw 7,11,4
	.loc 1 2937 0
	mflr 0
	stwu 1,-248(1)
.LCFI142:
	.cfi_def_cfa_offset 248
	.cfi_register 65, 0
	.cfi_register 70, 12
	mr 11,5
	stw 0,252(1)
	mr 0,4
	.cfi_offset 65, 4
	stw 25,188(1)
	mr 25,9
	.cfi_offset 25, -60
	stw 26,192(1)
	stw 27,196(1)
	stw 28,200(1)
	mr 28,7
	.cfi_offset 28, -48
	.cfi_offset 27, -52
	.cfi_offset 26, -56
	stw 29,204(1)
	mr 29,6
	.cfi_offset 29, -44
	stw 30,208(1)
	mr 30,3
	.cfi_offset 30, -40
	stw 31,212(1)
	stfd 28,216(1)
	stfd 29,224(1)
	stfd 30,232(1)
	stfd 31,240(1)
	stw 14,144(1)
	stw 15,148(1)
	stw 16,152(1)
	stw 17,156(1)
	stw 18,160(1)
	stw 19,164(1)
	stw 20,168(1)
	stw 21,172(1)
	stw 22,176(1)
	stw 23,180(1)
	stw 24,184(1)
	stw 12,140(1)
	.loc 1 2937 0
	stw 8,88(1)
	lwz 27,256(1)
	lwz 31,260(1)
	.cfi_offset 70, -108
	.cfi_offset 24, -64
	.cfi_offset 23, -68
	.cfi_offset 22, -72
	.cfi_offset 21, -76
	.cfi_offset 20, -80
	.cfi_offset 19, -84
	.cfi_offset 18, -88
	.cfi_offset 17, -92
	.cfi_offset 16, -96
	.cfi_offset 15, -100
	.cfi_offset 14, -104
	.cfi_offset 63, -8
	.cfi_offset 62, -16
	.cfi_offset 61, -24
	.cfi_offset 60, -32
	.cfi_offset 31, -36
	lwz 26,264(1)
	.loc 1 2960 0
	beq- 7,.L1389
.LVL1645:
.L1263:
	.loc 1 2966 0
	lwz 7,88(1)
.LVL1646:
	lis 24,0x4330
	xoris 11,11,0x8000
	stw 24,24(1)
	xoris 9,7,0x8000
	stw 11,28(1)
	stw 9,36(1)
	lis 9,.LC5@ha
	stw 24,32(1)
	.loc 1 2967 0
	xoris 0,0,0x8000
.LVL1647:
	.loc 1 2966 0
	lfs 31,.LC5@l(9)
	.loc 1 2967 0
	xoris 9,28,0x8000
	.loc 1 2966 0
	lfd 30,24(1)
	lfd 13,32(1)
	.loc 1 2967 0
	stw 0,44(1)
	.loc 1 2966 0
	fsub 30,30,31
	.loc 1 2967 0
	stw 9,52(1)
	.loc 1 2966 0
	fsub 13,13,31
	.loc 1 2967 0
	stw 24,40(1)
	stw 24,48(1)
	.loc 1 2966 0
	frsp 30,30
	.loc 1 2967 0
	lfd 29,40(1)
	.loc 1 2966 0
	frsp 13,13
	.loc 1 2967 0
	lfd 0,48(1)
	fsub 29,29,31
	.loc 1 2968 0
	stw 10,124(1)
	.loc 1 2967 0
	fsub 0,0,31
	.loc 1 2966 0
	fdivs 30,30,13
.LVL1648:
	.loc 1 2967 0
	frsp 0,0
	frsp 29,29
	.loc 1 2968 0
	fmr 1,30
	.loc 1 2967 0
	fdivs 29,29,0
.LVL1649:
	.loc 1 2968 0
	bl floor
.LVL1650:
	fmr 28,1
.LVL1651:
	.loc 1 2970 0
	fmr 1,29
.LVL1652:
	bl floor
	addi 8,1,76
	fctiwz 1,1
