	.file	"net_main.c"
	.section	".text"
.Ltext0:
	.cfi_sections	.debug_frame
	.align 2
	.type	PrintSlist, @function
PrintSlist:
.LFB45:
	.file 1 "d:/Data/Nintendo/TenebraeGX/src/net_main.c"
	.loc 1 271 0
	.cfi_startproc
	stwu 1,-40(1)
.LCFI0:
	.cfi_def_cfa_offset 40
	mflr 0
	stw 25,12(1)
	.loc 1 274 0
	lis 25,.LANCHOR0@ha
	.cfi_offset 25, -28
	.cfi_register 65, 0
	.loc 1 271 0
	stw 27,20(1)
	.loc 1 274 0
	lis 27,hostCacheCount@ha
	.cfi_offset 27, -20
	.loc 1 271 0
	stw 0,44(1)
	stw 31,36(1)
	.loc 1 274 0
	lwz 0,hostCacheCount@l(27)
	.cfi_offset 31, -4
	.cfi_offset 65, 4
	lwz 31,.LANCHOR0@l(25)
.LVL0:
	.loc 1 271 0
	stw 26,16(1)
	.loc 1 274 0
	cmpw 7,31,0
	.loc 1 271 0
	stw 28,24(1)
	stw 29,28(1)
	stw 30,32(1)
	.loc 1 274 0
	bge- 7,.L2
	.cfi_offset 30, -8
	.cfi_offset 29, -12
	.cfi_offset 28, -16
	.cfi_offset 26, -24
	.loc 1 270 0
	mulli 9,31,96
	lis 29,hostcache@ha
	la 29,hostcache@l(29)
	.loc 1 279 0
	lis 26,.LC1@ha
	.loc 1 270 0
	add 30,29,9
	.loc 1 277 0
	lis 28,.LC0@ha
	.loc 1 270 0
	addi 30,30,68
	la 27,hostCacheCount@l(27)
	.loc 1 279 0
	la 26,.LC1@l(26)
	.loc 1 277 0
	la 28,.LC0@l(28)
	b .L5
.LVL1:
.L8:
	lwz 6,-4(30)
	.loc 1 274 0
	addi 31,31,1
.LVL2:
	addi 30,30,96
	.loc 1 277 0
	crxor 6,6,6
	bl Con_Printf
.LVL3:
	.loc 1 274 0
	lwz 0,0(27)
	mulli 9,31,96
	cmpw 7,0,31
	ble- 7,.L2
.L5:
	.loc 1 276 0
	lwz 7,0(30)
	.loc 1 279 0
	addi 0,9,16
	add 4,29,9
	.loc 1 277 0
	mr 3,28
	.loc 1 276 0
	cmpwi 7,7,0
	.loc 1 277 0
	add 5,29,0
	.loc 1 276 0
	bne- 7,.L8
	.loc 1 279 0
	add 5,29,0
	mr 3,26
	crxor 6,6,6
	bl Con_Printf
	.loc 1 274 0
	lwz 0,0(27)
	addi 31,31,1
.LVL4:
	addi 30,30,96
	cmpw 7,0,31
	mulli 9,31,96
	bgt+ 7,.L5
.L2:
	.loc 1 282 0
	lwz 0,44(1)
	.loc 1 281 0
	stw 31,.LANCHOR0@l(25)
	.loc 1 282 0
	mtlr 0
	lwz 25,12(1)
	lwz 26,16(1)
	lwz 27,20(1)
	lwz 28,24(1)
	lwz 29,28(1)
	lwz 30,32(1)
	lwz 31,36(1)
.LVL5:
	addi 1,1,40
.LCFI1:
	.cfi_def_cfa_offset 0
	.cfi_restore 31
	.cfi_restore 30
	.cfi_restore 29
	.cfi_restore 28
	.cfi_restore 27
	.cfi_restore 26
	.cfi_restore 25
	blr
	.cfi_endproc
.LFE45:
	.size	PrintSlist, .-PrintSlist
	.align 2
	.type	PrintSlistTrailer, @function
PrintSlistTrailer:
.LFB46:
	.loc 1 286 0
	.cfi_startproc
	mflr 0
	stwu 1,-8(1)
.LCFI2:
	.cfi_def_cfa_offset 8
	.cfi_register 65, 0
	.loc 1 287 0
	lis 9,hostCacheCount@ha
	.loc 1 286 0
	stw 0,12(1)
	.loc 1 287 0
	lwz 0,hostCacheCount@l(9)
	.cfi_offset 65, 4
	cmpwi 7,0,0
	bne- 7,.L12
	.loc 1 290 0
	lis 3,.LC3@ha
	la 3,.LC3@l(3)
	crxor 6,6,6
	bl Con_Printf
	.loc 1 291 0
	lwz 0,12(1)
	addi 1,1,8
	.cfi_remember_state
.LCFI3:
	.cfi_def_cfa_offset 0
	mtlr 0
	blr
.L12:
.LCFI4:
	.cfi_restore_state
	.loc 1 288 0
	lis 3,.LC2@ha
	la 3,.LC2@l(3)
	crxor 6,6,6
	bl Con_Printf
	.loc 1 291 0
	lwz 0,12(1)
	addi 1,1,8
.LCFI5:
	.cfi_def_cfa_offset 0
	mtlr 0
	blr
	.cfi_endproc
.LFE46:
	.size	PrintSlistTrailer, .-PrintSlistTrailer
	.align 2
	.type	NET_Listen_f, @function
NET_Listen_f:
.LFB41:
	.loc 1 176 0
	.cfi_startproc
	mflr 0
	stwu 1,-24(1)
.LCFI6:
	.cfi_def_cfa_offset 24
	.cfi_register 65, 0
	stw 28,8(1)
	stw 0,28(1)
	stw 29,12(1)
	stw 30,16(1)
	stw 31,20(1)
	.loc 1 177 0
	.cfi_offset 31, -4
	.cfi_offset 30, -8
	.cfi_offset 29, -12
	.cfi_offset 65, 4
	.cfi_offset 28, -16
	bl Cmd_Argc
	cmpwi 7,3,2
	beq- 7,.L14
	.loc 1 179 0
	lis 9,.LANCHOR0+4@ha
	lis 3,.LC4@ha
	lbz 4,.LANCHOR0+4@l(9)
	la 3,.LC4@l(3)
	crxor 6,6,6
	bl Con_Printf
.L13:
	.loc 1 191 0
	lwz 0,28(1)
	lwz 28,8(1)
	mtlr 0
	lwz 29,12(1)
	lwz 30,16(1)
	lwz 31,20(1)
	addi 1,1,24
	.cfi_remember_state
.LCFI7:
	.cfi_def_cfa_offset 0
	.cfi_restore 31
	.cfi_restore 30
	.cfi_restore 29
	.cfi_restore 28
	blr
.L14:
.LCFI8:
	.cfi_restore_state
.LBB10:
.LBB11:
	.loc 1 183 0
	li 3,1
	.loc 1 185 0
	lis 30,net_numdrivers@ha
	.loc 1 183 0
	bl Cmd_Argv
	lis 28,.LANCHOR0@ha
	bl Q_atoi
	.loc 1 185 0
	lwz 0,net_numdrivers@l(30)
	.loc 1 183 0
	cntlzw 3,3
	la 28,.LANCHOR0@l(28)
	.loc 1 185 0
	cmpwi 7,0,0
	.loc 1 183 0
	srwi 3,3,5
	xori 3,3,1
	.loc 1 185 0
	lis 31,net_driverlevel@ha
	li 0,0
	.loc 1 183 0
	stb 3,4(28)
	.loc 1 185 0
	stw 0,net_driverlevel@l(31)
	ble- 7,.L13
	lis 29,net_drivers@ha
	la 31,net_driverlevel@l(31)
	la 29,net_drivers@l(29)
	la 30,net_numdrivers@l(30)
	b .L17
.L16:
	lwz 11,0(31)
	lwz 9,0(30)
	addi 0,11,1
	cmpw 7,0,9
	stw 0,0(31)
	bge- 7,.L13
.L17:
	.loc 1 187 0
	mulli 0,0,60
	add 9,29,0
	lbz 0,4(9)
	cmpwi 7,0,0
	beq+ 7,.L16
	.loc 1 189 0
	lwz 0,12(9)
	lbz 3,4(28)
	mtctr 0
	bctrl
	b .L16
.LBE11:
.LBE10:
	.cfi_endproc
.LFE41:
	.size	NET_Listen_f, .-NET_Listen_f
	.align 2
	.type	NET_Port_f, @function
NET_Port_f:
.LFB43:
	.loc 1 234 0
	.cfi_startproc
	mflr 0
	stwu 1,-8(1)
.LCFI9:
	.cfi_def_cfa_offset 8
	.cfi_register 65, 0
	stw 0,12(1)
	.loc 1 237 0
	.cfi_offset 65, 4
	bl Cmd_Argc
	cmpwi 7,3,2
	beq- 7,.L20
	.loc 1 239 0
	lis 9,net_hostport@ha
	lis 3,.LC5@ha
	lwz 4,net_hostport@l(9)
	la 3,.LC5@l(3)
	crxor 6,6,6
	bl Con_Printf
.L19:
	.loc 1 259 0
	lwz 0,12(1)
	addi 1,1,8
	.cfi_remember_state
.LCFI10:
	.cfi_def_cfa_offset 0
	mtlr 0
	blr
.L20:
.LCFI11:
	.cfi_restore_state
	.loc 1 243 0
	li 3,1
	bl Cmd_Argv
	bl Q_atoi
.LVL6:
	.loc 1 244 0
	addi 0,3,-1
	cmplwi 7,0,65533
	bgt- 7,.L23
	.loc 1 253 0
	lis 9,.LANCHOR0+4@ha
	lbz 0,.LANCHOR0+4@l(9)
	.loc 1 250 0
	lis 9,DEFAULTnet_hostport@ha
	stw 3,DEFAULTnet_hostport@l(9)
	.loc 1 251 0
	lis 9,net_hostport@ha
	.loc 1 253 0
	cmpwi 7,0,0
	.loc 1 251 0
	stw 3,net_hostport@l(9)
	.loc 1 253 0
	beq+ 7,.L19
.LBB14:
.LBB15:
	.loc 1 256 0
	lis 3,.LC7@ha
.LVL7:
	la 3,.LC7@l(3)
	bl Cbuf_AddText
.LVL8:
	.loc 1 257 0
	lis 3,.LC8@ha
	la 3,.LC8@l(3)
	bl Cbuf_AddText
.LBE15:
.LBE14:
	.loc 1 259 0
	lwz 0,12(1)
	addi 1,1,8
	.cfi_remember_state
.LCFI12:
	.cfi_def_cfa_offset 0
	mtlr 0
	blr
.LVL9:
.L23:
.LCFI13:
	.cfi_restore_state
	.loc 1 246 0
	lis 3,.LC6@ha
.LVL10:
	la 3,.LC6@l(3)
	crxor 6,6,6
	bl Con_Printf
.LVL11:
	.loc 1 247 0
	b .L19
	.cfi_endproc
.LFE43:
	.size	NET_Port_f, .-NET_Port_f
	.align 2
	.type	MaxPlayers_f, @function
MaxPlayers_f:
.LFB42:
	.loc 1 195 0
	.cfi_startproc
	mflr 0
	stwu 1,-24(1)
.LCFI14:
	.cfi_def_cfa_offset 24
	.cfi_register 65, 0
	stw 29,12(1)
	stw 0,28(1)
	stw 30,16(1)
	stw 31,20(1)
	.loc 1 198 0
	.cfi_offset 31, -4
	.cfi_offset 30, -8
	.cfi_offset 65, 4
	.cfi_offset 29, -12
	bl Cmd_Argc
	cmpwi 7,3,2
	bne- 7,.L36
	.loc 1 204 0
	lis 9,sv@ha
	lbz 0,sv@l(9)
	cmpwi 7,0,0
	bne- 7,.L37
.LBB18:
.LBB19:
	.loc 1 210 0
	li 3,1
	bl Cmd_Argv
	bl Q_atoi
.LVL12:
	.loc 1 211 0
	mr. 29,3
	ble- 0,.L38
.L28:
.LVL13:
	.loc 1 213 0
	lis 31,svs@ha
	la 9,svs@l(31)
	lwz 30,4(9)
	cmpw 7,30,29
	blt- 7,.L39
	.loc 1 219 0
	cmpwi 7,29,1
	beq- 7,.L40
.L30:
	.loc 1 222 0
	ble- 7,.L32
	lis 9,.LANCHOR0+4@ha
	lbz 0,.LANCHOR0+4@l(9)
	cmpwi 7,0,0
	beq- 7,.L41
.L32:
	.loc 1 229 0
	lis 3,.LC12@ha
	lis 4,.LC13@ha
	la 3,.LC12@l(3)
	la 4,.LC13@l(4)
	.loc 1 225 0
	stw 29,svs@l(31)
	.loc 1 229 0
	bl Cvar_Set
.LBE19:
.LBE18:
	.loc 1 230 0
	lwz 0,28(1)
	lwz 29,12(1)
.LVL14:
	mtlr 0
	lwz 30,16(1)
	lwz 31,20(1)
	addi 1,1,24
	.cfi_remember_state
	.cfi_restore 29
	.cfi_restore 30
	.cfi_restore 31
.LCFI15:
	.cfi_def_cfa_offset 0
	blr
.L37:
.LCFI16:
	.cfi_restore_state
	.loc 1 206 0
	lis 3,.LC10@ha
	la 3,.LC10@l(3)
	crxor 6,6,6
	bl Con_Printf
	.loc 1 230 0
	lwz 0,28(1)
	lwz 29,12(1)
	mtlr 0
	lwz 30,16(1)
	lwz 31,20(1)
	addi 1,1,24
	.cfi_remember_state
.LCFI17:
	.cfi_def_cfa_offset 0
	.cfi_restore 31
	.cfi_restore 30
	.cfi_restore 29
	blr
.L36:
.LCFI18:
	.cfi_restore_state
	.loc 1 200 0
	lis 9,svs@ha
	lis 3,.LC9@ha
	lwz 4,svs@l(9)
	la 3,.LC9@l(3)
	crxor 6,6,6
	bl Con_Printf
	.loc 1 230 0
	lwz 0,28(1)
	lwz 29,12(1)
	mtlr 0
	lwz 30,16(1)
	lwz 31,20(1)
	addi 1,1,24
	.cfi_remember_state
	.cfi_restore 29
	.cfi_restore 30
	.cfi_restore 31
.LCFI19:
	.cfi_def_cfa_offset 0
	blr
.LVL15:
.L41:
.LCFI20:
	.cfi_restore_state
.LBB22:
.LBB20:
	.loc 1 223 0
	lis 3,.LC8@ha
	la 3,.LC8@l(3)
	bl Cbuf_AddText
	b .L32
.L39:
.LVL16:
	.loc 1 216 0
	lis 3,.LC11@ha
	mr 4,30
	la 3,.LC11@l(3)
	mr 29,30
	crxor 6,6,6
	bl Con_Printf
	.loc 1 219 0
	cmpwi 7,29,1
	bne+ 7,.L30
.LVL17:
.L40:
	lis 9,.LANCHOR0+4@ha
	lbz 0,.LANCHOR0+4@l(9)
	cmpwi 7,0,0
	bne- 7,.L42
.L31:
	.loc 1 227 0
	lis 3,.LC12@ha
	lis 4,.LC14@ha
	.loc 1 225 0
	li 0,1
	.loc 1 227 0
	la 3,.LC12@l(3)
	la 4,.LC14@l(4)
	.loc 1 225 0
	stw 0,svs@l(31)
	.loc 1 227 0
	bl Cvar_Set
.LBE20:
.LBE22:
	.loc 1 230 0
	lwz 0,28(1)
	lwz 29,12(1)
.LVL18:
	mtlr 0
	lwz 30,16(1)
	lwz 31,20(1)
	addi 1,1,24
	.cfi_remember_state
	.cfi_restore 29
	.cfi_restore 30
	.cfi_restore 31
.LCFI21:
	.cfi_def_cfa_offset 0
	blr
.LVL19:
.L38:
.LCFI22:
	.cfi_restore_state
.LBB23:
.LBB21:
	.loc 1 212 0
	li 29,1
	b .L28
.LVL20:
.L42:
	.loc 1 220 0
	lis 3,.LC7@ha
	la 3,.LC7@l(3)
	bl Cbuf_AddText
	b .L31
.LBE21:
.LBE23:
	.cfi_endproc
.LFE42:
	.size	MaxPlayers_f, .-MaxPlayers_f
	.align 2
	.globl SetNetTime
	.type	SetNetTime, @function
SetNetTime:
.LFB38:
	.loc 1 96 0
	.cfi_startproc
	mflr 0
	stwu 1,-8(1)
.LCFI23:
	.cfi_def_cfa_offset 8
	.cfi_register 65, 0
	stw 0,12(1)
	.loc 1 97 0
	.cfi_offset 65, 4
	bl Sys_FloatTime
	.loc 1 99 0
	lwz 0,12(1)
	.loc 1 97 0
	lis 9,net_time@ha
	.loc 1 99 0
	.loc 1 97 0
	stfd 1,net_time@l(9)
	.loc 1 99 0
	mtlr 0
	addi 1,1,8
.LCFI24:
	.cfi_def_cfa_offset 0
	blr
	.cfi_endproc
.LFE38:
	.size	SetNetTime, .-SetNetTime
	.align 2
	.globl NET_NewQSocket
	.type	NET_NewQSocket, @function
NET_NewQSocket:
.LFB39:
	.loc 1 111 0
	.cfi_startproc
	stwu 1,-16(1)
.LCFI25:
	.cfi_def_cfa_offset 16
	.loc 1 114 0
	lis 11,net_freeSockets@ha
	.loc 1 111 0
	mflr 0
	stw 31,12(1)
	.loc 1 114 0
	lwz 31,net_freeSockets@l(11)
	.cfi_offset 31, -4
	.cfi_register 65, 0
	.loc 1 111 0
	stw 0,20(1)
	.loc 1 114 0
	cmpwi 7,31,0
	.loc 1 111 0
	stw 30,8(1)
	.loc 1 114 0
	beq- 7,.L45
	.cfi_offset 30, -8
	.cfi_offset 65, 4
	.loc 1 117 0
	lis 9,svs@ha
	lis 10,net_activeconnections@ha
	lwz 9,svs@l(9)
	lwz 0,net_activeconnections@l(10)
	cmpw 7,9,0
	ble- 7,.L46
.LVL21:
	.loc 1 125 0
	lis 9,net_activeSockets@ha
	.loc 1 122 0
	lwz 10,0(31)
	.loc 1 129 0
	lis 30,net_time@ha
	.loc 1 125 0
	lwz 0,net_activeSockets@l(9)
	.loc 1 129 0
	lfd 0,net_time@l(30)
	.loc 1 130 0
	addis 3,31,0x1
	.loc 1 122 0
	stw 10,net_freeSockets@l(11)
	.loc 1 128 0
	li 11,0
	.loc 1 125 0
	stw 0,0(31)
	.loc 1 130 0
	lis 4,.LC15@ha
	.loc 1 129 0
	stfd 0,8(31)
	.loc 1 130 0
	addi 3,3,-32672
	.loc 1 128 0
	stb 11,32(31)
	.loc 1 130 0
	la 4,.LC15@l(4)
	.loc 1 126 0
	stw 31,net_activeSockets@l(9)
	.loc 1 130 0
	bl Q_strcpy
.LVL22:
	.loc 1 131 0
	lis 9,net_driverlevel@ha
	lwz 9,net_driverlevel@l(9)
	.loc 1 132 0
	li 0,0
	.loc 1 136 0
	lfd 0,net_time@l(30)
	.loc 1 131 0
	stw 9,36(31)
	.loc 1 134 0
	li 9,1
	.loc 1 132 0
	stw 0,44(31)
	.loc 1 133 0
	stw 0,48(31)
	.loc 1 134 0
	stb 9,33(31)
	.loc 1 135 0
	stb 0,34(31)
	.loc 1 136 0
	stfd 0,16(31)
	.loc 1 137 0
	stw 0,52(31)
	.loc 1 138 0
	stw 0,56(31)
	.loc 1 139 0
	stw 0,60(31)
	.loc 1 140 0
	stw 0,64(31)
	.loc 1 141 0
	stw 0,16452(31)
	.loc 1 142 0
	stw 0,16456(31)
	.loc 1 143 0
	stw 0,16460(31)
.LVL23:
.L45:
	.loc 1 146 0
	lwz 0,20(1)
	mr 3,31
	lwz 30,8(1)
	mtlr 0
	lwz 31,12(1)
	addi 1,1,16
	.cfi_remember_state
.LCFI26:
	.cfi_def_cfa_offset 0
	.cfi_restore 31
	.cfi_restore 30
	blr
.L46:
.LCFI27:
	.cfi_restore_state
	lwz 0,20(1)
	.loc 1 118 0
	li 31,0
	.loc 1 146 0
	mr 3,31
	lwz 30,8(1)
	mtlr 0
	lwz 31,12(1)
	addi 1,1,16
	.cfi_restore 30
	.cfi_restore 31
.LCFI28:
	.cfi_def_cfa_offset 0
	blr
	.cfi_endproc
.LFE39:
	.size	NET_NewQSocket, .-NET_NewQSocket
	.align 2
	.globl NET_FreeQSocket
	.type	NET_FreeQSocket, @function
NET_FreeQSocket:
.LFB40:
	.loc 1 150 0
	.cfi_startproc
.LVL24:
	.loc 1 154 0
	lis 11,net_activeSockets@ha
	.loc 1 150 0
	mflr 0
	.loc 1 154 0
	lwz 9,net_activeSockets@l(11)
	.loc 1 150 0
	stwu 1,-16(1)
.LCFI29:
	.cfi_def_cfa_offset 16
	.cfi_register 65, 0
	.loc 1 154 0
	cmpw 7,3,9
	.loc 1 150 0
	stw 31,12(1)
	mr 31,3
	.cfi_offset 31, -4
	stw 0,20(1)
	.loc 1 154 0
	beq- 7,.L57
	.cfi_offset 65, 4
.LVL25:
	.loc 1 158 0 discriminator 1
	cmpwi 7,9,0
	beq- 7,.L53
	.loc 1 159 0
	lwz 11,0(9)
	cmpw 7,11,3
	bne+ 7,.L56
	b .L59
.LVL26:
.L52:
	lwz 0,0(11)
	cmpw 7,0,31
	beq- 7,.L50
	mr 11,0
.LVL27:
.L56:
	.loc 1 158 0
	cmpwi 7,11,0
	bne+ 7,.L52
.LVL28:
.L53:
	.loc 1 165 0
	lis 3,.LC16@ha
.LVL29:
	la 3,.LC16@l(3)
	crxor 6,6,6
	bl Sys_Error
	b .L49
.LVL30:
.L59:
	.loc 1 159 0
	mr 11,9
.LVL31:
.L50:
	.loc 1 161 0
	lwz 0,0(31)
	stw 0,0(11)
.LVL32:
.L49:
	.loc 1 169 0
	lis 9,net_freeSockets@ha
	lwz 0,net_freeSockets@l(9)
	stw 0,0(31)
	.loc 1 171 0
	li 0,1
	stb 0,32(31)
	.loc 1 172 0
	lwz 0,20(1)
	.loc 1 170 0
	stw 31,net_freeSockets@l(9)
	.loc 1 172 0
	mtlr 0
	lwz 31,12(1)
.LVL33:
	addi 1,1,16
	.cfi_remember_state
.LCFI30:
	.cfi_def_cfa_offset 0
	.cfi_restore 31
	blr
.LVL34:
.L57:
.LCFI31:
	.cfi_restore_state
	.loc 1 155 0
	lwz 0,0(3)
	.loc 1 169 0
	lis 9,net_freeSockets@ha
	.loc 1 155 0
	stw 0,net_activeSockets@l(11)
	.loc 1 169 0
	lwz 0,net_freeSockets@l(9)
	stw 0,0(31)
	.loc 1 171 0
	li 0,1
	stb 0,32(31)
	.loc 1 172 0
	lwz 0,20(1)
	.loc 1 170 0
	stw 31,net_freeSockets@l(9)
	.loc 1 172 0
	mtlr 0
	lwz 31,12(1)
	addi 1,1,16
	.cfi_restore 31
.LCFI32:
	.cfi_def_cfa_offset 0
	blr
	.cfi_endproc
.LFE40:
	.size	NET_FreeQSocket, .-NET_FreeQSocket
	.align 2
	.globl NET_CheckNewConnections
	.type	NET_CheckNewConnections, @function
NET_CheckNewConnections:
.LFB51:
	.loc 1 458 0
	.cfi_startproc
	stwu 1,-32(1)
.LCFI33:
	.cfi_def_cfa_offset 32
	mflr 0
	stw 28,16(1)
	.loc 1 463 0
	lis 28,net_numdrivers@ha
	.cfi_offset 28, -16
	.cfi_register 65, 0
	.loc 1 458 0
	stw 0,36(1)
	stw 30,24(1)
	.loc 1 463 0
	lis 30,net_driverlevel@ha
	.cfi_offset 30, -8
	.cfi_offset 65, 4
	.loc 1 458 0
	stw 27,12(1)
	stw 29,20(1)
	stw 31,28(1)
	.loc 1 461 0
	.cfi_offset 31, -4
	.cfi_offset 29, -12
	.cfi_offset 27, -20
	bl SetNetTime
	.loc 1 463 0
	lwz 0,net_numdrivers@l(28)
	cmpwi 7,0,0
	li 0,0
	stw 0,net_driverlevel@l(30)
	ble- 7,.L61
	lis 29,net_drivers@ha
	.loc 1 467 0
	lis 27,.LANCHOR0@ha
	la 29,net_drivers@l(29)
.L65:
	.loc 1 465 0
	mulli 9,0,60
	.loc 1 467 0
	cmpwi 6,0,0
	.loc 1 465 0
	add 11,29,9
	lbz 0,4(11)
	cmpwi 7,0,0
	beq- 7,.L62
	.loc 1 469 0
	mr 9,11
	.loc 1 467 0
	la 11,.LANCHOR0@l(27)
	beq- 6,.L63
	.loc 1 467 0 is_stmt 0 discriminator 1
	lbz 0,4(11)
	cmpwi 7,0,0
	beq- 7,.L62
.L63:
	.loc 1 469 0 is_stmt 1
	lwz 0,24(9)
	mtctr 0
	bctrl
.LVL35:
	.loc 1 470 0
	mr. 31,3
	bne- 0,.L68
.LVL36:
.L62:
	.loc 1 463 0
	lwz 11,net_driverlevel@l(30)
	lwz 9,net_numdrivers@l(28)
	addi 0,11,1
	cmpw 7,9,0
	stw 0,net_driverlevel@l(30)
	bgt+ 7,.L65
.L61:
	.loc 1 484 0
	lis 9,recording@ha
	.loc 1 492 0
	li 31,0
	.loc 1 484 0
	lbz 0,recording@l(9)
	cmpwi 7,0,0
	bne- 7,.L69
.L64:
	.loc 1 493 0
	lwz 0,36(1)
	mr 3,31
	lwz 27,12(1)
	mtlr 0
	lwz 28,16(1)
	lwz 29,20(1)
	lwz 30,24(1)
	lwz 31,28(1)
	addi 1,1,32
	.cfi_remember_state
.LCFI34:
	.cfi_def_cfa_offset 0
	.cfi_restore 31
	.cfi_restore 30
	.cfi_restore 29
	.cfi_restore 28
	.cfi_restore 27
	blr
.LVL37:
.L68:
.LCFI35:
	.cfi_restore_state
	.loc 1 472 0
	lis 9,recording@ha
	lbz 0,recording@l(9)
	cmpwi 7,0,0
	beq+ 7,.L64
	.loc 1 474 0
	lis 11,vcrConnect@ha
	.loc 1 477 0
	lis 30,vcrFile@ha
	.loc 1 474 0
	la 9,vcrConnect@l(11)
	lis 10,host_time@ha
	.loc 1 475 0
	li 0,1
	.loc 1 474 0
	lfd 0,host_time@l(10)
	.loc 1 477 0
	lwz 3,vcrFile@l(30)
.LVL38:
	mr 4,9
	.loc 1 475 0
	stw 0,8(9)
	.loc 1 477 0
	li 5,16
	.loc 1 476 0
	stw 31,12(9)
	.loc 1 474 0
	stfd 0,vcrConnect@l(11)
	.loc 1 477 0
	bl Sys_FileWrite
	.loc 1 478 0
	addis 4,31,0x1
	lwz 3,vcrFile@l(30)
	addi 4,4,-32672
	li 5,64
	bl Sys_FileWrite
	b .L64
.LVL39:
.L69:
	.loc 1 486 0
	lis 11,vcrConnect@ha
	lis 10,host_time@ha
	la 9,vcrConnect@l(11)
	lfd 0,host_time@l(10)
	.loc 1 487 0
	li 0,1
	.loc 1 489 0
	lis 10,vcrFile@ha
	.loc 1 487 0
	stw 0,8(9)
	.loc 1 489 0
	mr 4,9
	.loc 1 488 0
	stw 31,12(9)
	.loc 1 489 0
	li 5,16
	lwz 3,vcrFile@l(10)
	.loc 1 486 0
	stfd 0,vcrConnect@l(11)
	.loc 1 489 0
	bl Sys_FileWrite
	.loc 1 493 0
	lwz 0,36(1)
	mr 3,31
	lwz 27,12(1)
	mtlr 0
	lwz 28,16(1)
	lwz 29,20(1)
	lwz 30,24(1)
	lwz 31,28(1)
	addi 1,1,32
	.cfi_restore 27
	.cfi_restore 28
	.cfi_restore 29
	.cfi_restore 30
	.cfi_restore 31
.LCFI36:
	.cfi_def_cfa_offset 0
	blr
	.cfi_endproc
.LFE51:
	.size	NET_CheckNewConnections, .-NET_CheckNewConnections
	.align 2
	.globl NET_Close
	.type	NET_Close, @function
NET_Close:
.LFB52:
	.loc 1 501 0
	.cfi_startproc
.LVL40:
	stwu 1,-16(1)
.LCFI37:
	.cfi_def_cfa_offset 16
	mflr 0
	stw 31,12(1)
	.loc 1 502 0
	mr. 31,3
	.cfi_offset 31, -4
	.cfi_register 65, 0
	.loc 1 501 0
	stw 0,20(1)
	.loc 1 502 0
	beq- 0,.L70
	.cfi_offset 65, 4
	.loc 1 505 0
	lbz 0,32(31)
	cmpwi 7,0,0
	beq- 7,.L72
.L70:
	.loc 1 514 0
	lwz 0,20(1)
	lwz 31,12(1)
	mtlr 0
	addi 1,1,16
	.cfi_remember_state
.LCFI38:
	.cfi_def_cfa_offset 0
	.cfi_restore 31
	blr
.L72:
.LCFI39:
	.cfi_restore_state
.LVL41:
.LBB26:
.LBB27:
	.loc 1 508 0
	bl SetNetTime
.LVL42:
	.loc 1 511 0
	lwz 0,36(31)
	lis 9,net_drivers@ha
	mr 3,31
	mulli 0,0,60
	la 9,net_drivers@l(9)
	add 9,9,0
	lwz 0,48(9)
	mtctr 0
	bctrl
.LBE27:
.LBE26:
	.loc 1 514 0
	lwz 0,20(1)
.LBB30:
.LBB28:
	.loc 1 513 0
	mr 3,31
.LBE28:
.LBE30:
	.loc 1 514 0
	lwz 31,12(1)
.LVL43:
	mtlr 0
	addi 1,1,16
.LCFI40:
	.cfi_def_cfa_offset 0
	.cfi_restore 31
.LBB31:
.LBB29:
	.loc 1 513 0
	b NET_FreeQSocket
.LVL44:
.LBE29:
.LBE31:
	.cfi_endproc
.LFE52:
	.size	NET_Close, .-NET_Close
	.align 2
	.globl NET_GetMessage
	.type	NET_GetMessage, @function
NET_GetMessage:
.LFB53:
	.loc 1 541 0
	.cfi_startproc
.LVL45:
	stwu 1,-24(1)
.LCFI41:
	.cfi_def_cfa_offset 24
	mflr 0
	stw 31,20(1)
	.loc 1 544 0
	mr. 31,3
	.cfi_offset 31, -4
	.cfi_register 65, 0
	.loc 1 541 0
	stw 30,16(1)
	.loc 1 545 0
	li 30,-1
	.cfi_offset 30, -8
	.loc 1 541 0
	stw 0,28(1)
	stw 28,8(1)
	stw 29,12(1)
	.loc 1 544 0
	beq- 0,.L74
	.cfi_offset 29, -12
	.cfi_offset 28, -16
	.cfi_offset 65, 4
	.loc 1 547 0
	lbz 0,32(31)
	cmpwi 7,0,0
	bne- 7,.L83
	.loc 1 553 0
	bl SetNetTime
.LVL46:
	.loc 1 555 0
	lwz 0,36(31)
	lis 9,net_drivers@ha
	mr 3,31
	mulli 0,0,60
	la 9,net_drivers@l(9)
	add 9,9,0
	lwz 0,28(9)
	mtctr 0
	bctrl
.LVL47:
	.loc 1 558 0
	mr. 30,3
	beq- 0,.L84
	.loc 1 581 0
	ble- 0,.L77
	.loc 1 583 0
	lwz 0,36(31)
	cmpwi 7,0,0
	beq- 7,.L79
	.loc 1 586 0
	cmpwi 7,30,1
	.loc 1 585 0
	lis 9,net_time@ha
	lfd 0,net_time@l(9)
	stfd 0,16(31)
	.loc 1 586 0
	beq- 7,.L85
	.loc 1 588 0
	cmpwi 7,30,2
	beq- 7,.L86
.L79:
	.loc 1 592 0
	lis 9,recording@ha
	lbz 0,recording@l(9)
	cmpwi 7,0,0
	beq+ 7,.L74
	.loc 1 594 0
	lis 10,host_time@ha
	.loc 1 598 0
	lis 29,net_message@ha
	la 29,net_message@l(29)
	.loc 1 594 0
	lfd 0,host_time@l(10)
	lis 11,vcrGetMessage@ha
	.loc 1 598 0
	lwz 0,12(29)
	.loc 1 594 0
	la 9,vcrGetMessage@l(11)
	.loc 1 599 0
	lis 28,vcrFile@ha
	.loc 1 594 0
	stfd 0,vcrGetMessage@l(11)
	.loc 1 595 0
	li 11,2
	.loc 1 599 0
	lwz 3,vcrFile@l(28)
.LVL48:
	mr 4,9
	.loc 1 595 0
	stw 11,8(9)
	.loc 1 599 0
	li 5,24
	.loc 1 596 0
	stw 31,12(9)
	.loc 1 597 0
	stw 30,16(9)
	.loc 1 598 0
	stw 0,20(9)
	.loc 1 599 0
	bl Sys_FileWrite
	.loc 1 600 0
	lwz 3,vcrFile@l(28)
	lwz 4,4(29)
	lwz 5,12(29)
	bl Sys_FileWrite
.LVL49:
.L74:
	.loc 1 616 0
	lwz 0,28(1)
	mr 3,30
	lwz 28,8(1)
	mtlr 0
	lwz 29,12(1)
	lwz 30,16(1)
	lwz 31,20(1)
.LVL50:
	addi 1,1,24
	.cfi_remember_state
.LCFI42:
	.cfi_def_cfa_offset 0
	.cfi_restore 31
	.cfi_restore 30
	.cfi_restore 29
	.cfi_restore 28
	blr
.LVL51:
.L84:
.LCFI43:
	.cfi_restore_state
	.loc 1 558 0 discriminator 1
	lwz 0,36(31)
	cmpwi 7,0,0
	beq- 7,.L77
.LBB32:
	.loc 1 571 0
	lis 9,net_time@ha
	lfd 0,16(31)
	lfd 1,net_time@l(9)
	.loc 1 572 0
	lis 9,.LANCHOR1+12@ha
	lfs 2,.LANCHOR1+12@l(9)
	.loc 1 571 0
	fsub 1,1,0
	frsp 1,1
.LVL52:
	.loc 1 572 0
	fcmpu 7,2,1
	blt- 7,.L87
.LVL53:
.L77:
.LBE32:
	.loc 1 605 0
	lis 9,recording@ha
	lbz 0,recording@l(9)
	cmpwi 7,0,0
	beq+ 7,.L74
	.loc 1 607 0
	lis 11,vcrGetMessage@ha
	lis 10,host_time@ha
	la 9,vcrGetMessage@l(11)
	lfd 0,host_time@l(10)
	.loc 1 608 0
	li 0,2
	.loc 1 611 0
	lis 10,vcrFile@ha
	lwz 3,vcrFile@l(10)
.LVL54:
	mr 4,9
	.loc 1 608 0
	stw 0,8(9)
	.loc 1 611 0
	li 5,20
	.loc 1 609 0
	stw 31,12(9)
	.loc 1 610 0
	stw 30,16(9)
	.loc 1 607 0
	stfd 0,vcrGetMessage@l(11)
	.loc 1 611 0
	bl Sys_FileWrite
	b .L74
.L86:
	.loc 1 589 0
	lis 9,unreliableMessagesReceived@ha
	lwz 11,unreliableMessagesReceived@l(9)
	addi 0,11,1
	stw 0,unreliableMessagesReceived@l(9)
	b .L79
.L85:
	.loc 1 587 0
	lis 9,messagesReceived@ha
	lwz 11,messagesReceived@l(9)
	addi 0,11,1
	stw 0,messagesReceived@l(9)
	b .L79
.LVL55:
.L83:
	.loc 1 549 0
	lis 3,.LC17@ha
	la 3,.LC17@l(3)
	crxor 6,6,6
	bl Con_Printf
	.loc 1 550 0
	b .L74
.LVL56:
.L87:
.LBB33:
	.loc 1 574 0
	lis 3,.LC18@ha
.LVL57:
	.loc 1 576 0
	li 30,-1
.LVL58:
	.loc 1 574 0
	la 3,.LC18@l(3)
	creqv 6,6,6
	bl Con_Printf
.LVL59:
	.loc 1 575 0
	mr 3,31
	bl NET_Close
	.loc 1 576 0
	b .L74
.LBE33:
	.cfi_endproc
.LFE53:
	.size	NET_GetMessage, .-NET_GetMessage
	.align 2
	.globl NET_SendMessage
	.type	NET_SendMessage, @function
NET_SendMessage:
.LFB54:
	.loc 1 639 0
	.cfi_startproc
.LVL60:
	stwu 1,-24(1)
.LCFI44:
	.cfi_def_cfa_offset 24
	mflr 0
	stw 31,20(1)
	.loc 1 642 0
	mr. 31,3
	.cfi_offset 31, -4
	.cfi_register 65, 0
	.loc 1 639 0
	stw 30,16(1)
	.loc 1 643 0
	li 30,-1
	.cfi_offset 30, -8
	.loc 1 639 0
	stw 0,28(1)
	.loc 1 642 0
	beq- 0,.L89
	.cfi_offset 65, 4
	.loc 1 645 0
	lbz 0,32(31)
	cmpwi 7,0,0
	bne- 7,.L93
	.loc 1 651 0
	stw 4,8(1)
	bl SetNetTime
.LVL61:
	.loc 1 652 0
	lwz 0,36(31)
	lis 9,net_drivers@ha
	la 9,net_drivers@l(9)
	mr 3,31
	mulli 0,0,60
	lwz 4,8(1)
	add 9,9,0
	lwz 0,32(9)
	mtctr 0
	bctrl
	.loc 1 653 0
	cmpwi 7,3,1
	.loc 1 652 0
	mr 30,3
.LVL62:
	.loc 1 653 0
	beq- 7,.L94
.L91:
	.loc 1 656 0
	lis 9,recording@ha
	lbz 0,recording@l(9)
	cmpwi 7,0,0
	beq+ 7,.L89
	.loc 1 658 0
	lis 11,vcrSendMessage@ha
	lis 10,host_time@ha
	la 9,vcrSendMessage@l(11)
	lfd 0,host_time@l(10)
	.loc 1 659 0
	li 0,3
	.loc 1 662 0
	lis 10,vcrFile@ha
	lwz 3,vcrFile@l(10)
.LVL63:
	mr 4,9
	.loc 1 659 0
	stw 0,8(9)
	.loc 1 662 0
	li 5,20
	.loc 1 660 0
	stw 31,12(9)
	.loc 1 661 0
	stw 30,16(9)
	.loc 1 658 0
	stfd 0,vcrSendMessage@l(11)
	.loc 1 662 0
	bl Sys_FileWrite
.LVL64:
.L89:
	.loc 1 666 0
	lwz 0,28(1)
	mr 3,30
	lwz 31,20(1)
.LVL65:
	mtlr 0
	lwz 30,16(1)
	addi 1,1,24
	.cfi_remember_state
.LCFI45:
	.cfi_def_cfa_offset 0
	.cfi_restore 31
	.cfi_restore 30
	blr
.LVL66:
.L94:
.LCFI46:
	.cfi_restore_state
	.loc 1 653 0 discriminator 1
	lwz 0,36(31)
	cmpwi 7,0,0
	beq- 7,.L91
	.loc 1 654 0
	lis 9,messagesSent@ha
	lwz 11,messagesSent@l(9)
	addi 0,11,1
	stw 0,messagesSent@l(9)
	b .L91
.LVL67:
.L93:
	.loc 1 647 0
	lis 3,.LC19@ha
	la 3,.LC19@l(3)
	crxor 6,6,6
	bl Con_Printf
.LVL68:
	.loc 1 648 0
	b .L89
	.cfi_endproc
.LFE54:
	.size	NET_SendMessage, .-NET_SendMessage
	.align 2
	.globl NET_SendUnreliableMessage
	.type	NET_SendUnreliableMessage, @function
NET_SendUnreliableMessage:
.LFB55:
	.loc 1 670 0
	.cfi_startproc
.LVL69:
	stwu 1,-24(1)
.LCFI47:
	.cfi_def_cfa_offset 24
	mflr 0
	stw 31,20(1)
	.loc 1 673 0
	mr. 31,3
	.cfi_offset 31, -4
	.cfi_register 65, 0
	.loc 1 670 0
	stw 30,16(1)
	.loc 1 674 0
	li 30,-1
	.cfi_offset 30, -8
	.loc 1 670 0
	stw 0,28(1)
	.loc 1 673 0
	beq- 0,.L96
	.cfi_offset 65, 4
	.loc 1 676 0
	lbz 0,32(31)
	cmpwi 7,0,0
	bne- 7,.L100
	.loc 1 682 0
	stw 4,8(1)
	bl SetNetTime
.LVL70:
	.loc 1 683 0
	lwz 0,36(31)
	lis 9,net_drivers@ha
	la 9,net_drivers@l(9)
	mr 3,31
	mulli 0,0,60
	lwz 4,8(1)
	add 9,9,0
	lwz 0,36(9)
	mtctr 0
	bctrl
	.loc 1 684 0
	cmpwi 7,3,1
	.loc 1 683 0
	mr 30,3
.LVL71:
	.loc 1 684 0
	beq- 7,.L101
.L98:
	.loc 1 687 0
	lis 9,recording@ha
	lbz 0,recording@l(9)
	cmpwi 7,0,0
	beq+ 7,.L96
	.loc 1 689 0
	lis 11,vcrSendMessage@ha
	lis 10,host_time@ha
	la 9,vcrSendMessage@l(11)
	lfd 0,host_time@l(10)
	.loc 1 690 0
	li 0,3
	.loc 1 693 0
	lis 10,vcrFile@ha
	lwz 3,vcrFile@l(10)
.LVL72:
	mr 4,9
	.loc 1 690 0
	stw 0,8(9)
	.loc 1 693 0
	li 5,20
	.loc 1 691 0
	stw 31,12(9)
	.loc 1 692 0
	stw 30,16(9)
	.loc 1 689 0
	stfd 0,vcrSendMessage@l(11)
	.loc 1 693 0
	bl Sys_FileWrite
.LVL73:
.L96:
	.loc 1 697 0
	lwz 0,28(1)
	mr 3,30
	lwz 31,20(1)
.LVL74:
	mtlr 0
	lwz 30,16(1)
	addi 1,1,24
	.cfi_remember_state
.LCFI48:
	.cfi_def_cfa_offset 0
	.cfi_restore 31
	.cfi_restore 30
	blr
.LVL75:
.L101:
.LCFI49:
	.cfi_restore_state
	.loc 1 684 0 discriminator 1
	lwz 0,36(31)
	cmpwi 7,0,0
	beq- 7,.L98
	.loc 1 685 0
	lis 9,unreliableMessagesSent@ha
	lwz 11,unreliableMessagesSent@l(9)
	addi 0,11,1
	stw 0,unreliableMessagesSent@l(9)
	b .L98
.LVL76:
.L100:
	.loc 1 678 0
	lis 3,.LC19@ha
	la 3,.LC19@l(3)
	crxor 6,6,6
	bl Con_Printf
.LVL77:
	.loc 1 679 0
	b .L96
	.cfi_endproc
.LFE55:
	.size	NET_SendUnreliableMessage, .-NET_SendUnreliableMessage
	.align 2
	.globl NET_CanSendMessage
	.type	NET_CanSendMessage, @function
NET_CanSendMessage:
.LFB56:
	.loc 1 709 0
	.cfi_startproc
.LVL78:
	stwu 1,-16(1)
.LCFI50:
	.cfi_def_cfa_offset 16
	mflr 0
	stw 31,12(1)
	.loc 1 712 0
	mr. 31,3
	.cfi_offset 31, -4
	.cfi_register 65, 0
	.loc 1 709 0
	stw 30,8(1)
	.loc 1 713 0
	li 30,0
	.cfi_offset 30, -8
	.loc 1 709 0
	stw 0,20(1)
	.loc 1 712 0
	beq- 0,.L103
	.cfi_offset 65, 4
	.loc 1 715 0
	lbz 0,32(31)
	cmpwi 7,0,0
	beq- 7,.L106
.LVL79:
.L103:
	.loc 1 732 0
	lwz 0,20(1)
	mr 3,30
	lwz 31,12(1)
.LVL80:
	mtlr 0
	lwz 30,8(1)
	addi 1,1,16
	.cfi_remember_state
.LCFI51:
	.cfi_def_cfa_offset 0
	.cfi_restore 31
	.cfi_restore 30
	blr
.LVL81:
.L106:
.LCFI52:
	.cfi_restore_state
.LBB36:
.LBB37:
	.loc 1 718 0
	bl SetNetTime
.LVL82:
	.loc 1 720 0
	lwz 0,36(31)
	lis 9,net_drivers@ha
	mr 3,31
	mulli 0,0,60
	la 9,net_drivers@l(9)
	add 9,9,0
	lwz 0,40(9)
	mtctr 0
	bctrl
	.loc 1 722 0
	lis 9,recording@ha
	lbz 0,recording@l(9)
	.loc 1 720 0
	mr 30,3
.LVL83:
	.loc 1 722 0
	cmpwi 7,0,0
	beq+ 7,.L103
	.loc 1 724 0
	lis 11,vcrSendMessage@ha
	lis 10,host_time@ha
	la 9,vcrSendMessage@l(11)
	lfd 0,host_time@l(10)
	.loc 1 725 0
	li 0,4
	.loc 1 728 0
	lis 10,vcrFile@ha
	.loc 1 725 0
	stw 0,8(9)
	.loc 1 728 0
	mr 4,9
	.loc 1 726 0
	stw 31,12(9)
	.loc 1 728 0
	li 5,20
	.loc 1 720 0
	stw 30,16(9)
	.loc 1 728 0
	lwz 3,vcrFile@l(10)
.LVL84:
	.loc 1 724 0
	stfd 0,vcrSendMessage@l(11)
	.loc 1 728 0
	bl Sys_FileWrite
.LBE37:
.LBE36:
	.loc 1 732 0
	lwz 0,20(1)
	mr 3,30
	lwz 31,12(1)
.LVL85:
	mtlr 0
	lwz 30,8(1)
.LVL86:
	addi 1,1,16
	.cfi_restore 30
	.cfi_restore 31
.LCFI53:
	.cfi_def_cfa_offset 0
	blr
	.cfi_endproc
.LFE56:
	.size	NET_CanSendMessage, .-NET_CanSendMessage
	.align 2
	.globl NET_SendToAll
	.type	NET_SendToAll, @function
NET_SendToAll:
.LFB57:
	.loc 1 736 0
	.cfi_startproc
.LVL87:
	stwu 1,-200(1)
.LCFI54:
	.cfi_def_cfa_offset 200
	mflr 0
	stw 28,176(1)
	.loc 1 743 0
	lis 28,svs@ha
	.cfi_offset 28, -24
	.cfi_register 65, 0
	.loc 1 736 0
	stw 0,204(1)
	.loc 1 743 0
	lwz 0,svs@l(28)
	.cfi_offset 65, 4
	la 28,svs@l(28)
	lwz 9,8(28)
	cmpwi 7,0,0
	.loc 1 736 0
	stw 30,184(1)
	.loc 1 743 0
	lis 30,host_client@ha
	.cfi_offset 30, -16
	.loc 1 736 0
	stw 22,152(1)
	stw 25,164(1)
	mr 22,4
	.cfi_offset 25, -36
	.cfi_offset 22, -48
	stfd 31,192(1)
	mr 25,3
	stw 21,148(1)
	stw 23,156(1)
	stw 24,160(1)
	stw 26,168(1)
	stw 27,172(1)
	stw 29,180(1)
	stw 31,188(1)
	.loc 1 743 0
	stw 9,host_client@l(30)
	ble- 7,.L108
	.cfi_offset 31, -12
	.cfi_offset 29, -20
	.cfi_offset 27, -28
	.cfi_offset 26, -32
	.cfi_offset 24, -40
	.cfi_offset 23, -44
	.cfi_offset 21, -52
	.cfi_offset 63, -8
	li 27,0
	li 31,0
	la 30,host_client@l(30)
	.loc 1 762 0
	li 26,1
	.loc 1 757 0
	li 24,0
	b .L112
.LVL88:
.L129:
	.loc 1 749 0
	lwz 0,36(3)
	cmpwi 7,0,0
	beq- 7,.L127
	.loc 1 758 0
	addi 11,1,8
	.loc 1 757 0
	stbx 24,29,31
	.loc 1 758 0
	stbx 24,31,11
	.loc 1 756 0
	addi 27,27,1
.LVL89:
.L109:
	.loc 1 743 0
	lwz 0,0(28)
	addi 31,31,1
.LVL90:
	addis 9,9,0x1
	cmpw 7,0,31
	addi 9,9,-1288
	stw 9,0(30)
	ble- 7,.L128
.LVL91:
.L112:
	.loc 1 745 0
	lwz 3,16(9)
	.loc 1 762 0
	addi 29,1,72
	.loc 1 745 0
	cmpwi 7,3,0
	beq- 7,.L109
	.loc 1 747 0
	lbz 0,0(9)
	cmpwi 7,0,0
	bne- 7,.L129
	.loc 1 763 0
	addi 11,1,8
	.loc 1 743 0
	lwz 0,0(28)
	.loc 1 762 0
	stbx 26,29,31
	.loc 1 743 0
	addis 9,9,0x1
	.loc 1 763 0
	stbx 26,31,11
.LVL92:
	.loc 1 743 0
	addi 31,31,1
.LVL93:
	cmpw 7,0,31
	addi 9,9,-1288
	stw 9,0(30)
	bgt+ 7,.L112
.L128:
	.loc 1 767 0
	bl Sys_FloatTime
	.loc 1 768 0
	cmpwi 7,27,0
	.loc 1 767 0
	fmr 31,1
.LVL94:
	.loc 1 768 0
	beq- 7,.L113
	lis 23,.LC21@ha
	.loc 1 792 0
	li 26,1
	la 23,.LC21@l(23)
	.loc 1 802 0
	lis 24,0x4330
.LVL95:
.L122:
	.loc 1 771 0
	lwz 0,0(28)
	.loc 1 770 0
	li 27,0
	.loc 1 771 0
	lwz 9,8(28)
	cmpwi 7,0,0
	stw 9,0(30)
	ble- 7,.L114
	li 31,0
	addi 29,1,72
	b .L121
.LVL96:
.L115:
	.loc 1 788 0
	addi 21,1,8
	lbzx 0,21,31
	cmpwi 7,0,0
	beq- 7,.L130
.L118:
.LVL97:
	.loc 1 771 0
	lwz 0,0(28)
	addi 31,31,1
.LVL98:
	addis 9,9,0x1
	cmpw 7,0,31
	addi 9,9,-1288
	stw 9,0(30)
	ble- 7,.L114
.LVL99:
.L121:
	.loc 1 773 0
	lbzx 0,29,31
	cmpwi 7,0,0
	bne+ 7,.L115
	.loc 1 775 0
	lwz 3,16(9)
	bl NET_CanSendMessage
	.loc 1 778 0
	lwz 9,0(30)
	.loc 1 775 0
	cmpwi 7,3,0
	beq- 7,.L116
	.loc 1 778 0
	lwz 3,16(9)
	mr 4,25
	.loc 1 777 0
	stbx 26,29,31
	.loc 1 778 0
	bl NET_SendMessage
.L117:
	.loc 1 771 0
	lwz 0,0(28)
	addi 31,31,1
	.loc 1 784 0
	lwz 9,0(30)
	addi 27,27,1
.LVL100:
	.loc 1 771 0
	cmpw 7,0,31
	addis 9,9,0x1
	addi 9,9,-1288
	stw 9,0(30)
	bgt+ 7,.L121
.LVL101:
.L114:
	.loc 1 802 0
	bl Sys_FloatTime
	xoris 0,22,0x8000
	stw 0,140(1)
	fsub 1,1,31
	stw 24,136(1)
	lfs 0,0(23)
	lfd 13,136(1)
	fsub 0,13,0
	fcmpu 7,1,0
	bgt- 7,.L113
.LVL102:
	.loc 1 768 0 discriminator 1
	cmpwi 7,27,0
	bne+ 7,.L122
.LVL103:
.L113:
	.loc 1 806 0
	lwz 0,204(1)
	mr 3,27
	lwz 21,148(1)
	mtlr 0
	lwz 22,152(1)
.LVL104:
	lwz 23,156(1)
	lwz 24,160(1)
	lwz 25,164(1)
.LVL105:
	lwz 26,168(1)
	lwz 27,172(1)
.LVL106:
	lwz 28,176(1)
	lwz 29,180(1)
	lwz 30,184(1)
	lwz 31,188(1)
	lfd 31,192(1)
	addi 1,1,200
	.cfi_remember_state
.LCFI55:
	.cfi_def_cfa_offset 0
	.cfi_restore 63
	.cfi_restore 31
	.cfi_restore 30
	.cfi_restore 29
	.cfi_restore 28
	.cfi_restore 27
	.cfi_restore 26
	.cfi_restore 25
	.cfi_restore 24
	.cfi_restore 23
	.cfi_restore 22
	.cfi_restore 21
	blr
.LVL107:
.L127:
.LCFI56:
	.cfi_restore_state
	.loc 1 751 0
	mr 4,25
	.loc 1 752 0
	addi 29,1,72
	.loc 1 751 0
	bl NET_SendMessage
	.loc 1 753 0
	addi 9,1,8
	stbx 26,31,9
	.loc 1 752 0
	stbx 26,29,31
	.loc 1 753 0
	lwz 9,0(30)
	.loc 1 754 0
	b .L109
.LVL108:
.L130:
	.loc 1 790 0
	lwz 3,16(9)
	bl NET_CanSendMessage
	cmpwi 7,3,0
	beq- 7,.L119
	.loc 1 792 0
	stbx 26,31,21
.L120:
	.loc 1 798 0
	lwz 9,0(30)
	addi 27,27,1
.LVL109:
	.loc 1 799 0
	b .L118
.LVL110:
.L116:
	.loc 1 782 0
	lwz 3,16(9)
	bl NET_GetMessage
	b .L117
.L119:
	.loc 1 796 0
	lwz 9,0(30)
	lwz 3,16(9)
	bl NET_GetMessage
	b .L120
.LVL111:
.L108:
	.loc 1 767 0
	bl Sys_FloatTime
	li 27,0
	b .L113
	.cfi_endproc
.LFE57:
	.size	NET_SendToAll, .-NET_SendToAll
	.align 2
	.globl NET_Init
	.type	NET_Init, @function
NET_Init:
.LFB58:
	.loc 1 818 0
	.cfi_startproc
	mflr 0
	stwu 1,-32(1)
.LCFI57:
	.cfi_def_cfa_offset 32
	.cfi_register 65, 0
	.loc 1 823 0
	lis 3,.LC22@ha
	la 3,.LC22@l(3)
	.loc 1 818 0
	stw 26,8(1)
	stw 0,36(1)
	lis 26,net_numdrivers@ha
	.cfi_offset 65, 4
	.cfi_offset 26, -24
	stw 27,12(1)
	stw 28,16(1)
	stw 29,20(1)
	stw 30,24(1)
	stw 31,28(1)
	.loc 1 823 0
	.cfi_offset 31, -4
	.cfi_offset 30, -8
	.cfi_offset 29, -12
	.cfi_offset 28, -16
	.cfi_offset 27, -20
	bl COM_CheckParm
	cmpwi 7,3,0
	beq- 7,.L132
	.loc 1 825 0
	li 0,1
	.loc 1 826 0
	lis 9,VCR_Init@ha
	lis 30,net_drivers+8@ha
	.loc 1 825 0
	stw 0,net_numdrivers@l(26)
	.loc 1 826 0
	la 0,VCR_Init@l(9)
	stw 0,net_drivers+8@l(30)
.L132:
	.loc 1 829 0
	lis 3,.LC23@ha
	la 3,.LC23@l(3)
	bl COM_CheckParm
	cmpwi 7,3,0
	beq- 7,.L133
	.loc 1 830 0
	li 0,1
	lis 9,recording@ha
	stb 0,recording@l(9)
.L133:
	.loc 1 832 0
	lis 3,.LC24@ha
	la 3,.LC24@l(3)
	bl COM_CheckParm
.LVL112:
	.loc 1 833 0
	cmpwi 0,3,0
	beq- 0,.L156
.L135:
	.loc 1 840 0
	lis 9,com_argc@ha
	lwz 9,com_argc@l(9)
	addi 0,9,-1
	cmpw 7,0,3
	bgt- 7,.L157
	.loc 1 843 0
	lis 3,.LC27@ha
.LVL113:
	la 3,.LC27@l(3)
	crxor 6,6,6
	bl Sys_Error
.L154:
	lis 9,DEFAULTnet_hostport@ha
	.loc 1 847 0
	lis 3,.LC28@ha
	.loc 1 843 0
	lwz 0,DEFAULTnet_hostport@l(9)
	.loc 1 847 0
	la 3,.LC28@l(3)
	.loc 1 845 0
	lis 9,net_hostport@ha
	stw 0,net_hostport@l(9)
	.loc 1 847 0
	bl COM_CheckParm
	cmpwi 7,3,0
	lis 9,cls@ha
	lwz 0,cls@l(9)
	bne- 7,.L139
.L138:
	.loc 1 847 0 is_stmt 0 discriminator 1
	cmpwi 7,0,0
	beq- 7,.L139
	.loc 1 849 0 is_stmt 1
	lis 9,svs+4@ha
	lis 31,net_numsockets@ha
	lwz 9,svs+4@l(9)
.L150:
	.loc 1 851 0
	addi 9,9,1
	stw 9,net_numsockets@l(31)
.L141:
	.loc 1 853 0
	bl SetNetTime
.LVL114:
	.loc 1 855 0
	lwz 0,net_numsockets@l(31)
	cmpwi 7,0,0
	ble- 7,.L142
	lis 27,.LC29@ha
	lis 30,net_freeSockets@ha
	lis 28,net_numsockets@ha
	li 31,0
	la 27,.LC29@l(27)
	la 30,net_freeSockets@l(30)
	la 28,net_numsockets@l(28)
	.loc 1 860 0
	li 29,1
.LVL115:
.L143:
	.loc 1 857 0 discriminator 2
	li 3,0
	mr 4,27
	ori 3,3,32928
	.loc 1 855 0 discriminator 2
	addi 31,31,1
	.loc 1 857 0 discriminator 2
	bl Hunk_AllocName
.LVL116:
	.loc 1 855 0 discriminator 2
	lwz 0,0(28)
	.loc 1 860 0 discriminator 2
	stb 29,32(3)
	.loc 1 855 0 discriminator 2
	cmpw 7,0,31
	.loc 1 858 0 discriminator 2
	lwz 0,0(30)
	stw 0,0(3)
	.loc 1 859 0 discriminator 2
	stw 3,0(30)
	.loc 1 855 0 discriminator 2
	bgt+ 7,.L143
.LVL117:
.L142:
	.loc 1 864 0
	lis 3,net_message@ha
	.loc 1 866 0
	lis 31,.LANCHOR1@ha
	.loc 1 864 0
	li 4,16384
	.loc 1 866 0
	la 31,.LANCHOR1@l(31)
	.loc 1 864 0
	la 3,net_message@l(3)
	bl SZ_Alloc
	.loc 1 866 0
	mr 3,31
	bl Cvar_RegisterVariable
	.loc 1 867 0
	addi 3,31,20
	bl Cvar_RegisterVariable
	.loc 1 868 0
	addi 3,31,40
	bl Cvar_RegisterVariable
	.loc 1 869 0
	addi 3,31,60
	bl Cvar_RegisterVariable
	.loc 1 870 0
	addi 3,31,80
	bl Cvar_RegisterVariable
	.loc 1 871 0
	addi 3,31,100
	bl Cvar_RegisterVariable
	.loc 1 872 0
	addi 3,31,120
	bl Cvar_RegisterVariable
	.loc 1 873 0
	addi 3,31,140
	bl Cvar_RegisterVariable
	.loc 1 874 0
	addi 3,31,160
	bl Cvar_RegisterVariable
	.loc 1 875 0
	addi 3,31,180
	bl Cvar_RegisterVariable
	.loc 1 880 0
	lis 3,.LC30@ha
	lis 4,NET_Slist_f@ha
	la 3,.LC30@l(3)
	la 4,NET_Slist_f@l(4)
	.loc 1 886 0
	lis 31,net_driverlevel@ha
	.loc 1 880 0
	bl Cmd_AddCommand
	.loc 1 881 0
	lis 3,.LC31@ha
	lis 4,NET_Listen_f@ha
	la 3,.LC31@l(3)
	la 4,NET_Listen_f@l(4)
	bl Cmd_AddCommand
	.loc 1 882 0
	lis 3,.LC32@ha
	lis 4,MaxPlayers_f@ha
	la 3,.LC32@l(3)
	la 4,MaxPlayers_f@l(4)
	bl Cmd_AddCommand
	.loc 1 883 0
	lis 3,.LC33@ha
	lis 4,NET_Port_f@ha
	la 3,.LC33@l(3)
	la 4,NET_Port_f@l(4)
	bl Cmd_AddCommand
	.loc 1 886 0
	lwz 0,net_numdrivers@l(26)
	cmpwi 7,0,0
	li 0,0
	stw 0,net_driverlevel@l(31)
	ble- 7,.L144
	lis 30,net_drivers@ha
	lis 28,net_numdrivers@ha
	la 30,net_drivers@l(30)
	la 31,net_driverlevel@l(31)
	la 28,net_numdrivers@l(28)
	.loc 1 888 0
	mr 26,30
	.loc 1 891 0
	li 27,1
	.loc 1 893 0
	lis 29,.LANCHOR0@ha
	b .L147
.LVL118:
.L145:
	lbz 0,4(9)
	.loc 1 891 0
	lwz 9,0(31)
	.loc 1 893 0
	cmpwi 7,0,0
	.loc 1 891 0
	mulli 11,9,60
	add 11,26,11
	stb 27,4(11)
	.loc 1 892 0
	stw 3,56(11)
	.loc 1 893 0
	bne- 7,.L158
	.loc 1 886 0
	lwz 11,0(28)
	addi 0,9,1
	stw 0,0(31)
	cmpw 7,11,0
	ble- 7,.L144
.LVL119:
.L147:
	.loc 1 888 0
	mulli 0,0,60
	add 9,30,0
	lwz 0,8(9)
	mtctr 0
	bctrl
.LVL120:
	.loc 1 893 0
	la 9,.LANCHOR0@l(29)
	.loc 1 889 0
	cmpwi 7,3,-1
	bne+ 7,.L145
	.loc 1 894 0
	lwz 9,0(31)
.LVL121:
.L160:
	.loc 1 886 0
	lwz 11,0(28)
	addi 0,9,1
	stw 0,0(31)
	cmpw 7,11,0
	bgt+ 7,.L147
.L144:
	.loc 1 897 0
	lis 4,my_ipx_address@ha
	lbz 0,my_ipx_address@l(4)
	la 4,my_ipx_address@l(4)
	cmpwi 7,0,0
	bne- 7,.L159
.L148:
	.loc 1 899 0
	lis 4,my_tcpip_address@ha
	lbz 0,my_tcpip_address@l(4)
	la 4,my_tcpip_address@l(4)
	cmpwi 7,0,0
	beq+ 7,.L131
	.loc 1 900 0
	lis 3,.LC35@ha
	la 3,.LC35@l(3)
	crxor 6,6,6
	bl Con_DPrintf
.L131:
	.loc 1 901 0
	lwz 0,36(1)
	lwz 26,8(1)
	mtlr 0
	lwz 27,12(1)
	lwz 28,16(1)
	lwz 29,20(1)
	lwz 30,24(1)
	lwz 31,28(1)
	addi 1,1,32
	.cfi_remember_state
.LCFI58:
	.cfi_def_cfa_offset 0
	.cfi_restore 31
	.cfi_restore 30
	.cfi_restore 29
	.cfi_restore 28
	.cfi_restore 27
	.cfi_restore 26
	blr
.LVL122:
.L157:
.LCFI59:
	.cfi_restore_state
	.loc 1 841 0
	lis 9,com_argv@ha
	addi 3,3,1
.LVL123:
	lwz 9,com_argv@l(9)
	slwi 3,3,2
.LVL124:
	lwzx 3,9,3
	bl Q_atoi
	lis 9,DEFAULTnet_hostport@ha
	mr 0,3
	stw 3,DEFAULTnet_hostport@l(9)
	.loc 1 847 0
	lis 3,.LC28@ha
	.loc 1 845 0
	lis 9,net_hostport@ha
	.loc 1 847 0
	la 3,.LC28@l(3)
	.loc 1 845 0
	stw 0,net_hostport@l(9)
	.loc 1 847 0
	bl COM_CheckParm
	lis 9,cls@ha
	cmpwi 7,3,0
	lwz 0,cls@l(9)
	beq- 7,.L138
.L139:
	.loc 1 850 0
	cmpwi 7,0,0
	.loc 1 849 0
	lis 9,svs+4@ha
	lwz 9,svs+4@l(9)
	lis 31,net_numsockets@ha
	.loc 1 848 0
	li 0,1
	lis 11,.LANCHOR0+4@ha
	stb 0,.LANCHOR0+4@l(11)
	.loc 1 849 0
	stw 9,net_numsockets@l(31)
	.loc 1 850 0
	beq+ 7,.L141
	b .L150
.LVL125:
.L158:
	.loc 1 894 0
	lwz 0,12(11)
	li 3,1
.LVL126:
	mtctr 0
	bctrl
.LVL127:
	lwz 9,0(31)
	b .L160
.L159:
	.loc 1 898 0
	lis 3,.LC34@ha
	la 3,.LC34@l(3)
	crxor 6,6,6
	bl Con_DPrintf
	b .L148
.LVL128:
.L156:
	.loc 1 834 0
	lis 3,.LC25@ha
.LVL129:
	la 3,.LC25@l(3)
	bl COM_CheckParm
.LVL130:
	.loc 1 835 0
	cmpwi 0,3,0
	bne- 0,.L135
	.loc 1 836 0
	lis 3,.LC26@ha
.LVL131:
	la 3,.LC26@l(3)
	bl COM_CheckParm
.LVL132:
	.loc 1 838 0
	cmpwi 0,3,0
	beq+ 0,.L154
	b .L135
	.cfi_endproc
.LFE58:
	.size	NET_Init, .-NET_Init
	.align 2
	.globl NET_Shutdown
	.type	NET_Shutdown, @function
NET_Shutdown:
.LFB59:
	.loc 1 910 0
	.cfi_startproc
	mflr 0
	stwu 1,-32(1)
.LCFI60:
	.cfi_def_cfa_offset 32
	.cfi_register 65, 0
	stw 31,28(1)
	stw 0,36(1)
	stw 27,12(1)
	stw 28,16(1)
	stw 29,20(1)
	stw 30,24(1)
	.loc 1 913 0
	.cfi_offset 30, -8
	.cfi_offset 29, -12
	.cfi_offset 28, -16
	.cfi_offset 27, -20
	.cfi_offset 65, 4
	.cfi_offset 31, -4
	bl SetNetTime
	.loc 1 915 0
	lis 9,net_activeSockets@ha
	lwz 31,net_activeSockets@l(9)
.LVL133:
	cmpwi 7,31,0
	beq- 7,.L162
.LVL134:
.L169:
	.loc 1 916 0 discriminator 2
	mr 3,31
	bl NET_Close
	.loc 1 915 0 discriminator 2
	lwz 31,0(31)
.LVL135:
	cmpwi 7,31,0
	bne+ 7,.L169
.L162:
	.loc 1 921 0
	lis 29,net_numdrivers@ha
	lis 31,net_driverlevel@ha
.LVL136:
	lwz 0,net_numdrivers@l(29)
	cmpwi 7,0,0
	li 0,0
	stw 0,net_driverlevel@l(31)
	ble- 7,.L164
	lis 30,net_drivers@ha
	la 31,net_driverlevel@l(31)
	la 30,net_drivers@l(30)
	la 29,net_numdrivers@l(29)
	.loc 1 923 0
	mr 27,30
	.loc 1 926 0
	li 28,0
	b .L167
.L172:
	.loc 1 923 0
	lwz 9,0(31)
	.loc 1 921 0
	lwz 11,0(29)
	addi 0,9,1
	cmpw 7,11,0
	stw 0,0(31)
	ble- 7,.L164
.L167:
	.loc 1 923 0
	mulli 0,0,60
	add 9,30,0
	lbz 0,4(9)
	cmpwi 7,0,0
	beq+ 7,.L172
	.loc 1 925 0
	lwz 0,52(9)
	mtctr 0
	bctrl
	.loc 1 926 0
	lwz 9,0(31)
	mulli 11,9,60
	.loc 1 921 0
	addi 0,9,1
	stw 0,0(31)
	.loc 1 926 0
	add 11,27,11
	stb 28,4(11)
	.loc 1 921 0
	lwz 11,0(29)
	cmpw 7,11,0
	bgt+ 7,.L167
.L164:
	.loc 1 930 0
	lis 31,vcrFile@ha
	lwz 0,vcrFile@l(31)
	cmpwi 7,0,-1
	beq- 7,.L161
	.loc 1 932 0
	lis 3,.LC36@ha
	la 3,.LC36@l(3)
	crxor 6,6,6
	bl Con_Printf
	.loc 1 933 0
	lwz 3,vcrFile@l(31)
	bl Sys_FileClose
.L161:
	.loc 1 935 0
	lwz 0,36(1)
	lwz 27,12(1)
	mtlr 0
	lwz 28,16(1)
	lwz 29,20(1)
	lwz 30,24(1)
	lwz 31,28(1)
	addi 1,1,32
.LCFI61:
	.cfi_def_cfa_offset 0
	.cfi_restore 31
	.cfi_restore 30
	.cfi_restore 29
	.cfi_restore 28
	.cfi_restore 27
	blr
	.cfi_endproc
.LFE59:
	.size	NET_Shutdown, .-NET_Shutdown
	.align 2
	.globl NET_Poll
	.type	NET_Poll, @function
NET_Poll:
.LFB60:
	.loc 1 941 0
	.cfi_startproc
	stwu 1,-40(1)
.LCFI62:
	.cfi_def_cfa_offset 40
	mflr 0
	stw 31,36(1)
	.loc 1 945 0
	lis 31,configRestored@ha
	.cfi_offset 31, -4
	.cfi_register 65, 0
	.loc 1 941 0
	stw 0,44(1)
	.loc 1 945 0
	lbz 0,configRestored@l(31)
	.cfi_offset 65, 4
	.loc 1 941 0
	stw 29,28(1)
	.loc 1 945 0
	cmpwi 7,0,0
	.loc 1 941 0
	stw 30,32(1)
	.loc 1 945 0
	bne- 7,.L174
	.cfi_offset 30, -8
	.cfi_offset 29, -12
	.loc 1 947 0
	lis 9,serialAvailable@ha
	lbz 0,serialAvailable@l(9)
	cmpwi 7,0,0
	bne- 7,.L181
.L175:
	.loc 1 956 0
	li 0,1
	stb 0,configRestored@l(31)
.L174:
	.loc 1 961 0
	lis 30,.LANCHOR0@ha
	.loc 1 959 0
	bl SetNetTime
	.loc 1 961 0
	la 30,.LANCHOR0@l(30)
	lwz 31,8(30)
.LVL137:
	cmpwi 7,31,0
	beq- 7,.L173
	.loc 1 963 0
	lis 29,net_time@ha
	lfd 13,8(31)
	lfd 0,net_time@l(29)
	fcmpu 7,13,0
	bng+ 7,.L180
	b .L173
.LVL138:
.L179:
	lfd 13,8(31)
	lfd 0,net_time@l(29)
	fcmpu 7,13,0
	bgt- 7,.L173
.L180:
	.loc 1 965 0
	lwz 9,0(31)
	.loc 1 966 0
	lwz 0,16(31)
	lwz 3,20(31)
	.loc 1 965 0
	stw 9,8(30)
	.loc 1 966 0
	mtctr 0
	crxor 6,6,6
	bctrl
	.loc 1 961 0
	lwz 31,0(31)
.LVL139:
	cmpwi 7,31,0
	bne+ 7,.L179
.L173:
	.loc 1 968 0
	lwz 0,44(1)
	lwz 29,28(1)
	mtlr 0
	lwz 30,32(1)
	lwz 31,36(1)
.LVL140:
	addi 1,1,40
	.cfi_remember_state
.LCFI63:
	.cfi_def_cfa_offset 0
	.cfi_restore 31
	.cfi_restore 30
	.cfi_restore 29
	blr
.L181:
.LCFI64:
	.cfi_restore_state
.LVL141:
	.loc 1 953 0
	lis 30,.LANCHOR1@ha
	.loc 1 940 0
	lis 9,.LC37@ha
	.loc 1 953 0
	la 30,.LANCHOR1@l(30)
	.loc 1 940 0
	lfs 11,.LC37@l(9)
	.loc 1 953 0
	lfs 12,52(30)
	addi 9,1,8
	lfs 13,72(30)
	li 3,0
	lfs 0,92(30)
	fctiwz 12,12
	fctiwz 13,13
	.loc 1 940 0
	lfs 10,112(30)
	.loc 1 953 0
	fctiwz 0,0
	stfiwx 12,0,9
	addi 9,1,12
	stfiwx 13,0,9
	addi 9,1,16
	stfiwx 0,0,9
	lis 9,SetComPortConfig@ha
	.loc 1 940 0
	fcmpu 7,10,11
	.loc 1 953 0
	lwz 0,SetComPortConfig@l(9)
	lwz 4,8(1)
	mfcr 7
	rlwinm 7,7,31,1
	lwz 5,12(1)
	mtctr 0
	lwz 6,16(1)
	bctrl
.LVL142:
	.loc 1 954 0
	lis 9,SetModemConfig@ha
	lwz 0,SetModemConfig@l(9)
	li 3,0
	lwz 4,124(30)
	lwz 5,144(30)
	mtctr 0
	lwz 6,164(30)
	lwz 7,184(30)
	bctrl
	b .L175
	.cfi_endproc
.LFE60:
	.size	NET_Poll, .-NET_Poll
	.align 2
	.globl SchedulePollProcedure
	.type	SchedulePollProcedure, @function
SchedulePollProcedure:
.LFB61:
	.loc 1 972 0
	.cfi_startproc
.LVL143:
	mflr 0
	stwu 1,-24(1)
.LCFI65:
	.cfi_def_cfa_offset 24
	.cfi_register 65, 0
	stfd 31,16(1)
	fmr 31,1
	.cfi_offset 63, -8
	stw 31,12(1)
	mr 31,3
	.cfi_offset 31, -12
	stw 0,28(1)
	.loc 1 975 0
	.cfi_offset 65, 4
	bl Sys_FloatTime
.LVL144:
	.loc 1 976 0
	lis 9,.LANCHOR0@ha
	.loc 1 975 0
	fadd 1,1,31
	.loc 1 976 0
	la 9,.LANCHOR0@l(9)
	lwz 11,8(9)
.LVL145:
	.loc 1 975 0
	stfd 1,8(31)
	.loc 1 976 0
	cmpwi 7,11,0
	beq- 7,.L183
	.loc 1 978 0
	lfd 0,8(11)
	fcmpu 7,1,0
	cror 30,28,30
	bne+ 7,.L189
	b .L183
.LVL146:
.L187:
	lfd 0,8(9)
	fcmpu 7,1,0
	cror 30,28,30
	beq- 7,.L185
	mr 11,9
.LVL147:
.L189:
	.loc 1 976 0
	lwz 9,0(11)
.LVL148:
	cmpwi 7,9,0
	bne+ 7,.L187
.L185:
	.loc 1 992 0
	lwz 0,28(1)
	.loc 1 990 0
	stw 9,0(31)
	.loc 1 992 0
	mtlr 0
	.loc 1 991 0
	stw 31,0(11)
	.loc 1 992 0
	lfd 31,16(1)
.LVL149:
	lwz 31,12(1)
.LVL150:
	addi 1,1,24
	.cfi_remember_state
.LCFI66:
	.cfi_def_cfa_offset 0
	.cfi_restore 63
	.cfi_restore 31
	blr
.LVL151:
.L183:
.LCFI67:
	.cfi_restore_state
	lwz 0,28(1)
	.loc 1 985 0
	stw 11,0(31)
	.loc 1 992 0
	mtlr 0
	.loc 1 986 0
	stw 31,8(9)
	.loc 1 992 0
	lfd 31,16(1)
.LVL152:
	lwz 31,12(1)
.LVL153:
	addi 1,1,24
	.cfi_restore 31
	.cfi_restore 63
.LCFI68:
	.cfi_def_cfa_offset 0
	blr
	.cfi_endproc
.LFE61:
	.size	SchedulePollProcedure, .-SchedulePollProcedure
	.align 2
	.type	Slist_Poll, @function
Slist_Poll:
.LFB49:
	.loc 1 332 0
	.cfi_startproc
	stwu 1,-24(1)
.LCFI69:
	.cfi_def_cfa_offset 24
	mflr 0
	stw 29,12(1)
	.loc 1 333 0
	lis 29,net_numdrivers@ha
	.cfi_offset 29, -12
	.cfi_register 65, 0
	.loc 1 332 0
	stw 0,28(1)
	.loc 1 333 0
	lwz 0,net_numdrivers@l(29)
	.cfi_offset 65, 4
	.loc 1 332 0
	stw 31,20(1)
	.loc 1 333 0
	lis 31,net_driverlevel@ha
	.cfi_offset 31, -4
	cmpwi 7,0,0
	li 0,0
	.loc 1 332 0
	stw 28,8(1)
	stw 30,16(1)
	.loc 1 333 0
	stw 0,net_driverlevel@l(31)
	ble- 7,.L191
	.cfi_offset 30, -8
	.cfi_offset 28, -16
	lis 28,slistLocal@ha
	.loc 1 337 0
	lis 30,net_drivers@ha
	la 28,slistLocal@l(28)
	la 31,net_driverlevel@l(31)
	la 29,net_numdrivers@l(29)
	la 30,net_drivers@l(30)
	b .L194
.L193:
	.loc 1 333 0
	lwz 11,0(31)
	lwz 9,0(29)
	addi 0,11,1
	cmpw 7,9,0
	stw 0,0(31)
	ble- 7,.L191
.L194:
	.loc 1 335 0
	lbz 9,0(28)
	.loc 1 337 0
	mulli 11,0,60
	.loc 1 335 0
	cmpwi 6,0,0
	cmpwi 7,9,0
	.loc 1 337 0
	add 11,30,11
	.loc 1 335 0
	bne- 7,.L192
	.loc 1 335 0 is_stmt 0 discriminator 1
	beq- 6,.L193
.L192:
	.loc 1 337 0 is_stmt 1
	lbz 0,4(11)
	cmpwi 7,0,0
	beq+ 7,.L193
	.loc 1 339 0
	lwz 0,16(11)
	li 3,0
	mtctr 0
	bctrl
	.loc 1 333 0
	lwz 11,0(31)
	lwz 9,0(29)
	addi 0,11,1
	cmpw 7,9,0
	stw 0,0(31)
	bgt+ 7,.L194
.L191:
	.loc 1 342 0
	lis 31,slistSilent@ha
	lbz 0,slistSilent@l(31)
	cmpwi 7,0,0
	beq- 7,.L202
	.loc 1 345 0
	bl Sys_FloatTime
	lis 9,.LANCHOR0+16@ha
	lfd 0,.LANCHOR0+16@l(9)
	lis 9,.LC39@ha
	lfs 13,.LC39@l(9)
	fsub 0,1,0
	fcmpu 7,0,13
	blt- 7,.L203
.L201:
	.loc 1 351 0
	lbz 0,slistSilent@l(31)
	cmpwi 7,0,0
	beq- 7,.L204
	.loc 1 353 0
	li 0,0
	lis 9,slistInProgress@ha
	stb 0,slistInProgress@l(9)
	.loc 1 355 0
	lis 9,slistLocal@ha
	.loc 1 354 0
	stb 0,slistSilent@l(31)
	.loc 1 355 0
	li 0,1
	stb 0,slistLocal@l(9)
	.loc 1 356 0
	lwz 0,28(1)
	lwz 28,8(1)
	mtlr 0
	lwz 29,12(1)
	lwz 30,16(1)
	lwz 31,20(1)
	addi 1,1,24
	.cfi_remember_state
.LCFI70:
	.cfi_def_cfa_offset 0
	.cfi_restore 31
	.cfi_restore 30
	.cfi_restore 29
	.cfi_restore 28
	blr
.L202:
.LCFI71:
	.cfi_restore_state
	.loc 1 343 0
	bl PrintSlist
	.loc 1 345 0
	bl Sys_FloatTime
	lis 9,.LANCHOR0+16@ha
	lfd 0,.LANCHOR0+16@l(9)
	lis 9,.LC39@ha
	lfs 13,.LC39@l(9)
	fsub 0,1,0
	fcmpu 7,0,13
	bnl+ 7,.L201
.L203:
	.loc 1 356 0
	lwz 0,28(1)
	.loc 1 347 0
	lis 9,.LC40@ha
	lis 3,.LANCHOR1@ha
	.loc 1 356 0
	lwz 28,8(1)
	lwz 29,12(1)
	.loc 1 347 0
	la 3,.LANCHOR1@l(3)
	.loc 1 356 0
	lwz 30,16(1)
	mtlr 0
	lwz 31,20(1)
	.loc 1 347 0
	addi 3,3,200
	lfd 1,.LC40@l(9)
	.loc 1 356 0
	addi 1,1,24
	.cfi_remember_state
.LCFI72:
	.cfi_def_cfa_offset 0
	.cfi_restore 31
	.cfi_restore 30
	.cfi_restore 29
	.cfi_restore 28
	.loc 1 347 0
	b SchedulePollProcedure
.L204:
.LCFI73:
	.cfi_restore_state
	.loc 1 352 0
	bl PrintSlistTrailer
	.loc 1 353 0
	li 0,0
	lis 9,slistInProgress@ha
	.loc 1 354 0
	stb 0,slistSilent@l(31)
	.loc 1 353 0
	stb 0,slistInProgress@l(9)
	.loc 1 355 0
	li 0,1
	lis 9,slistLocal@ha
	.loc 1 356 0
	lwz 28,8(1)
	.loc 1 355 0
	stb 0,slistLocal@l(9)
	.loc 1 356 0
	lwz 0,28(1)
	lwz 29,12(1)
	mtlr 0
	lwz 30,16(1)
	lwz 31,20(1)
	addi 1,1,24
	.cfi_restore 28
	.cfi_restore 29
	.cfi_restore 30
	.cfi_restore 31
.LCFI74:
	.cfi_def_cfa_offset 0
	blr
	.cfi_endproc
.LFE49:
	.size	Slist_Poll, .-Slist_Poll
	.align 2
	.type	Slist_Send, @function
Slist_Send:
.LFB48:
	.loc 1 316 0
	.cfi_startproc
	stwu 1,-24(1)
.LCFI75:
	.cfi_def_cfa_offset 24
	mflr 0
	stw 29,12(1)
	.loc 1 317 0
	lis 29,net_numdrivers@ha
	.cfi_offset 29, -12
	.cfi_register 65, 0
	.loc 1 316 0
	stw 0,28(1)
	.loc 1 317 0
	lwz 0,net_numdrivers@l(29)
	.cfi_offset 65, 4
	.loc 1 316 0
	stw 31,20(1)
	.loc 1 317 0
	lis 31,net_driverlevel@ha
	.cfi_offset 31, -4
	cmpwi 7,0,0
	li 0,0
	.loc 1 316 0
	stw 28,8(1)
	stw 30,16(1)
	.loc 1 317 0
	stw 0,net_driverlevel@l(31)
	ble- 7,.L206
	.cfi_offset 30, -8
	.cfi_offset 28, -16
	lis 28,slistLocal@ha
	.loc 1 321 0
	lis 30,net_drivers@ha
	la 28,slistLocal@l(28)
	la 31,net_driverlevel@l(31)
	la 29,net_numdrivers@l(29)
	la 30,net_drivers@l(30)
	b .L209
.L208:
	.loc 1 317 0
	lwz 11,0(31)
	lwz 9,0(29)
	addi 0,11,1
	cmpw 7,9,0
	stw 0,0(31)
	ble- 7,.L206
.L209:
	.loc 1 319 0
	lbz 9,0(28)
	.loc 1 321 0
	mulli 11,0,60
	.loc 1 319 0
	cmpwi 6,0,0
	cmpwi 7,9,0
	.loc 1 321 0
	add 11,30,11
	.loc 1 319 0
	bne- 7,.L207
	.loc 1 319 0 is_stmt 0 discriminator 1
	beq- 6,.L208
.L207:
	.loc 1 321 0 is_stmt 1
	lbz 0,4(11)
	cmpwi 7,0,0
	beq+ 7,.L208
	.loc 1 323 0
	lwz 0,16(11)
	li 3,1
	mtctr 0
	bctrl
	.loc 1 317 0
	lwz 11,0(31)
	lwz 9,0(29)
	addi 0,11,1
	cmpw 7,9,0
	stw 0,0(31)
	bgt+ 7,.L209
.L206:
	.loc 1 326 0
	bl Sys_FloatTime
	lis 9,.LANCHOR0+16@ha
	lfd 0,.LANCHOR0+16@l(9)
	lis 9,.LC42@ha
	lfs 13,.LC42@l(9)
	fsub 0,1,0
	fcmpu 7,0,13
	blt- 7,.L215
	.loc 1 328 0
	lwz 0,28(1)
	lwz 28,8(1)
	mtlr 0
	lwz 29,12(1)
	lwz 30,16(1)
	lwz 31,20(1)
	addi 1,1,24
	.cfi_remember_state
.LCFI76:
	.cfi_def_cfa_offset 0
	.cfi_restore 31
	.cfi_restore 30
	.cfi_restore 29
	.cfi_restore 28
	blr
.L215:
.LCFI77:
	.cfi_restore_state
	lwz 0,28(1)
.LBB40:
.LBB41:
	.loc 1 327 0
	lis 9,.LC44@ha
	lis 3,.LANCHOR1@ha
.LBE41:
.LBE40:
	.loc 1 328 0
	lwz 28,8(1)
	lwz 29,12(1)
.LBB45:
.LBB42:
	.loc 1 327 0
	la 3,.LANCHOR1@l(3)
.LBE42:
.LBE45:
	.loc 1 328 0
	lwz 30,16(1)
	mtlr 0
	lwz 31,20(1)
.LBB46:
.LBB43:
	.loc 1 327 0
	addi 3,3,224
	lfs 1,.LC44@l(9)
.LBE43:
.LBE46:
	.loc 1 328 0
	addi 1,1,24
.LCFI78:
	.cfi_def_cfa_offset 0
	.cfi_restore 31
	.cfi_restore 30
	.cfi_restore 29
	.cfi_restore 28
.LBB47:
.LBB44:
	.loc 1 327 0
	b SchedulePollProcedure
.LBE44:
.LBE47:
	.cfi_endproc
.LFE48:
	.size	Slist_Send, .-Slist_Send
	.align 2
	.globl NET_Slist_f
	.type	NET_Slist_f, @function
NET_Slist_f:
.LFB47:
	.loc 1 295 0
	.cfi_startproc
	stwu 1,-24(1)
.LCFI79:
	.cfi_def_cfa_offset 24
	mflr 0
	stw 31,20(1)
	.loc 1 296 0
	lis 31,slistInProgress@ha
	.cfi_offset 31, -4
	.cfi_register 65, 0
	.loc 1 295 0
	stw 0,28(1)
	.loc 1 296 0
	lbz 0,slistInProgress@l(31)
	.cfi_offset 65, 4
	.loc 1 295 0
	stw 29,12(1)
	.loc 1 296 0
	cmpwi 7,0,0
	.loc 1 295 0
	stw 30,16(1)
	.loc 1 296 0
	bne- 7,.L216
	.cfi_offset 30, -8
	.cfi_offset 29, -12
.LBB52:
.LBB53:
	.loc 1 299 0
	lis 9,slistSilent@ha
	lis 30,.LANCHOR0@ha
	lbz 29,slistSilent@l(9)
	cmpwi 7,29,0
	beq- 7,.L220
.L218:
	.loc 1 305 0
	li 0,1
	.loc 1 306 0
	la 30,.LANCHOR0@l(30)
	.loc 1 305 0
	stb 0,slistInProgress@l(31)
	.loc 1 306 0
	bl Sys_FloatTime
	.loc 1 308 0
	lis 31,.LANCHOR1@ha
	lis 9,.LC48@ha
	la 31,.LANCHOR1@l(31)
	.loc 1 306 0
	stfd 1,16(30)
	.loc 1 308 0
	lfd 1,.LC48@l(9)
	addi 3,31,224
	bl SchedulePollProcedure
	.loc 1 309 0
	lis 9,.LC40@ha
	lfd 1,.LC40@l(9)
	addi 3,31,200
	bl SchedulePollProcedure
	.loc 1 311 0
	li 0,0
	lis 9,hostCacheCount@ha
	stw 0,hostCacheCount@l(9)
.L216:
.LBE53:
.LBE52:
	.loc 1 312 0
	lwz 0,28(1)
	lwz 29,12(1)
	mtlr 0
	lwz 30,16(1)
	lwz 31,20(1)
	addi 1,1,24
	.cfi_remember_state
.LCFI80:
	.cfi_def_cfa_offset 0
	.cfi_restore 31
	.cfi_restore 30
	.cfi_restore 29
	blr
.L220:
.LCFI81:
	.cfi_restore_state
.LBB57:
.LBB56:
	.loc 1 301 0
	lis 3,.LC45@ha
	la 3,.LC45@l(3)
	crxor 6,6,6
	bl Con_Printf
.LBB54:
.LBB55:
	.loc 1 264 0
	lis 3,.LC46@ha
	la 3,.LC46@l(3)
	crxor 6,6,6
	bl Con_Printf
	.loc 1 265 0
	lis 3,.LC47@ha
	la 3,.LC47@l(3)
	crxor 6,6,6
	bl Con_Printf
	.loc 1 266 0
	stw 29,.LANCHOR0@l(30)
	b .L218
.LBE55:
.LBE54:
.LBE56:
.LBE57:
	.cfi_endproc
.LFE47:
	.size	NET_Slist_f, .-NET_Slist_f
	.align 2
	.globl NET_Connect
	.type	NET_Connect, @function
NET_Connect:
.LFB50:
	.loc 1 369 0
	.cfi_startproc
.LVL154:
	mfcr 12
	.loc 1 376 0
	cmpwi 4,3,0
	.loc 1 369 0
	mflr 0
	stwu 1,-40(1)
.LCFI82:
	.cfi_def_cfa_offset 40
	.cfi_register 65, 0
	.cfi_register 70, 12
	.loc 1 372 0
	lis 9,net_numdrivers@ha
	.loc 1 369 0
	stw 29,28(1)
	mr 29,3
	.cfi_offset 29, -12
	stw 31,36(1)
	stw 0,44(1)
	stw 26,16(1)
	stw 27,20(1)
	stw 28,24(1)
	stw 30,32(1)
	stw 12,12(1)
	.loc 1 372 0
	lwz 31,net_numdrivers@l(9)
	.cfi_offset 70, -28
	.cfi_offset 30, -8
	.cfi_offset 28, -16
	.cfi_offset 27, -20
	.cfi_offset 26, -24
	.cfi_offset 65, 4
	.cfi_offset 31, -4
.LVL155:
	.loc 1 374 0
	bl SetNetTime
.LVL156:
	.loc 1 376 0
	beq- 4,.L240
	.loc 1 376 0 is_stmt 0 discriminator 1
	lbz 0,0(29)
	cmpwi 7,0,0
	beq- 7,.L241
	.loc 1 381 0 is_stmt 1
	lis 4,.LC51@ha
	mr 3,29
	la 4,.LC51@l(4)
	bl Q_strcasecmp
	cmpwi 0,3,0
	bne- 0,.L250
.LVL157:
	.loc 1 423 0
	lis 30,net_driverlevel@ha
	.loc 1 383 0
	li 31,1
	.loc 1 423 0
	stw 3,net_driverlevel@l(30)
.LVL158:
.L239:
	lis 28,net_drivers@ha
	.loc 1 383 0
	li 0,0
	la 28,net_drivers@l(28)
	b .L236
.L235:
	.loc 1 423 0
	lwz 9,net_driverlevel@l(30)
	addi 0,9,1
	cmpw 7,0,31
	stw 0,net_driverlevel@l(30)
	bge- 7,.L234
.L236:
	.loc 1 425 0
	mulli 0,0,60
	add 9,28,0
	lbz 0,4(9)
	cmpwi 7,0,0
	beq+ 7,.L235
	.loc 1 427 0
	lwz 0,20(9)
	mr 3,29
	mtctr 0
	bctrl
.LVL159:
	.loc 1 428 0
	cmpwi 0,3,0
	beq+ 0,.L235
.LVL160:
.L231:
	.loc 1 441 0
	lwz 0,44(1)
	lwz 12,12(1)
	mtlr 0
	lwz 26,16(1)
	lwz 27,20(1)
	mtcrf 8,12
	lwz 28,24(1)
	lwz 29,28(1)
.LVL161:
	lwz 30,32(1)
	lwz 31,36(1)
	addi 1,1,40
	.cfi_remember_state
.LCFI83:
	.cfi_def_cfa_offset 0
	.cfi_restore 70
	.cfi_restore 31
	.cfi_restore 30
	.cfi_restore 29
	.cfi_restore 28
	.cfi_restore 27
	.cfi_restore 26
	blr
.LVL162:
.L241:
.LCFI84:
	.cfi_restore_state
	mcrf 4,7
	.loc 1 376 0
	li 0,0
	li 29,0
.LVL163:
	lis 30,hostCacheCount@ha
.L222:
.LVL164:
	.loc 1 400 0
	lis 9,slistSilent@ha
	.loc 1 403 0
	lis 28,slistInProgress@ha
	.loc 1 400 0
	stb 0,slistSilent@l(9)
	.loc 1 401 0
	bl NET_Slist_f
	.loc 1 403 0
	lbz 0,slistInProgress@l(28)
	cmpwi 7,0,0
	beq- 7,.L228
	la 28,slistInProgress@l(28)
.L229:
	.loc 1 404 0
	bl NET_Poll
	.loc 1 403 0
	lbz 0,0(28)
	cmpwi 7,0,0
	bne+ 7,.L229
.L228:
	.loc 1 406 0
	beq- 4,.L251
.LVL165:
.L230:
	.loc 1 414 0
	lwz 0,hostCacheCount@l(30)
	cmpwi 7,0,0
	beq- 7,.L226
.LVL166:
	.loc 1 415 0 discriminator 1
	ble- 7,.L226
	lis 27,hostcache@ha
	.loc 1 415 0 is_stmt 0
	li 28,0
	la 27,hostcache@l(27)
	b .L233
.LVL167:
.L232:
	lwz 0,hostCacheCount@l(30)
	cmpw 7,0,28
	ble- 7,.L226
.LVL168:
.L233:
	.loc 1 416 0 is_stmt 1
	mulli 26,28,96
	mr 3,29
	.loc 1 415 0
	addi 28,28,1
	.loc 1 416 0
	add 4,27,26
	bl Q_strcasecmp
	cmpwi 7,3,0
	bne+ 7,.L232
	.loc 1 418 0
	addi 29,26,32
.LVL169:
	add 29,29,27
.LVL170:
.L226:
	.loc 1 423 0
	cmpwi 7,31,0
	lis 30,net_driverlevel@ha
	li 0,0
	stw 0,net_driverlevel@l(30)
	bgt+ 7,.L239
.LVL171:
.L234:
	.loc 1 434 0
	lis 3,.LC50@ha
	la 3,.LC50@l(3)
	crxor 6,6,6
	bl Con_Printf
.LBB58:
.LBB59:
	.loc 1 264 0
	lis 3,.LC46@ha
	la 3,.LC46@l(3)
	crxor 6,6,6
	bl Con_Printf
	.loc 1 265 0
	lis 3,.LC47@ha
	la 3,.LC47@l(3)
	crxor 6,6,6
	bl Con_Printf
	.loc 1 266 0
	li 0,0
	lis 9,.LANCHOR0@ha
	stw 0,.LANCHOR0@l(9)
.LBE59:
.LBE58:
	.loc 1 436 0
	bl PrintSlist
	.loc 1 437 0
	bl PrintSlistTrailer
	.loc 1 441 0
	lwz 0,44(1)
	lwz 12,12(1)
	.loc 1 440 0
	li 3,0
	.loc 1 441 0
	mtlr 0
	lwz 26,16(1)
	lwz 27,20(1)
	mtcrf 8,12
	lwz 28,24(1)
	lwz 29,28(1)
.LVL172:
	lwz 30,32(1)
	lwz 31,36(1)
	addi 1,1,40
	.cfi_remember_state
	.cfi_restore 26
	.cfi_restore 27
	.cfi_restore 28
	.cfi_restore 29
	.cfi_restore 30
	.cfi_restore 31
	.cfi_restore 70
.LCFI85:
	.cfi_def_cfa_offset 0
	blr
.LVL173:
.L250:
.LCFI86:
	.cfi_restore_state
	.loc 1 387 0
	lis 30,hostCacheCount@ha
	li 0,1
	lwz 9,hostCacheCount@l(30)
	cmpwi 7,9,0
	beq- 7,.L222
.LVL174:
	.loc 1 389 0 discriminator 1
	ble- 7,.L224
	lis 27,hostcache@ha
	.loc 1 389 0 is_stmt 0
	li 28,0
	la 27,hostcache@l(27)
	b .L227
.LVL175:
.L225:
	addi 28,28,1
.LVL176:
	cmpw 7,0,28
	ble- 7,.L224
.LVL177:
.L227:
	.loc 1 390 0 is_stmt 1
	mulli 26,28,96
	mr 3,29
	add 4,27,26
	bl Q_strcasecmp
	.loc 1 395 0
	lwz 0,hostCacheCount@l(30)
	.loc 1 390 0
	cmpwi 7,3,0
	bne+ 7,.L225
	.loc 1 395 0
	cmpw 7,0,28
	.loc 1 392 0
	addi 29,26,32
.LVL178:
	add 29,29,27
.LVL179:
	.loc 1 395 0
	bgt+ 7,.L226
	li 0,1
	cmpwi 4,29,0
	b .L222
.L240:
	.loc 1 376 0
	li 0,0
	lis 30,hostCacheCount@ha
	b .L222
.L224:
	.loc 1 395 0
	li 0,1
	b .L222
.L251:
	.loc 1 408 0
	lwz 0,hostCacheCount@l(30)
	.loc 1 409 0
	li 3,0
	.loc 1 408 0
	cmpwi 7,0,1
	bne- 7,.L231
.LVL180:
	.loc 1 411 0
	lis 27,hostcache@ha
	lis 3,.LC49@ha
	la 27,hostcache@l(27)
	la 3,.LC49@l(3)
	addi 29,27,32
	mr 4,27
	mr 5,29
	crxor 6,6,6
	bl Con_Printf
	b .L230
	.cfi_endproc
.LFE50:
	.size	NET_Connect, .-NET_Connect
	.comm	vcrSendMessage,24,8
	.comm	vcrGetMessage,24,8
	.comm	vcrConnect,16,8
	.comm	hostcache,768,4
	.globl hostCacheCount
	.comm	net_time,8,8
	.comm	net_driverlevel,4,4
	.globl recording
	.globl vcrFile
	.globl config_modem_hangup
	.globl config_modem_init
	.globl config_modem_clear
	.globl config_modem_dialtype
	.globl config_com_modem
	.globl config_com_baud
	.globl config_com_irq
	.globl config_com_port
	.globl configRestored
	.globl hostname
	.globl net_messagetimeout
	.globl unreliableMessagesReceived
	.globl unreliableMessagesSent
	.globl messagesReceived
	.globl messagesSent
	.globl net_activeconnections
	.comm	net_message,16,4
	.globl slistPollProcedure
	.globl slistSendProcedure
	.globl slistLocal
	.globl slistSilent
	.globl slistInProgress
	.comm	SetModemConfig,4,4
	.comm	GetModemConfig,4,4
	.comm	SetComPortConfig,4,4
	.comm	GetComPortConfig,4,4
	.comm	my_tcpip_address,64,4
	.comm	my_ipx_address,64,4
	.globl DEFAULTnet_hostport
	.comm	net_hostport,4,4
	.globl tcpipAvailable
	.globl ipxAvailable
	.globl serialAvailable
	.globl net_numsockets
	.globl net_freeSockets
	.globl net_activeSockets
	.comm	causticschain,4,4
	.section	.rodata.cst4,"aM",@progbits,4
	.align 2
.LC21:
	.4byte	1501560836
.LC37:
	.4byte	1065353216
.LC39:
	.4byte	1069547520
.LC42:
	.4byte	1056964608
.LC44:
	.4byte	1061158912
	.section	.rodata.cst8,"aM",@progbits,8
	.align 3
.LC40:
	.4byte	1069128089
	.4byte	-1717986918
.LC48:
	.4byte	0
	.4byte	0
	.section	".data"
	.align 3
	.set	.LANCHOR1,. + 0
	.type	net_messagetimeout, @object
	.size	net_messagetimeout, 20
net_messagetimeout:
	.long	.LC69
	.long	.LC70
	.zero	12
	.type	hostname, @object
	.size	hostname, 20
hostname:
	.long	.LC67
	.long	.LC68
	.zero	12
	.type	config_com_port, @object
	.size	config_com_port, 20
config_com_port:
	.long	.LC65
	.long	.LC66
	.byte	1
	.zero	11
	.type	config_com_irq, @object
	.size	config_com_irq, 20
config_com_irq:
	.long	.LC63
	.long	.LC64
	.byte	1
	.zero	11
	.type	config_com_baud, @object
	.size	config_com_baud, 20
config_com_baud:
	.long	.LC61
	.long	.LC62
	.byte	1
	.zero	11
	.type	config_com_modem, @object
	.size	config_com_modem, 20
config_com_modem:
	.long	.LC60
	.long	.LC13
	.byte	1
	.zero	11
	.type	config_modem_dialtype, @object
	.size	config_modem_dialtype, 20
config_modem_dialtype:
	.long	.LC58
	.long	.LC59
	.byte	1
	.zero	11
	.type	config_modem_clear, @object
	.size	config_modem_clear, 20
config_modem_clear:
	.long	.LC56
	.long	.LC57
	.byte	1
	.zero	11
	.type	config_modem_init, @object
	.size	config_modem_init, 20
config_modem_init:
	.long	.LC54
	.long	.LC55
	.byte	1
	.zero	11
	.type	config_modem_hangup, @object
	.size	config_modem_hangup, 20
config_modem_hangup:
	.long	.LC52
	.long	.LC53
	.byte	1
	.zero	11
	.type	slistPollProcedure, @object
	.size	slistPollProcedure, 24
slistPollProcedure:
	.long	0
	.zero	4
	.long	0
	.long	0
	.long	Slist_Poll
	.zero	4
	.type	slistSendProcedure, @object
	.size	slistSendProcedure, 24
slistSendProcedure:
	.long	0
	.zero	4
	.long	0
	.long	0
	.long	Slist_Send
	.zero	4
	.section	.rodata.str1.4,"aMS",@progbits,1
	.align 2
.LC0:
	.string	"%-15.15s %-15.15s %2u/%2u\n"
	.zero	1
.LC1:
	.string	"%-15.15s %-15.15s\n"
	.zero	1
.LC2:
	.string	"== end list ==\n\n"
	.zero	3
.LC3:
	.string	"No Quake servers found.\n\n"
	.zero	2
.LC4:
	.string	"\"listen\" is \"%u\"\n"
	.zero	2
.LC5:
	.string	"\"port\" is \"%u\"\n"
.LC6:
	.string	"Bad value, must be between 1 and 65534\n"
.LC7:
	.string	"listen 0\n"
	.zero	2
.LC8:
	.string	"listen 1\n"
	.zero	2
.LC9:
	.string	"\"maxplayers\" is \"%u\"\n"
	.zero	2
.LC10:
	.string	"maxplayers can not be changed while a server is running.\n"
	.zero	2
.LC11:
	.string	"\"maxplayers\" set to \"%u\"\n"
	.zero	2
.LC12:
	.string	"deathmatch"
	.zero	1
.LC13:
	.string	"1"
	.zero	2
.LC14:
	.string	"0"
	.zero	2
.LC15:
	.string	"UNSET ADDRESS"
	.zero	2
.LC16:
	.string	"NET_FreeQSocket: not active\n"
	.zero	3
.LC17:
	.string	"NET_GetMessage: disconnected socket\n"
	.zero	3
.LC18:
	.string	"*** Connection timed out after %f s of inactivity (max is %f)\n"
	.zero	1
.LC19:
	.string	"NET_SendMessage: disconnected socket\n"
	.zero	2
.LC22:
	.string	"-playback"
	.zero	2
.LC23:
	.string	"-record"
.LC24:
	.string	"-port"
	.zero	2
.LC25:
	.string	"-udpport"
	.zero	3
.LC26:
	.string	"-ipxport"
	.zero	3
.LC27:
	.string	"NET_Init: you must specify a number after -port"
.LC28:
	.string	"-listen"
.LC29:
	.string	"qsocket"
.LC30:
	.string	"slist"
	.zero	2
.LC31:
	.string	"listen"
	.zero	1
.LC32:
	.string	"maxplayers"
	.zero	1
.LC33:
	.string	"port"
	.zero	3
.LC34:
	.string	"IPX address %s\n"
.LC35:
	.string	"TCP/IP address %s\n"
	.zero	1
.LC36:
	.string	"Closing vcrfile.\n"
	.zero	2
.LC45:
	.string	"Looking for Quake servers...\n"
	.zero	2
.LC46:
	.string	"Server          Map             Users\n"
	.zero	1
.LC47:
	.string	"--------------- --------------- -----\n"
	.zero	1
.LC49:
	.string	"Connecting to...\n%s @ %s\n\n"
	.zero	1
.LC50:
	.string	"\n"
	.zero	2
.LC51:
	.string	"local"
	.zero	2
.LC52:
	.string	"_config_modem_hangup"
	.zero	3
.LC53:
	.string	"AT H"
	.zero	3
.LC54:
	.string	"_config_modem_init"
	.zero	1
.LC55:
	.string	""
	.zero	3
.LC56:
	.string	"_config_modem_clear"
.LC57:
	.string	"ATZ"
.LC58:
	.string	"_config_modem_dialtype"
	.zero	1
.LC59:
	.string	"T"
	.zero	2
.LC60:
	.string	"_config_com_modem"
	.zero	2
.LC61:
	.string	"_config_com_baud"
	.zero	3
.LC62:
	.string	"57600"
	.zero	2
.LC63:
	.string	"_config_com_irq"
.LC64:
	.string	"4"
	.zero	2
.LC65:
	.string	"_config_com_port"
	.zero	3
.LC66:
	.string	"0x3f8"
	.zero	2
.LC67:
	.string	"hostname"
	.zero	3
.LC68:
	.string	"UNNAMED"
.LC69:
	.string	"net_messagetimeout"
	.zero	1
.LC70:
	.string	"300"
	.section	.sbss,"aw",@nobits
	.align 2
	.type	hostCacheCount, @object
	.size	hostCacheCount, 4
hostCacheCount:
	.zero	4
	.type	recording, @object
	.size	recording, 1
recording:
	.zero	1
	.type	configRestored, @object
	.size	configRestored, 1
configRestored:
	.zero	1
	.zero	2
	.type	unreliableMessagesReceived, @object
	.size	unreliableMessagesReceived, 4
unreliableMessagesReceived:
	.zero	4
	.type	unreliableMessagesSent, @object
	.size	unreliableMessagesSent, 4
unreliableMessagesSent:
	.zero	4
	.type	messagesReceived, @object
	.size	messagesReceived, 4
messagesReceived:
	.zero	4
	.type	messagesSent, @object
	.size	messagesSent, 4
messagesSent:
	.zero	4
	.type	net_activeconnections, @object
	.size	net_activeconnections, 4
net_activeconnections:
	.zero	4
	.type	slistSilent, @object
	.size	slistSilent, 1
slistSilent:
	.zero	1
	.type	slistInProgress, @object
	.size	slistInProgress, 1
slistInProgress:
	.zero	1
	.type	tcpipAvailable, @object
	.size	tcpipAvailable, 1
tcpipAvailable:
	.zero	1
	.type	ipxAvailable, @object
	.size	ipxAvailable, 1
ipxAvailable:
	.zero	1
	.type	serialAvailable, @object
	.size	serialAvailable, 1
serialAvailable:
	.zero	1
	.zero	3
	.type	net_numsockets, @object
	.size	net_numsockets, 4
net_numsockets:
	.zero	4
	.type	net_freeSockets, @object
	.size	net_freeSockets, 4
net_freeSockets:
	.zero	4
	.type	net_activeSockets, @object
	.size	net_activeSockets, 4
net_activeSockets:
	.zero	4
	.section	.sdata,"aw",@progbits
	.align 2
	.type	vcrFile, @object
	.size	vcrFile, 4
vcrFile:
	.long	-1
	.type	slistLocal, @object
	.size	slistLocal, 1
slistLocal:
	.byte	1
	.zero	3
	.type	DEFAULTnet_hostport, @object
	.size	DEFAULTnet_hostport, 4
DEFAULTnet_hostport:
	.long	26000
	.section	".bss"
	.align 3
	.set	.LANCHOR0,. + 0
	.type	slistLastShown, @object
	.size	slistLastShown, 4
slistLastShown:
	.zero	4
	.type	listening, @object
	.size	listening, 1
listening:
	.zero	1
	.zero	3
	.type	pollProcedureList, @object
	.size	pollProcedureList, 4
pollProcedureList:
	.zero	4
	.zero	4
	.type	slistStartTime, @object
	.size	slistStartTime, 8
slistStartTime:
	.zero	8
	.section	".text"
.Letext0:
	.file 2 "c:\\utils\\devkitpro\\devkitppc\\bin\\../lib/gcc/powerpc-eabi/4.6.3/../../../../powerpc-eabi/include/machine/_types.h"
	.file 3 "c:\\utils\\devkitpro\\devkitppc\\bin\\../lib/gcc/powerpc-eabi/4.6.3/../../../../powerpc-eabi/include/sys/lock.h"
	.file 4 "c:\\utils\\devkitpro\\devkitppc\\bin\\../lib/gcc/powerpc-eabi/4.6.3/include/stddef.h"
	.file 5 "c:\\utils\\devkitpro\\devkitppc\\bin\\../lib/gcc/powerpc-eabi/4.6.3/../../../../powerpc-eabi/include/sys/_types.h"
	.file 6 "c:\\utils\\devkitpro\\devkitppc\\bin\\../lib/gcc/powerpc-eabi/4.6.3/../../../../powerpc-eabi/include/sys/reent.h"
	.file 7 "c:\\utils\\devkitpro\\devkitppc\\bin\\../lib/gcc/powerpc-eabi/4.6.3/../../../../powerpc-eabi/include/stdio.h"
	.file 8 "d:/Data/Nintendo/TenebraeGX/src/common.h"
	.file 9 "d:/Data/Nintendo/TenebraeGX/src/bspfile.h"
	.file 10 "d:/Data/Nintendo/TenebraeGX/src/zone.h"
	.file 11 "d:/Data/Nintendo/TenebraeGX/src/mathlib.h"
	.file 12 "d:/Data/Nintendo/TenebraeGX/src/quakedef.h"
	.file 13 "d:/Data/Nintendo/TenebraeGX/src/cvar.h"
	.file 14 "d:/Data/Nintendo/TenebraeGX/src/net.h"
	.file 15 "d:/Data/Nintendo/TenebraeGX/src/render.h"
	.file 16 "d:/Data/Nintendo/TenebraeGX/src/gl_model.h"
	.file 17 "d:/Data/Nintendo/TenebraeGX/src/glquake.h"
	.file 18 "d:/Data/Nintendo/TenebraeGX/src/client.h"
	.file 19 "d:/Data/Nintendo/TenebraeGX/src/pr_comp.h"
	.file 20 "d:/Data/Nintendo/TenebraeGX/src/progdefs.h"
	.file 21 "d:/Data/Nintendo/TenebraeGX/src/progs.h"
	.file 22 "d:/Data/Nintendo/TenebraeGX/src/server.h"
	.file 23 "d:/Data/Nintendo/TenebraeGX/src/modelgen.h"
	.file 24 "d:/Data/Nintendo/TenebraeGX/src/world.h"
	.file 25 "c:/utils/devkitPro/libogc/include/ogc/gx.h"