	.file	"net_vcr.c"
	.section	".text"
.Ltext0:
	.cfi_sections	.debug_frame
	.align 2
	.globl VCR_Shutdown
	.type	VCR_Shutdown, @function
VCR_Shutdown:
.LFB41:
	.file 1 "d:/Data/Nintendo/TenebraeGX/src/net_vcr.c"
	.loc 1 75 0
	.cfi_startproc
	.loc 1 76 0
	blr
	.cfi_endproc
.LFE41:
	.size	VCR_Shutdown, .-VCR_Shutdown
	.align 2
	.globl VCR_Close
	.type	VCR_Close, @function
VCR_Close:
.LFB45:
	.loc 1 133 0
	.cfi_startproc
.LVL0:
	.loc 1 135 0
	blr
	.cfi_endproc
.LFE45:
	.size	VCR_Close, .-VCR_Close
	.align 2
	.globl VCR_SearchForHosts
	.type	VCR_SearchForHosts, @function
VCR_SearchForHosts:
.LFB46:
	.loc 1 139 0
	.cfi_startproc
.LVL1:
	.loc 1 141 0
	blr
	.cfi_endproc
.LFE46:
	.size	VCR_SearchForHosts, .-VCR_SearchForHosts
	.align 2
	.globl VCR_Connect
	.type	VCR_Connect, @function
VCR_Connect:
.LFB47:
	.loc 1 145 0
	.cfi_startproc
.LVL2:
	.loc 1 148 0
	li 3,0
.LVL3:
	blr
	.cfi_endproc
.LFE47:
	.size	VCR_Connect, .-VCR_Connect
	.align 2
	.globl VCR_Init
	.type	VCR_Init, @function
VCR_Init:
.LFB38:
	.loc 1 40 0
	.cfi_startproc
	mflr 0
	stwu 1,-8(1)
.LCFI0:
	.cfi_def_cfa_offset 8
	.cfi_register 65, 0
	.loc 1 52 0
	lis 9,vcrFile@ha
	.loc 1 41 0
	lis 11,VCR_Init@ha
	.loc 1 52 0
	lwz 3,vcrFile@l(9)
	.loc 1 41 0
	lis 9,net_drivers@ha
	.loc 1 40 0
	stw 0,12(1)
	.loc 1 41 0
	la 9,net_drivers@l(9)
	la 0,VCR_Init@l(11)
	.cfi_offset 65, 4
	.loc 1 43 0
	lis 11,VCR_SearchForHosts@ha
	.loc 1 41 0
	stw 0,8(9)
	.loc 1 43 0
	la 0,VCR_SearchForHosts@l(11)
	.loc 1 44 0
	lis 11,VCR_Connect@ha
	.loc 1 43 0
	stw 0,16(9)
	.loc 1 44 0
	la 0,VCR_Connect@l(11)
	.loc 1 45 0
	lis 11,VCR_CheckNewConnections@ha
	.loc 1 44 0
	stw 0,20(9)
	.loc 1 45 0
	la 0,VCR_CheckNewConnections@l(11)
	.loc 1 46 0
	lis 11,VCR_GetMessage@ha
	.loc 1 45 0
	stw 0,24(9)
	.loc 1 46 0
	la 0,VCR_GetMessage@l(11)
	.loc 1 47 0
	lis 11,VCR_SendMessage@ha
	.loc 1 46 0
	stw 0,28(9)
	.loc 1 47 0
	la 0,VCR_SendMessage@l(11)
	.loc 1 48 0
	lis 11,VCR_CanSendMessage@ha
	.loc 1 47 0
	stw 0,32(9)
	.loc 1 48 0
	la 0,VCR_CanSendMessage@l(11)
	.loc 1 49 0
	lis 11,VCR_Close@ha
	.loc 1 48 0
	stw 0,40(9)
	.loc 1 49 0
	la 0,VCR_Close@l(11)
	.loc 1 50 0
	lis 11,VCR_Shutdown@ha
	.loc 1 49 0
	stw 0,48(9)
	.loc 1 50 0
	la 0,VCR_Shutdown@l(11)
	.loc 1 52 0
	lis 4,.LANCHOR0@ha
	.loc 1 50 0
	stw 0,52(9)
	.loc 1 52 0
	la 4,.LANCHOR0@l(4)
	li 5,16
	bl Sys_FileRead
	.loc 1 54 0
	lwz 0,12(1)
	li 3,0
	mtlr 0
	addi 1,1,8
.LCFI1:
	.cfi_def_cfa_offset 0
	blr
	.cfi_endproc
.LFE38:
	.size	VCR_Init, .-VCR_Init
	.align 2
	.globl VCR_ReadNext
	.type	VCR_ReadNext, @function
VCR_ReadNext:
.LFB39:
	.loc 1 57 0
	.cfi_startproc
	stwu 1,-16(1)
.LCFI2:
	.cfi_def_cfa_offset 16
	mflr 0
	.loc 1 58 0
	lis 9,vcrFile@ha
	li 5,16
	.loc 1 57 0
	stw 31,12(1)
	.loc 1 58 0
	lis 31,.LANCHOR0@ha
	.cfi_offset 31, -4
	.cfi_register 65, 0
	la 31,.LANCHOR0@l(31)
	lwz 3,vcrFile@l(9)
	mr 4,31
	.loc 1 57 0
	stw 0,20(1)
	.loc 1 58 0
	.cfi_offset 65, 4
	bl Sys_FileRead
	cmpwi 7,3,0
	beq- 7,.L10
.L7:
	.loc 1 63 0
	lwz 9,8(31)
	addi 0,9,-1
	cmplwi 7,0,3
	ble+ 7,.L6
	.loc 1 64 0
	lis 3,.LC1@ha
	la 3,.LC1@l(3)
	crxor 6,6,6
	bl Sys_Error
.L6:
	.loc 1 65 0
	lwz 0,20(1)
	lwz 31,12(1)
	mtlr 0
	addi 1,1,16
	.cfi_remember_state
.LCFI3:
	.cfi_def_cfa_offset 0
	.cfi_restore 31
	blr
.L10:
.LCFI4:
	.cfi_restore_state
	.loc 1 60 0
	li 0,255
	.loc 1 61 0
	lis 3,.LC0@ha
	.loc 1 60 0
	stw 0,8(31)
	.loc 1 61 0
	la 3,.LC0@l(3)
	crxor 6,6,6
	bl Sys_Error
	b .L7
	.cfi_endproc
.LFE39:
	.size	VCR_ReadNext, .-VCR_ReadNext
	.align 2
	.globl VCR_CheckNewConnections
	.type	VCR_CheckNewConnections, @function
VCR_CheckNewConnections:
.LFB48:
	.loc 1 152 0
	.cfi_startproc
	stwu 1,-16(1)
.LCFI5:
	.cfi_def_cfa_offset 16
	.loc 1 155 0
	lis 9,host_time@ha
	lfd 0,host_time@l(9)
	.loc 1 152 0
	mflr 0
	stw 30,8(1)
	.loc 1 155 0
	lis 30,.LANCHOR0@ha
	.cfi_offset 30, -8
	.cfi_register 65, 0
	lfd 13,.LANCHOR0@l(30)
	la 30,.LANCHOR0@l(30)
	.loc 1 152 0
	stw 0,20(1)
	.loc 1 155 0
	fcmpu 7,13,0
	.loc 1 152 0
	stw 31,12(1)
	.loc 1 155 0
	bne- 7,.L12
	.cfi_offset 31, -4
	.cfi_offset 65, 4
	.loc 1 155 0 is_stmt 0 discriminator 1
	lwz 0,8(30)
	cmpwi 7,0,1
	beq- 7,.L13
.L12:
	.loc 1 156 0 is_stmt 1
	lis 3,.LC2@ha
	la 3,.LC2@l(3)
	crxor 6,6,6
	bl Sys_Error
.L13:
	.loc 1 158 0
	lwz 0,12(30)
	cmpwi 7,0,0
	beq- 7,.L16
	.loc 1 164 0
	bl NET_NewQSocket
	.loc 1 165 0
	lwz 0,12(30)
	.loc 1 167 0
	lis 9,vcrFile@ha
	.loc 1 164 0
	mr 31,3
.LVL4:
	.loc 1 165 0
	stw 0,48(3)
	.loc 1 167 0
	addis 4,3,0x1
	lwz 3,vcrFile@l(9)
.LVL5:
	addi 4,4,-32672
	li 5,64
	bl Sys_FileRead
	.loc 1 168 0
	bl VCR_ReadNext
	.loc 1 171 0
	lwz 0,20(1)
	mr 3,31
	lwz 30,8(1)
	mtlr 0
	lwz 31,12(1)
.LVL6:
	addi 1,1,16
	.cfi_remember_state
.LCFI6:
	.cfi_def_cfa_offset 0
	.cfi_restore 31
	.cfi_restore 30
	blr
.LVL7:
.L16:
.LCFI7:
	.cfi_restore_state
	.loc 1 160 0
	bl VCR_ReadNext
	.loc 1 171 0
	lwz 0,20(1)
	.loc 1 161 0
	li 31,0
	.loc 1 171 0
	lwz 30,8(1)
	mtlr 0
	mr 3,31
	lwz 31,12(1)
	addi 1,1,16
	.cfi_restore 30
	.cfi_restore 31
.LCFI8:
	.cfi_def_cfa_offset 0
	blr
	.cfi_endproc
.LFE48:
	.size	VCR_CheckNewConnections, .-VCR_CheckNewConnections
	.align 2
	.globl VCR_CanSendMessage
	.type	VCR_CanSendMessage, @function
VCR_CanSendMessage:
.LFB44:
	.loc 1 118 0
	.cfi_startproc
.LVL8:
	.loc 1 121 0
	lis 9,.LANCHOR0@ha
	lis 11,host_time@ha
	lfd 13,.LANCHOR0@l(9)
	.loc 1 118 0
	mflr 0
	.loc 1 121 0
	lfd 0,host_time@l(11)
	la 9,.LANCHOR0@l(9)
	.loc 1 118 0
	stwu 1,-24(1)
.LCFI9:
	.cfi_def_cfa_offset 24
	.cfi_register 65, 0
	.loc 1 121 0
	fcmpu 7,13,0
	.loc 1 118 0
	stw 0,28(1)
	.loc 1 121 0
	bne- 7,.L18
	.cfi_offset 65, 4
	.loc 1 121 0 is_stmt 0 discriminator 1
	lwz 0,8(9)
	cmpwi 7,0,4
	beq- 7,.L20
.L18:
	.loc 1 122 0 is_stmt 1
	lis 3,.LC2@ha
.LVL9:
	la 3,.LC2@l(3)
	crxor 6,6,6
	bl Sys_Error
.L19:
	.loc 1 124 0
	lis 9,vcrFile@ha
	addi 4,1,8
	lwz 3,vcrFile@l(9)
	li 5,4
	bl Sys_FileRead
	.loc 1 126 0
	bl VCR_ReadNext
	.loc 1 129 0
	lwz 0,28(1)
.LVL10:
	lbz 3,8(1)
	mtlr 0
	addi 1,1,24
	.cfi_remember_state
.LCFI10:
	.cfi_def_cfa_offset 0
	blr
.LVL11:
.L20:
.LCFI11:
	.cfi_restore_state
	.loc 1 121 0 discriminator 1
	lwz 9,12(9)
	lwz 0,48(3)
	cmpw 7,9,0
	bne+ 7,.L18
	b .L19
	.cfi_endproc
.LFE44:
	.size	VCR_CanSendMessage, .-VCR_CanSendMessage
	.align 2
	.globl VCR_SendMessage
	.type	VCR_SendMessage, @function
VCR_SendMessage:
.LFB43:
	.loc 1 103 0
	.cfi_startproc
.LVL12:
	.loc 1 106 0
	lis 9,.LANCHOR0@ha
	lis 11,host_time@ha
	lfd 13,.LANCHOR0@l(9)
	.loc 1 103 0
	mflr 0
	.loc 1 106 0
	lfd 0,host_time@l(11)
	la 9,.LANCHOR0@l(9)
	.loc 1 103 0
	stwu 1,-24(1)
.LCFI12:
	.cfi_def_cfa_offset 24
	.cfi_register 65, 0
	.loc 1 106 0
	fcmpu 7,13,0
	.loc 1 103 0
	stw 0,28(1)
	.loc 1 106 0
	bne- 7,.L22
	.cfi_offset 65, 4
	.loc 1 106 0 is_stmt 0 discriminator 1
	lwz 0,8(9)
	cmpwi 7,0,3
	beq- 7,.L24
.L22:
	.loc 1 107 0 is_stmt 1
	lis 3,.LC2@ha
.LVL13:
	la 3,.LC2@l(3)
	crxor 6,6,6
	bl Sys_Error
.LVL14:
.L23:
	.loc 1 109 0
	lis 9,vcrFile@ha
	addi 4,1,8
	lwz 3,vcrFile@l(9)
	li 5,4
	bl Sys_FileRead
	.loc 1 111 0
	bl VCR_ReadNext
	.loc 1 114 0
	lwz 0,28(1)
.LVL15:
	lwz 3,8(1)
	mtlr 0
	addi 1,1,24
	.cfi_remember_state
.LCFI13:
	.cfi_def_cfa_offset 0
	blr
.LVL16:
.L24:
.LCFI14:
	.cfi_restore_state
	.loc 1 106 0 discriminator 1
	lwz 9,12(9)
	lwz 0,48(3)
	cmpw 7,9,0
	bne+ 7,.L22
	b .L23
	.cfi_endproc
.LFE43:
	.size	VCR_SendMessage, .-VCR_SendMessage
	.align 2
	.globl VCR_GetMessage
	.type	VCR_GetMessage, @function
VCR_GetMessage:
.LFB42:
	.loc 1 80 0
	.cfi_startproc
.LVL17:
	.loc 1 83 0
	lis 9,.LANCHOR0@ha
	lis 11,host_time@ha
	lfd 13,.LANCHOR0@l(9)
	.loc 1 80 0
	mflr 0
	.loc 1 83 0
	lfd 0,host_time@l(11)
	la 9,.LANCHOR0@l(9)
	.loc 1 80 0
	stwu 1,-32(1)
.LCFI15:
	.cfi_def_cfa_offset 32
	.cfi_register 65, 0
	.loc 1 83 0
	fcmpu 7,13,0
	.loc 1 80 0
	stw 0,36(1)
	stw 30,24(1)
	stw 31,28(1)
	.loc 1 83 0
	bne- 7,.L26
	.cfi_offset 31, -4
	.cfi_offset 30, -8
	.cfi_offset 65, 4
	.loc 1 83 0 is_stmt 0 discriminator 1
	lwz 0,8(9)
	cmpwi 7,0,2
	beq- 7,.L30
.L26:
	.loc 1 84 0 is_stmt 1
	lis 3,.LC2@ha
.LVL18:
	la 3,.LC2@l(3)
	crxor 6,6,6
	bl Sys_Error
.L27:
	.loc 1 86 0
	lis 31,vcrFile@ha
	addi 4,1,8
	lwz 3,vcrFile@l(31)
	li 5,4
	bl Sys_FileRead
.LVL19:
	.loc 1 87 0
	lwz 0,8(1)
	cmpwi 7,0,1
	beq- 7,.L28
	.loc 1 89 0
	bl VCR_ReadNext
	.loc 1 99 0
	lwz 0,36(1)
	.loc 1 90 0
	lwz 3,8(1)
	.loc 1 99 0
	mtlr 0
	lwz 30,24(1)
	lwz 31,28(1)
	addi 1,1,32
	.cfi_remember_state
.LCFI16:
	.cfi_def_cfa_offset 0
	.cfi_restore 31
	.cfi_restore 30
	blr
.L28:
.LCFI17:
	.cfi_restore_state
.LBB4:
.LBB5:
	.loc 1 93 0
	lis 30,net_message+12@ha
	lwz 3,vcrFile@l(31)
	la 30,net_message+12@l(30)
	li 5,4
	mr 4,30
	bl Sys_FileRead
	.loc 1 94 0
	lwz 4,-8(30)
	lwz 5,0(30)
	lwz 3,vcrFile@l(31)
	bl Sys_FileRead
	.loc 1 96 0
	bl VCR_ReadNext
.LBE5:
.LBE4:
	.loc 1 99 0
	lwz 0,36(1)
	lwz 30,24(1)
.LBB7:
.LBB6:
	.loc 1 96 0
	li 3,1
.LBE6:
.LBE7:
	.loc 1 99 0
	mtlr 0
	lwz 31,28(1)
	addi 1,1,32
	.cfi_remember_state
	.cfi_restore 30
	.cfi_restore 31
.LCFI18:
	.cfi_def_cfa_offset 0
	blr
.LVL20:
.L30:
.LCFI19:
	.cfi_restore_state
	.loc 1 83 0 discriminator 1
	lwz 9,12(9)
	lwz 0,48(3)
	cmpw 7,9,0
	bne+ 7,.L26
	b .L27
	.cfi_endproc
.LFE42:
	.size	VCR_GetMessage, .-VCR_GetMessage
	.align 2
	.globl VCR_Listen
	.type	VCR_Listen, @function
VCR_Listen:
.LFB40:
	.loc 1 69 0
	.cfi_startproc
.LVL21:
	.loc 1 71 0
	blr
	.cfi_endproc
.LFE40:
	.size	VCR_Listen, .-VCR_Listen
	.comm	causticschain,4,4
	.section	.rodata.str1.4,"aMS",@progbits,1
	.align 2
.LC0:
	.string	"=== END OF PLAYBACK===\n"
.LC1:
	.string	"VCR_ReadNext: bad op"
	.zero	3
.LC2:
	.string	"VCR missmatch"
	.section	".bss"
	.align 3
	.set	.LANCHOR0,. + 0
	.type	next, @object
	.size	next, 16
next:
	.zero	16
	.section	".text"
.Letext0:
	.file 2 "d:/Data/Nintendo/TenebraeGX/src/common.h"
	.file 3 "d:/Data/Nintendo/TenebraeGX/src/mathlib.h"
	.file 4 "d:/Data/Nintendo/TenebraeGX/src/net.h"
	.file 5 "d:/Data/Nintendo/TenebraeGX/src/gl_model.h"
	.file 6 "c:/utils/devkitPro/libogc/include/ogc/gx.h"
	.file 7 "d:/Data/Nintendo/TenebraeGX/src/server.h"
	.file 8 "d:/Data/Nintendo/TenebraeGX/src/glquake.h"