	.file	"pr_edict.c"
	.section	".text"
.Ltext0:
	.cfi_sections	.debug_frame
	.align 2
	.globl ED_ClearEdict
	.type	ED_ClearEdict, @function
ED_ClearEdict:
.LFB41:
	.file 1 "d:/Data/Nintendo/TenebraeGX/src/pr_edict.c"
	.loc 1 136 0
	.cfi_startproc
.LVL0:
	mflr 0
	stwu 1,-16(1)
.LCFI0:
	.cfi_def_cfa_offset 16
	.cfi_register 65, 0
	.loc 1 137 0
	lis 9,progs@ha
	li 4,0
	lwz 9,progs@l(9)
	.loc 1 136 0
	stw 0,20(1)
	stw 31,12(1)
	.loc 1 136 0
	mr 31,3
	.cfi_offset 31, -4
	.cfi_offset 65, 4
	.loc 1 137 0
	lwz 5,56(9)
	addi 3,3,604
.LVL1:
	slwi 5,5,2
	bl memset
	.loc 1 138 0
	li 0,0
	stb 0,0(31)
	.loc 1 139 0
	lwz 0,20(1)
	lwz 31,12(1)
.LVL2:
	mtlr 0
	addi 1,1,16
.LCFI1:
	.cfi_def_cfa_offset 0
	.cfi_restore 31
	blr
	.cfi_endproc
.LFE41:
	.size	ED_ClearEdict, .-ED_ClearEdict
	.align 2
	.globl ED_Free
	.type	ED_Free, @function
ED_Free:
.LFB43:
	.loc 1 188 0
	.cfi_startproc
.LVL3:
	mflr 0
	stwu 1,-16(1)
.LCFI2:
	.cfi_def_cfa_offset 16
	.cfi_register 65, 0
	stw 31,12(1)
	mr 31,3
	.cfi_offset 31, -4
	stw 0,20(1)
	.loc 1 189 0
	.cfi_offset 65, 4
	bl SV_UnlinkEdict
.LVL4:
	.loc 1 193 0
	li 0,0
	.loc 1 198 0
	lis 11,vec3_origin@ha
	.loc 1 203 0
	lis 9,sv+8@ha
	.loc 1 193 0
	stw 0,840(31)
	.loc 1 203 0
	lfd 0,sv+8@l(9)
	.loc 1 198 0
	la 9,vec3_origin@l(11)
	.loc 1 194 0
	stw 0,604(31)
	.loc 1 191 0
	li 8,1
	.loc 1 195 0
	stw 0,912(31)
	.loc 1 203 0
	frsp 0,0
	.loc 1 196 0
	stw 0,728(31)
	.loc 1 197 0
	stw 0,724(31)
	.loc 1 201 0
	stw 0,640(31)
	.loc 1 204 0
	lwz 0,20(1)
	.loc 1 198 0
	lwz 10,vec3_origin@l(11)
	lwz 11,4(9)
	.loc 1 204 0
	mtlr 0
	.loc 1 198 0
	lwz 9,8(9)
	.loc 1 191 0
	stb 8,0(31)
	.loc 1 192 0
	li 8,0
	.loc 1 198 0
	stw 9,652(31)
	.loc 1 199 0
	stw 9,688(31)
	.loc 1 200 0
	lis 9,.LC0@ha
	lwz 9,.LC0@l(9)
	.loc 1 192 0
	stw 8,720(31)
	.loc 1 198 0
	stw 10,644(31)
	stw 11,648(31)
	.loc 1 199 0
	stw 10,680(31)
	stw 11,684(31)
	.loc 1 200 0
	stw 9,788(31)
	.loc 1 203 0
	stfs 0,600(31)
	.loc 1 204 0
	lwz 31,12(1)
.LVL5:
	addi 1,1,16
.LCFI3:
	.cfi_def_cfa_offset 0
	.cfi_restore 31
	blr
	.cfi_endproc
.LFE43:
	.size	ED_Free, .-ED_Free
	.align 2
	.globl ED_GlobalAtOfs
	.type	ED_GlobalAtOfs, @function
ED_GlobalAtOfs:
.LFB44:
	.loc 1 214 0
	.cfi_startproc
.LVL6:
	.loc 1 218 0
	lis 9,progs@ha
	.loc 1 224 0
	li 11,0
	.loc 1 218 0
	lwz 9,progs@l(9)
	lwz 0,20(9)
	cmpwi 7,0,0
	ble- 7,.L4
	.loc 1 220 0
	lis 9,pr_globaldefs@ha
	lwz 11,pr_globaldefs@l(9)
.LVL7:
	.loc 1 221 0
	lhz 9,2(11)
	cmpw 7,9,3
	beq- 7,.L4
	.loc 1 213 0
	addi 9,11,8
	.loc 1 218 0
	mtctr 0
	b .L5
.LVL8:
.L6:
	.loc 1 221 0
	lhz 0,2(11)
	.loc 1 220 0
	addi 9,9,8
.LVL9:
	.loc 1 221 0
	cmpw 7,0,3
	beq- 7,.L4
.L5:
	.loc 1 220 0
	mr 11,9
.LVL10:
	.loc 1 218 0
	bdnz .L6
	.loc 1 224 0
	li 11,0
.L4:
	.loc 1 225 0
	mr 3,11
.LVL11:
	blr
	.cfi_endproc
.LFE44:
	.size	ED_GlobalAtOfs, .-ED_GlobalAtOfs
	.align 2
	.globl ED_FieldAtOfs
	.type	ED_FieldAtOfs, @function
ED_FieldAtOfs:
.LFB45:
	.loc 1 233 0
	.cfi_startproc
.LVL12:
	.loc 1 237 0
	lis 9,progs@ha
	.loc 1 243 0
	li 11,0
	.loc 1 237 0
	lwz 9,progs@l(9)
	lwz 0,28(9)
	cmpwi 7,0,0
	ble- 7,.L10
	.loc 1 239 0
	lis 9,pr_fielddefs@ha
	lwz 11,pr_fielddefs@l(9)
.LVL13:
	.loc 1 240 0
	lhz 9,2(11)
	cmpw 7,9,3
	beq- 7,.L10
	.loc 1 232 0
	addi 9,11,8
	.loc 1 237 0
	mtctr 0
	b .L11
.LVL14:
.L12:
	.loc 1 240 0
	lhz 0,2(11)
	.loc 1 239 0
	addi 9,9,8
.LVL15:
	.loc 1 240 0
	cmpw 7,0,3
	beq- 7,.L10
.L11:
	.loc 1 239 0
	mr 11,9
.LVL16:
	.loc 1 237 0
	bdnz .L12
	.loc 1 243 0
	li 11,0
.L10:
	.loc 1 244 0
	mr 3,11
.LVL17:
	blr
	.cfi_endproc
.LFE45:
	.size	ED_FieldAtOfs, .-ED_FieldAtOfs
	.align 2
	.globl ED_FindField
	.type	ED_FindField, @function
ED_FindField:
.LFB46:
	.loc 1 252 0
	.cfi_startproc
.LVL18:
	mflr 0
	stwu 1,-32(1)
.LCFI4:
	.cfi_def_cfa_offset 32
	.cfi_register 65, 0
	.loc 1 256 0
	lis 9,progs@ha
	lwz 9,progs@l(9)
	.loc 1 252 0
	stw 0,36(1)
	stw 29,20(1)
	.loc 1 256 0
	lwz 29,28(9)
	.cfi_offset 29, -12
	.cfi_offset 65, 4
	.loc 1 252 0
	stw 28,16(1)
	mr 28,3
	.cfi_offset 28, -16
	.loc 1 256 0
	cmpwi 7,29,0
	.loc 1 252 0
	stw 31,28(1)
	stw 27,12(1)
	.loc 1 262 0
	li 31,0
	.cfi_offset 27, -20
	.cfi_offset 31, -4
	.loc 1 252 0
	stw 30,24(1)
	.loc 1 256 0
	ble- 7,.L15
	.cfi_offset 30, -8
	lis 9,pr_strings@ha
	li 30,0
	lwz 27,pr_strings@l(9)
	lis 9,pr_fielddefs@ha
	lwz 0,pr_fielddefs@l(9)
	b .L16
.LVL19:
.L20:
	beq- 6,.L19
.LVL20:
.L16:
	.loc 1 258 0
	mr 31,0
.LVL21:
	.loc 1 259 0
	mr 4,28
	lwz 3,4(31)
	.loc 1 256 0
	addi 30,30,1
	.loc 1 259 0
	add 3,27,3
	bl strcmp
.LVL22:
	.loc 1 256 0
	cmpw 6,30,29
	.loc 1 259 0
	cmpwi 7,3,0
	.loc 1 256 0
	addi 0,31,8
	.loc 1 259 0
	bne+ 7,.L20
.LVL23:
.L15:
	.loc 1 263 0
	lwz 0,36(1)
	mr 3,31
	lwz 27,12(1)
	mtlr 0
	lwz 28,16(1)
.LVL24:
	lwz 29,20(1)
	lwz 30,24(1)
	lwz 31,28(1)
	addi 1,1,32
	.cfi_remember_state
.LCFI5:
	.cfi_def_cfa_offset 0
	.cfi_restore 31
	.cfi_restore 30
	.cfi_restore 29
	.cfi_restore 28
	.cfi_restore 27
	blr
.LVL25:
.L19:
.LCFI6:
	.cfi_restore_state
	lwz 0,36(1)
	.loc 1 262 0
	li 31,0
.LVL26:
	.loc 1 263 0
	mr 3,31
	lwz 27,12(1)
	mtlr 0
	lwz 28,16(1)
.LVL27:
	lwz 29,20(1)
	lwz 30,24(1)
.LVL28:
	lwz 31,28(1)
	addi 1,1,32
	.cfi_restore 27
	.cfi_restore 28
	.cfi_restore 29
	.cfi_restore 30
	.cfi_restore 31
.LCFI7:
	.cfi_def_cfa_offset 0
	blr
	.cfi_endproc
.LFE46:
	.size	ED_FindField, .-ED_FindField
	.align 2
	.globl FindFieldOffset
	.type	FindFieldOffset, @function
FindFieldOffset:
.LFB38:
	.loc 1 83 0
	.cfi_startproc
.LVL29:
	mflr 0
	stwu 1,-16(1)
.LCFI8:
	.cfi_def_cfa_offset 16
	.cfi_register 65, 0
	stw 30,8(1)
	mr 30,3
	.cfi_offset 30, -8
	stw 31,12(1)
	stw 0,20(1)
	.loc 1 85 0
	.cfi_offset 65, 4
	.cfi_offset 31, -4
	bl ED_FindField
.LVL30:
	.loc 1 86 0
	mr. 31,3
	beq- 0,.L24
	.loc 1 90 0
	lhz 5,2(31)
	lis 3,.LC2@ha
.LVL31:
	la 3,.LC2@l(3)
	mr 4,30
	slwi 5,5,2
	crxor 6,6,6
	bl Con_DPrintf
	.loc 1 92 0
	lwz 0,20(1)
	.loc 1 91 0
	lhz 3,2(31)
	.loc 1 92 0
	mtlr 0
	lwz 30,8(1)
.LVL32:
	lwz 31,12(1)
.LVL33:
	.loc 1 91 0
	slwi 3,3,2
	.loc 1 92 0
	addi 1,1,16
	.cfi_remember_state
.LCFI9:
	.cfi_def_cfa_offset 0
	.cfi_restore 31
	.cfi_restore 30
	blr
.LVL34:
.L24:
.LCFI10:
	.cfi_restore_state
	.loc 1 87 0
	lis 3,.LC1@ha
.LVL35:
	mr 4,30
	la 3,.LC1@l(3)
	crxor 6,6,6
	bl Con_DPrintf
	.loc 1 92 0
	lwz 0,20(1)
	lwz 30,8(1)
.LVL36:
	.loc 1 88 0
	li 3,0
	.loc 1 92 0
	mtlr 0
	lwz 31,12(1)
.LVL37:
	addi 1,1,16
	.cfi_restore 30
	.cfi_restore 31
.LCFI11:
	.cfi_def_cfa_offset 0
	blr
	.cfi_endproc
.LFE38:
	.size	FindFieldOffset, .-FindFieldOffset
	.align 2
	.globl FindEdictFieldOffsets
	.type	FindEdictFieldOffsets, @function
FindEdictFieldOffsets:
.LFB40:
	.loc 1 120 0
	.cfi_startproc
	mflr 0
	stwu 1,-8(1)
.LCFI12:
	.cfi_def_cfa_offset 8
	.cfi_register 65, 0
	.loc 1 121 0
	lis 3,.LC3@ha
	la 3,.LC3@l(3)
	.loc 1 120 0
	stw 0,12(1)
	.loc 1 121 0
	.cfi_offset 65, 4
	bl FindFieldOffset
	lis 9,eval_color@ha
	stw 3,eval_color@l(9)
	.loc 1 122 0
	lis 3,.LC4@ha
	la 3,.LC4@l(3)
	bl FindFieldOffset
	lis 9,eval_alpha@ha
	stw 3,eval_alpha@l(9)
	.loc 1 123 0
	lis 3,.LC5@ha
	la 3,.LC5@l(3)
	bl FindFieldOffset
	lis 9,eval_pflags@ha
	stw 3,eval_pflags@l(9)
	.loc 1 124 0
	lis 3,.LC6@ha
	la 3,.LC6@l(3)
	bl FindFieldOffset
	lis 9,eval_light_lev@ha
	stw 3,eval_light_lev@l(9)
	.loc 1 125 0
	lis 3,.LC7@ha
	la 3,.LC7@l(3)
	bl FindFieldOffset
	.loc 1 126 0
	lwz 0,12(1)
	.loc 1 125 0
	lis 9,eval_style@ha
	.loc 1 126 0
	mtlr 0
	.loc 1 125 0
	stw 3,eval_style@l(9)
	.loc 1 126 0
	addi 1,1,8
.LCFI13:
	.cfi_def_cfa_offset 0
	blr
	.cfi_endproc
.LFE40:
	.size	FindEdictFieldOffsets, .-FindEdictFieldOffsets
	.align 2
	.globl ED_FindGlobal
	.type	ED_FindGlobal, @function
ED_FindGlobal:
.LFB47:
	.loc 1 272 0
	.cfi_startproc
.LVL38:
	mflr 0
	stwu 1,-32(1)
.LCFI14:
	.cfi_def_cfa_offset 32
	.cfi_register 65, 0
	.loc 1 276 0
	lis 9,progs@ha
	lwz 9,progs@l(9)
	.loc 1 272 0
	stw 0,36(1)
	stw 29,20(1)
	.loc 1 276 0
	lwz 29,20(9)
	.cfi_offset 29, -12
	.cfi_offset 65, 4
	.loc 1 272 0
	stw 28,16(1)
	mr 28,3
	.cfi_offset 28, -16
	.loc 1 276 0
	cmpwi 7,29,0
	.loc 1 272 0
	stw 31,28(1)
	stw 27,12(1)
	.loc 1 282 0
	li 31,0
	.cfi_offset 27, -20
	.cfi_offset 31, -4
	.loc 1 272 0
	stw 30,24(1)
	.loc 1 276 0
	ble- 7,.L27
	.cfi_offset 30, -8
	lis 9,pr_strings@ha
	li 30,0
	lwz 27,pr_strings@l(9)
	lis 9,pr_globaldefs@ha
	lwz 0,pr_globaldefs@l(9)
	b .L28
.LVL39:
.L32:
	beq- 6,.L31
.LVL40:
.L28:
	.loc 1 278 0
	mr 31,0
.LVL41:
	.loc 1 279 0
	mr 4,28
	lwz 3,4(31)
	.loc 1 276 0
	addi 30,30,1
	.loc 1 279 0
	add 3,27,3
	bl strcmp
.LVL42:
	.loc 1 276 0
	cmpw 6,30,29
	.loc 1 279 0
	cmpwi 7,3,0
	.loc 1 276 0
	addi 0,31,8
	.loc 1 279 0
	bne+ 7,.L32
.LVL43:
.L27:
	.loc 1 283 0
	lwz 0,36(1)
	mr 3,31
	lwz 27,12(1)
	mtlr 0
	lwz 28,16(1)
.LVL44:
	lwz 29,20(1)
	lwz 30,24(1)
	lwz 31,28(1)
	addi 1,1,32
	.cfi_remember_state
.LCFI15:
	.cfi_def_cfa_offset 0
	.cfi_restore 31
	.cfi_restore 30
	.cfi_restore 29
	.cfi_restore 28
	.cfi_restore 27
	blr
.LVL45:
.L31:
.LCFI16:
	.cfi_restore_state
	lwz 0,36(1)
	.loc 1 282 0
	li 31,0
.LVL46:
	.loc 1 283 0
	mr 3,31
	lwz 27,12(1)
	mtlr 0
	lwz 28,16(1)
.LVL47:
	lwz 29,20(1)
	lwz 30,24(1)
.LVL48:
	lwz 31,28(1)
	addi 1,1,32
	.cfi_restore 27
	.cfi_restore 28
	.cfi_restore 29
	.cfi_restore 30
	.cfi_restore 31
.LCFI17:
	.cfi_def_cfa_offset 0
	blr
	.cfi_endproc
.LFE47:
	.size	ED_FindGlobal, .-ED_FindGlobal
	.align 2
	.globl FindGlobalOffset
	.type	FindGlobalOffset, @function
FindGlobalOffset:
.LFB39:
	.loc 1 101 0
	.cfi_startproc
.LVL49:
	mflr 0
	stwu 1,-16(1)
.LCFI18:
	.cfi_def_cfa_offset 16
	.cfi_register 65, 0
	stw 30,8(1)
	mr 30,3
	.cfi_offset 30, -8
	stw 31,12(1)
	stw 0,20(1)
	.loc 1 103 0
	.cfi_offset 65, 4
	.cfi_offset 31, -4
	bl ED_FindGlobal
.LVL50:
	.loc 1 104 0
	mr. 31,3
	beq- 0,.L36
	.loc 1 108 0
	lhz 5,2(31)
	lis 3,.LC8@ha
.LVL51:
	la 3,.LC8@l(3)
	mr 4,30
	slwi 5,5,2
	crxor 6,6,6
	bl Con_DPrintf
	.loc 1 110 0
	lwz 0,20(1)
	.loc 1 109 0
	lhz 3,2(31)
	.loc 1 110 0
	mtlr 0
	lwz 30,8(1)
.LVL52:
	lwz 31,12(1)
.LVL53:
	.loc 1 109 0
	slwi 3,3,2
	.loc 1 110 0
	addi 1,1,16
	.cfi_remember_state
.LCFI19:
	.cfi_def_cfa_offset 0
	.cfi_restore 31
	.cfi_restore 30
	blr
.LVL54:
.L36:
.LCFI20:
	.cfi_restore_state
	.loc 1 105 0
	lis 3,.LC1@ha
.LVL55:
	mr 4,30
	la 3,.LC1@l(3)
	crxor 6,6,6
	bl Con_DPrintf
	.loc 1 110 0
	lwz 0,20(1)
	lwz 30,8(1)
.LVL56:
	.loc 1 106 0
	li 3,0
	.loc 1 110 0
	mtlr 0
	lwz 31,12(1)
.LVL57:
	addi 1,1,16
	.cfi_restore 30
	.cfi_restore 31
.LCFI21:
	.cfi_def_cfa_offset 0
	blr
	.cfi_endproc
.LFE39:
	.size	FindGlobalOffset, .-FindGlobalOffset
	.align 2
	.globl ED_FindFunction
	.type	ED_FindFunction, @function
ED_FindFunction:
.LFB48:
	.loc 1 292 0
	.cfi_startproc
.LVL58:
	mflr 0
	stwu 1,-32(1)
.LCFI22:
	.cfi_def_cfa_offset 32
	.cfi_register 65, 0
	.loc 1 296 0
	lis 9,progs@ha
	lwz 9,progs@l(9)
	.loc 1 292 0
	stw 0,36(1)
	stw 29,20(1)
	.loc 1 296 0
	lwz 29,36(9)
	.cfi_offset 29, -12
	.cfi_offset 65, 4
	.loc 1 292 0
	stw 28,16(1)
	mr 28,3
	.cfi_offset 28, -16
	.loc 1 296 0
	cmpwi 7,29,0
	.loc 1 292 0
	stw 31,28(1)
	stw 27,12(1)
	.loc 1 302 0
	li 31,0
	.cfi_offset 27, -20
	.cfi_offset 31, -4
	.loc 1 292 0
	stw 30,24(1)
	.loc 1 296 0
	ble- 7,.L38
	.cfi_offset 30, -8
	lis 9,pr_strings@ha
	li 30,0
	lwz 27,pr_strings@l(9)
	lis 9,pr_functions@ha
	lwz 0,pr_functions@l(9)
	b .L39
.LVL59:
.L43:
	beq- 6,.L42
.LVL60:
.L39:
	.loc 1 298 0
	mr 31,0
.LVL61:
	.loc 1 299 0
	mr 4,28
	lwz 3,16(31)
	.loc 1 296 0
	addi 30,30,1
	.loc 1 299 0
	add 3,27,3
	bl strcmp
.LVL62:
	.loc 1 296 0
	cmpw 6,30,29
	.loc 1 299 0
	cmpwi 7,3,0
	.loc 1 296 0
	addi 0,31,36
	.loc 1 299 0
	bne+ 7,.L43
.LVL63:
.L38:
	.loc 1 303 0
	lwz 0,36(1)
	mr 3,31
	lwz 27,12(1)
	mtlr 0
	lwz 28,16(1)
.LVL64:
	lwz 29,20(1)
	lwz 30,24(1)
	lwz 31,28(1)
	addi 1,1,32
	.cfi_remember_state
.LCFI23:
	.cfi_def_cfa_offset 0
	.cfi_restore 31
	.cfi_restore 30
	.cfi_restore 29
	.cfi_restore 28
	.cfi_restore 27
	blr
.LVL65:
.L42:
.LCFI24:
	.cfi_restore_state
	lwz 0,36(1)
	.loc 1 302 0
	li 31,0
.LVL66:
	.loc 1 303 0
	mr 3,31
	lwz 27,12(1)
	mtlr 0
	lwz 28,16(1)
.LVL67:
	lwz 29,20(1)
	lwz 30,24(1)
.LVL68:
	lwz 31,28(1)
	addi 1,1,32
	.cfi_restore 27
	.cfi_restore 28
	.cfi_restore 29
	.cfi_restore 30
	.cfi_restore 31
.LCFI25:
	.cfi_def_cfa_offset 0
	blr
	.cfi_endproc
.LFE48:
	.size	ED_FindFunction, .-ED_FindFunction
	.align 2
	.globl GetEdictFieldValue
	.type	GetEdictFieldValue, @function
GetEdictFieldValue:
.LFB49:
	.loc 1 307 0
	.cfi_startproc
.LVL69:
	stwu 1,-32(1)
.LCFI26:
	.cfi_def_cfa_offset 32
	mflr 0
	stw 31,28(1)
	.loc 1 314 0
	lis 31,.LANCHOR0@ha
	.cfi_offset 31, -4
	.cfi_register 65, 0
	.loc 1 307 0
	stw 27,12(1)
	.loc 1 314 0
	la 31,.LANCHOR0@l(31)
	.loc 1 307 0
	mr 27,4
	.cfi_offset 27, -20
	stw 29,20(1)
	.loc 1 314 0
	addi 4,31,4
.LVL70:
	.loc 1 307 0
	mr 29,3
	.cfi_offset 29, -12
	.loc 1 314 0
	mr 3,27
.LVL71:
	.loc 1 307 0
	stw 0,36(1)
	stw 28,16(1)
	stw 30,24(1)
	.loc 1 314 0
	.cfi_offset 30, -8
	.cfi_offset 28, -16
	.cfi_offset 65, 4
	bl strcmp
	cmpwi 7,3,0
	beq- 7,.L49
.LVL72:
	mr 3,27
	addi 4,31,72
	bl strcmp
	cmpwi 7,3,0
	beq- 7,.L50
.LVL73:
	.loc 1 321 0
	mr 3,27
	bl ED_FindField
	mr 30,3
.LVL74:
	.loc 1 323 0
	mr 3,27
.LVL75:
	bl strlen
	cmplwi 7,3,63
	ble- 7,.L52
.LVL76:
.L47:
	.loc 1 331 0
	cmpwi 7,30,0
	.loc 1 332 0
	li 3,0
	.loc 1 331 0
	beq- 7,.L48
	.loc 1 334 0
	lhz 3,2(30)
	addi 29,29,604
.LVL77:
	slwi 3,3,2
	add 3,29,3
.LVL78:
.L48:
	.loc 1 335 0
	lwz 0,36(1)
	lwz 27,12(1)
.LVL79:
	mtlr 0
	lwz 28,16(1)
	lwz 29,20(1)
	lwz 30,24(1)
.LVL80:
	lwz 31,28(1)
	addi 1,1,32
	.cfi_remember_state
.LCFI27:
	.cfi_def_cfa_offset 0
	.cfi_restore 31
	.cfi_restore 30
	.cfi_restore 29
	.cfi_restore 28
	.cfi_restore 27
	blr
.LVL81:
.L52:
.LCFI28:
	.cfi_restore_state
	.loc 1 325 0
	lwz 28,136(31)
	.loc 1 326 0
	mr 4,27
	li 5,64
	.loc 1 325 0
	mulli 0,28,68
	.loc 1 327 0
	xori 28,28,1
	.loc 1 325 0
	add 3,31,0
	stwx 30,31,0
	.loc 1 326 0
	addi 3,3,4
	bl strncpy
	.loc 1 327 0
	stw 28,136(31)
	b .L47
.LVL82:
.L49:
	.loc 1 312 0
	li 0,0
.LVL83:
.L45:
	.loc 1 316 0
	mulli 0,0,68
	lwzx 30,31,0
.LVL84:
	.loc 1 317 0
	b .L47
.LVL85:
.L50:
	.loc 1 312 0
	li 0,1
	b .L45
	.cfi_endproc
.LFE49:
	.size	GetEdictFieldValue, .-GetEdictFieldValue
	.align 2
	.globl PR_GlobalStringNoContents
	.type	PR_GlobalStringNoContents, @function
PR_GlobalStringNoContents:
.LFB53:
	.loc 1 473 0
	.cfi_startproc
.LVL86:
	mflr 0
	stwu 1,-24(1)
.LCFI29:
	.cfi_def_cfa_offset 24
	.cfi_register 65, 0
.LBB10:
.LBB11:
	.loc 1 218 0
	lis 9,progs@ha
.LBE11:
.LBE10:
	.loc 1 473 0
	mr 5,3
.LVL87:
.LBB17:
.LBB12:
	.loc 1 218 0
	lwz 9,progs@l(9)
.LBE12:
.LBE17:
	.loc 1 473 0
	stw 0,28(1)
	stw 28,8(1)
.LBB18:
.LBB13:
	.loc 1 218 0
	lwz 0,20(9)
	.cfi_offset 28, -16
	.cfi_offset 65, 4
.LBE13:
.LBE18:
	.loc 1 473 0
	stw 29,12(1)
.LBB19:
.LBB14:
	.loc 1 218 0
	cmpwi 7,0,0
.LBE14:
.LBE19:
	.loc 1 473 0
	stw 30,16(1)
	stw 31,20(1)
.LBB20:
.LBB15:
	.loc 1 218 0
	ble- 7,.L54
	.cfi_offset 31, -4
	.cfi_offset 30, -8
	.cfi_offset 29, -12
	.loc 1 220 0
	lis 9,pr_globaldefs@ha
	lwz 11,pr_globaldefs@l(9)
.LVL88:
	.loc 1 221 0
	lhz 9,2(11)
	cmpw 7,3,9
	beq- 7,.L55
	.loc 1 472 0
	addi 9,11,8
.LBE15:
.LBE20:
	.loc 1 218 0
	mtctr 0
	b .L56
.LVL89:
.L57:
.LBB21:
.LBB16:
	.loc 1 221 0
	lhz 0,2(11)
	.loc 1 220 0
	addi 9,9,8
.LVL90:
	.loc 1 221 0
	cmpw 7,5,0
	beq- 7,.L55
.L56:
	.loc 1 220 0
	mr 11,9
.LVL91:
	.loc 1 218 0
	bdnz .L57
.L54:
.LBE16:
.LBE21:
	.loc 1 480 0
	lis 31,.LANCHOR0@ha
	lis 4,.LC9@ha
	la 31,.LANCHOR0@l(31)
	la 4,.LC9@l(4)
	addi 31,31,140
	mr 3,31
.LVL92:
	crxor 6,6,6
	bl sprintf
.LVL93:
	b .L59
.LVL94:
.L55:
	.loc 1 479 0
	cmpwi 7,11,0
	beq- 7,.L54
	.loc 1 482 0
	lis 31,.LANCHOR0@ha
	lis 9,pr_strings@ha
	la 31,.LANCHOR0@l(31)
	lwz 6,pr_strings@l(9)
	lwz 0,4(11)
	addi 31,31,140
	lis 4,.LC10@ha
	mr 3,31
.LVL95:
	la 4,.LC10@l(4)
	add 6,6,0
	crxor 6,6,6
	bl sprintf
.LVL96:
.L59:
	.loc 1 484 0
	mr 3,31
	bl strlen
	.loc 1 485 0
	cmpwi 7,3,19
	.loc 1 484 0
	mr 0,3
	mr 30,3
.LVL97:
	.loc 1 485 0
	bgt- 7,.L60
	.loc 1 486 0 discriminator 2
	mr 29,31
	li 28,8192
	b .L63
.LVL98:
.L64:
	.loc 1 472 0
	bl strlen
	mr 0,3
.L63:
.LVL99:
	.loc 1 485 0 discriminator 2
	cmpwi 7,30,19
	.loc 1 472 0 discriminator 2
	mr 3,29
	.loc 1 486 0 discriminator 2
	sthx 28,31,0
	.loc 1 485 0 discriminator 2
	addi 30,30,1
.LVL100:
	bne+ 7,.L64
	.loc 1 472 0
	mr 3,29
	bl strlen
	mr 0,3
.L60:
	.loc 1 487 0
	li 9,8192
	.loc 1 490 0
	mr 3,31
	.loc 1 487 0
	sthx 9,31,0
	.loc 1 490 0
	lwz 0,28(1)
	lwz 28,8(1)
	mtlr 0
	lwz 29,12(1)
	lwz 30,16(1)
.LVL101:
	lwz 31,20(1)
	addi 1,1,24
.LCFI30:
	.cfi_def_cfa_offset 0
	.cfi_restore 31
	.cfi_restore 30
	.cfi_restore 29
	.cfi_restore 28
	blr
	.cfi_endproc
.LFE53:
	.size	PR_GlobalStringNoContents, .-PR_GlobalStringNoContents
	.align 2
	.globl ED_NewString
	.type	ED_NewString, @function
ED_NewString:
.LFB62:
	.loc 1 759 0
	.cfi_startproc
.LVL102:
	mflr 0
	stwu 1,-24(1)
.LCFI31:
	.cfi_def_cfa_offset 24
	.cfi_register 65, 0
	stw 29,12(1)
	stw 0,28(1)
	stw 30,16(1)
	mr 30,3
	.cfi_offset 30, -8
	.cfi_offset 65, 4
	.cfi_offset 29, -12
	stw 31,20(1)
	.loc 1 763 0
	.cfi_offset 31, -4
	bl strlen
.LVL103:
	addi 31,3,1
.LVL104:
	mr 29,3
	.loc 1 764 0
	mr 3,31
	bl Hunk_Alloc
.LVL105:
	.loc 1 767 0
	cmpwi 7,31,0
	ble- 7,.L66
	.loc 1 758 0
	addi 11,3,1
	.loc 1 767 0
	li 9,0
	.loc 1 773 0
	li 8,10
.LVL106:
.L70:
	.loc 1 769 0
	lbzx 0,30,9
	cmpwi 7,0,92
	beq- 7,.L72
.L67:
	.loc 1 778 0
	stb 0,-1(11)
.LVL107:
.L69:
	.loc 1 767 0
	addi 9,9,1
.LVL108:
	addi 11,11,1
	cmpw 7,31,9
	bgt+ 7,.L70
.LVL109:
.L66:
	.loc 1 782 0
	lwz 0,28(1)
	lwz 29,12(1)
	mtlr 0
	lwz 30,16(1)
.LVL110:
	lwz 31,20(1)
.LVL111:
	addi 1,1,24
	.cfi_remember_state
.LCFI32:
	.cfi_def_cfa_offset 0
	.cfi_restore 31
	.cfi_restore 30
	.cfi_restore 29
	blr
.LVL112:
.L72:
.LCFI33:
	.cfi_restore_state
	.loc 1 769 0 discriminator 1
	cmpw 7,29,9
	ble- 7,.L67
	.loc 1 771 0
	addi 9,9,1
.LVL113:
	.loc 1 772 0
	lbzx 10,30,9
	cmpwi 7,10,110
	bne+ 7,.L67
	.loc 1 773 0
	stb 8,-1(11)
.LVL114:
	b .L69
	.cfi_endproc
.LFE62:
	.size	ED_NewString, .-ED_NewString
	.align 2
	.globl PR_LoadProgs
	.type	PR_LoadProgs, @function
PR_LoadProgs:
.LFB66:
	.loc 1 1058 0
	.cfi_startproc
.LVL115:
	mflr 0
	stwu 1,-40(1)
.LCFI34:
	.cfi_def_cfa_offset 40
	.cfi_register 65, 0
	.loc 1 1063 0
	lis 9,.LANCHOR0@ha
	.loc 1 1058 0
	stw 28,24(1)
	.loc 1 1063 0
	la 9,.LANCHOR0@l(9)
	.loc 1 1058 0
	stw 0,44(1)
	.loc 1 1065 0
	lis 28,pr_crc@ha
	.cfi_offset 65, 4
	.cfi_offset 28, -16
	.loc 1 1063 0
	li 0,0
	.loc 1 1058 0
	stw 29,28(1)
	stw 24,8(1)
	.loc 1 1065 0
	la 28,pr_crc@l(28)
	.loc 1 1058 0
	stw 25,12(1)
	.loc 1 1065 0
	mr 3,28
	.loc 1 1058 0
	stw 26,16(1)
	.loc 1 1067 0
	lis 29,progs@ha
	.cfi_offset 26, -24
	.cfi_offset 25, -28
	.cfi_offset 24, -32
	.cfi_offset 29, -12
	.loc 1 1058 0
	stw 27,20(1)
	stw 30,32(1)
	stw 31,36(1)
	.loc 1 1063 0
	stb 0,4(9)
.LVL116:
	stb 0,72(9)
.LVL117:
	.loc 1 1065 0
	.cfi_offset 31, -4
	.cfi_offset 30, -8
	.cfi_offset 27, -20
	bl CRC_Init
	.loc 1 1067 0
	lis 3,.LC11@ha
	la 3,.LC11@l(3)
	bl COM_LoadHunkFile
	.loc 1 1068 0
	cmpwi 7,3,0
	.loc 1 1067 0
	stw 3,progs@l(29)
	.loc 1 1068 0
	beq- 7,.L100
.L74:
	.loc 1 1070 0
	lis 27,com_filesize@ha
	lis 3,.LC13@ha
	lwz 4,com_filesize@l(27)
	la 3,.LC13@l(3)
	srawi 4,4,10
	addze 4,4
	crxor 6,6,6
	bl Con_DPrintf
.LVL118:
	.loc 1 1072 0
	lwz 0,com_filesize@l(27)
	cmpwi 7,0,0
	ble- 7,.L101
	lis 30,progs@ha
	li 31,0
	la 30,progs@l(30)
	la 27,com_filesize@l(27)
.LVL119:
.L76:
	.loc 1 1073 0 discriminator 2
	lwz 9,0(30)
	mr 3,28
	lbzx 4,9,31
	.loc 1 1072 0 discriminator 2
	addi 31,31,1
	.loc 1 1073 0 discriminator 2
	bl CRC_ProcessByte
.LVL120:
	.loc 1 1072 0 discriminator 2
	lwz 0,0(27)
	cmpw 7,0,31
	bgt+ 7,.L76
.LVL121:
.L75:
	lis 31,LittleLong@ha
	.loc 1 1076 0 discriminator 1
	li 27,0
	li 28,0
	la 31,LittleLong@l(31)
.LVL122:
.L77:
	.loc 1 1077 0 discriminator 2
	lwz 26,0(30)
	slwi 27,27,2
	lwz 0,0(31)
	.loc 1 1076 0 discriminator 2
	addi 28,28,1
	.loc 1 1077 0 discriminator 2
	lwzx 3,26,27
	mtctr 0
	bctrl
.LVL123:
	.loc 1 1076 0 discriminator 2
	cmpwi 7,28,15
	.loc 1 1077 0 discriminator 2
	stwx 3,26,27
	.loc 1 1076 0 discriminator 2
	mr 27,28
	bne+ 7,.L77
	.loc 1 1079 0
	lwz 9,0(30)
	lwz 4,0(9)
	cmpwi 7,4,6
	beq- 7,.L78
	.loc 1 1080 0
	lis 3,.LC14@ha
	li 5,6
	la 3,.LC14@l(3)
	crxor 6,6,6
	bl Sys_Error
	lwz 9,0(30)
.L78:
	.loc 1 1082 0
	lwz 0,4(9)
	cmpwi 7,0,32401
	beq- 7,.L79
	.loc 1 1083 0
	cmpwi 7,0,5927
	beq- 7,.L80
	.loc 1 1084 0
	lis 3,.LC15@ha
	la 3,.LC15@l(3)
	crxor 6,6,6
	bl Sys_Error
	lwz 9,progs@l(29)
.L79:
	.loc 1 1093 0
	lwz 5,32(9)
	lis 11,pr_functions@ha
	.loc 1 1094 0
	lwz 6,40(9)
	.loc 1 1097 0
	lis 26,pr_statements@ha
	.loc 1 1104 0
	lwz 0,12(9)
	.loc 1 1093 0
	add 5,9,5
	.loc 1 1095 0
	lwz 7,16(9)
	.loc 1 1094 0
	add 6,9,6
	.loc 1 1096 0
	lwz 8,24(9)
	.loc 1 1104 0
	cmpwi 7,0,0
	.loc 1 1093 0
	stw 5,pr_functions@l(11)
	.loc 1 1094 0
	lis 11,pr_strings@ha
	.loc 1 1099 0
	lwz 0,48(9)
	.loc 1 1095 0
	add 7,9,7
	.loc 1 1094 0
	stw 6,pr_strings@l(11)
	.loc 1 1095 0
	lis 11,pr_globaldefs@ha
	.loc 1 1102 0
	lwz 10,56(9)
	.loc 1 1096 0
	add 8,9,8
	.loc 1 1095 0
	stw 7,pr_globaldefs@l(11)
	.loc 1 1096 0
	lis 11,pr_fielddefs@ha
	.loc 1 1099 0
	add 0,9,0
	.loc 1 1097 0
	lwz 25,8(9)
	.loc 1 1096 0
	stw 8,pr_fielddefs@l(11)
	.loc 1 1099 0
	lis 11,pr_global_struct@ha
	.loc 1 1102 0
	addi 10,10,151
	.loc 1 1099 0
	stw 0,pr_global_struct@l(11)
	.loc 1 1100 0
	lis 11,pr_globals@ha
	.loc 1 1097 0
	add 25,9,25
	.loc 1 1102 0
	slwi 10,10,2
	.loc 1 1100 0
	stw 0,pr_globals@l(11)
	.loc 1 1102 0
	lis 11,pr_edict_size@ha
	.loc 1 1097 0
	stw 25,pr_statements@l(26)
	.loc 1 1102 0
	stw 10,pr_edict_size@l(11)
.LVL124:
	.loc 1 1104 0
	ble- 7,.L81
	lis 29,LittleShort@ha
	li 27,0
	la 29,LittleShort@l(29)
	la 26,pr_statements@l(26)
	b .L82
.LVL125:
.L102:
	lwz 25,0(26)
.LVL126:
.L82:
	.loc 1 1106 0 discriminator 2
	lwz 0,0(29)
	.loc 1 1057 0 discriminator 2
	slwi 28,27,3
	.loc 1 1106 0 discriminator 2
	lhax 3,25,28
	.loc 1 1104 0 discriminator 2
	addi 27,27,1
	.loc 1 1106 0 discriminator 2
	mtctr 0
	bctrl
	.loc 1 1107 0 discriminator 2
	lwz 24,0(26)
	lwz 0,0(29)
	add 24,24,28
	.loc 1 1106 0 discriminator 2
	sthx 3,25,28
	.loc 1 1107 0 discriminator 2
	mtctr 0
	lha 3,2(24)
	bctrl
	.loc 1 1108 0 discriminator 2
	lwz 25,0(26)
	lwz 0,0(29)
	add 25,25,28
	.loc 1 1107 0 discriminator 2
	sth 3,2(24)
	.loc 1 1108 0 discriminator 2
	mtctr 0
	lha 3,4(25)
	bctrl
	.loc 1 1109 0 discriminator 2
	lwz 0,0(26)
	.loc 1 1108 0 discriminator 2
	sth 3,4(25)
	.loc 1 1109 0 discriminator 2
	add 28,0,28
	lwz 0,0(29)
	lha 3,6(28)
	mtctr 0
	bctrl
.LVL127:
	.loc 1 1104 0 discriminator 2
	lwz 9,0(30)
	.loc 1 1109 0 discriminator 2
	sth 3,6(28)
	.loc 1 1104 0 discriminator 2
	lwz 0,12(9)
	cmpw 7,0,27
	bgt+ 7,.L102
.LVL128:
.L81:
	.loc 1 1112 0 discriminator 1
	lwz 0,36(9)
	cmpwi 7,0,0
	ble- 7,.L83
	lis 28,pr_functions@ha
	.loc 1 1112 0 is_stmt 0
	li 29,0
	li 27,0
	la 28,pr_functions@l(28)
.LVL129:
.L84:
	.loc 1 1114 0 is_stmt 1 discriminator 2
	lwz 25,0(28)
	.loc 1 1112 0 discriminator 2
	addi 27,27,1
	.loc 1 1114 0 discriminator 2
	lwz 0,0(31)
	lwzx 3,25,29
	mtctr 0
	bctrl
	.loc 1 1115 0 discriminator 2
	lwz 26,0(28)
	lwz 0,0(31)
	add 26,26,29
	.loc 1 1114 0 discriminator 2
	stwx 3,25,29
	.loc 1 1115 0 discriminator 2
	mtctr 0
	lwz 3,4(26)
	bctrl
	.loc 1 1116 0 discriminator 2
	lwz 25,0(28)
	lwz 0,0(31)
	add 25,25,29
	.loc 1 1115 0 discriminator 2
	stw 3,4(26)
	.loc 1 1116 0 discriminator 2
	mtctr 0
	lwz 3,16(25)
	bctrl
	.loc 1 1117 0 discriminator 2
	lwz 26,0(28)
	lwz 0,0(31)
	add 26,26,29
	.loc 1 1116 0 discriminator 2
	stw 3,16(25)
	.loc 1 1117 0 discriminator 2
	mtctr 0
	lwz 3,20(26)
	bctrl
	.loc 1 1118 0 discriminator 2
	lwz 25,0(28)
	lwz 0,0(31)
	add 25,25,29
	.loc 1 1117 0 discriminator 2
	stw 3,20(26)
	.loc 1 1118 0 discriminator 2
	mtctr 0
	lwz 3,24(25)
	bctrl
	.loc 1 1119 0 discriminator 2
	lwz 26,0(28)
	lwz 0,0(31)
	add 26,26,29
	.loc 1 1118 0 discriminator 2
	stw 3,24(25)
	.loc 1 1119 0 discriminator 2
	mtctr 0
	lwz 3,8(26)
	.loc 1 1112 0 discriminator 2
	addi 29,29,36
	.loc 1 1119 0 discriminator 2
	bctrl
.LVL130:
	.loc 1 1112 0 discriminator 2
	lwz 9,0(30)
	.loc 1 1119 0 discriminator 2
	stw 3,8(26)
	.loc 1 1112 0 discriminator 2
	lwz 0,36(9)
	cmpw 7,0,27
	bgt+ 7,.L84
.LVL131:
.L83:
	.loc 1 1122 0 discriminator 1
	lwz 0,20(9)
	cmpwi 7,0,0
	ble- 7,.L85
	lis 29,LittleShort@ha
	lis 26,pr_globaldefs@ha
	.loc 1 1122 0 is_stmt 0
	li 27,0
	la 29,LittleShort@l(29)
	la 26,pr_globaldefs@l(26)
.LVL132:
.L86:
	.loc 1 1124 0 is_stmt 1 discriminator 2
	lwz 24,0(26)
	.loc 1 1057 0 discriminator 2
	slwi 28,27,3
	.loc 1 1124 0 discriminator 2
	lwz 0,0(29)
	.loc 1 1122 0 discriminator 2
	addi 27,27,1
	.loc 1 1124 0 discriminator 2
	lhax 3,24,28
	mtctr 0
	bctrl
	.loc 1 1125 0 discriminator 2
	lwz 25,0(26)
	lwz 0,0(29)
	add 25,25,28
	.loc 1 1124 0 discriminator 2
	sthx 3,24,28
	.loc 1 1125 0 discriminator 2
	mtctr 0
	lha 3,2(25)
	bctrl
	.loc 1 1126 0 discriminator 2
	lwz 0,0(26)
	.loc 1 1125 0 discriminator 2
	sth 3,2(25)
	.loc 1 1126 0 discriminator 2
	add 28,0,28
	lwz 0,0(31)
	lwz 3,4(28)
	mtctr 0
	bctrl
.LVL133:
	.loc 1 1122 0 discriminator 2
	lwz 9,0(30)
	.loc 1 1126 0 discriminator 2
	stw 3,4(28)
	.loc 1 1122 0 discriminator 2
	lwz 0,20(9)
	cmpw 7,0,27
	bgt+ 7,.L86
.LVL134:
.L85:
	.loc 1 1129 0 discriminator 1
	lwz 0,28(9)
	cmpwi 7,0,0
	ble- 7,.L87
	lis 29,LittleShort@ha
	lis 26,pr_fielddefs@ha
	.loc 1 1133 0
	lis 24,.LC20@ha
	.loc 1 1129 0
	li 27,0
	la 29,LittleShort@l(29)
	la 26,pr_fielddefs@l(26)
	.loc 1 1133 0
	la 24,.LC20@l(24)
	b .L89
.LVL135:
.L88:
	.loc 1 1134 0
	lwz 0,0(29)
	lha 3,2(25)
	mtctr 0
	bctrl
	.loc 1 1135 0
	lwz 0,0(26)
	.loc 1 1134 0
	sth 3,2(25)
	.loc 1 1135 0
	add 28,0,28
	lwz 0,0(31)
	lwz 3,4(28)
	mtctr 0
	bctrl
.LVL136:
	.loc 1 1129 0
	lwz 9,0(30)
	.loc 1 1135 0
	stw 3,4(28)
	.loc 1 1129 0
	lwz 0,28(9)
	cmpw 7,0,27
	ble- 7,.L87
.LVL137:
.L89:
	.loc 1 1131 0
	lwz 25,0(26)
	.loc 1 1057 0
	slwi 28,27,3
	.loc 1 1131 0
	lwz 0,0(29)
	.loc 1 1129 0
	addi 27,27,1
	.loc 1 1131 0
	lhax 3,25,28
	mtctr 0
	bctrl
	sthx 3,25,28
	.loc 1 1132 0
	lwz 25,0(26)
	lhax 0,25,28
	add 25,25,28
	cmpwi 7,0,0
	bge+ 7,.L88
	.loc 1 1133 0
	mr 3,24
	crxor 6,6,6
	bl Sys_Error
	lwz 25,0(26)
	.loc 1 1134 0
	lwz 0,0(29)
	.loc 1 1133 0
	add 25,25,28
	.loc 1 1134 0
	mtctr 0
	lha 3,2(25)
	bctrl
	.loc 1 1135 0
	lwz 0,0(26)
	.loc 1 1134 0
	sth 3,2(25)
	.loc 1 1135 0
	add 28,0,28
	lwz 0,0(31)
	lwz 3,4(28)
	mtctr 0
	bctrl
.LVL138:
	.loc 1 1129 0
	lwz 9,0(30)
	.loc 1 1135 0
	stw 3,4(28)
	.loc 1 1129 0
	lwz 0,28(9)
	cmpw 7,0,27
	bgt+ 7,.L89
.LVL139:
.L87:
	.loc 1 1138 0 discriminator 1
	lwz 0,52(9)
	cmpwi 7,0,0
	ble- 7,.L90
	lis 26,pr_globals@ha
	.loc 1 1138 0 is_stmt 0
	li 29,0
	la 26,pr_globals@l(26)
.LVL140:
.L91:
	.loc 1 1139 0 is_stmt 1 discriminator 2
	lwz 27,0(26)
	.loc 1 1057 0 discriminator 2
	slwi 28,29,2
	.loc 1 1139 0 discriminator 2
	lwz 0,0(31)
	.loc 1 1138 0 discriminator 2
	addi 29,29,1
	.loc 1 1139 0 discriminator 2
	lwzx 3,27,28
	mtctr 0
	bctrl
.LVL141:
	.loc 1 1138 0 discriminator 2
	lwz 9,0(30)
	.loc 1 1139 0 discriminator 2
	stwx 3,27,28
	.loc 1 1138 0 discriminator 2
	lwz 0,52(9)
	cmpw 7,0,29
	bgt+ 7,.L91
.LVL142:
.L90:
	.loc 1 1142 0
	lwz 0,44(1)
	lwz 24,8(1)
	lwz 25,12(1)
	mtlr 0
	lwz 26,16(1)
	lwz 27,20(1)
	lwz 28,24(1)
	lwz 29,28(1)
	lwz 30,32(1)
	lwz 31,36(1)
	addi 1,1,40
	.cfi_remember_state
.LCFI35:
	.cfi_def_cfa_offset 0
	.cfi_restore 31
	.cfi_restore 30
	.cfi_restore 29
	.cfi_restore 28
	.cfi_restore 27
	.cfi_restore 26
	.cfi_restore 25
	.cfi_restore 24
	.loc 1 1141 0
	b FindEdictFieldOffsets
.LVL143:
.L80:
.LCFI36:
	.cfi_restore_state
	.loc 1 1086 0
	lis 3,.LC16@ha
	la 3,.LC16@l(3)
	crxor 6,6,6
	bl Con_Printf
	.loc 1 1087 0
	lis 3,.LC17@ha
	la 3,.LC17@l(3)
	crxor 6,6,6
	bl Con_Printf
	.loc 1 1088 0
	lis 3,.LC18@ha
	la 3,.LC18@l(3)
	crxor 6,6,6
	bl Con_Printf
	.loc 1 1089 0
	lis 3,.LC19@ha
	la 3,.LC19@l(3)
	crxor 6,6,6
	bl Con_Printf
	lwz 9,progs@l(29)
	b .L79
.LVL144:
.L101:
	lis 30,progs@ha
	la 30,progs@l(30)
	b .L75
.LVL145:
.L100:
	.loc 1 1069 0
	lis 3,.LC12@ha
	la 3,.LC12@l(3)
	crxor 6,6,6
	bl Sys_Error
	b .L74
	.cfi_endproc
.LFE66:
	.size	PR_LoadProgs, .-PR_LoadProgs
	.align 2
	.globl PR_Init
	.type	PR_Init, @function
PR_Init:
.LFB67:
	.loc 1 1151 0
	.cfi_startproc
	mflr 0
	stwu 1,-16(1)
.LCFI37:
	.cfi_def_cfa_offset 16
	.cfi_register 65, 0
	.loc 1 1152 0
	lis 3,.LC21@ha
	lis 4,ED_PrintEdict_f@ha
	la 3,.LC21@l(3)
	la 4,ED_PrintEdict_f@l(4)
	.loc 1 1151 0
	stw 0,20(1)
	stw 31,12(1)
	.loc 1 1152 0
	.cfi_offset 31, -4
	.cfi_offset 65, 4
	bl Cmd_AddCommand
	.loc 1 1153 0
	lis 3,.LC22@ha
	lis 4,ED_PrintEdicts@ha
	la 3,.LC22@l(3)
	la 4,ED_PrintEdicts@l(4)
	bl Cmd_AddCommand
	.loc 1 1154 0
	lis 3,.LC23@ha
	lis 4,ED_Count@ha
	la 3,.LC23@l(3)
	la 4,ED_Count@l(4)
	.loc 1 1156 0
	lis 31,.LANCHOR1@ha
	.loc 1 1154 0
	bl Cmd_AddCommand
	.loc 1 1155 0
	lis 4,PR_Profile_f@ha
	lis 3,.LC24@ha
	la 4,PR_Profile_f@l(4)
	.loc 1 1156 0
	la 31,.LANCHOR1@l(31)
	.loc 1 1155 0
	la 3,.LC24@l(3)
	bl Cmd_AddCommand
	.loc 1 1156 0
	mr 3,31
	bl Cvar_RegisterVariable
	.loc 1 1157 0
	addi 3,31,20
	bl Cvar_RegisterVariable
	.loc 1 1158 0
	addi 3,31,40
	bl Cvar_RegisterVariable
	.loc 1 1159 0
	addi 3,31,60
	bl Cvar_RegisterVariable
	.loc 1 1160 0
	addi 3,31,80
	bl Cvar_RegisterVariable
	.loc 1 1161 0
	addi 3,31,100
	bl Cvar_RegisterVariable
	.loc 1 1162 0
	addi 3,31,120
	bl Cvar_RegisterVariable
	.loc 1 1163 0
	addi 3,31,140
	bl Cvar_RegisterVariable
	.loc 1 1164 0
	addi 3,31,160
	bl Cvar_RegisterVariable
	.loc 1 1165 0
	addi 3,31,180
	bl Cvar_RegisterVariable
	.loc 1 1166 0
	addi 3,31,200
	bl Cvar_RegisterVariable
	.loc 1 1167 0
	lwz 0,20(1)
	lwz 31,12(1)
	mtlr 0
	addi 1,1,16
.LCFI38:
	.cfi_def_cfa_offset 0
	.cfi_restore 31
	blr
	.cfi_endproc
.LFE67:
	.size	PR_Init, .-PR_Init
	.align 2
	.globl EDICT_NUM
	.type	EDICT_NUM, @function
EDICT_NUM:
.LFB68:
	.loc 1 1172 0
	.cfi_startproc
.LVL146:
	stwu 1,-16(1)
.LCFI39:
	.cfi_def_cfa_offset 16
	mflr 0
	stw 31,12(1)
	.loc 1 1173 0
	mr. 31,3
	.cfi_offset 31, -4
	.cfi_register 65, 0
	.loc 1 1172 0
	stw 30,8(1)
	lis 30,sv@ha
	.cfi_offset 30, -8
	stw 0,20(1)
	la 30,sv@l(30)
	.loc 1 1173 0
	blt- 0,.L105
	.cfi_offset 65, 4
	.loc 1 1173 0 is_stmt 0 discriminator 1
	lwz 0,3496(30)
	cmpw 7,31,0
	blt- 7,.L106
.L105:
	.loc 1 1174 0 is_stmt 1
	lis 3,.LC25@ha
.LVL147:
	mr 4,31
	la 3,.LC25@l(3)
	crxor 6,6,6
	bl Sys_Error
.L106:
	.loc 1 1175 0
	lis 9,pr_edict_size@ha
	lwz 3,3500(30)
	lwz 0,pr_edict_size@l(9)
	.loc 1 1176 0
	lwz 30,8(1)
	.loc 1 1175 0
	mullw 31,31,0
.LVL148:
	.loc 1 1176 0
	lwz 0,20(1)
	mtlr 0
	add 3,3,31
	lwz 31,12(1)
	addi 1,1,16
.LCFI40:
	.cfi_def_cfa_offset 0
	.cfi_restore 31
	.cfi_restore 30
	blr
	.cfi_endproc
.LFE68:
	.size	EDICT_NUM, .-EDICT_NUM
	.align 2
	.globl ED_ParseEpair
	.type	ED_ParseEpair, @function
ED_ParseEpair:
.LFB63:
	.loc 1 794 0
	.cfi_startproc
.LVL149:
	mflr 0
	stwu 1,-160(1)
.LCFI41:
	.cfi_def_cfa_offset 160
	.cfi_register 65, 0
	stw 30,152(1)
	stw 0,164(1)
	stw 29,148(1)
	mr 29,3
	.cfi_offset 29, -12
	.cfi_offset 65, 4
	.cfi_offset 30, -8
	.loc 1 804 0
	lhz 0,0(4)
	.loc 1 802 0
	lhz 30,2(4)
	.loc 1 804 0
	rlwinm 0,0,0,17,15
	.loc 1 794 0
	stw 31,156(1)
	.loc 1 804 0
	cmplwi 7,0,6
	.loc 1 802 0
	slwi 30,30,2
	.loc 1 794 0
	stw 28,144(1)
	.loc 1 802 0
	add 31,3,30
	.cfi_offset 28, -16
	.cfi_offset 31, -4
.LVL150:
	.loc 1 804 0
	ble- 7,.L128
.LVL151:
.L124:
	.loc 1 855 0
	li 0,1
.L110:
	.loc 1 856 0
	mr 3,0
	lwz 0,164(1)
	lwz 28,144(1)
	mtlr 0
	lwz 29,148(1)
	lwz 30,152(1)
	lwz 31,156(1)
.LVL152:
	addi 1,1,160
	.cfi_remember_state
.LCFI42:
	.cfi_def_cfa_offset 0
	.cfi_restore 31
	.cfi_restore 30
	.cfi_restore 29
	.cfi_restore 28
	blr
.LVL153:
.L128:
.LCFI43:
	.cfi_restore_state
	.loc 1 804 0
	lis 9,.L117@ha
	slwi 0,0,2
	la 9,.L117@l(9)
	lwzx 0,9,0
	add 9,0,9
	mtctr 9
	bctr
	.section	.rodata
	.align 2
	.align 2
.L117:
	.long .L124-.L117
	.long .L111-.L117
	.long .L112-.L117
	.long .L113-.L117
	.long .L114-.L117
	.long .L115-.L117
	.long .L116-.L117
	.section	".text"
.L116:
	.loc 1 843 0
	mr 3,5
.LVL154:
	stw 5,136(1)
	bl ED_FindFunction
.LVL155:
	.loc 1 844 0
	lwz 5,136(1)
.LVL156:
	cmpwi 0,3,0
	beq- 0,.L129
	.loc 1 849 0
	lis 9,pr_functions@ha
	lis 0,0x38e3
	lwz 9,pr_functions@l(9)
	ori 0,0,36409
	.loc 1 856 0
	lwz 28,144(1)
	.loc 1 849 0
	subf 9,9,3
	.loc 1 856 0
	lwz 31,156(1)
.LVL157:
	.loc 1 849 0
	srawi 9,9,2
	mullw 9,9,0
	.loc 1 855 0
	li 0,1
	.loc 1 856 0
	mr 3,0
.LVL158:
	lwz 0,164(1)
	mtlr 0
	.loc 1 849 0
	stwx 9,29,30
	.loc 1 856 0
	lwz 29,148(1)
.LVL159:
	lwz 30,152(1)
	addi 1,1,160
	.cfi_remember_state
	.cfi_restore 28
	.cfi_restore 29
	.cfi_restore 30
	.cfi_restore 31
.LCFI44:
	.cfi_def_cfa_offset 0
	blr
.LVL160:
.L111:
.LCFI45:
	.cfi_restore_state
	.loc 1 807 0
	mr 3,5
.LVL161:
	bl ED_NewString
.LVL162:
	lis 9,pr_strings@ha
	lwz 9,pr_strings@l(9)
	.loc 1 855 0
	li 0,1
	.loc 1 856 0
	lwz 28,144(1)
	.loc 1 807 0
	subf 9,9,3
	.loc 1 856 0
	mr 3,0
	lwz 0,164(1)
	.loc 1 807 0
	stwx 9,29,30
	.loc 1 856 0
	mtlr 0
	lwz 29,148(1)
.LVL163:
	lwz 30,152(1)
	lwz 31,156(1)
.LVL164:
	addi 1,1,160
	.cfi_remember_state
	.cfi_restore 28
	.cfi_restore 29
	.cfi_restore 30
	.cfi_restore 31
.LCFI46:
	.cfi_def_cfa_offset 0
	blr
.LVL165:
.L112:
.LCFI47:
	.cfi_restore_state
	.loc 1 811 0
	mr 3,5
.LVL166:
	bl atof
.LVL167:
	.loc 1 855 0
	li 0,1
	.loc 1 856 0
	mr 3,0
	lwz 0,164(1)
	.loc 1 811 0
	frsp 1,1
	.loc 1 856 0
	lwz 28,144(1)
	mtlr 0
	lwz 31,156(1)
.LVL168:
	.loc 1 811 0
	stfsx 1,29,30
	.loc 1 856 0
	lwz 29,148(1)
.LVL169:
	lwz 30,152(1)
	addi 1,1,160
	.cfi_remember_state
	.cfi_restore 28
	.cfi_restore 29
	.cfi_restore 30
	.cfi_restore 31
.LCFI48:
	.cfi_def_cfa_offset 0
	blr
.LVL170:
.L113:
.LCFI49:
	.cfi_restore_state
	.loc 1 815 0
	mr 4,5
.LVL171:
	addi 3,1,8
.LVL172:
	li 5,128
.LVL173:
	li 29,0
.LVL174:
	bl strncpy
.LVL175:
	.loc 1 822 0
	li 28,0
	.loc 1 816 0
	addi 3,1,8
.LVL176:
.L118:
	.loc 1 820 0 discriminator 1
	lbz 0,0(3)
	mr 30,3
	cmpwi 7,0,0
	beq- 7,.L119
.LVL177:
	.loc 1 820 0 is_stmt 0
	cmpwi 7,0,32
	mr 9,3
	bne+ 7,.L120
	b .L119
.LVL178:
.L130:
	.loc 1 820 0 discriminator 2
	cmpwi 7,0,32
	beq- 7,.L119
.L120:
	.loc 1 820 0
	lbzu 0,1(9)
	.loc 1 821 0 is_stmt 1
	addi 30,30,1
.LVL179:
	.loc 1 820 0
	cmpwi 7,0,0
	bne+ 7,.L130
.L119:
	.loc 1 822 0
	stb 28,0(30)
	.loc 1 823 0
	bl atof
.LVL180:
	.loc 1 818 0
	cmpwi 7,29,8
	.loc 1 823 0
	frsp 1,1
	.loc 1 824 0
	addi 3,30,1
.LVL181:
	.loc 1 823 0
	stfsx 1,31,29
	.loc 1 818 0
	addi 29,29,4
	bne+ 7,.L118
	b .L124
.LVL182:
.L114:
	.loc 1 829 0
	mr 3,5
.LVL183:
	bl atoi
.LVL184:
	bl EDICT_NUM
	lis 9,sv+3500@ha
	lwz 9,sv+3500@l(9)
	.loc 1 855 0
	li 0,1
	.loc 1 856 0
	lwz 28,144(1)
	.loc 1 829 0
	subf 9,9,3
	.loc 1 856 0
	mr 3,0
	lwz 0,164(1)
	.loc 1 829 0
	stwx 9,29,30
	.loc 1 856 0
	mtlr 0
	lwz 29,148(1)
.LVL185:
	lwz 30,152(1)
	lwz 31,156(1)
.LVL186:
	addi 1,1,160
	.cfi_remember_state
	.cfi_restore 28
	.cfi_restore 29
	.cfi_restore 30
	.cfi_restore 31
.LCFI50:
	.cfi_def_cfa_offset 0
	blr
.LVL187:
.L115:
.LCFI51:
	.cfi_restore_state
	.loc 1 833 0
	mr 3,5
.LVL188:
	stw 5,136(1)
	bl ED_FindField
.LVL189:
	.loc 1 834 0
	lwz 5,136(1)
.LVL190:
	cmpwi 0,3,0
	beq- 0,.L131
	.loc 1 839 0
	lhz 0,2(3)
	lis 9,pr_globals@ha
	lwz 9,pr_globals@l(9)
	slwi 0,0,2
	.loc 1 856 0
	lwz 28,144(1)
	.loc 1 839 0
	lwzx 9,9,0
	.loc 1 855 0
	li 0,1
	.loc 1 856 0
	mr 3,0
.LVL191:
	lwz 0,164(1)
	.loc 1 839 0
	stwx 9,29,30
	.loc 1 856 0
	mtlr 0
	lwz 29,148(1)
.LVL192:
	lwz 30,152(1)
	lwz 31,156(1)
.LVL193:
	addi 1,1,160
	.cfi_remember_state
	.cfi_restore 28
	.cfi_restore 29
	.cfi_restore 30
	.cfi_restore 31
.LCFI52:
	.cfi_def_cfa_offset 0
	blr
.LVL194:
.L131:
.LCFI53:
	.cfi_restore_state
	.loc 1 836 0
	lis 3,.LC26@ha
.LVL195:
	mr 4,5
	la 3,.LC26@l(3)
	crxor 6,6,6
	bl Con_Printf
.LVL196:
	.loc 1 837 0
	li 0,0
	b .L110
.LVL197:
.L129:
	.loc 1 846 0
	lis 3,.LC27@ha
.LVL198:
	mr 4,5
	la 3,.LC27@l(3)
	crxor 6,6,6
	bl Con_Printf
.LVL199:
	.loc 1 847 0
	li 0,0
	b .L110
	.cfi_endproc
.LFE63:
	.size	ED_ParseEpair, .-ED_ParseEpair
	.align 2
	.globl ED_ParseEdict
	.type	ED_ParseEdict, @function
ED_ParseEdict:
.LFB64:
	.loc 1 868 0
	.cfi_startproc
.LVL200:
	mflr 0
	stwu 1,-344(1)
.LCFI54:
	.cfi_def_cfa_offset 344
	.cfi_register 65, 0
	.loc 1 878 0
	lis 9,sv+3500@ha
	.loc 1 868 0
	stw 26,320(1)
	mr 26,4
	.cfi_offset 26, -24
	stw 0,348(1)
	.loc 1 878 0
	lwz 0,sv+3500@l(9)
	.cfi_offset 65, 4
	.loc 1 868 0
	stw 30,336(1)
	mr 30,3
	.cfi_offset 30, -8
	.loc 1 878 0
	cmpw 7,0,4
	.loc 1 868 0
	stw 20,296(1)
	stw 21,300(1)
	stw 22,304(1)
	stw 23,308(1)
	stw 24,312(1)
	stw 25,316(1)
	stw 27,324(1)
	stw 28,328(1)
	stw 29,332(1)
	stw 31,340(1)
	.loc 1 878 0
	beq- 7,.L133
	.cfi_offset 31, -4
	.cfi_offset 29, -12
	.cfi_offset 28, -16
	.cfi_offset 27, -20
	.cfi_offset 25, -28
	.cfi_offset 24, -32
	.cfi_offset 23, -36
	.cfi_offset 22, -40
	.cfi_offset 21, -44
	.cfi_offset 20, -48
	.loc 1 879 0
	lis 9,progs@ha
	addi 3,4,604
.LVL201:
	lwz 9,progs@l(9)
	li 4,0
.LVL202:
	lwz 5,56(9)
	slwi 5,5,2
	bl memset
.L133:
.LVL203:
	lis 31,com_token@ha
	.loc 1 885 0
	mr 3,30
	la 31,com_token@l(31)
	bl COM_Parse
	.loc 1 886 0
	lbz 0,0(31)
	.loc 1 889 0
	lis 21,.LC28@ha
	.loc 1 893 0
	lis 28,.LC29@ha
	.loc 1 902 0
	lis 29,.LC31@ha
	.loc 1 886 0
	cmpwi 7,0,125
	.loc 1 921 0
	lis 22,.LC32@ha
	.loc 1 945 0
	lis 23,.LC35@ha
.LBB22:
	.loc 1 941 0
	lis 24,.LC34@ha
.LBE22:
	.loc 1 868 0
	li 27,0
	.loc 1 889 0
	la 21,.LC28@l(21)
	.loc 1 893 0
	la 28,.LC29@l(28)
	.loc 1 895 0
	lis 25,.LC30@ha
	.loc 1 902 0
	la 29,.LC31@l(29)
	.loc 1 921 0
	la 22,.LC32@l(22)
	.loc 1 945 0
	la 23,.LC35@l(23)
.LBB23:
	.loc 1 941 0
	la 24,.LC34@l(24)
.LBE23:
	.loc 1 885 0
	mr 30,3
.LVL204:
	.loc 1 886 0
	beq- 7,.L135
.L159:
	.loc 1 888 0
	cmpwi 7,3,0
	beq- 7,.L150
.LVL205:
.L136:
	.loc 1 893 0
	mr 3,31
	mr 4,28
	bl strcmp
	.loc 1 899 0
	li 20,0
	.loc 1 893 0
	cmpwi 7,3,0
	beq- 7,.L151
.L137:
.LVL206:
	.loc 1 902 0
	mr 3,31
	mr 4,29
	bl strcmp
	cmpwi 7,3,0
	beq- 7,.L152
.L138:
	.loc 1 905 0
	mr 4,31
	addi 3,1,40
	bl strcpy
	.loc 1 908 0
	addi 3,1,40
	bl strlen
.LVL207:
	.loc 1 909 0
	cmpwi 0,3,0
	beq- 0,.L139
	addi 0,3,-1
	addi 7,1,8
	add 9,7,0
	lbz 9,32(9)
	cmpwi 7,9,32
	bne- 7,.L139
	.loc 1 867 0
	addi 9,3,-2
	.loc 1 911 0
	li 8,0
	mtctr 3
	b .L140
.LVL208:
.L153:
	.loc 1 909 0 discriminator 2
	lbz 11,1(10)
	cmpwi 7,11,32
	bne- 7,.L139
.L140:
	.loc 1 911 0
	addi 10,1,8
	.loc 1 867 0
	addi 7,1,40
	.loc 1 911 0
	add 11,10,0
	.loc 1 909 0
	mr 0,9
	addi 9,9,-1
	.loc 1 911 0
	stb 8,32(11)
	.loc 1 867 0
	add 10,7,9
	.loc 1 909 0
	bdnz .L153
.L139:
	.loc 1 916 0
	mr 3,30
	bl COM_Parse
.LVL209:
	.loc 1 917 0
	mr. 30,3
	beq- 0,.L154
.LVL210:
.L141:
	.loc 1 920 0
	lbz 0,0(31)
	cmpwi 7,0,125
	beq- 7,.L155
.L142:
.LVL211:
	.loc 1 927 0
	lbz 0,40(1)
	cmpwi 7,0,95
	beq- 7,.L143
	.loc 1 930 0
	addi 3,1,40
	bl ED_FindField
.LVL212:
	.loc 1 931 0
	mr. 27,3
	beq- 0,.L156
	.loc 1 937 0
	cmpwi 7,20,0
	bne- 7,.L157
.LVL213:
.L145:
	.loc 1 944 0
	addi 3,26,604
	mr 4,27
	mr 5,31
	bl ED_ParseEpair
	cmpwi 7,3,0
	beq- 7,.L158
.LVL214:
.L143:
	.loc 1 879 0
	li 27,1
.L160:
.LVL215:
	.loc 1 885 0
	mr 3,30
	bl COM_Parse
	.loc 1 886 0
	lbz 0,0(31)
	.loc 1 885 0
	mr 30,3
.LVL216:
	.loc 1 886 0
	cmpwi 7,0,125
	bne+ 7,.L159
.LVL217:
.L135:
	.loc 1 948 0
	cmpwi 7,27,0
	bne- 7,.L146
	.loc 1 949 0
	li 0,1
	stb 0,0(26)
.L146:
	.loc 1 952 0
	lwz 0,348(1)
	mr 3,30
.LVL218:
	lwz 20,296(1)
	mtlr 0
	lwz 21,300(1)
	lwz 22,304(1)
	lwz 23,308(1)
	lwz 24,312(1)
	lwz 25,316(1)
	lwz 26,320(1)
.LVL219:
	lwz 27,324(1)
	lwz 28,328(1)
	lwz 29,332(1)
	lwz 30,336(1)
.LVL220:
	lwz 31,340(1)
	addi 1,1,344
	.cfi_remember_state
.LCFI55:
	.cfi_def_cfa_offset 0
	.cfi_restore 31
	.cfi_restore 30
	.cfi_restore 29
	.cfi_restore 28
	.cfi_restore 27
	.cfi_restore 26
	.cfi_restore 25
	.cfi_restore 24
	.cfi_restore 23
	.cfi_restore 22
	.cfi_restore 21
	.cfi_restore 20
	blr
.LVL221:
.L158:
.LCFI56:
	.cfi_restore_state
	.loc 1 945 0
	mr 3,23
	.loc 1 879 0
	li 27,1
.LVL222:
	.loc 1 945 0
	crxor 6,6,6
	bl Host_Error
	b .L160
.LVL223:
.L152:
	.loc 1 903 0
	lis 11,.LC6@ha
	la 9,.LC6@l(11)
	lwz 10,.LC6@l(11)
	lhz 0,8(9)
	lwz 11,4(9)
	stw 10,0(31)
	stw 11,4(31)
	sth 0,8(31)
	b .L138
.LVL224:
.L151:
	.loc 1 895 0
	la 9,.LC30@l(25)
	lwz 10,.LC30@l(25)
	lhz 11,4(9)
	.loc 1 896 0
	li 20,1
	.loc 1 895 0
	lbz 0,6(9)
	stw 10,0(31)
	sth 11,4(31)
	stb 0,6(31)
.LVL225:
	b .L137
.LVL226:
.L157:
.LBB24:
	.loc 1 940 0
	mr 4,31
	addi 3,1,8
.LVL227:
	bl strcpy
	.loc 1 941 0
	mr 3,31
	mr 4,24
	addi 5,1,8
	crxor 6,6,6
	bl sprintf
	b .L145
.LVL228:
.L155:
.LBE24:
	.loc 1 921 0
	mr 3,22
	crxor 6,6,6
	bl Sys_Error
	b .L142
.L154:
	.loc 1 918 0
	mr 3,21
	crxor 6,6,6
	bl Sys_Error
	b .L141
.LVL229:
.L150:
	.loc 1 889 0
	mr 3,21
.LVL230:
	crxor 6,6,6
	bl Sys_Error
	b .L136
.LVL231:
.L156:
	.loc 1 933 0
	lis 3,.LC33@ha
.LVL232:
	addi 4,1,40
	la 3,.LC33@l(3)
	.loc 1 879 0
	li 27,1
.LVL233:
	.loc 1 933 0
	crxor 6,6,6
	bl Con_Printf
	b .L160
	.cfi_endproc
.LFE64:
	.size	ED_ParseEdict, .-ED_ParseEdict
	.align 2
	.globl ED_ParseGlobals
	.type	ED_ParseGlobals, @function
ED_ParseGlobals:
.LFB61:
	.loc 1 715 0
	.cfi_startproc
.LVL234:
	mflr 0
	stwu 1,-104(1)
.LCFI57:
	.cfi_def_cfa_offset 104
	.cfi_register 65, 0
	stw 25,76(1)
	.loc 1 726 0
	lis 25,.LC28@ha
	.cfi_offset 25, -28
	.loc 1 715 0
	stw 26,80(1)
	.loc 1 736 0
	lis 26,.LC32@ha
	.cfi_offset 26, -24
	.loc 1 715 0
	stw 27,84(1)
	.loc 1 741 0
	lis 27,.LC36@ha
	.cfi_offset 27, -20
	.loc 1 715 0
	stw 28,88(1)
	.loc 1 746 0
	lis 28,.LC37@ha
	.cfi_offset 28, -16
	.loc 1 715 0
	stw 31,100(1)
	lis 31,com_token@ha
	.cfi_offset 31, -4
	stw 0,108(1)
	la 31,com_token@l(31)
	stw 29,92(1)
	.loc 1 726 0
	la 25,.LC28@l(25)
	.loc 1 715 0
	stw 30,96(1)
	.loc 1 736 0
	la 26,.LC32@l(26)
	.loc 1 715 0
	mr 30,3
	.cfi_offset 30, -8
	.cfi_offset 29, -12
	.cfi_offset 65, 4
	.loc 1 745 0
	lis 29,pr_globals@ha
	.loc 1 746 0
	la 28,.LC37@l(28)
	.loc 1 741 0
	la 27,.LC36@l(27)
.LVL235:
.L171:
	.loc 1 722 0
	mr 3,30
	bl COM_Parse
	.loc 1 723 0
	lbz 0,0(31)
	.loc 1 722 0
	mr 30,3
.LVL236:
	.loc 1 723 0
	cmpwi 7,0,125
	beq- 7,.L161
.L176:
	.loc 1 725 0
	cmpwi 7,3,0
	beq- 7,.L172
.LVL237:
.L164:
	.loc 1 728 0
	mr 4,31
	li 5,64
	addi 3,1,8
	bl strncpy
	.loc 1 731 0
	mr 3,30
	bl COM_Parse
.LVL238:
	.loc 1 732 0
	mr. 30,3
	beq- 0,.L173
.LVL239:
.L165:
	.loc 1 735 0
	lbz 0,0(31)
	cmpwi 7,0,125
	beq- 7,.L174
.L166:
	.loc 1 738 0
	addi 3,1,8
	bl ED_FindGlobal
.LVL240:
	.loc 1 739 0
	mr. 4,3
	beq- 0,.L175
	.loc 1 745 0
	lwz 3,pr_globals@l(29)
.LVL241:
	mr 5,31
	bl ED_ParseEpair
.LVL242:
	cmpwi 7,3,0
	bne+ 7,.L171
	.loc 1 746 0
	mr 3,28
	crxor 6,6,6
	bl Host_Error
	.loc 1 722 0
	mr 3,30
	bl COM_Parse
	.loc 1 723 0
	lbz 0,0(31)
	.loc 1 722 0
	mr 30,3
.LVL243:
	.loc 1 723 0
	cmpwi 7,0,125
	bne+ 7,.L176
.L161:
	.loc 1 748 0
	lwz 0,108(1)
	lwz 25,76(1)
	mtlr 0
	lwz 26,80(1)
	lwz 27,84(1)
	lwz 28,88(1)
	lwz 29,92(1)
	lwz 30,96(1)
	lwz 31,100(1)
	addi 1,1,104
	.cfi_remember_state
.LCFI58:
	.cfi_def_cfa_offset 0
	.cfi_restore 31
	.cfi_restore 30
	.cfi_restore 29
	.cfi_restore 28
	.cfi_restore 27
	.cfi_restore 26
	.cfi_restore 25
	blr
.LVL244:
.L175:
.LCFI59:
	.cfi_restore_state
	.loc 1 741 0
	mr 3,27
.LVL245:
	addi 4,1,8
.LVL246:
	crxor 6,6,6
	bl Con_Printf
	.loc 1 742 0
	b .L171
.L174:
	.loc 1 736 0
	mr 3,26
	crxor 6,6,6
	bl Sys_Error
	b .L166
.L173:
	.loc 1 733 0
	mr 3,25
	crxor 6,6,6
	bl Sys_Error
	b .L165
.LVL247:
.L172:
	.loc 1 726 0
	mr 3,25
.LVL248:
	crxor 6,6,6
	bl Sys_Error
	b .L164
	.cfi_endproc
.LFE61:
	.size	ED_ParseGlobals, .-ED_ParseGlobals
	.align 2
	.globl ED_Count
	.type	ED_Count, @function
ED_Count:
.LFB59:
	.loc 1 639 0
	.cfi_startproc
.LVL249:
	stwu 1,-48(1)
.LCFI60:
	.cfi_def_cfa_offset 48
	mflr 0
	stw 26,16(1)
	.loc 1 645 0
	lis 26,sv@ha
	.cfi_offset 26, -32
	.cfi_register 65, 0
	la 26,sv@l(26)
	.loc 1 639 0
	stw 28,24(1)
	.loc 1 645 0
	lwz 4,3492(26)
	li 28,0
	.cfi_offset 28, -24
	.loc 1 639 0
	stw 29,28(1)
	.loc 1 645 0
	li 29,0
	.cfi_offset 29, -20
	cmpwi 7,4,0
	.loc 1 639 0
	stw 30,32(1)
	stw 31,36(1)
	.loc 1 645 0
	li 30,0
	.cfi_offset 31, -12
	.cfi_offset 30, -16
	.loc 1 639 0
	stw 0,52(1)
	.loc 1 645 0
	li 31,0
	.loc 1 639 0
	stfd 31,40(1)
	stw 25,12(1)
	stw 27,20(1)
	.loc 1 645 0
	ble- 7,.L178
	.cfi_offset 27, -28
	.cfi_offset 25, -36
	.cfi_offset 63, -8
	.cfi_offset 65, 4
	.loc 1 651 0
	lis 9,.LC44@ha
	.loc 1 645 0
	li 27,0
	.loc 1 651 0
	lfs 31,.LC44@l(9)
	.loc 1 655 0
	lis 25,.LC38@ha
.LVL250:
.L182:
	.loc 1 647 0
	mr 3,27
	.loc 1 645 0
	addi 27,27,1
	.loc 1 647 0
	bl EDICT_NUM
.LVL251:
	.loc 1 648 0
	lbz 0,0(3)
	cmpwi 7,0,0
	bne- 7,.L179
	.loc 1 651 0
	lfs 0,640(3)
	.loc 1 650 0
	addi 29,29,1
.LVL252:
	.loc 1 653 0
	lwz 0,720(3)
	.loc 1 652 0
	fcmpu 6,0,31
	.loc 1 655 0
	lfs 0,.LC38@l(25)
	.loc 1 653 0
	cmpwi 7,0,0
	.loc 1 652 0
	crnot 26,26
	mfcr 0
	rlwinm 0,0,27,1
	add 30,30,0
.LVL253:
	.loc 1 653 0
	beq- 7,.L181
	.loc 1 654 0
	addi 28,28,1
.LVL254:
.L181:
	.loc 1 655 0
	lfs 13,636(3)
	.loc 1 656 0
	fcmpu 7,13,0
	mfcr 0
	rlwinm 0,0,31,1
	add 31,31,0
.LVL255:
.L179:
	.loc 1 645 0
	lwz 4,3492(26)
	cmpw 7,4,27
	bgt+ 7,.L182
.LVL256:
.L178:
	.loc 1 659 0
	lis 3,.LC39@ha
	la 3,.LC39@l(3)
	crxor 6,6,6
	bl Con_Printf
	.loc 1 660 0
	lis 3,.LC40@ha
	mr 4,29
	la 3,.LC40@l(3)
	crxor 6,6,6
	bl Con_Printf
	.loc 1 661 0
	lis 3,.LC41@ha
	mr 4,28
	la 3,.LC41@l(3)
	crxor 6,6,6
	bl Con_Printf
	.loc 1 662 0
	lis 3,.LC42@ha
	mr 4,30
	la 3,.LC42@l(3)
	crxor 6,6,6
	bl Con_Printf
	.loc 1 663 0
	lis 3,.LC43@ha
	mr 4,31
	la 3,.LC43@l(3)
	crxor 6,6,6
	bl Con_Printf
	.loc 1 665 0
	lwz 0,52(1)
	lwz 25,12(1)
	mtlr 0
	lwz 26,16(1)
	lwz 27,20(1)
	lwz 28,24(1)
	lwz 29,28(1)
	lwz 30,32(1)
	lwz 31,36(1)
	lfd 31,40(1)
	addi 1,1,48
.LCFI61:
	.cfi_def_cfa_offset 0
	.cfi_restore 63
	.cfi_restore 31
	.cfi_restore 30
	.cfi_restore 29
	.cfi_restore 28
	.cfi_restore 27
	.cfi_restore 26
	.cfi_restore 25
	blr
	.cfi_endproc
.LFE59:
	.size	ED_Count, .-ED_Count
	.align 2
	.globl ED_Alloc
	.type	ED_Alloc, @function
ED_Alloc:
.LFB42:
	.loc 1 153 0
	.cfi_startproc
	stwu 1,-32(1)
.LCFI62:
	.cfi_def_cfa_offset 32
	mflr 0
	.loc 1 157 0
	lis 9,svs@ha
	.loc 1 153 0
	stw 29,20(1)
	.loc 1 157 0
	lis 29,sv@ha
	.cfi_offset 29, -12
	.cfi_register 65, 0
	.loc 1 153 0
	stw 31,28(1)
	.loc 1 157 0
	la 29,sv@l(29)
	lwz 31,svs@l(9)
	.cfi_offset 31, -4
	.loc 1 153 0
	stw 0,36(1)
	.loc 1 157 0
	lwz 0,3492(29)
	.cfi_offset 65, 4
	addi 31,31,1
.LVL257:
	.loc 1 153 0
	stw 27,12(1)
	.loc 1 157 0
	cmpw 7,31,0
	.loc 1 153 0
	stw 28,16(1)
	stw 30,24(1)
	.loc 1 157 0
	bge- 7,.L186
	.cfi_offset 30, -8
	.cfi_offset 28, -16
	.cfi_offset 27, -20
	.loc 1 162 0
	lis 28,.LC45@ha
	lis 27,.LC47@ha
.L195:
	.loc 1 159 0
	mr 3,31
	.loc 1 157 0
	addi 31,31,1
.LVL258:
	.loc 1 159 0
	bl EDICT_NUM
.LVL259:
	.loc 1 162 0
	lbz 0,0(3)
	.loc 1 159 0
	mr 30,3
.LVL260:
	.loc 1 162 0
	cmpwi 7,0,0
	beq- 7,.L187
	.loc 1 162 0 is_stmt 0 discriminator 1
	lfs 0,600(3)
	lfs 13,.LC45@l(28)
	fcmpu 7,0,13
	blt- 7,.L188
	lfd 12,8(29)
	lfs 13,.LC47@l(27)
	fsub 0,12,0
	fcmpu 7,0,13
	bgt- 7,.L188
.L187:
.LVL261:
	.loc 1 157 0 is_stmt 1
	lwz 0,3492(29)
	cmpw 7,0,31
	bgt+ 7,.L195
.LVL262:
.L186:
	.loc 1 169 0
	cmpwi 7,31,2048
	beq- 7,.L197
.L192:
	.loc 1 172 0
	lwz 9,3492(29)
	.loc 1 173 0
	mr 3,31
	.loc 1 172 0
	addi 0,9,1
	stw 0,3492(29)
	.loc 1 173 0
	bl EDICT_NUM
	mr 30,3
.LVL263:
	.loc 1 174 0
	bl ED_ClearEdict
.LVL264:
	.loc 1 177 0
	lwz 0,36(1)
	mr 3,30
	lwz 27,12(1)
	mtlr 0
	lwz 28,16(1)
	lwz 29,20(1)
	lwz 30,24(1)
.LVL265:
	lwz 31,28(1)
.LVL266:
	addi 1,1,32
	.cfi_remember_state
.LCFI63:
	.cfi_def_cfa_offset 0
	.cfi_restore 31
	.cfi_restore 30
	.cfi_restore 29
	.cfi_restore 28
	.cfi_restore 27
	blr
.LVL267:
.L188:
.LCFI64:
	.cfi_restore_state
	.loc 1 164 0
	mr 3,30
.LVL268:
	bl ED_ClearEdict
	.loc 1 177 0
	lwz 0,36(1)
	mr 3,30
	lwz 27,12(1)
	mtlr 0
	lwz 28,16(1)
	lwz 29,20(1)
	lwz 30,24(1)
.LVL269:
	lwz 31,28(1)
.LVL270:
	addi 1,1,32
	.cfi_remember_state
	.cfi_restore 27
	.cfi_restore 28
	.cfi_restore 29
	.cfi_restore 30
	.cfi_restore 31
.LCFI65:
	.cfi_def_cfa_offset 0
	blr
.LVL271:
.L197:
.LCFI66:
	.cfi_restore_state
	.loc 1 170 0
	lis 3,.LC48@ha
	la 3,.LC48@l(3)
	crxor 6,6,6
	bl Sys_Error
	b .L192
	.cfi_endproc
.LFE42:
	.size	ED_Alloc, .-ED_Alloc
	.align 2
	.globl NUM_FOR_EDICT
	.type	NUM_FOR_EDICT, @function
NUM_FOR_EDICT:
.LFB69:
	.loc 1 1179 0
	.cfi_startproc
.LVL272:
	mflr 0
	stwu 1,-16(1)
.LCFI67:
	.cfi_def_cfa_offset 16
	.cfi_register 65, 0
	.loc 1 1182 0
	lis 9,sv@ha
	.loc 1 1183 0
	lis 11,pr_edict_size@ha
	.loc 1 1182 0
	la 9,sv@l(9)
	.loc 1 1179 0
	stw 31,12(1)
	stw 0,20(1)
	.loc 1 1183 0
	lwz 0,pr_edict_size@l(11)
	.cfi_offset 65, 4
	.cfi_offset 31, -4
	.loc 1 1182 0
	lwz 31,3500(9)
	subf 31,31,3
.LVL273:
	.loc 1 1183 0
	divw 31,31,0
.LVL274:
	.loc 1 1185 0
	cmpwi 7,31,0
	blt- 7,.L199
	.loc 1 1185 0 is_stmt 0 discriminator 1
	lwz 0,3492(9)
	cmpw 7,31,0
	blt- 7,.L200
.L199:
	.loc 1 1186 0 is_stmt 1
	lis 3,.LC49@ha
.LVL275:
	la 3,.LC49@l(3)
	crxor 6,6,6
	bl Sys_Error
.L200:
	.loc 1 1188 0
	lwz 0,20(1)
	mr 3,31
	lwz 31,12(1)
.LVL276:
	mtlr 0
	addi 1,1,16
.LCFI68:
	.cfi_def_cfa_offset 0
	.cfi_restore 31
	blr
	.cfi_endproc
.LFE69:
	.size	NUM_FOR_EDICT, .-NUM_FOR_EDICT
	.align 2
	.globl PR_UglyValueString
	.type	PR_UglyValueString, @function
PR_UglyValueString:
.LFB51:
	.loc 1 398 0
	.cfi_startproc
.LVL277:
	.loc 1 403 0
	rlwinm 5,3,0,17,15
.LVL278:
	.loc 1 398 0
	mflr 0
	.loc 1 405 0
	cmplwi 7,5,6
	.loc 1 398 0
	stwu 1,-16(1)
.LCFI69:
	.cfi_def_cfa_offset 16
	.cfi_register 65, 0
	stw 0,20(1)
	stw 31,12(1)
	.loc 1 405 0
	ble- 7,.L216
	.cfi_offset 31, -4
	.cfi_offset 65, 4
	.loc 1 431 0
	lis 10,.LANCHOR0@ha
	lis 4,.LC54@ha
.LVL279:
	la 10,.LANCHOR0@l(10)
	la 4,.LC54@l(4)
	addi 31,10,268
	mr 3,31
	crxor 6,6,6
	bl sprintf
.LVL280:
	.loc 1 436 0
	lwz 0,20(1)
	mr 3,31
	lwz 31,12(1)
	mtlr 0
	addi 1,1,16
	.cfi_remember_state
.LCFI70:
	.cfi_def_cfa_offset 0
	.cfi_restore 31
	blr
.LVL281:
.L216:
.LCFI71:
	.cfi_restore_state
	.loc 1 405 0
	lis 9,.L210@ha
	slwi 5,5,2
.LVL282:
	la 9,.L210@l(9)
	lwzx 0,9,5
	add 9,0,9
	mtctr 9
	bctr
	.section	.rodata
	.align 2
	.align 2
.L210:
	.long .L203-.L210
	.long .L204-.L210
	.long .L205-.L210
	.long .L206-.L210
	.long .L207-.L210
	.long .L208-.L210
	.long .L209-.L210
	.section	".text"
.L208:
.LBB25:
.LBB26:
	.loc 1 237 0
	lis 9,progs@ha
.LBE26:
.LBE25:
	.loc 1 418 0
	lwz 10,0(4)
.LVL283:
.LBB30:
.LBB27:
	.loc 1 237 0
	lwz 9,progs@l(9)
	.loc 1 243 0
	li 11,0
	.loc 1 237 0
	lwz 0,28(9)
	cmpwi 7,0,0
	ble- 7,.L212
.LVL284:
	.loc 1 239 0
	lis 9,pr_fielddefs@ha
	lwz 11,pr_fielddefs@l(9)
.LVL285:
	.loc 1 240 0
	lhz 9,2(11)
	cmpw 7,10,9
	beq- 7,.L212
.LBE27:
.LBE30:
	.loc 1 237 0
	mtctr 0
.LBB31:
.LBB28:
	.loc 1 397 0
	addi 9,11,8
.LVL286:
.L213:
	.loc 1 237 0
	bdz .L217
	.loc 1 240 0
	lhz 0,2(9)
	.loc 1 239 0
	mr 11,9
.LVL287:
	addi 9,9,8
.LVL288:
	.loc 1 240 0
	cmpw 7,10,0
	bne+ 7,.L213
.LVL289:
.L212:
.LBE28:
.LBE31:
	.loc 1 419 0
	lis 9,pr_strings@ha
	lis 10,.LANCHOR0@ha
	lwz 0,4(11)
	la 10,.LANCHOR0@l(10)
	lwz 4,pr_strings@l(9)
.LVL290:
	addi 31,10,268
	mr 3,31
	add 4,4,0
	bl strcpy
	.loc 1 436 0
	lwz 0,20(1)
	mr 3,31
	lwz 31,12(1)
	mtlr 0
	addi 1,1,16
	.cfi_remember_state
	.cfi_restore 31
.LCFI72:
	.cfi_def_cfa_offset 0
	blr
.LVL291:
.L209:
.LCFI73:
	.cfi_restore_state
	.loc 1 414 0
	lwz 9,0(4)
	.loc 1 415 0
	lis 11,pr_functions@ha
	lwz 0,pr_functions@l(11)
	lis 10,.LANCHOR0@ha
	mulli 9,9,36
	lis 11,pr_strings@ha
	la 10,.LANCHOR0@l(10)
	lwz 4,pr_strings@l(11)
.LVL292:
	add 9,0,9
.LVL293:
	addi 31,10,268
	lwz 0,16(9)
	mr 3,31
	add 4,4,0
	bl strcpy
.LVL294:
	.loc 1 436 0
	lwz 0,20(1)
	mr 3,31
	lwz 31,12(1)
	mtlr 0
	addi 1,1,16
	.cfi_remember_state
	.cfi_restore 31
.LCFI74:
	.cfi_def_cfa_offset 0
	blr
.LVL295:
.L203:
.LCFI75:
	.cfi_restore_state
	.loc 1 422 0
	lis 9,.LC51@ha
	lis 10,.LANCHOR0@ha
	la 11,.LC51@l(9)
	la 10,.LANCHOR0@l(10)
	lbz 0,4(11)
	addi 31,10,268
	lwz 9,.LC51@l(9)
	.loc 1 436 0
	mr 3,31
	.loc 1 422 0
	stb 0,4(31)
	stw 9,268(10)
	.loc 1 436 0
	lwz 0,20(1)
	lwz 31,12(1)
	mtlr 0
	addi 1,1,16
	.cfi_remember_state
	.cfi_restore 31
.LCFI76:
	.cfi_def_cfa_offset 0
	blr
.L204:
.LCFI77:
	.cfi_restore_state
	.loc 1 408 0
	lis 10,.LANCHOR0@ha
	lis 9,pr_strings@ha
	lwz 0,0(4)
	la 10,.LANCHOR0@l(10)
	lwz 9,pr_strings@l(9)
	addi 31,10,268
	mr 3,31
	add 4,9,0
.LVL296:
	bl strcpy
	.loc 1 436 0
	lwz 0,20(1)
	mr 3,31
	lwz 31,12(1)
	mtlr 0
	addi 1,1,16
	.cfi_remember_state
	.cfi_restore 31
.LCFI78:
	.cfi_def_cfa_offset 0
	blr
.LVL297:
.L205:
.LCFI79:
	.cfi_restore_state
	.loc 1 425 0
	lis 10,.LANCHOR0@ha
	lfs 1,0(4)
	la 10,.LANCHOR0@l(10)
	lis 4,.LC52@ha
.LVL298:
	addi 31,10,268
	la 4,.LC52@l(4)
	mr 3,31
	creqv 6,6,6
	bl sprintf
	.loc 1 436 0
	lwz 0,20(1)
	mr 3,31
	lwz 31,12(1)
	mtlr 0
	addi 1,1,16
	.cfi_remember_state
	.cfi_restore 31
.LCFI80:
	.cfi_def_cfa_offset 0
	blr
.LVL299:
.L206:
.LCFI81:
	.cfi_restore_state
	.loc 1 428 0
	lis 10,.LANCHOR0@ha
	lfs 1,0(4)
	la 10,.LANCHOR0@l(10)
	lfs 2,4(4)
	addi 31,10,268
	lfs 3,8(4)
	lis 4,.LC53@ha
.LVL300:
	mr 3,31
	la 4,.LC53@l(4)
	creqv 6,6,6
	bl sprintf
	.loc 1 436 0
	lwz 0,20(1)
	mr 3,31
	lwz 31,12(1)
	mtlr 0
	addi 1,1,16
	.cfi_remember_state
	.cfi_restore 31
.LCFI82:
	.cfi_def_cfa_offset 0
	blr
.LVL301:
.L207:
.LCFI83:
	.cfi_restore_state
	.loc 1 411 0
	lis 9,sv+3500@ha
	lwz 0,0(4)
	lwz 3,sv+3500@l(9)
	add 3,3,0
	bl NUM_FOR_EDICT
.LVL302:
	lis 10,.LANCHOR0@ha
	la 10,.LANCHOR0@l(10)
	lis 4,.LC50@ha
	addi 31,10,268
	mr 5,3
	la 4,.LC50@l(4)
	mr 3,31
	crxor 6,6,6
	bl sprintf
	.loc 1 436 0
	lwz 0,20(1)
	mr 3,31
	lwz 31,12(1)
	mtlr 0
	addi 1,1,16
	.cfi_remember_state
	.cfi_restore 31
.LCFI84:
	.cfi_def_cfa_offset 0
	blr
.LVL303:
.L217:
.LCFI85:
	.cfi_restore_state
.LBB32:
.LBB29:
	.loc 1 243 0
	li 11,0
.LVL304:
	b .L212
.LBE29:
.LBE32:
	.cfi_endproc
.LFE51:
	.size	PR_UglyValueString, .-PR_UglyValueString
	.align 2
	.globl ED_WriteGlobals
	.type	ED_WriteGlobals, @function
ED_WriteGlobals:
.LFB60:
	.loc 1 682 0
	.cfi_startproc
.LVL305:
	stwu 1,-48(1)
.LCFI86:
	.cfi_def_cfa_offset 48
	mflr 0
	.loc 1 688 0
	li 4,1
	li 5,2
	.loc 1 682 0
	stw 31,44(1)
	mr 31,3
	.cfi_offset 31, -4
	.cfi_register 65, 0
	.loc 1 688 0
	lis 3,.LC55@ha
.LVL306:
	.loc 1 682 0
	stw 28,32(1)
	.loc 1 688 0
	la 3,.LC55@l(3)
	mr 6,31
	.loc 1 689 0
	lis 28,progs@ha
	.cfi_offset 28, -16
	.loc 1 682 0
	stw 0,52(1)
	stw 22,8(1)
	stw 23,12(1)
	stw 24,16(1)
	stw 25,20(1)
	stw 26,24(1)
	stw 27,28(1)
	stw 29,36(1)
	stw 30,40(1)
	.loc 1 688 0
	.cfi_offset 30, -8
	.cfi_offset 29, -12
	.cfi_offset 27, -20
	.cfi_offset 26, -24
	.cfi_offset 25, -28
	.cfi_offset 24, -32
	.cfi_offset 23, -36
	.cfi_offset 22, -40
	.cfi_offset 65, 4
	bl fwrite
.LVL307:
	.loc 1 689 0
	lwz 9,progs@l(28)
	lwz 0,20(9)
	cmpwi 7,0,0
	ble- 7,.L219
	lis 27,pr_globaldefs@ha
	.loc 1 703 0
	lis 22,.LC56@ha
	.loc 1 704 0
	lis 25,.LC57@ha
	.loc 1 689 0
	li 30,0
	la 27,pr_globaldefs@l(27)
	la 28,progs@l(28)
	.loc 1 703 0
	la 22,.LC56@l(22)
	.loc 1 702 0
	lis 23,pr_strings@ha
	.loc 1 704 0
	lis 24,pr_globals@ha
	la 25,.LC57@l(25)
	b .L222
.LVL308:
.L220:
	.loc 1 689 0
	lwz 9,0(28)
	lwz 0,20(9)
	cmpw 7,0,30
	ble- 7,.L219
.LVL309:
.L222:
	.loc 1 691 0
	lwz 29,0(27)
	.loc 1 681 0
	slwi 0,30,3
	.loc 1 689 0
	addi 30,30,1
	.loc 1 692 0
	lhzx 26,29,0
	.loc 1 691 0
	add 29,29,0
.LVL310:
	.loc 1 693 0
	andi. 9,26,32768
	beq+ 0,.L220
	.loc 1 695 0
	rlwinm 26,26,0,17,15
.LVL311:
	.loc 1 698 0
	addi 0,26,-1
.LVL312:
	.loc 1 699 0
	cmpwi 6,26,4
	.loc 1 697 0
	cmplwi 7,0,1
	ble- 7,.L221
	.loc 1 699 0
	bne+ 6,.L220
.L221:
.LVL313:
	.loc 1 702 0
	lwz 0,4(29)
	.loc 1 703 0
	mr 4,22
	.loc 1 702 0
	lwz 5,pr_strings@l(23)
	.loc 1 703 0
	mr 3,31
	add 5,5,0
	crxor 6,6,6
	bl fprintf
.LVL314:
	.loc 1 704 0
	lhz 0,2(29)
	lwz 4,pr_globals@l(24)
	mr 3,26
	slwi 0,0,2
	add 4,4,0
	bl PR_UglyValueString
	mr 4,25
	mr 5,3
	mr 3,31
	crxor 6,6,6
	bl fprintf
.LVL315:
	.loc 1 689 0
	lwz 9,0(28)
	lwz 0,20(9)
	cmpw 7,0,30
	bgt+ 7,.L222
.LVL316:
.L219:
	.loc 1 706 0
	lis 3,.LC58@ha
	mr 6,31
	la 3,.LC58@l(3)
	li 4,1
	li 5,2
	bl fwrite
	.loc 1 707 0
	lwz 0,52(1)
	lwz 22,8(1)
	mtlr 0
	lwz 23,12(1)
	lwz 24,16(1)
	lwz 25,20(1)
	lwz 26,24(1)
	lwz 27,28(1)
	lwz 28,32(1)
	lwz 29,36(1)
	lwz 30,40(1)
	lwz 31,44(1)
.LVL317:
	addi 1,1,48
.LCFI87:
	.cfi_def_cfa_offset 0
	.cfi_restore 31
	.cfi_restore 30
	.cfi_restore 29
	.cfi_restore 28
	.cfi_restore 27
	.cfi_restore 26
	.cfi_restore 25
	.cfi_restore 24
	.cfi_restore 23
	.cfi_restore 22
	blr
	.cfi_endproc
.LFE60:
	.size	ED_WriteGlobals, .-ED_WriteGlobals
	.align 2
	.globl ED_Write
	.type	ED_Write, @function
ED_Write:
.LFB55:
	.loc 1 551 0
	.cfi_startproc
.LVL318:
	stwu 1,-64(1)
.LCFI88:
	.cfi_def_cfa_offset 64
	mflr 0
	.loc 1 558 0
	li 5,2
	.loc 1 551 0
	stw 31,60(1)
	mr 31,3
	.cfi_offset 31, -4
	.cfi_register 65, 0
	.loc 1 558 0
	lis 3,.LC55@ha
.LVL319:
	.loc 1 551 0
	stw 30,56(1)
	.loc 1 558 0
	la 3,.LC55@l(3)
	.loc 1 551 0
	mr 30,4
	.cfi_offset 30, -8
	.loc 1 558 0
	mr 6,31
	li 4,1
.LVL320:
	.loc 1 551 0
	stw 0,68(1)
	stw 19,12(1)
	stw 20,16(1)
	stw 21,20(1)
	stw 22,24(1)
	stw 23,28(1)
	stw 24,32(1)
	stw 25,36(1)
	stw 26,40(1)
	stw 27,44(1)
	stw 28,48(1)
	stw 29,52(1)
	.loc 1 558 0
	.cfi_offset 29, -12
	.cfi_offset 28, -16
	.cfi_offset 27, -20
	.cfi_offset 26, -24
	.cfi_offset 25, -28
	.cfi_offset 24, -32
	.cfi_offset 23, -36
	.cfi_offset 22, -40
	.cfi_offset 21, -44
	.cfi_offset 20, -48
	.cfi_offset 19, -52
	.cfi_offset 65, 4
	bl fwrite
	.loc 1 560 0
	lbz 0,0(30)
	cmpwi 7,0,0
	bne- 7,.L227
.LVL321:
	.loc 1 566 0 discriminator 1
	lis 25,progs@ha
	lwz 9,progs@l(25)
	lwz 0,28(9)
	cmpwi 7,0,1
	ble- 7,.L227
	lis 23,pr_fielddefs@ha
	lis 24,pr_strings@ha
	.loc 1 577 0
	lis 22,.LANCHOR1@ha
	.loc 1 583 0
	lis 20,.LC56@ha
	.loc 1 584 0
	lis 21,.LC57@ha
	.loc 1 566 0
	li 29,1
	la 23,pr_fielddefs@l(23)
	la 24,pr_strings@l(24)
	la 25,progs@l(25)
	.loc 1 573 0
	addi 26,30,604
	.loc 1 577 0
	la 22,.LANCHOR1@l(22)
	.loc 1 583 0
	la 20,.LC56@l(20)
	.loc 1 584 0
	la 21,.LC57@l(21)
.LVL322:
.L226:
	.loc 1 568 0
	lwz 28,0(23)
	.loc 1 550 0
	slwi 30,29,3
	.loc 1 569 0
	lwz 19,0(24)
	.loc 1 568 0
	add 27,28,30
.LVL323:
	.loc 1 569 0
	lwz 0,4(27)
	add 19,19,0
.LVL324:
	.loc 1 570 0
	mr 3,19
	bl strlen
	add 3,19,3
	lbz 0,-2(3)
	cmpwi 7,0,95
	beq- 7,.L229
	.loc 1 576 0
	lhzx 9,28,30
	.loc 1 573 0
	lhz 0,2(27)
	.loc 1 577 0
	rlwinm 9,9,2,15,29
	add 9,22,9
	.loc 1 573 0
	slwi 0,0,2
	.loc 1 577 0
	lwz 11,220(9)
	.loc 1 573 0
	add 27,26,0
.LVL325:
	.loc 1 577 0
	cmpwi 7,11,0
	ble- 7,.L230
	.loc 1 578 0
	lwzx 0,26,0
	mr 9,27
	.loc 1 577 0
	mtctr 11
	.loc 1 578 0
	cmpwi 7,0,0
	bne- 7,.L231
.LVL326:
.L232:
	.loc 1 577 0
	bdz .L229
	.loc 1 578 0
	lwzu 0,4(9)
	cmpwi 7,0,0
	beq+ 7,.L232
.L231:
	.loc 1 583 0
	mr 5,19
	mr 4,20
	mr 3,31
	crxor 6,6,6
	bl fprintf
	.loc 1 584 0
	lhzx 3,28,30
	mr 4,27
	bl PR_UglyValueString
	mr 4,21
	mr 5,3
	mr 3,31
	crxor 6,6,6
	bl fprintf
.LVL327:
.L229:
	.loc 1 566 0
	lwz 9,0(25)
	addi 29,29,1
.LVL328:
	lwz 0,28(9)
	cmpw 7,0,29
	bgt+ 7,.L226
.LVL329:
.L227:
	.loc 1 587 0
	lis 3,.LC58@ha
	mr 6,31
	la 3,.LC58@l(3)
	li 4,1
	li 5,2
	bl fwrite
	.loc 1 588 0
	lwz 0,68(1)
	lwz 19,12(1)
	mtlr 0
	lwz 20,16(1)
	lwz 21,20(1)
	lwz 22,24(1)
	lwz 23,28(1)
	lwz 24,32(1)
	lwz 25,36(1)
	lwz 26,40(1)
	lwz 27,44(1)
	lwz 28,48(1)
	lwz 29,52(1)
	lwz 30,56(1)
	lwz 31,60(1)
.LVL330:
	addi 1,1,64
	.cfi_remember_state
.LCFI89:
	.cfi_def_cfa_offset 0
	.cfi_restore 31
	.cfi_restore 30
	.cfi_restore 29
	.cfi_restore 28
	.cfi_restore 27
	.cfi_restore 26
	.cfi_restore 25
	.cfi_restore 24
	.cfi_restore 23
	.cfi_restore 22
	.cfi_restore 21
	.cfi_restore 20
	.cfi_restore 19
	blr
.LVL331:
.L230:
.LCFI90:
	.cfi_restore_state
	.loc 1 580 0
	bne- 7,.L231
	b .L229
	.cfi_endproc
.LFE55:
	.size	ED_Write, .-ED_Write
	.align 2
	.globl PR_ValueString
	.type	PR_ValueString, @function
PR_ValueString:
.LFB50:
	.loc 1 346 0
	.cfi_startproc
.LVL332:
	.loc 1 351 0
	rlwinm 5,3,0,17,15
.LVL333:
	.loc 1 346 0
	mflr 0
	.loc 1 353 0
	cmplwi 7,5,7
	.loc 1 346 0
	stwu 1,-16(1)
.LCFI91:
	.cfi_def_cfa_offset 16
	.cfi_register 65, 0
	stw 0,20(1)
	stw 31,12(1)
	.loc 1 353 0
	ble- 7,.L252
	.cfi_offset 31, -4
	.cfi_offset 65, 4
	.loc 1 382 0
	lis 10,.LANCHOR0@ha
	lis 4,.LC54@ha
.LVL334:
	la 10,.LANCHOR0@l(10)
	la 4,.LC54@l(4)
	addi 31,10,524
	mr 3,31
	crxor 6,6,6
	bl sprintf
.LVL335:
	.loc 1 387 0
	lwz 0,20(1)
	mr 3,31
	lwz 31,12(1)
	mtlr 0
	addi 1,1,16
	.cfi_remember_state
.LCFI92:
	.cfi_def_cfa_offset 0
	.cfi_restore 31
	blr
.LVL336:
.L252:
.LCFI93:
	.cfi_restore_state
	.loc 1 353 0
	lis 9,.L246@ha
	slwi 5,5,2
.LVL337:
	la 9,.L246@l(9)
	lwzx 0,9,5
	add 9,0,9
	mtctr 9
	bctr
	.section	.rodata
	.align 2
	.align 2
.L246:
	.long .L238-.L246
	.long .L239-.L246
	.long .L240-.L246
	.long .L241-.L246
	.long .L242-.L246
	.long .L243-.L246
	.long .L244-.L246
	.long .L245-.L246
	.section	".text"
.L244:
.LVL338:
	.loc 1 362 0
	lwz 9,0(4)
	.loc 1 363 0
	lis 11,pr_functions@ha
	lwz 0,pr_functions@l(11)
	lis 10,.LANCHOR0@ha
	mulli 9,9,36
	lis 11,pr_strings@ha
	la 10,.LANCHOR0@l(10)
	lwz 5,pr_strings@l(11)
	add 9,0,9
	addi 31,10,524
	lwz 0,16(9)
	lis 4,.LC60@ha
.LVL339:
	mr 3,31
	la 4,.LC60@l(4)
	add 5,5,0
	crxor 6,6,6
	bl sprintf
.LVL340:
	.loc 1 387 0
	lwz 0,20(1)
	mr 3,31
	lwz 31,12(1)
	mtlr 0
	addi 1,1,16
	.cfi_remember_state
	.cfi_restore 31
.LCFI94:
	.cfi_def_cfa_offset 0
	blr
.LVL341:
.L245:
.LCFI95:
	.cfi_restore_state
	.loc 1 379 0
	lis 9,.LC64@ha
	lis 10,.LANCHOR0@ha
	la 11,.LC64@l(9)
	la 10,.LANCHOR0@l(10)
	lwz 0,4(11)
	addi 31,10,524
	lwz 9,.LC64@l(9)
	.loc 1 387 0
	mr 3,31
	.loc 1 379 0
	stw 0,4(31)
	stw 9,524(10)
	.loc 1 387 0
	lwz 0,20(1)
	lwz 31,12(1)
	mtlr 0
	addi 1,1,16
	.cfi_remember_state
	.cfi_restore 31
.LCFI96:
	.cfi_def_cfa_offset 0
	blr
.L238:
.LCFI97:
	.cfi_restore_state
	.loc 1 370 0
	lis 9,.LC51@ha
	lis 10,.LANCHOR0@ha
	la 11,.LC51@l(9)
	la 10,.LANCHOR0@l(10)
	lbz 0,4(11)
	addi 31,10,524
	lwz 9,.LC51@l(9)
	.loc 1 387 0
	mr 3,31
	.loc 1 370 0
	stb 0,4(31)
	stw 9,524(10)
	.loc 1 387 0
	lwz 0,20(1)
	lwz 31,12(1)
	mtlr 0
	addi 1,1,16
	.cfi_remember_state
	.cfi_restore 31
.LCFI98:
	.cfi_def_cfa_offset 0
	blr
.L239:
.LCFI99:
	.cfi_restore_state
	.loc 1 356 0
	lis 10,.LANCHOR0@ha
	lis 9,pr_strings@ha
	lwz 0,0(4)
	la 10,.LANCHOR0@l(10)
	lwz 9,pr_strings@l(9)
	addi 31,10,524
	mr 3,31
	add 4,9,0
.LVL342:
	bl strcpy
	.loc 1 387 0
	lwz 0,20(1)
	mr 3,31
	lwz 31,12(1)
	mtlr 0
	addi 1,1,16
	.cfi_remember_state
	.cfi_restore 31
.LCFI100:
	.cfi_def_cfa_offset 0
	blr
.LVL343:
.L240:
.LCFI101:
	.cfi_restore_state
	.loc 1 373 0
	lis 10,.LANCHOR0@ha
	lfs 1,0(4)
	la 10,.LANCHOR0@l(10)
	lis 4,.LC62@ha
.LVL344:
	addi 31,10,524
	la 4,.LC62@l(4)
	mr 3,31
	creqv 6,6,6
	bl sprintf
	.loc 1 387 0
	lwz 0,20(1)
	mr 3,31
	lwz 31,12(1)
	mtlr 0
	addi 1,1,16
	.cfi_remember_state
	.cfi_restore 31
.LCFI102:
	.cfi_def_cfa_offset 0
	blr
.LVL345:
.L241:
.LCFI103:
	.cfi_restore_state
	.loc 1 376 0
	lis 10,.LANCHOR0@ha
	lfs 1,0(4)
	la 10,.LANCHOR0@l(10)
	lfs 2,4(4)
	addi 31,10,524
	lfs 3,8(4)
	lis 4,.LC63@ha
.LVL346:
	mr 3,31
	la 4,.LC63@l(4)
	creqv 6,6,6
	bl sprintf
	.loc 1 387 0
	lwz 0,20(1)
	mr 3,31
	lwz 31,12(1)
	mtlr 0
	addi 1,1,16
	.cfi_remember_state
	.cfi_restore 31
.LCFI104:
	.cfi_def_cfa_offset 0
	blr
.LVL347:
.L242:
.LCFI105:
	.cfi_restore_state
	.loc 1 359 0
	lis 9,sv+3500@ha
	lwz 0,0(4)
	lwz 3,sv+3500@l(9)
	add 3,3,0
	bl NUM_FOR_EDICT
.LVL348:
	lis 10,.LANCHOR0@ha
	la 10,.LANCHOR0@l(10)
	lis 4,.LC59@ha
	addi 31,10,524
	mr 5,3
	la 4,.LC59@l(4)
	mr 3,31
	crxor 6,6,6
	bl sprintf
	.loc 1 387 0
	lwz 0,20(1)
	mr 3,31
	lwz 31,12(1)
	mtlr 0
	addi 1,1,16
	.cfi_remember_state
	.cfi_restore 31
.LCFI106:
	.cfi_def_cfa_offset 0
	blr
.LVL349:
.L243:
.LCFI107:
	.cfi_restore_state
.LBB33:
.LBB34:
	.loc 1 237 0
	lis 9,progs@ha
.LBE34:
.LBE33:
	.loc 1 366 0
	lwz 10,0(4)
.LVL350:
.LBB38:
.LBB35:
	.loc 1 237 0
	lwz 9,progs@l(9)
	.loc 1 243 0
	li 11,0
	.loc 1 237 0
	lwz 0,28(9)
	cmpwi 7,0,0
	ble- 7,.L248
.LVL351:
	.loc 1 239 0
	lis 9,pr_fielddefs@ha
	lwz 11,pr_fielddefs@l(9)
.LVL352:
	.loc 1 240 0
	lhz 9,2(11)
	cmpw 7,10,9
	beq- 7,.L248
.LBE35:
.LBE38:
	.loc 1 237 0
	mtctr 0
.LBB39:
.LBB36:
	.loc 1 345 0
	addi 9,11,8
.LVL353:
.L249:
	.loc 1 237 0
	bdz .L253
	.loc 1 240 0
	lhz 0,2(9)
	.loc 1 239 0
	mr 11,9
.LVL354:
	addi 9,9,8
.LVL355:
	.loc 1 240 0
	cmpw 7,10,0
	bne+ 7,.L249
.LVL356:
.L248:
.LBE36:
.LBE39:
	.loc 1 367 0
	lis 9,pr_strings@ha
	lis 10,.LANCHOR0@ha
	lwz 0,4(11)
	la 10,.LANCHOR0@l(10)
	lwz 5,pr_strings@l(9)
	addi 31,10,524
	lis 4,.LC61@ha
.LVL357:
	mr 3,31
	add 5,5,0
	la 4,.LC61@l(4)
	crxor 6,6,6
	bl sprintf
	.loc 1 387 0
	lwz 0,20(1)
	mr 3,31
	lwz 31,12(1)
	mtlr 0
	addi 1,1,16
	.cfi_remember_state
	.cfi_restore 31
.LCFI108:
	.cfi_def_cfa_offset 0
	blr
.LVL358:
.L253:
.LCFI109:
	.cfi_restore_state
.LBB40:
.LBB37:
	.loc 1 243 0
	li 11,0
.LVL359:
	b .L248
.LBE37:
.LBE40:
	.cfi_endproc
.LFE50:
	.size	PR_ValueString, .-PR_ValueString
	.align 2
	.globl PR_GlobalString
	.type	PR_GlobalString, @function
PR_GlobalString:
.LFB52:
	.loc 1 447 0
	.cfi_startproc
.LVL360:
	mflr 0
	stwu 1,-24(1)
.LCFI110:
	.cfi_def_cfa_offset 24
	.cfi_register 65, 0
.LBB41:
.LBB42:
	.loc 1 218 0
	lis 9,progs@ha
	lwz 9,progs@l(9)
.LBE42:
.LBE41:
	.loc 1 447 0
	stw 0,28(1)
	stw 29,12(1)
	mr 29,3
	.cfi_offset 29, -12
	.cfi_offset 65, 4
.LBB47:
.LBB43:
	.loc 1 218 0
	lwz 0,20(9)
.LBE43:
.LBE47:
	.loc 1 454 0
	lis 9,pr_globals@ha
	.loc 1 447 0
	stw 28,8(1)
.LBB48:
.LBB44:
	.loc 1 218 0
	cmpwi 7,0,0
.LBE44:
.LBE48:
	.loc 1 447 0
	stw 30,16(1)
	stw 31,20(1)
	.loc 1 454 0
	lwz 9,pr_globals@l(9)
.LVL361:
.LBB49:
.LBB45:
	.loc 1 218 0
	ble- 7,.L255
	.cfi_offset 31, -4
	.cfi_offset 30, -8
	.cfi_offset 28, -16
.LVL362:
	.loc 1 220 0
	lis 11,pr_globaldefs@ha
	lwz 30,pr_globaldefs@l(11)
.LVL363:
	.loc 1 221 0
	lhz 11,2(30)
	cmpw 7,3,11
	beq- 7,.L256
	.loc 1 446 0
	addi 11,30,8
.LBE45:
.LBE49:
	.loc 1 218 0
	mtctr 0
	b .L257
.LVL364:
.L258:
.LBB50:
.LBB46:
	.loc 1 221 0
	lhz 0,2(30)
	.loc 1 220 0
	addi 11,11,8
.LVL365:
	.loc 1 221 0
	cmpw 7,29,0
	beq- 7,.L256
.L257:
	.loc 1 220 0
	mr 30,11
.LVL366:
	.loc 1 218 0
	bdnz .L258
.L255:
.LBE46:
.LBE50:
	.loc 1 457 0
	lis 31,.LANCHOR0@ha
	lis 4,.LC9@ha
	la 31,.LANCHOR0@l(31)
	la 4,.LC9@l(4)
	addi 31,31,780
	mr 5,29
	mr 3,31
.LVL367:
	crxor 6,6,6
	bl sprintf
.LVL368:
	b .L260
.LVL369:
.L256:
	.loc 1 456 0
	cmpwi 7,30,0
	beq- 7,.L255
	.loc 1 454 0
	slwi 4,29,2
	.loc 1 460 0
	lhz 3,0(30)
	add 4,9,4
	.loc 1 461 0
	lis 31,.LANCHOR0@ha
	.loc 1 460 0
	bl PR_ValueString
.LVL370:
	.loc 1 461 0
	lis 9,pr_strings@ha
	la 31,.LANCHOR0@l(31)
	lwz 6,pr_strings@l(9)
	lwz 0,4(30)
	addi 31,31,780
	lis 4,.LC65@ha
	.loc 1 460 0
	mr 7,3
.LVL371:
	.loc 1 461 0
	la 4,.LC65@l(4)
	mr 3,31
.LVL372:
	mr 5,29
	add 6,6,0
	crxor 6,6,6
	bl sprintf
.LVL373:
.L260:
	.loc 1 464 0
	mr 3,31
	bl strlen
	.loc 1 465 0
	cmpwi 7,3,19
	.loc 1 464 0
	mr 0,3
	mr 30,3
.LVL374:
	.loc 1 465 0
	bgt- 7,.L261
	.loc 1 466 0 discriminator 2
	mr 29,31
.LVL375:
	li 28,8192
	b .L264
.LVL376:
.L265:
	.loc 1 446 0
	bl strlen
	mr 0,3
.L264:
.LVL377:
	.loc 1 465 0 discriminator 2
	cmpwi 7,30,19
	.loc 1 446 0 discriminator 2
	mr 3,29
	.loc 1 466 0 discriminator 2
	sthx 28,31,0
	.loc 1 465 0 discriminator 2
	addi 30,30,1
.LVL378:
	bne+ 7,.L265
	.loc 1 446 0
	mr 3,29
	bl strlen
	mr 0,3
.L261:
	.loc 1 467 0
	li 9,8192
	.loc 1 470 0
	mr 3,31
	.loc 1 467 0
	sthx 9,31,0
	.loc 1 470 0
	lwz 0,28(1)
	lwz 28,8(1)
	mtlr 0
	lwz 29,12(1)
	lwz 30,16(1)
.LVL379:
	lwz 31,20(1)
	addi 1,1,24
.LCFI111:
	.cfi_def_cfa_offset 0
	.cfi_restore 31
	.cfi_restore 30
	.cfi_restore 29
	.cfi_restore 28
	blr
	.cfi_endproc
.LFE52:
	.size	PR_GlobalString, .-PR_GlobalString
	.align 2
	.globl ED_Print
	.type	ED_Print, @function
ED_Print:
.LFB54:
	.loc 1 501 0
	.cfi_startproc
.LVL380:
	mflr 0
	stwu 1,-64(1)
.LCFI112:
	.cfi_def_cfa_offset 64
	.cfi_register 65, 0
	stw 25,36(1)
	mr 25,3
	.cfi_offset 25, -28
	stw 0,68(1)
	stw 19,12(1)
	.loc 1 509 0
	lbz 0,0(3)
	.cfi_offset 19, -52
	.cfi_offset 65, 4
	.loc 1 501 0
	stw 20,16(1)
	.loc 1 509 0
	cmpwi 7,0,0
	.loc 1 501 0
	stw 21,20(1)
	stw 22,24(1)
	stw 23,28(1)
	stw 24,32(1)
	stw 26,40(1)
	stw 27,44(1)
	stw 28,48(1)
	stw 29,52(1)
	stw 30,56(1)
	stw 31,60(1)
	.loc 1 509 0
	bne- 7,.L279
	.cfi_offset 31, -4
	.cfi_offset 30, -8
	.cfi_offset 29, -12
	.cfi_offset 28, -16
	.cfi_offset 27, -20
	.cfi_offset 26, -24
	.cfi_offset 24, -32
	.cfi_offset 23, -36
	.cfi_offset 22, -40
	.cfi_offset 21, -44
	.cfi_offset 20, -48
.LVL381:
.LBB53:
.LBB54:
	.loc 1 515 0
	bl NUM_FOR_EDICT
.LVL382:
	.loc 1 516 0
	lis 24,progs@ha
	.loc 1 515 0
	mr 4,3
	lis 3,.LC67@ha
	la 3,.LC67@l(3)
	crxor 6,6,6
	bl Con_Printf
.LVL383:
	.loc 1 516 0
	lwz 9,progs@l(24)
	lwz 0,28(9)
	cmpwi 7,0,1
	ble- 7,.L266
	lis 22,pr_fielddefs@ha
	lis 23,pr_strings@ha
	.loc 1 528 0
	lis 21,.LANCHOR1@ha
	.loc 1 534 0
	lis 19,.LC68@ha
	.loc 1 539 0
	lis 20,.LC70@ha
	lis 30,.LC69@ha
	.loc 1 516 0
	li 31,1
	la 22,pr_fielddefs@l(22)
	la 23,pr_strings@l(23)
	la 24,progs@l(24)
	.loc 1 523 0
	addi 25,25,604
.LVL384:
	.loc 1 528 0
	la 21,.LANCHOR1@l(21)
	.loc 1 534 0
	la 19,.LC68@l(19)
	.loc 1 539 0
	la 20,.LC70@l(20)
	la 30,.LC69@l(30)
.LVL385:
.L276:
	.loc 1 518 0
	lwz 27,0(22)
	.loc 1 500 0
	slwi 28,31,3
	.loc 1 519 0
	lwz 29,0(23)
	.loc 1 518 0
	add 26,27,28
.LVL386:
	.loc 1 519 0
	lwz 0,4(26)
	add 29,29,0
.LVL387:
	.loc 1 520 0
	mr 3,29
	bl strlen
	add 3,29,3
	lbz 0,-2(3)
	cmpwi 7,0,95
	beq- 7,.L269
	.loc 1 526 0
	lhzx 9,27,28
	.loc 1 523 0
	lhz 0,2(26)
	.loc 1 528 0
	rlwinm 9,9,2,15,29
	add 9,21,9
	.loc 1 523 0
	slwi 0,0,2
	.loc 1 528 0
	lwz 11,220(9)
	.loc 1 523 0
	add 26,25,0
.LVL388:
	.loc 1 528 0
	cmpwi 7,11,0
	ble- 7,.L270
	.loc 1 529 0
	lwzx 0,25,0
	mr 9,26
	.loc 1 528 0
	mtctr 11
	.loc 1 529 0
	cmpwi 7,0,0
	bne- 7,.L271
.LVL389:
.L272:
	.loc 1 528 0
	bdz .L269
	.loc 1 529 0
	lwzu 0,4(9)
	cmpwi 7,0,0
	beq+ 7,.L272
.L271:
	.loc 1 534 0
	mr 4,29
	mr 3,19
	crxor 6,6,6
	bl Con_Printf
	.loc 1 535 0
	mr 3,29
	bl strlen
.LVL390:
	.loc 1 536 0
	cmpwi 7,3,14
	bgt- 7,.L274
	addi 29,3,1
.LVL391:
.L275:
	.loc 1 537 0
	mr 3,30
	crxor 6,6,6
	bl Con_Printf
.LVL392:
	.loc 1 536 0
	cmpwi 7,29,15
	addi 29,29,1
.LVL393:
	bne+ 7,.L275
.LVL394:
.L274:
	.loc 1 539 0
	lhzx 3,27,28
	mr 4,26
	bl PR_ValueString
	mr 4,3
	mr 3,20
	crxor 6,6,6
	bl Con_Printf
.LVL395:
.L269:
	.loc 1 516 0
	lwz 9,0(24)
	addi 31,31,1
.LVL396:
	lwz 0,28(9)
	cmpw 7,31,0
	blt+ 7,.L276
.LVL397:
.L266:
.LBE54:
.LBE53:
	.loc 1 541 0
	lwz 0,68(1)
	lwz 19,12(1)
	mtlr 0
	lwz 20,16(1)
	lwz 21,20(1)
	lwz 22,24(1)
	lwz 23,28(1)
	lwz 24,32(1)
	lwz 25,36(1)
	lwz 26,40(1)
	lwz 27,44(1)
	lwz 28,48(1)
	lwz 29,52(1)
	lwz 30,56(1)
	lwz 31,60(1)
	addi 1,1,64
	.cfi_remember_state
.LCFI113:
	.cfi_def_cfa_offset 0
	.cfi_restore 31
	.cfi_restore 30
	.cfi_restore 29
	.cfi_restore 28
	.cfi_restore 27
	.cfi_restore 26
	.cfi_restore 25
	.cfi_restore 24
	.cfi_restore 23
	.cfi_restore 22
	.cfi_restore 21
	.cfi_restore 20
	.cfi_restore 19
	blr
.LVL398:
.L279:
.LCFI114:
	.cfi_restore_state
	.loc 1 511 0
	lis 3,.LC66@ha
.LVL399:
	la 3,.LC66@l(3)
	crxor 6,6,6
	bl Con_Printf
	.loc 1 512 0
	b .L266
.LVL400:
.L270:
.LBB56:
.LBB55:
	.loc 1 531 0
	bne- 7,.L271
	b .L269
.LBE55:
.LBE56:
	.cfi_endproc
.LFE54:
	.size	ED_Print, .-ED_Print
	.align 2
	.globl ED_LoadFromFile
	.type	ED_LoadFromFile, @function
ED_LoadFromFile:
.LFB65:
	.loc 1 971 0
	.cfi_startproc
.LVL401:
	stwu 1,-80(1)
.LCFI115:
	.cfi_def_cfa_offset 80
	mflr 0
	stw 23,44(1)
	.loc 1 978 0
	lis 23,sv@ha
	.cfi_offset 23, -36
	.cfi_register 65, 0
	la 23,sv@l(23)
	.loc 1 971 0
	stw 24,48(1)
	.loc 1 978 0
	lfd 0,8(23)
	lis 24,pr_global_struct@ha
	.cfi_offset 24, -32
	lwz 9,pr_global_struct@l(24)
	frsp 0,0
	.loc 1 971 0
	stw 19,28(1)
	stw 20,32(1)
	.loc 1 1038 0
	lis 19,.LC74@ha
	.cfi_offset 20, -48
	.cfi_offset 19, -52
	.loc 1 971 0
	stw 21,36(1)
	.loc 1 1008 0
	lis 20,.LC72@ha
	.loc 1 971 0
	stw 22,40(1)
	.loc 1 1003 0
	lis 21,.LC31@ha
	.cfi_offset 22, -40
	.cfi_offset 21, -44
	.loc 1 971 0
	stw 25,52(1)
	.loc 1 1025 0
	lis 22,.LC73@ha
	.loc 1 971 0
	stw 27,60(1)
	.loc 1 989 0
	lis 25,.LC71@ha
	.cfi_offset 27, -20
	.cfi_offset 25, -28
	.loc 1 971 0
	stw 28,64(1)
	.loc 1 977 0
	li 27,0
	.loc 1 971 0
	stw 29,68(1)
	.loc 1 988 0
	lis 29,com_token@ha
	.cfi_offset 29, -12
	.cfi_offset 28, -16
	.loc 1 971 0
	stw 30,72(1)
	.loc 1 988 0
	la 29,com_token@l(29)
	.loc 1 971 0
	stw 31,76(1)
	mr 30,3
	.cfi_offset 31, -4
	.cfi_offset 30, -8
	stw 0,84(1)
	.loc 1 976 0
	li 31,0
	.loc 1 971 0
	stw 26,56(1)
	.loc 1 989 0
	la 25,.LC71@l(25)
	.loc 1 978 0
	stfs 0,124(9)
	.loc 1 998 0
	lis 28,deathmatch@ha
	.loc 1 1038 0
	la 19,.LC74@l(19)
	.loc 1 1025 0
	la 22,.LC73@l(22)
	.loc 1 1003 0
	la 21,.LC31@l(21)
	.loc 1 1008 0
	la 20,.LC72@l(20)
.LVL402:
.L295:
	.loc 1 985 0
	mr 3,30
	.cfi_offset 26, -24
	.cfi_offset 65, 4
	bl COM_Parse
.LVL403:
	.loc 1 986 0
	mr. 30,3
	beq- 0,.L282
.L299:
	.loc 1 988 0
	lbz 0,0(29)
	cmpwi 7,0,123
	beq- 7,.L283
	.loc 1 989 0
	mr 3,25
.LVL404:
	mr 4,29
	crxor 6,6,6
	bl Sys_Error
.L283:
	.loc 1 991 0
	cmpwi 7,31,0
	beq- 7,.L297
	.loc 1 994 0
	bl ED_Alloc
	mr 31,3
.LVL405:
.L285:
	.loc 1 995 0
	mr 3,30
.LVL406:
	mr 4,31
	bl ED_ParseEdict
	.loc 1 998 0
	la 9,deathmatch@l(28)
	lfs 13,12(9)
	lis 9,.LC44@ha
	lfs 0,.LC44@l(9)
	.loc 1 995 0
	mr 30,3
.LVL407:
	.loc 1 998 0
	fcmpu 7,13,0
	beq- 7,.L286
	.loc 1 1000 0
	lfs 0,960(31)
	addi 9,1,20
	fctiwz 0,0
	stfiwx 0,0,9
	lwz 0,20(1)
	andi. 9,0,2048
	beq- 0,.L287
	.loc 1 1003 0
	lis 9,pr_strings@ha
	lwz 0,716(31)
	lwz 26,pr_strings@l(9)
	mr 4,21
	add 26,26,0
	mr 3,26
.LVL408:
	bl strcmp
	cmpwi 7,3,0
	beq- 7,.L288
	.loc 1 1004 0 discriminator 1
	lis 4,.LC6@ha
	mr 3,26
	la 4,.LC6@l(4)
	bl strcmp
	.loc 1 1003 0 discriminator 1
	cmpwi 7,3,0
	bne- 7,.L291
.L288:
	.loc 1 1008 0
	mr 3,20
	crxor 6,6,6
	bl Con_Printf
.L287:
	.loc 1 1023 0
	lwz 0,716(31)
	.loc 1 1025 0
	mr 3,22
	.loc 1 1023 0
	cmpwi 7,0,0
	beq- 7,.L296
	.loc 1 1034 0
	lis 9,pr_strings@ha
	lwz 3,pr_strings@l(9)
	add 3,3,0
	bl ED_FindFunction
.LVL409:
	.loc 1 1036 0
	cmpwi 0,3,0
	beq- 0,.L298
	.loc 1 1045 0
	lis 9,pr_functions@ha
	lis 11,0x38e3
	lwz 0,pr_functions@l(9)
	ori 11,11,36409
	.loc 1 1044 0
	lwz 9,pr_global_struct@l(24)
	.loc 1 1045 0
	subf 3,0,3
.LVL410:
	.loc 1 1044 0
	lwz 0,3500(23)
	.loc 1 1045 0
	srawi 3,3,2
	mullw 3,3,11
	.loc 1 1044 0
	subf 0,0,31
	stw 0,112(9)
	.loc 1 1045 0
	bl PR_ExecuteProgram
	.loc 1 985 0
	mr 3,30
	bl COM_Parse
.LVL411:
	.loc 1 986 0
	mr. 30,3
	bne+ 0,.L299
.L282:
	.loc 1 1048 0
	lis 3,.LC75@ha
.LVL412:
	mr 4,27
	la 3,.LC75@l(3)
	crxor 6,6,6
	bl Con_DPrintf
	.loc 1 1049 0
	lwz 0,84(1)
	lwz 19,28(1)
	mtlr 0
	lwz 20,32(1)
	lwz 21,36(1)
	lwz 22,40(1)
	lwz 23,44(1)
	lwz 24,48(1)
	lwz 25,52(1)
	lwz 26,56(1)
	lwz 27,60(1)
.LVL413:
	lwz 28,64(1)
	lwz 29,68(1)
	lwz 30,72(1)
.LVL414:
	lwz 31,76(1)
.LVL415:
	addi 1,1,80
	.cfi_remember_state
.LCFI116:
	.cfi_def_cfa_offset 0
	.cfi_restore 31
	.cfi_restore 30
	.cfi_restore 29
	.cfi_restore 28
	.cfi_restore 27
	.cfi_restore 26
	.cfi_restore 25
	.cfi_restore 24
	.cfi_restore 23
	.cfi_restore 22
	.cfi_restore 21
	.cfi_restore 20
	.cfi_restore 19
	blr
.LVL416:
.L286:
.LCFI117:
	.cfi_restore_state
	.loc 1 1011 0
	lis 9,current_skill@ha
	lwz 0,current_skill@l(9)
	cmpwi 7,0,0
	bne- 7,.L290
	.loc 1 1011 0 is_stmt 0 discriminator 1
	lfs 0,960(31)
	addi 9,1,16
	fctiwz 0,0
	stfiwx 0,0,9
	lwz 0,16(1)
	andi. 9,0,256
	beq- 0,.L287
.LVL417:
.L291:
	.loc 1 1015 0 is_stmt 1
	mr 3,31
	.loc 1 1016 0
	addi 27,27,1
.LVL418:
	.loc 1 1015 0
	bl ED_Free
.LVL419:
	.loc 1 1017 0
	b .L295
.LVL420:
.L298:
	.loc 1 1038 0
	mr 3,19
.LVL421:
.L296:
	crxor 6,6,6
	bl Con_Printf
	.loc 1 1039 0
	mr 3,31
	bl ED_Print
	.loc 1 1040 0
	mr 3,31
	bl ED_Free
	.loc 1 1041 0
	b .L295
.L290:
	.loc 1 1012 0
	cmpwi 7,0,1
	beq- 7,.L300
	.loc 1 1013 0
	ble- 7,.L287
	.loc 1 1013 0 is_stmt 0 discriminator 1
	lfs 0,960(31)
	addi 9,1,8
	fctiwz 0,0
	stfiwx 0,0,9
	lwz 0,8(1)
	andi. 9,0,1024
	beq- 0,.L287
	b .L291
.L297:
	.loc 1 992 0 is_stmt 1
	li 3,0
	bl EDICT_NUM
	mr 31,3
.LVL422:
	b .L285
.LVL423:
.L300:
	.loc 1 1012 0 discriminator 1
	lfs 0,960(31)
	addi 9,1,12
	fctiwz 0,0
	stfiwx 0,0,9
	lwz 0,12(1)
	andi. 9,0,512
	bne- 0,.L291
	b .L287
	.cfi_endproc
.LFE65:
	.size	ED_LoadFromFile, .-ED_LoadFromFile
	.align 2
	.globl ED_PrintNum
	.type	ED_PrintNum, @function
ED_PrintNum:
.LFB56:
	.loc 1 591 0
	.cfi_startproc
.LVL424:
	mflr 0
	stwu 1,-8(1)
.LCFI118:
	.cfi_def_cfa_offset 8
	.cfi_register 65, 0
	stw 0,12(1)
	.loc 1 592 0
	.cfi_offset 65, 4
	bl EDICT_NUM
.LVL425:
	.loc 1 593 0
	lwz 0,12(1)
	addi 1,1,8
.LCFI119:
	.cfi_def_cfa_offset 0
	mtlr 0
	.loc 1 592 0
	b ED_Print
	.cfi_endproc
.LFE56:
	.size	ED_PrintNum, .-ED_PrintNum
	.align 2
	.globl ED_PrintEdict_f
	.type	ED_PrintEdict_f, @function
ED_PrintEdict_f:
.LFB58:
	.loc 1 619 0
	.cfi_startproc
	mflr 0
	stwu 1,-8(1)
.LCFI120:
	.cfi_def_cfa_offset 8
	.cfi_register 65, 0
	.loc 1 622 0
	li 3,1
	.loc 1 619 0
	stw 0,12(1)
	.loc 1 622 0
	.cfi_offset 65, 4
	bl Cmd_Argv
	bl Q_atoi
.LVL426:
	.loc 1 623 0
	lis 9,sv+3492@ha
	lwz 0,sv+3492@l(9)
	cmpw 7,3,0
	bge- 7,.L305
	.loc 1 629 0
	lwz 0,12(1)
	addi 1,1,8
	.cfi_remember_state
.LCFI121:
	.cfi_def_cfa_offset 0
	mtlr 0
	.loc 1 628 0
	b ED_PrintNum
.LVL427:
.L305:
.LCFI122:
	.cfi_restore_state
	.loc 1 625 0
	lis 3,.LC76@ha
.LVL428:
	la 3,.LC76@l(3)
	crxor 6,6,6
	bl Con_Printf
	.loc 1 629 0
	lwz 0,12(1)
	addi 1,1,8
.LCFI123:
	.cfi_def_cfa_offset 0
	mtlr 0
	blr
	.cfi_endproc
.LFE58:
	.size	ED_PrintEdict_f, .-ED_PrintEdict_f
	.align 2
	.globl ED_PrintEdicts
	.type	ED_PrintEdicts, @function
ED_PrintEdicts:
.LFB57:
	.loc 1 603 0
	.cfi_startproc
	mflr 0
	stwu 1,-16(1)
.LCFI124:
	.cfi_def_cfa_offset 16
	.cfi_register 65, 0
	.loc 1 606 0
	lis 3,.LC77@ha
	.loc 1 603 0
	stw 31,12(1)
	.loc 1 606 0
	lis 31,sv@ha
	.cfi_offset 31, -4
	.loc 1 603 0
	stw 0,20(1)
	.loc 1 606 0
	la 31,sv@l(31)
	la 3,.LC77@l(3)
	.loc 1 603 0
	stw 30,8(1)
	.loc 1 606 0
	lwz 4,3492(31)
	.cfi_offset 30, -8
	.cfi_offset 65, 4
	crxor 6,6,6
	bl Con_Printf
.LVL429:
	.loc 1 607 0
	lwz 0,3492(31)
	cmpwi 7,0,0
	ble- 7,.L306
	li 30,0
.LVL430:
.L308:
	.loc 1 608 0 discriminator 2
	mr 3,30
	.loc 1 607 0 discriminator 2
	addi 30,30,1
	.loc 1 608 0 discriminator 2
	bl ED_PrintNum
.LVL431:
	.loc 1 607 0 discriminator 2
	lwz 0,3492(31)
	cmpw 7,0,30
	bgt+ 7,.L308
.LVL432:
.L306:
	.loc 1 609 0
	lwz 0,20(1)
	lwz 30,8(1)
	mtlr 0
	lwz 31,12(1)
	addi 1,1,16
.LCFI125:
	.cfi_def_cfa_offset 0
	.cfi_restore 31
	.cfi_restore 30
	blr
	.cfi_endproc
.LFE57:
	.size	ED_PrintEdicts, .-ED_PrintEdicts
	.comm	eval_style,4,4
	.comm	eval_light_lev,4,4
	.comm	eval_pflags,4,4
	.comm	eval_alpha,4,4
	.comm	eval_color,4,4
	.globl saved4
	.globl saved3
	.globl saved2
	.globl saved1
	.globl savedgamecfg
	.globl scratch4
	.globl scratch3
	.globl scratch2
	.globl scratch1
	.globl gamecfg
	.globl nomonsters
	.globl type_size
	.comm	pr_crc,2,2
	.comm	pr_edict_size,4,4
	.comm	pr_globals,4,4
	.comm	pr_global_struct,4,4
	.comm	pr_statements,4,4
	.comm	pr_globaldefs,4,4
	.comm	pr_fielddefs,4,4
	.comm	pr_strings,4,4
	.comm	pr_functions,4,4
	.comm	progs,4,4
	.comm	causticschain,4,4
	.section	.rodata.cst4,"aM",@progbits,4
	.align 2
.LC0:
	.4byte	-1082130432
.LC38:
	.4byte	1082130432
.LC44:
	.4byte	0
.LC45:
	.4byte	1073741824
.LC47:
	.4byte	1056964608
	.section	".data"
	.align 2
	.set	.LANCHOR1,. + 0
	.type	nomonsters, @object
	.size	nomonsters, 20
nomonsters:
	.long	.LC89
	.long	.LC79
	.zero	12
	.type	gamecfg, @object
	.size	gamecfg, 20
gamecfg:
	.long	.LC88
	.long	.LC79
	.zero	12
	.type	scratch1, @object
	.size	scratch1, 20
scratch1:
	.long	.LC87
	.long	.LC79
	.zero	12
	.type	scratch2, @object
	.size	scratch2, 20
scratch2:
	.long	.LC86
	.long	.LC79
	.zero	12
	.type	scratch3, @object
	.size	scratch3, 20
scratch3:
	.long	.LC85
	.long	.LC79
	.zero	12
	.type	scratch4, @object
	.size	scratch4, 20
scratch4:
	.long	.LC84
	.long	.LC79
	.zero	12
	.type	savedgamecfg, @object
	.size	savedgamecfg, 20
savedgamecfg:
	.long	.LC83
	.long	.LC79
	.byte	1
	.zero	11
	.type	saved1, @object
	.size	saved1, 20
saved1:
	.long	.LC82
	.long	.LC79
	.byte	1
	.zero	11
	.type	saved2, @object
	.size	saved2, 20
saved2:
	.long	.LC81
	.long	.LC79
	.byte	1
	.zero	11
	.type	saved3, @object
	.size	saved3, 20
saved3:
	.long	.LC80
	.long	.LC79
	.byte	1
	.zero	11
	.type	saved4, @object
	.size	saved4, 20
saved4:
	.long	.LC78
	.long	.LC79
	.byte	1
	.zero	11
	.type	type_size, @object
	.size	type_size, 32
type_size:
	.long	1
	.long	1
	.long	1
	.long	3
	.long	1
	.long	1
	.long	1
	.long	1
	.section	.rodata.str1.4,"aMS",@progbits,1
	.align 2
.LC1:
	.string	"Field %s not found\n"
.LC2:
	.string	"Field %s at %i\n"
.LC3:
	.string	"color"
	.zero	2
.LC4:
	.string	"alpha"
	.zero	2
.LC5:
	.string	"pflags"
	.zero	1
.LC6:
	.string	"light_lev"
	.zero	2
.LC7:
	.string	"style"
	.zero	2
.LC8:
	.string	"Field %s  at %i\n"
	.zero	3
.LC9:
	.string	"%i(???)"
.LC10:
	.string	"%i(%s)"
	.zero	1
.LC11:
	.string	"progs.dat"
	.zero	2
.LC12:
	.string	"PR_LoadProgs: couldn't load progs.dat"
	.zero	2
.LC13:
	.string	"Programs occupy %iK.\n"
	.zero	2
.LC14:
	.string	"progs.dat has wrong version number (%i should be %i)"
	.zero	3
.LC15:
	.string	"progs.dat system vars have been modified, progdefs.h is out of date\n Tenebrae only works with Quake1 and tenebrae mods not other engine mods."
	.zero	2
.LC16:
	.string	"\n\035\036\036\036\036\036\036\036\036\036\036\036\036\036\036\036\036\036\036\036\036\036\036\036\036\036\036\036\036\036\036\036\036\036\036\036\037\n"
.LC17:
	.string	"You are using an unmodified quake1 mod.\n"
	.zero	3
.LC18:
	.string	"Some features may not be available (e.g. the flashlight)\n"
	.zero	2
.LC19:
	.string	"\035\036\036\036\036\036\036\036\036\036\036\036\036\036\036\036\036\036\036\036\036\036\036\036\036\036\036\036\036\036\036\036\036\036\036\036\037\n\n"
.LC20:
	.string	"PR_LoadProgs: pr_fielddefs[i].type & DEF_SAVEGLOBAL"
.LC21:
	.string	"edict"
	.zero	2
.LC22:
	.string	"edicts"
	.zero	1
.LC23:
	.string	"edictcount"
	.zero	1
.LC24:
	.string	"profile"
.LC25:
	.string	"EDICT_NUM: bad number %i"
	.zero	3
.LC26:
	.string	"Can't find field %s\n"
	.zero	3
.LC27:
	.string	"Can't find function %s\n"
.LC28:
	.string	"ED_ParseEntity: EOF without closing brace"
	.zero	2
.LC29:
	.string	"angle"
	.zero	2
.LC30:
	.string	"angles"
	.zero	1
.LC31:
	.string	"light"
	.zero	2
.LC32:
	.string	"ED_ParseEntity: closing brace without data"
	.zero	1
.LC33:
	.string	"'%s' is not a field\n"
	.zero	3
.LC34:
	.string	"0 %s 0"
	.zero	1
.LC35:
	.string	"ED_ParseEdict: parse error"
	.zero	1
.LC36:
	.string	"'%s' is not a global\n"
	.zero	2
.LC37:
	.string	"ED_ParseGlobals: parse error"
	.zero	3
.LC39:
	.string	"num_edicts:%3i\n"
.LC40:
	.string	"active    :%3i\n"
.LC41:
	.string	"view      :%3i\n"
.LC42:
	.string	"touch     :%3i\n"
.LC43:
	.string	"step      :%3i\n"
.LC48:
	.string	"ED_Alloc: no free edicts"
	.zero	3
.LC49:
	.string	"NUM_FOR_EDICT: bad pointer"
	.zero	1
.LC50:
	.string	"%i"
	.zero	1
.LC51:
	.string	"void"
	.zero	3
.LC52:
	.string	"%f"
	.zero	1
.LC53:
	.string	"%f %f %f"
	.zero	3
.LC54:
	.string	"bad type %i"
.LC55:
	.string	"{\n"
	.zero	1
.LC56:
	.string	"\"%s\" "
	.zero	2
.LC57:
	.string	"\"%s\"\n"
	.zero	2
.LC58:
	.string	"}\n"
	.zero	1
.LC59:
	.string	"entity %i"
	.zero	2
.LC60:
	.string	"%s()"
	.zero	3
.LC61:
	.string	".%s"
.LC62:
	.string	"%5.1f"
	.zero	2
.LC63:
	.string	"'%5.1f %5.1f %5.1f'"
.LC64:
	.string	"pointer"
.LC65:
	.string	"%i(%s)%s"
	.zero	3
.LC66:
	.string	"FREE\n"
	.zero	2
.LC67:
	.string	"\nEDICT %i:\n"
.LC68:
	.string	"%s"
	.zero	1
.LC69:
	.string	" "
	.zero	2
.LC70:
	.string	"%s\n"
.LC71:
	.string	"ED_LoadFromFile: found %s when expecting {"
	.zero	1
.LC72:
	.string	"kept light"
	.zero	1
.LC73:
	.string	"No classname for:\n"
	.zero	1
.LC74:
	.string	"No spawn function for:\n"
.LC75:
	.string	"%i entities inhibited\n"
	.zero	1
.LC76:
	.string	"Bad edict number\n"
	.zero	2
.LC77:
	.string	"%i entities\n"
	.zero	3
.LC78:
	.string	"saved4"
	.zero	1
.LC79:
	.string	"0"
	.zero	2
.LC80:
	.string	"saved3"
	.zero	1
.LC81:
	.string	"saved2"
	.zero	1
.LC82:
	.string	"saved1"
	.zero	1
.LC83:
	.string	"savedgamecfg"
	.zero	3
.LC84:
	.string	"scratch4"
	.zero	3
.LC85:
	.string	"scratch3"
	.zero	3
.LC86:
	.string	"scratch2"
	.zero	3
.LC87:
	.string	"scratch1"
	.zero	3
.LC88:
	.string	"gamecfg"
.LC89:
	.string	"nomonsters"
	.section	".bss"
	.align 2
	.set	.LANCHOR0,. + 0
	.type	gefvCache, @object
	.size	gefvCache, 136
gefvCache:
	.zero	136
	.type	rep.15026, @object
	.size	rep.15026, 4
rep.15026:
	.zero	4
	.type	line.15080, @object
	.size	line.15080, 128
line.15080:
	.zero	128
	.type	line.15052, @object
	.size	line.15052, 256
line.15052:
	.zero	256
	.type	line.15035, @object
	.size	line.15035, 256
line.15035:
	.zero	256
	.type	line.15071, @object
	.size	line.15071, 128
line.15071:
	.zero	128
	.section	".text"
.Letext0:
	.file 2 "c:\\utils\\devkitpro\\devkitppc\\bin\\../lib/gcc/powerpc-eabi/4.6.3/../../../../powerpc-eabi/include/machine/_types.h"
	.file 3 "c:\\utils\\devkitpro\\devkitppc\\bin\\../lib/gcc/powerpc-eabi/4.6.3/../../../../powerpc-eabi/include/sys/lock.h"
	.file 4 "c:\\utils\\devkitpro\\devkitppc\\bin\\../lib/gcc/powerpc-eabi/4.6.3/include/stddef.h"
	.file 5 "c:\\utils\\devkitpro\\devkitppc\\bin\\../lib/gcc/powerpc-eabi/4.6.3/../../../../powerpc-eabi/include/sys/_types.h"
	.file 6 "c:\\utils\\devkitpro\\devkitppc\\bin\\../lib/gcc/powerpc-eabi/4.6.3/../../../../powerpc-eabi/include/sys/reent.h"
	.file 7 "c:\\utils\\devkitpro\\devkitppc\\bin\\../lib/gcc/powerpc-eabi/4.6.3/../../../../powerpc-eabi/include/stdio.h"
	.file 8 "d:/Data/Nintendo/TenebraeGX/src/common.h"
	.file 9 "d:/Data/Nintendo/TenebraeGX/src/bspfile.h"
	.file 10 "d:/Data/Nintendo/TenebraeGX/src/zone.h"
	.file 11 "d:/Data/Nintendo/TenebraeGX/src/mathlib.h"
	.file 12 "d:/Data/Nintendo/TenebraeGX/src/quakedef.h"
	.file 13 "d:/Data/Nintendo/TenebraeGX/src/cvar.h"
	.file 14 "d:/Data/Nintendo/TenebraeGX/src/net.h"
	.file 15 "d:/Data/Nintendo/TenebraeGX/src/render.h"
	.file 16 "d:/Data/Nintendo/TenebraeGX/src/gl_model.h"
	.file 17 "d:/Data/Nintendo/TenebraeGX/src/glquake.h"
	.file 18 "d:/Data/Nintendo/TenebraeGX/src/client.h"
	.file 19 "d:/Data/Nintendo/TenebraeGX/src/pr_comp.h"
	.file 20 "d:/Data/Nintendo/TenebraeGX/src/progdefs.h"
	.file 21 "d:/Data/Nintendo/TenebraeGX/src/progs.h"
	.file 22 "d:/Data/Nintendo/TenebraeGX/src/server.h"
	.file 23 "d:/Data/Nintendo/TenebraeGX/src/modelgen.h"
	.file 24 "d:/Data/Nintendo/TenebraeGX/src/world.h"
	.file 25 "c:/utils/devkitPro/libogc/include/ogc/gx.h"