	.file	"r_part.c"
	.section	".text"
.Ltext0:
	.cfi_sections	.debug_frame
	.align 2
	.globl DefaultEffect
	.type	DefaultEffect, @function
DefaultEffect:
.LFB38:
	.file 1 "d:/Data/Nintendo/TenebraeGX/src/r_part.c"
	.loc 1 69 0
	.cfi_startproc
.LVL0:
	.loc 1 73 0
	lis 11,.LC0@ha
	la 9,.LC0@l(11)
	lwz 10,.LC0@l(11)
	lbz 0,6(9)
	lhz 11,4(9)
	.loc 1 75 0
	lis 9,.LC1@ha
	lwz 6,.LC1@l(9)
	.loc 1 76 0
	lis 9,.LC2@ha
	lwz 7,.LC2@l(9)
	.loc 1 77 0
	lis 9,.LC3@ha
	.loc 1 73 0
	stw 10,0(3)
	.loc 1 81 0
	li 10,0
	.loc 1 73 0
	sth 11,4(3)
	li 11,3
	stb 0,6(3)
.LVL1:
	.loc 1 77 0
	lwz 0,.LC3@l(9)
	.loc 1 73 0
	mr 9,3
.LVL2:
.L2:
	.loc 1 74 0 discriminator 2
	addic. 11,11,-1
	.loc 1 75 0 discriminator 2
	stw 6,64(9)
	.loc 1 76 0 discriminator 2
	stw 7,76(9)
	.loc 1 81 0 discriminator 2
	li 8,0
	.loc 1 77 0 discriminator 2
	stw 0,128(9)
	.loc 1 78 0 discriminator 2
	stw 0,116(9)
	.loc 1 79 0 discriminator 2
	stw 0,104(9)
	.loc 1 80 0 discriminator 2
	stw 0,92(9)
	.loc 1 81 0 discriminator 2
	stw 10,176(9)
	.loc 1 82 0 discriminator 2
	stw 10,152(9)
	.loc 1 83 0 discriminator 2
	stw 10,140(9)
	.loc 1 84 0 discriminator 2
	stw 0,212(9)
	addi 9,9,4
	.loc 1 74 0 discriminator 2
	bne+ 0,.L2
	.loc 1 94 0
	lis 9,.LC4@ha
	.loc 1 87 0
	stw 11,88(3)
	.loc 1 94 0
	lwz 10,.LC4@l(9)
	.loc 1 96 0
	li 9,1
	.loc 1 88 0
	stw 0,164(3)
	.loc 1 105 0
	.loc 1 89 0
	stw 0,168(3)
	.loc 1 90 0
	stw 8,188(3)
	.loc 1 91 0
	stw 8,192(3)
	.loc 1 92 0
	stw 8,196(3)
	.loc 1 93 0
	stw 8,200(3)
	.loc 1 94 0
	stw 10,204(3)
	.loc 1 95 0
	stw 10,208(3)
	.loc 1 96 0
	stw 9,224(3)
	.loc 1 97 0
	stw 9,228(3)
	.loc 1 98 0
	stw 9,232(3)
	.loc 1 99 0
	stw 11,236(3)
	.loc 1 100 0
	stw 11,240(3)
	.loc 1 101 0
	stw 11,256(3)
	.loc 1 102 0
	stw 8,244(3)
	.loc 1 103 0
	stw 11,252(3)
	.loc 1 104 0
	stb 11,248(3)
	.loc 1 105 0
	blr
	.cfi_endproc
.LFE38:
	.size	DefaultEffect, .-DefaultEffect
	.align 2
	.globl R_InitParticleEffects
	.type	R_InitParticleEffects, @function
R_InitParticleEffects:
.LFB40:
	.loc 1 279 0
	.cfi_startproc
	mflr 0
	stwu 1,-8(1)
.LCFI0:
	.cfi_def_cfa_offset 8
	.cfi_register 65, 0
	.loc 1 283 0
	lis 3,.LC5@ha
	lis 4,.LC6@ha
	lis 5,R_AddEffectsScript@ha
	.loc 1 281 0
	lis 9,particleEffects@ha
	.loc 1 279 0
	stw 0,12(1)
	.loc 1 283 0
	la 3,.LC5@l(3)
	.loc 1 281 0
	li 0,0
	.cfi_offset 65, 4
	.loc 1 283 0
	la 4,.LC6@l(4)
	la 5,R_AddEffectsScript@l(5)
	.loc 1 281 0
	stw 0,particleEffects@l(9)
	.loc 1 283 0
	bl COM_FindAllExt
	.loc 1 284 0
	lwz 0,12(1)
	addi 1,1,8
.LCFI1:
	.cfi_def_cfa_offset 0
	mtlr 0
	blr
	.cfi_endproc
.LFE40:
	.size	R_InitParticleEffects, .-R_InitParticleEffects
	.align 2
	.globl ParticleEffectDefinedForName
	.type	ParticleEffectDefinedForName, @function
ParticleEffectDefinedForName:
.LFB41:
	.loc 1 286 0
	.cfi_startproc
.LVL3:
	stwu 1,-16(1)
.LCFI2:
	.cfi_def_cfa_offset 16
	.loc 1 290 0
	lis 9,particleEffects@ha
	.loc 1 286 0
	mflr 0
	stw 31,12(1)
	.loc 1 290 0
	lwz 31,particleEffects@l(9)
	.cfi_offset 31, -4
	.cfi_register 65, 0
.LVL4:
	.loc 1 286 0
	stw 30,8(1)
	mr 30,3
	.cfi_offset 30, -8
	.loc 1 292 0
	cmpwi 7,31,0
	.loc 1 286 0
	stw 0,20(1)
	.loc 1 292 0
	bne+ 7,.L9
	.cfi_offset 65, 4
	b .L7
.LVL5:
.L11:
	.loc 1 296 0
	lwz 31,256(31)
.LVL6:
	.loc 1 292 0
	cmpwi 7,31,0
	beq- 7,.L7
.L9:
	.loc 1 293 0
	mr 3,31
	mr 4,30
	bl strcmp
	cmpwi 7,3,0
	bne+ 7,.L11
.L7:
	.loc 1 299 0
	lwz 0,20(1)
	mr 3,31
	lwz 30,8(1)
.LVL7:
	mtlr 0
	lwz 31,12(1)
.LVL8:
	addi 1,1,16
.LCFI3:
	.cfi_def_cfa_offset 0
	.cfi_restore 31
	.cfi_restore 30
	blr
	.cfi_endproc
.LFE41:
	.size	ParticleEffectDefinedForName, .-ParticleEffectDefinedForName
	.align 2
	.globl ParticleEffectForName
	.type	ParticleEffectForName, @function
ParticleEffectForName:
.LFB42:
	.loc 1 301 0
	.cfi_startproc
.LVL9:
	mflr 0
	stwu 1,-16(1)
.LCFI4:
	.cfi_def_cfa_offset 16
	.cfi_register 65, 0
	stw 30,8(1)
	mr 30,3
	.cfi_offset 30, -8
	stw 31,12(1)
	stw 0,20(1)
	.loc 1 305 0
	.cfi_offset 65, 4
	.cfi_offset 31, -4
	bl ParticleEffectDefinedForName
.LVL10:
	.loc 1 306 0
	mr. 31,3
	beq- 0,.L14
	.loc 1 308 0
	lwz 0,20(1)
	mr 3,31
	lwz 30,8(1)
.LVL11:
	mtlr 0
	lwz 31,12(1)
	addi 1,1,16
	.cfi_remember_state
.LCFI5:
	.cfi_def_cfa_offset 0
	.cfi_restore 31
	.cfi_restore 30
	blr
.LVL12:
.L14:
.LCFI6:
	.cfi_restore_state
	.loc 1 306 0 discriminator 1
	lis 3,.LC7@ha
.LVL13:
	mr 4,30
	la 3,.LC7@l(3)
	crxor 6,6,6
	bl Con_Printf
	.loc 1 308 0 discriminator 1
	lwz 0,20(1)
	mr 3,31
	lwz 30,8(1)
.LVL14:
	mtlr 0
	lwz 31,12(1)
.LVL15:
	addi 1,1,16
	.cfi_restore 30
	.cfi_restore 31
.LCFI7:
	.cfi_def_cfa_offset 0
	blr
	.cfi_endproc
.LFE42:
	.size	ParticleEffectForName, .-ParticleEffectForName
	.align 2
	.globl R_AddEffectsScript
	.type	R_AddEffectsScript, @function
R_AddEffectsScript:
.LFB39:
	.loc 1 115 0
	.cfi_startproc
.LVL16:
	mflr 0
	stwu 1,-56(1)
.LCFI8:
	.cfi_def_cfa_offset 56
	.cfi_register 65, 0
	stw 30,48(1)
	stw 31,52(1)
	mr 31,3
	.cfi_offset 31, -4
	.cfi_offset 30, -8
	stw 0,60(1)
	stw 21,12(1)
	stw 22,16(1)
	stw 23,20(1)
	stw 24,24(1)
	stw 25,28(1)
	stw 26,32(1)
	stw 27,36(1)
	stw 28,40(1)
	stw 29,44(1)
	.loc 1 123 0
	.cfi_offset 29, -12
	.cfi_offset 28, -16
	.cfi_offset 27, -20
	.cfi_offset 26, -24
	.cfi_offset 25, -28
	.cfi_offset 24, -32
	.cfi_offset 23, -36
	.cfi_offset 22, -40
	.cfi_offset 21, -44
	.cfi_offset 65, 4
	bl COM_LoadTempFile
.LVL17:
	.loc 1 125 0
	mr. 30,3
	beq- 0,.L63
	.loc 1 130 0
	bl strlen
.LVL18:
	.loc 1 272 0
	lis 27,.LC21@ha
	.loc 1 130 0
	mr 4,3
	mr 3,30
	bl SC_Start
	.loc 1 132 0
	lis 3,.LC9@ha
	mr 4,31
	la 3,.LC9@l(3)
	.loc 1 264 0
	lis 25,.LC20@ha
	.loc 1 261 0
	lis 21,.LC19@ha
	.loc 1 244 0
	lis 26,.LC15@ha
	.loc 1 246 0
	lis 23,.LC16@ha
	.loc 1 250 0
	lis 22,.LC17@ha
	.loc 1 132 0
	crxor 6,6,6
	bl Con_Printf
	.loc 1 121 0
	li 29,0
	.loc 1 117 0
	li 31,0
.LVL19:
	.loc 1 272 0
	la 27,.LC21@l(27)
	lis 28,line_num@ha
	.loc 1 264 0
	la 25,.LC20@l(25)
	.loc 1 261 0
	la 21,.LC19@l(21)
	.loc 1 244 0
	la 26,.LC15@l(26)
	.loc 1 246 0
	la 23,.LC16@l(23)
	.loc 1 250 0
	la 22,.LC17@l(22)
.LVL20:
.L61:
	.loc 1 134 0 discriminator 1
	bl SC_ParseToken
.LVL21:
	cmpwi 7,3,257
	beq- 7,.L64
.L52:
	.loc 1 136 0
	cmpwi 7,3,307
	beq- 7,.L65
	.loc 1 267 0
	cmpwi 7,3,308
	beq- 7,.L56
	.loc 1 272 0
	lwz 4,line_num@l(28)
	mr 3,27
.LVL22:
	mr 5,31
	mr 6,29
	crxor 6,6,6
	bl Con_Printf
	.loc 1 134 0
	bl SC_ParseToken
.LVL23:
	cmpwi 7,3,257
	bne+ 7,.L52
.L64:
	.loc 1 276 0
	bl SC_End
.LVL24:
	.loc 1 277 0
	lwz 0,60(1)
	lwz 21,12(1)
	mtlr 0
	lwz 22,16(1)
	lwz 23,20(1)
	lwz 24,24(1)
	lwz 25,28(1)
	lwz 26,32(1)
	lwz 27,36(1)
	lwz 28,40(1)
	lwz 29,44(1)
.LVL25:
	lwz 30,48(1)
	lwz 31,52(1)
.LVL26:
	addi 1,1,56
	.cfi_remember_state
.LCFI9:
	.cfi_def_cfa_offset 0
	.cfi_restore 31
	.cfi_restore 30
	.cfi_restore 29
	.cfi_restore 28
	.cfi_restore 27
	.cfi_restore 26
	.cfi_restore 25
	.cfi_restore 24
	.cfi_restore 23
	.cfi_restore 22
	.cfi_restore 21
	blr
.LVL27:
.L56:
.LCFI10:
	.cfi_restore_state
	.loc 1 268 0 discriminator 1
	bl yylex
	cmpwi 7,3,125
	mr 31,3
.LVL28:
	beq- 7,.L61
	.loc 1 268 0 is_stmt 0
	bl yylex
.LVL29:
	cmpwi 7,3,125
	mr 31,3
.LVL30:
	bne+ 7,.L56
	b .L61
.LVL31:
.L65:
	.loc 1 137 0 is_stmt 1
	bl SC_ParseIdent
.LVL32:
	mr 29,3
.LVL33:
	.loc 1 140 0
	bl ParticleEffectDefinedForName
.LVL34:
	.loc 1 141 0
	mr. 30,3
	beq- 0,.L66
.LVL35:
.L20:
	.loc 1 152 0
	bl SC_ParseToken
	cmpwi 7,3,123
	beq- 7,.L55
	.loc 1 152 0 is_stmt 0 discriminator 1
	lis 3,.LC10@ha
	lis 5,.LC11@ha
	lwz 4,line_num@l(28)
	la 3,.LC10@l(3)
	la 5,.LC11@l(5)
	crxor 6,6,6
	bl Con_Printf
.L55:
	.loc 1 254 0 is_stmt 1 discriminator 1
	lis 24,.LC18@ha
	la 24,.LC18@l(24)
.L60:
	.loc 1 154 0 discriminator 1
	bl SC_ParseToken
	cmpwi 7,3,125
	mr 31,3
.LVL36:
	beq- 7,.L61
.L68:
	.loc 1 154 0 is_stmt 0 discriminator 2
	cmpwi 7,3,257
	beq- 7,.L61
	.loc 1 155 0 is_stmt 1
	addi 0,31,-300
	cmplwi 7,0,15
	ble- 7,.L67
	.loc 1 264 0
	lwz 4,line_num@l(28)
	mr 5,31
	mr 3,25
.LVL37:
	mr 6,29
	crxor 6,6,6
	bl Con_Printf
	.loc 1 154 0
	bl SC_ParseToken
	cmpwi 7,3,125
	mr 31,3
.LVL38:
	bne+ 7,.L68
	b .L61
.L67:
	.loc 1 155 0
	lis 9,.L40@ha
	slwi 0,0,2
	la 9,.L40@l(9)
	lwzx 0,9,0
	add 9,0,9
	mtctr 9
	bctr
	.section	.rodata
	.align 2
	.align 2
.L40:
	.long .L24-.L40
	.long .L25-.L40
	.long .L26-.L40
	.long .L27-.L40
	.long .L28-.L40
	.long .L29-.L40
	.long .L30-.L40
	.long .L31-.L40
	.long .L32-.L40
	.long .L33-.L40
	.long .L34-.L40
	.long .L35-.L40
	.long .L36-.L40
	.long .L37-.L40
	.long .L38-.L40
	.long .L39-.L40
	.section	".text"
.L38:
	.loc 1 243 0
	bl SC_ParseIdent
.LVL39:
	.loc 1 244 0
	mr 4,26
	.loc 1 243 0
	mr 29,3
.LVL40:
	.loc 1 244 0
	bl strcmp
.LVL41:
	cmpwi 0,3,0
	beq- 0,.L69
	.loc 1 246 0
	mr 3,29
	mr 4,23
	bl strcmp
	cmpwi 7,3,0
	beq- 7,.L70
	.loc 1 250 0
	mr 3,29
	mr 4,22
	bl strcmp
	cmpwi 7,3,0
	bne- 7,.L47
	.loc 1 252 0
	li 0,2
	stw 0,240(30)
	b .L60
.L37:
	.loc 1 211 0
	bl SC_ParseFloat
	stfs 1,196(30)
	.loc 1 212 0
	bl SC_ParseFloat
	stfs 1,200(30)
	.loc 1 213 0
	b .L60
.L36:
	.loc 1 215 0
	bl SC_ParseFloat
	stfs 1,204(30)
	.loc 1 216 0
	bl SC_ParseFloat
	stfs 1,208(30)
	.loc 1 217 0
	b .L60
.L35:
	.loc 1 207 0
	bl SC_ParseFloat
	stfs 1,188(30)
	.loc 1 208 0
	bl SC_ParseFloat
	stfs 1,192(30)
	.loc 1 209 0
	b .L60
.L34:
.LVL42:
	.loc 1 190 0 discriminator 1
	bl SC_ParseFloat
	stfs 1,116(30)
.LVL43:
	bl SC_ParseFloat
	stfs 1,120(30)
.LVL44:
	bl SC_ParseFloat
	stfs 1,124(30)
.LVL45:
	.loc 1 192 0 discriminator 1
	bl SC_ParseFloat
	stfs 1,128(30)
.LVL46:
	bl SC_ParseFloat
	stfs 1,132(30)
.LVL47:
	bl SC_ParseFloat
	stfs 1,136(30)
.LVL48:
	b .L60
.LVL49:
.L33:
	.loc 1 183 0 discriminator 1
	bl SC_ParseFloat
	stfs 1,92(30)
.LVL50:
	bl SC_ParseFloat
	stfs 1,96(30)
.LVL51:
	bl SC_ParseFloat
	stfs 1,100(30)
.LVL52:
	.loc 1 185 0 discriminator 1
	bl SC_ParseFloat
	stfs 1,104(30)
.LVL53:
	bl SC_ParseFloat
	stfs 1,108(30)
.LVL54:
	bl SC_ParseFloat
	stfs 1,112(30)
.LVL55:
	b .L60
.LVL56:
.L32:
	.loc 1 238 0
	bl SC_ParseString
	bl EasyTgaLoad
	.loc 1 239 0
	li 5,0
	.loc 1 238 0
	stw 3,236(30)
	.loc 1 239 0
	ori 5,5,33071
	li 3,3553
	li 4,10242
	bl glTexParameteri
	.loc 1 240 0
	li 5,0
	li 3,3553
	li 4,10243
	ori 5,5,33071
	bl glTexParameteri
	.loc 1 241 0
	b .L60
.L31:
	.loc 1 235 0
	bl SC_ParseFloat
	addi 9,30,232
	fctiwz 1,1
	stfiwx 1,0,9
	.loc 1 236 0
	b .L60
.L30:
	.loc 1 223 0
	bl SC_ParseIdent
	.loc 1 224 0
	lis 4,.LC14@ha
	la 4,.LC14@l(4)
	.loc 1 223 0
	mr 29,3
.LVL57:
	.loc 1 224 0
	bl Q_strcasecmp
.LVL58:
	cmpwi 7,3,0
	bne- 7,.L44
	.loc 1 225 0
	li 0,1
	stb 0,248(30)
	.loc 1 226 0
	li 0,770
	stw 0,224(30)
	.loc 1 227 0
	li 0,771
	stw 0,228(30)
	b .L60
.L29:
.LVL59:
	.loc 1 220 0 discriminator 1
	bl SC_ParseFloat
	stfs 1,212(30)
.LVL60:
	bl SC_ParseFloat
	stfs 1,216(30)
.LVL61:
	bl SC_ParseFloat
	stfs 1,220(30)
.LVL62:
	b .L60
.LVL63:
.L28:
	.loc 1 204 0 discriminator 1
	bl SC_ParseFloat
	stfs 1,176(30)
.LVL64:
	bl SC_ParseFloat
	stfs 1,180(30)
.LVL65:
	bl SC_ParseFloat
	stfs 1,184(30)
.LVL66:
	b .L60
.LVL67:
.L27:
	.loc 1 200 0
	bl SC_ParseIdent
	mr 29,3
.LVL68:
	.loc 1 201 0
	b .L60
.LVL69:
.L26:
	.loc 1 196 0
	bl SC_ParseFloat
	stfs 1,164(30)
	.loc 1 197 0
	bl SC_ParseFloat
	stfs 1,168(30)
	.loc 1 198 0
	b .L60
.L25:
.LVL70:
	.loc 1 176 0 discriminator 1
	bl SC_ParseFloat
	stfs 1,140(30)
.LVL71:
	bl SC_ParseFloat
	stfs 1,144(30)
.LVL72:
	bl SC_ParseFloat
	stfs 1,148(30)
.LVL73:
	.loc 1 178 0 discriminator 1
	bl SC_ParseFloat
	stfs 1,152(30)
.LVL74:
	bl SC_ParseFloat
	stfs 1,156(30)
.LVL75:
	bl SC_ParseFloat
	stfs 1,160(30)
.LVL76:
	b .L60
.LVL77:
.L24:
	.loc 1 158 0
	bl SC_ParseIdent
	.loc 1 160 0
	lis 4,.LC12@ha
	la 4,.LC12@l(4)
	.loc 1 158 0
	mr 29,3
.LVL78:
	.loc 1 160 0
	bl strcmp
.LVL79:
	cmpwi 0,3,0
	bne- 0,.L42
	.loc 1 161 0
	stw 3,88(30)
.L43:
.LVL80:
	.loc 1 168 0 discriminator 1
	bl SC_ParseFloat
	stfs 1,64(30)
.LVL81:
	bl SC_ParseFloat
	stfs 1,68(30)
.LVL82:
	bl SC_ParseFloat
	stfs 1,72(30)
.LVL83:
	.loc 1 171 0 discriminator 1
	bl SC_ParseFloat
	stfs 1,76(30)
.LVL84:
	bl SC_ParseFloat
	stfs 1,80(30)
.LVL85:
	bl SC_ParseFloat
	stfs 1,84(30)
.LVL86:
	b .L60
.LVL87:
.L39:
	.loc 1 258 0
	bl SC_ParseIdent
	mr 29,3
.LVL88:
	.loc 1 259 0
	bl ParticleEffectForName
.LVL89:
	.loc 1 260 0
	cmpwi 7,3,0
	.loc 1 259 0
	stw 3,252(30)
	.loc 1 260 0
	bne+ 7,.L60
	.loc 1 261 0
	lwz 4,line_num@l(28)
	mr 3,21
	mr 5,29
	crxor 6,6,6
	bl Con_Printf
	b .L60
.L69:
	.loc 1 245 0
	stw 3,240(30)
	b .L60
.L42:
	.loc 1 163 0
	lwz 4,line_num@l(28)
	lis 3,.LC10@ha
	lis 5,.LC13@ha
	la 3,.LC10@l(3)
	la 5,.LC13@l(5)
	crxor 6,6,6
	bl Con_Printf
	b .L43
.L44:
	.loc 1 229 0
	li 0,0
	.loc 1 230 0
	mr 3,29
	.loc 1 229 0
	stb 0,248(30)
	.loc 1 230 0
	bl SC_BlendModeForName
	stw 3,224(30)
	.loc 1 231 0
	bl SC_ParseIdent
	bl SC_BlendModeForName
	stw 3,228(30)
	b .L60
.L47:
	.loc 1 254 0
	lwz 4,line_num@l(28)
	mr 3,24
	mr 5,29
	crxor 6,6,6
	bl Con_Printf
	b .L60
.L70:
	.loc 1 248 0
	li 0,1
	stw 0,240(30)
	.loc 1 249 0
	bl SC_ParseFloat
	stfs 1,244(30)
	b .L60
.LVL90:
.L63:
	.loc 1 126 0
	lis 3,.LC8@ha
.LVL91:
	mr 4,31
	la 3,.LC8@l(3)
	crxor 6,6,6
	bl Con_Printf
	.loc 1 277 0
	lwz 0,60(1)
	lwz 21,12(1)
	mtlr 0
	lwz 22,16(1)
	lwz 23,20(1)
	lwz 24,24(1)
	lwz 25,28(1)
	lwz 26,32(1)
	lwz 27,36(1)
	lwz 28,40(1)
	lwz 29,44(1)
	lwz 30,48(1)
.LVL92:
	lwz 31,52(1)
.LVL93:
	addi 1,1,56
	.cfi_remember_state
	.cfi_restore 21
	.cfi_restore 22
	.cfi_restore 23
	.cfi_restore 24
	.cfi_restore 25
	.cfi_restore 26
	.cfi_restore 27
	.cfi_restore 28
	.cfi_restore 29
	.cfi_restore 30
	.cfi_restore 31
.LCFI11:
	.cfi_def_cfa_offset 0
	blr
.LVL94:
.L66:
.LCFI12:
	.cfi_restore_state
	.loc 1 142 0
	li 3,260
.LVL95:
	bl Hunk_Alloc
	mr 30,3
.LVL96:
	.loc 1 143 0
	bl DefaultEffect
.LVL97:
	.loc 1 144 0
	lis 9,particleEffects@ha
	.loc 1 146 0
	mr 3,30
	.loc 1 144 0
	lwz 0,particleEffects@l(9)
	.loc 1 146 0
	mr 4,29
	.loc 1 145 0
	stw 30,particleEffects@l(9)
	.loc 1 144 0
	stw 0,256(30)
	.loc 1 146 0
	bl strcpy
	b .L20
	.cfi_endproc
.LFE39:
	.size	R_AddEffectsScript, .-R_AddEffectsScript
	.align 2
	.globl RandomMinMax
	.type	RandomMinMax, @function
RandomMinMax:
.LFB43:
	.loc 1 311 0
	.cfi_startproc
.LVL98:
	mflr 0
	stwu 1,-32(1)
.LCFI13:
	.cfi_def_cfa_offset 32
	.cfi_register 65, 0
	stfd 30,16(1)
	fmr 30,2
	.cfi_offset 62, -16
	stw 0,36(1)
	stfd 31,24(1)
	.loc 1 311 0
	fmr 31,1
	.cfi_offset 63, -8
	.cfi_offset 65, 4
	.loc 1 312 0
	bl rand
.LVL99:
	lis 0,0x68db
	ori 0,0,35757
	srawi 9,3,31
	mulhw 0,3,0
	lis 11,0x4330
	stw 11,8(1)
	fsubs 2,30,31
	.loc 1 313 0
	lfd 30,16(1)
.LVL100:
	.loc 1 312 0
	srawi 0,0,12
	subf 0,9,0
	lis 9,.LC23@ha
	mulli 0,0,10000
	lfs 0,.LC23@l(9)
	lis 9,.LC25@ha
	subf 3,0,3
	.loc 1 313 0
	lwz 0,36(1)
	.loc 1 312 0
	xoris 3,3,0x8000
	stw 3,12(1)
	.loc 1 313 0
	mtlr 0
	.loc 1 312 0
	lfd 1,8(1)
	fsub 1,1,0
	lfs 0,.LC25@l(9)
	fdiv 1,1,0
	fmadd 1,1,2,31
	.loc 1 313 0
	lfd 31,24(1)
.LVL101:
	addi 1,1,32
.LCFI14:
	.cfi_def_cfa_offset 0
	.cfi_restore 63
	.cfi_restore 62
	frsp 1,1
	blr
	.cfi_endproc
.LFE43:
	.size	RandomMinMax, .-RandomMinMax
	.align 2
	.globl InitParticleFromEffect
	.type	InitParticleFromEffect, @function
InitParticleFromEffect:
.LFB44:
	.loc 1 315 0
	.cfi_startproc
.LVL102:
	stwu 1,-32(1)
.LCFI15:
	.cfi_def_cfa_offset 32
	mflr 0
	stw 31,28(1)
	.loc 1 320 0
	mr. 31,3
	.cfi_offset 31, -4
	.cfi_register 65, 0
	.loc 1 315 0
	stw 26,8(1)
	mr 26,4
	.cfi_offset 26, -24
	stw 29,20(1)
	.loc 1 320 0
	li 29,0
	.cfi_offset 29, -12
	.loc 1 315 0
	stw 0,36(1)
	stw 27,12(1)
	stw 28,16(1)
	stw 30,24(1)
	.loc 1 320 0
	beq- 0,.L73
	.cfi_offset 30, -8
	.cfi_offset 28, -16
	.cfi_offset 27, -20
	.cfi_offset 65, 4
	.loc 1 322 0
	lwz 0,240(31)
	cmpwi 7,0,2
	beq- 7,.L73
	.loc 1 328 0
	lis 9,free_particles@ha
	lwz 29,free_particles@l(9)
	cmpwi 7,29,0
	beq- 7,.L73
.LVL103:
	.loc 1 332 0
	lis 11,active_particles@ha
	.loc 1 331 0
	lwz 0,24(29)
	.loc 1 332 0
	lwz 10,active_particles@l(11)
	.loc 1 337 0
	mr 30,31
	.loc 1 336 0
	lfs 1,164(31)
	.loc 1 337 0
	mr 28,29
	.loc 1 332 0
	stw 10,24(29)
	.loc 1 337 0
	li 27,0
	.loc 1 336 0
	lfs 2,168(31)
	.loc 1 331 0
	stw 0,free_particles@l(9)
	.loc 1 333 0
	stw 29,active_particles@l(11)
	.loc 1 336 0
	bl RandomMinMax
.LVL104:
	.loc 1 337 0
	fmr 13,1
	lis 9,cl+568@ha
	lfd 0,cl+568@l(9)
	.loc 1 336 0
	stfs 1,44(29)
	.loc 1 337 0
	fadd 0,13,0
	frsp 0,0
	stfs 0,40(29)
.LVL105:
.L74:
	.loc 1 339 0 discriminator 2
	lfs 2,152(30)
	lfs 1,140(30)
	bl RandomMinMax
	stfs 1,28(28)
	.loc 1 340 0 discriminator 2
	lfs 2,104(30)
	lfs 1,92(30)
	bl RandomMinMax
	stfs 1,76(28)
	.loc 1 341 0 discriminator 2
	lfs 2,128(30)
	lfs 1,116(30)
	bl RandomMinMax
	stfs 1,88(28)
	.loc 1 342 0 discriminator 2
	lfs 1,64(30)
	lfs 2,76(30)
	addi 30,30,4
	bl RandomMinMax
	lfsx 0,26,27
	.loc 1 338 0 discriminator 2
	cmpwi 7,27,8
	addi 27,27,4
	.loc 1 342 0 discriminator 2
	fadds 0,1,0
	stfs 0,0(28)
	addi 28,28,4
	.loc 1 338 0 discriminator 2
	bne+ 7,.L74
	.loc 1 345 0
	lwz 11,232(31)
	.loc 1 346 0
	lwz 9,224(31)
	.loc 1 347 0
	lwz 0,228(31)
	.loc 1 348 0
	lfs 2,192(31)
	lfs 1,188(31)
	.loc 1 345 0
	stw 11,52(29)
	.loc 1 346 0
	stw 9,100(29)
	.loc 1 347 0
	stw 0,104(29)
	.loc 1 348 0
	bl RandomMinMax
	.loc 1 349 0
	lfs 2,200(31)
	.loc 1 348 0
	stfs 1,60(29)
	.loc 1 349 0
	lfs 1,196(31)
	bl RandomMinMax
	.loc 1 350 0
	lfs 2,208(31)
	.loc 1 349 0
	stfs 1,68(29)
	.loc 1 350 0
	lfs 1,204(31)
	bl RandomMinMax
	.loc 1 315 0
	lwz 0,240(31)
	.loc 1 356 0
	lwz 30,244(31)
	.loc 1 315 0
	xori 0,0,1
	.loc 1 357 0
	lwz 3,236(31)
	.loc 1 358 0
	lwz 4,252(31)
	.loc 1 315 0
	cntlzw 0,0
	.loc 1 359 0
	lbz 5,248(31)
	.loc 1 315 0
	srwi 0,0,5
	.loc 1 360 0
	lwz 6,176(31)
	lwz 7,180(31)
	lwz 8,184(31)
	.loc 1 361 0
	lwz 10,212(31)
	lwz 11,216(31)
	lwz 9,220(31)
	.loc 1 350 0
	stfs 1,64(29)
	.loc 1 315 0
	stb 0,72(29)
	.loc 1 356 0
	stw 30,132(29)
	.loc 1 357 0
	stw 3,48(29)
	.loc 1 358 0
	stw 4,136(29)
	.loc 1 359 0
	stb 5,140(29)
	.loc 1 360 0
	stw 6,108(29)
	stw 7,112(29)
	stw 8,116(29)
	.loc 1 361 0
	stw 10,120(29)
	stw 11,124(29)
	stw 9,128(29)
.LVL106:
.L73:
	.loc 1 363 0
	lwz 0,36(1)
	mr 3,29
	lwz 26,8(1)
.LVL107:
	mtlr 0
	lwz 27,12(1)
	lwz 28,16(1)
	lwz 29,20(1)
	lwz 30,24(1)
	lwz 31,28(1)
.LVL108:
	addi 1,1,32
.LCFI16:
	.cfi_def_cfa_offset 0
	.cfi_restore 31
	.cfi_restore 30
	.cfi_restore 29
	.cfi_restore 28
	.cfi_restore 27
	.cfi_restore 26
	blr
	.cfi_endproc
.LFE44:
	.size	InitParticleFromEffect, .-InitParticleFromEffect
	.align 2
	.globl R_InitParticles
	.type	R_InitParticles, @function
R_InitParticles:
.LFB45:
	.loc 1 371 0
	.cfi_startproc
	mflr 0
	stwu 1,-16(1)
.LCFI17:
	.cfi_def_cfa_offset 16
	.cfi_register 65, 0
	.loc 1 374 0
	lis 3,.LC26@ha
	la 3,.LC26@l(3)
	.loc 1 371 0
	stw 31,12(1)
	stw 0,20(1)
	.loc 1 374 0
	.cfi_offset 65, 4
	.cfi_offset 31, -4
	bl COM_CheckParm
.LVL109:
	.loc 1 376 0
	cmpwi 0,3,0
	bne- 0,.L83
	.loc 1 384 0
	li 0,2048
	lis 9,r_numparticles@ha
	lis 3,0x4
.LVL110:
	stw 0,r_numparticles@l(9)
	ori 3,3,32768
.L81:
	.loc 1 388 0
	lis 4,.LC5@ha
	la 4,.LC5@l(4)
	bl Hunk_AllocName
	.loc 1 387 0
	lis 9,particles@ha
	.loc 1 391 0
	lis 4,.LC27@ha
	.loc 1 387 0
	stw 3,particles@l(9)
	.loc 1 391 0
	la 4,.LC27@l(4)
	li 3,12288
	bl Hunk_AllocName
	.loc 1 393 0
	lis 9,gl_cardtype@ha
	lwz 0,gl_cardtype@l(9)
	.loc 1 390 0
	lis 9,emitters@ha
	stw 3,emitters@l(9)
	.loc 1 393 0
	cmpwi 7,0,5
	beq- 7,.L84
.L78:
	.loc 1 398 0
	lwz 0,20(1)
	lwz 31,12(1)
	mtlr 0
	addi 1,1,16
	.cfi_remember_state
.LCFI18:
	.cfi_def_cfa_offset 0
	.cfi_restore 31
	blr
.LVL111:
.L83:
.LCFI19:
	.cfi_restore_state
	.loc 1 378 0
	lis 9,com_argv@ha
	addi 3,3,1
.LVL112:
	lwz 9,com_argv@l(9)
	slwi 3,3,2
.LVL113:
	lwzx 3,9,3
	bl Q_atoi
	lis 9,r_numparticles@ha
	.loc 1 379 0
	cmpwi 7,3,511
	.loc 1 378 0
	stw 3,r_numparticles@l(9)
	.loc 1 379 0
	bgt- 7,.L85
	.loc 1 380 0
	lis 3,0x1
	.loc 1 388 0
	lis 4,.LC5@ha
	.loc 1 380 0
	li 0,512
	.loc 1 388 0
	la 4,.LC5@l(4)
	.loc 1 380 0
	ori 3,3,8192
	stw 0,r_numparticles@l(9)
	.loc 1 388 0
	bl Hunk_AllocName
	.loc 1 387 0
	lis 9,particles@ha
	.loc 1 391 0
	lis 4,.LC27@ha
	.loc 1 387 0
	stw 3,particles@l(9)
	.loc 1 391 0
	la 4,.LC27@l(4)
	li 3,12288
	bl Hunk_AllocName
	.loc 1 393 0
	lis 9,gl_cardtype@ha
	lwz 0,gl_cardtype@l(9)
	.loc 1 390 0
	lis 9,emitters@ha
	stw 3,emitters@l(9)
	.loc 1 393 0
	cmpwi 7,0,5
	bne+ 7,.L78
.L84:
.LBB2:
	.loc 1 395 0
	lis 4,.LC28@ha
	li 3,0
	la 4,.LC28@l(4)
	ori 3,3,34336
	crxor 6,6,6
	bl GL_LoadShader
	lis 9,.LANCHOR0@ha
	stw 3,.LANCHOR0@l(9)
	.loc 1 396 0
	lis 4,.LC29@ha
	li 3,0
	la 4,.LC29@l(4)
	ori 3,3,34820
	.loc 1 395 0
	la 31,.LANCHOR0@l(9)
	.loc 1 396 0
	crxor 6,6,6
	bl GL_LoadShader
.LBE2:
	.loc 1 398 0
	lwz 0,20(1)
.LBB3:
	.loc 1 396 0
	stw 3,4(31)
.LBE3:
	.loc 1 398 0
	mtlr 0
	lwz 31,12(1)
	addi 1,1,16
	.cfi_remember_state
	.cfi_restore 31
.LCFI20:
	.cfi_def_cfa_offset 0
	blr
.L85:
.LCFI21:
	.cfi_restore_state
	.loc 1 379 0
	mulli 3,3,144
	b .L81
	.cfi_endproc
.LFE45:
	.size	R_InitParticles, .-R_InitParticles
	.align 2
	.globl R_ParseBasicEmitter
	.type	R_ParseBasicEmitter, @function
R_ParseBasicEmitter:
.LFB46:
	.loc 1 409 0
	.cfi_startproc
.LVL114:
	mflr 0
	stwu 1,-40(1)
.LCFI22:
	.cfi_def_cfa_offset 40
	.cfi_register 65, 0
	stw 29,28(1)
	stw 0,44(1)
	stw 30,32(1)
	stw 31,36(1)
	.loc 1 419 0
	.cfi_offset 31, -4
	.cfi_offset 30, -8
	.cfi_offset 65, 4
	.cfi_offset 29, -12
	bl MSG_ReadCoord
	stfs 1,8(1)
.LVL115:
	bl MSG_ReadCoord
	stfs 1,12(1)
.LVL116:
	bl MSG_ReadCoord
	stfs 1,16(1)
.LVL117:
	.loc 1 422 0
	bl MSG_ReadByte
	mr 30,3
.LVL118:
	.loc 1 425 0
	bl MSG_ReadString
.LVL119:
	.loc 1 427 0
	bl ParticleEffectForName
.LVL120:
	.loc 1 428 0
	mr. 29,3
	beq- 0,.L86
.LVL121:
	.loc 1 430 0 discriminator 1
	cmpwi 7,30,0
	ble- 7,.L86
	.loc 1 430 0 is_stmt 0
	li 31,0
.LVL122:
.L88:
	.loc 1 431 0 is_stmt 1 discriminator 2
	mr 3,29
	addi 4,1,8
	.loc 1 430 0 discriminator 2
	addi 31,31,1
	.loc 1 431 0 discriminator 2
	bl InitParticleFromEffect
.LVL123:
	.loc 1 430 0 discriminator 2
	cmpw 7,31,30
	bne+ 7,.L88
.LVL124:
.L86:
	.loc 1 433 0
	lwz 0,44(1)
	lwz 29,28(1)
.LVL125:
	mtlr 0
	lwz 30,32(1)
.LVL126:
	lwz 31,36(1)
	addi 1,1,40
.LCFI23:
	.cfi_def_cfa_offset 0
	.cfi_restore 31
	.cfi_restore 30
	.cfi_restore 29
	blr
	.cfi_endproc
.LFE46:
	.size	R_ParseBasicEmitter, .-R_ParseBasicEmitter
	.align 2
	.globl R_ParseExtendedEmitter
	.type	R_ParseExtendedEmitter, @function
R_ParseExtendedEmitter:
.LFB47:
	.loc 1 436 0
	.cfi_startproc
.LVL127:
	mflr 0
	stwu 1,-88(1)
.LCFI24:
	.cfi_def_cfa_offset 88
	.cfi_register 65, 0
	stfd 26,40(1)
	stw 0,92(1)
	stfd 27,48(1)
	stfd 28,56(1)
	stfd 29,64(1)
	stfd 30,72(1)
	stfd 31,80(1)
	stw 29,28(1)
	stw 30,32(1)
	stw 31,36(1)
	.loc 1 447 0
	.cfi_offset 31, -52
	.cfi_offset 30, -56
	.cfi_offset 29, -60
	.cfi_offset 63, -8
	.cfi_offset 62, -16
	.cfi_offset 61, -24
	.cfi_offset 60, -32
	.cfi_offset 59, -40
	.cfi_offset 65, 4
	.cfi_offset 58, -48
	bl MSG_ReadCoord
	fmr 27,1
.LVL128:
	bl MSG_ReadCoord
	fmr 28,1
.LVL129:
	bl MSG_ReadCoord
	fmr 29,1
.LVL130:
	.loc 1 451 0
	bl MSG_ReadCoord
	fmr 30,1
.LVL131:
	bl MSG_ReadCoord
	fmr 31,1
.LVL132:
	bl MSG_ReadCoord
	fmr 26,1
.LVL133:
	.loc 1 454 0
	bl MSG_ReadByte
	mr 31,3
.LVL134:
	.loc 1 457 0
	bl MSG_ReadLong
.LVL135:
	mr 29,3
.LVL136:
	.loc 1 460 0
	bl MSG_ReadLong
.LVL137:
	mr 30,3
.LVL138:
	.loc 1 463 0
	bl MSG_ReadString
.LVL139:
	.loc 1 465 0
	bl ParticleEffectForName
.LVL140:
	.loc 1 466 0
	cmpwi 0,3,0
	beq- 0,.L90
	.loc 1 469 0
	lis 11,free_emitters@ha
	lwz 9,free_emitters@l(11)
	cmpwi 7,9,0
	beq- 7,.L90
.LVL141:
	.loc 1 473 0
	lis 10,active_emitters@ha
	.loc 1 472 0
	lwz 8,44(9)
	.loc 1 473 0
	lwz 7,active_emitters@l(10)
	.loc 1 457 0
	lis 0,0x4330
	xoris 29,29,0x8000
.LVL142:
	.loc 1 477 0
	stfs 27,20(9)
	.loc 1 473 0
	stw 7,44(9)
	.loc 1 460 0
	xoris 30,30,0x8000
.LVL143:
	.loc 1 477 0
	stfs 28,24(9)
	stfs 29,28(9)
	.loc 1 478 0
	stfs 30,32(9)
	stfs 31,36(9)
	stfs 26,40(9)
	.loc 1 472 0
	stw 8,free_emitters@l(11)
	.loc 1 457 0
	lis 11,.LC23@ha
	.loc 1 474 0
	stw 9,active_emitters@l(10)
	.loc 1 476 0
	stw 3,0(9)
	.loc 1 457 0
	stw 0,8(1)
	stw 29,12(1)
	lfs 13,.LC23@l(11)
	lis 11,.LC31@ha
	lfd 12,8(1)
	lfs 0,.LC31@l(11)
	.loc 1 479 0
	lis 11,cl+568@ha
	.loc 1 457 0
	fsub 12,12,13
	.loc 1 479 0
	lfd 11,cl+568@l(11)
	.loc 1 457 0
	fdiv 12,12,0
	frsp 12,12
	.loc 1 479 0
	fadd 12,12,11
	frsp 12,12
	stfs 12,4(9)
	.loc 1 460 0
	stw 0,16(1)
	.loc 1 482 0
	li 0,0
	.loc 1 460 0
	stw 30,20(1)
	lfd 12,16(1)
	.loc 1 481 0
	stw 31,16(9)
	.loc 1 460 0
	fsub 13,12,13
	.loc 1 482 0
	stw 0,12(9)
	.loc 1 460 0
	fdiv 0,13,0
	frsp 0,0
	stfs 0,8(9)
.LVL144:
.L90:
	.loc 1 483 0
	lwz 0,92(1)
	lwz 29,28(1)
	mtlr 0
	lwz 30,32(1)
	lwz 31,36(1)
.LVL145:
	lfd 26,40(1)
	lfd 27,48(1)
	lfd 28,56(1)
	lfd 29,64(1)
	lfd 30,72(1)
	lfd 31,80(1)
	addi 1,1,88
.LCFI25:
	.cfi_def_cfa_offset 0
	.cfi_restore 63
	.cfi_restore 62
	.cfi_restore 61
	.cfi_restore 60
	.cfi_restore 59
	.cfi_restore 58
	.cfi_restore 31
	.cfi_restore 30
	.cfi_restore 29
	blr
	.cfi_endproc
.LFE47:
	.size	R_ParseExtendedEmitter, .-R_ParseExtendedEmitter
	.align 2
	.globl R_EntityParticles
	.type	R_EntityParticles, @function
R_EntityParticles:
.LFB48:
	.loc 1 500 0
	.cfi_startproc
.LVL146:
	stwu 1,-88(1)
.LCFI26:
	.cfi_def_cfa_offset 88
	.loc 1 513 0
	lis 9,.LC35@ha
	lfs 0,.LC35@l(9)
	.loc 1 500 0
	mflr 0
	stw 31,52(1)
	.loc 1 513 0
	lis 31,avelocities@ha
	.cfi_offset 31, -36
	.cfi_register 65, 0
	lfs 13,avelocities@l(31)
	la 31,avelocities@l(31)
	.loc 1 500 0
	stw 29,44(1)
	mr 29,3
	.cfi_offset 29, -44
	.loc 1 513 0
	fcmpu 7,13,0
	.loc 1 500 0
	stw 0,92(1)
	stfd 28,56(1)
	stfd 29,64(1)
	stfd 30,72(1)
	stfd 31,80(1)
	stw 23,20(1)
	stw 24,24(1)
	stw 25,28(1)
	stw 26,32(1)
	stw 27,36(1)
	stw 28,40(1)
	stw 30,48(1)
	.loc 1 513 0
	bne- 7,.L93
	.cfi_offset 30, -40
	.cfi_offset 28, -48
	.cfi_offset 27, -52
	.cfi_offset 26, -56
	.cfi_offset 25, -60
	.cfi_offset 24, -64
	.cfi_offset 23, -68
	.cfi_offset 63, -8
	.cfi_offset 62, -16
	.cfi_offset 61, -24
	.cfi_offset 60, -32
	.cfi_offset 65, 4
	lis 26,.LC23@ha
	lis 27,.LC32@ha
	addi 30,31,-4
	.loc 1 499 0
	addi 25,31,1940
	la 26,.LC23@l(26)
	la 27,.LC32@l(27)
	.loc 1 516 0
	lis 28,0x4330
.LVL147:
.L94:
	.loc 1 516 0 is_stmt 0 discriminator 2
	bl rand
	stw 28,8(1)
	rlwinm 3,3,0,0xff
	lfs 0,0(26)
	xoris 3,3,0x8000
	lfd 13,0(27)
	stw 3,12(1)
	lfd 12,8(1)
	fsub 0,12,0
	fmul 0,0,13
	frsp 0,0
	stfsu 0,4(30)
	.loc 1 515 0 is_stmt 1 discriminator 2
	cmpw 7,30,25
	bne+ 7,.L94
.LVL148:
.L93:
	.loc 1 520 0
	lis 3,.LC33@ha
	la 3,.LC33@l(3)
	bl ParticleEffectForName
.LVL149:
	.loc 1 521 0
	mr. 28,3
	beq- 0,.L92
	lis 30,r_avertexnormals@ha
	lis 26,cl@ha
	la 30,r_avertexnormals@l(30)
	.loc 1 499 0
	addi 25,31,1944
	la 26,cl@l(26)
	addi 27,29,112
	.loc 1 542 0
	lis 23,beamlength@ha
	lis 24,.LC34@ha
	b .L96
.LVL150:
.L99:
	.loc 1 530 0
	frsp 1,31
	.loc 1 542 0
	lfs 12,0(30)
	.loc 1 527 0
	frsp 28,28
.LVL151:
	.loc 1 542 0
	lfs 0,112(29)
	lfs 13,.LC34@l(24)
	.loc 1 526 0
	frsp 29,29
.LVL152:
	.loc 1 543 0
	lfs 11,116(29)
	.loc 1 529 0
	frsp 30,30
.LVL153:
	.loc 1 542 0
	fmadds 12,12,13,0
	lfs 0,beamlength@l(23)
	.loc 1 535 0
	fmuls 28,1,28
	.loc 1 536 0
	fmuls 1,1,29
	.loc 1 537 0
	fneg 30,30
	.loc 1 542 0
	fmadds 28,28,0,12
	.loc 1 544 0
	lfs 12,120(29)
	.loc 1 542 0
	stfs 28,0(3)
	.loc 1 543 0
	lfs 10,4(30)
	fmadds 11,10,13,11
	fmadds 1,1,0,11
	stfs 1,4(3)
	.loc 1 544 0
	lfs 11,8(30)
	addi 30,30,12
	fmadds 13,11,13,12
	fmadds 0,30,0,13
	stfs 0,8(3)
	.loc 1 523 0
	beq- 7,.L92
.LVL154:
.L96:
	.loc 1 525 0
	lfd 31,568(26)
.LVL155:
	lfs 30,0(31)
	fmul 30,31,30
	frsp 30,30
	.loc 1 526 0
	fmr 1,30
	bl sin
.LVL156:
	fmr 29,1
.LVL157:
	.loc 1 527 0
	fmr 1,30
.LVL158:
	bl cos
	.loc 1 528 0
	lfs 0,4(31)
	.loc 1 527 0
	fmr 28,1
.LVL159:
	.loc 1 544 0
	addi 31,31,12
.LVL160:
	.loc 1 528 0
	fmul 31,31,0
.LVL161:
	frsp 31,31
.LVL162:
	.loc 1 529 0
	fmr 1,31
.LVL163:
	bl sin
	fmr 30,1
.LVL164:
	.loc 1 530 0
	fmr 1,31
.LVL165:
	bl cos
	.loc 1 539 0
	mr 3,28
	mr 4,27
	.loc 1 530 0
	fmr 31,1
.LVL166:
	.loc 1 539 0
	bl InitParticleFromEffect
.LVL167:
	.loc 1 523 0
	cmpw 7,31,25
	.loc 1 540 0
	cmpwi 0,3,0
	bne+ 0,.L99
.LVL168:
.L92:
	.loc 1 546 0
	lwz 0,92(1)
	lwz 23,20(1)
	mtlr 0
	lwz 24,24(1)
	lwz 25,28(1)
	lwz 26,32(1)
	lwz 27,36(1)
	lwz 28,40(1)
.LVL169:
	lwz 29,44(1)
.LVL170:
	lwz 30,48(1)
	lwz 31,52(1)
	lfd 28,56(1)
	lfd 29,64(1)
	lfd 30,72(1)
	lfd 31,80(1)
	addi 1,1,88
.LCFI27:
	.cfi_def_cfa_offset 0
	.cfi_restore 63
	.cfi_restore 62
	.cfi_restore 61
	.cfi_restore 60
	.cfi_restore 31
	.cfi_restore 30
	.cfi_restore 29
	.cfi_restore 28
	.cfi_restore 27
	.cfi_restore 26
	.cfi_restore 25
	.cfi_restore 24
	.cfi_restore 23
	blr
	.cfi_endproc
.LFE48:
	.size	R_EntityParticles, .-R_EntityParticles
	.align 2
	.globl R_ClearParticles
	.type	R_ClearParticles, @function
R_ClearParticles:
.LFB49:
	.loc 1 555 0
	.cfi_startproc
	.loc 1 562 0
	lis 9,r_numparticles@ha
	.loc 1 560 0
	li 0,0
	.loc 1 562 0
	lwz 11,r_numparticles@l(9)
	.loc 1 559 0
	lis 9,particles@ha
	lwz 10,particles@l(9)
	lis 9,free_particles@ha
	.loc 1 562 0
	cmpwi 7,11,0
	.loc 1 559 0
	stw 10,free_particles@l(9)
	.loc 1 560 0
	lis 9,active_particles@ha
	stw 0,active_particles@l(9)
.LVL171:
	.loc 1 562 0
	ble- 7,.L101
	mtctr 11
	.loc 1 554 0
	addi 9,10,144
.LVL172:
.L102:
	.loc 1 563 0 discriminator 2
	stw 9,-120(9)
	.loc 1 562 0 discriminator 2
	addi 9,9,144
	bdnz .L102
.L101:
	.loc 1 564 0
	addi 9,11,-1
	.loc 1 567 0
	lis 11,emitters@ha
	.loc 1 564 0
	mulli 9,9,144
	.loc 1 567 0
	lwz 11,emitters@l(11)
	.loc 1 564 0
	li 0,0
	add 10,10,9
	.loc 1 567 0
	lis 9,free_emitters@ha
	stw 11,free_emitters@l(9)
	.loc 1 568 0
	lis 9,active_emitters@ha
	stw 0,active_emitters@l(9)
.LVL173:
	.loc 1 554 0
	addi 9,11,48
	.loc 1 564 0
	stw 0,24(10)
	.loc 1 570 0
	li 0,256
	mtctr 0
.LVL174:
.L103:
	.loc 1 571 0 discriminator 2
	stw 9,-4(9)
	.loc 1 570 0 discriminator 2
	addi 9,9,48
	bdnz .L103
	.loc 1 572 0
	li 0,0
	stw 0,12284(11)
	.loc 1 573 0
	blr
	.cfi_endproc
.LFE49:
	.size	R_ClearParticles, .-R_ClearParticles
	.align 2
	.globl R_ReadPointFile_f
	.type	R_ReadPointFile_f, @function
R_ReadPointFile_f:
.LFB50:
	.loc 1 577 0
	.cfi_startproc
	stwu 1,-168(1)
.LCFI28:
	.cfi_def_cfa_offset 168
	mflr 0
	.loc 1 586 0
	lis 4,.LC36@ha
	lis 5,sv+32@ha
	la 4,.LC36@l(4)
	la 5,sv+32@l(5)
	addi 3,1,24
	.loc 1 577 0
	stw 0,172(1)
	stw 28,152(1)
	stw 29,156(1)
	stw 30,160(1)
	stw 31,164(1)
	.loc 1 586 0
	.cfi_offset 31, -4
	.cfi_offset 30, -8
	.cfi_offset 29, -12
	.cfi_offset 28, -16
	.cfi_offset 65, 4
	crxor 6,6,6
	bl sprintf
	.loc 1 588 0
	addi 3,1,24
	addi 4,1,8
	bl COM_FOpenFile
.LVL175:
	.loc 1 589 0
	lwz 0,8(1)
	cmpwi 7,0,0
	beq- 7,.L111
	.loc 1 595 0
	lis 3,.LC38@ha
	la 3,.LC38@l(3)
	bl ParticleEffectForName
.LVL176:
	.loc 1 596 0
	mr. 29,3
	beq- 0,.L106
	.loc 1 598 0
	lis 3,.LC39@ha
.LVL177:
	addi 4,1,24
	la 3,.LC39@l(3)
	lis 28,.LC40@ha
	crxor 6,6,6
	bl Con_Printf
.LVL178:
	.loc 1 599 0
	li 31,0
	la 28,.LC40@l(28)
	.loc 1 609 0
	lis 30,vec3_origin@ha
	b .L110
.LVL179:
.L112:
	.loc 1 607 0
	bl InitParticleFromEffect
.LVL180:
	.loc 1 605 0
	addi 31,31,1
.LVL181:
	.loc 1 608 0
	cmpwi 0,3,0
	.loc 1 609 0
	la 9,vec3_origin@l(30)
	.loc 1 608 0
	beq- 0,.L106
	.loc 1 609 0
	lwz 10,vec3_origin@l(30)
	lwz 11,4(9)
	lwz 0,8(9)
	stw 10,28(3)
	stw 11,32(3)
	stw 0,36(3)
.LVL182:
.L110:
	.loc 1 602 0
	lwz 3,8(1)
	mr 4,28
	addi 5,1,12
	addi 6,1,16
	addi 7,1,20
	crxor 6,6,6
	bl fscanf
.LVL183:
	.loc 1 607 0
	addi 4,1,12
	.loc 1 603 0
	cmpwi 7,3,3
	.loc 1 607 0
	mr 3,29
.LVL184:
	.loc 1 603 0
	beq+ 7,.L112
	.loc 1 612 0
	lwz 3,8(1)
	bl fclose
	.loc 1 613 0
	lis 3,.LC41@ha
	la 3,.LC41@l(3)
	mr 4,31
	crxor 6,6,6
	bl Con_Printf
.LVL185:
.L106:
	.loc 1 614 0
	lwz 0,172(1)
	lwz 28,152(1)
	mtlr 0
	lwz 29,156(1)
.LVL186:
	lwz 30,160(1)
	lwz 31,164(1)
	addi 1,1,168
	.cfi_remember_state
.LCFI29:
	.cfi_def_cfa_offset 0
	.cfi_restore 31
	.cfi_restore 30
	.cfi_restore 29
	.cfi_restore 28
	blr
.L111:
.LCFI30:
	.cfi_restore_state
	.loc 1 591 0
	lis 3,.LC37@ha
	addi 4,1,24
	la 3,.LC37@l(3)
	crxor 6,6,6
	bl Con_Printf
	.loc 1 614 0
	lwz 0,172(1)
	lwz 28,152(1)
	mtlr 0
	lwz 29,156(1)
	lwz 30,160(1)
	lwz 31,164(1)
	addi 1,1,168
	.cfi_restore 28
	.cfi_restore 29
	.cfi_restore 30
	.cfi_restore 31
.LCFI31:
	.cfi_def_cfa_offset 0
	blr
	.cfi_endproc
.LFE50:
	.size	R_ReadPointFile_f, .-R_ReadPointFile_f
	.align 2
	.globl R_ParticleGunHits
	.type	R_ParticleGunHits, @function
R_ParticleGunHits:
.LFB52:
	.loc 1 651 0
	.cfi_startproc
.LVL187:
	.loc 1 669 0
	cmplwi 7,4,9
	.loc 1 651 0
	mflr 0
	stwu 1,-24(1)
.LCFI32:
	.cfi_def_cfa_offset 24
	.cfi_register 65, 0
	stw 31,20(1)
	mr 31,3
	.cfi_offset 31, -4
	stw 0,28(1)
	stw 30,16(1)
	.loc 1 669 0
	bgt- 7,.L113
	.cfi_offset 30, -8
	.cfi_offset 65, 4
	li 0,1
	slw 4,0,4
.LVL188:
	andi. 0,4,608
	beq- 0,.L122
	.loc 1 700 0
	lis 3,.LC45@ha
.LVL189:
	la 3,.LC45@l(3)
	bl ParticleEffectForName
	li 0,6
	stw 0,8(1)
	mr 30,3
.LVL190:
.L119:
	.loc 1 702 0 discriminator 2
	mr 3,30
	mr 4,31
	bl InitParticleFromEffect
	.loc 1 701 0 discriminator 2
	lwz 0,8(1)
	addic. 9,0,-1
	stw 9,8(1)
	bne+ 0,.L119
.LVL191:
.L113:
	.loc 1 708 0
	lwz 0,28(1)
	lwz 30,16(1)
	mtlr 0
	lwz 31,20(1)
.LVL192:
	addi 1,1,24
	.cfi_remember_state
.LCFI33:
	.cfi_def_cfa_offset 0
	.cfi_restore 31
	.cfi_restore 30
	blr
.LVL193:
.L122:
.LCFI34:
	.cfi_restore_state
	.loc 1 669 0
	andi. 9,4,4
	bne- 0,.L116
	andi. 0,4,3
	beq- 0,.L113
.LVL194:
	.loc 1 690 0
	lis 3,.LC44@ha
.LVL195:
	la 3,.LC44@l(3)
	bl ParticleEffectForName
	li 9,6
	stw 9,8(1)
	mr 30,3
.LVL196:
.L118:
	.loc 1 692 0 discriminator 2
	mr 3,30
	mr 4,31
	bl InitParticleFromEffect
	.loc 1 691 0 discriminator 2
	lwz 0,8(1)
	addic. 9,0,-1
	stw 9,8(1)
	bne+ 0,.L118
	.loc 1 708 0
	lwz 0,28(1)
	lwz 30,16(1)
.LVL197:
	mtlr 0
	lwz 31,20(1)
.LVL198:
	addi 1,1,24
	.cfi_remember_state
	.cfi_restore 30
	.cfi_restore 31
.LCFI35:
	.cfi_def_cfa_offset 0
	blr
.LVL199:
.L116:
.LCFI36:
	.cfi_restore_state
	.loc 1 674 0
	lis 3,.LC42@ha
.LVL200:
	la 3,.LC42@l(3)
	bl ParticleEffectForName
	.loc 1 676 0
	mr 4,31
	.loc 1 674 0
	mr 30,3
.LVL201:
	.loc 1 676 0
	bl InitParticleFromEffect
.LVL202:
	mr 4,31
	mr 3,30
	bl InitParticleFromEffect
.LVL203:
	.loc 1 679 0
	lis 3,.LC43@ha
	la 3,.LC43@l(3)
	bl ParticleEffectForName
.LVL204:
	.loc 1 708 0
	lwz 0,28(1)
	lwz 30,16(1)
	.loc 1 681 0
	mr 4,31
	.loc 1 708 0
	mtlr 0
	lwz 31,20(1)
.LVL205:
	addi 1,1,24
.LCFI37:
	.cfi_def_cfa_offset 0
	.cfi_restore 31
	.cfi_restore 30
	.loc 1 681 0
	b InitParticleFromEffect
.LVL206:
	.cfi_endproc
.LFE52:
	.size	R_ParticleGunHits, .-R_ParticleGunHits
	.align 2
	.globl R_ParticleHitBlood
	.type	R_ParticleHitBlood, @function
R_ParticleHitBlood:
.LFB53:
	.loc 1 718 0
	.cfi_startproc
.LVL207:
	stwu 1,-16(1)
.LCFI38:
	.cfi_def_cfa_offset 16
	mflr 0
	stw 31,12(1)
	mr 31,3
	.cfi_offset 31, -4
	.cfi_register 65, 0
	.loc 1 726 0
	lis 3,.LC46@ha
.LVL208:
	.loc 1 718 0
	stw 0,20(1)
	.loc 1 726 0
	la 3,.LC46@l(3)
	.loc 1 718 0
	stw 30,8(1)
	.loc 1 726 0
	.cfi_offset 30, -8
	.cfi_offset 65, 4
	bl ParticleEffectForName
.LVL209:
	.loc 1 729 0
	mr 4,31
	bl InitParticleFromEffect
.LVL210:
	.loc 1 732 0
	lis 3,.LC47@ha
	la 3,.LC47@l(3)
	bl ParticleEffectForName
	.loc 1 735 0
	mr 4,31
	.loc 1 732 0
	mr 30,3
.LVL211:
	.loc 1 735 0
	bl InitParticleFromEffect
.LVL212:
	.loc 1 737 0
	lwz 0,20(1)
	.loc 1 735 0
	mr 3,30
	mr 4,31
	.loc 1 737 0
	lwz 30,8(1)
.LVL213:
	lwz 31,12(1)
.LVL214:
	mtlr 0
	addi 1,1,16
.LCFI39:
	.cfi_def_cfa_offset 0
	.cfi_restore 31
	.cfi_restore 30
	.loc 1 735 0
	b InitParticleFromEffect
.LVL215:
.LVL216:
	.cfi_endproc
.LFE53:
	.size	R_ParticleHitBlood, .-R_ParticleHitBlood
	.align 2
	.globl R_ParticleExplosion
	.type	R_ParticleExplosion, @function
R_ParticleExplosion:
.LFB54:
	.loc 1 746 0
	.cfi_startproc
.LVL217:
	stwu 1,-24(1)
.LCFI40:
	.cfi_def_cfa_offset 24
	mflr 0
	stw 31,20(1)
	mr 31,3
	.cfi_offset 31, -4
	.cfi_register 65, 0
	.loc 1 750 0
	lis 3,.LC48@ha
.LVL218:
	.loc 1 746 0
	stw 0,28(1)
	.loc 1 750 0
	la 3,.LC48@l(3)
	.loc 1 746 0
	stw 30,16(1)
	.loc 1 750 0
	.cfi_offset 30, -8
	.cfi_offset 65, 4
	bl ParticleEffectForName
	li 0,128
	stw 0,8(1)
	mr 30,3
.LVL219:
.L125:
	.loc 1 753 0 discriminator 2
	mr 3,30
	mr 4,31
	bl InitParticleFromEffect
	.loc 1 751 0 discriminator 2
	lwz 0,8(1)
	addic. 9,0,-1
	stw 9,8(1)
	bne+ 0,.L125
	.loc 1 756 0
	lis 3,.LC49@ha
	la 3,.LC49@l(3)
	bl ParticleEffectForName
	li 0,128
	stw 0,8(1)
	mr 30,3
.LVL220:
.L126:
	.loc 1 759 0 discriminator 2
	mr 3,30
	mr 4,31
	bl InitParticleFromEffect
	.loc 1 757 0 discriminator 2
	lwz 0,8(1)
	addic. 9,0,-1
	stw 9,8(1)
	bne+ 0,.L126
	.loc 1 761 0
	lwz 0,28(1)
	lwz 30,16(1)
.LVL221:
	mtlr 0
	lwz 31,20(1)
.LVL222:
	addi 1,1,24
.LCFI41:
	.cfi_def_cfa_offset 0
	.cfi_restore 31
	.cfi_restore 30
	blr
	.cfi_endproc
.LFE54:
	.size	R_ParticleExplosion, .-R_ParticleExplosion
	.align 2
	.globl R_ParticleExplosion2
	.type	R_ParticleExplosion2, @function
R_ParticleExplosion2:
.LFB55:
	.loc 1 770 0
	.cfi_startproc
.LVL223:
	stwu 1,-24(1)
.LCFI42:
	.cfi_def_cfa_offset 24
	mflr 0
	stw 30,16(1)
	mr 30,3
	.cfi_offset 30, -8
	.cfi_register 65, 0
	.loc 1 777 0
	lis 3,.LC48@ha
.LVL224:
	.loc 1 770 0
	stw 0,28(1)
	.loc 1 777 0
	la 3,.LC48@l(3)
	.loc 1 770 0
	stw 31,20(1)
	.loc 1 777 0
	.cfi_offset 31, -4
	.cfi_offset 65, 4
	bl ParticleEffectForName
.LVL225:
	li 0,64
	stw 0,8(1)
	mr 31,3
.LVL226:
.L130:
	.loc 1 780 0 discriminator 2
	mr 3,31
	mr 4,30
	bl InitParticleFromEffect
	.loc 1 778 0 discriminator 2
	lwz 0,8(1)
	addic. 9,0,-1
	stw 9,8(1)
	bne+ 0,.L130
	.loc 1 783 0
	lwz 0,28(1)
	lwz 30,16(1)
.LVL227:
	mtlr 0
	lwz 31,20(1)
.LVL228:
	addi 1,1,24
.LCFI43:
	.cfi_def_cfa_offset 0
	.cfi_restore 31
	.cfi_restore 30
	blr
	.cfi_endproc
.LFE55:
	.size	R_ParticleExplosion2, .-R_ParticleExplosion2
	.align 2
	.globl R_BlobExplosion
	.type	R_BlobExplosion, @function
R_BlobExplosion:
.LFB56:
	.loc 1 792 0
	.cfi_startproc
.LVL229:
	stwu 1,-24(1)
.LCFI44:
	.cfi_def_cfa_offset 24
	mflr 0
	stw 31,20(1)
	mr 31,3
	.cfi_offset 31, -4
	.cfi_register 65, 0
	.loc 1 796 0
	lis 3,.LC50@ha
.LVL230:
	.loc 1 792 0
	stw 0,28(1)
	.loc 1 796 0
	la 3,.LC50@l(3)
	.loc 1 792 0
	stw 30,16(1)
	.loc 1 796 0
	.cfi_offset 30, -8
	.cfi_offset 65, 4
	bl ParticleEffectForName
	li 0,64
	stw 0,8(1)
	mr 30,3
.LVL231:
.L133:
	.loc 1 799 0 discriminator 2
	mr 3,30
	mr 4,31
	bl InitParticleFromEffect
	.loc 1 797 0 discriminator 2
	lwz 0,8(1)
	addic. 9,0,-1
	stw 9,8(1)
	bne+ 0,.L133
	.loc 1 802 0
	lis 3,.LC51@ha
	la 3,.LC51@l(3)
	bl ParticleEffectForName
	li 0,64
	stw 0,8(1)
	mr 30,3
.LVL232:
.L134:
	.loc 1 805 0 discriminator 2
	mr 3,30
	mr 4,31
	bl InitParticleFromEffect
	.loc 1 803 0 discriminator 2
	lwz 0,8(1)
	addic. 9,0,-1
	stw 9,8(1)
	bne+ 0,.L134
	.loc 1 807 0
	lwz 0,28(1)
	lwz 30,16(1)
.LVL233:
	mtlr 0
	lwz 31,20(1)
.LVL234:
	addi 1,1,24
.LCFI45:
	.cfi_def_cfa_offset 0
	.cfi_restore 31
	.cfi_restore 30
	blr
	.cfi_endproc
.LFE56:
	.size	R_BlobExplosion, .-R_BlobExplosion
	.align 2
	.globl R_RunParticleEffect
	.type	R_RunParticleEffect, @function
R_RunParticleEffect:
.LFB57:
	.loc 1 816 0
	.cfi_startproc
.LVL235:
	.loc 1 821 0
	cmpwi 7,5,225
	.loc 1 816 0
	mflr 0
	stwu 1,-24(1)
.LCFI46:
	.cfi_def_cfa_offset 24
	.cfi_register 65, 0
	stw 29,12(1)
	mr 29,6
	.cfi_offset 29, -12
	stw 31,20(1)
	mr 31,3
	.cfi_offset 31, -4
	stw 0,28(1)
	stw 28,8(1)
	stw 30,16(1)
	.loc 1 821 0
	beq- 7,.L138
	.cfi_offset 30, -8
	.cfi_offset 28, -16
	.cfi_offset 65, 4
	.loc 1 821 0 is_stmt 0 discriminator 1
	cmpwi 7,5,73
	beq- 7,.L138
	.loc 1 826 0 is_stmt 1
	cmpwi 7,6,1024
	beq- 7,.L145
	.loc 1 830 0
	lis 3,.LC52@ha
.LVL236:
	la 3,.LC52@l(3)
	bl ParticleEffectForName
.LVL237:
	.loc 1 831 0
	cmpwi 7,29,0
	.loc 1 830 0
	mr 28,3
.LVL238:
	.loc 1 831 0
	ble- 7,.L137
.L142:
	.loc 1 816 0 discriminator 2
	li 30,0
.LVL239:
.L141:
	.loc 1 832 0 discriminator 2
	mr 3,28
	mr 4,31
	.loc 1 831 0 discriminator 2
	addi 30,30,1
	.loc 1 832 0 discriminator 2
	bl InitParticleFromEffect
.LVL240:
	.loc 1 831 0 discriminator 2
	cmpw 7,29,30
	bgt+ 7,.L141
.LVL241:
.L137:
	.loc 1 834 0
	lwz 0,28(1)
	lwz 28,8(1)
.LVL242:
	mtlr 0
	lwz 29,12(1)
.LVL243:
	lwz 30,16(1)
	lwz 31,20(1)
.LVL244:
	addi 1,1,24
	.cfi_remember_state
.LCFI47:
	.cfi_def_cfa_offset 0
	.cfi_restore 31
	.cfi_restore 30
	.cfi_restore 29
	.cfi_restore 28
	blr
.LVL245:
.L138:
.LCFI48:
	.cfi_restore_state
	lwz 0,28(1)
	.loc 1 822 0
	mr 3,31
.LVL246:
	.loc 1 834 0
	lwz 28,8(1)
	.loc 1 822 0
	mr 4,5
.LVL247:
	.loc 1 834 0
	lwz 29,12(1)
	mtlr 0
	lwz 30,16(1)
	lwz 31,20(1)
.LVL248:
	addi 1,1,24
	.cfi_remember_state
.LCFI49:
	.cfi_def_cfa_offset 0
	.cfi_restore 31
	.cfi_restore 30
	.cfi_restore 29
	.cfi_restore 28
	.loc 1 822 0
	b R_ParticleHitBlood
.LVL249:
.L145:
.LCFI50:
	.cfi_restore_state
	.loc 1 827 0
	bl R_ParticleExplosion
.LVL250:
	.loc 1 830 0
	lis 3,.LC52@ha
	la 3,.LC52@l(3)
	bl ParticleEffectForName
	mr 28,3
.LVL251:
	b .L142
	.cfi_endproc
.LFE57:
	.size	R_RunParticleEffect, .-R_RunParticleEffect
	.align 2
	.globl R_ParseParticleEffect
	.type	R_ParseParticleEffect, @function
R_ParseParticleEffect:
.LFB51:
	.loc 1 624 0
	.cfi_startproc
.LVL252:
	mflr 0
	stwu 1,-72(1)
.LCFI51:
	.cfi_def_cfa_offset 72
	.cfi_register 65, 0
	stw 27,52(1)
	.loc 1 623 0
	addi 27,1,16
	.cfi_offset 27, -20
	.loc 1 624 0
	stw 0,76(1)
	stw 28,56(1)
	lis 28,.LC23@ha
	.cfi_offset 28, -16
	.cfi_offset 65, 4
	stw 29,60(1)
	lis 29,.LC54@ha
	.cfi_offset 29, -12
	stw 30,64(1)
	la 28,.LC23@l(28)
	stw 31,68(1)
	.loc 1 629 0
	.cfi_offset 31, -4
	.cfi_offset 30, -8
	bl MSG_ReadCoord
	stfs 1,20(1)
.LVL253:
	bl MSG_ReadCoord
	stfs 1,24(1)
.LVL254:
	bl MSG_ReadCoord
	stfs 1,28(1)
.LVL255:
	addi 31,1,4
	la 29,.LC54@l(29)
	.loc 1 631 0
	lis 30,0x4330
.LVL256:
.L147:
	.loc 1 631 0 is_stmt 0 discriminator 2
	bl MSG_ReadChar
	stw 30,40(1)
	xoris 3,3,0x8000
	lfs 0,0(28)
	stw 3,44(1)
	lfs 13,0(29)
	lfd 12,40(1)
	fsub 0,12,0
	fmul 0,0,13
	frsp 0,0
	stfsu 0,4(31)
	.loc 1 630 0 is_stmt 1 discriminator 2
	cmpw 7,31,27
	bne+ 7,.L147
	.loc 1 632 0
	bl MSG_ReadByte
	mr 31,3
.LVL257:
	.loc 1 633 0
	bl MSG_ReadByte
.LVL258:
	.loc 1 635 0
	cmpwi 7,31,255
	.loc 1 633 0
	mr 5,3
.LVL259:
	.loc 1 635 0
	mr 6,31
	beq- 7,.L151
.LVL260:
	.loc 1 640 0
	addi 3,1,20
.LVL261:
	addi 4,1,8
	bl R_RunParticleEffect
.LVL262:
	.loc 1 641 0
	lwz 0,76(1)
	lwz 27,52(1)
	mtlr 0
	lwz 28,56(1)
	lwz 29,60(1)
	lwz 30,64(1)
	lwz 31,68(1)
.LVL263:
	addi 1,1,72
	.cfi_remember_state
.LCFI52:
	.cfi_def_cfa_offset 0
	.cfi_restore 31
	.cfi_restore 30
	.cfi_restore 29
	.cfi_restore 28
	.cfi_restore 27
	blr
.LVL264:
.L151:
.LCFI53:
	.cfi_restore_state
	.loc 1 640 0
	addi 3,1,20
.LVL265:
	addi 4,1,8
	.loc 1 636 0
	li 6,1024
.LVL266:
	.loc 1 640 0
	bl R_RunParticleEffect
.LVL267:
	.loc 1 641 0
	lwz 0,76(1)
	lwz 27,52(1)
	mtlr 0
	lwz 28,56(1)
	lwz 29,60(1)
	lwz 30,64(1)
	lwz 31,68(1)
.LVL268:
	addi 1,1,72
	.cfi_restore 27
	.cfi_restore 28
	.cfi_restore 29
	.cfi_restore 30
	.cfi_restore 31
.LCFI54:
	.cfi_def_cfa_offset 0
	blr
	.cfi_endproc
.LFE51:
	.size	R_ParseParticleEffect, .-R_ParseParticleEffect
	.align 2
	.globl R_LavaSplash
	.type	R_LavaSplash, @function
R_LavaSplash:
.LFB58:
	.loc 1 844 0
	.cfi_startproc
.LVL269:
	stwu 1,-104(1)
.LCFI55:
	.cfi_def_cfa_offset 104
	mflr 0
	stw 31,84(1)
	mr 31,3
	.cfi_offset 31, -20
	.cfi_register 65, 0
	.loc 1 851 0
	lis 3,.LC55@ha
.LVL270:
	.loc 1 844 0
	stw 25,60(1)
	.loc 1 851 0
	la 3,.LC55@l(3)
	.loc 1 844 0
	stw 26,64(1)
	stw 27,68(1)
	.loc 1 859 0
	lis 25,.LC23@ha
	.cfi_offset 27, -36
	.cfi_offset 26, -40
	.cfi_offset 25, -44
	.loc 1 844 0
	stw 28,72(1)
	.loc 1 861 0
	lis 26,.LC56@ha
	.loc 1 844 0
	stw 29,76(1)
	.loc 1 851 0
	li 28,-128
	.cfi_offset 29, -28
	.cfi_offset 28, -32
	.loc 1 844 0
	stw 0,108(1)
	.loc 1 859 0
	lis 29,0x4330
	.loc 1 844 0
	stfd 30,88(1)
	stfd 31,96(1)
	stw 24,56(1)
	stw 30,80(1)
	.loc 1 851 0
	.cfi_offset 30, -24
	.cfi_offset 24, -48
	.cfi_offset 63, -8
	.cfi_offset 62, -16
	.cfi_offset 65, 4
	bl ParticleEffectForName
	mr 27,3
.LVL271:
.L153:
	.loc 1 860 0 discriminator 1
	li 30,-128
	b .L155
.LVL272:
.L158:
	.loc 1 859 0
	bl rand
.LVL273:
	stw 29,24(1)
	rlwinm 0,3,0,29,31
	lfs 31,.LC23@l(25)
	add 0,30,0
	xoris 0,0,0x8000
	stw 0,28(1)
	lfd 0,24(1)
	fsub 0,0,31
	frsp 0,0
	stfs 0,8(1)
	.loc 1 860 0
	bl rand
	rlwinm 0,3,0,29,31
	stw 29,32(1)
	add 0,28,0
	.loc 1 863 0
	lfs 13,8(1)
	.loc 1 860 0
	xoris 0,0,0x8000
	stw 0,36(1)
	.loc 1 861 0
	lwz 0,.LC56@l(26)
	.loc 1 860 0
	lfd 0,32(1)
	.loc 1 863 0
	lfs 12,0(31)
	.loc 1 860 0
	fsub 0,0,31
	.loc 1 861 0
	stw 0,16(1)
	.loc 1 863 0
	fadds 13,12,13
	.loc 1 860 0
	frsp 0,0
	stfs 0,12(1)
	.loc 1 863 0
	stfs 13,0(24)
	.loc 1 864 0
	lfs 13,4(31)
	fadds 0,0,13
	stfs 0,4(24)
	.loc 1 865 0
	lfs 30,8(31)
	bl rand
	rlwinm 3,3,0,26,31
	stw 29,40(1)
	xoris 3,3,0x8000
	stw 3,44(1)
	.loc 1 867 0
	addi 3,1,8
	.loc 1 865 0
	lfd 0,40(1)
	fsub 0,0,31
	frsp 0,0
	fadds 0,30,0
	stfs 0,8(24)
	.loc 1 867 0
	bl VectorNormalize
	.loc 1 868 0
	bl rand
.LVL274:
	stw 29,48(1)
	rlwinm 3,3,0,26,31
.LVL275:
	.loc 1 869 0
	addi 4,24,28
	.loc 1 868 0
	addi 0,3,50
	.loc 1 869 0
	addi 3,1,8
	.loc 1 868 0
	xoris 0,0,0x8000
	stw 0,52(1)
	lfd 0,48(1)
	fsub 31,0,31
	.loc 1 869 0
	frsp 1,31
	bl VectorScale
.LVL276:
	.loc 1 853 0
	cmpwi 7,30,120
	addi 30,30,8
	beq- 7,.L157
.LVL277:
.L155:
	.loc 1 856 0 discriminator 1
	mr 4,31
	mr 3,27
	bl InitParticleFromEffect
.LVL278:
	.loc 1 857 0 discriminator 1
	mr. 24,3
	bne+ 0,.L158
.LVL279:
.L152:
	.loc 1 871 0
	lwz 0,108(1)
	lwz 24,56(1)
.LVL280:
	mtlr 0
	lwz 25,60(1)
	lwz 26,64(1)
	lwz 27,68(1)
.LVL281:
	lwz 28,72(1)
	lwz 29,76(1)
	lwz 30,80(1)
	lwz 31,84(1)
.LVL282:
	lfd 30,88(1)
	lfd 31,96(1)
	addi 1,1,104
	.cfi_remember_state
.LCFI56:
	.cfi_def_cfa_offset 0
	.cfi_restore 63
	.cfi_restore 62
	.cfi_restore 31
	.cfi_restore 30
	.cfi_restore 29
	.cfi_restore 28
	.cfi_restore 27
	.cfi_restore 26
	.cfi_restore 25
	.cfi_restore 24
	blr
.LVL283:
.L157:
.LCFI57:
	.cfi_restore_state
	.loc 1 852 0
	cmpwi 7,28,120
	addi 28,28,8
	bne+ 7,.L153
	b .L152
	.cfi_endproc
.LFE58:
	.size	R_LavaSplash, .-R_LavaSplash
	.align 2
	.globl R_TeleportSplash
	.type	R_TeleportSplash, @function
R_TeleportSplash:
.LFB59:
	.loc 1 880 0
	.cfi_startproc
.LVL284:
	stwu 1,-160(1)
.LCFI58:
	.cfi_def_cfa_offset 160
	mflr 0
	stw 29,132(1)
	mr 29,3
	.cfi_offset 29, -28
	.cfi_register 65, 0
	.loc 1 887 0
	lis 3,.LC57@ha
.LVL285:
	.loc 1 880 0
	stw 23,108(1)
	.loc 1 887 0
	la 3,.LC57@l(3)
	.loc 1 880 0
	stw 24,112(1)
	stw 27,124(1)
	.loc 1 895 0
	lis 23,.LC23@ha
	.cfi_offset 27, -36
	.cfi_offset 24, -48
	.cfi_offset 23, -52
	.loc 1 880 0
	stw 31,140(1)
	.loc 1 888 0
	li 27,-16
	.loc 1 880 0
	stw 0,164(1)
	.loc 1 895 0
	lis 31,0x4330
	.cfi_offset 65, 4
	.cfi_offset 31, -20
	.loc 1 880 0
	stfd 30,144(1)
	stfd 31,152(1)
	stw 22,104(1)
	stw 25,116(1)
	stw 26,120(1)
	stw 28,128(1)
	stw 30,136(1)
	.loc 1 887 0
	.cfi_offset 30, -24
	.cfi_offset 28, -32
	.cfi_offset 26, -40
	.cfi_offset 25, -44
	.cfi_offset 22, -56
	.cfi_offset 63, -8
	.cfi_offset 62, -16
	bl ParticleEffectForName
	mr 24,3
.LVL286:
.L160:
	.loc 1 879 0 discriminator 1
	slwi 25,27,3
	li 28,-16
.LVL287:
.L164:
	slwi 26,28,3
	li 30,-24
.LVL288:
.L162:
	.loc 1 892 0
	mr 4,29
	mr 3,24
	bl InitParticleFromEffect
.LVL289:
	.loc 1 879 0
	slwi 0,30,3
	.loc 1 893 0
	mr. 22,3
	.loc 1 897 0
	xoris 0,0,0x8000
	.loc 1 895 0
	xoris 10,26,0x8000
	.loc 1 896 0
	xoris 11,25,0x8000
	.loc 1 899 0
	xoris 9,27,0x8000
	.loc 1 893 0
	beq- 0,.L159
	.loc 1 895 0
	stw 10,28(1)
	.loc 1 896 0
	stw 11,36(1)
	.loc 1 899 0
	stw 9,52(1)
	.loc 1 897 0
	stw 0,44(1)
	.loc 1 895 0
	stw 31,24(1)
	.loc 1 896 0
	stw 31,32(1)
	.loc 1 897 0
	stw 31,40(1)
	.loc 1 899 0
	stw 31,48(1)
	.loc 1 895 0
	lfs 31,.LC23@l(23)
	lfd 10,24(1)
	.loc 1 896 0
	lfd 12,32(1)
	.loc 1 897 0
	lfd 13,40(1)
	.loc 1 895 0
	fsub 10,10,31
	.loc 1 899 0
	lfd 30,48(1)
	.loc 1 896 0
	fsub 12,12,31
	.loc 1 897 0
	fsub 13,13,31
	.loc 1 899 0
	lfs 11,0(29)
	fsub 30,30,31
	.loc 1 895 0
	frsp 10,10
	.loc 1 896 0
	frsp 12,12
	.loc 1 897 0
	frsp 13,13
	.loc 1 899 0
	frsp 30,30
	.loc 1 895 0
	stfs 10,8(1)
	.loc 1 896 0
	stfs 12,12(1)
	.loc 1 897 0
	stfs 13,16(1)
	.loc 1 899 0
	fadds 30,30,11
	bl rand
.LVL290:
	rlwinm 3,3,0,30,31
	stw 31,56(1)
	xoris 3,3,0x8000
	.loc 1 900 0
	xoris 0,28,0x8000
	.loc 1 899 0
	stw 3,60(1)
	lfd 13,56(1)
	fsub 13,13,31
	frsp 13,13
	fadds 0,30,13
	stfs 0,0(22)
	.loc 1 900 0
	stw 0,68(1)
	stw 31,64(1)
	lfd 30,64(1)
	lfs 13,4(29)
	fsub 30,30,31
	frsp 30,30
	fadds 30,30,13
	bl rand
	rlwinm 3,3,0,30,31
	stw 31,72(1)
	xoris 3,3,0x8000
	.loc 1 901 0
	xoris 0,30,0x8000
	.loc 1 900 0
	stw 3,76(1)
	lfd 13,72(1)
	fsub 13,13,31
	frsp 13,13
	fadds 0,30,13
	stfs 0,4(22)
	.loc 1 901 0
	stw 0,84(1)
	stw 31,80(1)
	lfd 30,80(1)
	lfs 13,8(29)
	fsub 30,30,31
	frsp 30,30
	fadds 30,30,13
	bl rand
	rlwinm 3,3,0,30,31
	stw 31,88(1)
	xoris 3,3,0x8000
	stw 3,92(1)
	.loc 1 903 0
	addi 3,1,8
	.loc 1 901 0
	lfd 13,88(1)
	fsub 13,13,31
	frsp 13,13
	fadds 0,30,13
	stfs 0,8(22)
	.loc 1 903 0
	bl VectorNormalize
	.loc 1 904 0
	bl rand
.LVL291:
	stw 31,96(1)
	rlwinm 3,3,0,26,31
.LVL292:
	.loc 1 905 0
	addi 4,22,28
	.loc 1 904 0
	addi 0,3,50
	.loc 1 905 0
	addi 3,1,8
	.loc 1 904 0
	xoris 0,0,0x8000
	stw 0,100(1)
	lfd 0,96(1)
	fsub 31,0,31
	.loc 1 905 0
	frsp 1,31
	bl VectorScale
.LVL293:
	.loc 1 890 0
	cmpwi 7,30,28
	addi 30,30,4
.LVL294:
	bne+ 7,.L162
.LVL295:
	.loc 1 889 0
	cmpwi 7,28,12
	addi 28,28,4
.LVL296:
	bne+ 7,.L164
.LVL297:
	.loc 1 888 0
	cmpwi 7,27,12
	addi 27,27,4
.LVL298:
	bne- 7,.L160
.LVL299:
.L159:
	.loc 1 907 0
	lwz 0,164(1)
	lwz 22,104(1)
.LVL300:
	mtlr 0
	lwz 23,108(1)
	lwz 24,112(1)
.LVL301:
	lwz 25,116(1)
	lwz 26,120(1)
	lwz 27,124(1)
	lwz 28,128(1)
	lwz 29,132(1)
.LVL302:
	lwz 30,136(1)
	lwz 31,140(1)
	lfd 30,144(1)
	lfd 31,152(1)
	addi 1,1,160
.LCFI59:
	.cfi_def_cfa_offset 0
	.cfi_restore 63
	.cfi_restore 62
	.cfi_restore 31
	.cfi_restore 30
	.cfi_restore 29
	.cfi_restore 28
	.cfi_restore 27
	.cfi_restore 26
	.cfi_restore 25
	.cfi_restore 24
	.cfi_restore 23
	.cfi_restore 22
	blr
	.cfi_endproc
.LFE59:
	.size	R_TeleportSplash, .-R_TeleportSplash
	.align 2
	.globl R_RocketTrail
	.type	R_RocketTrail, @function
R_RocketTrail:
.LFB60:
	.loc 1 910 0
	.cfi_startproc
.LVL303:
	mflr 0
	stwu 1,-136(1)
.LCFI60:
	.cfi_def_cfa_offset 136
	.cfi_register 65, 0
	stw 28,96(1)
	mr 28,5
	.cfi_offset 28, -40
	stw 0,140(1)
	stw 31,108(1)
	mr 31,3
	.cfi_offset 31, -28
	.cfi_offset 65, 4
	.loc 1 919 0
	lfs 12,0(3)
	lfs 13,4(3)
	lfs 0,8(3)
	.loc 1 920 0
	addi 3,1,8
.LVL304:
	.loc 1 919 0
	lfs 9,0(4)
	lfs 10,4(4)
	lfs 11,8(4)
	fsubs 12,9,12
	fsubs 13,10,13
	.loc 1 910 0
	stfd 31,128(1)
	.loc 1 919 0
	fsubs 0,11,0
	.loc 1 910 0
	stfd 29,112(1)
	stfd 30,120(1)
	stw 20,64(1)
	stw 21,68(1)
	stw 22,72(1)
	stw 23,76(1)
	stw 24,80(1)
	stw 25,84(1)
	stw 26,88(1)
	stw 27,92(1)
	stw 29,100(1)
	stw 30,104(1)
	.loc 1 919 0
	stfs 12,8(1)
	stfs 13,12(1)
	stfs 0,16(1)
	.loc 1 920 0
	.cfi_offset 30, -32
	.cfi_offset 29, -36
	.cfi_offset 27, -44
	.cfi_offset 26, -48
	.cfi_offset 25, -52
	.cfi_offset 24, -56
	.cfi_offset 23, -60
	.cfi_offset 22, -64
	.cfi_offset 21, -68
	.cfi_offset 20, -72
	.cfi_offset 62, -16
	.cfi_offset 61, -24
	.cfi_offset 63, -8
	bl VectorNormalize
.LVL305:
	.loc 1 921 0
	cmpwi 7,28,127
	.loc 1 920 0
	fmr 31,1
.LVL306:
	.loc 1 921 0
	bgt- 7,.L167
	.loc 1 923 0
	addi 26,28,-5
	.loc 1 924 0
	subfic 26,26,1
	subfe 26,26,26
	andi. 26,26,9
	addi 26,26,1
.LVL307:
.L168:
	.loc 1 935 0
	cmplwi 7,28,6
	ble- 7,.L202
	.loc 1 959 0
	lis 3,.LC52@ha
	la 3,.LC52@l(3)
	bl ParticleEffectForName
	mr 25,3
.LVL308:
.L178:
	.loc 1 964 0 discriminator 1
	lis 9,.LC35@ha
	lfs 29,.LC35@l(9)
	fcmpu 7,31,29
	bng- 7,.L166
	.loc 1 971 0
	lis 24,.L186@ha
	slwi 23,28,2
	la 24,.L186@l(24)
	.loc 1 984 0
	lis 29,0x2aaa
	.loc 1 971 0
	add 23,24,23
	lis 27,.LC23@ha
	.loc 1 988 0
	lis 30,0x4330
	.loc 1 984 0
	ori 29,29,43691
.LVL309:
.L195:
	.loc 1 968 0
	mr 3,25
	mr 4,31
	bl InitParticleFromEffect
.LVL310:
	.loc 1 969 0
	mr. 21,3
	beq- 0,.L166
	.loc 1 971 0
	cmplwi 7,28,6
	bgt- 7,.L194
	lwz 0,0(23)
	add 0,0,24
	mtctr 0
	bctr
	.section	.rodata
	.align 2
	.align 2
.L186:
	.long .L189-.L186
	.long .L190-.L186
	.long .L191-.L186
	.long .L194-.L186
	.long .L191-.L186
	.long .L194-.L186
	.long .L192-.L186
	.section	".text"
.L194:
	la 22,.LC23@l(27)
.LVL311:
.L181:
	.loc 1 966 0
	xoris 0,26,0x8000
	stw 30,56(1)
	stw 0,60(1)
	lfs 0,0(22)
	lfd 13,56(1)
	.loc 1 993 0
	lfs 12,0(31)
	.loc 1 966 0
	fsub 0,13,0
	.loc 1 993 0
	lfs 13,4(31)
	lfs 11,8(31)
	.loc 1 966 0
	frsp 0,0
	fsubs 31,31,0
	.loc 1 993 0
	lfs 0,8(1)
	fadds 12,12,0
	lfs 0,12(1)
	.loc 1 964 0
	fcmpu 7,31,29
	.loc 1 993 0
	fadds 13,13,0
	lfs 0,16(1)
	stfs 12,0(31)
	fadds 0,11,0
	stfs 13,4(31)
	stfs 0,8(31)
	.loc 1 964 0
	bgt+ 7,.L195
.LVL312:
.L166:
	.loc 1 995 0
	lwz 0,140(1)
	lwz 20,64(1)
	mtlr 0
	lwz 21,68(1)
	lwz 22,72(1)
	lwz 23,76(1)
	lwz 24,80(1)
	lwz 25,84(1)
	lwz 26,88(1)
.LVL313:
	lwz 27,92(1)
	lwz 28,96(1)
.LVL314:
	lwz 29,100(1)
	lwz 30,104(1)
	lwz 31,108(1)
.LVL315:
	lfd 29,112(1)
	lfd 30,120(1)
	lfd 31,128(1)
	addi 1,1,136
	.cfi_remember_state
.LCFI61:
	.cfi_def_cfa_offset 0
	.cfi_restore 63
	.cfi_restore 62
	.cfi_restore 61
	.cfi_restore 31
	.cfi_restore 30
	.cfi_restore 29
	.cfi_restore 28
	.cfi_restore 27
	.cfi_restore 26
	.cfi_restore 25
	.cfi_restore 24
	.cfi_restore 23
	.cfi_restore 22
	.cfi_restore 21
	.cfi_restore 20
	blr
.LVL316:
.L192:
.LCFI62:
	.cfi_restore_state
	.loc 1 971 0
	li 20,0
	la 22,.LC23@l(27)
.LVL317:
.L185:
	.loc 1 988 0 discriminator 2
	lfsx 30,31,20
	bl rand
	srawi 0,3,3
	addze 0,0
	stw 30,48(1)
	slwi 0,0,3
	lfs 0,0(22)
	subf 3,0,3
	.loc 1 987 0 discriminator 2
	cmpwi 7,20,8
	.loc 1 988 0 discriminator 2
	addi 3,3,-4
	xoris 3,3,0x8000
	stw 3,52(1)
	lfd 13,48(1)
	fsub 0,13,0
	frsp 0,0
	fadds 0,30,0
	stfsx 0,21,20
	.loc 1 987 0 discriminator 2
	addi 20,20,4
	bne+ 7,.L185
	b .L181
.LVL318:
.L191:
	.loc 1 971 0
	li 20,0
	la 22,.LC23@l(27)
.L184:
	.loc 1 984 0 discriminator 2
	lfsx 30,31,20
	bl rand
	mulhw 9,3,29
	srawi 0,3,31
	stw 30,40(1)
	.loc 1 983 0 discriminator 2
	cmpwi 7,20,8
	.loc 1 984 0 discriminator 2
	lfs 0,0(22)
	subf 0,0,9
	mulli 0,0,6
	subf 3,0,3
	addi 3,3,-3
	xoris 3,3,0x8000
	stw 3,44(1)
	lfd 13,40(1)
	fsub 0,13,0
	frsp 0,0
	fadds 0,30,0
	stfsx 0,21,20
	.loc 1 983 0 discriminator 2
	addi 20,20,4
	bne+ 7,.L184
	b .L181
.L190:
	.loc 1 971 0
	li 20,0
	la 22,.LC23@l(27)
.L183:
	.loc 1 979 0 discriminator 2
	lfsx 30,31,20
	bl rand
	mulhw 9,3,29
	srawi 0,3,31
	stw 30,32(1)
	.loc 1 978 0 discriminator 2
	cmpwi 7,20,8
	.loc 1 979 0 discriminator 2
	lfs 0,0(22)
	subf 0,0,9
	mulli 0,0,6
	subf 3,0,3
	addi 3,3,-3
	xoris 3,3,0x8000
	stw 3,36(1)
	lfd 13,32(1)
	fsub 0,13,0
	frsp 0,0
	fadds 0,30,0
	stfsx 0,21,20
	.loc 1 978 0 discriminator 2
	addi 20,20,4
	bne+ 7,.L183
	b .L181
.L189:
	.loc 1 971 0
	li 20,0
	la 22,.LC23@l(27)
.L182:
	.loc 1 975 0 discriminator 2
	lfsx 30,31,20
	bl rand
	mulhw 9,3,29
	srawi 0,3,31
	stw 30,24(1)
	.loc 1 974 0 discriminator 2
	cmpwi 7,20,8
	.loc 1 975 0 discriminator 2
	lfs 0,0(22)
	subf 0,0,9
	mulli 0,0,6
	subf 3,0,3
	addi 3,3,-3
	xoris 3,3,0x8000
	stw 3,28(1)
	lfd 13,24(1)
	fsub 0,13,0
	frsp 0,0
	fadds 0,30,0
	stfsx 0,21,20
	.loc 1 974 0 discriminator 2
	addi 20,20,4
	bne+ 7,.L182
	b .L181
.LVL319:
.L202:
	.loc 1 935 0
	lis 9,.L177@ha
	slwi 0,28,2
	la 9,.L177@l(9)
	lwzx 0,9,0
	add 9,0,9
	mtctr 9
	bctr
	.section	.rodata
	.align 2
	.align 2
.L177:
	.long .L170-.L177
	.long .L171-.L177
	.long .L172-.L177
	.long .L173-.L177
	.long .L172-.L177
	.long .L175-.L177
	.long .L176-.L177
	.section	".text"
.L172:
	.loc 1 944 0
	lis 3,.LC61@ha
	la 3,.LC61@l(3)
	bl ParticleEffectForName
	mr 25,3
.LVL320:
	.loc 1 945 0
	b .L178
.LVL321:
.L167:
	.loc 1 929 0
	lis 3,.LC58@ha
	.loc 1 931 0
	addi 28,28,-128
.LVL322:
	.loc 1 929 0
	la 3,.LC58@l(3)
	.loc 1 930 0
	li 26,1
	.loc 1 929 0
	crxor 6,6,6
	bl Con_Printf
.LVL323:
	b .L168
.LVL324:
.L171:
	.loc 1 941 0
	lis 3,.LC60@ha
	la 3,.LC60@l(3)
	bl ParticleEffectForName
	mr 25,3
.LVL325:
	.loc 1 942 0
	b .L178
.LVL326:
.L173:
	.loc 1 950 0
	lis 3,.LC62@ha
	la 3,.LC62@l(3)
	bl ParticleEffectForName
	mr 25,3
.LVL327:
	.loc 1 951 0
	b .L178
.LVL328:
.L175:
	.loc 1 953 0
	lis 3,.LC63@ha
	la 3,.LC63@l(3)
	bl ParticleEffectForName
	mr 25,3
.LVL329:
	.loc 1 954 0
	b .L178
.LVL330:
.L176:
	.loc 1 956 0
	lis 3,.LC64@ha
	la 3,.LC64@l(3)
	bl ParticleEffectForName
	mr 25,3
.LVL331:
	.loc 1 957 0
	b .L178
.LVL332:
.L170:
	.loc 1 938 0
	lis 3,.LC59@ha
	la 3,.LC59@l(3)
	bl ParticleEffectForName
	mr 25,3
.LVL333:
	.loc 1 939 0
	b .L178
	.cfi_endproc
.LFE60:
	.size	R_RocketTrail, .-R_RocketTrail
	.align 2
	.globl R_EmitPostProcessQuad
	.type	R_EmitPostProcessQuad, @function
R_EmitPostProcessQuad:
.LFB62:
	.loc 1 1524 0
	.cfi_startproc
.LVL334:
	.loc 1 1526 0
	lis 9,.LANCHOR0@ha
	la 9,.LANCHOR0@l(9)
	lwz 11,8(9)
	cmpwi 7,11,255
	bgtlr- 7
	.loc 1 1524 0
	mulli 8,11,60
	li 0,4
	addi 10,9,12
	mtctr 0
	add 10,10,8
.LVL335:
.L205:
.LBB6:
.LBB7:
	.loc 1 1532 0
	lwz 0,0(3)
	stw 0,0(10)
.LVL336:
	lwz 0,4(3)
	stw 0,4(10)
.LVL337:
	lwz 0,8(3)
	addi 3,3,12
	stw 0,8(10)
.LVL338:
	addi 10,10,12
	.loc 1 1530 0
	bdnz .L205
	.loc 1 1535 0
	add 10,9,8
	.loc 1 1539 0
	addi 11,11,1
	.loc 1 1535 0
	stfs 1,60(10)
	.loc 1 1536 0
	stw 4,64(10)
	.loc 1 1537 0
	stfs 2,68(10)
	.loc 1 1539 0
	stw 11,8(9)
	blr
.LBE7:
.LBE6:
	.cfi_endproc
.LFE62:
	.size	R_EmitPostProcessQuad, .-R_EmitPostProcessQuad
	.align 2
	.globl R_DrawParticles
	.type	R_DrawParticles, @function
R_DrawParticles:
.LFB61:
	.loc 1 1246 0
	.cfi_startproc
	.loc 1 1259 0
	lis 9,gl_wireframe+12@ha
	.loc 1 1246 0
	mflr 0
	.loc 1 1259 0
	lfs 13,gl_wireframe+12@l(9)
	lis 9,.LC35@ha
	lfs 0,.LC35@l(9)
	.loc 1 1246 0
	stwu 1,-240(1)
.LCFI63:
	.cfi_def_cfa_offset 240
	.cfi_register 65, 0
	.loc 1 1259 0
	fcmpu 7,13,0
	.loc 1 1246 0
	stw 0,244(1)
	stfd 26,192(1)
	stfd 27,200(1)
	stfd 28,208(1)
	stfd 29,216(1)
	stfd 30,224(1)
	stfd 31,232(1)
	stw 19,140(1)
	stw 20,144(1)
	stw 21,148(1)
	stw 22,152(1)
	stw 23,156(1)
	stw 24,160(1)
	stw 25,164(1)
	stw 26,168(1)
	stw 27,172(1)
	stw 28,176(1)
	stw 29,180(1)
	stw 30,184(1)
	stw 31,188(1)
	.loc 1 1259 0
	beq- 7,.L270
	.cfi_offset 31, -52
	.cfi_offset 30, -56
	.cfi_offset 29, -60
	.cfi_offset 28, -64
	.cfi_offset 27, -68
	.cfi_offset 26, -72
	.cfi_offset 25, -76
	.cfi_offset 24, -80
	.cfi_offset 23, -84
	.cfi_offset 22, -88
	.cfi_offset 21, -92
	.cfi_offset 20, -96
	.cfi_offset 19, -100
	.cfi_offset 63, -8
	.cfi_offset 62, -16
	.cfi_offset 61, -24
	.cfi_offset 60, -32
	.cfi_offset 59, -40
	.cfi_offset 58, -48
	.cfi_offset 65, 4
.L207:
	.loc 1 1510 0
	lwz 0,244(1)
	lwz 19,140(1)
	mtlr 0
	lwz 20,144(1)
	lwz 21,148(1)
	lwz 22,152(1)
	lwz 23,156(1)
	lwz 24,160(1)
	lwz 25,164(1)
	lwz 26,168(1)
	lwz 27,172(1)
	lwz 28,176(1)
	lwz 29,180(1)
	lwz 30,184(1)
	lwz 31,188(1)
	lfd 26,192(1)
	lfd 27,200(1)
	lfd 28,208(1)
	lfd 29,216(1)
	lfd 30,224(1)
	lfd 31,232(1)
	addi 1,1,240
	.cfi_remember_state
.LCFI64:
	.cfi_def_cfa_offset 0
	.cfi_restore 63
	.cfi_restore 62
	.cfi_restore 61
	.cfi_restore 60
	.cfi_restore 59
	.cfi_restore 58
	.cfi_restore 31
	.cfi_restore 30
	.cfi_restore 29
	.cfi_restore 28
	.cfi_restore 27
	.cfi_restore 26
	.cfi_restore 25
	.cfi_restore 24
	.cfi_restore 23
	.cfi_restore 22
	.cfi_restore 21
	.cfi_restore 20
	.cfi_restore 19
	blr
.L270:
.LCFI65:
	.cfi_restore_state
	.loc 1 1262 0
	lis 4,color_black@ha
	li 3,2918
	la 4,color_black@l(4)
	.loc 1 1270 0
	lis 28,vup@ha
	.loc 1 1262 0
	bl glFogfv
	.loc 1 1263 0
	li 3,3042
	bl glEnable
	.loc 1 1264 0
	li 4,1
	li 3,1
	.loc 1 1270 0
	la 28,vup@l(28)
	.loc 1 1264 0
	bl glBlendFunc
	.loc 1 1265 0
	li 3,3008
	bl glEnable
	.loc 1 1266 0
	lis 9,.LC65@ha
	lfs 1,.LC65@l(9)
	li 3,516
	.loc 1 1271 0
	lis 29,vright@ha
	.loc 1 1274 0
	lis 30,cl@ha
	.loc 1 1266 0
	bl glAlphaFunc
	.loc 1 1267 0
	lis 9,.LC66@ha
	lfs 1,.LC66@l(9)
	li 4,8704
	li 3,8960
	.loc 1 1271 0
	la 29,vright@l(29)
	.loc 1 1267 0
	bl glTexEnvf
	.loc 1 1268 0
	li 3,0
	bl glDepthMask
	.loc 1 1270 0
	lis 9,.LC3@ha
	lfs 31,.LC3@l(9)
	mr 3,28
	addi 4,1,32
	.loc 1 1274 0
	la 30,cl@l(30)
	.loc 1 1270 0
	fmr 1,31
	bl VectorScale
	.loc 1 1271 0
	fmr 1,31
	mr 3,29
	addi 4,1,20
	bl VectorScale
	.loc 1 1272 0
	li 3,5890
	bl glMatrixMode
	.loc 1 1284 0
	lis 11,active_emitters@ha
	lwz 31,active_emitters@l(11)
	.loc 1 1274 0
	lfd 0,568(30)
	lfd 31,576(30)
	.loc 1 1285 0
	cmpwi 7,31,0
	.loc 1 1274 0
	fsub 31,0,31
	frsp 31,31
.LVL339:
	.loc 1 1285 0
	beq- 7,.L224
	lfs 13,4(31)
	fcmpu 7,0,13
	bng- 7,.L210
	lis 10,free_emitters@ha
	lwz 0,free_emitters@l(10)
.LVL340:
.L212:
	.loc 1 1287 0
	lwz 9,44(31)
	.loc 1 1288 0
	stw 0,44(31)
.LVL341:
	.loc 1 1285 0
	mr 0,31
	cmpwi 7,9,0
	beq- 7,.L271
.LVL342:
	.loc 1 1285 0 is_stmt 0 discriminator 1
	lfs 13,4(9)
	fcmpu 7,0,13
	bgt- 7,.L251
	.loc 1 1285 0
	stw 9,active_emitters@l(11)
	stw 31,free_emitters@l(10)
	.loc 1 1284 0 is_stmt 1
	mr 31,9
.LVL343:
.L210:
	.loc 1 1302 0
	lis 25,free_emitters@ha
.LBB8:
	.loc 1 1314 0
	lis 23,r_refdef@ha
	.loc 1 1316 0
	lis 24,.LC67@ha
.LVL344:
.L214:
.LBE8:
	.loc 1 1300 0
	lwz 9,44(31)
	.loc 1 1302 0
	cmpwi 7,9,0
	.loc 1 1300 0
	mr 0,9
.LVL345:
	.loc 1 1302 0
	beq- 7,.L215
.LVL346:
	lfs 13,4(9)
	lwz 11,free_emitters@l(25)
	fcmpu 7,13,0
	bnl- 7,.L215
	.loc 1 1304 0
	lwz 10,44(9)
	stw 10,44(31)
	.loc 1 1305 0
	stw 11,44(9)
	.loc 1 1302 0
	mr 11,0
	.loc 1 1300 0
	lwz 9,44(31)
	.loc 1 1302 0
	cmpwi 7,9,0
	beq- 7,.L269
.LVL347:
.L218:
	.loc 1 1302 0 is_stmt 0 discriminator 1
	lfs 13,4(9)
	fcmpu 7,13,0
	bnl- 7,.L269
	.loc 1 1304 0 is_stmt 1
	lwz 10,44(9)
	.loc 1 1302 0
	mr 0,9
	.loc 1 1304 0
	stw 10,44(31)
	.loc 1 1305 0
	stw 11,44(9)
	.loc 1 1302 0
	mr 11,0
	.loc 1 1300 0
	lwz 9,44(31)
.LVL348:
	.loc 1 1302 0
	cmpwi 7,9,0
	bne+ 7,.L218
.LVL349:
.L269:
	stw 0,free_emitters@l(25)
.L215:
	.loc 1 1312 0
	lfs 13,12(31)
	fcmpu 7,13,0
	blt- 7,.L272
.LVL350:
.L219:
	.loc 1 1296 0
	cmpwi 7,9,0
	mr 31,9
	beq- 7,.L224
	lfd 0,568(30)
	b .L214
.LVL351:
.L271:
	.loc 1 1285 0
	stw 9,active_emitters@l(11)
	stw 31,free_emitters@l(10)
.LVL352:
.L224:
	.loc 1 1328 0
	lis 11,active_particles@ha
	lwz 31,active_particles@l(11)
.LVL353:
	.loc 1 1329 0
	cmpwi 7,31,0
	beq- 7,.L250
	lfd 13,568(30)
	lfs 11,40(31)
	fcmpu 7,11,13
	bnl- 7,.L227
	lis 10,free_particles@ha
	lwz 0,free_particles@l(10)
.LVL354:
.L229:
	.loc 1 1331 0
	lwz 9,24(31)
	.loc 1 1332 0
	stw 0,24(31)
.LVL355:
	.loc 1 1329 0
	mr 0,31
	cmpwi 7,9,0
	beq- 7,.L273
.LVL356:
	.loc 1 1329 0 is_stmt 0 discriminator 1
	lfs 11,40(9)
	fcmpu 7,11,13
	blt- 7,.L253
	.loc 1 1329 0
	stw 9,active_particles@l(11)
	stw 31,free_particles@l(10)
	.loc 1 1328 0 is_stmt 1
	mr 31,9
.LVL357:
.L227:
	lis 27,.LC3@ha
	lis 25,.LC69@ha
	la 27,.LC3@l(27)
	lis 24,.LC71@ha
.LBB9:
	.loc 1 1371 0
	lis 20,vpn@ha
.LBE9:
	.loc 1 1361 0
	lfs 27,0(27)
	la 25,.LC69@l(25)
	la 24,.LC71@l(24)
	.loc 1 1346 0
	lis 26,free_particles@ha
.LBB10:
	.loc 1 1371 0
	la 20,vpn@l(20)
.LBE10:
	.loc 1 1395 0
	lis 23,.LC70@ha
.LBB11:
.LBB12:
	.loc 1 1473 0
	lis 21,.LC73@ha
	.loc 1 1474 0
	lis 22,.LC74@ha
.LVL358:
.L231:
.LBE12:
.LBE11:
	.loc 1 1344 0
	lwz 9,24(31)
.LVL359:
	.loc 1 1346 0
	lwz 0,free_particles@l(26)
	cmpwi 7,9,0
	beq- 7,.L233
.LVL360:
.L234:
	.loc 1 1346 0 is_stmt 0 discriminator 1
	lfs 0,40(9)
	fcmpu 7,0,13
	blt- 7,.L232
	lwz 11,52(9)
	cmpwi 7,11,0
	ble- 7,.L232
	.loc 1 1346 0
	stw 0,free_particles@l(26)
.LVL361:
.L233:
	.loc 1 1360 0 is_stmt 1
	fsub 11,11,13
	lfs 12,44(31)
	.loc 1 1356 0
	lfs 29,64(31)
.LVL362:
	.loc 1 1245 0
	addi 9,31,-4
	.loc 1 1357 0
	lfs 0,68(31)
	.loc 1 1362 0
	li 11,0
	.loc 1 1360 0
	fdiv 12,11,12
	frsp 12,12
.LVL363:
	.loc 1 1357 0
	fmadds 0,0,31,29
	.loc 1 1361 0
	fsubs 10,27,12
.LVL364:
	.loc 1 1357 0
	stfs 0,64(31)
.LVL365:
.L235:
	.loc 1 1363 0 discriminator 2
	lfs 0,92(9)
	.loc 1 1362 0 discriminator 2
	cmpwi 7,11,2
	.loc 1 1363 0 discriminator 2
	lfs 13,80(9)
	.loc 1 1245 0 discriminator 2
	addi 9,9,4
	.loc 1 1363 0 discriminator 2
	fmuls 0,10,0
	.loc 1 1362 0 discriminator 2
	addi 11,11,1
.LVL366:
	.loc 1 1363 0 discriminator 2
	fmadds 0,13,12,0
	stfs 0,12(9)
	.loc 1 1362 0 discriminator 2
	bne+ 7,.L235
	.loc 1 1367 0
	lbz 0,72(31)
	cmpwi 7,0,0
	bne- 7,.L274
	.loc 1 1376 0
	lwz 7,0(28)
	lwz 8,4(28)
	lwz 10,8(28)
	.loc 1 1377 0
	lwz 11,0(29)
.LVL367:
	lwz 9,4(29)
	lwz 0,8(29)
	.loc 1 1376 0
	stw 7,32(1)
	stw 8,36(1)
	stw 10,40(1)
	.loc 1 1377 0
	stw 11,20(1)
	stw 9,24(1)
	stw 0,28(1)
.LVL368:
.L237:
	.loc 1 1382 0
	lbz 0,140(31)
	.loc 1 1380 0
	fadd 30,11,11
	.loc 1 1382 0
	cmpwi 7,0,0
	.loc 1 1380 0
	frsp 30,30
.LVL369:
	.loc 1 1382 0
	bne- 7,.L238
	.loc 1 1383 0
	lfs 0,0(25)
	fcmpu 7,11,0
	bnl- 7,.L266
	.loc 1 1384 0
	lfs 1,12(31)
	fmr 4,30
	lfs 2,16(31)
	lfs 3,20(31)
	fmuls 1,30,1
	fmuls 2,30,2
	fmuls 3,30,3
	bl glColor4f
.L241:
	.loc 1 1389 0
	lwz 3,48(31)
	.loc 1 1397 0
	fneg 26,29
	.loc 1 1389 0
	bl GL_Bind
	.loc 1 1390 0
	lwz 3,100(31)
	lwz 4,104(31)
	bl glBlendFunc
	.loc 1 1392 0
	bl glLoadIdentity
	.loc 1 1393 0
	lfs 28,0(25)
	lis 9,.LC35@ha
	fmr 1,28
	lfs 3,.LC35@l(9)
	fmr 2,28
	bl glTranslatef
	.loc 1 1394 0
	lis 9,.LC35@ha
	lfs 30,0(27)
.LVL370:
	lfs 2,.LC35@l(9)
	fmr 4,30
	lfs 1,56(31)
	fmr 3,2
	bl glRotatef
	.loc 1 1395 0
	lfs 1,.LC70@l(23)
	lis 9,.LC35@ha
	fmr 2,1
	lfs 3,.LC35@l(9)
	bl glTranslatef
	.loc 1 1397 0
	lfs 0,0(24)
	.loc 1 1398 0
	mr 3,31
	addi 4,1,32
	.loc 1 1397 0
	fmuls 26,26,0
.LVL371:
	.loc 1 1398 0
	addi 5,1,8
	fmr 1,26
	bl VectorMA
	.loc 1 1399 0
	fmr 1,26
	addi 3,1,8
	addi 4,1,20
	mr 5,3
	bl VectorMA
	.loc 1 1404 0
	li 3,6
	bl glBegin
	.loc 1 1405 0
	lis 9,.LC35@ha
	lfs 1,.LC35@l(9)
	.loc 1 1402 0
	fmuls 29,29,28
.LVL372:
	.loc 1 1405 0
	fmr 2,1
	bl glTexCoord2f
	.loc 1 1406 0
	addi 3,1,8
	bl glVertex3fv
	.loc 1 1407 0
	lis 9,.LC35@ha
	fmr 2,30
	lfs 1,.LC35@l(9)
	bl glTexCoord2f
	.loc 1 1408 0
	lfs 0,8(1)
	lfs 1,32(1)
	lfs 3,40(1)
	fmadds 1,1,29,0
	lfs 0,16(1)
	lfs 2,36(1)
	fmadds 3,3,29,0
	lfs 0,12(1)
	fmadds 2,2,29,0
	bl glVertex3f
	.loc 1 1410 0
	fmr 1,30
	fmr 2,30
	bl glTexCoord2f
	.loc 1 1411 0
	lfs 13,32(1)
	lfs 0,8(1)
	lfs 12,36(1)
	fmadds 0,13,29,0
	lfs 13,12(1)
	.loc 1 1412 0
	lfs 11,40(1)
	.loc 1 1411 0
	fmadds 12,12,29,13
	.loc 1 1412 0
	lfs 13,16(1)
	.loc 1 1411 0
	lfs 2,24(1)
	.loc 1 1412 0
	fmadds 13,11,29,13
	.loc 1 1411 0
	lfs 3,28(1)
	lfs 1,20(1)
	fmadds 2,2,29,12
	fmadds 3,3,29,13
	fmadds 1,1,29,0
	bl glVertex3f
	.loc 1 1413 0
	lis 9,.LC35@ha
	fmr 1,30
	lfs 2,.LC35@l(9)
	bl glTexCoord2f
	.loc 1 1414 0
	lfs 0,8(1)
	lfs 1,20(1)
	lfs 2,24(1)
	fmadds 1,1,29,0
	lfs 0,12(1)
	lfs 3,28(1)
	fmadds 2,2,29,0
	lfs 0,16(1)
	fmadds 3,3,29,0
	bl glVertex3f
	.loc 1 1416 0
	bl glEnd
.LVL373:
.L242:
	.loc 1 1458 0
	lfs 11,56(31)
.LBB16:
	.loc 1 1465 0
	li 4,0
.LBE16:
	.loc 1 1458 0
	lfs 7,60(31)
.LBB17:
	.loc 1 1465 0
	li 5,40
.LBE17:
	.loc 1 1455 0
	lfs 12,0(31)
.LBB18:
	.loc 1 1465 0
	addi 3,1,44
.LBE18:
	.loc 1 1456 0
	lfs 13,4(31)
	.loc 1 1458 0
	fmadds 11,7,31,11
	.loc 1 1457 0
	lfs 0,8(31)
	.loc 1 1455 0
	lfs 8,28(31)
	.loc 1 1456 0
	lfs 9,32(31)
	.loc 1 1457 0
	lfs 10,36(31)
	.loc 1 1455 0
	fmadds 12,8,31,12
	.loc 1 1456 0
	fmadds 13,9,31,13
	.loc 1 1458 0
	stfs 11,56(31)
	.loc 1 1457 0
	fmadds 0,10,31,0
	.loc 1 1455 0
	stfs 12,8(1)
	.loc 1 1456 0
	stfs 13,12(1)
	.loc 1 1457 0
	stfs 0,16(1)
.LBB19:
	.loc 1 1465 0
	bl memset
	.loc 1 1466 0
	lfs 30,0(27)
	.loc 1 1467 0
	lis 9,.LC35@ha
	lwz 3,2688(30)
	li 4,0
	fmr 2,30
	lfs 1,.LC35@l(9)
	addi 3,3,236
	mr 5,31
	addi 6,1,8
	addi 7,1,44
	.loc 1 1466 0
	stfs 30,48(1)
	.loc 1 1467 0
	bl SV_RecursiveHullCheck
	.loc 1 1469 0
	lfs 0,48(1)
	fcmpu 7,0,30
	blt- 7,.L275
	.loc 1 1488 0
	lwz 0,8(1)
	stw 0,0(31)
	lwz 0,12(1)
	stw 0,4(31)
	lwz 0,16(1)
	stw 0,8(31)
.L247:
.LVL374:
.LBB13:
	.loc 1 1245 0 discriminator 1
	addi 9,31,24
.LBE13:
.LBE19:
	li 11,0
.LVL375:
.L249:
.LBB20:
	.loc 1 1488 0 discriminator 2
	addi 9,9,4
.LBE20:
	.loc 1 1492 0 discriminator 2
	cmpwi 7,11,2
	.loc 1 1493 0 discriminator 2
	lfs 0,0(9)
	.loc 1 1492 0 discriminator 2
	addi 11,11,1
.LVL376:
	.loc 1 1493 0 discriminator 2
	lfs 13,80(9)
	fmadds 0,13,31,0
	stfs 0,0(9)
	.loc 1 1492 0 discriminator 2
	bne+ 7,.L249
	.loc 1 1497 0
	lfs 9,28(31)
	lfs 10,32(31)
	lfs 11,36(31)
	lfs 12,120(31)
	lfs 13,124(31)
	lfs 0,128(31)
	fmuls 12,9,12
	fmuls 13,10,13
	fmuls 0,11,0
	stfs 12,28(31)
.LVL377:
	stfs 13,32(31)
.LVL378:
	stfs 0,36(31)
.LVL379:
	.loc 1 1340 0
	lwz 31,24(31)
.LVL380:
	cmpwi 7,31,0
	beq- 7,.L250
	lfd 13,568(30)
	lfs 11,40(31)
	b .L231
.LVL381:
.L273:
	.loc 1 1329 0
	stw 9,active_particles@l(11)
	stw 31,free_particles@l(10)
.LVL382:
.L250:
	.loc 1 1501 0
	li 3,1
	bl glDepthMask
	.loc 1 1502 0
	li 3,3042
	bl glDisable
	.loc 1 1503 0
	li 3,3008
	bl glDisable
	.loc 1 1504 0
	lis 9,.LC75@ha
	lfs 1,.LC75@l(9)
	li 3,516
	bl glAlphaFunc
	.loc 1 1505 0
	lis 9,.LC76@ha
	lfs 1,.LC76@l(9)
	li 4,8704
	li 3,8960
	bl glTexEnvf
	.loc 1 1507 0
	bl glLoadIdentity
	.loc 1 1508 0
	li 3,5888
	bl glMatrixMode
	.loc 1 1509 0
	lis 4,fog_color@ha
	li 3,2918
	la 4,fog_color@l(4)
	bl glFogfv
	b .L207
.LVL383:
.L232:
	.loc 1 1348 0
	lwz 11,24(9)
	stw 11,24(31)
	.loc 1 1349 0
	stw 0,24(9)
	.loc 1 1346 0
	mr 0,9
	.loc 1 1344 0
	lwz 11,24(31)
.LVL384:
	.loc 1 1346 0
	cmpwi 7,11,0
	beq- 7,.L276
	.loc 1 1344 0
	mr 9,11
	b .L234
.LVL385:
.L266:
	.loc 1 1386 0
	addi 3,31,12
	bl glColor3fv
	b .L241
.LVL386:
.L272:
.LBB21:
	.loc 1 1314 0
	la 9,r_refdef@l(23)
.LVL387:
	lfs 12,20(31)
	lfs 0,112(9)
	.loc 1 1316 0
	addi 3,1,84
	.loc 1 1314 0
	lfs 13,116(9)
	fsubs 12,12,0
	lfs 0,120(9)
	stfs 12,84(1)
	lfs 12,24(31)
	fsubs 13,12,13
	stfs 13,88(1)
	lfs 13,28(31)
	fsubs 0,13,0
	stfs 0,92(1)
	.loc 1 1316 0
	bl Length
	lfs 0,.LC67@l(24)
	fcmpu 7,1,0
	bnl- 7,.L221
.LVL388:
	.loc 1 1317 0 discriminator 1
	lwz 0,16(31)
	cmpwi 7,0,0
	ble- 7,.L221
	.loc 1 1317 0 is_stmt 0
	li 27,0
	addi 26,31,20
.LVL389:
.L223:
	.loc 1 1318 0 is_stmt 1 discriminator 2
	lwz 3,0(31)
	mr 4,26
	.loc 1 1317 0 discriminator 2
	addi 27,27,1
	.loc 1 1318 0 discriminator 2
	bl InitParticleFromEffect
.LVL390:
	.loc 1 1317 0 discriminator 2
	lwz 0,16(31)
	cmpw 7,0,27
	bgt+ 7,.L223
.LVL391:
.L221:
	.loc 1 1321 0
	lfd 0,568(30)
	lfs 13,8(31)
	lwz 9,44(31)
	fadd 0,13,0
	frsp 0,0
	stfs 0,12(31)
	b .L219
.LVL392:
.L238:
.LBE21:
.LBB22:
	.loc 1 1422 0
	fneg 28,29
	lfs 0,0(24)
	.loc 1 1423 0
	mr 3,31
	addi 4,1,32
	addi 5,1,8
	.loc 1 1422 0
	fmuls 28,28,0
.LVL393:
	.loc 1 1423 0
	fmr 1,28
	bl VectorMA
	.loc 1 1424 0
	fmr 1,28
	addi 3,1,8
	addi 4,1,20
	mr 5,3
	bl VectorMA
	.loc 1 1426 0
	lfs 5,0(25)
	.loc 1 1429 0
	lfs 13,12(1)
	.loc 1 1426 0
	fmuls 29,29,5
.LVL394:
	.loc 1 1430 0
	lfs 0,16(1)
	.loc 1 1428 0
	lfs 12,8(1)
	.loc 1 1432 0
	lfs 9,32(1)
	.loc 1 1433 0
	lfs 10,36(1)
	.loc 1 1434 0
	lfs 11,40(1)
	.loc 1 1432 0
	fmadds 9,9,29,12
	.loc 1 1433 0
	fmadds 10,10,29,13
	.loc 1 1436 0
	lfs 6,20(1)
	.loc 1 1434 0
	fmadds 11,11,29,0
	.loc 1 1437 0
	lfs 7,24(1)
	.loc 1 1438 0
	lfs 8,28(1)
	.loc 1 1436 0
	fmadds 2,6,29,9
	.loc 1 1437 0
	fmadds 3,7,29,10
	.loc 1 1430 0
	stfs 0,92(1)
	.loc 1 1441 0
	fmadds 7,7,29,13
	.loc 1 1428 0
	stfs 12,84(1)
	.loc 1 1438 0
	fmadds 4,8,29,11
	.loc 1 1436 0
	stfs 2,108(1)
	.loc 1 1440 0
	fmadds 6,6,29,12
	.loc 1 1429 0
	stfs 13,88(1)
	.loc 1 1442 0
	fmadds 29,8,29,0
.LVL395:
	.loc 1 1432 0
	stfs 9,96(1)
	.loc 1 1433 0
	stfs 10,100(1)
	.loc 1 1434 0
	stfs 11,104(1)
	.loc 1 1437 0
	stfs 3,112(1)
	.loc 1 1438 0
	stfs 4,116(1)
	.loc 1 1440 0
	stfs 6,120(1)
	.loc 1 1441 0
	stfs 7,124(1)
	.loc 1 1442 0
	stfs 29,128(1)
	.loc 1 1446 0
	lfd 0,568(30)
	lfs 13,40(31)
	lfs 2,0(27)
	fsub 13,13,0
	fmr 0,2
	fcmpu 7,13,0
	bnl- 7,.L267
	.loc 1 1447 0
	fmuls 2,30,5
	lfs 1,56(31)
	lwz 4,48(31)
	addi 3,1,84
	bl R_EmitPostProcessQuad
	b .L242
.LVL396:
.L274:
.LBE22:
.LBB23:
	.loc 1 1369 0
	lwz 11,28(31)
.LVL397:
	.loc 1 1370 0
	addi 3,1,32
	.loc 1 1369 0
	lwz 9,32(31)
	lwz 0,36(31)
	stw 11,32(1)
	stw 9,36(1)
	stw 0,40(1)
	.loc 1 1370 0
	bl VectorNormalize
.LVL398:
	.loc 1 1371 0
	addi 4,1,32
	addi 5,1,20
	mr 3,20
	bl CrossProduct
	.loc 1 1372 0
	addi 3,1,20
	bl VectorNormalize
	.loc 1 1373 0
	addi 3,31,28
	bl Length
.LVL399:
	lfs 0,132(31)
	.loc 1 1374 0
	addi 3,1,32
	fmuls 1,1,0
.LVL400:
	mr 4,3
	bl VectorScale
.LVL401:
	lfs 11,40(31)
	lfd 0,568(30)
	fsub 11,11,0
	b .L237
.LVL402:
.L275:
.LBE23:
.LBB24:
.LBB14:
	.loc 1 1472 0
	lfs 13,32(31)
	.loc 1 1473 0
	addi 19,31,28
	.loc 1 1472 0
	lfs 0,68(1)
	.loc 1 1473 0
	addi 4,1,64
.LVL403:
	.loc 1 1472 0
	lfs 12,28(31)
	.loc 1 1473 0
	mr 5,19
	.loc 1 1472 0
	fmuls 0,13,0
	lfs 13,64(1)
	lfs 1,36(31)
	.loc 1 1473 0
	mr 3,19
	.loc 1 1472 0
	fmadds 13,12,13,0
	lfs 12,72(1)
	.loc 1 1473 0
	lfs 0,.LC73@l(21)
	.loc 1 1472 0
	fmadds 1,1,12,13
	.loc 1 1473 0
	fmuls 1,1,0
	bl VectorMA
.LVL404:
	.loc 1 1474 0
	lfs 1,.LC74@l(22)
	mr 3,19
	mr 4,19
	bl VectorScale
	.loc 1 1477 0
	lwz 9,52(31)
	.loc 1 1479 0
	lwz 0,136(31)
	cmpwi 7,0,0
	.loc 1 1477 0
	addi 0,9,-1
	.loc 1 1475 0
	lwz 9,52(1)
	.loc 1 1477 0
	stw 0,52(31)
	.loc 1 1475 0
	stw 9,0(31)
	lwz 9,56(1)
	stw 9,4(31)
	lwz 9,60(1)
	stw 9,8(31)
	.loc 1 1479 0
	beq- 7,.L247
	.loc 1 1480 0
	addi 3,1,64
	mr 4,19
	addi 5,1,84
	bl CrossProduct
	.loc 1 1481 0
	lwz 6,136(31)
	lwz 0,240(6)
	cmpwi 7,0,2
	beq- 7,.L277
	.loc 1 1484 0
	mr 3,6
	mr 4,31
	bl InitParticleFromEffect
	b .L247
.LVL405:
.L267:
.LBE14:
.LBE24:
.LBB25:
	.loc 1 1449 0
	lfs 1,56(31)
	addi 3,1,84
	lwz 4,48(31)
	bl R_EmitPostProcessQuad
	b .L242
.LVL406:
.L276:
.LBE25:
	.loc 1 1346 0
	stw 9,free_particles@l(26)
	b .L233
.LVL407:
.L277:
.LBB26:
.LBB15:
	.loc 1 1482 0
	mr 3,31
	addi 4,1,64
	addi 5,1,84
	bl R_SpawnDecal
	b .L247
.LVL408:
.L251:
.LBE15:
.LBE26:
	.loc 1 1285 0
	mr 31,9
	b .L212
.LVL409:
.L253:
	.loc 1 1329 0
	mr 31,9
	b .L229
	.cfi_endproc
.LFE61:
	.size	R_DrawParticles, .-R_DrawParticles
	.align 2
	.globl R_DrawPostProcessQuads
	.type	R_DrawPostProcessQuads, @function
R_DrawPostProcessQuads:
.LFB63:
	.loc 1 1551 0
	.cfi_startproc
	.loc 1 1610 0
	lis 9,.LANCHOR0@ha
	li 0,0
	la 9,.LANCHOR0@l(9)
	stw 0,8(9)
	.loc 1 1611 0
	blr
	.cfi_endproc
.LFE63:
	.size	R_DrawPostProcessQuads, .-R_DrawPostProcessQuads
	.globl timescale
	.globl partstep
	.globl avelocity
	.globl beamlength
	.comm	avelocities,1944,4
	.comm	r_ppn,12,4
	.comm	r_pup,12,4
	.comm	r_pright,12,4
	.comm	particleEffects,4,4
	.comm	free_emitters,4,4
	.comm	active_emitters,4,4
	.comm	emitters,4,4
	.comm	r_numparticles,4,4
	.comm	particles,4,4
	.comm	free_particles,4,4
	.comm	active_particles,4,4
	.globl ramp3
	.globl ramp2
	.globl ramp1
	.comm	causticschain,4,4
	.section	.rodata.cst4,"aM",@progbits,4
	.align 2
.LC1:
	.4byte	-1048576000
.LC2:
	.4byte	1098907648
.LC3:
	.4byte	1065353216
.LC4:
	.4byte	1092616192
.LC23:
	.4byte	1501560836
.LC25:
	.4byte	1176256512
.LC31:
	.4byte	1120403456
.LC34:
	.4byte	1115684864
.LC35:
	.4byte	0
.LC54:
	.4byte	1031798784
.LC56:
	.4byte	1132462080
.LC65:
	.4byte	1008981770
.LC66:
	.4byte	1174667264
.LC67:
	.4byte	1142292480
.LC69:
	.4byte	1056964608
.LC70:
	.4byte	-1090519040
.LC71:
	.4byte	1048576000
.LC73:
	.4byte	-1073741824
.LC74:
	.4byte	1051260355
.LC75:
	.4byte	1059749626
.LC76:
	.4byte	1173358592
	.section	.rodata.cst8,"aM",@progbits,8
	.align 3
.LC32:
	.4byte	1065646817
	.4byte	1202590843
	.section	".data"
	.align 2
	.type	avelocity, @object
	.size	avelocity, 12
avelocity:
	.long	1102577664
	.long	1088421888
	.long	1077936128
	.type	ramp3, @object
	.size	ramp3, 32
ramp3:
	.long	109
	.long	107
	.long	6
	.long	5
	.long	4
	.long	3
	.zero	8
	.type	ramp2, @object
	.size	ramp2, 32
ramp2:
	.long	111
	.long	110
	.long	109
	.long	108
	.long	107
	.long	106
	.long	104
	.long	102
	.type	ramp1, @object
	.size	ramp1, 32
ramp1:
	.long	111
	.long	109
	.long	107
	.long	105
	.long	103
	.long	101
	.long	99
	.long	97
	.section	.rodata.str1.4,"aMS",@progbits,1
	.align 2
.LC0:
	.string	"noname"
	.zero	1
.LC5:
	.string	"particles"
	.zero	2
.LC6:
	.string	"particle"
	.zero	3
.LC7:
	.string	"Effect not defined: %s\n"
.LC8:
	.string	"\002Can't load particle effects from: %s\n"
	.zero	1
.LC9:
	.string	"Loading particle effects from: %s\n"
	.zero	1
.LC10:
	.string	"\002Script error at line %i: %s\n"
	.zero	2
.LC11:
	.string	"'{' expected"
	.zero	3
.LC12:
	.string	"box"
.LC13:
	.string	"Unknown emmiter shape"
	.zero	2
.LC14:
	.string	"postprocess"
.LC15:
	.string	"view"
	.zero	3
.LC16:
	.string	"vel"
.LC17:
	.string	"surface"
.LC18:
	.string	"\002Script error at line %i: Unknown orientation type %s\n"
	.zero	1
.LC19:
	.string	"\002Script error at line %i: Particle %s not defined yet \n"
.LC20:
	.string	"\002Script error at line %i: Unknown field (id%i/%s) for particle definition\n"
	.zero	1
.LC21:
	.string	"\002Script error at line %i: Expected definiton (found id%i/%s)\n"
	.zero	2
.LC26:
	.string	"-particles"
	.zero	1
.LC27:
	.string	"emitters"
	.zero	3
.LC28:
	.string	"glprogs/ppsprite_vp.txt"
.LC29:
	.string	"glprogs/ppsprite_fp.txt"
.LC33:
	.string	"pt_entityparticles"
	.zero	1
.LC36:
	.string	"maps/%s.pts"
.LC37:
	.string	"couldn't open %s\n"
	.zero	2
.LC38:
	.string	"pt_pointfile"
	.zero	3
.LC39:
	.string	"Reading %s...\n"
	.zero	1
.LC40:
	.string	"%f %f %f\n"
	.zero	2
.LC41:
	.string	"%i points read\n"
.LC42:
	.string	"pt_gunshot"
	.zero	1
.LC43:
	.string	"pt_gunshotsmoke"
.LC44:
	.string	"pt_spike"
	.zero	3
.LC45:
	.string	"pt_lightning"
	.zero	3
.LC46:
	.string	"pt_hitblood1"
	.zero	3
.LC47:
	.string	"pt_hitblood2"
	.zero	3
.LC48:
	.string	"pt_explosion1"
	.zero	2
.LC49:
	.string	"pt_explosion2"
	.zero	2
.LC50:
	.string	"pt_voreexplosion1"
	.zero	2
.LC51:
	.string	"pt_voreexplosion2"
	.zero	2
.LC52:
	.string	"pt_genericsmoke"
.LC55:
	.string	"pt_lavasplash"
	.zero	2
.LC57:
	.string	"teleportsplash"
	.zero	1
.LC58:
	.string	"ypt\n"
	.zero	3
.LC59:
	.string	"pt_rockettrail"
	.zero	1
.LC60:
	.string	"pt_smoke"
	.zero	3
.LC61:
	.string	"pt_bloodtrail"
	.zero	2
.LC62:
	.string	"pt_wizzardtrail"
.LC63:
	.string	"pt_hknighttrail"
.LC64:
	.string	"pt_voretrail"
	.section	.sdata,"aw",@progbits
	.align 2
	.type	timescale, @object
	.size	timescale, 4
timescale:
	.long	1008981770
	.type	partstep, @object
	.size	partstep, 4
partstep:
	.long	1008981770
	.type	beamlength, @object
	.size	beamlength, 4
beamlength:
	.long	1098907648
	.section	".bss"
	.align 2
	.set	.LANCHOR0,. + 0
	.type	ppSpriteVp, @object
	.size	ppSpriteVp, 4
ppSpriteVp:
	.zero	4
	.type	ppSpriteFp, @object
	.size	ppSpriteFp, 4
ppSpriteFp:
	.zero	4
	.type	numPostProcessQuads, @object
	.size	numPostProcessQuads, 4
numPostProcessQuads:
	.zero	4
	.type	postProcessQuads, @object
	.size	postProcessQuads, 15360
postProcessQuads:
	.zero	15360
	.section	".text"
.Letext0:
	.file 2 "c:\\utils\\devkitpro\\devkitppc\\bin\\../lib/gcc/powerpc-eabi/4.6.3/../../../../powerpc-eabi/include/machine/_types.h"
	.file 3 "c:\\utils\\devkitpro\\devkitppc\\bin\\../lib/gcc/powerpc-eabi/4.6.3/../../../../powerpc-eabi/include/sys/lock.h"
	.file 4 "c:\\utils\\devkitpro\\devkitppc\\bin\\../lib/gcc/powerpc-eabi/4.6.3/include/stddef.h"
	.file 5 "c:\\utils\\devkitpro\\devkitppc\\bin\\../lib/gcc/powerpc-eabi/4.6.3/../../../../powerpc-eabi/include/sys/_types.h"
	.file 6 "c:\\utils\\devkitpro\\devkitppc\\bin\\../lib/gcc/powerpc-eabi/4.6.3/../../../../powerpc-eabi/include/sys/reent.h"
	.file 7 "c:\\utils\\devkitpro\\devkitppc\\bin\\../lib/gcc/powerpc-eabi/4.6.3/../../../../powerpc-eabi/include/stdio.h"
	.file 8 "d:/Data/Nintendo/TenebraeGX/src/common.h"
	.file 9 "d:/Data/Nintendo/TenebraeGX/src/bspfile.h"
	.file 10 "d:/Data/Nintendo/TenebraeGX/src/vid.h"
	.file 11 "d:/Data/Nintendo/TenebraeGX/src/zone.h"
	.file 12 "d:/Data/Nintendo/TenebraeGX/src/mathlib.h"
	.file 13 "d:/Data/Nintendo/TenebraeGX/src/quakedef.h"
	.file 14 "d:/Data/Nintendo/TenebraeGX/src/cvar.h"
	.file 15 "d:/Data/Nintendo/TenebraeGX/src/sound.h"
	.file 16 "d:/Data/Nintendo/TenebraeGX/src/render.h"
	.file 17 "d:/Data/Nintendo/TenebraeGX/src/gl_model.h"
	.file 18 "d:/Data/Nintendo/TenebraeGX/src/glquake.h"
	.file 19 "d:/Data/Nintendo/TenebraeGX/src/client.h"
	.file 20 "d:/Data/Nintendo/TenebraeGX/src/pr_comp.h"
	.file 21 "d:/Data/Nintendo/TenebraeGX/src/progdefs.h"
	.file 22 "d:/Data/Nintendo/TenebraeGX/src/progs.h"
	.file 23 "d:/Data/Nintendo/TenebraeGX/src/server.h"
	.file 24 "d:/Data/Nintendo/TenebraeGX/src/modelgen.h"
	.file 25 "d:/Data/Nintendo/TenebraeGX/src/world.h"
	.file 26 "c:/utils/devkitPro/libogc/include/ogc/gx.h"
	.file 27 "d:/Data/Nintendo/TenebraeGX/src/te_scripts.h"