	.file	"sv_move.c"
	.section	".text"
.Ltext0:
	.cfi_sections	.debug_frame
	.align 2
	.globl SV_CheckBottom
	.type	SV_CheckBottom, @function
SV_CheckBottom:
.LFB38:
	.file 1 "d:/Data/Nintendo/TenebraeGX/src/sv_move.c"
	.loc 1 38 0
	.cfi_startproc
.LVL0:
	mflr 0
	stwu 1,-152(1)
.LCFI0:
	.cfi_def_cfa_offset 152
	.cfi_register 65, 0
	mfcr 12
	stfd 27,112(1)
	stw 0,156(1)
	stw 30,104(1)
	.loc 1 50 0
	lis 30,.LC0@ha
	.cfi_offset 30, -48
	.cfi_offset 65, 4
	.cfi_offset 59, -40
	.cfi_register 70, 12
	.loc 1 44 0
	lfs 0,744(3)
	lfs 27,652(3)
	lfs 13,644(3)
	fadds 27,27,0
	.loc 1 38 0
	stfd 30,136(1)
	.loc 1 44 0
	lfs 0,648(3)
	lfs 30,736(3)
	.cfi_offset 62, -16
	.loc 1 38 0
	stfd 31,144(1)
	.loc 1 50 0
	lfs 12,.LC0@l(30)
	.loc 1 44 0
	fadds 30,13,30
.LVL1:
	lfs 31,740(3)
	.cfi_offset 63, -8
	.loc 1 50 0
	fsubs 12,27,12
	.loc 1 38 0
	stfd 28,120(1)
	.loc 1 44 0
	fadds 31,0,31
.LVL2:
	.loc 1 45 0
	lfs 28,748(3)
	.cfi_offset 60, -32
	.loc 1 38 0
	stfd 29,128(1)
	.loc 1 45 0
	lfs 29,752(3)
	.cfi_offset 61, -24
	fadds 28,13,28
.LVL3:
	.loc 1 38 0
	stw 31,108(1)
	mr 31,3
	.cfi_offset 31, -44
	.loc 1 56 0
	addi 3,1,20
.LVL4:
	.loc 1 38 0
	stw 26,88(1)
	stw 27,92(1)
	.loc 1 45 0
	fadds 29,0,29
.LVL5:
	.loc 1 38 0
	stw 28,96(1)
	stw 29,100(1)
	stw 12,84(1)
	.loc 1 50 0
	stfs 12,28(1)
.LVL6:
	.loc 1 54 0
	stfs 30,20(1)
	.loc 1 55 0
	stfs 31,24(1)
	.loc 1 56 0
	.cfi_offset 70, -68
	.cfi_offset 29, -52
	.cfi_offset 28, -56
	.cfi_offset 27, -60
	.cfi_offset 26, -64
	bl SV_PointContents
	cmpwi 7,3,-2
	bne- 7,.L2
.LVL7:
	addi 3,1,20
	.loc 1 54 0
	stfs 30,20(1)
	.loc 1 55 0
	stfs 29,24(1)
	.loc 1 56 0
	bl SV_PointContents
	cmpwi 7,3,-2
	bne- 7,.L2
.LVL8:
	addi 3,1,20
	.loc 1 54 0
	stfs 28,20(1)
	.loc 1 55 0
	stfs 31,24(1)
	.loc 1 56 0
	bl SV_PointContents
	cmpwi 7,3,-2
	bne- 7,.L2
.LVL9:
	addi 3,1,20
	.loc 1 54 0
	stfs 28,20(1)
	.loc 1 55 0
	stfs 29,24(1)
	.loc 1 56 0
	bl SV_PointContents
	cmpwi 7,3,-2
	bne- 7,.L2
.LVL10:
.L8:
	.loc 1 95 0
	lis 9,c_yes@ha
	.loc 1 96 0
	li 3,1
	.loc 1 95 0
	lwz 11,c_yes@l(9)
	addi 0,11,1
	stw 0,c_yes@l(9)
.L3:
	.loc 1 97 0
	lwz 0,156(1)
	lwz 12,84(1)
	mtlr 0
	lwz 26,88(1)
	lwz 27,92(1)
	mtcrf 8,12
	lwz 28,96(1)
	lwz 29,100(1)
	lwz 30,104(1)
	lwz 31,108(1)
.LVL11:
	lfd 27,112(1)
	lfd 28,120(1)
.LVL12:
	lfd 29,128(1)
.LVL13:
	lfd 30,136(1)
.LVL14:
	lfd 31,144(1)
.LVL15:
	addi 1,1,152
	.cfi_remember_state
.LCFI1:
	.cfi_def_cfa_offset 0
	.cfi_restore 70
	.cfi_restore 63
	.cfi_restore 62
	.cfi_restore 61
	.cfi_restore 60
	.cfi_restore 59
	.cfi_restore 31
	.cfi_restore 30
	.cfi_restore 29
	.cfi_restore 28
	.cfi_restore 27
	.cfi_restore 26
	blr
.LVL16:
.L2:
.LCFI2:
	.cfi_restore_state
	.loc 1 72 0
	fadds 12,31,29
	.loc 1 71 0
	lis 9,.LC1@ha
	fadds 13,30,28
	lfs 0,.LC1@l(9)
	.loc 1 73 0
	lis 10,.LC2@ha
	.loc 1 64 0
	lis 11,c_no@ha
	lwz 9,c_no@l(11)
	.loc 1 74 0
	lis 29,vec3_origin@ha
	.loc 1 71 0
	fmuls 13,13,0
	.loc 1 74 0
	la 29,vec3_origin@l(29)
	.loc 1 72 0
	fmuls 0,12,0
	.loc 1 73 0
	lfs 12,.LC2@l(10)
	.loc 1 64 0
	addi 0,9,1
	.loc 1 74 0
	addi 3,1,32
	.loc 1 73 0
	fsubs 12,27,12
	.loc 1 74 0
	addi 4,1,20
	mr 5,29
	mr 6,29
	addi 7,1,8
	li 8,1
	mr 9,31
	.loc 1 68 0
	stfs 27,28(1)
	.loc 1 71 0
	stfs 13,8(1)
	stfs 13,20(1)
	.loc 1 72 0
	stfs 0,12(1)
	stfs 0,24(1)
	.loc 1 64 0
	stw 0,c_no@l(11)
	.loc 1 73 0
	stfs 12,16(1)
	.loc 1 74 0
	bl SV_Move
.LVL17:
	.loc 1 76 0
	lfs 0,.LC0@l(30)
	.loc 1 77 0
	li 3,0
	.loc 1 76 0
	lfs 13,36(1)
	.loc 1 74 0
	lfs 27,48(1)
.LVL18:
	.loc 1 76 0
	fcmpu 7,13,0
	beq- 7,.L3
	lis 27,.LC0@ha
	li 28,0
	la 27,.LC0@l(27)
	.loc 1 91 0
	lis 26,.LC3@ha
.L4:
.LVL19:
	cmpwi 4,28,0
	.loc 1 38 0 discriminator 1
	li 30,0
.LVL20:
.L7:
	.loc 1 84 0
	bne- 4,.L10
	stfs 30,72(1)
	lwz 11,72(1)
.L5:
	.loc 1 85 0 discriminator 3
	cmpwi 7,30,0
	stfs 31,72(1)
	.loc 1 87 0 discriminator 3
	addi 3,1,32
	addi 4,1,20
	mr 5,29
	mr 6,29
	addi 7,1,8
	li 8,1
	mr 9,31
	.loc 1 85 0 discriminator 3
	lwz 0,72(1)
	.loc 1 84 0 discriminator 3
	stw 11,8(1)
	stw 11,20(1)
	.loc 1 85 0 discriminator 3
	beq- 7,.L6
	.loc 1 85 0 is_stmt 0
	stfs 29,72(1)
	lwz 0,72(1)
.L6:
	.loc 1 85 0 discriminator 3
	stw 0,12(1)
	stw 0,24(1)
	.loc 1 87 0 is_stmt 1 discriminator 3
	bl SV_Move
	.loc 1 91 0 discriminator 3
	lfs 0,0(27)
	.loc 1 82 0 discriminator 3
	cmpwi 6,30,1
	.loc 1 91 0 discriminator 3
	lfs 13,36(1)
	.loc 1 82 0 discriminator 3
	addi 30,30,1
	.loc 1 91 0 discriminator 3
	fcmpu 7,13,0
	.loc 1 87 0 discriminator 3
	lfs 0,48(1)
	.loc 1 91 0 discriminator 3
	beq- 7,.L13
	.loc 1 91 0 is_stmt 0 discriminator 1
	fsubs 0,27,0
	lfs 13,.LC3@l(26)
	fcmpu 7,0,13
	bgt- 7,.L13
	.loc 1 82 0 is_stmt 1
	bne- 6,.L7
.LVL21:
	.loc 1 81 0
	cmpwi 7,28,1
	addi 28,28,1
.LVL22:
	beq+ 7,.L8
	b .L4
.LVL23:
.L10:
	.loc 1 84 0
	stfs 28,72(1)
	lwz 11,72(1)
	b .L5
.L13:
	.loc 1 92 0
	li 3,0
	b .L3
	.cfi_endproc
.LFE38:
	.size	SV_CheckBottom, .-SV_CheckBottom
	.align 2
	.globl SV_movestep
	.type	SV_movestep, @function
SV_movestep:
.LFB39:
	.loc 1 111 0
	.cfi_startproc
.LVL24:
	mflr 0
	stwu 1,-264(1)
.LCFI3:
	.cfi_def_cfa_offset 264
	.cfi_register 65, 0
	.loc 1 123 0
	addi 9,1,164
	.loc 1 111 0
	stfd 29,240(1)
	stw 0,268(1)
	stfd 30,248(1)
	.loc 1 123 0
	lfs 0,908(3)
	.loc 1 111 0
	stfd 31,256(1)
	.loc 1 123 0
	fctiwz 0,0
	.loc 1 111 0
	stw 20,184(1)
	stw 30,224(1)
	mr 20,5
	.cfi_offset 30, -40
	.cfi_offset 20, -80
	.cfi_offset 63, -8
	.cfi_offset 62, -16
	.cfi_offset 65, 4
	.cfi_offset 61, -24
	stw 31,228(1)
	mr 30,4
	.loc 1 119 0
	lfs 29,644(3)
.LVL25:
	.loc 1 111 0
	mr 31,3
	.cfi_offset 31, -36
	stfd 28,232(1)
	stw 19,180(1)
	stw 21,188(1)
	stw 22,192(1)
	stw 23,196(1)
	stw 24,200(1)
	stw 25,204(1)
	stw 26,208(1)
	stw 27,212(1)
	stw 28,216(1)
	stw 29,220(1)
	.loc 1 123 0
	stfiwx 0,0,9
	lwz 0,164(1)
	.loc 1 119 0
	lfs 30,648(3)
.LVL26:
	.loc 1 120 0
	lfs 13,0(4)
	.loc 1 123 0
	andi. 9,0,3
	.loc 1 120 0
	lfs 0,4(4)
	fadds 13,29,13
	.loc 1 119 0
	lfs 31,652(3)
.LVL27:
	.loc 1 120 0
	fadds 0,30,0
	lfs 12,8(4)
	stfs 13,20(1)
	fadds 12,31,12
	stfs 0,24(1)
	.loc 1 123 0
	beq- 0,.L17
	.cfi_offset 29, -44
	.cfi_offset 28, -48
	.cfi_offset 27, -52
	.cfi_offset 26, -56
	.cfi_offset 25, -60
	.cfi_offset 24, -64
	.cfi_offset 23, -68
	.cfi_offset 22, -72
	.cfi_offset 21, -76
	.cfi_offset 19, -84
	.cfi_offset 60, -32
.LVL28:
	lis 27,sv@ha
	lis 26,.LC0@ha
	la 27,sv@l(27)
	li 29,0
	lwz 0,3500(27)
	addi 23,3,644
	addi 24,3,736
.LVL29:
	addi 25,3,748
	la 26,.LC0@l(26)
	.loc 1 133 0
	lis 21,.LC4@ha
	.loc 1 135 0
	lis 22,.LC6@ha
	.loc 1 136 0
	lis 19,.LC5@ha
.LVL30:
.L25:
	.loc 1 130 0
	cmpwi 7,29,0
	.loc 1 129 0
	lwz 28,904(31)
	.loc 1 138 0
	mr 5,24
	mr 6,25
	.loc 1 129 0
	add 28,0,28
.LVL31:
	.loc 1 138 0
	addi 7,1,20
	li 8,0
	mr 9,31
	addi 3,1,80
	mr 4,23
	.loc 1 128 0
	stfs 12,28(1)
	.loc 1 130 0
	cmpw 6,28,0
	.loc 1 128 0
	stfs 13,20(1)
	stfs 0,24(1)
	.loc 1 130 0
	bne- 7,.L18
	.loc 1 130 0 is_stmt 0 discriminator 1
	beq- 6,.L18
	.loc 1 132 0 is_stmt 1
	lfs 0,652(28)
	.loc 1 133 0
	lfs 13,.LC4@l(21)
	.loc 1 132 0
	fsubs 31,31,0
.LVL32:
	.loc 1 135 0
	lfs 0,.LC6@l(22)
	.loc 1 133 0
	fcmpu 6,31,13
	.loc 1 135 0
	fcmpu 7,31,0
	.loc 1 133 0
	bng- 6,.L19
	.loc 1 134 0
	lfs 0,.LC5@l(19)
	fsubs 12,12,0
	stfs 12,28(1)
.L19:
	.loc 1 135 0
	blt- 7,.L45
.LVL33:
.L18:
	.loc 1 138 0
	bl SV_Move
	addi 3,1,32
	addi 4,1,80
	li 5,40
	bl memcpy
	.loc 1 140 0
	lfs 0,0(26)
	lfs 13,36(1)
	.loc 1 126 0
	cmpwi 6,29,1
	addi 29,29,1
	.loc 1 140 0
	fcmpu 7,13,0
	beq- 7,.L46
	.loc 1 151 0
	lwz 0,3500(27)
	cmpw 7,0,28
	beq- 7,.L35
	.loc 1 126 0
	bne- 6,.L47
.L35:
	.loc 1 155 0
	li 29,0
.LVL34:
.L24:
	.loc 1 218 0
	lwz 0,268(1)
	mr 3,29
	lwz 19,180(1)
	mtlr 0
	lwz 20,184(1)
	lwz 21,188(1)
	lwz 22,192(1)
	lwz 23,196(1)
	lwz 24,200(1)
	lwz 25,204(1)
	lwz 26,208(1)
	lwz 27,212(1)
	lwz 28,216(1)
	lwz 29,220(1)
	lwz 30,224(1)
.LVL35:
	lwz 31,228(1)
.LVL36:
	lfd 28,232(1)
	lfd 29,240(1)
	lfd 30,248(1)
	lfd 31,256(1)
	addi 1,1,264
	.cfi_remember_state
.LCFI4:
	.cfi_def_cfa_offset 0
	.cfi_restore 63
	.cfi_restore 62
	.cfi_restore 61
	.cfi_restore 60
	.cfi_restore 31
	.cfi_restore 30
	.cfi_restore 29
	.cfi_restore 28
	.cfi_restore 27
	.cfi_restore 26
	.cfi_restore 25
	.cfi_restore 24
	.cfi_restore 23
	.cfi_restore 22
	.cfi_restore 21
	.cfi_restore 20
	.cfi_restore 19
	blr
.LVL37:
.L47:
.LCFI5:
	.cfi_restore_state
	.loc 1 126 0
	lfs 29,644(31)
	lfs 13,0(30)
	lfs 30,648(31)
	lfs 0,4(30)
	fadds 13,29,13
	lfs 31,652(31)
	lfs 12,8(30)
	fadds 0,30,0
	fadds 12,31,12
	b .L25
.LVL38:
.L45:
	.loc 1 136 0
	lfs 13,28(1)
	lfs 0,.LC5@l(19)
	fadds 0,13,0
	stfs 0,28(1)
	b .L18
.LVL39:
.L17:
	.loc 1 159 0
	lis 9,.LC3@ha
	.loc 1 163 0
	addi 27,3,736
	.loc 1 159 0
	lfs 28,.LC3@l(9)
	.loc 1 161 0
	lis 9,.LC2@ha
	lfs 11,.LC2@l(9)
	.loc 1 163 0
	addi 28,3,748
	.loc 1 159 0
	fadds 12,12,28
	.loc 1 163 0
	addi 3,1,80
	addi 4,1,20
	mr 5,27
.LVL40:
	mr 6,28
	addi 7,1,8
	.loc 1 161 0
	fsubs 11,12,11
	.loc 1 163 0
	li 8,0
	mr 9,31
	.loc 1 159 0
	stfs 12,28(1)
	.loc 1 160 0
	stfs 13,8(1)
	.loc 1 166 0
	li 29,0
	.loc 1 160 0
	stfs 0,12(1)
	.loc 1 161 0
	stfs 11,16(1)
	.loc 1 163 0
	bl SV_Move
	addi 3,1,32
	addi 4,1,80
	li 5,40
	bl memcpy
	.loc 1 165 0
	lbz 0,32(1)
	cmpwi 7,0,0
	bne- 7,.L24
	.loc 1 168 0
	lbz 0,33(1)
	cmpwi 7,0,0
	bne- 7,.L48
.L26:
	.loc 1 175 0
	lis 9,.LC0@ha
	lfs 13,36(1)
	lfs 0,.LC0@l(9)
	fcmpu 7,13,0
	bne- 7,.L27
	.loc 1 178 0
	lfs 0,908(31)
	addi 9,1,156
	.loc 1 188 0
	li 29,0
	.loc 1 178 0
	fctiwz 0,0
	stfiwx 0,0,9
	lwz 0,156(1)
	andi. 9,0,1024
	beq- 0,.L24
	.loc 1 180 0
	lfs 0,0(30)
	.loc 1 181 0
	cmpwi 7,20,0
	.loc 1 180 0
	lfs 13,644(31)
	lfs 12,648(31)
	fadds 0,13,0
	lfs 13,652(31)
	stfs 0,644(31)
	lfs 0,4(30)
	fadds 0,12,0
	stfs 0,648(31)
	lfs 0,8(30)
	fadds 0,13,0
	stfs 0,652(31)
	.loc 1 181 0
	bne- 7,.L49
.L28:
	.loc 1 183 0
	rlwinm 0,0,0,23,21
	lis 9,.LC8@ha
	xoris 0,0,0x8000
	lfs 0,.LC8@l(9)
	stw 0,132(1)
	lis 0,0x4330
	stw 0,128(1)
	.loc 1 185 0
	li 29,1
	.loc 1 183 0
	lfd 13,128(1)
	fsub 0,13,0
	frsp 0,0
	stfs 0,908(31)
	.loc 1 185 0
	b .L24
.L48:
	.loc 1 170 0
	lfs 0,28(1)
	.loc 1 171 0
	mr 5,27
	mr 6,28
	addi 7,1,8
	.loc 1 170 0
	fsubs 28,0,28
	.loc 1 171 0
	li 8,0
	mr 9,31
	addi 3,1,80
	addi 4,1,20
	.loc 1 170 0
	stfs 28,28(1)
	.loc 1 171 0
	bl SV_Move
	addi 3,1,32
	addi 4,1,80
	li 5,40
	bl memcpy
	.loc 1 172 0
	lbz 0,32(1)
	cmpwi 7,0,0
	bne- 7,.L24
	.loc 1 172 0 is_stmt 0 discriminator 1
	lbz 0,33(1)
	cmpwi 7,0,0
	beq+ 7,.L26
	b .L24
.L49:
	.loc 1 182 0 is_stmt 1
	mr 3,31
	li 4,1
	bl SV_LinkEdict
	lfs 0,908(31)
	addi 9,1,152
	fctiwz 0,0
	stfiwx 0,0,9
	lwz 0,152(1)
	b .L28
.L27:
	.loc 1 192 0
	lwz 0,40(1)
	.loc 1 194 0
	mr 3,31
	.loc 1 192 0
	stw 0,644(31)
	lwz 0,44(1)
	stw 0,648(31)
	lwz 0,48(1)
	stw 0,652(31)
	.loc 1 194 0
	bl SV_CheckBottom
	.loc 1 196 0
	lfs 0,908(31)
	.loc 1 194 0
	cmpwi 7,3,0
	.loc 1 196 0
	fctiwz 0,0
	.loc 1 194 0
	bne- 7,.L29
	.loc 1 196 0
	addi 9,1,148
	stfiwx 0,0,9
	lwz 0,148(1)
	andi. 9,0,1024
	beq- 0,.L30
	.loc 1 199 0
	cmpwi 7,20,0
	.loc 1 201 0
	li 29,1
	.loc 1 199 0
	beq+ 7,.L24
.LVL41:
.L44:
	.loc 1 216 0
	mr 3,31
	li 4,1
	bl SV_LinkEdict
	b .L24
.LVL42:
.L46:
	.loc 1 142 0
	lfs 0,908(31)
	addi 9,1,160
	fctiwz 0,0
	stfiwx 0,0,9
	lwz 0,160(1)
	andi. 9,0,2
	bne- 0,.L50
.L23:
	.loc 1 145 0
	lwz 0,40(1)
	.loc 1 146 0
	cmpwi 7,20,0
	.loc 1 148 0
	li 29,1
	.loc 1 145 0
	stw 0,644(31)
	lwz 0,44(1)
	stw 0,648(31)
	lwz 0,48(1)
	stw 0,652(31)
	.loc 1 146 0
	beq+ 7,.L24
	b .L44
.LVL43:
.L29:
	.loc 1 207 0
	addi 9,1,144
	stfiwx 0,0,9
	lwz 0,144(1)
	andi. 9,0,1024
	beq- 0,.L31
	.loc 1 210 0
	rlwinm 0,0,0,22,20
	lis 9,.LC8@ha
	xoris 0,0,0x8000
	lfs 0,.LC8@l(9)
	stw 0,140(1)
	lis 0,0x4330
	stw 0,136(1)
	lfd 13,136(1)
	fsub 0,13,0
	frsp 0,0
	stfs 0,908(31)
.L31:
	.loc 1 212 0
	lis 9,sv+3500@ha
	.loc 1 215 0
	cmpwi 7,20,0
	.loc 1 212 0
	lwz 0,sv+3500@l(9)
	.loc 1 217 0
	li 29,1
	.loc 1 212 0
	lwz 9,68(1)
	subf 0,0,9
	stw 0,792(31)
	.loc 1 215 0
	beq+ 7,.L24
	b .L44
.LVL44:
.L50:
	.loc 1 142 0 discriminator 1
	addi 3,1,40
	.loc 1 143 0 discriminator 1
	li 29,0
	.loc 1 142 0 discriminator 1
	bl SV_PointContents
	cmpwi 7,3,-1
	bne+ 7,.L23
	b .L24
.LVL45:
.L30:
	.loc 1 203 0
	stfs 29,644(31)
	.loc 1 204 0
	li 29,0
	.loc 1 203 0
	stfs 30,648(31)
	stfs 31,652(31)
	.loc 1 204 0
	b .L24
	.cfi_endproc
.LFE39:
	.size	SV_movestep, .-SV_movestep
	.align 2
	.globl SV_StepDirection
	.type	SV_StepDirection, @function
SV_StepDirection:
.LFB40:
	.loc 1 234 0
	.cfi_startproc
.LVL46:
	stwu 1,-56(1)
.LCFI6:
	.cfi_def_cfa_offset 56
	mflr 0
	stw 31,36(1)
	mr 31,3
	.cfi_offset 31, -20
	.cfi_register 65, 0
	stw 0,60(1)
	stfd 30,40(1)
	fmr 30,1
	.cfi_offset 62, -16
	.cfi_offset 65, 4
	stfd 31,48(1)
	fmr 31,2
	.cfi_offset 63, -8
	stw 28,24(1)
	stw 29,28(1)
	stw 30,32(1)
	.loc 1 238 0
	stfs 1,944(31)
	.loc 1 239 0
	.cfi_offset 30, -24
	.cfi_offset 29, -28
	.cfi_offset 28, -32
	bl PF_changeyaw
.LVL47:
	.loc 1 241 0
	lis 9,.LC9@ha
	lfd 0,.LC9@l(9)
	lis 9,.LC11@ha
	fmul 30,30,0
.LVL48:
	lfs 0,.LC11@l(9)
	fadd 30,30,30
	fdiv 30,30,0
.LVL49:
	frsp 30,30
.LVL50:
	.loc 1 242 0
	fmr 1,30
	bl cos
	fmul 0,1,31
	.loc 1 243 0
	fmr 1,30
	.loc 1 242 0
	frsp 0,0
	stfs 0,8(1)
	.loc 1 243 0
	bl sin
	fmul 31,31,1
.LVL51:
	.loc 1 244 0
	li 0,0
	.loc 1 247 0
	mr 3,31
	addi 4,1,8
	li 5,0
	.loc 1 244 0
	stw 0,16(1)
	.loc 1 246 0
	lwz 28,644(31)
.LVL52:
	.loc 1 243 0
	frsp 31,31
	.loc 1 246 0
	lwz 29,648(31)
.LVL53:
	lwz 30,652(31)
.LVL54:
	.loc 1 243 0
	stfs 31,12(1)
	.loc 1 247 0
	bl SV_movestep
.LVL55:
	cmpwi 7,3,0
	beq- 7,.L52
	.loc 1 249 0
	lfs 13,684(31)
	.loc 1 250 0
	lis 9,.LC12@ha
	.loc 1 249 0
	lfs 0,944(31)
	fsubs 0,13,0
.LVL56:
	.loc 1 250 0
	lfs 13,.LC12@l(9)
	fcmpu 7,0,13
	bng- 7,.L53
	.loc 1 250 0 is_stmt 0 discriminator 1
	lis 9,.LC13@ha
	lfs 13,.LC13@l(9)
	fcmpu 7,0,13
	bnl- 7,.L53
	.loc 1 252 0 is_stmt 1
	stw 28,644(31)
	stw 29,648(31)
	stw 30,652(31)
.L53:
	.loc 1 254 0
	mr 3,31
	li 4,1
	bl SV_LinkEdict
.LVL57:
	.loc 1 260 0
	lwz 0,60(1)
	lwz 28,24(1)
.LVL58:
	.loc 1 255 0
	li 3,1
	.loc 1 260 0
	mtlr 0
	lwz 29,28(1)
.LVL59:
	lwz 30,32(1)
.LVL60:
	lwz 31,36(1)
.LVL61:
	lfd 30,40(1)
.LVL62:
	lfd 31,48(1)
	addi 1,1,56
	.cfi_remember_state
.LCFI7:
	.cfi_def_cfa_offset 0
	.cfi_restore 63
	.cfi_restore 62
	.cfi_restore 31
	.cfi_restore 30
	.cfi_restore 29
	.cfi_restore 28
	blr
.LVL63:
.L52:
.LCFI8:
	.cfi_restore_state
	.loc 1 257 0
	mr 3,31
	li 4,1
	bl SV_LinkEdict
	.loc 1 260 0
	lwz 0,60(1)
	lwz 28,24(1)
.LVL64:
	.loc 1 259 0
	li 3,0
	.loc 1 260 0
	mtlr 0
	lwz 29,28(1)
.LVL65:
	lwz 30,32(1)
.LVL66:
	lwz 31,36(1)
.LVL67:
	lfd 30,40(1)
.LVL68:
	lfd 31,48(1)
	addi 1,1,56
	.cfi_restore 28
	.cfi_restore 29
	.cfi_restore 30
	.cfi_restore 31
	.cfi_restore 62
	.cfi_restore 63
.LCFI9:
	.cfi_def_cfa_offset 0
	blr
	.cfi_endproc
.LFE40:
	.size	SV_StepDirection, .-SV_StepDirection
	.align 2
	.globl SV_FixCheckBottom
	.type	SV_FixCheckBottom, @function
SV_FixCheckBottom:
.LFB41:
	.loc 1 269 0
	.cfi_startproc
.LVL69:
	.loc 1 272 0
	lfs 0,908(3)
	lis 0,0x4330
	.loc 1 269 0
	stwu 1,-24(1)
.LCFI10:
	.cfi_def_cfa_offset 24
	.loc 1 272 0
	fctiwz 0,0
	addi 9,1,16
	stw 0,8(1)
	stfiwx 0,0,9
	lis 9,.LC8@ha
	lfs 0,.LC8@l(9)
	lwz 0,16(1)
	ori 0,0,1024
	xoris 0,0,0x8000
	stw 0,12(1)
	lfd 13,8(1)
	.loc 1 273 0
	addi 1,1,24
.LCFI11:
	.cfi_def_cfa_offset 0
	.loc 1 272 0
	fsub 0,13,0
	frsp 0,0
	stfs 0,908(3)
	.loc 1 273 0
	blr
	.cfi_endproc
.LFE41:
	.size	SV_FixCheckBottom, .-SV_FixCheckBottom
	.align 2
	.globl SV_NewChaseDir
	.type	SV_NewChaseDir, @function
SV_NewChaseDir:
.LFB42:
	.loc 1 285 0
	.cfi_startproc
.LVL70:
	mflr 0
	stwu 1,-120(1)
.LCFI12:
	.cfi_def_cfa_offset 120
	.cfi_register 65, 0
	stw 31,60(1)
	.loc 1 290 0
	lis 31,.LC12@ha
	.cfi_offset 31, -60
	.loc 1 285 0
	stw 0,124(1)
	.loc 1 290 0
	addi 9,1,36
	lfs 0,.LC12@l(31)
	lis 0,0x4330
	.cfi_offset 65, 4
	lfs 13,944(3)
	.loc 1 285 0
	stfd 25,64(1)
	.loc 1 290 0
	fdivs 13,13,0
	stw 0,8(1)
	.loc 1 285 0
	stfd 26,72(1)
	stfd 27,80(1)
	stfd 29,96(1)
	stfd 30,104(1)
	stfd 31,112(1)
	stw 28,48(1)
	mr 28,4
	.cfi_offset 28, -72
	.cfi_offset 63, -8
	.cfi_offset 62, -16
	.cfi_offset 61, -24
	.cfi_offset 59, -40
	.cfi_offset 58, -48
	.cfi_offset 57, -56
	stw 29,52(1)
	.loc 1 290 0
	lis 29,.LC8@ha
	.cfi_offset 29, -68
	.loc 1 285 0
	stw 30,56(1)
	mr 30,3
	.cfi_offset 30, -64
	stfd 28,88(1)
	.loc 1 290 0
	lfs 0,.LC8@l(29)
	fctiwz 13,13
	.loc 1 285 0
	fmr 29,1
	.loc 1 290 0
	stfiwx 13,0,9
	lwz 0,36(1)
	mulli 0,0,45
	xoris 0,0,0x8000
	stw 0,12(1)
	lfd 13,8(1)
	fsub 0,13,0
	frsp 1,0
.LVL71:
	.cfi_offset 60, -32
	bl anglemod
.LVL72:
	.loc 1 291 0
	lis 9,.LC14@ha
	lfs 31,.LC14@l(9)
	.loc 1 290 0
	fmr 27,1
.LVL73:
	.loc 1 291 0
	fsubs 1,1,31
.LVL74:
	bl anglemod
	.loc 1 293 0
	lfs 0,644(30)
	lfs 26,644(28)
	.loc 1 295 0
	lis 9,.LC20@ha
	.loc 1 294 0
	lfs 25,648(28)
	.loc 1 291 0
	fmr 30,1
.LVL75:
	.loc 1 293 0
	fsubs 26,26,0
.LVL76:
	.loc 1 295 0
	lfs 0,.LC20@l(9)
	fcmpu 7,26,0
	.loc 1 294 0
	lfs 0,648(30)
	fsubs 25,25,0
.LVL77:
	.loc 1 295 0
	bgt- 7,.L79
	.loc 1 297 0
	lis 11,.LC21@ha
	lis 28,.LC15@ha
.LVL78:
	lfs 0,.LC21@l(11)
	fcmpu 7,26,0
	bnl- 7,.L92
.L61:
.LVL79:
	.loc 1 301 0
	lfs 0,.LC21@l(11)
	fcmpu 7,25,0
	blt- 7,.L81
	.loc 1 303 0
	lfs 0,.LC20@l(9)
	.loc 1 306 0
	lfs 28,.LC15@l(28)
	.loc 1 303 0
	fcmpu 7,25,0
	bgt- 7,.L94
.L63:
.LVL80:
	.loc 1 309 0
	lfs 0,.LC15@l(28)
	fcmpu 7,31,0
	beq- 7,.L65
	.loc 1 309 0 is_stmt 0 discriminator 1
	fcmpu 7,28,0
	beq- 7,.L65
	.loc 1 311 0 is_stmt 1
	lis 9,.LC22@ha
	lfs 0,.LC22@l(9)
	.loc 1 312 0
	lis 9,.LC17@ha
	.loc 1 311 0
	fcmpu 7,31,0
	.loc 1 312 0
	lfs 0,.LC17@l(9)
	.loc 1 311 0
	beq- 7,.L95
	.loc 1 314 0
	fcmpu 7,28,0
	bne- 7,.L84
	lis 9,.LC19@ha
	lfs 1,.LC19@l(9)
.LVL81:
.L67:
	.loc 1 316 0
	fcmpu 7,1,30
	beq+ 7,.L65
	.loc 1 316 0 is_stmt 0 discriminator 1
	fmr 2,29
	mr 3,30
	bl SV_StepDirection
.LVL82:
	cmpwi 7,3,0
	bne- 7,.L60
.L65:
	.loc 1 321 0 is_stmt 1
	bl rand
	andi. 11,3,1
	beq- 0,.L96
.LVL83:
.L86:
	stfs 31,44(1)
	.loc 1 324 0
	fmr 31,28
.LVL84:
	.loc 1 325 0
	lfs 28,44(1)
.LVL85:
.L69:
	.loc 1 328 0
	lfs 0,.LC15@l(28)
	fcmpu 7,31,0
	beq- 7,.L70
	.loc 1 328 0 is_stmt 0 discriminator 1
	fcmpu 7,30,31
	bne- 7,.L97
.L70:
	.loc 1 332 0 is_stmt 1
	lfs 0,.LC15@l(28)
	fcmpu 7,28,0
	beq- 7,.L71
	.loc 1 332 0 is_stmt 0 discriminator 1
	fcmpu 7,30,28
	bne- 7,.L98
.L71:
	.loc 1 338 0 is_stmt 1
	lfs 0,.LC15@l(28)
	fcmpu 7,27,0
	beq- 7,.L72
	.loc 1 338 0 is_stmt 0 discriminator 1
	fmr 1,27
	mr 3,30
	fmr 2,29
	bl SV_StepDirection
	cmpwi 7,3,0
	bne- 7,.L60
.L72:
	.loc 1 341 0 is_stmt 1
	bl rand
	andi. 0,3,1
	beq- 0,.L87
	li 9,8
	lis 11,.LC22@ha
	stw 9,40(1)
	lfs 31,.LC22@l(11)
.LVL86:
	b .L75
.L74:
	.loc 1 343 0
	lwz 0,40(1)
	lfs 0,.LC12@l(31)
	addic. 9,0,-1
	fadds 31,31,0
.LVL87:
	stw 9,40(1)
	beq- 0,.L76
.LVL88:
.L75:
	.loc 1 344 0
	fcmpu 7,31,30
	beq+ 7,.L74
	.loc 1 344 0 is_stmt 0 discriminator 1
	fmr 1,31
	mr 3,30
	fmr 2,29
	bl SV_StepDirection
	cmpwi 7,3,0
	beq+ 7,.L74
.L60:
	.loc 1 365 0 is_stmt 1
	lwz 0,124(1)
	lwz 28,48(1)
	mtlr 0
	lwz 29,52(1)
	lwz 30,56(1)
.LVL89:
	lwz 31,60(1)
	lfd 25,64(1)
	lfd 26,72(1)
	lfd 27,80(1)
.LVL90:
	lfd 28,88(1)
.LVL91:
	lfd 29,96(1)
.LVL92:
	lfd 30,104(1)
.LVL93:
	lfd 31,112(1)
	addi 1,1,120
	.cfi_remember_state
.LCFI13:
	.cfi_def_cfa_offset 0
	.cfi_restore 63
	.cfi_restore 62
	.cfi_restore 61
	.cfi_restore 60
	.cfi_restore 59
	.cfi_restore 58
	.cfi_restore 57
	.cfi_restore 31
	.cfi_restore 30
	.cfi_restore 29
	.cfi_restore 28
	blr
.LVL94:
.L81:
.LCFI14:
	.cfi_restore_state
	.loc 1 302 0
	lis 9,.LC16@ha
	lfs 28,.LC16@l(9)
	b .L63
.LVL95:
.L79:
	.loc 1 296 0
	lis 11,.LC22@ha
	lis 28,.LC15@ha
.LVL96:
	lfs 31,.LC22@l(11)
	lis 11,.LC21@ha
	b .L61
.LVL97:
.L96:
	.loc 1 321 0 discriminator 1
	fctiwz 25,25
.LVL98:
	addi 9,1,28
	fctiwz 26,26
.LVL99:
	addi 11,1,32
	stfiwx 25,0,9
	stfiwx 26,0,11
	lwz 9,28(1)
	lwz 0,32(1)
	srawi 11,9,31
	xor 9,11,9
	subf 9,11,9
	srawi 11,0,31
	xor 0,11,0
	subf 0,11,0
	cmpw 7,9,0
	bgt- 7,.L86
	b .L69
.L87:
	.loc 1 341 0
	lis 9,.LC13@ha
	li 11,8
	lfs 31,.LC13@l(9)
.LVL100:
	stw 11,40(1)
	b .L73
.L77:
	.loc 1 349 0
	lwz 0,40(1)
	lfs 0,.LC12@l(31)
	addic. 9,0,-1
	fsubs 31,31,0
.LVL101:
	stw 9,40(1)
	beq- 0,.L76
.LVL102:
.L73:
	.loc 1 350 0
	fcmpu 7,31,30
	beq+ 7,.L77
	.loc 1 350 0 is_stmt 0 discriminator 1
	fmr 1,31
	mr 3,30
	fmr 2,29
	bl SV_StepDirection
	cmpwi 7,3,0
	bne- 7,.L60
	.loc 1 349 0 is_stmt 1
	lwz 0,40(1)
	lfs 0,.LC12@l(31)
	addic. 9,0,-1
	fsubs 31,31,0
.LVL103:
	stw 9,40(1)
	bne+ 0,.L73
.L76:
	.loc 1 354 0
	lfs 0,.LC15@l(28)
	fcmpu 7,30,0
	beq- 7,.L78
	.loc 1 354 0 is_stmt 0 discriminator 1
	fmr 1,30
	mr 3,30
	fmr 2,29
	bl SV_StepDirection
	cmpwi 7,3,0
	bne- 7,.L60
.L78:
	.loc 1 357 0 is_stmt 1
	stfs 27,944(30)
	.loc 1 362 0
	mr 3,30
	bl SV_CheckBottom
	cmpwi 7,3,0
	bne- 7,.L60
.LVL104:
.LBB6:
.LBB7:
	.loc 1 272 0
	lfs 0,908(30)
	lis 0,0x4330
	addi 11,1,24
	stw 0,16(1)
	fctiwz 0,0
	stfiwx 0,0,11
	lfs 0,.LC8@l(29)
	lwz 0,24(1)
.LBE7:
.LBE6:
	.loc 1 365 0
	lwz 28,48(1)
.LBB15:
.LBB8:
	.loc 1 272 0
	ori 0,0,1024
.LBE8:
.LBE15:
	.loc 1 365 0
	lwz 29,52(1)
.LBB16:
.LBB9:
	.loc 1 272 0
	xoris 0,0,0x8000
.LBE9:
.LBE16:
	.loc 1 365 0
	lwz 31,60(1)
.LBB17:
.LBB10:
	.loc 1 272 0
	stw 0,20(1)
.LBE10:
.LBE17:
	.loc 1 365 0
	lwz 0,124(1)
.LBB18:
.LBB11:
	.loc 1 272 0
	lfd 13,16(1)
.LBE11:
.LBE18:
	.loc 1 365 0
	mtlr 0
	lfd 25,64(1)
.LBB19:
.LBB12:
	.loc 1 272 0
	fsub 0,13,0
.LBE12:
.LBE19:
	.loc 1 365 0
	lfd 26,72(1)
	lfd 27,80(1)
.LVL105:
	lfd 28,88(1)
.LVL106:
.LBB20:
.LBB13:
	.loc 1 272 0
	frsp 0,0
.LBE13:
.LBE20:
	.loc 1 365 0
	lfd 29,96(1)
.LVL107:
	lfd 30,104(1)
.LVL108:
	lfd 31,112(1)
.LVL109:
.LBB21:
.LBB14:
	.loc 1 272 0
	stfs 0,908(30)
.LBE14:
.LBE21:
	.loc 1 365 0
	lwz 30,56(1)
.LVL110:
	addi 1,1,120
	.cfi_remember_state
	.cfi_restore 28
	.cfi_restore 29
	.cfi_restore 30
	.cfi_restore 31
	.cfi_restore 57
	.cfi_restore 58
	.cfi_restore 59
	.cfi_restore 60
	.cfi_restore 61
	.cfi_restore 62
	.cfi_restore 63
.LCFI15:
	.cfi_def_cfa_offset 0
	blr
.LVL111:
.L94:
.LCFI16:
	.cfi_restore_state
	.loc 1 304 0
	lis 9,.LC17@ha
	lfs 28,.LC17@l(9)
	b .L63
.LVL112:
.L92:
	.loc 1 300 0
	lfs 31,.LC15@l(28)
	b .L61
.LVL113:
.L95:
	.loc 1 312 0
	fcmpu 7,28,0
	lfs 1,.LC12@l(31)
.LVL114:
	beq- 7,.L67
	lis 9,.LC13@ha
	lfs 1,.LC13@l(9)
	b .L67
.LVL115:
.L97:
	.loc 1 329 0
	fmr 1,31
	mr 3,30
	fmr 2,29
	bl SV_StepDirection
	cmpwi 7,3,0
	beq+ 7,.L70
	b .L60
.L98:
	.loc 1 333 0
	fmr 1,28
	mr 3,30
	fmr 2,29
	bl SV_StepDirection
	cmpwi 7,3,0
	beq+ 7,.L71
	b .L60
.LVL116:
.L84:
	.loc 1 314 0
	lis 9,.LC18@ha
	lfs 1,.LC18@l(9)
	b .L67
	.cfi_endproc
.LFE42:
	.size	SV_NewChaseDir, .-SV_NewChaseDir
	.align 2
	.globl SV_CloseEnough
	.type	SV_CloseEnough, @function
SV_CloseEnough:
.LFB43:
	.loc 1 374 0
	.cfi_startproc
.LVL117:
	.loc 1 373 0
	addi 4,4,604
.LVL118:
	addi 3,3,616
.LVL119:
	.loc 1 377 0
	li 9,0
.LVL120:
.L101:
	.loc 1 379 0
	lfsu 0,4(3)
	.loc 1 377 0
	cmpwi 6,9,2
	.loc 1 379 0
	lfsu 13,4(4)
	.loc 1 377 0
	addi 9,9,1
	.loc 1 379 0
	fadds 0,1,0
	fcmpu 7,13,0
	bgt- 7,.L102
	.loc 1 381 0
	lfs 0,-12(3)
	lfs 13,12(4)
	fsubs 0,0,1
	fcmpu 7,13,0
	blt- 7,.L103
	.loc 1 377 0
	bne+ 6,.L101
	.loc 1 384 0
	li 3,1
	blr
.L102:
	.loc 1 380 0
	li 3,0
	blr
.L103:
	.loc 1 382 0
	li 3,0
	.loc 1 385 0
	blr
	.cfi_endproc
.LFE43:
	.size	SV_CloseEnough, .-SV_CloseEnough
	.align 2
	.globl SV_MoveToGoal
	.type	SV_MoveToGoal, @function
SV_MoveToGoal:
.LFB44:
	.loc 1 394 0
	.cfi_startproc
	mflr 0
	stwu 1,-32(1)
.LCFI17:
	.cfi_def_cfa_offset 32
	.cfi_register 65, 0
	.loc 1 401 0
	lis 9,pr_global_struct@ha
	lwz 9,pr_global_struct@l(9)
	.loc 1 405 0
	addi 10,1,8
	.loc 1 394 0
	stw 0,36(1)
	stw 31,20(1)
	.loc 1 401 0
	lwz 31,112(9)
	.cfi_offset 31, -12
	.cfi_offset 65, 4
	lis 9,sv+3500@ha
	lwz 0,sv+3500@l(9)
	.loc 1 403 0
	lis 9,pr_globals@ha
	lwz 9,pr_globals@l(9)
	.loc 1 401 0
	add 31,0,31
.LVL121:
	.loc 1 394 0
	stfd 31,24(1)
	.loc 1 405 0
	lfs 0,908(31)
	.loc 1 394 0
	stw 30,16(1)
	.loc 1 405 0
	fctiwz 0,0
	.loc 1 402 0
	lwz 30,956(31)
	.cfi_offset 30, -16
	.cfi_offset 63, -8
.LVL122:
	.loc 1 403 0
	lfs 31,16(9)
.LVL123:
	.loc 1 405 0
	stfiwx 0,0,10
	lwz 11,8(1)
	andi. 10,11,515
	beq- 0,.L112
	.loc 1 416 0
	lwz 9,904(31)
	.loc 1 402 0
	add 30,0,30
	.loc 1 416 0
	cmpwi 7,9,0
	beq- 7,.L108
	.loc 1 393 0
	li 0,3
	addi 11,30,604
	mtctr 0
	addi 9,31,616
.L109:
.LBB22:
.LBB23:
	.loc 1 379 0
	lfsu 0,4(9)
	lfsu 13,4(11)
	fadds 0,31,0
	fcmpu 7,13,0
	bgt- 7,.L108
	.loc 1 381 0
	lfs 0,-12(9)
	lfs 13,12(11)
	fsubs 0,0,31
	fcmpu 7,13,0
	blt- 7,.L108
	.loc 1 377 0
	bdnz .L109
.LVL124:
.L105:
.LBE23:
.LBE22:
	.loc 1 426 0
	lwz 0,36(1)
	lwz 30,16(1)
	mtlr 0
	lwz 31,20(1)
.LVL125:
	lfd 31,24(1)
.LVL126:
	addi 1,1,32
	.cfi_remember_state
.LCFI18:
	.cfi_def_cfa_offset 0
	.cfi_restore 63
	.cfi_restore 31
	.cfi_restore 30
	blr
.LVL127:
.L108:
.LCFI19:
	.cfi_restore_state
	.loc 1 421 0
	bl rand
.LVL128:
	rlwinm 3,3,0,30,31
	cmpwi 7,3,1
	beq- 7,.L110
	.loc 1 422 0 discriminator 1
	fmr 2,31
	lfs 1,944(31)
	mr 3,31
	bl SV_StepDirection
	.loc 1 421 0 discriminator 1
	cmpwi 7,3,0
	bne- 7,.L105
.L110:
	.loc 1 426 0
	lwz 0,36(1)
	.loc 1 424 0
	fmr 1,31
	mr 3,31
	.loc 1 426 0
	lfd 31,24(1)
.LVL129:
	lwz 31,20(1)
.LVL130:
	.loc 1 424 0
	mr 4,30
	.loc 1 426 0
	mtlr 0
	lwz 30,16(1)
	addi 1,1,32
	.cfi_remember_state
.LCFI20:
	.cfi_def_cfa_offset 0
	.cfi_restore 63
	.cfi_restore 31
	.cfi_restore 30
	.loc 1 424 0
	b SV_NewChaseDir
.LVL131:
.L112:
.LCFI21:
	.cfi_restore_state
	.loc 1 407 0
	li 0,0
.LVL132:
	.loc 1 426 0
	lwz 30,16(1)
.LVL133:
	.loc 1 407 0
	stw 0,4(9)
	.loc 1 426 0
	lwz 0,36(1)
	lwz 31,20(1)
.LVL134:
	mtlr 0
	lfd 31,24(1)
.LVL135:
	addi 1,1,32
	.cfi_restore 30
	.cfi_restore 31
	.cfi_restore 63
.LCFI22:
	.cfi_def_cfa_offset 0
	blr
	.cfi_endproc
.LFE44:
	.size	SV_MoveToGoal, .-SV_MoveToGoal
	.comm	c_no,4,4
	.comm	c_yes,4,4
	.comm	causticschain,4,4
	.section	.rodata.cst4,"aM",@progbits,4
	.align 2
.LC0:
	.4byte	1065353216
.LC1:
	.4byte	1056964608
.LC2:
	.4byte	1108344832
.LC3:
	.4byte	1099956224
.LC4:
	.4byte	1109393408
.LC5:
	.4byte	1090519040
.LC6:
	.4byte	1106247680
.LC8:
	.4byte	1501560836
.LC11:
	.4byte	1135869952
.LC12:
	.4byte	1110704128
.LC13:
	.4byte	1134395392
.LC14:
	.4byte	1127481344
.LC15:
	.4byte	-1082130432
.LC16:
	.4byte	1132920832
.LC17:
	.4byte	1119092736
.LC18:
	.4byte	1129775104
.LC19:
	.4byte	1124532224
.LC20:
	.4byte	1092616192
.LC21:
	.4byte	-1054867456
.LC22:
	.4byte	0
	.section	.rodata.cst8,"aM",@progbits,8
	.align 3
.LC9:
	.4byte	1074340347
	.4byte	1413754136
	.section	".text"
.Letext0:
	.file 2 "d:/Data/Nintendo/TenebraeGX/src/common.h"
	.file 3 "d:/Data/Nintendo/TenebraeGX/src/bspfile.h"
	.file 4 "d:/Data/Nintendo/TenebraeGX/src/zone.h"
	.file 5 "d:/Data/Nintendo/TenebraeGX/src/mathlib.h"
	.file 6 "d:/Data/Nintendo/TenebraeGX/src/quakedef.h"
	.file 7 "d:/Data/Nintendo/TenebraeGX/src/render.h"
	.file 8 "d:/Data/Nintendo/TenebraeGX/src/gl_model.h"
	.file 9 "d:/Data/Nintendo/TenebraeGX/src/glquake.h"
	.file 10 "d:/Data/Nintendo/TenebraeGX/src/pr_comp.h"
	.file 11 "d:/Data/Nintendo/TenebraeGX/src/progdefs.h"
	.file 12 "d:/Data/Nintendo/TenebraeGX/src/progs.h"
	.file 13 "d:/Data/Nintendo/TenebraeGX/src/server.h"
	.file 14 "d:/Data/Nintendo/TenebraeGX/src/modelgen.h"
	.file 15 "d:/Data/Nintendo/TenebraeGX/src/world.h"
	.file 16 "c:/utils/devkitPro/libogc/include/ogc/gx.h"