	.file	"sweep.c"
	.section	".text"
.Ltext0:
	.cfi_sections	.debug_frame
	.align 2
	.type	CallCombine, @function
CallCombine:
.LFB11:
	.file 1 "d:/Data/Nintendo/TenebraeGX/gl2gx/source/libtess/sweep.c"
	.loc 1 414 0
	.cfi_startproc
.LVL0:
	mflr 0
	stwu 1,-56(1)
.LCFI0:
	.cfi_def_cfa_offset 56
	.cfi_register 65, 0
	.loc 1 423 0
	lis 9,__gl_noCombineData@ha
	la 9,__gl_noCombineData@l(9)
	.loc 1 414 0
	stw 28,40(1)
	stw 0,60(1)
	mr 28,7
	.cfi_offset 65, 4
	.cfi_offset 28, -16
	stw 29,44(1)
	mr 29,5
	.cfi_offset 29, -12
	.loc 1 423 0
	lwz 0,3380(3)
	.loc 1 418 0
	lfd 12,16(4)
	.loc 1 423 0
	cmpw 7,0,9
	.loc 1 419 0
	lfd 13,24(4)
	.loc 1 420 0
	lfd 0,32(4)
	.loc 1 422 0
	li 9,0
	.loc 1 414 0
	stw 30,48(1)
	mr 30,3
	.cfi_offset 30, -8
	stw 31,52(1)
	.loc 1 414 0
	mr 31,4
	.cfi_offset 31, -4
	.loc 1 418 0
	stfd 12,8(1)
	.loc 1 419 0
	stfd 13,16(1)
	.loc 1 420 0
	stfd 0,24(1)
	.loc 1 422 0
	stw 9,12(4)
	.loc 1 423 0
	beq- 7,.L2
	.loc 1 423 0 is_stmt 0 discriminator 1
	mr 4,5
.LVL1:
	addi 3,1,8
.LVL2:
	mr 5,6
.LVL3:
	lwz 7,3640(30)
.LVL4:
	addi 6,31,12
.LVL5:
	mtctr 0
	bctrl
.LVL6:
.L3:
	.loc 1 424 0 is_stmt 1
	lwz 0,12(31)
	cmpwi 7,0,0
	beq- 7,.L9
.L1:
	.loc 1 436 0
	lwz 0,60(1)
	lwz 28,40(1)
.LVL7:
	mtlr 0
	lwz 29,44(1)
.LVL8:
	lwz 30,48(1)
.LVL9:
	lwz 31,52(1)
.LVL10:
	addi 1,1,56
	.cfi_remember_state
.LCFI1:
	.cfi_def_cfa_offset 0
	.cfi_restore 31
	.cfi_restore 30
	.cfi_restore 29
	.cfi_restore 28
	blr
.LVL11:
.L9:
.LCFI2:
	.cfi_restore_state
	.loc 1 425 0
	cmpwi 7,28,0
	beq- 7,.L10
	.loc 1 427 0
	lbz 0,100(30)
	cmpwi 7,0,0
	bne- 7,.L1
	.loc 1 432 0
	lwz 0,3376(30)
	lis 9,__gl_noErrorData@ha
	la 9,__gl_noErrorData@l(9)
	cmpw 7,0,9
	beq- 7,.L6
	.loc 1 432 0 is_stmt 0 discriminator 1
	lis 3,0x1
	lwz 4,3640(30)
	ori 3,3,34620
	mtctr 0
	bctrl
.L7:
	.loc 1 433 0 is_stmt 1
	li 0,1
	stb 0,100(30)
	b .L1
.L10:
	.loc 1 426 0
	lwz 0,0(29)
	stw 0,12(31)
	b .L1
.LVL12:
.L2:
	.loc 1 423 0 discriminator 2
	lwz 0,116(3)
	mr 4,5
	addi 3,1,8
	mr 5,6
	mtctr 0
	addi 6,31,12
.LVL13:
	bctrl
.LVL14:
	b .L3
.L6:
	.loc 1 432 0 discriminator 2
	lwz 0,12(30)
	lis 3,0x1
	ori 3,3,34620
	mtctr 0
	bctrl
	b .L7
	.cfi_endproc
.LFE11:
	.size	CallCombine, .-CallCombine
	.align 2
	.type	VertexWeights, @function
VertexWeights:
.LFB13:
	.loc 1 463 0
	.cfi_startproc
.LVL15:
	.loc 1 464 0
	lfd 0,40(3)
	lis 9,.LC1@ha
	lfd 12,40(4)
	lfd 13,.LC1@l(9)
	fsub 12,12,0
	fcmpu 7,12,13
	bnl- 7,.L12
	.loc 1 464 0 is_stmt 0 discriminator 1
	fneg 12,12
.L12:
	.loc 1 464 0 discriminator 3
	lfd 11,48(3)
	lfd 13,48(4)
	lfd 10,.LC1@l(9)
	fsub 13,13,11
	fcmpu 7,13,10
	bnl- 7,.L14
	.loc 1 464 0 discriminator 1
	fneg 13,13
.L14:
	.loc 1 465 0 is_stmt 1 discriminator 3
	lfd 9,40(5)
	.loc 1 464 0 discriminator 3
	fadd 13,12,13
.LVL16:
	.loc 1 465 0 discriminator 3
	lfd 10,.LC1@l(9)
	fsub 0,9,0
	fcmpu 7,0,10
	bnl- 7,.L16
	.loc 1 465 0 is_stmt 0 discriminator 1
	fneg 0,0
.L16:
	.loc 1 465 0 discriminator 3
	lfd 10,48(5)
	lfd 12,.LC1@l(9)
	fsub 11,10,11
	fcmpu 7,11,12
	bnl+ 7,.L18
	.loc 1 465 0 discriminator 1
	fneg 11,11
.L18:
	.loc 1 467 0 is_stmt 1 discriminator 3
	lis 9,.LC3@ha
	.loc 1 465 0 discriminator 3
	fadd 0,0,11
.LVL17:
	.loc 1 467 0 discriminator 3
	lfs 9,.LC3@l(9)
	.loc 1 472 0 discriminator 3
	.loc 1 469 0 discriminator 3
	lfd 4,16(5)
	.loc 1 468 0 discriminator 3
	fmul 10,13,9
	.loc 1 469 0 discriminator 3
	lfd 5,16(4)
	lfd 6,16(3)
	.loc 1 467 0 discriminator 3
	fadd 13,13,0
.LVL18:
	.loc 1 470 0 discriminator 3
	lfd 7,24(3)
	.loc 1 467 0 discriminator 3
	fmul 0,0,9
.LVL19:
	.loc 1 471 0 discriminator 3
	lfd 8,32(3)
	.loc 1 468 0 discriminator 3
	fdiv 10,10,13
	.loc 1 467 0 discriminator 3
	fdiv 12,0,13
	.loc 1 468 0 discriminator 3
	frsp 10,10
	.loc 1 467 0 discriminator 3
	frsp 12,12
	.loc 1 469 0 discriminator 3
	fmr 13,10
	.loc 1 468 0 discriminator 3
	stfs 10,4(6)
	.loc 1 469 0 discriminator 3
	fmr 0,12
	.loc 1 467 0 discriminator 3
	stfs 12,0(6)
	.loc 1 469 0 discriminator 3
	fmul 12,13,4
	fmadd 12,0,5,12
	fadd 12,6,12
	stfd 12,16(3)
	.loc 1 470 0 discriminator 3
	lfd 12,24(5)
	lfd 11,24(4)
	fmul 12,13,12
	fmadd 12,0,11,12
	fadd 12,7,12
	stfd 12,24(3)
	.loc 1 471 0 discriminator 3
	lfd 11,32(5)
	lfd 12,32(4)
	fmul 13,13,11
	fmadd 0,0,12,13
	fadd 0,8,0
	stfd 0,32(3)
	.loc 1 472 0 discriminator 3
	blr
	.cfi_endproc
.LFE13:
	.size	VertexWeights, .-VertexWeights
	.align 2
	.type	AddSentinel, @function
AddSentinel:
.LFB23:
	.loc 1 1133 0
	.cfi_startproc
.LVL20:
	stwu 1,-24(1)
.LCFI3:
	.cfi_def_cfa_offset 24
	mflr 0
	stw 30,8(1)
	mr 30,3
	.cfi_offset 30, -16
	.cfi_register 65, 0
	.loc 1 1135 0
	li 3,16
.LVL21:
	.loc 1 1133 0
	stfd 31,16(1)
	stw 31,12(1)
	fmr 31,1
	.cfi_offset 31, -12
	.cfi_offset 63, -8
	stw 0,28(1)
	.loc 1 1135 0
	.cfi_offset 65, 4
	bl malloc
.LVL22:
	.loc 1 1136 0
	mr. 31,3
	beq- 0,.L29
	.loc 1 1138 0
	lwz 3,8(30)
.LVL23:
	bl __gl_meshMakeEdge
.LVL24:
	.loc 1 1139 0
	cmpwi 0,3,0
	beq- 0,.L29
	.loc 1 1141 0
	lis 10,.LC4@ha
	.loc 1 1143 0
	lwz 9,4(3)
	.loc 1 1141 0
	lwz 11,16(3)
	.loc 1 1148 0
	li 0,0
	.loc 1 1141 0
	lfd 0,.LC4@l(10)
	.loc 1 1153 0
	mr 5,31
	.loc 1 1143 0
	lwz 9,16(9)
	.loc 1 1141 0
	stfd 0,40(11)
	.loc 1 1142 0
	stfd 31,48(11)
	.loc 1 1143 0
	lis 11,.LC5@ha
	lfd 0,.LC5@l(11)
	.loc 1 1144 0
	stfd 31,48(9)
	.loc 1 1143 0
	stfd 0,40(9)
	.loc 1 1145 0
	stw 9,112(30)
	.loc 1 1151 0
	li 9,1
	.loc 1 1149 0
	stb 0,12(31)
	.loc 1 1150 0
	stb 0,15(31)
	.loc 1 1151 0
	stb 9,13(31)
	.loc 1 1152 0
	stb 0,14(31)
	.loc 1 1147 0
	stw 3,0(31)
	.loc 1 1153 0
	lwz 3,104(30)
.LVL25:
	.loc 1 1148 0
	stw 0,8(31)
	.loc 1 1153 0
	mr 4,3
	bl __gl_dictListInsertBefore
.LVL26:
	.loc 1 1154 0
	cmpwi 7,3,0
	.loc 1 1153 0
	stw 3,4(31)
	.loc 1 1154 0
	beq- 7,.L29
	.loc 1 1155 0
	lwz 0,28(1)
	lwz 30,8(1)
.LVL27:
	mtlr 0
	lwz 31,12(1)
.LVL28:
	lfd 31,16(1)
.LVL29:
	addi 1,1,24
	.cfi_remember_state
.LCFI4:
	.cfi_def_cfa_offset 0
	.cfi_restore 63
	.cfi_restore 31
	.cfi_restore 30
	blr
.LVL30:
.L29:
.LCFI5:
	.cfi_restore_state
	.loc 1 1154 0 discriminator 1
	addi 3,30,3384
	li 4,1
	bl longjmp
	.cfi_endproc
.LFE23:
	.size	AddSentinel, .-AddSentinel
	.align 2
	.type	EdgeLeq, @function
EdgeLeq:
.LFB0:
	.loc 1 121 0
	.cfi_startproc
.LVL31:
	mflr 0
	stwu 1,-24(1)
.LCFI6:
	.cfi_def_cfa_offset 24
	.cfi_register 65, 0
	stw 31,12(1)
	stw 0,28(1)
	stw 30,8(1)
	.loc 1 126 0
	lwz 9,0(4)
	.loc 1 122 0
	lwz 31,112(3)
	.cfi_offset 30, -16
	.cfi_offset 65, 4
	.cfi_offset 31, -12
.LVL32:
	.loc 1 129 0
	lwz 11,4(9)
	.loc 1 127 0
	lwz 30,0(5)
.LVL33:
	.loc 1 129 0
	lwz 0,16(11)
	.loc 1 121 0
	stfd 31,16(1)
	.loc 1 129 0
	cmpw 7,0,31
	.loc 1 130 0
	lwz 11,4(30)
	.loc 1 129 0
	beq- 7,.L40
	.cfi_offset 63, -8
	.loc 1 141 0
	lwz 4,16(11)
.LVL34:
	.loc 1 142 0
	mr 3,0
.LVL35:
	lwz 5,16(9)
.LVL36:
	.loc 1 141 0
	cmpw 7,4,31
	beq- 7,.L39
	.loc 1 146 0
	mr 4,31
	bl __gl_edgeEval
.LVL37:
	.loc 1 147 0
	lwz 9,4(30)
	.loc 1 146 0
	fmr 31,1
.LVL38:
	.loc 1 147 0
	lwz 5,16(30)
	lwz 3,16(9)
	mr 4,31
	bl __gl_edgeEval
.LVL39:
	.loc 1 149 0
	lwz 0,28(1)
	.loc 1 148 0
	fcmpu 7,31,1
	.loc 1 149 0
	lwz 30,8(1)
.LVL40:
	mtlr 0
	lwz 31,12(1)
.LVL41:
	lfd 31,16(1)
.LVL42:
	.loc 1 148 0
	cror 30,29,30
	.loc 1 149 0
	addi 1,1,24
	.cfi_remember_state
.LCFI7:
	.cfi_def_cfa_offset 0
	.cfi_restore 63
	.cfi_restore 31
	.cfi_restore 30
	.loc 1 148 0
	mfcr 3
	rlwinm 3,3,31,1
	.loc 1 149 0
	blr
.LVL43:
.L40:
.LCFI8:
	.cfi_restore_state
	.loc 1 130 0
	lwz 3,16(11)
.LVL44:
	cmpw 7,0,3
	beq- 7,.L41
	.loc 1 139 0
	lwz 5,16(30)
.LVL45:
	mr 4,0
.LVL46:
.L38:
	bl __gl_edgeSign
	lis 9,.LC1@ha
	lfd 0,.LC1@l(9)
	.loc 1 149 0
	lwz 0,28(1)
	.loc 1 139 0
	fcmpu 7,1,0
	.loc 1 149 0
	lwz 30,8(1)
.LVL47:
	mtlr 0
	lwz 31,12(1)
.LVL48:
	lfd 31,16(1)
	.loc 1 139 0
	cror 30,28,30
	.loc 1 149 0
	addi 1,1,24
	.cfi_remember_state
	.cfi_restore 30
	.cfi_restore 31
	.cfi_restore 63
.LCFI9:
	.cfi_def_cfa_offset 0
	.loc 1 139 0
	mfcr 3
	rlwinm 3,3,31,1
	.loc 1 149 0
	blr
.LVL49:
.L34:
.LCFI10:
	.cfi_restore_state
	.loc 1 137 0
	mr 4,5
.LVL50:
	mr 3,0
	mr 5,9
.L39:
	.loc 1 142 0
	bl __gl_edgeSign
	lis 9,.LC1@ha
	lfd 0,.LC1@l(9)
	.loc 1 149 0
	lwz 0,28(1)
	.loc 1 142 0
	fcmpu 7,1,0
	.loc 1 149 0
	lwz 30,8(1)
.LVL51:
	mtlr 0
	lwz 31,12(1)
.LVL52:
	lfd 31,16(1)
	.loc 1 142 0
	cror 30,29,30
	.loc 1 149 0
	addi 1,1,24
	.cfi_remember_state
	.cfi_restore 30
	.cfi_restore 31
	.cfi_restore 63
.LCFI11:
	.cfi_def_cfa_offset 0
	.loc 1 142 0
	mfcr 3
	rlwinm 3,3,31,1
	.loc 1 149 0
	blr
.LVL53:
.L41:
.LCFI12:
	.cfi_restore_state
	.loc 1 134 0
	lwz 9,16(9)
.LVL54:
	lwz 5,16(30)
.LVL55:
	lfd 13,40(9)
	lfd 0,40(5)
	fcmpu 7,13,0
	blt- 7,.L33
	.loc 1 134 0 is_stmt 0 discriminator 1
	bne- 7,.L34
	lfd 13,48(9)
	lfd 0,48(5)
	fcmpu 7,13,0
	cror 30,28,30
	bne- 7,.L34
.L33:
	.loc 1 135 0 is_stmt 1
	mr 3,0
	mr 4,9
.LVL56:
	b .L38
	.cfi_endproc
.LFE0:
	.size	EdgeLeq, .-EdgeLeq
	.align 2
	.type	AddRegionBelow.isra.2, @function
AddRegionBelow.isra.2:
.LFB33:
	.loc 1 214 0
	.cfi_startproc
.LVL57:
	stwu 1,-24(1)
.LCFI13:
	.cfi_def_cfa_offset 24
	mflr 0
	stw 29,12(1)
	mr 29,3
	.cfi_offset 29, -12
	.cfi_register 65, 0
	.loc 1 224 0
	li 3,16
.LVL58:
	.loc 1 214 0
	stw 28,8(1)
	stw 30,16(1)
	mr 28,4
	.cfi_offset 30, -8
	.cfi_offset 28, -16
	stw 31,20(1)
	mr 30,5
	stw 0,28(1)
	.loc 1 224 0
	.cfi_offset 65, 4
	.cfi_offset 31, -4
	bl malloc
.LVL59:
	.loc 1 225 0
	mr. 31,3
	beq- 0,.L45
	.loc 1 227 0
	stw 30,0(31)
	.loc 1 229 0
	mr 5,31
	lwz 3,104(29)
.LVL60:
	lwz 4,0(28)
	bl __gl_dictListInsertBefore
.LVL61:
	.loc 1 230 0
	cmpwi 7,3,0
	.loc 1 229 0
	stw 3,4(31)
	.loc 1 230 0
	beq- 7,.L45
	.loc 1 231 0
	li 0,0
	.loc 1 237 0
	mr 3,31
	.loc 1 231 0
	stb 0,15(31)
	.loc 1 232 0
	stb 0,13(31)
	.loc 1 233 0
	stb 0,14(31)
	.loc 1 235 0
	stw 31,24(30)
	.loc 1 237 0
	lwz 0,28(1)
	lwz 28,8(1)
	mtlr 0
	lwz 29,12(1)
.LVL62:
	lwz 30,16(1)
.LVL63:
	lwz 31,20(1)
.LVL64:
	addi 1,1,24
	.cfi_remember_state
.LCFI14:
	.cfi_def_cfa_offset 0
	.cfi_restore 31
	.cfi_restore 30
	.cfi_restore 29
	.cfi_restore 28
	blr
.LVL65:
.L45:
.LCFI15:
	.cfi_restore_state
	.loc 1 230 0
	addi 3,29,3384
	li 4,1
	bl longjmp
	.cfi_endproc
.LFE33:
	.size	AddRegionBelow.isra.2, .-AddRegionBelow.isra.2
	.align 2
	.type	SpliceMergeVertices, @function
SpliceMergeVertices:
.LFB12:
	.loc 1 444 0
	.cfi_startproc
.LVL66:
	mflr 0
	stwu 1,-56(1)
.LCFI16:
	.cfi_def_cfa_offset 56
	.cfi_register 65, 0
	.loc 1 446 0
	lis 10,.LANCHOR0@ha
	.loc 1 444 0
	stw 30,48(1)
	mr 30,4
	.cfi_offset 30, -8
	stw 0,60(1)
	.loc 1 446 0
	la 9,.LANCHOR0@l(10)
	.loc 1 444 0
	stw 29,44(1)
	.loc 1 445 0
	li 0,0
	.cfi_offset 29, -12
	.cfi_offset 65, 4
	.loc 1 449 0
	lwz 7,16(5)
	.loc 1 450 0
	addi 6,1,8
	.loc 1 448 0
	lwz 4,16(4)
.LVL67:
	.loc 1 446 0
	lwz 12,4(9)
	.loc 1 448 0
	lwz 11,12(4)
	.loc 1 446 0
	lwz 8,8(9)
	lwz 29,.LANCHOR0@l(10)
	lwz 10,12(9)
	.loc 1 449 0
	lwz 9,12(7)
	.loc 1 450 0
	li 7,0
	.loc 1 444 0
	stw 31,52(1)
	mr 31,5
	.cfi_offset 31, -4
	.loc 1 450 0
	addi 5,1,24
.LVL68:
	.loc 1 444 0
	stw 28,40(1)
	.loc 1 445 0
	stw 0,32(1)
	.loc 1 444 0
	mr 28,3
	.cfi_offset 28, -16
	.loc 1 445 0
	stw 0,36(1)
	.loc 1 446 0
	stw 12,12(1)
	stw 8,16(1)
	stw 10,20(1)
	.loc 1 448 0
	stw 11,24(1)
	.loc 1 449 0
	stw 9,28(1)
	.loc 1 446 0
	stw 29,8(1)
	.loc 1 450 0
	bl CallCombine
.LVL69:
	.loc 1 451 0
	mr 3,30
	mr 4,31
	bl __gl_meshSplice
	cmpwi 7,3,0
	beq- 7,.L48
	.loc 1 452 0
	lwz 0,60(1)
	lwz 28,40(1)
.LVL70:
	mtlr 0
	lwz 29,44(1)
	lwz 30,48(1)
.LVL71:
	lwz 31,52(1)
.LVL72:
	addi 1,1,56
	.cfi_remember_state
.LCFI17:
	.cfi_def_cfa_offset 0
	.cfi_restore 31
	.cfi_restore 30
	.cfi_restore 29
	.cfi_restore 28
	blr
.LVL73:
.L48:
.LCFI18:
	.cfi_restore_state
.LBB25:
.LBB26:
	.loc 1 451 0
	addi 3,28,3384
	li 4,1
	bl longjmp
.LBE26:
.LBE25:
	.cfi_endproc
.LFE12:
	.size	SpliceMergeVertices, .-SpliceMergeVertices
	.align 2
	.type	CheckForRightSplice, @function
CheckForRightSplice:
.LFB15:
	.loc 1 525 0
	.cfi_startproc
.LVL74:
	mflr 0
	stwu 1,-32(1)
.LCFI19:
	.cfi_def_cfa_offset 32
	.cfi_register 65, 0
	stw 28,16(1)
	stw 0,36(1)
	stw 29,20(1)
	.loc 1 526 0
	lwz 9,4(4)
	.loc 1 525 0
	stw 30,24(1)
	.loc 1 526 0
	lwz 11,8(9)
	.loc 1 527 0
	lwz 29,0(4)
	.cfi_offset 30, -8
	.cfi_offset 29, -12
	.cfi_offset 65, 4
	.cfi_offset 28, -16
	.loc 1 526 0
	lwz 28,0(11)
.LVL75:
	.loc 1 530 0
	lwz 9,16(29)
	.loc 1 528 0
	lwz 30,0(28)
.LVL76:
	.loc 1 530 0
	lfd 13,40(9)
	lwz 5,16(30)
	.loc 1 525 0
	stw 27,12(1)
	mr 27,3
	.cfi_offset 27, -20
	.loc 1 530 0
	lfd 0,40(5)
	.loc 1 525 0
	stw 31,28(1)
	.loc 1 525 0
	mr 31,4
	.cfi_offset 31, -4
	.loc 1 530 0
	fcmpu 7,13,0
	blt- 7,.L50
.LVL77:
	.loc 1 530 0 is_stmt 0 discriminator 1
	bne- 7,.L51
	lfd 13,48(9)
	lfd 0,48(5)
	fcmpu 7,13,0
	cror 30,28,30
	beq- 7,.L50
.LVL78:
.L51:
	.loc 1 546 0 is_stmt 1
	lwz 11,4(29)
	mr 4,5
.LVL79:
	mr 5,9
	li 28,0
	lwz 3,16(11)
.LVL80:
	bl __gl_edgeSign
.LVL81:
	lis 9,.LC1@ha
	lfd 0,.LC1@l(9)
	fcmpu 7,1,0
	bnl- 7,.L65
.L53:
	.loc 1 554 0
	lwz 0,36(1)
	mr 3,28
	lwz 27,12(1)
.LVL82:
	mtlr 0
	lwz 28,16(1)
	lwz 29,20(1)
.LVL83:
	lwz 30,24(1)
.LVL84:
	lwz 31,28(1)
.LVL85:
	addi 1,1,32
	.cfi_remember_state
.LCFI20:
	.cfi_def_cfa_offset 0
	.cfi_restore 31
	.cfi_restore 30
	.cfi_restore 29
	.cfi_restore 28
	.cfi_restore 27
	blr
.LVL86:
.L50:
.LCFI21:
	.cfi_restore_state
	.loc 1 531 0
	lwz 11,4(30)
	mr 4,9
.LVL87:
	lwz 3,16(11)
.LVL88:
	bl __gl_edgeSign
	lis 9,.LC1@ha
	lfd 0,.LC1@l(9)
	fcmpu 7,1,0
	bgt- 7,.L59
	.loc 1 534 0
	lwz 9,16(29)
	lwz 11,16(30)
	lfd 13,40(9)
	lfd 0,40(11)
	fcmpu 7,13,0
	bne- 7,.L54
	.loc 1 534 0 is_stmt 0 discriminator 1
	lfd 13,48(9)
	lfd 0,48(11)
	fcmpu 7,13,0
	beq- 7,.L55
.L54:
	.loc 1 536 0 is_stmt 1
	lwz 3,4(30)
	bl __gl_meshSplitEdge
	cmpwi 7,3,0
	beq- 7,.L64
	.loc 1 537 0
	lwz 9,4(30)
	mr 3,29
	lwz 4,12(9)
	bl __gl_meshSplice
	cmpwi 7,3,0
	beq- 7,.L64
	.loc 1 538 0
	li 0,1
	stb 0,14(28)
	.loc 1 553 0
	li 28,1
.LVL89:
	.loc 1 538 0
	stb 0,14(31)
	.loc 1 554 0
	mr 3,28
	lwz 0,36(1)
	lwz 27,12(1)
.LVL90:
	mtlr 0
	lwz 28,16(1)
	lwz 29,20(1)
.LVL91:
	lwz 30,24(1)
.LVL92:
	lwz 31,28(1)
.LVL93:
	addi 1,1,32
	.cfi_remember_state
	.cfi_restore 27
	.cfi_restore 28
	.cfi_restore 29
	.cfi_restore 30
	.cfi_restore 31
.LCFI22:
	.cfi_def_cfa_offset 0
	blr
.LVL94:
.L59:
.LCFI23:
	.cfi_restore_state
	lwz 0,36(1)
	.loc 1 531 0
	li 28,0
.LVL95:
	.loc 1 554 0
	mr 3,28
	lwz 27,12(1)
.LVL96:
	mtlr 0
	lwz 28,16(1)
	lwz 29,20(1)
.LVL97:
	lwz 30,24(1)
.LVL98:
	lwz 31,28(1)
.LVL99:
	addi 1,1,32
	.cfi_remember_state
	.cfi_restore 27
	.cfi_restore 28
	.cfi_restore 29
	.cfi_restore 30
	.cfi_restore 31
.LCFI24:
	.cfi_def_cfa_offset 0
	blr
.LVL100:
.L55:
.LCFI25:
	.cfi_restore_state
	.loc 1 540 0
	cmpw 7,9,11
	.loc 1 553 0
	li 28,1
.LVL101:
	.loc 1 540 0
	beq- 7,.L53
	.loc 1 542 0
	lwz 3,108(27)
	lwz 4,56(9)
	bl __gl_pqSortDelete
	.loc 1 543 0
	lwz 9,4(30)
	mr 3,27
	mr 5,29
	lwz 4,12(9)
	bl SpliceMergeVertices
	b .L53
.L65:
	.loc 1 549 0
	lwz 9,4(31)
	li 0,1
	lwz 9,4(9)
	lwz 9,0(9)
	stb 0,14(31)
	stb 0,14(9)
	.loc 1 550 0
	lwz 3,4(29)
	bl __gl_meshSplitEdge
	cmpwi 7,3,0
	beq- 7,.L64
	.loc 1 551 0
	lwz 9,4(30)
	mr 4,29
	.loc 1 553 0
	li 28,1
	.loc 1 551 0
	lwz 3,12(9)
	bl __gl_meshSplice
	cmpwi 7,3,0
	bne+ 7,.L53
.L64:
	.loc 1 551 0 is_stmt 0 discriminator 1
	addi 3,27,3384
	li 4,1
	bl longjmp
	.cfi_endproc
.LFE15:
	.size	CheckForRightSplice, .-CheckForRightSplice
	.align 2
	.type	FixUpperEdge, @function
FixUpperEdge:
.LFB2:
	.loc 1 171 0 is_stmt 1
	.cfi_startproc
.LVL102:
	mflr 0
	stwu 1,-16(1)
.LCFI26:
	.cfi_def_cfa_offset 16
	.cfi_register 65, 0
	stw 30,8(1)
	mr 30,4
	.cfi_offset 30, -8
	stw 31,12(1)
	mr 31,3
	.cfi_offset 31, -4
	stw 0,20(1)
	.loc 1 172 0
	lbz 0,15(3)
	.cfi_offset 65, 4
	cmpwi 7,0,0
	beq- 7,.L70
	.loc 1 173 0
	lwz 3,0(3)
.LVL103:
	bl __gl_meshDelete
.LVL104:
	cmpwi 7,3,0
	li 3,0
	beq- 7,.L68
	.loc 1 174 0
	stb 3,15(31)
	.loc 1 178 0
	li 3,1
	.loc 1 175 0
	stw 30,0(31)
	.loc 1 176 0
	stw 31,24(30)
.L68:
	.loc 1 179 0
	lwz 0,20(1)
	lwz 30,8(1)
.LVL105:
	mtlr 0
	lwz 31,12(1)
.LVL106:
	addi 1,1,16
	.cfi_remember_state
.LCFI27:
	.cfi_def_cfa_offset 0
	.cfi_restore 31
	.cfi_restore 30
	blr
.LVL107:
.L70:
.LCFI28:
	.cfi_restore_state
.LBB29:
.LBB30:
	.loc 1 172 0
	lis 5,.LANCHOR0@ha
	lis 3,.LC6@ha
.LVL108:
	la 5,.LANCHOR0@l(5)
	lis 6,.LC7@ha
	la 3,.LC6@l(3)
	li 4,172
.LVL109:
	addi 5,5,16
	la 6,.LC7@l(6)
	bl __assert_func
.LBE30:
.LBE29:
	.cfi_endproc
.LFE2:
	.size	FixUpperEdge, .-FixUpperEdge
	.align 2
	.type	TopLeftRegion, @function
TopLeftRegion:
.LFB3:
	.loc 1 182 0
	.cfi_startproc
.LVL110:
	mflr 0
	stwu 1,-16(1)
.LCFI29:
	.cfi_def_cfa_offset 16
	.cfi_register 65, 0
	stw 31,12(1)
	mr 31,3
	.cfi_offset 31, -4
	stw 0,20(1)
	.loc 1 183 0
	lwz 9,0(3)
	lwz 10,16(9)
.LVL111:
.L72:
	.loc 1 188 0 discriminator 1
	lwz 9,4(31)
	lwz 9,4(9)
	lwz 31,0(9)
.LVL112:
	.loc 1 189 0 discriminator 1
	lwz 11,0(31)
	lwz 0,16(11)
	.cfi_offset 65, 4
	cmpw 7,0,10
	beq+ 7,.L72
	.loc 1 194 0
	lbz 0,15(31)
	cmpwi 7,0,0
	bne- 7,.L77
.LVL113:
.L73:
	.loc 1 201 0
	lwz 0,20(1)
	mr 3,31
	lwz 31,12(1)
	mtlr 0
	addi 1,1,16
	.cfi_remember_state
.LCFI30:
	.cfi_def_cfa_offset 0
	.cfi_restore 31
	blr
.LVL114:
.L77:
.LCFI31:
	.cfi_restore_state
	.loc 1 195 0
	lwz 9,4(31)
	lwz 4,12(11)
	lwz 9,8(9)
	lwz 9,0(9)
	lwz 9,0(9)
	lwz 3,4(9)
	bl __gl_meshConnect
.LVL115:
	.loc 1 196 0
	mr. 4,3
	beq- 0,.L75
	.loc 1 197 0
	mr 3,31
.LVL116:
	bl FixUpperEdge
.LVL117:
	cmpwi 7,3,0
	beq- 7,.L75
	.loc 1 198 0
	lwz 9,4(31)
	.loc 1 201 0
	lwz 0,20(1)
	.loc 1 198 0
	lwz 9,4(9)
	.loc 1 201 0
	mtlr 0
	.loc 1 198 0
	lwz 31,0(9)
.LVL118:
	.loc 1 201 0
	mr 3,31
	lwz 31,12(1)
	addi 1,1,16
	.cfi_remember_state
	.cfi_restore 31
.LCFI32:
	.cfi_def_cfa_offset 0
	blr
.LVL119:
.L75:
.LCFI33:
	.cfi_restore_state
	.loc 1 197 0
	li 31,0
.LVL120:
	b .L73
	.cfi_endproc
.LFE3:
	.size	TopLeftRegion, .-TopLeftRegion
	.align 2
	.type	IsWindingInside.isra.6, @function
IsWindingInside.isra.6:
.LFB37:
	.loc 1 239 0
	.cfi_startproc
.LVL121:
	mflr 0
	stwu 1,-8(1)
.LCFI34:
	.cfi_def_cfa_offset 8
	.cfi_register 65, 0
	.loc 1 241 0
	addis 3,3,0xfffe
	.loc 1 239 0
	stw 0,12(1)
	.loc 1 241 0
	addi 0,3,30942
	.cfi_offset 65, 4
	cmplwi 7,0,4
	ble- 7,.L87
.LBB33:
.LBB34:
	.loc 1 254 0
	lis 5,.LANCHOR0@ha
	lis 3,.LC6@ha
	la 5,.LANCHOR0@l(5)
	lis 6,.LC8@ha
	la 3,.LC6@l(3)
	li 4,254
.LVL122:
	addi 5,5,32
	la 6,.LC8@l(6)
	bl __assert_func
.LVL123:
.L87:
.LBE34:
.LBE33:
	.loc 1 241 0
	lis 9,.L85@ha
	slwi 0,0,2
	la 9,.L85@l(9)
	lwzx 0,9,0
	add 9,0,9
	mtctr 9
	bctr
	.section	.rodata
	.align 2
	.align 2
.L85:
	.long .L80-.L85
	.long .L81-.L85
	.long .L82-.L85
	.long .L83-.L85
	.long .L84-.L85
	.section	".text"
.L83:
	.loc 1 256 0
	lwz 0,12(1)
	.loc 1 249 0
	srwi 3,4,31
	.loc 1 256 0
	addi 1,1,8
	.cfi_remember_state
.LCFI35:
	.cfi_def_cfa_offset 0
	mtlr 0
	blr
.L84:
.LCFI36:
	.cfi_restore_state
	lwz 0,12(1)
	.loc 1 251 0
	addi 4,4,1
.LVL124:
	subfic 3,4,2
	subfe 3,3,3
	.loc 1 256 0
	mtlr 0
	.loc 1 251 0
	neg 3,3
	.loc 1 256 0
	addi 1,1,8
	.cfi_remember_state
.LCFI37:
	.cfi_def_cfa_offset 0
	blr
.LVL125:
.L80:
.LCFI38:
	.cfi_restore_state
	lwz 0,12(1)
	.loc 1 243 0
	rlwinm 3,4,0,31,31
	.loc 1 256 0
	addi 1,1,8
	.cfi_remember_state
.LCFI39:
	.cfi_def_cfa_offset 0
	mtlr 0
	blr
.L81:
.LCFI40:
	.cfi_restore_state
	lwz 0,12(1)
	.loc 1 245 0
	cntlzw 4,4
.LVL126:
	srwi 4,4,5
	.loc 1 256 0
	mtlr 0
	.loc 1 245 0
	xori 3,4,1
	.loc 1 256 0
	addi 1,1,8
	.cfi_remember_state
.LCFI41:
	.cfi_def_cfa_offset 0
	blr
.LVL127:
.L82:
.LCFI42:
	.cfi_restore_state
	lwz 0,12(1)
	.loc 1 247 0
	srawi 3,4,31
	subf 4,4,3
.LVL128:
	.loc 1 256 0
	mtlr 0
	.loc 1 247 0
	srwi 3,4,31
	.loc 1 256 0
	addi 1,1,8
.LCFI43:
	.cfi_def_cfa_offset 0
	blr
	.cfi_endproc
.LFE37:
	.size	IsWindingInside.isra.6, .-IsWindingInside.isra.6
	.align 2
	.type	DeleteRegion.isra.8, @function
DeleteRegion.isra.8:
.LFB39:
	.loc 1 152 0
	.cfi_startproc
.LVL129:
	mflr 0
	stwu 1,-16(1)
.LCFI44:
	.cfi_def_cfa_offset 16
	.cfi_register 65, 0
	stw 31,12(1)
	mr 31,4
	.cfi_offset 31, -4
	stw 0,20(1)
	.loc 1 154 0
	lbz 0,15(4)
	.cfi_offset 65, 4
	.loc 1 159 0
	lwz 9,0(4)
	.loc 1 154 0
	cmpwi 7,0,0
	beq- 7,.L90
	.loc 1 159 0
	lwz 0,28(9)
	cmpwi 7,0,0
	bne- 7,.L91
.L90:
	.loc 1 161 0
	li 0,0
	.loc 1 162 0
	lwz 4,4(31)
.LVL130:
	.loc 1 161 0
	stw 0,24(9)
	.loc 1 162 0
	lwz 3,0(3)
	bl __gl_dictListDelete
	.loc 1 163 0
	mr 3,31
	bl free
	.loc 1 164 0
	lwz 0,20(1)
	lwz 31,12(1)
.LVL131:
	mtlr 0
	addi 1,1,16
	.cfi_remember_state
.LCFI45:
	.cfi_def_cfa_offset 0
	.cfi_restore 31
	blr
.LVL132:
.L91:
.LCFI46:
	.cfi_restore_state
.LBB37:
.LBB38:
	.loc 1 159 0
	lis 3,.LC6@ha
	lis 5,.LANCHOR1@ha
	lis 6,.LC9@ha
	la 3,.LC6@l(3)
	li 4,159
.LVL133:
	la 5,.LANCHOR1@l(5)
	la 6,.LC9@l(6)
	bl __assert_func
.LBE38:
.LBE37:
	.cfi_endproc
.LFE39:
	.size	DeleteRegion.isra.8, .-DeleteRegion.isra.8
	.align 2
	.type	FinishLeftRegions, @function
FinishLeftRegions:
.LFB9:
	.loc 1 298 0
	.cfi_startproc
.LVL134:
	mflr 0
	stwu 1,-40(1)
.LCFI47:
	.cfi_def_cfa_offset 40
	.cfi_register 65, 0
	.loc 1 304 0
	cmpw 7,4,5
	.loc 1 298 0
	stw 24,8(1)
	mr 24,3
	.cfi_offset 24, -32
	stw 0,44(1)
	stw 27,20(1)
	mr 27,5
	.cfi_offset 27, -20
	.cfi_offset 65, 4
	stw 28,24(1)
	stw 25,12(1)
	stw 26,16(1)
	stw 29,28(1)
	stw 30,32(1)
	stw 31,36(1)
	.loc 1 303 0
	lwz 28,0(4)
	.cfi_offset 31, -4
	.cfi_offset 30, -8
	.cfi_offset 29, -12
	.cfi_offset 26, -24
	.cfi_offset 25, -28
	.cfi_offset 28, -16
.LVL135:
	.loc 1 304 0
	beq- 7,.L93
	mr 29,4
	.loc 1 305 0
	li 26,0
.LBB39:
	.loc 1 1359 0
	addi 25,3,104
	b .L99
.LVL136:
.L100:
.LBE39:
	.loc 1 304 0
	mr 29,30
.LVL137:
.L99:
	.loc 1 305 0
	stb 26,15(29)
	.loc 1 306 0
	lwz 9,4(29)
	.loc 1 308 0
	lwz 0,16(28)
	.loc 1 306 0
	lwz 9,8(9)
	lwz 30,0(9)
.LVL138:
	.loc 1 307 0
	lwz 31,0(30)
.LVL139:
	.loc 1 308 0
	lwz 9,16(31)
	cmpw 7,9,0
	beq- 7,.L94
.LVL140:
	.loc 1 309 0
	lbz 0,15(30)
	cmpwi 7,0,0
	beq- 7,.L103
	.loc 1 322 0
	lwz 9,8(28)
	lwz 4,4(31)
	lwz 3,4(9)
	bl __gl_meshConnect
.LVL141:
	.loc 1 323 0
	mr. 31,3
	beq- 0,.L102
	.loc 1 324 0
	mr 3,30
.LVL142:
	mr 4,31
	bl FixUpperEdge
	cmpwi 7,3,0
	beq- 7,.L102
.LVL143:
.L94:
	.loc 1 328 0
	lwz 0,8(28)
	cmpw 7,0,31
	beq- 7,.L97
	.loc 1 329 0
	lwz 9,4(31)
	mr 4,31
	lwz 3,12(9)
	bl __gl_meshSplice
	cmpwi 7,3,0
	beq- 7,.L102
	.loc 1 330 0
	mr 3,28
	mr 4,31
	bl __gl_meshSplice
	cmpwi 7,3,0
	beq- 7,.L102
.L97:
.LVL144:
.LBB41:
.LBB40:
	.loc 1 275 0
	lwz 11,0(29)
.LVL145:
	.loc 1 280 0
	mr 3,25
	.loc 1 278 0
	lbz 0,12(29)
	.loc 1 280 0
	mr 4,29
	.loc 1 276 0
	lwz 9,20(11)
.LVL146:
	.loc 1 278 0
	stb 0,21(9)
	.loc 1 279 0
	stw 11,8(9)
	.loc 1 280 0
	bl DeleteRegion.isra.8
.LVL147:
.LBE40:
.LBE41:
	.loc 1 304 0
	cmpw 7,27,30
	.loc 1 333 0
	lwz 28,0(30)
.LVL148:
	.loc 1 304 0
	bne+ 7,.L100
.LVL149:
.L93:
	.loc 1 337 0
	lwz 0,44(1)
	mr 3,28
	lwz 24,8(1)
.LVL150:
	mtlr 0
	lwz 25,12(1)
	lwz 26,16(1)
	lwz 27,20(1)
.LVL151:
	lwz 28,24(1)
.LVL152:
	lwz 29,28(1)
	lwz 30,32(1)
	lwz 31,36(1)
	addi 1,1,40
	.cfi_remember_state
.LCFI48:
	.cfi_def_cfa_offset 0
	.cfi_restore 31
	.cfi_restore 30
	.cfi_restore 29
	.cfi_restore 28
	.cfi_restore 27
	.cfi_restore 26
	.cfi_restore 25
	.cfi_restore 24
	blr
.LVL153:
.L103:
.LCFI49:
	.cfi_restore_state
.LBB42:
.LBB43:
	.loc 1 275 0
	lwz 11,0(29)
.LVL154:
	.loc 1 280 0
	addi 3,24,104
	.loc 1 278 0
	lbz 0,12(29)
	.loc 1 280 0
	mr 4,29
	.loc 1 276 0
	lwz 9,20(11)
.LVL155:
	.loc 1 278 0
	stb 0,21(9)
	.loc 1 279 0
	stw 11,8(9)
	.loc 1 280 0
	bl DeleteRegion.isra.8
.LVL156:
.LBE43:
.LBE42:
	.loc 1 337 0
	lwz 0,44(1)
	mr 3,28
	lwz 24,8(1)
.LVL157:
	mtlr 0
	lwz 25,12(1)
.LVL158:
	lwz 26,16(1)
	lwz 27,20(1)
.LVL159:
	lwz 28,24(1)
.LVL160:
	lwz 29,28(1)
.LVL161:
	lwz 30,32(1)
.LVL162:
	lwz 31,36(1)
.LVL163:
	addi 1,1,40
	.cfi_remember_state
	.cfi_restore 24
	.cfi_restore 25
	.cfi_restore 26
	.cfi_restore 27
	.cfi_restore 28
	.cfi_restore 29
	.cfi_restore 30
	.cfi_restore 31
.LCFI50:
	.cfi_def_cfa_offset 0
	blr
.LVL164:
.L102:
.LCFI51:
	.cfi_restore_state
	.loc 1 330 0 discriminator 1
	addi 3,24,3384
	li 4,1
	bl longjmp
	.cfi_endproc
.LFE9:
	.size	FinishLeftRegions, .-FinishLeftRegions
	.align 2
	.type	WalkDirtyRegions, @function
WalkDirtyRegions:
.LFB18:
	.loc 1 769 0
	.cfi_startproc
.LVL165:
	mflr 0
	stwu 1,-56(1)
.LCFI52:
	.cfi_def_cfa_offset 56
	.cfi_register 65, 0
	stw 30,48(1)
	stw 0,60(1)
	stw 26,32(1)
	.loc 1 770 0
	lwz 9,4(4)
	.loc 1 769 0
	stw 27,36(1)
	.loc 1 770 0
	lwz 9,8(9)
	.loc 1 769 0
	stw 28,40(1)
	stw 29,44(1)
	.loc 1 770 0
	lwz 30,0(9)
	.cfi_offset 29, -12
	.cfi_offset 28, -16
	.cfi_offset 27, -20
	.cfi_offset 26, -24
	.cfi_offset 65, 4
	.cfi_offset 30, -8
.LVL166:
	.loc 1 769 0
	stw 21,12(1)
	.loc 1 1359 0
	addi 21,3,104
	.cfi_offset 21, -44
	.loc 1 769 0
	stw 22,16(1)
.LBB46:
.LBB47:
	.loc 1 587 0
	li 22,1
	.cfi_offset 22, -40
.LBE47:
.LBE46:
	.loc 1 769 0
	stw 23,20(1)
.LBB53:
.LBB48:
	.loc 1 584 0
	lis 23,.LC1@ha
	.cfi_offset 23, -36
.LBE48:
.LBE53:
	.loc 1 769 0
	stw 24,24(1)
	.loc 1 787 0
	li 24,0
	.cfi_offset 24, -32
	.loc 1 769 0
	stw 25,28(1)
	mr 25,3
	.cfi_offset 25, -28
	stw 31,52(1)
	.loc 1 769 0
	mr 31,4
	.cfi_offset 31, -4
.LVL167:
.L133:
	.loc 1 775 0 discriminator 1
	lbz 0,14(30)
	cmpwi 7,0,0
	bne- 7,.L106
.L140:
	.loc 1 779 0
	lbz 0,14(31)
	cmpwi 7,0,0
	bne- 7,.L107
.LVL168:
	.loc 1 781 0
	lwz 9,4(31)
	lwz 9,4(9)
	lwz 9,0(9)
.LVL169:
	.loc 1 782 0
	cmpwi 7,9,0
	beq- 7,.L104
	.loc 1 782 0 is_stmt 0 discriminator 1
	lbz 0,14(9)
	cmpwi 7,0,0
	beq- 7,.L104
	.loc 1 782 0
	mr 30,31
	mr 31,9
.LVL170:
.L107:
	.loc 1 787 0 is_stmt 1
	stb 24,14(31)
	.loc 1 788 0
	lwz 29,0(31)
.LVL171:
	.loc 1 789 0
	lwz 28,0(30)
.LVL172:
	.loc 1 791 0
	lwz 10,4(29)
	lwz 11,4(28)
	lwz 9,16(10)
	lwz 0,16(11)
	cmpw 7,9,0
	beq- 7,.L109
.LVL173:
.LBB54:
.LBB49:
	.loc 1 576 0
	lwz 11,4(31)
	.loc 1 581 0
	lfd 13,40(9)
	.loc 1 576 0
	lwz 11,8(11)
	lwz 26,0(11)
.LVL174:
	.loc 1 578 0
	lwz 27,0(26)
.LVL175:
	.loc 1 581 0
	lwz 11,4(27)
	lwz 4,16(11)
	lfd 0,40(4)
	fcmpu 7,13,0
	bne- 7,.L110
	lfd 11,48(9)
	lfd 12,48(4)
	fcmpu 7,11,12
	beq- 7,.L138
.L110:
	.loc 1 583 0
	fcmpu 7,13,0
	blt- 7,.L111
	bne- 7,.L112
	lfd 13,48(9)
	lfd 0,48(4)
	fcmpu 7,13,0
	cror 30,28,30
	beq- 7,.L111
.L112:
	.loc 1 593 0
	lwz 5,16(27)
	mr 3,4
	mr 4,9
	bl __gl_edgeSign
.LVL176:
	lfd 0,.LC1@l(23)
	fcmpu 7,1,0
	bng- 7,.L139
.LVL177:
.L135:
.LBE49:
.LBE54:
	.loc 1 804 0
	lwz 10,4(29)
	lwz 11,4(28)
	lwz 9,16(10)
	lwz 0,16(11)
	cmpw 7,9,0
.LVL178:
.L109:
	.loc 1 812 0
	lwz 7,16(29)
	lwz 8,16(28)
	cmpw 6,7,8
	beq- 6,.L123
	.loc 1 813 0
	beq- 7,.L124
	.loc 1 814 0
	lbz 11,15(31)
	cmpwi 7,11,0
	bne- 7,.L124
	.loc 1 814 0 is_stmt 0 discriminator 1
	lbz 11,15(30)
	cmpwi 7,11,0
	bne- 7,.L124
	.loc 1 815 0 is_stmt 1
	lwz 11,112(25)
	cmpw 7,11,9
	beq- 7,.L125
	.loc 1 815 0 is_stmt 0 discriminator 1
	cmpw 7,11,0
	beq- 7,.L125
.L124:
	.loc 1 833 0 is_stmt 1
	mr 3,25
	mr 4,31
	bl CheckForRightSplice
.L126:
	.loc 1 836 0
	lwz 9,16(29)
	lwz 0,16(28)
	cmpw 7,9,0
	bne+ 7,.L133
	lwz 10,4(29)
	lwz 11,4(28)
	lwz 9,16(10)
	lwz 0,16(11)
	cmpw 7,9,0
.L123:
	.loc 1 836 0 is_stmt 0 discriminator 1
	bne+ 7,.L133
	.loc 1 838 0 is_stmt 1
	lwz 9,28(28)
	.loc 1 839 0
	mr 4,31
	.loc 1 838 0
	lwz 0,28(29)
	.loc 1 839 0
	mr 3,21
	.loc 1 838 0
	add 0,9,0
	stw 0,28(28)
	lwz 9,28(11)
	lwz 0,28(10)
	add 0,9,0
	stw 0,28(11)
	.loc 1 839 0
	bl DeleteRegion.isra.8
	.loc 1 840 0
	mr 3,29
	bl __gl_meshDelete
	cmpwi 7,3,0
	beq- 7,.L137
	.loc 1 775 0
	lbz 0,14(30)
	.loc 1 841 0
	lwz 9,4(30)
	.loc 1 775 0
	cmpwi 7,0,0
	.loc 1 841 0
	lwz 9,4(9)
	lwz 31,0(9)
.LVL179:
	.loc 1 775 0
	beq- 7,.L140
.LVL180:
.L106:
	.loc 1 777 0
	lwz 9,4(30)
	mr 31,30
	lwz 9,8(9)
.LVL181:
	lwz 30,0(9)
.LVL182:
	b .L133
.LVL183:
.L111:
.LBB55:
.LBB50:
	.loc 1 584 0
	lwz 5,16(29)
	mr 3,9
	bl __gl_edgeSign
	lfd 0,.LC1@l(23)
	fcmpu 7,1,0
	blt+ 7,.L135
	.loc 1 587 0
	lwz 9,4(31)
	.loc 1 588 0
	mr 3,29
	.loc 1 587 0
	lwz 9,4(9)
	lwz 9,0(9)
	stb 22,14(31)
	stb 22,14(9)
	.loc 1 588 0
	bl __gl_meshSplitEdge
.LVL184:
	.loc 1 589 0
	mr. 26,3
.LVL185:
	beq- 0,.L137
	.loc 1 590 0
	lwz 3,4(27)
.LVL186:
	mr 4,26
	bl __gl_meshSplice
	cmpwi 7,3,0
	beq- 7,.L137
	.loc 1 591 0
	lbz 0,12(31)
	lwz 9,20(26)
	stb 0,21(9)
.LBE50:
.LBE55:
	.loc 1 799 0
	lbz 0,15(30)
	cmpwi 7,0,0
	bne- 7,.L141
.L134:
	.loc 1 804 0
	lbz 0,15(31)
	cmpwi 7,0,0
	beq+ 7,.L135
	.loc 1 805 0
	mr 4,31
	mr 3,21
	bl DeleteRegion.isra.8
	.loc 1 806 0
	mr 3,29
	bl __gl_meshDelete
	cmpwi 7,3,0
	beq- 7,.L137
	.loc 1 807 0
	lwz 9,4(30)
	.loc 1 808 0
	lwz 11,4(28)
	.loc 1 807 0
	lwz 9,4(9)
	.loc 1 808 0
	lwz 0,16(11)
	.loc 1 807 0
	lwz 31,0(9)
.LVL187:
	.loc 1 808 0
	lwz 29,0(31)
.LVL188:
	lwz 10,4(29)
	lwz 9,16(10)
	cmpw 7,9,0
	b .L109
.LVL189:
.L139:
.LBB56:
.LBB51:
	.loc 1 596 0
	stb 22,14(26)
	.loc 1 597 0
	mr 3,27
	.loc 1 596 0
	stb 22,14(31)
	.loc 1 597 0
	bl __gl_meshSplitEdge
.LVL190:
	.loc 1 598 0
	mr. 26,3
.LVL191:
	beq- 0,.L137
	.loc 1 599 0
	lwz 3,12(29)
.LVL192:
	lwz 4,4(27)
	bl __gl_meshSplice
	cmpwi 7,3,0
	beq- 7,.L137
	.loc 1 600 0
	lwz 9,4(26)
	lbz 0,12(31)
	lwz 9,20(9)
	stb 0,21(9)
.LBE51:
.LBE56:
	.loc 1 799 0
	lbz 0,15(30)
	cmpwi 7,0,0
	beq+ 7,.L134
.L141:
	.loc 1 800 0
	mr 4,30
	mr 3,21
	bl DeleteRegion.isra.8
	.loc 1 801 0
	mr 3,28
	bl __gl_meshDelete
	cmpwi 7,3,0
	beq- 7,.L137
	.loc 1 802 0
	lwz 9,4(31)
	.loc 1 803 0
	lwz 10,4(29)
	.loc 1 802 0
	lwz 11,8(9)
	.loc 1 803 0
	lwz 9,16(10)
	.loc 1 802 0
	lwz 30,0(11)
.LVL193:
	.loc 1 803 0
	lwz 28,0(30)
.LVL194:
	lwz 11,4(28)
	lwz 0,16(11)
	cmpw 7,9,0
	b .L109
.LVL195:
.L125:
	.loc 1 825 0
	mr 3,25
	mr 4,31
	bl CheckForIntersect
	cmpwi 7,3,0
	beq+ 7,.L126
.LVL196:
.L104:
	.loc 1 844 0
	lwz 0,60(1)
	lwz 21,12(1)
	mtlr 0
	lwz 22,16(1)
	lwz 23,20(1)
	lwz 24,24(1)
	lwz 25,28(1)
.LVL197:
	lwz 26,32(1)
	lwz 27,36(1)
	lwz 28,40(1)
	lwz 29,44(1)
	lwz 30,48(1)
	lwz 31,52(1)
	addi 1,1,56
	.cfi_remember_state
.LCFI53:
	.cfi_def_cfa_offset 0
	.cfi_restore 31
	.cfi_restore 30
	.cfi_restore 29
	.cfi_restore 28
	.cfi_restore 27
	.cfi_restore 26
	.cfi_restore 25
	.cfi_restore 24
	.cfi_restore 23
	.cfi_restore 22
	.cfi_restore 21
	blr
.LVL198:
.L138:
.LCFI54:
	.cfi_restore_state
.LBB57:
.LBB52:
	.loc 1 581 0
	lis 5,.LANCHOR1@ha
	lis 3,.LC6@ha
	la 5,.LANCHOR1@l(5)
	lis 6,.LC10@ha
	la 3,.LC6@l(3)
	li 4,581
	addi 5,5,16
	la 6,.LC10@l(6)
	bl __assert_func
.LVL199:
.L137:
.LBE52:
.LBE57:
	.loc 1 840 0 discriminator 1
	addi 3,25,3384
	li 4,1
	bl longjmp
	.cfi_endproc
.LFE18:
	.size	WalkDirtyRegions, .-WalkDirtyRegions
	.align 2
	.type	AddRightEdges, @function
AddRightEdges:
.LFB10:
	.loc 1 353 0
	.cfi_startproc
.LVL200:
	mflr 0
	stwu 1,-48(1)
.LCFI55:
	.cfi_def_cfa_offset 48
	.cfi_register 65, 0
	stw 23,12(1)
	stw 0,52(1)
	stw 24,16(1)
	stw 25,20(1)
	mr 25,8
	.cfi_offset 25, -28
	.cfi_offset 24, -32
	.cfi_offset 65, 4
	.cfi_offset 23, -36
	stw 26,24(1)
	.loc 1 1359 0
	addi 26,4,4
	.cfi_offset 26, -24
	.loc 1 353 0
	stw 27,28(1)
	.loc 1 359 0
	mr 27,5
	.cfi_offset 27, -20
	.loc 1 353 0
	stw 28,32(1)
	mr 28,7
	.cfi_offset 28, -16
	stw 29,36(1)
	mr 29,6
	.cfi_offset 29, -12
	stw 30,40(1)
	mr 30,4
	.cfi_offset 30, -8
	stw 31,44(1)
	.loc 1 353 0
	mr 31,3
	.cfi_offset 31, -4
.LVL201:
.L145:
	.loc 1 361 0
	lwz 5,4(27)
	lwz 11,16(27)
	lwz 9,16(5)
	lfd 13,40(11)
	lfd 0,40(9)
	fcmpu 7,13,0
	fcmpu 6,13,0
	blt- 7,.L143
	.loc 1 361 0 is_stmt 0 discriminator 1
	bne- 6,.L144
	.loc 1 361 0 discriminator 3
	lfd 13,48(11)
	lfd 0,48(9)
	fcmpu 7,13,0
	cror 30,28,30
	bne- 7,.L144
.L143:
	.loc 1 362 0 is_stmt 1
	mr 3,31
	mr 4,26
	bl AddRegionBelow.isra.2
	.loc 1 363 0
	lwz 27,8(27)
.LVL202:
	.loc 1 364 0
	cmpw 7,27,29
	bne+ 7,.L145
	.loc 1 371 0
	lwz 9,4(30)
	.loc 1 370 0
	cmpwi 7,28,0
	.loc 1 371 0
	lwz 9,8(9)
	lwz 27,0(9)
.LVL203:
	lwz 9,0(27)
	lwz 29,4(9)
.LVL204:
	.loc 1 370 0
	beq- 7,.L146
.LVL205:
.L147:
	.loc 1 371 0
	li 26,1
	.loc 1 392 0
	li 24,1
	.loc 1 1359 0
	addi 23,31,104
	b .L148
.LVL206:
.L152:
	.loc 1 371 0
	lwz 9,4(27)
	mr 30,27
.LVL207:
	mr 28,29
.LVL208:
	li 26,0
.LVL209:
	lwz 9,8(9)
	lwz 27,0(9)
.LVL210:
	lwz 9,0(27)
	lwz 29,4(9)
.LVL211:
.L148:
	.loc 1 378 0
	lwz 9,16(29)
	lwz 0,16(28)
	cmpw 7,9,0
	bne- 7,.L149
	.loc 1 380 0
	lwz 0,8(29)
	cmpw 7,0,28
	beq- 7,.L150
	.loc 1 382 0
	lwz 9,4(29)
	mr 4,29
	lwz 3,12(9)
	bl __gl_meshSplice
	cmpwi 7,3,0
	beq- 7,.L157
	.loc 1 383 0
	lwz 9,4(28)
	mr 4,29
	lwz 3,12(9)
	bl __gl_meshSplice
	cmpwi 7,3,0
	beq- 7,.L157
.L150:
	.loc 1 386 0
	lwz 0,28(29)
	lwz 4,8(30)
	subf 4,0,4
	stw 4,8(27)
	.loc 1 387 0
	lwz 3,96(31)
	bl IsWindingInside.isra.6
	.loc 1 393 0
	cmpwi 7,26,0
	.loc 1 387 0
	stb 3,12(27)
	.loc 1 392 0
	stb 24,14(30)
	.loc 1 393 0
	bne+ 7,.L152
	.loc 1 393 0 is_stmt 0 discriminator 1
	mr 3,31
	mr 4,30
	bl CheckForRightSplice
	cmpwi 7,3,0
	beq+ 7,.L152
	.loc 1 394 0 is_stmt 1
	lwz 11,28(29)
	.loc 1 395 0
	mr 4,30
	.loc 1 394 0
	lwz 0,28(28)
	.loc 1 395 0
	mr 3,23
	.loc 1 394 0
	lwz 9,4(29)
	add 0,11,0
	lwz 10,4(28)
	stw 0,28(29)
	lwz 11,28(9)
	lwz 0,28(10)
	add 0,11,0
	stw 0,28(9)
	.loc 1 395 0
	bl DeleteRegion.isra.8
	.loc 1 396 0
	mr 3,28
	bl __gl_meshDelete
	cmpwi 7,3,0
	bne+ 7,.L152
.L157:
	.loc 1 396 0 is_stmt 0 discriminator 1
	addi 3,31,3384
	li 4,1
	bl longjmp
.L149:
	.loc 1 402 0 is_stmt 1
	li 0,1
	.loc 1 403 0
	lwz 11,8(30)
	.loc 1 402 0
	stb 0,14(30)
	.loc 1 403 0
	lwz 0,8(27)
	lwz 9,28(29)
	subf 9,9,11
	cmpw 7,9,0
	bne- 7,.L158
	.loc 1 405 0
	cmpwi 7,25,0
	bne- 7,.L159
	.loc 1 409 0
	lwz 0,52(1)
	lwz 23,12(1)
	mtlr 0
	lwz 24,16(1)
	lwz 25,20(1)
	lwz 26,24(1)
.LVL212:
	lwz 27,28(1)
.LVL213:
	lwz 28,32(1)
.LVL214:
	lwz 29,36(1)
.LVL215:
	lwz 30,40(1)
.LVL216:
	lwz 31,44(1)
.LVL217:
	addi 1,1,48
	.cfi_remember_state
.LCFI56:
	.cfi_def_cfa_offset 0
	.cfi_restore 31
	.cfi_restore 30
	.cfi_restore 29
	.cfi_restore 28
	.cfi_restore 27
	.cfi_restore 26
	.cfi_restore 25
	.cfi_restore 24
	.cfi_restore 23
	blr
.LVL218:
.L159:
.LCFI57:
	.cfi_restore_state
	lwz 0,52(1)
	.loc 1 407 0
	mr 3,31
	.loc 1 409 0
	lwz 23,12(1)
	.loc 1 407 0
	mr 4,30
	.loc 1 409 0
	lwz 24,16(1)
	mtlr 0
	lwz 25,20(1)
	lwz 26,24(1)
.LVL219:
	lwz 27,28(1)
.LVL220:
	lwz 28,32(1)
.LVL221:
	lwz 29,36(1)
.LVL222:
	lwz 30,40(1)
.LVL223:
	lwz 31,44(1)
.LVL224:
	addi 1,1,48
	.cfi_remember_state
.LCFI58:
	.cfi_def_cfa_offset 0
	.cfi_restore 31
	.cfi_restore 30
	.cfi_restore 29
	.cfi_restore 28
	.cfi_restore 27
	.cfi_restore 26
	.cfi_restore 25
	.cfi_restore 24
	.cfi_restore 23
	.loc 1 407 0
	b WalkDirtyRegions
.LVL225:
.L146:
.LCFI59:
	.cfi_restore_state
	.loc 1 371 0
	lwz 28,8(29)
.LVL226:
	b .L147
.LVL227:
.L144:
	.loc 1 361 0 discriminator 2
	lis 5,.LANCHOR1@ha
	lis 3,.LC6@ha
	la 5,.LANCHOR1@l(5)
	lis 6,.LC11@ha
	la 3,.LC6@l(3)
	li 4,361
	addi 5,5,36
	la 6,.LC11@l(6)
	bl __assert_func
.LVL228:
.L158:
	.loc 1 403 0 discriminator 1
	lis 5,.LANCHOR1@ha
	lis 3,.LC6@ha
	la 5,.LANCHOR1@l(5)
	lis 6,.LC12@ha
	la 3,.LC6@l(3)
	li 4,403
	addi 5,5,36
	la 6,.LC12@l(6)
	bl __assert_func
	.cfi_endproc
.LFE10:
	.size	AddRightEdges, .-AddRightEdges
	.align 2
	.type	CheckForIntersect, @function
CheckForIntersect:
.LFB17:
	.loc 1 616 0
	.cfi_startproc
.LVL229:
	mflr 0
	stwu 1,-152(1)
.LCFI60:
	.cfi_def_cfa_offset 152
	.cfi_register 65, 0
	stw 23,108(1)
	stw 0,156(1)
	stw 25,116(1)
	.loc 1 617 0
	lwz 9,4(4)
	.loc 1 618 0
	lwz 25,0(4)
	.cfi_offset 25, -36
	.cfi_offset 65, 4
	.cfi_offset 23, -44
	.loc 1 617 0
	lwz 11,8(9)
	.loc 1 616 0
	stw 24,112(1)
	.loc 1 617 0
	lwz 23,0(11)
.LVL230:
	.loc 1 622 0
	lwz 9,4(25)
	.loc 1 619 0
	lwz 24,0(23)
	.cfi_offset 24, -40
.LVL231:
	.loc 1 616 0
	stw 29,132(1)
	.loc 1 622 0
	lwz 29,16(9)
	.cfi_offset 29, -20
	.loc 1 623 0
	lwz 9,4(24)
	.loc 1 616 0
	stw 28,128(1)
	.loc 1 623 0
	lwz 28,16(9)
	.cfi_offset 28, -24
	.loc 1 628 0
	lfd 0,40(29)
	lfd 13,40(28)
	.loc 1 616 0
	stw 26,120(1)
	mr 26,4
	.cfi_offset 26, -32
	.loc 1 628 0
	fcmpu 7,13,0
	.loc 1 616 0
	stw 27,124(1)
	stw 30,136(1)
	mr 27,3
	.cfi_offset 30, -16
	.cfi_offset 27, -28
	stw 31,140(1)
	stfd 31,144(1)
	stw 22,104(1)
	.loc 1 620 0
	lwz 31,16(25)
	.cfi_offset 22, -48
	.cfi_offset 63, -8
	.cfi_offset 31, -12
.LVL232:
	.loc 1 621 0
	lwz 30,16(24)
.LVL233:
	.loc 1 628 0
	bne- 7,.L161
	.loc 1 628 0 is_stmt 0 discriminator 1
	lfd 13,48(28)
	lfd 0,48(29)
	fcmpu 7,13,0
	beq- 7,.L246
.L161:
	.loc 1 629 0 is_stmt 1
	lwz 4,112(27)
.LVL234:
	mr 3,29
.LVL235:
	mr 5,31
	lis 22,.LC1@ha
	bl __gl_edgeSign
.LVL236:
	lfd 31,.LC1@l(22)
	fcmpu 7,1,31
	cror 30,28,30
	bne- 7,.L247
	.loc 1 630 0
	lwz 4,112(27)
	mr 3,28
	mr 5,30
	bl __gl_edgeSign
	fcmpu 7,1,31
	cror 30,29,30
	bne- 7,.L248
	.loc 1 631 0
	lwz 0,112(27)
	cmpw 7,0,31
	beq- 7,.L164
	.loc 1 631 0 is_stmt 0 discriminator 2
	cmpw 7,30,0
	beq- 7,.L164
	.loc 1 632 0 is_stmt 1
	lbz 0,15(26)
	cmpwi 7,0,0
	bne- 7,.L166
	.loc 1 632 0 is_stmt 0 discriminator 2
	lbz 0,15(23)
	cmpwi 7,0,0
	bne- 7,.L166
	.loc 1 634 0 is_stmt 1
	cmpw 7,31,30
	beq- 7,.L243
	.loc 1 636 0
	lfd 11,48(31)
	lfd 13,48(29)
	fcmpu 7,11,13
	cror 30,28,30
	bne- 7,.L169
	fmr 13,11
.L169:
.LVL237:
	.loc 1 637 0 discriminator 3
	lfd 12,48(30)
	lfd 0,48(28)
	fcmpu 7,12,0
	cror 30,29,30
	beq- 7,.L249
.L171:
.LVL238:
	.loc 1 638 0 discriminator 3
	fcmpu 7,13,0
	bgt- 7,.L243
	.loc 1 640 0
	lfd 13,40(31)
.LVL239:
	lfd 0,40(30)
.LVL240:
	fcmpu 7,13,0
	blt- 7,.L173
	.loc 1 640 0 is_stmt 0 discriminator 1
	bne- 7,.L174
	fcmpu 7,11,12
	cror 30,28,30
	bne- 7,.L174
.L173:
	.loc 1 641 0 is_stmt 1
	mr 3,28
	mr 4,31
	mr 5,30
	bl __gl_edgeSign
	lfd 0,.LC1@l(22)
	fcmpu 7,1,0
	bgt- 7,.L243
.L176:
	.loc 1 649 0
	mr 3,29
	mr 4,31
	mr 5,28
	mr 6,30
	addi 7,1,40
	bl __gl_edgeIntersect
	.loc 1 651 0
	lfd 13,48(31)
	lfd 0,48(29)
	fcmpu 7,13,0
	cror 30,28,30
	beq- 7,.L250
.L177:
	.loc 1 651 0 is_stmt 0 discriminator 3
	lfd 11,88(1)
	fcmpu 7,0,11
	cror 30,28,30
	bne- 7,.L251
	.loc 1 652 0 is_stmt 1
	lfd 13,48(30)
	lfd 0,48(28)
	fcmpu 7,13,0
	cror 30,29,30
	beq- 7,.L252
.L180:
	.loc 1 652 0 is_stmt 0 discriminator 3
	fcmpu 7,0,11
	cror 30,29,30
	bne- 7,.L253
	.loc 1 653 0 is_stmt 1
	lfd 0,40(28)
	lfd 13,40(29)
	fcmpu 7,0,13
	cror 30,28,30
	beq- 7,.L254
.L183:
	.loc 1 653 0 is_stmt 0 discriminator 3
	lfd 0,80(1)
	fcmpu 7,13,0
	cror 30,28,30
	bne- 7,.L255
	.loc 1 654 0 is_stmt 1
	lfd 13,40(30)
	lfd 12,40(31)
	fmr 10,13
	fcmpu 7,13,12
	cror 30,29,30
	bne- 7,.L256
.L186:
	.loc 1 654 0 is_stmt 0 discriminator 3
	fcmpu 7,10,0
	cror 30,29,30
	bne- 7,.L257
	.loc 1 656 0 is_stmt 1
	lwz 4,112(27)
	lfd 10,40(4)
	fcmpu 7,0,10
	bnl- 7,.L241
	lfd 9,48(4)
.L189:
	.loc 1 663 0
	stfd 10,80(1)
	.loc 1 664 0
	fmr 0,10
	stfd 9,88(1)
	lfd 12,40(31)
	lfd 13,40(30)
.L190:
	.loc 1 672 0
	fcmpu 7,13,12
	bgt- 7,.L229
	.loc 1 672 0 is_stmt 0 discriminator 2
	bne- 7,.L228
	.loc 1 672 0 discriminator 1
	lfd 10,48(31)
	lfd 11,48(30)
	fcmpu 7,10,11
	cror 30,28,30
	bne- 7,.L228
.L229:
	.loc 1 672 0
	fmr 13,12
	mr 9,31
.LVL241:
	.loc 1 673 0 is_stmt 1
	fcmpu 7,0,13
	bng- 7,.L242
.LVL242:
.L261:
	lfd 11,48(9)
.L193:
	.loc 1 674 0
	stfd 13,80(1)
	.loc 1 675 0
	fmr 0,13
	stfd 11,88(1)
	lfd 12,40(31)
.L194:
	.loc 1 678 0
	fcmpu 7,12,0
	bne- 7,.L196
	.loc 1 678 0 is_stmt 0 discriminator 1
	lfd 13,48(31)
	lfd 12,88(1)
	fcmpu 7,12,13
	beq- 7,.L197
.L196:
	.loc 1 678 0 discriminator 2
	lfd 13,40(30)
	fcmpu 7,13,0
	bne- 7,.L198
	.loc 1 678 0 discriminator 1
	lfd 0,48(30)
	lfd 13,88(1)
	fcmpu 7,13,0
	beq- 7,.L197
.L198:
	.loc 1 684 0 is_stmt 1
	lfd 0,40(4)
	mr 9,4
.LVL243:
	lfd 13,40(29)
	fcmpu 7,13,0
	bne- 7,.L199
	.loc 1 684 0 is_stmt 0 discriminator 1
	lfd 12,48(29)
	lfd 13,48(4)
	fcmpu 7,12,13
	beq- 7,.L200
.L199:
	.loc 1 685 0 is_stmt 1
	mr 3,29
	addi 5,1,40
	bl __gl_edgeSign
	lfd 0,.LC1@l(22)
	fcmpu 7,1,0
	cror 30,29,30
	beq- 7,.L201
	lwz 9,112(27)
	lfd 0,40(9)
.L200:
	.loc 1 686 0
	lfd 13,40(28)
	fcmpu 7,13,0
	bne- 7,.L202
	.loc 1 686 0 is_stmt 0 discriminator 1
	lfd 13,48(28)
	lfd 0,48(9)
	fcmpu 7,13,0
	beq- 7,.L203
.L202:
	.loc 1 687 0 is_stmt 1
	mr 3,28
	mr 4,9
	addi 5,1,40
	bl __gl_edgeSign
	lfd 0,.LC1@l(22)
	fcmpu 7,1,0
	cror 30,28,30
	beq- 7,.L201
.L203:
	.loc 1 744 0
	lwz 3,4(25)
	bl __gl_meshSplitEdge
	cmpwi 7,3,0
	beq- 7,.L245
	.loc 1 745 0
	lwz 3,4(24)
	bl __gl_meshSplitEdge
	cmpwi 7,3,0
	beq- 7,.L245
	.loc 1 746 0
	lwz 9,4(24)
	mr 4,25
	lwz 3,12(9)
	bl __gl_meshSplice
	cmpwi 7,3,0
	beq- 7,.L245
	.loc 1 747 0
	lwz 24,16(25)
.LVL244:
	lfd 0,80(1)
	.loc 1 749 0
	lwz 3,108(27)
	mr 4,24
	.loc 1 747 0
	stfd 0,40(24)
	.loc 1 748 0
	lfd 0,88(1)
	stfd 0,48(24)
	.loc 1 749 0
	bl __gl_pqSortInsert
	.loc 1 750 0
	lwz 25,16(25)
.LVL245:
	.loc 1 749 0
	stw 3,56(24)
	.loc 1 750 0
	lwz 9,56(25)
	xoris 0,9,0x8000
	cmpwi 7,0,-1
	beq 7,.L258
.LVL246:
.LBB58:
.LBB59:
	.loc 1 489 0
	lwz 9,12(30)
	.loc 1 493 0
	addi 6,1,8
	.loc 1 488 0
	lwz 11,12(29)
	.loc 1 493 0
	mr 3,25
	.loc 1 490 0
	lwz 10,12(28)
	.loc 1 493 0
	mr 4,31
	.loc 1 492 0
	lfd 0,.LC1@l(22)
	.loc 1 493 0
	mr 5,29
	.loc 1 487 0
	lwz 0,12(31)
	.loc 1 492 0
	stfd 0,32(25)
	.loc 1 490 0
	stw 10,36(1)
	.loc 1 489 0
	stw 9,32(1)
	.loc 1 488 0
	stw 11,28(1)
	.loc 1 492 0
	stfd 0,24(25)
	stfd 0,16(25)
	.loc 1 487 0
	stw 0,24(1)
	.loc 1 493 0
	bl VertexWeights
	.loc 1 494 0
	mr 3,25
	mr 4,30
	mr 5,28
	addi 6,1,16
	bl VertexWeights
	.loc 1 496 0
	mr 3,27
	mr 4,25
	addi 5,1,24
	addi 6,1,8
	li 7,1
	bl CallCombine
.LBE59:
.LBE58:
	.loc 1 756 0
	lwz 9,4(26)
	li 0,1
	.loc 1 757 0
	li 3,0
	.loc 1 756 0
	lwz 9,4(9)
	lwz 9,0(9)
	stb 0,14(23)
	stb 0,14(26)
	stb 0,14(9)
	.loc 1 757 0
	b .L168
.LVL247:
.L174:
	.loc 1 643 0
	mr 3,29
	mr 4,30
	mr 5,31
	bl __gl_edgeSign
	lfd 0,.LC1@l(22)
	fcmpu 7,1,0
	bnl+ 7,.L176
.L243:
	.loc 1 733 0
	li 3,0
.LVL248:
.L168:
	.loc 1 758 0
	lwz 0,156(1)
	lwz 22,104(1)
	mtlr 0
	lwz 23,108(1)
	lwz 24,112(1)
	lwz 25,116(1)
	lwz 26,120(1)
	lwz 27,124(1)
.LVL249:
	lwz 28,128(1)
.LVL250:
	lwz 29,132(1)
.LVL251:
	lwz 30,136(1)
	lwz 31,140(1)
	lfd 31,144(1)
	addi 1,1,152
	.cfi_remember_state
.LCFI61:
	.cfi_def_cfa_offset 0
	.cfi_restore 63
	.cfi_restore 31
	.cfi_restore 30
	.cfi_restore 29
	.cfi_restore 28
	.cfi_restore 27
	.cfi_restore 26
	.cfi_restore 25
	.cfi_restore 24
	.cfi_restore 23
	.cfi_restore 22
	blr
.LVL252:
.L249:
.LCFI62:
	.cfi_restore_state
	.loc 1 637 0
	fmr 0,12
	b .L171
.LVL253:
.L250:
	.loc 1 651 0
	fmr 0,13
	b .L177
.L252:
	.loc 1 652 0
	fmr 0,13
	b .L180
.L254:
	.loc 1 653 0
	fmr 13,0
	b .L183
.L256:
	.loc 1 654 0
	fmr 10,12
	b .L186
.L241:
	.loc 1 656 0 discriminator 1
	bne- 7,.L190
	lfd 9,48(4)
	fcmpu 7,11,9
	cror 30,28,30
	bne- 7,.L190
	b .L189
.L201:
	.loc 1 693 0
	lwz 4,112(27)
	cmpw 7,4,28
	beq- 7,.L259
	.loc 1 704 0
	cmpw 7,29,4
	beq- 7,.L260
	.loc 1 720 0
	mr 3,29
	addi 5,1,40
	bl __gl_edgeSign
	lfd 0,.LC1@l(22)
	fcmpu 7,1,0
	cror 30,29,30
	beq- 7,.L213
	lwz 4,112(27)
.L214:
	.loc 1 726 0
	mr 3,28
	addi 5,1,40
	bl __gl_edgeSign
	lfd 0,.LC1@l(22)
	fcmpu 7,1,0
	cror 30,28,30
	bne+ 7,.L243
	.loc 1 727 0
	li 0,1
	stb 0,14(23)
	stb 0,14(26)
	.loc 1 728 0
	lwz 3,4(24)
	bl __gl_meshSplitEdge
	cmpwi 7,3,0
	beq- 7,.L245
	.loc 1 729 0
	lwz 11,112(27)
	.loc 1 733 0
	li 3,0
	.loc 1 729 0
	lwz 9,16(24)
	lfd 13,40(11)
	.loc 1 730 0
	lfd 0,48(11)
	.loc 1 729 0
	stfd 13,40(9)
	.loc 1 730 0
	stfd 0,48(9)
	b .L168
.L228:
	.loc 1 673 0
	fcmpu 7,0,13
	.loc 1 672 0
	mr 9,30
.LVL254:
	.loc 1 673 0
	bgt- 7,.L261
.LVL255:
.L242:
	.loc 1 673 0 is_stmt 0 discriminator 1
	bne- 7,.L194
	lfd 11,48(9)
	lfd 10,88(1)
	fcmpu 7,11,10
	cror 30,28,30
	bne- 7,.L194
	b .L193
.L197:
	.loc 1 680 0 is_stmt 1
	mr 3,27
	mr 4,26
	bl CheckForRightSplice
.LVL256:
	.loc 1 758 0
	lwz 0,156(1)
	lwz 22,104(1)
	.loc 1 681 0
	li 3,0
	.loc 1 758 0
	mtlr 0
	lwz 23,108(1)
.LVL257:
	lwz 24,112(1)
.LVL258:
	lwz 25,116(1)
.LVL259:
	lwz 26,120(1)
.LVL260:
	lwz 27,124(1)
.LVL261:
	lwz 28,128(1)
.LVL262:
	lwz 29,132(1)
.LVL263:
	lwz 30,136(1)
.LVL264:
	lwz 31,140(1)
.LVL265:
	lfd 31,144(1)
	addi 1,1,152
	.cfi_remember_state
	.cfi_restore 22
	.cfi_restore 23
	.cfi_restore 24
	.cfi_restore 25
	.cfi_restore 26
	.cfi_restore 27
	.cfi_restore 28
	.cfi_restore 29
	.cfi_restore 30
	.cfi_restore 31
	.cfi_restore 63
.LCFI63:
	.cfi_def_cfa_offset 0
	blr
.LVL266:
.L213:
.LCFI64:
	.cfi_restore_state
	.loc 1 721 0
	lwz 9,4(26)
	li 0,1
	lwz 9,4(9)
	lwz 9,0(9)
	stb 0,14(26)
	stb 0,14(9)
	.loc 1 722 0
	lwz 3,4(25)
	bl __gl_meshSplitEdge
	cmpwi 7,3,0
	beq- 7,.L245
	.loc 1 723 0
	lwz 4,112(27)
	lwz 9,16(25)
	lfd 13,40(4)
	.loc 1 724 0
	lfd 0,48(4)
	.loc 1 723 0
	stfd 13,40(9)
	.loc 1 724 0
	stfd 0,48(9)
	b .L214
.L260:
	.loc 1 706 0
	lwz 3,4(24)
	bl __gl_meshSplitEdge
	cmpwi 7,3,0
	beq- 7,.L245
	.loc 1 707 0
	lwz 9,4(24)
	lwz 3,12(25)
	lwz 4,12(9)
	bl __gl_meshSplice
	cmpwi 7,3,0
	beq- 7,.L245
.LVL267:
.LBB60:
.LBB61:
	.loc 1 205 0
	lwz 9,0(26)
	mr 31,26
.LVL268:
	lwz 9,4(9)
	lwz 11,16(9)
.LVL269:
.L212:
	.loc 1 209 0
	lwz 9,4(31)
	lwz 9,4(9)
	lwz 31,0(9)
.LVL270:
	.loc 1 210 0
	lwz 9,0(31)
.LVL271:
	lwz 9,4(9)
	lwz 0,16(9)
	cmpw 7,11,0
	beq+ 7,.L212
.LVL272:
.LBE61:
.LBE60:
	.loc 1 710 0
	lwz 9,4(31)
	.loc 1 712 0
	mr 4,26
	.loc 1 711 0
	lwz 11,4(24)
	.loc 1 712 0
	li 5,0
	.loc 1 710 0
	lwz 9,8(9)
	.loc 1 712 0
	mr 3,27
	.loc 1 711 0
	lwz 0,12(11)
	.loc 1 710 0
	lwz 9,0(9)
	lwz 9,0(9)
	lwz 9,4(9)
	lwz 30,8(9)
.LVL273:
	.loc 1 711 0
	stw 0,0(26)
	.loc 1 712 0
	bl FinishLeftRegions
.LVL274:
	.loc 1 713 0
	lwz 9,4(25)
	lwz 5,8(3)
	mr 4,31
	lwz 6,8(9)
	mr 3,27
.LVL275:
	mr 7,30
	li 8,1
	bl AddRightEdges
	.loc 1 714 0
	li 3,1
	b .L168
.LVL276:
.L259:
	.loc 1 695 0
	lwz 3,4(25)
	bl __gl_meshSplitEdge
	cmpwi 7,3,0
	beq- 7,.L245
	.loc 1 696 0
	lwz 3,4(24)
	mr 4,25
	bl __gl_meshSplice
	cmpwi 7,3,0
	beq- 7,.L245
	.loc 1 697 0
	mr 3,26
	bl TopLeftRegion
.LVL277:
	.loc 1 698 0
	mr. 31,3
.LVL278:
	beq- 0,.L245
	.loc 1 699 0
	lwz 9,4(31)
	.loc 1 700 0
	mr 5,23
	mr 3,27
.LVL279:
	.loc 1 699 0
	lwz 9,8(9)
	lwz 4,0(9)
	lwz 30,0(4)
.LVL280:
	.loc 1 700 0
	bl FinishLeftRegions
.LVL281:
	.loc 1 701 0
	mr 3,27
	mr 4,31
	lwz 9,4(30)
	mr 6,30
	mr 7,30
	li 8,1
	lwz 5,12(9)
	bl AddRightEdges
	.loc 1 702 0
	li 3,1
	b .L168
.LVL282:
.L164:
	.loc 1 631 0 discriminator 1
	lis 5,.LANCHOR1@ha
	lis 3,.LC6@ha
	la 5,.LANCHOR1@l(5)
	lis 6,.LC16@ha
	la 3,.LC6@l(3)
	li 4,631
	addi 5,5,52
	la 6,.LC16@l(6)
	bl __assert_func
.L166:
	.loc 1 632 0 discriminator 1
	lis 5,.LANCHOR1@ha
	lis 3,.LC6@ha
	la 5,.LANCHOR1@l(5)
	lis 6,.LC17@ha
	la 3,.LC6@l(3)
	li 4,632
	addi 5,5,52
	la 6,.LC17@l(6)
	bl __assert_func
.L247:
	.loc 1 629 0 discriminator 1
	lis 5,.LANCHOR1@ha
	lis 3,.LC6@ha
	la 5,.LANCHOR1@l(5)
	lis 6,.LC14@ha
	la 3,.LC6@l(3)
	li 4,629
	addi 5,5,52
	la 6,.LC14@l(6)
	bl __assert_func
.L248:
	.loc 1 630 0 discriminator 1
	lis 5,.LANCHOR1@ha
	lis 3,.LC6@ha
	la 5,.LANCHOR1@l(5)
	lis 6,.LC15@ha
	la 3,.LC6@l(3)
	li 4,630
	addi 5,5,52
	la 6,.LC15@l(6)
	bl __assert_func
.L246:
	.loc 1 628 0 discriminator 2
	lis 5,.LANCHOR1@ha
	lis 3,.LC6@ha
	la 5,.LANCHOR1@l(5)
	lis 6,.LC13@ha
	la 3,.LC6@l(3)
	li 4,628
	addi 5,5,52
	la 6,.LC13@l(6)
	bl __assert_func
.L253:
	.loc 1 652 0 discriminator 1
	lis 5,.LANCHOR1@ha
	lis 3,.LC6@ha
	la 5,.LANCHOR1@l(5)
	lis 6,.LC19@ha
	la 3,.LC6@l(3)
	li 4,652
	addi 5,5,52
	la 6,.LC19@l(6)
	bl __assert_func
.L255:
	.loc 1 653 0 discriminator 1
	lis 5,.LANCHOR1@ha
	lis 3,.LC6@ha
	la 5,.LANCHOR1@l(5)
	lis 6,.LC20@ha
	la 3,.LC6@l(3)
	li 4,653
	addi 5,5,52
	la 6,.LC20@l(6)
	bl __assert_func
.L251:
	.loc 1 651 0 discriminator 1
	lis 5,.LANCHOR1@ha
	lis 3,.LC6@ha
	la 5,.LANCHOR1@l(5)
	lis 6,.LC18@ha
	la 3,.LC6@l(3)
	li 4,651
	addi 5,5,52
	la 6,.LC18@l(6)
	bl __assert_func
.L257:
	.loc 1 654 0 discriminator 1
	lis 5,.LANCHOR1@ha
	lis 3,.LC6@ha
	la 5,.LANCHOR1@l(5)
	lis 6,.LC21@ha
	la 3,.LC6@l(3)
	li 4,654
	addi 5,5,52
	la 6,.LC21@l(6)
	bl __assert_func
.LVL283:
.L258:
	.loc 1 751 0
	lwz 3,108(27)
	bl __gl_pqSortDeletePriorityQ
	.loc 1 752 0
	li 0,0
	stw 0,108(27)
.LVL284:
.L245:
	.loc 1 753 0
	addi 3,27,3384
	li 4,1
	bl longjmp
	.cfi_endproc
.LFE17:
	.size	CheckForIntersect, .-CheckForIntersect
	.align 2
	.type	SweepEvent, @function
SweepEvent:
.LFB22:
	.loc 1 1073 0
	.cfi_startproc
.LVL285:
	mflr 0
	stwu 1,-56(1)
.LCFI65:
	.cfi_def_cfa_offset 56
	.cfi_register 65, 0
	stw 31,52(1)
	mr 31,3
	.cfi_offset 31, -4
	stw 0,60(1)
	stw 30,48(1)
	mr 30,4
	.cfi_offset 30, -8
	.cfi_offset 65, 4
	.loc 1 1084 0
	lwz 9,8(4)
.LVL286:
	.loc 1 1073 0
	stw 25,28(1)
	stw 26,32(1)
	.loc 1 1084 0
	mr 11,9
	.loc 1 1073 0
	stw 27,36(1)
	stw 28,40(1)
	stw 29,44(1)
	.loc 1 1077 0
	stw 4,112(31)
	.loc 1 1085 0
	b .L263
	.cfi_offset 29, -12
	.cfi_offset 28, -16
	.cfi_offset 27, -20
	.cfi_offset 26, -24
	.cfi_offset 25, -28
.LVL287:
.L281:
	.loc 1 1086 0
	lwz 11,8(11)
.LVL288:
	.loc 1 1087 0
	cmpw 7,9,11
	beq- 7,.L303
.L263:
	.loc 1 1085 0 discriminator 1
	lwz 3,24(11)
	cmpwi 7,3,0
	beq+ 7,.L281
	.loc 1 1101 0
	bl TopLeftRegion
.LVL289:
	.loc 1 1102 0
	mr. 30,3
.LVL290:
	beq- 0,.L302
	.loc 1 1103 0
	lwz 9,4(30)
	.loc 1 1105 0
	mr 3,31
.LVL291:
	li 5,0
	.loc 1 1103 0
	lwz 9,8(9)
	lwz 9,0(9)
.LVL292:
	.loc 1 1105 0
	mr 4,9
	.loc 1 1104 0
	lwz 27,0(9)
.LVL293:
	.loc 1 1105 0
	bl FinishLeftRegions
.LVL294:
	.loc 1 1112 0
	lwz 29,8(3)
	.loc 1 1105 0
	mr 28,3
.LVL295:
	.loc 1 1112 0
	cmpw 7,29,27
	beq- 7,.L304
	.loc 1 1116 0
	mr 6,27
	mr 3,31
.LVL296:
	mr 4,30
	mr 5,29
	mr 7,27
	li 8,1
	bl AddRightEdges
.LVL297:
.L262:
	.loc 1 1118 0
	lwz 0,60(1)
	lwz 25,28(1)
	mtlr 0
	lwz 26,32(1)
	lwz 27,36(1)
	lwz 28,40(1)
	lwz 29,44(1)
	lwz 30,48(1)
	lwz 31,52(1)
.LVL298:
	addi 1,1,56
	.cfi_remember_state
.LCFI66:
	.cfi_def_cfa_offset 0
	.cfi_restore 31
	.cfi_restore 30
	.cfi_restore 29
	.cfi_restore 28
	.cfi_restore 27
	.cfi_restore 26
	.cfi_restore 25
	blr
.LVL299:
.L303:
.LCFI67:
	.cfi_restore_state
.LBB71:
.LBB72:
	.loc 1 1025 0
	lwz 0,4(9)
	mr 4,1
.LVL300:
	.loc 1 1027 0
	lwz 3,104(31)
	.loc 1 1025 0
	stwu 0,8(4)
	.loc 1 1027 0
	bl __gl_dictListSearch
.LVL301:
	.loc 1 1033 0
	mr 4,30
	.loc 1 1027 0
	lwz 29,0(3)
.LVL302:
	.loc 1 1029 0
	lwz 27,0(29)
	.loc 1 1028 0
	lwz 9,4(29)
	.loc 1 1033 0
	lwz 11,4(27)
	.loc 1 1028 0
	lwz 9,8(9)
	.loc 1 1033 0
	lwz 3,16(11)
.LVL303:
	.loc 1 1028 0
	lwz 28,0(9)
.LVL304:
	.loc 1 1033 0
	lwz 5,16(27)
	.loc 1 1030 0
	lwz 26,0(28)
.LVL305:
	.loc 1 1033 0
	bl __gl_edgeSign
.LVL306:
	lis 9,.LC1@ha
	lfd 0,.LC1@l(9)
	fcmpu 7,1,0
	beq- 7,.L305
	.loc 1 1041 0
	lwz 9,4(26)
	lwz 11,4(27)
	lwz 10,16(9)
	lwz 11,16(11)
	lfd 13,40(10)
	lfd 0,40(11)
	fcmpu 7,13,0
	bnl- 7,.L306
.L297:
	mr 28,29
.LVL307:
.L273:
	.loc 1 1043 0
	lbz 0,12(29)
	cmpwi 7,0,0
	beq- 7,.L307
.L274:
	.loc 1 1044 0
	cmpw 7,29,28
	beq- 7,.L308
.LBB73:
	.loc 1 1048 0
	lwz 9,8(9)
	lwz 4,8(30)
	lwz 3,4(9)
	bl __gl_meshConnect
.LVL308:
	.loc 1 1049 0
	cmpwi 0,3,0
	beq- 0,.L302
	.loc 1 1051 0
	lwz 5,4(3)
.LVL309:
.L277:
.LBE73:
	.loc 1 1053 0
	lbz 0,15(28)
	cmpwi 7,0,0
	bne- 7,.L309
	.loc 1 1056 0
	addi 4,29,4
	mr 3,31
	bl AddRegionBelow.isra.2
.LVL310:
.LBB74:
.LBB75:
	.loc 1 261 0
	lwz 9,4(3)
.LBE75:
.LBE74:
	.loc 1 1056 0
	mr 29,3
.LVL311:
.LBB77:
.LBB76:
	.loc 1 261 0
	lwz 11,0(3)
	lwz 9,4(9)
	lwz 0,28(11)
	lwz 9,0(9)
	lwz 4,8(9)
	add 4,4,0
	stw 4,8(3)
	.loc 1 262 0
	lwz 3,96(31)
.LVL312:
	bl IsWindingInside.isra.6
	stb 3,12(29)
.LVL313:
.L280:
.LBE76:
.LBE77:
	.loc 1 1058 0
	mr 3,31
	mr 4,30
	bl SweepEvent
.LBE72:
.LBE71:
	.loc 1 1118 0
	lwz 0,60(1)
	lwz 25,28(1)
	mtlr 0
	lwz 26,32(1)
.LVL314:
	lwz 27,36(1)
.LVL315:
	lwz 28,40(1)
	lwz 29,44(1)
	lwz 30,48(1)
.LVL316:
	lwz 31,52(1)
.LVL317:
	addi 1,1,56
	.cfi_remember_state
	.cfi_restore 25
	.cfi_restore 26
	.cfi_restore 27
	.cfi_restore 28
	.cfi_restore 29
	.cfi_restore 30
	.cfi_restore 31
.LCFI68:
	.cfi_def_cfa_offset 0
	blr
.LVL318:
.L307:
.LCFI69:
	.cfi_restore_state
.LBB85:
.LBB82:
	.loc 1 1043 0
	lbz 0,15(28)
	cmpwi 7,0,0
	bne+ 7,.L274
	.loc 1 1063 0
	lwz 5,8(30)
	mr 3,31
	mr 4,29
	li 7,0
	mr 6,5
	li 8,1
	bl AddRightEdges
	b .L262
.LVL319:
.L306:
	.loc 1 1041 0
	bne- 7,.L273
	lfd 13,48(10)
	lfd 0,48(11)
	fcmpu 7,13,0
	cror 30,28,30
	beq- 7,.L297
	b .L273
.LVL320:
.L309:
	.loc 1 1054 0
	mr 3,28
	mr 4,5
	bl FixUpperEdge
.LVL321:
	cmpwi 7,3,0
	bne+ 7,.L280
.LVL322:
.L302:
.LBE82:
.LBE85:
.LBB86:
.LBB87:
	.loc 1 922 0
	addi 3,31,3384
	li 4,1
	bl longjmp
.LVL323:
.L304:
	.loc 1 883 0
	lwz 9,4(30)
	.loc 1 884 0
	lwz 27,0(30)
.LVL324:
	.loc 1 883 0
	lwz 11,8(9)
	.loc 1 888 0
	lwz 9,4(27)
	.loc 1 883 0
	lwz 25,0(11)
.LVL325:
	.loc 1 888 0
	lwz 9,16(9)
	.loc 1 885 0
	lwz 26,0(25)
.LVL326:
	.loc 1 888 0
	lwz 11,4(26)
	lwz 0,16(11)
	cmpw 7,9,0
	beq- 7,.L284
	.loc 1 889 0
	mr 3,31
.LVL327:
	mr 4,30
	bl CheckForIntersect
.LVL328:
.L284:
	.loc 1 895 0
	lwz 11,16(27)
	.loc 1 886 0
	li 0,0
	.loc 1 895 0
	lwz 9,112(31)
	lfd 13,40(11)
	lfd 0,40(9)
	fcmpu 7,13,0
	bne- 7,.L285
	lfd 12,48(11)
	lfd 13,48(9)
	fcmpu 7,12,13
	bne+ 7,.L285
	.loc 1 896 0
	lwz 9,4(29)
	mr 4,27
	lwz 3,12(9)
	bl __gl_meshSplice
	cmpwi 7,3,0
	beq- 7,.L302
	.loc 1 897 0
	mr 3,30
	bl TopLeftRegion
.LVL329:
	.loc 1 898 0
	mr. 30,3
.LVL330:
	beq- 0,.L302
	.loc 1 899 0
	lwz 9,4(30)
	.loc 1 900 0
	mr 3,31
.LVL331:
	mr 5,25
	.loc 1 899 0
	lwz 9,8(9)
	lwz 9,0(9)
	.loc 1 900 0
	mr 4,9
	.loc 1 899 0
	lwz 29,0(9)
.LVL332:
	.loc 1 900 0
	bl FinishLeftRegions
.LVL333:
	lwz 9,112(31)
	.loc 1 901 0
	li 0,1
	.loc 1 900 0
	lfd 0,40(9)
.LVL334:
.L285:
	.loc 1 903 0
	lwz 11,16(26)
	lfd 13,40(11)
	fcmpu 7,0,13
	beq- 7,.L310
.L288:
	.loc 1 908 0
	cmpwi 7,0,0
	bne- 7,.L290
	.loc 1 916 0
	lwz 9,16(27)
	lfd 0,40(9)
	fcmpu 7,13,0
	blt- 7,.L292
	bne- 7,.L293
	lfd 13,48(11)
	lfd 0,48(9)
	fcmpu 7,13,0
	cror 30,28,30
	bne- 7,.L293
.L292:
	.loc 1 917 0
	lwz 9,4(26)
	lwz 27,12(9)
.LVL335:
.L293:
	.loc 1 921 0
	lwz 9,8(28)
	mr 4,27
	lwz 3,4(9)
	bl __gl_meshConnect
.LVL336:
	.loc 1 922 0
	mr. 29,3
.LVL337:
	beq- 0,.L302
	.loc 1 927 0
	lwz 6,8(29)
	mr 3,31
.LVL338:
	mr 4,30
	mr 5,29
	mr 7,6
	li 8,0
	bl AddRightEdges
	.loc 1 928 0
	lwz 9,4(29)
	li 0,1
	.loc 1 929 0
	mr 3,31
	.loc 1 928 0
	lwz 9,24(9)
	.loc 1 929 0
	mr 4,30
	.loc 1 928 0
	stb 0,15(9)
	.loc 1 929 0
	bl WalkDirtyRegions
	b .L262
.LVL339:
.L305:
.LBE87:
.LBE86:
.LBB89:
	.loc 1 1359 0
	lwz 28,0(29)
.LVL340:
.LBB83:
.LBB78:
.LBB79:
	.loc 1 953 0
	lfd 0,40(30)
	lwz 9,16(28)
	lfd 13,40(9)
	fcmpu 7,13,0
	bne- 7,.L265
	lfd 12,48(9)
	lfd 13,48(30)
	fcmpu 7,12,13
	beq- 7,.L311
.L265:
	.loc 1 962 0
	lwz 3,4(28)
	lwz 9,16(3)
	lfd 13,40(9)
	fcmpu 7,0,13
	bne- 7,.L266
	lfd 13,48(9)
	lfd 0,48(30)
	fcmpu 7,13,0
	beq- 7,.L267
.L266:
	.loc 1 964 0
	bl __gl_meshSplitEdge
.LVL341:
	cmpwi 7,3,0
	beq- 7,.L302
	.loc 1 965 0
	lbz 0,15(29)
	cmpwi 7,0,0
	beq- 7,.L269
	.loc 1 967 0
	lwz 3,8(28)
	bl __gl_meshDelete
	cmpwi 7,3,0
	beq- 7,.L302
	.loc 1 968 0
	li 0,0
	stb 0,15(29)
.L269:
	.loc 1 970 0
	lwz 3,8(30)
	mr 4,28
	bl __gl_meshSplice
	cmpwi 7,3,0
	bne+ 7,.L280
	b .L302
.LVL342:
.L308:
.LBE79:
.LBE78:
	.loc 1 1045 0
	lwz 9,8(30)
	lwz 4,12(27)
	lwz 3,4(9)
	bl __gl_meshConnect
.LVL343:
	.loc 1 1046 0
	mr. 5,3
	bne+ 0,.L277
	b .L302
.LVL344:
.L310:
.LBE83:
.LBE89:
.LBB90:
.LBB88:
	.loc 1 903 0
	lfd 12,48(11)
	lfd 0,48(9)
	fcmpu 7,12,0
	bne+ 7,.L288
	.loc 1 904 0
	lwz 9,4(26)
	mr 3,28
	lwz 4,12(9)
	bl __gl_meshSplice
.LVL345:
	cmpwi 7,3,0
	beq- 7,.L302
	.loc 1 905 0
	mr 3,31
	mr 4,25
	li 5,0
	bl FinishLeftRegions
	mr 28,3
.LVL346:
.L290:
	.loc 1 909 0
	lwz 5,8(28)
	mr 6,29
	mr 3,31
	mr 4,30
	mr 7,29
	li 8,1
	bl AddRightEdges
	b .L262
.LVL347:
.L311:
.LBE88:
.LBE90:
.LBB91:
.LBB84:
.LBB81:
.LBB80:
	.loc 1 957 0
	lis 3,.LC6@ha
	li 4,957
	la 3,.LC6@l(3)
.L301:
	.loc 1 978 0
	lis 5,.LANCHOR1@ha
	lis 6,.LC22@ha
	la 5,.LANCHOR1@l(5)
	la 6,.LC22@l(6)
	addi 5,5,72
	bl __assert_func
.L267:
	lis 3,.LC6@ha
	li 4,978
	la 3,.LC6@l(3)
	b .L301
.LBE80:
.LBE81:
.LBE84:
.LBE91:
	.cfi_endproc
.LFE22:
	.size	SweepEvent, .-SweepEvent
	.align 2
	.globl __gl_computeInterior
	.type	__gl_computeInterior, @function
__gl_computeInterior:
.LFB30:
	.loc 1 1307 0
	.cfi_startproc
.LVL348:
	mflr 0
	stwu 1,-32(1)
.LCFI70:
	.cfi_def_cfa_offset 32
	.cfi_register 65, 0
	mfcr 12
	stw 27,12(1)
	stw 0,36(1)
	.loc 1 1310 0
	li 0,0
	.cfi_offset 65, 4
	.cfi_offset 27, -20
	.cfi_register 70, 12
	.loc 1 1307 0
	stw 29,20(1)
	mr 29,3
	.cfi_offset 29, -12
	stw 30,24(1)
.LBB104:
.LBB105:
	.loc 1 1203 0
	lwz 9,8(3)
.LBE105:
.LBE104:
	.loc 1 1307 0
	stw 28,16(1)
	stw 31,28(1)
.LBB109:
.LBB106:
	.loc 1 1203 0
	addi 27,9,88
.LBE106:
.LBE109:
	.loc 1 1307 0
	stw 12,8(1)
	.loc 1 1310 0
	stb 0,100(3)
.LVL349:
.LBB110:
.LBB107:
	.loc 1 1206 0
	lwz 30,88(9)
	.cfi_offset 70, -24
	.cfi_offset 31, -4
	.cfi_offset 28, -16
	.cfi_offset 30, -8
.LVL350:
.L313:
	cmpw 7,30,27
	bne+ 7,.L348
	b .L324
.LVL351:
.L361:
	.loc 1 1213 0
	mr 4,28
	mr 5,31
	mr 3,29
	bl SpliceMergeVertices
	.loc 1 1214 0
	mr 3,31
	bl __gl_meshDelete
	cmpwi 7,3,0
	beq- 7,.L344
.LVL352:
	.loc 1 1216 0
	mr 31,28
	lwz 28,12(28)
.LVL353:
.L314:
	.loc 1 1218 0
	lwz 0,12(28)
	cmpw 7,0,31
	beq- 7,.L315
.LVL354:
	.loc 1 1206 0
	cmpw 7,27,30
	beq- 7,.L324
.LVL355:
.L348:
	.loc 1 1210 0
	lwz 9,4(30)
	.loc 1 1207 0
	mr 31,30
	.loc 1 1210 0
	lwz 11,16(30)
	lwz 9,16(9)
	lfd 13,40(11)
	lfd 0,40(9)
	.loc 1 1207 0
	lwz 30,0(30)
.LVL356:
	.loc 1 1210 0
	fcmpu 7,13,0
	.loc 1 1208 0
	lwz 28,12(31)
.LVL357:
	.loc 1 1210 0
	bne- 7,.L314
	lfd 13,48(11)
	lfd 0,48(9)
	fcmpu 7,13,0
	bne- 7,.L314
	lwz 0,12(28)
	cmpw 7,31,0
	bne+ 7,.L361
.LVL358:
.L315:
	.loc 1 1221 0
	cmpw 7,28,31
	beq- 7,.L318
	.loc 1 1222 0
	cmpw 7,28,30
	beq- 7,.L319
	lwz 0,4(30)
	cmpw 7,28,0
	beq- 7,.L319
.L320:
	.loc 1 1223 0
	mr 3,28
	bl __gl_meshDelete
	cmpwi 7,3,0
	beq- 7,.L344
.L318:
	.loc 1 1225 0
	cmpw 7,31,30
	beq- 7,.L321
	lwz 0,4(30)
	cmpw 7,31,0
	beq- 7,.L321
.L322:
	.loc 1 1226 0
	mr 3,31
	bl __gl_meshDelete
	cmpwi 7,3,0
	bne+ 7,.L313
.LVL359:
.L344:
.LBE107:
.LBE110:
.LBB111:
.LBB112:
	.loc 1 1166 0
	addi 3,29,3384
	li 4,1
	bl longjmp
.LVL360:
.L321:
.LBE112:
.LBE111:
.LBB114:
.LBB108:
	.loc 1 1225 0
	lwz 30,0(30)
.LVL361:
	b .L322
.L319:
	.loc 1 1222 0
	lwz 30,0(30)
.LVL362:
	b .L320
.LVL363:
.L324:
.LBE108:
.LBE114:
.LBB115:
.LBB116:
	.loc 1 1241 0
	lis 3,__gl_vertLeq@ha
	la 3,__gl_vertLeq@l(3)
	bl __gl_pqSortNewPriorityQ
	.loc 1 1242 0
	cmpwi 7,3,0
	.loc 1 1241 0
	mr 30,3
.LVL364:
	stw 3,108(29)
.LVL365:
	.loc 1 1242 0
	beq- 7,.L351
	.loc 1 1244 0
	lwz 28,8(29)
.LVL366:
	.loc 1 1245 0
	lwz 31,0(28)
.LVL367:
	cmpw 4,28,31
	beq- 4,.L346
	.loc 1 1247 0
	lis 27,0x7fff
.LVL368:
	ori 27,27,65535
	b .L352
.LVL369:
.L362:
	.loc 1 1245 0
	lwz 31,0(31)
.LVL370:
	cmpw 4,28,31
	beq- 4,.L346
.L352:
	.loc 1 1246 0
	mr 3,30
	mr 4,31
	bl __gl_pqSortInsert
	.loc 1 1247 0
	cmpw 7,3,27
	.loc 1 1246 0
	stw 3,56(31)
	.loc 1 1247 0
	bne+ 7,.L362
	.loc 1 1249 0
	beq- 4,.L346
.L330:
	.loc 1 1250 0
	lwz 3,108(29)
	bl __gl_pqSortDeletePriorityQ
	.loc 1 1251 0
	li 0,0
	stw 0,108(29)
	.loc 1 1319 0
	li 3,0
.LBE116:
.LBE115:
	.loc 1 1359 0
	lwz 0,36(1)
	lwz 12,8(1)
	mtlr 0
	lwz 27,12(1)
	lwz 28,16(1)
.LVL371:
	mtcrf 8,12
	lwz 29,20(1)
.LVL372:
	lwz 30,24(1)
.LVL373:
	lwz 31,28(1)
.LVL374:
	addi 1,1,32
	.cfi_remember_state
.LCFI71:
	.cfi_def_cfa_offset 0
	.cfi_restore 70
	.cfi_restore 31
	.cfi_restore 30
	.cfi_restore 29
	.cfi_restore 28
	.cfi_restore 27
	blr
.LVL375:
.L370:
.LCFI72:
	.cfi_restore_state
	.loc 1 1350 0
	lwz 9,104(29)
	li 30,0
.LVL376:
.LBB118:
	.loc 1 1359 0
	addi 31,29,104
.LBE118:
	.loc 1 1350 0
	lwz 9,4(9)
	lwz 4,0(9)
	lwz 9,0(4)
	lwz 0,16(9)
	stw 0,112(29)
.LVL377:
.L338:
.LBB121:
.LBB119:
	.loc 1 1185 0
	lbz 0,13(4)
	cmpwi 7,0,0
	bne- 7,.L335
	.loc 1 1186 0
	lbz 0,15(4)
	cmpwi 7,0,0
	beq- 7,.L363
.LVL378:
	.loc 1 1187 0
	cmpwi 7,30,0
	bne- 7,.L364
	li 30,1
.LVL379:
.L335:
	.loc 1 1189 0
	lwz 0,8(4)
	cmpwi 7,0,0
	bne- 7,.L365
	.loc 1 1190 0
	mr 3,31
	bl DeleteRegion.isra.8
.LVL380:
	.loc 1 1179 0
	lwz 3,104(29)
	lwz 9,4(3)
	lwz 4,0(9)
.LVL381:
	cmpwi 7,4,0
	bne+ 7,.L338
	.loc 1 1193 0
	bl __gl_dictListDeleteDict
.LVL382:
.LBE119:
.LBE121:
.LBB122:
.LBB123:
	.loc 1 1261 0
	lwz 3,108(29)
	bl __gl_pqSortDeletePriorityQ
.LVL383:
.LBE123:
.LBE122:
.LBB124:
.LBB125:
	.loc 1 1285 0
	lwz 30,8(29)
.LVL384:
	lwzu 31,64(30)
.LVL385:
.L339:
	cmpw 7,31,30
	beq- 7,.L366
	.loc 1 1287 0
	lwz 3,8(31)
	.loc 1 1286 0
	lwz 31,0(31)
.LVL386:
	.loc 1 1288 0
	lwz 9,12(3)
	cmpw 7,3,9
	beq- 7,.L367
	.loc 1 1290 0
	lwz 0,12(9)
	cmpw 7,3,0
	bne+ 7,.L339
	.loc 1 1292 0
	lwz 11,8(3)
	lwz 0,28(3)
	lwz 10,28(11)
	lwz 9,4(11)
	add 0,10,0
	lwz 10,4(3)
	stw 0,28(11)
	lwz 11,28(9)
	lwz 0,28(10)
	add 0,11,0
	stw 0,28(9)
	.loc 1 1293 0
	bl __gl_meshDelete
.LVL387:
	cmpwi 7,3,0
	bne+ 7,.L339
.LVL388:
.L351:
.LBE125:
.LBE124:
	.loc 1 1359 0
	lwz 0,36(1)
.LBB128:
.LBB126:
	.loc 1 1355 0
	li 3,0
.LBE126:
.LBE128:
	.loc 1 1359 0
	lwz 12,8(1)
	mtlr 0
	lwz 27,12(1)
	lwz 28,16(1)
	mtcrf 8,12
	lwz 29,20(1)
.LVL389:
	lwz 30,24(1)
	lwz 31,28(1)
	addi 1,1,32
	.cfi_remember_state
	.cfi_restore 27
	.cfi_restore 28
	.cfi_restore 29
	.cfi_restore 30
	.cfi_restore 31
	.cfi_restore 70
.LCFI73:
	.cfi_def_cfa_offset 0
	blr
.LVL390:
.L346:
.LCFI74:
	.cfi_restore_state
.LBB129:
.LBB117:
	.loc 1 1249 0
	mr 3,30
	bl __gl_pqSortInit
	cmpwi 7,3,0
	beq- 7,.L330
.LVL391:
.LBE117:
.LBE129:
.LBB130:
.LBB113:
	.loc 1 1165 0
	lis 4,EdgeLeq@ha
	mr 3,29
	la 4,EdgeLeq@l(4)
	bl __gl_dictListNewDict
	.loc 1 1166 0
	cmpwi 7,3,0
	.loc 1 1165 0
	stw 3,104(29)
	.loc 1 1166 0
	beq- 7,.L344
	.loc 1 1168 0
	lis 9,.LC5@ha
	mr 3,29
	lfd 1,.LC5@l(9)
	bl AddSentinel
	.loc 1 1169 0
	lis 9,.LC4@ha
	lfd 1,.LC4@l(9)
	mr 3,29
	bl AddSentinel
.LVL392:
.L332:
.LBE113:
.LBE130:
	.loc 1 1323 0 discriminator 1
	lwz 3,108(29)
	bl __gl_pqSortExtractMin
.LVL393:
	mr. 31,3
	bne+ 0,.L356
	b .L370
.LVL394:
.L369:
	.loc 1 1326 0 discriminator 1
	lfd 13,40(3)
	lfd 0,40(31)
	fcmpu 7,13,0
	bne- 7,.L333
	lfd 13,48(3)
	lfd 0,48(31)
	fcmpu 7,13,0
	bne- 7,.L333
	.loc 1 1342 0
	lwz 3,108(29)
.LVL395:
	bl __gl_pqSortExtractMin
.LVL396:
	.loc 1 1343 0
	lwz 4,8(31)
	lwz 5,8(3)
	mr 3,29
.LVL397:
	bl SpliceMergeVertices
.L356:
	.loc 1 1325 0
	lwz 3,108(29)
	bl __gl_pqSortMinimum
.LVL398:
	.loc 1 1326 0
	cmpwi 0,3,0
	bne+ 0,.L369
.L333:
	.loc 1 1345 0
	mr 3,29
.LVL399:
	mr 4,31
	bl SweepEvent
	b .L332
.LVL400:
.L366:
	.loc 1 1356 0
	lwz 3,8(29)
	bl __gl_meshCheckMesh
	.loc 1 1359 0
	lwz 0,36(1)
	lwz 12,8(1)
	.loc 1 1358 0
	li 3,1
	.loc 1 1359 0
	mtlr 0
	lwz 27,12(1)
	lwz 28,16(1)
.LVL401:
	mtcrf 8,12
	lwz 29,20(1)
.LVL402:
	lwz 30,24(1)
.LVL403:
	lwz 31,28(1)
.LVL404:
	addi 1,1,32
	.cfi_remember_state
	.cfi_restore 27
	.cfi_restore 28
	.cfi_restore 29
	.cfi_restore 30
	.cfi_restore 31
	.cfi_restore 70
.LCFI75:
	.cfi_def_cfa_offset 0
	blr
.LVL405:
.L367:
.LCFI76:
	.cfi_restore_state
.LBB131:
.LBB127:
	.loc 1 1288 0
	lis 5,.LANCHOR1@ha
	lis 3,.LC6@ha
.LVL406:
	la 5,.LANCHOR1@l(5)
	lis 6,.LC25@ha
	la 3,.LC6@l(3)
	li 4,1288
	addi 5,5,112
	la 6,.LC25@l(6)
	bl __assert_func
.LVL407:
.L365:
.LBE127:
.LBE131:
.LBB132:
.LBB120:
	.loc 1 1189 0
	lis 5,.LANCHOR1@ha
	lis 3,.LC6@ha
	la 5,.LANCHOR1@l(5)
	lis 6,.LC24@ha
	la 3,.LC6@l(3)
	li 4,1189
.LVL408:
	addi 5,5,96
	la 6,.LC24@l(6)
	bl __assert_func
.LVL409:
.L364:
	.loc 1 1187 0
	lis 5,.LANCHOR1@ha
	lis 3,.LC6@ha
	la 5,.LANCHOR1@l(5)
	lis 6,.LC23@ha
	la 3,.LC6@l(3)
	li 4,1187
.LVL410:
	addi 5,5,96
	la 6,.LC23@l(6)
	bl __assert_func
.LVL411:
.L363:
	.loc 1 1186 0
	lis 5,.LANCHOR1@ha
	lis 3,.LC6@ha
	la 5,.LANCHOR1@l(5)
	lis 6,.LC7@ha
	la 3,.LC6@l(3)
	li 4,1186
.LVL412:
	addi 5,5,96
	la 6,.LC7@l(6)
	bl __assert_func
.LBE120:
.LBE132:
	.cfi_endproc
.LFE30:
	.size	__gl_computeInterior, .-__gl_computeInterior
	.section	.rodata
	.align 2
	.set	.LANCHOR0,. + 0
.LC0:
	.long	1056964608
	.long	1056964608
	.long	0
	.long	0
	.type	__FUNCTION__.8685, @object
	.size	__FUNCTION__.8685, 13
__FUNCTION__.8685:
	.string	"FixUpperEdge"
	.zero	3
	.type	__FUNCTION__.8714, @object
	.size	__FUNCTION__.8714, 16
__FUNCTION__.8714:
	.string	"IsWindingInside"
	.align 2
	.set	.LANCHOR1,. + 0
	.type	__FUNCTION__.8680, @object
	.size	__FUNCTION__.8680, 13
__FUNCTION__.8680:
	.string	"DeleteRegion"
	.zero	3
	.type	__FUNCTION__.8803, @object
	.size	__FUNCTION__.8803, 19
__FUNCTION__.8803:
	.string	"CheckForLeftSplice"
	.zero	1
	.type	__FUNCTION__.8750, @object
	.size	__FUNCTION__.8750, 14
__FUNCTION__.8750:
	.string	"AddRightEdges"
	.zero	2
	.type	__FUNCTION__.8820, @object
	.size	__FUNCTION__.8820, 18
__FUNCTION__.8820:
	.string	"CheckForIntersect"
	.zero	2
	.type	__FUNCTION__.8853, @object
	.size	__FUNCTION__.8853, 22
__FUNCTION__.8853:
	.string	"ConnectLeftDegenerate"
	.zero	2
	.type	__FUNCTION__.8895, @object
	.size	__FUNCTION__.8895, 13
__FUNCTION__.8895:
	.string	"DoneEdgeDict"
	.zero	3
	.type	__FUNCTION__.8929, @object
	.size	__FUNCTION__.8929, 22
__FUNCTION__.8929:
	.string	"RemoveDegenerateFaces"
	.section	.rodata.cst4,"aM",@progbits,4
	.align 2
.LC3:
	.4byte	1056964608
	.section	.rodata.cst8,"aM",@progbits,8
	.align 3
.LC1:
	.4byte	0
	.4byte	0
.LC4:
	.4byte	1597214005
	.4byte	777033391
.LC5:
	.4byte	-550269643
	.4byte	777033391
	.section	.rodata.str1.4,"aMS",@progbits,1
	.align 2
.LC6:
	.string	"d:/Data/Nintendo/TenebraeGX/gl2gx/source/libtess/sweep.c"
	.zero	3
.LC7:
	.string	"reg->fixUpperEdge"
	.zero	2
.LC8:
	.string	"FALSE"
	.zero	2
.LC9:
	.string	"reg->eUp->winding == 0"
	.zero	1
.LC10:
	.string	"! VertEq( eUp->Dst, eLo->Dst )"
	.zero	1
.LC11:
	.string	"VertLeq( e->Org, e->Dst )"
	.zero	2
.LC12:
	.string	"regPrev->windingNumber - e->winding == reg->windingNumber"
	.zero	2
.LC13:
	.string	"! VertEq( dstLo, dstUp )"
	.zero	3
.LC14:
	.string	"EdgeSign( dstUp, tess->event, orgUp ) <= 0"
	.zero	1
.LC15:
	.string	"EdgeSign( dstLo, tess->event, orgLo ) >= 0"
	.zero	1
.LC16:
	.string	"orgUp != tess->event && orgLo != tess->event"
	.zero	3
.LC17:
	.string	"! regUp->fixUpperEdge && ! regLo->fixUpperEdge"
	.zero	1
.LC18:
	.string	"MIN( orgUp->t, dstUp->t ) <= isect.t"
	.zero	3
.LC19:
	.string	"isect.t <= MAX( orgLo->t, dstLo->t )"
	.zero	3
.LC20:
	.string	"MIN( dstLo->s, dstUp->s ) <= isect.s"
	.zero	3
.LC21:
	.string	"isect.s <= MAX( orgLo->s, orgUp->s )"
	.zero	3
.LC22:
	.string	"TOLERANCE_NONZERO"
	.zero	2
.LC23:
	.string	"++fixedEdges == 1"
	.zero	2
.LC24:
	.string	"reg->windingNumber == 0"
.LC25:
	.string	"e->Lnext != e"
	.section	".text"
.Letext0:
	.file 2 "c:\\utils\\devkitpro\\devkitppc\\bin\\../lib/gcc/powerpc-eabi/4.6.3/../../../../powerpc-eabi/include/machine/setjmp.h"
	.file 3 "d:/Data/Nintendo/TenebraeGX/gl2gx/include/GL/gl.h"
	.file 4 "d:/Data/Nintendo/TenebraeGX/gl2gx/include/GL/glu.h"
	.file 5 "d:/Data/Nintendo/TenebraeGX/gl2gx/source/libtess/tess.h"
	.file 6 "d:/Data/Nintendo/TenebraeGX/gl2gx/source/libtess/mesh.h"
	.file 7 "d:/Data/Nintendo/TenebraeGX/gl2gx/source/libtess/sweep.h"
	.file 8 "d:/Data/Nintendo/TenebraeGX/gl2gx/source/libtess/dict.h"
	.file 9 "d:/Data/Nintendo/TenebraeGX/gl2gx/source/libtess/priorityq-heap.h"
	.file 10 "d:/Data/Nintendo/TenebraeGX/gl2gx/source/libtess/priorityq.h"