	.file	"sys_ogc.c"
	.section	".text"
.Ltext0:
	.cfi_sections	.debug_frame
	.align 2
	.globl direntp_compare
	.type	direntp_compare, @function
direntp_compare:
.LFB73:
	.file 1 "d:/Data/Nintendo/TenebraeGX/src/sys_ogc.c"
	.loc 1 66 0
	.cfi_startproc
.LVL0:
	mflr 0
	stwu 1,-8(1)
.LCFI0:
	.cfi_def_cfa_offset 8
	.cfi_register 65, 0
	.loc 1 68 0
	li 5,768
	.loc 1 66 0
	stw 0,12(1)
	.loc 1 68 0
	lwz 3,0(3)
.LVL1:
	lwz 4,0(4)
.LVL2:
	addi 3,3,5
	addi 4,4,5
	.cfi_offset 65, 4
	bl strncmp
	.loc 1 69 0
	lwz 0,12(1)
	addi 1,1,8
.LCFI1:
	.cfi_def_cfa_offset 0
	mtlr 0
	blr
	.cfi_endproc
.LFE73:
	.size	direntp_compare, .-direntp_compare
	.align 2
	.globl uxdata_free
	.type	uxdata_free, @function
uxdata_free:
.LFB72:
	.loc 1 61 0
	.cfi_startproc
.LVL3:
	mflr 0
	stwu 1,-8(1)
.LCFI2:
	.cfi_def_cfa_offset 8
	.cfi_register 65, 0
	stw 0,12(1)
	.loc 1 63 0
	lwz 3,16(3)
.LVL4:
	.cfi_offset 65, 4
	bl Z_Free
	.loc 1 64 0
	lwz 0,12(1)
	addi 1,1,8
.LCFI3:
	.cfi_def_cfa_offset 0
	mtlr 0
	blr
	.cfi_endproc
.LFE72:
	.size	uxdata_free, .-uxdata_free
	.align 2
	.globl Sys_Findnext
	.type	Sys_Findnext, @function
Sys_Findnext:
.LFB75:
	.loc 1 163 0
	.cfi_startproc
.LVL5:
	stwu 1,-24(1)
.LCFI4:
	.cfi_def_cfa_offset 24
	mflr 0
	stw 31,20(1)
	.loc 1 166 0
	mr. 31,3
	.cfi_offset 31, -4
	.cfi_register 65, 0
	.loc 1 163 0
	stw 0,28(1)
	stw 29,12(1)
	stw 30,16(1)
	.loc 1 166 0
	beq- 0,.L4
	.cfi_offset 30, -8
	.cfi_offset 29, -12
	.cfi_offset 65, 4
	.loc 1 167 0
	lwz 30,128(31)
.LVL6:
	.loc 1 168 0
	cmpwi 7,30,0
	beq- 7,.L8
	.loc 1 169 0
	lwz 11,4(30)
	.loc 1 171 0
	lwz 9,8(30)
	.loc 1 169 0
	addi 0,11,1
	.loc 1 171 0
	cmplw 7,0,9
	.loc 1 169 0
	stw 0,4(30)
	.loc 1 171 0
	bge- 7,.L13
	.loc 1 172 0
	lwz 9,16(30)
	slwi 0,0,2
	lwz 5,0(30)
	lwzx 4,9,0
	add 3,31,5
.LVL7:
	subfic 5,5,128
	addi 4,4,5
	bl strncpy
.LVL8:
.L4:
	.loc 1 185 0
	lwz 0,28(1)
	mr 3,31
	lwz 29,12(1)
	mtlr 0
	lwz 30,16(1)
	lwz 31,20(1)
	addi 1,1,24
	.cfi_remember_state
.LCFI5:
	.cfi_def_cfa_offset 0
	.cfi_restore 31
	.cfi_restore 30
	.cfi_restore 29
	blr
.LVL9:
.L13:
.LCFI6:
	.cfi_restore_state
	.loc 1 177 0 discriminator 1
	cmpwi 7,9,0
	li 0,0
	li 29,0
	beq- 7,.L7
.LVL10:
.L10:
	.loc 1 178 0 discriminator 2
	lwz 9,16(30)
	slwi 0,0,2
	.loc 1 177 0 discriminator 2
	addi 29,29,1
	.loc 1 178 0 discriminator 2
	lwzx 3,9,0
	bl Z_Free
.LVL11:
	.loc 1 177 0 discriminator 2
	lwz 9,8(30)
	mr 0,29
	cmplw 7,29,9
	blt+ 7,.L10
	.loc 1 177 0 is_stmt 0
	lwz 30,128(31)
.LVL12:
.L7:
.LBB15:
.LBB16:
	.loc 1 63 0 is_stmt 1
	lwz 3,16(30)
	bl Z_Free
.LBE16:
.LBE15:
	.loc 1 181 0
	li 0,0
	stw 0,128(31)
	.loc 1 184 0
	li 31,0
.LVL13:
	.loc 1 185 0
	lwz 0,28(1)
	mr 3,31
	lwz 29,12(1)
	mtlr 0
	lwz 30,16(1)
.LVL14:
	lwz 31,20(1)
	addi 1,1,24
	.cfi_remember_state
	.cfi_restore 29
	.cfi_restore 30
	.cfi_restore 31
.LCFI7:
	.cfi_def_cfa_offset 0
	blr
.LVL15:
.L8:
.LCFI8:
	.cfi_restore_state
	.loc 1 184 0
	li 31,0
	b .L4
	.cfi_endproc
.LFE75:
	.size	Sys_Findnext, .-Sys_Findnext
	.align 2
	.globl Sys_Findclose
	.type	Sys_Findclose, @function
Sys_Findclose:
.LFB76:
	.loc 1 188 0
	.cfi_startproc
.LVL16:
	stwu 1,-16(1)
.LCFI9:
	.cfi_def_cfa_offset 16
	mflr 0
	stw 31,12(1)
	.loc 1 190 0
	mr. 31,3
	.cfi_offset 31, -4
	.cfi_register 65, 0
	.loc 1 188 0
	stw 0,20(1)
	.loc 1 190 0
	beq- 0,.L14
	.cfi_offset 65, 4
	.loc 1 191 0
	lwz 9,128(31)
.LVL17:
	.loc 1 192 0
	cmpwi 7,9,0
	beq- 7,.L14
.LVL18:
.LBB17:
.LBB18:
	.loc 1 63 0
	lwz 3,16(9)
.LVL19:
	bl Z_Free
.LVL20:
.LBE18:
.LBE17:
	.loc 1 194 0
	li 0,0
	stw 0,128(31)
.L14:
	.loc 1 197 0
	lwz 0,20(1)
	lwz 31,12(1)
.LVL21:
	mtlr 0
	addi 1,1,16
.LCFI10:
	.cfi_def_cfa_offset 0
	.cfi_restore 31
	blr
	.cfi_endproc
.LFE76:
	.size	Sys_Findclose, .-Sys_Findclose
	.align 2
	.globl filelength
	.type	filelength, @function
filelength:
.LFB78:
	.loc 1 228 0
	.cfi_startproc
.LVL22:
	mflr 0
	stwu 1,-24(1)
.LCFI11:
	.cfi_def_cfa_offset 24
	.cfi_register 65, 0
	stw 29,12(1)
	stw 0,28(1)
	stw 30,16(1)
	stw 31,20(1)
	.loc 1 228 0
	mr 31,3
	.cfi_offset 31, -4
	.cfi_offset 30, -8
	.cfi_offset 65, 4
	.cfi_offset 29, -12
	.loc 1 232 0
	bl ftell
.LVL23:
	.loc 1 233 0
	li 5,0
	.loc 1 232 0
	mr 30,3
.LVL24:
	.loc 1 233 0
	li 6,0
	li 7,2
	mr 3,31
.LVL25:
	bl fseek
	.loc 1 234 0
	mr 3,31
	bl ftell
	.loc 1 235 0
	srawi 5,30,31
	.loc 1 234 0
	mr 29,3
.LVL26:
	.loc 1 235 0
	mr 6,30
	mr 3,31
.LVL27:
	li 7,0
	bl fseek
	.loc 1 239 0
	lwz 0,28(1)
	mr 3,29
	lwz 30,16(1)
.LVL28:
	mtlr 0
	lwz 29,12(1)
.LVL29:
	lwz 31,20(1)
.LVL30:
	addi 1,1,24
.LCFI12:
	.cfi_def_cfa_offset 0
	.cfi_restore 31
	.cfi_restore 30
	.cfi_restore 29
	blr
	.cfi_endproc
.LFE78:
	.size	filelength, .-filelength
	.align 2
	.globl filelengthByPath
	.type	filelengthByPath, @function
filelengthByPath:
.LFB79:
	.loc 1 241 0
	.cfi_startproc
.LVL31:
	stwu 1,-88(1)
.LCFI13:
	.cfi_def_cfa_offset 88
	mflr 0
	.loc 1 243 0
	addi 4,1,8
	.loc 1 241 0
	stw 0,92(1)
	.loc 1 243 0
	.cfi_offset 65, 4
	bl stat
.LVL32:
	cmpwi 7,3,0
	.loc 1 244 0
	li 3,-1
	.loc 1 243 0
	bne- 7,.L18
	.loc 1 246 0
	lwz 3,36(1)
.L18:
	.loc 1 247 0
	lwz 0,92(1)
	addi 1,1,88
.LCFI14:
	.cfi_def_cfa_offset 0
	mtlr 0
	blr
	.cfi_endproc
.LFE79:
	.size	filelengthByPath, .-filelengthByPath
	.align 2
	.globl Sys_FileClose
	.type	Sys_FileClose, @function
Sys_FileClose:
.LFB82:
	.loc 1 284 0
	.cfi_startproc
.LVL33:
	stwu 1,-16(1)
.LCFI15:
	.cfi_def_cfa_offset 16
	mflr 0
	stw 30,8(1)
	.loc 1 285 0
	lis 30,sys_handles@ha
	.cfi_offset 30, -8
	.cfi_register 65, 0
	.loc 1 284 0
	stw 31,12(1)
	.loc 1 285 0
	la 30,sys_handles@l(30)
	slwi 31,3,2
	.cfi_offset 31, -4
	.loc 1 284 0
	stw 0,20(1)
	.loc 1 285 0
	lwzx 3,30,31
.LVL34:
	.cfi_offset 65, 4
	bl fclose
	.loc 1 286 0
	li 0,0
	stwx 0,30,31
	.loc 1 287 0
	lwz 0,20(1)
	lwz 30,8(1)
	mtlr 0
	lwz 31,12(1)
	addi 1,1,16
.LCFI16:
	.cfi_def_cfa_offset 0
	.cfi_restore 31
	.cfi_restore 30
	blr
	.cfi_endproc
.LFE82:
	.size	Sys_FileClose, .-Sys_FileClose
	.align 2
	.globl Sys_FileSeek
	.type	Sys_FileSeek, @function
Sys_FileSeek:
.LFB83:
	.loc 1 290 0
	.cfi_startproc
.LVL35:
	mflr 0
	stwu 1,-8(1)
.LCFI17:
	.cfi_def_cfa_offset 8
	.cfi_register 65, 0
	.loc 1 291 0
	lis 9,sys_handles@ha
	slwi 3,3,2
.LVL36:
	la 9,sys_handles@l(9)
	.loc 1 290 0
	mr 6,4
	stw 0,12(1)
	.loc 1 291 0
	srawi 5,4,31
	li 7,0
	lwzx 3,9,3
	.cfi_offset 65, 4
	bl fseek
.LVL37:
	.loc 1 292 0
	lwz 0,12(1)
	addi 1,1,8
.LCFI18:
	.cfi_def_cfa_offset 0
	mtlr 0
	blr
	.cfi_endproc
.LFE83:
	.size	Sys_FileSeek, .-Sys_FileSeek
	.align 2
	.globl Sys_FileRead
	.type	Sys_FileRead, @function
Sys_FileRead:
.LFB84:
	.loc 1 295 0
	.cfi_startproc
.LVL38:
	mflr 0
	stwu 1,-8(1)
.LCFI19:
	.cfi_def_cfa_offset 8
	.cfi_register 65, 0
	.loc 1 296 0
	lis 9,sys_handles@ha
	slwi 3,3,2
.LVL39:
	la 9,sys_handles@l(9)
	.loc 1 295 0
	stw 0,12(1)
	.loc 1 296 0
	lwzx 6,9,3
	mr 3,4
	li 4,1
.LVL40:
	.cfi_offset 65, 4
	bl fread
.LVL41:
	.loc 1 299 0
	lwz 0,12(1)
	addi 1,1,8
.LCFI20:
	.cfi_def_cfa_offset 0
	mtlr 0
	blr
	.cfi_endproc
.LFE84:
	.size	Sys_FileRead, .-Sys_FileRead
	.align 2
	.globl Sys_FileWrite
	.type	Sys_FileWrite, @function
Sys_FileWrite:
.LFB85:
	.loc 1 302 0
	.cfi_startproc
.LVL42:
	mflr 0
	stwu 1,-8(1)
.LCFI21:
	.cfi_def_cfa_offset 8
	.cfi_register 65, 0
	.loc 1 303 0
	lis 9,sys_handles@ha
	slwi 3,3,2
.LVL43:
	la 9,sys_handles@l(9)
	.loc 1 302 0
	stw 0,12(1)
	.loc 1 303 0
	lwzx 6,9,3
	mr 3,4
	li 4,1
.LVL44:
	.cfi_offset 65, 4
	bl fwrite
.LVL45:
	.loc 1 304 0
	lwz 0,12(1)
	addi 1,1,8
.LCFI22:
	.cfi_def_cfa_offset 0
	mtlr 0
	blr
	.cfi_endproc
.LFE85:
	.size	Sys_FileWrite, .-Sys_FileWrite
	.align 2
	.globl Sys_FileTime
	.type	Sys_FileTime, @function
Sys_FileTime:
.LFB86:
	.loc 1 307 0
	.cfi_startproc
.LVL46:
	mflr 0
	stwu 1,-8(1)
.LCFI23:
	.cfi_def_cfa_offset 8
	.cfi_register 65, 0
	.loc 1 310 0
	lis 4,.LC0@ha
	la 4,.LC0@l(4)
	.loc 1 307 0
	stw 0,12(1)
	.loc 1 310 0
	.cfi_offset 65, 4
	bl fopen
.LVL47:
	.loc 1 311 0
	cmpwi 7,3,0
	.loc 1 317 0
	li 0,-1
	.loc 1 311 0
	beq- 7,.L25
	.loc 1 313 0
	bl fclose
.LVL48:
	.loc 1 314 0
	li 0,1
.L25:
	.loc 1 318 0
	mr 3,0
	lwz 0,12(1)
	addi 1,1,8
.LCFI24:
	.cfi_def_cfa_offset 0
	mtlr 0
	blr
	.cfi_endproc
.LFE86:
	.size	Sys_FileTime, .-Sys_FileTime
	.align 2
	.globl Sys_mkdir
	.type	Sys_mkdir, @function
Sys_mkdir:
.LFB87:
	.loc 1 320 0
	.cfi_startproc
.LVL49:
	.loc 1 321 0
	blr
	.cfi_endproc
.LFE87:
	.size	Sys_mkdir, .-Sys_mkdir
	.align 2
	.globl Sys_MakeCodeWriteable
	.type	Sys_MakeCodeWriteable, @function
Sys_MakeCodeWriteable:
.LFB88:
	.loc 1 333 0
	.cfi_startproc
.LVL50:
	.loc 1 334 0
	blr
	.cfi_endproc
.LFE88:
	.size	Sys_MakeCodeWriteable, .-Sys_MakeCodeWriteable
	.align 2
	.globl Sys_Printf
	.type	Sys_Printf, @function
Sys_Printf:
.LFB91:
	.loc 1 393 0
	.cfi_startproc
.LVL51:
	stwu 1,-128(1)
.LCFI25:
	.cfi_def_cfa_offset 128
	mflr 0
	stw 31,124(1)
	mr 31,1
	.cfi_offset 31, -4
	.cfi_register 65, 0
.LCFI26:
	.cfi_def_cfa_register 31
	stw 0,132(1)
	stw 4,28(31)
	stw 5,32(31)
	stw 6,36(31)
	stw 7,40(31)
	stw 8,44(31)
	stw 9,48(31)
	stw 10,52(31)
	bne- 1,.L30
	.cfi_offset 65, 4
	.loc 1 393 0
	stfd 1,56(31)
	stfd 2,64(31)
	stfd 3,72(31)
	stfd 4,80(31)
	stfd 5,88(31)
	stfd 6,96(31)
	stfd 7,104(31)
	stfd 8,112(31)
.L30:
.LVL52:
	.loc 1 396 0
	lwz 0,0(1)
	.loc 1 393 0
	mr 5,3
	.loc 1 399 0
	addi 6,31,8
	li 4,4095
	.loc 1 396 0
	stwu 0,-4112(1)
	.loc 1 398 0
	li 0,1
	stb 0,8(31)
	li 0,0
	stb 0,9(31)
	.loc 1 396 0
	addi 3,1,23
.LVL53:
	.loc 1 398 0
	addi 0,31,136
	.loc 1 399 0
	rlwinm 3,3,0,0,27
.LVL54:
	.loc 1 398 0
	stw 0,12(31)
	addi 0,31,24
	stw 0,16(31)
	.loc 1 399 0
	bl vsnprintf
.LVL55:
	.loc 1 407 0
	addi 11,31,128
	lwz 0,4(11)
	lwz 31,-4(11)
.LCFI27:
	.cfi_def_cfa 11, 0
	mtlr 0
	mr 1,11
.LCFI28:
	.cfi_def_cfa_register 1
	.cfi_restore 31
.LVL56:
	blr
	.cfi_endproc
.LFE91:
	.size	Sys_Printf, .-Sys_Printf
	.align 2
	.globl Sys_WaitPress
	.type	Sys_WaitPress, @function
Sys_WaitPress:
.LFB89:
	.loc 1 343 0
	.cfi_startproc
.LVL57:
	stwu 1,-24(1)
.LCFI29:
	.cfi_def_cfa_offset 24
	mflr 0
	stw 29,12(1)
.LBB19:
	.loc 1 353 0
	lis 29,.LC1@ha
	.cfi_offset 29, -12
	.cfi_register 65, 0
.LBE19:
	.loc 1 343 0
	stw 28,8(1)
.LBB20:
	.loc 1 353 0
	la 29,.LC1@l(29)
.LBE20:
	.loc 1 343 0
	stw 0,28(1)
	.loc 1 344 0
	li 28,300
	.cfi_offset 65, 4
	.cfi_offset 28, -16
	.loc 1 343 0
	stw 30,16(1)
	stw 31,20(1)
	b .L35
	.cfi_offset 31, -4
	.cfi_offset 30, -8
.LVL58:
.L33:
.LBB21:
	.loc 1 356 0
	or. 0,30,31
	bne- 0,.L31
.L36:
	.loc 1 357 0
	bl VIDEO_WaitVSync
.LVL59:
.L35:
	.loc 1 347 0
	bl PAD_ScanPads
	.loc 1 348 0
	bl WPAD_ScanPads
	.loc 1 350 0
	li 3,0
	bl PAD_ButtonsDown
	mr 30,3
	li 3,1
	bl PAD_ButtonsDown
	or 30,3,30
	li 3,2
	bl PAD_ButtonsDown
	rlwinm 30,30,0,0xffff
	or 30,30,3
	li 3,3
	bl PAD_ButtonsDown
	rlwinm 30,30,0,0xffff
	or 30,30,3
	.loc 1 351 0
	li 3,0
	bl WPAD_ButtonsDown
	.loc 1 350 0
	rlwinm 30,30,0,0xffff
.LVL60:
	.loc 1 351 0
	mr 31,3
	li 3,1
	bl WPAD_ButtonsDown
	or 31,3,31
	li 3,2
	bl WPAD_ButtonsDown
	or 31,31,3
	li 3,3
	bl WPAD_ButtonsDown
	.loc 1 352 0
	cmpwi 7,28,301
	.loc 1 351 0
	or 31,31,3
.LVL61:
	.loc 1 352 0
	addi 28,28,1
.LVL62:
	bne+ 7,.L33
	.loc 1 353 0
	mr 3,29
	mr 4,30
	mr 5,31
	.loc 1 354 0
	li 28,0
.LVL63:
	.loc 1 353 0
	crxor 6,6,6
	bl Sys_Printf
.LVL64:
	.loc 1 356 0
	or. 0,30,31
	beq+ 0,.L36
.L31:
.LBE21:
	.loc 1 359 0
	lwz 0,28(1)
	lwz 28,8(1)
.LVL65:
	mtlr 0
	lwz 29,12(1)
	lwz 30,16(1)
.LVL66:
	lwz 31,20(1)
.LVL67:
	addi 1,1,24
.LCFI30:
	.cfi_def_cfa_offset 0
	.cfi_restore 31
	.cfi_restore 30
	.cfi_restore 29
	.cfi_restore 28
	blr
	.cfi_endproc
.LFE89:
	.size	Sys_WaitPress, .-Sys_WaitPress
	.align 2
	.globl Sys_Error
	.type	Sys_Error, @function
Sys_Error:
.LFB90:
	.loc 1 366 0
	.cfi_startproc
.LVL68:
	stwu 1,-128(1)
.LCFI31:
	.cfi_def_cfa_offset 128
	mflr 0
	stw 31,124(1)
	mr 31,1
	.cfi_offset 31, -4
	.cfi_register 65, 0
.LCFI32:
	.cfi_def_cfa_register 31
	stw 0,132(1)
	stw 30,120(1)
	stw 4,28(31)
	stw 5,32(31)
	stw 6,36(31)
	stw 7,40(31)
	stw 8,44(31)
	stw 9,48(31)
	stw 10,52(31)
	bne- 1,.L38
	.cfi_offset 30, -8
	.cfi_offset 65, 4
	.loc 1 366 0
	stfd 1,56(31)
	stfd 2,64(31)
	stfd 3,72(31)
	stfd 4,80(31)
	stfd 5,88(31)
	stfd 6,96(31)
	stfd 7,104(31)
	stfd 8,112(31)
.L38:
.LVL69:
	.loc 1 369 0
	lwz 0,0(1)
	.loc 1 366 0
	mr 5,3
	.loc 1 372 0
	addi 6,31,8
	li 4,4095
	.loc 1 369 0
	stwu 0,-4112(1)
	.loc 1 371 0
	li 0,1
	stb 0,8(31)
	li 0,0
	.loc 1 369 0
	addi 30,1,23
	.loc 1 371 0
	stb 0,9(31)
	.loc 1 369 0
	rlwinm 30,30,0,0,27
.LVL70:
	.loc 1 371 0
	addi 0,31,136
	stw 0,12(31)
	.loc 1 372 0
	mr 3,30
.LVL71:
	.loc 1 371 0
	addi 0,31,24
	stw 0,16(31)
	.loc 1 372 0
	bl vsnprintf
.LVL72:
	.loc 1 378 0
	lis 3,.LC2@ha
	mr 4,30
	la 3,.LC2@l(3)
	crxor 6,6,6
	bl printf
	.loc 1 382 0
	bl Sys_WaitPress
	.loc 1 383 0
	li 3,3
	li 4,0
	li 5,0
	bl SYS_ResetSystem
	.loc 1 384 0
	li 3,1
	bl exit
	.cfi_endproc
.LFE90:
	.size	Sys_Error, .-Sys_Error
	.align 2
	.globl findhandle
	.type	findhandle, @function
findhandle:
.LFB77:
	.loc 1 212 0
	.cfi_startproc
.LVL73:
	mflr 0
	stwu 1,-8(1)
.LCFI33:
	.cfi_def_cfa_offset 8
	.cfi_register 65, 0
	.loc 1 215 0
	lis 9,sys_handles@ha
	li 3,1
	la 9,sys_handles@l(9)
	.loc 1 212 0
	stw 0,12(1)
	.loc 1 215 0
	li 0,9
	.cfi_offset 65, 4
	mtctr 0
.LVL74:
.L41:
	.loc 1 216 0
	lwzu 0,4(9)
	cmpwi 7,0,0
	beq- 7,.L43
	.loc 1 215 0
	addi 3,3,1
.LVL75:
	bdnz .L41
	.loc 1 218 0
	lis 3,.LC3@ha
.LVL76:
	la 3,.LC3@l(3)
	crxor 6,6,6
	bl Sys_Error
.L43:
	.loc 1 220 0
	lwz 0,12(1)
	addi 1,1,8
.LCFI34:
	.cfi_def_cfa_offset 0
	mtlr 0
	blr
	.cfi_endproc
.LFE77:
	.size	findhandle, .-findhandle
	.align 2
	.globl Sys_FileOpenRead
	.type	Sys_FileOpenRead, @function
Sys_FileOpenRead:
.LFB80:
	.loc 1 250 0
	.cfi_startproc
.LVL77:
	mflr 0
	stwu 1,-24(1)
.LCFI35:
	.cfi_def_cfa_offset 24
	.cfi_register 65, 0
	stw 29,12(1)
	mr 29,4
	.cfi_offset 29, -12
	stw 0,28(1)
	stw 30,16(1)
	mr 30,3
	.cfi_offset 30, -8
	.cfi_offset 65, 4
	stw 31,20(1)
	.loc 1 254 0
	.cfi_offset 31, -4
	bl findhandle
.LVL78:
	.loc 1 256 0
	lis 4,.LC0@ha
	.loc 1 254 0
	mr 31,3
.LVL79:
	.loc 1 256 0
	la 4,.LC0@l(4)
	mr 3,30
.LVL80:
	bl fopen
.LVL81:
	.loc 1 257 0
	mr. 0,3
	beq- 0,.L47
	.loc 1 262 0
	lis 11,sys_handles@ha
	slwi 9,31,2
	la 11,sys_handles@l(11)
	.loc 1 266 0
	lwz 30,16(1)
.LVL82:
	.loc 1 262 0
	stwx 0,11,9
	.loc 1 266 0
	lwz 0,28(1)
	.loc 1 263 0
	stw 31,0(29)
	.loc 1 266 0
	mtlr 0
	lwz 29,12(1)
.LVL83:
	lwz 31,20(1)
.LVL84:
	addi 1,1,24
	.cfi_remember_state
.LCFI36:
	.cfi_def_cfa_offset 0
	.cfi_restore 31
	.cfi_restore 30
	.cfi_restore 29
	.loc 1 265 0
	b filelength
.LVL85:
.L47:
.LCFI37:
	.cfi_restore_state
	.loc 1 259 0
	li 0,-1
.LVL86:
	.loc 1 266 0
	lwz 30,16(1)
.LVL87:
	.loc 1 259 0
	stw 0,0(29)
	.loc 1 266 0
	li 3,-1
.LVL88:
	lwz 0,28(1)
	lwz 29,12(1)
.LVL89:
	mtlr 0
	lwz 31,20(1)
.LVL90:
	addi 1,1,24
.LCFI38:
	.cfi_def_cfa_offset 0
	.cfi_restore 31
	.cfi_restore 30
	.cfi_restore 29
	blr
	.cfi_endproc
.LFE80:
	.size	Sys_FileOpenRead, .-Sys_FileOpenRead
	.align 2
	.globl Sys_FileOpenWrite
	.type	Sys_FileOpenWrite, @function
Sys_FileOpenWrite:
.LFB81:
	.loc 1 269 0
	.cfi_startproc
.LVL91:
	mflr 0
	stwu 1,-16(1)
.LCFI39:
	.cfi_def_cfa_offset 16
	.cfi_register 65, 0
	stw 30,8(1)
	mr 30,3
	.cfi_offset 30, -8
	stw 0,20(1)
	stw 31,12(1)
	.loc 1 273 0
	.cfi_offset 31, -4
	.cfi_offset 65, 4
	bl findhandle
.LVL92:
	.loc 1 275 0
	lis 4,.LC4@ha
	.loc 1 273 0
	mr 31,3
.LVL93:
	.loc 1 275 0
	la 4,.LC4@l(4)
	mr 3,30
.LVL94:
	bl fopen
.LVL95:
	.loc 1 276 0
	cmpwi 0,3,0
	beq- 0,.L50
	.loc 1 278 0
	lis 9,sys_handles@ha
	slwi 0,31,2
	la 9,sys_handles@l(9)
	.loc 1 281 0
	lwz 30,8(1)
.LVL96:
	.loc 1 278 0
	stwx 3,9,0
	.loc 1 281 0
	mr 3,31
.LVL97:
	lwz 0,20(1)
.LVL98:
	lwz 31,12(1)
.LVL99:
	mtlr 0
	addi 1,1,16
	.cfi_remember_state
.LCFI40:
	.cfi_def_cfa_offset 0
	.cfi_restore 31
	.cfi_restore 30
	blr
.LVL100:
.L50:
.LCFI41:
	.cfi_restore_state
	.loc 1 277 0
	bl __errno
.LVL101:
	lwz 3,0(3)
	bl strerror
	mr 4,30
	mr 5,3
	lis 3,.LC5@ha
	la 3,.LC5@l(3)
	crxor 6,6,6
	bl Sys_Error
	.cfi_endproc
.LFE81:
	.size	Sys_FileOpenWrite, .-Sys_FileOpenWrite
	.align 2
	.globl Sys_Findfirst
	.type	Sys_Findfirst, @function
Sys_Findfirst:
.LFB74:
	.loc 1 76 0
	.cfi_startproc
.LVL102:
	stwu 1,-176(1)
.LCFI42:
	.cfi_def_cfa_offset 176
	mflr 0
	stw 26,152(1)
	mr 26,3
	.cfi_offset 26, -24
	.cfi_register 65, 0
	stw 28,160(1)
	.loc 1 85 0
	lis 3,.LC6@ha
.LVL103:
	.loc 1 76 0
	mr 28,4
	.cfi_offset 28, -16
	stw 27,156(1)
	.loc 1 85 0
	la 3,.LC6@l(3)
	.loc 1 76 0
	mr 27,5
	.cfi_offset 27, -20
	.loc 1 85 0
	mr 4,26
.LVL104:
	mr 5,28
.LVL105:
	.loc 1 76 0
	stw 0,180(1)
	stw 22,136(1)
	stw 23,140(1)
	stw 24,144(1)
	stw 25,148(1)
	stw 29,164(1)
	stw 30,168(1)
	stw 31,172(1)
	.loc 1 85 0
	.cfi_offset 31, -4
	.cfi_offset 30, -8
	.cfi_offset 29, -12
	.cfi_offset 25, -28
	.cfi_offset 24, -32
	.cfi_offset 23, -36
	.cfi_offset 22, -40
	.cfi_offset 65, 4
	crxor 6,6,6
	bl Sys_Printf
	.loc 1 86 0
	cmpwi 7,27,0
	beq- 7,.L52
	.loc 1 86 0 is_stmt 0 discriminator 1
	cmpwi 7,28,0
	beq- 7,.L64
	.loc 1 87 0 is_stmt 1
	mr 3,26
	bl strlen
	.loc 1 88 0
	cmpwi 7,3,126
	.loc 1 87 0
	mr 24,3
.LVL106:
	.loc 1 88 0
	bgt- 7,.L64
	.loc 1 90 0
	mr 4,26
	li 5,128
	mr 3,27
.LVL107:
	bl strncpy
	.loc 1 91 0
	mr 3,27
	bl opendir
.LVL108:
	.loc 1 92 0
	mr. 25,3
	beq- 0,.L64
	.loc 1 95 0
	li 3,20
.LVL109:
.LBB22:
	.loc 1 116 0
	lis 23,.LC7@ha
.LBE22:
	.loc 1 95 0
	bl Z_Malloc
	.loc 1 96 0
	li 0,0
	stw 0,4(3)
	.loc 1 98 0
	li 0,10
	.loc 1 97 0
	stw 24,0(3)
	.loc 1 95 0
	mr 31,3
.LVL110:
	.loc 1 98 0
	stw 0,8(3)
	.loc 1 99 0
	li 3,40
.LVL111:
.LBB23:
	.loc 1 116 0
	la 23,.LC7@l(23)
.LBE23:
	.loc 1 99 0
	bl Z_Malloc
	.loc 1 100 0
	stw 25,12(31)
	.loc 1 99 0
	stw 3,16(31)
.L68:
	.loc 1 102 0 discriminator 1
	mr 3,25
	bl readdir
.LVL112:
	mr. 29,3
	beq- 0,.L70
.L58:
.LBB24:
	.loc 1 106 0
	lwz 9,8(31)
	lwz 0,4(31)
	cmpw 7,9,0
	beq- 7,.L71
.LVL113:
.L54:
	.loc 1 114 0
	addi 22,29,5
	li 5,127
	mr 4,22
	addi 3,1,8
	bl strncpy
	.loc 1 115 0
	addi 3,1,8
	bl strlwr
	li 5,0
	mr 4,3
	mr 3,28
	bl fnmatch
	.loc 1 116 0
	addi 4,1,8
	.loc 1 115 0
	mr 30,3
.LVL114:
	.loc 1 116 0
	mr 5,22
	mr 3,23
.LVL115:
	mr 6,30
	mr 7,29
	crxor 6,6,6
	bl Sys_Printf
	.loc 1 117 0
	cmpwi 7,30,0
	bne- 7,.L72
	.loc 1 119 0
	lwz 30,4(31)
.LVL116:
	li 3,776
	lwz 22,16(31)
	bl Z_Malloc
	slwi 30,30,2
	.loc 1 120 0
	lwz 0,4(31)
	.loc 1 119 0
	stwx 3,22,30
	.loc 1 120 0
	mr 4,29
	slwi 0,0,2
	li 5,776
	lwz 9,16(31)
	lwzx 3,9,0
	bl memcpy
	.loc 1 121 0
	lwz 9,4(31)
.LBE24:
	.loc 1 102 0
	mr 3,25
.LBB25:
	.loc 1 121 0
	addi 0,9,1
	stw 0,4(31)
.LBE25:
	.loc 1 102 0
	bl readdir
.LVL117:
	mr. 29,3
	bne+ 0,.L58
.L70:
	.loc 1 132 0
	mr 3,25
.LVL118:
	bl closedir
	.loc 1 134 0
	lwz 4,4(31)
	cmpwi 7,4,0
	beq- 7,.L59
.LBB26:
	.loc 1 135 0
	stw 4,8(31)
	.loc 1 138 0
	lis 6,direntp_compare@ha
	.loc 1 136 0
	stw 29,4(31)
	.loc 1 138 0
	li 5,4
	lwz 3,16(31)
	la 6,direntp_compare@l(6)
	.loc 1 139 0
	add 26,26,24
.LVL119:
	.loc 1 138 0
	bl qsort
	.loc 1 139 0
	lbz 0,-1(26)
	cmpwi 7,0,47
	beq- 7,.L60
	.loc 1 140 0
	li 0,47
	stbx 0,27,24
	.loc 1 141 0
	lwz 9,0(31)
	addi 0,9,1
	stw 0,0(31)
	.loc 1 142 0
	stbx 29,27,0
.L60:
	.loc 1 144 0
	lwz 9,16(31)
	lwz 3,0(31)
	lwz 4,0(9)
	subfic 5,3,128
	add 3,27,3
	addi 4,4,5
	bl strncpy
	.loc 1 145 0
	stw 25,12(31)
	.loc 1 147 0
	lis 3,.LC9@ha
	.loc 1 146 0
	stw 31,128(27)
	.loc 1 147 0
	la 3,.LC9@l(3)
	crxor 6,6,6
	bl Sys_Printf
.LVL120:
	.loc 1 149 0
	lwz 0,8(31)
	cmpwi 7,0,0
	beq- 7,.L52
	lis 29,.LC10@ha
.LVL121:
	li 0,0
	li 30,0
	la 29,.LC10@l(29)
.LVL122:
.L61:
	.loc 1 150 0 discriminator 2
	lwz 9,16(31)
	slwi 0,0,2
	mr 3,29
	.loc 1 149 0 discriminator 2
	addi 30,30,1
	.loc 1 150 0 discriminator 2
	lwzx 4,9,0
	addi 4,4,5
	crxor 6,6,6
	bl Sys_Printf
.LVL123:
	.loc 1 149 0 discriminator 2
	lwz 0,8(31)
	cmplw 7,30,0
	mr 0,30
	blt+ 7,.L61
.LVL124:
.L52:
.LBE26:
	.loc 1 160 0
	lwz 0,180(1)
	mr 3,27
	lwz 22,136(1)
	mtlr 0
	lwz 23,140(1)
	lwz 24,144(1)
	lwz 25,148(1)
	lwz 26,152(1)
	lwz 27,156(1)
	lwz 28,160(1)
.LVL125:
	lwz 29,164(1)
	lwz 30,168(1)
	lwz 31,172(1)
	addi 1,1,176
	.cfi_remember_state
.LCFI43:
	.cfi_def_cfa_offset 0
	.cfi_restore 31
	.cfi_restore 30
	.cfi_restore 29
	.cfi_restore 28
	.cfi_restore 27
	.cfi_restore 26
	.cfi_restore 25
	.cfi_restore 24
	.cfi_restore 23
	.cfi_restore 22
	blr
.LVL126:
.L72:
.LCFI44:
	.cfi_restore_state
.LBB27:
	.loc 1 117 0
	cmpwi 7,30,1
	beq- 7,.L68
	.loc 1 126 0
	bl __errno
	lwz 4,0(3)
	lis 3,.LC8@ha
	la 3,.LC8@l(3)
	crxor 6,6,6
	bl Sys_Error
.LVL127:
.L71:
	.loc 1 107 0
	addi 9,9,10
	stw 9,8(31)
	slwi 3,9,2
.LVL128:
	bl Z_Malloc
	.loc 1 108 0
	lwz 4,16(31)
	lwz 5,4(31)
	.loc 1 107 0
	mr 30,3
.LVL129:
	.loc 1 108 0
	bl memcpy
.LVL130:
	.loc 1 109 0
	lwz 3,16(31)
	bl Z_Free
	.loc 1 110 0
	stw 30,16(31)
	b .L54
.LVL131:
.L64:
.LBE27:
	.loc 1 160 0
	lwz 0,180(1)
	.loc 1 93 0
	li 27,0
.LVL132:
	.loc 1 160 0
	mr 3,27
	lwz 22,136(1)
	mtlr 0
	lwz 23,140(1)
	lwz 24,144(1)
	lwz 25,148(1)
	lwz 26,152(1)
.LVL133:
	lwz 27,156(1)
	lwz 28,160(1)
.LVL134:
	lwz 29,164(1)
	lwz 30,168(1)
	lwz 31,172(1)
	addi 1,1,176
	.cfi_remember_state
	.cfi_restore 22
	.cfi_restore 23
	.cfi_restore 24
	.cfi_restore 25
	.cfi_restore 26
	.cfi_restore 27
	.cfi_restore 28
	.cfi_restore 29
	.cfi_restore 30
	.cfi_restore 31
.LCFI45:
	.cfi_def_cfa_offset 0
	blr
.LVL135:
.L59:
.LCFI46:
	.cfi_restore_state
.LBB28:
.LBB29:
	.loc 1 63 0
	lwz 3,16(31)
.LBE29:
.LBE28:
	.loc 1 159 0
	li 27,0
.LVL136:
.LBB31:
.LBB30:
	.loc 1 63 0
	bl Z_Free
.LBE30:
.LBE31:
	.loc 1 156 0
	lis 3,.LC11@ha
	la 3,.LC11@l(3)
	crxor 6,6,6
	bl Sys_Printf
	b .L52
	.cfi_endproc
.LFE74:
	.size	Sys_Findfirst, .-Sys_Findfirst
	.align 2
	.globl Sys_Quit
	.type	Sys_Quit, @function
Sys_Quit:
.LFB92:
	.loc 1 410 0
	.cfi_startproc
	mflr 0
	stwu 1,-8(1)
.LCFI47:
	.cfi_def_cfa_offset 8
	.cfi_register 65, 0
	.loc 1 411 0
	li 3,3
	li 4,0
	li 5,0
	.loc 1 410 0
	stw 0,12(1)
	.loc 1 411 0
	.cfi_offset 65, 4
	bl SYS_ResetSystem
	.loc 1 412 0
	li 3,0
	bl exit
	.cfi_endproc
.LFE92:
	.size	Sys_Quit, .-Sys_Quit
	.globl __floatdidf
	.align 2
	.globl Sys_FloatTime
	.type	Sys_FloatTime, @function
Sys_FloatTime:
.LFB93:
	.loc 1 418 0
	.cfi_startproc
	mflr 0
	stwu 1,-8(1)
.LCFI48:
	.cfi_def_cfa_offset 8
	.cfi_register 65, 0
	stw 0,12(1)
	.loc 1 419 0
	.cfi_offset 65, 4
	bl gettime
	.loc 1 420 0
	bl __floatdidf
	.loc 1 422 0
	lwz 0,12(1)
	.loc 1 420 0
	lis 9,.LC12@ha
	.loc 1 422 0
	mtlr 0
	.loc 1 420 0
	lfd 0,.LC12@l(9)
	.loc 1 422 0
	addi 1,1,8
.LCFI49:
	.cfi_def_cfa_offset 0
	fmul 1,1,0
	blr
	.cfi_endproc
.LFE93:
	.size	Sys_FloatTime, .-Sys_FloatTime
	.align 2
	.type	quakeMain, @function
quakeMain:
.LFB105:
	.loc 1 571 0
	.cfi_startproc
.LVL137:
	mflr 0
	stwu 1,-56(1)
.LCFI50:
	.cfi_def_cfa_offset 56
	.cfi_register 65, 0
	stw 30,32(1)
	.loc 1 577 0
	lis 30,.LANCHOR0@ha
	.cfi_offset 30, -24
	.loc 1 571 0
	stw 0,60(1)
	stw 31,36(1)
	.loc 1 577 0
	la 31,.LANCHOR0@l(30)
	.cfi_offset 31, -20
	.cfi_offset 65, 4
	.loc 1 571 0
	stw 25,12(1)
.LBB32:
	.loc 1 585 0
	li 25,0
	.cfi_offset 25, -44
.LBE32:
	.loc 1 571 0
	stw 27,20(1)
	stw 28,24(1)
	stw 29,28(1)
	stfd 30,40(1)
	stfd 31,48(1)
	stw 24,8(1)
	stw 26,16(1)
	.loc 1 577 0
	lwz 28,.LANCHOR0@l(30)
	.cfi_offset 26, -40
	.cfi_offset 24, -48
	.cfi_offset 63, -8
	.cfi_offset 62, -16
	.cfi_offset 29, -28
	.cfi_offset 28, -32
	.cfi_offset 27, -36
.LVL138:
	.loc 1 578 0
	lwz 29,4(31)
.LVL139:
	.loc 1 580 0
	bl SYS_GetArena1Lo
.LVL140:
	mr 27,3
.LVL141:
	.loc 1 581 0
	bl SYS_GetArena1Hi
.LVL142:
	mr 5,3
.LVL143:
	.loc 1 582 0
	lis 3,.LC13@ha
.LVL144:
	mr 4,27
	la 3,.LC13@l(3)
	subf 6,27,5
	crxor 6,6,6
	bl Sys_Printf
.LVL145:
.LBB33:
	.loc 1 585 0
	mr 9,25
	mr 0,25
 # 585 "d:/Data/Nintendo/TenebraeGX/src/sys_ogc.c" 1
	mfmsr 9
rlwinm 0,9,0,17,15
mtmsr 0
extrwi 9,9,1,16
 # 0 "" 2
.LVL146:
	mr 26,9
.LVL147:
.LBE33:
	.loc 1 588 0
	bl AINST_InitMem
.LVL148:
	.loc 1 589 0
	bl BINST_InitMem
	.loc 1 591 0
	bl SYS_GetArena2Lo
	mr 24,3
.LVL149:
	.loc 1 592 0
	bl SYS_GetArena2Lo
.LVL150:
	addis 27,3,0x180
.LVL151:
	.loc 1 594 0
	bl SYS_GetArena2Hi
	cmplw 7,27,3
	ble- 7,.L76
.LVL152:
.LBB34:
	.loc 1 596 0
 # 596 "d:/Data/Nintendo/TenebraeGX/src/sys_ogc.c" 1
	    cmpwi 26,0
    beq 1f
    mfmsr 25
    ori 25,25,0x8000
    mtmsr 25
1:
 # 0 "" 2
.LVL153:
.LBE34:
	.loc 1 597 0
	lis 3,.LC14@ha
	la 3,.LC14@l(3)
	crxor 6,6,6
	bl Sys_Error
.LVL154:
.L76:
.LBB35:
.LBB36:
	.loc 1 528 0
	addi 0,24,31
.LBE36:
.LBE35:
	.loc 1 601 0
	mr 3,27
.LBB38:
.LBB37:
	.loc 1 528 0
	rlwinm 27,0,0,0,26
.LVL155:
.LBE37:
.LBE38:
	.loc 1 601 0
	bl SYS_SetArena2Lo
.LVL156:
.LBB39:
	.loc 1 602 0
 # 602 "d:/Data/Nintendo/TenebraeGX/src/sys_ogc.c" 1
	    cmpwi 26,0
    beq 1f
    mfmsr 25
    ori 25,25,0x8000
    mtmsr 25
1:
 # 0 "" 2
.LVL157:
.LBE39:
	.loc 1 605 0
	lis 11,0x180
	.loc 1 607 0
	lwz 9,.LANCHOR0@l(30)
	.loc 1 608 0
	lwz 0,4(31)
	.loc 1 611 0
	lis 3,.LC16@ha
	.loc 1 605 0
	stw 11,28(31)
	.loc 1 606 0
	lis 11,.LC15@ha
	la 11,.LC15@l(11)
	.loc 1 607 0
	stw 9,16(31)
	.loc 1 606 0
	stw 11,8(31)
	.loc 1 611 0
	lis 5,0x180
	.loc 1 608 0
	stw 0,20(31)
	.loc 1 611 0
	la 3,.LC16@l(3)
	.loc 1 609 0
	stw 27,24(31)
	.loc 1 611 0
	mr 4,27
	.loc 1 576 0
	li 30,0
	.loc 1 611 0
	crxor 6,6,6
	bl Sys_Printf
	.loc 1 613 0
	mr 4,29
	mr 3,28
	bl COM_InitArgv
	.loc 1 616 0
	lis 11,com_argv@ha
	.loc 1 615 0
	lis 9,com_argc@ha
	.loc 1 616 0
	lwz 0,com_argv@l(11)
	.loc 1 615 0
	lwz 9,com_argc@l(9)
	.loc 1 618 0
	addi 3,31,8
	.loc 1 616 0
	stw 0,20(31)
	.loc 1 615 0
	stw 9,16(31)
	lis 31,.LC20@ha
	la 31,.LC20@l(31)
	.loc 1 618 0
	bl Host_Init
	.loc 1 619 0
	lis 3,.LC17@ha
	la 3,.LC17@l(3)
	crxor 6,6,6
	bl Sys_Printf
	.loc 1 620 0
	bl Sys_FloatTime
	lis 9,.LC19@ha
	lfs 30,.LC19@l(9)
	fsub 30,1,30
.LVL158:
	.loc 1 622 0
	bl Sys_FloatTime
	fmr 31,1
.LVL159:
	.loc 1 623 0
	fsub 1,1,30
.LVL160:
	.loc 1 627 0
	frsp 1,1
	bl Host_Frame
.LVL161:
	.loc 1 629 0
	cmpwi 7,30,60
	ble- 7,.L78
.LVL162:
.L80:
	fmr 30,31
	.loc 1 630 0
	bl Sys_FloatTime
	mr 3,31
	.loc 1 631 0
	li 30,0
	.loc 1 630 0
	creqv 6,6,6
	bl Con_Printf
.LVL163:
.L81:
	.loc 1 622 0
	bl Sys_FloatTime
	fmr 31,1
.LVL164:
	.loc 1 623 0
	fsub 1,1,30
.LVL165:
	.loc 1 627 0
	frsp 1,1
	bl Host_Frame
.LVL166:
	.loc 1 629 0
	cmpwi 7,30,60
	bgt- 7,.L80
.LVL167:
.L78:
	addi 30,30,1
	fmr 30,31
	b .L81
	.cfi_endproc
.LFE105:
	.size	quakeMain, .-quakeMain
	.align 2
	.globl Sys_ConsoleInput
	.type	Sys_ConsoleInput, @function
Sys_ConsoleInput:
.LFB94:
	.loc 1 426 0
	.cfi_startproc
	.loc 1 428 0
	li 3,0
	blr
	.cfi_endproc
.LFE94:
	.size	Sys_ConsoleInput, .-Sys_ConsoleInput
	.align 2
	.globl Sys_Sleep
	.type	Sys_Sleep, @function
Sys_Sleep:
.LFB95:
	.loc 1 431 0
	.cfi_startproc
	.loc 1 432 0
	blr
	.cfi_endproc
.LFE95:
	.size	Sys_Sleep, .-Sys_Sleep
	.align 2
	.globl Sys_SendKeyEvents
	.type	Sys_SendKeyEvents, @function
Sys_SendKeyEvents:
.LFB96:
	.loc 1 435 0
	.cfi_startproc
	.loc 1 436 0
	blr
	.cfi_endproc
.LFE96:
	.size	Sys_SendKeyEvents, .-Sys_SendKeyEvents
	.align 2
	.globl Sys_HighFPPrecision
	.type	Sys_HighFPPrecision, @function
Sys_HighFPPrecision:
.LFB97:
	.loc 1 439 0
	.cfi_startproc
	.loc 1 440 0
	blr
	.cfi_endproc
.LFE97:
	.size	Sys_HighFPPrecision, .-Sys_HighFPPrecision
	.align 2
	.globl Sys_LowFPPrecision
	.type	Sys_LowFPPrecision, @function
Sys_LowFPPrecision:
.LFB98:
	.loc 1 443 0
	.cfi_startproc
	.loc 1 444 0
	blr
	.cfi_endproc
.LFE98:
	.size	Sys_LowFPPrecision, .-Sys_LowFPPrecision
	.align 2
	.globl Sys_Strtime
	.type	Sys_Strtime, @function
Sys_Strtime:
.LFB99:
	.loc 1 449 0
	.cfi_startproc
.LVL168:
	stwu 1,-16(1)
.LCFI51:
	.cfi_def_cfa_offset 16
	mflr 0
	stw 30,8(1)
	.loc 1 453 0
	lis 30,.LANCHOR0@ha
	.cfi_offset 30, -8
	.cfi_register 65, 0
	la 30,.LANCHOR0@l(30)
	.loc 1 449 0
	stw 31,12(1)
	.loc 1 453 0
	addi 30,30,32
	.loc 1 449 0
	mr 31,3
	.cfi_offset 31, -4
	.loc 1 453 0
	mr 3,30
.LVL169:
	.loc 1 449 0
	stw 0,20(1)
	.loc 1 453 0
	.cfi_offset 65, 4
	bl time
	.loc 1 454 0
	mr 3,30
	bl gmtime
.LVL170:
	.loc 1 456 0
	lis 4,.LC21@ha
	lwz 5,8(3)
	la 4,.LC21@l(4)
	lwz 6,4(3)
	lwz 7,0(3)
	mr 3,31
.LVL171:
	crxor 6,6,6
	bl sprintf
	.loc 1 458 0
	lwz 0,20(1)
	lwz 30,8(1)
	mtlr 0
	lwz 31,12(1)
.LVL172:
	addi 1,1,16
.LCFI52:
	.cfi_def_cfa_offset 0
	.cfi_restore 31
	.cfi_restore 30
	blr
	.cfi_endproc
.LFE99:
	.size	Sys_Strtime, .-Sys_Strtime
	.align 2
	.globl Sys_AcceptLogTerminal
	.type	Sys_AcceptLogTerminal, @function
Sys_AcceptLogTerminal:
.LFB100:
	.loc 1 470 0
	.cfi_startproc
	mflr 0
	stwu 1,-88(1)
.LCFI53:
	.cfi_def_cfa_offset 88
	.cfi_register 65, 0
	.loc 1 479 0
	li 6,1
	.loc 1 470 0
	stw 31,84(1)
	.loc 1 479 0
	addi 4,1,12
	.loc 1 473 0
	li 31,0
	.cfi_offset 31, -4
	.loc 1 470 0
	stw 0,92(1)
	.loc 1 479 0
	addi 5,1,28
	.loc 1 471 0
	li 0,16
	.cfi_offset 65, 4
	.loc 1 479 0
	addi 3,1,44
	.loc 1 471 0
	stw 0,8(1)
.LVL173:
	.loc 1 470 0
	stw 29,76(1)
	.loc 1 484 0
	lis 29,sock@ha
	.cfi_offset 29, -12
	.loc 1 470 0
	stw 30,80(1)
	.loc 1 473 0
	stw 31,44(1)
	stw 31,48(1)
	stw 31,52(1)
	stw 31,56(1)
	.loc 1 474 0
	stw 31,28(1)
	stw 31,32(1)
	stw 31,36(1)
	stw 31,40(1)
	.loc 1 475 0
	stw 31,12(1)
	stw 31,16(1)
	stw 31,20(1)
	stw 31,24(1)
	.loc 1 479 0
	.cfi_offset 30, -8
	bl if_config
	.loc 1 484 0
	li 4,1
	li 5,0
	li 3,2
	bl net_socket
	.loc 1 486 0
	lis 10,server@ha
	la 9,server@l(10)
	.loc 1 489 0
	li 0,2
	.loc 1 486 0
	stw 31,server@l(10)
	.loc 1 487 0
	lis 11,client@ha
	.loc 1 489 0
	stb 0,1(9)
	.loc 1 490 0
	li 0,80
	.loc 1 486 0
	stw 31,4(9)
	.loc 1 487 0
	la 30,client@l(11)
	.loc 1 486 0
	stw 31,8(9)
	.loc 1 493 0
	mr 4,9
	.loc 1 486 0
	stw 31,12(9)
	.loc 1 493 0
	li 5,16
	.loc 1 490 0
	sth 0,2(9)
	.loc 1 487 0
	stw 31,client@l(11)
	stw 31,4(30)
	stw 31,8(30)
	stw 31,12(30)
	.loc 1 484 0
	stw 3,sock@l(29)
	.loc 1 493 0
	bl net_bind
	.loc 1 495 0
	lwz 3,sock@l(29)
	li 4,5
	bl net_listen
	.loc 1 498 0
	lwz 3,sock@l(29)
	mr 4,30
	addi 5,1,8
	bl net_accept
	.loc 1 505 0
	lwz 0,92(1)
	.loc 1 498 0
	lis 9,csock@ha
	.loc 1 505 0
	lwz 29,76(1)
	mtlr 0
	lwz 30,80(1)
	lwz 31,84(1)
	.loc 1 498 0
	stw 3,csock@l(9)
	.loc 1 505 0
	addi 1,1,88
.LCFI54:
	.cfi_def_cfa_offset 0
	.cfi_restore 31
	.cfi_restore 30
	.cfi_restore 29
	blr
	.cfi_endproc
.LFE100:
	.size	Sys_AcceptLogTerminal, .-Sys_AcceptLogTerminal
	.align 2
	.globl Sys_CloseLogTerminal
	.type	Sys_CloseLogTerminal, @function
Sys_CloseLogTerminal:
.LFB101:
	.loc 1 508 0
	.cfi_startproc
	mflr 0
	.loc 1 509 0
	lis 9,csock@ha
	.loc 1 508 0
	stwu 1,-8(1)
.LCFI55:
	.cfi_def_cfa_offset 8
	.cfi_register 65, 0
	.loc 1 509 0
	lwz 3,csock@l(9)
	.loc 1 508 0
	stw 0,12(1)
	.loc 1 509 0
	.cfi_offset 65, 4
	bl net_close
	.loc 1 510 0
	lis 9,sock@ha
	lwz 3,sock@l(9)
	bl net_close
	.loc 1 511 0
	lwz 0,12(1)
	addi 1,1,8
.LCFI56:
	.cfi_def_cfa_offset 0
	mtlr 0
	blr
	.cfi_endproc
.LFE101:
	.size	Sys_CloseLogTerminal, .-Sys_CloseLogTerminal
	.align 2
	.globl Sys_WriteSocket
	.type	Sys_WriteSocket, @function
Sys_WriteSocket:
.LFB102:
	.loc 1 514 0
	.cfi_startproc
.LVL174:
	mflr 0
	stwu 1,-16(1)
.LCFI57:
	.cfi_def_cfa_offset 16
	.cfi_register 65, 0
	stw 30,8(1)
	mr 30,3
	.cfi_offset 30, -8
	stw 0,20(1)
	stw 31,12(1)
	.loc 1 515 0
	.cfi_offset 31, -4
	.cfi_offset 65, 4
	bl strlen
.LVL175:
	lis 31,csock@ha
	mr 5,3
	lwz 3,csock@l(31)
	mr 4,30
	li 6,0
	bl net_send
	.loc 1 516 0
	lwz 3,csock@l(31)
	lis 4,.LC22@ha
	li 5,1
	la 4,.LC22@l(4)
	li 6,0
	bl net_send
	.loc 1 517 0
	lwz 0,20(1)
	lwz 30,8(1)
.LVL176:
	mtlr 0
	lwz 31,12(1)
	addi 1,1,16
.LCFI58:
	.cfi_def_cfa_offset 0
	.cfi_restore 31
	.cfi_restore 30
	blr
	.cfi_endproc
.LFE102:
	.size	Sys_WriteSocket, .-Sys_WriteSocket
	.align 2
	.globl align32
	.type	align32, @function
align32:
.LFB103:
	.loc 1 527 0
	.cfi_startproc
.LVL177:
	.loc 1 528 0
	addi 3,3,31
.LVL178:
	.loc 1 529 0
	rlwinm 3,3,0,0,26
.LVL179:
	blr
	.cfi_endproc
.LFE103:
	.size	align32, .-align32
	.align 2
	.globl testRead
	.type	testRead, @function
testRead:
.LFB104:
	.loc 1 531 0
	.cfi_startproc
.LVL180:
	mflr 0
	stwu 1,-40(1)
.LCFI59:
	.cfi_def_cfa_offset 40
	.cfi_register 65, 0
	.loc 1 549 0
	lis 3,.LC23@ha
.LVL181:
	lis 4,.LC0@ha
	la 3,.LC23@l(3)
	la 4,.LC0@l(4)
	.loc 1 531 0
	stw 0,44(1)
	stw 31,36(1)
	stw 30,32(1)
	.loc 1 549 0
	.cfi_offset 30, -8
	.cfi_offset 31, -4
	.cfi_offset 65, 4
	bl fopen
.LVL182:
	.loc 1 554 0
	mr. 31,3
	li 0,101
	stw 0,24(1)
	beq- 0,.L98
	.loc 1 556 0 discriminator 1
	lis 30,.LC25@ha
	la 30,.LC25@l(30)
	b .L97
.LVL183:
.L99:
	.loc 1 555 0 discriminator 2
	lwz 0,24(1)
	addic. 9,0,-1
	stw 9,24(1)
	beq- 0,.L94
	.loc 1 556 0
	lwz 6,8(1)
	mr 3,30
.LVL184:
	rlwinm 5,6,0,0xff
	crxor 6,6,6
	bl printf
.LVL185:
.L97:
	.loc 1 555 0 discriminator 1
	li 4,1
	addi 3,1,8
	li 5,1
	mr 6,31
	bl fread
.LVL186:
	mr. 4,3
	bge+ 0,.L99
.L94:
	.loc 1 559 0
	mr 3,31
.LVL187:
	bl fclose
.LVL188:
	.loc 1 560 0
	lis 3,.LC26@ha
	la 3,.LC26@l(3)
	crxor 6,6,6
	bl Sys_Printf
	.loc 1 561 0
	lis 3,.LC27@ha
	la 3,.LC27@l(3)
	bl puts
	.loc 1 562 0
	bl Sys_WaitPress
	.loc 1 563 0
	lwz 0,44(1)
	lwz 30,32(1)
	mtlr 0
	lwz 31,36(1)
.LVL189:
	addi 1,1,40
	.cfi_remember_state
.LCFI60:
	.cfi_def_cfa_offset 0
	.cfi_restore 31
	.cfi_restore 30
	blr
.LVL190:
.L98:
.LCFI61:
	.cfi_restore_state
	.loc 1 554 0 discriminator 1
	lis 3,.LC24@ha
.LVL191:
	la 3,.LC24@l(3)
	crxor 6,6,6
	bl Sys_Error
	.cfi_endproc
.LFE104:
	.size	testRead, .-testRead
	.globl __eabi
	.section	.text.startup,"ax",@progbits
	.align 2
	.globl main
	.type	main, @function
main:
.LFB106:
	.loc 1 642 0
	.cfi_startproc
.LVL192:
	mflr 0
	stwu 1,-40(1)
.LCFI62:
	.cfi_def_cfa_offset 40
	.cfi_register 65, 0
	stw 29,28(1)
	mr 29,4
	.cfi_offset 29, -12
	stw 0,44(1)
	stw 30,32(1)
	mr 30,3
	.cfi_offset 30, -8
	.cfi_offset 65, 4
	stw 31,36(1)
	.loc 1 642 0
	.cfi_offset 31, -4
	bl __eabi
.LVL193:
	.loc 1 645 0
	bl VID_Setup
	.loc 1 646 0
	lis 3,0x10
	bl malloc
	lis 9,.LANCHOR0@ha
	la 31,.LANCHOR0@l(9)
	.loc 1 658 0
	stw 30,.LANCHOR0@l(9)
	.loc 1 646 0
	stw 3,36(31)
	.loc 1 659 0
	stw 29,4(31)
	.loc 1 662 0
	bl VIDEO_WaitVSync
	.loc 1 663 0
	bl PAD_Init
	.loc 1 664 0
	bl WPAD_Init
	.loc 1 665 0
	bl VIDEO_WaitVSync
	.loc 1 668 0
	bl fatInitDefault
	cmpwi 7,3,0
	beq- 7,.L102
	.loc 1 673 0
	lwz 6,36(31)
	lis 4,quakeMain@ha
	la 4,quakeMain@l(4)
	li 5,0
	lis 7,0x10
	li 8,64
	addi 3,31,40
	bl LWP_CreateThread
	.loc 1 677 0
	lwz 3,40(31)
	addi 4,1,8
	bl LWP_JoinThread
	.loc 1 680 0
	lwz 0,44(1)
	lwz 29,28(1)
.LVL194:
	li 3,0
	mtlr 0
	lwz 30,32(1)
.LVL195:
	lwz 31,36(1)
	addi 1,1,40
	.cfi_remember_state
.LCFI63:
	.cfi_def_cfa_offset 0
	.cfi_restore 31
	.cfi_restore 30
	.cfi_restore 29
	blr
.LVL196:
.L102:
.LCFI64:
	.cfi_restore_state
	.loc 1 669 0
	lis 3,.LC28@ha
	la 3,.LC28@l(3)
	crxor 6,6,6
	bl Sys_Error
	.cfi_endproc
.LFE106:
	.size	main, .-main
	.comm	server,16,4
	.comm	client,16,4
	.comm	csock,4,4
	.comm	sock,4,4
	.comm	sys_handles,40,4
	.globl isDedicated
	.comm	causticschain,4,4
	.section	.rodata.cst4,"aM",@progbits,4
	.align 2
.LC19:
	.4byte	1036831949
	.section	.rodata.cst8,"aM",@progbits,8
	.align 3
.LC12:
	.4byte	1045540029
	.4byte	1020022141
	.section	.rodata.str1.4,"aMS",@progbits,1
	.align 2
.LC0:
	.string	"rb"
	.zero	1
.LC1:
	.string	"Press button %d %d \n"
	.zero	3
.LC2:
	.string	"Sys_Error: %s\n"
	.zero	1
.LC3:
	.string	"out of handles"
	.zero	1
.LC4:
	.string	"wb"
	.zero	1
.LC5:
	.string	"Error opening %s: %s"
	.zero	3
.LC6:
	.string	"1) FindFirst %s %s\n"
.LC7:
	.string	"fnmatch %s (%s)result %d %p\n"
	.zero	3
.LC8:
	.string	"Sys_Glob_select : fnmatch call (%d)\n"
	.zero	3
.LC9:
	.string	"return dirdata\n"
.LC10:
	.string	"entry: %s\n"
	.zero	1
.LC11:
	.string	"No entries in system"
	.zero	3
.LC13:
	.string	">>>>> arena 1 memory: lo %d hi %d size %d\n"
	.zero	1
.LC14:
	.string	"heap + real_heap_size > (u32)SYS_GetArena2Hi()"
	.zero	1
.LC15:
	.string	"/apps/TenebraeGX"
	.zero	3
.LC16:
	.string	"main membase %p, size %d\n"
	.zero	2
.LC17:
	.string	"main loop\n"
	.zero	1
.LC20:
	.string	"time: %f\n"
	.zero	2
.LC21:
	.string	"%02d:%02d:%02d"
	.zero	1
.LC22:
	.string	"\r"
	.zero	2
.LC23:
	.string	"/apps/TenebraeGX/id1/PAK1.PAK"
	.zero	2
.LC24:
	.string	"Error!"
	.zero	1
.LC25:
	.string	"%5d %02X -%c -"
	.zero	1
.LC26:
	.string	"END testRead()\n"
.LC27:
	.string	"no fail"
.LC28:
	.string	"fatInitDefault failure\n"
	.section	.sbss,"aw",@nobits
	.type	isDedicated, @object
	.size	isDedicated, 1
isDedicated:
	.zero	1
	.section	".bss"
	.align 2
	.set	.LANCHOR0,. + 0
	.type	local_argc, @object
	.size	local_argc, 4
local_argc:
	.zero	4
	.type	local_argv, @object
	.size	local_argv, 4
local_argv:
	.zero	4
	.type	parms, @object
	.size	parms, 24
parms:
	.zero	24
	.type	t_.19199, @object
	.size	t_.19199, 4
t_.19199:
	.zero	4
	.type	stack, @object
	.size	stack, 4
stack:
	.zero	4
	.type	thread, @object
	.size	thread, 4
thread:
	.zero	4
	.section	".text"
.Letext0:
	.file 2 "c:\\utils\\devkitpro\\devkitppc\\bin\\../lib/gcc/powerpc-eabi/4.6.3/../../../../powerpc-eabi/include/stdint.h"
	.file 3 "c:/utils/devkitPro/libogc/include/gctypes.h"
	.file 4 "c:/utils/devkitPro/libogc/include/ogc/lwp.h"
	.file 5 "c:/utils/devkitPro/libogc/include/ogc/gx.h"
	.file 6 "c:\\utils\\devkitpro\\devkitppc\\bin\\../lib/gcc/powerpc-eabi/4.6.3/../../../../powerpc-eabi/include/machine/_types.h"
	.file 7 "c:\\utils\\devkitpro\\devkitppc\\bin\\../lib/gcc/powerpc-eabi/4.6.3/../../../../powerpc-eabi/include/sys/lock.h"
	.file 8 "c:\\utils\\devkitpro\\devkitppc\\bin\\../lib/gcc/powerpc-eabi/4.6.3/../../../../powerpc-eabi/include/sys/_types.h"
	.file 9 "c:\\utils\\devkitpro\\devkitppc\\bin\\../lib/gcc/powerpc-eabi/4.6.3/include/stddef.h"
	.file 10 "c:\\utils\\devkitpro\\devkitppc\\bin\\../lib/gcc/powerpc-eabi/4.6.3/../../../../powerpc-eabi/include/sys/reent.h"
	.file 11 "c:\\utils\\devkitpro\\devkitppc\\bin\\../lib/gcc/powerpc-eabi/4.6.3/../../../../powerpc-eabi/include/sys/types.h"
	.file 12 "c:\\utils\\devkitpro\\devkitppc\\bin\\../lib/gcc/powerpc-eabi/4.6.3/../../../../powerpc-eabi/include/time.h"
	.file 13 "c:/utils/devkitPro/libogc/include/network.h"
	.file 14 "c:\\utils\\devkitpro\\devkitppc\\bin\\../lib/gcc/powerpc-eabi/4.6.3/include/stdarg.h"
	.file 15 "<built-in>"
	.file 16 "c:\\utils\\devkitpro\\devkitppc\\bin\\../lib/gcc/powerpc-eabi/4.6.3/../../../../powerpc-eabi/include/stdio.h"
	.file 17 "c:\\utils\\devkitpro\\devkitppc\\bin\\../lib/gcc/powerpc-eabi/4.6.3/../../../../powerpc-eabi/include/sys/stat.h"
	.file 18 "c:\\utils\\devkitpro\\devkitppc\\bin\\../lib/gcc/powerpc-eabi/4.6.3/../../../../powerpc-eabi/include/sys/iosupport.h"
	.file 19 "c:\\utils\\devkitpro\\devkitppc\\bin\\../lib/gcc/powerpc-eabi/4.6.3/../../../../powerpc-eabi/include/sys/dirent.h"
	.file 20 "d:/Data/Nintendo/TenebraeGX/src/common.h"
	.file 21 "d:/Data/Nintendo/TenebraeGX/src/sys.h"
	.file 22 "d:/Data/Nintendo/TenebraeGX/src/mathlib.h"
	.file 23 "d:/Data/Nintendo/TenebraeGX/src/gl_model.h"
	.file 24 "d:/Data/Nintendo/TenebraeGX/src/quakedef.h"
	.file 25 "d:/Data/Nintendo/TenebraeGX/src/glquake.h"