	.file	"tess.c"
	.section	".text"
.Ltext0:
	.cfi_sections	.debug_frame
	.align 2
	.type	noBegin, @function
noBegin:
.LFB0:
	.file 1 "d:/Data/Nintendo/TenebraeGX/gl2gx/source/libtess/tess.c"
	.loc 1 60 0
	.cfi_startproc
.LVL0:
	.loc 1 60 0
	blr
	.cfi_endproc
.LFE0:
	.size	noBegin, .-noBegin
	.align 2
	.type	noEdgeFlag, @function
noEdgeFlag:
.LFB1:
	.loc 1 61 0
	.cfi_startproc
.LVL1:
	.loc 1 61 0
	blr
	.cfi_endproc
.LFE1:
	.size	noEdgeFlag, .-noEdgeFlag
	.align 2
	.type	noVertex, @function
noVertex:
.LFB2:
	.loc 1 62 0
	.cfi_startproc
.LVL2:
	.loc 1 62 0
	blr
	.cfi_endproc
.LFE2:
	.size	noVertex, .-noVertex
	.align 2
	.type	noEnd, @function
noEnd:
.LFB3:
	.loc 1 63 0
	.cfi_startproc
	.loc 1 63 0
	blr
	.cfi_endproc
.LFE3:
	.size	noEnd, .-noEnd
	.align 2
	.type	noError, @function
noError:
.LFB4:
	.loc 1 64 0
	.cfi_startproc
.LVL3:
	.loc 1 64 0
	blr
	.cfi_endproc
.LFE4:
	.size	noError, .-noError
	.align 2
	.type	noCombine, @function
noCombine:
.LFB5:
	.loc 1 66 0
	.cfi_startproc
.LVL4:
	.loc 1 66 0
	blr
	.cfi_endproc
.LFE5:
	.size	noCombine, .-noCombine
	.align 2
	.type	noMesh, @function
noMesh:
.LFB6:
	.loc 1 67 0
	.cfi_startproc
.LVL5:
	.loc 1 67 0
	blr
	.cfi_endproc
.LFE6:
	.size	noMesh, .-noMesh
	.align 2
	.globl __gl_noBeginData
	.type	__gl_noBeginData, @function
__gl_noBeginData:
.LFB7:
	.loc 1 71 0
	.cfi_startproc
.LVL6:
	.loc 1 71 0
	blr
	.cfi_endproc
.LFE7:
	.size	__gl_noBeginData, .-__gl_noBeginData
	.align 2
	.globl __gl_noEdgeFlagData
	.type	__gl_noEdgeFlagData, @function
__gl_noEdgeFlagData:
.LFB8:
	.loc 1 73 0
	.cfi_startproc
.LVL7:
	.loc 1 73 0
	blr
	.cfi_endproc
.LFE8:
	.size	__gl_noEdgeFlagData, .-__gl_noEdgeFlagData
	.align 2
	.globl __gl_noVertexData
	.type	__gl_noVertexData, @function
__gl_noVertexData:
.LFB9:
	.loc 1 75 0
	.cfi_startproc
.LVL8:
	.loc 1 75 0
	blr
	.cfi_endproc
.LFE9:
	.size	__gl_noVertexData, .-__gl_noVertexData
	.align 2
	.globl __gl_noEndData
	.type	__gl_noEndData, @function
__gl_noEndData:
.LFB10:
	.loc 1 76 0
	.cfi_startproc
.LVL9:
	.loc 1 76 0
	blr
	.cfi_endproc
.LFE10:
	.size	__gl_noEndData, .-__gl_noEndData
	.align 2
	.globl __gl_noErrorData
	.type	__gl_noErrorData, @function
__gl_noErrorData:
.LFB11:
	.loc 1 78 0
	.cfi_startproc
.LVL10:
	.loc 1 78 0
	blr
	.cfi_endproc
.LFE11:
	.size	__gl_noErrorData, .-__gl_noErrorData
	.align 2
	.globl __gl_noCombineData
	.type	__gl_noCombineData, @function
__gl_noCombineData:
.LFB12:
	.loc 1 83 0
	.cfi_startproc
.LVL11:
	.loc 1 83 0
	blr
	.cfi_endproc
.LFE12:
	.size	__gl_noCombineData, .-__gl_noCombineData
	.align 2
	.type	AddVertex.isra.0, @function
AddVertex.isra.0:
.LFB32:
	.loc 1 343 0
	.cfi_startproc
.LVL12:
	mflr 0
	stwu 1,-32(1)
.LCFI0:
	.cfi_def_cfa_offset 32
	.cfi_register 65, 0
	stw 31,28(1)
	stw 0,36(1)
	stw 27,12(1)
	mr 27,6
	.cfi_offset 27, -20
	.cfi_offset 65, 4
	.cfi_offset 31, -4
	.loc 1 347 0
	lwz 31,0(3)
.LVL13:
	.loc 1 343 0
	stw 29,20(1)
	mr 29,5
	.cfi_offset 29, -12
	.loc 1 348 0
	cmpwi 7,31,0
	.loc 1 343 0
	stw 30,24(1)
	stw 28,16(1)
	.loc 1 343 0
	mr 30,3
	.cfi_offset 28, -16
	.cfi_offset 30, -8
	.loc 1 348 0
	beq- 7,.L22
	.loc 1 358 0
	mr 3,31
.LVL14:
	li 28,0
	bl __gl_meshSplitEdge
.LVL15:
	cmpwi 7,3,0
	beq- 7,.L16
	.loc 1 359 0
	lwz 31,12(31)
.LVL16:
.L17:
	.loc 1 364 0
	lfd 0,0(29)
	.loc 1 373 0
	li 0,1
	.loc 1 363 0
	lwz 9,16(31)
	.loc 1 378 0
	li 28,1
	.loc 1 374 0
	lwz 11,4(31)
	.loc 1 364 0
	stfd 0,16(9)
	.loc 1 365 0
	lfd 0,8(29)
	.loc 1 363 0
	stw 27,12(9)
	.loc 1 365 0
	stfd 0,24(9)
	.loc 1 366 0
	lfd 0,16(29)
	stfd 0,32(9)
	.loc 1 373 0
	stw 0,28(31)
	.loc 1 374 0
	li 0,-1
	stw 0,28(11)
	.loc 1 376 0
	stw 31,0(30)
.L16:
	.loc 1 379 0
	lwz 0,36(1)
	mr 3,28
	lwz 27,12(1)
.LVL17:
	mtlr 0
	lwz 28,16(1)
	lwz 29,20(1)
.LVL18:
	lwz 30,24(1)
	lwz 31,28(1)
.LVL19:
	addi 1,1,32
	.cfi_remember_state
.LCFI1:
	.cfi_def_cfa_offset 0
	.cfi_restore 31
	.cfi_restore 30
	.cfi_restore 29
	.cfi_restore 28
	.cfi_restore 27
	blr
.LVL20:
.L22:
.LCFI2:
	.cfi_restore_state
	.loc 1 351 0
	lwz 3,0(4)
	.loc 1 352 0
	li 28,0
	.loc 1 351 0
	bl __gl_meshMakeEdge
.LVL21:
	.loc 1 352 0
	mr. 31,3
	beq- 0,.L16
	.loc 1 353 0
	lwz 4,4(31)
	bl __gl_meshSplice
.LVL22:
	cmpwi 7,3,0
	bne+ 7,.L17
	b .L16
	.cfi_endproc
.LFE32:
	.size	AddVertex.isra.0, .-AddVertex.isra.0
	.align 2
	.type	EmptyCache, @function
EmptyCache:
.LFB23:
	.loc 1 395 0
	.cfi_startproc
.LVL23:
	mflr 0
	stwu 1,-32(1)
.LCFI3:
	.cfi_def_cfa_offset 32
	.cfi_register 65, 0
	stw 27,12(1)
	mr 27,3
	.cfi_offset 27, -20
.LVL24:
	stw 0,36(1)
	stw 28,16(1)
	stw 29,20(1)
	stw 30,24(1)
	stw 31,28(1)
	.loc 1 399 0
	.cfi_offset 31, -4
	.cfi_offset 30, -8
	.cfi_offset 29, -12
	.cfi_offset 28, -16
	.cfi_offset 65, 4
	bl __gl_meshNewMesh
.LVL25:
	.loc 1 400 0
	cmpwi 7,3,0
	.loc 1 399 0
	stw 3,8(27)
	.loc 1 400 0
	li 3,0
	beq- 7,.L24
	.loc 1 402 0
	lwz 30,152(27)
	.loc 1 396 0
	addi 31,27,160
	.loc 1 402 0
	addi 30,30,5
	slwi 30,30,5
	add 30,27,30
.LVL26:
	cmplw 7,31,30
	bge- 7,.L25
	addi 28,27,4
	addi 29,27,8
	b .L26
.LVL27:
.L30:
	ble- 6,.L25
.LVL28:
.L26:
	.loc 1 403 0
	lwz 6,24(31)
	mr 5,31
	mr 3,28
	mr 4,29
	bl AddVertex.isra.0
	.loc 1 402 0
	addi 31,31,32
	.loc 1 403 0
	cmpwi 7,3,0
	.loc 1 402 0
	cmplw 6,30,31
	.loc 1 403 0
	bne+ 7,.L30
	li 3,0
.LVL29:
.L24:
	.loc 1 409 0
	lwz 0,36(1)
	lwz 27,12(1)
.LVL30:
	mtlr 0
	lwz 28,16(1)
	lwz 29,20(1)
	lwz 30,24(1)
	lwz 31,28(1)
	addi 1,1,32
	.cfi_remember_state
.LCFI4:
	.cfi_def_cfa_offset 0
	.cfi_restore 31
	.cfi_restore 30
	.cfi_restore 29
	.cfi_restore 28
	.cfi_restore 27
	blr
.LVL31:
.L25:
.LCFI5:
	.cfi_restore_state
	.loc 1 405 0
	li 0,0
	.loc 1 408 0
	li 3,1
	.loc 1 406 0
	stb 0,148(27)
	.loc 1 405 0
	stw 0,152(27)
	.loc 1 409 0
	lwz 0,36(1)
	lwz 27,12(1)
.LVL32:
	mtlr 0
	lwz 28,16(1)
	lwz 29,20(1)
	lwz 30,24(1)
.LVL33:
	lwz 31,28(1)
	addi 1,1,32
	.cfi_restore 27
	.cfi_restore 28
	.cfi_restore 29
	.cfi_restore 30
	.cfi_restore 31
.LCFI6:
	.cfi_def_cfa_offset 0
	blr
	.cfi_endproc
.LFE23:
	.size	EmptyCache, .-EmptyCache
	.align 2
	.globl gluNewTess
	.type	gluNewTess, @function
gluNewTess:
.LFB13:
	.loc 1 95 0
	.cfi_startproc
	mflr 0
	stwu 1,-8(1)
.LCFI7:
	.cfi_def_cfa_offset 8
	.cfi_register 65, 0
	.loc 1 102 0
	li 3,64
	.loc 1 95 0
	stw 0,12(1)
	.loc 1 102 0
	.cfi_offset 65, 4
	bl __gl_memInit
	cmpwi 7,3,0
	.loc 1 103 0
	li 3,0
	.loc 1 102 0
	beq- 7,.L32
	.loc 1 105 0
	li 3,3648
	bl malloc
.LVL34:
	.loc 1 106 0
	cmpwi 0,3,0
	beq- 0,.L32
	.loc 1 112 0
	lis 9,.LC0@ha
	.loc 1 110 0
	li 0,0
	.loc 1 112 0
	lfd 0,.LC0@l(9)
	.loc 1 117 0
	lis 9,0x1
	ori 9,9,34594
	.loc 1 110 0
	stw 0,0(3)
	.loc 1 117 0
	stw 9,96(3)
	.loc 1 121 0
	lis 9,noBegin@ha
	la 9,noBegin@l(9)
	.loc 1 112 0
	stfd 0,16(3)
	.loc 1 121 0
	stw 9,128(3)
	.loc 1 122 0
	lis 9,noEdgeFlag@ha
	la 9,noEdgeFlag@l(9)
	.loc 1 113 0
	stfd 0,24(3)
	.loc 1 122 0
	stw 9,132(3)
	.loc 1 123 0
	lis 9,noVertex@ha
	la 9,noVertex@l(9)
	.loc 1 114 0
	stfd 0,32(3)
	.loc 1 123 0
	stw 9,136(3)
	.loc 1 124 0
	lis 9,noEnd@ha
	la 9,noEnd@l(9)
	.loc 1 116 0
	stfd 0,88(3)
	.loc 1 124 0
	stw 9,140(3)
	.loc 1 126 0
	lis 9,noError@ha
	la 9,noError@l(9)
	.loc 1 118 0
	stb 0,120(3)
	.loc 1 126 0
	stw 9,12(3)
	.loc 1 127 0
	lis 9,noCombine@ha
	la 9,noCombine@l(9)
	.loc 1 119 0
	stb 0,121(3)
	.loc 1 127 0
	stw 9,116(3)
	.loc 1 128 0
	lis 9,noMesh@ha
	la 9,noMesh@l(9)
	.loc 1 137 0
	stw 0,3640(3)
	.loc 1 128 0
	stw 9,144(3)
	.loc 1 130 0
	lis 9,__gl_noBeginData@ha
	la 9,__gl_noBeginData@l(9)
	stw 9,3360(3)
	.loc 1 131 0
	lis 9,__gl_noEdgeFlagData@ha
	la 9,__gl_noEdgeFlagData@l(9)
	stw 9,3364(3)
	.loc 1 132 0
	lis 9,__gl_noVertexData@ha
	la 9,__gl_noVertexData@l(9)
	stw 9,3368(3)
	.loc 1 133 0
	lis 9,__gl_noEndData@ha
	la 9,__gl_noEndData@l(9)
	stw 9,3372(3)
	.loc 1 134 0
	lis 9,__gl_noErrorData@ha
	la 9,__gl_noErrorData@l(9)
	stw 9,3376(3)
	.loc 1 135 0
	lis 9,__gl_noCombineData@ha
	la 9,__gl_noCombineData@l(9)
	stw 9,3380(3)
.LVL35:
.L32:
	.loc 1 140 0
	lwz 0,12(1)
	addi 1,1,8
.LCFI8:
	.cfi_def_cfa_offset 0
	mtlr 0
	blr
	.cfi_endproc
.LFE13:
	.size	gluNewTess, .-gluNewTess
	.align 2
	.globl gluTessProperty
	.type	gluTessProperty, @function
gluTessProperty:
.LFB17:
	.loc 1 200 0
	.cfi_startproc
.LVL36:
	mflr 0
	stwu 1,-24(1)
.LCFI9:
	.cfi_def_cfa_offset 24
	.cfi_register 65, 0
	mr 9,3
	stw 0,28(1)
	.loc 1 203 0
	lis 0,0x1
	.cfi_offset 65, 4
	ori 0,0,34605
	cmpw 7,4,0
	beq- 7,.L37
	xoris 0,4,0xfffe
	cmpwi 7,0,-30930
	beq 7,.L38
	xoris 0,4,0xfffe
	cmpwi 7,0,-30932
	beq 7,.L47
	.loc 1 230 0
	lwz 0,3376(3)
	lis 11,__gl_noErrorData@ha
	la 11,__gl_noErrorData@l(11)
	cmpw 7,0,11
	beq- 7,.L44
	.loc 1 230 0 is_stmt 0 discriminator 1
	lis 3,0x1
.LVL37:
	lwz 4,3640(9)
.LVL38:
	ori 3,3,35364
	mtctr 0
	bctrl
.LVL39:
.L34:
	.loc 1 234 0 is_stmt 1
	lwz 0,28(1)
	addi 1,1,24
	.cfi_remember_state
.LCFI10:
	.cfi_def_cfa_offset 0
	mtlr 0
	blr
.LVL40:
.L47:
.LCFI11:
	.cfi_restore_state
	.loc 1 210 0
	lis 11,.LC4@ha
	lfs 0,.LC4@l(11)
	fcmpu 7,1,0
	cror 30,29,30
	beq- 7,.L41
	fctiwz 0,1
	addi 11,1,20
	stfiwx 0,0,11
	lwz 11,20(1)
.L42:
.LVL41:
	.loc 1 211 0
	lis 0,0x4330
	stw 11,12(1)
	stw 0,8(1)
	lis 10,.LC6@ha
	lfs 0,.LC6@l(10)
	lfd 13,8(1)
	fsub 0,13,0
	fcmpu 7,0,1
	bne- 7,.L39
	.loc 1 213 0
	addis 10,11,0xfffe
	addi 0,10,30942
	cmplwi 7,0,4
	bgt- 7,.L37
	.loc 1 219 0
	stw 11,96(9)
	.loc 1 220 0
	b .L34
.LVL42:
.L37:
	.loc 1 226 0
	lis 11,.LC0@ha
	lfd 0,.LC0@l(11)
	fcmpu 7,1,0
	crnot 30,30
	mfcr 0
	rlwinm 0,0,31,1
	stb 0,121(9)
	.loc 1 234 0
	lwz 0,28(1)
	addi 1,1,24
	.cfi_remember_state
.LCFI12:
	.cfi_def_cfa_offset 0
	mtlr 0
	blr
.L38:
.LCFI13:
	.cfi_restore_state
	.loc 1 205 0
	lis 11,.LC0@ha
	lfd 0,.LC0@l(11)
	fcmpu 7,1,0
	bnl- 7,.L48
.L39:
	.loc 1 233 0
	lwz 0,3376(9)
	lis 11,__gl_noErrorData@ha
	la 11,__gl_noErrorData@l(11)
	cmpw 7,0,11
	beq- 7,.L45
	.loc 1 233 0 is_stmt 0 discriminator 1
	lis 3,0x1
.LVL43:
	mtctr 0
	ori 3,3,35365
	lwz 4,3640(9)
.LVL44:
	bctrl
.LVL45:
	.loc 1 234 0 is_stmt 1 discriminator 1
	lwz 0,28(1)
	addi 1,1,24
	.cfi_remember_state
.LCFI14:
	.cfi_def_cfa_offset 0
	mtlr 0
	blr
.LVL46:
.L48:
.LCFI15:
	.cfi_restore_state
	.loc 1 205 0 discriminator 1
	lis 11,.LC2@ha
	lfs 0,.LC2@l(11)
	fcmpu 7,1,0
	bgt+ 7,.L39
	.loc 1 206 0
	stfd 1,88(3)
	.loc 1 207 0
	b .L34
.L41:
	.loc 1 210 0
	fsub 0,1,0
	addi 11,1,16
	fctiwz 0,0
	stfiwx 0,0,11
	lwz 11,16(1)
	addis 11,11,0x8000
	b .L42
.L45:
	.loc 1 233 0 discriminator 2
	lwz 0,12(9)
	lis 3,0x1
.LVL47:
	ori 3,3,35365
	mtctr 0
	bctrl
.LVL48:
	b .L34
.LVL49:
.L44:
	.loc 1 230 0 discriminator 2
	lwz 0,12(3)
	lis 3,0x1
.LVL50:
	ori 3,3,35364
	mtctr 0
	bctrl
.LVL51:
	b .L34
	.cfi_endproc
.LFE17:
	.size	gluTessProperty, .-gluTessProperty
	.align 2
	.globl gluGetTessProperty
	.type	gluGetTessProperty, @function
gluGetTessProperty:
.LFB18:
	.loc 1 239 0
	.cfi_startproc
.LVL52:
	mflr 0
	stwu 1,-24(1)
.LCFI16:
	.cfi_def_cfa_offset 24
	.cfi_register 65, 0
	mr 9,3
	stw 0,28(1)
	.loc 1 240 0
	lis 0,0x1
	.cfi_offset 65, 4
	ori 0,0,34605
	cmpw 7,4,0
	beq- 7,.L52
	xoris 0,4,0xfffe
	cmpwi 7,0,-30930
	beq 7,.L53
	xoris 0,4,0xfffe
	cmpwi 7,0,-30932
	beq 7,.L62
	.loc 1 260 0
	lwz 0,3376(3)
	lis 11,__gl_noErrorData@ha
	la 11,__gl_noErrorData@l(11)
	cmpw 7,0,11
	.loc 1 259 0
	lis 11,.LC0@ha
	lfd 0,.LC0@l(11)
	stfd 0,0(5)
	.loc 1 260 0
	beq- 7,.L59
	.loc 1 260 0 is_stmt 0 discriminator 1
	lis 3,0x1
.LVL53:
	mtctr 0
	ori 3,3,35364
	lwz 4,3640(9)
.LVL54:
	bctrl
.LVL55:
	.loc 1 263 0 is_stmt 1 discriminator 1
	lwz 0,28(1)
	addi 1,1,24
	.cfi_remember_state
.LCFI17:
	.cfi_def_cfa_offset 0
	mtlr 0
	blr
.LVL56:
.L62:
.LCFI18:
	.cfi_restore_state
	.loc 1 247 0
	lwz 9,96(3)
	addis 11,9,0xfffe
	addi 0,11,30942
	cmplwi 7,0,4
	bgt- 7,.L63
	.loc 1 252 0
	lis 0,0x4330
	stw 9,12(1)
	stw 0,8(1)
	lis 9,.LC6@ha
	lfs 0,.LC6@l(9)
	lfd 13,8(1)
	fsub 0,13,0
	stfd 0,0(5)
.LVL57:
.L49:
	.loc 1 263 0
	lwz 0,28(1)
	addi 1,1,24
	.cfi_remember_state
.LCFI19:
	.cfi_def_cfa_offset 0
	mtlr 0
	blr
.LVL58:
.L53:
.LCFI20:
	.cfi_restore_state
	.loc 1 243 0
	lis 9,.LC0@ha
	lfd 0,88(3)
	lfd 13,.LC0@l(9)
	fcmpu 7,0,13
	cror 30,29,30
	bne- 7,.L54
	.loc 1 243 0 is_stmt 0 discriminator 2
	lis 9,.LC2@ha
	lfs 13,.LC2@l(9)
	fcmpu 7,0,13
	cror 30,28,30
	bne- 7,.L54
	.loc 1 256 0 is_stmt 1
	stfd 0,0(5)
.L65:
	.loc 1 263 0
	lwz 0,28(1)
	addi 1,1,24
	.cfi_remember_state
.LCFI21:
	.cfi_def_cfa_offset 0
	mtlr 0
	blr
.L52:
.LCFI22:
	.cfi_restore_state
	.loc 1 255 0
	lbz 0,121(3)
	cmplwi 7,0,1
	bgt- 7,.L64
	.loc 1 256 0
	stw 0,20(1)
	lis 0,0x4330
	stw 0,16(1)
	lis 9,.LC6@ha
	lfs 0,.LC6@l(9)
	lfd 13,16(1)
	fsub 0,13,0
	stfd 0,0(5)
	b .L65
.L59:
	.loc 1 260 0 discriminator 2
	lwz 0,12(3)
	lis 3,0x1
.LVL59:
	ori 3,3,35364
	mtctr 0
	bctrl
.LVL60:
	b .L49
.LVL61:
.L54:
	.loc 1 243 0 discriminator 1
	lis 3,.LC7@ha
.LVL62:
	lis 5,.LANCHOR0@ha
.LVL63:
	lis 6,.LC8@ha
	la 3,.LC7@l(3)
	li 4,243
.LVL64:
	la 5,.LANCHOR0@l(5)
	la 6,.LC8@l(6)
	bl __assert_func
.LVL65:
.L64:
	.loc 1 255 0 discriminator 1
	lis 3,.LC7@ha
.LVL66:
	lis 5,.LANCHOR0@ha
.LVL67:
	lis 6,.LC10@ha
	la 3,.LC7@l(3)
	li 4,255
.LVL68:
	la 5,.LANCHOR0@l(5)
	la 6,.LC10@l(6)
	bl __assert_func
.LVL69:
.L63:
	.loc 1 247 0 discriminator 1
	lis 3,.LC7@ha
.LVL70:
	lis 5,.LANCHOR0@ha
.LVL71:
	lis 6,.LC9@ha
	la 3,.LC7@l(3)
	li 4,251
.LVL72:
	la 5,.LANCHOR0@l(5)
	la 6,.LC9@l(6)
	bl __assert_func
	.cfi_endproc
.LFE18:
	.size	gluGetTessProperty, .-gluGetTessProperty
	.align 2
	.globl gluTessNormal
	.type	gluTessNormal, @function
gluTessNormal:
.LFB19:
	.loc 1 267 0
	.cfi_startproc
.LVL73:
	.loc 1 268 0
	stfd 1,16(3)
	.loc 1 271 0
	.loc 1 269 0
	stfd 2,24(3)
	.loc 1 270 0
	stfd 3,32(3)
	.loc 1 271 0
	blr
	.cfi_endproc
.LFE19:
	.size	gluTessNormal, .-gluTessNormal
	.align 2
	.globl gluTessCallback
	.type	gluTessCallback, @function
gluTessCallback:
.LFB20:
	.loc 1 275 0
	.cfi_startproc
.LVL74:
	.loc 1 276 0
	addis 4,4,0xfffe
.LVL75:
	.loc 1 275 0
	mflr 0
	.loc 1 276 0
	addi 4,4,30972
.LVL76:
	.loc 1 275 0
	stwu 1,-8(1)
.LCFI23:
	.cfi_def_cfa_offset 8
	.cfi_register 65, 0
	.loc 1 276 0
	cmplwi 7,4,12
	.loc 1 275 0
	mr 9,3
	stw 0,12(1)
	.loc 1 276 0
	ble- 7,.L111
	.cfi_offset 65, 4
	.loc 1 338 0
	lwz 0,3376(3)
	lis 11,__gl_noErrorData@ha
	la 11,__gl_noErrorData@l(11)
	cmpw 7,0,11
	beq- 7,.L97
	.loc 1 338 0 is_stmt 0 discriminator 1
	lis 3,0x1
.LVL77:
	lwz 4,3640(9)
.LVL78:
	ori 3,3,35364
	mtctr 0
	bctrl
.LVL79:
.L67:
	.loc 1 341 0 is_stmt 1
	lwz 0,12(1)
	addi 1,1,8
	.cfi_remember_state
.LCFI24:
	.cfi_def_cfa_offset 0
	mtlr 0
	blr
.LVL80:
.L111:
.LCFI25:
	.cfi_restore_state
	.loc 1 276 0
	lis 11,.L82@ha
	slwi 4,4,2
.LVL81:
	la 11,.L82@l(11)
	.loc 1 335 0
	cmpwi 7,5,0
	.loc 1 276 0
	lwzx 0,11,4
	add 11,0,11
	mtctr 11
	bctr
	.section	.rodata
	.align 2
	.align 2
.L82:
	.long .L69-.L82
	.long .L70-.L82
	.long .L71-.L82
	.long .L72-.L82
	.long .L73-.L82
	.long .L74-.L82
	.long .L75-.L82
	.long .L76-.L82
	.long .L77-.L82
	.long .L78-.L82
	.long .L79-.L82
	.long .L80-.L82
	.long .L81-.L82
	.section	".text"
.L81:
	.loc 1 335 0
	beq- 7,.L112
	.loc 1 335 0 is_stmt 0 discriminator 3
	stw 5,144(9)
	.loc 1 336 0 is_stmt 1 discriminator 3
	b .L67
.L69:
	.loc 1 278 0
	beq- 7,.L113
	.loc 1 278 0 is_stmt 0 discriminator 3
	stw 5,128(9)
	.loc 1 279 0 is_stmt 1 discriminator 3
	b .L67
.L70:
	.loc 1 301 0
	beq- 7,.L114
	.loc 1 301 0 is_stmt 0 discriminator 3
	stw 5,136(9)
	.loc 1 303 0 is_stmt 1 discriminator 3
	b .L67
.L71:
	.loc 1 309 0
	beq- 7,.L115
	.loc 1 309 0 is_stmt 0 discriminator 3
	stw 5,140(9)
	.loc 1 310 0 is_stmt 1 discriminator 3
	b .L67
.L72:
	.loc 1 316 0
	beq- 7,.L116
	.loc 1 316 0 is_stmt 0 discriminator 3
	stw 5,12(9)
	.loc 1 317 0 is_stmt 1 discriminator 3
	b .L67
.L73:
	.loc 1 285 0
	beq- 7,.L117
.LVL82:
.L86:
	.loc 1 290 0 discriminator 3
	mfcr 0
	rlwinm 0,0,31,1
	.loc 1 285 0 discriminator 3
	stw 5,132(9)
	.loc 1 290 0 discriminator 3
	xori 0,0,1
	stb 0,120(9)
	.loc 1 291 0 discriminator 3
	b .L67
.LVL83:
.L74:
	.loc 1 323 0
	beq- 7,.L118
	.loc 1 323 0 is_stmt 0 discriminator 3
	stw 5,116(9)
	.loc 1 325 0 is_stmt 1 discriminator 3
	b .L67
.L75:
	.loc 1 282 0
	beq- 7,.L119
	.loc 1 281 0
	stw 5,3360(9)
	.loc 1 283 0
	b .L67
.L76:
	.loc 1 306 0
	beq- 7,.L120
	.loc 1 305 0
	stw 5,3368(9)
	.loc 1 307 0
	b .L67
.L77:
	.loc 1 312 0
	beq- 7,.L121
	.loc 1 312 0 is_stmt 0 discriminator 3
	stw 5,3372(9)
	.loc 1 314 0 is_stmt 1 discriminator 3
	b .L67
.L78:
	.loc 1 320 0
	beq- 7,.L122
	.loc 1 319 0
	stw 5,3376(9)
	.loc 1 321 0
	b .L67
.L79:
	.loc 1 294 0
	beq- 7,.L123
.LVL84:
.L87:
	.loc 1 298 0
	mfcr 0
	rlwinm 0,0,31,1
	.loc 1 293 0
	stw 5,3364(9)
	.loc 1 298 0
	xori 0,0,1
	stb 0,120(9)
	.loc 1 299 0
	b .L67
.LVL85:
.L80:
	.loc 1 327 0
	beq- 7,.L124
	.loc 1 327 0 is_stmt 0 discriminator 3
	stw 5,3380(9)
	.loc 1 333 0 is_stmt 1 discriminator 3
	b .L67
.LVL86:
.L97:
	.loc 1 338 0 discriminator 2
	lwz 0,12(3)
	lis 3,0x1
.LVL87:
	ori 3,3,35364
	mtctr 0
	bctrl
.LVL88:
	b .L67
.LVL89:
.L124:
	.loc 1 327 0
	lis 5,__gl_noCombineData@ha
.LVL90:
	la 5,__gl_noCombineData@l(5)
	stw 5,3380(9)
	b .L67
.LVL91:
.L122:
	.loc 1 320 0
	lis 5,__gl_noErrorData@ha
.LVL92:
	la 5,__gl_noErrorData@l(5)
	.loc 1 319 0
	stw 5,3376(9)
	b .L67
.LVL93:
.L121:
	.loc 1 312 0
	lis 5,__gl_noEndData@ha
.LVL94:
	la 5,__gl_noEndData@l(5)
	stw 5,3372(9)
	b .L67
.LVL95:
.L120:
	.loc 1 306 0
	lis 5,__gl_noVertexData@ha
.LVL96:
	la 5,__gl_noVertexData@l(5)
	.loc 1 305 0
	stw 5,3368(9)
	b .L67
.LVL97:
.L119:
	.loc 1 282 0
	lis 5,__gl_noBeginData@ha
.LVL98:
	la 5,__gl_noBeginData@l(5)
	.loc 1 281 0
	stw 5,3360(9)
	b .L67
.LVL99:
.L118:
	.loc 1 323 0
	lis 5,noCombine@ha
.LVL100:
	la 5,noCombine@l(5)
	stw 5,116(9)
	b .L67
.LVL101:
.L116:
	.loc 1 316 0
	lis 5,noError@ha
.LVL102:
	la 5,noError@l(5)
	stw 5,12(9)
	b .L67
.LVL103:
.L115:
	.loc 1 309 0
	lis 5,noEnd@ha
.LVL104:
	la 5,noEnd@l(5)
	stw 5,140(9)
	b .L67
.LVL105:
.L114:
	.loc 1 301 0
	lis 5,noVertex@ha
.LVL106:
	la 5,noVertex@l(5)
	stw 5,136(9)
	b .L67
.LVL107:
.L113:
	.loc 1 278 0
	lis 5,noBegin@ha
.LVL108:
	la 5,noBegin@l(5)
	stw 5,128(9)
	b .L67
.LVL109:
.L112:
	.loc 1 335 0
	lis 5,noMesh@ha
.LVL110:
	la 5,noMesh@l(5)
	stw 5,144(9)
	b .L67
.LVL111:
.L123:
	.loc 1 294 0
	lis 5,__gl_noEdgeFlagData@ha
.LVL112:
	la 5,__gl_noEdgeFlagData@l(5)
	b .L87
.LVL113:
.L117:
	.loc 1 285 0
	lis 5,noEdgeFlag@ha
.LVL114:
	la 5,noEdgeFlag@l(5)
	b .L86
	.cfi_endproc
.LFE20:
	.size	gluTessCallback, .-gluTessCallback
	.align 2
	.globl gluTessEndContour
	.type	gluTessEndContour, @function
gluTessEndContour:
.LFB27:
	.loc 1 492 0
	.cfi_startproc
.LVL115:
	mflr 0
	stwu 1,-16(1)
.LCFI26:
	.cfi_def_cfa_offset 16
	.cfi_register 65, 0
	stw 31,12(1)
	mr 31,3
	.cfi_offset 31, -4
	stw 0,20(1)
	.loc 1 493 0
	lwz 0,0(3)
	.cfi_offset 65, 4
	cmpwi 7,0,2
	beq- 7,.L126
	.loc 1 493 0 is_stmt 0 discriminator 1
	li 4,2
	bl GotoState
.LVL116:
.L126:
	.loc 1 494 0 is_stmt 1
	li 0,1
	stw 0,0(31)
	.loc 1 495 0
	lwz 0,20(1)
	lwz 31,12(1)
.LVL117:
	mtlr 0
	addi 1,1,16
.LCFI27:
	.cfi_def_cfa_offset 0
	.cfi_restore 31
	blr
	.cfi_endproc
.LFE27:
	.size	gluTessEndContour, .-gluTessEndContour
	.align 2
	.type	GotoState, @function
GotoState:
.LFB15:
	.loc 1 157 0
	.cfi_startproc
.LVL118:
	mflr 0
	stwu 1,-32(1)
.LCFI28:
	.cfi_def_cfa_offset 32
	.cfi_register 65, 0
	mfcr 12
	cmpwi 4,4,0
	stw 29,20(1)
	.loc 1 180 0
	lis 29,__gl_noErrorData@ha
	.cfi_offset 29, -12
	.cfi_register 70, 12
	.loc 1 157 0
	stw 0,36(1)
	.loc 1 180 0
	la 29,__gl_noErrorData@l(29)
	.loc 1 157 0
	stw 12,12(1)
.LBB6:
.LBB7:
	.loc 1 151 0
	lwz 0,0(3)
	.cfi_offset 70, -20
	.cfi_offset 65, 4
.LBE7:
.LBE6:
	.loc 1 157 0
	stw 28,16(1)
.LBB10:
.LBB8:
	.loc 1 149 0
	li 28,0
	.cfi_offset 28, -16
	cmpw 6,4,0
.LBE8:
.LBE10:
	.loc 1 157 0
	stw 30,24(1)
	stw 31,28(1)
	.loc 1 157 0
	mr 30,4
	.cfi_offset 31, -4
	.cfi_offset 30, -8
	mr 31,3
.LVL119:
.L145:
	.loc 1 158 0 discriminator 1
	beq- 6,.L146
.L144:
	.loc 1 162 0
	cmplw 7,30,0
	ble- 7,.L129
	.loc 1 163 0
	cmpwi 7,0,0
	bne- 7,.L147
	.loc 1 165 0
	lwz 0,3376(31)
	cmpw 7,0,29
	beq- 7,.L133
	.loc 1 165 0 is_stmt 0 discriminator 1
	lis 3,0x1
	lwz 4,3640(31)
	ori 3,3,34615
	mtctr 0
	bctrl
.L134:
	.loc 1 166 0 is_stmt 1
	mr 3,31
	li 4,0
	bl gluTessBeginPolygon
	lwz 0,0(31)
	cmpw 6,30,0
	.loc 1 158 0
	bne+ 6,.L144
.L146:
	.loc 1 187 0
	lwz 0,36(1)
	lwz 12,12(1)
	mtlr 0
	lwz 28,16(1)
	lwz 29,20(1)
	mtcrf 8,12
	lwz 30,24(1)
.LVL120:
	lwz 31,28(1)
.LVL121:
	addi 1,1,32
	.cfi_remember_state
.LCFI29:
	.cfi_def_cfa_offset 0
	.cfi_restore 70
	.cfi_restore 31
	.cfi_restore 30
	.cfi_restore 29
	.cfi_restore 28
	blr
.LVL122:
.L129:
.LCFI30:
	.cfi_restore_state
	.loc 1 174 0
	cmpwi 7,0,1
	beq- 7,.L137
	cmpwi 7,0,2
	bne+ 7,.L145
	.loc 1 176 0
	lwz 0,3376(31)
	cmpw 7,0,29
	beq- 7,.L139
	.loc 1 176 0 is_stmt 0 discriminator 1
	lis 3,0x1
	lwz 4,3640(31)
	ori 3,3,34618
	mtctr 0
	bctrl
.L140:
	.loc 1 177 0 is_stmt 1
	mr 3,31
	bl gluTessEndContour
	lwz 0,0(31)
	cmpw 6,30,0
	.loc 1 178 0
	b .L145
.L147:
	.loc 1 163 0
	cmpwi 7,0,1
	bne+ 7,.L145
	.loc 1 169 0
	lwz 0,3376(31)
	cmpw 7,0,29
	beq- 7,.L135
	.loc 1 169 0 is_stmt 0 discriminator 1
	lis 3,0x1
	lwz 4,3640(31)
	ori 3,3,34616
	mtctr 0
	bctrl
.L136:
	.loc 1 170 0 is_stmt 1
	mr 3,31
	bl gluTessBeginContour
	lwz 0,0(31)
	cmpw 6,30,0
	.loc 1 171 0
	b .L145
.L137:
	.loc 1 180 0
	lwz 0,3376(31)
	cmpw 7,0,29
	beq- 7,.L141
	.loc 1 180 0 is_stmt 0 discriminator 1
	lis 3,0x1
	lwz 4,3640(31)
	ori 3,3,34617
	mtctr 0
	bctrl
.L142:
.LVL123:
.LBB11:
.LBB9:
	.loc 1 146 0 is_stmt 1
	lwz 3,8(31)
	cmpwi 7,3,0
	beq- 7,.L143
	.loc 1 147 0
	bl __gl_meshDeleteMesh
.L143:
	mcrf 6,4
	.loc 1 149 0
	stw 28,0(31)
	.loc 1 150 0
	stw 28,4(31)
	.loc 1 151 0
	li 0,0
	stw 28,8(31)
	b .L145
.LVL124:
.L133:
.LBE9:
.LBE11:
	.loc 1 165 0 discriminator 2
	lwz 0,12(31)
	lis 3,0x1
	ori 3,3,34615
	mtctr 0
	bctrl
	b .L134
.L141:
	.loc 1 180 0 discriminator 2
	lwz 0,12(31)
	lis 3,0x1
	ori 3,3,34617
	mtctr 0
	bctrl
	b .L142
.L135:
	.loc 1 169 0 discriminator 2
	lwz 0,12(31)
	lis 3,0x1
	ori 3,3,34616
	mtctr 0
	bctrl
	b .L136
.L139:
	.loc 1 176 0 discriminator 2
	lwz 0,12(31)
	lis 3,0x1
	ori 3,3,34618
	mtctr 0
	bctrl
	b .L140
	.cfi_endproc
.LFE15:
	.size	GotoState, .-GotoState
	.align 2
	.globl gluTessBeginContour
	.type	gluTessBeginContour, @function
gluTessBeginContour:
.LFB26:
	.loc 1 475 0
	.cfi_startproc
.LVL125:
	mflr 0
	stwu 1,-16(1)
.LCFI31:
	.cfi_def_cfa_offset 16
	.cfi_register 65, 0
	stw 31,12(1)
	mr 31,3
	.cfi_offset 31, -4
	stw 0,20(1)
	.loc 1 476 0
	lwz 0,0(3)
	.cfi_offset 65, 4
	cmpwi 7,0,1
	beq- 7,.L149
	.loc 1 476 0 is_stmt 0 discriminator 1
	li 4,1
	bl GotoState
.LVL126:
.L149:
	.loc 1 480 0 is_stmt 1
	lwz 0,152(31)
	cmpwi 7,0,0
	.loc 1 478 0
	li 0,2
	stw 0,0(31)
	.loc 1 479 0
	li 0,0
	stw 0,4(31)
	.loc 1 480 0
	ble- 7,.L148
	.loc 1 485 0
	li 0,1
	stb 0,148(31)
.L148:
	.loc 1 487 0
	lwz 0,20(1)
	lwz 31,12(1)
.LVL127:
	mtlr 0
	addi 1,1,16
.LCFI32:
	.cfi_def_cfa_offset 0
	.cfi_restore 31
	blr
	.cfi_endproc
.LFE26:
	.size	gluTessBeginContour, .-gluTessBeginContour
	.align 2
	.globl gluTessBeginPolygon
	.type	gluTessBeginPolygon, @function
gluTessBeginPolygon:
.LFB25:
	.loc 1 461 0
	.cfi_startproc
.LVL128:
	mflr 0
	stwu 1,-16(1)
.LCFI33:
	.cfi_def_cfa_offset 16
	.cfi_register 65, 0
	stw 30,8(1)
	mr 30,4
	.cfi_offset 30, -8
	stw 0,20(1)
	.loc 1 462 0
	lwz 0,0(3)
	.cfi_offset 65, 4
	.loc 1 461 0
	stw 31,12(1)
	.loc 1 461 0
	mr 31,3
	.cfi_offset 31, -4
	.loc 1 462 0
	cmpwi 7,0,0
	beq+ 7,.L152
	.loc 1 462 0 is_stmt 0 discriminator 1
	li 4,0
.LVL129:
	bl GotoState
.LVL130:
.L152:
	.loc 1 465 0 is_stmt 1
	li 0,0
	.loc 1 464 0
	li 9,1
	.loc 1 466 0
	stb 0,148(31)
	.loc 1 465 0
	stw 0,152(31)
	.loc 1 467 0
	stw 0,8(31)
	.loc 1 470 0
	lwz 0,20(1)
	.loc 1 469 0
	stw 30,3640(31)
	.loc 1 470 0
	mtlr 0
	.loc 1 464 0
	stw 9,0(31)
	.loc 1 470 0
	lwz 30,8(1)
.LVL131:
	lwz 31,12(1)
.LVL132:
	addi 1,1,16
.LCFI34:
	.cfi_def_cfa_offset 0
	.cfi_restore 31
	.cfi_restore 30
	blr
	.cfi_endproc
.LFE25:
	.size	gluTessBeginPolygon, .-gluTessBeginPolygon
	.align 2
	.globl gluTessVertex
	.type	gluTessVertex, @function
gluTessVertex:
.LFB24:
	.loc 1 414 0
	.cfi_startproc
.LVL133:
	mflr 0
	stwu 1,-56(1)
.LCFI35:
	.cfi_def_cfa_offset 56
	.cfi_register 65, 0
	stw 29,44(1)
	mr 29,5
	.cfi_offset 29, -12
	stw 0,60(1)
	stw 30,48(1)
	mr 30,4
	.cfi_offset 30, -8
	.cfi_offset 65, 4
	.loc 1 418 0
	lwz 0,0(3)
	.loc 1 414 0
	stw 31,52(1)
	mr 31,3
	.cfi_offset 31, -4
	.loc 1 418 0
	cmpwi 7,0,2
	.loc 1 414 0
	stw 28,40(1)
	.loc 1 418 0
	beq- 7,.L154
	.cfi_offset 28, -16
	.loc 1 418 0 is_stmt 0 discriminator 1
	li 4,2
.LVL134:
	bl GotoState
.LVL135:
.L154:
	.loc 1 420 0 is_stmt 1
	lbz 0,148(31)
	cmpwi 7,0,0
	bne- 7,.L174
.L155:
.LVL136:
	lis 9,.LC12@ha
	.loc 1 414 0 discriminator 1
	li 0,0
	.loc 1 429 0 discriminator 1
	lfd 13,.LC12@l(9)
	addi 28,1,8
	.loc 1 414 0 discriminator 1
	li 9,0
	.loc 1 433 0 discriminator 1
	lis 11,.LC11@ha
.LVL137:
.L160:
	.loc 1 428 0
	lfdx 0,30,9
.LVL138:
	.loc 1 429 0
	fcmpu 7,0,13
	blt- 7,.L167
	.loc 1 433 0
	lfd 12,.LC11@l(11)
	fcmpu 7,0,12
	bng- 7,.L159
	.loc 1 434 0
	fmr 0,12
	.loc 1 435 0
	li 0,1
.L159:
.LVL139:
	.loc 1 427 0
	cmpwi 7,9,16
	.loc 1 437 0
	stfdx 0,28,9
	.loc 1 427 0
	addi 9,9,8
	bne+ 7,.L160
	.loc 1 439 0
	cmpwi 7,0,0
	beq- 7,.L161
	.loc 1 440 0
	lwz 0,3376(31)
	lis 9,__gl_noErrorData@ha
	la 9,__gl_noErrorData@l(9)
	cmpw 7,0,9
	beq- 7,.L162
	.loc 1 440 0 is_stmt 0 discriminator 1
	lis 3,0x1
	lwz 4,3640(31)
	ori 3,3,34619
	mtctr 0
	bctrl
.LVL140:
.L161:
	.loc 1 443 0 is_stmt 1
	lwz 0,8(31)
	cmpwi 7,0,0
	beq- 7,.L175
.L163:
	.loc 1 453 0
	addi 3,31,4
	addi 4,31,8
	mr 5,28
	mr 6,29
	bl AddVertex.isra.0
	cmpwi 7,3,0
	bne- 7,.L153
.L172:
	.loc 1 454 0
	lwz 0,3376(31)
	lis 9,__gl_noErrorData@ha
	la 9,__gl_noErrorData@l(9)
	cmpw 7,0,9
	beq- 7,.L166
	.loc 1 454 0 is_stmt 0 discriminator 1
	lis 3,0x1
	lwz 4,3640(31)
	ori 3,3,35366
	mtctr 0
	bctrl
.L153:
	.loc 1 456 0 is_stmt 1
	lwz 0,60(1)
	lwz 28,40(1)
	mtlr 0
	lwz 29,44(1)
.LVL141:
	lwz 30,48(1)
.LVL142:
	lwz 31,52(1)
.LVL143:
	addi 1,1,56
	.cfi_remember_state
.LCFI36:
	.cfi_def_cfa_offset 0
	.cfi_restore 31
	.cfi_restore 30
	.cfi_restore 29
	.cfi_restore 28
	blr
.LVL144:
.L167:
.LCFI37:
	.cfi_restore_state
	.loc 1 430 0
	fmr 0,13
.LVL145:
	.loc 1 431 0
	li 0,1
	b .L159
.LVL146:
.L174:
	.loc 1 421 0
	mr 3,31
	bl EmptyCache
	cmpwi 7,3,0
	beq- 7,.L172
	.loc 1 425 0
	li 0,0
	stw 0,4(31)
	b .L155
.LVL147:
.L175:
	.loc 1 444 0
	lwz 9,152(31)
	cmpwi 7,9,99
	bgt- 7,.L164
.LVL148:
.LBB12:
.LBB13:
	.loc 1 387 0
	lfd 0,8(1)
	.loc 1 384 0
	addi 0,9,5
	slwi 0,0,5
	.loc 1 390 0
	addi 9,9,1
	.loc 1 387 0
	stfdx 0,31,0
	.loc 1 384 0
	add 11,31,0
.LVL149:
.LBE13:
.LBE12:
	.loc 1 456 0
	lwz 0,60(1)
.LVL150:
.LBB18:
.LBB14:
	.loc 1 388 0
	lfd 0,16(1)
.LBE14:
.LBE18:
	.loc 1 456 0
	mtlr 0
.LBB19:
.LBB15:
	.loc 1 386 0
	stw 29,24(11)
	.loc 1 388 0
	stfd 0,8(11)
	.loc 1 389 0
	lfd 0,24(1)
.LBE15:
.LBE19:
	.loc 1 456 0
	lwz 28,40(1)
.LVL151:
.LBB20:
.LBB16:
	.loc 1 389 0
	stfd 0,16(11)
.LBE16:
.LBE20:
	.loc 1 456 0
	lwz 29,44(1)
.LVL152:
.LBB21:
.LBB17:
	.loc 1 390 0
	stw 9,152(31)
.LBE17:
.LBE21:
	.loc 1 456 0
	lwz 30,48(1)
.LVL153:
	lwz 31,52(1)
.LVL154:
	addi 1,1,56
	.cfi_remember_state
	.cfi_restore 28
	.cfi_restore 29
	.cfi_restore 30
	.cfi_restore 31
.LCFI38:
	.cfi_def_cfa_offset 0
	blr
.LVL155:
.L166:
.LCFI39:
	.cfi_restore_state
	.loc 1 454 0 discriminator 2
	lwz 0,12(31)
	lis 3,0x1
	ori 3,3,35366
	mtctr 0
	bctrl
	.loc 1 456 0 discriminator 2
	lwz 0,60(1)
	lwz 28,40(1)
	mtlr 0
	lwz 29,44(1)
.LVL156:
	lwz 30,48(1)
.LVL157:
	lwz 31,52(1)
.LVL158:
	addi 1,1,56
	.cfi_remember_state
	.cfi_restore 28
	.cfi_restore 29
	.cfi_restore 30
	.cfi_restore 31
.LCFI40:
	.cfi_def_cfa_offset 0
	blr
.LVL159:
.L164:
.LCFI41:
	.cfi_restore_state
	.loc 1 448 0
	mr 3,31
	bl EmptyCache
	cmpwi 7,3,0
	bne- 7,.L163
	b .L172
.LVL160:
.L162:
	.loc 1 440 0 discriminator 2
	lwz 0,12(31)
	lis 3,0x1
	ori 3,3,34619
	mtctr 0
	bctrl
.LVL161:
	b .L161
	.cfi_endproc
.LFE24:
	.size	gluTessVertex, .-gluTessVertex
	.align 2
	.globl gluDeleteTess
	.type	gluDeleteTess, @function
gluDeleteTess:
.LFB16:
	.loc 1 192 0
	.cfi_startproc
.LVL162:
	mflr 0
	stwu 1,-16(1)
.LCFI42:
	.cfi_def_cfa_offset 16
	.cfi_register 65, 0
	stw 31,12(1)
	mr 31,3
	.cfi_offset 31, -4
	stw 0,20(1)
	.loc 1 193 0
	lwz 0,0(3)
	.cfi_offset 65, 4
	cmpwi 7,0,0
	beq+ 7,.L177
	.loc 1 193 0 is_stmt 0 discriminator 1
	li 4,0
	bl GotoState
.LVL163:
.L177:
	.loc 1 194 0 is_stmt 1
	mr 3,31
	bl free
	.loc 1 195 0
	lwz 0,20(1)
	lwz 31,12(1)
.LVL164:
	mtlr 0
	addi 1,1,16
.LCFI43:
	.cfi_def_cfa_offset 0
	.cfi_restore 31
	blr
	.cfi_endproc
.LFE16:
	.size	gluDeleteTess, .-gluDeleteTess
	.align 2
	.globl gluTessEndPolygon
	.type	gluTessEndPolygon, @function
gluTessEndPolygon:
.LFB28:
	.loc 1 499 0
	.cfi_startproc
.LVL165:
	mflr 0
	stwu 1,-24(1)
.LCFI44:
	.cfi_def_cfa_offset 24
	.cfi_register 65, 0
	stw 3,8(1)
	stw 0,28(1)
	.loc 1 502 0
	addi 0,3,3384
	.cfi_offset 65, 4
	mr 3,0
.LVL166:
	.loc 1 499 0
	stw 31,20(1)
	.loc 1 502 0
	stw 0,12(1)
	.cfi_offset 31, -4
	bl setjmp
	cmpwi 7,3,0
	.loc 1 504 0
	lwz 9,8(1)
	.loc 1 502 0
	beq- 7,.L179
	.loc 1 504 0
	lwz 0,3376(9)
	lis 9,__gl_noErrorData@ha
	la 9,__gl_noErrorData@l(9)
	cmpw 7,0,9
	beq- 7,.L180
	.loc 1 504 0 is_stmt 0 discriminator 1
	lwz 11,8(1)
	lis 3,0x1
	ori 3,3,35366
	mtctr 0
	lwz 4,3640(11)
	bctrl
.L178:
	.loc 1 590 0 is_stmt 1
	lwz 0,28(1)
	lwz 31,20(1)
	mtlr 0
	addi 1,1,24
	.cfi_remember_state
.LCFI45:
	.cfi_def_cfa_offset 0
	.cfi_restore 31
	blr
.L179:
.LCFI46:
	.cfi_restore_state
	.loc 1 508 0
	lwz 0,0(9)
	cmpwi 7,0,1
	beq- 7,.L182
	.loc 1 508 0 is_stmt 0 discriminator 1
	mr 3,9
	li 4,1
	bl GotoState
.L182:
	.loc 1 511 0 is_stmt 1
	lwz 11,8(1)
	lwz 0,8(11)
	cmpwi 7,0,0
	.loc 1 509 0
	li 0,0
	stw 0,0(11)
	.loc 1 511 0
	beq- 7,.L195
.L183:
	.loc 1 530 0
	lwz 3,8(1)
	bl __gl_projectPolygon
	.loc 1 538 0
	lwz 3,8(1)
	bl __gl_computeInterior
	cmpwi 7,3,0
	beq- 7,.L194
	.loc 1 543 0
	lwz 11,8(1)
	lbz 0,100(11)
	.loc 1 542 0
	lwz 31,8(11)
.LVL167:
	.loc 1 543 0
	cmpwi 7,0,0
	bne- 7,.L186
.LVL168:
.LBB22:
	.loc 1 550 0
	lbz 0,121(11)
	.loc 1 551 0
	mr 3,31
	.loc 1 550 0
	cmpwi 7,0,0
	bne- 7,.L196
	.loc 1 553 0
	bl __gl_meshTessellateInterior
.LVL169:
.L188:
	.loc 1 555 0
	cmpwi 7,3,0
	beq- 7,.L194
	.loc 1 557 0
	mr 3,31
.LVL170:
	bl __gl_meshCheckMesh
	.loc 1 559 0
	lwz 11,8(1)
	lwz 9,128(11)
	lis 11,noBegin@ha
	la 0,noBegin@l(11)
	cmpw 7,9,0
	beq- 7,.L197
.L190:
	.loc 1 566 0
	lwz 9,8(1)
	lbz 0,121(9)
	cmpwi 7,0,0
	beq- 7,.L192
	.loc 1 567 0
	mr 3,9
	mr 4,31
	bl __gl_renderBoundary
.L191:
	.loc 1 572 0
	lwz 11,8(1)
	lwz 9,144(11)
	lis 11,noMesh@ha
	la 0,noMesh@l(11)
	cmpw 7,9,0
	beq- 7,.L186
	.loc 1 580 0
	mr 3,31
	bl __gl_meshDiscardExterior
	.loc 1 581 0
	lwz 9,8(1)
	mr 3,31
	lwz 0,144(9)
	mtctr 0
	bctrl
	.loc 1 582 0
	lwz 9,8(1)
	li 0,0
.LBE22:
	.loc 1 590 0
	lwz 31,20(1)
.LVL171:
.LBB23:
	.loc 1 582 0
	stw 0,8(9)
	.loc 1 583 0
	stw 0,3640(9)
.LBE23:
	.loc 1 590 0
	lwz 0,28(1)
	addi 1,1,24
	.cfi_remember_state
	.cfi_restore 31
.LCFI47:
	.cfi_def_cfa_offset 0
	mtlr 0
	blr
.LVL172:
.L186:
.LCFI48:
	.cfi_restore_state
	.loc 1 587 0
	mr 3,31
	bl __gl_meshDeleteMesh
	.loc 1 588 0
	lwz 11,8(1)
	li 0,0
	.loc 1 590 0
	lwz 31,20(1)
.LVL173:
	.loc 1 588 0
	stw 0,3640(11)
	.loc 1 589 0
	stw 0,8(11)
	.loc 1 590 0
	lwz 0,28(1)
	addi 1,1,24
	.cfi_remember_state
	.cfi_restore 31
.LCFI49:
	.cfi_def_cfa_offset 0
	mtlr 0
	blr
.LVL174:
.L196:
.LCFI50:
	.cfi_restore_state
.LBB24:
	.loc 1 551 0
	li 4,1
	li 5,1
	bl __gl_meshSetWindingNumber
.LVL175:
	b .L188
.LVL176:
.L195:
.LBE24:
	.loc 1 512 0
	lbz 31,120(11)
	cmpwi 7,31,0
	bne- 7,.L184
	.loc 1 512 0 is_stmt 0 discriminator 1
	lwz 9,144(11)
	lis 11,noMesh@ha
	la 0,noMesh@l(11)
	cmpw 7,9,0
	beq- 7,.L198
.L184:
	.loc 1 524 0 is_stmt 1
	lwz 3,8(1)
	bl EmptyCache
	cmpwi 7,3,0
	bne+ 7,.L183
.L194:
.LBB25:
	.loc 1 555 0 discriminator 1
	lwz 3,12(1)
	li 4,1
	bl longjmp
.L180:
.LBE25:
	.loc 1 504 0 discriminator 2
	lwz 9,8(1)
	lis 3,0x1
	ori 3,3,35366
	lwz 0,12(9)
	mtctr 0
	bctrl
	b .L178
.LVL177:
.L192:
.LBB26:
	.loc 1 569 0
	lwz 3,8(1)
	mr 4,31
	bl __gl_renderMesh
	b .L191
.L197:
	.loc 1 559 0 discriminator 1
	lwz 11,8(1)
	lwz 9,140(11)
	lis 11,noEnd@ha
	la 0,noEnd@l(11)
	cmpw 7,9,0
	bne+ 7,.L190
	.loc 1 560 0
	lwz 11,8(1)
	lwz 9,136(11)
	lis 11,noVertex@ha
	la 0,noVertex@l(11)
	cmpw 7,9,0
	bne+ 7,.L190
	.loc 1 560 0 is_stmt 0 discriminator 1
	lwz 11,8(1)
	lwz 9,132(11)
	lis 11,noEdgeFlag@ha
	la 0,noEdgeFlag@l(11)
	cmpw 7,9,0
	bne+ 7,.L190
	.loc 1 561 0 is_stmt 1
	lwz 11,8(1)
	lwz 9,3360(11)
	lis 11,__gl_noBeginData@ha
	la 0,__gl_noBeginData@l(11)
	cmpw 7,9,0
	bne+ 7,.L190
	.loc 1 562 0
	lwz 11,8(1)
	lwz 9,3372(11)
	lis 11,__gl_noEndData@ha
	la 0,__gl_noEndData@l(11)
	cmpw 7,9,0
	bne+ 7,.L190
	.loc 1 563 0
	lwz 11,8(1)
	lwz 9,3368(11)
	lis 11,__gl_noVertexData@ha
	la 0,__gl_noVertexData@l(11)
	cmpw 7,9,0
	bne+ 7,.L190
	.loc 1 564 0
	lwz 11,8(1)
	lwz 9,3364(11)
	lis 11,__gl_noEdgeFlagData@ha
	la 0,__gl_noEdgeFlagData@l(11)
	cmpw 7,9,0
	bne+ 7,.L190
	b .L191
.LVL178:
.L198:
.LBE26:
	.loc 1 519 0
	lwz 3,8(1)
	bl __gl_renderCache
	cmpwi 7,3,0
	beq+ 7,.L184
	.loc 1 520 0
	lwz 9,8(1)
	stw 31,3640(9)
	.loc 1 521 0
	b .L178
	.cfi_endproc
.LFE28:
	.size	gluTessEndPolygon, .-gluTessEndPolygon
	.align 2
	.globl gluBeginPolygon
	.type	gluBeginPolygon, @function
gluBeginPolygon:
.LFB29:
	.loc 1 610 0
	.cfi_startproc
.LVL179:
	mflr 0
	stwu 1,-16(1)
.LCFI51:
	.cfi_def_cfa_offset 16
	.cfi_register 65, 0
	.loc 1 611 0
	li 4,0
	.loc 1 610 0
	stw 31,12(1)
	mr 31,3
	.cfi_offset 31, -4
	stw 0,20(1)
	.loc 1 611 0
	.cfi_offset 65, 4
	bl gluTessBeginPolygon
.LVL180:
	.loc 1 613 0
	lwz 0,20(1)
	.loc 1 612 0
	mr 3,31
	.loc 1 613 0
	lwz 31,12(1)
.LVL181:
	mtlr 0
	addi 1,1,16
.LCFI52:
	.cfi_def_cfa_offset 0
	.cfi_restore 31
	.loc 1 612 0
	b gluTessBeginContour
.LVL182:
	.cfi_endproc
.LFE29:
	.size	gluBeginPolygon, .-gluBeginPolygon
	.align 2
	.globl gluNextContour
	.type	gluNextContour, @function
gluNextContour:
.LFB30:
	.loc 1 619 0
	.cfi_startproc
.LVL183:
	mflr 0
	stwu 1,-16(1)
.LCFI53:
	.cfi_def_cfa_offset 16
	.cfi_register 65, 0
	stw 31,12(1)
	mr 31,3
	.cfi_offset 31, -4
	stw 0,20(1)
	.loc 1 620 0
	.cfi_offset 65, 4
	bl gluTessEndContour
.LVL184:
	.loc 1 622 0
	lwz 0,20(1)
	.loc 1 621 0
	mr 3,31
	.loc 1 622 0
	lwz 31,12(1)
.LVL185:
	mtlr 0
	addi 1,1,16
.LCFI54:
	.cfi_def_cfa_offset 0
	.cfi_restore 31
	.loc 1 621 0
	b gluTessBeginContour
.LVL186:
	.cfi_endproc
.LFE30:
	.size	gluNextContour, .-gluNextContour
	.align 2
	.globl gluEndPolygon
	.type	gluEndPolygon, @function
gluEndPolygon:
.LFB31:
	.loc 1 627 0
	.cfi_startproc
.LVL187:
	mflr 0
	stwu 1,-16(1)
.LCFI55:
	.cfi_def_cfa_offset 16
	.cfi_register 65, 0
	stw 31,12(1)
	mr 31,3
	.cfi_offset 31, -4
	stw 0,20(1)
	.loc 1 628 0
	.cfi_offset 65, 4
	bl gluTessEndContour
.LVL188:
	.loc 1 630 0
	lwz 0,20(1)
	.loc 1 629 0
	mr 3,31
	.loc 1 630 0
	lwz 31,12(1)
.LVL189:
	mtlr 0
	addi 1,1,16
.LCFI56:
	.cfi_def_cfa_offset 0
	.cfi_restore 31
	.loc 1 629 0
	b gluTessEndPolygon
.LVL190:
	.cfi_endproc
.LFE31:
	.size	gluEndPolygon, .-gluEndPolygon
	.section	.rodata
	.align 2
	.set	.LANCHOR0,. + 0
	.type	__FUNCTION__.8749, @object
	.size	__FUNCTION__.8749, 19
__FUNCTION__.8749:
	.string	"gluGetTessProperty"
	.section	.rodata.cst4,"aM",@progbits,4
	.align 2
.LC2:
	.4byte	1065353216
.LC4:
	.4byte	1325400064
.LC6:
	.4byte	1501560832
	.section	.rodata.cst8,"aM",@progbits,8
	.align 3
.LC0:
	.4byte	0
	.4byte	0
.LC11:
	.4byte	1595116853
	.4byte	777033391
.LC12:
	.4byte	-552366795
	.4byte	777033391
	.section	.rodata.str1.4,"aMS",@progbits,1
	.align 2
.LC7:
	.string	"d:/Data/Nintendo/TenebraeGX/gl2gx/source/libtess/tess.c"
.LC8:
	.string	"0.0 <= tess->relTolerance && tess->relTolerance <= 1.0"
	.zero	1
.LC9:
	.string	"tess->windingRule == GLU_TESS_WINDING_ODD || tess->windingRule == GLU_TESS_WINDING_NONZERO || tess->windingRule == GLU_TESS_WINDING_POSITIVE || tess->windingRule == GLU_TESS_WINDING_NEGATIVE || tess->windingRule == GLU_TESS_WINDING_ABS_GEQ_TWO"
.LC10:
	.string	"tess->boundaryOnly == TRUE || tess->boundaryOnly == FALSE"
	.section	".text"
.Letext0:
	.file 2 "c:\\utils\\devkitpro\\devkitppc\\bin\\../lib/gcc/powerpc-eabi/4.6.3/../../../../powerpc-eabi/include/machine/setjmp.h"
	.file 3 "d:/Data/Nintendo/TenebraeGX/gl2gx/include/GL/gl.h"
	.file 4 "d:/Data/Nintendo/TenebraeGX/gl2gx/include/GL/glu.h"
	.file 5 "d:/Data/Nintendo/TenebraeGX/gl2gx/source/libtess/tess.h"
	.file 6 "d:/Data/Nintendo/TenebraeGX/gl2gx/source/libtess/mesh.h"
	.file 7 "d:/Data/Nintendo/TenebraeGX/gl2gx/source/libtess/sweep.h"
	.file 8 "d:/Data/Nintendo/TenebraeGX/gl2gx/source/libtess/dict.h"
	.file 9 "d:/Data/Nintendo/TenebraeGX/gl2gx/source/libtess/priorityq-heap.h"
	.file 10 "d:/Data/Nintendo/TenebraeGX/gl2gx/source/libtess/priorityq.h"