	.file	"view.c"
	.section	".text"
.Ltext0:
	.cfi_sections	.debug_frame
	.align 2
	.globl V_BonusFlash_f
	.type	V_BonusFlash_f, @function
V_BonusFlash_f:
.LFB47:
	.file 1 "d:/Data/Nintendo/TenebraeGX/src/view.c"
	.loc 1 403 0
	.cfi_startproc
	.loc 1 404 0
	lis 9,cl@ha
	li 0,215
	la 9,cl@l(9)
	stw 0,324(9)
	.loc 1 405 0
	li 0,186
	stw 0,328(9)
	.loc 1 406 0
	li 0,69
	stw 0,332(9)
	.loc 1 407 0
	li 0,50
	stw 0,336(9)
	.loc 1 408 0
	blr
	.cfi_endproc
.LFE47:
	.size	V_BonusFlash_f, .-V_BonusFlash_f
	.align 2
	.globl V_cshift_f
	.type	V_cshift_f, @function
V_cshift_f:
.LFB46:
	.loc 1 387 0
	.cfi_startproc
	mflr 0
	stwu 1,-16(1)
.LCFI0:
	.cfi_def_cfa_offset 16
	.cfi_register 65, 0
	.loc 1 388 0
	li 3,1
	.loc 1 387 0
	stw 31,12(1)
	.loc 1 388 0
	lis 31,.LANCHOR0@ha
	.cfi_offset 31, -4
	.loc 1 387 0
	stw 0,20(1)
	.loc 1 388 0
	.cfi_offset 65, 4
	bl Cmd_Argv
	bl atoi
	stw 3,.LANCHOR0@l(31)
	.loc 1 389 0
	li 3,2
	bl Cmd_Argv
	.loc 1 388 0
	la 31,.LANCHOR0@l(31)
	.loc 1 389 0
	bl atoi
	stw 3,4(31)
	.loc 1 390 0
	li 3,3
	bl Cmd_Argv
	bl atoi
	stw 3,8(31)
	.loc 1 391 0
	li 3,4
	bl Cmd_Argv
	bl atoi
	.loc 1 392 0
	lwz 0,20(1)
	.loc 1 391 0
	stw 3,12(31)
	.loc 1 392 0
	mtlr 0
	lwz 31,12(1)
	addi 1,1,16
.LCFI1:
	.cfi_def_cfa_offset 0
	.cfi_restore 31
	blr
	.cfi_endproc
.LFE46:
	.size	V_cshift_f, .-V_cshift_f
	.align 2
	.globl V_StartPitchDrift
	.type	V_StartPitchDrift, @function
V_StartPitchDrift:
.LFB40:
	.loc 1 146 0
	.cfi_startproc
	.loc 1 148 0
	lis 9,cl@ha
	la 9,cl@l(9)
	lfd 13,520(9)
	lfd 0,568(9)
	fcmpu 7,13,0
	beqlr- 7
	.loc 1 153 0
	lbz 0,512(9)
	cmpwi 7,0,0
	beq- 7,.L7
.LBB4:
.LBB5:
	.loc 1 155 0
	lis 11,.LANCHOR0+28@ha
	lwz 0,.LANCHOR0+28@l(11)
	stw 0,508(9)
	.loc 1 156 0
	li 0,0
	stb 0,512(9)
	.loc 1 157 0
	li 0,0
	stw 0,516(9)
	blr
.L7:
.LBE5:
.LBE4:
	.loc 1 153 0 discriminator 1
	lis 11,.LC0@ha
	lfs 13,508(9)
	lfs 0,.LC0@l(11)
	fcmpu 7,13,0
	bnelr- 7
.LBB7:
.LBB6:
	.loc 1 155 0
	lis 11,.LANCHOR0+28@ha
	lwz 0,.LANCHOR0+28@l(11)
	stw 0,508(9)
	.loc 1 156 0
	li 0,0
	stb 0,512(9)
	.loc 1 157 0
	li 0,0
	stw 0,516(9)
	blr
.LBE6:
.LBE7:
	.cfi_endproc
.LFE40:
	.size	V_StartPitchDrift, .-V_StartPitchDrift
	.align 2
	.globl V_CalcRoll
	.type	V_CalcRoll, @function
V_CalcRoll:
.LFB38:
	.loc 1 81 0
	.cfi_startproc
.LVL0:
	stwu 1,-24(1)
.LCFI2:
	.cfi_def_cfa_offset 24
	mflr 0
	.loc 1 86 0
	lis 6,up@ha
	.loc 1 81 0
	stw 29,12(1)
	.loc 1 86 0
	lis 29,right@ha
	.cfi_offset 29, -12
	.cfi_register 65, 0
	.loc 1 81 0
	stw 30,16(1)
	mr 30,4
	.cfi_offset 30, -8
	stw 31,20(1)
	.loc 1 86 0
	lis 4,forward@ha
.LVL1:
	la 31,right@l(29)
	.cfi_offset 31, -4
	la 4,forward@l(4)
	mr 5,31
	la 6,up@l(6)
	.loc 1 81 0
	stw 0,28(1)
	.loc 1 86 0
	.cfi_offset 65, 4
	bl AngleVectors
.LVL2:
	.loc 1 87 0
	lfs 0,4(31)
	.loc 1 88 0
	lis 9,.LC0@ha
	.loc 1 87 0
	lfs 11,4(30)
	lfs 13,0(30)
	fmuls 11,11,0
	lfs 0,right@l(29)
	lfs 12,8(30)
	fmadds 13,13,0,11
	lfs 0,8(31)
	fmadds 0,12,0,13
.LVL3:
	.loc 1 88 0
	lfs 13,.LC0@l(9)
	fcmpu 7,0,13
	bnl- 7,.L17
	lis 9,.LC1@ha
	lfs 12,.LC1@l(9)
.L9:
.LVL4:
	.loc 1 91 0 discriminator 3
	lis 9,.LANCHOR0@ha
	.loc 1 89 0 discriminator 3
	fabs 0,0
.LVL5:
	.loc 1 91 0 discriminator 3
	la 9,.LANCHOR0@l(9)
	.loc 1 95 0 discriminator 3
	lfs 13,68(9)
	.loc 1 91 0 discriminator 3
	lfs 1,48(9)
.LVL6:
	.loc 1 95 0 discriminator 3
	fcmpu 7,13,0
	bng- 7,.L11
	.loc 1 96 0
	fmuls 1,0,1
	fdivs 1,1,13
.LVL7:
.L11:
	.loc 1 102 0
	lwz 0,28(1)
	fmuls 1,1,12
.LVL8:
	lwz 29,12(1)
	mtlr 0
	lwz 30,16(1)
.LVL9:
	lwz 31,20(1)
	addi 1,1,24
	.cfi_remember_state
.LCFI3:
	.cfi_def_cfa_offset 0
	.cfi_restore 31
	.cfi_restore 30
	.cfi_restore 29
	blr
.LVL10:
.L17:
.LCFI4:
	.cfi_restore_state
	.loc 1 88 0
	lis 9,.LC2@ha
	lfs 12,.LC2@l(9)
	b .L9
	.cfi_endproc
.LFE38:
	.size	V_CalcRoll, .-V_CalcRoll
	.align 2
	.globl V_CalcBob
	.type	V_CalcBob, @function
V_CalcBob:
.LFB39:
	.loc 1 112 0
	.cfi_startproc
	mflr 0
	stwu 1,-48(1)
.LCFI5:
	.cfi_def_cfa_offset 48
	.cfi_register 65, 0
	.loc 1 116 0
	lis 9,cl@ha
	.loc 1 112 0
	stw 31,28(1)
	.loc 1 116 0
	lis 31,.LANCHOR0@ha
	.cfi_offset 31, -20
	.loc 1 112 0
	stw 0,52(1)
	.loc 1 116 0
	la 31,.LANCHOR0@l(31)
	la 9,cl@l(9)
	lis 0,0x4330
	.cfi_offset 65, 4
	lfs 0,88(31)
	addi 11,1,16
	lfd 12,568(9)
	fmr 11,0
	stw 0,8(1)
	.loc 1 112 0
	stfd 30,32(1)
	.loc 1 118 0
	lfs 13,108(31)
	.loc 1 116 0
	fdiv 11,12,11
	.loc 1 112 0
	stfd 31,40(1)
	.loc 1 116 0
	fctiwz 11,11
	stfiwx 11,0,11
	lis 11,.LC6@ha
	lfs 11,.LC6@l(11)
	lwz 0,16(1)
	xoris 0,0,0x8000
	stw 0,12(1)
	lfd 10,8(1)
	fsub 11,10,11
	frsp 11,11
	fmuls 11,0,11
	fsub 12,12,11
	frsp 12,12
.LVL11:
	.loc 1 117 0
	fdivs 0,12,0
.LVL12:
	.loc 1 118 0
	fcmpu 7,13,0
	bng- 7,.L27
	.cfi_offset 63, -8
	.cfi_offset 62, -16
	.loc 1 119 0
	lis 11,.LC7@ha
	lfd 12,.LC7@l(11)
	fmul 30,0,12
	fdiv 30,30,13
	frsp 30,30
.LVL13:
.L22:
	.loc 1 126 0
	lfs 0,484(9)
	lfs 1,480(9)
	fmuls 0,0,0
	fmadds 1,1,1,0
	bl sqrt
.LVL14:
	lfs 31,128(31)
	fmul 31,1,31
	.loc 1 128 0
	fmr 1,30
.LVL15:
	.loc 1 126 0
	frsp 31,31
.LVL16:
	.loc 1 128 0
	bl sin
	lis 9,.LC9@ha
	lfd 13,.LC9@l(9)
	.loc 1 129 0
	lis 9,.LC3@ha
	lfs 0,.LC3@l(9)
	.loc 1 128 0
	lis 9,.LC10@ha
	fmul 13,31,13
	fmul 13,13,1
	lfd 1,.LC10@l(9)
	fmadd 31,31,1,13
.LVL17:
	frsp 1,31
.LVL18:
	.loc 1 129 0
	fcmpu 7,1,0
	bgt- 7,.L25
	.loc 1 131 0
	lis 9,.LC4@ha
	lfs 0,.LC4@l(9)
	fcmpu 7,1,0
	bnl- 7,.L23
.L25:
	.loc 1 132 0
	fmr 1,0
.LVL19:
.L23:
	.loc 1 135 0
	lwz 0,52(1)
	lwz 31,28(1)
	mtlr 0
	lfd 30,32(1)
.LVL20:
	lfd 31,40(1)
	addi 1,1,48
	.cfi_remember_state
.LCFI6:
	.cfi_def_cfa_offset 0
	.cfi_restore 63
	.cfi_restore 62
	.cfi_restore 31
	blr
.LVL21:
.L27:
.LCFI7:
	.cfi_restore_state
	.loc 1 121 0
	fsubs 0,0,13
.LVL22:
	lis 11,.LC7@ha
	lfd 12,.LC7@l(11)
	lis 11,.LC2@ha
	fmr 30,0
	lfs 0,.LC2@l(11)
	fsub 13,0,13
	fmul 30,30,12
	fdiv 30,30,13
	fadd 30,30,12
	frsp 30,30
.LVL23:
	b .L22
	.cfi_endproc
.LFE39:
	.size	V_CalcBob, .-V_CalcBob
	.align 2
	.globl V_StopPitchDrift
	.type	V_StopPitchDrift, @function
V_StopPitchDrift:
.LFB41:
	.loc 1 162 0
	.cfi_startproc
	.loc 1 163 0
	lis 9,cl@ha
	.loc 1 164 0
	li 0,1
	.loc 1 163 0
	la 9,cl@l(9)
	lfd 0,568(9)
	.loc 1 164 0
	stb 0,512(9)
	.loc 1 165 0
	li 0,0
	.loc 1 163 0
	stfd 0,520(9)
	.loc 1 165 0
	stw 0,508(9)
	.loc 1 166 0
	blr
	.cfi_endproc
.LFE41:
	.size	V_StopPitchDrift, .-V_StopPitchDrift
	.align 2
	.globl V_DriftPitch
	.type	V_DriftPitch, @function
V_DriftPitch:
.LFB42:
	.loc 1 182 0
	.cfi_startproc
	.loc 1 185 0
	lis 9,noclip_anglehack@ha
	.loc 1 182 0
	stwu 1,-16(1)
.LCFI8:
	.cfi_def_cfa_offset 16
	.loc 1 185 0
	lbz 0,noclip_anglehack@l(9)
	lis 9,cl@ha
	la 9,cl@l(9)
	cmpwi 7,0,0
	bne- 7,.L30
	.loc 1 185 0 is_stmt 0 discriminator 1
	lbz 0,537(9)
	cmpwi 7,0,0
	beq- 7,.L30
	lis 11,cls+2249@ha
	lbz 0,cls+2249@l(11)
	cmpwi 7,0,0
	bne- 7,.L30
	.loc 1 193 0 is_stmt 1
	lbz 0,512(9)
	cmpwi 7,0,0
	beq- 7,.L33
	.loc 1 195 0
	lfs 13,16(9)
	lis 11,cl_forwardspeed+12@ha
	lfs 0,cl_forwardspeed+12@l(11)
	fabs 13,13
	fcmpu 7,13,0
	bnl- 7,.L54
	.loc 1 196 0
	li 0,0
	stw 0,516(9)
	stw 0,8(1)
	lfs 0,8(1)
.L36:
	.loc 1 200 0
	lis 9,.LANCHOR0+148@ha
	lfs 13,.LANCHOR0+148@l(9)
	fcmpu 7,13,0
	bnl+ 7,.L29
	.loc 1 238 0
	addi 1,1,16
	.cfi_remember_state
.LCFI9:
	.cfi_def_cfa_offset 0
	.loc 1 202 0
	b V_StartPitchDrift
.L30:
.LCFI10:
	.cfi_restore_state
	.loc 1 187 0
	li 0,0
	stw 0,516(9)
	.loc 1 188 0
	stw 0,508(9)
.L29:
	.loc 1 238 0
	addi 1,1,16
	.cfi_remember_state
.LCFI11:
	.cfi_def_cfa_offset 0
	blr
.L33:
.LCFI12:
	.cfi_restore_state
	.loc 1 207 0
	lfs 12,444(9)
	.loc 1 209 0
	lis 11,.LC0@ha
	.loc 1 207 0
	lfs 0,504(9)
	.loc 1 209 0
	lfs 13,.LC0@l(11)
	.loc 1 207 0
	fsubs 0,0,12
.LVL24:
	.loc 1 209 0
	fcmpu 7,0,13
	fcmpu 6,0,13
	beq- 7,.L56
	.loc 1 215 0
	lis 11,host_frametime@ha
	lfs 10,508(9)
	lfd 9,host_frametime@l(11)
	.loc 1 216 0
	lis 11,.LANCHOR0+28@ha
	lfs 8,.LANCHOR0+28@l(11)
	.loc 1 215 0
	fmul 11,10,9
	.loc 1 216 0
	fmadd 10,9,8,10
	.loc 1 215 0
	frsp 11,11
.LVL25:
	.loc 1 216 0
	frsp 10,10
	stfs 10,508(9)
	.loc 1 220 0
	bgt- 6,.L57
	.loc 1 229 0
	bnl- 6,.L29
	.loc 1 231 0
	fneg 0,0
.LVL26:
	fcmpu 7,0,11
	bnl- 7,.L44
	.loc 1 234 0
	fmr 11,0
.LVL27:
	.loc 1 233 0
	stfs 13,508(9)
.LVL28:
.L44:
	.loc 1 236 0
	fsubs 12,12,11
	stfs 12,444(9)
	b .L29
.LVL29:
.L54:
	.loc 1 198 0
	lis 11,host_frametime@ha
	lfs 13,516(9)
	lfd 0,host_frametime@l(11)
	fadd 0,13,0
	frsp 0,0
	stfs 0,516(9)
	b .L36
.LVL30:
.L57:
	.loc 1 222 0
	fcmpu 7,11,0
	bng- 7,.L41
	.loc 1 225 0
	fmr 11,0
.LVL31:
	.loc 1 224 0
	stfs 13,508(9)
.LVL32:
.L41:
	.loc 1 227 0
	fadds 12,11,12
	stfs 12,444(9)
	b .L29
.LVL33:
.L56:
	.loc 1 211 0
	stfs 13,508(9)
	.loc 1 212 0
	b .L29
	.cfi_endproc
.LFE42:
	.size	V_DriftPitch, .-V_DriftPitch
	.align 2
	.globl BuildGammaTable
	.type	BuildGammaTable, @function
BuildGammaTable:
.LFB43:
	.loc 1 268 0
	.cfi_startproc
.LVL34:
	.loc 1 271 0
	lis 9,.LC2@ha
	.loc 1 268 0
	mflr 0
	.loc 1 271 0
	lfs 0,.LC2@l(9)
	.loc 1 268 0
	stwu 1,-72(1)
.LCFI13:
	.cfi_def_cfa_offset 72
	.cfi_register 65, 0
	.loc 1 271 0
	fcmpu 7,1,0
	.loc 1 268 0
	stfd 30,56(1)
	fmr 30,1
	.cfi_offset 62, -16
	stw 30,32(1)
	lis 30,gammatable@ha
	.cfi_offset 30, -40
	stw 0,76(1)
	stfd 28,40(1)
	stfd 29,48(1)
	stfd 31,64(1)
	stw 28,24(1)
	stw 29,28(1)
	stw 31,36(1)
	.loc 1 271 0
	beq- 7,.L64
	.cfi_offset 31, -36
	.cfi_offset 29, -44
	.cfi_offset 28, -48
	.cfi_offset 63, -8
	.cfi_offset 61, -24
	.cfi_offset 60, -32
	.cfi_offset 65, 4
.LBB10:
.LBB11:
	.loc 1 280 0
	lis 9,.LC6@ha
	lis 28,.LC16@ha
	lfs 28,.LC6@l(9)
	lis 9,.LC12@ha
	lfs 31,.LC12@l(9)
	lis 9,.LC14@ha
	lfs 29,.LC14@l(9)
.LBE11:
.LBE10:
	.loc 1 271 0
	li 31,0
	la 28,.LC16@l(28)
	la 30,gammatable@l(30)
.LBB13:
.LBB12:
	.loc 1 280 0
	lis 29,0x4330
	b .L62
.LVL35:
.L61:
	.loc 1 285 0
	stbx 9,30,31
	.loc 1 278 0
	addi 31,31,1
.LVL36:
	beq- 7,.L58
.LVL37:
.L62:
	.loc 1 280 0
	xoris 0,31,0x8000
	stw 29,8(1)
	stw 0,12(1)
	fmr 2,30
	lfd 1,8(1)
	fsub 1,1,28
	fadd 1,1,31
	fdiv 1,1,29
	bl pow
	lfs 0,0(28)
	addi 11,1,16
	.loc 1 278 0
	cmpwi 7,31,255
	.loc 1 280 0
	fmadd 0,1,0,31
	.loc 1 281 0
	li 9,0
	.loc 1 280 0
	fctiwz 0,0
	stfiwx 0,0,11
	lwz 0,16(1)
.LVL38:
	.loc 1 281 0
	cmpwi 6,0,0
	.loc 1 283 0
	cmpwi 1,0,255
	.loc 1 281 0
	blt- 6,.L61
	.loc 1 283 0
	li 9,255
	bgt+ 1,.L61
	rlwinm 9,0,0,0xff
.LVL39:
	.loc 1 285 0
	stbx 9,30,31
	.loc 1 278 0
	addi 31,31,1
.LVL40:
	bne+ 7,.L62
.L58:
.LBE12:
.LBE13:
	.loc 1 287 0
	lwz 0,76(1)
	lwz 28,24(1)
	mtlr 0
	lwz 29,28(1)
	lwz 30,32(1)
	lwz 31,36(1)
.LVL41:
	lfd 28,40(1)
	lfd 29,48(1)
	lfd 30,56(1)
.LVL42:
	lfd 31,64(1)
	addi 1,1,72
	.cfi_remember_state
.LCFI14:
	.cfi_def_cfa_offset 0
	.cfi_restore 63
	.cfi_restore 62
	.cfi_restore 61
	.cfi_restore 60
	.cfi_restore 31
	.cfi_restore 30
	.cfi_restore 29
	.cfi_restore 28
	blr
.LVL43:
.L64:
.LCFI15:
	.cfi_restore_state
	li 0,256
	.loc 1 271 0
	li 9,0
	mtctr 0
	la 30,gammatable@l(30)
.L59:
	.loc 1 274 0 discriminator 2
	stbx 9,30,9
	.loc 1 273 0 discriminator 2
	addi 9,9,1
.LVL44:
	bdnz .L59
	.loc 1 287 0
	lwz 0,76(1)
	lwz 28,24(1)
	mtlr 0
	lwz 29,28(1)
	lwz 30,32(1)
	lwz 31,36(1)
	lfd 28,40(1)
	lfd 29,48(1)
	lfd 30,56(1)
	lfd 31,64(1)
	addi 1,1,72
	.cfi_restore 28
	.cfi_restore 29
	.cfi_restore 30
	.cfi_restore 31
	.cfi_restore 60
	.cfi_restore 61
	.cfi_restore 62
	.cfi_restore 63
.LCFI16:
	.cfi_def_cfa_offset 0
	blr
	.cfi_endproc
.LFE43:
	.size	BuildGammaTable, .-BuildGammaTable
	.align 2
	.globl V_CheckGamma
	.type	V_CheckGamma, @function
V_CheckGamma:
.LFB44:
	.loc 1 295 0
	.cfi_startproc
	.loc 1 298 0
	lis 9,.LANCHOR1@ha
	lis 11,.LANCHOR0+168@ha
	lfs 0,.LANCHOR0+168@l(11)
	.loc 1 295 0
	mflr 0
	.loc 1 298 0
	lfs 13,.LANCHOR1@l(9)
	.loc 1 299 0
	li 3,0
	.loc 1 295 0
	stwu 1,-8(1)
.LCFI17:
	.cfi_def_cfa_offset 8
	.cfi_register 65, 0
	.loc 1 298 0
	fcmpu 7,0,13
	.loc 1 295 0
	stw 0,12(1)
	.loc 1 298 0
	beq+ 7,.L70
	.cfi_offset 65, 4
	.loc 1 302 0
	fmr 1,0
	.loc 1 300 0
	stfs 0,.LANCHOR1@l(9)
	.loc 1 302 0
	bl BuildGammaTable
	.loc 1 303 0
	li 0,1
	lis 9,vid+36@ha
	.loc 1 305 0
	li 3,1
	.loc 1 303 0
	stw 0,vid+36@l(9)
.L70:
	.loc 1 306 0
	lwz 0,12(1)
	addi 1,1,8
.LCFI18:
	.cfi_def_cfa_offset 0
	mtlr 0
	blr
	.cfi_endproc
.LFE44:
	.size	V_CheckGamma, .-V_CheckGamma
	.align 2
	.globl V_ParseDamage
	.type	V_ParseDamage, @function
V_ParseDamage:
.LFB45:
	.loc 1 316 0
	.cfi_startproc
	mflr 0
	stwu 1,-104(1)
.LCFI19:
	.cfi_def_cfa_offset 104
	.cfi_register 65, 0
	stfd 31,96(1)
	stw 0,108(1)
	stw 30,88(1)
	stw 31,92(1)
	.loc 1 325 0
	.cfi_offset 31, -12
	.cfi_offset 30, -16
	.cfi_offset 65, 4
	.cfi_offset 63, -8
	bl MSG_ReadByte
	mr 31,3
.LVL45:
	.loc 1 326 0
	bl MSG_ReadByte
.LVL46:
	mr 30,3
.LVL47:
	.loc 1 328 0
	bl MSG_ReadCoord
.LVL48:
	stfs 1,44(1)
.LVL49:
	bl MSG_ReadCoord
	stfs 1,48(1)
.LVL50:
	bl MSG_ReadCoord
	.loc 1 330 0
	lis 0,0x4330
	xoris 9,31,0x8000
	stw 9,68(1)
	lis 11,.LC6@ha
	stw 0,64(1)
	xoris 9,30,0x8000
	lfs 13,.LC6@l(11)
	lfd 11,64(1)
	stw 9,60(1)
	lis 9,.LC12@ha
	fsub 11,11,13
	stw 0,56(1)
	lfs 0,.LC12@l(9)
	.loc 1 331 0
	lis 9,.LC18@ha
	.loc 1 330 0
	lfd 31,56(1)
	fmul 11,11,0
	.loc 1 331 0
	lfs 12,.LC18@l(9)
	.loc 1 328 0
	stfs 1,52(1)
.LVL51:
	.loc 1 330 0
	fsub 13,31,13
	fmadd 13,13,0,11
	frsp 31,13
.LVL52:
	.loc 1 331 0
	fcmpu 7,31,12
	blt- 7,.L79
	lis 9,.LC19@ha
	lfs 0,.LC19@l(9)
	fmuls 0,31,0
.LVL53:
.L73:
	.loc 1 334 0
	lis 9,cl@ha
	.loc 1 336 0
	lfs 13,.LC6@l(11)
	.loc 1 334 0
	la 9,cl@l(9)
	lis 11,.LC20@ha
	.loc 1 336 0
	lwz 0,320(9)
	xoris 0,0,0x8000
	stw 0,76(1)
	lis 0,0x4330
	stw 0,72(1)
	lfd 12,72(1)
	fsub 13,12,13
	.loc 1 334 0
	lfd 12,568(9)
	.loc 1 336 0
	frsp 13,13
	fadds 13,13,0
	.loc 1 334 0
	lfd 0,.LC20@l(11)
	.loc 1 336 0
	addi 11,1,80
	.loc 1 334 0
	fadd 0,12,0
	.loc 1 336 0
	fctiwz 13,13
	.loc 1 334 0
	frsp 0,0
	.loc 1 336 0
	stfiwx 13,0,11
	.loc 1 334 0
	stfs 0,288(9)
	.loc 1 336 0
	lwz 0,80(1)
	.loc 1 337 0
	cmpwi 7,0,0
	.loc 1 336 0
	stw 0,320(9)
	.loc 1 337 0
	blt- 7,.L80
	.loc 1 339 0
	cmpwi 7,0,150
	ble- 7,.L75
	.loc 1 340 0
	li 0,150
	stw 0,320(9)
.L75:
	.loc 1 342 0
	cmpw 7,31,30
	bgt- 7,.L81
	.loc 1 348 0
	cmpwi 7,31,0
	bne- 7,.L82
	.loc 1 356 0
	li 0,255
	.loc 1 357 0
	stw 31,312(9)
	.loc 1 356 0
	stw 0,308(9)
	.loc 1 358 0
	stw 31,316(9)
.L77:
	.loc 1 364 0
	lwz 31,2676(9)
.LVL54:
	lis 9,cl_entities@ha
	la 0,cl_entities@l(9)
	.loc 1 366 0
	lfs 11,44(1)
	.loc 1 364 0
	mulli 31,31,584
	.loc 1 367 0
	addi 3,1,44
	.loc 1 364 0
	add 31,31,0
.LVL55:
	.loc 1 366 0
	lfs 12,112(31)
	lfs 13,116(31)
	fsubs 12,11,12
	lfs 11,48(1)
	lfs 0,120(31)
	fsubs 13,11,13
	lfs 11,52(1)
	stfs 12,44(1)
	fsubs 0,11,0
	stfs 13,48(1)
	stfs 0,52(1)
	.loc 1 367 0
	bl VectorNormalize
.LVL56:
	.loc 1 369 0
	addi 3,31,148
	addi 4,1,32
	addi 5,1,20
	addi 6,1,8
	bl AngleVectors
	.loc 1 371 0
	lfs 0,48(1)
	lfs 12,24(1)
	.loc 1 372 0
	lis 9,.LANCHOR0@ha
	.loc 1 374 0
	lfs 13,36(1)
	.loc 1 372 0
	la 9,.LANCHOR0@l(9)
	.loc 1 371 0
	fmuls 12,0,12
	lfs 11,20(1)
	.loc 1 374 0
	fmuls 0,0,13
	.loc 1 371 0
	lfs 13,44(1)
	.loc 1 377 0
	lwz 0,228(9)
	.loc 1 371 0
	fmadds 12,13,11,12
	.loc 1 374 0
	lfs 11,32(1)
	.loc 1 378 0
	lwz 30,88(1)
.LVL57:
	.loc 1 374 0
	fmadds 13,13,11,0
	.loc 1 371 0
	lfs 0,52(1)
.LVL58:
	lfs 11,28(1)
	.loc 1 378 0
	lwz 31,92(1)
.LVL59:
	.loc 1 371 0
	fmadds 12,0,11,12
	.loc 1 374 0
	lfs 11,40(1)
	fmadds 0,0,11,13
	.loc 1 375 0
	lfs 11,208(9)
	.loc 1 372 0
	fmuls 12,31,12
	.loc 1 375 0
	fmuls 31,31,0
.LVL60:
	.loc 1 372 0
	lfs 0,188(9)
	lis 9,v_dmg_roll@ha
	fmuls 12,12,0
	.loc 1 375 0
	fmuls 31,31,11
	.loc 1 372 0
	stfs 12,v_dmg_roll@l(9)
.LVL61:
	.loc 1 375 0
	lis 9,v_dmg_pitch@ha
	stfs 31,v_dmg_pitch@l(9)
	.loc 1 377 0
	lis 9,v_dmg_time@ha
	stw 0,v_dmg_time@l(9)
	.loc 1 378 0
	lwz 0,108(1)
	lfd 31,96(1)
	mtlr 0
	addi 1,1,104
	.cfi_remember_state
.LCFI20:
	.cfi_def_cfa_offset 0
	.cfi_restore 63
	.cfi_restore 31
	.cfi_restore 30
	blr
.LVL62:
.L79:
.LCFI21:
	.cfi_restore_state
	.loc 1 331 0
	lis 9,.LC17@ha
	.loc 1 332 0
	fmr 31,12
.LVL63:
	.loc 1 331 0
	lfs 0,.LC17@l(9)
	b .L73
.LVL64:
.L82:
	.loc 1 351 0
	li 0,50
	.loc 1 350 0
	li 11,220
	stw 11,308(9)
	.loc 1 351 0
	stw 0,312(9)
	.loc 1 352 0
	stw 0,316(9)
	b .L77
.L81:
	.loc 1 345 0
	li 0,100
	.loc 1 344 0
	li 11,200
	stw 11,308(9)
	.loc 1 345 0
	stw 0,312(9)
	.loc 1 346 0
	stw 0,316(9)
	b .L77
.L80:
	.loc 1 338 0
	li 0,0
	stw 0,320(9)
	b .L75
	.cfi_endproc
.LFE45:
	.size	V_ParseDamage, .-V_ParseDamage
	.align 2
	.globl V_SetContentsColor
	.type	V_SetContentsColor, @function
V_SetContentsColor:
.LFB48:
	.loc 1 418 0
	.cfi_startproc
.LVL65:
	.loc 1 419 0
	cmpwi 7,3,-4
	beq- 7,.L86
	ble- 7,.L91
.L84:
	.loc 1 432 0
	lis 11,.LANCHOR0@ha
	la 9,.LANCHOR0@l(11)
	lwz 8,.LANCHOR0@l(11)
	lwz 10,4(9)
	lwz 11,8(9)
	lwz 0,12(9)
	lis 9,cl@ha
	la 9,cl@l(9)
	stw 8,292(9)
	stw 10,296(9)
	stw 11,300(9)
	stw 0,304(9)
	blr
.L91:
	.loc 1 419 0
	cmpwi 7,3,-5
	bne+ 7,.L84
	.loc 1 426 0
	lis 9,.LANCHOR0@ha
	la 9,.LANCHOR0@l(9)
	lwz 8,236(9)
	lwz 10,240(9)
	lwz 11,244(9)
	lwz 0,248(9)
	.loc 1 432 0
	lis 9,cl@ha
	la 9,cl@l(9)
	stw 8,292(9)
	stw 10,296(9)
	stw 11,300(9)
	stw 0,304(9)
	blr
.L86:
	.loc 1 429 0
	lis 9,.LANCHOR0@ha
	la 9,.LANCHOR0@l(9)
	lwz 8,252(9)
	lwz 10,256(9)
	lwz 11,260(9)
	lwz 0,264(9)
	.loc 1 432 0
	lis 9,cl@ha
	la 9,cl@l(9)
	stw 8,292(9)
	stw 10,296(9)
	stw 11,300(9)
	stw 0,304(9)
	blr
	.cfi_endproc
.LFE48:
	.size	V_SetContentsColor, .-V_SetContentsColor
	.align 2
	.globl V_CalcPowerupCshift
	.type	V_CalcPowerupCshift, @function
V_CalcPowerupCshift:
.LFB49:
	.loc 1 442 0
	.cfi_startproc
	.loc 1 443 0
	lis 9,cl@ha
	la 9,cl@l(9)
	lwz 0,156(9)
	andis. 11,0,0x40
	bne- 0,.L98
	.loc 1 450 0
	andis. 10,0,32
	bne- 0,.L99
	.loc 1 457 0
	andis. 11,0,0x8
	bne- 0,.L100
	.loc 1 464 0
	andis. 0,0,0x10
	bne- 0,.L101
	.loc 1 472 0
	stw 0,352(9)
	blr
.L99:
	.loc 1 453 0
	li 0,255
	.loc 1 452 0
	stw 11,340(9)
	.loc 1 453 0
	stw 0,344(9)
	.loc 1 455 0
	li 0,20
	.loc 1 454 0
	stw 11,348(9)
	.loc 1 455 0
	stw 0,352(9)
	blr
.L98:
	.loc 1 445 0
	li 0,0
	stw 0,340(9)
	.loc 1 446 0
	stw 0,344(9)
	.loc 1 447 0
	li 0,255
	stw 0,348(9)
	.loc 1 448 0
	li 0,30
	stw 0,352(9)
	blr
.L101:
	.loc 1 466 0
	li 0,255
	.loc 1 468 0
	stw 11,348(9)
	.loc 1 466 0
	stw 0,340(9)
	.loc 1 467 0
	stw 0,344(9)
	.loc 1 469 0
	li 0,30
	stw 0,352(9)
	blr
.L100:
	.loc 1 459 0
	li 0,100
	stw 0,340(9)
	.loc 1 460 0
	stw 0,344(9)
	.loc 1 461 0
	stw 0,348(9)
	.loc 1 462 0
	stw 0,352(9)
	blr
	.cfi_endproc
.LFE49:
	.size	V_CalcPowerupCshift, .-V_CalcPowerupCshift
	.align 2
	.globl V_CalcBlend
	.type	V_CalcBlend, @function
V_CalcBlend:
.LFB50:
	.loc 1 482 0
	.cfi_startproc
.LVL66:
	.loc 1 486 0
	lis 9,.LANCHOR0+280@ha
	.loc 1 500 0
	li 11,4
	.loc 1 486 0
	lfs 8,.LANCHOR0+280@l(9)
	lis 9,.LC0@ha
	lfs 0,.LC0@l(9)
	.loc 1 500 0
	mtctr 11
	.loc 1 486 0
	lis 9,cl+304@ha
	.loc 1 482 0
	stwu 1,-40(1)
.LCFI22:
	.cfi_def_cfa_offset 40
	.loc 1 486 0
	fcmpu 7,8,0
	la 9,cl+304@l(9)
	.loc 1 488 0
	fmr 11,0
	lis 10,.LC2@ha
	.loc 1 486 0
	crnot 30,30
	.loc 1 487 0
	fmr 10,0
	.loc 1 486 0
	fmr 9,0
	.loc 1 496 0
	lis 7,.LC6@ha
	.loc 1 500 0
	fmr 6,0
	.loc 1 496 0
	lis 8,.LC21@ha
	.loc 1 486 0
	mfcr 0
	rlwinm 0,0,31,1
	cmpwi 7,0,0
	.loc 1 496 0
	lis 0,0x4330
.LVL67:
.L104:
	.loc 1 493 0
	beq- 7,.L103
	.loc 1 496 0
	lwz 11,0(9)
	stw 0,8(1)
	xoris 11,11,0x8000
	lfs 13,.LC6@l(7)
	stw 11,12(1)
	lfd 7,.LC21@l(8)
	lfd 12,8(1)
	fsub 12,12,13
	frsp 12,12
	fmuls 12,12,8
	fmul 12,12,7
	frsp 12,12
.LVL68:
	.loc 1 500 0
	fcmpu 6,12,6
	beq- 6,.L103
	.loc 1 502 0
	lfs 7,.LC2@l(10)
	.loc 1 505 0
	lwz 5,-12(9)
	.loc 1 502 0
	fsubs 5,7,0
	.loc 1 506 0
	lwz 6,-8(9)
	.loc 1 507 0
	lwz 11,-4(9)
	.loc 1 505 0
	xoris 5,5,0x8000
	.loc 1 506 0
	xoris 6,6,0x8000
	.loc 1 505 0
	stw 5,20(1)
	.loc 1 502 0
	fmadds 0,5,12,0
.LVL69:
	.loc 1 507 0
	xoris 11,11,0x8000
	.loc 1 505 0
	stw 0,16(1)
	.loc 1 506 0
	stw 6,28(1)
	.loc 1 504 0
	fdivs 12,12,0
.LVL70:
	.loc 1 506 0
	stw 0,24(1)
	.loc 1 507 0
	stw 11,36(1)
	stw 0,32(1)
	.loc 1 505 0
	lfd 4,16(1)
	.loc 1 506 0
	lfd 5,24(1)
	.loc 1 507 0
	lfd 3,32(1)
	.loc 1 505 0
	fsub 4,4,13
	.loc 1 506 0
	fsub 5,5,13
	.loc 1 507 0
	fsub 13,3,13
	.loc 1 505 0
	frsp 4,4
	.loc 1 506 0
	frsp 5,5
	.loc 1 507 0
	frsp 13,13
	.loc 1 505 0
	fsubs 7,7,12
	fmuls 4,4,12
	.loc 1 506 0
	fmuls 5,5,12
	.loc 1 507 0
	fmuls 12,13,12
.LVL71:
	.loc 1 505 0
	fmadds 9,7,9,4
.LVL72:
	.loc 1 506 0
	fmadds 10,10,7,5
.LVL73:
	.loc 1 507 0
	fmadds 11,11,7,12
.LVL74:
.L103:
	addi 9,9,16
	.loc 1 491 0
	bdnz .L104
	.loc 1 514 0
	lis 9,.LC22@ha
	.loc 1 518 0
	lfs 12,.LC2@l(10)
	.loc 1 514 0
	lfd 13,.LC22@l(9)
	lis 11,v_blend@ha
	.loc 1 518 0
	fcmpu 7,0,12
	.loc 1 514 0
	la 9,v_blend@l(11)
	fmul 9,9,13
.LVL75:
	.loc 1 517 0
	stfs 0,12(9)
	.loc 1 515 0
	fmul 10,10,13
.LVL76:
	.loc 1 516 0
	fmul 13,11,13
	.loc 1 514 0
	frsp 9,9
	.loc 1 515 0
	frsp 10,10
	.loc 1 516 0
	frsp 13,13
	.loc 1 514 0
	stfs 9,v_blend@l(11)
	.loc 1 515 0
	stfs 10,4(9)
	.loc 1 516 0
	stfs 13,8(9)
	.loc 1 518 0
	bng- 7,.L112
	.loc 1 519 0
	stfs 12,12(9)
.L102:
	.loc 1 522 0
	addi 1,1,40
	.cfi_remember_state
.LCFI23:
	.cfi_def_cfa_offset 0
	blr
.L112:
.LCFI24:
	.cfi_restore_state
	.loc 1 520 0
	lis 11,.LC0@ha
	lfs 13,.LC0@l(11)
	fcmpu 7,0,13
	bnl- 7,.L102
	.loc 1 521 0
	stfs 13,12(9)
	.loc 1 522 0
	addi 1,1,40
.LCFI25:
	.cfi_def_cfa_offset 0
	blr
	.cfi_endproc
.LFE50:
	.size	V_CalcBlend, .-V_CalcBlend
	.align 2
	.globl V_UpdatePalette
	.type	V_UpdatePalette, @function
V_UpdatePalette:
.LFB51:
	.loc 1 532 0
	.cfi_startproc
	mflr 0
	stwu 1,-832(1)
.LCFI26:
	.cfi_def_cfa_offset 832
	.cfi_register 65, 0
	stw 31,828(1)
	.loc 1 543 0
	li 31,0
	.cfi_offset 31, -4
	.loc 1 532 0
	stw 0,836(1)
	.loc 1 541 0
	.cfi_offset 65, 4
	bl V_CalcPowerupCshift
.LVL77:
	lis 8,cl+368@ha
	.loc 1 545 0
	li 7,0
	.loc 1 541 0
	la 8,cl+368@l(8)
	addi 6,8,-368
.LVL78:
.L117:
	.loc 1 547 0
	lwz 0,-64(8)
	lwz 9,0(8)
	cmpw 7,0,9
	beq- 7,.L114
.LVL79:
	.loc 1 550 0
	stw 0,0(8)
	.loc 1 549 0
	li 31,1
.LVL80:
.L114:
	.loc 1 531 0 discriminator 1
	slwi 9,7,4
	li 11,0
	add 9,6,9
	addi 9,9,352
.LVL81:
.L116:
	.loc 1 553 0
	lwz 0,-60(9)
	.loc 1 552 0
	cmpwi 7,11,2
	.loc 1 553 0
	lwzu 10,4(9)
	.loc 1 552 0
	addi 11,11,1
	.loc 1 553 0
	cmpw 6,0,10
	beq- 6,.L115
.LVL82:
	.loc 1 556 0
	stw 0,0(9)
	.loc 1 555 0
	li 31,1
.LVL83:
.L115:
	.loc 1 552 0
	bne+ 7,.L116
.LVL84:
	.loc 1 545 0
	cmpwi 7,7,3
	addi 8,8,16
	addi 7,7,1
.LVL85:
	bne+ 7,.L117
	.loc 1 561 0
	lwz 0,320(6)
	lis 11,host_frametime@ha
	lis 9,.LC6@ha
	lfd 0,host_frametime@l(11)
	xoris 0,0,0x8000
	lfs 13,.LC6@l(9)
	stw 0,780(1)
	lis 0,0x4330
	stw 0,776(1)
	lis 11,.LC24@ha
	.loc 1 531 0
	fneg 0,0
	.loc 1 561 0
	lfd 12,776(1)
	fsub 13,12,13
	lfs 12,.LC24@l(11)
	addi 11,1,816
	fmadd 13,0,12,13
	fctiwz 13,13
	stfiwx 13,0,11
	lwz 0,816(1)
	.loc 1 562 0
	cmpwi 7,0,0
	.loc 1 561 0
	stw 0,320(6)
	.loc 1 562 0
	ble- 7,.L131
.L118:
	.loc 1 566 0
	lwz 0,336(6)
	lfs 13,.LC6@l(9)
	lis 9,.LC26@ha
	xoris 0,0,0x8000
	stw 0,788(1)
	lis 0,0x4330
	stw 0,784(1)
	lfd 12,784(1)
	fsub 13,12,13
	lfs 12,.LC26@l(9)
	addi 9,1,812
	fmadd 0,0,12,13
	fctiwz 0,0
	stfiwx 0,0,9
	lwz 0,812(1)
	.loc 1 567 0
	cmpwi 7,0,0
	.loc 1 566 0
	stw 0,336(6)
	.loc 1 567 0
	ble- 7,.L132
.L119:
	.loc 1 570 0
	bl V_CheckGamma
.LVL86:
	.loc 1 571 0
	cmpwi 7,31,0
	bne- 7,.L120
	.loc 1 571 0 is_stmt 0 discriminator 1
	cmpwi 7,3,0
	beq- 7,.L113
.L120:
	.loc 1 574 0 is_stmt 1
	bl V_CalcBlend
.LVL87:
	.loc 1 576 0
	lis 11,v_blend@ha
	la 9,v_blend@l(11)
	.loc 1 577 0
	lis 10,.LC16@ha
	lfs 0,.LC16@l(10)
	lis 8,gammatable@ha
	lfs 7,v_blend@l(11)
	.loc 1 594 0
	li 11,256
	.loc 1 578 0
	lfs 8,4(9)
	.loc 1 594 0
	mtctr 11
	.loc 1 579 0
	lfs 9,8(9)
	.loc 1 577 0
	fmuls 7,7,0
	.loc 1 578 0
	fmuls 8,8,0
	.loc 1 582 0
	li 7,0
	.loc 1 579 0
	fmuls 9,9,0
	.loc 1 576 0
	lfs 0,12(9)
.LVL88:
	.loc 1 581 0
	lis 9,.LC2@ha
	la 8,gammatable@l(8)
	lfs 13,.LC2@l(9)
	.loc 1 577 0
	fmuls 7,7,0
.LVL89:
	.loc 1 584 0
	lis 9,.LC6@ha
	.loc 1 578 0
	fmuls 8,8,0
.LVL90:
	.loc 1 579 0
	fmuls 9,9,0
.LVL91:
	.loc 1 584 0
	lfs 10,.LC6@l(9)
	.loc 1 581 0
	fsubs 13,13,0
.LVL92:
	lis 9,ramps-1@ha
	la 9,ramps-1@l(9)
	.loc 1 584 0
	lis 6,0x4330
.LVL93:
.L125:
	xoris 0,7,0x8000
	stw 6,792(1)
	stw 0,796(1)
	.loc 1 594 0
	addi 11,1,808
	.loc 1 586 0
	addi 9,9,1
	.loc 1 582 0
	addi 7,7,1
	.loc 1 584 0
	lfd 0,792(1)
	fsub 0,0,10
	frsp 0,0
	fmadds 11,0,13,7
.LVL94:
	.loc 1 585 0
	fmadds 12,0,13,8
	.loc 1 586 0
	fmadds 0,0,13,9
	.loc 1 594 0
	fctiwz 11,11
.LVL95:
	.loc 1 585 0
	fctiwz 12,12
	.loc 1 586 0
	fctiwz 0,0
	.loc 1 594 0
	stfiwx 11,0,11
	.loc 1 585 0
	addi 11,1,800
	stfiwx 12,0,11
	.loc 1 586 0
	addi 11,1,804
	.loc 1 594 0
	lwz 10,808(1)
	.loc 1 586 0
	stfiwx 0,0,11
	.loc 1 594 0
	cmpwi 1,10,255
	.loc 1 585 0
	lwz 11,800(1)
.LVL96:
	.loc 1 586 0
	lwz 0,804(1)
.LVL97:
	.loc 1 595 0
	cmpwi 6,11,255
	.loc 1 596 0
	cmpwi 7,0,255
	.loc 1 594 0
	ble- 1,.L122
	li 10,255
.L122:
	lbzx 10,8,10
	stb 10,0(9)
	.loc 1 595 0
	ble- 6,.L123
	li 11,255
.L123:
	lbzx 11,8,11
	stb 11,256(9)
	.loc 1 596 0
	ble- 7,.L124
	li 0,255
.L124:
.LVL98:
	lbzx 0,8,0
	stb 0,512(9)
	.loc 1 582 0
	bdnz .L125
	.loc 1 599 0
	lis 9,host_basepal@ha
	li 0,256
	lis 10,ramps@ha
	lwz 8,host_basepal@l(9)
.LVL99:
	mtctr 0
	li 11,0
	la 10,ramps@l(10)
.LVL100:
.L126:
	.loc 1 604 0 discriminator 2
	lbzx 0,8,11
	.loc 1 531 0 discriminator 2
	add 9,8,11
	.loc 1 605 0 discriminator 2
	lbz 7,1(9)
.LVL101:
	.loc 1 606 0 discriminator 2
	lbz 6,2(9)
.LVL102:
	.loc 1 609 0 discriminator 2
	addi 9,1,8
	lbzx 0,10,0
	.loc 1 610 0 discriminator 2
	add 7,10,7
.LVL103:
	.loc 1 611 0 discriminator 2
	add 6,10,6
.LVL104:
	.loc 1 610 0 discriminator 2
	lbz 7,256(7)
	.loc 1 609 0 discriminator 2
	stbux 0,9,11
	.loc 1 611 0 discriminator 2
	addi 11,11,3
.LVL105:
	lbz 0,512(6)
	.loc 1 610 0 discriminator 2
	stb 7,1(9)
	.loc 1 611 0 discriminator 2
	stb 0,2(9)
	.loc 1 602 0 discriminator 2
	bdnz .L126
	.loc 1 615 0
	addi 3,1,8
	bl VID_ShiftPalette
.LVL106:
.L113:
	.loc 1 616 0
	lwz 0,836(1)
	lwz 31,828(1)
	mtlr 0
	addi 1,1,832
	.cfi_remember_state
.LCFI27:
	.cfi_def_cfa_offset 0
	.cfi_restore 31
	blr
.LVL107:
.L131:
.LCFI28:
	.cfi_restore_state
	.loc 1 563 0
	li 0,0
	stw 0,320(6)
	b .L118
.L132:
	.loc 1 568 0
	li 0,0
	stw 0,336(6)
	b .L119
	.cfi_endproc
.LFE51:
	.size	V_UpdatePalette, .-V_UpdatePalette
	.align 2
	.globl angledelta
	.type	angledelta, @function
angledelta:
.LFB52:
	.loc 1 697 0
	.cfi_startproc
.LVL108:
	mflr 0
	stwu 1,-8(1)
.LCFI29:
	.cfi_def_cfa_offset 8
	.cfi_register 65, 0
	stw 0,12(1)
	.loc 1 698 0
	.cfi_offset 65, 4
	bl anglemod
.LVL109:
	.loc 1 699 0
	lis 9,.LC27@ha
	lfs 0,.LC27@l(9)
	fcmpu 7,1,0
	bng- 7,.L134
	.loc 1 700 0
	lis 9,.LC28@ha
	lfs 0,.LC28@l(9)
	fsubs 1,1,0
.LVL110:
.L134:
	.loc 1 702 0
	lwz 0,12(1)
	addi 1,1,8
.LCFI30:
	.cfi_def_cfa_offset 0
	mtlr 0
	blr
	.cfi_endproc
.LFE52:
	.size	angledelta, .-angledelta
	.align 2
	.globl CalcGunAngle
	.type	CalcGunAngle, @function
CalcGunAngle:
.LFB53:
	.loc 1 710 0
	.cfi_startproc
	stwu 1,-64(1)
.LCFI31:
	.cfi_def_cfa_offset 64
	mflr 0
	stw 29,12(1)
	.loc 1 715 0
	lis 29,r_refdef@ha
	.cfi_offset 29, -52
	.cfi_register 65, 0
	la 29,r_refdef@l(29)
	.loc 1 710 0
	stfd 30,48(1)
	.loc 1 715 0
	lfs 1,128(29)
.LVL111:
	.loc 1 710 0
	stfd 31,56(1)
	.loc 1 718 0
	fsubs 1,1,1
	.loc 1 710 0
	stw 30,16(1)
	stw 31,20(1)
	.loc 1 718 0
	lis 30,.LC30@ha
	.cfi_offset 31, -44
	.cfi_offset 30, -48
	.cfi_offset 63, -8
	.cfi_offset 62, -16
	.loc 1 710 0
	stw 0,68(1)
	.loc 1 719 0
	lis 31,.LC18@ha
	.loc 1 710 0
	stfd 27,24(1)
	stfd 28,32(1)
	stfd 29,40(1)
	.loc 1 716 0
	lfs 30,124(29)
.LVL112:
	.loc 1 718 0
	.cfi_offset 61, -24
	.cfi_offset 60, -32
	.cfi_offset 59, -40
	.cfi_offset 65, 4
	bl angledelta
.LVL113:
	fmr 31,1
	lfd 13,.LC30@l(30)
	.loc 1 719 0
	lfs 0,.LC18@l(31)
	.loc 1 718 0
	fmul 31,31,13
	frsp 31,31
.LVL114:
	.loc 1 719 0
	fcmpu 7,31,0
	bgt- 7,.L147
	.loc 1 721 0
	lis 9,.LC29@ha
	lfs 0,.LC29@l(9)
	fcmpu 7,31,0
	bnl- 7,.L138
.L147:
	.loc 1 722 0
	fmr 31,0
.LVL115:
.L138:
	.loc 1 723 0
	lfs 1,124(29)
	fsubs 1,30,1
	bl angledelta
	lfd 13,.LC30@l(30)
	.loc 1 724 0
	lfs 0,.LC18@l(31)
	.loc 1 723 0
	fmul 13,1,13
	frsp 13,13
.LVL116:
	.loc 1 724 0
	fcmpu 7,13,0
	bgt- 7,.L149
	.loc 1 726 0
	lis 9,.LC29@ha
	lfs 0,.LC29@l(9)
	fcmpu 7,13,0
	bnl- 7,.L139
.L149:
	.loc 1 727 0
	fmr 13,0
.LVL117:
.L139:
	.loc 1 728 0
	lis 11,host_frametime@ha
	.loc 1 729 0
	lis 9,.LANCHOR1@ha
	.loc 1 728 0
	lfd 11,host_frametime@l(11)
	.loc 1 729 0
	la 9,.LANCHOR1@l(9)
	.loc 1 728 0
	lis 11,.LC32@ha
	.loc 1 729 0
	lfs 12,4(9)
	.loc 1 728 0
	lfs 0,.LC32@l(11)
	.loc 1 729 0
	fcmpu 7,31,12
	.loc 1 728 0
	fmul 0,11,0
	frsp 0,0
.LVL118:
	.loc 1 729 0
	bng- 7,.L154
	.loc 1 731 0
	fadds 12,0,12
	fcmpu 7,12,31
	blt- 7,.L151
.L142:
	.loc 1 740 0
	lfs 12,8(9)
	fcmpu 7,13,12
	bng- 7,.L155
.L157:
	.loc 1 742 0
	fadds 0,0,12
.LVL119:
	fcmpu 7,0,13
	bnl- 7,.L156
.L145:
.LVL120:
	.loc 1 757 0
	lis 31,.LANCHOR0@ha
	lis 30,cl@ha
	la 31,.LANCHOR0@l(31)
	la 30,cl@l(30)
	lfd 29,568(30)
	lfs 1,320(31)
	.loc 1 751 0
	stfs 31,4(9)
	.loc 1 757 0
	fmul 1,29,1
	.loc 1 752 0
	stfs 0,8(9)
	.loc 1 755 0
	lfs 27,124(29)
	.loc 1 757 0
	lfs 30,300(31)
	.loc 1 755 0
	fadds 27,0,27
	.loc 1 754 0
	lfs 28,128(29)
	.loc 1 757 0
	bl sin
.LVL121:
	lfs 13,2860(30)
	fmul 0,30,1
	lfs 12,340(31)
	.loc 1 758 0
	lfs 11,360(31)
	.loc 1 755 0
	fneg 27,27
	.loc 1 758 0
	fmul 1,29,11
	.loc 1 709 0
	fneg 0,0
	.loc 1 754 0
	fadds 28,31,28
	.loc 1 757 0
	fmadd 0,0,12,13
	frsp 0,0
	stfs 0,2860(30)
	.loc 1 758 0
	bl sin
	fmr 13,27
	fmul 0,30,1
	lfs 12,380(31)
	.loc 1 759 0
	lfs 11,400(31)
	fmul 1,29,11
	.loc 1 709 0
	fneg 0,0
	.loc 1 758 0
	fmadd 0,0,12,13
	frsp 0,0
	stfs 0,2852(30)
	.loc 1 759 0
	bl sin
	fmr 0,28
	fmul 30,30,1
	lfs 13,420(31)
	.loc 1 760 0
	lwz 0,68(1)
	lwz 29,12(1)
	mtlr 0
	lwz 31,20(1)
	.loc 1 709 0
	fneg 28,30
	.loc 1 760 0
	lfd 27,24(1)
	lfd 29,40(1)
	lfd 30,48(1)
	.loc 1 759 0
	fmadd 28,28,13,0
	.loc 1 760 0
	lfd 31,56(1)
.LVL122:
	.loc 1 759 0
	frsp 28,28
	stfs 28,2856(30)
	.loc 1 760 0
	lwz 30,16(1)
	lfd 28,32(1)
	addi 1,1,64
	.cfi_remember_state
.LCFI32:
	.cfi_def_cfa_offset 0
	.cfi_restore 63
	.cfi_restore 62
	.cfi_restore 61
	.cfi_restore 60
	.cfi_restore 59
	.cfi_restore 31
	.cfi_restore 30
	.cfi_restore 29
	blr
.LVL123:
.L154:
.LCFI33:
	.cfi_restore_state
	.loc 1 736 0
	fsubs 12,12,0
	fcmpu 7,12,31
	bng- 7,.L142
.L151:
	.loc 1 737 0
	fmr 31,12
.LVL124:
	.loc 1 740 0
	lfs 12,8(9)
.LVL125:
	fcmpu 7,13,12
	bgt- 7,.L157
.L155:
	.loc 1 747 0
	fsubs 0,12,0
.LVL126:
	fcmpu 7,0,13
	bgt+ 7,.L145
.L156:
	fmr 0,13
	b .L145
	.cfi_endproc
.LFE53:
	.size	CalcGunAngle, .-CalcGunAngle
	.align 2
	.globl V_BoundOffsets
	.type	V_BoundOffsets, @function
V_BoundOffsets:
.LFB54:
	.loc 1 768 0
	.cfi_startproc
	.loc 1 771 0
	lis 9,cl+2676@ha
	.loc 1 776 0
	lis 10,.LC33@ha
	.loc 1 771 0
	lwz 11,cl+2676@l(9)
	lis 9,cl_entities@ha
	la 0,cl_entities@l(9)
	.loc 1 776 0
	lfs 13,.LC33@l(10)
	.loc 1 771 0
	mulli 11,11,584
	.loc 1 776 0
	lis 9,r_refdef@ha
	la 9,r_refdef@l(9)
	lfs 0,112(9)
	.loc 1 771 0
	add 11,11,0
.LVL127:
	.loc 1 776 0
	lfs 12,112(11)
	fsubs 11,12,13
	fcmpu 7,0,11
	bnl- 7,.L177
	.loc 1 777 0
	stfs 11,112(9)
.L161:
	.loc 1 780 0
	lfs 12,116(11)
	lfs 13,.LC33@l(10)
	lfs 0,116(9)
	fsubs 11,12,13
	fcmpu 7,0,11
	bnl- 7,.L178
.L181:
	.loc 1 781 0
	stfs 11,116(9)
.L165:
	.loc 1 784 0
	lfs 13,120(11)
	lis 11,.LC34@ha
.LVL128:
	lfs 12,.LC34@l(11)
	lfs 0,120(9)
	fsubs 12,13,12
	fcmpu 7,0,12
	blt- 7,.L180
.L179:
	.loc 1 786 0
	lis 11,.LC17@ha
	lfs 12,.LC17@l(11)
	fadds 13,13,12
	fcmpu 7,0,13
	bnglr- 7
	.loc 1 787 0
	stfs 13,120(9)
	blr
.LVL129:
.L177:
	.loc 1 778 0
	fadds 13,12,13
	fcmpu 7,0,13
	bng- 7,.L161
	.loc 1 779 0
	stfs 13,112(9)
	.loc 1 780 0
	lfs 12,116(11)
	lfs 13,.LC33@l(10)
	lfs 0,116(9)
	fsubs 11,12,13
	fcmpu 7,0,11
	blt- 7,.L181
.L178:
	.loc 1 782 0
	fadds 13,12,13
	fcmpu 7,0,13
	bng- 7,.L165
	.loc 1 783 0
	stfs 13,116(9)
	.loc 1 784 0
	lfs 13,120(11)
	lis 11,.LC34@ha
.LVL130:
	lfs 12,.LC34@l(11)
	lfs 0,120(9)
	fsubs 12,13,12
	fcmpu 7,0,12
	bnl+ 7,.L179
.L180:
	.loc 1 785 0
	stfs 12,120(9)
	blr
	.cfi_endproc
.LFE54:
	.size	V_BoundOffsets, .-V_BoundOffsets
	.align 2
	.globl V_AddIdle
	.type	V_AddIdle, @function
V_AddIdle:
.LFB55:
	.loc 1 798 0
	.cfi_startproc
	mflr 0
	stwu 1,-32(1)
.LCFI34:
	.cfi_def_cfa_offset 32
	.cfi_register 65, 0
	.loc 1 799 0
	lis 9,cl+568@ha
	.loc 1 798 0
	stw 31,12(1)
	.loc 1 799 0
	lis 31,.LANCHOR0@ha
	.cfi_offset 31, -20
	.loc 1 798 0
	stw 0,36(1)
	.loc 1 799 0
	la 31,.LANCHOR0@l(31)
	.loc 1 798 0
	stfd 30,16(1)
	.loc 1 799 0
	lfs 1,320(31)
	lfd 30,cl+568@l(9)
	.cfi_offset 62, -16
	.cfi_offset 65, 4
	.loc 1 798 0
	stfd 31,24(1)
	.loc 1 799 0
	fmul 1,30,1
	lfs 31,300(31)
	.cfi_offset 63, -8
	.loc 1 798 0
	stw 30,8(1)
	.loc 1 799 0
	lis 30,r_refdef@ha
	.cfi_offset 30, -24
	la 30,r_refdef@l(30)
	bl sin
	lfs 12,132(30)
	fmul 1,31,1
	lfs 0,340(31)
	.loc 1 800 0
	lfs 13,360(31)
	.loc 1 799 0
	fmadd 0,1,0,12
	.loc 1 800 0
	fmul 1,30,13
	.loc 1 799 0
	frsp 0,0
	stfs 0,132(30)
	.loc 1 800 0
	bl sin
	fmul 1,31,1
	lfs 12,124(30)
	lfs 0,380(31)
	.loc 1 801 0
	lfs 13,400(31)
	.loc 1 800 0
	fmadd 0,1,0,12
	.loc 1 801 0
	fmul 1,30,13
	.loc 1 800 0
	frsp 0,0
	stfs 0,124(30)
	.loc 1 801 0
	bl sin
	fmul 31,31,1
	lfs 0,128(30)
	lfs 13,420(31)
	.loc 1 802 0
	lwz 0,36(1)
	lwz 31,12(1)
	.loc 1 801 0
	fmadd 31,31,13,0
	.loc 1 802 0
	mtlr 0
	lfd 30,16(1)
	.loc 1 801 0
	frsp 31,31
	stfs 31,128(30)
	.loc 1 802 0
	lwz 30,8(1)
	lfd 31,24(1)
	addi 1,1,32
.LCFI35:
	.cfi_def_cfa_offset 0
	.cfi_restore 63
	.cfi_restore 62
	.cfi_restore 31
	.cfi_restore 30
	blr
	.cfi_endproc
.LFE55:
	.size	V_AddIdle, .-V_AddIdle
	.align 2
	.globl V_CalcViewRoll
	.type	V_CalcViewRoll, @function
V_CalcViewRoll:
.LFB56:
	.loc 1 813 0
	.cfi_startproc
	mflr 0
	stwu 1,-16(1)
.LCFI36:
	.cfi_def_cfa_offset 16
	.cfi_register 65, 0
	.loc 1 816 0
	lis 3,cl_entities@ha
	.loc 1 813 0
	stw 31,12(1)
	.loc 1 816 0
	lis 31,cl@ha
	.cfi_offset 31, -4
	.loc 1 813 0
	stw 0,20(1)
	.loc 1 816 0
	la 31,cl@l(31)
	la 3,cl_entities@l(3)
	addi 4,31,480
	lwz 0,2676(31)
	.cfi_offset 65, 4
	mulli 0,0,584
	add 3,3,0
	addi 3,3,148
	bl V_CalcRoll
.LVL131:
	.loc 1 819 0
	lis 11,v_dmg_time@ha
	.loc 1 817 0
	lis 9,r_refdef@ha
	.loc 1 819 0
	lis 10,.LC0@ha
	.loc 1 817 0
	la 9,r_refdef@l(9)
	.loc 1 819 0
	lfs 0,v_dmg_time@l(11)
	lfs 12,.LC0@l(10)
	.loc 1 817 0
	lfs 13,132(9)
	.loc 1 819 0
	fcmpu 7,0,12
	.loc 1 817 0
	fadds 13,1,13
	stfs 13,132(9)
	.loc 1 819 0
	bng- 7,.L184
	.loc 1 821 0
	lis 10,.LANCHOR0+228@ha
	.loc 1 823 0
	fmr 8,0
	.loc 1 821 0
	lfs 12,.LANCHOR0+228@l(10)
	.loc 1 823 0
	lis 10,host_frametime@ha
	.loc 1 822 0
	lfs 11,124(9)
	.loc 1 821 0
	fdivs 0,0,12
	.loc 1 823 0
	lfd 12,host_frametime@l(10)
	.loc 1 821 0
	lis 10,v_dmg_roll@ha
	lfs 9,v_dmg_roll@l(10)
	.loc 1 822 0
	lis 10,v_dmg_pitch@ha
	lfs 10,v_dmg_pitch@l(10)
	.loc 1 823 0
	fsub 12,8,12
	.loc 1 821 0
	fmadds 13,0,9,13
	.loc 1 822 0
	fmadds 0,0,10,11
	.loc 1 823 0
	frsp 12,12
	.loc 1 821 0
	stfs 13,132(9)
	.loc 1 822 0
	stfs 0,124(9)
	.loc 1 823 0
	stfs 12,v_dmg_time@l(11)
.L184:
	.loc 1 826 0
	lwz 0,28(31)
	cmpwi 7,0,0
	bgt+ 7,.L183
	.loc 1 828 0
	lis 11,.LC35@ha
	lwz 0,.LC35@l(11)
	stw 0,132(9)
.L183:
	.loc 1 832 0
	lwz 0,20(1)
	lwz 31,12(1)
	mtlr 0
	addi 1,1,16
.LCFI37:
	.cfi_def_cfa_offset 0
	.cfi_restore 31
	blr
	.cfi_endproc
.LFE56:
	.size	V_CalcViewRoll, .-V_CalcViewRoll
	.align 2
	.globl V_CalcIntermissionRefdef
	.type	V_CalcIntermissionRefdef, @function
V_CalcIntermissionRefdef:
.LFB57:
	.loc 1 842 0
	.cfi_startproc
	.loc 1 847 0
	lis 11,cl@ha
	.loc 1 842 0
	mflr 0
	.loc 1 847 0
	la 11,cl@l(11)
	.loc 1 842 0
	stwu 1,-16(1)
.LCFI38:
	.cfi_def_cfa_offset 16
	.cfi_register 65, 0
	.loc 1 847 0
	lwz 9,2676(11)
	lis 10,cl_entities@ha
	.loc 1 842 0
	stw 0,20(1)
	.loc 1 847 0
	la 0,cl_entities@l(10)
	.cfi_offset 65, 4
	mulli 9,9,584
	.loc 1 842 0
	stw 30,8(1)
	stw 31,12(1)
	.loc 1 857 0
	lis 31,.LANCHOR0@ha
	.cfi_offset 31, -4
	.cfi_offset 30, -8
	la 31,.LANCHOR0@l(31)
	.loc 1 847 0
	add 9,9,0
.LVL132:
	.loc 1 857 0
	lwz 30,300(31)
.LVL133:
	.loc 1 853 0
	lwz 0,156(9)
	.loc 1 851 0
	lwz 5,112(9)
	lwz 6,116(9)
	lwz 7,120(9)
	.loc 1 853 0
	lwz 8,148(9)
	lwz 10,152(9)
	.loc 1 851 0
	lis 9,r_refdef@ha
.LVL134:
	la 9,r_refdef@l(9)
	.loc 1 853 0
	stw 0,132(9)
	.loc 1 854 0
	li 0,0
	.loc 1 851 0
	stw 5,112(9)
	stw 6,116(9)
	stw 7,120(9)
	.loc 1 853 0
	stw 8,124(9)
	stw 10,128(9)
	.loc 1 858 0
	lis 9,.LC2@ha
	.loc 1 854 0
	stw 0,2864(11)
	.loc 1 858 0
	lwz 0,.LC2@l(9)
	stw 0,300(31)
	.loc 1 859 0
	bl V_AddIdle
.LVL135:
	.loc 1 861 0
	lwz 0,20(1)
	.loc 1 860 0
	stw 30,300(31)
	.loc 1 861 0
	mtlr 0
	lwz 30,8(1)
.LVL136:
	lwz 31,12(1)
	addi 1,1,16
.LCFI39:
	.cfi_def_cfa_offset 0
	.cfi_restore 31
	.cfi_restore 30
	blr
	.cfi_endproc
.LFE57:
	.size	V_CalcIntermissionRefdef, .-V_CalcIntermissionRefdef
	.align 2
	.globl V_CalcRefdef
	.type	V_CalcRefdef, @function
V_CalcRefdef:
.LFB58:
	.loc 1 870 0
	.cfi_startproc
	stwu 1,-88(1)
.LCFI40:
	.cfi_def_cfa_offset 88
	mflr 0
	stw 31,76(1)
	.loc 1 881 0
	lis 31,cl@ha
	.cfi_offset 31, -12
	.cfi_register 65, 0
	la 31,cl@l(31)
	.loc 1 870 0
	stw 0,92(1)
	stfd 31,80(1)
	stw 26,56(1)
	.loc 1 917 0
	addi 26,1,32
	.cfi_offset 26, -32
	.cfi_offset 63, -8
	.cfi_offset 65, 4
	.loc 1 870 0
	stw 27,60(1)
	.loc 1 917 0
	addi 27,1,20
	.cfi_offset 27, -28
	.loc 1 870 0
	stw 28,64(1)
	.loc 1 917 0
	addi 28,1,44
	.cfi_offset 28, -24
	.loc 1 870 0
	stw 29,68(1)
	stw 30,72(1)
	.loc 1 878 0
	.cfi_offset 30, -16
	.cfi_offset 29, -20
	bl V_DriftPitch
	.loc 1 881 0
	lwz 29,2676(31)
	lis 9,cl_entities@ha
	.loc 1 890 0
	lfs 0,444(31)
	.loc 1 881 0
	la 9,cl_entities@l(9)
	mulli 29,29,584
	.loc 1 888 0
	lwz 0,448(31)
	.loc 1 890 0
	fneg 0,0
	.loc 1 903 0
	lis 30,r_refdef@ha
	la 30,r_refdef@l(30)
	.loc 1 881 0
	add 29,29,9
.LVL137:
	.loc 1 888 0
	stw 0,152(29)
	.loc 1 890 0
	stfs 0,148(29)
	.loc 1 894 0
	bl V_CalcBob
	.loc 1 898 0
	lfs 11,528(31)
	lfs 13,120(29)
	.loc 1 903 0
	lis 9,.LC36@ha
	.loc 1 898 0
	fadds 11,1,11
	.loc 1 903 0
	lfs 0,.LC36@l(9)
	lfs 12,112(29)
	.loc 1 894 0
	fmr 31,1
.LVL138:
	.loc 1 907 0
	lwz 11,444(31)
	.loc 1 898 0
	fadds 11,11,13
	.loc 1 897 0
	lfs 13,116(29)
	.loc 1 903 0
	fadds 12,12,0
	.loc 1 907 0
	lwz 9,448(31)
	.loc 1 904 0
	fadds 13,13,0
	.loc 1 907 0
	lwz 0,452(31)
	.loc 1 905 0
	fadds 0,11,0
	.loc 1 907 0
	stw 11,124(30)
	.loc 1 903 0
	stfs 12,112(30)
	.loc 1 904 0
	stfs 13,116(30)
	.loc 1 905 0
	stfs 0,120(30)
	.loc 1 907 0
	stw 9,128(30)
	stw 0,132(30)
	.loc 1 908 0
	bl V_CalcViewRoll
.LVL139:
	.loc 1 909 0
	bl V_AddIdle
	.loc 1 912 0
	lfs 0,148(29)
	.loc 1 914 0
	lwz 9,152(29)
	.loc 1 917 0
	addi 3,1,8
	.loc 1 912 0
	fneg 0,0
	.loc 1 915 0
	lwz 0,156(29)
	.loc 1 917 0
	mr 4,28
	mr 5,26
	mr 6,27
	.loc 1 914 0
	stw 9,12(1)
	.loc 1 912 0
	stfs 0,8(1)
	.loc 1 915 0
	stw 0,16(1)
	.loc 1 917 0
	bl AngleVectors
.LVL140:
	lis 9,.LANCHOR0@ha
	addi 11,30,112
	la 9,.LANCHOR0@l(9)
	lfs 8,440(9)
	lfs 9,460(9)
	lfs 10,480(9)
	li 9,0
.LVL141:
.L190:
	.loc 1 921 0 discriminator 2
	lfsx 0,26,9
	.loc 1 919 0 discriminator 2
	cmpwi 7,9,8
	.loc 1 921 0 discriminator 2
	lfsx 11,28,9
	fmuls 0,9,0
	.loc 1 922 0 discriminator 2
	lfsx 12,27,9
	.loc 1 920 0 discriminator 2
	lfs 13,0(11)
	.loc 1 919 0 discriminator 2
	addi 9,9,4
	.loc 1 921 0 discriminator 2
	fmadds 0,11,8,0
	.loc 1 922 0 discriminator 2
	fmadds 0,12,10,0
	.loc 1 920 0 discriminator 2
	fadds 0,13,0
	stfs 0,0(11)
	addi 11,11,4
	.loc 1 919 0 discriminator 2
	bne+ 7,.L190
	.loc 1 925 0
	bl V_BoundOffsets
	.loc 1 928 0
	lwz 11,444(31)
	lwz 9,448(31)
	lwz 0,452(31)
	stw 11,2852(31)
	stw 9,2856(31)
	stw 0,2860(31)
	.loc 1 930 0
	bl CalcGunAngle
	.loc 1 933 0
	lfs 13,528(31)
	.loc 1 932 0
	lfs 12,120(29)
	.loc 1 937 0
	lis 9,.LC30@ha
	lfd 11,.LC30@l(9)
	.loc 1 933 0
	li 9,0
	fadds 13,12,13
	.loc 1 932 0
	lfs 0,112(29)
	.loc 1 935 0
	cmpwi 7,9,8
	.loc 1 932 0
	lwz 0,116(29)
	stfs 0,2816(31)
	.loc 1 933 0
	addi 11,31,2812
	stfs 13,2824(31)
.LVL142:
	addi 10,31,2816
	.loc 1 937 0
	lfsx 13,28,9
	.loc 1 935 0
	addi 9,9,4
	.loc 1 932 0
	stw 0,2820(31)
	.loc 1 937 0
	fmuls 13,31,13
	fmadd 0,13,11,0
	frsp 0,0
	stfsu 0,4(11)
.LVL143:
	.loc 1 935 0
	beq- 7,.L191
.L214:
	.loc 1 937 0
	lfsx 13,28,9
	.loc 1 935 0
	cmpwi 7,9,8
	lfsu 0,4(10)
	addi 9,9,4
	.loc 1 937 0
	fmuls 13,31,13
	fmadd 0,13,11,0
	frsp 0,0
	stfsu 0,4(11)
	.loc 1 935 0
	bne+ 7,.L214
.L191:
	.loc 1 949 0
	lis 9,scr_viewsize+12@ha
	.loc 1 941 0
	lfs 13,2824(31)
	.loc 1 949 0
	lfs 0,scr_viewsize+12@l(9)
	lis 9,.LC37@ha
	lfs 11,.LC37@l(9)
	.loc 1 941 0
	fadds 31,31,13
.LVL144:
	.loc 1 949 0
	fcmpu 7,0,11
	.loc 1 941 0
	stfs 31,2824(31)
	.loc 1 949 0
	beq- 7,.L213
	.loc 1 951 0
	lis 9,.LC26@ha
	lfs 13,.LC26@l(9)
	fcmpu 7,0,13
	bne- 7,.L195
	.loc 1 952 0
	lis 9,.LC38@ha
	lfs 0,.LC38@l(9)
	fadds 31,31,0
	stfs 31,2824(31)
	b .L194
.L195:
	.loc 1 953 0
	lis 9,.LC39@ha
	lfs 13,.LC39@l(9)
	fcmpu 7,0,13
	bne- 7,.L196
.L213:
	.loc 1 954 0
	lis 9,.LC2@ha
	lfs 0,.LC2@l(9)
	fadds 31,31,0
	stfs 31,2824(31)
.L194:
	.loc 1 958 0
	lwz 9,36(31)
	.loc 1 960 0
	lis 10,vid+4@ha
	.loc 1 966 0
	lbz 0,537(31)
	.loc 1 958 0
	addi 9,9,144
	.loc 1 963 0
	lfs 8,124(30)
	lfs 9,128(30)
	.loc 1 958 0
	slwi 9,9,2
	.loc 1 963 0
	lfs 10,132(30)
	.loc 1 958 0
	add 9,31,9
	.loc 1 963 0
	lfs 11,492(31)
	.loc 1 966 0
	cmpwi 7,0,0
	.loc 1 963 0
	lfs 13,496(31)
	lfs 0,500(31)
	fadds 11,8,11
	.loc 1 958 0
	lwz 11,12(9)
	.loc 1 963 0
	fadds 13,9,13
	.loc 1 959 0
	lwz 9,48(31)
	.loc 1 963 0
	fadds 0,10,0
	.loc 1 960 0
	lwz 0,vid+4@l(10)
	.loc 1 959 0
	stw 9,2872(31)
	.loc 1 966 0
	lis 9,.LANCHOR1@ha
	.loc 1 958 0
	stw 11,2864(31)
	.loc 1 966 0
	la 9,.LANCHOR1@l(9)
	.loc 1 960 0
	stw 0,2880(31)
	.loc 1 963 0
	stfs 11,124(30)
	stfs 13,128(30)
	stfs 0,132(30)
	.loc 1 966 0
	beq- 7,.L197
	.loc 1 966 0 is_stmt 0 discriminator 1
	lfs 13,12(9)
	lis 11,.LC0@ha
	lfs 0,.LC0@l(11)
	fsubs 11,12,13
	fcmpu 7,11,0
	bgt- 7,.L215
.L197:
	.loc 1 984 0 is_stmt 1
	stfs 12,12(9)
.L204:
	.loc 1 986 0
	lis 9,chase_active+12@ha
	lfs 13,chase_active+12@l(9)
	lis 9,.LC0@ha
	lfs 0,.LC0@l(9)
	fcmpu 7,13,0
	beq+ 7,.L189
	.loc 1 987 0
	bl Chase_Update
.L189:
	.loc 1 988 0
	lwz 0,92(1)
	lwz 26,56(1)
	mtlr 0
	lwz 27,60(1)
	lwz 28,64(1)
	lwz 29,68(1)
.LVL145:
	lwz 30,72(1)
	lwz 31,76(1)
	lfd 31,80(1)
	addi 1,1,88
	.cfi_remember_state
.LCFI41:
	.cfi_def_cfa_offset 0
	.cfi_restore 63
	.cfi_restore 31
	.cfi_restore 30
	.cfi_restore 29
	.cfi_restore 28
	.cfi_restore 27
	.cfi_restore 26
	blr
.LVL146:
.L215:
.LCFI42:
	.cfi_restore_state
.LBB14:
	.loc 1 970 0
	lfd 10,568(31)
	lfd 11,576(31)
	fsub 11,10,11
	frsp 11,11
.LVL147:
	.loc 1 971 0
	fcmpu 7,11,0
	bnl- 7,.L216
.LVL148:
	.loc 1 975 0
	fadds 0,13,0
	.loc 1 976 0
	fcmpu 7,12,0
	.loc 1 975 0
	stfs 0,12(9)
	.loc 1 976 0
	bnl- 7,.L200
.L217:
	.loc 1 977 0
	fmr 0,12
	stfs 12,12(9)
.L200:
	.loc 1 978 0
	fsubs 11,12,0
	lis 11,.LC40@ha
	lfs 13,.LC40@l(11)
	fcmpu 7,11,13
	bng- 7,.L202
	.loc 1 979 0
	fsubs 0,12,13
	stfs 0,12(9)
.L202:
	.loc 1 980 0
	fsubs 0,0,12
	lfs 13,120(30)
	.loc 1 981 0
	lfs 12,2824(31)
	.loc 1 980 0
	fadds 13,13,0
	.loc 1 981 0
	fadds 0,0,12
	.loc 1 980 0
	stfs 13,120(30)
	.loc 1 981 0
	stfs 0,2824(31)
.LBE14:
	.loc 1 967 0
	b .L204
.LVL149:
.L216:
.LBB15:
	.loc 1 971 0
	lis 11,.LC35@ha
	lfs 0,.LC35@l(11)
	fmuls 0,11,0
.LVL150:
	.loc 1 975 0
	fadds 0,13,0
	.loc 1 976 0
	fcmpu 7,12,0
	.loc 1 975 0
	stfs 0,12(9)
	.loc 1 976 0
	bnl- 7,.L200
	b .L217
.L196:
.LBE15:
	.loc 1 955 0
	lis 9,.LC35@ha
	lfs 13,.LC35@l(9)
	fcmpu 7,0,13
	bne- 7,.L194
	.loc 1 956 0
	lis 9,.LC12@ha
	lfs 0,.LC12@l(9)
	fadds 31,31,0
	stfs 31,2824(31)
	b .L194
	.cfi_endproc
.LFE58:
	.size	V_CalcRefdef, .-V_CalcRefdef
	.align 2
	.globl V_RenderView
	.type	V_RenderView, @function
V_RenderView:
.LFB59:
	.loc 1 1001 0
	.cfi_startproc
	mflr 0
	stwu 1,-40(1)
.LCFI43:
	.cfi_def_cfa_offset 40
	.cfi_register 65, 0
	.loc 1 1002 0
	lis 9,con_forcedup@ha
	.loc 1 1001 0
	stw 25,12(1)
	stw 0,44(1)
	.loc 1 1002 0
	lbz 0,con_forcedup@l(9)
	.cfi_offset 65, 4
	.cfi_offset 25, -28
	.loc 1 1001 0
	stw 26,16(1)
	.loc 1 1002 0
	cmpwi 7,0,0
	.loc 1 1001 0
	stw 27,20(1)
	stw 28,24(1)
	stw 29,28(1)
	stw 30,32(1)
	stw 31,36(1)
	.loc 1 1002 0
	bne- 7,.L218
	.cfi_offset 31, -4
	.cfi_offset 30, -8
	.cfi_offset 29, -12
	.cfi_offset 28, -16
	.cfi_offset 27, -20
	.cfi_offset 26, -24
	.loc 1 1006 0
	lis 31,cl@ha
	la 31,cl@l(31)
	lwz 0,2680(31)
	cmpwi 7,0,1
	ble- 7,.L220
	.loc 1 1008 0
	lis 30,.LC42@ha
	lis 3,.LC41@ha
	la 30,.LC42@l(30)
	la 3,.LC41@l(3)
	mr 4,30
	bl Cvar_Set
	.loc 1 1009 0
	lis 3,.LC43@ha
	la 3,.LC43@l(3)
	mr 4,30
	bl Cvar_Set
	.loc 1 1010 0
	lis 3,.LC44@ha
	la 3,.LC44@l(3)
	mr 4,30
	bl Cvar_Set
.L220:
	.loc 1 1013 0
	lwz 0,540(31)
	cmpwi 7,0,0
	bne- 7,.L228
	.loc 1 1019 0
	lbz 0,536(31)
	cmpwi 7,0,0
	beq- 7,.L229
.L222:
	.loc 1 1025 0
	lis 25,.LANCHOR0@ha
	lis 9,.LC0@ha
	la 25,.LANCHOR0@l(25)
	lfs 0,.LC0@l(9)
	lfs 12,500(25)
	fcmpu 7,12,0
	beq- 7,.L223
.L230:
.LBB16:
	.loc 1 1032 0
	lis 26,vid@ha
	.loc 1 1035 0
	lis 29,r_refdef@ha
	.loc 1 1032 0
	la 30,vid@l(26)
	.loc 1 1035 0
	la 29,r_refdef@l(29)
	.loc 1 1033 0
	lis 9,.LC12@ha
	lfs 10,28(30)
	.loc 1 1035 0
	lfs 11,128(29)
	lis 28,right-4@ha
	.loc 1 1033 0
	lfs 13,.LC12@l(9)
	fneg 12,12
	.loc 1 1035 0
	lfs 0,520(25)
	addi 31,29,108
	.loc 1 1032 0
	lwz 0,16(30)
	.loc 1 1033 0
	fmuls 13,10,13
	.loc 1 1035 0
	fsubs 0,11,0
	la 28,right-4@l(28)
	.loc 1 1032 0
	slwi 0,0,1
	.loc 1 1000 0
	addi 27,29,120
	.loc 1 1032 0
	stw 0,16(30)
.LBE16:
	.loc 1 1000 0
	mr 11,28
.LBB17:
	.loc 1 1033 0
	stfs 13,28(30)
.LBE17:
	.loc 1 1000 0
	mr 9,31
.LBB18:
	.loc 1 1035 0
	stfs 0,128(29)
.LVL151:
.L224:
	.loc 1 1037 0 discriminator 2
	lfsu 0,4(9)
	lfsu 13,4(11)
	.loc 1 1036 0 discriminator 2
	cmpw 7,9,27
	.loc 1 1037 0 discriminator 2
	fmadds 0,12,13,0
	stfs 0,0(9)
	.loc 1 1036 0 discriminator 2
	bne+ 7,.L224
	.loc 1 1038 0
	bl R_RenderView
	.loc 1 1044 0
	lis 11,.LC38@ha
	lfs 13,128(29)
	lfs 12,520(25)
	lfs 0,.LC38@l(11)
	.loc 1 1040 0
	lwz 0,16(30)
	lwz 9,vid@l(26)
	.loc 1 1044 0
	fmadds 0,12,0,13
	.loc 1 1040 0
	srwi 0,0,1
	.loc 1 1044 0
	lfs 12,500(25)
	.loc 1 1040 0
	add 0,9,0
	stw 0,vid@l(26)
	.loc 1 1044 0
	stfs 0,128(29)
.LVL152:
.L225:
	.loc 1 1046 0 discriminator 2
	lfsu 0,4(28)
	lfsu 13,4(31)
	fadds 0,0,0
	.loc 1 1045 0 discriminator 2
	cmpw 7,31,27
	.loc 1 1046 0 discriminator 2
	fmadds 0,0,12,13
	stfs 0,0(31)
	.loc 1 1045 0 discriminator 2
	bne+ 7,.L225
	.loc 1 1047 0
	bl R_RenderView
	.loc 1 1054 0
	lfs 0,28(30)
	.loc 1 1049 0
	lwz 0,16(30)
	lwz 11,vid@l(26)
	.loc 1 1054 0
	fadds 0,0,0
	.loc 1 1051 0
	lwz 9,12(29)
	.loc 1 1049 0
	srwi 0,0,1
	subf 11,0,11
	.loc 1 1053 0
	stw 0,16(30)
	.loc 1 1051 0
	slwi 9,9,1
	.loc 1 1049 0
	stw 11,vid@l(26)
	.loc 1 1051 0
	stw 9,12(29)
	.loc 1 1054 0
	stfs 0,28(30)
.L218:
.LBE18:
	.loc 1 1067 0
	lwz 0,44(1)
	lwz 25,12(1)
	mtlr 0
	lwz 26,16(1)
	lwz 27,20(1)
	lwz 28,24(1)
	lwz 29,28(1)
	lwz 30,32(1)
	lwz 31,36(1)
	addi 1,1,40
	.cfi_remember_state
.LCFI44:
	.cfi_def_cfa_offset 0
	.cfi_restore 31
	.cfi_restore 30
	.cfi_restore 29
	.cfi_restore 28
	.cfi_restore 27
	.cfi_restore 26
	.cfi_restore 25
	blr
.L228:
.LCFI45:
	.cfi_restore_state
	.loc 1 1025 0
	lis 25,.LANCHOR0@ha
	.loc 1 1015 0
	bl V_CalcIntermissionRefdef
	.loc 1 1025 0
	la 25,.LANCHOR0@l(25)
	lis 9,.LC0@ha
	lfs 12,500(25)
	lfs 0,.LC0@l(9)
	fcmpu 7,12,0
	bne+ 7,.L230
.L223:
	.loc 1 1058 0
	bl R_RenderView
	.loc 1 1067 0
	lwz 0,44(1)
	lwz 25,12(1)
	mtlr 0
	lwz 26,16(1)
	lwz 27,20(1)
	lwz 28,24(1)
	lwz 29,28(1)
	lwz 30,32(1)
	lwz 31,36(1)
	addi 1,1,40
	.cfi_remember_state
	.cfi_restore 25
	.cfi_restore 26
	.cfi_restore 27
	.cfi_restore 28
	.cfi_restore 29
	.cfi_restore 30
	.cfi_restore 31
.LCFI46:
	.cfi_def_cfa_offset 0
	blr
.L229:
.LCFI47:
	.cfi_restore_state
	.loc 1 1020 0
	bl V_CalcRefdef
	b .L222
	.cfi_endproc
.LFE59:
	.size	V_RenderView, .-V_RenderView
	.align 2
	.globl V_Init
	.type	V_Init, @function
V_Init:
.LFB60:
	.loc 1 1077 0
	.cfi_startproc
	mflr 0
	stwu 1,-16(1)
.LCFI48:
	.cfi_def_cfa_offset 16
	.cfi_register 65, 0
	.loc 1 1078 0
	lis 3,.LC45@ha
	lis 4,V_cshift_f@ha
	la 3,.LC45@l(3)
	la 4,V_cshift_f@l(4)
	.loc 1 1077 0
	stw 0,20(1)
	stw 31,12(1)
	.loc 1 1078 0
	.cfi_offset 31, -4
	.cfi_offset 65, 4
	bl Cmd_AddCommand
	.loc 1 1079 0
	lis 3,.LC46@ha
	lis 4,V_BonusFlash_f@ha
	la 3,.LC46@l(3)
	la 4,V_BonusFlash_f@l(4)
	bl Cmd_AddCommand
	.loc 1 1082 0
	lis 31,.LANCHOR0@ha
	.loc 1 1080 0
	lis 4,V_StartPitchDrift@ha
	lis 3,.LC47@ha
	la 4,V_StartPitchDrift@l(4)
	.loc 1 1082 0
	la 31,.LANCHOR0@l(31)
	.loc 1 1080 0
	la 3,.LC47@l(3)
	bl Cmd_AddCommand
	.loc 1 1082 0
	addi 3,31,488
	bl Cvar_RegisterVariable
	.loc 1 1083 0
	addi 3,31,508
	bl Cvar_RegisterVariable
	.loc 1 1085 0
	addi 3,31,136
	bl Cvar_RegisterVariable
	.loc 1 1086 0
	addi 3,31,16
	bl Cvar_RegisterVariable
	.loc 1 1088 0
	addi 3,31,388
	bl Cvar_RegisterVariable
	.loc 1 1089 0
	addi 3,31,308
	bl Cvar_RegisterVariable
	.loc 1 1090 0
	addi 3,31,348
	bl Cvar_RegisterVariable
	.loc 1 1091 0
	addi 3,31,408
	bl Cvar_RegisterVariable
	.loc 1 1092 0
	addi 3,31,328
	bl Cvar_RegisterVariable
	.loc 1 1093 0
	addi 3,31,368
	bl Cvar_RegisterVariable
	.loc 1 1095 0
	addi 3,31,288
	bl Cvar_RegisterVariable
	.loc 1 1096 0
	addi 3,31,528
	bl Cvar_RegisterVariable
	.loc 1 1097 0
	addi 3,31,548
	bl Cvar_RegisterVariable
	.loc 1 1098 0
	addi 3,31,568
	bl Cvar_RegisterVariable
	.loc 1 1099 0
	addi 3,31,268
	bl Cvar_RegisterVariable
	.loc 1 1101 0
	addi 3,31,428
	bl Cvar_RegisterVariable
	.loc 1 1102 0
	addi 3,31,448
	bl Cvar_RegisterVariable
	.loc 1 1103 0
	addi 3,31,468
	bl Cvar_RegisterVariable
	.loc 1 1104 0
	addi 3,31,56
	bl Cvar_RegisterVariable
	.loc 1 1105 0
	addi 3,31,36
	bl Cvar_RegisterVariable
	.loc 1 1106 0
	addi 3,31,116
	bl Cvar_RegisterVariable
	.loc 1 1107 0
	addi 3,31,76
	bl Cvar_RegisterVariable
	.loc 1 1108 0
	addi 3,31,96
	bl Cvar_RegisterVariable
	.loc 1 1110 0
	addi 3,31,216
	bl Cvar_RegisterVariable
	.loc 1 1111 0
	addi 3,31,176
	bl Cvar_RegisterVariable
	.loc 1 1112 0
	addi 3,31,196
	bl Cvar_RegisterVariable
	.loc 1 1114 0
	lis 9,.LC2@ha
	lfs 1,.LC2@l(9)
	bl BuildGammaTable
	.loc 1 1115 0
	addi 3,31,156
	bl Cvar_RegisterVariable
	.loc 1 1116 0
	lwz 0,20(1)
	lwz 31,12(1)
	mtlr 0
	addi 1,1,16
.LCFI49:
	.cfi_def_cfa_offset 0
	.cfi_restore 31
	blr
	.cfi_endproc
.LFE60:
	.size	V_Init, .-V_Init
	.comm	v_blend,16,4
	.comm	ramps,768,1
	.comm	gammatable,256,4
	.globl v_gamma
	.globl cshift_lava
	.globl cshift_slime
	.globl cshift_water
	.globl cshift_empty
	.globl v_centerspeed
	.globl v_centermove
	.comm	up,12,4
	.comm	right,12,4
	.comm	forward,12,4
	.comm	v_dmg_pitch,4,4
	.comm	v_dmg_roll,4,4
	.comm	v_dmg_time,4,4
	.globl gl_cshiftpercent
	.globl cl_crossy
	.globl cl_crossx
	.globl crosshair
	.globl v_idlescale
	.globl v_ipitch_level
	.globl v_iroll_level
	.globl v_iyaw_level
	.globl v_ipitch_cycle
	.globl v_iroll_cycle
	.globl v_iyaw_cycle
	.globl v_kickpitch
	.globl v_kickroll
	.globl v_kicktime
	.globl cl_bobup
	.globl cl_bobcycle
	.globl cl_bob
	.globl cl_rollangle
	.globl cl_rollspeed
	.globl scr_ofsz
	.globl scr_ofsy
	.globl scr_ofsx
	.globl lcd_yaw
	.globl lcd_x
	.comm	causticschain,4,4
	.section	.rodata.cst4,"aM",@progbits,4
	.align 2
.LC0:
	.4byte	0
.LC1:
	.4byte	-1082130432
.LC2:
	.4byte	1065353216
.LC3:
	.4byte	1082130432
.LC4:
	.4byte	-1059061760
.LC6:
	.4byte	1501560836
.LC12:
	.4byte	1056964608
.LC14:
	.4byte	1132429312
.LC16:
	.4byte	1132396544
.LC17:
	.4byte	1106247680
.LC18:
	.4byte	1092616192
.LC19:
	.4byte	1077936128
.LC24:
	.4byte	1125515264
.LC26:
	.4byte	1120403456
.LC27:
	.4byte	1127481344
.LC28:
	.4byte	1135869952
.LC29:
	.4byte	-1054867456
.LC32:
	.4byte	1101004800
.LC33:
	.4byte	1096810496
.LC34:
	.4byte	1102053376
.LC35:
	.4byte	1117782016
.LC36:
	.4byte	1023410176
.LC37:
	.4byte	1121714176
.LC38:
	.4byte	1073741824
.LC39:
	.4byte	1119092736
.LC40:
	.4byte	1094713344
	.section	.rodata.cst8,"aM",@progbits,8
	.align 3
.LC7:
	.4byte	1074340347
	.4byte	1413754136
.LC9:
	.4byte	1072064102
	.4byte	1717986918
.LC10:
	.4byte	1070805811
	.4byte	858993459
.LC20:
	.4byte	1070176665
	.4byte	-1717986918
.LC21:
	.4byte	1057263472
	.4byte	-1241753899
.LC22:
	.4byte	1064308752
	.4byte	237839318
.LC30:
	.4byte	1071225241
	.4byte	-1717986918
	.section	".data"
	.align 2
	.set	.LANCHOR0,. + 0
	.type	cshift_empty, @object
	.size	cshift_empty, 16
cshift_empty:
	.long	130
	.long	80
	.long	50
	.long	0
	.type	v_centerspeed, @object
	.size	v_centerspeed, 20
v_centerspeed:
	.long	.LC50
	.long	.LC51
	.zero	12
	.type	cl_rollangle, @object
	.size	cl_rollangle, 20
cl_rollangle:
	.long	.LC78
	.long	.LC79
	.zero	12
	.type	cl_rollspeed, @object
	.size	cl_rollspeed, 20
cl_rollspeed:
	.long	.LC80
	.long	.LC81
	.zero	12
	.type	cl_bobcycle, @object
	.size	cl_bobcycle, 20
cl_bobcycle:
	.long	.LC75
	.long	.LC71
	.byte	0
	.zero	11
	.type	cl_bobup, @object
	.size	cl_bobup, 20
cl_bobup:
	.long	.LC74
	.long	.LC67
	.byte	0
	.zero	11
	.type	cl_bob, @object
	.size	cl_bob, 20
cl_bob:
	.long	.LC76
	.long	.LC77
	.byte	0
	.zero	11
	.type	v_centermove, @object
	.size	v_centermove, 20
v_centermove:
	.long	.LC52
	.long	.LC53
	.byte	0
	.zero	11
	.type	v_gamma, @object
	.size	v_gamma, 20
v_gamma:
	.long	.LC48
	.long	.LC49
	.byte	1
	.zero	11
	.type	v_kickroll, @object
	.size	v_kickroll, 20
v_kickroll:
	.long	.LC72
	.long	.LC71
	.byte	0
	.zero	11
	.type	v_kickpitch, @object
	.size	v_kickpitch, 20
v_kickpitch:
	.long	.LC70
	.long	.LC71
	.byte	0
	.zero	11
	.type	v_kicktime, @object
	.size	v_kicktime, 20
v_kicktime:
	.long	.LC73
	.long	.LC67
	.byte	0
	.zero	11
	.type	cshift_lava, @object
	.size	cshift_lava, 16
cshift_lava:
	.long	255
	.long	80
	.long	0
	.long	150
	.type	cshift_slime, @object
	.size	cshift_slime, 16
cshift_slime:
	.long	0
	.long	25
	.long	5
	.long	150
	.type	gl_cshiftpercent, @object
	.size	gl_cshiftpercent, 20
gl_cshiftpercent:
	.long	.LC54
	.long	.LC55
	.byte	0
	.zero	11
	.type	v_idlescale, @object
	.size	v_idlescale, 20
v_idlescale:
	.long	.LC59
	.long	.LC42
	.byte	0
	.zero	11
	.type	v_iroll_cycle, @object
	.size	v_iroll_cycle, 20
v_iroll_cycle:
	.long	.LC66
	.long	.LC67
	.byte	0
	.zero	11
	.type	v_iroll_level, @object
	.size	v_iroll_level, 20
v_iroll_level:
	.long	.LC62
	.long	.LC63
	.byte	0
	.zero	11
	.type	v_ipitch_cycle, @object
	.size	v_ipitch_cycle, 20
v_ipitch_cycle:
	.long	.LC65
	.long	.LC49
	.byte	0
	.zero	11
	.type	v_ipitch_level, @object
	.size	v_ipitch_level, 20
v_ipitch_level:
	.long	.LC60
	.long	.LC61
	.byte	0
	.zero	11
	.type	v_iyaw_cycle, @object
	.size	v_iyaw_cycle, 20
v_iyaw_cycle:
	.long	.LC68
	.long	.LC69
	.byte	0
	.zero	11
	.type	v_iyaw_level, @object
	.size	v_iyaw_level, 20
v_iyaw_level:
	.long	.LC64
	.long	.LC61
	.byte	0
	.zero	11
	.type	scr_ofsx, @object
	.size	scr_ofsx, 20
scr_ofsx:
	.long	.LC41
	.long	.LC42
	.byte	0
	.zero	11
	.type	scr_ofsy, @object
	.size	scr_ofsy, 20
scr_ofsy:
	.long	.LC43
	.long	.LC42
	.byte	0
	.zero	11
	.type	scr_ofsz, @object
	.size	scr_ofsz, 20
scr_ofsz:
	.long	.LC44
	.long	.LC42
	.byte	0
	.zero	11
	.type	lcd_x, @object
	.size	lcd_x, 20
lcd_x:
	.long	.LC83
	.long	.LC42
	.zero	12
	.type	lcd_yaw, @object
	.size	lcd_yaw, 20
lcd_yaw:
	.long	.LC82
	.long	.LC42
	.zero	12
	.type	crosshair, @object
	.size	crosshair, 20
crosshair:
	.long	.LC58
	.long	.LC42
	.byte	1
	.zero	11
	.type	cl_crossx, @object
	.size	cl_crossx, 20
cl_crossx:
	.long	.LC57
	.long	.LC42
	.byte	0
	.zero	11
	.type	cl_crossy, @object
	.size	cl_crossy, 20
cl_crossy:
	.long	.LC56
	.long	.LC42
	.byte	0
	.zero	11
	.type	cshift_water, @object
	.size	cshift_water, 16
cshift_water:
	.long	130
	.long	80
	.long	50
	.long	128
	.section	.rodata.str1.4,"aMS",@progbits,1
	.align 2
.LC41:
	.string	"scr_ofsx"
	.zero	3
.LC42:
	.string	"0"
	.zero	2
.LC43:
	.string	"scr_ofsy"
	.zero	3
.LC44:
	.string	"scr_ofsz"
	.zero	3
.LC45:
	.string	"v_cshift"
	.zero	3
.LC46:
	.string	"bf"
	.zero	1
.LC47:
	.string	"centerview"
	.zero	1
.LC48:
	.string	"gamma"
	.zero	2
.LC49:
	.string	"1"
	.zero	2
.LC50:
	.string	"v_centerspeed"
	.zero	2
.LC51:
	.string	"500"
.LC52:
	.string	"v_centermove"
	.zero	3
.LC53:
	.string	"0.15"
	.zero	3
.LC54:
	.string	"gl_cshiftpercent"
	.zero	3
.LC55:
	.string	"100"
.LC56:
	.string	"cl_crossy"
	.zero	2
.LC57:
	.string	"cl_crossx"
	.zero	2
.LC58:
	.string	"crosshair"
	.zero	2
.LC59:
	.string	"v_idlescale"
.LC60:
	.string	"v_ipitch_level"
	.zero	1
.LC61:
	.string	"0.3"
.LC62:
	.string	"v_iroll_level"
	.zero	2
.LC63:
	.string	"0.1"
.LC64:
	.string	"v_iyaw_level"
	.zero	3
.LC65:
	.string	"v_ipitch_cycle"
	.zero	1
.LC66:
	.string	"v_iroll_cycle"
	.zero	2
.LC67:
	.string	"0.5"
.LC68:
	.string	"v_iyaw_cycle"
	.zero	3
.LC69:
	.string	"2"
	.zero	2
.LC70:
	.string	"v_kickpitch"
.LC71:
	.string	"0.6"
.LC72:
	.string	"v_kickroll"
	.zero	1
.LC73:
	.string	"v_kicktime"
	.zero	1
.LC74:
	.string	"cl_bobup"
	.zero	3
.LC75:
	.string	"cl_bobcycle"
.LC76:
	.string	"cl_bob"
	.zero	1
.LC77:
	.string	"0.02"
	.zero	3
.LC78:
	.string	"cl_rollangle"
	.zero	3
.LC79:
	.string	"2.0"
.LC80:
	.string	"cl_rollspeed"
	.zero	3
.LC81:
	.string	"200"
.LC82:
	.string	"lcd_yaw"
.LC83:
	.string	"lcd_x"
	.section	".bss"
	.align 2
	.set	.LANCHOR1,. + 0
	.type	oldgammavalue.14994, @object
	.size	oldgammavalue.14994, 4
oldgammavalue.14994:
	.zero	4
	.type	oldyaw.15080, @object
	.size	oldyaw.15080, 4
oldyaw.15080:
	.zero	4
	.type	oldpitch.15081, @object
	.size	oldpitch.15081, 4
oldpitch.15081:
	.zero	4
	.type	oldz.15110, @object
	.size	oldz.15110, 4
oldz.15110:
	.zero	4
	.section	".text"
.Letext0:
	.file 2 "c:\\utils\\devkitpro\\devkitppc\\bin\\../lib/gcc/powerpc-eabi/4.6.3/../../../../powerpc-eabi/include/machine/_types.h"
	.file 3 "c:\\utils\\devkitpro\\devkitppc\\bin\\../lib/gcc/powerpc-eabi/4.6.3/../../../../powerpc-eabi/include/sys/lock.h"
	.file 4 "c:\\utils\\devkitpro\\devkitppc\\bin\\../lib/gcc/powerpc-eabi/4.6.3/include/stddef.h"
	.file 5 "c:\\utils\\devkitpro\\devkitppc\\bin\\../lib/gcc/powerpc-eabi/4.6.3/../../../../powerpc-eabi/include/sys/_types.h"
	.file 6 "c:\\utils\\devkitpro\\devkitppc\\bin\\../lib/gcc/powerpc-eabi/4.6.3/../../../../powerpc-eabi/include/sys/reent.h"
	.file 7 "c:\\utils\\devkitpro\\devkitppc\\bin\\../lib/gcc/powerpc-eabi/4.6.3/../../../../powerpc-eabi/include/stdio.h"
	.file 8 "d:/Data/Nintendo/TenebraeGX/src/common.h"
	.file 9 "d:/Data/Nintendo/TenebraeGX/src/bspfile.h"
	.file 10 "d:/Data/Nintendo/TenebraeGX/src/vid.h"
	.file 11 "d:/Data/Nintendo/TenebraeGX/src/zone.h"
	.file 12 "d:/Data/Nintendo/TenebraeGX/src/mathlib.h"
	.file 13 "d:/Data/Nintendo/TenebraeGX/src/quakedef.h"
	.file 14 "d:/Data/Nintendo/TenebraeGX/src/cvar.h"
	.file 15 "d:/Data/Nintendo/TenebraeGX/src/net.h"
	.file 16 "d:/Data/Nintendo/TenebraeGX/src/sound.h"
	.file 17 "d:/Data/Nintendo/TenebraeGX/src/render.h"
	.file 18 "d:/Data/Nintendo/TenebraeGX/src/gl_model.h"
	.file 19 "d:/Data/Nintendo/TenebraeGX/src/glquake.h"
	.file 20 "d:/Data/Nintendo/TenebraeGX/src/client.h"
	.file 21 "d:/Data/Nintendo/TenebraeGX/src/modelgen.h"
	.file 22 "d:/Data/Nintendo/TenebraeGX/src/world.h"
	.file 23 "c:/utils/devkitPro/libogc/include/ogc/gx.h"
	.file 24 "d:/Data/Nintendo/TenebraeGX/src/screen.h"
	.file 25 "d:/Data/Nintendo/TenebraeGX/src/console.h"