	.file	"wad.c"
	.section	".text"
.Ltext0:
	.cfi_sections	.debug_frame
	.align 2
	.globl W_CleanupName
	.type	W_CleanupName, @function
W_CleanupName:
.LFB38:
	.file 1 "d:/Data/Nintendo/TenebraeGX/src/wad.c"
	.loc 1 42 0
	.cfi_startproc
.LVL0:
	.loc 1 46 0
	li 0,16
	li 9,0
	mtctr 0
.LVL1:
.L4:
	.loc 1 48 0
	lbzx 11,3,9
.LVL2:
	.loc 1 49 0
	cmpwi 7,11,0
	.loc 1 52 0
	addi 0,11,-65
	cmplwi 6,0,25
	.loc 1 49 0
	beq- 7,.L6
	.loc 1 52 0
	bgt- 6,.L3
	.loc 1 53 0
	addi 11,11,32
.LVL3:
.L3:
	.loc 1 54 0
	stbx 11,4,9
	.loc 1 46 0
	addi 9,9,1
.LVL4:
	bdnz .L4
	blr
.LVL5:
.L6:
	.loc 1 58 0 discriminator 2
	subfic 11,9,16
	li 0,0
.LVL6:
	mtctr 11
.L7:
	stbx 0,4,9
	.loc 1 57 0 discriminator 2
	addi 9,9,1
.LVL7:
	bdnz .L7
	blr
	.cfi_endproc
.LFE38:
	.size	W_CleanupName, .-W_CleanupName
	.align 2
	.globl W_LoadWadFile
	.type	W_LoadWadFile, @function
W_LoadWadFile:
.LFB39:
	.loc 1 69 0
	.cfi_startproc
.LVL8:
	mflr 0
	stwu 1,-40(1)
.LCFI0:
	.cfi_def_cfa_offset 40
	.cfi_register 65, 0
	stw 27,20(1)
	.loc 1 75 0
	lis 27,wad_base@ha
	.cfi_offset 27, -20
	.loc 1 69 0
	stw 30,32(1)
	mr 30,3
	.cfi_offset 30, -8
	stw 31,36(1)
	stw 0,44(1)
	stw 24,8(1)
	stw 25,12(1)
	stw 26,16(1)
	stw 28,24(1)
	stw 29,28(1)
	.loc 1 75 0
	.cfi_offset 29, -12
	.cfi_offset 28, -16
	.cfi_offset 26, -24
	.cfi_offset 25, -28
	.cfi_offset 24, -32
	.cfi_offset 65, 4
	.cfi_offset 31, -4
	bl COM_LoadHunkFile
.LVL9:
	.loc 1 76 0
	cmpwi 7,3,0
	.loc 1 75 0
	mr 31,3
	stw 3,wad_base@l(27)
	.loc 1 76 0
	beq- 7,.L18
.L12:
.LVL10:
	.loc 1 81 0
	lwz 9,0(31)
	xoris 0,9,0x5741
	cmpwi 7,0,17458
	beq 7,.L13
	.loc 1 85 0
	lis 3,.LC1@ha
	mr 4,30
	la 3,.LC1@l(3)
	crxor 6,6,6
	bl Sys_Error
.L13:
	.loc 1 87 0
	lis 29,LittleLong@ha
	lwz 3,4(31)
	lwz 0,LittleLong@l(29)
	lis 28,wad_numlumps@ha
	mtctr 0
	bctrl
	.loc 1 88 0
	lwz 0,LittleLong@l(29)
	.loc 1 87 0
	stw 3,wad_numlumps@l(28)
	.loc 1 88 0
	mtctr 0
	lwz 3,8(31)
	bctrl
.LVL11:
	.loc 1 91 0
	lwz 0,wad_numlumps@l(28)
	.loc 1 89 0
	lwz 31,wad_base@l(27)
.LVL12:
	lis 9,wad_lumps@ha
	.loc 1 91 0
	cmpwi 7,0,0
	.loc 1 89 0
	add 31,31,3
	stw 31,wad_lumps@l(9)
.LVL13:
	.loc 1 91 0
	ble- 7,.L11
	li 30,0
.LVL14:
	la 29,LittleLong@l(29)
	la 28,wad_numlumps@l(28)
	b .L16
.LVL15:
.L15:
	lwz 0,0(28)
	addi 31,31,32
.LVL16:
	cmpw 7,0,30
	ble- 7,.L11
.LVL17:
.L16:
	.loc 1 93 0
	lwz 0,0(29)
	.loc 1 91 0
	addi 30,30,1
	.loc 1 93 0
	lwz 3,0(31)
	mtctr 0
	bctrl
	.loc 1 94 0
	lwz 0,0(29)
	.loc 1 93 0
	stw 3,0(31)
	.loc 1 94 0
	mtctr 0
	lwz 3,8(31)
	bctrl
	.loc 1 95 0
	addi 0,31,16
	.loc 1 94 0
	stw 3,8(31)
	.loc 1 95 0
	mr 4,0
	mr 3,0
	bl W_CleanupName
	.loc 1 96 0
	lbz 0,12(31)
	cmpwi 7,0,66
	bne+ 7,.L15
	.loc 1 97 0
	lwz 26,0(31)
	.loc 1 91 0
	addi 31,31,32
.LVL18:
	.loc 1 97 0
	lwz 25,wad_base@l(27)
.LBB4:
.LBB5:
	.loc 1 156 0
	lwz 0,0(29)
	lwzx 3,25,26
.LBE5:
.LBE4:
	.loc 1 97 0
	add 24,25,26
.LVL19:
.LBB8:
.LBB6:
	.loc 1 156 0
	mtctr 0
	bctrl
.LVL20:
	.loc 1 157 0
	lwz 0,0(29)
	.loc 1 156 0
	stwx 3,25,26
	.loc 1 157 0
	mtctr 0
	lwz 3,4(24)
	bctrl
.LBE6:
.LBE8:
	.loc 1 91 0
	lwz 0,0(28)
.LBB9:
.LBB7:
	.loc 1 157 0
	stw 3,4(24)
.LVL21:
.LBE7:
.LBE9:
	.loc 1 91 0
	cmpw 7,0,30
	bgt+ 7,.L16
.LVL22:
.L11:
	.loc 1 99 0
	lwz 0,44(1)
	lwz 24,8(1)
	mtlr 0
	lwz 25,12(1)
	lwz 26,16(1)
	lwz 27,20(1)
	lwz 28,24(1)
	lwz 29,28(1)
	lwz 30,32(1)
	lwz 31,36(1)
.LVL23:
	addi 1,1,40
	.cfi_remember_state
.LCFI1:
	.cfi_def_cfa_offset 0
	.cfi_restore 31
	.cfi_restore 30
	.cfi_restore 29
	.cfi_restore 28
	.cfi_restore 27
	.cfi_restore 26
	.cfi_restore 25
	.cfi_restore 24
	blr
.LVL24:
.L18:
.LCFI2:
	.cfi_restore_state
	.loc 1 77 0
	lis 3,.LC0@ha
	mr 4,30
	la 3,.LC0@l(3)
	crxor 6,6,6
	bl Sys_Error
	lwz 31,wad_base@l(27)
	b .L12
	.cfi_endproc
.LFE39:
	.size	W_LoadWadFile, .-W_LoadWadFile
	.align 2
	.globl W_GetLumpinfo
	.type	W_GetLumpinfo, @function
W_GetLumpinfo:
.LFB40:
	.loc 1 108 0
	.cfi_startproc
.LVL25:
	stwu 1,-40(1)
.LCFI3:
	.cfi_def_cfa_offset 40
	mflr 0
	.loc 1 113 0
	addi 4,1,8
	.loc 1 108 0
	stw 28,24(1)
	stw 29,28(1)
	mr 28,3
	.cfi_offset 29, -12
	.cfi_offset 28, -16
	.cfi_register 65, 0
	stw 31,36(1)
	stw 0,44(1)
	stw 30,32(1)
	.loc 1 113 0
	.cfi_offset 30, -8
	.cfi_offset 65, 4
	.cfi_offset 31, -4
	bl W_CleanupName
.LVL26:
	.loc 1 115 0
	lis 9,wad_numlumps@ha
	lwz 29,wad_numlumps@l(9)
	lis 9,wad_lumps@ha
	lwz 31,wad_lumps@l(9)
.LVL27:
	cmpwi 7,29,0
	ble- 7,.L20
	li 30,0
	b .L22
.LVL28:
.L24:
	addi 31,31,32
.LVL29:
	beq- 6,.L20
.LVL30:
.L22:
	.loc 1 117 0
	addi 4,31,16
	addi 3,1,8
	bl strcmp
	.loc 1 115 0
	addi 30,30,1
	.loc 1 117 0
	cmpwi 7,3,0
	.loc 1 115 0
	cmpw 6,30,29
	.loc 1 117 0
	bne+ 7,.L24
	.loc 1 123 0
	lwz 0,44(1)
	mr 3,31
	lwz 28,24(1)
.LVL31:
	mtlr 0
	lwz 29,28(1)
	lwz 30,32(1)
	lwz 31,36(1)
.LVL32:
	addi 1,1,40
	.cfi_remember_state
.LCFI4:
	.cfi_def_cfa_offset 0
	.cfi_restore 31
	.cfi_restore 30
	.cfi_restore 29
	.cfi_restore 28
	blr
.LVL33:
.L20:
.LCFI5:
	.cfi_restore_state
	.loc 1 121 0
	lis 3,.LC2@ha
	mr 4,28
	la 3,.LC2@l(3)
	.loc 1 122 0
	li 31,0
.LVL34:
	.loc 1 121 0
	crxor 6,6,6
	bl Sys_Error
	.loc 1 123 0
	lwz 0,44(1)
	mr 3,31
	lwz 28,24(1)
.LVL35:
	mtlr 0
	lwz 29,28(1)
	lwz 30,32(1)
	lwz 31,36(1)
	addi 1,1,40
	.cfi_restore 28
	.cfi_restore 29
	.cfi_restore 30
	.cfi_restore 31
.LCFI6:
	.cfi_def_cfa_offset 0
	blr
	.cfi_endproc
.LFE40:
	.size	W_GetLumpinfo, .-W_GetLumpinfo
	.align 2
	.globl W_GetLumpName
	.type	W_GetLumpName, @function
W_GetLumpName:
.LFB41:
	.loc 1 126 0
	.cfi_startproc
.LVL36:
	mflr 0
	stwu 1,-8(1)
.LCFI7:
	.cfi_def_cfa_offset 8
	.cfi_register 65, 0
	stw 0,12(1)
	.loc 1 129 0
	.cfi_offset 65, 4
	bl W_GetLumpinfo
.LVL37:
	.loc 1 131 0
	lis 9,wad_base@ha
	lwz 3,0(3)
.LVL38:
	lwz 0,wad_base@l(9)
	.loc 1 132 0
	add 3,0,3
	lwz 0,12(1)
	addi 1,1,8
.LCFI8:
	.cfi_def_cfa_offset 0
	mtlr 0
	blr
	.cfi_endproc
.LFE41:
	.size	W_GetLumpName, .-W_GetLumpName
	.align 2
	.globl W_GetLumpNum
	.type	W_GetLumpNum, @function
W_GetLumpNum:
.LFB42:
	.loc 1 135 0
	.cfi_startproc
.LVL39:
	stwu 1,-16(1)
.LCFI9:
	.cfi_def_cfa_offset 16
	mflr 0
	stw 31,12(1)
	.loc 1 138 0
	mr. 31,3
	.cfi_offset 31, -4
	.cfi_register 65, 0
	.loc 1 135 0
	stw 0,20(1)
	.loc 1 138 0
	blt- 0,.L27
	.cfi_offset 65, 4
	.loc 1 138 0 is_stmt 0 discriminator 1
	lis 9,wad_numlumps@ha
	lwz 0,wad_numlumps@l(9)
	cmpw 7,31,0
	ble- 7,.L28
.L27:
	.loc 1 139 0 is_stmt 1
	lis 3,.LC3@ha
.LVL40:
	mr 4,31
	la 3,.LC3@l(3)
	crxor 6,6,6
	bl Sys_Error
.L28:
.LVL41:
	.loc 1 143 0
	lis 9,wad_lumps@ha
	slwi 31,31,5
.LVL42:
	lwz 9,wad_lumps@l(9)
	lis 11,wad_base@ha
	lwz 3,wad_base@l(11)
	lwzx 0,9,31
	.loc 1 144 0
	lwz 31,12(1)
	add 3,3,0
	lwz 0,20(1)
	addi 1,1,16
.LCFI10:
	.cfi_def_cfa_offset 0
	.cfi_restore 31
	mtlr 0
	blr
	.cfi_endproc
.LFE42:
	.size	W_GetLumpNum, .-W_GetLumpNum
	.align 2
	.globl SwapPic
	.type	SwapPic, @function
SwapPic:
.LFB43:
	.loc 1 155 0
	.cfi_startproc
.LVL43:
	stwu 1,-16(1)
.LCFI11:
	.cfi_def_cfa_offset 16
	mflr 0
	stw 30,8(1)
	.loc 1 156 0
	lis 30,LittleLong@ha
	.cfi_offset 30, -8
	.cfi_register 65, 0
	.loc 1 155 0
	stw 0,20(1)
	.loc 1 156 0
	lwz 0,LittleLong@l(30)
	.cfi_offset 65, 4
	.loc 1 155 0
	stw 31,12(1)
	.loc 1 155 0
	mr 31,3
	.cfi_offset 31, -4
	.loc 1 156 0
	mtctr 0
	lwz 3,0(3)
.LVL44:
	bctrl
	.loc 1 157 0
	lwz 0,LittleLong@l(30)
	.loc 1 156 0
	stw 3,0(31)
	.loc 1 157 0
	mtctr 0
	lwz 3,4(31)
	bctrl
	.loc 1 158 0
	lwz 0,20(1)
	.loc 1 157 0
	stw 3,4(31)
	.loc 1 158 0
	mtlr 0
	lwz 30,8(1)
	lwz 31,12(1)
.LVL45:
	addi 1,1,16
.LCFI12:
	.cfi_def_cfa_offset 0
	.cfi_restore 31
	.cfi_restore 30
	blr
	.cfi_endproc
.LFE43:
	.size	SwapPic, .-SwapPic
	.comm	wad_base,4,4
	.comm	wad_lumps,4,4
	.comm	wad_numlumps,4,4
	.comm	causticschain,4,4
	.section	.rodata.str1.4,"aMS",@progbits,1
	.align 2
.LC0:
	.string	"W_LoadWadFile: couldn't load %s"
.LC1:
	.string	"Wad file %s doesn't have WAD2 id\n"
	.zero	2
.LC2:
	.string	"W_GetLumpinfo: %s not found"
.LC3:
	.string	"W_GetLumpNum: bad number: %i"
	.section	".text"
.Letext0:
	.file 2 "d:/Data/Nintendo/TenebraeGX/src/common.h"
	.file 3 "d:/Data/Nintendo/TenebraeGX/src/mathlib.h"
	.file 4 "d:/Data/Nintendo/TenebraeGX/src/wad.h"
	.file 5 "d:/Data/Nintendo/TenebraeGX/src/gl_model.h"
	.file 6 "c:/utils/devkitPro/libogc/include/ogc/gx.h"
	.file 7 "d:/Data/Nintendo/TenebraeGX/src/glquake.h"