	.file	"world.c"
	.section	".text"
.Ltext0:
	.cfi_sections	.debug_frame
	.align 2
	.globl SV_InitBoxHull
	.type	SV_InitBoxHull, @function
SV_InitBoxHull:
.LFB38:
	.file 1 "d:/Data/Nintendo/TenebraeGX/src/world.c"
	.loc 1 69 0
	.cfi_startproc
	stwu 1,-16(1)
.LCFI0:
	.cfi_def_cfa_offset 16
	.loc 1 73 0
	lis 9,.LANCHOR0@ha
	la 11,.LANCHOR0@l(9)
	.loc 1 75 0
	li 0,0
	.loc 1 69 0
	stw 30,8(1)
	.loc 1 74 0
	addi 10,11,88
	.loc 1 69 0
	stw 31,12(1)
	.loc 1 73 0
	addi 31,11,40
	.cfi_offset 31, -4
	.cfi_offset 30, -8
	.loc 1 75 0
	stw 0,8(11)
	.loc 1 84 0
	addi 8,11,104
	.loc 1 80 0
	stw 0,40(11)
	.loc 1 84 0
	li 0,-1
	.loc 1 73 0
	stw 31,.LANCHOR0@l(9)
	.loc 1 76 0
	li 9,5
	.loc 1 84 0
	sth 0,44(11)
	li 0,5
	.loc 1 76 0
	stw 9,12(11)
.LVL0:
	.loc 1 84 0
	mtctr 0
	.loc 1 91 0
	lis 9,.LC0@ha
	.loc 1 74 0
	stw 10,4(11)
	.loc 1 91 0
	lwz 12,.LC0@l(9)
	.loc 1 82 0
	li 10,0
	.loc 1 84 0
	li 9,1
	li 30,-1
.LVL1:
.L2:
	.loc 1 68 0
	addi 0,9,-1
	.loc 1 86 0
	xori 4,10,1
	.loc 1 91 0
	mulli 5,0,5
	.loc 1 90 0
	srawi 7,0,1
	.loc 1 82 0
	rlwinm 10,9,0,31,31
	.loc 1 84 0
	slwi 6,9,2
	.loc 1 86 0
	slwi 3,0,2
	.loc 1 91 0
	add 5,5,7
	.loc 1 86 0
	add 3,3,4
	.loc 1 84 0
	add 6,6,10
	.loc 1 86 0
	slwi 3,3,1
	.loc 1 91 0
	slwi 5,5,2
	.loc 1 84 0
	slwi 6,6,1
	.loc 1 68 0
	slwi 4,9,3
	.loc 1 86 0
	add 3,11,3
	.loc 1 91 0
	add 5,11,5
	.loc 1 84 0
	add 6,11,6
	.loc 1 86 0
	sth 9,44(3)
	.loc 1 90 0
	stb 7,0(8)
	.loc 1 78 0
	mr 0,9
.LVL2:
	.loc 1 80 0
	stwx 9,31,4
	.loc 1 84 0
	addi 8,8,20
	.loc 1 91 0
	stw 12,88(5)
	.loc 1 84 0
	addi 9,9,1
.LVL3:
	sth 30,44(6)
	.loc 1 85 0
	bdnz .L2
	.loc 1 90 0
	srawi 9,0,1
	.loc 1 91 0
	mulli 7,0,5
	.loc 1 90 0
	mulli 0,0,20
.LVL4:
	.loc 1 88 0
	xori 8,10,1
	addi 8,8,20
	.loc 1 91 0
	add 7,7,9
	.loc 1 90 0
	add 10,11,0
.LVL5:
	.loc 1 88 0
	slwi 8,8,1
.LVL6:
	.loc 1 90 0
	stb 9,104(10)
	.loc 1 91 0
	slwi 7,7,2
	.loc 1 88 0
	add 8,11,8
	li 0,-2
	.loc 1 91 0
	add 11,11,7
	.loc 1 94 0
	lwz 30,8(1)
	lwz 31,12(1)
.LVL7:
	.loc 1 88 0
	sth 0,44(8)
	.loc 1 91 0
	stw 12,88(11)
.LVL8:
	.loc 1 94 0
	addi 1,1,16
.LCFI1:
	.cfi_def_cfa_offset 0
	.cfi_restore 31
	.cfi_restore 30
	blr
	.cfi_endproc
.LFE38:
	.size	SV_InitBoxHull, .-SV_InitBoxHull
	.align 2
	.globl SV_HullForBox
	.type	SV_HullForBox, @function
SV_HullForBox:
.LFB39:
	.loc 1 106 0
	.cfi_startproc
.LVL9:
	.loc 1 107 0
	lwz 0,0(4)
	lis 9,.LANCHOR0@ha
	la 9,.LANCHOR0@l(9)
	.loc 1 106 0
	mr 11,3
	.loc 1 107 0
	stw 0,100(9)
	.loc 1 108 0
	lwz 0,0(3)
	.loc 1 115 0
	mr 3,9
.LVL10:
	.loc 1 108 0
	stw 0,120(9)
	.loc 1 109 0
	lwz 0,4(4)
	stw 0,140(9)
	.loc 1 110 0
	lwz 0,4(11)
	stw 0,160(9)
	.loc 1 111 0
	lwz 0,8(4)
	stw 0,180(9)
	.loc 1 112 0
	lwz 0,8(11)
	stw 0,200(9)
	.loc 1 115 0
	blr
	.cfi_endproc
.LFE39:
	.size	SV_HullForBox, .-SV_HullForBox
	.align 2
	.globl SV_HullForEntity
	.type	SV_HullForEntity, @function
SV_HullForEntity:
.LFB40:
	.loc 1 130 0
	.cfi_startproc
.LVL11:
	mflr 0
	stwu 1,-32(1)
.LCFI2:
	.cfi_def_cfa_offset 32
	.cfi_register 65, 0
	.loc 1 137 0
	lis 9,.LC1@ha
	lfs 0,.LC1@l(9)
	.loc 1 130 0
	stw 0,36(1)
	stw 31,28(1)
	mr 31,3
	.cfi_offset 31, -4
	.cfi_offset 65, 4
	.loc 1 137 0
	lfs 13,640(3)
	.loc 1 130 0
	stw 30,24(1)
	.loc 1 137 0
	fcmpu 7,13,0
	bne- 7,.L7
	.cfi_offset 30, -8
	.loc 1 139 0
	lis 9,.LC2@ha
	lfs 13,636(3)
	lfs 0,.LC2@l(9)
	fcmpu 7,13,0
	bne- 7,.L19
	.loc 1 142 0
	lfs 0,604(31)
	addi 9,1,8
	fctiwz 0,0
	stfiwx 0,0,9
	lwz 9,8(1)
	addi 0,9,296
	lis 9,sv@ha
	slwi 0,0,2
	la 9,sv@l(9)
	add 9,9,0
	lwz 30,4(9)
.LVL12:
	.loc 1 144 0
	cmpwi 7,30,0
	beq- 7,.L9
.LVL13:
.L21:
	.loc 1 144 0 is_stmt 0 discriminator 1
	lwz 0,68(30)
	cmpwi 7,0,0
	beq- 7,.L10
.L9:
	.loc 1 145 0 is_stmt 1
	lis 3,.LC4@ha
	stw 4,12(1)
	la 3,.LC4@l(3)
	stw 5,16(1)
	stw 6,20(1)
	crxor 6,6,6
	bl Sys_Error
	lwz 6,20(1)
	lwz 5,16(1)
	lwz 4,12(1)
.L10:
	.loc 1 147 0
	lfs 0,0(4)
	.loc 1 148 0
	lis 9,.LC5@ha
	.loc 1 147 0
	lfs 13,0(5)
	.loc 1 149 0
	addi 3,30,236
	.loc 1 148 0
	lfs 12,.LC5@l(9)
	.loc 1 147 0
	fsubs 13,13,0
.LVL14:
	.loc 1 148 0
	fcmpu 7,13,12
	blt- 7,.L13
	.loc 1 150 0
	lis 9,.LC6@ha
	.loc 1 151 0
	addi 3,30,276
	.loc 1 150 0
	lfs 12,.LC6@l(9)
	fcmpu 7,13,12
	cror 30,28,30
	bne- 7,.L20
.L13:
.LVL15:
	.loc 1 156 0
	lfs 12,16(3)
	.loc 1 171 0
	lwz 0,36(1)
	.loc 1 156 0
	fsubs 12,12,0
	.loc 1 171 0
	lwz 30,24(1)
.LVL16:
	mtlr 0
	.loc 1 156 0
	stfs 12,0(6)
	lfs 0,4(4)
	lfs 13,20(3)
.LVL17:
	fsubs 13,13,0
	stfs 13,4(6)
	lfs 11,24(3)
	lfs 0,8(4)
	fsubs 0,11,0
	stfs 0,8(6)
	.loc 1 157 0
	lfs 11,644(31)
	fadds 12,12,11
	stfs 12,0(6)
	lfs 12,648(31)
	fadds 13,13,12
	stfs 13,4(6)
	lfs 13,652(31)
	.loc 1 171 0
	lwz 31,28(1)
.LVL18:
	.loc 1 157 0
	fadds 0,0,13
	stfs 0,8(6)
	.loc 1 171 0
	addi 1,1,32
	.cfi_remember_state
	.cfi_restore 30
	.cfi_restore 31
.LCFI3:
	.cfi_def_cfa_offset 0
	blr
.LVL19:
.L7:
.LCFI4:
	.cfi_restore_state
	.loc 1 162 0
	lfs 10,0(5)
	lfs 12,4(5)
	lfs 0,8(5)
	.loc 1 163 0
	lfs 11,4(4)
	lfs 13,8(4)
	lfs 9,0(4)
	.loc 1 162 0
	lfs 3,736(3)
	lfs 4,740(3)
	lfs 5,744(3)
	fsubs 10,3,10
.LVL20:
	.loc 1 163 0
	lfs 6,752(3)
	.loc 1 162 0
	fsubs 12,4,12
.LVL21:
	.loc 1 163 0
	lfs 7,756(3)
	.loc 1 162 0
	fsubs 0,5,0
.LVL22:
	.loc 1 163 0
	lfs 8,748(3)
	fsubs 11,6,11
.LVL23:
	fsubs 13,7,13
.LVL24:
	.loc 1 166 0
	lwz 0,644(3)
	.loc 1 163 0
	fsubs 9,8,9
.LBB4:
.LBB5:
	.loc 1 107 0
	lis 3,.LANCHOR0@ha
.LVL25:
	la 3,.LANCHOR0@l(3)
.LBE5:
.LBE4:
	.loc 1 171 0
	lwz 30,24(1)
.LBB7:
.LBB6:
	.loc 1 108 0
	stfs 10,120(3)
	.loc 1 107 0
	stfs 9,100(3)
	.loc 1 109 0
	stfs 11,140(3)
	.loc 1 110 0
	stfs 12,160(3)
	.loc 1 111 0
	stfs 13,180(3)
	.loc 1 112 0
	stfs 0,200(3)
.LBE6:
.LBE7:
	.loc 1 166 0
	stw 0,0(6)
	lwz 0,648(31)
	stw 0,4(6)
	lwz 0,652(31)
	.loc 1 171 0
	lwz 31,28(1)
.LVL26:
	.loc 1 166 0
	stw 0,8(6)
.LVL27:
	.loc 1 171 0
	lwz 0,36(1)
	addi 1,1,32
	.cfi_remember_state
.LCFI5:
	.cfi_def_cfa_offset 0
	.cfi_restore 31
	.cfi_restore 30
	mtlr 0
	blr
.LVL28:
.L19:
.LCFI6:
	.cfi_restore_state
	.loc 1 140 0
	lis 3,.LC3@ha
.LVL29:
	stw 4,12(1)
	la 3,.LC3@l(3)
	stw 5,16(1)
	stw 6,20(1)
	crxor 6,6,6
	bl Sys_Error
.LVL30:
	.loc 1 142 0
	lfs 0,604(31)
	addi 9,1,8
	.loc 1 140 0
	lwz 6,20(1)
	.loc 1 142 0
	fctiwz 0,0
	.loc 1 140 0
	lwz 5,16(1)
	lwz 4,12(1)
	.loc 1 142 0
	stfiwx 0,0,9
	lwz 9,8(1)
	addi 0,9,296
	lis 9,sv@ha
	slwi 0,0,2
	la 9,sv@l(9)
	add 9,9,0
	lwz 30,4(9)
.LVL31:
	.loc 1 144 0
	cmpwi 7,30,0
	bne+ 7,.L21
	b .L9
.LVL32:
.L20:
	.loc 1 153 0
	addi 3,30,316
.LVL33:
	b .L13
	.cfi_endproc
.LFE40:
	.size	SV_HullForEntity, .-SV_HullForEntity
	.align 2
	.globl SV_CreateAreaNode
	.type	SV_CreateAreaNode, @function
SV_CreateAreaNode:
.LFB41:
	.loc 1 203 0
	.cfi_startproc
.LVL34:
	mflr 0
	stwu 1,-80(1)
.LCFI7:
	.cfi_def_cfa_offset 80
	.cfi_register 65, 0
	.loc 1 208 0
	lis 9,.LANCHOR0@ha
	la 9,.LANCHOR0@l(9)
	.loc 1 203 0
	stw 27,60(1)
	stw 0,84(1)
	.loc 1 208 0
	addi 27,9,212
	.cfi_offset 65, 4
	.cfi_offset 27, -20
	.loc 1 203 0
	stw 28,64(1)
	.loc 1 208 0
	lwz 11,208(9)
	.loc 1 203 0
	stw 26,56(1)
	mr 26,3
	.cfi_offset 26, -24
	.cfi_offset 28, -16
	.loc 1 208 0
	slwi 28,11,5
	.loc 1 209 0
	addi 11,11,1
	.loc 1 203 0
	stw 29,68(1)
	mr 29,4
	.cfi_offset 29, -12
	stw 30,72(1)
	mr 30,5
	.cfi_offset 30, -8
	stw 31,76(1)
	.loc 1 208 0
	add 31,27,28
	.cfi_offset 31, -4
.LVL35:
	.loc 1 209 0
	stw 11,208(9)
	.loc 1 211 0
	addi 3,31,16
.LVL36:
	bl ClearLink
.LVL37:
	.loc 1 212 0
	addi 3,31,24
	bl ClearLink
	.loc 1 214 0
	cmpwi 7,26,4
	beq- 7,.L25
.LVL38:
	.loc 1 221 0
	lfs 11,0(30)
	.loc 1 233 0
	addi 11,1,8
	.loc 1 221 0
	lfs 12,4(30)
	.loc 1 235 0
	mr 5,11
	.loc 1 221 0
	lfs 13,0(29)
	.loc 1 235 0
	addi 26,26,1
.LVL39:
	.loc 1 221 0
	lfs 0,4(29)
	.loc 1 235 0
	addi 4,1,20
	.loc 1 221 0
	fsubs 13,11,13
	.loc 1 235 0
	mr 3,26
	.loc 1 221 0
	fsubs 0,12,0
	.loc 1 222 0
	fcmpu 7,13,0
	mfcr 0
	rlwinm 0,0,30,1
	.loc 1 223 0
	xori 0,0,1
	.loc 1 227 0
	slwi 9,0,2
	lfsx 13,30,9
	lfsx 0,29,9
	.loc 1 233 0
	add 9,11,9
	.loc 1 227 0
	lis 11,.LC7@ha
	.loc 1 223 0
	stwx 0,27,28
	.loc 1 227 0
	fadds 0,13,0
	lfs 13,.LC7@l(11)
	fmuls 0,0,13
	stfs 0,4(31)
	.loc 1 230 0
	lwz 0,8(30)
	.loc 1 228 0
	lwz 6,0(29)
	lwz 7,4(29)
	lwz 8,8(29)
	.loc 1 230 0
	lwz 10,0(30)
	lwz 11,4(30)
	stw 0,40(1)
	.loc 1 229 0
	stw 6,20(1)
	stw 7,24(1)
	stw 8,28(1)
	.loc 1 230 0
	stw 10,32(1)
	stw 11,36(1)
	.loc 1 233 0
	stfs 0,12(9)
	stfs 0,24(9)
	.loc 1 231 0
	stw 0,16(1)
	.loc 1 228 0
	stw 6,44(1)
	stw 7,48(1)
	stw 8,52(1)
	.loc 1 231 0
	stw 10,8(1)
	stw 11,12(1)
	.loc 1 235 0
	bl SV_CreateAreaNode
.LVL40:
	stw 3,8(31)
	.loc 1 236 0
	addi 4,1,44
	mr 3,26
	addi 5,1,32
	bl SV_CreateAreaNode
	.loc 1 239 0
	lwz 0,84(1)
	.loc 1 236 0
	stw 3,12(31)
	.loc 1 239 0
	mr 3,31
	mtlr 0
	lwz 26,56(1)
.LVL41:
	lwz 27,60(1)
	lwz 28,64(1)
	lwz 29,68(1)
.LVL42:
	lwz 30,72(1)
.LVL43:
	lwz 31,76(1)
.LVL44:
	addi 1,1,80
	.cfi_remember_state
.LCFI8:
	.cfi_def_cfa_offset 0
	.cfi_restore 31
	.cfi_restore 30
	.cfi_restore 29
	.cfi_restore 28
	.cfi_restore 27
	.cfi_restore 26
	blr
.LVL45:
.L25:
.LCFI9:
	.cfi_restore_state
	.loc 1 217 0
	li 0,0
	.loc 1 216 0
	li 9,-1
	.loc 1 217 0
	stw 0,12(31)
	.loc 1 239 0
	mr 3,31
	.loc 1 217 0
	stw 0,8(31)
	.loc 1 239 0
	lwz 0,84(1)
	.loc 1 216 0
	stwx 9,27,28
	.loc 1 239 0
	mtlr 0
	lwz 26,56(1)
.LVL46:
	lwz 27,60(1)
	lwz 28,64(1)
	lwz 29,68(1)
.LVL47:
	lwz 30,72(1)
.LVL48:
	lwz 31,76(1)
.LVL49:
	addi 1,1,80
	.cfi_restore 26
	.cfi_restore 27
	.cfi_restore 28
	.cfi_restore 29
	.cfi_restore 30
	.cfi_restore 31
.LCFI10:
	.cfi_def_cfa_offset 0
	blr
	.cfi_endproc
.LFE41:
	.size	SV_CreateAreaNode, .-SV_CreateAreaNode
	.align 2
	.globl SV_ClearWorld
	.type	SV_ClearWorld, @function
SV_ClearWorld:
.LFB42:
	.loc 1 248 0
	.cfi_startproc
	stwu 1,-16(1)
.LCFI11:
	.cfi_def_cfa_offset 16
	mflr 0
	stw 31,12(1)
	.loc 1 251 0
	lis 31,.LANCHOR0@ha
	.cfi_offset 31, -4
	.cfi_register 65, 0
	la 31,.LANCHOR0@l(31)
	.loc 1 248 0
	stw 0,20(1)
	.loc 1 249 0
	.cfi_offset 65, 4
	bl SV_InitBoxHull
	.loc 1 251 0
	li 4,0
	li 5,1024
	addi 3,31,212
	bl memset
	.loc 1 252 0
	li 0,0
	stw 0,208(31)
	.loc 1 253 0
	lis 9,sv+160@ha
	.loc 1 254 0
	lwz 0,20(1)
	.loc 1 253 0
	li 3,0
	lwz 5,sv+160@l(9)
	.loc 1 254 0
	lwz 31,12(1)
	mtlr 0
	.loc 1 253 0
	addi 4,5,84
	.loc 1 254 0
	.loc 1 253 0
	addi 5,5,96
	.loc 1 254 0
	addi 1,1,16
.LCFI12:
	.cfi_def_cfa_offset 0
	.cfi_restore 31
	.loc 1 253 0
	b SV_CreateAreaNode
	.cfi_endproc
.LFE42:
	.size	SV_ClearWorld, .-SV_ClearWorld
	.align 2
	.globl SV_UnlinkEdict
	.type	SV_UnlinkEdict, @function
SV_UnlinkEdict:
.LFB43:
	.loc 1 264 0
	.cfi_startproc
.LVL50:
	mflr 0
	stwu 1,-16(1)
.LCFI13:
	.cfi_def_cfa_offset 16
	.cfi_register 65, 0
	stw 31,12(1)
	mr 31,3
	.cfi_offset 31, -4
	stw 0,20(1)
	.loc 1 265 0
	lwz 0,4(3)
	.cfi_offset 65, 4
	cmpwi 7,0,0
	beq- 7,.L27
	.loc 1 267 0
	addi 3,3,4
.LVL51:
	bl RemoveLink
	.loc 1 268 0
	li 0,0
	stw 0,8(31)
	stw 0,4(31)
.L27:
	.loc 1 269 0
	lwz 0,20(1)
	lwz 31,12(1)
.LVL52:
	mtlr 0
	addi 1,1,16
.LCFI14:
	.cfi_def_cfa_offset 0
	.cfi_restore 31
	blr
	.cfi_endproc
.LFE43:
	.size	SV_UnlinkEdict, .-SV_UnlinkEdict
	.align 2
	.globl SV_TouchLinks
	.type	SV_TouchLinks, @function
SV_TouchLinks:
.LFB44:
	.loc 1 278 0
	.cfi_startproc
.LVL53:
	mflr 0
	stwu 1,-48(1)
.LCFI15:
	.cfi_def_cfa_offset 48
	.cfi_register 65, 0
	stw 23,12(1)
	stw 0,52(1)
	stw 24,16(1)
	stw 25,20(1)
	stw 26,24(1)
	stw 27,28(1)
	.loc 1 302 0
	lis 27,sv@ha
	.cfi_offset 27, -20
	.cfi_offset 26, -24
	.cfi_offset 25, -28
	.cfi_offset 24, -32
	.cfi_offset 65, 4
	.cfi_offset 23, -36
	.loc 1 278 0
	stw 28,32(1)
	.loc 1 299 0
	lis 28,pr_global_struct@ha
	.cfi_offset 28, -16
	.loc 1 278 0
	stw 29,36(1)
	.loc 1 290 0
	lis 29,.LC0@ha
	.cfi_offset 29, -12
	.loc 1 278 0
	stw 30,40(1)
	mr 30,4
	.cfi_offset 30, -8
	stw 31,44(1)
	.loc 1 278 0
	mr 31,3
	.cfi_offset 31, -4
.LVL54:
.L37:
	.loc 1 284 0
	lwz 9,20(30)
.LVL55:
	addi 25,30,16
	cmpw 7,9,25
	beq- 7,.L40
.LVL56:
.L32:
	.loc 1 287 0
	addi 0,9,-4
	.loc 1 286 0
	lwz 26,4(9)
.LVL57:
	.loc 1 288 0
	cmpw 7,0,31
	beq- 7,.L31
	.loc 1 290 0
	lwz 3,768(9)
	cmpwi 7,3,0
	beq- 7,.L31
	.loc 1 290 0 is_stmt 0 discriminator 1
	lfs 0,.LC0@l(29)
	lfs 13,636(9)
	fcmpu 7,13,0
	bne- 7,.L31
	.loc 1 292 0 is_stmt 1
	lfs 13,608(31)
	lfs 0,616(9)
	fcmpu 7,13,0
	bgt- 7,.L31
	.loc 1 293 0
	lfs 13,612(31)
	lfs 0,620(9)
	fcmpu 7,13,0
	bgt- 7,.L31
	.loc 1 294 0
	lfs 13,616(31)
	lfs 0,624(9)
	fcmpu 7,13,0
	bgt- 7,.L31
	.loc 1 295 0
	lfs 13,620(31)
	lfs 0,604(9)
	fcmpu 7,13,0
	blt- 7,.L31
	.loc 1 296 0
	lfs 13,624(31)
	lfs 0,608(9)
	fcmpu 7,13,0
	blt- 7,.L31
	.loc 1 297 0
	lfs 13,628(31)
	lfs 0,612(9)
	fcmpu 7,13,0
	bnl- 7,.L41
.L31:
	.loc 1 308 0 discriminator 1
	mr 9,26
.LVL58:
.L44:
	.loc 1 284 0
	cmpw 7,9,25
	bne+ 7,.L32
.LVL59:
.L40:
	.loc 1 312 0
	lwz 9,0(30)
.LVL60:
	cmpwi 7,9,-1
	beq- 7,.L29
	.loc 1 315 0
	addi 11,9,152
	lfs 0,4(30)
	slwi 11,11,2
	add 11,31,11
	lfs 13,12(11)
	fcmpu 7,13,0
	bgt- 7,.L42
	.loc 1 317 0
	addi 9,9,148
	slwi 9,9,2
	add 9,31,9
	lfs 13,16(9)
	fcmpu 7,0,13
	bng- 7,.L29
.L43:
	.loc 1 318 0
	lwz 30,12(30)
	b .L37
.L42:
	.loc 1 316 0
	lwz 4,8(30)
	mr 3,31
	bl SV_TouchLinks
	lwz 9,0(30)
	lfs 0,4(30)
	.loc 1 317 0
	addi 9,9,148
	slwi 9,9,2
	add 9,31,9
	lfs 13,16(9)
	fcmpu 7,0,13
	bgt+ 7,.L43
.L29:
	.loc 1 319 0
	lwz 0,52(1)
	lwz 23,12(1)
	mtlr 0
	lwz 24,16(1)
	lwz 25,20(1)
	lwz 26,24(1)
	lwz 27,28(1)
	lwz 28,32(1)
	lwz 29,36(1)
	lwz 30,40(1)
	lwz 31,44(1)
.LVL61:
	addi 1,1,48
	.cfi_remember_state
.LCFI16:
	.cfi_def_cfa_offset 0
	.cfi_restore 31
	.cfi_restore 30
	.cfi_restore 29
	.cfi_restore 28
	.cfi_restore 27
	.cfi_restore 26
	.cfi_restore 25
	.cfi_restore 24
	.cfi_restore 23
	blr
.LVL62:
.L41:
.LCFI17:
	.cfi_restore_state
	.loc 1 302 0
	la 9,sv@l(27)
.LVL63:
	.loc 1 304 0
	lfd 0,8(9)
	.loc 1 302 0
	lwz 11,3500(9)
	.loc 1 304 0
	frsp 0,0
	.loc 1 299 0
	lwz 9,pr_global_struct@l(28)
	.loc 1 302 0
	subf 0,11,0
.LVL64:
	.loc 1 303 0
	subf 11,11,31
	.loc 1 299 0
	lwz 23,112(9)
.LVL65:
	.loc 1 300 0
	lwz 24,116(9)
.LVL66:
	.loc 1 302 0
	stw 0,112(9)
	.loc 1 303 0
	stw 11,116(9)
	.loc 1 304 0
	stfs 0,124(9)
	.loc 1 305 0
	bl PR_ExecuteProgram
.LVL67:
	.loc 1 307 0
	lwz 9,pr_global_struct@l(28)
	stw 23,112(9)
	.loc 1 308 0
	stw 24,116(9)
	mr 9,26
	b .L44
	.cfi_endproc
.LFE44:
	.size	SV_TouchLinks, .-SV_TouchLinks
	.align 2
	.globl SV_FindTouchedLeafs
	.type	SV_FindTouchedLeafs, @function
SV_FindTouchedLeafs:
.LFB45:
	.loc 1 329 0
	.cfi_startproc
.LVL68:
	mflr 0
	stwu 1,-32(1)
.LCFI18:
	.cfi_def_cfa_offset 32
	.cfi_register 65, 0
	stw 30,24(1)
	mr 30,3
	.cfi_offset 30, -8
	stw 0,36(1)
	stw 31,28(1)
	mr 31,4
	.cfi_offset 31, -4
	.cfi_offset 65, 4
	.loc 1 335 0
	lwz 0,0(4)
	.loc 1 329 0
	stw 27,12(1)
	.loc 1 335 0
	cmpwi 7,0,-2
	.loc 1 329 0
	stw 28,16(1)
	stw 29,20(1)
	.loc 1 335 0
	beq- 7,.L45
	.cfi_offset 29, -12
	.cfi_offset 28, -16
	.cfi_offset 27, -20
	.loc 1 340 0
	cmpwi 7,0,0
	.loc 1 358 0
	addi 28,3,608
	addi 29,3,620
	.loc 1 340 0
	bge+ 7,.L58
	b .L47
.LVL69:
.L56:
	.loc 1 362 0
	lwz 4,40(31)
	mr 3,30
	bl SV_FindTouchedLeafs
	.loc 1 364 0
	cmpwi 7,27,0
	beq- 7,.L45
.L52:
	.loc 1 365 0
	lwz 31,44(31)
	.loc 1 335 0
	lwz 0,0(31)
	cmpwi 7,0,-2
	beq- 7,.L45
	.loc 1 340 0
	cmpwi 7,0,0
	blt- 7,.L47
.LVL70:
.L58:
	.loc 1 357 0
	lwz 5,36(31)
.LVL71:
	.loc 1 358 0
	lbz 9,16(5)
	cmplwi 7,9,2
	bgt- 7,.L50
	.loc 1 358 0 is_stmt 0 discriminator 1
	addi 11,9,148
	lfs 0,12(5)
	slwi 11,11,2
	li 27,0
	add 11,30,11
	lfs 13,16(11)
	fcmpu 7,0,13
	cror 30,28,30
	beq- 7,.L56
	.loc 1 358 0 discriminator 2
	addi 9,9,152
	slwi 9,9,2
	add 9,30,9
	lfs 13,12(9)
	fcmpu 7,0,13
	cror 30,29,30
	beq- 7,.L52
	.loc 1 358 0
	li 27,2
	b .L56
.L50:
	.loc 1 358 0 discriminator 2
	mr 3,28
	mr 4,29
	bl BoxOnPlaneSide
.LVL72:
	.loc 1 361 0 is_stmt 1 discriminator 2
	andi. 0,3,1
	rlwinm 27,3,0,30,30
	bne- 0,.L56
	.loc 1 364 0
	cmpwi 7,27,0
	bne+ 7,.L52
.LVL73:
.L45:
	.loc 1 366 0
	lwz 0,36(1)
	lwz 27,12(1)
	mtlr 0
	lwz 28,16(1)
	lwz 29,20(1)
	lwz 30,24(1)
.LVL74:
	lwz 31,28(1)
	addi 1,1,32
	.cfi_remember_state
.LCFI19:
	.cfi_def_cfa_offset 0
	.cfi_restore 31
	.cfi_restore 30
	.cfi_restore 29
	.cfi_restore 28
	.cfi_restore 27
	blr
.LVL75:
.L47:
.LCFI20:
	.cfi_restore_state
	.loc 1 342 0
	lwz 9,12(30)
	cmpwi 7,9,256
	beq- 7,.L45
.LVL76:
	.loc 1 348 0
	lis 11,sv+160@ha
	.loc 1 350 0
	addi 0,9,8
	.loc 1 348 0
	lwz 11,sv+160@l(11)
	.loc 1 350 0
	slwi 0,0,1
	.loc 1 351 0
	addi 9,9,1
	.loc 1 366 0
	lwz 27,12(1)
	.loc 1 348 0
	lwz 11,168(11)
	.loc 1 366 0
	lwz 28,16(1)
	.loc 1 348 0
	subf 11,11,31
	.loc 1 351 0
	stw 9,12(30)
	.loc 1 348 0
	srawi 11,11,6
	.loc 1 366 0
	lwz 29,20(1)
	.loc 1 348 0
	addi 11,11,-1
	.loc 1 366 0
	lwz 31,28(1)
.LVL77:
	.loc 1 350 0
	sthx 11,30,0
	.loc 1 366 0
	lwz 0,36(1)
	lwz 30,24(1)
.LVL78:
	mtlr 0
	addi 1,1,32
	.cfi_restore 27
	.cfi_restore 28
	.cfi_restore 29
	.cfi_restore 30
	.cfi_restore 31
.LCFI21:
	.cfi_def_cfa_offset 0
	blr
	.cfi_endproc
.LFE45:
	.size	SV_FindTouchedLeafs, .-SV_FindTouchedLeafs
	.align 2
	.globl SV_LinkEdict
	.type	SV_LinkEdict, @function
SV_LinkEdict:
.LFB46:
	.loc 1 375 0
	.cfi_startproc
.LVL79:
	mflr 0
	stwu 1,-32(1)
.LCFI22:
	.cfi_def_cfa_offset 32
	.cfi_register 65, 0
	stw 30,24(1)
	mr 30,4
	.cfi_offset 30, -8
	stw 0,36(1)
	stw 31,28(1)
	mr 31,3
	.cfi_offset 31, -4
	.cfi_offset 65, 4
	.loc 1 378 0
	lwz 0,4(3)
	.loc 1 375 0
	stw 29,20(1)
	.loc 1 378 0
	cmpwi 7,0,0
	beq- 7,.L62
	.cfi_offset 29, -12
	.loc 1 379 0
	bl SV_UnlinkEdict
.LVL80:
.L62:
	.loc 1 381 0
	lis 29,sv@ha
	la 29,sv@l(29)
	lwz 0,3500(29)
	cmpw 7,0,31
	beq- 7,.L61
	.loc 1 384 0
	lbz 0,0(31)
	cmpwi 7,0,0
	bne- 7,.L61
	.loc 1 390 0
	lis 9,.LC1@ha
	lfs 13,640(31)
	lfs 0,.LC1@l(9)
	fcmpu 7,13,0
	beq- 7,.L90
.L64:
	.loc 1 410 0
	lfs 0,652(31)
	.loc 1 416 0
	addi 9,1,12
	.loc 1 410 0
	lfs 11,744(31)
	.loc 1 411 0
	lfs 8,756(31)
	.loc 1 410 0
	fadds 11,0,11
	lfs 12,644(31)
	.loc 1 411 0
	fadds 0,0,8
	.loc 1 410 0
	lfs 13,648(31)
	lfs 9,736(31)
	lfs 10,740(31)
	.loc 1 411 0
	stfs 0,628(31)
	.loc 1 410 0
	fadds 9,12,9
	.loc 1 411 0
	lfs 6,748(31)
	.loc 1 410 0
	fadds 10,13,10
	.loc 1 411 0
	lfs 7,752(31)
	.loc 1 416 0
	lfs 0,732(31)
	.loc 1 411 0
	fadds 12,12,6
	fadds 13,13,7
	.loc 1 410 0
	stfs 9,608(31)
	.loc 1 416 0
	fctiwz 0,0
	.loc 1 410 0
	stfs 10,612(31)
	stfs 11,616(31)
	.loc 1 411 0
	stfs 12,620(31)
	stfs 13,624(31)
	.loc 1 416 0
	stfiwx 0,0,9
	lwz 0,12(1)
	andi. 9,0,16
	bne- 0,.L69
.L95:
	.loc 1 432 0
	lfs 0,908(31)
	addi 9,1,8
	.loc 1 416 0
	lfs 10,608(31)
	.loc 1 432 0
	fctiwz 0,0
	.loc 1 416 0
	lfs 11,612(31)
	lfs 12,620(31)
	lfs 13,624(31)
	.loc 1 432 0
	stfiwx 0,0,9
	lwz 0,8(1)
	andi. 9,0,256
	beq- 0,.L72
.L97:
	.loc 1 434 0
	lis 9,.LC11@ha
	.loc 1 450 0
	li 0,0
	.loc 1 434 0
	lfs 0,.LC11@l(9)
	.loc 1 451 0
	lis 9,.LC12@ha
	.loc 1 450 0
	stw 0,12(31)
	.loc 1 434 0
	fsubs 10,10,0
	.loc 1 435 0
	fsubs 11,11,0
	.loc 1 436 0
	fadds 12,12,0
	.loc 1 437 0
	fadds 0,13,0
	.loc 1 451 0
	lfs 13,604(31)
	.loc 1 434 0
	stfs 10,608(31)
	.loc 1 435 0
	stfs 11,612(31)
	.loc 1 437 0
	stfs 0,624(31)
	.loc 1 451 0
	lfs 0,.LC12@l(9)
	.loc 1 436 0
	stfs 12,620(31)
	.loc 1 451 0
	fcmpu 7,13,0
	bne- 7,.L91
.L74:
	.loc 1 454 0
	lis 9,.LC12@ha
	lfs 12,640(31)
	lfs 0,.LC12@l(9)
	fcmpu 7,12,0
	beq- 7,.L61
	.loc 1 458 0
	lis 29,.LANCHOR0@ha
	la 29,.LANCHOR0@l(29)
	addi 29,29,212
	mr 4,29
.L89:
.LVL81:
	.loc 1 461 0
	lwz 9,0(4)
	cmpwi 7,9,-1
	.loc 1 463 0
	addi 11,9,148
	.loc 1 465 0
	addi 0,9,152
	.loc 1 463 0
	slwi 11,11,2
	.loc 1 465 0
	slwi 0,0,2
	.loc 1 463 0
	add 11,31,11
	.loc 1 465 0
	add 10,31,0
	.loc 1 461 0
	beq- 7,.L76
.L92:
	.loc 1 463 0
	lfs 0,4(4)
	lfs 13,16(11)
	fcmpu 7,13,0
	bng- 7,.L88
	.loc 1 464 0
	lwz 4,8(4)
.LVL82:
	.loc 1 461 0
	lwz 9,0(4)
	cmpwi 7,9,-1
	.loc 1 463 0
	addi 11,9,148
	.loc 1 465 0
	addi 0,9,152
	.loc 1 463 0
	slwi 11,11,2
	.loc 1 465 0
	slwi 0,0,2
	.loc 1 463 0
	add 11,31,11
	.loc 1 465 0
	add 10,31,0
	.loc 1 461 0
	bne+ 7,.L92
.L76:
	.loc 1 473 0
	lis 9,.LC0@ha
	.loc 1 474 0
	addi 3,31,4
	.loc 1 473 0
	lfs 0,.LC0@l(9)
	fcmpu 7,12,0
	beq- 7,.L93
	.loc 1 476 0
	addi 4,4,24
.LVL83:
	bl InsertLinkBefore
.LVL84:
.L82:
	.loc 1 479 0
	cmpwi 7,30,0
	beq+ 7,.L61
	.loc 1 481 0
	lwz 0,36(1)
	.loc 1 480 0
	mr 3,31
	.loc 1 481 0
	lwz 30,24(1)
	.loc 1 480 0
	mr 4,29
	.loc 1 481 0
	lwz 31,28(1)
.LVL85:
	mtlr 0
	lwz 29,20(1)
	addi 1,1,32
	.cfi_remember_state
.LCFI23:
	.cfi_def_cfa_offset 0
	.cfi_restore 31
	.cfi_restore 30
	.cfi_restore 29
	.loc 1 480 0
	b SV_TouchLinks
.LVL86:
.L61:
.LCFI24:
	.cfi_restore_state
	.loc 1 481 0
	lwz 0,36(1)
	lwz 29,20(1)
	mtlr 0
	lwz 30,24(1)
	lwz 31,28(1)
.LVL87:
	addi 1,1,32
	.cfi_remember_state
.LCFI25:
	.cfi_def_cfa_offset 0
	.cfi_restore 31
	.cfi_restore 30
	.cfi_restore 29
	blr
.LVL88:
.L90:
.LCFI26:
	.cfi_restore_state
	.loc 1 390 0 discriminator 1
	lis 9,.LC12@ha
	lfs 13,680(31)
	lfs 0,.LC12@l(9)
	fcmpu 7,13,0
	bne- 7,.L65
	.loc 1 391 0
	lfs 13,684(31)
	fcmpu 7,13,0
	bne- 7,.L65
	.loc 1 391 0 is_stmt 0 discriminator 1
	lfs 13,688(31)
	fcmpu 7,13,0
	beq- 7,.L64
.L65:
.LBB8:
	.loc 1 396 0 is_stmt 1
	lfs 1,740(31)
	.loc 1 397 0
	lfs 0,752(31)
	.loc 1 396 0
	fmuls 12,1,1
	lfs 1,736(31)
	.loc 1 397 0
	fmuls 13,0,0
	lfs 0,748(31)
	.loc 1 396 0
	fmadds 12,1,1,12
	lfs 1,744(31)
	.loc 1 397 0
	fmadds 13,0,0,13
	lfs 0,756(31)
	.loc 1 396 0
	fmadds 1,1,1,12
.LVL89:
	.loc 1 397 0
	fmadds 0,0,0,13
.LVL90:
	.loc 1 398 0
	fcmpu 7,1,0
	blt- 7,.L94
.LVL91:
.L66:
	.loc 1 400 0
	bl sqrt
.LVL92:
	.loc 1 374 0
	li 0,3
	.loc 1 400 0
	frsp 1,1
.LVL93:
	.loc 1 374 0
	mtctr 0
	addi 9,31,640
.LVL94:
.L67:
	.loc 1 403 0 discriminator 2
	lfsu 0,4(9)
	fsubs 13,0,1
	.loc 1 404 0 discriminator 2
	fadds 0,1,0
	.loc 1 403 0 discriminator 2
	stfs 13,-36(9)
	.loc 1 404 0 discriminator 2
	stfs 0,-24(9)
	.loc 1 401 0 discriminator 2
	bdnz .L67
.LBE8:
	.loc 1 416 0
	lfs 0,732(31)
	addi 9,1,12
	fctiwz 0,0
	stfiwx 0,0,9
	lwz 0,12(1)
	andi. 9,0,16
	beq- 0,.L95
.LVL95:
.L69:
.LBB9:
	.loc 1 418 0
	lis 9,eval_light_lev@ha
	lwz 0,eval_light_lev@l(9)
	cmpwi 7,0,0
	bne- 7,.L96
	lis 9,.LC9@ha
	lfs 0,.LC9@l(9)
.L71:
	.loc 1 419 0 discriminator 3
	lfs 12,644(31)
.LBE9:
	.loc 1 432 0 discriminator 3
	addi 9,1,8
.LBB10:
	.loc 1 420 0 discriminator 3
	lfs 13,648(31)
	.loc 1 421 0 discriminator 3
	lfs 9,652(31)
	.loc 1 419 0 discriminator 3
	fsub 10,12,0
	.loc 1 420 0 discriminator 3
	fsub 11,13,0
	.loc 1 421 0 discriminator 3
	fsub 8,9,0
	.loc 1 422 0 discriminator 3
	fadd 12,12,0
	.loc 1 423 0 discriminator 3
	fadd 13,13,0
	.loc 1 424 0 discriminator 3
	fadd 0,9,0
	.loc 1 419 0 discriminator 3
	frsp 10,10
	.loc 1 420 0 discriminator 3
	frsp 11,11
	.loc 1 424 0 discriminator 3
	frsp 0,0
	.loc 1 421 0 discriminator 3
	frsp 8,8
	.loc 1 419 0 discriminator 3
	stfs 10,608(31)
	.loc 1 422 0 discriminator 3
	frsp 12,12
	.loc 1 420 0 discriminator 3
	stfs 11,612(31)
	.loc 1 424 0 discriminator 3
	stfs 0,628(31)
	.loc 1 423 0 discriminator 3
	frsp 13,13
.LBE10:
	.loc 1 432 0 discriminator 3
	lfs 0,908(31)
.LBB11:
	.loc 1 421 0 discriminator 3
	stfs 8,616(31)
.LBE11:
	.loc 1 432 0 discriminator 3
	fctiwz 0,0
.LBB12:
	.loc 1 422 0 discriminator 3
	stfs 12,620(31)
	.loc 1 423 0 discriminator 3
	stfs 13,624(31)
.LBE12:
	.loc 1 432 0 discriminator 3
	stfiwx 0,0,9
	lwz 0,8(1)
	andi. 9,0,256
	bne- 0,.L97
.L72:
	.loc 1 441 0
	lis 9,.LC0@ha
	.loc 1 443 0
	lfs 9,616(31)
	.loc 1 441 0
	lfs 0,.LC0@l(9)
	.loc 1 451 0
	lis 9,.LC12@ha
	.loc 1 446 0
	lfs 8,628(31)
	.loc 1 450 0
	li 0,0
	.loc 1 445 0
	fadds 13,13,0
	.loc 1 450 0
	stw 0,12(31)
	.loc 1 441 0
	fsubs 10,10,0
	.loc 1 442 0
	fsubs 11,11,0
	.loc 1 443 0
	fsubs 9,9,0
	.loc 1 445 0
	stfs 13,624(31)
	.loc 1 444 0
	fadds 12,12,0
	.loc 1 451 0
	lfs 13,604(31)
	.loc 1 446 0
	fadds 0,8,0
	.loc 1 441 0
	stfs 10,608(31)
	.loc 1 442 0
	stfs 11,612(31)
	.loc 1 443 0
	stfs 9,616(31)
	.loc 1 446 0
	stfs 0,628(31)
	.loc 1 451 0
	lfs 0,.LC12@l(9)
	.loc 1 444 0
	stfs 12,620(31)
	.loc 1 451 0
	fcmpu 7,13,0
	beq+ 7,.L74
.L91:
	.loc 1 452 0
	lwz 9,160(29)
	mr 3,31
	lwz 4,192(9)
	bl SV_FindTouchedLeafs
	b .L74
.LVL96:
.L88:
	.loc 1 465 0
	lfs 13,12(10)
	fcmpu 7,0,13
	bng- 7,.L76
	.loc 1 466 0
	lwz 4,12(4)
.LVL97:
	b .L89
.L93:
	.loc 1 474 0
	addi 4,4,16
.LVL98:
	bl InsertLinkBefore
.LVL99:
	b .L82
.L96:
.LBB13:
	.loc 1 418 0 discriminator 1
	add 9,31,0
	lfs 13,604(9)
	lis 9,.LC7@ha
	lfs 0,.LC7@l(9)
	fmul 0,13,0
	b .L71
.LVL100:
.L94:
.LBE13:
.LBB14:
	.loc 1 399 0
	fmr 1,0
.LVL101:
	b .L66
.LBE14:
	.cfi_endproc
.LFE46:
	.size	SV_LinkEdict, .-SV_LinkEdict
	.align 2
	.globl SV_HullPointContents
	.type	SV_HullPointContents, @function
SV_HullPointContents:
.LFB47:
	.loc 1 502 0
	.cfi_startproc
.LVL102:
	stwu 1,-32(1)
.LCFI27:
	.cfi_def_cfa_offset 32
	mflr 0
	stw 31,20(1)
	.loc 1 507 0
	mr. 31,4
	.cfi_offset 31, -12
	.cfi_register 65, 0
	.loc 1 502 0
	stw 29,12(1)
	mr 29,5
	.cfi_offset 29, -20
	stw 30,16(1)
	mr 30,3
	.cfi_offset 30, -16
	stw 0,36(1)
	stfd 31,24(1)
	stw 28,8(1)
	.loc 1 507 0
	blt- 0,.L99
	.cfi_offset 28, -24
	.cfi_offset 63, -8
	.cfi_offset 65, 4
	.loc 1 510 0
	lis 28,.LC13@ha
	.loc 1 519 0
	lis 9,.LC12@ha
	.loc 1 510 0
	la 28,.LC13@l(28)
	.loc 1 519 0
	lfs 31,.LC12@l(9)
	b .L109
.LVL103:
.L112:
	.loc 1 516 0
	lfsx 13,29,0
	lfs 0,12(9)
	fsubs 0,13,0
.LVL104:
	.loc 1 519 0
	fcmpu 7,0,31
	bnl- 7,.L111
.L113:
	.loc 1 520 0
	lha 31,6(31)
.LVL105:
	.loc 1 507 0
	cmpwi 7,31,0
	blt- 7,.L99
.LVL106:
.L109:
	.loc 1 509 0
	lwz 0,8(30)
	.loc 1 510 0
	mr 3,28
	.loc 1 509 0
	cmpw 7,0,31
	bgt- 7,.L100
	.loc 1 509 0 is_stmt 0 discriminator 1
	lwz 0,12(30)
	cmpw 7,0,31
	bge- 7,.L101
.L100:
	.loc 1 510 0 is_stmt 1
	crxor 6,6,6
	bl Sys_Error
.L101:
	.loc 1 512 0
	lwz 9,0(30)
	slwi 31,31,3
.LVL107:
	.loc 1 513 0
	lwz 10,4(30)
	lwzx 11,9,31
	.loc 1 512 0
	add 31,9,31
.LVL108:
	.loc 1 513 0
	mulli 11,11,20
	add 9,10,11
.LVL109:
	.loc 1 515 0
	lbz 0,16(9)
	cmplwi 7,0,2
	.loc 1 516 0
	slwi 0,0,2
	.loc 1 515 0
	ble- 7,.L112
	.loc 1 518 0
	lfs 0,4(29)
	lfs 13,4(9)
	lfsx 12,10,11
	fmuls 13,13,0
	lfs 0,0(29)
	lfs 11,8(9)
	fmadds 12,12,0,13
	lfs 0,8(29)
	lfs 13,12(9)
	fmadds 0,11,0,12
	fsubs 0,0,13
.LVL110:
	.loc 1 519 0
	fcmpu 7,0,31
	blt- 7,.L113
.L111:
	.loc 1 522 0
	lha 31,4(31)
.LVL111:
	.loc 1 507 0
	cmpwi 7,31,0
	bge+ 7,.L109
.LVL112:
.L99:
	.loc 1 526 0
	lwz 0,36(1)
	mr 3,31
	lwz 28,8(1)
	mtlr 0
	lwz 29,12(1)
.LVL113:
	lwz 30,16(1)
.LVL114:
	lwz 31,20(1)
.LVL115:
	lfd 31,24(1)
	addi 1,1,32
.LCFI28:
	.cfi_def_cfa_offset 0
	.cfi_restore 63
	.cfi_restore 31
	.cfi_restore 30
	.cfi_restore 29
	.cfi_restore 28
	blr
	.cfi_endproc
.LFE47:
	.size	SV_HullPointContents, .-SV_HullPointContents
	.align 2
	.globl SV_PointContents
	.type	SV_PointContents, @function
SV_PointContents:
.LFB48:
	.loc 1 538 0
	.cfi_startproc
.LVL116:
	.loc 1 541 0
	lis 9,sv+160@ha
	.loc 1 538 0
	mflr 0
	.loc 1 541 0
	lwz 9,sv+160@l(9)
	.loc 1 538 0
	mr 5,3
	stwu 1,-8(1)
.LCFI29:
	.cfi_def_cfa_offset 8
	.cfi_register 65, 0
	.loc 1 541 0
	li 4,0
	addi 3,9,236
.LVL117:
	.loc 1 538 0
	stw 0,12(1)
	.loc 1 541 0
	.cfi_offset 65, 4
	bl SV_HullPointContents
.LVL118:
	.loc 1 542 0
	addi 0,3,14
	cmplwi 7,0,5
	ble- 7,.L117
.LVL119:
.L115:
	.loc 1 545 0
	lwz 0,12(1)
	addi 1,1,8
	.cfi_remember_state
.LCFI30:
	.cfi_def_cfa_offset 0
	mtlr 0
	blr
.L117:
.LCFI31:
	.cfi_restore_state
	.loc 1 543 0
	li 3,-3
.LVL120:
	b .L115
	.cfi_endproc
.LFE48:
	.size	SV_PointContents, .-SV_PointContents
	.align 2
	.globl SV_TruePointContents
	.type	SV_TruePointContents, @function
SV_TruePointContents:
.LFB49:
	.loc 1 548 0
	.cfi_startproc
.LVL121:
	.loc 1 549 0
	lis 9,sv+160@ha
	.loc 1 548 0
	mr 5,3
	.loc 1 549 0
	lwz 9,sv+160@l(9)
	li 4,0
	.loc 1 550 0
	.loc 1 549 0
	addi 3,9,236
.LVL122:
	b SV_HullPointContents
.LVL123:
	.cfi_endproc
.LFE49:
	.size	SV_TruePointContents, .-SV_TruePointContents
	.align 2
	.globl SV_RecursiveHullCheck
	.type	SV_RecursiveHullCheck, @function
SV_RecursiveHullCheck:
.LFB51:
	.loc 1 592 0
	.cfi_startproc
.LVL124:
	stwu 1,-112(1)
.LCFI32:
	.cfi_def_cfa_offset 112
	mflr 0
	stw 29,60(1)
	.loc 1 603 0
	mr. 29,4
	.cfi_offset 29, -52
	.cfi_register 65, 0
	.loc 1 592 0
	stfd 27,72(1)
	fmr 27,2
	.cfi_offset 59, -40
	stfd 30,96(1)
	fmr 30,1
	.cfi_offset 62, -16
	stw 26,48(1)
	mr 26,7
	.cfi_offset 26, -64
	stw 28,56(1)
	mr 28,3
	.cfi_offset 28, -56
	stw 30,64(1)
	mr 30,6
	.cfi_offset 30, -48
	stw 31,68(1)
	mr 31,5
	.cfi_offset 31, -44
	stw 0,116(1)
	stfd 28,80(1)
	stfd 29,88(1)
	stfd 31,104(1)
	stw 21,28(1)
	stw 22,32(1)
	stw 23,36(1)
	stw 24,40(1)
	stw 25,44(1)
	stw 27,52(1)
	.loc 1 603 0
	blt- 0,.L163
	.cfi_offset 27, -60
	.cfi_offset 25, -68
	.cfi_offset 24, -72
	.cfi_offset 23, -76
	.cfi_offset 22, -80
	.cfi_offset 21, -84
	.cfi_offset 63, -8
	.cfi_offset 61, -24
	.cfi_offset 60, -32
	.cfi_offset 65, 4
	.loc 1 618 0
	lwz 0,8(3)
	cmpw 7,29,0
	blt- 7,.L124
	.loc 1 618 0 is_stmt 0 discriminator 1
	lwz 0,12(3)
	cmpw 7,29,0
	ble- 7,.L125
.L124:
	.loc 1 619 0 is_stmt 1
	lis 3,.LC14@ha
.LVL125:
	la 3,.LC14@l(3)
	crxor 6,6,6
	bl Sys_Error
.LVL126:
.L125:
	.loc 1 624 0
	lwz 23,0(28)
	slwi 29,29,3
.LVL127:
	.loc 1 625 0
	lwz 24,4(28)
	lwzx 25,23,29
	.loc 1 624 0
	add 23,23,29
.LVL128:
	.loc 1 625 0
	mulli 25,25,20
	add 27,24,25
.LVL129:
	.loc 1 627 0
	lbz 0,16(27)
	cmplwi 7,0,2
	ble- 7,.L164
	.loc 1 634 0
	lfs 0,4(27)
	.loc 1 635 0
	lfs 11,4(30)
	.loc 1 634 0
	lfs 13,4(31)
	lfs 10,0(31)
	fmuls 13,0,13
	.loc 1 635 0
	lfs 12,0(30)
	fmuls 0,0,11
	.loc 1 634 0
	lfsx 11,24,25
	fmadds 13,11,10,13
	lfs 10,8(31)
	.loc 1 635 0
	fmadds 11,11,12,0
	.loc 1 634 0
	lfs 12,8(27)
	.loc 1 635 0
	lfs 0,8(30)
	.loc 1 634 0
	fmadds 13,12,10,13
	.loc 1 635 0
	fmadds 0,12,0,11
	.loc 1 634 0
	lfs 12,12(27)
	fsubs 13,13,12
.LVL130:
	.loc 1 635 0
	fsubs 0,0,12
.LVL131:
.L127:
	.loc 1 639 0
	lis 9,.LC12@ha
	lfs 12,.LC12@l(9)
	fcmpu 7,13,12
	cror 30,29,30
	bne- 7,.L128
	.loc 1 639 0 is_stmt 0 discriminator 1
	fcmpu 7,0,12
	cror 30,29,30
	beq- 7,.L165
.L128:
	.loc 1 641 0 is_stmt 1
	lis 9,.LC12@ha
	lfs 12,.LC12@l(9)
	fcmpu 7,13,12
	blt- 7,.L166
	.loc 1 654 0
	fmr 31,13
	lis 9,.LC16@ha
	lfs 12,.LC16@l(9)
	fsubs 0,13,0
.LVL132:
	fsub 31,31,12
	fdiv 31,31,0
	frsp 31,31
.LVL133:
.L135:
	.loc 1 655 0
	lis 9,.LC12@ha
	lfs 0,.LC12@l(9)
	fcmpu 7,31,0
	blt- 7,.L147
	.loc 1 657 0
	lis 9,.LC0@ha
	lfs 0,.LC0@l(9)
	fcmpu 7,31,0
	bng- 7,.L136
.L147:
	.loc 1 658 0
	fmr 31,0
.LVL134:
.L136:
	.loc 1 660 0
	fsubs 28,27,30
	li 9,0
	addi 29,1,8
.LVL135:
	fmadds 29,28,31,30
.LVL136:
.L137:
	.loc 1 662 0 discriminator 2
	lfsx 0,31,9
	.loc 1 661 0 discriminator 2
	cmpwi 7,9,8
	.loc 1 662 0 discriminator 2
	lfsx 12,30,9
	fsubs 12,12,0
	fmadds 0,12,31,0
	stfsx 0,29,9
	.loc 1 661 0 discriminator 2
	addi 9,9,4
	bne+ 7,.L137
	.loc 1 664 0
	lis 9,.LC12@ha
	.loc 1 667 0
	fmr 1,30
	.loc 1 664 0
	lfs 0,.LC12@l(9)
	.loc 1 667 0
	fmr 2,29
	mr 3,28
	mr 5,31
	.loc 1 664 0
	fcmpu 7,13,0
	.loc 1 667 0
	mr 6,29
	mr 7,26
	.loc 1 668 0
	li 21,0
	.loc 1 664 0
	mfcr 22
	rlwinm 22,22,29,1
.LVL137:
	.loc 1 667 0
	slwi 9,22,1
	add 9,23,9
	lha 4,4(9)
	bl SV_RecursiveHullCheck
.LVL138:
	cmpwi 7,3,0
	bne- 7,.L167
.LVL139:
.L123:
	.loc 1 721 0
	lwz 0,116(1)
	mr 3,21
	lwz 22,32(1)
	mtlr 0
	lwz 21,28(1)
	lwz 23,36(1)
	lwz 24,40(1)
	lwz 25,44(1)
	lwz 26,48(1)
.LVL140:
	lwz 27,52(1)
	lwz 28,56(1)
.LVL141:
	lwz 29,60(1)
	lwz 30,64(1)
.LVL142:
	lwz 31,68(1)
.LVL143:
	lfd 27,72(1)
	lfd 28,80(1)
	lfd 29,88(1)
	lfd 30,96(1)
.LVL144:
	lfd 31,104(1)
	addi 1,1,112
	.cfi_remember_state
.LCFI33:
	.cfi_def_cfa_offset 0
	.cfi_restore 63
	.cfi_restore 62
	.cfi_restore 61
	.cfi_restore 60
	.cfi_restore 59
	.cfi_restore 31
	.cfi_restore 30
	.cfi_restore 29
	.cfi_restore 28
	.cfi_restore 27
	.cfi_restore 26
	.cfi_restore 25
	.cfi_restore 24
	.cfi_restore 23
	.cfi_restore 22
	.cfi_restore 21
	blr
.LVL145:
.L164:
.LCFI34:
	.cfi_restore_state
	.loc 1 629 0
	slwi 0,0,2
	lfs 0,12(27)
	lfsx 13,31,0
	.loc 1 630 0
	lfsx 12,30,0
	.loc 1 629 0
	fsubs 13,13,0
.LVL146:
	.loc 1 630 0
	fsubs 0,12,0
.LVL147:
	b .L127
.L166:
	.loc 1 641 0 discriminator 1
	fcmpu 7,0,12
	blt- 7,.L168
	.loc 1 652 0
	fmr 31,13
	lis 9,.LC16@ha
	lfs 12,.LC16@l(9)
	fsubs 0,13,0
.LVL148:
	fadd 31,31,12
	fdiv 31,31,0
	frsp 31,31
.LVL149:
	b .L135
.LVL150:
.L163:
	.loc 1 605 0
	cmpwi 7,29,-2
	beq- 7,.L121
	.loc 1 608 0
	cmpwi 7,29,-1
	.loc 1 607 0
	li 0,0
	stb 0,0(7)
	.loc 1 609 0
	li 0,1
	.loc 1 608 0
	beq- 7,.L169
	.loc 1 611 0
	stb 0,3(7)
	.loc 1 615 0
	li 21,1
	b .L123
.LVL151:
.L167:
	.loc 1 679 0
	xori 0,22,1
	mr 3,28
	slwi 0,0,1
	mr 5,29
	add 23,23,0
.LVL152:
	lha 4,4(23)
	bl SV_HullPointContents
	cmpwi 7,3,-2
	bne- 7,.L170
	.loc 1 684 0
	lbz 0,0(26)
	cmpwi 7,0,0
	bne- 7,.L123
	.loc 1 690 0
	cmpwi 7,22,0
	beq- 7,.L171
	.loc 1 697 0
	lis 11,vec3_origin@ha
	lfsx 11,24,25
	la 9,vec3_origin@l(11)
	lfs 12,4(27)
	lfs 13,8(27)
	.loc 1 698 0
	lfs 0,12(27)
	.loc 1 697 0
	lfs 8,vec3_origin@l(11)
	lfs 9,4(9)
	.loc 1 698 0
	fneg 0,0
	.loc 1 697 0
	lfs 10,8(9)
	fsubs 11,8,11
	fsubs 12,9,12
	fsubs 13,10,13
	.loc 1 698 0
	stfs 0,32(26)
	.loc 1 697 0
	stfs 11,20(26)
	stfs 12,24(26)
	stfs 13,28(26)
.L144:
	.loc 1 705 0 discriminator 1
	lis 9,.LC12@ha
	.loc 1 704 0 discriminator 1
	lis 27,.LC17@ha
.LVL153:
	.loc 1 705 0 discriminator 1
	lfs 27,.LC12@l(9)
.LVL154:
.L160:
	.loc 1 701 0 discriminator 1
	lwz 4,8(28)
	mr 3,28
	mr 5,29
	bl SV_HullPointContents
	cmpwi 7,3,-2
	bne- 7,.L162
	.loc 1 704 0
	lfs 0,.LC17@l(27)
	fsubs 31,31,0
.LVL155:
	.loc 1 705 0
	fcmpu 7,31,27
	blt- 7,.L162
	.loc 1 712 0
	fmadds 29,28,31,30
.LVL156:
	li 9,0
.LVL157:
.L143:
	.loc 1 714 0 discriminator 2
	lfsx 0,31,9
	.loc 1 713 0 discriminator 2
	cmpwi 7,9,8
	.loc 1 714 0 discriminator 2
	lfsx 13,30,9
	fsubs 13,13,0
	fmadds 0,13,31,0
	stfsx 0,29,9
	.loc 1 713 0 discriminator 2
	addi 9,9,4
	bne+ 7,.L143
	b .L160
.LVL158:
.L170:
	.loc 1 682 0
	fmr 1,29
	lha 4,4(23)
	fmr 2,27
	mr 3,28
	mr 5,29
	mr 6,30
	mr 7,26
	bl SV_RecursiveHullCheck
	mr 21,3
	b .L123
.LVL159:
.L169:
	.loc 1 609 0
	stb 0,2(7)
	.loc 1 615 0
	li 21,1
	b .L123
.LVL160:
.L165:
	.loc 1 640 0
	fmr 1,30
	lha 4,4(23)
	fmr 2,27
.L161:
	.loc 1 642 0
	mr 3,28
	mr 5,31
	mr 6,30
	mr 7,26
	bl SV_RecursiveHullCheck
.LVL161:
	mr 21,3
	b .L123
.LVL162:
.L168:
	fmr 1,30
	lha 4,6(23)
	fmr 2,27
	b .L161
.LVL163:
.L121:
	.loc 1 614 0
	li 0,1
	.loc 1 615 0
	li 21,1
	.loc 1 614 0
	stb 0,1(7)
	b .L123
.LVL164:
.L171:
	.loc 1 692 0
	lwzx 10,24,25
	lwz 11,4(27)
	lwz 9,8(27)
	.loc 1 693 0
	lwz 0,12(27)
	.loc 1 692 0
	stw 10,20(26)
	stw 11,24(26)
	stw 9,28(26)
	.loc 1 693 0
	stw 0,32(26)
	b .L144
.LVL165:
.L162:
	.loc 1 718 0
	lwz 0,8(1)
	.loc 1 720 0
	li 21,0
	.loc 1 717 0
	stfs 29,4(26)
	.loc 1 718 0
	stw 0,8(26)
	lwz 0,12(1)
	stw 0,12(26)
	lwz 0,16(1)
	stw 0,16(26)
	.loc 1 720 0
	b .L123
	.cfi_endproc
.LFE51:
	.size	SV_RecursiveHullCheck, .-SV_RecursiveHullCheck
	.align 2
	.globl SV_ClipMoveToEntity
	.type	SV_ClipMoveToEntity, @function
SV_ClipMoveToEntity:
.LFB52:
	.loc 1 733 0
	.cfi_startproc
.LVL166:
	stwu 1,-176(1)
.LCFI35:
	.cfi_def_cfa_offset 176
	mflr 0
	stw 27,148(1)
	mr 27,3
	.cfi_offset 27, -28
	.cfi_register 65, 0
	stw 28,152(1)
	.loc 1 740 0
	addi 3,1,92
.LVL167:
	.loc 1 733 0
	mr 28,5
	.cfi_offset 28, -24
	stw 29,156(1)
	stw 31,164(1)
	.loc 1 740 0
	li 5,40
.LVL168:
	.loc 1 733 0
	mr 31,4
	.cfi_offset 31, -12
	.cfi_offset 29, -20
	.loc 1 741 0
	lis 29,.LC0@ha
	.loc 1 740 0
	li 4,0
.LVL169:
	.loc 1 733 0
	stw 0,180(1)
	stw 25,140(1)
	mr 25,7
	.cfi_offset 25, -36
	.cfi_offset 65, 4
	stw 26,144(1)
	mr 26,6
	.cfi_offset 26, -32
	stw 30,160(1)
	mr 30,8
	.cfi_offset 30, -16
	stfd 31,168(1)
	.loc 1 740 0
	.cfi_offset 63, -8
	bl memset
.LVL170:
	.loc 1 741 0
	lwz 10,.LC0@l(29)
	.loc 1 746 0
	mr 4,26
	.loc 1 743 0
	lwz 11,0(30)
	.loc 1 746 0
	mr 5,25
	.loc 1 743 0
	lwz 9,4(30)
	.loc 1 746 0
	mr 3,31
	.loc 1 743 0
	lwz 0,8(30)
	.loc 1 746 0
	addi 6,1,80
	.loc 1 741 0
	stw 10,96(1)
	.loc 1 753 0
	lis 26,.LC1@ha
.LVL171:
	.loc 1 742 0
	li 10,1
	.loc 1 743 0
	stw 11,100(1)
	.loc 1 742 0
	stb 10,92(1)
	.loc 1 743 0
	stw 9,104(1)
	stw 0,108(1)
	.loc 1 746 0
	bl SV_HullForEntity
.LVL172:
	.loc 1 753 0
	lfs 5,.LC1@l(26)
	.loc 1 746 0
	mr 25,3
.LVL173:
	.loc 1 753 0
	lfs 4,640(31)
	.loc 1 748 0
	lfs 12,80(1)
	lfs 13,84(1)
	.loc 1 753 0
	fcmpu 7,4,5
	.loc 1 748 0
	lfs 0,88(1)
	lfs 9,0(28)
	lfs 10,4(28)
	lfs 11,8(28)
	fsubs 9,9,12
	.loc 1 749 0
	lfs 6,0(30)
	.loc 1 748 0
	fsubs 10,10,13
	.loc 1 749 0
	lfs 7,4(30)
	.loc 1 748 0
	fsubs 11,11,0
	.loc 1 749 0
	lfs 8,8(30)
	fsubs 12,6,12
	fsubs 13,7,13
	.loc 1 748 0
	stfs 9,68(1)
	.loc 1 749 0
	fsubs 0,8,0
	.loc 1 748 0
	stfs 10,72(1)
	stfs 11,76(1)
	.loc 1 749 0
	stfs 12,56(1)
	stfs 13,60(1)
	stfs 0,64(1)
	.loc 1 753 0
	bne- 7,.L173
	.loc 1 753 0 is_stmt 0 discriminator 1
	lis 9,.LC12@ha
	lfs 13,680(31)
	lfs 0,.LC12@l(9)
	fcmpu 7,13,0
	bne- 7,.L174
	.loc 1 754 0 is_stmt 1
	lfs 13,684(31)
	fcmpu 7,13,0
	beq- 7,.L182
.L174:
.LBB15:
	.loc 1 759 0
	addi 3,31,680
.LVL174:
	addi 4,1,44
	addi 5,1,32
	addi 6,1,20
	bl AngleVectors
	.loc 1 761 0
	lfs 13,72(1)
	.loc 1 766 0
	lfs 0,60(1)
	.loc 1 762 0
	lfs 9,48(1)
	.loc 1 763 0
	lfs 10,36(1)
	.loc 1 764 0
	lfs 11,24(1)
	.loc 1 762 0
	fmuls 7,13,9
	.loc 1 763 0
	fmuls 8,13,10
	.loc 1 766 0
	lfs 12,56(1)
	.loc 1 764 0
	fmuls 4,13,11
	.loc 1 761 0
	lfs 13,68(1)
	.loc 1 767 0
	fmuls 5,9,0
	.loc 1 762 0
	lfs 9,44(1)
	.loc 1 768 0
	fmuls 6,10,0
.LVL175:
	.loc 1 763 0
	lfs 10,32(1)
	.loc 1 769 0
	fmuls 0,11,0
	.loc 1 764 0
	lfs 11,20(1)
	.loc 1 762 0
	fmadds 7,13,9,7
	.loc 1 763 0
	fmadds 8,13,10,8
	.loc 1 764 0
	fmadds 4,13,11,4
	.loc 1 761 0
	lfs 13,76(1)
	.loc 1 767 0
	fmadds 5,9,12,5
	.loc 1 762 0
	lfs 9,52(1)
	.loc 1 768 0
	fmadds 6,10,12,6
.LVL176:
	.loc 1 763 0
	lfs 10,40(1)
	.loc 1 769 0
	fmadds 12,11,12,0
	.loc 1 766 0
	lfs 0,64(1)
.LVL177:
	.loc 1 764 0
	lfs 11,28(1)
	.loc 1 762 0
	fmadds 7,13,9,7
	.loc 1 763 0
	fnmadds 8,13,10,8
	.loc 1 767 0
	fmadds 9,9,0,5
	.loc 1 764 0
	fmadds 13,13,11,4
	.loc 1 762 0
	stfs 7,68(1)
	.loc 1 768 0
	fnmadds 10,10,0,6
	.loc 1 763 0
	stfs 8,72(1)
	.loc 1 769 0
	fmadds 11,11,0,12
	.loc 1 767 0
	stfs 9,56(1)
	.loc 1 764 0
	stfs 13,76(1)
	.loc 1 768 0
	stfs 10,60(1)
	.loc 1 769 0
	stfs 11,64(1)
.LVL178:
.L173:
.LBE15:
	.loc 1 774 0
	lis 9,.LC12@ha
	lwz 4,8(25)
	lfs 31,.LC12@l(9)
	mr 3,25
	lfs 2,.LC0@l(29)
	addi 5,1,68
	fmr 1,31
	addi 6,1,56
	addi 7,1,92
	bl SV_RecursiveHullCheck
	.loc 1 778 0
	lfs 0,.LC1@l(26)
	lfs 13,640(31)
	fcmpu 7,13,0
	bne- 7,.L181
	.loc 1 779 0 discriminator 1
	lfs 13,680(31)
	.loc 1 778 0 discriminator 1
	fcmpu 7,13,31
	beq- 7,.L183
.L177:
.LBB16:
	.loc 1 785 0
	lfs 0,96(1)
	lfs 12,.LC0@l(29)
	fcmpu 7,0,12
	beq+ 7,.L176
	.loc 1 787 0
	lis 11,vec3_origin@ha
	lfs 12,684(31)
	la 9,vec3_origin@l(11)
	lfs 9,vec3_origin@l(11)
	lfs 10,4(9)
	.loc 1 788 0
	addi 3,1,20
	.loc 1 787 0
	lfs 11,8(9)
	fsubs 13,9,13
	lfs 0,688(31)
	fsubs 12,10,12
	.loc 1 788 0
	addi 4,1,32
	addi 5,1,44
	.loc 1 787 0
	fsubs 0,11,0
	.loc 1 788 0
	addi 6,1,8
	.loc 1 787 0
	stfs 13,20(1)
	stfs 12,24(1)
	stfs 0,28(1)
	.loc 1 788 0
	bl AngleVectors
	.loc 1 790 0
	lfs 13,104(1)
	.loc 1 795 0
	lfs 0,116(1)
	.loc 1 791 0
	lfs 9,36(1)
	.loc 1 792 0
	lfs 10,48(1)
	.loc 1 793 0
	lfs 12,12(1)
	.loc 1 791 0
	fmuls 7,13,9
	.loc 1 792 0
	fmuls 8,13,10
	.loc 1 793 0
	lfs 11,8(1)
	fmuls 4,13,12
	.loc 1 790 0
	lfs 13,100(1)
	.loc 1 796 0
	fmuls 5,9,0
	.loc 1 791 0
	lfs 9,32(1)
	.loc 1 797 0
	fmuls 6,10,0
.LVL179:
	.loc 1 792 0
	lfs 10,44(1)
	.loc 1 798 0
	fmuls 0,12,0
	.loc 1 795 0
	lfs 12,112(1)
	.loc 1 791 0
	fmadds 7,13,9,7
	.loc 1 792 0
	fmadds 8,13,10,8
	.loc 1 793 0
	fmadds 4,13,11,4
	.loc 1 790 0
	lfs 13,108(1)
	.loc 1 796 0
	fmadds 5,9,12,5
	.loc 1 791 0
	lfs 9,40(1)
	.loc 1 797 0
	fmadds 6,10,12,6
.LVL180:
	.loc 1 792 0
	lfs 10,52(1)
	.loc 1 798 0
	fmadds 12,11,12,0
	.loc 1 795 0
	lfs 0,120(1)
.LVL181:
	.loc 1 793 0
	lfs 11,16(1)
	.loc 1 791 0
	fmadds 7,13,9,7
	.loc 1 792 0
	fnmadds 8,13,10,8
	.loc 1 796 0
	fmadds 9,9,0,5
	.loc 1 793 0
	fmadds 13,13,11,4
	.loc 1 791 0
	stfs 7,100(1)
	.loc 1 797 0
	fnmadds 10,10,0,6
	.loc 1 792 0
	stfs 8,104(1)
	.loc 1 798 0
	fmadds 11,11,0,12
	.loc 1 796 0
	stfs 9,112(1)
	.loc 1 793 0
	stfs 13,108(1)
	.loc 1 797 0
	stfs 10,116(1)
	.loc 1 798 0
	stfs 11,120(1)
.LVL182:
.L181:
	lfs 0,96(1)
.L176:
.LBE16:
	.loc 1 804 0
	lfs 13,.LC0@l(29)
	fcmpu 7,0,13
	beq- 7,.L178
	.loc 1 805 0
	lfs 13,80(1)
	lfs 11,100(1)
	lfs 12,104(1)
	fadds 11,11,13
	lfs 13,84(1)
	lfs 10,108(1)
	fadds 12,12,13
	lfs 13,88(1)
	stfs 11,100(1)
	fadds 13,10,13
	stfs 12,104(1)
	stfs 13,108(1)
.L178:
	.loc 1 808 0
	lfs 13,.LC0@l(29)
	fcmpu 7,0,13
	blt- 7,.L179
	.loc 1 808 0 is_stmt 0 discriminator 1
	lbz 0,93(1)
	cmpwi 7,0,0
	beq- 7,.L180
.L179:
	.loc 1 809 0 is_stmt 1
	stw 31,128(1)
.L180:
	.loc 1 811 0
	mr 3,27
	addi 4,1,92
	li 5,40
	bl memcpy
	.loc 1 812 0
	lwz 0,180(1)
	mr 3,27
	lwz 25,140(1)
.LVL183:
	mtlr 0
	lwz 26,144(1)
	lwz 27,148(1)
.LVL184:
	lwz 28,152(1)
.LVL185:
	lwz 29,156(1)
	lwz 30,160(1)
.LVL186:
	lwz 31,164(1)
.LVL187:
	lfd 31,168(1)
	addi 1,1,176
	.cfi_remember_state
.LCFI36:
	.cfi_def_cfa_offset 0
	.cfi_restore 63
	.cfi_restore 31
	.cfi_restore 30
	.cfi_restore 29
	.cfi_restore 28
	.cfi_restore 27
	.cfi_restore 26
	.cfi_restore 25
	blr
.LVL188:
.L183:
.LCFI37:
	.cfi_restore_state
	.loc 1 779 0
	lfs 0,684(31)
	fcmpu 7,0,31
	bne- 7,.L177
	.loc 1 779 0 is_stmt 0 discriminator 1
	lfs 0,688(31)
	fcmpu 7,0,31
	bne- 7,.L177
	b .L181
.L182:
	.loc 1 754 0 is_stmt 1 discriminator 1
	lfs 13,688(31)
	fcmpu 7,13,0
	beq- 7,.L173
	b .L174
	.cfi_endproc
.LFE52:
	.size	SV_ClipMoveToEntity, .-SV_ClipMoveToEntity
	.align 2
	.globl SV_ClipToLinks
	.type	SV_ClipToLinks, @function
SV_ClipToLinks:
.LFB53:
	.loc 1 824 0
	.cfi_startproc
.LVL189:
	mflr 0
	stwu 1,-128(1)
.LCFI38:
	.cfi_def_cfa_offset 128
	.cfi_register 65, 0
	.loc 1 834 0
	lis 9,.LC12@ha
	.loc 1 824 0
	stfd 31,120(1)
	stw 25,92(1)
	.loc 1 839 0
	lis 25,.LC18@ha
	.cfi_offset 25, -36
	.cfi_offset 63, -8
	.loc 1 824 0
	stw 0,132(1)
	.loc 1 839 0
	la 25,.LC18@l(25)
	.loc 1 824 0
	stw 18,64(1)
	stw 28,104(1)
	stw 29,108(1)
	stw 31,116(1)
	.loc 1 834 0
	lfs 31,.LC12@l(9)
	.loc 1 824 0
	stw 19,68(1)
	.loc 1 877 0
	li 19,1
	.cfi_offset 19, -60
	.cfi_offset 31, -12
	.cfi_offset 29, -20
	.cfi_offset 28, -24
	.cfi_offset 18, -64
	.cfi_offset 65, 4
	.loc 1 824 0
	stw 20,72(1)
	.loc 1 867 0
	addi 20,4,32
	.cfi_offset 20, -56
	.loc 1 824 0
	stw 21,76(1)
	.loc 1 867 0
	addi 21,4,44
	.cfi_offset 21, -52
	.loc 1 824 0
	stw 22,80(1)
	.loc 1 880 0
	addi 22,4,64
	.cfi_offset 22, -48
	.loc 1 824 0
	stw 23,84(1)
	.loc 1 860 0
	lis 23,sv@ha
	.cfi_offset 23, -44
	.loc 1 824 0
	stw 24,88(1)
	.loc 1 841 0
	lis 24,.LC1@ha
	.cfi_offset 24, -40
	.loc 1 824 0
	stw 26,96(1)
	mr 26,3
	.cfi_offset 26, -32
	stw 27,100(1)
	.loc 1 838 0
	lis 27,.LC0@ha
	.cfi_offset 27, -28
	.loc 1 824 0
	stw 30,112(1)
	.loc 1 824 0
	mr 30,4
	.cfi_offset 30, -16
.LVL190:
.L201:
	.loc 1 830 0
	lwz 18,28(26)
.LVL191:
	addi 29,26,24
	cmpw 7,18,29
	beq- 7,.L206
.LVL192:
.L197:
	.loc 1 834 0
	lfs 0,636(18)
	.loc 1 832 0
	lwz 31,4(18)
.LVL193:
	.loc 1 834 0
	fcmpu 7,0,31
	beq- 7,.L186
	.loc 1 836 0
	lwz 0,108(30)
	.loc 1 833 0
	addi 28,18,-4
	.loc 1 836 0
	cmpw 7,0,28
	beq- 7,.L186
	.loc 1 838 0
	lfs 13,.LC0@l(27)
	fcmpu 7,0,13
	beq- 7,.L207
	.loc 1 841 0
	lwz 0,104(30)
	cmpwi 7,0,1
	beq- 7,.L208
.LVL194:
.L188:
	.loc 1 844 0
	lfs 13,0(30)
	lfs 0,616(18)
	fcmpu 7,13,0
	bgt- 7,.L186
	.loc 1 845 0
	lfs 13,4(30)
	lfs 0,620(18)
	fcmpu 7,13,0
	bgt- 7,.L186
	.loc 1 846 0
	lfs 13,8(30)
	lfs 0,624(18)
	fcmpu 7,13,0
	bgt- 7,.L186
	.loc 1 847 0
	lfs 13,12(30)
	lfs 0,604(18)
	fcmpu 7,13,0
	blt- 7,.L186
	.loc 1 848 0
	lfs 13,16(30)
	lfs 0,608(18)
	fcmpu 7,13,0
	blt- 7,.L186
	.loc 1 849 0
	lfs 13,20(30)
	lfs 0,612(18)
	fcmpu 7,13,0
	blt- 7,.L186
	.loc 1 852 0
	lwz 9,108(30)
	cmpwi 7,9,0
	beq- 7,.L189
	.loc 1 852 0 is_stmt 0 discriminator 1
	lfs 0,760(9)
	fcmpu 6,0,31
	beq- 6,.L189
	lfs 0,756(18)
	fcmpu 6,0,31
	beq- 6,.L186
.L189:
	.loc 1 856 0 is_stmt 1
	lbz 0,64(30)
	cmpwi 6,0,0
	bne- 6,.L184
	.loc 1 858 0
	beq- 7,.L191
	.loc 1 860 0
	la 11,sv@l(23)
	lwz 0,3500(11)
	lwz 11,980(18)
	add 11,0,11
	cmpw 7,9,11
	beq- 7,.L186
	.loc 1 862 0
	lwz 9,984(9)
	add 0,0,9
	cmpw 7,28,0
	beq- 7,.L186
.L191:
	.loc 1 866 0
	lfs 0,904(18)
	addi 9,1,56
	fctiwz 0,0
	stfiwx 0,0,9
	lwz 0,56(1)
	.loc 1 867 0
	lwz 5,56(30)
	.loc 1 866 0
	andi. 9,0,32
	beq- 0,.L192
	.loc 1 867 0
	lwz 8,60(30)
	addi 3,1,8
	mr 4,28
	mr 6,20
	mr 7,21
	bl SV_ClipMoveToEntity
	lbz 18,9(1)
.LVL195:
.L193:
	.loc 1 870 0
	lbz 0,8(1)
	cmpwi 7,0,0
	bne- 7,.L194
	.loc 1 870 0 is_stmt 0 discriminator 1
	cmpwi 7,18,0
	beq- 7,.L209
.L194:
	.loc 1 874 0 is_stmt 1
	lbz 0,65(30)
	.loc 1 876 0
	mr 3,22
	addi 4,1,8
	li 5,40
	.loc 1 874 0
	cmpwi 7,0,0
	beq- 7,.L196
	.loc 1 876 0
	bl memcpy
	stw 28,100(30)
	.loc 1 877 0
	stb 19,65(30)
.LVL196:
.L186:
	.loc 1 880 0 discriminator 1
	mr 18,31
.L211:
.LVL197:
	.loc 1 830 0
	cmpw 7,18,29
	bne+ 7,.L197
.LVL198:
.L206:
	.loc 1 887 0
	lwz 0,0(26)
	cmpwi 7,0,-1
	beq- 7,.L184
	.loc 1 890 0
	slwi 0,0,2
	lfs 0,4(26)
	add 9,30,0
	lfs 13,12(9)
	fcmpu 7,13,0
	bgt- 7,.L210
	.loc 1 892 0
	lfsx 13,30,0
	fcmpu 7,13,0
	bnl- 7,.L184
.L212:
	.loc 1 893 0
	lwz 26,12(26)
	b .L201
.LVL199:
.L207:
	.loc 1 839 0
	mr 3,25
	crxor 6,6,6
	bl Sys_Error
	.loc 1 841 0
	lwz 0,104(30)
	cmpwi 7,0,1
	bne+ 7,.L188
.L208:
	.loc 1 841 0 is_stmt 0 discriminator 1
	lfs 0,.LC1@l(24)
	lfs 13,636(18)
	fcmpu 7,13,0
	beq- 7,.L188
	.loc 1 880 0 is_stmt 1
	mr 18,31
.LVL200:
	b .L211
.LVL201:
.L210:
	.loc 1 891 0
	lwz 3,8(26)
	mr 4,30
	bl SV_ClipToLinks
	lwz 0,0(26)
	lfs 0,4(26)
	slwi 0,0,2
	.loc 1 892 0
	lfsx 13,30,0
	fcmpu 7,13,0
	blt+ 7,.L212
.L184:
	.loc 1 894 0
	lwz 0,132(1)
	lwz 18,64(1)
.LVL202:
	mtlr 0
	lwz 19,68(1)
	lwz 20,72(1)
	lwz 21,76(1)
	lwz 22,80(1)
	lwz 23,84(1)
	lwz 24,88(1)
	lwz 25,92(1)
	lwz 26,96(1)
	lwz 27,100(1)
	lwz 28,104(1)
	lwz 29,108(1)
	lwz 30,112(1)
.LVL203:
	lwz 31,116(1)
	lfd 31,120(1)
	addi 1,1,128
	.cfi_remember_state
.LCFI39:
	.cfi_def_cfa_offset 0
	.cfi_restore 63
	.cfi_restore 31
	.cfi_restore 30
	.cfi_restore 29
	.cfi_restore 28
	.cfi_restore 27
	.cfi_restore 26
	.cfi_restore 25
	.cfi_restore 24
	.cfi_restore 23
	.cfi_restore 22
	.cfi_restore 21
	.cfi_restore 20
	.cfi_restore 19
	.cfi_restore 18
	blr
.LVL204:
.L192:
.LCFI40:
	.cfi_restore_state
	.loc 1 869 0
	lwz 6,24(30)
	addi 3,1,8
	lwz 7,28(30)
	mr 4,28
	lwz 8,60(30)
	bl SV_ClipMoveToEntity
	lbz 18,9(1)
.LVL205:
	b .L193
.LVL206:
.L196:
	.loc 1 880 0
	bl memcpy
	stb 18,65(30)
	stw 28,100(30)
	mr 18,31
.LVL207:
	b .L211
.LVL208:
.L209:
	.loc 1 870 0 discriminator 1
	lfs 0,68(30)
	lfs 13,12(1)
	fcmpu 7,13,0
	blt- 7,.L194
	.loc 1 880 0
	mr 18,31
.LVL209:
	b .L211
	.cfi_endproc
.LFE53:
	.size	SV_ClipToLinks, .-SV_ClipToLinks
	.align 2
	.globl SV_MoveBounds
	.type	SV_MoveBounds, @function
SV_MoveBounds:
.LFB54:
	.loc 1 903 0
	.cfi_startproc
.LVL210:
	lis 11,.LC0@ha
	.loc 1 903 0
	li 9,0
	la 11,.LC0@l(11)
.LVL211:
.L217:
	.loc 1 913 0
	lfsx 0,6,9
	lfsx 13,3,9
	.loc 1 915 0
	lfsx 12,4,9
	.loc 1 913 0
	fcmpu 7,0,13
	bng- 7,.L220
	.loc 1 915 0
	fadds 13,13,12
	lfs 0,0(11)
	fsubs 13,13,0
	stfsx 13,7,9
	.loc 1 916 0
	lfsx 12,6,9
	lfsx 13,5,9
	fadds 13,12,13
	fadds 0,13,0
	stfsx 0,8,9
.L216:
	.loc 1 911 0
	cmpwi 7,9,8
	addi 9,9,4
	bne+ 7,.L217
	.loc 1 925 0
	blr
.L220:
	.loc 1 920 0
	fadds 0,0,12
	lfs 13,0(11)
	fsubs 0,0,13
	stfsx 0,7,9
	.loc 1 921 0
	lfsx 12,3,9
	lfsx 0,5,9
	fadds 0,12,0
	fadds 13,0,13
	stfsx 13,8,9
	b .L216
	.cfi_endproc
.LFE54:
	.size	SV_MoveBounds, .-SV_MoveBounds
	.align 2
	.globl SV_Move
	.type	SV_Move, @function
SV_Move:
.LFB55:
	.loc 1 933 0
	.cfi_startproc
.LVL212:
	stwu 1,-208(1)
.LCFI41:
	.cfi_def_cfa_offset 208
	mflr 0
	stw 27,188(1)
	mr 27,3
	.cfi_offset 27, -20
	.cfi_register 65, 0
	stw 29,196(1)
	.loc 1 937 0
	addi 3,1,8
.LVL213:
	.loc 1 933 0
	mr 29,4
	.cfi_offset 29, -12
	stw 30,200(1)
	.loc 1 937 0
	li 4,0
.LVL214:
	.loc 1 933 0
	mr 30,5
	.cfi_offset 30, -8
	.loc 1 937 0
	li 5,112
.LVL215:
	.loc 1 933 0
	stw 0,212(1)
	stw 25,180(1)
	mr 25,9
	.cfi_offset 25, -28
	.cfi_offset 65, 4
	stw 26,184(1)
	mr 26,8
	.cfi_offset 26, -24
	stw 28,192(1)
	mr 28,7
	.cfi_offset 28, -16
	stw 31,204(1)
	.loc 1 933 0
	mr 31,6
	.cfi_offset 31, -4
	.loc 1 937 0
	bl memset
.LVL216:
	.loc 1 940 0
	lis 9,sv+3500@ha
	lwz 4,sv+3500@l(9)
	addi 3,1,128
	mr 5,29
	mr 6,30
	mr 7,31
	mr 8,28
	bl SV_ClipMoveToEntity
	addi 3,1,72
	addi 4,1,128
	li 5,40
	bl memcpy
	.loc 1 949 0
	cmpwi 7,26,2
	.loc 1 942 0
	stw 29,64(1)
	.loc 1 943 0
	stw 28,68(1)
	.loc 1 944 0
	stw 30,32(1)
	.loc 1 945 0
	stw 31,36(1)
	.loc 1 946 0
	stw 26,112(1)
	.loc 1 947 0
	stw 25,116(1)
	.loc 1 949 0
	beq- 7,.L224
	.loc 1 959 0
	lwz 7,0(30)
	lwz 8,4(30)
	lwz 10,8(30)
	.loc 1 960 0
	lwz 11,0(31)
	lwz 9,4(31)
	lwz 0,8(31)
	.loc 1 959 0
	stw 7,40(1)
	stw 8,44(1)
	stw 10,48(1)
	.loc 1 960 0
	stw 11,52(1)
	stw 9,56(1)
	stw 0,60(1)
.L223:
	.loc 1 964 0
	addi 5,1,52
	mr 6,28
	addi 7,1,8
	addi 8,1,20
	mr 3,29
	addi 4,1,40
	bl SV_MoveBounds
	.loc 1 967 0
	lis 3,.LANCHOR0@ha
	la 3,.LANCHOR0@l(3)
	addi 4,1,8
	addi 3,3,212
	bl SV_ClipToLinks
	.loc 1 969 0
	mr 3,27
	addi 4,1,72
	li 5,40
	bl memcpy
	.loc 1 970 0
	lwz 0,212(1)
	mr 3,27
	lwz 25,180(1)
.LVL217:
	mtlr 0
	lwz 26,184(1)
.LVL218:
	lwz 27,188(1)
.LVL219:
	lwz 28,192(1)
.LVL220:
	lwz 29,196(1)
.LVL221:
	lwz 30,200(1)
.LVL222:
	lwz 31,204(1)
.LVL223:
	addi 1,1,208
	.cfi_remember_state
.LCFI42:
	.cfi_def_cfa_offset 0
	.cfi_restore 31
	.cfi_restore 30
	.cfi_restore 29
	.cfi_restore 28
	.cfi_restore 27
	.cfi_restore 26
	.cfi_restore 25
	blr
.LVL224:
.L224:
.LCFI43:
	.cfi_restore_state
	.loc 1 953 0 discriminator 1
	lis 9,.LC19@ha
	.loc 1 954 0 discriminator 1
	lis 11,.LC11@ha
	.loc 1 953 0 discriminator 1
	lwz 9,.LC19@l(9)
	.loc 1 954 0 discriminator 1
	lwz 0,.LC11@l(11)
	.loc 1 953 0 discriminator 1
	stw 9,40(1)
	.loc 1 954 0 discriminator 1
	stw 0,52(1)
.LVL225:
	.loc 1 953 0 discriminator 1
	stw 9,44(1)
	.loc 1 954 0 discriminator 1
	stw 0,56(1)
.LVL226:
	.loc 1 953 0 discriminator 1
	stw 9,48(1)
	.loc 1 954 0 discriminator 1
	stw 0,60(1)
.LVL227:
	b .L223
	.cfi_endproc
.LFE55:
	.size	SV_Move, .-SV_Move
	.align 2
	.globl SV_TestEntityPosition
	.type	SV_TestEntityPosition, @function
SV_TestEntityPosition:
.LFB50:
	.loc 1 562 0
	.cfi_startproc
.LVL228:
	stwu 1,-56(1)
.LCFI44:
	.cfi_def_cfa_offset 56
	mflr 0
	mr 9,3
	.loc 1 565 0
	addi 4,3,644
	addi 5,9,736
	addi 3,1,8
.LVL229:
	addi 6,9,748
	mr 7,4
	li 8,0
	.loc 1 562 0
	stw 0,60(1)
	.loc 1 565 0
	.cfi_offset 65, 4
	bl SV_Move
.LVL230:
	.loc 1 567 0
	lbz 0,9(1)
	.loc 1 570 0
	li 3,0
	.loc 1 567 0
	cmpwi 7,0,0
	beq- 7,.L226
	.loc 1 568 0
	lis 9,sv+3500@ha
	lwz 3,sv+3500@l(9)
.L226:
	.loc 1 571 0
	lwz 0,60(1)
	addi 1,1,56
.LCFI45:
	.cfi_def_cfa_offset 0
	mtlr 0
	blr
	.cfi_endproc
.LFE50:
	.size	SV_TestEntityPosition, .-SV_TestEntityPosition
	.comm	causticschain,4,4
	.section	.rodata.cst4,"aM",@progbits,4
	.align 2
.LC0:
	.4byte	1065353216
.LC1:
	.4byte	1082130432
.LC2:
	.4byte	1088421888
.LC5:
	.4byte	1077936128
.LC6:
	.4byte	1107296256
.LC7:
	.4byte	1056964608
.LC9:
	.4byte	1125515264
.LC11:
	.4byte	1097859072
.LC12:
	.4byte	0
.LC16:
	.4byte	1023410176
.LC17:
	.4byte	1036831949
.LC19:
	.4byte	-1049624576
	.section	.rodata.str1.4,"aMS",@progbits,1
	.align 2
.LC3:
	.string	"SOLID_BSP without MOVETYPE_PUSH"
.LC4:
	.string	"MOVETYPE_PUSH with a non bsp model"
	.zero	1
.LC13:
	.string	"SV_HullPointContents: bad node number"
	.zero	2
.LC14:
	.string	"SV_RecursiveHullCheck: bad node number"
	.zero	1
.LC18:
	.string	"Trigger in clipping list"
	.section	".bss"
	.align 2
	.set	.LANCHOR0,. + 0
	.type	box_hull, @object
	.size	box_hull, 40
box_hull:
	.zero	40
	.type	box_clipnodes, @object
	.size	box_clipnodes, 48
box_clipnodes:
	.zero	48
	.type	box_planes, @object
	.size	box_planes, 120
box_planes:
	.zero	120
	.type	sv_numareanodes, @object
	.size	sv_numareanodes, 4
sv_numareanodes:
	.zero	4
	.type	sv_areanodes, @object
	.size	sv_areanodes, 1024
sv_areanodes:
	.zero	1024
	.section	".text"
.Letext0:
	.file 2 "d:/Data/Nintendo/TenebraeGX/src/common.h"
	.file 3 "d:/Data/Nintendo/TenebraeGX/src/bspfile.h"
	.file 4 "d:/Data/Nintendo/TenebraeGX/src/zone.h"
	.file 5 "d:/Data/Nintendo/TenebraeGX/src/mathlib.h"
	.file 6 "d:/Data/Nintendo/TenebraeGX/src/quakedef.h"
	.file 7 "d:/Data/Nintendo/TenebraeGX/src/render.h"
	.file 8 "d:/Data/Nintendo/TenebraeGX/src/gl_model.h"
	.file 9 "d:/Data/Nintendo/TenebraeGX/src/glquake.h"
	.file 10 "d:/Data/Nintendo/TenebraeGX/src/pr_comp.h"
	.file 11 "d:/Data/Nintendo/TenebraeGX/src/progdefs.h"
	.file 12 "d:/Data/Nintendo/TenebraeGX/src/progs.h"
	.file 13 "d:/Data/Nintendo/TenebraeGX/src/server.h"
	.file 14 "d:/Data/Nintendo/TenebraeGX/src/modelgen.h"
	.file 15 "d:/Data/Nintendo/TenebraeGX/src/world.h"
	.file 16 "c:/utils/devkitPro/libogc/include/ogc/gx.h"