	.file	"zone.c"
	.section	".text"
.Ltext0:
	.cfi_sections	.debug_frame
	.align 2
	.globl Cache_Report
	.type	Cache_Report, @function
Cache_Report:
.LFB62:
	.file 1 "d:/Data/Nintendo/TenebraeGX/src/zone.c"
	.loc 1 789 0
	.cfi_startproc
	mflr 0
	stwu 1,-16(1)
.LCFI0:
	.cfi_def_cfa_offset 16
	.cfi_register 65, 0
	.loc 1 790 0
	lis 9,hunk_size@ha
	lis 3,.LC0@ha
	lwz 11,hunk_size@l(9)
	lis 9,hunk_high_used@ha
	.loc 1 789 0
	stw 0,20(1)
	.loc 1 790 0
	la 3,.LC0@l(3)
	lwz 0,hunk_high_used@l(9)
	.cfi_offset 65, 4
	lis 9,hunk_low_used@ha
	lwz 9,hunk_low_used@l(9)
	subf 0,0,11
	subf 0,9,0
	lis 9,.LC2@ha
	xoris 0,0,0x8000
	lfs 0,.LC2@l(9)
	stw 0,12(1)
	lis 0,0x4330
	stw 0,8(1)
	lis 9,.LC3@ha
	lfd 1,8(1)
	fsub 1,1,0
	lfs 0,.LC3@l(9)
	frsp 1,1
	fmuls 1,1,0
	creqv 6,6,6
	bl Con_Printf
	.loc 1 791 0
	lwz 0,20(1)
	addi 1,1,16
.LCFI1:
	.cfi_def_cfa_offset 0
	mtlr 0
	blr
	.cfi_endproc
.LFE62:
	.size	Cache_Report, .-Cache_Report
	.align 2
	.globl Z_ClearZone
	.type	Z_ClearZone, @function
Z_ClearZone:
.LFB38:
	.loc 1 75 0
	.cfi_startproc
.LVL0:
	.loc 1 83 0
	li 0,0
	.loc 1 80 0
	addi 9,3,32
.LVL1:
	.loc 1 83 0
	stw 0,12(3)
	.loc 1 87 0
	addi 11,3,4
	.loc 1 84 0
	stw 0,4(3)
	.loc 1 90 0
	addi 4,4,-32
.LVL2:
	.loc 1 88 0
	stw 0,36(3)
	.loc 1 89 0
	lis 0,0x1d
	.loc 1 82 0
	li 10,1
	.loc 1 89 0
	ori 0,0,18961
	.loc 1 80 0
	stw 9,20(3)
	.loc 1 91 0
	.loc 1 80 0
	stw 9,16(3)
	.loc 1 82 0
	stw 10,8(3)
	.loc 1 85 0
	stw 9,28(3)
	.loc 1 87 0
	stw 11,44(3)
	stw 11,48(3)
	.loc 1 89 0
	stw 0,40(3)
	.loc 1 90 0
	stw 4,32(3)
	.loc 1 91 0
	blr
	.cfi_endproc
.LFE38:
	.size	Z_ClearZone, .-Z_ClearZone
	.align 2
	.globl Z_Free
	.type	Z_Free, @function
Z_Free:
.LFB39:
	.loc 1 100 0
	.cfi_startproc
.LVL3:
	stwu 1,-16(1)
.LCFI2:
	.cfi_def_cfa_offset 16
	mflr 0
	stw 31,12(1)
	.loc 1 103 0
	mr. 31,3
	.cfi_offset 31, -4
	.cfi_register 65, 0
	.loc 1 100 0
	stw 0,20(1)
	stw 30,8(1)
	.loc 1 103 0
	beq- 0,.L12
	.cfi_offset 30, -8
	.cfi_offset 65, 4
.LVL4:
.L4:
	.loc 1 107 0
	lwz 9,-16(31)
	lis 0,0x1d
	ori 0,0,18961
	.loc 1 106 0
	addi 30,31,-24
.LVL5:
	.loc 1 107 0
	cmpw 7,9,0
	beq- 7,.L5
	.loc 1 108 0
	lis 3,.LC5@ha
	la 3,.LC5@l(3)
	crxor 6,6,6
	bl Sys_Error
.L5:
	.loc 1 109 0
	lwz 0,-20(31)
	cmpwi 7,0,0
	beq- 7,.L13
.L6:
	.loc 1 112 0
	li 0,0
	.loc 1 114 0
	lwz 11,-8(31)
.LVL6:
	.loc 1 112 0
	stw 0,-20(31)
	.loc 1 115 0
	lwz 0,4(11)
	cmpwi 7,0,0
	beq- 7,.L7
	lwz 9,-12(31)
.LVL7:
.L8:
	.loc 1 126 0
	lwz 0,4(9)
	cmpwi 7,0,0
	bne- 7,.L3
	.loc 1 131 0
	lis 11,mainzone@ha
	.loc 1 128 0
	lwz 0,0(9)
	.loc 1 131 0
	lwz 11,mainzone@l(11)
	.loc 1 128 0
	lwz 10,0(30)
	.loc 1 131 0
	lwz 8,28(11)
	.loc 1 128 0
	add 0,10,0
	.loc 1 131 0
	cmpw 7,8,9
	.loc 1 129 0
	lwz 9,12(9)
.LVL8:
	.loc 1 128 0
	stw 0,0(30)
	.loc 1 129 0
	stw 9,12(30)
	.loc 1 130 0
	stw 30,16(9)
	.loc 1 131 0
	beq- 7,.L14
.L3:
	.loc 1 134 0
	lwz 0,20(1)
	lwz 30,8(1)
.LVL9:
	mtlr 0
	lwz 31,12(1)
.LVL10:
	addi 1,1,16
	.cfi_remember_state
.LCFI3:
	.cfi_def_cfa_offset 0
	.cfi_restore 31
	.cfi_restore 30
	blr
.LVL11:
.L7:
.LCFI4:
	.cfi_restore_state
	.loc 1 120 0
	lis 9,mainzone@ha
	.loc 1 117 0
	lwz 8,0(11)
	.loc 1 120 0
	lwz 10,mainzone@l(9)
	.loc 1 117 0
	lwz 0,-24(31)
	.loc 1 120 0
	lwz 9,28(10)
	.loc 1 117 0
	add 0,8,0
	.loc 1 120 0
	cmpw 7,9,30
	.loc 1 118 0
	lwz 9,-12(31)
	.loc 1 117 0
	stw 0,0(11)
	.loc 1 118 0
	stw 9,12(11)
	.loc 1 119 0
	stw 11,16(9)
	.loc 1 120 0
	beq- 7,.L15
	mr 30,11
.LVL12:
	b .L8
.LVL13:
.L13:
	.loc 1 110 0
	lis 3,.LC6@ha
	la 3,.LC6@l(3)
	crxor 6,6,6
	bl Sys_Error
	b .L6
.L14:
	.loc 1 134 0
	lwz 0,20(1)
	.loc 1 132 0
	stw 30,28(11)
	.loc 1 134 0
	mtlr 0
	lwz 30,8(1)
.LVL14:
	lwz 31,12(1)
.LVL15:
	addi 1,1,16
	.cfi_remember_state
	.cfi_restore 30
	.cfi_restore 31
.LCFI5:
	.cfi_def_cfa_offset 0
	blr
.LVL16:
.L15:
.LCFI6:
	.cfi_restore_state
	.loc 1 121 0
	stw 11,28(10)
	mr 30,11
.LVL17:
	b .L8
.LVL18:
.L12:
	.loc 1 104 0
	lis 3,.LC4@ha
	la 3,.LC4@l(3)
	crxor 6,6,6
	bl Sys_Error
	b .L4
	.cfi_endproc
.LFE39:
	.size	Z_Free, .-Z_Free
	.align 2
	.globl Z_TagMalloc
	.type	Z_TagMalloc, @function
Z_TagMalloc:
.LFB41:
	.loc 1 156 0
	.cfi_startproc
.LVL19:
	stwu 1,-16(1)
.LCFI7:
	.cfi_def_cfa_offset 16
	mflr 0
	stw 30,8(1)
	.loc 1 160 0
	mr. 30,4
	.cfi_offset 30, -8
	.cfi_register 65, 0
	.loc 1 156 0
	stw 31,12(1)
	mr 31,3
	.cfi_offset 31, -4
	stw 0,20(1)
	.loc 1 160 0
	beq- 0,.L27
	.cfi_offset 65, 4
.LVL20:
.L17:
	.loc 1 171 0
	lis 9,mainzone@ha
	.loc 1 169 0
	addi 31,31,35
	.loc 1 171 0
	lwz 7,mainzone@l(9)
	.loc 1 169 0
	rlwinm 31,31,0,0,28
.LVL21:
	.loc 1 177 0
	li 3,0
	.loc 1 171 0
	lwz 9,28(7)
.LVL22:
	.loc 1 172 0
	lwz 10,16(9)
.LVL23:
	.loc 1 176 0
	mr 11,9
	cmpw 7,9,10
	beq- 7,.L18
.LVL24:
.L20:
	.loc 1 178 0
	lwz 0,4(9)
	.loc 1 179 0
	lwz 9,12(9)
.LVL25:
	.loc 1 178 0
	cmpwi 7,0,0
	beq- 7,.L22
.LVL26:
	.loc 1 179 0
	mr 11,9
.LVL27:
.L22:
	.loc 1 182 0
	lwz 0,4(11)
	.loc 1 176 0
	cmpw 6,9,10
	.loc 1 182 0
	cmpwi 7,0,0
	bne- 7,.L23
	.loc 1 182 0 is_stmt 0 discriminator 1
	lwz 8,0(11)
	cmpw 7,31,8
	ble- 7,.L28
.L23:
	.loc 1 176 0 is_stmt 1
	bne+ 6,.L20
	.loc 1 177 0
	li 3,0
.L18:
	.loc 1 211 0
	lwz 0,20(1)
	lwz 30,8(1)
.LVL28:
	mtlr 0
	lwz 31,12(1)
.LVL29:
	addi 1,1,16
	.cfi_remember_state
.LCFI8:
	.cfi_def_cfa_offset 0
	.cfi_restore 31
	.cfi_restore 30
	blr
.LVL30:
.L28:
.LCFI9:
	.cfi_restore_state
	.loc 1 187 0
	subf 8,31,8
.LVL31:
	.loc 1 188 0
	cmpwi 7,8,64
	ble- 7,.L24
	.loc 1 190 0
	add 9,11,31
.LVL32:
	.loc 1 195 0
	lwz 10,12(11)
	.loc 1 192 0
	stw 0,4(9)
	.loc 1 194 0
	lis 0,0x1d
	ori 0,0,18961
	.loc 1 191 0
	stwx 8,11,31
	.loc 1 193 0
	stw 11,16(9)
	.loc 1 195 0
	stw 10,12(9)
	.loc 1 194 0
	stw 0,8(9)
	.loc 1 196 0
	stw 9,16(10)
	.loc 1 197 0
	stw 9,12(11)
	.loc 1 198 0
	stw 31,0(11)
.LVL33:
.L24:
	.loc 1 208 0
	lwz 9,0(11)
	.loc 1 205 0
	lis 0,0x1d
	.loc 1 203 0
	lwz 10,12(11)
	.loc 1 205 0
	ori 0,0,18961
	.loc 1 208 0
	add 9,11,9
	.loc 1 201 0
	stw 30,4(11)
	.loc 1 203 0
	stw 10,28(7)
	.loc 1 210 0
	addi 3,11,24
	.loc 1 205 0
	stw 0,8(11)
	.loc 1 208 0
	stw 0,-4(9)
	.loc 1 211 0
	lwz 0,20(1)
	lwz 30,8(1)
.LVL34:
	mtlr 0
	lwz 31,12(1)
.LVL35:
	addi 1,1,16
	.cfi_remember_state
	.cfi_restore 30
	.cfi_restore 31
.LCFI10:
	.cfi_def_cfa_offset 0
	blr
.LVL36:
.L27:
.LCFI11:
	.cfi_restore_state
	.loc 1 161 0
	lis 3,.LC7@ha
.LVL37:
	la 3,.LC7@l(3)
	crxor 6,6,6
	bl Sys_Error
.LVL38:
	b .L17
	.cfi_endproc
.LFE41:
	.size	Z_TagMalloc, .-Z_TagMalloc
	.align 2
	.globl Z_Print
	.type	Z_Print, @function
Z_Print:
.LFB42:
	.loc 1 220 0
	.cfi_startproc
.LVL39:
	mflr 0
	stwu 1,-32(1)
.LCFI12:
	.cfi_def_cfa_offset 32
	.cfi_register 65, 0
	.loc 1 223 0
	lis 9,mainzone@ha
	lwz 5,mainzone@l(9)
	.loc 1 220 0
	stw 0,36(1)
	stw 29,20(1)
	mr 29,3
	.cfi_offset 29, -12
	.cfi_offset 65, 4
	.loc 1 223 0
	lwz 4,0(5)
	lis 3,.LC8@ha
.LVL40:
	la 3,.LC8@l(3)
	.loc 1 220 0
	stw 26,8(1)
	stw 27,12(1)
	.loc 1 237 0
	lis 26,.LC12@ha
	.cfi_offset 27, -20
	.cfi_offset 26, -24
	.loc 1 220 0
	stw 28,16(1)
	lis 28,.LC9@ha
	.cfi_offset 28, -16
	stw 30,24(1)
	la 28,.LC9@l(28)
	stw 31,28(1)
	.loc 1 223 0
	.cfi_offset 31, -4
	.cfi_offset 30, -8
	crxor 6,6,6
	bl Con_Printf
	.loc 1 225 0
	lwz 31,16(29)
.LVL41:
	.loc 1 227 0
	mr 3,28
	addi 29,29,4
.LVL42:
	.loc 1 233 0
	lis 30,.LC10@ha
	.loc 1 225 0
	lwz 6,4(31)
	.loc 1 227 0
	mr 4,31
	lwz 5,0(31)
	.loc 1 233 0
	la 30,.LC10@l(30)
	.loc 1 235 0
	lis 27,.LC11@ha
	.loc 1 237 0
	la 26,.LC12@l(26)
	.loc 1 227 0
	crxor 6,6,6
	bl Con_Printf
.LVL43:
	.loc 1 230 0
	lwz 9,12(31)
	.loc 1 235 0
	la 27,.LC11@l(27)
	.loc 1 233 0
	mr 3,30
	.loc 1 230 0
	cmpw 7,9,29
	beq- 7,.L29
.LVL44:
.L37:
	.loc 1 232 0
	lwz 0,0(31)
	add 0,31,0
	cmpw 7,9,0
	beq- 7,.L31
	.loc 1 233 0
	crxor 6,6,6
	bl Con_Printf
	lwz 9,12(31)
.L31:
	.loc 1 234 0
	lwz 0,16(9)
	.loc 1 235 0
	mr 3,27
	.loc 1 234 0
	cmpw 7,0,31
	beq- 7,.L32
	.loc 1 235 0
	crxor 6,6,6
	bl Con_Printf
	lwz 9,12(31)
.L32:
	.loc 1 236 0
	lwz 0,4(31)
	lwz 6,4(9)
	cmpwi 7,0,0
	bne- 7,.L34
	.loc 1 236 0 is_stmt 0 discriminator 1
	cmpwi 7,6,0
	beq- 7,.L36
.L34:
.LVL45:
	.loc 1 225 0 is_stmt 1
	mr 31,9
.L38:
	.loc 1 227 0
	lwz 5,0(31)
	mr 3,28
	mr 4,31
	crxor 6,6,6
	bl Con_Printf
.LVL46:
	.loc 1 230 0
	lwz 9,12(31)
	.loc 1 233 0
	mr 3,30
	.loc 1 230 0
	cmpw 7,9,29
	bne+ 7,.L37
.L29:
	.loc 1 239 0
	lwz 0,36(1)
	lwz 26,8(1)
	mtlr 0
	lwz 27,12(1)
	lwz 28,16(1)
	lwz 29,20(1)
.LVL47:
	lwz 30,24(1)
	lwz 31,28(1)
.LVL48:
	addi 1,1,32
	.cfi_remember_state
.LCFI13:
	.cfi_def_cfa_offset 0
	.cfi_restore 31
	.cfi_restore 30
	.cfi_restore 29
	.cfi_restore 28
	.cfi_restore 27
	.cfi_restore 26
	blr
.LVL49:
.L36:
.LCFI14:
	.cfi_restore_state
	.loc 1 237 0
	mr 3,26
	crxor 6,6,6
	bl Con_Printf
	lwz 9,12(31)
	lwz 6,4(9)
.LVL50:
	.loc 1 225 0
	mr 31,9
.LVL51:
	b .L38
	.cfi_endproc
.LFE42:
	.size	Z_Print, .-Z_Print
	.align 2
	.globl Z_CheckHeap
	.type	Z_CheckHeap, @function
Z_CheckHeap:
.LFB43:
	.loc 1 248 0
	.cfi_startproc
	stwu 1,-32(1)
.LCFI15:
	.cfi_def_cfa_offset 32
	mflr 0
	stw 28,16(1)
	.loc 1 251 0
	lis 28,mainzone@ha
	.cfi_offset 28, -16
	.cfi_register 65, 0
	.loc 1 248 0
	stw 0,36(1)
	.loc 1 251 0
	lwz 9,mainzone@l(28)
	.loc 1 248 0
	stw 31,28(1)
	.loc 1 251 0
	lwz 31,16(9)
	.cfi_offset 31, -4
	.cfi_offset 65, 4
.LVL52:
	.loc 1 253 0
	addi 9,9,4
	.loc 1 248 0
	stw 27,12(1)
	.loc 1 253 0
	lwz 0,12(31)
	.loc 1 248 0
	stw 29,20(1)
	.loc 1 253 0
	cmpw 7,0,9
	.loc 1 248 0
	stw 30,24(1)
	.loc 1 253 0
	beq- 7,.L39
	.cfi_offset 30, -8
	.cfi_offset 29, -12
	.cfi_offset 27, -20
	.loc 1 256 0
	lis 29,.LC13@ha
	.loc 1 258 0
	lis 30,.LC14@ha
	.loc 1 260 0
	lis 27,.LC15@ha
	la 28,mainzone@l(28)
	.loc 1 256 0
	la 29,.LC13@l(29)
	.loc 1 258 0
	la 30,.LC14@l(30)
	.loc 1 260 0
	la 27,.LC15@l(27)
.LVL53:
.L44:
	.loc 1 255 0
	lwz 9,0(31)
	.loc 1 256 0
	mr 3,29
	.loc 1 255 0
	add 9,31,9
	cmpw 7,0,9
	beq- 7,.L41
	.loc 1 256 0
	crxor 6,6,6
	bl Sys_Error
.L41:
	.loc 1 257 0
	lwz 9,12(31)
	.loc 1 258 0
	mr 3,30
	.loc 1 257 0
	lwz 0,16(9)
	cmpw 7,0,31
	beq- 7,.L42
	.loc 1 258 0
	crxor 6,6,6
	bl Sys_Error
	lwz 9,12(31)
.L42:
	.loc 1 259 0
	lwz 0,4(31)
	cmpwi 7,0,0
	bne- 7,.L46
	.loc 1 259 0 is_stmt 0 discriminator 1
	lwz 0,4(9)
	cmpwi 7,0,0
	beq- 7,.L48
.L46:
	.loc 1 259 0
	mr 31,9
.LVL54:
.L43:
	.loc 1 253 0 is_stmt 1
	lwz 9,0(28)
	lwz 0,12(31)
	addi 9,9,4
	cmpw 7,0,9
	bne+ 7,.L44
.L39:
	.loc 1 262 0
	lwz 0,36(1)
	lwz 27,12(1)
	mtlr 0
	lwz 28,16(1)
	lwz 29,20(1)
	lwz 30,24(1)
	lwz 31,28(1)
.LVL55:
	addi 1,1,32
	.cfi_remember_state
.LCFI16:
	.cfi_def_cfa_offset 0
	.cfi_restore 31
	.cfi_restore 30
	.cfi_restore 29
	.cfi_restore 28
	.cfi_restore 27
	blr
.LVL56:
.L48:
.LCFI17:
	.cfi_restore_state
	.loc 1 260 0
	mr 3,27
	crxor 6,6,6
	bl Sys_Error
	lwz 31,12(31)
.LVL57:
	b .L43
	.cfi_endproc
.LFE43:
	.size	Z_CheckHeap, .-Z_CheckHeap
	.align 2
	.globl Z_Malloc
	.type	Z_Malloc, @function
Z_Malloc:
.LFB40:
	.loc 1 143 0
	.cfi_startproc
.LVL58:
	stwu 1,-16(1)
.LCFI18:
	.cfi_def_cfa_offset 16
	mflr 0
	stw 30,8(1)
	mr 30,3
	.cfi_offset 30, -8
	.cfi_register 65, 0
	stw 0,20(1)
	stw 31,12(1)
	.loc 1 146 0
	.cfi_offset 31, -4
	.cfi_offset 65, 4
	bl Z_CheckHeap
.LVL59:
	.loc 1 147 0
	mr 3,30
	li 4,1
	bl Z_TagMalloc
.LVL60:
	.loc 1 148 0
	mr. 31,3
	beq- 0,.L51
	.loc 1 150 0
	mr 3,31
	mr 5,30
	li 4,0
	bl Q_memset
.LVL61:
	.loc 1 153 0
	lwz 0,20(1)
	mr 3,31
	lwz 30,8(1)
.LVL62:
	mtlr 0
	lwz 31,12(1)
.LVL63:
	addi 1,1,16
	.cfi_remember_state
.LCFI19:
	.cfi_def_cfa_offset 0
	.cfi_restore 31
	.cfi_restore 30
	blr
.LVL64:
.L51:
.LCFI20:
	.cfi_restore_state
	.loc 1 149 0
	lis 3,.LC16@ha
.LVL65:
	mr 4,30
	la 3,.LC16@l(3)
	crxor 6,6,6
	bl Sys_Error
	.loc 1 150 0
	mr 3,31
	mr 5,30
	li 4,0
	bl Q_memset
	.loc 1 153 0
	lwz 0,20(1)
	mr 3,31
	lwz 30,8(1)
.LVL66:
	mtlr 0
	lwz 31,12(1)
.LVL67:
	addi 1,1,16
	.cfi_restore 30
	.cfi_restore 31
.LCFI21:
	.cfi_def_cfa_offset 0
	blr
	.cfi_endproc
.LFE40:
	.size	Z_Malloc, .-Z_Malloc
	.align 2
	.globl Hunk_Check
	.type	Hunk_Check, @function
Hunk_Check:
.LFB44:
	.loc 1 294 0
	.cfi_startproc
	stwu 1,-40(1)
.LCFI22:
	.cfi_def_cfa_offset 40
	mflr 0
	stw 26,16(1)
	.loc 1 297 0
	lis 26,hunk_low_used@ha
	.cfi_offset 26, -24
	.cfi_register 65, 0
	.loc 1 294 0
	stw 0,44(1)
	.loc 1 297 0
	lwz 0,hunk_low_used@l(26)
	.cfi_offset 65, 4
	.loc 1 294 0
	stw 30,32(1)
	.loc 1 297 0
	lis 30,hunk_base@ha
	.cfi_offset 30, -8
	cmpwi 7,0,0
	.loc 1 294 0
	stw 31,36(1)
	stw 25,12(1)
	stw 27,20(1)
	stw 28,24(1)
	stw 29,28(1)
	.loc 1 297 0
	lwz 31,hunk_base@l(30)
	.cfi_offset 29, -12
	.cfi_offset 28, -16
	.cfi_offset 27, -20
	.cfi_offset 25, -28
	.cfi_offset 31, -4
.LVL68:
	beq- 7,.L52
	.loc 1 299 0
	lis 27,0x1df0
	.loc 1 300 0
	lis 28,.LC17@ha
	.loc 1 302 0
	lis 29,.LC18@ha
	la 30,hunk_base@l(30)
	la 26,hunk_low_used@l(26)
	.loc 1 299 0
	ori 27,27,493
	.loc 1 300 0
	la 28,.LC17@l(28)
	.loc 1 302 0
	la 29,.LC18@l(29)
	.loc 1 301 0
	lis 25,hunk_size@ha
	b .L57
.LVL69:
.L58:
	mr 31,9
.LVL70:
	.loc 1 297 0
	lwz 9,0(26)
.LVL71:
	add 0,0,9
	cmpw 7,31,0
	beq- 7,.L52
.L57:
	.loc 1 299 0
	lwz 0,0(31)
	.loc 1 300 0
	mr 3,28
	.loc 1 299 0
	cmpw 7,0,27
	beq- 7,.L54
	.loc 1 300 0
	crxor 6,6,6
	bl Sys_Error
.L54:
	.loc 1 301 0
	lwz 0,4(31)
	.loc 1 302 0
	mr 3,29
	.loc 1 301 0
	cmpwi 7,0,15
	add 9,31,0
	ble- 7,.L55
	.loc 1 301 0 is_stmt 0 discriminator 1
	lwz 0,0(30)
	lwz 11,hunk_size@l(25)
	subf 10,0,9
	cmpw 7,10,11
	ble- 7,.L58
.L55:
	.loc 1 302 0 is_stmt 1
	crxor 6,6,6
	bl Sys_Error
	lwz 9,4(31)
	lwz 0,0(30)
	add 31,31,9
.LVL72:
	.loc 1 297 0
	lwz 9,0(26)
	add 0,0,9
	cmpw 7,31,0
	bne+ 7,.L57
.L52:
	.loc 1 305 0
	lwz 0,44(1)
	lwz 25,12(1)
	mtlr 0
	lwz 26,16(1)
	lwz 27,20(1)
	lwz 28,24(1)
	lwz 29,28(1)
	lwz 30,32(1)
	lwz 31,36(1)
.LVL73:
	addi 1,1,40
.LCFI23:
	.cfi_def_cfa_offset 0
	.cfi_restore 31
	.cfi_restore 30
	.cfi_restore 29
	.cfi_restore 28
	.cfi_restore 27
	.cfi_restore 26
	.cfi_restore 25
	blr
	.cfi_endproc
.LFE44:
	.size	Hunk_Check, .-Hunk_Check
	.align 2
	.globl Hunk_Print
	.type	Hunk_Print, @function
Hunk_Print:
.LFB45:
	.loc 1 316 0
	.cfi_startproc
.LVL74:
	stwu 1,-112(1)
.LCFI24:
	.cfi_def_cfa_offset 112
	mflr 0
	mfcr 12
	stw 16,48(1)
	.loc 1 329 0
	lis 16,hunk_high_used@ha
	.cfi_offset 16, -64
	.cfi_register 70, 12
	.cfi_register 65, 0
	.loc 1 316 0
	stw 24,80(1)
	.loc 1 329 0
	lis 24,hunk_size@ha
	.cfi_offset 24, -32
	.loc 1 316 0
	stw 14,40(1)
	stw 17,52(1)
	.loc 1 328 0
	lis 17,hunk_low_used@ha
	.cfi_offset 17, -60
	.cfi_offset 14, -72
	.loc 1 316 0
	stw 23,76(1)
	.loc 1 327 0
	lis 23,hunk_base@ha
	.cfi_offset 23, -36
	.loc 1 316 0
	stw 26,88(1)
	.loc 1 329 0
	lwz 14,hunk_high_used@l(16)
	lwz 26,hunk_size@l(24)
	.cfi_offset 26, -24
	.loc 1 327 0
	lwz 9,hunk_base@l(23)
	.loc 1 316 0
	stw 20,64(1)
	.loc 1 333 0
	lis 20,.LC20@ha
	.cfi_offset 20, -48
	.loc 1 316 0
	stw 27,92(1)
	.loc 1 332 0
	mr 4,26
	.loc 1 316 0
	stw 31,108(1)
	mr 31,3
	.cfi_offset 31, -4
	.cfi_offset 27, -20
	.loc 1 328 0
	lwz 27,hunk_low_used@l(17)
	.loc 1 332 0
	lis 3,.LC19@ha
.LVL75:
	.loc 1 316 0
	stw 0,116(1)
	.loc 1 329 0
	subf 14,14,26
	.loc 1 322 0
	li 0,0
	.cfi_offset 65, 4
	.loc 1 332 0
	la 3,.LC19@l(3)
	.loc 1 333 0
	la 20,.LC20@l(20)
	.loc 1 328 0
	add 27,9,27
	.loc 1 329 0
	add 14,9,14
	.loc 1 330 0
	add 26,9,26
	.loc 1 332 0
	stw 9,24(1)
	.loc 1 371 0
	cmpwi 4,31,0
	.loc 1 316 0
	stw 15,44(1)
	.loc 1 343 0
	lis 15,.LC21@ha
	.cfi_offset 15, -68
	.loc 1 316 0
	stw 18,56(1)
	.loc 1 381 0
	lis 18,.LC23@ha
	.cfi_offset 18, -56
	.loc 1 316 0
	stw 19,60(1)
	.loc 1 372 0
	lis 19,.LC22@ha
	.cfi_offset 19, -52
	.loc 1 316 0
	stw 21,68(1)
	.loc 1 358 0
	lis 21,.LC17@ha
	.cfi_offset 21, -44
	.loc 1 316 0
	stw 22,72(1)
	.loc 1 360 0
	lis 22,.LC18@ha
	.cfi_offset 22, -40
	.loc 1 316 0
	stw 25,84(1)
	.loc 1 357 0
	lis 25,0x1df0
	.cfi_offset 25, -28
	.loc 1 316 0
	stw 28,96(1)
	.loc 1 343 0
	la 15,.LC21@l(15)
	.loc 1 316 0
	stw 30,104(1)
	.loc 1 325 0
	li 28,0
	.cfi_offset 30, -8
	.cfi_offset 28, -16
	.loc 1 316 0
	stw 12,36(1)
	.loc 1 324 0
	li 30,0
	.loc 1 322 0
	stb 0,16(1)
.LVL76:
	.loc 1 357 0
	ori 25,25,493
	.loc 1 316 0
	stw 29,100(1)
	.loc 1 332 0
	.cfi_offset 29, -12
	.cfi_offset 70, -76
	crxor 6,6,6
	bl Con_Printf
.LVL77:
	.loc 1 333 0
	mr 3,20
	.loc 1 358 0
	la 21,.LC17@l(21)
	.loc 1 333 0
	crxor 6,6,6
	bl Con_Printf
	lwz 9,24(1)
.LVL78:
	.loc 1 360 0
	la 22,.LC18@l(22)
	.loc 1 372 0
	la 19,.LC22@l(19)
	.loc 1 340 0
	cmpw 7,9,27
	.loc 1 381 0
	la 18,.LC23@l(18)
	.loc 1 340 0
	beq- 7,.L71
.LVL79:
.L62:
	.loc 1 351 0
	cmpw 7,9,26
	beq- 7,.L63
.L74:
	.loc 1 357 0
	lwz 0,0(9)
	cmpw 7,0,25
	beq- 7,.L64
	.loc 1 358 0
	mr 3,21
	stw 9,24(1)
	crxor 6,6,6
	bl Sys_Error
.LVL80:
	lwz 9,24(1)
.L64:
	.loc 1 359 0
	lwz 0,4(9)
	cmpwi 7,0,15
	ble- 7,.L65
	.loc 1 359 0 is_stmt 0 discriminator 1
	lwz 10,hunk_base@l(23)
	add 31,9,0
	lwz 11,hunk_size@l(24)
	subf 10,10,31
	cmpw 7,10,11
	ble- 7,.L66
.L65:
	.loc 1 360 0 is_stmt 1
	mr 3,22
	stw 9,24(1)
	crxor 6,6,6
	bl Sys_Error
	lwz 9,24(1)
	lwz 0,4(9)
	add 31,9,0
.L66:
.LVL81:
	.loc 1 370 0
	addi 29,9,8
	lwz 10,8(9)
	lwz 11,4(29)
	.loc 1 364 0
	addi 28,28,1
.LVL82:
	.loc 1 365 0
	add 30,30,0
.LVL83:
	.loc 1 370 0
	stw 10,8(1)
	stw 11,12(1)
	.loc 1 371 0
	bne- 4,.L72
.L67:
	.loc 1 377 0
	cmpw 7,27,31
	beq- 7,.L68
	.loc 1 377 0 is_stmt 0 discriminator 1
	cmpw 7,26,31
	beq- 7,.L68
	.loc 1 378 0 is_stmt 1 discriminator 1
	mr 3,29
	addi 4,31,8
	li 5,8
	bl strncmp
	.loc 1 377 0 discriminator 1
	cmpwi 7,3,0
	beq- 7,.L69
.L68:
	.loc 1 380 0
	beq- 4,.L73
	.loc 1 383 0
	li 30,0
.LVL84:
.L69:
	mr 9,31
.L75:
.LVL85:
	.loc 1 340 0
	cmpw 7,9,27
	bne+ 7,.L62
.LVL86:
.L71:
	.loc 1 342 0
	mr 3,20
	crxor 6,6,6
	bl Con_Printf
.LVL87:
	.loc 1 343 0
	lwz 9,hunk_low_used@l(17)
	lwz 4,hunk_size@l(24)
	mr 3,15
	lwz 0,hunk_high_used@l(16)
	subf 4,9,4
	subf 4,0,4
	crxor 6,6,6
	bl Con_Printf
	.loc 1 344 0
	mr 3,20
	crxor 6,6,6
	bl Con_Printf
.LVL88:
	.loc 1 345 0
	mr 9,14
	.loc 1 351 0
	cmpw 7,9,26
	bne+ 7,.L74
.LVL89:
.L63:
	.loc 1 389 0
	mr 3,20
	crxor 6,6,6
	bl Con_Printf
.LVL90:
	.loc 1 390 0
	lis 3,.LC24@ha
	mr 4,28
	la 3,.LC24@l(3)
	crxor 6,6,6
	bl Con_Printf
	.loc 1 392 0
	lwz 0,116(1)
	lwz 12,36(1)
	mtlr 0
	lwz 14,40(1)
.LVL91:
	lwz 15,44(1)
	mtcrf 8,12
	lwz 16,48(1)
	lwz 17,52(1)
	lwz 18,56(1)
	lwz 19,60(1)
	lwz 20,64(1)
	lwz 21,68(1)
	lwz 22,72(1)
	lwz 23,76(1)
	lwz 24,80(1)
	lwz 25,84(1)
	lwz 26,88(1)
.LVL92:
	lwz 27,92(1)
.LVL93:
	lwz 28,96(1)
.LVL94:
	lwz 29,100(1)
	lwz 30,104(1)
.LVL95:
	lwz 31,108(1)
	addi 1,1,112
	.cfi_remember_state
.LCFI25:
	.cfi_def_cfa_offset 0
	.cfi_restore 70
	.cfi_restore 31
	.cfi_restore 30
	.cfi_restore 29
	.cfi_restore 28
	.cfi_restore 27
	.cfi_restore 26
	.cfi_restore 25
	.cfi_restore 24
	.cfi_restore 23
	.cfi_restore 22
	.cfi_restore 21
	.cfi_restore 20
	.cfi_restore 19
	.cfi_restore 18
	.cfi_restore 17
	.cfi_restore 16
	.cfi_restore 15
	.cfi_restore 14
	blr
.LVL96:
.L72:
.LCFI26:
	.cfi_restore_state
	.loc 1 372 0
	lwz 5,4(9)
	mr 4,9
	mr 3,19
	addi 6,1,8
	crxor 6,6,6
	bl Con_Printf
	b .L67
.L73:
	.loc 1 381 0
	mr 4,30
	mr 3,18
	addi 5,1,8
	.loc 1 383 0
	li 30,0
.LVL97:
	.loc 1 381 0
	crxor 6,6,6
	bl Con_Printf
.LVL98:
	.loc 1 383 0
	mr 9,31
	b .L75
	.cfi_endproc
.LFE45:
	.size	Hunk_Print, .-Hunk_Print
	.align 2
	.globl Hunk_LowMark
	.type	Hunk_LowMark, @function
Hunk_LowMark:
.LFB48:
	.loc 1 440 0
	.cfi_startproc
	.loc 1 441 0
	lis 9,hunk_low_used@ha
	.loc 1 442 0
	lwz 3,hunk_low_used@l(9)
	blr
	.cfi_endproc
.LFE48:
	.size	Hunk_LowMark, .-Hunk_LowMark
	.align 2
	.globl Hunk_FreeToLowMark
	.type	Hunk_FreeToLowMark, @function
Hunk_FreeToLowMark:
.LFB49:
	.loc 1 445 0
	.cfi_startproc
.LVL99:
	stwu 1,-16(1)
.LCFI27:
	.cfi_def_cfa_offset 16
	mflr 0
	stw 31,12(1)
	.loc 1 446 0
	mr. 31,3
	.cfi_offset 31, -4
	.cfi_register 65, 0
	.loc 1 445 0
	stw 30,8(1)
	lis 30,hunk_low_used@ha
	.cfi_offset 30, -8
	stw 0,20(1)
	.loc 1 446 0
	blt- 0,.L78
	.cfi_offset 65, 4
	.loc 1 446 0 is_stmt 0 discriminator 1
	lwz 5,hunk_low_used@l(30)
	cmpw 7,31,5
	ble- 7,.L79
.L78:
	.loc 1 447 0 is_stmt 1
	lis 3,.LC25@ha
.LVL100:
	mr 4,31
	la 3,.LC25@l(3)
	crxor 6,6,6
	bl Sys_Error
	lwz 5,hunk_low_used@l(30)
.L79:
	.loc 1 448 0
	lis 9,hunk_base@ha
	subf 5,31,5
	lwz 3,hunk_base@l(9)
	li 4,0
	add 3,3,31
	bl memset
	.loc 1 450 0
	lwz 0,20(1)
	.loc 1 449 0
	stw 31,hunk_low_used@l(30)
	.loc 1 450 0
	mtlr 0
	lwz 30,8(1)
	lwz 31,12(1)
.LVL101:
	addi 1,1,16
.LCFI28:
	.cfi_def_cfa_offset 0
	.cfi_restore 31
	.cfi_restore 30
	blr
	.cfi_endproc
.LFE49:
	.size	Hunk_FreeToLowMark, .-Hunk_FreeToLowMark
	.align 2
	.globl Hunk_FreeToHighMark
	.type	Hunk_FreeToHighMark, @function
Hunk_FreeToHighMark:
.LFB51:
	.loc 1 464 0
	.cfi_startproc
.LVL102:
	mflr 0
	stwu 1,-16(1)
.LCFI29:
	.cfi_def_cfa_offset 16
	.cfi_register 65, 0
	.loc 1 465 0
	lis 9,hunk_tempactive@ha
	.loc 1 464 0
	stw 31,12(1)
	mr 31,3
	.cfi_offset 31, -4
	stw 0,20(1)
	.loc 1 465 0
	lbz 0,hunk_tempactive@l(9)
	.cfi_offset 65, 4
	.loc 1 464 0
	stw 30,8(1)
	.loc 1 465 0
	cmpwi 7,0,0
	bne- 7,.L88
	.cfi_offset 30, -8
.LVL103:
.L83:
	.loc 1 470 0
	cmpwi 7,31,0
	lis 30,hunk_high_used@ha
	blt- 7,.L84
	.loc 1 470 0 is_stmt 0 discriminator 1
	lwz 5,hunk_high_used@l(30)
	cmpw 7,31,5
	ble- 7,.L85
.L84:
	.loc 1 471 0 is_stmt 1
	lis 3,.LC26@ha
	mr 4,31
	la 3,.LC26@l(3)
	crxor 6,6,6
	bl Sys_Error
	lwz 5,hunk_high_used@l(30)
.L85:
	.loc 1 472 0
	lis 9,hunk_size@ha
	li 4,0
	lwz 0,hunk_size@l(9)
	lis 9,hunk_base@ha
	lwz 3,hunk_base@l(9)
	subf 0,5,0
	subf 5,31,5
	add 3,3,0
	bl memset
	.loc 1 474 0
	lwz 0,20(1)
	.loc 1 473 0
	stw 31,hunk_high_used@l(30)
	.loc 1 474 0
	mtlr 0
	lwz 30,8(1)
	lwz 31,12(1)
.LVL104:
	addi 1,1,16
	.cfi_remember_state
.LCFI30:
	.cfi_def_cfa_offset 0
	.cfi_restore 31
	.cfi_restore 30
	blr
.LVL105:
.L88:
.LCFI31:
	.cfi_restore_state
	.loc 1 468 0
	lis 11,hunk_tempmark@ha
	.loc 1 467 0
	li 0,0
	.loc 1 468 0
	lwz 3,hunk_tempmark@l(11)
.LVL106:
	.loc 1 467 0
	stb 0,hunk_tempactive@l(9)
	.loc 1 468 0
	bl Hunk_FreeToHighMark
	b .L83
	.cfi_endproc
.LFE51:
	.size	Hunk_FreeToHighMark, .-Hunk_FreeToHighMark
	.align 2
	.globl Hunk_HighMark
	.type	Hunk_HighMark, @function
Hunk_HighMark:
.LFB50:
	.loc 1 453 0
	.cfi_startproc
	mflr 0
	stwu 1,-8(1)
.LCFI32:
	.cfi_def_cfa_offset 8
	.cfi_register 65, 0
	.loc 1 454 0
	lis 9,hunk_tempactive@ha
	.loc 1 453 0
	stw 0,12(1)
	.loc 1 454 0
	lbz 0,hunk_tempactive@l(9)
	.cfi_offset 65, 4
	cmpwi 7,0,0
	beq+ 7,.L90
	.loc 1 457 0
	lis 11,hunk_tempmark@ha
	.loc 1 456 0
	li 0,0
	.loc 1 457 0
	lwz 3,hunk_tempmark@l(11)
	.loc 1 456 0
	stb 0,hunk_tempactive@l(9)
	.loc 1 457 0
	bl Hunk_FreeToHighMark
.L90:
	.loc 1 461 0
	lwz 0,12(1)
	.loc 1 460 0
	lis 9,hunk_high_used@ha
	.loc 1 461 0
	lwz 3,hunk_high_used@l(9)
	mtlr 0
	addi 1,1,8
.LCFI33:
	.cfi_def_cfa_offset 0
	blr
	.cfi_endproc
.LFE50:
	.size	Hunk_HighMark, .-Hunk_HighMark
	.align 2
	.globl Cache_UnlinkLRU
	.type	Cache_UnlinkLRU, @function
Cache_UnlinkLRU:
.LFB57:
	.loc 1 651 0
	.cfi_startproc
.LVL107:
	mflr 0
	stwu 1,-16(1)
.LCFI34:
	.cfi_def_cfa_offset 16
	.cfi_register 65, 0
	stw 31,12(1)
	mr 31,3
	.cfi_offset 31, -4
	stw 0,20(1)
	.loc 1 652 0
	lwz 9,36(3)
	cmpwi 7,9,0
	beq- 7,.L92
	.cfi_offset 65, 4
	.loc 1 652 0 is_stmt 0 discriminator 1
	lwz 0,32(3)
	cmpwi 7,0,0
	beq- 7,.L92
	.loc 1 655 0 is_stmt 1
	stw 0,32(9)
	.loc 1 658 0
	li 0,0
	.loc 1 656 0
	lwz 11,32(31)
	.loc 1 658 0
	stw 0,32(31)
	.loc 1 656 0
	stw 9,36(11)
	.loc 1 658 0
	stw 0,36(31)
	.loc 1 659 0
	lwz 0,20(1)
	lwz 31,12(1)
	mtlr 0
	addi 1,1,16
	.cfi_remember_state
.LCFI35:
	.cfi_def_cfa_offset 0
	.cfi_restore 31
	blr
.L92:
.LCFI36:
	.cfi_restore_state
	.loc 1 653 0
	lis 3,.LC27@ha
.LVL108:
	la 3,.LC27@l(3)
	crxor 6,6,6
	bl Sys_Error
	lwz 9,36(31)
	lwz 0,32(31)
	.loc 1 655 0
	stw 0,32(9)
	.loc 1 658 0
	li 0,0
	.loc 1 656 0
	lwz 11,32(31)
	.loc 1 658 0
	stw 0,32(31)
	.loc 1 656 0
	stw 9,36(11)
	.loc 1 658 0
	stw 0,36(31)
	.loc 1 659 0
	lwz 0,20(1)
	lwz 31,12(1)
.LVL109:
	mtlr 0
	addi 1,1,16
	.cfi_restore 31
.LCFI37:
	.cfi_def_cfa_offset 0
	blr
	.cfi_endproc
.LFE57:
	.size	Cache_UnlinkLRU, .-Cache_UnlinkLRU
	.align 2
	.globl Cache_MakeLRU
	.type	Cache_MakeLRU, @function
Cache_MakeLRU:
.LFB58:
	.loc 1 662 0
	.cfi_startproc
.LVL110:
	mflr 0
	stwu 1,-16(1)
.LCFI38:
	.cfi_def_cfa_offset 16
	.cfi_register 65, 0
	stw 31,12(1)
	mr 31,3
	.cfi_offset 31, -4
	stw 0,20(1)
	.loc 1 663 0
	lwz 0,36(3)
	.cfi_offset 65, 4
	cmpwi 7,0,0
	beq- 7,.L97
.L95:
	.loc 1 664 0
	lis 3,.LC28@ha
.LVL111:
	la 3,.LC28@l(3)
	crxor 6,6,6
	bl Sys_Error
.L96:
	.loc 1 670 0
	lwz 0,20(1)
	.loc 1 666 0
	lis 9,cache_head@ha
	la 9,cache_head@l(9)
	.loc 1 670 0
	mtlr 0
	.loc 1 666 0
	lwz 11,36(9)
	stw 31,32(11)
	.loc 1 667 0
	stw 11,36(31)
	.loc 1 668 0
	stw 9,32(31)
	.loc 1 669 0
	stw 31,36(9)
	.loc 1 670 0
	lwz 31,12(1)
.LVL112:
	addi 1,1,16
	.cfi_remember_state
.LCFI39:
	.cfi_def_cfa_offset 0
	.cfi_restore 31
	blr
.LVL113:
.L97:
.LCFI40:
	.cfi_restore_state
	.loc 1 663 0 discriminator 1
	lwz 0,32(3)
	cmpwi 7,0,0
	bne+ 7,.L95
	b .L96
	.cfi_endproc
.LFE58:
	.size	Cache_MakeLRU, .-Cache_MakeLRU
	.align 2
	.globl Cache_TryAlloc
	.type	Cache_TryAlloc, @function
Cache_TryAlloc:
.LFB59:
	.loc 1 681 0
	.cfi_startproc
.LVL114:
	.loc 1 686 0
	cmpwi 1,4,0
	.loc 1 681 0
	stwu 1,-32(1)
.LCFI41:
	.cfi_def_cfa_offset 32
	mflr 0
	stw 29,20(1)
	.loc 1 686 0
	lis 29,cache_head@ha
	.cfi_offset 29, -12
	.cfi_register 65, 0
	.loc 1 681 0
	stw 28,16(1)
	.loc 1 686 0
	la 29,cache_head@l(29)
	.loc 1 681 0
	stw 0,36(1)
	mr 28,3
	.cfi_offset 65, 4
	.cfi_offset 28, -16
	stw 27,12(1)
	stw 30,24(1)
	stw 31,28(1)
	.loc 1 686 0
	bne- 1,.L99
	.cfi_offset 31, -4
	.cfi_offset 30, -8
	.cfi_offset 27, -20
	.loc 1 686 0 is_stmt 0 discriminator 1
	lwz 0,24(29)
	cmpw 7,0,29
	beq- 7,.L110
.L99:
	.loc 1 704 0 is_stmt 1
	lis 9,hunk_base@ha
	lwz 11,hunk_base@l(9)
	lis 9,hunk_low_used@ha
	lwz 30,hunk_low_used@l(9)
	.loc 1 705 0
	lwz 9,28(29)
	.loc 1 704 0
	add 30,11,30
.LVL115:
	.loc 1 705 0
	mr 31,9
.LVL116:
.L104:
	.loc 1 711 0
	subf 0,30,31
	.loc 1 709 0
	cmpw 6,31,9
	.loc 1 711 0
	cmpw 7,28,0
	.loc 1 709 0
	beq- 1,.L102
	.loc 1 709 0 is_stmt 0 discriminator 1
	beq- 6,.L103
.L102:
	.loc 1 711 0 is_stmt 1
	ble- 7,.L109
.L103:
	.loc 1 728 0
	lwz 30,0(31)
.LVL117:
	add 30,31,30
.LVL118:
	.loc 1 729 0
	lwz 31,28(31)
.LVL119:
	.loc 1 731 0
	cmpw 7,31,29
	bne+ 7,.L104
	.loc 1 734 0
	lis 9,hunk_size@ha
	lis 10,hunk_high_used@ha
	lwz 9,hunk_size@l(9)
	lwz 0,hunk_high_used@l(10)
	subf 0,0,9
	add 11,11,0
	subf 11,30,11
	cmpw 7,28,11
	bgt- 7,.L105
.L109:
	.loc 1 736 0
	mr 3,30
.LVL120:
	li 4,0
.LVL121:
	li 5,40
	bl memset
	.loc 1 740 0
	lwz 0,24(31)
	.loc 1 739 0
	stw 31,28(30)
	.loc 1 744 0
	mr 3,30
	.loc 1 740 0
	stw 0,24(30)
	.loc 1 737 0
	stw 28,0(30)
	.loc 1 741 0
	lwz 9,24(31)
	.loc 1 742 0
	stw 30,24(31)
	.loc 1 741 0
	stw 30,28(9)
	.loc 1 744 0
	bl Cache_MakeLRU
.LVL122:
.L101:
	.loc 1 750 0
	lwz 0,36(1)
	mr 3,30
	lwz 27,12(1)
	mtlr 0
	lwz 28,16(1)
.LVL123:
	lwz 29,20(1)
	lwz 30,24(1)
.LVL124:
	lwz 31,28(1)
	addi 1,1,32
	.cfi_remember_state
.LCFI42:
	.cfi_def_cfa_offset 0
	.cfi_restore 31
	.cfi_restore 30
	.cfi_restore 29
	.cfi_restore 28
	.cfi_restore 27
	blr
.LVL125:
.L110:
.LCFI43:
	.cfi_restore_state
	.loc 1 688 0
	lis 9,hunk_size@ha
	lis 11,hunk_high_used@ha
	lis 30,hunk_low_used@ha
	lwz 9,hunk_size@l(9)
	lwz 0,hunk_high_used@l(11)
	lwz 31,hunk_low_used@l(30)
	subf 0,0,9
	subf 0,31,0
	cmpw 7,0,3
	blt- 7,.L111
.LVL126:
.L100:
	.loc 1 691 0
	lis 9,hunk_base@ha
	.loc 1 692 0
	li 4,0
	.loc 1 691 0
	lwz 27,hunk_base@l(9)
	.loc 1 692 0
	li 5,40
	.loc 1 691 0
	add 30,27,31
.LVL127:
	.loc 1 692 0
	mr 3,30
	bl memset
	.loc 1 695 0
	stw 30,28(29)
	stw 30,24(29)
	.loc 1 698 0
	mr 3,30
	.loc 1 693 0
	stwx 28,27,31
	.loc 1 696 0
	stw 29,28(30)
	stw 29,24(30)
	.loc 1 698 0
	bl Cache_MakeLRU
	.loc 1 699 0
	b .L101
.LVL128:
.L105:
	.loc 1 750 0
	lwz 0,36(1)
	.loc 1 749 0
	li 30,0
.LVL129:
	.loc 1 750 0
	mr 3,30
	lwz 27,12(1)
	mtlr 0
	lwz 28,16(1)
.LVL130:
	lwz 29,20(1)
	lwz 30,24(1)
	lwz 31,28(1)
.LVL131:
	addi 1,1,32
	.cfi_remember_state
	.cfi_restore 27
	.cfi_restore 28
	.cfi_restore 29
	.cfi_restore 30
	.cfi_restore 31
.LCFI44:
	.cfi_def_cfa_offset 0
	blr
.LVL132:
.L111:
.LCFI45:
	.cfi_restore_state
	.loc 1 689 0
	lis 3,.LC29@ha
.LVL133:
	mr 4,28
.LVL134:
	la 3,.LC29@l(3)
	crxor 6,6,6
	bl Sys_Error
	lwz 31,hunk_low_used@l(30)
	b .L100
	.cfi_endproc
.LFE59:
	.size	Cache_TryAlloc, .-Cache_TryAlloc
	.align 2
	.globl Cache_Print
	.type	Cache_Print, @function
Cache_Print:
.LFB61:
	.loc 1 773 0
	.cfi_startproc
	stwu 1,-24(1)
.LCFI46:
	.cfi_def_cfa_offset 24
	mflr 0
	stw 30,16(1)
	.loc 1 776 0
	lis 30,cache_head@ha
	.cfi_offset 30, -8
	.cfi_register 65, 0
	la 30,cache_head@l(30)
	.loc 1 773 0
	stw 31,20(1)
	.loc 1 776 0
	lwz 31,28(30)
	.cfi_offset 31, -4
.LVL135:
	.loc 1 773 0
	stw 0,28(1)
	.loc 1 776 0
	cmpw 7,31,30
	.loc 1 773 0
	stw 29,12(1)
	.loc 1 776 0
	beq- 7,.L112
	.cfi_offset 29, -12
	.cfi_offset 65, 4
	lis 29,.LC30@ha
	la 29,.LC30@l(29)
.LVL136:
.L114:
	.loc 1 778 0 discriminator 2
	lwz 4,0(31)
	addi 5,31,8
	mr 3,29
	crxor 6,6,6
	bl Con_Printf
	.loc 1 776 0 discriminator 2
	lwz 31,28(31)
.LVL137:
	cmpw 7,31,30
	bne+ 7,.L114
.L112:
	.loc 1 780 0
	lwz 0,28(1)
	lwz 29,12(1)
	mtlr 0
	lwz 30,16(1)
	lwz 31,20(1)
.LVL138:
	addi 1,1,24
.LCFI47:
	.cfi_def_cfa_offset 0
	.cfi_restore 31
	.cfi_restore 30
	.cfi_restore 29
	blr
	.cfi_endproc
.LFE61:
	.size	Cache_Print, .-Cache_Print
	.align 2
	.globl Cache_Compact
	.type	Cache_Compact, @function
Cache_Compact:
.LFB63:
	.loc 1 800 0
	.cfi_startproc
	.loc 1 801 0
	blr
	.cfi_endproc
.LFE63:
	.size	Cache_Compact, .-Cache_Compact
	.align 2
	.globl Cache_Init
	.type	Cache_Init, @function
Cache_Init:
.LFB64:
	.loc 1 810 0
	.cfi_startproc
	mflr 0
	stwu 1,-8(1)
.LCFI48:
	.cfi_def_cfa_offset 8
	.cfi_register 65, 0
	.loc 1 811 0
	lis 9,cache_head@ha
	.loc 1 814 0
	lis 3,.LC31@ha
	.loc 1 811 0
	la 9,cache_head@l(9)
	.loc 1 814 0
	lis 4,Cache_Flush@ha
	.loc 1 810 0
	stw 0,12(1)
	.loc 1 814 0
	la 3,.LC31@l(3)
	.loc 1 811 0
	stw 9,24(9)
	.loc 1 814 0
	la 4,Cache_Flush@l(4)
	.loc 1 811 0
	stw 9,28(9)
	.loc 1 812 0
	stw 9,32(9)
	stw 9,36(9)
	.loc 1 814 0
	.cfi_offset 65, 4
	bl Cmd_AddCommand
	.loc 1 815 0
	lis 3,.LC32@ha
	lis 4,Cache_Report@ha
	la 3,.LC32@l(3)
	la 4,Cache_Report@l(4)
	bl Cmd_AddCommand
	.loc 1 816 0
	lwz 0,12(1)
	addi 1,1,8
.LCFI49:
	.cfi_def_cfa_offset 0
	mtlr 0
	blr
	.cfi_endproc
.LFE64:
	.size	Cache_Init, .-Cache_Init
	.align 2
	.globl Cache_Free
	.type	Cache_Free, @function
Cache_Free:
.LFB65:
	.loc 1 826 0
	.cfi_startproc
.LVL139:
	mflr 0
	stwu 1,-16(1)
.LCFI50:
	.cfi_def_cfa_offset 16
	.cfi_register 65, 0
	stw 31,12(1)
	mr 31,3
	.cfi_offset 31, -4
	stw 0,20(1)
	.loc 1 829 0
	lwz 9,0(3)
	cmpwi 7,9,0
	beq- 7,.L120
	.cfi_offset 65, 4
.LVL140:
	.loc 1 834 0
	lwz 11,-16(9)
	.loc 1 836 0
	li 0,0
	.loc 1 834 0
	lwz 10,-12(9)
	.loc 1 840 0
	addi 3,9,-40
.LVL141:
	.loc 1 834 0
	stw 10,28(11)
	.loc 1 835 0
	lwz 10,-12(9)
	.loc 1 836 0
	stw 0,-12(9)
	.loc 1 835 0
	stw 11,24(10)
	.loc 1 836 0
	stw 0,-16(9)
	.loc 1 838 0
	stw 0,0(31)
	.loc 1 841 0
	lwz 0,20(1)
	lwz 31,12(1)
.LVL142:
	mtlr 0
	addi 1,1,16
	.cfi_remember_state
.LCFI51:
	.cfi_def_cfa_offset 0
	.cfi_restore 31
	.loc 1 840 0
	b Cache_UnlinkLRU
.LVL143:
.L120:
.LCFI52:
	.cfi_restore_state
	.loc 1 830 0
	lis 3,.LC33@ha
.LVL144:
	la 3,.LC33@l(3)
	crxor 6,6,6
	bl Sys_Error
	lwz 9,0(31)
.LVL145:
	.loc 1 836 0
	li 0,0
	.loc 1 834 0
	lwz 11,-16(9)
	.loc 1 840 0
	addi 3,9,-40
	.loc 1 834 0
	lwz 10,-12(9)
	stw 10,28(11)
	.loc 1 835 0
	lwz 10,-12(9)
	.loc 1 836 0
	stw 0,-12(9)
	.loc 1 835 0
	stw 11,24(10)
	.loc 1 836 0
	stw 0,-16(9)
	.loc 1 838 0
	stw 0,0(31)
	.loc 1 841 0
	lwz 0,20(1)
	lwz 31,12(1)
.LVL146:
	mtlr 0
	addi 1,1,16
	.cfi_restore 31
.LCFI53:
	.cfi_def_cfa_offset 0
	.loc 1 840 0
	b Cache_UnlinkLRU
.LVL147:
	.cfi_endproc
.LFE65:
	.size	Cache_Free, .-Cache_Free
	.align 2
	.globl Cache_Flush
	.type	Cache_Flush, @function
Cache_Flush:
.LFB60:
	.loc 1 760 0
	.cfi_startproc
	mflr 0
	stwu 1,-16(1)
.LCFI54:
	.cfi_def_cfa_offset 16
	.cfi_register 65, 0
	stw 31,12(1)
	.loc 1 761 0
	lis 31,cache_head@ha
	.cfi_offset 31, -4
	.loc 1 760 0
	stw 0,20(1)
	.loc 1 761 0
	la 31,cache_head@l(31)
	lwz 9,28(31)
	cmpw 7,9,31
	beq- 7,.L121
	.cfi_offset 65, 4
.L124:
	.loc 1 762 0
	lwz 3,4(9)
	bl Cache_Free
	.loc 1 761 0
	lwz 9,28(31)
	cmpw 7,9,31
	bne+ 7,.L124
.L121:
	.loc 1 763 0
	lwz 0,20(1)
	lwz 31,12(1)
	mtlr 0
	addi 1,1,16
.LCFI55:
	.cfi_def_cfa_offset 0
	.cfi_restore 31
	blr
	.cfi_endproc
.LFE60:
	.size	Cache_Flush, .-Cache_Flush
	.align 2
	.globl Cache_Move
	.type	Cache_Move, @function
Cache_Move:
.LFB54:
	.loc 1 576 0
	.cfi_startproc
.LVL148:
	mflr 0
	stwu 1,-24(1)
.LCFI56:
	.cfi_def_cfa_offset 24
	.cfi_register 65, 0
	.loc 1 580 0
	li 4,1
	.loc 1 576 0
	stw 31,20(1)
	mr 31,3
	.cfi_offset 31, -4
	stw 0,28(1)
	stw 30,16(1)
	.loc 1 580 0
	lwz 3,0(3)
.LVL149:
	.loc 1 576 0
	stw 29,12(1)
	.loc 1 580 0
	.cfi_offset 29, -12
	.cfi_offset 30, -8
	.cfi_offset 65, 4
	bl Cache_TryAlloc
.LVL150:
	.loc 1 581 0
	mr. 30,3
	beq- 0,.L127
	.loc 1 585 0
	lwz 5,0(31)
	addi 29,30,40
	mr 3,29
.LVL151:
	addi 4,31,40
	addi 5,5,-40
	bl Q_memcpy
	.loc 1 586 0
	lwz 0,4(31)
	.loc 1 587 0
	addi 3,30,8
	addi 4,31,8
	.loc 1 586 0
	stw 0,4(30)
	.loc 1 587 0
	li 5,16
	bl Q_memcpy
	.loc 1 588 0
	lwz 3,4(31)
	bl Cache_Free
	.loc 1 597 0
	lwz 0,28(1)
	.loc 1 589 0
	lwz 9,4(30)
	.loc 1 597 0
	mtlr 0
	lwz 30,16(1)
.LVL152:
	.loc 1 589 0
	stw 29,0(9)
	.loc 1 597 0
	lwz 31,20(1)
.LVL153:
	lwz 29,12(1)
.LVL154:
	addi 1,1,24
	.cfi_remember_state
.LCFI57:
	.cfi_def_cfa_offset 0
	.cfi_restore 31
	.cfi_restore 30
	.cfi_restore 29
	blr
.LVL155:
.L127:
.LCFI58:
	.cfi_restore_state
	lwz 0,28(1)
	.loc 1 595 0
	lwz 3,4(31)
.LVL156:
	.loc 1 597 0
	lwz 29,12(1)
	mtlr 0
	lwz 30,16(1)
.LVL157:
	lwz 31,20(1)
.LVL158:
	addi 1,1,24
.LCFI59:
	.cfi_def_cfa_offset 0
	.cfi_restore 31
	.cfi_restore 30
	.cfi_restore 29
	.loc 1 595 0
	b Cache_Free
	.cfi_endproc
.LFE54:
	.size	Cache_Move, .-Cache_Move
	.align 2
	.globl Cache_FreeLow
	.type	Cache_FreeLow, @function
Cache_FreeLow:
.LFB55:
	.loc 1 607 0
	.cfi_startproc
.LVL159:
	mflr 0
	stwu 1,-24(1)
.LCFI60:
	.cfi_def_cfa_offset 24
	.cfi_register 65, 0
	stw 31,20(1)
	.loc 1 612 0
	lis 31,cache_head@ha
	.cfi_offset 31, -4
	.loc 1 607 0
	stw 0,28(1)
	.loc 1 612 0
	la 31,cache_head@l(31)
	.loc 1 607 0
	stw 30,16(1)
	mr 30,3
	.cfi_offset 30, -8
	.cfi_offset 65, 4
	.loc 1 612 0
	lwz 0,28(31)
.LVL160:
	.loc 1 607 0
	stw 29,12(1)
	.loc 1 613 0
	cmpw 7,0,31
	beq- 7,.L129
	.cfi_offset 29, -12
	.loc 1 615 0
	lis 29,hunk_base@ha
	lwz 9,hunk_base@l(29)
	add 9,9,3
	cmplw 7,0,9
	blt+ 7,.L134
	b .L129
.LVL161:
.L133:
	lwz 9,hunk_base@l(29)
	add 9,9,30
	cmplw 7,0,9
	bge- 7,.L129
.L134:
	.loc 1 617 0
	mr 3,0
	bl Cache_Move
.LVL162:
	.loc 1 612 0
	lwz 0,28(31)
.LVL163:
	.loc 1 613 0
	cmpw 7,0,31
	bne+ 7,.L133
.LVL164:
.L129:
	.loc 1 619 0
	lwz 0,28(1)
.LVL165:
	lwz 29,12(1)
	mtlr 0
	lwz 30,16(1)
.LVL166:
	lwz 31,20(1)
	addi 1,1,24
.LCFI61:
	.cfi_def_cfa_offset 0
	.cfi_restore 31
	.cfi_restore 30
	.cfi_restore 29
	blr
	.cfi_endproc
.LFE55:
	.size	Cache_FreeLow, .-Cache_FreeLow
	.align 2
	.globl Hunk_AllocName
	.type	Hunk_AllocName, @function
Hunk_AllocName:
.LFB46:
	.loc 1 400 0
	.cfi_startproc
.LVL167:
	stwu 1,-32(1)
.LCFI62:
	.cfi_def_cfa_offset 32
	mflr 0
	stw 30,24(1)
	.loc 1 407 0
	mr. 30,3
	.cfi_offset 30, -8
	.cfi_register 65, 0
	.loc 1 400 0
	stw 27,12(1)
	mr 27,4
	.cfi_offset 27, -20
	stw 0,36(1)
	stw 26,8(1)
	stw 28,16(1)
	stw 29,20(1)
	stw 31,28(1)
	.loc 1 407 0
	blt- 0,.L138
	.cfi_offset 31, -4
	.cfi_offset 29, -12
	.cfi_offset 28, -16
	.cfi_offset 26, -24
	.cfi_offset 65, 4
.LVL168:
.L136:
	.loc 1 412 0
	lis 9,hunk_size@ha
	lis 26,hunk_low_used@ha
	lwz 0,hunk_size@l(9)
	lis 9,hunk_high_used@ha
	lwz 31,hunk_low_used@l(26)
	.loc 1 410 0
	addi 30,30,15
.LVL169:
	.loc 1 412 0
	lwz 9,hunk_high_used@l(9)
	.loc 1 410 0
	rlwinm 30,30,0,0,27
.LVL170:
	.loc 1 412 0
	subf 0,31,0
	.loc 1 410 0
	addi 30,30,16
.LVL171:
	.loc 1 412 0
	subf 0,9,0
	cmpw 7,30,0
	ble+ 7,.L137
	.loc 1 413 0
	lis 3,.LC35@ha
	mr 4,30
	la 3,.LC35@l(3)
	crxor 6,6,6
	bl Sys_Error
	lwz 31,hunk_low_used@l(26)
.L137:
	.loc 1 415 0
	lis 9,hunk_base@ha
	.loc 1 416 0
	add 0,30,31
	.loc 1 415 0
	lwz 28,hunk_base@l(9)
	.loc 1 418 0
	mr 3,0
	.loc 1 416 0
	stw 0,hunk_low_used@l(26)
	.loc 1 418 0
	bl Cache_FreeLow
	.loc 1 415 0
	add 29,28,31
.LVL172:
	.loc 1 420 0
	mr 5,30
	mr 3,29
	li 4,0
	bl memset
	.loc 1 423 0
	lis 0,0x1df0
	ori 0,0,493
	.loc 1 422 0
	stw 30,4(29)
	.loc 1 423 0
	stwx 0,28,31
	.loc 1 424 0
	addi 3,29,8
	mr 4,27
	li 5,8
	bl Q_strncpy
	.loc 1 427 0
	lwz 0,36(1)
	addi 3,29,16
	lwz 26,8(1)
	mtlr 0
	lwz 27,12(1)
.LVL173:
	lwz 28,16(1)
	lwz 29,20(1)
.LVL174:
	lwz 30,24(1)
.LVL175:
	lwz 31,28(1)
	addi 1,1,32
	.cfi_remember_state
.LCFI63:
	.cfi_def_cfa_offset 0
	.cfi_restore 31
	.cfi_restore 30
	.cfi_restore 29
	.cfi_restore 28
	.cfi_restore 27
	.cfi_restore 26
	blr
.LVL176:
.L138:
.LCFI64:
	.cfi_restore_state
	.loc 1 408 0
	lis 3,.LC34@ha
.LVL177:
	mr 4,30
.LVL178:
	la 3,.LC34@l(3)
	crxor 6,6,6
	bl Sys_Error
	b .L136
	.cfi_endproc
.LFE46:
	.size	Hunk_AllocName, .-Hunk_AllocName
	.align 2
	.globl Hunk_Alloc
	.type	Hunk_Alloc, @function
Hunk_Alloc:
.LFB47:
	.loc 1 435 0
	.cfi_startproc
.LVL179:
	.loc 1 436 0
	lis 4,.LC36@ha
	.loc 1 437 0
	.loc 1 436 0
	la 4,.LC36@l(4)
	b Hunk_AllocName
.LVL180:
	.cfi_endproc
.LFE47:
	.size	Hunk_Alloc, .-Hunk_Alloc
	.align 2
	.globl Cache_FreeHigh
	.type	Cache_FreeHigh, @function
Cache_FreeHigh:
.LFB56:
	.loc 1 629 0
	.cfi_startproc
.LVL181:
	stwu 1,-32(1)
.LCFI65:
	.cfi_def_cfa_offset 32
	mflr 0
	.loc 1 632 0
	li 9,0
	.loc 1 629 0
	stw 30,24(1)
	lis 30,cache_head@ha
	.cfi_offset 30, -8
	.cfi_register 65, 0
	la 30,cache_head@l(30)
	stw 31,28(1)
	.loc 1 635 0
	lwz 31,24(30)
	.cfi_offset 31, -4
	.loc 1 629 0
	stw 27,12(1)
	mr 27,3
	.cfi_offset 27, -20
	.loc 1 636 0
	cmpw 7,31,30
	.loc 1 629 0
	stw 28,16(1)
	stw 29,20(1)
	.loc 1 638 0
	lis 28,hunk_base@ha
	.cfi_offset 29, -12
	.cfi_offset 28, -16
	.loc 1 629 0
	stw 0,36(1)
	.loc 1 638 0
	lis 29,hunk_size@ha
.LVL182:
	.loc 1 640 0
	cmpw 6,31,9
	.loc 1 644 0
	mr 3,31
.LVL183:
	.loc 1 636 0
	beq- 7,.L140
	.cfi_offset 65, 4
.LVL184:
.L146:
	.loc 1 638 0
	lwz 0,hunk_size@l(29)
	lwz 11,0(31)
	lwz 10,hunk_base@l(28)
	subf 0,27,0
	add 11,31,11
	add 0,10,0
	cmplw 7,11,0
	ble- 7,.L140
	.loc 1 640 0
	beq- 6,.L145
	.loc 1 644 0
	bl Cache_Move
.LVL185:
	.loc 1 632 0
	mr 9,31
.LVL186:
.L147:
	.loc 1 635 0
	lwz 31,24(30)
.LVL187:
	.loc 1 636 0
	cmpw 7,31,30
	.loc 1 640 0
	cmpw 6,31,9
	.loc 1 644 0
	mr 3,31
	.loc 1 636 0
	bne+ 7,.L146
.LVL188:
.L140:
	.loc 1 648 0
	lwz 0,36(1)
	lwz 27,12(1)
.LVL189:
	mtlr 0
	lwz 28,16(1)
	lwz 29,20(1)
	lwz 30,24(1)
	lwz 31,28(1)
	addi 1,1,32
	.cfi_remember_state
.LCFI66:
	.cfi_def_cfa_offset 0
	.cfi_restore 31
	.cfi_restore 30
	.cfi_restore 29
	.cfi_restore 28
	.cfi_restore 27
	blr
.LVL190:
.L145:
.LCFI67:
	.cfi_restore_state
	.loc 1 641 0
	lwz 3,4(9)
.LVL191:
	bl Cache_Free
.LVL192:
	.loc 1 632 0
	mr 9,31
	b .L147
	.cfi_endproc
.LFE56:
	.size	Cache_FreeHigh, .-Cache_FreeHigh
	.align 2
	.globl Hunk_HighAllocName
	.type	Hunk_HighAllocName, @function
Hunk_HighAllocName:
.LFB52:
	.loc 1 483 0
	.cfi_startproc
.LVL193:
	stwu 1,-32(1)
.LCFI68:
	.cfi_def_cfa_offset 32
	mflr 0
	stw 31,28(1)
	.loc 1 486 0
	mr. 31,3
	.cfi_offset 31, -4
	.cfi_register 65, 0
	.loc 1 483 0
	stw 27,12(1)
	mr 27,4
	.cfi_offset 27, -20
	stw 0,36(1)
	stw 28,16(1)
	stw 29,20(1)
	stw 30,24(1)
	.loc 1 486 0
	blt- 0,.L153
	.cfi_offset 30, -8
	.cfi_offset 29, -12
	.cfi_offset 28, -16
	.cfi_offset 65, 4
.LVL194:
.L149:
	.loc 1 489 0
	lis 30,hunk_tempactive@ha
	lbz 0,hunk_tempactive@l(30)
	cmpwi 7,0,0
	bne- 7,.L154
	.loc 1 501 0
	lis 29,hunk_size@ha
	lis 9,hunk_low_used@ha
	lis 30,hunk_high_used@ha
	lwz 11,hunk_size@l(29)
	lwz 9,hunk_low_used@l(9)
	.loc 1 499 0
	addi 31,31,15
.LVL195:
	.loc 1 501 0
	lwz 0,hunk_high_used@l(30)
	.loc 1 499 0
	rlwinm 31,31,0,0,27
.LVL196:
	.loc 1 501 0
	subf 9,9,11
	.loc 1 499 0
	addi 31,31,16
.LVL197:
	.loc 1 501 0
	subf 9,0,9
	cmpw 7,31,9
	bgt- 7,.L155
.L151:
	.loc 1 507 0
	add 0,31,0
	.loc 1 508 0
	mr 3,0
	.loc 1 507 0
	stw 0,hunk_high_used@l(30)
	.loc 1 508 0
	bl Cache_FreeHigh
	.loc 1 510 0
	lwz 0,hunk_high_used@l(30)
	lis 9,hunk_base@ha
	lwz 29,hunk_size@l(29)
	lwz 28,hunk_base@l(9)
	.loc 1 512 0
	mr 5,31
	.loc 1 510 0
	subf 29,0,29
	.loc 1 512 0
	li 4,0
	.loc 1 510 0
	add 30,28,29
.LVL198:
	.loc 1 512 0
	mr 3,30
	bl memset
	.loc 1 514 0
	lis 0,0x1df0
	ori 0,0,493
	.loc 1 513 0
	stw 31,4(30)
	.loc 1 514 0
	stwx 0,28,29
	.loc 1 515 0
	addi 3,30,8
	mr 4,27
	li 5,8
	bl Q_strncpy
	.loc 1 518 0
	lwz 0,36(1)
	.loc 1 517 0
	addi 3,30,16
	.loc 1 518 0
	lwz 27,12(1)
.LVL199:
	mtlr 0
	lwz 28,16(1)
	lwz 29,20(1)
	lwz 30,24(1)
.LVL200:
	lwz 31,28(1)
.LVL201:
	addi 1,1,32
	.cfi_remember_state
.LCFI69:
	.cfi_def_cfa_offset 0
	.cfi_restore 31
	.cfi_restore 30
	.cfi_restore 29
	.cfi_restore 28
	.cfi_restore 27
	blr
.LVL202:
.L154:
.LCFI70:
	.cfi_restore_state
	.loc 1 491 0
	lis 9,hunk_tempmark@ha
	.loc 1 501 0
	lis 29,hunk_size@ha
	.loc 1 491 0
	lwz 3,hunk_tempmark@l(9)
	.loc 1 499 0
	addi 31,31,15
.LVL203:
	rlwinm 31,31,0,0,27
.LVL204:
	.loc 1 491 0
	bl Hunk_FreeToHighMark
	.loc 1 492 0
	li 0,0
	.loc 1 501 0
	lis 9,hunk_low_used@ha
	.loc 1 492 0
	stb 0,hunk_tempactive@l(30)
	.loc 1 501 0
	lwz 11,hunk_size@l(29)
	lis 30,hunk_high_used@ha
	lwz 9,hunk_low_used@l(9)
	.loc 1 499 0
	addi 31,31,16
.LVL205:
	.loc 1 501 0
	lwz 0,hunk_high_used@l(30)
	subf 9,9,11
	subf 9,0,9
	cmpw 7,31,9
	ble+ 7,.L151
.L155:
	.loc 1 503 0
	lis 3,.LC38@ha
	mr 4,31
	la 3,.LC38@l(3)
	crxor 6,6,6
	bl Con_Printf
	.loc 1 518 0
	lwz 0,36(1)
	lwz 27,12(1)
.LVL206:
	.loc 1 504 0
	li 3,0
	.loc 1 518 0
	mtlr 0
	lwz 28,16(1)
	lwz 29,20(1)
	lwz 30,24(1)
	lwz 31,28(1)
.LVL207:
	addi 1,1,32
	.cfi_remember_state
	.cfi_restore 27
	.cfi_restore 28
	.cfi_restore 29
	.cfi_restore 30
	.cfi_restore 31
.LCFI71:
	.cfi_def_cfa_offset 0
	blr
.LVL208:
.L153:
.LCFI72:
	.cfi_restore_state
	.loc 1 487 0
	lis 3,.LC37@ha
.LVL209:
	mr 4,31
.LVL210:
	la 3,.LC37@l(3)
	crxor 6,6,6
	bl Sys_Error
	b .L149
	.cfi_endproc
.LFE52:
	.size	Hunk_HighAllocName, .-Hunk_HighAllocName
	.align 2
	.globl Hunk_TempAlloc
	.type	Hunk_TempAlloc, @function
Hunk_TempAlloc:
.LFB53:
	.loc 1 529 0
	.cfi_startproc
.LVL211:
	stwu 1,-24(1)
.LCFI73:
	.cfi_def_cfa_offset 24
	mflr 0
	.loc 1 532 0
	addi 3,3,15
.LVL212:
	.loc 1 529 0
	stw 31,20(1)
	.loc 1 534 0
	lis 31,hunk_tempactive@ha
	.cfi_offset 31, -4
	.cfi_register 65, 0
	.loc 1 529 0
	stw 0,28(1)
	.loc 1 534 0
	lbz 0,hunk_tempactive@l(31)
	.cfi_offset 65, 4
	.loc 1 529 0
	stw 29,12(1)
	lis 29,hunk_tempmark@ha
	.cfi_offset 29, -12
	.loc 1 534 0
	cmpwi 7,0,0
	.loc 1 529 0
	stw 30,16(1)
	.loc 1 532 0
	rlwinm 30,3,0,0,27
	.cfi_offset 30, -8
.LVL213:
	.loc 1 534 0
	beq+ 7,.L157
	.loc 1 536 0
	lwz 3,hunk_tempmark@l(29)
	bl Hunk_FreeToHighMark
	.loc 1 537 0
	li 0,0
	stb 0,hunk_tempactive@l(31)
.L157:
	.loc 1 540 0
	bl Hunk_HighMark
	.loc 1 542 0
	lis 4,.LC39@ha
	.loc 1 540 0
	stw 3,hunk_tempmark@l(29)
	.loc 1 542 0
	la 4,.LC39@l(4)
	mr 3,30
	bl Hunk_HighAllocName
.LVL214:
	.loc 1 544 0
	li 0,1
	stb 0,hunk_tempactive@l(31)
	.loc 1 547 0
	lwz 0,28(1)
	lwz 29,12(1)
	mtlr 0
	lwz 30,16(1)
.LVL215:
	lwz 31,20(1)
	addi 1,1,24
.LCFI74:
	.cfi_def_cfa_offset 0
	.cfi_restore 31
	.cfi_restore 30
	.cfi_restore 29
	blr
	.cfi_endproc
.LFE53:
	.size	Hunk_TempAlloc, .-Hunk_TempAlloc
	.align 2
	.globl Cache_Check
	.type	Cache_Check, @function
Cache_Check:
.LFB66:
	.loc 1 851 0
	.cfi_startproc
.LVL216:
	mflr 0
	stwu 1,-16(1)
.LCFI75:
	.cfi_def_cfa_offset 16
	.cfi_register 65, 0
	stw 30,8(1)
	stw 0,20(1)
	stw 31,12(1)
	.loc 1 851 0
	mr 31,3
	.cfi_offset 31, -4
	.cfi_offset 65, 4
	.cfi_offset 30, -8
	.loc 1 854 0
	lwz 30,0(3)
	.loc 1 855 0
	li 3,0
.LVL217:
	.loc 1 854 0
	cmpwi 7,30,0
	beq- 7,.L160
	.loc 1 857 0
	addi 30,30,-40
.LVL218:
	.loc 1 860 0
	mr 3,30
	bl Cache_UnlinkLRU
	.loc 1 861 0
	mr 3,30
	bl Cache_MakeLRU
	.loc 1 863 0
	lwz 3,0(31)
.LVL219:
.L160:
	.loc 1 864 0
	lwz 0,20(1)
	lwz 30,8(1)
	mtlr 0
	lwz 31,12(1)
.LVL220:
	addi 1,1,16
.LCFI76:
	.cfi_def_cfa_offset 0
	.cfi_restore 31
	.cfi_restore 30
	blr
	.cfi_endproc
.LFE66:
	.size	Cache_Check, .-Cache_Check
	.align 2
	.globl Cache_Alloc
	.type	Cache_Alloc, @function
Cache_Alloc:
.LFB67:
	.loc 1 873 0
	.cfi_startproc
.LVL221:
	mflr 0
	stwu 1,-32(1)
.LCFI77:
	.cfi_def_cfa_offset 32
	.cfi_register 65, 0
	stw 27,12(1)
	mr 27,5
	.cfi_offset 27, -20
	stw 0,36(1)
	stw 30,24(1)
	mr 30,3
	.cfi_offset 30, -8
	.cfi_offset 65, 4
	.loc 1 876 0
	lwz 0,0(3)
	.loc 1 873 0
	stw 31,28(1)
	mr 31,4
	.cfi_offset 31, -4
	.loc 1 876 0
	cmpwi 7,0,0
	.loc 1 873 0
	stw 26,8(1)
	stw 28,16(1)
	stw 29,20(1)
	.loc 1 876 0
	beq- 7,.L163
	.cfi_offset 29, -12
	.cfi_offset 28, -16
	.cfi_offset 26, -24
	.loc 1 877 0
	lis 3,.LC40@ha
.LVL222:
	la 3,.LC40@l(3)
	crxor 6,6,6
	bl Sys_Error
.LVL223:
.L163:
	.loc 1 879 0
	cmpwi 7,31,0
	ble- 7,.L168
.L164:
	.loc 1 882 0
	addi 31,31,55
.LVL224:
	.loc 1 897 0
	lis 29,cache_head@ha
	.loc 1 898 0
	lis 26,.LC42@ha
	.loc 1 882 0
	rlwinm 28,31,0,0,27
.LVL225:
	.loc 1 897 0
	la 29,cache_head@l(29)
	.loc 1 898 0
	la 26,.LC42@l(26)
	b .L167
.LVL226:
.L165:
	.loc 1 897 0
	lwz 9,32(29)
	cmpw 7,9,29
	beq- 7,.L169
.LVL227:
.L166:
	.loc 1 900 0
	lwz 3,4(9)
	bl Cache_Free
.LVL228:
.L167:
	.loc 1 887 0
	li 4,0
	mr 3,28
	bl Cache_TryAlloc
.LVL229:
	.loc 1 888 0
	mr. 31,3
	beq+ 0,.L165
	.loc 1 890 0
	addi 3,31,8
.LVL230:
	mr 4,27
	li 5,15
	bl strncpy
	.loc 1 891 0
	addi 0,31,40
	stw 0,0(30)
	.loc 1 903 0
	mr 3,30
	.loc 1 904 0
	lwz 0,36(1)
	.loc 1 892 0
	stw 30,4(31)
	.loc 1 904 0
	lwz 26,8(1)
	mtlr 0
	lwz 27,12(1)
.LVL231:
	lwz 28,16(1)
.LVL232:
	lwz 29,20(1)
	lwz 30,24(1)
.LVL233:
	lwz 31,28(1)
.LVL234:
	addi 1,1,32
	.cfi_remember_state
.LCFI78:
	.cfi_def_cfa_offset 0
	.cfi_restore 31
	.cfi_restore 30
	.cfi_restore 29
	.cfi_restore 28
	.cfi_restore 27
	.cfi_restore 26
	.loc 1 903 0
	b Cache_Check
.LVL235:
.L169:
.LCFI79:
	.cfi_restore_state
	.loc 1 898 0
	mr 3,26
.LVL236:
	crxor 6,6,6
	bl Sys_Error
	lwz 9,32(29)
	b .L166
.LVL237:
.L168:
	.loc 1 880 0
	lis 3,.LC41@ha
	mr 4,31
	la 3,.LC41@l(3)
	crxor 6,6,6
	bl Sys_Error
	b .L164
	.cfi_endproc
.LFE67:
	.size	Cache_Alloc, .-Cache_Alloc
	.align 2
	.globl Memory_Init
	.type	Memory_Init, @function
Memory_Init:
.LFB68:
	.loc 1 915 0
	.cfi_startproc
.LVL238:
	mflr 0
	stwu 1,-16(1)
.LCFI80:
	.cfi_def_cfa_offset 16
	.cfi_register 65, 0
	.loc 1 919 0
	lis 9,hunk_base@ha
	stw 3,hunk_base@l(9)
	.loc 1 920 0
	lis 9,hunk_size@ha
	stw 4,hunk_size@l(9)
	.loc 1 921 0
	lis 9,hunk_low_used@ha
	.loc 1 915 0
	stw 0,20(1)
	.loc 1 921 0
	li 0,0
	.cfi_offset 65, 4
	stw 0,hunk_low_used@l(9)
	.loc 1 922 0
	lis 9,hunk_high_used@ha
	.loc 1 915 0
	stw 30,8(1)
	.loc 1 917 0
	li 30,0
	.cfi_offset 30, -8
	.loc 1 915 0
	stw 31,12(1)
	.loc 1 926 0
	li 31,0
	.cfi_offset 31, -4
	.loc 1 922 0
	stw 0,hunk_high_used@l(9)
	.loc 1 924 0
	bl Cache_Init
.LVL239:
	.loc 1 925 0
	lis 3,.LC43@ha
	.loc 1 926 0
	ori 31,31,49120
	.loc 1 925 0
	la 3,.LC43@l(3)
	.loc 1 917 0
	ori 30,30,49152
	.loc 1 925 0
	bl COM_CheckParm
.LVL240:
	.loc 1 926 0
	cmpwi 0,3,0
	beq- 0,.L171
	.loc 1 928 0
	lis 9,com_argc@ha
	lwz 9,com_argc@l(9)
	addi 0,9,-1
	cmpw 7,3,0
	blt- 7,.L174
	.loc 1 931 0
	lis 3,.LC44@ha
.LVL241:
	la 3,.LC44@l(3)
	crxor 6,6,6
	bl Sys_Error
.LVL242:
.L171:
	.loc 1 933 0
	lis 4,.LC45@ha
	mr 3,30
	la 4,.LC45@l(4)
	bl Hunk_AllocName
.LBB4:
.LBB5:
	.loc 1 83 0
	li 0,0
	stw 0,12(3)
.LBE5:
.LBE4:
	.loc 1 933 0
	lis 10,mainzone@ha
.LBB10:
.LBB6:
	.loc 1 84 0
	stw 0,4(3)
	.loc 1 80 0
	addi 9,3,32
	.loc 1 88 0
	stw 0,36(3)
	.loc 1 89 0
	lis 0,0x1d
	ori 0,0,18961
	.loc 1 87 0
	addi 11,3,4
	.loc 1 89 0
	stw 0,40(3)
.LBE6:
.LBE10:
	.loc 1 935 0
	lwz 0,20(1)
	.loc 1 933 0
	stw 3,mainzone@l(10)
.LVL243:
.LBB11:
.LBB7:
	.loc 1 82 0
	li 10,1
.LBE7:
.LBE11:
	.loc 1 935 0
	mtlr 0
.LBB12:
.LBB8:
	.loc 1 90 0
	stw 31,32(3)
.LBE8:
.LBE12:
	.loc 1 935 0
	lwz 30,8(1)
.LVL244:
	lwz 31,12(1)
.LBB13:
.LBB9:
	.loc 1 80 0
	stw 9,20(3)
	stw 9,16(3)
	.loc 1 82 0
	stw 10,8(3)
	.loc 1 85 0
	stw 9,28(3)
	.loc 1 87 0
	stw 11,44(3)
	stw 11,48(3)
.LBE9:
.LBE13:
	.loc 1 935 0
	addi 1,1,16
	.cfi_remember_state
.LCFI81:
	.cfi_def_cfa_offset 0
	.cfi_restore 31
	.cfi_restore 30
	blr
.LVL245:
.L174:
.LCFI82:
	.cfi_restore_state
	.loc 1 929 0
	lis 9,com_argv@ha
	addi 3,3,1
.LVL246:
	lwz 9,com_argv@l(9)
	slwi 3,3,2
.LVL247:
	lwzx 3,9,3
	bl Q_atoi
	slwi 30,3,10
.LVL248:
	addi 31,30,-32
	b .L171
	.cfi_endproc
.LFE68:
	.size	Memory_Init, .-Memory_Init
	.comm	cache_head,40,4
	.comm	hunk_tempmark,4,4
	.comm	hunk_tempactive,1,1
	.comm	hunk_high_used,4,4
	.comm	hunk_low_used,4,4
	.comm	hunk_size,4,4
	.comm	hunk_base,4,4
	.comm	mainzone,4,4
	.comm	causticschain,4,4
	.section	.rodata.cst4,"aM",@progbits,4
	.align 2
.LC2:
	.4byte	1501560836
.LC3:
	.4byte	897581056
	.section	.rodata.str1.4,"aMS",@progbits,1
	.align 2
.LC0:
	.string	"%4.1f megabyte data cache\n"
	.zero	1
.LC4:
	.string	"Z_Free: NULL pointer"
	.zero	3
.LC5:
	.string	"Z_Free: freed a pointer without ZONEID"
	.zero	1
.LC6:
	.string	"Z_Free: freed a freed pointer"
	.zero	2
.LC7:
	.string	"Z_TagMalloc: tried to use a 0 tag"
	.zero	2
.LC8:
	.string	"zone size: %i  location: %p\n"
	.zero	3
.LC9:
	.string	"block:%p    size:%7i    tag:%3i\n"
	.zero	3
.LC10:
	.string	"ERROR: block size does not touch the next block\n"
	.zero	3
.LC11:
	.string	"ERROR: next block doesn't have proper back link\n"
	.zero	3
.LC12:
	.string	"ERROR: two consecutive free blocks\n"
.LC13:
	.string	"Z_CheckHeap: block size does not touch the next block\n"
	.zero	1
.LC14:
	.string	"Z_CheckHeap: next block doesn't have proper back link\n"
	.zero	1
.LC15:
	.string	"Z_CheckHeap: two consecutive free blocks\n"
	.zero	2
.LC16:
	.string	"Z_Malloc: failed on allocation of %i bytes"
	.zero	1
.LC17:
	.string	"Hunk_Check: trahsed sentinal"
	.zero	3
.LC18:
	.string	"Hunk_Check: bad size"
	.zero	3
.LC19:
	.string	"          :%8i total hunk size\n"
.LC20:
	.string	"-------------------------\n"
	.zero	1
.LC21:
	.string	"          :%8i REMAINING\n"
	.zero	2
.LC22:
	.string	"%8p :%8i %8s\n"
	.zero	2
.LC23:
	.string	"          :%8i %8s (TOTAL)\n"
.LC24:
	.string	"%8i total blocks\n"
	.zero	2
.LC25:
	.string	"Hunk_FreeToLowMark: bad mark %i"
.LC26:
	.string	"Hunk_FreeToHighMark: bad mark %i"
	.zero	3
.LC27:
	.string	"Cache_UnlinkLRU: NULL link"
	.zero	1
.LC28:
	.string	"Cache_MakeLRU: active link"
	.zero	1
.LC29:
	.string	"Cache_TryAlloc: %i is greater then free hunk"
	.zero	3
.LC30:
	.string	"%8i : %s\n"
	.zero	2
.LC31:
	.string	"flush"
	.zero	2
.LC32:
	.string	"cache_report"
	.zero	3
.LC33:
	.string	"Cache_Free: not allocated"
	.zero	2
.LC34:
	.string	"Hunk_Alloc: bad size: %i"
	.zero	3
.LC35:
	.string	"Hunk_Alloc: failed on %i bytes"
	.zero	1
.LC36:
	.string	"unknown"
.LC37:
	.string	"Hunk_HighAllocName: bad size: %i"
	.zero	3
.LC38:
	.string	"Hunk_HighAlloc: failed on %i bytes\n"
.LC39:
	.string	"temp"
	.zero	3
.LC40:
	.string	"Cache_Alloc: allready allocated"
.LC41:
	.string	"Cache_Alloc: size %i"
	.zero	3
.LC42:
	.string	"Cache_Alloc: out of memory"
	.zero	1
.LC43:
	.string	"-zone"
	.zero	2
.LC44:
	.string	"Memory_Init: you must specify a size in KB after -zone"
	.zero	1
.LC45:
	.string	"zone"
	.section	".text"
.Letext0:
	.file 2 "d:/Data/Nintendo/TenebraeGX/src/common.h"
	.file 3 "d:/Data/Nintendo/TenebraeGX/src/zone.h"
	.file 4 "d:/Data/Nintendo/TenebraeGX/src/mathlib.h"
	.file 5 "d:/Data/Nintendo/TenebraeGX/src/gl_model.h"
	.file 6 "c:/utils/devkitPro/libogc/include/ogc/gx.h"
	.file 7 "d:/Data/Nintendo/TenebraeGX/src/glquake.h"