Archive member included because of file (symbol)

c:/Utils/devkitPro/libogc/lib/wii\libwiiuse.a(wpad.o)
                              test.o (WPAD_ButtonsDown)
c:/Utils/devkitPro/libogc/lib/wii\libwiiuse.a(dynamics.o)
                              c:/Utils/devkitPro/libogc/lib/wii\libwiiuse.a(wpad.o) (calculate_gforce)
c:/Utils/devkitPro/libogc/lib/wii\libwiiuse.a(io_wii.o)
                              c:/Utils/devkitPro/libogc/lib/wii\libwiiuse.a(wpad.o) (wiiuse_disconnect)
c:/Utils/devkitPro/libogc/lib/wii\libwiiuse.a(ir.o)
                              c:/Utils/devkitPro/libogc/lib/wii\libwiiuse.a(wpad.o) (wiiuse_set_ir_vres)
c:/Utils/devkitPro/libogc/lib/wii\libwiiuse.a(wiiuse.o)
                              c:/Utils/devkitPro/libogc/lib/wii\libwiiuse.a(wpad.o) (wiiuse_set_flags)
c:/Utils/devkitPro/libogc/lib/wii\libwiiuse.a(events.o)
                              c:/Utils/devkitPro/libogc/lib/wii\libwiiuse.a(io_wii.o) (parse_event)
c:/Utils/devkitPro/libogc/lib/wii\libwiiuse.a(guitar_hero_3.o)
                              c:/Utils/devkitPro/libogc/lib/wii\libwiiuse.a(events.o) (guitar_hero_3_event)
c:/Utils/devkitPro/libogc/lib/wii\libwiiuse.a(io.o)
                              c:/Utils/devkitPro/libogc/lib/wii\libwiiuse.a(events.o) (wiiuse_disable_expansion)
c:/Utils/devkitPro/libogc/lib/wii\libwiiuse.a(nunchuk.o)
                              c:/Utils/devkitPro/libogc/lib/wii\libwiiuse.a(events.o) (nunchuk_event)
c:/Utils/devkitPro/libogc/lib/wii\libwiiuse.a(wiiboard.o)
                              c:/Utils/devkitPro/libogc/lib/wii\libwiiuse.a(events.o) (wii_board_event)
c:/Utils/devkitPro/libogc/lib/wii\libwiiuse.a(classic.o)
                              c:/Utils/devkitPro/libogc/lib/wii\libwiiuse.a(events.o) (classic_ctrl_event)
c:/Utils/devkitPro/libogc/lib/wii\libbte.a(bte.o)
                              c:/Utils/devkitPro/libogc/lib/wii\libwiiuse.a(io_wii.o) (bte_arg)
c:/Utils/devkitPro/libogc/lib/wii\libbte.a(hci.o)
                              c:/Utils/devkitPro/libogc/lib/wii\libbte.a(bte.o) (hci_arg)
c:/Utils/devkitPro/libogc/lib/wii\libbte.a(l2cap.o)
                              c:/Utils/devkitPro/libogc/lib/wii\libbte.a(hci.o) (lp_connect_ind)
c:/Utils/devkitPro/libogc/lib/wii\libbte.a(btmemb.o)
                              c:/Utils/devkitPro/libogc/lib/wii\libbte.a(bte.o) (btmemb_alloc)
c:/Utils/devkitPro/libogc/lib/wii\libbte.a(btmemr.o)
                              c:/Utils/devkitPro/libogc/lib/wii\libbte.a(hci.o) (btmemr_init)
c:/Utils/devkitPro/libogc/lib/wii\libbte.a(btpbuf.o)
                              c:/Utils/devkitPro/libogc/lib/wii\libbte.a(hci.o) (btpbuf_header)
c:/Utils/devkitPro/libogc/lib/wii\libbte.a(physbusif.o)
                              c:/Utils/devkitPro/libogc/lib/wii\libbte.a(bte.o) (physbusif_close)
c:/Utils/devkitPro/libogc/lib/wii\libogc.a(console.o)
                              test.o (CON_Init)
c:/Utils/devkitPro/libogc/lib/wii\libogc.a(lwp_queue.o)
                              c:/Utils/devkitPro/libogc/lib/wii\libwiiuse.a(io_wii.o) (__lwp_queue_initialize)
c:/Utils/devkitPro/libogc/lib/wii\libogc.a(lwp_threads.o)
                              c:/Utils/devkitPro/libogc/lib/wii\libwiiuse.a(wpad.o) (_thread_dispatch_disable_level)
c:/Utils/devkitPro/libogc/lib/wii\libogc.a(lwp.o)
                              c:/Utils/devkitPro/libogc/lib/wii\libbte.a(bte.o) (LWP_ThreadSignal)
c:/Utils/devkitPro/libogc/lib/wii\libogc.a(lwp_handler.o)
                              c:/Utils/devkitPro/libogc/lib/wii\libogc.a(lwp_threads.o) (_cpu_context_save_fp)
c:/Utils/devkitPro/libogc/lib/wii\libogc.a(lwp_stack.o)
                              c:/Utils/devkitPro/libogc/lib/wii\libogc.a(lwp_threads.o) (__lwp_stack_free)
c:/Utils/devkitPro/libogc/lib/wii\libogc.a(lwp_watchdog.o)
                              c:/Utils/devkitPro/libogc/lib/wii\libogc.a(lwp_threads.o) (_wd_ticks_queue)
c:/Utils/devkitPro/libogc/lib/wii\libogc.a(lwp_wkspace.o)
                              c:/Utils/devkitPro/libogc/lib/wii\libwiiuse.a(io_wii.o) (__wkspace_heap)
c:/Utils/devkitPro/libogc/lib/wii\libogc.a(lwp_objmgr.o)
                              c:/Utils/devkitPro/libogc/lib/wii\libogc.a(lwp.o) (__lwp_objmgr_getnoprotection)
c:/Utils/devkitPro/libogc/lib/wii\libogc.a(lwp_heap.o)
                              c:/Utils/devkitPro/libogc/lib/wii\libogc.a(lwp_wkspace.o) (__lwp_heap_init)
c:/Utils/devkitPro/libogc/lib/wii\libogc.a(sys_state.o)
                              c:/Utils/devkitPro/libogc/lib/wii\libogc.a(lwp_threads.o) (_sys_state_curr)
c:/Utils/devkitPro/libogc/lib/wii\libogc.a(irq.o)
                              c:/Utils/devkitPro/libogc/lib/wii\libwiiuse.a(io_wii.o) (IRQ_Disable)
c:/Utils/devkitPro/libogc/lib/wii\libogc.a(video.o)
                              c:/Utils/devkitPro/libogc/lib/wii\libogc.a(console.o) (VIDEO_GetCurrentFramebuffer)
c:/Utils/devkitPro/libogc/lib/wii\libogc.a(system.o)
                              c:/Utils/devkitPro/libogc/lib/wii\libwiiuse.a(wpad.o) (__SYS_DoPowerCB)
c:/Utils/devkitPro/libogc/lib/wii\libogc.a(system_asm.o)
                              c:/Utils/devkitPro/libogc/lib/wii\libogc.a(system.o) (__realmode)
c:/Utils/devkitPro/libogc/lib/wii\libogc.a(cond.o)
                              c:/Utils/devkitPro/libogc/lib/wii\libogc.a(system.o) (__lwp_cond_init)
c:/Utils/devkitPro/libogc/lib/wii\libogc.a(decrementer.o)
                              c:/Utils/devkitPro/libogc/lib/wii\libogc.a(system.o) (__decrementer_init)
c:/Utils/devkitPro/libogc/lib/wii\libogc.a(message.o)
                              c:/Utils/devkitPro/libogc/lib/wii\libogc.a(system.o) (__lwp_mqbox_init)
c:/Utils/devkitPro/libogc/lib/wii\libogc.a(si.o)
                              c:/Utils/devkitPro/libogc/lib/wii\libogc.a(system.o) (__si_init)
c:/Utils/devkitPro/libogc/lib/wii\libogc.a(ipc.o)
                              c:/Utils/devkitPro/libogc/lib/wii\libbte.a(physbusif.o) (__IPC_ClntInit)
c:/Utils/devkitPro/libogc/lib/wii\libogc.a(ogc_crt0.o)
                              (_start)
c:/Utils/devkitPro/libogc/lib/wii\libogc.a(console_font_8x16.o)
                              c:/Utils/devkitPro/libogc/lib/wii\libogc.a(console.o) (console_font_8x16)
c:/Utils/devkitPro/libogc/lib/wii\libogc.a(timesupp.o)
                              c:/Utils/devkitPro/libogc/lib/wii\libogc.a(system.o) (gettick)
c:/Utils/devkitPro/libogc/lib/wii\libogc.a(lock_supp.o)
                              c:/Utils/devkitPro/libogc/lib/wii\libogc.a(system.o) (__libogc_lock_release)
c:/Utils/devkitPro/libogc/lib/wii\libogc.a(newlibc.o)
                              c:/Utils/devkitPro/libogc/lib/wii\libogc.a(lwp_threads.o) (__libc_create_hook)
c:/Utils/devkitPro/libogc/lib/wii\libogc.a(usbgecko.o)
                              c:/Utils/devkitPro/libogc/lib/wii\libogc.a(console.o) (usb_sendbuffer)
c:/Utils/devkitPro/libogc/lib/wii\libogc.a(sbrk.o)
                              c:/Utils/devkitPro/libogc/lib/wii\libogc.a(system.o) (__libogc_sbrk_r)
c:/Utils/devkitPro/libogc/lib/wii\libogc.a(malloc_lock.o)
                              c:/Utils/devkitPro/libogc/lib/wii\libogc.a(system.o) (__libogc_malloc_lock)
c:/Utils/devkitPro/libogc/lib/wii\libogc.a(stm.o)
                              c:/Utils/devkitPro/libogc/lib/wii\libogc.a(system.o) (STM_RegisterEventHandler)
c:/Utils/devkitPro/libogc/lib/wii\libogc.a(ios.o)
                              c:/Utils/devkitPro/libogc/lib/wii\libogc.a(system.o) (__IOS_ShutdownSubsystems)
c:/Utils/devkitPro/libogc/lib/wii\libogc.a(es.o)
                              c:/Utils/devkitPro/libogc/lib/wii\libogc.a(ios.o) (__ES_Reset)
c:/Utils/devkitPro/libogc/lib/wii\libogc.a(usb.o)
                              c:/Utils/devkitPro/libogc/lib/wii\libbte.a(physbusif.o) (USB_CloseDeviceAsync)
c:/Utils/devkitPro/libogc/lib/wii\libogc.a(argv.o)
                              c:/Utils/devkitPro/libogc/lib/wii\libogc.a(ogc_crt0.o) (__CheckARGV)
c:/Utils/devkitPro/libogc/lib/wii\libogc.a(conf.o)
                              c:/Utils/devkitPro/libogc/lib/wii\libwiiuse.a(wpad.o) (CONF_GetPadDevices)
c:/Utils/devkitPro/libogc/lib/wii\libogc.a(wiilaunch.o)
                              c:/Utils/devkitPro/libogc/lib/wii\libogc.a(system.o) (WII_ReturnToMenu)
c:/Utils/devkitPro/libogc/lib/wii\libogc.a(lwp_priority.o)
                              c:/Utils/devkitPro/libogc/lib/wii\libogc.a(system.o) (__lwp_priority_init)
c:/Utils/devkitPro/libogc/lib/wii\libogc.a(lwp_threadq.o)
                              c:/Utils/devkitPro/libogc/lib/wii\libogc.a(cond.o) (__lwp_threadqueue_first)
c:/Utils/devkitPro/libogc/lib/wii\libogc.a(lwp_messages.o)
                              c:/Utils/devkitPro/libogc/lib/wii\libogc.a(message.o) (__lwpmq_close)
c:/Utils/devkitPro/libogc/lib/wii\libogc.a(lwp_mutex.o)
                              c:/Utils/devkitPro/libogc/lib/wii\libogc.a(malloc_lock.o) (__lwp_mutex_initialize)
c:/Utils/devkitPro/libogc/lib/wii\libogc.a(exception.o)
                              c:/Utils/devkitPro/libogc/lib/wii\libogc.a(system.o) (__libogc_exit)
c:/Utils/devkitPro/libogc/lib/wii\libogc.a(irq_handler.o)
                              c:/Utils/devkitPro/libogc/lib/wii\libogc.a(exception.o) (irq_exceptionhandler)
c:/Utils/devkitPro/libogc/lib/wii\libogc.a(semaphore.o)
                              c:/Utils/devkitPro/libogc/lib/wii\libogc.a(system.o) (__lwp_sema_init)
c:/Utils/devkitPro/libogc/lib/wii\libogc.a(video_asm.o)
                              c:/Utils/devkitPro/libogc/lib/wii\libogc.a(video.o) (__VIClearFramebuffer)
c:/Utils/devkitPro/libogc/lib/wii\libogc.a(pad.o)
                              c:/Utils/devkitPro/libogc/lib/wii\libogc.a(system.o) (__PADDisableRecalibration)
c:/Utils/devkitPro/libogc/lib/wii\libogc.a(exi.o)
                              c:/Utils/devkitPro/libogc/lib/wii\libogc.a(system.o) (EXI_Sync)
c:/Utils/devkitPro/libogc/lib/wii\libogc.a(mutex.o)
                              c:/Utils/devkitPro/libogc/lib/wii\libogc.a(lock_supp.o) (LWP_MutexInit)
c:/Utils/devkitPro/libogc/lib/wii\libogc.a(cache_asm.o)
                              c:/Utils/devkitPro/libogc/lib/wii\libogc.a(system_asm.o) (DCEnable)
c:/Utils/devkitPro/libogc/lib/wii\libogc.a(decrementer_handler.o)
                              c:/Utils/devkitPro/libogc/lib/wii\libogc.a(exception.o) (dec_exceptionhandler)
c:/Utils/devkitPro/libogc/lib/wii\libogc.a(kprintf.o)
                              c:/Utils/devkitPro/libogc/lib/wii\libogc.a(exception.o) (kprintf)
c:/Utils/devkitPro/libogc/lib/wii\libogc.a(lwp_sema.o)
                              c:/Utils/devkitPro/libogc/lib/wii\libogc.a(semaphore.o) (__lwp_sema_flush)
c:/Utils/devkitPro/libogc/lib/wii\libogc.a(exception_handler.o)
                              c:/Utils/devkitPro/libogc/lib/wii\libogc.a(exception.o) (exceptionhandler_start)
c:/utils/devkitpro/devkitppc/bin/../lib/gcc/powerpc-gekko/4.2.4/../../../../powerpc-gekko/lib\libm.a(lib_a-s_atan2.o)
                              c:/Utils/devkitPro/libogc/lib/wii\libwiiuse.a(ir.o) (atan2)
c:/utils/devkitpro/devkitppc/bin/../lib/gcc/powerpc-gekko/4.2.4/../../../../powerpc-gekko/lib\libm.a(lib_a-s_atangent.o)
                              c:/utils/devkitpro/devkitppc/bin/../lib/gcc/powerpc-gekko/4.2.4/../../../../powerpc-gekko/lib\libm.a(lib_a-s_atan2.o) (atangent)
c:/utils/devkitpro/devkitppc/bin/../lib/gcc/powerpc-gekko/4.2.4/../../../../powerpc-gekko/lib\libm.a(lib_a-s_cos.o)
                              c:/Utils/devkitPro/libogc/lib/wii\libwiiuse.a(ir.o) (cos)
c:/utils/devkitpro/devkitppc/bin/../lib/gcc/powerpc-gekko/4.2.4/../../../../powerpc-gekko/lib\libm.a(lib_a-s_fabs.o)
                              c:/utils/devkitpro/devkitppc/bin/../lib/gcc/powerpc-gekko/4.2.4/../../../../powerpc-gekko/lib\libm.a(lib_a-s_atangent.o) (fabs)
c:/utils/devkitpro/devkitppc/bin/../lib/gcc/powerpc-gekko/4.2.4/../../../../powerpc-gekko/lib\libm.a(lib_a-s_frexp.o)
                              c:/utils/devkitpro/devkitppc/bin/../lib/gcc/powerpc-gekko/4.2.4/../../../../powerpc-gekko/lib\libm.a(lib_a-s_atangent.o) (frexp)
c:/utils/devkitpro/devkitppc/bin/../lib/gcc/powerpc-gekko/4.2.4/../../../../powerpc-gekko/lib\libm.a(lib_a-s_mathcnst.o)
                              c:/utils/devkitpro/devkitppc/bin/../lib/gcc/powerpc-gekko/4.2.4/../../../../powerpc-gekko/lib\libm.a(lib_a-s_atangent.o) (z_rooteps)
c:/utils/devkitpro/devkitppc/bin/../lib/gcc/powerpc-gekko/4.2.4/../../../../powerpc-gekko/lib\libm.a(lib_a-s_numtest.o)
                              c:/utils/devkitpro/devkitppc/bin/../lib/gcc/powerpc-gekko/4.2.4/../../../../powerpc-gekko/lib\libm.a(lib_a-s_fabs.o) (numtest)
c:/utils/devkitpro/devkitppc/bin/../lib/gcc/powerpc-gekko/4.2.4/../../../../powerpc-gekko/lib\libm.a(lib_a-s_sin.o)
                              c:/Utils/devkitPro/libogc/lib/wii\libwiiuse.a(ir.o) (sin)
c:/utils/devkitpro/devkitppc/bin/../lib/gcc/powerpc-gekko/4.2.4/../../../../powerpc-gekko/lib\libm.a(lib_a-s_sine.o)
                              c:/utils/devkitpro/devkitppc/bin/../lib/gcc/powerpc-gekko/4.2.4/../../../../powerpc-gekko/lib\libm.a(lib_a-s_cos.o) (sine)
c:/utils/devkitpro/devkitppc/bin/../lib/gcc/powerpc-gekko/4.2.4/../../../../powerpc-gekko/lib\libm.a(lib_a-s_sqrt.o)
                              c:/Utils/devkitPro/libogc/lib/wii\libwiiuse.a(dynamics.o) (sqrt)
c:/utils/devkitpro/devkitppc/bin/../lib/gcc/powerpc-gekko/4.2.4/../../../../powerpc-gekko/lib\libm.a(lib_a-sf_atan.o)
                              c:/Utils/devkitPro/libogc/lib/wii\libwiiuse.a(dynamics.o) (atanf)
c:/utils/devkitpro/devkitppc/bin/../lib/gcc/powerpc-gekko/4.2.4/../../../../powerpc-gekko/lib\libm.a(lib_a-sf_atan2.o)
                              c:/Utils/devkitPro/libogc/lib/wii\libwiiuse.a(dynamics.o) (atan2f)
c:/utils/devkitpro/devkitppc/bin/../lib/gcc/powerpc-gekko/4.2.4/../../../../powerpc-gekko/lib\libm.a(lib_a-sf_atangent.o)
                              c:/utils/devkitpro/devkitppc/bin/../lib/gcc/powerpc-gekko/4.2.4/../../../../powerpc-gekko/lib\libm.a(lib_a-sf_atan.o) (atangentf)
c:/utils/devkitpro/devkitppc/bin/../lib/gcc/powerpc-gekko/4.2.4/../../../../powerpc-gekko/lib\libm.a(lib_a-sf_cos.o)
                              c:/Utils/devkitPro/libogc/lib/wii\libwiiuse.a(ir.o) (cosf)
c:/utils/devkitpro/devkitppc/bin/../lib/gcc/powerpc-gekko/4.2.4/../../../../powerpc-gekko/lib\libm.a(lib_a-sf_fabs.o)
                              c:/utils/devkitpro/devkitppc/bin/../lib/gcc/powerpc-gekko/4.2.4/../../../../powerpc-gekko/lib\libm.a(lib_a-sf_atangent.o) (fabsf)
c:/utils/devkitpro/devkitppc/bin/../lib/gcc/powerpc-gekko/4.2.4/../../../../powerpc-gekko/lib\libm.a(lib_a-sf_fpclassify.o)
                              c:/Utils/devkitPro/libogc/lib/wii\libwiiuse.a(dynamics.o) (__fpclassifyf)
c:/utils/devkitpro/devkitppc/bin/../lib/gcc/powerpc-gekko/4.2.4/../../../../powerpc-gekko/lib\libm.a(lib_a-sf_frexp.o)
                              c:/utils/devkitpro/devkitppc/bin/../lib/gcc/powerpc-gekko/4.2.4/../../../../powerpc-gekko/lib\libm.a(lib_a-sf_atangent.o) (frexpf)
c:/utils/devkitpro/devkitppc/bin/../lib/gcc/powerpc-gekko/4.2.4/../../../../powerpc-gekko/lib\libm.a(lib_a-sf_isinff.o)
                              c:/Utils/devkitPro/libogc/lib/wii\libwiiuse.a(dynamics.o) (__isinff)
c:/utils/devkitpro/devkitppc/bin/../lib/gcc/powerpc-gekko/4.2.4/../../../../powerpc-gekko/lib\libm.a(lib_a-sf_isnanf.o)
                              c:/Utils/devkitPro/libogc/lib/wii\libwiiuse.a(dynamics.o) (__isnanf)
c:/utils/devkitpro/devkitppc/bin/../lib/gcc/powerpc-gekko/4.2.4/../../../../powerpc-gekko/lib\libm.a(lib_a-sf_numtest.o)
                              c:/utils/devkitpro/devkitppc/bin/../lib/gcc/powerpc-gekko/4.2.4/../../../../powerpc-gekko/lib\libm.a(lib_a-sf_atan.o) (numtestf)
c:/utils/devkitpro/devkitppc/bin/../lib/gcc/powerpc-gekko/4.2.4/../../../../powerpc-gekko/lib\libm.a(lib_a-sf_sin.o)
                              c:/Utils/devkitPro/libogc/lib/wii\libwiiuse.a(ir.o) (sinf)
c:/utils/devkitpro/devkitppc/bin/../lib/gcc/powerpc-gekko/4.2.4/../../../../powerpc-gekko/lib\libm.a(lib_a-sf_sine.o)
                              c:/utils/devkitpro/devkitppc/bin/../lib/gcc/powerpc-gekko/4.2.4/../../../../powerpc-gekko/lib\libm.a(lib_a-sf_cos.o) (sinef)
c:/utils/devkitpro/devkitppc/bin/../lib/gcc/powerpc-gekko/4.2.4/../../../../powerpc-gekko/lib\libm.a(lib_a-sf_sqrt.o)
                              c:/Utils/devkitPro/libogc/lib/wii\libwiiuse.a(ir.o) (sqrtf)
c:/utils/devkitpro/devkitppc/bin/../lib/gcc/powerpc-gekko/4.2.4/../../../../powerpc-gekko/lib\libm.a(lib_a-s_ispos.o)
                              c:/utils/devkitpro/devkitppc/bin/../lib/gcc/powerpc-gekko/4.2.4/../../../../powerpc-gekko/lib\libm.a(lib_a-s_sqrt.o) (ispos)
c:/utils/devkitpro/devkitppc/bin/../lib/gcc/powerpc-gekko/4.2.4/../../../../powerpc-gekko/lib\libm.a(lib_a-s_ldexp.o)
                              c:/utils/devkitpro/devkitppc/bin/../lib/gcc/powerpc-gekko/4.2.4/../../../../powerpc-gekko/lib\libm.a(lib_a-s_sqrt.o) (ldexp)
c:/utils/devkitpro/devkitppc/bin/../lib/gcc/powerpc-gekko/4.2.4/../../../../powerpc-gekko/lib\libm.a(lib_a-sf_ispos.o)
                              c:/utils/devkitpro/devkitppc/bin/../lib/gcc/powerpc-gekko/4.2.4/../../../../powerpc-gekko/lib\libm.a(lib_a-sf_sqrt.o) (isposf)
c:/utils/devkitpro/devkitppc/bin/../lib/gcc/powerpc-gekko/4.2.4/../../../../powerpc-gekko/lib\libm.a(lib_a-sf_ldexp.o)
                              c:/utils/devkitpro/devkitppc/bin/../lib/gcc/powerpc-gekko/4.2.4/../../../../powerpc-gekko/lib\libm.a(lib_a-sf_sqrt.o) (ldexpf)
c:/utils/devkitpro/devkitppc/bin/../lib/gcc/powerpc-gekko/4.2.4\libgcc.a(_udivdi3.o)
                              c:/Utils/devkitPro/libogc/lib/wii\libogc.a(system.o) (__udivdi3)
c:/utils/devkitpro/devkitppc/bin/../lib/gcc/powerpc-gekko/4.2.4/../../../../powerpc-gekko/lib\libsysbase.a(abort.o)
                              c:/Utils/devkitPro/libogc/lib/wii\libogc.a(newlibc.o) (abort)
c:/utils/devkitpro/devkitppc/bin/../lib/gcc/powerpc-gekko/4.2.4/../../../../powerpc-gekko/lib\libsysbase.a(iosupport.o)
                              c:/Utils/devkitPro/libogc/lib/wii\libogc.a(es.o) (AddDevice)
c:/utils/devkitpro/devkitppc/bin/../lib/gcc/powerpc-gekko/4.2.4/../../../../powerpc-gekko/lib\libsysbase.a(_exit.o)
                              c:/utils/devkitpro/devkitppc/bin/../lib/gcc/powerpc-gekko/4.2.4/../../../../powerpc-gekko/lib\libsysbase.a(abort.o) (_exit)
c:/utils/devkitpro/devkitppc/bin/../lib/gcc/powerpc-gekko/4.2.4/../../../../powerpc-gekko/lib\libsysbase.a(build_argv.o)
                              c:/Utils/devkitPro/libogc/lib/wii\libogc.a(argv.o) (build_argv)
c:/utils/devkitpro/devkitppc/bin/../lib/gcc/powerpc-gekko/4.2.4/../../../../powerpc-gekko/lib\libsysbase.a(syscall_support.o)
                              c:/Utils/devkitPro/libogc/lib/wii\libogc.a(system.o) (__syscalls)
c:/utils/devkitpro/devkitppc/bin/../lib/gcc/powerpc-gekko/4.2.4/../../../../powerpc-gekko/lib\libc.a(lib_a-calloc.o)
                              c:/Utils/devkitPro/libogc/lib/wii\libogc.a(newlibc.o) (calloc)
c:/utils/devkitpro/devkitppc/bin/../lib/gcc/powerpc-gekko/4.2.4/../../../../powerpc-gekko/lib\libc.a(lib_a-callocr.o)
                              c:/utils/devkitpro/devkitppc/bin/../lib/gcc/powerpc-gekko/4.2.4/../../../../powerpc-gekko/lib\libc.a(lib_a-calloc.o) (_calloc_r)
c:/utils/devkitpro/devkitppc/bin/../lib/gcc/powerpc-gekko/4.2.4/../../../../powerpc-gekko/lib\libc.a(lib_a-ctype_.o)
                              c:/Utils/devkitPro/libogc/lib/wii\libogc.a(ipc.o) (__ctype_ptr)
c:/utils/devkitpro/devkitppc/bin/../lib/gcc/powerpc-gekko/4.2.4/../../../../powerpc-gekko/lib\libc.a(lib_a-errno.o)
                              c:/utils/devkitpro/devkitppc/bin/../lib/gcc/powerpc-gekko/4.2.4/../../../../powerpc-gekko/lib\libm.a(lib_a-s_atangent.o) (__errno)
c:/utils/devkitpro/devkitppc/bin/../lib/gcc/powerpc-gekko/4.2.4/../../../../powerpc-gekko/lib\libc.a(lib_a-exit.o)
                              c:/utils/devkitpro/devkitppc/bin/../lib/gcc/powerpc-gekko/4.2.4/../../../../powerpc-gekko/lib/crtmain.o (exit)
c:/utils/devkitpro/devkitppc/bin/../lib/gcc/powerpc-gekko/4.2.4/../../../../powerpc-gekko/lib\libc.a(lib_a-fprintf.o)
                              c:/Utils/devkitPro/libogc/lib/wii\libwiiuse.a(events.o) (fprintf)
c:/utils/devkitpro/devkitppc/bin/../lib/gcc/powerpc-gekko/4.2.4/../../../../powerpc-gekko/lib\libc.a(lib_a-freer.o)
                              c:/Utils/devkitPro/libogc/lib/wii\libogc.a(es.o) (_free_r)
c:/utils/devkitpro/devkitppc/bin/../lib/gcc/powerpc-gekko/4.2.4/../../../../powerpc-gekko/lib\libc.a(lib_a-fwrite.o)
                              c:/Utils/devkitPro/libogc/lib/wii\libwiiuse.a(ir.o) (fwrite)
c:/utils/devkitpro/devkitppc/bin/../lib/gcc/powerpc-gekko/4.2.4/../../../../powerpc-gekko/lib\libc.a(lib_a-impure.o)
                              c:/Utils/devkitPro/libogc/lib/wii\libwiiuse.a(ir.o) (_impure_ptr)
c:/utils/devkitpro/devkitppc/bin/../lib/gcc/powerpc-gekko/4.2.4/../../../../powerpc-gekko/lib\libc.a(lib_a-malign.o)
                              c:/Utils/devkitPro/libogc/lib/wii\libogc.a(system.o) (memalign)
c:/utils/devkitpro/devkitppc/bin/../lib/gcc/powerpc-gekko/4.2.4/../../../../powerpc-gekko/lib\libc.a(lib_a-malignr.o)
                              c:/Utils/devkitPro/libogc/lib/wii\libogc.a(es.o) (_memalign_r)
c:/utils/devkitpro/devkitppc/bin/../lib/gcc/powerpc-gekko/4.2.4/../../../../powerpc-gekko/lib\libc.a(lib_a-malloc.o)
                              c:/Utils/devkitPro/libogc/lib/wii\libbte.a(bte.o) (free)
c:/utils/devkitpro/devkitppc/bin/../lib/gcc/powerpc-gekko/4.2.4/../../../../powerpc-gekko/lib\libc.a(lib_a-mallocr.o)
                              c:/utils/devkitpro/devkitppc/bin/../lib/gcc/powerpc-gekko/4.2.4/../../../../powerpc-gekko/lib\libc.a(lib_a-callocr.o) (_malloc_r)
c:/utils/devkitpro/devkitppc/bin/../lib/gcc/powerpc-gekko/4.2.4/../../../../powerpc-gekko/lib\libc.a(lib_a-memcmp.o)
                              c:/Utils/devkitPro/libogc/lib/wii\libogc.a(conf.o) (memcmp)
c:/utils/devkitpro/devkitppc/bin/../lib/gcc/powerpc-gekko/4.2.4/../../../../powerpc-gekko/lib\libc.a(lib_a-memcpy.o)
                              c:/Utils/devkitPro/libogc/lib/wii\libwiiuse.a(wpad.o) (memcpy)
c:/utils/devkitpro/devkitppc/bin/../lib/gcc/powerpc-gekko/4.2.4/../../../../powerpc-gekko/lib\libc.a(lib_a-memmove.o)
                              c:/Utils/devkitPro/libogc/lib/wii\libogc.a(argv.o) (memmove)
c:/utils/devkitpro/devkitppc/bin/../lib/gcc/powerpc-gekko/4.2.4/../../../../powerpc-gekko/lib\libc.a(lib_a-memset.o)
                              c:/Utils/devkitPro/libogc/lib/wii\libwiiuse.a(wpad.o) (memset)
c:/utils/devkitpro/devkitppc/bin/../lib/gcc/powerpc-gekko/4.2.4/../../../../powerpc-gekko/lib\libc.a(lib_a-printf.o)
                              test.o (printf)
c:/utils/devkitpro/devkitppc/bin/../lib/gcc/powerpc-gekko/4.2.4/../../../../powerpc-gekko/lib\libc.a(lib_a-puts.o)
                              c:/Utils/devkitPro/libogc/lib/wii\libbte.a(hci.o) (puts)
c:/utils/devkitpro/devkitppc/bin/../lib/gcc/powerpc-gekko/4.2.4/../../../../powerpc-gekko/lib\libc.a(lib_a-reent.o)
                              c:/Utils/devkitPro/libogc/lib/wii\libogc.a(newlibc.o) (_wrapup_reent)
c:/utils/devkitpro/devkitppc/bin/../lib/gcc/powerpc-gekko/4.2.4/../../../../powerpc-gekko/lib\libc.a(lib_a-setvbuf.o)
                              c:/Utils/devkitPro/libogc/lib/wii\libogc.a(console.o) (setvbuf)
c:/utils/devkitpro/devkitppc/bin/../lib/gcc/powerpc-gekko/4.2.4/../../../../powerpc-gekko/lib\libc.a(lib_a-snprintf.o)
                              c:/Utils/devkitPro/libogc/lib/wii\libogc.a(usb.o) (snprintf)
c:/utils/devkitpro/devkitppc/bin/../lib/gcc/powerpc-gekko/4.2.4/../../../../powerpc-gekko/lib\libc.a(lib_a-sprintf.o)
                              c:/Utils/devkitPro/libogc/lib/wii\libogc.a(wiilaunch.o) (sprintf)
c:/utils/devkitpro/devkitppc/bin/../lib/gcc/powerpc-gekko/4.2.4/../../../../powerpc-gekko/lib\libc.a(lib_a-strchr.o)
                              c:/Utils/devkitPro/libogc/lib/wii\libogc.a(conf.o) (strchr)
c:/utils/devkitpro/devkitppc/bin/../lib/gcc/powerpc-gekko/4.2.4/../../../../powerpc-gekko/lib\libc.a(lib_a-strcmp.o)
                              c:/Utils/devkitPro/libogc/lib/wii\libogc.a(conf.o) (strcmp)
c:/utils/devkitpro/devkitppc/bin/../lib/gcc/powerpc-gekko/4.2.4/../../../../powerpc-gekko/lib\libc.a(lib_a-strcpy.o)
                              c:/Utils/devkitPro/libogc/lib/wii\libogc.a(wiilaunch.o) (strcpy)
c:/utils/devkitpro/devkitppc/bin/../lib/gcc/powerpc-gekko/4.2.4/../../../../powerpc-gekko/lib\libc.a(lib_a-strlen.o)
                              c:/Utils/devkitPro/libogc/lib/wii\libogc.a(conf.o) (strlen)
c:/utils/devkitpro/devkitppc/bin/../lib/gcc/powerpc-gekko/4.2.4/../../../../powerpc-gekko/lib\libc.a(lib_a-strncmp.o)
                              c:/Utils/devkitPro/libogc/lib/wii\libogc.a(es.o) (strncmp)
c:/utils/devkitpro/devkitppc/bin/../lib/gcc/powerpc-gekko/4.2.4/../../../../powerpc-gekko/lib\libc.a(lib_a-strncpy.o)
                              c:/Utils/devkitPro/libogc/lib/wii\libogc.a(usb.o) (strncpy)
c:/utils/devkitpro/devkitppc/bin/../lib/gcc/powerpc-gekko/4.2.4/../../../../powerpc-gekko/lib\libc.a(lib_a-strnlen.o)
                              c:/Utils/devkitPro/libogc/lib/wii\libogc.a(ipc.o) (strnlen)
c:/utils/devkitpro/devkitppc/bin/../lib/gcc/powerpc-gekko/4.2.4/../../../../powerpc-gekko/lib\libc.a(lib_a-strtoul.o)
                              c:/Utils/devkitPro/libogc/lib/wii\libogc.a(es.o) (_strtoul_r)
c:/utils/devkitpro/devkitppc/bin/../lib/gcc/powerpc-gekko/4.2.4/../../../../powerpc-gekko/lib\libc.a(lib_a-strtoull_r.o)
                              c:/Utils/devkitPro/libogc/lib/wii\libogc.a(es.o) (_strtoull_r)
c:/utils/devkitpro/devkitppc/bin/../lib/gcc/powerpc-gekko/4.2.4/../../../../powerpc-gekko/lib\libc.a(lib_a-svfprintf.o)
                              c:/utils/devkitpro/devkitppc/bin/../lib/gcc/powerpc-gekko/4.2.4/../../../../powerpc-gekko/lib\libc.a(lib_a-snprintf.o) (_svfprintf_r)
c:/utils/devkitpro/devkitppc/bin/../lib/gcc/powerpc-gekko/4.2.4/../../../../powerpc-gekko/lib\libc.a(lib_a-syswrite.o)
                              c:/Utils/devkitPro/libogc/lib/wii\libogc.a(kprintf.o) (write)
c:/utils/devkitpro/devkitppc/bin/../lib/gcc/powerpc-gekko/4.2.4/../../../../powerpc-gekko/lib\libc.a(lib_a-vfprintf.o)
                              c:/utils/devkitpro/devkitppc/bin/../lib/gcc/powerpc-gekko/4.2.4/../../../../powerpc-gekko/lib\libc.a(lib_a-fprintf.o) (_vfprintf_r)
c:/utils/devkitpro/devkitppc/bin/../lib/gcc/powerpc-gekko/4.2.4/../../../../powerpc-gekko/lib\libc.a(lib_a-wcrtomb.o)
                              c:/utils/devkitpro/devkitppc/bin/../lib/gcc/powerpc-gekko/4.2.4/../../../../powerpc-gekko/lib\libc.a(lib_a-svfprintf.o) (_wcrtomb_r)
c:/utils/devkitpro/devkitppc/bin/../lib/gcc/powerpc-gekko/4.2.4/../../../../powerpc-gekko/lib\libc.a(lib_a-wcsrtombs.o)
                              c:/utils/devkitpro/devkitppc/bin/../lib/gcc/powerpc-gekko/4.2.4/../../../../powerpc-gekko/lib\libc.a(lib_a-svfprintf.o) (_wcsrtombs_r)
c:/utils/devkitpro/devkitppc/bin/../lib/gcc/powerpc-gekko/4.2.4/../../../../powerpc-gekko/lib\libc.a(lib_a-wctomb_r.o)
                              c:/utils/devkitpro/devkitppc/bin/../lib/gcc/powerpc-gekko/4.2.4/../../../../powerpc-gekko/lib\libc.a(lib_a-wcrtomb.o) (_wctomb_r)
c:/utils/devkitpro/devkitppc/bin/../lib/gcc/powerpc-gekko/4.2.4/../../../../powerpc-gekko/lib\libc.a(lib_a-wsetup.o)
                              c:/utils/devkitpro/devkitppc/bin/../lib/gcc/powerpc-gekko/4.2.4/../../../../powerpc-gekko/lib\libc.a(lib_a-vfprintf.o) (__swsetup_r)
c:/utils/devkitpro/devkitppc/bin/../lib/gcc/powerpc-gekko/4.2.4/../../../../powerpc-gekko/lib\libc.a(lib_a-__call_atexit.o)
                              c:/utils/devkitpro/devkitppc/bin/../lib/gcc/powerpc-gekko/4.2.4/../../../../powerpc-gekko/lib\libc.a(lib_a-exit.o) (__call_exitprocs)
c:/utils/devkitpro/devkitppc/bin/../lib/gcc/powerpc-gekko/4.2.4/../../../../powerpc-gekko/lib\libc.a(lib_a-dtoa.o)
                              c:/utils/devkitpro/devkitppc/bin/../lib/gcc/powerpc-gekko/4.2.4/../../../../powerpc-gekko/lib\libc.a(lib_a-svfprintf.o) (_dtoa_r)
c:/utils/devkitpro/devkitppc/bin/../lib/gcc/powerpc-gekko/4.2.4/../../../../powerpc-gekko/lib\libc.a(lib_a-fflush.o)
                              c:/utils/devkitpro/devkitppc/bin/../lib/gcc/powerpc-gekko/4.2.4/../../../../powerpc-gekko/lib\libc.a(lib_a-setvbuf.o) (_fflush_r)
c:/utils/devkitpro/devkitppc/bin/../lib/gcc/powerpc-gekko/4.2.4/../../../../powerpc-gekko/lib\libc.a(lib_a-findfp.o)
                              c:/utils/devkitpro/devkitppc/bin/../lib/gcc/powerpc-gekko/4.2.4/../../../../powerpc-gekko/lib\libc.a(lib_a-setvbuf.o) (_cleanup_r)
c:/utils/devkitpro/devkitppc/bin/../lib/gcc/powerpc-gekko/4.2.4/../../../../powerpc-gekko/lib\libc.a(lib_a-fvwrite.o)
                              c:/utils/devkitpro/devkitppc/bin/../lib/gcc/powerpc-gekko/4.2.4/../../../../powerpc-gekko/lib\libc.a(lib_a-fwrite.o) (__sfvwrite_r)
c:/utils/devkitpro/devkitppc/bin/../lib/gcc/powerpc-gekko/4.2.4/../../../../powerpc-gekko/lib\libc.a(lib_a-fwalk.o)
                              c:/utils/devkitpro/devkitppc/bin/../lib/gcc/powerpc-gekko/4.2.4/../../../../powerpc-gekko/lib\libc.a(lib_a-fflush.o) (_fwalk_reent)
c:/utils/devkitpro/devkitppc/bin/../lib/gcc/powerpc-gekko/4.2.4/../../../../powerpc-gekko/lib\libc.a(lib_a-locale.o)
                              c:/utils/devkitpro/devkitppc/bin/../lib/gcc/powerpc-gekko/4.2.4/../../../../powerpc-gekko/lib\libc.a(lib_a-svfprintf.o) (_localeconv_r)
c:/utils/devkitpro/devkitppc/bin/../lib/gcc/powerpc-gekko/4.2.4/../../../../powerpc-gekko/lib\libc.a(lib_a-makebuf.o)
                              c:/utils/devkitpro/devkitppc/bin/../lib/gcc/powerpc-gekko/4.2.4/../../../../powerpc-gekko/lib\libc.a(lib_a-wsetup.o) (__smakebuf_r)
c:/utils/devkitpro/devkitppc/bin/../lib/gcc/powerpc-gekko/4.2.4/../../../../powerpc-gekko/lib\libc.a(lib_a-mbtowc_r.o)
                              c:/utils/devkitpro/devkitppc/bin/../lib/gcc/powerpc-gekko/4.2.4/../../../../powerpc-gekko/lib\libc.a(lib_a-svfprintf.o) (_mbtowc_r)
c:/utils/devkitpro/devkitppc/bin/../lib/gcc/powerpc-gekko/4.2.4/../../../../powerpc-gekko/lib\libc.a(lib_a-memchr.o)
                              c:/utils/devkitpro/devkitppc/bin/../lib/gcc/powerpc-gekko/4.2.4/../../../../powerpc-gekko/lib\libc.a(lib_a-svfprintf.o) (memchr)
c:/utils/devkitpro/devkitppc/bin/../lib/gcc/powerpc-gekko/4.2.4/../../../../powerpc-gekko/lib\libc.a(lib_a-mprec.o)
                              c:/utils/devkitpro/devkitppc/bin/../lib/gcc/powerpc-gekko/4.2.4/../../../../powerpc-gekko/lib\libc.a(lib_a-dtoa.o) (_Bfree)
c:/utils/devkitpro/devkitppc/bin/../lib/gcc/powerpc-gekko/4.2.4/../../../../powerpc-gekko/lib\libc.a(lib_a-reallocr.o)
                              c:/utils/devkitpro/devkitppc/bin/../lib/gcc/powerpc-gekko/4.2.4/../../../../powerpc-gekko/lib\libc.a(lib_a-svfprintf.o) (_realloc_r)
c:/utils/devkitpro/devkitppc/bin/../lib/gcc/powerpc-gekko/4.2.4/../../../../powerpc-gekko/lib\libc.a(lib_a-s_isinfd.o)
                              c:/utils/devkitpro/devkitppc/bin/../lib/gcc/powerpc-gekko/4.2.4/../../../../powerpc-gekko/lib\libc.a(lib_a-svfprintf.o) (__isinfd)
c:/utils/devkitpro/devkitppc/bin/../lib/gcc/powerpc-gekko/4.2.4/../../../../powerpc-gekko/lib\libc.a(lib_a-s_isnand.o)
                              c:/utils/devkitpro/devkitppc/bin/../lib/gcc/powerpc-gekko/4.2.4/../../../../powerpc-gekko/lib\libc.a(lib_a-svfprintf.o) (__isnand)
c:/utils/devkitpro/devkitppc/bin/../lib/gcc/powerpc-gekko/4.2.4/../../../../powerpc-gekko/lib\libc.a(lib_a-stdio.o)
                              c:/utils/devkitpro/devkitppc/bin/../lib/gcc/powerpc-gekko/4.2.4/../../../../powerpc-gekko/lib\libc.a(lib_a-findfp.o) (__sclose)
c:/utils/devkitpro/devkitppc/bin/../lib/gcc/powerpc-gekko/4.2.4/../../../../powerpc-gekko/lib\libc.a(lib_a-fclose.o)
                              c:/utils/devkitpro/devkitppc/bin/../lib/gcc/powerpc-gekko/4.2.4/../../../../powerpc-gekko/lib\libc.a(lib_a-findfp.o) (fclose)
c:/utils/devkitpro/devkitppc/bin/../lib/gcc/powerpc-gekko/4.2.4/../../../../powerpc-gekko/lib\libsysbase.a(close.o)
                              c:/utils/devkitpro/devkitppc/bin/../lib/gcc/powerpc-gekko/4.2.4/../../../../powerpc-gekko/lib\libc.a(lib_a-stdio.o) (_close_r)
c:/utils/devkitpro/devkitppc/bin/../lib/gcc/powerpc-gekko/4.2.4/../../../../powerpc-gekko/lib\libsysbase.a(fstat.o)
                              c:/utils/devkitpro/devkitppc/bin/../lib/gcc/powerpc-gekko/4.2.4/../../../../powerpc-gekko/lib\libc.a(lib_a-makebuf.o) (_fstat_r)
c:/utils/devkitpro/devkitppc/bin/../lib/gcc/powerpc-gekko/4.2.4/../../../../powerpc-gekko/lib\libsysbase.a(isatty.o)
                              c:/utils/devkitpro/devkitppc/bin/../lib/gcc/powerpc-gekko/4.2.4/../../../../powerpc-gekko/lib\libc.a(lib_a-makebuf.o) (_isatty_r)
c:/utils/devkitpro/devkitppc/bin/../lib/gcc/powerpc-gekko/4.2.4/../../../../powerpc-gekko/lib\libsysbase.a(lseek.o)
                              c:/utils/devkitpro/devkitppc/bin/../lib/gcc/powerpc-gekko/4.2.4/../../../../powerpc-gekko/lib\libc.a(lib_a-stdio.o) (_lseek_r)
c:/utils/devkitpro/devkitppc/bin/../lib/gcc/powerpc-gekko/4.2.4/../../../../powerpc-gekko/lib\libsysbase.a(read.o)
                              c:/utils/devkitpro/devkitppc/bin/../lib/gcc/powerpc-gekko/4.2.4/../../../../powerpc-gekko/lib\libc.a(lib_a-stdio.o) (_read_r)
c:/utils/devkitpro/devkitppc/bin/../lib/gcc/powerpc-gekko/4.2.4/../../../../powerpc-gekko/lib\libsysbase.a(sbrk.o)
                              c:/utils/devkitpro/devkitppc/bin/../lib/gcc/powerpc-gekko/4.2.4/../../../../powerpc-gekko/lib\libc.a(lib_a-freer.o) (_sbrk_r)
c:/utils/devkitpro/devkitppc/bin/../lib/gcc/powerpc-gekko/4.2.4/../../../../powerpc-gekko/lib\libsysbase.a(write.o)
                              c:/utils/devkitpro/devkitppc/bin/../lib/gcc/powerpc-gekko/4.2.4/../../../../powerpc-gekko/lib\libc.a(lib_a-syswrite.o) (_write_r)
c:/utils/devkitpro/devkitppc/bin/../lib/gcc/powerpc-gekko/4.2.4/../../../../powerpc-gekko/lib\libsysbase.a(flock.o)
                              c:/utils/devkitpro/devkitppc/bin/../lib/gcc/powerpc-gekko/4.2.4/../../../../powerpc-gekko/lib\libc.a(lib_a-fwrite.o) (__funlockfile)
c:/utils/devkitpro/devkitppc/bin/../lib/gcc/powerpc-gekko/4.2.4/../../../../powerpc-gekko/lib\libsysbase.a(handle_manager.o)
                              c:/utils/devkitpro/devkitppc/bin/../lib/gcc/powerpc-gekko/4.2.4/../../../../powerpc-gekko/lib\libsysbase.a(close.o) (__get_handle)
c:/utils/devkitpro/devkitppc/bin/../lib/gcc/powerpc-gekko/4.2.4\libgcc.a(_umoddi3.o)
                              c:/utils/devkitpro/devkitppc/bin/../lib/gcc/powerpc-gekko/4.2.4/../../../../powerpc-gekko/lib\libc.a(lib_a-strtoull_r.o) (__umoddi3)

Allocating common symbols
Common symbol       size              file

_wd_sync_count      0x4               c:/Utils/devkitPro/libogc/lib/wii\libogc.a(lwp_watchdog.o)
_context_switch_want
                    0x4               c:/Utils/devkitPro/libogc/lib/wii\libogc.a(lwp_threads.o)
l2cap_active_pcbs   0x4               c:/Utils/devkitPro/libogc/lib/wii\libbte.a(l2cap.o)
_wd_sync_level      0x4               c:/Utils/devkitPro/libogc/lib/wii\libogc.a(lwp_watchdog.o)
_exceptionhandlertable
                    0x3c              c:/Utils/devkitPro/libogc/lib/wii\libogc.a(exception.o)
_thread_dispatch_disable_level
                    0x4               c:/Utils/devkitPro/libogc/lib/wii\libogc.a(lwp_threads.o)
_lwp_sema_objects   0x28              c:/Utils/devkitPro/libogc/lib/wii\libogc.a(semaphore.o)
_lwp_cond_objects   0x28              c:/Utils/devkitPro/libogc/lib/wii\libogc.a(cond.o)
_prio_bitmap        0x40              c:/Utils/devkitPro/libogc/lib/wii\libogc.a(lwp_priority.o)
_wd_ticks_queue     0xc               c:/Utils/devkitPro/libogc/lib/wii\libogc.a(lwp_watchdog.o)
__outstr            0x100             c:/Utils/devkitPro/libogc/lib/wii\libogc.a(kprintf.o)
_wd_ticks_since_boot
                    0x4               c:/Utils/devkitPro/libogc/lib/wii\libogc.a(lwp_watchdog.o)
_sys_state_curr     0x4               c:/Utils/devkitPro/libogc/lib/wii\libogc.a(sys_state.o)
_lwp_thr_ready      0xc00             c:/Utils/devkitPro/libogc/lib/wii\libogc.a(lwp_threads.o)
libc_globl_reent    0x400             c:/Utils/devkitPro/libogc/lib/wii\libogc.a(newlibc.o)
sigid_nxt           0x1               c:/Utils/devkitPro/libogc/lib/wii\libbte.a(l2cap.o)
_prio_major_bitmap  0x4               c:/Utils/devkitPro/libogc/lib/wii\libogc.a(lwp_priority.o)
__wkspace_heap      0x1c              c:/Utils/devkitPro/libogc/lib/wii\libogc.a(lwp_wkspace.o)
sramcntrl           0x50              c:/Utils/devkitPro/libogc/lib/wii\libogc.a(system.o)
_lwp_mqbox_objects  0x28              c:/Utils/devkitPro/libogc/lib/wii\libogc.a(message.o)
libc_reentrant      0x4               c:/Utils/devkitPro/libogc/lib/wii\libogc.a(newlibc.o)
_lwp_wd_timeslice   0x28              c:/Utils/devkitPro/libogc/lib/wii\libogc.a(lwp_threads.o)
_lwp_thr_objects    0x28              c:/Utils/devkitPro/libogc/lib/wii\libogc.a(lwp.o)
_lwp_mutex_objects  0x28              c:/Utils/devkitPro/libogc/lib/wii\libogc.a(mutex.o)
core_context        0x2d0             c:/Utils/devkitPro/libogc/lib/wii\libogc.a(lwp_threads.o)
_lwp_tqueue_objects
                    0x28              c:/Utils/devkitPro/libogc/lib/wii\libogc.a(lwp.o)

Discarded input sections

 .text          0x00000000        0x0 c:/utils/devkitpro/devkitppc/bin/../lib/gcc/powerpc-gekko/4.2.4/ecrti.o
 .data          0x00000000        0x0 c:/utils/devkitpro/devkitppc/bin/../lib/gcc/powerpc-gekko/4.2.4/ecrti.o
 .bss           0x00000000        0x0 c:/utils/devkitpro/devkitppc/bin/../lib/gcc/powerpc-gekko/4.2.4/ecrti.o
 .got           0x00000000        0x0 c:/utils/devkitpro/devkitppc/bin/../lib/gcc/powerpc-gekko/4.2.4/ecrti.o
 .got1          0x00000000        0x0 c:/utils/devkitpro/devkitppc/bin/../lib/gcc/powerpc-gekko/4.2.4/ecrti.o
 .got2          0x00000000        0x0 c:/utils/devkitpro/devkitppc/bin/../lib/gcc/powerpc-gekko/4.2.4/ecrti.o
 .fixup         0x00000000        0x0 c:/utils/devkitpro/devkitppc/bin/../lib/gcc/powerpc-gekko/4.2.4/ecrti.o
 .sbss          0x00000000        0x0 c:/utils/devkitpro/devkitppc/bin/../lib/gcc/powerpc-gekko/4.2.4/ecrti.o
 .sbss2         0x00000000        0x0 c:/utils/devkitpro/devkitppc/bin/../lib/gcc/powerpc-gekko/4.2.4/ecrti.o
 .gcc_except_table
                0x00000000        0x0 c:/utils/devkitpro/devkitppc/bin/../lib/gcc/powerpc-gekko/4.2.4/ecrti.o
 .data          0x00000000        0x0 c:/utils/devkitpro/devkitppc/bin/../lib/gcc/powerpc-gekko/4.2.4/../../../../powerpc-gekko/lib/crtmain.o
 .bss           0x00000000        0x0 c:/utils/devkitpro/devkitppc/bin/../lib/gcc/powerpc-gekko/4.2.4/../../../../powerpc-gekko/lib/crtmain.o
 .text          0x00000000        0x0 crate.tpl.o
 .data          0x00000000        0x0 crate.tpl.o
 .bss           0x00000000        0x0 crate.tpl.o
 .rodata        0x00000000        0x0 crate.tpl.o
 .text          0x00000000        0x0 c:/Utils/devkitPro/libogc/lib/wii\libwiiuse.a(wpad.o)
 .data          0x00000000        0x0 c:/Utils/devkitPro/libogc/lib/wii\libwiiuse.a(wpad.o)
 .bss           0x00000000        0x0 c:/Utils/devkitPro/libogc/lib/wii\libwiiuse.a(wpad.o)
 .text.WPAD_DroppedEvents
                0x00000000        0x0 c:/Utils/devkitPro/libogc/lib/wii\libwiiuse.a(wpad.o)
 .text.WPAD_GetStatus
                0x00000000        0x0 c:/Utils/devkitPro/libogc/lib/wii\libwiiuse.a(wpad.o)
 .text.WPAD_Probe
                0x00000000        0x0 c:/Utils/devkitPro/libogc/lib/wii\libwiiuse.a(wpad.o)
 .text.WPAD_SetEventBufs
                0x00000000        0x0 c:/Utils/devkitPro/libogc/lib/wii\libwiiuse.a(wpad.o)
 .text.WPAD_SetPowerButtonCallback
                0x00000000        0x0 c:/Utils/devkitPro/libogc/lib/wii\libwiiuse.a(wpad.o)
 .text.WPAD_SetBatteryDeadCallback
                0x00000000        0x0 c:/Utils/devkitPro/libogc/lib/wii\libwiiuse.a(wpad.o)
 .text.WPAD_SetIdleTimeout
                0x00000000        0x0 c:/Utils/devkitPro/libogc/lib/wii\libwiiuse.a(wpad.o)
 .text.WPAD_SetIdleThresholds
                0x00000000        0x0 c:/Utils/devkitPro/libogc/lib/wii\libwiiuse.a(wpad.o)
 .text.WPAD_Data
                0x00000000        0x0 c:/Utils/devkitPro/libogc/lib/wii\libwiiuse.a(wpad.o)
 .text.WPAD_ButtonsUp
                0x00000000        0x0 c:/Utils/devkitPro/libogc/lib/wii\libwiiuse.a(wpad.o)
 .text.WPAD_ButtonsHeld
                0x00000000        0x0 c:/Utils/devkitPro/libogc/lib/wii\libwiiuse.a(wpad.o)
 .text.WPAD_IR  0x00000000        0x0 c:/Utils/devkitPro/libogc/lib/wii\libwiiuse.a(wpad.o)
 .text.WPAD_Orientation
                0x00000000        0x0 c:/Utils/devkitPro/libogc/lib/wii\libwiiuse.a(wpad.o)
 .text.WPAD_GForce
                0x00000000        0x0 c:/Utils/devkitPro/libogc/lib/wii\libwiiuse.a(wpad.o)
 .text.WPAD_Accel
                0x00000000        0x0 c:/Utils/devkitPro/libogc/lib/wii\libwiiuse.a(wpad.o)
 .text.WPAD_Expansion
                0x00000000        0x0 c:/Utils/devkitPro/libogc/lib/wii\libwiiuse.a(wpad.o)
 .text.WPAD_Rumble
                0x00000000        0x0 c:/Utils/devkitPro/libogc/lib/wii\libwiiuse.a(wpad.o)
 .text.WPAD_Disconnect
                0x00000000        0x0 c:/Utils/devkitPro/libogc/lib/wii\libwiiuse.a(wpad.o)
 .text.WPAD_SetVRes
                0x00000000        0x0 c:/Utils/devkitPro/libogc/lib/wii\libwiiuse.a(wpad.o)
 .text.WPAD_SetDataFormat
                0x00000000        0x0 c:/Utils/devkitPro/libogc/lib/wii\libwiiuse.a(wpad.o)
 .text.WPAD_Flush
                0x00000000        0x0 c:/Utils/devkitPro/libogc/lib/wii\libwiiuse.a(wpad.o)
 .text          0x00000000        0x0 c:/Utils/devkitPro/libogc/lib/wii\libwiiuse.a(dynamics.o)
 .data          0x00000000        0x0 c:/Utils/devkitPro/libogc/lib/wii\libwiiuse.a(dynamics.o)
 .bss           0x00000000        0x0 c:/Utils/devkitPro/libogc/lib/wii\libwiiuse.a(dynamics.o)
 .text          0x00000000        0x0 c:/Utils/devkitPro/libogc/lib/wii\libwiiuse.a(io_wii.o)
 .data          0x00000000        0x0 c:/Utils/devkitPro/libogc/lib/wii\libwiiuse.a(io_wii.o)
 .bss           0x00000000        0x0 c:/Utils/devkitPro/libogc/lib/wii\libwiiuse.a(io_wii.o)
 .text.wiiuse_sensorbar_enable
                0x00000000        0x0 c:/Utils/devkitPro/libogc/lib/wii\libwiiuse.a(io_wii.o)
 .text          0x00000000        0x0 c:/Utils/devkitPro/libogc/lib/wii\libwiiuse.a(ir.o)
 .data          0x00000000        0x0 c:/Utils/devkitPro/libogc/lib/wii\libwiiuse.a(ir.o)
 .bss           0x00000000        0x0 c:/Utils/devkitPro/libogc/lib/wii\libwiiuse.a(ir.o)
 .text.wiiuse_set_ir_vres
                0x00000000        0x0 c:/Utils/devkitPro/libogc/lib/wii\libwiiuse.a(ir.o)
 .text          0x00000000        0x0 c:/Utils/devkitPro/libogc/lib/wii\libwiiuse.a(wiiuse.o)
 .data          0x00000000        0x0 c:/Utils/devkitPro/libogc/lib/wii\libwiiuse.a(wiiuse.o)
 .bss           0x00000000        0x0 c:/Utils/devkitPro/libogc/lib/wii\libwiiuse.a(wiiuse.o)
 .text.wiiuse_toggle_rumble
                0x00000000        0x0 c:/Utils/devkitPro/libogc/lib/wii\libwiiuse.a(wiiuse.o)
 .text.wiiuse_rumble
                0x00000000        0x0 c:/Utils/devkitPro/libogc/lib/wii\libwiiuse.a(wiiuse.o)
 .text.wiiuse_write_streamdata
                0x00000000        0x0 c:/Utils/devkitPro/libogc/lib/wii\libwiiuse.a(wiiuse.o)
 .text          0x00000000        0x0 c:/Utils/devkitPro/libogc/lib/wii\libwiiuse.a(events.o)
 .data          0x00000000        0x0 c:/Utils/devkitPro/libogc/lib/wii\libwiiuse.a(events.o)
 .bss           0x00000000        0x0 c:/Utils/devkitPro/libogc/lib/wii\libwiiuse.a(events.o)
 .text.idle_cycle
                0x00000000        0x0 c:/Utils/devkitPro/libogc/lib/wii\libwiiuse.a(events.o)
 .text          0x00000000        0x0 c:/Utils/devkitPro/libogc/lib/wii\libwiiuse.a(guitar_hero_3.o)
 .data          0x00000000        0x0 c:/Utils/devkitPro/libogc/lib/wii\libwiiuse.a(guitar_hero_3.o)
 .bss           0x00000000        0x0 c:/Utils/devkitPro/libogc/lib/wii\libwiiuse.a(guitar_hero_3.o)
 .text          0x00000000        0x0 c:/Utils/devkitPro/libogc/lib/wii\libwiiuse.a(io.o)
 .data          0x00000000        0x0 c:/Utils/devkitPro/libogc/lib/wii\libwiiuse.a(io.o)
 .bss           0x00000000        0x0 c:/Utils/devkitPro/libogc/lib/wii\libwiiuse.a(io.o)
 .text          0x00000000        0x0 c:/Utils/devkitPro/libogc/lib/wii\libwiiuse.a(nunchuk.o)
 .data          0x00000000        0x0 c:/Utils/devkitPro/libogc/lib/wii\libwiiuse.a(nunchuk.o)
 .bss           0x00000000        0x0 c:/Utils/devkitPro/libogc/lib/wii\libwiiuse.a(nunchuk.o)
 .text          0x00000000        0x0 c:/Utils/devkitPro/libogc/lib/wii\libwiiuse.a(wiiboard.o)
 .data          0x00000000        0x0 c:/Utils/devkitPro/libogc/lib/wii\libwiiuse.a(wiiboard.o)
 .bss           0x00000000        0x0 c:/Utils/devkitPro/libogc/lib/wii\libwiiuse.a(wiiboard.o)
 .text          0x00000000        0x0 c:/Utils/devkitPro/libogc/lib/wii\libwiiuse.a(classic.o)
 .data          0x00000000        0x0 c:/Utils/devkitPro/libogc/lib/wii\libwiiuse.a(classic.o)
 .bss           0x00000000        0x0 c:/Utils/devkitPro/libogc/lib/wii\libwiiuse.a(classic.o)
 .text          0x00000000        0x0 c:/Utils/devkitPro/libogc/lib/wii\libbte.a(bte.o)
 .data          0x00000000        0x0 c:/Utils/devkitPro/libogc/lib/wii\libbte.a(bte.o)
 .bss           0x00000000        0x0 c:/Utils/devkitPro/libogc/lib/wii\libbte.a(bte.o)
 .text.pin_req  0x00000000        0x0 c:/Utils/devkitPro/libogc/lib/wii\libbte.a(bte.o)
 .text.link_key_not
                0x00000000        0x0 c:/Utils/devkitPro/libogc/lib/wii\libbte.a(bte.o)
 .text.bte_sendmessage
                0x00000000        0x0 c:/Utils/devkitPro/libogc/lib/wii\libbte.a(bte.o)
 .text.bte_inquiry_ex
                0x00000000        0x0 c:/Utils/devkitPro/libogc/lib/wii\libbte.a(bte.o)
 .text.bte_inquiry
                0x00000000        0x0 c:/Utils/devkitPro/libogc/lib/wii\libbte.a(bte.o)
 .text.bte_inquiry_complete
                0x00000000        0x0 c:/Utils/devkitPro/libogc/lib/wii\libbte.a(bte.o)
 .text          0x00000000        0x0 c:/Utils/devkitPro/libogc/lib/wii\libbte.a(hci.o)
 .data          0x00000000        0x0 c:/Utils/devkitPro/libogc/lib/wii\libbte.a(hci.o)
 .bss           0x00000000        0x0 c:/Utils/devkitPro/libogc/lib/wii\libbte.a(hci.o)
 .text.hci_pin_req
                0x00000000        0x0 c:/Utils/devkitPro/libogc/lib/wii\libbte.a(hci.o)
 .text.hci_link_key_not
                0x00000000        0x0 c:/Utils/devkitPro/libogc/lib/wii\libbte.a(hci.o)
 .text.hci_conn_req
                0x00000000        0x0 c:/Utils/devkitPro/libogc/lib/wii\libbte.a(hci.o)
 .text.lp_is_connected
                0x00000000        0x0 c:/Utils/devkitPro/libogc/lib/wii\libbte.a(hci.o)
 .text.hci_reg_dev_info
                0x00000000        0x0 c:/Utils/devkitPro/libogc/lib/wii\libbte.a(hci.o)
 .text.hci_set_hc_to_h_fc
                0x00000000        0x0 c:/Utils/devkitPro/libogc/lib/wii\libbte.a(hci.o)
 .text.hci_read_current_lap
                0x00000000        0x0 c:/Utils/devkitPro/libogc/lib/wii\libbte.a(hci.o)
 .text.hci_write_stored_link_key
                0x00000000        0x0 c:/Utils/devkitPro/libogc/lib/wii\libbte.a(hci.o)
 .text.hci_reject_connection_request
                0x00000000        0x0 c:/Utils/devkitPro/libogc/lib/wii\libbte.a(hci.o)
 .text.hci_set_event_mask
                0x00000000        0x0 c:/Utils/devkitPro/libogc/lib/wii\libbte.a(hci.o)
 .text.hci_exit_periodic_inquiry
                0x00000000        0x0 c:/Utils/devkitPro/libogc/lib/wii\libbte.a(hci.o)
 .text.hci_set_event_filter
                0x00000000        0x0 c:/Utils/devkitPro/libogc/lib/wii\libbte.a(hci.o)
 .text.hci_pin_code_request_reply
                0x00000000        0x0 c:/Utils/devkitPro/libogc/lib/wii\libbte.a(hci.o)
 .text.hci_inquiry
                0x00000000        0x0 c:/Utils/devkitPro/libogc/lib/wii\libbte.a(hci.o)
 .text.lp_connect_req
                0x00000000        0x0 c:/Utils/devkitPro/libogc/lib/wii\libbte.a(hci.o)
 .text.hci_sniff_mode
                0x00000000        0x0 c:/Utils/devkitPro/libogc/lib/wii\libbte.a(hci.o)
 .text.hci_read_remote_name
                0x00000000        0x0 c:/Utils/devkitPro/libogc/lib/wii\libbte.a(hci.o)
 .text.hci_periodic_inquiry
                0x00000000        0x0 c:/Utils/devkitPro/libogc/lib/wii\libbte.a(hci.o)
 .sbss.hci_tmp_key
                0x00000000        0x0 c:/Utils/devkitPro/libogc/lib/wii\libbte.a(hci.o)
 .text          0x00000000        0x0 c:/Utils/devkitPro/libogc/lib/wii\libbte.a(l2cap.o)
 .data          0x00000000        0x0 c:/Utils/devkitPro/libogc/lib/wii\libbte.a(l2cap.o)
 .bss           0x00000000        0x0 c:/Utils/devkitPro/libogc/lib/wii\libbte.a(l2cap.o)
 .text.l2cap_timeout_ind
                0x00000000        0x0 c:/Utils/devkitPro/libogc/lib/wii\libbte.a(l2cap.o)
 .text.l2ca_ping
                0x00000000        0x0 c:/Utils/devkitPro/libogc/lib/wii\libbte.a(l2cap.o)
 .text.l2ca_connect_req
                0x00000000        0x0 c:/Utils/devkitPro/libogc/lib/wii\libbte.a(l2cap.o)
 .text          0x00000000        0x0 c:/Utils/devkitPro/libogc/lib/wii\libbte.a(btmemb.o)
 .data          0x00000000        0x0 c:/Utils/devkitPro/libogc/lib/wii\libbte.a(btmemb.o)
 .bss           0x00000000        0x0 c:/Utils/devkitPro/libogc/lib/wii\libbte.a(btmemb.o)
 .text.btmemb_ref
                0x00000000        0x0 c:/Utils/devkitPro/libogc/lib/wii\libbte.a(btmemb.o)
 .text          0x00000000        0x0 c:/Utils/devkitPro/libogc/lib/wii\libbte.a(btmemr.o)
 .data          0x00000000        0x0 c:/Utils/devkitPro/libogc/lib/wii\libbte.a(btmemr.o)
 .bss           0x00000000        0x0 c:/Utils/devkitPro/libogc/lib/wii\libbte.a(btmemr.o)
 .text.btmemr_reallocm
                0x00000000        0x0 c:/Utils/devkitPro/libogc/lib/wii\libbte.a(btmemr.o)
 .text          0x00000000        0x0 c:/Utils/devkitPro/libogc/lib/wii\libbte.a(btpbuf.o)
 .data          0x00000000        0x0 c:/Utils/devkitPro/libogc/lib/wii\libbte.a(btpbuf.o)
 .bss           0x00000000        0x0 c:/Utils/devkitPro/libogc/lib/wii\libbte.a(btpbuf.o)
 .text.btpbuf_clen
                0x00000000        0x0 c:/Utils/devkitPro/libogc/lib/wii\libbte.a(btpbuf.o)
 .text.btpbuf_queue
                0x00000000        0x0 c:/Utils/devkitPro/libogc/lib/wii\libbte.a(btpbuf.o)
 .text.btpbuf_dequeue
                0x00000000        0x0 c:/Utils/devkitPro/libogc/lib/wii\libbte.a(btpbuf.o)
 .text          0x00000000        0x0 c:/Utils/devkitPro/libogc/lib/wii\libbte.a(physbusif.o)
 .data          0x00000000        0x0 c:/Utils/devkitPro/libogc/lib/wii\libbte.a(physbusif.o)
 .bss           0x00000000        0x0 c:/Utils/devkitPro/libogc/lib/wii\libbte.a(physbusif.o)
 .text.__ntd_set_ohci
                0x00000000        0x0 c:/Utils/devkitPro/libogc/lib/wii\libbte.a(physbusif.o)
 .text.__ntd_set_pid_vid
                0x00000000        0x0 c:/Utils/devkitPro/libogc/lib/wii\libbte.a(physbusif.o)
 .text          0x00000000        0x0 c:/Utils/devkitPro/libogc/lib/wii\libogc.a(console.o)
 .data          0x00000000        0x0 c:/Utils/devkitPro/libogc/lib/wii\libogc.a(console.o)
 .bss           0x00000000        0x0 c:/Utils/devkitPro/libogc/lib/wii\libogc.a(console.o)
 .text.CON_GetMetrics
                0x00000000        0x0 c:/Utils/devkitPro/libogc/lib/wii\libogc.a(console.o)
 .text.CON_GetPosition
                0x00000000        0x0 c:/Utils/devkitPro/libogc/lib/wii\libogc.a(console.o)
 .text.CON_EnableGecko
                0x00000000        0x0 c:/Utils/devkitPro/libogc/lib/wii\libogc.a(console.o)
 .text.__console_init_ex
                0x00000000        0x0 c:/Utils/devkitPro/libogc/lib/wii\libogc.a(console.o)
 .text.CON_InitEx
                0x00000000        0x0 c:/Utils/devkitPro/libogc/lib/wii\libogc.a(console.o)
 .text.__console_vipostcb
                0x00000000        0x0 c:/Utils/devkitPro/libogc/lib/wii\libogc.a(console.o)
 .sbss._console_buffer
                0x00000000        0x0 c:/Utils/devkitPro/libogc/lib/wii\libogc.a(console.o)
 .text          0x00000000        0x0 c:/Utils/devkitPro/libogc/lib/wii\libogc.a(lwp_queue.o)
 .data          0x00000000        0x0 c:/Utils/devkitPro/libogc/lib/wii\libogc.a(lwp_queue.o)
 .bss           0x00000000        0x0 c:/Utils/devkitPro/libogc/lib/wii\libogc.a(lwp_queue.o)
 .text.__lwp_queue_extract
                0x00000000        0x0 c:/Utils/devkitPro/libogc/lib/wii\libogc.a(lwp_queue.o)
 .text.__lwp_queue_insert
                0x00000000        0x0 c:/Utils/devkitPro/libogc/lib/wii\libogc.a(lwp_queue.o)
 .text          0x00000000        0x0 c:/Utils/devkitPro/libogc/lib/wii\libogc.a(lwp_threads.o)
 .data          0x00000000        0x0 c:/Utils/devkitPro/libogc/lib/wii\libogc.a(lwp_threads.o)
 .bss           0x00000000        0x0 c:/Utils/devkitPro/libogc/lib/wii\libogc.a(lwp_threads.o)
 .text.__lwp_thread_yield
                0x00000000        0x0 c:/Utils/devkitPro/libogc/lib/wii\libogc.a(lwp_threads.o)
 .text.__lwp_rotate_readyqueue
                0x00000000        0x0 c:/Utils/devkitPro/libogc/lib/wii\libogc.a(lwp_threads.o)
 .text.__lwp_thread_delayended
                0x00000000        0x0 c:/Utils/devkitPro/libogc/lib/wii\libogc.a(lwp_threads.o)
 .text.__lwp_evaluatemode
                0x00000000        0x0 c:/Utils/devkitPro/libogc/lib/wii\libogc.a(lwp_threads.o)
 .text.__lwp_thread_resume
                0x00000000        0x0 c:/Utils/devkitPro/libogc/lib/wii\libogc.a(lwp_threads.o)
 .text.__lwp_thread_suspend
                0x00000000        0x0 c:/Utils/devkitPro/libogc/lib/wii\libogc.a(lwp_threads.o)
 .text          0x00000000        0x0 c:/Utils/devkitPro/libogc/lib/wii\libogc.a(lwp.o)
 .data          0x00000000        0x0 c:/Utils/devkitPro/libogc/lib/wii\libogc.a(lwp.o)
 .bss           0x00000000        0x0 c:/Utils/devkitPro/libogc/lib/wii\libogc.a(lwp.o)
 .text.__lwp_thread_currentid
                0x00000000        0x0 c:/Utils/devkitPro/libogc/lib/wii\libogc.a(lwp.o)
 .text.LWP_GetSelf
                0x00000000        0x0 c:/Utils/devkitPro/libogc/lib/wii\libogc.a(lwp.o)
 .text.__lwp_thread_context
                0x00000000        0x0 c:/Utils/devkitPro/libogc/lib/wii\libogc.a(lwp.o)
 .text.__lwp_thread_exists
                0x00000000        0x0 c:/Utils/devkitPro/libogc/lib/wii\libogc.a(lwp.o)
 .text.__lwp_thread_isalive
                0x00000000        0x0 c:/Utils/devkitPro/libogc/lib/wii\libogc.a(lwp.o)
 .text.LWP_JoinThread
                0x00000000        0x0 c:/Utils/devkitPro/libogc/lib/wii\libogc.a(lwp.o)
 .text.LWP_ThreadIsSuspended
                0x00000000        0x0 c:/Utils/devkitPro/libogc/lib/wii\libogc.a(lwp.o)
 .text.LWP_Reschedule
                0x00000000        0x0 c:/Utils/devkitPro/libogc/lib/wii\libogc.a(lwp.o)
 .text.LWP_YieldThread
                0x00000000        0x0 c:/Utils/devkitPro/libogc/lib/wii\libogc.a(lwp.o)
 .text.LWP_SetThreadPriority
                0x00000000        0x0 c:/Utils/devkitPro/libogc/lib/wii\libogc.a(lwp.o)
 .text.LWP_ResumeThread
                0x00000000        0x0 c:/Utils/devkitPro/libogc/lib/wii\libogc.a(lwp.o)
 .text.LWP_SuspendThread
                0x00000000        0x0 c:/Utils/devkitPro/libogc/lib/wii\libogc.a(lwp.o)
 .text.LWP_CreateThread
                0x00000000        0x0 c:/Utils/devkitPro/libogc/lib/wii\libogc.a(lwp.o)
 .data          0x00000000        0x0 c:/Utils/devkitPro/libogc/lib/wii\libogc.a(lwp_handler.o)
 .bss           0x00000000        0x0 c:/Utils/devkitPro/libogc/lib/wii\libogc.a(lwp_handler.o)
 .text          0x00000000        0x0 c:/Utils/devkitPro/libogc/lib/wii\libogc.a(lwp_stack.o)
 .data          0x00000000        0x0 c:/Utils/devkitPro/libogc/lib/wii\libogc.a(lwp_stack.o)
 .bss           0x00000000        0x0 c:/Utils/devkitPro/libogc/lib/wii\libogc.a(lwp_stack.o)
 .text          0x00000000        0x0 c:/Utils/devkitPro/libogc/lib/wii\libogc.a(lwp_watchdog.o)
 .data          0x00000000        0x0 c:/Utils/devkitPro/libogc/lib/wii\libogc.a(lwp_watchdog.o)
 .bss           0x00000000        0x0 c:/Utils/devkitPro/libogc/lib/wii\libogc.a(lwp_watchdog.o)
 .text.__lwp_wd_adjust
                0x00000000        0x0 c:/Utils/devkitPro/libogc/lib/wii\libogc.a(lwp_watchdog.o)
 .text          0x00000000        0x0 c:/Utils/devkitPro/libogc/lib/wii\libogc.a(lwp_wkspace.o)
 .data          0x00000000        0x0 c:/Utils/devkitPro/libogc/lib/wii\libogc.a(lwp_wkspace.o)
 .bss           0x00000000        0x0 c:/Utils/devkitPro/libogc/lib/wii\libogc.a(lwp_wkspace.o)
 .text.__lwp_wkspace_heapsize
                0x00000000        0x0 c:/Utils/devkitPro/libogc/lib/wii\libogc.a(lwp_wkspace.o)
 .text.__lwp_wkspace_heapused
                0x00000000        0x0 c:/Utils/devkitPro/libogc/lib/wii\libogc.a(lwp_wkspace.o)
 .text.__lwp_wkspace_heapfree
                0x00000000        0x0 c:/Utils/devkitPro/libogc/lib/wii\libogc.a(lwp_wkspace.o)
 .bss.__wkspace_iblock
                0x00000000        0x0 c:/Utils/devkitPro/libogc/lib/wii\libogc.a(lwp_wkspace.o)
 .text          0x00000000        0x0 c:/Utils/devkitPro/libogc/lib/wii\libogc.a(lwp_objmgr.o)
 .data          0x00000000        0x0 c:/Utils/devkitPro/libogc/lib/wii\libogc.a(lwp_objmgr.o)
 .bss           0x00000000        0x0 c:/Utils/devkitPro/libogc/lib/wii\libogc.a(lwp_objmgr.o)
 .text.__lwp_objmgr_memsize
                0x00000000        0x0 c:/Utils/devkitPro/libogc/lib/wii\libogc.a(lwp_objmgr.o)
 .text          0x00000000        0x0 c:/Utils/devkitPro/libogc/lib/wii\libogc.a(lwp_heap.o)
 .data          0x00000000        0x0 c:/Utils/devkitPro/libogc/lib/wii\libogc.a(lwp_heap.o)
 .bss           0x00000000        0x0 c:/Utils/devkitPro/libogc/lib/wii\libogc.a(lwp_heap.o)
 .text.__lwp_heap_getinfo
                0x00000000        0x0 c:/Utils/devkitPro/libogc/lib/wii\libogc.a(lwp_heap.o)
 .text          0x00000000        0x0 c:/Utils/devkitPro/libogc/lib/wii\libogc.a(sys_state.o)
 .data          0x00000000        0x0 c:/Utils/devkitPro/libogc/lib/wii\libogc.a(sys_state.o)
 .bss           0x00000000        0x0 c:/Utils/devkitPro/libogc/lib/wii\libogc.a(sys_state.o)
 .text          0x00000000        0x0 c:/Utils/devkitPro/libogc/lib/wii\libogc.a(irq.o)
 .data          0x00000000        0x0 c:/Utils/devkitPro/libogc/lib/wii\libogc.a(irq.o)
 .bss           0x00000000        0x0 c:/Utils/devkitPro/libogc/lib/wii\libogc.a(irq.o)
 .text.IRQ_Free
                0x00000000        0x0 c:/Utils/devkitPro/libogc/lib/wii\libogc.a(irq.o)
 .text          0x00000000        0x0 c:/Utils/devkitPro/libogc/lib/wii\libogc.a(video.o)
 .data          0x00000000        0x0 c:/Utils/devkitPro/libogc/lib/wii\libogc.a(video.o)
 .bss           0x00000000        0x0 c:/Utils/devkitPro/libogc/lib/wii\libogc.a(video.o)
 .text.VIDEO_GetNextFramebuffer
                0x00000000        0x0 c:/Utils/devkitPro/libogc/lib/wii\libogc.a(video.o)
 .text.VIDEO_GetCurrentFramebuffer
                0x00000000        0x0 c:/Utils/devkitPro/libogc/lib/wii\libogc.a(video.o)
 .text.VIDEO_SetPreRetraceCallback
                0x00000000        0x0 c:/Utils/devkitPro/libogc/lib/wii\libogc.a(video.o)
 .text.VIDEO_SetPostRetraceCallback
                0x00000000        0x0 c:/Utils/devkitPro/libogc/lib/wii\libogc.a(video.o)
 .text.VIDEO_ClearFrameBuffer
                0x00000000        0x0 c:/Utils/devkitPro/libogc/lib/wii\libogc.a(video.o)
 .text.VIDEO_GetNextField
                0x00000000        0x0 c:/Utils/devkitPro/libogc/lib/wii\libogc.a(video.o)
 .text.VIDEO_SetNextRightFramebuffer
                0x00000000        0x0 c:/Utils/devkitPro/libogc/lib/wii\libogc.a(video.o)
 .data.TVPal264IntAa
                0x00000000        0x0 c:/Utils/devkitPro/libogc/lib/wii\libogc.a(video.o)
 .data.TVPal264DsAa
                0x00000000        0x0 c:/Utils/devkitPro/libogc/lib/wii\libogc.a(video.o)
 .data.TVNtsc480Int
                0x00000000        0x0 c:/Utils/devkitPro/libogc/lib/wii\libogc.a(video.o)
 .data.TVNtsc240IntAa
                0x00000000        0x0 c:/Utils/devkitPro/libogc/lib/wii\libogc.a(video.o)
 .data.TVNtsc480IntAa
                0x00000000        0x0 c:/Utils/devkitPro/libogc/lib/wii\libogc.a(video.o)
 .data.TVEurgb60Hz480ProgSoft
                0x00000000        0x0 c:/Utils/devkitPro/libogc/lib/wii\libogc.a(video.o)
 .data.TVEurgb60Hz480IntDf
                0x00000000        0x0 c:/Utils/devkitPro/libogc/lib/wii\libogc.a(video.o)
 .data.TVNtsc480ProgSoft
                0x00000000        0x0 c:/Utils/devkitPro/libogc/lib/wii\libogc.a(video.o)
 .data.TVEurgb60Hz240Int
                0x00000000        0x0 c:/Utils/devkitPro/libogc/lib/wii\libogc.a(video.o)
 .data.TVPal528Int
                0x00000000        0x0 c:/Utils/devkitPro/libogc/lib/wii\libogc.a(video.o)
 .data.TVNtsc480ProgAa
                0x00000000        0x0 c:/Utils/devkitPro/libogc/lib/wii\libogc.a(video.o)
 .data.TVPal264Ds
                0x00000000        0x0 c:/Utils/devkitPro/libogc/lib/wii\libogc.a(video.o)
 .data.TVNtsc240Int
                0x00000000        0x0 c:/Utils/devkitPro/libogc/lib/wii\libogc.a(video.o)
 .data.TVNtsc240Ds
                0x00000000        0x0 c:/Utils/devkitPro/libogc/lib/wii\libogc.a(video.o)
 .data.TVEurgb60Hz240IntAa
                0x00000000        0x0 c:/Utils/devkitPro/libogc/lib/wii\libogc.a(video.o)
 .data.TVPal264Int
                0x00000000        0x0 c:/Utils/devkitPro/libogc/lib/wii\libogc.a(video.o)
 .data.TVEurgb60Hz240Ds
                0x00000000        0x0 c:/Utils/devkitPro/libogc/lib/wii\libogc.a(video.o)
 .data.TVEurgb60Hz480Prog
                0x00000000        0x0 c:/Utils/devkitPro/libogc/lib/wii\libogc.a(video.o)
 .data.TVPal524IntAa
                0x00000000        0x0 c:/Utils/devkitPro/libogc/lib/wii\libogc.a(video.o)
 .data.TVNtsc240DsAa
                0x00000000        0x0 c:/Utils/devkitPro/libogc/lib/wii\libogc.a(video.o)
 .data.TVEurgb60Hz480ProgAa
                0x00000000        0x0 c:/Utils/devkitPro/libogc/lib/wii\libogc.a(video.o)
 .data.TVEurgb60Hz480IntAa
                0x00000000        0x0 c:/Utils/devkitPro/libogc/lib/wii\libogc.a(video.o)
 .data.TVEurgb60Hz240DsAa
                0x00000000        0x0 c:/Utils/devkitPro/libogc/lib/wii\libogc.a(video.o)
 .data.TVPal574IntDfScale
                0x00000000        0x0 c:/Utils/devkitPro/libogc/lib/wii\libogc.a(video.o)
 .text          0x00000000        0x0 c:/Utils/devkitPro/libogc/lib/wii\libogc.a(system.o)
 .data          0x00000000        0x0 c:/Utils/devkitPro/libogc/lib/wii\libogc.a(system.o)
 .bss           0x00000000        0x0 c:/Utils/devkitPro/libogc/lib/wii\libogc.a(system.o)
 .text.__SYS_LockSram
                0x00000000        0x0 c:/Utils/devkitPro/libogc/lib/wii\libogc.a(system.o)
 .text.__SYS_SyncSram
                0x00000000        0x0 c:/Utils/devkitPro/libogc/lib/wii\libogc.a(system.o)
 .text.__sdloader_boot
                0x00000000        0x0 c:/Utils/devkitPro/libogc/lib/wii\libogc.a(system.o)
 .text.SYS_GetArena1Size
                0x00000000        0x0 c:/Utils/devkitPro/libogc/lib/wii\libogc.a(system.o)
 .text.SYS_AllocArena1MemLo
                0x00000000        0x0 c:/Utils/devkitPro/libogc/lib/wii\libogc.a(system.o)
 .text.SYS_GetArena2Size
                0x00000000        0x0 c:/Utils/devkitPro/libogc/lib/wii\libogc.a(system.o)
 .text.SYS_AllocArena2MemLo
                0x00000000        0x0 c:/Utils/devkitPro/libogc/lib/wii\libogc.a(system.o)
 .text.SYS_GetFontTexture
                0x00000000        0x0 c:/Utils/devkitPro/libogc/lib/wii\libogc.a(system.o)
 .text.SYS_GetFontTexel
                0x00000000        0x0 c:/Utils/devkitPro/libogc/lib/wii\libogc.a(system.o)
 .text.SYS_SetResetCallback
                0x00000000        0x0 c:/Utils/devkitPro/libogc/lib/wii\libogc.a(system.o)
 .text.SYS_SetPowerCallback
                0x00000000        0x0 c:/Utils/devkitPro/libogc/lib/wii\libogc.a(system.o)
 .text.SYS_StartPMC
                0x00000000        0x0 c:/Utils/devkitPro/libogc/lib/wii\libogc.a(system.o)
 .text.SYS_StopPMC
                0x00000000        0x0 c:/Utils/devkitPro/libogc/lib/wii\libogc.a(system.o)
 .text.SYS_ResetPMC
                0x00000000        0x0 c:/Utils/devkitPro/libogc/lib/wii\libogc.a(system.o)
 .text.SYS_DumpPMC
                0x00000000        0x0 c:/Utils/devkitPro/libogc/lib/wii\libogc.a(system.o)
 .text.__SYS_GetSystemTime
                0x00000000        0x0 c:/Utils/devkitPro/libogc/lib/wii\libogc.a(system.o)
 .text.SYS_GetFontEncoding
                0x00000000        0x0 c:/Utils/devkitPro/libogc/lib/wii\libogc.a(system.o)
 .text.SYS_ProtectRange
                0x00000000        0x0 c:/Utils/devkitPro/libogc/lib/wii\libogc.a(system.o)
 .text.__SYS_SetTime
                0x00000000        0x0 c:/Utils/devkitPro/libogc/lib/wii\libogc.a(system.o)
 .text.__getrtc
                0x00000000        0x0 c:/Utils/devkitPro/libogc/lib/wii\libogc.a(system.o)
 .text.__SYS_GetRTC
                0x00000000        0x0 c:/Utils/devkitPro/libogc/lib/wii\libogc.a(system.o)
 .text.__SYS_ReadROM
                0x00000000        0x0 c:/Utils/devkitPro/libogc/lib/wii\libogc.a(system.o)
 .text.__SYS_LoadFont
                0x00000000        0x0 c:/Utils/devkitPro/libogc/lib/wii\libogc.a(system.o)
 .text.SYS_InitFont
                0x00000000        0x0 c:/Utils/devkitPro/libogc/lib/wii\libogc.a(system.o)
 .text.__SYS_UnlockSram
                0x00000000        0x0 c:/Utils/devkitPro/libogc/lib/wii\libogc.a(system.o)
 .text.__SYS_SetBootTime
                0x00000000        0x0 c:/Utils/devkitPro/libogc/lib/wii\libogc.a(system.o)
 .sbss.sys_fontimage
                0x00000000        0x0 c:/Utils/devkitPro/libogc/lib/wii\libogc.a(system.o)
 .sbss.sys_fontcharsinsheet
                0x00000000        0x0 c:/Utils/devkitPro/libogc/lib/wii\libogc.a(system.o)
 .sdata.sys_fontenc
                0x00000000        0x0 c:/Utils/devkitPro/libogc/lib/wii\libogc.a(system.o)
 .sbss.sys_fontdata
                0x00000000        0x0 c:/Utils/devkitPro/libogc/lib/wii\libogc.a(system.o)
 .sbss.sys_fontarea
                0x00000000        0x0 c:/Utils/devkitPro/libogc/lib/wii\libogc.a(system.o)
 .sbss.sys_fontwidthtab
                0x00000000        0x0 c:/Utils/devkitPro/libogc/lib/wii\libogc.a(system.o)
 .data          0x00000000        0x0 c:/Utils/devkitPro/libogc/lib/wii\libogc.a(system_asm.o)
 .bss           0x00000000        0x0 c:/Utils/devkitPro/libogc/lib/wii\libogc.a(system_asm.o)
 .text          0x00000000        0x0 c:/Utils/devkitPro/libogc/lib/wii\libogc.a(cond.o)
 .data          0x00000000        0x0 c:/Utils/devkitPro/libogc/lib/wii\libogc.a(cond.o)
 .bss           0x00000000        0x0 c:/Utils/devkitPro/libogc/lib/wii\libogc.a(cond.o)
 .text.LWP_CondDestroy
                0x00000000        0x0 c:/Utils/devkitPro/libogc/lib/wii\libogc.a(cond.o)
 .text.LWP_CondInit
                0x00000000        0x0 c:/Utils/devkitPro/libogc/lib/wii\libogc.a(cond.o)
 .text.__lwp_cond_signalsupp
                0x00000000        0x0 c:/Utils/devkitPro/libogc/lib/wii\libogc.a(cond.o)
 .text.LWP_CondBroadcast
                0x00000000        0x0 c:/Utils/devkitPro/libogc/lib/wii\libogc.a(cond.o)
 .text.LWP_CondSignal
                0x00000000        0x0 c:/Utils/devkitPro/libogc/lib/wii\libogc.a(cond.o)
 .text.__lwp_cond_waitsupp
                0x00000000        0x0 c:/Utils/devkitPro/libogc/lib/wii\libogc.a(cond.o)
 .text.LWP_CondTimedWait
                0x00000000        0x0 c:/Utils/devkitPro/libogc/lib/wii\libogc.a(cond.o)
 .text.LWP_CondWait
                0x00000000        0x0 c:/Utils/devkitPro/libogc/lib/wii\libogc.a(cond.o)
 .text          0x00000000        0x0 c:/Utils/devkitPro/libogc/lib/wii\libogc.a(decrementer.o)
 .data          0x00000000        0x0 c:/Utils/devkitPro/libogc/lib/wii\libogc.a(decrementer.o)
 .bss           0x00000000        0x0 c:/Utils/devkitPro/libogc/lib/wii\libogc.a(decrementer.o)
 .text          0x00000000        0x0 c:/Utils/devkitPro/libogc/lib/wii\libogc.a(message.o)
 .data          0x00000000        0x0 c:/Utils/devkitPro/libogc/lib/wii\libogc.a(message.o)
 .bss           0x00000000        0x0 c:/Utils/devkitPro/libogc/lib/wii\libogc.a(message.o)
 .text.MQ_Close
                0x00000000        0x0 c:/Utils/devkitPro/libogc/lib/wii\libogc.a(message.o)
 .text.MQ_Init  0x00000000        0x0 c:/Utils/devkitPro/libogc/lib/wii\libogc.a(message.o)
 .text.MQ_Jam   0x00000000        0x0 c:/Utils/devkitPro/libogc/lib/wii\libogc.a(message.o)
 .text.MQ_Receive
                0x00000000        0x0 c:/Utils/devkitPro/libogc/lib/wii\libogc.a(message.o)
 .text.MQ_Send  0x00000000        0x0 c:/Utils/devkitPro/libogc/lib/wii\libogc.a(message.o)
 .text          0x00000000        0x0 c:/Utils/devkitPro/libogc/lib/wii\libogc.a(si.o)
 .data          0x00000000        0x0 c:/Utils/devkitPro/libogc/lib/wii\libogc.a(si.o)
 .bss           0x00000000        0x0 c:/Utils/devkitPro/libogc/lib/wii\libogc.a(si.o)
 .text.SI_Busy  0x00000000        0x0 c:/Utils/devkitPro/libogc/lib/wii\libogc.a(si.o)
 .text.SI_GetCommand
                0x00000000        0x0 c:/Utils/devkitPro/libogc/lib/wii\libogc.a(si.o)
 .text.SI_EnablePollingInterrupt
                0x00000000        0x0 c:/Utils/devkitPro/libogc/lib/wii\libogc.a(si.o)
 .text.SI_UnregisterPollingHandler
                0x00000000        0x0 c:/Utils/devkitPro/libogc/lib/wii\libogc.a(si.o)
 .text.SI_RegisterPollingHandler
                0x00000000        0x0 c:/Utils/devkitPro/libogc/lib/wii\libogc.a(si.o)
 .text.SI_Sync  0x00000000        0x0 c:/Utils/devkitPro/libogc/lib/wii\libogc.a(si.o)
 .text          0x00000000        0x0 c:/Utils/devkitPro/libogc/lib/wii\libogc.a(ipc.o)
 .data          0x00000000        0x0 c:/Utils/devkitPro/libogc/lib/wii\libogc.a(ipc.o)
 .bss           0x00000000        0x0 c:/Utils/devkitPro/libogc/lib/wii\libogc.a(ipc.o)
 .text.iosDestroyHeap
                0x00000000        0x0 c:/Utils/devkitPro/libogc/lib/wii\libogc.a(ipc.o)
 .text.IPC_SetBufferHi
                0x00000000        0x0 c:/Utils/devkitPro/libogc/lib/wii\libogc.a(ipc.o)
 .text.__IPC_Reinitialize
                0x00000000        0x0 c:/Utils/devkitPro/libogc/lib/wii\libogc.a(ipc.o)
 .text.IOS_IoctlvRebootBackground
                0x00000000        0x0 c:/Utils/devkitPro/libogc/lib/wii\libogc.a(ipc.o)
 .text.IOS_OpenAsync
                0x00000000        0x0 c:/Utils/devkitPro/libogc/lib/wii\libogc.a(ipc.o)
 .text.IOS_ReadAsync
                0x00000000        0x0 c:/Utils/devkitPro/libogc/lib/wii\libogc.a(ipc.o)
 .text.IOS_IoctlvFormatAsync
                0x00000000        0x0 c:/Utils/devkitPro/libogc/lib/wii\libogc.a(ipc.o)
 .text.IOS_SeekAsync
                0x00000000        0x0 c:/Utils/devkitPro/libogc/lib/wii\libogc.a(ipc.o)
 .text.IOS_Seek
                0x00000000        0x0 c:/Utils/devkitPro/libogc/lib/wii\libogc.a(ipc.o)
 .text.IOS_WriteAsync
                0x00000000        0x0 c:/Utils/devkitPro/libogc/lib/wii\libogc.a(ipc.o)
 .text          0x00000000        0x0 c:/Utils/devkitPro/libogc/lib/wii\libogc.a(ogc_crt0.o)
 .text          0x00000000        0x0 c:/Utils/devkitPro/libogc/lib/wii\libogc.a(console_font_8x16.o)
 .data          0x00000000        0x0 c:/Utils/devkitPro/libogc/lib/wii\libogc.a(console_font_8x16.o)
 .bss           0x00000000        0x0 c:/Utils/devkitPro/libogc/lib/wii\libogc.a(console_font_8x16.o)
 .text          0x00000000        0x0 c:/Utils/devkitPro/libogc/lib/wii\libogc.a(timesupp.o)
 .data          0x00000000        0x0 c:/Utils/devkitPro/libogc/lib/wii\libogc.a(timesupp.o)
 .bss           0x00000000        0x0 c:/Utils/devkitPro/libogc/lib/wii\libogc.a(timesupp.o)
 .text.settime  0x00000000        0x0 c:/Utils/devkitPro/libogc/lib/wii\libogc.a(timesupp.o)
 .text.diff_sec
                0x00000000        0x0 c:/Utils/devkitPro/libogc/lib/wii\libogc.a(timesupp.o)
 .text.diff_msec
                0x00000000        0x0 c:/Utils/devkitPro/libogc/lib/wii\libogc.a(timesupp.o)
 .text.diff_nsec
                0x00000000        0x0 c:/Utils/devkitPro/libogc/lib/wii\libogc.a(timesupp.o)
 .text.timespec_substract
                0x00000000        0x0 c:/Utils/devkitPro/libogc/lib/wii\libogc.a(timesupp.o)
 .text.timespec_to_ticks
                0x00000000        0x0 c:/Utils/devkitPro/libogc/lib/wii\libogc.a(timesupp.o)
 .text.clock    0x00000000        0x0 c:/Utils/devkitPro/libogc/lib/wii\libogc.a(timesupp.o)
 .text.__time_exi_unlock
                0x00000000        0x0 c:/Utils/devkitPro/libogc/lib/wii\libogc.a(timesupp.o)
 .text.__getrtc
                0x00000000        0x0 c:/Utils/devkitPro/libogc/lib/wii\libogc.a(timesupp.o)
 .text.time     0x00000000        0x0 c:/Utils/devkitPro/libogc/lib/wii\libogc.a(timesupp.o)
 .text.nanosleep
                0x00000000        0x0 c:/Utils/devkitPro/libogc/lib/wii\libogc.a(timesupp.o)
 .text.usleep   0x00000000        0x0 c:/Utils/devkitPro/libogc/lib/wii\libogc.a(timesupp.o)
 .text.sleep    0x00000000        0x0 c:/Utils/devkitPro/libogc/lib/wii\libogc.a(timesupp.o)
 .text.clock_gettime
                0x00000000        0x0 c:/Utils/devkitPro/libogc/lib/wii\libogc.a(timesupp.o)
 .text          0x00000000        0x0 c:/Utils/devkitPro/libogc/lib/wii\libogc.a(lock_supp.o)
 .data          0x00000000        0x0 c:/Utils/devkitPro/libogc/lib/wii\libogc.a(lock_supp.o)
 .bss           0x00000000        0x0 c:/Utils/devkitPro/libogc/lib/wii\libogc.a(lock_supp.o)
 .text          0x00000000        0x0 c:/Utils/devkitPro/libogc/lib/wii\libogc.a(newlibc.o)
 .data          0x00000000        0x0 c:/Utils/devkitPro/libogc/lib/wii\libogc.a(newlibc.o)
 .bss           0x00000000        0x0 c:/Utils/devkitPro/libogc/lib/wii\libogc.a(newlibc.o)
 .text.__libc_wrapup
                0x00000000        0x0 c:/Utils/devkitPro/libogc/lib/wii\libogc.a(newlibc.o)
 .text          0x00000000        0x0 c:/Utils/devkitPro/libogc/lib/wii\libogc.a(usbgecko.o)
 .data          0x00000000        0x0 c:/Utils/devkitPro/libogc/lib/wii\libogc.a(usbgecko.o)
 .bss           0x00000000        0x0 c:/Utils/devkitPro/libogc/lib/wii\libogc.a(usbgecko.o)
 .text.__usb_recvbyte
                0x00000000        0x0 c:/Utils/devkitPro/libogc/lib/wii\libogc.a(usbgecko.o)
 .text.usb_flush
                0x00000000        0x0 c:/Utils/devkitPro/libogc/lib/wii\libogc.a(usbgecko.o)
 .text.usb_recvbuffer
                0x00000000        0x0 c:/Utils/devkitPro/libogc/lib/wii\libogc.a(usbgecko.o)
 .text.usb_isgeckoalive
                0x00000000        0x0 c:/Utils/devkitPro/libogc/lib/wii\libogc.a(usbgecko.o)
 .text.__usb_checkrecv
                0x00000000        0x0 c:/Utils/devkitPro/libogc/lib/wii\libogc.a(usbgecko.o)
 .text.usb_recvbuffer_safe
                0x00000000        0x0 c:/Utils/devkitPro/libogc/lib/wii\libogc.a(usbgecko.o)
 .text          0x00000000        0x0 c:/Utils/devkitPro/libogc/lib/wii\libogc.a(sbrk.o)
 .data          0x00000000        0x0 c:/Utils/devkitPro/libogc/lib/wii\libogc.a(sbrk.o)
 .bss           0x00000000        0x0 c:/Utils/devkitPro/libogc/lib/wii\libogc.a(sbrk.o)
 .text          0x00000000        0x0 c:/Utils/devkitPro/libogc/lib/wii\libogc.a(malloc_lock.o)
 .data          0x00000000        0x0 c:/Utils/devkitPro/libogc/lib/wii\libogc.a(malloc_lock.o)
 .bss           0x00000000        0x0 c:/Utils/devkitPro/libogc/lib/wii\libogc.a(malloc_lock.o)
 .text          0x00000000        0x0 c:/Utils/devkitPro/libogc/lib/wii\libogc.a(stm.o)
 .data          0x00000000        0x0 c:/Utils/devkitPro/libogc/lib/wii\libogc.a(stm.o)
 .bss           0x00000000        0x0 c:/Utils/devkitPro/libogc/lib/wii\libogc.a(stm.o)
 .text          0x00000000        0x0 c:/Utils/devkitPro/libogc/lib/wii\libogc.a(ios.o)
 .data          0x00000000        0x0 c:/Utils/devkitPro/libogc/lib/wii\libogc.a(ios.o)
 .bss           0x00000000        0x0 c:/Utils/devkitPro/libogc/lib/wii\libogc.a(ios.o)
 .text.IOS_GetRevision
                0x00000000        0x0 c:/Utils/devkitPro/libogc/lib/wii\libogc.a(ios.o)
 .text.IOS_GetRevisionMinor
                0x00000000        0x0 c:/Utils/devkitPro/libogc/lib/wii\libogc.a(ios.o)
 .text.IOS_GetRevisionMajor
                0x00000000        0x0 c:/Utils/devkitPro/libogc/lib/wii\libogc.a(ios.o)
 .text.IOS_ReloadIOS
                0x00000000        0x0 c:/Utils/devkitPro/libogc/lib/wii\libogc.a(ios.o)
 .text          0x00000000        0x0 c:/Utils/devkitPro/libogc/lib/wii\libogc.a(es.o)
 .data          0x00000000        0x0 c:/Utils/devkitPro/libogc/lib/wii\libogc.a(es.o)
 .bss           0x00000000        0x0 c:/Utils/devkitPro/libogc/lib/wii\libogc.a(es.o)
 .text.ES_NextCert
                0x00000000        0x0 c:/Utils/devkitPro/libogc/lib/wii\libogc.a(es.o)
 .text.__ES_sanity_check_certlist
                0x00000000        0x0 c:/Utils/devkitPro/libogc/lib/wii\libogc.a(es.o)
 .text.ES_GetBoot2Version
                0x00000000        0x0 c:/Utils/devkitPro/libogc/lib/wii\libogc.a(es.o)
 .text.ES_GetDeviceID
                0x00000000        0x0 c:/Utils/devkitPro/libogc/lib/wii\libogc.a(es.o)
 .text.ES_GetDeviceCert
                0x00000000        0x0 c:/Utils/devkitPro/libogc/lib/wii\libogc.a(es.o)
 .text.ES_Sign  0x00000000        0x0 c:/Utils/devkitPro/libogc/lib/wii\libogc.a(es.o)
 .text.ES_Decrypt
                0x00000000        0x0 c:/Utils/devkitPro/libogc/lib/wii\libogc.a(es.o)
 .text.ES_Encrypt
                0x00000000        0x0 c:/Utils/devkitPro/libogc/lib/wii\libogc.a(es.o)
 .text.ES_DeleteTitleContent
                0x00000000        0x0 c:/Utils/devkitPro/libogc/lib/wii\libogc.a(es.o)
 .text.ES_DeleteTitle
                0x00000000        0x0 c:/Utils/devkitPro/libogc/lib/wii\libogc.a(es.o)
 .text.ES_ImportBoot
                0x00000000        0x0 c:/Utils/devkitPro/libogc/lib/wii\libogc.a(es.o)
 .text.ES_AddTitleCancel
                0x00000000        0x0 c:/Utils/devkitPro/libogc/lib/wii\libogc.a(es.o)
 .text.ES_AddTitleFinish
                0x00000000        0x0 c:/Utils/devkitPro/libogc/lib/wii\libogc.a(es.o)
 .text.ES_AddContentFinish
                0x00000000        0x0 c:/Utils/devkitPro/libogc/lib/wii\libogc.a(es.o)
 .text.ES_AddContentData
                0x00000000        0x0 c:/Utils/devkitPro/libogc/lib/wii\libogc.a(es.o)
 .text.ES_AddContentStart
                0x00000000        0x0 c:/Utils/devkitPro/libogc/lib/wii\libogc.a(es.o)
 .text.ES_AddTitleStart
                0x00000000        0x0 c:/Utils/devkitPro/libogc/lib/wii\libogc.a(es.o)
 .text.ES_AddTitleTMD
                0x00000000        0x0 c:/Utils/devkitPro/libogc/lib/wii\libogc.a(es.o)
 .text.ES_DeleteTicket
                0x00000000        0x0 c:/Utils/devkitPro/libogc/lib/wii\libogc.a(es.o)
 .text.ES_AddTicket
                0x00000000        0x0 c:/Utils/devkitPro/libogc/lib/wii\libogc.a(es.o)
 .text.ES_GetSharedContents
                0x00000000        0x0 c:/Utils/devkitPro/libogc/lib/wii\libogc.a(es.o)
 .text.ES_GetNumSharedContents
                0x00000000        0x0 c:/Utils/devkitPro/libogc/lib/wii\libogc.a(es.o)
 .text.ES_GetTMDView
                0x00000000        0x0 c:/Utils/devkitPro/libogc/lib/wii\libogc.a(es.o)
 .text.ES_GetTMDViewSize
                0x00000000        0x0 c:/Utils/devkitPro/libogc/lib/wii\libogc.a(es.o)
 .text.ES_GetTitleContents
                0x00000000        0x0 c:/Utils/devkitPro/libogc/lib/wii\libogc.a(es.o)
 .text.ES_GetTitleContentsCount
                0x00000000        0x0 c:/Utils/devkitPro/libogc/lib/wii\libogc.a(es.o)
 .text.ES_GetStoredTMDContents
                0x00000000        0x0 c:/Utils/devkitPro/libogc/lib/wii\libogc.a(es.o)
 .text.ES_GetNumStoredTMDContents
                0x00000000        0x0 c:/Utils/devkitPro/libogc/lib/wii\libogc.a(es.o)
 .text.ES_GetOwnedTitles
                0x00000000        0x0 c:/Utils/devkitPro/libogc/lib/wii\libogc.a(es.o)
 .text.ES_GetNumOwnedTitles
                0x00000000        0x0 c:/Utils/devkitPro/libogc/lib/wii\libogc.a(es.o)
 .text.ES_GetDataDir
                0x00000000        0x0 c:/Utils/devkitPro/libogc/lib/wii\libogc.a(es.o)
 .text.ES_SetUID
                0x00000000        0x0 c:/Utils/devkitPro/libogc/lib/wii\libogc.a(es.o)
 .text.ES_LaunchTitleBackground
                0x00000000        0x0 c:/Utils/devkitPro/libogc/lib/wii\libogc.a(es.o)
 .text.ES_Identify
                0x00000000        0x0 c:/Utils/devkitPro/libogc/lib/wii\libogc.a(es.o)
 .text          0x00000000        0x0 c:/Utils/devkitPro/libogc/lib/wii\libogc.a(usb.o)
 .data          0x00000000        0x0 c:/Utils/devkitPro/libogc/lib/wii\libogc.a(usb.o)
 .bss           0x00000000        0x0 c:/Utils/devkitPro/libogc/lib/wii\libogc.a(usb.o)
 .text.USB_ReadIntrMsg
                0x00000000        0x0 c:/Utils/devkitPro/libogc/lib/wii\libogc.a(usb.o)
 .text.USB_GetDeviceList
                0x00000000        0x0 c:/Utils/devkitPro/libogc/lib/wii\libogc.a(usb.o)
 .text.USB_DeviceInsertNotifyAsync
                0x00000000        0x0 c:/Utils/devkitPro/libogc/lib/wii\libogc.a(usb.o)
 .text.USB_CloseDevice
                0x00000000        0x0 c:/Utils/devkitPro/libogc/lib/wii\libogc.a(usb.o)
 .text.__usb_device_notificationCB
                0x00000000        0x0 c:/Utils/devkitPro/libogc/lib/wii\libogc.a(usb.o)
 .text.USB_ResumeDevice
                0x00000000        0x0 c:/Utils/devkitPro/libogc/lib/wii\libogc.a(usb.o)
 .text.USB_SuspendDevice
                0x00000000        0x0 c:/Utils/devkitPro/libogc/lib/wii\libogc.a(usb.o)
 .text.USB_DeviceRemovalNotifyAsync
                0x00000000        0x0 c:/Utils/devkitPro/libogc/lib/wii\libogc.a(usb.o)
 .text.USB_FreeDescriptors
                0x00000000        0x0 c:/Utils/devkitPro/libogc/lib/wii\libogc.a(usb.o)
 .text.USB_Deinitialize
                0x00000000        0x0 c:/Utils/devkitPro/libogc/lib/wii\libogc.a(usb.o)
 .text.USB_WriteBlkMsg
                0x00000000        0x0 c:/Utils/devkitPro/libogc/lib/wii\libogc.a(usb.o)
 .text.USB_ReadBlkMsg
                0x00000000        0x0 c:/Utils/devkitPro/libogc/lib/wii\libogc.a(usb.o)
 .text.USB_WriteIntrMsgAsync
                0x00000000        0x0 c:/Utils/devkitPro/libogc/lib/wii\libogc.a(usb.o)
 .text.USB_WriteIntrMsg
                0x00000000        0x0 c:/Utils/devkitPro/libogc/lib/wii\libogc.a(usb.o)
 .text.USB_ClearHalt
                0x00000000        0x0 c:/Utils/devkitPro/libogc/lib/wii\libogc.a(usb.o)
 .text.USB_SetAlternativeInterface
                0x00000000        0x0 c:/Utils/devkitPro/libogc/lib/wii\libogc.a(usb.o)
 .text.USB_GetConfiguration
                0x00000000        0x0 c:/Utils/devkitPro/libogc/lib/wii\libogc.a(usb.o)
 .text.USB_SetConfiguration
                0x00000000        0x0 c:/Utils/devkitPro/libogc/lib/wii\libogc.a(usb.o)
 .text.USB_WriteCtrlMsg
                0x00000000        0x0 c:/Utils/devkitPro/libogc/lib/wii\libogc.a(usb.o)
 .text.USB_ReadCtrlMsgAsync
                0x00000000        0x0 c:/Utils/devkitPro/libogc/lib/wii\libogc.a(usb.o)
 .text.USB_ReadCtrlMsg
                0x00000000        0x0 c:/Utils/devkitPro/libogc/lib/wii\libogc.a(usb.o)
 .text.USB_GetAsciiString
                0x00000000        0x0 c:/Utils/devkitPro/libogc/lib/wii\libogc.a(usb.o)
 .text.USB_GetDeviceDescription
                0x00000000        0x0 c:/Utils/devkitPro/libogc/lib/wii\libogc.a(usb.o)
 .text.USB_GetDescriptors
                0x00000000        0x0 c:/Utils/devkitPro/libogc/lib/wii\libogc.a(usb.o)
 .text          0x00000000        0x0 c:/Utils/devkitPro/libogc/lib/wii\libogc.a(argv.o)
 .data          0x00000000        0x0 c:/Utils/devkitPro/libogc/lib/wii\libogc.a(argv.o)
 .bss           0x00000000        0x0 c:/Utils/devkitPro/libogc/lib/wii\libogc.a(argv.o)
 .text          0x00000000        0x0 c:/Utils/devkitPro/libogc/lib/wii\libogc.a(conf.o)
 .data          0x00000000        0x0 c:/Utils/devkitPro/libogc/lib/wii\libogc.a(conf.o)
 .bss           0x00000000        0x0 c:/Utils/devkitPro/libogc/lib/wii\libogc.a(conf.o)
 .text.CONF_GetType
                0x00000000        0x0 c:/Utils/devkitPro/libogc/lib/wii\libogc.a(conf.o)
 .text.CONF_GetWiiConnect24
                0x00000000        0x0 c:/Utils/devkitPro/libogc/lib/wii\libogc.a(conf.o)
 .text.CONF_GetParentalAnswer
                0x00000000        0x0 c:/Utils/devkitPro/libogc/lib/wii\libogc.a(conf.o)
 .text.CONF_GetParentalPassword
                0x00000000        0x0 c:/Utils/devkitPro/libogc/lib/wii\libogc.a(conf.o)
 .text.CONF_GetEULA
                0x00000000        0x0 c:/Utils/devkitPro/libogc/lib/wii\libogc.a(conf.o)
 .text.CONF_GetAspectRatio
                0x00000000        0x0 c:/Utils/devkitPro/libogc/lib/wii\libogc.a(conf.o)
 .text.CONF_GetNickName
                0x00000000        0x0 c:/Utils/devkitPro/libogc/lib/wii\libogc.a(conf.o)
 .text.CONF_GetScreenSaverMode
                0x00000000        0x0 c:/Utils/devkitPro/libogc/lib/wii\libogc.a(conf.o)
 .text.CONF_GetCounterBias
                0x00000000        0x0 c:/Utils/devkitPro/libogc/lib/wii\libogc.a(conf.o)
 .text.CONF_GetLanguage
                0x00000000        0x0 c:/Utils/devkitPro/libogc/lib/wii\libogc.a(conf.o)
 .text.CONF_GetSoundMode
                0x00000000        0x0 c:/Utils/devkitPro/libogc/lib/wii\libogc.a(conf.o)
 .text.CONF_GetPadMotorMode
                0x00000000        0x0 c:/Utils/devkitPro/libogc/lib/wii\libogc.a(conf.o)
 .text.CONF_GetPadSpeakerVolume
                0x00000000        0x0 c:/Utils/devkitPro/libogc/lib/wii\libogc.a(conf.o)
 .text.CONF_GetArea
                0x00000000        0x0 c:/Utils/devkitPro/libogc/lib/wii\libogc.a(conf.o)
 .text.CONF_GetRegion
                0x00000000        0x0 c:/Utils/devkitPro/libogc/lib/wii\libogc.a(conf.o)
 .text          0x00000000        0x0 c:/Utils/devkitPro/libogc/lib/wii\libogc.a(wiilaunch.o)
 .data          0x00000000        0x0 c:/Utils/devkitPro/libogc/lib/wii\libogc.a(wiilaunch.o)
 .bss           0x00000000        0x0 c:/Utils/devkitPro/libogc/lib/wii\libogc.a(wiilaunch.o)
 .text.WII_ReturnToSettings
                0x00000000        0x0 c:/Utils/devkitPro/libogc/lib/wii\libogc.a(wiilaunch.o)
 .text.__WII_SetArgs
                0x00000000        0x0 c:/Utils/devkitPro/libogc/lib/wii\libogc.a(wiilaunch.o)
 .text.WII_LaunchTitleWithArgs
                0x00000000        0x0 c:/Utils/devkitPro/libogc/lib/wii\libogc.a(wiilaunch.o)
 .text.WII_OpenURL
                0x00000000        0x0 c:/Utils/devkitPro/libogc/lib/wii\libogc.a(wiilaunch.o)
 .text.WII_ReturnToSettingsPage
                0x00000000        0x0 c:/Utils/devkitPro/libogc/lib/wii\libogc.a(wiilaunch.o)
 .rodata.str1.4
                0x00000000        0x0 c:/Utils/devkitPro/libogc/lib/wii\libogc.a(wiilaunch.o)
 .text          0x00000000        0x0 c:/Utils/devkitPro/libogc/lib/wii\libogc.a(lwp_priority.o)
 .data          0x00000000        0x0 c:/Utils/devkitPro/libogc/lib/wii\libogc.a(lwp_priority.o)
 .bss           0x00000000        0x0 c:/Utils/devkitPro/libogc/lib/wii\libogc.a(lwp_priority.o)
 .text          0x00000000        0x0 c:/Utils/devkitPro/libogc/lib/wii\libogc.a(lwp_threadq.o)
 .data          0x00000000        0x0 c:/Utils/devkitPro/libogc/lib/wii\libogc.a(lwp_threadq.o)
 .bss           0x00000000        0x0 c:/Utils/devkitPro/libogc/lib/wii\libogc.a(lwp_threadq.o)
 .text.__lwp_threadqueue_firstfifo
                0x00000000        0x0 c:/Utils/devkitPro/libogc/lib/wii\libogc.a(lwp_threadq.o)
 .text.__lwp_threadqueue_firstpriority
                0x00000000        0x0 c:/Utils/devkitPro/libogc/lib/wii\libogc.a(lwp_threadq.o)
 .text.__lwp_threadqueue_first
                0x00000000        0x0 c:/Utils/devkitPro/libogc/lib/wii\libogc.a(lwp_threadq.o)
 .text          0x00000000        0x0 c:/Utils/devkitPro/libogc/lib/wii\libogc.a(lwp_messages.o)
 .data          0x00000000        0x0 c:/Utils/devkitPro/libogc/lib/wii\libogc.a(lwp_messages.o)
 .bss           0x00000000        0x0 c:/Utils/devkitPro/libogc/lib/wii\libogc.a(lwp_messages.o)
 .text.__lwpmq_flush_support
                0x00000000        0x0 c:/Utils/devkitPro/libogc/lib/wii\libogc.a(lwp_messages.o)
 .text.__lwpmq_flush
                0x00000000        0x0 c:/Utils/devkitPro/libogc/lib/wii\libogc.a(lwp_messages.o)
 .text.__lwpmq_flush_waitthreads
                0x00000000        0x0 c:/Utils/devkitPro/libogc/lib/wii\libogc.a(lwp_messages.o)
 .text.__lwpmq_close
                0x00000000        0x0 c:/Utils/devkitPro/libogc/lib/wii\libogc.a(lwp_messages.o)
 .text.__lwpmq_initialize
                0x00000000        0x0 c:/Utils/devkitPro/libogc/lib/wii\libogc.a(lwp_messages.o)
 .text.__lwpmq_msg_insert
                0x00000000        0x0 c:/Utils/devkitPro/libogc/lib/wii\libogc.a(lwp_messages.o)
 .text.__lwpmq_broadcast
                0x00000000        0x0 c:/Utils/devkitPro/libogc/lib/wii\libogc.a(lwp_messages.o)
 .text.__lwpmq_submit
                0x00000000        0x0 c:/Utils/devkitPro/libogc/lib/wii\libogc.a(lwp_messages.o)
 .text.__lwpmq_seize
                0x00000000        0x0 c:/Utils/devkitPro/libogc/lib/wii\libogc.a(lwp_messages.o)
 .text          0x00000000        0x0 c:/Utils/devkitPro/libogc/lib/wii\libogc.a(lwp_mutex.o)
 .data          0x00000000        0x0 c:/Utils/devkitPro/libogc/lib/wii\libogc.a(lwp_mutex.o)
 .bss           0x00000000        0x0 c:/Utils/devkitPro/libogc/lib/wii\libogc.a(lwp_mutex.o)
 .text          0x00000000        0x0 c:/Utils/devkitPro/libogc/lib/wii\libogc.a(exception.o)
 .data          0x00000000        0x0 c:/Utils/devkitPro/libogc/lib/wii\libogc.a(exception.o)
 .bss           0x00000000        0x0 c:/Utils/devkitPro/libogc/lib/wii\libogc.a(exception.o)
 .text.__exception_close
                0x00000000        0x0 c:/Utils/devkitPro/libogc/lib/wii\libogc.a(exception.o)
 .text.__exception_closeall
                0x00000000        0x0 c:/Utils/devkitPro/libogc/lib/wii\libogc.a(exception.o)
 .data          0x00000000        0x0 c:/Utils/devkitPro/libogc/lib/wii\libogc.a(irq_handler.o)
 .bss           0x00000000        0x0 c:/Utils/devkitPro/libogc/lib/wii\libogc.a(irq_handler.o)
 .text          0x00000000        0x0 c:/Utils/devkitPro/libogc/lib/wii\libogc.a(semaphore.o)
 .data          0x00000000        0x0 c:/Utils/devkitPro/libogc/lib/wii\libogc.a(semaphore.o)
 .bss           0x00000000        0x0 c:/Utils/devkitPro/libogc/lib/wii\libogc.a(semaphore.o)
 .text.LWP_SemInit
                0x00000000        0x0 c:/Utils/devkitPro/libogc/lib/wii\libogc.a(semaphore.o)
 .text.LWP_SemDestroy
                0x00000000        0x0 c:/Utils/devkitPro/libogc/lib/wii\libogc.a(semaphore.o)
 .text.LWP_SemPost
                0x00000000        0x0 c:/Utils/devkitPro/libogc/lib/wii\libogc.a(semaphore.o)
 .text.LWP_SemWait
                0x00000000        0x0 c:/Utils/devkitPro/libogc/lib/wii\libogc.a(semaphore.o)
 .text          0x00000000        0x0 c:/Utils/devkitPro/libogc/lib/wii\libogc.a(video_asm.o)
 .data          0x00000000        0x0 c:/Utils/devkitPro/libogc/lib/wii\libogc.a(video_asm.o)
 .bss           0x00000000        0x0 c:/Utils/devkitPro/libogc/lib/wii\libogc.a(video_asm.o)
 .text          0x00000000        0x0 c:/Utils/devkitPro/libogc/lib/wii\libogc.a(pad.o)
 .data          0x00000000        0x0 c:/Utils/devkitPro/libogc/lib/wii\libogc.a(pad.o)
 .bss           0x00000000        0x0 c:/Utils/devkitPro/libogc/lib/wii\libogc.a(pad.o)
 .text.SPEC0_MakeStatus
                0x00000000        0x0 c:/Utils/devkitPro/libogc/lib/wii\libogc.a(pad.o)
 .text.SPEC1_MakeStatus
                0x00000000        0x0 c:/Utils/devkitPro/libogc/lib/wii\libogc.a(pad.o)
 .text.__pad_clampS8
                0x00000000        0x0 c:/Utils/devkitPro/libogc/lib/wii\libogc.a(pad.o)
 .text.__pad_clampU8
                0x00000000        0x0 c:/Utils/devkitPro/libogc/lib/wii\libogc.a(pad.o)
 .text.SPEC2_MakeStatus
                0x00000000        0x0 c:/Utils/devkitPro/libogc/lib/wii\libogc.a(pad.o)
 .text.__pad_clampstick
                0x00000000        0x0 c:/Utils/devkitPro/libogc/lib/wii\libogc.a(pad.o)
 .text.__pad_clamptrigger
                0x00000000        0x0 c:/Utils/devkitPro/libogc/lib/wii\libogc.a(pad.o)
 .text.__pad_samplinghandler
                0x00000000        0x0 c:/Utils/devkitPro/libogc/lib/wii\libogc.a(pad.o)
 .text.PAD_Recalibrate
                0x00000000        0x0 c:/Utils/devkitPro/libogc/lib/wii\libogc.a(pad.o)
 .text.PAD_SetSpec
                0x00000000        0x0 c:/Utils/devkitPro/libogc/lib/wii\libogc.a(pad.o)
 .text.PAD_Clamp
                0x00000000        0x0 c:/Utils/devkitPro/libogc/lib/wii\libogc.a(pad.o)
 .text.PAD_ButtonsUp
                0x00000000        0x0 c:/Utils/devkitPro/libogc/lib/wii\libogc.a(pad.o)
 .text.PAD_ButtonsHeld
                0x00000000        0x0 c:/Utils/devkitPro/libogc/lib/wii\libogc.a(pad.o)
 .text.PAD_SubStickX
                0x00000000        0x0 c:/Utils/devkitPro/libogc/lib/wii\libogc.a(pad.o)
 .text.PAD_SubStickY
                0x00000000        0x0 c:/Utils/devkitPro/libogc/lib/wii\libogc.a(pad.o)
 .text.PAD_StickX
                0x00000000        0x0 c:/Utils/devkitPro/libogc/lib/wii\libogc.a(pad.o)
 .text.PAD_StickY
                0x00000000        0x0 c:/Utils/devkitPro/libogc/lib/wii\libogc.a(pad.o)
 .text.PAD_TriggerL
                0x00000000        0x0 c:/Utils/devkitPro/libogc/lib/wii\libogc.a(pad.o)
 .text.PAD_TriggerR
                0x00000000        0x0 c:/Utils/devkitPro/libogc/lib/wii\libogc.a(pad.o)
 .text.PAD_SetSamplingCallback
                0x00000000        0x0 c:/Utils/devkitPro/libogc/lib/wii\libogc.a(pad.o)
 .text.PAD_ControlMotor
                0x00000000        0x0 c:/Utils/devkitPro/libogc/lib/wii\libogc.a(pad.o)
 .text.PAD_Sync
                0x00000000        0x0 c:/Utils/devkitPro/libogc/lib/wii\libogc.a(pad.o)
 .text.__pad_onreset
                0x00000000        0x0 c:/Utils/devkitPro/libogc/lib/wii\libogc.a(pad.o)
 .text.PAD_Init
                0x00000000        0x0 c:/Utils/devkitPro/libogc/lib/wii\libogc.a(pad.o)
 .data.pad_resetinfo
                0x00000000        0x0 c:/Utils/devkitPro/libogc/lib/wii\libogc.a(pad.o)
 .sbss.__pad_samplingcallback
                0x00000000        0x0 c:/Utils/devkitPro/libogc/lib/wii\libogc.a(pad.o)
 .sbss.__pad_initialized
                0x00000000        0x0 c:/Utils/devkitPro/libogc/lib/wii\libogc.a(pad.o)
 .sbss.__pad_recalibrated$207
                0x00000000        0x0 c:/Utils/devkitPro/libogc/lib/wii\libogc.a(pad.o)
 .text          0x00000000        0x0 c:/Utils/devkitPro/libogc/lib/wii\libogc.a(exi.o)
 .data          0x00000000        0x0 c:/Utils/devkitPro/libogc/lib/wii\libogc.a(exi.o)
 .bss           0x00000000        0x0 c:/Utils/devkitPro/libogc/lib/wii\libogc.a(exi.o)
 .text.EXI_GetState
                0x00000000        0x0 c:/Utils/devkitPro/libogc/lib/wii\libogc.a(exi.o)
 .text.InitializeUART
                0x00000000        0x0 c:/Utils/devkitPro/libogc/lib/wii\libogc.a(exi.o)
 .text.WriteUARTN
                0x00000000        0x0 c:/Utils/devkitPro/libogc/lib/wii\libogc.a(exi.o)
 .text.EXI_Probe
                0x00000000        0x0 c:/Utils/devkitPro/libogc/lib/wii\libogc.a(exi.o)
 .text.EXI_ProbeEx
                0x00000000        0x0 c:/Utils/devkitPro/libogc/lib/wii\libogc.a(exi.o)
 .text.EXI_Attach
                0x00000000        0x0 c:/Utils/devkitPro/libogc/lib/wii\libogc.a(exi.o)
 .text.__SYS_EnableBarnacle
                0x00000000        0x0 c:/Utils/devkitPro/libogc/lib/wii\libogc.a(exi.o)
 .text.EXI_SelectSD
                0x00000000        0x0 c:/Utils/devkitPro/libogc/lib/wii\libogc.a(exi.o)
 .text.EXI_RegisterEXICallback
                0x00000000        0x0 c:/Utils/devkitPro/libogc/lib/wii\libogc.a(exi.o)
 .sbss.exi_uart_dev
                0x00000000        0x0 c:/Utils/devkitPro/libogc/lib/wii\libogc.a(exi.o)
 .sbss.exi_uart_barnacle_enabled
                0x00000000        0x0 c:/Utils/devkitPro/libogc/lib/wii\libogc.a(exi.o)
 .sbss.exi_uart_chan
                0x00000000        0x0 c:/Utils/devkitPro/libogc/lib/wii\libogc.a(exi.o)
 .sbss.exi_uart_enabled
                0x00000000        0x0 c:/Utils/devkitPro/libogc/lib/wii\libogc.a(exi.o)
 .text          0x00000000        0x0 c:/Utils/devkitPro/libogc/lib/wii\libogc.a(mutex.o)
 .data          0x00000000        0x0 c:/Utils/devkitPro/libogc/lib/wii\libogc.a(mutex.o)
 .bss           0x00000000        0x0 c:/Utils/devkitPro/libogc/lib/wii\libogc.a(mutex.o)
 .text.LWP_MutexTryLock
                0x00000000        0x0 c:/Utils/devkitPro/libogc/lib/wii\libogc.a(mutex.o)
 .data          0x00000000        0x0 c:/Utils/devkitPro/libogc/lib/wii\libogc.a(cache_asm.o)
 .bss           0x00000000        0x0 c:/Utils/devkitPro/libogc/lib/wii\libogc.a(cache_asm.o)
 .data          0x00000000        0x0 c:/Utils/devkitPro/libogc/lib/wii\libogc.a(decrementer_handler.o)
 .bss           0x00000000        0x0 c:/Utils/devkitPro/libogc/lib/wii\libogc.a(decrementer_handler.o)
 .text          0x00000000        0x0 c:/Utils/devkitPro/libogc/lib/wii\libogc.a(kprintf.o)
 .data          0x00000000        0x0 c:/Utils/devkitPro/libogc/lib/wii\libogc.a(kprintf.o)
 .bss           0x00000000        0x0 c:/Utils/devkitPro/libogc/lib/wii\libogc.a(kprintf.o)
 .text          0x00000000        0x0 c:/Utils/devkitPro/libogc/lib/wii\libogc.a(lwp_sema.o)
 .data          0x00000000        0x0 c:/Utils/devkitPro/libogc/lib/wii\libogc.a(lwp_sema.o)
 .bss           0x00000000        0x0 c:/Utils/devkitPro/libogc/lib/wii\libogc.a(lwp_sema.o)
 .text.__lwp_sema_flush
                0x00000000        0x0 c:/Utils/devkitPro/libogc/lib/wii\libogc.a(lwp_sema.o)
 .text.__lwp_sema_seize
                0x00000000        0x0 c:/Utils/devkitPro/libogc/lib/wii\libogc.a(lwp_sema.o)
 .text.__lwp_sema_surrender
                0x00000000        0x0 c:/Utils/devkitPro/libogc/lib/wii\libogc.a(lwp_sema.o)
 .text.__lwp_sema_initialize
                0x00000000        0x0 c:/Utils/devkitPro/libogc/lib/wii\libogc.a(lwp_sema.o)
 .data          0x00000000        0x0 c:/Utils/devkitPro/libogc/lib/wii\libogc.a(exception_handler.o)
 .bss           0x00000000        0x0 c:/Utils/devkitPro/libogc/lib/wii\libogc.a(exception_handler.o)
 .data          0x00000000        0x0 c:/utils/devkitpro/devkitppc/bin/../lib/gcc/powerpc-gekko/4.2.4/../../../../powerpc-gekko/lib\libm.a(lib_a-s_atan2.o)
 .bss           0x00000000        0x0 c:/utils/devkitpro/devkitppc/bin/../lib/gcc/powerpc-gekko/4.2.4/../../../../powerpc-gekko/lib\libm.a(lib_a-s_atan2.o)
 .data          0x00000000        0x0 c:/utils/devkitpro/devkitppc/bin/../lib/gcc/powerpc-gekko/4.2.4/../../../../powerpc-gekko/lib\libm.a(lib_a-s_atangent.o)
 .bss           0x00000000        0x0 c:/utils/devkitpro/devkitppc/bin/../lib/gcc/powerpc-gekko/4.2.4/../../../../powerpc-gekko/lib\libm.a(lib_a-s_atangent.o)
 .data          0x00000000        0x0 c:/utils/devkitpro/devkitppc/bin/../lib/gcc/powerpc-gekko/4.2.4/../../../../powerpc-gekko/lib\libm.a(lib_a-s_cos.o)
 .bss           0x00000000        0x0 c:/utils/devkitpro/devkitppc/bin/../lib/gcc/powerpc-gekko/4.2.4/../../../../powerpc-gekko/lib\libm.a(lib_a-s_cos.o)
 .data          0x00000000        0x0 c:/utils/devkitpro/devkitppc/bin/../lib/gcc/powerpc-gekko/4.2.4/../../../../powerpc-gekko/lib\libm.a(lib_a-s_fabs.o)
 .bss           0x00000000        0x0 c:/utils/devkitpro/devkitppc/bin/../lib/gcc/powerpc-gekko/4.2.4/../../../../powerpc-gekko/lib\libm.a(lib_a-s_fabs.o)
 .data          0x00000000        0x0 c:/utils/devkitpro/devkitppc/bin/../lib/gcc/powerpc-gekko/4.2.4/../../../../powerpc-gekko/lib\libm.a(lib_a-s_frexp.o)
 .bss           0x00000000        0x0 c:/utils/devkitpro/devkitppc/bin/../lib/gcc/powerpc-gekko/4.2.4/../../../../powerpc-gekko/lib\libm.a(lib_a-s_frexp.o)
 .text          0x00000000        0x0 c:/utils/devkitpro/devkitppc/bin/../lib/gcc/powerpc-gekko/4.2.4/../../../../powerpc-gekko/lib\libm.a(lib_a-s_mathcnst.o)
 .data          0x00000000        0x0 c:/utils/devkitpro/devkitppc/bin/../lib/gcc/powerpc-gekko/4.2.4/../../../../powerpc-gekko/lib\libm.a(lib_a-s_mathcnst.o)
 .bss           0x00000000        0x0 c:/utils/devkitpro/devkitppc/bin/../lib/gcc/powerpc-gekko/4.2.4/../../../../powerpc-gekko/lib\libm.a(lib_a-s_mathcnst.o)
 .data          0x00000000        0x0 c:/utils/devkitpro/devkitppc/bin/../lib/gcc/powerpc-gekko/4.2.4/../../../../powerpc-gekko/lib\libm.a(lib_a-s_numtest.o)
 .bss           0x00000000        0x0 c:/utils/devkitpro/devkitppc/bin/../lib/gcc/powerpc-gekko/4.2.4/../../../../powerpc-gekko/lib\libm.a(lib_a-s_numtest.o)
 .data          0x00000000        0x0 c:/utils/devkitpro/devkitppc/bin/../lib/gcc/powerpc-gekko/4.2.4/../../../../powerpc-gekko/lib\libm.a(lib_a-s_sin.o)
 .bss           0x00000000        0x0 c:/utils/devkitpro/devkitppc/bin/../lib/gcc/powerpc-gekko/4.2.4/../../../../powerpc-gekko/lib\libm.a(lib_a-s_sin.o)
 .data          0x00000000        0x0 c:/utils/devkitpro/devkitppc/bin/../lib/gcc/powerpc-gekko/4.2.4/../../../../powerpc-gekko/lib\libm.a(lib_a-s_sine.o)
 .bss           0x00000000        0x0 c:/utils/devkitpro/devkitppc/bin/../lib/gcc/powerpc-gekko/4.2.4/../../../../powerpc-gekko/lib\libm.a(lib_a-s_sine.o)
 .data          0x00000000        0x0 c:/utils/devkitpro/devkitppc/bin/../lib/gcc/powerpc-gekko/4.2.4/../../../../powerpc-gekko/lib\libm.a(lib_a-s_sqrt.o)
 .bss           0x00000000        0x0 c:/utils/devkitpro/devkitppc/bin/../lib/gcc/powerpc-gekko/4.2.4/../../../../powerpc-gekko/lib\libm.a(lib_a-s_sqrt.o)
 .data          0x00000000        0x0 c:/utils/devkitpro/devkitppc/bin/../lib/gcc/powerpc-gekko/4.2.4/../../../../powerpc-gekko/lib\libm.a(lib_a-sf_atan.o)
 .bss           0x00000000        0x0 c:/utils/devkitpro/devkitppc/bin/../lib/gcc/powerpc-gekko/4.2.4/../../../../powerpc-gekko/lib\libm.a(lib_a-sf_atan.o)
 .data          0x00000000        0x0 c:/utils/devkitpro/devkitppc/bin/../lib/gcc/powerpc-gekko/4.2.4/../../../../powerpc-gekko/lib\libm.a(lib_a-sf_atan2.o)
 .bss           0x00000000        0x0 c:/utils/devkitpro/devkitppc/bin/../lib/gcc/powerpc-gekko/4.2.4/../../../../powerpc-gekko/lib\libm.a(lib_a-sf_atan2.o)
 .data          0x00000000        0x0 c:/utils/devkitpro/devkitppc/bin/../lib/gcc/powerpc-gekko/4.2.4/../../../../powerpc-gekko/lib\libm.a(lib_a-sf_atangent.o)
 .bss           0x00000000        0x0 c:/utils/devkitpro/devkitppc/bin/../lib/gcc/powerpc-gekko/4.2.4/../../../../powerpc-gekko/lib\libm.a(lib_a-sf_atangent.o)
 .data          0x00000000        0x0 c:/utils/devkitpro/devkitppc/bin/../lib/gcc/powerpc-gekko/4.2.4/../../../../powerpc-gekko/lib\libm.a(lib_a-sf_cos.o)
 .bss           0x00000000        0x0 c:/utils/devkitpro/devkitppc/bin/../lib/gcc/powerpc-gekko/4.2.4/../../../../powerpc-gekko/lib\libm.a(lib_a-sf_cos.o)
 .data          0x00000000        0x0 c:/utils/devkitpro/devkitppc/bin/../lib/gcc/powerpc-gekko/4.2.4/../../../../powerpc-gekko/lib\libm.a(lib_a-sf_fabs.o)
 .bss           0x00000000        0x0 c:/utils/devkitpro/devkitppc/bin/../lib/gcc/powerpc-gekko/4.2.4/../../../../powerpc-gekko/lib\libm.a(lib_a-sf_fabs.o)
 .data          0x00000000        0x0 c:/utils/devkitpro/devkitppc/bin/../lib/gcc/powerpc-gekko/4.2.4/../../../../powerpc-gekko/lib\libm.a(lib_a-sf_fpclassify.o)
 .bss           0x00000000        0x0 c:/utils/devkitpro/devkitppc/bin/../lib/gcc/powerpc-gekko/4.2.4/../../../../powerpc-gekko/lib\libm.a(lib_a-sf_fpclassify.o)
 .data          0x00000000        0x0 c:/utils/devkitpro/devkitppc/bin/../lib/gcc/powerpc-gekko/4.2.4/../../../../powerpc-gekko/lib\libm.a(lib_a-sf_frexp.o)
 .bss           0x00000000        0x0 c:/utils/devkitpro/devkitppc/bin/../lib/gcc/powerpc-gekko/4.2.4/../../../../powerpc-gekko/lib\libm.a(lib_a-sf_frexp.o)
 .data          0x00000000        0x0 c:/utils/devkitpro/devkitppc/bin/../lib/gcc/powerpc-gekko/4.2.4/../../../../powerpc-gekko/lib\libm.a(lib_a-sf_isinff.o)
 .bss           0x00000000        0x0 c:/utils/devkitpro/devkitppc/bin/../lib/gcc/powerpc-gekko/4.2.4/../../../../powerpc-gekko/lib\libm.a(lib_a-sf_isinff.o)
 .data          0x00000000        0x0 c:/utils/devkitpro/devkitppc/bin/../lib/gcc/powerpc-gekko/4.2.4/../../../../powerpc-gekko/lib\libm.a(lib_a-sf_isnanf.o)
 .bss           0x00000000        0x0 c:/utils/devkitpro/devkitppc/bin/../lib/gcc/powerpc-gekko/4.2.4/../../../../powerpc-gekko/lib\libm.a(lib_a-sf_isnanf.o)
 .data          0x00000000        0x0 c:/utils/devkitpro/devkitppc/bin/../lib/gcc/powerpc-gekko/4.2.4/../../../../powerpc-gekko/lib\libm.a(lib_a-sf_numtest.o)
 .bss           0x00000000        0x0 c:/utils/devkitpro/devkitppc/bin/../lib/gcc/powerpc-gekko/4.2.4/../../../../powerpc-gekko/lib\libm.a(lib_a-sf_numtest.o)
 .data          0x00000000        0x0 c:/utils/devkitpro/devkitppc/bin/../lib/gcc/powerpc-gekko/4.2.4/../../../../powerpc-gekko/lib\libm.a(lib_a-sf_sin.o)
 .bss           0x00000000        0x0 c:/utils/devkitpro/devkitppc/bin/../lib/gcc/powerpc-gekko/4.2.4/../../../../powerpc-gekko/lib\libm.a(lib_a-sf_sin.o)
 .data          0x00000000        0x0 c:/utils/devkitpro/devkitppc/bin/../lib/gcc/powerpc-gekko/4.2.4/../../../../powerpc-gekko/lib\libm.a(lib_a-sf_sine.o)
 .bss           0x00000000        0x0 c:/utils/devkitpro/devkitppc/bin/../lib/gcc/powerpc-gekko/4.2.4/../../../../powerpc-gekko/lib\libm.a(lib_a-sf_sine.o)
 .data          0x00000000        0x0 c:/utils/devkitpro/devkitppc/bin/../lib/gcc/powerpc-gekko/4.2.4/../../../../powerpc-gekko/lib\libm.a(lib_a-sf_sqrt.o)
 .bss           0x00000000        0x0 c:/utils/devkitpro/devkitppc/bin/../lib/gcc/powerpc-gekko/4.2.4/../../../../powerpc-gekko/lib\libm.a(lib_a-sf_sqrt.o)
 .data          0x00000000        0x0 c:/utils/devkitpro/devkitppc/bin/../lib/gcc/powerpc-gekko/4.2.4/../../../../powerpc-gekko/lib\libm.a(lib_a-s_ispos.o)
 .bss           0x00000000        0x0 c:/utils/devkitpro/devkitppc/bin/../lib/gcc/powerpc-gekko/4.2.4/../../../../powerpc-gekko/lib\libm.a(lib_a-s_ispos.o)
 .data          0x00000000        0x0 c:/utils/devkitpro/devkitppc/bin/../lib/gcc/powerpc-gekko/4.2.4/../../../../powerpc-gekko/lib\libm.a(lib_a-s_ldexp.o)
 .bss           0x00000000        0x0 c:/utils/devkitpro/devkitppc/bin/../lib/gcc/powerpc-gekko/4.2.4/../../../../powerpc-gekko/lib\libm.a(lib_a-s_ldexp.o)
 .data          0x00000000        0x0 c:/utils/devkitpro/devkitppc/bin/../lib/gcc/powerpc-gekko/4.2.4/../../../../powerpc-gekko/lib\libm.a(lib_a-sf_ispos.o)
 .bss           0x00000000        0x0 c:/utils/devkitpro/devkitppc/bin/../lib/gcc/powerpc-gekko/4.2.4/../../../../powerpc-gekko/lib\libm.a(lib_a-sf_ispos.o)
 .data          0x00000000        0x0 c:/utils/devkitpro/devkitppc/bin/../lib/gcc/powerpc-gekko/4.2.4/../../../../powerpc-gekko/lib\libm.a(lib_a-sf_ldexp.o)
 .bss           0x00000000        0x0 c:/utils/devkitpro/devkitppc/bin/../lib/gcc/powerpc-gekko/4.2.4/../../../../powerpc-gekko/lib\libm.a(lib_a-sf_ldexp.o)
 .data          0x00000000        0x0 c:/utils/devkitpro/devkitppc/bin/../lib/gcc/powerpc-gekko/4.2.4\libgcc.a(_udivdi3.o)
 .bss           0x00000000        0x0 c:/utils/devkitpro/devkitppc/bin/../lib/gcc/powerpc-gekko/4.2.4\libgcc.a(_udivdi3.o)
 .data          0x00000000        0x0 c:/utils/devkitpro/devkitppc/bin/../lib/gcc/powerpc-gekko/4.2.4/../../../../powerpc-gekko/lib\libsysbase.a(abort.o)
 .bss           0x00000000        0x0 c:/utils/devkitpro/devkitppc/bin/../lib/gcc/powerpc-gekko/4.2.4/../../../../powerpc-gekko/lib\libsysbase.a(abort.o)
 .bss           0x00000000        0x0 c:/utils/devkitpro/devkitppc/bin/../lib/gcc/powerpc-gekko/4.2.4/../../../../powerpc-gekko/lib\libsysbase.a(iosupport.o)
 .data          0x00000000        0x0 c:/utils/devkitpro/devkitppc/bin/../lib/gcc/powerpc-gekko/4.2.4/../../../../powerpc-gekko/lib\libsysbase.a(_exit.o)
 .bss           0x00000000        0x0 c:/utils/devkitpro/devkitppc/bin/../lib/gcc/powerpc-gekko/4.2.4/../../../../powerpc-gekko/lib\libsysbase.a(_exit.o)
 .data          0x00000000        0x0 c:/utils/devkitpro/devkitppc/bin/../lib/gcc/powerpc-gekko/4.2.4/../../../../powerpc-gekko/lib\libsysbase.a(build_argv.o)
 .bss           0x00000000        0x0 c:/utils/devkitpro/devkitppc/bin/../lib/gcc/powerpc-gekko/4.2.4/../../../../powerpc-gekko/lib\libsysbase.a(build_argv.o)
 .data          0x00000000        0x0 c:/utils/devkitpro/devkitppc/bin/../lib/gcc/powerpc-gekko/4.2.4/../../../../powerpc-gekko/lib\libsysbase.a(syscall_support.o)
 .data          0x00000000        0x0 c:/utils/devkitpro/devkitppc/bin/../lib/gcc/powerpc-gekko/4.2.4/../../../../powerpc-gekko/lib\libc.a(lib_a-calloc.o)
 .bss           0x00000000        0x0 c:/utils/devkitpro/devkitppc/bin/../lib/gcc/powerpc-gekko/4.2.4/../../../../powerpc-gekko/lib\libc.a(lib_a-calloc.o)
 .data          0x00000000        0x0 c:/utils/devkitpro/devkitppc/bin/../lib/gcc/powerpc-gekko/4.2.4/../../../../powerpc-gekko/lib\libc.a(lib_a-callocr.o)
 .bss           0x00000000        0x0 c:/utils/devkitpro/devkitppc/bin/../lib/gcc/powerpc-gekko/4.2.4/../../../../powerpc-gekko/lib\libc.a(lib_a-callocr.o)
 .text          0x00000000        0x0 c:/utils/devkitpro/devkitppc/bin/../lib/gcc/powerpc-gekko/4.2.4/../../../../powerpc-gekko/lib\libc.a(lib_a-ctype_.o)
 .data          0x00000000        0x0 c:/utils/devkitpro/devkitppc/bin/../lib/gcc/powerpc-gekko/4.2.4/../../../../powerpc-gekko/lib\libc.a(lib_a-ctype_.o)
 .bss           0x00000000        0x0 c:/utils/devkitpro/devkitppc/bin/../lib/gcc/powerpc-gekko/4.2.4/../../../../powerpc-gekko/lib\libc.a(lib_a-ctype_.o)
 .data          0x00000000        0x0 c:/utils/devkitpro/devkitppc/bin/../lib/gcc/powerpc-gekko/4.2.4/../../../../powerpc-gekko/lib\libc.a(lib_a-errno.o)
 .bss           0x00000000        0x0 c:/utils/devkitpro/devkitppc/bin/../lib/gcc/powerpc-gekko/4.2.4/../../../../powerpc-gekko/lib\libc.a(lib_a-errno.o)
 .data          0x00000000        0x0 c:/utils/devkitpro/devkitppc/bin/../lib/gcc/powerpc-gekko/4.2.4/../../../../powerpc-gekko/lib\libc.a(lib_a-exit.o)
 .bss           0x00000000        0x0 c:/utils/devkitpro/devkitppc/bin/../lib/gcc/powerpc-gekko/4.2.4/../../../../powerpc-gekko/lib\libc.a(lib_a-exit.o)
 .data          0x00000000        0x0 c:/utils/devkitpro/devkitppc/bin/../lib/gcc/powerpc-gekko/4.2.4/../../../../powerpc-gekko/lib\libc.a(lib_a-fprintf.o)
 .bss           0x00000000        0x0 c:/utils/devkitpro/devkitppc/bin/../lib/gcc/powerpc-gekko/4.2.4/../../../../powerpc-gekko/lib\libc.a(lib_a-fprintf.o)
 .data          0x00000000        0x0 c:/utils/devkitpro/devkitppc/bin/../lib/gcc/powerpc-gekko/4.2.4/../../../../powerpc-gekko/lib\libc.a(lib_a-freer.o)
 .bss           0x00000000        0x0 c:/utils/devkitpro/devkitppc/bin/../lib/gcc/powerpc-gekko/4.2.4/../../../../powerpc-gekko/lib\libc.a(lib_a-freer.o)
 .data          0x00000000        0x0 c:/utils/devkitpro/devkitppc/bin/../lib/gcc/powerpc-gekko/4.2.4/../../../../powerpc-gekko/lib\libc.a(lib_a-fwrite.o)
 .bss           0x00000000        0x0 c:/utils/devkitpro/devkitppc/bin/../lib/gcc/powerpc-gekko/4.2.4/../../../../powerpc-gekko/lib\libc.a(lib_a-fwrite.o)
 .text          0x00000000        0x0 c:/utils/devkitpro/devkitppc/bin/../lib/gcc/powerpc-gekko/4.2.4/../../../../powerpc-gekko/lib\libc.a(lib_a-impure.o)
 .bss           0x00000000        0x0 c:/utils/devkitpro/devkitppc/bin/../lib/gcc/powerpc-gekko/4.2.4/../../../../powerpc-gekko/lib\libc.a(lib_a-impure.o)
 .data          0x00000000        0x0 c:/utils/devkitpro/devkitppc/bin/../lib/gcc/powerpc-gekko/4.2.4/../../../../powerpc-gekko/lib\libc.a(lib_a-malign.o)
 .bss           0x00000000        0x0 c:/utils/devkitpro/devkitppc/bin/../lib/gcc/powerpc-gekko/4.2.4/../../../../powerpc-gekko/lib\libc.a(lib_a-malign.o)
 .data          0x00000000        0x0 c:/utils/devkitpro/devkitppc/bin/../lib/gcc/powerpc-gekko/4.2.4/../../../../powerpc-gekko/lib\libc.a(lib_a-malignr.o)
 .bss           0x00000000        0x0 c:/utils/devkitpro/devkitppc/bin/../lib/gcc/powerpc-gekko/4.2.4/../../../../powerpc-gekko/lib\libc.a(lib_a-malignr.o)
 .data          0x00000000        0x0 c:/utils/devkitpro/devkitppc/bin/../lib/gcc/powerpc-gekko/4.2.4/../../../../powerpc-gekko/lib\libc.a(lib_a-malloc.o)
 .bss           0x00000000        0x0 c:/utils/devkitpro/devkitppc/bin/../lib/gcc/powerpc-gekko/4.2.4/../../../../powerpc-gekko/lib\libc.a(lib_a-malloc.o)
 .data          0x00000000        0x0 c:/utils/devkitpro/devkitppc/bin/../lib/gcc/powerpc-gekko/4.2.4/../../../../powerpc-gekko/lib\libc.a(lib_a-memcmp.o)
 .bss           0x00000000        0x0 c:/utils/devkitpro/devkitppc/bin/../lib/gcc/powerpc-gekko/4.2.4/../../../../powerpc-gekko/lib\libc.a(lib_a-memcmp.o)
 .data          0x00000000        0x0 c:/utils/devkitpro/devkitppc/bin/../lib/gcc/powerpc-gekko/4.2.4/../../../../powerpc-gekko/lib\libc.a(lib_a-memcpy.o)
 .bss           0x00000000        0x0 c:/utils/devkitpro/devkitppc/bin/../lib/gcc/powerpc-gekko/4.2.4/../../../../powerpc-gekko/lib\libc.a(lib_a-memcpy.o)
 .data          0x00000000        0x0 c:/utils/devkitpro/devkitppc/bin/../lib/gcc/powerpc-gekko/4.2.4/../../../../powerpc-gekko/lib\libc.a(lib_a-memmove.o)
 .bss           0x00000000        0x0 c:/utils/devkitpro/devkitppc/bin/../lib/gcc/powerpc-gekko/4.2.4/../../../../powerpc-gekko/lib\libc.a(lib_a-memmove.o)
 .data          0x00000000        0x0 c:/utils/devkitpro/devkitppc/bin/../lib/gcc/powerpc-gekko/4.2.4/../../../../powerpc-gekko/lib\libc.a(lib_a-memset.o)
 .bss           0x00000000        0x0 c:/utils/devkitpro/devkitppc/bin/../lib/gcc/powerpc-gekko/4.2.4/../../../../powerpc-gekko/lib\libc.a(lib_a-memset.o)
 .data          0x00000000        0x0 c:/utils/devkitpro/devkitppc/bin/../lib/gcc/powerpc-gekko/4.2.4/../../../../powerpc-gekko/lib\libc.a(lib_a-printf.o)
 .bss           0x00000000        0x0 c:/utils/devkitpro/devkitppc/bin/../lib/gcc/powerpc-gekko/4.2.4/../../../../powerpc-gekko/lib\libc.a(lib_a-printf.o)
 .data          0x00000000        0x0 c:/utils/devkitpro/devkitppc/bin/../lib/gcc/powerpc-gekko/4.2.4/../../../../powerpc-gekko/lib\libc.a(lib_a-puts.o)
 .bss           0x00000000        0x0 c:/utils/devkitpro/devkitppc/bin/../lib/gcc/powerpc-gekko/4.2.4/../../../../powerpc-gekko/lib\libc.a(lib_a-puts.o)
 .data          0x00000000        0x0 c:/utils/devkitpro/devkitppc/bin/../lib/gcc/powerpc-gekko/4.2.4/../../../../powerpc-gekko/lib\libc.a(lib_a-reent.o)
 .bss           0x00000000        0x0 c:/utils/devkitpro/devkitppc/bin/../lib/gcc/powerpc-gekko/4.2.4/../../../../powerpc-gekko/lib\libc.a(lib_a-reent.o)
 .data          0x00000000        0x0 c:/utils/devkitpro/devkitppc/bin/../lib/gcc/powerpc-gekko/4.2.4/../../../../powerpc-gekko/lib\libc.a(lib_a-setvbuf.o)
 .bss           0x00000000        0x0 c:/utils/devkitpro/devkitppc/bin/../lib/gcc/powerpc-gekko/4.2.4/../../../../powerpc-gekko/lib\libc.a(lib_a-setvbuf.o)
 .data          0x00000000        0x0 c:/utils/devkitpro/devkitppc/bin/../lib/gcc/powerpc-gekko/4.2.4/../../../../powerpc-gekko/lib\libc.a(lib_a-snprintf.o)
 .bss           0x00000000        0x0 c:/utils/devkitpro/devkitppc/bin/../lib/gcc/powerpc-gekko/4.2.4/../../../../powerpc-gekko/lib\libc.a(lib_a-snprintf.o)
 .text          0x00000000        0x0 c:/utils/devkitpro/devkitppc/bin/../lib/gcc/powerpc-gekko/4.2.4/../../../../powerpc-gekko/lib\libc.a(lib_a-sprintf.o)
 .data          0x00000000        0x0 c:/utils/devkitpro/devkitppc/bin/../lib/gcc/powerpc-gekko/4.2.4/../../../../powerpc-gekko/lib\libc.a(lib_a-sprintf.o)
 .bss           0x00000000        0x0 c:/utils/devkitpro/devkitppc/bin/../lib/gcc/powerpc-gekko/4.2.4/../../../../powerpc-gekko/lib\libc.a(lib_a-sprintf.o)
 .data          0x00000000        0x0 c:/utils/devkitpro/devkitppc/bin/../lib/gcc/powerpc-gekko/4.2.4/../../../../powerpc-gekko/lib\libc.a(lib_a-strchr.o)
 .bss           0x00000000        0x0 c:/utils/devkitpro/devkitppc/bin/../lib/gcc/powerpc-gekko/4.2.4/../../../../powerpc-gekko/lib\libc.a(lib_a-strchr.o)
 .data          0x00000000        0x0 c:/utils/devkitpro/devkitppc/bin/../lib/gcc/powerpc-gekko/4.2.4/../../../../powerpc-gekko/lib\libc.a(lib_a-strcmp.o)
 .bss           0x00000000        0x0 c:/utils/devkitpro/devkitppc/bin/../lib/gcc/powerpc-gekko/4.2.4/../../../../powerpc-gekko/lib\libc.a(lib_a-strcmp.o)
 .data          0x00000000        0x0 c:/utils/devkitpro/devkitppc/bin/../lib/gcc/powerpc-gekko/4.2.4/../../../../powerpc-gekko/lib\libc.a(lib_a-strcpy.o)
 .bss           0x00000000        0x0 c:/utils/devkitpro/devkitppc/bin/../lib/gcc/powerpc-gekko/4.2.4/../../../../powerpc-gekko/lib\libc.a(lib_a-strcpy.o)
 .data          0x00000000        0x0 c:/utils/devkitpro/devkitppc/bin/../lib/gcc/powerpc-gekko/4.2.4/../../../../powerpc-gekko/lib\libc.a(lib_a-strlen.o)
 .bss           0x00000000        0x0 c:/utils/devkitpro/devkitppc/bin/../lib/gcc/powerpc-gekko/4.2.4/../../../../powerpc-gekko/lib\libc.a(lib_a-strlen.o)
 .data          0x00000000        0x0 c:/utils/devkitpro/devkitppc/bin/../lib/gcc/powerpc-gekko/4.2.4/../../../../powerpc-gekko/lib\libc.a(lib_a-strncmp.o)
 .bss           0x00000000        0x0 c:/utils/devkitpro/devkitppc/bin/../lib/gcc/powerpc-gekko/4.2.4/../../../../powerpc-gekko/lib\libc.a(lib_a-strncmp.o)
 .text          0x00000000        0x0 c:/utils/devkitpro/devkitppc/bin/../lib/gcc/powerpc-gekko/4.2.4/../../../../powerpc-gekko/lib\libc.a(lib_a-strncpy.o)
 .data          0x00000000        0x0 c:/utils/devkitpro/devkitppc/bin/../lib/gcc/powerpc-gekko/4.2.4/../../../../powerpc-gekko/lib\libc.a(lib_a-strncpy.o)
 .bss           0x00000000        0x0 c:/utils/devkitpro/devkitppc/bin/../lib/gcc/powerpc-gekko/4.2.4/../../../../powerpc-gekko/lib\libc.a(lib_a-strncpy.o)
 .data          0x00000000        0x0 c:/utils/devkitpro/devkitppc/bin/../lib/gcc/powerpc-gekko/4.2.4/../../../../powerpc-gekko/lib\libc.a(lib_a-strnlen.o)
 .bss           0x00000000        0x0 c:/utils/devkitpro/devkitppc/bin/../lib/gcc/powerpc-gekko/4.2.4/../../../../powerpc-gekko/lib\libc.a(lib_a-strnlen.o)
 .data          0x00000000        0x0 c:/utils/devkitpro/devkitppc/bin/../lib/gcc/powerpc-gekko/4.2.4/../../../../powerpc-gekko/lib\libc.a(lib_a-strtoul.o)
 .bss           0x00000000        0x0 c:/utils/devkitpro/devkitppc/bin/../lib/gcc/powerpc-gekko/4.2.4/../../../../powerpc-gekko/lib\libc.a(lib_a-strtoul.o)
 .data          0x00000000        0x0 c:/utils/devkitpro/devkitppc/bin/../lib/gcc/powerpc-gekko/4.2.4/../../../../powerpc-gekko/lib\libc.a(lib_a-strtoull_r.o)
 .bss           0x00000000        0x0 c:/utils/devkitpro/devkitppc/bin/../lib/gcc/powerpc-gekko/4.2.4/../../../../powerpc-gekko/lib\libc.a(lib_a-strtoull_r.o)
 .data          0x00000000        0x0 c:/utils/devkitpro/devkitppc/bin/../lib/gcc/powerpc-gekko/4.2.4/../../../../powerpc-gekko/lib\libc.a(lib_a-svfprintf.o)
 .bss           0x00000000        0x0 c:/utils/devkitpro/devkitppc/bin/../lib/gcc/powerpc-gekko/4.2.4/../../../../powerpc-gekko/lib\libc.a(lib_a-svfprintf.o)
 .data          0x00000000        0x0 c:/utils/devkitpro/devkitppc/bin/../lib/gcc/powerpc-gekko/4.2.4/../../../../powerpc-gekko/lib\libc.a(lib_a-syswrite.o)
 .bss           0x00000000        0x0 c:/utils/devkitpro/devkitppc/bin/../lib/gcc/powerpc-gekko/4.2.4/../../../../powerpc-gekko/lib\libc.a(lib_a-syswrite.o)
 .data          0x00000000        0x0 c:/utils/devkitpro/devkitppc/bin/../lib/gcc/powerpc-gekko/4.2.4/../../../../powerpc-gekko/lib\libc.a(lib_a-vfprintf.o)
 .bss           0x00000000        0x0 c:/utils/devkitpro/devkitppc/bin/../lib/gcc/powerpc-gekko/4.2.4/../../../../powerpc-gekko/lib\libc.a(lib_a-vfprintf.o)
 .data          0x00000000        0x0 c:/utils/devkitpro/devkitppc/bin/../lib/gcc/powerpc-gekko/4.2.4/../../../../powerpc-gekko/lib\libc.a(lib_a-wcrtomb.o)
 .bss           0x00000000        0x0 c:/utils/devkitpro/devkitppc/bin/../lib/gcc/powerpc-gekko/4.2.4/../../../../powerpc-gekko/lib\libc.a(lib_a-wcrtomb.o)
 .data          0x00000000        0x0 c:/utils/devkitpro/devkitppc/bin/../lib/gcc/powerpc-gekko/4.2.4/../../../../powerpc-gekko/lib\libc.a(lib_a-wcsrtombs.o)
 .bss           0x00000000        0x0 c:/utils/devkitpro/devkitppc/bin/../lib/gcc/powerpc-gekko/4.2.4/../../../../powerpc-gekko/lib\libc.a(lib_a-wcsrtombs.o)
 .data          0x00000000        0x0 c:/utils/devkitpro/devkitppc/bin/../lib/gcc/powerpc-gekko/4.2.4/../../../../powerpc-gekko/lib\libc.a(lib_a-wctomb_r.o)
 .bss           0x00000000        0x0 c:/utils/devkitpro/devkitppc/bin/../lib/gcc/powerpc-gekko/4.2.4/../../../../powerpc-gekko/lib\libc.a(lib_a-wctomb_r.o)
 .data          0x00000000        0x0 c:/utils/devkitpro/devkitppc/bin/../lib/gcc/powerpc-gekko/4.2.4/../../../../powerpc-gekko/lib\libc.a(lib_a-wsetup.o)
 .bss           0x00000000        0x0 c:/utils/devkitpro/devkitppc/bin/../lib/gcc/powerpc-gekko/4.2.4/../../../../powerpc-gekko/lib\libc.a(lib_a-wsetup.o)
 .data          0x00000000        0x0 c:/utils/devkitpro/devkitppc/bin/../lib/gcc/powerpc-gekko/4.2.4/../../../../powerpc-gekko/lib\libc.a(lib_a-__call_atexit.o)
 .bss           0x00000000        0x0 c:/utils/devkitpro/devkitppc/bin/../lib/gcc/powerpc-gekko/4.2.4/../../../../powerpc-gekko/lib\libc.a(lib_a-__call_atexit.o)
 .data          0x00000000        0x0 c:/utils/devkitpro/devkitppc/bin/../lib/gcc/powerpc-gekko/4.2.4/../../../../powerpc-gekko/lib\libc.a(lib_a-dtoa.o)
 .bss           0x00000000        0x0 c:/utils/devkitpro/devkitppc/bin/../lib/gcc/powerpc-gekko/4.2.4/../../../../powerpc-gekko/lib\libc.a(lib_a-dtoa.o)
 .data          0x00000000        0x0 c:/utils/devkitpro/devkitppc/bin/../lib/gcc/powerpc-gekko/4.2.4/../../../../powerpc-gekko/lib\libc.a(lib_a-fflush.o)
 .bss           0x00000000        0x0 c:/utils/devkitpro/devkitppc/bin/../lib/gcc/powerpc-gekko/4.2.4/../../../../powerpc-gekko/lib\libc.a(lib_a-fflush.o)
 .data          0x00000000        0x0 c:/utils/devkitpro/devkitppc/bin/../lib/gcc/powerpc-gekko/4.2.4/../../../../powerpc-gekko/lib\libc.a(lib_a-findfp.o)
 .data          0x00000000        0x0 c:/utils/devkitpro/devkitppc/bin/../lib/gcc/powerpc-gekko/4.2.4/../../../../powerpc-gekko/lib\libc.a(lib_a-fvwrite.o)
 .bss           0x00000000        0x0 c:/utils/devkitpro/devkitppc/bin/../lib/gcc/powerpc-gekko/4.2.4/../../../../powerpc-gekko/lib\libc.a(lib_a-fvwrite.o)
 .data          0x00000000        0x0 c:/utils/devkitpro/devkitppc/bin/../lib/gcc/powerpc-gekko/4.2.4/../../../../powerpc-gekko/lib\libc.a(lib_a-fwalk.o)
 .bss           0x00000000        0x0 c:/utils/devkitpro/devkitppc/bin/../lib/gcc/powerpc-gekko/4.2.4/../../../../powerpc-gekko/lib\libc.a(lib_a-fwalk.o)
 .bss           0x00000000        0x0 c:/utils/devkitpro/devkitppc/bin/../lib/gcc/powerpc-gekko/4.2.4/../../../../powerpc-gekko/lib\libc.a(lib_a-locale.o)
 .sbss          0x00000000        0x0 c:/utils/devkitpro/devkitppc/bin/../lib/gcc/powerpc-gekko/4.2.4/../../../../powerpc-gekko/lib\libc.a(lib_a-locale.o)
 .data          0x00000000        0x0 c:/utils/devkitpro/devkitppc/bin/../lib/gcc/powerpc-gekko/4.2.4/../../../../powerpc-gekko/lib\libc.a(lib_a-makebuf.o)
 .bss           0x00000000        0x0 c:/utils/devkitpro/devkitppc/bin/../lib/gcc/powerpc-gekko/4.2.4/../../../../powerpc-gekko/lib\libc.a(lib_a-makebuf.o)
 .data          0x00000000        0x0 c:/utils/devkitpro/devkitppc/bin/../lib/gcc/powerpc-gekko/4.2.4/../../../../powerpc-gekko/lib\libc.a(lib_a-mbtowc_r.o)
 .bss           0x00000000        0x0 c:/utils/devkitpro/devkitppc/bin/../lib/gcc/powerpc-gekko/4.2.4/../../../../powerpc-gekko/lib\libc.a(lib_a-mbtowc_r.o)
 .data          0x00000000        0x0 c:/utils/devkitpro/devkitppc/bin/../lib/gcc/powerpc-gekko/4.2.4/../../../../powerpc-gekko/lib\libc.a(lib_a-memchr.o)
 .bss           0x00000000        0x0 c:/utils/devkitpro/devkitppc/bin/../lib/gcc/powerpc-gekko/4.2.4/../../../../powerpc-gekko/lib\libc.a(lib_a-memchr.o)
 .data          0x00000000        0x0 c:/utils/devkitpro/devkitppc/bin/../lib/gcc/powerpc-gekko/4.2.4/../../../../powerpc-gekko/lib\libc.a(lib_a-mprec.o)
 .bss           0x00000000        0x0 c:/utils/devkitpro/devkitppc/bin/../lib/gcc/powerpc-gekko/4.2.4/../../../../powerpc-gekko/lib\libc.a(lib_a-mprec.o)
 .data          0x00000000        0x0 c:/utils/devkitpro/devkitppc/bin/../lib/gcc/powerpc-gekko/4.2.4/../../../../powerpc-gekko/lib\libc.a(lib_a-reallocr.o)
 .bss           0x00000000        0x0 c:/utils/devkitpro/devkitppc/bin/../lib/gcc/powerpc-gekko/4.2.4/../../../../powerpc-gekko/lib\libc.a(lib_a-reallocr.o)
 .data          0x00000000        0x0 c:/utils/devkitpro/devkitppc/bin/../lib/gcc/powerpc-gekko/4.2.4/../../../../powerpc-gekko/lib\libc.a(lib_a-s_isinfd.o)
 .bss           0x00000000        0x0 c:/utils/devkitpro/devkitppc/bin/../lib/gcc/powerpc-gekko/4.2.4/../../../../powerpc-gekko/lib\libc.a(lib_a-s_isinfd.o)
 .data          0x00000000        0x0 c:/utils/devkitpro/devkitppc/bin/../lib/gcc/powerpc-gekko/4.2.4/../../../../powerpc-gekko/lib\libc.a(lib_a-s_isnand.o)
 .bss           0x00000000        0x0 c:/utils/devkitpro/devkitppc/bin/../lib/gcc/powerpc-gekko/4.2.4/../../../../powerpc-gekko/lib\libc.a(lib_a-s_isnand.o)
 .data          0x00000000        0x0 c:/utils/devkitpro/devkitppc/bin/../lib/gcc/powerpc-gekko/4.2.4/../../../../powerpc-gekko/lib\libc.a(lib_a-stdio.o)
 .bss           0x00000000        0x0 c:/utils/devkitpro/devkitppc/bin/../lib/gcc/powerpc-gekko/4.2.4/../../../../powerpc-gekko/lib\libc.a(lib_a-stdio.o)
 .data          0x00000000        0x0 c:/utils/devkitpro/devkitppc/bin/../lib/gcc/powerpc-gekko/4.2.4/../../../../powerpc-gekko/lib\libc.a(lib_a-fclose.o)
 .bss           0x00000000        0x0 c:/utils/devkitpro/devkitppc/bin/../lib/gcc/powerpc-gekko/4.2.4/../../../../powerpc-gekko/lib\libc.a(lib_a-fclose.o)
 .data          0x00000000        0x0 c:/utils/devkitpro/devkitppc/bin/../lib/gcc/powerpc-gekko/4.2.4/../../../../powerpc-gekko/lib\libsysbase.a(close.o)
 .bss           0x00000000        0x0 c:/utils/devkitpro/devkitppc/bin/../lib/gcc/powerpc-gekko/4.2.4/../../../../powerpc-gekko/lib\libsysbase.a(close.o)
 .data          0x00000000        0x0 c:/utils/devkitpro/devkitppc/bin/../lib/gcc/powerpc-gekko/4.2.4/../../../../powerpc-gekko/lib\libsysbase.a(fstat.o)
 .bss           0x00000000        0x0 c:/utils/devkitpro/devkitppc/bin/../lib/gcc/powerpc-gekko/4.2.4/../../../../powerpc-gekko/lib\libsysbase.a(fstat.o)
 .data          0x00000000        0x0 c:/utils/devkitpro/devkitppc/bin/../lib/gcc/powerpc-gekko/4.2.4/../../../../powerpc-gekko/lib\libsysbase.a(isatty.o)
 .bss           0x00000000        0x0 c:/utils/devkitpro/devkitppc/bin/../lib/gcc/powerpc-gekko/4.2.4/../../../../powerpc-gekko/lib\libsysbase.a(isatty.o)
 .data          0x00000000        0x0 c:/utils/devkitpro/devkitppc/bin/../lib/gcc/powerpc-gekko/4.2.4/../../../../powerpc-gekko/lib\libsysbase.a(lseek.o)
 .bss           0x00000000        0x0 c:/utils/devkitpro/devkitppc/bin/../lib/gcc/powerpc-gekko/4.2.4/../../../../powerpc-gekko/lib\libsysbase.a(lseek.o)
 .data          0x00000000        0x0 c:/utils/devkitpro/devkitppc/bin/../lib/gcc/powerpc-gekko/4.2.4/../../../../powerpc-gekko/lib\libsysbase.a(read.o)
 .bss           0x00000000        0x0 c:/utils/devkitpro/devkitppc/bin/../lib/gcc/powerpc-gekko/4.2.4/../../../../powerpc-gekko/lib\libsysbase.a(read.o)
 .data          0x00000000        0x0 c:/utils/devkitpro/devkitppc/bin/../lib/gcc/powerpc-gekko/4.2.4/../../../../powerpc-gekko/lib\libsysbase.a(sbrk.o)
 .bss           0x00000000        0x0 c:/utils/devkitpro/devkitppc/bin/../lib/gcc/powerpc-gekko/4.2.4/../../../../powerpc-gekko/lib\libsysbase.a(sbrk.o)
 .data          0x00000000        0x0 c:/utils/devkitpro/devkitppc/bin/../lib/gcc/powerpc-gekko/4.2.4/../../../../powerpc-gekko/lib\libsysbase.a(write.o)
 .bss           0x00000000        0x0 c:/utils/devkitpro/devkitppc/bin/../lib/gcc/powerpc-gekko/4.2.4/../../../../powerpc-gekko/lib\libsysbase.a(write.o)
 .data          0x00000000        0x0 c:/utils/devkitpro/devkitppc/bin/../lib/gcc/powerpc-gekko/4.2.4/../../../../powerpc-gekko/lib\libsysbase.a(flock.o)
 .bss           0x00000000        0x0 c:/utils/devkitpro/devkitppc/bin/../lib/gcc/powerpc-gekko/4.2.4/../../../../powerpc-gekko/lib\libsysbase.a(flock.o)
 .data          0x00000000        0x0 c:/utils/devkitpro/devkitppc/bin/../lib/gcc/powerpc-gekko/4.2.4/../../../../powerpc-gekko/lib\libsysbase.a(handle_manager.o)
 .data          0x00000000        0x0 c:/utils/devkitpro/devkitppc/bin/../lib/gcc/powerpc-gekko/4.2.4\libgcc.a(_umoddi3.o)
 .bss           0x00000000        0x0 c:/utils/devkitpro/devkitppc/bin/../lib/gcc/powerpc-gekko/4.2.4\libgcc.a(_umoddi3.o)
 .text          0x00000000        0x0 c:/utils/devkitpro/devkitppc/bin/../lib/gcc/powerpc-gekko/4.2.4/crtsavres.o
 .data          0x00000000        0x0 c:/utils/devkitpro/devkitppc/bin/../lib/gcc/powerpc-gekko/4.2.4/crtsavres.o
 .bss           0x00000000        0x0 c:/utils/devkitpro/devkitppc/bin/../lib/gcc/powerpc-gekko/4.2.4/crtsavres.o
 .data          0x00000000        0x0 c:/utils/devkitpro/devkitppc/bin/../lib/gcc/powerpc-gekko/4.2.4/crtend.o
 .bss           0x00000000        0x0 c:/utils/devkitpro/devkitppc/bin/../lib/gcc/powerpc-gekko/4.2.4/crtend.o
 .text          0x00000000        0x0 c:/utils/devkitpro/devkitppc/bin/../lib/gcc/powerpc-gekko/4.2.4/ecrtn.o
 .data          0x00000000        0x0 c:/utils/devkitpro/devkitppc/bin/../lib/gcc/powerpc-gekko/4.2.4/ecrtn.o
 .bss           0x00000000        0x0 c:/utils/devkitpro/devkitppc/bin/../lib/gcc/powerpc-gekko/4.2.4/ecrtn.o
 .got           0x00000000        0x0 c:/utils/devkitpro/devkitppc/bin/../lib/gcc/powerpc-gekko/4.2.4/ecrtn.o
 .got1          0x00000000        0x0 c:/utils/devkitpro/devkitppc/bin/../lib/gcc/powerpc-gekko/4.2.4/ecrtn.o
 .got2          0x00000000        0x0 c:/utils/devkitpro/devkitppc/bin/../lib/gcc/powerpc-gekko/4.2.4/ecrtn.o
 .fixup         0x00000000        0x0 c:/utils/devkitpro/devkitppc/bin/../lib/gcc/powerpc-gekko/4.2.4/ecrtn.o
 .sdata         0x00000000        0x0 c:/utils/devkitpro/devkitppc/bin/../lib/gcc/powerpc-gekko/4.2.4/ecrtn.o
 .sbss          0x00000000        0x0 c:/utils/devkitpro/devkitppc/bin/../lib/gcc/powerpc-gekko/4.2.4/ecrtn.o
 .sdata2        0x00000000        0x0 c:/utils/devkitpro/devkitppc/bin/../lib/gcc/powerpc-gekko/4.2.4/ecrtn.o
 .sbss2         0x00000000        0x0 c:/utils/devkitpro/devkitppc/bin/../lib/gcc/powerpc-gekko/4.2.4/ecrtn.o
 .gcc_except_table
                0x00000000        0x0 c:/utils/devkitpro/devkitppc/bin/../lib/gcc/powerpc-gekko/4.2.4/ecrtn.o

Memory Configuration

Name             Origin             Length             Attributes
*default*        0x00000000         0xffffffff

Linker script and memory map

                0x00003400                . = 0x3400

.stub
 *(.stub)
                0x80004000                . = 0x80004000

.init           0x80004000      0x208
 *crt0.o(*.init)
 .init          0x80004000      0x1e4 c:/Utils/devkitPro/libogc/lib/wii\libogc.a(ogc_crt0.o)
                0x8000419c                _memset
                0x80004000                _start
                0x800041cc                video_line
 *(.init)
 .init          0x800041e4        0xc c:/utils/devkitpro/devkitppc/bin/../lib/gcc/powerpc-gekko/4.2.4/ecrti.o
                0x800041e4                __init
 .init          0x800041f0        0x4 c:/utils/devkitpro/devkitppc/bin/../lib/gcc/powerpc-gekko/4.2.4/crtbegin.o
 .init          0x800041f4        0x4 c:/utils/devkitpro/devkitppc/bin/../lib/gcc/powerpc-gekko/4.2.4/crtend.o
 .init          0x800041f8       0x10 c:/utils/devkitpro/devkitppc/bin/../lib/gcc/powerpc-gekko/4.2.4/ecrtn.o

.plt
 *(.plt)

.interp
 *(.interp)

.hash
 *(.hash)

.dynsym
 *(.dynsym)

.dynstr
 *(.dynstr)

.gnu.version
 *(.gnu.version)

.gnu.version_d
 *(.gnu.version_d)

.gnu.version_r
 *(.gnu.version_r)

.rel.init
 *(.rel.init)

.rela.init      0x80004208        0x0
 *(.rela.init)
 .rela.init     0x00000000        0x0 c:/utils/devkitpro/devkitppc/bin/../lib/gcc/powerpc-gekko/4.2.4/crtbegin.o

.rel.text
 *(.rel.text .rel.text.* .rel.gnu.linkonce.t.*)

.rela.text      0x80004208        0x0
 *(.rela.text .rela.text.* .rela.gnu.linkonce.t.*)
 .rela.text     0x00000000        0x0 c:/utils/devkitpro/devkitppc/bin/../lib/gcc/powerpc-gekko/4.2.4/crtbegin.o
 .rela.text.wiiuse_init_cmd_queue
                0x00000000        0x0 c:/utils/devkitpro/devkitppc/bin/../lib/gcc/powerpc-gekko/4.2.4/crtbegin.o
 .rela.text.wiiuse_init
                0x00000000        0x0 c:/utils/devkitpro/devkitppc/bin/../lib/gcc/powerpc-gekko/4.2.4/crtbegin.o
 .rela.text.guitar_hero_3_handshake
                0x00000000        0x0 c:/utils/devkitpro/devkitppc/bin/../lib/gcc/powerpc-gekko/4.2.4/crtbegin.o
 .rela.text.wiiuse_handshake_expansion
                0x00000000        0x0 c:/utils/devkitpro/devkitppc/bin/../lib/gcc/powerpc-gekko/4.2.4/crtbegin.o
 .rela.text.wiiuse_handshake
                0x00000000        0x0 c:/utils/devkitpro/devkitppc/bin/../lib/gcc/powerpc-gekko/4.2.4/crtbegin.o
 .rela.text.bt_alarmhandler
                0x00000000        0x0 c:/utils/devkitpro/devkitppc/bin/../lib/gcc/powerpc-gekko/4.2.4/crtbegin.o
 .rela.text.CON_EnableGecko
                0x00000000        0x0 c:/utils/devkitpro/devkitppc/bin/../lib/gcc/powerpc-gekko/4.2.4/crtbegin.o
 .rela.text.__console_init
                0x00000000        0x0 c:/utils/devkitpro/devkitppc/bin/../lib/gcc/powerpc-gekko/4.2.4/crtbegin.o
 .rela.text.__console_init_ex
                0x00000000        0x0 c:/utils/devkitpro/devkitppc/bin/../lib/gcc/powerpc-gekko/4.2.4/crtbegin.o
 .rela.text.__lwp_rotate_readyqueue
                0x00000000        0x0 c:/utils/devkitpro/devkitppc/bin/../lib/gcc/powerpc-gekko/4.2.4/crtbegin.o
 .rela.text.__lwp_thread_setstate
                0x00000000        0x0 c:/utils/devkitpro/devkitppc/bin/../lib/gcc/powerpc-gekko/4.2.4/crtbegin.o
 .rela.text.__lwp_thread_setpriority
                0x00000000        0x0 c:/utils/devkitpro/devkitppc/bin/../lib/gcc/powerpc-gekko/4.2.4/crtbegin.o
 .rela.text.__lwp_thread_ready
                0x00000000        0x0 c:/utils/devkitpro/devkitppc/bin/../lib/gcc/powerpc-gekko/4.2.4/crtbegin.o
 .rela.text.__lwp_thread_close
                0x00000000        0x0 c:/utils/devkitpro/devkitppc/bin/../lib/gcc/powerpc-gekko/4.2.4/crtbegin.o
 .rela.text.__lwp_thread_closeall
                0x00000000        0x0 c:/utils/devkitpro/devkitppc/bin/../lib/gcc/powerpc-gekko/4.2.4/crtbegin.o
 .rela.text.__lwp_thread_stopmultitasking
                0x00000000        0x0 c:/utils/devkitpro/devkitppc/bin/../lib/gcc/powerpc-gekko/4.2.4/crtbegin.o
 .rela.text.__lwp_thread_changepriority
                0x00000000        0x0 c:/utils/devkitpro/devkitppc/bin/../lib/gcc/powerpc-gekko/4.2.4/crtbegin.o
 .rela.text.__lwp_thread_coreinit
                0x00000000        0x0 c:/utils/devkitpro/devkitppc/bin/../lib/gcc/powerpc-gekko/4.2.4/crtbegin.o
 .rela.text.__lwp_thread_suspend
                0x00000000        0x0 c:/utils/devkitpro/devkitppc/bin/../lib/gcc/powerpc-gekko/4.2.4/crtbegin.o
 .rela.text.__lwp_thread_startmultitasking
                0x00000000        0x0 c:/utils/devkitpro/devkitppc/bin/../lib/gcc/powerpc-gekko/4.2.4/crtbegin.o
 .rela.text.__lwp_thread_tickle_timeslice
                0x00000000        0x0 c:/utils/devkitpro/devkitppc/bin/../lib/gcc/powerpc-gekko/4.2.4/crtbegin.o
 .rela.text.__lwp_thread_context
                0x00000000        0x0 c:/utils/devkitpro/devkitppc/bin/../lib/gcc/powerpc-gekko/4.2.4/crtbegin.o
 .rela.text.__lwp_thread_exists
                0x00000000        0x0 c:/utils/devkitpro/devkitppc/bin/../lib/gcc/powerpc-gekko/4.2.4/crtbegin.o
 .rela.text.__lwp_thread_isalive
                0x00000000        0x0 c:/utils/devkitpro/devkitppc/bin/../lib/gcc/powerpc-gekko/4.2.4/crtbegin.o
 .rela.text.__lwp_sysinit
                0x00000000        0x0 c:/utils/devkitpro/devkitppc/bin/../lib/gcc/powerpc-gekko/4.2.4/crtbegin.o
 .rela.text.LWP_ThreadSignal
                0x00000000        0x0 c:/utils/devkitpro/devkitppc/bin/../lib/gcc/powerpc-gekko/4.2.4/crtbegin.o
 .rela.text.LWP_ThreadBroadcast
                0x00000000        0x0 c:/utils/devkitpro/devkitppc/bin/../lib/gcc/powerpc-gekko/4.2.4/crtbegin.o
 .rela.text.LWP_ThreadSleep
                0x00000000        0x0 c:/utils/devkitpro/devkitppc/bin/../lib/gcc/powerpc-gekko/4.2.4/crtbegin.o
 .rela.text.LWP_CloseQueue
                0x00000000        0x0 c:/utils/devkitpro/devkitppc/bin/../lib/gcc/powerpc-gekko/4.2.4/crtbegin.o
 .rela.text.LWP_InitQueue
                0x00000000        0x0 c:/utils/devkitpro/devkitppc/bin/../lib/gcc/powerpc-gekko/4.2.4/crtbegin.o
 .rela.text.LWP_JoinThread
                0x00000000        0x0 c:/utils/devkitpro/devkitppc/bin/../lib/gcc/powerpc-gekko/4.2.4/crtbegin.o
 .rela.text.LWP_ThreadIsSuspended
                0x00000000        0x0 c:/utils/devkitpro/devkitppc/bin/../lib/gcc/powerpc-gekko/4.2.4/crtbegin.o
 .rela.text.LWP_SetThreadPriority
                0x00000000        0x0 c:/utils/devkitpro/devkitppc/bin/../lib/gcc/powerpc-gekko/4.2.4/crtbegin.o
 .rela.text.LWP_ResumeThread
                0x00000000        0x0 c:/utils/devkitpro/devkitppc/bin/../lib/gcc/powerpc-gekko/4.2.4/crtbegin.o
 .rela.text.LWP_SuspendThread
                0x00000000        0x0 c:/utils/devkitpro/devkitppc/bin/../lib/gcc/powerpc-gekko/4.2.4/crtbegin.o
 .rela.text.LWP_CreateThread
                0x00000000        0x0 c:/utils/devkitpro/devkitppc/bin/../lib/gcc/powerpc-gekko/4.2.4/crtbegin.o
 .rela.text.__lwp_stack_free
                0x00000000        0x0 c:/utils/devkitpro/devkitppc/bin/../lib/gcc/powerpc-gekko/4.2.4/crtbegin.o
 .rela.text.__lwp_stack_allocate
                0x00000000        0x0 c:/utils/devkitpro/devkitppc/bin/../lib/gcc/powerpc-gekko/4.2.4/crtbegin.o
 .rela.text.__lwp_watchdog_init
                0x00000000        0x0 c:/utils/devkitpro/devkitppc/bin/../lib/gcc/powerpc-gekko/4.2.4/crtbegin.o
 .rela.text.__lwp_wd_tickle
                0x00000000        0x0 c:/utils/devkitpro/devkitppc/bin/../lib/gcc/powerpc-gekko/4.2.4/crtbegin.o
 .rela.text.__lwp_wkspace_init
                0x00000000        0x0 c:/utils/devkitpro/devkitppc/bin/../lib/gcc/powerpc-gekko/4.2.4/crtbegin.o
 .rela.text.__lwp_wkspace_heapused
                0x00000000        0x0 c:/utils/devkitpro/devkitppc/bin/../lib/gcc/powerpc-gekko/4.2.4/crtbegin.o
 .rela.text.__lwp_wkspace_heapfree
                0x00000000        0x0 c:/utils/devkitpro/devkitppc/bin/../lib/gcc/powerpc-gekko/4.2.4/crtbegin.o
 .rela.text.__lwp_objmgr_initinfo
                0x00000000        0x0 c:/utils/devkitpro/devkitppc/bin/../lib/gcc/powerpc-gekko/4.2.4/crtbegin.o
 .rela.text.__irq_init
                0x00000000        0x0 c:/utils/devkitpro/devkitppc/bin/../lib/gcc/powerpc-gekko/4.2.4/crtbegin.o
 .rela.text.__sram_sync
                0x00000000        0x0 c:/utils/devkitpro/devkitppc/bin/../lib/gcc/powerpc-gekko/4.2.4/crtbegin.o
 .rela.text.__locksram
                0x00000000        0x0 c:/utils/devkitpro/devkitppc/bin/../lib/gcc/powerpc-gekko/4.2.4/crtbegin.o
 .rela.text.__sram_init
                0x00000000        0x0 c:/utils/devkitpro/devkitppc/bin/../lib/gcc/powerpc-gekko/4.2.4/crtbegin.o
 .rela.text.SYS_Init
                0x00000000        0x0 c:/utils/devkitpro/devkitppc/bin/../lib/gcc/powerpc-gekko/4.2.4/crtbegin.o
 .rela.text.__unlocksram
                0x00000000        0x0 c:/utils/devkitpro/devkitppc/bin/../lib/gcc/powerpc-gekko/4.2.4/crtbegin.o
 .rela.text.__sram_writecallback
                0x00000000        0x0 c:/utils/devkitpro/devkitppc/bin/../lib/gcc/powerpc-gekko/4.2.4/crtbegin.o
 .rela.text.SYS_CancelAlarm
                0x00000000        0x0 c:/utils/devkitpro/devkitppc/bin/../lib/gcc/powerpc-gekko/4.2.4/crtbegin.o
 .rela.text.SYS_RemoveAlarm
                0x00000000        0x0 c:/utils/devkitpro/devkitppc/bin/../lib/gcc/powerpc-gekko/4.2.4/crtbegin.o
 .rela.text.SYS_SetAlarm
                0x00000000        0x0 c:/utils/devkitpro/devkitppc/bin/../lib/gcc/powerpc-gekko/4.2.4/crtbegin.o
 .rela.text.__sys_alarmhandler
                0x00000000        0x0 c:/utils/devkitpro/devkitppc/bin/../lib/gcc/powerpc-gekko/4.2.4/crtbegin.o
 .rela.text.SYS_SetPeriodicAlarm
                0x00000000        0x0 c:/utils/devkitpro/devkitppc/bin/../lib/gcc/powerpc-gekko/4.2.4/crtbegin.o
 .rela.text.__lwp_cond_init
                0x00000000        0x0 c:/utils/devkitpro/devkitppc/bin/../lib/gcc/powerpc-gekko/4.2.4/crtbegin.o
 .rela.text.LWP_CondDestroy
                0x00000000        0x0 c:/utils/devkitpro/devkitppc/bin/../lib/gcc/powerpc-gekko/4.2.4/crtbegin.o
 .rela.text.LWP_CondInit
                0x00000000        0x0 c:/utils/devkitpro/devkitppc/bin/../lib/gcc/powerpc-gekko/4.2.4/crtbegin.o
 .rela.text.__lwp_cond_signalsupp
                0x00000000        0x0 c:/utils/devkitpro/devkitppc/bin/../lib/gcc/powerpc-gekko/4.2.4/crtbegin.o
 .rela.text.__lwp_cond_waitsupp
                0x00000000        0x0 c:/utils/devkitpro/devkitppc/bin/../lib/gcc/powerpc-gekko/4.2.4/crtbegin.o
 .rela.text.c_decrementer_handler
                0x00000000        0x0 c:/utils/devkitpro/devkitppc/bin/../lib/gcc/powerpc-gekko/4.2.4/crtbegin.o
 .rela.text.__lwp_mqbox_init
                0x00000000        0x0 c:/utils/devkitpro/devkitppc/bin/../lib/gcc/powerpc-gekko/4.2.4/crtbegin.o
 .rela.text.MQ_Close
                0x00000000        0x0 c:/utils/devkitpro/devkitppc/bin/../lib/gcc/powerpc-gekko/4.2.4/crtbegin.o
 .rela.text.MQ_Init
                0x00000000        0x0 c:/utils/devkitpro/devkitppc/bin/../lib/gcc/powerpc-gekko/4.2.4/crtbegin.o
 .rela.text.MQ_Jam
                0x00000000        0x0 c:/utils/devkitpro/devkitppc/bin/../lib/gcc/powerpc-gekko/4.2.4/crtbegin.o
 .rela.text.MQ_Receive
                0x00000000        0x0 c:/utils/devkitpro/devkitppc/bin/../lib/gcc/powerpc-gekko/4.2.4/crtbegin.o
 .rela.text.MQ_Send
                0x00000000        0x0 c:/utils/devkitpro/devkitppc/bin/../lib/gcc/powerpc-gekko/4.2.4/crtbegin.o
 .rela.text.__ios_ioctlvformat_parse
                0x00000000        0x0 c:/utils/devkitpro/devkitppc/bin/../lib/gcc/powerpc-gekko/4.2.4/crtbegin.o
 .rela.text.__ioctlvfmtCB
                0x00000000        0x0 c:/utils/devkitpro/devkitppc/bin/../lib/gcc/powerpc-gekko/4.2.4/crtbegin.o
 .rela.text.IOS_IoctlvFormatAsync
                0x00000000        0x0 c:/utils/devkitpro/devkitppc/bin/../lib/gcc/powerpc-gekko/4.2.4/crtbegin.o
 .rela.text.IOS_IoctlvFormat
                0x00000000        0x0 c:/utils/devkitpro/devkitppc/bin/../lib/gcc/powerpc-gekko/4.2.4/crtbegin.o
 .rela.text.nanosleep
                0x00000000        0x0 c:/utils/devkitpro/devkitppc/bin/../lib/gcc/powerpc-gekko/4.2.4/crtbegin.o
 .rela.text.__libc_init
                0x00000000        0x0 c:/utils/devkitpro/devkitppc/bin/../lib/gcc/powerpc-gekko/4.2.4/crtbegin.o
 .rela.text.__libc_wrapup
                0x00000000        0x0 c:/utils/devkitpro/devkitppc/bin/../lib/gcc/powerpc-gekko/4.2.4/crtbegin.o
 .rela.text.__libc_delete_hook
                0x00000000        0x0 c:/utils/devkitpro/devkitppc/bin/../lib/gcc/powerpc-gekko/4.2.4/crtbegin.o
 .rela.text.__CheckARGV
                0x00000000        0x0 c:/utils/devkitpro/devkitppc/bin/../lib/gcc/powerpc-gekko/4.2.4/crtbegin.o
 .rela.text.__lwp_priority_init
                0x00000000        0x0 c:/utils/devkitpro/devkitppc/bin/../lib/gcc/powerpc-gekko/4.2.4/crtbegin.o
 .rela.text.__lwp_threadqueue_extractpriority
                0x00000000        0x0 c:/utils/devkitpro/devkitppc/bin/../lib/gcc/powerpc-gekko/4.2.4/crtbegin.o
 .rela.text.__lwp_threadqueue_extractfifo
                0x00000000        0x0 c:/utils/devkitpro/devkitppc/bin/../lib/gcc/powerpc-gekko/4.2.4/crtbegin.o
 .rela.text.__lwp_threadqueue_dequeuepriority
                0x00000000        0x0 c:/utils/devkitpro/devkitppc/bin/../lib/gcc/powerpc-gekko/4.2.4/crtbegin.o
 .rela.text.__lwp_threadqueue_enqueuepriority
                0x00000000        0x0 c:/utils/devkitpro/devkitppc/bin/../lib/gcc/powerpc-gekko/4.2.4/crtbegin.o
 .rela.text.__lwp_threadqueue_dequeuefifo
                0x00000000        0x0 c:/utils/devkitpro/devkitppc/bin/../lib/gcc/powerpc-gekko/4.2.4/crtbegin.o
 .rela.text.__lwp_threadqueue_enqueuefifo
                0x00000000        0x0 c:/utils/devkitpro/devkitppc/bin/../lib/gcc/powerpc-gekko/4.2.4/crtbegin.o
 .rela.text.__lwp_threadqueue_enqueue
                0x00000000        0x0 c:/utils/devkitpro/devkitppc/bin/../lib/gcc/powerpc-gekko/4.2.4/crtbegin.o
 .rela.text.__lwpmq_close
                0x00000000        0x0 c:/utils/devkitpro/devkitppc/bin/../lib/gcc/powerpc-gekko/4.2.4/crtbegin.o
 .rela.text.__lwpmq_initialize
                0x00000000        0x0 c:/utils/devkitpro/devkitppc/bin/../lib/gcc/powerpc-gekko/4.2.4/crtbegin.o
 .rela.text.__exception_sethandler
                0x00000000        0x0 c:/utils/devkitpro/devkitppc/bin/../lib/gcc/powerpc-gekko/4.2.4/crtbegin.o
 .rela.text.__exception_init
                0x00000000        0x0 c:/utils/devkitpro/devkitppc/bin/../lib/gcc/powerpc-gekko/4.2.4/crtbegin.o
 .rela.text.__systemcall_init
                0x00000000        0x0 c:/utils/devkitpro/devkitppc/bin/../lib/gcc/powerpc-gekko/4.2.4/crtbegin.o
 .rela.text.__lwp_sema_init
                0x00000000        0x0 c:/utils/devkitpro/devkitppc/bin/../lib/gcc/powerpc-gekko/4.2.4/crtbegin.o
 .rela.text.LWP_SemInit
                0x00000000        0x0 c:/utils/devkitpro/devkitppc/bin/../lib/gcc/powerpc-gekko/4.2.4/crtbegin.o
 .rela.text.LWP_SemDestroy
                0x00000000        0x0 c:/utils/devkitpro/devkitppc/bin/../lib/gcc/powerpc-gekko/4.2.4/crtbegin.o
 .rela.text.LWP_SemPost
                0x00000000        0x0 c:/utils/devkitpro/devkitppc/bin/../lib/gcc/powerpc-gekko/4.2.4/crtbegin.o
 .rela.text.LWP_SemWait
                0x00000000        0x0 c:/utils/devkitpro/devkitppc/bin/../lib/gcc/powerpc-gekko/4.2.4/crtbegin.o
 .rela.text.LWP_MutexInit
                0x00000000        0x0 c:/utils/devkitpro/devkitppc/bin/../lib/gcc/powerpc-gekko/4.2.4/crtbegin.o
 .rela.text.__lwp_mutex_init
                0x00000000        0x0 c:/utils/devkitpro/devkitppc/bin/../lib/gcc/powerpc-gekko/4.2.4/crtbegin.o
 .rela.text.LWP_MutexDestroy
                0x00000000        0x0 c:/utils/devkitpro/devkitppc/bin/../lib/gcc/powerpc-gekko/4.2.4/crtbegin.o
 .rela.text.__lwp_mutex_locksupp
                0x00000000        0x0 c:/utils/devkitpro/devkitppc/bin/../lib/gcc/powerpc-gekko/4.2.4/crtbegin.o
 .rela.text.LWP_MutexUnlock
                0x00000000        0x0 c:/utils/devkitpro/devkitppc/bin/../lib/gcc/powerpc-gekko/4.2.4/crtbegin.o
 .rela.text.kprintf
                0x00000000        0x0 c:/utils/devkitpro/devkitppc/bin/../lib/gcc/powerpc-gekko/4.2.4/crtbegin.o

.rel.fini
 *(.rel.fini)

.rela.fini
 *(.rela.fini)

.rel.rodata
 *(.rel.rodata .rel.rodata.* .rel.gnu.linkonce.r.*)

.rela.rodata
 *(.rela.rodata .rela.rodata.* .rela.gnu.linkonce.r.*)

.rel.data
 *(.rel.data .rel.data.* .rel.gnu.linkonce.d.*)

.rela.data
 *(.rela.data .rela.data.* .rela.gnu.linkonce.d.*)

.rel.tdata
 *(.rel.tdata .rel.tdata.* .rel.gnu.linkonce.td.*)

.rela.tdata
 *(.rela.tdata .rela.tdata.* .rela.gnu.linkonce.td.*)

.rel.tbss
 *(.rel.tbss .rel.tbss.* .rel.gnu.linkonce.tb.*)

.rela.tbss
 *(.rela.tbss .rela.tbss.* .rela.gnu.linkonce.tb.*)

.rel.ctors
 *(.rel.ctors)

.rela.ctors
 *(.rela.ctors)

.rel.dtors
 *(.rel.dtors)

.rela.dtors
 *(.rela.dtors)

.rel.got
 *(.rel.got)

.rela.got
 *(.rela.got)

.rela.got1
 *(.rela.got1)

.rela.got2      0x80004208        0x0
 *(.rela.got2)
 .rela.got2     0x00000000        0x0 c:/utils/devkitpro/devkitppc/bin/../lib/gcc/powerpc-gekko/4.2.4/crtbegin.o

.rel.sdata
 *(.rel.sdata .rel.sdata.* .rel.gnu.linkonce.s.*)

.rela.sdata
 *(.rela.sdata .rela.sdata.* .rela.gnu.linkonce.s.*)

.rel.sbss
 *(.rel.sbss .rel.sbss.* .rel.gnu.linkonce.sb.*)

.rela.sbss
 *(.rela.sbss .rela.sbss.* .rel.gnu.linkonce.sb.*)

.rel.sdata2
 *(.rel.sdata2 .rel.sdata2.* .rel.gnu.linkonce.s2.*)

.rela.sdata2    0x80004208        0x0
 *(.rela.sdata2 .rela.sdata2.* .rela.gnu.linkonce.s2.*)
 .rela.sdata2.__sys_inIPL
                0x00000000        0x0 c:/utils/devkitpro/devkitppc/bin/../lib/gcc/powerpc-gekko/4.2.4/crtbegin.o

.rel.sbss2
 *(.rel.sbss2 .rel.sbss2.* .rel.gnu.linkonce.sb2.*)

.rela.sbss2
 *(.rela.sbss2 .rela.sbss2.* .rela.gnu.linkonce.sb2.*)

.rel.bss
 *(.rel.bss .rel.bss.* .rel.gnu.linkonce.b.*)

.rela.bss
 *(.rela.bss .rela.bss.* .rela.gnu.linkonce.b.*)

.rel.plt
 *(.rel.plt)

.rela.plt
 *(.rela.plt)

.text           0x80004220    0x31d00
 *(.text)
 .text          0x80004220      0x140 c:/utils/devkitpro/devkitppc/bin/../lib/gcc/powerpc-gekko/4.2.4/crtbegin.o
 .text          0x80004360       0x48 c:/utils/devkitpro/devkitppc/bin/../lib/gcc/powerpc-gekko/4.2.4/../../../../powerpc-gekko/lib/crtmain.o
                0x80004364                __crtmain
 .text          0x800043a8      0x248 test.o
                0x800043a8                main
 *fill*         0x800045f0       0x10 00000000
 .text          0x80004600      0x4ec c:/Utils/devkitPro/libogc/lib/wii\libogc.a(lwp_handler.o)
                0x80004740                _cpu_context_restore_fp
                0x80004a00                _cpu_context_save
                0x80004600                _cpu_context_save_fp
                0x80004880                _cpu_context_switch
                0x80004a80                _cpu_context_restore
 .text          0x80004aec      0x5c4 c:/Utils/devkitPro/libogc/lib/wii\libogc.a(system_asm.o)
                0x80004b84                __configMEM1_48Mb
                0x80005010                __reset
                0x80004aec                __realmode
                0x80004ef4                __CacheInit
                0x80004ce4                __configMEM2_64Mb
                0x80004f58                __SystemInit
                0x80004e40                __configMEM2_128Mb
                0x80004b04                __configMEM1_24Mb
                0x80004ebc                __PSInit
                0x80004c04                __configMEM2_56Mb
                0x80004d60                __configMEM2_112Mb
                0x80004fdc                __flush_cache
                0x80005080                SYS_SwitchFiber
 .text          0x800050b0      0x1b0 c:/Utils/devkitPro/libogc/lib/wii\libogc.a(irq_handler.o)
                0x800050b0                irq_exceptionhandler
 .text          0x80005260      0x4d8 c:/Utils/devkitPro/libogc/lib/wii\libogc.a(cache_asm.o)
                0x8000553c                L2Disable
                0x800052c4                DCBlockZero
                0x8000537c                DCFlushRangeNoSync
                0x800054d0                ICBlockInvalidate
                0x80005260                DCFlashInvalidate
                0x800052cc                DCBlockStore
                0x800053dc                DCZeroRange
                0x800056f0                LCLoadBlocks
                0x800052bc                DCTouchLoad
                0x800056b0                LCAllocTags
                0x80005498                ICDisable
                0x80005484                ICEnable
                0x80005554                L2GlobalInvalidate
                0x80005714                LCStoreBlocks
                0x80005474                ICFlashInvalidate
                0x8000540c                DCTouchRange
                0x800053ac                DCStoreRangeNoSync
                0x800054ac                ICFreeze
                0x80005284                DCDisable
                0x800052d4                DCBlockFlush
                0x80005270                DCEnable
                0x80005528                L2Enable
                0x800055ac                __LCEnable
                0x800052e4                DCInvalidateRange
                0x8000569c                LCAllocOneTag
                0x800052ac                DCUnfreeze
                0x8000543c                ICInvalidateRange
                0x80005314                DCFlushRange
                0x800054d8                ICSync
                0x800052dc                DCBlockInvalidate
                0x80005298                DCFreeze
                0x800054e0                L2Init
                0x800054c0                ICUnfreeze
                0x80005348                DCStoreRange
                0x80005674                LCDisable
 .text          0x80005738      0x1b0 c:/Utils/devkitPro/libogc/lib/wii\libogc.a(decrementer_handler.o)
                0x80005738                dec_exceptionhandler
 .text          0x800058e8      0x34c c:/Utils/devkitPro/libogc/lib/wii\libogc.a(exception_handler.o)
                0x800058e8                exceptionhandler_start
                0x8000599c                default_exceptionhandler
                0x80005c30                systemcallhandler_end
                0x80005c14                systemcallhandler_start
                0x80005998                exceptionhandler_end
                0x80005964                exceptionhandler_patch
                0x80005adc                fpu_exceptionhandler
 .text          0x80005c34       0x34 c:/utils/devkitpro/devkitppc/bin/../lib/gcc/powerpc-gekko/4.2.4/../../../../powerpc-gekko/lib\libm.a(lib_a-s_atan2.o)
                0x80005c34                atan2
 .text          0x80005c68      0x284 c:/utils/devkitpro/devkitppc/bin/../lib/gcc/powerpc-gekko/4.2.4/../../../../powerpc-gekko/lib\libm.a(lib_a-s_atangent.o)
                0x80005c68                atangent
 .text          0x80005eec       0x24 c:/utils/devkitpro/devkitppc/bin/../lib/gcc/powerpc-gekko/4.2.4/../../../../powerpc-gekko/lib\libm.a(lib_a-s_cos.o)
                0x80005eec                cos
 .text          0x80005f10       0xb4 c:/utils/devkitpro/devkitppc/bin/../lib/gcc/powerpc-gekko/4.2.4/../../../../powerpc-gekko/lib\libm.a(lib_a-s_fabs.o)
                0x80005f10                fabs
 .text          0x80005fc4       0xb4 c:/utils/devkitpro/devkitppc/bin/../lib/gcc/powerpc-gekko/4.2.4/../../../../powerpc-gekko/lib\libm.a(lib_a-s_frexp.o)
                0x80005fc4                frexp
 .text          0x80006078       0x50 c:/utils/devkitpro/devkitppc/bin/../lib/gcc/powerpc-gekko/4.2.4/../../../../powerpc-gekko/lib\libm.a(lib_a-s_numtest.o)
                0x80006078                numtest
 .text          0x800060c8       0x24 c:/utils/devkitpro/devkitppc/bin/../lib/gcc/powerpc-gekko/4.2.4/../../../../powerpc-gekko/lib\libm.a(lib_a-s_sin.o)
                0x800060c8                sin
 .text          0x800060ec      0x2c4 c:/utils/devkitpro/devkitppc/bin/../lib/gcc/powerpc-gekko/4.2.4/../../../../powerpc-gekko/lib\libm.a(lib_a-s_sine.o)
                0x800060ec                sine
 .text          0x800063b0      0x184 c:/utils/devkitpro/devkitppc/bin/../lib/gcc/powerpc-gekko/4.2.4/../../../../powerpc-gekko/lib\libm.a(lib_a-s_sqrt.o)
                0x800063b0                sqrt
 .text          0x80006534       0xc8 c:/utils/devkitpro/devkitppc/bin/../lib/gcc/powerpc-gekko/4.2.4/../../../../powerpc-gekko/lib\libm.a(lib_a-sf_atan.o)
                0x80006534                atanf
 .text          0x800065fc       0x38 c:/utils/devkitpro/devkitppc/bin/../lib/gcc/powerpc-gekko/4.2.4/../../../../powerpc-gekko/lib\libm.a(lib_a-sf_atan2.o)
                0x800065fc                atan2f
 .text          0x80006634      0x250 c:/utils/devkitpro/devkitppc/bin/../lib/gcc/powerpc-gekko/4.2.4/../../../../powerpc-gekko/lib\libm.a(lib_a-sf_atangent.o)
                0x80006634                atangentf
 .text          0x80006884       0x24 c:/utils/devkitpro/devkitppc/bin/../lib/gcc/powerpc-gekko/4.2.4/../../../../powerpc-gekko/lib\libm.a(lib_a-sf_cos.o)
                0x80006884                cosf
 .text          0x800068a8       0xb4 c:/utils/devkitpro/devkitppc/bin/../lib/gcc/powerpc-gekko/4.2.4/../../../../powerpc-gekko/lib\libm.a(lib_a-sf_fabs.o)
                0x800068a8                fabsf
 .text          0x8000695c       0xa8 c:/utils/devkitpro/devkitppc/bin/../lib/gcc/powerpc-gekko/4.2.4/../../../../powerpc-gekko/lib\libm.a(lib_a-sf_fpclassify.o)
                0x8000695c                __fpclassifyf
 .text          0x80006a04       0x90 c:/utils/devkitpro/devkitppc/bin/../lib/gcc/powerpc-gekko/4.2.4/../../../../powerpc-gekko/lib\libm.a(lib_a-sf_frexp.o)
                0x80006a04                frexpf
 .text          0x80006a94       0x24 c:/utils/devkitpro/devkitppc/bin/../lib/gcc/powerpc-gekko/4.2.4/../../../../powerpc-gekko/lib\libm.a(lib_a-sf_isinff.o)
                0x80006a94                __isinff
 .text          0x80006ab8       0x28 c:/utils/devkitpro/devkitppc/bin/../lib/gcc/powerpc-gekko/4.2.4/../../../../powerpc-gekko/lib\libm.a(lib_a-sf_isnanf.o)
                0x80006ab8                __isnanf
 .text          0x80006ae0       0x48 c:/utils/devkitpro/devkitppc/bin/../lib/gcc/powerpc-gekko/4.2.4/../../../../powerpc-gekko/lib\libm.a(lib_a-sf_numtest.o)
                0x80006ae0                numtestf
 .text          0x80006b28       0x24 c:/utils/devkitpro/devkitppc/bin/../lib/gcc/powerpc-gekko/4.2.4/../../../../powerpc-gekko/lib\libm.a(lib_a-sf_sin.o)
                0x80006b28                sinf
 .text          0x80006b4c      0x2b8 c:/utils/devkitpro/devkitppc/bin/../lib/gcc/powerpc-gekko/4.2.4/../../../../powerpc-gekko/lib\libm.a(lib_a-sf_sine.o)
                0x80006b4c                sinef
 .text          0x80006e04      0x190 c:/utils/devkitpro/devkitppc/bin/../lib/gcc/powerpc-gekko/4.2.4/../../../../powerpc-gekko/lib\libm.a(lib_a-sf_sqrt.o)
                0x80006e04                sqrtf
 .text          0x80006f94       0x1c c:/utils/devkitpro/devkitppc/bin/../lib/gcc/powerpc-gekko/4.2.4/../../../../powerpc-gekko/lib\libm.a(lib_a-s_ispos.o)
                0x80006f94                ispos
 .text          0x80006fb0      0x154 c:/utils/devkitpro/devkitppc/bin/../lib/gcc/powerpc-gekko/4.2.4/../../../../powerpc-gekko/lib\libm.a(lib_a-s_ldexp.o)
                0x80006fb0                ldexp
 .text          0x80007104       0x1c c:/utils/devkitpro/devkitppc/bin/../lib/gcc/powerpc-gekko/4.2.4/../../../../powerpc-gekko/lib\libm.a(lib_a-sf_ispos.o)
                0x80007104                isposf
 .text          0x80007120      0x14c c:/utils/devkitpro/devkitppc/bin/../lib/gcc/powerpc-gekko/4.2.4/../../../../powerpc-gekko/lib\libm.a(lib_a-sf_ldexp.o)
                0x80007120                ldexpf
 .text          0x8000726c      0x408 c:/utils/devkitpro/devkitppc/bin/../lib/gcc/powerpc-gekko/4.2.4\libgcc.a(_udivdi3.o)
                0x8000726c                __udivdi3
 .text          0x80007674       0x28 c:/utils/devkitpro/devkitppc/bin/../lib/gcc/powerpc-gekko/4.2.4/../../../../powerpc-gekko/lib\libsysbase.a(abort.o)
                0x80007674                abort
 .text          0x8000769c      0x2c4 c:/utils/devkitpro/devkitppc/bin/../lib/gcc/powerpc-gekko/4.2.4/../../../../powerpc-gekko/lib\libsysbase.a(iosupport.o)
                0x80007910                RemoveDevice
                0x8000769c                setDefaultDevice
                0x800076b4                AddDevice
                0x800078cc                GetDeviceOpTab
                0x800077dc                FindDevice
 .text          0x80007960       0x28 c:/utils/devkitpro/devkitppc/bin/../lib/gcc/powerpc-gekko/4.2.4/../../../../powerpc-gekko/lib\libsysbase.a(_exit.o)
                0x80007960                _exit
 .text          0x80007988       0x9c c:/utils/devkitpro/devkitppc/bin/../lib/gcc/powerpc-gekko/4.2.4/../../../../powerpc-gekko/lib\libsysbase.a(build_argv.o)
                0x80007988                build_argv
 .text          0x80007a24      0x168 c:/utils/devkitpro/devkitppc/bin/../lib/gcc/powerpc-gekko/4.2.4/../../../../powerpc-gekko/lib\libsysbase.a(syscall_support.o)
                0x80007b58                __malloc_unlock
                0x80007aa4                __libc_lock_release
                0x80007a24                __libc_lock_init
                0x80007b24                __malloc_lock
                0x80007a64                __libc_lock_close
                0x80007ae4                __libc_lock_acquire
 .text          0x80007b8c       0x34 c:/utils/devkitpro/devkitppc/bin/../lib/gcc/powerpc-gekko/4.2.4/../../../../powerpc-gekko/lib\libc.a(lib_a-calloc.o)
                0x80007b8c                calloc
 .text          0x80007bc0       0xd0 c:/utils/devkitpro/devkitppc/bin/../lib/gcc/powerpc-gekko/4.2.4/../../../../powerpc-gekko/lib\libc.a(lib_a-callocr.o)
                0x80007bc0                _calloc_r
 .text          0x80007c90        0xc c:/utils/devkitpro/devkitppc/bin/../lib/gcc/powerpc-gekko/4.2.4/../../../../powerpc-gekko/lib\libc.a(lib_a-errno.o)
                0x80007c90                __errno
 .text          0x80007c9c       0x40 c:/utils/devkitpro/devkitppc/bin/../lib/gcc/powerpc-gekko/4.2.4/../../../../powerpc-gekko/lib\libc.a(lib_a-exit.o)
                0x80007c9c                exit
 .text          0x80007cdc      0x110 c:/utils/devkitpro/devkitppc/bin/../lib/gcc/powerpc-gekko/4.2.4/../../../../powerpc-gekko/lib\libc.a(lib_a-fprintf.o)
                0x80007cdc                fprintf
                0x80007d70                _fprintf_r
 .text          0x80007dec      0x3f8 c:/utils/devkitpro/devkitppc/bin/../lib/gcc/powerpc-gekko/4.2.4/../../../../powerpc-gekko/lib\libc.a(lib_a-freer.o)
                0x80007f08                _free_r
                0x80007dec                _malloc_trim_r
 .text          0x800081e4      0x1a4 c:/utils/devkitpro/devkitppc/bin/../lib/gcc/powerpc-gekko/4.2.4/../../../../powerpc-gekko/lib\libc.a(lib_a-fwrite.o)
                0x800081e4                _fwrite_r
                0x80008360                fwrite
 .text          0x80008388       0x34 c:/utils/devkitpro/devkitppc/bin/../lib/gcc/powerpc-gekko/4.2.4/../../../../powerpc-gekko/lib\libc.a(lib_a-malign.o)
                0x80008388                memalign
 .text          0x800083bc      0x1b0 c:/utils/devkitpro/devkitppc/bin/../lib/gcc/powerpc-gekko/4.2.4/../../../../powerpc-gekko/lib\libc.a(lib_a-malignr.o)
                0x800083bc                _memalign_r
 .text          0x8000856c       0x58 c:/utils/devkitpro/devkitppc/bin/../lib/gcc/powerpc-gekko/4.2.4/../../../../powerpc-gekko/lib\libc.a(lib_a-malloc.o)
                0x80008598                malloc
                0x8000856c                free
 .text          0x800085c4      0x86c c:/utils/devkitpro/devkitppc/bin/../lib/gcc/powerpc-gekko/4.2.4/../../../../powerpc-gekko/lib\libc.a(lib_a-mallocr.o)
                0x800085c4                _malloc_r
 .text          0x80008e30       0x8c c:/utils/devkitpro/devkitppc/bin/../lib/gcc/powerpc-gekko/4.2.4/../../../../powerpc-gekko/lib\libc.a(lib_a-memcmp.o)
                0x80008e30                memcmp
 .text          0x80008ebc       0xc8 c:/utils/devkitpro/devkitppc/bin/../lib/gcc/powerpc-gekko/4.2.4/../../../../powerpc-gekko/lib\libc.a(lib_a-memcpy.o)
                0x80008ebc                memcpy
 .text          0x80008f84      0x104 c:/utils/devkitpro/devkitppc/bin/../lib/gcc/powerpc-gekko/4.2.4/../../../../powerpc-gekko/lib\libc.a(lib_a-memmove.o)
                0x80008f84                memmove
 .text          0x80009088       0xe4 c:/utils/devkitpro/devkitppc/bin/../lib/gcc/powerpc-gekko/4.2.4/../../../../powerpc-gekko/lib\libc.a(lib_a-memset.o)
                0x80009088                memset
 .text          0x8000916c      0x124 c:/utils/devkitpro/devkitppc/bin/../lib/gcc/powerpc-gekko/4.2.4/../../../../powerpc-gekko/lib\libc.a(lib_a-printf.o)
                0x8000916c                printf
                0x80009204                _printf_r
 .text          0x80009290       0xd0 c:/utils/devkitpro/devkitppc/bin/../lib/gcc/powerpc-gekko/4.2.4/../../../../powerpc-gekko/lib\libc.a(lib_a-puts.o)
                0x80009290                _puts_r
                0x80009350                puts
 .text          0x80009360      0x248 c:/utils/devkitpro/devkitppc/bin/../lib/gcc/powerpc-gekko/4.2.4/../../../../powerpc-gekko/lib\libc.a(lib_a-reent.o)
                0x80009420                cleanup_glue
                0x80009470                _reclaim_reent
                0x80009360                _wrapup_reent
 .text          0x800095a8      0x2cc c:/utils/devkitpro/devkitppc/bin/../lib/gcc/powerpc-gekko/4.2.4/../../../../powerpc-gekko/lib\libc.a(lib_a-setvbuf.o)
                0x800095a8                setvbuf
 .text          0x80009874      0x230 c:/utils/devkitpro/devkitppc/bin/../lib/gcc/powerpc-gekko/4.2.4/../../../../powerpc-gekko/lib\libc.a(lib_a-snprintf.o)
                0x80009874                snprintf
                0x8000998c                _snprintf_r
 .text          0x80009aa4      0x188 c:/utils/devkitpro/devkitppc/bin/../lib/gcc/powerpc-gekko/4.2.4/../../../../powerpc-gekko/lib\libc.a(lib_a-strchr.o)
                0x80009aa4                strchr
 .text          0x80009c2c       0xc0 c:/utils/devkitpro/devkitppc/bin/../lib/gcc/powerpc-gekko/4.2.4/../../../../powerpc-gekko/lib\libc.a(lib_a-strcmp.o)
                0x80009c2c                strcmp
 .text          0x80009cec       0x74 c:/utils/devkitpro/devkitppc/bin/../lib/gcc/powerpc-gekko/4.2.4/../../../../powerpc-gekko/lib\libc.a(lib_a-strcpy.o)
                0x80009cec                strcpy
 .text          0x80009d60       0xa4 c:/utils/devkitpro/devkitppc/bin/../lib/gcc/powerpc-gekko/4.2.4/../../../../powerpc-gekko/lib\libc.a(lib_a-strlen.o)
                0x80009d60                strlen
 .text          0x80009e04      0x144 c:/utils/devkitpro/devkitppc/bin/../lib/gcc/powerpc-gekko/4.2.4/../../../../powerpc-gekko/lib\libc.a(lib_a-strncmp.o)
                0x80009e04                strncmp
 .text          0x80009f48       0x44 c:/utils/devkitpro/devkitppc/bin/../lib/gcc/powerpc-gekko/4.2.4/../../../../powerpc-gekko/lib\libc.a(lib_a-strnlen.o)
                0x80009f48                strnlen
 .text          0x80009f8c      0x1f4 c:/utils/devkitpro/devkitppc/bin/../lib/gcc/powerpc-gekko/4.2.4/../../../../powerpc-gekko/lib\libc.a(lib_a-strtoul.o)
                0x8000a160                strtoul
                0x80009f8c                _strtoul_r
 .text          0x8000a180      0x290 c:/utils/devkitpro/devkitppc/bin/../lib/gcc/powerpc-gekko/4.2.4/../../../../powerpc-gekko/lib\libc.a(lib_a-strtoull_r.o)
                0x8000a180                _strtoull_r
 .text          0x8000a410     0x23c8 c:/utils/devkitpro/devkitppc/bin/../lib/gcc/powerpc-gekko/4.2.4/../../../../powerpc-gekko/lib\libc.a(lib_a-svfprintf.o)
                0x8000a628                _svfprintf_r
 .text          0x8000c7d8       0x3c c:/utils/devkitpro/devkitppc/bin/../lib/gcc/powerpc-gekko/4.2.4/../../../../powerpc-gekko/lib\libc.a(lib_a-syswrite.o)
                0x8000c7d8                write
 .text          0x8000c814     0x2360 c:/utils/devkitpro/devkitppc/bin/../lib/gcc/powerpc-gekko/4.2.4/../../../../powerpc-gekko/lib\libc.a(lib_a-vfprintf.o)
                0x8000c874                _vfprintf_r
                0x8000eb54                vfprintf
 .text          0x8000eb74       0xa4 c:/utils/devkitpro/devkitppc/bin/../lib/gcc/powerpc-gekko/4.2.4/../../../../powerpc-gekko/lib\libc.a(lib_a-wcrtomb.o)
                0x8000eb74                _wcrtomb_r
                0x8000ebf8                wcrtomb
 .text          0x8000ec18      0x1d4 c:/utils/devkitpro/devkitppc/bin/../lib/gcc/powerpc-gekko/4.2.4/../../../../powerpc-gekko/lib\libc.a(lib_a-wcsrtombs.o)
                0x8000ec18                _wcsrtombs_r
                0x8000edc4                wcsrtombs
 .text          0x8000edec      0x464 c:/utils/devkitpro/devkitppc/bin/../lib/gcc/powerpc-gekko/4.2.4/../../../../powerpc-gekko/lib\libc.a(lib_a-wctomb_r.o)
                0x8000edec                _wctomb_r
 .text          0x8000f250      0x178 c:/utils/devkitpro/devkitppc/bin/../lib/gcc/powerpc-gekko/4.2.4/../../../../powerpc-gekko/lib\libc.a(lib_a-wsetup.o)
                0x8000f250                __swsetup_r
 .text          0x8000f3c8      0x1ac c:/utils/devkitpro/devkitppc/bin/../lib/gcc/powerpc-gekko/4.2.4/../../../../powerpc-gekko/lib\libc.a(lib_a-__call_atexit.o)
                0x8000f3c8                __call_exitprocs
 .text          0x8000f574     0x13a0 c:/utils/devkitpro/devkitppc/bin/../lib/gcc/powerpc-gekko/4.2.4/../../../../powerpc-gekko/lib\libc.a(lib_a-dtoa.o)
                0x8000f7c0                _dtoa_r
 .text          0x80010914      0x370 c:/utils/devkitpro/devkitppc/bin/../lib/gcc/powerpc-gekko/4.2.4/../../../../powerpc-gekko/lib\libc.a(lib_a-fflush.o)
                0x80010c34                fflush
                0x80010914                _fflush_r
 .text          0x80010c84      0x4e0 c:/utils/devkitpro/devkitppc/bin/../lib/gcc/powerpc-gekko/4.2.4/../../../../powerpc-gekko/lib\libc.a(lib_a-findfp.o)
                0x80010f14                __sinit
                0x80010fb0                __sfmoreglue
                0x80010cac                _cleanup
                0x80010c84                _cleanup_r
                0x80010e40                __fp_lock_all
                0x80010df0                __sfp_lock_acquire
                0x80011028                __sfp
                0x80010d18                __sinit_lock_release
                0x80010d6c                __fp_unlock_all
                0x80010d40                __sfp_lock_release
                0x80010da4                __sinit_lock_acquire
 .text          0x80011164      0x528 c:/utils/devkitpro/devkitppc/bin/../lib/gcc/powerpc-gekko/4.2.4/../../../../powerpc-gekko/lib\libc.a(lib_a-fvwrite.o)
                0x80011164                __sfvwrite_r
 .text          0x8001168c      0x194 c:/utils/devkitpro/devkitppc/bin/../lib/gcc/powerpc-gekko/4.2.4/../../../../powerpc-gekko/lib\libc.a(lib_a-fwalk.o)
                0x8001175c                _fwalk
                0x8001168c                _fwalk_reent
 .text          0x80011820      0x4c4 c:/utils/devkitpro/devkitppc/bin/../lib/gcc/powerpc-gekko/4.2.4/../../../../powerpc-gekko/lib\libc.a(lib_a-locale.o)
                0x80011844                _setlocale_r
                0x80011820                __locale_charset
                0x8001182c                _localeconv_r
                0x80011ccc                setlocale
                0x80011838                localeconv
 .text          0x80011ce4      0x1c0 c:/utils/devkitpro/devkitppc/bin/../lib/gcc/powerpc-gekko/4.2.4/../../../../powerpc-gekko/lib\libc.a(lib_a-makebuf.o)
                0x80011ce4                __smakebuf_r
 .text          0x80011ea4      0x9a8 c:/utils/devkitpro/devkitppc/bin/../lib/gcc/powerpc-gekko/4.2.4/../../../../powerpc-gekko/lib\libc.a(lib_a-mbtowc_r.o)
                0x80011ea4                _mbtowc_r
 .text          0x8001284c       0xdc c:/utils/devkitpro/devkitppc/bin/../lib/gcc/powerpc-gekko/4.2.4/../../../../powerpc-gekko/lib\libc.a(lib_a-memchr.o)
                0x8001284c                memchr
 .text          0x80012928     0x1128 c:/utils/devkitpro/devkitppc/bin/../lib/gcc/powerpc-gekko/4.2.4/../../../../powerpc-gekko/lib\libc.a(lib_a-mprec.o)
                0x80012d90                _mprec_log10
                0x80012e34                __any_on
                0x80012ed4                _Balloc
                0x80012ccc                __ratio
                0x800136a8                __i2b
                0x80012b7c                __b2d
                0x80013928                __s2b
                0x80012a7c                __mcmp
                0x8001294c                __hi0bits
                0x800137fc                __pow5mult
                0x80013308                __lshift
                0x80013470                __multiply
                0x80012fa4                __d2b
                0x80012dcc                __copybits
                0x80012adc                __ulp
                0x8001314c                __mdiff
                0x800129b8                __lo0bits
                0x800136e4                __multadd
                0x80012928                _Bfree
 .text          0x80013a50      0x668 c:/utils/devkitpro/devkitppc/bin/../lib/gcc/powerpc-gekko/4.2.4/../../../../powerpc-gekko/lib\libc.a(lib_a-reallocr.o)
                0x80013a50                _realloc_r
 .text          0x800140b8       0x44 c:/utils/devkitpro/devkitppc/bin/../lib/gcc/powerpc-gekko/4.2.4/../../../../powerpc-gekko/lib\libc.a(lib_a-s_isinfd.o)
                0x800140b8                __isinfd
 .text          0x800140fc       0x38 c:/utils/devkitpro/devkitppc/bin/../lib/gcc/powerpc-gekko/4.2.4/../../../../powerpc-gekko/lib\libc.a(lib_a-s_isnand.o)
                0x800140fc                __isnand
 .text          0x80014134      0x184 c:/utils/devkitpro/devkitppc/bin/../lib/gcc/powerpc-gekko/4.2.4/../../../../powerpc-gekko/lib\libc.a(lib_a-stdio.o)
                0x80014158                __sseek
                0x80014254                __sread
                0x80014134                __sclose
                0x800141c8                __swrite
 .text          0x800142b8      0x188 c:/utils/devkitpro/devkitppc/bin/../lib/gcc/powerpc-gekko/4.2.4/../../../../powerpc-gekko/lib\libc.a(lib_a-fclose.o)
                0x800142b8                _fclose_r
                0x80014430                fclose
 .text          0x80014440       0xa0 c:/utils/devkitpro/devkitppc/bin/../lib/gcc/powerpc-gekko/4.2.4/../../../../powerpc-gekko/lib\libsysbase.a(close.o)
                0x80014440                _close_r
 .text          0x800144e0       0xc4 c:/utils/devkitpro/devkitppc/bin/../lib/gcc/powerpc-gekko/4.2.4/../../../../powerpc-gekko/lib\libsysbase.a(fstat.o)
                0x800144e0                _fstat_r
 .text          0x800145a4        0x8 c:/utils/devkitpro/devkitppc/bin/../lib/gcc/powerpc-gekko/4.2.4/../../../../powerpc-gekko/lib\libsysbase.a(isatty.o)
                0x800145a4                _isatty_r
 .text          0x800145ac       0xe8 c:/utils/devkitpro/devkitppc/bin/../lib/gcc/powerpc-gekko/4.2.4/../../../../powerpc-gekko/lib\libsysbase.a(lseek.o)
                0x800145ac                _lseek_r
 .text          0x80014694       0xcc c:/utils/devkitpro/devkitppc/bin/../lib/gcc/powerpc-gekko/4.2.4/../../../../powerpc-gekko/lib\libsysbase.a(read.o)
                0x80014694                _read_r
 .text          0x80014760       0x50 c:/utils/devkitpro/devkitppc/bin/../lib/gcc/powerpc-gekko/4.2.4/../../../../powerpc-gekko/lib\libsysbase.a(sbrk.o)
                0x80014760                _sbrk_r
 .text          0x800147b0       0xcc c:/utils/devkitpro/devkitppc/bin/../lib/gcc/powerpc-gekko/4.2.4/../../../../powerpc-gekko/lib\libsysbase.a(write.o)
                0x800147b0                _write_r
 .text          0x8001487c       0x6c c:/utils/devkitpro/devkitppc/bin/../lib/gcc/powerpc-gekko/4.2.4/../../../../powerpc-gekko/lib\libsysbase.a(flock.o)
                0x800148a0                __flockfile
                0x8001487c                __funlockfile
 .text          0x800148e8      0x120 c:/utils/devkitpro/devkitppc/bin/../lib/gcc/powerpc-gekko/4.2.4/../../../../powerpc-gekko/lib\libsysbase.a(handle_manager.o)
                0x800149ac                __release_handle
                0x80014914                __alloc_handle
                0x800148e8                __get_handle
 .text          0x80014a08      0x450 c:/utils/devkitpro/devkitppc/bin/../lib/gcc/powerpc-gekko/4.2.4\libgcc.a(_umoddi3.o)
                0x80014a08                __umoddi3
 .text          0x80014e58       0x6c c:/utils/devkitpro/devkitppc/bin/../lib/gcc/powerpc-gekko/4.2.4/crtend.o
 *(.text.*)
 .text.__wpad_assign_slot
                0x80014ec4      0x24c c:/Utils/devkitPro/libogc/lib/wii\libwiiuse.a(wpad.o)
                0x80014ec4                __wpad_assign_slot
 .text.__wpad_disconnectCB
                0x80015110      0x100 c:/Utils/devkitPro/libogc/lib/wii\libwiiuse.a(wpad.o)
                0x80015110                __wpad_disconnectCB
 .text.WPAD_ButtonsDown
                0x80015210       0x28 c:/Utils/devkitPro/libogc/lib/wii\libwiiuse.a(wpad.o)
                0x80015210                WPAD_ButtonsDown
 .text.__wpad_disconnect
                0x80015238       0x58 c:/Utils/devkitPro/libogc/lib/wii\libwiiuse.a(wpad.o)
 .text.WPAD_Shutdown
                0x80015290      0x100 c:/Utils/devkitPro/libogc/lib/wii\libwiiuse.a(wpad.o)
                0x80015290                WPAD_Shutdown
 .text.__wpad_onreset
                0x80015390       0x2c c:/Utils/devkitPro/libogc/lib/wii\libwiiuse.a(wpad.o)
 .text.__wpad_timeouthandler
                0x800153bc       0xb8 c:/Utils/devkitPro/libogc/lib/wii\libwiiuse.a(wpad.o)
 .text.__wpad_def_powcb
                0x80015474       0x20 c:/Utils/devkitPro/libogc/lib/wii\libwiiuse.a(wpad.o)
 .text.__wpad_setfmt
                0x80015494      0x110 c:/Utils/devkitPro/libogc/lib/wii\libwiiuse.a(wpad.o)
 .text.WPAD_ReadEvent
                0x800155a4      0x5a4 c:/Utils/devkitPro/libogc/lib/wii\libwiiuse.a(wpad.o)
                0x800155a4                WPAD_ReadEvent
 .text.WPAD_ReadPending
                0x80015b48      0x16c c:/Utils/devkitPro/libogc/lib/wii\libwiiuse.a(wpad.o)
                0x80015b48                WPAD_ReadPending
 .text.WPAD_ScanPads
                0x80015cb4        0xc c:/Utils/devkitPro/libogc/lib/wii\libwiiuse.a(wpad.o)
                0x80015cb4                WPAD_ScanPads
 .text.WPAD_Init
                0x80015cc0      0x20c c:/Utils/devkitPro/libogc/lib/wii\libwiiuse.a(wpad.o)
                0x80015cc0                WPAD_Init
 .text.__initcore_finished
                0x80015ecc       0x40 c:/Utils/devkitPro/libogc/lib/wii\libwiiuse.a(wpad.o)
 .text.__readlinkkey_finished
                0x80015f0c       0x38 c:/Utils/devkitPro/libogc/lib/wii\libwiiuse.a(wpad.o)
 .text.__wpad_patch_finished
                0x80015f44       0x2c c:/Utils/devkitPro/libogc/lib/wii\libwiiuse.a(wpad.o)
 .text.__wpad_init_finished
                0x80015f70      0x1d4 c:/Utils/devkitPro/libogc/lib/wii\libwiiuse.a(wpad.o)
 .text.__wpad_eventCB
                0x80016144      0x998 c:/Utils/devkitPro/libogc/lib/wii\libwiiuse.a(wpad.o)
 .text.calculate_gforce
                0x80016adc       0xfc c:/Utils/devkitPro/libogc/lib/wii\libwiiuse.a(dynamics.o)
                0x80016adc                calculate_gforce
 .text.calc_balanceboard_state
                0x80016bd8      0x380 c:/Utils/devkitPro/libogc/lib/wii\libwiiuse.a(dynamics.o)
                0x80016bd8                calc_balanceboard_state
 .text.apply_smoothing
                0x80016f58      0x184 c:/Utils/devkitPro/libogc/lib/wii\libwiiuse.a(dynamics.o)
                0x80016f58                apply_smoothing
 .text.calc_joystick_state
                0x800170dc      0x274 c:/Utils/devkitPro/libogc/lib/wii\libwiiuse.a(dynamics.o)
                0x800170dc                calc_joystick_state
 .text.calculate_orientation
                0x80017350      0x2ec c:/Utils/devkitPro/libogc/lib/wii\libwiiuse.a(dynamics.o)
                0x80017350                calculate_orientation
 .text.wiiuse_io_write
                0x8001763c       0x44 c:/Utils/devkitPro/libogc/lib/wii\libwiiuse.a(io_wii.o)
                0x8001763c                wiiuse_io_write
 .text.__wiiuse_disconnected
                0x80017680       0xb0 c:/Utils/devkitPro/libogc/lib/wii\libwiiuse.a(io_wii.o)
 .text.__wiiuse_sent
                0x80017730       0xc4 c:/Utils/devkitPro/libogc/lib/wii\libwiiuse.a(io_wii.o)
 .text.wiiuse_init_cmd_queue
                0x800177f4       0x4c c:/Utils/devkitPro/libogc/lib/wii\libwiiuse.a(io_wii.o)
                0x800177f4                wiiuse_init_cmd_queue
 .text.wiiuse_disconnect
                0x80017840       0x40 c:/Utils/devkitPro/libogc/lib/wii\libwiiuse.a(io_wii.o)
                0x80017840                wiiuse_disconnect
 .text.wiiuse_register
                0x80017880       0xe4 c:/Utils/devkitPro/libogc/lib/wii\libwiiuse.a(io_wii.o)
                0x80017880                wiiuse_register
 .text.__wiiuse_connected
                0x80017964       0x9c c:/Utils/devkitPro/libogc/lib/wii\libwiiuse.a(io_wii.o)
 .text.__wiiuse_receive
                0x80017a00       0xc8 c:/Utils/devkitPro/libogc/lib/wii\libwiiuse.a(io_wii.o)
 .text.__wiiuse_sensorbar_enable
                0x80017ac8       0x50 c:/Utils/devkitPro/libogc/lib/wii\libwiiuse.a(io_wii.o)
                0x80017ac8                __wiiuse_sensorbar_enable
 .text.get_ir_sens
                0x80017b18       0xec c:/Utils/devkitPro/libogc/lib/wii\libwiiuse.a(ir.o)
 .text.wiiuse_set_ir_position
                0x80017c04       0x80 c:/Utils/devkitPro/libogc/lib/wii\libwiiuse.a(ir.o)
                0x80017c04                wiiuse_set_ir_position
 .text.wiiuse_set_aspect_ratio
                0x80017c84       0x44 c:/Utils/devkitPro/libogc/lib/wii\libwiiuse.a(ir.o)
                0x80017c84                wiiuse_set_aspect_ratio
 .text.calculate_basic_ir
                0x80017cc8       0xf4 c:/Utils/devkitPro/libogc/lib/wii\libwiiuse.a(ir.o)
                0x80017cc8                calculate_basic_ir
 .text.calculate_extended_ir
                0x80017dbc       0x70 c:/Utils/devkitPro/libogc/lib/wii\libwiiuse.a(ir.o)
                0x80017dbc                calculate_extended_ir
 .text.calc_yaw
                0x80017e2c       0x54 c:/Utils/devkitPro/libogc/lib/wii\libwiiuse.a(ir.o)
                0x80017e2c                calc_yaw
 .text.apply_ir_smoothing
                0x80017e80       0xf4 c:/Utils/devkitPro/libogc/lib/wii\libwiiuse.a(ir.o)
                0x80017e80                apply_ir_smoothing
 .text.rotate_dots
                0x80017f74      0x120 c:/Utils/devkitPro/libogc/lib/wii\libwiiuse.a(ir.o)
 .text.find_sensorbar
                0x80018094      0x970 c:/Utils/devkitPro/libogc/lib/wii\libwiiuse.a(ir.o)
                0x80018094                find_sensorbar
 .text.interpret_ir_data
                0x80018a04      0x33c c:/Utils/devkitPro/libogc/lib/wii\libwiiuse.a(ir.o)
                0x80018a04                interpret_ir_data
 .text.wiiuse_set_ir_sensitivity
                0x80018d40      0x118 c:/Utils/devkitPro/libogc/lib/wii\libwiiuse.a(ir.o)
                0x80018d40                wiiuse_set_ir_sensitivity
 .text.wiiuse_set_ir_mode
                0x80018e58       0x6c c:/Utils/devkitPro/libogc/lib/wii\libwiiuse.a(ir.o)
                0x80018e58                wiiuse_set_ir_mode
 .text.wiiuse_set_ir
                0x80018ec4      0x21c c:/Utils/devkitPro/libogc/lib/wii\libwiiuse.a(ir.o)
                0x80018ec4                wiiuse_set_ir
 .text.wiiuse_set_flags
                0x800190e0       0x20 c:/Utils/devkitPro/libogc/lib/wii\libwiiuse.a(wiiuse.o)
                0x800190e0                wiiuse_set_flags
 .text.wiiuse_send_next_command
                0x80019100       0x6c c:/Utils/devkitPro/libogc/lib/wii\libwiiuse.a(wiiuse.o)
                0x80019100                wiiuse_send_next_command
 .text.wiiuse_write_data
                0x8001916c      0x184 c:/Utils/devkitPro/libogc/lib/wii\libwiiuse.a(wiiuse.o)
                0x8001916c                wiiuse_write_data
 .text.wiiuse_init
                0x800192f0      0x164 c:/Utils/devkitPro/libogc/lib/wii\libwiiuse.a(wiiuse.o)
                0x800192f0                wiiuse_init
 .text.wiiuse_sendcmd
                0x80019454      0x10c c:/Utils/devkitPro/libogc/lib/wii\libwiiuse.a(wiiuse.o)
                0x80019454                wiiuse_sendcmd
 .text.wiiuse_status
                0x80019560       0x5c c:/Utils/devkitPro/libogc/lib/wii\libwiiuse.a(wiiuse.o)
                0x80019560                wiiuse_status
 .text.wiiuse_motion_sensing
                0x800195bc       0x54 c:/Utils/devkitPro/libogc/lib/wii\libwiiuse.a(wiiuse.o)
                0x800195bc                wiiuse_motion_sensing
 .text.wiiuse_set_report_type
                0x80019610      0x100 c:/Utils/devkitPro/libogc/lib/wii\libwiiuse.a(wiiuse.o)
                0x80019610                wiiuse_set_report_type
 .text.wiiuse_set_leds
                0x80019710       0x60 c:/Utils/devkitPro/libogc/lib/wii\libwiiuse.a(wiiuse.o)
                0x80019710                wiiuse_set_leds
 .text.wiiuse_read_data
                0x80019770      0x144 c:/Utils/devkitPro/libogc/lib/wii\libwiiuse.a(wiiuse.o)
                0x80019770                wiiuse_read_data
 .text.wiiuse_pressed_buttons
                0x800198b4       0x2c c:/Utils/devkitPro/libogc/lib/wii\libwiiuse.a(events.o)
                0x800198b4                wiiuse_pressed_buttons
 .text.handle_expansion
                0x800198e0       0x94 c:/Utils/devkitPro/libogc/lib/wii\libwiiuse.a(events.o)
 .text.parse_event
                0x80019974      0x518 c:/Utils/devkitPro/libogc/lib/wii\libwiiuse.a(events.o)
                0x80019974                parse_event
 .text.guitar_hero_3_event
                0x80019e8c       0x50 c:/Utils/devkitPro/libogc/lib/wii\libwiiuse.a(guitar_hero_3.o)
                0x80019e8c                guitar_hero_3_event
 .text.guitar_hero_3_disconnected
                0x80019edc       0x28 c:/Utils/devkitPro/libogc/lib/wii\libwiiuse.a(guitar_hero_3.o)
                0x80019edc                guitar_hero_3_disconnected
 .text.guitar_hero_3_handshake
                0x80019f04       0xb4 c:/Utils/devkitPro/libogc/lib/wii\libwiiuse.a(guitar_hero_3.o)
                0x80019f04                guitar_hero_3_handshake
 .text.wiiuse_disable_expansion
                0x80019fb8      0x170 c:/Utils/devkitPro/libogc/lib/wii\libwiiuse.a(io.o)
                0x80019fb8                wiiuse_disable_expansion
 .text.wiiuse_handshake_expansion
                0x8001a128      0x238 c:/Utils/devkitPro/libogc/lib/wii\libwiiuse.a(io.o)
                0x8001a128                wiiuse_handshake_expansion
 .text.wiiuse_handshake_expansion_start
                0x8001a360       0x24 c:/Utils/devkitPro/libogc/lib/wii\libwiiuse.a(io.o)
                0x8001a360                wiiuse_handshake_expansion_start
 .text.wiiuse_handshake
                0x8001a384      0x164 c:/Utils/devkitPro/libogc/lib/wii\libwiiuse.a(io.o)
                0x8001a384                wiiuse_handshake
 .text.nunchuk_event
                0x8001a4e8       0x88 c:/Utils/devkitPro/libogc/lib/wii\libwiiuse.a(nunchuk.o)
                0x8001a4e8                nunchuk_event
 .text.nunchuk_disconnected
                0x8001a570       0x28 c:/Utils/devkitPro/libogc/lib/wii\libwiiuse.a(nunchuk.o)
                0x8001a570                nunchuk_disconnected
 .text.nunchuk_handshake
                0x8001a598      0x198 c:/Utils/devkitPro/libogc/lib/wii\libwiiuse.a(nunchuk.o)
                0x8001a598                nunchuk_handshake
 .text.wii_board_event
                0x8001a730       0x54 c:/Utils/devkitPro/libogc/lib/wii\libwiiuse.a(wiiboard.o)
                0x8001a730                wii_board_event
 .text.wii_board_disconnected
                0x8001a784       0x28 c:/Utils/devkitPro/libogc/lib/wii\libwiiuse.a(wiiboard.o)
                0x8001a784                wii_board_disconnected
 .text.wii_board_handshake
                0x8001a7ac      0x174 c:/Utils/devkitPro/libogc/lib/wii\libwiiuse.a(wiiboard.o)
                0x8001a7ac                wii_board_handshake
 .text.classic_ctrl_event
                0x8001a920       0xa4 c:/Utils/devkitPro/libogc/lib/wii\libwiiuse.a(classic.o)
                0x8001a920                classic_ctrl_event
 .text.classic_ctrl_disconnected
                0x8001a9c4       0x28 c:/Utils/devkitPro/libogc/lib/wii\libwiiuse.a(classic.o)
                0x8001a9c4                classic_ctrl_disconnected
 .text.classic_ctrl_handshake
                0x8001a9ec      0x128 c:/Utils/devkitPro/libogc/lib/wii\libwiiuse.a(classic.o)
                0x8001a9ec                classic_ctrl_handshake
 .text.bte_arg  0x8001ab14       0x38 c:/Utils/devkitPro/libogc/lib/wii\libbte.a(bte.o)
                0x8001ab14                bte_arg
 .text.bte_received
                0x8001ab4c       0x38 c:/Utils/devkitPro/libogc/lib/wii\libbte.a(bte.o)
                0x8001ab4c                bte_received
 .text.bte_disconnected
                0x8001ab84       0x38 c:/Utils/devkitPro/libogc/lib/wii\libbte.a(bte.o)
                0x8001ab84                bte_disconnected
 .text.acl_wlp_completed
                0x8001abbc        0x8 c:/Utils/devkitPro/libogc/lib/wii\libbte.a(bte.o)
                0x8001abbc                acl_wlp_completed
 .text.l2cap_accepted
                0x8001abc4      0x10c c:/Utils/devkitPro/libogc/lib/wii\libbte.a(bte.o)
                0x8001abc4                l2cap_accepted
 .text.l2cap_disconnected_ind
                0x8001acd0      0x174 c:/Utils/devkitPro/libogc/lib/wii\libbte.a(bte.o)
                0x8001acd0                l2cap_disconnected_ind
 .text.__bte_send_pending_request
                0x8001ae44       0xdc c:/Utils/devkitPro/libogc/lib/wii\libbte.a(bte.o)
 .text.bte_process_input
                0x8001af20      0x130 c:/Utils/devkitPro/libogc/lib/wii\libbte.a(bte.o)
 .text.__bte_send_request
                0x8001b050       0xa4 c:/Utils/devkitPro/libogc/lib/wii\libbte.a(bte.o)
 .text.bte_disconnect
                0x8001b0f4       0xb4 c:/Utils/devkitPro/libogc/lib/wii\libbte.a(bte.o)
                0x8001b0f4                bte_disconnect
 .text.acl_conn_complete
                0x8001b1a8       0x2c c:/Utils/devkitPro/libogc/lib/wii\libbte.a(bte.o)
                0x8001b1a8                acl_conn_complete
 .text.bte_sendmessageasync
                0x8001b1d4      0x138 c:/Utils/devkitPro/libogc/lib/wii\libbte.a(bte.o)
                0x8001b1d4                bte_sendmessageasync
 .text.bte_registerdeviceasync
                0x8001b30c      0x1c0 c:/Utils/devkitPro/libogc/lib/wii\libbte.a(bte.o)
                0x8001b30c                bte_registerdeviceasync
 .text.bte_new  0x8001b4cc       0x60 c:/Utils/devkitPro/libogc/lib/wii\libbte.a(bte.o)
                0x8001b4cc                bte_new
 .text.BTE_SetDisconnectCallback
                0x8001b52c       0x20 c:/Utils/devkitPro/libogc/lib/wii\libbte.a(bte.o)
                0x8001b52c                BTE_SetDisconnectCallback
 .text.BTE_InitSub
                0x8001b54c       0x94 c:/Utils/devkitPro/libogc/lib/wii\libbte.a(bte.o)
                0x8001b54c                BTE_InitSub
 .text.BTE_ApplyPatch
                0x8001b5e0       0xa8 c:/Utils/devkitPro/libogc/lib/wii\libbte.a(bte.o)
                0x8001b5e0                BTE_ApplyPatch
 .text.BTE_InitCore
                0x8001b688       0x90 c:/Utils/devkitPro/libogc/lib/wii\libbte.a(bte.o)
                0x8001b688                BTE_InitCore
 .text.BTE_ReadStoredLinkKey
                0x8001b718       0x94 c:/Utils/devkitPro/libogc/lib/wii\libbte.a(bte.o)
                0x8001b718                BTE_ReadStoredLinkKey
 .text.BTE_Shutdown
                0x8001b7ac      0x114 c:/Utils/devkitPro/libogc/lib/wii\libbte.a(bte.o)
                0x8001b7ac                BTE_Shutdown
 .text.__bte_shutdown_finished
                0x8001b8c0      0x118 c:/Utils/devkitPro/libogc/lib/wii\libbte.a(bte.o)
 .text.BTE_Init
                0x8001b9d8      0x134 c:/Utils/devkitPro/libogc/lib/wii\libbte.a(bte.o)
                0x8001b9d8                BTE_Init
 .text.bt_alarmhandler
                0x8001bb0c       0x60 c:/Utils/devkitPro/libogc/lib/wii\libbte.a(bte.o)
 .text.l2cap_disconnect_cfm
                0x8001bb6c      0x1ac c:/Utils/devkitPro/libogc/lib/wii\libbte.a(bte.o)
                0x8001bb6c                l2cap_disconnect_cfm
 .text.bte_hci_initsub_complete
                0x8001bd18      0x230 c:/Utils/devkitPro/libogc/lib/wii\libbte.a(bte.o)
                0x8001bd18                bte_hci_initsub_complete
 .text.bte_hci_patch_complete
                0x8001bf48      0x2b8 c:/Utils/devkitPro/libogc/lib/wii\libbte.a(bte.o)
                0x8001bf48                bte_hci_patch_complete
 .text.bte_hci_apply_patch_complete
                0x8001c200      0x15c c:/Utils/devkitPro/libogc/lib/wii\libbte.a(bte.o)
                0x8001c200                bte_hci_apply_patch_complete
 .text.bte_hci_initcore_complete
                0x8001c35c      0x208 c:/Utils/devkitPro/libogc/lib/wii\libbte.a(bte.o)
                0x8001c35c                bte_hci_initcore_complete
 .text.bte_hci_initcore_complete2
                0x8001c564      0x1e4 c:/Utils/devkitPro/libogc/lib/wii\libbte.a(bte.o)
                0x8001c564                bte_hci_initcore_complete2
 .text.bte_read_stored_link_key_complete
                0x8001c748      0x264 c:/Utils/devkitPro/libogc/lib/wii\libbte.a(bte.o)
                0x8001c748                bte_read_stored_link_key_complete
 .text.hci_get_link
                0x8001c9ac       0x88 c:/Utils/devkitPro/libogc/lib/wii\libbte.a(hci.o)
                0x8001c9ac                hci_get_link
 .text.hci_arg  0x8001ca34       0x10 c:/Utils/devkitPro/libogc/lib/wii\libbte.a(hci.o)
                0x8001ca34                hci_arg
 .text.hci_cmd_complete
                0x8001ca44       0x10 c:/Utils/devkitPro/libogc/lib/wii\libbte.a(hci.o)
                0x8001ca44                hci_cmd_complete
 .text.hci_connection_complete
                0x8001ca54       0x10 c:/Utils/devkitPro/libogc/lib/wii\libbte.a(hci.o)
                0x8001ca54                hci_connection_complete
 .text.hci_wlp_complete
                0x8001ca64       0x10 c:/Utils/devkitPro/libogc/lib/wii\libbte.a(hci.o)
                0x8001ca64                hci_wlp_complete
 .text.hci_cmd_ass
                0x8001ca74       0x4c c:/Utils/devkitPro/libogc/lib/wii\libbte.a(hci.o)
                0x8001ca74                hci_cmd_ass
 .text.lp_pdu_maxsize
                0x8001cac0       0x10 c:/Utils/devkitPro/libogc/lib/wii\libbte.a(hci.o)
                0x8001cac0                lp_pdu_maxsize
 .text.hci_host_num_comp_packets
                0x8001cad0       0xcc c:/Utils/devkitPro/libogc/lib/wii\libbte.a(hci.o)
                0x8001cad0                hci_host_num_comp_packets
 .text.hci_write_cod
                0x8001cb9c       0x8c c:/Utils/devkitPro/libogc/lib/wii\libbte.a(hci.o)
                0x8001cb9c                hci_write_cod
 .text.hci_disconnect
                0x8001cc28       0xb8 c:/Utils/devkitPro/libogc/lib/wii\libbte.a(hci.o)
                0x8001cc28                hci_disconnect
 .text.hci_pin_code_request_neg_reply
                0x8001cce0       0x8c c:/Utils/devkitPro/libogc/lib/wii\libbte.a(hci.o)
                0x8001cce0                hci_pin_code_request_neg_reply
 .text.hci_vendor_specific_command
                0x8001cd6c       0xb8 c:/Utils/devkitPro/libogc/lib/wii\libbte.a(hci.o)
                0x8001cd6c                hci_vendor_specific_command
 .text.hci_write_inquiry_scan_type
                0x8001ce24       0x80 c:/Utils/devkitPro/libogc/lib/wii\libbte.a(hci.o)
                0x8001ce24                hci_write_inquiry_scan_type
 .text.hci_write_page_scan_type
                0x8001cea4       0x80 c:/Utils/devkitPro/libogc/lib/wii\libbte.a(hci.o)
                0x8001cea4                hci_write_page_scan_type
 .text.hci_write_inquiry_mode
                0x8001cf24       0x80 c:/Utils/devkitPro/libogc/lib/wii\libbte.a(hci.o)
                0x8001cf24                hci_write_inquiry_mode
 .text.hci_write_pin_type
                0x8001cfa4       0x80 c:/Utils/devkitPro/libogc/lib/wii\libbte.a(hci.o)
                0x8001cfa4                hci_write_pin_type
 .text.hci_write_local_name
                0x8001d024       0x9c c:/Utils/devkitPro/libogc/lib/wii\libbte.a(hci.o)
                0x8001d024                hci_write_local_name
 .text.hci_accecpt_conn_request
                0x8001d0c0       0xa0 c:/Utils/devkitPro/libogc/lib/wii\libbte.a(hci.o)
                0x8001d0c0                hci_accecpt_conn_request
 .text.hci_write_scan_enable
                0x8001d160       0x80 c:/Utils/devkitPro/libogc/lib/wii\libbte.a(hci.o)
                0x8001d160                hci_write_scan_enable
 .text.hci_read_local_features
                0x8001d1e0       0x6c c:/Utils/devkitPro/libogc/lib/wii\libbte.a(hci.o)
                0x8001d1e0                hci_read_local_features
 .text.hci_read_local_version
                0x8001d24c       0x6c c:/Utils/devkitPro/libogc/lib/wii\libbte.a(hci.o)
                0x8001d24c                hci_read_local_version
 .text.hci_read_bd_addr
                0x8001d2b8       0x6c c:/Utils/devkitPro/libogc/lib/wii\libbte.a(hci.o)
                0x8001d2b8                hci_read_bd_addr
 .text.hci_read_buffer_size
                0x8001d324       0x6c c:/Utils/devkitPro/libogc/lib/wii\libbte.a(hci.o)
                0x8001d324                hci_read_buffer_size
 .text.hci_reset
                0x8001d390       0x6c c:/Utils/devkitPro/libogc/lib/wii\libbte.a(hci.o)
                0x8001d390                hci_reset
 .text.lp_acl_write
                0x8001d3fc      0x180 c:/Utils/devkitPro/libogc/lib/wii\libbte.a(hci.o)
                0x8001d3fc                lp_acl_write
 .text.hci_new  0x8001d57c       0x54 c:/Utils/devkitPro/libogc/lib/wii\libbte.a(hci.o)
                0x8001d57c                hci_new
 .text.hci_read_stored_link_key
                0x8001d5d0       0xd4 c:/Utils/devkitPro/libogc/lib/wii\libbte.a(hci.o)
                0x8001d5d0                hci_read_stored_link_key
 .text.hci_close
                0x8001d6a4       0xec c:/Utils/devkitPro/libogc/lib/wii\libbte.a(hci.o)
                0x8001d6a4                hci_close
 .text.hci_init
                0x8001d790       0xa0 c:/Utils/devkitPro/libogc/lib/wii\libbte.a(hci.o)
                0x8001d790                hci_init
 .text.hci_reset_all
                0x8001d830       0xd4 c:/Utils/devkitPro/libogc/lib/wii\libbte.a(hci.o)
                0x8001d830                hci_reset_all
 .text.hci_write_page_timeout
                0x8001d904       0x90 c:/Utils/devkitPro/libogc/lib/wii\libbte.a(hci.o)
                0x8001d904                hci_write_page_timeout
 .text.hci_acldata_handler
                0x8001d994      0x138 c:/Utils/devkitPro/libogc/lib/wii\libbte.a(hci.o)
                0x8001d994                hci_acldata_handler
 .text.hci_event_handler
                0x8001dacc      0xb98 c:/Utils/devkitPro/libogc/lib/wii\libbte.a(hci.o)
                0x8001dacc                hci_event_handler
 .text.lp_write_flush_timeout
                0x8001e664       0xc0 c:/Utils/devkitPro/libogc/lib/wii\libbte.a(hci.o)
                0x8001e664                lp_write_flush_timeout
 .text.hci_host_buffer_size
                0x8001e724       0xd0 c:/Utils/devkitPro/libogc/lib/wii\libbte.a(hci.o)
                0x8001e724                hci_host_buffer_size
 .text.hci_write_link_policy_settings
                0x8001e7f4       0xc0 c:/Utils/devkitPro/libogc/lib/wii\libbte.a(hci.o)
                0x8001e7f4                hci_write_link_policy_settings
 .text.l2cap_cid_alloc
                0x8001e8b4       0x60 c:/Utils/devkitPro/libogc/lib/wii\libbte.a(l2cap.o)
 .text.lp_connect_ind
                0x8001e914        0x4 c:/Utils/devkitPro/libogc/lib/wii\libbte.a(l2cap.o)
                0x8001e914                lp_connect_ind
 .text.l2cap_disconnect_bb
                0x8001e918       0x14 c:/Utils/devkitPro/libogc/lib/wii\libbte.a(l2cap.o)
                0x8001e918                l2cap_disconnect_bb
 .text.l2cap_next_sigid
                0x8001e92c       0x2c c:/Utils/devkitPro/libogc/lib/wii\libbte.a(l2cap.o)
                0x8001e92c                l2cap_next_sigid
 .text.l2cap_arg
                0x8001e958        0x8 c:/Utils/devkitPro/libogc/lib/wii\libbte.a(l2cap.o)
                0x8001e958                l2cap_arg
 .text.l2cap_disconnect_ind
                0x8001e960        0x8 c:/Utils/devkitPro/libogc/lib/wii\libbte.a(l2cap.o)
                0x8001e960                l2cap_disconnect_ind
 .text.l2cap_recv
                0x8001e968        0x8 c:/Utils/devkitPro/libogc/lib/wii\libbte.a(l2cap.o)
                0x8001e968                l2cap_recv
 .text.l2cap_connect_ind
                0x8001e970      0x108 c:/Utils/devkitPro/libogc/lib/wii\libbte.a(l2cap.o)
                0x8001e970                l2cap_connect_ind
 .text.l2cap_close
                0x8001ea78      0x1e8 c:/Utils/devkitPro/libogc/lib/wii\libbte.a(l2cap.o)
                0x8001ea78                l2cap_close
 .text.lp_disconnect_ind
                0x8001ec60      0x114 c:/Utils/devkitPro/libogc/lib/wii\libbte.a(l2cap.o)
                0x8001ec60                lp_disconnect_ind
 .text.l2cap_new
                0x8001ed74       0x80 c:/Utils/devkitPro/libogc/lib/wii\libbte.a(l2cap.o)
                0x8001ed74                l2cap_new
 .text.l2cap_write
                0x8001edf4      0x1a4 c:/Utils/devkitPro/libogc/lib/wii\libbte.a(l2cap.o)
                0x8001edf4                l2cap_write
 .text.l2cap_rexmit_signal
                0x8001ef98       0x2c c:/Utils/devkitPro/libogc/lib/wii\libbte.a(l2cap.o)
                0x8001ef98                l2cap_rexmit_signal
 .text.l2cap_signal
                0x8001efc4      0x1e0 c:/Utils/devkitPro/libogc/lib/wii\libbte.a(l2cap.o)
                0x8001efc4                l2cap_signal
 .text.l2ca_disconnect_req
                0x8001f1a4       0xc0 c:/Utils/devkitPro/libogc/lib/wii\libbte.a(l2cap.o)
                0x8001f1a4                l2ca_disconnect_req
 .text.l2cap_tmr
                0x8001f264      0x244 c:/Utils/devkitPro/libogc/lib/wii\libbte.a(l2cap.o)
                0x8001f264                l2cap_tmr
 .text.l2ca_config_req
                0x8001f4a8      0x154 c:/Utils/devkitPro/libogc/lib/wii\libbte.a(l2cap.o)
                0x8001f4a8                l2ca_config_req
 .text.l2cap_process_sig
                0x8001f5fc     0x1238 c:/Utils/devkitPro/libogc/lib/wii\libbte.a(l2cap.o)
                0x8001f5fc                l2cap_process_sig
 .text.l2cap_init
                0x80020834       0x88 c:/Utils/devkitPro/libogc/lib/wii\libbte.a(l2cap.o)
                0x80020834                l2cap_init
 .text.l2cap_reset_all
                0x800208bc      0x154 c:/Utils/devkitPro/libogc/lib/wii\libbte.a(l2cap.o)
                0x800208bc                l2cap_reset_all
 .text.lp_connect_cfm
                0x80020a10      0x14c c:/Utils/devkitPro/libogc/lib/wii\libbte.a(l2cap.o)
                0x80020a10                lp_connect_cfm
 .text.l2ca_datawrite
                0x80020b5c      0x114 c:/Utils/devkitPro/libogc/lib/wii\libbte.a(l2cap.o)
                0x80020b5c                l2ca_datawrite
 .text.l2cap_input
                0x80020c70      0x5d0 c:/Utils/devkitPro/libogc/lib/wii\libbte.a(l2cap.o)
                0x80020c70                l2cap_input
 .text.btmemb_alloc
                0x80021240       0xc0 c:/Utils/devkitPro/libogc/lib/wii\libbte.a(btmemb.o)
                0x80021240                btmemb_alloc
 .text.btmemb_free
                0x80021300       0xbc c:/Utils/devkitPro/libogc/lib/wii\libbte.a(btmemb.o)
                0x80021300                btmemb_free
 .text.btmemb_init
                0x800213bc       0x40 c:/Utils/devkitPro/libogc/lib/wii\libbte.a(btmemb.o)
                0x800213bc                btmemb_init
 .text.plug_holes
                0x800213fc       0xcc c:/Utils/devkitPro/libogc/lib/wii\libbte.a(btmemr.o)
 .text.btmemr_malloc
                0x800214c8      0x190 c:/Utils/devkitPro/libogc/lib/wii\libbte.a(btmemr.o)
                0x800214c8                btmemr_malloc
 .text.btmemr_free
                0x80021658       0xa4 c:/Utils/devkitPro/libogc/lib/wii\libbte.a(btmemr.o)
                0x80021658                btmemr_free
 .text.btmemr_realloc
                0x800216fc      0x118 c:/Utils/devkitPro/libogc/lib/wii\libbte.a(btmemr.o)
                0x800216fc                btmemr_realloc
 .text.btmemr_init
                0x80021814       0xa8 c:/Utils/devkitPro/libogc/lib/wii\libbte.a(btmemr.o)
                0x80021814                btmemr_init
 .text.btpbuf_header
                0x800218bc       0xa8 c:/Utils/devkitPro/libogc/lib/wii\libbte.a(btpbuf.o)
                0x800218bc                btpbuf_header
 .text.btpbuf_ref
                0x80021964       0x48 c:/Utils/devkitPro/libogc/lib/wii\libbte.a(btpbuf.o)
                0x80021964                btpbuf_ref
 .text.btpbuf_cat
                0x800219ac       0x5c c:/Utils/devkitPro/libogc/lib/wii\libbte.a(btpbuf.o)
                0x800219ac                btpbuf_cat
 .text.btpbuf_chain
                0x80021a08       0x30 c:/Utils/devkitPro/libogc/lib/wii\libbte.a(btpbuf.o)
                0x80021a08                btpbuf_chain
 .text.btpbuf_free
                0x80021a38      0x110 c:/Utils/devkitPro/libogc/lib/wii\libbte.a(btpbuf.o)
                0x80021a38                btpbuf_free
 .text.btpbuf_dechain
                0x80021b48       0x7c c:/Utils/devkitPro/libogc/lib/wii\libbte.a(btpbuf.o)
                0x80021b48                btpbuf_dechain
 .text.btpbuf_realloc
                0x80021bc4       0xc0 c:/Utils/devkitPro/libogc/lib/wii\libbte.a(btpbuf.o)
                0x80021bc4                btpbuf_realloc
 .text.btpbuf_alloc
                0x80021c84      0x244 c:/Utils/devkitPro/libogc/lib/wii\libbte.a(btpbuf.o)
                0x80021c84                btpbuf_alloc
 .text.btpbuf_take
                0x80021ec8      0x124 c:/Utils/devkitPro/libogc/lib/wii\libbte.a(btpbuf.o)
                0x80021ec8                btpbuf_take
 .text.btpbuf_init
                0x80021fec       0x34 c:/Utils/devkitPro/libogc/lib/wii\libbte.a(btpbuf.o)
                0x80021fec                btpbuf_init
 .text.__usb_closeCB
                0x80022020       0x10 c:/Utils/devkitPro/libogc/lib/wii\libbte.a(physbusif.o)
 .text.physbusif_close
                0x80022030       0x2c c:/Utils/devkitPro/libogc/lib/wii\libbte.a(physbusif.o)
                0x80022030                physbusif_close
 .text.physbusif_reset_all
                0x8002205c        0x4 c:/Utils/devkitPro/libogc/lib/wii\libbte.a(physbusif.o)
                0x8002205c                physbusif_reset_all
 .text.physbusif_output
                0x80022060      0x18c c:/Utils/devkitPro/libogc/lib/wii\libbte.a(physbusif.o)
                0x80022060                physbusif_output
 .text.__writebulkmsgCB
                0x800221ec       0x40 c:/Utils/devkitPro/libogc/lib/wii\libbte.a(physbusif.o)
 .text.__writectrlmsgCB
                0x8002222c       0x40 c:/Utils/devkitPro/libogc/lib/wii\libbte.a(physbusif.o)
 .text.physbusif_shutdown
                0x8002226c       0x50 c:/Utils/devkitPro/libogc/lib/wii\libbte.a(physbusif.o)
                0x8002226c                physbusif_shutdown
 .text.__initUsbIOBuffer
                0x800222bc       0x98 c:/Utils/devkitPro/libogc/lib/wii\libbte.a(physbusif.o)
 .text.__issue_intrread
                0x80022354       0xbc c:/Utils/devkitPro/libogc/lib/wii\libbte.a(physbusif.o)
 .text.__readintrdataCB
                0x80022410      0x120 c:/Utils/devkitPro/libogc/lib/wii\libbte.a(physbusif.o)
 .text.__issue_bulkread
                0x80022530       0xbc c:/Utils/devkitPro/libogc/lib/wii\libbte.a(physbusif.o)
 .text.physbusif_init
                0x800225ec      0x1d0 c:/Utils/devkitPro/libogc/lib/wii\libbte.a(physbusif.o)
                0x800225ec                physbusif_init
 .text.__readbulkdataCB
                0x800227bc      0x120 c:/Utils/devkitPro/libogc/lib/wii\libbte.a(physbusif.o)
 .text.__console_clear
                0x800228dc       0x60 c:/Utils/devkitPro/libogc/lib/wii\libogc.a(console.o)
 .text.__console_init
                0x8002293c      0x128 c:/Utils/devkitPro/libogc/lib/wii\libogc.a(console.o)
                0x8002293c                __console_init
 .text.CON_Init
                0x80022a64        0x4 c:/Utils/devkitPro/libogc/lib/wii\libogc.a(console.o)
                0x80022a64                CON_Init
 .text.__console_write
                0x80022a68      0x644 c:/Utils/devkitPro/libogc/lib/wii\libogc.a(console.o)
                0x80022a68                __console_write
 .text.__lwp_queue_initialize
                0x800230ac       0x54 c:/Utils/devkitPro/libogc/lib/wii\libogc.a(lwp_queue.o)
                0x800230ac                __lwp_queue_initialize
 .text.__lwp_queue_get
                0x80023100       0x7c c:/Utils/devkitPro/libogc/lib/wii\libogc.a(lwp_queue.o)
                0x80023100                __lwp_queue_get
 .text.__lwp_queue_append
                0x8002317c       0x4c c:/Utils/devkitPro/libogc/lib/wii\libogc.a(lwp_queue.o)
                0x8002317c                __lwp_queue_append
 .text.__lwp_isr_in_progress
                0x800231c8        0x8 c:/Utils/devkitPro/libogc/lib/wii\libogc.a(lwp_threads.o)
                0x800231c8                __lwp_isr_in_progress
 .text.__lwp_thread_resettimeslice
                0x800231d0       0xd0 c:/Utils/devkitPro/libogc/lib/wii\libogc.a(lwp_threads.o)
                0x800231d0                __lwp_thread_resettimeslice
 .text.__lwp_thread_setstate
                0x800232a0      0x158 c:/Utils/devkitPro/libogc/lib/wii\libogc.a(lwp_threads.o)
                0x800232a0                __lwp_thread_setstate
 .text.__lwp_thread_clearstate
                0x800233f8      0x104 c:/Utils/devkitPro/libogc/lib/wii\libogc.a(lwp_threads.o)
                0x800233f8                __lwp_thread_clearstate
 .text.__lwp_thread_setpriority
                0x800234fc       0x5c c:/Utils/devkitPro/libogc/lib/wii\libogc.a(lwp_threads.o)
                0x800234fc                __lwp_thread_setpriority
 .text.__lwp_thread_settransient
                0x80023558       0xd0 c:/Utils/devkitPro/libogc/lib/wii\libogc.a(lwp_threads.o)
                0x80023558                __lwp_thread_settransient
 .text.__lwp_thread_loadenv
                0x80023628       0x78 c:/Utils/devkitPro/libogc/lib/wii\libogc.a(lwp_threads.o)
                0x80023628                __lwp_thread_loadenv
 .text.__lwp_thread_ready
                0x800236a0       0xf8 c:/Utils/devkitPro/libogc/lib/wii\libogc.a(lwp_threads.o)
                0x800236a0                __lwp_thread_ready
 .text.__thread_dispatch
                0x80023798      0x12c c:/Utils/devkitPro/libogc/lib/wii\libogc.a(lwp_threads.o)
                0x80023798                __thread_dispatch
 .text.__lwp_thread_start
                0x800238c4       0x64 c:/Utils/devkitPro/libogc/lib/wii\libogc.a(lwp_threads.o)
                0x800238c4                __lwp_thread_start
 .text.__lwp_thread_close
                0x80023928      0x138 c:/Utils/devkitPro/libogc/lib/wii\libogc.a(lwp_threads.o)
                0x80023928                __lwp_thread_close
 .text.__lwp_thread_closeall
                0x80023a60       0xd4 c:/Utils/devkitPro/libogc/lib/wii\libogc.a(lwp_threads.o)
                0x80023a60                __lwp_thread_closeall
 .text.__lwp_thread_init
                0x80023b34      0x124 c:/Utils/devkitPro/libogc/lib/wii\libogc.a(lwp_threads.o)
                0x80023b34                __lwp_thread_init
 .text.__thread_dispatch_fp
                0x80023c58       0x9c c:/Utils/devkitPro/libogc/lib/wii\libogc.a(lwp_threads.o)
                0x80023c58                __thread_dispatch_fp
 .text.__lwp_thread_stopmultitasking
                0x80023cf4       0x64 c:/Utils/devkitPro/libogc/lib/wii\libogc.a(lwp_threads.o)
                0x80023cf4                __lwp_thread_stopmultitasking
 .text.__lwp_thread_changepriority
                0x80023d58      0x1b8 c:/Utils/devkitPro/libogc/lib/wii\libogc.a(lwp_threads.o)
                0x80023d58                __lwp_thread_changepriority
 .text.__lwp_thread_coreinit
                0x80023f10       0x94 c:/Utils/devkitPro/libogc/lib/wii\libogc.a(lwp_threads.o)
                0x80023f10                __lwp_thread_coreinit
 .text.__lwp_thread_exit
                0x80023fa4       0x70 c:/Utils/devkitPro/libogc/lib/wii\libogc.a(lwp_threads.o)
                0x80023fa4                __lwp_thread_exit
 .text.__lwp_thread_handler
                0x80024014       0x7c c:/Utils/devkitPro/libogc/lib/wii\libogc.a(lwp_threads.o)
 .text.__lwp_thread_startmultitasking
                0x80024090       0xcc c:/Utils/devkitPro/libogc/lib/wii\libogc.a(lwp_threads.o)
                0x80024090                __lwp_thread_startmultitasking
 .text.__lwp_thread_tickle_timeslice
                0x8002415c       0xe0 c:/Utils/devkitPro/libogc/lib/wii\libogc.a(lwp_threads.o)
                0x8002415c                __lwp_thread_tickle_timeslice
 .text.idle_func
                0x8002423c        0x4 c:/Utils/devkitPro/libogc/lib/wii\libogc.a(lwp.o)
 .text.__lwp_sysinit
                0x80024240      0x118 c:/Utils/devkitPro/libogc/lib/wii\libogc.a(lwp.o)
                0x80024240                __lwp_sysinit
 .text.LWP_ThreadSignal
                0x80024358       0x74 c:/Utils/devkitPro/libogc/lib/wii\libogc.a(lwp.o)
                0x80024358                LWP_ThreadSignal
 .text.LWP_ThreadBroadcast
                0x800243cc       0x88 c:/Utils/devkitPro/libogc/lib/wii\libogc.a(lwp.o)
                0x800243cc                LWP_ThreadBroadcast
 .text.LWP_ThreadSleep
                0x80024454       0xe0 c:/Utils/devkitPro/libogc/lib/wii\libogc.a(lwp.o)
                0x80024454                LWP_ThreadSleep
 .text.LWP_CloseQueue
                0x80024534       0xe8 c:/Utils/devkitPro/libogc/lib/wii\libogc.a(lwp.o)
                0x80024534                LWP_CloseQueue
 .text.LWP_InitQueue
                0x8002461c      0x124 c:/Utils/devkitPro/libogc/lib/wii\libogc.a(lwp.o)
                0x8002461c                LWP_InitQueue
 .text.__lwp_stack_free
                0x80024740       0x38 c:/Utils/devkitPro/libogc/lib/wii\libogc.a(lwp_stack.o)
                0x80024740                __lwp_stack_free
 .text.__lwp_stack_allocate
                0x80024778       0x6c c:/Utils/devkitPro/libogc/lib/wii\libogc.a(lwp_stack.o)
                0x80024778                __lwp_stack_allocate
 .text.__lwp_watchdog_init
                0x800247e4       0x2c c:/Utils/devkitPro/libogc/lib/wii\libogc.a(lwp_watchdog.o)
                0x800247e4                __lwp_watchdog_init
 .text.__lwp_wd_settimer
                0x80024810       0xe0 c:/Utils/devkitPro/libogc/lib/wii\libogc.a(lwp_watchdog.o)
 .text.__lwp_wd_remove
                0x800248f0      0x104 c:/Utils/devkitPro/libogc/lib/wii\libogc.a(lwp_watchdog.o)
                0x800248f0                __lwp_wd_remove
 .text.__lwp_wd_insert
                0x800249f4      0x1c4 c:/Utils/devkitPro/libogc/lib/wii\libogc.a(lwp_watchdog.o)
                0x800249f4                __lwp_wd_insert
 .text.__lwp_wd_tickle
                0x80024bb8      0x130 c:/Utils/devkitPro/libogc/lib/wii\libogc.a(lwp_watchdog.o)
                0x80024bb8                __lwp_wd_tickle
 .text.__lwp_wkspace_init
                0x80024ce8       0xc8 c:/Utils/devkitPro/libogc/lib/wii\libogc.a(lwp_wkspace.o)
                0x80024ce8                __lwp_wkspace_init
 .text.__lwp_objmgr_getisrdisable
                0x80024db0       0x64 c:/Utils/devkitPro/libogc/lib/wii\libogc.a(lwp_objmgr.o)
                0x80024db0                __lwp_objmgr_getisrdisable
 .text.__lwp_objmgr_getnoprotection
                0x80024e14       0x24 c:/Utils/devkitPro/libogc/lib/wii\libogc.a(lwp_objmgr.o)
                0x80024e14                __lwp_objmgr_getnoprotection
 .text.__lwp_objmgr_allocate
                0x80024e38       0x74 c:/Utils/devkitPro/libogc/lib/wii\libogc.a(lwp_objmgr.o)
                0x80024e38                __lwp_objmgr_allocate
 .text.__lwp_objmgr_free
                0x80024eac       0x5c c:/Utils/devkitPro/libogc/lib/wii\libogc.a(lwp_objmgr.o)
                0x80024eac                __lwp_objmgr_free
 .text.__lwp_objmgr_get
                0x80024f08       0x78 c:/Utils/devkitPro/libogc/lib/wii\libogc.a(lwp_objmgr.o)
                0x80024f08                __lwp_objmgr_get
 .text.__lwp_objmgr_initinfo
                0x80024f80      0x1b0 c:/Utils/devkitPro/libogc/lib/wii\libogc.a(lwp_objmgr.o)
                0x80024f80                __lwp_objmgr_initinfo
 .text.__lwp_heap_init
                0x80025130       0x9c c:/Utils/devkitPro/libogc/lib/wii\libogc.a(lwp_heap.o)
                0x80025130                __lwp_heap_init
 .text.__lwp_heap_free
                0x800251cc      0x1d4 c:/Utils/devkitPro/libogc/lib/wii\libogc.a(lwp_heap.o)
                0x800251cc                __lwp_heap_free
 .text.__lwp_heap_allocate
                0x800253a0      0x16c c:/Utils/devkitPro/libogc/lib/wii\libogc.a(lwp_heap.o)
                0x800253a0                __lwp_heap_allocate
 .text.c_irqdispatcher
                0x8002550c      0x2ac c:/Utils/devkitPro/libogc/lib/wii\libogc.a(irq.o)
                0x8002550c                c_irqdispatcher
 .text.__SetInterrupts
                0x800257b8      0x268 c:/Utils/devkitPro/libogc/lib/wii\libogc.a(irq.o)
 .text.__UnmaskIrq
                0x80025a20       0x90 c:/Utils/devkitPro/libogc/lib/wii\libogc.a(irq.o)
                0x80025a20                __UnmaskIrq
 .text.__MaskIrq
                0x80025ab0       0x90 c:/Utils/devkitPro/libogc/lib/wii\libogc.a(irq.o)
                0x80025ab0                __MaskIrq
 .text.IRQ_Request
                0x80025b40       0x54 c:/Utils/devkitPro/libogc/lib/wii\libogc.a(irq.o)
                0x80025b40                IRQ_Request
 .text.IRQ_GetHandler
                0x80025b94       0x44 c:/Utils/devkitPro/libogc/lib/wii\libogc.a(irq.o)
                0x80025b94                IRQ_GetHandler
 .text.IRQ_Disable
                0x80025bd8       0x20 c:/Utils/devkitPro/libogc/lib/wii\libogc.a(irq.o)
                0x80025bd8                IRQ_Disable
 .text.IRQ_Restore
                0x80025bf8       0x1c c:/Utils/devkitPro/libogc/lib/wii\libogc.a(irq.o)
                0x80025bf8                IRQ_Restore
 .text.__irq_init
                0x80025c14       0xac c:/Utils/devkitPro/libogc/lib/wii\libogc.a(irq.o)
                0x80025c14                __irq_init
 .text.__gettiming
                0x80025cc0       0xb0 c:/Utils/devkitPro/libogc/lib/wii\libogc.a(video.o)
 .text.VIDEO_Flush
                0x80025d70      0x178 c:/Utils/devkitPro/libogc/lib/wii\libogc.a(video.o)
                0x80025d70                VIDEO_Flush
 .text.VIDEO_GetCurrentTvMode
                0x80025ee8       0x70 c:/Utils/devkitPro/libogc/lib/wii\libogc.a(video.o)
                0x80025ee8                VIDEO_GetCurrentTvMode
 .text.VIDEO_HaveComponentCable
                0x80025f58       0x14 c:/Utils/devkitPro/libogc/lib/wii\libogc.a(video.o)
                0x80025f58                VIDEO_HaveComponentCable
 .text.VIDEO_GetPreferredMode
                0x80025f6c       0xd0 c:/Utils/devkitPro/libogc/lib/wii\libogc.a(video.o)
                0x80025f6c                VIDEO_GetPreferredMode
 .text.VIDEO_WaitVSync
                0x8002603c       0x90 c:/Utils/devkitPro/libogc/lib/wii\libogc.a(video.o)
                0x8002603c                VIDEO_WaitVSync
 .text.__VISendI2CData
                0x800260cc      0x560 c:/Utils/devkitPro/libogc/lib/wii\libogc.a(video.o)
 .text.__VIWriteI2CRegisterBuf
                0x8002662c       0x54 c:/Utils/devkitPro/libogc/lib/wii\libogc.a(video.o)
 .text.__VIWriteI2CRegister32
                0x80026680       0x58 c:/Utils/devkitPro/libogc/lib/wii\libogc.a(video.o)
 .text.__VIWriteI2CRegister16
                0x800266d8       0x48 c:/Utils/devkitPro/libogc/lib/wii\libogc.a(video.o)
 .text.__VIWriteI2CRegister8
                0x80026720       0x3c c:/Utils/devkitPro/libogc/lib/wii\libogc.a(video.o)
 .text.__VISetFilterEURGB60
                0x8002675c        0xc c:/Utils/devkitPro/libogc/lib/wii\libogc.a(video.o)
 .text.__VISetYUVSEL
                0x80026768       0x90 c:/Utils/devkitPro/libogc/lib/wii\libogc.a(video.o)
 .text.VIDEO_Init
                0x800267f8      0x818 c:/Utils/devkitPro/libogc/lib/wii\libogc.a(video.o)
                0x800267f8                VIDEO_Init
 .text.__VIRetraceHandler
                0x80027010      0x308 c:/Utils/devkitPro/libogc/lib/wii\libogc.a(video.o)
 .text.VIDEO_GetCurrentLine
                0x80027318       0xa8 c:/Utils/devkitPro/libogc/lib/wii\libogc.a(video.o)
                0x80027318                VIDEO_GetCurrentLine
 .text.VIDEO_SetBlack
                0x800273c0      0x158 c:/Utils/devkitPro/libogc/lib/wii\libogc.a(video.o)
                0x800273c0                VIDEO_SetBlack
 .text.VIDEO_Configure
                0x80027518      0x874 c:/Utils/devkitPro/libogc/lib/wii\libogc.a(video.o)
                0x80027518                VIDEO_Configure
 .text.VIDEO_SetNextFramebuffer
                0x80027d8c      0x234 c:/Utils/devkitPro/libogc/lib/wii\libogc.a(video.o)
                0x80027d8c                VIDEO_SetNextFramebuffer
 .text.VIDEO_SetFramebuffer
                0x80027fc0      0x340 c:/Utils/devkitPro/libogc/lib/wii\libogc.a(video.o)
                0x80027fc0                VIDEO_SetFramebuffer
 .text.__MEMInterruptHandler
                0x80028300       0x14 c:/Utils/devkitPro/libogc/lib/wii\libogc.a(system.o)
 .text.__RSWDefaultHandler
                0x80028314        0x4 c:/Utils/devkitPro/libogc/lib/wii\libogc.a(system.o)
 .text.__POWDefaultHandler
                0x80028318        0x4 c:/Utils/devkitPro/libogc/lib/wii\libogc.a(system.o)
 .text.__sram_sync
                0x8002831c        0xc c:/Utils/devkitPro/libogc/lib/wii\libogc.a(system.o)
 .text.__call_resetfuncs
                0x80028328       0xb0 c:/Utils/devkitPro/libogc/lib/wii\libogc.a(system.o)
 .text.__locksram
                0x800283d8       0x60 c:/Utils/devkitPro/libogc/lib/wii\libogc.a(system.o)
 .text.__SYS_LockSramEx
                0x80028438        0x8 c:/Utils/devkitPro/libogc/lib/wii\libogc.a(system.o)
                0x80028438                __SYS_LockSramEx
 .text.__SYS_GetIPCBufferLo
                0x80028440        0xc c:/Utils/devkitPro/libogc/lib/wii\libogc.a(system.o)
                0x80028440                __SYS_GetIPCBufferLo
 .text.__SYS_GetIPCBufferHi
                0x8002844c        0xc c:/Utils/devkitPro/libogc/lib/wii\libogc.a(system.o)
                0x8002844c                __SYS_GetIPCBufferHi
 .text._V_EXPORTNAME
                0x80028458       0x24 c:/Utils/devkitPro/libogc/lib/wii\libogc.a(system.o)
                0x80028458                _V_EXPORTNAME
 .text.__SYS_DoPowerCB
                0x8002847c       0x78 c:/Utils/devkitPro/libogc/lib/wii\libogc.a(system.o)
                0x8002847c                __SYS_DoPowerCB
 .text.__SYS_InitCallbacks
                0x800284f4       0x30 c:/Utils/devkitPro/libogc/lib/wii\libogc.a(system.o)
                0x800284f4                __SYS_InitCallbacks
 .text.SYS_ResetButtonDown
                0x80028524       0x18 c:/Utils/devkitPro/libogc/lib/wii\libogc.a(system.o)
                0x80028524                SYS_ResetButtonDown
 .text.__STMEventHandler
                0x8002853c      0x10c c:/Utils/devkitPro/libogc/lib/wii\libogc.a(system.o)
 .text.SYS_RegisterResetFunc
                0x80028648       0x94 c:/Utils/devkitPro/libogc/lib/wii\libogc.a(system.o)
                0x80028648                SYS_RegisterResetFunc
 .text.SYS_SetArena1Lo
                0x800286dc       0x3c c:/Utils/devkitPro/libogc/lib/wii\libogc.a(system.o)
                0x800286dc                SYS_SetArena1Lo
 .text.SYS_GetArena1Lo
                0x80028718       0x3c c:/Utils/devkitPro/libogc/lib/wii\libogc.a(system.o)
                0x80028718                SYS_GetArena1Lo
 .text.SYS_SetArena1Hi
                0x80028754       0x3c c:/Utils/devkitPro/libogc/lib/wii\libogc.a(system.o)
                0x80028754                SYS_SetArena1Hi
 .text.SYS_GetArena1Hi
                0x80028790       0x3c c:/Utils/devkitPro/libogc/lib/wii\libogc.a(system.o)
                0x80028790                SYS_GetArena1Hi
 .text.SYS_SetArena2Lo
                0x800287cc       0x3c c:/Utils/devkitPro/libogc/lib/wii\libogc.a(system.o)
                0x800287cc                SYS_SetArena2Lo
 .text.SYS_GetArena2Lo
                0x80028808       0x3c c:/Utils/devkitPro/libogc/lib/wii\libogc.a(system.o)
                0x80028808                SYS_GetArena2Lo
 .text.SYS_SetArena2Hi
                0x80028844       0x3c c:/Utils/devkitPro/libogc/lib/wii\libogc.a(system.o)
                0x80028844                SYS_SetArena2Hi
 .text.SYS_GetArena2Hi
                0x80028880       0x3c c:/Utils/devkitPro/libogc/lib/wii\libogc.a(system.o)
                0x80028880                SYS_GetArena2Hi
 .text.SYS_GetHollywoodRevision
                0x800288bc       0x3c c:/Utils/devkitPro/libogc/lib/wii\libogc.a(system.o)
                0x800288bc                SYS_GetHollywoodRevision
 .text.SYS_AllocateFramebuffer
                0x800288f8       0x3c c:/Utils/devkitPro/libogc/lib/wii\libogc.a(system.o)
                0x800288f8                SYS_AllocateFramebuffer
 .text.__mem_onreset
                0x80028934       0x54 c:/Utils/devkitPro/libogc/lib/wii\libogc.a(system.o)
 .text.SYS_PreMain
                0x80028988       0x38 c:/Utils/devkitPro/libogc/lib/wii\libogc.a(system.o)
                0x80028988                SYS_PreMain
 .text.__sram_init
                0x800289c0      0x168 c:/Utils/devkitPro/libogc/lib/wii\libogc.a(system.o)
                0x800289c0                __sram_init
 .text.SYS_Init
                0x80028b28      0x540 c:/Utils/devkitPro/libogc/lib/wii\libogc.a(system.o)
                0x80028b28                SYS_Init
 .text.__sram_write
                0x80029068      0x148 c:/Utils/devkitPro/libogc/lib/wii\libogc.a(system.o)
 .text.__unlocksram
                0x800291b0      0x14c c:/Utils/devkitPro/libogc/lib/wii\libogc.a(system.o)
 .text.__SYS_UnlockSramEx
                0x800292fc        0x8 c:/Utils/devkitPro/libogc/lib/wii\libogc.a(system.o)
                0x800292fc                __SYS_UnlockSramEx
 .text.SYS_GetWirelessID
                0x80029304       0x4c c:/Utils/devkitPro/libogc/lib/wii\libogc.a(system.o)
                0x80029304                SYS_GetWirelessID
 .text.SYS_SetWirelessID
                0x80029350       0x60 c:/Utils/devkitPro/libogc/lib/wii\libogc.a(system.o)
                0x80029350                SYS_SetWirelessID
 .text.__sram_writecallback
                0x800293b0       0x58 c:/Utils/devkitPro/libogc/lib/wii\libogc.a(system.o)
 .text.SYS_ResetSystem
                0x80029408      0x234 c:/Utils/devkitPro/libogc/lib/wii\libogc.a(system.o)
                0x80029408                SYS_ResetSystem
 .text.SYS_CreateAlarm
                0x8002963c      0x10c c:/Utils/devkitPro/libogc/lib/wii\libogc.a(system.o)
                0x8002963c                SYS_CreateAlarm
 .text.SYS_CancelAlarm
                0x80029748       0xb0 c:/Utils/devkitPro/libogc/lib/wii\libogc.a(system.o)
                0x80029748                SYS_CancelAlarm
 .text.SYS_RemoveAlarm
                0x800297f8       0xf0 c:/Utils/devkitPro/libogc/lib/wii\libogc.a(system.o)
                0x800297f8                SYS_RemoveAlarm
 .text.SYS_SetAlarm
                0x800298e8      0x17c c:/Utils/devkitPro/libogc/lib/wii\libogc.a(system.o)
                0x800298e8                SYS_SetAlarm
 .text.__sys_alarmhandler
                0x80029a64      0x104 c:/Utils/devkitPro/libogc/lib/wii\libogc.a(system.o)
 .text.SYS_SetPeriodicAlarm
                0x80029b68      0x1dc c:/Utils/devkitPro/libogc/lib/wii\libogc.a(system.o)
                0x80029b68                SYS_SetPeriodicAlarm
 .text.__lwp_cond_init
                0x80029d44       0x30 c:/Utils/devkitPro/libogc/lib/wii\libogc.a(cond.o)
                0x80029d44                __lwp_cond_init
 .text.__decrementer_init
                0x80029d74        0x4 c:/Utils/devkitPro/libogc/lib/wii\libogc.a(decrementer.o)
                0x80029d74                __decrementer_init
 .text.c_decrementer_handler
                0x80029d78       0x28 c:/Utils/devkitPro/libogc/lib/wii\libogc.a(decrementer.o)
                0x80029d78                c_decrementer_handler
 .text.__lwp_mqbox_init
                0x80029da0       0x30 c:/Utils/devkitPro/libogc/lib/wii\libogc.a(message.o)
                0x80029da0                __lwp_mqbox_init
 .text.__si_transfer
                0x80029dd0      0x15c c:/Utils/devkitPro/libogc/lib/wii\libogc.a(si.o)
 .text.__si_alarmhandler
                0x80029f2c       0xb4 c:/Utils/devkitPro/libogc/lib/wii\libogc.a(si.o)
 .text.__si_calltypandstatuscallback
                0x80029fe0       0x8c c:/Utils/devkitPro/libogc/lib/wii\libogc.a(si.o)
 .text.SI_IsChanBusy
                0x8002a06c       0x38 c:/Utils/devkitPro/libogc/lib/wii\libogc.a(si.o)
                0x8002a06c                SI_IsChanBusy
 .text.SI_SetXY
                0x8002a0a4       0x64 c:/Utils/devkitPro/libogc/lib/wii\libogc.a(si.o)
                0x8002a0a4                SI_SetXY
 .text.SI_DisablePolling
                0x8002a108       0x58 c:/Utils/devkitPro/libogc/lib/wii\libogc.a(si.o)
                0x8002a108                SI_DisablePolling
 .text.SI_GetStatus
                0x8002a160       0x7c c:/Utils/devkitPro/libogc/lib/wii\libogc.a(si.o)
                0x8002a160                SI_GetStatus
 .text.SI_GetResponseRaw
                0x8002a1dc       0x78 c:/Utils/devkitPro/libogc/lib/wii\libogc.a(si.o)
                0x8002a1dc                SI_GetResponseRaw
 .text.SI_GetResponse
                0x8002a254       0xb4 c:/Utils/devkitPro/libogc/lib/wii\libogc.a(si.o)
                0x8002a254                SI_GetResponse
 .text.SI_SetCommand
                0x8002a308       0x10 c:/Utils/devkitPro/libogc/lib/wii\libogc.a(si.o)
                0x8002a308                SI_SetCommand
 .text.SI_TransferCommands
                0x8002a318       0x14 c:/Utils/devkitPro/libogc/lib/wii\libogc.a(si.o)
                0x8002a318                SI_TransferCommands
 .text.SI_EnablePolling
                0x8002a32c       0xa0 c:/Utils/devkitPro/libogc/lib/wii\libogc.a(si.o)
                0x8002a32c                SI_EnablePolling
 .text.__si_completetransfer
                0x8002a3cc      0x1a8 c:/Utils/devkitPro/libogc/lib/wii\libogc.a(si.o)
 .text.__si_transfernext
                0x8002a574       0xe0 c:/Utils/devkitPro/libogc/lib/wii\libogc.a(si.o)
 .text.SI_Transfer
                0x8002a654      0x21c c:/Utils/devkitPro/libogc/lib/wii\libogc.a(si.o)
                0x8002a654                SI_Transfer
 .text.SI_GetType
                0x8002a870      0x228 c:/Utils/devkitPro/libogc/lib/wii\libogc.a(si.o)
                0x8002a870                SI_GetType
 .text.SI_GetTypeAsync
                0x8002aa98      0x13c c:/Utils/devkitPro/libogc/lib/wii\libogc.a(si.o)
                0x8002aa98                SI_GetTypeAsync
 .text.__si_interrupthandler
                0x8002abd4      0x24c c:/Utils/devkitPro/libogc/lib/wii\libogc.a(si.o)
 .text.__si_gettypecallback
                0x8002ae20      0x268 c:/Utils/devkitPro/libogc/lib/wii\libogc.a(si.o)
 .text.SI_SetSamplingRate
                0x8002b088       0xf4 c:/Utils/devkitPro/libogc/lib/wii\libogc.a(si.o)
                0x8002b088                SI_SetSamplingRate
 .text.__si_init
                0x8002b17c       0xf8 c:/Utils/devkitPro/libogc/lib/wii\libogc.a(si.o)
                0x8002b17c                __si_init
 .text.SI_RefreshSamplingRate
                0x8002b274        0xc c:/Utils/devkitPro/libogc/lib/wii\libogc.a(si.o)
                0x8002b274                SI_RefreshSamplingRate
 .text.IPC_GetBufferLo
                0x8002b280        0xc c:/Utils/devkitPro/libogc/lib/wii\libogc.a(ipc.o)
                0x8002b280                IPC_GetBufferLo
 .text.IPC_GetBufferHi
                0x8002b28c        0xc c:/Utils/devkitPro/libogc/lib/wii\libogc.a(ipc.o)
                0x8002b28c                IPC_GetBufferHi
 .text.IPC_SetBufferLo
                0x8002b298       0x1c c:/Utils/devkitPro/libogc/lib/wii\libogc.a(ipc.o)
                0x8002b298                IPC_SetBufferLo
 .text.__ipc_sendrequest
                0x8002b2b4      0x10c c:/Utils/devkitPro/libogc/lib/wii\libogc.a(ipc.o)
 .text.__ipc_syncrequest
                0x8002b3c0       0xe4 c:/Utils/devkitPro/libogc/lib/wii\libogc.a(ipc.o)
 .text.iosAlloc
                0x8002b4a4       0x4c c:/Utils/devkitPro/libogc/lib/wii\libogc.a(ipc.o)
                0x8002b4a4                iosAlloc
 .text.iosFree  0x8002b4f0       0x44 c:/Utils/devkitPro/libogc/lib/wii\libogc.a(ipc.o)
                0x8002b4f0                iosFree
 .text.__ios_ioctlvformat_parse
                0x8002b534      0x790 c:/Utils/devkitPro/libogc/lib/wii\libogc.a(ipc.o)
 .text.__ioctlvfmtCB
                0x8002bcc4      0x110 c:/Utils/devkitPro/libogc/lib/wii\libogc.a(ipc.o)
 .text.__IPC_Init
                0x8002bdd4       0x64 c:/Utils/devkitPro/libogc/lib/wii\libogc.a(ipc.o)
                0x8002bdd4                __IPC_Init
 .text.iosCreateHeap
                0x8002be38      0x160 c:/Utils/devkitPro/libogc/lib/wii\libogc.a(ipc.o)
                0x8002be38                iosCreateHeap
 .text.__IPC_ClntInit
                0x8002bf98       0x78 c:/Utils/devkitPro/libogc/lib/wii\libogc.a(ipc.o)
                0x8002bf98                __IPC_ClntInit
 .text.__ipc_interrupthandler
                0x8002c010      0x320 c:/Utils/devkitPro/libogc/lib/wii\libogc.a(ipc.o)
 .text.IOS_Write
                0x8002c330       0xc0 c:/Utils/devkitPro/libogc/lib/wii\libogc.a(ipc.o)
                0x8002c330                IOS_Write
 .text.__ipc_asyncrequest
                0x8002c3f0      0x110 c:/Utils/devkitPro/libogc/lib/wii\libogc.a(ipc.o)
 .text.IOS_IoctlvReboot
                0x8002c500      0x1a0 c:/Utils/devkitPro/libogc/lib/wii\libogc.a(ipc.o)
                0x8002c500                IOS_IoctlvReboot
 .text.IOS_Open
                0x8002c6a0       0xc8 c:/Utils/devkitPro/libogc/lib/wii\libogc.a(ipc.o)
                0x8002c6a0                IOS_Open
 .text.IOS_Read
                0x8002c768       0xc0 c:/Utils/devkitPro/libogc/lib/wii\libogc.a(ipc.o)
                0x8002c768                IOS_Read
 .text.IOS_CloseAsync
                0x8002c828       0x94 c:/Utils/devkitPro/libogc/lib/wii\libogc.a(ipc.o)
                0x8002c828                IOS_CloseAsync
 .text.IOS_Close
                0x8002c8bc       0x8c c:/Utils/devkitPro/libogc/lib/wii\libogc.a(ipc.o)
                0x8002c8bc                IOS_Close
 .text.IOS_IoctlvAsync
                0x8002c948      0x1c0 c:/Utils/devkitPro/libogc/lib/wii\libogc.a(ipc.o)
                0x8002c948                IOS_IoctlvAsync
 .text.IOS_Ioctlv
                0x8002cb08      0x19c c:/Utils/devkitPro/libogc/lib/wii\libogc.a(ipc.o)
                0x8002cb08                IOS_Ioctlv
 .text.IOS_IoctlvFormat
                0x8002cca4      0x178 c:/Utils/devkitPro/libogc/lib/wii\libogc.a(ipc.o)
                0x8002cca4                IOS_IoctlvFormat
 .text.IOS_IoctlAsync
                0x8002ce1c      0x128 c:/Utils/devkitPro/libogc/lib/wii\libogc.a(ipc.o)
                0x8002ce1c                IOS_IoctlAsync
 .text.IOS_Ioctl
                0x8002cf44      0x100 c:/Utils/devkitPro/libogc/lib/wii\libogc.a(ipc.o)
                0x8002cf44                IOS_Ioctl
 .text.gettick  0x8002d044       0x10 c:/Utils/devkitPro/libogc/lib/wii\libogc.a(timesupp.o)
                0x8002d044                gettick
 .text.gettime  0x8002d054       0x24 c:/Utils/devkitPro/libogc/lib/wii\libogc.a(timesupp.o)
                0x8002d054                gettime
 .text.diff_usec
                0x8002d078       0x9c c:/Utils/devkitPro/libogc/lib/wii\libogc.a(timesupp.o)
                0x8002d078                diff_usec
 .text.udelay   0x8002d114       0x64 c:/Utils/devkitPro/libogc/lib/wii\libogc.a(timesupp.o)
                0x8002d114                udelay
 .text.__timesystem_init
                0x8002d178       0x40 c:/Utils/devkitPro/libogc/lib/wii\libogc.a(timesupp.o)
                0x8002d178                __timesystem_init
 .text.__libogc_lock_release
                0x8002d1b8       0x3c c:/Utils/devkitPro/libogc/lib/wii\libogc.a(lock_supp.o)
                0x8002d1b8                __libogc_lock_release
 .text.__libogc_lock_acquire
                0x8002d1f4       0x3c c:/Utils/devkitPro/libogc/lib/wii\libogc.a(lock_supp.o)
                0x8002d1f4                __libogc_lock_acquire
 .text.__libogc_lock_close
                0x8002d230       0x50 c:/Utils/devkitPro/libogc/lib/wii\libogc.a(lock_supp.o)
                0x8002d230                __libogc_lock_close
 .text.__libogc_lock_init
                0x8002d280       0x64 c:/Utils/devkitPro/libogc/lib/wii\libogc.a(lock_supp.o)
                0x8002d280                __libogc_lock_init
 .text.__libc_create_hook
                0x8002d2e4       0x10 c:/Utils/devkitPro/libogc/lib/wii\libogc.a(newlibc.o)
                0x8002d2e4                __libc_create_hook
 .text.__libc_init
                0x8002d2f4      0x178 c:/Utils/devkitPro/libogc/lib/wii\libogc.a(newlibc.o)
                0x8002d2f4                __libc_init
 .text.__libc_delete_hook
                0x8002d46c       0xbc c:/Utils/devkitPro/libogc/lib/wii\libogc.a(newlibc.o)
                0x8002d46c                __libc_delete_hook
 .text.__libc_start_hook
                0x8002d528      0x1c0 c:/Utils/devkitPro/libogc/lib/wii\libogc.a(newlibc.o)
                0x8002d528                __libc_start_hook
 .text.__usbgecko_init
                0x8002d6e8       0x58 c:/Utils/devkitPro/libogc/lib/wii\libogc.a(usbgecko.o)
 .text.__usbgecko_exi_unlock
                0x8002d740       0x34 c:/Utils/devkitPro/libogc/lib/wii\libogc.a(usbgecko.o)
 .text.__usb_sendbyte
                0x8002d774       0xc8 c:/Utils/devkitPro/libogc/lib/wii\libogc.a(usbgecko.o)
 .text.usb_sendbuffer
                0x8002d83c      0x138 c:/Utils/devkitPro/libogc/lib/wii\libogc.a(usbgecko.o)
                0x8002d83c                usb_sendbuffer
 .text.__usb_checksend
                0x8002d974       0xc0 c:/Utils/devkitPro/libogc/lib/wii\libogc.a(usbgecko.o)
                0x8002d974                __usb_checksend
 .text.usb_sendbuffer_safe
                0x8002da34      0x150 c:/Utils/devkitPro/libogc/lib/wii\libogc.a(usbgecko.o)
                0x8002da34                usb_sendbuffer_safe
 .text.__libogc_sbrk_r
                0x8002db84       0xe0 c:/Utils/devkitPro/libogc/lib/wii\libogc.a(sbrk.o)
                0x8002db84                __libogc_sbrk_r
 .text.__libogc_malloc_lock
                0x8002dc64      0x230 c:/Utils/devkitPro/libogc/lib/wii\libogc.a(malloc_lock.o)
                0x8002dc64                __libogc_malloc_lock
 .text.__memlock_init
                0x8002de94       0x70 c:/Utils/devkitPro/libogc/lib/wii\libogc.a(malloc_lock.o)
                0x8002de94                __memlock_init
 .text.__libogc_malloc_unlock
                0x8002df04       0x70 c:/Utils/devkitPro/libogc/lib/wii\libogc.a(malloc_lock.o)
                0x8002df04                __libogc_malloc_unlock
 .text.STM_RegisterEventHandler
                0x8002df74       0x14 c:/Utils/devkitPro/libogc/lib/wii\libogc.a(stm.o)
                0x8002df74                STM_RegisterEventHandler
 .text.STM_RebootSystem
                0x8002df88       0x70 c:/Utils/devkitPro/libogc/lib/wii\libogc.a(stm.o)
                0x8002df88                STM_RebootSystem
 .text.STM_SetLedMode
                0x8002dff8       0x60 c:/Utils/devkitPro/libogc/lib/wii\libogc.a(stm.o)
                0x8002dff8                STM_SetLedMode
 .text.STM_ShutdownToStandby
                0x8002e058       0x70 c:/Utils/devkitPro/libogc/lib/wii\libogc.a(stm.o)
                0x8002e058                STM_ShutdownToStandby
 .text.__STM_ReleaseEventHook
                0x8002e0c8       0x94 c:/Utils/devkitPro/libogc/lib/wii\libogc.a(stm.o)
                0x8002e0c8                __STM_ReleaseEventHook
 .text.STM_ShutdownToIdle
                0x8002e15c       0x9c c:/Utils/devkitPro/libogc/lib/wii\libogc.a(stm.o)
                0x8002e15c                STM_ShutdownToIdle
 .text.__STM_SetEventHook
                0x8002e1f8       0xe8 c:/Utils/devkitPro/libogc/lib/wii\libogc.a(stm.o)
                0x8002e1f8                __STM_SetEventHook
 .text.__STMEventHandler
                0x8002e2e0       0x6c c:/Utils/devkitPro/libogc/lib/wii\libogc.a(stm.o)
 .text.__STM_Close
                0x8002e34c       0x9c c:/Utils/devkitPro/libogc/lib/wii\libogc.a(stm.o)
                0x8002e34c                __STM_Close
 .text.__STM_Init
                0x8002e3e8       0xac c:/Utils/devkitPro/libogc/lib/wii\libogc.a(stm.o)
                0x8002e3e8                __STM_Init
 .text.IOS_GetVersion
                0x8002e494       0x54 c:/Utils/devkitPro/libogc/lib/wii\libogc.a(ios.o)
                0x8002e494                IOS_GetVersion
 .text.__IOS_LaunchNewIOS
                0x8002e4e8       0xf4 c:/Utils/devkitPro/libogc/lib/wii\libogc.a(ios.o)
                0x8002e4e8                __IOS_LaunchNewIOS
 .text.__IOS_ShutdownSubsystems
                0x8002e5dc       0x48 c:/Utils/devkitPro/libogc/lib/wii\libogc.a(ios.o)
                0x8002e5dc                __IOS_ShutdownSubsystems
 .text.__IOS_InitializeSubsystems
                0x8002e624       0x48 c:/Utils/devkitPro/libogc/lib/wii\libogc.a(ios.o)
                0x8002e624                __IOS_InitializeSubsystems
 .text.__IOS_InitHeap
                0x8002e66c       0x70 c:/Utils/devkitPro/libogc/lib/wii\libogc.a(ios.o)
                0x8002e66c                __IOS_InitHeap
 .text.IOS_GetPreferredVersion
                0x8002e6dc      0x100 c:/Utils/devkitPro/libogc/lib/wii\libogc.a(ios.o)
                0x8002e6dc                IOS_GetPreferredVersion
 .text.__IOS_LoadStartupIOS
                0x8002e7dc       0x6c c:/Utils/devkitPro/libogc/lib/wii\libogc.a(ios.o)
                0x8002e7dc                __IOS_LoadStartupIOS
 .text.__ES_Reset
                0x8002e848       0x14 c:/Utils/devkitPro/libogc/lib/wii\libogc.a(es.o)
                0x8002e848                __ES_Reset
 .text.ES_CloseContent
                0x8002e85c       0x6c c:/Utils/devkitPro/libogc/lib/wii\libogc.a(es.o)
                0x8002e85c                ES_CloseContent
 .text.ES_SeekContent
                0x8002e8c8       0x78 c:/Utils/devkitPro/libogc/lib/wii\libogc.a(es.o)
                0x8002e8c8                ES_SeekContent
 .text.ES_ReadContent
                0x8002e940       0x98 c:/Utils/devkitPro/libogc/lib/wii\libogc.a(es.o)
                0x8002e940                ES_ReadContent
 .text.ES_OpenTitleContent
                0x8002e9d8       0x5c c:/Utils/devkitPro/libogc/lib/wii\libogc.a(es.o)
                0x8002e9d8                ES_OpenTitleContent
 .text.ES_OpenContent
                0x8002ea34       0x50 c:/Utils/devkitPro/libogc/lib/wii\libogc.a(es.o)
                0x8002ea34                ES_OpenContent
 .text.ES_GetStoredTMD
                0x8002ea84       0xa4 c:/Utils/devkitPro/libogc/lib/wii\libogc.a(es.o)
                0x8002ea84                ES_GetStoredTMD
 .text.ES_GetStoredTMDSize
                0x8002eb28       0x88 c:/Utils/devkitPro/libogc/lib/wii\libogc.a(es.o)
                0x8002eb28                ES_GetStoredTMDSize
 .text.ES_GetTitles
                0x8002ebb0       0x90 c:/Utils/devkitPro/libogc/lib/wii\libogc.a(es.o)
                0x8002ebb0                ES_GetTitles
 .text.ES_GetNumTitles
                0x8002ec40       0x7c c:/Utils/devkitPro/libogc/lib/wii\libogc.a(es.o)
                0x8002ec40                ES_GetNumTitles
 .text.ES_GetTicketViews
                0x8002ecbc       0xa0 c:/Utils/devkitPro/libogc/lib/wii\libogc.a(es.o)
                0x8002ecbc                ES_GetTicketViews
 .text.ES_GetNumTicketViews
                0x8002ed5c       0x88 c:/Utils/devkitPro/libogc/lib/wii\libogc.a(es.o)
                0x8002ed5c                ES_GetNumTicketViews
 .text.ES_GetTitleID
                0x8002ede4       0x84 c:/Utils/devkitPro/libogc/lib/wii\libogc.a(es.o)
                0x8002ede4                ES_GetTitleID
 .text.ES_LaunchTitle
                0x8002ee68       0xb8 c:/Utils/devkitPro/libogc/lib/wii\libogc.a(es.o)
                0x8002ee68                ES_LaunchTitle
 .text.__ES_Close
                0x8002ef20       0x7c c:/Utils/devkitPro/libogc/lib/wii\libogc.a(es.o)
                0x8002ef20                __ES_Close
 .text.__ES_Init
                0x8002ef9c       0x84 c:/Utils/devkitPro/libogc/lib/wii\libogc.a(es.o)
                0x8002ef9c                __ES_Init
 .text._ES_decodepath
                0x8002f020      0x33c c:/Utils/devkitPro/libogc/lib/wii\libogc.a(es.o)
 .text._ES_fillstat
                0x8002f35c      0x164 c:/Utils/devkitPro/libogc/lib/wii\libogc.a(es.o)
 .text._ES_stat_r
                0x8002f4c0       0x64 c:/Utils/devkitPro/libogc/lib/wii\libogc.a(es.o)
 .text._ES_fstat_r
                0x8002f524       0x8c c:/Utils/devkitPro/libogc/lib/wii\libogc.a(es.o)
 .text._ES_seek_r
                0x8002f5b0       0xc0 c:/Utils/devkitPro/libogc/lib/wii\libogc.a(es.o)
 .text._ES_read_r
                0x8002f670      0x1a8 c:/Utils/devkitPro/libogc/lib/wii\libogc.a(es.o)
 .text._ES_close_r
                0x8002f818       0x8c c:/Utils/devkitPro/libogc/lib/wii\libogc.a(es.o)
 .text._ES_open_r
                0x8002f8a4       0xd0 c:/Utils/devkitPro/libogc/lib/wii\libogc.a(es.o)
 .text.__usb_bulk_messageCB
                0x8002f974       0xc8 c:/Utils/devkitPro/libogc/lib/wii\libogc.a(usb.o)
 .text.__usb_control_messageCB
                0x8002fa3c      0x118 c:/Utils/devkitPro/libogc/lib/wii\libogc.a(usb.o)
 .text.USB_CloseDeviceAsync
                0x8002fb54       0x48 c:/Utils/devkitPro/libogc/lib/wii\libogc.a(usb.o)
                0x8002fb54                USB_CloseDeviceAsync
 .text.USB_OpenDevice
                0x8002fb9c       0xd4 c:/Utils/devkitPro/libogc/lib/wii\libogc.a(usb.o)
                0x8002fb9c                USB_OpenDevice
 .text.USB_Initialize
                0x8002fc70       0x7c c:/Utils/devkitPro/libogc/lib/wii\libogc.a(usb.o)
                0x8002fc70                USB_Initialize
 .text.USB_WriteBlkMsgAsync
                0x8002fcec      0x1f4 c:/Utils/devkitPro/libogc/lib/wii\libogc.a(usb.o)
                0x8002fcec                USB_WriteBlkMsgAsync
 .text.USB_ReadBlkMsgAsync
                0x8002fee0      0x1f4 c:/Utils/devkitPro/libogc/lib/wii\libogc.a(usb.o)
                0x8002fee0                USB_ReadBlkMsgAsync
 .text.USB_ReadIntrMsgAsync
                0x800300d4      0x1f4 c:/Utils/devkitPro/libogc/lib/wii\libogc.a(usb.o)
                0x800300d4                USB_ReadIntrMsgAsync
 .text.USB_WriteCtrlMsgAsync
                0x800302c8      0x384 c:/Utils/devkitPro/libogc/lib/wii\libogc.a(usb.o)
                0x800302c8                USB_WriteCtrlMsgAsync
 .text.__CheckARGV
                0x8003064c       0x9c c:/Utils/devkitPro/libogc/lib/wii\libogc.a(argv.o)
                0x8003064c                __CheckARGV
 .text.__CONF_DecryptTextBuffer
                0x800306e8       0x48 c:/Utils/devkitPro/libogc/lib/wii\libogc.a(conf.o)
                0x800306e8                __CONF_DecryptTextBuffer
 .text.__CONF_Find
                0x80030730      0x118 c:/Utils/devkitPro/libogc/lib/wii\libogc.a(conf.o)
                0x80030730                __CONF_Find
 .text.CONF_GetLength
                0x80030848       0xd4 c:/Utils/devkitPro/libogc/lib/wii\libogc.a(conf.o)
                0x80030848                CONF_GetLength
 .text.CONF_Get
                0x8003091c      0x13c c:/Utils/devkitPro/libogc/lib/wii\libogc.a(conf.o)
                0x8003091c                CONF_Get
 .text.CONF_GetPadDevices
                0x80030a58       0x48 c:/Utils/devkitPro/libogc/lib/wii\libogc.a(conf.o)
                0x80030a58                CONF_GetPadDevices
 .text.CONF_GetDisplayOffsetH
                0x80030aa0       0x64 c:/Utils/devkitPro/libogc/lib/wii\libogc.a(conf.o)
                0x80030aa0                CONF_GetDisplayOffsetH
 .text.CONF_GetSensorBarPosition
                0x80030b04       0x58 c:/Utils/devkitPro/libogc/lib/wii\libogc.a(conf.o)
                0x80030b04                CONF_GetSensorBarPosition
 .text.CONF_GetIRSensitivity
                0x80030b5c       0x58 c:/Utils/devkitPro/libogc/lib/wii\libogc.a(conf.o)
                0x80030b5c                CONF_GetIRSensitivity
 .text.CONF_GetEuRGB60
                0x80030bb4       0x58 c:/Utils/devkitPro/libogc/lib/wii\libogc.a(conf.o)
                0x80030bb4                CONF_GetEuRGB60
 .text.CONF_GetProgressiveScan
                0x80030c0c       0x58 c:/Utils/devkitPro/libogc/lib/wii\libogc.a(conf.o)
                0x80030c0c                CONF_GetProgressiveScan
 .text.CONF_GetIdleLedMode
                0x80030c64       0x5c c:/Utils/devkitPro/libogc/lib/wii\libogc.a(conf.o)
                0x80030c64                CONF_GetIdleLedMode
 .text.CONF_GetShutdownMode
                0x80030cc0       0x5c c:/Utils/devkitPro/libogc/lib/wii\libogc.a(conf.o)
                0x80030cc0                CONF_GetShutdownMode
 .text.__CONF_GetTxt
                0x80030d1c      0x19c c:/Utils/devkitPro/libogc/lib/wii\libogc.a(conf.o)
                0x80030d1c                __CONF_GetTxt
 .text.CONF_GetVideo
                0x80030eb8       0xac c:/Utils/devkitPro/libogc/lib/wii\libogc.a(conf.o)
                0x80030eb8                CONF_GetVideo
 .text.CONF_Init
                0x80030f64      0x138 c:/Utils/devkitPro/libogc/lib/wii\libogc.a(conf.o)
                0x80030f64                CONF_Init
 .text.__CalcChecksum
                0x8003109c       0x3c c:/Utils/devkitPro/libogc/lib/wii\libogc.a(wiilaunch.o)
 .text.__SetChecksum
                0x800310d8       0x30 c:/Utils/devkitPro/libogc/lib/wii\libogc.a(wiilaunch.o)
 .text.__ValidChecksum
                0x80031108       0x38 c:/Utils/devkitPro/libogc/lib/wii\libogc.a(wiilaunch.o)
 .text.__WII_WriteStateFlags
                0x80031140       0x9c c:/Utils/devkitPro/libogc/lib/wii\libogc.a(wiilaunch.o)
 .text.WII_LaunchTitle
                0x800311dc       0xcc c:/Utils/devkitPro/libogc/lib/wii\libogc.a(wiilaunch.o)
                0x800311dc                WII_LaunchTitle
 .text.WII_ReturnToMenu
                0x800312a8       0x74 c:/Utils/devkitPro/libogc/lib/wii\libogc.a(wiilaunch.o)
                0x800312a8                WII_ReturnToMenu
 .text.WII_Initialize
                0x8003131c      0x204 c:/Utils/devkitPro/libogc/lib/wii\libogc.a(wiilaunch.o)
                0x8003131c                WII_Initialize
 .text.__lwp_priority_init
                0x80031520       0x34 c:/Utils/devkitPro/libogc/lib/wii\libogc.a(lwp_priority.o)
                0x80031520                __lwp_priority_init
 .text.__lwp_threadqueue_extractpriority
                0x80031554      0x16c c:/Utils/devkitPro/libogc/lib/wii\libogc.a(lwp_threadq.o)
                0x80031554                __lwp_threadqueue_extractpriority
 .text.__lwp_threadqueue_extractfifo
                0x800316c0       0xe8 c:/Utils/devkitPro/libogc/lib/wii\libogc.a(lwp_threadq.o)
                0x800316c0                __lwp_threadqueue_extractfifo
 .text.__lwp_threadqueue_extract
                0x800317a8       0x1c c:/Utils/devkitPro/libogc/lib/wii\libogc.a(lwp_threadq.o)
                0x800317a8                __lwp_threadqueue_extract
 .text.__lwp_threadqueue_extractproxy
                0x800317c4       0x3c c:/Utils/devkitPro/libogc/lib/wii\libogc.a(lwp_threadq.o)
                0x800317c4                __lwp_threadqueue_extractproxy
 .text.__lwp_threadqueue_timeout
                0x80031800       0x8c c:/Utils/devkitPro/libogc/lib/wii\libogc.a(lwp_threadq.o)
 .text.__lwp_threadqueue_dequeuepriority
                0x8003188c      0x210 c:/Utils/devkitPro/libogc/lib/wii\libogc.a(lwp_threadq.o)
                0x8003188c                __lwp_threadqueue_dequeuepriority
 .text.__lwp_threadqueue_enqueuepriority
                0x80031a9c      0x3b8 c:/Utils/devkitPro/libogc/lib/wii\libogc.a(lwp_threadq.o)
                0x80031a9c                __lwp_threadqueue_enqueuepriority
 .text.__lwp_threadqueue_dequeuefifo
                0x80031e54      0x14c c:/Utils/devkitPro/libogc/lib/wii\libogc.a(lwp_threadq.o)
                0x80031e54                __lwp_threadqueue_dequeuefifo
 .text.__lwp_threadqueue_dequeue
                0x80031fa0       0x24 c:/Utils/devkitPro/libogc/lib/wii\libogc.a(lwp_threadq.o)
                0x80031fa0                __lwp_threadqueue_dequeue
 .text.__lwp_threadqueue_flush
                0x80031fc4       0x4c c:/Utils/devkitPro/libogc/lib/wii\libogc.a(lwp_threadq.o)
                0x80031fc4                __lwp_threadqueue_flush
 .text.__lwp_threadqueue_enqueuefifo
                0x80032010      0x128 c:/Utils/devkitPro/libogc/lib/wii\libogc.a(lwp_threadq.o)
                0x80032010                __lwp_threadqueue_enqueuefifo
 .text.__lwp_threadqueue_enqueue
                0x80032138      0x13c c:/Utils/devkitPro/libogc/lib/wii\libogc.a(lwp_threadq.o)
                0x80032138                __lwp_threadqueue_enqueue
 .text.__lwp_threadqueue_init
                0x80032274       0x88 c:/Utils/devkitPro/libogc/lib/wii\libogc.a(lwp_threadq.o)
                0x80032274                __lwp_threadqueue_init
 .text.__lwp_mutex_flush
                0x800322fc       0x20 c:/Utils/devkitPro/libogc/lib/wii\libogc.a(lwp_mutex.o)
                0x800322fc                __lwp_mutex_flush
 .text.__lwp_mutex_initialize
                0x8003231c       0xe8 c:/Utils/devkitPro/libogc/lib/wii\libogc.a(lwp_mutex.o)
                0x8003231c                __lwp_mutex_initialize
 .text.__lwp_mutex_seize_irq_blocking
                0x80032404       0xec c:/Utils/devkitPro/libogc/lib/wii\libogc.a(lwp_mutex.o)
                0x80032404                __lwp_mutex_seize_irq_blocking
 .text.__lwp_mutex_surrender
                0x800324f0      0x150 c:/Utils/devkitPro/libogc/lib/wii\libogc.a(lwp_mutex.o)
                0x800324f0                __lwp_mutex_surrender
 .text.__exception_sethandler
                0x80032640       0x14 c:/Utils/devkitPro/libogc/lib/wii\libogc.a(exception.o)
                0x80032640                __exception_sethandler
 .text.__libogc_exit
                0x80032654       0x38 c:/Utils/devkitPro/libogc/lib/wii\libogc.a(exception.o)
                0x80032654                __libogc_exit
 .text.c_default_exceptionhandler
                0x8003268c      0x3e8 c:/Utils/devkitPro/libogc/lib/wii\libogc.a(exception.o)
                0x8003268c                c_default_exceptionhandler
 .text.__exception_load
                0x80032a74       0xa4 c:/Utils/devkitPro/libogc/lib/wii\libogc.a(exception.o)
                0x80032a74                __exception_load
 .text.__exception_init
                0x80032b18       0xf4 c:/Utils/devkitPro/libogc/lib/wii\libogc.a(exception.o)
                0x80032b18                __exception_init
 .text.__systemcall_init
                0x80032c0c       0x20 c:/Utils/devkitPro/libogc/lib/wii\libogc.a(exception.o)
                0x80032c0c                __systemcall_init
 .text.__lwp_sema_init
                0x80032c2c       0x30 c:/Utils/devkitPro/libogc/lib/wii\libogc.a(semaphore.o)
                0x80032c2c                __lwp_sema_init
 .text.__PADDisableRecalibration
                0x80032c5c       0x5c c:/Utils/devkitPro/libogc/lib/wii\libogc.a(pad.o)
                0x80032c5c                __PADDisableRecalibration
 .text.PAD_ButtonsDown
                0x80032cb8       0x34 c:/Utils/devkitPro/libogc/lib/wii\libogc.a(pad.o)
                0x80032cb8                PAD_ButtonsDown
 .text.__pad_updateorigin
                0x80032cec       0xa4 c:/Utils/devkitPro/libogc/lib/wii\libogc.a(pad.o)
 .text.__pad_doreset
                0x80032d90       0x74 c:/Utils/devkitPro/libogc/lib/wii\libogc.a(pad.o)
 .text.PAD_Reset
                0x80032e04      0x12c c:/Utils/devkitPro/libogc/lib/wii\libogc.a(pad.o)
                0x80032e04                PAD_Reset
 .text.__pad_enable
                0x80032f30       0x68 c:/Utils/devkitPro/libogc/lib/wii\libogc.a(pad.o)
 .text.__pad_typeandstatuscallback
                0x80032f98      0x194 c:/Utils/devkitPro/libogc/lib/wii\libogc.a(pad.o)
 .text.__pad_origincallback
                0x8003312c       0x40 c:/Utils/devkitPro/libogc/lib/wii\libogc.a(pad.o)
 .text.__pad_probecallback
                0x8003316c       0x54 c:/Utils/devkitPro/libogc/lib/wii\libogc.a(pad.o)
 .text.__pad_disable
                0x800331c0       0xd0 c:/Utils/devkitPro/libogc/lib/wii\libogc.a(pad.o)
 .text.PAD_Read
                0x80033290      0x2f4 c:/Utils/devkitPro/libogc/lib/wii\libogc.a(pad.o)
                0x80033290                PAD_Read
 .text.PAD_ScanPads
                0x80033584      0x17c c:/Utils/devkitPro/libogc/lib/wii\libogc.a(pad.o)
                0x80033584                PAD_ScanPads
 .text.__pad_receivecheckcallback
                0x80033700       0xc0 c:/Utils/devkitPro/libogc/lib/wii\libogc.a(pad.o)
 .text.__pad_originupdatecallback
                0x800337c0       0x88 c:/Utils/devkitPro/libogc/lib/wii\libogc.a(pad.o)
 .text.EXI_Sync
                0x80033848       0xec c:/Utils/devkitPro/libogc/lib/wii\libogc.a(exi.o)
                0x80033848                EXI_Sync
 .text.__exi_irq_handler
                0x80033934       0x74 c:/Utils/devkitPro/libogc/lib/wii\libogc.a(exi.o)
 .text.EXI_Detach
                0x800339a8       0xb0 c:/Utils/devkitPro/libogc/lib/wii\libogc.a(exi.o)
                0x800339a8                EXI_Detach
 .text.__exi_probe
                0x80033a58      0x21c c:/Utils/devkitPro/libogc/lib/wii\libogc.a(exi.o)
 .text.EXI_Select
                0x80033c74      0x1d8 c:/Utils/devkitPro/libogc/lib/wii\libogc.a(exi.o)
                0x80033c74                EXI_Select
 .text.EXI_Imm  0x80033e4c      0x1b0 c:/Utils/devkitPro/libogc/lib/wii\libogc.a(exi.o)
                0x80033e4c                EXI_Imm
 .text.EXI_ImmEx
                0x80033ffc       0xd4 c:/Utils/devkitPro/libogc/lib/wii\libogc.a(exi.o)
                0x80033ffc                EXI_ImmEx
 .text.EXI_Deselect
                0x800340d0      0x14c c:/Utils/devkitPro/libogc/lib/wii\libogc.a(exi.o)
                0x800340d0                EXI_Deselect
 .text.__exi_attach
                0x8003421c      0x11c c:/Utils/devkitPro/libogc/lib/wii\libogc.a(exi.o)
 .text.EXI_Lock
                0x80034338      0x210 c:/Utils/devkitPro/libogc/lib/wii\libogc.a(exi.o)
                0x80034338                EXI_Lock
 .text.EXI_Dma  0x80034548      0x164 c:/Utils/devkitPro/libogc/lib/wii\libogc.a(exi.o)
                0x80034548                EXI_Dma
 .text.__ext_irq_handler
                0x800346ac       0xbc c:/Utils/devkitPro/libogc/lib/wii\libogc.a(exi.o)
 .text.__tc_irq_handler
                0x80034768      0x11c c:/Utils/devkitPro/libogc/lib/wii\libogc.a(exi.o)
 .text.EXI_Unlock
                0x80034884      0x26c c:/Utils/devkitPro/libogc/lib/wii\libogc.a(exi.o)
                0x80034884                EXI_Unlock
 .text.EXI_GetID
                0x80034af0      0x248 c:/Utils/devkitPro/libogc/lib/wii\libogc.a(exi.o)
                0x80034af0                EXI_GetID
 .text.EXI_ProbeReset
                0x80034d38       0x7c c:/Utils/devkitPro/libogc/lib/wii\libogc.a(exi.o)
                0x80034d38                EXI_ProbeReset
 .text.__exi_init
                0x80034db4      0x18c c:/Utils/devkitPro/libogc/lib/wii\libogc.a(exi.o)
                0x80034db4                __exi_init
 .text.__unlocked_handler
                0x80034f40       0x28 c:/Utils/devkitPro/libogc/lib/wii\libogc.a(exi.o)
 .text.LWP_MutexInit
                0x80034f68      0x10c c:/Utils/devkitPro/libogc/lib/wii\libogc.a(mutex.o)
                0x80034f68                LWP_MutexInit
 .text.__lwp_mutex_init
                0x80035074       0x30 c:/Utils/devkitPro/libogc/lib/wii\libogc.a(mutex.o)
                0x80035074                __lwp_mutex_init
 .text.LWP_MutexDestroy
                0x800350a4      0x108 c:/Utils/devkitPro/libogc/lib/wii\libogc.a(mutex.o)
                0x800350a4                LWP_MutexDestroy
 .text.__lwp_mutex_locksupp
                0x800351ac      0x288 c:/Utils/devkitPro/libogc/lib/wii\libogc.a(mutex.o)
 .text.LWP_MutexLock
                0x80035434        0xc c:/Utils/devkitPro/libogc/lib/wii\libogc.a(mutex.o)
                0x80035434                LWP_MutexLock
 .text.LWP_MutexUnlock
                0x80035440       0x90 c:/Utils/devkitPro/libogc/lib/wii\libogc.a(mutex.o)
                0x80035440                LWP_MutexUnlock
 .text.skip_atoi
                0x800354d0       0x4c c:/Utils/devkitPro/libogc/lib/wii\libogc.a(kprintf.o)
 .text.number   0x8003551c      0x2c0 c:/Utils/devkitPro/libogc/lib/wii\libogc.a(kprintf.o)
 .text.kvsprintf
                0x800357dc      0x684 c:/Utils/devkitPro/libogc/lib/wii\libogc.a(kprintf.o)
                0x800357dc                kvsprintf
 .text.kprintf  0x80035e60       0xac c:/Utils/devkitPro/libogc/lib/wii\libogc.a(kprintf.o)
                0x80035e60                kprintf
 *(.gnu.warning)
 *(.gnu.linkonce.t.*)
                0x80035f20                . = ALIGN (0x20)
 *fill*         0x80035f0c       0x14 00000000

.fini           0x80035f20       0x20
 *(.fini)
 .fini          0x80035f20        0xc c:/utils/devkitpro/devkitppc/bin/../lib/gcc/powerpc-gekko/4.2.4/ecrti.o
                0x80035f20                __fini
 .fini          0x80035f2c        0x4 c:/utils/devkitpro/devkitppc/bin/../lib/gcc/powerpc-gekko/4.2.4/crtbegin.o
 .fini          0x80035f30       0x10 c:/utils/devkitpro/devkitppc/bin/../lib/gcc/powerpc-gekko/4.2.4/ecrtn.o
                0x80035f40                . = ALIGN (0x20)
                0x80035f40                PROVIDE (__etext, .)
                0x80035f40                PROVIDE (_etext, .)
                0x80035f40                PROVIDE (etext, .)

.rodata         0x80035f40     0x1b24
 *(.rodata)
 .rodata        0x80035f40       0x3a c:/Utils/devkitPro/libogc/lib/wii\libwiiuse.a(ir.o)
 *fill*         0x80035f7a        0x2 00
 .rodata        0x80035f7c       0x24 c:/Utils/devkitPro/libogc/lib/wii\libogc.a(newlibc.o)
 .rodata        0x80035fa0       0x20 c:/utils/devkitpro/devkitppc/bin/../lib/gcc/powerpc-gekko/4.2.4/../../../../powerpc-gekko/lib\libm.a(lib_a-s_atangent.o)
 .rodata        0x80035fc0       0x10 c:/utils/devkitpro/devkitppc/bin/../lib/gcc/powerpc-gekko/4.2.4/../../../../powerpc-gekko/lib\libm.a(lib_a-sf_atangent.o)
 .rodata        0x80035fd0       0x5c c:/utils/devkitpro/devkitppc/bin/../lib/gcc/powerpc-gekko/4.2.4/../../../../powerpc-gekko/lib\libsysbase.a(iosupport.o)
                0x80035fd0                dotab_stdnull
 .rodata        0x8003602c      0x101 c:/utils/devkitpro/devkitppc/bin/../lib/gcc/powerpc-gekko/4.2.4/../../../../powerpc-gekko/lib\libc.a(lib_a-ctype_.o)
                0x8003602c                _ctype_
 *fill*         0x8003612d        0x3 00
 .rodata        0x80036130      0x184 c:/utils/devkitpro/devkitppc/bin/../lib/gcc/powerpc-gekko/4.2.4/../../../../powerpc-gekko/lib\libc.a(lib_a-svfprintf.o)
 .rodata        0x800362b4      0x184 c:/utils/devkitpro/devkitppc/bin/../lib/gcc/powerpc-gekko/4.2.4/../../../../powerpc-gekko/lib\libc.a(lib_a-vfprintf.o)
 .rodata        0x80036438       0x18 c:/utils/devkitpro/devkitppc/bin/../lib/gcc/powerpc-gekko/4.2.4/../../../../powerpc-gekko/lib\libc.a(lib_a-dtoa.o)
 .rodata        0x80036450       0xb8 c:/utils/devkitpro/devkitppc/bin/../lib/gcc/powerpc-gekko/4.2.4/../../../../powerpc-gekko/lib\libc.a(lib_a-locale.o)
 .rodata        0x80036508       0xa8 c:/utils/devkitpro/devkitppc/bin/../lib/gcc/powerpc-gekko/4.2.4/../../../../powerpc-gekko/lib\libc.a(lib_a-mbtowc_r.o)
 .rodata        0x800365b0      0x128 c:/utils/devkitpro/devkitppc/bin/../lib/gcc/powerpc-gekko/4.2.4/../../../../powerpc-gekko/lib\libc.a(lib_a-mprec.o)
                0x800366b0                __mprec_tinytens
                0x800365b0                __mprec_tens
                0x80036688                __mprec_bigtens
 *(.rodata.*)
 .rodata.str1.4
                0x800366d8       0xc3 test.o
 *fill*         0x8003679b        0x1 00
 .rodata.cst4   0x8003679c       0x10 c:/Utils/devkitPro/libogc/lib/wii\libwiiuse.a(wpad.o)
 .rodata.cst4   0x800367ac       0x20 c:/Utils/devkitPro/libogc/lib/wii\libwiiuse.a(dynamics.o)
                                 0x28 (size before relaxing)
 .rodata.wiiuse_set_ir_sensitivity
                0x800367cc       0x18 c:/Utils/devkitPro/libogc/lib/wii\libwiiuse.a(ir.o)
 .rodata.cst4   0x800367e4       0x70 c:/Utils/devkitPro/libogc/lib/wii\libwiiuse.a(ir.o)
                                 0x8c (size before relaxing)
 .rodata.str1.4
                0x80036854       0x41 c:/Utils/devkitPro/libogc/lib/wii\libwiiuse.a(ir.o)
 *fill*         0x80036895        0x3 00
 .rodata.cst4   0x80036898        0x4 c:/Utils/devkitPro/libogc/lib/wii\libwiiuse.a(wiiuse.o)
 .rodata.parse_event
                0x8003689c       0x60 c:/Utils/devkitPro/libogc/lib/wii\libwiiuse.a(events.o)
 .rodata.str1.4
                0x800368fc       0x39 c:/Utils/devkitPro/libogc/lib/wii\libwiiuse.a(events.o)
 *fill*         0x80036935        0x3 00
 .rodata.str1.4
                0x80036938       0x70 c:/Utils/devkitPro/libogc/lib/wii\libbte.a(bte.o)
                                 0x74 (size before relaxing)
 .rodata.hci_event_handler
                0x800369a8       0x64 c:/Utils/devkitPro/libogc/lib/wii\libbte.a(hci.o)
 .rodata.str1.4
                0x80036a0c       0x28 c:/Utils/devkitPro/libogc/lib/wii\libbte.a(hci.o)
 .rodata.l2cap_process_sig
                0x80036a34       0x28 c:/Utils/devkitPro/libogc/lib/wii\libbte.a(l2cap.o)
 .rodata.str1.4
                0x80036a5c        0x8 c:/Utils/devkitPro/libogc/lib/wii\libbte.a(physbusif.o)
 .rodata.__console_write
                0x80036a64       0xec c:/Utils/devkitPro/libogc/lib/wii\libogc.a(console.o)
 .rodata.color_table
                0x80036b50       0x40 c:/Utils/devkitPro/libogc/lib/wii\libogc.a(console.o)
                0x80036b50                color_table
 .rodata.dotab_stdout
                0x80036b90       0x5c c:/Utils/devkitPro/libogc/lib/wii\libogc.a(console.o)
                0x80036b90                dotab_stdout
 .rodata.str1.4
                0x80036bec        0x7 c:/Utils/devkitPro/libogc/lib/wii\libogc.a(console.o)
 *fill*         0x80036bf3        0x1 00
 .rodata._irqPrio
                0x80036bf4       0x30 c:/Utils/devkitPro/libogc/lib/wii\libogc.a(irq.o)
 .rodata.__gettiming
                0x80036c24       0x58 c:/Utils/devkitPro/libogc/lib/wii\libogc.a(video.o)
 .rodata.C.34.7335
                0x80036c7c       0x21 c:/Utils/devkitPro/libogc/lib/wii\libogc.a(video.o)
 *fill*         0x80036c9d        0x1 00
 .rodata.video_timing
                0x80036c9e      0x17c c:/Utils/devkitPro/libogc/lib/wii\libogc.a(video.o)
 *fill*         0x80036e1a        0x2 00
 .rodata.SYS_ResetSystem
                0x80036e1c       0x1c c:/Utils/devkitPro/libogc/lib/wii\libogc.a(system.o)
 .rodata.str1.4
                0x80036e38       0x65 c:/Utils/devkitPro/libogc/lib/wii\libogc.a(system.o)
 *fill*         0x80036e9d        0x3 00
 .rodata.__ios_ioctlvformat_parse
                0x80036ea0      0x128 c:/Utils/devkitPro/libogc/lib/wii\libogc.a(ipc.o)
 .rodata.str1.4
                0x80036fc8        0x2 c:/Utils/devkitPro/libogc/lib/wii\libogc.a(newlibc.o)
 *fill*         0x80036fca        0x2 00
 .rodata.str1.4
                0x80036fcc       0x40 c:/Utils/devkitPro/libogc/lib/wii\libogc.a(ios.o)
 .rodata.dotab_es
                0x8003700c       0x5c c:/Utils/devkitPro/libogc/lib/wii\libogc.a(es.o)
 .rodata.str1.4
                0x80037068       0x83 c:/Utils/devkitPro/libogc/lib/wii\libogc.a(es.o)
                                 0x87 (size before relaxing)
 *fill*         0x800370eb        0x1 00
 .rodata.str1.4
                0x800370ec       0x1a c:/Utils/devkitPro/libogc/lib/wii\libogc.a(usb.o)
 *fill*         0x80037106        0x2 00
 .rodata.CONF_GetLength
                0x80037108       0x20 c:/Utils/devkitPro/libogc/lib/wii\libogc.a(conf.o)
 .rodata.CONF_Get
                0x80037128       0x20 c:/Utils/devkitPro/libogc/lib/wii\libogc.a(conf.o)
 *fill*         0x80037148       0x18 00
 .rodata.__conf_file
                0x80037160       0x15 c:/Utils/devkitPro/libogc/lib/wii\libogc.a(conf.o)
 *fill*         0x80037175        0x3 00
 .rodata.str1.4
                0x80037178      0x111 c:/Utils/devkitPro/libogc/lib/wii\libogc.a(conf.o)
 *fill*         0x80037289       0x17 00
 .rodata.__conf_txt_file
                0x800372a0       0x2a c:/Utils/devkitPro/libogc/lib/wii\libogc.a(conf.o)
 *fill*         0x800372ca        0x2 00
 .rodata.exception_location
                0x800372cc       0x3c c:/Utils/devkitPro/libogc/lib/wii\libogc.a(exception.o)
 .rodata.str1.4
                0x80037308      0x2e8 c:/Utils/devkitPro/libogc/lib/wii\libogc.a(exception.o)
                                0x2ec (size before relaxing)
 .rodata.exception_name
                0x800375f0       0x3c c:/Utils/devkitPro/libogc/lib/wii\libogc.a(exception.o)
 .rodata.cst4   0x8003762c        0x4 c:/Utils/devkitPro/libogc/lib/wii\libogc.a(pad.o)
 .rodata.kvsprintf
                0x80037630      0x194 c:/Utils/devkitPro/libogc/lib/wii\libogc.a(kprintf.o)
 .rodata.str1.4
                0x800377c4       0x57 c:/Utils/devkitPro/libogc/lib/wii\libogc.a(kprintf.o)
 *fill*         0x8003781b        0x5 00
 .rodata.cst8   0x80037820        0x8 c:/utils/devkitpro/devkitppc/bin/../lib/gcc/powerpc-gekko/4.2.4/../../../../powerpc-gekko/lib\libm.a(lib_a-s_atan2.o)
 .rodata.cst4   0x00000000        0x8 c:/utils/devkitpro/devkitppc/bin/../lib/gcc/powerpc-gekko/4.2.4/../../../../powerpc-gekko/lib\libm.a(lib_a-s_atangent.o)
 .rodata.cst8   0x80037828       0x68 c:/utils/devkitpro/devkitppc/bin/../lib/gcc/powerpc-gekko/4.2.4/../../../../powerpc-gekko/lib\libm.a(lib_a-s_atangent.o)
                                 0x70 (size before relaxing)
 .rodata.cst8   0x00000000        0x8 c:/utils/devkitpro/devkitppc/bin/../lib/gcc/powerpc-gekko/4.2.4/../../../../powerpc-gekko/lib\libm.a(lib_a-s_fabs.o)
 .rodata.cst8   0x00000000        0x8 c:/utils/devkitpro/devkitppc/bin/../lib/gcc/powerpc-gekko/4.2.4/../../../../powerpc-gekko/lib\libm.a(lib_a-s_numtest.o)
 .rodata.cst4   0x00000000        0x8 c:/utils/devkitpro/devkitppc/bin/../lib/gcc/powerpc-gekko/4.2.4/../../../../powerpc-gekko/lib\libm.a(lib_a-s_sine.o)
 .rodata.cst8   0x80037890       0x50 c:/utils/devkitpro/devkitppc/bin/../lib/gcc/powerpc-gekko/4.2.4/../../../../powerpc-gekko/lib\libm.a(lib_a-s_sine.o)
                                 0x60 (size before relaxing)
 .rodata.cst4   0x00000000        0x4 c:/utils/devkitpro/devkitppc/bin/../lib/gcc/powerpc-gekko/4.2.4/../../../../powerpc-gekko/lib\libm.a(lib_a-s_sqrt.o)
 .rodata.cst8   0x800378e0       0x18 c:/utils/devkitpro/devkitppc/bin/../lib/gcc/powerpc-gekko/4.2.4/../../../../powerpc-gekko/lib\libm.a(lib_a-s_sqrt.o)
                                 0x20 (size before relaxing)
 .rodata.cst4   0x800378f8        0x4 c:/utils/devkitpro/devkitppc/bin/../lib/gcc/powerpc-gekko/4.2.4/../../../../powerpc-gekko/lib\libm.a(lib_a-sf_atan.o)
                                  0x8 (size before relaxing)
 .rodata.cst4   0x00000000        0x4 c:/utils/devkitpro/devkitppc/bin/../lib/gcc/powerpc-gekko/4.2.4/../../../../powerpc-gekko/lib\libm.a(lib_a-sf_atan2.o)
 .rodata.cst4   0x800378fc       0x18 c:/utils/devkitpro/devkitppc/bin/../lib/gcc/powerpc-gekko/4.2.4/../../../../powerpc-gekko/lib\libm.a(lib_a-sf_atangent.o)
                                 0x28 (size before relaxing)
 .rodata.cst8   0x00000000        0x8 c:/utils/devkitpro/devkitppc/bin/../lib/gcc/powerpc-gekko/4.2.4/../../../../powerpc-gekko/lib\libm.a(lib_a-sf_atangent.o)
 .rodata.cst4   0x00000000        0x4 c:/utils/devkitpro/devkitppc/bin/../lib/gcc/powerpc-gekko/4.2.4/../../../../powerpc-gekko/lib\libm.a(lib_a-sf_fabs.o)
 .rodata.cst4   0x00000000        0x4 c:/utils/devkitpro/devkitppc/bin/../lib/gcc/powerpc-gekko/4.2.4/../../../../powerpc-gekko/lib\libm.a(lib_a-sf_numtest.o)
 .rodata.cst4   0x80037914       0x18 c:/utils/devkitpro/devkitppc/bin/../lib/gcc/powerpc-gekko/4.2.4/../../../../powerpc-gekko/lib\libm.a(lib_a-sf_sine.o)
                                 0x28 (size before relaxing)
 .rodata.cst8   0x00000000        0x8 c:/utils/devkitpro/devkitppc/bin/../lib/gcc/powerpc-gekko/4.2.4/../../../../powerpc-gekko/lib\libm.a(lib_a-sf_sine.o)
 .rodata.cst4   0x00000000        0x8 c:/utils/devkitpro/devkitppc/bin/../lib/gcc/powerpc-gekko/4.2.4/../../../../powerpc-gekko/lib\libm.a(lib_a-sf_sqrt.o)
 .rodata.cst8   0x00000000       0x18 c:/utils/devkitpro/devkitppc/bin/../lib/gcc/powerpc-gekko/4.2.4/../../../../powerpc-gekko/lib\libm.a(lib_a-sf_sqrt.o)
 .rodata.cst4   0x00000000        0x4 c:/utils/devkitpro/devkitppc/bin/../lib/gcc/powerpc-gekko/4.2.4/../../../../powerpc-gekko/lib\libm.a(lib_a-sf_ldexp.o)
 .rodata.str1.4
                0x8003792c        0xf c:/utils/devkitpro/devkitppc/bin/../lib/gcc/powerpc-gekko/4.2.4/../../../../powerpc-gekko/lib\libsysbase.a(abort.o)
 *fill*         0x8003793b        0x1 00
 .rodata.str1.4
                0x8003793c        0x8 c:/utils/devkitpro/devkitppc/bin/../lib/gcc/powerpc-gekko/4.2.4/../../../../powerpc-gekko/lib\libsysbase.a(iosupport.o)
 .rodata.str1.4
                0x00000000        0x2 c:/utils/devkitpro/devkitppc/bin/../lib/gcc/powerpc-gekko/4.2.4/../../../../powerpc-gekko/lib\libc.a(lib_a-impure.o)
 .rodata.str1.4
                0x00000000        0x8 c:/utils/devkitpro/devkitppc/bin/../lib/gcc/powerpc-gekko/4.2.4/../../../../powerpc-gekko/lib\libc.a(lib_a-puts.o)
                                  0x2 (size before relaxing)
 .rodata.cst4   0x80037944       0x18 c:/utils/devkitpro/devkitppc/bin/../lib/gcc/powerpc-gekko/4.2.4/../../../../powerpc-gekko/lib\libc.a(lib_a-svfprintf.o)
 .rodata.cst8   0x00000000        0x8 c:/utils/devkitpro/devkitppc/bin/../lib/gcc/powerpc-gekko/4.2.4/../../../../powerpc-gekko/lib\libc.a(lib_a-svfprintf.o)
 .rodata.str1.4
                0x8003795c       0x5a c:/utils/devkitpro/devkitppc/bin/../lib/gcc/powerpc-gekko/4.2.4/../../../../powerpc-gekko/lib\libc.a(lib_a-svfprintf.o)
                                 0x5e (size before relaxing)
 *fill*         0x800379b6        0x2 00
 .rodata.cst4   0x800379b8       0x18 c:/utils/devkitpro/devkitppc/bin/../lib/gcc/powerpc-gekko/4.2.4/../../../../powerpc-gekko/lib\libc.a(lib_a-vfprintf.o)
 .rodata.cst8   0x00000000        0x8 c:/utils/devkitpro/devkitppc/bin/../lib/gcc/powerpc-gekko/4.2.4/../../../../powerpc-gekko/lib\libc.a(lib_a-vfprintf.o)
 .rodata.str1.4
                0x00000000       0x5e c:/utils/devkitpro/devkitppc/bin/../lib/gcc/powerpc-gekko/4.2.4/../../../../powerpc-gekko/lib\libc.a(lib_a-vfprintf.o)
 .rodata.str1.4
                0x800379d0       0x1e c:/utils/devkitpro/devkitppc/bin/../lib/gcc/powerpc-gekko/4.2.4/../../../../powerpc-gekko/lib\libc.a(lib_a-wctomb_r.o)
 *fill*         0x800379ee        0x2 00
 .rodata.cst4   0x800379f0        0xc c:/utils/devkitpro/devkitppc/bin/../lib/gcc/powerpc-gekko/4.2.4/../../../../powerpc-gekko/lib\libc.a(lib_a-dtoa.o)
                                 0x20 (size before relaxing)
 *fill*         0x800379fc        0x4 00
 .rodata.cst8   0x80037a00       0x18 c:/utils/devkitpro/devkitppc/bin/../lib/gcc/powerpc-gekko/4.2.4/../../../../powerpc-gekko/lib\libc.a(lib_a-dtoa.o)
                                 0x20 (size before relaxing)
 .rodata.str1.4
                0x80037a18       0x10 c:/utils/devkitpro/devkitppc/bin/../lib/gcc/powerpc-gekko/4.2.4/../../../../powerpc-gekko/lib\libc.a(lib_a-dtoa.o)
                                 0x12 (size before relaxing)
 .rodata.str1.4
                0x80037a28       0x3c c:/utils/devkitpro/devkitppc/bin/../lib/gcc/powerpc-gekko/4.2.4/../../../../powerpc-gekko/lib\libc.a(lib_a-locale.o)
                                 0x62 (size before relaxing)
 .rodata.str1.4
                0x00000000       0x1e c:/utils/devkitpro/devkitppc/bin/../lib/gcc/powerpc-gekko/4.2.4/../../../../powerpc-gekko/lib\libc.a(lib_a-mbtowc_r.o)
 .rodata.cst4   0x00000000        0x8 c:/utils/devkitpro/devkitppc/bin/../lib/gcc/powerpc-gekko/4.2.4/../../../../powerpc-gekko/lib\libc.a(lib_a-mprec.o)
 *(.gnu.linkonce.r.*)

.eh_frame_hdr   0x80037a64       0x1c
 .eh_frame_hdr  0x80037a64       0x1c c:/utils/devkitpro/devkitppc/bin/../lib/gcc/powerpc-gekko/4.2.4\libgcc.a(_udivdi3.o)

.rodata1
 *(.rodata1)

.sdata2         0x80037a80       0x14
 *(.sdata2)
 .sdata2        0x80037a80        0x0 c:/utils/devkitpro/devkitppc/bin/../lib/gcc/powerpc-gekko/4.2.4/ecrti.o
                0x80037a80                __SDATA2_START__
                0x80037a80                _SDA2_BASE_
 *(.sdata2.*)
 .sdata2.C.25.8499
                0x80037a80        0x3 c:/Utils/devkitPro/libogc/lib/wii\libbte.a(bte.o)
 *fill*         0x80037a83        0x1 00
 .sdata2.C.24.8480
                0x80037a84        0x3 c:/Utils/devkitPro/libogc/lib/wii\libbte.a(bte.o)
 *fill*         0x80037a87        0x1 00
 .sdata2.C.27.8554
                0x80037a88        0x3 c:/Utils/devkitPro/libogc/lib/wii\libbte.a(bte.o)
 *fill*         0x80037a8b        0x1 00
 .sdata2.C.26.8534
                0x80037a8c        0x3 c:/Utils/devkitPro/libogc/lib/wii\libbte.a(bte.o)
 *fill*         0x80037a8f        0x1 00
 .sdata2.__sys_inIPL
                0x80037a90        0x4 c:/Utils/devkitPro/libogc/lib/wii\libogc.a(system.o)
 *(.gnu.linkonce.s2.*)

.sbss2
 *(.sbss2)
 *(.sbss2.*)
 *(.gnu.linkonce.sb2.*)
                0x80037a94                . = ALIGN (0x4)
                0x80037a94                PROVIDE (__preinit_array_start, .)

.preinit_array
 *(.preinit_array)
                0x80037a94                PROVIDE (__preinit_array_end, .)
                0x80037a94                PROVIDE (__init_array_start, .)

.init_array
 *(.init_array)
                0x80037a94                PROVIDE (__init_array_end, .)
                0x80037a94                PROVIDE (__fini_array_start, .)

.fini_array
 *(.fini_array)
                0x80037a94                PROVIDE (__fini_array_end, .)

.data           0x80037aa0     0x1d20
 *(.data)
 .data          0x80037aa0        0x8 c:/utils/devkitpro/devkitppc/bin/../lib/gcc/powerpc-gekko/4.2.4/crtbegin.o
                0x80037aa0                __dso_handle
 .data          0x80037aa8       0x50 test.o
                0x80037aa8                cubedata
 .data          0x80037af8        0x8 c:/Utils/devkitPro/libogc/lib/wii\libogc.a(ogc_crt0.o)
 .data          0x80037b00       0x44 c:/utils/devkitpro/devkitppc/bin/../lib/gcc/powerpc-gekko/4.2.4/../../../../powerpc-gekko/lib\libsysbase.a(iosupport.o)
                0x80037b04                devoptab_list
 *fill*         0x80037b44        0x4 00
 .data          0x80037b48      0x428 c:/utils/devkitpro/devkitppc/bin/../lib/gcc/powerpc-gekko/4.2.4/../../../../powerpc-gekko/lib\libc.a(lib_a-impure.o)
 .data          0x80037f70      0x408 c:/utils/devkitpro/devkitppc/bin/../lib/gcc/powerpc-gekko/4.2.4/../../../../powerpc-gekko/lib\libc.a(lib_a-mallocr.o)
                0x80037f70                __malloc_av_
 .data          0x80038378       0x34 c:/utils/devkitpro/devkitppc/bin/../lib/gcc/powerpc-gekko/4.2.4/../../../../powerpc-gekko/lib\libc.a(lib_a-locale.o)
                0x80038388                __lc_ctype
 *(.data.*)
 .data.__wpad_resetinfo
                0x800383ac       0x10 c:/Utils/devkitPro/libogc/lib/wii\libwiiuse.a(wpad.o)
 .data.bte_patch0
                0x800383bc       0xb8 c:/Utils/devkitPro/libogc/lib/wii\libbte.a(bte.o)
 .data.bte_patch1
                0x80038474       0x5c c:/Utils/devkitPro/libogc/lib/wii\libbte.a(bte.o)
 .data.TVPal528IntDf
                0x800384d0       0x3c c:/Utils/devkitPro/libogc/lib/wii\libogc.a(video.o)
                0x800384d0                TVPal528IntDf
 .data.TVNtsc480Prog
                0x8003850c       0x3c c:/Utils/devkitPro/libogc/lib/wii\libogc.a(video.o)
                0x8003850c                TVNtsc480Prog
 .data.TVNtsc480IntDf
                0x80038548       0x3c c:/Utils/devkitPro/libogc/lib/wii\libogc.a(video.o)
                0x80038548                TVNtsc480IntDf
 .data.TVEurgb60Hz480Int
                0x80038584       0x3c c:/Utils/devkitPro/libogc/lib/wii\libogc.a(video.o)
                0x80038584                TVEurgb60Hz480Int
 .data.TVMpal480IntDf
                0x800385c0       0x3c c:/Utils/devkitPro/libogc/lib/wii\libogc.a(video.o)
                0x800385c0                TVMpal480IntDf
 .data._dsp_initcode
                0x800385fc       0x80 c:/Utils/devkitPro/libogc/lib/wii\libogc.a(system.o)
 .data.mem_resetinfo
                0x8003867c       0x10 c:/Utils/devkitPro/libogc/lib/wii\libogc.a(system.o)
 .data.xy       0x8003868c       0x60 c:/Utils/devkitPro/libogc/lib/wii\libogc.a(si.o)
 .data.sicntrl  0x800386ec       0x14 c:/Utils/devkitPro/libogc/lib/wii\libogc.a(si.o)
 .data.si_type  0x80038700       0x10 c:/Utils/devkitPro/libogc/lib/wii\libogc.a(si.o)
 .data.console_font_8x16
                0x80038710     0x1000 c:/Utils/devkitPro/libogc/lib/wii\libogc.a(console_font_8x16.o)
                0x80038710                console_font_8x16
 *fill*         0x80039710       0x10 00
 .data.__stm_imm_fs
                0x80039720       0x13 c:/Utils/devkitPro/libogc/lib/wii\libogc.a(stm.o)
 *fill*         0x80039733        0xd 00
 .data.__stm_eh_fs
                0x80039740       0x13 c:/Utils/devkitPro/libogc/lib/wii\libogc.a(stm.o)
 *fill*         0x80039753        0xd 00
 .data.__stateflags
                0x80039760       0x28 c:/Utils/devkitPro/libogc/lib/wii\libogc.a(wiilaunch.o)
 *fill*         0x80039788       0x18 00
 .data.__nandbootinfo
                0x800397a0       0x1a c:/Utils/devkitPro/libogc/lib/wii\libogc.a(wiilaunch.o)
 *(.gnu.linkonce.d.*)
                0x800397c0                . = ALIGN (0x20)
 *fill*         0x800397ba        0x6 00

.data1
 *(.data1)

.tdata
 *(.tdata .tdata.* .gnu.linkonce.td.*)

.tbss
 *(.tbss .tbss.* .gnu.linkonce.tb.*)
 *(.tcommon)

.eh_frame       0x800397c0       0x50
 *(.eh_frame)
 .eh_frame      0x800397c0        0x0 c:/utils/devkitpro/devkitppc/bin/../lib/gcc/powerpc-gekko/4.2.4/ecrti.o
                0x800397c0                __EH_FRAME_BEGIN__
 .eh_frame      0x800397c0        0x0 c:/utils/devkitpro/devkitppc/bin/../lib/gcc/powerpc-gekko/4.2.4/crtbegin.o
 .eh_frame      0x800397c0       0x28 c:/utils/devkitpro/devkitppc/bin/../lib/gcc/powerpc-gekko/4.2.4\libgcc.a(_udivdi3.o)
 .eh_frame      0x800397e8       0x20 c:/utils/devkitpro/devkitppc/bin/../lib/gcc/powerpc-gekko/4.2.4\libgcc.a(_umoddi3.o)
                                 0x30 (size before relaxing)
 .eh_frame      0x80039808        0x4 c:/utils/devkitpro/devkitppc/bin/../lib/gcc/powerpc-gekko/4.2.4/crtend.o
 .eh_frame      0x8003980c        0x4 c:/utils/devkitpro/devkitppc/bin/../lib/gcc/powerpc-gekko/4.2.4/ecrtn.o
                0x8003980c                __EH_FRAME_END__

.gcc_except_table
 *(.gcc_except_table)

.fixup
 *(.fixup)

.got1
 *(.got1)

.got2           0x80039810        0x4
 *(.got2)
 .got2          0x80039810        0x4 c:/utils/devkitpro/devkitppc/bin/../lib/gcc/powerpc-gekko/4.2.4/../../../../powerpc-gekko/lib/crtmain.o

.dynamic
 *(.dynamic)

.ctors          0x80039814        0xc
 *crtbegin.o(.ctors)
 .ctors         0x80039814        0x4 c:/utils/devkitpro/devkitppc/bin/../lib/gcc/powerpc-gekko/4.2.4/crtbegin.o
 *(EXCLUDE_FILE(*crtend.o) .ctors)
 .ctors         0x80039818        0x0 c:/utils/devkitpro/devkitppc/bin/../lib/gcc/powerpc-gekko/4.2.4/ecrti.o
                0x80039818                __CTOR_LIST__
 .ctors         0x80039818        0x0 c:/utils/devkitpro/devkitppc/bin/../lib/gcc/powerpc-gekko/4.2.4/ecrtn.o
                0x80039818                __CTOR_END__
 *(SORT(.ctors.*))
 *(.ctors)
 .ctors         0x80039818        0x4 c:/utils/devkitpro/devkitppc/bin/../lib/gcc/powerpc-gekko/4.2.4/crtend.o
                0x80039820                . = ALIGN (0x20)
 *fill*         0x8003981c        0x4 00

.dtors          0x80039820       0x20
 *crtbegin.o(.dtors)
 .dtors         0x80039820        0x4 c:/utils/devkitpro/devkitppc/bin/../lib/gcc/powerpc-gekko/4.2.4/crtbegin.o
 *(EXCLUDE_FILE(*crtend.o) .dtors)
 .dtors         0x80039824        0x0 c:/utils/devkitpro/devkitppc/bin/../lib/gcc/powerpc-gekko/4.2.4/ecrti.o
                0x80039824                __DTOR_LIST__
 .dtors         0x80039824        0x0 c:/utils/devkitpro/devkitppc/bin/../lib/gcc/powerpc-gekko/4.2.4/ecrtn.o
                0x80039824                __DTOR_END__
 *(SORT(.dtors.*))
 *(.dtors)
 .dtors         0x80039824        0x4 c:/utils/devkitpro/devkitppc/bin/../lib/gcc/powerpc-gekko/4.2.4/crtend.o
                0x80039840                . = ALIGN (0x20)
 *fill*         0x80039828       0x18 00

.jcr            0x80039840        0x4
 *(.jcr)
 .jcr           0x80039840        0x0 c:/utils/devkitpro/devkitppc/bin/../lib/gcc/powerpc-gekko/4.2.4/crtbegin.o
 .jcr           0x80039840        0x4 c:/utils/devkitpro/devkitppc/bin/../lib/gcc/powerpc-gekko/4.2.4/crtend.o

.got
 *(.got.plt)
 *(.got)

.sdata          0x80039860      0x120
 *(.sdata)
 .sdata         0x80039860        0x0 c:/utils/devkitpro/devkitppc/bin/../lib/gcc/powerpc-gekko/4.2.4/ecrti.o
                0x80039860                _SDA_BASE_
                0x80039860                __SDATA_START__
 .sdata         0x80039860        0x4 c:/Utils/devkitPro/libogc/lib/wii\libogc.a(ogc_crt0.o)
                0x80039860                __system_argv
 *fill*         0x80039864        0x4 00
 .sdata         0x80039868       0x40 c:/utils/devkitpro/devkitppc/bin/../lib/gcc/powerpc-gekko/4.2.4/../../../../powerpc-gekko/lib\libm.a(lib_a-s_mathcnst.o)
                0x80039868                BIGX
                0x80039890                z_hugeval
                0x80039898                z_infinity
                0x80039888                z_infinity_f
                0x80039878                z_rooteps
                0x800398a0                z_notanum
                0x80039870                SMALLX
                0x80039884                z_hugeval_f
                0x80039880                z_rooteps_f
                0x8003988c                z_notanum_f
 .sdata         0x800398a8        0x8 c:/utils/devkitpro/devkitppc/bin/../lib/gcc/powerpc-gekko/4.2.4/../../../../powerpc-gekko/lib\libc.a(lib_a-ctype_.o)
                0x800398a8                __ctype_ptr
                0x800398ac                __ctype_ptr__
 .sdata         0x800398b0        0x8 c:/utils/devkitpro/devkitppc/bin/../lib/gcc/powerpc-gekko/4.2.4/../../../../powerpc-gekko/lib\libc.a(lib_a-impure.o)
                0x800398b4                _global_impure_ptr
                0x800398b0                _impure_ptr
 .sdata         0x800398b8        0x8 c:/utils/devkitpro/devkitppc/bin/../lib/gcc/powerpc-gekko/4.2.4/../../../../powerpc-gekko/lib\libc.a(lib_a-mallocr.o)
                0x800398bc                __malloc_sbrk_base
                0x800398b8                __malloc_trim_threshold
 .sdata         0x800398c0        0x4 c:/utils/devkitpro/devkitppc/bin/../lib/gcc/powerpc-gekko/4.2.4/../../../../powerpc-gekko/lib\libc.a(lib_a-locale.o)
                0x800398c0                __mb_cur_max
 *(.sdata.*)
 .sdata.__wpad_idletimeout
                0x800398c4        0x4 c:/Utils/devkitPro/libogc/lib/wii\libwiiuse.a(wpad.o)
 .sdata.__wpad_powcb
                0x800398c8        0x4 c:/Utils/devkitPro/libogc/lib/wii\libwiiuse.a(wpad.o)
 .sdata.bte_ctrl_reqs
                0x800398cc        0x8 c:/Utils/devkitPro/libogc/lib/wii\libbte.a(bte.o)
 .sdata.bte_pcbs
                0x800398d4        0x8 c:/Utils/devkitPro/libogc/lib/wii\libbte.a(bte.o)
 .sdata.hci_inq_results
                0x800398dc        0x8 c:/Utils/devkitPro/libogc/lib/wii\libbte.a(hci.o)
 .sdata.hci_pcbs
                0x800398e4        0x8 c:/Utils/devkitPro/libogc/lib/wii\libbte.a(hci.o)
 .sdata.hci_links
                0x800398ec        0x8 c:/Utils/devkitPro/libogc/lib/wii\libbte.a(hci.o)
 .sdata.hci_link_key_results
                0x800398f4        0x8 c:/Utils/devkitPro/libogc/lib/wii\libbte.a(hci.o)
 .sdata.l2cap_segs
                0x800398fc        0x8 c:/Utils/devkitPro/libogc/lib/wii\libbte.a(l2cap.o)
 .sdata.l2cap_sigs
                0x80039904        0x8 c:/Utils/devkitPro/libogc/lib/wii\libbte.a(l2cap.o)
 .sdata.l2cap_pcbs
                0x8003990c        0x8 c:/Utils/devkitPro/libogc/lib/wii\libbte.a(l2cap.o)
 .sdata.l2cap_listenpcbs
                0x80039914        0x8 c:/Utils/devkitPro/libogc/lib/wii\libbte.a(l2cap.o)
 .sdata.pool_pbufs
                0x8003991c        0x8 c:/Utils/devkitPro/libogc/lib/wii\libbte.a(btpbuf.o)
 .sdata.rom_pbufs
                0x80039924        0x8 c:/Utils/devkitPro/libogc/lib/wii\libbte.a(btpbuf.o)
 .sdata.__wait4hci
                0x8003992c        0x4 c:/Utils/devkitPro/libogc/lib/wii\libbte.a(physbusif.o)
 .sdata.__ntd_usb_fd
                0x80039930        0x4 c:/Utils/devkitPro/libogc/lib/wii\libbte.a(physbusif.o)
 .sdata.__gecko_status
                0x80039934        0x4 c:/Utils/devkitPro/libogc/lib/wii\libogc.a(console.o)
 .sdata.oldTvStatus
                0x80039938        0x4 c:/Utils/devkitPro/libogc/lib/wii\libogc.a(video.o)
 .sdata.oldDtvStatus
                0x8003993c        0x4 c:/Utils/devkitPro/libogc/lib/wii\libogc.a(video.o)
 .sdata.i2cIdentFlag
                0x80039940        0x4 c:/Utils/devkitPro/libogc/lib/wii\libogc.a(video.o)
 .sdata.__argvArena1Lo
                0x80039944        0x4 c:/Utils/devkitPro/libogc/lib/wii\libogc.a(system.o)
                0x80039944                __argvArena1Lo
 .sdata._ipc_hid
                0x80039948        0x4 c:/Utils/devkitPro/libogc/lib/wii\libogc.a(ipc.o)
 .sdata._ipc_mailboxack
                0x8003994c        0x4 c:/Utils/devkitPro/libogc/lib/wii\libogc.a(ipc.o)
 .sdata.__stm_imm_fd
                0x80039950        0x4 c:/Utils/devkitPro/libogc/lib/wii\libogc.a(stm.o)
 .sdata.__stm_eh_fd
                0x80039954        0x4 c:/Utils/devkitPro/libogc/lib/wii\libogc.a(stm.o)
 .sdata.__ios_hid
                0x80039958        0x4 c:/Utils/devkitPro/libogc/lib/wii\libogc.a(ios.o)
 .sdata.__es_fd
                0x8003995c        0x4 c:/Utils/devkitPro/libogc/lib/wii\libogc.a(es.o)
 .sdata.__es_fs
                0x80039960        0x8 c:/Utils/devkitPro/libogc/lib/wii\libogc.a(es.o)
 .sdata.__es_hid
                0x80039968        0x4 c:/Utils/devkitPro/libogc/lib/wii\libogc.a(es.o)
 .sdata.hId     0x8003996c        0x4 c:/Utils/devkitPro/libogc/lib/wii\libogc.a(usb.o)
 .sdata.__pad_spec
                0x80039970        0x4 c:/Utils/devkitPro/libogc/lib/wii\libogc.a(pad.o)
 .sdata.__pad_cmdcalibrate
                0x80039974        0x4 c:/Utils/devkitPro/libogc/lib/wii\libogc.a(pad.o)
 .sdata.__pad_resettingchan
                0x80039978        0x4 c:/Utils/devkitPro/libogc/lib/wii\libogc.a(pad.o)
 .sdata.__pad_cmdreadorigin
                0x8003997c        0x4 c:/Utils/devkitPro/libogc/lib/wii\libogc.a(pad.o)
 *(.gnu.linkonce.s.*)
                0x80039980                . = ALIGN (0x20)
                0x80039980                _edata = .
                0x80039980                PROVIDE (edata, .)

.sbss           0x80039980      0x200
                0x80039980                __sbss_start = .
                0x80039980                PROVIDE (__sbss_start, .)
                0x80039980                PROVIDE (___sbss_start, .)
 *(.dynsbss)
 *(.sbss)
 .sbss          0x00000000        0x0 c:/utils/devkitpro/devkitppc/bin/../lib/gcc/powerpc-gekko/4.2.4/crtbegin.o
 .sbss          0x80039980        0x5 c:/Utils/devkitPro/libogc/lib/wii\libbte.a(l2cap.o)
                0x80039980                l2cap_active_pcbs
                0x80039984                sigid_nxt
 *fill*         0x80039985        0x3 00
 .sbss          0x80039988        0x8 c:/Utils/devkitPro/libogc/lib/wii\libogc.a(lwp_threads.o)
                0x80039988                _context_switch_want
                0x8003998c                _thread_dispatch_disable_level
 .sbss          0x80039990        0xc c:/Utils/devkitPro/libogc/lib/wii\libogc.a(lwp_watchdog.o)
                0x80039990                _wd_sync_count
                0x80039994                _wd_sync_level
                0x80039998                _wd_ticks_since_boot
 .sbss          0x8003999c        0x4 c:/Utils/devkitPro/libogc/lib/wii\libogc.a(sys_state.o)
                0x8003999c                _sys_state_curr
 .sbss          0x800399a0        0x4 c:/Utils/devkitPro/libogc/lib/wii\libogc.a(newlibc.o)
                0x800399a0                libc_reentrant
 .sbss          0x800399a4        0x4 c:/Utils/devkitPro/libogc/lib/wii\libogc.a(lwp_priority.o)
                0x800399a4                _prio_major_bitmap
 .sbss          0x800399a8        0xc c:/utils/devkitpro/devkitppc/bin/../lib/gcc/powerpc-gekko/4.2.4/../../../../powerpc-gekko/lib\libc.a(lib_a-mallocr.o)
                0x800399a8                __malloc_top_pad
                0x800399ac                __malloc_max_sbrked_mem
                0x800399b0                __malloc_max_total_mem
 *(.sbss.*)
 .sbss.__wpads_used
                0x800399b4        0x4 c:/Utils/devkitPro/libogc/lib/wii\libwiiuse.a(wpad.o)
 .sbss.__wpads  0x800399b8        0x4 c:/Utils/devkitPro/libogc/lib/wii\libwiiuse.a(wpad.o)
 .sbss.__wpad_timer
                0x800399bc        0x4 c:/Utils/devkitPro/libogc/lib/wii\libwiiuse.a(wpad.o)
 .sbss.__wpads_inited
                0x800399c0        0x4 c:/Utils/devkitPro/libogc/lib/wii\libwiiuse.a(wpad.o)
 .sbss.__wpads_ponded
                0x800399c4        0x4 c:/Utils/devkitPro/libogc/lib/wii\libwiiuse.a(wpad.o)
 .sbss.__wpads_active
                0x800399c8        0x4 c:/Utils/devkitPro/libogc/lib/wii\libwiiuse.a(wpad.o)
 .sbss.__wpad_batcb
                0x800399cc        0x4 c:/Utils/devkitPro/libogc/lib/wii\libwiiuse.a(wpad.o)
 .sbss.hci_dev  0x800399d0        0x4 c:/Utils/devkitPro/libogc/lib/wii\libbte.a(hci.o)
                0x800399d0                hci_dev
 .sbss.hci_active_links
                0x800399d4        0x4 c:/Utils/devkitPro/libogc/lib/wii\libbte.a(hci.o)
                0x800399d4                hci_active_links
 .sbss.hci_tmp_link
                0x800399d8        0x4 c:/Utils/devkitPro/libogc/lib/wii\libbte.a(hci.o)
                0x800399d8                hci_tmp_link
 .sbss.l2cap_listen_pcbs
                0x800399dc        0x4 c:/Utils/devkitPro/libogc/lib/wii\libbte.a(l2cap.o)
                0x800399dc                l2cap_listen_pcbs
 .sbss.l2cap_tmp_sig
                0x800399e0        0x4 c:/Utils/devkitPro/libogc/lib/wii\libbte.a(l2cap.o)
                0x800399e0                l2cap_tmp_sig
 .sbss.l2cap_disconnect_bb_cb
                0x800399e4        0x4 c:/Utils/devkitPro/libogc/lib/wii\libbte.a(l2cap.o)
 .sbss.l2cap_tmp_pcb
                0x800399e8        0x4 c:/Utils/devkitPro/libogc/lib/wii\libbte.a(l2cap.o)
                0x800399e8                l2cap_tmp_pcb
 .sbss.l2cap_tmp_inseg
                0x800399ec        0x4 c:/Utils/devkitPro/libogc/lib/wii\libbte.a(l2cap.o)
                0x800399ec                l2cap_tmp_inseg
 .sbss.l2cap_insegs
                0x800399f0        0x4 c:/Utils/devkitPro/libogc/lib/wii\libbte.a(l2cap.o)
                0x800399f0                l2cap_insegs
 .sbss.ram_end  0x800399f4        0x4 c:/Utils/devkitPro/libogc/lib/wii\libbte.a(btmemr.o)
 .sbss.ram_free
                0x800399f8        0x4 c:/Utils/devkitPro/libogc/lib/wii\libbte.a(btmemr.o)
 .sbss.__ntd_vid
                0x800399fc        0x2 c:/Utils/devkitPro/libogc/lib/wii\libbte.a(physbusif.o)
 *fill*         0x800399fe        0x2 00
 .sbss.ctrlbufs
                0x80039a00        0x8 c:/Utils/devkitPro/libogc/lib/wii\libbte.a(physbusif.o)
 .sbss.__ntd_pid
                0x80039a08        0x2 c:/Utils/devkitPro/libogc/lib/wii\libbte.a(physbusif.o)
 *fill*         0x80039a0a        0x2 00
 .sbss.__ntd_ohci
                0x80039a0c        0x4 c:/Utils/devkitPro/libogc/lib/wii\libbte.a(physbusif.o)
 .sbss.__ntd_vid_pid_specified
                0x80039a10        0x4 c:/Utils/devkitPro/libogc/lib/wii\libbte.a(physbusif.o)
 .sbss.__ntd_ohci_initflag
                0x80039a14        0x4 c:/Utils/devkitPro/libogc/lib/wii\libbte.a(physbusif.o)
 .sbss.aclbufs  0x80039a18        0x8 c:/Utils/devkitPro/libogc/lib/wii\libbte.a(physbusif.o)
 .sbss.curr_con
                0x80039a20        0x4 c:/Utils/devkitPro/libogc/lib/wii\libogc.a(console.o)
 .sbss.__gecko_safe
                0x80039a24        0x4 c:/Utils/devkitPro/libogc/lib/wii\libogc.a(console.o)
 .sbss.do_xfb_copy
                0x80039a28        0x4 c:/Utils/devkitPro/libogc/lib/wii\libogc.a(console.o)
 .sbss._thr_executing
                0x80039a2c        0x4 c:/Utils/devkitPro/libogc/lib/wii\libogc.a(lwp_threads.o)
                0x80039a2c                _thr_executing
 .sbss._lwp_exitfunc
                0x80039a30        0x4 c:/Utils/devkitPro/libogc/lib/wii\libogc.a(lwp_threads.o)
 .sbss._thr_main
                0x80039a34        0x4 c:/Utils/devkitPro/libogc/lib/wii\libogc.a(lwp_threads.o)
                0x80039a34                _thr_main
 .sbss.__lwp_thr_libc_reent
                0x80039a38        0x4 c:/Utils/devkitPro/libogc/lib/wii\libogc.a(lwp_threads.o)
                0x80039a38                __lwp_thr_libc_reent
 .sbss._thr_heir
                0x80039a3c        0x4 c:/Utils/devkitPro/libogc/lib/wii\libogc.a(lwp_threads.o)
                0x80039a3c                _thr_heir
 .sbss._thr_allocated_fp
                0x80039a40        0x4 c:/Utils/devkitPro/libogc/lib/wii\libogc.a(lwp_threads.o)
                0x80039a40                _thr_allocated_fp
 .sbss._lwp_ticks_per_timeslice
                0x80039a44        0x4 c:/Utils/devkitPro/libogc/lib/wii\libogc.a(lwp_threads.o)
                0x80039a44                _lwp_ticks_per_timeslice
 .sbss._thr_idle
                0x80039a48        0x4 c:/Utils/devkitPro/libogc/lib/wii\libogc.a(lwp_threads.o)
                0x80039a48                _thr_idle
 .sbss.__wkspace_heap_size
                0x80039a4c        0x4 c:/Utils/devkitPro/libogc/lib/wii\libogc.a(lwp_wkspace.o)
 .sbss.null_local_table
                0x80039a50        0x4 c:/Utils/devkitPro/libogc/lib/wii\libogc.a(lwp_objmgr.o)
 .sbss._lwp_objmgr_memsize
                0x80039a54        0x4 c:/Utils/devkitPro/libogc/lib/wii\libogc.a(lwp_objmgr.o)
 .sbss.spuriousIrq
                0x80039a58        0x8 c:/Utils/devkitPro/libogc/lib/wii\libogc.a(irq.o)
 .sbss.prevIrqMask
                0x80039a60        0x4 c:/Utils/devkitPro/libogc/lib/wii\libogc.a(irq.o)
 .sbss.currIrqMask
                0x80039a64        0x4 c:/Utils/devkitPro/libogc/lib/wii\libogc.a(irq.o)
 .sbss.postRetraceCB
                0x80039a68        0x4 c:/Utils/devkitPro/libogc/lib/wii\libogc.a(video.o)
 .sbss.currentFb
                0x80039a6c        0x4 c:/Utils/devkitPro/libogc/lib/wii\libogc.a(video.o)
 .sbss.currTiming
                0x80039a70        0x4 c:/Utils/devkitPro/libogc/lib/wii\libogc.a(video.o)
 .sbss.currTvMode
                0x80039a74        0x4 c:/Utils/devkitPro/libogc/lib/wii\libogc.a(video.o)
 .sbss.nextFb   0x80039a78        0x4 c:/Utils/devkitPro/libogc/lib/wii\libogc.a(video.o)
 .sbss.encoderType
                0x80039a7c        0x4 c:/Utils/devkitPro/libogc/lib/wii\libogc.a(video.o)
 .sbss.displayOffsetH
                0x80039a80        0x2 c:/Utils/devkitPro/libogc/lib/wii\libogc.a(video.o)
 *fill*         0x80039a82        0x2 00
 .sbss.changeMode
                0x80039a84        0x4 c:/Utils/devkitPro/libogc/lib/wii\libogc.a(video.o)
 .sbss.displayOffsetV
                0x80039a88        0x2 c:/Utils/devkitPro/libogc/lib/wii\libogc.a(video.o)
 *fill*         0x80039a8a        0x2 00
 .sbss.flushFlag
                0x80039a8c        0x4 c:/Utils/devkitPro/libogc/lib/wii\libogc.a(video.o)
 .sbss.preRetraceCB
                0x80039a90        0x4 c:/Utils/devkitPro/libogc/lib/wii\libogc.a(video.o)
 .sbss.video_queue
                0x80039a94        0x4 c:/Utils/devkitPro/libogc/lib/wii\libogc.a(video.o)
 .sbss.shdw_changeMode
                0x80039a98        0x4 c:/Utils/devkitPro/libogc/lib/wii\libogc.a(video.o)
 .sbss.retraceCount
                0x80039a9c        0x4 c:/Utils/devkitPro/libogc/lib/wii\libogc.a(video.o)
 .sbss.changed  0x80039aa0        0x8 c:/Utils/devkitPro/libogc/lib/wii\libogc.a(video.o)
 .sbss.fbSet    0x80039aa8        0x4 c:/Utils/devkitPro/libogc/lib/wii\libogc.a(video.o)
 .sbss.vdacFlagRegion
                0x80039aac        0x4 c:/Utils/devkitPro/libogc/lib/wii\libogc.a(video.o)
 .sbss.shdw_changed
                0x80039ab0        0x8 c:/Utils/devkitPro/libogc/lib/wii\libogc.a(video.o)
 .sbss.i2cIdentFirst
                0x80039ab8        0x4 c:/Utils/devkitPro/libogc/lib/wii\libogc.a(video.o)
 .sbss.__sysarena1hi
                0x80039abc        0x4 c:/Utils/devkitPro/libogc/lib/wii\libogc.a(system.o)
 .sbss.__ipcbufferhi
                0x80039ac0        0x4 c:/Utils/devkitPro/libogc/lib/wii\libogc.a(system.o)
 .sbss.__sysarena2lo
                0x80039ac4        0x4 c:/Utils/devkitPro/libogc/lib/wii\libogc.a(system.o)
 .sbss.system_initialized
                0x80039ac8        0x4 c:/Utils/devkitPro/libogc/lib/wii\libogc.a(system.o)
 .sbss.__sysarena1lo
                0x80039acc        0x4 c:/Utils/devkitPro/libogc/lib/wii\libogc.a(system.o)
 .sbss.__sys_versionbuild
                0x80039ad0        0x4 c:/Utils/devkitPro/libogc/lib/wii\libogc.a(system.o)
 .sbss.__ipcbufferlo
                0x80039ad4        0x4 c:/Utils/devkitPro/libogc/lib/wii\libogc.a(system.o)
 .sbss.__sysarena2hi
                0x80039ad8        0x4 c:/Utils/devkitPro/libogc/lib/wii\libogc.a(system.o)
 .sbss.__sys_versiondate
                0x80039adc        0x4 c:/Utils/devkitPro/libogc/lib/wii\libogc.a(system.o)
 .sbss.__RSWCallback
                0x80039ae0        0x4 c:/Utils/devkitPro/libogc/lib/wii\libogc.a(system.o)
 .sbss.__POWCallback
                0x80039ae4        0x4 c:/Utils/devkitPro/libogc/lib/wii\libogc.a(system.o)
 .sbss.__sys_resetdown
                0x80039ae8        0x4 c:/Utils/devkitPro/libogc/lib/wii\libogc.a(system.o)
 .sbss.__PADFixBits
                0x80039aec        0x4 c:/Utils/devkitPro/libogc/lib/wii\libogc.a(si.o)
                0x80039aec                __PADFixBits
 .sbss.cmdtypeandstatus$47
                0x80039af0        0x4 c:/Utils/devkitPro/libogc/lib/wii\libogc.a(si.o)
 .sbss.sampling_rate
                0x80039af4        0x4 c:/Utils/devkitPro/libogc/lib/wii\libogc.a(si.o)
 .sbss.cmdtypeandstatus$223
                0x80039af8        0x4 c:/Utils/devkitPro/libogc/lib/wii\libogc.a(si.o)
 .sbss._ipc_currbufferhi
                0x80039afc        0x4 c:/Utils/devkitPro/libogc/lib/wii\libogc.a(ipc.o)
 .sbss._ipc_spuriousresponsecnt
                0x80039b00        0x8 c:/Utils/devkitPro/libogc/lib/wii\libogc.a(ipc.o)
 .sbss._ipc_relnchFl
                0x80039b08        0x4 c:/Utils/devkitPro/libogc/lib/wii\libogc.a(ipc.o)
 .sbss._ipc_clntinitialized
                0x80039b0c        0x4 c:/Utils/devkitPro/libogc/lib/wii\libogc.a(ipc.o)
 .sbss._ipc_bufferlo
                0x80039b10        0x4 c:/Utils/devkitPro/libogc/lib/wii\libogc.a(ipc.o)
 .sbss._ipc_bufferhi
                0x80039b14        0x4 c:/Utils/devkitPro/libogc/lib/wii\libogc.a(ipc.o)
 .sbss._ipc_currbufferlo
                0x80039b18        0x4 c:/Utils/devkitPro/libogc/lib/wii\libogc.a(ipc.o)
 .sbss._ipc_relnchRpc
                0x80039b1c        0x4 c:/Utils/devkitPro/libogc/lib/wii\libogc.a(ipc.o)
 .sbss._ipc_initialized
                0x80039b20        0x4 c:/Utils/devkitPro/libogc/lib/wii\libogc.a(ipc.o)
 .sbss.time_exi_wait
                0x80039b24        0x4 c:/Utils/devkitPro/libogc/lib/wii\libogc.a(timesupp.o)
 .sbss.exi_wait_inited
                0x80039b28        0x4 c:/Utils/devkitPro/libogc/lib/wii\libogc.a(timesupp.o)
 .sbss.wait_exi_queue
                0x80039b2c        0x8 c:/Utils/devkitPro/libogc/lib/wii\libogc.a(usbgecko.o)
 .sbss.usbgecko_inited
                0x80039b34        0x4 c:/Utils/devkitPro/libogc/lib/wii\libogc.a(usbgecko.o)
 .sbss.initialized
                0x80039b38        0x4 c:/Utils/devkitPro/libogc/lib/wii\libogc.a(malloc_lock.o)
 .sbss.__stm_initialized
                0x80039b3c        0x4 c:/Utils/devkitPro/libogc/lib/wii\libogc.a(stm.o)
 .sbss.__stm_vdinuse
                0x80039b40        0x4 c:/Utils/devkitPro/libogc/lib/wii\libogc.a(stm.o)
 .sbss.__stm_ehregistered
                0x80039b44        0x4 c:/Utils/devkitPro/libogc/lib/wii\libogc.a(stm.o)
 .sbss.__stm_eventcb
                0x80039b48        0x4 c:/Utils/devkitPro/libogc/lib/wii\libogc.a(stm.o)
                0x80039b48                __stm_eventcb
 .sbss.__stm_ehclear
                0x80039b4c        0x4 c:/Utils/devkitPro/libogc/lib/wii\libogc.a(stm.o)
 .sbss.__conf_inited
                0x80039b50        0x4 c:/Utils/devkitPro/libogc/lib/wii\libogc.a(conf.o)
 .sbss.__initialized
                0x80039b54        0x4 c:/Utils/devkitPro/libogc/lib/wii\libogc.a(wiilaunch.o)
 .sbss.__pad_makestatus
                0x80039b58        0x4 c:/Utils/devkitPro/libogc/lib/wii\libogc.a(pad.o)
 .sbss.__pad_resettingbits
                0x80039b5c        0x4 c:/Utils/devkitPro/libogc/lib/wii\libogc.a(pad.o)
 .sbss.__pad_recalibratebits
                0x80039b60        0x4 c:/Utils/devkitPro/libogc/lib/wii\libogc.a(pad.o)
 .sbss.__pad_enabledbits
                0x80039b64        0x4 c:/Utils/devkitPro/libogc/lib/wii\libogc.a(pad.o)
 .sbss.__pad_pendingbits
                0x80039b68        0x4 c:/Utils/devkitPro/libogc/lib/wii\libogc.a(pad.o)
 .sbss.__pad_checkingbits
                0x80039b6c        0x4 c:/Utils/devkitPro/libogc/lib/wii\libogc.a(pad.o)
 .sbss.__pad_waitingbits
                0x80039b70        0x4 c:/Utils/devkitPro/libogc/lib/wii\libogc.a(pad.o)
 .sbss.exi_id_serport1
                0x80039b74        0x4 c:/Utils/devkitPro/libogc/lib/wii\libogc.a(exi.o)
 *(.gnu.linkonce.sb.*)
 *(.scommon)
                0x80039b78                PROVIDE (__sbss_end, .)
                0x80039b78                PROVIDE (___sbss_end, .)
                0x80039b80                . = ALIGN (0x20)
 *fill*         0x80039b78        0x8 00
                0x80039b80                __sbss_end = .

.bss            0x80039b80    0x746a0
                0x80039b80                __bss_start = .
                0x80039b80                PROVIDE (__bss_start, .)
 *(.dynbss)
 *(.bss)
 .bss           0x80039b80       0x1c c:/utils/devkitpro/devkitppc/bin/../lib/gcc/powerpc-gekko/4.2.4/crtbegin.o
 .bss           0x80039b9c        0x8 test.o
 *fill*         0x80039ba4        0x4 00
 .bss           0x80039ba8     0x4000 c:/Utils/devkitPro/libogc/lib/wii\libogc.a(ogc_crt0.o)
 .bss           0x8003dba8       0x20 c:/utils/devkitpro/devkitppc/bin/../lib/gcc/powerpc-gekko/4.2.4/../../../../powerpc-gekko/lib\libsysbase.a(syscall_support.o)
                0x8003dba8                __syscalls
 .bss           0x8003dbc8       0x28 c:/utils/devkitpro/devkitppc/bin/../lib/gcc/powerpc-gekko/4.2.4/../../../../powerpc-gekko/lib\libc.a(lib_a-mallocr.o)
                0x8003dbc8                __malloc_current_mallinfo
 .bss           0x8003dbf0        0x8 c:/utils/devkitpro/devkitppc/bin/../lib/gcc/powerpc-gekko/4.2.4/../../../../powerpc-gekko/lib\libc.a(lib_a-findfp.o)
 .bss           0x8003dbf8     0x1000 c:/utils/devkitpro/devkitppc/bin/../lib/gcc/powerpc-gekko/4.2.4/../../../../powerpc-gekko/lib\libsysbase.a(handle_manager.o)
 *(.bss.*)
 .bss.__wpad_devs
                0x8003ebf8      0x461 c:/Utils/devkitPro/libogc/lib/wii\libwiiuse.a(wpad.o)
 *fill*         0x8003f059        0x3 00
 .bss.__wpdcb   0x8003f05c     0x70a8 c:/Utils/devkitPro/libogc/lib/wii\libwiiuse.a(wpad.o)
 .bss.__wpads_listen
                0x80046104       0xc8 c:/Utils/devkitPro/libogc/lib/wii\libwiiuse.a(wpad.o)
 .bss.__wpad_keys
                0x800461cc       0x6e c:/Utils/devkitPro/libogc/lib/wii\libwiiuse.a(wpad.o)
 *fill*         0x8004623a        0x2 00
 .bss.wpaddata  0x8004623c      0x690 c:/Utils/devkitPro/libogc/lib/wii\libwiiuse.a(wpad.o)
 .bss.btstate   0x800468cc       0x1c c:/Utils/devkitPro/libogc/lib/wii\libbte.a(bte.o)
 .bss.ppc_stack
                0x800468e8     0x8000 c:/Utils/devkitPro/libogc/lib/wii\libbte.a(bte.o)
 .bss.memb_mem_bte_pcbs
                0x8004e8e8      0x310 c:/Utils/devkitPro/libogc/lib/wii\libbte.a(bte.o)
 .bss.memb_mem_bte_ctrl_reqs
                0x8004ebf8     0x1c00 c:/Utils/devkitPro/libogc/lib/wii\libbte.a(bte.o)
 .bss.memb_mem_hci_inq_results
                0x800507f8     0x1800 c:/Utils/devkitPro/libogc/lib/wii\libbte.a(hci.o)
 .bss.memb_mem_hci_links
                0x80051ff8       0xa8 c:/Utils/devkitPro/libogc/lib/wii\libbte.a(hci.o)
 .bss.memb_mem_hci_link_key_results
                0x800520a0     0x2000 c:/Utils/devkitPro/libogc/lib/wii\libbte.a(hci.o)
 .bss.memb_mem_hci_pcbs
                0x800540a0       0x5c c:/Utils/devkitPro/libogc/lib/wii\libbte.a(hci.o)
 .bss.memb_mem_l2cap_sigs
                0x800540fc       0xf0 c:/Utils/devkitPro/libogc/lib/wii\libbte.a(l2cap.o)
 .bss.memb_mem_l2cap_pcbs
                0x800541ec      0x498 c:/Utils/devkitPro/libogc/lib/wii\libbte.a(l2cap.o)
 .bss.memb_mem_l2cap_segs
                0x80054684      0x1c0 c:/Utils/devkitPro/libogc/lib/wii\libbte.a(l2cap.o)
 .bss.memb_mem_l2cap_listenpcbs
                0x80054844      0x230 c:/Utils/devkitPro/libogc/lib/wii\libbte.a(l2cap.o)
 .bss.ram_block
                0x80054a74    0x10010 c:/Utils/devkitPro/libogc/lib/wii\libbte.a(btmemr.o)
 .bss.memb_mem_rom_pbufs
                0x80064a84      0x384 c:/Utils/devkitPro/libogc/lib/wii\libbte.a(btpbuf.o)
 .bss.memb_mem_pool_pbufs
                0x80064e08    0x32280 c:/Utils/devkitPro/libogc/lib/wii\libbte.a(btpbuf.o)
 .bss.__usbdev  0x80097088       0x1c c:/Utils/devkitPro/libogc/lib/wii\libbte.a(physbusif.o)
 *fill*         0x800970a4        0x4 00
 .bss.__ppc_btstack1
                0x800970a8     0x8000 c:/Utils/devkitPro/libogc/lib/wii\libbte.a(physbusif.o)
 .bss.__ppc_btstack2
                0x8009f0a8     0x8000 c:/Utils/devkitPro/libogc/lib/wii\libbte.a(physbusif.o)
 .bss.stdcon    0x800a70a8       0x40 c:/Utils/devkitPro/libogc/lib/wii\libogc.a(console.o)
 .bss.g_IRQHandler
                0x800a70e8      0x100 c:/Utils/devkitPro/libogc/lib/wii\libogc.a(irq.o)
 .bss.shdw_regs
                0x800a71e8       0x78 c:/Utils/devkitPro/libogc/lib/wii\libogc.a(video.o)
 .bss.regs      0x800a7260       0x78 c:/Utils/devkitPro/libogc/lib/wii\libogc.a(video.o)
 .bss.HorVer    0x800a72d8       0x58 c:/Utils/devkitPro/libogc/lib/wii\libogc.a(video.o)
 .bss.sys_alarm_objects
                0x800a7330       0x28 c:/Utils/devkitPro/libogc/lib/wii\libogc.a(system.o)
 .bss.sys_reset_func_queue
                0x800a7358        0xc c:/Utils/devkitPro/libogc/lib/wii\libogc.a(system.o)
 .bss.inputBufferValid
                0x800a7364       0x10 c:/Utils/devkitPro/libogc/lib/wii\libogc.a(si.o)
 .bss.inputBuffer
                0x800a7374       0x20 c:/Utils/devkitPro/libogc/lib/wii\libogc.a(si.o)
 .bss.typeCallback
                0x800a7394       0x40 c:/Utils/devkitPro/libogc/lib/wii\libogc.a(si.o)
 *fill*         0x800a73d4        0x4 00
 .bss.typeTime  0x800a73d8       0x20 c:/Utils/devkitPro/libogc/lib/wii\libogc.a(si.o)
 .bss.xferTime  0x800a73f8       0x20 c:/Utils/devkitPro/libogc/lib/wii\libogc.a(si.o)
 .bss.cmdfixdevice
                0x800a7418       0x10 c:/Utils/devkitPro/libogc/lib/wii\libogc.a(si.o)
 .bss.sipacket  0x800a7428       0x80 c:/Utils/devkitPro/libogc/lib/wii\libogc.a(si.o)
 .bss.inputBufferVCount
                0x800a74a8       0x10 c:/Utils/devkitPro/libogc/lib/wii\libogc.a(si.o)
 .bss.si_alarm  0x800a74b8       0x10 c:/Utils/devkitPro/libogc/lib/wii\libogc.a(si.o)
 .bss.rdstHandlers
                0x800a74c8       0x10 c:/Utils/devkitPro/libogc/lib/wii\libogc.a(si.o)
 .bss._ipc_heaps
                0x800a74d8      0x120 c:/Utils/devkitPro/libogc/lib/wii\libogc.a(ipc.o)
 .bss._ipc_responses
                0x800a75f8       0x50 c:/Utils/devkitPro/libogc/lib/wii\libogc.a(ipc.o)
 .bss.mem_lock  0x800a7648       0x5c c:/Utils/devkitPro/libogc/lib/wii\libogc.a(malloc_lock.o)
 *fill*         0x800a76a4       0x1c 00
 .bss.__stm_ehbufin
                0x800a76c0       0x20 c:/Utils/devkitPro/libogc/lib/wii\libogc.a(stm.o)
 .bss.__stm_ehbufout
                0x800a76e0       0x20 c:/Utils/devkitPro/libogc/lib/wii\libogc.a(stm.o)
 .bss.__stm_immbufin
                0x800a7700       0x20 c:/Utils/devkitPro/libogc/lib/wii\libogc.a(stm.o)
 .bss.__stm_immbufout
                0x800a7720       0x20 c:/Utils/devkitPro/libogc/lib/wii\libogc.a(stm.o)
 .bss.__conf_buffer
                0x800a7740     0x4000 c:/Utils/devkitPro/libogc/lib/wii\libogc.a(conf.o)
 .bss.__conf_txt_buffer
                0x800ab740      0x101 c:/Utils/devkitPro/libogc/lib/wii\libogc.a(conf.o)
 *fill*         0x800ab841       0x1f 00
 .bss.stateflags
                0x800ab860       0x20 c:/Utils/devkitPro/libogc/lib/wii\libogc.a(wiilaunch.o)
 .bss.nandboot  0x800ab880     0x1020 c:/Utils/devkitPro/libogc/lib/wii\libogc.a(wiilaunch.o)
 .bss.__pad_type
                0x800ac8a0       0x10 c:/Utils/devkitPro/libogc/lib/wii\libogc.a(pad.o)
 .bss.__pad_cmdprobedevice
                0x800ac8b0       0x10 c:/Utils/devkitPro/libogc/lib/wii\libogc.a(pad.o)
 .bss.__pad_keys
                0x800ac8c0       0x50 c:/Utils/devkitPro/libogc/lib/wii\libogc.a(pad.o)
 .bss.__pad_origin
                0x800ac910       0x30 c:/Utils/devkitPro/libogc/lib/wii\libogc.a(pad.o)
 .bss.eximap    0x800ac940       0xc0 c:/Utils/devkitPro/libogc/lib/wii\libogc.a(exi.o)
 .bss.lckdevs   0x800aca00      0x200 c:/Utils/devkitPro/libogc/lib/wii\libogc.a(exi.o)
 .bss._lckdev_queue
                0x800acc00        0xc c:/Utils/devkitPro/libogc/lib/wii\libogc.a(exi.o)
 *fill*         0x800acc0c        0x4 00
 .bss.last_exi_idtime
                0x800acc10       0x18 c:/Utils/devkitPro/libogc/lib/wii\libogc.a(exi.o)
 *(.gnu.linkonce.b.*)
 *(COMMON)
 COMMON         0x800acc28      0xef8 c:/Utils/devkitPro/libogc/lib/wii\libogc.a(lwp_threads.o)
                0x800acc28                _lwp_thr_ready
                0x800ad828                _lwp_wd_timeslice
                0x800ad850                core_context
 COMMON         0x800adb20       0x50 c:/Utils/devkitPro/libogc/lib/wii\libogc.a(lwp.o)
                0x800adb20                _lwp_thr_objects
                0x800adb48                _lwp_tqueue_objects
 COMMON         0x800adb70        0xc c:/Utils/devkitPro/libogc/lib/wii\libogc.a(lwp_watchdog.o)
                0x800adb70                _wd_ticks_queue
 COMMON         0x800adb7c       0x1c c:/Utils/devkitPro/libogc/lib/wii\libogc.a(lwp_wkspace.o)
                0x800adb7c                __wkspace_heap
 *fill*         0x800adb98        0x8 00
 COMMON         0x800adba0       0x50 c:/Utils/devkitPro/libogc/lib/wii\libogc.a(system.o)
                0x800adba0                sramcntrl
 COMMON         0x800adbf0       0x28 c:/Utils/devkitPro/libogc/lib/wii\libogc.a(cond.o)
                0x800adbf0                _lwp_cond_objects
 COMMON         0x800adc18       0x28 c:/Utils/devkitPro/libogc/lib/wii\libogc.a(message.o)
                0x800adc18                _lwp_mqbox_objects
 COMMON         0x800adc40      0x400 c:/Utils/devkitPro/libogc/lib/wii\libogc.a(newlibc.o)
                0x800adc40                libc_globl_reent
 COMMON         0x800ae040       0x40 c:/Utils/devkitPro/libogc/lib/wii\libogc.a(lwp_priority.o)
                0x800ae040                _prio_bitmap
 COMMON         0x800ae080       0x3c c:/Utils/devkitPro/libogc/lib/wii\libogc.a(exception.o)
                0x800ae080                _exceptionhandlertable
 COMMON         0x800ae0bc       0x28 c:/Utils/devkitPro/libogc/lib/wii\libogc.a(semaphore.o)
                0x800ae0bc                _lwp_sema_objects
 COMMON         0x800ae0e4       0x28 c:/Utils/devkitPro/libogc/lib/wii\libogc.a(mutex.o)
                0x800ae0e4                _lwp_mutex_objects
 COMMON         0x800ae10c      0x100 c:/Utils/devkitPro/libogc/lib/wii\libogc.a(kprintf.o)
                0x800ae10c                __outstr
                0x800ae220                . = ALIGN (0x20)
 *fill*         0x800ae20c       0x14 00
                0x800ae220                PROVIDE (__bss_end, .)
                0x800ae220                __bss_end = .
                0x800ae220                _end = .
                0x800ae220                PROVIDE (end, .)

.stab
 *(.stab)

.stabstr
 *(.stabstr)

.stab.excl
 *(.stab.excl)

.stab.exclstr
 *(.stab.exclstr)

.stab.index
 *(.stab.index)

.stab.indexstr
 *(.stab.indexstr)

.comment        0x00000000     0x1a37
 *(.comment)
 .comment       0x00000000        0xe c:/utils/devkitpro/devkitppc/bin/../lib/gcc/powerpc-gekko/4.2.4/ecrti.o
 .comment       0x0000000e       0x29 c:/utils/devkitpro/devkitppc/bin/../lib/gcc/powerpc-gekko/4.2.4/crtbegin.o
 .comment       0x00000037       0x29 c:/utils/devkitpro/devkitppc/bin/../lib/gcc/powerpc-gekko/4.2.4/../../../../powerpc-gekko/lib/crtmain.o
 .comment       0x00000060       0x29 test.o
 .comment       0x00000089       0x29 c:/Utils/devkitPro/libogc/lib/wii\libwiiuse.a(wpad.o)
 .comment       0x000000b2       0x29 c:/Utils/devkitPro/libogc/lib/wii\libwiiuse.a(dynamics.o)
 .comment       0x000000db       0x29 c:/Utils/devkitPro/libogc/lib/wii\libwiiuse.a(io_wii.o)
 .comment       0x00000104       0x29 c:/Utils/devkitPro/libogc/lib/wii\libwiiuse.a(ir.o)
 .comment       0x0000012d       0x29 c:/Utils/devkitPro/libogc/lib/wii\libwiiuse.a(wiiuse.o)
 .comment       0x00000156       0x29 c:/Utils/devkitPro/libogc/lib/wii\libwiiuse.a(events.o)
 .comment       0x0000017f       0x29 c:/Utils/devkitPro/libogc/lib/wii\libwiiuse.a(guitar_hero_3.o)
 .comment       0x000001a8       0x29 c:/Utils/devkitPro/libogc/lib/wii\libwiiuse.a(io.o)
 .comment       0x000001d1       0x29 c:/Utils/devkitPro/libogc/lib/wii\libwiiuse.a(nunchuk.o)
 .comment       0x000001fa       0x29 c:/Utils/devkitPro/libogc/lib/wii\libwiiuse.a(wiiboard.o)
 .comment       0x00000223       0x29 c:/Utils/devkitPro/libogc/lib/wii\libwiiuse.a(classic.o)
 .comment       0x0000024c       0x29 c:/Utils/devkitPro/libogc/lib/wii\libbte.a(bte.o)
 .comment       0x00000275       0x29 c:/Utils/devkitPro/libogc/lib/wii\libbte.a(hci.o)
 .comment       0x0000029e       0x29 c:/Utils/devkitPro/libogc/lib/wii\libbte.a(l2cap.o)
 .comment       0x000002c7       0x29 c:/Utils/devkitPro/libogc/lib/wii\libbte.a(btmemb.o)
 .comment       0x000002f0       0x29 c:/Utils/devkitPro/libogc/lib/wii\libbte.a(btmemr.o)
 .comment       0x00000319       0x29 c:/Utils/devkitPro/libogc/lib/wii\libbte.a(btpbuf.o)
 .comment       0x00000342       0x29 c:/Utils/devkitPro/libogc/lib/wii\libbte.a(physbusif.o)
 .comment       0x0000036b       0x29 c:/Utils/devkitPro/libogc/lib/wii\libogc.a(console.o)
 .comment       0x00000394       0x29 c:/Utils/devkitPro/libogc/lib/wii\libogc.a(lwp_queue.o)
 .comment       0x000003bd       0x29 c:/Utils/devkitPro/libogc/lib/wii\libogc.a(lwp_threads.o)
 .comment       0x000003e6       0x29 c:/Utils/devkitPro/libogc/lib/wii\libogc.a(lwp.o)
 .comment       0x0000040f       0x29 c:/Utils/devkitPro/libogc/lib/wii\libogc.a(lwp_stack.o)
 .comment       0x00000438       0x29 c:/Utils/devkitPro/libogc/lib/wii\libogc.a(lwp_watchdog.o)
 .comment       0x00000461       0x29 c:/Utils/devkitPro/libogc/lib/wii\libogc.a(lwp_wkspace.o)
 .comment       0x0000048a       0x29 c:/Utils/devkitPro/libogc/lib/wii\libogc.a(lwp_objmgr.o)
 .comment       0x000004b3       0x29 c:/Utils/devkitPro/libogc/lib/wii\libogc.a(lwp_heap.o)
 .comment       0x000004dc       0x29 c:/Utils/devkitPro/libogc/lib/wii\libogc.a(sys_state.o)
 .comment       0x00000505       0x29 c:/Utils/devkitPro/libogc/lib/wii\libogc.a(irq.o)
 .comment       0x0000052e       0x29 c:/Utils/devkitPro/libogc/lib/wii\libogc.a(video.o)
 .comment       0x00000557       0x29 c:/Utils/devkitPro/libogc/lib/wii\libogc.a(system.o)
 .comment       0x00000580       0x29 c:/Utils/devkitPro/libogc/lib/wii\libogc.a(cond.o)
 .comment       0x000005a9       0x29 c:/Utils/devkitPro/libogc/lib/wii\libogc.a(decrementer.o)
 .comment       0x000005d2       0x29 c:/Utils/devkitPro/libogc/lib/wii\libogc.a(message.o)
 .comment       0x000005fb       0x29 c:/Utils/devkitPro/libogc/lib/wii\libogc.a(si.o)
 .comment       0x00000624       0x29 c:/Utils/devkitPro/libogc/lib/wii\libogc.a(ipc.o)
 .comment       0x0000064d       0x29 c:/Utils/devkitPro/libogc/lib/wii\libogc.a(console_font_8x16.o)
 .comment       0x00000676       0x29 c:/Utils/devkitPro/libogc/lib/wii\libogc.a(timesupp.o)
 .comment       0x0000069f       0x29 c:/Utils/devkitPro/libogc/lib/wii\libogc.a(lock_supp.o)
 .comment       0x000006c8       0x29 c:/Utils/devkitPro/libogc/lib/wii\libogc.a(newlibc.o)
 .comment       0x000006f1       0x29 c:/Utils/devkitPro/libogc/lib/wii\libogc.a(usbgecko.o)
 .comment       0x0000071a       0x29 c:/Utils/devkitPro/libogc/lib/wii\libogc.a(sbrk.o)
 .comment       0x00000743       0x29 c:/Utils/devkitPro/libogc/lib/wii\libogc.a(malloc_lock.o)
 .comment       0x0000076c       0x29 c:/Utils/devkitPro/libogc/lib/wii\libogc.a(stm.o)
 .comment       0x00000795       0x29 c:/Utils/devkitPro/libogc/lib/wii\libogc.a(ios.o)
 .comment       0x000007be       0x29 c:/Utils/devkitPro/libogc/lib/wii\libogc.a(es.o)
 .comment       0x000007e7       0x29 c:/Utils/devkitPro/libogc/lib/wii\libogc.a(usb.o)
 .comment       0x00000810       0x29 c:/Utils/devkitPro/libogc/lib/wii\libogc.a(argv.o)
 .comment       0x00000839       0x29 c:/Utils/devkitPro/libogc/lib/wii\libogc.a(conf.o)
 .comment       0x00000862       0x29 c:/Utils/devkitPro/libogc/lib/wii\libogc.a(wiilaunch.o)
 .comment       0x0000088b       0x29 c:/Utils/devkitPro/libogc/lib/wii\libogc.a(lwp_priority.o)
 .comment       0x000008b4       0x29 c:/Utils/devkitPro/libogc/lib/wii\libogc.a(lwp_threadq.o)
 .comment       0x000008dd       0x29 c:/Utils/devkitPro/libogc/lib/wii\libogc.a(lwp_messages.o)
 .comment       0x00000906       0x29 c:/Utils/devkitPro/libogc/lib/wii\libogc.a(lwp_mutex.o)
 .comment       0x0000092f       0x29 c:/Utils/devkitPro/libogc/lib/wii\libogc.a(exception.o)
 .comment       0x00000958       0x29 c:/Utils/devkitPro/libogc/lib/wii\libogc.a(semaphore.o)
 .comment       0x00000981       0x29 c:/Utils/devkitPro/libogc/lib/wii\libogc.a(pad.o)
 .comment       0x000009aa       0x29 c:/Utils/devkitPro/libogc/lib/wii\libogc.a(exi.o)
 .comment       0x000009d3       0x29 c:/Utils/devkitPro/libogc/lib/wii\libogc.a(mutex.o)
 .comment       0x000009fc       0x29 c:/Utils/devkitPro/libogc/lib/wii\libogc.a(kprintf.o)
 .comment       0x00000a25       0x29 c:/Utils/devkitPro/libogc/lib/wii\libogc.a(lwp_sema.o)
 .comment       0x00000a4e       0x29 c:/utils/devkitpro/devkitppc/bin/../lib/gcc/powerpc-gekko/4.2.4/../../../../powerpc-gekko/lib\libm.a(lib_a-s_atan2.o)
 .comment       0x00000a77       0x29 c:/utils/devkitpro/devkitppc/bin/../lib/gcc/powerpc-gekko/4.2.4/../../../../powerpc-gekko/lib\libm.a(lib_a-s_atangent.o)
 .comment       0x00000aa0       0x29 c:/utils/devkitpro/devkitppc/bin/../lib/gcc/powerpc-gekko/4.2.4/../../../../powerpc-gekko/lib\libm.a(lib_a-s_cos.o)
 .comment       0x00000ac9       0x29 c:/utils/devkitpro/devkitppc/bin/../lib/gcc/powerpc-gekko/4.2.4/../../../../powerpc-gekko/lib\libm.a(lib_a-s_fabs.o)
 .comment       0x00000af2       0x29 c:/utils/devkitpro/devkitppc/bin/../lib/gcc/powerpc-gekko/4.2.4/../../../../powerpc-gekko/lib\libm.a(lib_a-s_frexp.o)
 .comment       0x00000b1b       0x29 c:/utils/devkitpro/devkitppc/bin/../lib/gcc/powerpc-gekko/4.2.4/../../../../powerpc-gekko/lib\libm.a(lib_a-s_mathcnst.o)
 .comment       0x00000b44       0x29 c:/utils/devkitpro/devkitppc/bin/../lib/gcc/powerpc-gekko/4.2.4/../../../../powerpc-gekko/lib\libm.a(lib_a-s_numtest.o)
 .comment       0x00000b6d       0x29 c:/utils/devkitpro/devkitppc/bin/../lib/gcc/powerpc-gekko/4.2.4/../../../../powerpc-gekko/lib\libm.a(lib_a-s_sin.o)
 .comment       0x00000b96       0x29 c:/utils/devkitpro/devkitppc/bin/../lib/gcc/powerpc-gekko/4.2.4/../../../../powerpc-gekko/lib\libm.a(lib_a-s_sine.o)
 .comment       0x00000bbf       0x29 c:/utils/devkitpro/devkitppc/bin/../lib/gcc/powerpc-gekko/4.2.4/../../../../powerpc-gekko/lib\libm.a(lib_a-s_sqrt.o)
 .comment       0x00000be8       0x29 c:/utils/devkitpro/devkitppc/bin/../lib/gcc/powerpc-gekko/4.2.4/../../../../powerpc-gekko/lib\libm.a(lib_a-sf_atan.o)
 .comment       0x00000c11       0x29 c:/utils/devkitpro/devkitppc/bin/../lib/gcc/powerpc-gekko/4.2.4/../../../../powerpc-gekko/lib\libm.a(lib_a-sf_atan2.o)
 .comment       0x00000c3a       0x29 c:/utils/devkitpro/devkitppc/bin/../lib/gcc/powerpc-gekko/4.2.4/../../../../powerpc-gekko/lib\libm.a(lib_a-sf_atangent.o)
 .comment       0x00000c63       0x29 c:/utils/devkitpro/devkitppc/bin/../lib/gcc/powerpc-gekko/4.2.4/../../../../powerpc-gekko/lib\libm.a(lib_a-sf_cos.o)
 .comment       0x00000c8c       0x29 c:/utils/devkitpro/devkitppc/bin/../lib/gcc/powerpc-gekko/4.2.4/../../../../powerpc-gekko/lib\libm.a(lib_a-sf_fabs.o)
 .comment       0x00000cb5       0x29 c:/utils/devkitpro/devkitppc/bin/../lib/gcc/powerpc-gekko/4.2.4/../../../../powerpc-gekko/lib\libm.a(lib_a-sf_fpclassify.o)
 .comment       0x00000cde       0x29 c:/utils/devkitpro/devkitppc/bin/../lib/gcc/powerpc-gekko/4.2.4/../../../../powerpc-gekko/lib\libm.a(lib_a-sf_frexp.o)
 .comment       0x00000d07       0x29 c:/utils/devkitpro/devkitppc/bin/../lib/gcc/powerpc-gekko/4.2.4/../../../../powerpc-gekko/lib\libm.a(lib_a-sf_isinff.o)
 .comment       0x00000d30       0x29 c:/utils/devkitpro/devkitppc/bin/../lib/gcc/powerpc-gekko/4.2.4/../../../../powerpc-gekko/lib\libm.a(lib_a-sf_isnanf.o)
 .comment       0x00000d59       0x29 c:/utils/devkitpro/devkitppc/bin/../lib/gcc/powerpc-gekko/4.2.4/../../../../powerpc-gekko/lib\libm.a(lib_a-sf_numtest.o)
 .comment       0x00000d82       0x29 c:/utils/devkitpro/devkitppc/bin/../lib/gcc/powerpc-gekko/4.2.4/../../../../powerpc-gekko/lib\libm.a(lib_a-sf_sin.o)
 .comment       0x00000dab       0x29 c:/utils/devkitpro/devkitppc/bin/../lib/gcc/powerpc-gekko/4.2.4/../../../../powerpc-gekko/lib\libm.a(lib_a-sf_sine.o)
 .comment       0x00000dd4       0x29 c:/utils/devkitpro/devkitppc/bin/../lib/gcc/powerpc-gekko/4.2.4/../../../../powerpc-gekko/lib\libm.a(lib_a-sf_sqrt.o)
 .comment       0x00000dfd       0x29 c:/utils/devkitpro/devkitppc/bin/../lib/gcc/powerpc-gekko/4.2.4/../../../../powerpc-gekko/lib\libm.a(lib_a-s_ispos.o)
 .comment       0x00000e26       0x29 c:/utils/devkitpro/devkitppc/bin/../lib/gcc/powerpc-gekko/4.2.4/../../../../powerpc-gekko/lib\libm.a(lib_a-s_ldexp.o)
 .comment       0x00000e4f       0x29 c:/utils/devkitpro/devkitppc/bin/../lib/gcc/powerpc-gekko/4.2.4/../../../../powerpc-gekko/lib\libm.a(lib_a-sf_ispos.o)
 .comment       0x00000e78       0x29 c:/utils/devkitpro/devkitppc/bin/../lib/gcc/powerpc-gekko/4.2.4/../../../../powerpc-gekko/lib\libm.a(lib_a-sf_ldexp.o)
 .comment       0x00000ea1       0x29 c:/utils/devkitpro/devkitppc/bin/../lib/gcc/powerpc-gekko/4.2.4\libgcc.a(_udivdi3.o)
 .comment       0x00000eca       0x29 c:/utils/devkitpro/devkitppc/bin/../lib/gcc/powerpc-gekko/4.2.4/../../../../powerpc-gekko/lib\libsysbase.a(abort.o)
 .comment       0x00000ef3       0x29 c:/utils/devkitpro/devkitppc/bin/../lib/gcc/powerpc-gekko/4.2.4/../../../../powerpc-gekko/lib\libsysbase.a(iosupport.o)
 .comment       0x00000f1c       0x29 c:/utils/devkitpro/devkitppc/bin/../lib/gcc/powerpc-gekko/4.2.4/../../../../powerpc-gekko/lib\libsysbase.a(_exit.o)
 .comment       0x00000f45       0x29 c:/utils/devkitpro/devkitppc/bin/../lib/gcc/powerpc-gekko/4.2.4/../../../../powerpc-gekko/lib\libsysbase.a(build_argv.o)
 .comment       0x00000f6e       0x29 c:/utils/devkitpro/devkitppc/bin/../lib/gcc/powerpc-gekko/4.2.4/../../../../powerpc-gekko/lib\libsysbase.a(syscall_support.o)
 .comment       0x00000f97       0x29 c:/utils/devkitpro/devkitppc/bin/../lib/gcc/powerpc-gekko/4.2.4/../../../../powerpc-gekko/lib\libc.a(lib_a-calloc.o)
 .comment       0x00000fc0       0x29 c:/utils/devkitpro/devkitppc/bin/../lib/gcc/powerpc-gekko/4.2.4/../../../../powerpc-gekko/lib\libc.a(lib_a-callocr.o)
 .comment       0x00000fe9       0x29 c:/utils/devkitpro/devkitppc/bin/../lib/gcc/powerpc-gekko/4.2.4/../../../../powerpc-gekko/lib\libc.a(lib_a-ctype_.o)
 .comment       0x00001012       0x29 c:/utils/devkitpro/devkitppc/bin/../lib/gcc/powerpc-gekko/4.2.4/../../../../powerpc-gekko/lib\libc.a(lib_a-errno.o)
 .comment       0x0000103b       0x29 c:/utils/devkitpro/devkitppc/bin/../lib/gcc/powerpc-gekko/4.2.4/../../../../powerpc-gekko/lib\libc.a(lib_a-exit.o)
 .comment       0x00001064       0x29 c:/utils/devkitpro/devkitppc/bin/../lib/gcc/powerpc-gekko/4.2.4/../../../../powerpc-gekko/lib\libc.a(lib_a-fprintf.o)
 .comment       0x0000108d       0x29 c:/utils/devkitpro/devkitppc/bin/../lib/gcc/powerpc-gekko/4.2.4/../../../../powerpc-gekko/lib\libc.a(lib_a-freer.o)
 .comment       0x000010b6       0x29 c:/utils/devkitpro/devkitppc/bin/../lib/gcc/powerpc-gekko/4.2.4/../../../../powerpc-gekko/lib\libc.a(lib_a-fwrite.o)
 .comment       0x000010df       0x29 c:/utils/devkitpro/devkitppc/bin/../lib/gcc/powerpc-gekko/4.2.4/../../../../powerpc-gekko/lib\libc.a(lib_a-impure.o)
 .comment       0x00001108       0x29 c:/utils/devkitpro/devkitppc/bin/../lib/gcc/powerpc-gekko/4.2.4/../../../../powerpc-gekko/lib\libc.a(lib_a-malign.o)
 .comment       0x00001131       0x29 c:/utils/devkitpro/devkitppc/bin/../lib/gcc/powerpc-gekko/4.2.4/../../../../powerpc-gekko/lib\libc.a(lib_a-malignr.o)
 .comment       0x0000115a       0x29 c:/utils/devkitpro/devkitppc/bin/../lib/gcc/powerpc-gekko/4.2.4/../../../../powerpc-gekko/lib\libc.a(lib_a-malloc.o)
 .comment       0x00001183       0x29 c:/utils/devkitpro/devkitppc/bin/../lib/gcc/powerpc-gekko/4.2.4/../../../../powerpc-gekko/lib\libc.a(lib_a-mallocr.o)
 .comment       0x000011ac       0x29 c:/utils/devkitpro/devkitppc/bin/../lib/gcc/powerpc-gekko/4.2.4/../../../../powerpc-gekko/lib\libc.a(lib_a-memcmp.o)
 .comment       0x000011d5       0x29 c:/utils/devkitpro/devkitppc/bin/../lib/gcc/powerpc-gekko/4.2.4/../../../../powerpc-gekko/lib\libc.a(lib_a-memcpy.o)
 .comment       0x000011fe       0x29 c:/utils/devkitpro/devkitppc/bin/../lib/gcc/powerpc-gekko/4.2.4/../../../../powerpc-gekko/lib\libc.a(lib_a-memmove.o)
 .comment       0x00001227       0x29 c:/utils/devkitpro/devkitppc/bin/../lib/gcc/powerpc-gekko/4.2.4/../../../../powerpc-gekko/lib\libc.a(lib_a-memset.o)
 .comment       0x00001250       0x29 c:/utils/devkitpro/devkitppc/bin/../lib/gcc/powerpc-gekko/4.2.4/../../../../powerpc-gekko/lib\libc.a(lib_a-printf.o)
 .comment       0x00001279       0x29 c:/utils/devkitpro/devkitppc/bin/../lib/gcc/powerpc-gekko/4.2.4/../../../../powerpc-gekko/lib\libc.a(lib_a-puts.o)
 .comment       0x000012a2       0x29 c:/utils/devkitpro/devkitppc/bin/../lib/gcc/powerpc-gekko/4.2.4/../../../../powerpc-gekko/lib\libc.a(lib_a-reent.o)
 .comment       0x000012cb       0x29 c:/utils/devkitpro/devkitppc/bin/../lib/gcc/powerpc-gekko/4.2.4/../../../../powerpc-gekko/lib\libc.a(lib_a-setvbuf.o)
 .comment       0x000012f4       0x29 c:/utils/devkitpro/devkitppc/bin/../lib/gcc/powerpc-gekko/4.2.4/../../../../powerpc-gekko/lib\libc.a(lib_a-snprintf.o)
 .comment       0x0000131d       0x29 c:/utils/devkitpro/devkitppc/bin/../lib/gcc/powerpc-gekko/4.2.4/../../../../powerpc-gekko/lib\libc.a(lib_a-sprintf.o)
 .comment       0x00001346       0x29 c:/utils/devkitpro/devkitppc/bin/../lib/gcc/powerpc-gekko/4.2.4/../../../../powerpc-gekko/lib\libc.a(lib_a-strchr.o)
 .comment       0x0000136f       0x29 c:/utils/devkitpro/devkitppc/bin/../lib/gcc/powerpc-gekko/4.2.4/../../../../powerpc-gekko/lib\libc.a(lib_a-strcmp.o)
 .comment       0x00001398       0x29 c:/utils/devkitpro/devkitppc/bin/../lib/gcc/powerpc-gekko/4.2.4/../../../../powerpc-gekko/lib\libc.a(lib_a-strcpy.o)
 .comment       0x000013c1       0x29 c:/utils/devkitpro/devkitppc/bin/../lib/gcc/powerpc-gekko/4.2.4/../../../../powerpc-gekko/lib\libc.a(lib_a-strlen.o)
 .comment       0x000013ea       0x29 c:/utils/devkitpro/devkitppc/bin/../lib/gcc/powerpc-gekko/4.2.4/../../../../powerpc-gekko/lib\libc.a(lib_a-strncmp.o)
 .comment       0x00001413       0x29 c:/utils/devkitpro/devkitppc/bin/../lib/gcc/powerpc-gekko/4.2.4/../../../../powerpc-gekko/lib\libc.a(lib_a-strncpy.o)
 .comment       0x0000143c       0x29 c:/utils/devkitpro/devkitppc/bin/../lib/gcc/powerpc-gekko/4.2.4/../../../../powerpc-gekko/lib\libc.a(lib_a-strnlen.o)
 .comment       0x00001465       0x29 c:/utils/devkitpro/devkitppc/bin/../lib/gcc/powerpc-gekko/4.2.4/../../../../powerpc-gekko/lib\libc.a(lib_a-strtoul.o)
 .comment       0x0000148e       0x29 c:/utils/devkitpro/devkitppc/bin/../lib/gcc/powerpc-gekko/4.2.4/../../../../powerpc-gekko/lib\libc.a(lib_a-strtoull_r.o)
 .comment       0x000014b7       0x29 c:/utils/devkitpro/devkitppc/bin/../lib/gcc/powerpc-gekko/4.2.4/../../../../powerpc-gekko/lib\libc.a(lib_a-svfprintf.o)
 .comment       0x000014e0       0x29 c:/utils/devkitpro/devkitppc/bin/../lib/gcc/powerpc-gekko/4.2.4/../../../../powerpc-gekko/lib\libc.a(lib_a-syswrite.o)
 .comment       0x00001509       0x29 c:/utils/devkitpro/devkitppc/bin/../lib/gcc/powerpc-gekko/4.2.4/../../../../powerpc-gekko/lib\libc.a(lib_a-vfprintf.o)
 .comment       0x00001532       0x29 c:/utils/devkitpro/devkitppc/bin/../lib/gcc/powerpc-gekko/4.2.4/../../../../powerpc-gekko/lib\libc.a(lib_a-wcrtomb.o)
 .comment       0x0000155b       0x29 c:/utils/devkitpro/devkitppc/bin/../lib/gcc/powerpc-gekko/4.2.4/../../../../powerpc-gekko/lib\libc.a(lib_a-wcsrtombs.o)
 .comment       0x00001584       0x29 c:/utils/devkitpro/devkitppc/bin/../lib/gcc/powerpc-gekko/4.2.4/../../../../powerpc-gekko/lib\libc.a(lib_a-wctomb_r.o)
 .comment       0x000015ad       0x29 c:/utils/devkitpro/devkitppc/bin/../lib/gcc/powerpc-gekko/4.2.4/../../../../powerpc-gekko/lib\libc.a(lib_a-wsetup.o)
 .comment       0x000015d6       0x29 c:/utils/devkitpro/devkitppc/bin/../lib/gcc/powerpc-gekko/4.2.4/../../../../powerpc-gekko/lib\libc.a(lib_a-__call_atexit.o)
 .comment       0x000015ff       0x29 c:/utils/devkitpro/devkitppc/bin/../lib/gcc/powerpc-gekko/4.2.4/../../../../powerpc-gekko/lib\libc.a(lib_a-dtoa.o)
 .comment       0x00001628       0x29 c:/utils/devkitpro/devkitppc/bin/../lib/gcc/powerpc-gekko/4.2.4/../../../../powerpc-gekko/lib\libc.a(lib_a-fflush.o)
 .comment       0x00001651       0x29 c:/utils/devkitpro/devkitppc/bin/../lib/gcc/powerpc-gekko/4.2.4/../../../../powerpc-gekko/lib\libc.a(lib_a-findfp.o)
 .comment       0x0000167a       0x29 c:/utils/devkitpro/devkitppc/bin/../lib/gcc/powerpc-gekko/4.2.4/../../../../powerpc-gekko/lib\libc.a(lib_a-fvwrite.o)
 .comment       0x000016a3       0x29 c:/utils/devkitpro/devkitppc/bin/../lib/gcc/powerpc-gekko/4.2.4/../../../../powerpc-gekko/lib\libc.a(lib_a-fwalk.o)
 .comment       0x000016cc       0x29 c:/utils/devkitpro/devkitppc/bin/../lib/gcc/powerpc-gekko/4.2.4/../../../../powerpc-gekko/lib\libc.a(lib_a-locale.o)
 .comment       0x000016f5       0x29 c:/utils/devkitpro/devkitppc/bin/../lib/gcc/powerpc-gekko/4.2.4/../../../../powerpc-gekko/lib\libc.a(lib_a-makebuf.o)
 .comment       0x0000171e       0x29 c:/utils/devkitpro/devkitppc/bin/../lib/gcc/powerpc-gekko/4.2.4/../../../../powerpc-gekko/lib\libc.a(lib_a-mbtowc_r.o)
 .comment       0x00001747       0x29 c:/utils/devkitpro/devkitppc/bin/../lib/gcc/powerpc-gekko/4.2.4/../../../../powerpc-gekko/lib\libc.a(lib_a-memchr.o)
 .comment       0x00001770       0x29 c:/utils/devkitpro/devkitppc/bin/../lib/gcc/powerpc-gekko/4.2.4/../../../../powerpc-gekko/lib\libc.a(lib_a-mprec.o)
 .comment       0x00001799       0x29 c:/utils/devkitpro/devkitppc/bin/../lib/gcc/powerpc-gekko/4.2.4/../../../../powerpc-gekko/lib\libc.a(lib_a-reallocr.o)
 .comment       0x000017c2       0x29 c:/utils/devkitpro/devkitppc/bin/../lib/gcc/powerpc-gekko/4.2.4/../../../../powerpc-gekko/lib\libc.a(lib_a-s_isinfd.o)
 .comment       0x000017eb       0x29 c:/utils/devkitpro/devkitppc/bin/../lib/gcc/powerpc-gekko/4.2.4/../../../../powerpc-gekko/lib\libc.a(lib_a-s_isnand.o)
 .comment       0x00001814       0x29 c:/utils/devkitpro/devkitppc/bin/../lib/gcc/powerpc-gekko/4.2.4/../../../../powerpc-gekko/lib\libc.a(lib_a-stdio.o)
 .comment       0x0000183d       0x29 c:/utils/devkitpro/devkitppc/bin/../lib/gcc/powerpc-gekko/4.2.4/../../../../powerpc-gekko/lib\libc.a(lib_a-fclose.o)
 .comment       0x00001866       0x29 c:/utils/devkitpro/devkitppc/bin/../lib/gcc/powerpc-gekko/4.2.4/../../../../powerpc-gekko/lib\libsysbase.a(close.o)
 .comment       0x0000188f       0x29 c:/utils/devkitpro/devkitppc/bin/../lib/gcc/powerpc-gekko/4.2.4/../../../../powerpc-gekko/lib\libsysbase.a(fstat.o)
 .comment       0x000018b8       0x29 c:/utils/devkitpro/devkitppc/bin/../lib/gcc/powerpc-gekko/4.2.4/../../../../powerpc-gekko/lib\libsysbase.a(isatty.o)
 .comment       0x000018e1       0x29 c:/utils/devkitpro/devkitppc/bin/../lib/gcc/powerpc-gekko/4.2.4/../../../../powerpc-gekko/lib\libsysbase.a(lseek.o)
 .comment       0x0000190a       0x29 c:/utils/devkitpro/devkitppc/bin/../lib/gcc/powerpc-gekko/4.2.4/../../../../powerpc-gekko/lib\libsysbase.a(read.o)
 .comment       0x00001933       0x29 c:/utils/devkitpro/devkitppc/bin/../lib/gcc/powerpc-gekko/4.2.4/../../../../powerpc-gekko/lib\libsysbase.a(sbrk.o)
 .comment       0x0000195c       0x29 c:/utils/devkitpro/devkitppc/bin/../lib/gcc/powerpc-gekko/4.2.4/../../../../powerpc-gekko/lib\libsysbase.a(write.o)
 .comment       0x00001985       0x29 c:/utils/devkitpro/devkitppc/bin/../lib/gcc/powerpc-gekko/4.2.4/../../../../powerpc-gekko/lib\libsysbase.a(flock.o)
 .comment       0x000019ae       0x29 c:/utils/devkitpro/devkitppc/bin/../lib/gcc/powerpc-gekko/4.2.4/../../../../powerpc-gekko/lib\libsysbase.a(handle_manager.o)
 .comment       0x000019d7       0x29 c:/utils/devkitpro/devkitppc/bin/../lib/gcc/powerpc-gekko/4.2.4\libgcc.a(_umoddi3.o)
 .comment       0x00001a00       0x29 c:/utils/devkitpro/devkitppc/bin/../lib/gcc/powerpc-gekko/4.2.4/crtend.o
 .comment       0x00001a29        0xe c:/utils/devkitpro/devkitppc/bin/../lib/gcc/powerpc-gekko/4.2.4/ecrtn.o

.debug
 *(.debug)

.line
 *(.line)

.debug_srcinfo
 *(.debug_srcinfo)

.debug_sfnames
 *(.debug_sfnames)

.debug_aranges  0x00000000       0x40
 *(.debug_aranges)
 .debug_aranges
                0x00000000       0x20 c:/utils/devkitpro/devkitppc/bin/../lib/gcc/powerpc-gekko/4.2.4/../../../../powerpc-gekko/lib/crtmain.o
 .debug_aranges
                0x00000020       0x20 test.o

.debug_pubnames
                0x00000000       0x48
 *(.debug_pubnames)
 .debug_pubnames
                0x00000000       0x20 c:/utils/devkitpro/devkitppc/bin/../lib/gcc/powerpc-gekko/4.2.4/../../../../powerpc-gekko/lib/crtmain.o
 .debug_pubnames
                0x00000020       0x28 test.o

.debug_info     0x00000000      0x3f1
 *(.debug_info)
 .debug_info    0x00000000       0xfc c:/utils/devkitpro/devkitppc/bin/../lib/gcc/powerpc-gekko/4.2.4/../../../../powerpc-gekko/lib/crtmain.o
 .debug_info    0x000000fc      0x2f5 test.o

.debug_abbrev   0x00000000      0x1a3
 *(.debug_abbrev)
 .debug_abbrev  0x00000000       0x7e c:/utils/devkitpro/devkitppc/bin/../lib/gcc/powerpc-gekko/4.2.4/../../../../powerpc-gekko/lib/crtmain.o
 .debug_abbrev  0x0000007e      0x125 test.o

.debug_line     0x00000000      0x17b
 *(.debug_line)
 .debug_line    0x00000000       0x7d c:/utils/devkitpro/devkitppc/bin/../lib/gcc/powerpc-gekko/4.2.4/../../../../powerpc-gekko/lib/crtmain.o
 .debug_line    0x0000007d       0xfe test.o

.debug_frame    0x00000000       0x68
 *(.debug_frame)
 .debug_frame   0x00000000       0x30 c:/utils/devkitpro/devkitppc/bin/../lib/gcc/powerpc-gekko/4.2.4/../../../../powerpc-gekko/lib/crtmain.o
 .debug_frame   0x00000030       0x38 test.o

.debug_str      0x00000000      0x26d
 *(.debug_str)
 .debug_str     0x00000000      0x155 c:/utils/devkitpro/devkitppc/bin/../lib/gcc/powerpc-gekko/4.2.4/../../../../powerpc-gekko/lib/crtmain.o
                                0x193 (size before relaxing)
 .debug_str     0x00000155      0x118 test.o
                                0x1d3 (size before relaxing)

.debug_loc      0x00000000       0x8e
 *(.debug_loc)
 .debug_loc     0x00000000       0x1f c:/utils/devkitpro/devkitppc/bin/../lib/gcc/powerpc-gekko/4.2.4/../../../../powerpc-gekko/lib/crtmain.o
 .debug_loc     0x0000001f       0x6f test.o

.debug_macinfo
 *(.debug_macinfo)

.debug_weaknames
 *(.debug_weaknames)

.debug_funcnames
 *(.debug_funcnames)

.debug_typenames
 *(.debug_typenames)

.debug_varnames
 *(.debug_varnames)
                0x00000000                __isIPL = 0x0
                0x800ce220                __stack_addr = ((((__bss_start + SIZEOF (.bss)) + 0x20000) + 0x7) & 0xfffffff8)
                0x800ae220                __stack_end = (__bss_start + SIZEOF (.bss))
                0x800d2220                __intrstack_addr = (__stack_addr + 0x4000)
                0x800ce220                __intrstack_end = __stack_addr
                0x800d2220                __Arena1Lo = ((__intrstack_addr + 0x1f) & 0xffffffe0)
                0x816ffff0                __Arena1Hi = 0x816ffff0
                0x90002000                __Arena2Lo = 0x90002000
                0x933e0000                __Arena2Hi = 0x933e0000
                0x81700000                __gxregs = ((__Arena1Hi + 0x1f) & 0xffffffe0)
                0x933e0000                __ipcbufferLo = 0x933e0000
                0x93400000                __ipcbufferHi = 0x93400000
                0x816ffff0                PROVIDE (__stack, 0x816ffff0)
                [0x00000000]                PROVIDE (__isIPL, __isIPL)
                [0x800ce220]                PROVIDE (__stack_addr, __stack_addr)
                [0x800ae220]                PROVIDE (__stack_end, __stack_end)
                [0x800d2220]                PROVIDE (__intrstack_addr, __intrstack_addr)
                [0x800ce220]                PROVIDE (__intrstack_end, __intrstack_end)
                [0x800d2220]                PROVIDE (__Arena1Lo, __Arena1Lo)
                [0x816ffff0]                PROVIDE (__Arena1Hi, __Arena1Hi)
                [0x90002000]                PROVIDE (__Arena2Lo, __Arena2Lo)
                [0x933e0000]                PROVIDE (__Arena2Hi, __Arena2Hi)
                [0x933e0000]                PROVIDE (__ipcbufferLo, __ipcbufferLo)
                [0x93400000]                PROVIDE (__ipcbufferHi, __ipcbufferHi)
                [0x81700000]                PROVIDE (__gxregs, __gxregs)
LOAD c:/utils/devkitpro/devkitppc/bin/../lib/gcc/powerpc-gekko/4.2.4/ecrti.o
LOAD c:/utils/devkitpro/devkitppc/bin/../lib/gcc/powerpc-gekko/4.2.4/crtbegin.o
LOAD c:/utils/devkitpro/devkitppc/bin/../lib/gcc/powerpc-gekko/4.2.4/../../../../powerpc-gekko/lib/crtmain.o
LOAD crate.tpl.o
LOAD test.o
LOAD c:/Utils/devkitPro/libogc/lib/wii\libwiiuse.a
LOAD c:/Utils/devkitPro/libogc/lib/wii\libbte.a
LOAD c:/Utils/devkitPro/libogc/lib/wii\libogc.a
LOAD c:/utils/devkitpro/devkitppc/bin/../lib/gcc/powerpc-gekko/4.2.4/../../../../powerpc-gekko/lib\libm.a
LOAD c:/Utils/devkitPro/libogc/lib/wii\libfat.a
LOAD c:/Utils/devkitPro/libogc/lib/wii\libz.a
LOAD c:/utils/devkitpro/devkitppc/bin/../lib/gcc/powerpc-gekko/4.2.4\libgcc.a
START GROUP
LOAD c:/utils/devkitpro/devkitppc/bin/../lib/gcc/powerpc-gekko/4.2.4/../../../../powerpc-gekko/lib\libsysbase.a
LOAD c:/utils/devkitpro/devkitppc/bin/../lib/gcc/powerpc-gekko/4.2.4/../../../../powerpc-gekko/lib\libc.a
END GROUP
LOAD c:/utils/devkitpro/devkitppc/bin/../lib/gcc/powerpc-gekko/4.2.4\libgcc.a
LOAD c:/utils/devkitpro/devkitppc/bin/../lib/gcc/powerpc-gekko/4.2.4/crtsavres.o
LOAD c:/utils/devkitpro/devkitppc/bin/../lib/gcc/powerpc-gekko/4.2.4/crtend.o
LOAD c:/utils/devkitpro/devkitppc/bin/../lib/gcc/powerpc-gekko/4.2.4/ecrtn.o
OUTPUT(d:/Data/Nintendo/test/test.elf elf32-powerpc)
