	.file	"gx_textures.cpp"
	.section	".text"
.Ltext0:
	.align 2
	.type	_ZL20stb__PrepareOptTablePhPKhi, @function
_ZL20stb__PrepareOptTablePhPKhi:
.LFB53:
	.file 1 "d:/Data/Nintendo/DoomGXSchratch/src/gx/stb_dxt.h"
	.loc 1 108 0
	.cfi_startproc
.LVL0:
	stwu 1,-16(1)
.LCFI0:
	.cfi_def_cfa_offset 16
.LBB132:
.LBB133:
.LBB134:
.LBB135:
	.loc 1 110 0
	li 9,0
.LBE135:
.LBE134:
.LBE133:
.LBE132:
	.loc 1 108 0
	stw 30,8(1)
	mr. 30,5
	.cfi_offset 30, -8
	stw 31,12(1)
.LBB162:
.LBB160:
.LBB158:
.LBB156:
.LBB136:
.LBB137:
	.loc 1 122 0
	lis 5,0x51eb
.LVL1:
.LBB138:
.LBB139:
	.loc 1 92 0
	lis 31,0x5555
	.cfi_offset 31, -4
.LBE139:
.LBE138:
	.loc 1 122 0
	ori 5,5,34079
.LBB146:
.LBB140:
	.loc 1 92 0
	ori 31,31,21846
.LVL2:
.L2:
.LBE140:
.LBE146:
.LBE137:
.LBE136:
	.loc 1 112 0 discriminator 1
	ble- 0,.L5
	.loc 1 112 0 is_stmt 0
	lbz 0,0(4)
	li 6,0
	li 12,256
	mr 10,0
.LVL3:
.L8:
.LBE156:
.LBE158:
.LBE160:
.LBE162:
	.loc 1 108 0 is_stmt 1 discriminator 1
	li 11,0
.LBB163:
.LBB161:
.LBB159:
.LBB157:
.LBB154:
.LBB152:
	.loc 1 122 0 discriminator 1
	mtctr 30
	b .L6
.LVL4:
.L4:
.LBE152:
.LBE154:
	.loc 1 110 0
	lbzx 0,4,6
	lbzx 10,4,11
.LVL5:
.L6:
.LBB155:
.LBB153:
	.loc 1 122 0
	subf 8,0,10
.LBB147:
.LBB141:
	.loc 1 92 0
	slwi 10,10,1
.LVL6:
.LBE141:
.LBE147:
	.loc 1 122 0
	srawi 7,8,31
.LBB148:
.LBB142:
	.loc 1 92 0
	add 0,0,10
.LVL7:
.LBE142:
.LBE148:
	.loc 1 122 0
	xor 8,7,8
.LBB149:
.LBB143:
	.loc 1 92 0
	mulhw 10,0,31
.LBE143:
.LBE149:
	.loc 1 122 0
	subf 8,7,8
.LBB150:
.LBB144:
	.loc 1 92 0
	srawi 0,0,31
.LBE144:
.LBE150:
	.loc 1 122 0
	mulli 8,8,3
.LBB151:
.LBB145:
	.loc 1 92 0
	subf 0,0,10
.LBE145:
.LBE151:
	.loc 1 116 0
	subf 0,9,0
	.loc 1 122 0
	srawi 7,8,31
	mulhw 8,8,5
	.loc 1 116 0
	srawi 10,0,31
	xor 0,10,0
	subf 0,10,0
.LVL8:
	.loc 1 122 0
	srawi 8,8,5
	subf 8,7,8
	add 8,8,0
.LVL9:
	.loc 1 124 0
	cmpw 7,8,12
	bge- 7,.L3
	.loc 1 126 0
	stb 11,0(3)
	.loc 1 127 0
	mr 12,8
.LVL10:
	stb 6,1(3)
.LVL11:
.L3:
.LBE153:
	.loc 1 113 0
	addi 11,11,1
.LVL12:
	bdnz .L4
.LBE155:
	.loc 1 112 0
	addi 6,6,1
.LVL13:
	cmpw 7,6,30
	beq- 7,.L5
	lbz 10,0(4)
	lbzx 0,4,6
	b .L8
.LVL14:
.L5:
.LBE157:
.LBE159:
	.loc 1 110 0
	cmpwi 7,9,255
	addi 3,3,2
	addi 9,9,1
.LVL15:
	bne+ 7,.L2
.LBE161:
.LBE163:
	.loc 1 133 0
	lwz 30,8(1)
.LVL16:
	lwz 31,12(1)
	addi 1,1,16
.LCFI1:
	.cfi_def_cfa_offset 0
	.cfi_restore 31
	.cfi_restore 30
	blr
	.cfi_endproc
.LFE53:
	.size	_ZL20stb__PrepareOptTablePhPKhi, .-_ZL20stb__PrepareOptTablePhPKhi
	.align 2
	.type	_ZL15stb__EvalColorsPhtt, @function
_ZL15stb__EvalColorsPhtt:
.LFB54:
	.loc 1 136 0
	.cfi_startproc
.LVL17:
	stwu 1,-24(1)
.LCFI2:
	.cfi_def_cfa_offset 24
.LBB164:
.LBB165:
	.loc 1 72 0
	lis 9,.LANCHOR0@ha
	la 9,.LANCHOR0@l(9)
	.loc 1 68 0
	srwi 0,4,11
.LBE165:
.LBE164:
	.loc 1 136 0
	stw 28,8(1)
.LBB173:
.LBB166:
	.loc 1 69 0
	rlwinm 11,4,27,26,31
.LBE166:
.LBE173:
	.loc 1 136 0
	stw 29,12(1)
.LBB174:
.LBB167:
	.loc 1 73 0
	add 11,9,11
.LBE167:
.LBE174:
	.loc 1 136 0
	stw 30,16(1)
.LBB175:
.LBB168:
	.loc 1 70 0
	rlwinm 4,4,0,27,31
.LVL18:
.LBE168:
.LBE175:
	.loc 1 136 0
	stw 31,20(1)
.LBB176:
.LBB169:
	.loc 1 75 0
	li 8,0
.LBE169:
.LBE176:
.LBB177:
.LBB178:
	.loc 1 68 0
	srwi 7,5,11
.LBE178:
.LBE177:
.LBB185:
.LBB170:
	.loc 1 72 0
	lbzx 0,9,0
.LVL19:
	stb 0,0(3)
.LBE170:
.LBE185:
.LBB186:
.LBB187:
.LBB188:
.LBB189:
	.loc 1 92 0
	slwi 28,0,1
	.cfi_offset 31, -4
	.cfi_offset 30, -8
	.cfi_offset 29, -12
	.cfi_offset 28, -16
.LBE189:
.LBE188:
.LBE187:
.LBE186:
.LBB218:
.LBB171:
	.loc 1 73 0
	lbz 10,32(11)
	stb 10,1(3)
.LBE171:
.LBE218:
.LBB219:
.LBB210:
.LBB194:
.LBB195:
	.loc 1 92 0
	slwi 29,10,1
.LBE195:
.LBE194:
.LBE210:
.LBE219:
.LBB220:
.LBB172:
	.loc 1 74 0
	lbzx 11,9,4
	.loc 1 75 0
	stb 8,3(3)
.LVL20:
	.loc 1 74 0
	stb 11,2(3)
.LBE172:
.LBE220:
.LBB221:
.LBB179:
	.loc 1 72 0
	lbzx 4,9,7
	.loc 1 69 0
	rlwinm 7,5,27,26,31
	.loc 1 73 0
	add 7,9,7
	.loc 1 70 0
	rlwinm 5,5,0,27,31
.LVL21:
	.loc 1 72 0
	stb 4,4(3)
.LBE179:
.LBE221:
.LBB222:
.LBB223:
.LBB224:
.LBB225:
	.loc 1 92 0
	slwi 30,4,1
	add 0,0,30
.LBE225:
.LBE224:
.LBE223:
.LBE222:
.LBB243:
.LBB211:
.LBB198:
.LBB190:
	add 4,4,28
.LBE190:
.LBE198:
.LBE211:
.LBE243:
.LBB244:
.LBB180:
	.loc 1 73 0
	lbz 6,32(7)
.LBE180:
.LBE244:
	.loc 1 141 0
	lwz 28,8(1)
.LBB245:
.LBB181:
	.loc 1 73 0
	stb 6,5(3)
.LBE181:
.LBE245:
.LBB246:
.LBB238:
.LBB227:
.LBB228:
	.loc 1 92 0
	slwi 31,6,1
	add 10,10,31
.LBE228:
.LBE227:
.LBE238:
.LBE246:
.LBB247:
.LBB212:
.LBB199:
.LBB196:
	add 6,6,29
.LBE196:
.LBE199:
.LBE212:
.LBE247:
.LBB248:
.LBB182:
	.loc 1 74 0
	lbzx 7,9,5
.LBE182:
.LBE248:
.LBB249:
.LBB213:
.LBB200:
.LBB201:
	.loc 1 92 0
	slwi 5,11,1
.LVL22:
.LBE201:
.LBE200:
.LBB204:
.LBB191:
	lis 9,0x5555
.LBE191:
.LBE204:
.LBE213:
.LBE249:
.LBB250:
.LBB183:
	.loc 1 75 0
	stb 8,7(3)
.LBE183:
.LBE250:
.LBB251:
.LBB239:
.LBB230:
.LBB231:
	.loc 1 92 0
	slwi 12,7,1
.LBE231:
.LBE230:
.LBE239:
.LBE251:
.LBB252:
.LBB214:
.LBB205:
.LBB192:
	ori 9,9,21846
.LBE192:
.LBE205:
.LBB206:
.LBB202:
	add 5,7,5
.LBE202:
.LBE206:
.LBE214:
.LBE252:
.LBB253:
.LBB240:
.LBB234:
.LBB232:
	add 11,11,12
.LBE232:
.LBE234:
.LBE240:
.LBE253:
.LBB254:
.LBB215:
.LBB207:
.LBB193:
	mulhw 4,4,9
.LVL23:
.LBE193:
.LBE207:
.LBE215:
.LBE254:
	.loc 1 141 0
	lwz 29,12(1)
	lwz 30,16(1)
	lwz 31,20(1)
.LBB255:
.LBB184:
	.loc 1 74 0
	stb 7,6(3)
.LBE184:
.LBE255:
	.loc 1 141 0
	addi 1,1,24
.LCFI3:
	.cfi_def_cfa_offset 0
	.cfi_restore 31
	.cfi_restore 30
	.cfi_restore 29
	.cfi_restore 28
.LBB256:
.LBB216:
.LBB208:
.LBB197:
	.loc 1 92 0
	mulhw 6,6,9
.LBE197:
.LBE208:
	.loc 1 99 0
	stb 4,8(3)
.LBB209:
.LBB203:
	.loc 1 92 0
	mulhw 8,5,9
.LBE203:
.LBE209:
	.loc 1 100 0
	stb 6,9(3)
.LVL24:
.LBE216:
.LBE256:
.LBB257:
.LBB241:
.LBB235:
.LBB226:
	.loc 1 92 0
	mulhw 0,0,9
.LBE226:
.LBE235:
.LBE241:
.LBE257:
.LBB258:
.LBB217:
	.loc 1 101 0
	stb 8,10(3)
.LVL25:
.LBE217:
.LBE258:
.LBB259:
.LBB242:
.LBB236:
.LBB229:
	.loc 1 92 0
	mulhw 10,10,9
.LBE229:
.LBE236:
	.loc 1 99 0
	stb 0,12(3)
.LVL26:
.LBB237:
.LBB233:
	.loc 1 92 0
	mulhw 9,11,9
.LBE233:
.LBE237:
	.loc 1 100 0
	stb 10,13(3)
.LVL27:
	.loc 1 101 0
	stb 9,14(3)
.LBE242:
.LBE259:
	.loc 1 141 0
	blr
	.cfi_endproc
.LFE54:
	.size	_ZL15stb__EvalColorsPhtt, .-_ZL15stb__EvalColorsPhtt
	.align 2
	.type	_ZL21stb__MatchColorsBlockPhS_i, @function
_ZL21stb__MatchColorsBlockPhS_i:
.LFB56:
	.loc 1 173 0
	.cfi_startproc
.LVL28:
	stwu 1,-160(1)
.LCFI4:
	.cfi_def_cfa_offset 160
	stw 23,124(1)
	stw 24,128(1)
	stw 25,132(1)
	stw 26,136(1)
	stw 27,140(1)
	stw 28,144(1)
	stw 29,148(1)
	stw 30,152(1)
	stw 31,156(1)
.LBB260:
	.loc 1 175 0
	lbz 7,0(4)
	lbz 8,4(4)
	.loc 1 177 0
	lbz 9,2(4)
	.loc 1 176 0
	lbz 10,1(4)
	.loc 1 175 0
	subf 8,8,7
.LVL29:
	.loc 1 176 0
	lbz 11,5(4)
	.loc 1 172 0
	li 7,16
	.loc 1 177 0
	lbz 0,6(4)
	.loc 1 172 0
	mtctr 7
	.loc 1 176 0
	subf 11,11,10
.LVL30:
	.loc 1 177 0
	subf 0,0,9
.LVL31:
	addi 9,1,52
.LVL32:
.L14:
	.loc 1 184 0 discriminator 2
	lbz 10,0(3)
	lbz 6,1(3)
	lbz 7,2(3)
	mullw 10,10,8
	addi 3,3,4
	mullw 6,6,11
	mullw 7,7,0
	add 10,10,6
	add 10,10,7
	stwu 10,4(9)
	.loc 1 183 0 discriminator 2
	bdnz .L14
	.cfi_offset 31, -4
	.cfi_offset 30, -8
	.cfi_offset 29, -12
	.cfi_offset 28, -16
	.cfi_offset 27, -20
	.cfi_offset 26, -24
	.cfi_offset 25, -28
	.cfi_offset 24, -32
	.cfi_offset 23, -36
	.loc 1 172 0
	li 10,4
	.loc 1 183 0
	addi 9,1,4
	.loc 1 172 0
	mtctr 10
.LVL33:
.L15:
	.loc 1 187 0 discriminator 2
	lbz 10,0(4)
	lbz 6,1(4)
	lbz 7,2(4)
	mullw 10,10,8
	addi 4,4,4
	mullw 6,6,11
	mullw 7,7,0
	add 10,10,6
	add 10,10,7
	stwu 10,4(9)
	.loc 1 186 0 discriminator 2
	bdnz .L15
.LBB261:
	.loc 1 201 0
	cmpwi 7,5,0
.LBE261:
	.loc 1 198 0
	lwz 29,16(1)
	.loc 1 197 0
	lwz 5,20(1)
.LVL34:
	lwz 28,12(1)
	.loc 1 199 0
	lwz 31,8(1)
	.loc 1 198 0
	add 8,5,29
.LVL35:
	.loc 1 197 0
	add 7,28,5
	.loc 1 198 0
	srawi 8,8,1
	.loc 1 199 0
	add 10,29,31
	.loc 1 197 0
	srawi 7,7,1
.LVL36:
	.loc 1 199 0
	srawi 10,10,1
.LVL37:
.LBB285:
	.loc 1 201 0
	bne- 7,.L16
	li 0,16
.LVL38:
	addi 11,1,120
.LVL39:
	mtctr 0
	li 3,0
.LVL40:
.L21:
.LBB262:
.LBB263:
	.loc 1 204 0
	lwzu 0,-4(11)
.LVL41:
	.loc 1 205 0
	slwi 3,3,2
.LVL42:
	.loc 1 208 0
	cmpw 6,7,0
	.loc 1 210 0
	cmpw 1,10,0
	.loc 1 207 0
	cmpw 7,8,0
	.loc 1 208 0
	crnot 26,25
	.loc 1 210 0
	mfcr 0
	rlwinm 0,0,6,1
	slwi 0,0,1
	.loc 1 208 0
	mfcr 9
	rlwinm 9,9,27,1
	neg 9,9
	rlwinm 9,9,0,30,30
	addi 9,9,1
	.loc 1 207 0
	ble- 7,.L17
	.loc 1 208 0
	or 3,9,3
.LVL43:
.LBE263:
	.loc 1 203 0
	bdnz .L21
.LVL44:
.L22:
.LBE262:
.LBE285:
.LBE260:
	.loc 1 266 0
	lwz 23,124(1)
	lwz 24,128(1)
	lwz 25,132(1)
	lwz 26,136(1)
	lwz 27,140(1)
	lwz 28,144(1)
	lwz 29,148(1)
	lwz 30,152(1)
	lwz 31,156(1)
	addi 1,1,160
	.cfi_remember_state
.LCFI5:
	.cfi_def_cfa_offset 0
	.cfi_restore 31
	.cfi_restore 30
	.cfi_restore 29
	.cfi_restore 28
	.cfi_restore 27
	.cfi_restore 26
	.cfi_restore 25
	.cfi_restore 24
	.cfi_restore 23
	blr
.LVL45:
.L17:
.LCFI6:
	.cfi_restore_state
.LBB287:
.LBB286:
.LBB265:
.LBB264:
	.loc 1 210 0
	or 3,0,3
.LVL46:
.LBE264:
	.loc 1 203 0
	bdnz .L21
	b .L22
.LVL47:
.L16:
.LBE265:
.LBB266:
	.loc 1 221 0
	li 0,0
.LVL48:
	li 6,0
	addi 11,1,56
.LVL49:
	stw 0,24(1)
	stw 0,28(1)
.LBB267:
.LBB268:
	.loc 1 227 0
	mulli 6,6,3
.LBE268:
.LBE267:
	.loc 1 221 0
	stw 0,32(1)
	.loc 1 217 0
	slwi 27,7,4
.LVL50:
	.loc 1 221 0
	stw 0,36(1)
.LBB278:
.LBB269:
	.loc 1 253 0
	li 7,4
.LBE269:
.LBE278:
	.loc 1 221 0
	stw 0,40(1)
.LBB279:
.LBB270:
	.loc 1 253 0
	mtctr 7
.LBE270:
.LBE279:
	.loc 1 221 0
	stw 0,44(1)
	.loc 1 218 0
	slwi 8,8,4
.LVL51:
	.loc 1 221 0
	stw 0,48(1)
	.loc 1 219 0
	slwi 25,10,4
.LVL52:
	.loc 1 221 0
	stw 0,52(1)
.LVL53:
.LBB280:
.LBB271:
	.loc 1 227 0
	mulli 0,0,5
	lwz 12,0(11)
.LBE271:
.LBE280:
	.loc 1 221 0
	li 4,0
.LBB281:
.LBB272:
	.loc 1 227 0
	add 0,6,0
.LBE272:
.LBE281:
	.loc 1 214 0
	addi 9,1,40
.LBB282:
.LBB273:
	.loc 1 227 0
	slwi 7,12,4
.LBE273:
.LBE282:
	.loc 1 221 0
	addi 10,1,24
.LBB283:
.LBB274:
	.loc 1 227 0
	add 0,7,0
.LVL54:
.LBE274:
.LBE283:
	.loc 1 221 0
	li 3,0
.LBB284:
.LBB275:
	.loc 1 228 0
	cmpw 7,8,0
	ble- 7,.L23
.LVL55:
.L46:
	.loc 1 229 0
	cmpw 7,27,0
	li 30,3
	mr 0,5
.LVL56:
	ble- 7,.L24
	mr 0,28
	li 30,1
.L24:
.LVL57:
	.loc 1 232 0
	subf 0,0,12
	.loc 1 235 0
	lwz 6,4(11)
	.loc 1 232 0
	stw 0,0(10)
.LVL58:
	.loc 1 235 0
	mulli 12,0,7
	lwz 26,8(9)
	lwz 7,4(9)
	mulli 26,26,3
	mulli 7,7,5
	add 12,12,26
	lwz 26,0(9)
	add 12,12,7
	slwi 7,6,4
	add 12,12,26
	add 12,7,12
.LVL59:
	.loc 1 236 0
	cmpw 7,8,12
	ble- 7,.L25
.L47:
	.loc 1 237 0
	cmpw 7,27,12
	mr 7,5
	li 26,12
	ble- 7,.L26
	mr 7,28
	li 26,4
.L26:
.LVL60:
	.loc 1 240 0
	subf 6,7,6
	.loc 1 243 0
	lwz 12,8(11)
.LVL61:
	.loc 1 240 0
	stw 6,4(10)
	.loc 1 243 0
	mulli 7,6,7
	.loc 1 241 0
	or 26,26,30
.LVL62:
	.loc 1 243 0
	lwz 23,12(9)
	lwz 24,8(9)
	mulli 23,23,3
	mulli 24,24,5
	add 7,7,23
	lwz 23,4(9)
	add 7,7,24
	slwi 24,12,4
	add 7,7,23
	add 7,24,7
.LVL63:
	.loc 1 244 0
	cmpw 7,8,7
	ble- 7,.L27
	.loc 1 245 0
	cmpw 7,27,7
	li 30,48
	mr 7,5
.LVL64:
	ble- 7,.L28
	mr 7,28
	li 30,16
.L28:
	.loc 1 248 0
	subf 12,7,12
	.loc 1 249 0
	or 26,26,30
.LVL65:
	.loc 1 248 0
	stw 12,8(10)
	.loc 1 251 0
	mulli 24,12,7
	lwz 12,12(11)
	lwz 7,12(9)
	lwz 23,8(9)
	mulli 7,7,5
	add 7,24,7
	slwi 24,12,4
	add 7,7,23
	add 7,24,7
.LVL66:
	.loc 1 252 0
	cmpw 7,8,7
	ble- 7,.L29
	.loc 1 253 0
	cmpw 7,27,7
	li 30,192
	mr 7,5
.LVL67:
	ble- 7,.L30
	mr 7,28
	li 30,64
.L30:
	.loc 1 257 0
	or 30,26,30
	.loc 1 256 0
	subf 12,7,12
	.loc 1 260 0
	slw 30,30,4
	.loc 1 256 0
	stw 12,12(10)
.LVL68:
	.loc 1 259 0
	addi 11,11,16
.LVL69:
	.loc 1 260 0
	or 3,3,30
.LVL70:
	addi 4,4,8
.LBE275:
	.loc 1 223 0
	bdz .L22
.LBB276:
	.loc 1 227 0
	lwz 12,0(11)
	mulli 6,6,3
	mulli 0,0,5
.LBE276:
	.loc 1 223 0
	mr 7,10
	mr 10,9
.LVL71:
	mr 9,7
.LVL72:
.LBB277:
	.loc 1 227 0
	add 0,6,0
	slwi 7,12,4
.LVL73:
	add 0,7,0
.LVL74:
	.loc 1 228 0
	cmpw 7,8,0
	bgt- 7,.L46
.LVL75:
.L23:
	.loc 1 231 0
	cmpw 7,25,0
	li 30,0
	mr 0,31
.LVL76:
	ble- 7,.L24
	mr 0,29
	.loc 1 235 0
	lwz 6,4(11)
	.loc 1 232 0
	subf 0,0,12
	.loc 1 231 0
	li 30,2
.LVL77:
	.loc 1 232 0
	stw 0,0(10)
.LVL78:
	.loc 1 235 0
	mulli 12,0,7
	lwz 26,8(9)
	lwz 7,4(9)
	mulli 26,26,3
	mulli 7,7,5
	add 12,12,26
	lwz 26,0(9)
	add 12,12,7
	slwi 7,6,4
	add 12,12,26
	add 12,7,12
.LVL79:
	.loc 1 236 0
	cmpw 7,8,12
	bgt- 7,.L47
.L25:
	.loc 1 239 0
	cmpw 7,25,12
	mr 7,31
	li 26,0
	ble- 7,.L26
	mr 7,29
	li 26,8
	b .L26
.LVL80:
.L29:
	.loc 1 255 0
	cmpw 7,25,7
	li 30,0
	mr 7,31
.LVL81:
	ble- 7,.L30
	mr 7,29
	li 30,128
	b .L30
.LVL82:
.L27:
	.loc 1 247 0
	cmpw 7,25,7
	li 30,0
	mr 7,31
.LVL83:
	ble- 7,.L28
	mr 7,29
	li 30,32
	b .L28
.LBE277:
.LBE284:
.LBE266:
.LBE286:
.LBE287:
	.cfi_endproc
.LFE56:
	.size	_ZL21stb__MatchColorsBlockPhS_i, .-_ZL21stb__MatchColorsBlockPhS_i
	.align 2
	.type	_ZL18qgx_GLWrapModeToGXi, @function
_ZL18qgx_GLWrapModeToGXi:
.LFB42:
	.file 2 "d:/Data/Nintendo/DoomGXSchratch/src/gx/gx_textures.cpp"
	.loc 2 120 0
	.cfi_startproc
.LVL84:
	mflr 0
	stwu 1,-8(1)
.LCFI7:
	.cfi_def_cfa_offset 8
	.cfi_register 65, 0
	mr 4,3
	stw 0,12(1)
	.loc 2 121 0
	xoris 0,3,0xffff
	.cfi_offset 65, 4
	cmpwi 7,0,-32467
	beq 7,.L52
	xoris 0,3,0xffff
	cmpwi 7,0,-32465
	beq 7,.L52
	cmpwi 7,3,10497
	.loc 2 123 0
	li 3,1
.LVL85:
	.loc 2 121 0
	beq- 7,.L51
	.loc 2 129 0
	lis 3,.LC0@ha
	la 3,.LC0@l(3)
	crxor 6,6,6
	bl _Z9Sys_ErrorPKcz
.LVL86:
	.loc 2 131 0
	li 3,0
.L51:
	.loc 2 132 0
	lwz 0,12(1)
	addi 1,1,8
	.cfi_remember_state
.LCFI8:
	.cfi_def_cfa_offset 0
	mtlr 0
	blr
.LVL87:
.L52:
.LCFI9:
	.cfi_restore_state
	lwz 0,12(1)
	.loc 2 125 0
	li 3,0
.LVL88:
	.loc 2 132 0
	addi 1,1,8
.LCFI10:
	.cfi_def_cfa_offset 0
	mtlr 0
	blr
	.cfi_endproc
.LFE42:
	.size	_ZL18qgx_GLWrapModeToGXi, .-_ZL18qgx_GLWrapModeToGXi
	.align 2
	.type	_ZL16qgx_GLFilterToGXi, @function
_ZL16qgx_GLFilterToGXi:
.LFB41:
	.loc 2 100 0
	.cfi_startproc
.LVL89:
	.loc 2 101 0
	cmpwi 7,3,9984
	.loc 2 100 0
	mflr 0
	stwu 1,-16(1)
.LCFI11:
	.cfi_def_cfa_offset 16
	.cfi_register 65, 0
	stw 31,12(1)
	mr 31,3
	.cfi_offset 31, -4
	stw 0,20(1)
	.loc 2 101 0
	beq- 7,.L57
	.cfi_offset 65, 4
	ble- 7,.L63
	cmpwi 7,3,9986
	beq- 7,.L59
	bge- 7,.L64
	.loc 2 113 0
	lis 3,.LC3@ha
.LVL90:
	la 3,.LC3@l(3)
	crxor 6,6,6
	bl _Z9Sys_ErrorPKcz
.L54:
	.loc 2 115 0
	lis 3,.LC4@ha
	mr 4,31
	la 3,.LC4@l(3)
	crxor 6,6,6
	bl _Z9Sys_ErrorPKcz
	.loc 2 117 0
	li 3,0
.L55:
	.loc 2 118 0
	lwz 0,20(1)
	lwz 31,12(1)
.LVL91:
	mtlr 0
	addi 1,1,16
	.cfi_remember_state
.LCFI12:
	.cfi_def_cfa_offset 0
	.cfi_restore 31
	blr
.LVL92:
.L63:
.LCFI13:
	.cfi_restore_state
	.loc 2 101 0
	cmpwi 7,3,9728
	.loc 2 105 0
	li 3,0
.LVL93:
	.loc 2 101 0
	beq- 7,.L55
	cmpwi 7,31,9729
	.loc 2 103 0
	li 3,1
	.loc 2 101 0
	bne+ 7,.L54
	b .L55
.L57:
	.loc 2 109 0
	lis 3,.LC1@ha
	la 3,.LC1@l(3)
	crxor 6,6,6
	bl _Z9Sys_ErrorPKcz
.L59:
	.loc 2 111 0
	lis 3,.LC2@ha
	la 3,.LC2@l(3)
	crxor 6,6,6
	bl _Z9Sys_ErrorPKcz
	.loc 2 113 0
	lis 3,.LC3@ha
	la 3,.LC3@l(3)
	crxor 6,6,6
	bl _Z9Sys_ErrorPKcz
	b .L54
.L64:
	.loc 2 101 0
	cmpwi 7,3,9987
	.loc 2 107 0
	li 3,5
	.loc 2 101 0
	bne+ 7,.L54
	b .L55
	.cfi_endproc
.LFE41:
	.size	_ZL16qgx_GLFilterToGXi, .-_ZL16qgx_GLFilterToGXi
	.align 2
	.type	_ZL13qgx_ReadColorP9_gx_coloriiiiPh, @function
_ZL13qgx_ReadColorP9_gx_coloriiiiPh:
.LFB44:
	.loc 2 159 0
	.cfi_startproc
.LVL94:
.LBB288:
	.loc 2 163 0
	cmpwi 7,7,6408
.LBE288:
	.loc 2 159 0
	mflr 0
	stwu 1,-8(1)
.LCFI14:
	.cfi_def_cfa_offset 8
	.cfi_register 65, 0
	stw 0,12(1)
.LBB289:
	.loc 2 163 0
	beq- 7,.L68
	.cfi_offset 65, 4
.LVL95:
	.loc 2 183 0
	lis 3,.LC5@ha
.LVL96:
	mr 4,7
.LVL97:
	la 3,.LC5@l(3)
	crxor 6,6,6
	bl _Z9Sys_ErrorPKcz
.LVL98:
.LBE289:
	.loc 2 185 0
	lwz 0,12(1)
	addi 1,1,8
	.cfi_remember_state
.LCFI15:
	.cfi_def_cfa_offset 0
	mtlr 0
	blr
.LVL99:
.L68:
.LCFI16:
	.cfi_restore_state
.LBB290:
	.loc 2 170 0
	mullw 5,5,6
.LVL100:
	add 4,5,4
.LVL101:
	slwi 4,4,2
	.loc 2 173 0
	lbzx 0,8,4
	.loc 2 170 0
	add 8,8,4
.LVL102:
	.loc 2 173 0
	stb 0,0(3)
	.loc 2 174 0
	lbz 0,1(8)
	stb 0,1(3)
	.loc 2 175 0
	lbz 0,2(8)
	stb 0,2(3)
	.loc 2 176 0
	lbz 0,3(8)
	stb 0,3(3)
.LBE290:
	.loc 2 185 0
	lwz 0,12(1)
	addi 1,1,8
.LCFI17:
	.cfi_def_cfa_offset 0
	mtlr 0
	blr
	.cfi_endproc
.LFE44:
	.size	_ZL13qgx_ReadColorP9_gx_coloriiiiPh, .-_ZL13qgx_ReadColorP9_gx_coloriiiiPh
	.align 2
	.globl _Z16qgx_InitTexturesv
	.type	_Z16qgx_InitTexturesv, @function
_Z16qgx_InitTexturesv:
.LFB38:
	.loc 2 53 0
	.cfi_startproc
	mflr 0
	stwu 1,-24(1)
.LCFI18:
	.cfi_def_cfa_offset 24
	.cfi_register 65, 0
	stw 31,20(1)
	.loc 2 54 0
	lis 31,.LANCHOR0@ha
	.cfi_offset 31, -4
	.loc 2 53 0
	stw 0,28(1)
	.loc 2 54 0
	la 31,.LANCHOR0@l(31)
	.loc 2 53 0
	stw 29,12(1)
	stw 30,16(1)
	.loc 2 54 0
	lwz 30,96(31)
	.cfi_offset 30, -8
	.cfi_offset 29, -12
	.cfi_offset 65, 4
	cmpwi 7,30,0
	beq- 7,.L71
	.loc 2 67 0
	lwz 0,28(1)
	lwz 29,12(1)
	mtlr 0
	lwz 30,16(1)
	lwz 31,20(1)
	addi 1,1,24
	.cfi_remember_state
.LCFI19:
	.cfi_def_cfa_offset 0
	.cfi_restore 31
	.cfi_restore 30
	.cfi_restore 29
	blr
.L71:
.LCFI20:
	.cfi_restore_state
	.loc 2 56 0
	lis 3,.LC6@ha
	la 3,.LC6@l(3)
	crxor 6,6,6
	bl _Z10Sys_PrintfPKcz
	.loc 2 57 0
	li 4,26624
	li 3,32
	bl memalign
	.loc 2 58 0
	li 4,0
	.loc 2 57 0
	stw 3,96(31)
	.loc 2 58 0
	li 5,26624
	.loc 2 57 0
	mr 29,3
	.loc 2 58 0
	bl memset
	.loc 2 59 0
	lis 3,.LC7@ha
	mr 4,29
	la 3,.LC7@l(3)
	li 5,26624
	li 6,52
	crxor 6,6,6
	bl _Z10Sys_PrintfPKcz
	.loc 2 60 0
	li 0,1
	stw 0,100(31)
	.loc 2 61 0
	stw 30,104(31)
	.loc 2 62 0
	stw 30,108(31)
	.loc 2 67 0
	lwz 0,28(1)
	lwz 29,12(1)
	mtlr 0
	lwz 30,16(1)
	lwz 31,20(1)
	addi 1,1,24
	.cfi_restore 29
	.cfi_restore 30
	.cfi_restore 31
.LCFI21:
	.cfi_def_cfa_offset 0
	blr
	.cfi_endproc
.LFE38:
	.size	_Z16qgx_InitTexturesv, .-_Z16qgx_InitTexturesv
	.align 2
	.globl _Z22stb_compress_dxt_blockPhPKhii
	.type	_Z22stb_compress_dxt_blockPhPKhii, @function
_Z22stb_compress_dxt_blockPhPKhii:
.LFB63:
	.loc 1 615 0
	.cfi_startproc
.LVL103:
	stwu 1,-400(1)
.LCFI22:
	.cfi_def_cfa_offset 400
	mflr 0
	mfcr 12
	stw 27,380(1)
.LBB369:
	.loc 1 617 0
	lis 27,.LANCHOR1@ha
	.cfi_offset 27, -20
	.cfi_register 70, 12
	.cfi_register 65, 0
.LBE369:
	.loc 1 615 0
	stw 0,404(1)
.LBB620:
	.loc 1 617 0
	lwz 0,.LANCHOR1@l(27)
	.cfi_offset 65, 4
.LBE620:
	.loc 1 615 0
	stw 26,376(1)
	mr 26,5
	.cfi_offset 26, -24
.LBB621:
	.loc 1 617 0
	cmpwi 7,0,0
.LBE621:
	.loc 1 615 0
	stw 30,392(1)
	stw 31,396(1)
	mr 30,3
	.cfi_offset 31, -4
	.cfi_offset 30, -8
	stw 14,328(1)
	mr 31,4
	stw 15,332(1)
	stw 16,336(1)
	stw 17,340(1)
	stw 18,344(1)
	stw 19,348(1)
	stw 20,352(1)
	stw 21,356(1)
	stw 22,360(1)
	stw 23,364(1)
	stw 24,368(1)
	stw 25,372(1)
	stw 28,384(1)
	stw 29,388(1)
	stw 12,324(1)
.LBB622:
	.loc 1 617 0
	bne- 7,.L170
	.cfi_offset 70, -76
	.cfi_offset 29, -12
	.cfi_offset 28, -16
	.cfi_offset 25, -28
	.cfi_offset 24, -32
	.cfi_offset 23, -36
	.cfi_offset 22, -40
	.cfi_offset 21, -44
	.cfi_offset 20, -48
	.cfi_offset 19, -52
	.cfi_offset 18, -56
	.cfi_offset 17, -60
	.cfi_offset 16, -64
	.cfi_offset 15, -68
	.cfi_offset 14, -72
.LVL104:
.L73:
	.loc 1 622 0
	cmpwi 7,26,0
	bne- 7,.L171
.LVL105:
.L79:
.LBB370:
.LBB371:
	.loc 1 473 0
	andi. 8,6,2
	.loc 1 476 0
	li 10,15
	.loc 1 473 0
	lwz 11,0(31)
	.loc 1 476 0
	mtctr 10
	.loc 1 473 0
	mfcr 20
	rlwinm 20,20,3,1
	mr 9,31
	subfic 20,20,2
.LVL106:
.L90:
	.loc 1 477 0
	lwzu 0,4(9)
	cmpw 7,0,11
	bne- 7,.L89
	.loc 1 476 0
	bdnz .L90
.LBB372:
	.loc 1 481 0
	lbz 10,0(31)
.LVL107:
	.loc 1 483 0
	lis 9,.LANCHOR0@ha
	.loc 1 481 0
	lbz 11,1(31)
.LVL108:
	.loc 1 483 0
	la 0,.LANCHOR0@l(9)
	slwi 10,10,1
.LVL109:
	.loc 1 481 0
	lbz 9,2(31)
.LVL110:
	.loc 1 483 0
	slwi 11,11,1
.LVL111:
	add 10,0,10
	add 11,0,11
	lbz 15,656(10)
	lbz 8,1168(11)
	slwi 9,9,1
.LVL112:
	.loc 1 484 0
	lbz 17,657(10)
	.loc 1 483 0
	add 9,0,9
	.loc 1 484 0
	lbz 10,1169(11)
	.loc 1 483 0
	slwi 15,15,11
	slwi 8,8,5
	lbz 11,656(9)
	.loc 1 484 0
	slwi 17,17,11
	slwi 10,10,5
	lbz 0,657(9)
	.loc 1 483 0
	or 15,15,8
	.loc 1 484 0
	or 17,17,10
	.loc 1 483 0
	or 15,15,11
	.loc 1 484 0
	or 17,17,0
	.loc 1 482 0
	lis 28,0xaaaa
	.loc 1 483 0
	rlwinm 15,15,0,0xffff
.LVL113:
	.loc 1 484 0
	rlwinm 17,17,0,0xffff
.LVL114:
	.loc 1 482 0
	ori 28,28,43690
.LVL115:
.L129:
.LBE372:
.LBB373:
	.loc 1 518 0
	cmplw 7,17,15
	ble- 7,.L130
.LVL116:
.LBB374:
	.loc 1 523 0
	mr 0,15
	xoris 28,28,0x5555
.LVL117:
	mr 15,17
.LVL118:
	xori 28,28,21845
.LVL119:
	mr 17,0
.LVL120:
.L130:
	.loc 1 527 0
	li 8,16
	.loc 1 526 0
	li 0,0
	.loc 1 527 0
	mtctr 8
	li 9,0
.LVL121:
.L132:
.LBE374:
.LBE373:
.LBB375:
	.loc 1 528 0
	srw 11,28,9
	.loc 1 614 0
	subfic 10,9,30
	.loc 1 528 0
	rlwinm 11,11,0,30,31
	.loc 1 527 0
	addi 9,9,2
	.loc 1 528 0
	slw 11,11,10
	or 0,0,11
.LVL122:
	.loc 1 527 0
	bdnz .L132
.LVL123:
.LBE375:
	.loc 1 531 0
	srawi 7,15,8
	.loc 1 533 0
	srawi 8,17,8
	.loc 1 535 0
	srwi 10,0,24
	.loc 1 536 0
	srwi 11,0,16
	.loc 1 537 0
	srwi 9,0,8
.LVL124:
	.loc 1 531 0
	stb 7,0(30)
	.loc 1 532 0
	stb 15,1(30)
	.loc 1 533 0
	stb 8,2(30)
	.loc 1 534 0
	stb 17,3(30)
	.loc 1 535 0
	stb 10,4(30)
	.loc 1 536 0
	stb 11,5(30)
	.loc 1 537 0
	stb 9,6(30)
	.loc 1 538 0
	stb 0,7(30)
.LBE371:
.LBE370:
.LBE622:
	.loc 1 628 0
	lwz 0,404(1)
.LVL125:
	lwz 12,324(1)
	mtlr 0
	lwz 14,328(1)
	lwz 15,332(1)
.LVL126:
	mtcrf 8,12
	lwz 16,336(1)
	lwz 17,340(1)
.LVL127:
	lwz 18,344(1)
	lwz 19,348(1)
	lwz 20,352(1)
.LVL128:
	lwz 21,356(1)
	lwz 22,360(1)
	lwz 23,364(1)
	lwz 24,368(1)
	lwz 25,372(1)
	lwz 26,376(1)
	lwz 27,380(1)
	lwz 28,384(1)
	lwz 29,388(1)
	lwz 30,392(1)
.LVL129:
	lwz 31,396(1)
.LVL130:
	addi 1,1,400
	.cfi_remember_state
.LCFI23:
	.cfi_def_cfa_offset 0
	.cfi_restore 70
	.cfi_restore 31
	.cfi_restore 30
	.cfi_restore 29
	.cfi_restore 28
	.cfi_restore 27
	.cfi_restore 26
	.cfi_restore 25
	.cfi_restore 24
	.cfi_restore 23
	.cfi_restore 22
	.cfi_restore 21
	.cfi_restore 20
	.cfi_restore 19
	.cfi_restore 18
	.cfi_restore 17
	.cfi_restore 16
	.cfi_restore 15
	.cfi_restore 14
	blr
.LVL131:
.L89:
.LCFI24:
	.cfi_restore_state
.LBB623:
.LBB580:
.LBB577:
.LBB376:
	.loc 1 487 0
	rlwinm 11,6,0,31,31
	mr 25,31
	cmpwi 4,11,0
	addi 24,1,84
	stw 11,308(1)
	bne- 4,.L172
.LVL132:
.L93:
.LBB377:
.LBB378:
.LBB379:
	.loc 1 151 0
	mr 11,25
.LBE379:
.LBE378:
.LBE377:
	.loc 1 487 0
	mr 6,25
	li 5,0
	addi 27,1,32
	addi 3,1,20
	addi 4,1,8
.LVL133:
.L99:
.LBB384:
.LBB385:
.LBB386:
.LBB387:
	.loc 1 288 0
	lbz 7,0(6)
.LVL134:
	.loc 1 289 0
	li 0,15
	li 9,4
	mtctr 0
	.loc 1 288 0
	mr 8,7
	mr 10,7
	b .L98
.LVL135:
.L174:
	.loc 1 293 0
	bge- 6,.L97
	mr 7,0
.LVL136:
.L97:
	.loc 1 289 0
	addi 9,9,4
.LVL137:
	bdz .L173
.LVL138:
.L98:
	.loc 1 291 0
	lbzx 0,6,9
	.loc 1 292 0
	cmpw 7,8,0
	.loc 1 293 0
	cmpw 6,7,0
	.loc 1 291 0
	add 10,10,0
.LVL139:
	.loc 1 292 0
	ble- 7,.L174
	mr 8,0
.LVL140:
	.loc 1 289 0
	addi 9,9,4
.LVL141:
	bdnz .L98
.LVL142:
.L173:
.LBE387:
	.loc 1 283 0
	cmpwi 7,5,8
.LBB388:
	.loc 1 296 0
	addi 10,10,8
.LVL143:
	srawi 10,10,4
.LVL144:
	.loc 1 297 0
	stwx 8,3,5
	.loc 1 296 0
	stwx 10,27,5
	.loc 1 298 0
	addi 6,6,1
.LVL145:
	stwx 7,4,5
.LBE388:
	.loc 1 283 0
	addi 5,5,4
	bne+ 7,.L99
.LVL146:
.LBB389:
	.loc 1 614 0
	li 8,16
.LVL147:
.LBE389:
	.loc 1 283 0
	lwz 19,32(1)
	lwz 21,36(1)
.LBB390:
	.loc 1 614 0
	mtctr 8
.LBE390:
	.loc 1 283 0
	lwz 22,40(1)
	.loc 1 614 0
	addi 9,25,1
.LBB391:
	li 6,0
.LVL148:
	li 5,0
.LVL149:
	li 4,0
	li 3,0
	li 27,0
	li 7,0
.LVL150:
.L100:
.LBE391:
.LBE386:
.LBB392:
.LBB393:
	.loc 1 307 0
	lbz 8,-1(9)
	.loc 1 308 0
	lbz 10,0(9)
	.loc 1 307 0
	subf 8,19,8
.LVL151:
	.loc 1 309 0
	lbz 0,1(9)
	.loc 1 308 0
	subf 10,21,10
.LVL152:
	.loc 1 311 0
	mullw 23,8,8
	.loc 1 309 0
	subf 0,22,0
.LVL153:
	.loc 1 316 0
	addi 9,9,4
	.loc 1 312 0
	mullw 26,8,10
	.loc 1 311 0
	add 7,7,23
	.loc 1 313 0
	mullw 8,8,0
.LVL154:
	.loc 1 312 0
	add 27,27,26
	.loc 1 314 0
	mullw 26,10,10
	.loc 1 313 0
	add 3,3,8
	.loc 1 315 0
	mullw 10,10,0
.LVL155:
	.loc 1 314 0
	add 4,4,26
	.loc 1 316 0
	mullw 0,0,0
.LVL156:
	.loc 1 315 0
	add 5,5,10
	.loc 1 316 0
	add 6,6,0
.LBE393:
	.loc 1 305 0
	bdnz .L100
	lis 26,.LC9@ha
.LBE392:
	.loc 1 321 0
	lis 9,.LC10@ha
	la 26,.LC9@l(26)
	li 10,6
	lfs 13,.LC10@l(9)
	lis 8,0x4330
.LBB394:
	.loc 1 305 0
	stw 7,60(1)
	li 9,0
	stw 27,64(1)
.LBE394:
	.loc 1 321 0
	mtctr 10
.LBB395:
	.loc 1 305 0
	stw 3,68(1)
	stw 4,72(1)
	stw 5,76(1)
	stw 6,80(1)
.LBE395:
	.loc 1 321 0
	lfs 11,0(26)
	b .L102
.L175:
	.loc 1 320 0
	addi 10,1,60
	lwzx 7,9,10
.L102:
	.loc 1 321 0
	xoris 0,7,0x8000
	stw 8,184(1)
	stw 0,188(1)
	lis 0,0x4330
	lfd 0,184(1)
	fsub 0,0,11
	frsp 0,0
	fdivs 0,0,13
	stfsx 0,24,9
	addi 9,9,4
	.loc 1 320 0
	bdnz .L175
	.loc 1 323 0
	lwz 9,20(1)
	lwz 8,8(1)
	.loc 1 324 0
	lwz 10,12(1)
	.loc 1 323 0
	subf 8,9,8
	.loc 1 324 0
	lwz 9,24(1)
	.loc 1 325 0
	lwz 7,16(1)
	.loc 1 323 0
	xoris 8,8,0x8000
	.loc 1 324 0
	subf 10,9,10
	.loc 1 325 0
	lwz 9,28(1)
	.loc 1 324 0
	xoris 10,10,0x8000
	.loc 1 323 0
	stw 0,192(1)
	.loc 1 325 0
	subf 9,9,7
	.loc 1 324 0
	stw 0,200(1)
	.loc 1 325 0
	xoris 9,9,0x8000
	stw 0,208(1)
	.loc 1 323 0
	stw 8,196(1)
	.loc 1 325 0
	li 0,4
	.loc 1 324 0
	stw 10,204(1)
	.loc 1 325 0
	mtctr 0
	stw 9,212(1)
	.loc 1 323 0
	lfd 12,192(1)
	.loc 1 324 0
	lfd 13,200(1)
	.loc 1 325 0
	lfd 0,208(1)
	.loc 1 323 0
	fsub 12,12,11
	.loc 1 324 0
	fsub 13,13,11
	.loc 1 325 0
	lfs 3,84(1)
	fsub 0,0,11
	lfs 9,88(1)
	.loc 1 323 0
	frsp 12,12
.LVL157:
	.loc 1 325 0
	lfs 10,92(1)
	.loc 1 324 0
	frsp 13,13
.LVL158:
	.loc 1 325 0
	lfs 4,96(1)
	frsp 0,0
.LVL159:
	lfs 11,100(1)
	lfs 5,104(1)
.LVL160:
.L103:
.LBB396:
.LBB397:
	.loc 1 329 0
	fmuls 7,13,9
	.loc 1 331 0
	fmuls 8,13,11
	.loc 1 330 0
	fmuls 6,13,4
.LBE397:
.LBE396:
	.loc 1 329 0
	fmadds 7,12,3,7
	.loc 1 331 0
	fmadds 8,12,10,8
	.loc 1 330 0
	fmadds 13,12,9,6
.LVL161:
	.loc 1 329 0
	fmadds 12,0,10,7
.LVL162:
	.loc 1 330 0
	fmadds 13,0,11,13
.LVL163:
	.loc 1 331 0
	fmadds 0,0,5,8
.LVL164:
.LBB398:
	.loc 1 327 0
	bdnz .L103
.LBE398:
	.loc 1 338 0
	fabs 11,12
	.loc 1 339 0
	fabs 10,13
	.loc 1 338 0
	fmr 9,11
.LVL165:
	.loc 1 339 0
	fcmpu 7,9,10
	blt- 7,.L104
	.loc 1 338 0
	fmr 10,11
.L104:
.LVL166:
	.loc 1 340 0
	fabs 11,0
	fcmpu 7,11,10
	bgt- 7,.L105
	fmr 11,10
.L105:
.LVL167:
	.loc 1 342 0
	lis 9,.LC12@ha
	lfs 10,.LC12@l(9)
	fcmpu 7,11,10
	blt- 7,.L145
	.loc 1 347 0
	lis 9,.LC14@ha
	.loc 1 348 0
	addi 7,1,296
	.loc 1 347 0
	lfs 10,.LC14@l(9)
	.loc 1 349 0
	addi 8,1,300
	.loc 1 350 0
	addi 9,1,304
	.loc 1 347 0
	fdiv 11,10,11
.LVL168:
	.loc 1 348 0
	fmul 12,11,12
.LVL169:
	.loc 1 349 0
	fmul 13,11,13
.LVL170:
	.loc 1 350 0
	fmul 0,11,0
.LVL171:
	.loc 1 348 0
	fctiwz 12,12
	.loc 1 349 0
	fctiwz 13,13
	.loc 1 350 0
	fctiwz 0,0
	.loc 1 348 0
	stfiwx 12,0,7
	.loc 1 349 0
	stfiwx 13,0,8
	.loc 1 350 0
	stfiwx 0,0,9
	.loc 1 348 0
	lwz 6,296(1)
.LVL172:
	.loc 1 349 0
	lwz 5,300(1)
.LVL173:
	.loc 1 350 0
	lwz 4,304(1)
.LVL174:
.L106:
	.loc 1 271 0
	lis 7,0x8000
	lis 8,0x7fff
	.loc 1 614 0
	addi 25,25,64
.LVL175:
	.loc 1 271 0
	ori 7,7,1
	ori 8,8,65535
.LVL176:
.L109:
.LBB399:
.LBB400:
	.loc 1 356 0
	lbz 0,0(11)
	lbz 10,1(11)
	lbz 9,2(11)
	mullw 0,0,6
	mullw 10,10,5
	mullw 9,9,4
	add 0,0,10
	add 0,0,9
.LVL177:
	.loc 1 358 0
	cmpw 6,8,0
	.loc 1 363 0
	cmpw 7,7,0
	.loc 1 358 0
	ble- 6,.L107
	mr 28,11
	mr 8,0
.L107:
.LVL178:
	.loc 1 363 0
	bge- 7,.L108
	mr 29,11
	mr 7,0
.L108:
.LVL179:
	addi 11,11,4
.LBE400:
	.loc 1 354 0
	cmpw 7,11,25
	bne+ 7,.L109
.LVL180:
.LBE399:
	.loc 1 370 0
	lbz 10,0(28)
	lbz 11,1(28)
	.loc 1 369 0
	lbz 7,0(29)
.LVL181:
.LBB401:
.LBB402:
.LBB403:
.LBB404:
	.loc 1 62 0
	mulli 10,10,31
.LBE404:
.LBE403:
.LBE402:
.LBE401:
	.loc 1 369 0
	lbz 8,1(29)
.LVL182:
.LBB440:
.LBB429:
.LBB408:
.LBB409:
	.loc 1 62 0
	mulli 11,11,63
.LBE409:
.LBE408:
.LBE429:
.LBE440:
	.loc 1 370 0
	lbz 6,2(28)
.LVL183:
.LBB441:
.LBB442:
.LBB443:
.LBB444:
	.loc 1 62 0
	mulli 7,7,31
.LBE444:
.LBE443:
.LBE442:
.LBE441:
	.loc 1 369 0
	lbz 9,2(29)
.LBB479:
.LBB469:
.LBB448:
.LBB449:
	.loc 1 62 0
	mulli 8,8,63
.LBE449:
.LBE448:
.LBE469:
.LBE479:
.LBB480:
.LBB430:
.LBB413:
.LBB414:
	mulli 6,6,31
.LBE414:
.LBE413:
.LBE430:
.LBE480:
.LBB481:
.LBB470:
.LBB453:
.LBB445:
	addi 7,7,128
.LVL184:
.LBE445:
.LBE453:
.LBB454:
.LBB455:
	mulli 9,9,31
.LBE455:
.LBE454:
.LBB460:
.LBB450:
	addi 8,8,128
.LVL185:
.LBE450:
.LBE460:
.LBE470:
.LBE481:
.LBB482:
.LBB431:
.LBB419:
.LBB405:
	addi 10,10,128
.LBE405:
.LBE419:
.LBB420:
.LBB410:
	addi 11,11,128
.LBE410:
.LBE420:
.LBB421:
.LBB415:
	addi 0,6,128
.LVL186:
.LBE415:
.LBE421:
.LBE431:
.LBE482:
.LBB483:
.LBB471:
.LBB461:
.LBB456:
	addi 9,9,128
.LVL187:
.LBE456:
.LBE461:
.LBB462:
.LBB451:
	.loc 1 63 0
	srawi 5,8,8
.LVL188:
.LBE451:
.LBE462:
.LBE471:
.LBE483:
.LBB484:
.LBB432:
.LBB422:
.LBB411:
	srawi 6,11,8
.LBE411:
.LBE422:
.LBE432:
.LBE484:
.LBB485:
.LBB472:
.LBB463:
.LBB446:
	srawi 3,7,8
.LBE446:
.LBE463:
.LBE472:
.LBE485:
.LBB486:
.LBB433:
.LBB423:
.LBB406:
	srawi 4,10,8
.LVL189:
.LBE406:
.LBE423:
.LBE433:
.LBE486:
.LBB487:
.LBB473:
.LBB464:
.LBB452:
	add 8,8,5
.LVL190:
.LBE452:
.LBE464:
.LBE473:
.LBE487:
.LBB488:
.LBB434:
.LBB424:
.LBB412:
	add 11,11,6
.LBE412:
.LBE424:
.LBE434:
.LBE488:
.LBB489:
.LBB474:
.LBB465:
.LBB447:
	add 7,7,3
.LVL191:
.LBE447:
.LBE465:
.LBB466:
.LBB457:
	srawi 5,9,8
.LBE457:
.LBE466:
.LBE474:
.LBE489:
.LBB490:
.LBB435:
.LBB425:
.LBB407:
	add 10,10,4
.LBE407:
.LBE425:
.LBB426:
.LBB416:
	srawi 6,0,8
.LBE416:
.LBE426:
.LBE435:
.LBE490:
.LBB491:
.LBB475:
	.loc 1 80 0
	rlwinm 21,7,3,14,20
	rlwinm 8,8,29,19,26
.LBB467:
.LBB458:
	.loc 1 63 0
	add 9,9,5
.LVL192:
.LBE458:
.LBE467:
.LBE475:
.LBE491:
.LBB492:
.LBB436:
	.loc 1 80 0
	rlwinm 23,10,3,14,20
	rlwinm 11,11,29,19,26
.LBB427:
.LBB417:
	.loc 1 63 0
	add 0,0,6
.LBE417:
.LBE427:
.LBE436:
.LBE492:
.LBB493:
.LBB476:
	.loc 1 80 0
	add 21,21,8
.LBB468:
.LBB459:
	.loc 1 63 0
	srawi 9,9,8
.LBE459:
.LBE468:
.LBE476:
.LBE493:
.LBB494:
.LBB437:
	.loc 1 80 0
	add 23,23,11
.LBB428:
.LBB418:
	.loc 1 63 0
	srawi 0,0,8
.LBE418:
.LBE428:
.LBE437:
.LBE494:
.LBB495:
.LBB477:
	.loc 1 80 0
	add 21,21,9
.LBE477:
.LBE495:
.LBB496:
.LBB438:
	add 23,23,0
.LBE438:
.LBE496:
.LBB497:
.LBB478:
	rlwinm 21,21,0,0xffff
.LVL193:
.LBE478:
.LBE497:
.LBB498:
.LBB439:
	rlwinm 23,23,0,0xffff
.LVL194:
.LBE439:
.LBE498:
.LBE385:
.LBE384:
	.loc 1 492 0
	cmpw 7,21,23
	.loc 1 496 0
	li 28,0
.LVL195:
	.loc 1 492 0
	beq- 7,.L110
	.loc 1 493 0
	addi 3,1,44
	mr 4,21
	mr 5,23
	bl _ZL15stb__EvalColorsPhtt
.LVL196:
	.loc 1 494 0
	lwz 5,308(1)
	mr 3,31
	addi 4,1,44
	bl _ZL21stb__MatchColorsBlockPhS_i
	mr 28,3
.LVL197:
.L110:
	lis 29,.LANCHOR2@ha
.LBB500:
.LBB501:
.LBB502:
.LBB503:
.LBB504:
.LBB505:
	.loc 1 414 0
	lis 22,.LANCHOR0@ha
.LBE505:
.LBE504:
.LBE503:
.LBE502:
.LBE501:
	.loc 1 499 0
	li 24,0
	la 29,.LANCHOR2@l(29)
.LBB570:
.LBB563:
.LBB556:
.LBB548:
.LBB506:
	.loc 1 444 0
	lis 27,0x4330
	lis 18,.LC15@ha
	.loc 1 445 0
	lis 19,.LC16@ha
.LBB507:
.LBB508:
	.loc 1 448 0
	lis 25,.LC18@ha
.LVL198:
.LBE508:
.LBE507:
.LBE506:
.LBB544:
	.loc 1 414 0
	la 22,.LANCHOR0@l(22)
.LBE544:
.LBE548:
.LBE556:
.LBE563:
	.loc 1 502 0
	beq- 4,.L147
.LVL199:
.L178:
.LBB564:
.LBB557:
.LBB549:
	.loc 1 401 0
	slwi 0,28,2
.LBE549:
.LBE557:
.LBE564:
	.loc 1 502 0
	addi 9,1,116
.LVL200:
.LBB565:
.LBB558:
.LBB550:
	.loc 1 401 0
	xor 0,0,28
	.loc 1 614 0
	addi 9,9,1
.LVL201:
	.loc 1 401 0
	cmplwi 7,0,3
	bgt- 7,.L112
.LVL202:
.L179:
.LBE550:
.LBE558:
.LBE565:
	.loc 1 614 0
	li 7,16
	li 0,8
	mtctr 7
	li 11,8
	li 10,8
.L113:
.LBB566:
.LBB559:
.LBB551:
.LBB545:
	.loc 1 407 0
	lbz 6,-1(9)
	.loc 1 408 0
	lbz 7,0(9)
	.loc 1 409 0
	lbz 8,1(9)
	.loc 1 407 0
	add 10,10,6
.LVL203:
	.loc 1 408 0
	add 11,11,7
.LVL204:
	.loc 1 409 0
	addi 9,9,4
	add 0,0,8
.LVL205:
	.loc 1 406 0
	bdnz .L113
	.loc 1 412 0
	srawi 10,10,4
.LVL206:
	srawi 11,11,4
.LVL207:
	.loc 1 414 0
	slwi 10,10,1
.LVL208:
	slwi 11,11,1
.LVL209:
	add 10,22,10
	add 11,22,11
	.loc 1 412 0
	srawi 9,0,4
.LVL210:
	.loc 1 414 0
	lbz 15,656(10)
	.loc 1 415 0
	lbz 17,657(10)
	.loc 1 414 0
	slwi 9,9,1
.LVL211:
	.loc 1 415 0
	lbz 10,1169(11)
	.loc 1 414 0
	add 9,22,9
	.loc 1 415 0
	slwi 17,17,11
	lbz 0,657(9)
.LVL212:
	slwi 10,10,5
	.loc 1 414 0
	lbz 8,1168(11)
	.loc 1 415 0
	or 17,17,10
	.loc 1 414 0
	slwi 15,15,11
	.loc 1 415 0
	or 17,17,0
	.loc 1 414 0
	slwi 8,8,5
	.loc 1 415 0
	rlwinm 17,17,0,0xffff
	.loc 1 414 0
	lbz 11,656(9)
.LBE545:
.LBE551:
	.loc 1 459 0
	cmpw 7,17,23
.LBB552:
.LBB546:
	.loc 1 414 0
	or 15,15,8
	or 15,15,11
	rlwinm 15,15,0,0xffff
.LVL213:
.LBE546:
.LBE552:
	.loc 1 459 0
	beq- 7,.L176
.LVL214:
.L128:
.LBE559:
.LBE566:
	.loc 1 503 0
	cmpw 7,17,15
	beq- 7,.L148
.L180:
	.loc 1 504 0
	addi 3,1,44
	mr 4,15
	mr 5,17
	bl _ZL15stb__EvalColorsPhtt
	.loc 1 505 0
	lwz 5,308(1)
	mr 3,31
	addi 4,1,44
	bl _ZL21stb__MatchColorsBlockPhS_i
.LVL215:
	.loc 1 512 0
	cmpw 7,28,3
	beq- 7,.L129
.LBE570:
	.loc 1 499 0
	addi 24,24,1
.LVL216:
	cmpw 7,24,20
	bge- 7,.L177
	mr 21,15
	mr 23,17
	mr 28,3
.LVL217:
.LBB571:
	.loc 1 502 0
	bne- 4,.L178
.LVL218:
.L147:
.LBB567:
.LBB560:
.LBB553:
	.loc 1 401 0
	slwi 0,28,2
.LBE553:
.LBE560:
.LBE567:
	.loc 1 502 0
	mr 9,31
.LVL219:
.LBB568:
.LBB561:
.LBB554:
	.loc 1 401 0
	xor 0,0,28
	.loc 1 614 0
	addi 9,9,1
	.loc 1 401 0
	cmplwi 7,0,3
	ble- 7,.L179
.LVL220:
.L112:
	li 8,16
.LBE554:
.LBE561:
.LBE568:
	.loc 1 614 0
	mr 11,28
	mtctr 8
	li 16,0
	li 15,0
	li 14,0
	li 5,0
	li 3,0
	li 4,0
	li 17,0
.LVL221:
.L115:
.LBB569:
.LBB562:
.LBB555:
.LBB547:
.LBB512:
.LBB513:
	.loc 1 421 0
	rlwinm 6,11,2,28,29
	.loc 1 422 0
	lbz 7,-1(9)
	.loc 1 421 0
	lwzx 0,29,6
.LVL222:
	add 6,29,6
.LVL223:
	.loc 1 423 0
	lbz 8,0(9)
.LVL224:
	.loc 1 430 0
	add 14,14,7
	.loc 1 424 0
	lbz 10,1(9)
.LVL225:
	.loc 1 427 0
	mullw 12,0,7
	.loc 1 426 0
	lwz 6,16(6)
.LVL226:
	.loc 1 431 0
	add 15,15,8
	.loc 1 432 0
	add 16,16,10
	.loc 1 426 0
	add 17,17,6
.LVL227:
	.loc 1 428 0
	mullw 7,0,8
.LVL228:
	.loc 1 427 0
	add 4,4,12
.LVL229:
.LBE513:
	.loc 1 419 0
	srwi 11,11,2
.LVL230:
	addi 9,9,4
.LBB514:
	.loc 1 429 0
	mullw 0,0,10
.LVL231:
	.loc 1 428 0
	add 3,3,7
.LVL232:
	.loc 1 429 0
	add 5,5,0
.LVL233:
.LBE514:
	.loc 1 419 0
	bdnz .L115
.LBE512:
	.loc 1 441 0
	rlwinm 9,17,24,24,31
	.loc 1 442 0
	rlwinm 0,17,0,24,31
	.loc 1 440 0
	srawi 17,17,16
.LVL234:
	.loc 1 444 0
	mullw 11,0,0
.LVL235:
	stw 27,216(1)
.LBB515:
.LBB509:
	.loc 1 375 0
	addi 7,1,292
.LBE509:
.LBE515:
	.loc 1 444 0
	lfs 12,0(26)
	lfs 9,.LC15@l(18)
	mullw 10,17,9
.LVL236:
	.loc 1 448 0
	stw 27,224(1)
.LBB516:
.LBB510:
	lfs 11,.LC18@l(25)
.LBE510:
.LBE516:
	.loc 1 445 0
	lfs 13,.LC16@l(19)
	.loc 1 444 0
	subf 11,11,10
	.loc 1 435 0
	mulli 14,14,3
.LVL237:
	.loc 1 444 0
	xoris 11,11,0x8000
	.loc 1 448 0
	mullw 10,9,4
	.loc 1 444 0
	stw 11,220(1)
	.loc 1 435 0
	subf 14,4,14
.LVL238:
	.loc 1 445 0
	lis 11,.LC17@ha
	.loc 1 444 0
	lfd 0,216(1)
	.loc 1 445 0
	lfs 10,.LC17@l(11)
	.loc 1 448 0
	mullw 11,14,0
	.loc 1 444 0
	fsub 0,0,12
	frsp 0,0
	.loc 1 448 0
	subf 11,11,10
	xoris 11,11,0x8000
	.loc 1 436 0
	mulli 8,15,3
.LVL239:
	.loc 1 448 0
	stw 11,228(1)
	.loc 1 437 0
	mulli 16,16,3
.LVL240:
	.loc 1 444 0
	fdivs 0,9,0
	.loc 1 436 0
	subf 8,3,8
.LVL241:
	.loc 1 448 0
	lfd 9,224(1)
	.loc 1 437 0
	subf 16,5,16
.LVL242:
	.loc 1 448 0
	fsub 12,9,12
	.loc 1 445 0
	fmuls 13,0,13
	.loc 1 448 0
	frsp 12,12
	.loc 1 445 0
	fdivs 13,13,10
.LVL243:
.LBB517:
.LBB511:
	.loc 1 448 0
	fmadds 12,0,12,11
.LVL244:
	.loc 1 375 0
	fctiwz 12,12
.LVL245:
	stfiwx 12,0,7
	lwz 10,292(1)
	cmpwi 7,10,31
	ble- 7,.L116
	li 10,31
.L116:
.LVL246:
.LBE511:
.LBE517:
	.loc 1 449 0
	mullw 7,9,3
	stw 27,232(1)
	lfs 12,0(26)
.LBB518:
.LBB519:
	lfs 11,.LC18@l(25)
.LBE519:
.LBE518:
	mullw 11,8,0
	subf 11,11,7
	xoris 11,11,0x8000
	stw 11,236(1)
.LBB522:
.LBB520:
	.loc 1 375 0
	addi 11,1,288
.LBE520:
.LBE522:
	.loc 1 449 0
	lfd 10,232(1)
	fsub 12,10,12
	frsp 12,12
.LBB523:
.LBB521:
	fmadds 12,13,12,11
.LVL247:
	.loc 1 375 0
	fctiwz 12,12
.LVL248:
	stfiwx 12,0,11
	lwz 11,288(1)
	cmpwi 7,11,63
	ble- 7,.L117
	li 11,63
.L117:
.LVL249:
.LBE521:
.LBE523:
	.loc 1 450 0
	mullw 7,16,0
	stw 27,240(1)
	lfs 12,0(26)
.LBB524:
.LBB525:
	lfs 11,.LC18@l(25)
.LBE525:
.LBE524:
	mullw 9,9,5
.LVL250:
	subf 9,7,9
.LBB528:
.LBB526:
	.loc 1 375 0
	addi 7,1,284
.LBE526:
.LBE528:
	.loc 1 450 0
	xoris 9,9,0x8000
	stw 9,244(1)
	lfd 10,240(1)
	fsub 12,10,12
	frsp 12,12
.LBB529:
.LBB527:
	fmadds 12,0,12,11
.LVL251:
	.loc 1 375 0
	fctiwz 12,12
.LVL252:
	stfiwx 12,0,7
	lwz 9,284(1)
	cmpwi 7,9,31
	ble- 7,.L118
	li 9,31
.L118:
.LBE527:
.LBE529:
	.loc 1 452 0
	mullw 7,14,17
	stw 27,248(1)
	lfs 12,0(26)
	.loc 1 448 0
	nor 15,10,10
.LBB530:
.LBB531:
	.loc 1 452 0
	lfs 11,.LC18@l(25)
.LBE531:
.LBE530:
	.loc 1 450 0
	nor 6,9,9
	.loc 1 448 0
	srawi 15,15,31
	.loc 1 452 0
	mullw 4,0,4
.LVL253:
	.loc 1 448 0
	and 15,10,15
	.loc 1 450 0
	srawi 6,6,31
	and 9,9,6
	.loc 1 448 0
	slwi 15,15,11
	.loc 1 452 0
	subf 7,4,7
	.loc 1 449 0
	or 15,15,9
	.loc 1 452 0
	xoris 7,7,0x8000
.LBB534:
.LBB532:
	.loc 1 375 0
	addi 9,1,280
.LBE532:
.LBE534:
	.loc 1 452 0
	stw 7,252(1)
	.loc 1 449 0
	nor 7,11,11
	srawi 7,7,31
	.loc 1 452 0
	lfd 10,248(1)
	.loc 1 449 0
	and 11,11,7
.LVL254:
	slwi 11,11,5
	.loc 1 452 0
	fsub 12,10,12
	.loc 1 450 0
	or 15,15,11
	rlwinm 15,15,0,0xffff
	.loc 1 452 0
	frsp 12,12
.LBB535:
.LBB533:
	fmadds 12,0,12,11
.LVL255:
	.loc 1 375 0
	fctiwz 12,12
.LVL256:
	stfiwx 12,0,9
	lwz 11,280(1)
	cmpwi 7,11,31
	ble- 7,.L122
	li 11,31
.L122:
.LVL257:
.LBE533:
.LBE535:
	.loc 1 453 0
	mullw 9,8,17
	stw 27,256(1)
	lfs 11,0(26)
.LBB536:
.LBB537:
	.loc 1 375 0
	addi 10,1,276
	.loc 1 453 0
	lfs 12,.LC18@l(25)
.LBE537:
.LBE536:
	mullw 3,0,3
.LVL258:
	subf 9,3,9
	xoris 9,9,0x8000
	stw 9,260(1)
	lfd 10,256(1)
	fsub 11,10,11
	frsp 11,11
.LBB539:
.LBB538:
	fmadds 13,13,11,12
.LVL259:
	.loc 1 375 0
	fctiwz 13,13
.LVL260:
	stfiwx 13,0,10
	lwz 9,276(1)
	cmpwi 7,9,63
	ble- 7,.L123
	li 9,63
.L123:
.LVL261:
.LBE538:
.LBE539:
	.loc 1 454 0
	mullw 17,16,17
.LVL262:
	stw 27,264(1)
	lfs 12,0(26)
.LBB540:
.LBB541:
	.loc 1 375 0
	addi 7,1,272
	.loc 1 454 0
	lfs 13,.LC18@l(25)
.LBE541:
.LBE540:
	mullw 0,0,5
.LVL263:
	subf 0,0,17
	xoris 0,0,0x8000
	stw 0,268(1)
	lfd 11,264(1)
	fsub 12,11,12
	frsp 12,12
.LBB543:
.LBB542:
	fmadds 0,0,12,13
.LVL264:
	.loc 1 375 0
	fctiwz 0,0
.LVL265:
	stfiwx 0,0,7
	lwz 0,272(1)
	cmpwi 7,0,31
	ble- 7,.L124
	li 0,31
.L124:
.LBE542:
.LBE543:
	.loc 1 452 0
	nor 17,11,11
	.loc 1 454 0
	nor 8,0,0
.LVL266:
	.loc 1 453 0
	nor 10,9,9
	.loc 1 452 0
	srawi 17,17,31
	and 17,11,17
	.loc 1 454 0
	srawi 8,8,31
	.loc 1 453 0
	srawi 10,10,31
	.loc 1 452 0
	slwi 17,17,11
	.loc 1 454 0
	and 0,0,8
	.loc 1 453 0
	and 9,9,10
.LVL267:
	or 17,17,0
	slwi 9,9,5
	.loc 1 454 0
	or 17,17,9
	rlwinm 17,17,0,0xffff
.LVL268:
.LBE547:
.LBE555:
	.loc 1 459 0
	cmpw 7,17,23
	bne+ 7,.L128
.LVL269:
.L176:
	cmpw 7,15,21
	beq- 7,.L129
.LBE562:
.LBE569:
	.loc 1 503 0
	cmpw 7,17,15
	bne+ 7,.L180
.L148:
	mr 15,17
	.loc 1 507 0
	li 28,0
.LVL270:
	b .L130
.LVL271:
.L171:
.LBE571:
.LBE500:
.LBE376:
.LBE577:
.LBE580:
.LBB581:
.LBB582:
	.loc 1 548 0
	lbz 10,3(31)
.LVL272:
	li 11,15
	li 9,0
	mtctr 11
	mr 8,10
	b .L81
.LVL273:
.L182:
	.loc 1 553 0
	ble- 6,.L80
	mr 8,0
.LVL274:
.L80:
	addi 9,9,4
	.loc 1 550 0
	bdz .L181
.L81:
	.loc 1 614 0
	add 11,31,9
	.loc 1 552 0
	lbz 0,7(11)
	cmpw 7,0,10
	.loc 1 553 0
	cmpw 6,0,8
	.loc 1 552 0
	bge- 7,.L182
	mr 10,0
.LVL275:
	.loc 1 553 0
	addi 9,9,4
	.loc 1 550 0
	bdnz .L81
.LVL276:
.L181:
	.loc 1 564 0
	subf 25,10,8
	.loc 1 557 0
	stb 8,0(30)
	.loc 1 567 0
	cmpwi 7,25,7
	srawi 9,25,1
	.loc 1 558 0
	stb 10,1(30)
	.loc 1 559 0
	addi 26,30,2
.LVL277:
	.loc 1 565 0
	slwi 3,25,2
.LVL278:
	.loc 1 566 0
	slwi 27,25,1
.LVL279:
	.loc 1 567 0
	addi 0,9,2
	bgt- 7,.L83
	addi 0,25,-1
.L83:
.LVL280:
	.loc 1 568 0
	mulli 10,10,-7
.LVL281:
.LBB583:
.LBB584:
	.loc 1 577 0
	li 7,16
.LBE584:
.LBE583:
	.loc 1 568 0
	li 11,0
	.loc 1 569 0
	li 9,0
	.loc 1 568 0
	add 24,10,0
.LVL282:
.LBB588:
.LBB585:
	.loc 1 577 0
	mtctr 7
.LBE585:
.LBE588:
	.loc 1 569 0
	li 0,0
	b .L87
.LVL283:
.L184:
.LBB589:
.LBB586:
	.loc 1 587 0
	stb 0,0(26)
	.loc 1 589 0
	addi 9,9,-5
	.loc 1 587 0
	addi 26,26,1
.LVL284:
	.loc 1 588 0
	srawi 0,0,8
.LVL285:
	.loc 1 589 0
	addi 11,11,4
.LBE586:
	.loc 1 571 0
	bdz .L183
.LVL286:
.L87:
.LBB587:
	.loc 1 614 0
	add 10,31,11
	.loc 1 586 0
	addi 7,9,3
	.loc 1 572 0
	lbz 8,3(10)
	.loc 1 586 0
	cmpwi 7,7,7
	.loc 1 576 0
	mr 10,3
	li 5,4
	.loc 1 572 0
	mulli 8,8,7
	.loc 1 577 0
	mr 4,27
	.loc 1 572 0
	add 8,24,8
.LVL287:
	.loc 1 576 0
	cmpw 6,3,8
	ble- 6,.L84
	li 10,0
	li 5,0
.L84:
.LVL288:
	subf 10,10,8
.LVL289:
	.loc 1 577 0
	li 8,2
	cmpw 6,27,10
	ble- 6,.L85
	li 4,0
	li 8,0
.L85:
	subf 10,4,10
.LVL290:
	add 8,5,8
.LVL291:
	.loc 1 578 0
	cmpw 6,25,10
	crnot 26,25
	mfcr 10
	rlwinm 10,10,27,1
	add 10,8,10
	.loc 1 581 0
	neg 10,10
	rlwinm 10,10,0,29,31
.LVL292:
	.loc 1 582 0
	cmpwi 6,10,1
	crnot 26,25
	mfcr 8
	rlwinm 8,8,27,1
.LVL293:
	xor 10,8,10
.LVL294:
	.loc 1 585 0
	slw 10,10,9
.LVL295:
	or 0,0,10
.LVL296:
	.loc 1 586 0
	bgt- 7,.L184
	mr 9,7
	.loc 1 589 0
	addi 11,11,4
.LBE587:
	.loc 1 571 0
	bdnz .L87
.LVL297:
.L183:
.LBE589:
.LBE582:
.LBE581:
	.loc 1 624 0
	addi 30,30,8
.LVL298:
	b .L79
.LVL299:
.L145:
.LBB590:
.LBB578:
.LBB575:
.LBB572:
.LBB499:
	.loc 1 345 0
	li 4,114
	.loc 1 344 0
	li 5,587
	.loc 1 343 0
	li 6,299
	b .L106
.LVL300:
.L177:
.LBE499:
.LBE572:
.LBB573:
	.loc 1 505 0
	mr 28,3
.LVL301:
	b .L129
.LVL302:
.L170:
	li 0,32
	lis 25,.LANCHOR0@ha
	mtctr 0
.LBE573:
.LBE575:
.LBE578:
.LBE590:
	.loc 1 617 0
	li 9,0
	la 25,.LANCHOR0@l(25)
.L74:
.LBB591:
.LBB592:
	.loc 1 598 0
	srawi 11,9,2
	slwi 0,9,3
	or 0,11,0
	stbx 0,25,9
	.loc 1 597 0
	addi 9,9,1
.LVL303:
	bdnz .L74
	li 7,64
	lis 24,.LANCHOR0+32@ha
	mtctr 7
	li 9,0
.LVL304:
	la 24,.LANCHOR0+32@l(24)
.L75:
	.loc 1 601 0
	srawi 11,9,4
	slwi 0,9,2
	or 0,11,0
	stbx 0,24,9
	.loc 1 600 0
	addi 9,9,1
.LVL305:
	bdnz .L75
	lis 7,.LANCHOR0+384@ha
.LBB593:
.LBB594:
	.loc 1 605 0
	li 8,272
	la 7,.LANCHOR0+384@l(7)
	mtctr 8
.LBE594:
.LBE593:
	.loc 1 600 0
	li 9,0
.LVL306:
	li 0,0
	addi 5,7,-272
.LVL307:
.L165:
.LBB618:
.LBB615:
.LBB595:
.LBB596:
	.loc 1 62 0
	mulli 11,0,63
.LBE596:
.LBE595:
.LBB601:
.LBB602:
	mulli 10,0,31
.LBE602:
.LBE601:
.LBB607:
.LBB597:
	addi 11,11,128
.LBE597:
.LBE607:
.LBB608:
.LBB603:
	addi 0,10,128
.LVL308:
.LBE603:
.LBE608:
.LBB609:
.LBB598:
	.loc 1 63 0
	srawi 8,11,8
.LBE598:
.LBE609:
.LBB610:
.LBB604:
	srawi 10,0,8
.LBE604:
.LBE610:
.LBB611:
.LBB599:
	add 11,11,8
.LBE599:
.LBE611:
.LBB612:
.LBB605:
	add 0,0,10
.LVL309:
.LBE605:
.LBE612:
.LBB613:
.LBB600:
	srawi 11,11,8
.LBE600:
.LBE613:
.LBB614:
.LBB606:
	srawi 0,0,8
.LBE606:
.LBE614:
	.loc 1 607 0
	add 11,25,11
	.loc 1 606 0
	lbzx 10,25,0
	.loc 1 607 0
	lbz 0,32(11)
	.loc 1 606 0
	stbx 10,7,9
.LVL310:
	.loc 1 607 0
	stbx 0,5,9
.LBE615:
	.loc 1 603 0
	addi 9,9,1
.LVL311:
.LBB616:
	.loc 1 605 0
	cmpwi 7,9,7
	cmpwi 6,9,263
.LBE616:
	.loc 1 603 0
	bdz .L185
.LBB617:
	.loc 1 605 0
	li 0,0
	ble- 7,.L165
	li 0,255
	bgt- 6,.L165
	.loc 1 614 0
	addi 0,9,-8
	b .L165
.L185:
.LBE617:
.LBE618:
	.loc 1 610 0
	addi 3,25,656
.LVL312:
	mr 4,25
	li 5,32
	stw 6,312(1)
	bl _ZL20stb__PrepareOptTablePhPKhi
.LVL313:
	.loc 1 611 0
	addi 3,25,1168
	mr 4,24
	li 5,64
	bl _ZL20stb__PrepareOptTablePhPKhi
.LBE592:
.LBE591:
	.loc 1 619 0
	li 0,0
	stw 0,.LANCHOR1@l(27)
	lwz 6,312(1)
	b .L73
.LVL314:
.L172:
.LBB619:
.LBB579:
.LBB576:
.LBB574:
.LBB383:
.LBB382:
.LBB380:
	.loc 1 153 0
	lis 25,.LANCHOR0@ha
	.loc 1 152 0
	addi 24,1,84
	.loc 1 153 0
	la 25,.LANCHOR0@l(25)
	.loc 1 152 0
	addi 10,1,116
.LVL315:
	mr 11,31
	mr 8,24
	.loc 1 147 0
	addi 9,1,100
	.loc 1 152 0
	li 21,0
	.loc 1 153 0
	addi 0,25,392
	.loc 1 154 0
	li 22,0
.LVL316:
.L133:
	stw 22,0(24)
	.loc 1 614 0
	li 7,4
	.loc 1 154 0
	stw 22,4(24)
	.loc 1 614 0
	mtctr 7
	.loc 1 154 0
	stw 22,8(24)
	stw 22,12(24)
	stw 22,16(24)
	stw 22,20(24)
	stw 22,24(24)
	stw 22,28(24)
.LVL317:
	lwz 6,4(9)
	lwz 7,0(9)
.LVL318:
.L95:
	.loc 1 156 0
	mulli 6,6,3
	lbz 5,0(11)
	mulli 7,7,5
	add 7,6,7
	add 6,0,5
	srawi 7,7,4
	lbzx 27,6,7
	.loc 1 158 0
	lbz 6,4(11)
	.loc 1 157 0
	subf 7,27,5
	.loc 1 156 0
	stb 27,0(10)
	.loc 1 157 0
	stw 7,0(8)
	.loc 1 158 0
	mulli 5,7,7
	lwz 26,8(9)
	lwz 3,4(9)
	mulli 26,26,3
	lwz 4,0(9)
	mulli 3,3,5
	add 5,5,26
	add 5,5,3
	add 5,5,4
	add 4,0,6
	srawi 5,5,4
	lbzx 3,4,5
	.loc 1 160 0
	lbz 5,8(11)
	.loc 1 159 0
	subf 6,3,6
	.loc 1 158 0
	stb 3,4(10)
	.loc 1 159 0
	stw 6,4(8)
	.loc 1 160 0
	mulli 4,6,7
	lwz 19,12(9)
	lwz 23,8(9)
	mulli 19,19,3
	lwz 26,4(9)
	mulli 23,23,5
	add 4,4,19
	add 4,4,23
	add 4,4,26
	add 26,0,5
	srawi 4,4,4
	lbzx 4,26,4
	.loc 1 162 0
	lbz 26,12(11)
	.loc 1 164 0
	addi 11,11,16
.LVL319:
	.loc 1 161 0
	subf 5,4,5
	.loc 1 160 0
	stb 4,8(10)
	.loc 1 161 0
	stw 5,8(8)
	.loc 1 162 0
	mulli 5,5,7
	add 23,0,26
	lwz 18,12(9)
	lwz 19,8(9)
	mulli 18,18,5
	add 5,5,18
	add 5,5,19
	srawi 5,5,4
	lbzx 5,23,5
	.loc 1 155 0
	mr 23,9
	.loc 1 163 0
	subf 26,5,26
	.loc 1 162 0
	stb 5,12(10)
	.loc 1 163 0
	stw 26,12(8)
	.loc 1 165 0
	addi 10,10,16
.LVL320:
	.loc 1 155 0
	bdz .L186
	mr 9,8
.LVL321:
	mr 8,23
.LVL322:
	b .L95
.LVL323:
.L186:
.LBE380:
	.loc 1 151 0
	cmpwi 7,21,2
	addi 21,21,1
.LVL324:
	beq- 7,.L187
.LBB381:
	.loc 1 153 0
	cmpwi 7,21,1
	.loc 1 152 0
	addi 0,1,116
.LVL325:
	add 10,0,21
.LVL326:
	.loc 1 614 0
	add 11,31,21
.LVL327:
	.loc 1 153 0
	addi 0,25,120
	beq- 7,.L94
	addi 0,25,392
.L94:
	mr 7,9
	mr 9,8
	mr 8,7
.LVL328:
	b .L133
.LVL329:
.L187:
.LBE381:
	.loc 1 491 0
	addi 25,1,116
	b .L93
.LBE382:
.LBE383:
.LBE574:
.LBE576:
.LBE579:
.LBE619:
.LBE623:
	.cfi_endproc
.LFE63:
	.size	_Z22stb_compress_dxt_blockPhPKhii, .-_Z22stb_compress_dxt_blockPhPKhii
	.align 2
	.globl _Z15qgxInitTexturesv
	.type	_Z15qgxInitTexturesv, @function
_Z15qgxInitTexturesv:
.LFB66:
	.loc 2 317 0
	.cfi_startproc
	.loc 2 319 0
	.loc 2 318 0
	b _Z16qgx_InitTexturesv
	.cfi_endproc
.LFE66:
	.size	_Z15qgxInitTexturesv, .-_Z15qgxInitTexturesv
	.align 2
	.globl _Z20qgxLoadCurrentTexMapv
	.type	_Z20qgxLoadCurrentTexMapv, @function
_Z20qgxLoadCurrentTexMapv:
.LFB67:
	.loc 2 321 0
	.cfi_startproc
	mflr 0
	stwu 1,-8(1)
.LCFI25:
	.cfi_def_cfa_offset 8
	.cfi_register 65, 0
.LBB624:
	.loc 2 323 0
	lis 9,.LANCHOR0@ha
	la 9,.LANCHOR0@l(9)
.LBE624:
	.loc 2 321 0
	stw 0,12(1)
.LBB625:
	.loc 2 323 0
	lwz 4,108(9)
	lwz 0,96(9)
	.cfi_offset 65, 4
	slwi 11,4,2
	add 9,9,11
	lwz 3,1680(9)
	mulli 3,3,52
	add 3,0,3
.LVL330:
	.loc 2 325 0
	lbz 0,36(3)
	cmpwi 7,0,0
	beq- 7,.L189
	.loc 2 325 0 is_stmt 0 discriminator 1
	lwz 0,32(3)
	cmpwi 7,0,0
	beq- 7,.L189
	.loc 2 327 0 is_stmt 1
	rlwinm 4,4,0,0xff
	bl GX_LoadTexObj
.LVL331:
.L189:
.LBE625:
	.loc 2 331 0
	lwz 0,12(1)
	addi 1,1,8
.LCFI26:
	.cfi_def_cfa_offset 0
	mtlr 0
	blr
	.cfi_endproc
.LFE67:
	.size	_Z20qgxLoadCurrentTexMapv, .-_Z20qgxLoadCurrentTexMapv
	.align 2
	.globl _Z13qgxTexImage2DiiiiiPh
	.type	_Z13qgxTexImage2DiiiiiPh, @function
_Z13qgxTexImage2DiiiiiPh:
.LFB68:
	.loc 2 333 0
	.cfi_startproc
.LVL332:
	stwu 1,-240(1)
.LCFI27:
	.cfi_def_cfa_offset 240
	mflr 0
	mfcr 12
	stw 23,204(1)
.LBB646:
	.loc 2 340 0
	lis 23,.LANCHOR0@ha
	.cfi_offset 23, -36
	.cfi_register 70, 12
	.cfi_register 65, 0
	la 23,.LANCHOR0@l(23)
.LBE646:
	.loc 2 333 0
	stw 0,244(1)
.LBB715:
	.loc 2 340 0
	lwz 0,104(23)
	.cfi_offset 65, 4
	lwz 11,96(23)
	mulli 9,0,52
.LBE715:
	.loc 2 333 0
	stw 25,212(1)
	stw 28,224(1)
	mr 25,4
	.cfi_offset 28, -16
	.cfi_offset 25, -28
	stw 29,228(1)
.LBB716:
	.loc 2 340 0
	add 11,11,9
.LBE716:
	.loc 2 333 0
	stw 30,232(1)
	mr 29,7
	.cfi_offset 30, -8
	.cfi_offset 29, -12
	stw 14,168(1)
	mr 30,5
	stw 15,172(1)
	mr 28,8
	stw 16,176(1)
	stw 17,180(1)
	stw 18,184(1)
	stw 19,188(1)
	stw 20,192(1)
	stw 21,196(1)
	stw 22,200(1)
	stw 24,208(1)
	stw 26,216(1)
	stw 27,220(1)
	stw 31,236(1)
	stw 12,164(1)
	.loc 2 333 0
	stw 3,148(1)
.LBB717:
	.loc 2 342 0
	lbz 9,36(11)
	.loc 2 340 0
	stw 11,112(1)
.LVL333:
	.loc 2 342 0
	cmpwi 7,9,0
.LBE717:
	.loc 2 333 0
	stw 6,132(1)
.LBB718:
	.loc 2 342 0
	bne+ 7,.L192
	.cfi_offset 70, -76
	.cfi_offset 31, -4
	.cfi_offset 27, -20
	.cfi_offset 26, -24
	.cfi_offset 24, -32
	.cfi_offset 22, -40
	.cfi_offset 21, -44
	.cfi_offset 20, -48
	.cfi_offset 19, -52
	.cfi_offset 18, -56
	.cfi_offset 17, -60
	.cfi_offset 16, -64
	.cfi_offset 15, -68
	.cfi_offset 14, -72
	.loc 2 343 0
	lis 3,.LC19@ha
.LVL334:
	mr 4,0
.LVL335:
	la 3,.LC19@l(3)
	crxor 6,6,6
	bl _Z9Sys_ErrorPKcz
.LVL336:
.L192:
	.loc 2 347 0
	lwz 11,112(1)
	lbz 0,48(11)
	extsb. 0,0
	blt- 0,.L193
	.loc 2 347 0 is_stmt 0 discriminator 1
	lwz 11,148(1)
	cmpw 7,0,11
	beq- 7,.L193
.LVL337:
.L191:
.LBE718:
	.loc 2 405 0 is_stmt 1
	lwz 0,244(1)
	lwz 12,164(1)
	mtlr 0
	lwz 14,168(1)
	lwz 15,172(1)
	mtcrf 56,12
	lwz 16,176(1)
	lwz 17,180(1)
	lwz 18,184(1)
	lwz 19,188(1)
	lwz 20,192(1)
	lwz 21,196(1)
	lwz 22,200(1)
	lwz 23,204(1)
	lwz 24,208(1)
	lwz 25,212(1)
	lwz 26,216(1)
	lwz 27,220(1)
	lwz 28,224(1)
.LVL338:
	lwz 29,228(1)
.LVL339:
	lwz 30,232(1)
.LVL340:
	lwz 31,236(1)
	addi 1,1,240
	.cfi_remember_state
.LCFI28:
	.cfi_def_cfa_offset 0
	.cfi_restore 70
	.cfi_restore 31
	.cfi_restore 30
	.cfi_restore 29
	.cfi_restore 28
	.cfi_restore 27
	.cfi_restore 26
	.cfi_restore 25
	.cfi_restore 24
	.cfi_restore 23
	.cfi_restore 22
	.cfi_restore 21
	.cfi_restore 20
	.cfi_restore 19
	.cfi_restore 18
	.cfi_restore 17
	.cfi_restore 16
	.cfi_restore 15
	.cfi_restore 14
	blr
.LVL341:
.L193:
.LCFI29:
	.cfi_restore_state
.LBB719:
.LBB647:
.LBB648:
	.loc 2 135 0
	li 0,0
	ori 0,0,32854
	cmpw 7,25,0
	beq- 7,.L199
	li 0,0
	bgt- 7,.L202
	ori 0,0,32843
	cmpw 7,25,0
	beq- 7,.L196
	bgt- 7,.L203
	xoris 0,25,0xffff
	cmpwi 7,0,-32708
	beq 7,.L196
	xoris 0,25,0xffff
	cmpwi 7,0,-32699
	beq 7,.L251
.L195:
	.loc 2 155 0
	lis 3,.LC21@ha
	mr 4,25
	la 3,.LC21@l(3)
	.loc 2 156 0
	li 26,0
	.loc 2 155 0
	crxor 6,6,6
	bl _Z9Sys_ErrorPKcz
	li 0,0
	li 11,0
	stw 0,128(1)
	stw 11,88(1)
	b .L198
.L202:
	.loc 2 135 0
	ori 0,0,33776
	cmpw 7,25,0
	beq- 7,.L201
	bgt- 7,.L204
	xoris 0,25,0xffff
	cmpwi 7,0,-32680
	beq 7,.L199
	xoris 0,25,0xffff
	cmpwi 7,0,-32539
	bne 7,.L195
	.loc 2 153 0
	lis 3,.LC20@ha
	la 3,.LC20@l(3)
	crxor 6,6,6
	bl _Z9Sys_ErrorPKcz
	b .L195
.L251:
.LVL342:
.LBE648:
.LBE647:
.LBB651:
.LBB652:
	.loc 2 246 0
	lwz 11,132(1)
	rlwinm 0,30,0,0xffff
	mr 3,0
	li 5,2
	rlwinm 11,11,0,0xffff
	li 6,0
	mr 4,11
	li 7,0
	stw 0,136(1)
	.loc 2 140 0
	li 26,2
	.loc 2 246 0
	stw 11,140(1)
	bl GX_GetTexBufferSize
	li 0,2
	.loc 2 353 0
	li 11,2
	.loc 2 246 0
	stw 3,144(1)
	stw 0,128(1)
	.loc 2 353 0
	stw 11,88(1)
.LVL343:
.L238:
.LBE652:
.LBE651:
	.loc 2 355 0
	lwz 11,112(1)
	lis 3,.LC22@ha
	lwz 0,104(23)
	la 3,.LC22@l(3)
	lwz 4,148(1)
	mr 5,25
	lwz 7,132(1)
	mr 6,30
	lwz 10,144(1)
	mr 8,29
	mr 9,28
	stw 11,8(1)
	stw 0,12(1)
	stw 26,16(1)
	crxor 6,6,6
	bl _Z10Sys_PrintfPKcz
	.loc 2 358 0
	lwz 11,112(1)
	lwz 11,32(11)
	cmpwi 7,11,0
	stw 11,124(1)
	beq- 7,.L205
	.loc 2 358 0 is_stmt 0 discriminator 1
	lwz 11,112(1)
	lhz 0,38(11)
	cmpw 7,0,30
	beq- 7,.L252
.L206:
	.loc 2 359 0 is_stmt 1
	lwz 3,124(1)
	bl free
	.loc 2 360 0
	lwz 11,112(1)
	li 0,0
	stw 0,32(11)
.L205:
	.loc 2 365 0
	lwz 4,144(1)
	li 3,32
	bl memalign
	stw 3,124(1)
.LVL344:
.L207:
.LBB654:
.LBB655:
	.loc 2 205 0
	lwz 11,88(1)
	cmplwi 7,11,14
	ble- 7,.L253
.L208:
	.loc 2 237 0
	lis 3,.LC23@ha
	la 3,.LC23@l(3)
	crxor 6,6,6
	bl _Z9Sys_ErrorPKcz
.L210:
.LVL345:
.LBE655:
.LBE654:
	.loc 2 373 0
	lwz 11,132(1)
	cmpwi 7,11,0
	ble- 7,.L216
	cmpwi 7,30,0
.LBB658:
.LBB659:
	.loc 2 333 0
	mullw 9,17,27
	lis 18,.LANCHOR0+1712@ha
.LBE659:
.LBE658:
	.loc 2 373 0
	lwz 21,124(1)
	la 18,.LANCHOR0+1712@l(18)
	mfcr 11
	rlwinm 11,11,28,0xf0000000
	cmpwi 7,26,14
.LBB688:
.LBB682:
.LBB660:
	.loc 2 333 0
	mullw 17,17,31
.LVL346:
.LBE660:
	stw 9,100(1)
	stw 11,152(1)
	lwz 11,88(1)
	mfcr 0
	rlwinm 0,0,28,0xf0000000
	cmpwi 4,11,2
.LBB675:
.LBB661:
	.loc 2 288 0
	addi 15,11,-4
	stw 0,108(1)
.LBE661:
.LBE675:
	.loc 2 281 0
	lwz 0,92(1)
	cmpwi 7,0,0
	mfcr 0
	rlwinm 0,0,28,0xf0000000
	cmpwi 7,27,0
	stw 0,120(1)
	mfcr 0
	rlwinm 0,0,28,0xf0000000
	stw 0,104(1)
.LBE682:
.LBE688:
	.loc 2 373 0
	li 0,0
	stw 0,96(1)
.LVL347:
.L215:
	.loc 2 374 0 discriminator 1
	lwz 9,152(1)
	rlwinm 9,9,4,0xffffffff
	mtcrf 1,9
	rlwinm 9,9,28,0xffffffff
	ble- 7,.L237
.LBB689:
.LBB683:
.LBB676:
.LBB668:
.LBB662:
.LBB663:
	.loc 2 194 0
	lwz 11,88(1)
.LBE663:
.LBE662:
.LBE668:
.LBE676:
.LBE683:
.LBE689:
	.loc 2 374 0
	li 19,0
.LBB690:
.LBB684:
.LBB677:
.LBB669:
.LBB666:
.LBB664:
	.loc 2 194 0
	cmpwi 2,11,5
.LVL348:
.L236:
.LBE664:
.LBE666:
.LBE669:
.LBE677:
.LBE684:
.LBE690:
	.loc 2 375 0
	lwz 0,108(1)
	rlwinm 0,0,4,0xffffffff
	mtcrf 1,0
	rlwinm 0,0,28,0xffffffff
	bne- 7,.L217
	lwz 16,96(1)
	.loc 2 333 0
	addi 14,21,32
	stw 31,116(1)
	mr 20,27
.LVL349:
.L218:
.LBB691:
.LBB692:
	.loc 2 255 0
	mr 24,19
	.loc 2 333 0
	addi 22,21,16
.LVL350:
.L235:
.LBE692:
.LBE691:
	mr 26,16
	li 31,0
.LVL351:
.L234:
.LBB705:
.LBB703:
.LBB693:
.LBB694:
.LBB695:
	addi 25,31,4
.LBE695:
.LBE694:
.LBE693:
.LBE703:
.LBE705:
	mr 27,24
.LVL352:
.L231:
.LBB706:
.LBB704:
.LBB701:
.LBB699:
.LBB698:
.LBB696:
	.loc 2 261 0
	slwi 3,31,2
	addi 9,1,24
	mr 4,27
	add 3,9,3
	mr 5,26
	mr 6,30
	mr 7,29
	mr 8,28
	.loc 2 262 0
	addi 31,31,1
.LVL353:
	.loc 2 261 0
	bl _ZL13qgx_ReadColorP9_gx_coloriiiiPh
.LVL354:
	.loc 2 260 0
	cmpw 7,25,31
	.loc 2 262 0
	addi 27,27,1
	.loc 2 260 0
	bne+ 7,.L231
.LBE696:
	.loc 2 259 0
	cmpwi 7,25,16
.LBB697:
	.loc 2 260 0
	mr 31,25
.LVL355:
	addi 26,26,1
.LBE697:
	.loc 2 259 0
	bne+ 7,.L234
.LBE698:
	.loc 2 266 0
	mr 3,21
	addi 4,1,24
	li 5,0
	li 6,0
	.loc 2 267 0
	addi 21,21,8
.LVL356:
	.loc 2 266 0
	bl _Z22stb_compress_dxt_blockPhPKhii
.LVL357:
.LBE699:
	.loc 2 256 0
	cmpw 7,21,22
.LBB700:
	.loc 2 267 0
	addi 24,24,4
.LBE700:
	.loc 2 256 0
	bne- 7,.L235
.LBE701:
	.loc 2 255 0
	cmpw 7,14,21
.LBB702:
	.loc 2 256 0
	addi 16,16,4
.LBE702:
	.loc 2 255 0
	bne- 7,.L218
	lwz 31,116(1)
	mr 27,20
.LVL358:
.L219:
.LBE704:
.LBE706:
	.loc 2 333 0
	add 19,19,27
	.loc 2 383 0
	mr 21,14
.LVL359:
	.loc 2 374 0
	cmpw 7,30,19
	bgt+ 7,.L236
.LVL360:
.L237:
	.loc 2 333 0
	lwz 11,96(1)
	lwz 0,92(1)
	add 11,11,0
	.loc 2 373 0
	lwz 0,132(1)
	.loc 2 333 0
	stw 11,96(1)
.LVL361:
	.loc 2 373 0
	cmpw 7,0,11
	bgt+ 7,.L215
.LVL362:
.L216:
	.loc 2 387 0
	lwz 11,112(1)
	.loc 2 391 0
	li 0,1
	.loc 2 387 0
	lwz 9,124(1)
	.loc 2 391 0
	stb 0,43(11)
	.loc 2 387 0
	stw 9,32(11)
	.loc 2 388 0
	lwz 9,136(1)
	.loc 2 392 0
	stb 0,44(11)
	.loc 2 393 0
	li 0,0
	.loc 2 388 0
	sth 9,38(11)
	.loc 2 389 0
	lwz 9,140(1)
	.loc 2 393 0
	stb 0,47(11)
	.loc 2 389 0
	sth 9,40(11)
	.loc 2 394 0
	lwz 0,148(1)
	.loc 2 390 0
	lwz 9,128(1)
	.loc 2 394 0
	stb 0,48(11)
	.loc 2 390 0
	stb 9,42(11)
	.loc 2 399 0
	lwz 4,144(1)
	lwz 3,124(1)
	bl DCFlushRange
	.loc 2 400 0
	lwz 3,112(1)
	lwz 4,32(3)
	lhz 5,38(3)
	lhz 6,40(3)
	lbz 7,42(3)
	lbz 8,43(3)
	lbz 9,44(3)
	lbz 10,47(3)
	bl GX_InitTexObj
	.loc 2 404 0
	bl _Z20qgxLoadCurrentTexMapv
	b .L191
.LVL363:
.L217:
.LBB707:
.LBB685:
	.loc 2 281 0
	lwz 0,120(1)
	addi 14,21,32
	rlwinm 0,0,4,0xffffffff
	mtcrf 1,0
	rlwinm 0,0,28,0xffffffff
	ble- 7,.L219
.LBB678:
.LBB670:
	.loc 2 288 0
	lwz 11,88(1)
.LBE670:
.LBE678:
.LBE685:
.LBE707:
	.loc 2 333 0
	li 14,0
	li 16,0
.LBB708:
.LBB686:
.LBB679:
.LBB671:
	.loc 2 288 0
	cmpwi 3,11,0
.LVL364:
.L220:
.LBE671:
	.loc 2 282 0
	lwz 11,104(1)
	rlwinm 11,11,4,0xffffffff
	mtcrf 1,11
	rlwinm 11,11,28,0xffffffff
	ble- 7,.L230
	.loc 2 333 0
	lwz 0,96(1)
.LBE679:
.LBE686:
.LBE708:
	mr 26,19
	mr 25,14
.LBB709:
.LBB687:
.LBB680:
	add 20,16,0
	b .L229
.LVL365:
.L254:
.LBB672:
	.loc 2 288 0
	bne- 3,.L221
	.loc 2 292 0
	lis 9,.LC25@ha
	addi 4,26,1
	lwz 3,.LC25@l(9)
	mr 5,20
	mr 6,30
	mr 7,29
	mr 8,28
	bl _ZL13qgx_ReadColorP9_gx_coloriiiiPh
	.loc 2 293 0
	lbz 0,1715(23)
	rlwinm 0,0,0,24,27
	stb 0,0(22)
	.loc 2 294 0
	lbz 9,1719(23)
	srwi 9,9,4
	or 0,0,9
	stb 0,0(22)
.L226:
	.loc 2 307 0
	add 26,26,31
	add 25,25,17
.LBE672:
	.loc 2 333 0
	subf 0,19,26
	.loc 2 282 0
	cmpw 7,27,0
	ble- 7,.L230
.LVL366:
.L229:
.LBB673:
	.loc 2 284 0
	divw 24,25,31
	.loc 2 286 0
	mr 3,18
	mr 4,26
	mr 5,20
	mr 6,30
	mr 7,29
	mr 8,28
	.loc 2 284 0
	add 22,21,24
.LVL367:
	.loc 2 286 0
	bl _ZL13qgx_ReadColorP9_gx_coloriiiiPh
	.loc 2 288 0
	beq- 4,.L223
	ble- 4,.L254
	cmplwi 7,15,1
	ble- 7,.L255
.L221:
	.loc 2 307 0
	lis 11,.LC26@ha
	lwz 4,88(1)
	lwz 3,.LC26@l(11)
	add 26,26,31
	add 25,25,17
	crxor 6,6,6
	bl _Z9Sys_ErrorPKcz
.LBE673:
	.loc 2 333 0
	subf 0,19,26
	.loc 2 282 0
	cmpw 7,27,0
	bgt+ 7,.L229
.LVL368:
.L230:
.LBE680:
	.loc 2 281 0
	lwz 0,92(1)
	addi 16,16,1
.LVL369:
	lwz 9,100(1)
	cmpw 7,16,0
	add 14,14,9
	bne+ 7,.L220
	addi 14,21,32
	b .L219
.LVL370:
.L223:
.LBB681:
.LBB674:
	.loc 2 298 0
	lbz 0,1715(23)
	rlwinm 0,0,0,24,27
	stbx 0,21,24
	.loc 2 299 0
	lbz 9,1712(23)
	srwi 9,9,4
	or 0,0,9
	stbx 0,21,24
	b .L226
.L255:
.LVL371:
.LBB667:
.LBB665:
	.loc 2 194 0
	beq- 2,.L256
	.loc 2 197 0
	lbz 11,1712(23)
	lbz 9,1713(23)
	lbz 0,1714(23)
	rlwinm 11,11,8,16,20
	rlwinm 9,9,3,21,26
	or 9,11,9
	srwi 0,0,3
	or 9,0,9
.LVL372:
	.loc 2 199 0
	sth 9,0(22)
	b .L226
.LVL373:
.L256:
	.loc 2 195 0
	lbz 10,1714(23)
	lbz 11,1713(23)
	lbz 9,1715(23)
	srwi 10,10,4
	lbz 0,1712(23)
	rlwinm 11,11,0,24,27
	or 11,10,11
	rlwinm 9,9,7,17,19
	or 9,11,9
	rlwinm 0,0,4,20,23
	or 9,9,0
	rlwinm 9,9,0,17,31
.LVL374:
	.loc 2 199 0
	sth 9,0(22)
	b .L226
.LVL375:
.L253:
.LBE665:
.LBE667:
.LBE674:
.LBE681:
.LBE687:
.LBE709:
.LBB710:
.LBB656:
	.loc 2 205 0
	lis 9,.L214@ha
	slwi 0,11,2
	la 9,.L214@l(9)
	lwzx 0,9,0
	add 9,0,9
	mtctr 9
	bctr
	.section	.rodata
	.align 2
	.align 2
.L214:
	.long .L209-.L214
	.long .L208-.L214
	.long .L240-.L214
	.long .L208-.L214
	.long .L211-.L214
	.long .L212-.L214
	.long .L208-.L214
	.long .L208-.L214
	.long .L208-.L214
	.long .L208-.L214
	.long .L208-.L214
	.long .L208-.L214
	.long .L208-.L214
	.long .L208-.L214
	.long .L213-.L214
	.section	".text"
.LVL376:
.L252:
.LBE656:
.LBE710:
	.loc 2 358 0 discriminator 2
	lhz 0,40(11)
	lwz 11,132(1)
	cmpw 7,0,11
	bne+ 7,.L206
	b .L207
.LVL377:
.L203:
.LBB711:
.LBB649:
	.loc 2 135 0
	addis 0,25,0xffff
	addic 0,0,32688
	cmplwi 7,0,1
	bgt- 7,.L195
	li 0,4
	li 11,4
	stw 0,128(1)
	.loc 2 147 0
	li 26,4
	.loc 2 135 0
	stw 11,88(1)
	b .L198
.L204:
	addis 0,25,0xffff
	addic 0,0,31758
	cmplwi 7,0,1
	bgt- 7,.L195
.L201:
	li 0,14
	li 11,14
	stw 0,128(1)
	.loc 2 144 0
	li 26,14
	.loc 2 135 0
	stw 11,88(1)
	b .L198
.L196:
	li 11,0
	.loc 2 138 0
	li 26,0
	.loc 2 135 0
	stw 11,128(1)
	stw 11,88(1)
.L198:
.LVL378:
.LBE649:
.LBE711:
.LBB712:
.LBB653:
	.loc 2 248 0
	lwz 11,132(1)
	rlwinm 0,30,0,0xffff
	mr 3,0
	mr 5,26
	rlwinm 11,11,0,0xffff
	li 6,0
	mr 4,11
	li 7,0
	stw 0,136(1)
	stw 11,140(1)
	bl GX_GetTexBufferSize
	stw 3,144(1)
	b .L238
.LVL379:
.L199:
.LBE653:
.LBE712:
.LBB713:
.LBB650:
	li 0,5
	li 11,5
	stw 0,128(1)
	.loc 2 150 0
	li 26,5
	stw 11,88(1)
	b .L198
.LVL380:
.L213:
.LBE650:
.LBE713:
.LBB714:
.LBB657:
	.loc 2 232 0
	li 11,8
.LVL381:
	.loc 2 234 0
	li 17,0
	.loc 2 233 0
	li 31,0
	.loc 2 232 0
	stw 11,92(1)
	.loc 2 231 0
	li 27,8
	b .L210
.L212:
	.loc 2 226 0
	li 0,4
	.loc 2 228 0
	li 17,2
	.loc 2 227 0
	li 31,1
	.loc 2 226 0
	stw 0,92(1)
	.loc 2 225 0
	li 27,4
	b .L210
.L211:
	.loc 2 220 0
	li 11,4
	.loc 2 222 0
	li 17,2
	.loc 2 221 0
	li 31,1
	.loc 2 220 0
	stw 11,92(1)
	.loc 2 219 0
	li 27,4
	b .L210
.L240:
	.loc 2 214 0
	li 0,4
	.loc 2 216 0
	li 17,1
	.loc 2 215 0
	li 31,1
	.loc 2 214 0
	stw 0,92(1)
	.loc 2 213 0
	li 27,8
	b .L210
.L209:
	.loc 2 208 0
	li 0,8
	.loc 2 210 0
	li 17,1
	.loc 2 209 0
	li 31,2
	.loc 2 208 0
	stw 0,92(1)
	.loc 2 207 0
	li 27,8
	b .L210
.LBE657:
.LBE714:
.LBE719:
	.cfi_endproc
.LFE68:
	.size	_Z13qgxTexImage2DiiiiiPh, .-_Z13qgxTexImage2DiiiiiPh
	.align 2
	.globl _Z16qgxSetGLTexParamiiiii
	.type	_Z16qgxSetGLTexParamiiiii, @function
_Z16qgxSetGLTexParamiiiii:
.LFB69:
	.loc 2 411 0
	.cfi_startproc
.LVL382:
	stwu 1,-32(1)
.LCFI30:
	.cfi_def_cfa_offset 32
	mflr 0
	mr 8,7
	stw 28,16(1)
	mr 28,3
	.cfi_offset 28, -16
	.cfi_register 65, 0
	stw 29,20(1)
.LBB720:
	.loc 2 415 0
	lis 3,.LC27@ha
.LVL383:
.LBE720:
	.loc 2 411 0
	stw 30,24(1)
	mr 29,4
	.cfi_offset 30, -8
	.cfi_offset 29, -12
	stw 31,28(1)
	mr 30,5
	mr 31,6
	.cfi_offset 31, -4
.LBB721:
	.loc 2 415 0
	mr 4,28
.LVL384:
	la 3,.LC27@l(3)
	mr 5,29
.LVL385:
	mr 6,30
.LVL386:
	mr 7,31
.LVL387:
.LBE721:
	.loc 2 411 0
	stw 0,36(1)
	stw 27,12(1)
.LBB722:
	.loc 2 415 0
	.cfi_offset 27, -20
	.cfi_offset 65, 4
	crxor 6,6,6
	bl _Z10Sys_PrintfPKcz
.LVL388:
	.loc 2 417 0
	lis 9,.LANCHOR0@ha
	la 9,.LANCHOR0@l(9)
	lwz 4,104(9)
	lwz 27,96(9)
	mulli 0,4,52
	add 27,27,0
.LVL389:
	.loc 2 419 0
	lbz 0,36(27)
	cmpwi 7,0,0
	beq- 7,.L263
.L258:
	.loc 2 423 0
	cmpwi 7,28,-1
	beq- 7,.L259
	.loc 2 424 0
	mr 3,28
	bl _ZL18qgx_GLWrapModeToGXi
.LVL390:
	stb 3,43(27)
.LVL391:
.L259:
	.loc 2 427 0
	cmpwi 7,29,-1
	beq- 7,.L260
	.loc 2 428 0
	mr 3,29
	bl _ZL18qgx_GLWrapModeToGXi
.LVL392:
	stb 3,44(27)
.LVL393:
.L260:
	.loc 2 431 0
	cmpwi 7,30,-1
	beq- 7,.L261
	.loc 2 432 0
	mr 3,30
	bl _ZL16qgx_GLFilterToGXi
.LVL394:
	stb 3,45(27)
.LVL395:
.L261:
	.loc 2 435 0
	cmpwi 7,31,-1
	beq- 7,.L262
	.loc 2 436 0
	mr 3,31
	bl _ZL16qgx_GLFilterToGXi
.LVL396:
	stb 3,46(27)
.LVL397:
.L262:
	.loc 2 442 0
	li 0,0
	.loc 2 445 0
	lwz 4,32(27)
	.loc 2 442 0
	stb 0,47(27)
	.loc 2 445 0
	mr 3,27
	lhz 5,38(27)
	li 10,0
	lhz 6,40(27)
	lbz 7,42(27)
	lbz 8,43(27)
	lbz 9,44(27)
	bl GX_InitTexObj
.LBE722:
	.loc 2 448 0
	lwz 0,36(1)
	lwz 27,12(1)
.LVL398:
	mtlr 0
	lwz 28,16(1)
.LVL399:
	lwz 29,20(1)
.LVL400:
	lwz 30,24(1)
.LVL401:
	lwz 31,28(1)
.LVL402:
	addi 1,1,32
	.cfi_remember_state
.LCFI31:
	.cfi_def_cfa_offset 0
	.cfi_restore 31
	.cfi_restore 30
	.cfi_restore 29
	.cfi_restore 28
	.cfi_restore 27
	blr
.LVL403:
.L263:
.LCFI32:
	.cfi_restore_state
.LBB723:
	.loc 2 420 0
	lis 3,.LC19@ha
	la 3,.LC19@l(3)
	crxor 6,6,6
	bl _Z9Sys_ErrorPKcz
	b .L258
.LBE723:
	.cfi_endproc
.LFE69:
	.size	_Z16qgxSetGLTexParamiiiii, .-_Z16qgxSetGLTexParamiiiii
	.align 2
	.globl _Z14qgxGenTexturesiPj
	.type	_Z14qgxGenTexturesiPj, @function
_Z14qgxGenTexturesiPj:
.LFB70:
	.loc 2 450 0
	.cfi_startproc
.LVL404:
	stwu 1,-56(1)
.LCFI33:
	.cfi_def_cfa_offset 56
	mflr 0
	stw 25,28(1)
.LBB728:
	.loc 2 451 0
	mr. 25,3
	.cfi_offset 25, -28
	.cfi_register 65, 0
.LBE728:
	.loc 2 450 0
	stw 0,60(1)
	stw 21,12(1)
	stw 22,16(1)
	stw 23,20(1)
	stw 24,24(1)
	stw 26,32(1)
	stw 27,36(1)
	stw 28,40(1)
	stw 29,44(1)
	stw 30,48(1)
	stw 31,52(1)
.LBB741:
	.loc 2 451 0
	ble- 0,.L264
	.cfi_offset 31, -4
	.cfi_offset 30, -8
	.cfi_offset 29, -12
	.cfi_offset 28, -16
	.cfi_offset 27, -20
	.cfi_offset 26, -24
	.cfi_offset 24, -32
	.cfi_offset 23, -36
	.cfi_offset 22, -40
	.cfi_offset 21, -44
	.cfi_offset 65, 4
	lis 28,.LANCHOR0@ha
.LBB729:
.LBB730:
	.loc 2 73 0
	lis 21,.LC28@ha
.LBE730:
.LBE729:
	.loc 2 451 0
	la 28,.LANCHOR0@l(28)
.LBB736:
.LBB731:
	.loc 2 82 0
	lis 22,.LC29@ha
.LBE731:
.LBE736:
	.loc 2 451 0
	lwz 29,96(28)
	.loc 2 450 0
	addi 26,4,-4
.LBE741:
	.loc 2 451 0
	li 27,0
.LBB742:
.LBB737:
.LBB732:
	.loc 2 73 0
	la 21,.LC28@l(21)
	.loc 2 82 0
	la 22,.LC29@l(22)
	.loc 2 86 0
	li 23,1
	.loc 2 87 0
	li 24,-1
.LVL405:
.L271:
	.loc 2 72 0 discriminator 2
	cmpwi 7,29,0
	beq- 7,.L274
.L266:
	.loc 2 75 0
	lwz 0,100(28)
	cmpwi 7,0,511
	bgt- 7,.L267
	lwz 29,96(28)
	.loc 2 450 0
	mulli 9,0,52
	subfic 11,0,512
	mtctr 11
	add 9,29,9
.LVL406:
.L270:
	.loc 2 77 0
	mr 31,9
	lbz 9,36(9)
	mr 30,0
	cmpwi 7,9,0
	.loc 2 76 0
	addi 0,30,1
	addi 9,31,52
	.loc 2 77 0
	beq- 7,.L269
.LVL407:
	.loc 2 76 0
	bdnz .L270
	addi 31,29,26624
	li 30,512
	li 0,513
.LVL408:
.L269:
	.loc 2 85 0
	mr 3,31
	li 4,0
	li 5,52
.LBE732:
.LBE737:
	.loc 2 451 0
	addi 27,27,1
.LBB738:
.LBB733:
	.loc 2 84 0
	stw 0,100(28)
	.loc 2 85 0
	bl memset
.LVL409:
.LBE733:
.LBE738:
	.loc 2 451 0
	cmpw 7,27,25
.LBB739:
.LBB734:
	.loc 2 86 0
	stb 23,36(31)
	.loc 2 87 0
	stb 24,48(31)
.LBE734:
.LBE739:
	.loc 2 453 0
	stwu 30,4(26)
	.loc 2 451 0
	bne+ 7,.L271
.LVL410:
.L264:
.LBE742:
	.loc 2 455 0
	lwz 0,60(1)
	lwz 21,12(1)
	mtlr 0
	lwz 22,16(1)
	lwz 23,20(1)
	lwz 24,24(1)
	lwz 25,28(1)
.LVL411:
	lwz 26,32(1)
	lwz 27,36(1)
	lwz 28,40(1)
	lwz 29,44(1)
	lwz 30,48(1)
	lwz 31,52(1)
	addi 1,1,56
	.cfi_remember_state
.LCFI34:
	.cfi_def_cfa_offset 0
	.cfi_restore 31
	.cfi_restore 30
	.cfi_restore 29
	.cfi_restore 28
	.cfi_restore 27
	.cfi_restore 26
	.cfi_restore 25
	.cfi_restore 24
	.cfi_restore 23
	.cfi_restore 22
	.cfi_restore 21
	blr
.LVL412:
.L267:
.LCFI35:
	.cfi_restore_state
.LBB743:
.LBB740:
.LBB735:
	.loc 2 82 0
	mr 3,22
	li 4,512
	crxor 6,6,6
	bl _Z9Sys_ErrorPKcz
	lwz 29,96(28)
	li 30,0
	li 0,1
	mr 31,29
	b .L269
.L274:
	.loc 2 73 0
	mr 3,21
	crxor 6,6,6
	bl _Z9Sys_ErrorPKcz
	b .L266
.LBE735:
.LBE740:
.LBE743:
	.cfi_endproc
.LFE70:
	.size	_Z14qgxGenTexturesiPj, .-_Z14qgxGenTexturesiPj
	.align 2
	.globl _Z17qgxDeleteTexturesiPj
	.type	_Z17qgxDeleteTexturesiPj, @function
_Z17qgxDeleteTexturesiPj:
.LFB71:
	.loc 2 458 0
	.cfi_startproc
.LVL413:
	stwu 1,-40(1)
.LCFI36:
	.cfi_def_cfa_offset 40
	mflr 0
	stw 28,24(1)
.LBB744:
	.loc 2 459 0
	mr. 28,3
	.cfi_offset 28, -16
	.cfi_register 65, 0
.LBE744:
	.loc 2 458 0
	stw 0,44(1)
	stw 25,12(1)
	stw 26,16(1)
	stw 27,20(1)
	stw 29,28(1)
	stw 30,32(1)
	stw 31,36(1)
.LBB751:
	.loc 2 459 0
	ble- 0,.L275
	.cfi_offset 31, -4
	.cfi_offset 30, -8
	.cfi_offset 29, -12
	.cfi_offset 27, -20
	.cfi_offset 26, -24
	.cfi_offset 25, -28
	.cfi_offset 65, 4
	lis 26,.LC30@ha
	lis 29,.LANCHOR0@ha
	.loc 2 458 0
	addi 30,4,-4
.LBE751:
	.loc 2 459 0
	li 31,0
	la 26,.LC30@l(26)
	la 29,.LANCHOR0@l(29)
.LBB752:
.LBB745:
.LBB746:
	.loc 2 93 0
	li 27,0
.LVL414:
.L279:
.LBE746:
.LBE745:
	.loc 2 460 0
	lwzu 5,4(30)
	mr 4,31
	mr 3,26
	.loc 2 459 0
	addi 31,31,1
	.loc 2 460 0
	crxor 6,6,6
	bl _Z10Sys_PrintfPKcz
	.loc 2 461 0
	lwz 0,0(30)
	lwz 25,96(29)
	mulli 9,0,52
	add 9,25,9
	lwz 11,32(9)
	cmpwi 7,11,0
	.loc 2 462 0
	mr 3,11
	.loc 2 461 0
	beq- 7,.L277
	.loc 2 462 0
	bl free
	lwz 0,0(30)
	mulli 9,0,52
	add 9,25,9
.L277:
.LVL415:
.LBB749:
.LBB747:
	.loc 2 95 0
	lwz 11,100(29)
.LBE747:
.LBE749:
	.loc 2 459 0
	cmpw 7,31,28
.LBB750:
.LBB748:
	.loc 2 93 0
	stb 27,36(9)
	.loc 2 95 0
	cmpw 6,0,11
	bge- 6,.L278
	.loc 2 96 0
	stw 0,100(29)
.L278:
.LVL416:
.LBE748:
.LBE750:
	.loc 2 459 0
	bne+ 7,.L279
.LVL417:
.L275:
.LBE752:
	.loc 2 466 0
	lwz 0,44(1)
	lwz 25,12(1)
	mtlr 0
	lwz 26,16(1)
	lwz 27,20(1)
	lwz 28,24(1)
.LVL418:
	lwz 29,28(1)
	lwz 30,32(1)
	lwz 31,36(1)
	addi 1,1,40
.LCFI37:
	.cfi_def_cfa_offset 0
	.cfi_restore 31
	.cfi_restore 30
	.cfi_restore 29
	.cfi_restore 28
	.cfi_restore 27
	.cfi_restore 26
	.cfi_restore 25
	blr
	.cfi_endproc
.LFE71:
	.size	_Z17qgxDeleteTexturesiPj, .-_Z17qgxDeleteTexturesiPj
	.align 2
	.globl _Z14qgxBindTexturej
	.type	_Z14qgxBindTexturej, @function
_Z14qgxBindTexturej:
.LFB72:
	.loc 2 469 0
	.cfi_startproc
.LVL419:
	.loc 2 472 0
	lis 9,.LANCHOR0@ha
	la 9,.LANCHOR0@l(9)
	.loc 2 473 0
	lwz 0,108(9)
	.loc 2 472 0
	stw 3,104(9)
	.loc 2 473 0
	slwi 0,0,2
	add 11,9,0
	stw 3,1680(11)
	.loc 2 476 0
	.loc 2 474 0
	b _Z20qgxLoadCurrentTexMapv
.LVL420:
	.cfi_endproc
.LFE72:
	.size	_Z14qgxBindTexturej, .-_Z14qgxBindTexturej
	.align 2
	.globl _Z15qgxActiveTexMapj
	.type	_Z15qgxActiveTexMapj, @function
_Z15qgxActiveTexMapj:
.LFB73:
	.loc 2 481 0
	.cfi_startproc
.LVL421:
	stwu 1,-16(1)
.LCFI38:
	.cfi_def_cfa_offset 16
	mflr 0
	stw 31,12(1)
	mr 31,3
	.cfi_offset 31, -4
	.cfi_register 65, 0
	.loc 2 482 0
	lis 3,.LC31@ha
.LVL422:
	mr 4,31
	la 3,.LC31@l(3)
	.loc 2 481 0
	stw 0,20(1)
	.loc 2 482 0
	.cfi_offset 65, 4
	crxor 6,6,6
	bl _Z10Sys_PrintfPKcz
	.loc 2 483 0
	cmplwi 7,31,7
	ble+ 7,.L283
	.loc 2 484 0
	lis 3,.LC32@ha
	la 3,.LC32@l(3)
	crxor 6,6,6
	bl _Z9Sys_ErrorPKcz
.L283:
	.loc 2 487 0
	lwz 0,20(1)
	.loc 2 486 0
	lis 9,.LANCHOR0+108@ha
	stw 31,.LANCHOR0+108@l(9)
	.loc 2 487 0
	mtlr 0
	lwz 31,12(1)
.LVL423:
	addi 1,1,16
.LCFI39:
	.cfi_def_cfa_offset 0
	.cfi_restore 31
	blr
	.cfi_endproc
.LFE73:
	.size	_Z15qgxActiveTexMapj, .-_Z15qgxActiveTexMapj
	.section	.rodata
	.align 2
	.set	.LANCHOR2,. + 0
	.type	_ZZL16stb__RefineBlockPhPtS0_jE5w1Tab, @object
	.size	_ZZL16stb__RefineBlockPhPtS0_jE5w1Tab, 16
_ZZL16stb__RefineBlockPhPtS0_jE5w1Tab:
	.long	3
	.long	0
	.long	2
	.long	1
	.type	_ZZL16stb__RefineBlockPhPtS0_jE5prods, @object
	.size	_ZZL16stb__RefineBlockPhPtS0_jE5prods, 16
_ZZL16stb__RefineBlockPhPtS0_jE5prods:
	.long	589824
	.long	2304
	.long	262402
	.long	66562
	.section	.rodata.cst4,"aM",@progbits,4
	.align 2
.LC9:
	.4byte	1501560836
.LC10:
	.4byte	1132396544
.LC12:
	.4byte	1082130432
.LC14:
	.4byte	1140850688
.LC15:
	.4byte	1052424891
.LC16:
	.4byte	1115422720
.LC17:
	.4byte	1106771968
.LC18:
	.4byte	1056964608
.LC25:
	.4byte	.LANCHOR0+1716
.LC26:
	.4byte	.LC24
	.section	".data"
	.align 2
	.set	.LANCHOR1,. + 0
	.type	_ZZ22stb_compress_dxt_blockPhPKhiiE4init, @object
	.size	_ZZ22stb_compress_dxt_blockPhPKhiiE4init, 4
_ZZ22stb_compress_dxt_blockPhPKhiiE4init:
	.long	1
	.section	.rodata.str1.4,"aMS",@progbits,1
	.align 2
.LC0:
	.string	"Unsupported GL Wrap S mode %04X\r\n"
	.zero	2
.LC1:
	.string	"Unsupported GL Filter Min mode GL_NEAREST_MIPMAP_NEAREST\r\n"
	.zero	1
.LC2:
	.string	"Unsupported GL Filter Min mode GL_NEAREST_MIPMAP_LINEAR\r\n"
	.zero	2
.LC3:
	.string	"Unsupported GL Filter Min mode GL_LINEAR_MIPMAP_NEAREST\r\n"
	.zero	2
.LC4:
	.string	"Unsupported GL Filter Min mode %04X\r\n"
	.zero	2
.LC5:
	.string	"New GL input texformat needed %4X\r\n"
.LC6:
	.string	">>> qgx_InitTextures()\r\n"
	.zero	3
.LC7:
	.string	">>> gxtexdescs %p size %d element size %d\r\n"
.LC19:
	.string	"Texture not bound: %d\r\n"
.LC20:
	.string	"Unsupported GL FMT: GL_COLOR_INDEX8_EXT\r\n"
	.zero	2
.LC21:
	.string	"Unsupported GL FMT: %d\r\n"
	.zero	3
.LC22:
	.string	">>> void qgxTexImage2D(%d, %04X, %d, %d, %04X, %p) size %d using texdesc %p %d gxfmt %d\r\n"
	.zero	2
.LC23:
	.string	"qgx_getTexConvParms Tex format not supported yet!"
	.zero	2
.LC24:
	.string	"qgx_TexConvHandlePixel: Unsupported texture format %d\r\n"
.LC27:
	.string	">>> qgxSetGLTexParam() %02X %02X %02X %02X %02X\r\n"
	.zero	2
.LC28:
	.string	"Allocated texture desc before initialization\r\n"
	.zero	1
.LC29:
	.string	"Out of gx_texture descriptors: > %d\r\n"
	.zero	2
.LC30:
	.string	">>> qgxDeleteTexture() %d %d\r\n"
	.zero	1
.LC31:
	.string	">>> void qgxActiveTexMap %d\r\n"
	.zero	2
.LC32:
	.string	"Texmap cannot be bigger than 7\r\n"
	.section	".bss"
	.align 2
	.set	.LANCHOR0,. + 0
	.type	_ZL12stb__Expand5, @object
	.size	_ZL12stb__Expand5, 32
_ZL12stb__Expand5:
	.zero	32
	.type	_ZL12stb__Expand6, @object
	.size	_ZL12stb__Expand6, 64
_ZL12stb__Expand6:
	.zero	64
	.type	_ZL10gxtexdescs, @object
	.size	_ZL10gxtexdescs, 4
_ZL10gxtexdescs:
	.zero	4
	.type	_ZL13gxtexsrchfree, @object
	.size	_ZL13gxtexsrchfree, 4
_ZL13gxtexsrchfree:
	.zero	4
	.type	_ZL13gxcurrtexdesc, @object
	.size	_ZL13gxcurrtexdesc, 4
_ZL13gxcurrtexdesc:
	.zero	4
	.type	_ZL12gxcurrtexmap, @object
	.size	_ZL12gxcurrtexmap, 4
_ZL12gxcurrtexmap:
	.zero	4
	.type	_ZL14stb__QuantGTab, @object
	.size	_ZL14stb__QuantGTab, 272
_ZL14stb__QuantGTab:
	.zero	272
	.type	_ZL15stb__QuantRBTab, @object
	.size	_ZL15stb__QuantRBTab, 272
_ZL15stb__QuantRBTab:
	.zero	272
	.type	_ZL12stb__OMatch5, @object
	.size	_ZL12stb__OMatch5, 512
_ZL12stb__OMatch5:
	.zero	512
	.type	_ZL12stb__OMatch6, @object
	.size	_ZL12stb__OMatch6, 512
_ZL12stb__OMatch6:
	.zero	512
	.type	_ZL9gxtexmaps, @object
	.size	_ZL9gxtexmaps, 32
_ZL9gxtexmaps:
	.zero	32
	.type	_ZL5color, @object
	.size	_ZL5color, 8
_ZL5color:
	.zero	8
	.section	".text"
.Letext0:
	.file 3 "c:\\utils\\devkitpro\\devkitppc\\bin\\../lib/gcc/powerpc-eabi/4.6.3/../../../../powerpc-eabi/include/stdint.h"
	.file 4 "c:/utils/devkitPro/libogc/include/gctypes.h"
	.file 5 "c:/utils/devkitPro/libogc/include/ogc/gx.h"
	.file 6 "d:/Data/Nintendo/DoomGXSchratch/src/gx/gx_qgx.h"