	.file	"stc.cpp"
	.section	".text"
.Ltext0:
	.align 2
	.globl _Z9ShortSwaps
	.type	_Z9ShortSwaps, @function
_Z9ShortSwaps:
.LFB72:
	.file 1 "d:/Data/Nintendo/DoomGXSchratch/src/stc.cpp"
	.loc 1 112 0
	.cfi_startproc
.LVL0:
.LBB51:
	.loc 1 118 0
	rlwinm 0,3,0,0xff
	rlwinm 3,3,24,24,31
.LVL1:
	slwi 0,0,8
.LBE51:
	.loc 1 119 0
.LBB52:
	.loc 1 118 0
	add 3,3,0
.LBE52:
	.loc 1 119 0
	extsh 3,3
	blr
	.cfi_endproc
.LFE72:
	.size	_Z9ShortSwaps, .-_Z9ShortSwaps
	.align 2
	.globl _Z11ShortNoSwaps
	.type	_Z11ShortNoSwaps, @function
_Z11ShortNoSwaps:
.LFB73:
	.loc 1 126 0
	.cfi_startproc
.LVL2:
	.loc 1 128 0
	blr
	.cfi_endproc
.LFE73:
	.size	_Z11ShortNoSwaps, .-_Z11ShortNoSwaps
	.align 2
	.globl _Z8LongSwapi
	.type	_Z8LongSwapi, @function
_Z8LongSwapi:
.LFB74:
	.loc 1 135 0
	.cfi_startproc
.LVL3:
.LBB53:
	.loc 1 143 0
	slwi 9,3,24
	rlwinm 0,3,8,8,15
	add 0,9,0
	rlwinm 9,3,24,16,23
	add 0,0,9
	srwi 3,3,24
.LVL4:
.LBE53:
	.loc 1 144 0
	add 3,0,3
	blr
	.cfi_endproc
.LFE74:
	.size	_Z8LongSwapi, .-_Z8LongSwapi
	.align 2
	.globl _Z10LongNoSwapi
	.type	_Z10LongNoSwapi, @function
_Z10LongNoSwapi:
.LFB75:
	.loc 1 151 0
	.cfi_startproc
.LVL5:
	.loc 1 153 0
	blr
	.cfi_endproc
.LFE75:
	.size	_Z10LongNoSwapi, .-_Z10LongNoSwapi
	.align 2
	.globl _Z9FloatSwapf
	.type	_Z9FloatSwapf, @function
_Z9FloatSwapf:
.LFB76:
	.loc 1 160 0
	.cfi_startproc
.LVL6:
	stwu 1,-16(1)
.LCFI0:
	.cfi_def_cfa_offset 16
.LBB54:
	.loc 1 168 0
	li 0,0
.LVL7:
	.loc 1 167 0
	stfs 1,8(1)
	lwz 9,8(1)
	.loc 1 168 0
	rlwimi 0,9,24,0,7
.LVL8:
	.loc 1 169 0
	rlwimi 0,9,8,8,15
	.loc 1 170 0
	rlwimi 0,9,24,16,23
	.loc 1 171 0
	rlwimi 0,9,8,24,31
	.loc 1 172 0
	stw 0,8(1)
	lfs 1,8(1)
.LVL9:
.LBE54:
	.loc 1 173 0
	addi 1,1,16
.LCFI1:
	.cfi_def_cfa_offset 0
	blr
	.cfi_endproc
.LFE76:
	.size	_Z9FloatSwapf, .-_Z9FloatSwapf
	.align 2
	.globl _Z11FloatNoSwapf
	.type	_Z11FloatNoSwapf, @function
_Z11FloatNoSwapf:
.LFB77:
	.loc 1 180 0
	.cfi_startproc
.LVL10:
	.loc 1 182 0
	blr
	.cfi_endproc
.LFE77:
	.size	_Z11FloatNoSwapf, .-_Z11FloatNoSwapf
	.align 2
	.globl _Z8BigShorts
	.type	_Z8BigShorts, @function
_Z8BigShorts:
.LFB61:
	.loc 1 94 0
	.cfi_startproc
.LVL11:
	mflr 0
	stwu 1,-8(1)
.LCFI2:
	.cfi_def_cfa_offset 8
	.cfi_register 65, 0
	lis 9,.LANCHOR0@ha
	stw 0,12(1)
	.loc 1 94 0
	lwz 0,.LANCHOR0@l(9)
	.cfi_offset 65, 4
	mtctr 0
	bctrl
.LVL12:
	lwz 0,12(1)
	addi 1,1,8
.LCFI3:
	.cfi_def_cfa_offset 0
	mtlr 0
	blr
	.cfi_endproc
.LFE61:
	.size	_Z8BigShorts, .-_Z8BigShorts
	.align 2
	.globl _Z11LittleShorts
	.type	_Z11LittleShorts, @function
_Z11LittleShorts:
.LFB62:
	.loc 1 95 0
	.cfi_startproc
.LVL13:
	mflr 0
	stwu 1,-8(1)
.LCFI4:
	.cfi_def_cfa_offset 8
	.cfi_register 65, 0
	lis 9,.LANCHOR0+4@ha
	stw 0,12(1)
	.loc 1 95 0
	lwz 0,.LANCHOR0+4@l(9)
	.cfi_offset 65, 4
	mtctr 0
	bctrl
.LVL14:
	lwz 0,12(1)
	addi 1,1,8
.LCFI5:
	.cfi_def_cfa_offset 0
	mtlr 0
	blr
	.cfi_endproc
.LFE62:
	.size	_Z11LittleShorts, .-_Z11LittleShorts
	.align 2
	.globl _Z7BigLongi
	.type	_Z7BigLongi, @function
_Z7BigLongi:
.LFB63:
	.loc 1 96 0
	.cfi_startproc
.LVL15:
	mflr 0
	stwu 1,-8(1)
.LCFI6:
	.cfi_def_cfa_offset 8
	.cfi_register 65, 0
	lis 9,.LANCHOR0+8@ha
	stw 0,12(1)
	.loc 1 96 0
	lwz 0,.LANCHOR0+8@l(9)
	.cfi_offset 65, 4
	mtctr 0
	bctrl
.LVL16:
	lwz 0,12(1)
	addi 1,1,8
.LCFI7:
	.cfi_def_cfa_offset 0
	mtlr 0
	blr
	.cfi_endproc
.LFE63:
	.size	_Z7BigLongi, .-_Z7BigLongi
	.align 2
	.globl _Z10LittleLongi
	.type	_Z10LittleLongi, @function
_Z10LittleLongi:
.LFB64:
	.loc 1 97 0
	.cfi_startproc
.LVL17:
	mflr 0
	stwu 1,-8(1)
.LCFI8:
	.cfi_def_cfa_offset 8
	.cfi_register 65, 0
	lis 9,.LANCHOR0+12@ha
	stw 0,12(1)
	.loc 1 97 0
	lwz 0,.LANCHOR0+12@l(9)
	.cfi_offset 65, 4
	mtctr 0
	bctrl
.LVL18:
	lwz 0,12(1)
	addi 1,1,8
.LCFI9:
	.cfi_def_cfa_offset 0
	mtlr 0
	blr
	.cfi_endproc
.LFE64:
	.size	_Z10LittleLongi, .-_Z10LittleLongi
	.align 2
	.globl _Z8BigFloatf
	.type	_Z8BigFloatf, @function
_Z8BigFloatf:
.LFB65:
	.loc 1 98 0
	.cfi_startproc
.LVL19:
	mflr 0
	stwu 1,-8(1)
.LCFI10:
	.cfi_def_cfa_offset 8
	.cfi_register 65, 0
	lis 9,.LANCHOR0+16@ha
	stw 0,12(1)
	.loc 1 98 0
	lwz 0,.LANCHOR0+16@l(9)
	.cfi_offset 65, 4
	mtctr 0
	bctrl
.LVL20:
	lwz 0,12(1)
	addi 1,1,8
.LCFI11:
	.cfi_def_cfa_offset 0
	mtlr 0
	blr
	.cfi_endproc
.LFE65:
	.size	_Z8BigFloatf, .-_Z8BigFloatf
	.align 2
	.globl _Z11LittleFloatf
	.type	_Z11LittleFloatf, @function
_Z11LittleFloatf:
.LFB66:
	.loc 1 99 0
	.cfi_startproc
.LVL21:
	mflr 0
	stwu 1,-8(1)
.LCFI12:
	.cfi_def_cfa_offset 8
	.cfi_register 65, 0
	lis 9,.LANCHOR0+20@ha
	stw 0,12(1)
	.loc 1 99 0
	lwz 0,.LANCHOR0+20@l(9)
	.cfi_offset 65, 4
	mtctr 0
	bctrl
.LVL22:
	lwz 0,12(1)
	addi 1,1,8
.LCFI13:
	.cfi_def_cfa_offset 0
	mtlr 0
	blr
	.cfi_endproc
.LFE66:
	.size	_Z11LittleFloatf, .-_Z11LittleFloatf
	.align 2
	.globl _Z11BigRevBytesPvii
	.type	_Z11BigRevBytesPvii, @function
_Z11BigRevBytesPvii:
.LFB67:
	.loc 1 100 0
	.cfi_startproc
.LVL23:
	mflr 0
	stwu 1,-8(1)
.LCFI14:
	.cfi_def_cfa_offset 8
	.cfi_register 65, 0
	lis 9,.LANCHOR0+24@ha
	stw 0,12(1)
	.loc 1 100 0
	lwz 0,.LANCHOR0+24@l(9)
	.cfi_offset 65, 4
	mtctr 0
	bctrl
.LVL24:
	lwz 0,12(1)
	addi 1,1,8
.LCFI15:
	.cfi_def_cfa_offset 0
	mtlr 0
	blr
	.cfi_endproc
.LFE67:
	.size	_Z11BigRevBytesPvii, .-_Z11BigRevBytesPvii
	.align 2
	.globl _Z14LittleRevBytesPvii
	.type	_Z14LittleRevBytesPvii, @function
_Z14LittleRevBytesPvii:
.LFB68:
	.loc 1 101 0
	.cfi_startproc
.LVL25:
	mflr 0
	stwu 1,-8(1)
.LCFI16:
	.cfi_def_cfa_offset 8
	.cfi_register 65, 0
	lis 9,.LANCHOR0+28@ha
	stw 0,12(1)
	.loc 1 101 0
	lwz 0,.LANCHOR0+28@l(9)
	.cfi_offset 65, 4
	mtctr 0
	bctrl
.LVL26:
	lwz 0,12(1)
	addi 1,1,8
.LCFI17:
	.cfi_def_cfa_offset 0
	mtlr 0
	blr
	.cfi_endproc
.LFE68:
	.size	_Z14LittleRevBytesPvii, .-_Z14LittleRevBytesPvii
	.align 2
	.globl _Z14LittleBitFieldPvi
	.type	_Z14LittleBitFieldPvi, @function
_Z14LittleBitFieldPvi:
.LFB69:
	.loc 1 102 0
	.cfi_startproc
.LVL27:
	mflr 0
	stwu 1,-8(1)
.LCFI18:
	.cfi_def_cfa_offset 8
	.cfi_register 65, 0
	lis 9,.LANCHOR0+32@ha
	stw 0,12(1)
	.loc 1 102 0
	lwz 0,.LANCHOR0+32@l(9)
	.cfi_offset 65, 4
	mtctr 0
	bctrl
.LVL28:
	lwz 0,12(1)
	addi 1,1,8
.LCFI19:
	.cfi_def_cfa_offset 0
	mtlr 0
	blr
	.cfi_endproc
.LFE69:
	.size	_Z14LittleBitFieldPvi, .-_Z14LittleBitFieldPvi
	.align 2
	.globl _Z13SixtetsForIntPhi
	.type	_Z13SixtetsForIntPhi, @function
_Z13SixtetsForIntPhi:
.LFB70:
	.loc 1 104 0
	.cfi_startproc
.LVL29:
	mflr 0
	stwu 1,-8(1)
.LCFI20:
	.cfi_def_cfa_offset 8
	.cfi_register 65, 0
	lis 9,.LANCHOR0+36@ha
	stw 0,12(1)
	.loc 1 104 0
	lwz 0,.LANCHOR0+36@l(9)
	.cfi_offset 65, 4
	mtctr 0
	bctrl
.LVL30:
	lwz 0,12(1)
	addi 1,1,8
.LCFI21:
	.cfi_def_cfa_offset 0
	mtlr 0
	blr
	.cfi_endproc
.LFE70:
	.size	_Z13SixtetsForIntPhi, .-_Z13SixtetsForIntPhi
	.align 2
	.globl _Z13IntForSixtetsPh
	.type	_Z13IntForSixtetsPh, @function
_Z13IntForSixtetsPh:
.LFB71:
	.loc 1 105 0
	.cfi_startproc
.LVL31:
	mflr 0
	stwu 1,-8(1)
.LCFI22:
	.cfi_def_cfa_offset 8
	.cfi_register 65, 0
	lis 9,.LANCHOR0+40@ha
	stw 0,12(1)
	.loc 1 105 0
	lwz 0,.LANCHOR0+40@l(9)
	.cfi_offset 65, 4
	mtctr 0
	bctrl
.LVL32:
	lwz 0,12(1)
	addi 1,1,8
.LCFI23:
	.cfi_def_cfa_offset 0
	mtlr 0
	blr
	.cfi_endproc
.LFE71:
	.size	_Z13IntForSixtetsPh, .-_Z13IntForSixtetsPh
	.align 2
	.globl _Z5_mainiPPc
	.type	_Z5_mainiPPc, @function
_Z5_mainiPPc:
.LFB79:
	.loc 1 417 0
	.cfi_startproc
.LVL33:
	mflr 0
	stwu 1,-1440(1)
.LCFI24:
	.cfi_def_cfa_offset 1440
	.cfi_register 65, 0
	mfcr 12
	stfd 31,1432(1)
	stw 12,1356(1)
	stw 0,1444(1)
	stw 24,1400(1)
.LBB84:
	.loc 1 472 0
	lis 24,.LC8@ha
	.cfi_offset 24, -40
	.cfi_offset 65, 4
	.cfi_offset 63, -8
	.cfi_offset 70, -84
.LBE84:
	.loc 1 417 0
	stw 25,1404(1)
.LBB146:
	.loc 1 472 0
	la 24,.LC8@l(24)
.LBE146:
	.loc 1 417 0
	stw 27,1412(1)
.LBB147:
	.loc 1 459 0
	lis 27,.LC6@ha
	.cfi_offset 27, -28
	.cfi_offset 25, -36
.LBE147:
	.loc 1 417 0
	stw 28,1416(1)
.LBB148:
	.loc 1 459 0
	lis 28,.LC5@ha
	.cfi_offset 28, -24
.LBE148:
	.loc 1 417 0
	stw 29,1420(1)
.LBB149:
	.loc 1 459 0
	lis 29,.LC4@ha
	.cfi_offset 29, -20
.LBE149:
	.loc 1 417 0
	stw 30,1424(1)
.LBB150:
	.loc 1 459 0
	lis 30,.LC3@ha
	.cfi_offset 30, -16
.LBE150:
	.loc 1 417 0
	stw 31,1428(1)
	stw 14,1360(1)
	stw 15,1364(1)
	stw 16,1368(1)
	stw 17,1372(1)
	stw 18,1376(1)
	stw 19,1380(1)
	stw 20,1384(1)
	stw 21,1388(1)
	stw 22,1392(1)
	stw 23,1396(1)
	stw 26,1408(1)
.LBB151:
	.loc 1 421 0
	.cfi_offset 26, -32
	.cfi_offset 23, -44
	.cfi_offset 22, -48
	.cfi_offset 21, -52
	.cfi_offset 20, -56
	.cfi_offset 19, -60
	.cfi_offset 18, -64
	.cfi_offset 17, -68
	.cfi_offset 16, -72
	.cfi_offset 15, -76
	.cfi_offset 14, -80
	.cfi_offset 31, -12
	bl _Z8Vid_Initv
.LVL34:
	.loc 1 422 0
	bl _Z7qgxInitv
	.loc 1 424 0
	bl _Z20qgxInitDefaultShaderv
	.loc 1 425 0
	lis 9,.LC1@ha
	lfs 31,.LC1@l(9)
	fmr 1,31
	fmr 2,31
	fmr 3,31
	fmr 4,31
	bl _Z13qgxSetKColor0ffff
	.loc 1 428 0
	lis 11,_Z11ShortNoSwaps@ha
	la 11,_Z11ShortNoSwaps@l(11)
	lis 9,.LANCHOR0@ha
	stw 11,.LANCHOR0@l(9)
	la 31,.LANCHOR0@l(9)
	.loc 1 429 0
	lis 9,_Z9ShortSwaps@ha
	.loc 1 445 0
	li 0,0
	.loc 1 429 0
	la 9,_Z9ShortSwaps@l(9)
	.loc 1 445 0
	stw 0,36(1)
	.loc 1 429 0
	stw 9,4(31)
	.loc 1 430 0
	lis 9,_Z10LongNoSwapi@ha
	la 9,_Z10LongNoSwapi@l(9)
	.loc 1 445 0
	stw 0,40(1)
	.loc 1 430 0
	stw 9,8(31)
	.loc 1 431 0
	lis 9,_Z8LongSwapi@ha
	la 9,_Z8LongSwapi@l(9)
	.loc 1 445 0
	stw 0,44(1)
	.loc 1 431 0
	stw 9,12(31)
	.loc 1 432 0
	lis 9,_Z11FloatNoSwapf@ha
	la 9,_Z11FloatNoSwapf@l(9)
	.loc 1 446 0
	stw 0,24(1)
	.loc 1 432 0
	stw 9,16(31)
	.loc 1 433 0
	lis 9,_Z9FloatSwapf@ha
	la 9,_Z9FloatSwapf@l(9)
	.loc 1 446 0
	stw 0,32(1)
	.loc 1 433 0
	stw 9,20(31)
	.loc 1 447 0
	lis 9,.LC2@ha
	stw 0,12(1)
	.loc 1 451 0
	lis 4,.LANCHOR1@ha
	.loc 1 447 0
	stw 0,16(1)
	.loc 1 451 0
	la 4,.LANCHOR1@l(4)
	.loc 1 447 0
	lwz 0,.LC2@l(9)
	.loc 1 451 0
	li 5,36
	addi 3,1,64
	.loc 1 446 0
	stfs 31,28(1)
	.loc 1 447 0
	stw 0,20(1)
	.loc 1 451 0
	bl memcpy
	.loc 1 453 0
	bl WPAD_Init
	.loc 1 457 0
	addi 4,1,36
	addi 5,1,24
	addi 6,1,12
	addi 3,1,196
	bl guLookAt
	.loc 1 459 0
	lfs 1,.LC3@l(30)
	lfs 2,.LC4@l(29)
	addi 3,1,244
	lfs 3,.LC5@l(28)
	lfs 4,.LC6@l(27)
	bl guPerspective
	.loc 1 462 0
	bl fatInitDefault
	.loc 1 467 0
	lis 3,.LC7@ha
	la 3,.LC7@l(3)
	bl opendir
	mr 25,3
.LVL35:
	.loc 1 470 0
	b .L19
.LVL36:
.L20:
	.loc 1 471 0
	addi 26,3,5
	li 5,1024
	mr 4,26
	addi 3,1,308
.LVL37:
	bl strncpy
	.loc 1 472 0
	mr 3,24
	addi 4,1,308
	mr 5,26
	crxor 6,6,6
	bl printf
.LVL38:
.L19:
	.loc 1 470 0 discriminator 1
	mr 3,25
	bl readdir
.LVL39:
	cmpwi 0,3,0
	bne+ 0,.L20
	.loc 1 474 0
	mr 3,25
.LVL40:
	bl closedir
.LVL41:
.LBB85:
.LBB86:
.LBB87:
	.loc 1 202 0
	lis 4,.LC9@ha
	la 4,.LC9@l(4)
	addi 3,1,308
.LVL42:
	bl fopen
.LVL43:
	.loc 1 203 0
	li 5,0
	li 6,0
	li 7,2
	.loc 1 202 0
	mr 25,3
.LVL44:
	.loc 1 203 0
	bl fseek
.LVL45:
	.loc 1 204 0
	mr 3,25
	bl ftell
	.loc 1 205 0
	mr 4,3
	.loc 1 204 0
	mr 24,3
.LVL46:
	.loc 1 205 0
	lis 3,.LC10@ha
.LVL47:
	la 3,.LC10@l(3)
	crxor 6,6,6
	bl printf
.LVL48:
	.loc 1 206 0
	mr 3,24
	bl malloc
	.loc 1 207 0
	li 7,0
	.loc 1 206 0
	mr 26,3
.LVL49:
	.loc 1 207 0
	li 5,0
	li 6,0
	mr 3,25
.LVL50:
	bl fseek
	.loc 1 208 0
	mr 4,24
	li 5,1
	mr 6,25
	mr 3,26
	bl fread
.LBB88:
.LBB89:
	.loc 1 95 0
	lwz 0,4(31)
	lha 3,3(26)
	mtctr 0
.LBE89:
.LBE88:
	.loc 1 212 0
	lbz 22,2(26)
	.loc 1 210 0
	lbz 19,0(26)
.LVL51:
	.loc 1 211 0
	lbz 20,1(26)
.LVL52:
.LBB91:
.LBB90:
	.loc 1 95 0
	bctrl
.LVL53:
.LBE90:
.LBE91:
.LBB92:
.LBB93:
	lwz 0,4(31)
.LBE93:
.LBE92:
	.loc 1 228 0
	addi 9,26,18
.LBB95:
.LBB94:
	.loc 1 95 0
	lha 3,5(26)
	mtctr 0
	stw 9,1344(1)
	bctrl
.LVL54:
.LBE94:
.LBE95:
.LBB96:
.LBB97:
	lwz 0,4(31)
	lha 3,8(26)
	mtctr 0
	bctrl
.LVL55:
.LBE97:
.LBE96:
.LBB98:
.LBB99:
	lwz 0,4(31)
	lha 3,10(26)
	mtctr 0
	bctrl
.LVL56:
.LBE99:
.LBE98:
.LBB100:
.LBB101:
	lwz 0,4(31)
	lha 3,12(26)
	mtctr 0
	bctrl
.LVL57:
.LBE101:
.LBE100:
.LBB102:
.LBB103:
	lwz 0,4(31)
.LBE103:
.LBE102:
	.loc 1 223 0
	rlwinm 23,3,0,0xffff
.LVL58:
.LBB105:
.LBB104:
	.loc 1 95 0
	lha 3,14(26)
	mtctr 0
	bctrl
.LVL59:
.LBE104:
.LBE105:
	.loc 1 230 0
	cmpwi 7,22,2
	.loc 1 227 0
	lbz 0,16(26)
	.loc 1 225 0
	rlwinm 21,3,0,0xffff
.LVL60:
	.loc 1 230 0
	lwz 9,1344(1)
	.loc 1 227 0
	stw 0,1336(1)
.LVL61:
	.loc 1 230 0
	beq- 7,.L21
	cmpwi 7,22,10
	beq- 7,.L21
	cmpwi 7,22,3
	beq- 7,.L21
	.loc 1 231 0
	lis 3,.LC11@ha
	addi 4,1,308
.LVL62:
	la 3,.LC11@l(3)
	crxor 6,6,6
	bl _Z9Sys_ErrorPKcz
.LVL63:
	lwz 9,1344(1)
.L21:
	.loc 1 234 0
	cmpwi 7,20,0
	bne- 7,.L73
.L22:
	.loc 1 238 0
	lwz 11,1336(1)
	cmpwi 3,11,32
	beq- 3,.L23
	cmpwi 7,11,24
	beq- 7,.L23
	cmpwi 7,22,3
	beq- 7,.L58
	.loc 1 239 0
	lis 3,.LC13@ha
	addi 4,1,308
.LVL64:
	la 3,.LC13@l(3)
	stw 9,1344(1)
	crxor 6,6,6
	bl _Z9Sys_ErrorPKcz
.LVL65:
	lwz 9,1344(1)
.L23:
	.loc 1 242 0
	addi 20,22,-2
.LVL66:
	rlwinm 20,20,0,0xff
	cmplwi 7,20,1
	ble- 7,.L24
	mullw 31,23,21
.L25:
.LVL67:
	.loc 1 260 0
	slwi 3,31,2
	stw 9,1344(1)
	bl malloc
	.loc 1 263 0
	cmpwi 7,19,0
	.loc 1 260 0
	mr 31,3
.LVL68:
	.loc 1 263 0
	lwz 9,1344(1)
	beq- 7,.L26
	.loc 1 264 0
	add 9,9,19
.LVL69:
.L26:
.LBB106:
	.loc 1 267 0
	cmplwi 7,20,1
	ble- 7,.L74
.LBB107:
	.loc 1 315 0
	cmpwi 7,22,10
	beq- 7,.L75
.LVL70:
.L28:
.LBE107:
.LBE106:
	.loc 1 413 0
	mr 3,26
.LBE87:
.LBE86:
.LBE85:
.LBB131:
	.loc 1 492 0
	lis 22,.LC18@ha
.LBE131:
.LBB140:
.LBB129:
.LBB127:
	.loc 1 413 0
	bl free
	.loc 1 414 0
	mr 3,25
	bl fclose
.LBE127:
.LBE129:
.LBE140:
	.loc 1 481 0
	lis 3,.LC16@ha
	mr 5,23
	mr 6,21
	mr 4,31
	la 3,.LC16@l(3)
	crxor 6,6,6
	bl printf
	.loc 1 482 0
	addi 4,1,8
	li 3,1
.LBB141:
	.loc 1 525 0
	lis 24,.LC19@ha
.LBE141:
	.loc 1 482 0
	bl _Z14qgxGenTexturesiPj
.LVL71:
	.loc 1 483 0
	lwz 3,8(1)
.LBB142:
	.loc 1 526 0
	lis 25,.LC20@ha
.LVL72:
	lis 26,wgPipe@ha
.LVL73:
.LBE142:
	.loc 1 483 0
	bl _Z14qgxBindTexturej
	.loc 1 484 0
	li 3,0
	bl _Z15qgxActiveTexMapj
	.loc 1 486 0
	li 4,0
	mr 5,23
	mr 8,31
	ori 4,4,33776
	mr 6,21
	li 7,6408
	li 3,0
	bl _Z13qgxTexImage2DiiiiiPh
	.loc 1 488 0
	lis 3,.LC17@ha
	la 3,.LC17@l(3)
.LBB143:
	.loc 1 513 0
	lis 31,.LANCHOR2@ha
.LVL74:
.LBE143:
	.loc 1 488 0
	bl puts
.LVL75:
	.loc 1 490 0
	lis 11,.LC22@ha
	lfs 31,.LC22@l(11)
.LVL76:
.LBB144:
	.loc 1 494 0
	bl WPAD_ScanPads
	.loc 1 495 0
	li 3,0
	.loc 1 513 0
	la 31,.LANCHOR2@l(31)
	.loc 1 495 0
	bl WPAD_ButtonsDown
	.loc 1 514 0
	addi 23,31,12
.LVL77:
	.loc 1 495 0
	andi. 0,3,128
	bne- 0,.L76
.LVL78:
.L55:
	.loc 1 492 0
	lfs 0,.LC18@l(22)
	.loc 1 497 0
	li 3,0
	.loc 1 492 0
	fadds 31,31,0
	.loc 1 497 0
	bl WPAD_ButtonsHeld
	.loc 1 506 0
	lfs 4,.LC6@l(27)
	addi 3,1,244
	lfs 2,.LC4@l(29)
	lfs 3,.LC5@l(28)
	lfs 1,.LC3@l(30)
	bl guPerspective
	.loc 1 507 0
	addi 3,1,244
	li 4,0
	bl GX_LoadProjectionMtx
	.loc 1 510 0
	li 7,0
	li 8,0
	li 9,2
	li 6,1
	li 4,0
	li 5,0
	li 3,4
	bl GX_SetChanCtrl
	.loc 1 511 0
	li 3,1
	bl GX_SetNumChans
	.loc 1 513 0
	li 3,9
	mr 4,31
	li 5,20
	bl _Z19qgxSetVertexPointeriPvi
	.loc 1 514 0
	li 5,20
	mr 4,23
	li 3,13
	bl _Z19qgxSetVertexPointeriPvi
	.loc 1 517 0
	li 3,0
	bl _Z15qgxActiveTexMapj
	.loc 1 518 0
	lwz 3,8(1)
	bl _Z14qgxBindTexturej
	.loc 1 521 0
	li 3,1
	li 4,0
	bl GX_SetDstAlpha
	.loc 1 522 0
	li 6,5
	li 5,1
	li 4,1
	li 3,1
	bl GX_SetBlendMode
	.loc 1 524 0
	addi 3,1,148
	bl ps_guMtxIdentity
	.loc 1 525 0
	lfs 1,.LC19@l(24)
	addi 3,1,148
	addi 4,1,64
	fmuls 1,31,1
	bl ps_guMtxRotAxisRad
	.loc 1 526 0
	lis 9,.LC22@ha
	lfs 1,.LC22@l(9)
	addi 3,1,148
	lfs 3,.LC20@l(25)
	mr 4,3
	fmr 2,1
	bl ps_guMtxTransApply
	.loc 1 527 0
	addi 5,1,100
	addi 3,1,196
	addi 4,1,148
	bl ps_guMtxConcat
	.loc 1 528 0
	addi 3,1,100
	li 4,0
	bl GX_LoadPosMtxImm
	.loc 1 529 0
	li 4,0
	addi 3,1,100
	bl GX_LoadNrmMtxImm
	.loc 1 530 0
	li 3,0
	bl GX_SetCurrentMtx
	.loc 1 532 0
	addi 3,1,48
	bl _Z21qgxGetCurrentGXVtxFmtv
	.loc 1 533 0
	lbz 4,51(1)
	li 3,128
	li 5,24
	bl GX_Begin
.LVL79:
.LBB132:
.LBB133:
.LBB134:
	.file 2 "c:/utils/devkitPro/libogc/include/ogc/gx.h"
	.loc 2 2219 0
	li 0,24
	lwz 11,wgPipe@l(26)
	mtctr 0
.LBE134:
.LBE133:
.LBE132:
	.loc 1 534 0
	li 9,0
.LVL80:
.L56:
.LBB139:
	.loc 1 535 0 discriminator 2
	rlwinm 0,9,0,0xffff
.LVL81:
.LBB136:
.LBB135:
	.loc 2 2219 0 discriminator 2
	sth 0,0(11)
	.loc 2 2220 0 discriminator 2
.LVL82:
.LBE135:
.LBE136:
.LBB137:
.LBB138:
	.loc 2 2399 0 discriminator 2
	sth 0,0(11)
	.loc 2 2400 0 discriminator 2
.LBE138:
.LBE137:
	.loc 1 534 0 discriminator 2
	addi 9,9,1
.LVL83:
	bdnz .L56
.LBE139:
	.loc 1 540 0
	li 4,3
	li 5,1
	li 3,1
	bl GX_SetZMode
.LVL84:
	.loc 1 541 0
	li 3,1
	bl GX_SetColorUpdate
	.loc 1 543 0
	li 3,1
	bl _Z15Vid_SwapBuffersb
.LVL85:
	.loc 1 494 0
	bl WPAD_ScanPads
	.loc 1 495 0
	li 3,0
	bl WPAD_ButtonsDown
	andi. 0,3,128
	beq+ 0,.L55
.LVL86:
.L76:
	.loc 1 495 0 is_stmt 0 discriminator 1
	li 3,0
	bl exit
.LVL87:
.L75:
.LBE144:
.LBB145:
.LBB130:
.LBB128:
.LBB124:
.LBB110:
.LBB108:
	.loc 1 323 0 is_stmt 1
	cmpwi 7,21,0
	addi 15,21,-1
	beq- 7,.L28
	cmpwi 7,23,0
	li 16,0
	li 17,0
	li 18,0
	mfcr 0
	rlwinm 0,0,28,0xf0000000
	stw 0,1340(1)
	lwz 0,1336(1)
	cmpwi 4,0,24
	li 0,255
.LVL88:
.L54:
	.loc 1 325 0
	lwz 11,1340(1)
	rlwinm 11,11,4,0xffffffff
	mtcrf 1,11
	rlwinm 11,11,28,0xffffffff
	beq- 7,.L37
	.loc 1 324 0
	mullw 24,23,15
	.loc 1 325 0
	li 22,0
	.loc 1 324 0
	slwi 24,24,2
	add 24,31,24
.LVL89:
.L53:
	.loc 1 326 0
	lbz 14,0(9)
.LVL90:
	addi 20,9,1
.LVL91:
	.loc 1 328 0
	li 19,0
	andi. 11,14,128
	.loc 1 327 0
	rlwinm 14,14,0,25,31
.LVL92:
	addi 14,14,1
.LVL93:
	.loc 1 328 0
	bne- 0,.L77
.L61:
	.loc 1 367 0
	beq- 4,.L49
	beq- 3,.L78
	.loc 1 388 0
	lis 9,.LC21@ha
	lwz 5,1336(1)
	lwz 3,.LC21@l(9)
	addi 4,1,308
.LVL94:
	stw 0,1344(1)
	crxor 6,6,6
	bl _Z9Sys_ErrorPKcz
.LVL95:
	lwz 0,1344(1)
.L51:
.LVL96:
	.loc 1 391 0
	addi 22,22,1
.LVL97:
	.loc 1 392 0
	cmpw 7,23,22
	beq- 7,.L79
.LVL98:
.L52:
	.loc 1 366 0
	addi 19,19,1
	rlwinm 19,19,0,0xff
.LVL99:
	cmplw 7,14,19
	bgt+ 7,.L61
	mr 9,20
.LVL100:
.L47:
	.loc 1 325 0
	cmpw 7,23,22
	bgt+ 7,.L53
.LVL101:
.L37:
	.loc 1 323 0
	cmpwi 7,15,0
	addi 15,15,-1
.LVL102:
	bne+ 7,.L54
	b .L28
.LVL103:
.L77:
	.loc 1 329 0
	beq- 4,.L40
	beq- 3,.L80
	.loc 1 343 0
	lis 9,.LC21@ha
	lwz 5,1336(1)
	lwz 3,.LC21@l(9)
	addi 4,1,308
.LVL104:
	stw 0,1344(1)
	crxor 6,6,6
	bl _Z9Sys_ErrorPKcz
.LVL105:
	.loc 1 326 0
	lwz 0,1344(1)
	mr 9,20
.LVL106:
.L42:
	.loc 1 347 0
	li 11,0
	b .L46
.LVL107:
.L81:
	.loc 1 351 0
	addi 24,24,4
.LVL108:
.L44:
	.loc 1 347 0
	addi 11,11,1
	rlwinm 11,11,0,0xff
.LVL109:
	cmplw 7,14,11
	ble- 7,.L47
.LVL110:
.L46:
	.loc 1 352 0
	addi 22,22,1
.LVL111:
	.loc 1 348 0
	stb 18,0(24)
.LVL112:
	.loc 1 353 0
	cmpw 7,23,22
	.loc 1 349 0
	stb 17,1(24)
.LVL113:
	.loc 1 350 0
	stb 16,2(24)
.LVL114:
	.loc 1 351 0
	stb 0,3(24)
.LVL115:
	.loc 1 353 0
	bne+ 7,.L81
.LVL116:
	.loc 1 355 0
	cmpwi 7,15,0
	beq- 7,.L28
	.loc 1 356 0
	addi 15,15,-1
.LVL117:
	.loc 1 354 0
	li 22,0
	.loc 1 361 0
	mullw 24,23,15
.LVL118:
	slwi 24,24,2
	add 24,31,24
.LVL119:
	b .L44
.LVL120:
.L58:
.LBE108:
.LBE110:
.LBE124:
	.loc 1 242 0
	li 20,1
.LVL121:
.L24:
	.loc 1 243 0
	mullw 31,23,21
	lwz 0,1336(1)
	srawi 11,0,3
	.loc 1 244 0
	addi 0,24,-18
	.loc 1 243 0
	mullw 11,31,11
	.loc 1 244 0
	subf 0,19,0
	cmpw 7,11,0
	ble+ 7,.L25
	.loc 1 245 0
	lis 3,.LC14@ha
	addi 4,1,308
.LVL122:
	la 3,.LC14@l(3)
	stw 9,1344(1)
	crxor 6,6,6
	bl _Z9Sys_ErrorPKcz
.LVL123:
	lwz 9,1344(1)
	b .L25
.LVL124:
.L78:
.LBB125:
.LBB111:
.LBB109:
	.loc 1 391 0
	addi 22,22,1
	.loc 1 378 0
	lbz 16,0(20)
.LVL125:
	.loc 1 392 0
	cmpw 7,23,22
	.loc 1 379 0
	lbz 17,1(20)
.LVL126:
	.loc 1 380 0
	lbz 18,2(20)
.LVL127:
	.loc 1 381 0
	lbz 0,3(20)
.LVL128:
	addi 20,20,4
.LVL129:
	.loc 1 382 0
	stb 18,0(24)
	.loc 1 383 0
	stb 17,1(24)
	.loc 1 384 0
	stb 16,2(24)
	.loc 1 385 0
	stb 0,3(24)
	addi 24,24,4
.LVL130:
	.loc 1 392 0
	bne+ 7,.L52
.L79:
.LVL131:
	.loc 1 394 0
	cmpwi 7,15,0
	beq- 7,.L28
	.loc 1 395 0
	addi 15,15,-1
.LVL132:
	.loc 1 393 0
	li 22,0
	.loc 1 400 0
	mullw 24,23,15
.LVL133:
	slwi 24,24,2
	add 24,31,24
.LVL134:
	b .L52
.LVL135:
.L49:
	.loc 1 369 0
	lbz 16,0(20)
.LVL136:
	.loc 1 375 0
	li 11,-1
	.loc 1 370 0
	lbz 17,1(20)
.LVL137:
	.loc 1 371 0
	lbz 18,2(20)
.LVL138:
	addi 20,20,3
.LVL139:
	.loc 1 373 0
	stb 17,1(24)
	.loc 1 372 0
	stb 18,0(24)
	.loc 1 374 0
	stb 16,2(24)
	.loc 1 375 0
	stb 11,3(24)
	addi 24,24,4
.LVL140:
	b .L51
.LVL141:
.L80:
	.loc 1 337 0
	lbz 16,1(9)
.LVL142:
	.loc 1 338 0
	lbz 17,2(9)
.LVL143:
	.loc 1 339 0
	lbz 18,3(9)
.LVL144:
	.loc 1 340 0
	lbz 0,4(9)
.LVL145:
	addi 9,9,5
.LVL146:
	b .L42
.LVL147:
.L40:
	.loc 1 331 0
	lbz 16,1(9)
.LVL148:
	.loc 1 334 0
	li 0,255
	.loc 1 332 0
	lbz 17,2(9)
.LVL149:
	.loc 1 333 0
	lbz 18,3(9)
.LVL150:
	addi 9,9,4
.LVL151:
	b .L42
.LVL152:
.L73:
.LBE109:
.LBE111:
.LBE125:
	.loc 1 235 0
	lis 3,.LC12@ha
	addi 4,1,308
.LVL153:
	la 3,.LC12@l(3)
	stw 9,1344(1)
	crxor 6,6,6
	bl _Z9Sys_ErrorPKcz
.LVL154:
	lwz 9,1344(1)
	b .L22
.LVL155:
.L74:
.LBB126:
.LBB112:
	.loc 1 270 0
	cmpwi 7,21,0
	addi 19,21,-1
.LVL156:
	beq- 7,.L28
	.loc 1 417 0
	slwi 18,19,2
	cmpwi 7,23,0
	mullw 18,23,18
	lwz 0,1336(1)
.LBB113:
.LBB114:
.LBB115:
	.loc 1 309 0
	lis 17,.LC15@ha
	cmpwi 4,0,24
	.loc 1 276 0
	cmpwi 2,0,8
	mfcr 11
	rlwinm 11,11,28,0xf0000000
.LBE115:
.LBE114:
.LBE113:
	.loc 1 417 0
	add 18,31,18
	mulli 16,23,-4
.LBB122:
.LBB119:
.LBB116:
	.loc 1 296 0
	li 20,-1
	stw 11,1340(1)
	.loc 1 309 0
	la 17,.LC15@l(17)
.LVL157:
.L36:
.LBE116:
	.loc 1 273 0
	lwz 11,1340(1)
	rlwinm 11,11,4,0xffffffff
	mtcrf 1,11
	rlwinm 11,11,28,0xffffffff
	beq- 7,.L29
.LBE119:
	.loc 1 272 0
	mr 24,18
	.loc 1 273 0
	li 22,0
.LVL158:
.L35:
.LBB120:
.LBB117:
	.loc 1 276 0
	beq- 4,.L32
	beq- 3,.L33
	beq- 2,.L82
	.loc 1 309 0
	lwz 5,1336(1)
	mr 3,17
	addi 4,1,308
.LVL159:
	stw 9,1344(1)
	crxor 6,6,6
	bl _Z9Sys_ErrorPKcz
.LVL160:
	lwz 9,1344(1)
.L34:
.LVL161:
.LBE117:
	.loc 1 273 0
	addi 22,22,1
.LVL162:
	cmpw 7,23,22
	bgt+ 7,.L35
.LVL163:
.L29:
.LBE120:
.LBE122:
	.loc 1 270 0
	cmpwi 7,19,0
	add 18,18,16
	addi 19,19,-1
.LVL164:
	bne+ 7,.L36
	b .L28
.L82:
.LBB123:
.LBB121:
.LBB118:
	.loc 1 280 0
	lbz 0,0(9)
.LVL165:
	addi 9,9,1
.LVL166:
	.loc 1 286 0
	stb 20,3(24)
	.loc 1 283 0
	stb 0,0(24)
	.loc 1 284 0
	stb 0,1(24)
.LVL167:
	.loc 1 285 0
	stb 0,2(24)
	.loc 1 286 0
	addi 24,24,4
.LVL168:
	b .L34
.LVL169:
.L33:
	.loc 1 299 0
	lbz 11,0(9)
.LVL170:
	.loc 1 300 0
	lbz 10,1(9)
.LVL171:
	.loc 1 301 0
	lbz 8,2(9)
.LVL172:
	.loc 1 302 0
	lbz 0,3(9)
.LVL173:
	addi 9,9,4
.LVL174:
	.loc 1 303 0
	stb 8,0(24)
	.loc 1 304 0
	stb 10,1(24)
	.loc 1 305 0
	stb 11,2(24)
	.loc 1 306 0
	stb 0,3(24)
	addi 24,24,4
.LVL175:
	b .L34
.LVL176:
.L32:
	.loc 1 290 0
	lbz 0,0(9)
.LVL177:
	.loc 1 291 0
	lbz 10,1(9)
.LVL178:
	.loc 1 292 0
	lbz 11,2(9)
.LVL179:
	addi 9,9,3
.LVL180:
	.loc 1 294 0
	stb 10,1(24)
	.loc 1 293 0
	stb 11,0(24)
	.loc 1 295 0
	stb 0,2(24)
	.loc 1 296 0
	stb 20,3(24)
	addi 24,24,4
.LVL181:
	b .L34
.LBE118:
.LBE121:
.LBE123:
.LBE112:
.LBE126:
.LBE128:
.LBE130:
.LBE145:
.LBE151:
	.cfi_endproc
.LFE79:
	.size	_Z5_mainiPPc, .-_Z5_mainiPPc
	.globl cubedata
	.section	.rodata
	.align 2
	.set	.LANCHOR1,. + 0
.LC0:
	.long	0
	.long	1065353216
	.long	1065353216
	.long	0
	.long	1065353216
	.long	0
	.long	0
	.long	1065353216
	.long	0
	.section	.rodata.cst4,"aM",@progbits,4
	.align 2
.LC1:
	.4byte	1065353216
.LC2:
	.4byte	-1082130432
.LC3:
	.4byte	1110704128
.LC4:
	.4byte	1068149419
.LC5:
	.4byte	1036831949
.LC6:
	.4byte	1325400064
.LC18:
	.4byte	1008981770
.LC19:
	.4byte	1016003125
.LC20:
	.4byte	-1061158912
.LC21:
	.4byte	.LC15
.LC22:
	.4byte	0
	.section	".data"
	.align 2
	.set	.LANCHOR2,. + 0
	.type	cubedata, @object
	.size	cubedata, 480
cubedata:
	.long	-1082130432
	.long	-1082130432
	.long	1065353216
	.long	0
	.long	0
	.long	-1082130432
	.long	1065353216
	.long	1065353216
	.long	0
	.long	1065353216
	.long	1065353216
	.long	1065353216
	.long	1065353216
	.long	1065353216
	.long	1065353216
	.long	1065353216
	.long	-1082130432
	.long	1065353216
	.long	1065353216
	.long	0
	.long	1065353216
	.long	-1082130432
	.long	-1082130432
	.long	0
	.long	1065353216
	.long	1065353216
	.long	1065353216
	.long	-1082130432
	.long	0
	.long	0
	.long	-1082130432
	.long	1065353216
	.long	-1082130432
	.long	1065353216
	.long	0
	.long	-1082130432
	.long	-1082130432
	.long	-1082130432
	.long	1065353216
	.long	1065353216
	.long	-1082130432
	.long	-1082130432
	.long	-1082130432
	.long	0
	.long	1065353216
	.long	-1082130432
	.long	-1082130432
	.long	1065353216
	.long	0
	.long	0
	.long	1065353216
	.long	-1082130432
	.long	1065353216
	.long	1065353216
	.long	0
	.long	1065353216
	.long	-1082130432
	.long	-1082130432
	.long	1065353216
	.long	1065353216
	.long	1065353216
	.long	1065353216
	.long	-1082130432
	.long	0
	.long	1065353216
	.long	1065353216
	.long	1065353216
	.long	1065353216
	.long	0
	.long	0
	.long	-1082130432
	.long	1065353216
	.long	1065353216
	.long	1065353216
	.long	0
	.long	-1082130432
	.long	1065353216
	.long	-1082130432
	.long	1065353216
	.long	1065353216
	.long	-1082130432
	.long	-1082130432
	.long	-1082130432
	.long	0
	.long	1065353216
	.long	-1082130432
	.long	1065353216
	.long	-1082130432
	.long	0
	.long	0
	.long	-1082130432
	.long	1065353216
	.long	1065353216
	.long	1065353216
	.long	0
	.long	-1082130432
	.long	-1082130432
	.long	1065353216
	.long	1065353216
	.long	1065353216
	.long	1065353216
	.long	-1082130432
	.long	1065353216
	.long	0
	.long	1065353216
	.long	1065353216
	.long	1065353216
	.long	1065353216
	.long	0
	.long	0
	.long	1065353216
	.long	1065353216
	.long	-1082130432
	.long	1065353216
	.long	0
	.long	1065353216
	.long	-1082130432
	.long	-1082130432
	.long	1065353216
	.long	1065353216
	.section	.rodata.str1.4,"aMS",@progbits,1
	.align 2
.LC7:
	.string	"/"
	.zero	2
.LC8:
	.string	"2) fnmatch %s (%s)\n"
.LC9:
	.string	"rb"
	.zero	1
.LC10:
	.string	">>> tga end %d\r\n"
	.zero	3
.LC11:
	.string	"LoadTGA( %s ): Only type 2 (RGB), 3 (gray), and 10 (RGB) TGA images supported\n"
	.zero	1
.LC12:
	.string	"LoadTGA( %s ): colormaps not supported\n"
.LC13:
	.string	"LoadTGA( %s ): Only 32 or 24 bit images supported (no colormaps)\n"
	.zero	2
.LC14:
	.string	"LoadTGA( %s ): incomplete file\n"
.LC15:
	.string	"LoadTGA( %s ): illegal pixel_size '%d'\n"
.LC16:
	.string	"loaded tga %p %d %d\r\n"
	.zero	2
.LC17:
	.string	"initalized\r"
	.section	".bss"
	.align 2
	.set	.LANCHOR0,. + 0
	.type	_ZL9_BigShort, @object
	.size	_ZL9_BigShort, 4
_ZL9_BigShort:
	.zero	4
	.type	_ZL12_LittleShort, @object
	.size	_ZL12_LittleShort, 4
_ZL12_LittleShort:
	.zero	4
	.type	_ZL8_BigLong, @object
	.size	_ZL8_BigLong, 4
_ZL8_BigLong:
	.zero	4
	.type	_ZL11_LittleLong, @object
	.size	_ZL11_LittleLong, 4
_ZL11_LittleLong:
	.zero	4
	.type	_ZL9_BigFloat, @object
	.size	_ZL9_BigFloat, 4
_ZL9_BigFloat:
	.zero	4
	.type	_ZL12_LittleFloat, @object
	.size	_ZL12_LittleFloat, 4
_ZL12_LittleFloat:
	.zero	4
	.type	_ZL12_BigRevBytes, @object
	.size	_ZL12_BigRevBytes, 4
_ZL12_BigRevBytes:
	.zero	4
	.type	_ZL15_LittleRevBytes, @object
	.size	_ZL15_LittleRevBytes, 4
_ZL15_LittleRevBytes:
	.zero	4
	.type	_ZL15_LittleBitField, @object
	.size	_ZL15_LittleBitField, 4
_ZL15_LittleBitField:
	.zero	4
	.type	_ZL14_SixtetsForInt, @object
	.size	_ZL14_SixtetsForInt, 4
_ZL14_SixtetsForInt:
	.zero	4
	.type	_ZL14_IntForSixtets, @object
	.size	_ZL14_IntForSixtets, 4
_ZL14_IntForSixtets:
	.zero	4
	.section	".text"
.Letext0:
	.file 3 "c:\\utils\\devkitpro\\devkitppc\\bin\\../lib/gcc/powerpc-eabi/4.6.3/../../../../powerpc-eabi/include/stdint.h"
	.file 4 "c:/utils/devkitPro/libogc/include/gctypes.h"
	.file 5 "c:/utils/devkitPro/libogc/include/ogc/gu.h"
	.file 6 "c:\\utils\\devkitpro\\devkitppc\\bin\\../lib/gcc/powerpc-eabi/4.6.3/../../../../powerpc-eabi/include/machine/_types.h"
	.file 7 "c:\\utils\\devkitpro\\devkitppc\\bin\\../lib/gcc/powerpc-eabi/4.6.3/../../../../powerpc-eabi/include/sys/lock.h"
	.file 8 "c:\\utils\\devkitpro\\devkitppc\\bin\\../lib/gcc/powerpc-eabi/4.6.3/../../../../powerpc-eabi/include/sys/_types.h"
	.file 9 "c:\\utils\\devkitpro\\devkitppc\\bin\\../lib/gcc/powerpc-eabi/4.6.3/include/stddef.h"
	.file 10 "c:\\utils\\devkitpro\\devkitppc\\bin\\../lib/gcc/powerpc-eabi/4.6.3/../../../../powerpc-eabi/include/sys/reent.h"
	.file 11 "c:\\utils\\devkitpro\\devkitppc\\bin\\../lib/gcc/powerpc-eabi/4.6.3/../../../../powerpc-eabi/include/sys/types.h"
	.file 12 "c:\\utils\\devkitpro\\devkitppc\\bin\\../lib/gcc/powerpc-eabi/4.6.3/../../../../powerpc-eabi/include/stdio.h"
	.file 13 "c:\\utils\\devkitpro\\devkitppc\\bin\\../lib/gcc/powerpc-eabi/4.6.3/../../../../powerpc-eabi/include/sys/stat.h"
	.file 14 "c:\\utils\\devkitpro\\devkitppc\\bin\\../lib/gcc/powerpc-eabi/4.6.3/../../../../powerpc-eabi/include/sys/iosupport.h"
	.file 15 "c:\\utils\\devkitpro\\devkitppc\\bin\\../lib/gcc/powerpc-eabi/4.6.3/../../../../powerpc-eabi/include/sys/dirent.h"
	.file 16 "d:/Data/Nintendo/DoomGXSchratch/src/gx/gx_qgx.h"
	.file 17 "d:/Data/Nintendo/DoomGXSchratch/src/gx/gx_shader.h"