	.file	"AAS_routing.cpp"
	.section	".text"
.Ltext0:
	.section	.text._ZN14idFixedWinding5ClearEv,"axG",@progbits,_ZN14idFixedWinding5ClearEv,comdat
	.align 2
	.weak	_ZN14idFixedWinding5ClearEv
	.type	_ZN14idFixedWinding5ClearEv, @function
_ZN14idFixedWinding5ClearEv:
.LFB1502:
	.file 1 "d:/Data/Nintendo/DoomGX/src/game/ai/../../idlib/../idlib/geometry/Winding.h"
	.loc 1 398 0
	.cfi_startproc
.LVL0:
	.loc 1 399 0
	li 0,0
	.loc 1 400 0
	.loc 1 399 0
	stw 0,4(3)
	.loc 1 400 0
	blr
	.cfi_endproc
.LFE1502:
	.size	_ZN14idFixedWinding5ClearEv, .-_ZN14idFixedWinding5ClearEv
	.section	.text._ZN9idWinding5ClearEv,"axG",@progbits,_ZN9idWinding5ClearEv,comdat
	.align 2
	.weak	_ZN9idWinding5ClearEv
	.type	_ZN9idWinding5ClearEv, @function
_ZN9idWinding5ClearEv:
.LFB1473:
	.loc 1 249 0
	.cfi_startproc
.LVL1:
	mflr 0
	stwu 1,-16(1)
.LCFI0:
	.cfi_def_cfa_offset 16
	.cfi_register 65, 0
	stw 31,12(1)
	mr 31,3
	.cfi_offset 31, -4
	stw 0,20(1)
	.loc 1 250 0
	li 0,0
	.cfi_offset 65, 4
	.loc 1 251 0
	lwz 3,8(3)
.LVL2:
	.loc 1 250 0
	stw 0,4(31)
	.loc 1 251 0
	cmpwi 7,3,0
	beq- 7,.L3
	.loc 1 251 0 is_stmt 0 discriminator 1
	bl _ZdaPv
.L3:
	.loc 1 252 0 is_stmt 1
	li 0,0
	stw 0,8(31)
	.loc 1 253 0
	lwz 0,20(1)
	lwz 31,12(1)
.LVL3:
	mtlr 0
	addi 1,1,16
.LCFI1:
	.cfi_def_cfa_offset 0
	.cfi_restore 31
	blr
	.cfi_endproc
.LFE1473:
	.size	_ZN9idWinding5ClearEv, .-_ZN9idWinding5ClearEv
	.section	.text._ZN9idWindingD2Ev,"axG",@progbits,_ZN9idWindingD5Ev,comdat
	.align 2
	.weak	_ZN9idWindingD2Ev
	.type	_ZN9idWindingD2Ev, @function
_ZN9idWindingD2Ev:
.LFB1461:
	.loc 1 183 0
	.cfi_startproc
.LVL4:
	mflr 0
	stwu 1,-16(1)
.LCFI2:
	.cfi_def_cfa_offset 16
	.cfi_register 65, 0
.LBB1062:
	lis 9,_ZTV9idWinding+8@ha
.LBE1062:
	stw 31,12(1)
	mr 31,3
	.cfi_offset 31, -4
	stw 0,20(1)
.LBB1063:
	.loc 1 183 0
	la 0,_ZTV9idWinding+8@l(9)
	.cfi_offset 65, 4
	.loc 1 184 0
	lwz 3,8(3)
.LVL5:
	.loc 1 183 0
	stw 0,0(31)
	.loc 1 184 0
	cmpwi 7,3,0
	beq- 7,.L6
	.loc 1 184 0 is_stmt 0 discriminator 1
	bl _ZdaPv
.L6:
	.loc 1 185 0 is_stmt 1
	li 0,0
	stw 0,8(31)
.LBE1063:
	.loc 1 186 0
	lwz 0,20(1)
	lwz 31,12(1)
.LVL6:
	mtlr 0
	addi 1,1,16
.LCFI3:
	.cfi_def_cfa_offset 0
	.cfi_restore 31
	blr
	.cfi_endproc
.LFE1461:
	.size	_ZN9idWindingD2Ev, .-_ZN9idWindingD2Ev
	.section	.text._ZN14idFixedWindingD0Ev,"axG",@progbits,_ZN14idFixedWindingD5Ev,comdat
	.align 2
	.weak	_ZN14idFixedWindingD0Ev
	.type	_ZN14idFixedWindingD0Ev, @function
_ZN14idFixedWindingD0Ev:
.LFB1500:
	.loc 1 380 0
	.cfi_startproc
.LVL7:
	mflr 0
	stwu 1,-8(1)
.LCFI4:
	.cfi_def_cfa_offset 8
	.cfi_register 65, 0
.LBB1070:
.LBB1071:
.LBB1072:
.LBB1073:
.LBB1074:
.LBB1075:
	.loc 1 183 0
	lis 11,_ZTV9idWinding+8@ha
.LBE1075:
.LBE1074:
.LBE1073:
.LBE1072:
.LBE1071:
.LBE1070:
	.loc 1 380 0
	stw 0,12(1)
.LBB1081:
.LBB1080:
.LBB1079:
	.loc 1 381 0
	li 0,0
	.cfi_offset 65, 4
	stw 0,8(3)
.LVL8:
.LBB1078:
.LBB1077:
.LBB1076:
	.loc 1 183 0
	la 0,_ZTV9idWinding+8@l(11)
	stw 0,0(3)
.LBE1076:
.LBE1077:
.LBE1078:
.LBE1079:
.LBE1080:
.LBE1081:
	.loc 1 382 0
	bl _ZdlPv
.LVL9:
	lwz 0,12(1)
	addi 1,1,8
.LCFI5:
	.cfi_def_cfa_offset 0
	mtlr 0
	blr
	.cfi_endproc
.LFE1500:
	.size	_ZN14idFixedWindingD0Ev, .-_ZN14idFixedWindingD0Ev
	.section	.text._ZN14idFixedWindingD2Ev,"axG",@progbits,_ZN14idFixedWindingD5Ev,comdat
	.align 2
	.weak	_ZN14idFixedWindingD2Ev
	.type	_ZN14idFixedWindingD2Ev, @function
_ZN14idFixedWindingD2Ev:
.LFB1498:
	.loc 1 380 0
	.cfi_startproc
.LVL10:
.LBB1086:
	.loc 1 381 0
	li 0,0
.LBB1087:
.LBB1088:
.LBB1089:
	.loc 1 183 0
	lis 9,_ZTV9idWinding+8@ha
.LBE1089:
.LBE1088:
.LBE1087:
	.loc 1 381 0
	stw 0,8(3)
.LVL11:
.LBB1092:
.LBB1091:
.LBB1090:
	.loc 1 183 0
	la 0,_ZTV9idWinding+8@l(9)
	stw 0,0(3)
.LBE1090:
.LBE1091:
.LBE1092:
.LBE1086:
	.loc 1 382 0
	blr
	.cfi_endproc
.LFE1498:
	.size	_ZN14idFixedWindingD2Ev, .-_ZN14idFixedWindingD2Ev
	.section	.text._ZN9idWindingD0Ev,"axG",@progbits,_ZN9idWindingD5Ev,comdat
	.align 2
	.weak	_ZN9idWindingD0Ev
	.type	_ZN9idWindingD0Ev, @function
_ZN9idWindingD0Ev:
.LFB1463:
	.loc 1 183 0
	.cfi_startproc
.LVL12:
	mflr 0
	stwu 1,-16(1)
.LCFI6:
	.cfi_def_cfa_offset 16
	.cfi_register 65, 0
.LBB1096:
.LBB1097:
.LBB1098:
	lis 9,_ZTV9idWinding+8@ha
.LBE1098:
.LBE1097:
.LBE1096:
	stw 31,12(1)
	mr 31,3
	.cfi_offset 31, -4
.LVL13:
	stw 0,20(1)
.LBB1103:
.LBB1101:
.LBB1099:
	.loc 1 183 0
	la 0,_ZTV9idWinding+8@l(9)
	.cfi_offset 65, 4
	.loc 1 184 0
	lwz 3,8(3)
.LVL14:
	.loc 1 183 0
	stw 0,0(31)
	.loc 1 184 0
	cmpwi 7,3,0
	beq- 7,.L16
	bl _ZdaPv
.L16:
	.loc 1 185 0
	li 0,0
.LBE1099:
.LBE1101:
.LBE1103:
	.loc 1 186 0
	mr 3,31
.LBB1104:
.LBB1102:
.LBB1100:
	.loc 1 185 0
	stw 0,8(31)
.LBE1100:
.LBE1102:
.LBE1104:
	.loc 1 186 0
	bl _ZdlPv
	lwz 0,20(1)
	lwz 31,12(1)
.LVL15:
	mtlr 0
	addi 1,1,16
.LCFI7:
	.cfi_def_cfa_offset 0
	.cfi_restore 31
	blr
	.cfi_endproc
.LFE1463:
	.size	_ZN9idWindingD0Ev, .-_ZN9idWindingD0Ev
	.section	".text"
	.align 2
	.globl _ZN14idRoutingCacheC2Ei
	.type	_ZN14idRoutingCacheC2Ei, @function
_ZN14idRoutingCacheC2Ei:
.LFB2814:
	.file 2 "d:/Data/Nintendo/DoomGX/src/game/ai/AAS_routing.cpp"
	.loc 2 47 0
	.cfi_startproc
.LVL16:
	stwu 1,-16(1)
.LCFI8:
	.cfi_def_cfa_offset 16
	mflr 0
	stw 31,12(1)
	mr 31,3
	.cfi_offset 31, -4
	.cfi_register 65, 0
.LBB1105:
	.loc 2 49 0
	lis 3,.LC0@ha
.LVL17:
.LBE1105:
	.loc 2 47 0
	stw 30,8(1)
.LBB1106:
	.loc 2 49 0
	la 3,.LC0@l(3)
.LBE1106:
	.loc 2 47 0
	mr 30,4
	.cfi_offset 30, -8
.LBB1107:
	.loc 2 49 0
	li 4,48
.LVL18:
.LBE1107:
	.loc 2 47 0
	stw 0,20(1)
.LBB1108:
	.loc 2 49 0
	.cfi_offset 65, 4
	crxor 6,6,6
	bl _Z15Sys_DebugPrintfPKcz
	.loc 2 52 0
	li 0,0
	stw 0,12(31)
	.loc 2 60 0
	mr 3,30
	.loc 2 53 0
	stw 0,8(31)
	.loc 2 54 0
	stw 0,24(31)
	stw 0,20(31)
	.loc 2 55 0
	stw 0,32(31)
	stw 0,28(31)
	.loc 2 56 0
	stw 0,16(31)
	.loc 2 57 0
	sth 0,36(31)
	.loc 2 58 0
	stw 0,0(31)
	.loc 2 59 0
	stw 30,4(31)
	.loc 2 60 0
	bl _Znaj
	.loc 2 61 0
	mr 5,30
	.loc 2 60 0
	stw 3,40(31)
	.loc 2 61 0
	li 4,0
	.loc 2 62 0
	slwi 30,30,1
.LVL19:
	.loc 2 61 0
	bl memset
.LVL20:
	.loc 2 62 0
	mr 3,30
	bl _Znaj
	.loc 2 63 0
	mr 5,30
	.loc 2 62 0
	stw 3,44(31)
	.loc 2 63 0
	li 4,0
	bl memset
.LBE1108:
	.loc 2 64 0
	lwz 0,20(1)
	lwz 30,8(1)
	mtlr 0
	lwz 31,12(1)
.LVL21:
	addi 1,1,16
.LCFI9:
	.cfi_def_cfa_offset 0
	.cfi_restore 31
	.cfi_restore 30
	blr
	.cfi_endproc
.LFE2814:
	.size	_ZN14idRoutingCacheC2Ei, .-_ZN14idRoutingCacheC2Ei
	.align 2
	.globl _ZN14idRoutingCacheD2Ev
	.type	_ZN14idRoutingCacheD2Ev, @function
_ZN14idRoutingCacheD2Ev:
.LFB2817:
	.loc 2 71 0
	.cfi_startproc
.LVL22:
	mflr 0
	stwu 1,-16(1)
.LCFI10:
	.cfi_def_cfa_offset 16
	.cfi_register 65, 0
	stw 31,12(1)
	mr 31,3
	.cfi_offset 31, -4
	stw 0,20(1)
.LBB1109:
	.loc 2 72 0
	lwz 3,40(3)
.LVL23:
	cmpwi 7,3,0
	beq- 7,.L21
	.cfi_offset 65, 4
	.loc 2 72 0 is_stmt 0 discriminator 1
	bl _ZdaPv
.L21:
	.loc 2 73 0 is_stmt 1
	lwz 3,44(31)
	cmpwi 7,3,0
	beq- 7,.L20
	.loc 2 73 0 is_stmt 0 discriminator 1
	bl _ZdaPv
.L20:
.LBE1109:
	.loc 2 74 0 is_stmt 1
	lwz 0,20(1)
	lwz 31,12(1)
.LVL24:
	mtlr 0
	addi 1,1,16
.LCFI11:
	.cfi_def_cfa_offset 0
	.cfi_restore 31
	blr
	.cfi_endproc
.LFE2817:
	.size	_ZN14idRoutingCacheD2Ev, .-_ZN14idRoutingCacheD2Ev
	.align 2
	.globl _ZNK14idRoutingCache4SizeEv
	.type	_ZNK14idRoutingCache4SizeEv, @function
_ZNK14idRoutingCache4SizeEv:
.LFB2819:
	.loc 2 81 0
	.cfi_startproc
.LVL25:
	.loc 2 82 0
	lwz 9,4(3)
	.loc 2 83 0
	.loc 2 82 0
	addi 3,9,48
.LVL26:
	slwi 9,9,1
	.loc 2 83 0
	add 3,3,9
	blr
	.cfi_endproc
.LFE2819:
	.size	_ZNK14idRoutingCache4SizeEv, .-_ZNK14idRoutingCache4SizeEv
	.align 2
	.globl _ZNK10idAASLocal14AreaTravelTimeEiRK6idVec3S2_
	.type	_ZNK10idAASLocal14AreaTravelTimeEiRK6idVec3S2_, @function
_ZNK10idAASLocal14AreaTravelTimeEiRK6idVec3S2_:
.LFB2820:
	.loc 2 90 0
	.cfi_startproc
.LVL27:
.LBB1130:
.LBB1131:
.LBB1132:
	.file 3 "d:/Data/Nintendo/DoomGX/src/game/ai/../../idlib/../idlib/math/Vector.h"
	.loc 3 431 0
	lfs 0,4(5)
.LBE1132:
.LBE1131:
	.loc 2 95 0
	slwi 4,4,6
.LVL28:
.LBB1135:
.LBB1133:
	.loc 3 431 0
	lfs 12,4(6)
	lfs 13,0(6)
	fsubs 12,12,0
	lfs 0,0(5)
	lfs 11,8(6)
	fsubs 13,13,0
	lfs 0,8(5)
.LBE1133:
.LBE1135:
.LBB1136:
.LBB1137:
	.loc 3 632 0
	fmuls 12,12,12
.LBE1137:
.LBE1136:
.LBE1130:
	.loc 2 90 0
	stwu 1,-24(1)
.LCFI12:
	.cfi_def_cfa_offset 24
.LBB1168:
.LBB1160:
.LBB1134:
	.loc 3 431 0
	fsubs 0,11,0
.LVL29:
	.loc 3 632 0
	fmadds 13,13,13,12
.LVL30:
	fmadds 13,0,0,13
	stfs 13,12(1)
.LVL31:
.LBE1134:
.LBE1160:
.LBB1161:
.LBB1156:
.LBB1138:
.LBB1139:
.LBB1140:
.LBB1141:
	.file 4 "d:/Data/Nintendo/DoomGX/src/game/ai/../../idlib/../idlib/math/Math.h"
	.loc 4 270 0
	lwz 0,12(1)
.LVL32:
	.loc 4 276 0
	rlwinm 11,0,9,24,31
	rlwinm 9,0,19,21,29
	subfic 0,11,380
	lis 11,_ZN6idMath5iSqrtE@ha
	la 11,_ZN6idMath5iSqrtE@l(11)
	rlwinm 0,0,22,0,8
	lwzx 9,11,9
	.loc 4 275 0
	lis 11,.LC1@ha
	lfs 11,.LC1@l(11)
	.loc 4 276 0
	or 0,0,9
	.loc 4 278 0
	lis 9,.LC3@ha
	.loc 4 277 0
	stw 0,16(1)
	.loc 4 275 0
	fmuls 11,13,11
.LVL33:
	.loc 4 278 0
	lfs 12,.LC3@l(9)
	.loc 4 277 0
	lfs 0,16(1)
.LVL34:
	.loc 2 90 0
	fneg 11,11
.LVL35:
.LBE1141:
.LBE1140:
.LBE1139:
.LBE1138:
.LBE1156:
.LBE1161:
.LBB1162:
	.loc 2 1353 0
	lwz 9,4(3)
.LBE1162:
.LBB1163:
.LBB1157:
.LBB1153:
.LBB1150:
.LBB1146:
.LBB1142:
	.loc 4 277 0
	fmr 13,0
.LVL36:
.LBE1142:
.LBE1146:
.LBE1150:
.LBE1153:
.LBE1157:
.LBE1163:
	.loc 2 95 0
	lwz 0,176(9)
.LBB1164:
.LBB1158:
.LBB1154:
.LBB1151:
.LBB1147:
.LBB1143:
	.loc 4 278 0
	fmul 0,13,13
.LVL37:
.LBE1143:
.LBE1147:
.LBE1151:
.LBE1154:
.LBE1158:
.LBE1164:
	.loc 2 95 0
	add 4,0,4
	lwz 0,52(4)
	andi. 9,0,4
.LBB1165:
.LBB1159:
.LBB1155:
.LBB1152:
.LBB1148:
.LBB1144:
	.loc 4 278 0
	fmadd 0,11,0,12
	fmul 0,13,0
.LVL38:
	.loc 4 279 0
	fmul 13,0,0
	fmadd 12,11,13,12
.LVL39:
.LBE1144:
.LBE1148:
	.loc 4 303 0
	lfs 13,12(1)
.LBB1149:
.LBB1145:
	.loc 4 279 0
	fmul 0,0,12
.LVL40:
	.loc 4 280 0
	frsp 0,0
.LVL41:
.LBE1145:
.LBE1149:
	.loc 4 303 0
	fmuls 0,13,0
.LVL42:
.LBE1152:
.LBE1155:
.LBE1159:
.LBE1165:
	.loc 2 95 0
	bne- 0,.L25
.LVL43:
	.loc 2 97 0
	andis. 9,0,32
	beq- 0,.L26
	.loc 2 98 0
	lis 9,.LC4@ha
	lfs 13,.LC4@l(9)
	fmuls 0,0,13
.LVL44:
.L25:
	.loc 2 102 0
	lis 9,.LC6@ha
	.loc 2 103 0
	li 3,1
.LVL45:
	.loc 2 102 0
	lfs 13,.LC6@l(9)
	fcmpu 7,0,13
	blt- 7,.L27
.LVL46:
.LBB1166:
.LBB1167:
	.loc 4 825 0
	fctiwz 0,0
.LVL47:
	addi 9,1,8
	stfiwx 0,0,9
	lwz 3,8(1)
.LBE1167:
.LBE1166:
	.loc 2 105 0
	rlwinm 3,3,0,0xffff
.L27:
.LBE1168:
	.loc 2 106 0
	addi 1,1,24
	.cfi_remember_state
.LCFI13:
	.cfi_def_cfa_offset 0
	blr
.LVL48:
.L26:
.LCFI14:
	.cfi_restore_state
.LBB1169:
	.loc 2 100 0
	lis 9,.LC5@ha
	lfs 13,.LC5@l(9)
	fmuls 0,0,13
.LVL49:
	b .L25
.LBE1169:
	.cfi_endproc
.LFE2820:
	.size	_ZNK10idAASLocal14AreaTravelTimeEiRK6idVec3S2_, .-_ZNK10idAASLocal14AreaTravelTimeEiRK6idVec3S2_
	.align 2
	.globl _ZN10idAASLocal24CalculateAreaTravelTimesEv
	.type	_ZN10idAASLocal24CalculateAreaTravelTimesEv, @function
_ZN10idAASLocal24CalculateAreaTravelTimesEv:
.LFB2821:
	.loc 2 113 0
	.cfi_startproc
.LVL50:
	mflr 0
	stwu 1,-64(1)
.LCFI15:
	.cfi_def_cfa_offset 64
	.cfi_register 65, 0
	stw 26,40(1)
	mr 26,3
	.cfi_offset 26, -24
	stw 0,68(1)
.LBB1170:
	.loc 2 119 0
	li 0,0
	.cfi_offset 65, 4
.LBE1170:
	.loc 2 113 0
	stw 18,8(1)
	stw 19,12(1)
	stw 20,16(1)
	stw 21,20(1)
	stw 22,24(1)
	stw 23,28(1)
	stw 24,32(1)
	stw 25,36(1)
	stw 27,44(1)
	stw 28,48(1)
	stw 29,52(1)
	stw 30,56(1)
	stw 31,60(1)
.LBB1183:
	.loc 2 119 0
	stw 0,72(3)
.LVL51:
	.loc 2 120 0
	lwz 7,4(3)
.LVL52:
	li 3,0
.LVL53:
	lwz 9,164(7)
	cmpwi 7,9,0
	ble- 7,.L30
	.cfi_offset 31, -4
	.cfi_offset 30, -8
	.cfi_offset 29, -12
	.cfi_offset 28, -16
	.cfi_offset 27, -20
	.cfi_offset 25, -28
	.cfi_offset 24, -32
	.cfi_offset 23, -36
	.cfi_offset 22, -40
	.cfi_offset 21, -44
	.cfi_offset 20, -48
	.cfi_offset 19, -52
	.cfi_offset 18, -56
	li 6,0
	li 8,0
.LVL54:
.L36:
.LBB1171:
.LBB1172:
.LBB1173:
	.file 5 "d:/Data/Nintendo/DoomGX/src/game/ai/../../idlib/../idlib/containers/List.h"
	.loc 5 589 0
	lwz 10,176(7)
	.loc 2 113 0
	slwi 0,8,6
	.loc 5 589 0
	add 10,10,0
.LBE1173:
.LBE1172:
.LBE1171:
	.loc 2 122 0
	lhz 0,44(10)
	andi. 11,0,192
	beq- 0,.L31
.LVL55:
	.loc 2 127 0
	lwz 9,56(10)
.LVL56:
	.loc 2 126 0
	li 11,0
	.loc 2 127 0
	cmpwi 7,9,0
	beq- 7,.L32
.LVL57:
.L33:
	.loc 2 127 0 is_stmt 0 discriminator 2
	lwz 9,40(9)
.LVL58:
	.loc 2 128 0 is_stmt 1 discriminator 2
	addi 11,11,1
.LVL59:
	.loc 2 127 0 discriminator 2
	cmpwi 7,9,0
	bne+ 7,.L33
.LVL60:
.L32:
	.loc 2 132 0
	lwz 9,60(10)
.LVL61:
	li 10,0
.LVL62:
	cmpwi 7,9,0
	beq- 7,.L34
.LVL63:
.L35:
	.loc 2 132 0 is_stmt 0 discriminator 2
	lwz 9,44(9)
.LVL64:
	.loc 2 133 0 is_stmt 1 discriminator 2
	addi 10,10,1
.LVL65:
	.loc 2 132 0 discriminator 2
	cmpwi 7,9,0
	bne+ 7,.L35
	.loc 2 132 0 is_stmt 0
	mullw 10,10,11
.LVL66:
.L34:
	.loc 2 135 0 is_stmt 1
	add 6,6,10
	stw 6,72(26)
	lwz 9,164(7)
.LVL67:
.L31:
	.loc 2 120 0
	addi 8,8,1
.LVL68:
	cmpw 7,8,9
	blt+ 7,.L36
	slwi 3,6,1
.LVL69:
.L30:
	.loc 2 138 0
	bl _Z9Mem_Alloci
	.loc 2 141 0
	lwz 9,4(26)
	.loc 2 138 0
	stw 3,68(26)
	mr 23,3
.LVL70:
	.loc 2 141 0
	lwz 0,164(9)
	cmpwi 7,0,0
	ble- 7,.L29
	.loc 2 152 0
	lis 18,gameLocal@ha
	lis 19,.LC7@ha
	.loc 2 141 0
	li 24,0
	.loc 2 155 0
	li 20,0
	.loc 2 152 0
	la 18,gameLocal@l(18)
	la 19,.LC7@l(19)
.LVL71:
.L48:
.LBB1174:
.LBB1175:
.LBB1176:
	.loc 5 589 0
	lwz 11,176(9)
.LBE1176:
.LBE1175:
.LBE1174:
	.loc 2 113 0
	slwi 21,24,6
.LBB1179:
.LBB1178:
.LBB1177:
	.loc 5 589 0
	add 11,11,21
.LBE1177:
.LBE1178:
.LBE1179:
	.loc 2 143 0
	lhz 0,44(11)
	andi. 10,0,192
	beq- 0,.L39
.LVL72:
	.loc 2 149 0
	lwz 28,56(11)
.LVL73:
	li 27,0
	li 22,0
	cmpwi 7,28,0
	beq- 7,.L41
.LVL74:
.L61:
	.loc 2 154 0
	stb 22,38(28)
	.loc 2 157 0
	li 30,0
	.loc 2 155 0
	stb 20,39(28)
	.loc 2 156 0
	stw 23,48(28)
.LVL75:
.LBB1180:
	.loc 2 1353 0
	lwz 9,4(26)
.LBE1180:
	.loc 2 157 0
	lwz 9,176(9)
	add 9,9,21
	lwz 31,60(9)
.LVL76:
	cmpwi 7,31,0
	beq- 7,.L43
	mr 29,23
	addi 25,28,8
	b .L46
.LVL77:
.L62:
	lwz 29,48(28)
.LVL78:
.L46:
	.loc 2 158 0
	addi 6,31,20
	mr 3,26
	mr 4,24
	mr 5,25
	bl _ZNK10idAASLocal14AreaTravelTimeEiRK6idVec3S2_
.LVL79:
	.loc 2 159 0
	slwi 0,30,1
	cmpw 7,27,3
	sthx 3,29,0
	.loc 2 157 0
	addi 30,30,1
	.loc 2 159 0
	bge- 7,.L44
	mr 27,3
.LVL80:
.L44:
	.loc 2 157 0
	lwz 31,44(31)
.LVL81:
	cmpwi 7,31,0
	bne+ 7,.L62
	slwi 30,30,1
.LVL82:
.L43:
	.loc 2 149 0
	lwz 28,40(28)
.LVL83:
	.loc 2 164 0
	add 23,23,30
.LVL84:
	.loc 2 149 0
	cmpwi 7,28,0
	beq- 7,.L63
	addi 22,22,1
.LVL85:
	.loc 2 151 0
	cmpwi 7,22,255
	ble+ 7,.L61
	.loc 2 152 0
	mr 3,18
	mr 4,19
	crxor 6,6,6
	bl _ZNK11idGameLocal5ErrorEPKcz
	b .L61
.LVL86:
.L63:
	lwz 9,4(26)
.LVL87:
.L41:
	.loc 2 168 0
	lwz 0,176(9)
	add 21,0,21
	lha 0,48(21)
	cmpwi 7,0,0
	bge+ 7,.L39
.LVL88:
.LBB1181:
.LBB1182:
	.file 6 "d:/Data/Nintendo/DoomGX/src/game/ai/../../idlib/../tools/compilers/aas/AASFile.h"
	.loc 6 314 0
	lwz 9,208(9)
.LVL89:
	mulli 0,0,-12
	add 9,9,0
	sth 27,10(9)
	lwz 9,4(26)
.LVL90:
.L39:
.LBE1182:
.LBE1181:
	.loc 2 141 0
	lwz 0,164(9)
	addi 24,24,1
.LVL91:
	cmpw 7,24,0
	blt+ 7,.L48
.LVL92:
.L29:
.LBE1183:
	.loc 2 175 0
	lwz 0,68(1)
	lwz 18,8(1)
	mtlr 0
	lwz 19,12(1)
	lwz 20,16(1)
	lwz 21,20(1)
	lwz 22,24(1)
	lwz 23,28(1)
.LVL93:
	lwz 24,32(1)
	lwz 25,36(1)
	lwz 26,40(1)
.LVL94:
	lwz 27,44(1)
	lwz 28,48(1)
	lwz 29,52(1)
	lwz 30,56(1)
	lwz 31,60(1)
	addi 1,1,64
.LCFI16:
	.cfi_def_cfa_offset 0
	.cfi_restore 31
	.cfi_restore 30
	.cfi_restore 29
	.cfi_restore 28
	.cfi_restore 27
	.cfi_restore 26
	.cfi_restore 25
	.cfi_restore 24
	.cfi_restore 23
	.cfi_restore 22
	.cfi_restore 21
	.cfi_restore 20
	.cfi_restore 19
	.cfi_restore 18
	blr
	.cfi_endproc
.LFE2821:
	.size	_ZN10idAASLocal24CalculateAreaTravelTimesEv, .-_ZN10idAASLocal24CalculateAreaTravelTimesEv
	.align 2
	.globl _ZN10idAASLocal21DeleteAreaTravelTimesEv
	.type	_ZN10idAASLocal21DeleteAreaTravelTimesEv, @function
_ZN10idAASLocal21DeleteAreaTravelTimesEv:
.LFB2822:
	.loc 2 182 0
	.cfi_startproc
.LVL95:
	mflr 0
	stwu 1,-16(1)
.LCFI17:
	.cfi_def_cfa_offset 16
	.cfi_register 65, 0
	stw 31,12(1)
	mr 31,3
	.cfi_offset 31, -4
	stw 0,20(1)
	.loc 2 183 0
	lwz 3,68(3)
.LVL96:
	.cfi_offset 65, 4
	bl _Z8Mem_FreePv
	.loc 2 184 0
	li 0,0
	stw 0,68(31)
	.loc 2 185 0
	stw 0,72(31)
	.loc 2 186 0
	lwz 0,20(1)
	lwz 31,12(1)
.LVL97:
	mtlr 0
	addi 1,1,16
.LCFI18:
	.cfi_def_cfa_offset 0
	.cfi_restore 31
	blr
	.cfi_endproc
.LFE2822:
	.size	_ZN10idAASLocal21DeleteAreaTravelTimesEv, .-_ZN10idAASLocal21DeleteAreaTravelTimesEv
	.align 2
	.globl _ZN10idAASLocal17SetupRoutingCacheEv
	.type	_ZN10idAASLocal17SetupRoutingCacheEv, @function
_ZN10idAASLocal17SetupRoutingCacheEv:
.LFB2823:
	.loc 2 193 0
	.cfi_startproc
.LVL98:
	mflr 0
	stwu 1,-16(1)
.LCFI19:
	.cfi_def_cfa_offset 16
	.cfi_register 65, 0
	stw 31,12(1)
	mr 31,3
	.cfi_offset 31, -4
	stw 0,20(1)
.LBB1184:
	.loc 2 197 0
	li 0,0
	.cfi_offset 65, 4
	stw 0,44(3)
.LVL99:
	.loc 2 198 0
	lwz 10,4(3)
.LVL100:
.LBB1185:
	.loc 2 1353 0
	lwz 11,228(10)
.LBE1185:
	.loc 2 198 0
	cmpwi 7,11,0
	ble- 7,.L66
	li 9,0
.LVL101:
.L67:
	.loc 2 199 0 discriminator 2
	lwz 8,240(10)
	slwi 11,9,4
	.loc 2 198 0 discriminator 2
	addi 9,9,1
.LVL102:
	.loc 2 199 0 discriminator 2
	add 11,8,11
	lwz 11,4(11)
	add 0,0,11
	stw 0,44(31)
.LBB1186:
	.loc 2 1353 0 discriminator 2
	lwz 11,228(10)
.LBE1186:
	.loc 2 198 0 discriminator 2
	cmpw 7,9,11
	blt+ 7,.L67
.LVL103:
.L66:
	.loc 2 202 0
	add 0,11,0
	slwi 3,0,2
.LVL104:
	bl _Z16Mem_ClearedAlloci
.LVL105:
	.loc 2 203 0
	lwz 11,4(31)
.LVL106:
	.loc 2 202 0
	stw 3,40(31)
.LBB1187:
	.loc 2 1353 0
	lwz 0,228(11)
.LVL107:
.LBE1187:
	.loc 2 204 0
	cmpwi 7,0,0
	ble- 7,.L68
	.loc 2 203 0
	slwi 0,0,2
	.loc 2 204 0
	li 9,0
	.loc 2 203 0
	add 0,3,0
	b .L69
.LVL108:
.L72:
	.loc 2 204 0
	lwz 3,40(31)
.LVL109:
.L69:
	.loc 2 205 0 discriminator 2
	slwi 11,9,2
.LVL110:
	.loc 2 206 0 discriminator 2
	slwi 10,9,4
	.loc 2 205 0 discriminator 2
	stwx 0,3,11
	.loc 2 204 0 discriminator 2
	addi 9,9,1
	.loc 2 206 0 discriminator 2
	lwz 11,4(31)
.LVL111:
	lwz 7,240(11)
	.loc 2 204 0 discriminator 2
	lwz 8,228(11)
	.loc 2 206 0 discriminator 2
	add 10,7,10
	.loc 2 204 0 discriminator 2
	cmpw 7,9,8
	.loc 2 206 0 discriminator 2
	lwz 10,4(10)
	slwi 10,10,2
	add 0,0,10
.LVL112:
	.loc 2 204 0 discriminator 2
	blt+ 7,.L72
.LVL113:
.L68:
.LBB1188:
	.loc 2 1353 0
	lwz 3,164(11)
.LBE1188:
	.loc 2 209 0
	stw 3,52(31)
	.loc 2 210 0
	slwi 3,3,2
	bl _Z16Mem_ClearedAlloci
.LVL114:
.LBB1189:
	.loc 2 1353 0
	lwz 9,4(31)
.LBE1189:
	.loc 2 210 0
	stw 3,48(31)
.LVL115:
	.loc 2 212 0
	lwz 3,164(9)
	mulli 3,3,40
	bl _Z16Mem_ClearedAlloci
.LVL116:
.LBB1190:
	.loc 2 1353 0
	lwz 9,4(31)
.LBE1190:
	.loc 2 212 0
	stw 3,56(31)
.LVL117:
	.loc 2 213 0
	lwz 3,196(9)
	addi 3,3,1
	mulli 3,3,40
	bl _Z16Mem_ClearedAlloci
.LVL118:
.LBB1191:
	.loc 2 1353 0
	lwz 9,4(31)
.LBE1191:
	.loc 2 213 0
	stw 3,60(31)
.LVL119:
	.loc 2 215 0
	lwz 3,164(9)
	slwi 3,3,1
	bl _Z16Mem_ClearedAlloci
.LVL120:
	.loc 2 217 0
	li 0,0
	.loc 2 215 0
	stw 3,64(31)
	.loc 2 217 0
	stw 0,80(31)
	stw 0,76(31)
	.loc 2 218 0
	stw 0,84(31)
.LBE1184:
	.loc 2 219 0
	lwz 0,20(1)
	lwz 31,12(1)
.LVL121:
	mtlr 0
	addi 1,1,16
.LCFI20:
	.cfi_def_cfa_offset 0
	.cfi_restore 31
	blr
	.cfi_endproc
.LFE2823:
	.size	_ZN10idAASLocal17SetupRoutingCacheEv, .-_ZN10idAASLocal17SetupRoutingCacheEv
	.align 2
	.globl _ZN10idAASLocal12SetupRoutingEv
	.type	_ZN10idAASLocal12SetupRoutingEv, @function
_ZN10idAASLocal12SetupRoutingEv:
.LFB2827:
	.loc 2 293 0
	.cfi_startproc
.LVL122:
	stwu 1,-16(1)
.LCFI21:
	.cfi_def_cfa_offset 16
	mflr 0
	stw 31,12(1)
	mr 31,3
	.cfi_offset 31, -4
	.cfi_register 65, 0
	stw 0,20(1)
	.loc 2 294 0
	.cfi_offset 65, 4
	bl _ZN10idAASLocal24CalculateAreaTravelTimesEv
.LVL123:
	.loc 2 295 0
	mr 3,31
	bl _ZN10idAASLocal17SetupRoutingCacheEv
	.loc 2 297 0
	lwz 0,20(1)
	lwz 31,12(1)
.LVL124:
	li 3,1
	mtlr 0
	addi 1,1,16
.LCFI22:
	.cfi_def_cfa_offset 0
	.cfi_restore 31
	blr
	.cfi_endproc
.LFE2827:
	.size	_ZN10idAASLocal12SetupRoutingEv, .-_ZN10idAASLocal12SetupRoutingEv
	.align 2
	.globl _ZNK10idAASLocal12RoutingStatsEv
	.type	_ZNK10idAASLocal12RoutingStatsEv, @function
_ZNK10idAASLocal12RoutingStatsEv:
.LFB2829:
	.loc 2 314 0
	.cfi_startproc
.LVL125:
	mflr 0
	stwu 1,-32(1)
.LCFI23:
	.cfi_def_cfa_offset 32
	.cfi_register 65, 0
	stw 29,20(1)
	mr 29,3
	.cfi_offset 29, -12
	stw 0,36(1)
	stw 27,12(1)
	stw 28,16(1)
	stw 30,24(1)
	stw 31,28(1)
.LBB1192:
	.loc 2 321 0
	lwz 9,76(3)
.LVL126:
	cmpwi 7,9,0
	beq- 7,.L79
	.cfi_offset 31, -4
	.cfi_offset 30, -8
	.cfi_offset 28, -16
	.cfi_offset 27, -20
	.cfi_offset 65, 4
.LVL127:
	li 27,0
	li 6,0
	li 31,0
	li 5,0
	b .L78
.LVL128:
.L76:
	lwz 9,28(9)
.LVL129:
	.loc 2 327 0
	mulli 11,11,3
	.loc 2 326 0
	addi 31,31,1
.LVL130:
	.loc 2 321 0
	cmpwi 7,9,0
	.loc 2 327 0
	addi 0,11,48
	add 27,0,27
.LVL131:
	.loc 2 321 0
	beq- 7,.L81
.LVL132:
.L78:
	.loc 2 322 0
	lwz 0,0(9)
	.loc 2 324 0
	lwz 11,4(9)
	.loc 2 322 0
	cmpwi 7,0,1
	bne+ 7,.L76
	.loc 2 321 0
	lwz 9,28(9)
.LVL133:
	.loc 2 324 0
	mulli 11,11,3
	.loc 2 323 0
	addi 5,5,1
.LVL134:
	.loc 2 321 0
	cmpwi 7,9,0
	.loc 2 324 0
	addi 0,11,48
	add 6,0,6
.LVL135:
	.loc 2 321 0
	bne+ 7,.L78
.L81:
	srawi 6,6,10
.LVL136:
	srawi 27,27,10
.LVL137:
	add 28,5,31
.LVL138:
.L75:
	.loc 2 331 0
	lis 30,gameLocal@ha
	lis 4,.LC8@ha
	la 30,gameLocal@l(30)
	la 4,.LC8@l(4)
	mr 3,30
.LVL139:
	crxor 6,6,6
	bl _ZNK11idGameLocal6PrintfEPKcz
.LVL140:
	.loc 2 332 0
	lis 4,.LC9@ha
	mr 3,30
	mr 5,31
	mr 6,27
	la 4,.LC9@l(4)
	crxor 6,6,6
	bl _ZNK11idGameLocal6PrintfEPKcz
	.loc 2 333 0
	lwz 6,84(29)
	lis 4,.LC10@ha
	mr 3,30
	mr 5,28
	la 4,.LC10@l(4)
	srawi 6,6,10
	crxor 6,6,6
	bl _ZNK11idGameLocal6PrintfEPKcz
	.loc 2 334 0
	lwz 5,72(29)
	lis 4,.LC11@ha
	mr 3,30
	rlwinm 6,5,23,10,31
	la 4,.LC11@l(4)
	crxor 6,6,6
	bl _ZNK11idGameLocal6PrintfEPKcz
	.loc 2 335 0
	lwz 5,44(29)
	lis 4,.LC12@ha
	mr 3,30
	rlwinm 6,5,24,10,31
	la 4,.LC12@l(4)
	crxor 6,6,6
	bl _ZNK11idGameLocal6PrintfEPKcz
	.loc 2 336 0
	lwz 5,52(29)
	lis 4,.LC13@ha
	mr 3,30
	la 4,.LC13@l(4)
	rlwinm 6,5,24,10,31
	crxor 6,6,6
	bl _ZNK11idGameLocal6PrintfEPKcz
.LBE1192:
	.loc 2 337 0
	lwz 0,36(1)
	lwz 27,12(1)
	mtlr 0
	lwz 28,16(1)
	lwz 29,20(1)
.LVL141:
	lwz 30,24(1)
	lwz 31,28(1)
	addi 1,1,32
	.cfi_remember_state
.LCFI24:
	.cfi_def_cfa_offset 0
	.cfi_restore 31
	.cfi_restore 30
	.cfi_restore 29
	.cfi_restore 28
	.cfi_restore 27
	blr
.LVL142:
.L79:
.LCFI25:
	.cfi_restore_state
.LBB1193:
	.loc 2 321 0
	li 28,0
	li 27,0
	li 6,0
	.loc 2 319 0
	li 31,0
	li 5,0
	b .L75
.LBE1193:
	.cfi_endproc
.LFE2829:
	.size	_ZNK10idAASLocal12RoutingStatsEv, .-_ZNK10idAASLocal12RoutingStatsEv
	.align 2
	.globl _ZNK10idAASLocal16GetBoundsAreas_rEiRK8idBoundsR6idListIiE
	.type	_ZNK10idAASLocal16GetBoundsAreas_rEiRK8idBoundsR6idListIiE, @function
_ZNK10idAASLocal16GetBoundsAreas_rEiRK8idBoundsR6idListIiE:
.LFB2835:
	.loc 2 458 0
	.cfi_startproc
.LVL143:
	stwu 1,-32(1)
.LCFI26:
	.cfi_def_cfa_offset 32
	mflr 0
	stw 31,20(1)
.LBB1215:
	.loc 2 462 0
	mr. 31,4
	.cfi_offset 31, -12
	.cfi_register 65, 0
.LBE1215:
	.loc 2 458 0
	stw 28,8(1)
	mr 28,6
	.cfi_offset 28, -24
	stw 29,12(1)
	mr 29,5
	.cfi_offset 29, -20
	stw 30,16(1)
	mr 30,3
	.cfi_offset 30, -16
	stw 0,36(1)
	stfd 31,24(1)
.LBB1261:
	.loc 2 462 0
	beq- 0,.L82
	.cfi_offset 63, -8
	.cfi_offset 65, 4
	.loc 2 463 0
	blt- 0,.L84
	lis 9,.LC14@ha
	.loc 2 468 0
	lfs 31,.LC14@l(9)
.LVL144:
.L86:
	.loc 2 467 0
	lwz 11,4(30)
.LVL145:
.LBB1216:
.LBB1217:
.LBB1218:
	.loc 5 573 0
	mulli 31,31,12
.LVL146:
.LBE1218:
.LBE1217:
.LBE1216:
	.loc 2 468 0
	fmr 1,31
	mr 3,29
.LBB1223:
.LBB1221:
.LBB1219:
	.loc 5 573 0
	lwz 9,192(11)
.LBE1219:
.LBE1221:
.LBE1223:
.LBB1224:
.LBB1225:
.LBB1226:
	lwz 4,52(11)
.LBE1226:
.LBE1225:
.LBE1224:
	.loc 2 468 0
	lhzx 0,9,31
.LBB1229:
.LBB1222:
.LBB1220:
	.loc 5 573 0
	add 31,9,31
.LVL147:
.LBE1220:
.LBE1222:
.LBE1229:
.LBB1230:
.LBB1228:
.LBB1227:
	slwi 0,0,4
.LBE1227:
.LBE1228:
.LBE1230:
	.loc 2 468 0
	add 4,4,0
	bl _ZNK8idBounds9PlaneSideERK7idPlanef
.LVL148:
	.loc 2 469 0
	cmpwi 7,3,1
	.loc 2 472 0
	cmpwi 6,3,0
	.loc 2 469 0
	beq- 7,.L114
	.loc 2 472 0
	bne- 6,.L106
.LVL149:
.L113:
	.loc 2 477 0
	lwz 31,4(31)
.LVL150:
.L105:
	.loc 2 462 0 discriminator 1
	cmpwi 7,31,0
	beq- 7,.L82
	.loc 2 463 0
	bge+ 7,.L86
.LVL151:
.L84:
.LBB1231:
.LBB1232:
	.loc 5 655 0
	lwz 30,12(28)
.LVL152:
.LBE1232:
.LBE1231:
	.loc 2 464 0
	neg 31,31
.LVL153:
.LBB1259:
.LBB1257:
	.loc 5 655 0
	cmpwi 7,30,0
	beq- 7,.L87
	lwz 0,0(28)
	lwz 11,4(28)
.L88:
.LBB1233:
	.loc 5 659 0
	cmpw 7,0,11
	beq- 7,.L109
.L112:
.LBB1234:
.LBB1235:
.LBB1236:
	.loc 5 399 0
	slwi 0,0,2
	add 30,30,0
.L95:
.LBE1236:
.LBE1235:
.LBE1234:
.LBE1233:
	.loc 5 669 0
	stw 31,0(30)
	.loc 5 670 0
	lwz 9,0(28)
	addi 0,9,1
	stw 0,0(28)
.LVL154:
.L82:
.LBE1257:
.LBE1259:
.LBE1261:
	.loc 2 480 0
	lwz 0,36(1)
	lwz 28,8(1)
.LVL155:
	mtlr 0
	lwz 29,12(1)
.LVL156:
	lwz 30,16(1)
	lwz 31,20(1)
	lfd 31,24(1)
	addi 1,1,32
	.cfi_remember_state
.LCFI27:
	.cfi_def_cfa_offset 0
	.cfi_restore 63
	.cfi_restore 31
	.cfi_restore 30
	.cfi_restore 29
	.cfi_restore 28
	blr
.LVL157:
.L106:
.LCFI28:
	.cfi_restore_state
.LBB1262:
	.loc 2 476 0
	lwz 4,8(31)
	mr 3,30
.LVL158:
	mr 5,29
	mr 6,28
	bl _ZNK10idAASLocal16GetBoundsAreas_rEiRK8idBoundsR6idListIiE
	b .L113
.LVL159:
.L114:
	.loc 2 470 0
	lwz 31,8(31)
.LVL160:
	b .L105
.LVL161:
.L109:
	lwz 9,8(28)
.LBB1260:
.LBB1258:
.LBB1247:
	.loc 5 659 0
	mr 10,0
.L90:
.LBB1245:
	.loc 5 662 0
	cmpwi 7,9,0
	bne- 7,.L96
	.loc 5 663 0
	li 9,16
	stw 9,8(28)
.L96:
	.loc 5 665 0
	add 11,0,9
.LVL162:
	.loc 5 666 0
	divw 11,11,9
.LVL163:
.LBB1242:
.LBB1239:
	.loc 5 375 0
	mullw. 9,11,9
.LVL164:
	ble- 0,.L115
	.loc 5 380 0
	cmpw 7,9,0
	beq- 7,.L116
.LVL165:
	.loc 5 387 0
	cmpw 7,9,10
	.loc 5 386 0
	stw 9,4(28)
	.loc 5 387 0
	bge- 7,.L100
	.loc 5 388 0
	stw 9,0(28)
.L100:
	.loc 5 392 0
	slwi 3,9,2
	bl _Znaj
.LVL166:
	.loc 5 393 0
	lwz 0,0(28)
	.loc 5 392 0
	stw 3,12(28)
.LVL167:
	.loc 5 393 0
	cmpwi 7,0,0
	ble- 7,.L101
	.loc 2 458 0
	addi 11,30,-4
.LBE1239:
.LBE1242:
	.loc 5 393 0
	li 9,0
	b .L102
.LVL168:
.L117:
.LBB1243:
.LBB1240:
	lwz 3,12(28)
.LVL169:
.L102:
	.loc 5 394 0
	lwzu 10,4(11)
	slwi 0,9,2
	.loc 5 393 0
	addi 9,9,1
.LVL170:
	.loc 5 394 0
	stwx 10,3,0
	.loc 5 393 0
	lwz 0,0(28)
	cmpw 7,9,0
	blt+ 7,.L117
.LVL171:
.L101:
	.loc 5 398 0
	cmpwi 7,30,0
	beq- 7,.L118
	.loc 5 399 0
	mr 3,30
	bl _ZdaPv
	lwz 0,0(28)
	lwz 30,12(28)
.LVL172:
	b .L112
.LVL173:
.L116:
	.loc 5 380 0
	slwi 10,10,2
	add 30,30,10
	b .L95
.LVL174:
.L87:
.LBE1240:
.LBE1243:
.LBE1245:
.LBE1247:
	.loc 5 656 0
	lwz 9,8(28)
.LBB1248:
.LBB1249:
	.loc 5 375 0
	cmpwi 7,9,0
.LBE1249:
.LBE1248:
	.loc 5 656 0
	mr 11,9
.LVL175:
.LBB1254:
.LBB1252:
	.loc 5 375 0
	ble- 7,.L119
	.loc 5 380 0
	lwz 0,4(28)
	cmpw 7,9,0
	lwz 0,0(28)
	beq- 7,.L88
.LVL176:
	.loc 5 387 0
	cmpw 7,9,0
	.loc 5 386 0
	stw 9,4(28)
	.loc 5 387 0
	bge- 7,.L92
	.loc 5 388 0
	stw 9,0(28)
.LVL177:
.L92:
	.loc 5 392 0
	slwi 3,9,2
	bl _Znaj
.LVL178:
	.loc 5 393 0
	lwz 0,0(28)
	.loc 5 392 0
	mr 30,3
	stw 3,12(28)
.LVL179:
	.loc 5 393 0
	cmpwi 7,0,0
	li 9,0
	li 11,0
	bgt+ 7,.L111
	b .L122
.LVL180:
.L121:
	lwz 30,12(28)
.LVL181:
.L111:
	.loc 5 394 0
	lwz 0,0(9)
	.loc 5 393 0
	addi 11,11,1
.LVL182:
	.loc 5 394 0
	stwx 0,30,9
	.loc 5 393 0
	addi 9,9,4
	lwz 0,0(28)
	cmpw 7,11,0
	blt+ 7,.L121
	lwz 11,4(28)
.LVL183:
	lwz 30,12(28)
	b .L88
.LVL184:
.L115:
.LBE1252:
.LBE1254:
.LBB1255:
.LBB1246:
.LBB1244:
.LBB1241:
.LBB1237:
.LBB1238:
	.loc 5 193 0
	cmpwi 7,30,0
	beq- 7,.L98
	.loc 5 194 0
	mr 3,30
	bl _ZdaPv
.LVL185:
.L98:
	.loc 5 197 0
	li 0,0
	.loc 5 199 0
	li 30,0
	.loc 5 197 0
	stw 0,12(28)
	.loc 5 198 0
	stw 0,0(28)
	.loc 5 199 0
	stw 0,4(28)
	b .L95
.LVL186:
.L118:
.LBE1238:
.LBE1237:
	.loc 5 398 0
	lwz 30,12(28)
.LVL187:
	slwi 0,0,2
	add 30,30,0
	b .L95
.LVL188:
.L119:
.LBE1241:
.LBE1244:
.LBE1246:
.LBE1255:
.LBB1256:
.LBB1253:
.LBB1250:
.LBB1251:
	.loc 5 198 0
	stw 30,0(28)
	.loc 5 199 0
	li 0,0
	stw 30,4(28)
	li 10,0
	b .L90
.LVL189:
.L122:
.LBE1251:
.LBE1250:
	.loc 5 393 0
	lwz 11,4(28)
	b .L88
.LBE1253:
.LBE1256:
.LBE1258:
.LBE1260:
.LBE1262:
	.cfi_endproc
.LFE2835:
	.size	_ZNK10idAASLocal16GetBoundsAreas_rEiRK8idBoundsR6idListIiE, .-_ZNK10idAASLocal16GetBoundsAreas_rEiRK8idBoundsR6idListIiE
	.align 2
	.globl _ZNK10idAASLocal11UnlinkCacheEP14idRoutingCache
	.type	_ZNK10idAASLocal11UnlinkCacheEP14idRoutingCache, @function
_ZNK10idAASLocal11UnlinkCacheEP14idRoutingCache:
.LFB2844:
	.loc 2 627 0
	.cfi_startproc
.LVL190:
.LBB1263:
.LBB1264:
	.loc 2 82 0
	lwz 9,4(4)
.LBE1264:
.LBE1263:
	.loc 2 629 0
	lwz 0,84(3)
.LBB1266:
.LBB1265:
	.loc 2 82 0
	addi 11,9,48
	slwi 9,9,1
	add 9,11,9
.LBE1265:
.LBE1266:
	.loc 2 629 0
	subf 9,9,0
	stw 9,84(3)
	.loc 2 632 0
	lwz 9,28(4)
	.loc 2 633 0
	lwz 0,32(4)
	.loc 2 632 0
	cmpwi 7,9,0
	beq- 7,.L124
.LVL191:
	.loc 2 633 0
	stw 0,32(9)
.LVL192:
.L125:
	.loc 2 637 0
	lwz 9,32(4)
	.loc 2 638 0
	lwz 0,28(4)
	.loc 2 637 0
	cmpwi 7,9,0
	beq- 7,.L126
	.loc 2 638 0
	stw 0,28(9)
	.loc 2 642 0
	li 0,0
	stw 0,32(4)
	stw 0,28(4)
	.loc 2 643 0
	blr
.L126:
	.loc 2 640 0
	stw 0,76(3)
	.loc 2 642 0
	li 0,0
	stw 0,32(4)
	.loc 2 643 0
	.loc 2 642 0
	stw 0,28(4)
	.loc 2 643 0
	blr
.L124:
	.loc 2 635 0
	stw 0,80(3)
	b .L125
	.cfi_endproc
.LFE2844:
	.size	_ZNK10idAASLocal11UnlinkCacheEP14idRoutingCache, .-_ZNK10idAASLocal11UnlinkCacheEP14idRoutingCache
	.align 2
	.globl _ZNK10idAASLocal9LinkCacheEP14idRoutingCache
	.type	_ZNK10idAASLocal9LinkCacheEP14idRoutingCache, @function
_ZNK10idAASLocal9LinkCacheEP14idRoutingCache:
.LFB2843:
	.loc 2 601 0
	.cfi_startproc
.LVL193:
	mflr 0
	stwu 1,-16(1)
.LCFI29:
	.cfi_def_cfa_offset 16
	.cfi_register 65, 0
	stw 30,8(1)
	mr 30,3
	.cfi_offset 30, -8
	stw 31,12(1)
	mr 31,4
	.cfi_offset 31, -4
	stw 0,20(1)
	.loc 2 604 0
	lwz 0,28(4)
	.cfi_offset 65, 4
	cmpwi 7,0,0
	beq- 7,.L133
.L129:
	.loc 2 605 0
	mr 3,30
.LVL194:
	mr 4,31
.LVL195:
	bl _ZNK10idAASLocal11UnlinkCacheEP14idRoutingCache
.L130:
.LVL196:
.LBB1267:
.LBB1268:
	.loc 2 82 0
	lwz 9,4(31)
.LBE1268:
.LBE1267:
	.loc 2 608 0
	lwz 0,84(30)
.LBB1270:
.LBB1269:
	.loc 2 82 0
	addi 11,9,48
	slwi 9,9,1
	add 9,11,9
.LBE1269:
.LBE1270:
	.loc 2 608 0
	add 9,0,9
	.loc 2 611 0
	li 0,0
	.loc 2 608 0
	stw 9,84(30)
	.loc 2 611 0
	stw 0,28(31)
	.loc 2 612 0
	lwz 0,80(30)
	stw 0,32(31)
	.loc 2 613 0
	lwz 9,80(30)
	cmpwi 7,9,0
	beq- 7,.L131
	.loc 2 614 0
	stw 31,28(9)
.L131:
	.loc 2 617 0
	lwz 0,76(30)
	.loc 2 616 0
	stw 31,80(30)
	.loc 2 617 0
	cmpwi 7,0,0
	beq- 7,.L134
	.loc 2 620 0
	lwz 0,20(1)
	lwz 30,8(1)
.LVL197:
	mtlr 0
	lwz 31,12(1)
.LVL198:
	addi 1,1,16
	.cfi_remember_state
.LCFI30:
	.cfi_def_cfa_offset 0
	.cfi_restore 31
	.cfi_restore 30
	blr
.LVL199:
.L133:
.LCFI31:
	.cfi_restore_state
	.loc 2 604 0 discriminator 1
	lwz 0,32(4)
	cmpwi 7,0,0
	bne+ 7,.L129
	.loc 2 604 0 is_stmt 0 discriminator 2
	lwz 0,76(3)
	cmpw 7,0,4
	bne+ 7,.L130
	b .L129
.LVL200:
.L134:
	.loc 2 618 0 is_stmt 1
	stw 31,76(30)
	.loc 2 620 0
	lwz 0,20(1)
	lwz 30,8(1)
.LVL201:
	mtlr 0
	lwz 31,12(1)
.LVL202:
	addi 1,1,16
	.cfi_restore 30
	.cfi_restore 31
.LCFI32:
	.cfi_def_cfa_offset 0
	blr
	.cfi_endproc
.LFE2843:
	.size	_ZNK10idAASLocal9LinkCacheEP14idRoutingCache, .-_ZNK10idAASLocal9LinkCacheEP14idRoutingCache
	.align 2
	.globl _ZN10idAASLocal17DeletePortalCacheEv
	.type	_ZN10idAASLocal17DeletePortalCacheEv, @function
_ZN10idAASLocal17DeletePortalCacheEv:
.LFB2825:
	.loc 2 244 0
	.cfi_startproc
.LVL203:
	mflr 0
	stwu 1,-24(1)
.LCFI33:
	.cfi_def_cfa_offset 24
	.cfi_register 65, 0
	stw 29,12(1)
	mr 29,3
	.cfi_offset 29, -12
.LVL204:
	stw 0,28(1)
	stw 28,8(1)
	stw 30,16(1)
	stw 31,20(1)
.LBB1271:
.LBB1272:
	.loc 2 1353 0
	lwz 11,4(3)
.LBE1272:
	.loc 2 248 0
	lwz 0,164(11)
	.cfi_offset 31, -4
	.cfi_offset 30, -8
	.cfi_offset 28, -16
	.cfi_offset 65, 4
	cmpwi 7,0,0
	ble- 7,.L135
	lwz 9,48(3)
	li 28,0
.LVL205:
.L139:
	.loc 2 244 0
	slwi 30,28,2
	.loc 2 249 0
	lwzx 31,9,30
.LVL206:
	cmpwi 7,31,0
	beq- 7,.L137
.LVL207:
.L140:
	.loc 2 250 0
	lwz 0,20(31)
	.loc 2 251 0
	mr 4,31
	mr 3,29
	.loc 2 250 0
	stwx 0,9,30
	.loc 2 251 0
	bl _ZNK10idAASLocal11UnlinkCacheEP14idRoutingCache
	.loc 2 252 0
	mr 3,31
	bl _ZN14idRoutingCacheD1Ev
	mr 3,31
	bl _ZdlPv
	.loc 2 249 0
	lwz 9,48(29)
	lwzx 31,9,30
.LVL208:
	cmpwi 7,31,0
	bne+ 7,.L140
	lwz 11,4(29)
.LVL209:
.L137:
	.loc 2 248 0
	lwz 0,164(11)
	addi 28,28,1
.LVL210:
	cmpw 7,28,0
	blt+ 7,.L139
.LVL211:
.L135:
.LBE1271:
	.loc 2 255 0
	lwz 0,28(1)
	lwz 28,8(1)
	mtlr 0
	lwz 29,12(1)
.LVL212:
	lwz 30,16(1)
	lwz 31,20(1)
	addi 1,1,24
.LCFI34:
	.cfi_def_cfa_offset 0
	.cfi_restore 31
	.cfi_restore 30
	.cfi_restore 29
	.cfi_restore 28
	blr
	.cfi_endproc
.LFE2825:
	.size	_ZN10idAASLocal17DeletePortalCacheEv, .-_ZN10idAASLocal17DeletePortalCacheEv
	.align 2
	.globl _ZN10idAASLocal18DeleteClusterCacheEi
	.type	_ZN10idAASLocal18DeleteClusterCacheEi, @function
_ZN10idAASLocal18DeleteClusterCacheEi:
.LFB2824:
	.loc 2 226 0
	.cfi_startproc
.LVL213:
	mflr 0
	stwu 1,-32(1)
.LCFI35:
	.cfi_def_cfa_offset 32
	.cfi_register 65, 0
	stw 26,8(1)
.LBB1273:
.LBB1274:
.LBB1275:
.LBB1276:
	.loc 5 573 0
	slwi 26,4,4
	.cfi_offset 26, -24
.LBE1276:
.LBE1275:
.LBE1274:
.LBE1273:
	.loc 2 226 0
	stw 29,20(1)
	mr 29,3
	.cfi_offset 29, -12
.LVL214:
	stw 0,36(1)
	stw 27,12(1)
	stw 28,16(1)
	stw 30,24(1)
	stw 31,28(1)
.LBB1278:
.LBB1277:
	.loc 2 1353 0
	lwz 11,4(3)
.LVL215:
.LBE1277:
	.loc 2 230 0
	lwz 9,240(11)
	add 9,9,26
	lwz 0,4(9)
	.cfi_offset 31, -4
	.cfi_offset 30, -8
	.cfi_offset 28, -16
	.cfi_offset 27, -20
	.cfi_offset 65, 4
	cmpwi 7,0,0
	ble- 7,.L143
.LVL216:
	lwz 10,40(3)
	slwi 28,4,2
	li 27,0
.LVL217:
.L147:
	.loc 2 231 0
	lwzx 9,10,28
	.loc 2 226 0
	slwi 30,27,2
	.loc 2 231 0
	lwzx 31,9,30
.LVL218:
	cmpwi 7,31,0
	beq- 7,.L145
.LVL219:
.L148:
	.loc 2 232 0
	lwz 0,20(31)
	.loc 2 233 0
	mr 4,31
	mr 3,29
	.loc 2 232 0
	stwx 0,9,30
	.loc 2 233 0
	bl _ZNK10idAASLocal11UnlinkCacheEP14idRoutingCache
	.loc 2 234 0
	mr 3,31
	bl _ZN14idRoutingCacheD1Ev
	mr 3,31
	bl _ZdlPv
	.loc 2 231 0
	lwz 10,40(29)
	lwzx 9,10,28
	lwzx 31,9,30
.LVL220:
	cmpwi 7,31,0
	bne+ 7,.L148
	lwz 11,4(29)
.LVL221:
.L145:
	.loc 2 230 0
	lwz 9,240(11)
	addi 27,27,1
.LVL222:
	add 9,9,26
	lwz 0,4(9)
	cmpw 7,0,27
	bgt+ 7,.L147
.LVL223:
.L143:
.LBE1278:
	.loc 2 237 0
	lwz 0,36(1)
	lwz 26,8(1)
	mtlr 0
	lwz 27,12(1)
	lwz 28,16(1)
	lwz 29,20(1)
.LVL224:
	lwz 30,24(1)
	lwz 31,28(1)
	addi 1,1,32
.LCFI36:
	.cfi_def_cfa_offset 0
	.cfi_restore 31
	.cfi_restore 30
	.cfi_restore 29
	.cfi_restore 28
	.cfi_restore 27
	.cfi_restore 26
	blr
	.cfi_endproc
.LFE2824:
	.size	_ZN10idAASLocal18DeleteClusterCacheEi, .-_ZN10idAASLocal18DeleteClusterCacheEi
	.align 2
	.globl _ZN10idAASLocal27RemoveRoutingCacheUsingAreaEi
	.type	_ZN10idAASLocal27RemoveRoutingCacheUsingAreaEi, @function
_ZN10idAASLocal27RemoveRoutingCacheUsingAreaEi:
.LFB2830:
	.loc 2 344 0
	.cfi_startproc
.LVL225:
	mflr 0
	stwu 1,-16(1)
.LCFI37:
	.cfi_def_cfa_offset 16
	.cfi_register 65, 0
.LBB1279:
	.loc 2 347 0
	slwi 4,4,6
.LVL226:
.LBE1279:
	.loc 2 344 0
	stw 31,12(1)
	mr 31,3
	.cfi_offset 31, -4
	stw 0,20(1)
	stw 30,8(1)
.LBB1284:
	.loc 2 347 0
	lwz 9,4(3)
.LVL227:
	lwz 0,176(9)
	.cfi_offset 30, -8
	.cfi_offset 65, 4
	add 4,0,4
	lha 4,48(4)
.LVL228:
	.loc 2 348 0
	cmpwi 7,4,0
	bgt+ 7,.L154
.LVL229:
.LBB1280:
.LBB1281:
.LBB1282:
	.loc 5 589 0
	mulli 30,4,-12
.LBE1282:
.LBE1281:
.LBE1280:
	.loc 2 354 0
	lwz 9,208(9)
	add 9,9,30
	lha 4,2(9)
.LVL230:
	bl _ZN10idAASLocal18DeleteClusterCacheEi
.LVL231:
.LBB1283:
	.loc 2 1353 0
	lwz 9,4(31)
.LBE1283:
	.loc 2 355 0
	mr 3,31
	lwz 0,208(9)
	add 30,0,30
	lha 4,4(30)
.LVL232:
.L154:
	bl _ZN10idAASLocal18DeleteClusterCacheEi
.LBE1284:
	.loc 2 358 0
	lwz 0,20(1)
	lwz 30,8(1)
.LBB1285:
	.loc 2 357 0
	mr 3,31
.LBE1285:
	.loc 2 358 0
	mtlr 0
	lwz 31,12(1)
.LVL233:
	addi 1,1,16
.LCFI38:
	.cfi_def_cfa_offset 0
	.cfi_restore 31
	.cfi_restore 30
.LBB1286:
	.loc 2 357 0
	b _ZN10idAASLocal17DeletePortalCacheEv
.LVL234:
.LBE1286:
	.cfi_endproc
.LFE2830:
	.size	_ZN10idAASLocal27RemoveRoutingCacheUsingAreaEi, .-_ZN10idAASLocal27RemoveRoutingCacheUsingAreaEi
	.align 2
	.globl _ZN10idAASLocal16SetObstacleStateEPK17idRoutingObstacleb
	.type	_ZN10idAASLocal16SetObstacleStateEPK17idRoutingObstacleb, @function
_ZN10idAASLocal16SetObstacleStateEPK17idRoutingObstacleb:
.LFB2836:
	.loc 2 487 0
	.cfi_startproc
.LVL235:
	mflr 0
	stwu 1,-40(1)
.LCFI39:
	.cfi_def_cfa_offset 40
	.cfi_register 65, 0
	mfcr 12
	stw 25,12(1)
	mr 25,3
	.cfi_offset 25, -28
	.cfi_register 70, 12
	stw 29,28(1)
	mr 29,4
	.cfi_offset 29, -12
	stw 0,44(1)
	stw 26,16(1)
	stw 27,20(1)
	stw 28,24(1)
	stw 30,32(1)
	stw 31,36(1)
	stw 12,8(1)
.LBB1287:
	.loc 2 493 0
	lwz 0,24(4)
	.cfi_offset 70, -32
	.cfi_offset 31, -4
	.cfi_offset 30, -8
	.cfi_offset 28, -16
	.cfi_offset 27, -20
	.cfi_offset 26, -24
	.cfi_offset 65, 4
	cmpwi 7,0,0
	ble- 7,.L155
	.loc 2 520 0
	cmpwi 4,5,0
	.loc 2 493 0
	li 26,0
.LVL236:
.L165:
	.loc 2 495 0
	lwz 9,36(29)
	.loc 2 487 0
	slwi 31,26,2
	.loc 2 495 0
	mr 3,25
	lwzx 4,9,31
	bl _ZN10idAASLocal27RemoveRoutingCacheUsingAreaEi
.LVL237:
	.loc 2 497 0
	lwz 11,36(29)
.LBB1288:
	.loc 2 1353 0
	lwz 9,4(25)
.LBB1289:
.LBB1290:
	.loc 5 589 0
	lwzx 0,11,31
	lwz 27,176(9)
	slwi 0,0,6
	add 27,27,0
.LVL238:
.LBE1290:
.LBE1289:
.LBE1288:
	.loc 2 499 0
	lwz 30,60(27)
.LVL239:
	cmpwi 7,30,0
	beq- 7,.L157
.LVL240:
.L166:
	.loc 2 501 0
	lwz 0,0(30)
	andi. 9,0,1
	bne- 0,.L158
.LVL241:
.LBB1291:
.LBB1292:
.LBB1293:
.LBB1294:
	.loc 3 402 0
	lfs 0,20(30)
.LVL242:
.LBE1294:
.LBE1293:
	.file 7 "d:/Data/Nintendo/DoomGX/src/game/ai/../../idlib/../idlib/bv/Bounds.h"
	.loc 7 354 0
	lfs 13,0(29)
	fcmpu 7,0,13
	blt- 7,.L159
.LVL243:
.LBB1295:
.LBB1296:
	.loc 3 402 0
	lfs 13,24(30)
.LVL244:
.LBE1296:
.LBE1295:
	.loc 7 354 0
	lfs 12,4(29)
	fcmpu 7,13,12
	blt- 7,.L159
.LVL245:
.LBB1297:
.LBB1298:
	.loc 3 402 0
	lfs 12,28(30)
.LVL246:
.LBE1298:
.LBE1297:
	.loc 7 354 0
	lfs 11,8(29)
	fcmpu 7,12,11
	blt- 7,.L159
.LVL247:
	lfs 11,12(29)
	fcmpu 7,0,11
	bgt- 7,.L159
.LVL248:
	lfs 0,16(29)
	fcmpu 7,13,0
	bgt- 7,.L159
.LVL249:
	lfs 0,20(29)
	fcmpu 7,12,0
	bng- 7,.L160
.LVL250:
.L159:
.LBE1292:
.LBE1291:
	.loc 2 511 0
	lwz 31,56(27)
.LVL251:
	cmpwi 7,31,0
	beq- 7,.L158
	addi 28,30,20
	b .L162
.LVL252:
.L170:
	lwz 31,40(31)
.LVL253:
	cmpwi 7,31,0
	beq- 7,.L158
.L162:
	.loc 2 512 0
	addi 5,31,8
	mr 3,29
	mr 4,28
	bl _ZNK8idBounds16LineIntersectionERK6idVec3S2_
	cmpwi 7,3,0
	beq+ 7,.L170
.LVL254:
.L160:
	.loc 2 520 0
	beq- 4,.L163
	.loc 2 521 0
	lbz 9,39(30)
	addi 0,9,-1
	rlwinm 0,0,0,0xff
	.loc 2 522 0
	cmpwi 7,0,0
	.loc 2 521 0
	stb 0,39(30)
	.loc 2 522 0
	bne- 7,.L158
	.loc 2 523 0
	lwz 9,0(30)
	rlwinm 0,9,0,0,30
	stw 0,0(30)
.LVL255:
.L158:
	.loc 2 499 0
	lwz 30,44(30)
.LVL256:
	cmpwi 7,30,0
	bne+ 7,.L166
.L157:
	.loc 2 493 0
	lwz 0,24(29)
	addi 26,26,1
.LVL257:
	cmpw 7,0,26
	bgt+ 7,.L165
.LVL258:
.L155:
.LBE1287:
	.loc 2 534 0
	lwz 0,44(1)
	lwz 12,8(1)
	mtlr 0
	lwz 25,12(1)
.LVL259:
	lwz 26,16(1)
	mtcrf 8,12
	lwz 27,20(1)
	lwz 28,24(1)
	lwz 29,28(1)
.LVL260:
	lwz 30,32(1)
	lwz 31,36(1)
	addi 1,1,40
	.cfi_remember_state
.LCFI40:
	.cfi_def_cfa_offset 0
	.cfi_restore 70
	.cfi_restore 31
	.cfi_restore 30
	.cfi_restore 29
	.cfi_restore 28
	.cfi_restore 27
	.cfi_restore 26
	.cfi_restore 25
	blr
.LVL261:
.L163:
.LCFI41:
	.cfi_restore_state
.LBB1299:
	.loc 2 528 0
	lwz 9,0(30)
	.loc 2 529 0
	lbz 11,39(30)
	.loc 2 528 0
	ori 9,9,1
	.loc 2 529 0
	addi 0,11,1
	.loc 2 528 0
	stw 9,0(30)
	.loc 2 529 0
	stb 0,39(30)
	b .L158
.LBE1299:
	.cfi_endproc
.LFE2836:
	.size	_ZN10idAASLocal16SetObstacleStateEPK17idRoutingObstacleb, .-_ZN10idAASLocal16SetObstacleStateEPK17idRoutingObstacleb
	.align 2
	.globl _ZN10idAASLocal14RemoveObstacleEi
	.type	_ZN10idAASLocal14RemoveObstacleEi, @function
_ZN10idAASLocal14RemoveObstacleEi:
.LFB2838:
	.loc 2 563 0
	.cfi_startproc
.LVL262:
	mflr 0
	stwu 1,-24(1)
.LCFI42:
	.cfi_def_cfa_offset 24
	.cfi_register 65, 0
	stw 29,12(1)
	mr 29,4
	.cfi_offset 29, -12
	stw 30,16(1)
	mr 30,3
	.cfi_offset 30, -8
	stw 0,28(1)
	stw 28,8(1)
	stw 31,20(1)
	.loc 2 564 0
	lwz 0,4(3)
	.cfi_offset 31, -4
	.cfi_offset 28, -16
	.cfi_offset 65, 4
	cmpwi 7,0,0
	beq- 7,.L171
	.loc 2 567 0
	cmpwi 7,4,0
	blt- 7,.L171
	.loc 2 567 0 is_stmt 0 discriminator 1
	lwz 0,88(3)
	cmpw 7,4,0
	bge- 7,.L171
.LVL263:
	.loc 2 568 0 is_stmt 1 discriminator 4
	lwz 9,100(3)
.LBB1314:
.LBB1315:
	.loc 5 589 0 discriminator 4
	slwi 31,4,2
.LBE1315:
.LBE1314:
	.loc 2 568 0 discriminator 4
	li 5,0
	lwzx 4,9,31
.LVL264:
	bl _ZN10idAASLocal16SetObstacleStateEPK17idRoutingObstacleb
.LVL265:
	.loc 2 570 0 discriminator 4
	lwz 9,100(30)
	lwzx 28,9,31
	cmpwi 7,28,0
	beq- 7,.L173
.LVL266:
.LBB1316:
.LBB1317:
.LBB1318:
.LBB1319:
.LBB1320:
.LBB1321:
	.loc 5 193 0
	lwz 3,36(28)
	cmpwi 7,3,0
	beq- 7,.L174
	.loc 5 194 0
	bl _ZdaPv
.LVL267:
.L174:
	.loc 5 197 0
	li 0,0
.LBE1321:
.LBE1320:
.LBE1319:
.LBE1318:
.LBE1317:
.LBE1316:
	.loc 2 570 0
	mr 3,28
.LBB1327:
.LBB1326:
.LBB1325:
.LBB1324:
.LBB1323:
.LBB1322:
	.loc 5 197 0
	stw 0,36(28)
	.loc 5 198 0
	stw 0,24(28)
	.loc 5 199 0
	stw 0,28(28)
.LBE1322:
.LBE1323:
.LBE1324:
.LBE1325:
.LBE1326:
.LBE1327:
	.loc 2 570 0
	bl _ZdlPv
.LVL268:
.L173:
.LBB1328:
.LBB1329:
	.loc 5 864 0
	lwz 9,88(30)
	cmpw 7,29,9
	bge- 7,.L171
	.loc 5 868 0
	addi 0,9,-1
	.loc 5 869 0
	cmpw 7,29,0
	.loc 5 868 0
	stw 0,88(30)
.LVL269:
	.loc 5 869 0
	bge- 7,.L171
.LVL270:
.L177:
	.loc 5 870 0
	lwz 9,100(30)
	.loc 5 869 0
	addi 29,29,1
.LVL271:
	.loc 5 870 0
	add 11,9,31
	.loc 2 563 0
	addi 31,31,4
	.loc 5 870 0
	lwzx 0,9,31
	stw 0,0(11)
	.loc 5 869 0
	lwz 0,88(30)
	cmpw 7,29,0
	blt+ 7,.L177
.LVL272:
.L171:
.LBE1329:
.LBE1328:
	.loc 2 573 0
	lwz 0,28(1)
	lwz 28,8(1)
	mtlr 0
	lwz 29,12(1)
	lwz 30,16(1)
.LVL273:
	lwz 31,20(1)
	addi 1,1,24
.LCFI43:
	.cfi_def_cfa_offset 0
	.cfi_restore 31
	.cfi_restore 30
	.cfi_restore 29
	.cfi_restore 28
	blr
	.cfi_endproc
.LFE2838:
	.size	_ZN10idAASLocal14RemoveObstacleEi, .-_ZN10idAASLocal14RemoveObstacleEi
	.align 2
	.globl _ZN10idAASLocal18RemoveAllObstaclesEv
	.type	_ZN10idAASLocal18RemoveAllObstaclesEv, @function
_ZN10idAASLocal18RemoveAllObstaclesEv:
.LFB2842:
	.loc 2 580 0
	.cfi_startproc
.LVL274:
	mflr 0
	stwu 1,-24(1)
.LCFI44:
	.cfi_def_cfa_offset 24
	.cfi_register 65, 0
	stw 31,20(1)
	mr 31,3
	.cfi_offset 31, -4
	stw 0,28(1)
	stw 29,12(1)
	stw 30,16(1)
.LBB1345:
	.loc 2 583 0
	lwz 0,4(3)
	.cfi_offset 30, -8
	.cfi_offset 29, -12
	.cfi_offset 65, 4
	cmpwi 7,0,0
	beq- 7,.L179
.LVL275:
	.loc 2 587 0 discriminator 1
	lwz 0,88(3)
	li 30,0
	lwz 3,100(3)
.LVL276:
	cmpwi 7,0,0
	ble- 7,.L182
.LVL277:
.L187:
	.loc 2 580 0
	slwi 29,30,2
	.loc 2 588 0
	li 5,0
	lwzx 4,3,29
	mr 3,31
	.loc 2 587 0
	addi 30,30,1
.LVL278:
	.loc 2 588 0
	bl _ZN10idAASLocal16SetObstacleStateEPK17idRoutingObstacleb
	.loc 2 1353 0
	lwz 3,100(31)
	.loc 2 589 0
	lwzx 29,3,29
	cmpwi 7,29,0
	beq- 7,.L183
.LVL279:
.LBB1346:
.LBB1347:
.LBB1348:
.LBB1349:
.LBB1350:
.LBB1351:
	.loc 5 193 0
	lwz 3,36(29)
	cmpwi 7,3,0
	beq- 7,.L184
	.loc 5 194 0
	bl _ZdaPv
.L184:
	.loc 5 197 0
	li 0,0
.LBE1351:
.LBE1350:
.LBE1349:
.LBE1348:
.LBE1347:
.LBE1346:
	.loc 2 589 0
	mr 3,29
.LBB1357:
.LBB1356:
.LBB1355:
.LBB1354:
.LBB1353:
.LBB1352:
	.loc 5 197 0
	stw 0,36(29)
	.loc 5 198 0
	stw 0,24(29)
	.loc 5 199 0
	stw 0,28(29)
.LBE1352:
.LBE1353:
.LBE1354:
.LBE1355:
.LBE1356:
.LBE1357:
	.loc 2 589 0
	bl _ZdlPv
	lwz 3,100(31)
.LVL280:
.L183:
	.loc 2 587 0
	lwz 0,88(31)
	cmpw 7,0,30
	bgt+ 7,.L187
.LVL281:
.L182:
.LBB1358:
.LBB1359:
	.loc 5 193 0
	cmpwi 7,3,0
	beq- 7,.L188
	.loc 5 194 0
	bl _ZdaPv
.L188:
	.loc 5 197 0
	li 0,0
	stw 0,100(31)
	.loc 5 198 0
	stw 0,88(31)
	.loc 5 199 0
	stw 0,92(31)
.LVL282:
.L179:
.LBE1359:
.LBE1358:
.LBE1345:
	.loc 2 592 0
	lwz 0,28(1)
	lwz 29,12(1)
	mtlr 0
	lwz 30,16(1)
	lwz 31,20(1)
.LVL283:
	addi 1,1,24
.LCFI45:
	.cfi_def_cfa_offset 0
	.cfi_restore 31
	.cfi_restore 30
	.cfi_restore 29
	blr
	.cfi_endproc
.LFE2842:
	.size	_ZN10idAASLocal18RemoveAllObstaclesEv, .-_ZN10idAASLocal18RemoveAllObstaclesEv
	.align 2
	.globl _ZN10idAASLocal11AddObstacleERK8idBounds
	.type	_ZN10idAASLocal11AddObstacleERK8idBounds, @function
_ZN10idAASLocal11AddObstacleERK8idBounds:
.LFB2837:
	.loc 2 541 0
	.cfi_startproc
.LVL284:
	mflr 0
	stwu 1,-24(1)
.LCFI46:
	.cfi_def_cfa_offset 24
	.cfi_register 65, 0
	stw 29,12(1)
	mr 29,4
	.cfi_offset 29, -12
	stw 31,20(1)
	mr 31,3
	.cfi_offset 31, -4
	stw 0,28(1)
	stw 28,8(1)
	stw 30,16(1)
.LBB1389:
	.loc 2 544 0
	lwz 0,4(3)
	.cfi_offset 30, -8
	.cfi_offset 28, -16
	.cfi_offset 65, 4
	.loc 2 545 0
	li 3,-1
.LVL285:
	.loc 2 544 0
	cmpwi 7,0,0
	beq- 7,.L191
	.loc 2 548 0
	li 3,40
	.loc 2 554 0
	addi 28,31,88
	.loc 2 548 0
	bl _Znwj
.LVL286:
.LBB1390:
.LBB1391:
.LBB1392:
.LBB1393:
.LBB1394:
	.loc 5 197 0
	li 0,0
.LBE1394:
.LBE1393:
	.loc 5 159 0
	li 9,16
.LBB1397:
.LBB1395:
	.loc 5 197 0
	stw 0,36(3)
	.loc 5 198 0
	stw 0,24(3)
.LBE1395:
.LBE1397:
.LBE1392:
.LBE1391:
.LBE1390:
	.loc 2 551 0
	mr 5,3
.LBB1403:
.LBB1401:
.LBB1399:
.LBB1398:
.LBB1396:
	.loc 5 199 0
	stw 0,28(3)
.LBE1396:
.LBE1398:
.LBE1399:
.LBE1401:
.LBE1403:
	.loc 2 551 0
	addi 6,3,24
.LBB1404:
.LBB1402:
.LBB1400:
	.loc 5 159 0
	stw 9,32(3)
.LBE1400:
.LBE1402:
.LBE1404:
	.loc 2 548 0
	mr 30,3
.LVL287:
	.loc 2 551 0
	li 4,1
	.loc 2 549 0
	lwz 9,4(31)
.LVL288:
.LBB1405:
.LBB1406:
	.loc 3 431 0
	lfs 9,4(29)
	lfs 10,8(29)
	lfs 11,0(29)
	lfs 12,264(9)
	lfs 13,268(9)
	lfs 0,260(9)
	fsubs 12,9,12
	fsubs 13,10,13
.LVL289:
	fsubs 0,11,0
.LBE1406:
.LBE1405:
.LBB1407:
.LBB1408:
	.loc 3 425 0
	stfs 12,4(3)
	.loc 3 426 0
	stfs 13,8(3)
.LVL290:
	.loc 3 424 0
	stfs 0,0(3)
.LBE1408:
.LBE1407:
	.loc 2 550 0
	lwz 9,4(31)
.LVL291:
.LBB1409:
.LBB1410:
	.loc 3 431 0
	lfs 9,16(29)
	lfs 10,20(29)
	lfs 11,12(29)
	lfs 12,252(9)
.LVL292:
	lfs 13,256(9)
.LVL293:
	lfs 0,248(9)
	fsubs 12,9,12
	fsubs 13,10,13
.LVL294:
	fsubs 0,11,0
.LBE1410:
.LBE1409:
.LBB1411:
.LBB1412:
	.loc 3 425 0
	stfs 12,16(3)
	.loc 3 426 0
	stfs 13,20(3)
	.loc 3 424 0
	stfs 0,12(3)
.LBE1412:
.LBE1411:
	.loc 2 551 0
	mr 3,31
.LVL295:
	bl _ZNK10idAASLocal16GetBoundsAreas_rEiRK8idBoundsR6idListIiE
.LVL296:
	.loc 2 552 0
	mr 3,31
	mr 4,30
	li 5,1
	bl _ZN10idAASLocal16SetObstacleStateEPK17idRoutingObstacleb
.LVL297:
.LBB1413:
.LBB1414:
	.loc 5 655 0
	lwz 29,100(31)
.LVL298:
	cmpwi 7,29,0
	beq- 7,.L192
	lwz 0,88(31)
	lwz 9,92(31)
.L193:
.LBB1415:
	.loc 5 659 0
	cmpw 7,0,9
	beq- 7,.L211
.L213:
.LBB1416:
.LBB1417:
.LBB1418:
	.loc 5 399 0
	slwi 0,0,2
	add 29,29,0
.L200:
.LBE1418:
.LBE1417:
.LBE1416:
.LBE1415:
	.loc 5 669 0
	stw 30,0(29)
	.loc 5 670 0
	lwz 3,88(31)
	addi 0,3,1
	stw 0,88(31)
.LVL299:
.L191:
.LBE1414:
.LBE1413:
.LBE1389:
	.loc 2 556 0
	lwz 0,28(1)
	lwz 28,8(1)
	mtlr 0
	lwz 29,12(1)
	lwz 30,16(1)
	lwz 31,20(1)
.LVL300:
	addi 1,1,24
	.cfi_remember_state
.LCFI47:
	.cfi_def_cfa_offset 0
	.cfi_restore 31
	.cfi_restore 30
	.cfi_restore 29
	.cfi_restore 28
	blr
.LVL301:
.L211:
.LCFI48:
	.cfi_restore_state
	lwz 3,96(31)
.LBB1441:
.LBB1440:
.LBB1439:
.LBB1429:
	.loc 5 659 0
	mr 10,0
.L195:
.LBB1427:
	.loc 5 662 0
	cmpwi 7,3,0
	mr 9,3
	beq- 7,.L214
.L201:
	.loc 5 665 0
	add 11,0,9
.LVL302:
	.loc 5 666 0
	divw 11,11,9
.LVL303:
.LBB1424:
.LBB1421:
	.loc 5 375 0
	mullw. 9,11,9
.LVL304:
	ble- 0,.L215
	.loc 5 380 0
	cmpw 7,9,0
	beq- 7,.L216
.LVL305:
	.loc 5 387 0
	cmpw 7,9,10
	.loc 5 386 0
	stw 9,92(31)
	.loc 5 387 0
	bge- 7,.L205
	.loc 5 388 0
	stw 9,88(31)
.L205:
	.loc 5 392 0
	slwi 3,9,2
	bl _Znaj
.LVL306:
	.loc 5 393 0
	lwz 0,88(31)
	.loc 5 392 0
	stw 3,100(31)
.LVL307:
	.loc 5 393 0
	cmpwi 7,0,0
	ble- 7,.L206
	.loc 2 541 0
	addi 11,29,-4
.LBE1421:
.LBE1424:
	.loc 5 393 0
	li 9,0
	b .L207
.LVL308:
.L217:
.LBB1425:
.LBB1422:
	lwz 3,100(31)
.LVL309:
.L207:
	.loc 5 394 0
	lwzu 10,4(11)
	slwi 0,9,2
	.loc 5 393 0
	addi 9,9,1
.LVL310:
	.loc 5 394 0
	stwx 10,3,0
	.loc 5 393 0
	lwz 0,0(28)
	cmpw 7,9,0
	blt+ 7,.L217
.LVL311:
.L206:
	.loc 5 398 0
	cmpwi 7,29,0
	beq- 7,.L218
	.loc 5 399 0
	mr 3,29
	bl _ZdaPv
	lwz 0,88(31)
	lwz 29,100(31)
.LVL312:
	b .L213
.LVL313:
.L214:
.LBE1422:
.LBE1425:
	.loc 5 663 0
	li 9,16
	stw 9,96(31)
	b .L201
.L192:
.LBE1427:
.LBE1429:
	.loc 5 656 0
	lwz 3,96(31)
.LBB1430:
.LBB1431:
	.loc 5 375 0
	cmpwi 7,3,0
.LBE1431:
.LBE1430:
	.loc 5 656 0
	mr 9,3
.LVL314:
.LBB1436:
.LBB1434:
	.loc 5 375 0
	ble- 7,.L219
	.loc 5 380 0
	lwz 0,92(31)
	cmpw 7,3,0
	lwz 0,88(31)
	beq- 7,.L193
.LVL315:
	.loc 5 387 0
	cmpw 7,3,0
	.loc 5 386 0
	stw 3,92(31)
	.loc 5 387 0
	bge- 7,.L197
	.loc 5 388 0
	stw 3,88(31)
.L197:
	.loc 5 392 0
	slwi 3,3,2
	bl _Znaj
.LVL316:
	.loc 5 393 0
	lwz 0,88(31)
	.loc 5 392 0
	mr 29,3
	stw 3,100(31)
.LVL317:
	.loc 5 393 0
	cmpwi 7,0,0
	li 9,0
	li 11,0
	bgt+ 7,.L212
	b .L222
.LVL318:
.L221:
	lwz 29,100(31)
.LVL319:
.L212:
	.loc 5 394 0
	lwz 0,0(9)
	.loc 5 393 0
	addi 11,11,1
.LVL320:
	.loc 5 394 0
	stwx 0,29,9
	.loc 5 393 0
	addi 9,9,4
	lwz 0,0(28)
	cmpw 7,11,0
	blt+ 7,.L221
	lwz 9,92(31)
	lwz 29,100(31)
	b .L193
.LVL321:
.L216:
.LBE1434:
.LBE1436:
.LBB1437:
.LBB1428:
.LBB1426:
.LBB1423:
	.loc 5 380 0
	slwi 10,10,2
	add 29,29,10
	b .L200
.LVL322:
.L218:
	.loc 5 398 0
	lwz 0,88(31)
	lwz 29,100(31)
.LVL323:
	slwi 0,0,2
	add 29,29,0
	b .L200
.LVL324:
.L215:
.LBB1419:
.LBB1420:
	.loc 5 193 0
	cmpwi 7,29,0
	beq- 7,.L203
	.loc 5 194 0
	mr 3,29
	bl _ZdaPv
.LVL325:
.L203:
	.loc 5 197 0
	li 0,0
	.loc 5 199 0
	li 29,0
	.loc 5 197 0
	stw 0,100(31)
	.loc 5 198 0
	stw 0,88(31)
	.loc 5 199 0
	stw 0,92(31)
	b .L200
.LVL326:
.L219:
.LBE1420:
.LBE1419:
.LBE1423:
.LBE1426:
.LBE1428:
.LBE1437:
.LBB1438:
.LBB1435:
.LBB1432:
.LBB1433:
	.loc 5 198 0
	stw 29,88(31)
	.loc 5 199 0
	li 0,0
	stw 29,92(31)
	li 10,0
	b .L195
.LVL327:
.L222:
.LBE1433:
.LBE1432:
	.loc 5 393 0
	lwz 9,92(31)
	b .L193
.LBE1435:
.LBE1438:
.LBE1439:
.LBE1440:
.LBE1441:
	.cfi_endproc
.LFE2837:
	.size	_ZN10idAASLocal11AddObstacleERK8idBounds, .-_ZN10idAASLocal11AddObstacleERK8idBounds
	.align 2
	.globl _ZN10idAASLocal10EnableAreaEi
	.type	_ZN10idAASLocal10EnableAreaEi, @function
_ZN10idAASLocal10EnableAreaEi:
.LFB2832:
	.loc 2 382 0
	.cfi_startproc
.LVL328:
.LBB1442:
	.loc 2 1353 0
	lwz 9,4(3)
.LBB1443:
.LBB1444:
	.loc 5 589 0
	slwi 0,4,6
	lwz 9,176(9)
	add 9,9,0
.LBE1444:
.LBE1443:
.LBE1442:
	.loc 2 385 0
	lwz 0,52(9)
	andi. 11,0,1
	beqlr+ 0
.LVL329:
.LBB1445:
.LBB1446:
	.loc 6 316 0
	rlwinm 0,0,0,0,30
	stw 0,52(9)
.LBE1446:
.LBE1445:
	.loc 2 392 0
	.loc 2 391 0
	b _ZN10idAASLocal27RemoveRoutingCacheUsingAreaEi
.LVL330:
.LVL331:
.LVL332:
.LVL333:
.LVL334:
	.cfi_endproc
.LFE2832:
	.size	_ZN10idAASLocal10EnableAreaEi, .-_ZN10idAASLocal10EnableAreaEi
	.align 2
	.globl _ZN10idAASLocal11DisableAreaEi
	.type	_ZN10idAASLocal11DisableAreaEi, @function
_ZN10idAASLocal11DisableAreaEi:
.LFB2831:
	.loc 2 365 0
	.cfi_startproc
.LVL335:
.LBB1447:
	.loc 2 1353 0
	lwz 9,4(3)
.LBB1448:
.LBB1449:
	.loc 5 589 0
	slwi 0,4,6
	lwz 9,176(9)
	add 9,9,0
.LBE1449:
.LBE1448:
.LBE1447:
	.loc 2 368 0
	lwz 0,52(9)
	andi. 11,0,1
	bnelr+ 0
.LVL336:
.LBB1450:
.LBB1451:
	.loc 6 315 0
	ori 0,0,1
	stw 0,52(9)
.LBE1451:
.LBE1450:
	.loc 2 375 0
	.loc 2 374 0
	b _ZN10idAASLocal27RemoveRoutingCacheUsingAreaEi
.LVL337:
.LVL338:
.LVL339:
.LVL340:
	.cfi_endproc
.LFE2831:
	.size	_ZN10idAASLocal11DisableAreaEi, .-_ZN10idAASLocal11DisableAreaEi
	.align 2
	.globl _ZN10idAASLocal14SetAreaState_rEiRK8idBoundsib
	.type	_ZN10idAASLocal14SetAreaState_rEiRK8idBoundsib, @function
_ZN10idAASLocal14SetAreaState_rEiRK8idBoundsib:
.LFB2833:
	.loc 2 399 0
	.cfi_startproc
.LVL341:
	stwu 1,-40(1)
.LCFI49:
	.cfi_def_cfa_offset 40
	mflr 0
	stw 31,28(1)
.LBB1452:
	.loc 2 404 0
	mr. 31,4
	.cfi_offset 31, -12
	.cfi_register 65, 0
.LBE1452:
	.loc 2 399 0
	stw 26,8(1)
	mr 26,7
	.cfi_offset 26, -32
	stw 27,12(1)
	mr 27,6
	.cfi_offset 27, -28
	stw 28,16(1)
.LBB1469:
	.loc 2 402 0
	li 28,0
	.cfi_offset 28, -24
.LBE1469:
	.loc 2 399 0
	stw 29,20(1)
	mr 29,5
	.cfi_offset 29, -20
	stw 30,24(1)
	mr 30,3
	.cfi_offset 30, -16
	stw 0,44(1)
	stfd 31,32(1)
.LBB1470:
	.loc 2 404 0
	beq- 0,.L228
	.cfi_offset 63, -8
	.cfi_offset 65, 4
	.loc 2 405 0
	blt- 0,.L229
	lis 9,.LC14@ha
	.loc 2 418 0
	lfs 31,.LC14@l(9)
	b .L230
.LVL342:
.L232:
	.loc 2 422 0
	bne- 6,.L234
	.loc 2 423 0
	lwz 31,4(31)
.LVL343:
.L233:
	.loc 2 404 0 discriminator 1
	cmpwi 7,31,0
	beq- 7,.L228
.LVL344:
.L235:
	.loc 2 405 0
	blt- 7,.L229
.LVL345:
.L230:
	.loc 2 417 0
	lwz 11,4(30)
.LVL346:
.LBB1453:
.LBB1454:
.LBB1455:
	.loc 5 573 0
	mulli 31,31,12
.LVL347:
.LBE1455:
.LBE1454:
.LBE1453:
	.loc 2 418 0
	fmr 1,31
	mr 3,29
.LBB1460:
.LBB1458:
.LBB1456:
	.loc 5 573 0
	lwz 9,192(11)
.LBE1456:
.LBE1458:
.LBE1460:
.LBB1461:
.LBB1462:
.LBB1463:
	lwz 4,52(11)
.LBE1463:
.LBE1462:
.LBE1461:
	.loc 2 418 0
	lhzx 0,9,31
.LBB1466:
.LBB1459:
.LBB1457:
	.loc 5 573 0
	add 31,9,31
.LVL348:
.LBE1457:
.LBE1459:
.LBE1466:
.LBB1467:
.LBB1465:
.LBB1464:
	slwi 0,0,4
.LBE1464:
.LBE1465:
.LBE1467:
	.loc 2 418 0
	add 4,4,0
	bl _ZNK8idBounds9PlaneSideERK7idPlanef
.LVL349:
	.loc 2 419 0
	cmpwi 7,3,1
	.loc 2 422 0
	cmpwi 6,3,0
	.loc 2 419 0
	bne+ 7,.L232
	.loc 2 420 0
	lwz 31,8(31)
.LVL350:
	.loc 2 404 0
	cmpwi 7,31,0
	bne+ 7,.L235
.LVL351:
.L228:
.LBE1470:
	.loc 2 432 0
	lwz 0,44(1)
	mr 3,28
	lwz 26,8(1)
	mtlr 0
	lwz 27,12(1)
.LVL352:
	lwz 28,16(1)
.LVL353:
	lwz 29,20(1)
.LVL354:
	lwz 30,24(1)
.LVL355:
	lwz 31,28(1)
.LVL356:
	lfd 31,32(1)
	addi 1,1,40
	.cfi_remember_state
.LCFI50:
	.cfi_def_cfa_offset 0
	.cfi_restore 63
	.cfi_restore 31
	.cfi_restore 30
	.cfi_restore 29
	.cfi_restore 28
	.cfi_restore 27
	.cfi_restore 26
	blr
.LVL357:
.L234:
.LCFI51:
	.cfi_restore_state
.LBB1471:
	.loc 2 426 0
	lwz 4,8(31)
	mr 3,30
.LVL358:
	mr 5,29
	mr 6,27
	mr 7,26
	bl _ZN10idAASLocal14SetAreaState_rEiRK8idBoundsib
	.loc 2 427 0
	lwz 31,4(31)
.LVL359:
	.loc 2 426 0
	or 28,3,28
	rlwinm 28,28,0,0xff
.LVL360:
	b .L233
.LVL361:
.L229:
.LBB1468:
	.loc 2 1353 0
	lwz 9,4(30)
.LBE1468:
	.loc 2 407 0
	neg 4,31
.LVL362:
	slwi 0,4,6
	lwz 9,176(9)
	add 9,9,0
	lhz 0,46(9)
	and. 9,27,0
	beq- 0,.L228
	.loc 2 408 0
	cmpwi 7,26,0
	.loc 2 409 0
	mr 3,30
	.loc 2 408 0
	beq- 7,.L231
	.loc 2 409 0
	bl _ZN10idAASLocal11DisableAreaEi
.LVL363:
.LBE1471:
	.loc 2 432 0
	lwz 0,44(1)
.LBB1472:
	.loc 2 413 0
	li 28,1
.LVL364:
.LBE1472:
	.loc 2 432 0
	lwz 26,8(1)
	mtlr 0
	mr 3,28
	lwz 27,12(1)
.LVL365:
	lwz 28,16(1)
.LVL366:
	lwz 29,20(1)
.LVL367:
	lwz 30,24(1)
.LVL368:
	lwz 31,28(1)
.LVL369:
	lfd 31,32(1)
	addi 1,1,40
	.cfi_remember_state
	.cfi_restore 26
	.cfi_restore 27
	.cfi_restore 28
	.cfi_restore 29
	.cfi_restore 30
	.cfi_restore 31
	.cfi_restore 63
.LCFI52:
	.cfi_def_cfa_offset 0
	blr
.LVL370:
.L231:
.LCFI53:
	.cfi_restore_state
.LBB1473:
	.loc 2 411 0
	bl _ZN10idAASLocal10EnableAreaEi
.LVL371:
.LBE1473:
	.loc 2 432 0
	lwz 0,44(1)
.LBB1474:
	.loc 2 413 0
	li 28,1
.LVL372:
.LBE1474:
	.loc 2 432 0
	lwz 26,8(1)
	mtlr 0
	mr 3,28
	lwz 27,12(1)
.LVL373:
	lwz 28,16(1)
.LVL374:
	lwz 29,20(1)
.LVL375:
	lwz 30,24(1)
.LVL376:
	lwz 31,28(1)
.LVL377:
	lfd 31,32(1)
	addi 1,1,40
	.cfi_restore 26
	.cfi_restore 27
	.cfi_restore 28
	.cfi_restore 29
	.cfi_restore 30
	.cfi_restore 31
	.cfi_restore 63
.LCFI54:
	.cfi_def_cfa_offset 0
	blr
	.cfi_endproc
.LFE2833:
	.size	_ZN10idAASLocal14SetAreaState_rEiRK8idBoundsib, .-_ZN10idAASLocal14SetAreaState_rEiRK8idBoundsib
	.align 2
	.globl _ZN10idAASLocal12SetAreaStateERK8idBoundsib
	.type	_ZN10idAASLocal12SetAreaStateERK8idBoundsib, @function
_ZN10idAASLocal12SetAreaStateERK8idBoundsib:
.LFB2834:
	.loc 2 439 0
	.cfi_startproc
.LVL378:
	mflr 0
	stwu 1,-40(1)
.LCFI55:
	.cfi_def_cfa_offset 40
	.cfi_register 65, 0
	mr 7,6
.LBB1475:
	.loc 2 443 0
	li 11,0
.LBE1475:
	.loc 2 439 0
	stw 0,44(1)
	.loc 2 439 0
	mr 0,5
	.cfi_offset 65, 4
.LBB1504:
	.loc 2 442 0
	lwz 9,4(3)
	cmpwi 7,9,0
	beq- 7,.L240
.LVL379:
.LBB1476:
.LBB1477:
	.loc 3 431 0
	lfs 3,4(4)
.LBE1477:
.LBE1476:
	.loc 2 450 0
	addi 5,1,8
.LBB1483:
.LBB1478:
	.loc 3 431 0
	lfs 4,8(4)
.LBE1478:
.LBE1483:
	.loc 2 450 0
	mr 6,0
.LVL380:
.LBB1484:
.LBB1479:
	.loc 3 431 0
	lfs 5,0(4)
.LBE1479:
.LBE1484:
.LBB1485:
.LBB1486:
	lfs 6,16(4)
	lfs 7,20(4)
	lfs 8,12(4)
.LBE1486:
.LBE1485:
	.loc 2 450 0
	li 4,1
.LVL381:
.LBB1491:
.LBB1480:
	.loc 3 431 0
	lfs 10,264(9)
	lfs 11,268(9)
	lfs 9,260(9)
	fsubs 10,3,10
.LBE1480:
.LBE1491:
.LBB1492:
.LBB1487:
	lfs 13,252(9)
.LBE1487:
.LBE1492:
.LBB1493:
.LBB1481:
	fsubs 11,4,11
.LBE1481:
.LBE1493:
.LBB1494:
.LBB1488:
	lfs 0,256(9)
.LVL382:
.LBE1488:
.LBE1494:
.LBB1495:
.LBB1482:
	fsubs 9,5,9
.LBE1482:
.LBE1495:
.LBB1496:
.LBB1489:
	lfs 12,248(9)
	fsubs 13,6,13
	fsubs 0,7,0
.LBE1489:
.LBE1496:
.LBB1497:
.LBB1498:
	.loc 3 425 0
	stfs 10,12(1)
.LBE1498:
.LBE1497:
.LBB1500:
.LBB1490:
	.loc 3 431 0
	fsubs 12,8,12
.LBE1490:
.LBE1500:
.LBB1501:
.LBB1499:
	.loc 3 424 0
	stfs 9,8(1)
	.loc 3 426 0
	stfs 11,16(1)
.LVL383:
.LBE1499:
.LBE1501:
.LBB1502:
.LBB1503:
	.loc 3 425 0
	stfs 13,24(1)
	.loc 3 424 0
	stfs 12,20(1)
	.loc 3 426 0
	stfs 0,28(1)
.LBE1503:
.LBE1502:
	.loc 2 450 0
	bl _ZN10idAASLocal14SetAreaState_rEiRK8idBoundsib
.LVL384:
	mr 11,3
.LVL385:
.L240:
.LBE1504:
	.loc 2 451 0
	lwz 0,44(1)
	mr 3,11
	addi 1,1,40
.LCFI56:
	.cfi_def_cfa_offset 0
	mtlr 0
	blr
	.cfi_endproc
.LFE2834:
	.size	_ZN10idAASLocal12SetAreaStateERK8idBoundsib, .-_ZN10idAASLocal12SetAreaStateERK8idBoundsib
	.align 2
	.globl _ZN10idAASLocal20ShutdownRoutingCacheEv
	.type	_ZN10idAASLocal20ShutdownRoutingCacheEv, @function
_ZN10idAASLocal20ShutdownRoutingCacheEv:
.LFB2826:
	.loc 2 262 0
	.cfi_startproc
.LVL386:
	mflr 0
	stwu 1,-16(1)
.LCFI57:
	.cfi_def_cfa_offset 16
	.cfi_register 65, 0
	stw 30,8(1)
	mr 30,3
	.cfi_offset 30, -8
.LVL387:
	stw 0,20(1)
	stw 31,12(1)
.LBB1505:
.LBB1506:
	.loc 2 1353 0
	lwz 9,4(3)
.LBE1506:
	.loc 2 265 0
	lwz 0,228(9)
	.cfi_offset 31, -4
	.cfi_offset 65, 4
	cmpwi 7,0,0
	ble- 7,.L243
	li 31,0
.LVL388:
.L244:
	.loc 2 266 0 discriminator 2
	mr 4,31
	mr 3,30
	bl _ZN10idAASLocal18DeleteClusterCacheEi
.LBB1507:
	.loc 2 1353 0 discriminator 2
	lwz 9,4(30)
.LBE1507:
	.loc 2 265 0 discriminator 2
	addi 31,31,1
.LVL389:
	lwz 0,228(9)
	cmpw 7,31,0
	blt+ 7,.L244
.LVL390:
.L243:
	.loc 2 269 0
	mr 3,30
	.loc 2 272 0
	li 31,0
	.loc 2 269 0
	bl _ZN10idAASLocal17DeletePortalCacheEv
	.loc 2 271 0
	lwz 3,40(30)
	bl _Z8Mem_FreePv
	.loc 2 274 0
	lwz 3,48(30)
	.loc 2 272 0
	stw 31,40(30)
	.loc 2 273 0
	stw 31,44(30)
	.loc 2 274 0
	bl _Z8Mem_FreePv
	.loc 2 277 0
	lwz 3,56(30)
	.loc 2 275 0
	stw 31,48(30)
	.loc 2 276 0
	stw 31,52(30)
	.loc 2 277 0
	bl _Z8Mem_FreePv
	.loc 2 279 0
	lwz 3,60(30)
	.loc 2 278 0
	stw 31,56(30)
	.loc 2 279 0
	bl _Z8Mem_FreePv
	.loc 2 280 0
	stw 31,60(30)
	.loc 2 281 0
	lwz 3,64(30)
	bl _Z8Mem_FreePv
	.loc 2 282 0
	stw 31,64(30)
	.loc 2 284 0
	stw 31,80(30)
	stw 31,76(30)
	.loc 2 285 0
	stw 31,84(30)
.LBE1505:
	.loc 2 286 0
	lwz 0,20(1)
	lwz 30,8(1)
.LVL391:
	mtlr 0
	lwz 31,12(1)
	addi 1,1,16
.LCFI58:
	.cfi_def_cfa_offset 0
	.cfi_restore 31
	.cfi_restore 30
	blr
	.cfi_endproc
.LFE2826:
	.size	_ZN10idAASLocal20ShutdownRoutingCacheEv, .-_ZN10idAASLocal20ShutdownRoutingCacheEv
	.align 2
	.globl _ZN10idAASLocal15ShutdownRoutingEv
	.type	_ZN10idAASLocal15ShutdownRoutingEv, @function
_ZN10idAASLocal15ShutdownRoutingEv:
.LFB2828:
	.loc 2 304 0
	.cfi_startproc
.LVL392:
	mflr 0
	stwu 1,-16(1)
.LCFI59:
	.cfi_def_cfa_offset 16
	.cfi_register 65, 0
	stw 31,12(1)
	mr 31,3
	.cfi_offset 31, -4
	stw 0,20(1)
	.loc 2 305 0
	.cfi_offset 65, 4
	bl _ZN10idAASLocal21DeleteAreaTravelTimesEv
.LVL393:
	.loc 2 307 0
	lwz 0,20(1)
	.loc 2 306 0
	mr 3,31
	.loc 2 307 0
	lwz 31,12(1)
.LVL394:
	mtlr 0
	addi 1,1,16
.LCFI60:
	.cfi_def_cfa_offset 0
	.cfi_restore 31
	.loc 2 306 0
	b _ZN10idAASLocal20ShutdownRoutingCacheEv
.LVL395:
	.cfi_endproc
.LFE2828:
	.size	_ZN10idAASLocal15ShutdownRoutingEv, .-_ZN10idAASLocal15ShutdownRoutingEv
	.align 2
	.globl _ZNK10idAASLocal17DeleteOldestCacheEv
	.type	_ZNK10idAASLocal17DeleteOldestCacheEv, @function
_ZNK10idAASLocal17DeleteOldestCacheEv:
.LFB2845:
	.loc 2 650 0
	.cfi_startproc
.LVL396:
	mflr 0
	stwu 1,-16(1)
.LCFI61:
	.cfi_def_cfa_offset 16
	.cfi_register 65, 0
	stw 30,8(1)
	mr 30,3
	.cfi_offset 30, -8
	stw 0,20(1)
	stw 31,12(1)
.LBB1524:
	.loc 2 656 0
	lwz 31,76(3)
	.cfi_offset 31, -4
	.cfi_offset 65, 4
.LVL397:
	.loc 2 657 0
	mr 4,31
	bl _ZNK10idAASLocal11UnlinkCacheEP14idRoutingCache
.LVL398:
	.loc 2 660 0
	lwz 9,20(31)
	cmpwi 7,9,0
	beq- 7,.L248
	.loc 2 661 0
	lwz 0,24(31)
	stw 0,24(9)
.L248:
	.loc 2 663 0
	lwz 9,24(31)
	cmpwi 7,9,0
	beq- 7,.L249
	.loc 2 664 0
	lwz 0,20(31)
	stw 0,20(9)
.L250:
	.loc 2 673 0
	mr 3,31
	bl _ZN14idRoutingCacheD1Ev
	mr 3,31
	bl _ZdlPv
.LBE1524:
	.loc 2 674 0
	lwz 0,20(1)
	lwz 30,8(1)
.LVL399:
	mtlr 0
	lwz 31,12(1)
.LVL400:
	addi 1,1,16
	.cfi_remember_state
.LCFI62:
	.cfi_def_cfa_offset 0
	.cfi_restore 31
	.cfi_restore 30
	blr
.LVL401:
.L249:
.LCFI63:
	.cfi_restore_state
.LBB1546:
	.loc 2 666 0
	lwz 0,0(31)
	cmpwi 7,0,1
	beq- 7,.L254
	.loc 2 669 0
	cmpwi 7,0,2
	bne+ 7,.L250
	.loc 2 670 0
	lwz 0,12(31)
	lwz 11,20(31)
	lwz 9,48(30)
	slwi 0,0,2
	stwx 11,9,0
	b .L250
.L254:
	.loc 2 1353 0
	lwz 11,4(30)
.LBB1525:
.LBB1526:
.LBB1527:
.LBB1528:
.LBB1529:
	.loc 5 589 0
	lwz 0,12(31)
	lwz 9,176(11)
	slwi 0,0,6
.LBE1529:
.LBE1528:
.LBE1527:
.LBE1526:
.LBE1525:
	.loc 2 667 0
	lwz 7,40(30)
.LBB1541:
.LBB1536:
.LBB1532:
.LBB1531:
.LBB1530:
	.loc 5 589 0
	add 9,9,0
.LBE1530:
.LBE1531:
.LBE1532:
.LBE1536:
.LBE1541:
	.loc 2 667 0
	lwz 0,8(31)
.LVL402:
.LBB1542:
.LBB1537:
	.loc 2 700 0
	lha 10,48(9)
.LVL403:
.LBE1537:
.LBE1542:
	.loc 2 667 0
	slwi 8,0,2
.LBB1543:
.LBB1538:
	.loc 2 701 0
	cmpwi 7,10,0
.LBE1538:
.LBE1543:
	.loc 2 667 0
	lwzx 8,7,8
.LBB1544:
.LBB1539:
	.loc 2 701 0
	ble- 7,.L252
.LVL404:
	.loc 2 702 0
	lha 0,50(9)
.LVL405:
.L253:
.LBE1539:
.LBE1544:
	.loc 2 667 0
	lwz 9,20(31)
	slwi 0,0,2
	stwx 9,8,0
	b .L250
.LVL406:
.L252:
.LBB1545:
.LBB1540:
.LBB1533:
.LBB1534:
.LBB1535:
	.loc 5 589 0
	lwz 9,208(11)
	mulli 10,10,-12
.LVL407:
	add 9,9,10
.LVL408:
.LBE1535:
.LBE1534:
.LBE1533:
	.loc 2 705 0
	lha 11,2(9)
	xor 0,0,11
	cntlzw 0,0
	srwi 0,0,5
	xori 0,0,1
	.loc 2 706 0
	slwi 0,0,1
	add 9,9,0
.LVL409:
	lha 0,6(9)
	b .L253
.LBE1540:
.LBE1545:
.LBE1546:
	.cfi_endproc
.LFE2845:
	.size	_ZNK10idAASLocal17DeleteOldestCacheEv, .-_ZNK10idAASLocal17DeleteOldestCacheEv
	.align 2
	.globl _ZNK10idAASLocal19GetAreaReachabilityEii
	.type	_ZNK10idAASLocal19GetAreaReachabilityEii, @function
_ZNK10idAASLocal19GetAreaReachabilityEii:
.LFB2846:
	.loc 2 681 0
	.cfi_startproc
.LVL410:
.LBB1547:
.LBB1548:
	.loc 2 1353 0
	lwz 9,4(3)
.LBE1548:
	.loc 2 684 0
	slwi 4,4,6
.LVL411:
	lwz 0,176(9)
	add 4,0,4
	lwz 3,56(4)
.LVL412:
	cmpwi 7,3,0
	beqlr- 7
.LVL413:
	.loc 2 685 0
	addic. 0,5,-1
	bltlr- 0
	mtctr 5
	b .L261
.LVL414:
.L259:
	bdz .L263
.L261:
	.loc 2 684 0
	lwz 3,40(3)
.LVL415:
	cmpwi 7,3,0
	bne+ 7,.L259
.LBE1547:
	.loc 2 690 0
	blr
.L263:
	blr
	.cfi_endproc
.LFE2846:
	.size	_ZNK10idAASLocal19GetAreaReachabilityEii, .-_ZNK10idAASLocal19GetAreaReachabilityEii
	.align 2
	.globl _ZNK10idAASLocal22UpdateAreaRoutingCacheEP14idRoutingCache
	.type	_ZNK10idAASLocal22UpdateAreaRoutingCacheEP14idRoutingCache, @function
_ZNK10idAASLocal22UpdateAreaRoutingCacheEP14idRoutingCache:
.LFB2848:
	.loc 2 715 0
	.cfi_startproc
.LVL416:
	mflr 0
	stwu 1,-560(1)
.LCFI64:
	.cfi_def_cfa_offset 560
	.cfi_register 65, 0
	stw 30,552(1)
	mr 30,4
	.cfi_offset 30, -8
	stw 31,556(1)
	mr 31,3
	.cfi_offset 31, -4
	stw 0,564(1)
	stw 22,520(1)
	stw 23,524(1)
	stw 24,528(1)
	stw 25,532(1)
	stw 26,536(1)
	stw 27,540(1)
	stw 28,544(1)
	stw 29,548(1)
.LBB1592:
	.loc 2 723 0
	lwz 9,4(3)
.LBB1593:
.LBB1594:
.LBB1595:
.LBB1596:
.LBB1597:
	.loc 5 589 0
	lwz 11,12(4)
	lwz 0,176(9)
	.cfi_offset 29, -12
	.cfi_offset 28, -16
	.cfi_offset 27, -20
	.cfi_offset 26, -24
	.cfi_offset 25, -28
	.cfi_offset 24, -32
	.cfi_offset 23, -36
	.cfi_offset 22, -40
	.cfi_offset 65, 4
	slwi 11,11,6
.LBE1597:
.LBE1596:
.LBE1595:
.LBE1594:
.LBE1593:
	.loc 2 723 0
	lwz 7,240(9)
.LBB1609:
.LBB1604:
.LBB1600:
.LBB1599:
.LBB1598:
	.loc 5 589 0
	add 11,0,11
.LBE1598:
.LBE1599:
.LBE1600:
.LBE1604:
.LBE1609:
	.loc 2 723 0
	lwz 0,8(4)
.LVL417:
.LBB1610:
.LBB1605:
	.loc 2 700 0
	lha 10,48(11)
.LBE1605:
.LBE1610:
	.loc 2 723 0
	slwi 8,0,4
.LBB1611:
.LBB1606:
	.loc 2 701 0
	cmpwi 7,10,0
.LBE1606:
.LBE1611:
	.loc 2 723 0
	add 8,7,8
	lwz 28,4(8)
.LVL418:
.LBB1612:
.LBB1607:
	.loc 2 701 0
	ble- 7,.L265
.LVL419:
	.loc 2 702 0
	lha 29,50(11)
.LVL420:
.L266:
.LBE1607:
.LBE1612:
	.loc 2 727 0
	cmpw 7,28,29
	bgt- 7,.L283
.LVL421:
.L264:
.LBE1592:
	.loc 2 826 0
	lwz 0,564(1)
	lwz 22,520(1)
	mtlr 0
	lwz 23,524(1)
	lwz 24,528(1)
	lwz 25,532(1)
	lwz 26,536(1)
	lwz 27,540(1)
	lwz 28,544(1)
.LVL422:
	lwz 29,548(1)
	lwz 30,552(1)
.LVL423:
	lwz 31,556(1)
.LVL424:
	addi 1,1,560
	.cfi_remember_state
.LCFI65:
	.cfi_def_cfa_offset 0
	.cfi_restore 31
	.cfi_restore 30
	.cfi_restore 29
	.cfi_restore 28
	.cfi_restore 27
	.cfi_restore 26
	.cfi_restore 25
	.cfi_restore 24
	.cfi_restore 23
	.cfi_restore 22
	blr
.LVL425:
.L283:
.LCFI66:
	.cfi_restore_state
.LBB1631:
	.loc 2 731 0
	lhz 11,36(30)
	slwi 0,29,1
	lwz 9,44(30)
	.loc 2 733 0
	addi 26,1,8
	mr 3,26
.LVL426:
	li 4,0
.LVL427:
	.loc 2 731 0
	sthx 11,9,0
	.loc 2 733 0
	li 5,512
	.loc 2 736 0
	mulli 29,29,40
	.loc 2 732 0
	lwz 27,16(30)
	.loc 2 733 0
	bl memset
.LVL428:
	.loc 2 736 0
	lwz 9,56(31)
	.loc 2 757 0
	li 7,0
	.loc 2 737 0
	lwz 0,12(30)
	.loc 2 732 0
	nor 27,27,27
.LVL429:
	.loc 2 736 0
	add 29,9,29
.LVL430:
	.loc 2 759 0
	li 6,0
	.loc 2 737 0
	stw 0,4(29)
	.loc 2 740 0
	li 0,0
	.loc 2 738 0
	stw 26,12(29)
	.loc 2 741 0
	mr 11,29
	.loc 2 821 0
	li 12,1
	.loc 2 739 0
	lhz 9,36(30)
	.loc 2 740 0
	stw 0,28(29)
	.loc 2 741 0
	stw 0,32(29)
.LVL431:
	.loc 2 804 0
	rlwinm 0,27,21,31,31
	.loc 2 739 0
	sth 9,8(29)
	.loc 2 804 0
	cmpwi 6,0,0
	.loc 2 741 0
	li 9,0
	.loc 2 753 0
	li 29,0
.LVL432:
	b .L268
.LVL433:
.L269:
	.loc 2 746 0
	cmpwi 7,9,0
	beq- 7,.L264
	lwz 11,28(9)
.LVL434:
	.loc 2 749 0
	cmpwi 7,11,0
	beq- 7,.L284
	.loc 2 750 0
	stw 6,32(11)
	lwz 0,28(9)
.LVL435:
.L278:
	.loc 2 753 0
	mr 11,9
	mr 9,0
.LVL436:
.L268:
	.loc 2 757 0
	stb 7,36(11)
.LVL437:
.LBB1613:
.LBB1614:
.LBB1615:
	.loc 5 589 0
	lwz 10,4(11)
.LBE1615:
.LBE1614:
	.loc 2 1353 0
	lwz 8,4(31)
.LBE1613:
	.loc 2 759 0
	slwi 10,10,6
	lwz 0,176(8)
	add 10,0,10
	lwz 10,60(10)
.LVL438:
	cmpwi 7,10,0
	beq+ 7,.L269
	li 8,0
.LVL439:
.L276:
	.loc 2 762 0
	lwz 0,0(10)
	and. 3,27,0
	bne- 0,.L270
	.loc 2 768 0
	lwz 4,4(31)
	.loc 2 767 0
	lha 0,6(10)
.LVL440:
.LBB1616:
.LBB1617:
.LBB1618:
	.loc 5 589 0
	lwz 5,176(4)
	slwi 3,0,6
	add 5,5,3
.LVL441:
.LBE1618:
.LBE1617:
.LBE1616:
	.loc 2 771 0
	lwz 26,52(5)
	and. 25,27,26
	bne- 0,.L270
	.loc 2 776 0
	lha 26,48(5)
.LVL442:
	.loc 2 778 0
	cmpwi 7,26,0
	ble- 7,.L271
	.loc 2 778 0 is_stmt 0 discriminator 1
	lwz 4,8(30)
	cmpw 7,4,26
	beq- 7,.L285
.LVL443:
.L270:
	.loc 2 759 0 is_stmt 1
	lwz 10,44(10)
.LVL444:
	addi 8,8,2
	cmpwi 7,10,0
	beq+ 7,.L269
	b .L276
.LVL445:
.L265:
.LBB1619:
.LBB1608:
.LBB1601:
.LBB1602:
.LBB1603:
	.loc 5 589 0
	lwz 9,208(9)
.LVL446:
	mulli 10,10,-12
.LVL447:
	add 10,9,10
.LVL448:
.LBE1603:
.LBE1602:
.LBE1601:
	.loc 2 705 0
	lha 9,2(10)
	xor 0,0,9
.LVL449:
	cntlzw 0,0
	srwi 0,0,5
	xori 0,0,1
	.loc 2 706 0
	slwi 0,0,1
	add 10,10,0
.LVL450:
	lha 29,6(10)
	b .L266
.LVL451:
.L284:
.LBE1608:
.LBE1619:
	.loc 2 749 0
	li 0,0
	.loc 2 753 0
	li 29,0
.LVL452:
	b .L278
.LVL453:
.L285:
.LBB1620:
.LBB1621:
	.loc 2 702 0
	lha 5,50(5)
.LVL454:
.L279:
.LBE1621:
.LBE1620:
	.loc 2 784 0
	cmpw 7,28,5
	ble- 7,.L270
	.loc 2 794 0
	lwz 25,44(30)
	slwi 26,5,1
	.loc 2 792 0
	lwz 4,12(11)
	.loc 2 794 0
	lhzx 24,25,26
	.loc 2 792 0
	lhz 22,36(10)
	lhz 23,8(11)
	.loc 2 794 0
	cmpwi 7,24,0
	.loc 2 792 0
	lhzx 4,4,8
	add 23,22,23
	add 4,23,4
	rlwinm 4,4,0,0xffff
.LVL455:
	.loc 2 794 0
	beq- 7,.L273
	.loc 2 794 0 is_stmt 0 discriminator 1
	cmplw 7,4,24
	bge- 7,.L270
.L273:
	.loc 2 796 0 is_stmt 1
	sthx 4,25,26
	.loc 2 798 0
	mulli 26,5,40
	.loc 2 797 0
	lbz 24,38(10)
	lwz 25,40(30)
	stbx 24,25,5
	.loc 2 798 0
	lwz 5,56(31)
	add 5,5,26
.LVL456:
	.loc 2 799 0
	stw 0,4(5)
	.loc 2 800 0
	sth 4,8(5)
	.loc 2 801 0
	lwz 0,48(10)
.LVL457:
	stw 0,12(5)
	.loc 2 804 0
	beq- 6,.L274
.LVL458:
.LBB1629:
	.loc 2 1353 0
	lwz 26,4(31)
.LBE1629:
	.loc 2 806 0
	lwz 0,176(26)
	add 3,0,3
	lhz 0,44(3)
	andi. 3,0,4
	beq- 0,.L274
	.loc 2 807 0
	addi 4,4,250
.LVL459:
	sth 4,8(5)
.LVL460:
.L274:
	.loc 2 811 0
	lbz 0,36(5)
	cmpwi 7,0,0
	bne- 7,.L270
	.loc 2 814 0
	cmpwi 7,29,0
	.loc 2 812 0
	stw 0,28(5)
	.loc 2 813 0
	stw 29,32(5)
	.loc 2 814 0
	beq- 7,.L280
	.loc 2 815 0
	stw 5,28(29)
.L275:
.LVL461:
	.loc 2 821 0
	stb 12,36(5)
	mr 29,5
	b .L270
.LVL462:
.L271:
.LBB1630:
.LBB1628:
.LBB1622:
.LBB1623:
.LBB1624:
	.loc 5 589 0
	mulli 26,26,-12
.LVL463:
	lwz 4,208(4)
.LBE1624:
.LBE1623:
.LBE1622:
	.loc 2 705 0
	lwz 5,8(30)
.LVL464:
.LBB1627:
.LBB1626:
.LBB1625:
	.loc 5 589 0
	add 4,4,26
.LVL465:
.LBE1625:
.LBE1626:
.LBE1627:
	.loc 2 705 0
	lha 26,2(4)
	xor 5,26,5
	cntlzw 5,5
	srwi 5,5,5
	xori 5,5,1
	.loc 2 706 0
	slwi 5,5,1
	add 4,4,5
.LVL466:
	lha 5,6(4)
	b .L279
.LVL467:
.L280:
.LBE1628:
.LBE1630:
	.loc 2 814 0
	mr 9,5
	b .L275
.LBE1631:
	.cfi_endproc
.LFE2848:
	.size	_ZNK10idAASLocal22UpdateAreaRoutingCacheEP14idRoutingCache, .-_ZNK10idAASLocal22UpdateAreaRoutingCacheEP14idRoutingCache
	.align 2
	.globl _ZNK10idAASLocal19GetAreaRoutingCacheEiii
	.type	_ZNK10idAASLocal19GetAreaRoutingCacheEiii, @function
_ZNK10idAASLocal19GetAreaRoutingCacheEiii:
.LFB2849:
	.loc 2 833 0
	.cfi_startproc
	.cfi_personality 0,__gxx_personality_v0
	.cfi_lsda 0,.LLSDA2849
.LVL468:
	mflr 0
	stwu 1,-48(1)
.LCFI67:
	.cfi_def_cfa_offset 48
	.cfi_register 65, 0
	mfcr 12
	stw 25,20(1)
	mr 25,5
	.cfi_offset 25, -28
	.cfi_register 70, 12
	stw 0,52(1)
.LBB1651:
.LBB1652:
.LBB1653:
.LBB1654:
.LBB1655:
.LBB1656:
	.loc 5 589 0
	slwi 0,5,6
	.cfi_offset 65, 4
.LBE1656:
.LBE1655:
.LBE1654:
.LBE1653:
.LBE1652:
.LBE1651:
	.loc 2 833 0
	stw 27,28(1)
	mr 27,4
	.cfi_offset 27, -20
.LVL469:
	stw 29,36(1)
	mr 29,3
	.cfi_offset 29, -12
	stw 30,40(1)
	mr 30,6
	.cfi_offset 30, -8
	stw 23,12(1)
	stw 24,16(1)
	stw 26,24(1)
	stw 28,32(1)
	stw 31,44(1)
	stw 12,8(1)
.LBB1667:
	.loc 2 1353 0
	lwz 9,4(3)
.LVL470:
.LBB1665:
.LBB1663:
.LBB1659:
.LBB1658:
.LBB1657:
	.loc 5 589 0
	lwz 11,176(9)
	add 11,11,0
.LBE1657:
.LBE1658:
.LBE1659:
	.loc 2 700 0
	lha 0,48(11)
.LVL471:
	.loc 2 701 0
	cmpwi 7,0,0
	ble- 7,.L287
	.cfi_offset 70, -40
	.cfi_offset 31, -4
	.cfi_offset 28, -16
	.cfi_offset 26, -24
	.cfi_offset 24, -32
	.cfi_offset 23, -36
.LVL472:
	.loc 2 702 0
	lha 26,50(11)
.LVL473:
.L288:
.LBE1663:
.LBE1665:
	.loc 2 840 0
	lwz 11,40(29)
	slwi 24,27,2
	slwi 26,26,2
	lwzx 11,11,24
	lwzx 28,11,26
.LVL474:
	.loc 2 842 0
	cmpwi 4,28,0
	beq- 4,.L289
	.loc 2 843 0
	lwz 0,16(28)
	mr 31,28
	cmpw 7,0,30
	bne+ 7,.L292
	b .L294
.LVL475:
.L293:
	lwz 0,16(31)
	cmpw 7,0,30
	beq- 7,.L294
.L292:
	.loc 2 842 0
	lwz 31,20(31)
.LVL476:
	cmpwi 7,31,0
	bne+ 7,.L293
.LVL477:
.L289:
	.loc 2 849 0
	lwz 9,240(9)
	slwi 0,27,4
	li 3,48
.LVL478:
	add 9,9,0
	lwz 23,4(9)
.LEHB0:
	bl _Znwj
.LEHE0:
.LVL479:
	mr 31,3
	mr 4,23
.LEHB1:
	bl _ZN14idRoutingCacheC1Ei
.LEHE1:
.LVL480:
	.loc 2 850 0 discriminator 1
	li 0,1
	.loc 2 851 0 discriminator 1
	stw 27,8(31)
	.loc 2 850 0 discriminator 1
	stw 0,0(31)
	.loc 2 853 0 discriminator 1
	sth 0,36(31)
	.loc 2 855 0 discriminator 1
	li 0,0
	.loc 2 852 0 discriminator 1
	stw 25,12(31)
	.loc 2 854 0 discriminator 1
	stw 30,16(31)
	.loc 2 855 0 discriminator 1
	stw 0,24(31)
	.loc 2 856 0 discriminator 1
	stw 28,20(31)
	.loc 2 857 0 discriminator 1
	beq- 4,.L295
	.loc 2 858 0
	stw 31,24(28)
.L295:
	.loc 2 860 0
	lwz 9,40(29)
	.loc 2 861 0
	mr 3,29
	mr 4,31
	.loc 2 860 0
	lwzx 9,9,24
	stwx 31,9,26
	.loc 2 861 0
	bl _ZNK10idAASLocal22UpdateAreaRoutingCacheEP14idRoutingCache
.LVL481:
.L294:
	.loc 2 863 0
	mr 3,29
	mr 4,31
	bl _ZNK10idAASLocal9LinkCacheEP14idRoutingCache
.LBE1667:
	.loc 2 865 0
	lwz 0,52(1)
	lwz 12,8(1)
	mr 3,31
	mtlr 0
	lwz 23,12(1)
	lwz 24,16(1)
	mtcrf 8,12
	lwz 25,20(1)
.LVL482:
	lwz 26,24(1)
	lwz 27,28(1)
.LVL483:
	lwz 28,32(1)
.LVL484:
	lwz 29,36(1)
.LVL485:
	lwz 30,40(1)
.LVL486:
	lwz 31,44(1)
.LVL487:
	addi 1,1,48
	.cfi_remember_state
.LCFI68:
	.cfi_def_cfa_offset 0
	.cfi_restore 70
	.cfi_restore 31
	.cfi_restore 30
	.cfi_restore 29
	.cfi_restore 28
	.cfi_restore 27
	.cfi_restore 26
	.cfi_restore 25
	.cfi_restore 24
	.cfi_restore 23
	blr
.LVL488:
.L287:
.LCFI69:
	.cfi_restore_state
.LBB1668:
.LBB1666:
.LBB1664:
.LBB1660:
.LBB1661:
.LBB1662:
	.loc 5 589 0
	mulli 0,0,-12
.LVL489:
	lwz 10,208(9)
	add 10,10,0
.LVL490:
.LBE1662:
.LBE1661:
.LBE1660:
	.loc 2 705 0
	lha 11,2(10)
	xor 11,4,11
	cntlzw 11,11
	srwi 11,11,5
	xori 11,11,1
	.loc 2 706 0
	slwi 11,11,1
	add 10,10,11
.LVL491:
	lha 26,6(10)
	b .L288
.LVL492:
.L299:
	mr 30,3
.LVL493:
.LBE1664:
.LBE1666:
	.loc 2 849 0
	mr 3,31
	bl _ZdlPv
	mr 3,30
.LEHB2:
	bl _Unwind_Resume
.LEHE2:
.LBE1668:
	.cfi_endproc
.LFE2849:
	.globl __gxx_personality_v0
	.section	.gcc_except_table,"a",@progbits
.LLSDA2849:
	.byte	0xff
	.byte	0xff
	.byte	0x1
	.uleb128 .LLSDACSE2849-.LLSDACSB2849
.LLSDACSB2849:
	.uleb128 .LEHB0-.LFB2849
	.uleb128 .LEHE0-.LEHB0
	.uleb128 0
	.uleb128 0
	.uleb128 .LEHB1-.LFB2849
	.uleb128 .LEHE1-.LEHB1
	.uleb128 .L299-.LFB2849
	.uleb128 0
	.uleb128 .LEHB2-.LFB2849
	.uleb128 .LEHE2-.LEHB2
	.uleb128 0
	.uleb128 0
.LLSDACSE2849:
	.section	".text"
	.size	_ZNK10idAASLocal19GetAreaRoutingCacheEiii, .-_ZNK10idAASLocal19GetAreaRoutingCacheEiii
	.align 2
	.globl _ZNK10idAASLocal24UpdatePortalRoutingCacheEP14idRoutingCache
	.type	_ZNK10idAASLocal24UpdatePortalRoutingCacheEP14idRoutingCache, @function
_ZNK10idAASLocal24UpdatePortalRoutingCacheEP14idRoutingCache:
.LFB2850:
	.loc 2 872 0
	.cfi_startproc
.LVL494:
	mflr 0
	stwu 1,-56(1)
.LCFI70:
	.cfi_def_cfa_offset 56
	.cfi_register 65, 0
	stw 23,20(1)
.LBB1695:
	.loc 2 952 0
	li 23,1
	.cfi_offset 23, -36
.LBE1695:
	.loc 2 872 0
	stw 0,60(1)
.LBB1735:
	.loc 2 886 0
	li 0,0
	.cfi_offset 65, 4
.LBE1735:
	.loc 2 872 0
	stw 24,24(1)
.LBB1736:
	.loc 2 900 0
	li 24,0
	.cfi_offset 24, -32
.LBE1736:
	.loc 2 872 0
	stw 25,28(1)
.LBB1737:
	.loc 2 910 0
	li 25,0
	.cfi_offset 25, -28
.LBE1737:
	.loc 2 872 0
	stw 26,32(1)
.LBB1738:
	.loc 2 904 0
	li 26,0
	.cfi_offset 26, -24
.LBE1738:
	.loc 2 872 0
	stw 27,36(1)
	mr 27,4
	.cfi_offset 27, -20
	stw 29,44(1)
	mr 29,3
	.cfi_offset 29, -12
.LVL495:
	stw 30,48(1)
	stw 31,52(1)
.LBB1739:
	.loc 2 887 0
	li 31,0
	.cfi_offset 31, -4
	.cfi_offset 30, -8
.LBE1739:
	.loc 2 872 0
	stw 21,12(1)
	stw 22,16(1)
	stw 28,40(1)
.LBB1740:
.LBB1696:
	.loc 2 1353 0
	lwz 9,4(3)
.LBE1696:
	.loc 2 880 0
	lwz 11,60(3)
	lwz 9,196(9)
	.loc 2 881 0
	lwz 10,8(4)
	.loc 2 880 0
	mulli 9,9,40
	.loc 2 881 0
	stwx 10,11,9
	.loc 2 880 0
	add 9,11,9
.LVL496:
	.loc 2 887 0
	mr 30,9
	.loc 2 882 0
	lwz 11,12(4)
	stw 11,4(9)
	.loc 2 883 0
	lhz 11,36(4)
	.loc 2 886 0
	stw 0,28(9)
	.loc 2 883 0
	sth 11,8(9)
	.loc 2 887 0
	stw 0,32(9)
.LVL497:
	b .L302
	.cfi_offset 28, -16
	.cfi_offset 22, -40
	.cfi_offset 21, -44
.LVL498:
.L303:
	.loc 2 892 0
	cmpwi 7,31,0
	beq- 7,.L301
.LVL499:
.L322:
	lwz 9,28(31)
.LVL500:
	.loc 2 896 0
	cmpwi 7,9,0
	beq- 7,.L320
	.loc 2 897 0
	stw 25,32(9)
	lwz 0,28(31)
.LVL501:
.L314:
	.loc 2 900 0
	mr 30,31
	mr 31,0
.LVL502:
.L302:
	.loc 2 904 0
	stb 26,36(30)
	.loc 2 907 0
	mr 3,29
	.loc 2 906 0
	lwz 4,0(30)
.LVL503:
.LBB1697:
	.loc 2 1353 0
	lwz 9,4(29)
.LBB1698:
.LBB1699:
	.loc 5 573 0
	slwi 0,4,4
.LBE1699:
.LBE1698:
.LBE1697:
	.loc 2 907 0
	lwz 5,4(30)
.LBB1704:
.LBB1702:
.LBB1700:
	.loc 5 573 0
	lwz 28,240(9)
.LBE1700:
.LBE1702:
.LBE1704:
	.loc 2 907 0
	lwz 6,16(27)
.LBB1705:
.LBB1703:
.LBB1701:
	.loc 5 573 0
	add 28,28,0
.LVL504:
.LBE1701:
.LBE1703:
.LBE1705:
	.loc 2 907 0
	bl _ZNK10idAASLocal19GetAreaRoutingCacheEiii
.LVL505:
	.loc 2 910 0
	lwz 0,8(28)
	cmpwi 7,0,0
	ble+ 7,.L303
	li 9,0
.LVL506:
.L311:
	.loc 2 911 0
	lwz 11,4(29)
.LVL507:
.LBB1706:
.LBB1707:
.LBB1708:
	.loc 5 573 0
	lwz 10,12(28)
.LBE1708:
.LBE1707:
.LBE1706:
	.loc 2 911 0
	lwz 8,224(11)
.LBB1711:
.LBB1710:
.LBB1709:
	.loc 5 573 0
	add 10,9,10
.LBE1709:
.LBE1710:
.LBE1711:
.LBB1712:
.LBB1713:
.LBB1714:
.LBB1715:
.LBB1716:
	.loc 5 589 0
	lwz 6,176(11)
.LBE1716:
.LBE1715:
.LBE1714:
.LBE1713:
.LBE1712:
	.loc 2 911 0
	slwi 10,10,2
	.loc 2 915 0
	lwz 4,0(30)
.LBB1725:
.LBB1726:
.LBB1727:
	.loc 5 589 0
	lwzx 7,8,10
.LBE1727:
.LBE1726:
	.loc 2 1353 0
	lwz 10,208(11)
.LVL508:
.LBB1730:
.LBB1728:
	.loc 5 589 0
	mulli 8,7,12
.LBE1728:
.LBE1730:
.LBE1725:
	.loc 2 915 0
	lhax 11,10,8
.LBB1732:
.LBB1731:
.LBB1729:
	.loc 5 589 0
	add 5,10,8
.LVL509:
.LBE1729:
.LBE1731:
.LBE1732:
.LBB1733:
.LBB1723:
.LBB1719:
.LBB1718:
.LBB1717:
	slwi 11,11,6
.LVL510:
	add 11,6,11
.LBE1717:
.LBE1718:
.LBE1719:
	.loc 2 700 0
	lha 6,48(11)
.LVL511:
	.loc 2 701 0
	cmpwi 7,6,0
	ble- 7,.L304
	.loc 2 702 0
	lha 11,50(11)
.LVL512:
.L305:
.LBE1723:
.LBE1733:
	.loc 2 916 0
	lwz 6,4(28)
	cmpw 7,6,11
	ble- 7,.L306
	.loc 2 920 0
	lwz 4,44(3)
	slwi 6,11,1
	lhzx 6,4,6
.LVL513:
	.loc 2 921 0
	cmpwi 7,6,0
	beq- 7,.L306
	.loc 2 926 0
	lwz 12,44(27)
	slwi 4,7,1
	.loc 2 924 0
	lhz 21,8(30)
	.loc 2 926 0
	lhzx 22,12,4
	.loc 2 924 0
	add 6,6,21
.LVL514:
	.loc 2 926 0
	cmpwi 7,22,0
	.loc 2 924 0
	rlwinm 6,6,0,0xffff
.LVL515:
	.loc 2 926 0
	beq- 7,.L307
	.loc 2 926 0 is_stmt 0 discriminator 1
	cmplw 7,6,22
	bge- 7,.L306
.L307:
	.loc 2 928 0 is_stmt 1
	sthx 6,12,4
	.loc 2 930 0
	mulli 0,7,40
	.loc 2 929 0
	lwz 22,40(3)
	lwz 4,40(27)
	lbzx 11,22,11
	stbx 11,4,7
	.loc 2 931 0
	lwz 11,0(30)
	lha 4,2(5)
	.loc 2 930 0
	lwz 7,60(29)
	.loc 2 931 0
	cmpw 7,4,11
	.loc 2 930 0
	add 11,7,0
.LVL516:
	.loc 2 931 0
	beq- 7,.L321
	.loc 2 935 0
	stwx 4,7,0
.L309:
	.loc 2 937 0
	lhax 10,10,8
	.loc 2 941 0
	lbz 0,36(11)
	.loc 2 937 0
	stw 10,4(11)
	.loc 2 941 0
	cmpwi 7,0,0
	.loc 2 939 0
	lhz 10,10(5)
	add 6,6,10
.LVL517:
	sth 6,8(11)
	.loc 2 941 0
	bne- 7,.L319
	.loc 2 945 0
	cmpwi 7,24,0
	.loc 2 943 0
	stw 0,28(11)
	.loc 2 944 0
	stw 24,32(11)
	.loc 2 945 0
	beq- 7,.L315
	.loc 2 946 0
	stw 11,28(24)
.L310:
.LVL518:
	.loc 2 952 0
	stb 23,36(11)
	mr 24,11
.LVL519:
.L319:
	lwz 0,8(28)
.LVL520:
.L306:
	.loc 2 910 0
	addi 9,9,1
.LVL521:
	cmpw 7,0,9
	bgt- 7,.L311
.LVL522:
	.loc 2 892 0
	cmpwi 7,31,0
	bne+ 7,.L322
.LVL523:
.L301:
.LBE1740:
	.loc 2 957 0
	lwz 0,60(1)
	lwz 21,12(1)
	mtlr 0
	lwz 22,16(1)
	lwz 23,20(1)
	lwz 24,24(1)
.LVL524:
	lwz 25,28(1)
	lwz 26,32(1)
	lwz 27,36(1)
.LVL525:
	lwz 28,40(1)
.LVL526:
	lwz 29,44(1)
.LVL527:
	lwz 30,48(1)
	lwz 31,52(1)
.LVL528:
	addi 1,1,56
	.cfi_remember_state
.LCFI71:
	.cfi_def_cfa_offset 0
	.cfi_restore 31
	.cfi_restore 30
	.cfi_restore 29
	.cfi_restore 28
	.cfi_restore 27
	.cfi_restore 26
	.cfi_restore 25
	.cfi_restore 24
	.cfi_restore 23
	.cfi_restore 22
	.cfi_restore 21
	blr
.LVL529:
.L304:
.LCFI72:
	.cfi_restore_state
.LBB1741:
.LBB1734:
.LBB1724:
.LBB1720:
.LBB1721:
.LBB1722:
	.loc 5 589 0
	mulli 6,6,-12
.LVL530:
	add 6,10,6
.LVL531:
.LBE1722:
.LBE1721:
.LBE1720:
	.loc 2 705 0
	lha 11,2(6)
	xor 11,4,11
	cntlzw 11,11
	srwi 11,11,5
	xori 11,11,1
	.loc 2 706 0
	slwi 11,11,1
	add 6,6,11
.LVL532:
	lha 11,6(6)
	b .L305
.LVL533:
.L320:
.LBE1724:
.LBE1734:
	.loc 2 896 0
	li 0,0
	.loc 2 900 0
	li 24,0
.LVL534:
	b .L314
.LVL535:
.L321:
	.loc 2 932 0
	lha 4,4(5)
	stwx 4,7,0
	b .L309
.LVL536:
.L315:
	.loc 2 945 0
	mr 31,11
	b .L310
.LBE1741:
	.cfi_endproc
.LFE2850:
	.size	_ZNK10idAASLocal24UpdatePortalRoutingCacheEP14idRoutingCache, .-_ZNK10idAASLocal24UpdatePortalRoutingCacheEP14idRoutingCache
	.align 2
	.globl _ZNK10idAASLocal21GetPortalRoutingCacheEiii
	.type	_ZNK10idAASLocal21GetPortalRoutingCacheEiii, @function
_ZNK10idAASLocal21GetPortalRoutingCacheEiii:
.LFB2851:
	.loc 2 964 0
	.cfi_startproc
	.cfi_personality 0,__gxx_personality_v0
	.cfi_lsda 0,.LLSDA2851
.LVL537:
	mflr 0
	stwu 1,-40(1)
.LCFI73:
	.cfi_def_cfa_offset 40
	.cfi_register 65, 0
	stw 26,16(1)
	mr 26,4
	.cfi_offset 26, -24
	stw 27,20(1)
	mr 27,5
	.cfi_offset 27, -20
	stw 28,24(1)
.LBB1742:
	.loc 2 968 0
	slwi 28,5,2
	.cfi_offset 28, -16
.LBE1742:
	.loc 2 964 0
	stw 29,28(1)
	mr 29,3
	.cfi_offset 29, -12
	stw 30,32(1)
	mr 30,6
	.cfi_offset 30, -8
	stw 0,44(1)
	stw 25,12(1)
	stw 31,36(1)
.LBB1745:
	.loc 2 968 0
	lwz 9,48(3)
	lwzx 31,9,28
	.cfi_offset 31, -4
	.cfi_offset 25, -28
	.cfi_offset 65, 4
.LVL538:
	cmpwi 7,31,0
	bne+ 7,.L328
	b .L324
.LVL539:
.L336:
	lwz 31,20(31)
.LVL540:
	cmpwi 7,31,0
	beq- 7,.L324
.L328:
	.loc 2 969 0
	lwz 0,16(31)
	cmpw 7,0,30
	bne+ 7,.L336
	.loc 2 989 0
	mr 3,29
.LVL541:
	mr 4,31
.LVL542:
	bl _ZNK10idAASLocal9LinkCacheEP14idRoutingCache
.LVL543:
.LBE1745:
	.loc 2 991 0
	lwz 0,44(1)
	mr 3,31
	lwz 25,12(1)
	mtlr 0
	lwz 26,16(1)
.LVL544:
	lwz 27,20(1)
.LVL545:
	lwz 28,24(1)
	lwz 29,28(1)
.LVL546:
	lwz 30,32(1)
.LVL547:
	lwz 31,36(1)
.LVL548:
	addi 1,1,40
	.cfi_remember_state
.LCFI74:
	.cfi_def_cfa_offset 0
	.cfi_restore 31
	.cfi_restore 30
	.cfi_restore 29
	.cfi_restore 28
	.cfi_restore 27
	.cfi_restore 26
	.cfi_restore 25
	blr
.LVL549:
.L324:
.LCFI75:
	.cfi_restore_state
.LBB1746:
.LBB1743:
	.loc 2 1353 0
	lwz 9,4(29)
.LBE1743:
	.loc 2 975 0
	li 3,48
.LVL550:
.LBB1744:
	.loc 2 1353 0
	lwz 25,196(9)
.LEHB3:
.LBE1744:
	.loc 2 975 0
	bl _Znwj
.LEHE3:
.LVL551:
	mr 31,3
.LVL552:
	mr 4,25
.LEHB4:
	bl _ZN14idRoutingCacheC1Ei
.LEHE4:
.LVL553:
	.loc 2 976 0 discriminator 1
	li 0,2
	.loc 2 977 0 discriminator 1
	stw 26,8(31)
	.loc 2 976 0 discriminator 1
	stw 0,0(31)
	.loc 2 979 0 discriminator 1
	li 0,1
	sth 0,36(31)
	.loc 2 981 0 discriminator 1
	li 0,0
	.loc 2 978 0 discriminator 1
	stw 27,12(31)
	.loc 2 980 0 discriminator 1
	stw 30,16(31)
	.loc 2 981 0 discriminator 1
	stw 0,24(31)
	.loc 2 982 0 discriminator 1
	lwz 9,48(29)
	lwzx 0,9,28
	stw 0,20(31)
	.loc 2 983 0 discriminator 1
	lwz 9,48(29)
	lwzx 11,9,28
	add 9,9,28
	cmpwi 7,11,0
	beq- 7,.L330
	.loc 2 984 0
	stw 31,24(11)
	lwz 9,48(29)
	add 9,9,28
.L330:
	.loc 2 986 0
	stw 31,0(9)
	.loc 2 987 0
	mr 3,29
	mr 4,31
.LEHB5:
	bl _ZNK10idAASLocal24UpdatePortalRoutingCacheEP14idRoutingCache
	.loc 2 989 0
	mr 3,29
	mr 4,31
	bl _ZNK10idAASLocal9LinkCacheEP14idRoutingCache
.LBE1746:
	.loc 2 991 0
	lwz 0,44(1)
	mr 3,31
	lwz 25,12(1)
	mtlr 0
	lwz 26,16(1)
.LVL554:
	lwz 27,20(1)
.LVL555:
	lwz 28,24(1)
	lwz 29,28(1)
.LVL556:
	lwz 30,32(1)
.LVL557:
	lwz 31,36(1)
.LVL558:
	addi 1,1,40
	.cfi_remember_state
	.cfi_restore 25
	.cfi_restore 26
	.cfi_restore 27
	.cfi_restore 28
	.cfi_restore 29
	.cfi_restore 30
	.cfi_restore 31
.LCFI76:
	.cfi_def_cfa_offset 0
	blr
.LVL559:
.L333:
.LCFI77:
	.cfi_restore_state
	mr 30,3
.LVL560:
.LBB1747:
	.loc 2 975 0
	mr 3,31
	bl _ZdlPv
	mr 3,30
	bl _Unwind_Resume
.LEHE5:
.LBE1747:
	.cfi_endproc
.LFE2851:
	.section	.gcc_except_table
.LLSDA2851:
	.byte	0xff
	.byte	0xff
	.byte	0x1
	.uleb128 .LLSDACSE2851-.LLSDACSB2851
.LLSDACSB2851:
	.uleb128 .LEHB3-.LFB2851
	.uleb128 .LEHE3-.LEHB3
	.uleb128 0
	.uleb128 0
	.uleb128 .LEHB4-.LFB2851
	.uleb128 .LEHE4-.LEHB4
	.uleb128 .L333-.LFB2851
	.uleb128 0
	.uleb128 .LEHB5-.LFB2851
	.uleb128 .LEHE5-.LEHB5
	.uleb128 0
	.uleb128 0
.LLSDACSE2851:
	.section	".text"
	.size	_ZNK10idAASLocal21GetPortalRoutingCacheEiii, .-_ZNK10idAASLocal21GetPortalRoutingCacheEiii
	.align 2
	.globl _ZNK10idAASLocal15RouteToGoalAreaEi6idVec3iiRiPP14idReachability
	.type	_ZNK10idAASLocal15RouteToGoalAreaEi6idVec3iiRiPP14idReachability, @function
_ZNK10idAASLocal15RouteToGoalAreaEi6idVec3iiRiPP14idReachability:
.LFB2852:
	.loc 2 998 0
	.cfi_startproc
.LVL561:
	mflr 0
	stwu 1,-80(1)
.LCFI78:
	.cfi_def_cfa_offset 80
	.cfi_register 65, 0
	mfcr 12
	stw 22,40(1)
	mr 22,7
	.cfi_offset 22, -40
	.cfi_register 70, 12
	stw 0,84(1)
.LBB1837:
	.loc 2 1006 0
	li 0,0
	.cfi_offset 65, 4
.LBE1837:
	.loc 2 998 0
	stw 25,52(1)
	mr 25,5
	.cfi_offset 25, -28
	stw 26,56(1)
	mr 26,9
	.cfi_offset 26, -24
	stw 28,64(1)
	mr 28,6
	.cfi_offset 28, -16
	stw 29,68(1)
	mr 29,4
	.cfi_offset 29, -12
	stw 30,72(1)
	mr 30,3
	.cfi_offset 30, -8
	stw 31,76(1)
	mr 31,8
	.cfi_offset 31, -4
	stw 15,12(1)
	stw 16,16(1)
	stw 17,20(1)
	stw 18,24(1)
	stw 19,28(1)
	stw 20,32(1)
	stw 21,36(1)
	stw 23,44(1)
	stw 24,48(1)
	stw 27,60(1)
	stw 12,8(1)
.LBB1926:
	.loc 2 1006 0
	stw 0,0(8)
	.loc 2 1007 0
	stw 0,0(9)
	.loc 2 1009 0
	lwz 27,4(3)
	.cfi_offset 70, -72
	.cfi_offset 27, -20
	.cfi_offset 24, -32
	.cfi_offset 23, -36
	.cfi_offset 21, -44
	.cfi_offset 20, -48
	.cfi_offset 19, -52
	.cfi_offset 18, -56
	.cfi_offset 17, -60
	.cfi_offset 16, -64
	.cfi_offset 15, -68
	cmpwi 7,27,0
	beq- 7,.L338
	.loc 2 1013 0
	cmpw 7,4,6
	.loc 2 1014 0
	li 0,1
	.loc 2 1013 0
	beq- 7,.L338
	.loc 2 1017 0
	cmpwi 7,4,0
	ble- 7,.L339
.LVL562:
.LBB1838:
	.loc 2 1353 0 discriminator 2
	lwz 0,164(27)
.LBE1838:
	.loc 2 1017 0 discriminator 2
	cmpw 7,4,0
	blt- 7,.L340
.LVL563:
.L339:
	.loc 2 1018 0 discriminator 4
	lis 3,gameLocal@ha
.LVL564:
	lis 4,.LC15@ha
.LVL565:
	la 3,gameLocal@l(3)
	la 4,.LC15@l(4)
	mr 5,29
	crxor 6,6,6
	bl _ZNK11idGameLocal6PrintfEPKcz
.LVL566:
	.loc 2 1019 0 discriminator 4
	li 0,0
.LVL567:
.L338:
.LBE1926:
	.loc 2 1147 0
	mr 3,0
	lwz 0,84(1)
	lwz 12,8(1)
	mtlr 0
	lwz 15,12(1)
	lwz 16,16(1)
	mtcrf 8,12
	lwz 17,20(1)
	lwz 18,24(1)
	lwz 19,28(1)
	lwz 20,32(1)
	lwz 21,36(1)
	lwz 22,40(1)
.LVL568:
	lwz 23,44(1)
	lwz 24,48(1)
	lwz 25,52(1)
	lwz 26,56(1)
.LVL569:
	lwz 27,60(1)
	lwz 28,64(1)
	lwz 29,68(1)
	lwz 30,72(1)
.LVL570:
	lwz 31,76(1)
.LVL571:
	addi 1,1,80
	.cfi_remember_state
.LCFI79:
	.cfi_def_cfa_offset 0
	.cfi_restore 70
	.cfi_restore 31
	.cfi_restore 30
	.cfi_restore 29
	.cfi_restore 28
	.cfi_restore 27
	.cfi_restore 26
	.cfi_restore 25
	.cfi_restore 24
	.cfi_restore 23
	.cfi_restore 22
	.cfi_restore 21
	.cfi_restore 20
	.cfi_restore 19
	.cfi_restore 18
	.cfi_restore 17
	.cfi_restore 16
	.cfi_restore 15
	blr
.LVL572:
.L340:
.LCFI80:
	.cfi_restore_state
.LBB1927:
	.loc 2 1021 0
	cmpwi 7,6,0
	ble- 7,.L341
.LVL573:
	.loc 2 1021 0 is_stmt 0 discriminator 2
	cmpw 7,28,0
	blt- 7,.L409
.LVL574:
.L341:
	.loc 2 1022 0 is_stmt 1 discriminator 4
	lis 3,gameLocal@ha
.LVL575:
	lis 4,.LC16@ha
.LVL576:
	la 3,gameLocal@l(3)
	la 4,.LC16@l(4)
	mr 5,28
	crxor 6,6,6
	bl _ZNK11idGameLocal6PrintfEPKcz
.LVL577:
	.loc 2 1023 0 discriminator 4
	li 0,0
	b .L338
.LVL578:
.L409:
	.loc 2 1026 0 discriminator 1
	lwz 9,84(30)
	lis 0,0x20
	lis 24,0x20
	cmpw 7,9,0
	ble- 7,.L343
.L390:
	.loc 2 1027 0
	mr 3,30
	bl _ZNK10idAASLocal17DeleteOldestCacheEv
	.loc 2 1026 0
	lwz 0,84(30)
	cmpw 7,0,24
	bgt+ 7,.L390
	lwz 27,4(30)
.LVL579:
.L343:
.LBB1839:
	.loc 2 1353 0
	lwz 0,176(27)
.LVL580:
.LBB1840:
.LBB1841:
	.loc 5 589 0
	slwi 19,29,6
.LBE1841:
.LBE1840:
.LBE1839:
.LBB1842:
.LBB1843:
.LBB1844:
	slwi 23,28,6
.LBE1844:
.LBE1843:
.LBE1842:
	.loc 2 1030 0
	add 9,0,19
	lha 24,48(9)
.LVL581:
	.loc 2 1031 0
	add 9,0,23
	lha 4,48(9)
.LVL582:
	.loc 2 1034 0
	cmpwi 7,24,0
	blt- 7,.L410
.LVL583:
	.loc 2 1052 0
	cmpwi 6,4,0
	mr 0,4
	blt- 6,.L411
.L350:
.LVL584:
	.loc 2 1060 0
	beq- 7,.L382
	.loc 2 1060 0 is_stmt 0 discriminator 1
	cmpwi 7,0,0
	ble- 7,.L382
	.loc 2 1060 0 discriminator 2
	cmpw 7,24,0
	beq- 7,.L412
.L382:
	.loc 2 1049 0 is_stmt 1
	li 18,0
	.loc 2 1072 0
	li 21,0
	.loc 2 1048 0
	li 16,0
.LVL585:
.L351:
	.loc 2 1079 0
	blt- 6,.L413
.L359:
	.loc 2 1085 0
	mr 3,30
	mr 5,28
	mr 6,22
	bl _ZNK10idAASLocal21GetPortalRoutingCacheEiii
.LVL586:
	.loc 2 1088 0
	lwz 9,4(30)
.LBB1845:
.LBB1846:
.LBB1847:
	.loc 5 573 0
	slwi 10,24,4
.LBE1847:
.LBE1846:
.LBE1845:
	.loc 2 1085 0
	mr 23,3
.LVL587:
.LBB1852:
.LBB1853:
.LBB1854:
.LBB1855:
.LBB1856:
	.loc 5 589 0
	lwz 11,176(9)
.LBE1856:
.LBE1855:
.LBE1854:
.LBE1853:
.LBE1852:
.LBB1866:
.LBB1850:
.LBB1848:
	.loc 5 573 0
	lwz 25,240(9)
.LBE1848:
.LBE1850:
.LBE1866:
.LBB1867:
.LBB1863:
.LBB1859:
.LBB1858:
.LBB1857:
	.loc 5 589 0
	add 11,11,19
.LBE1857:
.LBE1858:
.LBE1859:
	.loc 2 700 0
	lha 0,48(11)
.LBE1863:
.LBE1867:
.LBB1868:
.LBB1851:
.LBB1849:
	.loc 5 573 0
	add 25,25,10
.LVL588:
.LBE1849:
.LBE1851:
.LBE1868:
.LBB1869:
.LBB1864:
	.loc 2 701 0
	cmpwi 7,0,0
	ble- 7,.L360
.LVL589:
	.loc 2 702 0
	lha 17,50(11)
.LVL590:
.L361:
.LBE1864:
.LBE1869:
	.loc 2 1092 0
	lwz 11,4(25)
	.loc 2 1093 0
	li 0,0
	.loc 2 1092 0
	cmpw 7,11,17
	ble- 7,.L338
.LVL591:
	.loc 2 1097 0 discriminator 1
	lwz 10,8(25)
	cmpwi 7,10,0
	ble- 7,.L362
	.loc 2 1115 0
	cmpwi 4,21,0
	.loc 2 1109 0
	slwi 15,17,1
	li 29,0
.LVL592:
	b .L373
.LVL593:
.L363:
	.loc 2 1097 0
	addi 29,29,1
.LVL594:
	cmpw 7,10,29
	ble- 7,.L362
	lwz 9,4(30)
.LVL595:
.L373:
.LBB1870:
.LBB1871:
.LBB1872:
	.loc 5 573 0
	lwz 0,12(25)
.LBE1872:
.LBE1871:
.LBE1870:
	.loc 2 1098 0
	lwz 11,224(9)
.LBB1875:
.LBB1874:
.LBB1873:
	.loc 5 573 0
	add 0,29,0
.LBE1873:
.LBE1874:
.LBE1875:
	.loc 2 1098 0
	slwi 0,0,2
	.loc 2 1101 0
	lwzx 28,11,0
	lwz 11,44(23)
	slwi 27,28,1
	lhzx 0,11,27
	cmpwi 7,0,0
	beq+ 7,.L363
.LVL596:
.LBB1876:
.LBB1877:
.LBB1878:
	.loc 5 589 0
	lwz 20,208(9)
	mulli 21,28,12
.LBE1878:
.LBE1877:
.LBE1876:
	.loc 2 1107 0
	mr 3,30
	mr 4,24
	lhax 5,20,21
	mr 6,22
	bl _ZNK10idAASLocal19GetAreaRoutingCacheEiii
.LVL597:
.LBB1881:
.LBB1880:
.LBB1879:
	.loc 5 589 0
	add 8,20,21
.LVL598:
.LBE1879:
.LBE1880:
.LBE1881:
	.loc 2 1109 0
	lwz 9,44(3)
	lhzx 0,9,15
	cmpwi 7,0,0
	beq- 7,.L408
.LBB1882:
.LBB1883:
.LBB1884:
	.loc 2 1353 0
	lwz 11,4(30)
.LBE1884:
.LBE1883:
.LBE1882:
	.loc 2 1113 0
	lwz 9,40(3)
.LBB1888:
.LBB1886:
.LBB1885:
	.loc 2 1353 0
	lwz 10,176(11)
.LBE1885:
.LBE1886:
.LBE1888:
	.loc 2 1113 0
	lbzx 11,9,17
.LVL599:
.LBB1889:
.LBB1887:
	.loc 2 684 0
	add 9,10,19
	lwz 9,56(9)
.LVL600:
	cmpwi 7,9,0
	beq- 7,.L364
.LVL601:
	.loc 2 685 0
	cmpwi 7,11,0
	mtctr 11
	bne+ 7,.L398
	b .L364
.LVL602:
.L367:
	bdz .L364
.L398:
	.loc 2 684 0
	lwz 9,40(9)
.LVL603:
	cmpwi 7,9,0
	bne+ 7,.L367
.L364:
.LVL604:
.LBE1887:
.LBE1889:
	.loc 2 1115 0
	beq- 4,.L368
	.loc 2 1117 0
	lhax 11,20,21
	lwz 7,40(23)
.LBB1890:
.LBB1891:
	.loc 2 684 0
	slwi 11,11,6
	add 11,10,11
.LBE1891:
.LBE1890:
	.loc 2 1117 0
	lbzx 7,7,28
.LVL605:
.LBB1893:
.LBB1892:
	.loc 2 684 0
	lwz 11,56(11)
.LVL606:
	cmpwi 7,11,0
	beq- 7,.L369
.LVL607:
	.loc 2 685 0
	cmpwi 7,7,0
	mtctr 7
	bne+ 7,.L399
	b .L369
.LVL608:
.L372:
	bdz .L369
.L399:
	.loc 2 684 0
	lwz 11,40(11)
.LVL609:
	cmpwi 7,11,0
	bne+ 7,.L372
.L369:
.LVL610:
.LBE1892:
.LBE1893:
	.loc 2 1118 0
	lha 11,4(11)
.LVL611:
	slwi 11,11,6
.LVL612:
	add 10,10,11
	lha 11,48(10)
	cmpwi 7,11,0
	blt- 7,.L408
.LVL613:
	.loc 2 1118 0 is_stmt 0 discriminator 2
	cmpw 7,11,24
	beq- 7,.L408
.LVL614:
.L368:
	.loc 2 1125 0 is_stmt 1
	lwz 11,44(23)
	.loc 2 1133 0
	cmpwi 7,16,0
	.loc 2 1125 0
	lhz 10,10(8)
	.loc 2 1130 0
	lhzx 11,11,27
	.loc 2 1125 0
	add 0,0,10
.LVL615:
	.loc 2 1130 0
	add 0,0,11
	rlwinm 0,0,0,0xffff
.LVL616:
	.loc 2 1133 0
	beq- 7,.L384
	.loc 2 1133 0 is_stmt 0 discriminator 1
	cmplw 7,16,0
	lwz 10,8(25)
	ble- 7,.L363
	.loc 2 1134 0 is_stmt 1
	mr 18,9
	.loc 2 1133 0
	mr 16,0
	b .L363
.LVL617:
.L362:
	.loc 2 1139 0
	cmpwi 7,18,0
	.loc 2 1140 0
	li 0,0
	.loc 2 1139 0
	beq- 7,.L338
	.loc 2 1143 0
	stw 18,0(26)
	.loc 2 1146 0
	li 0,1
	.loc 2 1144 0
	stw 16,0(31)
	.loc 2 1146 0
	b .L338
.LVL618:
.L411:
.LBB1894:
.LBB1895:
.LBB1896:
	.loc 5 589 0
	lwz 11,208(27)
	mulli 9,4,-12
.LBE1896:
.LBE1895:
.LBE1894:
	.loc 2 1054 0
	mr 0,24
.LVL619:
.LBB1899:
.LBB1898:
.LBB1897:
	.loc 5 589 0
	add 9,11,9
.LVL620:
.LBE1897:
.LBE1898:
.LBE1899:
	.loc 2 1054 0
	lha 11,2(9)
	cmpw 1,11,24
	beq- 1,.L350
	.loc 2 1054 0 is_stmt 0 discriminator 1
	lha 9,4(9)
.LVL621:
	cmpw 1,9,24
	beq- 1,.L350
	.loc 2 1054 0
	mr 0,4
	b .L350
.LVL622:
.L384:
	.loc 2 1134 0 is_stmt 1
	mr 18,9
	.loc 2 1130 0
	mr 16,0
.LVL623:
.L408:
	lwz 10,8(25)
	b .L363
.LVL624:
.L410:
	.loc 2 1036 0
	cmpwi 7,4,0
	blt- 7,.L414
.L345:
	.loc 2 1042 0
	mr 5,28
	mr 6,22
	mr 3,30
	bl _ZNK10idAASLocal21GetPortalRoutingCacheEiii
.LVL625:
.LBB1900:
.LBB1901:
.LBB1902:
	.loc 2 1353 0
	lwz 11,4(30)
.LBE1902:
.LBE1901:
.LBE1900:
	.loc 2 1043 0
	lwz 9,40(3)
	.loc 2 1042 0
	mr 28,3
.LVL626:
.LBB1906:
.LBB1903:
	.loc 2 684 0
	lwz 0,176(11)
.LBE1903:
.LBE1906:
	.loc 2 1043 0
	subf 9,24,9
.LBB1907:
.LBB1904:
	.loc 2 684 0
	add 19,0,19
.LBE1904:
.LBE1907:
	.loc 2 1043 0
	lbz 0,0(9)
.LVL627:
.LBB1908:
.LBB1905:
	.loc 2 684 0
	lwz 6,56(19)
.LVL628:
	cmpwi 7,6,0
	beq- 7,.L346
.LVL629:
	.loc 2 685 0
	cmpwi 7,0,0
	mtctr 0
	bne+ 7,.L396
	b .L346
.LVL630:
.L349:
	bdz .L346
.L396:
	.loc 2 684 0
	lwz 6,40(6)
.LVL631:
	cmpwi 7,6,0
	bne+ 7,.L349
.L346:
.LBE1905:
.LBE1908:
	.loc 2 1043 0
	stw 6,0(26)
	.loc 2 1044 0
	mr 3,30
.LVL632:
	mr 4,29
	mr 5,25
	addi 6,6,8
.LVL633:
	mulli 24,24,-2
.LVL634:
	bl _ZNK10idAASLocal14AreaTravelTimeEiRK6idVec3S2_
.LVL635:
	lwz 9,44(28)
	.loc 2 1045 0
	li 0,1
	.loc 2 1044 0
	lhzx 9,9,24
	add 9,9,3
	stw 9,0(31)
	.loc 2 1045 0
	b .L338
.LVL636:
.L360:
.LBB1909:
.LBB1865:
.LBB1860:
.LBB1861:
.LBB1862:
	.loc 5 589 0
	mulli 0,0,-12
.LVL637:
	lwz 10,208(9)
	add 10,10,0
.LVL638:
.LBE1862:
.LBE1861:
.LBE1860:
	.loc 2 705 0
	lha 11,2(10)
	xor 11,24,11
	cntlzw 11,11
	srwi 11,11,5
	xori 11,11,1
	.loc 2 706 0
	slwi 11,11,1
	add 10,10,11
.LVL639:
	lha 17,6(10)
	b .L361
.LVL640:
.L413:
.LBE1865:
.LBE1909:
	.loc 2 1082 0
	mulli 4,4,-12
.LVL641:
	lwz 0,208(27)
	add 4,0,4
	lha 4,2(4)
.LVL642:
	b .L359
.LVL643:
.L412:
	.loc 2 1061 0
	mr 3,30
	mr 4,24
	mr 5,28
	mr 6,22
	bl _ZNK10idAASLocal19GetAreaRoutingCacheEiii
.LVL644:
	.loc 2 1353 0
	lwz 27,4(30)
.LVL645:
	.loc 2 1061 0
	mr 21,3
.LVL646:
.LBB1910:
.LBB1911:
.LBB1912:
	.loc 2 1353 0
	lwz 17,176(27)
.LVL647:
.LBB1913:
.LBB1914:
	.loc 5 589 0
	add 9,17,19
.LBE1914:
.LBE1913:
.LBE1912:
	.loc 2 700 0
	lha 20,48(9)
.LVL648:
	.loc 2 701 0
	cmpwi 7,20,0
	ble- 7,.L352
.LVL649:
	.loc 2 702 0
	lha 0,50(9)
.LVL650:
.L353:
.LBE1911:
.LBE1910:
	.loc 2 1063 0
	lwz 10,44(21)
	slwi 11,0,1
	lhzx 24,10,11
	cmpwi 7,24,0
	bne- 7,.L354
	add 23,17,23
	.loc 2 700 0
	mr 24,20
	.loc 2 1063 0
	lha 4,48(23)
	.loc 2 1049 0
	li 18,0
	.loc 2 1068 0
	li 21,0
	.loc 2 1048 0
	li 16,0
	cmpwi 6,4,0
	b .L351
.LVL651:
.L414:
	.loc 2 1039 0
	mulli 4,4,-12
.LVL652:
	lwz 9,208(27)
	add 9,9,4
	lha 4,2(9)
.LVL653:
	b .L345
.LVL654:
.L354:
.LBB1919:
.LBB1920:
	.loc 2 684 0
	lwz 18,56(9)
.LBE1920:
.LBE1919:
	.loc 2 1064 0
	lwz 9,40(21)
.LBB1923:
.LBB1921:
	.loc 2 684 0
	cmpwi 7,18,0
.LBE1921:
.LBE1923:
	.loc 2 1064 0
	lbzx 0,9,0
.LVL655:
.LBB1924:
.LBB1922:
	.loc 2 684 0
	beq- 7,.L355
.LVL656:
	.loc 2 685 0
	cmpwi 7,0,0
	mtctr 0
	bne+ 7,.L397
	b .L355
.LVL657:
.L358:
	bdz .L355
.L397:
	.loc 2 684 0
	lwz 18,40(18)
.LVL658:
	cmpwi 7,18,0
	bne+ 7,.L358
.L355:
.LVL659:
.LBE1922:
.LBE1924:
	.loc 2 1065 0
	mr 4,29
	mr 3,30
.LVL660:
	mr 5,25
	addi 6,18,8
	add 23,17,23
	bl _ZNK10idAASLocal14AreaTravelTimeEiRK6idVec3S2_
	lha 4,48(23)
	add 3,3,24
	rlwinm 16,3,0,0xffff
.LVL661:
	.loc 2 700 0
	mr 24,20
	cmpwi 6,4,0
	b .L351
.LVL662:
.L352:
.LBB1925:
.LBB1918:
.LBB1915:
.LBB1916:
.LBB1917:
	.loc 5 589 0
	mulli 0,20,-12
	lwz 11,208(27)
	add 11,11,0
.LVL663:
.LBE1917:
.LBE1916:
.LBE1915:
	.loc 2 705 0
	lha 0,2(11)
	xor 24,24,0
.LVL664:
	cntlzw 24,24
	srwi 24,24,5
	xori 0,24,1
	.loc 2 706 0
	slwi 0,0,1
	add 11,11,0
	lha 0,6(11)
	b .L353
.LBE1918:
.LBE1925:
.LBE1927:
	.cfi_endproc
.LFE2852:
	.size	_ZNK10idAASLocal15RouteToGoalAreaEi6idVec3iiRiPP14idReachability, .-_ZNK10idAASLocal15RouteToGoalAreaEi6idVec3iiRiPP14idReachability
	.align 2
	.globl _ZNK10idAASLocal20TravelTimeToGoalAreaEiRK6idVec3ii
	.type	_ZNK10idAASLocal20TravelTimeToGoalAreaEiRK6idVec3ii, @function
_ZNK10idAASLocal20TravelTimeToGoalAreaEiRK6idVec3ii:
.LFB2853:
	.loc 2 1154 0
	.cfi_startproc
.LVL665:
	mflr 0
	stwu 1,-56(1)
.LCFI81:
	.cfi_def_cfa_offset 56
	.cfi_register 65, 0
	stw 31,52(1)
.LBB1928:
	.loc 2 1159 0
	li 31,0
	.cfi_offset 31, -4
.LBE1928:
	.loc 2 1154 0
	stw 0,60(1)
.LBB1929:
	.loc 2 1158 0
	lwz 0,4(3)
	.cfi_offset 65, 4
	cmpwi 7,0,0
	beq- 7,.L416
	.loc 2 1162 0
	lwz 0,8(5)
	addi 8,1,12
	lwz 10,0(5)
	lwz 11,4(5)
	addi 5,1,32
.LVL666:
	stw 10,32(1)
	stw 11,36(1)
	stw 0,40(1)
	lwz 9,0(3)
	lwz 0,96(9)
	addi 9,1,8
	mtctr 0
	bctrl
.LVL667:
	cmpwi 7,3,0
	beq- 7,.L416
.LVL668:
	.loc 2 1165 0
	lwz 31,12(1)
.L416:
.LBE1929:
	.loc 2 1166 0
	lwz 0,60(1)
	mr 3,31
	lwz 31,52(1)
	mtlr 0
	addi 1,1,56
.LCFI82:
	.cfi_def_cfa_offset 0
	.cfi_restore 31
	blr
	.cfi_endproc
.LFE2853:
	.size	_ZNK10idAASLocal20TravelTimeToGoalAreaEiRK6idVec3ii, .-_ZNK10idAASLocal20TravelTimeToGoalAreaEiRK6idVec3ii
	.align 2
	.globl _ZNK10idAASLocal15FindNearestGoalER9aasGoal_si6idVec3RKS2_iP13aasObstacle_siR13idAASCallback
	.type	_ZNK10idAASLocal15FindNearestGoalER9aasGoal_si6idVec3RKS2_iP13aasObstacle_siR13idAASCallback, @function
_ZNK10idAASLocal15FindNearestGoalER9aasGoal_si6idVec3RKS2_iP13aasObstacle_siR13idAASCallback:
.LFB2854:
	.loc 2 1173 0
	.cfi_startproc
.LVL669:
	mflr 0
	stwu 1,-232(1)
.LCFI83:
	.cfi_def_cfa_offset 232
	.cfi_register 65, 0
	mfcr 12
	stw 24,136(1)
	mr 24,8
	.cfi_offset 24, -96
	.cfi_register 70, 12
	stw 25,140(1)
	mr 25,10
	.cfi_offset 25, -92
	stw 28,152(1)
	mr 28,5
	.cfi_offset 28, -80
	stw 29,156(1)
	mr 29,9
	.cfi_offset 29, -76
	stw 30,160(1)
	mr 30,7
	.cfi_offset 30, -72
	stw 31,164(1)
	mr 31,3
	.cfi_offset 31, -68
	stw 0,236(1)
	stfd 24,168(1)
	stfd 25,176(1)
	stfd 26,184(1)
	stfd 27,192(1)
	stfd 28,200(1)
	stfd 29,208(1)
	stfd 30,216(1)
	stfd 31,224(1)
	stw 14,96(1)
	stw 15,100(1)
	stw 16,104(1)
	stw 17,108(1)
	stw 18,112(1)
	stw 19,116(1)
	stw 20,120(1)
	stw 21,124(1)
	stw 22,128(1)
	stw 23,132(1)
	stw 26,144(1)
	stw 27,148(1)
	stw 12,92(1)
	.loc 2 1173 0
	stw 4,68(1)
.LBB2025:
	.loc 2 1182 0
	lwz 0,4(3)
	.cfi_offset 70, -140
	.cfi_offset 27, -84
	.cfi_offset 26, -88
	.cfi_offset 23, -100
	.cfi_offset 22, -104
	.cfi_offset 21, -108
	.cfi_offset 20, -112
	.cfi_offset 19, -116
	.cfi_offset 18, -120
	.cfi_offset 17, -124
	.cfi_offset 16, -128
	.cfi_offset 15, -132
	.cfi_offset 14, -136
	.cfi_offset 63, -8
	.cfi_offset 62, -16
	.cfi_offset 61, -24
	.cfi_offset 60, -32
	.cfi_offset 59, -40
	.cfi_offset 58, -48
	.cfi_offset 57, -56
	.cfi_offset 56, -64
	.cfi_offset 65, 4
	.loc 2 1352 0
	lfs 29,0(6)
.LVL670:
	.loc 2 1182 0
	cmpwi 7,0,0
	.loc 2 1352 0
	lfs 30,4(6)
.LVL671:
	lfs 31,8(6)
.LVL672:
	.loc 2 1182 0
	beq- 7,.L420
	.loc 2 1182 0 is_stmt 0 discriminator 1
	cmpwi 7,5,0
	ble- 7,.L420
	.loc 2 1189 0 is_stmt 1
	lwz 11,240(1)
	mr 4,31
.LVL673:
	lwz 9,0(11)
.LVL674:
	mr 3,11
.LVL675:
	lwz 0,8(9)
	mtctr 0
	bctrl
.LVL676:
	cmpwi 7,3,0
	bne- 7,.L423
.LVL677:
	.loc 2 1196 0 discriminator 1
	cmpwi 3,25,0
	ble- 3,.L425
	mtctr 25
	.loc 2 1196 0 is_stmt 0
	mr 9,29
	addi 5,29,24
	addi 0,29,12
	addi 6,29,36
.LVL678:
.L426:
	.loc 2 1197 0 is_stmt 1 discriminator 2
	lwz 11,4(31)
.LVL679:
.LBB2026:
.LBB2027:
	.loc 2 1173 0 discriminator 2
	subf 10,29,9
	.loc 3 431 0 discriminator 2
	lfs 9,0(9)
.LBE2027:
.LBE2026:
	.loc 2 1173 0 discriminator 2
	add 7,10,0
.LBB2032:
.LBB2028:
	.loc 3 431 0 discriminator 2
	lfs 12,260(11)
	lfs 10,4(9)
	lfs 11,8(9)
	fsubs 12,9,12
	lfs 13,264(11)
.LBE2028:
.LBE2032:
	.loc 2 1196 0 discriminator 2
	addi 9,9,48
.LBB2033:
.LBB2029:
	.loc 3 431 0 discriminator 2
	lfs 0,268(11)
.LBE2029:
.LBE2033:
.LBB2034:
.LBB2035:
	.loc 3 424 0 discriminator 2
	mr 11,10
.LBE2035:
.LBE2034:
.LBB2038:
.LBB2030:
	.loc 3 431 0 discriminator 2
	fsubs 13,10,13
.LBE2030:
.LBE2038:
.LBB2039:
.LBB2036:
	.loc 3 424 0 discriminator 2
	stfsux 12,11,5
.LBE2036:
.LBE2039:
.LBB2040:
.LBB2031:
	.loc 3 431 0 discriminator 2
	fsubs 0,11,0
.LVL680:
.LBE2031:
.LBE2040:
.LBB2041:
.LBB2037:
	.loc 3 425 0 discriminator 2
	stfs 13,4(11)
	.loc 3 426 0 discriminator 2
	stfs 0,8(11)
.LVL681:
.LBE2037:
.LBE2041:
.LBB2042:
.LBB2043:
	.loc 3 424 0 discriminator 2
	mr 11,10
.LBE2043:
.LBE2042:
	.loc 2 1198 0 discriminator 2
	lwz 8,4(31)
.LVL682:
.LBB2046:
.LBB2047:
	.loc 3 431 0 discriminator 2
	lfsx 9,10,0
	lfs 12,248(8)
	lfs 10,4(7)
	lfs 13,252(8)
.LVL683:
	fsubs 12,9,12
	lfs 11,8(7)
	lfs 0,256(8)
.LVL684:
	fsubs 13,10,13
.LBE2047:
.LBE2046:
.LBB2049:
.LBB2044:
	.loc 3 424 0 discriminator 2
	stfsux 12,11,6
.LBE2044:
.LBE2049:
.LBB2050:
.LBB2048:
	.loc 3 431 0 discriminator 2
	fsubs 0,11,0
.LVL685:
.LBE2048:
.LBE2050:
.LBB2051:
.LBB2045:
	.loc 3 425 0 discriminator 2
	stfs 13,4(11)
	.loc 3 426 0 discriminator 2
	stfs 0,8(11)
.LBE2045:
.LBE2051:
	.loc 2 1196 0 discriminator 2
	bdnz .L426
.LVL686:
.L425:
	.loc 2 1202 0
	lis 9,SIMDProcessor@ha
.LBB2052:
	.loc 2 1353 0
	lwz 11,4(31)
.LBE2052:
	.loc 2 1202 0
	lwz 3,SIMDProcessor@l(9)
	li 5,0
	lwz 6,164(11)
.LBB2053:
.LBB2054:
.LBB2055:
.LBB2056:
.LBB2057:
.LBB2058:
	.loc 4 276 0
	lis 16,_ZN6idMath5iSqrtE@ha
.LBE2058:
.LBE2057:
.LBE2056:
.LBE2055:
.LBE2054:
.LBE2053:
	.loc 2 1202 0
	lwz 9,0(3)
.LBB2110:
.LBB2099:
.LBB2089:
.LBB2079:
.LBB2069:
.LBB2059:
	.loc 4 276 0
	la 16,_ZN6idMath5iSqrtE@l(16)
.LBE2059:
.LBE2069:
.LBE2079:
.LBE2089:
.LBE2099:
.LBE2110:
	.loc 2 1202 0
	lwz 4,64(31)
	slwi 6,6,1
	lwz 0,152(9)
.LBB2111:
.LBB2100:
.LBB2090:
.LBB2080:
.LBB2070:
.LBB2060:
	.loc 4 275 0
	lis 14,.LC1@ha
	.loc 4 278 0
	lis 15,.LC3@ha
.LBE2060:
.LBE2070:
.LBE2080:
.LBE2090:
.LBE2100:
.LBE2111:
	.loc 2 1201 0
	nor 24,24,24
.LVL687:
	.loc 2 1202 0
	mtctr 0
	.loc 2 1212 0
	li 18,0
	lis 17,.LC14@ha
	.loc 2 1202 0
	bctrl
.LVL688:
.LBB2112:
.LBB2113:
	.loc 3 431 0
	lfs 12,4(30)
	lfs 13,0(30)
.LBE2113:
.LBE2112:
	.loc 2 1310 0
	rlwinm 11,24,21,31,31
.LBB2118:
.LBB2114:
	.loc 3 431 0
	fsubs 12,12,30
	lfs 0,8(30)
	fsubs 13,13,29
.LBE2114:
.LBE2118:
	.loc 2 1207 0
	lwz 27,56(31)
.LBB2119:
.LBB2115:
	.loc 3 431 0
	fsubs 0,0,31
.LVL689:
.LBE2115:
.LBE2119:
	.loc 2 1310 0
	cmpwi 2,11,0
.LBB2120:
.LBB2101:
	.loc 3 632 0
	fmuls 12,12,12
.LVL690:
	stw 29,72(1)
.LBE2101:
.LBE2120:
.LBB2121:
.LBB2116:
	fmadds 13,13,13,12
.LVL691:
.LBE2116:
.LBE2121:
.LBB2122:
.LBB2102:
.LBB2091:
.LBB2081:
.LBB2071:
.LBB2061:
	.loc 4 275 0
	lfs 12,.LC1@l(14)
.LBE2061:
.LBE2071:
.LBE2081:
.LBE2091:
.LBE2102:
.LBE2122:
.LBB2123:
.LBB2117:
	.loc 3 632 0
	fmadds 13,0,0,13
	stfs 13,52(1)
.LVL692:
.LBE2117:
.LBE2123:
.LBB2124:
.LBB2103:
.LBB2092:
.LBB2082:
.LBB2072:
.LBB2062:
	.loc 4 278 0
	lfs 13,.LC3@l(15)
.LVL693:
	.loc 4 270 0
	lwz 0,52(1)
.LVL694:
	.loc 4 275 0
	lfs 0,52(1)
.LVL695:
	.loc 4 276 0
	rlwinm 9,0,9,24,31
	rlwinm 0,0,19,21,29
	lwzx 0,16,0
	subfic 9,9,380
	rlwinm 9,9,22,0,8
	.loc 4 275 0
	fmuls 12,0,12
.LVL696:
	.loc 4 276 0
	or 0,9,0
.LBE2062:
.LBE2072:
.LBE2082:
.LBE2092:
.LBE2103:
.LBE2124:
	.loc 2 1209 0
	li 9,0
.LBB2125:
.LBB2104:
.LBB2093:
.LBB2083:
.LBB2073:
.LBB2063:
	.loc 4 277 0
	stw 0,80(1)
.LBE2063:
.LBE2073:
.LBE2083:
.LBE2093:
.LBE2104:
.LBE2125:
	.loc 2 1207 0
	mulli 0,28,40
.LBB2126:
.LBB2105:
.LBB2094:
.LBB2084:
.LBB2074:
.LBB2064:
	.loc 2 1173 0
	fneg 12,12
.LVL697:
	.loc 4 277 0
	lfs 11,80(1)
.LBE2064:
.LBE2074:
.LBE2084:
.LBE2094:
.LBE2105:
.LBE2126:
	.loc 2 1207 0
	add 27,27,0
	.loc 2 1211 0
	li 0,0
	.loc 2 1209 0
	sth 9,8(27)
.LBB2127:
.LBB2106:
.LBB2095:
.LBB2085:
.LBB2075:
.LBB2065:
	.loc 4 277 0
	fmr 0,11
.LVL698:
.LBE2065:
.LBE2075:
.LBE2085:
.LBE2095:
.LBE2106:
.LBE2127:
	.loc 2 1227 0
	li 9,0
	.loc 2 1208 0
	stw 28,4(27)
	mr 29,9
.LVL699:
.LBB2128:
.LBB2129:
	.loc 3 424 0
	stfs 29,16(27)
.LBE2129:
.LBE2128:
.LBB2131:
.LBB2107:
.LBB2096:
.LBB2086:
.LBB2076:
.LBB2066:
	.loc 4 278 0
	fmul 11,0,0
.LVL700:
.LBE2066:
.LBE2076:
.LBE2086:
.LBE2096:
.LBE2107:
.LBE2131:
.LBB2132:
.LBB2130:
	.loc 3 425 0
	stfs 30,20(27)
	.loc 3 426 0
	stfs 31,24(27)
.LBE2130:
.LBE2132:
	.loc 2 1211 0
	stw 0,28(27)
	.loc 2 1212 0
	stw 0,32(27)
.LBB2133:
.LBB2108:
.LBB2097:
.LBB2087:
.LBB2077:
.LBB2067:
	.loc 4 278 0
	fmadd 11,12,11,13
.LBE2067:
.LBE2077:
.LBE2087:
.LBE2097:
.LBE2108:
.LBE2133:
	.loc 2 1212 0
	stw 0,76(1)
.LBB2134:
.LBB2109:
.LBB2098:
.LBB2088:
.LBB2078:
.LBB2068:
	.loc 4 278 0
	fmul 0,0,11
.LVL701:
	.loc 4 279 0
	fmul 11,0,0
	fmadd 13,12,11,13
.LVL702:
	fmul 0,0,13
.LVL703:
	.loc 4 280 0
	frsp 28,0
.LBE2068:
.LBE2078:
	.loc 4 303 0
	lfs 0,52(1)
.LVL704:
	fmuls 28,0,28
.LVL705:
.L427:
.LBE2088:
.LBE2098:
.LBE2109:
.LBE2134:
	.loc 2 1234 0
	cmpwi 7,18,0
	.loc 2 1231 0
	li 9,0
	stb 9,36(27)
	.loc 2 1234 0
	beq- 7,.L428
	.loc 2 1234 0 is_stmt 0 discriminator 1
	lhz 9,8(27)
	.loc 2 1229 0 is_stmt 1 discriminator 1
	mr 19,0
	.loc 2 1234 0 discriminator 1
	cmplw 7,9,18
	bge- 7,.L429
.L428:
.LVL706:
.LBB2135:
	.loc 2 1353 0
	lwz 11,4(31)
.LBE2135:
	.loc 2 1229 0
	mr 19,0
.LBB2138:
.LBB2136:
.LBB2137:
	.loc 5 589 0
	lwz 9,4(27)
.LBE2137:
.LBE2136:
.LBE2138:
	.loc 2 1238 0
	lwz 11,176(11)
	slwi 9,9,6
	add 9,11,9
	lwz 28,56(9)
.LVL707:
	cmpwi 7,28,0
	beq- 7,.L429
	.loc 2 1255 0
	addi 26,27,16
.LVL708:
.L448:
	.loc 2 1241 0
	lwz 0,0(28)
	and. 11,24,0
	bne- 0,.L430
.LBB2139:
	.loc 2 1353 0
	lwz 9,4(31)
.LBE2139:
	.loc 2 1246 0
	lha 23,4(28)
.LVL709:
.LBB2142:
.LBB2140:
.LBB2141:
	.loc 5 589 0
	lwz 22,176(9)
	slwi 21,23,6
	add 22,22,21
.LVL710:
.LBE2141:
.LBE2140:
.LBE2142:
	.loc 2 1250 0
	lwz 0,52(22)
	and. 9,24,0
	bne- 0,.L430
	.loc 2 1255 0
	lwz 4,4(27)
	mr 3,31
	mr 5,26
	addi 6,28,8
	bl _ZNK10idAASLocal14AreaTravelTimeEiRK6idVec3S2_
.LVL711:
.LBB2143:
.LBB2144:
	.loc 3 431 0
	lfs 12,20(27)
	lfs 26,24(28)
	la 8,.LC14@l(17)
	lfs 10,16(27)
	fsubs 6,26,12
	lfs 27,20(28)
	lfs 0,24(27)
	fsubs 7,27,10
	lfs 29,28(28)
.LBE2144:
.LBE2143:
.LBB2148:
.LBB2149:
	.loc 3 649 0
	fmuls 13,6,6
.LBE2149:
.LBE2148:
.LBB2171:
.LBB2172:
	.loc 3 431 0
	lfs 30,4(30)
.LBE2172:
.LBE2171:
.LBB2179:
.LBB2145:
	fsubs 8,29,0
.LBE2145:
.LBE2179:
.LBB2180:
.LBB2173:
	lfs 31,0(30)
.LBE2173:
.LBE2180:
.LBB2181:
.LBB2164:
.LBB2150:
.LBB2151:
	.loc 4 275 0
	lfs 2,.LC1@l(14)
.LBE2151:
.LBE2150:
.LBE2164:
.LBE2181:
.LBB2182:
.LBB2146:
	.loc 3 649 0
	fmadds 13,7,7,13
.LBE2146:
.LBE2182:
.LBB2183:
.LBB2165:
.LBB2158:
.LBB2152:
	.loc 4 278 0
	lfs 3,.LC3@l(15)
.LBE2152:
.LBE2158:
.LBE2165:
.LBE2183:
.LBB2184:
.LBB2174:
	.loc 3 431 0
	fsubs 24,31,10
.LBE2174:
.LBE2184:
.LBB2185:
.LBB2147:
	.loc 3 649 0
	fmadds 13,8,8,13
	stfs 13,52(1)
.LBE2147:
.LBE2185:
.LBB2186:
.LBB2175:
	.loc 3 431 0
	fsubs 13,30,12
.LBE2175:
.LBE2186:
.LBB2187:
.LBB2166:
.LBB2159:
.LBB2153:
	.loc 4 270 0
	lwz 0,52(1)
	.loc 4 275 0
	lfs 11,52(1)
	.loc 4 276 0
	rlwinm 9,0,19,21,29
	rlwinm 11,0,9,24,31
	lwzx 9,16,9
	subfic 0,11,380
	rlwinm 0,0,22,0,8
	.loc 4 275 0
	fmuls 2,11,2
	.loc 4 276 0
	or 0,0,9
.LBE2153:
.LBE2159:
.LBE2166:
.LBE2187:
.LBB2188:
.LBB2189:
	.loc 3 426 0
	li 9,0
.LBE2189:
.LBE2188:
.LBB2191:
.LBB2167:
.LBB2160:
.LBB2154:
	.loc 4 277 0
	stw 0,80(1)
	.loc 2 1173 0
	fneg 2,2
	.loc 4 277 0
	lfs 11,80(1)
.LBE2154:
.LBE2160:
.LBE2167:
.LBE2191:
.LBB2192:
.LBB2176:
	.loc 3 431 0
	lfs 1,8(30)
.LBE2176:
.LBE2192:
.LBB2193:
.LBB2168:
.LBB2161:
.LBB2155:
	.loc 4 277 0
	fmr 4,11
.LBE2155:
.LBE2161:
.LBE2168:
.LBE2193:
	.loc 2 1256 0
	lhz 0,8(27)
.LBB2194:
.LBB2177:
	.loc 3 431 0
	fsubs 25,1,0
.LBE2177:
.LBE2194:
	.loc 2 1256 0
	lhz 20,36(28)
	.loc 2 1266 0
	lfs 11,.LC14@l(17)
.LBB2195:
.LBB2169:
.LBB2162:
.LBB2156:
	.loc 4 278 0
	fmul 5,4,4
.LBE2156:
.LBE2162:
.LBE2169:
.LBE2195:
	.loc 2 1256 0
	add 20,20,0
	add 20,3,20
	rlwinm 20,20,0,0xffff
.LVL712:
.LBB2196:
.LBB2170:
.LBB2163:
.LBB2157:
	.loc 4 278 0
	fmadd 5,2,5,3
	fmul 5,4,5
.LVL713:
	.loc 4 279 0
	fmul 9,5,5
	fmadd 9,2,9,3
.LVL714:
	fmul 9,5,9
.LVL715:
	.loc 4 280 0
	frsp 9,9
.LVL716:
.LBE2157:
.LBE2163:
	.loc 3 652 0
	fmuls 6,6,9
.LVL717:
	.loc 3 651 0
	fmuls 7,7,9
.LVL718:
	.loc 3 653 0
	fmuls 9,8,9
.LVL719:
.LBE2170:
.LBE2196:
.LBB2197:
.LBB2198:
	.loc 3 435 0
	fmuls 13,6,13
.LVL720:
.LBE2198:
.LBE2197:
.LBB2199:
.LBB2178:
	fmadds 13,7,24,13
	fmadds 13,9,25,13
.LVL721:
	.loc 3 452 0
	fmadds 10,7,13,10
	fmadds 9,9,13,0
.LVL722:
	fmadds 6,6,13,12
.LVL723:
.LBE2178:
.LBE2199:
.LBB2200:
.LBB2190:
	.loc 3 426 0
	fmr 0,10
	.loc 3 424 0
	stfs 10,20(1)
	.loc 3 426 0
	stfs 9,28(1)
.LVL724:
	.loc 3 425 0
	stfs 6,24(1)
.LVL725:
.L453:
.LBE2190:
.LBE2200:
	.loc 2 1266 0
	add 11,27,9
	add 10,28,9
	lfs 13,16(11)
	.loc 2 1265 0
	cmpwi 6,9,8
	.loc 2 1266 0
	fadds 12,13,11
	fcmpu 7,12,0
	bnl- 7,.L431
.LVL726:
	lfs 12,20(10)
	fadds 12,12,11
	fcmpu 7,12,0
	bnl- 7,.L431
.LVL727:
.L433:
.LBB2201:
.LBB2202:
	.loc 3 431 0
	fsubs 30,30,26
.LBE2202:
.LBE2201:
.LBB2206:
.LBB2207:
.LBB2208:
.LBB2209:
.LBB2210:
.LBB2211:
	.loc 4 275 0
	lfs 12,.LC1@l(14)
.LBE2211:
.LBE2210:
.LBE2209:
.LBE2208:
.LBE2207:
.LBE2206:
.LBB2223:
.LBB2203:
	.loc 3 431 0
	fsubs 31,31,27
.LBE2203:
.LBE2223:
.LBB2224:
.LBB2220:
.LBB2218:
.LBB2216:
.LBB2214:
.LBB2212:
	.loc 4 278 0
	lfs 13,.LC3@l(15)
.LBE2212:
.LBE2214:
.LBE2216:
.LBE2218:
.LBE2220:
.LBE2224:
.LBB2225:
.LBB2204:
	.loc 3 431 0
	fsubs 1,1,29
.LVL728:
.LBE2204:
.LBE2225:
.LBB2226:
.LBB2221:
	.loc 3 632 0
	fmuls 30,30,30
.LVL729:
.LBE2221:
.LBE2226:
.LBB2227:
.LBB2205:
	fmadds 31,31,31,30
.LVL730:
	fmadds 31,1,1,31
	stfs 31,52(1)
.LVL731:
.LBE2205:
.LBE2227:
.LBB2228:
.LBB2222:
.LBB2219:
.LBB2217:
.LBB2215:
.LBB2213:
	.loc 4 275 0
	fmuls 12,31,12
	.loc 4 270 0
	lwz 0,52(1)
.LVL732:
	.loc 2 1173 0
	fneg 12,12
	.loc 4 276 0
	rlwinm 9,0,9,24,31
	rlwinm 0,0,19,21,29
	subfic 9,9,380
	lwzx 0,16,0
	rlwinm 9,9,22,0,8
	or 0,9,0
	.loc 4 277 0
	stw 0,80(1)
	lfs 11,80(1)
	fmr 0,11
.LVL733:
	.loc 4 278 0
	fmul 11,0,0
.LVL734:
	fmadd 11,12,11,13
	fmul 0,0,11
.LVL735:
	.loc 4 279 0
	fmul 11,0,0
	fmadd 13,12,11,13
.LVL736:
	fmul 0,0,13
.LVL737:
	.loc 4 280 0
	frsp 0,0
.LVL738:
.LBE2213:
.LBE2215:
	.loc 4 303 0
	fmuls 0,31,0
.LVL739:
.L454:
.LBE2217:
.LBE2219:
.LBE2222:
.LBE2228:
	.loc 2 1278 0
	fcmpu 7,0,28
	bnl- 7,.L437
	.loc 2 1279 0
	xoris 20,20,0x8000
.LVL740:
	lis 0,0x4330
	stw 20,44(1)
	lis 9,.LC18@ha
	stw 0,40(1)
	fsubs 0,28,0
.LVL741:
	lfs 13,.LC18@l(9)
	lis 11,.LC19@ha
	lfd 12,40(1)
	addi 9,1,48
	fsub 13,12,13
	lfs 12,.LC19@l(11)
	frsp 13,13
	fmadds 0,0,12,13
	fctiwz 0,0
	stfiwx 0,0,9
	lwz 20,48(1)
.LVL742:
	rlwinm 20,20,0,0xffff
.LVL743:
.L437:
	.loc 2 1283 0
	cmpwi 4,18,0
	beq- 4,.L439
	.loc 2 1283 0 is_stmt 0 discriminator 1
	cmplw 7,20,18
	bge- 7,.L430
.L439:
	.loc 2 1288 0 is_stmt 1
	lwz 9,64(31)
	slwi 11,23,1
	stw 11,52(1)
	lhzx 0,9,11
	add 9,9,11
	cmpwi 7,0,0
	beq- 7,.L440
	.loc 2 1288 0 is_stmt 0 discriminator 1
	cmplw 7,20,0
	bge- 7,.L430
.L440:
.LVL744:
	.loc 2 1293 0 is_stmt 1 discriminator 1
	ble- 3,.L455
	.loc 2 1293 0 is_stmt 0
	lwz 9,72(1)
	addi 0,28,20
	li 11,0
	stw 27,56(1)
	stw 31,60(1)
	mr 27,28
.LVL745:
	stw 30,64(1)
	mr 28,29
.LVL746:
	mr 31,9
	mr 30,11
.LVL747:
	mr 29,0
.LVL748:
	b .L443
.LVL749:
.L467:
	addi 30,30,1
.LVL750:
	cmpw 7,30,25
	beq- 7,.L466
.LVL751:
.L443:
	.loc 2 1295 0 is_stmt 1
	addi 3,31,24
	mr 4,26
	mr 5,29
	.loc 2 1293 0
	addi 31,31,48
	.loc 2 1295 0
	bl _ZNK8idBounds16LineIntersectionERK6idVec3S2_
	cmpwi 7,3,0
	beq+ 7,.L467
	mr 11,30
	mr 29,28
	.loc 2 1299 0
	cmpw 7,25,11
	mr 28,27
.LVL752:
	lwz 31,60(1)
	lwz 27,56(1)
.LVL753:
	lwz 30,64(1)
	ble- 7,.L468
.LVL754:
.L430:
	.loc 2 1238 0
	lwz 28,40(28)
.LVL755:
	cmpwi 7,28,0
	bne+ 7,.L448
.LVL756:
.L429:
	.loc 2 1220 0 discriminator 1
	cmpwi 7,19,0
	beq- 7,.L449
	.loc 2 1220 0 is_stmt 0
	lwz 9,28(19)
.LVL757:
	.loc 2 1224 0 is_stmt 1
	li 0,0
	.loc 2 1223 0
	cmpwi 7,9,0
	beq- 7,.L469
	.loc 2 1224 0
	stw 0,32(9)
	.loc 2 1227 0
	mr 27,19
	.loc 2 1224 0
	lwz 0,28(19)
	b .L427
.LVL758:
.L423:
	.loc 2 1190 0
	lwz 11,68(1)
	.loc 2 1192 0
	li 3,1
	.loc 2 1190 0
	stw 28,0(11)
.LVL759:
.LBB2229:
.LBB2230:
	.loc 3 424 0
	stfs 29,4(11)
	.loc 3 425 0
	stfs 30,8(11)
	.loc 3 426 0
	stfs 31,12(11)
.LVL760:
.L422:
.LBE2230:
.LBE2229:
.LBE2025:
	.loc 2 1353 0
	lwz 0,236(1)
	lwz 12,92(1)
	mtlr 0
	lwz 14,96(1)
	lwz 15,100(1)
	mtcrf 56,12
	lwz 16,104(1)
	lwz 17,108(1)
	lwz 18,112(1)
	lwz 19,116(1)
	lwz 20,120(1)
	lwz 21,124(1)
	lwz 22,128(1)
	lwz 23,132(1)
	lwz 24,136(1)
	lwz 25,140(1)
.LVL761:
	lwz 26,144(1)
	lwz 27,148(1)
	lwz 28,152(1)
	lwz 29,156(1)
	lwz 30,160(1)
	lwz 31,164(1)
	lfd 24,168(1)
	lfd 25,176(1)
	lfd 26,184(1)
	lfd 27,192(1)
	lfd 28,200(1)
	lfd 29,208(1)
	lfd 30,216(1)
	lfd 31,224(1)
	addi 1,1,232
	.cfi_remember_state
.LCFI84:
	.cfi_def_cfa_offset 0
	.cfi_restore 70
	.cfi_restore 63
	.cfi_restore 62
	.cfi_restore 61
	.cfi_restore 60
	.cfi_restore 59
	.cfi_restore 58
	.cfi_restore 57
	.cfi_restore 56
	.cfi_restore 31
	.cfi_restore 30
	.cfi_restore 29
	.cfi_restore 28
	.cfi_restore 27
	.cfi_restore 26
	.cfi_restore 25
	.cfi_restore 24
	.cfi_restore 23
	.cfi_restore 22
	.cfi_restore 21
	.cfi_restore 20
	.cfi_restore 19
	.cfi_restore 18
	.cfi_restore 17
	.cfi_restore 16
	.cfi_restore 15
	.cfi_restore 14
	blr
.LVL762:
.L431:
.LCFI85:
	.cfi_restore_state
.LBB2268:
	.loc 2 1266 0
	lfs 12,0(8)
	add 11,28,9
	.loc 2 1265 0
	addi 9,9,4
	.loc 2 1266 0
	fsubs 13,13,12
	fcmpu 7,13,0
	bng- 7,.L434
.LVL763:
	lfs 13,20(11)
	fsubs 12,13,12
	fcmpu 7,12,0
	bgt- 7,.L433
.LVL764:
.L434:
	.loc 2 1265 0
	beq- 6,.L452
	addi 11,1,20
	lfsx 0,9,11
	b .L453
.L452:
.LVL765:
.LBB2231:
.LBB2232:
	.loc 3 431 0
	fsubs 6,30,6
.LVL766:
.LBE2232:
.LBE2231:
.LBB2236:
.LBB2237:
.LBB2238:
.LBB2239:
.LBB2240:
.LBB2241:
	.loc 4 275 0
	lfs 12,.LC1@l(14)
.LBE2241:
.LBE2240:
.LBE2239:
.LBE2238:
.LBE2237:
.LBE2236:
.LBB2253:
.LBB2233:
	.loc 3 431 0
	fsubs 10,31,10
.LVL767:
.LBE2233:
.LBE2253:
.LBB2254:
.LBB2250:
.LBB2248:
.LBB2246:
.LBB2244:
.LBB2242:
	.loc 4 278 0
	lfs 11,.LC3@l(15)
.LBE2242:
.LBE2244:
.LBE2246:
.LBE2248:
.LBE2250:
.LBE2254:
.LBB2255:
.LBB2234:
	.loc 3 431 0
	fsubs 9,1,9
.LVL768:
.LBE2234:
.LBE2255:
.LBB2256:
.LBB2251:
	.loc 3 632 0
	fmuls 6,6,6
.LVL769:
.LBE2251:
.LBE2256:
.LBB2257:
.LBB2235:
	fmadds 10,10,10,6
.LVL770:
	fmadds 10,9,9,10
	stfs 10,52(1)
.LVL771:
.LBE2235:
.LBE2257:
.LBB2258:
.LBB2252:
.LBB2249:
.LBB2247:
.LBB2245:
.LBB2243:
	.loc 4 275 0
	fmuls 12,10,12
	.loc 4 270 0
	lwz 0,52(1)
.LVL772:
	.loc 2 1173 0
	fneg 12,12
	.loc 4 276 0
	rlwinm 9,0,19,21,29
	rlwinm 11,0,9,24,31
	subfic 0,11,380
	lwzx 9,16,9
	rlwinm 0,0,22,0,8
	or 0,0,9
	.loc 4 277 0
	stw 0,80(1)
	lfs 0,80(1)
	fmr 13,0
.LVL773:
	.loc 4 278 0
	fmul 0,13,13
.LVL774:
	fmadd 0,12,0,11
	fmul 0,13,0
.LVL775:
	.loc 4 279 0
	fmul 13,0,0
	fmadd 11,12,13,11
.LVL776:
	fmul 0,0,11
.LVL777:
	.loc 4 280 0
	frsp 0,0
.LVL778:
.LBE2243:
.LBE2245:
	.loc 4 303 0
	fmuls 0,10,0
	b .L454
.LVL779:
.L468:
.LBE2247:
.LBE2249:
.LBE2252:
.LBE2258:
	.loc 2 1299 0
	lwz 9,64(31)
	lwz 11,52(1)
	add 9,9,11
.LVL780:
.L455:
	.loc 2 1303 0
	sth 20,0(9)
	.loc 2 1304 0
	mulli 0,23,40
	lwz 9,56(31)
	add 9,9,0
.LVL781:
	.loc 2 1305 0
	stw 23,4(9)
	.loc 2 1306 0
	sth 20,8(9)
.LVL782:
.LBB2259:
.LBB2260:
	.loc 3 424 0
	lwz 0,20(28)
	stw 0,16(9)
	.loc 3 425 0
	lwz 0,24(28)
	stw 0,20(9)
	.loc 3 426 0
	lwz 0,28(28)
	stw 0,24(9)
.LBE2260:
.LBE2259:
	.loc 2 1310 0
	beq- 2,.L444
.LVL783:
.LBB2261:
	.loc 2 1353 0
	lwz 11,4(31)
.LBE2261:
	.loc 2 1312 0
	lwz 0,176(11)
	add 21,0,21
	lhz 0,44(21)
	andi. 11,0,4
	beq- 0,.L444
	.loc 2 1313 0
	addi 0,20,250
	sth 0,8(9)
.LVL784:
.L444:
	.loc 2 1317 0
	lbz 0,36(9)
	cmpwi 7,0,0
	bne- 7,.L445
	.loc 2 1320 0
	cmpwi 7,29,0
	.loc 2 1318 0
	stw 0,28(9)
	.loc 2 1319 0
	stw 29,32(9)
	.loc 2 1320 0
	beq- 7,.L458
	.loc 2 1321 0
	stw 9,28(29)
.L446:
.LVL785:
	.loc 2 1326 0
	li 0,1
	mr 29,9
	stb 0,36(9)
.LVL786:
.L445:
	.loc 2 1330 0
	lhz 0,44(22)
	andi. 9,0,4
.LVL787:
	bne- 0,.L430
	.loc 2 1333 0
	lha 23,4(28)
.LVL788:
	mr 3,31
	addi 5,28,20
	addi 6,22,32
	mr 4,23
	bl _ZNK10idAASLocal14AreaTravelTimeEiRK6idVec3S2_
	add 20,3,20
.LVL789:
	rlwinm 20,20,0,0xffff
.LVL790:
	.loc 2 1335 0
	beq- 4,.L447
	.loc 2 1335 0 is_stmt 0 discriminator 1
	cmplw 7,18,20
	ble- 7,.L430
.L447:
	.loc 2 1337 0 is_stmt 1
	lwz 11,240(1)
	mr 4,31
	mr 5,23
	lwz 9,0(11)
	mr 3,11
	lwz 0,8(9)
	mtctr 0
	bctrl
	cmpwi 7,3,0
	beq- 7,.L430
.LVL791:
	.loc 2 1339 0
	lha 0,4(28)
	.loc 2 1333 0
	mr 18,20
	.loc 2 1238 0
	lwz 28,40(28)
.LVL792:
	.loc 2 1339 0
	stw 0,76(1)
.LVL793:
	.loc 2 1238 0
	cmpwi 7,28,0
	bne+ 7,.L448
	b .L429
.LVL794:
.L466:
	lwz 31,60(1)
	mr 29,28
	.loc 2 1293 0
	lwz 0,52(1)
	mr 28,27
.LVL795:
	lwz 9,64(31)
	lwz 27,56(1)
.LVL796:
	lwz 30,64(1)
.LVL797:
	add 9,9,0
	b .L455
.LVL798:
.L420:
	.loc 2 1183 0
	lwz 11,68(1)
	.loc 2 1185 0
	li 3,0
.LVL799:
	.loc 2 1183 0
	stw 28,0(11)
.LVL800:
.LBB2262:
.LBB2263:
	.loc 3 424 0
	stfs 29,4(11)
	.loc 3 425 0
	stfs 30,8(11)
	.loc 3 426 0
	stfs 31,12(11)
.LBE2263:
.LBE2262:
	.loc 2 1185 0
	b .L422
.LVL801:
.L449:
	.loc 2 1346 0
	lwz 9,76(1)
	.loc 2 1352 0
	li 3,0
	.loc 2 1346 0
	cmpwi 7,9,0
	beq+ 7,.L422
	.loc 2 1347 0
	lwz 11,68(1)
	.loc 2 1348 0
	addi 3,1,8
	mr 4,31
	lwz 5,76(1)
	.loc 2 1347 0
	stw 9,0(11)
	.loc 2 1348 0
	lwz 9,0(31)
	lwz 0,40(9)
	mtctr 0
	bctrl
.LVL802:
.LBB2264:
.LBB2265:
	.loc 3 424 0
	lwz 11,68(1)
	lwz 0,8(1)
.LBE2265:
.LBE2264:
	.loc 2 1349 0
	li 3,1
.LBB2267:
.LBB2266:
	.loc 3 424 0
	stw 0,4(11)
	.loc 3 425 0
	lwz 0,12(1)
	stw 0,8(11)
	.loc 3 426 0
	lwz 0,16(1)
	stw 0,12(11)
.LBE2266:
.LBE2267:
	.loc 2 1349 0
	b .L422
.LVL803:
.L469:
	.loc 2 1227 0
	li 29,0
.LVL804:
	mr 27,19
	b .L427
.LVL805:
.L458:
	.loc 2 1320 0
	mr 19,9
	b .L446
.LBE2268:
	.cfi_endproc
.LFE2854:
	.size	_ZNK10idAASLocal15FindNearestGoalER9aasGoal_si6idVec3RKS2_iP13aasObstacle_siR13idAASCallback, .-_ZNK10idAASLocal15FindNearestGoalER9aasGoal_si6idVec3RKS2_iP13aasObstacle_siR13idAASCallback
	.section	.text.startup,"ax",@progbits
	.align 2
	.type	_GLOBAL__sub_I__ZN14idRoutingCacheC2Ei, @function
_GLOBAL__sub_I__ZN14idRoutingCacheC2Ei:
.LFB3143:
	.loc 2 1353 0
	.cfi_startproc
.LVL806:
.LBB2269:
.LBB2270:
	.file 8 "d:/Data/Nintendo/DoomGX/src/game/ai/../Game_local.h"
	.loc 8 694 0
	lis 9,_ZN6idMath8M_SEC2MSE@ha
	.loc 8 121 0
	lis 11,.LANCHOR0@ha
	.loc 8 694 0
	lfs 0,_ZN6idMath8M_SEC2MSE@l(9)
	.loc 8 121 0
	li 8,3
	la 9,.LANCHOR0@l(11)
.LBB2271:
.LBB2272:
	.loc 3 396 0
	li 0,0
.LBE2272:
.LBE2271:
	.loc 8 694 0
	fadds 0,0,0
	.loc 8 121 0
	stw 8,.LANCHOR0@l(11)
.LVL807:
.LBB2276:
.LBB2273:
	.loc 3 398 0
	lis 11,.LC20@ha
	.loc 3 396 0
	stw 0,4(9)
	.loc 3 397 0
	stw 0,8(9)
.LBE2273:
.LBE2276:
.LBB2277:
.LBB2278:
	.loc 4 825 0
	addi 10,9,16
.LBE2278:
.LBE2277:
.LBB2281:
.LBB2274:
	.loc 3 398 0
	lwz 0,.LC20@l(11)
.LBE2274:
.LBE2281:
.LBB2282:
.LBB2279:
	.loc 4 825 0
	fctiwz 0,0
.LBE2279:
.LBE2282:
.LBB2283:
.LBB2275:
	.loc 3 398 0
	stw 0,12(9)
.LVL808:
.LBE2275:
.LBE2283:
	.file 9 "d:/Data/Nintendo/DoomGX/src/game/ai/../Player.h"
	.loc 9 69 0
	li 0,10
.LBB2284:
.LBB2280:
	.loc 4 825 0
	stfiwx 0,0,10
.LVL809:
.LBE2280:
.LBE2284:
	.loc 9 69 0
	stw 0,20(9)
.LBE2270:
.LBE2269:
	.loc 2 1353 0
	blr
	.cfi_endproc
.LFE3143:
	.size	_GLOBAL__sub_I__ZN14idRoutingCacheC2Ei, .-_GLOBAL__sub_I__ZN14idRoutingCacheC2Ei
	.section	.ctors,"aw",@progbits
	.align 2
	.long	_GLOBAL__sub_I__ZN14idRoutingCacheC2Ei
	.weak	_ZTS9idWinding
	.section	.rodata._ZTS9idWinding,"aG",@progbits,_ZTS9idWinding,comdat
	.align 2
	.type	_ZTS9idWinding, @object
	.size	_ZTS9idWinding, 11
_ZTS9idWinding:
	.string	"9idWinding"
	.weak	_ZTI9idWinding
	.section	.sdata._ZTI9idWinding,"awG",@progbits,_ZTI9idWinding,comdat
	.align 2
	.type	_ZTI9idWinding, @object
	.size	_ZTI9idWinding, 8
_ZTI9idWinding:
	.long	_ZTVN10__cxxabiv117__class_type_infoE+8
	.long	_ZTS9idWinding
	.weak	_ZTS14idFixedWinding
	.section	.rodata._ZTS14idFixedWinding,"aG",@progbits,_ZTS14idFixedWinding,comdat
	.align 2
	.type	_ZTS14idFixedWinding, @object
	.size	_ZTS14idFixedWinding, 17
_ZTS14idFixedWinding:
	.string	"14idFixedWinding"
	.weak	_ZTI14idFixedWinding
	.section	.rodata._ZTI14idFixedWinding,"aG",@progbits,_ZTI14idFixedWinding,comdat
	.align 2
	.type	_ZTI14idFixedWinding, @object
	.size	_ZTI14idFixedWinding, 12
_ZTI14idFixedWinding:
	.long	_ZTVN10__cxxabiv120__si_class_type_infoE+8
	.long	_ZTS14idFixedWinding
	.long	_ZTI9idWinding
	.weak	_ZTV9idWinding
	.section	.rodata._ZTV9idWinding,"aG",@progbits,_ZTV9idWinding,comdat
	.align 3
	.type	_ZTV9idWinding, @object
	.size	_ZTV9idWinding, 24
_ZTV9idWinding:
	.long	0
	.long	_ZTI9idWinding
	.long	_ZN9idWindingD1Ev
	.long	_ZN9idWindingD0Ev
	.long	_ZN9idWinding5ClearEv
	.long	_ZN9idWinding10ReAllocateEib
	.weak	_ZTV14idFixedWinding
	.section	.rodata._ZTV14idFixedWinding,"aG",@progbits,_ZTV14idFixedWinding,comdat
	.align 3
	.type	_ZTV14idFixedWinding, @object
	.size	_ZTV14idFixedWinding, 24
_ZTV14idFixedWinding:
	.long	0
	.long	_ZTI14idFixedWinding
	.long	_ZN14idFixedWindingD1Ev
	.long	_ZN14idFixedWindingD0Ev
	.long	_ZN14idFixedWinding5ClearEv
	.long	_ZN14idFixedWinding10ReAllocateEib
	.weak	_ZN9idWindingD1Ev
	.set	_ZN9idWindingD1Ev,_ZN9idWindingD2Ev
	.weak	_ZN14idFixedWindingD1Ev
	.set	_ZN14idFixedWindingD1Ev,_ZN14idFixedWindingD2Ev
	.globl _ZN14idRoutingCacheC1Ei
	.set	_ZN14idRoutingCacheC1Ei,_ZN14idRoutingCacheC2Ei
	.globl _ZN14idRoutingCacheD1Ev
	.set	_ZN14idRoutingCacheD1Ev,_ZN14idRoutingCacheD2Ev
	.section	.rodata.cst4,"aM",@progbits,4
	.align 2
.LC1:
	.4byte	1056964608
.LC3:
	.4byte	1069547520
.LC4:
	.4byte	1059760811
.LC5:
	.4byte	1051372203
.LC6:
	.4byte	1065353216
.LC14:
	.4byte	1036831949
.LC18:
	.4byte	1501560836
.LC19:
	.4byte	1092616192
.LC20:
	.4byte	-997900288
	.section	.rodata.str1.4,"aMS",@progbits,1
	.align 2
.LC0:
	.string	"idRoutingCache::idRoutingCache( int size ) size %d\r\n"
	.zero	3
.LC7:
	.string	"i >= MAX_REACH_PER_AREA"
.LC8:
	.string	"%6d area cache (%d KB)\n"
.LC9:
	.string	"%6d portal cache (%d KB)\n"
	.zero	2
.LC10:
	.string	"%6d total cache (%d KB)\n"
	.zero	3
.LC11:
	.string	"%6d area travel times (%d KB)\n"
	.zero	1
.LC12:
	.string	"%6d area cache entries (%d KB)\n"
.LC13:
	.string	"%6d portal cache entries (%d KB)\n"
	.zero	2
.LC15:
	.string	"RouteToGoalArea: areaNum %d out of range\n"
	.zero	2
.LC16:
	.string	"RouteToGoalArea: goalAreaNum %d out of range\n"
	.section	".bss"
	.align 2
	.set	.LANCHOR0,. + 0
	.type	_ZL22NUM_RENDER_PORTAL_BITS, @object
	.size	_ZL22NUM_RENDER_PORTAL_BITS, 4
_ZL22NUM_RENDER_PORTAL_BITS:
	.zero	4
	.type	_ZL20DEFAULT_GRAVITY_VEC3, @object
	.size	_ZL20DEFAULT_GRAVITY_VEC3, 12
_ZL20DEFAULT_GRAVITY_VEC3:
	.zero	12
	.type	_ZL20CINEMATIC_SKIP_DELAY, @object
	.size	_ZL20CINEMATIC_SKIP_DELAY, 4
_ZL20CINEMATIC_SKIP_DELAY:
	.zero	4
	.type	_ZL26ASYNC_PLAYER_INV_AMMO_BITS, @object
	.size	_ZL26ASYNC_PLAYER_INV_AMMO_BITS, 4
_ZL26ASYNC_PLAYER_INV_AMMO_BITS:
	.zero	4
	.section	".text"
.Letext0:
	.file 10 "<built-in>"
	.file 11 "c:\\utils\\devkitpro\\devkitppc\\bin\\../lib/gcc/powerpc-eabi/4.6.3/include/stddef.h"
	.file 12 "c:\\utils\\devkitpro\\devkitppc\\bin\\../lib/gcc/powerpc-eabi/4.6.3/../../../../powerpc-eabi/include/sys/types.h"
	.file 13 "d:/Data/Nintendo/DoomGX/src/game/ai/../../idlib/../sys/sys_public.h"
	.file 14 "d:/Data/Nintendo/DoomGX/src/game/ai/../../idlib/../framework/Common.h"
	.file 15 "d:/Data/Nintendo/DoomGX/src/game/ai/../../idlib/../framework/CVarSystem.h"
	.file 16 "d:/Data/Nintendo/DoomGX/src/game/ai/../../idlib/../framework/FileSystem.h"
	.file 17 "d:/Data/Nintendo/DoomGX/src/game/ai/../../idlib/../idlib/Lib.h"
	.file 18 "d:/Data/Nintendo/DoomGX/src/game/ai/../../idlib/../idlib/CmdArgs.h"
	.file 19 "d:/Data/Nintendo/DoomGX/src/game/ai/../../idlib/../idlib/math/Random.h"
	.file 20 "d:/Data/Nintendo/DoomGX/src/game/ai/../../idlib/../idlib/math/Angles.h"
	.file 21 "d:/Data/Nintendo/DoomGX/src/game/ai/../../idlib/../idlib/math/Matrix.h"
	.file 22 "d:/Data/Nintendo/DoomGX/src/game/ai/../../idlib/../idlib/math/Quat.h"
	.file 23 "d:/Data/Nintendo/DoomGX/src/game/ai/../../idlib/../idlib/math/Rotation.h"
	.file 24 "d:/Data/Nintendo/DoomGX/src/game/ai/../../idlib/../idlib/math/Plane.h"
	.file 25 "d:/Data/Nintendo/DoomGX/src/game/ai/../../idlib/../idlib/math/Ode.h"
	.file 26 "d:/Data/Nintendo/DoomGX/src/game/ai/../../idlib/../idlib/bv/Sphere.h"
	.file 27 "d:/Data/Nintendo/DoomGX/src/game/ai/../../idlib/../idlib/bv/Box.h"
	.file 28 "d:/Data/Nintendo/DoomGX/src/game/ai/../../idlib/../idlib/bv/Frustum.h"
	.file 29 "d:/Data/Nintendo/DoomGX/src/game/ai/../../idlib/../idlib/geometry/DrawVert.h"
	.file 30 "d:/Data/Nintendo/DoomGX/src/game/ai/../../idlib/../idlib/geometry/JointTransform.h"
	.file 31 "d:/Data/Nintendo/DoomGX/src/game/ai/../../idlib/../idlib/geometry/Surface.h"
	.file 32 "d:/Data/Nintendo/DoomGX/src/game/ai/../../idlib/../idlib/geometry/TraceModel.h"
	.file 33 "d:/Data/Nintendo/DoomGX/src/game/ai/../../idlib/../idlib/Str.h"
	.file 34 "d:/Data/Nintendo/DoomGX/src/game/ai/../../idlib/../idlib/Token.h"
	.file 35 "d:/Data/Nintendo/DoomGX/src/game/ai/../../idlib/../idlib/Lexer.h"
	.file 36 "d:/Data/Nintendo/DoomGX/src/game/ai/../../idlib/../framework/File.h"
	.file 37 "d:/Data/Nintendo/DoomGX/src/game/ai/../../idlib/../idlib/Parser.h"
	.file 38 "d:/Data/Nintendo/DoomGX/src/game/ai/../../idlib/../idlib/containers/HashIndex.h"
	.file 39 "d:/Data/Nintendo/DoomGX/src/game/ai/../../idlib/../idlib/containers/StrList.h"
	.file 40 "d:/Data/Nintendo/DoomGX/src/game/ai/../../idlib/../idlib/containers/StrPool.h"
	.file 41 "d:/Data/Nintendo/DoomGX/src/game/ai/../../idlib/../idlib/containers/PlaneSet.h"
	.file 42 "d:/Data/Nintendo/DoomGX/src/game/ai/../../idlib/../idlib/Dict.h"
	.file 43 "d:/Data/Nintendo/DoomGX/src/game/ai/../../idlib/../idlib/LangDict.h"
	.file 44 "d:/Data/Nintendo/DoomGX/src/game/ai/../../idlib/../idlib/BitMsg.h"
	.file 45 "d:/Data/Nintendo/DoomGX/src/game/ai/../../idlib/../idlib/MapFile.h"
	.file 46 "d:/Data/Nintendo/DoomGX/src/game/ai/../../idlib/../framework/CmdSystem.h"
	.file 47 "d:/Data/Nintendo/DoomGX/src/game/ai/../../idlib/../framework/UsercmdGen.h"
	.file 48 "d:/Data/Nintendo/DoomGX/src/game/ai/../../idlib/../framework/DeclManager.h"
	.file 49 "d:/Data/Nintendo/DoomGX/src/game/ai/../../idlib/../framework/DeclParticle.h"
	.file 50 "d:/Data/Nintendo/DoomGX/src/game/ai/../../idlib/../renderer/RenderWorld.h"
	.file 51 "d:/Data/Nintendo/DoomGX/src/game/ai/../../idlib/../renderer/Cinematic.h"
	.file 52 "d:/Data/Nintendo/DoomGX/src/game/ai/../../idlib/../renderer/Model.h"
	.file 53 "d:/Data/Nintendo/DoomGX/src/game/ai/../../idlib/../renderer/RenderSystem.h"
	.file 54 "d:/Data/Nintendo/DoomGX/src/game/ai/../../idlib/../sound/sound.h"
	.file 55 "d:/Data/Nintendo/DoomGX/src/game/ai/../../idlib/../ui/UserInterface.h"
	.file 56 "d:/Data/Nintendo/DoomGX/src/game/ai/../../idlib/../cm/CollisionModel.h"
	.file 57 "d:/Data/Nintendo/DoomGX/src/game/ai/../../idlib/../game/Game.h"
	.file 58 "d:/Data/Nintendo/DoomGX/src/game/ai/../../idlib/../framework/async/NetworkSystem.h"
	.file 59 "d:/Data/Nintendo/DoomGX/src/game/ai/../../idlib/../renderer/ModelManager.h"
	.file 60 "d:/Data/Nintendo/DoomGX/src/game/ai/../../idlib/../tools/compilers/aas/AASFileManager.h"
	.file 61 "d:/Data/Nintendo/DoomGX/src/game/ai/../../idlib/../framework/Session.h"
	.file 62 "d:/Data/Nintendo/DoomGX/src/game/ai/../../idlib/../ui/ListGUI.h"
	.file 63 "d:/Data/Nintendo/DoomGX/src/game/ai/AAS.h"
	.file 64 "d:/Data/Nintendo/DoomGX/src/game/ai/AAS_local.h"
	.file 65 "d:/Data/Nintendo/DoomGX/src/game/ai/../gamesys/Event.h"
	.file 66 "d:/Data/Nintendo/DoomGX/src/game/ai/../../idlib/../framework/Console.h"
	.file 67 "d:/Data/Nintendo/DoomGX/src/game/ai/../../idlib/../idlib/math/Curve.h"
	.file 68 "d:/Data/Nintendo/DoomGX/src/game/ai/../../idlib/../idlib/math/Simd.h"
	.file 69 "d:/Data/Nintendo/DoomGX/src/game/ai/../../idlib/../framework/BuildVersion.h"
	.file 70 "d:/Data/Nintendo/DoomGX/src/game/ai/../../idlib/precompiled.h"
	.file 71 "d:/Data/Nintendo/DoomGX/src/game/ai/../../idlib/../renderer/Material.h"
	.file 72 "d:/Data/Nintendo/DoomGX/src/game/ai/../../idlib/../framework/EventLoop.h"
	.file 73 "d:/Data/Nintendo/DoomGX/src/game/ai/../../idlib/../framework/EditField.h"
	.file 74 "d:/Data/Nintendo/DoomGX/src/game/ai/../../idlib/../framework/async/AsyncNetwork.h"
	.file 75 "d:/Data/Nintendo/DoomGX/src/game/ai/../../idlib/../framework/async/AsyncServer.h"
	.file 76 "d:/Data/Nintendo/DoomGX/src/game/ai/../gamesys/SaveGame.h"
	.file 77 "d:/Data/Nintendo/DoomGX/src/game/ai/../anim/Anim.h"
	.file 78 "d:/Data/Nintendo/DoomGX/src/game/ai/../MultiplayerGame.h"
	.file 79 "d:/Data/Nintendo/DoomGX/src/game/ai/../Entity.h"
	.file 80 "d:/Data/Nintendo/DoomGX/src/game/ai/../AFEntity.h"
	.file 81 "d:/Data/Nintendo/DoomGX/src/game/ai/../Weapon.h"
	.file 82 "d:/Data/Nintendo/DoomGX/src/game/ai/../ai/AI.h"
	.file 83 "d:/Data/Nintendo/DoomGX/src/game/ai/../script/Script_Compiler.h"
	.file 84 "d:/Data/Nintendo/DoomGX/src/game/ai/../script/Script_Thread.h"