	.file	"Actor.cpp"
	.section	".text"
.Ltext0:
	.section	.text._ZN14idFixedWinding5ClearEv,"axG",@progbits,_ZN14idFixedWinding5ClearEv,comdat
	.align 2
	.weak	_ZN14idFixedWinding5ClearEv
	.type	_ZN14idFixedWinding5ClearEv, @function
_ZN14idFixedWinding5ClearEv:
.LFB1502:
	.file 1 "d:/Data/Nintendo/DoomGX/src/game/../idlib/../idlib/geometry/Winding.h"
	.loc 1 398 0
	.cfi_startproc
.LVL0:
	.loc 1 399 0
	li 0,0
	.loc 1 400 0
	.loc 1 399 0
	stw 0,4(3)
	.loc 1 400 0
	blr
	.cfi_endproc
.LFE1502:
	.size	_ZN14idFixedWinding5ClearEv, .-_ZN14idFixedWinding5ClearEv
	.section	".text"
	.align 2
	.globl _ZNK7idActor7GetTypeEv
	.type	_ZNK7idActor7GetTypeEv, @function
_ZNK7idActor7GetTypeEv:
.LFB2833:
	.file 2 "d:/Data/Nintendo/DoomGX/src/game/Actor.cpp"
	.loc 2 368 0
	.cfi_startproc
.LVL1:
	.loc 2 368 0
	lis 3,.LANCHOR0@ha
.LVL2:
	la 3,.LANCHOR0@l(3)
	blr
	.cfi_endproc
.LFE2833:
	.size	_ZNK7idActor7GetTypeEv, .-_ZNK7idActor7GetTypeEv
	.align 2
	.globl _ZNK7idActor21GetDefaultSurfaceTypeEv
	.type	_ZNK7idActor21GetDefaultSurfaceTypeEv, @function
_ZNK7idActor21GetDefaultSurfaceTypeEv:
.LFB2850:
	.loc 2 1043 0
	.cfi_startproc
.LVL3:
	.loc 2 1045 0
	li 3,3
.LVL4:
	blr
	.cfi_endproc
.LFE2850:
	.size	_ZNK7idActor21GetDefaultSurfaceTypeEv, .-_ZNK7idActor21GetDefaultSurfaceTypeEv
	.align 2
	.globl _ZNK7idActor34ShouldConstructScriptObjectAtSpawnEv
	.type	_ZNK7idActor34ShouldConstructScriptObjectAtSpawnEv, @function
_ZNK7idActor34ShouldConstructScriptObjectAtSpawnEv:
.LFB2858:
	.loc 2 1240 0
	.cfi_startproc
.LVL5:
	.loc 2 1242 0
	li 3,0
.LVL6:
	blr
	.cfi_endproc
.LFE2858:
	.size	_ZNK7idActor34ShouldConstructScriptObjectAtSpawnEv, .-_ZNK7idActor34ShouldConstructScriptObjectAtSpawnEv
	.align 2
	.globl _ZNK7idActor8OnLadderEv
	.type	_ZNK7idActor8OnLadderEv, @function
_ZNK7idActor8OnLadderEv:
.LFB2896:
	.loc 2 1858 0
	.cfi_startproc
.LVL7:
	.loc 2 1860 0
	li 3,0
.LVL8:
	blr
	.cfi_endproc
.LFE2896:
	.size	_ZNK7idActor8OnLadderEv, .-_ZNK7idActor8OnLadderEv
	.align 2
	.globl _ZN7idActor20Event_EnableEyeFocusEv
	.type	_ZN7idActor20Event_EnableEyeFocusEv, @function
_ZN7idActor20Event_EnableEyeFocusEv:
.LFB2915:
	.loc 2 2434 0
	.cfi_startproc
.LVL9:
	.loc 2 2435 0
	li 0,1
	.loc 2 2436 0
	lis 10,gameLocal@ha
	.loc 2 2434 0
	stwu 1,-32(1)
.LCFI0:
	.cfi_def_cfa_offset 32
	.loc 2 2436 0
	la 10,gameLocal@l(10)
	.loc 2 2435 0
	stb 0,3921(3)
.LBB1990:
.LBB1991:
.LBB1992:
.LBB1993:
	.file 3 "d:/Data/Nintendo/DoomGX/src/game/../idlib/../idlib/math/Random.h"
	.loc 3 71 0
	addis 11,10,0x1
	lis 9,0x1
.LBE1993:
.LBE1992:
.LBE1991:
.LBE1990:
	.loc 2 2436 0
	lwz 7,3684(3)
.LBB2012:
.LBB2000:
.LBB1997:
.LBB1994:
	.loc 3 71 0
	lwz 0,-32064(11)
	ori 9,9,3533
.LBE1994:
.LBE1997:
.LBE2000:
.LBE2012:
	.loc 2 2436 0
	addis 10,10,0x25
.LBB2013:
.LBB2001:
.LBB1998:
.LBB1995:
	.loc 3 71 0
	mullw 9,9,0
.LBE1995:
.LBE1998:
.LBE2001:
.LBE2013:
	.loc 2 2436 0
	lis 0,0x4330
.LBB2014:
.LBB2002:
.LBB1999:
.LBB1996:
	.loc 3 71 0
	addi 9,9,1
	stw 9,-32064(11)
	.loc 3 72 0
	rlwinm 9,9,0,17,31
.LBE1996:
.LBE1999:
.LBE2002:
.LBE2014:
	.loc 2 2436 0
	lwz 11,2004(10)
.LBB2015:
.LBB2003:
	.loc 3 83 0
	xoris 9,9,0x8000
.LBE2003:
.LBE2015:
	.loc 2 2436 0
	lwz 10,3684(3)
	lwz 8,3688(3)
	add 11,11,7
.LBB2016:
.LBB2004:
	.loc 3 83 0
	stw 9,28(1)
.LBE2004:
.LBE2016:
	.loc 2 2436 0
	xoris 11,11,0x8000
.LBB2017:
.LBB2005:
	.loc 3 83 0
	stw 0,24(1)
.LBE2005:
.LBE2017:
	.loc 2 2436 0
	subf 9,10,8
	lis 10,.LC1@ha
	xoris 9,9,0x8000
.LBB2018:
.LBB2006:
	.loc 3 83 0
	lfd 12,24(1)
.LBE2006:
.LBE2018:
	.loc 2 2436 0
	addi 3,3,3680
.LVL10:
	lfs 0,.LC1@l(10)
	stw 9,20(1)
.LBB2019:
.LBB2007:
	.loc 3 83 0
	lis 9,.LC2@ha
.LBE2007:
.LBE2019:
	.loc 2 2436 0
	stw 11,12(1)
.LBB2020:
.LBB2008:
	.loc 3 83 0
	fsub 12,12,0
.LBE2008:
.LBE2020:
	.loc 2 2436 0
	stw 0,8(1)
	stw 0,16(1)
	lfd 13,8(1)
.LBB2021:
.LBB2009:
	.loc 3 83 0
	frsp 12,12
.LBE2009:
.LBE2021:
	.loc 2 2436 0
	lfd 11,16(1)
	fsub 13,13,0
	fsub 0,11,0
.LBB2022:
.LBB2010:
	.loc 3 83 0
	lfs 11,.LC2@l(9)
.LBE2010:
.LBE2022:
	.loc 2 2436 0
	frsp 13,13
.LVL11:
	frsp 0,0
.LBB2023:
.LBB2011:
	.loc 3 83 0
	fmuls 12,12,11
.LBE2011:
.LBE2023:
	.loc 2 2436 0
	fmadds 0,0,12,13
	fctiwz 0,0
	stfiwx 0,0,3
	.loc 2 2437 0
	addi 1,1,32
.LCFI1:
	.cfi_def_cfa_offset 0
	blr
	.cfi_endproc
.LFE2915:
	.size	_ZN7idActor20Event_EnableEyeFocusEv, .-_ZN7idActor20Event_EnableEyeFocusEv
	.align 2
	.globl _ZN7idActor17Event_PreventPainEf
	.type	_ZN7idActor17Event_PreventPainEf, @function
_ZN7idActor17Event_PreventPainEf:
.LFB2922:
	.loc 2 2505 0
	.cfi_startproc
.LVL12:
	.loc 2 2506 0
	lis 9,_ZN6idMath8M_SEC2MSE@ha
	.loc 2 2505 0
	stwu 1,-16(1)
.LCFI2:
	.cfi_def_cfa_offset 16
	.loc 2 2506 0
	lfs 0,_ZN6idMath8M_SEC2MSE@l(9)
	lis 9,gameLocal+2426836@ha
.LBB2024:
.LBB2025:
	.file 4 "d:/Data/Nintendo/DoomGX/src/game/../idlib/../idlib/math/Math.h"
	.loc 4 825 0
	addi 11,1,8
.LBE2025:
.LBE2024:
	.loc 2 2506 0
	lwz 9,gameLocal+2426836@l(9)
	fmuls 0,1,0
.LBB2027:
.LBB2026:
	.loc 4 825 0
	fctiwz 0,0
	stfiwx 0,0,11
	lwz 0,8(1)
.LBE2026:
.LBE2027:
	.loc 2 2506 0
	add 0,9,0
	stw 0,3924(3)
	.loc 2 2507 0
	addi 1,1,16
.LCFI3:
	.cfi_def_cfa_offset 0
	blr
	.cfi_endproc
.LFE2922:
	.size	_ZN7idActor17Event_PreventPainEf, .-_ZN7idActor17Event_PreventPainEf
	.align 2
	.globl _ZN7idActor17Event_DisablePainEv
	.type	_ZN7idActor17Event_DisablePainEv, @function
_ZN7idActor17Event_DisablePainEv:
.LFB2923:
	.loc 2 2514 0
	.cfi_startproc
.LVL13:
	.loc 2 2515 0
	li 0,0
	.loc 2 2516 0
	.loc 2 2515 0
	stb 0,3920(3)
	.loc 2 2516 0
	blr
	.cfi_endproc
.LFE2923:
	.size	_ZN7idActor17Event_DisablePainEv, .-_ZN7idActor17Event_DisablePainEv
	.align 2
	.globl _ZN7idActor16Event_EnablePainEv
	.type	_ZN7idActor16Event_EnablePainEv, @function
_ZN7idActor16Event_EnablePainEv:
.LFB2924:
	.loc 2 2523 0
	.cfi_startproc
.LVL14:
	.loc 2 2524 0
	li 0,1
	stb 0,3920(3)
	.loc 2 2525 0
	blr
	.cfi_endproc
.LFE2924:
	.size	_ZN7idActor16Event_EnablePainEv, .-_ZN7idActor16Event_EnablePainEv
	.section	.text._ZN9idWinding5ClearEv,"axG",@progbits,_ZN9idWinding5ClearEv,comdat
	.align 2
	.weak	_ZN9idWinding5ClearEv
	.type	_ZN9idWinding5ClearEv, @function
_ZN9idWinding5ClearEv:
.LFB1473:
	.loc 1 249 0
	.cfi_startproc
.LVL15:
	mflr 0
	stwu 1,-16(1)
.LCFI4:
	.cfi_def_cfa_offset 16
	.cfi_register 65, 0
	stw 31,12(1)
	mr 31,3
	.cfi_offset 31, -4
	stw 0,20(1)
	.loc 1 250 0
	li 0,0
	.cfi_offset 65, 4
	.loc 1 251 0
	lwz 3,8(3)
.LVL16:
	.loc 1 250 0
	stw 0,4(31)
	.loc 1 251 0
	cmpwi 7,3,0
	beq- 7,.L11
	.loc 1 251 0 is_stmt 0 discriminator 1
	bl _ZdaPv
.L11:
	.loc 1 252 0 is_stmt 1
	li 0,0
	stw 0,8(31)
	.loc 1 253 0
	lwz 0,20(1)
	lwz 31,12(1)
.LVL17:
	mtlr 0
	addi 1,1,16
.LCFI5:
	.cfi_def_cfa_offset 0
	.cfi_restore 31
	blr
	.cfi_endproc
.LFE1473:
	.size	_ZN9idWinding5ClearEv, .-_ZN9idWinding5ClearEv
	.section	.text._ZN9idWindingD2Ev,"axG",@progbits,_ZN9idWindingD5Ev,comdat
	.align 2
	.weak	_ZN9idWindingD2Ev
	.type	_ZN9idWindingD2Ev, @function
_ZN9idWindingD2Ev:
.LFB1461:
	.loc 1 183 0
	.cfi_startproc
.LVL18:
	mflr 0
	stwu 1,-16(1)
.LCFI6:
	.cfi_def_cfa_offset 16
	.cfi_register 65, 0
.LBB2029:
	lis 9,_ZTV9idWinding+8@ha
.LBE2029:
	stw 31,12(1)
	mr 31,3
	.cfi_offset 31, -4
	stw 0,20(1)
.LBB2030:
	.loc 1 183 0
	la 0,_ZTV9idWinding+8@l(9)
	.cfi_offset 65, 4
	.loc 1 184 0
	lwz 3,8(3)
.LVL19:
	.loc 1 183 0
	stw 0,0(31)
	.loc 1 184 0
	cmpwi 7,3,0
	beq- 7,.L14
	.loc 1 184 0 is_stmt 0 discriminator 1
	bl _ZdaPv
.L14:
	.loc 1 185 0 is_stmt 1
	li 0,0
	stw 0,8(31)
.LBE2030:
	.loc 1 186 0
	lwz 0,20(1)
	lwz 31,12(1)
.LVL20:
	mtlr 0
	addi 1,1,16
.LCFI7:
	.cfi_def_cfa_offset 0
	.cfi_restore 31
	blr
	.cfi_endproc
.LFE1461:
	.size	_ZN9idWindingD2Ev, .-_ZN9idWindingD2Ev
	.section	".text"
	.align 2
	.globl _ZN7idActor13Event_GetHeadEv
	.type	_ZN7idActor13Event_GetHeadEv, @function
_ZN7idActor13Event_GetHeadEv:
.LFB2953:
	.loc 2 3281 0
	.cfi_startproc
.LVL21:
	mflr 0
	stwu 1,-8(1)
.LCFI8:
	.cfi_def_cfa_offset 8
	.cfi_register 65, 0
.LBB2031:
.LBB2032:
	.file 5 "d:/Data/Nintendo/DoomGX/src/game/Game_local.h"
	.loc 5 635 0
	lis 9,gameLocal@ha
	la 9,gameLocal@l(9)
.LBE2032:
.LBE2031:
	.loc 2 3281 0
	stw 0,12(1)
.LBB2034:
.LBB2033:
	.loc 5 634 0
	lwz 0,2424(3)
	.cfi_offset 65, 4
	.loc 5 638 0
	li 3,0
.LVL22:
	.loc 5 634 0
	rlwinm 11,0,0,20,31
.LVL23:
	.loc 5 635 0
	srawi 0,0,12
	addi 10,11,4228
	slwi 10,10,2
	add 10,9,10
	lwz 10,4(10)
	cmpw 7,10,0
	bne+ 7,.L17
	.loc 5 636 0
	addi 11,11,132
.LVL24:
	slwi 11,11,2
.LVL25:
	add 9,9,11
	lwz 3,4(9)
.L17:
.LBE2033:
.LBE2034:
	.loc 2 3282 0
	bl _ZN8idThread12ReturnEntityEP8idEntity
	.loc 2 3283 0
	lwz 0,12(1)
	addi 1,1,8
.LCFI9:
	.cfi_def_cfa_offset 0
	mtlr 0
	blr
	.cfi_endproc
.LFE2953:
	.size	_ZN7idActor13Event_GetHeadEv, .-_ZN7idActor13Event_GetHeadEv
	.align 2
	.globl _ZN7idActor14Event_GetStateEv
	.type	_ZN7idActor14Event_GetStateEv, @function
_ZN7idActor14Event_GetStateEv:
.LFB2952:
	.loc 2 3268 0
	.cfi_startproc
.LVL26:
	mflr 0
	stwu 1,-8(1)
.LCFI10:
	.cfi_def_cfa_offset 8
	.cfi_register 65, 0
	stw 0,12(1)
	.loc 2 3269 0
	lwz 3,2444(3)
.LVL27:
	cmpwi 7,3,0
	beq- 7,.L20
	.cfi_offset 65, 4
	.loc 2 3270 0
	bl _ZNK10function_t4NameEv
	bl _ZN8idThread12ReturnStringEPKc
	.loc 2 3274 0
	lwz 0,12(1)
	addi 1,1,8
	.cfi_remember_state
.LCFI11:
	.cfi_def_cfa_offset 0
	mtlr 0
	blr
.L20:
.LCFI12:
	.cfi_restore_state
	.loc 2 3272 0
	lis 3,.LC3@ha
	la 3,.LC3@l(3)
	bl _ZN8idThread12ReturnStringEPKc
	.loc 2 3274 0
	lwz 0,12(1)
	addi 1,1,8
.LCFI13:
	.cfi_def_cfa_offset 0
	mtlr 0
	blr
	.cfi_endproc
.LFE2952:
	.size	_ZN7idActor14Event_GetStateEv, .-_ZN7idActor14Event_GetStateEv
	.align 2
	.globl _ZN7idActor17Event_GetPainAnimEv
	.type	_ZN7idActor17Event_GetPainAnimEv, @function
_ZN7idActor17Event_GetPainAnimEv:
.LFB2925:
	.loc 2 2532 0
	.cfi_startproc
.LVL28:
	mflr 0
	stwu 1,-8(1)
.LCFI14:
	.cfi_def_cfa_offset 8
	.cfi_register 65, 0
	stw 0,12(1)
	.loc 2 2533 0
	lwz 0,3644(3)
	.cfi_offset 65, 4
	cmpwi 7,0,0
	beq- 7,.L25
.LVL29:
	.loc 2 2536 0
	lwz 3,3648(3)
.LVL30:
	bl _ZN8idThread12ReturnStringEPKc
	.loc 2 2538 0
	lwz 0,12(1)
	addi 1,1,8
	.cfi_remember_state
.LCFI15:
	.cfi_def_cfa_offset 0
	mtlr 0
	blr
.LVL31:
.L25:
.LCFI16:
	.cfi_restore_state
	.loc 2 2534 0
	lis 3,.LC4@ha
.LVL32:
	la 3,.LC4@l(3)
	bl _ZN8idThread12ReturnStringEPKc
	.loc 2 2538 0
	lwz 0,12(1)
	addi 1,1,8
.LCFI17:
	.cfi_def_cfa_offset 0
	mtlr 0
	blr
	.cfi_endproc
.LFE2925:
	.size	_ZN7idActor17Event_GetPainAnimEv, .-_ZN7idActor17Event_GetPainAnimEv
	.align 2
	.globl _ZN7idActor15Event_StopSoundEii
	.type	_ZN7idActor15Event_StopSoundEii, @function
_ZN7idActor15Event_StopSoundEii:
.LFB2949:
	.loc 2 3228 0
	.cfi_startproc
.LVL33:
.LBB2035:
.LBB2036:
	.loc 2 3229 0
	cmpwi 7,4,1
.LBE2036:
.LBE2035:
	.loc 2 3228 0
	mflr 0
	stwu 1,-24(1)
.LCFI18:
	.cfi_def_cfa_offset 24
	.cfi_register 65, 0
	stw 29,12(1)
	mr 29,3
	.cfi_offset 29, -12
	stw 31,20(1)
	mr 31,4
	.cfi_offset 31, -4
	stw 0,28(1)
	stw 30,16(1)
.LBB2047:
.LBB2044:
	.loc 2 3229 0
	beq- 7,.L27
	.cfi_offset 30, -8
	.cfi_offset 65, 4
.L31:
.LBB2037:
.LBB2038:
.LBB2039:
	.loc 5 635 0
	cntlzw 30,5
	srwi 30,30,5
	xori 30,30,1
.LVL34:
.L28:
.LBE2039:
.LBE2038:
.LBE2037:
.LBE2044:
	.loc 2 3235 0
	mr 3,29
	mr 4,31
.LVL35:
	mr 5,30
	bl _ZN8idEntity9StopSoundEib
.LBE2047:
	.loc 2 3236 0
	lwz 0,28(1)
	lwz 29,12(1)
.LVL36:
	mtlr 0
	lwz 30,16(1)
	lwz 31,20(1)
.LVL37:
	addi 1,1,24
	.cfi_remember_state
.LCFI19:
	.cfi_def_cfa_offset 0
	.cfi_restore 31
	.cfi_restore 30
	.cfi_restore 29
	blr
.LVL38:
.L27:
.LCFI20:
	.cfi_restore_state
.LBB2048:
.LBB2045:
.LBB2042:
.LBB2041:
.LBB2040:
	.loc 5 634 0
	lwz 0,2424(3)
	.loc 5 635 0
	lis 9,gameLocal@ha
	la 9,gameLocal@l(9)
	.loc 5 634 0
	rlwinm 11,0,0,20,31
.LVL39:
	.loc 5 635 0
	srawi 0,0,12
	addi 10,11,4228
	slwi 10,10,2
	add 10,9,10
	lwz 10,4(10)
	cmpw 7,10,0
	bne+ 7,.L31
	.loc 5 636 0
	addi 11,11,132
.LVL40:
	slwi 11,11,2
.LVL41:
	add 9,9,11
	lwz 3,4(9)
.LVL42:
.LBE2040:
.LBE2041:
	.loc 2 3231 0
	cmpwi 7,3,0
	beq- 7,.L32
	.loc 2 3232 0
	cntlzw 30,5
	srwi 30,30,5
	xori 30,30,1
	mr 5,30
.LVL43:
	bl _ZN8idEntity9StopSoundEib
.LVL44:
.LBE2042:
.LBE2045:
	.loc 2 3235 0
	mr 3,29
	mr 4,31
	mr 5,30
	bl _ZN8idEntity9StopSoundEib
.LBE2048:
	.loc 2 3236 0
	lwz 0,28(1)
	lwz 29,12(1)
.LVL45:
	mtlr 0
	lwz 30,16(1)
	lwz 31,20(1)
.LVL46:
	addi 1,1,24
	.cfi_remember_state
	.cfi_restore 29
	.cfi_restore 30
	.cfi_restore 31
.LCFI21:
	.cfi_def_cfa_offset 0
	blr
.LVL47:
.L32:
.LCFI22:
	.cfi_restore_state
.LBB2049:
.LBB2046:
.LBB2043:
	.loc 2 3231 0
	cntlzw 5,5
.LVL48:
	srwi 5,5,5
	xori 30,5,1
	b .L28
.LBE2043:
.LBE2046:
.LBE2049:
	.cfi_endproc
.LFE2949:
	.size	_ZN7idActor15Event_StopSoundEii, .-_ZN7idActor15Event_StopSoundEii
	.align 2
	.globl _ZN7idActor15Event_NextEnemyEP8idEntity
	.type	_ZN7idActor15Event_NextEnemyEP8idEntity, @function
_ZN7idActor15Event_NextEnemyEP8idEntity:
.LFB2947:
	.loc 2 3187 0
	.cfi_startproc
.LVL49:
	stwu 1,-16(1)
.LCFI23:
	.cfi_def_cfa_offset 16
	mflr 0
	stw 31,12(1)
.LBB2050:
	.loc 2 3190 0
	mr. 31,4
	.cfi_offset 31, -4
	.cfi_register 65, 0
.LBE2050:
	.loc 2 3187 0
	stw 30,8(1)
	mr 30,3
	.cfi_offset 30, -8
	stw 0,20(1)
.LBB2068:
	.loc 2 3190 0
	beq- 0,.L34
	.cfi_offset 65, 4
	.loc 2 3190 0 is_stmt 0 discriminator 1
	cmpw 7,3,31
	beq- 7,.L34
.LVL50:
.LBB2051:
.LBB2052:
	.file 6 "d:/Data/Nintendo/DoomGX/src/game/gamesys/Class.h"
	.loc 6 340 0 is_stmt 1
	lwz 9,0(31)
	mr 3,31
.LVL51:
	lwz 0,0(9)
	mtctr 0
	bctrl
.LVL52:
.LBE2052:
	.loc 2 3193 0
	lis 9,.LANCHOR0@ha
	la 9,.LANCHOR0@l(9)
	.loc 2 3283 0
	lwz 0,56(3)
.LBB2057:
.LBB2053:
.LBB2054:
	.loc 6 311 0
	lwz 11,56(9)
	cmpw 7,0,11
	bge- 7,.L52
.L38:
.LBE2054:
.LBE2053:
.LBE2057:
.LBE2051:
	.loc 2 3194 0
	lis 3,gameLocal@ha
.LVL53:
	lis 4,.LC6@ha
	lwz 5,72(31)
	la 3,gameLocal@l(3)
	la 4,.LC6@l(4)
	crxor 6,6,6
	bl _ZNK11idGameLocal5ErrorEPKcz
.L44:
.LVL54:
	.loc 2 3198 0
	lwz 9,2304(31)
	addi 0,30,2320
	cmpw 7,9,0
	beq- 7,.L50
	.loc 2 3199 0
	lis 3,gameLocal@ha
	lis 4,.LC5@ha
	lwz 5,72(31)
	la 3,gameLocal@l(3)
	lwz 6,72(30)
	la 4,.LC5@l(4)
	crxor 6,6,6
	bl _ZNK11idGameLocal5ErrorEPKcz
.LVL55:
.L50:
	.loc 2 3203 0 discriminator 1
	cmpwi 7,31,0
	beq- 7,.L41
.L53:
	.loc 2 3204 0
	lwz 0,192(31)
	andis. 9,0,4096
	beq- 0,.L42
	.loc 2 3283 0
	lwz 9,2308(31)
	lwz 0,2304(31)
.LBB2059:
.LBB2060:
	.file 7 "d:/Data/Nintendo/DoomGX/src/game/../idlib/../idlib/containers/LinkList.h"
	.loc 7 268 0
	cmpwi 7,9,0
	cmpw 6,9,0
	beq- 7,.L41
	beq- 6,.L41
	.loc 7 271 0
	lwz 31,12(9)
.LVL56:
.L54:
.LBE2060:
.LBE2059:
	.loc 2 3203 0
	cmpwi 7,31,0
	bne+ 7,.L53
.L41:
	.loc 2 3210 0
	li 3,0
	bl _ZN8idThread12ReturnEntityEP8idEntity
.LBE2068:
	.loc 2 3211 0
	lwz 0,20(1)
	lwz 30,8(1)
.LVL57:
	mtlr 0
	lwz 31,12(1)
.LVL58:
	addi 1,1,16
	.cfi_remember_state
.LCFI24:
	.cfi_def_cfa_offset 0
	.cfi_restore 31
	.cfi_restore 30
	blr
.LVL59:
.L52:
.LCFI25:
	.cfi_restore_state
.LBB2069:
.LBB2062:
.LBB2058:
.LBB2056:
.LBB2055:
	.loc 6 311 0
	lwz 9,60(9)
	cmpw 7,0,9
	bgt- 7,.L38
	b .L44
.LVL60:
.L42:
.LBE2055:
.LBE2056:
.LBE2058:
.LBE2062:
	.loc 2 3205 0
	mr 3,31
	bl _ZN8idThread12ReturnEntityEP8idEntity
.LBE2069:
	.loc 2 3211 0
	lwz 0,20(1)
	lwz 30,8(1)
.LVL61:
	mtlr 0
	lwz 31,12(1)
.LVL62:
	addi 1,1,16
	.cfi_remember_state
	.cfi_restore 30
	.cfi_restore 31
.LCFI26:
	.cfi_def_cfa_offset 0
	blr
.LVL63:
.L34:
.LCFI27:
	.cfi_restore_state
.LBB2070:
	.loc 2 3283 0
	lwz 9,2324(30)
.LBB2063:
.LBB2064:
	.loc 7 269 0
	li 31,0
.LBE2064:
.LBE2063:
	.loc 2 3283 0
	lwz 0,2320(30)
.LBB2066:
.LBB2065:
	.loc 7 268 0
	cmpwi 7,9,0
	beq- 7,.L50
	cmpw 7,0,9
	beq- 7,.L50
.LBE2065:
.LBE2066:
.LBB2067:
.LBB2061:
	.loc 7 271 0
	lwz 31,12(9)
	b .L54
.LBE2061:
.LBE2067:
.LBE2070:
	.cfi_endproc
.LFE2947:
	.size	_ZN7idActor15Event_NextEnemyEP8idEntity, .-_ZN7idActor15Event_NextEnemyEP8idEntity
	.align 2
	.globl _ZN7idActor25Event_SetSyncedAnimWeightEiif
	.type	_ZN7idActor25Event_SetSyncedAnimWeightEiif, @function
_ZN7idActor25Event_SetSyncedAnimWeightEiif:
.LFB2931:
	.loc 2 2840 0
	.cfi_startproc
.LVL64:
	mflr 0
	stwu 1,-32(1)
.LCFI28:
	.cfi_def_cfa_offset 32
	.cfi_register 65, 0
	stfd 31,24(1)
	fmr 31,1
	.cfi_offset 63, -8
	stw 29,12(1)
.LBB2071:
.LBB2072:
.LBB2073:
	.loc 5 638 0
	li 29,0
	.cfi_offset 29, -20
.LBE2073:
.LBE2072:
.LBE2071:
	.loc 2 2840 0
	stw 30,16(1)
	mr 30,5
	.cfi_offset 30, -16
	stw 31,20(1)
	mr 31,3
	.cfi_offset 31, -12
.LVL65:
	stw 0,36(1)
	stw 28,8(1)
.LBB2088:
.LBB2076:
.LBB2074:
	.loc 5 634 0
	lwz 0,2424(3)
	.cfi_offset 28, -24
	.cfi_offset 65, 4
	.loc 5 635 0
	lis 3,gameLocal@ha
.LVL66:
	la 3,gameLocal@l(3)
	.loc 5 634 0
	rlwinm 9,0,0,20,31
.LVL67:
	.loc 5 635 0
	srawi 0,0,12
	addi 11,9,4228
	slwi 11,11,2
	add 11,3,11
	lwz 11,4(11)
	cmpw 7,11,0
	beq- 7,.L78
.LBE2074:
.LBE2076:
	.loc 2 2844 0
	cmpwi 7,4,2
	beq- 7,.L59
.LVL68:
.L80:
	cmpwi 7,4,3
	beq- 7,.L60
	cmpwi 7,4,1
	beq- 7,.L79
	.loc 2 2880 0
	lis 4,.LC7@ha
.LVL69:
	la 4,.LC7@l(4)
	crxor 6,6,6
	bl _ZNK11idGameLocal5ErrorEPKcz
.LVL70:
.L55:
.LBE2088:
	.loc 2 2882 0
	lwz 0,36(1)
	lwz 28,8(1)
	mtlr 0
	lwz 29,12(1)
	lwz 30,16(1)
.LVL71:
	lwz 31,20(1)
.LVL72:
	lfd 31,24(1)
.LVL73:
	addi 1,1,32
	.cfi_remember_state
.LCFI29:
	.cfi_def_cfa_offset 0
	.cfi_restore 63
	.cfi_restore 31
	.cfi_restore 30
	.cfi_restore 29
	.cfi_restore 28
	blr
.LVL74:
.L79:
.LCFI30:
	.cfi_restore_state
.LBB2089:
	.loc 2 2860 0
	addi 28,31,636
	li 4,1
.LVL75:
	mr 3,28
	bl _ZN10idAnimator11CurrentAnimEi
.LVL76:
	fmr 1,31
	mr 4,30
	bl _ZN11idAnimBlend19SetSyncedAnimWeightEif
.LVL77:
.LBB2077:
.LBB2078:
	.loc 2 255 0
	lbz 0,3916(31)
	cmpwi 7,0,0
	bne- 7,.L66
	lbz 0,3856(31)
	cmpwi 7,0,0
	beq- 7,.L77
.L66:
.LBE2078:
.LBE2077:
	.loc 2 2862 0
	mr 3,28
	li 4,2
	bl _ZN10idAnimator11CurrentAnimEi
	fmr 1,31
	mr 4,30
	bl _ZN11idAnimBlend19SetSyncedAnimWeightEif
	b .L77
.LVL78:
.L78:
	.loc 2 2844 0
	cmpwi 7,4,2
.LBB2079:
.LBB2075:
	.loc 5 636 0
	addi 9,9,132
.LVL79:
	slwi 9,9,2
.LVL80:
	add 9,3,9
	lwz 29,4(9)
.LBE2075:
.LBE2079:
	.loc 2 2844 0
	bne+ 7,.L80
.L59:
	.loc 2 2870 0
	addi 28,31,636
	li 4,2
.LVL81:
	mr 3,28
	bl _ZN10idAnimator11CurrentAnimEi
	fmr 1,31
	mr 4,30
	bl _ZN11idAnimBlend19SetSyncedAnimWeightEif
.LVL82:
.LBB2080:
.LBB2081:
	.loc 2 255 0
	lbz 0,3852(31)
	cmpwi 7,0,0
	bne- 7,.L69
	lbz 0,3792(31)
	cmpwi 7,0,0
	beq- 7,.L55
.L69:
.LBE2081:
.LBE2080:
	.loc 2 2872 0
	li 4,1
	mr 3,28
	bl _ZN10idAnimator11CurrentAnimEi
	fmr 1,31
	mr 4,30
	bl _ZN11idAnimBlend19SetSyncedAnimWeightEif
.LVL83:
.L77:
	.loc 2 2873 0
	cmpwi 7,29,0
	beq- 7,.L55
.LVL84:
.LBB2082:
.LBB2083:
	.loc 2 255 0 discriminator 1
	lbz 0,3788(31)
	cmpwi 7,0,0
	bne- 7,.L70
	.loc 2 255 0 is_stmt 0
	lbz 0,3728(31)
	cmpwi 7,0,0
	beq- 7,.L55
.L70:
.LBE2083:
.LBE2082:
	.loc 2 2874 0 is_stmt 1 discriminator 4
	mr 3,28
	li 4,0
	bl _ZN10idAnimator11CurrentAnimEi
	fmr 1,31
	mr 4,30
	bl _ZN11idAnimBlend19SetSyncedAnimWeightEif
.LBE2089:
	.loc 2 2882 0 discriminator 4
	lwz 0,36(1)
	lwz 28,8(1)
	mtlr 0
	lwz 29,12(1)
	lwz 30,16(1)
.LVL85:
	lwz 31,20(1)
.LVL86:
	lfd 31,24(1)
.LVL87:
	addi 1,1,32
	.cfi_remember_state
	.cfi_restore 28
	.cfi_restore 29
	.cfi_restore 30
	.cfi_restore 31
	.cfi_restore 63
.LCFI31:
	.cfi_def_cfa_offset 0
	blr
.LVL88:
.L60:
.LCFI32:
	.cfi_restore_state
.LBB2090:
	.loc 2 2846 0
	cmpwi 7,29,0
	.loc 2 2847 0
	addi 29,31,636
	mr 3,29
	.loc 2 2846 0
	beq- 7,.L61
	.loc 2 2847 0
	li 4,0
.LVL89:
	bl _ZN10idAnimator11CurrentAnimEi
.LVL90:
	fmr 1,31
	mr 4,30
	bl _ZN11idAnimBlend19SetSyncedAnimWeightEif
.L62:
.LVL91:
.LBB2084:
.LBB2085:
	.loc 2 255 0
	lbz 0,3852(31)
	cmpwi 7,0,0
	bne- 7,.L63
	lbz 0,3792(31)
	cmpwi 7,0,0
	beq- 7,.L55
.L63:
.LBE2085:
.LBE2084:
	.loc 2 2852 0
	li 4,1
	mr 3,29
	bl _ZN10idAnimator11CurrentAnimEi
	fmr 1,31
	mr 4,30
	bl _ZN11idAnimBlend19SetSyncedAnimWeightEif
.LVL92:
.LBB2086:
.LBB2087:
	.loc 2 255 0
	lbz 0,3916(31)
	cmpwi 7,0,0
	bne- 7,.L65
	lbz 0,3856(31)
	cmpwi 7,0,0
	beq- 7,.L55
.L65:
.LBE2087:
.LBE2086:
	.loc 2 2854 0
	mr 3,29
	li 4,2
	bl _ZN10idAnimator11CurrentAnimEi
	fmr 1,31
	mr 4,30
	bl _ZN11idAnimBlend19SetSyncedAnimWeightEif
	b .L55
.LVL93:
.L61:
	.loc 2 2849 0
	li 4,3
.LVL94:
	bl _ZN10idAnimator11CurrentAnimEi
	fmr 1,31
	mr 4,30
	bl _ZN11idAnimBlend19SetSyncedAnimWeightEif
	b .L62
.LBE2090:
	.cfi_endproc
.LFE2931:
	.size	_ZN7idActor25Event_SetSyncedAnimWeightEiif, .-_ZN7idActor25Event_SetSyncedAnimWeightEiif
	.align 2
	.globl _ZN7idActor19Event_SetAnimPrefixEPKc
	.type	_ZN7idActor19Event_SetAnimPrefixEPKc, @function
_ZN7idActor19Event_SetAnimPrefixEPKc:
.LFB2926:
	.loc 2 2545 0
	.cfi_startproc
.LVL95:
	mflr 0
	stwu 1,-8(1)
.LCFI33:
	.cfi_def_cfa_offset 8
	.cfi_register 65, 0
	.loc 2 2546 0
	addi 3,3,3612
.LVL96:
	.loc 2 2545 0
	stw 0,12(1)
	.loc 2 2546 0
	.cfi_offset 65, 4
	bl _ZN5idStraSEPKc
.LVL97:
	.loc 2 2547 0
	lwz 0,12(1)
	addi 1,1,8
.LCFI34:
	.cfi_def_cfa_offset 0
	mtlr 0
	blr
	.cfi_endproc
.LFE2926:
	.size	_ZN7idActor19Event_SetAnimPrefixEPKc, .-_ZN7idActor19Event_SetAnimPrefixEPKc
	.align 2
	.globl _ZN7idActor18Event_DisableLegIKEi
	.type	_ZN7idActor18Event_DisableLegIKEi, @function
_ZN7idActor18Event_DisableLegIKEi:
.LFB2921:
	.loc 2 2496 0
	.cfi_startproc
.LVL98:
	mflr 0
	stwu 1,-8(1)
.LCFI35:
	.cfi_def_cfa_offset 8
	.cfi_register 65, 0
	.loc 2 2497 0
	addi 3,3,2464
.LVL99:
	.loc 2 2496 0
	stw 0,12(1)
	.loc 2 2497 0
	.cfi_offset 65, 4
	bl _ZN9idIK_Walk10DisableLegEi
.LVL100:
	.loc 2 2498 0
	lwz 0,12(1)
	addi 1,1,8
.LCFI36:
	.cfi_def_cfa_offset 0
	mtlr 0
	blr
	.cfi_endproc
.LFE2921:
	.size	_ZN7idActor18Event_DisableLegIKEi, .-_ZN7idActor18Event_DisableLegIKEi
	.align 2
	.globl _ZN7idActor17Event_EnableLegIKEi
	.type	_ZN7idActor17Event_EnableLegIKEi, @function
_ZN7idActor17Event_EnableLegIKEi:
.LFB2920:
	.loc 2 2487 0
	.cfi_startproc
.LVL101:
	mflr 0
	stwu 1,-8(1)
.LCFI37:
	.cfi_def_cfa_offset 8
	.cfi_register 65, 0
	.loc 2 2488 0
	addi 3,3,2464
.LVL102:
	.loc 2 2487 0
	stw 0,12(1)
	.loc 2 2488 0
	.cfi_offset 65, 4
	bl _ZN9idIK_Walk9EnableLegEi
.LVL103:
	.loc 2 2489 0
	lwz 0,12(1)
	addi 1,1,8
.LCFI38:
	.cfi_def_cfa_offset 0
	mtlr 0
	blr
	.cfi_endproc
.LFE2920:
	.size	_ZN7idActor17Event_EnableLegIKEi, .-_ZN7idActor17Event_EnableLegIKEi
	.align 2
	.globl _ZN7idActor19Event_DisableWalkIKEv
	.type	_ZN7idActor19Event_DisableWalkIKEv, @function
_ZN7idActor19Event_DisableWalkIKEv:
.LFB2919:
	.loc 2 2478 0
	.cfi_startproc
.LVL104:
	mflr 0
	stwu 1,-8(1)
.LCFI39:
	.cfi_def_cfa_offset 8
	.cfi_register 65, 0
	.loc 2 2479 0
	addi 3,3,2464
.LVL105:
	.loc 2 2478 0
	stw 0,12(1)
	.loc 2 2479 0
	.cfi_offset 65, 4
	bl _ZN9idIK_Walk10DisableAllEv
.LVL106:
	.loc 2 2480 0
	lwz 0,12(1)
	addi 1,1,8
.LCFI40:
	.cfi_def_cfa_offset 0
	mtlr 0
	blr
	.cfi_endproc
.LFE2919:
	.size	_ZN7idActor19Event_DisableWalkIKEv, .-_ZN7idActor19Event_DisableWalkIKEv
	.align 2
	.globl _ZN7idActor18Event_EnableWalkIKEv
	.type	_ZN7idActor18Event_EnableWalkIKEv, @function
_ZN7idActor18Event_EnableWalkIKEv:
.LFB2918:
	.loc 2 2469 0
	.cfi_startproc
.LVL107:
	mflr 0
	stwu 1,-8(1)
.LCFI41:
	.cfi_def_cfa_offset 8
	.cfi_register 65, 0
	.loc 2 2470 0
	addi 3,3,2464
.LVL108:
	.loc 2 2469 0
	stw 0,12(1)
	.loc 2 2470 0
	.cfi_offset 65, 4
	bl _ZN9idIK_Walk9EnableAllEv
.LVL109:
	.loc 2 2471 0
	lwz 0,12(1)
	addi 1,1,8
.LCFI42:
	.cfi_def_cfa_offset 0
	mtlr 0
	blr
	.cfi_endproc
.LFE2918:
	.size	_ZN7idActor18Event_EnableWalkIKEv, .-_ZN7idActor18Event_EnableWalkIKEv
	.align 2
	.globl _ZN7idActor4PainEP8idEntityS1_iRK6idVec3i
	.type	_ZN7idActor4PainEP8idEntityS1_iRK6idVec3i, @function
_ZN7idActor4PainEP8idEntityS1_iRK6idVec3i:
.LFB2909:
	.loc 2 2231 0
	.cfi_startproc
	.cfi_personality 0,__gxx_personality_v0
	.cfi_lsda 0,.LLSDA2909
.LVL110:
	mflr 0
	stwu 1,-72(1)
.LCFI43:
	.cfi_def_cfa_offset 72
	.cfi_register 65, 0
	stw 27,52(1)
	mr 27,6
	.cfi_offset 27, -20
	stw 29,60(1)
	mr 29,8
	.cfi_offset 29, -12
	stw 31,68(1)
	mr 31,3
	.cfi_offset 31, -4
	stw 0,76(1)
	stw 24,40(1)
	stw 25,44(1)
	stw 26,48(1)
	stw 28,56(1)
	stw 30,64(1)
.LBB2091:
.LBB2092:
.LBB2093:
	.file 8 "d:/Data/Nintendo/DoomGX/src/game/AF.h"
	.loc 8 65 0
	lbz 0,2184(3)
	.cfi_offset 30, -8
	.cfi_offset 28, -16
	.cfi_offset 26, -24
	.cfi_offset 25, -28
	.cfi_offset 24, -32
	.cfi_offset 65, 4
	cmpwi 7,0,0
.LBE2093:
.LBE2092:
	.loc 2 3283 0
	lwz 0,2084(3)
.LBB2095:
.LBB2094:
	.loc 8 65 0
	beq- 7,.L87
	cmpwi 7,0,0
	beq- 7,.L87
.LBE2094:
.LBE2095:
	.loc 2 2234 0
	addi 3,3,1624
.LVL111:
.LEHB0:
	bl _ZN4idAF4RestEv
.LVL112:
	.loc 2 2237 0
	mr 3,31
	li 4,2
	bl _ZN8idEntity12BecomeActiveEi
.L87:
	.loc 2 2240 0
	lis 30,gameLocal@ha
	lwz 9,2376(31)
	la 30,gameLocal@l(30)
	addis 28,30,0x25
	lwz 0,2004(28)
	cmpw 7,0,9
	blt- 7,.L111
	.loc 2 2247 0
	lwz 9,188(31)
	.loc 2 2248 0
	mr 3,31
	.loc 2 2245 0
	lwz 11,2380(31)
	.loc 2 2247 0
	cmpwi 7,9,75
	.loc 2 2245 0
	add 0,0,11
	stw 0,2376(31)
	.loc 2 2247 0
	bgt- 7,.L122
	.loc 2 2249 0
	cmpwi 7,9,50
	bgt- 7,.L123
	.loc 2 2251 0
	cmpwi 7,9,25
	ble- 7,.L92
	.loc 2 2252 0
	lis 4,.LC10@ha
	.loc 2 2254 0
	li 5,1
	.loc 2 2252 0
	la 4,.LC10@l(4)
	.loc 2 2254 0
	li 6,0
	li 7,0
	li 8,0
	bl _ZN8idEntity10StartSoundEPKciibPi
	.loc 2 2257 0
	lbz 0,3920(31)
	cmpwi 7,0,0
	bne+ 7,.L124
.L111:
.LBE2091:
	.loc 2 2307 0
	lwz 0,76(1)
.LBB2145:
	.loc 2 2263 0
	li 3,0
.LBE2145:
	.loc 2 2307 0
	lwz 24,40(1)
	mtlr 0
	lwz 25,44(1)
	lwz 26,48(1)
	lwz 27,52(1)
.LVL113:
	lwz 28,56(1)
	lwz 29,60(1)
.LVL114:
	lwz 30,64(1)
	lwz 31,68(1)
.LVL115:
	addi 1,1,72
	.cfi_remember_state
.LCFI44:
	.cfi_def_cfa_offset 0
	.cfi_restore 31
	.cfi_restore 30
	.cfi_restore 29
	.cfi_restore 28
	.cfi_restore 27
	.cfi_restore 26
	.cfi_restore 25
	.cfi_restore 24
	blr
.LVL116:
.L122:
.LCFI45:
	.cfi_restore_state
.LBB2146:
	.loc 2 2248 0
	lis 4,.LC8@ha
	la 4,.LC8@l(4)
.L116:
	.loc 2 2254 0
	li 5,1
	li 6,0
	li 7,0
	li 8,0
	bl _ZN8idEntity10StartSoundEPKciibPi
.LVL117:
	.loc 2 2257 0
	lbz 0,3920(31)
	cmpwi 7,0,0
	beq- 7,.L111
.L124:
	.loc 2 2257 0 is_stmt 0 discriminator 1
	lwz 9,2004(28)
	lwz 0,3924(31)
	cmpw 7,9,0
	blt- 7,.L111
	.loc 2 2262 0 is_stmt 1
	lwz 0,2384(31)
	cmpwi 7,0,0
	beq- 7,.L93
	.loc 2 2262 0 is_stmt 0 discriminator 1
	cmpw 7,0,27
	bgt- 7,.L111
.L93:
.LVL118:
.LBB2096:
.LBB2097:
	.loc 2 2389 0 is_stmt 1
	cmpwi 7,29,0
	blt- 7,.L94
	lwz 0,2388(31)
	cmpw 7,29,0
	bge- 7,.L94
.LVL119:
.LBB2098:
	.loc 2 3283 0
	lwz 9,2400(31)
	slwi 0,29,5
	add 9,9,0
.LBE2098:
.LBE2097:
.LBE2096:
.LBB2103:
.LBB2104:
.LBB2105:
.LBB2106:
	.file 9 "d:/Data/Nintendo/DoomGX/src/game/../idlib/../idlib/Str.h"
	.loc 9 356 0
	li 0,0
.LBE2106:
.LBE2105:
.LBE2104:
.LBE2103:
.LBB2121:
.LBB2100:
.LBB2099:
	.loc 2 3283 0
	lwz 27,4(9)
.LVL120:
.LBE2099:
.LBE2100:
.LBE2121:
.LBB2122:
.LBB2117:
.LBB2110:
.LBB2107:
	.loc 9 357 0
	li 9,20
.LVL121:
	stw 9,16(1)
	.loc 9 358 0
	addi 9,1,20
.LBE2107:
.LBE2110:
	.loc 9 412 0
	cmpwi 7,27,0
.LBB2111:
.LBB2108:
	.loc 9 356 0
	stw 0,8(1)
	.loc 9 358 0
	stw 9,12(1)
	.loc 9 359 0
	stb 0,20(1)
.LBE2108:
.LBE2111:
	.loc 9 412 0
	beq- 7,.L125
.LBE2117:
.LBE2122:
.LBB2123:
.LBB2101:
	.loc 2 2231 0
	mr 3,27
.LBE2101:
.LBE2123:
.LBB2124:
.LBB2118:
.LBB2112:
.LBB2113:
	.loc 9 351 0
	addi 24,1,8
.LBE2113:
.LBE2112:
.LBE2118:
.LBE2124:
.LBB2125:
.LBB2102:
	.loc 2 2231 0
	bl strlen
.LVL122:
	addi 4,3,1
	mr 26,3
.LVL123:
.LBE2102:
.LBE2125:
.LBB2126:
.LBB2119:
.LBB2115:
.LBB2114:
	.loc 9 350 0
	cmpwi 7,4,20
	ble- 7,.L117
	.loc 9 351 0
	mr 3,24
.LVL124:
	li 5,1
	bl _ZN5idStr10ReAllocateEib
.LEHE0:
.LVL125:
.L117:
	lis 28,.LC3@ha
	la 28,.LC3@l(28)
	b .L96
.LVL126:
.L92:
.LBE2114:
.LBE2115:
.LBE2119:
.LBE2126:
	.loc 2 2254 0
	lis 4,.LC11@ha
	la 4,.LC11@l(4)
	b .L116
.L123:
	.loc 2 2250 0
	lis 4,.LC9@ha
	la 4,.LC9@l(4)
	b .L116
.LVL127:
.L94:
.LBB2127:
.LBB2120:
.LBB2116:
.LBB2109:
	.loc 9 357 0
	li 9,20
	.loc 9 356 0
	li 0,0
	.loc 9 359 0
	lis 28,.LC3@ha
	.loc 9 357 0
	stw 9,16(1)
	.loc 9 358 0
	addi 9,1,20
	.loc 9 359 0
	la 28,.LC3@l(28)
	.loc 9 356 0
	stw 0,8(1)
	.loc 9 359 0
	li 26,0
	.loc 9 358 0
	stw 9,12(1)
	.loc 9 359 0
	mr 27,28
.LVL128:
	stb 0,20(1)
.LVL129:
	addi 24,1,8
.LVL130:
.L96:
.LBE2109:
.LBE2116:
	.loc 9 415 0
	lwz 3,12(1)
	mr 4,27
	bl strcpy
	.loc 9 416 0
	stw 26,8(1)
.LVL131:
.L107:
.LBE2120:
.LBE2127:
	.loc 2 2269 0
	addi 27,31,3644
	mr 4,28
	mr 3,27
.LEHB1:
	bl _ZN5idStraSEPKc
	.loc 2 2270 0
	lwz 0,3612(31)
	cmpwi 7,0,0
	.loc 2 2271 0
	lwz 0,8(1)
	.loc 2 2270 0
	beq- 7,.L97
	.loc 2 2271 0
	cmpwi 7,0,0
	bne- 7,.L126
.L99:
	.loc 2 2281 0
	lwz 0,3644(31)
	cmpwi 7,0,0
	beq- 7,.L127
.L100:
.LBB2128:
.LBB2129:
	.loc 2 2301 0
	lis 9,g_debugDamage+44@ha
	.file 10 "d:/Data/Nintendo/DoomGX/src/game/../idlib/../framework/CVarSystem.h"
	.loc 10 142 0
	lwz 9,g_debugDamage+44@l(9)
.LBE2129:
.LBE2128:
	.loc 2 2301 0
	lwz 0,36(9)
	cmpwi 7,0,0
	beq- 7,.L103
	.loc 2 2303 0
	addi 3,31,636
	mr 4,29
	bl _ZNK10idAnimator12GetJointNameE13jointHandle_t
	lis 4,.LC16@ha
	lwz 6,12(1)
	lwz 7,3648(31)
	mr 5,3
	la 4,.LC16@l(4)
	mr 3,30
	crxor 6,6,6
	bl _ZNK11idGameLocal6PrintfEPKcz
.LEHE1:
.L103:
.LVL132:
.LBB2130:
.LBB2131:
.LBB2132:
	.loc 9 501 0
	mr 3,24
.LEHB2:
	bl _ZN5idStr8FreeDataEv
.LEHE2:
.LBE2132:
.LBE2131:
.LBE2130:
.LBE2146:
	.loc 2 2307 0
	lwz 0,76(1)
	lwz 24,40(1)
.LVL133:
.LBB2147:
.LBB2135:
.LBB2134:
.LBB2133:
	.loc 2 2306 0
	li 3,1
.LBE2133:
.LBE2134:
.LBE2135:
.LBE2147:
	.loc 2 2307 0
	mtlr 0
	lwz 25,44(1)
	lwz 26,48(1)
	lwz 27,52(1)
	lwz 28,56(1)
	lwz 29,60(1)
.LVL134:
	lwz 30,64(1)
	lwz 31,68(1)
.LVL135:
	addi 1,1,72
	.cfi_remember_state
	.cfi_restore 24
	.cfi_restore 25
	.cfi_restore 26
	.cfi_restore 27
	.cfi_restore 28
	.cfi_restore 29
	.cfi_restore 30
	.cfi_restore 31
.LCFI46:
	.cfi_def_cfa_offset 0
	blr
.LVL136:
.L97:
.LCFI47:
	.cfi_restore_state
.LBB2148:
	.loc 2 2287 0
	cmpwi 7,0,0
	bne- 7,.L128
.L101:
	.loc 2 2297 0
	lwz 0,3644(31)
	cmpwi 7,0,0
	bne+ 7,.L100
	.loc 2 2298 0
	lis 4,.LC4@ha
	mr 3,27
	la 4,.LC4@l(4)
.LEHB3:
	bl _ZN5idStraSEPKc
	b .L100
.LVL137:
.L125:
	lis 28,.LC3@ha
	addi 24,1,8
	la 28,.LC3@l(28)
	b .L107
.LVL138:
.L128:
.LBB2136:
.LBB2137:
.LBB2138:
	.loc 9 653 0
	lis 4,.LC12@ha
	lwz 3,12(1)
	la 4,.LC12@l(4)
	bl _ZN5idStr3CmpEPKcS1_
.LBE2138:
.LBE2137:
.LBE2136:
	.loc 2 2287 0
	cmpwi 7,3,0
	beq- 7,.L101
	.loc 2 2288 0 discriminator 4
	lis 25,.LC14@ha
	lwz 5,12(1)
	la 25,.LC14@l(25)
	mr 3,27
	mr 4,25
	crxor 6,6,6
	bl _Z7sprintfR5idStrPKcz
	.loc 2 2289 0
	addi 26,31,636
.LVL139:
	lwz 4,3648(31)
	mr 3,26
	bl _ZNK10idAnimator7HasAnimEPKc
	cmpwi 7,3,0
	bne+ 7,.L101
	.loc 2 2290 0
	lwz 5,12(1)
	mr 3,27
	mr 4,25
	crxor 6,6,6
	bl _Z7sprintfR5idStrPKcz
.LVL140:
	.loc 2 2291 0
	lwz 4,3648(31)
	mr 3,26
	bl _ZNK10idAnimator7HasAnimEPKc
.LVL141:
.L121:
	cmpwi 7,3,0
	bne+ 7,.L101
	.loc 2 2292 0
	mr 3,27
	mr 4,28
	bl _ZN5idStraSEPKc
	b .L101
.L127:
	.loc 2 2282 0
	lis 4,.LC15@ha
	lwz 5,3616(31)
	mr 3,27
	la 4,.LC15@l(4)
	crxor 6,6,6
	bl _Z7sprintfR5idStrPKcz
.LVL142:
	.loc 2 2283 0
	lwz 4,3648(31)
	addi 3,31,636
	bl _ZNK10idAnimator7HasAnimEPKc
	b .L121
.LVL143:
.L126:
.LBB2139:
.LBB2140:
.LBB2141:
	.loc 9 653 0
	lis 4,.LC12@ha
	lwz 3,12(1)
	la 4,.LC12@l(4)
	bl _ZN5idStr3CmpEPKcS1_
.LBE2141:
.LBE2140:
.LBE2139:
	.loc 2 2271 0
	cmpwi 7,3,0
	beq- 7,.L99
	.loc 2 2272 0 discriminator 4
	lis 4,.LC13@ha
	lwz 5,3616(31)
	lwz 6,12(1)
	mr 3,27
	la 4,.LC13@l(4)
	crxor 6,6,6
	bl _Z7sprintfR5idStrPKcz
	.loc 2 2273 0
	addi 26,31,636
.LVL144:
	lwz 4,3648(31)
	mr 3,26
	bl _ZNK10idAnimator7HasAnimEPKc
	cmpwi 7,3,0
	bne+ 7,.L99
	.loc 2 2274 0
	lis 4,.LC14@ha
	lwz 5,12(1)
	mr 3,27
	la 4,.LC14@l(4)
	crxor 6,6,6
	bl _Z7sprintfR5idStrPKcz
.LVL145:
	.loc 2 2275 0
	lwz 4,3648(31)
	mr 3,26
	bl _ZNK10idAnimator7HasAnimEPKc
	cmpwi 7,3,0
	bne+ 7,.L99
	.loc 2 2276 0
	mr 3,27
	mr 4,28
	bl _ZN5idStraSEPKc
.LEHE3:
	b .L99
.LVL146:
.L112:
	mr 31,3
.LVL147:
.LBB2142:
.LBB2143:
.LBB2144:
	.loc 9 501 0
	mr 3,24
	bl _ZN5idStr8FreeDataEv
	mr 3,31
.LEHB4:
	bl _Unwind_Resume
.LEHE4:
.LBE2144:
.LBE2143:
.LBE2142:
.LBE2148:
	.cfi_endproc
.LFE2909:
	.globl __gxx_personality_v0
	.section	.gcc_except_table,"a",@progbits
.LLSDA2909:
	.byte	0xff
	.byte	0xff
	.byte	0x1
	.uleb128 .LLSDACSE2909-.LLSDACSB2909
.LLSDACSB2909:
	.uleb128 .LEHB0-.LFB2909
	.uleb128 .LEHE0-.LEHB0
	.uleb128 0
	.uleb128 0
	.uleb128 .LEHB1-.LFB2909
	.uleb128 .LEHE1-.LEHB1
	.uleb128 .L112-.LFB2909
	.uleb128 0
	.uleb128 .LEHB2-.LFB2909
	.uleb128 .LEHE2-.LEHB2
	.uleb128 0
	.uleb128 0
	.uleb128 .LEHB3-.LFB2909
	.uleb128 .LEHE3-.LEHB3
	.uleb128 .L112-.LFB2909
	.uleb128 0
	.uleb128 .LEHB4-.LFB2909
	.uleb128 .LEHE4-.LEHB4
	.uleb128 0
	.uleb128 0
.LLSDACSE2909:
	.section	".text"
	.size	_ZN7idActor4PainEP8idEntityS1_iRK6idVec3i, .-_ZN7idActor4PainEP8idEntityS1_iRK6idVec3i
	.align 2
	.globl _ZNK7idActor14GetAASLocationEP5idAASR6idVec3Ri
	.type	_ZNK7idActor14GetAASLocationEP5idAASR6idVec3Ri, @function
_ZNK7idActor14GetAASLocationEP5idAASR6idVec3Ri:
.LFB2897:
	.loc 2 1867 0
	.cfi_startproc
.LVL148:
	stwu 1,-56(1)
.LCFI48:
	.cfi_def_cfa_offset 56
	mflr 0
.LBB2149:
	.loc 2 1871 0
	lis 9,.LC17@ha
	lfs 1,.LC17@l(9)
.LBE2149:
	.loc 2 1867 0
	stw 31,52(1)
	mr 31,4
	.cfi_offset 31, -4
	.cfi_register 65, 0
.LBB2172:
	.loc 2 1871 0
	mr 4,5
.LVL149:
.LBE2172:
	.loc 2 1867 0
	stw 29,44(1)
	stw 30,48(1)
	mr 29,6
	.cfi_offset 30, -8
	.cfi_offset 29, -12
	stw 0,60(1)
	.loc 2 1867 0
	mr 30,5
.LBB2173:
	.loc 2 1871 0
	.cfi_offset 65, 4
	bl _ZNK8idEntity11GetFloorPosEfR6idVec3
.LVL150:
	.loc 2 1872 0
	cmpwi 7,31,0
	beq- 7,.L132
	.loc 2 1877 0
	lwz 9,0(31)
	mr 3,31
	lwz 0,20(9)
	mtctr 0
	bctrl
.LVL151:
.LBB2150:
.LBB2151:
	.file 11 "d:/Data/Nintendo/DoomGX/src/game/../idlib/../idlib/math/Vector.h"
	.loc 11 426 0
	lis 11,.LC18@ha
.LBE2151:
.LBE2150:
.LBB2155:
.LBB2156:
	.loc 11 424 0
	lfs 13,16(3)
.LVL152:
.LBE2156:
.LBE2155:
	.loc 2 1882 0
	mr 4,30
.LBB2158:
.LBB2157:
	.loc 11 425 0
	lfs 0,20(3)
.LVL153:
.LBE2157:
.LBE2158:
	.loc 2 1882 0
	addi 5,1,8
.LBB2159:
.LBB2160:
	.loc 11 420 0
	lfs 12,24(3)
	fneg 10,13
.LBE2160:
.LBE2159:
.LBB2163:
.LBB2152:
	.loc 11 426 0
	lwz 0,.LC18@l(11)
.LBE2152:
.LBE2163:
.LBB2164:
.LBB2161:
	.loc 11 420 0
	fneg 11,0
.LBE2161:
.LBE2164:
	.loc 2 1882 0
	lwz 9,0(31)
.LBB2165:
.LBB2162:
	.loc 11 420 0
	fneg 12,12
.LVL154:
.LBE2162:
.LBE2165:
.LBB2166:
.LBB2153:
	.loc 11 426 0
	stw 0,28(1)
.LBE2153:
.LBE2166:
	.loc 2 1882 0
	mr 3,31
.LVL155:
	lwz 0,28(9)
	li 6,64
.LBB2167:
.LBB2168:
	.loc 11 424 0
	stfs 10,8(1)
	.loc 11 425 0
	stfs 11,12(1)
.LBE2168:
.LBE2167:
	.loc 2 1882 0
	mtctr 0
.LBB2170:
.LBB2169:
	.loc 11 426 0
	stfs 12,16(1)
.LVL156:
.LBE2169:
.LBE2170:
.LBB2171:
.LBB2154:
	.loc 11 424 0
	stfs 13,20(1)
	.loc 11 425 0
	stfs 0,24(1)
.LBE2154:
.LBE2171:
	.loc 2 1882 0
	bctrl
.LVL157:
	.loc 2 1883 0
	cmpwi 7,3,0
	.loc 2 1882 0
	mr 4,3
	stw 3,0(29)
	.loc 2 1883 0
	bne- 7,.L133
.LBE2173:
	.loc 2 1886 0
	lwz 0,60(1)
	lwz 29,44(1)
.LVL158:
	mtlr 0
	lwz 30,48(1)
.LVL159:
	lwz 31,52(1)
.LVL160:
	addi 1,1,56
	.cfi_remember_state
.LCFI49:
	.cfi_def_cfa_offset 0
	.cfi_restore 31
	.cfi_restore 30
	.cfi_restore 29
	blr
.LVL161:
.L133:
.LCFI50:
	.cfi_restore_state
.LBB2174:
	.loc 2 1884 0
	lwz 9,0(31)
	mr 3,31
	mr 5,30
	lwz 0,36(9)
	mtctr 0
	bctrl
.LBE2174:
	.loc 2 1886 0
	lwz 0,60(1)
	lwz 29,44(1)
.LVL162:
	mtlr 0
	lwz 30,48(1)
.LVL163:
	lwz 31,52(1)
.LVL164:
	addi 1,1,56
	.cfi_remember_state
	.cfi_restore 29
	.cfi_restore 30
	.cfi_restore 31
.LCFI51:
	.cfi_def_cfa_offset 0
	blr
.LVL165:
.L132:
.LCFI52:
	.cfi_restore_state
.LBB2175:
	.loc 2 1873 0
	stw 31,0(29)
.LBE2175:
	.loc 2 1886 0
	lwz 0,60(1)
	lwz 29,44(1)
.LVL166:
	mtlr 0
	lwz 30,48(1)
.LVL167:
	lwz 31,52(1)
.LVL168:
	addi 1,1,56
	.cfi_restore 29
	.cfi_restore 30
	.cfi_restore 31
.LCFI53:
	.cfi_def_cfa_offset 0
	blr
	.cfi_endproc
.LFE2897:
	.size	_ZNK7idActor14GetAASLocationEP5idAASR6idVec3Ri, .-_ZNK7idActor14GetAASLocationEP5idAASR6idVec3Ri
	.align 2
	.globl _ZN7idActor8TeleportERK6idVec3RK8idAnglesP8idEntity
	.type	_ZN7idActor8TeleportERK6idVec3RK8idAnglesP8idEntity, @function
_ZN7idActor8TeleportERK6idVec3RK8idAnglesP8idEntity:
.LFB2890:
	.loc 2 1755 0
	.cfi_startproc
.LVL169:
	mflr 0
	stwu 1,-72(1)
.LCFI54:
	.cfi_def_cfa_offset 72
	.cfi_register 65, 0
	stw 29,60(1)
	mr 29,4
	.cfi_offset 29, -12
	stw 0,76(1)
	stw 30,64(1)
	mr 30,5
	.cfi_offset 30, -8
	.cfi_offset 65, 4
	stw 31,68(1)
	.loc 2 1755 0
	mr 31,3
	.cfi_offset 31, -4
	.loc 2 1756 0
	bl _ZNK8idEntity10GetPhysicsEv
.LVL170:
.LBB2176:
.LBB2177:
	.loc 11 452 0
	lis 9,.LC20@ha
	lfs 0,.LC20@l(9)
	lis 9,.LC19@ha
	lfs 10,8(29)
.LBE2177:
.LBE2176:
	.loc 2 1756 0
	addi 4,1,8
.LBB2187:
.LBB2182:
	.loc 11 452 0
	lfs 11,0(29)
.LBE2182:
.LBE2187:
	.loc 2 1756 0
	li 5,-1
.LBB2188:
.LBB2183:
	.loc 11 452 0
	lfs 13,.LC19@l(9)
	lfs 12,4(29)
.LBE2183:
.LBE2188:
	.loc 2 1756 0
	lwz 9,0(3)
.LBB2189:
.LBB2184:
	.loc 11 452 0
	fadds 13,10,13
	fadds 12,12,0
	fadds 0,11,0
.LBE2184:
.LBE2189:
	.loc 2 1756 0
	lwz 0,116(9)
.LVL171:
.LBB2190:
.LBB2185:
.LBB2178:
.LBB2179:
	.loc 11 398 0
	stfs 13,16(1)
	.loc 11 397 0
	stfs 12,12(1)
.LBE2179:
.LBE2178:
.LBE2185:
.LBE2190:
	.loc 2 1756 0
	mtctr 0
.LBB2191:
.LBB2186:
.LBB2181:
.LBB2180:
	.loc 11 396 0
	stfs 0,8(1)
.LBE2180:
.LBE2181:
.LBE2186:
.LBE2191:
	.loc 2 1756 0
	bctrl
.LVL172:
	.loc 2 1757 0
	mr 3,31
	bl _ZNK8idEntity10GetPhysicsEv
	lis 4,vec3_origin@ha
	lwz 9,0(3)
	la 4,vec3_origin@l(4)
	li 5,0
	lwz 0,140(9)
	mtctr 0
	bctrl
	.loc 2 1759 0
	addi 3,1,20
	mr 4,30
	bl _ZNK8idAngles6ToMat3Ev
.LVL173:
.LBB2192:
.LBB2193:
	.file 12 "d:/Data/Nintendo/DoomGX/src/game/../idlib/../idlib/math/Matrix.h"
	.loc 12 333 0
	addi 7,31,2268
	li 10,0
.L135:
.LBB2194:
.LBB2195:
	.loc 11 424 0
	addi 11,1,20
.LVL174:
.LBE2195:
.LBE2194:
	.loc 12 333 0
	cmpwi 7,10,24
.LBB2198:
.LBB2196:
	.loc 11 424 0
	lwzux 0,11,10
.LVL175:
	mr 9,7
	stwux 0,9,10
.LBE2196:
.LBE2198:
	.loc 12 333 0
	addi 10,10,12
.LBB2199:
.LBB2197:
	.loc 11 425 0
	lwz 8,4(11)
	.loc 11 426 0
	lwz 0,8(11)
	.loc 11 425 0
	stw 8,4(9)
	.loc 11 426 0
	stw 0,8(9)
.LBE2197:
.LBE2199:
	.loc 12 333 0
	bne+ 7,.L135
.LBE2193:
.LBE2192:
	.loc 2 1761 0
	mr 3,31
	bl _ZN8idEntity13UpdateVisualsEv
	.loc 2 1763 0
	mr 3,31
	bl _ZNK8idEntity8IsHiddenEv
	cmpwi 7,3,0
	bne+ 7,.L134
	.loc 2 1765 0
	lis 3,gameLocal@ha
	mr 4,31
	la 3,gameLocal@l(3)
	li 5,0
	bl _ZN11idGameLocal7KillBoxEP8idEntityb
.L134:
	.loc 2 1767 0
	lwz 0,76(1)
	lwz 29,60(1)
.LVL176:
	mtlr 0
	lwz 30,64(1)
.LVL177:
	lwz 31,68(1)
.LVL178:
	addi 1,1,72
.LCFI55:
	.cfi_def_cfa_offset 0
	.cfi_restore 31
	.cfi_restore 30
	.cfi_restore 29
	blr
	.cfi_endproc
.LFE2890:
	.size	_ZN7idActor8TeleportERK6idVec3RK8idAnglesP8idEntity, .-_ZN7idActor8TeleportERK6idVec3RK8idAnglesP8idEntity
	.align 2
	.globl _ZN7idActor12UnlinkCombatEv
	.type	_ZN7idActor12UnlinkCombatEv, @function
_ZN7idActor12UnlinkCombatEv:
.LFB2884:
	.loc 2 1596 0
	.cfi_startproc
.LVL179:
	mflr 0
	stwu 1,-16(1)
.LCFI56:
	.cfi_def_cfa_offset 16
	.cfi_register 65, 0
	stw 31,12(1)
	mr 31,3
	.cfi_offset 31, -4
	stw 0,20(1)
.LBB2200:
	.loc 2 1599 0
	lwz 3,2188(3)
.LVL180:
	cmpwi 7,3,0
	beq- 7,.L139
	.cfi_offset 65, 4
	.loc 2 1600 0
	bl _ZN11idClipModel6UnlinkEv
.L139:
.LVL181:
.LBB2201:
.LBB2202:
	.loc 5 634 0
	lwz 0,2424(31)
	.loc 5 635 0
	lis 9,gameLocal@ha
	la 9,gameLocal@l(9)
	.loc 5 634 0
	rlwinm 11,0,0,20,31
.LVL182:
	.loc 5 635 0
	srawi 0,0,12
	addi 10,11,4228
	slwi 10,10,2
	add 10,9,10
	lwz 10,4(10)
	cmpw 7,10,0
	beq- 7,.L141
.LVL183:
.L138:
.LBE2202:
.LBE2201:
.LBE2200:
	.loc 2 1606 0
	lwz 0,20(1)
	lwz 31,12(1)
.LVL184:
	mtlr 0
	addi 1,1,16
	.cfi_remember_state
.LCFI57:
	.cfi_def_cfa_offset 0
	.cfi_restore 31
	blr
.LVL185:
.L141:
.LCFI58:
	.cfi_restore_state
.LBB2205:
.LBB2204:
.LBB2203:
	.loc 5 636 0
	addi 11,11,132
.LVL186:
	slwi 11,11,2
.LVL187:
	add 9,9,11
	lwz 3,4(9)
.LBE2203:
.LBE2204:
	.loc 2 1603 0
	cmpwi 7,3,0
	beq- 7,.L138
	.loc 2 1604 0
	lwz 9,0(3)
	lwz 0,236(9)
	mtctr 0
	bctrl
.LBE2205:
	.loc 2 1606 0
	lwz 0,20(1)
	lwz 31,12(1)
.LVL188:
	mtlr 0
	addi 1,1,16
	.cfi_restore 31
.LCFI59:
	.cfi_def_cfa_offset 0
	blr
	.cfi_endproc
.LFE2884:
	.size	_ZN7idActor12UnlinkCombatEv, .-_ZN7idActor12UnlinkCombatEv
	.align 2
	.globl _ZN7idActor21ConstructScriptObjectEv
	.type	_ZN7idActor21ConstructScriptObjectEv, @function
_ZN7idActor21ConstructScriptObjectEv:
.LFB2859:
	.loc 2 1252 0
	.cfi_startproc
	.cfi_personality 0,__gxx_personality_v0
	.cfi_lsda 0,.LLSDA2859
.LVL189:
	stwu 1,-24(1)
.LCFI60:
	.cfi_def_cfa_offset 24
	mflr 0
	stw 30,16(1)
.LBB2206:
	.loc 2 1256 0
	addi 30,3,144
	.cfi_offset 30, -8
	.cfi_register 65, 0
.LBE2206:
	.loc 2 1252 0
	stw 31,20(1)
	mr 31,3
	.cfi_offset 31, -4
.LBB2211:
	.loc 2 1256 0
	mr 3,30
.LVL190:
.LBE2211:
	.loc 2 1252 0
	stw 0,28(1)
	stw 29,12(1)
.LEHB5:
.LBB2212:
	.loc 2 1256 0
	.cfi_offset 29, -12
	.cfi_offset 65, 4
	bl _ZNK14idScriptObject9HasObjectEv
	cmpwi 7,3,0
	beq- 7,.L149
.L143:
	.loc 2 1260 0
	lwz 9,3692(31)
	cmpwi 7,9,0
	beq- 7,.L150
.LBB2207:
.LBB2208:
	.file 13 "d:/Data/Nintendo/DoomGX/src/game/script/Script_Thread.h"
	.loc 13 237 0
	li 0,1
	stb 0,6973(9)
.L145:
.LBE2208:
.LBE2207:
	.loc 2 1271 0
	mr 3,30
	bl _ZNK14idScriptObject14GetConstructorEv
.LVL191:
	.loc 2 1272 0
	mr. 29,3
	beq- 0,.L151
	.loc 2 1277 0
	mr 3,30
.LVL192:
	bl _ZN14idScriptObject11ClearObjectEv
	.loc 2 1280 0
	lwz 3,3692(31)
	mr 4,31
	mr 5,29
	li 6,1
	bl _ZN8idThread12CallFunctionEP8idEntityPK10function_tb
.LBE2212:
	.loc 2 1283 0
	lwz 0,28(1)
	lwz 3,3692(31)
	mtlr 0
	lwz 29,12(1)
.LVL193:
	lwz 30,16(1)
	lwz 31,20(1)
.LVL194:
	addi 1,1,24
	.cfi_remember_state
.LCFI61:
	.cfi_def_cfa_offset 0
	.cfi_restore 31
	.cfi_restore 30
	.cfi_restore 29
	blr
.LVL195:
.L149:
.LCFI62:
	.cfi_restore_state
.LBB2213:
	.loc 2 1257 0
	mr 3,31
	.loc 2 3283 0
	lwz 29,72(31)
	.loc 2 1257 0
	bl _ZNK8idEntity16GetEntityDefNameEv
	lis 4,.LC21@ha
	mr 6,3
	lis 3,gameLocal@ha
	la 3,gameLocal@l(3)
	la 4,.LC21@l(4)
	mr 5,29
	crxor 6,6,6
	bl _ZNK11idGameLocal5ErrorEPKcz
	b .L143
.LVL196:
.L151:
	.loc 2 1273 0
	mr 3,30
.LVL197:
	bl _ZNK14idScriptObject11GetTypeNameEv
	lwz 6,72(31)
	mr 5,3
	lis 4,.LC22@ha
	lis 3,gameLocal@ha
	la 4,.LC22@l(4)
	la 3,gameLocal@l(3)
	crxor 6,6,6
	bl _ZNK11idGameLocal5ErrorEPKcz
	.loc 2 1277 0
	mr 3,30
	bl _ZN14idScriptObject11ClearObjectEv
	.loc 2 1280 0
	lwz 3,3692(31)
	mr 4,31
	mr 5,29
	li 6,1
	bl _ZN8idThread12CallFunctionEP8idEntityPK10function_tb
.LBE2213:
	.loc 2 1283 0
	lwz 0,28(1)
	lwz 3,3692(31)
	mtlr 0
	lwz 29,12(1)
.LVL198:
	lwz 30,16(1)
	lwz 31,20(1)
.LVL199:
	addi 1,1,24
	.cfi_remember_state
	.cfi_restore 29
	.cfi_restore 30
	.cfi_restore 31
.LCFI63:
	.cfi_def_cfa_offset 0
	blr
.LVL200:
.L150:
.LCFI64:
	.cfi_restore_state
.LBB2214:
	.loc 2 1262 0
	li 3,7068
	bl _ZN7idClassnwEj
.LEHE5:
	mr 29,3
.LEHB6:
	bl _ZN8idThreadC1Ev
.LEHE6:
	.loc 2 1262 0 is_stmt 0 discriminator 1
	stw 29,3692(31)
	.loc 2 1263 0 is_stmt 1 discriminator 1
	mr 3,29
.LEHB7:
	bl _ZN8idThread12ManualDeleteEv
	.loc 2 1264 0 discriminator 1
	lwz 3,3692(31)
.LVL201:
.LBB2209:
.LBB2210:
	.loc 13 233 0 discriminator 1
	li 0,1
	lis 4,EV_Thread_Execute@ha
	stb 0,7064(3)
	la 4,EV_Thread_Execute@l(4)
	bl _ZN7idClass12CancelEventsEPK10idEventDef
.LVL202:
.LBE2210:
.LBE2209:
	.loc 2 1265 0 discriminator 1
	lwz 3,3692(31)
	lwz 4,72(31)
	bl _ZN8idThread13SetThreadNameEPKc
.LEHE7:
	b .L145
.L148:
	mr 31,3
.LVL203:
	.loc 2 1262 0
	mr 3,29
	bl _ZN7idClassdlEPv
	mr 3,31
.LEHB8:
	bl _Unwind_Resume
.LEHE8:
.LBE2214:
	.cfi_endproc
.LFE2859:
	.section	.gcc_except_table
.LLSDA2859:
	.byte	0xff
	.byte	0xff
	.byte	0x1
	.uleb128 .LLSDACSE2859-.LLSDACSB2859
.LLSDACSB2859:
	.uleb128 .LEHB5-.LFB2859
	.uleb128 .LEHE5-.LEHB5
	.uleb128 0
	.uleb128 0
	.uleb128 .LEHB6-.LFB2859
	.uleb128 .LEHE6-.LEHB6
	.uleb128 .L148-.LFB2859
	.uleb128 0
	.uleb128 .LEHB7-.LFB2859
	.uleb128 .LEHE7-.LEHB7
	.uleb128 0
	.uleb128 0
	.uleb128 .LEHB8-.LFB2859
	.uleb128 .LEHE8-.LEHB8
	.uleb128 0
	.uleb128 0
.LLSDACSE2859:
	.section	".text"
	.size	_ZN7idActor21ConstructScriptObjectEv, .-_ZN7idActor21ConstructScriptObjectEv
	.align 2
	.globl _ZN7idActor26GetPhysicsToSoundTransformER6idVec3R6idMat3
	.type	_ZN7idActor26GetPhysicsToSoundTransformER6idVec3R6idMat3, @function
_ZN7idActor26GetPhysicsToSoundTransformER6idVec3R6idMat3:
.LFB2856:
	.loc 2 1196 0
	.cfi_startproc
.LVL204:
	mflr 0
	stwu 1,-24(1)
.LCFI65:
	.cfi_def_cfa_offset 24
	.cfi_register 65, 0
	stw 29,12(1)
	mr 29,5
	.cfi_offset 29, -12
	stw 30,16(1)
	mr 30,3
	.cfi_offset 30, -8
	stw 31,20(1)
	mr 31,4
	.cfi_offset 31, -4
	stw 0,28(1)
	.loc 2 1197 0
	lwz 0,2460(3)
	.cfi_offset 65, 4
	cmpwi 7,0,-1
	beq- 7,.L153
	.loc 2 1198 0
	lis 9,gameLocal+2426836@ha
	addi 3,3,636
.LVL205:
	lwz 5,gameLocal+2426836@l(9)
.LVL206:
	mr 4,0
.LVL207:
	mr 6,31
	mr 7,29
	bl _ZN10idAnimator17GetJointTransformE13jointHandle_tiR6idVec3R6idMat3
.LVL208:
.LBB2215:
.LBB2216:
	.loc 11 456 0
	lfs 0,2352(30)
	lfs 13,0(31)
.LBE2216:
.LBE2215:
.LBB2219:
.LBB2220:
	.loc 12 333 0
	addi 8,30,2268
.LBE2220:
.LBE2219:
.LBB2229:
.LBB2217:
	.loc 11 457 0
	lfs 12,4(31)
.LBE2217:
.LBE2229:
.LBB2230:
.LBB2227:
	.loc 12 333 0
	li 10,0
.LBE2227:
.LBE2230:
.LBB2231:
.LBB2218:
	.loc 11 456 0
	fadds 0,13,0
	.loc 11 458 0
	lfs 13,8(31)
	.loc 11 456 0
	stfs 0,0(31)
	.loc 11 457 0
	lfs 0,2356(30)
	fadds 0,12,0
	stfs 0,4(31)
	.loc 11 458 0
	lfs 0,2360(30)
	fadds 0,13,0
	stfs 0,8(31)
.LVL209:
.L154:
.LBE2218:
.LBE2231:
.LBB2232:
.LBB2228:
.LBB2221:
.LBB2222:
	.loc 11 424 0
	mr 11,8
	mr 9,29
	lwzux 0,11,10
.LBE2222:
.LBE2221:
	.loc 12 333 0
	cmpwi 7,10,24
.LBB2225:
.LBB2223:
	.loc 11 424 0
	stwux 0,9,10
.LBE2223:
.LBE2225:
	.loc 12 333 0
	addi 10,10,12
.LBB2226:
.LBB2224:
	.loc 11 425 0
	lwz 0,4(11)
	stw 0,4(9)
	.loc 11 426 0
	lwz 0,8(11)
	stw 0,8(9)
.LBE2224:
.LBE2226:
	.loc 12 333 0
	bne+ 7,.L154
.LBE2228:
.LBE2232:
	.loc 2 1206 0
	lwz 0,28(1)
	li 3,1
	lwz 29,12(1)
.LVL210:
	mtlr 0
	lwz 30,16(1)
.LVL211:
	lwz 31,20(1)
.LVL212:
	addi 1,1,24
	.cfi_remember_state
.LCFI66:
	.cfi_def_cfa_offset 0
	.cfi_restore 31
	.cfi_restore 30
	.cfi_restore 29
	blr
.LVL213:
.L153:
.LCFI67:
	.cfi_restore_state
	.loc 2 1202 0
	bl _ZNK8idEntity10GetPhysicsEv
.LVL214:
	lwz 9,0(3)
	lwz 0,164(9)
	mtctr 0
	bctrl
	lfs 0,2348(30)
.LBB2233:
.LBB2234:
	.loc 11 439 0
	lfs 12,4(3)
	lis 8,mat3_identity@ha
.LBE2234:
.LBE2233:
	.loc 2 1202 0
	fneg 0,0
.LVL215:
.LBB2237:
.LBB2235:
	.loc 11 439 0
	lfs 13,8(3)
	lfs 11,0(3)
.LBE2235:
.LBE2237:
.LBB2238:
.LBB2239:
.LBB2240:
	.loc 12 333 0
	li 10,0
	la 8,mat3_identity@l(8)
.LBE2240:
.LBE2239:
.LBE2238:
.LBB2249:
.LBB2236:
	.loc 11 439 0
	fmuls 12,0,12
	fmuls 13,0,13
.LVL216:
	fmuls 0,0,11
.LVL217:
.LBE2236:
.LBE2249:
.LBB2250:
.LBB2251:
	.loc 11 425 0
	stfs 12,4(31)
	.loc 11 426 0
	stfs 13,8(31)
.LVL218:
	.loc 11 424 0
	stfs 0,0(31)
.L156:
.LBE2251:
.LBE2250:
.LBB2252:
.LBB2248:
.LBB2247:
.LBB2241:
.LBB2242:
	mr 11,8
	mr 9,29
	lwzux 0,11,10
.LBE2242:
.LBE2241:
	.loc 12 333 0
	cmpwi 7,10,24
.LBB2245:
.LBB2243:
	.loc 11 424 0
	stwux 0,9,10
.LBE2243:
.LBE2245:
	.loc 12 333 0
	addi 10,10,12
.LBB2246:
.LBB2244:
	.loc 11 425 0
	lwz 0,4(11)
	stw 0,4(9)
	.loc 11 426 0
	lwz 0,8(11)
	stw 0,8(9)
.LBE2244:
.LBE2246:
	.loc 12 333 0
	bne+ 7,.L156
.LBE2247:
.LBE2248:
.LBE2252:
	.loc 2 1206 0
	lwz 0,28(1)
	li 3,1
.LVL219:
	lwz 29,12(1)
.LVL220:
	mtlr 0
	lwz 30,16(1)
.LVL221:
	lwz 31,20(1)
.LVL222:
	addi 1,1,24
	.cfi_restore 29
	.cfi_restore 30
	.cfi_restore 31
.LCFI68:
	.cfi_def_cfa_offset 0
	blr
	.cfi_endproc
.LFE2856:
	.size	_ZN7idActor26GetPhysicsToSoundTransformER6idVec3R6idMat3, .-_ZN7idActor26GetPhysicsToSoundTransformER6idVec3R6idMat3
	.align 2
	.globl _ZN7idActor27GetPhysicsToVisualTransformER6idVec3R6idMat3
	.type	_ZN7idActor27GetPhysicsToVisualTransformER6idVec3R6idMat3, @function
_ZN7idActor27GetPhysicsToVisualTransformER6idVec3R6idMat3:
.LFB2855:
	.loc 2 1181 0
	.cfi_startproc
.LVL223:
	mflr 0
	stwu 1,-8(1)
.LCFI69:
	.cfi_def_cfa_offset 8
	.cfi_register 65, 0
	stw 0,12(1)
	.loc 2 1182 0
	lbz 0,2185(3)
	.cfi_offset 65, 4
	cmpwi 7,0,0
	.loc 2 1181 0
	mr 0,5
	.loc 2 1182 0
	bne- 7,.L164
.LVL224:
.LBB2253:
.LBB2254:
	.loc 11 424 0
	lwz 11,2352(3)
.LBE2254:
.LBE2253:
.LBB2256:
.LBB2257:
	.loc 12 333 0
	addi 7,3,2268
	li 10,0
.LBE2257:
.LBE2256:
.LBB2265:
.LBB2255:
	.loc 11 424 0
	stw 11,0(4)
	.loc 11 425 0
	lwz 11,2356(3)
	stw 11,4(4)
	.loc 11 426 0
	lwz 11,2360(3)
	stw 11,8(4)
.LVL225:
.L162:
.LBE2255:
.LBE2265:
.LBB2266:
.LBB2264:
.LBB2258:
.LBB2259:
	.loc 11 424 0
	mr 11,7
	mr 9,0
	lwzux 8,11,10
.LBE2259:
.LBE2258:
	.loc 12 333 0
	cmpwi 7,10,24
.LBB2262:
.LBB2260:
	.loc 11 424 0
	stwux 8,9,10
.LBE2260:
.LBE2262:
	.loc 12 333 0
	addi 10,10,12
.LBB2263:
.LBB2261:
	.loc 11 425 0
	lwz 8,4(11)
	stw 8,4(9)
	.loc 11 426 0
	lwz 11,8(11)
	stw 11,8(9)
.LBE2261:
.LBE2263:
	.loc 12 333 0
	bne+ 7,.L162
.LBE2264:
.LBE2266:
	.loc 2 1189 0
	lwz 0,12(1)
.LVL226:
	li 3,1
.LVL227:
	addi 1,1,8
	.cfi_remember_state
.LCFI70:
	.cfi_def_cfa_offset 0
	mtlr 0
	blr
.LVL228:
.L164:
.LCFI71:
	.cfi_restore_state
	.loc 2 1183 0
	addi 3,3,1624
.LVL229:
	bl _ZNK4idAF27GetPhysicsToVisualTransformER6idVec3R6idMat3
.LVL230:
	.loc 2 1189 0
	lwz 0,12(1)
	li 3,1
	mtlr 0
	addi 1,1,8
.LCFI72:
	.cfi_def_cfa_offset 0
	blr
	.cfi_endproc
.LFE2855:
	.size	_ZN7idActor27GetPhysicsToVisualTransformER6idVec3R6idMat3, .-_ZN7idActor27GetPhysicsToVisualTransformER6idVec3R6idMat3
	.align 2
	.globl _ZN7idActor4ShowEv
	.type	_ZN7idActor4ShowEv, @function
_ZN7idActor4ShowEv:
.LFB2849:
	.loc 2 1018 0
	.cfi_startproc
.LVL231:
	stwu 1,-24(1)
.LCFI73:
	.cfi_def_cfa_offset 24
	mflr 0
	stw 29,12(1)
	mr 29,3
	.cfi_offset 29, -12
	.cfi_register 65, 0
	stw 0,28(1)
	stw 28,8(1)
	stw 30,16(1)
	stw 31,20(1)
.LBB2267:
	.loc 2 1022 0
	.cfi_offset 31, -4
	.cfi_offset 30, -8
	.cfi_offset 28, -16
	.cfi_offset 65, 4
	bl _ZN8idEntity4ShowEv
.LVL232:
.LBB2268:
.LBB2269:
	.loc 5 634 0
	lwz 0,2424(29)
	.loc 5 635 0
	lis 9,gameLocal@ha
	la 9,gameLocal@l(9)
	.loc 5 634 0
	rlwinm 11,0,0,20,31
.LVL233:
	.loc 5 635 0
	srawi 0,0,12
	addi 10,11,4228
	slwi 10,10,2
	add 10,9,10
	lwz 10,4(10)
	cmpw 7,10,0
	beq- 7,.L173
.LVL234:
.L166:
.LBE2269:
.LBE2268:
	.loc 2 1026 0
	mr 3,29
	bl _ZNK8idEntity17GetNextTeamEntityEv
.LVL235:
	mr. 31,3
	beq- 0,.L167
.LBB2271:
	.loc 2 3283 0
	lis 28,_ZN7idLight4TypeE@ha
.LVL236:
.L172:
.LBE2271:
	.loc 2 1027 0
	mr 3,31
	bl _ZNK8idEntity17GetNextTeamEntityEv
	mr 30,3
.LVL237:
	.loc 2 1028 0
	mr 3,31
.LVL238:
	bl _ZNK8idEntity13GetBindMasterEv
	cmpw 7,29,3
	beq- 7,.L174
.L168:
.LVL239:
	.loc 2 1026 0 discriminator 1
	cmpwi 7,30,0
	mr 31,30
	bne+ 7,.L172
.LVL240:
.L167:
	.loc 2 1035 0
	lwz 9,0(29)
	mr 3,29
	lwz 0,236(9)
	mtctr 0
	bctrl
.LBE2267:
	.loc 2 1036 0
	lwz 0,28(1)
	lwz 28,8(1)
	mtlr 0
	lwz 29,12(1)
.LVL241:
	lwz 30,16(1)
	lwz 31,20(1)
.LVL242:
	addi 1,1,24
	.cfi_remember_state
.LCFI74:
	.cfi_def_cfa_offset 0
	.cfi_restore 31
	.cfi_restore 30
	.cfi_restore 29
	.cfi_restore 28
	blr
.LVL243:
.L174:
.LCFI75:
	.cfi_restore_state
.LBB2282:
	.loc 2 1029 0
	lwz 9,0(31)
	mr 3,31
	lwz 0,80(9)
	mtctr 0
	bctrl
.LVL244:
.LBB2279:
.LBB2272:
	.loc 6 340 0
	lwz 9,0(31)
	mr 3,31
	lwz 0,0(9)
	mtctr 0
	bctrl
.LVL245:
.LBE2272:
	.loc 2 3283 0
	la 9,_ZN7idLight4TypeE@l(28)
	lwz 0,56(3)
.LBB2277:
.LBB2273:
.LBB2274:
	.loc 6 311 0
	lwz 11,56(9)
	cmpw 7,0,11
	blt- 7,.L168
	lwz 9,60(9)
.LBE2274:
.LBE2273:
.LBE2277:
.LBE2279:
	.loc 2 1031 0
	mr 3,31
.LVL246:
.LBB2280:
.LBB2278:
.LBB2276:
.LBB2275:
	.loc 6 311 0
	cmpw 7,0,9
	bgt- 7,.L168
.LBE2275:
.LBE2276:
.LBE2278:
.LBE2280:
	.loc 2 1031 0
	bl _ZN7idLight2OnEv
	b .L168
.LVL247:
.L173:
.LBB2281:
.LBB2270:
	.loc 5 636 0
	addi 11,11,132
.LVL248:
	slwi 11,11,2
.LVL249:
	add 9,9,11
	lwz 3,4(9)
.LBE2270:
.LBE2281:
	.loc 2 1023 0
	cmpwi 7,3,0
	beq- 7,.L166
.LVL250:
	.loc 2 1024 0
	lwz 9,0(3)
	lwz 0,80(9)
	mtctr 0
	bctrl
	b .L166
.LBE2282:
	.cfi_endproc
.LFE2849:
	.size	_ZN7idActor4ShowEv, .-_ZN7idActor4ShowEv
	.align 2
	.globl _ZN7idActor4HideEv
	.type	_ZN7idActor4HideEv, @function
_ZN7idActor4HideEv:
.LFB2848:
	.loc 2 992 0
	.cfi_startproc
.LVL251:
	stwu 1,-24(1)
.LCFI76:
	.cfi_def_cfa_offset 24
	mflr 0
	stw 29,12(1)
	mr 29,3
	.cfi_offset 29, -12
	.cfi_register 65, 0
	stw 0,28(1)
	stw 28,8(1)
	stw 30,16(1)
	stw 31,20(1)
.LBB2283:
	.loc 2 996 0
	.cfi_offset 31, -4
	.cfi_offset 30, -8
	.cfi_offset 28, -16
	.cfi_offset 65, 4
	bl _ZN8idEntity4HideEv
.LVL252:
.LBB2284:
.LBB2285:
	.loc 5 634 0
	lwz 0,2424(29)
	.loc 5 635 0
	lis 9,gameLocal@ha
	la 9,gameLocal@l(9)
	.loc 5 634 0
	rlwinm 11,0,0,20,31
.LVL253:
	.loc 5 635 0
	srawi 0,0,12
	addi 10,11,4228
	slwi 10,10,2
	add 10,9,10
	lwz 10,4(10)
	cmpw 7,10,0
	beq- 7,.L183
.LVL254:
.L176:
.LBE2285:
.LBE2284:
	.loc 2 1001 0
	mr 3,29
	bl _ZNK8idEntity17GetNextTeamEntityEv
.LVL255:
	mr. 31,3
	beq- 0,.L177
.LBB2287:
	.loc 2 3283 0
	lis 28,_ZN7idLight4TypeE@ha
.LVL256:
.L182:
.LBE2287:
	.loc 2 1002 0
	mr 3,31
	bl _ZNK8idEntity17GetNextTeamEntityEv
	mr 30,3
.LVL257:
	.loc 2 1003 0
	mr 3,31
.LVL258:
	bl _ZNK8idEntity13GetBindMasterEv
	cmpw 7,29,3
	beq- 7,.L184
.L178:
.LVL259:
	.loc 2 1001 0 discriminator 1
	cmpwi 7,30,0
	mr 31,30
	bne+ 7,.L182
.LVL260:
.L177:
	.loc 2 1010 0
	lwz 9,0(29)
	mr 3,29
	lwz 0,240(9)
	mtctr 0
	bctrl
.LBE2283:
	.loc 2 1011 0
	lwz 0,28(1)
	lwz 28,8(1)
	mtlr 0
	lwz 29,12(1)
.LVL261:
	lwz 30,16(1)
	lwz 31,20(1)
.LVL262:
	addi 1,1,24
	.cfi_remember_state
.LCFI77:
	.cfi_def_cfa_offset 0
	.cfi_restore 31
	.cfi_restore 30
	.cfi_restore 29
	.cfi_restore 28
	blr
.LVL263:
.L184:
.LCFI78:
	.cfi_restore_state
.LBB2298:
	.loc 2 1004 0
	lwz 9,0(31)
	mr 3,31
	lwz 0,76(9)
	mtctr 0
	bctrl
.LVL264:
.LBB2295:
.LBB2288:
	.loc 6 340 0
	lwz 9,0(31)
	mr 3,31
	lwz 0,0(9)
	mtctr 0
	bctrl
.LVL265:
.LBE2288:
	.loc 2 3283 0
	la 9,_ZN7idLight4TypeE@l(28)
	lwz 0,56(3)
.LBB2293:
.LBB2289:
.LBB2290:
	.loc 6 311 0
	lwz 11,56(9)
	cmpw 7,0,11
	blt- 7,.L178
	lwz 9,60(9)
.LBE2290:
.LBE2289:
.LBE2293:
.LBE2295:
	.loc 2 1006 0
	mr 3,31
.LVL266:
.LBB2296:
.LBB2294:
.LBB2292:
.LBB2291:
	.loc 6 311 0
	cmpw 7,0,9
	bgt- 7,.L178
.LBE2291:
.LBE2292:
.LBE2294:
.LBE2296:
	.loc 2 1006 0
	bl _ZN7idLight3OffEv
	b .L178
.LVL267:
.L183:
.LBB2297:
.LBB2286:
	.loc 5 636 0
	addi 11,11,132
.LVL268:
	slwi 11,11,2
.LVL269:
	add 9,9,11
	lwz 3,4(9)
.LBE2286:
.LBE2297:
	.loc 2 997 0
	cmpwi 7,3,0
	beq- 7,.L176
.LVL270:
	.loc 2 998 0
	lwz 9,0(3)
	lwz 0,76(9)
	mtctr 0
	bctrl
	b .L176
.LBE2298:
	.cfi_endproc
.LFE2848:
	.size	_ZN7idActor4HideEv, .-_ZN7idActor4HideEv
	.align 2
	.globl _ZN7idActor20Event_SetBlendFramesEii
	.type	_ZN7idActor20Event_SetBlendFramesEii, @function
_ZN7idActor20Event_SetBlendFramesEii:
.LFB2934:
	.loc 2 2949 0
	.cfi_startproc
.LVL271:
	.loc 2 2950 0
	cmpwi 7,4,2
	.loc 2 2949 0
	mflr 0
	stwu 1,-8(1)
.LCFI79:
	.cfi_def_cfa_offset 8
	.cfi_register 65, 0
	stw 0,12(1)
	.loc 2 2950 0
	beq- 7,.L188
	.cfi_offset 65, 4
	cmpwi 7,4,3
	beq- 7,.L189
	cmpwi 7,4,1
	beq- 7,.L192
.LBB2301:
.LBB2302:
	.loc 2 2967 0
	lis 3,gameLocal@ha
.LVL272:
	lis 4,.LC7@ha
.LVL273:
	la 3,gameLocal@l(3)
	la 4,.LC7@l(4)
	crxor 6,6,6
	bl _ZNK11idGameLocal5ErrorEPKcz
.LVL274:
.LBE2302:
.LBE2301:
	.loc 2 2970 0
	lwz 0,12(1)
	addi 1,1,8
	.cfi_remember_state
.LCFI80:
	.cfi_def_cfa_offset 0
	mtlr 0
	blr
.LVL275:
.L192:
.LCFI81:
	.cfi_restore_state
	.loc 2 2957 0
	stw 5,3828(3)
	.loc 2 2958 0
	stw 5,3832(3)
	.loc 2 2970 0
	lwz 0,12(1)
	addi 1,1,8
	.cfi_remember_state
.LCFI82:
	.cfi_def_cfa_offset 0
	mtlr 0
	blr
.L189:
.LCFI83:
	.cfi_restore_state
	.loc 2 2952 0
	stw 5,3764(3)
	.loc 2 2953 0
	stw 5,3768(3)
	.loc 2 2970 0
	lwz 0,12(1)
	addi 1,1,8
	.cfi_remember_state
.LCFI84:
	.cfi_def_cfa_offset 0
	mtlr 0
	blr
.L188:
.LCFI85:
	.cfi_restore_state
	.loc 2 2962 0
	stw 5,3892(3)
	.loc 2 2963 0
	stw 5,3896(3)
	.loc 2 2970 0
	lwz 0,12(1)
	addi 1,1,8
.LCFI86:
	.cfi_def_cfa_offset 0
	mtlr 0
	blr
	.cfi_endproc
.LFE2934:
	.size	_ZN7idActor20Event_SetBlendFramesEii, .-_ZN7idActor20Event_SetBlendFramesEii
	.align 2
	.globl _ZN7idActor20Event_GetBlendFramesEi
	.type	_ZN7idActor20Event_GetBlendFramesEi, @function
_ZN7idActor20Event_GetBlendFramesEi:
.LFB2935:
	.loc 2 2977 0
	.cfi_startproc
.LVL276:
	.loc 2 2978 0
	cmpwi 7,4,2
	.loc 2 2977 0
	mflr 0
	stwu 1,-8(1)
.LCFI87:
	.cfi_def_cfa_offset 8
	.cfi_register 65, 0
	stw 0,12(1)
	.loc 2 2978 0
	beq- 7,.L196
	.cfi_offset 65, 4
	cmpwi 7,4,3
	beq- 7,.L197
	cmpwi 7,4,1
	beq- 7,.L200
.LBB2305:
.LBB2306:
	.loc 2 2992 0
	lis 3,gameLocal@ha
.LVL277:
	lis 4,.LC7@ha
.LVL278:
	la 3,gameLocal@l(3)
	la 4,.LC7@l(4)
	crxor 6,6,6
	bl _ZNK11idGameLocal5ErrorEPKcz
.LBE2306:
.LBE2305:
	.loc 2 2995 0
	lwz 0,12(1)
	addi 1,1,8
	.cfi_remember_state
.LCFI88:
	.cfi_def_cfa_offset 0
	mtlr 0
	blr
.LVL279:
.L200:
.LCFI89:
	.cfi_restore_state
	.loc 2 2984 0
	lwz 3,3828(3)
.LVL280:
	bl _ZN8idThread9ReturnIntEi
.LVL281:
	.loc 2 2995 0
	lwz 0,12(1)
	addi 1,1,8
	.cfi_remember_state
.LCFI90:
	.cfi_def_cfa_offset 0
	mtlr 0
	blr
.LVL282:
.L197:
.LCFI91:
	.cfi_restore_state
	.loc 2 2980 0
	lwz 3,3764(3)
.LVL283:
	bl _ZN8idThread9ReturnIntEi
.LVL284:
	.loc 2 2995 0
	lwz 0,12(1)
	addi 1,1,8
	.cfi_remember_state
.LCFI92:
	.cfi_def_cfa_offset 0
	mtlr 0
	blr
.LVL285:
.L196:
.LCFI93:
	.cfi_restore_state
	.loc 2 2988 0
	lwz 3,3892(3)
.LVL286:
	bl _ZN8idThread9ReturnIntEi
.LVL287:
	.loc 2 2995 0
	lwz 0,12(1)
	addi 1,1,8
.LCFI94:
	.cfi_def_cfa_offset 0
	mtlr 0
	blr
	.cfi_endproc
.LFE2935:
	.size	_ZN7idActor20Event_GetBlendFramesEi, .-_ZN7idActor20Event_GetBlendFramesEi
	.align 2
	.globl _ZN7idActor26UpdateAnimationControllersEv
	.type	_ZN7idActor26UpdateAnimationControllersEv, @function
_ZN7idActor26UpdateAnimationControllersEv:
.LFB2887:
	.loc 2 1681 0
	.cfi_startproc
.LVL288:
	mflr 0
	stwu 1,-16(1)
.LCFI95:
	.cfi_def_cfa_offset 16
	.cfi_register 65, 0
	mr 9,3
	stw 31,12(1)
	stw 0,20(1)
	.loc 2 1683 0
	lbz 0,2185(3)
	.cfi_offset 65, 4
	.cfi_offset 31, -4
	cmpwi 7,0,0
	bne- 7,.L205
	.loc 2 1689 0
	addi 31,9,2464
	.loc 2 1686 0
	addi 3,3,636
.LVL289:
	bl _ZN10idAnimator11ClearAFPoseEv
.LVL290:
	.loc 2 1689 0
	mr 3,31
	bl _ZNK4idIK13IsInitializedEv
	cmpwi 7,3,0
	.loc 2 1694 0
	li 3,0
	.loc 2 1689 0
	bne- 7,.L206
	.loc 2 1695 0
	lwz 0,20(1)
	lwz 31,12(1)
.LVL291:
	mtlr 0
	addi 1,1,16
	.cfi_remember_state
.LCFI96:
	.cfi_def_cfa_offset 0
	.cfi_restore 31
	blr
.LVL292:
.L206:
.LCFI97:
	.cfi_restore_state
	.loc 2 1690 0
	mr 3,31
	bl _ZN9idIK_Walk8EvaluateEv
	.loc 2 1695 0
	lwz 0,20(1)
	lwz 31,12(1)
.LVL293:
	.loc 2 1691 0
	li 3,1
	.loc 2 1695 0
	mtlr 0
	addi 1,1,16
	.cfi_remember_state
	.cfi_restore 31
.LCFI98:
	.cfi_def_cfa_offset 0
	blr
.LVL294:
.L205:
.LCFI99:
	.cfi_restore_state
.LBB2309:
.LBB2310:
	.loc 2 1684 0
	bl _ZN15idAFEntity_Base26UpdateAnimationControllersEv
.LVL295:
.LBE2310:
.LBE2309:
	.loc 2 1695 0
	lwz 0,20(1)
	lwz 31,12(1)
	mtlr 0
	addi 1,1,16
	.cfi_restore 31
.LCFI100:
	.cfi_def_cfa_offset 0
	blr
	.cfi_endproc
.LFE2887:
	.size	_ZN7idActor26UpdateAnimationControllersEv, .-_ZN7idActor26UpdateAnimationControllersEv
	.align 2
	.globl _ZN7idActor18Event_FinishActionEPKc
	.type	_ZN7idActor18Event_FinishActionEPKc, @function
_ZN7idActor18Event_FinishActionEPKc:
.LFB2939:
	.loc 2 3035 0
	.cfi_startproc
.LVL296:
	mflr 0
	stwu 1,-16(1)
.LCFI101:
	.cfi_def_cfa_offset 16
	.cfi_register 65, 0
	stw 31,12(1)
	mr 31,3
	.cfi_offset 31, -4
	stw 0,20(1)
.LBB2319:
.LBB2320:
	.loc 9 653 0
	lwz 3,3700(3)
.LVL297:
	.cfi_offset 65, 4
	bl _ZN5idStr3CmpEPKcS1_
.LVL298:
.LBE2320:
.LBE2319:
	.loc 2 3036 0
	cmpwi 7,3,0
	bne+ 7,.L207
.LVL299:
.LBB2321:
.LBB2322:
.LBB2323:
.LBB2324:
	.loc 2 2012 0
	lis 4,.LC3@ha
	addi 3,31,3696
	la 4,.LC3@l(4)
	bl _ZN5idStraSEPKc
.LVL300:
.L207:
.LBE2324:
.LBE2323:
.LBE2322:
.LBE2321:
	.loc 2 3039 0
	lwz 0,20(1)
	lwz 31,12(1)
.LVL301:
	mtlr 0
	addi 1,1,16
.LCFI102:
	.cfi_def_cfa_offset 0
	.cfi_restore 31
	blr
	.cfi_endproc
.LFE2939:
	.size	_ZN7idActor18Event_FinishActionEPKc, .-_ZN7idActor18Event_FinishActionEPKc
	.align 2
	.globl _ZN7idActor21Event_DisableEyeFocusEv
	.type	_ZN7idActor21Event_DisableEyeFocusEv, @function
_ZN7idActor21Event_DisableEyeFocusEv:
.LFB2916:
	.loc 2 2444 0
	.cfi_startproc
.LVL302:
	mflr 0
	stwu 1,-16(1)
.LCFI103:
	.cfi_def_cfa_offset 16
	.cfi_register 65, 0
.LBB2333:
	.loc 2 2445 0
	li 10,0
.LBE2333:
	.loc 2 2444 0
	stw 31,12(1)
.LBB2342:
.LBB2334:
.LBB2335:
	.loc 5 635 0
	lis 31,gameLocal@ha
	.cfi_offset 31, -4
.LBE2335:
.LBE2334:
.LBE2342:
	.loc 2 2444 0
	stw 0,20(1)
.LBB2343:
.LBB2339:
.LBB2336:
	.loc 5 635 0
	la 31,gameLocal@l(31)
.LBE2336:
.LBE2339:
	.loc 2 2445 0
	stb 10,3921(3)
.LVL303:
.LBB2340:
.LBB2337:
	.loc 5 634 0
	lwz 0,2424(3)
	.cfi_offset 65, 4
	rlwinm 9,0,0,20,31
.LVL304:
	.loc 5 635 0
	srawi 0,0,12
	addi 11,9,4228
	slwi 11,11,2
	add 11,31,11
	lwz 11,4(11)
	cmpw 7,11,0
	beq- 7,.L212
.LVL305:
.L210:
.LBE2337:
.LBE2340:
.LBE2343:
.LBB2344:
.LBB2345:
	.loc 2 2451 0
	addis 31,31,0x25
	addi 3,3,636
.LVL306:
	lwz 5,2004(31)
	li 4,4
	li 6,83
	bl _ZN10idAnimator5ClearEiii
.LVL307:
.LBE2345:
.LBE2344:
	.loc 2 2453 0
	lwz 0,20(1)
	lwz 31,12(1)
	mtlr 0
	addi 1,1,16
	.cfi_remember_state
.LCFI104:
	.cfi_def_cfa_offset 0
	.cfi_restore 31
	blr
.LVL308:
.L212:
.LCFI105:
	.cfi_restore_state
.LBB2346:
.LBB2341:
.LBB2338:
	.loc 5 636 0
	addi 9,9,132
.LVL309:
	slwi 9,9,2
.LVL310:
	add 9,31,9
	lwz 11,4(9)
.LBE2338:
.LBE2341:
	.loc 2 2448 0
	cmpwi 7,11,0
	beq- 7,.L210
	.loc 2 2449 0
	lwz 9,0(11)
	mr 3,11
.LVL311:
	addis 31,31,0x25
	lwz 0,92(9)
	mtctr 0
	bctrl
.LVL312:
	lwz 5,2004(31)
	li 4,4
	li 6,83
	bl _ZN10idAnimator5ClearEiii
.LBE2346:
	.loc 2 2453 0
	lwz 0,20(1)
	lwz 31,12(1)
	mtlr 0
	addi 1,1,16
	.cfi_restore 31
.LCFI106:
	.cfi_def_cfa_offset 0
	blr
	.cfi_endproc
.LFE2916:
	.size	_ZN7idActor21Event_DisableEyeFocusEv, .-_ZN7idActor21Event_DisableEyeFocusEv
	.align 2
	.globl _ZN7idActor3GibERK6idVec3PKc
	.type	_ZN7idActor3GibERK6idVec3PKc, @function
_ZN7idActor3GibERK6idVec3PKc:
.LFB2906:
	.loc 2 2129 0
	.cfi_startproc
.LVL313:
	stwu 1,-16(1)
.LCFI107:
	.cfi_def_cfa_offset 16
	mflr 0
	stw 31,12(1)
	.loc 2 2131 0
	lis 31,gameLocal@ha
	.cfi_offset 31, -4
	.cfi_register 65, 0
	.loc 2 2129 0
	stw 30,8(1)
	.loc 2 2131 0
	la 31,gameLocal@l(31)
	.loc 2 2129 0
	stw 0,20(1)
	.loc 2 2131 0
	addis 9,31,0x25
	.loc 2 2129 0
	mr 30,3
	.cfi_offset 65, 4
	.cfi_offset 30, -8
	.loc 2 2131 0
	lbz 0,2016(9)
	cmpwi 7,0,0
	bne- 7,.L213
	.loc 2 2135 0
	lbz 0,2256(3)
	cmpwi 7,0,0
	beq- 7,.L216
.L213:
	.loc 2 2143 0
	lwz 0,20(1)
	lwz 30,8(1)
	mtlr 0
	lwz 31,12(1)
	addi 1,1,16
	.cfi_remember_state
.LCFI108:
	.cfi_def_cfa_offset 0
	.cfi_restore 31
	.cfi_restore 30
	blr
.L216:
.LCFI109:
	.cfi_restore_state
.LVL314:
.LBB2353:
.LBB2354:
	.loc 2 2138 0
	bl _ZN19idAFEntity_Gibbable3GibERK6idVec3PKc
.LVL315:
.LBB2355:
.LBB2356:
	.loc 5 634 0
	lwz 0,2424(30)
	rlwinm 9,0,0,20,31
.LVL316:
	.loc 5 635 0
	srawi 0,0,12
	addi 11,9,4228
	slwi 11,11,2
	add 11,31,11
	lwz 11,4(11)
	cmpw 7,11,0
	beq- 7,.L217
.LVL317:
.L215:
.LBE2356:
.LBE2355:
	.loc 2 2142 0
	mr 3,30
	li 4,1
	li 5,0
	bl _ZN8idEntity9StopSoundEib
.L218:
.LBE2354:
.LBE2353:
	.loc 2 2143 0
	lwz 0,20(1)
	lwz 30,8(1)
.LVL318:
	mtlr 0
	lwz 31,12(1)
	addi 1,1,16
	.cfi_remember_state
	.cfi_restore 30
	.cfi_restore 31
.LCFI110:
	.cfi_def_cfa_offset 0
	blr
.LVL319:
.L217:
.LCFI111:
	.cfi_restore_state
.LBB2360:
.LBB2359:
.LBB2358:
.LBB2357:
	.loc 5 636 0
	addi 9,9,132
.LVL320:
	slwi 9,9,2
.LVL321:
	add 31,31,9
	lwz 3,4(31)
.LBE2357:
.LBE2358:
	.loc 2 2139 0
	cmpwi 7,3,0
	beq- 7,.L215
.LVL322:
	.loc 2 2140 0
	lwz 9,0(3)
	lwz 0,76(9)
	mtctr 0
	bctrl
	.loc 2 2142 0
	mr 3,30
	li 4,1
	li 5,0
	bl _ZN8idEntity9StopSoundEib
	b .L218
.LBE2359:
.LBE2360:
	.cfi_endproc
.LFE2906:
	.size	_ZN7idActor3GibERK6idVec3PKc, .-_ZN7idActor3GibERK6idVec3PKc
	.align 2
	.globl _ZN7idActor10LinkCombatEv
	.type	_ZN7idActor10LinkCombatEv, @function
_ZN7idActor10LinkCombatEv:
.LFB2883:
	.loc 2 1575 0
	.cfi_startproc
.LVL323:
	mflr 0
	stwu 1,-16(1)
.LCFI112:
	.cfi_def_cfa_offset 16
	.cfi_register 65, 0
	stw 31,12(1)
	mr 31,3
	.cfi_offset 31, -4
	stw 0,20(1)
.LBB2367:
	.loc 2 1578 0
	lwz 0,192(3)
	.cfi_offset 65, 4
	andis. 9,0,4096
	bne- 0,.L219
	.loc 2 1578 0 is_stmt 0 discriminator 1
	lbz 0,2420(3)
	cmpwi 7,0,0
	bne- 7,.L219
.LVL324:
.LBE2367:
.LBB2368:
.LBB2369:
	.loc 2 1582 0 is_stmt 1
	lwz 3,2188(3)
.LVL325:
	cmpwi 7,3,0
	beq- 7,.L221
	.loc 2 1583 0
	lis 4,gameLocal+2311032@ha
	lwz 9,412(31)
	la 4,gameLocal+2311032@l(4)
	mr 5,31
	li 6,0
	addi 7,31,256
	addi 8,31,268
	bl _ZN11idClipModel4LinkER6idClipP8idEntityiRK6idVec3RK6idMat3i
.L221:
.LVL326:
.LBB2370:
.LBB2371:
	.loc 5 634 0
	lwz 0,2424(31)
	.loc 5 635 0
	lis 9,gameLocal@ha
	la 9,gameLocal@l(9)
	.loc 5 634 0
	rlwinm 11,0,0,20,31
.LVL327:
	.loc 5 635 0
	srawi 0,0,12
	addi 10,11,4228
	slwi 10,10,2
	add 10,9,10
	lwz 10,4(10)
	cmpw 7,10,0
	beq- 7,.L222
.LVL328:
.L219:
.LBE2371:
.LBE2370:
.LBE2369:
.LBE2368:
	.loc 2 1589 0
	lwz 0,20(1)
	lwz 31,12(1)
.LVL329:
	mtlr 0
	addi 1,1,16
	.cfi_remember_state
.LCFI113:
	.cfi_def_cfa_offset 0
	.cfi_restore 31
	blr
.LVL330:
.L222:
.LCFI114:
	.cfi_restore_state
.LBB2375:
.LBB2374:
.LBB2373:
.LBB2372:
	.loc 5 636 0
	addi 11,11,132
.LVL331:
	slwi 11,11,2
.LVL332:
	add 9,9,11
	lwz 3,4(9)
.LBE2372:
.LBE2373:
	.loc 2 1586 0
	cmpwi 7,3,0
	beq- 7,.L219
	.loc 2 1587 0
	lwz 9,0(3)
	lwz 0,232(9)
	mtctr 0
	bctrl
.LBE2374:
.LBE2375:
	.loc 2 1589 0
	lwz 0,20(1)
	lwz 31,12(1)
.LVL333:
	mtlr 0
	addi 1,1,16
	.cfi_restore 31
.LCFI115:
	.cfi_def_cfa_offset 0
	blr
	.cfi_endproc
.LFE2883:
	.size	_ZN7idActor10LinkCombatEv, .-_ZN7idActor10LinkCombatEv
	.align 2
	.type	_Z41__static_initialization_and_destruction_0ii.constprop.66, @function
_Z41__static_initialization_and_destruction_0ii.constprop.66:
.LFB3374:
	.loc 2 3283 0
	.cfi_startproc
.LVL334:
	cmpwi 7,3,1
	mflr 0
	stwu 1,-56(1)
.LCFI116:
	.cfi_def_cfa_offset 56
	.cfi_register 65, 0
	stw 0,60(1)
	stw 27,36(1)
	stw 28,40(1)
	stw 29,44(1)
	stw 30,48(1)
	stw 31,52(1)
	.loc 2 3283 0
	beq- 7,.L226
	.cfi_offset 31, -4
	.cfi_offset 30, -8
	.cfi_offset 29, -12
	.cfi_offset 28, -16
	.cfi_offset 27, -20
	.cfi_offset 65, 4
	.loc 2 368 0
	cmpwi 7,3,0
	bne- 7,.L223
	lis 3,.LANCHOR0@ha
.LVL335:
	la 3,.LANCHOR0@l(3)
	bl _ZN10idTypeInfoD1Ev
.L223:
	.loc 2 3283 0
	lwz 0,60(1)
	lwz 27,36(1)
	mtlr 0
	lwz 28,40(1)
	lwz 29,44(1)
	lwz 30,48(1)
	lwz 31,52(1)
	addi 1,1,56
	.cfi_remember_state
.LCFI117:
	.cfi_def_cfa_offset 0
	.cfi_restore 31
	.cfi_restore 30
	.cfi_restore 29
	.cfi_restore 28
	.cfi_restore 27
	blr
.LVL336:
.L226:
.LCFI118:
	.cfi_restore_state
	.loc 5 694 0
	lis 9,_ZN6idMath8M_SEC2MSE@ha
	.loc 5 121 0
	lis 31,.LANCHOR0@ha
	.loc 5 694 0
	lfs 0,_ZN6idMath8M_SEC2MSE@l(9)
	.loc 5 121 0
	la 31,.LANCHOR0@l(31)
	li 11,3
.LBB2376:
.LBB2377:
	.loc 11 396 0
	li 0,0
.LBE2377:
.LBE2376:
	.loc 5 694 0
	fadds 0,0,0
	.loc 5 121 0
	stw 11,80(31)
.LVL337:
.LBB2381:
.LBB2378:
	.loc 11 398 0
	lis 11,.LC23@ha
	.loc 11 396 0
	stw 0,84(31)
	.loc 11 397 0
	stw 0,88(31)
.LBE2378:
.LBE2381:
.LBB2382:
.LBB2383:
	.loc 4 825 0
	addi 9,31,96
.LBE2383:
.LBE2382:
.LBB2386:
.LBB2379:
	.loc 11 398 0
	lwz 0,.LC23@l(11)
.LBE2379:
.LBE2386:
.LBB2387:
.LBB2384:
	.loc 4 825 0
	fctiwz 0,0
.LBE2384:
.LBE2387:
	.loc 2 327 0
	lis 4,.LC24@ha
	addi 3,31,104
.LVL338:
.LBB2388:
.LBB2380:
	.loc 11 398 0
	stw 0,92(31)
.LVL339:
.LBE2380:
.LBE2388:
	.file 14 "d:/Data/Nintendo/DoomGX/src/game/Player.h"
	.loc 14 69 0
	li 0,10
	stw 0,100(31)
	.loc 2 327 0
	la 4,.LC24@l(4)
.LBB2389:
.LBB2385:
	.loc 4 825 0
	stfiwx 0,0,9
.LVL340:
.LBE2385:
.LBE2389:
	.loc 2 327 0
	li 5,0
	li 6,0
	.loc 2 334 0
	lis 29,.LC32@ha
	.loc 2 327 0
	bl _ZN10idEventDefC1EPKcS1_c
	.loc 2 328 0
	lis 4,.LC25@ha
	addi 3,31,168
	la 4,.LC25@l(4)
	li 5,0
	li 6,0
	bl _ZN10idEventDefC1EPKcS1_c
	.loc 2 329 0
	lis 4,.LC26@ha
	addi 3,31,232
	la 4,.LC26@l(4)
	li 5,0
	li 6,0
	bl _ZN10idEventDefC1EPKcS1_c
	.loc 2 330 0
	lis 4,.LC27@ha
	addi 3,31,296
	la 4,.LC27@l(4)
	li 5,0
	li 6,0
	bl _ZN10idEventDefC1EPKcS1_c
	.loc 2 331 0
	lis 4,.LC28@ha
	addi 3,31,360
	la 4,.LC28@l(4)
	li 5,0
	li 6,0
	bl _ZN10idEventDefC1EPKcS1_c
	.loc 2 332 0
	lis 4,.LC29@ha
	addi 3,31,424
	la 4,.LC29@l(4)
	li 5,0
	li 6,0
	bl _ZN10idEventDefC1EPKcS1_c
	.loc 2 333 0
	lis 4,.LC30@ha
	addi 3,31,488
	la 4,.LC30@l(4)
	li 5,0
	li 6,0
	bl _ZN10idEventDefC1EPKcS1_c
	.loc 2 334 0
	la 29,.LC32@l(29)
	lis 4,.LC31@ha
	addi 3,31,552
	mr 5,29
	la 4,.LC31@l(4)
	li 6,0
	.loc 2 336 0
	lis 27,.LC35@ha
	.loc 2 334 0
	bl _ZN10idEventDefC1EPKcS1_c
	.loc 2 335 0
	lis 4,.LC33@ha
	addi 3,31,616
	mr 5,29
	la 4,.LC33@l(4)
	li 6,0
	bl _ZN10idEventDefC1EPKcS1_c
	.loc 2 336 0
	la 27,.LC35@l(27)
	lis 4,.LC34@ha
	addi 3,31,680
	mr 5,27
	la 4,.LC34@l(4)
	li 6,0
	.loc 2 337 0
	lis 30,.LC37@ha
	la 30,.LC37@l(30)
	.loc 2 336 0
	bl _ZN10idEventDefC1EPKcS1_c
	.loc 2 337 0
	lis 4,.LC36@ha
	addi 3,31,744
	mr 5,30
	la 4,.LC36@l(4)
	li 6,100
	.loc 2 346 0
	lis 28,.LC49@ha
	.loc 2 337 0
	bl _ZN10idEventDefC1EPKcS1_c
	.loc 2 338 0
	lis 4,.LC38@ha
	addi 3,31,808
	mr 5,30
	la 4,.LC38@l(4)
	li 6,100
	bl _ZN10idEventDefC1EPKcS1_c
	.loc 2 339 0
	lis 4,.LC39@ha
	addi 3,31,872
	mr 5,30
	la 4,.LC39@l(4)
	li 6,100
	bl _ZN10idEventDefC1EPKcS1_c
	.loc 2 340 0
	lis 4,.LC40@ha
	lis 5,.LC41@ha
	addi 3,31,936
	la 4,.LC40@l(4)
	la 5,.LC41@l(5)
	li 6,0
	.loc 2 346 0
	la 28,.LC49@l(28)
	.loc 2 340 0
	bl _ZN10idEventDefC1EPKcS1_c
	.loc 2 341 0
	lis 4,.LC42@ha
	addi 3,31,1000
	mr 5,27
	la 4,.LC42@l(4)
	li 6,0
	bl _ZN10idEventDefC1EPKcS1_c
	.loc 2 342 0
	lis 4,.LC43@ha
	addi 3,31,1064
	mr 5,29
	la 4,.LC43@l(4)
	li 6,100
	bl _ZN10idEventDefC1EPKcS1_c
	.loc 2 343 0
	lis 4,.LC44@ha
	lis 5,.LC45@ha
	addi 3,31,1128
	la 4,.LC44@l(4)
	la 5,.LC45@l(5)
	li 6,0
	bl _ZN10idEventDefC1EPKcS1_c
	.loc 2 344 0
	lis 4,.LC46@ha
	addi 3,31,1192
	mr 5,29
	la 4,.LC46@l(4)
	li 6,115
	bl _ZN10idEventDefC1EPKcS1_c
	.loc 2 345 0
	lis 4,.LC47@ha
	addi 3,31,1256
	mr 5,30
	la 4,.LC47@l(4)
	li 6,100
	bl _ZN10idEventDefC1EPKcS1_c
	.loc 2 346 0
	lis 4,.LC48@ha
	addi 3,31,1320
	mr 5,28
	la 4,.LC48@l(4)
	li 6,0
	bl _ZN10idEventDefC1EPKcS1_c
	.loc 2 347 0
	lis 4,.LC50@ha
	addi 3,31,1384
	mr 5,27
	la 4,.LC50@l(4)
	li 6,100
	bl _ZN10idEventDefC1EPKcS1_c
	.loc 2 348 0
	lis 4,.LC51@ha
	addi 3,31,1448
	mr 5,29
	la 4,.LC51@l(4)
	li 6,0
	bl _ZN10idEventDefC1EPKcS1_c
	.loc 2 349 0
	lis 4,.LC52@ha
	addi 3,31,1512
	mr 5,27
	la 4,.LC52@l(4)
	li 6,0
	bl _ZN10idEventDefC1EPKcS1_c
	.loc 2 350 0
	lis 4,.LC53@ha
	lis 5,.LC54@ha
	addi 3,31,1576
	la 4,.LC53@l(4)
	la 5,.LC54@l(5)
	li 6,0
	bl _ZN10idEventDefC1EPKcS1_c
	.loc 2 351 0
	lis 4,.LC55@ha
	addi 3,31,1640
	la 4,.LC55@l(4)
	li 5,0
	li 6,0
	bl _ZN10idEventDefC1EPKcS1_c
	.loc 2 352 0
	lis 4,.LC56@ha
	addi 3,31,1704
	la 4,.LC56@l(4)
	li 5,0
	li 6,0
	bl _ZN10idEventDefC1EPKcS1_c
	.loc 2 353 0
	lis 4,.LC57@ha
	addi 3,31,1768
	la 4,.LC57@l(4)
	li 5,0
	li 6,115
	bl _ZN10idEventDefC1EPKcS1_c
	.loc 2 354 0
	lis 4,.LC58@ha
	addi 3,31,1832
	mr 5,28
	la 4,.LC58@l(4)
	li 6,0
	bl _ZN10idEventDefC1EPKcS1_c
	.loc 2 355 0
	lis 4,.LC59@ha
	addi 3,31,1896
	mr 5,30
	la 4,.LC59@l(4)
	li 6,102
	bl _ZN10idEventDefC1EPKcS1_c
	.loc 2 356 0
	lis 4,.LC60@ha
	addi 3,31,1960
	mr 5,30
	la 4,.LC60@l(4)
	li 6,0
	bl _ZN10idEventDefC1EPKcS1_c
	.loc 2 357 0
	lis 4,.LC61@ha
	addi 3,31,2024
	mr 5,30
	la 4,.LC61@l(4)
	li 6,115
	bl _ZN10idEventDefC1EPKcS1_c
	.loc 2 358 0
	lis 4,.LC62@ha
	addi 3,31,2088
	mr 5,30
	la 4,.LC62@l(4)
	li 6,102
	bl _ZN10idEventDefC1EPKcS1_c
	.loc 2 359 0
	lis 4,.LC63@ha
	addi 3,31,2152
	mr 5,30
	la 4,.LC63@l(4)
	li 6,102
	bl _ZN10idEventDefC1EPKcS1_c
	.loc 2 360 0
	lis 4,.LC64@ha
	addi 3,31,2216
	la 4,.LC64@l(4)
	li 5,0
	li 6,100
	bl _ZN10idEventDefC1EPKcS1_c
	.loc 2 361 0
	lis 4,.LC65@ha
	lis 5,.LC66@ha
	addi 3,31,2280
	la 4,.LC65@l(4)
	la 5,.LC66@l(5)
	li 6,101
	bl _ZN10idEventDefC1EPKcS1_c
	.loc 2 362 0
	lis 4,.LC67@ha
	lis 5,.LC68@ha
	addi 3,31,2344
	la 4,.LC67@l(4)
	la 5,.LC68@l(5)
	li 6,101
	bl _ZN10idEventDefC1EPKcS1_c
	.loc 2 363 0
	lis 4,.LC69@ha
	addi 3,31,2408
	mr 5,28
	la 4,.LC69@l(4)
	li 6,0
	bl _ZN10idEventDefC1EPKcS1_c
	.loc 2 364 0
	lis 4,.LC70@ha
	addi 3,31,2472
	mr 5,28
	la 4,.LC70@l(4)
	li 6,0
	bl _ZN10idEventDefC1EPKcS1_c
	.loc 2 365 0
	lis 4,.LC71@ha
	addi 3,31,2536
	la 4,.LC71@l(4)
	li 5,0
	li 6,115
	bl _ZN10idEventDefC1EPKcS1_c
	.loc 2 366 0
	lis 4,.LC72@ha
	addi 3,31,2600
	la 4,.LC72@l(4)
	li 5,0
	li 6,101
	bl _ZN10idEventDefC1EPKcS1_c
	.loc 2 368 0
	lis 11,_ZN7idActor5SpawnEv@ha
	la 11,_ZN7idActor5SpawnEv@l(11)
	lis 4,.LC73@ha
	stw 11,8(1)
	lis 11,_ZNK7idActor4SaveEP10idSaveGame@ha
	la 11,_ZNK7idActor4SaveEP10idSaveGame@l(11)
	lis 5,.LC74@ha
	stw 11,16(1)
	lis 6,.LANCHOR1@ha
	lis 7,_ZN7idActor14CreateInstanceEv@ha
	lis 11,_ZN7idActor7RestoreEP13idRestoreGame@ha
	li 0,0
	la 11,_ZN7idActor7RestoreEP13idRestoreGame@l(11)
	mr 3,31
	la 4,.LC73@l(4)
	la 5,.LC74@l(5)
	la 6,.LANCHOR1@l(6)
	la 7,_ZN7idActor14CreateInstanceEv@l(7)
	addi 8,1,8
	addi 9,1,16
	addi 10,1,24
	stw 0,12(1)
	stw 0,20(1)
	stw 11,24(1)
	stw 0,28(1)
	bl _ZN10idTypeInfoC1EPKcS1_P11idEventFuncI7idClassEPFPS3_vEMS3_FvvEMS3_KFvP10idSaveGameEMS3_FvP13idRestoreGameE
	b .L223
	.cfi_endproc
.LFE3374:
	.size	_Z41__static_initialization_and_destruction_0ii.constprop.66, .-_Z41__static_initialization_and_destruction_0ii.constprop.66
	.section	.text._ZN14idFixedWindingD2Ev,"axG",@progbits,_ZN14idFixedWindingD5Ev,comdat
	.align 2
	.weak	_ZN14idFixedWindingD2Ev
	.type	_ZN14idFixedWindingD2Ev, @function
_ZN14idFixedWindingD2Ev:
.LFB1498:
	.loc 1 380 0
	.cfi_startproc
.LVL341:
.LBB2395:
	.loc 1 381 0
	li 0,0
.LBB2396:
.LBB2397:
.LBB2398:
	.loc 1 183 0
	lis 9,_ZTV9idWinding+8@ha
.LBE2398:
.LBE2397:
.LBE2396:
	.loc 1 381 0
	stw 0,8(3)
.LVL342:
.LBB2401:
.LBB2400:
.LBB2399:
	.loc 1 183 0
	la 0,_ZTV9idWinding+8@l(9)
	stw 0,0(3)
.LBE2399:
.LBE2400:
.LBE2401:
.LBE2395:
	.loc 1 382 0
	blr
	.cfi_endproc
.LFE1498:
	.size	_ZN14idFixedWindingD2Ev, .-_ZN14idFixedWindingD2Ev
	.section	.text._ZN14idFixedWindingD0Ev,"axG",@progbits,_ZN14idFixedWindingD5Ev,comdat
	.align 2
	.weak	_ZN14idFixedWindingD0Ev
	.type	_ZN14idFixedWindingD0Ev, @function
_ZN14idFixedWindingD0Ev:
.LFB1500:
	.loc 1 380 0
	.cfi_startproc
.LVL343:
	mflr 0
	stwu 1,-8(1)
.LCFI119:
	.cfi_def_cfa_offset 8
	.cfi_register 65, 0
.LBB2408:
.LBB2409:
.LBB2410:
.LBB2411:
.LBB2412:
.LBB2413:
	.loc 1 183 0
	lis 11,_ZTV9idWinding+8@ha
.LBE2413:
.LBE2412:
.LBE2411:
.LBE2410:
.LBE2409:
.LBE2408:
	.loc 1 380 0
	stw 0,12(1)
.LBB2419:
.LBB2418:
.LBB2417:
	.loc 1 381 0
	li 0,0
	.cfi_offset 65, 4
	stw 0,8(3)
.LVL344:
.LBB2416:
.LBB2415:
.LBB2414:
	.loc 1 183 0
	la 0,_ZTV9idWinding+8@l(11)
	stw 0,0(3)
.LBE2414:
.LBE2415:
.LBE2416:
.LBE2417:
.LBE2418:
.LBE2419:
	.loc 1 382 0
	bl _ZdlPv
.LVL345:
	lwz 0,12(1)
	addi 1,1,8
.LCFI120:
	.cfi_def_cfa_offset 0
	mtlr 0
	blr
	.cfi_endproc
.LFE1500:
	.size	_ZN14idFixedWindingD0Ev, .-_ZN14idFixedWindingD0Ev
	.section	.text._ZN9idWindingD0Ev,"axG",@progbits,_ZN9idWindingD5Ev,comdat
	.align 2
	.weak	_ZN9idWindingD0Ev
	.type	_ZN9idWindingD0Ev, @function
_ZN9idWindingD0Ev:
.LFB1463:
	.loc 1 183 0
	.cfi_startproc
.LVL346:
	mflr 0
	stwu 1,-16(1)
.LCFI121:
	.cfi_def_cfa_offset 16
	.cfi_register 65, 0
.LBB2423:
.LBB2424:
.LBB2425:
	lis 9,_ZTV9idWinding+8@ha
.LBE2425:
.LBE2424:
.LBE2423:
	stw 31,12(1)
	mr 31,3
	.cfi_offset 31, -4
.LVL347:
	stw 0,20(1)
.LBB2430:
.LBB2428:
.LBB2426:
	.loc 1 183 0
	la 0,_ZTV9idWinding+8@l(9)
	.cfi_offset 65, 4
	.loc 1 184 0
	lwz 3,8(3)
.LVL348:
	.loc 1 183 0
	stw 0,0(31)
	.loc 1 184 0
	cmpwi 7,3,0
	beq- 7,.L235
	bl _ZdaPv
.L235:
	.loc 1 185 0
	li 0,0
.LBE2426:
.LBE2428:
.LBE2430:
	.loc 1 186 0
	mr 3,31
.LBB2431:
.LBB2429:
.LBB2427:
	.loc 1 185 0
	stw 0,8(31)
.LBE2427:
.LBE2429:
.LBE2431:
	.loc 1 186 0
	bl _ZdlPv
	lwz 0,20(1)
	lwz 31,12(1)
.LVL349:
	mtlr 0
	addi 1,1,16
.LCFI122:
	.cfi_def_cfa_offset 0
	.cfi_restore 31
	blr
	.cfi_endproc
.LFE1463:
	.size	_ZN9idWindingD0Ev, .-_ZN9idWindingD0Ev
	.section	".text"
	.align 2
	.globl _ZN7idActor6LoadAFEv
	.type	_ZN7idActor6LoadAFEv, @function
_ZN7idActor6LoadAFEv:
.LFB2852:
	.loc 2 1073 0
	.cfi_startproc
	.cfi_personality 0,__gxx_personality_v0
	.cfi_lsda 0,.LLSDA2852
.LVL350:
	mflr 0
	stwu 1,-56(1)
.LCFI123:
	.cfi_def_cfa_offset 56
	.cfi_register 65, 0
.LVL351:
.LBB2453:
.LBB2454:
.LBB2455:
.LBB2456:
	.loc 9 357 0
	li 9,20
.LBE2456:
.LBE2455:
.LBE2454:
.LBB2463:
.LBB2464:
	.file 15 "d:/Data/Nintendo/DoomGX/src/game/../idlib/../idlib/Dict.h"
	.loc 15 231 0
	lis 4,.LC75@ha
.LBE2464:
.LBE2463:
.LBE2453:
	.loc 2 1073 0
	stw 29,44(1)
.LBB2512:
.LBB2488:
.LBB2480:
	.loc 15 231 0
	la 4,.LC75@l(4)
.LBE2480:
.LBE2488:
.LBE2512:
	.loc 2 1073 0
	stw 0,60(1)
	mr 29,3
	.cfi_offset 65, 4
	.cfi_offset 29, -12
.LBB2513:
.LBB2489:
.LBB2460:
.LBB2457:
	.loc 9 356 0
	li 0,0
	.loc 9 357 0
	stw 9,16(1)
.LBE2457:
.LBE2460:
.LBE2489:
.LBB2490:
.LBB2481:
	.loc 15 231 0
	addi 3,3,100
.LVL352:
.LBE2481:
.LBE2490:
.LBB2491:
.LBB2461:
.LBB2458:
	.loc 9 358 0
	addi 9,1,20
.LBE2458:
.LBE2461:
.LBE2491:
.LBE2513:
	.loc 2 1073 0
	stw 30,48(1)
	addi 30,1,8
	.cfi_offset 30, -8
	stw 28,40(1)
	stw 31,52(1)
.LBB2514:
.LBB2492:
.LBB2462:
.LBB2459:
	.loc 9 356 0
	stw 0,8(1)
	.loc 9 358 0
	stw 9,12(1)
	.loc 9 359 0
	stb 0,20(1)
.LVL353:
.LEHB9:
.LBE2459:
.LBE2462:
.LBE2492:
.LBB2493:
.LBB2482:
	.loc 15 231 0
	.cfi_offset 31, -4
	.cfi_offset 28, -16
	bl _ZNK6idDict7FindKeyEPKc
.LVL354:
	.loc 15 232 0
	cmpwi 0,3,0
	beq- 0,.L239
.LBE2482:
	.loc 2 3283 0
	lwz 28,4(3)
.LVL355:
	addi 30,1,8
.LBB2483:
.LBB2465:
.LBB2466:
.LBB2467:
.LBB2468:
	.loc 9 350 0
	lwz 0,16(1)
.LBE2468:
.LBE2467:
.LBE2466:
	.loc 2 3283 0
	lwz 31,0(28)
.LBB2473:
	.loc 9 534 0
	addi 4,31,1
.LVL356:
.LBB2471:
.LBB2469:
	.loc 9 350 0
	cmpw 7,4,0
	bgt- 7,.L252
.LBE2469:
.LBE2471:
	.loc 9 535 0
	lwz 3,12(1)
.LVL357:
	mr 5,31
	lwz 4,4(28)
.LVL358:
	bl memcpy
.LBE2473:
.LBE2465:
.LBE2483:
.LBE2493:
	.loc 2 1076 0
	cmpwi 7,31,0
.LBB2494:
.LBB2484:
.LBB2477:
.LBB2474:
	.loc 9 536 0
	lwz 9,12(1)
	li 0,0
	stbx 0,9,31
	.loc 9 537 0
	stw 31,8(1)
.LBE2474:
.LBE2477:
.LBE2484:
.LBE2494:
	.loc 2 1076 0
	beq- 7,.L241
.L253:
	.loc 2 1079 0
	lwz 9,0(29)
	mr 3,29
	lwz 0,92(9)
	mtctr 0
	bctrl
.LVL359:
.LBB2495:
.LBB2496:
	.loc 8 63 0
	stw 3,2088(29)
.LVL360:
.LBE2496:
.LBE2495:
	.loc 2 1080 0
	mr 4,29
	lwz 5,12(1)
	addi 3,29,1624
.LVL361:
	bl _ZN4idAF4LoadEP8idEntityPKc
.LEHE9:
.LVL362:
	.loc 2 1080 0 is_stmt 0 discriminator 1
	mr 31,3
.LVL363:
.LBB2497:
.LBB2498:
.LBB2499:
	.loc 9 501 0 is_stmt 1 discriminator 1
	mr 3,30
.LEHB10:
	bl _ZN5idStr8FreeDataEv
.LEHE10:
.LBE2499:
.LBE2498:
.LBE2497:
.LBE2514:
	.loc 2 1081 0 discriminator 1
	lwz 0,60(1)
	mr 3,31
	lwz 28,40(1)
.LVL364:
	mtlr 0
	lwz 29,44(1)
.LVL365:
	lwz 30,48(1)
	lwz 31,52(1)
	addi 1,1,56
	.cfi_remember_state
.LCFI124:
	.cfi_def_cfa_offset 0
	.cfi_restore 31
	.cfi_restore 30
	.cfi_restore 29
	.cfi_restore 28
	blr
.LVL366:
.L239:
.LCFI125:
	.cfi_restore_state
.LBB2515:
.LBB2504:
.LBB2485:
	.loc 15 236 0
	addi 30,1,8
	lis 4,.LC76@ha
	mr 3,30
.LVL367:
	la 4,.LC76@l(4)
.LEHB11:
	bl _ZN5idStraSEPKc
.LEHE11:
.L241:
.LBE2485:
.LBE2504:
.LBB2505:
.LBB2502:
.LBB2500:
	.loc 9 501 0 discriminator 4
	mr 3,30
.LBE2500:
.LBE2502:
.LBE2505:
.LBE2515:
	.loc 2 1077 0 discriminator 4
	li 31,0
.LVL368:
.LEHB12:
.LBB2516:
.LBB2506:
.LBB2503:
.LBB2501:
	.loc 9 501 0 discriminator 4
	bl _ZN5idStr8FreeDataEv
.LEHE12:
.LBE2501:
.LBE2503:
.LBE2506:
.LBE2516:
	.loc 2 1081 0 discriminator 4
	lwz 0,60(1)
	mr 3,31
	lwz 28,40(1)
	mtlr 0
	lwz 29,44(1)
.LVL369:
	lwz 30,48(1)
	lwz 31,52(1)
	addi 1,1,56
	.cfi_remember_state
	.cfi_restore 28
	.cfi_restore 29
	.cfi_restore 30
	.cfi_restore 31
.LCFI126:
	.cfi_def_cfa_offset 0
	blr
.LVL370:
.L252:
.LCFI127:
	.cfi_restore_state
.LBB2517:
.LBB2507:
.LBB2486:
.LBB2478:
.LBB2475:
.LBB2472:
.LBB2470:
	.loc 9 351 0
	mr 3,30
.LVL371:
	li 5,0
.LEHB13:
	bl _ZN5idStr10ReAllocateEib
.LEHE13:
.LVL372:
.LBE2470:
.LBE2472:
	.loc 9 535 0
	lwz 3,12(1)
	mr 5,31
	lwz 4,4(28)
	bl memcpy
.LBE2475:
.LBE2478:
.LBE2486:
.LBE2507:
	.loc 2 1076 0
	cmpwi 7,31,0
.LBB2508:
.LBB2487:
.LBB2479:
.LBB2476:
	.loc 9 536 0
	lwz 9,12(1)
	li 0,0
	stbx 0,9,31
	.loc 9 537 0
	stw 31,8(1)
.LBE2476:
.LBE2479:
.LBE2487:
.LBE2508:
	.loc 2 1076 0
	beq- 7,.L241
	b .L253
.LVL373:
.L248:
	mr 31,3
.LVL374:
.LBB2509:
.LBB2510:
.LBB2511:
	.loc 9 501 0
	mr 3,30
	bl _ZN5idStr8FreeDataEv
	mr 3,31
.LEHB14:
	bl _Unwind_Resume
.LEHE14:
.LBE2511:
.LBE2510:
.LBE2509:
.LBE2517:
	.cfi_endproc
.LFE2852:
	.section	.gcc_except_table
.LLSDA2852:
	.byte	0xff
	.byte	0xff
	.byte	0x1
	.uleb128 .LLSDACSE2852-.LLSDACSB2852
.LLSDACSB2852:
	.uleb128 .LEHB9-.LFB2852
	.uleb128 .LEHE9-.LEHB9
	.uleb128 .L248-.LFB2852
	.uleb128 0
	.uleb128 .LEHB10-.LFB2852
	.uleb128 .LEHE10-.LEHB10
	.uleb128 0
	.uleb128 0
	.uleb128 .LEHB11-.LFB2852
	.uleb128 .LEHE11-.LEHB11
	.uleb128 .L248-.LFB2852
	.uleb128 0
	.uleb128 .LEHB12-.LFB2852
	.uleb128 .LEHE12-.LEHB12
	.uleb128 0
	.uleb128 0
	.uleb128 .LEHB13-.LFB2852
	.uleb128 .LEHE13-.LEHB13
	.uleb128 .L248-.LFB2852
	.uleb128 0
	.uleb128 .LEHB14-.LFB2852
	.uleb128 .LEHE14-.LEHB14
	.uleb128 0
	.uleb128 0
.LLSDACSE2852:
	.section	".text"
	.size	_ZN7idActor6LoadAFEv, .-_ZN7idActor6LoadAFEv
	.align 2
	.globl _ZN7idActor14ProjectOverlayERK6idVec3S2_fPKc
	.type	_ZN7idActor14ProjectOverlayERK6idVec3S2_fPKc, @function
_ZN7idActor14ProjectOverlayERK6idVec3S2_fPKc:
.LFB2851:
	.loc 2 1052 0
	.cfi_startproc
.LVL375:
	stwu 1,-48(1)
.LCFI128:
	.cfi_def_cfa_offset 48
	mflr 0
	stw 29,28(1)
	mr 29,3
	.cfi_offset 29, -20
	.cfi_register 65, 0
	stw 0,52(1)
	stfd 31,40(1)
	fmr 31,1
	.cfi_offset 63, -8
	.cfi_offset 65, 4
	stw 26,16(1)
	mr 26,6
	.cfi_offset 26, -32
	stw 27,20(1)
	mr 27,5
	.cfi_offset 27, -28
	stw 28,24(1)
	mr 28,4
	.cfi_offset 28, -24
	stw 31,36(1)
	stw 24,8(1)
	stw 25,12(1)
	stw 30,32(1)
.LBB2525:
	.loc 2 1056 0
	.cfi_offset 30, -16
	.cfi_offset 25, -36
	.cfi_offset 24, -40
	.cfi_offset 31, -12
	bl _ZN8idEntity14ProjectOverlayERK6idVec3S2_fPKc
.LVL376:
	.loc 2 1058 0
	mr 3,29
	bl _ZNK8idEntity17GetNextTeamEntityEv
.LVL377:
	mr. 31,3
	beq- 0,.L254
.LBB2526:
.LBB2527:
.LBB2528:
.LBB2529:
	.loc 15 241 0
	lis 25,.LC78@ha
	.loc 15 245 0
	lis 24,.LC77@ha
	.loc 15 241 0
	la 25,.LC78@l(25)
	b .L263
.LVL378:
.L256:
.LBE2529:
.LBE2528:
.LBE2527:
.LBE2526:
	.loc 2 1058 0 discriminator 1
	cmpwi 7,30,0
	mr 31,30
	beq- 7,.L254
.LVL379:
.L263:
	.loc 2 1059 0
	mr 3,31
	bl _ZNK8idEntity17GetNextTeamEntityEv
	mr 30,3
.LVL380:
	.loc 2 1060 0
	mr 3,31
.LVL381:
	bl _ZNK8idEntity13GetBindMasterEv
	cmpw 7,29,3
	bne+ 7,.L256
	.loc 2 1061 0
	lwz 0,192(31)
	andis. 9,0,8192
	beq+ 0,.L256
.LVL382:
.LBB2537:
.LBB2535:
.LBB2533:
.LBB2531:
	.loc 15 241 0 discriminator 1
	mr 4,25
	addi 3,31,100
	bl _ZNK6idDict7FindKeyEPKc
.LVL383:
	.loc 15 242 0 discriminator 1
	cmpwi 0,3,0
	beq- 0,.L260
.LVL384:
.LBB2530:
	.loc 2 3283 0
	lwz 9,4(3)
	lwz 3,4(9)
.LVL385:
.L258:
.LBE2530:
.LBE2531:
.LBE2533:
	.loc 15 257 0
	bl atoi
.LBE2535:
.LBE2537:
	.loc 2 1062 0
	mr 4,28
	.loc 2 1061 0
	cmpwi 7,3,0
	.loc 2 1062 0
	mr 5,27
	mr 3,31
	fmr 1,31
	mr 6,26
	.loc 2 1061 0
	beq- 7,.L256
	.loc 2 1062 0 discriminator 4
	lwz 9,0(31)
	.loc 2 1058 0 discriminator 4
	mr 31,30
.LVL386:
	.loc 2 1062 0 discriminator 4
	lwz 0,84(9)
	mtctr 0
	bctrl
.LVL387:
	.loc 2 1058 0 discriminator 4
	cmpwi 7,30,0
	bne+ 7,.L263
.LVL388:
.L254:
.LBE2525:
	.loc 2 1066 0
	lwz 0,52(1)
	lwz 24,8(1)
	mtlr 0
	lwz 25,12(1)
	lwz 26,16(1)
.LVL389:
	lwz 27,20(1)
.LVL390:
	lwz 28,24(1)
.LVL391:
	lwz 29,28(1)
.LVL392:
	lwz 30,32(1)
	lwz 31,36(1)
.LVL393:
	lfd 31,40(1)
.LVL394:
	addi 1,1,48
	.cfi_remember_state
.LCFI129:
	.cfi_def_cfa_offset 0
	.cfi_restore 63
	.cfi_restore 31
	.cfi_restore 30
	.cfi_restore 29
	.cfi_restore 28
	.cfi_restore 27
	.cfi_restore 26
	.cfi_restore 25
	.cfi_restore 24
	blr
.LVL395:
.L260:
.LCFI130:
	.cfi_restore_state
.LBB2539:
.LBB2538:
.LBB2536:
.LBB2534:
.LBB2532:
	.loc 15 245 0
	la 3,.LC77@l(24)
.LVL396:
	b .L258
.LBE2532:
.LBE2534:
.LBE2536:
.LBE2538:
.LBE2539:
	.cfi_endproc
.LFE2851:
	.size	_ZN7idActor14ProjectOverlayERK6idVec3S2_fPKc, .-_ZN7idActor14ProjectOverlayERK6idVec3S2_fPKc
	.align 2
	.globl _ZN11idAnimStateC2Ev
	.type	_ZN11idAnimStateC2Ev, @function
_ZN11idAnimStateC2Ev:
.LFB2811:
	.loc 2 46 0
	.cfi_startproc
	.cfi_personality 0,__gxx_personality_v0
	.cfi_lsda 0,.LLSDA2811
.LVL397:
	mflr 0
	stwu 1,-16(1)
.LCFI131:
	.cfi_def_cfa_offset 16
	.cfi_register 65, 0
.LBB2540:
.LBB2541:
.LBB2542:
.LBB2543:
	.loc 9 358 0
	addi 9,3,16
	.loc 9 357 0
	li 11,20
.LBE2543:
.LBE2542:
.LBE2541:
.LBE2540:
	.loc 2 46 0
	stw 31,12(1)
	mr 31,3
	.cfi_offset 31, -4
.LVL398:
	stw 0,20(1)
.LBB2553:
.LBB2548:
.LBB2546:
.LBB2544:
	.loc 9 356 0
	li 0,0
	.cfi_offset 65, 4
.LBE2544:
.LBE2546:
.LBE2548:
.LBE2553:
	.loc 2 46 0
	stw 30,8(1)
.LBB2554:
	.loc 2 48 0
	li 4,64
.LBB2549:
.LBB2547:
.LBB2545:
	.loc 9 356 0
	stw 0,4(3)
	.loc 9 357 0
	stw 11,12(3)
	.loc 9 358 0
	stw 9,8(3)
	.loc 9 359 0
	stb 0,16(3)
.LBE2545:
.LBE2547:
.LBE2549:
	.loc 2 48 0
	lis 3,.LC79@ha
.LVL399:
	la 3,.LC79@l(3)
.LEHB15:
	.cfi_offset 30, -8
	crxor 6,6,6
	bl _Z15Sys_DebugPrintfPKcz
.LEHE15:
	.loc 2 51 0
	li 0,0
	.loc 2 54 0
	li 9,1
	.loc 2 51 0
	stw 0,44(31)
	.loc 2 52 0
	stw 0,48(31)
	.loc 2 53 0
	stw 0,52(31)
	.loc 2 54 0
	stb 9,0(31)
	.loc 2 55 0
	stb 9,60(31)
	.loc 2 56 0
	stw 0,56(31)
	.loc 2 57 0
	stw 0,36(31)
	.loc 2 58 0
	stw 0,40(31)
.LBE2554:
	.loc 2 59 0
	lwz 0,20(1)
	lwz 30,8(1)
	mtlr 0
	lwz 31,12(1)
.LVL400:
	addi 1,1,16
	.cfi_remember_state
.LCFI132:
	.cfi_def_cfa_offset 0
	.cfi_restore 31
	.cfi_restore 30
	blr
.LVL401:
.L267:
.LCFI133:
	.cfi_restore_state
	mr 30,3
.LVL402:
.LBB2555:
.LBB2550:
.LBB2551:
.LBB2552:
	.loc 9 501 0
	addi 3,31,4
	bl _ZN5idStr8FreeDataEv
	mr 3,30
.LEHB16:
	bl _Unwind_Resume
.LEHE16:
.LBE2552:
.LBE2551:
.LBE2550:
.LBE2555:
	.cfi_endproc
.LFE2811:
	.section	.gcc_except_table
.LLSDA2811:
	.byte	0xff
	.byte	0xff
	.byte	0x1
	.uleb128 .LLSDACSE2811-.LLSDACSB2811
.LLSDACSB2811:
	.uleb128 .LEHB15-.LFB2811
	.uleb128 .LEHE15-.LEHB15
	.uleb128 .L267-.LFB2811
	.uleb128 0
	.uleb128 .LEHB16-.LFB2811
	.uleb128 .LEHE16-.LEHB16
	.uleb128 0
	.uleb128 0
.LLSDACSE2811:
	.section	".text"
	.size	_ZN11idAnimStateC2Ev, .-_ZN11idAnimStateC2Ev
	.align 2
	.globl _ZN11idAnimStateD2Ev
	.type	_ZN11idAnimStateD2Ev, @function
_ZN11idAnimStateD2Ev:
.LFB2814:
	.loc 2 66 0
	.cfi_startproc
	.cfi_personality 0,__gxx_personality_v0
	.cfi_lsda 0,.LLSDA2814
.LVL403:
	mflr 0
	stwu 1,-16(1)
.LCFI134:
	.cfi_def_cfa_offset 16
	.cfi_register 65, 0
	stw 31,12(1)
	mr 31,3
	.cfi_offset 31, -4
	stw 0,20(1)
	stw 30,8(1)
.LBB2556:
	.loc 2 67 0
	lwz 3,52(3)
.LVL404:
	cmpwi 7,3,0
	beq- 7,.L269
	.cfi_offset 30, -8
	.cfi_offset 65, 4
	.loc 2 67 0 is_stmt 0 discriminator 1
	lwz 9,0(3)
	lwz 0,8(9)
	mtctr 0
.LEHB17:
	bctrl
.LEHE17:
.L269:
.LVL405:
.LBB2557:
.LBB2558:
.LBB2559:
	.loc 9 501 0 is_stmt 1
	addi 3,31,4
.LEHB18:
	bl _ZN5idStr8FreeDataEv
.LEHE18:
.LBE2559:
.LBE2558:
.LBE2557:
.LBE2556:
	.loc 2 68 0
	lwz 0,20(1)
	lwz 30,8(1)
	mtlr 0
	lwz 31,12(1)
.LVL406:
	addi 1,1,16
	.cfi_remember_state
.LCFI135:
	.cfi_def_cfa_offset 0
	.cfi_restore 31
	.cfi_restore 30
	blr
.LVL407:
.L274:
.LCFI136:
	.cfi_restore_state
	mr 30,3
.LVL408:
.LBB2563:
.LBB2560:
.LBB2561:
.LBB2562:
	.loc 9 501 0
	addi 3,31,4
	bl _ZN5idStr8FreeDataEv
	mr 3,30
.LEHB19:
	bl _Unwind_Resume
.LEHE19:
.LBE2562:
.LBE2561:
.LBE2560:
.LBE2563:
	.cfi_endproc
.LFE2814:
	.section	.gcc_except_table
.LLSDA2814:
	.byte	0xff
	.byte	0xff
	.byte	0x1
	.uleb128 .LLSDACSE2814-.LLSDACSB2814
.LLSDACSB2814:
	.uleb128 .LEHB17-.LFB2814
	.uleb128 .LEHE17-.LEHB17
	.uleb128 .L274-.LFB2814
	.uleb128 0
	.uleb128 .LEHB18-.LFB2814
	.uleb128 .LEHE18-.LEHB18
	.uleb128 0
	.uleb128 0
	.uleb128 .LEHB19-.LFB2814
	.uleb128 .LEHE19-.LEHB19
	.uleb128 0
	.uleb128 0
.LLSDACSE2814:
	.section	".text"
	.size	_ZN11idAnimStateD2Ev, .-_ZN11idAnimStateD2Ev
	.align 2
	.globl _ZNK11idAnimState4SaveEP10idSaveGame
	.type	_ZNK11idAnimState4SaveEP10idSaveGame, @function
_ZNK11idAnimState4SaveEP10idSaveGame:
.LFB2816:
	.loc 2 75 0
	.cfi_startproc
.LVL409:
	mflr 0
	stwu 1,-16(1)
.LCFI137:
	.cfi_def_cfa_offset 16
	.cfi_register 65, 0
	stw 30,8(1)
	mr 30,4
	.cfi_offset 30, -8
	stw 0,20(1)
	stw 31,12(1)
	.loc 2 75 0
	mr 31,3
	.cfi_offset 31, -4
	.cfi_offset 65, 4
	.loc 2 77 0
	lwz 4,44(3)
.LVL410:
	mr 3,30
.LVL411:
	bl _ZN10idSaveGame11WriteObjectEPK7idClass
	.loc 2 80 0
	lwz 3,48(31)
	bl _ZNK10idAnimator9GetEntityEv
	mr 4,3
	mr 3,30
	bl _ZN10idSaveGame11WriteObjectEPK7idClass
	.loc 2 82 0
	lwz 4,52(31)
	mr 3,30
	bl _ZN10idSaveGame11WriteObjectEPK7idClass
.LVL412:
	.loc 2 84 0
	lwz 4,8(31)
	mr 3,30
	bl _ZN10idSaveGame11WriteStringEPKc
	.loc 2 86 0
	lwz 4,36(31)
	mr 3,30
	bl _ZN10idSaveGame8WriteIntEi
	.loc 2 87 0
	lwz 4,40(31)
	mr 3,30
	bl _ZN10idSaveGame8WriteIntEi
	.loc 2 88 0
	lwz 4,56(31)
	mr 3,30
	bl _ZN10idSaveGame8WriteIntEi
	.loc 2 89 0
	lbz 4,0(31)
	mr 3,30
	bl _ZN10idSaveGame9WriteBoolEb
	.loc 2 90 0
	lbz 4,60(31)
	mr 3,30
	bl _ZN10idSaveGame9WriteBoolEb
	.loc 2 91 0
	lwz 0,20(1)
	lwz 30,8(1)
.LVL413:
	mtlr 0
	lwz 31,12(1)
.LVL414:
	addi 1,1,16
.LCFI138:
	.cfi_def_cfa_offset 0
	.cfi_restore 31
	.cfi_restore 30
	blr
	.cfi_endproc
.LFE2816:
	.size	_ZNK11idAnimState4SaveEP10idSaveGame, .-_ZNK11idAnimState4SaveEP10idSaveGame
	.align 2
	.globl _ZNK7idActor4SaveEP10idSaveGame
	.type	_ZNK7idActor4SaveEP10idSaveGame, @function
_ZNK7idActor4SaveEP10idSaveGame:
.LFB2846:
	.loc 2 772 0
	.cfi_startproc
	.cfi_personality 0,__gxx_personality_v0
	.cfi_lsda 0,.LLSDA2846
.LVL415:
	mflr 0
	stwu 1,-320(1)
.LCFI139:
	.cfi_def_cfa_offset 320
	.cfi_register 65, 0
	stw 30,312(1)
	mr 30,4
	.cfi_offset 30, -8
	stw 0,324(1)
	stw 31,316(1)
	mr 31,3
	.cfi_offset 31, -4
	.cfi_offset 65, 4
	stw 27,300(1)
	stw 28,304(1)
	stw 29,308(1)
.LBB2564:
	.loc 2 776 0
	lwz 4,2260(3)
.LVL416:
	mr 3,30
.LVL417:
.LEHB20:
	.cfi_offset 29, -12
	.cfi_offset 28, -16
	.cfi_offset 27, -20
	bl _ZN10idSaveGame8WriteIntEi
	.loc 2 777 0
	lwz 4,2264(31)
	mr 3,30
	bl _ZN10idSaveGame8WriteIntEi
	.loc 2 778 0
	addi 4,31,2268
	mr 3,30
	bl _ZN10idSaveGame9WriteMat3ERK6idMat3
	.loc 2 3283 0
	lwz 11,2320(31)
.LVL418:
.LBB2565:
.LBB2566:
	.loc 7 141 0
	li 4,0
	.loc 7 142 0
	lwz 9,4(11)
.LVL419:
	cmpw 7,11,9
	beq- 7,.L277
.LVL420:
.L278:
	lwz 9,4(9)
.LVL421:
	.loc 7 143 0
	addi 4,4,1
.LVL422:
	.loc 7 142 0
	cmpw 7,11,9
	bne+ 7,.L278
.LVL423:
.L277:
.LBE2566:
.LBE2565:
	.loc 2 780 0
	mr 3,30
	bl _ZN10idSaveGame8WriteIntEi
.LVL424:
	.loc 2 3283 0
	lwz 9,2324(31)
	lwz 0,2320(31)
.LBB2567:
.LBB2568:
	.loc 7 268 0
	cmpwi 7,9,0
	beq- 7,.L279
.L320:
.LBE2568:
.LBE2567:
.LBB2570:
.LBB2571:
	cmpw 7,0,9
	beq- 7,.L279
.LBE2571:
.LBE2570:
.LBB2573:
.LBB2569:
	.loc 7 271 0
	lwz 29,12(9)
.LVL425:
.LBE2569:
.LBE2573:
	.loc 2 781 0
	cmpwi 7,29,0
	beq- 7,.L279
	.loc 2 782 0 discriminator 2
	mr 3,30
	mr 4,29
	bl _ZN10idSaveGame11WriteObjectEPK7idClass
.LVL426:
	.loc 2 3283 0 discriminator 2
	lwz 9,2308(29)
	lwz 0,2304(29)
.LBB2574:
.LBB2572:
	.loc 7 268 0 discriminator 2
	cmpwi 7,9,0
	bne+ 7,.L320
.LVL427:
.L279:
.LBE2572:
.LBE2574:
	.loc 2 785 0
	lfs 1,2336(31)
	mr 3,30
	bl _ZN10idSaveGame10WriteFloatEf
	.loc 2 786 0
	mr 3,30
	addi 4,31,2340
	bl _ZN10idSaveGame9WriteVec3ERK6idVec3
	.loc 2 787 0
	mr 3,30
	addi 4,31,2352
	bl _ZN10idSaveGame9WriteVec3ERK6idVec3
	.loc 2 788 0
	mr 3,30
	addi 4,31,2364
	bl _ZN10idSaveGame11WriteAnglesERK8idAngles
	.loc 2 790 0
	lwz 4,2376(31)
	mr 3,30
	bl _ZN10idSaveGame8WriteIntEi
	.loc 2 791 0
	lwz 4,2380(31)
	mr 3,30
	bl _ZN10idSaveGame8WriteIntEi
	.loc 2 792 0
	lwz 4,2384(31)
	mr 3,30
	bl _ZN10idSaveGame8WriteIntEi
	.loc 2 794 0
	lwz 4,2388(31)
	mr 3,30
	bl _ZN10idSaveGame8WriteIntEi
.LVL428:
	.loc 2 795 0
	lwz 0,2388(31)
	cmpwi 7,0,0
	ble- 7,.L281
	li 29,0
.LVL429:
.L282:
.LBB2575:
	.loc 2 3283 0 discriminator 2
	lwz 9,2400(31)
	slwi 0,29,5
.LBE2575:
	.loc 2 796 0 discriminator 2
	mr 3,30
	.loc 2 795 0 discriminator 2
	addi 29,29,1
.LVL430:
.LBB2576:
	.loc 2 3283 0 discriminator 2
	add 9,9,0
.LBE2576:
	.loc 2 796 0 discriminator 2
	lwz 4,4(9)
	bl _ZN10idSaveGame11WriteStringEPKc
.LVL431:
	.loc 2 795 0 discriminator 2
	lwz 0,2388(31)
	cmpw 7,0,29
	bgt+ 7,.L282
.LVL432:
.L281:
	.loc 2 799 0
	lwz 4,2404(31)
	mr 3,30
	bl _ZN10idSaveGame8WriteIntEi
.LVL433:
	.loc 2 800 0
	lwz 0,2404(31)
	cmpwi 7,0,0
	ble- 7,.L283
	li 29,0
.LVL434:
.L284:
	.loc 2 801 0 discriminator 2
	lwz 9,2416(31)
	slwi 0,29,2
	mr 3,30
	.loc 2 800 0 discriminator 2
	addi 29,29,1
.LVL435:
	.loc 2 801 0 discriminator 2
	lfsx 1,9,0
	bl _ZN10idSaveGame10WriteFloatEf
.LVL436:
	.loc 2 800 0 discriminator 2
	lwz 0,2404(31)
	cmpw 7,0,29
	bgt+ 7,.L284
.LVL437:
.L283:
	.loc 2 804 0
	lbz 4,2420(31)
	mr 3,30
	bl _ZN10idSaveGame9WriteBoolEb
.LVL438:
.LBB2577:
.LBB2578:
	.loc 5 595 0
	lwz 4,2424(31)
	mr 3,30
	bl _ZN10idSaveGame8WriteIntEi
.LBE2578:
.LBE2577:
	.loc 2 807 0
	lwz 4,2428(31)
	mr 3,30
	bl _ZN10idSaveGame8WriteIntEi
.LVL439:
	.loc 2 808 0
	lwz 0,2428(31)
	cmpwi 7,0,0
	ble- 7,.L285
	li 29,0
	li 28,0
.LVL440:
.L286:
	.loc 2 809 0 discriminator 2
	lwz 9,2440(31)
	mr 3,30
	.loc 2 808 0 discriminator 2
	addi 28,28,1
.LVL441:
	.loc 2 809 0 discriminator 2
	lwzx 4,9,29
	bl _ZN10idSaveGame8WriteIntEi
	.loc 2 810 0 discriminator 2
	lwz 9,2440(31)
	mr 3,30
	add 9,9,29
	lwz 4,4(9)
	bl _ZN10idSaveGame10WriteJointE13jointHandle_t
	.loc 2 811 0 discriminator 2
	lwz 9,2440(31)
	mr 3,30
	add 9,9,29
	.loc 2 808 0 discriminator 2
	addi 29,29,12
	.loc 2 811 0 discriminator 2
	lwz 4,8(9)
	bl _ZN10idSaveGame10WriteJointE13jointHandle_t
.LVL442:
	.loc 2 808 0 discriminator 2
	lwz 0,2428(31)
	cmpw 7,0,28
	bgt+ 7,.L286
.LVL443:
.L285:
	.loc 2 814 0
	lwz 4,2452(31)
	mr 3,30
	bl _ZN10idSaveGame10WriteJointE13jointHandle_t
	.loc 2 815 0
	lwz 4,2456(31)
	mr 3,30
	bl _ZN10idSaveGame10WriteJointE13jointHandle_t
	.loc 2 816 0
	lwz 4,2460(31)
	mr 3,30
	bl _ZN10idSaveGame10WriteJointE13jointHandle_t
	.loc 2 818 0
	mr 4,30
	addi 3,31,2464
	bl _ZNK9idIK_Walk4SaveEP10idSaveGame
.LVL444:
	.loc 2 820 0
	lwz 4,3616(31)
	mr 3,30
	bl _ZN10idSaveGame11WriteStringEPKc
.LVL445:
	.loc 2 821 0
	lwz 4,3648(31)
	mr 3,30
	bl _ZN10idSaveGame11WriteStringEPKc
	.loc 2 823 0
	lwz 4,3676(31)
	mr 3,30
	bl _ZN10idSaveGame8WriteIntEi
	.loc 2 824 0
	lwz 4,3680(31)
	mr 3,30
	bl _ZN10idSaveGame8WriteIntEi
	.loc 2 825 0
	lwz 4,3684(31)
	mr 3,30
	bl _ZN10idSaveGame8WriteIntEi
	.loc 2 826 0
	lwz 4,3688(31)
	mr 3,30
	bl _ZN10idSaveGame8WriteIntEi
	.loc 2 829 0
	lwz 4,3692(31)
	mr 3,30
	bl _ZN10idSaveGame11WriteObjectEPK7idClass
.LVL446:
	.loc 2 831 0
	lwz 4,3700(31)
	mr 3,30
	bl _ZN10idSaveGame11WriteStringEPKc
	.loc 2 833 0
	addi 3,31,3728
	mr 4,30
	bl _ZNK11idAnimState4SaveEP10idSaveGame
	.loc 2 834 0
	addi 3,31,3792
	mr 4,30
	bl _ZNK11idAnimState4SaveEP10idSaveGame
	.loc 2 835 0
	mr 4,30
	addi 3,31,3856
	bl _ZNK11idAnimState4SaveEP10idSaveGame
	.loc 2 837 0
	lbz 4,3920(31)
	mr 3,30
	bl _ZN10idSaveGame9WriteBoolEb
	.loc 2 838 0
	lbz 4,3921(31)
	mr 3,30
	bl _ZN10idSaveGame9WriteBoolEb
	.loc 2 840 0
	lwz 4,3924(31)
	mr 3,30
	bl _ZN10idSaveGame8WriteIntEi
	.loc 2 842 0
	lwz 4,3928(31)
	mr 3,30
	bl _ZN10idSaveGame8WriteIntEi
.LVL447:
	.loc 2 843 0
	lwz 0,3928(31)
	cmpwi 7,0,0
	ble- 7,.L287
	li 29,0
.LVL448:
.L288:
.LBB2579:
.LBB2580:
	.loc 5 595 0 discriminator 2
	lwz 9,3940(31)
.LBE2580:
.LBE2579:
	.loc 2 772 0 discriminator 2
	slwi 28,29,3
.LVL449:
.LBB2583:
.LBB2581:
	.loc 5 595 0 discriminator 2
	mr 3,30
.LBE2581:
.LBE2583:
	.loc 2 843 0 discriminator 2
	addi 29,29,1
.LVL450:
.LBB2584:
.LBB2582:
	.loc 5 595 0 discriminator 2
	lwzx 4,9,28
	bl _ZN10idSaveGame8WriteIntEi
.LVL451:
.LBE2582:
.LBE2584:
	.loc 2 845 0 discriminator 2
	lwz 0,3940(31)
	mr 3,30
	add 28,0,28
	lwz 4,4(28)
	bl _ZN10idSaveGame8WriteIntEi
.LVL452:
	.loc 2 843 0 discriminator 2
	lwz 0,3928(31)
	cmpw 7,0,29
	bgt+ 7,.L288
.LVL453:
.L287:
	.loc 2 848 0
	lbz 4,3922(31)
	mr 3,30
	bl _ZN10idSaveGame9WriteBoolEb
.LEHE20:
.LVL454:
.LBB2585:
	.loc 2 853 0
	lwz 3,2444(31)
.LBE2585:
.LBB2590:
.LBB2591:
.LBB2592:
.LBB2593:
	.loc 9 357 0
	li 9,20
	.loc 9 356 0
	li 0,0
.LBE2593:
.LBE2592:
.LBE2591:
.LBE2590:
.LBB2597:
	.loc 2 853 0
	cmpwi 7,3,0
.LBE2597:
.LBB2598:
.LBB2596:
.LBB2595:
.LBB2594:
	.loc 9 357 0
	stw 9,16(1)
	.loc 9 358 0
	addi 9,1,20
	.loc 9 356 0
	stw 0,8(1)
	.loc 9 358 0
	stw 9,12(1)
	.loc 9 359 0
	stb 0,20(1)
.LBE2594:
.LBE2595:
.LBE2596:
.LBE2598:
.LBB2599:
	.loc 2 853 0
	beq- 7,.L289
	addi 28,1,8
.LEHB21:
.LBB2586:
	.loc 2 854 0
	bl _ZNK10function_t4NameEv
	mr 27,3
	lwz 3,2444(31)
	addi 28,1,8
	bl _ZNK10function_t4NameEv
.LVL455:
.LBB2587:
.LBB2588:
	.loc 9 952 0 discriminator 1
	lbz 0,0(3)
	li 5,0
	cmpwi 7,0,0
	beq- 7,.L290
.LVL456:
.L291:
	.loc 9 952 0 is_stmt 0
	addi 5,5,1
.LVL457:
	lbzx 0,3,5
	cmpwi 7,0,0
	bne+ 7,.L291
.LVL458:
.L290:
.LBE2588:
.LBE2587:
	.loc 2 854 0 is_stmt 1
	addi 29,1,88
	lis 6,.LC80@ha
	mr 3,29
	mr 4,27
	la 6,.LC80@l(6)
	li 7,0
	addi 28,1,8
	bl _ZN7idLexerC1EPKciS1_i
.LEHE21:
	.loc 2 856 0
	addi 28,1,8
	mr 3,29
	mr 4,28
.LEHB22:
	bl _ZN7idLexer15ReadTokenOnLineEP7idToken
	.loc 2 857 0
	lis 4,.LC81@ha
	mr 3,29
	la 4,.LC81@l(4)
	bl _ZN7idLexer17ExpectTokenStringEPKc
	.loc 2 858 0
	mr 3,29
	mr 4,28
	bl _ZN7idLexer15ReadTokenOnLineEP7idToken
.LVL459:
	.loc 2 860 0
	lwz 4,12(1)
	mr 3,30
	bl _ZN10idSaveGame11WriteStringEPKc
.LEHE22:
	.loc 2 860 0 is_stmt 0 discriminator 1
	mr 3,29
.LEHB23:
	bl _ZN7idLexerD1Ev
.LBE2586:
.LBE2599:
.LBB2600:
	.loc 2 865 0 is_stmt 1
	lwz 3,2448(31)
	cmpwi 7,3,0
	beq- 7,.L293
.LVL460:
.L321:
.LBB2601:
	.loc 2 866 0
	bl _ZNK10function_t4NameEv
	mr 27,3
	lwz 3,2448(31)
	bl _ZNK10function_t4NameEv
.LVL461:
.LBB2602:
.LBB2603:
	.loc 9 952 0 discriminator 1
	lbz 0,0(3)
	li 5,0
	cmpwi 7,0,0
	beq- 7,.L294
.LVL462:
.L295:
	.loc 9 952 0 is_stmt 0
	addi 5,5,1
.LVL463:
	lbzx 0,3,5
	cmpwi 7,0,0
	bne+ 7,.L295
.LVL464:
.L294:
.LBE2603:
.LBE2602:
	.loc 2 866 0 is_stmt 1
	addi 29,1,88
	lis 6,.LC80@ha
	mr 3,29
	mr 4,27
	la 6,.LC80@l(6)
	li 7,0
	bl _ZN7idLexerC1EPKciS1_i
.LEHE23:
	.loc 2 868 0
	mr 3,29
	mr 4,28
.LEHB24:
	bl _ZN7idLexer15ReadTokenOnLineEP7idToken
	.loc 2 869 0
	lis 4,.LC81@ha
	mr 3,29
	la 4,.LC81@l(4)
	bl _ZN7idLexer17ExpectTokenStringEPKc
	.loc 2 870 0
	mr 3,29
	mr 4,28
	bl _ZN7idLexer15ReadTokenOnLineEP7idToken
.LVL465:
	.loc 2 872 0
	lwz 4,12(1)
	mr 3,30
	bl _ZN10idSaveGame11WriteStringEPKc
.LEHE24:
	.loc 2 872 0 is_stmt 0 discriminator 1
	mr 3,29
.LEHB25:
	bl _ZN7idLexerD1Ev
.LEHE25:
.LVL466:
.LBE2601:
.LBE2600:
.LBB2605:
.LBB2606:
.LBB2607:
.LBB2608:
.LBB2609:
	.loc 9 501 0 is_stmt 1
	mr 3,28
.LEHB26:
	bl _ZN5idStr8FreeDataEv
.LEHE26:
.LBE2609:
.LBE2608:
.LBE2607:
.LBE2606:
.LBE2605:
.LBE2564:
	.loc 2 877 0
	lwz 0,324(1)
	lwz 27,300(1)
	mtlr 0
	lwz 28,304(1)
	lwz 29,308(1)
	lwz 30,312(1)
.LVL467:
	lwz 31,316(1)
.LVL468:
	addi 1,1,320
	.cfi_remember_state
.LCFI140:
	.cfi_def_cfa_offset 0
	.cfi_restore 31
	.cfi_restore 30
	.cfi_restore 29
	.cfi_restore 28
	.cfi_restore 27
	blr
.LVL469:
.L289:
.LCFI141:
	.cfi_restore_state
.LBB2624:
.LBB2614:
	.loc 2 862 0
	lis 4,.LC3@ha
	mr 3,30
	la 4,.LC3@l(4)
	addi 28,1,8
.LEHB27:
	bl _ZN10idSaveGame11WriteStringEPKc
.LBE2614:
.LBB2615:
	.loc 2 865 0
	lwz 3,2448(31)
	addi 28,1,8
	cmpwi 7,3,0
	bne+ 7,.L321
.L293:
	.loc 2 874 0
	lis 4,.LC3@ha
	mr 3,30
	la 4,.LC3@l(4)
	bl _ZN10idSaveGame11WriteStringEPKc
.LEHE27:
.LVL470:
.LBE2615:
.LBB2616:
.LBB2613:
.LBB2612:
.LBB2611:
.LBB2610:
	.loc 9 501 0
	mr 3,28
.LEHB28:
	bl _ZN5idStr8FreeDataEv
.LEHE28:
.LBE2610:
.LBE2611:
.LBE2612:
.LBE2613:
.LBE2616:
.LBE2624:
	.loc 2 877 0
	lwz 0,324(1)
	lwz 27,300(1)
	mtlr 0
	lwz 28,304(1)
	lwz 29,308(1)
	lwz 30,312(1)
.LVL471:
	lwz 31,316(1)
.LVL472:
	addi 1,1,320
	.cfi_remember_state
	.cfi_restore 27
	.cfi_restore 28
	.cfi_restore 29
	.cfi_restore 30
	.cfi_restore 31
.LCFI142:
	.cfi_def_cfa_offset 0
	blr
.LVL473:
.L309:
.LCFI143:
	.cfi_restore_state
	mr 31,3
.LVL474:
.LBB2625:
.LBB2617:
.LBB2604:
	.loc 2 872 0
	mr 3,29
	bl _ZN7idLexerD1Ev
.L300:
.LVL475:
.LBE2604:
.LBE2617:
.LBB2618:
.LBB2619:
.LBB2620:
.LBB2621:
.LBB2622:
	.loc 9 501 0
	mr 3,28
	bl _ZN5idStr8FreeDataEv
	mr 3,31
.LEHB29:
	bl _Unwind_Resume
.LEHE29:
.LVL476:
.L308:
	mr 31,3
.LVL477:
.LBE2622:
.LBE2621:
.LBE2620:
.LBE2619:
.LBE2618:
.LBB2623:
.LBB2589:
	.loc 2 860 0
	mr 3,29
	bl _ZN7idLexerD1Ev
	b .L300
.LVL478:
.L307:
	mr 31,3
.LVL479:
	b .L300
.LBE2589:
.LBE2623:
.LBE2625:
	.cfi_endproc
.LFE2846:
	.section	.gcc_except_table
.LLSDA2846:
	.byte	0xff
	.byte	0xff
	.byte	0x1
	.uleb128 .LLSDACSE2846-.LLSDACSB2846
.LLSDACSB2846:
	.uleb128 .LEHB20-.LFB2846
	.uleb128 .LEHE20-.LEHB20
	.uleb128 0
	.uleb128 0
	.uleb128 .LEHB21-.LFB2846
	.uleb128 .LEHE21-.LEHB21
	.uleb128 .L307-.LFB2846
	.uleb128 0
	.uleb128 .LEHB22-.LFB2846
	.uleb128 .LEHE22-.LEHB22
	.uleb128 .L308-.LFB2846
	.uleb128 0
	.uleb128 .LEHB23-.LFB2846
	.uleb128 .LEHE23-.LEHB23
	.uleb128 .L307-.LFB2846
	.uleb128 0
	.uleb128 .LEHB24-.LFB2846
	.uleb128 .LEHE24-.LEHB24
	.uleb128 .L309-.LFB2846
	.uleb128 0
	.uleb128 .LEHB25-.LFB2846
	.uleb128 .LEHE25-.LEHB25
	.uleb128 .L307-.LFB2846
	.uleb128 0
	.uleb128 .LEHB26-.LFB2846
	.uleb128 .LEHE26-.LEHB26
	.uleb128 0
	.uleb128 0
	.uleb128 .LEHB27-.LFB2846
	.uleb128 .LEHE27-.LEHB27
	.uleb128 .L307-.LFB2846
	.uleb128 0
	.uleb128 .LEHB28-.LFB2846
	.uleb128 .LEHE28-.LEHB28
	.uleb128 0
	.uleb128 0
	.uleb128 .LEHB29-.LFB2846
	.uleb128 .LEHE29-.LEHB29
	.uleb128 0
	.uleb128 0
.LLSDACSE2846:
	.section	".text"
	.size	_ZNK7idActor4SaveEP10idSaveGame, .-_ZNK7idActor4SaveEP10idSaveGame
	.align 2
	.globl _ZN11idAnimState7RestoreEP13idRestoreGame
	.type	_ZN11idAnimState7RestoreEP13idRestoreGame, @function
_ZN11idAnimState7RestoreEP13idRestoreGame:
.LFB2817:
	.loc 2 98 0
	.cfi_startproc
.LVL480:
	stwu 1,-32(1)
.LCFI144:
	.cfi_def_cfa_offset 32
	mflr 0
	stw 30,24(1)
	mr 30,3
	.cfi_offset 30, -8
	.cfi_register 65, 0
	stw 31,28(1)
.LBB2626:
	.loc 2 99 0
	mr 3,4
.LVL481:
.LBE2626:
	.loc 2 98 0
	mr 31,4
	.cfi_offset 31, -4
.LBB2627:
	.loc 2 99 0
	addi 4,30,44
.LVL482:
.LBE2627:
	.loc 2 98 0
	stw 0,36(1)
.LBB2628:
	.loc 2 99 0
	.cfi_offset 65, 4
	bl _ZN13idRestoreGame10ReadObjectERP7idClass
.LVL483:
	.loc 2 102 0
	mr 3,31
	addi 4,1,8
	bl _ZN13idRestoreGame10ReadObjectERP7idClass
.LVL484:
	.loc 2 103 0
	lwz 3,8(1)
	cmpwi 7,3,0
	beq- 7,.L323
	.loc 2 104 0
	lwz 9,0(3)
	lwz 0,92(9)
	mtctr 0
	bctrl
	stw 3,48(30)
.L323:
	.loc 2 107 0
	addi 4,30,52
	mr 3,31
	bl _ZN13idRestoreGame10ReadObjectERP7idClass
	.loc 2 109 0
	mr 3,31
	addi 4,30,4
	bl _ZN13idRestoreGame10ReadStringER5idStr
	.loc 2 111 0
	mr 3,31
	addi 4,30,36
	bl _ZN13idRestoreGame7ReadIntERi
	.loc 2 112 0
	mr 3,31
	addi 4,30,40
	bl _ZN13idRestoreGame7ReadIntERi
	.loc 2 113 0
	mr 3,31
	addi 4,30,56
	bl _ZN13idRestoreGame7ReadIntERi
	.loc 2 114 0
	mr 3,31
	mr 4,30
	bl _ZN13idRestoreGame8ReadBoolERb
	.loc 2 115 0
	mr 3,31
	addi 4,30,60
	bl _ZN13idRestoreGame8ReadBoolERb
.LBE2628:
	.loc 2 116 0
	lwz 0,36(1)
	lwz 30,24(1)
.LVL485:
	mtlr 0
	lwz 31,28(1)
.LVL486:
	addi 1,1,32
.LCFI145:
	.cfi_def_cfa_offset 0
	.cfi_restore 31
	.cfi_restore 30
	blr
	.cfi_endproc
.LFE2817:
	.size	_ZN11idAnimState7RestoreEP13idRestoreGame, .-_ZN11idAnimState7RestoreEP13idRestoreGame
	.align 2
	.globl _ZN11idAnimState4InitEP7idActorP10idAnimatori
	.type	_ZN11idAnimState4InitEP7idActorP10idAnimatori, @function
_ZN11idAnimState4InitEP7idActorP10idAnimatori:
.LFB2818:
	.loc 2 123 0
	.cfi_startproc
	.cfi_personality 0,__gxx_personality_v0
	.cfi_lsda 0,.LLSDA2818
.LVL487:
	mflr 0
	stwu 1,-16(1)
.LCFI146:
	.cfi_def_cfa_offset 16
	.cfi_register 65, 0
	stw 31,12(1)
	mr 31,3
	.cfi_offset 31, -4
	stw 0,20(1)
	stw 30,8(1)
	.loc 2 126 0
	stw 4,44(3)
	.loc 2 130 0
	lwz 9,52(3)
	.loc 2 127 0
	stw 5,48(3)
	.loc 2 130 0
	cmpwi 7,9,0
	.loc 2 128 0
	stw 6,56(3)
	.loc 2 130 0
	beq- 7,.L328
	.cfi_offset 30, -8
	.cfi_offset 65, 4
.LBB2629:
.LBB2630:
	.loc 13 237 0
	li 0,1
.LBE2630:
.LBE2629:
.LBB2634:
.LBB2635:
	.loc 13 233 0
	lis 4,EV_Thread_Execute@ha
.LVL488:
.LBE2635:
.LBE2634:
.LBB2641:
.LBB2631:
	.loc 13 237 0
	stb 0,6973(9)
.LBE2631:
.LBE2641:
.LBB2642:
.LBB2636:
	.loc 13 233 0
	la 4,EV_Thread_Execute@l(4)
.LBE2636:
.LBE2642:
	.loc 2 135 0
	lwz 3,52(31)
.LVL489:
.LBB2643:
.LBB2637:
	.loc 13 233 0
	stb 0,7064(3)
.LEHB30:
	bl _ZN7idClass12CancelEventsEPK10idEventDef
.LVL490:
.LBE2637:
.LBE2643:
	.loc 2 136 0
	lwz 0,20(1)
	lwz 30,8(1)
	mtlr 0
	lwz 31,12(1)
.LVL491:
	addi 1,1,16
	.cfi_remember_state
.LCFI147:
	.cfi_def_cfa_offset 0
	.cfi_restore 31
	.cfi_restore 30
	blr
.LVL492:
.L328:
.LCFI148:
	.cfi_restore_state
	.loc 2 131 0
	li 3,7068
.LVL493:
	bl _ZN7idClassnwEj
.LEHE30:
.LVL494:
	mr 30,3
.LEHB31:
	bl _ZN8idThreadC1Ev
.LEHE31:
	.loc 2 131 0 is_stmt 0 discriminator 1
	stw 30,52(31)
	.loc 2 132 0 is_stmt 1 discriminator 1
	mr 3,30
.LEHB32:
	bl _ZN8idThread12ManualDeleteEv
	lwz 9,52(31)
.LBB2644:
.LBB2632:
	.loc 13 237 0 discriminator 1
	li 0,1
.LBE2632:
.LBE2644:
.LBB2645:
.LBB2638:
	.loc 13 233 0 discriminator 1
	lis 4,EV_Thread_Execute@ha
.LBE2638:
.LBE2645:
.LBB2646:
.LBB2633:
	.loc 13 237 0 discriminator 1
	stb 0,6973(9)
.LBE2633:
.LBE2646:
.LBB2647:
.LBB2639:
	.loc 13 233 0 discriminator 1
	la 4,EV_Thread_Execute@l(4)
.LBE2639:
.LBE2647:
	.loc 2 135 0 discriminator 1
	lwz 3,52(31)
.LVL495:
.LBB2648:
.LBB2640:
	.loc 13 233 0 discriminator 1
	stb 0,7064(3)
	bl _ZN7idClass12CancelEventsEPK10idEventDef
.LEHE32:
.LVL496:
.LBE2640:
.LBE2648:
	.loc 2 136 0 discriminator 1
	lwz 0,20(1)
	lwz 30,8(1)
	mtlr 0
	lwz 31,12(1)
.LVL497:
	addi 1,1,16
	.cfi_remember_state
	.cfi_restore 30
	.cfi_restore 31
.LCFI149:
	.cfi_def_cfa_offset 0
	blr
.LVL498:
.L327:
.LCFI150:
	.cfi_restore_state
	mr 31,3
.LVL499:
	.loc 2 131 0
	mr 3,30
	bl _ZN7idClassdlEPv
	mr 3,31
.LEHB33:
	bl _Unwind_Resume
.LEHE33:
	.cfi_endproc
.LFE2818:
	.section	.gcc_except_table
.LLSDA2818:
	.byte	0xff
	.byte	0xff
	.byte	0x1
	.uleb128 .LLSDACSE2818-.LLSDACSB2818
.LLSDACSB2818:
	.uleb128 .LEHB30-.LFB2818
	.uleb128 .LEHE30-.LEHB30
	.uleb128 0
	.uleb128 0
	.uleb128 .LEHB31-.LFB2818
	.uleb128 .LEHE31-.LEHB31
	.uleb128 .L327-.LFB2818
	.uleb128 0
	.uleb128 .LEHB32-.LFB2818
	.uleb128 .LEHE32-.LEHB32
	.uleb128 0
	.uleb128 0
	.uleb128 .LEHB33-.LFB2818
	.uleb128 .LEHE33-.LEHB33
	.uleb128 0
	.uleb128 0
.LLSDACSE2818:
	.section	".text"
	.size	_ZN11idAnimState4InitEP7idActorP10idAnimatori, .-_ZN11idAnimState4InitEP7idActorP10idAnimatori
	.align 2
	.globl _ZN11idAnimState8ShutdownEv
	.type	_ZN11idAnimState8ShutdownEv, @function
_ZN11idAnimState8ShutdownEv:
.LFB2819:
	.loc 2 143 0
	.cfi_startproc
.LVL500:
	mflr 0
	stwu 1,-16(1)
.LCFI151:
	.cfi_def_cfa_offset 16
	.cfi_register 65, 0
	stw 31,12(1)
	mr 31,3
	.cfi_offset 31, -4
	stw 0,20(1)
	.loc 2 144 0
	lwz 3,52(3)
.LVL501:
	cmpwi 7,3,0
	beq- 7,.L330
	.cfi_offset 65, 4
	.loc 2 144 0 is_stmt 0 discriminator 1
	lwz 9,0(3)
	lwz 0,8(9)
	mtctr 0
	bctrl
.L330:
	.loc 2 145 0 is_stmt 1
	li 0,0
	stw 0,52(31)
	.loc 2 146 0
	lwz 0,20(1)
	lwz 31,12(1)
.LVL502:
	mtlr 0
	addi 1,1,16
.LCFI152:
	.cfi_def_cfa_offset 0
	.cfi_restore 31
	blr
	.cfi_endproc
.LFE2819:
	.size	_ZN11idAnimState8ShutdownEv, .-_ZN11idAnimState8ShutdownEv
	.align 2
	.globl _ZN11idAnimState8SetStateEPKci
	.type	_ZN11idAnimState8SetStateEPKci, @function
_ZN11idAnimState8SetStateEPKci:
.LFB2820:
	.loc 2 153 0
	.cfi_startproc
.LVL503:
	mflr 0
	stwu 1,-24(1)
.LCFI153:
	.cfi_def_cfa_offset 24
	.cfi_register 65, 0
	stw 28,8(1)
	stw 29,12(1)
	mr 29,4
	.cfi_offset 29, -12
	.cfi_offset 28, -16
	stw 30,16(1)
	mr 30,5
	.cfi_offset 30, -8
	stw 31,20(1)
	mr 31,3
	.cfi_offset 31, -4
	stw 0,28(1)
.LBB2649:
	.loc 2 156 0
	lwz 3,44(3)
.LVL504:
	addi 3,3,144
	.cfi_offset 65, 4
	bl _ZNK14idScriptObject11GetFunctionEPKc
.LVL505:
	.loc 2 157 0
	mr. 28,3
	beq- 0,.L334
.LVL506:
.L332:
	.loc 2 162 0
	mr 4,29
	addi 3,31,4
	.loc 2 163 0
	li 29,0
.LVL507:
	.loc 2 162 0
	bl _ZN5idStraSEPKc
.LVL508:
	.loc 2 163 0
	stb 29,60(31)
	.loc 2 166 0
	mr 5,28
	.loc 2 164 0
	stw 30,36(31)
	.loc 2 166 0
	li 6,1
	.loc 2 165 0
	stw 30,40(31)
	.loc 2 166 0
	lwz 3,52(31)
	lwz 4,44(31)
	bl _ZN8idThread12CallFunctionEP8idEntityPK10function_tb
	.loc 2 168 0
	stw 30,36(31)
	.loc 2 169 0
	stw 30,40(31)
.LBB2650:
.LBB2651:
	.loc 10 143 0
	lis 11,ai_debugScript+44@ha
.LBE2651:
.LBE2650:
	.loc 2 171 0
	stb 29,0(31)
	.loc 2 170 0
	stb 29,60(31)
.LBB2653:
.LBB2652:
	.loc 10 143 0
	lwz 10,ai_debugScript+44@l(11)
.LBE2652:
.LBE2653:
	.loc 2 173 0
	lwz 9,44(31)
	lwz 0,36(10)
	lwz 11,4(9)
	cmpw 7,11,0
	beq- 7,.L335
.LBE2649:
	.loc 2 176 0
	lwz 0,28(1)
	lwz 28,8(1)
.LVL509:
	mtlr 0
	lwz 29,12(1)
	lwz 30,16(1)
.LVL510:
	lwz 31,20(1)
.LVL511:
	addi 1,1,24
	.cfi_remember_state
.LCFI154:
	.cfi_def_cfa_offset 0
	.cfi_restore 31
	.cfi_restore 30
	.cfi_restore 29
	.cfi_restore 28
	blr
.LVL512:
.L335:
.LCFI155:
	.cfi_restore_state
.LBB2654:
	.loc 2 174 0
	lis 3,gameLocal@ha
	lwz 7,8(31)
	la 3,gameLocal@l(3)
	lwz 6,72(9)
	addis 11,3,0x25
	lis 4,.LC83@ha
	lwz 5,2004(11)
	la 4,.LC83@l(4)
	crxor 6,6,6
	bl _ZNK11idGameLocal6PrintfEPKcz
.LBE2654:
	.loc 2 176 0
	lwz 0,28(1)
	lwz 28,8(1)
.LVL513:
	mtlr 0
	lwz 29,12(1)
	lwz 30,16(1)
.LVL514:
	lwz 31,20(1)
.LVL515:
	addi 1,1,24
	.cfi_remember_state
	.cfi_restore 28
	.cfi_restore 29
	.cfi_restore 30
	.cfi_restore 31
.LCFI156:
	.cfi_def_cfa_offset 0
	blr
.LVL516:
.L334:
.LCFI157:
	.cfi_restore_state
.LBB2655:
	.loc 2 159 0
	lwz 3,44(31)
.LVL517:
	addi 3,3,144
	bl _ZNK14idScriptObject11GetTypeNameEv
	lis 4,.LC82@ha
	mr 6,3
	lis 3,gameLocal@ha
	la 3,gameLocal@l(3)
	la 4,.LC82@l(4)
	mr 5,29
	crxor 6,6,6
	bl _ZNK11idGameLocal5ErrorEPKcz
	b .L332
.LBE2655:
	.cfi_endproc
.LFE2820:
	.size	_ZN11idAnimState8SetStateEPKci, .-_ZN11idAnimState8SetStateEPKci
	.align 2
	.globl _ZN11idAnimState8StopAnimEi
	.type	_ZN11idAnimState8StopAnimEi, @function
_ZN11idAnimState8StopAnimEi:
.LFB2821:
	.loc 2 183 0
	.cfi_startproc
.LVL518:
	mflr 0
	stwu 1,-8(1)
.LCFI158:
	.cfi_def_cfa_offset 8
	.cfi_register 65, 0
.LBB2656:
.LBB2657:
	.file 16 "d:/Data/Nintendo/DoomGX/src/game/anim/Anim.h"
	.loc 16 49 0
	lis 6,0x2aaa
.LBE2657:
.LBE2656:
	.loc 2 184 0
	li 11,0
.LBB2663:
.LBB2658:
	.loc 16 49 0
	ori 6,6,43691
.LBE2658:
.LBE2663:
	.loc 2 183 0
	mr 9,3
	stw 0,12(1)
.LBB2664:
.LBB2659:
	.loc 16 49 0
	mulli 0,4,1000
	.cfi_offset 65, 4
.LBE2659:
.LBE2664:
	.loc 2 184 0
	stw 11,36(3)
.LVL519:
	.loc 2 185 0
	lwz 3,48(3)
.LVL520:
.LBB2665:
.LBB2660:
	.loc 16 49 0
	mulhw 6,0,6
.LBE2660:
.LBE2665:
	.loc 2 185 0
	lwz 4,56(9)
.LVL521:
	lis 9,gameLocal+2426836@ha
.LVL522:
.LBB2666:
.LBB2661:
	.loc 16 49 0
	srawi 0,0,31
.LBE2661:
.LBE2666:
	.loc 2 185 0
	lwz 5,gameLocal+2426836@l(9)
.LBB2667:
.LBB2662:
	.loc 16 49 0
	srawi 6,6,2
.LBE2662:
.LBE2667:
	.loc 2 185 0
	subf 6,0,6
	bl _ZN10idAnimator5ClearEiii
	.loc 2 186 0
	lwz 0,12(1)
	addi 1,1,8
.LCFI159:
	.cfi_def_cfa_offset 0
	mtlr 0
	blr
	.cfi_endproc
.LFE2821:
	.size	_ZN11idAnimState8StopAnimEi, .-_ZN11idAnimState8StopAnimEi
	.align 2
	.globl _ZN7idActor14Event_StopAnimEii
	.type	_ZN7idActor14Event_StopAnimEii, @function
_ZN7idActor14Event_StopAnimEii:
.LFB2927:
	.loc 2 2554 0
	.cfi_startproc
.LVL523:
	.loc 2 2555 0
	cmpwi 7,4,2
	.loc 2 2554 0
	mflr 0
	stwu 1,-8(1)
.LCFI160:
	.cfi_def_cfa_offset 8
	.cfi_register 65, 0
	stw 0,12(1)
	.loc 2 2555 0
	beq- 7,.L340
	.cfi_offset 65, 4
	cmpwi 7,4,3
	beq- 7,.L341
	cmpwi 7,4,1
	beq- 7,.L344
.LBB2670:
.LBB2671:
	.loc 2 2569 0
	lis 3,gameLocal@ha
.LVL524:
	lis 4,.LC7@ha
.LVL525:
	la 3,gameLocal@l(3)
	la 4,.LC7@l(4)
	crxor 6,6,6
	bl _ZNK11idGameLocal5ErrorEPKcz
.LVL526:
.LBE2671:
.LBE2670:
	.loc 2 2572 0
	lwz 0,12(1)
	addi 1,1,8
	.cfi_remember_state
.LCFI161:
	.cfi_def_cfa_offset 0
	mtlr 0
	blr
.LVL527:
.L344:
.LCFI162:
	.cfi_restore_state
	lwz 0,12(1)
	.loc 2 2561 0
	addi 3,3,3792
.LVL528:
	.loc 2 2572 0
	.loc 2 2565 0
	mr 4,5
.LVL529:
	.loc 2 2572 0
	mtlr 0
	addi 1,1,8
	.cfi_remember_state
.LCFI163:
	.cfi_def_cfa_offset 0
	.loc 2 2565 0
	b _ZN11idAnimState8StopAnimEi
.LVL530:
.L341:
.LCFI164:
	.cfi_restore_state
	.loc 2 2572 0
	lwz 0,12(1)
	.loc 2 2557 0
	addi 3,3,3728
.LVL531:
	.loc 2 2572 0
	.loc 2 2565 0
	mr 4,5
.LVL532:
	.loc 2 2572 0
	mtlr 0
	addi 1,1,8
	.cfi_remember_state
.LCFI165:
	.cfi_def_cfa_offset 0
	.loc 2 2565 0
	b _ZN11idAnimState8StopAnimEi
.LVL533:
.L340:
.LCFI166:
	.cfi_restore_state
	.loc 2 2572 0
	lwz 0,12(1)
	.loc 2 2565 0
	addi 3,3,3856
.LVL534:
	.loc 2 2572 0
	.loc 2 2565 0
	mr 4,5
.LVL535:
	.loc 2 2572 0
	mtlr 0
	addi 1,1,8
.LCFI167:
	.cfi_def_cfa_offset 0
	.loc 2 2565 0
	b _ZN11idAnimState8StopAnimEi
.LVL536:
.LVL537:
	.cfi_endproc
.LFE2927:
	.size	_ZN7idActor14Event_StopAnimEii, .-_ZN7idActor14Event_StopAnimEii
	.align 2
	.globl _ZN11idAnimState8PlayAnimEi
	.type	_ZN11idAnimState8PlayAnimEi, @function
_ZN11idAnimState8PlayAnimEi:
.LFB2822:
	.loc 2 193 0
	.cfi_startproc
.LVL538:
	.loc 2 194 0
	mr. 5,4
	.loc 2 193 0
	mflr 0
	stwu 1,-16(1)
.LCFI168:
	.cfi_def_cfa_offset 16
	.cfi_register 65, 0
	stw 31,12(1)
	mr 31,3
	.cfi_offset 31, -4
	stw 0,20(1)
	.loc 2 194 0
	beq+ 0,.L346
	.cfi_offset 65, 4
.LVL539:
.LBB2672:
.LBB2673:
	.loc 16 49 0
	lwz 0,36(3)
	lis 7,0x2aaa
	ori 7,7,43691
.LBE2673:
.LBE2672:
	.loc 2 195 0
	lis 9,gameLocal+2426836@ha
.LBB2676:
.LBB2674:
	.loc 16 49 0
	mulli 0,0,1000
.LBE2674:
.LBE2676:
	.loc 2 195 0
	lwz 3,48(3)
.LVL540:
	lwz 4,56(31)
.LVL541:
	lwz 6,gameLocal+2426836@l(9)
.LBB2677:
.LBB2675:
	.loc 16 49 0
	mulhw 7,0,7
	srawi 0,0,31
	srawi 7,7,2
.LBE2675:
.LBE2677:
	.loc 2 195 0
	subf 7,0,7
	bl _ZN10idAnimator8PlayAnimEiiii
.LVL542:
.L346:
	.loc 2 197 0
	li 0,0
	stw 0,36(31)
	.loc 2 198 0
	lwz 0,20(1)
	lwz 31,12(1)
.LVL543:
	mtlr 0
	addi 1,1,16
.LCFI169:
	.cfi_def_cfa_offset 0
	.cfi_restore 31
	blr
	.cfi_endproc
.LFE2822:
	.size	_ZN11idAnimState8PlayAnimEi, .-_ZN11idAnimState8PlayAnimEi
	.align 2
	.globl _ZN11idAnimState9CycleAnimEi
	.type	_ZN11idAnimState9CycleAnimEi, @function
_ZN11idAnimState9CycleAnimEi:
.LFB2823:
	.loc 2 205 0
	.cfi_startproc
.LVL544:
	.loc 2 206 0
	mr. 5,4
	.loc 2 205 0
	mflr 0
	stwu 1,-16(1)
.LCFI170:
	.cfi_def_cfa_offset 16
	.cfi_register 65, 0
	stw 31,12(1)
	mr 31,3
	.cfi_offset 31, -4
	stw 0,20(1)
	.loc 2 206 0
	beq+ 0,.L348
	.cfi_offset 65, 4
.LVL545:
.LBB2678:
.LBB2679:
	.loc 16 49 0
	lwz 0,36(3)
	lis 7,0x2aaa
	ori 7,7,43691
.LBE2679:
.LBE2678:
	.loc 2 207 0
	lis 9,gameLocal+2426836@ha
.LBB2682:
.LBB2680:
	.loc 16 49 0
	mulli 0,0,1000
.LBE2680:
.LBE2682:
	.loc 2 207 0
	lwz 3,48(3)
.LVL546:
	lwz 4,56(31)
.LVL547:
	lwz 6,gameLocal+2426836@l(9)
.LBB2683:
.LBB2681:
	.loc 16 49 0
	mulhw 7,0,7
	srawi 0,0,31
	srawi 7,7,2
.LBE2681:
.LBE2683:
	.loc 2 207 0
	subf 7,0,7
	bl _ZN10idAnimator9CycleAnimEiiii
.LVL548:
.L348:
	.loc 2 209 0
	li 0,0
	stw 0,36(31)
	.loc 2 210 0
	lwz 0,20(1)
	lwz 31,12(1)
.LVL549:
	mtlr 0
	addi 1,1,16
.LCFI171:
	.cfi_def_cfa_offset 0
	.cfi_restore 31
	blr
	.cfi_endproc
.LFE2823:
	.size	_ZN11idAnimState9CycleAnimEi, .-_ZN11idAnimState9CycleAnimEi
	.align 2
	.globl _ZN11idAnimState10BecomeIdleEv
	.type	_ZN11idAnimState10BecomeIdleEv, @function
_ZN11idAnimState10BecomeIdleEv:
.LFB2824:
	.loc 2 217 0
	.cfi_startproc
.LVL550:
	.loc 2 218 0
	li 0,1
	.loc 2 219 0
	.loc 2 218 0
	stb 0,0(3)
	.loc 2 219 0
	blr
	.cfi_endproc
.LFE2824:
	.size	_ZN11idAnimState10BecomeIdleEv, .-_ZN11idAnimState10BecomeIdleEv
	.align 2
	.globl _ZNK11idAnimState8DisabledEv
	.type	_ZNK11idAnimState8DisabledEv, @function
_ZNK11idAnimState8DisabledEv:
.LFB2825:
	.loc 2 226 0
	.cfi_startproc
.LVL551:
	.loc 2 228 0
	lbz 3,60(3)
.LVL552:
	blr
	.cfi_endproc
.LFE2825:
	.size	_ZNK11idAnimState8DisabledEv, .-_ZNK11idAnimState8DisabledEv
	.align 2
	.globl _ZNK11idAnimState8AnimDoneEi
	.type	_ZNK11idAnimState8AnimDoneEi, @function
_ZNK11idAnimState8AnimDoneEi:
.LFB2826:
	.loc 2 235 0
	.cfi_startproc
.LVL553:
	mflr 0
	stwu 1,-16(1)
.LCFI172:
	.cfi_def_cfa_offset 16
	.cfi_register 65, 0
	mr 9,3
	stw 31,12(1)
	mr 31,4
	.cfi_offset 31, -4
	stw 0,20(1)
.LBB2684:
	.loc 2 238 0
	lwz 4,56(9)
.LVL554:
	lwz 3,48(3)
.LVL555:
	.cfi_offset 65, 4
	bl _ZN10idAnimator11CurrentAnimEi
.LVL556:
	bl _ZNK11idAnimBlend10GetEndTimeEv
.LVL557:
	.loc 2 239 0
	mr. 0,3
	.loc 2 241 0
	li 3,0
.LVL558:
	.loc 2 239 0
	blt- 0,.L352
.LVL559:
.LBB2685:
.LBB2686:
	.loc 16 49 0
	mulli 31,31,1000
.LVL560:
	lis 11,0x2aaa
	ori 11,11,43691
.LBE2686:
.LBE2685:
	.loc 2 242 0
	lis 9,gameLocal+2426836@ha
.LBB2689:
.LBB2687:
	.loc 16 49 0
	mulhw 11,31,11
	srawi 31,31,31
.LBE2687:
.LBE2689:
	.loc 2 235 0
	lwz 9,gameLocal+2426836@l(9)
.LBB2690:
.LBB2688:
	.loc 16 49 0
	srawi 11,11,2
	subf 31,31,11
.LBE2688:
.LBE2690:
	.loc 2 242 0
	subf 0,31,0
.LVL561:
	.loc 2 235 0
	cmpw 7,0,9
	crnot 30,29
	mfcr 3
	rlwinm 3,3,31,1
.L352:
.LBE2684:
	.loc 2 247 0
	lwz 0,20(1)
	lwz 31,12(1)
	mtlr 0
	addi 1,1,16
.LCFI173:
	.cfi_def_cfa_offset 0
	.cfi_restore 31
	blr
	.cfi_endproc
.LFE2826:
	.size	_ZNK11idAnimState8AnimDoneEi, .-_ZNK11idAnimState8AnimDoneEi
	.align 2
	.globl _ZN7idActor14Event_AnimDoneEii
	.type	_ZN7idActor14Event_AnimDoneEii, @function
_ZN7idActor14Event_AnimDoneEii:
.LFB2940:
	.loc 2 3046 0
	.cfi_startproc
.LVL562:
.LBB2695:
	.loc 2 3049 0
	cmpwi 7,4,2
.LBE2695:
	.loc 2 3046 0
	mflr 0
	stwu 1,-8(1)
.LCFI174:
	.cfi_def_cfa_offset 8
	.cfi_register 65, 0
	stw 0,12(1)
.LBB2696:
	.loc 2 3049 0
	beq- 7,.L357
	.cfi_offset 65, 4
	cmpwi 7,4,3
	beq- 7,.L358
	cmpwi 7,4,1
	beq- 7,.L361
	.loc 2 3066 0
	lis 3,gameLocal@ha
.LVL563:
	lis 4,.LC7@ha
.LVL564:
	la 3,gameLocal@l(3)
	la 4,.LC7@l(4)
	crxor 6,6,6
	bl _ZNK11idGameLocal5ErrorEPKcz
.LVL565:
.LBE2696:
	.loc 2 3068 0
	lwz 0,12(1)
	addi 1,1,8
	.cfi_remember_state
.LCFI175:
	.cfi_def_cfa_offset 0
	mtlr 0
	blr
.LVL566:
.L361:
.LCFI176:
	.cfi_restore_state
.LBB2697:
.LBB2698:
.LBB2699:
	.loc 2 3056 0
	mr 4,5
.LVL567:
	addi 3,3,3792
.LVL568:
	bl _ZNK11idAnimState8AnimDoneEi
.LVL569:
	.loc 2 3057 0
	bl _ZN8idThread9ReturnIntEi
.LVL570:
.LBE2699:
.LBE2698:
.LBE2697:
	.loc 2 3068 0
	lwz 0,12(1)
	addi 1,1,8
	.cfi_remember_state
.LCFI177:
	.cfi_def_cfa_offset 0
	mtlr 0
	blr
.LVL571:
.L358:
.LCFI178:
	.cfi_restore_state
.LBB2700:
	.loc 2 3051 0
	mr 4,5
.LVL572:
	addi 3,3,3728
.LVL573:
	bl _ZNK11idAnimState8AnimDoneEi
.LVL574:
	.loc 2 3052 0
	bl _ZN8idThread9ReturnIntEi
.LVL575:
.LBE2700:
	.loc 2 3068 0
	lwz 0,12(1)
	addi 1,1,8
	.cfi_remember_state
.LCFI179:
	.cfi_def_cfa_offset 0
	mtlr 0
	blr
.LVL576:
.L357:
.LCFI180:
	.cfi_restore_state
.LBB2701:
	.loc 2 3061 0
	mr 4,5
.LVL577:
	addi 3,3,3856
.LVL578:
	bl _ZNK11idAnimState8AnimDoneEi
.LVL579:
	.loc 2 3062 0
	bl _ZN8idThread9ReturnIntEi
.LVL580:
.LBE2701:
	.loc 2 3068 0
	lwz 0,12(1)
	addi 1,1,8
.LCFI181:
	.cfi_def_cfa_offset 0
	mtlr 0
	blr
	.cfi_endproc
.LFE2940:
	.size	_ZN7idActor14Event_AnimDoneEii, .-_ZN7idActor14Event_AnimDoneEii
	.align 2
	.globl _ZNK11idAnimState6IsIdleEv
	.type	_ZNK11idAnimState6IsIdleEv, @function
_ZNK11idAnimState6IsIdleEv:
.LFB2827:
	.loc 2 254 0
	.cfi_startproc
.LVL581:
	.loc 2 255 0
	lbz 9,60(3)
	li 0,1
	cmpwi 7,9,0
	bne- 7,.L363
	.loc 2 255 0 is_stmt 0 discriminator 2
	lbz 0,0(3)
.L363:
	.loc 2 256 0 is_stmt 1 discriminator 4
	mr 3,0
.LVL582:
	blr
	.cfi_endproc
.LFE2827:
	.size	_ZNK11idAnimState6IsIdleEv, .-_ZNK11idAnimState6IsIdleEv
	.align 2
	.globl _ZNK11idAnimState12GetAnimFlagsEv
	.type	_ZNK11idAnimState12GetAnimFlagsEv, @function
_ZNK11idAnimState12GetAnimFlagsEv:
.LFB2828:
	.loc 2 263 0
	.cfi_startproc
.LVL583:
	mflr 0
	stwu 1,-32(1)
.LCFI182:
	.cfi_def_cfa_offset 32
	.cfi_register 65, 0
	stw 31,28(1)
	mr 31,3
	.cfi_offset 31, -4
	stw 0,36(1)
	stw 30,24(1)
.LBB2702:
	.loc 2 267 0
	lbz 0,60(3)
	.cfi_offset 30, -8
	.cfi_offset 65, 4
	cmpwi 7,0,0
	.loc 2 266 0
	li 0,0
	stb 0,8(1)
	.loc 2 267 0
	beq- 7,.L368
.LVL584:
.L367:
.LBE2702:
	.loc 2 272 0
	lwz 0,36(1)
	lbz 3,8(1)
	mtlr 0
	lwz 30,24(1)
	lwz 31,28(1)
.LVL585:
	addi 1,1,32
	.cfi_remember_state
.LCFI183:
	.cfi_def_cfa_offset 0
	.cfi_restore 31
	.cfi_restore 30
	blr
.LVL586:
.L368:
.LCFI184:
	.cfi_restore_state
.LBB2703:
	.loc 2 267 0 discriminator 1
	li 4,0
	bl _ZNK11idAnimState8AnimDoneEi
.LVL587:
	cmpwi 7,3,0
	bne- 7,.L367
	.loc 2 268 0 discriminator 4
	lwz 30,48(31)
	lwz 4,56(31)
	mr 3,30
	bl _ZN10idAnimator11CurrentAnimEi
	bl _ZNK11idAnimBlend7AnimNumEv
	mr 4,3
	mr 3,30
	bl _ZNK10idAnimator12GetAnimFlagsEi
.LBE2703:
	.loc 2 272 0 discriminator 4
	lwz 0,36(1)
.LBB2704:
	.loc 2 268 0 discriminator 4
	stb 3,8(1)
.LBE2704:
	.loc 2 272 0 discriminator 4
	mtlr 0
	lwz 30,24(1)
	lbz 3,8(1)
	lwz 31,28(1)
.LVL588:
	addi 1,1,32
	.cfi_restore 30
	.cfi_restore 31
.LCFI185:
	.cfi_def_cfa_offset 0
	blr
	.cfi_endproc
.LFE2828:
	.size	_ZNK11idAnimState12GetAnimFlagsEv, .-_ZNK11idAnimState12GetAnimFlagsEv
	.align 2
	.globl _ZN11idAnimState6EnableEi
	.type	_ZN11idAnimState6EnableEi, @function
_ZN11idAnimState6EnableEi:
.LFB2829:
	.loc 2 279 0
	.cfi_startproc
.LVL589:
	.loc 2 280 0
	lbz 0,60(3)
	.loc 2 279 0
	mr 9,3
	mr 5,4
	.loc 2 280 0
	cmpwi 7,0,0
	beqlr- 7
	.loc 2 284 0
	lwz 0,4(3)
	cmpwi 7,0,0
	.loc 2 281 0
	li 0,0
	stb 0,60(3)
	.loc 2 282 0
	stw 4,36(9)
	.loc 2 283 0
	stw 4,40(9)
	.loc 2 284 0
	beqlr+ 7
.LVL590:
.LBB2711:
.LBB2712:
	.loc 2 285 0
	lwz 4,8(3)
.LVL591:
.LBE2712:
.LBE2711:
	.loc 2 288 0
.LBB2714:
.LBB2713:
	.loc 2 285 0
	b _ZN11idAnimState8SetStateEPKci
.LVL592:
.LVL593:
.LVL594:
.LVL595:
.LBE2713:
.LBE2714:
	.cfi_endproc
.LFE2829:
	.size	_ZN11idAnimState6EnableEi, .-_ZN11idAnimState6EnableEi
	.align 2
	.globl _ZN7idActor16Event_EnableAnimEii
	.type	_ZN7idActor16Event_EnableAnimEii, @function
_ZN7idActor16Event_EnableAnimEii:
.LFB2933:
	.loc 2 2924 0
	.cfi_startproc
.LVL596:
	.loc 2 2925 0
	cmpwi 7,4,2
	.loc 2 2924 0
	mflr 0
	stwu 1,-8(1)
.LCFI186:
	.cfi_def_cfa_offset 8
	.cfi_register 65, 0
	stw 0,12(1)
	.loc 2 2925 0
	beq- 7,.L374
	.cfi_offset 65, 4
	cmpwi 7,4,3
	beq- 7,.L375
	cmpwi 7,4,1
	beq- 7,.L378
.LBB2717:
.LBB2718:
	.loc 2 2939 0
	lis 3,gameLocal@ha
.LVL597:
	lis 4,.LC7@ha
.LVL598:
	la 3,gameLocal@l(3)
	la 4,.LC7@l(4)
	crxor 6,6,6
	bl _ZNK11idGameLocal5ErrorEPKcz
.LVL599:
.LBE2718:
.LBE2717:
	.loc 2 2942 0
	lwz 0,12(1)
	addi 1,1,8
	.cfi_remember_state
.LCFI187:
	.cfi_def_cfa_offset 0
	mtlr 0
	blr
.LVL600:
.L378:
.LCFI188:
	.cfi_restore_state
	lwz 0,12(1)
	.loc 2 2931 0
	addi 3,3,3792
.LVL601:
	.loc 2 2942 0
	.loc 2 2935 0
	mr 4,5
.LVL602:
	.loc 2 2942 0
	mtlr 0
	addi 1,1,8
	.cfi_remember_state
.LCFI189:
	.cfi_def_cfa_offset 0
	.loc 2 2935 0
	b _ZN11idAnimState6EnableEi
.LVL603:
.L375:
.LCFI190:
	.cfi_restore_state
	.loc 2 2942 0
	lwz 0,12(1)
	.loc 2 2927 0
	addi 3,3,3728
.LVL604:
	.loc 2 2942 0
	.loc 2 2935 0
	mr 4,5
.LVL605:
	.loc 2 2942 0
	mtlr 0
	addi 1,1,8
	.cfi_remember_state
.LCFI191:
	.cfi_def_cfa_offset 0
	.loc 2 2935 0
	b _ZN11idAnimState6EnableEi
.LVL606:
.L374:
.LCFI192:
	.cfi_restore_state
	.loc 2 2942 0
	lwz 0,12(1)
	.loc 2 2935 0
	addi 3,3,3856
.LVL607:
	.loc 2 2942 0
	.loc 2 2935 0
	mr 4,5
.LVL608:
	.loc 2 2942 0
	mtlr 0
	addi 1,1,8
.LCFI193:
	.cfi_def_cfa_offset 0
	.loc 2 2935 0
	b _ZN11idAnimState6EnableEi
.LVL609:
.LVL610:
	.cfi_endproc
.LFE2933:
	.size	_ZN7idActor16Event_EnableAnimEii, .-_ZN7idActor16Event_EnableAnimEii
	.align 2
	.globl _ZN11idAnimState7DisableEv
	.type	_ZN11idAnimState7DisableEv, @function
_ZN11idAnimState7DisableEv:
.LFB2830:
	.loc 2 295 0
	.cfi_startproc
.LVL611:
	.loc 2 296 0
	li 0,1
	.loc 2 298 0
	.loc 2 296 0
	stb 0,60(3)
	.loc 2 297 0
	li 0,0
	stb 0,0(3)
	.loc 2 298 0
	blr
	.cfi_endproc
.LFE2830:
	.size	_ZN11idAnimState7DisableEv, .-_ZN11idAnimState7DisableEv
	.align 2
	.globl _ZN11idAnimState11UpdateStateEv
	.type	_ZN11idAnimState11UpdateStateEv, @function
_ZN11idAnimState11UpdateStateEv:
.LFB2831:
	.loc 2 305 0
	.cfi_startproc
.LVL612:
	mflr 0
	stwu 1,-8(1)
.LCFI194:
	.cfi_def_cfa_offset 8
	.cfi_register 65, 0
	mr 9,3
	stw 0,12(1)
	.loc 2 306 0
	lbz 0,60(3)
	.cfi_offset 65, 4
	.loc 2 307 0
	li 3,0
.LVL613:
	.loc 2 306 0
	cmpwi 7,0,0
	bne- 7,.L381
.LVL614:
.LBB2727:
	.loc 2 310 0
	lis 11,ai_debugScript+44@ha
.LBB2728:
.LBB2729:
.LBB2730:
	.loc 10 143 0
	lwz 10,ai_debugScript+44@l(11)
.LBE2730:
.LBE2729:
	.loc 2 310 0
	lwz 11,44(9)
	lwz 10,36(10)
	lwz 11,4(11)
	cmpw 7,10,11
	.loc 2 311 0
	lwz 11,52(9)
	.loc 2 310 0
	beq- 7,.L385
.LBB2731:
.LBB2732:
	.loc 13 206 0
	stb 0,6975(11)
.L383:
.LBE2732:
.LBE2731:
	.loc 2 316 0
	lwz 3,52(9)
	bl _ZN8idThread7ExecuteEv
.LVL615:
	li 3,1
.L381:
.LBE2728:
.LBE2727:
	.loc 2 319 0
	lwz 0,12(1)
	addi 1,1,8
	.cfi_remember_state
.LCFI195:
	.cfi_def_cfa_offset 0
	mtlr 0
	blr
.LVL616:
.L385:
.LCFI196:
	.cfi_restore_state
.LBB2736:
.LBB2735:
.LBB2733:
.LBB2734:
	.loc 13 205 0
	li 0,1
	stb 0,6975(11)
	b .L383
.LBE2734:
.LBE2733:
.LBE2735:
.LBE2736:
	.cfi_endproc
.LFE2831:
	.size	_ZN11idAnimState11UpdateStateEv, .-_ZN11idAnimState11UpdateStateEv
	.align 2
	.globl _ZN7idActor24CopyJointsFromBodyToHeadEv
	.type	_ZN7idActor24CopyJointsFromBodyToHeadEv, @function
_ZN7idActor24CopyJointsFromBodyToHeadEv:
.LFB2844:
	.loc 2 724 0
	.cfi_startproc
.LVL617:
	mflr 0
	stwu 1,-224(1)
.LCFI197:
	.cfi_def_cfa_offset 224
	.cfi_register 65, 0
	stw 26,192(1)
.LBB2798:
.LBB2799:
.LBB2800:
	.loc 5 635 0
	lis 26,gameLocal@ha
	.cfi_offset 26, -32
.LBE2800:
.LBE2799:
.LBE2798:
	.loc 2 724 0
	stw 30,208(1)
.LBB2934:
.LBB2804:
.LBB2801:
	.loc 5 635 0
	la 26,gameLocal@l(26)
.LBE2801:
.LBE2804:
.LBE2934:
	.loc 2 724 0
	stw 0,228(1)
	mr 30,3
	.cfi_offset 65, 4
	.cfi_offset 30, -16
.LVL618:
	stfd 31,216(1)
	stw 24,184(1)
	stw 25,188(1)
	stw 27,196(1)
	stw 28,200(1)
	stw 29,204(1)
	stw 31,212(1)
.LBB2935:
.LBB2805:
.LBB2802:
	.loc 5 634 0
	lwz 0,2424(3)
	rlwinm 9,0,0,20,31
.LVL619:
	.loc 5 635 0
	srawi 0,0,12
	addi 11,9,4228
	slwi 11,11,2
	add 11,26,11
	lwz 11,4(11)
	cmpw 7,11,0
	beq- 7,.L396
	.cfi_offset 31, -12
	.cfi_offset 29, -20
	.cfi_offset 28, -24
	.cfi_offset 27, -28
	.cfi_offset 25, -36
	.cfi_offset 24, -40
	.cfi_offset 63, -8
.LVL620:
.L386:
.LBE2802:
.LBE2805:
.LBE2935:
	.loc 2 752 0
	lwz 0,228(1)
	lwz 24,184(1)
	mtlr 0
	lwz 25,188(1)
	lwz 26,192(1)
	lwz 27,196(1)
	lwz 28,200(1)
	lwz 29,204(1)
	lwz 30,208(1)
.LVL621:
	lwz 31,212(1)
	lfd 31,216(1)
	addi 1,1,224
	.cfi_remember_state
.LCFI198:
	.cfi_def_cfa_offset 0
	.cfi_restore 63
	.cfi_restore 31
	.cfi_restore 30
	.cfi_restore 29
	.cfi_restore 28
	.cfi_restore 27
	.cfi_restore 26
	.cfi_restore 25
	.cfi_restore 24
	blr
.LVL622:
.L396:
.LCFI199:
	.cfi_restore_state
.LBB2936:
.LBB2806:
.LBB2803:
	.loc 5 636 0
	addi 9,9,132
.LVL623:
	slwi 9,9,2
.LVL624:
	add 9,26,9
	lwz 25,4(9)
.LBE2803:
.LBE2806:
	.loc 2 732 0
	cmpwi 7,25,0
	beq- 7,.L386
	.loc 2 736 0
	lwz 9,0(25)
	mr 3,25
.LVL625:
	lwz 0,92(9)
	mtctr 0
	bctrl
	.loc 2 739 0
	lwz 0,2428(30)
	.loc 2 736 0
	mr 28,3
.LVL626:
	.loc 2 739 0
	cmpwi 7,0,0
	ble- 7,.L386
	li 31,0
	li 29,0
	addis 26,26,0x25
	.loc 2 747 0
	addi 24,30,636
	addi 27,1,68
	b .L393
.LVL627:
.L388:
	lwz 4,4(9)
	addi 6,1,20
	lwz 5,2004(26)
	addi 7,1,104
	mr 3,24
	bl _ZN10idAnimator22GetJointLocalTransformE13jointHandle_tiR6idVec3R6idMat3
.LVL628:
.LBB2807:
.LBB2808:
	.file 17 "d:/Data/Nintendo/DoomGX/src/game/../idlib/../idlib/containers/List.h"
	.loc 17 589 0
	lwz 9,2440(30)
.LBE2808:
.LBE2807:
	.loc 2 748 0
	mr 3,28
	addi 6,1,20
.LBB2810:
.LBB2809:
	.loc 17 589 0
	add 11,9,31
.LVL629:
.LBE2809:
.LBE2810:
	.loc 2 748 0
	lwzx 5,9,31
	lwz 4,8(11)
	bl _ZN10idAnimator11SetJointPosE13jointHandle_t19jointModTransform_tRK6idVec3
.LVL630:
.LBB2811:
.LBB2812:
	.loc 17 589 0
	lwz 9,2440(30)
.LBE2812:
.LBE2811:
	.loc 2 749 0
	mr 3,28
	addi 6,1,104
.LBB2814:
.LBB2813:
	.loc 17 589 0
	add 11,9,31
.LVL631:
.LBE2813:
.LBE2814:
	.loc 2 749 0
	lwzx 5,9,31
	lwz 4,8(11)
	bl _ZN10idAnimator12SetJointAxisE13jointHandle_t19jointModTransform_tRK6idMat3
.LVL632:
.L392:
	.loc 2 739 0
	lwz 0,2428(30)
	addi 29,29,1
.LVL633:
	addi 31,31,12
	cmpw 7,0,29
	ble- 7,.L386
.LVL634:
.L393:
.LBB2815:
.LBB2816:
	.loc 17 589 0
	lwz 9,2440(30)
.LBE2816:
.LBE2815:
	.loc 2 740 0
	lwzx 0,9,31
.LBB2818:
.LBB2817:
	.loc 17 589 0
	add 9,9,31
.LBE2817:
.LBE2818:
	.loc 2 740 0
	cmpwi 7,0,4
	bne+ 7,.L388
	.loc 2 741 0
	mr 3,25
	bl _ZNK8idEntity10GetPhysicsEv
	li 4,0
	lwz 9,0(3)
	lwz 0,136(9)
	mtctr 0
	bctrl
.LVL635:
.LBB2819:
.LBB2820:
.LBB2821:
	.loc 11 402 0
	lwz 10,8(3)
.LBE2821:
.LBE2820:
.LBB2822:
.LBB2823:
	lwz 9,32(3)
.LBE2823:
.LBE2822:
.LBB2824:
.LBB2825:
	.loc 12 427 0
	stw 10,92(1)
	li 10,0
.LBE2825:
.LBE2824:
.LBB2831:
.LBB2832:
	.loc 11 402 0
	lwz 7,0(3)
.LVL636:
.LBE2832:
.LBE2831:
.LBE2819:
.LBB2850:
.LBB2851:
	.loc 12 333 0
	cmpwi 7,10,24
.LBE2851:
.LBE2850:
.LBB2863:
.LBB2833:
.LBB2826:
	.loc 12 427 0
	stw 9,100(1)
.LBE2826:
.LBE2833:
.LBE2863:
.LBB2864:
.LBB2860:
.LBB2852:
.LBB2853:
	.loc 11 424 0
	addi 9,1,140
	stwux 7,9,10
.LBE2853:
.LBE2852:
	.loc 12 333 0
	addi 10,10,12
.LBE2860:
.LBE2864:
.LBB2865:
.LBB2834:
.LBB2835:
	.loc 11 402 0
	lwz 8,12(3)
.LVL637:
.LBE2835:
.LBE2834:
.LBB2836:
.LBB2837:
	lwz 0,24(3)
.LVL638:
.LBE2837:
.LBE2836:
.LBB2838:
.LBB2839:
	lwz 11,20(3)
.LBE2839:
.LBE2838:
.LBB2840:
.LBB2841:
	lwz 4,4(3)
.LVL639:
.LBE2841:
.LBE2840:
.LBB2842:
.LBB2843:
	lwz 5,16(3)
.LVL640:
.LBE2843:
.LBE2842:
.LBB2844:
.LBB2845:
	lwz 6,28(3)
.LVL641:
.LBE2845:
.LBE2844:
.LBB2846:
.LBB2827:
	.loc 12 427 0
	stw 11,96(1)
.LBE2827:
.LBE2846:
.LBE2865:
.LBB2866:
.LBB2861:
	.loc 12 333 0
	mr 11,27
.LBE2861:
.LBE2866:
.LBB2867:
.LBB2847:
.LBB2828:
	.loc 12 425 0
	stw 7,68(1)
	stw 8,72(1)
	stw 0,76(1)
	.loc 12 426 0
	stw 4,80(1)
	stw 5,84(1)
	stw 6,88(1)
.LBE2828:
.LBE2847:
.LBE2867:
.LBB2868:
.LBB2862:
.LBB2857:
.LBB2854:
	.loc 11 425 0
	stw 8,4(9)
	.loc 11 426 0
	stw 0,8(9)
.LBE2854:
.LBE2857:
	.loc 12 333 0
	beq- 7,.L389
.LVL642:
.L397:
	lwzux 7,11,10
	cmpwi 7,10,24
.LBB2858:
.LBB2855:
	.loc 11 424 0
	addi 9,1,140
.LVL643:
	stwux 7,9,10
.LVL644:
.LBE2855:
.LBE2858:
	.loc 12 333 0
	addi 10,10,12
	.loc 2 724 0
	lwz 8,4(11)
	lwz 0,8(11)
	.loc 12 333 0
	mr 11,27
.LBB2859:
.LBB2856:
	.loc 11 425 0
	stw 8,4(9)
	.loc 11 426 0
	stw 0,8(9)
.LBE2856:
.LBE2859:
	.loc 12 333 0
	bne+ 7,.L397
.L389:
.LVL645:
.LBE2862:
.LBE2868:
	.loc 2 742 0
	lwz 9,2440(30)
	addi 6,1,20
	lwz 5,2004(26)
	addi 7,1,104
	add 9,9,31
	mr 3,30
.LVL646:
	lwz 4,4(9)
.LVL647:
	bl _ZN16idAnimatedEntity22GetJointWorldTransformE13jointHandle_tiR6idVec3R6idMat3
.LVL648:
	.loc 2 743 0
	mr 3,25
	bl _ZNK8idEntity10GetPhysicsEv
	li 4,0
	lwz 9,0(3)
	lwz 0,132(9)
	mtctr 0
	bctrl
.LVL649:
.LBB2869:
.LBB2870:
	.loc 11 482 0
	lfs 12,24(1)
	lfs 13,4(3)
.LBE2870:
.LBE2869:
	.loc 2 744 0
	addi 6,1,8
.LBB2877:
.LBB2871:
	.loc 11 481 0
	lfs 0,0(3)
	.loc 11 482 0
	fsubs 13,12,13
	.loc 11 481 0
	lfs 12,20(1)
.LBE2871:
.LBE2877:
.LBB2878:
.LBB2879:
.LBB2880:
	.loc 12 454 0
	lfs 9,156(1)
.LBE2880:
.LBE2879:
.LBE2878:
.LBB2905:
.LBB2872:
	.loc 11 483 0
	lfs 8,8(3)
	.loc 11 481 0
	fsubs 12,12,0
	.loc 11 483 0
	lfs 0,28(1)
.LBE2872:
.LBE2905:
.LBB2906:
.LBB2897:
.LBB2889:
	.loc 12 454 0
	fmuls 9,13,9
	lfs 10,160(1)
.LBE2889:
.LBE2897:
.LBE2906:
	.loc 2 744 0
	mr 3,28
.LVL650:
.LBB2907:
.LBB2873:
	.loc 11 483 0
	fsubs 0,0,8
.LBE2873:
.LBE2907:
.LBB2908:
.LBB2898:
.LBB2890:
	.loc 12 454 0
	lfs 8,144(1)
	fmuls 10,13,10
	lfs 11,152(1)
	fmadds 9,12,8,9
	lfs 8,148(1)
	fmuls 11,13,11
	lfs 31,140(1)
	fmadds 10,12,8,10
.LBE2890:
.LBE2898:
.LBE2908:
.LBB2909:
.LBB2874:
	.loc 11 482 0
	stfs 13,24(1)
.LBE2874:
.LBE2909:
.LBB2910:
.LBB2899:
.LBB2891:
	.loc 12 454 0
	lfs 13,172(1)
.LBB2881:
.LBB2882:
	fmadds 11,12,31,11
.LBE2882:
.LBE2881:
.LBE2891:
.LBE2899:
.LBE2910:
.LBB2911:
.LBB2912:
	.loc 17 589 0
	lwz 9,2440(30)
.LBE2912:
.LBE2911:
.LBB2914:
.LBB2900:
.LBB2892:
	.loc 12 454 0
	fmadds 13,0,13,10
.LBE2892:
.LBE2900:
.LBE2914:
.LBB2915:
.LBB2875:
	.loc 11 481 0
	stfs 12,20(1)
.LBE2875:
.LBE2915:
.LBB2916:
.LBB2901:
.LBB2893:
.LBB2886:
.LBB2883:
	.loc 12 454 0
	lfs 10,164(1)
.LBE2883:
.LBE2886:
.LBE2893:
.LBE2901:
.LBE2916:
.LBB2917:
.LBB2913:
	.loc 17 589 0
	add 11,9,31
.LBE2913:
.LBE2917:
.LBB2918:
.LBB2902:
.LBB2894:
	.loc 12 454 0
	lfs 12,168(1)
.LBE2894:
.LBE2902:
.LBE2918:
.LBB2919:
.LBB2876:
	.loc 11 483 0
	stfs 0,28(1)
.LVL651:
.LBE2876:
.LBE2919:
.LBB2920:
.LBB2903:
.LBB2895:
	.loc 12 454 0
	fmadds 12,0,12,9
.LBB2887:
.LBB2884:
	fmadds 0,0,10,11
.LBE2884:
.LBE2887:
.LBE2895:
.LBE2903:
.LBE2920:
	.loc 2 744 0
	lwzx 5,9,31
	lwz 4,8(11)
.LVL652:
.LBB2921:
.LBB2904:
.LBB2896:
.LBB2888:
.LBB2885:
	.loc 11 397 0
	stfs 12,12(1)
	.loc 11 396 0
	stfs 0,8(1)
	.loc 11 398 0
	stfs 13,16(1)
.LBE2885:
.LBE2888:
.LBE2896:
.LBE2904:
.LBE2921:
	.loc 2 744 0
	bl _ZN10idAnimator11SetJointPosE13jointHandle_t19jointModTransform_tRK6idVec3
.LVL653:
.LBB2922:
.LBB2923:
	.loc 17 589 0
	lwz 9,2440(30)
.LBE2923:
.LBE2922:
.LBB2925:
.LBB2848:
.LBB2829:
	.loc 2 745 0
	addi 11,1,104
.LBE2829:
.LBE2848:
.LBE2925:
.LBB2926:
.LBB2924:
	.loc 17 589 0
	add 10,9,31
.LBE2924:
.LBE2926:
	.loc 2 745 0
	lwzx 5,9,31
	lwz 4,8(10)
.LVL654:
.LBB2927:
.LBB2849:
.LBB2830:
	.loc 12 465 0
	addi 9,1,32
.LVL655:
.L391:
.LBE2830:
.LBE2849:
.LBE2927:
	.loc 2 724 0
	lfs 0,4(11)
.LBB2928:
.LBB2929:
	.loc 12 471 0
	lfs 13,160(1)
	lfs 11,152(1)
	lfs 12,156(1)
	fmuls 11,0,11
	lfs 9,144(1)
	fmuls 12,0,12
	lfs 10,148(1)
	fmuls 0,0,13
.LBE2929:
.LBE2928:
	.loc 2 724 0
	lfs 13,0(11)
.LBB2932:
.LBB2930:
	.loc 12 471 0
	lfs 8,164(1)
	fmadds 12,13,9,12
	lfs 9,168(1)
	fmadds 11,31,13,11
	fmadds 13,13,10,0
.LBE2930:
.LBE2932:
	.loc 2 724 0
	lfs 0,8(11)
.LBB2933:
.LBB2931:
	.loc 12 471 0
	lfs 10,172(1)
	.loc 12 474 0
	addi 11,11,12
.LVL656:
	.loc 12 471 0
	fmadds 11,8,0,11
	fmadds 12,9,0,12
	fmadds 0,10,0,13
	stfs 11,0(9)
.LVL657:
	stfs 12,4(9)
.LVL658:
	stfs 0,8(9)
.LVL659:
	addi 9,9,12
.LVL660:
	.loc 12 467 0
	cmpw 7,9,27
	bne+ 7,.L391
.LBE2931:
.LBE2933:
	.loc 2 745 0
	mr 3,28
	addi 6,1,32
	bl _ZN10idAnimator12SetJointAxisE13jointHandle_t19jointModTransform_tRK6idMat3
.LVL661:
	b .L392
.LBE2936:
	.cfi_endproc
.LFE2844:
	.size	_ZN7idActor24CopyJointsFromBodyToHeadEv, .-_ZN7idActor24CopyJointsFromBodyToHeadEv
	.align 2
	.globl _ZN7idActor9SetupBodyEv
	.type	_ZN7idActor9SetupBodyEv, @function
_ZN7idActor9SetupBodyEv:
.LFB2853:
	.loc 2 1088 0
	.cfi_startproc
.LVL662:
	stwu 1,-88(1)
.LCFI200:
	.cfi_def_cfa_offset 88
	mflr 0
.LBB2979:
	.loc 2 1091 0
	li 5,0
.LBE2979:
	.loc 2 1088 0
	stw 30,80(1)
.LBB3059:
	.loc 2 1091 0
	lis 30,gameLocal@ha
	.cfi_offset 30, -8
	.cfi_register 65, 0
.LBE3059:
	.loc 2 1088 0
	stw 0,92(1)
.LBB3060:
	.loc 2 1091 0
	la 30,gameLocal@l(30)
.LBE3060:
	.loc 2 1088 0
	stw 27,68(1)
.LBB3061:
	.loc 2 1091 0
	addis 27,30,0x25
	.cfi_offset 27, -20
	.cfi_offset 65, 4
.LBE3061:
	.loc 2 1088 0
	stw 29,76(1)
.LBB3062:
	.loc 2 1091 0
	addi 29,3,636
	.cfi_offset 29, -12
.LBE3062:
	.loc 2 1088 0
	stw 31,84(1)
	mr 31,3
	.cfi_offset 31, -4
	stw 25,60(1)
.LBB3063:
	.loc 2 1091 0
	mr 3,29
.LVL663:
.LBE3063:
	.loc 2 1088 0
	stw 26,64(1)
	stw 28,72(1)
.LBB3064:
	.loc 2 1091 0
	lwz 4,2004(27)
	.cfi_offset 28, -16
	.cfi_offset 26, -24
	.cfi_offset 25, -28
	bl _ZN10idAnimator13ClearAllAnimsEii
	.loc 2 1092 0
	mr 3,29
	bl _ZN10idAnimator14ClearAllJointsEv
.LVL664:
.LBB2980:
.LBB2981:
	.loc 5 634 0
	lwz 0,2424(31)
	rlwinm 9,0,0,20,31
.LVL665:
	.loc 5 635 0
	srawi 0,0,12
	addi 11,9,4228
	slwi 11,11,2
	add 11,30,11
	lwz 11,4(11)
	cmpw 7,11,0
	beq- 7,.L413
.LVL666:
.L399:
.LBE2981:
.LBE2980:
.LBB2983:
.LBB2984:
	.loc 2 1122 0
	addi 30,31,100
.LVL667:
.LBB2985:
.LBB2986:
	.loc 15 241 0
	lis 4,.LC84@ha
	mr 3,30
	la 4,.LC84@l(4)
	bl _ZNK6idDict7FindKeyEPKc
.LVL668:
	.loc 15 242 0
	cmpwi 0,3,0
	beq- 0,.L411
.LVL669:
.LBB2987:
	.loc 2 3283 0
	lwz 9,4(3)
	lis 28,.LC3@ha
	la 28,.LC3@l(28)
	lwz 4,4(9)
.LVL670:
.L405:
.LBE2987:
.LBE2986:
.LBE2985:
	.loc 2 1123 0
	mr 3,29
.LVL671:
	bl _ZNK10idAnimator14GetJointHandleEPKc
.LBB2989:
.LBB2990:
	.loc 15 241 0
	lis 4,.LC85@ha
.LBE2990:
.LBE2989:
	.loc 2 1123 0
	stw 3,2452(31)
.LVL672:
.LBB2993:
.LBB2992:
	.loc 15 241 0
	la 4,.LC85@l(4)
	mr 3,30
	bl _ZNK6idDict7FindKeyEPKc
.LVL673:
	.loc 15 245 0
	mr 4,28
	.loc 15 242 0
	cmpwi 0,3,0
	beq- 0,.L406
.LVL674:
.LBB2991:
	.loc 2 3283 0
	lwz 9,4(3)
	lwz 4,4(9)
.LVL675:
.L406:
.LBE2991:
.LBE2992:
.LBE2993:
	.loc 2 1126 0
	mr 3,29
.LVL676:
	bl _ZNK10idAnimator14GetJointHandleEPKc
.LBB2994:
	.loc 2 1129 0
	lis 4,.LC86@ha
.LBE2994:
	.loc 2 1126 0
	stw 3,2456(31)
.LBB3006:
	.loc 2 1129 0
	lis 5,.LC77@ha
	mr 3,30
	la 4,.LC86@l(4)
	la 5,.LC77@l(5)
	addi 6,31,2348
	bl _ZNK6idDict8GetFloatEPKcS1_Rf
	cmpwi 7,3,0
	beq- 7,.L414
.L407:
.LBE3006:
	.loc 2 1145 0
	addi 3,31,3728
	mr 4,31
	mr 5,29
	li 6,3
	bl _ZN11idAnimState4InitEP7idActorP10idAnimatori
	b .L404
.LVL677:
.L413:
.LBE2984:
.LBE2983:
.LBB3056:
.LBB2982:
	.loc 5 636 0
	addi 9,9,132
.LVL678:
	slwi 9,9,2
.LVL679:
	add 30,30,9
	lwz 30,4(30)
.LBE2982:
.LBE3056:
.LBB3057:
	.loc 2 1095 0
	cmpwi 7,30,0
	beq- 7,.L399
.LBB3009:
	.loc 2 1096 0
	addi 26,31,100
.LVL680:
.LBB3010:
.LBB3011:
	.loc 15 241 0
	lis 4,.LC84@ha
	mr 3,26
	la 4,.LC84@l(4)
	bl _ZNK6idDict7FindKeyEPKc
.LVL681:
	.loc 15 242 0
	cmpwi 0,3,0
	beq- 0,.L409
.LVL682:
.LBB3012:
	.loc 2 3283 0
	lwz 9,4(3)
	lis 28,.LC3@ha
	la 28,.LC3@l(28)
	lwz 25,4(9)
.LVL683:
.L400:
.LBE3012:
.LBE3011:
.LBE3010:
	.loc 2 1097 0
	lwz 9,0(30)
	mr 3,30
.LVL684:
	lwz 0,92(9)
	mtctr 0
	bctrl
	mr 4,25
	bl _ZNK10idAnimator14GetJointHandleEPKc
.LBB3014:
.LBB3015:
	.loc 15 241 0
	lis 4,.LC85@ha
.LBE3015:
.LBE3014:
	.loc 2 1097 0
	stw 3,2452(31)
.LVL685:
.LBB3018:
.LBB3017:
	.loc 15 241 0
	la 4,.LC85@l(4)
	mr 3,26
	.loc 15 245 0
	mr 25,28
	.loc 15 241 0
	bl _ZNK6idDict7FindKeyEPKc
.LVL686:
	.loc 15 242 0
	cmpwi 0,3,0
	beq- 0,.L401
.LVL687:
.LBB3016:
	.loc 2 3283 0
	lwz 9,4(3)
	lwz 25,4(9)
.LVL688:
.L401:
.LBE3016:
.LBE3017:
.LBE3018:
	.loc 2 1100 0
	lwz 9,0(30)
	mr 3,30
.LVL689:
	lwz 0,92(9)
	mtctr 0
	bctrl
	mr 4,25
	bl _ZNK10idAnimator14GetJointHandleEPKc
.LBB3019:
	.loc 2 1103 0
	lis 4,.LC86@ha
.LBE3019:
	.loc 2 1100 0
	stw 3,2456(31)
.LBB3051:
	.loc 2 1103 0
	lis 5,.LC77@ha
	mr 3,26
	la 4,.LC86@l(4)
	la 5,.LC77@l(5)
	addi 6,31,2348
	bl _ZNK6idDict8GetFloatEPKcS1_Rf
	cmpwi 7,3,0
	beq- 7,.L415
.LVL690:
.L402:
.LBE3051:
	.loc 2 1120 0
	lwz 9,0(30)
	mr 3,30
	lwz 0,92(9)
	mtctr 0
	bctrl
	mr 4,31
	mr 5,3
	li 6,0
	addi 3,31,3728
	bl _ZN11idAnimState4InitEP7idActorP10idAnimatori
.LVL691:
.L404:
.LBE3009:
.LBE3057:
	.loc 2 1148 0
	addi 3,31,3696
	mr 4,28
	bl _ZN5idStraSEPKc
	.loc 2 1150 0
	addi 3,31,3792
	mr 4,31
	mr 5,29
	li 6,1
	bl _ZN11idAnimState4InitEP7idActorP10idAnimatori
	.loc 2 1151 0
	addi 3,31,3856
	mr 4,31
	mr 5,29
	li 6,2
	bl _ZN11idAnimState4InitEP7idActorP10idAnimatori
.LBE3064:
	.loc 2 1152 0
	lwz 0,92(1)
	lwz 25,60(1)
	mtlr 0
	lwz 26,64(1)
	lwz 27,68(1)
	lwz 28,72(1)
	lwz 29,76(1)
	lwz 30,80(1)
	lwz 31,84(1)
.LVL692:
	addi 1,1,88
	.cfi_remember_state
.LCFI201:
	.cfi_def_cfa_offset 0
	.cfi_restore 31
	.cfi_restore 30
	.cfi_restore 29
	.cfi_restore 28
	.cfi_restore 27
	.cfi_restore 26
	.cfi_restore 25
	blr
.LVL693:
.L415:
.LCFI202:
	.cfi_restore_state
.LBB3065:
.LBB3058:
.LBB3054:
.LBB3052:
.LBB3020:
	.loc 2 1105 0
	lwz 9,0(30)
	mr 3,30
	lwz 0,92(9)
	mtctr 0
	bctrl
	lis 4,.LC87@ha
	la 4,.LC87@l(4)
	bl _ZNK10idAnimator7GetAnimEPKc
.LVL694:
.LBB3021:
	.loc 2 1106 0
	mr. 26,3
.LVL695:
	beq- 0,.L403
	.loc 2 1106 0 is_stmt 0 discriminator 1
	lwz 0,2452(31)
	cmpwi 7,0,-1
	beq- 7,.L403
.LBB3022:
	.loc 2 1109 0 is_stmt 1
	lwz 9,0(30)
	mr 3,30
.LVL696:
	lwz 0,92(9)
	mtctr 0
	bctrl
	lwz 6,2004(27)
	li 4,0
	mr 5,26
	li 7,0
	bl _ZN10idAnimator8PlayAnimEiiii
	.loc 2 1110 0
	lwz 9,0(30)
	mr 3,30
	lwz 0,92(9)
	mtctr 0
	bctrl
	lwz 5,2004(27)
	lwz 4,2452(31)
	addi 6,1,8
	addi 7,1,20
	bl _ZN10idAnimator17GetJointTransformE13jointHandle_tiR6idVec3R6idMat3
	.loc 2 1111 0
	lwz 9,0(30)
	mr 3,30
	lwz 0,92(9)
	mtctr 0
	bctrl
	lwz 4,2004(27)
	li 5,0
	bl _ZN10idAnimator13ClearAllAnimsEii
	.loc 2 1112 0
	lwz 9,0(30)
	mr 3,30
	lwz 0,92(9)
	mtctr 0
	bctrl
	bl _ZN10idAnimator11ForceUpdateEv
	.loc 2 1113 0
	mr 3,30
	bl _ZNK8idEntity10GetPhysicsEv
	li 4,0
	lwz 9,0(3)
	lwz 0,132(9)
	mtctr 0
	bctrl
	mr 27,3
	mr 3,31
	bl _ZNK8idEntity10GetPhysicsEv
	li 4,0
	lwz 9,0(3)
	lwz 0,132(9)
	mtctr 0
	bctrl
.LVL697:
.LBB3023:
.LBB3024:
	.loc 11 431 0
	lfs 11,0(27)
	lfs 12,0(3)
	lfs 9,4(27)
	lfs 13,4(3)
	fsubs 12,11,12
.LBE3024:
.LBE3023:
.LBB3027:
.LBB3028:
	.loc 11 456 0
	lfs 11,8(1)
.LBE3028:
.LBE3027:
.LBB3034:
.LBB3025:
	.loc 11 431 0
	lfs 10,8(27)
	fsubs 13,9,13
	lfs 0,8(3)
.LBE3025:
.LBE3034:
.LBB3035:
.LBB3029:
	.loc 11 456 0
	fadds 12,12,11
	.loc 11 457 0
	lfs 11,12(1)
.LBE3029:
.LBE3035:
.LBB3036:
.LBB3026:
	.loc 11 431 0
	fsubs 0,10,0
.LVL698:
.LBE3026:
.LBE3036:
.LBB3037:
.LBB3038:
	.loc 11 452 0
	lfs 9,2352(31)
.LBE3038:
.LBE3037:
.LBB3042:
.LBB3030:
	.loc 11 457 0
	fadds 13,13,11
.LVL699:
	.loc 11 458 0
	lfs 11,16(1)
.LBE3030:
.LBE3042:
.LBB3043:
.LBB3039:
	.loc 11 452 0
	lfs 10,2356(31)
	fadds 9,12,9
.LBE3039:
.LBE3043:
.LBB3044:
.LBB3031:
	.loc 11 458 0
	fadds 0,0,11
.LVL700:
.LBE3031:
.LBE3044:
.LBB3045:
.LBB3040:
	.loc 11 452 0
	lfs 11,2360(31)
	fadds 10,13,10
.LBE3040:
.LBE3045:
.LBB3046:
.LBB3032:
	.loc 11 456 0
	stfs 12,8(1)
	.loc 11 457 0
	stfs 13,12(1)
.LBE3032:
.LBE3046:
.LBB3047:
.LBB3041:
	.loc 11 452 0
	fadds 11,0,11
.LBE3041:
.LBE3047:
.LBB3048:
.LBB3033:
	.loc 11 458 0
	stfs 0,16(1)
.LVL701:
.LBE3033:
.LBE3048:
.LBB3049:
.LBB3050:
	.loc 11 424 0
	stfs 9,2340(31)
	.loc 11 425 0
	stfs 10,2344(31)
	.loc 11 426 0
	stfs 11,2348(31)
	b .L402
.LVL702:
.L403:
.LBE3050:
.LBE3049:
.LBE3022:
	.loc 2 1117 0
	mr 3,31
	bl _ZNK8idEntity10GetPhysicsEv
	li 4,-1
	lwz 9,0(3)
	lwz 0,56(9)
	mtctr 0
	bctrl
.LVL703:
	lis 9,.LC88@ha
	lfs 13,20(3)
	lfs 0,.LC88@l(9)
	fsubs 0,13,0
	stfs 0,2348(31)
	b .L402
.LVL704:
.L409:
.LBE3021:
.LBE3020:
.LBE3052:
.LBB3053:
.LBB3013:
	.loc 15 245 0
	lis 28,.LC3@ha
	la 28,.LC3@l(28)
	mr 25,28
	b .L400
.LVL705:
.L411:
.LBE3013:
.LBE3053:
.LBE3054:
.LBB3055:
.LBB3007:
.LBB2988:
	lis 28,.LC3@ha
	la 28,.LC3@l(28)
	mr 4,28
	b .L405
.LVL706:
.L414:
.LBE2988:
.LBE3007:
.LBB3008:
.LBB2995:
	.loc 2 1131 0
	lis 4,.LC87@ha
	mr 3,29
	la 4,.LC87@l(4)
	bl _ZNK10idAnimator7GetAnimEPKc
.LVL707:
.LBB2996:
	.loc 2 1132 0
	mr. 5,3
	beq- 0,.L408
	.loc 2 1132 0 is_stmt 0 discriminator 1
	lwz 0,2452(31)
	cmpwi 7,0,-1
	beq- 7,.L408
.LBB2997:
	.loc 2 1135 0 is_stmt 1
	lwz 6,2004(27)
	li 4,0
	li 7,0
	mr 3,29
.LVL708:
	bl _ZN10idAnimator8PlayAnimEiiii
.LVL709:
	.loc 2 1136 0
	lwz 4,2452(31)
	lwz 5,2004(27)
	addi 6,1,8
	addi 7,1,20
	mr 3,29
	bl _ZN10idAnimator17GetJointTransformE13jointHandle_tiR6idVec3R6idMat3
	.loc 2 1137 0
	lwz 4,2004(27)
	mr 3,29
	li 5,0
	bl _ZN10idAnimator13ClearAllAnimsEii
	.loc 2 1138 0
	mr 3,29
	bl _ZN10idAnimator11ForceUpdateEv
.LVL710:
.LBB2998:
.LBB2999:
	.loc 11 452 0
	lfs 11,12(1)
	lfs 12,2356(31)
	lfs 13,2360(31)
	fadds 12,11,12
	lfs 11,16(1)
	lfs 0,2352(31)
	fadds 13,11,13
.LVL711:
	lfs 11,8(1)
.LBE2999:
.LBE2998:
.LBB3001:
.LBB3002:
	.loc 11 425 0
	stfs 12,2344(31)
.LBE3002:
.LBE3001:
.LBB3004:
.LBB3000:
	.loc 11 452 0
	fadds 0,11,0
.LBE3000:
.LBE3004:
.LBB3005:
.LBB3003:
	.loc 11 426 0
	stfs 13,2348(31)
	.loc 11 424 0
	stfs 0,2340(31)
	b .L407
.LVL712:
.L408:
.LBE3003:
.LBE3005:
.LBE2997:
	.loc 2 1142 0
	mr 3,31
.LVL713:
	bl _ZNK8idEntity10GetPhysicsEv
.LVL714:
	li 4,-1
	lwz 9,0(3)
	lwz 0,56(9)
	mtctr 0
	bctrl
.LVL715:
	lis 9,.LC88@ha
	lfs 13,20(3)
	lfs 0,.LC88@l(9)
	fsubs 0,13,0
	stfs 0,2348(31)
	b .L407
.LBE2996:
.LBE2995:
.LBE3008:
.LBE3055:
.LBE3058:
.LBE3065:
	.cfi_endproc
.LFE2853:
	.size	_ZN7idActor9SetupBodyEv, .-_ZN7idActor9SetupBodyEv
	.align 2
	.globl _ZN7idActor11FinishSetupEv
	.type	_ZN7idActor11FinishSetupEv, @function
_ZN7idActor11FinishSetupEv:
.LFB2842:
	.loc 2 643 0
	.cfi_startproc
.LVL716:
	stwu 1,-16(1)
.LCFI203:
	.cfi_def_cfa_offset 16
	mflr 0
.LBB3066:
.LBB3067:
.LBB3068:
	.loc 15 221 0
	lis 4,.LC89@ha
.LBE3068:
.LBE3067:
.LBE3066:
	.loc 2 643 0
	stw 31,12(1)
.LBB3079:
.LBB3075:
.LBB3071:
	.loc 15 221 0
	la 4,.LC89@l(4)
.LBE3071:
.LBE3075:
.LBE3079:
	.loc 2 643 0
	mr 31,3
	.cfi_offset 31, -4
	.cfi_register 65, 0
.LVL717:
.LBB3080:
.LBB3076:
.LBB3072:
	.loc 15 221 0
	addi 3,3,100
.LVL718:
.LBE3072:
.LBE3076:
.LBE3080:
	.loc 2 643 0
	stw 0,20(1)
	stw 30,8(1)
.LBB3081:
.LBB3077:
.LBB3073:
	.loc 15 221 0
	.cfi_offset 30, -8
	.cfi_offset 65, 4
	bl _ZNK6idDict7FindKeyEPKc
.LVL719:
	.loc 15 222 0
	cmpwi 0,3,0
	beq- 0,.L417
.LVL720:
.LBB3069:
	.loc 2 3283 0
	lwz 9,4(3)
.LBE3069:
.LBE3073:
.LBE3077:
	.loc 2 648 0
	addi 3,31,144
.LVL721:
.LBB3078:
.LBB3074:
.LBB3070:
	.loc 2 3283 0
	lwz 30,4(9)
.LVL722:
.LBE3070:
.LBE3074:
.LBE3078:
	.loc 2 648 0
	mr 4,30
	bl _ZN14idScriptObject7SetTypeEPKc
.LVL723:
	cmpwi 7,3,0
	beq- 7,.L419
.L418:
	.loc 2 652 0
	lwz 9,0(31)
	mr 3,31
	lwz 0,188(9)
	mtctr 0
	bctrl
.LVL724:
.L417:
.LBE3081:
	.loc 2 656 0
	lwz 0,20(1)
.LBB3082:
	.loc 2 655 0
	mr 3,31
.LBE3082:
	.loc 2 656 0
	lwz 30,8(1)
	lwz 31,12(1)
.LVL725:
	mtlr 0
	addi 1,1,16
	.cfi_remember_state
.LCFI204:
	.cfi_def_cfa_offset 0
	.cfi_restore 31
	.cfi_restore 30
.LBB3083:
	.loc 2 655 0
	b _ZN7idActor9SetupBodyEv
.LVL726:
.L419:
.LCFI205:
	.cfi_restore_state
	.loc 2 649 0
	lwz 6,72(31)
	lis 3,gameLocal@ha
	lis 4,.LC90@ha
	la 3,gameLocal@l(3)
	la 4,.LC90@l(4)
	mr 5,30
	crxor 6,6,6
	bl _ZNK11idGameLocal5ErrorEPKcz
	b .L418
.LBE3083:
	.cfi_endproc
.LFE2842:
	.size	_ZN7idActor11FinishSetupEv, .-_ZN7idActor11FinishSetupEv
	.align 2
	.globl _ZN7idActor10CheckBlinkEv
	.type	_ZN7idActor10CheckBlinkEv, @function
_ZN7idActor10CheckBlinkEv:
.LFB2854:
	.loc 2 1159 0
	.cfi_startproc
.LVL727:
	mflr 0
	stwu 1,-48(1)
.LCFI206:
	.cfi_def_cfa_offset 48
	.cfi_register 65, 0
	stw 31,44(1)
	mr 31,3
	.cfi_offset 31, -4
	stw 0,52(1)
	stw 29,36(1)
	stw 30,40(1)
.LBB3084:
	.loc 2 1161 0
	lwz 5,3676(3)
	cmpwi 7,5,0
	beq- 7,.L420
	.cfi_offset 30, -8
	.cfi_offset 29, -12
	.cfi_offset 65, 4
	.loc 2 1161 0 is_stmt 0 discriminator 1
	lwz 0,188(3)
	cmpwi 7,0,0
	ble- 7,.L420
	.loc 2 1161 0 discriminator 2
	lbz 0,3921(3)
	cmpwi 7,0,0
	beq- 7,.L420
	.loc 2 1161 0 discriminator 3
	lis 30,gameLocal@ha
	lwz 0,3680(3)
	la 30,gameLocal@l(30)
	addis 29,30,0x25
	lwz 6,2004(29)
	cmpw 7,0,6
	bgt- 7,.L420
.LVL728:
.LBB3085:
.LBB3086:
	.loc 5 634 0 is_stmt 1
	lwz 0,2424(3)
	rlwinm 9,0,0,20,31
.LVL729:
	.loc 5 635 0
	srawi 0,0,12
	addi 11,9,4228
	slwi 11,11,2
	add 11,30,11
	lwz 11,4(11)
	cmpw 7,11,0
	beq- 7,.L424
.LVL730:
.L422:
.LBE3086:
.LBE3085:
	.loc 2 1169 0
	addi 3,31,636
	li 4,4
	li 7,1
	bl _ZN10idAnimator8PlayAnimEiiii
.L423:
.LBB3088:
.LBB3089:
.LBB3090:
.LBB3091:
	.loc 3 71 0
	addis 30,30,0x1
	lis 9,0x1
	lwz 0,-32064(30)
	ori 9,9,3533
.LBE3091:
.LBE3090:
.LBE3089:
.LBE3088:
	.loc 2 1173 0
	lwz 11,3684(31)
.LBB3105:
.LBB3096:
.LBB3094:
.LBB3092:
	.loc 3 71 0
	mullw 9,9,0
.LBE3092:
.LBE3094:
.LBE3096:
.LBE3105:
	.loc 2 1173 0
	lwz 7,2004(29)
	lis 0,0x4330
	add 11,7,11
	xoris 11,11,0x8000
.LBB3106:
.LBB3097:
.LBB3095:
.LBB3093:
	.loc 3 71 0
	addi 9,9,1
	stw 9,-32064(30)
	.loc 3 72 0
	rlwinm 9,9,0,17,31
.LBE3093:
.LBE3095:
	.loc 3 83 0
	xoris 9,9,0x8000
.LBE3097:
.LBE3106:
	.loc 2 1173 0
	lwz 10,3684(31)
	lwz 8,3688(31)
	addi 31,31,3680
.LVL731:
.LBB3107:
.LBB3098:
	.loc 3 83 0
	stw 9,28(1)
	stw 0,24(1)
.LBE3098:
.LBE3107:
	.loc 2 1173 0
	subf 9,10,8
	lis 10,.LC1@ha
	xoris 9,9,0x8000
	lfs 0,.LC1@l(10)
.LBB3108:
.LBB3099:
	.loc 3 83 0
	lfd 12,24(1)
.LBE3099:
.LBE3108:
	.loc 2 1173 0
	stw 9,20(1)
.LBB3109:
.LBB3100:
	.loc 3 83 0
	lis 9,.LC2@ha
.LBE3100:
.LBE3109:
	.loc 2 1173 0
	stw 11,12(1)
.LBB3110:
.LBB3101:
	.loc 3 83 0
	fsub 12,12,0
.LBE3101:
.LBE3110:
	.loc 2 1173 0
	stw 0,8(1)
	stw 0,16(1)
	lfd 13,8(1)
.LBB3111:
.LBB3102:
	.loc 3 83 0
	frsp 12,12
.LBE3102:
.LBE3111:
	.loc 2 1173 0
	lfd 11,16(1)
	fsub 13,13,0
	fsub 0,11,0
.LBB3112:
.LBB3103:
	.loc 3 83 0
	lfs 11,.LC2@l(9)
.LBE3103:
.LBE3112:
	.loc 2 1173 0
	frsp 13,13
.LVL732:
	frsp 0,0
.LBB3113:
.LBB3104:
	.loc 3 83 0
	fmuls 12,12,11
.LBE3104:
.LBE3113:
	.loc 2 1173 0
	fmadds 0,0,12,13
	fctiwz 0,0
	stfiwx 0,0,31
.LVL733:
.L420:
.LBE3084:
	.loc 2 1174 0
	lwz 0,52(1)
	lwz 29,36(1)
	mtlr 0
	lwz 30,40(1)
	lwz 31,44(1)
	addi 1,1,48
	.cfi_remember_state
.LCFI207:
	.cfi_def_cfa_offset 0
	.cfi_restore 31
	.cfi_restore 30
	.cfi_restore 29
	blr
.LVL734:
.L424:
.LCFI208:
	.cfi_restore_state
.LBB3115:
.LBB3114:
.LBB3087:
	.loc 5 636 0
	addi 9,9,132
.LVL735:
	slwi 9,9,2
.LVL736:
	add 9,30,9
	lwz 3,4(9)
.LVL737:
.LBE3087:
.LBE3114:
	.loc 2 1166 0
	cmpwi 7,3,0
	beq- 7,.L422
	.loc 2 1167 0
	lwz 9,0(3)
	lwz 0,92(9)
	mtctr 0
	bctrl
	lwz 5,3676(31)
	lwz 6,2004(29)
	li 4,4
	li 7,1
	bl _ZN10idAnimator8PlayAnimEiiii
	b .L423
.LBE3115:
	.cfi_endproc
.LFE2854:
	.size	_ZN7idActor10CheckBlinkEv, .-_ZN7idActor10CheckBlinkEv
	.align 2
	.globl _ZN7idActor15ShutdownThreadsEv
	.type	_ZN7idActor15ShutdownThreadsEv, @function
_ZN7idActor15ShutdownThreadsEv:
.LFB2857:
	.loc 2 1219 0
	.cfi_startproc
.LVL738:
	mflr 0
	stwu 1,-16(1)
.LCFI209:
	.cfi_def_cfa_offset 16
	.cfi_register 65, 0
	stw 31,12(1)
	mr 31,3
	.cfi_offset 31, -4
.LVL739:
	stw 0,20(1)
.LBB3116:
.LBB3117:
	.loc 2 144 0
	lwz 3,3780(3)
.LVL740:
	cmpwi 7,3,0
	beq- 7,.L426
	.cfi_offset 65, 4
	lwz 9,0(3)
	lwz 0,8(9)
	mtctr 0
	bctrl
.LVL741:
.L426:
.LBE3117:
.LBE3116:
.LBB3119:
.LBB3120:
	lwz 3,3844(31)
.LBE3120:
.LBE3119:
.LBB3123:
.LBB3118:
	.loc 2 145 0
	li 0,0
	stw 0,3780(31)
.LVL742:
.LBE3118:
.LBE3123:
.LBB3124:
.LBB3121:
	.loc 2 144 0
	cmpwi 7,3,0
	beq- 7,.L427
	lwz 9,0(3)
	lwz 0,8(9)
	mtctr 0
	bctrl
.L427:
.LBE3121:
.LBE3124:
.LBB3125:
.LBB3126:
	lwz 3,3908(31)
.LBE3126:
.LBE3125:
.LBB3129:
.LBB3122:
	.loc 2 145 0
	li 0,0
	stw 0,3844(31)
.LVL743:
.LBE3122:
.LBE3129:
.LBB3130:
.LBB3127:
	.loc 2 144 0
	cmpwi 7,3,0
	beq- 7,.L428
	lwz 9,0(3)
	lwz 0,8(9)
	mtctr 0
	bctrl
.L428:
.LBE3127:
.LBE3130:
	.loc 2 1224 0
	lwz 9,3692(31)
.LBB3131:
.LBB3128:
	.loc 2 145 0
	li 0,0
	stw 0,3908(31)
.LBE3128:
.LBE3131:
	.loc 2 1224 0
	cmpwi 7,9,0
	beq- 7,.L425
.LBB3132:
.LBB3133:
	.loc 13 237 0
	li 0,1
.LBE3133:
.LBE3132:
	.loc 2 1226 0
	lis 4,EV_Remove@ha
.LBB3135:
.LBB3134:
	.loc 13 237 0
	stb 0,6973(9)
.LBE3134:
.LBE3135:
	.loc 2 1226 0
	la 4,EV_Remove@l(4)
	li 5,0
	lwz 3,3692(31)
	bl _ZN7idClass11PostEventMSEPK10idEventDefi
	.loc 2 1227 0
	lwz 3,3692(31)
	cmpwi 7,3,0
	beq- 7,.L430
	.loc 2 1227 0 is_stmt 0 discriminator 1
	lwz 9,0(3)
	lwz 0,8(9)
	mtctr 0
	bctrl
.L430:
	.loc 2 1228 0 is_stmt 1
	li 0,0
	stw 0,3692(31)
.L425:
	.loc 2 1230 0
	lwz 0,20(1)
	lwz 31,12(1)
.LVL744:
	mtlr 0
	addi 1,1,16
.LCFI210:
	.cfi_def_cfa_offset 0
	.cfi_restore 31
	blr
	.cfi_endproc
.LFE2857:
	.size	_ZN7idActor15ShutdownThreadsEv, .-_ZN7idActor15ShutdownThreadsEv
	.align 2
	.globl _ZN7idActor17GetScriptFunctionEPKc
	.type	_ZN7idActor17GetScriptFunctionEPKc, @function
_ZN7idActor17GetScriptFunctionEPKc:
.LFB2860:
	.loc 2 1290 0
	.cfi_startproc
.LVL745:
	stwu 1,-24(1)
.LCFI211:
	.cfi_def_cfa_offset 24
	mflr 0
	stw 30,16(1)
.LBB3140:
	.loc 2 1293 0
	addi 30,3,144
	.cfi_offset 30, -8
	.cfi_register 65, 0
.LBE3140:
	.loc 2 1290 0
	stw 29,12(1)
	mr 29,3
	.cfi_offset 29, -12
.LBB3141:
	.loc 2 1293 0
	mr 3,30
.LVL746:
.LBE3141:
	.loc 2 1290 0
	stw 28,8(1)
	stw 31,20(1)
	mr 28,4
	.cfi_offset 31, -4
	.cfi_offset 28, -16
	stw 0,28(1)
.LBB3142:
	.loc 2 1293 0
	.cfi_offset 65, 4
	bl _ZNK14idScriptObject11GetFunctionEPKc
.LVL747:
	.loc 2 1294 0
	mr. 31,3
	beq- 0,.L433
.LBE3142:
	.loc 2 1299 0
	lwz 0,28(1)
	mr 3,31
	lwz 28,8(1)
.LVL748:
	mtlr 0
	lwz 29,12(1)
.LVL749:
	lwz 30,16(1)
.LVL750:
	lwz 31,20(1)
	addi 1,1,24
	.cfi_remember_state
.LCFI212:
	.cfi_def_cfa_offset 0
	.cfi_restore 31
	.cfi_restore 30
	.cfi_restore 29
	.cfi_restore 28
	blr
.LVL751:
.L433:
.LCFI213:
	.cfi_restore_state
.LBB3143:
.LBB3144:
	.loc 2 1295 0
	lwz 29,3692(29)
.LVL752:
	mr 3,30
.LVL753:
	bl _ZNK14idScriptObject11GetTypeNameEv
	lis 4,.LC91@ha
	mr 6,3
	mr 5,28
	mr 3,29
	la 4,.LC91@l(4)
	crxor 6,6,6
	bl _ZNK8idThread5ErrorEPKcz
.LBE3144:
.LBE3143:
	.loc 2 1299 0
	lwz 0,28(1)
	mr 3,31
	lwz 28,8(1)
.LVL754:
	mtlr 0
	lwz 29,12(1)
	lwz 30,16(1)
.LVL755:
	lwz 31,20(1)
.LVL756:
	addi 1,1,24
	.cfi_restore 28
	.cfi_restore 29
	.cfi_restore 30
	.cfi_restore 31
.LCFI214:
	.cfi_def_cfa_offset 0
	blr
	.cfi_endproc
.LFE2860:
	.size	_ZN7idActor17GetScriptFunctionEPKc, .-_ZN7idActor17GetScriptFunctionEPKc
	.align 2
	.globl _ZN7idActor14Event_SetStateEPKc
	.type	_ZN7idActor14Event_SetStateEPKc, @function
_ZN7idActor14Event_SetStateEPKc:
.LFB2951:
	.loc 2 3255 0
	.cfi_startproc
.LVL757:
	stwu 1,-16(1)
.LCFI215:
	.cfi_def_cfa_offset 16
	mflr 0
	stw 31,12(1)
	mr 31,3
	.cfi_offset 31, -4
	.cfi_register 65, 0
	stw 0,20(1)
	.loc 2 3256 0
	.cfi_offset 65, 4
	bl _ZN7idActor17GetScriptFunctionEPKc
.LVL758:
	.loc 2 3257 0
	lwz 0,2444(31)
	.loc 2 3256 0
	stw 3,2448(31)
	.loc 2 3257 0
	cmpw 7,3,0
	beq- 7,.L436
	.loc 2 3260 0
	lwz 9,3692(31)
.LBB3145:
.LBB3146:
	.loc 13 234 0
	li 0,1
	stb 0,6972(9)
.LBE3146:
.LBE3145:
	.loc 2 3261 0
	lwz 0,20(1)
	lwz 31,12(1)
.LVL759:
	mtlr 0
	addi 1,1,16
	.cfi_remember_state
.LCFI216:
	.cfi_def_cfa_offset 0
	.cfi_restore 31
	blr
.LVL760:
.L436:
.LCFI217:
	.cfi_restore_state
	.loc 2 3260 0
	lwz 9,3692(31)
	.loc 2 3258 0
	li 0,0
	stw 0,2444(31)
.LBB3148:
.LBB3147:
	.loc 13 234 0
	li 0,1
	stb 0,6972(9)
.LBE3147:
.LBE3148:
	.loc 2 3261 0
	lwz 0,20(1)
	lwz 31,12(1)
.LVL761:
	mtlr 0
	addi 1,1,16
	.cfi_restore 31
.LCFI218:
	.cfi_def_cfa_offset 0
	blr
	.cfi_endproc
.LFE2951:
	.size	_ZN7idActor14Event_SetStateEPKc, .-_ZN7idActor14Event_SetStateEPKc
	.align 2
	.globl _ZN7idActor18Event_SetNextStateEPKc
	.type	_ZN7idActor18Event_SetNextStateEPKc, @function
_ZN7idActor18Event_SetNextStateEPKc:
.LFB2950:
	.loc 2 3243 0
	.cfi_startproc
.LVL762:
	stwu 1,-16(1)
.LCFI219:
	.cfi_def_cfa_offset 16
	mflr 0
	stw 31,12(1)
	mr 31,3
	.cfi_offset 31, -4
	.cfi_register 65, 0
	stw 0,20(1)
	.loc 2 3244 0
	.cfi_offset 65, 4
	bl _ZN7idActor17GetScriptFunctionEPKc
.LVL763:
	.loc 2 3245 0
	lwz 0,2444(31)
	.loc 2 3244 0
	stw 3,2448(31)
	.loc 2 3245 0
	cmpw 7,3,0
	beq- 7,.L439
	.loc 2 3248 0
	lwz 0,20(1)
	lwz 31,12(1)
.LVL764:
	mtlr 0
	addi 1,1,16
	.cfi_remember_state
.LCFI220:
	.cfi_def_cfa_offset 0
	.cfi_restore 31
	blr
.LVL765:
.L439:
.LCFI221:
	.cfi_restore_state
	.loc 2 3246 0
	li 0,0
	stw 0,2444(31)
	.loc 2 3248 0
	lwz 0,20(1)
	lwz 31,12(1)
.LVL766:
	mtlr 0
	addi 1,1,16
	.cfi_restore 31
.LCFI222:
	.cfi_def_cfa_offset 0
	blr
	.cfi_endproc
.LFE2950:
	.size	_ZN7idActor18Event_SetNextStateEPKc, .-_ZN7idActor18Event_SetNextStateEPKc
	.align 2
	.globl _ZN7idActor7RestoreEP13idRestoreGame
	.type	_ZN7idActor7RestoreEP13idRestoreGame, @function
_ZN7idActor7RestoreEP13idRestoreGame:
.LFB2847:
	.loc 2 886 0
	.cfi_startproc
	.cfi_personality 0,__gxx_personality_v0
	.cfi_lsda 0,.LLSDA2847
.LVL767:
	stwu 1,-104(1)
.LCFI223:
	.cfi_def_cfa_offset 104
	mflr 0
	mfcr 12
	stw 31,100(1)
	mr 31,3
	.cfi_offset 31, -4
	.cfi_register 70, 12
	.cfi_register 65, 0
	stw 30,96(1)
.LBB3263:
	.loc 2 890 0
	mr 3,4
.LVL768:
.LBE3263:
	.loc 2 886 0
	mr 30,4
	.cfi_offset 30, -8
.LBB3498:
	.loc 2 890 0
	addi 4,31,2260
.LVL769:
.LBE3498:
	.loc 2 886 0
	stw 0,108(1)
	stw 12,60(1)
	stw 22,64(1)
	stw 23,68(1)
	stw 24,72(1)
	stw 25,76(1)
	stw 26,80(1)
	stw 27,84(1)
	stw 28,88(1)
	stw 29,92(1)
.LEHB34:
.LBB3499:
	.loc 2 890 0
	.cfi_offset 29, -12
	.cfi_offset 28, -16
	.cfi_offset 27, -20
	.cfi_offset 26, -24
	.cfi_offset 25, -28
	.cfi_offset 24, -32
	.cfi_offset 23, -36
	.cfi_offset 22, -40
	.cfi_offset 70, -44
	.cfi_offset 65, 4
	bl _ZN13idRestoreGame7ReadIntERi
.LVL770:
	.loc 2 891 0
	mr 3,30
	addi 4,31,2264
	bl _ZN13idRestoreGame7ReadIntERi
	.loc 2 892 0
	mr 3,30
	addi 4,31,2268
	bl _ZN13idRestoreGame8ReadMat3ER6idMat3
	.loc 2 894 0
	mr 3,30
	addi 4,1,16
	bl _ZN13idRestoreGame7ReadIntERi
.LVL771:
	.loc 2 895 0
	lwz 0,16(1)
	cmpwi 7,0,0
	ble- 7,.L441
	li 29,0
.LVL772:
.L443:
	.loc 2 896 0
	mr 3,30
	addi 4,1,12
	bl _ZN13idRestoreGame10ReadObjectERP7idClass
	.loc 2 898 0
	lwz 9,12(1)
	cmpwi 7,9,0
	beq- 7,.L442
.LBB3264:
.LBB3265:
.LBB3266:
.LBB3267:
.LBB3268:
	.loc 7 176 0
	lwz 10,2312(9)
	lwz 0,2308(9)
.LBE3268:
.LBE3267:
.LBE3266:
.LBE3265:
.LBE3264:
	.loc 2 3283 0
	lwz 11,2320(31)
.LBB3277:
.LBB3275:
.LBB3273:
.LBB3271:
.LBB3269:
	.loc 7 176 0
	stw 0,4(10)
.LBE3269:
.LBE3271:
.LBE3273:
.LBE3275:
.LBE3277:
	.loc 2 899 0
	addi 0,9,2304
.LVL773:
.LBB3278:
.LBB3276:
.LBB3274:
.LBB3272:
.LBB3270:
	.loc 7 177 0
	lwz 8,2312(9)
	lwz 10,2308(9)
	stw 8,8(10)
	.loc 7 180 0
	stw 0,2312(9)
	.loc 7 181 0
	stw 0,2304(9)
.LBE3270:
.LBE3272:
	.loc 7 196 0
	stw 11,2308(9)
	.loc 7 197 0
	lwz 10,8(11)
	stw 10,2312(9)
	.loc 7 198 0
	stw 0,8(11)
	.loc 7 199 0
	lwz 10,2312(9)
	stw 0,4(10)
	.loc 7 200 0
	lwz 0,0(11)
.LVL774:
	stw 0,2304(9)
.LVL775:
.L442:
.LBE3274:
.LBE3276:
.LBE3278:
	.loc 2 895 0
	lwz 0,16(1)
	addi 29,29,1
.LVL776:
	cmpw 7,0,29
	bgt+ 7,.L443
.LVL777:
.L441:
	.loc 2 903 0
	addi 4,31,2336
	mr 3,30
	bl _ZN13idRestoreGame9ReadFloatERf
	.loc 2 904 0
	mr 3,30
	addi 4,31,2340
	.loc 2 913 0
	addi 24,31,2388
	.loc 2 904 0
	bl _ZN13idRestoreGame8ReadVec3ER6idVec3
	.loc 2 905 0
	mr 3,30
	addi 4,31,2352
	bl _ZN13idRestoreGame8ReadVec3ER6idVec3
	.loc 2 906 0
	mr 3,30
	addi 4,31,2364
	bl _ZN13idRestoreGame10ReadAnglesER8idAngles
	.loc 2 908 0
	mr 3,30
	addi 4,31,2376
	bl _ZN13idRestoreGame7ReadIntERi
	.loc 2 909 0
	mr 3,30
	addi 4,31,2380
	bl _ZN13idRestoreGame7ReadIntERi
	.loc 2 910 0
	mr 3,30
	addi 4,31,2384
	bl _ZN13idRestoreGame7ReadIntERi
	.loc 2 912 0
	mr 3,30
	addi 4,1,16
	bl _ZN13idRestoreGame7ReadIntERi
.LVL778:
.LBB3279:
.LBB3280:
	.loc 17 319 0
	lwz 26,2400(31)
	.loc 17 317 0
	li 0,1
	.loc 17 319 0
	cmpwi 7,26,0
	.loc 17 317 0
	stw 0,2396(31)
	.loc 17 319 0
	beq- 7,.L444
	.loc 17 321 0
	lwz 28,2388(31)
.LVL779:
	.loc 17 323 0
	lwz 0,2392(31)
	cmpw 7,28,0
	beq- 7,.L444
.LVL780:
.LBB3281:
.LBB3282:
	.loc 17 375 0
	cmpwi 7,28,0
	ble- 7,.L555
.LVL781:
	.loc 17 386 0
	stw 28,2392(31)
	.loc 17 392 0
	slwi 3,28,5
	addi 3,3,4
	bl _Znaj
.LVL782:
.LBB3283:
.LBB3284:
.LBB3285:
	.loc 9 357 0
	mtctr 28
.LBE3285:
.LBE3284:
.LBE3283:
	.loc 17 392 0
	addi 29,3,4
	stw 28,0(3)
	mr 9,29
.LBB3288:
.LBB3287:
.LBB3286:
	.loc 9 356 0
	li 0,0
	.loc 9 357 0
	li 10,20
.L450:
.LVL783:
	.loc 9 358 0
	addi 11,9,12
	.loc 9 356 0
	stw 0,0(9)
	.loc 9 357 0
	stw 10,8(9)
	.loc 9 358 0
	stw 11,4(9)
	.loc 9 359 0
	stb 0,12(9)
	addi 9,9,32
.LVL784:
.LBE3286:
.LBE3287:
.LBE3288:
	.loc 17 392 0
	bdnz .L450
	.loc 17 393 0
	lwz 0,2388(31)
	.loc 17 392 0
	stw 29,2400(31)
.LVL785:
	.loc 17 393 0
	cmpwi 7,0,0
	ble- 7,.L451
	li 28,0
.LVL786:
	li 25,0
.LBB3289:
.LBB3290:
	.loc 9 536 0
	li 23,0
	b .L453
.LVL787:
.L556:
.LBE3290:
.LBE3289:
	.loc 17 393 0
	lwz 29,2400(31)
.LVL788:
.L453:
	.loc 17 394 0
	add 29,29,28
.LVL789:
.LBB3297:
	.loc 2 3283 0
	lwzx 27,26,28
.LBB3295:
.LBB3291:
.LBB3292:
	.loc 9 350 0
	lwz 0,8(29)
.LBE3292:
.LBE3291:
	.loc 9 534 0
	addi 4,27,1
.LVL790:
.LBB3294:
.LBB3293:
	.loc 9 350 0
	cmpw 7,4,0
	ble+ 7,.L452
	.loc 9 351 0
	mr 3,29
	li 5,0
	bl _ZN5idStr10ReAllocateEib
.LVL791:
.L452:
.LBE3293:
.LBE3294:
	.loc 2 886 0
	add 9,26,28
	.loc 9 535 0
	lwz 3,4(29)
	lwz 4,4(9)
	mr 5,27
.LBE3295:
.LBE3297:
	.loc 17 393 0
	addi 25,25,1
	addi 28,28,32
.LVL792:
.LBB3298:
.LBB3296:
	.loc 9 535 0
	bl memcpy
.LVL793:
	.loc 9 536 0
	lwz 9,4(29)
	stbx 23,9,27
	.loc 9 537 0
	stw 27,0(29)
.LBE3296:
.LBE3298:
	.loc 17 393 0
	lwz 0,0(24)
	cmpw 7,25,0
	blt+ 7,.L556
.LVL794:
.L451:
	.loc 17 399 0
	lwz 29,-4(26)
	slwi 29,29,5
	add 29,26,29
	cmpw 7,26,29
	beq- 7,.L454
.L547:
	addi 29,29,-32
.LVL795:
.LBB3299:
.LBB3300:
.LBB3301:
	.loc 9 501 0
	mr 3,29
	bl _ZN5idStr8FreeDataEv
.LBE3301:
.LBE3300:
.LBE3299:
	.loc 17 399 0
	cmpw 7,26,29
	bne+ 7,.L547
.LVL796:
.L454:
	addi 3,26,-4
	bl _ZdaPv
.LVL797:
.L444:
.LBE3282:
.LBE3281:
.LBE3280:
.LBE3279:
	.loc 2 914 0
	lwz 22,16(1)
.LVL798:
.LBB3310:
.LBB3311:
.LBB3312:
.LBB3313:
	.loc 17 375 0
	cmpwi 4,22,0
	ble- 4,.L557
	.loc 17 380 0
	lwz 0,2392(31)
	cmpw 7,22,0
	beq- 7,.L465
	.loc 17 387 0
	lwz 0,2388(31)
	.loc 17 385 0
	lwz 26,2400(31)
.LVL799:
	.loc 17 387 0
	cmpw 7,22,0
	.loc 17 386 0
	stw 22,2392(31)
	.loc 17 387 0
	blt- 7,.L558
.L466:
	.loc 17 392 0
	slwi 3,22,5
	addi 3,3,4
	bl _Znaj
.LVL800:
	stw 22,0(3)
	addi 29,3,4
	beq- 4,.L467
.LBB3314:
.LBB3315:
.LBB3316:
	.loc 9 357 0
	mtctr 22
.LBE3316:
.LBE3315:
.LBE3314:
	.loc 17 392 0
	mr 9,29
.LBB3319:
.LBB3318:
.LBB3317:
	.loc 9 356 0
	li 0,0
	.loc 9 357 0
	li 10,20
.L468:
.LVL801:
	.loc 9 358 0
	addi 11,9,12
	.loc 9 356 0
	stw 0,0(9)
	.loc 9 357 0
	stw 10,8(9)
	.loc 9 358 0
	stw 11,4(9)
	.loc 9 359 0
	stb 0,12(9)
	addi 9,9,32
.LVL802:
.LBE3317:
.LBE3318:
.LBE3319:
	.loc 17 392 0
	bdnz .L468
.LVL803:
.L467:
	.loc 17 393 0
	lwz 0,2388(31)
	.loc 17 392 0
	stw 29,2400(31)
.LVL804:
	.loc 17 393 0
	cmpwi 7,0,0
	ble- 7,.L469
	li 28,0
	li 25,0
.LBB3320:
.LBB3321:
	.loc 9 536 0
	li 23,0
	b .L471
.LVL805:
.L559:
.LBE3321:
.LBE3320:
	.loc 17 393 0
	lwz 29,2400(31)
.LVL806:
.L471:
	.loc 17 394 0
	add 29,29,28
.LVL807:
.LBB3328:
	.loc 2 3283 0
	lwzx 27,26,28
.LBB3326:
.LBB3322:
.LBB3323:
	.loc 9 350 0
	lwz 0,8(29)
.LBE3323:
.LBE3322:
	.loc 9 534 0
	addi 4,27,1
.LVL808:
.LBB3325:
.LBB3324:
	.loc 9 350 0
	cmpw 7,4,0
	ble+ 7,.L470
	.loc 9 351 0
	mr 3,29
	li 5,0
	bl _ZN5idStr10ReAllocateEib
.LVL809:
.L470:
.LBE3324:
.LBE3325:
	.loc 2 886 0
	add 9,26,28
	.loc 9 535 0
	lwz 3,4(29)
	lwz 4,4(9)
	mr 5,27
.LBE3326:
.LBE3328:
	.loc 17 393 0
	addi 25,25,1
	addi 28,28,32
.LVL810:
.LBB3329:
.LBB3327:
	.loc 9 535 0
	bl memcpy
.LVL811:
	.loc 9 536 0
	lwz 9,4(29)
	stbx 23,9,27
	.loc 9 537 0
	stw 27,0(29)
.LBE3327:
.LBE3329:
	.loc 17 393 0
	lwz 0,0(24)
	cmpw 7,25,0
	blt+ 7,.L559
.LVL812:
.L469:
	.loc 17 398 0
	cmpwi 7,26,0
	beq- 7,.L551
	.loc 17 399 0
	lwz 29,-4(26)
	slwi 29,29,5
	add 29,26,29
	cmpw 7,26,29
	beq- 7,.L473
.L550:
	addi 29,29,-32
.LVL813:
.LBB3330:
.LBB3331:
.LBB3332:
	.loc 9 501 0
	mr 3,29
	bl _ZN5idStr8FreeDataEv
.LBE3332:
.LBE3331:
.LBE3330:
	.loc 17 399 0
	cmpw 7,26,29
	bne+ 7,.L550
.LVL814:
.L473:
	addi 3,26,-4
	bl _ZdaPv
.L551:
	lwz 0,16(1)
.LVL815:
.L464:
.LBE3313:
.LBE3312:
.LBE3311:
.LBE3310:
	.loc 2 915 0
	cmpwi 7,0,0
.LBB3349:
.LBB3344:
	.loc 17 302 0
	stw 22,2388(31)
.LVL816:
.LBE3344:
.LBE3349:
	.loc 2 915 0
	ble- 7,.L477
.L526:
.LBB3350:
.LBB3345:
.LBB3341:
.LBB3338:
	.loc 17 393 0 discriminator 2
	li 29,0
.LVL817:
.L478:
.LBE3338:
.LBE3341:
.LBE3345:
.LBE3350:
.LBB3351:
.LBB3352:
	.loc 17 589 0 discriminator 2
	lwz 4,2400(31)
	.loc 2 886 0 discriminator 2
	slwi 0,29,5
.LBE3352:
.LBE3351:
	.loc 2 916 0 discriminator 2
	mr 3,30
	.loc 2 915 0 discriminator 2
	addi 29,29,1
.LVL818:
	.loc 2 916 0 discriminator 2
	add 4,4,0
	bl _ZN13idRestoreGame10ReadStringER5idStr
.LVL819:
	.loc 2 915 0 discriminator 2
	lwz 0,16(1)
	cmpw 7,0,29
	bgt+ 7,.L478
.LVL820:
.L477:
	.loc 2 919 0
	mr 3,30
	addi 4,1,16
	bl _ZN13idRestoreGame7ReadIntERi
	.loc 2 920 0
	lwz 28,16(1)
	addi 29,31,2404
.LVL821:
.LBB3353:
.LBB3354:
.LBB3355:
.LBB3356:
	.loc 17 375 0
	cmpwi 7,28,0
	ble- 7,.L560
	.loc 17 380 0
	lwz 0,2408(31)
	cmpw 7,28,0
	beq- 7,.L482
	.loc 17 387 0
	lwz 0,2404(31)
	.loc 17 385 0
	lwz 27,2416(31)
.LVL822:
	.loc 17 387 0
	cmpw 7,28,0
	.loc 17 386 0
	stw 28,2408(31)
	.loc 17 387 0
	blt- 7,.L561
.L483:
	.loc 17 392 0
	slwi 3,28,2
	bl _Znaj
.LVL823:
	.loc 17 393 0
	lwz 0,2404(31)
	.loc 17 392 0
	stw 3,2416(31)
.LVL824:
	.loc 17 393 0
	cmpwi 7,0,0
	ble- 7,.L484
	.loc 2 886 0
	addi 11,27,-4
.LBB3357:
.LBB3358:
	.loc 17 393 0
	li 9,0
	b .L485
.LVL825:
.L562:
.LBE3358:
.LBE3357:
	lwz 3,2416(31)
.LVL826:
.L485:
	.loc 17 394 0
	lwzu 10,4(11)
	slwi 0,9,2
	.loc 17 393 0
	addi 9,9,1
.LVL827:
	.loc 17 394 0
	stwx 10,3,0
	.loc 17 393 0
	lwz 0,0(29)
	cmpw 7,9,0
	blt+ 7,.L562
.LVL828:
.L484:
	.loc 17 398 0
	cmpwi 7,27,0
	beq- 7,.L552
	.loc 17 399 0
	mr 3,27
	bl _ZdaPv
.L552:
	lwz 0,16(1)
.LVL829:
.L481:
.LBE3356:
.LBE3355:
.LBE3354:
.LBE3353:
	.loc 2 921 0
	cmpwi 7,0,0
.LBB3374:
.LBB3369:
	.loc 17 302 0
	stw 28,2404(31)
.LVL830:
.LBE3369:
.LBE3374:
	.loc 2 921 0
	ble- 7,.L487
.L527:
.LBB3375:
.LBB3370:
.LBB3366:
.LBB3363:
.LBB3361:
.LBB3359:
	.loc 17 393 0 discriminator 2
	li 29,0
.LVL831:
.L488:
.LBE3359:
.LBE3361:
.LBE3363:
.LBE3366:
.LBE3370:
.LBE3375:
.LBB3376:
.LBB3377:
	.loc 17 589 0 discriminator 2
	lwz 4,2416(31)
	.loc 2 886 0 discriminator 2
	slwi 0,29,2
.LBE3377:
.LBE3376:
	.loc 2 922 0 discriminator 2
	mr 3,30
	.loc 2 921 0 discriminator 2
	addi 29,29,1
.LVL832:
	.loc 2 922 0 discriminator 2
	add 4,4,0
	bl _ZN13idRestoreGame9ReadFloatERf
.LVL833:
	.loc 2 921 0 discriminator 2
	lwz 0,16(1)
	cmpw 7,0,29
	bgt+ 7,.L488
.LVL834:
.L487:
	.loc 2 925 0
	addi 4,31,2420
	mr 3,30
	bl _ZN13idRestoreGame8ReadBoolERb
.LVL835:
.LBB3378:
.LBB3379:
	.loc 5 600 0
	mr 3,30
	addi 4,31,2424
.LBE3379:
.LBE3378:
	.loc 2 929 0
	addi 28,31,2428
.LVL836:
.LBB3381:
.LBB3380:
	.loc 5 600 0
	bl _ZN13idRestoreGame7ReadIntERi
.LBE3380:
.LBE3381:
	.loc 2 928 0
	mr 3,30
	addi 4,1,16
	bl _ZN13idRestoreGame7ReadIntERi
.LVL837:
	.loc 2 929 0
	lwz 27,16(1)
.LVL838:
.LBB3382:
.LBB3383:
.LBB3384:
.LBB3385:
	.loc 17 375 0
	cmpwi 7,27,0
	ble- 7,.L563
	.loc 17 380 0
	lwz 0,2432(31)
	cmpw 7,27,0
	beq- 7,.L492
	.loc 17 387 0
	lwz 0,2428(31)
	.loc 17 385 0
	lwz 29,2440(31)
.LVL839:
	.loc 17 387 0
	cmpw 7,27,0
	.loc 17 386 0
	stw 27,2432(31)
	.loc 17 387 0
	blt- 7,.L564
.L493:
	.loc 17 392 0
	mulli 3,27,12
	bl _Znaj
.LVL840:
	.loc 17 393 0
	lwz 0,2428(31)
	.loc 17 392 0
	stw 3,2440(31)
.LVL841:
	.loc 17 393 0
	cmpwi 7,0,0
	ble- 7,.L494
	li 11,0
	li 10,0
	b .L495
.LVL842:
.L565:
	lwz 3,2440(31)
.LVL843:
.L495:
	.loc 17 394 0
	mr 9,29
	add 8,3,11
	lwzux 6,9,11
	.loc 17 393 0
	addi 10,10,1
.LVL844:
	.loc 17 394 0
	lwz 0,8(9)
	lwz 7,4(9)
	stwx 6,3,11
	.loc 17 393 0
	addi 11,11,12
	.loc 17 394 0
	stw 7,4(8)
	stw 0,8(8)
	.loc 17 393 0
	lwz 0,0(28)
	cmpw 7,10,0
	blt+ 7,.L565
.LVL845:
.L494:
	.loc 17 398 0
	cmpwi 7,29,0
	beq- 7,.L553
	.loc 17 399 0
	mr 3,29
	bl _ZdaPv
.L553:
	lwz 0,16(1)
.LVL846:
.L491:
.LBE3385:
.LBE3384:
.LBE3383:
.LBE3382:
.LBB3399:
	.loc 2 930 0
	cmpwi 7,0,0
.LBE3399:
.LBB3409:
.LBB3394:
	.loc 17 302 0
	stw 27,2428(31)
.LVL847:
.LBE3394:
.LBE3409:
.LBB3410:
	.loc 2 930 0
	ble- 7,.L497
.L528:
.LBE3410:
.LBB3411:
.LBB3395:
.LBB3391:
.LBB3388:
	.loc 17 393 0 discriminator 2
	li 29,0
	li 28,0
.LVL848:
.L498:
.LBE3388:
.LBE3391:
.LBE3395:
.LBE3411:
.LBB3412:
.LBB3400:
	.loc 2 932 0 discriminator 2
	mr 3,30
	addi 4,1,8
	bl _ZN13idRestoreGame7ReadIntERi
.LVL849:
	.loc 2 933 0 discriminator 2
	lwz 0,8(1)
	lwz 9,2440(31)
	.loc 2 934 0 discriminator 2
	mr 3,30
.LBE3400:
	.loc 2 930 0 discriminator 2
	addi 28,28,1
.LVL850:
.LBB3407:
	.loc 2 933 0 discriminator 2
	stwx 0,9,29
.LBB3401:
.LBB3402:
	.loc 17 589 0 discriminator 2
	lwz 4,2440(31)
	add 4,4,29
.LBE3402:
.LBE3401:
	.loc 2 934 0 discriminator 2
	addi 4,4,4
	bl _ZN13idRestoreGame9ReadJointER13jointHandle_t
.LBB3403:
.LBB3404:
	.loc 17 589 0 discriminator 2
	lwz 4,2440(31)
.LBE3404:
.LBE3403:
	.loc 2 935 0 discriminator 2
	mr 3,30
.LBB3406:
.LBB3405:
	.loc 17 589 0 discriminator 2
	add 4,4,29
.LBE3405:
.LBE3406:
.LBE3407:
	.loc 2 930 0 discriminator 2
	addi 29,29,12
.LBB3408:
	.loc 2 935 0 discriminator 2
	addi 4,4,8
	bl _ZN13idRestoreGame9ReadJointER13jointHandle_t
.LVL851:
.LBE3408:
	.loc 2 930 0 discriminator 2
	lwz 0,16(1)
	cmpw 7,0,28
	bgt+ 7,.L498
.LVL852:
.L497:
.LBE3412:
	.loc 2 938 0
	addi 4,31,2452
	mr 3,30
	bl _ZN13idRestoreGame9ReadJointER13jointHandle_t
	.loc 2 939 0
	mr 3,30
	addi 4,31,2456
	bl _ZN13idRestoreGame9ReadJointER13jointHandle_t
	.loc 2 940 0
	mr 3,30
	addi 4,31,2460
	bl _ZN13idRestoreGame9ReadJointER13jointHandle_t
	.loc 2 942 0
	mr 4,30
	addi 3,31,2464
	bl _ZN9idIK_Walk7RestoreEP13idRestoreGame
	.loc 2 944 0
	mr 3,30
	addi 4,31,3612
	bl _ZN13idRestoreGame10ReadStringER5idStr
	.loc 2 945 0
	mr 3,30
	addi 4,31,3644
	bl _ZN13idRestoreGame10ReadStringER5idStr
	.loc 2 947 0
	mr 3,30
	addi 4,31,3676
	bl _ZN13idRestoreGame7ReadIntERi
	.loc 2 948 0
	mr 3,30
	addi 4,31,3680
	bl _ZN13idRestoreGame7ReadIntERi
	.loc 2 949 0
	mr 3,30
	addi 4,31,3684
	bl _ZN13idRestoreGame7ReadIntERi
	.loc 2 950 0
	mr 3,30
	addi 4,31,3688
	bl _ZN13idRestoreGame7ReadIntERi
	.loc 2 952 0
	mr 3,30
	addi 4,31,3692
	bl _ZN13idRestoreGame10ReadObjectERP7idClass
	.loc 2 954 0
	mr 3,30
	addi 4,31,3696
	bl _ZN13idRestoreGame10ReadStringER5idStr
	.loc 2 956 0
	addi 3,31,3728
	mr 4,30
	bl _ZN11idAnimState7RestoreEP13idRestoreGame
	.loc 2 957 0
	addi 3,31,3792
	mr 4,30
	bl _ZN11idAnimState7RestoreEP13idRestoreGame
	.loc 2 958 0
	mr 4,30
	addi 3,31,3856
	bl _ZN11idAnimState7RestoreEP13idRestoreGame
	.loc 2 960 0
	mr 3,30
	addi 4,31,3920
	bl _ZN13idRestoreGame8ReadBoolERb
	.loc 2 961 0
	mr 3,30
	addi 4,31,3921
	bl _ZN13idRestoreGame8ReadBoolERb
	.loc 2 963 0
	mr 3,30
	addi 4,31,3924
	bl _ZN13idRestoreGame7ReadIntERi
	.loc 2 965 0
	mr 3,30
	addi 4,1,16
	bl _ZN13idRestoreGame7ReadIntERi
.LVL853:
.LBB3413:
	.loc 2 966 0
	lwz 0,16(1)
	cmpwi 7,0,0
	ble- 7,.L499
	li 29,0
	addi 26,31,3928
.LBB3414:
.LBB3415:
.LBB3416:
.LBB3417:
.LBB3418:
	.loc 17 393 0
	li 27,0
.LVL854:
	b .L520
.LVL855:
.L554:
	.loc 17 399 0
	slwi 0,9,3
	addi 9,9,1
	add 28,28,0
.L510:
.LBE3418:
.LBE3417:
	.loc 17 641 0
	stw 9,3928(31)
.LVL856:
.LBE3416:
.LBE3415:
.LBB3454:
.LBB3455:
	.loc 5 600 0
	mr 4,28
	mr 3,30
.LBE3455:
.LBE3454:
.LBE3414:
	.loc 2 966 0
	addi 29,29,1
.LBB3463:
.LBB3457:
.LBB3456:
	.loc 5 600 0
	bl _ZN13idRestoreGame7ReadIntERi
.LBE3456:
.LBE3457:
	.loc 2 969 0
	mr 3,30
	addi 4,28,4
	bl _ZN13idRestoreGame7ReadIntERi
.LVL857:
.LBE3463:
	.loc 2 966 0
	lwz 0,16(1)
	cmpw 7,0,29
	ble- 7,.L499
.LVL858:
.L520:
.LBB3464:
.LBB3458:
.LBB3449:
	.loc 17 633 0 discriminator 2
	lwz 28,3940(31)
	cmpwi 7,28,0
	beq- 7,.L500
	.loc 17 633 0 is_stmt 0
	lwz 9,3928(31)
	lwz 11,3932(31)
.L501:
	.loc 17 637 0 is_stmt 1
	cmpw 7,11,9
	bne+ 7,.L554
	lwz 25,3936(31)
	mr 0,11
.L503:
.LVL859:
.LBB3430:
.LBB3427:
	.loc 17 375 0
	add 25,11,25
.LVL860:
	cmpwi 4,25,0
	ble- 4,.L566
	.loc 17 380 0
	cmpw 7,25,0
	beq- 7,.L567
.LVL861:
	.loc 17 387 0
	cmpw 7,25,11
	.loc 17 386 0
	stw 25,3932(31)
	.loc 17 387 0
	bge- 7,.L514
	.loc 17 388 0
	stw 25,3928(31)
.L514:
	.loc 17 392 0
	slwi 3,25,3
	bl _Znaj
	beq- 4,.L515
.LBB3419:
.LBB3420:
.LBB3421:
	.loc 5 590 0
	mtctr 25
.LBE3421:
.LBE3420:
.LBE3419:
	.loc 17 392 0
	li 9,0
.L516:
.LBB3424:
.LBB3423:
.LBB3422:
	.loc 2 886 0
	slwi 0,9,3
	.loc 5 590 0
	addi 9,9,1
	stwx 27,3,0
.LBE3422:
.LBE3423:
.LBE3424:
	.loc 17 392 0
	bdnz .L516
.LVL862:
.L515:
	.loc 17 393 0
	lwz 0,3928(31)
	.loc 17 392 0
	stw 3,3940(31)
.LVL863:
	.loc 17 393 0
	cmpwi 7,0,0
	ble- 7,.L517
	.loc 2 886 0
	addi 8,28,-8
	.loc 17 393 0
	li 9,0
	b .L518
.LVL864:
.L568:
	lwz 3,3940(31)
.LVL865:
.L518:
	.loc 17 394 0
	addi 8,8,8
	slwi 0,9,3
	lwz 10,0(8)
	add 3,3,0
	lwz 11,4(8)
	.loc 17 393 0
	addi 9,9,1
.LVL866:
	.loc 17 394 0
	stw 10,0(3)
	stw 11,4(3)
	.loc 17 393 0
	lwz 0,0(26)
	cmpw 7,9,0
	blt+ 7,.L568
.LVL867:
.L517:
	.loc 17 398 0
	cmpwi 7,28,0
	beq- 7,.L569
	.loc 17 399 0
	mr 3,28
	bl _ZdaPv
	lwz 9,3928(31)
	lwz 28,3940(31)
.LVL868:
	b .L554
.LVL869:
.L499:
.LBE3427:
.LBE3430:
.LBE3449:
.LBE3458:
.LBE3464:
.LBE3413:
	.loc 2 972 0
	mr 3,30
	addi 4,31,3922
	bl _ZN13idRestoreGame8ReadBoolERb
.LEHE34:
.LVL870:
.LBB3469:
.LBB3470:
.LBB3471:
	.loc 9 357 0
	li 9,20
	.loc 9 356 0
	li 0,0
	.loc 9 357 0
	stw 9,28(1)
.LBE3471:
.LBE3470:
.LBE3469:
	.loc 2 976 0
	mr 3,30
.LBB3476:
.LBB3474:
.LBB3472:
	.loc 9 358 0
	addi 9,1,32
.LBE3472:
.LBE3474:
.LBE3476:
	.loc 2 976 0
	addi 4,1,20
.LBB3477:
.LBB3475:
.LBB3473:
	.loc 9 356 0
	stw 0,20(1)
	.loc 9 358 0
	stw 9,24(1)
	.loc 9 359 0
	stb 0,32(1)
.LEHB35:
.LBE3473:
.LBE3475:
.LBE3477:
	.loc 2 976 0
	bl _ZN13idRestoreGame10ReadStringER5idStr
	.loc 2 977 0
	lwz 0,20(1)
	cmpwi 7,0,0
	ble- 7,.L521
.LVL871:
	.loc 2 978 0
	lwz 4,24(1)
	mr 3,31
	bl _ZN7idActor17GetScriptFunctionEPKc
	stw 3,2444(31)
.LVL872:
.L521:
	.loc 2 981 0
	mr 3,30
	addi 4,1,20
	bl _ZN13idRestoreGame10ReadStringER5idStr
	.loc 2 982 0
	lwz 0,20(1)
	cmpwi 7,0,0
	ble- 7,.L522
.LVL873:
	.loc 2 983 0
	lwz 4,24(1)
	mr 3,31
	bl _ZN7idActor17GetScriptFunctionEPKc
.LEHE35:
	stw 3,2448(31)
.LVL874:
.L522:
.LBB3478:
.LBB3479:
.LBB3480:
	.loc 9 501 0
	addi 3,1,20
.LEHB36:
	bl _ZN5idStr8FreeDataEv
.LBE3480:
.LBE3479:
.LBE3478:
.LBE3499:
	.loc 2 985 0
	lwz 0,108(1)
	lwz 12,60(1)
	mtlr 0
	lwz 22,64(1)
.LVL875:
	lwz 23,68(1)
	mtcrf 8,12
	lwz 24,72(1)
.LVL876:
	lwz 25,76(1)
	lwz 26,80(1)
	lwz 27,84(1)
	lwz 28,88(1)
	lwz 29,92(1)
	lwz 30,96(1)
.LVL877:
	lwz 31,100(1)
.LVL878:
	addi 1,1,104
	.cfi_remember_state
.LCFI224:
	.cfi_def_cfa_offset 0
	.cfi_restore 70
	.cfi_restore 31
	.cfi_restore 30
	.cfi_restore 29
	.cfi_restore 28
	.cfi_restore 27
	.cfi_restore 26
	.cfi_restore 25
	.cfi_restore 24
	.cfi_restore 23
	.cfi_restore 22
	blr
.LVL879:
.L500:
.LCFI225:
	.cfi_restore_state
.LBB3500:
.LBB3481:
.LBB3465:
.LBB3459:
.LBB3450:
	.loc 17 634 0
	lwz 11,3936(31)
.LBB3431:
.LBB3432:
	.loc 17 375 0
	cmpwi 4,11,0
.LBE3432:
.LBE3431:
	.loc 17 634 0
	mr 25,11
.LVL880:
.LBB3444:
.LBB3441:
	.loc 17 375 0
	ble- 4,.L570
	.loc 17 380 0
	lwz 0,3932(31)
	cmpw 7,11,0
	beq- 7,.L571
.LVL881:
	.loc 17 387 0
	lwz 0,3928(31)
	.loc 17 386 0
	stw 11,3932(31)
	.loc 17 387 0
	cmpw 7,11,0
	bge- 7,.L505
	.loc 17 388 0
	stw 11,3928(31)
.L505:
	.loc 17 392 0
	slwi 3,25,3
	bl _Znaj
.LVL882:
	mr 28,3
	beq- 4,.L506
.LBB3433:
.LBB3434:
.LBB3435:
	.loc 5 590 0
	mtctr 25
.LBE3435:
.LBE3434:
.LBE3433:
	.loc 17 392 0
	li 9,0
.L507:
.LBB3438:
.LBB3437:
.LBB3436:
	.loc 2 886 0
	slwi 0,9,3
	.loc 5 590 0
	addi 9,9,1
	stwx 27,28,0
.LBE3436:
.LBE3437:
.LBE3438:
	.loc 17 392 0
	bdnz .L507
.LVL883:
.L506:
	.loc 17 393 0
	lwz 9,3928(31)
	li 8,0
	.loc 17 392 0
	stw 28,3940(31)
.LVL884:
	.loc 17 393 0
	li 7,0
	cmpwi 7,9,0
	bgt+ 7,.L545
	b .L574
.LVL885:
.L573:
	lwz 28,3940(31)
.LVL886:
.L545:
	.loc 17 394 0
	lwz 10,0(8)
	add 28,28,8
	lwz 11,4(8)
	.loc 17 393 0
	addi 7,7,1
.LVL887:
	.loc 17 394 0
	stw 10,0(28)
	.loc 17 393 0
	addi 8,8,8
	.loc 17 394 0
	stw 11,4(28)
	.loc 17 393 0
	lwz 9,0(26)
	cmpw 7,7,9
	blt+ 7,.L573
	lwz 11,3932(31)
	lwz 28,3940(31)
	b .L501
.LVL888:
.L558:
.LBE3441:
.LBE3444:
.LBE3450:
.LBE3459:
.LBE3465:
.LBE3481:
.LBB3482:
.LBB3346:
.LBB3342:
.LBB3339:
	.loc 17 388 0
	stw 22,2388(31)
	b .L466
.LVL889:
.L561:
.LBE3339:
.LBE3342:
.LBE3346:
.LBE3482:
.LBB3483:
.LBB3371:
.LBB3367:
.LBB3364:
	stw 28,2404(31)
	b .L483
.LVL890:
.L564:
.LBE3364:
.LBE3367:
.LBE3371:
.LBE3483:
.LBB3484:
.LBB3396:
.LBB3392:
.LBB3389:
	stw 27,2428(31)
	b .L493
.LVL891:
.L567:
.LBE3389:
.LBE3392:
.LBE3396:
.LBE3484:
.LBB3485:
.LBB3466:
.LBB3460:
.LBB3451:
.LBB3445:
.LBB3428:
	.loc 17 380 0
	slwi 0,11,3
	addi 9,11,1
	add 28,28,0
	b .L510
.LVL892:
.L571:
.LBE3428:
.LBE3445:
.LBB3446:
.LBB3442:
	lwz 9,3928(31)
	b .L501
.LVL893:
.L482:
.LBE3442:
.LBE3446:
.LBE3451:
.LBE3460:
.LBE3466:
.LBE3485:
.LBB3486:
.LBB3372:
	.loc 17 302 0
	stw 28,2404(31)
.LVL894:
	b .L527
.LVL895:
.L465:
.LBE3372:
.LBE3486:
.LBB3487:
.LBB3347:
	stw 22,2388(31)
.LVL896:
	b .L526
.LVL897:
.L492:
.LBE3347:
.LBE3487:
.LBB3488:
.LBB3397:
	stw 27,2428(31)
.LVL898:
	b .L528
.LVL899:
.L566:
.LBE3397:
.LBE3488:
.LBB3489:
.LBB3467:
.LBB3461:
.LBB3452:
.LBB3447:
.LBB3429:
.LBB3425:
.LBB3426:
	.loc 17 193 0
	cmpwi 7,28,0
	beq- 7,.L512
	.loc 17 194 0
	mr 3,28
	bl _ZdaPv
.L512:
	.loc 17 197 0
	stw 27,3940(31)
	.loc 17 199 0
	li 9,1
	stw 27,3932(31)
	li 28,0
	b .L510
.LVL900:
.L569:
.LBE3426:
.LBE3425:
	.loc 17 398 0
	lwz 9,3928(31)
	lwz 28,3940(31)
.LVL901:
	slwi 0,9,3
	addi 9,9,1
	add 28,28,0
	b .L510
.LVL902:
.L557:
.LBE3429:
.LBE3447:
.LBE3452:
.LBE3461:
.LBE3467:
.LBE3489:
.LBB3490:
.LBB3348:
.LBB3343:
.LBB3340:
.LBB3333:
.LBB3334:
	.loc 17 193 0
	lwz 3,2400(31)
	mr 0,22
	cmpwi 7,3,0
	beq- 7,.L459
	.loc 17 194 0
	lwz 29,-4(3)
	slwi 29,29,5
	add 29,3,29
	cmpw 7,3,29
	beq- 7,.L460
.L548:
	addi 29,29,-32
.LVL903:
.LBB3335:
.LBB3336:
.LBB3337:
	.loc 9 501 0
	mr 3,29
	bl _ZN5idStr8FreeDataEv
.LBE3337:
.LBE3336:
.LBE3335:
	.loc 17 194 0
	lwz 3,12(24)
	cmpw 7,3,29
	bne+ 7,.L548
.LVL904:
.L460:
	addi 3,3,-4
	bl _ZdaPv
	lwz 0,16(1)
.L459:
	.loc 17 197 0
	li 9,0
	stw 9,2400(31)
	.loc 17 199 0
	stw 9,2392(31)
	b .L464
.LVL905:
.L560:
.LBE3334:
.LBE3333:
.LBE3340:
.LBE3343:
.LBE3348:
.LBE3490:
.LBB3491:
.LBB3373:
.LBB3368:
.LBB3365:
.LBB3362:
.LBB3360:
	.loc 17 193 0
	lwz 3,2416(31)
	mr 0,28
	cmpwi 7,3,0
	beq- 7,.L480
	.loc 17 194 0
	bl _ZdaPv
	lwz 0,16(1)
.L480:
	.loc 17 197 0
	li 9,0
	stw 9,2416(31)
	.loc 17 199 0
	stw 9,2408(31)
	b .L481
.LVL906:
.L563:
.LBE3360:
.LBE3362:
.LBE3365:
.LBE3368:
.LBE3373:
.LBE3491:
.LBB3492:
.LBB3398:
.LBB3393:
.LBB3390:
.LBB3386:
.LBB3387:
	.loc 17 193 0
	lwz 3,2440(31)
	mr 0,27
	cmpwi 7,3,0
	beq- 7,.L490
	.loc 17 194 0
	bl _ZdaPv
	lwz 0,16(1)
.L490:
	.loc 17 197 0
	li 9,0
	stw 9,2440(31)
	.loc 17 199 0
	stw 9,2432(31)
	b .L491
.LVL907:
.L570:
.LBE3387:
.LBE3386:
.LBE3390:
.LBE3393:
.LBE3398:
.LBE3492:
.LBB3493:
.LBB3468:
.LBB3462:
.LBB3453:
.LBB3448:
.LBB3443:
.LBB3439:
.LBB3440:
	.loc 17 198 0
	stw 28,3928(31)
	.loc 17 199 0
	li 11,0
.LVL908:
	stw 28,3932(31)
	li 0,0
	b .L503
.LVL909:
.L574:
.LBE3440:
.LBE3439:
	.loc 17 393 0
	lwz 11,3932(31)
	b .L501
.LVL910:
.L555:
.LBE3443:
.LBE3448:
.LBE3453:
.LBE3462:
.LBE3468:
.LBE3493:
.LBB3494:
.LBB3309:
.LBB3308:
.LBB3307:
.LBB3302:
.LBB3303:
	.loc 17 194 0
	lwz 29,-4(26)
	slwi 29,29,5
	add 29,26,29
	cmpw 7,26,29
	beq- 7,.L446
.L546:
	addi 29,29,-32
.LVL911:
.LBB3304:
.LBB3305:
.LBB3306:
	.loc 9 501 0
	mr 3,29
	bl _ZN5idStr8FreeDataEv
.LEHE36:
.LBE3306:
.LBE3305:
.LBE3304:
	.loc 17 194 0
	lwz 26,12(24)
	cmpw 7,26,29
	bne+ 7,.L546
.LVL912:
.L446:
	addi 3,26,-4
	bl _ZdaPv
	.loc 17 197 0
	li 0,0
	stw 0,2400(31)
	.loc 17 198 0
	stw 0,2388(31)
	.loc 17 199 0
	stw 0,2392(31)
	b .L444
.LVL913:
.L534:
	mr 31,3
.LVL914:
.LBE3303:
.LBE3302:
.LBE3307:
.LBE3308:
.LBE3309:
.LBE3494:
.LBB3495:
.LBB3496:
.LBB3497:
	.loc 9 501 0
	addi 3,1,20
	bl _ZN5idStr8FreeDataEv
	mr 3,31
.LEHB37:
	bl _Unwind_Resume
.LEHE37:
.LBE3497:
.LBE3496:
.LBE3495:
.LBE3500:
	.cfi_endproc
.LFE2847:
	.section	.gcc_except_table
.LLSDA2847:
	.byte	0xff
	.byte	0xff
	.byte	0x1
	.uleb128 .LLSDACSE2847-.LLSDACSB2847
.LLSDACSB2847:
	.uleb128 .LEHB34-.LFB2847
	.uleb128 .LEHE34-.LEHB34
	.uleb128 0
	.uleb128 0
	.uleb128 .LEHB35-.LFB2847
	.uleb128 .LEHE35-.LEHB35
	.uleb128 .L534-.LFB2847
	.uleb128 0
	.uleb128 .LEHB36-.LFB2847
	.uleb128 .LEHE36-.LEHB36
	.uleb128 0
	.uleb128 0
	.uleb128 .LEHB37-.LFB2847
	.uleb128 .LEHE37-.LEHB37
	.uleb128 0
	.uleb128 0
.LLSDACSE2847:
	.section	".text"
	.size	_ZN7idActor7RestoreEP13idRestoreGame, .-_ZN7idActor7RestoreEP13idRestoreGame
	.align 2
	.globl _ZN7idActor8SetStateEPK10function_t
	.type	_ZN7idActor8SetStateEPK10function_t, @function
_ZN7idActor8SetStateEPK10function_t:
.LFB2861:
	.loc 2 1306 0
	.cfi_startproc
.LVL915:
	stwu 1,-32(1)
.LCFI226:
	.cfi_def_cfa_offset 32
	mflr 0
	stw 30,24(1)
	.loc 2 1307 0
	mr. 30,4
	.cfi_offset 30, -8
	.cfi_register 65, 0
	.loc 2 1306 0
	stw 31,28(1)
	mr 31,3
	.cfi_offset 31, -4
	stw 0,36(1)
	stw 27,12(1)
	stw 28,16(1)
	stw 29,20(1)
	.loc 2 1307 0
	beq- 0,.L578
	.cfi_offset 29, -12
	.cfi_offset 28, -16
	.cfi_offset 27, -20
	.cfi_offset 65, 4
.LVL916:
.L576:
.LBB3501:
.LBB3502:
	.loc 2 1311 0
	lis 9,ai_debugScript+44@ha
	.loc 10 143 0
	lwz 11,ai_debugScript+44@l(9)
.LBE3502:
.LBE3501:
	.loc 2 1311 0
	lwz 9,4(31)
	lwz 0,36(11)
	cmpw 7,9,0
	beq- 7,.L579
	.loc 2 1315 0
	stw 30,2444(31)
	.loc 2 1317 0
	mr 4,31
	.loc 2 1316 0
	stw 30,2448(31)
	.loc 2 1317 0
	mr 5,30
	lwz 3,3692(31)
	li 6,1
	bl _ZN8idThread12CallFunctionEP8idEntityPK10function_tb
	.loc 2 1318 0
	lwz 0,36(1)
	lwz 27,12(1)
	mtlr 0
	lwz 28,16(1)
	lwz 29,20(1)
	lwz 30,24(1)
.LVL917:
	lwz 31,28(1)
.LVL918:
	addi 1,1,32
	.cfi_remember_state
.LCFI227:
	.cfi_def_cfa_offset 0
	.cfi_restore 31
	.cfi_restore 30
	.cfi_restore 29
	.cfi_restore 28
	.cfi_restore 27
	blr
.LVL919:
.L579:
.LCFI228:
	.cfi_restore_state
	.loc 2 1312 0
	lis 27,gameLocal@ha
	.loc 2 3283 0
	lwz 29,72(31)
	.loc 2 1312 0
	la 27,gameLocal@l(27)
	mr 3,30
	addis 9,27,0x25
	lwz 28,2004(9)
	bl _ZNK10function_t4NameEv
	lis 4,.LC93@ha
	mr 7,3
	mr 5,28
	mr 3,27
	mr 6,29
	la 4,.LC93@l(4)
	crxor 6,6,6
	bl _ZNK11idGameLocal6PrintfEPKcz
	.loc 2 1315 0
	stw 30,2444(31)
	.loc 2 1316 0
	stw 30,2448(31)
	.loc 2 1317 0
	mr 4,31
	lwz 3,3692(31)
	mr 5,30
	li 6,1
	bl _ZN8idThread12CallFunctionEP8idEntityPK10function_tb
	.loc 2 1318 0
	lwz 0,36(1)
	lwz 27,12(1)
	mtlr 0
	lwz 28,16(1)
	lwz 29,20(1)
	lwz 30,24(1)
.LVL920:
	lwz 31,28(1)
.LVL921:
	addi 1,1,32
	.cfi_remember_state
	.cfi_restore 27
	.cfi_restore 28
	.cfi_restore 29
	.cfi_restore 30
	.cfi_restore 31
.LCFI229:
	.cfi_def_cfa_offset 0
	blr
.LVL922:
.L578:
.LCFI230:
	.cfi_restore_state
	.loc 2 1308 0
	lis 3,gameLocal@ha
.LVL923:
	lis 4,.LC92@ha
.LVL924:
	la 3,gameLocal@l(3)
	la 4,.LC92@l(4)
	crxor 6,6,6
	bl _ZNK11idGameLocal5ErrorEPKcz
	b .L576
	.cfi_endproc
.LFE2861:
	.size	_ZN7idActor8SetStateEPK10function_t, .-_ZN7idActor8SetStateEPK10function_t
	.align 2
	.globl _ZN7idActor8SetStateEPKc
	.type	_ZN7idActor8SetStateEPKc, @function
_ZN7idActor8SetStateEPKc:
.LFB2862:
	.loc 2 1325 0
	.cfi_startproc
.LVL925:
	mflr 0
	stwu 1,-16(1)
.LCFI231:
	.cfi_def_cfa_offset 16
	.cfi_register 65, 0
	stw 31,12(1)
	mr 31,3
	.cfi_offset 31, -4
	stw 0,20(1)
.LBB3503:
	.loc 2 1328 0
	.cfi_offset 65, 4
	bl _ZN7idActor17GetScriptFunctionEPKc
.LVL926:
.LBE3503:
	.loc 2 1330 0
	lwz 0,20(1)
.LBB3504:
	.loc 2 1328 0
	mr 4,3
.LVL927:
	.loc 2 1329 0
	mr 3,31
.LVL928:
.LBE3504:
	.loc 2 1330 0
	lwz 31,12(1)
.LVL929:
	mtlr 0
	addi 1,1,16
.LCFI232:
	.cfi_def_cfa_offset 0
	.cfi_restore 31
.LBB3505:
	.loc 2 1329 0
	b _ZN7idActor8SetStateEPK10function_t
.LVL930:
.LVL931:
.LBE3505:
	.cfi_endproc
.LFE2862:
	.size	_ZN7idActor8SetStateEPKc, .-_ZN7idActor8SetStateEPKc
	.align 2
	.globl _ZN7idActor12UpdateScriptEv
	.type	_ZN7idActor12UpdateScriptEv, @function
_ZN7idActor12UpdateScriptEv:
.LFB2863:
	.loc 2 1337 0
	.cfi_startproc
.LVL932:
	mflr 0
	stwu 1,-24(1)
.LCFI233:
	.cfi_def_cfa_offset 24
	.cfi_register 65, 0
.LBB3506:
.LBB3507:
.LBB3508:
	.loc 2 1340 0
	lis 9,ai_debugScript+44@ha
.LBE3508:
.LBE3507:
.LBE3506:
	.loc 2 1337 0
	stw 31,20(1)
	mr 31,3
	.cfi_offset 31, -4
	stw 0,28(1)
.LBB3517:
.LBB3510:
.LBB3509:
	.loc 10 143 0
	lwz 9,ai_debugScript+44@l(9)
.LBE3509:
.LBE3510:
	.loc 2 1340 0
	lwz 11,4(3)
	lwz 0,36(9)
	.cfi_offset 65, 4
	.loc 2 1341 0
	lwz 9,3692(3)
	.loc 2 1340 0
	cmpw 7,11,0
	beq- 7,.L589
.LBB3511:
.LBB3512:
	.loc 13 206 0
	li 0,0
	stb 0,6975(9)
.L583:
.LVL933:
	.loc 13 206 0 is_stmt 0 discriminator 1
	lwz 4,2448(31)
.LBE3512:
.LBE3511:
.LBE3517:
	.loc 2 1337 0 is_stmt 1 discriminator 1
	li 9,20
.LBB3518:
.LBB3514:
.LBB3513:
	.loc 13 206 0 discriminator 1
	lwz 0,2444(31)
.LBE3513:
.LBE3514:
.LBE3518:
	.loc 2 1337 0 discriminator 1
	stw 9,8(1)
	cmpw 7,4,0
.LVL934:
.L586:
.LBB3519:
	.loc 2 1350 0
	mr 3,31
	.loc 2 1349 0
	beq- 7,.L584
	.loc 2 1350 0
	bl _ZN7idActor8SetStateEPK10function_t
.L584:
	.loc 2 1354 0
	lwz 3,3692(31)
	bl _ZN8idThread9IsWaitingEv
	cmpwi 7,3,0
	bne- 7,.L581
	.loc 2 1358 0
	lwz 3,3692(31)
	bl _ZN8idThread7ExecuteEv
	.loc 2 1359 0
	lwz 4,2448(31)
	lwz 0,2444(31)
	cmpw 7,4,0
	beq- 7,.L581
	.loc 2 1348 0
	lwz 0,8(1)
	addic. 9,0,-1
	stw 9,8(1)
	bne+ 0,.L586
	.loc 2 1365 0
	lis 4,.LC94@ha
	lwz 3,3692(31)
	la 4,.LC94@l(4)
	crxor 6,6,6
	bl _ZNK8idThread7WarningEPKcz
.L581:
.LBE3519:
	.loc 2 1367 0
	lwz 0,28(1)
	lwz 31,20(1)
.LVL935:
	mtlr 0
	addi 1,1,24
	.cfi_remember_state
.LCFI234:
	.cfi_def_cfa_offset 0
	.cfi_restore 31
	blr
.LVL936:
.L589:
.LCFI235:
	.cfi_restore_state
.LBB3520:
.LBB3515:
.LBB3516:
	.loc 13 205 0
	li 0,1
	stb 0,6975(9)
	b .L583
.LBE3516:
.LBE3515:
.LBE3520:
	.cfi_endproc
.LFE2863:
	.size	_ZN7idActor12UpdateScriptEv, .-_ZN7idActor12UpdateScriptEv
	.align 2
	.globl _ZN7idActor6SetFOVEf
	.type	_ZN7idActor6SetFOVEf, @function
_ZN7idActor6SetFOVEf:
.LFB2864:
	.loc 2 1380 0
	.cfi_startproc
.LVL937:
	.loc 2 1381 0
	lis 9,.LC95@ha
	.loc 2 1380 0
	mflr 0
	.loc 2 1381 0
	lfs 0,.LC95@l(9)
	lis 9,_ZN6idMath9M_DEG2RADE@ha
	lfs 13,_ZN6idMath9M_DEG2RADE@l(9)
	fmuls 1,1,0
.LVL938:
	.loc 2 1380 0
	stwu 1,-16(1)
.LCFI236:
	.cfi_def_cfa_offset 16
	.cfi_register 65, 0
	stw 0,20(1)
	.loc 2 1381 0
	fmuls 1,1,13
	.loc 2 1380 0
	stw 31,12(1)
	.loc 2 1380 0
	mr 31,3
	.cfi_offset 31, -4
	.cfi_offset 65, 4
	.loc 2 1381 0
	bl cos
.LVL939:
	frsp 1,1
	stfs 1,2336(31)
	.loc 2 1382 0
	lwz 0,20(1)
	lwz 31,12(1)
.LVL940:
	mtlr 0
	addi 1,1,16
.LCFI237:
	.cfi_def_cfa_offset 0
	.cfi_restore 31
	blr
	.cfi_endproc
.LFE2864:
	.size	_ZN7idActor6SetFOVEf, .-_ZN7idActor6SetFOVEf
	.align 2
	.globl _ZN7idActor12SetEyeHeightEf
	.type	_ZN7idActor12SetEyeHeightEf, @function
_ZN7idActor12SetEyeHeightEf:
.LFB2865:
	.loc 2 1389 0
	.cfi_startproc
.LVL941:
	.loc 2 1390 0
	stfs 1,2348(3)
	.loc 2 1391 0
	blr
	.cfi_endproc
.LFE2865:
	.size	_ZN7idActor12SetEyeHeightEf, .-_ZN7idActor12SetEyeHeightEf
	.align 2
	.globl _ZNK7idActor9EyeHeightEv
	.type	_ZNK7idActor9EyeHeightEv, @function
_ZNK7idActor9EyeHeightEv:
.LFB2866:
	.loc 2 1398 0
	.cfi_startproc
.LVL942:
	.loc 2 1400 0
	lfs 1,2348(3)
	blr
	.cfi_endproc
.LFE2866:
	.size	_ZNK7idActor9EyeHeightEv, .-_ZNK7idActor9EyeHeightEv
	.align 2
	.globl _ZNK7idActor9EyeOffsetEv
	.type	_ZNK7idActor9EyeOffsetEv, @function
_ZNK7idActor9EyeOffsetEv:
.LFB2867:
	.loc 2 1407 0
	.cfi_startproc
.LVL943:
	stwu 1,-16(1)
.LCFI238:
	.cfi_def_cfa_offset 16
	mflr 0
	stw 31,12(1)
	mr 31,3
	.cfi_offset 31, -4
	.cfi_register 65, 0
	.loc 2 1408 0
	mr 3,4
.LVL944:
	.loc 2 1407 0
	stw 0,20(1)
	stw 30,8(1)
	.loc 2 1407 0
	mr 30,4
	.cfi_offset 30, -8
	.cfi_offset 65, 4
	.loc 2 1408 0
	bl _ZNK8idEntity10GetPhysicsEv
.LVL945:
	lwz 9,0(3)
	lwz 0,164(9)
	mtctr 0
	bctrl
	lfs 0,2348(30)
.LBB3521:
.LBB3522:
	.loc 11 439 0
	lfs 12,4(3)
.LBE3522:
.LBE3521:
	.loc 2 1408 0
	fneg 0,0
.LVL946:
.LBB3527:
.LBB3525:
	.loc 11 439 0
	lfs 13,8(3)
	lfs 11,0(3)
.LBE3525:
.LBE3527:
	.loc 2 1409 0
	mr 3,31
.LVL947:
.LBB3528:
.LBB3526:
	.loc 11 439 0
	fmuls 12,0,12
	fmuls 13,0,13
.LVL948:
	fmuls 0,0,11
.LVL949:
.LBB3523:
.LBB3524:
	.loc 11 397 0
	stfs 12,4(31)
	.loc 11 398 0
	stfs 13,8(31)
	.loc 11 396 0
	stfs 0,0(31)
.LBE3524:
.LBE3523:
.LBE3526:
.LBE3528:
	.loc 2 1409 0
	lwz 0,20(1)
	lwz 30,8(1)
.LVL950:
	mtlr 0
	lwz 31,12(1)
.LVL951:
	addi 1,1,16
.LCFI239:
	.cfi_def_cfa_offset 0
	.cfi_restore 31
	.cfi_restore 30
	blr
	.cfi_endproc
.LFE2867:
	.size	_ZNK7idActor9EyeOffsetEv, .-_ZNK7idActor9EyeOffsetEv
	.align 2
	.globl _ZN7idActor15GetAIAimTargetsERK6idVec3RS0_S3_
	.type	_ZN7idActor15GetAIAimTargetsERK6idVec3RS0_S3_, @function
_ZN7idActor15GetAIAimTargetsERK6idVec3RS0_S3_:
.LFB2879:
	.loc 2 1515 0
	.cfi_startproc
.LVL952:
	stwu 1,-64(1)
.LCFI240:
	.cfi_def_cfa_offset 64
	mflr 0
	stw 30,32(1)
	mr 30,3
	.cfi_offset 30, -32
	.cfi_register 65, 0
	stw 31,36(1)
	.loc 2 1516 0
	addi 3,1,8
.LVL953:
	.loc 2 1515 0
	mr 31,4
	.cfi_offset 31, -28
	.loc 2 1516 0
	mr 4,30
.LVL954:
	.loc 2 1515 0
	stw 0,68(1)
	stfd 29,40(1)
	stfd 30,48(1)
	stfd 31,56(1)
	stw 28,24(1)
	mr 28,6
	.cfi_offset 28, -40
	.cfi_offset 63, -8
	.cfi_offset 62, -16
	.cfi_offset 61, -24
	.cfi_offset 65, 4
	stw 29,28(1)
	.loc 2 1515 0
	mr 29,5
	.cfi_offset 29, -36
	.loc 2 1516 0
	bl _ZNK7idActor9EyeOffsetEv
.LVL955:
.LBB3529:
.LBB3530:
	.loc 11 452 0
	lfs 13,0(31)
	lfs 0,8(1)
.LBE3530:
.LBE3529:
	.loc 2 1517 0
	mr 3,30
.LBB3533:
.LBB3531:
	.loc 11 452 0
	lfs 12,4(31)
	fadds 0,13,0
	lfs 13,12(1)
	lfs 11,8(31)
	fadds 12,12,13
	lfs 13,16(1)
.LBE3531:
.LBE3533:
.LBB3534:
.LBB3535:
	.loc 11 424 0
	stfs 0,0(29)
.LBE3535:
.LBE3534:
.LBB3537:
.LBB3532:
	.loc 11 452 0
	fadds 13,11,13
.LVL956:
.LBE3532:
.LBE3537:
.LBB3538:
.LBB3536:
	.loc 11 425 0
	stfs 12,4(29)
	.loc 11 426 0
	stfs 13,8(29)
.LVL957:
.LBE3536:
.LBE3538:
.LBB3539:
.LBB3540:
	.loc 11 452 0
	lfs 31,0(31)
	lfs 29,4(31)
	lfs 30,8(31)
	fadds 31,0,31
	fadds 29,12,29
	fadds 30,13,30
.LVL958:
.LBE3540:
.LBE3539:
	.loc 2 1517 0
	bl _ZNK8idEntity10GetPhysicsEv
.LVL959:
	lwz 9,0(3)
	li 4,-1
	lwz 0,56(9)
	mtctr 0
	bctrl
.LVL960:
.LBB3541:
.LBB3542:
	.loc 11 452 0
	lis 9,.LC95@ha
.LBE3542:
.LBE3541:
.LBB3544:
.LBB3545:
	.file 18 "d:/Data/Nintendo/DoomGX/src/game/../idlib/../idlib/bv/Bounds.h"
	.loc 18 212 0
	lfs 0,0(3)
	lfs 9,16(3)
	lfs 12,4(3)
	lfs 10,20(3)
	lfs 13,8(3)
	fadds 12,9,12
	lfs 11,12(3)
	fadds 13,10,13
	fadds 11,11,0
.LBE3545:
.LBE3544:
.LBB3546:
.LBB3543:
	.loc 11 452 0
	lfs 0,.LC95@l(9)
	fmadds 12,12,0,29
	fmadds 13,13,0,30
	fmadds 11,11,0,31
	.loc 11 439 0
	fmuls 12,12,0
	fmuls 13,13,0
.LVL961:
	fmuls 0,11,0
.LBE3543:
.LBE3546:
.LBB3547:
.LBB3548:
	.loc 11 425 0
	stfs 12,4(28)
	.loc 11 426 0
	stfs 13,8(28)
	.loc 11 424 0
	stfs 0,0(28)
.LBE3548:
.LBE3547:
	.loc 2 1518 0
	lwz 0,68(1)
	lwz 28,24(1)
.LVL962:
	mtlr 0
	lwz 29,28(1)
.LVL963:
	lwz 30,32(1)
.LVL964:
	lwz 31,36(1)
.LVL965:
	lfd 29,40(1)
.LVL966:
	lfd 30,48(1)
.LVL967:
	lfd 31,56(1)
.LVL968:
	addi 1,1,64
.LCFI241:
	.cfi_def_cfa_offset 0
	.cfi_restore 63
	.cfi_restore 62
	.cfi_restore 61
	.cfi_restore 31
	.cfi_restore 30
	.cfi_restore 29
	.cfi_restore 28
	blr
	.cfi_endproc
.LFE2879:
	.size	_ZN7idActor15GetAIAimTargetsERK6idVec3RS0_S3_, .-_ZN7idActor15GetAIAimTargetsERK6idVec3RS0_S3_
	.align 2
	.globl _ZNK7idActor14GetEyePositionEv
	.type	_ZNK7idActor14GetEyePositionEv, @function
_ZNK7idActor14GetEyePositionEv:
.LFB2868:
	.loc 2 1416 0
	.cfi_startproc
.LVL969:
	stwu 1,-24(1)
.LCFI242:
	.cfi_def_cfa_offset 24
	mflr 0
	stw 31,20(1)
	mr 31,3
	.cfi_offset 31, -4
	.cfi_register 65, 0
	.loc 2 1417 0
	mr 3,4
.LVL970:
	.loc 2 1416 0
	stw 0,28(1)
	stw 29,12(1)
	stw 30,16(1)
	.loc 2 1416 0
	mr 30,4
	.cfi_offset 30, -8
	.cfi_offset 29, -12
	.cfi_offset 65, 4
	.loc 2 1417 0
	bl _ZNK8idEntity10GetPhysicsEv
.LVL971:
	li 4,0
	lwz 9,0(3)
	lwz 0,132(9)
	mtctr 0
	bctrl
	mr 29,3
	mr 3,30
	bl _ZNK8idEntity10GetPhysicsEv
	lwz 9,0(3)
	lwz 0,164(9)
	mtctr 0
	bctrl
	lfs 0,2348(30)
	.loc 11 452 0
	lfs 8,4(3)
	.loc 2 1417 0
	fneg 0,0
.LVL972:
	.loc 11 452 0
	lfs 12,4(29)
	lfs 9,8(3)
	lfs 13,8(29)
.LBB3549:
.LBB3550:
.LBB3551:
.LBB3552:
	lfs 10,0(3)
.LBE3552:
.LBE3551:
.LBE3550:
.LBE3549:
	fmadds 12,0,8,12
.LBB3559:
.LBB3557:
.LBB3555:
.LBB3553:
	lfs 11,0(29)
.LBE3553:
.LBE3555:
.LBE3557:
.LBE3559:
	fmadds 13,0,9,13
.LVL973:
	.loc 2 1418 0
	mr 3,31
.LVL974:
.LBB3560:
.LBB3558:
.LBB3556:
.LBB3554:
	.loc 11 452 0
	fmadds 0,0,10,11
.LVL975:
	.loc 11 397 0
	stfs 12,4(31)
	.loc 11 398 0
	stfs 13,8(31)
	.loc 11 396 0
	stfs 0,0(31)
.LBE3554:
.LBE3556:
.LBE3558:
.LBE3560:
	.loc 2 1418 0
	lwz 0,28(1)
	lwz 29,12(1)
.LVL976:
	mtlr 0
	lwz 30,16(1)
.LVL977:
	lwz 31,20(1)
.LVL978:
	addi 1,1,24
.LCFI243:
	.cfi_def_cfa_offset 0
	.cfi_restore 31
	.cfi_restore 30
	.cfi_restore 29
	blr
	.cfi_endproc
.LFE2868:
	.size	_ZNK7idActor14GetEyePositionEv, .-_ZNK7idActor14GetEyePositionEv
	.align 2
	.globl _ZN7idActor13GetRenderViewEv
	.type	_ZN7idActor13GetRenderViewEv, @function
_ZN7idActor13GetRenderViewEv:
.LFB2880:
	.loc 2 1525 0
	.cfi_startproc
.LVL979:
	mflr 0
	stwu 1,-32(1)
.LCFI244:
	.cfi_def_cfa_offset 32
	.cfi_register 65, 0
	stw 30,24(1)
	mr 30,3
	.cfi_offset 30, -8
	stw 31,28(1)
	stw 0,36(1)
.LBB3561:
	.loc 2 1526 0
	.cfi_offset 65, 4
	.cfi_offset 31, -4
	bl _ZN8idEntity13GetRenderViewEv
.LVL980:
	mr 31,3
.LVL981:
.LBB3562:
.LBB3563:
	.loc 12 333 0
	addi 7,3,40
	addi 8,30,2268
	li 10,0
.L597:
.LBB3564:
.LBB3565:
	.loc 11 424 0
	mr 11,8
	mr 9,7
	lwzux 0,11,10
.LBE3565:
.LBE3564:
	.loc 12 333 0
	cmpwi 7,10,24
.LBB3568:
.LBB3566:
	.loc 11 424 0
	stwux 0,9,10
.LBE3566:
.LBE3568:
	.loc 12 333 0
	addi 10,10,12
.LBB3569:
.LBB3567:
	.loc 11 425 0
	lwz 0,4(11)
	stw 0,4(9)
	.loc 11 426 0
	lwz 0,8(11)
	stw 0,8(9)
.LBE3567:
.LBE3569:
	.loc 12 333 0
	bne+ 7,.L597
.LBE3563:
.LBE3562:
	.loc 2 1528 0
	addi 3,1,8
.LVL982:
	mr 4,30
	bl _ZNK7idActor14GetEyePositionEv
.LVL983:
.LBB3570:
.LBB3571:
	.loc 11 424 0
	lwz 0,8(1)
.LBE3571:
.LBE3570:
.LBE3561:
	.loc 2 1530 0
	mr 3,31
.LBB3574:
.LBB3573:
.LBB3572:
	.loc 11 424 0
	stw 0,28(31)
	.loc 11 425 0
	lwz 0,12(1)
	stw 0,32(31)
	.loc 11 426 0
	lwz 0,16(1)
	stw 0,36(31)
.LBE3572:
.LBE3573:
.LBE3574:
	.loc 2 1530 0
	lwz 0,36(1)
	lwz 30,24(1)
.LVL984:
	mtlr 0
	lwz 31,28(1)
.LVL985:
	addi 1,1,32
.LCFI245:
	.cfi_def_cfa_offset 0
	.cfi_restore 31
	.cfi_restore 30
	blr
	.cfi_endproc
.LFE2880:
	.size	_ZN7idActor13GetRenderViewEv, .-_ZN7idActor13GetRenderViewEv
	.align 2
	.globl _ZNK7idActor10GetViewPosER6idVec3R6idMat3
	.type	_ZNK7idActor10GetViewPosER6idVec3R6idMat3, @function
_ZNK7idActor10GetViewPosER6idVec3R6idMat3:
.LFB2869:
	.loc 2 1425 0
	.cfi_startproc
.LVL986:
	stwu 1,-40(1)
.LCFI246:
	.cfi_def_cfa_offset 40
	mflr 0
	stw 30,32(1)
	mr 30,3
	.cfi_offset 30, -8
	.cfi_register 65, 0
	stw 31,36(1)
	.loc 2 1426 0
	addi 3,1,8
.LVL987:
	.loc 2 1425 0
	mr 31,4
	.cfi_offset 31, -4
	.loc 2 1426 0
	mr 4,30
.LVL988:
	.loc 2 1425 0
	stw 0,44(1)
.LBB3575:
.LBB3576:
	.loc 12 333 0
	addi 30,30,2268
.LVL989:
.LBE3576:
.LBE3575:
	.loc 2 1425 0
	stw 29,28(1)
	.loc 2 1425 0
	mr 29,5
	.cfi_offset 29, -12
	.cfi_offset 65, 4
	.loc 2 1426 0
	bl _ZNK7idActor14GetEyePositionEv
.LVL990:
.LBB3585:
.LBB3586:
	.loc 11 424 0
	lwz 0,8(1)
.LBE3586:
.LBE3585:
.LBB3588:
.LBB3583:
	.loc 12 333 0
	li 10,0
.LBE3583:
.LBE3588:
.LBB3589:
.LBB3587:
	.loc 11 424 0
	stw 0,0(31)
	.loc 11 425 0
	lwz 0,12(1)
	stw 0,4(31)
	.loc 11 426 0
	lwz 0,16(1)
	stw 0,8(31)
.LVL991:
.L600:
.LBE3587:
.LBE3589:
.LBB3590:
.LBB3584:
.LBB3577:
.LBB3578:
	.loc 11 424 0
	mr 11,30
	mr 9,29
	lwzux 0,11,10
.LBE3578:
.LBE3577:
	.loc 12 333 0
	cmpwi 7,10,24
.LBB3581:
.LBB3579:
	.loc 11 424 0
	stwux 0,9,10
.LBE3579:
.LBE3581:
	.loc 12 333 0
	addi 10,10,12
.LBB3582:
.LBB3580:
	.loc 11 425 0
	lwz 0,4(11)
	stw 0,4(9)
	.loc 11 426 0
	lwz 0,8(11)
	stw 0,8(9)
.LBE3580:
.LBE3582:
	.loc 12 333 0
	bne+ 7,.L600
.LBE3584:
.LBE3590:
	.loc 2 1428 0
	lwz 0,44(1)
	lwz 29,28(1)
.LVL992:
	mtlr 0
	lwz 30,32(1)
.LVL993:
	lwz 31,36(1)
.LVL994:
	addi 1,1,40
.LCFI247:
	.cfi_def_cfa_offset 0
	.cfi_restore 31
	.cfi_restore 30
	.cfi_restore 29
	blr
	.cfi_endproc
.LFE2869:
	.size	_ZNK7idActor10GetViewPosER6idVec3R6idMat3, .-_ZNK7idActor10GetViewPosER6idVec3R6idMat3
	.align 2
	.globl _ZNK7idActor8CheckFOVERK6idVec3
	.type	_ZNK7idActor8CheckFOVERK6idVec3, @function
_ZNK7idActor8CheckFOVERK6idVec3:
.LFB2870:
	.loc 2 1435 0
	.cfi_startproc
.LVL995:
	mflr 0
	stwu 1,-64(1)
.LCFI248:
	.cfi_def_cfa_offset 64
	.cfi_register 65, 0
.LBB3607:
	.loc 2 1436 0
	lis 9,.LC96@ha
.LBE3607:
	.loc 2 1435 0
	stw 30,32(1)
	mr 30,4
	.cfi_offset 30, -32
	stw 31,36(1)
	mr 31,3
	.cfi_offset 31, -28
	stw 0,68(1)
	stfd 29,40(1)
	stfd 30,48(1)
	stfd 31,56(1)
.LBB3648:
	.loc 2 1436 0
	lfs 0,.LC96@l(9)
	lfs 13,2336(3)
	.loc 2 1437 0
	li 3,1
.LVL996:
	.loc 2 1436 0
	fcmpu 7,13,0
	beq+ 7,.L603
	.cfi_offset 63, -8
	.cfi_offset 62, -16
	.cfi_offset 61, -24
	.cfi_offset 65, 4
	.loc 2 1443 0
	mr 4,31
.LVL997:
	addi 3,1,8
	bl _ZNK7idActor14GetEyePositionEv
.LVL998:
.LBB3608:
.LBB3609:
	.loc 11 431 0
	lfs 0,8(1)
	lfs 30,0(30)
.LBE3609:
.LBE3608:
	.loc 2 1446 0
	mr 3,31
.LBB3611:
.LBB3610:
	.loc 11 431 0
	lfs 29,4(30)
	fsubs 30,30,0
	lfs 0,12(1)
	lfs 31,8(30)
	fsubs 29,29,0
	lfs 0,16(1)
	fsubs 31,31,0
.LVL999:
.LBE3610:
.LBE3611:
	.loc 2 1446 0
	bl _ZNK8idEntity10GetPhysicsEv
	lwz 9,0(3)
	lwz 0,164(9)
	mtctr 0
	bctrl
.LVL1000:
.LBB3612:
.LBB3613:
.LBB3614:
.LBB3615:
	.loc 4 278 0
	lis 9,.LC98@ha
.LBE3615:
.LBE3614:
.LBE3613:
.LBE3612:
.LBB3629:
.LBB3630:
	.loc 11 435 0
	lfs 11,4(3)
	lfs 12,0(3)
	fmuls 10,29,11
	lfs 9,8(3)
	.loc 2 1435 0
	fneg 11,11
.LBE3630:
.LBE3629:
.LBB3635:
.LBB3624:
.LBB3620:
.LBB3616:
	.loc 4 278 0
	lfs 8,.LC98@l(9)
.LBE3616:
.LBE3620:
.LBE3624:
.LBE3635:
.LBB3636:
.LBB3631:
	.loc 2 1435 0
	fneg 13,9
.LBE3631:
.LBE3636:
.LBB3637:
.LBB3638:
	.loc 11 435 0
	lfs 3,2272(31)
.LBE3638:
.LBE3637:
.LBB3640:
.LBB3632:
	fmadds 10,30,12,10
.LBE3632:
.LBE3640:
	lfs 4,2268(31)
.LBB3641:
.LBB3633:
	.loc 2 1435 0
	fneg 12,12
	.loc 11 435 0
	fmadds 10,31,9,10
.LVL1001:
	.loc 11 482 0
	fmadds 11,11,10,29
	.loc 11 481 0
	fmadds 12,12,10,30
.LVL1002:
	.loc 11 483 0
	fmadds 13,13,10,31
.LVL1003:
.LBE3633:
.LBE3641:
.LBB3642:
.LBB3625:
	.loc 11 649 0
	fmuls 0,11,11
.LBE3625:
.LBE3642:
.LBB3643:
.LBB3634:
	fmadds 0,12,12,0
	fmadds 0,13,13,0
	stfs 0,24(1)
.LVL1004:
.LBE3634:
.LBE3643:
.LBB3644:
.LBB3626:
.LBB3621:
.LBB3617:
	.loc 4 270 0
	lwz 0,24(1)
.LVL1005:
	.loc 4 276 0
	rlwinm 11,0,9,24,31
	rlwinm 9,0,19,21,29
	subfic 0,11,380
	lis 11,_ZN6idMath5iSqrtE@ha
	la 11,_ZN6idMath5iSqrtE@l(11)
	rlwinm 0,0,22,0,8
	lwzx 9,11,9
	.loc 4 275 0
	lis 11,.LC95@ha
	lfs 7,.LC95@l(11)
	.loc 4 276 0
	or 0,0,9
	.loc 4 277 0
	stw 0,28(1)
	.loc 4 275 0
	fmuls 7,0,7
.LVL1006:
	.loc 4 277 0
	lfs 0,28(1)
.LVL1007:
	.loc 2 1435 0
	fneg 7,7
.LVL1008:
.LBE3617:
.LBE3621:
.LBE3626:
.LBE3644:
	.loc 11 435 0
	lfs 5,2276(31)
.LBB3645:
.LBB3627:
.LBB3622:
.LBB3618:
	.loc 4 277 0
	fmr 9,0
.LVL1009:
.LBE3618:
.LBE3622:
.LBE3627:
.LBE3645:
	.loc 2 1454 0
	lfs 6,2336(31)
.LBB3646:
.LBB3628:
.LBB3623:
.LBB3619:
	.loc 4 278 0
	fmul 10,9,9
.LVL1010:
	fmadd 10,7,10,8
	fmul 10,9,10
.LVL1011:
	.loc 4 279 0
	fmul 0,10,10
	fmadd 0,7,0,8
.LVL1012:
	fmul 0,10,0
.LVL1013:
	.loc 4 280 0
	frsp 0,0
.LVL1014:
.LBE3619:
.LBE3623:
	.loc 11 652 0
	fmuls 11,11,0
.LVL1015:
	.loc 11 651 0
	fmuls 12,12,0
.LVL1016:
	.loc 11 653 0
	fmuls 0,13,0
.LVL1017:
.LBE3628:
.LBE3646:
.LBB3647:
.LBB3639:
	.loc 11 435 0
	fmuls 11,11,3
.LVL1018:
.LBE3639:
.LBE3647:
	fmadds 12,12,4,11
.LVL1019:
	fmadds 0,0,5,12
.LVL1020:
	.loc 2 1454 0
	fcmpu 7,6,0
	cror 30,28,30
	mfcr 3
	rlwinm 3,3,31,1
.LVL1021:
.L603:
.LBE3648:
	.loc 2 1455 0
	lwz 0,68(1)
	lwz 30,32(1)
.LVL1022:
	mtlr 0
	lwz 31,36(1)
.LVL1023:
	lfd 29,40(1)
	lfd 30,48(1)
	lfd 31,56(1)
	addi 1,1,64
.LCFI249:
	.cfi_def_cfa_offset 0
	.cfi_restore 63
	.cfi_restore 62
	.cfi_restore 61
	.cfi_restore 31
	.cfi_restore 30
	blr
	.cfi_endproc
.LFE2870:
	.size	_ZNK7idActor8CheckFOVERK6idVec3, .-_ZNK7idActor8CheckFOVERK6idVec3
	.align 2
	.globl _ZNK7idActor6CanSeeEP8idEntityb
	.type	_ZNK7idActor6CanSeeEP8idEntityb, @function
_ZNK7idActor6CanSeeEP8idEntityb:
.LFB2871:
	.loc 2 1462 0
	.cfi_startproc
.LVL1024:
	stwu 1,-184(1)
.LCFI250:
	.cfi_def_cfa_offset 184
	mflr 0
	stw 30,176(1)
	mr 30,3
	.cfi_offset 30, -8
	.cfi_register 65, 0
.LBB3649:
	.loc 2 1467 0
	mr 3,4
.LVL1025:
.LBE3649:
	.loc 2 1462 0
	stw 29,172(1)
	stw 31,180(1)
	mr 29,5
	.cfi_offset 31, -4
	.cfi_offset 29, -12
	stw 0,188(1)
	.loc 2 1462 0
	mr 31,4
.LBB3687:
	.loc 2 1467 0
	.cfi_offset 65, 4
	bl _ZNK8idEntity8IsHiddenEv
.LVL1026:
	cmpwi 7,3,0
	.loc 2 1468 0
	li 3,0
	.loc 2 1467 0
	beq- 7,.L616
.L606:
.LBE3687:
	.loc 2 1489 0
	lwz 0,188(1)
	lwz 29,172(1)
	mtlr 0
	lwz 30,176(1)
.LVL1027:
	lwz 31,180(1)
.LVL1028:
	addi 1,1,184
	.cfi_remember_state
.LCFI251:
	.cfi_def_cfa_offset 0
	.cfi_restore 31
	.cfi_restore 30
	.cfi_restore 29
	blr
.LVL1029:
.L616:
.LCFI252:
	.cfi_restore_state
.LBB3688:
.LBB3650:
.LBB3651:
	.loc 6 340 0
	lwz 9,0(31)
	mr 3,31
	lwz 0,0(9)
	mtctr 0
	bctrl
.LVL1030:
.LBE3651:
	.loc 2 3283 0
	lis 9,.LANCHOR0@ha
	la 9,.LANCHOR0@l(9)
	lwz 0,56(3)
.LBB3656:
.LBB3652:
.LBB3653:
	.loc 6 311 0
	lwz 11,56(9)
	cmpw 7,0,11
	bge- 7,.L617
.L607:
.LBE3653:
.LBE3652:
.LBE3656:
.LBE3650:
	.loc 2 1474 0
	mr 3,31
.LVL1031:
	bl _ZNK8idEntity10GetPhysicsEv
	li 4,0
	lwz 9,0(3)
	lwz 0,132(9)
	mtctr 0
	bctrl
.LVL1032:
.LBB3658:
.LBB3659:
	.loc 11 424 0
	lwz 11,0(3)
	.loc 11 425 0
	lwz 9,4(3)
	.loc 11 426 0
	lwz 0,8(3)
	.loc 11 424 0
	stw 11,32(1)
	.loc 11 425 0
	stw 9,36(1)
	.loc 11 426 0
	stw 0,40(1)
.LVL1033:
.L609:
.LBE3659:
.LBE3658:
	.loc 2 1477 0
	cmpwi 7,29,0
	bne- 7,.L618
.L608:
	.loc 2 1481 0
	addi 3,1,8
	mr 4,30
	bl _ZNK7idActor14GetEyePositionEv
.LVL1034:
.LBB3660:
.LBB3661:
	.loc 11 424 0
	lwz 0,8(1)
.LBE3661:
.LBE3660:
.LBB3667:
.LBB3668:
	.file 19 "d:/Data/Nintendo/DoomGX/src/game/physics/Clip.h"
	.loc 19 334 0
	lis 3,gameLocal+2311032@ha
	lis 8,mat3_identity@ha
.LBE3668:
.LBE3667:
.LBB3674:
.LBB3662:
	.loc 11 424 0
	stw 0,44(1)
.LBE3662:
.LBE3674:
.LBB3675:
.LBB3669:
	.loc 19 334 0
	li 9,2
.LBE3669:
.LBE3675:
.LBB3676:
.LBB3663:
	.loc 11 425 0
	lwz 0,12(1)
.LBE3663:
.LBE3676:
.LBB3677:
.LBB3670:
	.loc 19 334 0
	la 3,gameLocal+2311032@l(3)
	addi 4,1,56
	addi 5,1,44
.LBE3670:
.LBE3677:
.LBB3678:
.LBB3664:
	.loc 11 425 0
	stw 0,48(1)
.LBE3664:
.LBE3678:
.LBB3679:
.LBB3671:
	.loc 19 334 0
	addi 6,1,32
.LBE3671:
.LBE3679:
.LBB3680:
.LBB3665:
	.loc 11 426 0
	lwz 0,16(1)
.LBE3665:
.LBE3680:
.LBB3681:
.LBB3672:
	.loc 19 334 0
	li 7,0
	la 8,mat3_identity@l(8)
	mr 10,30
.LBE3672:
.LBE3681:
.LBB3682:
.LBB3666:
	.loc 11 426 0
	stw 0,52(1)
.LVL1035:
.LBE3666:
.LBE3682:
.LBB3683:
.LBB3673:
	.loc 19 334 0
	bl _ZN6idClip11TranslationER7trace_sRK6idVec3S4_PK11idClipModelRK6idMat3iPK8idEntity
.LVL1036:
.LBE3673:
.LBE3683:
	.loc 2 1484 0
	lis 9,.LC96@ha
	lfs 13,56(1)
	lfs 0,.LC96@l(9)
	.loc 2 1485 0
	li 3,1
	.loc 2 1484 0
	fcmpu 7,13,0
	cror 30,29,30
	beq+ 7,.L606
	.loc 2 1484 0 is_stmt 0 discriminator 2
	lis 3,gameLocal@ha
	addi 4,1,56
.LVL1037:
	la 3,gameLocal@l(3)
	bl _ZNK11idGameLocal14GetTraceEntityERK7trace_s
.LVL1038:
	.loc 2 1462 0 is_stmt 1 discriminator 2
	xor 3,31,3
	cntlzw 3,3
	srwi 3,3,5
	b .L606
.LVL1039:
.L617:
.LBB3684:
.LBB3657:
.LBB3655:
.LBB3654:
	.loc 6 311 0
	lwz 9,60(9)
	cmpw 7,0,9
	bgt- 7,.L607
.LBE3654:
.LBE3655:
.LBE3657:
.LBE3684:
	.loc 2 1472 0
	addi 3,1,20
.LVL1040:
	mr 4,31
	bl _ZNK7idActor14GetEyePositionEv
.LVL1041:
.LBB3685:
.LBB3686:
	.loc 11 424 0
	lwz 0,20(1)
	stw 0,32(1)
	.loc 11 425 0
	lwz 0,24(1)
	stw 0,36(1)
	.loc 11 426 0
	lwz 0,28(1)
	stw 0,40(1)
	b .L609
.LVL1042:
.L618:
.LBE3686:
.LBE3685:
	.loc 2 1477 0 discriminator 1
	mr 3,30
	addi 4,1,32
	bl _ZNK7idActor8CheckFOVERK6idVec3
	cmpwi 7,3,0
	.loc 2 1478 0 discriminator 1
	li 3,0
	.loc 2 1477 0 discriminator 1
	beq- 7,.L606
	b .L608
.LBE3688:
	.cfi_endproc
.LFE2871:
	.size	_ZNK7idActor6CanSeeEP8idEntityb, .-_ZNK7idActor6CanSeeEP8idEntityb
	.align 2
	.globl _ZNK7idActor12PointVisibleERK6idVec3
	.type	_ZNK7idActor12PointVisibleERK6idVec3, @function
_ZNK7idActor12PointVisibleERK6idVec3:
.LFB2878:
	.loc 2 1496 0
	.cfi_startproc
.LVL1043:
	stwu 1,-168(1)
.LCFI253:
	.cfi_def_cfa_offset 168
	mflr 0
	stw 31,156(1)
	mr 31,3
	.cfi_offset 31, -12
	.cfi_register 65, 0
	stw 30,152(1)
.LBB3689:
	.loc 2 1500 0
	addi 3,1,8
.LVL1044:
.LBE3689:
	.loc 2 1496 0
	mr 30,4
	.cfi_offset 30, -16
.LBB3726:
	.loc 2 1500 0
	mr 4,31
.LVL1045:
.LBE3726:
	.loc 2 1496 0
	stw 0,172(1)
	stfd 31,160(1)
.LBB3727:
	.loc 2 1500 0
	.cfi_offset 63, -8
	.cfi_offset 65, 4
	bl _ZNK7idActor14GetEyePositionEv
.LVL1046:
.LBB3690:
.LBB3691:
	.loc 11 424 0
	lwz 12,8(1)
.LBE3691:
.LBE3690:
	.loc 2 1502 0
	lis 9,.LC96@ha
	lfs 31,.LC96@l(9)
.LBB3697:
.LBB3698:
	.loc 19 334 0
	lis 3,gameLocal+2311032@ha
.LBE3698:
.LBE3697:
	.loc 2 1502 0
	lfs 0,8(30)
.LBB3706:
.LBB3699:
	.loc 19 334 0
	lis 8,mat3_identity@ha
.LBE3699:
.LBE3706:
.LBB3707:
.LBB3692:
	.loc 11 424 0
	stw 12,32(1)
.LBE3692:
.LBE3707:
.LBB3708:
.LBB3700:
	.loc 19 334 0
	addi 4,1,44
.LBE3700:
.LBE3708:
.LBB3709:
.LBB3693:
	.loc 11 425 0
	lwz 12,12(1)
.LBE3693:
.LBE3709:
	.loc 2 1502 0
	fadds 0,0,31
.LBB3710:
.LBB3711:
	.loc 11 425 0
	lwz 0,4(30)
.LBE3711:
.LBE3710:
.LBB3715:
.LBB3701:
	.loc 19 334 0
	addi 5,1,32
.LBE3701:
.LBE3715:
.LBB3716:
.LBB3712:
	.loc 11 424 0
	lwz 11,0(30)
.LBE3712:
.LBE3716:
.LBB3717:
.LBB3702:
	.loc 19 334 0
	addi 6,1,20
.LBE3702:
.LBE3717:
.LBB3718:
.LBB3694:
	.loc 11 425 0
	stw 12,36(1)
.LBE3694:
.LBE3718:
.LBB3719:
.LBB3703:
	.loc 19 334 0
	mr 10,31
.LBE3703:
.LBE3719:
.LBB3720:
.LBB3695:
	.loc 11 426 0
	lwz 12,16(1)
.LBE3695:
.LBE3720:
.LBB3721:
.LBB3704:
	.loc 19 334 0
	la 3,gameLocal+2311032@l(3)
	li 7,0
	la 8,mat3_identity@l(8)
	li 9,2
.LBE3704:
.LBE3721:
.LBB3722:
.LBB3713:
	.loc 11 425 0
	stw 0,24(1)
.LBE3713:
.LBE3722:
	.loc 2 1502 0
	stfs 0,28(1)
.LBB3723:
.LBB3696:
	.loc 11 426 0
	stw 12,40(1)
.LVL1047:
.LBE3696:
.LBE3723:
.LBB3724:
.LBB3714:
	.loc 11 424 0
	stw 11,20(1)
.LBE3714:
.LBE3724:
.LBB3725:
.LBB3705:
	.loc 19 334 0
	bl _ZN6idClip11TranslationER7trace_sRK6idVec3S4_PK11idClipModelRK6idMat3iPK8idEntity
.LVL1048:
.LBE3705:
.LBE3725:
	.loc 2 1505 0
	lfs 0,44(1)
.LBE3727:
	.loc 2 1506 0
	lwz 0,172(1)
.LBB3728:
	.loc 2 1505 0
	fcmpu 7,0,31
.LBE3728:
	.loc 2 1506 0
	lwz 30,152(1)
.LVL1049:
	mtlr 0
	lwz 31,156(1)
.LVL1050:
	lfd 31,160(1)
.LBB3729:
	.loc 2 1505 0
	cror 30,29,30
.LBE3729:
	.loc 2 1506 0
	addi 1,1,168
.LCFI254:
	.cfi_def_cfa_offset 0
	.cfi_restore 63
	.cfi_restore 31
	.cfi_restore 30
	mfcr 3
	rlwinm 3,3,31,1
	blr
	.cfi_endproc
.LFE2878:
	.size	_ZNK7idActor12PointVisibleERK6idVec3, .-_ZNK7idActor12PointVisibleERK6idVec3
	.align 2
	.globl _ZN7idActor14SetCombatModelEv
	.type	_ZN7idActor14SetCombatModelEv, @function
_ZN7idActor14SetCombatModelEv:
.LFB2881:
	.loc 2 1543 0
	.cfi_startproc
	.cfi_personality 0,__gxx_personality_v0
	.cfi_lsda 0,.LLSDA2881
.LVL1051:
	mflr 0
	stwu 1,-16(1)
.LCFI255:
	.cfi_def_cfa_offset 16
	.cfi_register 65, 0
	stw 31,12(1)
	mr 31,3
	.cfi_offset 31, -4
	stw 0,20(1)
	stw 30,8(1)
.LBB3730:
	.loc 2 1546 0
	lbz 0,2420(3)
	.cfi_offset 30, -8
	.cfi_offset 65, 4
	cmpwi 7,0,0
	bne- 7,.L620
	.loc 2 1547 0
	lwz 3,2188(3)
.LVL1052:
	cmpwi 7,3,0
	beq- 7,.L622
.LEHB38:
	.loc 2 1548 0
	bl _ZN11idClipModel6UnlinkEv
	.loc 2 1549 0
	lwz 3,2188(31)
	lwz 4,412(31)
	bl _ZN11idClipModel9LoadModelEi
.L623:
.LVL1053:
.LBB3731:
.LBB3732:
	.loc 5 634 0
	lwz 0,2424(31)
	.loc 5 635 0
	lis 9,gameLocal@ha
	la 9,gameLocal@l(9)
	.loc 5 634 0
	rlwinm 11,0,0,20,31
.LVL1054:
	.loc 5 635 0
	srawi 0,0,12
	addi 10,11,4228
	slwi 10,10,2
	add 10,9,10
	lwz 10,4(10)
	cmpw 7,10,0
	beq- 7,.L626
.LVL1055:
.L620:
.LBE3732:
.LBE3731:
.LBE3730:
	.loc 2 1559 0
	lwz 0,20(1)
	lwz 30,8(1)
	mtlr 0
	lwz 31,12(1)
.LVL1056:
	addi 1,1,16
	.cfi_remember_state
.LCFI256:
	.cfi_def_cfa_offset 0
	.cfi_restore 31
	.cfi_restore 30
	blr
.LVL1057:
.L626:
.LCFI257:
	.cfi_restore_state
.LBB3735:
.LBB3734:
.LBB3733:
	.loc 5 636 0
	addi 11,11,132
.LVL1058:
	slwi 11,11,2
.LVL1059:
	add 9,9,11
	lwz 3,4(9)
.LBE3733:
.LBE3734:
	.loc 2 1555 0
	cmpwi 7,3,0
	beq- 7,.L620
	.loc 2 1556 0
	bl _ZN14idAFAttachment14SetCombatModelEv
.LBE3735:
	.loc 2 1559 0
	lwz 0,20(1)
	lwz 30,8(1)
	mtlr 0
	lwz 31,12(1)
.LVL1060:
	addi 1,1,16
	.cfi_remember_state
	.cfi_restore 30
	.cfi_restore 31
.LCFI258:
	.cfi_def_cfa_offset 0
	blr
.LVL1061:
.L622:
.LCFI259:
	.cfi_restore_state
.LBB3736:
	.loc 2 1551 0
	li 3,140
	bl _Znwj
.LEHE38:
	lwz 4,412(31)
	mr 30,3
.LEHB39:
	bl _ZN11idClipModelC1Ei
.LEHE39:
	.loc 2 1551 0 is_stmt 0 discriminator 1
	stw 30,2188(31)
	b .L623
.L625:
	mr 31,3
.LVL1062:
	.loc 2 1551 0
	mr 3,30
	bl _ZdlPv
	mr 3,31
.LEHB40:
	bl _Unwind_Resume
.LEHE40:
.LBE3736:
	.cfi_endproc
.LFE2881:
	.section	.gcc_except_table
.LLSDA2881:
	.byte	0xff
	.byte	0xff
	.byte	0x1
	.uleb128 .LLSDACSE2881-.LLSDACSB2881
.LLSDACSB2881:
	.uleb128 .LEHB38-.LFB2881
	.uleb128 .LEHE38-.LEHB38
	.uleb128 0
	.uleb128 0
	.uleb128 .LEHB39-.LFB2881
	.uleb128 .LEHE39-.LEHB39
	.uleb128 .L625-.LFB2881
	.uleb128 0
	.uleb128 .LEHB40-.LFB2881
	.uleb128 .LEHE40-.LEHB40
	.uleb128 0
	.uleb128 0
.LLSDACSE2881:
	.section	".text"
	.size	_ZN7idActor14SetCombatModelEv, .-_ZN7idActor14SetCombatModelEv
	.align 2
	.globl _ZNK7idActor14GetCombatModelEv
	.type	_ZNK7idActor14GetCombatModelEv, @function
_ZNK7idActor14GetCombatModelEv:
.LFB2882:
	.loc 2 1566 0 is_stmt 1
	.cfi_startproc
.LVL1063:
	.loc 2 1568 0
	lwz 3,2188(3)
.LVL1064:
	blr
	.cfi_endproc
.LFE2882:
	.size	_ZNK7idActor14GetCombatModelEv, .-_ZNK7idActor14GetCombatModelEv
	.align 2
	.globl _ZN7idActor11StopRagdollEv
	.type	_ZN7idActor11StopRagdollEv, @function
_ZN7idActor11StopRagdollEv:
.LFB2886:
	.loc 2 1670 0
	.cfi_startproc
.LVL1065:
	mflr 0
	stwu 1,-8(1)
.LCFI260:
	.cfi_def_cfa_offset 8
	.cfi_register 65, 0
	stw 0,12(1)
	.loc 2 1671 0
	lbz 0,2185(3)
	.cfi_offset 65, 4
	cmpwi 7,0,0
	beq+ 7,.L628
	.loc 2 1672 0
	addi 3,3,1624
.LVL1066:
	bl _ZN4idAF4StopEv
.LVL1067:
.L628:
	.loc 2 1674 0
	lwz 0,12(1)
	addi 1,1,8
.LCFI261:
	.cfi_def_cfa_offset 0
	mtlr 0
	blr
	.cfi_endproc
.LFE2886:
	.size	_ZN7idActor11StopRagdollEv, .-_ZN7idActor11StopRagdollEv
	.align 2
	.globl _ZN7idActor17RemoveAttachmentsEv
	.type	_ZN7idActor17RemoveAttachmentsEv, @function
_ZN7idActor17RemoveAttachmentsEv:
.LFB2888:
	.loc 2 1702 0
	.cfi_startproc
.LVL1068:
	mflr 0
	stwu 1,-40(1)
.LCFI262:
	.cfi_def_cfa_offset 40
	.cfi_register 65, 0
	stw 30,32(1)
	mr 30,3
	.cfi_offset 30, -8
	stw 0,44(1)
	stw 24,8(1)
	stw 25,12(1)
	stw 26,16(1)
	stw 27,20(1)
	stw 28,24(1)
	stw 29,28(1)
	stw 31,36(1)
.LBB3748:
	.loc 2 1707 0
	lwz 0,3928(3)
	.cfi_offset 31, -4
	.cfi_offset 29, -12
	.cfi_offset 28, -16
	.cfi_offset 27, -20
	.cfi_offset 26, -24
	.cfi_offset 25, -28
	.cfi_offset 24, -32
	.cfi_offset 65, 4
	cmpwi 7,0,0
	ble- 7,.L630
	lis 29,gameLocal@ha
.LBB3749:
.LBB3750:
.LBB3751:
.LBB3752:
	.loc 15 241 0
	lis 27,.LC99@ha
	la 29,gameLocal@l(29)
.LBE3752:
.LBE3751:
.LBE3750:
.LBE3749:
	.loc 2 1710 0
	lis 28,EV_Remove@ha
	.loc 2 1707 0
	li 31,0
.LBB3772:
.LBB3773:
	.loc 5 635 0
	mr 26,29
.LBE3773:
.LBE3772:
.LBB3776:
.LBB3766:
.LBB3760:
.LBB3754:
	.loc 15 241 0
	la 27,.LC99@l(27)
.LBE3754:
.LBE3760:
.LBE3766:
.LBE3776:
	.loc 2 1710 0
	la 28,EV_Remove@l(28)
.LBB3777:
.LBB3767:
.LBB3761:
.LBB3755:
	.loc 15 245 0
	lis 25,.LC77@ha
	b .L634
.LVL1069:
.L635:
.LBE3755:
.LBE3761:
.LBE3767:
.LBE3777:
	.loc 2 1707 0
	addi 31,31,1
.LVL1070:
	cmpw 7,0,31
	ble- 7,.L630
.LVL1071:
.L634:
.LBB3778:
.LBB3774:
	.loc 5 634 0
	lwz 11,3940(30)
	slwi 9,31,3
	lwzx 9,11,9
	rlwinm 11,9,0,20,31
.LVL1072:
	.loc 5 635 0
	srawi 9,9,12
	addi 10,11,4228
	slwi 10,10,2
	add 10,29,10
	lwz 10,4(10)
	cmpw 7,10,9
	bne+ 7,.L635
	.loc 5 636 0
	addi 11,11,132
.LVL1073:
.LBE3774:
.LBE3778:
.LBB3779:
.LBB3768:
.LBB3762:
.LBB3756:
	.loc 15 241 0
	mr 4,27
.LBE3756:
.LBE3762:
.LBE3768:
.LBE3779:
.LBB3780:
.LBB3775:
	.loc 5 636 0
	slwi 11,11,2
.LVL1074:
	add 11,26,11
	lwz 24,4(11)
.LBE3775:
.LBE3780:
	.loc 2 1709 0
	cmpwi 7,24,0
.LBB3781:
.LBB3769:
.LBB3763:
.LBB3757:
	.loc 15 241 0
	addi 3,24,100
.LBE3757:
.LBE3763:
.LBE3769:
.LBE3781:
	.loc 2 1709 0
	beq- 7,.L635
.LVL1075:
.LBB3782:
.LBB3770:
.LBB3764:
.LBB3758:
	.loc 15 241 0 discriminator 1
	bl _ZNK6idDict7FindKeyEPKc
.LVL1076:
	.loc 15 242 0 discriminator 1
	cmpwi 0,3,0
	beq- 0,.L636
.LVL1077:
.LBB3753:
	.loc 2 3283 0
	lwz 9,4(3)
	lwz 3,4(9)
.LVL1078:
.L633:
.LBE3753:
.LBE3758:
.LBE3764:
	.loc 15 257 0
	bl atoi
.LBE3770:
.LBE3782:
	.loc 2 1710 0
	mr 4,28
	.loc 2 1709 0
	cmpwi 7,3,0
	.loc 2 1710 0
	li 5,0
	mr 3,24
	.loc 2 1709 0
	beq- 7,.L640
	.loc 2 1710 0 discriminator 4
	bl _ZN7idClass11PostEventMSEPK10idEventDefi
.L640:
	lwz 0,3928(30)
	.loc 2 1707 0 discriminator 4
	addi 31,31,1
.LVL1079:
	cmpw 7,0,31
	bgt+ 7,.L634
.LVL1080:
.L630:
.LBE3748:
	.loc 2 1713 0
	lwz 0,44(1)
	lwz 24,8(1)
	mtlr 0
	lwz 25,12(1)
	lwz 26,16(1)
	lwz 27,20(1)
	lwz 28,24(1)
	lwz 29,28(1)
	lwz 30,32(1)
.LVL1081:
	lwz 31,36(1)
	addi 1,1,40
	.cfi_remember_state
.LCFI263:
	.cfi_def_cfa_offset 0
	.cfi_restore 31
	.cfi_restore 30
	.cfi_restore 29
	.cfi_restore 28
	.cfi_restore 27
	.cfi_restore 26
	.cfi_restore 25
	.cfi_restore 24
	blr
.LVL1082:
.L636:
.LCFI264:
	.cfi_restore_state
.LBB3784:
.LBB3783:
.LBB3771:
.LBB3765:
.LBB3759:
	.loc 15 245 0
	la 3,.LC77@l(25)
.LVL1083:
	b .L633
.LBE3759:
.LBE3765:
.LBE3771:
.LBE3783:
.LBE3784:
	.cfi_endproc
.LFE2888:
	.size	_ZN7idActor17RemoveAttachmentsEv, .-_ZN7idActor17RemoveAttachmentsEv
	.align 2
	.globl _ZN7idActor9SpawnGibsERK6idVec3PKc
	.type	_ZN7idActor9SpawnGibsERK6idVec3PKc, @function
_ZN7idActor9SpawnGibsERK6idVec3PKc:
.LFB2910:
	.loc 2 2314 0
	.cfi_startproc
.LVL1084:
	mflr 0
	stwu 1,-16(1)
.LCFI265:
	.cfi_def_cfa_offset 16
	.cfi_register 65, 0
	stw 31,12(1)
	mr 31,3
	.cfi_offset 31, -4
	stw 0,20(1)
	.loc 2 2315 0
	.cfi_offset 65, 4
	bl _ZN19idAFEntity_Gibbable9SpawnGibsERK6idVec3PKc
.LVL1085:
	.loc 2 2317 0
	lwz 0,20(1)
	.loc 2 2316 0
	mr 3,31
	.loc 2 2317 0
	lwz 31,12(1)
.LVL1086:
	mtlr 0
	addi 1,1,16
.LCFI266:
	.cfi_def_cfa_offset 0
	.cfi_restore 31
	.loc 2 2316 0
	b _ZN7idActor17RemoveAttachmentsEv
.LVL1087:
	.cfi_endproc
.LFE2910:
	.size	_ZN7idActor9SpawnGibsERK6idVec3PKc, .-_ZN7idActor9SpawnGibsERK6idVec3PKc
	.align 2
	.globl _ZN7idActor12StartRagdollEv
	.type	_ZN7idActor12StartRagdollEv, @function
_ZN7idActor12StartRagdollEv:
.LFB2885:
	.loc 2 1613 0
	.cfi_startproc
.LVL1088:
	mflr 0
	stwu 1,-112(1)
.LCFI267:
	.cfi_def_cfa_offset 112
	.cfi_register 65, 0
	stw 31,76(1)
	mr 31,3
	.cfi_offset 31, -36
	stw 0,116(1)
	stfd 28,80(1)
	stfd 29,88(1)
	stfd 30,96(1)
	stfd 31,104(1)
	stw 27,60(1)
	stw 28,64(1)
	stw 29,68(1)
	stw 30,72(1)
.LBB3842:
.LBB3843:
.LBB3844:
	.loc 8 65 0
	lbz 0,2184(3)
	.cfi_offset 30, -40
	.cfi_offset 29, -44
	.cfi_offset 28, -48
	.cfi_offset 27, -52
	.cfi_offset 63, -8
	.cfi_offset 62, -16
	.cfi_offset 61, -24
	.cfi_offset 60, -32
	.cfi_offset 65, 4
	.loc 2 3283 0
	lwz 9,2084(3)
	.loc 8 65 0
	cmpwi 7,0,0
	.loc 2 1620 0
	li 0,0
	.loc 8 65 0
	beq- 7,.L643
	cmpwi 7,9,0
	beq- 7,.L643
.LBE3844:
.LBE3843:
	.loc 2 1624 0
	lbz 9,2185(3)
	.loc 2 1625 0
	li 0,1
	.loc 2 1624 0
	cmpwi 7,9,0
	beq- 7,.L665
.L643:
.LBE3842:
	.loc 2 1663 0
	mr 3,0
.LVL1089:
	lwz 0,116(1)
	lwz 27,60(1)
	mtlr 0
	lwz 28,64(1)
	lwz 29,68(1)
	lwz 30,72(1)
	lwz 31,76(1)
.LVL1090:
	lfd 28,80(1)
	lfd 29,88(1)
	lfd 30,96(1)
	lfd 31,104(1)
	addi 1,1,112
	.cfi_remember_state
.LCFI268:
	.cfi_def_cfa_offset 0
	.cfi_restore 63
	.cfi_restore 62
	.cfi_restore 61
	.cfi_restore 60
	.cfi_restore 31
	.cfi_restore 30
	.cfi_restore 29
	.cfi_restore 28
	.cfi_restore 27
	blr
.LVL1091:
.L665:
.LCFI269:
	.cfi_restore_state
.LBB4020:
	.loc 2 1629 0
	bl _ZNK8idEntity10GetPhysicsEv
.LVL1092:
	.loc 2 1632 0
	addi 30,31,100
	.loc 2 1629 0
	lwz 9,0(3)
	.loc 2 1632 0
	addi 29,31,1624
	.loc 2 1629 0
	lwz 0,180(9)
	mtctr 0
	bctrl
.LVL1093:
.LBB3845:
.LBB3846:
.LBB3847:
.LBB3848:
	.loc 15 241 0
	lis 4,.LC107@ha
	mr 3,30
	la 4,.LC107@l(4)
	bl _ZNK6idDict7FindKeyEPKc
.LVL1094:
	.loc 15 242 0
	cmpwi 0,3,0
	beq- 0,.L656
.LVL1095:
.LBB3849:
	.loc 2 3283 0
	lwz 9,4(3)
	lwz 3,4(9)
.LVL1096:
.L644:
.LBE3849:
.LBE3848:
.LBE3847:
.LBE3846:
.LBE3845:
	.loc 2 1634 0
	lis 28,gameLocal@ha
.LBB3855:
.LBB3852:
	.loc 15 253 0
	bl atoi
.LBE3852:
.LBE3855:
	.loc 2 1634 0
	la 28,gameLocal@l(28)
.LBB3856:
.LBB3853:
	.loc 15 253 0
	mr 4,3
.LBE3853:
.LBE3856:
	.loc 2 1634 0
	addis 28,28,0x25
	.loc 2 1632 0
	mr 3,29
	bl _ZN4idAF20StartFromCurrentPoseEi
	.loc 2 1634 0
	lwz 0,2004(28)
	lis 29,.LC1@ha
.LBB3857:
.LBB3858:
.LBB3859:
.LBB3860:
	.loc 15 241 0
	lis 4,.LC108@ha
.LBE3860:
.LBE3859:
.LBE3858:
.LBE3857:
	.loc 2 1634 0
	xoris 0,0,0x8000
	lfs 0,.LC1@l(29)
	stw 0,12(1)
	lis 0,0x4330
	stw 0,8(1)
	lis 9,_ZN6idMath8M_MS2SECE@ha
.LBB3875:
.LBB3870:
.LBB3866:
.LBB3862:
	.loc 15 241 0
	mr 3,30
	la 4,.LC108@l(4)
.LBE3862:
.LBE3866:
.LBE3870:
.LBE3875:
	.loc 2 1634 0
	lfd 29,8(1)
	lfs 31,_ZN6idMath8M_MS2SECE@l(9)
	fsub 29,29,0
.LBB3876:
.LBB3871:
.LBB3867:
.LBB3863:
	.loc 15 241 0
	bl _ZNK6idDict7FindKeyEPKc
	.loc 15 242 0
	cmpwi 0,3,0
.LBE3863:
.LBE3867:
.LBE3871:
.LBE3876:
	.loc 2 1634 0
	frsp 29,29
	fmuls 29,29,31
.LVL1097:
.LBB3877:
.LBB3872:
.LBB3868:
.LBB3864:
	.loc 15 242 0
	beq- 0,.L657
.LVL1098:
.LBB3861:
	.loc 2 3283 0
	lwz 9,4(3)
	lwz 3,4(9)
.LVL1099:
.L645:
.LBE3861:
.LBE3864:
.LBE3868:
	.loc 15 249 0
	bl atof
.LBE3872:
.LBE3877:
	.loc 2 1635 0
	lwz 0,2004(28)
	lfs 0,.LC1@l(29)
.LBB3878:
.LBB3873:
	.loc 15 249 0
	frsp 1,1
.LBE3873:
.LBE3878:
	.loc 2 1635 0
	xoris 0,0,0x8000
.LBB3879:
.LBB3880:
.LBB3881:
.LBB3882:
	.loc 15 241 0
	lis 4,.LC109@ha
.LBE3882:
.LBE3881:
.LBE3880:
.LBE3879:
	.loc 2 1635 0
	stw 0,20(1)
	lis 0,0x4330
	stw 0,16(1)
.LBB3896:
.LBB3892:
.LBB3888:
.LBB3884:
	.loc 15 241 0
	mr 3,30
	la 4,.LC109@l(4)
.LBE3884:
.LBE3888:
.LBE3892:
.LBE3896:
	.loc 2 1634 0
	fadds 29,29,1
.LVL1100:
	.loc 2 1635 0
	lfd 30,16(1)
	fsub 30,30,0
.LBB3897:
.LBB3893:
.LBB3889:
.LBB3885:
	.loc 15 241 0
	bl _ZNK6idDict7FindKeyEPKc
	.loc 15 242 0
	cmpwi 0,3,0
.LBE3885:
.LBE3889:
.LBE3893:
.LBE3897:
	.loc 2 1635 0
	frsp 30,30
	fmuls 30,31,30
.LVL1101:
.LBB3898:
.LBB3894:
.LBB3890:
.LBB3886:
	.loc 15 242 0
	beq- 0,.L658
.LVL1102:
.LBB3883:
	.loc 2 3283 0
	lwz 9,4(3)
	lwz 3,4(9)
.LVL1103:
.L646:
.LBE3883:
.LBE3886:
.LBE3890:
	.loc 15 249 0
	bl atof
.LVL1104:
	.loc 2 1638 0
	addi 27,31,1656
	.loc 15 249 0
	frsp 0,1
.LBE3894:
.LBE3898:
	.loc 2 1638 0
	mr 3,27
	fmr 1,29
.LVL1105:
	fadds 2,30,0
.LVL1106:
	bl _ZN12idPhysics_AF16SetTimeScaleRampEff
.LVL1107:
.LBB3899:
.LBB3900:
.LBB3901:
.LBB3902:
	.loc 15 241 0
	lis 4,.LC110@ha
	mr 3,30
	la 4,.LC110@l(4)
	bl _ZNK6idDict7FindKeyEPKc
.LVL1108:
	.loc 15 242 0
	cmpwi 0,3,0
	beq- 0,.L659
.LVL1109:
.LBB3903:
	.loc 2 3283 0
	lwz 9,4(3)
	lwz 3,4(9)
.LVL1110:
.L647:
.LBE3903:
.LBE3902:
.LBE3901:
	.loc 15 249 0
	bl atof
.LBE3900:
.LBE3899:
	.loc 2 1641 0
	lwz 0,2004(28)
	lfs 0,.LC1@l(29)
.LBB3908:
.LBB3909:
.LBB3910:
.LBB3911:
	.loc 15 241 0
	lis 4,.LC111@ha
.LBE3911:
.LBE3910:
.LBE3909:
.LBE3908:
	.loc 2 1641 0
	xoris 0,0,0x8000
.LBB3929:
.LBB3923:
.LBB3918:
.LBB3913:
	.loc 15 241 0
	mr 3,30
.LBE3913:
.LBE3918:
.LBE3923:
.LBE3929:
	.loc 2 1641 0
	stw 0,28(1)
	lis 0,0x4330
	stw 0,24(1)
.LBB3930:
.LBB3924:
.LBB3919:
.LBB3914:
	.loc 15 241 0
	la 4,.LC111@l(4)
.LBE3914:
.LBE3919:
.LBE3924:
.LBE3930:
.LBB3931:
.LBB3906:
	.loc 15 249 0
	frsp 29,1
.LVL1111:
.LBE3906:
.LBE3931:
	.loc 2 1641 0
	lfd 28,24(1)
	fsub 28,28,0
.LBB3932:
.LBB3925:
.LBB3920:
.LBB3915:
	.loc 15 241 0
	bl _ZNK6idDict7FindKeyEPKc
	.loc 15 242 0
	cmpwi 0,3,0
.LBE3915:
.LBE3920:
.LBE3925:
.LBE3932:
	.loc 2 1641 0
	frsp 28,28
	fmuls 28,31,28
.LVL1112:
.LBB3933:
.LBB3926:
.LBB3921:
.LBB3916:
	.loc 15 242 0
	beq- 0,.L660
.LVL1113:
.LBB3912:
	.loc 2 3283 0
	lwz 9,4(3)
	lwz 3,4(9)
.LVL1114:
.L648:
.LBE3912:
.LBE3916:
.LBE3921:
	.loc 15 249 0
	bl atof
.LBE3926:
.LBE3933:
	.loc 2 1642 0
	lwz 0,2004(28)
	lfs 0,.LC1@l(29)
.LBB3934:
.LBB3927:
	.loc 15 249 0
	frsp 1,1
.LBE3927:
.LBE3934:
	.loc 2 1642 0
	xoris 0,0,0x8000
.LBB3935:
.LBB3936:
.LBB3937:
.LBB3938:
	.loc 15 241 0
	lis 4,.LC112@ha
.LBE3938:
.LBE3937:
.LBE3936:
.LBE3935:
	.loc 2 1642 0
	stw 0,36(1)
	lis 0,0x4330
	stw 0,32(1)
.LBB3953:
.LBB3948:
.LBB3944:
.LBB3940:
	.loc 15 241 0
	mr 3,30
	la 4,.LC112@l(4)
.LBE3940:
.LBE3944:
.LBE3948:
.LBE3953:
	.loc 2 1641 0
	fadds 28,28,1
.LVL1115:
	.loc 2 1642 0
	lfd 30,32(1)
	fsub 30,30,0
.LBB3954:
.LBB3949:
.LBB3945:
.LBB3941:
	.loc 15 241 0
	bl _ZNK6idDict7FindKeyEPKc
	.loc 15 242 0
	cmpwi 0,3,0
.LBE3941:
.LBE3945:
.LBE3949:
.LBE3954:
	.loc 2 1642 0
	frsp 30,30
	fmuls 30,31,30
.LVL1116:
.LBB3955:
.LBB3950:
.LBB3946:
.LBB3942:
	.loc 15 242 0
	beq- 0,.L661
.LVL1117:
.LBB3939:
	.loc 2 3283 0
	lwz 9,4(3)
	lwz 3,4(9)
.LVL1118:
.L649:
.LBE3939:
.LBE3942:
.LBE3946:
	.loc 15 249 0
	bl atof
.LVL1119:
.LBE3950:
.LBE3955:
	.loc 2 1645 0
	fmr 2,28
.LBB3956:
.LBB3951:
	.loc 15 249 0
	frsp 0,1
.LBE3951:
.LBE3956:
	.loc 2 1645 0
	mr 3,27
	fmr 1,29
.LVL1120:
	fadds 3,30,0
.LVL1121:
	bl _ZN12idPhysics_AF20SetJointFrictionDentEfff
.LVL1122:
.LBB3957:
.LBB3958:
.LBB3959:
.LBB3960:
	.loc 15 241 0
	lis 4,.LC113@ha
	mr 3,30
	la 4,.LC113@l(4)
	bl _ZNK6idDict7FindKeyEPKc
.LVL1123:
	.loc 15 242 0
	cmpwi 0,3,0
	beq- 0,.L662
.LVL1124:
.LBB3961:
	.loc 2 3283 0
	lwz 9,4(3)
	lwz 3,4(9)
.LVL1125:
.L650:
.LBE3961:
.LBE3960:
.LBE3959:
	.loc 15 249 0
	bl atof
.LBE3958:
.LBE3957:
	.loc 2 1648 0
	lwz 0,2004(28)
	lfs 0,.LC1@l(29)
.LBB3966:
.LBB3967:
.LBB3968:
.LBB3969:
	.loc 15 241 0
	lis 4,.LC114@ha
.LBE3969:
.LBE3968:
.LBE3967:
.LBE3966:
	.loc 2 1648 0
	xoris 0,0,0x8000
.LBB3987:
.LBB3981:
.LBB3976:
.LBB3971:
	.loc 15 241 0
	mr 3,30
.LBE3971:
.LBE3976:
.LBE3981:
.LBE3987:
	.loc 2 1648 0
	stw 0,44(1)
	lis 0,0x4330
	stw 0,40(1)
.LBB3988:
.LBB3982:
.LBB3977:
.LBB3972:
	.loc 15 241 0
	la 4,.LC114@l(4)
.LBE3972:
.LBE3977:
.LBE3982:
.LBE3988:
.LBB3989:
.LBB3964:
	.loc 15 249 0
	frsp 30,1
.LBE3964:
.LBE3989:
	.loc 2 1648 0
	lfd 29,40(1)
	fsub 29,29,0
.LBB3990:
.LBB3983:
.LBB3978:
.LBB3973:
	.loc 15 241 0
	bl _ZNK6idDict7FindKeyEPKc
	.loc 15 242 0
	cmpwi 0,3,0
.LBE3973:
.LBE3978:
.LBE3983:
.LBE3990:
	.loc 2 1648 0
	frsp 29,29
	fmuls 29,31,29
.LVL1126:
.LBB3991:
.LBB3984:
.LBB3979:
.LBB3974:
	.loc 15 242 0
	beq- 0,.L663
.LVL1127:
.LBB3970:
	.loc 2 3283 0
	lwz 9,4(3)
	lwz 3,4(9)
.LVL1128:
.L651:
.LBE3970:
.LBE3974:
.LBE3979:
	.loc 15 249 0
	bl atof
.LBE3984:
.LBE3991:
	.loc 2 1649 0
	lwz 0,2004(28)
	lfs 0,.LC1@l(29)
.LBB3992:
.LBB3985:
	.loc 15 249 0
	frsp 1,1
.LBE3985:
.LBE3992:
	.loc 2 1649 0
	xoris 0,0,0x8000
.LBB3993:
.LBB3994:
.LBB3995:
.LBB3996:
	.loc 15 241 0
	lis 4,.LC115@ha
.LBE3996:
.LBE3995:
.LBE3994:
.LBE3993:
	.loc 2 1649 0
	stw 0,52(1)
	lis 0,0x4330
	stw 0,48(1)
.LBB4008:
.LBB4004:
.LBB4001:
.LBB3998:
	.loc 15 241 0
	mr 3,30
	la 4,.LC115@l(4)
.LBE3998:
.LBE4001:
.LBE4004:
.LBE4008:
	.loc 2 1648 0
	fadds 29,29,1
	.loc 2 1649 0
	lfd 13,48(1)
	fsub 0,13,0
.LVL1129:
	frsp 0,0
	fmuls 31,31,0
.LVL1130:
.LBB4009:
.LBB4005:
.LBB4002:
.LBB3999:
	.loc 15 241 0
	bl _ZNK6idDict7FindKeyEPKc
.LVL1131:
	.loc 15 242 0
	cmpwi 0,3,0
	beq- 0,.L664
.LVL1132:
.LBB3997:
	.loc 2 3283 0
	lwz 9,4(3)
	lwz 3,4(9)
.LVL1133:
.L652:
.LBE3997:
.LBE3999:
.LBE4002:
	.loc 15 249 0
	bl atof
.LVL1134:
.LBE4005:
.LBE4009:
	.loc 2 1652 0
	fmr 2,29
.LBB4010:
.LBB4006:
	.loc 15 249 0
	frsp 0,1
.LBE4006:
.LBE4010:
	.loc 2 1655 0
	lis 30,.LC116@ha
.LVL1135:
	.loc 2 1652 0
	fmr 1,30
.LVL1136:
	mr 3,27
	.loc 2 1655 0
	la 30,.LC116@l(30)
	.loc 2 1652 0
	fadds 3,31,0
.LVL1137:
	bl _ZN12idPhysics_AF22SetContactFrictionDentEfff
.LVL1138:
	.loc 2 1655 0
	mr 3,31
	mr 4,30
	li 5,0
	bl _ZN14idMoveableItem9DropItemsEP16idAnimatedEntityPKcP6idListIP8idEntityE
	.loc 2 1658 0
	mr 3,31
	mr 4,30
	li 5,0
	bl _ZN15idAFEntity_Base7DropAFsEP8idEntityPKcP6idListIS1_E
	.loc 2 1660 0
	mr 3,31
	bl _ZN7idActor17RemoveAttachmentsEv
	.loc 2 1662 0
	li 0,1
.LBE4020:
	.loc 2 1663 0
	mr 3,0
	lwz 0,116(1)
	lwz 27,60(1)
	mtlr 0
	lwz 28,64(1)
	lwz 29,68(1)
	lwz 30,72(1)
	lwz 31,76(1)
.LVL1139:
	lfd 28,80(1)
.LVL1140:
	lfd 29,88(1)
.LVL1141:
	lfd 30,96(1)
	lfd 31,104(1)
	addi 1,1,112
	.cfi_remember_state
	.cfi_restore 27
	.cfi_restore 28
	.cfi_restore 29
	.cfi_restore 30
	.cfi_restore 31
	.cfi_restore 60
	.cfi_restore 61
	.cfi_restore 62
	.cfi_restore 63
.LCFI270:
	.cfi_def_cfa_offset 0
	blr
.LVL1142:
.L656:
.LCFI271:
	.cfi_restore_state
.LBB4021:
.LBB4011:
.LBB3854:
.LBB3851:
.LBB3850:
	.loc 15 245 0
	lis 3,.LC77@ha
.LVL1143:
	la 3,.LC77@l(3)
	b .L644
.LVL1144:
.L657:
.LBE3850:
.LBE3851:
.LBE3854:
.LBE4011:
.LBB4012:
.LBB3874:
.LBB3869:
.LBB3865:
	lis 3,.LC100@ha
	la 3,.LC100@l(3)
	b .L645
.LVL1145:
.L658:
.LBE3865:
.LBE3869:
.LBE3874:
.LBE4012:
.LBB4013:
.LBB3895:
.LBB3891:
.LBB3887:
	lis 3,.LC101@ha
	la 3,.LC101@l(3)
	b .L646
.LVL1146:
.L659:
.LBE3887:
.LBE3891:
.LBE3895:
.LBE4013:
.LBB4014:
.LBB3907:
.LBB3905:
.LBB3904:
	lis 3,.LC102@ha
.LVL1147:
	la 3,.LC102@l(3)
	b .L647
.LVL1148:
.L660:
.LBE3904:
.LBE3905:
.LBE3907:
.LBE4014:
.LBB4015:
.LBB3928:
.LBB3922:
.LBB3917:
	lis 3,.LC103@ha
	la 3,.LC103@l(3)
	b .L648
.LVL1149:
.L661:
.LBE3917:
.LBE3922:
.LBE3928:
.LBE4015:
.LBB4016:
.LBB3952:
.LBB3947:
.LBB3943:
	lis 3,.LC104@ha
	la 3,.LC104@l(3)
	b .L649
.LVL1150:
.L662:
.LBE3943:
.LBE3947:
.LBE3952:
.LBE4016:
.LBB4017:
.LBB3965:
.LBB3963:
.LBB3962:
	lis 3,.LC102@ha
.LVL1151:
	la 3,.LC102@l(3)
	b .L650
.LVL1152:
.L663:
.LBE3962:
.LBE3963:
.LBE3965:
.LBE4017:
.LBB4018:
.LBB3986:
.LBB3980:
.LBB3975:
	lis 3,.LC105@ha
	la 3,.LC105@l(3)
	b .L651
.LVL1153:
.L664:
.LBE3975:
.LBE3980:
.LBE3986:
.LBE4018:
.LBB4019:
.LBB4007:
.LBB4003:
.LBB4000:
	lis 3,.LC106@ha
.LVL1154:
	la 3,.LC106@l(3)
	b .L652
.LBE4000:
.LBE4003:
.LBE4007:
.LBE4019:
.LBE4021:
	.cfi_endproc
.LFE2885:
	.size	_ZN7idActor12StartRagdollEv, .-_ZN7idActor12StartRagdollEv
	.align 2
	.globl _ZN7idActor6AttachEP8idEntity
	.type	_ZN7idActor6AttachEP8idEntity, @function
_ZN7idActor6AttachEP8idEntity:
.LFB2889:
	.loc 2 1720 0
	.cfi_startproc
	.cfi_personality 0,__gxx_personality_v0
	.cfi_lsda 0,.LLSDA2889
.LVL1155:
	mflr 0
	stwu 1,-280(1)
.LCFI272:
	.cfi_def_cfa_offset 280
	.cfi_register 65, 0
.LVL1156:
	mfcr 12
.LBB4078:
.LBB4079:
.LBB4080:
.LBB4081:
	.loc 9 357 0
	li 9,20
.LBE4081:
.LBE4080:
.LBE4079:
.LBE4078:
	.loc 2 1720 0
	stw 28,240(1)
.LBB4207:
	.loc 2 1725 0
	addi 28,3,3928
	.cfi_offset 28, -40
	.cfi_register 70, 12
.LVL1157:
.LBE4207:
	.loc 2 1720 0
	stw 0,284(1)
.LBB4208:
.LBB4090:
.LBB4086:
.LBB4082:
	.loc 9 356 0
	li 0,0
	.cfi_offset 65, 4
.LBE4082:
.LBE4086:
.LBE4090:
.LBE4208:
	.loc 2 1720 0
	stw 30,248(1)
	mr 30,4
	.cfi_offset 30, -32
	stw 31,252(1)
	mr 31,3
	.cfi_offset 31, -28
	stfd 29,256(1)
	stfd 30,264(1)
	stfd 31,272(1)
	stw 24,224(1)
	stw 25,228(1)
	stw 26,232(1)
	stw 27,236(1)
	stw 29,244(1)
	stw 12,220(1)
.LBB4209:
.LBB4091:
.LBB4087:
.LBB4083:
	.loc 9 357 0
	stw 9,76(1)
	.loc 9 358 0
	addi 9,1,80
.LBE4083:
.LBE4087:
.LBE4091:
.LBB4092:
.LBB4093:
	.loc 17 633 0
	lwz 29,3940(3)
	.cfi_offset 70, -60
	.cfi_offset 29, -36
	.cfi_offset 27, -44
	.cfi_offset 26, -48
	.cfi_offset 25, -52
	.cfi_offset 24, -56
	.cfi_offset 63, -8
	.cfi_offset 62, -16
	.cfi_offset 61, -24
.LBE4093:
.LBE4092:
.LBB4127:
.LBB4088:
.LBB4084:
	.loc 9 356 0
	stw 0,68(1)
.LBE4084:
.LBE4088:
.LBE4127:
.LBB4128:
.LBB4122:
	.loc 17 633 0
	cmpwi 7,29,0
.LBE4122:
.LBE4128:
.LBB4129:
.LBB4089:
.LBB4085:
	.loc 9 358 0
	stw 9,72(1)
	.loc 9 359 0
	stb 0,80(1)
.LBE4085:
.LBE4089:
.LBE4129:
.LBB4130:
.LBB4123:
	.loc 17 633 0
	beq- 7,.L667
	lwz 9,3928(3)
	lwz 0,3932(3)
.LVL1158:
.L668:
	.loc 17 637 0
	cmpw 7,9,0
	beq- 7,.L705
.L704:
.LBB4094:
.LBB4095:
	.loc 17 399 0
	slwi 0,9,3
	addi 9,9,1
	add 29,29,0
.L677:
.LBE4095:
.LBE4094:
.LBE4123:
.LBE4130:
	.loc 2 1729 0
	addi 26,30,100
.LBB4131:
.LBB4132:
	.loc 15 241 0
	lis 4,.LC117@ha
.LBE4132:
.LBE4131:
.LBB4137:
.LBB4124:
	.loc 17 641 0
	stw 9,3928(31)
.LVL1159:
.LBE4124:
.LBE4137:
.LBB4138:
.LBB4134:
	.loc 15 241 0
	mr 3,26
	la 4,.LC117@l(4)
	addi 27,1,68
.LEHB41:
	bl _ZNK6idDict7FindKeyEPKc
.LVL1160:
	.loc 15 242 0
	cmpwi 0,3,0
	beq- 0,.L696
.LVL1161:
.LBB4133:
	.loc 2 3283 0
	lwz 9,4(3)
	lwz 4,4(9)
.LVL1162:
.L687:
.LBE4133:
.LBE4134:
.LBE4138:
	.loc 2 1729 0
	addi 27,1,68
	mr 3,27
.LVL1163:
	bl _ZN5idStraSEPKc
	.loc 2 1730 0
	addi 25,31,636
.LVL1164:
	lwz 4,4(27)
	mr 3,25
	bl _ZNK10idAnimator14GetJointHandleEPKc
	.loc 2 1731 0
	cmpwi 7,3,-1
	.loc 2 1730 0
	mr 28,3
.LVL1165:
	.loc 2 1731 0
	beq- 7,.L706
.LVL1166:
.L688:
.LBB4139:
.LBB4140:
	.loc 15 280 0
	lis 4,.LC119@ha
	mr 3,26
	la 4,.LC119@l(4)
	li 5,0
	addi 6,1,32
	bl _ZNK6idDict9GetAnglesEPKcS1_R8idAngles
.LVL1167:
.LBE4140:
.LBE4139:
.LBB4141:
.LBB4142:
	.file 20 "d:/Data/Nintendo/DoomGX/src/game/../idlib/../idlib/math/Angles.h"
	.loc 20 146 0
	lwz 0,32(1)
.LBE4142:
.LBE4141:
.LBB4146:
.LBB4147:
	.loc 15 262 0
	lis 4,.LC120@ha
	mr 3,26
	la 4,.LC120@l(4)
.LBE4147:
.LBE4146:
.LBB4151:
.LBB4143:
	.loc 20 146 0
	stw 0,44(1)
.LBE4143:
.LBE4151:
.LBB4152:
.LBB4148:
	.loc 15 262 0
	li 5,0
.LBE4148:
.LBE4152:
.LBB4153:
.LBB4144:
	.loc 20 147 0
	lwz 0,36(1)
.LBE4144:
.LBE4153:
.LBB4154:
.LBB4149:
	.loc 15 262 0
	addi 6,1,20
.LBE4149:
.LBE4154:
.LBB4155:
.LBB4145:
	.loc 20 147 0
	stw 0,48(1)
	.loc 20 148 0
	lwz 0,40(1)
	stw 0,52(1)
.LVL1168:
.LBE4145:
.LBE4155:
.LBB4156:
.LBB4150:
	.loc 15 262 0
	bl _ZNK6idDict9GetVectorEPKcS1_R6idVec3
.LVL1169:
.LBE4150:
.LBE4156:
	.loc 2 1738 0
	mr 3,25
	mr 4,28
.LBB4157:
.LBB4158:
	.loc 11 424 0
	lfs 30,20(1)
	.loc 11 425 0
	lfs 29,24(1)
	.loc 11 426 0
	lfs 31,28(1)
.LBE4158:
.LBE4157:
	.loc 2 1738 0
	bl _ZNK10idAnimator18GetChannelForJointE13jointHandle_t
	.loc 2 1739 0
	lis 26,gameLocal@ha
.LVL1170:
	.loc 2 1738 0
	stw 3,4(29)
	.loc 2 1739 0
	la 26,gameLocal@l(26)
	mr 3,31
	addis 9,26,0x25
	mr 4,28
	lwz 5,2004(9)
	addi 6,1,56
	addi 7,1,172
	bl _ZN16idAnimatedEntity22GetJointWorldTransformE13jointHandle_tiR6idVec3R6idMat3
.LVL1171:
.LBB4159:
.LBB4160:
	.loc 5 605 0
	cmpwi 7,30,0
	beq- 7,.L707
	.loc 5 608 0
	lwz 9,4(30)
	addi 0,9,4228
	slwi 0,0,2
	add 26,26,0
	lwz 0,4(26)
	slwi 0,0,12
	or 9,0,9
	stw 9,0(29)
.L690:
.LVL1172:
.LBE4160:
.LBE4159:
.LBB4162:
.LBB4163:
.LBB4164:
	.loc 12 454 0
	lfs 13,284(31)
.LBE4164:
.LBE4163:
.LBE4162:
	.loc 2 1742 0
	mr 3,30
.LBB4173:
.LBB4169:
.LBB4165:
	.loc 12 454 0
	lfs 12,280(31)
.LBE4165:
.LBE4169:
.LBE4173:
	.loc 2 1742 0
	addi 4,1,8
.LBB4174:
.LBB4170:
.LBB4166:
	.loc 12 454 0
	lfs 0,288(31)
	fmuls 13,29,13
.LBE4166:
.LBE4170:
.LBE4174:
.LBB4175:
.LBB4176:
	lfs 10,272(31)
.LBE4176:
.LBE4175:
.LBB4183:
.LBB4171:
.LBB4167:
	fmuls 0,29,0
.LBE4167:
.LBE4171:
.LBE4183:
.LBB4184:
.LBB4181:
	lfs 11,276(31)
.LBE4181:
.LBE4184:
.LBB4185:
.LBB4172:
.LBB4168:
	fmuls 29,29,12
.LVL1173:
.LBE4168:
.LBE4172:
.LBE4185:
.LBB4186:
.LBB4182:
	lfs 12,268(31)
	fmadds 13,30,10,13
	lfs 10,296(31)
	fmadds 0,30,11,0
	lfs 11,300(31)
	fmadds 30,30,12,29
	lfs 12,292(31)
	fmadds 13,31,10,13
.LVL1174:
	fmadds 0,31,11,0
.LVL1175:
	fmadds 31,31,12,30
.LVL1176:
	.loc 11 452 0
	lfs 12,60(1)
	fadds 13,13,12
.LVL1177:
	lfs 12,64(1)
	fadds 0,0,12
.LVL1178:
	lfs 12,56(1)
.LBB4177:
.LBB4178:
	.loc 11 397 0
	stfs 13,12(1)
.LBE4178:
.LBE4177:
	.loc 11 452 0
	fadds 31,12,31
.LVL1179:
.LBB4180:
.LBB4179:
	.loc 11 398 0
	stfs 0,16(1)
	.loc 11 396 0
	stfs 31,8(1)
.LBE4179:
.LBE4180:
.LBE4182:
.LBE4186:
	.loc 2 1742 0
	bl _ZN8idEntity9SetOriginERK6idVec3
.LVL1180:
	.loc 2 1743 0
	addi 29,1,136
	addi 4,1,44
	mr 3,29
	bl _ZNK8idAngles6ToMat3Ev
.LBB4187:
.LBB4135:
	.loc 2 1744 0
	mr 11,29
	.loc 2 1720 0
	addi 9,1,100
.L691:
.LVL1181:
.LBE4135:
.LBE4187:
	lfs 0,4(11)
.LBB4188:
.LBB4189:
	.loc 12 471 0
	lfs 13,192(1)
	lfs 11,184(1)
	lfs 12,188(1)
	fmuls 11,0,11
	lfs 8,172(1)
	fmuls 12,0,12
	lfs 9,176(1)
	fmuls 0,0,13
	lfs 10,180(1)
.LBE4189:
.LBE4188:
	.loc 2 1720 0
	lfs 13,0(11)
.LBB4192:
.LBB4190:
	.loc 12 471 0
	fmadds 11,8,13,11
	lfs 8,196(1)
	fmadds 12,9,13,12
	lfs 9,200(1)
	fmadds 13,10,13,0
.LBE4190:
.LBE4192:
	.loc 2 1720 0
	lfs 0,8(11)
.LBB4193:
.LBB4191:
	.loc 12 471 0
	lfs 10,204(1)
	.loc 12 474 0
	addi 11,11,12
	.loc 12 471 0
	fmadds 11,8,0,11
	fmadds 12,9,0,12
	fmadds 0,10,0,13
	stfs 11,0(9)
.LVL1182:
	stfs 12,4(9)
.LVL1183:
	stfs 0,8(9)
.LVL1184:
	addi 9,9,12
.LVL1185:
	.loc 12 467 0
	cmpw 7,9,29
	bne+ 7,.L691
.LBE4191:
.LBE4193:
	.loc 2 1745 0
	mr 3,30
	addi 4,1,100
	bl _ZN8idEntity7SetAxisERK6idMat3
.LVL1186:
	.loc 2 1746 0
	mr 3,30
	mr 4,31
	mr 5,28
	li 6,1
	bl _ZN8idEntity11BindToJointEPS_13jointHandle_tb
.LEHE41:
	.loc 2 1747 0
	lbz 0,160(31)
.LBB4194:
.LBB4195:
.LBB4196:
	.loc 9 501 0
	mr 3,27
.LBE4196:
.LBE4195:
.LBE4194:
	.loc 2 1747 0
	stb 0,160(30)
.LVL1187:
.LEHB42:
.LBB4199:
.LBB4198:
.LBB4197:
	.loc 9 501 0
	bl _ZN5idStr8FreeDataEv
.LEHE42:
.LBE4197:
.LBE4198:
.LBE4199:
.LBE4209:
	.loc 2 1748 0
	lwz 0,284(1)
	lwz 12,220(1)
	mtlr 0
	lwz 24,224(1)
	lwz 25,228(1)
	mtcrf 8,12
	lwz 26,232(1)
	lwz 27,236(1)
	lwz 28,240(1)
.LVL1188:
	lwz 29,244(1)
	lwz 30,248(1)
.LVL1189:
	lwz 31,252(1)
.LVL1190:
	lfd 29,256(1)
	lfd 30,264(1)
	lfd 31,272(1)
	addi 1,1,280
	.cfi_remember_state
.LCFI273:
	.cfi_def_cfa_offset 0
	.cfi_restore 70
	.cfi_restore 63
	.cfi_restore 62
	.cfi_restore 61
	.cfi_restore 31
	.cfi_restore 30
	.cfi_restore 29
	.cfi_restore 28
	.cfi_restore 27
	.cfi_restore 26
	.cfi_restore 25
	.cfi_restore 24
	blr
.LVL1191:
.L706:
.LCFI274:
	.cfi_restore_state
.LBB4210:
	.loc 2 1732 0
	mr 3,30
.LVL1192:
	lwz 24,4(27)
.LEHB43:
	bl _ZNK7idClass12GetClassnameEv
	mr 6,3
	lis 4,.LC118@ha
	lis 3,gameLocal@ha
	lwz 7,72(31)
	la 3,gameLocal@l(3)
	la 4,.LC118@l(4)
	mr 5,24
	crxor 6,6,6
	bl _ZNK11idGameLocal5ErrorEPKcz
	b .L688
.LVL1193:
.L705:
	lwz 26,3936(31)
.L670:
.LVL1194:
.LBB4200:
.LBB4125:
.LBB4106:
.LBB4104:
	.loc 17 375 0
	add 26,9,26
.LVL1195:
	cmpwi 4,26,0
	ble- 4,.L708
	.loc 17 380 0
	cmpw 7,26,9
	beq- 7,.L704
.LVL1196:
	.loc 17 386 0
	stw 26,3932(31)
	.loc 17 387 0
	bge- 7,.L681
	.loc 17 388 0
	stw 26,3928(31)
.L681:
	.loc 17 392 0
	slwi 3,26,3
	addi 27,1,68
	bl _Znaj
	beq- 4,.L682
.LBB4096:
.LBB4097:
.LBB4098:
	.loc 5 590 0
	mtctr 26
.LBE4098:
.LBE4097:
.LBE4096:
	.loc 17 392 0
	li 9,0
.LBB4101:
.LBB4100:
.LBB4099:
	.loc 5 590 0
	li 11,0
.L683:
	.loc 2 1720 0
	slwi 0,9,3
	.loc 5 590 0
	addi 9,9,1
	stwx 11,3,0
.LBE4099:
.LBE4100:
.LBE4101:
	.loc 17 392 0
	bdnz .L683
.LVL1197:
.L682:
	.loc 17 393 0
	lwz 0,3928(31)
	.loc 17 392 0
	stw 3,3940(31)
.LVL1198:
	.loc 17 393 0
	cmpwi 7,0,0
	ble- 7,.L684
	.loc 2 1720 0
	addi 8,29,-8
	.loc 17 393 0
	li 9,0
	b .L685
.LVL1199:
.L709:
	lwz 3,3940(31)
.LVL1200:
.L685:
	.loc 17 394 0
	addi 8,8,8
	slwi 0,9,3
	lwz 10,0(8)
	add 3,3,0
	lwz 11,4(8)
	.loc 17 393 0
	addi 9,9,1
.LVL1201:
	.loc 17 394 0
	stw 10,0(3)
	stw 11,4(3)
	.loc 17 393 0
	lwz 0,0(28)
	cmpw 7,9,0
	blt+ 7,.L709
.LVL1202:
.L684:
	.loc 17 398 0
	cmpwi 7,29,0
	beq- 7,.L710
	.loc 17 399 0
	mr 3,29
	bl _ZdaPv
	lwz 9,3928(31)
	lwz 29,3940(31)
.LVL1203:
	b .L704
.LVL1204:
.L707:
.LBE4104:
.LBE4106:
.LBE4125:
.LBE4200:
.LBB4201:
.LBB4161:
	.loc 5 606 0
	stw 30,0(29)
	b .L690
.LVL1205:
.L696:
.LBE4161:
.LBE4201:
.LBB4202:
.LBB4136:
	.loc 15 245 0
	lis 4,.LC3@ha
	la 4,.LC3@l(4)
	b .L687
.LVL1206:
.L667:
.LBE4136:
.LBE4202:
.LBB4203:
.LBB4126:
	.loc 17 634 0
	lwz 26,3936(3)
.LBB4107:
.LBB4108:
	.loc 17 375 0
	cmpwi 4,26,0
.LBE4108:
.LBE4107:
	.loc 17 634 0
	mr 0,26
.LVL1207:
.LBB4119:
.LBB4117:
	.loc 17 375 0
	ble- 4,.L711
	.loc 17 380 0
	lwz 9,3932(3)
	cmpw 7,26,9
	beq- 7,.L712
.LVL1208:
	.loc 17 387 0
	lwz 0,3928(3)
	.loc 17 386 0
	stw 26,3932(3)
	.loc 17 387 0
	cmpw 7,26,0
	blt- 7,.L713
.L672:
	.loc 17 392 0
	slwi 3,26,3
	addi 27,1,68
	bl _Znaj
.LEHE43:
.LVL1209:
	mr 29,3
	beq- 4,.L673
.LBB4109:
.LBB4110:
.LBB4111:
	.loc 5 590 0
	mtctr 26
.LBE4111:
.LBE4110:
.LBE4109:
	.loc 17 392 0
	li 9,0
.LBB4114:
.LBB4113:
.LBB4112:
	.loc 5 590 0
	li 11,0
.L674:
	.loc 2 1720 0
	slwi 0,9,3
	.loc 5 590 0
	addi 9,9,1
	stwx 11,29,0
.LBE4112:
.LBE4113:
.LBE4114:
	.loc 17 392 0
	bdnz .L674
.LVL1210:
.L673:
	.loc 17 393 0
	lwz 9,3928(31)
	li 8,0
	.loc 17 392 0
	stw 29,3940(31)
.LVL1211:
	.loc 17 393 0
	li 7,0
	cmpwi 7,9,0
	bgt+ 7,.L702
	lwz 0,3932(31)
	b .L668
.LVL1212:
.L714:
	lwz 29,3940(31)
.LVL1213:
.L702:
	.loc 17 394 0
	lwz 10,0(8)
	add 29,29,8
	lwz 11,4(8)
	.loc 17 393 0
	addi 7,7,1
.LVL1214:
	.loc 17 394 0
	stw 10,0(29)
	.loc 17 393 0
	addi 8,8,8
	.loc 17 394 0
	stw 11,4(29)
	.loc 17 393 0
	lwz 9,0(28)
	cmpw 7,7,9
	blt+ 7,.L714
	lwz 0,3932(31)
	lwz 29,3940(31)
	b .L668
.LVL1215:
.L713:
	.loc 17 388 0
	stw 26,3928(3)
	b .L672
.LVL1216:
.L708:
.LBE4117:
.LBE4119:
.LBB4120:
.LBB4105:
.LBB4102:
.LBB4103:
	.loc 17 193 0
	cmpwi 7,29,0
	beq- 7,.L679
	.loc 17 194 0
	mr 3,29
	bl _ZdaPv
.L679:
	.loc 17 197 0
	li 0,0
	.loc 17 199 0
	li 9,1
	.loc 17 197 0
	stw 0,3940(31)
	.loc 17 199 0
	li 29,0
	stw 0,3932(31)
	b .L677
.LVL1217:
.L710:
.LBE4103:
.LBE4102:
	.loc 17 398 0
	lwz 9,3928(31)
	lwz 29,3940(31)
.LVL1218:
	slwi 0,9,3
	addi 9,9,1
	add 29,29,0
	b .L677
.LVL1219:
.L712:
.LBE4105:
.LBE4120:
.LBB4121:
.LBB4118:
	.loc 17 380 0
	lwz 9,3928(3)
	b .L668
.L711:
.LVL1220:
.LBB4115:
.LBB4116:
	.loc 17 198 0
	stw 29,3928(3)
	.loc 17 199 0
	li 9,0
	stw 29,3932(3)
	b .L670
.LVL1221:
.L697:
	mr 31,3
.LVL1222:
.LBE4116:
.LBE4115:
.LBE4118:
.LBE4121:
.LBE4126:
.LBE4203:
.LBB4204:
.LBB4205:
.LBB4206:
	.loc 9 501 0
	mr 3,27
	bl _ZN5idStr8FreeDataEv
	mr 3,31
.LEHB44:
	bl _Unwind_Resume
.LEHE44:
.LBE4206:
.LBE4205:
.LBE4204:
.LBE4210:
	.cfi_endproc
.LFE2889:
	.section	.gcc_except_table
.LLSDA2889:
	.byte	0xff
	.byte	0xff
	.byte	0x1
	.uleb128 .LLSDACSE2889-.LLSDACSB2889
.LLSDACSB2889:
	.uleb128 .LEHB41-.LFB2889
	.uleb128 .LEHE41-.LEHB41
	.uleb128 .L697-.LFB2889
	.uleb128 0
	.uleb128 .LEHB42-.LFB2889
	.uleb128 .LEHE42-.LEHB42
	.uleb128 0
	.uleb128 0
	.uleb128 .LEHB43-.LFB2889
	.uleb128 .LEHE43-.LEHB43
	.uleb128 .L697-.LFB2889
	.uleb128 0
	.uleb128 .LEHB44-.LFB2889
	.uleb128 .LEHE44-.LEHB44
	.uleb128 0
	.uleb128 0
.LLSDACSE2889:
	.section	".text"
	.size	_ZN7idActor6AttachEP8idEntity, .-_ZN7idActor6AttachEP8idEntity
	.align 2
	.globl _ZNK7idActor18GetDeltaViewAnglesEv
	.type	_ZNK7idActor18GetDeltaViewAnglesEv, @function
_ZNK7idActor18GetDeltaViewAnglesEv:
.LFB2891:
	.loc 2 1774 0
	.cfi_startproc
.LVL1223:
	.loc 2 1776 0
	addi 3,3,2364
.LVL1224:
	blr
	.cfi_endproc
.LFE2891:
	.size	_ZNK7idActor18GetDeltaViewAnglesEv, .-_ZNK7idActor18GetDeltaViewAnglesEv
	.align 2
	.globl _ZN7idActor18SetDeltaViewAnglesERK8idAngles
	.type	_ZN7idActor18SetDeltaViewAnglesERK8idAngles, @function
_ZN7idActor18SetDeltaViewAnglesERK8idAngles:
.LFB2892:
	.loc 2 1783 0
	.cfi_startproc
.LVL1225:
.LBB4211:
.LBB4212:
	.loc 20 146 0
	lwz 0,0(4)
.LVL1226:
.LBE4212:
.LBE4211:
	.loc 2 1785 0
.LBB4214:
.LBB4213:
	.loc 20 146 0
	stw 0,2364(3)
	.loc 20 147 0
	lwz 0,4(4)
	stw 0,2368(3)
	.loc 20 148 0
	lwz 0,8(4)
	stw 0,2372(3)
.LBE4213:
.LBE4214:
	.loc 2 1785 0
	blr
	.cfi_endproc
.LFE2892:
	.size	_ZN7idActor18SetDeltaViewAnglesERK8idAngles, .-_ZN7idActor18SetDeltaViewAnglesERK8idAngles
	.align 2
	.globl _ZNK7idActor10HasEnemiesEv
	.type	_ZNK7idActor10HasEnemiesEv, @function
_ZNK7idActor10HasEnemiesEv:
.LFB2893:
	.loc 2 1792 0
	.cfi_startproc
.LVL1227:
.LBB4215:
.LBB4216:
.LBB4217:
	.loc 2 3283 0
	lwz 11,2324(3)
.LBE4217:
.LBE4216:
.LBB4221:
.LBB4222:
	.loc 7 269 0
	li 9,0
.LBE4222:
.LBE4221:
.LBB4224:
.LBB4218:
	.loc 2 3283 0
	lwz 0,2320(3)
.LBE4218:
.LBE4224:
.LBB4225:
.LBB4223:
	.loc 7 268 0
	cmpwi 7,11,0
	beq- 7,.L727
	cmpw 7,0,11
	beq- 7,.L727
.L728:
.LBE4223:
.LBE4225:
.LBB4226:
.LBB4219:
	.loc 7 271 0
	lwz 9,12(11)
.L727:
.LVL1228:
.LBE4219:
.LBE4226:
	.loc 2 1795 0 discriminator 1
	cmpwi 7,9,0
	beq- 7,.L725
	.loc 2 1796 0
	lwz 0,192(9)
	andis. 11,0,4096
	beq- 0,.L726
	.loc 2 3283 0
	lwz 11,2308(9)
	lwz 0,2304(9)
.LBB4227:
.LBB4220:
	.loc 7 268 0
	cmpwi 7,11,0
	cmpw 6,0,11
	beq- 7,.L725
	bne+ 6,.L728
.L725:
.LBE4220:
.LBE4227:
	.loc 2 1801 0
	li 3,0
.LVL1229:
	blr
.LVL1230:
.L726:
	.loc 2 1797 0
	li 3,1
.LVL1231:
.LBE4215:
	.loc 2 1802 0
	blr
	.cfi_endproc
.LFE2893:
	.size	_ZNK7idActor10HasEnemiesEv, .-_ZNK7idActor10HasEnemiesEv
	.align 2
	.globl _ZN7idActor16Event_HasEnemiesEv
	.type	_ZN7idActor16Event_HasEnemiesEv, @function
_ZN7idActor16Event_HasEnemiesEv:
.LFB2946:
	.loc 2 3175 0
	.cfi_startproc
.LVL1232:
	mflr 0
	stwu 1,-8(1)
.LCFI275:
	.cfi_def_cfa_offset 8
	.cfi_register 65, 0
	stw 0,12(1)
.LBB4228:
	.loc 2 3178 0
	.cfi_offset 65, 4
	bl _ZNK7idActor10HasEnemiesEv
.LVL1233:
	.loc 2 3179 0
	bl _ZN8idThread9ReturnIntEi
.LVL1234:
.LBE4228:
	.loc 2 3180 0
	lwz 0,12(1)
	addi 1,1,8
.LCFI276:
	.cfi_def_cfa_offset 0
	mtlr 0
	blr
	.cfi_endproc
.LFE2946:
	.size	_ZN7idActor16Event_HasEnemiesEv, .-_ZN7idActor16Event_HasEnemiesEv
	.align 2
	.globl _ZN7idActor19ClosestEnemyToPointERK6idVec3
	.type	_ZN7idActor19ClosestEnemyToPointERK6idVec3, @function
_ZN7idActor19ClosestEnemyToPointERK6idVec3:
.LFB2894:
	.loc 2 1809 0
	.cfi_startproc
.LVL1235:
	mflr 0
	stwu 1,-32(1)
.LCFI277:
	.cfi_def_cfa_offset 32
	.cfi_register 65, 0
.LBB4229:
	.loc 2 1816 0
	lis 11,_ZN6idMath8INFINITYE@ha
.LBE4229:
	.loc 2 1809 0
	stfd 31,24(1)
	stw 29,12(1)
.LBB4246:
.LBB4230:
.LBB4231:
	.loc 7 268 0
	li 29,0
	.cfi_offset 29, -20
	.cfi_offset 63, -8
.LBE4231:
.LBE4230:
.LBE4246:
	.loc 2 1809 0
	stw 30,16(1)
	mr 30,4
	.cfi_offset 30, -16
	stw 0,36(1)
	stw 31,20(1)
.LBB4247:
	.loc 2 1816 0
	lfs 31,_ZN6idMath8INFINITYE@l(11)
.LVL1236:
	.loc 2 3283 0
	lwz 9,2324(3)
	lwz 0,2320(3)
	.cfi_offset 31, -12
	.cfi_offset 65, 4
.LBB4234:
.LBB4232:
	.loc 7 268 0
	cmpwi 7,9,0
	beq- 7,.L731
	cmpw 7,0,9
	bne+ 7,.L739
	b .L731
.LVL1237:
.L732:
.LBE4232:
.LBE4234:
	.loc 2 3283 0
	lwz 9,2308(31)
	lwz 0,2304(31)
.LBB4235:
.LBB4236:
	.loc 7 268 0
	cmpwi 7,9,0
	cmpw 6,0,9
	beq- 7,.L731
.L740:
	beq- 6,.L731
.LVL1238:
.L739:
.LBE4236:
.LBE4235:
.LBB4238:
.LBB4233:
	.loc 7 271 0
	lwz 31,12(9)
.LVL1239:
.LBE4233:
.LBE4238:
	.loc 2 1818 0
	cmpwi 7,31,0
	beq- 7,.L731
	.loc 2 1819 0
	lwz 0,192(31)
	andis. 9,0,4096
.LVL1240:
	bne+ 0,.L732
	.loc 2 1822 0
	mr 3,31
	bl _ZNK8idEntity10GetPhysicsEv
	li 4,0
	lwz 9,0(3)
	lwz 0,132(9)
	mtctr 0
	bctrl
.LVL1241:
.LBB4239:
.LBB4240:
	.loc 11 431 0
	lfs 0,4(30)
	lfs 12,4(3)
	lfs 11,0(3)
	fsubs 12,12,0
	lfs 13,0(30)
	lfs 0,8(3)
	fsubs 13,11,13
	lfs 11,8(30)
.LBE4240:
.LBE4239:
.LBB4242:
.LBB4243:
	.loc 11 636 0
	fmuls 12,12,12
.LBE4243:
.LBE4242:
.LBB4244:
.LBB4241:
	.loc 11 431 0
	fsubs 0,0,11
.LVL1242:
	.loc 11 636 0
	fmadds 13,13,13,12
.LVL1243:
	fmadds 0,0,0,13
.LVL1244:
.LBE4241:
.LBE4244:
	.loc 2 1824 0
	fcmpu 7,31,0
	bng- 7,.L732
	.loc 2 3283 0
	lwz 9,2308(31)
	.loc 2 1824 0
	mr 29,31
	.loc 2 3283 0
	lwz 0,2304(31)
	.loc 2 1826 0
	fmr 31,0
.LVL1245:
.LBB4245:
.LBB4237:
	.loc 7 268 0
	cmpwi 7,9,0
	cmpw 6,0,9
	bne+ 7,.L740
.LVL1246:
.L731:
.LBE4237:
.LBE4245:
.LBE4247:
	.loc 2 1831 0
	lwz 0,36(1)
	mr 3,29
	lwz 30,16(1)
.LVL1247:
	mtlr 0
	lwz 29,12(1)
	lwz 31,20(1)
	lfd 31,24(1)
.LVL1248:
	addi 1,1,32
.LCFI278:
	.cfi_def_cfa_offset 0
	.cfi_restore 63
	.cfi_restore 31
	.cfi_restore 30
	.cfi_restore 29
	blr
	.cfi_endproc
.LFE2894:
	.size	_ZN7idActor19ClosestEnemyToPointERK6idVec3, .-_ZN7idActor19ClosestEnemyToPointERK6idVec3
	.align 2
	.globl _ZN7idActor25Event_ClosestEnemyToPointERK6idVec3
	.type	_ZN7idActor25Event_ClosestEnemyToPointERK6idVec3, @function
_ZN7idActor25Event_ClosestEnemyToPointERK6idVec3:
.LFB2948:
	.loc 2 3218 0
	.cfi_startproc
.LVL1249:
	mflr 0
	stwu 1,-8(1)
.LCFI279:
	.cfi_def_cfa_offset 8
	.cfi_register 65, 0
	stw 0,12(1)
.LBB4248:
	.loc 2 3219 0
	.cfi_offset 65, 4
	bl _ZN7idActor19ClosestEnemyToPointERK6idVec3
.LVL1250:
	.loc 2 3220 0
	bl _ZN8idThread12ReturnEntityEP8idEntity
.LBE4248:
	.loc 2 3221 0
	lwz 0,12(1)
	addi 1,1,8
.LCFI280:
	.cfi_def_cfa_offset 0
	mtlr 0
	blr
	.cfi_endproc
.LFE2948:
	.size	_ZN7idActor25Event_ClosestEnemyToPointERK6idVec3, .-_ZN7idActor25Event_ClosestEnemyToPointERK6idVec3
	.align 2
	.globl _ZN7idActor19EnemyWithMostHealthEv
	.type	_ZN7idActor19EnemyWithMostHealthEv, @function
_ZN7idActor19EnemyWithMostHealthEv:
.LFB2895:
	.loc 2 1838 0
	.cfi_startproc
.LVL1251:
.LBB4249:
.LBB4250:
.LBB4251:
	.loc 2 3283 0
	lwz 9,2324(3)
	lwz 0,2320(3)
	.loc 7 268 0
	li 3,0
.LVL1252:
	cmpwi 7,9,0
	beqlr- 7
	cmpw 7,0,9
	beqlr- 7
	.loc 7 271 0
	lwz 9,12(9)
.LVL1253:
.LBE4251:
.LBE4250:
	.loc 2 1844 0
	cmpwi 7,9,0
	beqlr- 7
	li 10,-9999
.LVL1254:
.L745:
	.loc 2 1845 0
	lwz 0,192(9)
	andis. 11,0,4096
	bne- 0,.L744
	.loc 2 1845 0 is_stmt 0 discriminator 1
	lwz 0,188(9)
	cmpw 7,0,10
	ble- 7,.L744
	.loc 2 1845 0
	mr 3,9
	mr 10,0
.L744:
.LVL1255:
	.loc 2 3283 0 is_stmt 1
	lwz 11,2308(9)
	lwz 0,2304(9)
.LBB4252:
.LBB4253:
	.loc 7 268 0
	cmpwi 7,11,0
	cmpw 6,0,11
	beqlr- 7
	beqlr- 6
	.loc 7 271 0
	lwz 9,12(11)
.LVL1256:
.LBE4253:
.LBE4252:
	.loc 2 1844 0
	cmpwi 7,9,0
	bne+ 7,.L745
.LBE4249:
	.loc 2 1851 0
	blr
	.cfi_endproc
.LFE2895:
	.size	_ZN7idActor19EnemyWithMostHealthEv, .-_ZN7idActor19EnemyWithMostHealthEv
	.align 2
	.globl _ZN7idActor12SetAnimStateEiPKci
	.type	_ZN7idActor12SetAnimStateEiPKci, @function
_ZN7idActor12SetAnimStateEiPKci:
.LFB2898:
	.loc 2 1899 0
	.cfi_startproc
.LVL1257:
	stwu 1,-32(1)
.LCFI281:
	.cfi_def_cfa_offset 32
	mflr 0
	stw 27,12(1)
.LBB4254:
	.loc 2 1902 0
	addi 27,3,144
	.cfi_offset 27, -20
	.cfi_register 65, 0
.LBE4254:
	.loc 2 1899 0
	stw 30,24(1)
	mr 30,4
	.cfi_offset 30, -8
	stw 31,28(1)
.LBB4255:
	.loc 2 1902 0
	mr 4,5
.LVL1258:
.LBE4255:
	.loc 2 1899 0
	mr 31,3
	.cfi_offset 31, -4
.LBB4256:
	.loc 2 1902 0
	mr 3,27
.LVL1259:
.LBE4256:
	.loc 2 1899 0
	stw 28,16(1)
	mr 28,6
	.cfi_offset 28, -16
	stw 29,20(1)
	mr 29,5
	.cfi_offset 29, -12
	stw 0,36(1)
.LBB4257:
	.loc 2 1902 0
	.cfi_offset 65, 4
	bl _ZNK14idScriptObject11GetFunctionEPKc
.LVL1260:
	.loc 2 1903 0
	cmpwi 7,3,0
	beq- 7,.L758
.LVL1261:
.L751:
	.loc 2 1908 0
	cmpwi 7,30,2
	beq- 7,.L754
	cmpwi 7,30,3
	beq- 7,.L755
	cmpwi 7,30,1
	beq- 7,.L759
	.loc 2 1929 0
	lis 3,gameLocal@ha
	lis 4,.LC121@ha
	la 3,gameLocal@l(3)
	la 4,.LC121@l(4)
	crxor 6,6,6
	bl _ZNK11idGameLocal5ErrorEPKcz
.LBE4257:
	.loc 2 1932 0
	lwz 0,36(1)
	lwz 27,12(1)
	mtlr 0
	lwz 28,16(1)
.LVL1262:
	lwz 29,20(1)
.LVL1263:
	lwz 30,24(1)
.LVL1264:
	lwz 31,28(1)
.LVL1265:
	addi 1,1,32
	.cfi_remember_state
.LCFI282:
	.cfi_def_cfa_offset 0
	.cfi_restore 31
	.cfi_restore 30
	.cfi_restore 29
	.cfi_restore 28
	.cfi_restore 27
	blr
.LVL1266:
.L759:
.LCFI283:
	.cfi_restore_state
.LBB4258:
	.loc 2 1915 0
	addi 3,31,3792
	mr 4,29
	mr 5,28
	bl _ZN11idAnimState8SetStateEPKci
	.loc 2 1916 0
	addi 3,31,3856
	mr 4,28
	bl _ZN11idAnimState6EnableEi
	.loc 2 1917 0
	stb 30,3920(31)
	.loc 2 1918 0
	stb 30,3921(31)
.LBE4258:
	.loc 2 1932 0
	lwz 0,36(1)
	lwz 27,12(1)
	mtlr 0
	lwz 28,16(1)
.LVL1267:
	lwz 29,20(1)
.LVL1268:
	lwz 30,24(1)
.LVL1269:
	lwz 31,28(1)
.LVL1270:
	addi 1,1,32
	.cfi_remember_state
	.cfi_restore 27
	.cfi_restore 28
	.cfi_restore 29
	.cfi_restore 30
	.cfi_restore 31
.LCFI284:
	.cfi_def_cfa_offset 0
	blr
.LVL1271:
.L755:
.LCFI285:
	.cfi_restore_state
.LBB4259:
	.loc 2 1910 0
	addi 3,31,3728
	mr 4,29
	mr 5,28
	bl _ZN11idAnimState8SetStateEPKci
	.loc 2 1911 0
	li 0,1
	stb 0,3921(31)
.LBE4259:
	.loc 2 1932 0
	lwz 0,36(1)
	lwz 27,12(1)
	mtlr 0
	lwz 28,16(1)
.LVL1272:
	lwz 29,20(1)
.LVL1273:
	lwz 30,24(1)
.LVL1274:
	lwz 31,28(1)
.LVL1275:
	addi 1,1,32
	.cfi_remember_state
	.cfi_restore 27
	.cfi_restore 28
	.cfi_restore 29
	.cfi_restore 30
	.cfi_restore 31
.LCFI286:
	.cfi_def_cfa_offset 0
	blr
.LVL1276:
.L754:
.LCFI287:
	.cfi_restore_state
.LBB4260:
	.loc 2 1922 0
	addi 3,31,3856
	mr 4,29
	mr 5,28
	bl _ZN11idAnimState8SetStateEPKci
	.loc 2 1923 0
	addi 3,31,3792
	mr 4,28
	bl _ZN11idAnimState6EnableEi
	.loc 2 1924 0
	li 0,1
	stb 0,3920(31)
	.loc 2 1925 0
	stb 0,3921(31)
.LBE4260:
	.loc 2 1932 0
	lwz 0,36(1)
	lwz 27,12(1)
	mtlr 0
	lwz 28,16(1)
.LVL1277:
	lwz 29,20(1)
.LVL1278:
	lwz 30,24(1)
.LVL1279:
	lwz 31,28(1)
.LVL1280:
	addi 1,1,32
	.cfi_remember_state
	.cfi_restore 27
	.cfi_restore 28
	.cfi_restore 29
	.cfi_restore 30
	.cfi_restore 31
.LCFI288:
	.cfi_def_cfa_offset 0
	blr
.LVL1281:
.L758:
.LCFI289:
	.cfi_restore_state
.LBB4261:
	.loc 2 1905 0
	mr 3,27
.LVL1282:
	bl _ZNK14idScriptObject11GetTypeNameEv
	lis 4,.LC82@ha
	mr 6,3
	lis 3,gameLocal@ha
	la 3,gameLocal@l(3)
	la 4,.LC82@l(4)
	mr 5,29
	crxor 6,6,6
	bl _ZNK11idGameLocal5ErrorEPKcz
	b .L751
.LBE4261:
	.cfi_endproc
.LFE2898:
	.size	_ZN7idActor12SetAnimStateEiPKci, .-_ZN7idActor12SetAnimStateEiPKci
	.align 2
	.globl _ZN7idActor15Event_AnimStateEiPKci
	.type	_ZN7idActor15Event_AnimStateEiPKci, @function
_ZN7idActor15Event_AnimStateEiPKci:
.LFB2936:
	.loc 2 3002 0
	.cfi_startproc
.LVL1283:
	.loc 2 3004 0
	.loc 2 3003 0
	b _ZN7idActor12SetAnimStateEiPKci
.LVL1284:
.LVL1285:
.LVL1286:
.LVL1287:
	.cfi_endproc
.LFE2936:
	.size	_ZN7idActor15Event_AnimStateEiPKci, .-_ZN7idActor15Event_AnimStateEiPKci
	.align 2
	.globl _ZNK7idActor12GetAnimStateEi
	.type	_ZNK7idActor12GetAnimStateEi, @function
_ZNK7idActor12GetAnimStateEi:
.LFB2899:
	.loc 2 1939 0
	.cfi_startproc
.LVL1288:
	.loc 2 1940 0
	cmpwi 7,4,2
	.loc 2 1939 0
	mflr 0
	stwu 1,-8(1)
.LCFI290:
	.cfi_def_cfa_offset 8
	.cfi_register 65, 0
	stw 0,12(1)
	.loc 2 1940 0
	beq- 7,.L764
	.cfi_offset 65, 4
	cmpwi 7,4,3
	beq- 7,.L765
	cmpwi 7,4,1
	beq- 7,.L768
	.loc 2 1954 0
	lis 3,gameLocal@ha
.LVL1289:
	lis 4,.LC122@ha
.LVL1290:
	la 3,gameLocal@l(3)
	la 4,.LC122@l(4)
	crxor 6,6,6
	bl _ZNK11idGameLocal5ErrorEPKcz
	.loc 2 1958 0
	lwz 0,12(1)
	.loc 2 1955 0
	li 3,0
	.loc 2 1958 0
	mtlr 0
	addi 1,1,8
	.cfi_remember_state
.LCFI291:
	.cfi_def_cfa_offset 0
	blr
.LVL1291:
.L768:
.LCFI292:
	.cfi_restore_state
	lwz 0,12(1)
.LBB4262:
	.loc 2 3283 0
	lwz 3,3800(3)
.LVL1292:
.LBE4262:
	.loc 2 1958 0
	mtlr 0
	addi 1,1,8
	.cfi_remember_state
.LCFI293:
	.cfi_def_cfa_offset 0
	blr
.LVL1293:
.L765:
.LCFI294:
	.cfi_restore_state
	lwz 0,12(1)
.LBB4263:
	.loc 2 3283 0
	lwz 3,3736(3)
.LVL1294:
.LBE4263:
	.loc 2 1958 0
	mtlr 0
	addi 1,1,8
	.cfi_remember_state
.LCFI295:
	.cfi_def_cfa_offset 0
	blr
.LVL1295:
.L764:
.LCFI296:
	.cfi_restore_state
	lwz 0,12(1)
.LBB4264:
	.loc 2 3283 0
	lwz 3,3864(3)
.LVL1296:
.LBE4264:
	.loc 2 1958 0
	mtlr 0
	addi 1,1,8
.LCFI297:
	.cfi_def_cfa_offset 0
	blr
	.cfi_endproc
.LFE2899:
	.size	_ZNK7idActor12GetAnimStateEi, .-_ZNK7idActor12GetAnimStateEi
	.align 2
	.globl _ZN7idActor18Event_GetAnimStateEi
	.type	_ZN7idActor18Event_GetAnimStateEi, @function
_ZN7idActor18Event_GetAnimStateEi:
.LFB2937:
	.loc 2 3011 0
	.cfi_startproc
.LVL1297:
	mflr 0
	stwu 1,-8(1)
.LCFI298:
	.cfi_def_cfa_offset 8
	.cfi_register 65, 0
	stw 0,12(1)
.LBB4265:
	.loc 2 3014 0
	.cfi_offset 65, 4
	bl _ZNK7idActor12GetAnimStateEi
.LVL1298:
	.loc 2 3015 0
	bl _ZN8idThread12ReturnStringEPKc
.LBE4265:
	.loc 2 3016 0
	lwz 0,12(1)
	addi 1,1,8
.LCFI299:
	.cfi_def_cfa_offset 0
	mtlr 0
	blr
	.cfi_endproc
.LFE2937:
	.size	_ZN7idActor18Event_GetAnimStateEi, .-_ZN7idActor18Event_GetAnimStateEi
	.align 2
	.globl _ZNK7idActor11InAnimStateEiPKc
	.type	_ZNK7idActor11InAnimStateEiPKc, @function
_ZNK7idActor11InAnimStateEiPKc:
.LFB2900:
	.loc 2 1965 0
	.cfi_startproc
.LVL1299:
	.loc 2 1966 0
	cmpwi 7,4,2
	.loc 2 1965 0
	mflr 0
	stwu 1,-8(1)
.LCFI300:
	.cfi_def_cfa_offset 8
	.cfi_register 65, 0
	stw 0,12(1)
	.loc 2 1966 0
	beq- 7,.L773
	.cfi_offset 65, 4
	cmpwi 7,4,3
	beq- 7,.L774
	cmpwi 7,4,1
	beq- 7,.L777
	.loc 2 1986 0
	lis 3,gameLocal@ha
.LVL1300:
	lis 4,.LC123@ha
.LVL1301:
	la 3,gameLocal@l(3)
	la 4,.LC123@l(4)
	crxor 6,6,6
	bl _ZNK11idGameLocal5ErrorEPKcz
.LVL1302:
	.loc 2 1991 0
	lwz 0,12(1)
	.loc 2 1990 0
	li 3,0
	.loc 2 1991 0
	mtlr 0
	addi 1,1,8
	.cfi_remember_state
.LCFI301:
	.cfi_def_cfa_offset 0
	blr
.LVL1303:
.L777:
.LCFI302:
	.cfi_restore_state
.LBB4266:
.LBB4267:
	.loc 9 653 0
	lwz 3,3800(3)
.LVL1304:
	mr 4,5
.LVL1305:
	bl _ZN5idStr3CmpEPKcS1_
.LVL1306:
.LBE4267:
.LBE4266:
	.loc 2 1991 0
	lwz 0,12(1)
.LBB4270:
.LBB4268:
	.loc 2 1965 0
	cntlzw 3,3
.LBE4268:
.LBE4270:
	.loc 2 1991 0
	mtlr 0
.LBB4271:
.LBB4269:
	.loc 2 1965 0
	srwi 3,3,5
.LBE4269:
.LBE4271:
	.loc 2 1991 0
	addi 1,1,8
	.cfi_remember_state
.LCFI303:
	.cfi_def_cfa_offset 0
	blr
.LVL1307:
.L774:
.LCFI304:
	.cfi_restore_state
.LBB4272:
.LBB4273:
	.loc 9 653 0
	lwz 3,3736(3)
.LVL1308:
	mr 4,5
.LVL1309:
	bl _ZN5idStr3CmpEPKcS1_
.LVL1310:
.LBE4273:
.LBE4272:
	.loc 2 1991 0
	lwz 0,12(1)
.LBB4276:
.LBB4274:
	.loc 2 1965 0
	cntlzw 3,3
.LBE4274:
.LBE4276:
	.loc 2 1991 0
	mtlr 0
.LBB4277:
.LBB4275:
	.loc 2 1965 0
	srwi 3,3,5
.LBE4275:
.LBE4277:
	.loc 2 1991 0
	addi 1,1,8
	.cfi_remember_state
.LCFI305:
	.cfi_def_cfa_offset 0
	blr
.LVL1311:
.L773:
.LCFI306:
	.cfi_restore_state
.LBB4278:
.LBB4279:
	.loc 9 653 0
	lwz 3,3864(3)
.LVL1312:
	mr 4,5
.LVL1313:
	bl _ZN5idStr3CmpEPKcS1_
.LVL1314:
.LBE4279:
.LBE4278:
	.loc 2 1991 0
	lwz 0,12(1)
.LBB4282:
.LBB4280:
	.loc 2 1965 0
	cntlzw 3,3
.LBE4280:
.LBE4282:
	.loc 2 1991 0
	mtlr 0
.LBB4283:
.LBB4281:
	.loc 2 1965 0
	srwi 3,3,5
.LBE4281:
.LBE4283:
	.loc 2 1991 0
	addi 1,1,8
.LCFI307:
	.cfi_def_cfa_offset 0
	blr
	.cfi_endproc
.LFE2900:
	.size	_ZNK7idActor11InAnimStateEiPKc, .-_ZNK7idActor11InAnimStateEiPKc
	.align 2
	.globl _ZN7idActor17Event_InAnimStateEiPKc
	.type	_ZN7idActor17Event_InAnimStateEiPKc, @function
_ZN7idActor17Event_InAnimStateEiPKc:
.LFB2938:
	.loc 2 3023 0
	.cfi_startproc
.LVL1315:
	mflr 0
	stwu 1,-8(1)
.LCFI308:
	.cfi_def_cfa_offset 8
	.cfi_register 65, 0
	stw 0,12(1)
.LBB4284:
	.loc 2 3026 0
	.cfi_offset 65, 4
	bl _ZNK7idActor11InAnimStateEiPKc
.LVL1316:
	.loc 2 3027 0
	bl _ZN8idThread9ReturnIntEi
.LVL1317:
.LBE4284:
	.loc 2 3028 0
	lwz 0,12(1)
	addi 1,1,8
.LCFI309:
	.cfi_def_cfa_offset 0
	mtlr 0
	blr
	.cfi_endproc
.LFE2938:
	.size	_ZN7idActor17Event_InAnimStateEiPKc, .-_ZN7idActor17Event_InAnimStateEiPKc
	.align 2
	.globl _ZNK7idActor9WaitStateEv
	.type	_ZNK7idActor9WaitStateEv, @function
_ZNK7idActor9WaitStateEv:
.LFB2901:
	.loc 2 1998 0
	.cfi_startproc
.LVL1318:
	.loc 2 1999 0
	lwz 9,3696(3)
	.loc 2 2002 0
	li 0,0
	.loc 2 1999 0
	cmpwi 7,9,0
	beq- 7,.L780
.LVL1319:
.LBB4285:
	.loc 2 3283 0
	lwz 0,3700(3)
.LVL1320:
.L780:
.LBE4285:
	.loc 2 2004 0
	mr 3,0
.LVL1321:
	blr
	.cfi_endproc
.LFE2901:
	.size	_ZNK7idActor9WaitStateEv, .-_ZNK7idActor9WaitStateEv
	.align 2
	.globl _ZN7idActor12SetWaitStateEPKc
	.type	_ZN7idActor12SetWaitStateEPKc, @function
_ZN7idActor12SetWaitStateEPKc:
.LFB2902:
	.loc 2 2011 0
	.cfi_startproc
.LVL1322:
	mflr 0
	stwu 1,-8(1)
.LCFI310:
	.cfi_def_cfa_offset 8
	.cfi_register 65, 0
	.loc 2 2012 0
	addi 3,3,3696
.LVL1323:
	.loc 2 2011 0
	stw 0,12(1)
	.loc 2 2012 0
	.cfi_offset 65, 4
	bl _ZN5idStraSEPKc
.LVL1324:
	.loc 2 2013 0
	lwz 0,12(1)
	addi 1,1,8
.LCFI311:
	.cfi_def_cfa_offset 0
	mtlr 0
	blr
	.cfi_endproc
.LFE2902:
	.size	_ZN7idActor12SetWaitStateEPKc, .-_ZN7idActor12SetWaitStateEPKc
	.align 2
	.globl _ZN7idActor15UpdateAnimStateEv
	.type	_ZN7idActor15UpdateAnimStateEv, @function
_ZN7idActor15UpdateAnimStateEv:
.LFB2903:
	.loc 2 2020 0
	.cfi_startproc
.LVL1325:
	stwu 1,-16(1)
.LCFI312:
	.cfi_def_cfa_offset 16
	mflr 0
	stw 31,12(1)
	mr 31,3
	.cfi_offset 31, -4
	.cfi_register 65, 0
	.loc 2 2021 0
	addi 3,3,3728
.LVL1326:
	.loc 2 2020 0
	stw 0,20(1)
	.loc 2 2021 0
	.cfi_offset 65, 4
	bl _ZN11idAnimState11UpdateStateEv
	.loc 2 2022 0
	addi 3,31,3792
	bl _ZN11idAnimState11UpdateStateEv
	.loc 2 2024 0
	lwz 0,20(1)
	.loc 2 2023 0
	addi 3,31,3856
	.loc 2 2024 0
	lwz 31,12(1)
.LVL1327:
	mtlr 0
	addi 1,1,16
.LCFI313:
	.cfi_def_cfa_offset 0
	.cfi_restore 31
	.loc 2 2023 0
	b _ZN11idAnimState11UpdateStateEv
.LVL1328:
	.cfi_endproc
.LFE2903:
	.size	_ZN7idActor15UpdateAnimStateEv, .-_ZN7idActor15UpdateAnimStateEv
	.align 2
	.globl _ZN7idActor7GetAnimEiPKc
	.type	_ZN7idActor7GetAnimEiPKc, @function
_ZN7idActor7GetAnimEiPKc:
.LFB2904:
	.loc 2 2031 0
	.cfi_startproc
.LVL1329:
.LBB4286:
	.loc 2 2036 0
	cmpwi 7,4,3
.LBE4286:
	.loc 2 2031 0
	mflr 0
	stwu 1,-24(1)
.LCFI314:
	.cfi_def_cfa_offset 24
	.cfi_register 65, 0
	stw 29,12(1)
	mr 29,3
	.cfi_offset 29, -12
	stw 30,16(1)
	mr 30,5
	.cfi_offset 30, -8
	stw 31,20(1)
.LBB4289:
	.loc 2 2042 0
	addi 31,3,636
	.cfi_offset 31, -4
.LBE4289:
	.loc 2 2031 0
	stw 0,28(1)
.LBB4290:
	.loc 2 2036 0
	beq- 7,.L792
	.cfi_offset 65, 4
.LVL1330:
.L787:
	.loc 2 2045 0
	lwz 0,3612(29)
	cmpwi 7,0,0
	bne- 7,.L793
.L788:
	.loc 2 2053 0
	mr 3,31
	mr 4,30
	bl _ZNK10idAnimator7GetAnimEPKc
.LVL1331:
.L786:
.LBE4290:
	.loc 2 2056 0
	lwz 0,28(1)
	lwz 29,12(1)
.LVL1332:
	mtlr 0
	lwz 30,16(1)
.LVL1333:
	lwz 31,20(1)
