	.file	"AI.cpp"
	.section	".text"
.Ltext0:
	.section	.text._ZN14idFixedWinding5ClearEv,"axG",@progbits,_ZN14idFixedWinding5ClearEv,comdat
	.align 2
	.weak	_ZN14idFixedWinding5ClearEv
	.type	_ZN14idFixedWinding5ClearEv, @function
_ZN14idFixedWinding5ClearEv:
.LFB1502:
	.file 1 "d:/Data/Nintendo/DoomGX/src/game/ai/../../idlib/../idlib/geometry/Winding.h"
	.loc 1 398 0
	.cfi_startproc
.LVL0:
	.loc 1 399 0
	li 0,0
	.loc 1 400 0
	.loc 1 399 0
	stw 0,4(3)
	.loc 1 400 0
	blr
	.cfi_endproc
.LFE1502:
	.size	_ZN14idFixedWinding5ClearEv, .-_ZN14idFixedWinding5ClearEv
	.section	.text._ZN13idAASCallbackD2Ev,"axG",@progbits,_ZN13idAASCallbackD5Ev,comdat
	.align 2
	.weak	_ZN13idAASCallbackD2Ev
	.type	_ZN13idAASCallbackD2Ev, @function
_ZN13idAASCallbackD2Ev:
.LFB2622:
	.file 2 "d:/Data/Nintendo/DoomGX/src/game/ai/../ai/AAS.h"
	.loc 2 69 0
	.cfi_startproc
.LVL1:
.LBB5058:
	.loc 2 69 0
	lis 9,_ZTV13idAASCallback+8@ha
.LBE5058:
.LBB5059:
	la 0,_ZTV13idAASCallback+8@l(9)
	stw 0,0(3)
.LBE5059:
	blr
	.cfi_endproc
.LFE2622:
	.size	_ZN13idAASCallbackD2Ev, .-_ZN13idAASCallbackD2Ev
	.section	.text._ZN23idAASFindAreaOutOfRangeD2Ev,"axG",@progbits,_ZN23idAASFindAreaOutOfRangeD5Ev,comdat
	.align 2
	.weak	_ZN23idAASFindAreaOutOfRangeD2Ev
	.type	_ZN23idAASFindAreaOutOfRangeD2Ev, @function
_ZN23idAASFindAreaOutOfRangeD2Ev:
.LFB2894:
	.file 3 "d:/Data/Nintendo/DoomGX/src/game/ai/../ai/AI.h"
	.loc 3 210 0
	.cfi_startproc
.LVL2:
.LBB5060:
.LBB5061:
.LBB5062:
.LBB5063:
	.loc 2 69 0
	lis 9,_ZTV13idAASCallback+8@ha
.LBE5063:
.LBE5062:
.LBE5061:
.LBE5060:
	.loc 3 210 0
.LBB5067:
.LBB5066:
.LBB5065:
.LBB5064:
	.loc 2 69 0
	la 0,_ZTV13idAASCallback+8@l(9)
	stw 0,0(3)
.LBE5064:
.LBE5065:
.LBE5066:
.LBE5067:
	.loc 3 210 0
	blr
	.cfi_endproc
.LFE2894:
	.size	_ZN23idAASFindAreaOutOfRangeD2Ev, .-_ZN23idAASFindAreaOutOfRangeD2Ev
	.section	".text"
	.align 2
	.globl _ZNK12idCombatNode7GetTypeEv
	.type	_ZNK12idCombatNode7GetTypeEv, @function
_ZNK12idCombatNode7GetTypeEv:
.LFB2976:
	.file 4 "d:/Data/Nintendo/DoomGX/src/game/ai/AI.cpp"
	.loc 4 4928 0
	.cfi_startproc
.LVL3:
	.loc 4 4928 0
	lis 3,.LANCHOR0@ha
.LVL4:
	la 3,.LANCHOR0@l(3)
	blr
	.cfi_endproc
.LFE2976:
	.size	_ZNK12idCombatNode7GetTypeEv, .-_ZNK12idCombatNode7GetTypeEv
	.align 2
	.globl _ZN12idCombatNode14Event_ActivateEP8idEntity
	.type	_ZN12idCombatNode14Event_ActivateEP8idEntity, @function
_ZN12idCombatNode14Event_ActivateEP8idEntity:
.LFB2986:
	.loc 4 5125 0
	.cfi_startproc
.LVL5:
	.loc 4 5126 0
	lbz 0,692(3)
	.loc 4 5127 0
	.loc 4 5126 0
	xori 0,0,1
	stb 0,692(3)
	.loc 4 5127 0
	blr
	.cfi_endproc
.LFE2986:
	.size	_ZN12idCombatNode14Event_ActivateEP8idEntity, .-_ZN12idCombatNode14Event_ActivateEP8idEntity
	.section	.text._ZN9idWinding5ClearEv,"axG",@progbits,_ZN9idWinding5ClearEv,comdat
	.align 2
	.weak	_ZN9idWinding5ClearEv
	.type	_ZN9idWinding5ClearEv, @function
_ZN9idWinding5ClearEv:
.LFB1473:
	.loc 1 249 0
	.cfi_startproc
.LVL6:
	mflr 0
	stwu 1,-16(1)
.LCFI0:
	.cfi_def_cfa_offset 16
	.cfi_register 65, 0
	stw 31,12(1)
	mr 31,3
	.cfi_offset 31, -4
	stw 0,20(1)
	.loc 1 250 0
	li 0,0
	.cfi_offset 65, 4
	.loc 1 251 0
	lwz 3,8(3)
.LVL7:
	.loc 1 250 0
	stw 0,4(31)
	.loc 1 251 0
	cmpwi 7,3,0
	beq- 7,.L10
	.loc 1 251 0 is_stmt 0 discriminator 1
	bl _ZdaPv
.L10:
	.loc 1 252 0 is_stmt 1
	li 0,0
	stw 0,8(31)
	.loc 1 253 0
	lwz 0,20(1)
	lwz 31,12(1)
.LVL8:
	mtlr 0
	addi 1,1,16
.LCFI1:
	.cfi_def_cfa_offset 0
	.cfi_restore 31
	blr
	.cfi_endproc
.LFE1473:
	.size	_ZN9idWinding5ClearEv, .-_ZN9idWinding5ClearEv
	.section	.text._ZN9idWindingD2Ev,"axG",@progbits,_ZN9idWindingD5Ev,comdat
	.align 2
	.weak	_ZN9idWindingD2Ev
	.type	_ZN9idWindingD2Ev, @function
_ZN9idWindingD2Ev:
.LFB1461:
	.loc 1 183 0
	.cfi_startproc
.LVL9:
	mflr 0
	stwu 1,-16(1)
.LCFI2:
	.cfi_def_cfa_offset 16
	.cfi_register 65, 0
.LBB5069:
	lis 9,_ZTV9idWinding+8@ha
.LBE5069:
	stw 31,12(1)
	mr 31,3
	.cfi_offset 31, -4
	stw 0,20(1)
.LBB5070:
	.loc 1 183 0
	la 0,_ZTV9idWinding+8@l(9)
	.cfi_offset 65, 4
	.loc 1 184 0
	lwz 3,8(3)
.LVL10:
	.loc 1 183 0
	stw 0,0(31)
	.loc 1 184 0
	cmpwi 7,3,0
	beq- 7,.L13
	.loc 1 184 0 is_stmt 0 discriminator 1
	bl _ZdaPv
.L13:
	.loc 1 185 0 is_stmt 1
	li 0,0
	stw 0,8(31)
.LBE5070:
	.loc 1 186 0
	lwz 0,20(1)
	lwz 31,12(1)
.LVL11:
	mtlr 0
	addi 1,1,16
.LCFI3:
	.cfi_def_cfa_offset 0
	.cfi_restore 31
	blr
	.cfi_endproc
.LFE1461:
	.size	_ZN9idWindingD2Ev, .-_ZN9idWindingD2Ev
	.section	.text._ZN23idAASFindAreaOutOfRangeD0Ev,"axG",@progbits,_ZN23idAASFindAreaOutOfRangeD5Ev,comdat
	.align 2
	.weak	_ZN23idAASFindAreaOutOfRangeD0Ev
	.type	_ZN23idAASFindAreaOutOfRangeD0Ev, @function
_ZN23idAASFindAreaOutOfRangeD0Ev:
.LFB2896:
	.loc 3 210 0
	.cfi_startproc
.LVL12:
	mflr 0
	stwu 1,-8(1)
.LCFI4:
	.cfi_def_cfa_offset 8
	.cfi_register 65, 0
.LBB5071:
.LBB5072:
.LBB5073:
.LBB5074:
.LBB5075:
.LBB5076:
	.loc 2 69 0
	lis 9,_ZTV13idAASCallback+8@ha
.LBE5076:
.LBE5075:
.LBE5074:
.LBE5073:
.LBE5072:
.LBE5071:
	.loc 3 210 0
	stw 0,12(1)
.LBB5082:
.LBB5081:
.LBB5080:
.LBB5079:
.LBB5078:
.LBB5077:
	.loc 2 69 0
	la 0,_ZTV13idAASCallback+8@l(9)
	.cfi_offset 65, 4
	stw 0,0(3)
.LBE5077:
.LBE5078:
.LBE5079:
.LBE5080:
.LBE5081:
.LBE5082:
	.loc 3 210 0
	bl _ZdlPv
.LVL13:
	lwz 0,12(1)
	addi 1,1,8
.LCFI5:
	.cfi_def_cfa_offset 0
	mtlr 0
	blr
	.cfi_endproc
.LFE2896:
	.size	_ZN23idAASFindAreaOutOfRangeD0Ev, .-_ZN23idAASFindAreaOutOfRangeD0Ev
	.section	.text._ZN13idAASCallbackD0Ev,"axG",@progbits,_ZN13idAASCallbackD5Ev,comdat
	.align 2
	.weak	_ZN13idAASCallbackD0Ev
	.type	_ZN13idAASCallbackD0Ev, @function
_ZN13idAASCallbackD0Ev:
.LFB2624:
	.loc 2 69 0
	.cfi_startproc
.LVL14:
	mflr 0
	stwu 1,-8(1)
.LCFI6:
	.cfi_def_cfa_offset 8
	.cfi_register 65, 0
.LBB5083:
.LBB5084:
.LBB5085:
	lis 9,_ZTV13idAASCallback+8@ha
.LBE5085:
.LBE5084:
.LBE5083:
	stw 0,12(1)
.LBB5088:
.LBB5087:
.LBB5086:
	.loc 2 69 0
	la 0,_ZTV13idAASCallback+8@l(9)
	.cfi_offset 65, 4
	stw 0,0(3)
.LBE5086:
.LBE5087:
.LBE5088:
	bl _ZdlPv
.LVL15:
	lwz 0,12(1)
	addi 1,1,8
.LCFI7:
	.cfi_def_cfa_offset 0
	mtlr 0
	blr
	.cfi_endproc
.LFE2624:
	.size	_ZN13idAASCallbackD0Ev, .-_ZN13idAASCallbackD0Ev
	.section	.text._ZN12idCombatNodeD2Ev,"axG",@progbits,_ZN12idCombatNodeD5Ev,comdat
	.align 2
	.weak	_ZN12idCombatNodeD2Ev
	.type	_ZN12idCombatNodeD2Ev, @function
_ZN12idCombatNodeD2Ev:
.LFB3332:
	.loc 3 662 0
	.cfi_startproc
.LVL16:
	mflr 0
	stwu 1,-8(1)
.LCFI8:
	.cfi_def_cfa_offset 8
	.cfi_register 65, 0
.LBB5090:
	lis 9,_ZTV12idCombatNode+8@ha
.LBE5090:
	stw 0,12(1)
.LBB5091:
	.loc 3 662 0
	la 0,_ZTV12idCombatNode+8@l(9)
	.cfi_offset 65, 4
	stw 0,0(3)
	bl _ZN8idEntityD2Ev
.LVL17:
.LBE5091:
	lwz 0,12(1)
	addi 1,1,8
.LCFI9:
	.cfi_def_cfa_offset 0
	mtlr 0
	blr
	.cfi_endproc
.LFE3332:
	.size	_ZN12idCombatNodeD2Ev, .-_ZN12idCombatNodeD2Ev
	.section	".text"
	.align 2
	.globl _ZN12idCombatNode7RestoreEP13idRestoreGame
	.type	_ZN12idCombatNode7RestoreEP13idRestoreGame, @function
_ZN12idCombatNode7RestoreEP13idRestoreGame:
.LFB2981:
	.loc 4 4976 0
	.cfi_startproc
.LVL18:
	stwu 1,-16(1)
.LCFI10:
	.cfi_def_cfa_offset 16
	mflr 0
	stw 31,12(1)
	mr 31,3
	.cfi_offset 31, -4
	.cfi_register 65, 0
	stw 30,8(1)
	.loc 4 4977 0
	mr 3,4
.LVL19:
	.loc 4 4976 0
	mr 30,4
	.cfi_offset 30, -8
	.loc 4 4977 0
	addi 4,31,636
.LVL20:
	.loc 4 4976 0
	stw 0,20(1)
	.loc 4 4977 0
	.cfi_offset 65, 4
	bl _ZN13idRestoreGame9ReadFloatERf
.LVL21:
	.loc 4 4978 0
	mr 3,30
	addi 4,31,640
	bl _ZN13idRestoreGame9ReadFloatERf
	.loc 4 4979 0
	mr 3,30
	addi 4,31,644
	bl _ZN13idRestoreGame9ReadFloatERf
	.loc 4 4980 0
	mr 3,30
	addi 4,31,648
	bl _ZN13idRestoreGame9ReadFloatERf
	.loc 4 4981 0
	mr 3,30
	addi 4,31,652
	bl _ZN13idRestoreGame9ReadFloatERf
	.loc 4 4982 0
	mr 3,30
	addi 4,31,656
	bl _ZN13idRestoreGame8ReadVec3ER6idVec3
	.loc 4 4983 0
	mr 3,30
	addi 4,31,668
	bl _ZN13idRestoreGame8ReadVec3ER6idVec3
	.loc 4 4984 0
	mr 3,30
	addi 4,31,680
	bl _ZN13idRestoreGame8ReadVec3ER6idVec3
	.loc 4 4985 0
	mr 3,30
	addi 4,31,692
	bl _ZN13idRestoreGame8ReadBoolERb
	.loc 4 4986 0
	lwz 0,20(1)
	lwz 30,8(1)
.LVL22:
	mtlr 0
	lwz 31,12(1)
.LVL23:
	addi 1,1,16
.LCFI11:
	.cfi_def_cfa_offset 0
	.cfi_restore 31
	.cfi_restore 30
	blr
	.cfi_endproc
.LFE2981:
	.size	_ZN12idCombatNode7RestoreEP13idRestoreGame, .-_ZN12idCombatNode7RestoreEP13idRestoreGame
	.align 2
	.globl _ZNK12idCombatNode4SaveEP10idSaveGame
	.type	_ZNK12idCombatNode4SaveEP10idSaveGame, @function
_ZNK12idCombatNode4SaveEP10idSaveGame:
.LFB2980:
	.loc 4 4959 0
	.cfi_startproc
.LVL24:
	mflr 0
	stwu 1,-16(1)
.LCFI12:
	.cfi_def_cfa_offset 16
	.cfi_register 65, 0
	stw 30,8(1)
	mr 30,4
	.cfi_offset 30, -8
	stw 0,20(1)
	stw 31,12(1)
	.loc 4 4959 0
	mr 31,3
	.cfi_offset 31, -4
	.cfi_offset 65, 4
	.loc 4 4960 0
	lfs 1,636(3)
	mr 3,4
.LVL25:
	bl _ZN10idSaveGame10WriteFloatEf
.LVL26:
	.loc 4 4961 0
	lfs 1,640(31)
	mr 3,30
	bl _ZN10idSaveGame10WriteFloatEf
	.loc 4 4962 0
	lfs 1,644(31)
	mr 3,30
	bl _ZN10idSaveGame10WriteFloatEf
	.loc 4 4963 0
	lfs 1,648(31)
	mr 3,30
	bl _ZN10idSaveGame10WriteFloatEf
	.loc 4 4964 0
	lfs 1,652(31)
	mr 3,30
	bl _ZN10idSaveGame10WriteFloatEf
	.loc 4 4965 0
	mr 3,30
	addi 4,31,656
	bl _ZN10idSaveGame9WriteVec3ERK6idVec3
	.loc 4 4966 0
	mr 3,30
	addi 4,31,668
	bl _ZN10idSaveGame9WriteVec3ERK6idVec3
	.loc 4 4967 0
	mr 3,30
	addi 4,31,680
	bl _ZN10idSaveGame9WriteVec3ERK6idVec3
	.loc 4 4968 0
	lbz 4,692(31)
	mr 3,30
	bl _ZN10idSaveGame9WriteBoolEb
	.loc 4 4969 0
	lwz 0,20(1)
	lwz 30,8(1)
.LVL27:
	mtlr 0
	lwz 31,12(1)
.LVL28:
	addi 1,1,16
.LCFI13:
	.cfi_def_cfa_offset 0
	.cfi_restore 31
	.cfi_restore 30
	blr
	.cfi_endproc
.LFE2980:
	.size	_ZNK12idCombatNode4SaveEP10idSaveGame, .-_ZNK12idCombatNode4SaveEP10idSaveGame
	.align 2
	.globl _ZN23idAASFindAttackPositionD2Ev
	.type	_ZN23idAASFindAttackPositionD2Ev, @function
_ZN23idAASFindAttackPositionD2Ev:
.LFB2840:
	.loc 4 253 0
	.cfi_startproc
	.cfi_personality 0,__gxx_personality_v0
	.cfi_lsda 0,.LLSDA2840
.LVL29:
	mflr 0
	stwu 1,-24(1)
.LCFI14:
	.cfi_def_cfa_offset 24
	.cfi_register 65, 0
.LBB5092:
	lis 9,_ZTV23idAASFindAttackPosition+8@ha
.LBE5092:
	stw 31,20(1)
.LBB5099:
	.loc 4 254 0
	mr 4,1
.LBE5099:
	.loc 4 253 0
	stw 0,28(1)
.LBB5100:
	.loc 4 253 0
	la 0,_ZTV23idAASFindAttackPosition+8@l(9)
	.cfi_offset 65, 4
	.cfi_offset 31, -4
.LBE5100:
	mr 31,3
.LBB5101:
	.loc 4 254 0
	lwz 10,96(3)
	lwz 11,100(3)
	stwu 10,8(4)
	stw 11,4(4)
	.loc 4 253 0
	stw 0,0(3)
	.loc 4 254 0
	lis 3,gameLocal+2426068@ha
.LVL30:
	la 3,gameLocal+2426068@l(3)
.LEHB0:
	bl _ZNK5idPVS14FreeCurrentPVSE11pvsHandle_s
.LEHE0:
.LVL31:
.LBB5093:
.LBB5094:
.LBB5095:
	.loc 2 69 0
	lis 9,_ZTV13idAASCallback+8@ha
	la 0,_ZTV13idAASCallback+8@l(9)
	stw 0,0(31)
.LBE5095:
.LBE5094:
.LBE5093:
.LBE5101:
	.loc 4 255 0
	lwz 0,28(1)
	lwz 31,20(1)
.LVL32:
	mtlr 0
	addi 1,1,24
	.cfi_remember_state
.LCFI15:
	.cfi_def_cfa_offset 0
	.cfi_restore 31
	blr
.LVL33:
.L31:
.LCFI16:
	.cfi_restore_state
.LBB5102:
.LBB5096:
.LBB5097:
.LBB5098:
	.loc 2 69 0
	lis 9,_ZTV13idAASCallback+8@ha
	la 0,_ZTV13idAASCallback+8@l(9)
	stw 0,0(31)
.LEHB1:
	bl _Unwind_Resume
.LEHE1:
.LBE5098:
.LBE5097:
.LBE5096:
.LBE5102:
	.cfi_endproc
.LFE2840:
	.globl __gxx_personality_v0
	.section	.gcc_except_table,"a",@progbits
.LLSDA2840:
	.byte	0xff
	.byte	0xff
	.byte	0x1
	.uleb128 .LLSDACSE2840-.LLSDACSB2840
.LLSDACSB2840:
	.uleb128 .LEHB0-.LFB2840
	.uleb128 .LEHE0-.LEHB0
	.uleb128 .L31-.LFB2840
	.uleb128 0
	.uleb128 .LEHB1-.LFB2840
	.uleb128 .LEHE1-.LEHB1
	.uleb128 0
	.uleb128 0
.LLSDACSE2840:
	.section	".text"
	.size	_ZN23idAASFindAttackPositionD2Ev, .-_ZN23idAASFindAttackPositionD2Ev
	.align 2
	.globl _ZN23idAASFindAttackPositionD0Ev
	.type	_ZN23idAASFindAttackPositionD0Ev, @function
_ZN23idAASFindAttackPositionD0Ev:
.LFB2842:
	.loc 4 253 0
	.cfi_startproc
.LVL34:
	stwu 1,-16(1)
.LCFI17:
	.cfi_def_cfa_offset 16
	mflr 0
	stw 31,12(1)
	mr 31,3
	.cfi_offset 31, -4
	.cfi_register 65, 0
	stw 0,20(1)
	.loc 4 255 0
	.cfi_offset 65, 4
	bl _ZN23idAASFindAttackPositionD1Ev
.LVL35:
	mr 3,31
	bl _ZdlPv
	lwz 0,20(1)
	lwz 31,12(1)
.LVL36:
	mtlr 0
	addi 1,1,16
.LCFI18:
	.cfi_def_cfa_offset 0
	.cfi_restore 31
	blr
	.cfi_endproc
.LFE2842:
	.size	_ZN23idAASFindAttackPositionD0Ev, .-_ZN23idAASFindAttackPositionD0Ev
	.align 2
	.globl _ZN14idAASFindCoverD2Ev
	.type	_ZN14idAASFindCoverD2Ev, @function
_ZN14idAASFindCoverD2Ev:
.LFB2822:
	.loc 4 158 0
	.cfi_startproc
	.cfi_personality 0,__gxx_personality_v0
	.cfi_lsda 0,.LLSDA2822
.LVL37:
	mflr 0
	stwu 1,-24(1)
.LCFI19:
	.cfi_def_cfa_offset 24
	.cfi_register 65, 0
.LBB5103:
	lis 9,_ZTV14idAASFindCover+8@ha
.LBE5103:
	stw 31,20(1)
.LBB5110:
	.loc 4 159 0
	mr 4,1
.LBE5110:
	.loc 4 158 0
	stw 0,28(1)
.LBB5111:
	.loc 4 158 0
	la 0,_ZTV14idAASFindCover+8@l(9)
	.cfi_offset 65, 4
	.cfi_offset 31, -4
.LBE5111:
	mr 31,3
.LBB5112:
	.loc 4 159 0
	lwz 10,4(3)
	lwz 11,8(3)
	stwu 10,8(4)
	stw 11,4(4)
	.loc 4 158 0
	stw 0,0(3)
	.loc 4 159 0
	lis 3,gameLocal+2426068@ha
.LVL38:
	la 3,gameLocal+2426068@l(3)
.LEHB2:
	bl _ZNK5idPVS14FreeCurrentPVSE11pvsHandle_s
.LEHE2:
.LVL39:
.LBB5104:
.LBB5105:
.LBB5106:
	.loc 2 69 0
	lis 9,_ZTV13idAASCallback+8@ha
	la 0,_ZTV13idAASCallback+8@l(9)
	stw 0,0(31)
.LBE5106:
.LBE5105:
.LBE5104:
.LBE5112:
	.loc 4 160 0
	lwz 0,28(1)
	lwz 31,20(1)
.LVL40:
	mtlr 0
	addi 1,1,24
	.cfi_remember_state
.LCFI20:
	.cfi_def_cfa_offset 0
	.cfi_restore 31
	blr
.LVL41:
.L39:
.LCFI21:
	.cfi_restore_state
.LBB5113:
.LBB5107:
.LBB5108:
.LBB5109:
	.loc 2 69 0
	lis 9,_ZTV13idAASCallback+8@ha
	la 0,_ZTV13idAASCallback+8@l(9)
	stw 0,0(31)
.LEHB3:
	bl _Unwind_Resume
.LEHE3:
.LBE5109:
.LBE5108:
.LBE5107:
.LBE5113:
	.cfi_endproc
.LFE2822:
	.section	.gcc_except_table
.LLSDA2822:
	.byte	0xff
	.byte	0xff
	.byte	0x1
	.uleb128 .LLSDACSE2822-.LLSDACSB2822
.LLSDACSB2822:
	.uleb128 .LEHB2-.LFB2822
	.uleb128 .LEHE2-.LEHB2
	.uleb128 .L39-.LFB2822
	.uleb128 0
	.uleb128 .LEHB3-.LFB2822
	.uleb128 .LEHE3-.LEHB3
	.uleb128 0
	.uleb128 0
.LLSDACSE2822:
	.section	".text"
	.size	_ZN14idAASFindCoverD2Ev, .-_ZN14idAASFindCoverD2Ev
	.align 2
	.globl _ZN14idAASFindCoverD0Ev
	.type	_ZN14idAASFindCoverD0Ev, @function
_ZN14idAASFindCoverD0Ev:
.LFB2824:
	.loc 4 158 0
	.cfi_startproc
.LVL42:
	stwu 1,-16(1)
.LCFI22:
	.cfi_def_cfa_offset 16
	mflr 0
	stw 31,12(1)
	mr 31,3
	.cfi_offset 31, -4
	.cfi_register 65, 0
	stw 0,20(1)
	.loc 4 160 0
	.cfi_offset 65, 4
	bl _ZN14idAASFindCoverD1Ev
.LVL43:
	mr 3,31
	bl _ZdlPv
	lwz 0,20(1)
	lwz 31,12(1)
.LVL44:
	mtlr 0
	addi 1,1,16
.LCFI23:
	.cfi_def_cfa_offset 0
	.cfi_restore 31
	blr
	.cfi_endproc
.LFE2824:
	.size	_ZN14idAASFindCoverD0Ev, .-_ZN14idAASFindCoverD0Ev
	.align 2
	.globl _ZN14idAASFindCover8TestAreaEPK5idAASi
	.type	_ZN14idAASFindCover8TestAreaEPK5idAASi, @function
_ZN14idAASFindCover8TestAreaEPK5idAASi:
.LFB2825:
	.loc 4 167 0
	.cfi_startproc
.LVL45:
	mflr 0
	stwu 1,-88(1)
.LCFI24:
	.cfi_def_cfa_offset 88
	.cfi_register 65, 0
	stw 30,80(1)
	mr 30,3
	.cfi_offset 30, -8
	stw 31,84(1)
.LBB5114:
	.loc 4 172 0
	addi 3,1,8
.LVL46:
.LBE5114:
	.loc 4 167 0
	stw 0,92(1)
.LBB5136:
	.loc 4 175 0
	lis 31,gameLocal+2426068@ha
	.cfi_offset 65, 4
	.cfi_offset 31, -4
	la 31,gameLocal+2426068@l(31)
	.loc 4 172 0
	lwz 9,0(4)
	lwz 0,40(9)
	mtctr 0
	bctrl
.LVL47:
	.loc 4 173 0
	lis 9,.LC0@ha
	lfs 0,.LC0@l(9)
.LBB5115:
.LBB5116:
	.file 5 "d:/Data/Nintendo/DoomGX/src/game/ai/../../idlib/../idlib/bv/Bounds.h"
	.loc 5 319 0
	lis 9,.LC1@ha
.LBE5116:
.LBE5115:
	.loc 4 173 0
	lfs 13,16(1)
	.loc 4 175 0
	addi 4,1,36
.LBB5130:
.LBB5131:
	.file 6 "d:/Data/Nintendo/DoomGX/src/game/ai/../../idlib/../idlib/math/Vector.h"
	.loc 6 424 0
	lfs 11,8(1)
.LVL48:
.LBE5131:
.LBE5130:
	.loc 4 175 0
	addi 5,1,20
	.loc 4 173 0
	fadds 13,13,0
.LBB5133:
.LBB5132:
	.loc 6 425 0
	lfs 12,12(1)
.LVL49:
.LBE5132:
.LBE5133:
.LBB5134:
.LBB5128:
	.loc 5 319 0
	lfs 0,.LC1@l(9)
.LBE5128:
.LBE5134:
	.loc 4 175 0
	li 6,4
	mr 3,31
.LBB5135:
.LBB5129:
	.loc 5 319 0
	fsubs 8,11,0
	fsubs 9,12,0
	fsubs 10,13,0
	fadds 11,11,0
.LBB5117:
.LBB5118:
.LBB5119:
	.loc 6 424 0
	stfs 8,36(1)
.LBE5119:
.LBE5118:
.LBE5117:
	.loc 5 319 0
	fadds 12,12,0
.LBB5126:
.LBB5122:
.LBB5120:
	.loc 6 425 0
	stfs 9,40(1)
.LBE5120:
.LBE5122:
.LBE5126:
	.loc 5 319 0
	fadds 0,13,0
.LBB5127:
.LBB5123:
.LBB5121:
	.loc 6 426 0
	stfs 10,44(1)
.LVL50:
.LBE5121:
.LBE5123:
.LBB5124:
.LBB5125:
	.loc 6 424 0
	stfs 11,48(1)
	.loc 6 425 0
	stfs 12,52(1)
	.loc 6 426 0
	stfs 0,56(1)
.LBE5125:
.LBE5124:
.LBE5127:
.LBE5129:
.LBE5135:
	.loc 4 175 0
	bl _ZNK5idPVS11GetPVSAreasERK8idBoundsPii
.LVL51:
	.loc 4 176 0
	lwz 10,4(30)
	.loc 4 175 0
	mr 6,3
.LVL52:
	.loc 4 176 0
	lwz 11,8(30)
	mr 3,31
.LVL53:
	addi 4,1,72
	addi 5,1,20
	stw 10,72(1)
	stw 11,76(1)
	bl _ZNK5idPVS12InCurrentPVSE11pvsHandle_sPKii
.LVL54:
.LBE5136:
	.loc 4 181 0
	lwz 0,92(1)
.LBB5137:
	.loc 4 167 0
	xori 3,3,1
.LBE5137:
	.loc 4 181 0
	lwz 30,80(1)
.LVL55:
	rlwinm 3,3,0,0xff
	mtlr 0
	lwz 31,84(1)
	addi 1,1,88
.LCFI25:
	.cfi_def_cfa_offset 0
	.cfi_restore 31
	.cfi_restore 30
	blr
	.cfi_endproc
.LFE2825:
	.size	_ZN14idAASFindCover8TestAreaEPK5idAASi, .-_ZN14idAASFindCover8TestAreaEPK5idAASi
	.align 2
	.type	_Z41__static_initialization_and_destruction_0ii.constprop.64, @function
_Z41__static_initialization_and_destruction_0ii.constprop.64:
.LFB3426:
	.loc 4 5138 0
	.cfi_startproc
.LVL56:
	cmpwi 7,3,1
	mflr 0
	stwu 1,-40(1)
.LCFI26:
	.cfi_def_cfa_offset 40
	.cfi_register 65, 0
	stw 0,44(1)
	stw 31,36(1)
	.loc 4 5138 0
	beq- 7,.L46
	.cfi_offset 31, -4
	.cfi_offset 65, 4
	.loc 4 4928 0
	cmpwi 7,3,0
	bne- 7,.L43
	lis 3,.LANCHOR0@ha
.LVL57:
	la 3,.LANCHOR0@l(3)
	bl _ZN10idTypeInfoD1Ev
.L43:
	.loc 4 5138 0
	lwz 0,44(1)
	lwz 31,36(1)
	mtlr 0
	addi 1,1,40
	.cfi_remember_state
.LCFI27:
	.cfi_def_cfa_offset 0
	.cfi_restore 31
	blr
.LVL58:
.L46:
.LCFI28:
	.cfi_restore_state
	.file 7 "d:/Data/Nintendo/DoomGX/src/game/ai/../Game_local.h"
	.loc 7 694 0
	lis 9,_ZN6idMath8M_SEC2MSE@ha
	.loc 7 121 0
	lis 31,.LANCHOR0@ha
	.loc 7 694 0
	lfs 0,_ZN6idMath8M_SEC2MSE@l(9)
	.loc 7 121 0
	la 31,.LANCHOR0@l(31)
	li 11,3
.LBB5138:
.LBB5139:
	.loc 6 396 0
	li 0,0
.LBE5139:
.LBE5138:
	.loc 7 694 0
	fadds 0,0,0
	.loc 7 121 0
	stw 11,80(31)
.LVL59:
.LBB5143:
.LBB5140:
	.loc 6 398 0
	lis 11,.LC2@ha
	.loc 6 396 0
	stw 0,84(31)
	.loc 6 397 0
	stw 0,88(31)
.LBE5140:
.LBE5143:
.LBB5144:
.LBB5145:
	.file 8 "d:/Data/Nintendo/DoomGX/src/game/ai/../../idlib/../idlib/math/Math.h"
	.loc 8 825 0
	addi 9,31,96
.LBE5145:
.LBE5144:
.LBB5148:
.LBB5141:
	.loc 6 398 0
	lwz 0,.LC2@l(11)
.LBE5141:
.LBE5148:
.LBB5149:
.LBB5146:
	.loc 8 825 0
	fctiwz 0,0
.LBE5146:
.LBE5149:
	.loc 4 4926 0
	lis 4,.LC3@ha
	addi 3,31,104
.LVL60:
.LBB5150:
.LBB5142:
	.loc 6 398 0
	stw 0,92(31)
.LVL61:
.LBE5142:
.LBE5150:
	.file 9 "d:/Data/Nintendo/DoomGX/src/game/ai/../Player.h"
	.loc 9 69 0
	li 0,10
.LBB5151:
.LBB5147:
	.loc 8 825 0
	stfiwx 0,0,9
.LVL62:
.LBE5147:
.LBE5151:
	.loc 4 4926 0
	la 4,.LC3@l(4)
	.loc 9 69 0
	stw 0,100(31)
	.loc 4 4926 0
	li 5,0
	li 6,0
	bl _ZN10idEventDefC1EPKcS1_c
	.loc 4 4928 0
	lis 11,_ZN12idCombatNode5SpawnEv@ha
	la 11,_ZN12idCombatNode5SpawnEv@l(11)
	lis 4,.LC4@ha
	stw 11,8(1)
	lis 11,_ZNK12idCombatNode4SaveEP10idSaveGame@ha
	la 11,_ZNK12idCombatNode4SaveEP10idSaveGame@l(11)
	lis 5,.LC5@ha
	stw 11,16(1)
	lis 6,.LANCHOR1@ha
	lis 7,_ZN12idCombatNode14CreateInstanceEv@ha
	lis 11,_ZN12idCombatNode7RestoreEP13idRestoreGame@ha
	li 0,0
	la 11,_ZN12idCombatNode7RestoreEP13idRestoreGame@l(11)
	mr 3,31
	la 4,.LC4@l(4)
	la 5,.LC5@l(5)
	la 6,.LANCHOR1@l(6)
	la 7,_ZN12idCombatNode14CreateInstanceEv@l(7)
	addi 8,1,8
	addi 9,1,16
	addi 10,1,24
	stw 0,12(1)
	stw 0,20(1)
	stw 11,24(1)
	stw 0,28(1)
	bl _ZN10idTypeInfoC1EPKcS1_P11idEventFuncI7idClassEPFPS3_vEMS3_FvvEMS3_KFvP10idSaveGameEMS3_FvP13idRestoreGameE
	b .L43
	.cfi_endproc
.LFE3426:
	.size	_Z41__static_initialization_and_destruction_0ii.constprop.64, .-_Z41__static_initialization_and_destruction_0ii.constprop.64
	.section	.text._ZN12idCombatNodeD0Ev,"axG",@progbits,_ZN12idCombatNodeD5Ev,comdat
	.align 2
	.weak	_ZN12idCombatNodeD0Ev
	.type	_ZN12idCombatNodeD0Ev, @function
_ZN12idCombatNodeD0Ev:
.LFB3334:
	.loc 3 662 0
	.cfi_startproc
.LVL63:
	mflr 0
	stwu 1,-16(1)
.LCFI29:
	.cfi_def_cfa_offset 16
	.cfi_register 65, 0
.LBB5155:
.LBB5156:
.LBB5157:
	lis 9,_ZTV12idCombatNode+8@ha
.LBE5157:
.LBE5156:
.LBE5155:
	stw 31,12(1)
	mr 31,3
	.cfi_offset 31, -4
.LVL64:
	stw 0,20(1)
.LBB5160:
.LBB5159:
.LBB5158:
	.loc 3 662 0
	la 0,_ZTV12idCombatNode+8@l(9)
	.cfi_offset 65, 4
	stw 0,0(3)
	bl _ZN8idEntityD2Ev
.LVL65:
.LBE5158:
.LBE5159:
.LBE5160:
	mr 3,31
	bl _ZN7idClassdlEPv
	lwz 0,20(1)
	lwz 31,12(1)
.LVL66:
	mtlr 0
	addi 1,1,16
.LCFI30:
	.cfi_def_cfa_offset 0
	.cfi_restore 31
	blr
	.cfi_endproc
.LFE3334:
	.size	_ZN12idCombatNodeD0Ev, .-_ZN12idCombatNodeD0Ev
	.section	".text"
	.align 2
	.globl _ZN23idAASFindAreaOutOfRange8TestAreaEPK5idAASi
	.type	_ZN23idAASFindAreaOutOfRange8TestAreaEPK5idAASi, @function
_ZN23idAASFindAreaOutOfRange8TestAreaEPK5idAASi:
.LFB2829:
	.loc 4 202 0
	.cfi_startproc
.LVL67:
	mflr 0
	stwu 1,-168(1)
.LCFI31:
	.cfi_def_cfa_offset 168
	.cfi_register 65, 0
	stw 31,156(1)
	mr 31,3
	.cfi_offset 31, -12
	stw 0,172(1)
.LBB5174:
	.loc 4 203 0
	addi 3,1,20
.LVL68:
.LBE5174:
	.loc 4 202 0
	stfd 31,160(1)
.LBB5209:
	.loc 4 203 0
	lwz 9,0(4)
	lwz 0,40(9)
	.cfi_offset 63, -8
	.cfi_offset 65, 4
	mtctr 0
	bctrl
.LVL69:
	.loc 4 209 0
	lis 9,.LC6@ha
	lfs 13,.LC6@l(9)
	lfs 0,16(31)
	.loc 4 203 0
	lfs 12,20(1)
	.loc 4 209 0
	fcmpu 7,0,13
.LBB5175:
.LBB5176:
	.loc 6 237 0
	lfs 10,4(31)
.LBE5176:
.LBE5175:
	.loc 4 203 0
	lfs 13,24(1)
.LVL70:
.LBB5180:
.LBB5177:
	.loc 6 237 0
	lfs 11,8(31)
.LVL71:
.LBE5177:
.LBE5180:
	.loc 4 209 0
	bng- 7,.L51
.LBB5181:
.LBB5178:
	.loc 6 237 0 discriminator 1
	fsubs 10,10,12
.LBE5178:
.LBE5181:
	.loc 4 210 0 discriminator 1
	li 3,0
.LBB5182:
.LBB5179:
	.loc 6 237 0 discriminator 1
	fsubs 11,11,13
.LBE5179:
.LBE5182:
.LBB5183:
.LBB5184:
	.loc 6 167 0 discriminator 1
	fmuls 10,10,10
.LBE5184:
.LBE5183:
	fmadds 11,11,11,10
	.loc 4 209 0 discriminator 1
	fcmpu 7,0,11
	bgt- 7,.L53
.L51:
.LVL72:
.LBB5185:
.LBB5186:
	.loc 6 452 0
	lis 9,.LC0@ha
	lfs 11,28(1)
	lfs 31,.LC0@l(9)
	lis 9,.LC6@ha
	lfs 0,.LC6@l(9)
.LBE5186:
.LBE5185:
.LBB5193:
.LBB5194:
	.file 10 "d:/Data/Nintendo/DoomGX/src/game/ai/../physics/Clip.h"
	.loc 10 334 0
	lis 3,gameLocal+2311032@ha
.LBE5194:
.LBE5193:
.LBB5200:
.LBB5189:
	.loc 6 452 0
	fadds 11,11,31
.LVL73:
.LBE5189:
.LBE5200:
.LBB5201:
.LBB5195:
	.loc 10 334 0
	lis 8,mat3_identity@ha
.LBE5195:
.LBE5201:
.LBB5202:
.LBB5190:
	.loc 6 452 0
	fadds 12,12,0
.LBE5190:
.LBE5202:
.LBB5203:
.LBB5196:
	.loc 10 334 0
	la 3,gameLocal+2311032@l(3)
.LBE5196:
.LBE5203:
.LBB5204:
.LBB5191:
	.loc 6 452 0
	fadds 13,13,0
.LBE5191:
.LBE5204:
.LBB5205:
.LBB5197:
	.loc 10 334 0
	addi 4,1,32
	addi 5,31,4
	addi 6,1,8
	li 7,0
	la 8,mat3_identity@l(8)
	li 9,2
	li 10,0
.LBE5197:
.LBE5205:
.LBB5206:
.LBB5192:
.LBB5187:
.LBB5188:
	.loc 6 396 0
	stfs 12,8(1)
	.loc 6 397 0
	stfs 13,12(1)
	.loc 6 398 0
	stfs 11,16(1)
.LVL74:
.LBE5188:
.LBE5187:
.LBE5192:
.LBE5206:
.LBB5207:
.LBB5198:
	.loc 10 334 0
	bl _ZN6idClip11TranslationER7trace_sRK6idVec3S4_PK11idClipModelRK6idMat3iPK8idEntity
.LVL75:
.LBE5198:
.LBE5207:
	.loc 4 214 0
	lfs 0,32(1)
	fcmpu 7,0,31
	mfcr 3
	rlwinm 3,3,29,1
.LBB5208:
.LBB5199:
	.loc 4 202 0
	xori 3,3,1
.LVL76:
.L53:
.LBE5199:
.LBE5208:
.LBE5209:
	.loc 4 219 0
	lwz 0,172(1)
	lwz 31,156(1)
.LVL77:
	mtlr 0
	lfd 31,160(1)
	addi 1,1,168
.LCFI32:
	.cfi_def_cfa_offset 0
	.cfi_restore 63
	.cfi_restore 31
	blr
	.cfi_endproc
.LFE2829:
	.size	_ZN23idAASFindAreaOutOfRange8TestAreaEPK5idAASi, .-_ZN23idAASFindAreaOutOfRange8TestAreaEPK5idAASi
	.section	.text._ZN14idFixedWindingD2Ev,"axG",@progbits,_ZN14idFixedWindingD5Ev,comdat
	.align 2
	.weak	_ZN14idFixedWindingD2Ev
	.type	_ZN14idFixedWindingD2Ev, @function
_ZN14idFixedWindingD2Ev:
.LFB1498:
	.loc 1 380 0
	.cfi_startproc
.LVL78:
.LBB5215:
	.loc 1 381 0
	li 0,0
.LBB5216:
.LBB5217:
.LBB5218:
	.loc 1 183 0
	lis 9,_ZTV9idWinding+8@ha
.LBE5218:
.LBE5217:
.LBE5216:
	.loc 1 381 0
	stw 0,8(3)
.LVL79:
.LBB5221:
.LBB5220:
.LBB5219:
	.loc 1 183 0
	la 0,_ZTV9idWinding+8@l(9)
	stw 0,0(3)
.LBE5219:
.LBE5220:
.LBE5221:
.LBE5215:
	.loc 1 382 0
	blr
	.cfi_endproc
.LFE1498:
	.size	_ZN14idFixedWindingD2Ev, .-_ZN14idFixedWindingD2Ev
	.section	.text._ZN9idWindingD0Ev,"axG",@progbits,_ZN9idWindingD5Ev,comdat
	.align 2
	.weak	_ZN9idWindingD0Ev
	.type	_ZN9idWindingD0Ev, @function
_ZN9idWindingD0Ev:
.LFB1463:
	.loc 1 183 0
	.cfi_startproc
.LVL80:
	mflr 0
	stwu 1,-16(1)
.LCFI33:
	.cfi_def_cfa_offset 16
	.cfi_register 65, 0
.LBB5225:
.LBB5226:
.LBB5227:
	lis 9,_ZTV9idWinding+8@ha
.LBE5227:
.LBE5226:
.LBE5225:
	stw 31,12(1)
	mr 31,3
	.cfi_offset 31, -4
.LVL81:
	stw 0,20(1)
.LBB5232:
.LBB5230:
.LBB5228:
	.loc 1 183 0
	la 0,_ZTV9idWinding+8@l(9)
	.cfi_offset 65, 4
	.loc 1 184 0
	lwz 3,8(3)
.LVL82:
	.loc 1 183 0
	stw 0,0(31)
	.loc 1 184 0
	cmpwi 7,3,0
	beq- 7,.L60
	bl _ZdaPv
.LVL83:
.L60:
	.loc 1 185 0
	li 0,0
.LBE5228:
.LBE5230:
.LBE5232:
	.loc 1 186 0
	mr 3,31
.LBB5233:
.LBB5231:
.LBB5229:
	.loc 1 185 0
	stw 0,8(31)
.LBE5229:
.LBE5231:
.LBE5233:
	.loc 1 186 0
	bl _ZdlPv
	lwz 0,20(1)
	lwz 31,12(1)
.LVL84:
	mtlr 0
	addi 1,1,16
.LCFI34:
	.cfi_def_cfa_offset 0
	.cfi_restore 31
	blr
	.cfi_endproc
.LFE1463:
	.size	_ZN9idWindingD0Ev, .-_ZN9idWindingD0Ev
	.section	.text._ZN14idFixedWindingD0Ev,"axG",@progbits,_ZN14idFixedWindingD5Ev,comdat
	.align 2
	.weak	_ZN14idFixedWindingD0Ev
	.type	_ZN14idFixedWindingD0Ev, @function
_ZN14idFixedWindingD0Ev:
.LFB1500:
	.loc 1 380 0
	.cfi_startproc
.LVL85:
	mflr 0
	stwu 1,-8(1)
.LCFI35:
	.cfi_def_cfa_offset 8
	.cfi_register 65, 0
.LBB5240:
.LBB5241:
.LBB5242:
.LBB5243:
.LBB5244:
.LBB5245:
	.loc 1 183 0
	lis 11,_ZTV9idWinding+8@ha
.LBE5245:
.LBE5244:
.LBE5243:
.LBE5242:
.LBE5241:
.LBE5240:
	.loc 1 380 0
	stw 0,12(1)
.LBB5251:
.LBB5250:
.LBB5249:
	.loc 1 381 0
	li 0,0
	.cfi_offset 65, 4
	stw 0,8(3)
.LVL86:
.LBB5248:
.LBB5247:
.LBB5246:
	.loc 1 183 0
	la 0,_ZTV9idWinding+8@l(11)
	stw 0,0(3)
.LBE5246:
.LBE5247:
.LBE5248:
.LBE5249:
.LBE5250:
.LBE5251:
	.loc 1 382 0
	bl _ZdlPv
.LVL87:
	lwz 0,12(1)
	addi 1,1,8
.LCFI36:
	.cfi_def_cfa_offset 0
	mtlr 0
	blr
	.cfi_endproc
.LFE1500:
	.size	_ZN14idFixedWindingD0Ev, .-_ZN14idFixedWindingD0Ev
	.section	".text"
	.align 2
	.globl _ZN12idCombatNode14Event_MarkUsedEv
	.type	_ZN12idCombatNode14Event_MarkUsedEv, @function
_ZN12idCombatNode14Event_MarkUsedEv:
.LFB2987:
	.loc 4 5134 0
	.cfi_startproc
.LVL88:
	stwu 1,-16(1)
.LCFI37:
	.cfi_def_cfa_offset 16
	mflr 0
.LBB5258:
.LBB5259:
.LBB5260:
.LBB5261:
	.file 11 "d:/Data/Nintendo/DoomGX/src/game/ai/../../idlib/../idlib/Dict.h"
	.loc 11 241 0
	lis 4,.LC8@ha
.LBE5261:
.LBE5260:
.LBE5259:
.LBE5258:
	.loc 4 5134 0
	stw 31,12(1)
.LBB5275:
.LBB5271:
.LBB5267:
.LBB5263:
	.loc 11 241 0
	la 4,.LC8@l(4)
.LBE5263:
.LBE5267:
.LBE5271:
.LBE5275:
	.loc 4 5134 0
	mr 31,3
	.cfi_offset 31, -4
	.cfi_register 65, 0
.LVL89:
.LBB5276:
.LBB5272:
.LBB5268:
.LBB5264:
	.loc 11 241 0
	addi 3,3,100
.LVL90:
.LBE5264:
.LBE5268:
.LBE5272:
.LBE5276:
	.loc 4 5134 0
	stw 0,20(1)
.LBB5277:
.LBB5273:
.LBB5269:
.LBB5265:
	.loc 11 241 0
	.cfi_offset 65, 4
	bl _ZNK6idDict7FindKeyEPKc
.LVL91:
	.loc 11 242 0
	cmpwi 0,3,0
	beq- 0,.L70
.LVL92:
.LBB5262:
	.loc 4 5138 0
	lwz 9,4(3)
	lwz 3,4(9)
.LVL93:
.L68:
.LBE5262:
.LBE5265:
.LBE5269:
	.loc 11 257 0
	bl atoi
.LBE5273:
.LBE5277:
	.loc 4 5135 0
	cmpwi 7,3,0
	beq- 7,.L67
	.loc 4 5136 0
	li 0,1
	stb 0,692(31)
.L67:
	.loc 4 5138 0
	lwz 0,20(1)
	lwz 31,12(1)
.LVL94:
	mtlr 0
	addi 1,1,16
	.cfi_remember_state
.LCFI38:
	.cfi_def_cfa_offset 0
	.cfi_restore 31
	blr
.LVL95:
.L70:
.LCFI39:
	.cfi_restore_state
.LBB5278:
.LBB5274:
.LBB5270:
.LBB5266:
	.loc 11 245 0
	lis 3,.LC7@ha
.LVL96:
	la 3,.LC7@l(3)
	b .L68
.LBE5266:
.LBE5270:
.LBE5274:
.LBE5278:
	.cfi_endproc
.LFE2987:
	.size	_ZN12idCombatNode14Event_MarkUsedEv, .-_ZN12idCombatNode14Event_MarkUsedEv
	.align 2
	.globl _ZN12idCombatNode5SpawnEv
	.type	_ZN12idCombatNode5SpawnEv, @function
_ZN12idCombatNode5SpawnEv:
.LFB2982:
	.loc 4 4993 0
	.cfi_startproc
.LVL97:
	stwu 1,-120(1)
.LCFI40:
	.cfi_def_cfa_offset 120
	mflr 0
.LBB5324:
.LBB5325:
.LBB5326:
.LBB5327:
.LBB5328:
	.loc 11 241 0
	lis 4,.LC10@ha
.LBE5328:
.LBE5327:
.LBE5326:
.LBE5325:
.LBE5324:
	.loc 4 4993 0
	stw 30,80(1)
.LBB5488:
	.loc 4 4998 0
	addi 30,3,100
	.cfi_offset 30, -40
	.cfi_register 65, 0
.LVL98:
.LBE5488:
	.loc 4 4993 0
	stw 31,84(1)
.LBB5489:
.LBB5346:
.LBB5338:
.LBB5334:
.LBB5330:
	.loc 11 241 0
	la 4,.LC10@l(4)
.LBE5330:
.LBE5334:
.LBE5338:
.LBE5346:
.LBE5489:
	.loc 4 4993 0
	mr 31,3
	.cfi_offset 31, -36
.LBB5490:
.LBB5347:
.LBB5339:
.LBB5335:
.LBB5331:
	.loc 11 241 0
	mr 3,30
.LVL99:
.LBE5331:
.LBE5335:
.LBE5339:
.LBE5347:
.LBE5490:
	.loc 4 4993 0
	stw 0,124(1)
	stfd 28,88(1)
	stfd 29,96(1)
	stfd 30,104(1)
	stfd 31,112(1)
	stw 29,76(1)
.LBB5491:
.LBB5348:
.LBB5340:
.LBB5336:
.LBB5332:
	.loc 11 241 0
	.cfi_offset 29, -44
	.cfi_offset 63, -8
	.cfi_offset 62, -16
	.cfi_offset 61, -24
	.cfi_offset 60, -32
	.cfi_offset 65, 4
	bl _ZNK6idDict7FindKeyEPKc
.LVL100:
	.loc 11 242 0
	cmpwi 0,3,0
	beq- 0,.L77
.LVL101:
.LBB5329:
	.loc 4 5138 0
	lwz 9,4(3)
	lwz 3,4(9)
.LVL102:
.LBE5329:
.LBE5332:
.LBE5336:
	.loc 11 249 0
	bl atof
.LVL103:
.LBE5340:
.LBE5348:
.LBB5349:
.LBB5350:
.LBB5351:
.LBB5352:
	.loc 11 241 0
	lis 4,.LC11@ha
.LBE5352:
.LBE5351:
.LBE5350:
.LBE5349:
.LBB5373:
.LBB5341:
	.loc 11 249 0
	frsp 1,1
.LBE5341:
.LBE5373:
.LBB5374:
.LBB5364:
.LBB5359:
.LBB5354:
	.loc 11 241 0
	mr 3,30
	la 4,.LC11@l(4)
.LBE5354:
.LBE5359:
.LBE5364:
.LBE5374:
.LBB5375:
.LBB5342:
	.loc 11 249 0
	stfs 1,636(31)
.LVL104:
.LBE5342:
.LBE5375:
.LBB5376:
.LBB5365:
.LBB5360:
.LBB5355:
	.loc 11 241 0
	bl _ZNK6idDict7FindKeyEPKc
.LVL105:
	.loc 11 242 0
	cmpwi 0,3,0
	beq- 0,.L78
.L82:
.LVL106:
.LBB5353:
	.loc 4 5138 0
	lwz 9,4(3)
	lwz 3,4(9)
.LVL107:
.LBE5353:
.LBE5355:
.LBE5360:
	.loc 11 249 0
	bl atof
.LVL108:
.LBE5365:
.LBE5376:
.LBB5377:
.LBB5378:
.LBB5379:
.LBB5380:
	.loc 11 241 0
	lis 4,.LC12@ha
.LBE5380:
.LBE5379:
.LBE5378:
.LBE5377:
.LBB5399:
.LBB5366:
	.loc 11 249 0
	frsp 1,1
.LBE5366:
.LBE5399:
.LBB5400:
.LBB5392:
.LBB5387:
.LBB5382:
	.loc 11 241 0
	mr 3,30
	la 4,.LC12@l(4)
.LBE5382:
.LBE5387:
.LBE5392:
.LBE5400:
.LBB5401:
.LBB5367:
	.loc 11 249 0
	stfs 1,640(31)
.LVL109:
.LBE5367:
.LBE5401:
.LBB5402:
.LBB5393:
.LBB5388:
.LBB5383:
	.loc 11 241 0
	bl _ZNK6idDict7FindKeyEPKc
.LVL110:
	.loc 11 242 0
	cmpwi 0,3,0
	beq- 0,.L79
.L83:
.LVL111:
.LBB5381:
	.loc 4 5138 0
	lwz 9,4(3)
	lwz 3,4(9)
.LVL112:
.LBE5381:
.LBE5383:
.LBE5388:
	.loc 11 249 0
	bl atof
.LVL113:
.LBE5393:
.LBE5402:
.LBB5403:
.LBB5404:
.LBB5405:
.LBB5406:
	.loc 11 241 0
	lis 4,.LC13@ha
	mr 3,30
	la 4,.LC13@l(4)
.LBE5406:
.LBE5405:
.LBE5404:
.LBE5403:
.LBB5418:
.LBB5394:
	.loc 11 249 0
	frsp 29,1
.LVL114:
.LBE5394:
.LBE5418:
.LBB5419:
.LBB5414:
.LBB5411:
.LBB5408:
	.loc 11 241 0
	bl _ZNK6idDict7FindKeyEPKc
.LVL115:
	.loc 11 242 0
	cmpwi 0,3,0
	beq- 0,.L80
.L84:
.LVL116:
.LBB5407:
	.loc 4 5138 0
	lwz 9,4(3)
	lwz 3,4(9)
.LVL117:
.L75:
.LBE5407:
.LBE5408:
.LBE5411:
	.loc 11 249 0
	bl atof
.LBE5414:
.LBE5419:
.LBB5420:
.LBB5421:
	.loc 11 262 0
	lis 4,.LC14@ha
	li 5,0
	addi 6,1,56
	la 4,.LC14@l(4)
	mr 3,30
.LBE5421:
.LBE5420:
.LBB5423:
.LBB5415:
	.loc 11 249 0
	frsp 30,1
.LVL118:
.LBE5415:
.LBE5423:
.LBB5424:
.LBB5422:
	.loc 11 262 0
	bl _ZNK6idDict9GetVectorEPKcS1_R6idVec3
.LVL119:
.LBE5422:
.LBE5424:
.LBB5425:
.LBB5426:
	.loc 6 424 0
	lwz 0,56(1)
.LBE5426:
.LBE5425:
	.loc 4 5004 0
	mr 3,31
.LBB5428:
.LBB5429:
	.file 12 "d:/Data/Nintendo/DoomGX/src/game/ai/../../idlib/../idlib/math/Angles.h"
	.loc 12 109 0
	li 29,0
.LBE5429:
.LBE5428:
.LBB5431:
.LBB5427:
	.loc 6 424 0
	stw 0,680(31)
	.loc 6 425 0
	lwz 0,60(1)
	stw 0,684(31)
	.loc 6 426 0
	lwz 0,64(1)
	stw 0,688(31)
.LBE5427:
.LBE5431:
	.loc 4 5004 0
	bl _ZNK8idEntity10GetPhysicsEv
	li 4,0
	lwz 9,0(3)
	lwz 0,132(9)
	mtctr 0
	bctrl
.LVL120:
.LBB5432:
.LBB5433:
	.loc 6 452 0
	lfs 0,688(31)
	lfs 12,8(3)
.LBE5433:
.LBE5432:
	.loc 4 4993 0
	fneg 13,29
	.loc 4 5005 0
	lis 9,.LC15@ha
	.loc 4 5008 0
	mr 3,31
.LVL121:
.LBB5435:
.LBB5434:
	.loc 6 452 0
	fadds 0,12,0
.LBE5434:
.LBE5435:
	.loc 4 5005 0
	lfs 31,.LC15@l(9)
	fmadds 0,13,31,0
	.loc 4 5006 0
	fadds 29,0,29
	.loc 4 5005 0
	stfs 0,648(31)
	.loc 4 5006 0
	stfs 29,652(31)
	.loc 4 5008 0
	bl _ZNK8idEntity10GetPhysicsEv
.LVL122:
	li 4,0
	lwz 9,0(3)
	lwz 0,136(9)
	mtctr 0
	bctrl
.LVL123:
	.loc 4 5009 0
	bl _ZNK6idVec35ToYawEv
	.loc 4 5011 0
	lis 9,.LC16@ha
	fmadds 0,30,31,1
	lfs 29,.LC16@l(9)
	.loc 4 5009 0
	fmr 28,1
.LVL124:
	.loc 4 5012 0
	addi 3,1,32
	addi 4,1,44
	.loc 4 4993 0
	fneg 30,30
.LVL125:
	.loc 4 5011 0
	fsubs 0,0,29
.LVL126:
.LBB5436:
.LBB5430:
	.loc 12 109 0
	stw 29,44(1)
	.loc 12 111 0
	stw 29,52(1)
	.loc 12 110 0
	stfs 0,48(1)
.LBE5430:
.LBE5436:
	.loc 4 5012 0
	bl _ZNK8idAngles9ToForwardEv
.LVL127:
.LBB5437:
.LBB5438:
	.loc 6 424 0
	lwz 0,32(1)
.LBE5438:
.LBE5437:
	.loc 4 5014 0
	fmadds 31,30,31,28
	.loc 4 5015 0
	addi 3,1,8
	addi 4,1,20
.LBB5442:
.LBB5439:
	.loc 6 424 0
	stw 0,656(31)
	.loc 6 425 0
	lwz 0,36(1)
.LBE5439:
.LBE5442:
	.loc 4 5014 0
	fadds 29,31,29
.LBB5443:
.LBB5444:
	.loc 12 109 0
	stw 29,20(1)
.LBE5444:
.LBE5443:
.LBB5447:
.LBB5440:
	.loc 6 425 0
	stw 0,660(31)
	.loc 6 426 0
	lwz 0,40(1)
.LBE5440:
.LBE5447:
.LBB5448:
.LBB5445:
	.loc 12 110 0
	stfs 29,24(1)
.LBE5445:
.LBE5448:
.LBB5449:
.LBB5441:
	.loc 6 426 0
	stw 0,664(31)
.LVL128:
.LBE5441:
.LBE5449:
.LBB5450:
.LBB5446:
	.loc 12 111 0
	stw 29,28(1)
.LBE5446:
.LBE5450:
	.loc 4 5015 0
	bl _ZNK8idAngles9ToForwardEv
.LVL129:
.LBB5451:
.LBB5452:
	.loc 6 424 0
	lwz 0,8(1)
.LBE5452:
.LBE5451:
.LBB5455:
.LBB5456:
.LBB5457:
.LBB5458:
	.loc 11 241 0
	lis 4,.LC17@ha
	mr 3,30
.LBE5458:
.LBE5457:
.LBE5456:
.LBE5455:
.LBB5469:
.LBB5453:
	.loc 6 424 0
	stw 0,668(31)
.LBE5453:
.LBE5469:
.LBB5470:
.LBB5466:
.LBB5463:
.LBB5460:
	.loc 11 241 0
	la 4,.LC17@l(4)
.LBE5460:
.LBE5463:
.LBE5466:
.LBE5470:
.LBB5471:
.LBB5454:
	.loc 6 425 0
	lwz 0,12(1)
	stw 0,672(31)
	.loc 6 426 0
	lwz 0,16(1)
	stw 0,676(31)
.LVL130:
.LBE5454:
.LBE5471:
.LBB5472:
.LBB5467:
.LBB5464:
.LBB5461:
	.loc 11 241 0
	bl _ZNK6idDict7FindKeyEPKc
.LVL131:
	.loc 11 242 0
	cmpwi 0,3,0
	beq- 0,.L81
.LVL132:
.LBB5459:
	.loc 4 5138 0
	lwz 9,4(3)
	lwz 3,4(9)
.LVL133:
.LBE5459:
.LBE5461:
.LBE5464:
	.loc 11 257 0
	bl atoi
.LVL134:
	cntlzw 3,3
	srwi 3,3,5
	xori 3,3,1
.LBE5467:
.LBE5472:
	.loc 4 5017 0
	stb 3,692(31)
.LBE5491:
	.loc 4 5018 0
	lwz 0,124(1)
	lwz 29,76(1)
	mtlr 0
	lwz 30,80(1)
.LVL135:
	lwz 31,84(1)
.LVL136:
	lfd 28,88(1)
.LVL137:
	lfd 29,96(1)
	lfd 30,104(1)
	lfd 31,112(1)
	addi 1,1,120
	.cfi_remember_state
.LCFI41:
	.cfi_def_cfa_offset 0
	.cfi_restore 63
	.cfi_restore 62
	.cfi_restore 61
	.cfi_restore 60
	.cfi_restore 31
	.cfi_restore 30
	.cfi_restore 29
	blr
.LVL138:
.L77:
.LCFI42:
	.cfi_restore_state
.LBB5492:
.LBB5473:
.LBB5343:
.LBB5337:
.LBB5333:
	.loc 11 245 0
	lis 3,.LC7@ha
.LVL139:
	la 3,.LC7@l(3)
.LBE5333:
.LBE5337:
	.loc 11 249 0
	bl atof
.LBE5343:
.LBE5473:
.LBB5474:
.LBB5368:
.LBB5361:
.LBB5356:
	.loc 11 241 0
	lis 4,.LC11@ha
.LBE5356:
.LBE5361:
.LBE5368:
.LBE5474:
.LBB5475:
.LBB5344:
	.loc 11 249 0
	frsp 1,1
.LBE5344:
.LBE5475:
.LBB5476:
.LBB5369:
.LBB5362:
.LBB5357:
	.loc 11 241 0
	mr 3,30
	la 4,.LC11@l(4)
.LBE5357:
.LBE5362:
.LBE5369:
.LBE5476:
.LBB5477:
.LBB5345:
	.loc 11 249 0
	stfs 1,636(31)
.LVL140:
.LBE5345:
.LBE5477:
.LBB5478:
.LBB5370:
.LBB5363:
.LBB5358:
	.loc 11 241 0
	bl _ZNK6idDict7FindKeyEPKc
.LVL141:
	.loc 11 242 0
	cmpwi 0,3,0
	bne+ 0,.L82
.L78:
	.loc 11 245 0
	lis 3,.LC7@ha
.LVL142:
	la 3,.LC7@l(3)
.LBE5358:
.LBE5363:
	.loc 11 249 0
	bl atof
.LBE5370:
.LBE5478:
.LBB5479:
.LBB5395:
.LBB5389:
.LBB5384:
	.loc 11 241 0
	lis 4,.LC12@ha
.LBE5384:
.LBE5389:
.LBE5395:
.LBE5479:
.LBB5480:
.LBB5371:
	.loc 11 249 0
	frsp 1,1
.LBE5371:
.LBE5480:
.LBB5481:
.LBB5396:
.LBB5390:
.LBB5385:
	.loc 11 241 0
	mr 3,30
	la 4,.LC12@l(4)
.LBE5385:
.LBE5390:
.LBE5396:
.LBE5481:
.LBB5482:
.LBB5372:
	.loc 11 249 0
	stfs 1,640(31)
.LVL143:
.LBE5372:
.LBE5482:
.LBB5483:
.LBB5397:
.LBB5391:
.LBB5386:
	.loc 11 241 0
	bl _ZNK6idDict7FindKeyEPKc
.LVL144:
	.loc 11 242 0
	cmpwi 0,3,0
	bne+ 0,.L83
.L79:
	.loc 11 245 0
	lis 3,.LC7@ha
.LVL145:
	la 3,.LC7@l(3)
.LBE5386:
.LBE5391:
	.loc 11 249 0
	bl atof
.LBE5397:
.LBE5483:
.LBB5484:
.LBB5416:
.LBB5412:
.LBB5409:
	.loc 11 241 0
	lis 4,.LC13@ha
	mr 3,30
	la 4,.LC13@l(4)
.LBE5409:
.LBE5412:
.LBE5416:
.LBE5484:
.LBB5485:
.LBB5398:
	.loc 11 249 0
	frsp 29,1
.LVL146:
.LBE5398:
.LBE5485:
.LBB5486:
.LBB5417:
.LBB5413:
.LBB5410:
	.loc 11 241 0
	bl _ZNK6idDict7FindKeyEPKc
.LVL147:
	.loc 11 242 0
	cmpwi 0,3,0
	bne+ 0,.L84
.L80:
	.loc 11 245 0
	lis 3,.LC9@ha
.LVL148:
	la 3,.LC9@l(3)
	b .L75
.LVL149:
.L81:
.LBE5410:
.LBE5413:
.LBE5417:
.LBE5486:
.LBB5487:
.LBB5468:
.LBB5465:
.LBB5462:
	lis 3,.LC7@ha
.LVL150:
	la 3,.LC7@l(3)
.LBE5462:
.LBE5465:
	.loc 11 257 0
	bl atoi
	cntlzw 3,3
	srwi 3,3,5
	xori 3,3,1
.LBE5468:
.LBE5487:
	.loc 4 5017 0
	stb 3,692(31)
.LBE5492:
	.loc 4 5018 0
	lwz 0,124(1)
	lwz 29,76(1)
	mtlr 0
	lwz 30,80(1)
.LVL151:
	lwz 31,84(1)
.LVL152:
	lfd 28,88(1)
.LVL153:
	lfd 29,96(1)
	lfd 30,104(1)
	lfd 31,112(1)
	addi 1,1,120
	.cfi_restore 29
	.cfi_restore 30
	.cfi_restore 31
	.cfi_restore 60
	.cfi_restore 61
	.cfi_restore 62
	.cfi_restore 63
.LCFI43:
	.cfi_def_cfa_offset 0
	blr
	.cfi_endproc
.LFE2982:
	.size	_ZN12idCombatNode5SpawnEv, .-_ZN12idCombatNode5SpawnEv
	.align 2
	.globl _ZN11idMoveStateC2Ev
	.type	_ZN11idMoveStateC2Ev, @function
_ZN11idMoveStateC2Ev:
.LFB2811:
	.loc 4 55 0
	.cfi_startproc
.LVL154:
	stwu 1,-16(1)
.LCFI44:
	.cfi_def_cfa_offset 16
	mflr 0
.LBB5493:
	.loc 4 57 0
	li 4,108
.LBE5493:
	.loc 4 55 0
	stw 30,8(1)
.LBB5528:
.LBB5494:
.LBB5495:
	.loc 7 590 0
	li 30,0
	.cfi_offset 30, -8
	.cfi_register 65, 0
.LBE5495:
.LBE5494:
.LBE5528:
	.loc 4 55 0
	stw 0,20(1)
	stw 31,12(1)
	.loc 4 55 0
	mr 31,3
	.cfi_offset 31, -4
	.cfi_offset 65, 4
.LVL155:
.LBB5529:
.LBB5497:
.LBB5496:
	.loc 7 590 0
	stw 30,36(3)
.LVL156:
.LBE5496:
.LBE5497:
.LBB5498:
.LBB5499:
	stw 30,84(3)
.LBE5499:
.LBE5498:
	.loc 4 57 0
	lis 3,.LC18@ha
.LVL157:
	la 3,.LC18@l(3)
	crxor 6,6,6
	bl _Z15Sys_DebugPrintfPKcz
	.loc 4 60 0
	li 0,1
	stw 0,0(31)
.LBB5500:
.LBB5501:
	.loc 6 424 0
	lis 11,vec3_origin@ha
.LBE5501:
.LBE5500:
	.loc 4 61 0
	stw 30,4(31)
.LBB5507:
.LBB5502:
	.loc 6 424 0
	la 9,vec3_origin@l(11)
.LBE5502:
.LBE5507:
	.loc 4 62 0
	stw 30,8(31)
.LVL158:
.LBB5508:
.LBB5509:
	.loc 6 410 0
	lis 8,.LC0@ha
.LBE5509:
.LBE5508:
.LBB5512:
.LBB5503:
	.loc 6 424 0
	lwz 10,vec3_origin@l(11)
.LBE5503:
.LBE5512:
.LBB5513:
.LBB5514:
	.loc 6 416 0
	li 0,0
.LBE5514:
.LBE5513:
.LBB5516:
.LBB5504:
	.loc 6 425 0
	lwz 11,4(9)
.LBE5504:
.LBE5516:
.LBB5517:
.LBB5510:
	.loc 6 410 0
	lwz 8,.LC0@l(8)
.LBE5510:
.LBE5517:
.LBB5518:
.LBB5505:
	.loc 6 426 0
	lwz 9,8(9)
.LBE5505:
.LBE5518:
.LBB5519:
.LBB5515:
	.loc 6 416 0
	stw 0,20(31)
	stw 0,16(31)
	stw 0,12(31)
.LVL159:
.LBE5515:
.LBE5519:
.LBB5520:
.LBB5511:
	.loc 6 410 0
	stw 8,24(31)
	.loc 6 411 0
	stw 0,28(31)
	.loc 6 412 0
	stw 0,32(31)
.LVL160:
.LBE5511:
.LBE5520:
.LBB5521:
.LBB5522:
	.loc 7 606 0
	stw 30,36(31)
.LVL161:
.LBE5522:
.LBE5521:
.LBB5523:
.LBB5524:
	.loc 6 416 0
	stw 0,48(31)
	stw 0,44(31)
	stw 0,40(31)
.LBE5524:
.LBE5523:
	.loc 4 67 0
	stw 30,52(31)
	.loc 4 68 0
	stw 30,56(31)
	.loc 4 69 0
	stw 30,60(31)
	.loc 4 70 0
	stw 0,64(31)
	.loc 4 71 0
	stw 0,68(31)
	.loc 4 72 0
	stw 0,72(31)
	.loc 4 73 0
	stw 30,76(31)
	.loc 4 74 0
	stw 30,80(31)
.LVL162:
.LBB5525:
.LBB5526:
	.loc 7 606 0
	stw 30,84(31)
.LVL163:
.LBE5526:
.LBE5525:
.LBB5527:
.LBB5506:
	.loc 6 424 0
	stw 10,88(31)
	.loc 6 425 0
	stw 11,92(31)
	.loc 6 426 0
	stw 9,96(31)
.LBE5506:
.LBE5527:
	.loc 4 77 0
	stw 30,100(31)
	.loc 4 78 0
	stw 30,104(31)
.LBE5529:
	.loc 4 79 0
	lwz 0,20(1)
	lwz 30,8(1)
	mtlr 0
	lwz 31,12(1)
.LVL164:
	addi 1,1,16
.LCFI45:
	.cfi_def_cfa_offset 0
	.cfi_restore 31
	.cfi_restore 30
	blr
	.cfi_endproc
.LFE2811:
	.size	_ZN11idMoveStateC2Ev, .-_ZN11idMoveStateC2Ev
	.align 2
	.globl _ZNK11idMoveState4SaveEP10idSaveGame
	.type	_ZNK11idMoveState4SaveEP10idSaveGame, @function
_ZNK11idMoveState4SaveEP10idSaveGame:
.LFB2813:
	.loc 4 86 0
	.cfi_startproc
.LVL165:
	mflr 0
	stwu 1,-16(1)
.LCFI46:
	.cfi_def_cfa_offset 16
	.cfi_register 65, 0
	stw 30,8(1)
	mr 30,4
	.cfi_offset 30, -8
	stw 0,20(1)
	stw 31,12(1)
	.loc 4 86 0
	mr 31,3
	.cfi_offset 31, -4
	.cfi_offset 65, 4
	.loc 4 87 0
	lwz 4,0(3)
.LVL166:
	mr 3,30
.LVL167:
	bl _ZN10idSaveGame8WriteIntEi
	.loc 4 88 0
	lwz 4,4(31)
	mr 3,30
	bl _ZN10idSaveGame8WriteIntEi
	.loc 4 89 0
	lwz 4,8(31)
	mr 3,30
	bl _ZN10idSaveGame8WriteIntEi
	.loc 4 90 0
	mr 3,30
	addi 4,31,12
	bl _ZN10idSaveGame9WriteVec3ERK6idVec3
	.loc 4 91 0
	mr 3,30
	addi 4,31,24
	bl _ZN10idSaveGame9WriteVec3ERK6idVec3
.LVL168:
.LBB5530:
.LBB5531:
	.loc 7 595 0
	lwz 4,36(31)
	mr 3,30
	bl _ZN10idSaveGame8WriteIntEi
.LBE5531:
.LBE5530:
	.loc 4 93 0
	mr 3,30
	addi 4,31,40
	bl _ZN10idSaveGame9WriteVec3ERK6idVec3
	.loc 4 94 0
	lwz 4,52(31)
	mr 3,30
	bl _ZN10idSaveGame8WriteIntEi
	.loc 4 95 0
	lwz 4,56(31)
	mr 3,30
	bl _ZN10idSaveGame8WriteIntEi
	.loc 4 96 0
	lwz 4,60(31)
	mr 3,30
	bl _ZN10idSaveGame8WriteIntEi
	.loc 4 97 0
	lfs 1,64(31)
	mr 3,30
	bl _ZN10idSaveGame10WriteFloatEf
	.loc 4 98 0
	lfs 1,68(31)
	mr 3,30
	bl _ZN10idSaveGame10WriteFloatEf
	.loc 4 99 0
	lfs 1,72(31)
	mr 3,30
	bl _ZN10idSaveGame10WriteFloatEf
	.loc 4 100 0
	lwz 4,76(31)
	mr 3,30
	bl _ZN10idSaveGame8WriteIntEi
	.loc 4 101 0
	lwz 4,80(31)
	mr 3,30
	bl _ZN10idSaveGame8WriteIntEi
.LVL169:
.LBB5532:
.LBB5533:
	.loc 7 595 0
	lwz 4,84(31)
	mr 3,30
	bl _ZN10idSaveGame8WriteIntEi
.LBE5533:
.LBE5532:
	.loc 4 103 0
	mr 3,30
	addi 4,31,88
	bl _ZN10idSaveGame9WriteVec3ERK6idVec3
	.loc 4 104 0
	lwz 4,100(31)
	mr 3,30
	bl _ZN10idSaveGame8WriteIntEi
	.loc 4 105 0
	lwz 4,104(31)
	mr 3,30
	bl _ZN10idSaveGame8WriteIntEi
	.loc 4 106 0
	lwz 0,20(1)
	lwz 30,8(1)
.LVL170:
	mtlr 0
	lwz 31,12(1)
.LVL171:
	addi 1,1,16
.LCFI47:
	.cfi_def_cfa_offset 0
	.cfi_restore 31
	.cfi_restore 30
	blr
	.cfi_endproc
.LFE2813:
	.size	_ZNK11idMoveState4SaveEP10idSaveGame, .-_ZNK11idMoveState4SaveEP10idSaveGame
	.align 2
	.globl _ZN11idMoveState7RestoreEP13idRestoreGame
	.type	_ZN11idMoveState7RestoreEP13idRestoreGame, @function
_ZN11idMoveState7RestoreEP13idRestoreGame:
.LFB2814:
	.loc 4 113 0
	.cfi_startproc
.LVL172:
	stwu 1,-16(1)
.LCFI48:
	.cfi_def_cfa_offset 16
	mflr 0
	stw 31,12(1)
	mr 31,3
	.cfi_offset 31, -4
	.cfi_register 65, 0
	stw 30,8(1)
	.loc 4 114 0
	mr 3,4
.LVL173:
	.loc 4 113 0
	mr 30,4
	.cfi_offset 30, -8
	.loc 4 114 0
	mr 4,31
.LVL174:
	.loc 4 113 0
	stw 0,20(1)
	.loc 4 114 0
	.cfi_offset 65, 4
	bl _ZN13idRestoreGame7ReadIntERi
.LVL175:
	.loc 4 115 0
	mr 3,30
	addi 4,31,4
	bl _ZN13idRestoreGame7ReadIntERi
	.loc 4 116 0
	mr 3,30
	addi 4,31,8
	bl _ZN13idRestoreGame7ReadIntERi
	.loc 4 117 0
	mr 3,30
	addi 4,31,12
	bl _ZN13idRestoreGame8ReadVec3ER6idVec3
	.loc 4 118 0
	mr 3,30
	addi 4,31,24
	bl _ZN13idRestoreGame8ReadVec3ER6idVec3
.LVL176:
.LBB5534:
.LBB5535:
	.loc 7 600 0
	mr 3,30
	addi 4,31,36
	bl _ZN13idRestoreGame7ReadIntERi
.LBE5535:
.LBE5534:
	.loc 4 120 0
	mr 3,30
	addi 4,31,40
	bl _ZN13idRestoreGame8ReadVec3ER6idVec3
	.loc 4 121 0
	mr 3,30
	addi 4,31,52
	bl _ZN13idRestoreGame7ReadIntERi
	.loc 4 122 0
	mr 3,30
	addi 4,31,56
	bl _ZN13idRestoreGame7ReadIntERi
	.loc 4 123 0
	mr 3,30
	addi 4,31,60
	bl _ZN13idRestoreGame7ReadIntERi
	.loc 4 124 0
	mr 3,30
	addi 4,31,64
	bl _ZN13idRestoreGame9ReadFloatERf
	.loc 4 125 0
	mr 3,30
	addi 4,31,68
	bl _ZN13idRestoreGame9ReadFloatERf
	.loc 4 126 0
	mr 3,30
	addi 4,31,72
	bl _ZN13idRestoreGame9ReadFloatERf
	.loc 4 127 0
	mr 3,30
	addi 4,31,76
	bl _ZN13idRestoreGame7ReadIntERi
	.loc 4 128 0
	mr 3,30
	addi 4,31,80
	bl _ZN13idRestoreGame7ReadIntERi
.LVL177:
.LBB5536:
.LBB5537:
	.loc 7 600 0
	mr 3,30
	addi 4,31,84
	bl _ZN13idRestoreGame7ReadIntERi
.LBE5537:
.LBE5536:
	.loc 4 130 0
	mr 3,30
	addi 4,31,88
	bl _ZN13idRestoreGame8ReadVec3ER6idVec3
	.loc 4 131 0
	mr 3,30
	addi 4,31,100
	bl _ZN13idRestoreGame7ReadIntERi
	.loc 4 132 0
	mr 3,30
	addi 4,31,104
	bl _ZN13idRestoreGame7ReadIntERi
	.loc 4 133 0
	lwz 0,20(1)
	lwz 30,8(1)
.LVL178:
	mtlr 0
	lwz 31,12(1)
.LVL179:
	addi 1,1,16
.LCFI49:
	.cfi_def_cfa_offset 0
	.cfi_restore 31
	.cfi_restore 30
	blr
	.cfi_endproc
.LFE2814:
	.size	_ZN11idMoveState7RestoreEP13idRestoreGame, .-_ZN11idMoveState7RestoreEP13idRestoreGame
	.align 2
	.globl _ZN14idAASFindCoverC2ERK6idVec3
	.type	_ZN14idAASFindCoverC2ERK6idVec3, @function
_ZN14idAASFindCoverC2ERK6idVec3:
.LFB2819:
	.loc 4 140 0
	.cfi_startproc
	.cfi_personality 0,__gxx_personality_v0
	.cfi_lsda 0,.LLSDA2819
.LVL180:
	mflr 0
	stwu 1,-56(1)
.LCFI50:
	.cfi_def_cfa_offset 56
	.cfi_register 65, 0
.LBB5538:
	lis 9,_ZTV14idAASFindCover+8@ha
.LBE5538:
	stw 30,48(1)
	mr 30,4
	.cfi_offset 30, -8
	stw 0,60(1)
.LBB5567:
	la 0,_ZTV14idAASFindCover+8@l(9)
	.cfi_offset 65, 4
.LBE5567:
	stw 31,52(1)
	mr 31,3
	.cfi_offset 31, -4
.LVL181:
	stw 29,44(1)
.LBB5568:
.LBB5539:
	.loc 4 142 0
	li 4,28
.LVL182:
.LBE5539:
	.loc 4 140 0
	stw 0,0(3)
.LBB5563:
	.loc 4 142 0
	lis 3,.LC19@ha
.LVL183:
	la 3,.LC19@l(3)
.LEHB4:
	.cfi_offset 29, -12
	crxor 6,6,6
	bl _Z15Sys_DebugPrintfPKcz
.LVL184:
.LBB5540:
.LBB5541:
	.loc 6 431 0
	lis 9,.LC1@ha
	lfs 11,0(30)
	lfs 0,.LC1@l(9)
.LBE5541:
.LBE5540:
.LBB5545:
.LBB5546:
	.loc 6 452 0
	lis 9,.LC20@ha
.LBE5546:
.LBE5545:
.LBB5551:
.LBB5542:
	.loc 6 431 0
	lfs 12,4(30)
.LBE5542:
.LBE5551:
	.loc 4 149 0
	lis 29,gameLocal+2426068@ha
.LBB5552:
.LBB5543:
	.loc 6 431 0
	lfs 13,8(30)
.LVL185:
	fsubs 8,11,0
.LBE5543:
.LBE5552:
.LBB5553:
.LBB5547:
	.loc 6 452 0
	lfs 10,.LC20@l(9)
.LBE5547:
.LBE5553:
.LBB5554:
.LBB5544:
	.loc 6 431 0
	fsubs 9,12,0
.LBE5544:
.LBE5554:
.LBB5555:
.LBB5548:
	.loc 6 452 0
	fadds 11,11,0
.LBE5548:
.LBE5555:
	.loc 4 149 0
	addi 30,31,12
.LVL186:
.LBB5556:
.LBB5549:
	.loc 6 452 0
	fadds 0,12,0
.LBE5549:
.LBE5556:
	.loc 4 149 0
	la 29,gameLocal+2426068@l(29)
.LBB5557:
.LBB5550:
	.loc 6 452 0
	fadds 10,13,10
.LBE5550:
.LBE5557:
	.loc 4 149 0
	mr 3,29
	addi 4,1,8
	mr 5,30
	li 6,4
.LBB5558:
.LBB5559:
.LBB5560:
	.loc 6 424 0
	stfs 8,8(1)
	.loc 6 425 0
	stfs 9,12(1)
	.loc 6 426 0
	stfs 13,16(1)
.LVL187:
.LBE5560:
.LBE5559:
.LBB5561:
.LBB5562:
	.loc 6 424 0
	stfs 11,20(1)
	.loc 6 425 0
	stfs 0,24(1)
	.loc 6 426 0
	stfs 10,28(1)
.LBE5562:
.LBE5561:
.LBE5558:
	.loc 4 149 0
	bl _ZNK5idPVS11GetPVSAreasERK8idBoundsPii
.LVL188:
	mr 5,3
.LVL189:
	.loc 4 150 0
	mr 4,30
	mr 3,29
.LVL190:
	li 6,0
	bl _ZNK5idPVS15SetupCurrentPVSEPKii9pvsType_t
.LEHE4:
.LVL191:
	.loc 4 150 0 is_stmt 0 discriminator 1
	stw 3,4(31)
	stw 4,8(31)
.LBE5563:
.LBE5568:
	.loc 4 151 0 is_stmt 1 discriminator 1
	lwz 0,60(1)
	lwz 29,44(1)
	mtlr 0
	lwz 30,48(1)
	lwz 31,52(1)
.LVL192:
	addi 1,1,56
	.cfi_remember_state
.LCFI51:
	.cfi_def_cfa_offset 0
	.cfi_restore 31
	.cfi_restore 30
	.cfi_restore 29
	blr
.LVL193:
.L91:
.LCFI52:
	.cfi_restore_state
.LBB5569:
.LBB5564:
.LBB5565:
.LBB5566:
	.loc 2 69 0
	lis 9,_ZTV13idAASCallback+8@ha
	la 0,_ZTV13idAASCallback+8@l(9)
	stw 0,0(31)
.LEHB5:
	bl _Unwind_Resume
.LEHE5:
.LBE5566:
.LBE5565:
.LBE5564:
.LBE5569:
	.cfi_endproc
.LFE2819:
	.section	.gcc_except_table
.LLSDA2819:
	.byte	0xff
	.byte	0xff
	.byte	0x1
	.uleb128 .LLSDACSE2819-.LLSDACSB2819
.LLSDACSB2819:
	.uleb128 .LEHB4-.LFB2819
	.uleb128 .LEHE4-.LEHB4
	.uleb128 .L91-.LFB2819
	.uleb128 0
	.uleb128 .LEHB5-.LFB2819
	.uleb128 .LEHE5-.LEHB5
	.uleb128 0
	.uleb128 0
.LLSDACSE2819:
	.section	".text"
	.size	_ZN14idAASFindCoverC2ERK6idVec3, .-_ZN14idAASFindCoverC2ERK6idVec3
	.align 2
	.globl _ZN23idAASFindAreaOutOfRangeC2ERK6idVec3f
	.type	_ZN23idAASFindAreaOutOfRangeC2ERK6idVec3f, @function
_ZN23idAASFindAreaOutOfRangeC2ERK6idVec3f:
.LFB2827:
	.loc 4 188 0
	.cfi_startproc
	.cfi_personality 0,__gxx_personality_v0
	.cfi_lsda 0,.LLSDA2827
.LVL194:
	mflr 0
	stwu 1,-24(1)
.LCFI53:
	.cfi_def_cfa_offset 24
	.cfi_register 65, 0
.LBB5570:
	lis 9,_ZTV23idAASFindAreaOutOfRange+8@ha
.LBE5570:
	stfd 31,16(1)
	fmr 31,1
	.cfi_offset 63, -8
	stw 0,28(1)
.LBB5580:
	la 0,_ZTV23idAASFindAreaOutOfRange+8@l(9)
	.cfi_offset 65, 4
.LBE5580:
	stw 30,8(1)
	mr 30,4
	.cfi_offset 30, -16
	stw 31,12(1)
	.loc 4 188 0
	mr 31,3
	.cfi_offset 31, -12
.LVL195:
.LBB5581:
	stw 0,0(3)
	.loc 4 190 0
	lis 3,.LC21@ha
.LVL196:
	la 3,.LC21@l(3)
	li 4,20
.LVL197:
.LEHB6:
	crxor 6,6,6
	bl _Z15Sys_DebugPrintfPKcz
.LEHE6:
.LVL198:
.LBB5571:
.LBB5572:
	.loc 6 424 0
	lwz 0,0(30)
.LBE5572:
.LBE5571:
	.loc 4 194 0
	fmuls 31,31,31
.LVL199:
.LBB5575:
.LBB5573:
	.loc 6 424 0
	stw 0,4(31)
	.loc 6 425 0
	lwz 0,4(30)
	stw 0,8(31)
	.loc 6 426 0
	lwz 0,8(30)
.LBE5573:
.LBE5575:
	.loc 4 194 0
	stfs 31,16(31)
.LBB5576:
.LBB5574:
	.loc 6 426 0
	stw 0,12(31)
.LBE5574:
.LBE5576:
.LBE5581:
	.loc 4 195 0
	lwz 0,28(1)
	lwz 30,8(1)
.LVL200:
	mtlr 0
	lwz 31,12(1)
.LVL201:
	lfd 31,16(1)
	addi 1,1,24
	.cfi_remember_state
.LCFI54:
	.cfi_def_cfa_offset 0
	.cfi_restore 63
	.cfi_restore 31
	.cfi_restore 30
	blr
.LVL202:
.L95:
.LCFI55:
	.cfi_restore_state
.LBB5582:
.LBB5577:
.LBB5578:
.LBB5579:
	.loc 2 69 0
	lis 9,_ZTV13idAASCallback+8@ha
	la 0,_ZTV13idAASCallback+8@l(9)
	stw 0,0(31)
.LEHB7:
	bl _Unwind_Resume
.LEHE7:
.LBE5579:
.LBE5578:
.LBE5577:
.LBE5582:
	.cfi_endproc
.LFE2827:
	.section	.gcc_except_table
.LLSDA2827:
	.byte	0xff
	.byte	0xff
	.byte	0x1
	.uleb128 .LLSDACSE2827-.LLSDACSB2827
.LLSDACSB2827:
	.uleb128 .LEHB6-.LFB2827
	.uleb128 .LEHE6-.LEHB6
	.uleb128 .L95-.LFB2827
	.uleb128 0
	.uleb128 .LEHB7-.LFB2827
	.uleb128 .LEHE7-.LEHB7
	.uleb128 0
	.uleb128 0
.LLSDACSE2827:
	.section	".text"
	.size	_ZN23idAASFindAreaOutOfRangeC2ERK6idVec3f, .-_ZN23idAASFindAreaOutOfRangeC2ERK6idVec3f
	.align 2
	.globl _ZN23idAASFindAttackPositionC2EPK4idAIRK6idMat3P8idEntityRK6idVec3SA_
	.type	_ZN23idAASFindAttackPositionC2EPK4idAIRK6idMat3P8idEntityRK6idVec3SA_, @function
_ZN23idAASFindAttackPositionC2EPK4idAIRK6idMat3P8idEntityRK6idVec3SA_:
.LFB2837:
	.loc 4 226 0
	.cfi_startproc
	.cfi_personality 0,__gxx_personality_v0
	.cfi_lsda 0,.LLSDA2837
.LVL203:
	mflr 0
	stwu 1,-64(1)
.LCFI56:
	.cfi_def_cfa_offset 64
	.cfi_register 65, 0
.LBB5634:
	lis 9,_ZTV23idAASFindAttackPosition+8@ha
.LBE5634:
	stw 26,40(1)
	mr 26,6
	.cfi_offset 26, -24
	stw 0,68(1)
.LBB5724:
	la 0,_ZTV23idAASFindAttackPosition+8@l(9)
	.cfi_offset 65, 4
.LBE5724:
	stw 27,44(1)
	mr 27,4
	.cfi_offset 27, -20
	stw 28,48(1)
.LBB5725:
.LBB5635:
	.loc 4 228 0
	li 4,120
.LVL204:
.LBE5635:
.LBE5725:
	.loc 4 226 0
	stw 29,52(1)
	mr 28,5
	.cfi_offset 29, -12
	.cfi_offset 28, -16
	stw 30,56(1)
	mr 29,8
	stw 31,60(1)
	.loc 4 226 0
	mr 31,3
	.cfi_offset 31, -4
	.cfi_offset 30, -8
.LVL205:
.LBB5726:
	stw 0,0(3)
.LBB5719:
	.loc 4 228 0
	lis 3,.LC22@ha
.LVL206:
	la 3,.LC22@l(3)
.LBE5719:
.LBE5726:
	.loc 4 226 0
	mr 30,7
.LEHB8:
.LBB5727:
.LBB5720:
	.loc 4 228 0
	crxor 6,6,6
	bl _Z15Sys_DebugPrintfPKcz
.LVL207:
	.loc 4 233 0
	stw 26,8(31)
.LVL208:
.LBB5636:
.LBB5637:
	.file 13 "d:/Data/Nintendo/DoomGX/src/game/ai/../../idlib/../idlib/math/Matrix.h"
	.loc 13 333 0
	addi 8,31,60
.LVL209:
	li 10,0
.LBE5637:
.LBE5636:
.LBB5645:
.LBB5646:
	.loc 6 424 0
	lwz 0,0(30)
	stw 0,36(31)
	.loc 6 425 0
	lwz 0,4(30)
	stw 0,40(31)
	.loc 6 426 0
	lwz 0,8(30)
	stw 0,44(31)
.LVL210:
.LBE5646:
.LBE5645:
.LBB5647:
.LBB5648:
	.loc 6 424 0
	lwz 0,0(29)
	stw 0,48(31)
	.loc 6 425 0
	lwz 0,4(29)
	stw 0,52(31)
	.loc 6 426 0
	lwz 0,8(29)
.LBE5648:
.LBE5647:
	.loc 4 236 0
	stw 27,4(31)
.LVL211:
.LBB5650:
.LBB5649:
	.loc 6 426 0
	stw 0,56(31)
.L97:
.LBE5649:
.LBE5650:
.LBB5651:
.LBB5644:
.LBB5638:
.LBB5639:
	.loc 6 424 0
	mr 11,28
	mr 9,8
	lwzux 0,11,10
.LBE5639:
.LBE5638:
	.loc 13 333 0
	cmpwi 7,10,24
.LBB5642:
.LBB5640:
	.loc 6 424 0
	stwux 0,9,10
.LBE5640:
.LBE5642:
	.loc 13 333 0
	addi 10,10,12
.LBB5643:
.LBB5641:
	.loc 6 425 0
	lwz 0,4(11)
	stw 0,4(9)
	.loc 6 426 0
	lwz 0,8(11)
	stw 0,8(9)
.LBE5641:
.LBE5643:
	.loc 13 333 0
	bne+ 7,.L97
.LVL212:
.LBE5644:
.LBE5651:
.LBB5652:
.LBB5653:
.LBB5654:
	.loc 6 424 0
	lis 9,.LC23@ha
	lis 29,.LC20@ha
.LVL213:
	lwz 9,.LC23@l(9)
.LBE5654:
.LBE5653:
.LBE5652:
	.loc 4 240 0
	mr 3,27
.LBB5657:
.LBB5656:
.LBB5655:
	.loc 6 424 0
	lwz 0,.LC20@l(29)
	stw 9,12(31)
	.loc 6 425 0
	stw 9,16(31)
	.loc 6 426 0
	lis 9,.LC24@ha
	lwz 9,.LC24@l(9)
	.loc 6 424 0
	stw 0,24(31)
	.loc 6 426 0
	stw 9,20(31)
.LVL214:
	.loc 6 425 0
	stw 0,28(31)
	.loc 6 426 0
	stw 0,32(31)
.LBE5655:
.LBE5656:
.LBE5657:
	.loc 4 240 0
	bl _ZNK8idEntity10GetPhysicsEv
.LVL215:
	lwz 9,0(3)
	li 4,0
	lwz 0,132(9)
	mtctr 0
	bctrl
.LBB5658:
.LBB5659:
.LBB5660:
	.loc 6 456 0 discriminator 1
	lfs 0,0(3)
.LBE5660:
.LBE5659:
.LBE5658:
	.loc 4 240 0 discriminator 1
	mr 9,3
.LVL216:
.LBB5685:
.LBB5669:
.LBB5661:
	.loc 6 456 0 discriminator 1
	lfs 12,12(31)
.LBE5661:
.LBE5669:
.LBE5685:
.LBB5686:
.LBB5687:
	.loc 6 431 0 discriminator 1
	lis 11,.LC1@ha
.LBE5687:
.LBE5686:
.LBB5690:
.LBB5670:
.LBB5662:
	.loc 6 457 0 discriminator 1
	lfs 13,16(31)
.LBE5662:
.LBE5670:
.LBE5690:
	.loc 4 244 0 discriminator 1
	lis 28,gameLocal+2426068@ha
.LVL217:
.LBB5691:
.LBB5671:
.LBB5663:
	.loc 6 456 0 discriminator 1
	fadds 0,12,0
	.loc 6 458 0 discriminator 1
	lfs 8,20(31)
.LBE5663:
.LBE5671:
.LBB5672:
.LBB5673:
	.loc 6 456 0 discriminator 1
	lfs 9,24(31)
.LBE5673:
.LBE5672:
.LBE5691:
	.loc 4 244 0 discriminator 1
	la 28,gameLocal+2426068@l(28)
.LBB5692:
.LBB5677:
.LBB5674:
	.loc 6 457 0 discriminator 1
	lfs 11,28(31)
.LBE5674:
.LBE5677:
.LBE5692:
	.loc 4 244 0 discriminator 1
	addi 4,1,8
.LBB5693:
.LBB5678:
.LBB5664:
	.loc 6 456 0 discriminator 1
	stfs 0,12(31)
.LBE5664:
.LBE5678:
.LBE5693:
	.loc 4 244 0 discriminator 1
	li 6,4
.LBB5694:
.LBB5679:
.LBB5675:
	.loc 6 458 0 discriminator 1
	lfs 12,32(31)
.LBE5675:
.LBE5679:
.LBB5680:
.LBB5665:
	.loc 6 457 0 discriminator 1
	lfs 0,4(3)
.LBE5665:
.LBE5680:
.LBE5694:
.LBB5695:
.LBB5696:
	.loc 6 452 0 discriminator 1
	lfs 10,.LC20@l(29)
.LBE5696:
.LBE5695:
	.loc 4 244 0 discriminator 1
	addi 29,31,104
.LBB5700:
.LBB5681:
.LBB5666:
	.loc 6 457 0 discriminator 1
	fadds 13,13,0
.LBE5666:
.LBE5681:
.LBE5700:
.LBB5701:
.LBB5688:
	.loc 6 431 0 discriminator 1
	lfs 0,.LC1@l(11)
.LBE5688:
.LBE5701:
	.loc 4 244 0 discriminator 1
	mr 5,29
.LBB5702:
.LBB5682:
.LBB5667:
	.loc 6 457 0 discriminator 1
	stfs 13,16(31)
	.loc 6 458 0 discriminator 1
	lfs 13,8(3)
.LBE5667:
.LBE5682:
.LBE5702:
	.loc 4 244 0 discriminator 1
	mr 3,28
.LVL218:
.LBB5703:
.LBB5683:
.LBB5668:
	.loc 6 458 0 discriminator 1
	fadds 13,8,13
	stfs 13,20(31)
.LVL219:
.LBE5668:
.LBE5683:
.LBB5684:
.LBB5676:
	.loc 6 456 0 discriminator 1
	lfs 13,0(9)
	fadds 13,9,13
	stfs 13,24(31)
	.loc 6 457 0 discriminator 1
	lfs 13,4(9)
	fadds 13,11,13
	stfs 13,28(31)
	.loc 6 458 0 discriminator 1
	lfs 13,8(9)
	fadds 13,12,13
	stfs 13,32(31)
.LVL220:
.LBE5676:
.LBE5684:
.LBE5703:
.LBB5704:
.LBB5689:
	.loc 6 431 0 discriminator 1
	lfs 11,0(30)
	lfs 12,4(30)
	lfs 13,8(30)
.LVL221:
	fsubs 8,11,0
	fsubs 9,12,0
.LBE5689:
.LBE5704:
.LBB5705:
.LBB5697:
	.loc 6 452 0 discriminator 1
	fadds 11,11,0
.LBE5697:
.LBE5705:
.LBB5706:
.LBB5707:
.LBB5708:
	.loc 6 426 0 discriminator 1
	stfs 13,16(1)
.LVL222:
.LBE5708:
.LBE5707:
.LBE5706:
.LBB5715:
.LBB5698:
	.loc 6 452 0 discriminator 1
	fadds 0,12,0
.LBE5698:
.LBE5715:
.LBB5716:
.LBB5711:
.LBB5709:
	.loc 6 424 0 discriminator 1
	stfs 8,8(1)
.LBE5709:
.LBE5711:
.LBE5716:
.LBB5717:
.LBB5699:
	.loc 6 452 0 discriminator 1
	fadds 10,13,10
.LBE5699:
.LBE5717:
.LBB5718:
.LBB5712:
.LBB5710:
	.loc 6 425 0 discriminator 1
	stfs 9,12(1)
.LBE5710:
.LBE5712:
.LBB5713:
.LBB5714:
	.loc 6 424 0 discriminator 1
	stfs 11,20(1)
	.loc 6 425 0 discriminator 1
	stfs 0,24(1)
	.loc 6 426 0 discriminator 1
	stfs 10,28(1)
.LBE5714:
.LBE5713:
.LBE5718:
	.loc 4 244 0 discriminator 1
	bl _ZNK5idPVS11GetPVSAreasERK8idBoundsPii
.LVL223:
	.loc 4 244 0 is_stmt 0
	mr 5,3
.LVL224:
	.loc 4 245 0 is_stmt 1
	mr 4,29
	mr 3,28
.LVL225:
	li 6,0
	bl _ZNK5idPVS15SetupCurrentPVSEPKii9pvsType_t
.LEHE8:
.LVL226:
	.loc 4 245 0 is_stmt 0 discriminator 1
	stw 3,96(31)
	stw 4,100(31)
.LBE5720:
.LBE5727:
	.loc 4 246 0 is_stmt 1 discriminator 1
	lwz 0,68(1)
	lwz 26,40(1)
.LVL227:
	mtlr 0
	lwz 27,44(1)
.LVL228:
	lwz 28,48(1)
	lwz 29,52(1)
	lwz 30,56(1)
.LVL229:
	lwz 31,60(1)
.LVL230:
	addi 1,1,64
	.cfi_remember_state
.LCFI57:
	.cfi_def_cfa_offset 0
	.cfi_restore 31
	.cfi_restore 30
	.cfi_restore 29
	.cfi_restore 28
	.cfi_restore 27
	.cfi_restore 26
	blr
.LVL231:
.L100:
.LCFI58:
	.cfi_restore_state
.LBB5728:
.LBB5721:
.LBB5722:
.LBB5723:
	.loc 2 69 0
	lis 9,_ZTV13idAASCallback+8@ha
	la 0,_ZTV13idAASCallback+8@l(9)
	stw 0,0(31)
.LEHB9:
	bl _Unwind_Resume
.LEHE9:
.LBE5723:
.LBE5722:
.LBE5721:
.LBE5728:
	.cfi_endproc
.LFE2837:
	.section	.gcc_except_table
.LLSDA2837:
	.byte	0xff
	.byte	0xff
	.byte	0x1
	.uleb128 .LLSDACSE2837-.LLSDACSB2837
.LLSDACSB2837:
	.uleb128 .LEHB8-.LFB2837
	.uleb128 .LEHE8-.LEHB8
	.uleb128 .L100-.LFB2837
	.uleb128 0
	.uleb128 .LEHB9-.LFB2837
	.uleb128 .LEHE9-.LEHB9
	.uleb128 0
	.uleb128 0
.LLSDACSE2837:
	.section	".text"
	.size	_ZN23idAASFindAttackPositionC2EPK4idAIRK6idMat3P8idEntityRK6idVec3SA_, .-_ZN23idAASFindAttackPositionC2EPK4idAIRK6idMat3P8idEntityRK6idVec3SA_
	.align 2
	.globl _ZNK4idAI4SaveEP10idSaveGame
	.type	_ZNK4idAI4SaveEP10idSaveGame, @function
_ZNK4idAI4SaveEP10idSaveGame:
.LFB2858:
	.loc 4 425 0
	.cfi_startproc
	.cfi_personality 0,__gxx_personality_v0
	.cfi_lsda 0,.LLSDA2858
.LVL232:
	mflr 0
	stwu 1,-64(1)
.LCFI59:
	.cfi_def_cfa_offset 64
	.cfi_register 65, 0
	stw 26,40(1)
	stw 0,68(1)
	stw 30,56(1)
	mr 30,4
	.cfi_offset 30, -8
	.cfi_offset 65, 4
	.cfi_offset 26, -24
	stw 31,60(1)
	mr 31,3
	.cfi_offset 31, -4
	stw 27,44(1)
.LBB5769:
	.loc 4 445 0
	addi 26,31,4216
.LBE5769:
	.loc 4 425 0
	stw 28,48(1)
	stw 29,52(1)
.LBB5822:
	.loc 4 428 0
	lwz 4,3948(3)
.LVL233:
	mr 3,30
.LVL234:
.LEHB10:
	.cfi_offset 29, -12
	.cfi_offset 28, -16
	.cfi_offset 27, -20
	bl _ZN10idSaveGame8WriteIntEi
	.loc 4 429 0
	addi 3,31,3952
	mr 4,30
	bl _ZNK11idMoveState4SaveEP10idSaveGame
	.loc 4 430 0
	mr 4,30
	addi 3,31,4060
	bl _ZNK11idMoveState4SaveEP10idSaveGame
	.loc 4 431 0
	lfs 1,4168(31)
	mr 3,30
	bl _ZN10idSaveGame10WriteFloatEf
	.loc 4 432 0
	lbz 4,4172(31)
	mr 3,30
	bl _ZN10idSaveGame9WriteBoolEb
	.loc 4 433 0
	lfs 1,4176(31)
	mr 3,30
	bl _ZN10idSaveGame10WriteFloatEf
	.loc 4 434 0
	lwz 4,4180(31)
	mr 3,30
	bl _ZN10idSaveGame8WriteIntEi
	.loc 4 435 0
	lwz 4,4184(31)
	mr 3,30
	bl _ZN10idSaveGame8WriteIntEi
	.loc 4 437 0
	lfs 1,4188(31)
	mr 3,30
	bl _ZN10idSaveGame10WriteFloatEf
	.loc 4 438 0
	lfs 1,4192(31)
	mr 3,30
	bl _ZN10idSaveGame10WriteFloatEf
	.loc 4 439 0
	lfs 1,4196(31)
	mr 3,30
	bl _ZN10idSaveGame10WriteFloatEf
	.loc 4 440 0
	lfs 1,4200(31)
	mr 3,30
	bl _ZN10idSaveGame10WriteFloatEf
	.loc 4 441 0
	lfs 1,4204(31)
	mr 3,30
	bl _ZN10idSaveGame10WriteFloatEf
	.loc 4 442 0
	lfs 1,4208(31)
	mr 3,30
	bl _ZN10idSaveGame10WriteFloatEf
	.loc 4 443 0
	lfs 1,4212(31)
	mr 3,30
	bl _ZN10idSaveGame10WriteFloatEf
	.loc 4 445 0
	mr 4,26
	mr 3,30
	bl _ZN10idSaveGame17WriteStaticObjectERK7idClass
	.loc 4 447 0
	lfs 1,4496(31)
	mr 3,30
	bl _ZN10idSaveGame10WriteFloatEf
	.loc 4 448 0
	lfs 1,4500(31)
	mr 3,30
	bl _ZN10idSaveGame10WriteFloatEf
	.loc 4 449 0
	lfs 1,4504(31)
	mr 3,30
	bl _ZN10idSaveGame10WriteFloatEf
	.loc 4 450 0
	lfs 1,4508(31)
	mr 3,30
	bl _ZN10idSaveGame10WriteFloatEf
	.loc 4 451 0
	lwz 4,4512(31)
	mr 3,30
	bl _ZN10idSaveGame8WriteIntEi
	.loc 4 452 0
	lfs 1,4516(31)
	mr 3,30
	bl _ZN10idSaveGame10WriteFloatEf
	.loc 4 453 0
	lfs 1,4520(31)
	mr 3,30
	bl _ZN10idSaveGame10WriteFloatEf
	.loc 4 454 0
	lfs 1,4524(31)
	mr 3,30
	bl _ZN10idSaveGame10WriteFloatEf
	.loc 4 455 0
	lfs 1,4528(31)
	mr 3,30
	bl _ZN10idSaveGame10WriteFloatEf
	.loc 4 456 0
	lfs 1,4532(31)
	mr 3,30
	bl _ZN10idSaveGame10WriteFloatEf
	.loc 4 457 0
	lfs 1,4536(31)
	mr 3,30
	bl _ZN10idSaveGame10WriteFloatEf
	.loc 4 458 0
	lfs 1,4540(31)
	mr 3,30
	bl _ZN10idSaveGame10WriteFloatEf
	.loc 4 460 0
	lbz 4,4544(31)
	mr 3,30
	bl _ZN10idSaveGame9WriteBoolEb
	.loc 4 461 0
	lbz 4,4545(31)
	mr 3,30
	bl _ZN10idSaveGame9WriteBoolEb
	.loc 4 462 0
	lbz 4,4546(31)
	mr 3,30
	bl _ZN10idSaveGame9WriteBoolEb
	.loc 4 463 0
	lbz 4,4547(31)
	mr 3,30
	bl _ZN10idSaveGame9WriteBoolEb
	.loc 4 465 0
	lbz 4,4548(31)
	mr 3,30
	bl _ZN10idSaveGame9WriteBoolEb
	.loc 4 466 0
	lwz 4,4552(31)
	mr 3,30
	bl _ZN10idSaveGame8WriteIntEi
	.loc 4 467 0
	lwz 4,4556(31)
	mr 3,30
	bl _ZN10idSaveGame8WriteIntEi
	.loc 4 468 0
	lfs 1,4560(31)
	mr 3,30
	bl _ZN10idSaveGame10WriteFloatEf
	.loc 4 469 0
	lfs 1,4564(31)
	mr 3,30
	bl _ZN10idSaveGame10WriteFloatEf
	.loc 4 471 0
	lwz 4,4568(31)
	mr 3,30
	bl _ZN10idSaveGame8WriteIntEi
.LVL235:
	.loc 4 472 0
	lwz 0,4568(31)
	cmpwi 7,0,0
	ble- 7,.L103
	li 28,0
	li 29,0
.LVL236:
.L104:
.LBB5770:
.LBB5771:
	.file 14 "d:/Data/Nintendo/DoomGX/src/game/ai/../../idlib/../idlib/containers/List.h"
	.loc 14 573 0 discriminator 2
	lwz 4,4580(31)
.LBE5771:
.LBE5770:
	.loc 4 473 0 discriminator 2
	mr 3,30
	.loc 4 472 0 discriminator 2
	addi 29,29,1
.LVL237:
	.loc 4 473 0 discriminator 2
	add 4,4,28
	.loc 4 472 0 discriminator 2
	addi 28,28,12
	.loc 4 473 0 discriminator 2
	bl _ZN10idSaveGame9WriteVec3ERK6idVec3
.LEHE10:
.LVL238:
	.loc 4 472 0 discriminator 2
	lwz 0,4568(31)
	cmpw 7,0,29
	bgt+ 7,.L104
.LVL239:
.L103:
.LBB5772:
.LBB5773:
.LBB5774:
	.file 15 "d:/Data/Nintendo/DoomGX/src/game/ai/../../idlib/../idlib/Str.h"
	.loc 15 357 0
	li 9,20
.LBE5774:
.LBE5773:
.LBE5772:
.LBB5781:
.LBB5782:
	.loc 11 231 0
	lis 4,.LC25@ha
.LBE5782:
.LBE5781:
.LBB5799:
.LBB5778:
.LBB5775:
	.loc 15 356 0
	li 0,0
	.loc 15 357 0
	stw 9,16(1)
.LBE5775:
.LBE5778:
.LBE5799:
.LBB5800:
.LBB5794:
	.loc 11 231 0
	addi 3,31,100
.LBE5794:
.LBE5800:
.LBB5801:
.LBB5779:
.LBB5776:
	.loc 15 358 0
	addi 9,1,20
.LBE5776:
.LBE5779:
.LBE5801:
.LBB5802:
.LBB5795:
	.loc 11 231 0
	la 4,.LC25@l(4)
.LBE5795:
.LBE5802:
.LBB5803:
.LBB5780:
.LBB5777:
	.loc 15 356 0
	stw 0,8(1)
	.loc 15 358 0
	stw 9,12(1)
	addi 27,1,8
	.loc 15 359 0
	stb 0,20(1)
.LVL240:
.LEHB11:
.LBE5777:
.LBE5780:
.LBE5803:
.LBB5804:
.LBB5796:
	.loc 11 231 0
	bl _ZNK6idDict7FindKeyEPKc
.LVL241:
	.loc 11 232 0
	cmpwi 0,3,0
	beq- 0,.L105
.LBE5796:
	.loc 4 5138 0
	lwz 28,4(3)
.LVL242:
	addi 27,1,8
.LBB5797:
.LBB5783:
.LBB5784:
.LBB5785:
.LBB5786:
	.loc 15 350 0
	lwz 0,16(1)
.LBE5786:
.LBE5785:
.LBE5784:
	.loc 4 5138 0
	lwz 29,0(28)
.LBB5791:
	.loc 15 534 0
	addi 4,29,1
.LVL243:
.LBB5789:
.LBB5787:
	.loc 15 350 0
	cmpw 7,4,0
	bgt- 7,.L120
.LVL244:
.L106:
.LBE5787:
.LBE5789:
	.loc 15 535 0
	lwz 3,12(1)
	mr 5,29
	lwz 4,4(28)
	bl memcpy
	.loc 15 536 0
	lwz 9,12(1)
	li 0,0
	stbx 0,9,29
	.loc 15 537 0
	stw 29,8(1)
.LVL245:
.L107:
.LBE5791:
.LBE5783:
.LBE5797:
.LBE5804:
	.loc 4 478 0
	lwz 4,12(1)
	mr 3,30
	bl _ZN10idSaveGame11WriteStringEPKc
	.loc 4 479 0
	lfs 1,4592(31)
	mr 3,30
	bl _ZN10idSaveGame10WriteFloatEf
	.loc 4 480 0
	lfs 1,4596(31)
	mr 3,30
	bl _ZN10idSaveGame10WriteFloatEf
	.loc 4 481 0
	mr 3,30
	addi 4,31,4600
	bl _ZN10idSaveGame9WriteVec3ERK6idVec3
	.loc 4 482 0
	mr 3,30
	addi 4,31,4612
	bl _ZN10idSaveGame9WriteVec3ERK6idVec3
.LVL246:
.LBB5805:
.LBB5806:
	.loc 7 595 0
	lwz 4,4624(31)
	mr 3,30
	bl _ZN10idSaveGame8WriteIntEi
.LVL247:
.LBE5806:
.LBE5805:
	.loc 4 484 0
	lwz 4,4632(31)
	mr 3,30
	bl _ZN10idSaveGame11WriteStringEPKc
	.loc 4 486 0
	lwz 4,4660(31)
	mr 3,30
	bl _ZN10idSaveGame16WriteSoundShaderEPK13idSoundShader
	.loc 4 487 0
	lwz 4,4664(31)
	mr 3,30
	bl _ZN10idSaveGame8WriteIntEi
	.loc 4 488 0
	lwz 4,4668(31)
	mr 3,30
	bl _ZN10idSaveGame8WriteIntEi
	.loc 4 489 0
	lwz 4,4672(31)
	mr 3,30
	bl _ZN10idSaveGame8WriteIntEi
	.loc 4 490 0
	lwz 4,4676(31)
	mr 3,30
	bl _ZN10idSaveGame8WriteIntEi
.LVL248:
.LBB5807:
.LBB5808:
	.loc 7 595 0
	lwz 4,4680(31)
	mr 3,30
	bl _ZN10idSaveGame8WriteIntEi
.LBE5808:
.LBE5807:
	.loc 4 493 0
	lwz 4,4684(31)
	mr 3,30
	bl _ZN10idSaveGame8WriteIntEi
	.loc 4 494 0
	lwz 4,4688(31)
	mr 3,30
	bl _ZN10idSaveGame8WriteIntEi
	.loc 4 496 0
	lbz 4,4692(31)
	mr 3,30
	bl _ZN10idSaveGame9WriteBoolEb
.LVL249:
.LBB5809:
.LBB5810:
	.loc 7 595 0
	lwz 4,4696(31)
	mr 3,30
	bl _ZN10idSaveGame8WriteIntEi
.LBE5810:
.LBE5809:
	.loc 4 498 0
	mr 3,30
	addi 4,31,4700
	bl _ZN10idSaveGame9WriteVec3ERK6idVec3
	.loc 4 499 0
	lwz 4,4712(31)
	mr 3,30
	bl _ZN10idSaveGame8WriteIntEi
	.loc 4 500 0
	lwz 4,4716(31)
	mr 3,30
	bl _ZN10idSaveGame8WriteIntEi
	.loc 4 501 0
	lwz 4,4720(31)
	mr 3,30
	bl _ZN10idSaveGame8WriteIntEi
	.loc 4 502 0
	mr 3,30
	addi 4,31,4724
	bl _ZN10idSaveGame11WriteAnglesERK8idAngles
	.loc 4 503 0
	mr 3,30
	addi 4,31,4736
	bl _ZN10idSaveGame11WriteAnglesERK8idAngles
	.loc 4 504 0
	mr 3,30
	addi 4,31,4748
	bl _ZN10idSaveGame11WriteAnglesERK8idAngles
	.loc 4 505 0
	mr 3,30
	addi 4,31,4760
	bl _ZN10idSaveGame11WriteAnglesERK8idAngles
	.loc 4 506 0
	mr 3,30
	addi 4,31,4772
	bl _ZN10idSaveGame11WriteAnglesERK8idAngles
	.loc 4 508 0
	lwz 4,4784(31)
	mr 3,30
	bl _ZN10idSaveGame8WriteIntEi
.LVL250:
	.loc 4 509 0 discriminator 1
	lwz 0,4784(31)
	cmpwi 7,0,0
	ble- 7,.L108
	.loc 4 509 0 is_stmt 0
	li 28,0
	li 29,0
.LVL251:
.L109:
	.loc 4 510 0 is_stmt 1
	lwz 9,4796(31)
	slwi 0,29,2
	mr 3,30
	lwzx 4,9,0
	bl _ZN10idSaveGame10WriteJointE13jointHandle_t
.LVL252:
.LBB5811:
.LBB5812:
	.loc 14 573 0
	lwz 4,4812(31)
.LBE5812:
.LBE5811:
	.loc 4 511 0
	mr 3,30
	add 4,4,28
	bl _ZN10idSaveGame11WriteAnglesERK8idAngles
	.loc 4 509 0
	lwz 0,4784(31)
	addi 29,29,1
.LVL253:
	addi 28,28,12
	cmpw 7,0,29
	bgt+ 7,.L109
.LVL254:
.L108:
	.loc 4 514 0
	lfs 1,4836(31)
	mr 3,30
	bl _ZN10idSaveGame10WriteFloatEf
	.loc 4 515 0
	lwz 4,4840(31)
	mr 3,30
	bl _ZN10idSaveGame8WriteIntEi
	.loc 4 517 0
	lwz 4,4848(31)
	mr 3,30
	bl _ZN10idSaveGame8WriteIntEi
.LVL255:
	.loc 4 518 0 discriminator 1
	lwz 0,4848(31)
	cmpwi 7,0,0
	ble- 7,.L110
	.loc 4 518 0 is_stmt 0
	li 29,0
	li 28,0
.LVL256:
.L111:
	.loc 4 519 0 is_stmt 1
	lwz 9,4860(31)
	mr 3,30
	lwzx 4,9,29
	bl _ZN10idSaveGame13WriteParticleEPK14idDeclParticle
.LVL257:
	.loc 4 520 0
	lwz 9,4860(31)
	mr 3,30
	add 9,9,29
	lwz 4,4(9)
	bl _ZN10idSaveGame8WriteIntEi
.LVL258:
	.loc 4 521 0
	lwz 9,4860(31)
	mr 3,30
	add 9,9,29
	lwz 4,8(9)
	bl _ZN10idSaveGame10WriteJointE13jointHandle_t
	.loc 4 518 0
	lwz 0,4848(31)
	addi 28,28,1
.LVL259:
	addi 29,29,12
	cmpw 7,0,28
	bgt+ 7,.L111
.LVL260:
.L110:
	.loc 4 523 0
	lbz 4,4844(31)
	mr 3,30
	bl _ZN10idSaveGame9WriteBoolEb
	.loc 4 524 0
	lbz 4,4845(31)
	mr 3,30
	bl _ZN10idSaveGame9WriteBoolEb
.LVL261:
.LBB5813:
.LBB5814:
	.loc 7 595 0
	lwz 4,5120(31)
	mr 3,30
	bl _ZN10idSaveGame8WriteIntEi
.LBE5814:
.LBE5813:
	.loc 4 527 0
	mr 3,30
	addi 4,31,5124
	bl _ZN10idSaveGame9WriteVec3ERK6idVec3
	.loc 4 528 0
	mr 3,30
	addi 4,31,5136
	bl _ZN10idSaveGame9WriteVec3ERK6idVec3
	.loc 4 529 0
	mr 3,30
	addi 4,31,5148
	bl _ZN10idSaveGame9WriteVec3ERK6idVec3
	.loc 4 530 0
	mr 3,30
	addi 4,31,5160
	bl _ZN10idSaveGame9WriteVec3ERK6idVec3
	.loc 4 531 0
	lbz 4,5172(31)
	mr 3,30
	bl _ZN10idSaveGame9WriteBoolEb
	.loc 4 533 0
	mr 3,30
	addi 4,31,5088
	bl _ZN10idSaveGame11WriteAnglesERK8idAngles
	.loc 4 534 0
	mr 3,30
	addi 4,31,5100
	bl _ZN10idSaveGame11WriteAnglesERK8idAngles
	.loc 4 536 0
	lfs 1,4816(31)
	mr 3,30
	bl _ZN10idSaveGame10WriteFloatEf
	.loc 4 537 0
	lfs 1,4820(31)
	mr 3,30
	bl _ZN10idSaveGame10WriteFloatEf
	.loc 4 538 0
	lfs 1,4824(31)
	mr 3,30
	bl _ZN10idSaveGame10WriteFloatEf
	.loc 4 539 0
	lfs 1,4828(31)
	mr 3,30
	bl _ZN10idSaveGame10WriteFloatEf
	.loc 4 540 0
	lwz 4,4832(31)
	mr 3,30
	bl _ZN10idSaveGame8WriteIntEi
	.loc 4 542 0
	lwz 4,5076(31)
	mr 3,30
	bl _ZN10idSaveGame10WriteJointE13jointHandle_t
	.loc 4 543 0
	lwz 4,5080(31)
	mr 3,30
	bl _ZN10idSaveGame8WriteIntEi
	.loc 4 545 0
	lwz 4,5112(31)
	mr 3,30
	bl _ZN10idSaveGame10WriteJointE13jointHandle_t
	.loc 4 546 0
	lwz 4,5116(31)
	mr 3,30
	bl _ZN10idSaveGame10WriteJointE13jointHandle_t
	.loc 4 547 0
	lwz 4,4492(31)
	mr 3,30
	bl _ZN10idSaveGame10WriteJointE13jointHandle_t
	.loc 4 549 0
	mr 3,31
	bl _ZNK8idEntity10GetPhysicsEv
	xor 4,26,3
	mr 3,30
	cntlzw 4,4
	srwi 4,4,5
	bl _ZN10idSaveGame9WriteBoolEb
.LEHE11:
.LVL262:
.LBB5815:
.LBB5816:
.LBB5817:
	.loc 15 501 0
	mr 3,27
.LEHB12:
	bl _ZN5idStr8FreeDataEv
.LEHE12:
.LBE5817:
.LBE5816:
.LBE5815:
.LBE5822:
	.loc 4 550 0
	lwz 0,68(1)
	lwz 26,40(1)
	mtlr 0
	lwz 27,44(1)
	lwz 28,48(1)
	lwz 29,52(1)
	lwz 30,56(1)
.LVL263:
	lwz 31,60(1)
.LVL264:
	addi 1,1,64
	.cfi_remember_state
.LCFI60:
	.cfi_def_cfa_offset 0
	.cfi_restore 31
	.cfi_restore 30
	.cfi_restore 29
	.cfi_restore 28
	.cfi_restore 27
	.cfi_restore 26
	blr
.LVL265:
.L120:
.LCFI61:
	.cfi_restore_state
.LBB5823:
.LBB5818:
.LBB5798:
.LBB5793:
.LBB5792:
.LBB5790:
.LBB5788:
	.loc 15 351 0
	mr 3,27
.LVL266:
	li 5,0
.LEHB13:
	bl _ZN5idStr10ReAllocateEib
.LVL267:
	b .L106
.LVL268:
.L105:
.LBE5788:
.LBE5790:
.LBE5792:
.LBE5793:
	.loc 11 236 0
	addi 27,1,8
	lis 4,.LC26@ha
	mr 3,27
.LVL269:
	la 4,.LC26@l(4)
	bl _ZN5idStraSEPKc
.LEHE13:
	b .L107
.L115:
	mr 31,3
.LVL270:
.LBE5798:
.LBE5818:
.LBB5819:
.LBB5820:
.LBB5821:
	.loc 15 501 0
	mr 3,27
	bl _ZN5idStr8FreeDataEv
	mr 3,31
.LEHB14:
	bl _Unwind_Resume
.LEHE14:
.LBE5821:
.LBE5820:
.LBE5819:
.LBE5823:
	.cfi_endproc
.LFE2858:
	.section	.gcc_except_table
.LLSDA2858:
	.byte	0xff
	.byte	0xff
	.byte	0x1
	.uleb128 .LLSDACSE2858-.LLSDACSB2858
.LLSDACSB2858:
	.uleb128 .LEHB10-.LFB2858
	.uleb128 .LEHE10-.LEHB10
	.uleb128 0
	.uleb128 0
	.uleb128 .LEHB11-.LFB2858
	.uleb128 .LEHE11-.LEHB11
	.uleb128 .L115-.LFB2858
	.uleb128 0
	.uleb128 .LEHB12-.LFB2858
	.uleb128 .LEHE12-.LEHB12
	.uleb128 0
	.uleb128 0
	.uleb128 .LEHB13-.LFB2858
	.uleb128 .LEHE13-.LEHB13
	.uleb128 .L115-.LFB2858
	.uleb128 0
	.uleb128 .LEHB14-.LFB2858
	.uleb128 .LEHE14-.LEHB14
	.uleb128 0
	.uleb128 0
.LLSDACSE2858:
	.section	".text"
	.size	_ZNK4idAI4SaveEP10idSaveGame, .-_ZNK4idAI4SaveEP10idSaveGame
	.align 2
	.globl _ZN4idAI15InitMuzzleFlashEv
	.type	_ZN4idAI15InitMuzzleFlashEv, @function
_ZN4idAI15InitMuzzleFlashEv:
.LFB2861:
	.loc 4 960 0
	.cfi_startproc
.LVL271:
	stwu 1,-48(1)
.LCFI62:
	.cfi_def_cfa_offset 48
	mflr 0
.LBB5842:
.LBB5843:
.LBB5844:
	.loc 11 221 0
	lis 4,.LC29@ha
.LBE5844:
.LBE5843:
.LBE5842:
	.loc 4 960 0
	stw 30,32(1)
.LBB5903:
	.loc 4 964 0
	addi 30,3,100
	.cfi_offset 30, -16
	.cfi_register 65, 0
.LVL272:
.LBE5903:
	.loc 4 960 0
	stw 31,36(1)
.LBB5904:
.LBB5853:
.LBB5847:
	.loc 11 221 0
	la 4,.LC29@l(4)
.LBE5847:
.LBE5853:
.LBE5904:
	.loc 4 960 0
	mr 31,3
	.cfi_offset 31, -12
.LBB5905:
.LBB5854:
.LBB5848:
	.loc 11 221 0
	mr 3,30
.LVL273:
.LBE5848:
.LBE5854:
.LBE5905:
	.loc 4 960 0
	stw 0,52(1)
	stfd 31,40(1)
	stw 29,28(1)
.LBB5906:
.LBB5855:
.LBB5849:
	.loc 11 221 0
	.cfi_offset 29, -20
	.cfi_offset 63, -8
	.cfi_offset 65, 4
	bl _ZNK6idDict7FindKeyEPKc
.LVL274:
	.loc 11 222 0
	cmpwi 0,3,0
	beq- 0,.L125
.LVL275:
.LBB5845:
	.loc 4 5138 0
	lwz 9,4(3)
.LBE5845:
.LBE5849:
.LBE5855:
	.loc 4 965 0
	lis 4,.LC30@ha
	lis 5,.LC31@ha
	la 4,.LC30@l(4)
	la 5,.LC31@l(5)
	addi 6,1,8
	mr 3,30
.LVL276:
.LBB5856:
.LBB5850:
.LBB5846:
	.loc 4 5138 0
	lwz 29,4(9)
.LVL277:
.LBE5846:
.LBE5850:
.LBE5856:
	.loc 4 965 0
	bl _ZNK6idDict9GetVectorEPKcS1_R6idVec3
.LVL278:
.LBB5857:
.LBB5858:
.LBB5859:
.LBB5860:
	.loc 11 241 0
	lis 4,.LC32@ha
	mr 3,30
	la 4,.LC32@l(4)
	bl _ZNK6idDict7FindKeyEPKc
.LVL279:
	.loc 11 242 0
	cmpwi 0,3,0
	beq- 0,.L126
.LVL280:
.L128:
.LBB5861:
	.loc 4 5138 0
	lwz 9,4(3)
	lwz 3,4(9)
.LVL281:
.LBE5861:
.LBE5860:
.LBE5859:
	.loc 11 249 0
	bl atof
.LVL282:
.LBE5858:
.LBE5857:
.LBB5873:
.LBB5874:
.LBB5875:
.LBB5876:
	.loc 11 241 0
	lis 4,.LC33@ha
	mr 3,30
	la 4,.LC33@l(4)
.LBE5876:
.LBE5875:
.LBE5874:
.LBE5873:
.LBB5888:
.LBB5868:
	.loc 11 249 0
	frsp 31,1
.LVL283:
.LBE5868:
.LBE5888:
.LBB5889:
.LBB5884:
.LBB5881:
.LBB5878:
	.loc 11 241 0
	bl _ZNK6idDict7FindKeyEPKc
.LVL284:
	.loc 11 242 0
	cmpwi 0,3,0
	beq- 0,.L127
.LVL285:
.L129:
.LBB5877:
	.loc 4 5138 0
	lwz 9,4(3)
	lwz 3,4(9)
.LVL286:
.L124:
.LBE5877:
.LBE5878:
.LBE5881:
	.loc 11 249 0
	bl atof
.LVL287:
.LBE5884:
.LBE5889:
	.loc 4 967 0
	lis 11,_ZN6idMath8M_SEC2MSE@ha
.LBB5890:
.LBB5885:
	.loc 11 249 0
	frsp 1,1
.LVL288:
.LBE5885:
.LBE5890:
	.loc 4 967 0
	lfs 0,_ZN6idMath8M_SEC2MSE@l(11)
.LBB5891:
.LBB5892:
	.loc 8 825 0
	addi 9,31,5084
.LBE5892:
.LBE5891:
	.loc 4 969 0
	li 4,0
	li 5,208
	addi 3,31,4864
	.loc 4 967 0
	fmuls 0,1,0
.LVL289:
.LBB5894:
.LBB5893:
	.loc 8 825 0
	fctiwz 0,0
.LVL290:
	stfiwx 0,0,9
.LBE5893:
.LBE5894:
	.loc 4 969 0
	bl memset
	.loc 4 971 0
	li 0,1
	.loc 4 972 0
	lis 9,declManager@ha
	.loc 4 971 0
	stb 0,4922(31)
	.loc 4 972 0
	lwz 3,declManager@l(9)
	mr 4,29
	li 5,0
	li 6,0
	lwz 9,0(3)
	lwz 0,104(9)
	mtctr 0
	bctrl
	.loc 4 973 0
	lwz 0,8(1)
	.loc 4 976 0
	lis 9,.LC0@ha
	.loc 4 972 0
	stw 3,5016(31)
.LVL291:
	.loc 4 973 0
	stw 0,5020(31)
.LVL292:
	.loc 4 974 0
	lwz 0,12(1)
	.loc 4 978 0
	stfs 31,4924(31)
	.loc 4 974 0
	stw 0,5024(31)
.LVL293:
	.loc 4 975 0
	lwz 0,16(1)
	.loc 4 979 0
	stfs 31,4928(31)
	.loc 4 975 0
	stw 0,5028(31)
	.loc 4 976 0
	lwz 0,.LC0@l(9)
	.loc 4 980 0
	stfs 31,4932(31)
	.loc 4 976 0
	stw 0,5032(31)
.LVL294:
	.loc 4 982 0
	li 0,-1
	stw 0,5072(31)
.LBE5906:
	.loc 4 983 0
	lwz 0,52(1)
	lwz 29,28(1)
.LVL295:
	mtlr 0
	lwz 30,32(1)
.LVL296:
	lwz 31,36(1)
.LVL297:
	lfd 31,40(1)
	addi 1,1,48
	.cfi_remember_state
.LCFI63:
	.cfi_def_cfa_offset 0
	.cfi_restore 63
	.cfi_restore 31
	.cfi_restore 30
	.cfi_restore 29
	blr
.LVL298:
.L125:
.LCFI64:
	.cfi_restore_state
.LBB5907:
	.loc 4 965 0
	lis 4,.LC30@ha
	lis 5,.LC31@ha
	la 4,.LC30@l(4)
	la 5,.LC31@l(5)
	addi 6,1,8
	mr 3,30
.LVL299:
	bl _ZNK6idDict9GetVectorEPKcS1_R6idVec3
.LBB5895:
.LBB5869:
.LBB5865:
.LBB5862:
	.loc 11 241 0
	lis 4,.LC32@ha
	mr 3,30
	la 4,.LC32@l(4)
	bl _ZNK6idDict7FindKeyEPKc
.LBE5862:
.LBE5865:
.LBE5869:
.LBE5895:
.LBB5896:
.LBB5851:
	.loc 11 226 0
	lis 29,.LC27@ha
.LBE5851:
.LBE5896:
.LBB5897:
.LBB5870:
.LBB5866:
.LBB5863:
	.loc 11 242 0
	cmpwi 0,3,0
.LBE5863:
.LBE5866:
.LBE5870:
.LBE5897:
.LBB5898:
.LBB5852:
	.loc 11 226 0
	la 29,.LC27@l(29)
.LVL300:
.LBE5852:
.LBE5898:
.LBB5899:
.LBB5871:
.LBB5867:
.LBB5864:
	.loc 11 242 0
	bne+ 0,.L128
.L126:
	.loc 11 245 0
	lis 3,.LC7@ha
	la 3,.LC7@l(3)
.LBE5864:
.LBE5867:
	.loc 11 249 0
	bl atof
.LBE5871:
.LBE5899:
.LBB5900:
.LBB5886:
.LBB5882:
.LBB5879:
	.loc 11 241 0
	lis 4,.LC33@ha
	mr 3,30
	la 4,.LC33@l(4)
.LBE5879:
.LBE5882:
.LBE5886:
.LBE5900:
.LBB5901:
.LBB5872:
	.loc 11 249 0
	frsp 31,1
.LVL301:
.LBE5872:
.LBE5901:
.LBB5902:
.LBB5887:
.LBB5883:
.LBB5880:
	.loc 11 241 0
	bl _ZNK6idDict7FindKeyEPKc
.LVL302:
	.loc 11 242 0
	cmpwi 0,3,0
	bne+ 0,.L129
.LVL303:
.L127:
	.loc 11 245 0
	lis 3,.LC28@ha
.LVL304:
	la 3,.LC28@l(3)
	b .L124
.LBE5880:
.LBE5883:
.LBE5887:
.LBE5902:
.LBE5907:
	.cfi_endproc
.LFE2861:
	.size	_ZN4idAI15InitMuzzleFlashEv, .-_ZN4idAI15InitMuzzleFlashEv
	.align 2
	.globl _ZN4idAI6List_fERK9idCmdArgs
	.type	_ZN4idAI6List_fERK9idCmdArgs, @function
_ZN4idAI6List_fERK9idCmdArgs:
.LFB2862:
	.loc 4 990 0
	.cfi_startproc
.LVL305:
	stwu 1,-48(1)
.LCFI65:
	.cfi_def_cfa_offset 48
	mflr 0
.LBB5908:
	.loc 4 998 0
	lis 4,.LC35@ha
	lis 5,.LC36@ha
.LBE5908:
	.loc 4 990 0
	stw 27,28(1)
.LBB5917:
	.loc 4 998 0
	lis 27,gameLocal@ha
	.cfi_offset 27, -20
	.cfi_register 65, 0
	la 27,gameLocal@l(27)
	lis 6,.LC37@ha
	lis 7,.LC38@ha
	mr 3,27
.LVL306:
	la 4,.LC35@l(4)
	la 5,.LC36@l(5)
	la 6,.LC37@l(6)
	la 7,.LC38@l(7)
.LBE5917:
	.loc 4 990 0
	stw 0,52(1)
	stw 25,20(1)
.LBB5918:
	.loc 4 1009 0
	lis 25,.LC34@ha
	.cfi_offset 25, -28
	.cfi_offset 65, 4
.LBE5918:
	.loc 4 990 0
	stw 26,24(1)
.LBB5919:
	.loc 4 1012 0
	lis 26,.LC40@ha
	.cfi_offset 26, -24
.LBE5919:
	.loc 4 990 0
	stw 28,32(1)
.LBB5920:
	.loc 4 1012 0
	la 26,.LC40@l(26)
.LBE5920:
	.loc 4 990 0
	stw 29,36(1)
.LBB5921:
.LBB5909:
	.loc 4 5138 0
	lis 28,_ZN4idAI4TypeE@ha
	.cfi_offset 29, -12
	.cfi_offset 28, -16
.LBE5909:
.LBE5921:
	.loc 4 990 0
	stw 30,40(1)
.LBB5922:
	.loc 4 996 0
	li 29,0
.LBE5922:
	.loc 4 990 0
	stw 31,44(1)
.LBB5923:
	.loc 4 999 0
	addi 30,27,528
	.cfi_offset 31, -4
	.cfi_offset 30, -8
.LBE5923:
	.loc 4 990 0
	stw 23,12(1)
.LBB5924:
	.loc 4 1000 0
	li 31,0
.LBE5924:
	.loc 4 990 0
	stw 24,16(1)
.LBB5925:
	.loc 4 998 0
	.cfi_offset 24, -32
	.cfi_offset 23, -36
	crxor 6,6,6
	bl _ZNK11idGameLocal6PrintfEPKcz
	.loc 4 999 0
	lis 4,.LC39@ha
	mr 3,27
	la 4,.LC39@l(4)
	crxor 6,6,6
	bl _ZNK11idGameLocal6PrintfEPKcz
.LVL307:
	b .L134
.LVL308:
.L135:
	.loc 4 1007 0
	bl _ZNK10function_t4NameEv
	mr 24,3
.LVL309:
.L136:
	.loc 4 1012 0
	mr 3,23
	.loc 4 1013 0
	addi 29,29,1
	.loc 4 1012 0
	bl _ZNK8idEntity16GetEntityDefNameEv
	lwz 7,72(23)
	lbz 9,4544(23)
	mr 6,3
	mr 4,26
	mr 3,27
	mr 5,31
	mr 8,24
	crxor 6,6,6
	bl _ZNK11idGameLocal6PrintfEPKcz
.LVL310:
.L133:
	.loc 4 1000 0
	cmpwi 7,31,4095
	addi 31,31,1
.LVL311:
	beq- 7,.L138
.LVL312:
.L134:
	.loc 4 1001 0
	lwzu 23,4(30)
.LVL313:
	.loc 4 1002 0
	cmpwi 7,23,0
.LBB5915:
.LBB5910:
	.file 16 "d:/Data/Nintendo/DoomGX/src/game/ai/../gamesys/Class.h"
	.loc 16 340 0
	mr 3,23
.LBE5910:
.LBE5915:
	.loc 4 1002 0
	beq- 7,.L133
.LVL314:
.LBB5916:
.LBB5913:
	.loc 16 340 0 discriminator 2
	lwz 9,0(23)
	lwz 0,0(9)
	mtctr 0
	bctrl
.LVL315:
.LBE5913:
	.loc 4 5138 0 discriminator 2
	la 9,_ZN4idAI4TypeE@l(28)
	lwz 0,56(3)
.LBB5914:
.LBB5911:
.LBB5912:
	.loc 16 311 0 discriminator 2
	lwz 11,56(9)
	cmpw 7,0,11
	blt- 7,.L133
	.loc 16 311 0 is_stmt 0
	lwz 9,60(9)
	cmpw 7,0,9
	bgt- 7,.L133
.LBE5912:
.LBE5911:
.LBE5914:
.LBE5916:
	.loc 4 1006 0 is_stmt 1
	lwz 3,2444(23)
.LVL316:
	cmpwi 7,3,0
	bne+ 7,.L135
	.loc 4 1009 0
	la 24,.LC34@l(25)
	b .L136
.LVL317:
.L138:
	.loc 4 1016 0
	lis 4,.LC41@ha
	mr 3,27
	mr 5,29
	la 4,.LC41@l(4)
	crxor 6,6,6
	bl _ZNK11idGameLocal6PrintfEPKcz
.LBE5925:
	.loc 4 1017 0
	lwz 0,52(1)
	lwz 23,12(1)
.LVL318:
	mtlr 0
	lwz 24,16(1)
	lwz 25,20(1)
	lwz 26,24(1)
	lwz 27,28(1)
	lwz 28,32(1)
	lwz 29,36(1)
.LVL319:
	lwz 30,40(1)
	lwz 31,44(1)
.LVL320:
	addi 1,1,48
.LCFI66:
	.cfi_def_cfa_offset 0
	.cfi_restore 31
	.cfi_restore 30
	.cfi_restore 29
	.cfi_restore 28
	.cfi_restore 27
	.cfi_restore 26
	.cfi_restore 25
	.cfi_restore 24
	.cfi_restore 23
	blr
	.cfi_endproc
.LFE2862:
	.size	_ZN4idAI6List_fERK9idCmdArgs, .-_ZN4idAI6List_fERK9idCmdArgs
	.align 2
	.globl _ZN4idAI12DormantBeginEv
	.type	_ZN4idAI12DormantBeginEv, @function
_ZN4idAI12DormantBeginEv:
.LFB2863:
	.loc 4 1026 0
	.cfi_startproc
.LVL321:
	mflr 0
	stwu 1,-8(1)
.LCFI67:
	.cfi_def_cfa_offset 8
	.cfi_register 65, 0
	stw 0,12(1)
.LBB5926:
.LBB5927:
.LBB5928:
	.loc 4 5138 0
	lwz 0,4848(3)
	.cfi_offset 65, 4
.LBE5928:
	.loc 4 1029 0
	cmpwi 7,0,0
	beq- 7,.L140
.LVL322:
.LBB5929:
	.loc 4 1030 0 discriminator 1
	ble- 7,.L140
	.loc 4 1030 0 is_stmt 0
	li 11,0
	li 9,0
	.loc 4 1031 0 is_stmt 1
	li 8,0
.LVL323:
.L141:
	.loc 4 1031 0 is_stmt 0 discriminator 2
	lwz 10,4860(3)
	.loc 4 1030 0 is_stmt 1 discriminator 2
	addi 9,9,1
.LVL324:
	.loc 4 1031 0 discriminator 2
	add 10,10,11
	.loc 4 1030 0 discriminator 2
	addi 11,11,12
	.loc 4 1031 0 discriminator 2
	stw 8,4(10)
	.loc 4 1030 0 discriminator 2
	lwz 0,4848(3)
	cmpw 7,0,9
	bgt+ 7,.L141
.LVL325:
.L140:
.LBE5929:
.LBE5927:
	.loc 4 1035 0
	lwz 9,2304(3)
	addi 0,3,2304
.LVL326:
	cmpw 7,0,9
	beq- 7,.L142
.LVL327:
.LBB5930:
.LBB5931:
	.file 17 "d:/Data/Nintendo/DoomGX/src/game/ai/../../idlib/../idlib/containers/LinkList.h"
	.loc 17 176 0
	lwz 9,2312(3)
	lwz 11,2308(3)
	stw 11,4(9)
	.loc 17 177 0
	lwz 9,2308(3)
	lwz 11,2312(3)
	stw 11,8(9)
	.loc 17 179 0
	stw 0,2308(3)
	.loc 17 180 0
	stw 0,2312(3)
	.loc 17 181 0
	stw 0,2304(3)
.LVL328:
.L142:
.LBE5931:
.LBE5930:
	.loc 4 1039 0
	bl _ZN8idEntity12DormantBeginEv
.LVL329:
.LBE5926:
	.loc 4 1040 0
	lwz 0,12(1)
	addi 1,1,8
.LCFI68:
	.cfi_def_cfa_offset 0
	mtlr 0
	blr
	.cfi_endproc
.LFE2863:
	.size	_ZN4idAI12DormantBeginEv, .-_ZN4idAI12DormantBeginEv
	.align 2
	.globl _ZN4idAI10DormantEndEv
	.type	_ZN4idAI10DormantEndEv, @function
_ZN4idAI10DormantEndEv:
.LFB2864:
	.loc 4 1049 0
	.cfi_startproc
.LVL330:
	mflr 0
	stwu 1,-8(1)
.LCFI69:
	.cfi_def_cfa_offset 8
	.cfi_register 65, 0
.LBB5932:
.LBB5933:
.LBB5934:
	.loc 7 635 0
	lis 9,gameLocal@ha
	la 9,gameLocal@l(9)
.LBE5934:
.LBE5933:
.LBE5932:
	.loc 4 1049 0
	stw 0,12(1)
.LBB5954:
.LBB5937:
.LBB5935:
	.loc 7 634 0
	lwz 0,5120(3)
	.cfi_offset 65, 4
	rlwinm 11,0,0,20,31
.LVL331:
	.loc 7 635 0
	srawi 0,0,12
	addi 10,11,4228
	slwi 10,10,2
	add 10,9,10
	lwz 10,4(10)
	cmpw 7,10,0
	beq- 7,.L149
.LVL332:
.L145:
.LBE5935:
.LBE5937:
.LBB5938:
.LBB5939:
.LBB5940:
	.loc 4 5138 0
	lwz 0,4848(3)
.LBE5940:
.LBE5939:
.LBE5938:
.LBB5949:
	.loc 4 1055 0
	cmpwi 7,0,0
	beq- 7,.L146
.LVL333:
.LBB5950:
	.loc 4 1056 0 discriminator 1
	ble- 7,.L146
	lis 8,gameLocal+2424832@ha
	.loc 4 1056 0 is_stmt 0
	li 11,0
	li 9,0
	la 8,gameLocal+2424832@l(8)
.LVL334:
.L147:
	.loc 4 1057 0 is_stmt 1 discriminator 2
	lwz 10,4860(3)
	.loc 4 1056 0 discriminator 2
	addi 9,9,1
.LVL335:
	.loc 4 1057 0 discriminator 2
	lwz 0,2004(8)
	add 10,10,11
	.loc 4 1056 0 discriminator 2
	addi 11,11,12
	.loc 4 1057 0 discriminator 2
	stw 0,4(10)
	.loc 4 1056 0 discriminator 2
	lwz 0,4848(3)
	cmpw 7,0,9
	bgt+ 7,.L147
.LVL336:
.L146:
.LBE5950:
.LBE5949:
	.loc 4 1061 0
	bl _ZN8idEntity10DormantEndEv
.LVL337:
.LBE5954:
	.loc 4 1062 0
	lwz 0,12(1)
	addi 1,1,8
	.cfi_remember_state
.LCFI70:
	.cfi_def_cfa_offset 0
	mtlr 0
	blr
.LVL338:
.L149:
.LCFI71:
	.cfi_restore_state
.LBB5955:
.LBB5951:
.LBB5936:
	.loc 7 636 0
	addi 11,11,132
.LVL339:
	slwi 11,11,2
.LVL340:
	add 9,9,11
	lwz 11,4(9)
.LBE5936:
.LBE5951:
	.loc 4 1050 0
	cmpwi 7,11,0
	beq- 7,.L145
	.loc 4 1050 0 is_stmt 0 discriminator 1
	lwz 9,2304(3)
	addi 0,3,2304
.LVL341:
	cmpw 7,0,9
	bne+ 7,.L145
.LVL342:
.LBB5952:
.LBB5947:
.LBB5945:
.LBB5941:
.LBB5942:
	.loc 17 176 0 is_stmt 1
	lwz 10,2312(3)
	lwz 8,2308(3)
.LBE5942:
.LBE5941:
.LBE5945:
.LBE5947:
.LBE5952:
	.loc 4 5138 0
	lwz 9,2320(11)
.LVL343:
.LBB5953:
.LBB5948:
.LBB5946:
.LBB5944:
.LBB5943:
	.loc 17 176 0
	stw 8,4(10)
	.loc 17 177 0
	lwz 10,2312(3)
	lwz 11,2308(3)
.LVL344:
	stw 10,8(11)
	.loc 17 180 0
	stw 0,2312(3)
	.loc 17 181 0
	stw 0,2304(3)
.LBE5943:
.LBE5944:
	.loc 17 196 0
	stw 9,2308(3)
	.loc 17 197 0
	lwz 11,8(9)
	stw 11,2312(3)
	.loc 17 198 0
	stw 0,8(9)
	.loc 17 199 0
	lwz 11,2312(3)
	stw 0,4(11)
	.loc 17 200 0
	lwz 0,0(9)
	stw 0,2304(3)
	b .L145
.LBE5946:
.LBE5948:
.LBE5953:
.LBE5955:
	.cfi_endproc
.LFE2864:
	.size	_ZN4idAI10DormantEndEv, .-_ZN4idAI10DormantEndEv
	.align 2
	.globl _ZN4idAI19LinkScriptVariablesEv
	.type	_ZN4idAI19LinkScriptVariablesEv, @function
_ZN4idAI19LinkScriptVariablesEv:
.LFB2866:
	.loc 4 1187 0
	.cfi_startproc
.LVL345:
	stwu 1,-24(1)
.LCFI72:
	.cfi_def_cfa_offset 24
	mflr 0
.LBB6026:
.LBB6027:
	.file 18 "d:/Data/Nintendo/DoomGX/src/game/ai/../script/Script_Program.h"
	.loc 18 225 0
	li 5,14
.LBE6027:
.LBE6026:
	.loc 4 1187 0
	stw 29,12(1)
.LBB6042:
.LBB6034:
	.loc 18 225 0
	lis 29,.LC42@ha
	.cfi_offset 29, -12
	.cfi_register 65, 0
.LBE6034:
.LBE6042:
	.loc 4 1187 0
	stw 31,20(1)
.LBB6043:
.LBB6035:
	.loc 18 225 0
	la 29,.LC42@l(29)
.LBE6035:
.LBE6043:
	.loc 4 1188 0
	addi 31,3,144
	.cfi_offset 31, -4
	.loc 4 1187 0
	stw 30,16(1)
.LBB6044:
.LBB6036:
	.loc 18 225 0
	mr 4,29
.LBE6036:
.LBE6044:
	.loc 4 1187 0
	mr 30,3
	.cfi_offset 30, -8
.LVL346:
.LBB6045:
.LBB6037:
	.loc 18 225 0
	mr 3,31
.LVL347:
.LBE6037:
.LBE6045:
	.loc 4 1187 0
	stw 0,28(1)
.LBB6046:
.LBB6038:
	.loc 18 225 0
	.cfi_offset 65, 4
	bl _ZNK14idScriptObject11GetVariableEPKc7etype_t
	.loc 18 226 0
	cmpwi 7,3,0
	.loc 18 225 0
	stw 3,5176(30)
	.loc 18 226 0
	beq- 7,.L169
.LVL348:
.LBE6038:
.LBE6046:
.LBB6047:
.LBB6048:
	.loc 18 225 0
	lis 29,.LC44@ha
	mr 3,31
	la 29,.LC44@l(29)
	li 5,14
	mr 4,29
	bl _ZNK14idScriptObject11GetVariableEPKc7etype_t
	.loc 18 226 0
	cmpwi 7,3,0
	.loc 18 225 0
	stw 3,5180(30)
	.loc 18 226 0
	beq- 7,.L170
.LVL349:
.L152:
.LBE6048:
.LBE6047:
.LBB6060:
.LBB6061:
	.loc 18 225 0
	lis 29,.LC45@ha
	mr 3,31
	la 29,.LC45@l(29)
	li 5,14
	mr 4,29
	bl _ZNK14idScriptObject11GetVariableEPKc7etype_t
	.loc 18 226 0
	cmpwi 7,3,0
	.loc 18 225 0
	stw 3,5184(30)
	.loc 18 226 0
	beq- 7,.L171
.LVL350:
.L153:
.LBE6061:
.LBE6060:
.LBB6073:
.LBB6074:
	.loc 18 225 0
	lis 29,.LC46@ha
	mr 3,31
	la 29,.LC46@l(29)
	li 5,4
	mr 4,29
	bl _ZNK14idScriptObject11GetVariableEPKc7etype_t
	.loc 18 226 0
	cmpwi 7,3,0
	.loc 18 225 0
	stw 3,5188(30)
	.loc 18 226 0
	beq- 7,.L172
.LVL351:
.L154:
.LBE6074:
.LBE6073:
.LBB6080:
.LBB6081:
	.loc 18 225 0
	lis 29,.LC47@ha
	mr 3,31
	la 29,.LC47@l(29)
	li 5,14
	mr 4,29
	bl _ZNK14idScriptObject11GetVariableEPKc7etype_t
	.loc 18 226 0
	cmpwi 7,3,0
	.loc 18 225 0
	stw 3,5192(30)
	.loc 18 226 0
	beq- 7,.L173
.LVL352:
.L155:
.LBE6081:
.LBE6080:
.LBB6093:
.LBB6094:
	.loc 18 225 0
	lis 29,.LC48@ha
	mr 3,31
	la 29,.LC48@l(29)
	li 5,14
	mr 4,29
	bl _ZNK14idScriptObject11GetVariableEPKc7etype_t
	.loc 18 226 0
	cmpwi 7,3,0
	.loc 18 225 0
	stw 3,5196(30)
	.loc 18 226 0
	beq- 7,.L174
.LVL353:
.L156:
.LBE6094:
.LBE6093:
.LBB6106:
.LBB6107:
	.loc 18 225 0
	lis 29,.LC49@ha
	mr 3,31
	la 29,.LC49@l(29)
	li 5,14
	mr 4,29
	bl _ZNK14idScriptObject11GetVariableEPKc7etype_t
	.loc 18 226 0
	cmpwi 7,3,0
	.loc 18 225 0
	stw 3,5200(30)
	.loc 18 226 0
	beq- 7,.L175
.LVL354:
.L157:
.LBE6107:
.LBE6106:
.LBB6119:
.LBB6120:
	.loc 18 225 0
	lis 29,.LC50@ha
	mr 3,31
	la 29,.LC50@l(29)
	li 5,14
	mr 4,29
	bl _ZNK14idScriptObject11GetVariableEPKc7etype_t
	.loc 18 226 0
	cmpwi 7,3,0
	.loc 18 225 0
	stw 3,5204(30)
	.loc 18 226 0
	beq- 7,.L176
.LVL355:
.L158:
.LBE6120:
.LBE6119:
.LBB6132:
.LBB6133:
	.loc 18 225 0
	lis 29,.LC51@ha
	mr 3,31
	la 29,.LC51@l(29)
	li 5,14
	mr 4,29
	bl _ZNK14idScriptObject11GetVariableEPKc7etype_t
	.loc 18 226 0
	cmpwi 7,3,0
	.loc 18 225 0
	stw 3,5208(30)
	.loc 18 226 0
	beq- 7,.L177
.LVL356:
.L159:
.LBE6133:
.LBE6132:
.LBB6145:
.LBB6146:
	.loc 18 225 0
	lis 29,.LC52@ha
	mr 3,31
	la 29,.LC52@l(29)
	li 5,14
	mr 4,29
	bl _ZNK14idScriptObject11GetVariableEPKc7etype_t
	.loc 18 226 0
	cmpwi 7,3,0
	.loc 18 225 0
	stw 3,5212(30)
	.loc 18 226 0
	beq- 7,.L178
.LVL357:
.L160:
.LBE6146:
.LBE6145:
.LBB6158:
.LBB6159:
	.loc 18 225 0
	lis 29,.LC53@ha
	mr 3,31
	la 29,.LC53@l(29)
	li 5,14
	mr 4,29
	bl _ZNK14idScriptObject11GetVariableEPKc7etype_t
	.loc 18 226 0
	cmpwi 7,3,0
	.loc 18 225 0
	stw 3,5216(30)
	.loc 18 226 0
	beq- 7,.L179
.LVL358:
.L161:
.LBE6159:
.LBE6158:
.LBB6171:
.LBB6172:
	.loc 18 225 0
	lis 29,.LC54@ha
	mr 3,31
	la 29,.LC54@l(29)
	li 5,14
	mr 4,29
	bl _ZNK14idScriptObject11GetVariableEPKc7etype_t
	.loc 18 226 0
	cmpwi 7,3,0
	.loc 18 225 0
	stw 3,5220(30)
	.loc 18 226 0
	beq- 7,.L180
.LVL359:
.L162:
.LBE6172:
.LBE6171:
.LBB6184:
.LBB6185:
	.loc 18 225 0
	lis 29,.LC55@ha
	mr 3,31
	la 29,.LC55@l(29)
	li 5,14
	mr 4,29
	bl _ZNK14idScriptObject11GetVariableEPKc7etype_t
	.loc 18 226 0
	cmpwi 7,3,0
	.loc 18 225 0
	stw 3,5224(30)
	.loc 18 226 0
	beq- 7,.L181
.LVL360:
.L163:
.LBE6185:
.LBE6184:
.LBB6197:
.LBB6198:
	.loc 18 225 0
	lis 29,.LC56@ha
	mr 3,31
	la 29,.LC56@l(29)
	li 5,14
	mr 4,29
	bl _ZNK14idScriptObject11GetVariableEPKc7etype_t
	.loc 18 226 0
	cmpwi 7,3,0
	.loc 18 225 0
	stw 3,5232(30)
	.loc 18 226 0
	beq- 7,.L182
.LVL361:
.L164:
.LBE6198:
.LBE6197:
.LBB6210:
.LBB6211:
	.loc 18 225 0
	lis 29,.LC57@ha
	mr 3,31
	la 29,.LC57@l(29)
	li 5,14
	mr 4,29
	bl _ZNK14idScriptObject11GetVariableEPKc7etype_t
	.loc 18 226 0
	cmpwi 7,3,0
	.loc 18 225 0
	stw 3,5240(30)
	.loc 18 226 0
	beq- 7,.L183
.LVL362:
.L165:
.LBE6211:
.LBE6210:
.LBB6223:
.LBB6224:
	.loc 18 225 0
	lis 29,.LC58@ha
	mr 3,31
	la 29,.LC58@l(29)
	li 5,14
	mr 4,29
	bl _ZNK14idScriptObject11GetVariableEPKc7etype_t
	.loc 18 226 0
	cmpwi 7,3,0
	.loc 18 225 0
	stw 3,5244(30)
	.loc 18 226 0
	beq- 7,.L184
.LVL363:
.L166:
.LBE6224:
.LBE6223:
.LBB6236:
.LBB6237:
	.loc 18 225 0
	lis 29,.LC59@ha
	mr 3,31
	la 29,.LC59@l(29)
	li 5,14
	mr 4,29
	bl _ZNK14idScriptObject11GetVariableEPKc7etype_t
	.loc 18 226 0
	cmpwi 7,3,0
	.loc 18 225 0
	stw 3,5236(30)
	.loc 18 226 0
	beq- 7,.L185
.LVL364:
.L167:
.LBE6237:
.LBE6236:
.LBB6249:
.LBB6250:
	.loc 18 225 0
	lis 29,.LC60@ha
	mr 3,31
	la 29,.LC60@l(29)
	li 5,14
	mr 4,29
	bl _ZNK14idScriptObject11GetVariableEPKc7etype_t
	.loc 18 226 0
	cmpwi 7,3,0
	.loc 18 225 0
	stw 3,5248(30)
	.loc 18 226 0
	beq- 7,.L186
.LVL365:
.L150:
.LBE6250:
.LBE6249:
	.loc 4 1206 0
	lwz 0,28(1)
	lwz 29,12(1)
	mtlr 0
	lwz 30,16(1)
.LVL366:
	lwz 31,20(1)
.LVL367:
	addi 1,1,24
	.cfi_remember_state
.LCFI73:
	.cfi_def_cfa_offset 0
	.cfi_restore 31
	.cfi_restore 30
	.cfi_restore 29
	blr
.LVL368:
.L169:
.LCFI74:
	.cfi_restore_state
.LBB6256:
.LBB6039:
.LBB6028:
.LBB6029:
	.loc 18 227 0
	mr 3,31
	bl _ZNK14idScriptObject11GetTypeNameEv
	mr 4,29
	mr 5,3
.LBE6029:
.LBE6028:
.LBE6039:
.LBE6256:
.LBB6257:
.LBB6055:
	.loc 18 225 0
	lis 29,.LC44@ha
.LBE6055:
.LBE6257:
.LBB6258:
.LBB6040:
.LBB6032:
.LBB6030:
	.loc 18 227 0
	lis 3,.LC43@ha
.LBE6030:
.LBE6032:
.LBE6040:
.LBE6258:
.LBB6259:
.LBB6056:
	.loc 18 225 0
	la 29,.LC44@l(29)
.LBE6056:
.LBE6259:
.LBB6260:
.LBB6041:
.LBB6033:
.LBB6031:
	.loc 18 227 0
	la 3,.LC43@l(3)
	crxor 6,6,6
	bl _Z9gameErrorPKcz
.LVL369:
.LBE6031:
.LBE6033:
.LBE6041:
.LBE6260:
.LBB6261:
.LBB6057:
	.loc 18 225 0
	mr 3,31
	mr 4,29
	li 5,14
	bl _ZNK14idScriptObject11GetVariableEPKc7etype_t
	.loc 18 226 0
	cmpwi 7,3,0
	.loc 18 225 0
	stw 3,5180(30)
	.loc 18 226 0
	bne+ 7,.L152
.LVL370:
.L170:
.LBB6049:
.LBB6050:
	.loc 18 227 0
	mr 3,31
	bl _ZNK14idScriptObject11GetTypeNameEv
	mr 4,29
	mr 5,3
.LBE6050:
.LBE6049:
.LBE6057:
.LBE6261:
.LBB6262:
.LBB6068:
	.loc 18 225 0
	lis 29,.LC45@ha
.LBE6068:
.LBE6262:
.LBB6263:
.LBB6058:
.LBB6053:
.LBB6051:
	.loc 18 227 0
	lis 3,.LC43@ha
.LBE6051:
.LBE6053:
.LBE6058:
.LBE6263:
.LBB6264:
.LBB6069:
	.loc 18 225 0
	la 29,.LC45@l(29)
.LBE6069:
.LBE6264:
.LBB6265:
.LBB6059:
.LBB6054:
.LBB6052:
	.loc 18 227 0
	la 3,.LC43@l(3)
	crxor 6,6,6
	bl _Z9gameErrorPKcz
.LVL371:
.LBE6052:
.LBE6054:
.LBE6059:
.LBE6265:
.LBB6266:
.LBB6070:
	.loc 18 225 0
	mr 3,31
	mr 4,29
	li 5,14
	bl _ZNK14idScriptObject11GetVariableEPKc7etype_t
	.loc 18 226 0
	cmpwi 7,3,0
	.loc 18 225 0
	stw 3,5184(30)
	.loc 18 226 0
	bne+ 7,.L153
.LVL372:
.L171:
.LBB6062:
.LBB6063:
	.loc 18 227 0
	mr 3,31
	bl _ZNK14idScriptObject11GetTypeNameEv
	mr 4,29
	mr 5,3
.LBE6063:
.LBE6062:
.LBE6070:
.LBE6266:
.LBB6267:
.LBB6075:
	.loc 18 225 0
	lis 29,.LC46@ha
.LBE6075:
.LBE6267:
.LBB6268:
.LBB6071:
.LBB6066:
.LBB6064:
	.loc 18 227 0
	lis 3,.LC43@ha
.LBE6064:
.LBE6066:
.LBE6071:
.LBE6268:
.LBB6269:
.LBB6076:
	.loc 18 225 0
	la 29,.LC46@l(29)
.LBE6076:
.LBE6269:
.LBB6270:
.LBB6072:
.LBB6067:
.LBB6065:
	.loc 18 227 0
	la 3,.LC43@l(3)
	crxor 6,6,6
	bl _Z9gameErrorPKcz
.LVL373:
.LBE6065:
.LBE6067:
.LBE6072:
.LBE6270:
.LBB6271:
.LBB6077:
	.loc 18 225 0
	mr 3,31
	mr 4,29
	li 5,4
	bl _ZNK14idScriptObject11GetVariableEPKc7etype_t
	.loc 18 226 0
	cmpwi 7,3,0
	.loc 18 225 0
	stw 3,5188(30)
	.loc 18 226 0
	bne+ 7,.L154
.LVL374:
.L172:
	.loc 18 227 0
	mr 3,31
	bl _ZNK14idScriptObject11GetTypeNameEv
	mr 4,29
	mr 5,3
.LBE6077:
.LBE6271:
.LBB6272:
.LBB6088:
	.loc 18 225 0
	lis 29,.LC47@ha
.LBE6088:
.LBE6272:
.LBB6273:
.LBB6078:
	.loc 18 227 0
	lis 3,.LC43@ha
.LBE6078:
.LBE6273:
.LBB6274:
.LBB6089:
	.loc 18 225 0
	la 29,.LC47@l(29)
.LBE6089:
.LBE6274:
.LBB6275:
.LBB6079:
	.loc 18 227 0
	la 3,.LC43@l(3)
	crxor 6,6,6
	bl _Z9gameErrorPKcz
.LVL375:
.LBE6079:
.LBE6275:
.LBB6276:
.LBB6090:
	.loc 18 225 0
	mr 3,31
	mr 4,29
	li 5,14
	bl _ZNK14idScriptObject11GetVariableEPKc7etype_t
	.loc 18 226 0
	cmpwi 7,3,0
	.loc 18 225 0
	stw 3,5192(30)
	.loc 18 226 0
	bne+ 7,.L155
.LVL376:
.L173:
.LBB6082:
.LBB6083:
	.loc 18 227 0
	mr 3,31
	bl _ZNK14idScriptObject11GetTypeNameEv
	mr 4,29
	mr 5,3
.LBE6083:
.LBE6082:
.LBE6090:
.LBE6276:
.LBB6277:
.LBB6101:
	.loc 18 225 0
	lis 29,.LC48@ha
.LBE6101:
.LBE6277:
.LBB6278:
.LBB6091:
.LBB6086:
.LBB6084:
	.loc 18 227 0
	lis 3,.LC43@ha
.LBE6084:
.LBE6086:
.LBE6091:
.LBE6278:
.LBB6279:
.LBB6102:
	.loc 18 225 0
	la 29,.LC48@l(29)
.LBE6102:
.LBE6279:
.LBB6280:
.LBB6092:
.LBB6087:
.LBB6085:
	.loc 18 227 0
	la 3,.LC43@l(3)
	crxor 6,6,6
	bl _Z9gameErrorPKcz
.LVL377:
.LBE6085:
.LBE6087:
.LBE6092:
.LBE6280:
.LBB6281:
.LBB6103:
	.loc 18 225 0
	mr 3,31
	mr 4,29
	li 5,14
	bl _ZNK14idScriptObject11GetVariableEPKc7etype_t
	.loc 18 226 0
	cmpwi 7,3,0
	.loc 18 225 0
	stw 3,5196(30)
	.loc 18 226 0
	bne+ 7,.L156
.LVL378:
.L174:
.LBB6095:
.LBB6096:
	.loc 18 227 0
	mr 3,31
	bl _ZNK14idScriptObject11GetTypeNameEv
	mr 4,29
	mr 5,3
.LBE6096:
.LBE6095:
.LBE6103:
.LBE6281:
.LBB6282:
.LBB6114:
	.loc 18 225 0
	lis 29,.LC49@ha
.LBE6114:
.LBE6282:
.LBB6283:
.LBB6104:
.LBB6099:
.LBB6097:
	.loc 18 227 0
	lis 3,.LC43@ha
.LBE6097:
.LBE6099:
.LBE6104:
.LBE6283:
.LBB6284:
.LBB6115:
	.loc 18 225 0
	la 29,.LC49@l(29)
.LBE6115:
.LBE6284:
.LBB6285:
.LBB6105:
.LBB6100:
.LBB6098:
	.loc 18 227 0
	la 3,.LC43@l(3)
	crxor 6,6,6
	bl _Z9gameErrorPKcz
.LVL379:
.LBE6098:
.LBE6100:
.LBE6105:
.LBE6285:
.LBB6286:
.LBB6116:
	.loc 18 225 0
	mr 3,31
	mr 4,29
	li 5,14
	bl _ZNK14idScriptObject11GetVariableEPKc7etype_t
	.loc 18 226 0
	cmpwi 7,3,0
	.loc 18 225 0
	stw 3,5200(30)
	.loc 18 226 0
	bne+ 7,.L157
.LVL380:
.L175:
.LBB6108:
.LBB6109:
	.loc 18 227 0
	mr 3,31
	bl _ZNK14idScriptObject11GetTypeNameEv
	mr 4,29
	mr 5,3
.LBE6109:
.LBE6108:
.LBE6116:
.LBE6286:
.LBB6287:
.LBB6127:
	.loc 18 225 0
	lis 29,.LC50@ha
.LBE6127:
.LBE6287:
.LBB6288:
.LBB6117:
.LBB6112:
.LBB6110:
	.loc 18 227 0
	lis 3,.LC43@ha
.LBE6110:
.LBE6112:
.LBE6117:
.LBE6288:
.LBB6289:
.LBB6128:
	.loc 18 225 0
	la 29,.LC50@l(29)
.LBE6128:
.LBE6289:
.LBB6290:
.LBB6118:
.LBB6113:
.LBB6111:
	.loc 18 227 0
	la 3,.LC43@l(3)
	crxor 6,6,6
	bl _Z9gameErrorPKcz
.LVL381:
.LBE6111:
.LBE6113:
.LBE6118:
.LBE6290:
.LBB6291:
.LBB6129:
	.loc 18 225 0
	mr 3,31
	mr 4,29
	li 5,14
	bl _ZNK14idScriptObject11GetVariableEPKc7etype_t
	.loc 18 226 0
	cmpwi 7,3,0
	.loc 18 225 0
	stw 3,5204(30)
	.loc 18 226 0
	bne+ 7,.L158
.LVL382:
.L176:
.LBB6121:
.LBB6122:
	.loc 18 227 0
	mr 3,31
	bl _ZNK14idScriptObject11GetTypeNameEv
	mr 4,29
	mr 5,3
.LBE6122:
.LBE6121:
.LBE6129:
.LBE6291:
.LBB6292:
.LBB6140:
	.loc 18 225 0
	lis 29,.LC51@ha
.LBE6140:
.LBE6292:
.LBB6293:
.LBB6130:
.LBB6125:
.LBB6123:
	.loc 18 227 0
	lis 3,.LC43@ha
.LBE6123:
.LBE6125:
.LBE6130:
.LBE6293:
.LBB6294:
.LBB6141:
	.loc 18 225 0
	la 29,.LC51@l(29)
.LBE6141:
.LBE6294:
.LBB6295:
.LBB6131:
.LBB6126:
.LBB6124:
	.loc 18 227 0
	la 3,.LC43@l(3)
	crxor 6,6,6
	bl _Z9gameErrorPKcz
.LVL383:
.LBE6124:
.LBE6126:
.LBE6131:
.LBE6295:
.LBB6296:
.LBB6142:
	.loc 18 225 0
	mr 3,31
	mr 4,29
	li 5,14
	bl _ZNK14idScriptObject11GetVariableEPKc7etype_t
	.loc 18 226 0
	cmpwi 7,3,0
	.loc 18 225 0
	stw 3,5208(30)
	.loc 18 226 0
	bne+ 7,.L159
.LVL384:
.L177:
.LBB6134:
.LBB6135:
	.loc 18 227 0
	mr 3,31
	bl _ZNK14idScriptObject11GetTypeNameEv
	mr 4,29
	mr 5,3
.LBE6135:
.LBE6134:
.LBE6142:
.LBE6296:
.LBB6297:
.LBB6153:
	.loc 18 225 0
	lis 29,.LC52@ha
.LBE6153:
.LBE6297:
.LBB6298:
.LBB6143:
.LBB6138:
.LBB6136:
	.loc 18 227 0
	lis 3,.LC43@ha
.LBE6136:
.LBE6138:
.LBE6143:
.LBE6298:
.LBB6299:
.LBB6154:
	.loc 18 225 0
	la 29,.LC52@l(29)
.LBE6154:
.LBE6299:
.LBB6300:
.LBB6144:
.LBB6139:
.LBB6137:
	.loc 18 227 0
	la 3,.LC43@l(3)
	crxor 6,6,6
	bl _Z9gameErrorPKcz
.LVL385:
.LBE6137:
.LBE6139:
.LBE6144:
.LBE6300:
.LBB6301:
.LBB6155:
	.loc 18 225 0
	mr 3,31
	mr 4,29
	li 5,14
	bl _ZNK14idScriptObject11GetVariableEPKc7etype_t
	.loc 18 226 0
	cmpwi 7,3,0
	.loc 18 225 0
	stw 3,5212(30)
	.loc 18 226 0
	bne+ 7,.L160
.LVL386:
.L178:
.LBB6147:
.LBB6148:
	.loc 18 227 0
	mr 3,31
	bl _ZNK14idScriptObject11GetTypeNameEv
	mr 4,29
	mr 5,3
.LBE6148:
.LBE6147:
.LBE6155:
.LBE6301:
.LBB6302:
.LBB6166:
	.loc 18 225 0
	lis 29,.LC53@ha
.LBE6166:
.LBE6302:
.LBB6303:
.LBB6156:
.LBB6151:
.LBB6149:
	.loc 18 227 0
	lis 3,.LC43@ha
.LBE6149:
.LBE6151:
.LBE6156:
.LBE6303:
.LBB6304:
.LBB6167:
	.loc 18 225 0
	la 29,.LC53@l(29)
.LBE6167:
.LBE6304:
.LBB6305:
.LBB6157:
.LBB6152:
.LBB6150:
	.loc 18 227 0
	la 3,.LC43@l(3)
	crxor 6,6,6
	bl _Z9gameErrorPKcz
.LVL387:
.LBE6150:
.LBE6152:
.LBE6157:
.LBE6305:
.LBB6306:
.LBB6168:
	.loc 18 225 0
	mr 3,31
	mr 4,29
	li 5,14
	bl _ZNK14idScriptObject11GetVariableEPKc7etype_t
	.loc 18 226 0
	cmpwi 7,3,0
	.loc 18 225 0
	stw 3,5216(30)
	.loc 18 226 0
	bne+ 7,.L161
.LVL388:
.L179:
.LBB6160:
.LBB6161:
	.loc 18 227 0
	mr 3,31
	bl _ZNK14idScriptObject11GetTypeNameEv
	mr 4,29
	mr 5,3
.LBE6161:
.LBE6160:
.LBE6168:
.LBE6306:
.LBB6307:
.LBB6179:
	.loc 18 225 0
	lis 29,.LC54@ha
.LBE6179:
.LBE6307:
.LBB6308:
.LBB6169:
.LBB6164:
.LBB6162:
	.loc 18 227 0
	lis 3,.LC43@ha
.LBE6162:
.LBE6164:
.LBE6169:
.LBE6308:
.LBB6309:
.LBB6180:
	.loc 18 225 0
	la 29,.LC54@l(29)
.LBE6180:
.LBE6309:
.LBB6310:
.LBB6170:
.LBB6165:
.LBB6163:
	.loc 18 227 0
	la 3,.LC43@l(3)
	crxor 6,6,6
	bl _Z9gameErrorPKcz
.LVL389:
.LBE6163:
.LBE6165:
.LBE6170:
.LBE6310:
.LBB6311:
.LBB6181:
	.loc 18 225 0
	mr 3,31
	mr 4,29
	li 5,14
	bl _ZNK14idScriptObject11GetVariableEPKc7etype_t
	.loc 18 226 0
	cmpwi 7,3,0
	.loc 18 225 0
	stw 3,5220(30)
	.loc 18 226 0
	bne+ 7,.L162
.LVL390:
.L180:
.LBB6173:
.LBB6174:
	.loc 18 227 0
	mr 3,31
	bl _ZNK14idScriptObject11GetTypeNameEv
	mr 4,29
	mr 5,3
.LBE6174:
.LBE6173:
.LBE6181:
.LBE6311:
.LBB6312:
.LBB6192:
	.loc 18 225 0
	lis 29,.LC55@ha
.LBE6192:
.LBE6312:
.LBB6313:
.LBB6182:
.LBB6177:
.LBB6175:
	.loc 18 227 0
	lis 3,.LC43@ha
.LBE6175:
.LBE6177:
.LBE6182:
.LBE6313:
.LBB6314:
.LBB6193:
	.loc 18 225 0
	la 29,.LC55@l(29)
.LBE6193:
.LBE6314:
.LBB6315:
.LBB6183:
.LBB6178:
.LBB6176:
	.loc 18 227 0
	la 3,.LC43@l(3)
	crxor 6,6,6
	bl _Z9gameErrorPKcz
.LVL391:
.LBE6176:
.LBE6178:
.LBE6183:
.LBE6315:
.LBB6316:
.LBB6194:
	.loc 18 225 0
	mr 3,31
	mr 4,29
	li 5,14
	bl _ZNK14idScriptObject11GetVariableEPKc7etype_t
	.loc 18 226 0
	cmpwi 7,3,0
	.loc 18 225 0
	stw 3,5224(30)
	.loc 18 226 0
	bne+ 7,.L163
.LVL392:
.L181:
.LBB6186:
.LBB6187:
	.loc 18 227 0
	mr 3,31
	bl _ZNK14idScriptObject11GetTypeNameEv
	mr 4,29
	mr 5,3
.LBE6187:
.LBE6186:
.LBE6194:
.LBE6316:
.LBB6317:
.LBB6205:
	.loc 18 225 0
	lis 29,.LC56@ha
.LBE6205:
.LBE6317:
.LBB6318:
.LBB6195:
.LBB6190:
.LBB6188:
	.loc 18 227 0
	lis 3,.LC43@ha
.LBE6188:
.LBE6190:
.LBE6195:
.LBE6318:
.LBB6319:
.LBB6206:
	.loc 18 225 0
	la 29,.LC56@l(29)
.LBE6206:
.LBE6319:
.LBB6320:
.LBB6196:
.LBB6191:
.LBB6189:
	.loc 18 227 0
	la 3,.LC43@l(3)
	crxor 6,6,6
	bl _Z9gameErrorPKcz
.LVL393:
.LBE6189:
.LBE6191:
.LBE6196:
.LBE6320:
.LBB6321:
.LBB6207:
	.loc 18 225 0
	mr 3,31
	mr 4,29
	li 5,14
	bl _ZNK14idScriptObject11GetVariableEPKc7etype_t
	.loc 18 226 0
	cmpwi 7,3,0
	.loc 18 225 0
	stw 3,5232(30)
	.loc 18 226 0
	bne+ 7,.L164
.LVL394:
.L182:
.LBB6199:
.LBB6200:
	.loc 18 227 0
	mr 3,31
	bl _ZNK14idScriptObject11GetTypeNameEv
	mr 4,29
	mr 5,3
.LBE6200:
.LBE6199:
.LBE6207:
.LBE6321:
.LBB6322:
.LBB6218:
	.loc 18 225 0
	lis 29,.LC57@ha
.LBE6218:
.LBE6322:
.LBB6323:
.LBB6208:
.LBB6203:
.LBB6201:
	.loc 18 227 0
	lis 3,.LC43@ha
.LBE6201:
.LBE6203:
.LBE6208:
.LBE6323:
.LBB6324:
.LBB6219:
	.loc 18 225 0
	la 29,.LC57@l(29)
.LBE6219:
.LBE6324:
.LBB6325:
.LBB6209:
.LBB6204:
.LBB6202:
	.loc 18 227 0
	la 3,.LC43@l(3)
	crxor 6,6,6
	bl _Z9gameErrorPKcz
.LVL395:
.LBE6202:
.LBE6204:
.LBE6209:
.LBE6325:
.LBB6326:
.LBB6220:
	.loc 18 225 0
	mr 3,31
	mr 4,29
	li 5,14
	bl _ZNK14idScriptObject11GetVariableEPKc7etype_t
	.loc 18 226 0
	cmpwi 7,3,0
	.loc 18 225 0
	stw 3,5240(30)
	.loc 18 226 0
	bne+ 7,.L165
.LVL396:
.L183:
.LBB6212:
.LBB6213:
	.loc 18 227 0
	mr 3,31
	bl _ZNK14idScriptObject11GetTypeNameEv
	mr 4,29
	mr 5,3
.LBE6213:
.LBE6212:
.LBE6220:
.LBE6326:
.LBB6327:
.LBB6231:
	.loc 18 225 0
	lis 29,.LC58@ha
.LBE6231:
.LBE6327:
.LBB6328:
.LBB6221:
.LBB6216:
.LBB6214:
	.loc 18 227 0
	lis 3,.LC43@ha
.LBE6214:
.LBE6216:
.LBE6221:
.LBE6328:
.LBB6329:
.LBB6232:
	.loc 18 225 0
	la 29,.LC58@l(29)
.LBE6232:
.LBE6329:
.LBB6330:
.LBB6222:
.LBB6217:
.LBB6215:
	.loc 18 227 0
	la 3,.LC43@l(3)
	crxor 6,6,6
	bl _Z9gameErrorPKcz
.LVL397:
.LBE6215:
.LBE6217:
.LBE6222:
.LBE6330:
.LBB6331:
.LBB6233:
	.loc 18 225 0
	mr 3,31
	mr 4,29
	li 5,14
	bl _ZNK14idScriptObject11GetVariableEPKc7etype_t
	.loc 18 226 0
	cmpwi 7,3,0
	.loc 18 225 0
	stw 3,5244(30)
	.loc 18 226 0
	bne+ 7,.L166
.LVL398:
.L184:
.LBB6225:
.LBB6226:
	.loc 18 227 0
	mr 3,31
	bl _ZNK14idScriptObject11GetTypeNameEv
	mr 4,29
	mr 5,3
.LBE6226:
.LBE6225:
.LBE6233:
.LBE6331:
.LBB6332:
.LBB6244:
	.loc 18 225 0
	lis 29,.LC59@ha
.LBE6244:
.LBE6332:
.LBB6333:
.LBB6234:
.LBB6229:
.LBB6227:
	.loc 18 227 0
	lis 3,.LC43@ha
.LBE6227:
.LBE6229:
.LBE6234:
.LBE6333:
.LBB6334:
.LBB6245:
	.loc 18 225 0
	la 29,.LC59@l(29)
.LBE6245:
.LBE6334:
.LBB6335:
.LBB6235:
.LBB6230:
.LBB6228:
	.loc 18 227 0
	la 3,.LC43@l(3)
	crxor 6,6,6
	bl _Z9gameErrorPKcz
.LVL399:
.LBE6228:
.LBE6230:
.LBE6235:
.LBE6335:
.LBB6336:
.LBB6246:
	.loc 18 225 0
	mr 3,31
	mr 4,29
	li 5,14
	bl _ZNK14idScriptObject11GetVariableEPKc7etype_t
	.loc 18 226 0
	cmpwi 7,3,0
	.loc 18 225 0
	stw 3,5236(30)
	.loc 18 226 0
	bne+ 7,.L167
.LVL400:
.L185:
.LBB6238:
.LBB6239:
	.loc 18 227 0
	mr 3,31
	bl _ZNK14idScriptObject11GetTypeNameEv
	mr 4,29
	mr 5,3
.LBE6239:
.LBE6238:
.LBE6246:
.LBE6336:
.LBB6337:
.LBB6253:
	.loc 18 225 0
	lis 29,.LC60@ha
.LBE6253:
.LBE6337:
.LBB6338:
.LBB6247:
.LBB6242:
.LBB6240:
	.loc 18 227 0
	lis 3,.LC43@ha
.LBE6240:
.LBE6242:
.LBE6247:
.LBE6338:
.LBB6339:
.LBB6254:
	.loc 18 225 0
	la 29,.LC60@l(29)
.LBE6254:
.LBE6339:
.LBB6340:
.LBB6248:
.LBB6243:
.LBB6241:
	.loc 18 227 0
	la 3,.LC43@l(3)
	crxor 6,6,6
	bl _Z9gameErrorPKcz
.LVL401:
.LBE6241:
.LBE6243:
.LBE6248:
.LBE6340:
.LBB6341:
.LBB6255:
	.loc 18 225 0
	mr 3,31
	mr 4,29
	li 5,14
	bl _ZNK14idScriptObject11GetVariableEPKc7etype_t
	.loc 18 226 0
	cmpwi 7,3,0
	.loc 18 225 0
	stw 3,5248(30)
	.loc 18 226 0
	bne+ 7,.L150
.LVL402:
.L186:
.LBB6251:
.LBB6252:
	.loc 18 227 0
	mr 3,31
	bl _ZNK14idScriptObject11GetTypeNameEv
	mr 4,29
	mr 5,3
	lis 3,.LC43@ha
	la 3,.LC43@l(3)
	crxor 6,6,6
	bl _Z9gameErrorPKcz
.LBE6252:
.LBE6251:
.LBE6255:
.LBE6341:
	.loc 4 1206 0
	lwz 0,28(1)
	lwz 29,12(1)
	mtlr 0
	lwz 30,16(1)
.LVL403:
	lwz 31,20(1)
.LVL404:
	addi 1,1,24
	.cfi_restore 29
	.cfi_restore 30
	.cfi_restore 31
.LCFI75:
	.cfi_def_cfa_offset 0
	blr
	.cfi_endproc
.LFE2866:
	.size	_ZN4idAI19LinkScriptVariablesEv, .-_ZN4idAI19LinkScriptVariablesEv
	.align 2
	.globl _ZN4idAI14UpdateAIScriptEv
	.type	_ZN4idAI14UpdateAIScriptEv, @function
_ZN4idAI14UpdateAIScriptEv:
.LFB2867:
	.loc 4 1213 0
	.cfi_startproc
.LVL405:
	stwu 1,-16(1)
.LCFI76:
	.cfi_def_cfa_offset 16
	mflr 0
	stw 31,12(1)
	mr 31,3
	.cfi_offset 31, -4
	.cfi_register 65, 0
	stw 0,20(1)
	.loc 4 1214 0
	.cfi_offset 65, 4
	bl _ZN7idActor12UpdateScriptEv
.LVL406:
.LBB6342:
.LBB6343:
	.loc 18 237 0
	lwz 9,5244(31)
	cmpwi 7,9,0
	beq- 7,.L188
	.loc 18 238 0
	li 0,0
	stw 0,0(9)
.L188:
.LBE6343:
.LBE6342:
	.loc 4 1219 0
	lbz 0,4545(31)
	cmpwi 7,0,0
	beq- 7,.L192
.L189:
	.loc 4 1221 0 discriminator 4
	mr 3,31
	bl _ZN7idActor15UpdateAnimStateEv
	.loc 4 1223 0 discriminator 4
	lwz 0,20(1)
	lwz 31,12(1)
.LVL407:
	mtlr 0
	addi 1,1,16
	.cfi_remember_state
.LCFI77:
	.cfi_def_cfa_offset 0
	.cfi_restore 31
	blr
.LVL408:
.L192:
.LCFI78:
	.cfi_restore_state
	.loc 4 1219 0 discriminator 2
	mr 3,31
	bl _ZNK8idEntity8IsHiddenEv
	cmpwi 7,3,0
	beq- 7,.L189
	.loc 4 1223 0
	lwz 0,20(1)
	lwz 31,12(1)
.LVL409:
	mtlr 0
	addi 1,1,16
	.cfi_restore 31
.LCFI79:
	.cfi_def_cfa_offset 0
	blr
	.cfi_endproc
.LFE2867:
	.size	_ZN4idAI14UpdateAIScriptEv, .-_ZN4idAI14UpdateAIScriptEv
	.align 2
	.globl _ZN4idAI13KickObstaclesERK6idVec3fP8idEntity
	.type	_ZN4idAI13KickObstaclesERK6idVec3fP8idEntity, @function
_ZN4idAI13KickObstaclesERK6idVec3fP8idEntity:
.LFB2868:
	.loc 4 1236 0
	.cfi_startproc
.LVL410:
	stwu 1,-16584(1)
.LCFI80:
	.cfi_def_cfa_offset 16584
	mflr 0
	stw 31,16524(1)
.LBB6423:
	.loc 4 1248 0
	addi 31,3,4216
	.cfi_offset 31, -60
	.cfi_register 65, 0
.LBE6423:
	.loc 4 1236 0
	stw 24,16496(1)
	mr 24,3
	.cfi_offset 24, -88
	stw 30,16520(1)
.LBB6698:
	.loc 4 1248 0
	mr 3,31
.LVL411:
.LBE6698:
	.loc 4 1236 0
	mr 30,4
	.cfi_offset 30, -64
.LBB6699:
	.loc 4 1248 0
	li 4,0
.LVL412:
.LBE6699:
	.loc 4 1236 0
	stw 0,16588(1)
	stfd 25,16528(1)
	stfd 26,16536(1)
	stfd 27,16544(1)
	stfd 31,16576(1)
	fmr 31,1
	.cfi_offset 63, -8
	.cfi_offset 59, -40
	.cfi_offset 58, -48
	.cfi_offset 57, -56
	.cfi_offset 65, 4
	stw 29,16516(1)
	mr 29,5
	.cfi_offset 29, -68
	stfd 28,16552(1)
	stfd 29,16560(1)
	stfd 30,16568(1)
	stw 16,16464(1)
	stw 17,16468(1)
	stw 18,16472(1)
	stw 19,16476(1)
	stw 20,16480(1)
	stw 21,16484(1)
	stw 22,16488(1)
	stw 23,16492(1)
	stw 25,16500(1)
	stw 26,16504(1)
	stw 27,16508(1)
	stw 28,16512(1)
.LBB6700:
	.loc 4 1248 0
	.cfi_offset 28, -72
	.cfi_offset 27, -76
	.cfi_offset 26, -80
	.cfi_offset 25, -84
	.cfi_offset 23, -92
	.cfi_offset 22, -96
	.cfi_offset 21, -100
	.cfi_offset 20, -104
	.cfi_offset 19, -108
	.cfi_offset 18, -112
	.cfi_offset 17, -116
	.cfi_offset 16, -120
	.cfi_offset 62, -16
	.cfi_offset 61, -24
	.cfi_offset 60, -32
	bl _ZNK15idPhysics_Actor9GetOriginEi
.LVL413:
	mr 9,3
.LVL414:
	.loc 4 1251 0
	li 4,-1
	mr 3,31
.LVL415:
.LBB6424:
.LBB6425:
	.loc 6 424 0
	lfs 26,0(9)
.LVL416:
	.loc 6 425 0
	lfs 25,4(9)
.LVL417:
	.loc 6 426 0
	lfs 27,8(9)
.LVL418:
.LBE6425:
.LBE6424:
	.loc 4 1251 0
	bl _ZNK15idPhysics_Actor12GetAbsBoundsEi
.LVL419:
.LBB6426:
.LBB6427:
	.loc 6 457 0
	lis 9,.LC61@ha
.LBE6427:
.LBE6426:
.LBB6433:
.LBB6434:
	.loc 6 456 0
	lfs 8,0(3)
.LBE6434:
.LBE6433:
.LBB6440:
.LBB6428:
	.loc 6 457 0
	lfs 13,.LC61@l(9)
.LBE6428:
.LBE6440:
.LBB6441:
.LBB6435:
	.loc 5 323 0
	lis 9,.LC62@ha
.LBE6435:
.LBE6441:
.LBB6442:
.LBB6429:
	.loc 6 439 0
	lfs 9,0(30)
.LBE6429:
.LBE6442:
.LBB6443:
.LBB6436:
	.loc 5 323 0
	lfs 0,.LC62@l(9)
	.loc 6 456 0
	fmadds 8,9,13,8
.LBE6436:
.LBE6443:
.LBB6444:
.LBB6430:
	.loc 6 457 0
	lfs 10,4(3)
	.loc 6 458 0
	lfs 12,8(3)
	.loc 6 456 0
	lfs 4,12(3)
	.loc 6 457 0
	lfs 5,16(3)
.LBE6430:
.LBE6444:
.LBB6445:
.LBB6437:
	.loc 5 323 0
	fsubs 8,8,0
.LBE6437:
.LBE6445:
.LBB6446:
.LBB6431:
	.loc 6 439 0
	lfs 11,4(30)
	.loc 6 456 0
	fmadds 9,9,13,4
	.loc 6 439 0
	lfs 7,8(30)
.LVL420:
	.loc 6 458 0
	lfs 6,20(3)
	.loc 6 457 0
	fmadds 10,11,13,10
	.loc 6 458 0
	fmadds 12,7,13,12
.LVL421:
.LBE6431:
.LBE6446:
.LBB6447:
.LBB6438:
	.loc 5 323 0
	stfs 8,20(1)
.LBE6438:
.LBE6447:
.LBB6448:
.LBB6432:
	.loc 6 457 0
	fmadds 11,11,13,5
	.loc 6 458 0
	fmadds 13,7,13,6
.LVL422:
.LBE6432:
.LBE6448:
.LBB6449:
.LBB6450:
	.loc 5 228 0
	fcmpu 7,26,8
.LBE6450:
.LBE6449:
.LBB6452:
.LBB6439:
	.loc 5 324 0
	fsubs 10,10,0
	.loc 5 325 0
	fsubs 12,12,0
	.loc 5 326 0
	fadds 9,9,0
	.loc 5 327 0
	fadds 11,11,0
	.loc 5 324 0
	stfs 10,24(1)
.LVL423:
	.loc 5 328 0
	fadds 0,13,0
	.loc 5 325 0
	stfs 12,28(1)
.LVL424:
	.loc 5 326 0
	stfs 9,32(1)
.LVL425:
	.loc 5 327 0
	stfs 11,36(1)
.LVL426:
	.loc 5 328 0
	stfs 0,40(1)
.LVL427:
.LBE6439:
.LBE6452:
.LBB6453:
.LBB6451:
	.loc 5 228 0
	bnl- 7,.L194
.LVL428:
	.loc 5 229 0
	stfs 26,20(1)
.LVL429:
.L194:
	.loc 5 232 0
	fcmpu 7,26,9
	bng- 7,.L196
.LVL430:
	.loc 5 233 0
	stfs 26,32(1)
.LVL431:
.L196:
	.loc 5 236 0
	fcmpu 7,25,10
	bnl- 7,.L198
.LVL432:
	.loc 5 237 0
	stfs 25,24(1)
.LVL433:
.L198:
	.loc 5 240 0
	fcmpu 7,25,11
	bng- 7,.L200
.LVL434:
	.loc 5 241 0
	stfs 25,36(1)
.LVL435:
.L200:
	.loc 5 244 0
	fcmpu 7,27,12
	bnl- 7,.L202
.LVL436:
	.loc 5 245 0
	stfs 27,28(1)
.LVL437:
.L202:
	.loc 5 248 0
	fcmpu 7,27,0
	bng- 7,.L204
.LVL438:
	.loc 5 249 0
	stfs 27,40(1)
.LVL439:
.L204:
.LBE6451:
.LBE6453:
	.loc 4 1255 0
	li 4,-1
	mr 3,31
.LVL440:
	bl _ZNK14idPhysics_Base11GetClipMaskEi
.LVL441:
	.loc 4 1256 0
	addi 4,1,20
	.loc 4 1255 0
	mr 5,3
.LVL442:
	.loc 4 1256 0
	lis 3,gameLocal+2311032@ha
.LVL443:
	la 3,gameLocal+2311032@l(3)
	addi 6,1,44
	li 7,4096
	bl _ZNK6idClip24ClipModelsTouchingBoundsERK8idBoundsiPP11idClipModeli
.LVL444:
	.loc 4 1257 0
	mr. 28,3
	ble- 0,.L206
.LBB6454:
.LBB6455:
.LBB6456:
.LBB6457:
.LBB6458:
.LBB6459:
	.file 19 "d:/Data/Nintendo/DoomGX/src/game/ai/../../idlib/../idlib/math/Random.h"
	.loc 19 71 0
	lis 26,gameLocal@ha
.LBE6459:
.LBE6458:
.LBE6457:
.LBE6456:
.LBE6455:
.LBE6454:
.LBB6504:
.LBB6505:
.LBB6506:
.LBB6507:
	.loc 8 248 0
	lis 17,0x5f37
.LBE6507:
.LBE6506:
.LBE6505:
.LBE6504:
.LBB6525:
.LBB6492:
.LBB6482:
.LBB6472:
.LBB6466:
.LBB6460:
	.loc 19 71 0
	la 26,gameLocal@l(26)
	lis 20,0x1
.LBE6460:
.LBE6466:
.LBE6472:
.LBE6482:
.LBE6492:
.LBE6525:
	.loc 4 1257 0
	addi 30,1,40
.LVL445:
	li 31,0
.LBB6526:
	.loc 4 5138 0
	lis 27,_ZN10idMoveable4TypeE@ha
.LBE6526:
.LBB6531:
.LBB6518:
.LBB6513:
.LBB6508:
	.loc 8 248 0
	ori 17,17,23007
	.loc 8 246 0
	lis 18,.LC15@ha
	.loc 8 250 0
	lis 19,.LC63@ha
.LBE6508:
.LBE6513:
.LBE6518:
.LBE6531:
.LBB6532:
.LBB6493:
.LBB6483:
.LBB6473:
.LBB6467:
.LBB6461:
	.loc 19 71 0
	addis 26,26,0x1
	ori 20,20,3533
.LBE6461:
.LBE6467:
	.loc 19 83 0
	lis 21,0x4330
	lis 22,.LC65@ha
.LBE6473:
.LBE6483:
	.loc 19 87 0
	lis 23,.LC66@ha
.LVL446:
.L209:
.LBE6493:
.LBE6532:
	.loc 4 1258 0
	lwzu 9,4(30)
.LVL447:
	.loc 4 5138 0
	lwz 16,4(9)
	.loc 4 1260 0
	cmpw 7,16,29
	beq- 7,.L207
	.loc 4 1265 0
	lwz 0,124(9)
	cmpwi 7,0,-1
	beq- 7,.L207
.LVL448:
.LBB6533:
.LBB6527:
	.loc 16 340 0
	lwz 9,0(16)
	mr 3,16
	lwz 0,0(9)
	mtctr 0
	bctrl
.LVL449:
.LBE6527:
	.loc 4 5138 0
	la 9,_ZN10idMoveable4TypeE@l(27)
	lwz 0,56(3)
.LBB6530:
.LBB6528:
.LBB6529:
	.loc 16 311 0
	lwz 11,56(9)
	cmpw 7,0,11
	blt- 7,.L207
	lwz 9,60(9)
	cmpw 7,0,9
	bgt- 7,.L207
.LBE6529:
.LBE6528:
.LBE6530:
.LBE6533:
	.loc 4 1269 0
	mr 3,16
.LVL450:
	bl _ZNK8idEntity10GetPhysicsEv
	lwz 9,0(3)
	lwz 0,104(9)
	mtctr 0
	bctrl
	cmpwi 7,3,0
	beq- 7,.L207
	.loc 4 1270 0 discriminator 4
	mr 3,16
	bl _ZNK8idEntity10GetPhysicsEv
	li 4,0
	lwz 9,0(3)
	lwz 0,132(9)
	mtctr 0
	bctrl
.LVL451:
.LBB6534:
.LBB6494:
.LBB6484:
.LBB6474:
.LBB6468:
.LBB6462:
	.loc 19 71 0 discriminator 4
	lwz 9,-32064(26)
.LBE6462:
.LBE6468:
.LBE6474:
.LBE6484:
.LBE6494:
.LBE6534:
.LBB6535:
.LBB6536:
	.loc 6 431 0 discriminator 4
	lfs 11,4(3)
	lfs 12,0(3)
.LBE6536:
.LBE6535:
.LBB6541:
.LBB6495:
.LBB6485:
.LBB6475:
.LBB6469:
.LBB6463:
	.loc 19 71 0 discriminator 4
	mullw 9,20,9
.LBE6463:
.LBE6469:
.LBE6475:
.LBE6485:
.LBE6495:
.LBE6541:
.LBB6542:
.LBB6537:
	.loc 6 431 0 discriminator 4
	fsubs 11,11,25
	lfs 30,8(3)
	fsubs 12,12,26
.LBE6537:
.LBE6542:
.LBB6543:
.LBB6519:
.LBB6514:
.LBB6509:
	.loc 8 246 0 discriminator 4
	lfs 0,.LC15@l(18)
.LBE6509:
.LBE6514:
.LBE6519:
.LBE6543:
.LBB6544:
.LBB6538:
	.loc 6 431 0 discriminator 4
	fsubs 30,30,27
.LVL452:
.LBE6538:
.LBE6544:
.LBB6545:
.LBB6496:
.LBB6486:
.LBB6476:
	.loc 19 83 0 discriminator 4
	stw 21,16440(1)
.LBE6476:
.LBE6486:
.LBE6496:
.LBE6545:
.LBB6546:
.LBB6520:
	.loc 6 527 0 discriminator 4
	fmuls 13,11,11
.LBE6520:
.LBE6546:
.LBB6547:
.LBB6497:
.LBB6487:
.LBB6477:
.LBB6470:
.LBB6464:
	.loc 19 71 0 discriminator 4
	addi 0,9,1
	.loc 19 72 0 discriminator 4
	rlwinm 9,0,0,17,31
.LBE6464:
.LBE6470:
	.loc 19 83 0 discriminator 4
	lfs 10,.LC65@l(22)
	xoris 9,9,0x8000
.LBE6477:
.LBE6487:
.LBE6497:
.LBE6547:
	.loc 4 1276 0 discriminator 4
	mr 3,16
.LVL453:
.LBB6548:
.LBB6539:
	.loc 6 527 0 discriminator 4
	fmadds 13,12,12,13
.LBE6539:
.LBE6548:
.LBB6549:
.LBB6498:
.LBB6488:
.LBB6478:
	.loc 19 83 0 discriminator 4
	stw 9,16444(1)
.LBE6478:
.LBE6488:
.LBE6498:
.LBE6549:
.LBB6550:
.LBB6540:
	.loc 6 527 0 discriminator 4
	fmadds 13,30,30,13
	stfs 13,16456(1)
.LVL454:
.LBE6540:
.LBE6550:
.LBB6551:
.LBB6521:
.LBB6515:
.LBB6510:
	.loc 8 246 0 discriminator 4
	fmuls 8,13,0
	.loc 8 248 0 discriminator 4
	lwz 8,16456(1)
	.loc 4 1236 0 discriminator 4
	fneg 8,8
	.loc 8 248 0 discriminator 4
	srawi 11,8,1
	.loc 8 249 0 discriminator 4
	subf 11,11,17
	stw 11,16456(1)
.LVL455:
	.loc 8 250 0 discriminator 4
	lfs 9,16456(1)
	fmuls 13,9,9
.LVL456:
	lfs 9,.LC63@l(19)
	fmadds 13,8,13,9
.LBE6510:
.LBE6515:
.LBE6521:
.LBE6551:
.LBB6552:
.LBB6499:
.LBB6489:
.LBB6479:
	.loc 19 83 0 discriminator 4
	lfd 9,16440(1)
.LBE6479:
.LBE6489:
.LBE6499:
.LBE6552:
.LBB6553:
.LBB6522:
.LBB6516:
.LBB6511:
	.loc 8 250 0 discriminator 4
	lfs 8,16456(1)
.LBE6511:
.LBE6516:
.LBE6522:
.LBE6553:
.LBB6554:
.LBB6500:
.LBB6490:
.LBB6480:
	.loc 19 83 0 discriminator 4
	fsub 10,9,10
.LBE6480:
.LBE6490:
	.loc 19 87 0 discriminator 4
	lfs 9,.LC66@l(23)
.LBE6500:
.LBE6554:
.LBB6555:
.LBB6523:
.LBB6517:
.LBB6512:
	.loc 8 250 0 discriminator 4
	fmuls 13,8,13
.LVL457:
.LBE6512:
.LBE6517:
.LBE6523:
.LBE6555:
.LBB6556:
.LBB6501:
.LBB6491:
.LBB6481:
.LBB6471:
.LBB6465:
	.loc 19 71 0 discriminator 4
	stw 0,-32064(26)
.LBE6465:
.LBE6471:
	.loc 19 83 0 discriminator 4
	frsp 10,10
.LBE6481:
.LBE6491:
.LBE6501:
.LBE6556:
.LBB6557:
.LBB6524:
	.loc 6 530 0 discriminator 4
	fmuls 11,11,13
.LVL458:
	.loc 6 529 0 discriminator 4
	fmuls 12,12,13
.LVL459:
.LBE6524:
.LBE6557:
.LBB6558:
.LBB6502:
	.loc 19 87 0 discriminator 4
	fmsubs 10,10,9,0
.LBE6502:
.LBE6558:
	.loc 4 1272 0 discriminator 4
	fneg 28,11
.LBB6559:
.LBB6560:
	.loc 4 1274 0 discriminator 4
	fmadds 30,30,13,0
.LVL460:
.LBE6560:
.LBE6559:
.LBB6563:
.LBB6503:
	.loc 19 87 0 discriminator 4
	fadds 10,10,10
.LVL461:
.LBE6503:
.LBE6563:
.LBB6564:
.LBB6561:
	.loc 6 439 0 discriminator 4
	fmuls 30,30,31
.LVL462:
.LBE6561:
.LBE6564:
.LBB6565:
.LBB6566:
	.loc 6 245 0 discriminator 4
	fmuls 28,28,10
	fmuls 10,10,12
.LVL463:
.LBE6566:
.LBE6565:
.LBB6567:
.LBB6562:
	.loc 6 262 0 discriminator 4
	fmadds 12,28,0,12
.LVL464:
	.loc 6 263 0 discriminator 4
	fmadds 11,10,0,11
.LVL465:
	.loc 6 439 0 discriminator 4
	fmuls 28,31,12
.LVL466:
	fmuls 29,31,11
.LVL467:
.LBE6562:
.LBE6567:
	.loc 4 1276 0 discriminator 4
	bl _ZNK8idEntity10GetPhysicsEv
.LVL468:
	lwz 9,0(3)
	li 4,-1
	lwz 0,36(9)
	mtctr 0
	bctrl
.LVL469:
	.loc 4 1277 0 discriminator 4
	mr 3,16
.LBB6568:
.LBB6569:
	.loc 6 439 0 discriminator 4
	fmuls 28,1,28
.LVL470:
	fmuls 29,1,29
.LVL471:
	fmuls 1,1,30
.LVL472:
.LBE6569:
.LBE6568:
.LBB6570:
.LBB6571:
	.loc 6 424 0 discriminator 4
	stfs 28,8(1)
	.loc 6 425 0 discriminator 4
	stfs 29,12(1)
	.loc 6 426 0 discriminator 4
	stfs 1,16(1)
.LBE6571:
.LBE6570:
	.loc 4 1277 0 discriminator 4
	lwz 9,0(16)
	lwz 25,132(9)
	bl _ZNK8idEntity10GetPhysicsEv
.LVL473:
	lwz 9,0(3)
	li 4,0
	lwz 0,132(9)
	mtctr 0
	bctrl
	mr 4,24
	mr 6,3
	li 5,0
	mr 3,16
	addi 7,1,8
	mtctr 25
	bctrl
.LVL474:
.L207:
	.loc 4 1257 0
	addi 31,31,1
.LVL475:
	cmpw 7,31,28
	bne+ 7,.L209
.LVL476:
.L206:
	.loc 4 1281 0
	cmpwi 7,29,0
	beq- 7,.L193
	.loc 4 1282 0
	mr 3,29
	bl _ZNK8idEntity10GetPhysicsEv
	li 4,0
	lwz 9,0(3)
	lwz 0,132(9)
	mtctr 0
	bctrl
.LVL477:
.LBB6572:
.LBB6573:
.LBB6574:
.LBB6575:
.LBB6576:
.LBB6577:
	.loc 19 71 0
	lis 9,gameLocal@ha
.LBE6577:
.LBE6576:
.LBE6575:
.LBE6574:
.LBE6573:
.LBE6572:
.LBB6631:
.LBB6632:
	.loc 6 431 0
	lfs 13,4(3)
.LBE6632:
.LBE6631:
.LBB6639:
.LBB6618:
.LBB6606:
.LBB6594:
.LBB6586:
.LBB6578:
	.loc 19 71 0
	la 9,gameLocal@l(9)
.LBE6578:
.LBE6586:
.LBE6594:
.LBE6606:
.LBE6618:
.LBE6639:
.LBB6640:
.LBB6633:
	.loc 6 431 0
	lfs 0,0(3)
.LBE6633:
.LBE6640:
.LBB6641:
.LBB6619:
.LBB6607:
.LBB6595:
.LBB6587:
.LBB6579:
	.loc 19 71 0
	addis 9,9,0x1
.LBE6579:
.LBE6587:
.LBE6595:
.LBE6607:
.LBE6619:
.LBE6641:
.LBB6642:
.LBB6634:
	.loc 6 431 0
	fsubs 25,13,25
.LVL478:
	lfs 13,8(3)
	fsubs 26,0,26
.LVL479:
.LBE6634:
.LBE6642:
.LBB6643:
.LBB6620:
.LBB6608:
.LBB6596:
.LBB6588:
.LBB6580:
	.loc 19 71 0
	lwz 0,-32064(9)
.LBE6580:
.LBE6588:
.LBE6596:
.LBE6608:
.LBE6620:
.LBE6643:
.LBB6644:
.LBB6635:
	.loc 6 431 0
	fsubs 27,13,27
.LVL480:
.LBE6635:
.LBE6644:
.LBB6645:
.LBB6621:
.LBB6609:
.LBB6597:
.LBB6589:
.LBB6581:
	.loc 19 71 0
	lis 11,0x1
.LBE6581:
.LBE6589:
.LBE6597:
.LBE6609:
.LBE6621:
.LBE6645:
.LBB6646:
.LBB6647:
	.loc 6 527 0
	fmuls 0,25,25
.LBE6647:
.LBE6646:
.LBB6664:
.LBB6622:
.LBB6610:
.LBB6598:
.LBB6590:
.LBB6582:
	.loc 19 71 0
	ori 11,11,3533
	mullw 11,11,0
.LBE6582:
.LBE6590:
.LBE6598:
.LBE6610:
.LBE6622:
.LBE6664:
.LBB6665:
.LBB6658:
.LBB6648:
.LBB6649:
	.loc 8 246 0
	lis 10,.LC15@ha
.LBE6649:
.LBE6648:
.LBE6658:
.LBE6665:
	.loc 4 1288 0
	mr 3,29
.LVL481:
.LBB6666:
.LBB6636:
	.loc 6 527 0
	fmadds 0,26,26,0
.LBE6636:
.LBE6666:
.LBB6667:
.LBB6623:
.LBB6611:
.LBB6599:
.LBB6591:
.LBB6583:
	.loc 19 71 0
	addi 0,11,1
.LBE6583:
.LBE6591:
.LBE6599:
.LBE6611:
.LBE6623:
.LBE6667:
.LBB6668:
.LBB6637:
	.loc 6 527 0
	fmadds 0,27,27,0
.LBE6637:
.LBE6668:
.LBB6669:
.LBB6624:
.LBB6612:
.LBB6600:
.LBB6592:
.LBB6584:
	.loc 19 72 0
	rlwinm 11,0,0,17,31
.LBE6584:
.LBE6592:
	.loc 19 83 0
	xoris 11,11,0x8000
	stw 11,16452(1)
	lis 11,0x4330
.LBE6600:
.LBE6612:
.LBE6624:
.LBE6669:
.LBB6670:
.LBB6638:
	.loc 6 527 0
	stfs 0,16456(1)
.LVL482:
.LBE6638:
.LBE6670:
.LBB6671:
.LBB6659:
.LBB6654:
.LBB6650:
	.loc 8 246 0
	lfs 0,.LC15@l(10)
.LVL483:
	.loc 8 248 0
	lwz 8,16456(1)
	.loc 8 246 0
	lfs 8,16456(1)
	.loc 8 248 0
	srawi 10,8,1
	.loc 8 249 0
	lis 8,0x5f37
	ori 8,8,23007
	.loc 8 246 0
	fmuls 11,8,0
	.loc 8 249 0
	subf 8,10,8
.LBE6650:
.LBE6654:
.LBE6659:
.LBE6671:
.LBB6672:
.LBB6625:
.LBB6613:
.LBB6601:
	.loc 19 83 0
	stw 11,16448(1)
.LBE6601:
.LBE6613:
.LBE6625:
.LBE6672:
.LBB6673:
.LBB6660:
.LBB6655:
.LBB6651:
	.loc 8 249 0
	stw 8,16456(1)
.LVL484:
	.loc 8 250 0
	lis 11,.LC63@ha
	.loc 4 1236 0
	fneg 11,11
	.loc 8 250 0
	lfs 12,.LC63@l(11)
	lfs 8,16456(1)
.LBE6651:
.LBE6655:
.LBE6660:
.LBE6673:
.LBB6674:
.LBB6626:
.LBB6614:
.LBB6602:
	.loc 19 83 0
	lis 11,.LC65@ha
.LBE6602:
.LBE6614:
.LBE6626:
.LBE6674:
.LBB6675:
.LBB6661:
.LBB6656:
.LBB6652:
	.loc 8 250 0
	fmuls 13,8,8
	fmadds 13,11,13,12
.LBE6652:
.LBE6656:
.LBE6661:
.LBE6675:
.LBB6676:
.LBB6627:
.LBB6615:
.LBB6603:
	.loc 19 83 0
	lfs 12,.LC65@l(11)
	lfd 11,16448(1)
.LBE6603:
.LBE6615:
	.loc 19 87 0
	lis 11,.LC66@ha
.LBB6616:
.LBB6604:
.LBB6593:
.LBB6585:
	.loc 19 71 0
	stw 0,-32064(9)
.LBE6585:
.LBE6593:
	.loc 19 83 0
	fsub 11,11,12
.LBE6604:
.LBE6616:
	.loc 19 87 0
	lfs 12,.LC66@l(11)
.LBE6627:
.LBE6676:
.LBB6677:
.LBB6662:
.LBB6657:
.LBB6653:
	.loc 8 250 0
	fmuls 13,8,13
.LVL485:
.LBE6653:
.LBE6657:
.LBE6662:
.LBE6677:
.LBB6678:
.LBB6628:
.LBB6617:
.LBB6605:
	.loc 19 83 0
	frsp 11,11
.LBE6605:
.LBE6617:
.LBE6628:
.LBE6678:
.LBB6679:
.LBB6663:
	.loc 6 530 0
	fmuls 25,25,13
.LVL486:
	.loc 6 529 0
	fmuls 26,26,13
.LVL487:
.LBE6663:
.LBE6679:
.LBB6680:
.LBB6629:
	.loc 19 87 0
	fmsubs 12,11,12,0
.LBE6629:
.LBE6680:
	.loc 4 1284 0
	fneg 29,25
.LBB6681:
.LBB6682:
	.loc 4 1286 0
	fmadds 13,27,13,0
.LVL488:
.LBE6682:
.LBE6681:
.LBB6685:
.LBB6630:
	.loc 19 87 0
	fadds 12,12,12
.LVL489:
.LBE6630:
.LBE6685:
.LBB6686:
.LBB6683:
	.loc 6 439 0
	fmuls 30,31,13
.LVL490:
.LBE6683:
.LBE6686:
.LBB6687:
.LBB6688:
	.loc 6 245 0
	fmuls 29,29,12
	fmuls 12,12,26
.LVL491:
.LBE6688:
.LBE6687:
.LBB6689:
.LBB6684:
	.loc 6 262 0
	fmadds 29,29,0,26
	.loc 6 263 0
	fmadds 0,12,0,25
.LVL492:
	.loc 6 439 0
	fmuls 29,31,29
.LVL493:
	fmuls 31,31,0
.LVL494:
.LBE6684:
.LBE6689:
	.loc 4 1288 0
	bl _ZNK8idEntity10GetPhysicsEv
.LVL495:
	lwz 9,0(3)
	li 4,-1
	lwz 0,36(9)
	mtctr 0
	bctrl
.LVL496:
	.loc 4 1289 0
	lwz 9,0(29)
.LBB6690:
.LBB6691:
	.loc 6 439 0
	fmuls 29,1,29
.LVL497:
.LBE6691:
.LBE6690:
	.loc 4 1289 0
	mr 3,29
.LBB6694:
.LBB6692:
	.loc 6 439 0
	fmuls 31,1,31
.LVL498:
.LBE6692:
.LBE6694:
	.loc 4 1289 0
	lwz 31,132(9)
.LBB6695:
.LBB6693:
	.loc 6 439 0
	fmuls 1,1,30
.LVL499:
.LBE6693:
.LBE6695:
.LBB6696:
.LBB6697:
	.loc 6 424 0
	stfs 29,8(1)
	.loc 6 425 0
	stfs 31,12(1)
	.loc 6 426 0
	stfs 1,16(1)
.LBE6697:
.LBE6696:
	.loc 4 1289 0
	bl _ZNK8idEntity10GetPhysicsEv
.LVL500:
	lwz 9,0(3)
	li 4,0
	lwz 0,132(9)
	mtctr 0
	bctrl
	mr 4,24
	mr 6,3
	li 5,0
	mr 3,29
	addi 7,1,8
.LVL501:
	mtctr 31
	bctrl
.LVL502:
.L193:
.LBE6700:
	.loc 4 1291 0
	lwz 0,16588(1)
	lwz 16,16464(1)
	mtlr 0
	lwz 17,16468(1)
	lwz 18,16472(1)
	lwz 19,16476(1)
	lwz 20,16480(1)
	lwz 21,16484(1)
	lwz 22,16488(1)
	lwz 23,16492(1)
	lwz 24,16496(1)
.LVL503:
	lwz 25,16500(1)
	lwz 26,16504(1)
	lwz 27,16508(1)
	lwz 28,16512(1)
.LVL504:
	lwz 29,16516(1)
.LVL505:
	lwz 30,16520(1)
	lwz 31,16524(1)
	lfd 25,16528(1)
	lfd 26,16536(1)
	lfd 27,16544(1)
	lfd 28,16552(1)
	lfd 29,16560(1)
	lfd 30,16568(1)
	lfd 31,16576(1)
	addi 1,1,16584
.LCFI81:
	.cfi_def_cfa_offset 0
	.cfi_restore 63
	.cfi_restore 62
	.cfi_restore 61
	.cfi_restore 60
	.cfi_restore 59
	.cfi_restore 58
	.cfi_restore 57
	.cfi_restore 31
	.cfi_restore 30
	.cfi_restore 29
	.cfi_restore 28
	.cfi_restore 27
	.cfi_restore 26
	.cfi_restore 25
	.cfi_restore 24
	.cfi_restore 23
	.cfi_restore 22
	.cfi_restore 21
	.cfi_restore 20
	.cfi_restore 19
	.cfi_restore 18
	.cfi_restore 17
	.cfi_restore 16
	blr
	.cfi_endproc
.LFE2868:
	.size	_ZN4idAI13KickObstaclesERK6idVec3fP8idEntity, .-_ZN4idAI13KickObstaclesERK6idVec3fP8idEntity
	.align 2
	.globl _Z14ValidForBoundsPK13idAASSettingsRK8idBounds
	.type	_Z14ValidForBoundsPK13idAASSettingsRK8idBounds, @function
_Z14ValidForBoundsPK13idAASSettingsRK8idBounds:
.LFB2869:
	.loc 4 1298 0
	.cfi_startproc
.LVL506:
	.loc 4 1298 0
	li 9,0
.LVL507:
.L220:
.LBB6701:
.LBB6702:
.LBB6703:
	.loc 6 402 0
	add 11,3,9
.LBE6703:
.LBE6702:
	.loc 4 1302 0
	lfsx 13,4,9
	lfs 0,4(11)
.LBB6704:
.LBB6705:
	.loc 6 402 0
	add 10,4,9
.LBE6705:
.LBE6704:
	.loc 4 1301 0
	cmpwi 6,9,8
	addi 9,9,4
	.loc 4 1302 0
	fcmpu 7,13,0
	blt- 7,.L221
.LVL508:
	.loc 4 1305 0
	lfs 13,12(10)
	lfs 0,16(11)
	fcmpu 7,13,0
	bgt- 7,.L222
	.loc 4 1301 0
	bne+ 6,.L220
	.loc 4 1309 0
	li 3,1
.LVL509:
	blr
.LVL510:
.L221:
	.loc 4 1303 0
	li 3,0
.LVL511:
	blr
.LVL512:
.L222:
	.loc 4 1306 0
	li 3,0
.LVL513:
.LBE6701:
	.loc 4 1310 0
	blr
	.cfi_endproc
.LFE2869:
	.size	_Z14ValidForBoundsPK13idAASSettingsRK8idBounds, .-_Z14ValidForBoundsPK13idAASSettingsRK8idBounds
	.align 2
	.globl _ZN4idAI6SetAASEv
	.type	_ZN4idAI6SetAASEv, @function
_ZN4idAI6SetAASEv:
.LFB2870:
	.loc 4 1317 0
	.cfi_startproc
	.cfi_personality 0,__gxx_personality_v0
	.cfi_lsda 0,.LLSDA2870
.LVL514:
	mflr 0
	stwu 1,-64(1)
.LCFI82:
	.cfi_def_cfa_offset 64
	.cfi_register 65, 0
.LVL515:
.LBB6732:
.LBB6733:
.LBB6734:
.LBB6735:
	.loc 15 357 0
	li 9,20
.LBE6735:
.LBE6734:
.LBE6733:
.LBB6742:
.LBB6743:
	.loc 11 231 0
	lis 4,.LC67@ha
.LBE6743:
.LBE6742:
.LBE6732:
	.loc 4 1317 0
	stw 31,60(1)
.LBB6787:
.LBB6761:
.LBB6755:
	.loc 11 231 0
	la 4,.LC67@l(4)
.LBE6755:
.LBE6761:
.LBE6787:
	.loc 4 1317 0
	stw 0,68(1)
	mr 31,3
	.cfi_offset 65, 4
	.cfi_offset 31, -4
.LBB6788:
.LBB6762:
.LBB6739:
.LBB6736:
	.loc 15 356 0
	li 0,0
	.loc 15 357 0
	stw 9,16(1)
.LBE6736:
.LBE6739:
.LBE6762:
.LBB6763:
.LBB6756:
	.loc 11 231 0
	addi 3,3,100
.LVL516:
.LBE6756:
.LBE6763:
.LBB6764:
.LBB6740:
.LBB6737:
	.loc 15 358 0
	addi 9,1,20
.LBE6737:
.LBE6740:
.LBE6764:
.LBE6788:
	.loc 4 1317 0
	stw 29,52(1)
	addi 29,1,8
	.cfi_offset 29, -12
	stw 27,44(1)
	stw 28,48(1)
	stw 30,56(1)
.LBB6789:
.LBB6765:
.LBB6741:
.LBB6738:
	.loc 15 356 0
	stw 0,8(1)
	.loc 15 358 0
	stw 9,12(1)
	.loc 15 359 0
	stb 0,20(1)
.LVL517:
.LEHB15:
.LBE6738:
.LBE6741:
.LBE6765:
.LBB6766:
.LBB6757:
	.loc 11 231 0
	.cfi_offset 30, -8
	.cfi_offset 28, -16
	.cfi_offset 27, -20
	bl _ZNK6idDict7FindKeyEPKc
.LVL518:
	.loc 11 232 0
	cmpwi 0,3,0
	beq- 0,.L225
.LBE6757:
	.loc 4 5138 0
	lwz 28,4(3)
.LVL519:
	addi 29,1,8
.LBB6758:
.LBB6744:
.LBB6745:
.LBB6746:
.LBB6747:
	.loc 15 350 0
	lwz 0,16(1)
.LBE6747:
.LBE6746:
.LBE6745:
	.loc 4 5138 0
	lwz 30,0(28)
.LBB6752:
	.loc 15 534 0
	addi 4,30,1
.LVL520:
.LBB6750:
.LBB6748:
	.loc 15 350 0
	cmpw 7,4,0
	bgt- 7,.L239
.LVL521:
.L226:
.LBE6748:
.LBE6750:
	.loc 15 535 0
	lwz 3,12(1)
	mr 5,30
	lwz 4,4(28)
	bl memcpy
	.loc 15 536 0
	lwz 9,12(1)
	li 0,0
	stbx 0,9,30
	.loc 15 537 0
	stw 30,8(1)
.LVL522:
.L227:
.LBE6752:
.LBE6744:
.LBE6758:
.LBE6766:
	.loc 4 1321 0
	lis 30,gameLocal@ha
	lwz 4,12(1)
	la 30,gameLocal@l(30)
	mr 3,30
	bl _ZNK11idGameLocal6GetAASEPKc
.LBB6767:
	.loc 4 1322 0
	cmpwi 7,3,0
.LBE6767:
	.loc 4 1321 0
	stw 3,3944(31)
.LBB6774:
	.loc 4 1322 0
	beq- 7,.L228
.LBB6768:
	.loc 4 1323 0
	lwz 9,0(3)
	lwz 0,20(9)
	mtctr 0
	bctrl
.LVL523:
.LBB6769:
	.loc 4 1324 0
	mr. 28,3
	beq- 0,.L229
.LBB6770:
	.loc 4 1325 0
	addi 27,31,4216
	li 4,-1
	mr 3,27
.LVL524:
	bl _ZNK15idPhysics_Actor9GetBoundsEi
	mr 4,3
	mr 3,28
	bl _Z14ValidForBoundsPK13idAASSettingsRK8idBounds
	cmpwi 7,3,0
	beq- 7,.L240
.L230:
.LVL525:
	.loc 4 1329 0
	lfs 1,180(28)
	mr 3,27
	bl _ZN17idPhysics_Monster16SetMaxStepHeightEf
.LEHE15:
.LVL526:
.LBE6770:
.LBE6769:
.LBE6768:
.LBE6774:
.LBB6775:
.LBB6776:
.LBB6777:
	.loc 15 501 0
	mr 3,29
.LEHB16:
	bl _ZN5idStr8FreeDataEv
.LEHE16:
.LBE6777:
.LBE6776:
.LBE6775:
.LBE6789:
	.loc 4 1336 0
	lwz 0,68(1)
	lwz 27,44(1)
	mtlr 0
	lwz 28,48(1)
.LVL527:
	lwz 29,52(1)
	lwz 30,56(1)
	lwz 31,60(1)
.LVL528:
	addi 1,1,64
	.cfi_remember_state
.LCFI83:
	.cfi_def_cfa_offset 0
	.cfi_restore 31
	.cfi_restore 30
	.cfi_restore 29
	.cfi_restore 28
	.cfi_restore 27
	blr
.LVL529:
.L239:
.LCFI84:
	.cfi_restore_state
.LBB6790:
.LBB6780:
.LBB6759:
.LBB6754:
.LBB6753:
.LBB6751:
.LBB6749:
	.loc 15 351 0
	mr 3,29
.LVL530:
	li 5,0
.LEHB17:
	bl _ZN5idStr10ReAllocateEib
.LVL531:
	b .L226
.LVL532:
.L240:
.LBE6749:
.LBE6751:
.LBE6753:
.LBE6754:
.LBE6759:
.LBE6780:
.LBB6781:
.LBB6773:
.LBB6772:
.LBB6771:
	.loc 4 1326 0
	lis 4,.LC68@ha
	lwz 5,72(31)
	lwz 6,12(1)
	mr 3,30
	la 4,.LC68@l(4)
	crxor 6,6,6
	bl _ZNK11idGameLocal5ErrorEPKcz
	b .L230
.L229:
.LBE6771:
	.loc 4 1332 0
	stw 28,3944(31)
.LVL533:
.L228:
.LBE6772:
.LBE6773:
.LBE6781:
	.loc 4 1335 0
	lis 4,.LC69@ha
	lwz 5,72(31)
	mr 3,30
	la 4,.LC69@l(4)
	crxor 6,6,6
	bl _ZNK11idGameLocal6PrintfEPKcz
.LEHE17:
.LVL534:
.LBB6782:
.LBB6779:
.LBB6778:
	.loc 15 501 0
	mr 3,29
.LEHB18:
	bl _ZN5idStr8FreeDataEv
.LEHE18:
.LBE6778:
.LBE6779:
.LBE6782:
.LBE6790:
	.loc 4 1336 0
	lwz 0,68(1)
	lwz 27,44(1)
	mtlr 0
	lwz 28,48(1)
	lwz 29,52(1)
	lwz 30,56(1)
	lwz 31,60(1)
.LVL535:
	addi 1,1,64
	.cfi_remember_state
	.cfi_restore 27
	.cfi_restore 28
	.cfi_restore 29
	.cfi_restore 30
	.cfi_restore 31
.LCFI85:
	.cfi_def_cfa_offset 0
	blr
.LVL536:
.L225:
.LCFI86:
	.cfi_restore_state
.LBB6791:
.LBB6783:
.LBB6760:
	.loc 11 236 0
	addi 29,1,8
	li 4,0
	mr 3,29
.LVL537:
.LEHB19:
	bl _ZN5idStraSEPKc
.LEHE19:
	b .L227
.L236:
	mr 31,3
.LVL538:
.LBE6760:
.LBE6783:
.LBB6784:
.LBB6785:
.LBB6786:
	.loc 15 501 0
	mr 3,29
	bl _ZN5idStr8FreeDataEv
	mr 3,31
.LEHB20:
	bl _Unwind_Resume
.LEHE20:
.LBE6786:
.LBE6785:
.LBE6784:
.LBE6791:
	.cfi_endproc
.LFE2870:
	.section	.gcc_except_table
.LLSDA2870:
	.byte	0xff
	.byte	0xff
	.byte	0x1
	.uleb128 .LLSDACSE2870-.LLSDACSB2870
.LLSDACSB2870:
	.uleb128 .LEHB15-.LFB2870
	.uleb128 .LEHE15-.LEHB15
	.uleb128 .L236-.LFB2870
	.uleb128 0
	.uleb128 .LEHB16-.LFB2870
	.uleb128 .LEHE16-.LEHB16
	.uleb128 0
	.uleb128 0
	.uleb128 .LEHB17-.LFB2870
	.uleb128 .LEHE17-.LEHB17
	.uleb128 .L236-.LFB2870
	.uleb128 0
	.uleb128 .LEHB18-.LFB2870
	.uleb128 .LEHE18-.LEHB18
	.uleb128 0
	.uleb128 0
	.uleb128 .LEHB19-.LFB2870
	.uleb128 .LEHE19-.LEHB19
	.uleb128 .L236-.LFB2870
	.uleb128 0
	.uleb128 .LEHB20-.LFB2870
	.uleb128 .LEHE20-.LEHB20
	.uleb128 0
	.uleb128 0
.LLSDACSE2870:
	.section	".text"
	.size	_ZN4idAI6SetAASEv, .-_ZN4idAI6SetAASEv
	.align 2
	.globl _ZN4idAI7RestoreEP13idRestoreGame
	.type	_ZN4idAI7RestoreEP13idRestoreGame, @function
_ZN4idAI7RestoreEP13idRestoreGame:
.LFB2859:
	.loc 4 557 0
	.cfi_startproc
	.cfi_personality 0,__gxx_personality_v0
	.cfi_lsda 0,.LLSDA2859
.LVL539:
	stwu 1,-104(1)
.LCFI87:
	.cfi_def_cfa_offset 104
	mflr 0
	mfcr 12
	stw 31,100(1)
	mr 31,3
	.cfi_offset 31, -4
	.cfi_register 70, 12
	.cfi_register 65, 0
	stw 30,96(1)
.LBB6894:
	.loc 4 563 0
	mr 3,4
.LVL540:
.LBE6894:
	.loc 4 557 0
	mr 30,4
	.cfi_offset 30, -8
.LBB7124:
	.loc 4 563 0
	addi 4,31,3948
.LVL541:
.LBE7124:
	.loc 4 557 0
	stw 0,108(1)
	stw 12,76(1)
	stw 27,84(1)
.LBB7125:
	.loc 4 580 0
	addi 27,31,4216
	.cfi_offset 27, -20
	.cfi_offset 70, -28
	.cfi_offset 65, 4
.LBE7125:
	.loc 4 557 0
	stw 28,88(1)
	stw 29,92(1)
.LBB7126:
	.loc 4 607 0
	addi 29,31,4568
	.cfi_offset 29, -12
	.cfi_offset 28, -16
.LBE7126:
	.loc 4 557 0
	stw 26,80(1)
.LEHB21:
.LBB7127:
	.loc 4 563 0
	.cfi_offset 26, -24
	bl _ZN13idRestoreGame7ReadIntERi
.LVL542:
	.loc 4 564 0
	addi 3,31,3952
	mr 4,30
	bl _ZN11idMoveState7RestoreEP13idRestoreGame
	.loc 4 565 0
	mr 4,30
	addi 3,31,4060
	bl _ZN11idMoveState7RestoreEP13idRestoreGame
	.loc 4 566 0
	mr 3,30
	addi 4,31,4168
	bl _ZN13idRestoreGame9ReadFloatERf
	.loc 4 567 0
	mr 3,30
	addi 4,31,4172
	bl _ZN13idRestoreGame8ReadBoolERb
	.loc 4 568 0
	mr 3,30
	addi 4,31,4176
	bl _ZN13idRestoreGame9ReadFloatERf
	.loc 4 569 0
	mr 3,30
	addi 4,31,4180
	bl _ZN13idRestoreGame7ReadIntERi
	.loc 4 570 0
	mr 3,30
	addi 4,31,4184
	bl _ZN13idRestoreGame7ReadIntERi
	.loc 4 572 0
	mr 3,30
	addi 4,31,4188
	bl _ZN13idRestoreGame9ReadFloatERf
	.loc 4 573 0
	mr 3,30
	addi 4,31,4192
	bl _ZN13idRestoreGame9ReadFloatERf
	.loc 4 574 0
	mr 3,30
	addi 4,31,4196
	bl _ZN13idRestoreGame9ReadFloatERf
	.loc 4 575 0
	mr 3,30
	addi 4,31,4200
	bl _ZN13idRestoreGame9ReadFloatERf
	.loc 4 576 0
	mr 3,30
	addi 4,31,4204
	bl _ZN13idRestoreGame9ReadFloatERf
	.loc 4 577 0
	mr 3,30
	addi 4,31,4208
	bl _ZN13idRestoreGame9ReadFloatERf
	.loc 4 578 0
	mr 3,30
	addi 4,31,4212
	bl _ZN13idRestoreGame9ReadFloatERf
	.loc 4 580 0
	mr 4,27
	mr 3,30
	bl _ZN13idRestoreGame16ReadStaticObjectER7idClass
	.loc 4 582 0
	mr 3,30
	addi 4,31,4496
	bl _ZN13idRestoreGame9ReadFloatERf
	.loc 4 583 0
	mr 3,30
	addi 4,31,4500
	bl _ZN13idRestoreGame9ReadFloatERf
	.loc 4 584 0
	mr 3,30
	addi 4,31,4504
	bl _ZN13idRestoreGame9ReadFloatERf
	.loc 4 585 0
	mr 3,30
	addi 4,31,4508
	bl _ZN13idRestoreGame9ReadFloatERf
	.loc 4 586 0
	mr 3,30
	addi 4,31,4512
	bl _ZN13idRestoreGame7ReadIntERi
	.loc 4 587 0
	mr 3,30
	addi 4,31,4516
	bl _ZN13idRestoreGame9ReadFloatERf
	.loc 4 588 0
	mr 3,30
	addi 4,31,4520
	bl _ZN13idRestoreGame9ReadFloatERf
	.loc 4 589 0
	mr 3,30
	addi 4,31,4524
	bl _ZN13idRestoreGame9ReadFloatERf
	.loc 4 590 0
	mr 3,30
	addi 4,31,4528
	bl _ZN13idRestoreGame9ReadFloatERf
	.loc 4 591 0
	mr 3,30
	addi 4,31,4532
	bl _ZN13idRestoreGame9ReadFloatERf
	.loc 4 592 0
	mr 3,30
	addi 4,31,4536
	bl _ZN13idRestoreGame9ReadFloatERf
	.loc 4 593 0
	mr 3,30
	addi 4,31,4540
	bl _ZN13idRestoreGame9ReadFloatERf
	.loc 4 595 0
	mr 3,30
	addi 4,31,4544
	bl _ZN13idRestoreGame8ReadBoolERb
	.loc 4 596 0
	mr 3,30
	addi 4,31,4545
	bl _ZN13idRestoreGame8ReadBoolERb
	.loc 4 597 0
	mr 3,30
	addi 4,31,4546
	bl _ZN13idRestoreGame8ReadBoolERb
	.loc 4 598 0
	mr 3,30
	addi 4,31,4547
	bl _ZN13idRestoreGame8ReadBoolERb
	.loc 4 600 0
	mr 3,30
	addi 4,31,4548
	bl _ZN13idRestoreGame8ReadBoolERb
	.loc 4 601 0
	mr 3,30
	addi 4,31,4552
	bl _ZN13idRestoreGame7ReadIntERi
	.loc 4 602 0
	mr 3,30
	addi 4,31,4556
	bl _ZN13idRestoreGame7ReadIntERi
	.loc 4 603 0
	mr 3,30
	addi 4,31,4560
	bl _ZN13idRestoreGame9ReadFloatERf
	.loc 4 604 0
	mr 3,30
	addi 4,31,4564
	bl _ZN13idRestoreGame9ReadFloatERf
	.loc 4 606 0
	mr 3,30
	addi 4,1,12
	bl _ZN13idRestoreGame7ReadIntERi
.LVL543:
.LBB6895:
.LBB6896:
	.loc 14 319 0
	lwz 28,4580(31)
	.loc 14 317 0
	li 0,1
	.loc 14 319 0
	cmpwi 7,28,0
	.loc 14 317 0
	stw 0,4576(31)
	.loc 14 319 0
	beq- 7,.L242
	.loc 14 321 0
	lwz 3,4568(31)
.LVL544:
	.loc 14 323 0
	lwz 0,4572(31)
	cmpw 7,3,0
	beq- 7,.L242
.LVL545:
.LBB6897:
.LBB6898:
	.loc 14 375 0
	cmpwi 7,3,0
	ble- 7,.L308
.LVL546:
	.loc 14 386 0
	stw 3,4572(31)
	.loc 14 392 0
	mulli 3,3,12
	bl _Znaj
.LVL547:
	.loc 14 393 0
	lwz 0,4568(31)
	.loc 14 392 0
	stw 3,4580(31)
.LVL548:
	.loc 14 393 0
	cmpwi 7,0,0
	ble- 7,.L244
	li 11,0
	li 10,0
	b .L245
.LVL549:
.L309:
	lwz 3,4580(31)
.LVL550:
.L245:
.LBB6899:
.LBB6900:
	.loc 6 424 0
	mr 9,28
.LBE6900:
.LBE6899:
	.loc 14 394 0
	add 8,3,11
.LVL551:
.LBB6904:
.LBB6901:
	.loc 6 424 0
	lwzux 0,9,11
.LBE6901:
.LBE6904:
	.loc 14 393 0
	addi 10,10,1
.LVL552:
.LBB6905:
.LBB6902:
	.loc 6 424 0
	stwx 0,3,11
.LBE6902:
.LBE6905:
	.loc 14 393 0
	addi 11,11,12
.LVL553:
.LBB6906:
.LBB6903:
	.loc 6 425 0
	lwz 0,4(9)
	stw 0,4(8)
	.loc 6 426 0
	lwz 0,8(9)
	stw 0,8(8)
.LBE6903:
.LBE6906:
	.loc 14 393 0
	lwz 0,0(29)
	cmpw 7,10,0
	blt+ 7,.L309
.LVL554:
.L244:
	.loc 14 399 0
	mr 3,28
	bl _ZdaPv
.LVL555:
.L242:
.LBE6898:
.LBE6897:
.LBE6896:
.LBE6895:
	.loc 4 608 0
	lwz 26,12(1)
.LVL556:
.LBB6912:
.LBB6913:
.LBB6914:
.LBB6915:
	.loc 14 375 0
	cmpwi 7,26,0
	ble- 7,.L310
	.loc 14 380 0
	lwz 0,4572(31)
	cmpw 7,26,0
	beq- 7,.L249
	.loc 14 387 0
	lwz 0,4568(31)
	.loc 14 385 0
	lwz 28,4580(31)
.LVL557:
	.loc 14 387 0
	cmpw 7,26,0
	.loc 14 386 0
	stw 26,4572(31)
	.loc 14 387 0
	blt- 7,.L311
.L250:
	.loc 14 392 0
	mulli 3,26,12
	bl _Znaj
.LVL558:
	.loc 14 393 0
	lwz 0,4568(31)
	.loc 14 392 0
	stw 3,4580(31)
.LVL559:
	.loc 14 393 0
	cmpwi 7,0,0
	ble- 7,.L251
	li 11,0
	li 10,0
	b .L252
.LVL560:
.L312:
	lwz 3,4580(31)
.LVL561:
.L252:
.LBB6916:
.LBB6917:
	.loc 6 424 0
	mr 9,28
.LBE6917:
.LBE6916:
	.loc 14 394 0
	add 8,3,11
.LVL562:
.LBB6921:
.LBB6918:
	.loc 6 424 0
	lwzux 0,9,11
.LBE6918:
.LBE6921:
	.loc 14 393 0
	addi 10,10,1
.LVL563:
.LBB6922:
.LBB6919:
	.loc 6 424 0
	stwx 0,3,11
.LBE6919:
.LBE6922:
	.loc 14 393 0
	addi 11,11,12
.LVL564:
.LBB6923:
.LBB6920:
	.loc 6 425 0
	lwz 0,4(9)
	stw 0,4(8)
	.loc 6 426 0
	lwz 0,8(9)
	stw 0,8(8)
.LBE6920:
.LBE6923:
	.loc 14 393 0
	lwz 0,0(29)
	cmpw 7,10,0
	blt+ 7,.L312
.LVL565:
.L251:
	.loc 14 398 0
	cmpwi 7,28,0
	beq- 7,.L306
	.loc 14 399 0
	mr 3,28
	bl _ZdaPv
.L306:
	lwz 0,12(1)
.LVL566:
.L248:
.LBE6915:
.LBE6914:
.LBE6913:
.LBE6912:
	.loc 4 609 0
	cmpwi 7,0,0
	li 0,0
.LBB6943:
.LBB6936:
	.loc 14 302 0
	stw 26,4568(31)
.LBE6936:
.LBE6943:
	.loc 4 609 0
	stw 0,16(1)
.LVL567:
	ble- 7,.L254
.L297:
.LBB6944:
.LBB6937:
.LBB6931:
.LBB6926:
	.loc 14 393 0 discriminator 2
	li 0,0
.L255:
.LVL568:
.LBE6926:
.LBE6931:
.LBE6937:
.LBE6944:
.LBB6945:
.LBB6946:
	.loc 14 589 0 discriminator 2
	mulli 0,0,12
.LVL569:
	lwz 4,4580(31)
.LBE6946:
.LBE6945:
	.loc 4 610 0 discriminator 2
	mr 3,30
	add 4,4,0
	bl _ZN13idRestoreGame8ReadVec3ER6idVec3
.LEHE21:
	.loc 4 609 0 discriminator 2
	lwz 9,16(1)
	addi 0,9,1
	lwz 9,12(1)
	stw 0,16(1)
	cmpw 7,9,0
	bgt+ 7,.L255
.L254:
.LVL570:
.LBB6947:
.LBB6948:
.LBB6949:
	.loc 15 357 0
	li 9,20
	.loc 15 356 0
	li 0,0
	.loc 15 357 0
	stw 9,40(1)
.LBE6949:
.LBE6948:
.LBE6947:
	.loc 4 614 0
	mr 3,30
.LBB6954:
.LBB6952:
.LBB6950:
	.loc 15 358 0
	addi 9,1,44
.LBE6950:
.LBE6952:
.LBE6954:
	.loc 4 614 0
	addi 4,1,32
.LBB6955:
.LBB6953:
.LBB6951:
	.loc 15 356 0
	stw 0,32(1)
	.loc 15 358 0
	stw 9,36(1)
	.loc 15 359 0
	stb 0,44(1)
.LEHB22:
.LBE6951:
.LBE6953:
.LBE6955:
	.loc 4 614 0
	bl _ZN13idRestoreGame10ReadStringER5idStr
	.loc 4 615 0
	lwz 0,32(1)
	cmpwi 7,0,0
	bne- 7,.L313
	.loc 4 618 0
	stw 0,4584(31)
.L257:
	.loc 4 620 0
	mr 3,30
	addi 4,31,4592
	bl _ZN13idRestoreGame9ReadFloatERf
	.loc 4 621 0
	mr 3,30
	addi 4,31,4596
	bl _ZN13idRestoreGame9ReadFloatERf
	.loc 4 622 0
	mr 3,30
	addi 4,31,4600
	bl _ZN13idRestoreGame8ReadVec3ER6idVec3
	.loc 4 623 0
	mr 3,30
	addi 4,31,4612
	bl _ZN13idRestoreGame8ReadVec3ER6idVec3
.LVL571:
.LBB6956:
.LBB6957:
	.loc 7 600 0
	mr 3,30
	addi 4,31,4624
	bl _ZN13idRestoreGame7ReadIntERi
.LBE6957:
.LBE6956:
	.loc 4 625 0
	mr 3,30
	addi 4,31,4628
	bl _ZN13idRestoreGame10ReadStringER5idStr
	.loc 4 627 0
	mr 3,30
	addi 4,31,4660
	bl _ZN13idRestoreGame15ReadSoundShaderERPK13idSoundShader
	.loc 4 628 0
	mr 3,30
	addi 4,31,4664
	bl _ZN13idRestoreGame7ReadIntERi
	.loc 4 629 0
	mr 3,30
	addi 4,31,4668
	bl _ZN13idRestoreGame7ReadIntERi
	.loc 4 630 0
	mr 3,30
	addi 4,31,4672
	bl _ZN13idRestoreGame7ReadIntERi
	.loc 4 631 0
	mr 3,30
	addi 4,1,16
	bl _ZN13idRestoreGame7ReadIntERi
	.loc 4 632 0
	lwz 0,16(1)
.LBB6958:
.LBB6959:
	.loc 7 600 0
	mr 3,30
	addi 4,31,4680
.LBE6959:
.LBE6958:
	.loc 4 632 0
	stw 0,4676(31)
.LVL572:
.LBB6961:
.LBB6960:
	.loc 7 600 0
	bl _ZN13idRestoreGame7ReadIntERi
.LVL573:
.LBE6960:
.LBE6961:
	.loc 4 635 0
	mr 3,30
	addi 4,31,4684
	bl _ZN13idRestoreGame7ReadIntERi
	.loc 4 636 0
	mr 3,30
	addi 4,31,4688
	bl _ZN13idRestoreGame7ReadIntERi
	.loc 4 638 0
	mr 3,30
	addi 4,31,4692
	bl _ZN13idRestoreGame8ReadBoolERb
.LVL574:
.LBB6962:
.LBB6963:
	.loc 7 600 0
	mr 3,30
	addi 4,31,4696
	bl _ZN13idRestoreGame7ReadIntERi
.LBE6963:
.LBE6962:
	.loc 4 640 0
	mr 3,30
	addi 4,31,4700
	bl _ZN13idRestoreGame8ReadVec3ER6idVec3
	.loc 4 641 0
	mr 3,30
	addi 4,31,4712
	bl _ZN13idRestoreGame7ReadIntERi
	.loc 4 642 0
	mr 3,30
	addi 4,31,4716
	bl _ZN13idRestoreGame7ReadIntERi
	.loc 4 643 0
	mr 3,30
	addi 4,31,4720
	bl _ZN13idRestoreGame7ReadIntERi
	.loc 4 644 0
	mr 3,30
	addi 4,31,4724
	bl _ZN13idRestoreGame10ReadAnglesER8idAngles
	.loc 4 645 0
	mr 3,30
	addi 4,31,4736
	bl _ZN13idRestoreGame10ReadAnglesER8idAngles
	.loc 4 646 0
	mr 3,30
	addi 4,31,4748
	bl _ZN13idRestoreGame10ReadAnglesER8idAngles
	.loc 4 647 0
	mr 3,30
	addi 4,31,4760
	bl _ZN13idRestoreGame10ReadAnglesER8idAngles
	.loc 4 648 0
	mr 3,30
	addi 4,31,4772
	bl _ZN13idRestoreGame10ReadAnglesER8idAngles
	.loc 4 650 0
	mr 3,30
	addi 4,1,12
	bl _ZN13idRestoreGame7ReadIntERi
.LBB6964:
.LBB6965:
	.loc 14 319 0
	lwz 28,4796(31)
	.loc 14 317 0
	li 0,1
.LBE6965:
.LBE6964:
	.loc 4 651 0
	addi 29,31,4784
.LVL575:
.LBB6977:
.LBB6974:
	.loc 14 317 0
	stw 0,4792(31)
	.loc 14 319 0
	cmpwi 7,28,0
	beq- 7,.L258
	.loc 14 321 0
	lwz 3,4784(31)
.LVL576:
	.loc 14 323 0
	lwz 0,4788(31)
	cmpw 7,3,0
	beq- 7,.L258
.LVL577:
.LBB6966:
.LBB6967:
	.loc 14 375 0
	cmpwi 7,3,0
	ble- 7,.L314
.LVL578:
	.loc 14 386 0
	stw 3,4788(31)
	.loc 14 392 0
	slwi 3,3,2
	bl _Znaj
.LVL579:
	.loc 14 393 0
	lwz 0,4784(31)
	.loc 14 392 0
	stw 3,4796(31)
.LVL580:
	.loc 14 393 0
	cmpwi 7,0,0
	ble- 7,.L260
	.loc 4 557 0
	addi 11,28,-4
.LBE6967:
.LBE6966:
.LBE6974:
.LBE6977:
.LBB6978:
.LBB6938:
.LBB6932:
.LBB6927:
	.loc 14 393 0
	li 9,0
	b .L261
.LVL581:
.L315:
.LBE6927:
.LBE6932:
.LBE6938:
.LBE6978:
.LBB6979:
.LBB6975:
.LBB6972:
.LBB6970:
	lwz 3,4796(31)
.LVL582:
.L261:
	.loc 14 394 0
	lwzu 10,4(11)
	slwi 0,9,2
	.loc 14 393 0
	addi 9,9,1
.LVL583:
	.loc 14 394 0
	stwx 10,3,0
	.loc 14 393 0
	lwz 0,0(29)
	cmpw 7,9,0
	blt+ 7,.L315
.LVL584:
.L260:
	.loc 14 399 0
	mr 3,28
	bl _ZdaPv
.LVL585:
.L258:
.LBE6970:
.LBE6972:
.LBE6975:
.LBE6979:
	.loc 4 652 0
	lwz 26,12(1)
.LVL586:
.LBB6980:
.LBB6981:
.LBB6982:
.LBB6983:
	.loc 14 375 0
	cmpwi 7,26,0
	ble- 7,.L316
	.loc 14 380 0
	lwz 0,4788(31)
	cmpw 7,26,0
	beq- 7,.L264
	.loc 14 387 0
	lwz 0,4784(31)
	.loc 14 385 0
	lwz 28,4796(31)
.LVL587:
	.loc 14 387 0
	cmpw 7,26,0
	.loc 14 386 0
	stw 26,4788(31)
	.loc 14 387 0
	blt- 7,.L317
.L265:
	.loc 14 392 0
	slwi 3,26,2
	bl _Znaj
.LVL588:
	.loc 14 393 0
	lwz 0,4784(31)
	.loc 14 392 0
	stw 3,4796(31)
.LVL589:
	.loc 14 393 0
	cmpwi 7,0,0
	ble- 7,.L266
	.loc 4 557 0
	addi 11,28,-4
.LBE6983:
.LBE6982:
.LBE6981:
.LBE6980:
.LBB6996:
.LBB6939:
.LBB6933:
.LBB6928:
	.loc 14 393 0
	li 9,0
	b .L267
.LVL590:
.L318:
.LBE6928:
.LBE6933:
.LBE6939:
.LBE6996:
.LBB6997:
.LBB6992:
.LBB6989:
.LBB6986:
	lwz 3,4796(31)
.LVL591:
.L267:
	.loc 14 394 0
	lwzu 10,4(11)
	slwi 0,9,2
	.loc 14 393 0
	addi 9,9,1
.LVL592:
	.loc 14 394 0
	stwx 10,3,0
	.loc 14 393 0
	lwz 0,0(29)
	cmpw 7,9,0
	blt+ 7,.L318
.LVL593:
.L266:
	.loc 14 398 0
	cmpwi 7,28,0
	beq- 7,.L264
	.loc 14 399 0
	mr 3,28
	bl _ZdaPv
.LVL594:
.L264:
.LBE6986:
.LBE6989:
.LBE6992:
.LBE6997:
.LBB6998:
.LBB6999:
	.loc 14 319 0
	lwz 28,4812(31)
	.loc 14 317 0
	li 0,1
.LBE6999:
.LBE6998:
.LBB7016:
.LBB6993:
	.loc 14 302 0
	stw 26,4784(31)
.LBE6993:
.LBE7016:
	.loc 4 653 0
	addi 29,31,4800
.LVL595:
.LBB7017:
.LBB7014:
	.loc 14 319 0
	cmpwi 7,28,0
	.loc 14 317 0
	stw 0,4808(31)
	.loc 14 319 0
	beq- 7,.L268
	.loc 14 321 0
	lwz 3,4800(31)
.LVL596:
	.loc 14 323 0
	lwz 0,4804(31)
	cmpw 7,3,0
	beq- 7,.L268
.LVL597:
.LBB7000:
.LBB7001:
	.loc 14 375 0
	cmpwi 7,3,0
	ble- 7,.L319
.LVL598:
	.loc 14 386 0
	stw 3,4804(31)
	.loc 14 392 0
	mulli 3,3,12
	bl _Znaj
.LVL599:
	.loc 14 393 0
	lwz 0,4800(31)
	.loc 14 392 0
	stw 3,4812(31)
.LVL600:
	.loc 14 393 0
	cmpwi 7,0,0
	ble- 7,.L270
	li 11,0
	li 10,0
	b .L271
.LVL601:
.L320:
	lwz 3,4812(31)
.LVL602:
.L271:
.LBB7002:
.LBB7003:
	.loc 12 146 0
	mr 9,28
.LBE7003:
.LBE7002:
	.loc 14 394 0
	add 8,3,11
.LVL603:
.LBB7007:
.LBB7004:
	.loc 12 146 0
	lwzux 0,9,11
.LBE7004:
.LBE7007:
	.loc 14 393 0
	addi 10,10,1
.LVL604:
.LBB7008:
.LBB7005:
	.loc 12 146 0
	stwx 0,3,11
.LBE7005:
.LBE7008:
	.loc 14 393 0
	addi 11,11,12
.LVL605:
.LBB7009:
.LBB7006:
	.loc 12 147 0
	lwz 0,4(9)
	stw 0,4(8)
	.loc 12 148 0
	lwz 0,8(9)
	stw 0,8(8)
.LBE7006:
.LBE7009:
	.loc 14 393 0
	lwz 0,0(29)
	cmpw 7,10,0
	blt+ 7,.L320
.LVL606:
.L270:
	.loc 14 399 0
	mr 3,28
	bl _ZdaPv
.LVL607:
.L268:
.LBE7001:
.LBE7000:
.LBE7014:
.LBE7017:
	.loc 4 654 0
	lwz 26,12(1)
.LVL608:
.LBB7018:
.LBB7019:
.LBB7020:
.LBB7021:
	.loc 14 375 0
	cmpwi 7,26,0
	ble- 7,.L321
	.loc 14 380 0
	lwz 0,4804(31)
	cmpw 7,26,0
	beq- 7,.L275
	.loc 14 387 0
	lwz 0,4800(31)
	.loc 14 385 0
	lwz 28,4812(31)
.LVL609:
	.loc 14 387 0
	cmpw 7,26,0
	.loc 14 386 0
	stw 26,4804(31)
	.loc 14 387 0
	blt- 7,.L322
.L276:
	.loc 14 392 0
	mulli 3,26,12
	bl _Znaj
.LVL610:
	.loc 14 393 0
	lwz 0,4800(31)
	.loc 14 392 0
	stw 3,4812(31)
.LVL611:
	.loc 14 393 0
	cmpwi 7,0,0
	ble- 7,.L277
	li 11,0
	li 10,0
	b .L278
.LVL612:
.L323:
	lwz 3,4812(31)
.LVL613:
.L278:
.LBB7022:
.LBB7023:
	.loc 12 146 0
	mr 9,28
.LBE7023:
.LBE7022:
	.loc 14 394 0
	add 8,3,11
.LVL614:
.LBB7027:
.LBB7024:
	.loc 12 146 0
	lwzux 0,9,11
.LBE7024:
.LBE7027:
	.loc 14 393 0
	addi 10,10,1
.LVL615:
.LBB7028:
.LBB7025:
	.loc 12 146 0
	stwx 0,3,11
.LBE7025:
.LBE7028:
	.loc 14 393 0
	addi 11,11,12
.LVL616:
.LBB7029:
.LBB7026:
	.loc 12 147 0
	lwz 0,4(9)
	stw 0,4(8)
	.loc 12 148 0
	lwz 0,8(9)
	stw 0,8(8)
.LBE7026:
.LBE7029:
	.loc 14 393 0
	lwz 0,0(29)
	cmpw 7,10,0
	blt+ 7,.L323
.LVL617:
.L277:
	.loc 14 398 0
	cmpwi 7,28,0
	beq- 7,.L307
	.loc 14 399 0
	mr 3,28
	bl _ZdaPv
.L307:
	lwz 0,12(1)
.LVL618:
.L274:
.LBE7021:
.LBE7020:
.LBE7019:
.LBE7018:
	.loc 4 655 0
	cmpwi 7,0,0
	li 0,0
.LBB7043:
.LBB7038:
	.loc 14 302 0
	stw 26,4800(31)
.LBE7038:
.LBE7043:
	.loc 4 655 0
	stw 0,16(1)
	ble- 7,.L280
.L298:
.LBB7044:
.LBB7039:
.LBB7035:
.LBB7032:
	.loc 14 393 0
	li 0,0
.L281:
.LVL619:
.LBE7032:
.LBE7035:
.LBE7039:
.LBE7044:
.LBB7045:
.LBB7046:
	.loc 14 589 0
	lwz 4,4796(31)
	slwi 0,0,2
.LVL620:
.LBE7046:
.LBE7045:
	.loc 4 656 0
	mr 3,30
	add 4,4,0
	bl _ZN13idRestoreGame9ReadJointER13jointHandle_t
.LVL621:
.LBB7047:
.LBB7048:
	.loc 14 589 0
	lwz 0,16(1)
.LBE7048:
.LBE7047:
	.loc 4 657 0
	mr 3,30
.LBB7050:
.LBB7049:
	.loc 14 589 0
	lwz 4,4812(31)
	mulli 0,0,12
.LBE7049:
.LBE7050:
	.loc 4 657 0
	add 4,4,0
	bl _ZN13idRestoreGame10ReadAnglesER8idAngles
.LVL622:
	.loc 4 655 0
	lwz 9,16(1)
	addi 0,9,1
	lwz 9,12(1)
	stw 0,16(1)
	cmpw 7,9,0
	bgt+ 7,.L281
.L280:
	.loc 4 660 0
	mr 3,30
	addi 4,31,4836
	bl _ZN13idRestoreGame9ReadFloatERf
	.loc 4 661 0
	mr 3,30
	addi 4,31,4840
	bl _ZN13idRestoreGame7ReadIntERi
	.loc 4 663 0
	mr 3,30
	addi 4,1,12
	bl _ZN13idRestoreGame7ReadIntERi
	.loc 4 664 0
	lwz 26,12(1)
.LVL623:
	addi 28,31,4848
.LVL624:
.LBB7051:
.LBB7052:
.LBB7053:
.LBB7054:
	.loc 14 375 0
	cmpwi 4,26,0
	ble- 4,.L324
	.loc 14 380 0
	lwz 0,4852(31)
	cmpw 7,26,0
	beq- 7,.L285
	.loc 14 387 0
	lwz 0,4848(31)
	.loc 14 385 0
	lwz 29,4860(31)
.LVL625:
	.loc 14 387 0
	cmpw 7,26,0
	.loc 14 386 0
	stw 26,4852(31)
	.loc 14 387 0
	blt- 7,.L325
.L286:
	.loc 14 392 0
	mulli 3,26,12
	bl _Znaj
.LVL626:
	beq- 4,.L287
.LBB7055:
.LBB7056:
	.loc 3 163 0
	mtctr 26
.LBE7056:
.LBE7055:
	.loc 14 392 0
	mr 9,3
.LBB7058:
.LBB7057:
	.loc 3 161 0
	li 0,0
	.loc 3 163 0
	li 11,-1
.L288:
	.loc 3 161 0
	stw 0,0(9)
	.loc 3 162 0
	stw 0,4(9)
	.loc 3 163 0
	stw 11,8(9)
	addi 9,9,12
.LBE7057:
.LBE7058:
	.loc 14 392 0
	bdnz .L288
.L287:
	.loc 14 393 0
	lwz 0,4848(31)
	.loc 14 392 0
	stw 3,4860(31)
.LVL627:
	.loc 14 393 0
	cmpwi 7,0,0
	ble- 7,.L289
	li 11,0
	li 10,0
	b .L290
.LVL628:
.L326:
	lwz 3,4860(31)
.LVL629:
.L290:
	.loc 14 394 0
	mr 9,29
	add 8,3,11
	lwzux 6,9,11
	.loc 14 393 0
	addi 10,10,1
.LVL630:
	.loc 14 394 0
	lwz 0,8(9)
	lwz 7,4(9)
	stwx 6,3,11
	.loc 14 393 0
	addi 11,11,12
	.loc 14 394 0
	stw 7,4(8)
	stw 0,8(8)
	.loc 14 393 0
	lwz 0,0(28)
	cmpw 7,10,0
	blt+ 7,.L326
.LVL631:
.L289:
	.loc 14 398 0
	cmpwi 7,29,0
	beq- 7,.L285
	.loc 14 399 0
	mr 3,29
	bl _ZdaPv
.LVL632:
.L285:
.LBE7054:
.LBE7053:
.LBE7052:
.LBE7051:
	.loc 4 665 0
	li 0,0
.LBB7072:
.LBB7069:
	.loc 14 302 0
	stw 26,4848(31)
.LBE7069:
.LBE7072:
	.loc 4 665 0
	stw 0,16(1)
.L291:
.LVL633:
.LBB7073:
.LBB7074:
	.loc 14 589 0
	mulli 0,0,12
.LVL634:
	lwz 4,4860(31)
.LBE7074:
.LBE7073:
	.loc 4 666 0
	mr 3,30
	add 4,4,0
	bl _ZN13idRestoreGame12ReadParticleERPK14idDeclParticle
.LVL635:
.LBB7075:
.LBB7076:
	.loc 14 589 0
	lwz 4,16(1)
.LBE7076:
.LBE7075:
	.loc 4 667 0
	mr 3,30
.LBB7078:
.LBB7077:
	.loc 14 589 0
	lwz 0,4860(31)
	mulli 4,4,12
	add 4,0,4
.LBE7077:
.LBE7078:
	.loc 4 667 0
	addi 4,4,4
	bl _ZN13idRestoreGame7ReadIntERi
.LVL636:
.LBB7079:
.LBB7080:
	.loc 14 589 0
	lwz 4,16(1)
.LBE7080:
.LBE7079:
	.loc 4 668 0
	mr 3,30
.LBB7082:
.LBB7081:
	.loc 14 589 0
	lwz 0,4860(31)
	mulli 4,4,12
	add 4,0,4
.LBE7081:
.LBE7082:
	.loc 4 668 0
	addi 4,4,8
	bl _ZN13idRestoreGame9ReadJointER13jointHandle_t
.LVL637:
	.loc 4 665 0
	lwz 11,16(1)
	lwz 9,4848(31)
	addi 0,11,1
	cmpw 7,9,0
	stw 0,16(1)
	bgt+ 7,.L291
.L284:
	.loc 4 670 0
	mr 3,30
	addi 4,31,4844
	bl _ZN13idRestoreGame8ReadBoolERb
	.loc 4 671 0
	mr 3,30
	addi 4,31,4845
	bl _ZN13idRestoreGame8ReadBoolERb
.LVL638:
.LBB7083:
.LBB7084:
	.loc 7 600 0
	mr 3,30
	addi 4,31,5120
	bl _ZN13idRestoreGame7ReadIntERi
.LBE7084:
.LBE7083:
	.loc 4 674 0
	mr 3,30
	addi 4,31,5124
	bl _ZN13idRestoreGame8ReadVec3ER6idVec3
	.loc 4 675 0
	mr 3,30
	addi 4,31,5136
	bl _ZN13idRestoreGame8ReadVec3ER6idVec3
	.loc 4 676 0
	mr 3,30
	addi 4,31,5148
	bl _ZN13idRestoreGame8ReadVec3ER6idVec3
	.loc 4 677 0
	mr 3,30
	addi 4,31,5160
	bl _ZN13idRestoreGame8ReadVec3ER6idVec3
	.loc 4 679 0
	mr 3,30
	addi 4,31,5172
	bl _ZN13idRestoreGame8ReadBoolERb
	.loc 4 681 0
	mr 3,30
	addi 4,31,5088
	bl _ZN13idRestoreGame10ReadAnglesER8idAngles
	.loc 4 682 0
	mr 3,30
	addi 4,31,5100
	bl _ZN13idRestoreGame10ReadAnglesER8idAngles
	.loc 4 684 0
	mr 3,30
	addi 4,31,4816
	bl _ZN13idRestoreGame9ReadFloatERf
	.loc 4 685 0
	mr 3,30
	addi 4,31,4820
	bl _ZN13idRestoreGame9ReadFloatERf
	.loc 4 686 0
	mr 3,30
	addi 4,31,4824
	bl _ZN13idRestoreGame9ReadFloatERf
	.loc 4 687 0
	mr 3,30
	addi 4,31,4828
	bl _ZN13idRestoreGame9ReadFloatERf
	.loc 4 688 0
	mr 3,30
	addi 4,31,4832
	bl _ZN13idRestoreGame7ReadIntERi
	.loc 4 690 0
	mr 3,30
	addi 4,31,5076
	bl _ZN13idRestoreGame9ReadJointER13jointHandle_t
	.loc 4 691 0
	mr 3,30
	addi 4,31,5080
	bl _ZN13idRestoreGame7ReadIntERi
	.loc 4 693 0
	mr 3,30
	addi 4,31,5112
	bl _ZN13idRestoreGame9ReadJointER13jointHandle_t
	.loc 4 694 0
	mr 3,30
	addi 4,31,5116
	bl _ZN13idRestoreGame9ReadJointER13jointHandle_t
	.loc 4 695 0
	mr 3,30
	addi 4,31,4492
	bl _ZN13idRestoreGame9ReadJointER13jointHandle_t
	.loc 4 697 0
	mr 3,30
	addi 4,1,8
	bl _ZN13idRestoreGame8ReadBoolERb
.LVL639:
.LBB7085:
.LBB7086:
	.loc 11 262 0
	lis 4,.LC70@ha
	lis 5,.LC71@ha
	addi 3,31,100
	la 4,.LC70@l(4)
	la 5,.LC71@l(5)
	addi 6,1,20
	bl _ZNK6idDict9GetVectorEPKcS1_R6idVec3
.LBE7086:
.LBE7085:
.LBB7087:
.LBB7088:
	.loc 4 701 0
	lis 9,g_gravity+44@ha
.LBE7088:
.LBE7087:
.LBB7091:
.LBB7092:
	.loc 6 489 0
	lfs 12,20(1)
.LBE7092:
.LBE7091:
.LBB7095:
.LBB7089:
	.file 20 "d:/Data/Nintendo/DoomGX/src/game/ai/../../idlib/../framework/CVarSystem.h"
	.loc 20 144 0
	lwz 9,g_gravity+44@l(9)
.LBE7089:
.LBE7095:
	.loc 4 702 0
	lis 3,gameLocal@ha
.LBB7096:
.LBB7093:
	.loc 6 490 0
	lfs 13,24(1)
.LBE7093:
.LBE7096:
	.loc 4 702 0
	la 3,gameLocal@l(3)
.LBB7097:
.LBB7090:
	.loc 20 144 0
	lfs 0,40(9)
.LVL640:
.LBE7090:
.LBE7097:
.LBB7098:
.LBB7094:
	.loc 6 491 0
	lfs 11,28(1)
	.loc 6 489 0
	fmuls 12,12,0
	.loc 6 490 0
	fmuls 13,13,0
	.loc 6 491 0
	fmuls 0,11,0
	.loc 6 489 0
	stfs 12,20(1)
	.loc 6 490 0
	stfs 13,24(1)
	.loc 6 491 0
	stfs 0,28(1)
.LBE7094:
.LBE7098:
	.loc 4 702 0
	bl _ZNK11idGameLocal10GetGravityEv
.LVL641:
.LBB7099:
.LBB7100:
.LBB7101:
	.loc 6 497 0
	lfs 0,0(3)
	lfs 13,20(1)
	fcmpu 7,13,0
	bne- 7,.L292
	lfs 0,4(3)
	lfs 13,24(1)
	fcmpu 7,13,0
	beq- 7,.L327
.LVL642:
.L292:
.LBE7101:
.LBE7100:
.LBE7099:
	.loc 4 706 0
	mr 3,31
	bl _ZN7idActor14SetCombatModelEv
	.loc 4 707 0
	lwz 9,0(31)
	mr 3,31
	lwz 0,236(9)
	mtctr 0
	bctrl
	.loc 4 709 0
	mr 3,31
	bl _ZN4idAI15InitMuzzleFlashEv
	.loc 4 712 0
	mr 3,31
	bl _ZN4idAI19LinkScriptVariablesEv
.LVL643:
	.loc 4 714 0
	lbz 0,8(1)
.LVL644:
	cmpwi 7,0,0
.LVL645:
	beq- 7,.L293
	.loc 4 715 0
	mr 3,31
	mr 4,27
	bl _ZN8idEntity14RestorePhysicsEP9idPhysics
.LEHE22:
.LVL646:
.L293:
.LBB7104:
.LBB7105:
.LBB7106:
	.loc 15 501 0
	addi 3,1,32
.LEHB23:
	bl _ZN5idStr8FreeDataEv
.LEHE23:
.LVL647:
.LBE7106:
.LBE7105:
.LBE7104:
.LBE7127:
	.loc 4 717 0
	lwz 0,108(1)
	lwz 12,76(1)
	mtlr 0
	lwz 26,80(1)
.LVL648:
	lwz 27,84(1)
	mtcrf 8,12
	lwz 28,88(1)
.LVL649:
	lwz 29,92(1)
	lwz 30,96(1)
.LVL650:
	lwz 31,100(1)
.LVL651:
	addi 1,1,104
	.cfi_remember_state
.LCFI88:
	.cfi_def_cfa_offset 0
	.cfi_restore 70
	.cfi_restore 31
	.cfi_restore 30
	.cfi_restore 29
	.cfi_restore 28
	.cfi_restore 27
	.cfi_restore 26
	blr
.LVL652:
.L317:
.LCFI89:
	.cfi_restore_state
.LBB7128:
.LBB7107:
.LBB6994:
.LBB6990:
.LBB6987:
	.loc 14 388 0
	stw 26,4784(31)
	b .L265
.LVL653:
.L322:
.LBE6987:
.LBE6990:
.LBE6994:
.LBE7107:
.LBB7108:
.LBB7040:
.LBB7036:
.LBB7033:
	stw 26,4800(31)
	b .L276
.LVL654:
.L325:
.LBE7033:
.LBE7036:
.LBE7040:
.LBE7108:
.LBB7109:
.LBB7070:
.LBB7066:
.LBB7063:
	stw 26,4848(31)
	b .L286
.LVL655:
.L311:
.LBE7063:
.LBE7066:
.LBE7070:
.LBE7109:
.LBB7110:
.LBB6940:
.LBB6934:
.LBB6929:
	stw 26,4568(31)
	b .L250
.LVL656:
.L327:
.LBE6929:
.LBE6934:
.LBE6940:
.LBE7110:
.LBB7111:
.LBB7103:
.LBB7102:
	.loc 6 497 0
	lfs 0,8(3)
	lfs 13,28(1)
	fcmpu 7,13,0
	bne- 7,.L292
.LBE7102:
.LBE7103:
.LBE7111:
	.loc 4 703 0
	mr 3,31
.LVL657:
.LEHB24:
	bl _ZN4idAI6SetAASEv
	b .L292
.LVL658:
.L313:
	.loc 4 616 0
	lis 3,gameLocal@ha
	lwz 4,36(1)
	la 3,gameLocal@l(3)
	li 5,1
	bl _ZNK11idGameLocal17FindEntityDefDictEPKcb
.LEHE24:
	stw 3,4584(31)
	b .L257
.LVL659:
.L249:
	.loc 4 609 0
	li 0,0
.LBB7112:
.LBB6941:
	.loc 14 302 0
	stw 26,4568(31)
.LBE6941:
.LBE7112:
	.loc 4 609 0
	stw 0,16(1)
.LVL660:
	b .L297
.LVL661:
.L275:
	.loc 4 655 0
	li 0,0
.LBB7113:
.LBB7041:
	.loc 14 302 0
	stw 26,4800(31)
.LBE7041:
.LBE7113:
	.loc 4 655 0
	stw 0,16(1)
	b .L298
.LVL662:
.L310:
.LBB7114:
.LBB6942:
.LBB6935:
.LBB6930:
.LBB6924:
.LBB6925:
	.loc 14 193 0
	lwz 3,4580(31)
	mr 0,26
	cmpwi 7,3,0
	beq- 7,.L247
	.loc 14 194 0
	bl _ZdaPv
	lwz 0,12(1)
.L247:
	.loc 14 197 0
	li 9,0
	stw 9,4580(31)
	.loc 14 199 0
	stw 9,4572(31)
	b .L248
.LVL663:
.L316:
.LBE6925:
.LBE6924:
.LBE6930:
.LBE6935:
.LBE6942:
.LBE7114:
.LBB7115:
.LBB6995:
.LBB6991:
.LBB6988:
.LBB6984:
.LBB6985:
	.loc 14 193 0
	lwz 3,4796(31)
	cmpwi 7,3,0
	beq- 7,.L263
	.loc 14 194 0
	bl _ZdaPv
.L263:
	.loc 14 197 0
	li 0,0
	stw 0,4796(31)
	.loc 14 199 0
	stw 0,4788(31)
	b .L264
.LVL664:
.L324:
.LBE6985:
.LBE6984:
.LBE6988:
.LBE6991:
.LBE6995:
.LBE7115:
.LBB7116:
.LBB7071:
.LBB7067:
.LBB7064:
.LBB7059:
.LBB7060:
	.loc 14 193 0
	lwz 3,4860(31)
	cmpwi 7,3,0
	beq- 7,.L283
	.loc 14 194 0
	bl _ZdaPv
.L283:
	.loc 14 197 0
	li 0,0
.LBE7060:
.LBE7059:
.LBE7064:
.LBE7067:
	.loc 14 302 0
	stw 26,4848(31)
.LBB7068:
.LBB7065:
.LBB7062:
.LBB7061:
	.loc 14 197 0
	stw 0,4860(31)
	.loc 14 199 0
	stw 0,4852(31)
.LBE7061:
.LBE7062:
.LBE7065:
.LBE7068:
.LBE7071:
.LBE7116:
	.loc 4 665 0
	stw 0,16(1)
	b .L284
.LVL665:
.L321:
.LBB7117:
.LBB7042:
.LBB7037:
.LBB7034:
.LBB7030:
.LBB7031:
	.loc 14 193 0
	lwz 3,4812(31)
	mr 0,26
	cmpwi 7,3,0
	beq- 7,.L273
	.loc 14 194 0
	bl _ZdaPv
	lwz 0,12(1)
.L273:
	.loc 14 197 0
	li 9,0
	stw 9,4812(31)
	.loc 14 199 0
	stw 9,4804(31)
	b .L274
.LVL666:
.L314:
.LBE7031:
.LBE7030:
.LBE7034:
.LBE7037:
.LBE7042:
.LBE7117:
.LBB7118:
.LBB6976:
.LBB6973:
.LBB6971:
.LBB6968:
.LBB6969:
	.loc 14 194 0
	mr 3,28
.LVL667:
	bl _ZdaPv
.LVL668:
	.loc 14 197 0
	li 0,0
	stw 0,4796(31)
	.loc 14 198 0
	stw 0,4784(31)
	.loc 14 199 0
	stw 0,4788(31)
	b .L258
.LVL669:
.L308:
.LBE6969:
.LBE6968:
.LBE6971:
.LBE6973:
.LBE6976:
.LBE7118:
.LBB7119:
.LBB6911:
.LBB6910:
.LBB6909:
.LBB6907:
.LBB6908:
	.loc 14 194 0
	mr 3,28
.LVL670:
	bl _ZdaPv
.LVL671:
	.loc 14 197 0
	li 0,0
	stw 0,4580(31)
	.loc 14 198 0
	stw 0,4568(31)
	.loc 14 199 0
	stw 0,4572(31)
	b .L242
.LVL672:
.L319:
.LBE6908:
.LBE6907:
.LBE6909:
.LBE6910:
.LBE6911:
.LBE7119:
.LBB7120:
.LBB7015:
.LBB7013:
.LBB7012:
.LBB7010:
.LBB7011:
	.loc 14 194 0
	mr 3,28
.LVL673:
	bl _ZdaPv
.LVL674:
	.loc 14 197 0
	li 0,0
	stw 0,4812(31)
	.loc 14 198 0
	stw 0,4800(31)
	.loc 14 199 0
	stw 0,4804(31)
	b .L268
.LVL675:
.L301:
	mr 31,3
.LVL676:
.LBE7011:
.LBE7010:
.LBE7012:
.LBE7013:
.LBE7015:
.LBE7120:
.LBB7121:
.LBB7122:
.LBB7123:
	.loc 15 501 0
	addi 3,1,32
	bl _ZN5idStr8FreeDataEv
	mr 3,31
.LEHB25:
	bl _Unwind_Resume
.LEHE25:
.LBE7123:
.LBE7122:
.LBE7121:
.LBE7128:
	.cfi_endproc
.LFE2859:
	.section	.gcc_except_table
.LLSDA2859:
	.byte	0xff
	.byte	0xff
	.byte	0x1
	.uleb128 .LLSDACSE2859-.LLSDACSB2859
.LLSDACSB2859:
	.uleb128 .LEHB21-.LFB2859
	.uleb128 .LEHE21-.LEHB21
	.uleb128 0
	.uleb128 0
	.uleb128 .LEHB22-.LFB2859
	.uleb128 .LEHE22-.LEHB22
	.uleb128 .L301-.LFB2859
	.uleb128 0
	.uleb128 .LEHB23-.LFB2859
	.uleb128 .LEHE23-.LEHB23
	.uleb128 0
	.uleb128 0
	.uleb128 .LEHB24-.LFB2859
	.uleb128 .LEHE24-.LEHB24
	.uleb128 .L301-.LFB2859
	.uleb128 0
	.uleb128 .LEHB25-.LFB2859
	.uleb128 .LEHE25-.LEHB25
	.uleb128 0
	.uleb128 0
.LLSDACSE2859:
	.section	".text"
	.size	_ZN4idAI7RestoreEP13idRestoreGame, .-_ZN4idAI7RestoreEP13idRestoreGame
	.align 2
	.globl _ZNK4idAI9DrawRouteEv
	.type	_ZNK4idAI9DrawRouteEv, @function
_ZNK4idAI9DrawRouteEv:
.LFB2871:
	.loc 4 1343 0
	.cfi_startproc
.LVL677:
	mflr 0
	stwu 1,-24(1)
.LCFI90:
	.cfi_def_cfa_offset 24
	.cfi_register 65, 0
	stw 30,16(1)
	mr 30,3
	.cfi_offset 30, -8
	stw 0,28(1)
	stw 29,12(1)
	stw 31,20(1)
	.loc 4 1344 0
	lwz 29,3944(3)
	.cfi_offset 31, -4
	.cfi_offset 29, -12
	.cfi_offset 65, 4
	cmpwi 7,29,0
	beq- 7,.L328
	.loc 4 1344 0 is_stmt 0 discriminator 1
	lwz 0,4004(3)
	cmpwi 7,0,0
	beq- 7,.L328
	.loc 4 1344 0 discriminator 2
	lwz 0,3956(3)
	cmpwi 7,0,0
	beq- 7,.L328
	.loc 4 1344 0 discriminator 3
	cmpwi 7,0,12
	beq- 7,.L328
	.loc 4 1344 0 discriminator 4
	cmpwi 7,0,1
	beq- 7,.L328
	.loc 4 1344 0 discriminator 5
	cmpwi 7,0,2
	beq- 7,.L328
	.loc 4 1344 0 discriminator 6
	cmpwi 7,0,10
	beq- 7,.L328
.LVL678:
.LBB7131:
.LBB7132:
	.loc 4 1345 0 is_stmt 1
	lwz 0,3952(3)
	.loc 4 1346 0
	li 4,0
	lwz 9,0(29)
	addi 3,3,4216
.LVL679:
	.loc 4 1345 0
	cmpwi 7,0,3
	beq- 7,.L332
	.loc 4 1348 0
	lwz 31,116(9)
.L331:
	bl _ZNK15idPhysics_Actor9GetOriginEi
	lwz 5,4004(30)
	mr 4,3
	addi 6,30,3964
	mr 3,29
	mtctr 31
	bctrl
.LVL680:
.L328:
.LBE7132:
.LBE7131:
	.loc 4 1351 0
	lwz 0,28(1)
	lwz 29,12(1)
	mtlr 0
	lwz 30,16(1)
.LVL681:
	lwz 31,20(1)
	addi 1,1,24
	.cfi_remember_state
.LCFI91:
	.cfi_def_cfa_offset 0
	.cfi_restore 31
	.cfi_restore 30
	.cfi_restore 29
	blr
.LVL682:
.L332:
.LCFI92:
	.cfi_restore_state
.LBB7134:
.LBB7133:
	.loc 4 1346 0
	lwz 31,120(9)
	b .L331
.LBE7133:
.LBE7134:
	.cfi_endproc
.LFE2871:
	.size	_ZNK4idAI9DrawRouteEv, .-_ZNK4idAI9DrawRouteEv
	.align 2
	.globl _ZNK4idAI10ReachedPosERK6idVec313moveCommand_t
	.type	_ZNK4idAI10ReachedPosERK6idVec313moveCommand_t, @function
_ZNK4idAI10ReachedPosERK6idVec313moveCommand_t:
.LFB2872:
	.loc 4 1358 0
	.cfi_startproc
.LVL683:
	mflr 0
	stwu 1,-16(1)
.LCFI93:
	.cfi_def_cfa_offset 16
	.cfi_register 65, 0
	stw 31,12(1)
	mr 31,4
	.cfi_offset 31, -4
	stw 0,20(1)
.LBB7260:
	.loc 4 1359 0
	lwz 0,3952(3)
	.cfi_offset 65, 4
.LBB7261:
	.loc 4 1361 0
	addi 3,3,4216
.LVL684:
.LBE7261:
	.loc 4 1359 0
	cmpwi 7,0,2
	beq- 7,.L355
.LBB7298:
	.loc 4 1366 0
	cmpwi 7,5,3
	beq- 7,.L336
	.loc 4 1366 0 is_stmt 0 discriminator 1
	cmpwi 7,5,5
	beq- 7,.L336
.LVL685:
.LBB7299:
	.loc 4 1372 0 is_stmt 1
	li 4,0
.LVL686:
	bl _ZNK15idPhysics_Actor9GetOriginEi
.LVL687:
.LBB7300:
.LBB7301:
.LBB7302:
	.loc 6 456 0
	lis 9,.LC74@ha
	lfs 12,0(3)
	lfs 0,.LC74@l(9)
.LBE7302:
.LBE7301:
.LBE7300:
.LBB7317:
.LBB7318:
.LBB7319:
.LBB7320:
	.loc 6 402 0
	lfs 13,0(31)
.LBE7320:
.LBE7319:
.LBE7318:
.LBE7317:
.LBB7332:
.LBB7307:
.LBB7303:
	.loc 6 456 0
	fadds 11,12,0
	.loc 6 457 0
	lfs 10,4(3)
	.loc 6 458 0
	lfs 9,8(3)
.LVL688:
.LBE7303:
.LBE7307:
.LBE7332:
.LBB7333:
.LBB7325:
	.loc 4 1378 0
	li 3,0
.LVL689:
	.loc 5 354 0
	fcmpu 7,11,13
	bgt- 7,.L335
.LVL690:
.LBE7325:
.LBE7333:
.LBB7334:
.LBB7308:
.LBB7304:
	.loc 6 457 0
	fadds 0,10,0
.LBE7304:
.LBE7308:
.LBE7334:
.LBB7335:
.LBB7326:
.LBB7321:
.LBB7322:
	.loc 6 402 0
	lfs 11,4(31)
.LVL691:
.LBE7322:
.LBE7321:
	.loc 5 354 0
	fcmpu 7,0,11
	bgt- 7,.L335
.LVL692:
.LBE7326:
.LBE7335:
.LBB7336:
.LBB7309:
.LBB7305:
	.loc 6 458 0
	lis 9,.LC24@ha
.LBE7305:
.LBE7309:
.LBE7336:
.LBB7337:
.LBB7327:
.LBB7323:
.LBB7324:
	.loc 6 402 0
	lfs 0,8(31)
.LVL693:
.LBE7324:
.LBE7323:
.LBE7327:
.LBE7337:
.LBB7338:
.LBB7310:
.LBB7306:
	.loc 6 458 0
	lfs 8,.LC24@l(9)
	fadds 8,9,8
.LBE7306:
.LBE7310:
.LBE7338:
.LBB7339:
.LBB7328:
	.loc 5 354 0
	fcmpu 7,8,0
	bgt- 7,.L335
.LVL694:
.LBE7328:
.LBE7339:
.LBB7340:
.LBB7311:
.LBB7312:
	.loc 6 456 0
	lis 9,.LC1@ha
	lfs 8,.LC1@l(9)
	fadds 12,12,8
.LBE7312:
.LBE7311:
.LBE7340:
.LBB7341:
.LBB7329:
	.loc 5 354 0
	fcmpu 7,12,13
	blt- 7,.L335
.LVL695:
.L354:
.LBE7329:
.LBE7341:
.LBB7342:
.LBB7315:
.LBB7313:
	.loc 6 457 0
	fadds 10,10,8
.LBE7313:
.LBE7315:
.LBE7342:
.LBB7343:
.LBB7330:
	.loc 5 354 0
	fcmpu 7,10,11
	blt- 7,.L335
.LVL696:
.LBE7330:
.LBE7343:
.LBB7344:
.LBB7316:
.LBB7314:
	.loc 6 458 0
	lis 9,.LC20@ha
	lfs 13,.LC20@l(9)
	fadds 9,9,13
.LBE7314:
.LBE7316:
.LBE7344:
.LBB7345:
.LBB7331:
	.loc 5 354 0
	fcmpu 7,9,0
	mfcr 3
	rlwinm 3,3,29,1
	.loc 4 1358 0
	xori 3,3,1
.LVL697:
.L335:
.LBE7331:
.LBE7345:
.LBE7299:
.LBE7298:
.LBE7260:
	.loc 4 1379 0
	lwz 0,20(1)
	lwz 31,12(1)
.LVL698:
	mtlr 0
	addi 1,1,16
	.cfi_remember_state
.LCFI94:
	.cfi_def_cfa_offset 0
	.cfi_restore 31
	blr
.LVL699:
.L336:
.LCFI95:
	.cfi_restore_state
.LBB7384:
.LBB7382:
	.loc 4 1367 0
	li 4,-1
.LVL700:
	bl _ZNK15idPhysics_Actor12GetAbsBoundsEi
.LVL701:
.LBB7346:
.LBB7347:
	.loc 5 319 0
	lis 11,.LC62@ha
.LBE7347:
.LBE7346:
.LBB7355:
.LBB7356:
.LBB7357:
	.loc 6 424 0
	lfs 13,0(31)
.LBE7357:
.LBE7356:
.LBE7355:
	.loc 4 1367 0
	mr 9,3
.LVL702:
.LBB7360:
.LBB7348:
	.loc 5 319 0
	lfs 0,.LC62@l(11)
.LBE7348:
.LBE7360:
.LBB7361:
.LBB7362:
	.loc 5 362 0
	lfs 12,0(3)
	.loc 4 1378 0
	li 3,0
.LBE7362:
.LBE7361:
.LBB7369:
.LBB7349:
	.loc 5 319 0
	fadds 11,13,0
.LBE7349:
.LBE7369:
.LBB7370:
.LBB7359:
.LBB7358:
	.loc 6 425 0
	lfs 10,4(31)
	.loc 6 426 0
	lfs 9,8(31)
.LVL703:
.LBE7358:
.LBE7359:
.LBE7370:
.LBB7371:
.LBB7363:
	.loc 5 362 0
	fcmpu 7,11,12
	blt- 7,.L335
.LVL704:
.LBE7363:
.LBE7371:
.LBB7372:
.LBB7350:
	.loc 5 319 0
	fadds 11,10,0
.LVL705:
.LBE7350:
.LBE7372:
.LBB7373:
.LBB7364:
	.loc 5 362 0
	lfs 12,4(9)
	fcmpu 7,11,12
	blt- 7,.L335
.LVL706:
.LBE7364:
.LBE7373:
.LBB7374:
.LBB7351:
	.loc 5 319 0
	fadds 11,9,0
.LBE7351:
.LBE7374:
.LBB7375:
.LBB7365:
	.loc 5 362 0
	lfs 12,8(9)
	fcmpu 7,11,12
	blt- 7,.L335
.LVL707:
.LBE7365:
.LBE7375:
.LBB7376:
.LBB7352:
	.loc 5 319 0
	fsubs 13,13,0
.LBE7352:
.LBE7376:
.LBB7377:
.LBB7366:
	.loc 5 362 0
	lfs 12,12(9)
	fcmpu 7,13,12
	bgt- 7,.L335
.LVL708:
.LBE7366:
.LBE7377:
.LBB7378:
.LBB7353:
	.loc 5 319 0
	fsubs 10,10,0
.LBE7353:
.LBE7378:
.LBB7379:
.LBB7367:
	.loc 5 362 0
	lfs 13,16(9)
	fcmpu 7,10,13
	bgt- 7,.L335
.LVL709:
.LBE7367:
.LBE7379:
.LBB7380:
.LBB7354:
	.loc 5 319 0
	fsubs 0,9,0
.LBE7354:
.LBE7380:
.LBB7381:
.LBB7368:
	.loc 5 362 0
	lfs 13,20(9)
	fcmpu 7,0,13
	mfcr 3
	rlwinm 3,3,30,1
	.loc 4 1358 0
	xori 3,3,1
	b .L335
.LVL710:
.L355:
.LBE7368:
.LBE7381:
.LBE7382:
.LBB7383:
	.loc 4 1361 0
	li 4,0
	bl _ZNK15idPhysics_Actor9GetOriginEi
.LVL711:
.LBB7262:
.LBB7263:
.LBB7264:
	.loc 6 456 0
	lis 9,.LC72@ha
	lfs 12,0(3)
	lfs 0,.LC72@l(9)
.LBE7264:
.LBE7263:
.LBE7262:
.LBB7275:
.LBB7276:
.LBB7277:
.LBB7278:
	.loc 6 402 0
	lfs 13,0(31)
.LBE7278:
.LBE7277:
.LBE7276:
.LBE7275:
.LBB7288:
.LBB7269:
.LBB7265:
	.loc 6 456 0
	fadds 11,12,0
	.loc 6 457 0
	lfs 10,4(3)
	.loc 6 458 0
	lfs 9,8(3)
.LVL712:
.LBE7265:
.LBE7269:
.LBE7288:
.LBB7289:
.LBB7283:
	.loc 4 1378 0
	li 3,0
.LVL713:
	.loc 5 354 0
	fcmpu 7,11,13
	bgt- 7,.L335
.LVL714:
.LBE7283:
.LBE7289:
.LBB7290:
.LBB7270:
.LBB7266:
	.loc 6 457 0
	fadds 0,10,0
.LBE7266:
.LBE7270:
.LBE7290:
.LBB7291:
.LBB7284:
.LBB7279:
.LBB7280:
	.loc 6 402 0
	lfs 11,4(31)
.LVL715:
.LBE7280:
.LBE7279:
	.loc 5 354 0
	fcmpu 7,0,11
	bgt- 7,.L335
.LVL716:
.LBE7284:
.LBE7291:
.LBB7292:
.LBB7271:
.LBB7267:
	.loc 6 458 0
	lis 9,.LC24@ha
.LBE7267:
.LBE7271:
.LBE7292:
.LBB7293:
.LBB7285:
.LBB7281:
.LBB7282:
	.loc 6 402 0
	lfs 0,8(31)
.LVL717:
.LBE7282:
.LBE7281:
.LBE7285:
.LBE7293:
.LBB7294:
.LBB7272:
.LBB7268:
	.loc 6 458 0
	lfs 8,.LC24@l(9)
	fadds 8,9,8
.LBE7268:
.LBE7272:
.LBE7294:
.LBB7295:
.LBB7286:
	.loc 5 354 0
	fcmpu 7,8,0
	bgt- 7,.L335
.LVL718:
.LBE7286:
.LBE7295:
.LBB7296:
.LBB7273:
.LBB7274:
	.loc 6 456 0
	lis 9,.LC73@ha
	lfs 8,.LC73@l(9)
	fadds 12,12,8
.LBE7274:
.LBE7273:
.LBE7296:
.LBB7297:
.LBB7287:
	.loc 5 354 0
	fcmpu 7,12,13
	blt- 7,.L335
	b .L354
.LBE7287:
.LBE7297:
.LBE7383:
.LBE7384:
	.cfi_endproc
.LFE2872:
	.size	_ZNK4idAI10ReachedPosERK6idVec313moveCommand_t, .-_ZNK4idAI10ReachedPosERK6idVec313moveCommand_t
	.align 2
	.globl _ZNK4idAI21PointReachableAreaNumERK6idVec3f
	.type	_ZNK4idAI21PointReachableAreaNumERK6idVec3f, @function
_ZNK4idAI21PointReachableAreaNumERK6idVec3f:
.LFB2873:
	.loc 4 1386 0
	.cfi_startproc
.LVL719:
	mflr 0
	stwu 1,-64(1)
.LCFI96:
	.cfi_def_cfa_offset 64
	.cfi_register 65, 0
	stfd 31,56(1)
	fmr 31,1
	.cfi_offset 63, -8
	stw 31,52(1)
	mr 31,3
	.cfi_offset 31, -12
	stw 0,68(1)
.LBB7385:
	.loc 4 1391 0
	lwz 9,3944(3)
	.loc 4 1392 0
	li 3,0
.LVL720:
	.loc 4 1391 0
	cmpwi 7,9,0
	beq- 7,.L357
	.cfi_offset 65, 4
	.loc 4 1395 0
	lwz 11,0(9)
	mr 3,9
	lwz 0,20(11)
	stw 4,40(1)
	mtctr 0
	bctrl
.LVL721:
	.loc 4 1400 0
	lwz 0,3952(31)
.LBB7386:
.LBB7387:
	.loc 6 439 0
	lfs 13,16(3)
.LBE7387:
.LBE7386:
.LBB7391:
.LBB7392:
	.loc 6 426 0
	lis 9,.LC61@ha
.LBE7392:
.LBE7391:
.LBB7397:
.LBB7388:
	.loc 6 439 0
	lfs 0,20(3)
.LBE7388:
.LBE7397:
	.loc 4 1400 0
	cmpwi 7,0,3
.LBB7398:
.LBB7389:
	.loc 6 439 0
	lfs 12,24(3)
	fmuls 13,31,13
	fmuls 0,31,0
.LVL722:
.LBE7389:
.LBE7398:
.LBB7399:
.LBB7393:
	.loc 6 426 0
	lwz 0,.LC61@l(9)
.LBE7393:
.LBE7399:
.LBB7400:
.LBB7390:
	.loc 6 439 0
	fmuls 31,31,12
.LVL723:
.LBE7390:
.LBE7400:
	.loc 4 1401 0
	lwz 3,3944(31)
.LVL724:
.LBB7401:
.LBB7402:
	.loc 6 420 0
	fneg 11,13
.LBE7402:
.LBE7401:
.LBB7405:
.LBB7394:
	.loc 6 424 0
	stfs 13,20(1)
.LBE7394:
.LBE7405:
.LBB7406:
.LBB7403:
	.loc 6 420 0
	fneg 12,0
.LBE7403:
.LBE7406:
.LBB7407:
.LBB7395:
	.loc 6 425 0
	stfs 0,24(1)
.LBE7395:
.LBE7407:
.LBB7408:
.LBB7404:
	.loc 6 420 0
	fneg 31,31
.LVL725:
.LBE7404:
.LBE7408:
.LBB7409:
.LBB7396:
	.loc 6 426 0
	stw 0,28(1)
.LBE7396:
.LBE7409:
.LBB7410:
.LBB7411:
	.loc 6 424 0
	stfs 11,8(1)
.LBE7411:
.LBE7410:
	.loc 4 1401 0
	addi 5,1,8
.LBB7413:
.LBB7412:
	.loc 6 425 0
	stfs 12,12(1)
	.loc 6 426 0
	stfs 31,16(1)
.LVL726:
.LBE7412:
.LBE7413:
	.loc 4 1400 0
	lwz 4,40(1)
	.loc 4 1401 0
	lwz 9,0(3)
	lwz 0,28(9)
	.loc 4 1400 0
	beq- 7,.L360
	.loc 4 1403 0
	li 6,64
	mtctr 0
	bctrl
.LVL727:
.L357:
.LBE7385:
	.loc 4 1407 0
	lwz 0,68(1)
	lwz 31,52(1)
.LVL728:
	mtlr 0
	lfd 31,56(1)
	addi 1,1,64
	.cfi_remember_state
.LCFI97:
	.cfi_def_cfa_offset 0
	.cfi_restore 63
	.cfi_restore 31
	blr
.LVL729:
.L360:
.LCFI98:
	.cfi_restore_state
.LBB7414:
	.loc 4 1401 0
	mtctr 0
	li 6,192
	bctrl
.LVL730:
.LBE7414:
	.loc 4 1407 0
	lwz 0,68(1)
	lwz 31,52(1)
.LVL731:
	mtlr 0
	lfd 31,56(1)
.LVL732:
	addi 1,1,64
	.cfi_restore 31
	.cfi_restore 63
.LCFI99:
	.cfi_def_cfa_offset 0
	blr
	.cfi_endproc
.LFE2873:
	.size	_ZNK4idAI21PointReachableAreaNumERK6idVec3f, .-_ZNK4idAI21PointReachableAreaNumERK6idVec3f
	.align 2
	.globl _ZNK4idAI10PathToGoalER9aasPath_siRK6idVec3iS4_
	.type	_ZNK4idAI10PathToGoalER9aasPath_siRK6idVec3iS4_, @function
_ZNK4idAI10PathToGoalER9aasPath_siRK6idVec3iS4_:
.LFB2874:
	.loc 4 1414 0
	.cfi_startproc
.LVL733:
	mflr 0
	stwu 1,-64(1)
.LCFI100:
	.cfi_def_cfa_offset 64
	.cfi_register 65, 0
	stw 26,40(1)
	mr 26,8
	.cfi_offset 26, -24
	stw 27,44(1)
.LBB7415:
	.loc 4 1419 0
	li 27,0
	.cfi_offset 27, -20
.LBE7415:
	.loc 4 1414 0
	stw 28,48(1)
	mr 28,7
	.cfi_offset 28, -16
	stw 29,52(1)
	mr 29,4
	.cfi_offset 29, -12
	stw 30,56(1)
	mr 30,5
	.cfi_offset 30, -8
	stw 31,60(1)
	mr 31,3
	.cfi_offset 31, -4
	stw 0,68(1)
.LBB7432:
	.loc 4 1418 0
	lwz 9,3944(3)
	cmpwi 7,9,0
	beq- 7,.L362
	.cfi_offset 65, 4
.LVL734:
.LBB7416:
.LBB7417:
	.loc 6 425 0
	lwz 11,4(6)
.LBE7417:
.LBE7416:
	.loc 4 1423 0
	mr 4,5
.LVL735:
.LBB7421:
.LBB7418:
	.loc 6 426 0
	lwz 0,8(6)
.LBE7418:
.LBE7421:
	.loc 4 1423 0
	mr 3,9
.LVL736:
.LBB7422:
.LBB7419:
	.loc 6 424 0
	lwz 10,0(6)
.LBE7419:
.LBE7422:
	.loc 4 1423 0
	addi 5,1,20
.LVL737:
.LBB7423:
.LBB7420:
	.loc 6 426 0
	stw 0,28(1)
	.loc 6 424 0
	stw 10,20(1)
	.loc 6 425 0
	stw 11,24(1)
.LBE7420:
.LBE7423:
	.loc 4 1423 0
	lwz 11,0(9)
	lwz 0,36(11)
	mtctr 0
	bctrl
.LVL738:
	.loc 4 1424 0
	cmpwi 7,30,0
	bne- 7,.L368
.LVL739:
.L362:
.LBE7432:
	.loc 4 1439 0
	lwz 0,68(1)
	mr 3,27
	lwz 26,40(1)
.LVL740:
	mtlr 0
	lwz 27,44(1)
	lwz 28,48(1)
.LVL741:
	lwz 29,52(1)
.LVL742:
	lwz 30,56(1)
.LVL743:
	lwz 31,60(1)
.LVL744:
	addi 1,1,64
	.cfi_remember_state
.LCFI101:
	.cfi_def_cfa_offset 0
	.cfi_restore 31
	.cfi_restore 30
	.cfi_restore 29
	.cfi_restore 28
	.cfi_restore 27
	.cfi_restore 26
	blr
.LVL745:
.L368:
.LCFI102:
	.cfi_restore_state
.LBB7433:
.LBB7424:
.LBB7425:
	.loc 6 425 0
	lwz 9,4(26)
.LBE7425:
.LBE7424:
	.loc 4 1429 0
	mr 4,28
.LBB7429:
.LBB7426:
	.loc 6 426 0
	lwz 0,8(26)
.LBE7426:
.LBE7429:
	.loc 4 1429 0
	addi 5,1,8
.LBB7430:
.LBB7427:
	.loc 6 424 0
	lwz 11,0(26)
	.loc 6 426 0
	stw 0,16(1)
.LBE7427:
.LBE7430:
	.loc 4 1429 0
	lwz 3,3944(31)
.LBB7431:
.LBB7428:
	.loc 6 424 0
	stw 11,8(1)
	.loc 6 425 0
	stw 9,12(1)
.LBE7428:
.LBE7431:
	.loc 4 1429 0
	lwz 9,0(3)
	lwz 0,36(9)
	mtctr 0
	bctrl
	.loc 4 1430 0
	cmpwi 7,28,0
	beq- 7,.L362
	.loc 4 1434 0
	lwz 0,3952(31)
	.loc 4 1435 0
	mr 4,29
	lwz 3,3944(31)
	.loc 4 1434 0
	cmpwi 7,0,3
	.loc 4 1435 0
	lwz 9,0(3)
	.loc 4 1434 0
	beq- 7,.L369
	.loc 4 1437 0
	lwz 0,100(9)
.L367:
	mr 5,30
	addi 6,1,20
	mr 7,28
	addi 8,1,8
	lwz 9,3948(31)
	mtctr 0
	bctrl
.LBE7433:
	.loc 4 1439 0
	lwz 0,68(1)
.LBB7434:
	.loc 4 1437 0
	mr 27,3
.LBE7434:
	.loc 4 1439 0
	lwz 26,40(1)
.LVL746:
	mtlr 0
	mr 3,27
	lwz 28,48(1)
.LVL747:
	lwz 27,44(1)
	lwz 29,52(1)
.LVL748:
	lwz 30,56(1)
.LVL749:
	lwz 31,60(1)
.LVL750:
	addi 1,1,64
	.cfi_remember_state
	.cfi_restore 26
	.cfi_restore 27
	.cfi_restore 28
	.cfi_restore 29
	.cfi_restore 30
	.cfi_restore 31
.LCFI103:
	.cfi_def_cfa_offset 0
	blr
.LVL751:
.L369:
.LCFI104:
	.cfi_restore_state
.LBB7435:
	.loc 4 1435 0
	lwz 0,108(9)
	b .L367
.LBE7435:
	.cfi_endproc
.LFE2874:
	.size	_ZNK4idAI10PathToGoalER9aasPath_siRK6idVec3iS4_, .-_ZNK4idAI10PathToGoalER9aasPath_siRK6idVec3iS4_
	.align 2
	.globl _ZNK4idAI14TravelDistanceERK6idVec3S2_
	.type	_ZNK4idAI14TravelDistanceERK6idVec3S2_, @function
_ZNK4idAI14TravelDistanceERK6idVec3S2_:
.LFB2875:
	.loc 4 1451 0
	.cfi_startproc
.LVL752:
	mflr 0
	stwu 1,-216(1)
.LCFI105:
	.cfi_def_cfa_offset 216
	.cfi_register 65, 0
	stw 29,188(1)
	mr 29,4
	.cfi_offset 29, -28
	stw 30,192(1)
	mr 30,5
	.cfi_offset 30, -24
	stw 31,196(1)
	mr 31,3
	.cfi_offset 31, -20
	stw 0,220(1)
	stfd 30,200(1)
	stfd 31,208(1)
	stw 27,180(1)
	stw 28,184(1)
.LBB7436:
	.loc 4 1458 0
	lwz 0,3944(3)
	.cfi_offset 28, -32
	.cfi_offset 27, -36
	.cfi_offset 63, -8
	.cfi_offset 62, -16
	.cfi_offset 65, 4
	cmpwi 7,0,0
	beq- 7,.L380
	.loc 4 1471 0
	lis 9,.LC78@ha
	lfs 31,.LC78@l(9)
	fmr 1,31
	bl _ZNK4idAI21PointReachableAreaNumERK6idVec3f
.LVL753:
	.loc 4 1472 0
	fmr 1,31
	.loc 4 1471 0
	mr 27,3
.LVL754:
	.loc 4 1472 0
	mr 4,30
	mr 3,31
.LVL755:
	bl _ZNK4idAI21PointReachableAreaNumERK6idVec3f
	.loc 4 1474 0
	cmpwi 7,27,0
	.loc 4 1472 0
	mr 28,3
.LVL756:
	.loc 4 1474 0
	beq- 7,.L378
	.loc 4 1474 0 is_stmt 0 discriminator 1
	cmpwi 7,3,0
	beq- 7,.L378
	.loc 4 1479 0 is_stmt 1
	cmpw 7,27,3
	beq- 7,.L381
	.loc 4 1494 0
	lwz 0,8(29)
	mr 4,27
	lwz 10,0(29)
	addi 5,1,128
	lwz 11,4(29)
	mr 6,28
	lwz 9,3944(31)
	addi 8,1,8
	stw 10,128(1)
	stw 11,132(1)
	mr 3,9
.LVL757:
	stw 0,136(1)
	lwz 9,0(9)
	lwz 7,3948(31)
	lwz 0,96(9)
	addi 9,1,12
	mtctr 0
	bctrl
.LVL758:
	cmpwi 7,3,0
	beq- 7,.L378
.LBB7437:
.LBB7438:
	.loc 4 1498 0
	lis 9,ai_debugMove+44@ha
	.loc 20 142 0
	lwz 9,ai_debugMove+44@l(9)
.LBE7438:
.LBE7437:
	.loc 4 1498 0
	lwz 0,36(9)
	cmpwi 7,0,0
	beq- 7,.L374
	.loc 4 1499 0
	lwz 0,3952(31)
	.loc 4 1500 0
	mr 4,29
	lwz 3,3944(31)
	.loc 4 1499 0
	cmpwi 7,0,3
	.loc 4 1500 0
	lwz 9,0(3)
	.loc 4 1499 0
	beq- 7,.L382
	.loc 4 1502 0
	lwz 0,116(9)
	mr 5,28
	mr 6,30
	mtctr 0
	bctrl
.L374:
.LVL759:
	.loc 4 1506 0
	lwz 0,8(1)
	lis 9,.LC65@ha
	lfs 0,.LC65@l(9)
	xoris 0,0,0x8000
	stw 0,148(1)
	lis 0,0x4330
	stw 0,144(1)
	lfd 31,144(1)
	fsub 31,31,0
	frsp 31,31
	b .L372
.LVL760:
.L378:
	.loc 4 1495 0
	lis 9,.LC75@ha
	lfs 31,.LC75@l(9)
.LVL761:
.L372:
.LBE7436:
	.loc 4 1507 0
	lwz 0,220(1)
	fmr 1,31
	lwz 27,180(1)
	mtlr 0
	lwz 28,184(1)
	lwz 29,188(1)
.LVL762:
	lwz 30,192(1)
.LVL763:
	lwz 31,196(1)
.LVL764:
	lfd 30,200(1)
	lfd 31,208(1)
	addi 1,1,216
	.cfi_remember_state
.LCFI106:
	.cfi_def_cfa_offset 0
	.cfi_restore 63
	.cfi_restore 62
	.cfi_restore 31
	.cfi_restore 30
	.cfi_restore 29
	.cfi_restore 28
	.cfi_restore 27
	blr
.LVL765:
.L380:
.LCFI107:
	.cfi_restore_state
.LBB7551:
.LBB7439:
.LBB7440:
	.loc 6 237 0
	lfs 0,4(4)
.LBE7440:
.LBE7439:
.LBB7445:
.LBB7446:
.LBB7447:
.LBB7448:
	.loc 8 246 0
	lis 9,.LC15@ha
.LBE7448:
.LBE7447:
.LBE7446:
.LBE7445:
.LBB7470:
.LBB7441:
	.loc 6 237 0
	lfs 13,4(5)
.LBE7441:
.LBE7470:
.LBB7471:
.LBB7463:
.LBB7456:
.LBB7449:
	.loc 8 250 0
	lis 11,.LC63@ha
.LBE7449:
.LBE7456:
.LBE7463:
.LBE7471:
.LBB7472:
.LBB7442:
	.loc 6 237 0
	lfs 12,0(5)
	fsubs 13,13,0
.LVL766:
	lfs 0,0(4)
.LBE7442:
.LBE7472:
.LBB7473:
.LBB7464:
.LBB7457:
.LBB7450:
	.loc 8 246 0
	lfs 30,.LC15@l(9)
.LBE7450:
.LBE7457:
.LBE7464:
.LBE7473:
.LBB7474:
.LBB7443:
	.loc 6 237 0
	fsubs 0,12,0
.LVL767:
.LBE7443:
.LBE7474:
.LBB7475:
.LBB7465:
	.loc 6 162 0
	fmuls 13,13,13
.LVL768:
.LBE7465:
.LBE7475:
.LBB7476:
.LBB7444:
	fmadds 13,0,0,13
	stfs 13,160(1)
.LVL769:
.LBE7444:
.LBE7476:
.LBB7477:
.LBB7466:
.LBB7458:
.LBB7451:
	.loc 8 246 0
	fmuls 31,13,30
	.loc 8 248 0
	lwz 9,160(1)
	.loc 4 1451 0
	fneg 31,31
	.loc 8 248 0
	srawi 0,9,1
	.loc 8 249 0
	lis 9,0x5f37
	ori 9,9,23007
	subf 9,0,9
	stw 9,164(1)
.LVL770:
.LBE7451:
.LBE7458:
.LBE7466:
.LBE7477:
.LBB7478:
.LBB7479:
	.loc 4 1463 0
	lis 9,ai_debugMove+44@ha
	.loc 20 142 0
	lwz 9,ai_debugMove+44@l(9)
.LBE7479:
.LBE7478:
.LBB7480:
.LBB7467:
.LBB7459:
.LBB7452:
	.loc 8 250 0
	lfs 0,164(1)
.LVL771:
.LBE7452:
.LBE7459:
.LBE7467:
.LBE7480:
	.loc 4 1463 0
	lwz 0,36(9)
.LBB7481:
.LBB7468:
.LBB7460:
.LBB7453:
	.loc 8 250 0
	fmuls 13,0,0
.LVL772:
	lfs 0,.LC63@l(11)
	lfs 12,164(1)
.LBE7453:
.LBE7460:
.LBE7468:
.LBE7481:
	.loc 4 1463 0
	cmpwi 7,0,0
.LBB7482:
.LBB7469:
.LBB7461:
.LBB7454:
	.loc 8 250 0
	fmadds 31,31,13,0
.LVL773:
.LBE7454:
.LBE7461:
	.loc 6 163 0
	lfs 0,160(1)
.LBB7462:
.LBB7455:
	.loc 8 250 0
	fmuls 31,12,31
.LVL774:
.LBE7455:
.LBE7462:
	.loc 6 163 0
	fmuls 31,0,31
.LVL775:
.LBE7469:
.LBE7482:
	.loc 4 1463 0
	beq+ 7,.L372
	.loc 4 1464 0
	lis 31,gameRenderWorld@ha
	mr 5,4
.LVL776:
	lwz 3,gameRenderWorld@l(31)
.LVL777:
	lis 4,colorBlue@ha
.LVL778:
	mr 6,30
	li 7,16
	lwz 9,0(3)
	li 8,0
	la 4,colorBlue@l(4)
	lwz 0,156(9)
	mtctr 0
	bctrl
	.loc 4 1465 0
	lwz 28,gameRenderWorld@l(31)
	fctiwz 0,31
	lis 3,.LC76@ha
	lwz 9,0(28)
	la 3,.LC76@l(3)
	lwz 31,204(9)
	addi 9,1,156
	stfiwx 0,0,9
	lwz 4,156(1)
	crxor 6,6,6
	bl _Z2vaPKcz
.LBB7483:
.LBB7484:
	.loc 6 452 0
	lfs 9,4(29)
	lfs 10,8(29)
.LBE7484:
.LBE7483:
	.loc 4 1465 0
	mr 27,3
.LVL779:
.LBB7488:
.LBB7485:
	.loc 6 452 0
	lfs 11,0(29)
.LBE7485:
.LBE7488:
	.loc 4 1465 0
	lis 3,gameLocal@ha
.LBB7489:
.LBB7486:
	.loc 6 452 0
	lfs 13,4(30)
.LBE7486:
.LBE7489:
	.loc 4 1465 0
	la 3,gameLocal@l(3)
.LBB7490:
.LBB7487:
	.loc 6 452 0
	lfs 0,8(30)
	lfs 12,0(30)
	fadds 13,9,13
	fadds 0,10,0
	fadds 12,11,12
.LBE7487:
.LBE7490:
.LBB7491:
.LBB7492:
	.loc 6 439 0
	fmuls 13,13,30
	fmuls 0,0,30
.LVL780:
	fmuls 30,12,30
.LBB7493:
.LBB7494:
	.loc 6 397 0
	stfs 13,32(1)
	.loc 6 398 0
	stfs 0,36(1)
	.loc 6 396 0
	stfs 30,28(1)
.LBE7494:
.LBE7493:
.LBE7492:
.LBE7491:
	.loc 4 1465 0
	bl _ZNK11idGameLocal14GetLocalPlayerEv
.LVL781:
	addi 4,3,4644
	addi 3,1,76
	bl _ZNK8idAngles6ToMat3Ev
	lis 9,.LC77@ha
	lis 6,colorWhite@ha
	lfs 1,.LC77@l(9)
	mr 3,28
	mr 4,27
	addi 5,1,28
	la 6,colorWhite@l(6)
	addi 7,1,76
.LVL782:
.L379:
	.loc 4 1486 0
	mtctr 31
	li 8,1
	li 9,0
	li 10,0
	bctrl
.LBE7551:
	.loc 4 1507 0
	lwz 0,220(1)
	fmr 1,31
	lwz 27,180(1)
	mtlr 0
	lwz 28,184(1)
	lwz 29,188(1)
.LVL783:
	lwz 30,192(1)
.LVL784:
	lwz 31,196(1)
	lfd 30,200(1)
	lfd 31,208(1)
	addi 1,1,216
	.cfi_remember_state
	.cfi_restore 27
	.cfi_restore 28
	.cfi_restore 29
	.cfi_restore 30
	.cfi_restore 31
	.cfi_restore 62
	.cfi_restore 63
.LCFI108:
	.cfi_def_cfa_offset 0
	blr
.LVL785:
.L381:
.LCFI109:
	.cfi_restore_state
.LBB7552:
.LBB7495:
.LBB7496:
	.loc 6 237 0
	lfs 0,4(29)
.LBE7496:
.LBE7495:
.LBB7501:
.LBB7502:
.LBB7503:
.LBB7504:
	.loc 8 246 0
	lis 9,.LC15@ha
.LBE7504:
.LBE7503:
.LBE7502:
.LBE7501:
.LBB7526:
.LBB7497:
	.loc 6 237 0
	lfs 13,4(30)
.LBE7497:
.LBE7526:
.LBB7527:
.LBB7519:
.LBB7512:
.LBB7505:
	.loc 8 250 0
	lis 11,.LC63@ha
.LBE7505:
.LBE7512:
.LBE7519:
.LBE7527:
.LBB7528:
.LBB7498:
	.loc 6 237 0
	lfs 12,0(30)
	fsubs 13,13,0
.LVL786:
	lfs 0,0(29)
.LBE7498:
.LBE7528:
.LBB7529:
.LBB7520:
.LBB7513:
.LBB7506:
	.loc 8 246 0
	lfs 30,.LC15@l(9)
.LBE7506:
.LBE7513:
.LBE7520:
.LBE7529:
.LBB7530:
.LBB7499:
	.loc 6 237 0
	fsubs 0,12,0
.LVL787:
.LBE7499:
.LBE7530:
.LBB7531:
.LBB7521:
	.loc 6 162 0
	fmuls 13,13,13
.LVL788:
.LBE7521:
.LBE7531:
.LBB7532:
.LBB7500:
	fmadds 13,0,0,13
	stfs 13,160(1)
.LVL789:
.LBE7500:
.LBE7532:
.LBB7533:
.LBB7522:
.LBB7514:
.LBB7507:
	.loc 8 246 0
	fmuls 31,13,30
	.loc 8 248 0
	lwz 9,160(1)
	.loc 4 1451 0
	fneg 31,31
	.loc 8 248 0
	srawi 0,9,1
	.loc 8 249 0
	lis 9,0x5f37
	ori 9,9,23007
	subf 9,0,9
	stw 9,164(1)
.LVL790:
.LBE7507:
.LBE7514:
.LBE7522:
.LBE7533:
.LBB7534:
.LBB7535:
	.loc 4 1484 0
	lis 9,ai_debugMove+44@ha
	.loc 20 142 0
	lwz 9,ai_debugMove+44@l(9)
.LBE7535:
.LBE7534:
.LBB7536:
.LBB7523:
.LBB7515:
.LBB7508:
	.loc 8 250 0
	lfs 0,164(1)
.LVL791:
.LBE7508:
.LBE7515:
.LBE7523:
.LBE7536:
	.loc 4 1484 0
	lwz 0,36(9)
.LBB7537:
.LBB7524:
.LBB7516:
.LBB7509:
	.loc 8 250 0
	fmuls 13,0,0
.LVL792:
	lfs 0,.LC63@l(11)
	lfs 12,164(1)
.LBE7509:
.LBE7516:
.LBE7524:
.LBE7537:
	.loc 4 1484 0
	cmpwi 7,0,0
.LBB7538:
.LBB7525:
.LBB7517:
.LBB7510:
	.loc 8 250 0
	fmadds 31,31,13,0
.LVL793:
.LBE7510:
.LBE7517:
	.loc 6 163 0
	lfs 0,160(1)
.LBB7518:
.LBB7511:
	.loc 8 250 0
	fmuls 31,12,31
.LVL794:
.LBE7511:
.LBE7518:
	.loc 6 163 0
	fmuls 31,0,31
.LVL795:
.LBE7525:
.LBE7538:
	.loc 4 1484 0
	beq+ 7,.L372
	.loc 4 1485 0
	lis 31,gameRenderWorld@ha
.LVL796:
	lis 4,colorBlue@ha
	lwz 3,gameRenderWorld@l(31)
.LVL797:
	mr 5,29
	mr 6,30
	li 7,16
	lwz 9,0(3)
	li 8,0
	la 4,colorBlue@l(4)
	lwz 0,156(9)
	mtctr 0
	bctrl
	.loc 4 1486 0
	lwz 28,gameRenderWorld@l(31)
.LVL798:
	fctiwz 0,31
	lis 3,.LC76@ha
	lwz 9,0(28)
	la 3,.LC76@l(3)
	lwz 31,204(9)
	addi 9,1,152
	stfiwx 0,0,9
	lwz 4,152(1)
	crxor 6,6,6
	bl _Z2vaPKcz
.LBB7539:
.LBB7540:
	.loc 6 452 0
	lfs 9,4(29)
	lfs 10,8(29)
.LBE7540:
.LBE7539:
	.loc 4 1486 0
	mr 27,3
.LVL799:
.LBB7544:
.LBB7541:
	.loc 6 452 0
	lfs 11,0(29)
.LBE7541:
.LBE7544:
	.loc 4 1486 0
	lis 3,gameLocal@ha
.LBB7545:
.LBB7542:
	.loc 6 452 0
	lfs 13,4(30)
.LBE7542:
.LBE7545:
	.loc 4 1486 0
	la 3,gameLocal@l(3)
.LBB7546:
.LBB7543:
	.loc 6 452 0
	lfs 0,8(30)
	lfs 12,0(30)
	fadds 13,9,13
	fadds 0,10,0
	fadds 12,11,12
.LBE7543:
.LBE7546:
.LBB7547:
.LBB7548:
	.loc 6 439 0
	fmuls 13,13,30
	fmuls 0,0,30
.LVL800:
	fmuls 30,12,30
.LBB7549:
.LBB7550:
	.loc 6 397 0
	stfs 13,20(1)
	.loc 6 398 0
	stfs 0,24(1)
	.loc 6 396 0
	stfs 30,16(1)
.LBE7550:
.LBE7549:
.LBE7548:
.LBE7547:
	.loc 4 1486 0
	bl _ZNK11idGameLocal14GetLocalPlayerEv
.LVL801:
	addi 4,3,4644
	addi 3,1,40
	bl _ZNK8idAngles6ToMat3Ev
	lis 9,.LC77@ha
	lis 6,colorWhite@ha
	mr 3,28
	mr 4,27
	addi 5,1,16
	lfs 1,.LC77@l(9)
	la 6,colorWhite@l(6)
	addi 7,1,40
	b .L379
.LVL802:
.L382:
	.loc 4 1500 0
	lwz 0,120(9)
	mr 5,28
	mr 6,30
	mtctr 0
	bctrl
	b .L374
.LBE7552:
	.cfi_endproc
.LFE2875:
	.size	_ZNK4idAI14TravelDistanceERK6idVec3S2_, .-_ZNK4idAI14TravelDistanceERK6idVec3S2_
	.align 2
	.globl _ZN4idAI8StopMoveE12moveStatus_t
	.type	_ZN4idAI8StopMoveE12moveStatus_t, @function
_ZN4idAI8StopMoveE12moveStatus_t:
.LFB2879:
	.loc 4 1514 0
	.cfi_startproc
.LVL803:
	mflr 0
	stwu 1,-16(1)
.LCFI110:
	.cfi_def_cfa_offset 16
	.cfi_register 65, 0
	stw 31,12(1)
	mr 31,3
	.cfi_offset 31, -4
.LVL804:
	stw 0,20(1)
	stw 30,8(1)
.LBB7553:
.LBB7554:
	.loc 18 237 0
	lwz 9,5208(3)
	cmpwi 7,9,0
	beq- 7,.L384
	.cfi_offset 30, -8
	.cfi_offset 65, 4
.LVL805:
	.loc 18 238 0
	li 0,1
	stw 0,0(9)
.LVL806:
.L384:
.LBE7554:
.LBE7553:
.LBB7555:
.LBB7556:
	.loc 18 237 0
	lwz 9,5220(31)
	cmpwi 7,9,0
	beq- 7,.L385
	.loc 18 238 0
	li 0,0
	stw 0,0(9)
.L385:
.LBE7556:
.LBE7555:
	.loc 4 1517 0
	li 30,0
	.loc 4 1518 0
	stw 4,3960(31)
	.loc 4 1517 0
	stw 30,3956(31)
	.loc 4 1521 0
	addi 3,31,4216
.LVL807:
	.loc 4 1519 0
	stw 30,4004(31)
.LVL808:
	.loc 4 1521 0
	li 4,0
.LVL809:
.LBB7557:
.LBB7558:
	.loc 7 606 0
	stw 30,3988(31)
.LBE7558:
.LBE7557:
	.loc 4 1521 0
	bl _ZNK15idPhysics_Actor9GetOriginEi
.LVL810:
.LBB7559:
.LBB7560:
	.loc 18 237 0
	lwz 9,5240(31)
.LBE7560:
.LBE7559:
.LBB7563:
.LBB7564:
	.loc 6 424 0
	lwz 0,0(3)
.LBE7564:
.LBE7563:
.LBB7566:
.LBB7561:
	.loc 18 237 0
	cmpwi 7,9,0
.LBE7561:
.LBE7566:
.LBB7567:
.LBB7565:
	.loc 6 424 0
	stw 0,3964(31)
	.loc 6 425 0
	lwz 0,4(3)
	stw 0,3968(31)
	.loc 6 426 0
	lwz 0,8(3)
	stw 0,3972(31)
.LVL811:
.LBE7565:
.LBE7567:
.LBB7568:
.LBB7562:
	.loc 18 237 0
	beq- 7,.L386
	.loc 18 238 0
	stw 30,0(9)
.L386:
.LVL812:
.LBE7562:
.LBE7568:
.LBB7569:
.LBB7570:
	.loc 18 237 0
	lwz 9,5236(31)
	cmpwi 7,9,0
	beq- 7,.L387
	.loc 18 238 0
	li 0,0
	stw 0,0(9)
.L387:
.LVL813:
.LBE7570:
.LBE7569:
.LBB7571:
.LBB7572:
	.loc 18 237 0
	lwz 9,5232(31)
	cmpwi 7,9,0
	beq- 7,.L388
	.loc 18 238 0
	li 0,0
	stw 0,0(9)
.L388:
.LBE7572:
.LBE7571:
	.loc 4 1525 0
	lis 9,gameLocal@ha
	.loc 4 1527 0
	li 0,0
	.loc 4 1525 0
	la 9,gameLocal@l(9)
	.loc 4 1526 0
	li 11,0
	.loc 4 1525 0
	addis 9,9,0x25
	lwz 10,2004(9)
	.loc 4 1526 0
	stw 11,4012(31)
	.loc 4 1525 0
	stw 10,4008(31)
	.loc 4 1527 0
	stw 0,4020(31)
	.loc 4 1528 0
	stw 0,4016(31)
	.loc 4 1529 0
	stw 11,4056(31)
.LVL814:
.LBB7573:
.LBB7574:
	.loc 6 416 0
	stw 0,3984(31)
	stw 0,3980(31)
	stw 0,3976(31)
.LVL815:
.LBE7574:
.LBE7573:
.LBB7575:
.LBB7576:
	stw 0,4048(31)
	stw 0,4044(31)
	stw 0,4040(31)
.LBE7576:
.LBE7575:
	.loc 4 1532 0
	lwz 0,2004(9)
	stw 0,4052(31)
	.loc 4 1533 0
	lwz 0,20(1)
	lwz 30,8(1)
	mtlr 0
	lwz 31,12(1)
.LVL816:
	addi 1,1,16
.LCFI111:
	.cfi_def_cfa_offset 0
	.cfi_restore 31
	.cfi_restore 30
	blr
	.cfi_endproc
.LFE2879:
	.size	_ZN4idAI8StopMoveE12moveStatus_t, .-_ZN4idAI8StopMoveE12moveStatus_t
	.align 2
	.globl _ZN4idAI20DirectMoveToPositionERK6idVec3
	.type	_ZN4idAI20DirectMoveToPositionERK6idVec3, @function
_ZN4idAI20DirectMoveToPositionERK6idVec3:
.LFB2882:
	.loc 4 1596 0
	.cfi_startproc
.LVL817:
	mflr 0
	stwu 1,-48(1)
.LCFI112:
	.cfi_def_cfa_offset 48
	.cfi_register 65, 0
	stw 30,40(1)
	mr 30,4
	.cfi_offset 30, -8
	stw 31,44(1)
	mr 31,3
	.cfi_offset 31, -4
	stw 0,52(1)
	stw 29,36(1)
.LBB7602:
	.loc 4 1597 0
	lwz 5,3956(3)
	.cfi_offset 29, -12
	.cfi_offset 65, 4
	bl _ZNK4idAI10ReachedPosERK6idVec313moveCommand_t
.LVL818:
	cmpwi 0,3,0
	bne- 0,.L395
.LVL819:
.LBB7603:
.LBB7604:
	.loc 6 424 0
	lwz 0,0(30)
.LBE7604:
.LBE7603:
	.loc 4 1606 0
	lis 11,gameLocal+2426836@ha
.LBB7608:
.LBB7609:
	.loc 18 237 0
	lwz 9,5208(31)
.LBE7609:
.LBE7608:
.LBB7612:
.LBB7605:
	.loc 6 424 0
	stw 0,3964(31)
.LBE7605:
.LBE7612:
.LBB7613:
.LBB7610:
	.loc 18 237 0
	cmpwi 7,9,0
.LBE7610:
.LBE7613:
.LBB7614:
.LBB7606:
	.loc 6 425 0
	lwz 0,4(30)
	stw 0,3968(31)
	.loc 6 426 0
	lwz 0,8(30)
.LBE7606:
.LBE7614:
.LBB7615:
.LBB7616:
	.loc 7 606 0
	stw 3,3988(31)
.LBE7616:
.LBE7615:
.LBB7617:
.LBB7607:
	.loc 6 426 0
	stw 0,3972(31)
.LVL820:
.LBE7607:
.LBE7617:
	.loc 4 1604 0
	li 0,10
	stw 0,3956(31)
	.loc 4 1605 0
	li 0,1
	stw 0,3960(31)
	.loc 4 1607 0
	lwz 0,4496(31)
	.loc 4 1606 0
	lwz 11,gameLocal+2426836@l(11)
	.loc 4 1607 0
	stw 0,4016(31)
.LVL821:
	.loc 4 1606 0
	stw 11,4008(31)
.LBB7618:
.LBB7611:
	.loc 18 237 0
	beq- 7,.L392
	.loc 18 238 0
	stw 3,0(9)
.L392:
.LVL822:
.LBE7611:
.LBE7618:
.LBB7619:
.LBB7620:
	.loc 18 237 0
	lwz 9,5240(31)
	cmpwi 7,9,0
	beq- 7,.L393
	.loc 18 238 0
	li 0,0
	stw 0,0(9)
.L393:
.LVL823:
.LBE7620:
.LBE7619:
.LBB7621:
.LBB7622:
	.loc 18 237 0
	lwz 9,5220(31)
	cmpwi 7,9,0
	beq- 7,.L394
	.loc 18 238 0
	li 0,1
	stw 0,0(9)
.L394:
.LBE7622:
.LBE7621:
.LBB7623:
	.loc 4 1612 0
	lwz 0,3952(31)
	cmpwi 7,0,3
	beq- 7,.L396
.LBE7623:
.LBE7602:
	.loc 4 1620 0
	lwz 0,52(1)
	li 3,1
	lwz 29,36(1)
	mtlr 0
	lwz 30,40(1)
.LVL824:
	lwz 31,44(1)
.LVL825:
	addi 1,1,48
	.cfi_remember_state
.LCFI113:
	.cfi_def_cfa_offset 0
	.cfi_restore 31
	.cfi_restore 30
	.cfi_restore 29
	blr
.LVL826:
.L395:
.LCFI114:
	.cfi_restore_state
.LBB7648:
	.loc 4 1598 0
	mr 3,31
	li 4,0
	bl _ZN4idAI8StopMoveE12moveStatus_t
.LBE7648:
	.loc 4 1620 0
	lwz 0,52(1)
	lwz 29,36(1)
	li 3,1
	mtlr 0
	lwz 30,40(1)
.LVL827:
	lwz 31,44(1)
.LVL828:
	addi 1,1,48
	.cfi_remember_state
	.cfi_restore 29
	.cfi_restore 30
	.cfi_restore 31
.LCFI115:
	.cfi_def_cfa_offset 0
	blr
.LVL829:
.L396:
.LCFI116:
	.cfi_restore_state
.LBB7649:
.LBB7647:
.LBB7624:
	.loc 4 1613 0
	addi 29,31,4216
	li 4,0
	mr 3,29
	bl _ZNK15idPhysics_Actor9GetOriginEi
.LVL830:
.LBB7625:
.LBB7626:
	.loc 6 431 0
	lfs 11,4(30)
	lfs 13,4(3)
.LBE7626:
.LBE7625:
	.loc 4 1616 0
	addi 4,1,8
.LBB7631:
.LBB7627:
	.loc 6 431 0
	lfs 0,0(3)
.LBE7627:
.LBE7631:
	.loc 4 1616 0
	li 5,0
.LBB7632:
.LBB7628:
	.loc 6 431 0
	fsubs 11,11,13
	lfs 10,0(30)
	lfs 13,8(3)
.LBE7628:
.LBE7632:
	.loc 4 1616 0
	mr 3,29
.LVL831:
.LBB7633:
.LBB7629:
	.loc 6 431 0
	fsubs 10,10,0
	lfs 12,8(30)
.LBE7629:
.LBE7633:
.LBB7634:
.LBB7635:
	.loc 6 649 0
	fmuls 0,11,11
.LBE7635:
.LBE7634:
.LBB7642:
.LBB7630:
	.loc 6 431 0
	fsubs 12,12,13
.LVL832:
	.loc 6 649 0
	fmadds 0,10,10,0
	fmadds 0,12,12,0
	stfs 0,24(1)
.LVL833:
.LBE7630:
.LBE7642:
.LBB7643:
.LBB7640:
.LBB7636:
.LBB7637:
	.loc 8 270 0
	lwz 0,24(1)
.LVL834:
	.loc 8 276 0
	rlwinm 11,0,9,24,31
	rlwinm 9,0,19,21,29
	subfic 0,11,380
	lis 11,_ZN6idMath5iSqrtE@ha
	la 11,_ZN6idMath5iSqrtE@l(11)
	rlwinm 0,0,22,0,8
	lwzx 9,11,9
	.loc 8 275 0
	lis 11,.LC15@ha
	lfs 6,.LC15@l(11)
	.loc 8 276 0
	or 0,0,9
	.loc 8 278 0
	lis 9,.LC63@ha
	.loc 8 277 0
	stw 0,28(1)
	.loc 8 275 0
	fmuls 6,0,6
.LVL835:
	.loc 8 278 0
	lfs 7,.LC63@l(9)
	.loc 8 277 0
	lfs 0,28(1)
.LVL836:
	.loc 4 1596 0
	fneg 6,6
.LVL837:
	.loc 8 277 0
	fmr 8,0
.LVL838:
.LBE7637:
.LBE7636:
.LBE7640:
.LBE7643:
	.loc 4 1615 0
	lfs 0,4496(31)
.LVL839:
.LBB7644:
.LBB7641:
.LBB7639:
.LBB7638:
	.loc 8 278 0
	fmul 9,8,8
	fmadd 9,6,9,7
	fmul 9,8,9
.LVL840:
	.loc 8 279 0
	fmul 13,9,9
	fmadd 13,6,13,7
.LVL841:
	fmul 13,9,13
.LVL842:
	.loc 8 280 0
	frsp 13,13
.LVL843:
.LBE7638:
.LBE7639:
	.loc 6 651 0
	fmuls 10,10,13
.LVL844:
	.loc 6 652 0
	fmuls 11,11,13
.LVL845:
	.loc 6 653 0
	fmuls 13,12,13
.LBE7641:
.LBE7644:
.LBB7645:
.LBB7646:
	.loc 6 489 0
	fmuls 10,0,10
	.loc 6 490 0
	fmuls 11,0,11
	.loc 6 491 0
	fmuls 0,0,13
	.loc 6 489 0
	stfs 10,8(1)
	.loc 6 490 0
	stfs 11,12(1)
	.loc 6 491 0
	stfs 0,16(1)
.LBE7646:
.LBE7645:
	.loc 4 1616 0
	bl _ZN17idPhysics_Monster17SetLinearVelocityERK6idVec3i
.LVL846:
.LBE7624:
.LBE7647:
.LBE7649:
	.loc 4 1620 0
	lwz 0,52(1)
	li 3,1
	lwz 29,36(1)
	mtlr 0
	lwz 30,40(1)
.LVL847:
	lwz 31,44(1)
.LVL848:
	addi 1,1,48
	.cfi_restore 29
	.cfi_restore 30
	.cfi_restore 31
.LCFI117:
	.cfi_def_cfa_offset 0
	blr
	.cfi_endproc
.LFE2882:
	.size	_ZN4idAI20DirectMoveToPositionERK6idVec3, .-_ZN4idAI20DirectMoveToPositionERK6idVec3
	.align 2
	.globl _ZN4idAI17MoveToEnemyHeightEv
	.type	_ZN4idAI17MoveToEnemyHeightEv, @function
_ZN4idAI17MoveToEnemyHeightEv:
.LFB2883:
	.loc 4 1627 0
	.cfi_startproc
.LVL849:
	mflr 0
	stwu 1,-56(1)
.LCFI118:
	.cfi_def_cfa_offset 56
	.cfi_register 65, 0
	stw 30,40(1)
.LBB7650:
.LBB7651:
.LBB7652:
	.loc 7 635 0
	lis 30,gameLocal@ha
	.cfi_offset 30, -16
.LBE7652:
.LBE7651:
.LBE7650:
	.loc 4 1627 0
	stw 31,44(1)
.LBB7675:
.LBB7656:
.LBB7653:
	.loc 7 635 0
	la 30,gameLocal@l(30)
.LBE7653:
.LBE7656:
.LBE7675:
	.loc 4 1627 0
	stw 0,60(1)
	mr 31,3
	.cfi_offset 65, 4
	.cfi_offset 31, -12
.LVL850:
	stfd 31,48(1)
	stw 29,36(1)
.LBB7676:
.LBB7657:
.LBB7654:
	.loc 7 634 0
	lwz 0,5120(3)
	rlwinm 9,0,0,20,31
.LVL851:
	.loc 7 635 0
	srawi 0,0,12
	addi 11,9,4228
	slwi 11,11,2
	add 11,30,11
	lwz 11,4(11)
	cmpw 7,11,0
	beq- 7,.L404
	.cfi_offset 29, -20
	.cfi_offset 63, -8
.LVL852:
.L398:
.LBE7654:
.LBE7657:
	.loc 4 1631 0
	mr 3,31
.LVL853:
	li 4,3
	bl _ZN4idAI8StopMoveE12moveStatus_t
	.loc 4 1632 0
	li 3,0
.L400:
.LBE7676:
	.loc 4 1646 0
	lwz 0,60(1)
	lwz 29,36(1)
	mtlr 0
	lwz 30,40(1)
	lwz 31,44(1)
.LVL854:
	lfd 31,48(1)
	addi 1,1,56
	.cfi_remember_state
.LCFI119:
	.cfi_def_cfa_offset 0
	.cfi_restore 63
	.cfi_restore 31
	.cfi_restore 30
	.cfi_restore 29
	blr
.LVL855:
.L404:
.LCFI120:
	.cfi_restore_state
.LBB7677:
.LBB7658:
.LBB7655:
	.loc 7 636 0
	addi 9,9,132
.LVL856:
	slwi 9,9,2
.LVL857:
	add 9,30,9
	lwz 29,4(9)
.LBE7655:
.LBE7658:
	.loc 4 1630 0
	cmpwi 7,29,0
	beq- 7,.L398
	.loc 4 1630 0 is_stmt 0 discriminator 1
	lwz 0,3952(3)
	cmpwi 7,0,3
	bne+ 7,.L398
	.loc 4 1635 0 is_stmt 1
	addi 3,1,8
.LVL858:
	mr 4,29
	lfs 31,5132(31)
	bl _ZNK7idActor9EyeOffsetEv
	lwz 0,4512(31)
	lis 9,.LC65@ha
	lfs 0,.LC65@l(9)
	.loc 4 1639 0
	addis 10,30,0x25
	.loc 4 1635 0
	xoris 0,0,0x8000
	.loc 4 1637 0
	li 8,4
	.loc 4 1635 0
	stw 0,28(1)
	lis 0,0x4330
	stw 0,24(1)
	lfd 13,24(1)
.LBB7659:
.LBB7660:
	.loc 18 237 0
	lwz 11,5208(31)
.LBE7660:
.LBE7659:
	.loc 4 1635 0
	fsub 13,13,0
	lfs 0,16(1)
.LBB7663:
.LBB7661:
	.loc 18 237 0
	cmpwi 7,11,0
.LBE7661:
.LBE7663:
	.loc 4 1635 0
	fadds 0,31,0
	frsp 13,13
	fadds 0,0,13
	stfs 0,3972(31)
.LVL859:
.LBB7664:
.LBB7665:
	.loc 7 608 0
	lwz 9,4(29)
	addi 0,9,4228
	slwi 0,0,2
	add 30,30,0
	lwz 0,4(30)
.LBE7665:
.LBE7664:
	.loc 4 1637 0
	stw 8,3956(31)
.LBB7668:
.LBB7666:
	.loc 7 608 0
	slwi 0,0,12
	or 9,0,9
.LBE7666:
.LBE7668:
	.loc 4 1638 0
	li 0,1
.LBB7669:
.LBB7667:
	.loc 7 608 0
	stw 9,3988(31)
.LBE7667:
.LBE7669:
	.loc 4 1640 0
	li 9,0
	.loc 4 1638 0
	stw 0,3960(31)
	.loc 4 1639 0
	lwz 0,2004(10)
	.loc 4 1640 0
	stw 9,4016(31)
.LVL860:
	.loc 4 1639 0
	stw 0,4008(31)
.LBB7670:
.LBB7662:
	.loc 18 237 0
	beq- 7,.L401
	.loc 18 238 0
	li 0,0
	stw 0,0(11)
.L401:
.LVL861:
.LBE7662:
.LBE7670:
.LBB7671:
.LBB7672:
	.loc 18 237 0
	lwz 9,5240(31)
	cmpwi 7,9,0
	beq- 7,.L402
	.loc 18 238 0
	li 0,0
	stw 0,0(9)
.L402:
.LVL862:
.LBE7672:
.LBE7671:
.LBB7673:
.LBB7674:
	.loc 18 237 0
	lwz 9,5220(31)
	.loc 4 1645 0
	li 3,1
	.loc 18 237 0
	cmpwi 7,9,0
	beq- 7,.L400
	.loc 18 238 0
	li 0,0
	stw 0,0(9)
.LBE7674:
.LBE7673:
.LBE7677:
	.loc 4 1646 0
	lwz 0,60(1)
	lwz 29,36(1)
.LVL863:
	mtlr 0
	lwz 30,40(1)
	lwz 31,44(1)
.LVL864:
	lfd 31,48(1)
	addi 1,1,56
	.cfi_restore 29
	.cfi_restore 30
	.cfi_restore 31
	.cfi_restore 63
.LCFI121:
	.cfi_def_cfa_offset 0
	blr
	.cfi_endproc
.LFE2883:
	.size	_ZN4idAI17MoveToEnemyHeightEv, .-_ZN4idAI17MoveToEnemyHeightEv
	.align 2
	.globl _ZN4idAI14MoveOutOfRangeEP8idEntityf
	.type	_ZN4idAI14MoveOutOfRangeEP8idEntityf, @function
_ZN4idAI14MoveOutOfRangeEP8idEntityf:
.LFB2886:
	.loc 4 1796 0
	.cfi_startproc
.LVL865:
	mflr 0
	stwu 1,-176(1)
.LCFI122:
	.cfi_def_cfa_offset 176
	.cfi_register 65, 0
	stfd 31,168(1)
	fmr 31,1
	.cfi_offset 63, -8
	stw 30,160(1)
	mr 30,4
	.cfi_offset 30, -16
	stw 31,164(1)
	mr 31,3
	.cfi_offset 31, -12
	stw 0,180(1)
	stw 26,144(1)
	stw 27,148(1)
	stw 28,152(1)
	stw 29,156(1)
.LBB7678:
	.loc 4 1803 0
	lwz 0,3944(3)
	.cfi_offset 29, -20
	.cfi_offset 28, -24
	.cfi_offset 27, -28
	.cfi_offset 26, -32
	.cfi_offset 65, 4
	cmpwi 7,0,0
	beq- 7,.L421
	.loc 4 1803 0 is_stmt 0 discriminator 1
	cmpwi 7,4,0
	beq- 7,.L421
	.loc 4 1809 0 is_stmt 1
	li 4,0
.LVL866:
	addi 3,3,4216
.LVL867:
	bl _ZNK15idPhysics_Actor9GetOriginEi
.LVL868:
	.loc 4 1810 0
	lis 9,.LC78@ha
	lfs 1,.LC78@l(9)
	mr 4,3
	.loc 4 1809 0
	mr 28,3
.LVL869:
	.loc 4 1810 0
	mr 3,31
.LVL870:
	bl _ZNK4idAI21PointReachableAreaNumERK6idVec3f
.LVL871:
.LBB7679:
.LBB7680:
	.loc 7 635 0
	lis 29,gameLocal@ha
.LBE7680:
.LBE7679:
	.loc 4 1810 0
	mr 26,3
.LVL872:
	.loc 4 1813 0
	mr 3,30
.LVL873:
	bl _ZNK8idEntity10GetPhysicsEv
	li 4,-1
	lwz 9,0(3)
.LBB7690:
.LBB7681:
	.loc 7 635 0
	la 29,gameLocal@l(29)
.LBE7681:
.LBE7690:
	.loc 4 1813 0
	lwz 0,60(9)
	mtctr 0
	bctrl
.LVL874:
.LBB7691:
.LBB7682:
	.loc 7 634 0
	lwz 0,5120(31)
.LBE7682:
.LBE7691:
.LBB7692:
.LBB7693:
.LBB7694:
	.loc 6 424 0
	lwz 6,0(3)
.LBE7694:
.LBE7693:
.LBE7692:
.LBB7705:
.LBB7683:
	.loc 7 634 0
	rlwinm 9,0,0,20,31
	.loc 7 635 0
	srawi 0,0,12
	addi 11,9,4228
.LBE7683:
.LBE7705:
.LBB7706:
.LBB7700:
.LBB7695:
	.loc 6 425 0
	lwz 7,4(3)
.LBE7695:
.LBE7700:
.LBE7706:
.LBB7707:
.LBB7684:
	.loc 7 635 0
	slwi 11,11,2
.LBE7684:
.LBE7707:
.LBB7708:
.LBB7701:
.LBB7696:
	.loc 6 426 0
	lwz 8,8(3)
.LBE7696:
.LBE7701:
.LBE7708:
.LBB7709:
.LBB7685:
	.loc 7 635 0
	add 11,29,11
.LBE7685:
.LBE7709:
.LBB7710:
.LBB7702:
.LBB7697:
	.loc 6 424 0
	lwz 10,12(3)
.LBE7697:
.LBE7702:
.LBE7710:
.LBB7711:
.LBB7686:
	.loc 7 635 0
	lwz 11,4(11)
.LBE7686:
.LBE7711:
.LBB7712:
.LBB7703:
.LBB7698:
	.loc 6 424 0
	stw 6,64(1)
.LBE7698:
.LBE7703:
.LBE7712:
.LBB7713:
.LBB7687:
	.loc 7 635 0
	cmpw 7,11,0
.LBE7687:
.LBE7713:
.LBB7714:
.LBB7704:
.LBB7699:
	.loc 6 425 0
	lwz 11,16(3)
	.loc 6 426 0
	lwz 0,20(3)
	.loc 6 425 0
	stw 7,68(1)
	.loc 6 426 0
	stw 8,72(1)
.LVL875:
	.loc 6 424 0
	stw 10,76(1)
	.loc 6 425 0
	stw 11,80(1)
	.loc 6 426 0
	stw 0,84(1)
.LVL876:
.LBE7699:
.LBE7704:
.LBE7714:
.LBB7715:
.LBB7688:
	.loc 7 635 0
	beq- 7,.L422
.LVL877:
.L409:
.LBE7688:
.LBE7715:
	.loc 4 1818 0
	mr 3,30
.LVL878:
	bl _ZNK8idEntity10GetPhysicsEv
	li 4,0
	lwz 9,0(3)
	lwz 0,132(9)
	mtctr 0
	bctrl
.LVL879:
.LBB7716:
.LBB7717:
	.loc 6 424 0
	lwz 11,0(3)
	.loc 6 425 0
	lwz 9,4(3)
	.loc 6 426 0
	lwz 0,8(3)
	.loc 6 424 0
	stw 11,16(1)
	.loc 6 425 0
	stw 9,20(1)
	.loc 6 426 0
	stw 0,24(1)
.LVL880:
.L410:
.LBE7717:
.LBE7716:
	.loc 4 1821 0
	fmr 1,31
	addi 27,1,44
	mr 3,27
	addi 4,1,16
	bl _ZN23idAASFindAreaOutOfRangeC1ERK6idVec3f
	.loc 4 1822 0
	lwz 9,4(28)
	lwz 0,8(28)
	addi 4,1,28
	lwz 11,0(28)
	mr 5,26
	lwz 3,3944(31)
	addi 6,1,120
	stw 11,120(1)
	addi 7,1,16
	stw 9,124(1)
	li 10,1
	stw 0,128(1)
	lwz 9,0(3)
	lwz 8,3948(31)
	stw 27,8(1)
	lwz 0,124(9)
	addi 9,1,64
	mtctr 0
	bctrl
	cmpwi 7,3,0
	beq- 7,.L421
	.loc 4 1828 0
	lwz 5,3956(31)
	mr 3,31
	addi 4,1,32
	bl _ZNK4idAI10ReachedPosERK6idVec313moveCommand_t
	cmpwi 0,3,0
	bne- 0,.L423
.LVL881:
.LBB7718:
.LBB7719:
	.loc 6 424 0
	lwz 0,32(1)
.LBE7719:
.LBE7718:
.LBB7722:
.LBB7723:
	.loc 18 237 0
	lwz 11,5208(31)
.LBE7723:
.LBE7722:
.LBB7726:
.LBB7720:
	.loc 6 424 0
	stw 0,3964(31)
	.loc 6 425 0
	lwz 0,36(1)
.LBE7720:
.LBE7726:
.LBB7727:
.LBB7724:
	.loc 18 237 0
	cmpwi 7,11,0
.LBE7724:
.LBE7727:
.LBB7728:
.LBB7721:
	.loc 6 425 0
	stw 0,3968(31)
	.loc 6 426 0
	lwz 0,40(1)
	stw 0,3972(31)
.LBE7721:
.LBE7728:
	.loc 4 1834 0
	lwz 0,28(1)
	stw 0,4004(31)
.LVL882:
	.loc 4 1839 0
	lwz 0,4496(31)
.LBB7729:
.LBB7730:
	.loc 7 608 0
	lwz 9,4(30)
	addi 10,9,4228
	slwi 10,10,2
	add 10,29,10
.LBE7730:
.LBE7729:
	.loc 4 1840 0
	addis 29,29,0x25
.LBB7734:
.LBB7731:
	.loc 7 608 0
	lwz 10,4(10)
.LBE7731:
.LBE7734:
	.loc 4 1838 0
	stfs 31,4020(31)
.LBB7735:
.LBB7732:
	.loc 7 608 0
	slwi 10,10,12
.LBE7732:
.LBE7735:
	.loc 4 1839 0
	stw 0,4016(31)
.LBB7736:
.LBB7733:
	.loc 7 608 0
	or 9,10,9
	stw 9,3988(31)
.LBE7733:
.LBE7736:
	.loc 4 1836 0
	li 9,6
	stw 9,3956(31)
	.loc 4 1837 0
	li 9,1
	stw 9,3960(31)
	.loc 4 1840 0
	lwz 0,2004(29)
	stw 0,4008(31)
.LVL883:
.LBB7737:
.LBB7725:
	.loc 18 237 0
	beq- 7,.L413
	.loc 18 238 0
	stw 3,0(11)
.L413:
.LVL884:
.LBE7725:
.LBE7737:
.LBB7738:
.LBB7739:
	.loc 18 237 0
	lwz 9,5240(31)
	cmpwi 7,9,0
	beq- 7,.L414
	.loc 18 238 0
	li 0,0
	stw 0,0(9)
.L414:
.LVL885:
.LBE7739:
.LBE7738:
.LBB7740:
.LBB7741:
	.loc 18 237 0
	lwz 9,5220(31)
	.loc 4 1845 0
	li 3,1
	.loc 18 237 0
	cmpwi 7,9,0
	beq- 7,.L415
	.loc 18 238 0
	stw 3,0(9)
.LBE7741:
.LBE7740:
.LBE7678:
	.loc 4 1846 0
	lwz 0,180(1)
	lwz 26,144(1)
.LVL886:
	mtlr 0
	lwz 27,148(1)
	lwz 28,152(1)
.LVL887:
	lwz 29,156(1)
	lwz 30,160(1)
.LVL888:
	lwz 31,164(1)
.LVL889:
	lfd 31,168(1)
.LVL890:
	addi 1,1,176
	.cfi_remember_state
	.cfi_restore 26
	.cfi_restore 27
	.cfi_restore 28
	.cfi_restore 29
	.cfi_restore 30
	.cfi_restore 31
	.cfi_restore 63
.LCFI123:
	.cfi_def_cfa_offset 0
	blr
.LVL891:
.L421:
.LCFI124:
	.cfi_restore_state
.LBB7747:
	.loc 4 1823 0
	mr 3,31
	li 4,4
	bl _ZN4idAI8StopMoveE12moveStatus_t
.LVL892:
.LBB7742:
.LBB7743:
	.loc 18 237 0
	lwz 9,5240(31)
	.loc 4 1825 0
	li 3,0
	.loc 18 237 0
	cmpwi 7,9,0
	beq- 7,.L415
	.loc 18 238 0
	li 0,1
	stw 0,0(9)
.LVL893:
.L415:
.LBE7743:
.LBE7742:
.LBE7747:
	.loc 4 1846 0
	lwz 0,180(1)
	lwz 26,144(1)
	mtlr 0
	lwz 27,148(1)
	lwz 28,152(1)
	lwz 29,156(1)
	lwz 30,160(1)
.LVL894:
	lwz 31,164(1)
.LVL895:
	lfd 31,168(1)
.LVL896:
	addi 1,1,176
	.cfi_remember_state
.LCFI125:
	.cfi_def_cfa_offset 0
	.cfi_restore 63
	.cfi_restore 31
	.cfi_restore 30
	.cfi_restore 29
	.cfi_restore 28
	.cfi_restore 27
	.cfi_restore 26
	blr
.LVL897:
.L422:
.LCFI126:
	.cfi_restore_state
.LBB7748:
.LBB7744:
.LBB7689:
	.loc 7 636 0
	addi 9,9,132
.LVL898:
	slwi 9,9,2
.LVL899:
	add 9,29,9
.LBE7689:
.LBE7744:
	.loc 4 1815 0
	lwz 0,4(9)
	cmpw 7,30,0
	bne- 7,.L409
.LVL900:
.LBB7745:
.LBB7746:
	.loc 6 424 0
	lwz 11,5124(31)
	.loc 6 425 0
	lwz 9,5128(31)
	.loc 6 426 0
	lwz 0,5132(31)
	.loc 6 424 0
	stw 11,16(1)
	.loc 6 425 0
	stw 9,20(1)
	.loc 6 426 0
	stw 0,24(1)
	b .L410
.LVL901:
.L423:
.LBE7746:
.LBE7745:
	.loc 4 1829 0
	mr 3,31
	li 4,0
	bl _ZN4idAI8StopMoveE12moveStatus_t
	.loc 4 1830 0
	li 3,1
	b .L415
.LBE7748:
	.cfi_endproc
.LFE2886:
	.size	_ZN4idAI14MoveOutOfRangeEP8idEntityf, .-_ZN4idAI14MoveOutOfRangeEP8idEntityf
	.align 2
	.globl _ZN4idAI20MoveToAttackPositionEP8idEntityi
	.type	_ZN4idAI20MoveToAttackPositionEP8idEntityi, @function
_ZN4idAI20MoveToAttackPositionEP8idEntityi:
.LFB2897:
	.loc 4 1853 0
	.cfi_startproc
	.cfi_personality 0,__gxx_personality_v0
	.cfi_lsda 0,.LLSDA2897
.LVL902:
	mflr 0
	stwu 1,-288(1)
.LCFI127:
	.cfi_def_cfa_offset 288
	.cfi_register 65, 0
	stw 27,268(1)
	mr 27,5
	.cfi_offset 27, -20
	stw 30,280(1)
	mr 30,4
	.cfi_offset 30, -8
	stw 31,284(1)
	mr 31,3
	.cfi_offset 31, -4
	stw 0,292(1)
	stw 25,260(1)
	stw 26,264(1)
	stw 28,272(1)
	stw 29,276(1)
.LBB7749:
	.loc 4 1860 0
	lwz 0,3944(3)
	.cfi_offset 29, -12
	.cfi_offset 28, -16
	.cfi_offset 26, -24
	.cfi_offset 25, -28
	.cfi_offset 65, 4
	cmpwi 7,0,0
	beq- 7,.L425
	.loc 4 1860 0 is_stmt 0 discriminator 1
	cmpwi 7,4,0
	beq- 7,.L425
	.loc 4 1866 0 is_stmt 1
	addi 29,3,4216
	li 4,0
.LVL903:
	mr 3,29
.LVL904:
.LBB7750:
.LBB7751:
	.loc 7 635 0
	lis 28,gameLocal@ha
.LEHB26:
.LBE7751:
.LBE7750:
	.loc 4 1866 0
	bl _ZNK15idPhysics_Actor9GetOriginEi
.LVL905:
	.loc 4 1867 0
	lis 9,.LC78@ha
	lfs 1,.LC78@l(9)
	mr 4,3
	.loc 4 1866 0
	mr 26,3
.LVL906:
	.loc 4 1867 0
	mr 3,31
.LVL907:
	bl _ZNK4idAI21PointReachableAreaNumERK6idVec3f
.LVL908:
.LBB7761:
.LBB7752:
	.loc 7 635 0
	la 28,gameLocal@l(28)
.LBE7752:
.LBE7761:
	.loc 4 1867 0
	mr 25,3
.LVL909:
	.loc 4 1870 0
	mr 3,30
.LVL910:
	bl _ZNK8idEntity10GetPhysicsEv
	li 4,-1
	lwz 9,0(3)
	lwz 0,60(9)
	mtctr 0
	bctrl
.LVL911:
.LBB7762:
.LBB7753:
	.loc 7 634 0
	lwz 0,5120(31)
.LBE7753:
.LBE7762:
.LBB7763:
.LBB7764:
.LBB7765:
	.loc 6 424 0
	lwz 6,0(3)
.LBE7765:
.LBE7764:
.LBE7763:
.LBB7776:
.LBB7754:
	.loc 7 634 0
	rlwinm 9,0,0,20,31
	.loc 7 635 0
	srawi 0,0,12
	addi 11,9,4228
.LBE7754:
.LBE7776:
.LBB7777:
.LBB7771:
.LBB7766:
	.loc 6 425 0
	lwz 7,4(3)
.LBE7766:
.LBE7771:
.LBE7777:
.LBB7778:
.LBB7755:
	.loc 7 635 0
	slwi 11,11,2
.LBE7755:
.LBE7778:
.LBB7779:
.LBB7772:
.LBB7767:
	.loc 6 426 0
	lwz 8,8(3)
.LBE7767:
.LBE7772:
.LBE7779:
.LBB7780:
.LBB7756:
	.loc 7 635 0
	add 11,28,11
.LBE7756:
.LBE7780:
.LBB7781:
.LBB7773:
.LBB7768:
	.loc 6 424 0
	lwz 10,12(3)
.LBE7768:
.LBE7773:
.LBE7781:
.LBB7782:
.LBB7757:
	.loc 7 635 0
	lwz 11,4(11)
.LBE7757:
.LBE7782:
.LBB7783:
.LBB7774:
.LBB7769:
	.loc 6 424 0
	stw 6,44(1)
.LBE7769:
.LBE7774:
.LBE7783:
.LBB7784:
.LBB7758:
	.loc 7 635 0
	cmpw 7,11,0
.LBE7758:
.LBE7784:
.LBB7785:
.LBB7775:
.LBB7770:
	.loc 6 425 0
	lwz 11,16(3)
	.loc 6 426 0
	lwz 0,20(3)
	.loc 6 425 0
	stw 7,48(1)
	.loc 6 426 0
	stw 8,52(1)
.LVL912:
	.loc 6 424 0
	stw 10,56(1)
	.loc 6 425 0
	stw 11,60(1)
	.loc 6 426 0
	stw 0,64(1)
.LVL913:
.LBE7770:
.LBE7775:
.LBE7785:
.LBB7786:
.LBB7759:
	.loc 7 635 0
	beq- 7,.L439
.LVL914:
.L428:
.LBE7759:
.LBE7786:
	.loc 4 1875 0
	mr 3,30
.LVL915:
	bl _ZNK8idEntity10GetPhysicsEv
	li 4,0
	lwz 9,0(3)
	lwz 0,132(9)
	mtctr 0
	bctrl
.LVL916:
.LBB7787:
.LBB7788:
	.loc 6 424 0
	lwz 11,0(3)
	.loc 6 425 0
	lwz 9,4(3)
	.loc 6 426 0
	lwz 0,8(3)
	.loc 6 424 0
	stw 11,16(1)
	.loc 6 425 0
	stw 9,20(1)
	.loc 6 426 0
	stw 0,24(1)
.LVL917:
.L429:
.LBE7788:
.LBE7787:
	.loc 4 1878 0
	mr 3,29
	addi 29,1,92
	bl _ZNK15idPhysics_Actor14GetGravityAxisEv
.LBB7789:
.LBB7790:
	.loc 14 589 0
	mulli 0,27,12
	lwz 8,4580(31)
.LBE7790:
.LBE7789:
	.loc 4 1878 0
	mr 5,3
.LVL918:
	mr 4,31
	mr 3,29
	add 8,8,0
	mr 6,30
	addi 7,1,16
	bl _ZN23idAASFindAttackPositionC1EPK4idAIRK6idMat3P8idEntityRK6idVec3SA_
.LEHE26:
	.loc 4 1879 0
	lwz 9,4(26)
	lwz 0,8(26)
	addi 4,1,28
	lwz 11,0(26)
	mr 5,25
	lwz 3,3944(31)
	addi 6,1,232
	stw 11,232(1)
	addi 7,1,16
	stw 9,236(1)
	li 10,1
	stw 0,240(1)
	lwz 9,0(3)
	lwz 8,3948(31)
	stw 29,8(1)
	lwz 0,124(9)
	addi 9,1,44
	mtctr 0
.LEHB27:
	bctrl
.LEHE27:
	cmpwi 7,3,0
	beq- 7,.L440
.LVL919:
.LBB7791:
.LBB7792:
	.loc 6 424 0
	lwz 0,32(1)
.LBE7792:
.LBE7791:
.LBB7795:
.LBB7796:
	.loc 18 237 0
	lwz 11,5208(31)
.LBE7796:
.LBE7795:
.LBB7799:
.LBB7793:
	.loc 6 424 0
	stw 0,3964(31)
	.loc 6 425 0
	lwz 0,36(1)
.LBE7793:
.LBE7799:
.LBB7800:
.LBB7797:
	.loc 18 237 0
	cmpwi 7,11,0
.LBE7797:
.LBE7800:
.LBB7801:
.LBB7794:
	.loc 6 425 0
	stw 0,3968(31)
	.loc 6 426 0
	lwz 0,40(1)
	stw 0,3972(31)
.LBE7794:
.LBE7801:
	.loc 4 1886 0
	lwz 0,28(1)
	stw 0,4004(31)
.LVL920:
	.loc 4 1890 0
	lwz 0,4496(31)
.LBB7802:
.LBB7803:
	.loc 7 608 0
	lwz 9,4(30)
	addi 10,9,4228
	slwi 10,10,2
	add 10,28,10
.LBE7803:
.LBE7802:
	.loc 4 1891 0
	addis 28,28,0x25
.LBB7806:
.LBB7804:
	.loc 7 608 0
	lwz 10,4(10)
.LBE7804:
.LBE7806:
	.loc 4 1890 0
	stw 0,4016(31)
.LBB7807:
.LBB7805:
	.loc 7 608 0
	slwi 10,10,12
	or 9,10,9
	stw 9,3988(31)
.LBE7805:
.LBE7807:
	.loc 4 1888 0
	li 9,7
	stw 9,3956(31)
	.loc 4 1889 0
	li 9,1
	stw 9,3960(31)
	.loc 4 1891 0
	lwz 0,2004(28)
	.loc 4 1892 0
	stw 27,4056(31)
.LVL921:
	.loc 4 1891 0
	stw 0,4008(31)
.LBB7808:
.LBB7798:
	.loc 18 237 0
	beq- 7,.L432
	.loc 18 238 0
	li 0,0
	stw 0,0(11)
.L432:
.LVL922:
.LBE7798:
.LBE7808:
.LBB7809:
.LBB7810:
	.loc 18 237 0
	lwz 9,5240(31)
	cmpwi 7,9,0
	beq- 7,.L433
	.loc 18 238 0
	li 0,0
	stw 0,0(9)
.L433:
.LVL923:
.LBE7810:
.LBE7809:
.LBB7811:
.LBB7812:
	.loc 18 237 0
	lwz 9,5220(31)
	.loc 4 1897 0
	li 31,1
.LVL924:
	.loc 18 237 0
	cmpwi 7,9,0
	beq- 7,.L431
	.loc 18 238 0
	stw 31,0(9)
.LVL925:
.L431:
.LBE7812:
.LBE7811:
	.loc 4 1897 0
	mr 3,29
.LEHB28:
	bl _ZN23idAASFindAttackPositionD1Ev
.LVL926:
.L427:
.LBE7749:
	.loc 4 1898 0
	lwz 0,292(1)
	mr 3,31
	lwz 25,260(1)
	mtlr 0
	lwz 26,264(1)
	lwz 27,268(1)
.LVL927:
	lwz 28,272(1)
	lwz 29,276(1)
	lwz 30,280(1)
.LVL928:
	lwz 31,284(1)
	addi 1,1,288
	.cfi_remember_state
.LCFI128:
	.cfi_def_cfa_offset 0
	.cfi_restore 31
	.cfi_restore 30
	.cfi_restore 29
	.cfi_restore 28
	.cfi_restore 27
	.cfi_restore 26
	.cfi_restore 25
	blr
.LVL929:
.L425:
.LCFI129:
	.cfi_restore_state
.LBB7822:
	.loc 4 1861 0
	mr 3,31
.LVL930:
	li 4,4
.LVL931:
	bl _ZN4idAI8StopMoveE12moveStatus_t
.LEHE28:
.LVL932:
.LBB7813:
.LBB7814:
	.loc 18 237 0
	lwz 9,5240(31)
	.loc 4 1863 0
	li 31,0
.LVL933:
	.loc 18 237 0
	cmpwi 7,9,0
	beq- 7,.L427
	.loc 18 238 0
	li 0,1
.LBE7814:
.LBE7813:
.LBE7822:
	.loc 4 1898 0
	mr 3,31
.LBB7823:
.LBB7816:
.LBB7815:
	.loc 18 238 0
	stw 0,0(9)
.LBE7815:
.LBE7816:
.LBE7823:
	.loc 4 1898 0
	lwz 0,292(1)
	lwz 25,260(1)
	mtlr 0
	lwz 26,264(1)
	lwz 27,268(1)
.LVL934:
	lwz 28,272(1)
	lwz 29,276(1)
	lwz 30,280(1)
.LVL935:
	lwz 31,284(1)
	addi 1,1,288
	.cfi_remember_state
	.cfi_restore 25
	.cfi_restore 26
	.cfi_restore 27
	.cfi_restore 28
	.cfi_restore 29
	.cfi_restore 30
	.cfi_restore 31
.LCFI130:
	.cfi_def_cfa_offset 0
	blr
.LVL936:
.L439:
.LCFI131:
	.cfi_restore_state
.LBB7824:
.LBB7817:
.LBB7760:
	.loc 7 636 0
	addi 9,9,132
.LVL937:
	slwi 9,9,2
.LVL938:
	add 9,28,9
.LBE7760:
.LBE7817:
	.loc 4 1872 0
	lwz 0,4(9)
	cmpw 7,30,0
	bne- 7,.L428
.LVL939:
.LBB7818:
.LBB7819:
	.loc 6 424 0
	lwz 11,5124(31)
	.loc 6 425 0
	lwz 9,5128(31)
	.loc 6 426 0
	lwz 0,5132(31)
	.loc 6 424 0
	stw 11,16(1)
	.loc 6 425 0
	stw 9,20(1)
	.loc 6 426 0
	stw 0,24(1)
	b .L429
.LVL940:
.L440:
.LBE7819:
.LBE7818:
	.loc 4 1880 0
	mr 3,31
	li 4,4
.LEHB29:
	bl _ZN4idAI8StopMoveE12moveStatus_t
.LEHE29:
.LVL941:
.LBB7820:
.LBB7821:
	.loc 18 237 0
	lwz 9,5240(31)
	.loc 4 1882 0
	li 31,0
.LVL942:
	.loc 18 237 0
	cmpwi 7,9,0
	beq- 7,.L431
	.loc 18 238 0
	li 0,1
	stw 0,0(9)
	b .L431
.LVL943:
.L438:
	mr 31,3
.LVL944:
.LBE7821:
.LBE7820:
	.loc 4 1897 0
	mr 3,29
	bl _ZN23idAASFindAttackPositionD1Ev
	mr 3,31
.LEHB30:
	bl _Unwind_Resume
.LEHE30:
.LBE7824:
	.cfi_endproc
.LFE2897:
	.section	.gcc_except_table
.LLSDA2897:
	.byte	0xff
	.byte	0xff
	.byte	0x1
	.uleb128 .LLSDACSE2897-.LLSDACSB2897
.LLSDACSB2897:
	.uleb128 .LEHB26-.LFB2897
	.uleb128 .LEHE26-.LEHB26
	.uleb128 0
	.uleb128 0
	.uleb128 .LEHB27-.LFB2897
	.uleb128 .LEHE27-.LEHB27
	.uleb128 .L438-.LFB2897
	.uleb128 0
	.uleb128 .LEHB28-.LFB2897
	.uleb128 .LEHE28-.LEHB28
	.uleb128 0
	.uleb128 0
	.uleb128 .LEHB29-.LFB2897
	.uleb128 .LEHE29-.LEHB29
	.uleb128 .L438-.LFB2897
	.uleb128 0
	.uleb128 .LEHB30-.LFB2897
	.uleb128 .LEHE30-.LEHB30
	.uleb128 0
	.uleb128 0
.LLSDACSE2897:
	.section	".text"
	.size	_ZN4idAI20MoveToAttackPositionEP8idEntityi, .-_ZN4idAI20MoveToAttackPositionEP8idEntityi
	.align 2
	.globl _ZN4idAI11MoveToCoverEP8idEntityRK6idVec3
	.type	_ZN4idAI11MoveToCoverEP8idEntityRK6idVec3, @function
_ZN4idAI11MoveToCoverEP8idEntityRK6idVec3:
.LFB2899:
	.loc 4 1953 0
	.cfi_startproc
	.cfi_personality 0,__gxx_personality_v0
	.cfi_lsda 0,.LLSDA2899
.LVL945:
	mflr 0
	stwu 1,-168(1)
.LCFI132:
	.cfi_def_cfa_offset 168
	.cfi_register 65, 0
	stw 28,152(1)
	mr 28,5
	.cfi_offset 28, -16
	stw 30,160(1)
	mr 30,4
	.cfi_offset 30, -8
	stw 31,164(1)
	mr 31,3
	.cfi_offset 31, -4
	stw 0,172(1)
	stw 26,144(1)
	stw 27,148(1)
	stw 29,156(1)
.LBB7825:
	.loc 4 1959 0
	lwz 0,3944(3)
	.cfi_offset 29, -12
	.cfi_offset 27, -20
	.cfi_offset 26, -24
	.cfi_offset 65, 4
	cmpwi 7,0,0
	beq- 7,.L442
	.loc 4 1959 0 is_stmt 0 discriminator 1
	cmpwi 7,4,0
	beq- 7,.L442
	.loc 4 1965 0 is_stmt 1
	li 4,0
.LVL946:
	addi 3,3,4216
.LVL947:
.LEHB31:
	bl _ZNK15idPhysics_Actor9GetOriginEi
.LVL948:
	.loc 4 1966 0
	lis 9,.LC78@ha
	lfs 1,.LC78@l(9)
	.loc 4 1965 0
	mr 27,3
.LVL949:
	.loc 4 1966 0
	mr 4,3
	mr 3,31
.LVL950:
	bl _ZNK4idAI21PointReachableAreaNumERK6idVec3f
.LVL951:
	.loc 4 1971 0
	addi 29,1,32
	.loc 4 1966 0
	mr 26,3
.LVL952:
	.loc 4 1969 0
	mr 3,30
.LVL953:
	bl _ZNK8idEntity10GetPhysicsEv
	li 4,-1
	lwz 9,0(3)
	lwz 0,60(9)
	mtctr 0
	bctrl
.LVL954:
	.loc 4 1971 0
	mr 4,28
.LBB7826:
.LBB7827:
.LBB7828:
	.loc 6 424 0
	lwz 7,0(3)
	.loc 6 425 0
	lwz 8,4(3)
	.loc 6 426 0
	lwz 10,8(3)
	.loc 6 424 0
	lwz 11,12(3)
	.loc 6 425 0
	lwz 9,16(3)
	.loc 6 426 0
	lwz 0,20(3)
.LBE7828:
.LBE7827:
.LBE7826:
	.loc 4 1971 0
	mr 3,29
.LVL955:
.LBB7831:
.LBB7830:
.LBB7829:
	.loc 6 424 0
	stw 7,60(1)
	.loc 6 425 0
	stw 8,64(1)
	.loc 6 426 0
	stw 10,68(1)
.LVL956:
	.loc 6 424 0
	stw 11,72(1)
	.loc 6 425 0
	stw 9,76(1)
	.loc 6 426 0
	stw 0,80(1)
.LBE7829:
.LBE7830:
.LBE7831:
	.loc 4 1971 0
	bl _ZN14idAASFindCoverC1ERK6idVec3
.LEHE31:
	.loc 4 1972 0
	lwz 9,4(27)
	addi 4,1,16
	lwz 0,8(27)
	mr 5,26
	lwz 11,0(27)
	addi 6,1,120
	lwz 3,3944(31)
	mr 7,28
	stw 11,120(1)
	li 10,1
	stw 9,124(1)
	stw 0,128(1)
	lwz 9,0(3)
	lwz 8,3948(31)
	stw 29,8(1)
	lwz 0,124(9)
	addi 9,1,60
	mtctr 0
.LEHB32:
	bctrl
	cmpwi 7,3,0
	bne- 7,.L445
	.loc 4 1973 0
	mr 3,31
	li 4,4
	bl _ZN4idAI8StopMoveE12moveStatus_t
.LEHE32:
.LVL957:
.LBB7832:
.LBB7833:
	.loc 18 237 0
	lwz 9,5240(31)
	.loc 4 1975 0
	li 31,0
.LVL958:
	.loc 18 237 0
	cmpwi 7,9,0
	beq- 7,.L446
	.loc 18 238 0
	li 0,1
	stw 0,0(9)
.LVL959:
.L446:
.LBE7833:
.LBE7832:
	.loc 4 1994 0
	mr 3,29
.LEHB33:
	bl _ZN14idAASFindCoverD1Ev
.LEHE33:
.LVL960:
.L444:
.LBE7825:
	.loc 4 1995 0
	lwz 0,172(1)
	mr 3,31
	lwz 26,144(1)
	mtlr 0
	lwz 27,148(1)
	lwz 28,152(1)
.LVL961:
	lwz 29,156(1)
	lwz 30,160(1)
.LVL962:
	lwz 31,164(1)
	addi 1,1,168
	.cfi_remember_state
.LCFI133:
	.cfi_def_cfa_offset 0
	.cfi_restore 31
	.cfi_restore 30
	.cfi_restore 29
	.cfi_restore 28
	.cfi_restore 27
	.cfi_restore 26
	blr
.LVL963:
.L445:
.LCFI134:
	.cfi_restore_state
.LBB7862:
	.loc 4 1978 0
	lwz 5,3956(31)
	mr 3,31
	addi 4,1,20
.LEHB34:
	bl _ZNK4idAI10ReachedPosERK6idVec313moveCommand_t
.LEHE34:
	cmpwi 0,3,0
	bne- 0,.L457
.LVL964:
.LBB7834:
.LBB7835:
	.loc 6 424 0
	lwz 0,20(1)
.LBE7835:
.LBE7834:
.LBB7837:
.LBB7838:
	.loc 7 608 0
	lis 9,gameLocal@ha
	la 9,gameLocal@l(9)
.LBE7838:
.LBE7837:
.LBB7843:
.LBB7836:
	.loc 6 424 0
	stw 0,3964(31)
	.loc 6 425 0
	lwz 0,24(1)
	stw 0,3968(31)
	.loc 6 426 0
	lwz 0,28(1)
	stw 0,3972(31)
.LBE7836:
.LBE7843:
	.loc 4 1984 0
	lwz 0,16(1)
	stw 0,4004(31)
.LVL965:
.LBB7844:
.LBB7839:
	.loc 7 608 0
	lwz 11,4(30)
	addi 10,11,4228
	slwi 10,10,2
	add 10,9,10
.LBE7839:
.LBE7844:
	.loc 4 1988 0
	addis 9,9,0x25
.LBB7845:
.LBB7840:
	.loc 7 608 0
	lwz 0,4(10)
.LBE7840:
.LBE7845:
.LBB7846:
.LBB7847:
	.loc 18 237 0
	lwz 10,5208(31)
.LBE7847:
.LBE7846:
.LBB7850:
.LBB7841:
	.loc 7 608 0
	slwi 0,0,12
	or 11,0,11
.LBE7841:
.LBE7850:
	.loc 4 1986 0
	li 0,8
	stw 0,3956(31)
	.loc 4 1987 0
	li 0,1
	stw 0,3960(31)
.LBB7851:
.LBB7848:
	.loc 18 237 0
	cmpwi 7,10,0
.LBE7848:
.LBE7851:
.LBB7852:
.LBB7842:
	.loc 7 608 0
	stw 11,3988(31)
.LBE7842:
.LBE7852:
	.loc 4 1989 0
	lwz 0,4496(31)
	.loc 4 1988 0
	lwz 9,2004(9)
	.loc 4 1989 0
	stw 0,4016(31)
.LVL966:
	.loc 4 1988 0
	stw 9,4008(31)
.LBB7853:
.LBB7849:
	.loc 18 237 0
	beq- 7,.L448
	.loc 18 238 0
	stw 3,0(10)
.L448:
.LVL967:
.LBE7849:
.LBE7853:
.LBB7854:
.LBB7855:
	.loc 18 237 0
	lwz 9,5240(31)
	cmpwi 7,9,0
	beq- 7,.L449
	.loc 18 238 0
	li 0,0
	stw 0,0(9)
.L449:
.LVL968:
.LBE7855:
.LBE7854:
.LBB7856:
.LBB7857:
	.loc 18 237 0
	lwz 9,5220(31)
	.loc 4 1994 0
	li 31,1
.LVL969:
	.loc 18 237 0
	cmpwi 7,9,0
	beq- 7,.L446
	.loc 18 238 0
	stw 31,0(9)
	b .L446
.LVL970:
.L442:
.LBE7857:
.LBE7856:
	.loc 4 1960 0
	mr 3,31
.LVL971:
	li 4,4
.LEHB35:
	bl _ZN4idAI8StopMoveE12moveStatus_t
.LEHE35:
.LVL972:
.LBB7858:
.LBB7859:
	.loc 18 237 0
	lwz 9,5240(31)
	.loc 4 1962 0
	li 31,0
.LVL973:
	.loc 18 237 0
	cmpwi 7,9,0
	beq- 7,.L444
	.loc 18 238 0
	li 0,1
.LBE7859:
.LBE7858:
.LBE7862:
	.loc 4 1995 0
	mr 3,31
.LBB7863:
.LBB7861:
.LBB7860:
	.loc 18 238 0
	stw 0,0(9)
.LBE7860:
.LBE7861:
.LBE7863:
	.loc 4 1995 0
	lwz 0,172(1)
	lwz 26,144(1)
	mtlr 0
	lwz 27,148(1)
	lwz 28,152(1)
.LVL974:
	lwz 29,156(1)
	lwz 30,160(1)
.LVL975:
	lwz 31,164(1)
	addi 1,1,168
	.cfi_remember_state
	.cfi_restore 26
	.cfi_restore 27
	.cfi_restore 28
	.cfi_restore 29
	.cfi_restore 30
	.cfi_restore 31
.LCFI135:
	.cfi_def_cfa_offset 0
	blr
.LVL976:
.L457:
.LCFI136:
	.cfi_restore_state
.LBB7864:
	.loc 4 1979 0
	mr 3,31
	li 4,0
.LEHB36:
	bl _ZN4idAI8StopMoveE12moveStatus_t
.LEHE36:
	.loc 4 1980 0
	li 31,1
.LVL977:
	b .L446
.LVL978:
.L455:
	mr 31,3
.LVL979:
	.loc 4 1994 0
	mr 3,29
	bl _ZN14idAASFindCoverD1Ev
	mr 3,31
.LEHB37:
	bl _Unwind_Resume
.LEHE37:
.LBE7864:
	.cfi_endproc
.LFE2899:
	.section	.gcc_except_table
.LLSDA2899:
	.byte	0xff
	.byte	0xff
	.byte	0x1
	.uleb128 .LLSDACSE2899-.LLSDACSB2899
.LLSDACSB2899:
	.uleb128 .LEHB31-.LFB2899
	.uleb128 .LEHE31-.LEHB31
	.uleb128 0
	.uleb128 0
	.uleb128 .LEHB32-.LFB2899
	.uleb128 .LEHE32-.LEHB32
	.uleb128 .L455-.LFB2899
	.uleb128 0
	.uleb128 .LEHB33-.LFB2899
	.uleb128 .LEHE33-.LEHB33
	.uleb128 0
	.uleb128 0
	.uleb128 .LEHB34-.LFB2899
	.uleb128 .LEHE34-.LEHB34
	.uleb128 .L455-.LFB2899
	.uleb128 0
	.uleb128 .LEHB35-.LFB2899
	.uleb128 .LEHE35-.LEHB35
	.uleb128 0
	.uleb128 0
	.uleb128 .LEHB36-.LFB2899
	.uleb128 .LEHE36-.LEHB36
	.uleb128 .L455-.LFB2899
	.uleb128 0
	.uleb128 .LEHB37-.LFB2899
	.uleb128 .LEHE37-.LEHB37
	.uleb128 0
	.uleb128 0
.LLSDACSE2899:
	.section	".text"
	.size	_ZN4idAI11MoveToCoverEP8idEntityRK6idVec3, .-_ZN4idAI11MoveToCoverEP8idEntityRK6idVec3
	.align 2
	.globl _ZN4idAI15SlideToPositionERK6idVec3f
	.type	_ZN4idAI15SlideToPositionERK6idVec3f, @function
_ZN4idAI15SlideToPositionERK6idVec3f:
.LFB2900:
	.loc 4 2002 0
	.cfi_startproc
.LVL980:
	stwu 1,-56(1)
.LCFI137:
	.cfi_def_cfa_offset 56
	mflr 0
	stw 30,40(1)
	mr 30,4
	.cfi_offset 30, -16
	.cfi_register 65, 0
	.loc 4 2003 0
	li 4,0
.LVL981:
	.loc 4 2002 0
	stw 0,60(1)
	stfd 31,48(1)
	fmr 31,1
	.cfi_offset 63, -8
	.cfi_offset 65, 4
	stw 29,36(1)
.LBB7892:
.LBB7893:
	.loc 7 606 0
	li 29,0
	.cfi_offset 29, -20
.LBE7893:
.LBE7892:
	.loc 4 2002 0
	stw 31,44(1)
	.loc 4 2002 0
	mr 31,3
	.cfi_offset 31, -12
	.loc 4 2003 0
	bl _ZN4idAI8StopMoveE12moveStatus_t
.LVL982:
.LBB7895:
.LBB7896:
	.loc 6 424 0
	lwz 0,0(30)
.LBE7896:
.LBE7895:
	.loc 4 2010 0
	lis 9,_ZN6idMath8M_SEC2MSE@ha
.LBB7901:
.LBB7897:
	.loc 6 424 0
	stw 0,3964(31)
.LBE7897:
.LBE7901:
	.loc 4 2010 0
	lfs 0,_ZN6idMath8M_SEC2MSE@l(9)
	.loc 4 2009 0
	lis 9,gameLocal+2426836@ha
.LBB7902:
.LBB7898:
	.loc 6 425 0
	lwz 0,4(30)
.LBE7898:
.LBE7902:
	.loc 4 2010 0
	fmuls 1,31,0
.LBB7903:
.LBB7899:
	.loc 6 425 0
	stw 0,3968(31)
	.loc 6 426 0
	lwz 0,8(30)
.LBE7899:
.LBE7903:
	.loc 4 2010 0
	fctiwz 1,1
.LBB7904:
.LBB7894:
	.loc 7 606 0
	stw 29,3988(31)
.LBE7894:
.LBE7904:
.LBB7905:
.LBB7900:
	.loc 6 426 0
	stw 0,3972(31)
.LVL983:
.LBE7900:
.LBE7905:
	.loc 4 2007 0
	li 0,11
	stw 0,3956(31)
	.loc 4 2008 0
	li 0,1
	stw 0,3960(31)
	.loc 4 2009 0
	lwz 0,gameLocal+2426836@l(9)
	.loc 4 2010 0
	addi 9,1,16
	stfiwx 1,0,9
	.loc 4 2009 0
	stw 0,4008(31)
.LVL984:
	.loc 4 2010 0
	lwz 3,16(1)
	bl _ZN9idPhysics22SnapTimeToPhysicsFrameEi
.LBB7906:
.LBB7907:
	.loc 18 237 0
	lwz 9,5208(31)
.LBE7907:
.LBE7906:
	.loc 4 2010 0
	stw 3,4012(31)
.LVL985:
.LBB7909:
.LBB7908:
	.loc 18 237 0
	cmpwi 7,9,0
	beq- 7,.L459
	.loc 18 238 0
	stw 29,0(9)
.L459:
.LVL986:
.LBE7908:
.LBE7909:
.LBB7910:
.LBB7911:
	.loc 18 237 0
	lwz 9,5240(31)
	cmpwi 7,9,0
	beq- 7,.L460
	.loc 18 238 0
	li 0,0
	stw 0,0(9)
.L460:
.LVL987:
.LBE7911:
.LBE7910:
.LBB7912:
.LBB7913:
	.loc 18 237 0
	lwz 9,5220(31)
	cmpwi 7,9,0
	beq- 7,.L461
	.loc 18 238 0
	li 0,0
	stw 0,0(9)
.L461:
.LBE7913:
.LBE7912:
	.loc 4 2015 0
	lwz 0,4012(31)
	cmpwi 7,0,0
	ble- 7,.L462
	.loc 4 2016 0
	addi 3,31,4216
	li 4,0
	bl _ZNK15idPhysics_Actor9GetOriginEi
.LVL988:
	lwz 0,4012(31)
	lis 9,.LC65@ha
	xoris 0,0,0x8000
	lfs 0,.LC65@l(9)
	stw 0,12(1)
	lis 0,0x4330
	stw 0,8(1)
	lis 9,_ZN6idMath8M_MS2SECE@ha
	lfd 12,8(1)
.LBB7914:
.LBB7915:
	.loc 6 431 0
	lfs 8,0(30)
.LBE7915:
.LBE7914:
	.loc 4 2016 0
	fsub 12,12,0
	lfs 0,_ZN6idMath8M_MS2SECE@l(9)
.LBB7921:
.LBB7922:
	.loc 6 443 0
	lis 9,.LC0@ha
.LBE7922:
.LBE7921:
.LBB7926:
.LBB7916:
	.loc 6 431 0
	lfs 9,4(30)
.LBE7916:
.LBE7926:
.LBB7927:
.LBB7923:
	.loc 6 443 0
	lfs 13,.LC0@l(9)
.LBE7923:
.LBE7927:
	.loc 4 2016 0
	frsp 12,12
.LBB7928:
.LBB7917:
	.loc 6 431 0
	lfs 10,8(30)
	lfs 11,8(3)
.LBE7917:
.LBE7928:
	.loc 4 2017 0
	lwz 0,3952(31)
	.loc 4 2016 0
	fmuls 12,12,0
.LBB7929:
.LBB7918:
	.loc 6 431 0
	lfs 0,0(3)
	fsubs 11,10,11
.LBE7918:
.LBE7929:
	.loc 4 2017 0
	cmpwi 7,0,3
.LBB7930:
.LBB7919:
	.loc 6 431 0
	fsubs 0,8,0
.LBE7919:
.LBE7930:
.LBB7931:
.LBB7924:
	.loc 6 443 0
	fdivs 12,13,12
.LVL989:
.LBE7924:
.LBE7931:
.LBB7932:
.LBB7920:
	.loc 6 431 0
	lfs 13,4(3)
	fsubs 13,9,13
.LBE7920:
.LBE7932:
.LBB7933:
.LBB7925:
	.loc 6 444 0
	fmuls 0,0,12
	fmuls 13,13,12
	fmuls 12,11,12
.LVL990:
.LBE7925:
.LBE7933:
.LBB7934:
.LBB7935:
	.loc 6 424 0
	stfs 0,3976(31)
	.loc 6 425 0
	stfs 13,3980(31)
	.loc 6 426 0
	stfs 12,3984(31)
.LBE7935:
.LBE7934:
	.loc 4 2017 0
	beq- 7,.L465
	.loc 4 2018 0
	li 0,0
	stw 0,3984(31)
	stw 0,28(1)
	lfs 12,28(1)
.LVL991:
.L464:
.LBB7936:
.LBB7937:
	.loc 6 642 0
	fmuls 13,13,13
.LVL992:
.LBB7938:
.LBB7939:
	.loc 8 246 0
	lis 9,.LC15@ha
.LBE7939:
.LBE7938:
	.loc 6 642 0
	fmadds 0,0,0,13
.LVL993:
	fadds 0,12,0
	stfs 0,20(1)
.LVL994:
.LBB7942:
.LBB7940:
	.loc 8 246 0
	lfs 0,.LC15@l(9)
.LVL995:
	.loc 8 248 0
	lwz 9,20(1)
	.loc 8 246 0
	lfs 11,20(1)
	.loc 8 248 0
	srawi 0,9,1
	.loc 8 249 0
	lis 9,0x5f37
	ori 9,9,23007
	.loc 8 246 0
	fmuls 0,11,0
	.loc 8 249 0
	subf 9,0,9
	stw 9,24(1)
.LVL996:
	.loc 8 250 0
	lis 9,.LC63@ha
	.loc 4 2002 0
	fneg 0,0
	.loc 8 250 0
	lfs 13,.LC63@l(9)
	lfs 11,24(1)
	fmuls 12,11,11
	fmadds 0,0,12,13
.LVL997:
.LBE7940:
.LBE7942:
	.loc 6 643 0
	lfs 13,20(1)
.LBB7943:
.LBB7941:
	.loc 8 250 0
	fmuls 0,11,0
.LVL998:
.LBE7941:
.LBE7943:
	.loc 6 643 0
	fmuls 0,13,0
.LVL999:
.LBE7937:
.LBE7936:
	.loc 4 2020 0
	stfs 0,4016(31)
.LVL1000:
.L462:
	.loc 4 2024 0
	lwz 0,60(1)
	li 3,1
	lwz 29,36(1)
	mtlr 0
	lwz 30,40(1)
.LVL1001:
	lwz 31,44(1)
.LVL1002:
	lfd 31,48(1)
.LVL1003:
	addi 1,1,56
	.cfi_remember_state
.LCFI138:
	.cfi_def_cfa_offset 0
	.cfi_restore 63
	.cfi_restore 31
	.cfi_restore 30
	.cfi_restore 29
	blr
.LVL1004:
.L465:
.LCFI139:
	.cfi_restore_state
	.loc 4 2017 0
	fmuls 12,12,12
.LVL1005:
	b .L464
	.cfi_endproc
.LFE2900:
	.size	_ZN4idAI15SlideToPositionERK6idVec3f, .-_ZN4idAI15SlideToPositionERK6idVec3f
	.align 2
	.globl _ZNK4idAI8MoveDoneEv
	.type	_ZNK4idAI8MoveDoneEv, @function
_ZNK4idAI8MoveDoneEv:
.LFB2902:
	.loc 4 2056 0
	.cfi_startproc
.LVL1006:
	.loc 4 2057 0
	lwz 3,3956(3)
.LVL1007:
	.loc 4 2058 0
	cntlzw 3,3
	srwi 3,3,5
	blr
	.cfi_endproc
.LFE2902:
	.size	_ZNK4idAI8MoveDoneEv, .-_ZNK4idAI8MoveDoneEv
	.align 2
	.globl _ZN4idAI13StepDirectionEf
	.type	_ZN4idAI13StepDirectionEf, @function
_ZN4idAI13StepDirectionEf:
.LFB2903:
	.loc 4 2065 0
	.cfi_startproc
.LVL1008:
	mflr 0
	stwu 1,-232(1)
.LCFI140:
	.cfi_def_cfa_offset 232
	.cfi_register 65, 0
	stw 30,192(1)
.LBB7944:
	.loc 4 2070 0
	addi 4,1,104
.LBE7944:
	.loc 4 2065 0
	stw 0,236(1)
.LBB8050:
.LBB7945:
.LBB7946:
	.loc 12 109 0
	li 0,0
	.cfi_offset 65, 4
	.cfi_offset 30, -40
.LBE7946:
.LBE7945:
.LBE8050:
	.loc 4 2065 0
	stw 31,196(1)
	mr 31,3
	.cfi_offset 31, -36
	stfd 28,200(1)
.LBB8051:
.LBB7948:
.LBB7949:
	.loc 6 439 0
	lis 30,.LC80@ha
.LBE7949:
.LBE7948:
.LBE8051:
	.loc 4 2065 0
	stfd 29,208(1)
	stfd 30,216(1)
	stfd 31,224(1)
	stw 28,184(1)
	stw 29,188(1)
.LBB8052:
	.loc 4 2069 0
	stfs 1,4024(3)
.LVL1009:
	.loc 4 2070 0
	addi 3,1,92
.LVL1010:
.LBB7956:
.LBB7947:
	.loc 12 109 0
	stw 0,104(1)
	.loc 12 110 0
	stfs 1,108(1)
	.loc 12 111 0
	stw 0,112(1)
.LBE7947:
.LBE7956:
	.loc 4 2070 0
	.cfi_offset 29, -44
	.cfi_offset 28, -48
	.cfi_offset 63, -8
	.cfi_offset 62, -16
	.cfi_offset 61, -24
	.cfi_offset 60, -32
	bl _ZNK8idAngles9ToForwardEv
.LVL1011:
.LBB7957:
.LBB7958:
	.loc 6 424 0
	lwz 0,92(1)
.LBE7958:
.LBE7957:
	.loc 4 2072 0
	li 4,0
	addi 3,31,4216
.LBB7960:
.LBB7959:
	.loc 6 424 0
	stw 0,3976(31)
	.loc 6 425 0
	lwz 0,96(1)
	stw 0,3980(31)
	.loc 6 426 0
	lwz 0,100(1)
	stw 0,3984(31)
.LBE7959:
.LBE7960:
	.loc 4 2072 0
	bl _ZNK15idPhysics_Actor9GetOriginEi
.LVL1012:
	.loc 4 2074 0
	lwz 0,3952(31)
.LBB7961:
.LBB7952:
	.loc 6 439 0
	lfs 0,.LC80@l(30)
	lfs 12,3980(31)
.LBE7952:
.LBE7961:
	.loc 4 2074 0
	cmpwi 7,0,3
.LBB7962:
.LBB7953:
	.loc 6 439 0
	lfs 13,3984(31)
	lfs 11,3976(31)
	fmuls 12,12,0
	fmuls 13,13,0
.LBE7953:
.LBE7962:
.LBB7963:
.LBB7964:
	.loc 6 424 0
	lwz 11,0(3)
.LBE7964:
.LBE7963:
.LBB7967:
.LBB7954:
	.loc 6 439 0
	fmuls 0,11,0
.LBE7954:
.LBE7967:
.LBB7968:
.LBB7965:
	.loc 6 425 0
	lwz 9,4(3)
	.loc 6 426 0
	lwz 0,8(3)
	.loc 6 425 0
	stw 9,120(1)
.LBE7965:
.LBE7968:
	.loc 4 2074 0
	li 9,7
.LBB7969:
.LBB7966:
	.loc 6 424 0
	stw 11,116(1)
	.loc 6 426 0
	stw 0,124(1)
.LBE7966:
.LBE7969:
	.loc 4 2074 0
	lwz 4,3944(31)
.LVL1013:
.LBB7970:
.LBB7955:
.LBB7950:
.LBB7951:
	.loc 6 396 0
	stfs 0,80(1)
	.loc 6 397 0
	stfs 12,84(1)
	.loc 6 398 0
	stfs 13,88(1)
.LBE7951:
.LBE7950:
.LBE7955:
.LBE7970:
	.loc 4 2074 0
	beq- 7,.L489
.L468:
	.loc 4 2074 0 is_stmt 0 discriminator 3
	mr 3,31
.LVL1014:
	addi 5,1,116
	addi 6,1,80
	li 7,1000
	li 8,1000
	addi 10,1,128
	bl _ZN4idAI11PredictPathEPK8idEntityPK5idAASRK6idVec3S8_iiiR15predictedPath_s
.LVL1015:
	.loc 4 2076 0 is_stmt 1 discriminator 3
	lwz 9,172(1)
	cmpwi 7,9,0
	beq- 7,.L469
	.loc 4 2076 0 is_stmt 0 discriminator 1
	lwz 0,3956(31)
	cmpwi 7,0,3
	beq- 7,.L470
	.loc 4 2076 0 discriminator 4
	cmpwi 7,0,5
	beq- 7,.L470
.L469:
.LBB7971:
	.loc 4 2081 0 is_stmt 1
	lwz 0,3952(31)
	lwz 3,168(1)
	cmpwi 7,0,3
	beq- 7,.L480
.L472:
.LBE7971:
	.loc 4 2119 0
	cntlzw 3,3
	srwi 3,3,5
.L471:
.LBE8052:
	.loc 4 2120 0
	lwz 0,236(1)
	lwz 28,184(1)
	mtlr 0
	lwz 29,188(1)
	lwz 30,192(1)
	lwz 31,196(1)
.LVL1016:
	lfd 28,200(1)
	lfd 29,208(1)
	lfd 30,216(1)
	lfd 31,224(1)
	addi 1,1,232
	.cfi_remember_state
.LCFI141:
	.cfi_def_cfa_offset 0
	.cfi_restore 63
	.cfi_restore 62
	.cfi_restore 61
	.cfi_restore 60
	.cfi_restore 31
	.cfi_restore 30
	.cfi_restore 29
	.cfi_restore 28
	blr
.LVL1017:
.L470:
.LCFI142:
	.cfi_restore_state
.LBB8053:
.LBB8045:
.LBB8046:
	.loc 7 634 0 discriminator 3
	lwz 0,3988(31)
	.loc 7 635 0 discriminator 3
	lis 11,gameLocal@ha
	la 11,gameLocal@l(11)
	.loc 7 634 0 discriminator 3
	rlwinm 10,0,0,20,31
.LVL1018:
	.loc 7 635 0 discriminator 3
	srawi 0,0,12
	addi 8,10,4228
	slwi 8,8,2
	add 8,11,8
	lwz 8,4(8)
	cmpw 7,8,0
	bne+ 7,.L469
	.loc 7 636 0
	addi 10,10,132
.LVL1019:
.LBE8046:
.LBE8045:
	.loc 4 2078 0
	li 3,1
.LBB8048:
.LBB8047:
	.loc 7 636 0
	slwi 10,10,2
.LVL1020:
	add 11,11,10
.LBE8047:
.LBE8048:
	.loc 4 2076 0
	lwz 0,4(11)
	cmpw 7,9,0
	beq- 7,.L471
	b .L469
.LVL1021:
.L489:
	.loc 4 2074 0
	li 9,1
	b .L468
.LVL1022:
.L480:
.LBB8049:
	.loc 4 2081 0 discriminator 1
	cmpwi 7,3,1
	bne+ 7,.L472
.LVL1023:
.LBB7972:
.LBB7973:
.LBB7974:
	.loc 6 444 0
	lis 9,.LC81@ha
	lfs 11,140(1)
	lfs 0,.LC81@l(9)
.LBE7974:
.LBE7973:
.LBB7980:
.LBB7981:
	.loc 6 398 0
	lis 11,.LC82@ha
.LBE7981:
.LBE7980:
.LBB7985:
.LBB7975:
	.loc 6 444 0
	lfs 12,144(1)
.LBE7975:
.LBE7985:
.LBB7986:
.LBB7982:
	.loc 6 396 0
	li 29,0
.LBE7982:
.LBE7986:
.LBB7987:
.LBB7976:
	.loc 6 444 0
	lfs 13,148(1)
.LBE7976:
.LBE7987:
	.loc 4 2087 0
	addi 5,1,116
.LBB7988:
.LBB7977:
	.loc 6 444 0
	fmuls 12,12,0
.LBE7977:
.LBE7988:
.LBB7989:
.LBB7983:
	.loc 6 398 0
	lwz 0,.LC82@l(11)
.LBE7983:
.LBE7989:
.LBB7990:
.LBB7978:
	.loc 6 444 0
	fmuls 13,13,0
.LVL1024:
.LBE7978:
.LBE7990:
	.loc 4 2087 0
	lwz 4,3944(31)
.LVL1025:
.LBB7991:
.LBB7979:
	.loc 6 444 0
	fmuls 0,11,0
.LBE7979:
.LBE7991:
	.loc 4 2087 0
	addi 6,1,68
.LBB7992:
.LBB7993:
	.loc 6 425 0
	stfs 12,3980(31)
.LBE7993:
.LBE7992:
	.loc 4 2087 0
	li 7,1000
.LBB7996:
.LBB7994:
	.loc 6 426 0
	stfs 13,3984(31)
.LBE7994:
.LBE7996:
	.loc 4 2087 0
	li 8,1000
.LBB7997:
.LBB7995:
	.loc 6 424 0
	stfs 0,3976(31)
.LBE7995:
.LBE7997:
	.loc 4 2087 0
	li 9,1
	addi 10,1,128
	mr 3,31
.LBB7998:
.LBB7984:
	.loc 6 398 0
	stw 0,76(1)
	.loc 6 396 0
	stw 29,68(1)
	.loc 6 397 0
	stw 29,72(1)
.LBE7984:
.LBE7998:
	.loc 4 2087 0
	bl _ZN4idAI11PredictPathEPK8idEntityPK5idAASRK6idVec3S8_iiiR15predictedPath_s
.LVL1026:
	.loc 4 2089 0
	lwz 0,128(1)
	.loc 4 2090 0
	mr 3,31
.LBB7999:
.LBB8000:
	.loc 6 439 0
	lfs 30,.LC80@l(30)
.LBE8000:
.LBE7999:
	.loc 4 2090 0
	addi 5,1,56
.LBB8012:
.LBB8005:
	.loc 6 439 0
	lfs 13,3980(31)
.LBE8005:
.LBE8012:
	.loc 4 2090 0
	addi 6,1,44
.LBB8013:
.LBB8006:
	.loc 6 439 0
	lfs 0,3984(31)
.LBE8006:
.LBE8013:
	.loc 4 2090 0
	li 7,1000
.LBB8014:
.LBB8007:
	.loc 6 439 0
	lfs 12,3976(31)
	fmuls 13,13,30
.LBE8007:
.LBE8014:
	.loc 4 2089 0
	stw 0,56(1)
.LBB8015:
.LBB8008:
	.loc 6 439 0
	fmuls 0,0,30
.LBE8008:
.LBE8015:
	.loc 4 2089 0
	lwz 0,132(1)
.LBB8016:
.LBB8009:
	.loc 6 439 0
	fmuls 12,12,30
.LBE8009:
.LBE8016:
	.loc 4 2090 0
	lwz 4,3944(31)
.LVL1027:
	li 8,1000
	.loc 4 2089 0
	stw 0,60(1)
	.loc 4 2090 0
	li 9,1
	.loc 4 2089 0
	lwz 0,136(1)
	.loc 4 2090 0
	addi 10,1,128
.LBB8017:
.LBB8010:
.LBB8001:
.LBB8002:
	.loc 6 396 0
	stfs 12,44(1)
.LBE8002:
.LBE8001:
.LBE8010:
.LBE8017:
	.loc 4 2089 0
	stw 0,64(1)
.LBB8018:
.LBB8011:
.LBB8004:
.LBB8003:
	.loc 6 397 0
	stfs 13,48(1)
	.loc 6 398 0
	stfs 0,52(1)
.LBE8003:
.LBE8004:
.LBE8011:
.LBE8018:
	.loc 4 2090 0
	bl _ZN4idAI11PredictPathEPK8idEntityPK5idAASRK6idVec3S8_iiiR15predictedPath_s
.LVL1028:
	.loc 4 2091 0
	lwz 0,168(1)
	cmpwi 7,0,0
	bne- 7,.L473
	.loc 4 2092 0
	lis 9,.LC75@ha
	.loc 4 2093 0
	li 3,1
	.loc 4 2092 0
	lwz 0,.LC75@l(9)
	stw 0,3984(31)
	.loc 4 2093 0
	b .L471
.L473:
.LBB8019:
.LBB8020:
	.loc 6 398 0
	lis 11,.LC83@ha
.LBE8020:
.LBE8019:
	.loc 4 2097 0
	lwz 4,3944(31)
.LVL1029:
.LBB8023:
.LBB8021:
	.loc 6 398 0
	lwz 0,.LC83@l(11)
.LBE8021:
.LBE8023:
	.loc 4 2097 0
	mr 3,31
	addi 5,1,116
	addi 6,1,32
	li 7,1000
	li 8,1000
	li 9,1
	addi 10,1,128
.LBB8024:
	.loc 4 2101 0
	lis 30,.LC20@ha
.LBE8024:
.LBB8042:
.LBB8022:
	.loc 6 396 0
	stw 29,32(1)
	.loc 6 397 0
	stw 29,36(1)
	.loc 6 398 0
	stw 0,40(1)
.LBE8022:
.LBE8042:
	.loc 4 2097 0
	bl _ZN4idAI11PredictPathEPK8idEntityPK5idAASRK6idVec3S8_iiiR15predictedPath_s
	.loc 4 2099 0
	lfs 29,136(1)
.LBB8043:
	.loc 4 2101 0
	lfs 28,.LC20@l(30)
	lfs 31,124(1)
	fadds 28,29,28
.LBE8043:
	.loc 4 2099 0
	lwz 28,128(1)
.LVL1030:
	lwz 29,132(1)
.LVL1031:
.LBB8044:
	.loc 4 2101 0
	fcmpu 7,28,31
	cror 30,29,30
	beq+ 7,.L479
	b .L487
.LVL1032:
.L491:
.LBB8025:
	.loc 4 2104 0
	lwz 0,116(1)
	.loc 4 2106 0
	stfs 31,28(1)
	.loc 4 2104 0
	stw 0,20(1)
	.loc 4 2105 0
	lwz 0,120(1)
	stw 0,24(1)
.L477:
.LBB8026:
.LBB8027:
	.loc 6 439 0
	lfs 13,3980(31)
.LBE8027:
.LBE8026:
	.loc 4 2110 0
	mr 3,31
.LBB8034:
.LBB8030:
	.loc 6 439 0
	lfs 0,3984(31)
.LBE8030:
.LBE8034:
	.loc 4 2110 0
	addi 5,1,20
.LBB8035:
.LBB8031:
	.loc 6 439 0
	lfs 12,3976(31)
	fmuls 13,13,30
	fmuls 0,0,30
.LBE8031:
.LBE8035:
	.loc 4 2110 0
	lwz 4,3944(31)
.LVL1033:
.LBB8036:
.LBB8032:
	.loc 6 439 0
	fmuls 12,12,30
.LBE8032:
.LBE8036:
	.loc 4 2110 0
	addi 6,1,8
	li 7,1000
	li 8,1000
	li 9,1
	addi 10,1,128
.LBB8037:
.LBB8033:
.LBB8028:
.LBB8029:
	.loc 6 396 0
	stfs 12,8(1)
	.loc 6 397 0
	stfs 13,12(1)
	.loc 6 398 0
	stfs 0,16(1)
.LBE8029:
.LBE8028:
.LBE8033:
.LBE8037:
	.loc 4 2110 0
	bl _ZN4idAI11PredictPathEPK8idEntityPK5idAASRK6idVec3S8_iiiR15predictedPath_s
.LVL1034:
	.loc 4 2111 0
	lwz 0,168(1)
	cmpwi 7,0,0
	beq- 7,.L490
.LBE8025:
	.loc 4 2101 0
	lfs 0,.LC20@l(30)
	fadds 31,31,0
.LVL1035:
	fcmpu 7,28,31
	cror 30,29,30
	bne- 7,.L487
.LVL1036:
.L479:
.LBB8040:
	.loc 4 2103 0
	fcmpu 7,31,29
	cror 30,28,30
	beq- 7,.L491
.LVL1037:
.LBB8038:
.LBB8039:
	.loc 6 424 0
	stw 28,20(1)
	.loc 6 425 0
	stw 29,24(1)
	.loc 6 426 0
	stfs 29,28(1)
	b .L477
.LVL1038:
.L487:
.LBE8039:
.LBE8038:
.LBE8040:
	.loc 4 2116 0
	li 3,0
	b .L471
.LVL1039:
.L490:
.LBB8041:
	.loc 4 2112 0
	lis 9,.LC0@ha
	.loc 4 2113 0
	li 3,1
	.loc 4 2112 0
	lwz 0,.LC0@l(9)
	stw 0,3984(31)
	.loc 4 2113 0
	b .L471
.LBE8041:
.LBE8044:
.LBE7972:
.LBE8049:
.LBE8053:
	.cfi_endproc
.LFE2903:
	.size	_ZN4idAI13StepDirectionEf, .-_ZN4idAI13StepDirectionEf
	.align 2
	.globl _ZN4idAI12NewWanderDirERK6idVec3
	.type	_ZN4idAI12NewWanderDirERK6idVec3, @function
_ZN4idAI12NewWanderDirERK6idVec3:
.LFB2907:
	.loc 4 2127 0
	.cfi_startproc
.LVL1040:
	mflr 0
	stwu 1,-128(1)
.LCFI143:
	.cfi_def_cfa_offset 128
	.cfi_register 65, 0
.LBB8067:
	.loc 4 2132 0
	lis 11,gameLocal@ha
.LBB8068:
.LBB8069:
.LBB8070:
.LBB8071:
	.loc 19 71 0
	lis 9,0x1
.LBE8071:
.LBE8070:
.LBE8069:
.LBE8068:
.LBE8067:
	.loc 4 2127 0
	stfd 30,112(1)
.LBB8116:
	.loc 4 2132 0
	la 11,gameLocal@l(11)
.LBE8116:
	.loc 4 2127 0
	stw 26,56(1)
.LBB8117:
.LBB8090:
.LBB8082:
.LBB8077:
.LBB8072:
	.loc 19 71 0
	ori 9,9,3533
.LBE8072:
.LBE8077:
.LBE8082:
.LBE8090:
.LBE8117:
	.loc 4 2127 0
	stw 28,64(1)
.LBB8118:
.LBB8091:
.LBB8092:
	.loc 8 904 0
	lis 26,.LC91@ha
	.cfi_offset 28, -64
	.cfi_offset 26, -72
	.cfi_offset 62, -16
.LBE8092:
.LBE8091:
.LBE8118:
	.loc 4 2127 0
	stw 29,68(1)
.LBB8119:
	.loc 4 2134 0
	lis 29,.LC89@ha
	.cfi_offset 29, -60
.LBE8119:
	.loc 4 2127 0
	stw 30,72(1)
	mr 28,4
	stw 31,76(1)
.LBB8120:
.LBB8095:
.LBB8083:
.LBB8078:
.LBB8073:
	.loc 19 71 0
	addis 31,11,0x1
	.cfi_offset 31, -52
	.cfi_offset 30, -56
.LBE8073:
.LBE8078:
.LBE8083:
.LBE8095:
.LBE8120:
	.loc 4 2127 0
	stw 0,132(1)
.LBB8121:
	.loc 4 2132 0
	addis 11,11,0x25
.LBE8121:
	.loc 4 2127 0
	stfd 26,80(1)
	mr 30,3
	stfd 27,88(1)
	stfd 28,96(1)
	stfd 29,104(1)
	stfd 31,120(1)
	stw 27,60(1)
.LBB8122:
.LBB8096:
.LBB8084:
.LBB8079:
.LBB8074:
	.loc 19 71 0
	lwz 0,-32064(31)
	.cfi_offset 27, -68
	.cfi_offset 63, -8
	.cfi_offset 61, -24
	.cfi_offset 60, -32
	.cfi_offset 59, -40
	.cfi_offset 58, -48
	.cfi_offset 65, 4
	mullw 9,9,0
.LBE8074:
.LBE8079:
.LBE8084:
.LBE8096:
	.loc 4 2132 0
	lis 0,0x4330
.LBB8097:
.LBB8085:
	.loc 19 83 0
	stw 0,16(1)
.LBB8080:
.LBB8075:
	.loc 19 71 0
	addi 9,9,1
	.loc 19 72 0
	rlwinm 10,9,0,17,31
.LBE8075:
.LBE8080:
	.loc 19 83 0
	xoris 10,10,0x8000
	stw 10,20(1)
.LBE8085:
.LBE8097:
	.loc 4 2132 0
	lis 10,.LC65@ha
	lfs 0,.LC65@l(10)
.LBB8098:
.LBB8086:
	.loc 19 83 0
	lfd 11,16(1)
.LBE8086:
.LBE8098:
	.loc 4 2132 0
	lwz 11,2004(11)
.LBB8099:
.LBB8087:
	.loc 19 83 0
	fsub 11,11,0
.LBE8087:
.LBE8099:
	.loc 4 2132 0
	stw 0,8(1)
	xoris 11,11,0x8000
	stw 11,12(1)
.LBB8100:
.LBB8088:
	.loc 19 83 0
	lis 11,.LC66@ha
	frsp 11,11
	lfs 10,.LC66@l(11)
.LBE8088:
.LBE8100:
	.loc 4 2132 0
	lfd 12,8(1)
	lis 11,.LC90@ha
	lfs 13,.LC90@l(11)
	addi 11,3,4028
	fsub 12,12,0
.LBB8101:
.LBB8089:
.LBB8081:
.LBB8076:
	.loc 19 71 0
	stw 9,-32064(31)
.LBE8076:
.LBE8081:
	.loc 19 83 0
	fmuls 11,11,10
.LBE8089:
.LBE8101:
	.loc 4 2134 0
	addi 9,1,40
	.loc 4 2132 0
	frsp 12,12
.LVL1041:
	fmadds 13,11,13,13
	fadds 13,12,13
	.loc 4 2134 0
	lfs 12,.LC89@l(29)
	.loc 4 2132 0
	fctiwz 13,13
	stfiwx 13,0,11
	.loc 4 2134 0
	stw 0,24(1)
	lfs 13,4192(3)
	fdivs 12,13,12
.LBB8102:
.LBB8093:
	.loc 8 904 0
	lfs 13,.LC91@l(26)
.LBE8093:
.LBE8102:
	.loc 4 2134 0
	fctiwz 12,12
	stfiwx 12,0,9
	lwz 0,40(1)
	mulli 0,0,45
	xoris 0,0,0x8000
	stw 0,28(1)
	lfd 30,24(1)
	fsub 30,30,0
	frsp 30,30
.LVL1042:
.LBB8103:
.LBB8094:
	.loc 8 904 0
	fcmpu 7,30,13
	cror 30,29,30
	beq- 7,.L493
	lis 11,.LC6@ha
	lfs 0,.LC6@l(11)
	fcmpu 7,30,0
	bnl- 7,.L494
.L493:
	.loc 8 905 0
	lfs 31,.LC91@l(26)
	fdivs 1,30,31
	bl floor
.LVL1043:
	fmr 0,30
	.loc 4 2127 0
	fneg 1,1
	.loc 8 905 0
	fmadd 30,1,31,0
.LVL1044:
	frsp 30,30
.LVL1045:
.L494:
.LBE8094:
.LBE8103:
	.loc 4 2135 0
	lis 27,.LC84@ha
.LBB8104:
.LBB8105:
	.loc 8 904 0
	lfs 0,.LC91@l(26)
.LBE8105:
.LBE8104:
	.loc 4 2135 0
	lfs 31,.LC84@l(27)
	fsubs 31,30,31
.LVL1046:
.LBB8107:
.LBB8106:
	.loc 8 904 0
	fcmpu 7,31,0
	cror 30,29,30
	beq- 7,.L496
	lis 9,.LC6@ha
	lfs 0,.LC6@l(9)
	fcmpu 7,31,0
	bnl- 7,.L497
.L496:
	.loc 8 905 0
	lfs 29,.LC91@l(26)
	fdivs 1,31,29
	bl floor
	fmr 0,31
	.loc 4 2127 0
	fneg 1,1
	.loc 8 905 0
	fmadd 31,1,29,0
.LVL1047:
	frsp 31,31
.LVL1048:
.L497:
.LBE8106:
.LBE8107:
	.loc 4 2137 0
	addi 3,30,4216
	li 4,0
	bl _ZNK15idPhysics_Actor9GetOriginEi
.LVL1049:
	.loc 4 2138 0
	lfs 27,0(28)
	lfs 0,0(3)
	.loc 4 2140 0
	lis 9,.LC93@ha
	.loc 4 2139 0
	lfs 26,4(28)
	.loc 4 2138 0
	fsubs 27,27,0
.LVL1050:
	.loc 4 2140 0
	lfs 0,.LC93@l(9)
	fcmpu 7,27,0
	.loc 4 2139 0
	lfs 0,4(3)
	fsubs 26,26,0
.LVL1051:
	.loc 4 2140 0
	bgt- 7,.L520
	.loc 4 2142 0
	lis 11,.LC94@ha
	lfs 0,.LC94@l(11)
	fcmpu 7,27,0
	bnl- 7,.L538
	.loc 4 2148 0
	lfs 0,.LC94@l(11)
	lis 28,.LC75@ha
.LVL1052:
	.loc 4 2143 0
	lfs 29,.LC84@l(27)
.LVL1053:
	.loc 4 2148 0
	fcmpu 7,26,0
	bnl- 7,.L540
.L522:
	.loc 4 2149 0
	lis 9,.LC85@ha
	lfs 28,.LC85@l(9)
.L501:
.LVL1054:
	.loc 4 2157 0
	lfs 0,.LC75@l(28)
	fcmpu 7,29,0
	beq- 7,.L503
	.loc 4 2157 0 is_stmt 0 discriminator 1
	fcmpu 7,28,0
	beq- 7,.L503
	.loc 4 2158 0 is_stmt 1
	lis 9,.LC6@ha
	lfs 0,.LC6@l(9)
	.loc 4 2159 0
	lis 9,.LC16@ha
	.loc 4 2158 0
	fcmpu 7,29,0
	.loc 4 2159 0
	lfs 0,.LC16@l(9)
	.loc 4 2158 0
	beq- 7,.L541
	.loc 4 2161 0
	fcmpu 7,28,0
	bne- 7,.L525
	lis 9,.LC88@ha
	lfs 1,.LC88@l(9)
.L505:
.LVL1055:
	.loc 4 2164 0
	fcmpu 7,1,31
	beq+ 7,.L503
	.loc 4 2164 0 is_stmt 0 discriminator 1
	mr 3,30
.LVL1056:
	bl _ZN4idAI13StepDirectionEf
.LVL1057:
	cmpwi 7,3,0
	.loc 4 2165 0 is_stmt 1 discriminator 1
	li 3,1
	.loc 4 2164 0 discriminator 1
	bne- 7,.L507
.L503:
.LVL1058:
.LBB8108:
.LBB8109:
	.loc 19 71 0
	lwz 11,-32064(31)
	lis 9,0x1
	ori 9,9,3533
	mullw 9,9,11
	addi 0,9,1
.LBE8109:
.LBE8108:
	.loc 4 2170 0
	andi. 11,0,1
.LBB8111:
.LBB8110:
	.loc 19 71 0
	stw 0,-32064(31)
.LBE8110:
.LBE8111:
	.loc 4 2170 0
	beq- 0,.L542
.LVL1059:
.L527:
	stfs 29,48(1)
	.loc 4 2172 0
	fmr 29,28
.LVL1060:
	.loc 4 2173 0
	lfs 28,48(1)
.LVL1061:
.L508:
	.loc 4 2176 0
	lfs 0,.LC75@l(28)
	fcmpu 7,29,0
	beq- 7,.L509
	.loc 4 2176 0 is_stmt 0 discriminator 1
	fcmpu 7,29,31
	bne- 7,.L543
.L509:
	.loc 4 2180 0 is_stmt 1
	lfs 0,.LC75@l(28)
	fcmpu 7,28,0
	beq- 7,.L510
	.loc 4 2180 0 is_stmt 0 discriminator 1
	fcmpu 7,28,31
	bne- 7,.L544
.L510:
	.loc 4 2185 0 is_stmt 1
	lfs 0,.LC75@l(28)
	fcmpu 7,30,0
	bne- 7,.L516
.L511:
.LVL1062:
.LBB8112:
.LBB8113:
	.loc 19 71 0
	lwz 11,-32064(31)
	lis 9,0x1
	ori 9,9,3533
	mullw 9,9,11
	addi 0,9,1
.LBE8113:
.LBE8112:
	.loc 4 2190 0
	andi. 11,0,1
.LBB8115:
.LBB8114:
	.loc 19 71 0
	stw 0,-32064(31)
.LBE8114:
.LBE8115:
	.loc 4 2190 0
	li 0,8
	stw 0,44(1)
	beq- 0,.L545
	lis 9,.LC6@ha
	lfs 30,.LC6@l(9)
.LVL1063:
	b .L517
.L512:
	.loc 4 2191 0
	lwz 0,44(1)
	lfs 0,.LC89@l(29)
	addic. 9,0,-1
	fadds 30,30,0
.LVL1064:
	stw 9,44(1)
	beq- 0,.L519
.LVL1065:
.L517:
	.loc 4 2192 0
	fcmpu 7,30,31
	beq+ 7,.L512
	.loc 4 2192 0 is_stmt 0 discriminator 1
	fmr 1,30
	mr 3,30
	bl _ZN4idAI13StepDirectionEf
	cmpwi 7,3,0
	beq- 7,.L512
.L532:
	.loc 4 2199 0 is_stmt 1
	li 3,1
.LVL1066:
.L507:
.LBE8122:
	.loc 4 2211 0
	lwz 0,132(1)
	lwz 26,56(1)
	mtlr 0
	lwz 27,60(1)
	lwz 28,64(1)
	lwz 29,68(1)
	lwz 30,72(1)
.LVL1067:
	lwz 31,76(1)
	lfd 26,80(1)
	lfd 27,88(1)
	lfd 28,96(1)
.LVL1068:
	lfd 29,104(1)
.LVL1069:
	lfd 30,112(1)
	lfd 31,120(1)
.LVL1070:
	addi 1,1,128
	.cfi_remember_state
.LCFI144:
	.cfi_def_cfa_offset 0
	.cfi_restore 63
	.cfi_restore 62
	.cfi_restore 61
	.cfi_restore 60
	.cfi_restore 59
	.cfi_restore 58
	.cfi_restore 31
	.cfi_restore 30
	.cfi_restore 29
	.cfi_restore 28
	.cfi_restore 27
	.cfi_restore 26
	blr
.LVL1071:
.L520:
.LCFI145:
	.cfi_restore_state
.LBB8123:
	.loc 4 2141 0
	lis 11,.LC6@ha
	lis 28,.LC75@ha
.LVL1072:
	lfs 29,.LC6@l(11)
	lis 11,.LC94@ha
.LVL1073:
.L499:
	.loc 4 2148 0
	lfs 0,.LC94@l(11)
	fcmpu 7,26,0
	blt- 7,.L522
.L540:
	.loc 4 2150 0
	lfs 0,.LC93@l(9)
	.loc 4 2153 0
	lfs 28,.LC75@l(28)
	.loc 4 2150 0
	fcmpu 7,26,0
	bng- 7,.L501
	.loc 4 2151 0
	lis 9,.LC16@ha
	lfs 28,.LC16@l(9)
	b .L501
.LVL1074:
.L542:
	.loc 4 2170 0 discriminator 2
	fctiwz 26,26
.LVL1075:
	addi 9,1,32
	fctiwz 27,27
.LVL1076:
	addi 11,1,36
	stfiwx 26,0,9
	stfiwx 27,0,11
	lwz 9,32(1)
	lwz 0,36(1)
	srawi 11,9,31
	xor 9,11,9
	subf 9,11,9
	srawi 11,0,31
	xor 0,11,0
	subf 0,11,0
	cmpw 7,9,0
	ble- 7,.L508
	b .L527
.LVL1077:
.L538:
	.loc 4 2145 0
	lis 28,.LC75@ha
.LVL1078:
	lfs 29,.LC75@l(28)
	b .L499
.LVL1079:
.L516:
	.loc 4 2185 0 discriminator 1
	fmr 1,30
	mr 3,30
	bl _ZN4idAI13StepDirectionEf
	cmpwi 7,3,0
	.loc 4 2186 0 discriminator 1
	li 3,1
	.loc 4 2185 0 discriminator 1
	bne- 7,.L507
	b .L511
.LVL1080:
.L545:
	.loc 4 2190 0
	lis 9,.LC86@ha
	lfs 30,.LC86@l(9)
.LVL1081:
	b .L518
.L513:
	.loc 4 2197 0
	lwz 0,44(1)
	lfs 0,.LC89@l(29)
	addic. 9,0,-1
	fsubs 30,30,0
.LVL1082:
	stw 9,44(1)
	beq- 0,.L519
.LVL1083:
.L518:
	.loc 4 2198 0
	fcmpu 7,30,31
	beq+ 7,.L513
	.loc 4 2198 0 is_stmt 0 discriminator 1
	fmr 1,30
	mr 3,30
	bl _ZN4idAI13StepDirectionEf
	cmpwi 7,3,0
	bne- 7,.L532
	b .L513
.LVL1084:
.L543:
	.loc 4 2176 0 is_stmt 1 discriminator 3
	fmr 1,29
	mr 3,30
	bl _ZN4idAI13StepDirectionEf
	cmpwi 7,3,0
	.loc 4 2177 0 discriminator 3
	li 3,1
	.loc 4 2176 0 discriminator 3
	bne- 7,.L507
	b .L509
.LVL1085:
.L541:
	.loc 4 2159 0
	fcmpu 7,28,0
	lfs 1,.LC89@l(29)
	beq- 7,.L505
	lis 9,.LC86@ha
	lfs 1,.LC86@l(9)
	b .L505
.LVL1086:
.L544:
	.loc 4 2180 0 discriminator 3
	fmr 1,28
	mr 3,30
	bl _ZN4idAI13StepDirectionEf
	cmpwi 7,3,0
	.loc 4 2181 0 discriminator 3
	li 3,1
	.loc 4 2180 0 discriminator 3
	bne- 7,.L507
	b .L510
.LVL1087:
.L519:
	.loc 4 2204 0
	lfs 0,.LC75@l(28)
	fcmpu 7,31,0
	bne- 7,.L546
.L514:
	.loc 4 2209 0
	mr 3,30
	li 4,4
	bl _ZN4idAI8StopMoveE12moveStatus_t
	.loc 4 2210 0
	li 3,0
	b .L507
.LVL1088:
.L525:
	.loc 4 2161 0
	lis 9,.LC87@ha
	lfs 1,.LC87@l(9)
	b .L505
.LVL1089:
.L546:
	.loc 4 2204 0 discriminator 1
	fmr 1,31
	mr 3,30
	bl _ZN4idAI13StepDirectionEf
	cmpwi 7,3,0
	beq- 7,.L514
	b .L532
.LBE8123:
	.cfi_endproc
.LFE2907:
	.size	_ZN4idAI12NewWanderDirERK6idVec3, .-_ZN4idAI12NewWanderDirERK6idVec3
	.align 2
	.globl _ZN4idAI12WanderAroundEv
	.type	_ZN4idAI12WanderAroundEv, @function
_ZN4idAI12WanderAroundEv:
.LFB2901:
	.loc 4 2031 0
	.cfi_startproc
.LVL1090:
	stwu 1,-24(1)
.LCFI146:
	.cfi_def_cfa_offset 24
	mflr 0
	.loc 4 2032 0
	li 4,0
	.loc 4 2031 0
	stw 30,16(1)
	.loc 4 2034 0
	addi 30,3,4216
	.cfi_offset 30, -8
	.cfi_register 65, 0
	.loc 4 2031 0
	stw 0,28(1)
	stw 29,12(1)
	stw 31,20(1)
	.loc 4 2031 0
	mr 31,3
	.cfi_offset 31, -4
	.cfi_offset 29, -12
	.cfi_offset 65, 4
	.loc 4 2032 0
	bl _ZN4idAI8StopMoveE12moveStatus_t
.LVL1091:
	.loc 4 2034 0
	li 4,0
	mr 3,30
	bl _ZNK15idPhysics_Actor9GetOriginEi
	mr 29,3
.LVL1092:
	mr 3,30
	bl _ZNK15idPhysics_Actor14GetGravityAxisEv
.LVL1093:
.LBB8142:
.LBB8143:
.LBB8144:
	.loc 13 454 0
	lfs 0,2272(31)
	lfs 12,12(3)
	.loc 6 452 0
	lis 9,.LC83@ha
	.loc 13 454 0
	lfs 10,16(3)
.LBE8144:
.LBE8143:
.LBE8142:
	.loc 4 2035 0
	addi 4,31,3964
.LBB8155:
.LBB8150:
.LBB8145:
	.loc 13 454 0
	lfs 11,20(3)
	fmuls 10,0,10
	lfs 9,8(3)
	fmuls 11,0,11
.LBE8145:
.LBE8150:
.LBE8155:
.LBB8156:
.LBB8157:
	lfs 13,0(3)
.LBE8157:
.LBE8156:
.LBB8161:
.LBB8151:
.LBB8146:
	fmuls 0,0,12
	lfs 7,4(3)
	lfs 12,2268(31)
	lfs 8,28(3)
	fmadds 10,12,7,10
	fmadds 11,12,9,11
	lfs 9,32(3)
.LBE8146:
.LBE8151:
.LBE8161:
.LBB8162:
.LBB8158:
	fmadds 12,13,12,0
	lfs 0,24(3)
.LBE8158:
.LBE8162:
.LBB8163:
.LBB8152:
.LBB8147:
	lfs 13,2276(31)
.LVL1094:
.LBE8147:
.LBE8152:
.LBE8163:
	.loc 4 2035 0
	mr 3,31
.LVL1095:
.LBB8164:
.LBB8153:
.LBB8148:
	.loc 13 454 0
	fmadds 10,13,8,10
	.loc 6 452 0
	lfs 8,4(29)
	.loc 13 454 0
	fmadds 11,13,9,11
.LBE8148:
.LBE8153:
.LBE8164:
.LBB8165:
.LBB8159:
	.loc 6 452 0
	lfs 9,0(29)
	.loc 13 454 0
	fmadds 13,0,13,12
.LBE8159:
.LBE8165:
.LBB8166:
.LBB8154:
.LBB8149:
	.loc 6 452 0
	lfs 12,8(29)
	lfs 0,.LC83@l(9)
	fmadds 10,10,0,8
	fmadds 11,11,0,12
.LVL1096:
.LBE8149:
.LBE8154:
.LBE8166:
.LBB8167:
.LBB8160:
	fmadds 0,13,0,9
	.loc 6 425 0
	stfs 10,3968(31)
	.loc 6 426 0
	stfs 11,3972(31)
	.loc 6 424 0
	stfs 0,3964(31)
.LBE8160:
.LBE8167:
	.loc 4 2035 0
	bl _ZN4idAI12NewWanderDirERK6idVec3
.LVL1097:
	cmpwi 7,3,0
	beq- 7,.L553
	.loc 4 2041 0
	li 0,12
.LBB8168:
.LBB8169:
	.loc 18 237 0
	lwz 9,5208(31)
.LBE8169:
.LBE8168:
	.loc 4 2041 0
	stw 0,3956(31)
	.loc 4 2042 0
	li 0,1
	stw 0,3960(31)
.LBB8172:
.LBB8170:
	.loc 18 237 0
	cmpwi 7,9,0
.LBE8170:
.LBE8172:
	.loc 4 2043 0
	lis 11,gameLocal+2426836@ha
	.loc 4 2044 0
	lwz 0,4496(31)
	.loc 4 2043 0
	lwz 11,gameLocal+2426836@l(11)
	.loc 4 2044 0
	stw 0,4016(31)
.LVL1098:
	.loc 4 2043 0
	stw 11,4008(31)
.LBB8173:
.LBB8171:
	.loc 18 237 0
	beq- 7,.L550
	.loc 18 238 0
	li 0,0
	stw 0,0(9)
.L550:
.LVL1099:
.LBE8171:
.LBE8173:
.LBB8174:
.LBB8175:
	.loc 18 237 0
	lwz 9,5220(31)
	.loc 4 2048 0
	li 3,1
	.loc 18 237 0
	cmpwi 7,9,0
	beq- 7,.L549
	.loc 18 238 0
	stw 3,0(9)
.LVL1100:
.L549:
.LBE8175:
.LBE8174:
	.loc 4 2049 0
	lwz 0,28(1)
	lwz 29,12(1)
.LVL1101:
	mtlr 0
	lwz 30,16(1)
	lwz 31,20(1)
.LVL1102:
	addi 1,1,24
	.cfi_remember_state
.LCFI147:
	.cfi_def_cfa_offset 0
	.cfi_restore 31
	.cfi_restore 30
	.cfi_restore 29
	blr
.LVL1103:
.L553:
.LCFI148:
	.cfi_restore_state
	.loc 4 2036 0
	mr 3,31
	li 4,4
	bl _ZN4idAI8StopMoveE12moveStatus_t
.LVL1104:
.LBB8176:
.LBB8177:
	.loc 18 237 0
	lwz 9,5240(31)
	.loc 4 2038 0
	li 3,0
	.loc 18 237 0
	cmpwi 7,9,0
	beq- 7,.L549
	.loc 18 238 0
	li 0,1
	stw 0,0(9)
.LBE8177:
.LBE8176:
	.loc 4 2049 0
	lwz 0,28(1)
	lwz 29,12(1)
.LVL1105:
	mtlr 0
	lwz 30,16(1)
	lwz 31,20(1)
.LVL1106:
	addi 1,1,24
	.cfi_restore 29
	.cfi_restore 30
	.cfi_restore 31
.LCFI149:
	.cfi_def_cfa_offset 0
	blr
	.cfi_endproc
.LFE2901:
	.size	_ZN4idAI12WanderAroundEv, .-_ZN4idAI12WanderAroundEv
	.align 2
	.globl _ZN4idAI14MoveToPositionERK6idVec3
	.type	_ZN4idAI14MoveToPositionERK6idVec3, @function
_ZN4idAI14MoveToPositionERK6idVec3:
.LFB2898:
	.loc 4 1905 0
	.cfi_startproc
.LVL1107:
	mflr 0
	stwu 1,-80(1)
.LCFI150:
	.cfi_def_cfa_offset 80
	.cfi_register 65, 0
	stw 30,64(1)
	mr 30,4
	.cfi_offset 30, -16
	stw 31,68(1)
	mr 31,3
	.cfi_offset 31, -12
	stw 0,84(1)
	stfd 31,72(1)
	stw 28,56(1)
	stw 29,60(1)
.LBB8178:
	.loc 4 1910 0
	lwz 5,3956(3)
	.cfi_offset 29, -20
	.cfi_offset 28, -24
	.cfi_offset 63, -8
	.cfi_offset 65, 4
	bl _ZNK4idAI10ReachedPosERK6idVec313moveCommand_t
.LVL1108:
	cmpwi 0,3,0
	bne- 0,.L571
.LVL1109:
	.loc 4 1917 0
	lwz 0,3944(31)
.LBB8179:
.LBB8180:
	.loc 6 424 0
	lwz 11,0(30)
.LBE8180:
.LBE8179:
	.loc 4 1917 0
	cmpwi 7,0,0
.LBB8182:
.LBB8181:
	.loc 6 425 0
	lwz 9,4(30)
	.loc 6 426 0
	lwz 0,8(30)
	.loc 6 424 0
	stw 11,8(1)
	.loc 6 425 0
	stw 9,12(1)
	.loc 6 426 0
	stw 0,16(1)
.LBE8181:
.LBE8182:
	.loc 4 1916 0
	stw 3,4004(31)
	.loc 4 1917 0
	beq- 7,.L572
	.loc 4 1918 0
	lis 9,.LC78@ha
	addi 30,1,8
.LVL1110:
	lfs 31,.LC78@l(9)
	mr 4,30
	mr 3,31
	.loc 4 1921 0
	addi 29,31,4216
	.loc 4 1918 0
	fmr 1,31
	bl _ZNK4idAI21PointReachableAreaNumERK6idVec3f
	.loc 4 1919 0
	mr 5,30
	.loc 4 1918 0
	mr 4,3
	.loc 4 1919 0
	lwz 3,3944(31)
	.loc 4 1918 0
	stw 4,4004(31)
	.loc 4 1919 0
	lwz 9,0(3)
	lwz 0,36(9)
	mtctr 0
	bctrl
	.loc 4 1921 0
	li 4,0
	mr 3,29
	bl _ZNK15idPhysics_Actor9GetOriginEi
	fmr 1,31
	mr 4,3
	mr 3,31
	bl _ZNK4idAI21PointReachableAreaNumERK6idVec3f
	.loc 4 1922 0
	li 4,0
	.loc 4 1921 0
	mr 28,3
.LVL1111:
	.loc 4 1922 0
	mr 3,29
.LVL1112:
	bl _ZNK15idPhysics_Actor9GetOriginEi
	lwz 7,4004(31)
	mr 6,3
	addi 4,1,20
	mr 3,31
	mr 5,28
	mr 8,30
	bl _ZNK4idAI10PathToGoalER9aasPath_siRK6idVec3iS4_
	cmpwi 7,3,0
	beq- 7,.L570
	.loc 4 1929 0
	lwz 0,4004(31)
	cmpwi 7,0,0
	beq- 7,.L557
.LVL1113:
.L559:
.LBB8183:
.LBB8184:
	.loc 6 424 0
	lwz 11,8(1)
.LBE8184:
.LBE8183:
.LBB8187:
.LBB8188:
	.loc 7 606 0
	li 0,0
.LBE8188:
.LBE8187:
.LBB8190:
.LBB8191:
	.loc 18 237 0
	lwz 9,5208(31)
.LBE8191:
.LBE8190:
.LBB8194:
.LBB8185:
	.loc 6 424 0
	stw 11,3964(31)
	.loc 6 425 0
	lwz 11,12(1)
.LBE8185:
.LBE8194:
.LBB8195:
.LBB8192:
	.loc 18 237 0
	cmpwi 7,9,0
.LBE8192:
.LBE8195:
.LBB8196:
.LBB8189:
	.loc 7 606 0
	stw 0,3988(31)
.LBE8189:
.LBE8196:
.LBB8197:
.LBB8186:
	.loc 6 425 0
	stw 11,3968(31)
	.loc 6 426 0
	lwz 11,16(1)
	stw 11,3972(31)
.LVL1114:
.LBE8186:
.LBE8197:
	.loc 4 1937 0
	li 11,9
	stw 11,3956(31)
	.loc 4 1938 0
	li 11,1
	stw 11,3960(31)
	.loc 4 1939 0
	lis 11,gameLocal+2426836@ha
	lwz 10,gameLocal+2426836@l(11)
	.loc 4 1940 0
	lwz 11,4496(31)
	.loc 4 1939 0
	stw 10,4008(31)
	.loc 4 1940 0
	stw 11,4016(31)
.LVL1115:
.LBB8198:
.LBB8193:
	.loc 18 237 0
	beq- 7,.L562
	.loc 18 238 0
	stw 0,0(9)
.L562:
.LVL1116:
.LBE8193:
.LBE8198:
.LBB8199:
.LBB8200:
	.loc 18 237 0
	lwz 9,5240(31)
	cmpwi 7,9,0
	beq- 7,.L560
	.loc 18 238 0
	li 0,0
	stw 0,0(9)
.L560:
.LVL1117:
.LBE8200:
.LBE8199:
.LBB8201:
.LBB8202:
	.loc 18 237 0
	lwz 9,5220(31)
	.loc 4 1945 0
	li 3,1
	.loc 18 237 0
	cmpwi 7,9,0
	beq- 7,.L556
	.loc 18 238 0
	stw 3,0(9)
.LVL1118:
.L556:
.LBE8202:
.LBE8201:
.LBE8178:
	.loc 4 1946 0
	lwz 0,84(1)
	lwz 28,56(1)
	mtlr 0
	lwz 29,60(1)
	lwz 30,64(1)
	lwz 31,68(1)
.LVL1119:
	lfd 31,72(1)
	addi 1,1,80
	.cfi_remember_state
.LCFI151:
	.cfi_def_cfa_offset 0
	.cfi_restore 63
	.cfi_restore 31
	.cfi_restore 30
	.cfi_restore 29
	.cfi_restore 28
	blr
.LVL1120:
.L572:
.LCFI152:
	.cfi_restore_state
	addi 30,1,8
.LVL1121:
.L557:
.LBB8205:
	.loc 4 1929 0 discriminator 1
	mr 3,31
	mr 4,30
	bl _ZN4idAI12NewWanderDirERK6idVec3
	cmpwi 7,3,0
	bne- 7,.L559
.L570:
	.loc 4 1930 0 discriminator 4
	mr 3,31
	li 4,4
	bl _ZN4idAI8StopMoveE12moveStatus_t
.LVL1122:
.LBB8203:
.LBB8204:
	.loc 18 237 0 discriminator 4
	lwz 9,5240(31)
	.loc 4 1932 0 discriminator 4
	li 3,0
	.loc 18 237 0 discriminator 4
	cmpwi 7,9,0
	beq- 7,.L556
	.loc 18 238 0
	li 0,1
	stw 0,0(9)
.LBE8204:
.LBE8203:
.LBE8205:
	.loc 4 1946 0
	lwz 0,84(1)
	lwz 28,56(1)
	mtlr 0
	lwz 29,60(1)
	lwz 30,64(1)
	lwz 31,68(1)
.LVL1123:
	lfd 31,72(1)
	addi 1,1,80
	.cfi_remember_state
	.cfi_restore 28
	.cfi_restore 29
	.cfi_restore 30
	.cfi_restore 31
	.cfi_restore 63
.LCFI153:
	.cfi_def_cfa_offset 0
	blr
.LVL1124:
.L571:
.LCFI154:
	.cfi_restore_state
.LBB8206:
	.loc 4 1911 0
	mr 3,31
	li 4,0
	bl _ZN4idAI8StopMoveE12moveStatus_t
.LBE8206:
	.loc 4 1946 0
	lwz 0,84(1)
	lwz 28,56(1)
.LBB8207:
	.loc 4 1912 0
	li 3,1
.LBE8207:
	.loc 4 1946 0
	mtlr 0
	lwz 29,60(1)
	lwz 30,64(1)
.LVL1125:
	lwz 31,68(1)
.LVL1126:
	lfd 31,72(1)
	addi 1,1,80
	.cfi_restore 28
	.cfi_restore 29
	.cfi_restore 30
	.cfi_restore 31
	.cfi_restore 63
.LCFI155:
	.cfi_def_cfa_offset 0
	blr
	.cfi_endproc
.LFE2898:
	.size	_ZN4idAI14MoveToPositionERK6idVec3, .-_ZN4idAI14MoveToPositionERK6idVec3
	.align 2
	.globl _ZN4idAI12MoveToEntityEP8idEntity
	.type	_ZN4idAI12MoveToEntityEP8idEntity, @function
_ZN4idAI12MoveToEntityEP8idEntity:
.LFB2885:
	.loc 4 1725 0
	.cfi_startproc
.LVL1127:
	stwu 1,-88(1)
.LCFI156:
	.cfi_def_cfa_offset 88
	mflr 0
	stw 29,68(1)
.LBB8208:
	.loc 4 1730 0
	mr. 29,4
	.cfi_offset 29, -20
	.cfi_register 65, 0
.LBE8208:
	.loc 4 1725 0
	stw 31,76(1)
	mr 31,3
	.cfi_offset 31, -12
	stw 0,92(1)
	stfd 31,80(1)
	stw 27,60(1)
	stw 28,64(1)
	stw 30,72(1)
.LBB8252:
	.loc 4 1730 0
	beq- 0,.L596
	.cfi_offset 30, -16
	.cfi_offset 28, -24
	.cfi_offset 27, -28
	.cfi_offset 63, -8
	.cfi_offset 65, 4
	.loc 4 1735 0
	mr 3,29
.LVL1128:
	addi 30,1,8
	bl _ZNK8idEntity10GetPhysicsEv
.LVL1129:
	li 4,0
	lwz 9,0(3)
	lwz 0,132(9)
	mtctr 0
	bctrl
.LVL1130:
	.loc 4 1736 0
	lwz 0,3952(31)
.LBB8209:
.LBB8210:
	.loc 6 424 0
	lfs 0,0(3)
.LBE8210:
.LBE8209:
	.loc 4 1736 0
	cmpwi 7,0,3
.LBB8212:
.LBB8211:
	.loc 6 425 0
	lfs 13,4(3)
	.loc 6 426 0
	lfs 12,8(3)
	.loc 6 424 0
	stfs 0,8(1)
	.loc 6 425 0
	stfs 13,12(1)
	.loc 6 426 0
	stfs 12,16(1)
.LBE8211:
.LBE8212:
	.loc 4 1736 0
	beq- 7,.L576
	.loc 4 1736 0 is_stmt 0 discriminator 1
	lwz 0,3956(31)
	cmpwi 7,0,5
	beq- 7,.L597
.L577:
	.loc 4 1737 0 is_stmt 1 discriminator 5
	lis 9,.LC20@ha
	addi 30,1,8
	lfs 1,.LC20@l(9)
	mr 3,29
.LVL1131:
	mr 4,30
	bl _ZNK8idEntity11GetFloorPosEfR6idVec3
.L576:
	.loc 4 1740 0
	mr 3,31
	mr 4,30
	li 5,5
	bl _ZNK4idAI10ReachedPosERK6idVec313moveCommand_t
	cmpwi 0,3,0
	bne- 0,.L598
	.loc 4 1746 0
	lwz 0,3944(31)
	.loc 4 1745 0
	stw 3,4004(31)
	.loc 4 1746 0
	cmpwi 7,0,0
	beq- 7,.L579
	.loc 4 1747 0
	lis 9,.LC78@ha
	mr 4,30
	lfs 31,.LC78@l(9)
	mr 3,31
	.loc 4 1750 0
	addi 28,31,4216
	.loc 4 1747 0
	fmr 1,31
	bl _ZNK4idAI21PointReachableAreaNumERK6idVec3f
	.loc 4 1748 0
	mr 5,30
	.loc 4 1747 0
	mr 4,3
	.loc 4 1748 0
	lwz 3,3944(31)
	.loc 4 1747 0
	stw 4,4004(31)
	.loc 4 1748 0
	lwz 9,0(3)
	lwz 0,36(9)
	mtctr 0
	bctrl
	.loc 4 1750 0
	li 4,0
	mr 3,28
	bl _ZNK15idPhysics_Actor9GetOriginEi
	fmr 1,31
	mr 4,3
	mr 3,31
	bl _ZNK4idAI21PointReachableAreaNumERK6idVec3f
	.loc 4 1751 0
	li 4,0
	.loc 4 1750 0
	mr 27,3
.LVL1132:
	.loc 4 1751 0
	mr 3,28
.LVL1133:
	bl _ZNK15idPhysics_Actor9GetOriginEi
	lwz 7,4004(31)
	mr 6,3
	addi 4,1,20
	mr 3,31
	mr 5,27
	mr 8,30
	bl _ZNK4idAI10PathToGoalER9aasPath_siRK6idVec3iS4_
	cmpwi 7,3,0
	bne- 7,.L580
.LVL1134:
.LBB8213:
.LBB8214:
	.loc 18 237 0
	lwz 9,5240(31)
	cmpwi 7,9,0
	beq- 7,.L575
.LVL1135:
.L595:
.LBE8214:
.LBE8213:
.LBB8215:
.LBB8216:
	.loc 18 238 0
	li 0,1
	stw 0,0(9)
.L575:
.LBE8216:
.LBE8215:
.LBE8252:
	.loc 4 1789 0
	lwz 0,92(1)
	lwz 27,60(1)
	mtlr 0
	lwz 28,64(1)
	lwz 29,68(1)
.LVL1136:
	lwz 30,72(1)
.LVL1137:
	lwz 31,76(1)
.LVL1138:
	lfd 31,80(1)
	addi 1,1,88
	.cfi_remember_state
.LCFI157:
	.cfi_def_cfa_offset 0
	.cfi_restore 63
	.cfi_restore 31
	.cfi_restore 30
	.cfi_restore 29
	.cfi_restore 28
	.cfi_restore 27
	blr
.LVL1139:
.L579:
.LCFI158:
	.cfi_restore_state
.LBB8253:
	.loc 4 1759 0
	lwz 0,3956(31)
	cmpwi 7,0,5
	beq- 7,.L599
	.loc 4 1767 0
	mr 3,31
	mr 4,30
	bl _ZN4idAI12NewWanderDirERK6idVec3
	cmpwi 7,3,0
	bne+ 7,.L581
	.loc 4 1768 0
	mr 3,31
	li 4,4
	bl _ZN4idAI8StopMoveE12moveStatus_t
.LVL1140:
.LBB8218:
.LBB8217:
	.loc 18 237 0
	lwz 9,5240(31)
	.loc 4 1770 0
	li 3,0
	.loc 18 237 0
	cmpwi 7,9,0
	bne+ 7,.L595
	b .L575
.LVL1141:
.L580:
.LBE8217:
.LBE8218:
	.loc 4 1757 0
	lwz 0,4004(31)
	cmpwi 7,0,0
	beq- 7,.L579
.LVL1142:
.L581:
	.loc 4 1774 0
	lwz 0,3956(31)
	cmpwi 7,0,5
	beq- 7,.L594
	lis 9,gameLocal@ha
	la 9,gameLocal@l(9)
.L583:
	.loc 4 1775 0 discriminator 4
	addis 11,9,0x25
	lwz 0,2004(11)
	stw 0,4008(31)
.LVL1143:
.LBB8219:
.LBB8220:
	.loc 7 608 0 discriminator 4
	lwz 11,4(29)
	addi 0,11,4228
	slwi 0,0,2
	add 9,9,0
	lwz 0,4(9)
.LBE8220:
.LBE8219:
	.loc 4 1777 0 discriminator 4
	li 9,5
	stw 9,3956(31)
.LBB8222:
.LBB8221:
	.loc 7 608 0 discriminator 4
	slwi 0,0,12
	or 11,0,11
	stw 11,3988(31)
.LVL1144:
.L584:
.LBE8221:
.LBE8222:
.LBB8223:
.LBB8224:
	.loc 6 424 0
	lwz 0,8(1)
.LBE8224:
.LBE8223:
	.loc 4 1781 0
	mr 3,29
.LBB8226:
.LBB8225:
	.loc 6 424 0
	stw 0,3964(31)
	.loc 6 425 0
	lwz 0,12(1)
	stw 0,3968(31)
	.loc 6 426 0
	lwz 0,16(1)
	stw 0,3972(31)
.LBE8225:
.LBE8226:
	.loc 4 1781 0
	bl _ZNK8idEntity10GetPhysicsEv
	li 4,0
	lwz 9,0(3)
	lwz 0,132(9)
	mtctr 0
	bctrl
.LVL1145:
.LBB8227:
.LBB8228:
	.loc 18 237 0
	lwz 9,5208(31)
.LBE8228:
.LBE8227:
.LBB8231:
.LBB8232:
	.loc 6 424 0
	lwz 0,0(3)
.LBE8232:
.LBE8231:
	.loc 4 1782 0
	li 10,1
.LBB8236:
.LBB8229:
	.loc 18 237 0
	cmpwi 7,9,0
.LBE8229:
.LBE8236:
.LBB8237:
.LBB8233:
	.loc 6 424 0
	stw 0,3992(31)
.LBE8233:
.LBE8237:
	.loc 4 1783 0
	lwz 0,4496(31)
.LBB8238:
.LBB8234:
	.loc 6 425 0
	lwz 11,4(3)
	stw 11,3996(31)
	.loc 6 426 0
	lwz 11,8(3)
.LBE8234:
.LBE8238:
	.loc 4 1782 0
	stw 10,3960(31)
.LBB8239:
.LBB8235:
	.loc 6 426 0
	stw 11,4000(31)
.LBE8235:
.LBE8239:
	.loc 4 1783 0
	stw 0,4016(31)
.LVL1146:
.LBB8240:
.LBB8230:
	.loc 18 237 0
	beq- 7,.L585
	.loc 18 238 0
	li 0,0
	stw 0,0(9)
.L585:
.LVL1147:
.LBE8230:
.LBE8240:
.LBB8241:
.LBB8242:
	.loc 18 237 0
	lwz 9,5240(31)
	cmpwi 7,9,0
	beq- 7,.L586
	.loc 18 238 0
	li 0,0
	stw 0,0(9)
.L586:
.LVL1148:
.LBE8242:
.LBE8241:
.LBB8243:
.LBB8244:
	.loc 18 237 0
	lwz 9,5220(31)
	.loc 4 1788 0
	li 3,1
.LVL1149:
	.loc 18 237 0
	cmpwi 7,9,0
	beq- 7,.L575
	.loc 18 238 0
	stw 3,0(9)
.LBE8244:
.LBE8243:
.LBE8253:
	.loc 4 1789 0
	lwz 0,92(1)
	lwz 27,60(1)
	mtlr 0
	lwz 28,64(1)
	lwz 29,68(1)
.LVL1150:
	lwz 30,72(1)
.LVL1151:
	lwz 31,76(1)
.LVL1152:
	lfd 31,80(1)
	addi 1,1,88
	.cfi_remember_state
	.cfi_restore 27
	.cfi_restore 28
	.cfi_restore 29
	.cfi_restore 30
	.cfi_restore 31
	.cfi_restore 63
.LCFI159:
	.cfi_def_cfa_offset 0
	blr
.LVL1153:
.L597:
.LCFI160:
	.cfi_restore_state
.LBB8254:
.LBB8245:
.LBB8246:
.LBB8247:
	.loc 6 497 0 discriminator 4
	lfs 11,3992(31)
	fcmpu 7,0,11
	bne- 7,.L577
	.loc 6 497 0 is_stmt 0
	lfs 0,3996(31)
	fcmpu 7,13,0
	bne- 7,.L577
	lfs 0,4000(31)
	fcmpu 7,12,0
	beq- 7,.L576
	b .L577
.LVL1154:
.L599:
.LBE8247:
.LBE8246:
.LBE8245:
	.loc 4 1760 0 is_stmt 1
	lwz 0,3944(31)
	.loc 4 1764 0
	li 3,0
	.loc 4 1760 0
	cmpwi 7,0,0
	bne+ 7,.L575
.LVL1155:
.LBB8248:
.LBB8249:
	.loc 6 424 0
	lwz 0,8(1)
	stw 0,3964(31)
	.loc 6 425 0
	lwz 0,12(1)
	stw 0,3968(31)
	.loc 6 426 0
	lwz 0,16(1)
	stw 0,3972(31)
	b .L575
.LVL1156:
.L598:
.LBE8249:
.LBE8248:
	.loc 4 1741 0
	mr 3,31
	li 4,0
	bl _ZN4idAI8StopMoveE12moveStatus_t
.LBE8254:
	.loc 4 1789 0
	lwz 0,92(1)
	lwz 27,60(1)
.LBB8255:
	.loc 4 1742 0
	li 3,1
.LBE8255:
	.loc 4 1789 0
	mtlr 0
	lwz 28,64(1)
	lwz 29,68(1)
.LVL1157:
	lwz 30,72(1)
.LVL1158:
	lwz 31,76(1)
.LVL1159:
	lfd 31,80(1)
	addi 1,1,88
	.cfi_remember_state
	.cfi_restore 27
	.cfi_restore 28
	.cfi_restore 29
	.cfi_restore 30
	.cfi_restore 31
	.cfi_restore 63
.LCFI161:
	.cfi_def_cfa_offset 0
	blr
.LVL1160:
.L596:
.LCFI162:
	.cfi_restore_state
.LBB8256:
	.loc 4 1731 0
	li 4,3
.LVL1161:
	bl _ZN4idAI8StopMoveE12moveStatus_t
.LVL1162:
.LBE8256:
	.loc 4 1789 0
	lwz 0,92(1)
	lwz 27,60(1)
.LBB8257:
	.loc 4 1732 0
	li 3,0
.LBE8257:
	.loc 4 1789 0
	mtlr 0
	lwz 28,64(1)
	lwz 29,68(1)
.LVL1163:
	lwz 30,72(1)
	lwz 31,76(1)
.LVL1164:
	lfd 31,80(1)
	addi 1,1,88
	.cfi_remember_state
	.cfi_restore 27
	.cfi_restore 28
	.cfi_restore 29
	.cfi_restore 30
	.cfi_restore 31
	.cfi_restore 63
.LCFI163:
	.cfi_def_cfa_offset 0
	blr
.LVL1165:
.L594:
.LCFI164:
	.cfi_restore_state
.LBB8258:
.LBB8250:
.LBB8251:
	.loc 7 634 0 discriminator 2
	lwz 0,3988(31)
	.loc 7 635 0 discriminator 2
	lis 9,gameLocal@ha
	la 9,gameLocal@l(9)
	.loc 7 634 0 discriminator 2
	rlwinm 11,0,0,20,31
.LVL1166:
	.loc 7 635 0 discriminator 2
	srawi 0,0,12
	addi 10,11,4228
	slwi 10,10,2
	add 10,9,10
	lwz 10,4(10)
	cmpw 7,10,0
	bne+ 7,.L583
	.loc 7 636 0
	addi 11,11,132
.LVL1167:
	slwi 11,11,2
.LVL1168:
	add 11,9,11
.LBE8251:
.LBE8250:
	.loc 4 1774 0
	lwz 0,4(11)
	cmpw 7,29,0
	beq- 7,.L584
	b .L583
.LBE8258:
	.cfi_endproc
.LFE2885:
	.size	_ZN4idAI12MoveToEntityEP8idEntity, .-_ZN4idAI12MoveToEntityEP8idEntity
	.align 2
	.globl _ZN4idAI11MoveToEnemyEv
	.type	_ZN4idAI11MoveToEnemyEv, @function
_ZN4idAI11MoveToEnemyEv:
.LFB2884:
	.loc 4 1653 0
	.cfi_startproc
.LVL1169:
	mflr 0
	stwu 1,-88(1)
.LCFI165:
	.cfi_def_cfa_offset 88
	.cfi_register 65, 0
	stw 30,72(1)
.LBB8259:
.LBB8260:
.LBB8261:
	.loc 7 635 0
	lis 30,gameLocal@ha
	.cfi_offset 30, -16
.LBE8261:
.LBE8260:
.LBE8259:
	.loc 4 1653 0
	stw 31,76(1)
.LBB8302:
.LBB8265:
.LBB8262:
	.loc 7 635 0
	la 30,gameLocal@l(30)
.LBE8262:
.LBE8265:
.LBE8302:
	.loc 4 1653 0
	stw 0,92(1)
	mr 31,3
	.cfi_offset 65, 4
	.cfi_offset 31, -12
.LVL1170:
	stfd 31,80(1)
	stw 27,60(1)
	stw 28,64(1)
	stw 29,68(1)
.LBB8303:
.LBB8266:
.LBB8263:
	.loc 7 634 0
	lwz 0,5120(3)
	rlwinm 9,0,0,20,31
.LVL1171:
	.loc 7 635 0
	srawi 0,0,12
	addi 11,9,4228
	slwi 11,11,2
	add 11,30,11
	lwz 11,4(11)
	cmpw 7,11,0
	beq- 7,.L622
	.cfi_offset 29, -20
	.cfi_offset 28, -24
	.cfi_offset 27, -28
	.cfi_offset 63, -8
.LVL1172:
.L601:
.LBE8263:
.LBE8266:
	.loc 4 1659 0
	mr 3,31
.LVL1173:
	li 4,3
	bl _ZN4idAI8StopMoveE12moveStatus_t
	.loc 4 1660 0
	li 3,0
.L603:
.LBE8303:
	.loc 4 1718 0
	lwz 0,92(1)
	lwz 27,60(1)
	mtlr 0
	lwz 28,64(1)
	lwz 29,68(1)
	lwz 30,72(1)
	lwz 31,76(1)
.LVL1174:
	lfd 31,80(1)
	addi 1,1,88
	.cfi_remember_state
.LCFI166:
	.cfi_def_cfa_offset 0
	.cfi_restore 63
	.cfi_restore 31
	.cfi_restore 30
	.cfi_restore 29
	.cfi_restore 28
	.cfi_restore 27
	blr
.LVL1175:
.L622:
.LCFI167:
	.cfi_restore_state
.LBB8304:
.LBB8267:
.LBB8264:
	.loc 7 636 0
	addi 9,9,132
.LVL1176:
	slwi 9,9,2
.LVL1177:
	add 9,30,9
	lwz 29,4(9)
.LBE8264:
.LBE8267:
	.loc 4 1658 0
	cmpwi 7,29,0
	beq- 7,.L601
	.loc 4 1663 0
	addi 4,3,5148
	li 5,3
	bl _ZNK4idAI10ReachedPosERK6idVec313moveCommand_t
.LVL1178:
	cmpwi 0,3,0
	bne- 0,.L623
	.loc 4 1676 0
	lwz 0,3944(31)
	.loc 4 1673 0
	lwz 11,5148(31)
	.loc 4 1676 0
	cmpwi 7,0,0
	.loc 4 1673 0
	lwz 9,5152(31)
	lwz 0,5156(31)
	stw 11,8(1)
	stw 9,12(1)
	stw 0,16(1)
	.loc 4 1675 0
	stw 3,4004(31)
	.loc 4 1676 0
	beq- 7,.L607
	.loc 4 1677 0
	lis 9,.LC78@ha
	addi 4,1,8
	lfs 31,.LC78@l(9)
	mr 3,31
	.loc 4 1680 0
	addi 28,31,4216
	.loc 4 1677 0
	fmr 1,31
	bl _ZNK4idAI21PointReachableAreaNumERK6idVec3f
	.loc 4 1678 0
	addi 5,1,8
	.loc 4 1677 0
	mr 4,3
	.loc 4 1678 0
	lwz 3,3944(31)
	.loc 4 1677 0
	stw 4,4004(31)
	.loc 4 1678 0
	lwz 9,0(3)
	lwz 0,36(9)
	mtctr 0
	bctrl
	.loc 4 1680 0
	li 4,0
	mr 3,28
	bl _ZNK15idPhysics_Actor9GetOriginEi
	fmr 1,31
	mr 4,3
	mr 3,31
	bl _ZNK4idAI21PointReachableAreaNumERK6idVec3f
	.loc 4 1681 0
	li 4,0
	.loc 4 1680 0
	mr 27,3
.LVL1179:
	.loc 4 1681 0
	mr 3,28
.LVL1180:
	bl _ZNK15idPhysics_Actor9GetOriginEi
	lwz 7,4004(31)
	mr 6,3
	addi 4,1,20
	mr 3,31
	mr 5,27
	addi 8,1,8
	bl _ZNK4idAI10PathToGoalER9aasPath_siRK6idVec3iS4_
	cmpwi 7,3,0
	bne- 7,.L608
.LVL1181:
.LBB8268:
.LBB8269:
	.loc 18 237 0
	lwz 9,5240(31)
	cmpwi 7,9,0
	beq- 7,.L603
.LVL1182:
.L619:
.LBE8269:
.LBE8268:
.LBB8270:
.LBB8271:
	.loc 18 238 0
	li 0,1
	stw 0,0(9)
.LBE8271:
.LBE8270:
.LBE8304:
	.loc 4 1718 0
	lwz 0,92(1)
	lwz 27,60(1)
	mtlr 0
	lwz 28,64(1)
	lwz 29,68(1)
	lwz 30,72(1)
	lwz 31,76(1)
.LVL1183:
	lfd 31,80(1)
	addi 1,1,88
	.cfi_remember_state
	.cfi_restore 27
	.cfi_restore 28
	.cfi_restore 29
	.cfi_restore 30
	.cfi_restore 31
	.cfi_restore 63
.LCFI168:
	.cfi_def_cfa_offset 0
	blr
.LVL1184:
.L623:
.LCFI169:
	.cfi_restore_state
.LBB8305:
	.loc 4 1664 0
	mr 3,31
	addi 4,31,5124
	li 5,3
	bl _ZNK4idAI10ReachedPosERK6idVec313moveCommand_t
	cmpwi 7,3,0
	beq- 7,.L621
.LVL1185:
.LBB8273:
.LBB8274:
	.loc 18 249 0 discriminator 2
	lwz 9,5196(31)
	cmpwi 7,9,0
	beq- 7,.L621
.LBE8274:
.LBE8273:
	.loc 4 1664 0
	lwz 0,0(9)
