	.file	"AI_events.cpp"
	.section	".text"
.Ltext0:
	.section	.text._ZN14idFixedWinding5ClearEv,"axG",@progbits,_ZN14idFixedWinding5ClearEv,comdat
	.align 2
	.weak	_ZN14idFixedWinding5ClearEv
	.type	_ZN14idFixedWinding5ClearEv, @function
_ZN14idFixedWinding5ClearEv:
.LFB1502:
	.file 1 "d:/Data/Nintendo/DoomGX/src/game/ai/../../idlib/../idlib/geometry/Winding.h"
	.loc 1 398 0
	.cfi_startproc
.LVL0:
	.loc 1 399 0
	li 0,0
	.loc 1 400 0
	.loc 1 399 0
	stw 0,4(3)
	.loc 1 400 0
	blr
	.cfi_endproc
.LFE1502:
	.size	_ZN14idFixedWinding5ClearEv, .-_ZN14idFixedWinding5ClearEv
	.section	".text"
	.align 2
	.globl _ZNK4idAI7GetTypeEv
	.type	_ZNK4idAI7GetTypeEv, @function
_ZNK4idAI7GetTypeEv:
.LFB2811:
	.file 2 "d:/Data/Nintendo/DoomGX/src/game/ai/AI_events.cpp"
	.loc 2 164 0
	.cfi_startproc
.LVL1:
	.loc 2 164 0
	lis 3,.LANCHOR0@ha
.LVL2:
	la 3,.LANCHOR0@l(3)
	blr
	.cfi_endproc
.LFE2811:
	.size	_ZNK4idAI7GetTypeEv, .-_ZNK4idAI7GetTypeEv
	.align 2
	.globl _ZN4idAI17Event_AllowDamageEv
	.type	_ZN4idAI17Event_AllowDamageEv, @function
_ZN4idAI17Event_AllowDamageEv:
.LFB2849:
	.loc 2 884 0
	.cfi_startproc
.LVL3:
	.loc 2 885 0
	lwz 0,192(3)
	li 9,1
	.loc 2 886 0
	.loc 2 885 0
	rlwimi 0,9,29,2,2
	stw 0,192(3)
	.loc 2 886 0
	blr
	.cfi_endproc
.LFE2849:
	.size	_ZN4idAI17Event_AllowDamageEv, .-_ZN4idAI17Event_AllowDamageEv
	.align 2
	.globl _ZN4idAI18Event_IgnoreDamageEv
	.type	_ZN4idAI18Event_IgnoreDamageEv, @function
_ZN4idAI18Event_IgnoreDamageEv:
.LFB2850:
	.loc 2 893 0
	.cfi_startproc
.LVL4:
	.loc 2 894 0
	lwz 0,192(3)
	li 9,0
	.loc 2 895 0
	.loc 2 894 0
	rlwimi 0,9,29,2,2
	stw 0,192(3)
	.loc 2 895 0
	blr
	.cfi_endproc
.LFE2850:
	.size	_ZN4idAI18Event_IgnoreDamageEv, .-_ZN4idAI18Event_IgnoreDamageEv
	.align 2
	.globl _ZN4idAI13Event_PreBurnEv
	.type	_ZN4idAI13Event_PreBurnEv, @function
_ZN4idAI13Event_PreBurnEv:
.LFB2900:
	.loc 2 1836 0
	.cfi_startproc
.LVL5:
	.loc 2 1838 0
	li 0,1
	stb 0,397(3)
	.loc 2 1839 0
	blr
	.cfi_endproc
.LFE2900:
	.size	_ZN4idAI13Event_PreBurnEv, .-_ZN4idAI13Event_PreBurnEv
	.align 2
	.globl _ZN4idAI14Event_SaveMoveEv
	.type	_ZN4idAI14Event_SaveMoveEv, @function
_ZN4idAI14Event_SaveMoveEv:
.LFB2909:
	.loc 2 1965 0
	.cfi_startproc
.LVL6:
	stwu 1,-40(1)
.LCFI0:
	.cfi_def_cfa_offset 40
.LBB1804:
.LBB1805:
.LBB1806:
.LBB1807:
	.file 3 "d:/Data/Nintendo/DoomGX/src/game/ai/../../idlib/../idlib/math/Vector.h"
	.loc 3 425 0
	lwz 12,3980(3)
.LBE1807:
.LBE1806:
.LBE1805:
.LBE1804:
	.loc 2 1965 0
	stw 25,12(1)
	stw 26,16(1)
	stw 27,20(1)
	stw 28,24(1)
	stw 29,28(1)
	stw 30,32(1)
	stw 31,36(1)
.LBB1828:
.LBB1826:
	.file 4 "d:/Data/Nintendo/DoomGX/src/game/ai/../ai/AI.h"
	.loc 4 170 0
	lwz 25,3952(3)
	.cfi_offset 31, -4
	.cfi_offset 30, -8
	.cfi_offset 29, -12
	.cfi_offset 28, -16
	.cfi_offset 27, -20
	.cfi_offset 26, -24
	.cfi_offset 25, -28
	lwz 26,3956(3)
	lwz 27,3960(3)
.LBB1811:
.LBB1812:
	.loc 3 424 0
	lwz 28,3964(3)
	.loc 3 425 0
	lwz 29,3968(3)
	.loc 3 426 0
	lwz 30,3972(3)
.LBE1812:
.LBE1811:
.LBB1814:
.LBB1808:
	.loc 3 424 0
	lwz 31,3976(3)
.LBE1808:
.LBE1814:
	.loc 4 170 0
	lwz 5,3988(3)
.LBB1815:
.LBB1816:
	.loc 3 424 0
	lwz 6,3992(3)
	.loc 3 425 0
	lwz 7,3996(3)
	.loc 3 426 0
	lwz 8,4000(3)
.LBE1816:
.LBE1815:
	.loc 4 170 0
	lwz 10,4004(3)
	lwz 11,4008(3)
	lwz 9,4012(3)
	lwz 0,4016(3)
.LBB1818:
.LBB1809:
	.loc 3 426 0
	lwz 4,3984(3)
.LBE1809:
.LBE1818:
	.loc 4 170 0
	stw 25,4060(3)
	stw 26,4064(3)
	stw 27,4068(3)
.LVL7:
.LBB1819:
.LBB1813:
	.loc 3 424 0
	stw 28,4072(3)
	.loc 3 425 0
	stw 29,4076(3)
	.loc 3 426 0
	stw 30,4080(3)
.LVL8:
.LBE1813:
.LBE1819:
.LBB1820:
.LBB1810:
	.loc 3 424 0
	stw 31,4084(3)
	.loc 3 425 0
	stw 12,4088(3)
	.loc 3 426 0
	stw 4,4092(3)
.LBE1810:
.LBE1820:
	.loc 4 170 0
	stw 5,4096(3)
.LVL9:
.LBB1821:
.LBB1817:
	.loc 3 424 0
	stw 6,4100(3)
	.loc 3 425 0
	stw 7,4104(3)
	.loc 3 426 0
	stw 8,4108(3)
.LBE1817:
.LBE1821:
	.loc 4 170 0
	stw 10,4112(3)
	stw 11,4116(3)
	stw 9,4120(3)
	stw 0,4124(3)
	lwz 12,4020(3)
	lwz 4,4024(3)
	lwz 5,4028(3)
	lwz 6,4032(3)
	lwz 7,4036(3)
.LBB1822:
.LBB1823:
	.loc 3 424 0
	lwz 8,4040(3)
	.loc 3 425 0
	lwz 10,4044(3)
	.loc 3 426 0
	lwz 11,4048(3)
.LBE1823:
.LBE1822:
	.loc 4 170 0
	lwz 9,4052(3)
	lwz 0,4056(3)
.LBE1826:
.LBE1828:
	.loc 2 1967 0
	lwz 25,12(1)
	lwz 26,16(1)
	lwz 27,20(1)
	lwz 28,24(1)
	lwz 29,28(1)
	lwz 30,32(1)
	lwz 31,36(1)
.LBB1829:
.LBB1827:
	.loc 4 170 0
	stw 12,4128(3)
	stw 4,4132(3)
	stw 5,4136(3)
	stw 6,4140(3)
	stw 7,4144(3)
.LVL10:
.LBB1825:
.LBB1824:
	.loc 3 424 0
	stw 8,4148(3)
	.loc 3 425 0
	stw 10,4152(3)
	.loc 3 426 0
	stw 11,4156(3)
.LBE1824:
.LBE1825:
	.loc 4 170 0
	stw 9,4160(3)
	stw 0,4164(3)
.LBE1827:
.LBE1829:
	.loc 2 1967 0
	addi 1,1,40
.LCFI1:
	.cfi_def_cfa_offset 0
	.cfi_restore 31
	.cfi_restore 30
	.cfi_restore 29
	.cfi_restore 28
	.cfi_restore 27
	.cfi_restore 26
	.cfi_restore 25
	blr
	.cfi_endproc
.LFE2909:
	.size	_ZN4idAI14Event_SaveMoveEv, .-_ZN4idAI14Event_SaveMoveEv
	.align 2
	.globl _ZN4idAI19Event_AllowMovementEf
	.type	_ZN4idAI19Event_AllowMovementEf, @function
_ZN4idAI19Event_AllowMovementEf:
.LFB2912:
	.loc 2 2042 0
	.cfi_startproc
.LVL11:
	.loc 2 2043 0
	lis 9,.LC0@ha
	lfs 0,.LC0@l(9)
	fcmpu 7,1,0
	crnot 30,30
	mfcr 0
	rlwinm 0,0,31,1
	stb 0,4544(3)
	.loc 2 2044 0
	blr
	.cfi_endproc
.LFE2912:
	.size	_ZN4idAI19Event_AllowMovementEf, .-_ZN4idAI19Event_AllowMovementEf
	.align 2
	.globl _ZN4idAI15Event_JumpFrameEv
	.type	_ZN4idAI15Event_JumpFrameEv, @function
_ZN4idAI15Event_JumpFrameEv:
.LFB2913:
	.loc 2 2051 0
	.cfi_startproc
.LVL12:
.LBB1830:
.LBB1831:
	.file 5 "d:/Data/Nintendo/DoomGX/src/game/ai/../script/Script_Program.h"
	.loc 5 237 0
	lwz 9,5224(3)
	cmpwi 7,9,0
	beqlr- 7
	.loc 5 238 0
	li 0,1
	stw 0,0(9)
	blr
.LBE1831:
.LBE1830:
	.cfi_endproc
.LFE2913:
	.size	_ZN4idAI15Event_JumpFrameEv, .-_ZN4idAI15Event_JumpFrameEv
	.align 2
	.globl _ZN4idAI19Event_EnableGravityEv
	.type	_ZN4idAI19Event_EnableGravityEv, @function
_ZN4idAI19Event_EnableGravityEv:
.LFB2916:
	.loc 2 2080 0
	.cfi_startproc
.LVL13:
	.loc 2 2081 0
	li 0,0
	.loc 2 2082 0
	.loc 2 2081 0
	stb 0,4546(3)
	.loc 2 2082 0
	blr
	.cfi_endproc
.LFE2916:
	.size	_ZN4idAI19Event_EnableGravityEv, .-_ZN4idAI19Event_EnableGravityEv
	.align 2
	.globl _ZN4idAI20Event_DisableGravityEv
	.type	_ZN4idAI20Event_DisableGravityEv, @function
_ZN4idAI20Event_DisableGravityEv:
.LFB2917:
	.loc 2 2089 0
	.cfi_startproc
.LVL14:
	.loc 2 2090 0
	li 0,1
	stb 0,4546(3)
	.loc 2 2091 0
	blr
	.cfi_endproc
.LFE2917:
	.size	_ZN4idAI20Event_DisableGravityEv, .-_ZN4idAI20Event_DisableGravityEv
	.align 2
	.globl _ZN4idAI18Event_EnableAFPushEv
	.type	_ZN4idAI18Event_EnableAFPushEv, @function
_ZN4idAI18Event_EnableAFPushEv:
.LFB2918:
	.loc 2 2098 0
	.cfi_startproc
.LVL15:
	.loc 2 2099 0
	li 0,1
	stb 0,4547(3)
	.loc 2 2100 0
	blr
	.cfi_endproc
.LFE2918:
	.size	_ZN4idAI18Event_EnableAFPushEv, .-_ZN4idAI18Event_EnableAFPushEv
	.align 2
	.globl _ZN4idAI19Event_DisableAFPushEv
	.type	_ZN4idAI19Event_DisableAFPushEv, @function
_ZN4idAI19Event_DisableAFPushEv:
.LFB2919:
	.loc 2 2107 0
	.cfi_startproc
.LVL16:
	.loc 2 2108 0
	li 0,0
	.loc 2 2109 0
	.loc 2 2108 0
	stb 0,4547(3)
	.loc 2 2109 0
	blr
	.cfi_endproc
.LFE2919:
	.size	_ZN4idAI19Event_DisableAFPushEv, .-_ZN4idAI19Event_DisableAFPushEv
	.align 2
	.globl _ZN4idAI17Event_SetFlySpeedEf
	.type	_ZN4idAI17Event_SetFlySpeedEf, @function
_ZN4idAI17Event_SetFlySpeedEf:
.LFB2920:
	.loc 2 2116 0
	.cfi_startproc
.LVL17:
	.loc 2 2117 0
	lfs 13,4016(3)
	lfs 0,4496(3)
	fcmpu 7,13,0
	bne- 7,.L16
	.loc 2 2118 0
	stfs 1,4016(3)
.L16:
	.loc 2 2120 0
	stfs 1,4496(3)
	.loc 2 2121 0
	blr
	.cfi_endproc
.LFE2920:
	.size	_ZN4idAI17Event_SetFlySpeedEf, .-_ZN4idAI17Event_SetFlySpeedEf
	.align 2
	.globl _ZN4idAI18Event_SetFlyOffsetEi
	.type	_ZN4idAI18Event_SetFlyOffsetEi, @function
_ZN4idAI18Event_SetFlyOffsetEi:
.LFB2921:
	.loc 2 2128 0
	.cfi_startproc
.LVL18:
	.loc 2 2129 0
	stw 4,4512(3)
	.loc 2 2130 0
	blr
	.cfi_endproc
.LFE2921:
	.size	_ZN4idAI18Event_SetFlyOffsetEi, .-_ZN4idAI18Event_SetFlyOffsetEi
	.align 2
	.globl _ZN4idAI18Event_LookAtEntityEP8idEntityf
	.type	_ZN4idAI18Event_LookAtEntityEP8idEntityf, @function
_ZN4idAI18Event_LookAtEntityEP8idEntityf:
.LFB2929:
	.loc 2 2278 0
	.cfi_startproc
.LVL19:
	.loc 2 2279 0
	cmpw 7,3,4
	.loc 2 2278 0
	stwu 1,-16(1)
.LCFI2:
	.cfi_def_cfa_offset 16
	.loc 2 2279 0
	beq- 7,.L29
.LVL20:
.L19:
.LBB1832:
.LBB1833:
	.file 6 "d:/Data/Nintendo/DoomGX/src/game/ai/../Game_local.h"
	.loc 6 634 0
	lwz 0,4696(3)
	.loc 6 635 0
	lis 11,gameLocal@ha
	la 11,gameLocal@l(11)
	.loc 6 634 0
	rlwinm 9,0,0,20,31
.LVL21:
	.loc 6 635 0
	srawi 0,0,12
	addi 10,9,4228
	slwi 10,10,2
	add 10,11,10
	lwz 10,4(10)
	cmpw 7,10,0
	.loc 6 638 0
	li 0,0
	.loc 6 635 0
	beq- 7,.L30
.LBE1833:
.LBE1832:
	.loc 2 2283 0
	cmpw 7,4,0
	beq- 7,.L28
.LVL22:
.L32:
	lis 9,gameLocal+2424832@ha
	la 9,gameLocal+2424832@l(9)
.L21:
.LVL23:
.LBB1835:
.LBB1836:
	.loc 6 605 0 discriminator 4
	cmpwi 7,4,0
	beq- 7,.L31
	.loc 6 608 0
	lwz 10,4(4)
	addi 0,10,4228
	slwi 0,0,2
	add 11,11,0
	lwz 0,4(11)
	slwi 0,0,12
	or 10,0,10
	stw 10,4696(3)
.L24:
.LBE1836:
.LBE1835:
	.loc 2 2286 0
	lis 11,_ZN6idMath8M_SEC2MSE@ha
	.loc 2 2285 0
	lwz 0,2004(9)
	.loc 2 2286 0
	lfs 0,_ZN6idMath8M_SEC2MSE@l(11)
.LVL24:
.LBB1838:
.LBB1839:
	.file 7 "d:/Data/Nintendo/DoomGX/src/game/ai/../../idlib/../idlib/math/Math.h"
	.loc 7 825 0
	addi 11,1,12
.LBE1839:
.LBE1838:
	.loc 2 2285 0
	stw 0,4716(3)
.LBB1842:
.LBB1840:
	.loc 7 825 0
	fctiwz 13,0
	stfiwx 13,0,11
.LBE1840:
.LBE1842:
	.loc 2 2286 0
	lwz 11,2004(9)
.LBB1843:
.LBB1841:
	.loc 7 825 0
	lwz 0,12(1)
.LBE1841:
.LBE1843:
	.loc 2 2286 0
	add 0,11,0
	stw 0,4720(3)
	.loc 2 2287 0
	li 0,0
	stw 0,3680(3)
	lwz 10,2004(9)
.LVL25:
.L22:
	.loc 2 2290 0
	fmuls 0,1,0
.LVL26:
.LBB1844:
.LBB1845:
	.loc 7 825 0
	addi 9,1,8
	fctiwz 0,0
.LVL27:
	stfiwx 0,0,9
	lwz 0,8(1)
.LBE1845:
.LBE1844:
	.loc 2 2291 0
	addi 1,1,16
	.cfi_remember_state
.LCFI3:
	.cfi_def_cfa_offset 0
	.loc 2 2290 0
	add 0,0,10
	stw 0,4712(3)
	.loc 2 2291 0
	blr
.LVL28:
.L30:
.LCFI4:
	.cfi_restore_state
.LBB1846:
.LBB1834:
	.loc 6 636 0
	addi 9,9,132
.LVL29:
	slwi 9,9,2
.LVL30:
	add 9,11,9
	lwz 0,4(9)
.LBE1834:
.LBE1846:
	.loc 2 2283 0
	cmpw 7,4,0
	bne+ 7,.L32
.L28:
	.loc 2 2283 0 is_stmt 0 discriminator 2
	addis 9,11,0x25
	lwz 0,4712(3)
	lwz 10,2004(9)
	cmpw 7,0,10
	blt- 7,.L21
	.loc 2 2283 0
	lis 9,_ZN6idMath8M_SEC2MSE@ha
	lfs 0,_ZN6idMath8M_SEC2MSE@l(9)
	b .L22
.LVL31:
.L31:
.LBB1847:
.LBB1837:
	.loc 6 606 0 is_stmt 1
	stw 4,4696(3)
	b .L24
.LVL32:
.L29:
.LBE1837:
.LBE1847:
	.loc 2 2280 0
	li 4,0
.LVL33:
	b .L19
	.cfi_endproc
.LFE2929:
	.size	_ZN4idAI18Event_LookAtEntityEP8idEntityf, .-_ZN4idAI18Event_LookAtEntityEP8idEntityf
	.align 2
	.globl _ZN4idAI17Event_LookAtEnemyEf
	.type	_ZN4idAI17Event_LookAtEnemyEf, @function
_ZN4idAI17Event_LookAtEnemyEf:
.LFB2930:
	.loc 2 2298 0
	.cfi_startproc
.LVL34:
.LBB1848:
.LBB1849:
.LBB1850:
	.loc 6 634 0
	lwz 0,5120(3)
	.loc 6 635 0
	lis 9,gameLocal@ha
.LBE1850:
.LBE1849:
.LBE1848:
	.loc 2 2298 0
	stwu 1,-16(1)
.LCFI5:
	.cfi_def_cfa_offset 16
.LBB1883:
.LBB1855:
.LBB1851:
	.loc 6 635 0
	la 9,gameLocal@l(9)
	.loc 6 634 0
	rlwinm 11,0,0,20,31
.LVL35:
	.loc 6 635 0
	srawi 0,0,12
	addi 10,11,4228
	slwi 10,10,2
	add 10,9,10
	lwz 10,4(10)
	cmpw 7,10,0
	.loc 6 638 0
	li 10,0
	.loc 6 635 0
	beq- 7,.L45
.LVL36:
.LBE1851:
.LBE1855:
.LBB1856:
.LBB1857:
	.loc 6 634 0
	lwz 0,4696(3)
	.loc 6 638 0
	li 11,0
.LVL37:
	.loc 6 634 0
	rlwinm 8,0,0,20,31
.LVL38:
	.loc 6 635 0
	srawi 0,0,12
	addi 7,8,4228
	slwi 7,7,2
	add 7,9,7
	lwz 7,4(7)
	cmpw 7,7,0
	beq- 7,.L46
.LVL39:
.L35:
.LBE1857:
.LBE1856:
	.loc 2 2302 0
	cmpw 7,10,11
	beq- 7,.L43
.LVL40:
.L47:
	lis 11,gameLocal+2424832@ha
	la 11,gameLocal+2424832@l(11)
.L36:
.LVL41:
.LBB1862:
.LBB1863:
	.loc 6 605 0 discriminator 4
	cmpwi 7,10,0
	beq- 7,.L44
	.loc 6 608 0
	lwz 10,4(10)
.LVL42:
	addi 0,10,4228
	slwi 0,0,2
	add 9,9,0
	lwz 0,4(9)
	slwi 0,0,12
	or 10,0,10
.L44:
.LBE1863:
.LBE1862:
	.loc 2 2305 0
	lis 9,_ZN6idMath8M_SEC2MSE@ha
.LBB1865:
.LBB1864:
	.loc 6 608 0
	stw 10,4696(3)
.LBE1864:
.LBE1865:
	.loc 2 2305 0
	lfs 0,_ZN6idMath8M_SEC2MSE@l(9)
.LVL43:
.LBB1866:
.LBB1867:
	.loc 7 825 0
	addi 9,1,12
.LBE1867:
.LBE1866:
	.loc 2 2304 0
	lwz 0,2004(11)
.LBB1871:
.LBB1868:
	.loc 7 825 0
	fctiwz 13,0
.LBE1868:
.LBE1871:
	.loc 2 2304 0
	stw 0,4716(3)
.LBB1872:
.LBB1869:
	.loc 7 825 0
	stfiwx 13,0,9
.LBE1869:
.LBE1872:
	.loc 2 2305 0
	lwz 9,2004(11)
.LBB1873:
.LBB1870:
	.loc 7 825 0
	lwz 0,12(1)
.LBE1870:
.LBE1873:
	.loc 2 2305 0
	add 0,9,0
	stw 0,4720(3)
	.loc 2 2306 0
	li 0,0
	stw 0,3680(3)
	lwz 8,2004(11)
.LVL44:
.L37:
	.loc 2 2309 0
	fmuls 0,1,0
.LVL45:
.LBB1874:
.LBB1875:
	.loc 7 825 0
	addi 9,1,8
	fctiwz 0,0
.LVL46:
	stfiwx 0,0,9
	lwz 0,8(1)
.LBE1875:
.LBE1874:
.LBE1883:
	.loc 2 2310 0
	addi 1,1,16
	.cfi_remember_state
.LCFI6:
	.cfi_def_cfa_offset 0
.LBB1884:
	.loc 2 2309 0
	add 0,8,0
	stw 0,4712(3)
.LBE1884:
	.loc 2 2310 0
	blr
.LVL47:
.L45:
.LCFI7:
	.cfi_restore_state
.LBB1885:
.LBB1876:
.LBB1858:
	.loc 6 634 0
	lwz 0,4696(3)
.LBE1858:
.LBE1876:
.LBB1877:
.LBB1852:
	.loc 6 636 0
	addi 11,11,132
.LVL48:
	slwi 11,11,2
.LVL49:
.LBE1852:
.LBE1877:
.LBB1878:
.LBB1859:
	.loc 6 634 0
	rlwinm 8,0,0,20,31
	.loc 6 635 0
	srawi 0,0,12
	addi 7,8,4228
.LBE1859:
.LBE1878:
.LBB1879:
.LBB1853:
	.loc 6 636 0
	add 11,9,11
.LBE1853:
.LBE1879:
.LBB1880:
.LBB1860:
	.loc 6 635 0
	slwi 7,7,2
.LBE1860:
.LBE1880:
.LBB1881:
.LBB1854:
	.loc 6 636 0
	lwz 10,4(11)
.LVL50:
.LBE1854:
.LBE1881:
.LBB1882:
.LBB1861:
	.loc 6 635 0
	add 7,9,7
	.loc 6 638 0
	li 11,0
	.loc 6 635 0
	lwz 7,4(7)
	cmpw 7,7,0
	bne+ 7,.L35
.LVL51:
.L46:
	.loc 6 636 0
	addi 8,8,132
.LVL52:
	slwi 8,8,2
.LVL53:
	add 8,9,8
	lwz 11,4(8)
.LBE1861:
.LBE1882:
	.loc 2 2302 0
	cmpw 7,10,11
	bne+ 7,.L47
.L43:
	.loc 2 2302 0 is_stmt 0 discriminator 2
	addis 11,9,0x25
	lwz 0,4712(3)
	lwz 8,2004(11)
	cmpw 7,0,8
	blt- 7,.L36
	.loc 2 2302 0
	lis 9,_ZN6idMath8M_SEC2MSE@ha
	lfs 0,_ZN6idMath8M_SEC2MSE@l(9)
	b .L37
.LBE1885:
	.cfi_endproc
.LFE2930:
	.size	_ZN4idAI17Event_LookAtEnemyEf, .-_ZN4idAI17Event_LookAtEnemyEf
	.align 2
	.globl _ZN4idAI17Event_SetJointModEi
	.type	_ZN4idAI17Event_SetJointModEi, @function
_ZN4idAI17Event_SetJointModEi:
.LFB2931:
	.loc 2 2317 0 is_stmt 1
	.cfi_startproc
.LVL54:
	.loc 2 2318 0
	cntlzw 4,4
.LVL55:
	srwi 4,4,5
	xori 4,4,1
	stb 4,4692(3)
	.loc 2 2319 0
	blr
	.cfi_endproc
.LFE2931:
	.size	_ZN4idAI17Event_SetJointModEi, .-_ZN4idAI17Event_SetJointModEi
	.align 2
	.globl _ZN4idAI22Event_WakeOnFlashlightEi
	.type	_ZN4idAI22Event_WakeOnFlashlightEi, @function
_ZN4idAI22Event_WakeOnFlashlightEi:
.LFB2938:
	.loc 2 2415 0
	.cfi_startproc
.LVL56:
	.loc 2 2416 0
	cntlzw 4,4
.LVL57:
	srwi 4,4,5
	xori 4,4,1
	stb 4,5172(3)
	.loc 2 2417 0
	blr
	.cfi_endproc
.LFE2938:
	.size	_ZN4idAI22Event_WakeOnFlashlightEi, .-_ZN4idAI22Event_WakeOnFlashlightEi
	.align 2
	.globl _ZN4idAI17Event_SetTurnRateEf
	.type	_ZN4idAI17Event_SetTurnRateEf, @function
_ZN4idAI17Event_SetTurnRateEf:
.LFB2944:
	.loc 2 2505 0
	.cfi_startproc
.LVL58:
	.loc 2 2506 0
	stfs 1,4196(3)
	.loc 2 2507 0
	blr
	.cfi_endproc
.LFE2944:
	.size	_ZN4idAI17Event_SetTurnRateEf, .-_ZN4idAI17Event_SetTurnRateEf
	.align 2
	.globl _ZN4idAI25Event_AllowHiddenMovementEi
	.type	_ZN4idAI25Event_AllowHiddenMovementEi, @function
_ZN4idAI25Event_AllowHiddenMovementEi:
.LFB2946:
	.loc 2 2537 0
	.cfi_startproc
.LVL59:
	.loc 2 2538 0
	cntlzw 4,4
.LVL60:
	srwi 4,4,5
	xori 4,4,1
	stb 4,4545(3)
	.loc 2 2539 0
	blr
	.cfi_endproc
.LFE2946:
	.size	_ZN4idAI25Event_AllowHiddenMovementEi, .-_ZN4idAI25Event_AllowHiddenMovementEi
	.section	.text._ZN9idWinding5ClearEv,"axG",@progbits,_ZN9idWinding5ClearEv,comdat
	.align 2
	.weak	_ZN9idWinding5ClearEv
	.type	_ZN9idWinding5ClearEv, @function
_ZN9idWinding5ClearEv:
.LFB1473:
	.loc 1 249 0
	.cfi_startproc
.LVL61:
	mflr 0
	stwu 1,-16(1)
.LCFI8:
	.cfi_def_cfa_offset 16
	.cfi_register 65, 0
	stw 31,12(1)
	mr 31,3
	.cfi_offset 31, -4
	stw 0,20(1)
	.loc 1 250 0
	li 0,0
	.cfi_offset 65, 4
	.loc 1 251 0
	lwz 3,8(3)
.LVL62:
	.loc 1 250 0
	stw 0,4(31)
	.loc 1 251 0
	cmpwi 7,3,0
	beq- 7,.L53
	.loc 1 251 0 is_stmt 0 discriminator 1
	bl _ZdaPv
.L53:
	.loc 1 252 0 is_stmt 1
	li 0,0
	stw 0,8(31)
	.loc 1 253 0
	lwz 0,20(1)
	lwz 31,12(1)
.LVL63:
	mtlr 0
	addi 1,1,16
.LCFI9:
	.cfi_def_cfa_offset 0
	.cfi_restore 31
	blr
	.cfi_endproc
.LFE1473:
	.size	_ZN9idWinding5ClearEv, .-_ZN9idWinding5ClearEv
	.section	.text._ZN9idWindingD2Ev,"axG",@progbits,_ZN9idWindingD5Ev,comdat
	.align 2
	.weak	_ZN9idWindingD2Ev
	.type	_ZN9idWindingD2Ev, @function
_ZN9idWindingD2Ev:
.LFB1461:
	.loc 1 183 0
	.cfi_startproc
.LVL64:
	mflr 0
	stwu 1,-16(1)
.LCFI10:
	.cfi_def_cfa_offset 16
	.cfi_register 65, 0
.LBB1887:
	lis 9,_ZTV9idWinding+8@ha
.LBE1887:
	stw 31,12(1)
	mr 31,3
	.cfi_offset 31, -4
	stw 0,20(1)
.LBB1888:
	.loc 1 183 0
	la 0,_ZTV9idWinding+8@l(9)
	.cfi_offset 65, 4
	.loc 1 184 0
	lwz 3,8(3)
.LVL65:
	.loc 1 183 0
	stw 0,0(31)
	.loc 1 184 0
	cmpwi 7,3,0
	beq- 7,.L55
	.loc 1 184 0 is_stmt 0 discriminator 1
	bl _ZdaPv
.L55:
	.loc 1 185 0 is_stmt 1
	li 0,0
	stw 0,8(31)
.LBE1888:
	.loc 1 186 0
	lwz 0,20(1)
	lwz 31,12(1)
.LVL66:
	mtlr 0
	addi 1,1,16
.LCFI11:
	.cfi_def_cfa_offset 0
	.cfi_restore 31
	blr
	.cfi_endproc
.LFE1461:
	.size	_ZN9idWindingD2Ev, .-_ZN9idWindingD2Ev
	.section	".text"
	.align 2
	.globl _ZN4idAI17Event_GetEnemyPosEv
	.type	_ZN4idAI17Event_GetEnemyPosEv, @function
_ZN4idAI17Event_GetEnemyPosEv:
.LFB2882:
	.loc 2 1383 0
	.cfi_startproc
.LVL67:
	mflr 0
	stwu 1,-8(1)
.LCFI12:
	.cfi_def_cfa_offset 8
	.cfi_register 65, 0
	.loc 2 1384 0
	addi 3,3,5124
.LVL68:
	.loc 2 1383 0
	stw 0,12(1)
	.loc 2 1384 0
	.cfi_offset 65, 4
	bl _ZN8idThread12ReturnVectorERK6idVec3
.LVL69:
	.loc 2 1385 0
	lwz 0,12(1)
	addi 1,1,8
.LCFI13:
	.cfi_def_cfa_offset 0
	mtlr 0
	blr
	.cfi_endproc
.LFE2882:
	.size	_ZN4idAI17Event_GetEnemyPosEv, .-_ZN4idAI17Event_GetEnemyPosEv
	.align 2
	.globl _ZN4idAI15Event_GetAnglesEv
	.type	_ZN4idAI15Event_GetAnglesEv, @function
_ZN4idAI15Event_GetAnglesEv:
.LFB2935:
	.loc 2 2378 0
	.cfi_startproc
.LVL70:
	mflr 0
	stwu 1,-24(1)
.LCFI14:
	.cfi_def_cfa_offset 24
	.cfi_register 65, 0
	stw 0,28(1)
.LBB1889:
.LBB1890:
	.loc 3 396 0
	li 0,0
	.cfi_offset 65, 4
	stw 0,8(1)
.LBE1890:
.LBE1889:
	.loc 2 2379 0
	lwz 9,4192(3)
.LVL71:
	addi 3,1,8
.LVL72:
.LBB1892:
.LBB1891:
	.loc 3 398 0
	stw 0,16(1)
	.loc 3 397 0
	stw 9,12(1)
.LBE1891:
.LBE1892:
	.loc 2 2379 0
	bl _ZN8idThread12ReturnVectorERK6idVec3
.LVL73:
	.loc 2 2380 0
	lwz 0,28(1)
	addi 1,1,24
.LCFI15:
	.cfi_def_cfa_offset 0
	mtlr 0
	blr
	.cfi_endproc
.LFE2935:
	.size	_ZN4idAI15Event_GetAnglesEv, .-_ZN4idAI15Event_GetAnglesEv
	.align 2
	.globl _ZN4idAI20Event_GetEnemyEyePosEv
	.type	_ZN4idAI20Event_GetEnemyEyePosEv, @function
_ZN4idAI20Event_GetEnemyEyePosEv:
.LFB2883:
	.loc 2 1392 0
	.cfi_startproc
.LVL74:
	mflr 0
	stwu 1,-24(1)
.LCFI16:
	.cfi_def_cfa_offset 24
	.cfi_register 65, 0
	stw 0,28(1)
.LBB1893:
.LBB1894:
	.loc 3 452 0
	lfs 9,5128(3)
	lfs 12,5140(3)
	lfs 10,5132(3)
	lfs 0,5144(3)
	fadds 12,9,12
	lfs 11,5124(3)
	lfs 13,5136(3)
	fadds 0,10,0
.LVL75:
.LBE1894:
.LBE1893:
	.loc 2 1393 0
	addi 3,1,8
.LVL76:
.LBB1900:
.LBB1899:
.LBB1895:
.LBB1896:
	.loc 3 397 0
	stfs 12,12(1)
.LBE1896:
.LBE1895:
	.loc 3 452 0
	fadds 13,11,13
.LBB1898:
.LBB1897:
	.loc 3 398 0
	stfs 0,16(1)
	.loc 3 396 0
	stfs 13,8(1)
.LBE1897:
.LBE1898:
.LBE1899:
.LBE1900:
	.loc 2 1393 0
	.cfi_offset 65, 4
	bl _ZN8idThread12ReturnVectorERK6idVec3
.LVL77:
	.loc 2 1394 0
	lwz 0,28(1)
	addi 1,1,24
.LCFI17:
	.cfi_def_cfa_offset 0
	mtlr 0
	blr
	.cfi_endproc
.LFE2883:
	.size	_ZN4idAI20Event_GetEnemyEyePosEv, .-_ZN4idAI20Event_GetEnemyEyePosEv
	.align 2
	.globl _ZN4idAI22Event_PushPointIntoAASERK6idVec3
	.type	_ZN4idAI22Event_PushPointIntoAASERK6idVec3, @function
_ZN4idAI22Event_PushPointIntoAASERK6idVec3:
.LFB2942:
	.loc 2 2476 0
	.cfi_startproc
.LVL78:
	mflr 0
.LBB1901:
	.loc 2 2480 0
	lis 9,.LC1@ha
.LBE1901:
	.loc 2 2476 0
	stwu 1,-32(1)
.LCFI18:
	.cfi_def_cfa_offset 32
	.cfi_register 65, 0
.LBB1908:
	.loc 2 2480 0
	lfs 1,.LC1@l(9)
.LBE1908:
	.loc 2 2476 0
	stw 30,24(1)
	mr 30,3
	.cfi_offset 30, -8
	stw 31,28(1)
	mr 31,4
	.cfi_offset 31, -4
	stw 0,36(1)
.LBB1909:
	.loc 2 2480 0
	.cfi_offset 65, 4
	bl _ZNK4idAI21PointReachableAreaNumERK6idVec3f
.LVL79:
	.loc 2 2481 0
	mr. 4,3
	bne- 0,.L63
	.loc 2 2486 0
	mr 3,31
.LVL80:
	bl _ZN8idThread12ReturnVectorERK6idVec3
.LVL81:
.LBE1909:
	.loc 2 2488 0
	lwz 0,36(1)
	lwz 30,24(1)
.LVL82:
	mtlr 0
	lwz 31,28(1)
.LVL83:
	addi 1,1,32
	.cfi_remember_state
.LCFI19:
	.cfi_def_cfa_offset 0
	.cfi_restore 31
	.cfi_restore 30
	blr
.LVL84:
.L63:
.LCFI20:
	.cfi_restore_state
.LBB1910:
.LBB1902:
.LBB1903:
	.loc 3 424 0
	lwz 11,0(31)
.LBE1903:
.LBE1902:
	.loc 2 2483 0
	addi 5,1,8
.LBB1906:
.LBB1904:
	.loc 3 425 0
	lwz 9,4(31)
	.loc 3 426 0
	lwz 0,8(31)
.LBE1904:
.LBE1906:
	.loc 2 2483 0
	lwz 3,3944(30)
.LVL85:
.LBB1907:
.LBB1905:
	.loc 3 424 0
	stw 11,8(1)
	.loc 3 426 0
	stw 0,16(1)
	.loc 3 425 0
	stw 9,12(1)
.LBE1905:
.LBE1907:
	.loc 2 2483 0
	lwz 9,0(3)
	lwz 0,36(9)
	mtctr 0
	bctrl
.LVL86:
	.loc 2 2484 0
	addi 3,1,8
	bl _ZN8idThread12ReturnVectorERK6idVec3
.LBE1910:
	.loc 2 2488 0
	lwz 0,36(1)
	lwz 30,24(1)
.LVL87:
	mtlr 0
	lwz 31,28(1)
.LVL88:
	addi 1,1,32
	.cfi_restore 30
	.cfi_restore 31
.LCFI21:
	.cfi_def_cfa_offset 0
	blr
	.cfi_endproc
.LFE2942:
	.size	_ZN4idAI22Event_PushPointIntoAASERK6idVec3, .-_ZN4idAI22Event_PushPointIntoAASERK6idVec3
	.align 2
	.globl _ZN4idAI32Event_GetReachableEntityPositionEP8idEntity
	.type	_ZN4idAI32Event_GetReachableEntityPositionEP8idEntity, @function
_ZN4idAI32Event_GetReachableEntityPositionEP8idEntity:
.LFB2952:
	.loc 2 2684 0
	.cfi_startproc
.LVL89:
	mflr 0
	stwu 1,-40(1)
.LCFI22:
	.cfi_def_cfa_offset 40
	.cfi_register 65, 0
	stw 29,28(1)
	mr 29,4
	.cfi_offset 29, -12
	stw 30,32(1)
	mr 30,3
	.cfi_offset 30, -8
	stw 0,44(1)
	stw 31,36(1)
.LBB1911:
	.loc 2 2688 0
	lwz 0,3952(3)
	.cfi_offset 31, -4
	.cfi_offset 65, 4
	cmpwi 7,0,3
	beq- 7,.L65
	.loc 2 2689 0
	lis 9,.LC2@ha
	addi 31,1,8
	lfs 1,.LC2@l(9)
	mr 3,4
.LVL90:
	mr 4,31
.LVL91:
	bl _ZNK8idEntity11GetFloorPosEfR6idVec3
.LVL92:
	cmpwi 7,3,0
	beq- 7,.L71
.LVL93:
.LBB1912:
.LBB1913:
	.file 8 "d:/Data/Nintendo/DoomGX/src/game/ai/../gamesys/Class.h"
	.loc 8 340 0
	lwz 9,0(29)
	mr 3,29
	lwz 0,0(9)
	mtctr 0
	bctrl
.LVL94:
.LBE1913:
	.loc 2 2707 0
	lis 9,_ZN7idActor4TypeE@ha
	la 9,_ZN7idActor4TypeE@l(9)
	lwz 0,56(3)
.LBB1916:
.LBB1914:
.LBB1915:
	.loc 8 311 0
	lwz 11,56(9)
	cmpw 7,0,11
	blt- 7,.L70
	lwz 9,60(9)
	cmpw 7,0,9
	ble- 7,.L72
.LVL95:
.L70:
.LBE1915:
.LBE1914:
.LBE1916:
.LBE1912:
	.loc 2 2701 0
	lwz 0,3944(30)
	cmpwi 7,0,0
	beq- 7,.L69
	.loc 2 2702 0
	lis 9,.LC1@ha
	mr 4,31
	lfs 1,.LC1@l(9)
	mr 3,30
	bl _ZNK4idAI21PointReachableAreaNumERK6idVec3f
	.loc 2 2703 0
	lwz 11,3944(30)
	.loc 2 2702 0
	mr 4,3
.LVL96:
	.loc 2 2703 0
	mr 5,31
	lwz 9,0(11)
	mr 3,11
.LVL97:
	lwz 0,36(9)
	mtctr 0
	bctrl
.LVL98:
.L69:
	.loc 2 2706 0
	mr 3,31
	bl _ZN8idThread12ReturnVectorERK6idVec3
.LBE1911:
	.loc 2 2707 0
	lwz 0,44(1)
	lwz 29,28(1)
.LVL99:
	mtlr 0
	lwz 30,32(1)
.LVL100:
	lwz 31,36(1)
	addi 1,1,40
	.cfi_remember_state
	.cfi_restore 29
	.cfi_restore 30
	.cfi_restore 31
.LCFI23:
	.cfi_def_cfa_offset 0
	blr
.LVL101:
.L72:
.LCFI24:
	.cfi_restore_state
.LBB1919:
	.loc 2 2693 0
	lwz 9,0(29)
	mr 3,29
.LVL102:
	lwz 0,264(9)
	mtctr 0
	bctrl
	cmpwi 7,3,0
	beq- 7,.L70
.LVL103:
.L71:
	.loc 2 2695 0 discriminator 4
	lis 3,vec3_origin@ha
	la 3,vec3_origin@l(3)
	bl _ZN8idThread12ReturnVectorERK6idVec3
.LBE1919:
	.loc 2 2707 0 discriminator 4
	lwz 0,44(1)
	lwz 29,28(1)
.LVL104:
	mtlr 0
	lwz 30,32(1)
.LVL105:
	lwz 31,36(1)
	addi 1,1,40
	.cfi_remember_state
.LCFI25:
	.cfi_def_cfa_offset 0
	.cfi_restore 31
	.cfi_restore 30
	.cfi_restore 29
	blr
.LVL106:
.L65:
.LCFI26:
	.cfi_restore_state
.LBB1920:
	.loc 2 2698 0
	mr 3,4
.LVL107:
	addi 31,1,8
	bl _ZNK8idEntity10GetPhysicsEv
.LVL108:
	li 4,0
	lwz 9,0(3)
	lwz 0,132(9)
	mtctr 0
	bctrl
.LVL109:
.LBB1917:
.LBB1918:
	.loc 3 424 0
	lwz 11,0(3)
	.loc 3 425 0
	lwz 9,4(3)
	.loc 3 426 0
	lwz 0,8(3)
	.loc 3 424 0
	stw 11,8(1)
	.loc 3 425 0
	stw 9,12(1)
	.loc 3 426 0
	stw 0,16(1)
	b .L70
.LBE1918:
.LBE1917:
.LBE1920:
	.cfi_endproc
.LFE2952:
	.size	_ZN4idAI32Event_GetReachableEntityPositionEP8idEntity, .-_ZN4idAI32Event_GetReachableEntityPositionEP8idEntity
	.align 2
	.globl _ZN4idAI17Event_GetMoveTypeEv
	.type	_ZN4idAI17Event_GetMoveTypeEv, @function
_ZN4idAI17Event_GetMoveTypeEv:
.LFB2907:
	.loc 2 1938 0
	.cfi_startproc
.LVL110:
	mflr 0
	stwu 1,-8(1)
.LCFI27:
	.cfi_def_cfa_offset 8
	.cfi_register 65, 0
	stw 0,12(1)
	.loc 2 1939 0
	lwz 3,3952(3)
.LVL111:
	.cfi_offset 65, 4
	bl _ZN8idThread9ReturnIntEi
	.loc 2 1940 0
	lwz 0,12(1)
	addi 1,1,8
.LCFI28:
	.cfi_def_cfa_offset 0
	mtlr 0
	blr
	.cfi_endproc
.LFE2907:
	.size	_ZN4idAI17Event_GetMoveTypeEv, .-_ZN4idAI17Event_GetMoveTypeEv
	.align 2
	.globl _ZN4idAI16Event_MoveStatusEv
	.type	_ZN4idAI16Event_MoveStatusEv, @function
_ZN4idAI16Event_MoveStatusEv:
.LFB2855:
	.loc 2 940 0
	.cfi_startproc
.LVL112:
	mflr 0
	stwu 1,-8(1)
.LCFI29:
	.cfi_def_cfa_offset 8
	.cfi_register 65, 0
	stw 0,12(1)
	.loc 2 941 0
	lwz 3,3960(3)
.LVL113:
	.cfi_offset 65, 4
	bl _ZN8idThread9ReturnIntEi
	.loc 2 942 0
	lwz 0,12(1)
	addi 1,1,8
.LCFI30:
	.cfi_def_cfa_offset 0
	mtlr 0
	blr
	.cfi_endproc
.LFE2855:
	.size	_ZN4idAI16Event_MoveStatusEv, .-_ZN4idAI16Event_MoveStatusEv
	.align 2
	.globl _ZN4idAI22Event_NumSmokeEmittersEv
	.type	_ZN4idAI22Event_NumSmokeEmittersEv, @function
_ZN4idAI22Event_NumSmokeEmittersEv:
.LFB2904:
	.loc 2 1900 0
	.cfi_startproc
.LVL114:
	mflr 0
	stwu 1,-8(1)
.LCFI31:
	.cfi_def_cfa_offset 8
	.cfi_register 65, 0
	stw 0,12(1)
	.loc 2 1901 0
	lwz 3,4848(3)
.LVL115:
	.cfi_offset 65, 4
	bl _ZN8idThread9ReturnIntEi
	.loc 2 1902 0
	lwz 0,12(1)
	addi 1,1,8
.LCFI32:
	.cfi_def_cfa_offset 0
	mtlr 0
	blr
	.cfi_endproc
.LFE2904:
	.size	_ZN4idAI22Event_NumSmokeEmittersEv, .-_ZN4idAI22Event_NumSmokeEmittersEv
	.align 2
	.globl _ZN4idAI20Event_CanReachEntityEP8idEntity
	.type	_ZN4idAI20Event_CanReachEntityEP8idEntity, @function
_ZN4idAI20Event_CanReachEntityEP8idEntity:
.LFB2950:
	.loc 2 2597 0
	.cfi_startproc
.LVL116:
	stwu 1,-80(1)
.LCFI33:
	.cfi_def_cfa_offset 80
	mflr 0
	stw 30,64(1)
.LBB1921:
	.loc 2 2603 0
	mr. 30,4
	.cfi_offset 30, -16
	.cfi_register 65, 0
.LBE1921:
	.loc 2 2597 0
	stw 28,56(1)
	mr 28,3
	.cfi_offset 28, -24
	stw 0,84(1)
	stfd 31,72(1)
	stw 29,60(1)
	stw 31,68(1)
.LBB1929:
	.loc 2 2603 0
	beq- 0,.L86
	.cfi_offset 31, -12
	.cfi_offset 29, -20
	.cfi_offset 63, -8
	.cfi_offset 65, 4
	.loc 2 2608 0
	lwz 0,3952(3)
	cmpwi 7,0,3
	beq- 7,.L79
	.loc 2 2609 0
	lis 9,.LC2@ha
	addi 31,1,8
	lfs 1,.LC2@l(9)
	mr 3,30
.LVL117:
	mr 4,31
.LVL118:
	bl _ZNK8idEntity11GetFloorPosEfR6idVec3
.LVL119:
	cmpwi 7,3,0
	beq- 7,.L85
.LVL120:
.LBB1922:
.LBB1923:
	.loc 8 340 0
	lwz 9,0(30)
	mr 3,30
	lwz 0,0(9)
	mtctr 0
	bctrl
.LVL121:
.LBE1923:
	.loc 2 2707 0
	lis 9,_ZN7idActor4TypeE@ha
	la 9,_ZN7idActor4TypeE@l(9)
	lwz 0,56(3)
.LBB1926:
.LBB1924:
.LBB1925:
	.loc 8 311 0
	lwz 11,56(9)
	cmpw 7,0,11
	blt- 7,.L84
	lwz 9,60(9)
	cmpw 7,0,9
	bgt- 7,.L84
.LBE1925:
.LBE1924:
.LBE1926:
.LBE1922:
	.loc 2 2613 0
	lwz 9,0(30)
	mr 3,30
.LVL122:
	lwz 0,264(9)
	mtctr 0
	bctrl
	cmpwi 7,3,0
	beq- 7,.L84
.LVL123:
.L86:
	.loc 2 2614 0 discriminator 4
	li 3,0
	bl _ZN8idThread9ReturnIntEi
.LBE1929:
	.loc 2 2634 0 discriminator 4
	lwz 0,84(1)
	lwz 28,56(1)
.LVL124:
	mtlr 0
	lwz 29,60(1)
	lwz 30,64(1)
.LVL125:
	lwz 31,68(1)
	lfd 31,72(1)
	addi 1,1,80
	.cfi_remember_state
	.cfi_restore 28
	.cfi_restore 29
	.cfi_restore 30
	.cfi_restore 31
	.cfi_restore 63
.LCFI34:
	.cfi_def_cfa_offset 0
	blr
.LVL126:
.L79:
.LCFI35:
	.cfi_restore_state
.LBB1930:
	.loc 2 2618 0
	mr 3,30
.LVL127:
	addi 31,1,8
	bl _ZNK8idEntity10GetPhysicsEv
.LVL128:
	li 4,0
	lwz 9,0(3)
	lwz 0,132(9)
	mtctr 0
	bctrl
.LVL129:
.LBB1927:
.LBB1928:
	.loc 3 424 0
	lwz 11,0(3)
	.loc 3 425 0
	lwz 9,4(3)
	.loc 3 426 0
	lwz 0,8(3)
	.loc 3 424 0
	stw 11,8(1)
	.loc 3 425 0
	stw 9,12(1)
	.loc 3 426 0
	stw 0,16(1)
.LVL130:
.L84:
.LBE1928:
.LBE1927:
	.loc 2 2621 0
	lis 9,.LC1@ha
	mr 3,28
	lfs 31,.LC1@l(9)
	mr 4,31
	fmr 1,31
	bl _ZNK4idAI21PointReachableAreaNumERK6idVec3f
.LVL131:
	.loc 2 2622 0
	mr. 30,3
.LVL132:
	beq- 0,.L85
	.loc 2 2627 0
	li 4,0
	addi 3,28,4216
.LVL133:
	bl _ZNK15idPhysics_Actor9GetOriginEi
	.loc 2 2628 0
	fmr 1,31
	.loc 2 2627 0
	mr 29,3
.LVL134:
	.loc 2 2628 0
	mr 3,28
.LVL135:
	mr 4,29
	bl _ZNK4idAI21PointReachableAreaNumERK6idVec3f
	.loc 2 2629 0
	addi 4,1,20
	.loc 2 2628 0
	mr 5,3
.LVL136:
	.loc 2 2629 0
	mr 6,29
	mr 3,28
.LVL137:
	mr 7,30
	mr 8,31
	bl _ZNK4idAI10PathToGoalER9aasPath_siRK6idVec3iS4_
.LVL138:
	cmpwi 7,3,0
	beq- 7,.L85
	.loc 2 2632 0
	li 3,1
.LVL139:
.L85:
	bl _ZN8idThread9ReturnIntEi
.LBE1930:
	.loc 2 2634 0
	lwz 0,84(1)
	lwz 28,56(1)
.LVL140:
	mtlr 0
	lwz 29,60(1)
	lwz 30,64(1)
	lwz 31,68(1)
	lfd 31,72(1)
	addi 1,1,80
.LCFI36:
	.cfi_def_cfa_offset 0
	.cfi_restore 63
	.cfi_restore 31
	.cfi_restore 30
	.cfi_restore 29
	.cfi_restore 28
	blr
	.cfi_endproc
.LFE2950:
	.size	_ZN4idAI20Event_CanReachEntityEP8idEntity, .-_ZN4idAI20Event_CanReachEntityEP8idEntity
	.align 2
	.globl _ZN4idAI22Event_CanReachPositionERK6idVec3
	.type	_ZN4idAI22Event_CanReachPositionERK6idVec3, @function
_ZN4idAI22Event_CanReachPositionERK6idVec3:
.LFB2949:
	.loc 2 2578 0
	.cfi_startproc
.LVL141:
	stwu 1,-88(1)
.LCFI37:
	.cfi_def_cfa_offset 88
.LBB1931:
	.loc 2 2583 0
	lis 9,.LC1@ha
.LBE1931:
	.loc 2 2578 0
	mflr 0
	stfd 31,80(1)
.LBB1932:
	.loc 2 2583 0
	lfs 31,.LC1@l(9)
	.cfi_offset 63, -8
	.cfi_register 65, 0
.LBE1932:
	.loc 2 2578 0
	stw 0,92(1)
.LBB1933:
	.loc 2 2583 0
	fmr 1,31
.LBE1933:
	.loc 2 2578 0
	stw 27,60(1)
	stw 28,64(1)
.LBB1934:
	.loc 2 2584 0
	addi 28,3,4216
	.cfi_offset 28, -24
	.cfi_offset 27, -28
	.cfi_offset 65, 4
.LBE1934:
	.loc 2 2578 0
	stw 29,68(1)
	mr 29,3
	.cfi_offset 29, -20
	stw 30,72(1)
	stw 31,76(1)
	.loc 2 2578 0
	mr 31,4
	.cfi_offset 31, -12
	.cfi_offset 30, -16
.LBB1935:
	.loc 2 2583 0
	bl _ZNK4idAI21PointReachableAreaNumERK6idVec3f
.LVL142:
	.loc 2 2584 0
	li 4,0
	.loc 2 2583 0
	mr 30,3
.LVL143:
	.loc 2 2584 0
	mr 3,28
.LVL144:
	bl _ZNK15idPhysics_Actor9GetOriginEi
	fmr 1,31
	mr 4,3
	mr 3,29
	bl _ZNK4idAI21PointReachableAreaNumERK6idVec3f
	.loc 2 2585 0
	cmpwi 7,30,0
	.loc 2 2584 0
	mr 27,3
.LVL145:
	.loc 2 2585 0
	bne- 7,.L91
.LVL146:
.L88:
	.loc 2 2586 0 discriminator 4
	li 3,0
	bl _ZN8idThread9ReturnIntEi
.LBE1935:
	.loc 2 2590 0 discriminator 4
	lwz 0,92(1)
	lwz 27,60(1)
.LVL147:
	mtlr 0
	lwz 28,64(1)
	lwz 29,68(1)
.LVL148:
	lwz 30,72(1)
.LVL149:
	lwz 31,76(1)
.LVL150:
	lfd 31,80(1)
	addi 1,1,88
	.cfi_remember_state
.LCFI38:
	.cfi_def_cfa_offset 0
	.cfi_restore 63
	.cfi_restore 31
	.cfi_restore 30
	.cfi_restore 29
	.cfi_restore 28
	.cfi_restore 27
	blr
.LVL151:
.L91:
.LCFI39:
	.cfi_restore_state
.LBB1936:
	.loc 2 2585 0 discriminator 2
	li 4,0
	mr 3,28
.LVL152:
	bl _ZNK15idPhysics_Actor9GetOriginEi
	addi 4,1,8
	mr 6,3
	mr 5,27
	mr 3,29
	mr 7,30
	mr 8,31
	bl _ZNK4idAI10PathToGoalER9aasPath_siRK6idVec3iS4_
	cmpwi 7,3,0
	beq- 7,.L88
	.loc 2 2588 0
	li 3,1
	bl _ZN8idThread9ReturnIntEi
.LBE1936:
	.loc 2 2590 0
	lwz 0,92(1)
	lwz 27,60(1)
.LVL153:
	mtlr 0
	lwz 28,64(1)
	lwz 29,68(1)
.LVL154:
	lwz 30,72(1)
.LVL155:
	lwz 31,76(1)
.LVL156:
	lfd 31,80(1)
	addi 1,1,88
	.cfi_restore 27
	.cfi_restore 28
	.cfi_restore 29
	.cfi_restore 30
	.cfi_restore 31
	.cfi_restore 63
.LCFI40:
	.cfi_def_cfa_offset 0
	blr
	.cfi_endproc
.LFE2949:
	.size	_ZN4idAI22Event_CanReachPositionERK6idVec3, .-_ZN4idAI22Event_CanReachPositionERK6idVec3
	.align 2
	.globl _ZN4idAI19Event_CanReachEnemyEv
	.type	_ZN4idAI19Event_CanReachEnemyEv, @function
_ZN4idAI19Event_CanReachEnemyEv:
.LFB2951:
	.loc 2 2641 0
	.cfi_startproc
.LVL157:
	mflr 0
	stwu 1,-88(1)
.LCFI41:
	.cfi_def_cfa_offset 88
	.cfi_register 65, 0
.LBB1937:
.LBB1938:
.LBB1939:
	.loc 6 635 0
	lis 9,gameLocal@ha
.LBE1939:
.LBE1938:
.LBE1937:
	.loc 2 2641 0
	stw 30,80(1)
.LBB1952:
.LBB1943:
.LBB1940:
	.loc 6 635 0
	la 9,gameLocal@l(9)
.LBE1940:
.LBE1943:
.LBE1952:
	.loc 2 2641 0
	stw 0,92(1)
	mr 30,3
	.cfi_offset 65, 4
	.cfi_offset 30, -8
.LVL158:
	stw 29,76(1)
	stw 31,84(1)
.LBB1953:
.LBB1944:
.LBB1941:
	.loc 6 634 0
	lwz 0,5120(3)
	rlwinm 11,0,0,20,31
.LVL159:
	.loc 6 635 0
	srawi 0,0,12
	addi 10,11,4228
	slwi 10,10,2
	add 10,9,10
	lwz 10,4(10)
	cmpw 7,10,0
	beq- 7,.L103
	.cfi_offset 31, -4
	.cfi_offset 29, -12
.LVL160:
.L102:
.LBE1941:
.LBE1944:
	.loc 2 2656 0
	li 3,0
	bl _ZN8idThread9ReturnIntEi
.LBE1953:
	.loc 2 2677 0
	lwz 0,92(1)
	lwz 29,76(1)
	mtlr 0
	lwz 30,80(1)
.LVL161:
	lwz 31,84(1)
	addi 1,1,88
	.cfi_remember_state
.LCFI42:
	.cfi_def_cfa_offset 0
	.cfi_restore 31
	.cfi_restore 30
	.cfi_restore 29
	blr
.LVL162:
.L103:
.LCFI43:
	.cfi_restore_state
.LBB1954:
.LBB1945:
.LBB1942:
	.loc 6 636 0
	addi 11,11,132
.LVL163:
	slwi 11,11,2
.LVL164:
	add 9,9,11
	lwz 29,4(9)
.LBE1942:
.LBE1945:
	.loc 2 2649 0
	cmpwi 7,29,0
	beq- 7,.L102
	.loc 2 2654 0
	lwz 0,3952(3)
	cmpwi 7,0,3
	beq- 7,.L96
	.loc 2 2655 0
	lwz 9,0(29)
	mr 3,29
.LVL165:
	lwz 0,264(9)
	mtctr 0
	bctrl
	cmpwi 7,3,0
	bne- 7,.L102
	.loc 2 2659 0
	lwz 9,0(29)
	addi 31,1,12
	mr 3,29
	lwz 4,3944(30)
	lwz 0,268(9)
	mr 5,31
	addi 6,1,8
	mtctr 0
	bctrl
.LVL166:
	lwz 3,8(1)
.L98:
	.loc 2 2665 0
	cmpwi 7,3,0
	beq- 7,.L101
	.loc 2 2670 0
	li 4,0
	addi 3,30,4216
	bl _ZNK15idPhysics_Actor9GetOriginEi
	.loc 2 2671 0
	lis 9,.LC1@ha
	lfs 1,.LC1@l(9)
	mr 4,3
	.loc 2 2670 0
	mr 29,3
.LVL167:
	.loc 2 2671 0
	mr 3,30
.LVL168:
	bl _ZNK4idAI21PointReachableAreaNumERK6idVec3f
.LVL169:
	.loc 2 2672 0
	lwz 7,8(1)
	.loc 2 2671 0
	mr 5,3
.LVL170:
	.loc 2 2672 0
	addi 4,1,24
	mr 3,30
.LVL171:
	mr 6,29
	mr 8,31
	bl _ZNK4idAI10PathToGoalER9aasPath_siRK6idVec3iS4_
.LVL172:
	cmpwi 7,3,0
	beq- 7,.L101
	.loc 2 2675 0
	li 3,1
.LVL173:
.L101:
	bl _ZN8idThread9ReturnIntEi
.LBE1954:
	.loc 2 2677 0
	lwz 0,92(1)
	lwz 29,76(1)
	mtlr 0
	lwz 30,80(1)
.LVL174:
	lwz 31,84(1)
	addi 1,1,88
	.cfi_remember_state
	.cfi_restore 29
	.cfi_restore 30
	.cfi_restore 31
.LCFI44:
	.cfi_def_cfa_offset 0
	blr
.LVL175:
.L96:
.LCFI45:
	.cfi_restore_state
.LBB1955:
	.loc 2 2661 0
	mr 3,29
.LVL176:
	.loc 2 2662 0
	addi 31,1,12
	.loc 2 2661 0
	bl _ZNK8idEntity10GetPhysicsEv
	li 4,0
	lwz 9,0(3)
	lwz 0,132(9)
	mtctr 0
	bctrl
.LVL177:
	.loc 2 2662 0
	lis 10,.LC1@ha
.LBB1946:
.LBB1947:
	.loc 3 424 0
	lwz 11,0(3)
.LBE1947:
.LBE1946:
	.loc 2 2662 0
	mr 4,31
.LBB1950:
.LBB1948:
	.loc 3 425 0
	lwz 9,4(3)
	.loc 3 426 0
	lwz 0,8(3)
.LBE1948:
.LBE1950:
	.loc 2 2662 0
	mr 3,30
.LVL178:
	lfs 1,.LC1@l(10)
.LBB1951:
.LBB1949:
	.loc 3 424 0
	stw 11,12(1)
	.loc 3 425 0
	stw 9,16(1)
	.loc 3 426 0
	stw 0,20(1)
.LBE1949:
.LBE1951:
	.loc 2 2662 0
	bl _ZNK4idAI21PointReachableAreaNumERK6idVec3f
	stw 3,8(1)
.LVL179:
	b .L98
.LBE1955:
	.cfi_endproc
.LFE2951:
	.size	_ZN4idAI19Event_CanReachEnemyEv, .-_ZN4idAI19Event_CanReachEnemyEv
	.align 2
	.globl _ZN4idAI24Event_FindActorsInBoundsERK6idVec3S2_
	.type	_ZN4idAI24Event_FindActorsInBoundsERK6idVec3S2_, @function
_ZN4idAI24Event_FindActorsInBoundsERK6idVec3S2_:
.LFB2948:
	.loc 2 2555 0
	.cfi_startproc
.LVL180:
	mflr 0
	stwu 1,-16448(1)
.LCFI46:
	.cfi_def_cfa_offset 16448
	.cfi_register 65, 0
.LVL181:
.LBB1956:
	.loc 2 2561 0
	li 7,4096
.LBE1956:
	.loc 2 2555 0
	stw 27,16428(1)
.LBB1976:
	.loc 2 2561 0
	addi 6,1,32
.LBE1976:
	.loc 2 2555 0
	stw 31,16444(1)
	mr 31,3
	.cfi_offset 31, -4
	.cfi_offset 27, -20
	stw 0,16452(1)
.LBB1977:
	.loc 2 2561 0
	lis 3,gameLocal+2311032@ha
.LVL182:
.LBE1977:
	.loc 2 2555 0
	stw 26,16424(1)
.LBB1978:
	.loc 2 2561 0
	la 3,gameLocal+2311032@l(3)
.LBE1978:
	.loc 2 2555 0
	stw 28,16432(1)
	stw 29,16436(1)
	stw 30,16440(1)
.LBB1979:
.LBB1957:
.LBB1958:
.LBB1959:
	.loc 3 424 0
	lwz 12,0(4)
	.loc 3 425 0
	lwz 8,4(4)
	.loc 3 426 0
	lwz 10,8(4)
.LBE1959:
.LBE1958:
.LBE1957:
	.loc 2 2561 0
	addi 4,1,8
.LVL183:
.LBB1966:
.LBB1961:
.LBB1962:
	.loc 3 424 0
	lwz 11,0(5)
	.loc 3 425 0
	lwz 9,4(5)
	.loc 3 426 0
	lwz 0,8(5)
	.cfi_offset 30, -8
	.cfi_offset 29, -12
	.cfi_offset 28, -16
	.cfi_offset 26, -24
	.cfi_offset 65, 4
.LBE1962:
.LBE1961:
.LBE1966:
	.loc 2 2561 0
	li 5,256
.LVL184:
.LBB1967:
.LBB1964:
.LBB1960:
	.loc 3 424 0
	stw 12,8(1)
	.loc 3 425 0
	stw 8,12(1)
	.loc 3 426 0
	stw 10,16(1)
.LVL185:
.LBE1960:
.LBE1964:
.LBB1965:
.LBB1963:
	.loc 3 424 0
	stw 11,20(1)
	.loc 3 425 0
	stw 9,24(1)
	.loc 3 426 0
	stw 0,28(1)
.LBE1963:
.LBE1965:
.LBE1967:
	.loc 2 2561 0
	bl _ZNK6idClip22EntitiesTouchingBoundsERK8idBoundsiPP8idEntityi
.LVL186:
	.loc 2 2562 0
	mr. 27,3
	ble- 0,.L105
	addi 28,1,28
	li 29,0
.LBB1968:
	.loc 2 2707 0
	lis 26,_ZN7idActor4TypeE@ha
.LVL187:
.L108:
.LBE1968:
	.loc 2 2563 0
	lwzu 30,4(28)
.LVL188:
	.loc 2 2562 0
	addi 29,29,1
	.loc 2 2564 0
	cmpw 7,31,30
	mr 3,30
	beq- 7,.L106
	.loc 2 2564 0 is_stmt 0 discriminator 1
	bl _ZNK8idEntity8IsHiddenEv
.LVL189:
	cmpwi 7,3,0
	bne- 7,.L106
	.loc 2 2564 0 discriminator 3
	lwz 0,188(30)
.LBB1974:
.LBB1969:
	.loc 8 340 0 is_stmt 1 discriminator 3
	mr 3,30
.LBE1969:
.LBE1974:
	.loc 2 2564 0 discriminator 3
	cmpwi 7,0,0
	ble- 7,.L106
.LVL190:
.LBB1975:
.LBB1972:
	.loc 8 340 0 discriminator 4
	lwz 9,0(30)
	lwz 0,0(9)
	mtctr 0
	bctrl
.LVL191:
.LBE1972:
	.loc 2 2707 0 discriminator 4
	la 9,_ZN7idActor4TypeE@l(26)
	lwz 0,56(3)
.LBB1973:
.LBB1970:
.LBB1971:
	.loc 8 311 0 discriminator 4
	lwz 11,56(9)
	cmpw 7,0,11
	blt- 7,.L106
	.loc 8 311 0 is_stmt 0
	lwz 9,60(9)
	cmpw 7,0,9
	bgt- 7,.L106
.LBE1971:
.LBE1970:
.LBE1973:
.LBE1975:
	.loc 2 2565 0 is_stmt 1
	mr 3,30
.LVL192:
	bl _ZN8idThread12ReturnEntityEP8idEntity
.LBE1979:
	.loc 2 2571 0
	lwz 0,16452(1)
	lwz 26,16424(1)
	mtlr 0
	lwz 27,16428(1)
.LVL193:
	lwz 28,16432(1)
	lwz 29,16436(1)
	lwz 30,16440(1)
.LVL194:
	lwz 31,16444(1)
.LVL195:
	addi 1,1,16448
	.cfi_remember_state
	.cfi_restore 26
	.cfi_restore 27
	.cfi_restore 28
	.cfi_restore 29
	.cfi_restore 30
	.cfi_restore 31
.LCFI47:
	.cfi_def_cfa_offset 0
	blr
.LVL196:
.L106:
.LCFI48:
	.cfi_restore_state
.LBB1980:
	.loc 2 2562 0
	cmpw 7,29,27
	bne+ 7,.L108
.LVL197:
.L105:
	.loc 2 2570 0
	li 3,0
	bl _ZN8idThread12ReturnEntityEP8idEntity
.LBE1980:
	.loc 2 2571 0
	lwz 0,16452(1)
	lwz 26,16424(1)
	mtlr 0
	lwz 27,16428(1)
.LVL198:
	lwz 28,16432(1)
	lwz 29,16436(1)
	lwz 30,16440(1)
	lwz 31,16444(1)
.LVL199:
	addi 1,1,16448
.LCFI49:
	.cfi_def_cfa_offset 0
	.cfi_restore 31
	.cfi_restore 30
	.cfi_restore 29
	.cfi_restore 28
	.cfi_restore 27
	.cfi_restore 26
	blr
	.cfi_endproc
.LFE2948:
	.size	_ZN4idAI24Event_FindActorsInBoundsERK6idVec3S2_, .-_ZN4idAI24Event_FindActorsInBoundsERK6idVec3S2_
	.align 2
	.globl _ZN4idAI17Event_GetObstacleEv
	.type	_ZN4idAI17Event_GetObstacleEv, @function
_ZN4idAI17Event_GetObstacleEv:
.LFB2941:
	.loc 2 2467 0
	.cfi_startproc
.LVL200:
	mflr 0
	stwu 1,-8(1)
.LCFI50:
	.cfi_def_cfa_offset 8
	.cfi_register 65, 0
.LBB1981:
.LBB1982:
	.loc 6 635 0
	lis 9,gameLocal@ha
	la 9,gameLocal@l(9)
.LBE1982:
.LBE1981:
	.loc 2 2467 0
	stw 0,12(1)
.LBB1984:
.LBB1983:
	.loc 6 634 0
	lwz 0,4036(3)
	.cfi_offset 65, 4
	.loc 6 638 0
	li 3,0
.LVL201:
	.loc 6 634 0
	rlwinm 11,0,0,20,31
.LVL202:
	.loc 6 635 0
	srawi 0,0,12
	addi 10,11,4228
	slwi 10,10,2
	add 10,9,10
	lwz 10,4(10)
	cmpw 7,10,0
	bne+ 7,.L111
	.loc 6 636 0
	addi 11,11,132
.LVL203:
	slwi 11,11,2
.LVL204:
	add 9,9,11
	lwz 3,4(9)
.L111:
.LBE1983:
.LBE1984:
	.loc 2 2468 0
	bl _ZN8idThread12ReturnEntityEP8idEntity
	.loc 2 2469 0
	lwz 0,12(1)
	addi 1,1,8
.LCFI51:
	.cfi_def_cfa_offset 0
	mtlr 0
	blr
	.cfi_endproc
.LFE2941:
	.size	_ZN4idAI17Event_GetObstacleEv, .-_ZN4idAI17Event_GetObstacleEv
	.align 2
	.globl _ZN4idAI14Event_GetEnemyEv
	.type	_ZN4idAI14Event_GetEnemyEv, @function
_ZN4idAI14Event_GetEnemyEv:
.LFB2881:
	.loc 2 1374 0
	.cfi_startproc
.LVL205:
	mflr 0
	stwu 1,-8(1)
.LCFI52:
	.cfi_def_cfa_offset 8
	.cfi_register 65, 0
.LBB1985:
.LBB1986:
	.loc 6 635 0
	lis 9,gameLocal@ha
	la 9,gameLocal@l(9)
.LBE1986:
.LBE1985:
	.loc 2 1374 0
	stw 0,12(1)
.LBB1988:
.LBB1987:
	.loc 6 634 0
	lwz 0,5120(3)
	.cfi_offset 65, 4
	.loc 6 638 0
	li 3,0
.LVL206:
	.loc 6 634 0
	rlwinm 11,0,0,20,31
.LVL207:
	.loc 6 635 0
	srawi 0,0,12
	addi 10,11,4228
	slwi 10,10,2
	add 10,9,10
	lwz 10,4(10)
	cmpw 7,10,0
	bne+ 7,.L114
	.loc 6 636 0
	addi 11,11,132
.LVL208:
	slwi 11,11,2
.LVL209:
	add 9,9,11
	lwz 3,4(9)
.L114:
.LBE1987:
.LBE1988:
	.loc 2 1375 0
	bl _ZN8idThread12ReturnEntityEP8idEntity
	.loc 2 1376 0
	lwz 0,12(1)
	addi 1,1,8
.LCFI53:
	.cfi_def_cfa_offset 0
	mtlr 0
	blr
	.cfi_endproc
.LFE2881:
	.size	_ZN4idAI14Event_GetEnemyEv, .-_ZN4idAI14Event_GetEnemyEv
	.align 2
	.globl _ZN4idAI19Event_GetTalkTargetEv
	.type	_ZN4idAI19Event_GetTalkTargetEv, @function
_ZN4idAI19Event_GetTalkTargetEv:
.LFB2877:
	.loc 2 1314 0
	.cfi_startproc
.LVL210:
	mflr 0
	stwu 1,-8(1)
.LCFI54:
	.cfi_def_cfa_offset 8
	.cfi_register 65, 0
.LBB1989:
.LBB1990:
	.loc 6 635 0
	lis 9,gameLocal@ha
	la 9,gameLocal@l(9)
.LBE1990:
.LBE1989:
	.loc 2 1314 0
	stw 0,12(1)
.LBB1992:
.LBB1991:
	.loc 6 634 0
	lwz 0,4680(3)
	.cfi_offset 65, 4
	.loc 6 638 0
	li 3,0
.LVL211:
	.loc 6 634 0
	rlwinm 11,0,0,20,31
.LVL212:
	.loc 6 635 0
	srawi 0,0,12
	addi 10,11,4228
	slwi 10,10,2
	add 10,9,10
	lwz 10,4(10)
	cmpw 7,10,0
	bne+ 7,.L117
	.loc 6 636 0
	addi 11,11,132
.LVL213:
	slwi 11,11,2
.LVL214:
	add 9,9,11
	lwz 3,4(9)
.L117:
.LBE1991:
.LBE1992:
	.loc 2 1315 0
	bl _ZN8idThread12ReturnEntityEP8idEntity
	.loc 2 1316 0
	lwz 0,12(1)
	addi 1,1,8
.LCFI55:
	.cfi_def_cfa_offset 0
	mtlr 0
	blr
	.cfi_endproc
.LFE2877:
	.size	_ZN4idAI19Event_GetTalkTargetEv, .-_ZN4idAI19Event_GetTalkTargetEv
	.align 2
	.globl _ZN4idAI22Event_TriggerParticlesEPKc
	.type	_ZN4idAI22Event_TriggerParticlesEPKc, @function
_ZN4idAI22Event_TriggerParticlesEPKc:
.LFB2947:
	.loc 2 2546 0
	.cfi_startproc
.LVL215:
	mflr 0
	stwu 1,-8(1)
.LCFI56:
	.cfi_def_cfa_offset 8
	.cfi_register 65, 0
	stw 0,12(1)
	.loc 2 2547 0
	.cfi_offset 65, 4
	bl _ZN4idAI16TriggerParticlesEPKc
.LVL216:
	.loc 2 2548 0
	lwz 0,12(1)
	addi 1,1,8
.LCFI57:
	.cfi_def_cfa_offset 0
	mtlr 0
	blr
	.cfi_endproc
.LFE2947:
	.size	_ZN4idAI22Event_TriggerParticlesEPKc, .-_ZN4idAI22Event_TriggerParticlesEPKc
	.align 2
	.globl _ZN4idAI17Event_GetTurnRateEv
	.type	_ZN4idAI17Event_GetTurnRateEv, @function
_ZN4idAI17Event_GetTurnRateEv:
.LFB2943:
	.loc 2 2496 0
	.cfi_startproc
.LVL217:
	mflr 0
	stwu 1,-8(1)
.LCFI58:
	.cfi_def_cfa_offset 8
	.cfi_register 65, 0
	stw 0,12(1)
	.loc 2 2497 0
	lfs 1,4196(3)
	.cfi_offset 65, 4
	bl _ZN8idThread11ReturnFloatEf
.LVL218:
	.loc 2 2498 0
	lwz 0,12(1)
	addi 1,1,8
.LCFI59:
	.cfi_def_cfa_offset 0
	mtlr 0
	blr
	.cfi_endproc
.LFE2943:
	.size	_ZN4idAI17Event_GetTurnRateEv, .-_ZN4idAI17Event_GetTurnRateEv
	.align 2
	.globl _ZN4idAI19Event_GetCurrentYawEv
	.type	_ZN4idAI19Event_GetCurrentYawEv, @function
_ZN4idAI19Event_GetCurrentYawEv:
.LFB2851:
	.loc 2 902 0
	.cfi_startproc
.LVL219:
	mflr 0
	stwu 1,-8(1)
.LCFI60:
	.cfi_def_cfa_offset 8
	.cfi_register 65, 0
	stw 0,12(1)
	.loc 2 903 0
	lfs 1,4192(3)
	.cfi_offset 65, 4
	bl _ZN8idThread11ReturnFloatEf
.LVL220:
	.loc 2 904 0
	lwz 0,12(1)
	addi 1,1,8
.LCFI61:
	.cfi_def_cfa_offset 0
	mtlr 0
	blr
	.cfi_endproc
.LFE2851:
	.size	_ZN4idAI19Event_GetCurrentYawEv, .-_ZN4idAI19Event_GetCurrentYawEv
	.align 2
	.globl _ZN4idAI15Event_GetHealthEv
	.type	_ZN4idAI15Event_GetHealthEv, @function
_ZN4idAI15Event_GetHealthEv:
.LFB2848:
	.loc 2 875 0
	.cfi_startproc
.LVL221:
	mflr 0
	stwu 1,-16(1)
.LCFI62:
	.cfi_def_cfa_offset 16
	.cfi_register 65, 0
	.loc 2 876 0
	lis 9,.LC4@ha
	lfs 0,.LC4@l(9)
	.loc 2 875 0
	stw 0,20(1)
	.loc 2 876 0
	lwz 0,188(3)
	.cfi_offset 65, 4
	xoris 0,0,0x8000
	stw 0,12(1)
	lis 0,0x4330
	stw 0,8(1)
	lfd 1,8(1)
	fsub 1,1,0
	frsp 1,1
	bl _ZN8idThread11ReturnFloatEf
.LVL222:
	.loc 2 877 0
	lwz 0,20(1)
	addi 1,1,16
.LCFI63:
	.cfi_def_cfa_offset 0
	mtlr 0
	blr
	.cfi_endproc
.LFE2848:
	.size	_ZN4idAI15Event_GetHealthEv, .-_ZN4idAI15Event_GetHealthEv
	.align 2
	.globl _ZN4idAI17Event_LocateEnemyEv
	.type	_ZN4idAI17Event_LocateEnemyEv, @function
_ZN4idAI17Event_LocateEnemyEv:
.LFB2939:
	.loc 2 2424 0
	.cfi_startproc
.LVL223:
	mflr 0
	stwu 1,-32(1)
.LCFI64:
	.cfi_def_cfa_offset 32
	.cfi_register 65, 0
.LBB1993:
.LBB1994:
.LBB1995:
	.loc 6 635 0
	lis 9,gameLocal@ha
.LBE1995:
.LBE1994:
.LBE1993:
	.loc 2 2424 0
	stw 31,28(1)
.LBB2002:
.LBB1999:
.LBB1996:
	.loc 6 635 0
	la 9,gameLocal@l(9)
.LBE1996:
.LBE1999:
.LBE2002:
	.loc 2 2424 0
	stw 0,36(1)
	.loc 2 2424 0
	mr 31,3
	.cfi_offset 65, 4
	.cfi_offset 31, -4
.LVL224:
.LBB2003:
.LBB2000:
.LBB1997:
	.loc 6 634 0
	lwz 0,5120(3)
	rlwinm 11,0,0,20,31
.LVL225:
	.loc 6 635 0
	srawi 0,0,12
	addi 10,11,4228
	slwi 10,10,2
	add 10,9,10
	lwz 10,4(10)
	cmpw 7,10,0
	beq- 7,.L125
.LVL226:
.L123:
.LBE1997:
.LBE2000:
.LBE2003:
	.loc 2 2436 0
	lwz 0,36(1)
	lwz 31,28(1)
.LVL227:
	mtlr 0
	addi 1,1,32
	.cfi_remember_state
.LCFI65:
	.cfi_def_cfa_offset 0
	.cfi_restore 31
	blr
.LVL228:
.L125:
.LCFI66:
	.cfi_restore_state
.LBB2004:
.LBB2001:
.LBB1998:
	.loc 6 636 0
	addi 11,11,132
.LVL229:
	slwi 11,11,2
.LVL230:
	add 9,9,11
	lwz 3,4(9)
.LVL231:
.LBE1998:
.LBE2001:
	.loc 2 2429 0
	cmpwi 7,3,0
	beq- 7,.L123
	.loc 2 2433 0
	lwz 9,0(3)
	addi 5,31,5160
	lwz 4,3944(31)
	addi 6,1,8
	lwz 0,268(9)
	mtctr 0
	bctrl
	.loc 2 2434 0
	mr 3,31
	bl _ZN4idAI16SetEnemyPositionEv
	.loc 2 2435 0
	mr 3,31
	bl _ZN4idAI19UpdateEnemyPositionEv
.LBE2004:
	.loc 2 2436 0
	lwz 0,36(1)
	lwz 31,28(1)
.LVL232:
	mtlr 0
	addi 1,1,32
	.cfi_restore 31
.LCFI67:
	.cfi_def_cfa_offset 0
	blr
	.cfi_endproc
.LFE2939:
	.size	_ZN4idAI17Event_LocateEnemyEv, .-_ZN4idAI17Event_LocateEnemyEv
	.align 2
	.globl _ZN4idAI10Event_KillEv
	.type	_ZN4idAI10Event_KillEv, @function
_ZN4idAI10Event_KillEv:
.LFB2937:
	.loc 2 2406 0
	.cfi_startproc
.LVL233:
	mflr 0
	.loc 2 2407 0
	lis 4,.LANCHOR0@ha
	.loc 2 2406 0
	stwu 1,-8(1)
.LCFI68:
	.cfi_def_cfa_offset 8
	.cfi_register 65, 0
	.loc 2 2407 0
	la 4,.LANCHOR0@l(4)
	addi 4,4,80
	li 5,0
	.loc 2 2406 0
	stw 0,12(1)
	.loc 2 2407 0
	.cfi_offset 65, 4
	bl _ZN7idClass11PostEventMSEPK10idEventDefi
.LVL234:
	.loc 2 2408 0
	lwz 0,12(1)
	addi 1,1,8
.LCFI69:
	.cfi_def_cfa_offset 0
	mtlr 0
	blr
	.cfi_endproc
.LFE2937:
	.size	_ZN4idAI10Event_KillEv, .-_ZN4idAI10Event_KillEv
	.align 2
	.globl _ZN4idAI14Event_RealKillEv
	.type	_ZN4idAI14Event_RealKillEv, @function
_ZN4idAI14Event_RealKillEv:
.LFB2936:
	.loc 2 2387 0
	.cfi_startproc
.LVL235:
	mflr 0
	stwu 1,-16(1)
.LCFI70:
	.cfi_def_cfa_offset 16
	.cfi_register 65, 0
	stw 31,12(1)
	mr 31,3
	.cfi_offset 31, -4
	stw 0,20(1)
.LBB2005:
.LBB2006:
	.file 9 "d:/Data/Nintendo/DoomGX/src/game/ai/../AF.h"
	.loc 9 65 0
	lbz 0,2184(3)
	.cfi_offset 65, 4
	cmpwi 7,0,0
.LBE2006:
.LBE2005:
	.loc 2 2388 0
	li 0,0
	stw 0,188(3)
	.loc 2 2707 0
	lwz 0,2084(3)
.LBB2008:
.LBB2007:
	.loc 9 65 0
	beq- 7,.L128
	cmpwi 7,0,0
	beq- 7,.L128
.LBE2007:
.LBE2008:
	.loc 2 2392 0
	addi 3,3,1624
.LVL236:
	bl _ZN4idAF4RestEv
	.loc 2 2395 0
	mr 3,31
	li 4,2
	bl _ZN8idEntity12BecomeActiveEi
.L128:
	.loc 2 2398 0
	lwz 9,0(31)
	lis 7,vec3_origin@ha
	mr 3,31
	mr 4,31
	lwz 0,180(9)
	mr 5,31
	li 6,0
	la 7,vec3_origin@l(7)
	mtctr 0
	li 8,-1
	bctrl
	.loc 2 2399 0
	lwz 0,20(1)
	lwz 31,12(1)
.LVL237:
	mtlr 0
	addi 1,1,16
.LCFI71:
	.cfi_def_cfa_offset 0
	.cfi_restore 31
	blr
	.cfi_endproc
.LFE2936:
	.size	_ZN4idAI14Event_RealKillEv, .-_ZN4idAI14Event_RealKillEv
	.align 2
	.globl _ZN4idAI15Event_SetAnglesERK8idAngles
	.type	_ZN4idAI15Event_SetAnglesERK8idAngles, @function
_ZN4idAI15Event_SetAnglesERK8idAngles:
.LFB2934:
	.loc 2 2368 0
	.cfi_startproc
.LVL238:
	mflr 0
	stwu 1,-64(1)
.LCFI72:
	.cfi_def_cfa_offset 64
	.cfi_register 65, 0
	stw 31,60(1)
	mr 31,3
	.cfi_offset 31, -4
	stw 0,68(1)
.LBB2009:
.LBB2010:
	.file 10 "d:/Data/Nintendo/DoomGX/src/game/ai/../../idlib/../idlib/math/Angles.h"
	.loc 10 109 0
	li 0,0
	.cfi_offset 65, 4
	stw 0,8(1)
.LBE2010:
.LBE2009:
.LBB2013:
.LBB2014:
	.file 11 "d:/Data/Nintendo/DoomGX/src/game/ai/../../idlib/../idlib/math/Matrix.h"
	.loc 11 333 0
	addi 31,31,2268
.LBE2014:
.LBE2013:
	.loc 2 2369 0
	lwz 9,4(4)
	.loc 2 2370 0
	addi 4,1,8
.LVL239:
.LBB2022:
.LBB2011:
	.loc 10 111 0
	stw 0,16(1)
.LBE2011:
.LBE2022:
	.loc 2 2369 0
	stw 9,4192(3)
.LVL240:
	.loc 2 2370 0
	addi 3,1,20
.LVL241:
.LBB2023:
.LBB2012:
	.loc 10 110 0
	stw 9,12(1)
.LBE2012:
.LBE2023:
	.loc 2 2370 0
	bl _ZNK8idAngles6ToMat3Ev
.LVL242:
.LBB2024:
.LBB2021:
	.loc 11 333 0
	li 10,0
.L130:
.LBB2015:
.LBB2016:
	.loc 3 424 0
	addi 11,1,20
.LVL243:
.LBE2016:
.LBE2015:
	.loc 11 333 0
	cmpwi 7,10,24
.LBB2019:
.LBB2017:
	.loc 3 424 0
	lwzux 0,11,10
.LVL244:
	mr 9,31
	stwux 0,9,10
.LBE2017:
.LBE2019:
	.loc 11 333 0
	addi 10,10,12
.LBB2020:
.LBB2018:
	.loc 3 425 0
	lwz 8,4(11)
	.loc 3 426 0
	lwz 0,8(11)
	.loc 3 425 0
	stw 8,4(9)
	.loc 3 426 0
	stw 0,8(9)
.LBE2018:
.LBE2020:
	.loc 11 333 0
	bne+ 7,.L130
.LBE2021:
.LBE2024:
	.loc 2 2371 0
	lwz 0,68(1)
	lwz 31,60(1)
.LVL245:
	mtlr 0
	addi 1,1,64
.LCFI73:
	.cfi_def_cfa_offset 0
	.cfi_restore 31
	blr
	.cfi_endproc
.LFE2934:
	.size	_ZN4idAI15Event_SetAnglesERK8idAngles, .-_ZN4idAI15Event_SetAnglesERK8idAngles
	.align 2
	.globl _ZN4idAI13Event_ThrowAFEv
	.type	_ZN4idAI13Event_ThrowAFEv, @function
_ZN4idAI13Event_ThrowAFEv:
.LFB2933:
	.loc 2 2347 0
	.cfi_startproc
.LVL246:
	mflr 0
	stwu 1,-32(1)
.LCFI74:
	.cfi_def_cfa_offset 32
	.cfi_register 65, 0
	stw 30,24(1)
	mr 30,3
	.cfi_offset 30, -8
	stw 31,28(1)
	stw 0,36(1)
	stw 29,20(1)
.LBB2025:
	.loc 2 2351 0
	.cfi_offset 29, -12
	.cfi_offset 65, 4
	.cfi_offset 31, -4
	bl _ZNK8idEntity17GetNextTeamEntityEv
.LVL247:
	mr. 31,3
	beq- 0,.L132
.LBB2026:
	.loc 2 2707 0
	lis 29,_ZN15idAFEntity_Base4TypeE@ha
	b .L136
.LVL248:
.L134:
.LBE2026:
	.loc 2 2351 0
	mr 3,31
	bl _ZNK8idEntity17GetNextTeamEntityEv
.LVL249:
	mr. 31,3
	beq- 0,.L132
.L136:
	.loc 2 2352 0
	mr 3,31
.LVL250:
	bl _ZNK8idEntity13GetBindMasterEv
	cmpw 7,30,3
	bne+ 7,.L134
.LVL251:
.LBB2031:
.LBB2027:
	.loc 8 340 0 discriminator 1
	lwz 9,0(31)
	mr 3,31
	lwz 0,0(9)
	mtctr 0
	bctrl
.LVL252:
.LBE2027:
	.loc 2 2707 0 discriminator 1
	la 9,_ZN15idAFEntity_Base4TypeE@l(29)
	lwz 0,56(3)
.LBB2030:
.LBB2028:
.LBB2029:
	.loc 8 311 0 discriminator 1
	lwz 11,56(9)
	cmpw 7,0,11
	blt- 7,.L134
	.loc 8 311 0 is_stmt 0
	lwz 9,60(9)
	cmpw 7,0,9
	bgt- 7,.L134
.LVL253:
.LBE2029:
.LBE2028:
.LBE2030:
.LBE2031:
	.loc 2 2358 0 is_stmt 1
	mr 3,31
.LVL254:
	bl _ZN8idEntity6UnbindEv
.LVL255:
	.loc 2 2359 0
	li 0,100
	lis 4,EV_SetOwner@ha
	stw 0,8(1)
	mr 3,31
	li 0,0
	la 4,EV_SetOwner@l(4)
	li 5,200
	addi 6,1,8
	stw 0,12(1)
	bl _ZN7idClass11PostEventMSEPK10idEventDefi10idEventArg
.LVL256:
.L132:
.LBE2025:
	.loc 2 2361 0
	lwz 0,36(1)
	lwz 29,20(1)
	mtlr 0
	lwz 30,24(1)
.LVL257:
	lwz 31,28(1)
.LVL258:
	addi 1,1,32
.LCFI75:
	.cfi_def_cfa_offset 0
	.cfi_restore 31
	.cfi_restore 30
	.cfi_restore 29
	blr
	.cfi_endproc
.LFE2933:
	.size	_ZN4idAI13Event_ThrowAFEv, .-_ZN4idAI13Event_ThrowAFEv
	.align 2
	.globl _ZN4idAI19Event_ThrowMoveableEv
	.type	_ZN4idAI19Event_ThrowMoveableEv, @function
_ZN4idAI19Event_ThrowMoveableEv:
.LFB2932:
	.loc 2 2326 0
	.cfi_startproc
.LVL259:
	mflr 0
	stwu 1,-32(1)
.LCFI76:
	.cfi_def_cfa_offset 32
	.cfi_register 65, 0
	stw 30,24(1)
	mr 30,3
	.cfi_offset 30, -8
	stw 31,28(1)
	stw 0,36(1)
	stw 29,20(1)
.LBB2032:
	.loc 2 2330 0
	.cfi_offset 29, -12
	.cfi_offset 65, 4
	.cfi_offset 31, -4
	bl _ZNK8idEntity17GetNextTeamEntityEv
.LVL260:
	mr. 31,3
	beq- 0,.L138
.LBB2033:
	.loc 2 2707 0
	lis 29,_ZN10idMoveable4TypeE@ha
	b .L142
.LVL261:
.L140:
.LBE2033:
	.loc 2 2330 0
	mr 3,31
	bl _ZNK8idEntity17GetNextTeamEntityEv
.LVL262:
	mr. 31,3
	beq- 0,.L138
.L142:
	.loc 2 2331 0
	mr 3,31
.LVL263:
	bl _ZNK8idEntity13GetBindMasterEv
	cmpw 7,30,3
	bne+ 7,.L140
.LVL264:
.LBB2038:
.LBB2034:
	.loc 8 340 0 discriminator 1
	lwz 9,0(31)
	mr 3,31
	lwz 0,0(9)
	mtctr 0
	bctrl
.LVL265:
.LBE2034:
	.loc 2 2707 0 discriminator 1
	la 9,_ZN10idMoveable4TypeE@l(29)
	lwz 0,56(3)
.LBB2037:
.LBB2035:
.LBB2036:
	.loc 8 311 0 discriminator 1
	lwz 11,56(9)
	cmpw 7,0,11
	blt- 7,.L140
	.loc 8 311 0 is_stmt 0
	lwz 9,60(9)
	cmpw 7,0,9
	bgt- 7,.L140
.LVL266:
.LBE2036:
.LBE2035:
.LBE2037:
.LBE2038:
	.loc 2 2337 0 is_stmt 1
	mr 3,31
.LVL267:
	bl _ZN8idEntity6UnbindEv
.LVL268:
	.loc 2 2338 0
	li 0,100
	lis 4,EV_SetOwner@ha
	stw 0,8(1)
	mr 3,31
	li 0,0
	la 4,EV_SetOwner@l(4)
	li 5,200
	addi 6,1,8
	stw 0,12(1)
	bl _ZN7idClass11PostEventMSEPK10idEventDefi10idEventArg
.LVL269:
.L138:
.LBE2032:
	.loc 2 2340 0
	lwz 0,36(1)
	lwz 29,20(1)
	mtlr 0
	lwz 30,24(1)
.LVL270:
	lwz 31,28(1)
.LVL271:
	addi 1,1,32
.LCFI77:
	.cfi_def_cfa_offset 0
	.cfi_restore 31
	.cfi_restore 30
	.cfi_restore 29
	blr
	.cfi_endproc
.LFE2932:
	.size	_ZN4idAI19Event_ThrowMoveableEv, .-_ZN4idAI19Event_ThrowMoveableEv
	.align 2
	.globl _ZN4idAI35Event_TravelDistanceBetweenEntitiesEP8idEntityS1_
	.type	_ZN4idAI35Event_TravelDistanceBetweenEntitiesEP8idEntityS1_, @function
_ZN4idAI35Event_TravelDistanceBetweenEntitiesEP8idEntityS1_:
.LFB2928:
	.loc 2 2264 0
	.cfi_startproc
.LVL272:
	stwu 1,-24(1)
.LCFI78:
	.cfi_def_cfa_offset 24
	mflr 0
	stw 31,20(1)
	mr 31,3
	.cfi_offset 31, -4
	.cfi_register 65, 0
.LBB2039:
	.loc 2 2269 0
	mr 3,4
.LVL273:
.LBE2039:
	.loc 2 2264 0
	stw 0,28(1)
	stw 29,12(1)
	mr 29,5
	.cfi_offset 29, -12
	.cfi_offset 65, 4
	stw 30,16(1)
.LBB2040:
	.loc 2 2269 0
	.cfi_offset 30, -8
	bl _ZNK8idEntity10GetPhysicsEv
.LVL274:
	lwz 9,0(3)
	li 4,0
	lwz 0,132(9)
	mtctr 0
	bctrl
	mr 30,3
	mr 3,29
	bl _ZNK8idEntity10GetPhysicsEv
	li 4,0
	lwz 9,0(3)
	lwz 0,132(9)
	mtctr 0
	bctrl
	mr 4,30
	mr 5,3
	mr 3,31
	bl _ZNK4idAI14TravelDistanceERK6idVec3S2_
	.loc 2 2270 0
	bl _ZN8idThread11ReturnFloatEf
.LBE2040:
	.loc 2 2271 0
	lwz 0,28(1)
	lwz 29,12(1)
.LVL275:
	mtlr 0
	lwz 30,16(1)
	lwz 31,20(1)
.LVL276:
	addi 1,1,24
.LCFI79:
	.cfi_def_cfa_offset 0
	.cfi_restore 31
	.cfi_restore 30
	.cfi_restore 29
	blr
	.cfi_endproc
.LFE2928:
	.size	_ZN4idAI35Event_TravelDistanceBetweenEntitiesEP8idEntityS1_, .-_ZN4idAI35Event_TravelDistanceBetweenEntitiesEP8idEntityS1_
	.align 2
	.globl _ZN4idAI33Event_TravelDistanceBetweenPointsERK6idVec3S2_
	.type	_ZN4idAI33Event_TravelDistanceBetweenPointsERK6idVec3S2_, @function
_ZN4idAI33Event_TravelDistanceBetweenPointsERK6idVec3S2_:
.LFB2927:
	.loc 2 2252 0
	.cfi_startproc
.LVL277:
	mflr 0
	stwu 1,-8(1)
.LCFI80:
	.cfi_def_cfa_offset 8
	.cfi_register 65, 0
	stw 0,12(1)
.LBB2041:
	.loc 2 2255 0
	.cfi_offset 65, 4
	bl _ZNK4idAI14TravelDistanceERK6idVec3S2_
.LVL278:
	.loc 2 2256 0
	bl _ZN8idThread11ReturnFloatEf
.LBE2041:
	.loc 2 2257 0
	lwz 0,12(1)
	addi 1,1,8
.LCFI81:
	.cfi_def_cfa_offset 0
	mtlr 0
	blr
	.cfi_endproc
.LFE2927:
	.size	_ZN4idAI33Event_TravelDistanceBetweenPointsERK6idVec3S2_, .-_ZN4idAI33Event_TravelDistanceBetweenPointsERK6idVec3S2_
	.align 2
	.globl _ZN4idAI28Event_TravelDistanceToEntityEP8idEntity
	.type	_ZN4idAI28Event_TravelDistanceToEntityEP8idEntity, @function
_ZN4idAI28Event_TravelDistanceToEntityEP8idEntity:
.LFB2926:
	.loc 2 2240 0
	.cfi_startproc
.LVL279:
	stwu 1,-24(1)
.LCFI82:
	.cfi_def_cfa_offset 24
	mflr 0
	stw 29,12(1)
	mr 29,4
	.cfi_offset 29, -12
	.cfi_register 65, 0
	stw 31,20(1)
.LBB2042:
	.loc 2 2243 0
	li 4,0
.LVL280:
.LBE2042:
	.loc 2 2240 0
	mr 31,3
	.cfi_offset 31, -4
.LBB2043:
	.loc 2 2243 0
	addi 3,3,4216
.LVL281:
.LBE2043:
	.loc 2 2240 0
	stw 0,28(1)
	stw 30,16(1)
.LBB2044:
	.loc 2 2243 0
	.cfi_offset 30, -8
	.cfi_offset 65, 4
	bl _ZNK15idPhysics_Actor9GetOriginEi
	mr 30,3
	mr 3,29
	bl _ZNK8idEntity10GetPhysicsEv
	li 4,0
	lwz 9,0(3)
	lwz 0,132(9)
	mtctr 0
	bctrl
	mr 4,30
	mr 5,3
	mr 3,31
	bl _ZNK4idAI14TravelDistanceERK6idVec3S2_
	.loc 2 2244 0
	bl _ZN8idThread11ReturnFloatEf
.LBE2044:
	.loc 2 2245 0
	lwz 0,28(1)
	lwz 29,12(1)
.LVL282:
	mtlr 0
	lwz 30,16(1)
	lwz 31,20(1)
.LVL283:
	addi 1,1,24
.LCFI83:
	.cfi_def_cfa_offset 0
	.cfi_restore 31
	.cfi_restore 30
	.cfi_restore 29
	blr
	.cfi_endproc
.LFE2926:
	.size	_ZN4idAI28Event_TravelDistanceToEntityEP8idEntity, .-_ZN4idAI28Event_TravelDistanceToEntityEP8idEntity
	.align 2
	.globl _ZN4idAI27Event_TravelDistanceToPointERK6idVec3
	.type	_ZN4idAI27Event_TravelDistanceToPointERK6idVec3, @function
_ZN4idAI27Event_TravelDistanceToPointERK6idVec3:
.LFB2925:
	.loc 2 2228 0
	.cfi_startproc
.LVL284:
	stwu 1,-16(1)
.LCFI84:
	.cfi_def_cfa_offset 16
	mflr 0
	stw 30,8(1)
	mr 30,4
	.cfi_offset 30, -8
	.cfi_register 65, 0
	stw 31,12(1)
.LBB2045:
	.loc 2 2231 0
	li 4,0
.LVL285:
.LBE2045:
	.loc 2 2228 0
	mr 31,3
	.cfi_offset 31, -4
.LBB2046:
	.loc 2 2231 0
	addi 3,3,4216
.LVL286:
.LBE2046:
	.loc 2 2228 0
	stw 0,20(1)
.LBB2047:
	.loc 2 2231 0
	.cfi_offset 65, 4
	bl _ZNK15idPhysics_Actor9GetOriginEi
	mr 4,3
	mr 5,30
	mr 3,31
	bl _ZNK4idAI14TravelDistanceERK6idVec3S2_
	.loc 2 2232 0
	bl _ZN8idThread11ReturnFloatEf
.LBE2047:
	.loc 2 2233 0
	lwz 0,20(1)
	lwz 30,8(1)
.LVL287:
	mtlr 0
	lwz 31,12(1)
.LVL288:
	addi 1,1,16
.LCFI85:
	.cfi_def_cfa_offset 0
	.cfi_restore 31
	.cfi_restore 30
	blr
	.cfi_endproc
.LFE2925:
	.size	_ZN4idAI27Event_TravelDistanceToPointERK6idVec3, .-_ZN4idAI27Event_TravelDistanceToPointERK6idVec3
	.align 2
	.globl _ZN4idAI21Event_GetRandomTargetEPKc
	.type	_ZN4idAI21Event_GetRandomTargetEPKc, @function
_ZN4idAI21Event_GetRandomTargetEPKc:
.LFB2924:
	.loc 2 2196 0
	.cfi_startproc
.LVL289:
	mflr 0
	stwu 1,-16424(1)
.LCFI86:
	.cfi_def_cfa_offset 16424
	.cfi_register 65, 0
	stw 25,16396(1)
	mr 25,4
	.cfi_offset 25, -28
	stw 29,16412(1)
	mr 29,3
	.cfi_offset 29, -12
	stw 0,16428(1)
	stw 24,16392(1)
	stw 26,16400(1)
	stw 27,16404(1)
	stw 28,16408(1)
	stw 30,16416(1)
	stw 31,16420(1)
.LBB2048:
	.loc 2 2204 0
	lwz 0,172(3)
	.cfi_offset 31, -4
	.cfi_offset 30, -8
	.cfi_offset 28, -16
	.cfi_offset 27, -20
	.cfi_offset 26, -24
	.cfi_offset 24, -32
	.cfi_offset 65, 4
	cmpwi 7,0,0
	ble- 7,.L149
	lis 27,gameLocal@ha
	li 30,0
	la 27,gameLocal@l(27)
	li 31,0
.LBB2049:
.LBB2050:
	.loc 6 635 0
	mr 24,27
.LBE2050:
.LBE2049:
	.loc 2 2207 0
	addi 26,1,8
	b .L152
.LVL290:
.L154:
	.loc 2 2204 0
	addi 31,31,1
.LVL291:
	cmpw 7,0,31
	ble- 7,.L160
.LVL292:
.L152:
.LBB2052:
.LBB2051:
	.loc 6 634 0
	lwz 11,184(29)
	slwi 9,31,2
	lwzx 9,11,9
	rlwinm 11,9,0,20,31
.LVL293:
	.loc 6 635 0
	srawi 9,9,12
	addi 10,11,4228
	slwi 10,10,2
	add 10,27,10
	lwz 10,4(10)
	cmpw 7,10,9
	bne+ 7,.L154
	.loc 6 636 0
	addi 11,11,132
.LVL294:
	slwi 11,11,2
.LVL295:
	add 11,24,11
	lwz 28,4(11)
.LBE2051:
.LBE2052:
	.loc 2 2206 0
	cmpwi 7,28,0
	mr 3,28
	beq- 7,.L154
	.loc 2 2206 0 is_stmt 0 discriminator 1
	bl _ZNK8idEntity16GetEntityDefNameEv
.LVL296:
	mr 4,25
	bl _ZN5idStr3CmpEPKcS1_
	.loc 2 2207 0 is_stmt 1 discriminator 1
	slwi 0,30,2
	.loc 2 2206 0 discriminator 1
	cmpwi 7,3,0
	.loc 2 2207 0 discriminator 1
	mr 9,26
	.loc 2 2206 0 discriminator 1
	bne- 7,.L159
	.loc 2 2207 0 discriminator 4
	addi 30,30,1
.LVL297:
	stwx 28,26,0
	.loc 2 2208 0 discriminator 4
	cmpwi 7,30,4095
	bgt- 7,.L151
.LVL298:
.L159:
	lwz 0,172(29)
.LVL299:
	.loc 2 2204 0
	addi 31,31,1
.LVL300:
	cmpw 7,0,31
	bgt+ 7,.L152
.LVL301:
.L160:
	.loc 2 2214 0
	cmpwi 7,30,0
	addi 9,1,8
	beq- 7,.L149
.LVL302:
.L151:
.LBB2053:
.LBB2054:
.LBB2055:
.LBB2056:
	.file 12 "d:/Data/Nintendo/DoomGX/src/game/ai/../../idlib/../idlib/math/Random.h"
	.loc 12 71 0
	addis 27,27,0x1
	lis 11,0x1
	lwz 0,-32064(27)
	ori 11,11,3533
	mullw 11,11,0
	addi 11,11,1
	.loc 12 72 0
	rlwinm 0,11,0,17,31
	.loc 12 71 0
	stw 11,-32064(27)
.LBE2056:
.LBE2055:
	.loc 12 79 0
	divw 10,0,30
	mullw 30,10,30
.LVL303:
	subf 0,30,0
.LBE2054:
.LBE2053:
	.loc 2 2220 0
	slwi 0,0,2
	lwzx 3,9,0
	bl _ZN8idThread12ReturnEntityEP8idEntity
.LBE2048:
	.loc 2 2221 0
	lwz 0,16428(1)
	lwz 24,16392(1)
	mtlr 0
	lwz 25,16396(1)
.LVL304:
	lwz 26,16400(1)
	lwz 27,16404(1)
	lwz 28,16408(1)
	lwz 29,16412(1)
.LVL305:
	lwz 30,16416(1)
	lwz 31,16420(1)
	addi 1,1,16424
	.cfi_remember_state
.LCFI87:
	.cfi_def_cfa_offset 0
	.cfi_restore 31
	.cfi_restore 30
	.cfi_restore 29
	.cfi_restore 28
	.cfi_restore 27
	.cfi_restore 26
	.cfi_restore 25
	.cfi_restore 24
	blr
.LVL306:
.L149:
.LCFI88:
	.cfi_restore_state
.LBB2057:
	.loc 2 2215 0
	li 3,0
	bl _ZN8idThread12ReturnEntityEP8idEntity
.LBE2057:
	.loc 2 2221 0
	lwz 0,16428(1)
	lwz 24,16392(1)
	mtlr 0
	lwz 25,16396(1)
.LVL307:
	lwz 26,16400(1)
	lwz 27,16404(1)
	lwz 28,16408(1)
	lwz 29,16412(1)
.LVL308:
	lwz 30,16416(1)
	lwz 31,16420(1)
	addi 1,1,16424
	.cfi_restore 24
	.cfi_restore 25
	.cfi_restore 26
	.cfi_restore 27
	.cfi_restore 28
	.cfi_restore 29
	.cfi_restore 30
	.cfi_restore 31
.LCFI89:
	.cfi_def_cfa_offset 0
	blr
	.cfi_endproc
.LFE2924:
	.size	_ZN4idAI21Event_GetRandomTargetEPKc, .-_ZN4idAI21Event_GetRandomTargetEPKc
	.align 2
	.globl _ZN4idAI28Event_GetClosestHiddenTargetEPKc
	.type	_ZN4idAI28Event_GetClosestHiddenTargetEPKc, @function
_ZN4idAI28Event_GetClosestHiddenTargetEPKc:
.LFB2923:
	.loc 2 2146 0
	.cfi_startproc
.LVL309:
	stwu 1,-80(1)
.LCFI90:
	.cfi_def_cfa_offset 80
	mflr 0
	stw 27,44(1)
	mr 27,4
	.cfi_offset 27, -36
	.cfi_register 65, 0
	stw 30,56(1)
.LBB2058:
	.loc 2 2152 0
	li 4,0
.LVL310:
.LBE2058:
	.loc 2 2146 0
	mr 30,3
	.cfi_offset 30, -24
.LBB2086:
	.loc 2 2152 0
	addi 3,3,4216
.LVL311:
.LBE2086:
	.loc 2 2146 0
	stw 0,84(1)
	stw 26,40(1)
	stw 28,48(1)
.LBB2087:
.LBB2059:
.LBB2060:
	.loc 6 635 0
	lis 28,gameLocal@ha
	.cfi_offset 28, -32
	.cfi_offset 26, -40
	.cfi_offset 65, 4
.LBE2060:
.LBE2059:
.LBE2087:
	.loc 2 2146 0
	stfd 30,64(1)
.LBB2088:
.LBB2065:
.LBB2061:
	.loc 6 635 0
	la 28,gameLocal@l(28)
.LBE2061:
.LBE2065:
.LBE2088:
	.loc 2 2146 0
	stfd 31,72(1)
	stw 21,20(1)
	stw 22,24(1)
	stw 23,28(1)
	stw 24,32(1)
	stw 25,36(1)
	stw 29,52(1)
	stw 31,60(1)
.LBB2089:
	.loc 2 2152 0
	.cfi_offset 31, -20
	.cfi_offset 29, -28
	.cfi_offset 25, -44
	.cfi_offset 24, -48
	.cfi_offset 23, -52
	.cfi_offset 22, -56
	.cfi_offset 21, -60
	.cfi_offset 63, -8
	.cfi_offset 62, -16
	bl _ZNK15idPhysics_Actor9GetOriginEi
.LBB2066:
.LBB2062:
	.loc 6 634 0
	lwz 0,5120(30)
.LBE2062:
.LBE2066:
	.loc 2 2152 0
	mr 26,3
.LVL312:
.LBB2067:
.LBB2063:
	.loc 6 634 0
	rlwinm 9,0,0,20,31
.LVL313:
	.loc 6 635 0
	srawi 0,0,12
	addi 11,9,4228
	slwi 11,11,2
	add 11,28,11
	lwz 11,4(11)
	cmpw 7,11,0
	beq- 7,.L182
.LVL314:
.L167:
.LBE2063:
.LBE2067:
	.loc 2 2169 0
	li 3,0
	bl _ZN8idThread12ReturnEntityEP8idEntity
.L161:
.LBE2089:
	.loc 2 2189 0
	lwz 0,84(1)
	lwz 21,20(1)
	mtlr 0
	lwz 22,24(1)
	lwz 23,28(1)
	lwz 24,32(1)
	lwz 25,36(1)
	lwz 26,40(1)
.LVL315:
	lwz 27,44(1)
.LVL316:
	lwz 28,48(1)
	lwz 29,52(1)
	lwz 30,56(1)
.LVL317:
	lwz 31,60(1)
	lfd 30,64(1)
	lfd 31,72(1)
	addi 1,1,80
	.cfi_remember_state
.LCFI91:
	.cfi_def_cfa_offset 0
	.cfi_restore 63
	.cfi_restore 62
	.cfi_restore 31
	.cfi_restore 30
	.cfi_restore 29
	.cfi_restore 28
	.cfi_restore 27
	.cfi_restore 26
	.cfi_restore 25
	.cfi_restore 24
	.cfi_restore 23
	.cfi_restore 22
	.cfi_restore 21
	blr
.LVL318:
.L182:
.LCFI92:
	.cfi_restore_state
.LBB2090:
.LBB2068:
.LBB2064:
	.loc 6 636 0
	addi 9,9,132
.LVL319:
	slwi 9,9,2
.LVL320:
	add 9,28,9
	lwz 23,4(9)
.LBE2064:
.LBE2068:
	.loc 2 2155 0
	cmpwi 7,23,0
	beq- 7,.L167
	.loc 2 2707 0
	lwz 11,172(30)
	.loc 2 2161 0
	cmpwi 7,11,1
	beq- 7,.L183
.LVL321:
.LBB2069:
	.loc 2 2175 0
	cmpwi 7,11,0
.LBE2069:
	.loc 2 2174 0
	lis 9,_ZN6idMath8INFINITYE@ha
	lfs 30,_ZN6idMath8INFINITYE@l(9)
.LVL322:
.LBB2082:
	.loc 2 2173 0
	li 24,0
	.loc 2 2175 0
	ble- 7,.L168
.LBB2070:
.LBB2071:
	.loc 2 2180 0
	lis 9,.LC0@ha
.LBE2071:
.LBE2070:
	.loc 2 2175 0
	li 31,0
.LBB2075:
.LBB2076:
	.loc 6 635 0
	mr 25,28
.LBE2076:
.LBE2075:
.LBB2078:
.LBB2072:
	.loc 2 2180 0
	lfs 31,.LC0@l(9)
	.loc 2 2181 0
	addi 22,30,5124
	b .L173
.LVL323:
.L170:
.LBE2072:
.LBE2078:
	.loc 2 2175 0
	addi 31,31,1
.LVL324:
	cmpw 7,11,31
	ble- 7,.L168
.LVL325:
.L173:
.LBB2079:
.LBB2077:
	.loc 6 634 0
	lwz 9,184(30)
	slwi 0,31,2
	lwzx 0,9,0
	rlwinm 9,0,0,20,31
.LVL326:
	.loc 6 635 0
	srawi 0,0,12
	addi 10,9,4228
	slwi 10,10,2
	add 10,28,10
	lwz 10,4(10)
	cmpw 7,10,0
	bne+ 7,.L170
	.loc 6 636 0
	addi 9,9,132
.LVL327:
	slwi 9,9,2
.LVL328:
	add 9,25,9
	lwz 29,4(9)
.LBE2077:
.LBE2079:
.LBB2080:
	.loc 2 2177 0
	cmpwi 7,29,0
	beq- 7,.L170
	.loc 2 2177 0 is_stmt 0 discriminator 1
	mr 3,29
	bl _ZNK8idEntity16GetEntityDefNameEv
.LVL329:
	mr 4,27
	bl _ZN5idStr3CmpEPKcS1_
	cmpwi 7,3,0
	bne- 7,.L181
.LBB2073:
	.loc 2 2178 0 is_stmt 1 discriminator 4
	mr 3,29
	bl _ZNK8idEntity10GetPhysicsEv
	li 4,0
	lwz 9,0(3)
	lwz 0,132(9)
	mtctr 0
	bctrl
	.loc 2 2179 0 discriminator 4
	mr 4,26
	.loc 2 2178 0 discriminator 4
	mr 21,3
.LVL330:
	.loc 2 2179 0 discriminator 4
	mr 3,30
.LVL331:
	mr 5,21
	bl _ZNK4idAI14TravelDistanceERK6idVec3S2_
.LVL332:
	.loc 2 2180 0 discriminator 4
	fcmpu 7,1,31
	cror 30,29,30
	bne- 7,.L181
	.loc 2 2180 0 is_stmt 0 discriminator 1
	fcmpu 7,30,1
	bgt- 7,.L177
.LVL333:
.L181:
	lwz 11,172(30)
.LBE2073:
.LBE2080:
	.loc 2 2175 0 is_stmt 1
	addi 31,31,1
.LVL334:
	cmpw 7,11,31
	bgt+ 7,.L173
.LVL335:
.L168:
.LBE2082:
	.loc 2 2188 0
	mr 3,24
	bl _ZN8idThread12ReturnEntityEP8idEntity
	b .L161
.LVL336:
.L177:
.LBB2083:
.LBB2081:
.LBB2074:
	.loc 2 2181 0
	mr 3,30
	mr 4,23
	mr 5,22
	mr 6,21
	stfd 1,8(1)
	bl _ZN4idAI15EntityCanSeePosEP7idActorRK6idVec3S4_
.LVL337:
	cmpwi 7,3,0
	lwz 11,172(30)
	lfd 1,8(1)
	bne- 7,.L170
	.loc 2 2183 0
	fmr 30,1
.LVL338:
	.loc 2 2181 0
	mr 24,29
	b .L170
.LVL339:
.L183:
.LBE2074:
.LBE2081:
.LBE2083:
.LBB2084:
.LBB2085:
	.loc 6 634 0
	lwz 9,184(30)
	lwz 0,0(9)
	rlwinm 9,0,0,20,31
.LVL340:
	.loc 6 635 0
	srawi 0,0,12
	addi 11,9,4228
	slwi 11,11,2
	add 11,28,11
	lwz 11,4(11)
	cmpw 7,11,0
	bne+ 7,.L167
	.loc 6 636 0
	addi 0,9,132
	slwi 0,0,2
	add 28,28,0
	lwz 31,4(28)
.LBE2085:
.LBE2084:
	.loc 2 2163 0
	cmpwi 7,31,0
	beq- 7,.L167
	.loc 2 2163 0 is_stmt 0 discriminator 1
	mr 3,31
	bl _ZNK8idEntity16GetEntityDefNameEv
.LVL341:
	mr 4,27
	bl _ZN5idStr3CmpEPKcS1_
	cmpwi 7,3,0
	bne- 7,.L167
	.loc 2 2164 0 is_stmt 1 discriminator 4
	mr 3,31
	bl _ZNK8idEntity10GetPhysicsEv
	li 4,0
	lwz 9,0(3)
	lwz 0,132(9)
	mtctr 0
	bctrl
	mr 4,23
	mr 6,3
	addi 5,30,5124
	mr 3,30
	bl _ZN4idAI15EntityCanSeePosEP7idActorRK6idVec3S4_
	cmpwi 7,3,0
	bne+ 7,.L167
	.loc 2 2165 0
	mr 3,31
	bl _ZN8idThread12ReturnEntityEP8idEntity
	.loc 2 2166 0
	b .L161
.LBE2090:
	.cfi_endproc
.LFE2923:
	.size	_ZN4idAI28Event_GetClosestHiddenTargetEPKc, .-_ZN4idAI28Event_GetClosestHiddenTargetEPKc
	.align 2
	.globl _ZN4idAI20Event_ClearFlyOffsetEv
	.type	_ZN4idAI20Event_ClearFlyOffsetEv, @function
_ZN4idAI20Event_ClearFlyOffsetEv:
.LFB2922:
	.loc 2 2137 0
	.cfi_startproc
.LVL342:
	mflr 0
	stwu 1,-8(1)
.LCFI93:
	.cfi_def_cfa_offset 8
	.cfi_register 65, 0
	mr 6,3
	.loc 2 2138 0
	lis 4,.LC5@ha
	lis 5,.LC6@ha
	addi 3,3,100
.LVL343:
	la 4,.LC5@l(4)
	la 5,.LC6@l(5)
	addi 6,6,4512
.LVL344:
	.loc 2 2137 0
	stw 0,12(1)
	.loc 2 2138 0
	.cfi_offset 65, 4
	bl _ZNK6idDict6GetIntEPKcS1_Ri
.LVL345:
	.loc 2 2139 0
	lwz 0,12(1)
	addi 1,1,8
.LCFI94:
	.cfi_def_cfa_offset 0
	mtlr 0
	blr
	.cfi_endproc
.LFE2922:
	.size	_ZN4idAI20Event_ClearFlyOffsetEv, .-_ZN4idAI20Event_ClearFlyOffsetEv
	.align 2
	.globl _ZN4idAI17Event_DisableClipEv
	.type	_ZN4idAI17Event_DisableClipEv, @function
_ZN4idAI17Event_DisableClipEv:
.LFB2915:
	.loc 2 2070 0
	.cfi_startproc
.LVL346:
	stwu 1,-16(1)
.LCFI95:
	.cfi_def_cfa_offset 16
	mflr 0
	.loc 2 2071 0
	li 4,0
	li 5,-1
	.loc 2 2070 0
	stw 31,12(1)
	mr 31,3
	.cfi_offset 31, -4
	.cfi_register 65, 0
	.loc 2 2071 0
	addi 3,3,4216
.LVL347:
	.loc 2 2070 0
	stw 0,20(1)
	.loc 2 2071 0
	.cfi_offset 65, 4
	bl _ZN14idPhysics_Base11SetClipMaskEii
	.loc 2 2072 0
	li 0,1
	stb 0,4546(31)
	.loc 2 2073 0
	lwz 0,20(1)
	lwz 31,12(1)
.LVL348:
	mtlr 0
	addi 1,1,16
.LCFI96:
	.cfi_def_cfa_offset 0
	.cfi_restore 31
	blr
	.cfi_endproc
.LFE2915:
	.size	_ZN4idAI17Event_DisableClipEv, .-_ZN4idAI17Event_DisableClipEv
	.align 2
	.globl _ZN4idAI16Event_EnableClipEv
	.type	_ZN4idAI16Event_EnableClipEv, @function
_ZN4idAI16Event_EnableClipEv:
.LFB2914:
	.loc 2 2060 0
	.cfi_startproc
.LVL349:
	stwu 1,-16(1)
.LCFI97:
	.cfi_def_cfa_offset 16
	mflr 0
	.loc 2 2061 0
	li 4,273
	li 5,-1
	.loc 2 2060 0
	stw 31,12(1)
	mr 31,3
	.cfi_offset 31, -4
	.cfi_register 65, 0
	.loc 2 2061 0
	addi 3,3,4216
.LVL350:
	.loc 2 2060 0
	stw 0,20(1)
	.loc 2 2061 0
	.cfi_offset 65, 4
	bl _ZN14idPhysics_Base11SetClipMaskEii
	.loc 2 2062 0
	li 0,0
	stb 0,4546(31)
	.loc 2 2063 0
	lwz 0,20(1)
	lwz 31,12(1)
.LVL351:
	mtlr 0
	addi 1,1,16
.LCFI98:
	.cfi_def_cfa_offset 0
	.cfi_restore 31
	blr
	.cfi_endproc
.LFE2914:
	.size	_ZN4idAI16Event_EnableClipEv, .-_ZN4idAI16Event_EnableClipEv
	.align 2
	.globl _ZN4idAI14Event_StopMoveEv
	.type	_ZN4idAI14Event_StopMoveEv, @function
_ZN4idAI14Event_StopMoveEv:
.LFB2856:
	.loc 2 949 0
	.cfi_startproc
.LVL352:
	mflr 0
	stwu 1,-8(1)
.LCFI99:
	.cfi_def_cfa_offset 8
	.cfi_register 65, 0
	.loc 2 950 0
	li 4,0
	.loc 2 949 0
	stw 0,12(1)
	.loc 2 950 0
	.cfi_offset 65, 4
	bl _ZN4idAI8StopMoveE12moveStatus_t
.LVL353:
	.loc 2 951 0
	lwz 0,12(1)
	addi 1,1,8
.LCFI100:
	.cfi_def_cfa_offset 0
	mtlr 0
	blr
	.cfi_endproc
.LFE2856:
	.size	_ZN4idAI14Event_StopMoveEv, .-_ZN4idAI14Event_StopMoveEv
	.align 2
	.globl _ZN4idAI15Event_FaceEnemyEv
	.type	_ZN4idAI15Event_FaceEnemyEv, @function
_ZN4idAI15Event_FaceEnemyEv:
.LFB2867:
	.loc 2 1071 0
	.cfi_startproc
.LVL354:
	mflr 0
	stwu 1,-8(1)
.LCFI101:
	.cfi_def_cfa_offset 8
	.cfi_register 65, 0
	stw 0,12(1)
	.loc 2 1072 0
	.cfi_offset 65, 4
	bl _ZN4idAI9FaceEnemyEv
.LVL355:
	.loc 2 1073 0
	lwz 0,12(1)
	addi 1,1,8
.LCFI102:
	.cfi_def_cfa_offset 0
	mtlr 0
	blr
	.cfi_endproc
.LFE2867:
	.size	_ZN4idAI15Event_FaceEnemyEv, .-_ZN4idAI15Event_FaceEnemyEv
	.align 2
	.globl _ZN4idAI16Event_FaceEntityEP8idEntity
	.type	_ZN4idAI16Event_FaceEntityEP8idEntity, @function
_ZN4idAI16Event_FaceEntityEP8idEntity:
.LFB2868:
	.loc 2 1080 0
	.cfi_startproc
.LVL356:
	mflr 0
	stwu 1,-8(1)
.LCFI103:
	.cfi_def_cfa_offset 8
	.cfi_register 65, 0
	stw 0,12(1)
	.loc 2 1081 0
	.cfi_offset 65, 4
	bl _ZN4idAI10FaceEntityEP8idEntity
.LVL357:
	.loc 2 1082 0
	lwz 0,12(1)
	addi 1,1,8
.LCFI104:
	.cfi_def_cfa_offset 0
	mtlr 0
	blr
	.cfi_endproc
.LFE2868:
	.size	_ZN4idAI16Event_FaceEntityEP8idEntity, .-_ZN4idAI16Event_FaceEntityEP8idEntity
	.align 2
	.globl _ZN4idAI17Event_MoveToEnemyEv
	.type	_ZN4idAI17Event_MoveToEnemyEv, @function
_ZN4idAI17Event_MoveToEnemyEv:
.LFB2858:
	.loc 2 972 0
	.cfi_startproc
.LVL358:
	stwu 1,-16(1)
.LCFI105:
	.cfi_def_cfa_offset 16
	mflr 0
	.loc 2 973 0
	li 4,3
	.loc 2 972 0
	stw 31,12(1)
	mr 31,3
	.cfi_offset 31, -4
	.cfi_register 65, 0
	stw 0,20(1)
	.loc 2 973 0
	.cfi_offset 65, 4
	bl _ZN4idAI8StopMoveE12moveStatus_t
.LVL359:
.LBB2091:
.LBB2092:
	.loc 6 634 0
	lwz 0,5120(31)
	.loc 6 635 0
	lis 9,gameLocal@ha
	la 9,gameLocal@l(9)
	.loc 6 634 0
	rlwinm 11,0,0,20,31
.LVL360:
	.loc 6 635 0
	srawi 0,0,12
	addi 10,11,4228
	slwi 10,10,2
	add 10,9,10
	lwz 10,4(10)
	cmpw 7,10,0
	beq- 7,.L192
.LVL361:
.L190:
.LBE2092:
.LBE2091:
	.loc 2 977 0
	lwz 0,20(1)
	lwz 31,12(1)
.LVL362:
	mtlr 0
	addi 1,1,16
	.cfi_remember_state
.LCFI106:
	.cfi_def_cfa_offset 0
	.cfi_restore 31
	blr
.LVL363:
.L192:
.LCFI107:
	.cfi_restore_state
.LBB2094:
.LBB2093:
	.loc 6 636 0
	addi 11,11,132
.LVL364:
	slwi 11,11,2
.LVL365:
	add 9,9,11
.LBE2093:
.LBE2094:
	.loc 2 974 0
	lwz 0,4(9)
	cmpwi 7,0,0
	beq- 7,.L190
	.loc 2 974 0 is_stmt 0 discriminator 2
	mr 3,31
	bl _ZN4idAI11MoveToEnemyEv
	.loc 2 977 0 is_stmt 1 discriminator 2
	lwz 0,20(1)
	lwz 31,12(1)
.LVL366:
	mtlr 0
	addi 1,1,16
	.cfi_restore 31
.LCFI108:
	.cfi_def_cfa_offset 0
	blr
	.cfi_endproc
.LFE2858:
	.size	_ZN4idAI17Event_MoveToEnemyEv, .-_ZN4idAI17Event_MoveToEnemyEv
	.align 2
	.globl _ZN4idAI23Event_MoveToEnemyHeightEv
	.type	_ZN4idAI23Event_MoveToEnemyHeightEv, @function
_ZN4idAI23Event_MoveToEnemyHeightEv:
.LFB2859:
	.loc 2 984 0
	.cfi_startproc
.LVL367:
	stwu 1,-16(1)
.LCFI109:
	.cfi_def_cfa_offset 16
	mflr 0
	.loc 2 985 0
	li 4,3
	.loc 2 984 0
	stw 31,12(1)
	mr 31,3
	.cfi_offset 31, -4
	.cfi_register 65, 0
	stw 0,20(1)
	.loc 2 985 0
	.cfi_offset 65, 4
	bl _ZN4idAI8StopMoveE12moveStatus_t
.LVL368:
	.loc 2 986 0
	mr 3,31
	bl _ZN4idAI17MoveToEnemyHeightEv
	.loc 2 987 0
	lwz 0,20(1)
	lwz 31,12(1)
.LVL369:
	mtlr 0
	addi 1,1,16
.LCFI110:
	.cfi_def_cfa_offset 0
	.cfi_restore 31
	blr
	.cfi_endproc
.LFE2859:
	.size	_ZN4idAI23Event_MoveToEnemyHeightEv, .-_ZN4idAI23Event_MoveToEnemyHeightEv
	.align 2
	.globl _ZN4idAI18Event_MoveToEntityEP8idEntity
	.type	_ZN4idAI18Event_MoveToEntityEP8idEntity, @function
_ZN4idAI18Event_MoveToEntityEP8idEntity:
.LFB2862:
	.loc 2 1022 0
	.cfi_startproc
.LVL370:
	stwu 1,-16(1)
.LCFI111:
	.cfi_def_cfa_offset 16
	mflr 0
	stw 31,12(1)
	mr 31,4
	.cfi_offset 31, -4
	.cfi_register 65, 0
	.loc 2 1023 0
	li 4,3
.LVL371:
	.loc 2 1022 0
	stw 30,8(1)
	stw 0,20(1)
	.loc 2 1022 0
	mr 30,3
	.cfi_offset 65, 4
	.cfi_offset 30, -8
	.loc 2 1023 0
	bl _ZN4idAI8StopMoveE12moveStatus_t
.LVL372:
	.loc 2 1024 0
	cmpwi 7,31,0
	beq- 7,.L194
	.loc 2 1025 0
	mr 3,30
	mr 4,31
	bl _ZN4idAI12MoveToEntityEP8idEntity
.L194:
	.loc 2 1027 0
	lwz 0,20(1)
	lwz 30,8(1)
.LVL373:
	mtlr 0
	lwz 31,12(1)
.LVL374:
	addi 1,1,16
.LCFI112:
	.cfi_def_cfa_offset 0
	.cfi_restore 31
	.cfi_restore 30
	blr
	.cfi_endproc
.LFE2862:
	.size	_ZN4idAI18Event_MoveToEntityEP8idEntity, .-_ZN4idAI18Event_MoveToEntityEP8idEntity
	.align 2
	.globl _ZN4idAI20Event_MoveOutOfRangeEP8idEntityf
	.type	_ZN4idAI20Event_MoveOutOfRangeEP8idEntityf, @function
_ZN4idAI20Event_MoveOutOfRangeEP8idEntityf:
.LFB2860:
	.loc 2 994 0
	.cfi_startproc
.LVL375:
	stwu 1,-24(1)
.LCFI113:
	.cfi_def_cfa_offset 24
	mflr 0
	stw 31,20(1)
	mr 31,4
	.cfi_offset 31, -4
	.cfi_register 65, 0
	.loc 2 995 0
	li 4,3
.LVL376:
	.loc 2 994 0
	stw 0,28(1)
	stw 30,16(1)
	.loc 2 994 0
	mr 30,3
	.cfi_offset 30, -8
	.cfi_offset 65, 4
	.loc 2 995 0
	stfd 1,8(1)
	bl _ZN4idAI8StopMoveE12moveStatus_t
.LVL377:
	.loc 2 996 0
	lfd 1,8(1)
	mr 3,30
	mr 4,31
	bl _ZN4idAI14MoveOutOfRangeEP8idEntityf
	.loc 2 997 0
	lwz 0,28(1)
	lwz 30,16(1)
.LVL378:
	mtlr 0
	lwz 31,20(1)
.LVL379:
	addi 1,1,24
.LCFI114:
	.cfi_def_cfa_offset 0
	.cfi_restore 31
	.cfi_restore 30
	blr
	.cfi_endproc
.LFE2860:
	.size	_ZN4idAI20Event_MoveOutOfRangeEP8idEntityf, .-_ZN4idAI20Event_MoveOutOfRangeEP8idEntityf
	.align 2
	.globl _ZN4idAI17Event_MoveToCoverEv
	.type	_ZN4idAI17Event_MoveToCoverEv, @function
_ZN4idAI17Event_MoveToCoverEv:
.LFB2857:
	.loc 2 958 0
	.cfi_startproc
.LVL380:
	mflr 0
	stwu 1,-16(1)
.LCFI115:
	.cfi_def_cfa_offset 16
	.cfi_register 65, 0
.LBB2095:
.LBB2096:
.LBB2097:
	.loc 6 635 0
	lis 9,gameLocal@ha
.LBE2097:
.LBE2096:
.LBE2095:
	.loc 2 958 0
	stw 31,12(1)
.LBB2106:
.LBB2102:
.LBB2098:
	.loc 6 635 0
	la 9,gameLocal@l(9)
.LBE2098:
.LBE2102:
.LBE2106:
	.loc 2 958 0
	stw 0,20(1)
	mr 31,3
	.cfi_offset 65, 4
	.cfi_offset 31, -4
.LVL381:
	stw 30,8(1)
.LBB2107:
.LBB2103:
.LBB2099:
	.loc 6 634 0
	lwz 0,5120(3)
	rlwinm 11,0,0,20,31
.LVL382:
	.loc 6 635 0
	srawi 0,0,12
	addi 10,11,4228
	slwi 10,10,2
	add 10,9,10
	lwz 10,4(10)
	cmpw 7,10,0
	beq- 7,.L200
	.cfi_offset 30, -8
.LBE2099:
.LBE2103:
	.loc 2 961 0
	li 4,3
	bl _ZN4idAI8StopMoveE12moveStatus_t
.LVL383:
.L197:
.LBE2107:
	.loc 2 965 0
	lwz 0,20(1)
	lwz 30,8(1)
	mtlr 0
	lwz 31,12(1)
.LVL384:
	addi 1,1,16
	.cfi_remember_state
.LCFI116:
	.cfi_def_cfa_offset 0
	.cfi_restore 31
	.cfi_restore 30
	blr
.LVL385:
.L200:
.LCFI117:
	.cfi_restore_state
.LBB2108:
.LBB2104:
.LBB2100:
	.loc 6 636 0
	addi 11,11,132
.LVL386:
.LBE2100:
.LBE2104:
	.loc 2 961 0
	li 4,3
.LBB2105:
.LBB2101:
	.loc 6 636 0
	slwi 11,11,2
.LVL387:
	add 9,9,11
	lwz 30,4(9)
.LBE2101:
.LBE2105:
	.loc 2 961 0
	bl _ZN4idAI8StopMoveE12moveStatus_t
.LVL388:
	.loc 2 962 0
	cmpwi 7,30,0
	beq- 7,.L197
	.loc 2 962 0 is_stmt 0 discriminator 2
	mr 3,31
	mr 4,30
	addi 5,31,5124
	bl _ZN4idAI11MoveToCoverEP8idEntityRK6idVec3
.LBE2108:
	.loc 2 965 0 is_stmt 1 discriminator 2
	lwz 0,20(1)
	lwz 30,8(1)
	mtlr 0
	lwz 31,12(1)
.LVL389:
	addi 1,1,16
	.cfi_restore 30
	.cfi_restore 31
.LCFI118:
	.cfi_def_cfa_offset 0
	blr
	.cfi_endproc
.LFE2857:
	.size	_ZN4idAI17Event_MoveToCoverEv, .-_ZN4idAI17Event_MoveToCoverEv
	.align 2
	.globl _ZN4idAI20Event_MoveToPositionERK6idVec3
	.type	_ZN4idAI20Event_MoveToPositionERK6idVec3, @function
_ZN4idAI20Event_MoveToPositionERK6idVec3:
.LFB2863:
	.loc 2 1034 0
	.cfi_startproc
.LVL390:
	stwu 1,-16(1)
.LCFI119:
	.cfi_def_cfa_offset 16
	mflr 0
	stw 30,8(1)
	mr 30,3
	.cfi_offset 30, -8
	.cfi_register 65, 0
	stw 31,12(1)
	mr 31,4
	.cfi_offset 31, -4
	.loc 2 1035 0
	li 4,0
.LVL391:
	.loc 2 1034 0
	stw 0,20(1)
	.loc 2 1035 0
	.cfi_offset 65, 4
	bl _ZN4idAI8StopMoveE12moveStatus_t
.LVL392:
	.loc 2 1036 0
	mr 3,30
	mr 4,31
	bl _ZN4idAI14MoveToPositionERK6idVec3
	.loc 2 1037 0
	lwz 0,20(1)
	lwz 30,8(1)
.LVL393:
	mtlr 0
	lwz 31,12(1)
.LVL394:
	addi 1,1,16
.LCFI120:
	.cfi_def_cfa_offset 0
	.cfi_restore 31
	.cfi_restore 30
	blr
	.cfi_endproc
.LFE2863:
	.size	_ZN4idAI20Event_MoveToPositionERK6idVec3, .-_ZN4idAI20Event_MoveToPositionERK6idVec3
	.align 2
	.globl _ZN4idAI13Event_SlideToERK6idVec3f
	.type	_ZN4idAI13Event_SlideToERK6idVec3f, @function
_ZN4idAI13Event_SlideToERK6idVec3f:
.LFB2864:
	.loc 2 1044 0
	.cfi_startproc
.LVL395:
	mflr 0
	stwu 1,-8(1)
.LCFI121:
	.cfi_def_cfa_offset 8
	.cfi_register 65, 0
	stw 0,12(1)
	.loc 2 1045 0
	.cfi_offset 65, 4
	bl _ZN4idAI15SlideToPositionERK6idVec3f
.LVL396:
	.loc 2 1046 0
	lwz 0,12(1)
	addi 1,1,8
.LCFI122:
	.cfi_def_cfa_offset 0
	mtlr 0
	blr
	.cfi_endproc
.LFE2864:
	.size	_ZN4idAI13Event_SlideToERK6idVec3f, .-_ZN4idAI13Event_SlideToERK6idVec3f
	.align 2
	.globl _ZN4idAI12Event_WanderEv
	.type	_ZN4idAI12Event_WanderEv, @function
_ZN4idAI12Event_WanderEv:
.LFB2865:
	.loc 2 1052 0
	.cfi_startproc
.LVL397:
	mflr 0
	stwu 1,-8(1)
.LCFI123:
	.cfi_def_cfa_offset 8
	.cfi_register 65, 0
	stw 0,12(1)
	.loc 2 1053 0
	.cfi_offset 65, 4
	bl _ZN4idAI12WanderAroundEv
.LVL398:
	.loc 2 1054 0
	lwz 0,12(1)
	addi 1,1,8
.LCFI124:
	.cfi_def_cfa_offset 0
	mtlr 0
	blr
	.cfi_endproc
.LFE2865:
	.size	_ZN4idAI12Event_WanderEv, .-_ZN4idAI12Event_WanderEv
	.align 2
	.globl _ZN4idAI17Event_RestoreMoveEv
	.type	_ZN4idAI17Event_RestoreMoveEv, @function
_ZN4idAI17Event_RestoreMoveEv:
.LFB2911:
	.loc 2 1974 0
	.cfi_startproc
.LVL399:
	mflr 0
	stwu 1,-56(1)
.LCFI125:
	.cfi_def_cfa_offset 56
	.cfi_register 65, 0
	stw 31,52(1)
	mr 31,3
	.cfi_offset 31, -4
	stw 0,60(1)
.LBB2109:
	.loc 2 1978 0
	lwz 0,4064(3)
	.cfi_offset 65, 4
	cmplwi 7,0,12
	bgt- 7,.L205
	lis 9,.L219@ha
	slwi 0,0,2
	la 9,.L219@l(9)
	lwzx 0,9,0
	add 9,0,9
	mtctr 9
	bctr
	.section	.rodata
	.align 2
	.align 2
.L219:
	.long .L206-.L219
	.long .L207-.L219
	.long .L208-.L219
	.long .L209-.L219
	.long .L210-.L219
	.long .L211-.L219
	.long .L212-.L219
	.long .L213-.L219
	.long .L214-.L219
	.long .L215-.L219
	.long .L216-.L219
	.long .L217-.L219
	.long .L218-.L219
	.section	".text"
.L208:
.LVL400:
.LBB2110:
.LBB2111:
	.loc 6 634 0
	lwz 0,4096(3)
	.loc 6 635 0
	lis 9,gameLocal@ha
	la 9,gameLocal@l(9)
	.loc 6 638 0
	li 4,0
	.loc 6 634 0
	rlwinm 11,0,0,20,31
.LVL401:
	.loc 6 635 0
	srawi 0,0,12
	addi 10,11,4228
	slwi 10,10,2
	add 10,9,10
	lwz 10,4(10)
	cmpw 7,10,0
	beq- 7,.L231
.LVL402:
.L220:
.LBE2111:
.LBE2110:
	.loc 2 1988 0
	mr 3,31
.LVL403:
	bl _ZN4idAI10FaceEntityEP8idEntity
.LVL404:
.L205:
	.loc 2 2032 0
	mr 3,31
	addi 4,1,20
	bl _ZN4idAI10GetMovePosER6idVec3
	cmpwi 7,3,0
	beq+ 7,.L204
	.loc 2 2033 0
	mr 3,31
	addi 4,1,20
	addi 5,1,8
	bl _ZN4idAI22CheckObstacleAvoidanceERK6idVec3RS0_
.L204:
.LBE2109:
	.loc 2 2035 0
	lwz 0,60(1)
	lwz 31,52(1)
.LVL405:
	mtlr 0
	addi 1,1,56
	.cfi_remember_state
.LCFI126:
	.cfi_def_cfa_offset 0
	.cfi_restore 31
	blr
.LVL406:
.L217:
.LCFI127:
	.cfi_restore_state
.LBB2130:
	.loc 2 2024 0
	lwz 0,4120(3)
	lis 9,.LC4@ha
	lfs 0,.LC4@l(9)
	addi 4,31,4072
	xoris 0,0,0x8000
	stw 0,44(1)
	lis 0,0x4330
	stw 0,40(1)
	lfd 1,40(1)
	fsub 1,1,0
	frsp 1,1
	bl _ZN4idAI15SlideToPositionERK6idVec3f
.LVL407:
	.loc 2 2025 0
	b .L205
.L218:
	.loc 2 2028 0
	bl _ZN4idAI12WanderAroundEv
	.loc 2 2029 0
	b .L205
.L206:
	.loc 2 1980 0
	lwz 4,4068(3)
	bl _ZN4idAI8StopMoveE12moveStatus_t
	.loc 2 1981 0
	b .L205
.L207:
	.loc 2 1984 0
	bl _ZN4idAI9FaceEnemyEv
	.loc 2 1985 0
	b .L205
.L209:
	.loc 2 1992 0
	bl _ZN4idAI11MoveToEnemyEv
	.loc 2 1993 0
	b .L205
.L210:
	.loc 2 1996 0
	bl _ZN4idAI17MoveToEnemyHeightEv
	.loc 2 1997 0
	b .L205
.L211:
.LVL408:
.LBB2113:
.LBB2114:
	.loc 6 634 0
	lwz 0,4096(3)
	.loc 6 635 0
	lis 9,gameLocal@ha
	la 9,gameLocal@l(9)
	.loc 6 638 0
	li 4,0
	.loc 6 634 0
	rlwinm 11,0,0,20,31
.LVL409:
	.loc 6 635 0
	srawi 0,0,12
	addi 10,11,4228
	slwi 10,10,2
	add 10,9,10
	lwz 10,4(10)
	cmpw 7,10,0
	beq- 7,.L232
.LVL410:
.L221:
.LBE2114:
.LBE2113:
	.loc 2 2000 0
	mr 3,31
	bl _ZN4idAI12MoveToEntityEP8idEntity
	.loc 2 2001 0
	b .L205
.LVL411:
.L212:
.LBB2116:
.LBB2117:
	.loc 6 634 0
	lwz 0,4096(3)
	.loc 6 635 0
	lis 9,gameLocal@ha
	la 9,gameLocal@l(9)
	.loc 6 638 0
	li 4,0
	.loc 6 634 0
	rlwinm 11,0,0,20,31
.LVL412:
	.loc 6 635 0
	srawi 0,0,12
	addi 10,11,4228
	slwi 10,10,2
	add 10,9,10
	lwz 10,4(10)
	cmpw 7,10,0
	beq- 7,.L233
.LVL413:
.L222:
.LBE2117:
.LBE2116:
	.loc 2 2004 0
	lfs 1,4128(31)
	mr 3,31
	bl _ZN4idAI14MoveOutOfRangeEP8idEntityf
	.loc 2 2005 0
	b .L205
.LVL414:
.L213:
.LBB2119:
.LBB2120:
	.loc 6 634 0
	lwz 0,4096(3)
	.loc 6 635 0
	lis 9,gameLocal@ha
	la 9,gameLocal@l(9)
	.loc 6 638 0
	li 4,0
	.loc 6 634 0
	rlwinm 11,0,0,20,31
.LVL415:
	.loc 6 635 0
	srawi 0,0,12
	addi 10,11,4228
	slwi 10,10,2
	add 10,9,10
	lwz 10,4(10)
	cmpw 7,10,0
	beq- 7,.L234
.LVL416:
.L223:
.LBE2120:
.LBE2119:
	.loc 2 2008 0
	lwz 5,4164(31)
	mr 3,31
	bl _ZN4idAI20MoveToAttackPositionEP8idEntityi
	.loc 2 2009 0
	b .L205
.LVL417:
.L214:
.LBB2122:
.LBB2123:
	.loc 6 634 0
	lwz 0,4096(3)
	.loc 6 635 0
	lis 9,gameLocal@ha
	la 9,gameLocal@l(9)
	.loc 6 638 0
	li 4,0
	.loc 6 634 0
	rlwinm 11,0,0,20,31
.LVL418:
	.loc 6 635 0
	srawi 0,0,12
	addi 10,11,4228
	slwi 10,10,2
	add 10,9,10
	lwz 10,4(10)
	cmpw 7,10,0
	beq- 7,.L235
.LVL419:
.L224:
.LBE2123:
.LBE2122:
	.loc 2 2012 0
	mr 3,31
	addi 5,31,5124
	bl _ZN4idAI11MoveToCoverEP8idEntityRK6idVec3
	.loc 2 2013 0
	b .L205
.LVL420:
.L215:
	.loc 2 2016 0
	addi 4,31,4072
	bl _ZN4idAI14MoveToPositionERK6idVec3
	.loc 2 2017 0
	b .L205
.L216:
	.loc 2 2020 0
	addi 4,31,4072
	bl _ZN4idAI20DirectMoveToPositionERK6idVec3
	.loc 2 2021 0
	b .L205
.LVL421:
.L231:
.LBB2125:
.LBB2112:
	.loc 6 636 0
	addi 11,11,132
.LVL422:
	slwi 11,11,2
.LVL423:
	add 9,9,11
	lwz 4,4(9)
	b .L220
.LVL424:
.L235:
.LBE2112:
.LBE2125:
.LBB2126:
.LBB2124:
	addi 11,11,132
.LVL425:
	slwi 11,11,2
.LVL426:
	add 9,9,11
	lwz 4,4(9)
	b .L224
.LVL427:
.L234:
.LBE2124:
.LBE2126:
.LBB2127:
.LBB2121:
	addi 11,11,132
.LVL428:
	slwi 11,11,2
.LVL429:
	add 9,9,11
	lwz 4,4(9)
	b .L223
.LVL430:
.L233:
.LBE2121:
.LBE2127:
.LBB2128:
.LBB2118:
	addi 11,11,132
.LVL431:
	slwi 11,11,2
.LVL432:
	add 9,9,11
	lwz 4,4(9)
	b .L222
.LVL433:
.L232:
.LBE2118:
.LBE2128:
.LBB2129:
.LBB2115:
	addi 11,11,132
.LVL434:
	slwi 11,11,2
.LVL435:
	add 9,9,11
	lwz 4,4(9)
	b .L221
.LBE2115:
.LBE2129:
.LBE2130:
	.cfi_endproc
.LFE2911:
	.size	_ZN4idAI17Event_RestoreMoveEv, .-_ZN4idAI17Event_RestoreMoveEv
	.align 2
	.globl _ZN4idAI17Event_SetMoveTypeEi
	.type	_ZN4idAI17Event_SetMoveTypeEi, @function
_ZN4idAI17Event_SetMoveTypeEi:
.LFB2908:
	.loc 2 1947 0
	.cfi_startproc
.LVL436:
	.loc 2 1948 0
	cmplwi 7,4,4
	.loc 2 1947 0
	mflr 0
	stwu 1,-16(1)
.LCFI128:
	.cfi_def_cfa_offset 16
	.cfi_register 65, 0
	stw 30,8(1)
	mr 30,3
	.cfi_offset 30, -8
	stw 31,12(1)
	mr 31,4
	.cfi_offset 31, -4
	stw 0,20(1)
	.loc 2 1948 0
	bgt- 7,.L241
	.cfi_offset 65, 4
	.loc 2 1953 0
	cmpwi 7,4,3
	.loc 2 1954 0
	lis 0,0x40
	.loc 2 1952 0
	stw 4,3952(30)
	.loc 2 1954 0
	ori 0,0,2050
	.loc 2 1953 0
	beq- 7,.L239
.LVL437:
.L238:
	.loc 2 1956 0
	lis 0,0x40
	ori 0,0,2
.L239:
	.loc 2 1953 0
	stw 0,3948(30)
	.loc 2 1958 0
	lwz 0,20(1)
	lwz 30,8(1)
.LVL438:
	mtlr 0
	lwz 31,12(1)
.LVL439:
	addi 1,1,16
	.cfi_remember_state
.LCFI129:
	.cfi_def_cfa_offset 0
	.cfi_restore 31
	.cfi_restore 30
	blr
.LVL440:
.L241:
.LCFI130:
	.cfi_restore_state
	.loc 2 1949 0
	lis 3,gameLocal@ha
.LVL441:
	lis 4,.LC7@ha
.LVL442:
	la 3,gameLocal@l(3)
	la 4,.LC7@l(4)
	mr 5,31
	crxor 6,6,6
	bl _ZNK11idGameLocal5ErrorEPKcz
	.loc 2 1952 0
	stw 31,3952(30)
	b .L238
	.cfi_endproc
.LFE2908:
	.size	_ZN4idAI17Event_SetMoveTypeEi, .-_ZN4idAI17Event_SetMoveTypeEi
	.align 2
	.globl _ZN4idAI18Event_SetTalkStateEi
	.type	_ZN4idAI18Event_SetTalkStateEi, @function
_ZN4idAI18Event_SetTalkStateEi:
.LFB2878:
	.loc 2 1323 0
	.cfi_startproc
.LVL443:
	.loc 2 1324 0
	cmplwi 7,4,3
	.loc 2 1323 0
	mflr 0
	stwu 1,-16(1)
.LCFI131:
	.cfi_def_cfa_offset 16
	.cfi_register 65, 0
	stw 30,8(1)
	mr 30,3
	.cfi_offset 30, -8
	stw 31,12(1)
	mr 31,4
	.cfi_offset 31, -4
	stw 0,20(1)
	.loc 2 1324 0
	ble+ 7,.L243
	.cfi_offset 65, 4
	.loc 2 1325 0
	lis 3,gameLocal@ha
.LVL444:
	lis 4,.LC8@ha
.LVL445:
	la 3,gameLocal@l(3)
	la 4,.LC8@l(4)
	mr 5,31
	crxor 6,6,6
	bl _ZNK11idGameLocal5ErrorEPKcz
.L243:
	.loc 2 1328 0
	stw 31,4676(30)
	.loc 2 1329 0
	lwz 0,20(1)
	lwz 30,8(1)
.LVL446:
	mtlr 0
	lwz 31,12(1)
.LVL447:
	addi 1,1,16
.LCFI132:
	.cfi_def_cfa_offset 0
	.cfi_restore 31
	.cfi_restore 30
	blr
	.cfi_endproc
.LFE2878:
	.size	_ZN4idAI18Event_SetTalkStateEi, .-_ZN4idAI18Event_SetTalkStateEi
	.align 2
	.globl _ZN4idAI18Event_StopThinkingEv
	.type	_ZN4idAI18Event_StopThinkingEv, @function
_ZN4idAI18Event_StopThinkingEv:
.LFB2905:
	.loc 2 1909 0
	.cfi_startproc
.LVL448:
	mflr 0
	stwu 1,-8(1)
.LCFI133:
	.cfi_def_cfa_offset 8
	.cfi_register 65, 0
.LBB2131:
	.loc 2 1910 0
	li 4,1
.LBE2131:
	.loc 2 1909 0
	stw 0,12(1)
.LBB2134:
	.loc 2 1910 0
	.cfi_offset 65, 4
	bl _ZN8idEntity14BecomeInactiveEi
.LVL449:
	.loc 2 1911 0
	bl _ZN8idThread13CurrentThreadEv
.LVL450:
	.loc 2 1912 0
	cmpwi 0,3,0
	beq- 0,.L244
.LBB2132:
.LBB2133:
	.file 13 "d:/Data/Nintendo/DoomGX/src/game/ai/../script/Script_Thread.h"
	.loc 13 234 0
	li 0,1
	stb 0,6972(3)
.L244:
.LBE2133:
.LBE2132:
.LBE2134:
	.loc 2 1915 0
	lwz 0,12(1)
	addi 1,1,8
.LCFI134:
	.cfi_def_cfa_offset 0
	mtlr 0
	blr
	.cfi_endproc
.LFE2905:
	.size	_ZN4idAI18Event_StopThinkingEv, .-_ZN4idAI18Event_StopThinkingEv
	.align 2
	.globl _ZN4idAI10Event_BurnEv
	.type	_ZN4idAI10Event_BurnEv, @function
_ZN4idAI10Event_BurnEv:
.LFB2901:
	.loc 2 1846 0
	.cfi_startproc
.LVL451:
	mflr 0
	stwu 1,-24(1)
.LCFI135:
	.cfi_def_cfa_offset 24
	.cfi_register 65, 0
	.loc 2 1847 0
	lis 9,gameLocal+2426836@ha
	.loc 2 1848 0
	lis 4,.LC10@ha
	.loc 2 1846 0
	stw 31,20(1)
	.loc 2 1848 0
	la 4,.LC10@l(4)
	.loc 2 1846 0
	stw 0,28(1)
	.loc 2 1846 0
	mr 31,3
	.cfi_offset 65, 4
	.cfi_offset 31, -4
	.loc 2 1847 0
	lwz 0,gameLocal+2426836@l(9)
	lis 9,.LC4@ha
	lfs 0,.LC4@l(9)
	lis 9,.LC9@ha
	xoris 0,0,0x8000
	stw 0,12(1)
	lis 0,0x4330
	stw 0,8(1)
	lfd 13,8(1)
	fsub 0,13,0
	lfs 13,.LC9@l(9)
	frsp 0,0
	fmuls 0,0,13
	stfs 0,348(3)
	.loc 2 1848 0
	bl _ZN4idAI14SpawnParticlesEPKc
.LVL452:
	.loc 2 1849 0
	mr 3,31
	bl _ZN8idEntity13UpdateVisualsEv
	.loc 2 1850 0
	lwz 0,28(1)
	lwz 31,20(1)
.LVL453:
	mtlr 0
	addi 1,1,24
.LCFI136:
	.cfi_def_cfa_offset 0
	.cfi_restore 31
	blr
	.cfi_endproc
.LFE2901:
	.size	_ZN4idAI10Event_BurnEv, .-_ZN4idAI10Event_BurnEv
	.align 2
	.globl _ZN4idAI13Event_ShrivelEf
	.type	_ZN4idAI13Event_ShrivelEf, @function
_ZN4idAI13Event_ShrivelEf:
.LFB2899:
	.loc 2 1805 0
	.cfi_startproc
.LVL454:
	stwu 1,-40(1)
.LCFI137:
	.cfi_def_cfa_offset 40
	mflr 0
	stw 29,20(1)
.LBB2135:
	.loc 2 1808 0
	lis 29,.LANCHOR0@ha
	.cfi_offset 29, -20
	.cfi_register 65, 0
	la 29,.LANCHOR0@l(29)
.LBE2135:
	.loc 2 1805 0
	stfd 31,32(1)
.LBB2136:
	.loc 2 1808 0
	addi 29,29,144
.LBE2136:
	.loc 2 1805 0
	stw 31,28(1)
.LBB2137:
	.loc 2 1808 0
	mr 4,29
.LBE2137:
	.loc 2 1805 0
	stw 0,44(1)
	stw 30,24(1)
	.loc 2 1805 0
	mr 31,3
	.cfi_offset 30, -16
	.cfi_offset 65, 4
	.cfi_offset 31, -12
	.cfi_offset 63, -8
	fmr 31,1
.LBB2138:
	.loc 2 1808 0
	bl _ZN8idThread20BeginMultiFrameEventEP8idEntityPK10idEventDef
.LVL455:
	cmpwi 7,3,0
	bne- 7,.L248
	lis 9,gameLocal+2424832@ha
	lwz 0,4840(31)
	la 9,gameLocal+2424832@l(9)
	lfs 0,4836(31)
	.loc 2 1818 0
	lwz 9,2004(9)
	subf 0,0,9
	lis 9,.LC4@ha
	xoris 0,0,0x8000
	lfs 13,.LC4@l(9)
	stw 0,12(1)
	lis 0,0x4330
	stw 0,8(1)
	.loc 2 1819 0
	lis 9,.LC12@ha
	.loc 2 1818 0
	lfd 1,8(1)
	fsub 1,1,13
	frsp 1,1
	fmuls 1,1,0
.LVL456:
	.loc 2 1819 0
	lfs 0,.LC12@l(9)
	fcmpu 7,1,0
	bgt- 7,.L261
.L253:
	.loc 2 1822 0
	lis 30,.LC11@ha
	lfs 31,.LC11@l(30)
.LVL457:
	fcmpu 7,1,31
	bgt- 7,.L262
.LVL458:
.L255:
	.loc 2 1827 0
	lis 9,.LC13@ha
	.loc 2 1805 0
	fneg 1,1
.LVL459:
	.loc 2 1827 0
	lfs 0,.LC11@l(30)
	.loc 2 1828 0
	mr 3,31
	.loc 2 1827 0
	lfs 13,.LC13@l(9)
	fmadds 1,1,13,0
	stfs 1,352(31)
	.loc 2 1828 0
	bl _ZN8idEntity13UpdateVisualsEv
.LBE2138:
	.loc 2 1829 0
	lwz 0,44(1)
	lwz 29,20(1)
	mtlr 0
	lwz 30,24(1)
	lwz 31,28(1)
.LVL460:
	lfd 31,32(1)
	addi 1,1,40
	.cfi_remember_state
.LCFI138:
	.cfi_def_cfa_offset 0
	.cfi_restore 63
	.cfi_restore 31
	.cfi_restore 30
	.cfi_restore 29
	blr
.LVL461:
.L248:
.LCFI139:
	.cfi_restore_state
.LBB2139:
	.loc 2 1809 0
	lis 9,.LC0@ha
	lfs 0,.LC0@l(9)
	fcmpu 7,31,0
	cror 30,28,30
	beq- 7,.L263
	.loc 2 1814 0
	lis 9,.LC9@ha
	lfs 0,.LC9@l(9)
	.loc 2 1815 0
	lis 9,gameLocal@ha
	la 9,gameLocal@l(9)
	.loc 2 1814 0
	fdivs 0,0,31
	.loc 2 1815 0
	addis 9,9,0x25
	.loc 2 1814 0
	stfs 0,4836(31)
	.loc 2 1815 0
	lwz 0,2004(9)
	stw 0,4840(31)
	.loc 2 1818 0
	lwz 9,2004(9)
	subf 0,0,9
	lis 9,.LC4@ha
	xoris 0,0,0x8000
	lfs 13,.LC4@l(9)
	stw 0,12(1)
	lis 0,0x4330
	stw 0,8(1)
	.loc 2 1819 0
	lis 9,.LC12@ha
	.loc 2 1818 0
	lfd 1,8(1)
	fsub 1,1,13
	frsp 1,1
	fmuls 1,1,0
.LVL462:
	.loc 2 1819 0
	lfs 0,.LC12@l(9)
	fcmpu 7,1,0
	bng- 7,.L253
.L261:
	.loc 2 1822 0
	lis 30,.LC11@ha
	.loc 2 1820 0
	li 0,1
	.loc 2 1822 0
	lfs 31,.LC11@l(30)
.LVL463:
	.loc 2 1820 0
	stb 0,397(31)
	.loc 2 1822 0
	fcmpu 7,1,31
	bng+ 7,.L255
.L262:
.LVL464:
	.loc 2 1824 0
	mr 3,31
	mr 4,29
	bl _ZN8idThread18EndMultiFrameEventEP8idEntityPK10idEventDef
	.loc 2 1823 0
	fmr 1,31
	b .L255
.LVL465:
.L263:
	.loc 2 1810 0
	mr 3,31
	mr 4,29
	bl _ZN8idThread18EndMultiFrameEventEP8idEntityPK10idEventDef
.LBE2139:
	.loc 2 1829 0
	lwz 0,44(1)
	lwz 29,20(1)
	mtlr 0
	lwz 30,24(1)
	lwz 31,28(1)
.LVL466:
	lfd 31,32(1)
.LVL467:
	addi 1,1,40
	.cfi_restore 29
	.cfi_restore 30
	.cfi_restore 31
	.cfi_restore 63
.LCFI140:
	.cfi_def_cfa_offset 0
	blr
	.cfi_endproc
.LFE2899:
	.size	_ZN4idAI13Event_ShrivelEf, .-_ZN4idAI13Event_ShrivelEf
	.align 2
	.globl _ZN4idAI26Event_MoveToAttackPositionEP8idEntityPKc
	.type	_ZN4idAI26Event_MoveToAttackPositionEP8idEntityPKc, @function
_ZN4idAI26Event_MoveToAttackPositionEP8idEntityPKc:
.LFB2861:
	.loc 2 1004 0
	.cfi_startproc
.LVL468:
	stwu 1,-24(1)
.LCFI141:
	.cfi_def_cfa_offset 24
	mflr 0
	stw 28,8(1)
	mr 28,4
	.cfi_offset 28, -16
	.cfi_register 65, 0
	stw 30,16(1)
.LBB2140:
	.loc 2 1007 0
	li 4,3
.LVL469:
.LBE2140:
	.loc 2 1004 0
	stw 31,20(1)
	mr 30,5
	.cfi_offset 31, -4
	.cfi_offset 30, -8
	mr 31,3
	stw 0,28(1)
	stw 29,12(1)
.LBB2141:
	.loc 2 1007 0
	.cfi_offset 29, -12
	.cfi_offset 65, 4
	bl _ZN4idAI8StopMoveE12moveStatus_t
.LVL470:
	.loc 2 1009 0
	mr 3,31
	li 4,2
	mr 5,30
	bl _ZN7idActor7GetAnimEiPKc
.LVL471:
	.loc 2 1010 0
	mr. 29,3
	bne+ 0,.L265
	.loc 2 1011 0
	lis 3,gameLocal@ha
.LVL472:
	lis 4,.LC14@ha
	la 3,gameLocal@l(3)
	la 4,.LC14@l(4)
	mr 5,30
	crxor 6,6,6
	bl _ZNK11idGameLocal5ErrorEPKcz
.L265:
	.loc 2 1014 0
	mr 3,31
	mr 4,28
	mr 5,29
	bl _ZN4idAI20MoveToAttackPositionEP8idEntityi
.LBE2141:
	.loc 2 1015 0
	lwz 0,28(1)
	lwz 28,8(1)
.LVL473:
	mtlr 0
	lwz 29,12(1)
.LVL474:
	lwz 30,16(1)
.LVL475:
	lwz 31,20(1)
.LVL476:
	addi 1,1,24
.LCFI142:
	.cfi_def_cfa_offset 0
	.cfi_restore 31
	.cfi_restore 30
	.cfi_restore 29
	.cfi_restore 28
	blr
	.cfi_endproc
.LFE2861:
	.size	_ZN4idAI26Event_MoveToAttackPositionEP8idEntityPKc, .-_ZN4idAI26Event_MoveToAttackPositionEP8idEntityPKc
	.align 2
	.globl _ZN4idAI20Event_TestAnimAttackEPKc
	.type	_ZN4idAI20Event_TestAnimAttackEPKc, @function
_ZN4idAI20Event_TestAnimAttackEPKc:
.LFB2898:
	.loc 2 1784 0
	.cfi_startproc
.LVL477:
	stwu 1,-72(1)
.LCFI143:
	.cfi_def_cfa_offset 72
	mflr 0
.LBB2142:
	.loc 2 1788 0
	mr 5,4
.LBE2142:
	.loc 2 1784 0
	stw 30,64(1)
	mr 30,4
	.cfi_offset 30, -8
	.cfi_register 65, 0
.LBB2147:
	.loc 2 1788 0
	li 4,2
.LVL478:
.LBE2147:
	.loc 2 1784 0
	stw 29,60(1)
	stw 31,68(1)
	mr 31,3
	.cfi_offset 31, -4
	.cfi_offset 29, -12
	stw 0,76(1)
	stw 28,56(1)
.LBB2148:
	.loc 2 1788 0
	.cfi_offset 28, -16
	.cfi_offset 65, 4
	bl _ZN7idActor7GetAnimEiPKc
.LVL479:
	.loc 2 1789 0
	mr. 29,3
	beq- 0,.L274
	.loc 2 1795 0
	li 4,0
	addi 3,31,4216
.LVL480:
	lwz 28,3944(31)
	bl _ZNK15idPhysics_Actor9GetOriginEi
	mr 30,3
.LVL481:
	mr 4,29
	addi 3,31,636
	bl _ZNK10idAnimator18TotalMovementDeltaEi
	lwz 0,3952(31)
	mr 6,3
	li 9,7
	cmpwi 7,0,3
	beq- 7,.L275
.L269:
	.loc 2 1795 0 is_stmt 0 discriminator 3
	mr 3,31
	mr 4,28
	mr 5,30
	li 7,1000
	li 8,1000
	addi 10,1,8
	bl _ZN4idAI11PredictPathEPK8idEntityPK5idAASRK6idVec3S8_iiiR15predictedPath_s
	.loc 2 1797 0 is_stmt 1 discriminator 3
	lwz 9,52(1)
	li 3,0
	cmpwi 7,9,0
	beq- 7,.L270
.LVL482:
.LBB2143:
.LBB2144:
	.loc 6 634 0 discriminator 1
	lwz 0,5120(31)
	.loc 6 635 0 discriminator 1
	lis 11,gameLocal@ha
	la 11,gameLocal@l(11)
	.loc 6 634 0 discriminator 1
	rlwinm 10,0,0,20,31
.LVL483:
	.loc 6 635 0 discriminator 1
	srawi 0,0,12
	addi 8,10,4228
	slwi 8,8,2
	add 8,11,8
	lwz 8,4(8)
	cmpw 7,8,0
	beq- 7,.L276
.LVL484:
.L270:
.LBE2144:
.LBE2143:
	.loc 2 1797 0 discriminator 4
	bl _ZN8idThread9ReturnIntEi
.LBE2148:
	.loc 2 1798 0 discriminator 4
	lwz 0,76(1)
	lwz 28,56(1)
	mtlr 0
	lwz 29,60(1)
.LVL485:
	lwz 30,64(1)
	lwz 31,68(1)
.LVL486:
	addi 1,1,72
	.cfi_remember_state
.LCFI144:
	.cfi_def_cfa_offset 0
	.cfi_restore 31
	.cfi_restore 30
	.cfi_restore 29
	.cfi_restore 28
	blr
.LVL487:
.L274:
.LCFI145:
	.cfi_restore_state
.LBB2149:
	.loc 2 1790 0
	mr 3,31
.LVL488:
	.loc 2 2707 0
	lwz 29,72(31)
.LVL489:
	.loc 2 1790 0
	bl _ZNK8idEntity16GetEntityDefNameEv
	lis 4,.LC15@ha
	mr 7,3
	lis 3,gameLocal@ha
	mr 5,30
	mr 6,29
	la 3,gameLocal@l(3)
	la 4,.LC15@l(4)
	crxor 6,6,6
	bl _ZNK11idGameLocal8DWarningEPKcz
	.loc 2 1791 0
	li 3,0
	bl _ZN8idThread9ReturnIntEi
.LBE2149:
	.loc 2 1798 0
	lwz 0,76(1)
	lwz 28,56(1)
	mtlr 0
	lwz 29,60(1)
	lwz 30,64(1)
.LVL490:
	lwz 31,68(1)
.LVL491:
	addi 1,1,72
	.cfi_remember_state
	.cfi_restore 28
	.cfi_restore 29
	.cfi_restore 30
	.cfi_restore 31
.LCFI146:
	.cfi_def_cfa_offset 0
	blr
.LVL492:
.L275:
.LCFI147:
	.cfi_restore_state
.LBB2150:
	.loc 2 1795 0
	li 9,1
	b .L269
.LVL493:
.L276:
.LBB2146:
.LBB2145:
	.loc 6 636 0
	addi 10,10,132
.LVL494:
	slwi 10,10,2
.LVL495:
	add 11,11,10
	.loc 2 1784 0
	lwz 3,4(11)
	xor 3,9,3
	cntlzw 3,3
	srwi 3,3,5
	b .L270
.LBE2145:
.LBE2146:
.LBE2150:
	.cfi_endproc
.LFE2898:
	.size	_ZN4idAI20Event_TestAnimAttackEPKc, .-_ZN4idAI20Event_TestAnimAttackEPKc
	.align 2
	.globl _ZN4idAI21Event_PredictEnemyPosEf
	.type	_ZN4idAI21Event_PredictEnemyPosEf, @function
_ZN4idAI21Event_PredictEnemyPosEf:
.LFB2884:
	.loc 2 1401 0
	.cfi_startproc
.LVL496:
	mflr 0
	stwu 1,-88(1)
.LCFI148:
	.cfi_def_cfa_offset 88
	.cfi_register 65, 0
.LBB2151:
.LBB2152:
.LBB2153:
	.loc 6 635 0
	lis 9,gameLocal@ha
.LBE2153:
.LBE2152:
.LBE2151:
	.loc 2 1401 0
	stfd 31,80(1)
.LBB2164:
.LBB2157:
.LBB2154:
	.loc 6 635 0
	la 9,gameLocal@l(9)
.LBE2154:
.LBE2157:
.LBE2164:
	.loc 2 1401 0
	stw 28,64(1)
	fmr 31,1
	.cfi_offset 28, -24
	.cfi_offset 63, -8
	stw 0,92(1)
	mr 28,3
.LVL497:
	stw 29,68(1)
	stw 30,72(1)
	stw 31,76(1)
.LBB2165:
.LBB2158:
.LBB2155:
	.loc 6 634 0
	lwz 0,5120(3)
	.cfi_offset 31, -12
	.cfi_offset 30, -16
	.cfi_offset 29, -20
	.cfi_offset 65, 4
	rlwinm 11,0,0,20,31
.LVL498:
	.loc 6 635 0
	srawi 0,0,12
	addi 10,11,4228
	slwi 10,10,2
	add 10,9,10
	lwz 10,4(10)
	cmpw 7,10,0
	beq- 7,.L283
.LVL499:
.L278:
.LBE2155:
.LBE2158:
	.loc 2 1407 0
	li 4,0
	addi 3,28,4216
.LVL500:
	bl _ZNK15idPhysics_Actor9GetOriginEi
.LVL501:
	bl _ZN8idThread12ReturnVectorERK6idVec3
.LBE2165:
	.loc 2 1415 0
	lwz 0,92(1)
	lwz 28,64(1)
.LVL502:
	mtlr 0
	lwz 29,68(1)
	lwz 30,72(1)
	lwz 31,76(1)
	lfd 31,80(1)
.LVL503:
	addi 1,1,88
	.cfi_remember_state
.LCFI149:
	.cfi_def_cfa_offset 0
	.cfi_restore 63
	.cfi_restore 31
	.cfi_restore 30
	.cfi_restore 29
	.cfi_restore 28
	blr
.LVL504:
.L283:
.LCFI150:
	.cfi_restore_state
.LBB2166:
.LBB2159:
.LBB2156:
	.loc 6 636 0
	addi 11,11,132
.LVL505:
	slwi 11,11,2
.LVL506:
	add 9,9,11
	lwz 31,4(9)
.LBE2156:
.LBE2159:
	.loc 2 1406 0
	cmpwi 7,31,0
	beq- 7,.L278
	.loc 2 1412 0
	mr 3,31
.LVL507:
	lwz 29,3944(28)
	bl _ZNK8idEntity10GetPhysicsEv
.LVL508:
	li 4,0
	lwz 9,0(3)
	addi 30,28,5124
	lwz 0,148(9)
	mtctr 0
	bctrl
	lis 9,_ZN6idMath8M_SEC2MSE@ha
	lfs 0,_ZN6idMath8M_SEC2MSE@l(9)
.LBB2160:
.LBB2161:
	.loc 7 825 0
	addi 11,1,56
.LBE2161:
.LBE2160:
	.loc 2 1412 0
	lwz 0,3952(28)
	mr 6,3
.LVL509:
	fmuls 31,31,0
.LVL510:
	li 9,3
	cmpwi 7,0,3
.LBB2163:
.LBB2162:
	.loc 7 825 0
	fctiwz 31,31
.LVL511:
	stfiwx 31,0,11
	lwz 7,56(1)
.LBE2162:
.LBE2163:
	.loc 2 1412 0
	beq- 7,.L284
.L281:
	.loc 2 1412 0 is_stmt 0 discriminator 3
	mr 4,29
	mr 5,30
	addi 10,1,8
	mr 3,31
	mr 8,7
	bl _ZN4idAI11PredictPathEPK8idEntityPK5idAASRK6idVec3S8_iiiR15predictedPath_s
	.loc 2 1414 0 is_stmt 1 discriminator 3
	addi 3,1,8
	bl _ZN8idThread12ReturnVectorERK6idVec3
.LBE2166:
	.loc 2 1415 0 discriminator 3
	lwz 0,92(1)
	lwz 28,64(1)
.LVL512:
	mtlr 0
	lwz 29,68(1)
	lwz 30,72(1)
.LVL513:
	lwz 31,76(1)
	lfd 31,80(1)
	addi 1,1,88
	.cfi_remember_state
	.cfi_restore 28
	.cfi_restore 29
	.cfi_restore 30
	.cfi_restore 31
	.cfi_restore 63
.LCFI151:
	.cfi_def_cfa_offset 0
	blr
.LVL514:
.L284:
.LCFI152:
	.cfi_restore_state
.LBB2167:
	.loc 2 1412 0
	li 9,1
	b .L281
.LBE2167:
	.cfi_endproc
.LFE2884:
	.size	_ZN4idAI21Event_PredictEnemyPosEf, .-_ZN4idAI21Event_PredictEnemyPosEf
	.align 2
	.globl _ZN4idAI21Event_TestMeleeAttackEv
	.type	_ZN4idAI21Event_TestMeleeAttackEv, @function
_ZN4idAI21Event_TestMeleeAttackEv:
.LFB2897:
	.loc 2 1774 0
	.cfi_startproc
.LVL515:
	mflr 0
	stwu 1,-8(1)
.LCFI153:
	.cfi_def_cfa_offset 8
	.cfi_register 65, 0
	stw 0,12(1)
.LBB2168:
	.loc 2 1775 0
	.cfi_offset 65, 4
	bl _ZNK4idAI9TestMeleeEv
.LVL516:
	.loc 2 1776 0
	bl _ZN8idThread9ReturnIntEi
.LVL517:
.LBE2168:
	.loc 2 1777 0
	lwz 0,12(1)
	addi 1,1,8
.LCFI154:
	.cfi_def_cfa_offset 0
	mtlr 0
	blr
	.cfi_endproc
.LFE2897:
	.size	_ZN4idAI21Event_TestMeleeAttackEv, .-_ZN4idAI21Event_TestMeleeAttackEv
	.align 2
	.globl _ZN4idAI24Event_TestMoveToPositionERK6idVec3
	.type	_ZN4idAI24Event_TestMoveToPositionERK6idVec3, @function
_ZN4idAI24Event_TestMoveToPositionERK6idVec3:
.LFB2896:
	.loc 2 1753 0
	.cfi_startproc
.LVL518:
	mflr 0
	stwu 1,-96(1)
.LCFI155:
	.cfi_def_cfa_offset 96
	.cfi_register 65, 0
	stw 28,80(1)
	stw 0,100(1)
	stw 29,84(1)
	mr 29,3
	.cfi_offset 29, -12
	.cfi_offset 65, 4
	.cfi_offset 28, -16
	stw 30,88(1)
.LBB2169:
	.loc 2 1756 0
	addi 30,3,4216
	.cfi_offset 30, -8
.LBE2169:
	.loc 2 1753 0
	stw 31,92(1)
.LBB2180:
	.loc 2 1756 0
	mr 3,30
.LVL519:
.LBE2180:
	.loc 2 1753 0
	stw 27,76(1)
	.loc 2 1753 0
	mr 31,4
	.cfi_offset 27, -20
	.cfi_offset 31, -4
.LBB2181:
	.loc 2 1756 0
	li 4,0
.LVL520:
	lwz 27,3944(29)
	bl _ZNK15idPhysics_Actor9GetOriginEi
	mr 28,3
	li 4,0
	mr 3,30
	bl _ZNK15idPhysics_Actor9GetOriginEi
.LVL521:
	lwz 0,3952(29)
.LBB2170:
.LBB2171:
	.loc 3 431 0
	lfs 0,0(3)
.LBE2171:
.LBE2170:
	.loc 2 1756 0
	li 9,7
.LBB2176:
.LBB2174:
	.loc 3 431 0
	lfs 12,4(3)
.LBE2174:
.LBE2176:
	.loc 2 1756 0
	cmpwi 7,0,3
.LBB2177:
.LBB2175:
	.loc 3 431 0
	lfs 13,8(3)
	lfs 9,4(31)
	lfs 10,8(31)
	lfs 11,0(31)
	fsubs 12,9,12
	fsubs 13,10,13
.LVL522:
	fsubs 0,11,0
.LBB2172:
.LBB2173:
	.loc 3 397 0
	stfs 12,12(1)
	.loc 3 398 0
	stfs 13,16(1)
	.loc 3 396 0
	stfs 0,8(1)
.LBE2173:
.LBE2172:
.LBE2175:
.LBE2177:
	.loc 2 1756 0
	beq- 7,.L293
.L287:
	.loc 2 1756 0 is_stmt 0 discriminator 3
	mr 3,29
.LVL523:
	mr 4,27
	mr 5,28
	addi 6,1,8
	li 7,1000
	li 8,1000
	addi 10,1,20
	bl _ZN4idAI11PredictPathEPK8idEntityPK5idAASRK6idVec3S8_iiiR15predictedPath_s
.LVL524:
.LBB2178:
.LBB2179:
	.loc 2 1758 0 is_stmt 1 discriminator 3
	lis 9,ai_debugMove+44@ha
	.file 14 "d:/Data/Nintendo/DoomGX/src/game/ai/../../idlib/../framework/CVarSystem.h"
	.loc 14 142 0 discriminator 3
	lwz 9,ai_debugMove+44@l(9)
.LBE2179:
.LBE2178:
	.loc 2 1758 0 discriminator 3
	lwz 0,36(9)
	cmpwi 7,0,0
	bne- 7,.L288
.LVL525:
.L292:
	.loc 2 1762 0
	lwz 3,60(1)
.L289:
	.loc 2 1766 0
	cntlzw 3,3
	srwi 3,3,5
	bl _ZN8idThread9ReturnIntEi
.LBE2181:
	.loc 2 1767 0
	lwz 0,100(1)
	lwz 27,76(1)
	mtlr 0
	lwz 28,80(1)
	lwz 29,84(1)
	lwz 30,88(1)
.LVL526:
	lwz 31,92(1)
	addi 1,1,96
	.cfi_remember_state
.LCFI156:
	.cfi_def_cfa_offset 0
	.cfi_restore 31
	.cfi_restore 30
	.cfi_restore 29
	.cfi_restore 28
	.cfi_restore 27
	blr
.LVL527:
.L288:
.LCFI157:
	.cfi_restore_state
.LBB2182:
	.loc 2 1759 0
	lis 29,gameRenderWorld@ha
.LVL528:
	li 4,0
	lwz 28,gameRenderWorld@l(29)
	mr 3,30
	lwz 9,0(28)
	lwz 27,156(9)
	bl _ZNK15idPhysics_Actor9GetOriginEi
	lis 4,colorGreen@ha
	mr 5,3
	mtctr 27
	mr 6,31
	li 7,16
	li 8,0
	mr 3,28
	la 4,colorGreen@l(4)
	bctrl
	.loc 2 1760 0
	lwz 27,gameRenderWorld@l(29)
	li 4,-1
	mr 3,30
	lwz 9,0(27)
	lwz 28,176(9)
	bl _ZNK15idPhysics_Actor9GetBoundsEi
	lis 4,colorYellow@ha
	mr 5,3
	la 4,colorYellow@l(4)
	mr 3,27
	mr 6,31
	li 7,16
	mtctr 28
	bctrl
	.loc 2 1761 0
	lwz 0,60(1)
	li 3,0
	cmpwi 7,0,0
	beq+ 7,.L289
	.loc 2 1762 0
	lwz 29,gameRenderWorld@l(29)
	li 4,-1
	mr 3,30
	lwz 9,0(29)
	lwz 31,176(9)
.LVL529:
	bl _ZNK15idPhysics_Actor9GetBoundsEi
	lis 4,colorRed@ha
	mr 5,3
	la 4,colorRed@l(4)
	mr 3,29
	addi 6,1,20
	li 7,16
	mtctr 31
	bctrl
	b .L292
.LVL530:
.L293:
	.loc 2 1756 0
	li 9,1
	b .L287
.LBE2182:
	.cfi_endproc
.LFE2896:
	.size	_ZN4idAI24Event_TestMoveToPositionERK6idVec3, .-_ZN4idAI24Event_TestMoveToPositionERK6idVec3
	.align 2
	.globl _ZN4idAI22Event_TestChargeAttackEv
	.type	_ZN4idAI22Event_TestChargeAttackEv, @function
_ZN4idAI22Event_TestChargeAttackEv:
.LFB2893:
	.loc 2 1645 0
	.cfi_startproc
.LVL531:
	mflr 0
	stwu 1,-144(1)
.LCFI158:
	.cfi_def_cfa_offset 144
	.cfi_register 65, 0
.LBB2183:
.LBB2184:
.LBB2185:
	.loc 6 635 0
	lis 9,gameLocal@ha
.LBE2185:
.LBE2184:
.LBE2183:
	.loc 2 1645 0
	stw 29,132(1)
.LBB2245:
.LBB2189:
.LBB2186:
	.loc 6 635 0
	la 9,gameLocal@l(9)
.LBE2186:
.LBE2189:
.LBE2245:
	.loc 2 1645 0
	stw 0,148(1)
	mr 29,3
	.cfi_offset 65, 4
	.cfi_offset 29, -12
.LVL532:
	stw 27,124(1)
	stw 28,128(1)
	stw 30,136(1)
	stw 31,140(1)
.LBB2246:
.LBB2190:
.LBB2187:
	.loc 6 634 0
	lwz 0,5120(3)
	rlwinm 11,0,0,20,31
.LVL533:
	.loc 6 635 0
	srawi 0,0,12
	addi 10,11,4228
	slwi 10,10,2
	add 10,9,10
	lwz 10,4(10)
	cmpw 7,10,0
	beq- 7,.L307
	.cfi_offset 31, -4
	.cfi_offset 30, -8
	.cfi_offset 28, -16
	.cfi_offset 27, -20
.LVL534:
.L304:
.LBE2187:
.LBE2190:
.LBB2191:
	.loc 2 1676 0
	lis 9,.LC0@ha
	lfs 1,.LC0@l(9)
	bl _ZN8idThread11ReturnFloatEf
.LBE2191:
.LBE2246:
	.loc 2 1678 0
	lwz 0,148(1)
	lwz 27,124(1)
	mtlr 0
	lwz 28,128(1)
	lwz 29,132(1)
	lwz 30,136(1)
	lwz 31,140(1)
	addi 1,1,144
	.cfi_remember_state
.LCFI159:
	.cfi_def_cfa_offset 0
	.cfi_restore 31
	.cfi_restore 30
	.cfi_restore 29
	.cfi_restore 28
	.cfi_restore 27
	blr
.LVL535:
.L307:
.LCFI160:
	.cfi_restore_state
.LBB2247:
.LBB2215:
.LBB2188:
	.loc 6 636 0
	addi 11,11,132
.LVL536:
	slwi 11,11,2
.LVL537:
	add 9,9,11
	lwz 30,4(9)
.LBE2188:
.LBE2215:
	.loc 2 1651 0
	cmpwi 7,30,0
	beq- 7,.L304
	.loc 2 1656 0
	lwz 0,3952(3)
	cmpwi 7,0,3
	beq- 7,.L308
	.loc 2 1661 0
	mr 3,30
.LVL538:
	bl _ZNK8idEntity10GetPhysicsEv
	li 4,0
	lwz 9,0(3)
	lwz 0,132(9)
	mtctr 0
	bctrl
.LVL539:
.LBB2216:
.LBB2217:
	.loc 3 424 0
	lwz 11,0(3)
	.loc 3 425 0
	lwz 9,4(3)
	.loc 3 426 0
	lwz 0,8(3)
	.loc 3 424 0
	stw 11,32(1)
	.loc 3 425 0
	stw 9,36(1)
	.loc 3 426 0
	stw 0,40(1)
.LVL540:
.L299:
.LBE2217:
.LBE2216:
	.loc 2 1664 0
	addi 31,29,4216
	li 4,0
	mr 3,31
	lwz 27,3944(29)
	bl _ZNK15idPhysics_Actor9GetOriginEi
	li 4,0
	mr 28,3
	mr 3,31
	bl _ZNK15idPhysics_Actor9GetOriginEi
.LVL541:
.LBB2218:
.LBB2219:
	.loc 3 431 0
	lfs 11,36(1)
	lfs 12,4(3)
.LBE2219:
.LBE2218:
	.loc 2 1664 0
	li 9,7
.LBB2227:
.LBB2224:
	.loc 3 431 0
	lfs 13,8(3)
	fsubs 12,11,12
	lfs 11,40(1)
.LBE2224:
.LBE2227:
	.loc 2 1664 0
	lwz 0,3952(29)
.LBB2228:
.LBB2225:
	.loc 3 431 0
	lfs 0,0(3)
	fsubs 13,11,13
.LVL542:
	lfs 11,32(1)
.LBE2225:
.LBE2228:
	.loc 2 1664 0
	cmpwi 7,0,3
.LBB2229:
.LBB2226:
.LBB2220:
.LBB2221:
	.loc 3 397 0
	stfs 12,12(1)
.LBE2221:
.LBE2220:
	.loc 3 431 0
	fsubs 0,11,0
.LBB2223:
.LBB2222:
	.loc 3 398 0
	stfs 13,16(1)
	.loc 3 396 0
	stfs 0,8(1)
.LBE2222:
.LBE2223:
.LBE2226:
.LBE2229:
	.loc 2 1664 0
	beq- 7,.L309
.L300:
	.loc 2 1664 0 is_stmt 0 discriminator 3
	mr 3,29
.LVL543:
	mr 4,27
	mr 5,28
	addi 6,1,8
	li 7,1000
	li 8,1000
	addi 10,1,44
	bl _ZN4idAI11PredictPathEPK8idEntityPK5idAASRK6idVec3S8_iiiR15predictedPath_s
.LVL544:
.LBB2230:
.LBB2231:
	.loc 2 1666 0 is_stmt 1 discriminator 3
	lis 9,ai_debugMove+44@ha
	.loc 14 142 0 discriminator 3
	lwz 9,ai_debugMove+44@l(9)
.LBE2231:
.LBE2230:
	.loc 2 1666 0 discriminator 3
	lwz 0,36(9)
	cmpwi 7,0,0
	bne- 7,.L310
.LVL545:
.L301:
.LBB2232:
	.loc 2 1671 0
	lwz 0,84(1)
	cmpwi 7,0,0
	beq- 7,.L303
	.loc 2 1671 0 is_stmt 0 discriminator 1
	lwz 0,88(1)
	cmpw 7,0,30
	bne+ 7,.L304
.L303:
.LBB2192:
	.loc 2 1672 0 is_stmt 1
	mr 3,31
	li 4,0
	bl _ZNK15idPhysics_Actor9GetOriginEi
.LVL546:
.LBB2193:
.LBB2194:
	.loc 3 431 0
	lfs 13,36(1)
	lfs 0,4(3)
.LBE2194:
.LBE2193:
.LBB2197:
.LBB2198:
.LBB2199:
.LBB2200:
	.loc 7 246 0
	lis 9,.LC13@ha
.LBE2200:
.LBE2199:
.LBE2198:
.LBE2197:
.LBB2210:
.LBB2195:
	.loc 3 431 0
	lfs 12,32(1)
	fsubs 0,13,0
	lfs 13,0(3)
	lfs 11,40(1)
	fsubs 13,12,13
.LBE2195:
.LBE2210:
.LBB2211:
.LBB2207:
.LBB2204:
.LBB2201:
	.loc 7 246 0
	lfs 1,.LC13@l(9)
.LBE2201:
.LBE2204:
	.loc 3 642 0
	fmuls 12,0,0
.LBE2207:
.LBE2211:
.LBB2212:
.LBB2196:
	.loc 3 431 0
	lfs 0,8(3)
	fsubs 0,11,0
.LVL547:
	.loc 3 642 0
	fmadds 13,13,13,12
.LVL548:
	fmadds 13,0,0,13
	stfs 13,112(1)
.LVL549:
.LBE2196:
.LBE2212:
.LBB2213:
.LBB2208:
.LBB2205:
.LBB2202:
	.loc 7 246 0
	fmuls 1,13,1
	.loc 7 248 0
	lwz 9,112(1)
	.loc 2 1645 0
	fneg 1,1
	.loc 7 248 0
	srawi 0,9,1
	.loc 7 249 0
	lis 9,0x5f37
	ori 9,9,23007
	subf 9,0,9
	stw 9,116(1)
.LVL550:
	.loc 7 250 0
	lis 9,.LC16@ha
	lfs 0,116(1)
.LVL551:
	lfs 12,116(1)
	fmuls 13,0,0
.LVL552:
	lfs 0,.LC16@l(9)
	fmadds 1,1,13,0
.LVL553:
.LBE2202:
.LBE2205:
.LBE2208:
.LBE2213:
	.loc 2 1674 0
	lfs 0,112(1)
.LBB2214:
.LBB2209:
.LBB2206:
.LBB2203:
	.loc 7 250 0
	fmuls 1,12,1
.LVL554:
.LBE2203:
.LBE2206:
.LBE2209:
.LBE2214:
	.loc 2 1674 0
	fmuls 1,0,1
.LVL555:
	bl _ZN8idThread11ReturnFloatEf
.LVL556:
.LBE2192:
.LBE2232:
.LBE2247:
	.loc 2 1678 0
	lwz 0,148(1)
	lwz 27,124(1)
	mtlr 0
	lwz 28,128(1)
	lwz 29,132(1)
	lwz 30,136(1)
	lwz 31,140(1)
.LVL557:
	addi 1,1,144
	.cfi_remember_state
	.cfi_restore 27
	.cfi_restore 28
	.cfi_restore 29
	.cfi_restore 30
	.cfi_restore 31
.LCFI161:
	.cfi_def_cfa_offset 0
	blr
.LVL558:
.L310:
.LCFI162:
	.cfi_restore_state
.LBB2248:
	.loc 2 1667 0
	lis 29,gameRenderWorld@ha
.LVL559:
	li 4,0
	lwz 27,gameRenderWorld@l(29)
	mr 3,31
	lwz 9,0(27)
	lwz 28,156(9)
	bl _ZNK15idPhysics_Actor9GetOriginEi
	lis 4,colorGreen@ha
	mr 5,3
	mtctr 28
	mr 3,27
	la 4,colorGreen@l(4)
	addi 6,1,32
.LVL560:
	li 7,16
	li 8,0
	bctrl
.LVL561:
	.loc 2 1668 0
	lwz 0,84(1)
	lwz 28,gameRenderWorld@l(29)
	cmpwi 7,0,0
	lwz 9,0(28)
	lwz 29,176(9)
	beq- 7,.L311
	lis 27,colorRed@ha
	la 27,colorRed@l(27)
.L302:
	.loc 2 1668 0 is_stmt 0 discriminator 3
	mr 3,31
	li 4,-1
	bl _ZNK15idPhysics_Actor9GetBoundsEi
	mr 4,27
	mr 5,3
	addi 6,1,32
.LVL562:
	mr 3,28
	li 7,16
	mtctr 29
	bctrl
.LVL563:
	b .L301
.LVL564:
.L309:
	.loc 2 1664 0 is_stmt 1
	li 9,1
	b .L300
.LVL565:
.L308:
	.loc 2 1658 0
	mr 4,30
	addi 3,1,20
.LVL566:
	bl _ZNK7idActor14GetEyePositionEv
.LVL567:
.LBB2233:
.LBB2234:
	.loc 3 424 0
	lwz 0,20(1)
.LBE2234:
.LBE2233:
	.loc 2 1659 0
	mr 3,30
.LBB2236:
.LBB2235:
	.loc 3 424 0
	stw 0,32(1)
	.loc 3 425 0
	lwz 0,24(1)
	stw 0,36(1)
	.loc 3 426 0
	lwz 0,28(1)
	stw 0,40(1)
.LBE2235:
.LBE2236:
	.loc 2 1659 0
	bl _ZNK8idEntity10GetPhysicsEv
	lwz 9,0(3)
	lwz 0,164(9)
	mtctr 0
	bctrl
	lwz 0,4512(29)
	lis 9,.LC4@ha
	xoris 0,0,0x8000
	lfs 0,.LC4@l(9)
	stw 0,108(1)
	lis 0,0x4330
	stw 0,104(1)
	lfd 13,104(1)
.LBB2237:
.LBB2238:
	.loc 3 481 0
	lfs 12,0(3)
.LBE2238:
.LBE2237:
	.loc 2 1659 0
	fsub 0,13,0
.LBB2241:
.LBB2239:
	.loc 3 481 0
	lfs 13,32(1)
.LBE2239:
.LBE2241:
.LBB2242:
.LBB2243:
	.loc 3 439 0
	lfs 11,4(3)
	lfs 10,8(3)
.LBE2243:
.LBE2242:
	.loc 2 1659 0
	frsp 0,0
.LVL568:
.LBB2244:
.LBB2240:
	.loc 2 1645 0
	fneg 0,0
.LVL569:
	.loc 3 481 0
	fmadds 12,0,12,13
	.loc 3 482 0
	lfs 13,36(1)
	fmadds 13,0,11,13
	.loc 3 483 0
	lfs 11,40(1)
	.loc 3 481 0
	stfs 12,32(1)
	.loc 3 483 0
	fmadds 0,0,10,11
	.loc 3 482 0
	stfs 13,36(1)
	.loc 3 483 0
	stfs 0,40(1)
	b .L299
.LVL570:
.L311:
.LBE2240:
.LBE2244:
	.loc 2 1668 0
	lis 27,colorYellow@ha
	la 27,colorYellow@l(27)
	b .L302
.LBE2248:
	.cfi_endproc
.LFE2893:
	.size	_ZN4idAI22Event_TestChargeAttackEv, .-_ZN4idAI22Event_TestChargeAttackEv
	.align 2
	.globl _ZN4idAI17Event_BeginAttackEPKc
	.type	_ZN4idAI17Event_BeginAttackEPKc, @function
_ZN4idAI17Event_BeginAttackEPKc:
.LFB2839:
	.loc 2 716 0
	.cfi_startproc
.LVL571:
	mflr 0
	stwu 1,-8(1)
.LCFI163:
	.cfi_def_cfa_offset 8
	.cfi_register 65, 0
	stw 0,12(1)
	.loc 2 717 0
	.cfi_offset 65, 4
	bl _ZN4idAI11BeginAttackEPKc
.LVL572:
	.loc 2 718 0
	lwz 0,12(1)
	addi 1,1,8
.LCFI164:
	.cfi_def_cfa_offset 0
	mtlr 0
	blr
	.cfi_endproc
.LFE2839:
	.size	_ZN4idAI17Event_BeginAttackEPKc, .-_ZN4idAI17Event_BeginAttackEPKc
	.align 2
	.globl _ZN4idAI18Event_TurnToEntityEP8idEntity
	.type	_ZN4idAI18Event_TurnToEntityEP8idEntity, @function
_ZN4idAI18Event_TurnToEntityEP8idEntity:
.LFB2854:
	.loc 2 929 0
	.cfi_startproc
.LVL573:
	.loc 2 930 0
	cmpwi 0,4,0
	.loc 2 929 0
	mflr 0
	stwu 1,-16(1)
.LCFI165:
	.cfi_def_cfa_offset 16
	.cfi_register 65, 0
	stw 31,12(1)
	mr 31,3
	.cfi_offset 31, -4
	stw 0,20(1)
	.loc 2 930 0
	beq- 0,.L313
	.cfi_offset 65, 4
	.loc 2 931 0
	mr 3,4
.LVL574:
	bl _ZNK8idEntity10GetPhysicsEv
.LVL575:
	li 4,0
	lwz 9,0(3)
	lwz 0,132(9)
	mtctr 0
	bctrl
	mr 4,3
	mr 3,31
	bl _ZN4idAI10TurnTowardERK6idVec3
.L313:
	.loc 2 933 0
	lwz 0,20(1)
	lwz 31,12(1)
.LVL576:
	mtlr 0
	addi 1,1,16
.LCFI166:
	.cfi_def_cfa_offset 0
	.cfi_restore 31
	blr
	.cfi_endproc
.LFE2854:
	.size	_ZN4idAI18Event_TurnToEntityEP8idEntity, .-_ZN4idAI18Event_TurnToEntityEP8idEntity
	.align 2
	.globl _ZN4idAI15Event_TurnToPosERK6idVec3
	.type	_ZN4idAI15Event_TurnToPosERK6idVec3, @function
_ZN4idAI15Event_TurnToPosERK6idVec3:
.LFB2853:
	.loc 2 920 0
	.cfi_startproc
.LVL577:
	mflr 0
	stwu 1,-8(1)
.LCFI167:
	.cfi_def_cfa_offset 8
	.cfi_register 65, 0
	stw 0,12(1)
	.loc 2 921 0
	.cfi_offset 65, 4
	bl _ZN4idAI10TurnTowardERK6idVec3
.LVL578:
	.loc 2 922 0
	lwz 0,12(1)
	addi 1,1,8
.LCFI168:
	.cfi_def_cfa_offset 0
	mtlr 0
	blr
	.cfi_endproc
.LFE2853:
	.size	_ZN4idAI15Event_TurnToPosERK6idVec3, .-_ZN4idAI15Event_TurnToPosERK6idVec3
	.align 2
	.globl _ZN4idAI18Event_ChargeAttackEPKc
	.type	_ZN4idAI18Event_ChargeAttackEPKc, @function
_ZN4idAI18Event_ChargeAttackEPKc:
.LFB2892:
	.loc 2 1619 0
	.cfi_startproc
.LVL579:
	mflr 0
	stwu 1,-64(1)
.LCFI169:
	.cfi_def_cfa_offset 64
	.cfi_register 65, 0
.LBB2249:
.LBB2250:
.LBB2251:
	.loc 6 635 0
	lis 9,gameLocal@ha
.LBE2251:
.LBE2250:
.LBE2249:
	.loc 2 1619 0
	stw 30,56(1)
.LBB2278:
.LBB2256:
.LBB2252:
	.loc 6 635 0
	la 9,gameLocal@l(9)
.LBE2252:
.LBE2256:
.LBE2278:
	.loc 2 1619 0
	stw 31,60(1)
	mr 30,4
	.cfi_offset 31, -4
	.cfi_offset 30, -8
	stw 0,68(1)
	mr 31,3
.LVL580:
	stw 29,52(1)
.LBB2279:
.LBB2257:
.LBB2253:
	.loc 6 634 0
	lwz 0,5120(3)
	.cfi_offset 29, -12
	.cfi_offset 65, 4
	rlwinm 11,0,0,20,31
.LVL581:
	.loc 6 635 0
	srawi 0,0,12
	addi 10,11,4228
	slwi 10,10,2
	add 10,9,10
	lwz 10,4(10)
	cmpw 7,10,0
	beq- 7,.L321
.LBE2253:
.LBE2257:
	.loc 2 1622 0
	li 4,3
.LVL582:
	bl _ZN4idAI8StopMoveE12moveStatus_t
.LVL583:
.L316:
.LBE2279:
	.loc 2 1638 0
	lwz 0,68(1)
	lwz 29,52(1)
	mtlr 0
	lwz 30,56(1)
.LVL584:
	lwz 31,60(1)
.LVL585:
	addi 1,1,64
	.cfi_remember_state
.LCFI170:
	.cfi_def_cfa_offset 0
	.cfi_restore 31
	.cfi_restore 30
	.cfi_restore 29
	blr
.LVL586:
.L321:
.LCFI171:
	.cfi_restore_state
.LBB2280:
.LBB2258:
.LBB2254:
	.loc 6 636 0
	addi 11,11,132
.LVL587:
.LBE2254:
.LBE2258:
	.loc 2 1622 0
	li 4,3
.LVL588:
.LBB2259:
.LBB2255:
	.loc 6 636 0
	slwi 11,11,2
.LVL589:
	add 9,9,11
	lwz 29,4(9)
.LBE2255:
.LBE2259:
	.loc 2 1622 0
	bl _ZN4idAI8StopMoveE12moveStatus_t
.LVL590:
.LBB2260:
	.loc 2 1623 0
	cmpwi 7,29,0
	beq- 7,.L316
.LBB2261:
	.loc 2 1626 0
	lwz 0,3952(31)
	cmpwi 7,0,3
	beq- 7,.L322
	.loc 2 1631 0
	mr 3,29
	bl _ZNK8idEntity10GetPhysicsEv
	li 4,0
	lwz 9,0(3)
	lwz 0,132(9)
	mtctr 0
	bctrl
.LVL591:
.LBB2262:
.LBB2263:
	.loc 3 424 0
	lwz 11,0(3)
	.loc 3 425 0
	lwz 9,4(3)
	.loc 3 426 0
	lwz 0,8(3)
	.loc 3 424 0
	stw 11,20(1)
	.loc 3 425 0
	stw 9,24(1)
	.loc 3 426 0
	stw 0,28(1)
.LVL592:
.L320:
.LBE2263:
.LBE2262:
	.loc 2 1634 0
	mr 3,31
	mr 4,30
	bl _ZN4idAI11BeginAttackEPKc
	.loc 2 1635 0
	addi 4,1,20
	mr 3,31
	bl _ZN4idAI20DirectMoveToPositionERK6idVec3
	.loc 2 1636 0
	mr 3,31
	addi 4,1,20
	bl _ZN4idAI10TurnTowardERK6idVec3
.LBE2261:
.LBE2260:
.LBE2280:
	.loc 2 1638 0
	lwz 0,68(1)
	lwz 29,52(1)
	mtlr 0
	lwz 30,56(1)
.LVL593:
	lwz 31,60(1)
.LVL594:
	addi 1,1,64
	.cfi_remember_state
	.cfi_restore 29
	.cfi_restore 30
	.cfi_restore 31
.LCFI172:
	.cfi_def_cfa_offset 0
	blr
.LVL595:
.L322:
.LCFI173:
	.cfi_restore_state
.LBB2281:
.LBB2277:
.LBB2276:
	.loc 2 1628 0
	mr 4,29
	addi 3,1,8
	bl _ZNK7idActor14GetEyePositionEv
.LVL596:
.LBB2264:
.LBB2265:
	.loc 3 424 0
	lwz 0,8(1)
.LBE2265:
.LBE2264:
	.loc 2 1629 0
	mr 3,29
.LBB2267:
.LBB2266:
	.loc 3 424 0
	stw 0,20(1)
	.loc 3 425 0
	lwz 0,12(1)
	stw 0,24(1)
	.loc 3 426 0
	lwz 0,16(1)
	stw 0,28(1)
.LBE2266:
.LBE2267:
	.loc 2 1629 0
	bl _ZNK8idEntity10GetPhysicsEv
	lwz 9,0(3)
	lwz 0,164(9)
	mtctr 0
	bctrl
	lwz 0,4512(31)
	lis 9,.LC4@ha
	xoris 0,0,0x8000
	lfs 0,.LC4@l(9)
	stw 0,44(1)
	lis 0,0x4330
	stw 0,40(1)
	lfd 13,40(1)
.LBB2268:
.LBB2269:
	.loc 3 481 0
	lfs 12,0(3)
.LBE2269:
.LBE2268:
	.loc 2 1629 0
	fsub 0,13,0
.LBB2272:
.LBB2270:
	.loc 3 481 0
	lfs 13,20(1)
.LBE2270:
.LBE2272:
.LBB2273:
.LBB2274:
	.loc 3 439 0
	lfs 11,4(3)
	lfs 10,8(3)
.LBE2274:
.LBE2273:
	.loc 2 1629 0
	frsp 0,0
.LVL597:
.LBB2275:
.LBB2271:
	.loc 2 1619 0
	fneg 0,0
.LVL598:
	.loc 3 481 0
	fmadds 12,0,12,13
	.loc 3 482 0
	lfs 13,24(1)
	fmadds 13,0,11,13
	.loc 3 483 0
	lfs 11,28(1)
	.loc 3 481 0
	stfs 12,20(1)
	.loc 3 483 0
	fmadds 0,0,10,11
	.loc 3 482 0
	stfs 13,24(1)
	.loc 3 483 0
	stfs 0,28(1)
	b .L320
.LBE2271:
.LBE2275:
.LBE2276:
.LBE2277:
.LBE2281:
	.cfi_endproc
.LFE2892:
	.size	_ZN4idAI18Event_ChargeAttackEPKc, .-_ZN4idAI18Event_ChargeAttackEPKc
	.align 2
	.globl _ZN4idAI24Event_EnemyPositionValidEv
	.type	_ZN4idAI24Event_EnemyPositionValidEv, @function
_ZN4idAI24Event_EnemyPositionValidEv:
.LFB2891:
	.loc 2 1607 0
	.cfi_startproc
.LVL599:
	mflr 0
	stwu 1,-8(1)
.LCFI174:
	.cfi_def_cfa_offset 8
	.cfi_register 65, 0
	stw 0,12(1)
.LBB2282:
	.loc 2 1610 0
	.cfi_offset 65, 4
	bl _ZNK4idAI18EnemyPositionValidEv
.LVL600:
	.loc 2 1611 0
	bl _ZN8idThread9ReturnIntEi
.LVL601:
.LBE2282:
	.loc 2 1612 0
	lwz 0,12(1)
	addi 1,1,8
.LCFI175:
	.cfi_def_cfa_offset 0
	mtlr 0
	blr
	.cfi_endproc
.LFE2891:
	.size	_ZN4idAI24Event_EnemyPositionValidEv, .-_ZN4idAI24Event_EnemyPositionValidEv
	.align 2
	.globl _ZN4idAI35Event_ClosestReachableEnemyOfEntityEP8idEntity
	.type	_ZN4idAI35Event_ClosestReachableEnemyOfEntityEP8idEntity, @function
_ZN4idAI35Event_ClosestReachableEnemyOfEntityEP8idEntity:
.LFB2817:
	.loc 2 445 0
	.cfi_startproc
.LVL602:
	mflr 0
	stwu 1,-104(1)
.LCFI176:
	.cfi_def_cfa_offset 104
	.cfi_register 65, 0
	mfcr 12
	stw 29,76(1)
	mr 29,3
	.cfi_offset 29, -28
	.cfi_register 70, 12
	stw 31,84(1)
.LBB2283:
.LBB2284:
.LBB2285:
	.loc 8 340 0
	mr 3,4
.LVL603:
.LBE2285:
.LBE2284:
.LBE2283:
	.loc 2 445 0
	stw 0,108(1)
	mr 31,4
	.cfi_offset 65, 4
	.cfi_offset 31, -20
.LVL604:
	stfd 30,88(1)
	stfd 31,96(1)
	stw 25,60(1)
	stw 26,64(1)
	stw 27,68(1)
	stw 28,72(1)
	stw 30,80(1)
	stw 12,56(1)
.LBB2314:
.LBB2290:
.LBB2288:
	.loc 8 340 0
	lwz 9,0(4)
	lwz 0,0(9)
	mtctr 0
	.cfi_offset 70, -48
	.cfi_offset 30, -24
	.cfi_offset 28, -32
	.cfi_offset 27, -36
	.cfi_offset 26, -40
	.cfi_offset 25, -44
	.cfi_offset 63, -8
	.cfi_offset 62, -16
	bctrl
.LVL605:
.LBE2288:
	.loc 2 2707 0
	lis 9,_ZN7idActor4TypeE@ha
	la 9,_ZN7idActor4TypeE@l(9)
	lwz 0,56(3)
.LBB2289:
.LBB2286:
.LBB2287:
	.loc 8 311 0
	lwz 11,56(9)
	cmpw 7,0,11
	blt- 7,.L325
	lwz 9,60(9)
	cmpw 7,0,9
	bgt- 7,.L325
.LVL606:
.L331:
.LBE2287:
.LBE2286:
.LBE2289:
.LBE2290:
	.loc 2 462 0
	li 4,0
	addi 3,29,4216
	bl _ZNK15idPhysics_Actor9GetOriginEi
	.loc 2 463 0
	lis 28,.LC1@ha
	.loc 2 462 0
	mr 30,3
.LVL607:
	.loc 2 463 0
	lfs 1,.LC1@l(28)
	mr 3,29
.LVL608:
	mr 4,30
	bl _ZNK4idAI21PointReachableAreaNumERK6idVec3f
	.loc 2 2707 0
	lwz 9,2324(31)
	.loc 2 465 0
	lis 11,_ZN6idMath8INFINITYE@ha
	.loc 2 463 0
	mr 26,3
.LVL609:
.LBB2291:
.LBB2292:
.LBB2293:
	.file 15 "d:/Data/Nintendo/DoomGX/src/game/ai/../../idlib/../idlib/containers/LinkList.h"
	.loc 15 268 0
	cmpwi 7,9,0
.LBE2293:
.LBE2292:
.LBE2291:
	.loc 2 465 0
	lfs 30,_ZN6idMath8INFINITYE@l(11)
.LVL610:
	.loc 2 2707 0
	lwz 0,2320(31)
.LBB2312:
.LBB2295:
.LBB2294:
	.loc 15 268 0
	li 27,0
	beq- 7,.L326
	cmpw 7,0,9
	beq- 7,.L326
	.loc 15 271 0
	lwz 31,12(9)
.LVL611:
.LBE2294:
.LBE2295:
	.loc 2 467 0
	cmpwi 7,31,0
	beq- 7,.L326
.LBB2296:
.LBB2297:
.LBB2298:
	.loc 2 476 0
	cmpwi 4,3,0
.LVL612:
.L330:
.LBE2298:
.LBE2297:
	.loc 2 468 0
	lwz 0,192(31)
	andis. 9,0,4096
	beq- 0,.L337
.LVL613:
.L327:
.LBB2301:
.LBB2299:
	.loc 2 2707 0
	lwz 9,2308(31)
	lwz 0,2304(31)
.LBE2299:
.LBE2301:
.LBE2296:
.LBB2309:
.LBB2310:
	.loc 15 268 0
	cmpwi 7,9,0
	cmpw 6,0,9
	beq- 7,.L326
	beq- 6,.L326
	.loc 15 271 0
	lwz 31,12(9)
.LVL614:
.LBE2310:
.LBE2309:
	.loc 2 467 0
	cmpwi 7,31,0
	bne+ 7,.L330
.LVL615:
.L326:
.LBE2312:
	.loc 2 483 0
	mr 3,27
	bl _ZN8idThread12ReturnEntityEP8idEntity
.LBE2314:
	.loc 2 484 0
	lwz 0,108(1)
	lwz 12,56(1)
	mtlr 0
	lwz 25,60(1)
	lwz 26,64(1)
.LVL616:
	mtcrf 8,12
	lwz 27,68(1)
	lwz 28,72(1)
	lwz 29,76(1)
.LVL617:
	lwz 30,80(1)
.LVL618:
	lwz 31,84(1)
	lfd 30,88(1)
.LVL619:
	lfd 31,96(1)
	addi 1,1,104
	.cfi_remember_state
.LCFI177:
	.cfi_def_cfa_offset 0
	.cfi_restore 70
	.cfi_restore 63
	.cfi_restore 62
	.cfi_restore 31
	.cfi_restore 30
	.cfi_restore 29
	.cfi_restore 28
	.cfi_restore 27
	.cfi_restore 26
	.cfi_restore 25
	blr
.LVL620:
.L325:
.LCFI178:
	.cfi_restore_state
.LBB2315:
	.loc 2 457 0
	mr 3,31
.LVL621:
	bl _ZNK8idEntity7GetNameEv
	lis 4,.LC17@ha
	mr 5,3
	lis 3,gameLocal@ha
	la 3,gameLocal@l(3)
	la 4,.LC17@l(4)
	crxor 6,6,6
	bl _ZNK11idGameLocal5ErrorEPKcz
	b .L331
.LVL622:
.L337:
.LBB2313:
.LBB2311:
	.loc 2 471 0
	mr 3,31
	bl _ZNK8idEntity10GetPhysicsEv
	li 4,0
	lwz 9,0(3)
	lwz 0,132(9)
	mtctr 0
	bctrl
.LVL623:
.LBB2302:
.LBB2303:
	.loc 3 431 0
	lfs 0,4(30)
	lfs 13,4(3)
	lfs 12,0(3)
	fsubs 13,13,0
	lfs 0,0(30)
	lfs 31,8(3)
	fsubs 0,12,0
	lfs 12,8(30)
.LBE2303:
.LBE2302:
.LBB2305:
.LBB2306:
	.loc 3 636 0
	fmuls 13,13,13
.LBE2306:
.LBE2305:
.LBB2307:
.LBB2304:
	.loc 3 431 0
	fsubs 31,31,12
.LVL624:
	.loc 3 636 0
	fmadds 0,0,0,13
.LVL625:
	fmadds 31,31,31,0
.LVL626:
.LBE2304:
.LBE2307:
.LBB2308:
	.loc 2 473 0
	fcmpu 7,30,31
	bng+ 7,.L327
.LBB2300:
	.loc 2 474 0
	mr 3,31
.LVL627:
	bl _ZNK8idEntity10GetPhysicsEv
	li 4,0
	lwz 9,0(3)
	lwz 0,132(9)
	mtctr 0
	bctrl
	.loc 2 475 0
	lfs 1,.LC1@l(28)
	.loc 2 474 0
	mr 25,3
.LVL628:
	.loc 2 475 0
	mr 3,29
.LVL629:
	mr 4,25
	bl _ZNK4idAI21PointReachableAreaNumERK6idVec3f
	mr 7,3
.LVL630:
	.loc 2 476 0
	beq+ 4,.L327
	.loc 2 476 0 is_stmt 0 discriminator 1
	mr 3,29
.LVL631:
	addi 4,1,8
	mr 5,26
	mr 6,30
	mr 8,25
	bl _ZNK4idAI10PathToGoalER9aasPath_siRK6idVec3iS4_
.LVL632:
	cmpwi 7,3,0
	beq- 7,.L327
	.loc 2 476 0
	mr 27,31
	.loc 2 478 0 is_stmt 1
	fmr 30,31
.LVL633:
	b .L327
.LBE2300:
.LBE2308:
.LBE2311:
.LBE2313:
.LBE2315:
	.cfi_endproc
.LFE2817:
	.size	_ZN4idAI35Event_ClosestReachableEnemyOfEntityEP8idEntity, .-_ZN4idAI35Event_ClosestReachableEnemyOfEntityEP8idEntity
	.align 2
	.globl _ZN4idAI19Event_SetTalkTargetEP8idEntity
	.type	_ZN4idAI19Event_SetTalkTargetEP8idEntity, @function
_ZN4idAI19Event_SetTalkTargetEP8idEntity:
.LFB2876:
	.loc 2 1297 0
	.cfi_startproc
.LVL634:
	stwu 1,-24(1)
.LCFI179:
	.cfi_def_cfa_offset 24
	mflr 0
	stw 31,20(1)
	.loc 2 1298 0
	mr. 31,4
	.cfi_offset 31, -4
	.cfi_register 65, 0
	.loc 2 1297 0
	stw 30,16(1)
	mr 30,3
	.cfi_offset 30, -8
	stw 0,28(1)
	stw 29,12(1)
	.loc 2 1298 0
	beq- 0,.L339
	.cfi_offset 29, -12
	.cfi_offset 65, 4
.LVL635:
.LBB2316:
.LBB2317:
	.loc 8 340 0 discriminator 1
	lwz 9,0(31)
	mr 3,31
.LVL636:
	lwz 0,0(9)
	mtctr 0
	bctrl
.LVL637:
.LBE2317:
	.loc 2 2707 0 discriminator 1
	lis 9,_ZN7idActor4TypeE@ha
	la 9,_ZN7idActor4TypeE@l(9)
	lwz 0,56(3)
.LBB2322:
.LBB2318:
.LBB2319:
	.loc 8 311 0 discriminator 1
	lwz 11,56(9)
	cmpw 7,0,11
	bge- 7,.L345
.L340:
.LBE2319:
.LBE2318:
.LBE2322:
.LBE2316:
	.loc 2 1299 0 discriminator 4
	mr 3,31
.LVL638:
	lis 29,gameLocal@ha
	bl _ZNK8idEntity7GetNameEv
	la 29,gameLocal@l(29)
	lis 4,.LC18@ha
	mr 5,3
	la 4,.LC18@l(4)
	mr 3,29
	crxor 6,6,6
	bl _ZNK11idGameLocal5ErrorEPKcz
.LVL639:
.L341:
.LBB2324:
.LBB2325:
	.loc 6 608 0
	lwz 9,4(31)
.LBE2325:
.LBE2324:
.LBB2329:
.LBB2330:
	.loc 5 237 0
	lwz 11,5176(30)
.LBE2330:
.LBE2329:
.LBB2333:
.LBB2326:
	.loc 6 608 0
	addi 0,9,4228
	slwi 0,0,2
.LBE2326:
.LBE2333:
.LBB2334:
.LBB2331:
	.loc 5 237 0
	cmpwi 7,11,0
.LBE2331:
.LBE2334:
.LBB2335:
.LBB2327:
	.loc 6 608 0
	add 29,29,0
	lwz 0,4(29)
	slwi 0,0,12
	or 9,0,9
	stw 9,4680(30)
.LVL640:
.LBE2327:
.LBE2335:
.LBB2336:
.LBB2332:
	.loc 5 237 0
	beq- 7,.L338
	.loc 5 238 0
	li 0,1
	stw 0,0(11)
.LVL641:
.L338:
.LBE2332:
.LBE2336:
	.loc 2 1307 0
	lwz 0,28(1)
	lwz 29,12(1)
	mtlr 0
	lwz 30,16(1)
.LVL642:
	lwz 31,20(1)
.LVL643:
	addi 1,1,24
	.cfi_remember_state
.LCFI180:
	.cfi_def_cfa_offset 0
	.cfi_restore 31
	.cfi_restore 30
	.cfi_restore 29
	blr
.LVL644:
.L345:
.LCFI181:
	.cfi_restore_state
.LBB2337:
.LBB2323:
.LBB2321:
.LBB2320:
	.loc 8 311 0
	lwz 9,60(9)
	cmpw 7,0,9
	bgt- 7,.L340
	lis 29,gameLocal@ha
	la 29,gameLocal@l(29)
	b .L341
.LVL645:
.L339:
.LBE2320:
.LBE2321:
.LBE2323:
.LBE2337:
.LBB2338:
.LBB2339:
	.loc 5 237 0
	lwz 9,5176(3)
.LBE2339:
.LBE2338:
.LBB2341:
.LBB2328:
	.loc 6 606 0
	stw 31,4680(3)
.LVL646:
.LBE2328:
.LBE2341:
.LBB2342:
.LBB2340:
	.loc 5 237 0
	cmpwi 7,9,0
	beq- 7,.L338
	.loc 5 238 0
	stw 31,0(9)
.LBE2340:
.LBE2342:
	.loc 2 1307 0
	lwz 0,28(1)
	lwz 29,12(1)
	mtlr 0
	lwz 30,16(1)
.LVL647:
	lwz 31,20(1)
.LVL648:
	addi 1,1,24
	.cfi_restore 29
	.cfi_restore 30
	.cfi_restore 31
.LCFI182:
	.cfi_def_cfa_offset 0
	blr
	.cfi_endproc
.LFE2876:
	.size	_ZN4idAI19Event_SetTalkTargetEP8idEntity, .-_ZN4idAI19Event_SetTalkTargetEP8idEntity
	.align 2
	.globl _ZN4idAI18Event_CanSeeEntityEP8idEntity
	.type	_ZN4idAI18Event_CanSeeEntityEP8idEntity, @function
_ZN4idAI18Event_CanSeeEntityEP8idEntity:
.LFB2875:
	.loc 2 1282 0
	.cfi_startproc
.LVL649:
.LBB2343:
	.loc 2 1283 0
	cmpwi 7,4,0
.LBE2343:
	.loc 2 1282 0
	mflr 0
	stwu 1,-8(1)
.LCFI183:
	.cfi_def_cfa_offset 8
	.cfi_register 65, 0
	stw 0,12(1)
.LBB2344:
	.loc 2 1283 0
	beq- 7,.L349
	.cfi_offset 65, 4
	.loc 2 1288 0
	li 5,0
	bl _ZNK7idActor6CanSeeEP8idEntityb
.LVL650:
	.loc 2 1289 0
	bl _ZN8idThread9ReturnIntEi
.LVL651:
.LBE2344:
	.loc 2 1290 0
	lwz 0,12(1)
	addi 1,1,8
	.cfi_remember_state
.LCFI184:
	.cfi_def_cfa_offset 0
	mtlr 0
	blr
.LVL652:
.L349:
.LCFI185:
	.cfi_restore_state
.LBB2345:
	.loc 2 1284 0
	li 3,0
.LVL653:
	bl _ZN8idThread9ReturnIntEi
.LVL654:
.LBE2345:
	.loc 2 1290 0
	lwz 0,12(1)
	addi 1,1,8
.LCFI186:
	.cfi_def_cfa_offset 0
	mtlr 0
	blr
	.cfi_endproc
.LFE2875:
	.size	_ZN4idAI18Event_CanSeeEntityEP8idEntity, .-_ZN4idAI18Event_CanSeeEntityEP8idEntity
	.align 2
	.globl _ZN4idAI23Event_EnemyInCombatConeEP8idEntityi
	.type	_ZN4idAI23Event_EnemyInCombatConeEP8idEntityi, @function
_ZN4idAI23Event_EnemyInCombatConeEP8idEntityi:
.LFB2871:
	.loc 2 1155 0
	.cfi_startproc
.LVL655:
	mflr 0
	stwu 1,-24(1)
.LCFI187:
	.cfi_def_cfa_offset 24
	.cfi_register 65, 0
.LBB2346:
.LBB2347:
.LBB2348:
	.loc 6 635 0
	lis 9,gameLocal@ha
.LBE2348:
.LBE2347:
.LBE2346:
	.loc 2 1155 0
	stw 28,8(1)
.LBB2369:
.LBB2353:
.LBB2349:
	.loc 6 635 0
	la 9,gameLocal@l(9)
.LBE2349:
.LBE2353:
.LBE2369:
	.loc 2 1155 0
	stw 29,12(1)
	mr 28,5
	.cfi_offset 29, -12
	.cfi_offset 28, -16
	stw 30,16(1)
.LBB2370:
.LBB2354:
.LBB2350:
	.loc 6 638 0
	li 29,0
.LBE2350:
.LBE2354:
.LBE2370:
	.loc 2 1155 0
	stw 31,20(1)
	mr 30,3
	.cfi_offset 31, -4
	.cfi_offset 30, -8
.LVL656:
	stw 0,28(1)
	.loc 2 1155 0
	mr 31,4
.LBB2371:
.LBB2355:
.LBB2351:
	.loc 6 634 0
	lwz 0,5120(3)
	.cfi_offset 65, 4
	rlwinm 11,0,0,20,31
.LVL657:
	.loc 6 635 0
	srawi 0,0,12
	addi 10,11,4228
	slwi 10,10,2
	add 10,9,10
	lwz 10,4(10)
	cmpw 7,10,0
	beq- 7,.L362
.LVL658:
.L351:
.LBE2351:
.LBE2355:
	.loc 2 1160 0
	lwz 0,172(30)
	cmpwi 7,0,0
	beq- 7,.L355
	.loc 2 1166 0
	cmpwi 7,29,0
	beq- 7,.L355
	.loc 2 1172 0
	cmpwi 7,31,0
	beq- 7,.L355
.LVL659:
.LBB2356:
.LBB2357:
	.loc 8 340 0 discriminator 2
	lwz 9,0(31)
	mr 3,31
.LVL660:
	lwz 0,0(9)
	mtctr 0
	bctrl
.LVL661:
.LBE2357:
	.loc 2 2707 0 discriminator 2
	lis 9,_ZN12idCombatNode4TypeE@ha
	la 9,_ZN12idCombatNode4TypeE@l(9)
	lwz 0,56(3)
.LBB2362:
.LBB2358:
.LBB2359:
	.loc 8 311 0 discriminator 2
	lwz 11,56(9)
	cmpw 7,0,11
	bge- 7,.L363
.LVL662:
.L355:
.LBE2359:
.LBE2358:
.LBE2362:
.LBE2356:
	.loc 2 1174 0 discriminator 4
	li 3,0
	bl _ZN8idThread9ReturnIntEi
.LBE2371:
	.loc 2 1187 0 discriminator 4
	lwz 0,28(1)
	lwz 28,8(1)
.LVL663:
	mtlr 0
	lwz 29,12(1)
	lwz 30,16(1)
.LVL664:
	lwz 31,20(1)
.LVL665:
	addi 1,1,24
	.cfi_remember_state
.LCFI188:
	.cfi_def_cfa_offset 0
	.cfi_restore 31
	.cfi_restore 30
	.cfi_restore 29
	.cfi_restore 28
	blr
.LVL666:
.L363:
.LCFI189:
	.cfi_restore_state
.LBB2372:
.LBB2364:
.LBB2363:
.LBB2361:
.LBB2360:
	.loc 8 311 0
	lwz 9,60(9)
	cmpw 7,0,9
	bgt- 7,.L355
.LVL667:
.LBE2360:
.LBE2361:
.LBE2363:
.LBE2364:
.LBB2365:
	.loc 2 1179 0
	cmpwi 7,28,0
	beq- 7,.L364
.LBB2366:
	.loc 2 1180 0
	mr 3,29
.LVL668:
	bl _ZNK8idEntity10GetPhysicsEv
	li 4,0
	lwz 9,0(3)
	lwz 0,132(9)
	mtctr 0
	bctrl
	.loc 2 1181 0
	mr 4,29
	.loc 2 1180 0
	mr 5,3
.LVL669:
	.loc 2 1181 0
	mr 3,31
.LVL670:
	bl _ZN12idCombatNode12EntityInViewEP7idActorRK6idVec3
.LVL671:
.LBE2366:
.LBE2365:
	.loc 2 1186 0
	bl _ZN8idThread9ReturnIntEi
.LVL672:
.L365:
.LBE2372:
	.loc 2 1187 0
	lwz 0,28(1)
	lwz 28,8(1)
.LVL673:
	mtlr 0
	lwz 29,12(1)
	lwz 30,16(1)
.LVL674:
	lwz 31,20(1)
.LVL675:
	addi 1,1,24
	.cfi_remember_state
	.cfi_restore 28
	.cfi_restore 29
	.cfi_restore 30
	.cfi_restore 31
.LCFI190:
	.cfi_def_cfa_offset 0
	blr
.LVL676:
.L362:
.LCFI191:
	.cfi_restore_state
.LBB2373:
.LBB2367:
.LBB2352:
	.loc 6 636 0
	addi 11,11,132
.LVL677:
	slwi 11,11,2
.LVL678:
	add 9,9,11
	lwz 29,4(9)
	b .L351
.LVL679:
.L364:
.LBE2352:
.LBE2367:
.LBB2368:
	.loc 2 1183 0
	mr 4,29
	addi 5,30,5124
	mr 3,31
.LVL680:
	bl _ZN12idCombatNode12EntityInViewEP7idActorRK6idVec3
.LVL681:
.LBE2368:
	.loc 2 1186 0
	bl _ZN8idThread9ReturnIntEi
.LVL682:
	b .L365
.LBE2373:
	.cfi_endproc
.LFE2871:
	.size	_ZN4idAI23Event_EnemyInCombatConeEP8idEntityi, .-_ZN4idAI23Event_EnemyInCombatConeEP8idEntityi
	.align 2
	.globl _ZN4idAI19Event_GetCombatNodeEv
	.type	_ZN4idAI19Event_GetCombatNodeEv, @function
_ZN4idAI19Event_GetCombatNodeEv:
.LFB2870:
	.loc 2 1104 0
	.cfi_startproc
.LVL683:
	mflr 0
	stwu 1,-56(1)
.LCFI192:
	.cfi_def_cfa_offset 56
	.cfi_register 65, 0
	stw 26,24(1)
.LBB2374:
.LBB2375:
.LBB2376:
	.loc 6 638 0
	li 26,0
	.cfi_offset 26, -32
.LBE2376:
.LBE2375:
.LBE2374:
	.loc 2 1104 0
	stw 28,32(1)
.LBB2437:
.LBB2382:
.LBB2377:
	.loc 6 635 0
	lis 28,gameLocal@ha
	.cfi_offset 28, -24
.LBE2377:
.LBE2382:
.LBE2437:
	.loc 2 1104 0
	stw 30,40(1)
.LBB2438:
.LBB2383:
.LBB2378:
	.loc 6 635 0
	la 28,gameLocal@l(28)
.LBE2378:
.LBE2383:
.LBE2438:
	.loc 2 1104 0
	stw 0,60(1)
	mr 30,3
	.cfi_offset 65, 4
	.cfi_offset 30, -16
.LVL684:
	stfd 31,48(1)
	stw 22,8(1)
	stw 23,12(1)
	stw 24,16(1)
	stw 25,20(1)
	stw 27,28(1)
	stw 29,36(1)
	stw 31,44(1)
.LBB2439:
.LBB2384:
.LBB2379:
	.loc 6 634 0
	lwz 0,5120(3)
	rlwinm 9,0,0,20,31
.LVL685:
	.loc 6 635 0
	srawi 0,0,12
	addi 11,9,4228
	slwi 11,11,2
	add 11,28,11
	lwz 11,4(11)
	cmpw 7,11,0
	beq- 7,.L389
	.cfi_offset 31, -12
	.cfi_offset 29, -20
	.cfi_offset 27, -28
	.cfi_offset 25, -36
	.cfi_offset 24, -40
	.cfi_offset 23, -44
	.cfi_offset 22, -48
	.cfi_offset 63, -8
.LVL686:
.L367:
.LBE2379:
.LBE2384:
	.loc 2 1113 0
	lwz 0,172(30)
	cmpwi 7,0,0
	beq- 7,.L370
	.loc 2 1119 0
	cmpwi 7,26,0
	beq- 7,.L370
	.loc 2 1119 0 is_stmt 0 discriminator 2
	mr 3,30
.LVL687:
	bl _ZNK4idAI18EnemyPositionValidEv
	cmpwi 7,3,0
	beq- 7,.L370
.LVL688:
	.loc 2 1128 0 is_stmt 1
	addi 3,30,4216
	li 4,0
	bl _ZNK15idPhysics_Actor9GetOriginEi
.LBB2385:
	.loc 2 1130 0
	lwz 10,172(30)
.LBE2385:
	.loc 2 1128 0
	mr 25,3
.LVL689:
.LBB2411:
.LBB2412:
	.loc 3 431 0
	lfs 9,0(3)
.LBE2412:
.LBE2411:
.LBB2419:
	.loc 2 1130 0
	cmpwi 7,10,0
.LBE2419:
.LBB2420:
.LBB2413:
	.loc 3 431 0
	lfs 12,5124(30)
	lfs 10,4(3)
.LBE2413:
.LBE2420:
.LBB2421:
	.loc 2 1127 0
	li 23,0
.LBE2421:
.LBB2422:
.LBB2414:
	.loc 3 431 0
	lfs 13,5128(30)
	lfs 11,8(3)
	lfs 0,5132(30)
.LVL690:
.LBE2414:
.LBE2422:
.LBB2423:
	.loc 2 1130 0
	ble- 7,.L377
.LBE2423:
.LBB2424:
.LBB2415:
	.loc 3 431 0
	fsubs 12,9,12
.LBE2415:
.LBE2424:
.LBB2425:
.LBB2380:
	.loc 2 1130 0
	li 31,0
.LBE2380:
.LBE2425:
.LBB2426:
.LBB2416:
	.loc 3 431 0
	fsubs 13,10,13
.LBE2416:
.LBE2426:
.LBB2427:
.LBB2386:
.LBB2387:
.LBB2388:
	.loc 6 635 0
	mr 24,28
.LBE2388:
.LBE2387:
.LBE2386:
.LBE2427:
.LBB2428:
.LBB2417:
	.loc 3 431 0
	fsubs 0,11,0
.LBE2417:
.LBE2428:
.LBB2429:
.LBB2407:
.LBB2390:
	.loc 2 2707 0
	lis 27,_ZN12idCombatNode4TypeE@ha
.LBE2390:
.LBE2407:
.LBE2429:
.LBB2430:
.LBB2431:
	.loc 3 636 0
	fmuls 12,12,12
.LBE2431:
.LBE2430:
.LBB2432:
.LBB2408:
.LBB2395:
	.loc 2 1137 0
	addi 22,30,5124
.LBE2395:
.LBE2408:
.LBE2432:
.LBB2433:
.LBB2418:
	.loc 3 636 0
	fmadds 13,13,13,12
	fmadds 31,0,0,13
	b .L376
.LVL691:
.L374:
.LBE2418:
.LBE2433:
.LBB2434:
	.loc 2 1130 0
	addi 31,31,1
.LVL692:
	cmpw 7,10,31
	ble- 7,.L377
.LVL693:
.L376:
.LBB2409:
.LBB2403:
.LBB2389:
	.loc 6 634 0
	lwz 9,184(30)
	slwi 0,31,2
	lwzx 0,9,0
	rlwinm 9,0,0,20,31
.LVL694:
	.loc 6 635 0
	srawi 0,0,12
	addi 11,9,4228
	slwi 11,11,2
	add 11,28,11
	lwz 11,4(11)
	cmpw 7,11,0
	bne+ 7,.L374
	.loc 6 636 0
	addi 9,9,132
.LVL695:
	slwi 9,9,2
.LVL696:
	add 9,24,9
	lwz 29,4(9)
.LBE2389:
.LBE2403:
	.loc 2 1132 0
	cmpwi 7,29,0
	beq- 7,.L374
.LVL697:
.LBB2404:
.LBB2391:
	.loc 8 340 0 discriminator 2
	lwz 9,0(29)
.LVL698:
	mr 3,29
	lwz 0,0(9)
	mtctr 0
	bctrl
.LVL699:
.LBE2391:
	.loc 2 2707 0 discriminator 2
	la 9,_ZN12idCombatNode4TypeE@l(27)
	lwz 0,56(3)
.LBB2394:
.LBB2392:
.LBB2393:
	.loc 8 311 0 discriminator 2
	lwz 11,56(9)
	cmpw 7,0,11
	blt- 7,.L388
	.loc 8 311 0 is_stmt 0
	lwz 9,60(9)
	cmpw 7,0,9
	bgt- 7,.L388
.LVL700:
.LBE2393:
.LBE2392:
.LBE2394:
.LBE2404:
.LBB2405:
	.loc 2 1137 0 is_stmt 1
	mr 3,29
.LVL701:
	bl _ZNK12idCombatNode10IsDisabledEv
	cmpwi 7,3,0
	beq- 7,.L378
.LVL702:
.L388:
	lwz 10,172(30)
.LVL703:
.LBE2405:
.LBE2409:
	.loc 2 1130 0
	addi 31,31,1
.LVL704:
	cmpw 7,10,31
	bgt+ 7,.L376
.LVL705:
.L377:
.LBE2434:
	.loc 2 1147 0
	mr 3,23
	bl _ZN8idThread12ReturnEntityEP8idEntity
.LBE2439:
	.loc 2 1148 0
	lwz 0,60(1)
	lwz 22,8(1)
	mtlr 0
	lwz 23,12(1)
	lwz 24,16(1)
	lwz 25,20(1)
.LVL706:
	lwz 26,24(1)
	lwz 27,28(1)
	lwz 28,32(1)
	lwz 29,36(1)
	lwz 30,40(1)
.LVL707:
	lwz 31,44(1)
	lfd 31,48(1)
	addi 1,1,56
	.cfi_remember_state
	.cfi_restore 22
	.cfi_restore 23
	.cfi_restore 24
	.cfi_restore 25
	.cfi_restore 26
	.cfi_restore 27
	.cfi_restore 28
	.cfi_restore 29
	.cfi_restore 30
	.cfi_restore 31
	.cfi_restore 63
.LCFI193:
	.cfi_def_cfa_offset 0
	blr
.LVL708:
.L370:
.LCFI194:
	.cfi_restore_state
.LBB2440:
	.loc 2 1122 0 discriminator 4
	li 3,0
	bl _ZN8idThread12ReturnEntityEP8idEntity
.LBE2440:
	.loc 2 1148 0 discriminator 4
	lwz 0,60(1)
	lwz 22,8(1)
	mtlr 0
	lwz 23,12(1)
	lwz 24,16(1)
	lwz 25,20(1)
	lwz 26,24(1)
	lwz 27,28(1)
	lwz 28,32(1)
	lwz 29,36(1)
	lwz 30,40(1)
.LVL709:
	lwz 31,44(1)
	lfd 31,48(1)
	addi 1,1,56
	.cfi_remember_state
.LCFI195:
	.cfi_def_cfa_offset 0
	.cfi_restore 63
	.cfi_restore 31
	.cfi_restore 30
	.cfi_restore 29
	.cfi_restore 28
	.cfi_restore 27
	.cfi_restore 26
	.cfi_restore 25
	.cfi_restore 24
	.cfi_restore 23
	.cfi_restore 22
	blr
.LVL710:
.L378:
.LCFI196:
	.cfi_restore_state
.LBB2441:
.LBB2435:
.LBB2410:
.LBB2406:
	.loc 2 1137 0 discriminator 1
	mr 3,29
	mr 4,26
	mr 5,22
	bl _ZN12idCombatNode12EntityInViewEP7idActorRK6idVec3
	cmpwi 7,3,0
	beq- 7,.L388
.LBB2396:
	.loc 2 1138 0 discriminator 4
	mr 3,29
	bl _ZNK8idEntity10GetPhysicsEv
	li 4,0
	lwz 9,0(3)
	lwz 0,132(9)
	mtctr 0
	bctrl
.LVL711:
.LBB2397:
.LBB2398:
	.loc 3 431 0 discriminator 4
	lfs 10,4(25)
	lfs 0,4(3)
	lfs 11,0(25)
	fsubs 10,10,0
	lfs 0,0(3)
	lfs 12,8(25)
	fsubs 11,11,0
	lfs 0,8(3)
.LBE2398:
.LBE2397:
.LBB2400:
.LBB2401:
	.loc 3 636 0 discriminator 4
	fmuls 10,10,10
	lwz 10,172(30)
.LBE2401:
.LBE2400:
.LBB2402:
.LBB2399:
	.loc 3 431 0 discriminator 4
	fsubs 12,12,0
.LVL712:
	.loc 3 636 0 discriminator 4
	fmadds 11,11,11,10
.LVL713:
	fmadds 12,12,12,11
.LVL714:
.LBE2399:
.LBE2402:
	.loc 2 1140 0 discriminator 4
	fcmpu 7,31,12
	bng- 7,.L374
	.loc 2 1140 0 is_stmt 0
	mr 23,29
	.loc 2 1142 0 is_stmt 1
	fmr 31,12
	b .L374
.LVL715:
.L389:
.LBE2396:
.LBE2406:
.LBE2410:
.LBE2435:
.LBB2436:
.LBB2381:
	.loc 6 636 0
	addi 9,9,132
.LVL716:
	slwi 9,9,2
.LVL717:
	add 9,28,9
	lwz 26,4(9)
	b .L367
.LBE2381:
.LBE2436:
.LBE2441:
	.cfi_endproc
.LFE2870:
	.size	_ZN4idAI19Event_GetCombatNodeEv, .-_ZN4idAI19Event_GetCombatNodeEv
	.align 2
	.globl _ZN4idAI17Event_FacingIdealEv
	.type	_ZN4idAI17Event_FacingIdealEv, @function
_ZN4idAI17Event_FacingIdealEv:
.LFB2866:
	.loc 2 1061 0
	.cfi_startproc
.LVL718:
	mflr 0
	stwu 1,-8(1)
.LCFI197:
	.cfi_def_cfa_offset 8
	.cfi_register 65, 0
	stw 0,12(1)
.LBB2442:
	.loc 2 1062 0
	.cfi_offset 65, 4
	bl _ZN4idAI11FacingIdealEv
.LVL719:
	.loc 2 1063 0
	bl _ZN8idThread9ReturnIntEi
.LVL720:
.LBE2442:
	.loc 2 1064 0
	lwz 0,12(1)
	addi 1,1,8
.LCFI198:
	.cfi_def_cfa_offset 0
	mtlr 0
	blr
	.cfi_endproc
.LFE2866:
	.size	_ZN4idAI17Event_FacingIdealEv, .-_ZN4idAI17Event_FacingIdealEv
	.align 2
	.globl _ZN4idAI12Event_TurnToEf
	.type	_ZN4idAI12Event_TurnToEf, @function
_ZN4idAI12Event_TurnToEf:
.LFB2852:
	.loc 2 911 0
	.cfi_startproc
.LVL721:
	mflr 0
	stwu 1,-8(1)
.LCFI199:
	.cfi_def_cfa_offset 8
	.cfi_register 65, 0
	stw 0,12(1)
	.loc 2 912 0
	.cfi_offset 65, 4
	bl _ZN4idAI10TurnTowardEf
.LVL722:
	.loc 2 913 0
	lwz 0,12(1)
	addi 1,1,8
.LCFI200:
	.cfi_def_cfa_offset 0
	mtlr 0
	blr
	.cfi_endproc
.LFE2852:
	.size	_ZN4idAI12Event_TurnToEf, .-_ZN4idAI12Event_TurnToEf
	.align 2
	.globl _ZN4idAI17Event_StopRagdollEv
	.type	_ZN4idAI17Event_StopRagdollEv, @function
_ZN4idAI17Event_StopRagdollEv:
.LFB2846:
	.loc 2 848 0
	.cfi_startproc
.LVL723:
	stwu 1,-16(1)
.LCFI201:
	.cfi_def_cfa_offset 16
	mflr 0
	stw 31,12(1)
	mr 31,3
	.cfi_offset 31, -4
	.cfi_register 65, 0
	stw 0,20(1)
	.loc 2 849 0
	.cfi_offset 65, 4
	bl _ZN7idActor11StopRagdollEv
.LVL724:
	.loc 2 852 0
	mr 3,31
	addi 4,31,4216
	bl _ZN8idEntity10SetPhysicsEP9idPhysics
	.loc 2 853 0
	lwz 0,20(1)
	lwz 31,12(1)
.LVL725:
	mtlr 0
	addi 1,1,16
.LCFI202:
	.cfi_def_cfa_offset 0
	.cfi_restore 31
	blr
	.cfi_endproc
.LFE2846:
	.size	_ZN4idAI17Event_StopRagdollEv, .-_ZN4idAI17Event_StopRagdollEv
	.align 2
	.globl _ZN4idAI19Event_BecomeRagdollEv
	.type	_ZN4idAI19Event_BecomeRagdollEv, @function
_ZN4idAI19Event_BecomeRagdollEv:
.LFB2845:
	.loc 2 836 0
	.cfi_startproc
.LVL726:
	mflr 0
	stwu 1,-8(1)
.LCFI203:
	.cfi_def_cfa_offset 8
	.cfi_register 65, 0
	stw 0,12(1)
.LBB2443:
	.loc 2 839 0
	.cfi_offset 65, 4
	bl _ZN7idActor12StartRagdollEv
.LVL727:
	.loc 2 840 0
	bl _ZN8idThread9ReturnIntEi
.LVL728:
.LBE2443:
	.loc 2 841 0
	lwz 0,12(1)
	addi 1,1,8
.LCFI204:
	.cfi_def_cfa_offset 0
	mtlr 0
	blr
	.cfi_endproc
.LFE2845:
	.size	_ZN4idAI19Event_BecomeRagdollEv, .-_ZN4idAI19Event_BecomeRagdollEv
	.align 2
	.globl _ZN4idAI20Event_BecomeNonSolidEv
	.type	_ZN4idAI20Event_BecomeNonSolidEv, @function
_ZN4idAI20Event_BecomeNonSolidEv:
.LFB2844:
	.loc 2 825 0
	.cfi_startproc
.LVL729:
	mflr 0
	stwu 1,-16(1)
.LCFI205:
	.cfi_def_cfa_offset 16
	.cfi_register 65, 0
	.loc 2 826 0
	li 9,0
	.loc 2 827 0
	li 5,-1
	.loc 2 825 0
	stw 31,12(1)
	.loc 2 827 0
	addi 31,3,4216
	.cfi_offset 31, -4
	.loc 2 825 0
	stw 0,20(1)
	.loc 2 827 0
	li 4,0
	.loc 2 826 0
	lwz 0,192(3)
	.cfi_offset 65, 4
	rlwimi 0,9,29,2,2
	stw 0,192(3)
	.loc 2 827 0
	mr 3,31
.LVL730:
	bl _ZN15idPhysics_Actor11SetContentsEii
	.loc 2 828 0
	mr 3,31
	li 4,0
	bl _ZNK15idPhysics_Actor12GetClipModelEi
	bl _ZN11idClipModel6UnlinkEv
	.loc 2 829 0
	lwz 0,20(1)
	lwz 31,12(1)
.LVL731:
	mtlr 0
	addi 1,1,16
.LCFI206:
	.cfi_def_cfa_offset 0
	.cfi_restore 31
	blr
	.cfi_endproc
.LFE2844:
	.size	_ZN4idAI20Event_BecomeNonSolidEv, .-_ZN4idAI20Event_BecomeNonSolidEv
	.align 2
	.globl _ZN4idAI20Event_CanBecomeSolidEv
	.type	_ZN4idAI20Event_CanBecomeSolidEv, @function
_ZN4idAI20Event_CanBecomeSolidEv:
.LFB2842:
	.loc 2 772 0
	.cfi_startproc
.LVL732:
	stwu 1,-16416(1)
.LCFI207:
	.cfi_def_cfa_offset 16416
	mflr 0
.LBB2444:
	.loc 2 779 0
	li 4,-1
.LBE2444:
	.loc 2 772 0
	stw 30,16408(1)
.LBB2445:
	.loc 2 779 0
	addi 30,3,4216
	.cfi_offset 30, -8
	.cfi_register 65, 0
.LBE2445:
	.loc 2 772 0
	stw 31,16412(1)
	mr 31,3
	.cfi_offset 31, -4
.LBB2446:
	.loc 2 779 0
	mr 3,30
.LVL733:
.LBE2446:
	.loc 2 772 0
	stw 0,16420(1)
	stw 27,16396(1)
	stw 28,16400(1)
	stw 29,16404(1)
.LBB2447:
	.loc 2 779 0
	.cfi_offset 29, -12
	.cfi_offset 28, -16
	.cfi_offset 27, -20
	.cfi_offset 65, 4
	bl _ZNK15idPhysics_Actor12GetAbsBoundsEi
	mr 4,3
	lis 3,gameLocal+2311032@ha
	la 3,gameLocal+2311032@l(3)
	li 5,273
	addi 6,1,8
	li 7,4096
	bl _ZNK6idClip24ClipModelsTouchingBoundsERK8idBoundsiPP11idClipModeli
.LVL734:
	.loc 2 780 0
	mr. 27,3
	ble- 0,.L396
	addi 28,1,4
	li 29,0
	b .L399
.LVL735:
.L397:
	cmpw 7,29,27
	beq- 7,.L396
.LVL736:
.L399:
	.loc 2 781 0
	lwzu 4,4(28)
.LVL737:
	.loc 2 780 0
	addi 29,29,1
	.loc 2 784 0
	lwz 0,128(4)
	cmpwi 7,0,-1
	bne+ 7,.L397
	.loc 2 2707 0
	lwz 9,4(4)
	.loc 2 789 0
	cmpw 7,9,31
	beq- 7,.L397
	.loc 2 789 0 is_stmt 0 discriminator 1
	lwz 0,192(9)
	andis. 9,0,8192
	beq+ 0,.L397
	.loc 2 793 0 is_stmt 1
	mr 3,30
	bl _ZNK15idPhysics_Actor12ClipContentsEPK11idClipModel
.LVL738:
	cmpwi 7,3,0
	beq+ 7,.L397
	.loc 2 794 0
	lis 9,.LC0@ha
	lfs 1,.LC0@l(9)
	bl _ZN8idThread11ReturnFloatEf
	.loc 2 795 0
	b .L395
.L396:
	.loc 2 799 0
	lis 9,.LC11@ha
	lfs 1,.LC11@l(9)
	bl _ZN8idThread11ReturnFloatEf
.L395:
.LBE2447:
	.loc 2 800 0
	lwz 0,16420(1)
	lwz 27,16396(1)
.LVL739:
	mtlr 0
	lwz 28,16400(1)
	lwz 29,16404(1)
	lwz 30,16408(1)
	lwz 31,16412(1)
.LVL740:
	addi 1,1,16416
.LCFI208:
	.cfi_def_cfa_offset 0
	.cfi_restore 31
	.cfi_restore 30
	.cfi_restore 29
	.cfi_restore 28
	.cfi_restore 27
	blr
	.cfi_endproc
.LFE2842:
	.size	_ZN4idAI20Event_CanBecomeSolidEv, .-_ZN4idAI20Event_CanBecomeSolidEv
	.align 2
	.globl _ZN4idAI18Event_DirectDamageEP8idEntityPKc
	.type	_ZN4idAI18Event_DirectDamageEP8idEntityPKc, @function
_ZN4idAI18Event_DirectDamageEP8idEntityPKc:
.LFB2836:
	.loc 2 672 0
	.cfi_startproc
.LVL741:
	mflr 0
	stwu 1,-8(1)
.LCFI209:
	.cfi_def_cfa_offset 8
	.cfi_register 65, 0
	stw 0,12(1)
	.loc 2 672 0
	mr 0,4
	.cfi_offset 65, 4
	.loc 2 673 0
	mr 4,5
.LVL742:
	mr 5,0
.LVL743:
	bl _ZN4idAI12DirectDamageEPKcP8idEntity
.LVL744:
	.loc 2 674 0
	lwz 0,12(1)
	addi 1,1,8
.LCFI210:
	.cfi_def_cfa_offset 0
	mtlr 0
	blr
	.cfi_endproc
.LFE2836:
	.size	_ZN4idAI18Event_DirectDamageEP8idEntityPKc, .-_ZN4idAI18Event_DirectDamageEP8idEntityPKc
	.align 2
	.globl _ZN4idAI15Event_EndAttackEv
	.type	_ZN4idAI15Event_EndAttackEv, @function
_ZN4idAI15Event_EndAttackEv:
.LFB2840:
	.loc 2 725 0
	.cfi_startproc
.LVL745:
	mflr 0
	stwu 1,-8(1)
.LCFI211:
	.cfi_def_cfa_offset 8
	.cfi_register 65, 0
	stw 0,12(1)
	.loc 2 726 0
	.cfi_offset 65, 4
	bl _ZN4idAI9EndAttackEv
.LVL746:
	.loc 2 727 0
	lwz 0,12(1)
	addi 1,1,8
.LCFI212:
	.cfi_def_cfa_offset 0
	mtlr 0
	blr
	.cfi_endproc
.LFE2840:
	.size	_ZN4idAI15Event_EndAttackEv, .-_ZN4idAI15Event_EndAttackEv
	.align 2
	.globl _ZN4idAI16Event_RandomPathEv
	.type	_ZN4idAI16Event_RandomPathEv, @function
_ZN4idAI16Event_RandomPathEv:
.LFB2838:
	.loc 2 704 0
	.cfi_startproc
.LVL747:
	mflr 0
	stwu 1,-8(1)
.LCFI213:
	.cfi_def_cfa_offset 8
	.cfi_register 65, 0
.LBB2448:
	.loc 2 707 0
	li 4,0
.LBE2448:
	.loc 2 704 0
	stw 0,12(1)
.LBB2449:
	.loc 2 707 0
	.cfi_offset 65, 4
	bl _ZN12idPathCorner10RandomPathEPK8idEntityS2_
.LVL748:
	.loc 2 708 0
	bl _ZN8idThread12ReturnEntityEP8idEntity
.LBE2449:
	.loc 2 709 0
	lwz 0,12(1)
	addi 1,1,8
.LCFI214:
	.cfi_def_cfa_offset 0
	mtlr 0
	blr
	.cfi_endproc
.LFE2838:
	.size	_ZN4idAI16Event_RandomPathEv, .-_ZN4idAI16Event_RandomPathEv
	.align 2
	.globl _ZN4idAI27Event_RadiusDamageFromJointEPKcS1_
	.type	_ZN4idAI27Event_RadiusDamageFromJointEPKcS1_, @function
_ZN4idAI27Event_RadiusDamageFromJointEPKcS1_:
.LFB2837:
	.loc 2 681 0
	.cfi_startproc
.LVL749:
	stwu 1,-80(1)
.LCFI215:
	.cfi_def_cfa_offset 80
	mflr 0
	stw 28,64(1)
.LBB2450:
	.loc 2 686 0
	mr. 28,4
	.cfi_offset 28, -16
	.cfi_register 65, 0
.LBE2450:
	.loc 2 681 0
	stw 30,72(1)
	mr 30,3
	.cfi_offset 30, -8
	stw 31,76(1)
	mr 31,5
	.cfi_offset 31, -4
	stw 0,84(1)
	stw 27,60(1)
	stw 29,68(1)
.LBB2453:
	.loc 2 686 0
	beq- 0,.L405
	.cfi_offset 29, -12
	.cfi_offset 27, -20
	.cfi_offset 65, 4
	.loc 2 686 0 is_stmt 0 discriminator 1
	lbz 0,0(28)
	cmpwi 7,0,0
	bne- 7,.L406
.L405:
	.loc 2 687 0 is_stmt 1
	addi 3,30,4216
.LVL750:
	li 4,0
.LVL751:
	bl _ZNK15idPhysics_Actor9GetOriginEi
.LVL752:
	lis 29,gameLocal@ha
.LBB2451:
.LBB2452:
	.loc 3 424 0
	lwz 11,0(3)
	la 29,gameLocal@l(29)
	.loc 3 425 0
	lwz 9,4(3)
	addi 28,1,8
.LVL753:
	.loc 3 426 0
	lwz 0,8(3)
	.loc 3 424 0
	stw 11,8(1)
	.loc 3 425 0
	stw 9,12(1)
	.loc 3 426 0
	stw 0,16(1)
.LVL754:
.L407:
.LBE2452:
.LBE2451:
	.loc 2 696 0
	lis 9,.LC11@ha
	mr 5,30
	lfs 1,.LC11@l(9)
	mr 3,29
	mr 4,28
	mr 6,30
	mr 7,30
	mr 8,30
	mr 9,31
	bl _ZN11idGameLocal12RadiusDamageERK6idVec3P8idEntityS4_S4_S4_PKcf
.LBE2453:
	.loc 2 697 0
	lwz 0,84(1)
	lwz 27,60(1)
	mtlr 0
	lwz 28,64(1)
	lwz 29,68(1)
	lwz 30,72(1)
.LVL755:
	lwz 31,76(1)
.LVL756:
	addi 1,1,80
	.cfi_remember_state
.LCFI216:
	.cfi_def_cfa_offset 0
	.cfi_restore 31
	.cfi_restore 30
	.cfi_restore 29
	.cfi_restore 28
	.cfi_restore 27
	blr
.LVL757:
.L406:
.LCFI217:
	.cfi_restore_state
.LBB2454:
	.loc 2 689 0
	addi 3,3,636
.LVL758:
	bl _ZNK10idAnimator14GetJointHandleEPKc
.LVL759:
	.loc 2 690 0
	cmpwi 7,3,-1
	.loc 2 689 0
	mr 27,3
.LVL760:
	.loc 2 690 0
	beq- 7,.L410
	lis 29,gameLocal@ha
	la 29,gameLocal@l(29)
.LVL761:
.L408:
	.loc 2 693 0
	addis 9,29,0x25
	addi 28,1,8
.LVL762:
	lwz 5,2004(9)
	mr 3,30
	mr 4,27
	mr 6,28
	addi 7,1,20
	bl _ZN16idAnimatedEntity22GetJointWorldTransformE13jointHandle_tiR6idVec3R6idMat3
	b .L407
.LVL763:
.L410:
	.loc 2 691 0
	mr 3,30
	lis 29,gameLocal@ha
	bl _ZNK8idEntity16GetEntityDefNameEv
	la 29,gameLocal@l(29)
	lis 4,.LC19@ha
	mr 6,3
	la 4,.LC19@l(4)
	mr 3,29
	mr 5,28
	crxor 6,6,6
	bl _ZNK11idGameLocal5ErrorEPKcz
	b .L408
.LBE2454:
	.cfi_endproc
.LFE2837:
	.size	_ZN4idAI27Event_RadiusDamageFromJointEPKcS1_, .-_ZN4idAI27Event_RadiusDamageFromJointEPKcS1_
	.align 2
	.globl _ZN4idAI17Event_AttackMeleeEPKc
	.type	_ZN4idAI17Event_AttackMeleeEPKc, @function
_ZN4idAI17Event_AttackMeleeEPKc:
.LFB2835:
	.loc 2 660 0
	.cfi_startproc
.LVL764:
	mflr 0
	stwu 1,-8(1)
.LCFI218:
	.cfi_def_cfa_offset 8
	.cfi_register 65, 0
	stw 0,12(1)
.LBB2455:
	.loc 2 663 0
	.cfi_offset 65, 4
	bl _ZN4idAI11AttackMeleeEPKc
.LVL765:
	.loc 2 664 0
	bl _ZN8idThread9ReturnIntEi
.LVL766:
.LBE2455:
	.loc 2 665 0
	lwz 0,12(1)
	addi 1,1,8
.LCFI219:
	.cfi_def_cfa_offset 0
	mtlr 0
	blr
	.cfi_endproc
.LFE2835:
	.size	_ZN4idAI17Event_AttackMeleeEPKc, .-_ZN4idAI17Event_AttackMeleeEPKc
	.align 2
	.globl _ZN4idAI25Event_FireMissileAtTargetEPKcS1_
	.type	_ZN4idAI25Event_FireMissileAtTargetEPKcS1_, @function
_ZN4idAI25Event_FireMissileAtTargetEPKcS1_:
.LFB2827:
	.loc 2 587 0
	.cfi_startproc
.LVL767:
	stwu 1,-32(1)
.LCFI220:
	.cfi_def_cfa_offset 32
	mflr 0
	stw 27,12(1)
.LBB2456:
	.loc 2 591 0
	lis 27,gameLocal@ha
	.cfi_offset 27, -20
	.cfi_register 65, 0
	la 27,gameLocal@l(27)
.LBE2456:
	.loc 2 587 0
	stw 29,20(1)
	stw 31,28(1)
	mr 29,4
	.cfi_offset 31, -4
	.cfi_offset 29, -12
	mr 31,3
.LBB2457:
	.loc 2 591 0
	mr 4,5
.LVL768:
	mr 3,27
.LVL769:
.LBE2457:
	.loc 2 587 0
	stw 28,16(1)
	stw 30,24(1)
	mr 28,5
	.cfi_offset 30, -8
	.cfi_offset 28, -16
	stw 0,36(1)
.LBB2458:
	.loc 2 591 0
	.cfi_offset 65, 4
	bl _ZNK11idGameLocal10FindEntityEPKc
.LVL770:
	.loc 2 592 0
	mr. 30,3
	beq- 0,.L414
	.loc 2 596 0
	mr 4,29
	mr 5,30
	li 6,0
	mr 3,31
.LVL771:
	bl _ZN4idAI16LaunchProjectileEPKcP8idEntityb
.LVL772:
	.loc 2 597 0
	bl _ZN8idThread12ReturnEntityEP8idEntity
.LBE2458:
	.loc 2 598 0
	lwz 0,36(1)
	lwz 27,12(1)
	mtlr 0
	lwz 28,16(1)
.LVL773:
	lwz 29,20(1)
.LVL774:
	lwz 30,24(1)
.LVL775:
	lwz 31,28(1)
.LVL776:
	addi 1,1,32
	.cfi_remember_state
.LCFI221:
	.cfi_def_cfa_offset 0
	.cfi_restore 31
	.cfi_restore 30
	.cfi_restore 29
	.cfi_restore 28
	.cfi_restore 27
	blr
.LVL777:
.L414:
.LCFI222:
	.cfi_restore_state
.LBB2459:
	.loc 2 593 0
	lis 4,.LC20@ha
	mr 3,27
.LVL778:
	mr 5,28
	la 4,.LC20@l(4)
	crxor 6,6,6
	bl _ZNK11idGameLocal7WarningEPKcz
	.loc 2 596 0
	mr 4,29
	mr 5,30
	li 6,0
	mr 3,31
	bl _ZN4idAI16LaunchProjectileEPKcP8idEntityb
	.loc 2 597 0
	bl _ZN8idThread12ReturnEntityEP8idEntity
.LBE2459:
	.loc 2 598 0
	lwz 0,36(1)
	lwz 27,12(1)
	mtlr 0
	lwz 28,16(1)
.LVL779:
	lwz 29,20(1)
.LVL780:
	lwz 30,24(1)
.LVL781:
	lwz 31,28(1)
.LVL782:
	addi 1,1,32
	.cfi_restore 27
	.cfi_restore 28
	.cfi_restore 29
	.cfi_restore 30
	.cfi_restore 31
.LCFI223:
	.cfi_def_cfa_offset 0
	blr
	.cfi_endproc
.LFE2827:
	.size	_ZN4idAI25Event_FireMissileAtTargetEPKcS1_, .-_ZN4idAI25Event_FireMissileAtTargetEPKcS1_
	.align 2
	.globl _ZN4idAI19Event_AttackMissileEPKc
	.type	_ZN4idAI19Event_AttackMissileEPKc, @function
_ZN4idAI19Event_AttackMissileEPKc:
.LFB2826:
	.loc 2 575 0
	.cfi_startproc
.LVL783:
	mflr 0
	stwu 1,-8(1)
.LCFI224:
	.cfi_def_cfa_offset 8
	.cfi_register 65, 0
.LBB2460:
.LBB2461:
.LBB2462:
	.loc 6 635 0
	lis 9,gameLocal@ha
	.loc 6 638 0
	li 5,0
	.loc 6 635 0
	la 9,gameLocal@l(9)
.LBE2462:
.LBE2461:
.LBE2460:
	.loc 2 575 0
	stw 0,12(1)
.LBB2465:
.LBB2464:
.LBB2463:
	.loc 6 634 0
	lwz 0,5120(3)
	.cfi_offset 65, 4
	rlwinm 11,0,0,20,31
.LVL784:
	.loc 6 635 0
	srawi 0,0,12
	addi 10,11,4228
	slwi 10,10,2
	add 10,9,10
	lwz 10,4(10)
	cmpw 7,10,0
	bne+ 7,.L416
	.loc 6 636 0
	addi 11,11,132
.LVL785:
	slwi 11,11,2
.LVL786:
	add 9,9,11
	lwz 5,4(9)
.L416:
.LBE2463:
.LBE2464:
	.loc 2 578 0
	li 6,1
	bl _ZN4idAI16LaunchProjectileEPKcP8idEntityb
.LVL787:
	.loc 2 579 0
	bl _ZN8idThread12ReturnEntityEP8idEntity
.LBE2465:
	.loc 2 580 0
	lwz 0,12(1)
	addi 1,1,8
.LCFI225:
	.cfi_def_cfa_offset 0
	mtlr 0
	blr
	.cfi_endproc
.LFE2826:
	.size	_ZN4idAI19Event_AttackMissileEPKc, .-_ZN4idAI19Event_AttackMissileEPKc
	.align 2
	.globl _ZN4idAI17Event_MuzzleFlashEPKc
	.type	_ZN4idAI17Event_MuzzleFlashEPKc, @function
_ZN4idAI17Event_MuzzleFlashEPKc:
.LFB2824:
	.loc 2 536 0
	.cfi_startproc
.LVL788:
	stwu 1,-64(1)
.LCFI226:
	.cfi_def_cfa_offset 64
	mflr 0
	stw 31,60(1)
.LBB2466:
	.loc 2 540 0
	addi 5,1,8
.LBE2466:
	.loc 2 536 0
	mr 31,3
	.cfi_offset 31, -4
	.cfi_register 65, 0
.LBB2467:
	.loc 2 540 0
	addi 6,1,20
.LBE2467:
	.loc 2 536 0
	stw 0,68(1)
.LBB2468:
	.loc 2 540 0
	.cfi_offset 65, 4
	bl _ZN4idAI9GetMuzzleEPKcR6idVec3R6idMat3
.LVL789:
	.loc 2 541 0
	mr 3,31
	addi 4,1,8
	bl _ZN4idAI20TriggerWeaponEffectsERK6idVec3
.LBE2468:
	.loc 2 542 0
	lwz 0,68(1)
	lwz 31,60(1)
.LVL790:
	mtlr 0
	addi 1,1,64
.LCFI227:
	.cfi_def_cfa_offset 0
	.cfi_restore 31
	blr
	.cfi_endproc
.LFE2824:
	.size	_ZN4idAI17Event_MuzzleFlashEPKc, .-_ZN4idAI17Event_MuzzleFlashEPKc
	.align 2
	.globl _ZN4idAI16Event_ClearEnemyEv
	.type	_ZN4idAI16Event_ClearEnemyEv, @function
_ZN4idAI16Event_ClearEnemyEv:
.LFB2823:
	.loc 2 527 0
	.cfi_startproc
.LVL791:
	mflr 0
	stwu 1,-8(1)
.LCFI228:
	.cfi_def_cfa_offset 8
	.cfi_register 65, 0
	stw 0,12(1)
	.loc 2 528 0
	.cfi_offset 65, 4
	bl _ZN4idAI10ClearEnemyEv
.LVL792:
	.loc 2 529 0
	lwz 0,12(1)
	addi 1,1,8
.LCFI229:
	.cfi_def_cfa_offset 0
	mtlr 0
	blr
	.cfi_endproc
.LFE2823:
	.size	_ZN4idAI16Event_ClearEnemyEv, .-_ZN4idAI16Event_ClearEnemyEv
	.align 2
	.globl _ZN4idAI15Event_FindEnemyEi
	.type	_ZN4idAI15Event_FindEnemyEi, @function
_ZN4idAI15Event_FindEnemyEi:
.LFB2814:
	.loc 2 321 0
	.cfi_startproc
.LVL793:
	stwu 1,-40(1)
.LCFI230:
	.cfi_def_cfa_offset 40
	mflr 0
	stw 28,24(1)
.LBB2469:
	.loc 2 326 0
	lis 28,gameLocal@ha
	.cfi_offset 28, -16
	.cfi_register 65, 0
.LBE2469:
	.loc 2 321 0
	stw 26,16(1)
.LBB2478:
	.loc 2 326 0
	la 28,gameLocal@l(28)
.LBE2478:
	.loc 2 321 0
	mr 26,3
	.cfi_offset 26, -24
	stw 25,12(1)
.LBB2479:
	.loc 2 326 0
	mr 3,28
.LVL794:
.LBE2479:
	.loc 2 321 0
	mr 25,4
	.cfi_offset 25, -28
.LBB2480:
	.loc 2 326 0
	mr 4,26
.LVL795:
.LBE2480:
	.loc 2 321 0
	stw 0,44(1)
	stw 27,20(1)
	stw 29,28(1)
	stw 30,32(1)
	stw 31,36(1)
.LBB2481:
	.loc 2 326 0
	.cfi_offset 31, -4
	.cfi_offset 30, -8
	.cfi_offset 29, -12
	.cfi_offset 27, -20
	.cfi_offset 65, 4
	bl _ZNK11idGameLocal11InPlayerPVSEP8idEntity
	cmpwi 7,3,0
	beq- 7,.L421
.LVL796:
	.loc 2 327 0 discriminator 1
	lwz 0,48(28)
	cmpwi 7,0,0
	ble- 7,.L421
	.loc 2 339 0
	cntlzw 25,25
.LVL797:
	.loc 2 327 0
	addi 29,28,528
	.loc 2 339 0
	srwi 25,25,5
	.loc 2 327 0
	li 30,0
.LBB2470:
	.loc 2 2707 0
	lis 27,_ZN7idActor4TypeE@ha
.LBE2470:
	.loc 2 339 0
	xori 25,25,1
.LVL798:
.L427:
	.loc 2 328 0
	lwzu 31,4(29)
.LVL799:
	.loc 2 330 0
	cmpwi 7,31,0
.LBB2476:
.LBB2471:
	.loc 8 340 0
	mr 3,31
.LBE2471:
.LBE2476:
	.loc 2 330 0
	beq- 7,.L424
.LVL800:
.LBB2477:
.LBB2474:
	.loc 8 340 0 discriminator 2
	lwz 9,0(31)
	lwz 0,0(9)
	mtctr 0
	bctrl
.LVL801:
.LBE2474:
	.loc 2 2707 0 discriminator 2
	la 9,_ZN7idActor4TypeE@l(27)
	lwz 0,56(3)
.LBB2475:
.LBB2472:
.LBB2473:
	.loc 8 311 0 discriminator 2
	lwz 11,56(9)
	cmpw 7,0,11
	blt- 7,.L424
	.loc 8 311 0 is_stmt 0
	lwz 9,60(9)
	cmpw 7,0,9
	bgt- 7,.L424
.LVL802:
.LBE2473:
.LBE2472:
.LBE2475:
.LBE2477:
	.loc 2 335 0 is_stmt 1
	lwz 0,188(31)
	mr 4,31
	mr 3,26
.LVL803:
	cmpwi 7,0,0
	ble- 7,.L424
	.loc 2 335 0 is_stmt 0 discriminator 2
	bl _ZN4idAI10ReactionToEPK8idEntity
	.loc 2 339 0 is_stmt 1 discriminator 2
	mr 4,31
	.loc 2 335 0 discriminator 2
	andi. 0,3,4
	.loc 2 339 0 discriminator 2
	mr 5,25
	mr 3,26
	.loc 2 335 0 discriminator 2
	beq- 0,.L424
	.loc 2 339 0
	bl _ZNK7idActor6CanSeeEP8idEntityb
	cmpwi 7,3,0
	bne- 7,.L433
.LVL804:
.L424:
	.loc 2 327 0
	lwz 0,48(28)
	addi 30,30,1
.LVL805:
	cmpw 7,0,30
	bgt+ 7,.L427
.LVL806:
.L421:
	.loc 2 346 0
	li 3,0
	bl _ZN8idThread12ReturnEntityEP8idEntity
.L420:
.LBE2481:
	.loc 2 347 0
	lwz 0,44(1)
	lwz 25,12(1)
	mtlr 0
	lwz 26,16(1)
.LVL807:
	lwz 27,20(1)
	lwz 28,24(1)
	lwz 29,28(1)
	lwz 30,32(1)
	lwz 31,36(1)
	addi 1,1,40
	.cfi_remember_state
.LCFI231:
	.cfi_def_cfa_offset 0
	.cfi_restore 31
	.cfi_restore 30
	.cfi_restore 29
	.cfi_restore 28
	.cfi_restore 27
	.cfi_restore 26
	.cfi_restore 25
	blr
.LVL808:
.L433:
.LCFI232:
	.cfi_restore_state
.LBB2482:
	.loc 2 340 0
	mr 3,31
	bl _ZN8idThread12ReturnEntityEP8idEntity
	.loc 2 341 0
	b .L420
.LBE2482:
	.cfi_endproc
.LFE2814:
	.size	_ZN4idAI15Event_FindEnemyEi, .-_ZN4idAI15Event_FindEnemyEi
	.align 2
	.globl _ZN4idAI28Event_FindEnemyInCombatNodesEv
	.type	_ZN4idAI28Event_FindEnemyInCombatNodesEv, @function
_ZN4idAI28Event_FindEnemyInCombatNodesEv:
.LFB2816:
	.loc 2 398 0
	.cfi_startproc
.LVL809:
	stwu 1,-48(1)
.LCFI233:
	.cfi_def_cfa_offset 48
	mflr 0
	stw 29,36(1)
.LBB2483:
	.loc 2 405 0
	lis 29,gameLocal@ha
	.cfi_offset 29, -12
	.cfi_register 65, 0
.LBE2483:
	.loc 2 398 0
	stw 30,40(1)
.LBB2500:
	.loc 2 405 0
	la 29,gameLocal@l(29)
.LBE2500:
	.loc 2 398 0
	mr 30,3
	.cfi_offset 30, -8
.LBB2501:
	.loc 2 405 0
	mr 3,29
.LVL810:
	mr 4,30
.LBE2501:
	.loc 2 398 0
	stw 0,52(1)
	stw 22,8(1)
	stw 23,12(1)
	stw 24,16(1)
	stw 25,20(1)
	stw 26,24(1)
	stw 27,28(1)
	stw 28,32(1)
	stw 31,44(1)
.LBB2502:
	.loc 2 405 0
	.cfi_offset 31, -4
	.cfi_offset 28, -16
	.cfi_offset 27, -20
	.cfi_offset 26, -24
	.cfi_offset 25, -28
	.cfi_offset 24, -32
	.cfi_offset 23, -36
	.cfi_offset 22, -40
	.cfi_offset 65, 4
	bl _ZNK11idGameLocal11InPlayerPVSEP8idEntity
	cmpwi 7,3,0
	beq- 7,.L463
.LVL811:
	.loc 2 411 0 discriminator 1
	lwz 0,48(29)
	.loc 2 408 0 discriminator 1
	addi 25,29,528
	.loc 2 411 0 discriminator 1
	li 26,0
	cmpwi 7,0,0
	ble- 7,.L437
.LBB2484:
	.loc 2 2707 0
	lis 23,_ZN7idActor4TypeE@ha
.LBE2484:
.LBB2489:
.LBB2490:
	.loc 6 635 0
	mr 24,29
.LBE2490:
.LBE2489:
.LBB2492:
	.loc 2 2707 0
	lis 27,_ZN12idCombatNode4TypeE@ha
.LVL812:
.L454:
.LBE2492:
	.loc 2 412 0
	lwzu 28,4(25)
.LVL813:
	.loc 2 414 0
	cmpwi 7,28,0
	beq- 7,.L441
.LVL814:
.LBB2497:
.LBB2485:
	.loc 8 340 0 discriminator 2
	lwz 9,0(28)
	mr 3,28
	lwz 0,0(9)
	mtctr 0
	bctrl
.LVL815:
.LBE2485:
	.loc 2 2707 0 discriminator 2
	la 9,_ZN7idActor4TypeE@l(23)
	lwz 0,56(3)
.LBB2488:
.LBB2486:
.LBB2487:
	.loc 8 311 0 discriminator 2
	lwz 11,56(9)
	cmpw 7,0,11
	blt- 7,.L441
	.loc 8 311 0 is_stmt 0
	lwz 9,60(9)
	cmpw 7,0,9
	bgt- 7,.L441
.LVL816:
.LBE2487:
.LBE2486:
.LBE2488:
.LBE2497:
	.loc 2 419 0 is_stmt 1
	lwz 0,188(28)
	cmpwi 7,0,0
	ble- 7,.L441
	.loc 2 419 0 is_stmt 0 discriminator 2
	mr 3,30
.LVL817:
	mr 4,28
	bl _ZN4idAI10ReactionToEPK8idEntity
	andi. 0,3,4
	beq- 0,.L441
.LVL818:
	.loc 2 423 0 is_stmt 1 discriminator 1
	lwz 10,172(30)
	li 31,0
	cmpwi 7,10,0
	bgt+ 7,.L455
	b .L441
.LVL819:
.L446:
	.loc 2 423 0 is_stmt 0
	addi 31,31,1
.LVL820:
	cmpw 7,10,31
	ble- 7,.L441
.LVL821:
.L455:
.LBB2498:
.LBB2491:
	.loc 6 634 0 is_stmt 1
	lwz 9,184(30)
	slwi 0,31,2
	lwzx 0,9,0
	rlwinm 9,0,0,20,31
.LVL822:
	.loc 6 635 0
	srawi 0,0,12
	addi 11,9,4228
	slwi 11,11,2
	add 11,29,11
	lwz 11,4(11)
	cmpw 7,11,0
	bne+ 7,.L446
	.loc 6 636 0
	addi 9,9,132
.LVL823:
	slwi 9,9,2
.LVL824:
	add 9,24,9
	lwz 22,4(9)
.LBE2491:
.LBE2498:
	.loc 2 425 0
	cmpwi 7,22,0
	beq- 7,.L446
.LVL825:
.LBB2499:
.LBB2493:
	.loc 8 340 0 discriminator 2
	lwz 9,0(22)
.LVL826:
	mr 3,22
	lwz 0,0(9)
	mtctr 0
	bctrl
.LVL827:
.LBE2493:
	.loc 2 2707 0 discriminator 2
	la 9,_ZN12idCombatNode4TypeE@l(27)
	lwz 0,56(3)
.LBB2496:
.LBB2494:
.LBB2495:
	.loc 8 311 0 discriminator 2
	lwz 11,56(9)
	cmpw 7,0,11
	blt- 7,.L462
	.loc 8 311 0 is_stmt 0
	lwz 9,60(9)
	cmpw 7,0,9
	bgt- 7,.L462
.LVL828:
.LBE2495:
.LBE2494:
.LBE2496:
.LBE2499:
	.loc 2 430 0 is_stmt 1
	mr 3,22
.LVL829:
	bl _ZNK12idCombatNode10IsDisabledEv
	cmpwi 7,3,0
	beq- 7,.L450
.LVL830:
.L462:
	lwz 10,172(30)
	.loc 2 423 0
	addi 31,31,1
.LVL831:
	cmpw 7,10,31
	bgt+ 7,.L455
.LVL832:
.L441:
	.loc 2 411 0
	lwz 0,48(29)
	addi 26,26,1
.LVL833:
	cmpw 7,0,26
	bgt+ 7,.L454
.LVL834:
.L437:
	.loc 2 437 0
	li 3,0
	bl _ZN8idThread12ReturnEntityEP8idEntity
.LBE2502:
	.loc 2 438 0
	lwz 0,52(1)
	lwz 22,8(1)
	mtlr 0
	lwz 23,12(1)
	lwz 24,16(1)
	lwz 25,20(1)
	lwz 26,24(1)
	lwz 27,28(1)
	lwz 28,32(1)
	lwz 29,36(1)
	lwz 30,40(1)
.LVL835:
	lwz 31,44(1)
	addi 1,1,48
	.cfi_remember_state
	.cfi_restore 22
	.cfi_restore 23
	.cfi_restore 24
	.cfi_restore 25
	.cfi_restore 26
	.cfi_restore 27
	.cfi_restore 28
	.cfi_restore 29
	.cfi_restore 30
	.cfi_restore 31
.LCFI234:
	.cfi_def_cfa_offset 0
	blr
.LVL836:
.L450:
.LCFI235:
	.cfi_restore_state
.LBB2503:
	.loc 2 430 0 discriminator 1
	mr 3,28
	bl _ZNK8idEntity10GetPhysicsEv
	li 4,0
	lwz 9,0(3)
	lwz 0,132(9)
	mtctr 0
	bctrl
	mr 4,28
	mr 5,3
	mr 3,22
	bl _ZN12idCombatNode12EntityInViewEP7idActorRK6idVec3
	cmpwi 7,3,0
	beq- 7,.L462
	.loc 2 431 0
	mr 3,28
.LVL837:
.L463:
	bl _ZN8idThread12ReturnEntityEP8idEntity
.LBE2503:
	.loc 2 438 0
	lwz 0,52(1)
	lwz 22,8(1)
	mtlr 0
	lwz 23,12(1)
	lwz 24,16(1)
	lwz 25,20(1)
	lwz 26,24(1)
	lwz 27,28(1)
	lwz 28,32(1)
	lwz 29,36(1)
	lwz 30,40(1)
.LVL838:
	lwz 31,44(1)
	addi 1,1,48
.LCFI236:
	.cfi_def_cfa_offset 0
	.cfi_restore 31
	.cfi_restore 30
	.cfi_restore 29
	.cfi_restore 28
	.cfi_restore 27
	.cfi_restore 26
	.cfi_restore 25
	.cfi_restore 24
	.cfi_restore 23
	.cfi_restore 22
	blr
	.cfi_endproc
.LFE2816:
	.size	_ZN4idAI28Event_FindEnemyInCombatNodesEv, .-_ZN4idAI28Event_FindEnemyInCombatNodesEv
	.align 2
	.globl _ZN4idAI16Event_HeardSoundEi
	.type	_ZN4idAI16Event_HeardSoundEi, @function
_ZN4idAI16Event_HeardSoundEi:
.LFB2821:
	.loc 2 491 0
	.cfi_startproc
.LVL839:
	stwu 1,-48(1)
.LCFI237:
	.cfi_def_cfa_offset 48
	mflr 0
	stw 31,20(1)
.LBB2504:
	.loc 2 493 0
	lis 31,gameLocal@ha
	.cfi_offset 31, -28
	.cfi_register 65, 0
	la 31,gameLocal@l(31)
.LBE2504:
	.loc 2 491 0
	stw 30,16(1)
	mr 30,3
	.cfi_offset 30, -32
.LBB2518:
	.loc 2 493 0
	mr 3,31
.LVL840:
.LBE2518:
	.loc 2 491 0
	stw 28,8(1)
	mr 28,4
	.cfi_offset 28, -40
	stw 29,12(1)
	stw 0,52(1)
	stfd 29,24(1)
	stfd 30,32(1)
	stfd 31,40(1)
.LBB2519:
	.loc 2 493 0
	.cfi_offset 63, -8
	.cfi_offset 62, -16
	.cfi_offset 61, -24
	.cfi_offset 65, 4
	.cfi_offset 29, -36
	bl _ZN11idGameLocal14GetAlertEntityEv
.LVL841:
.LBB2505:
	.loc 2 494 0
	mr. 29,3
	beq- 0,.L467
	.loc 2 494 0 is_stmt 0 discriminator 1
	cmpwi 7,28,0
	bne- 7,.L471
	.loc 2 494 0 discriminator 3
	mr 3,31
.LVL842:
	mr 4,30
	bl _ZNK11idGameLocal11InPlayerPVSEP8idEntity
	cmpwi 7,3,0
	bne- 7,.L472
.L467:
.LBE2505:
	.loc 2 504 0 is_stmt 1
	li 3,0
	bl _ZN8idThread12ReturnEntityEP8idEntity
.LBE2519:
	.loc 2 505 0
	lwz 0,52(1)
	lwz 28,8(1)
.LVL843:
	mtlr 0
	lwz 29,12(1)
.LVL844:
	lwz 30,16(1)
.LVL845:
	lwz 31,20(1)
	lfd 29,24(1)
	lfd 30,32(1)
	lfd 31,40(1)
	addi 1,1,48
	.cfi_remember_state
.LCFI238:
	.cfi_def_cfa_offset 0
	.cfi_restore 63
	.cfi_restore 62
	.cfi_restore 61
	.cfi_restore 31
	.cfi_restore 30
	.cfi_restore 29
	.cfi_restore 28
	blr
.LVL846:
.L471:
.LCFI239:
	.cfi_restore_state
.LBB2520:
.LBB2517:
	.loc 2 494 0 discriminator 4
	mr 3,30
.LVL847:
	mr 4,29
	bl _ZN4idAI10ReactionToEPK8idEntity
	andi. 0,3,4
	beq- 0,.L467
	.loc 2 494 0 is_stmt 0
	mr 3,31
	mr 4,30
	bl _ZNK11idGameLocal11InPlayerPVSEP8idEntity
	cmpwi 7,3,0
	beq- 7,.L467
.L472:
.LBB2506:
	.loc 2 495 0 is_stmt 1 discriminator 6
	mr 3,29
	bl _ZNK8idEntity10GetPhysicsEv
	li 4,0
	lwz 9,0(3)
	lwz 0,132(9)
	mtctr 0
	bctrl
	.loc 2 496 0 discriminator 6
	li 4,0
	.loc 2 495 0 discriminator 6
	mr 9,3
	.loc 2 496 0 discriminator 6
	addi 3,30,4216
	.loc 2 495 0 discriminator 6
	lfs 30,0(9)
.LVL848:
	lfs 29,4(9)
.LVL849:
	lfs 31,8(9)
.LVL850:
	.loc 2 496 0 discriminator 6
	bl _ZNK15idPhysics_Actor9GetOriginEi
.LVL851:
.LBB2507:
.LBB2508:
	.loc 3 431 0 discriminator 6
	lfs 13,4(3)
.LBE2508:
.LBE2507:
	.loc 2 498 0 discriminator 6
	lis 9,.LC21@ha
.LBB2512:
.LBB2509:
	.loc 3 431 0 discriminator 6
	lfs 0,0(3)
	fsubs 12,29,13
.LBE2509:
.LBE2512:
	.loc 2 498 0 discriminator 6
	lfs 11,.LC21@l(9)
.LBB2513:
.LBB2510:
	.loc 3 431 0 discriminator 6
	fsubs 13,30,0
	lfs 0,8(3)
.LBE2510:
.LBE2513:
.LBB2514:
.LBB2515:
	.loc 3 636 0 discriminator 6
	fmuls 12,12,12
.LBE2515:
.LBE2514:
.LBB2516:
.LBB2511:
	.loc 3 431 0 discriminator 6
	fsubs 0,31,0
.LVL852:
.LBE2511:
.LBE2516:
	.loc 3 636 0 discriminator 6
	fmadds 13,13,13,12
.LVL853:
	fmadds 0,0,0,13
.LVL854:
	.loc 2 498 0 discriminator 6
	fcmpu 7,0,11
	bnl+ 7,.L467
	.loc 2 499 0
	mr 3,29
.LVL855:
	bl _ZN8idThread12ReturnEntityEP8idEntity
.LBE2506:
.LBE2517:
.LBE2520:
	.loc 2 505 0
	lwz 0,52(1)
	lwz 28,8(1)
.LVL856:
	mtlr 0
	lwz 29,12(1)
.LVL857:
	lwz 30,16(1)
.LVL858:
	lwz 31,20(1)
	lfd 29,24(1)
.LVL859:
	lfd 30,32(1)
.LVL860:
	lfd 31,40(1)
.LVL861:
	addi 1,1,48
	.cfi_restore 28
	.cfi_restore 29
	.cfi_restore 30
	.cfi_restore 31
	.cfi_restore 61
	.cfi_restore 62
	.cfi_restore 63
.LCFI240:
	.cfi_def_cfa_offset 0
	blr
	.cfi_endproc
.LFE2821:
	.size	_ZN4idAI16Event_HeardSoundEi, .-_ZN4idAI16Event_HeardSoundEi
	.align 2
	.globl _ZN4idAI17Event_FindEnemyAIEi
	.type	_ZN4idAI17Event_FindEnemyAIEi, @function
_ZN4idAI17Event_FindEnemyAIEi:
.LFB2815:
	.loc 2 354 0
	.cfi_startproc
.LVL862:
	mflr 0
	stwu 1,-72(1)
.LCFI241:
	.cfi_def_cfa_offset 72
	.cfi_register 65, 0
	stfd 31,64(1)
	stw 0,76(1)
	stw 25,28(1)
.LBB2521:
.LBB2522:
.LBB2523:
	.loc 15 268 0
	li 25,0
	.cfi_offset 25, -44
	.cfi_offset 65, 4
	.cfi_offset 63, -8
.LBE2523:
.LBE2522:
.LBE2521:
	.loc 2 354 0
	stw 26,32(1)
	mr 26,4
	.cfi_offset 26, -40
	stw 27,36(1)
.LBB2542:
	.loc 2 363 0
	lis 27,gameLocal+2426068@ha
	.cfi_offset 27, -36
.LBE2542:
	.loc 2 354 0
	stw 28,40(1)
	mr 28,3
	.cfi_offset 28, -32
	stw 30,48(1)
.LBB2543:
	.loc 2 363 0
	la 27,gameLocal+2426068@l(27)
.LBE2543:
	.loc 2 354 0
	stw 31,52(1)
	stfd 30,56(1)
	stw 22,16(1)
	stw 23,20(1)
	stw 24,24(1)
	stw 29,44(1)
.LBB2544:
	.loc 2 363 0
	.cfi_offset 29, -28
	.cfi_offset 24, -48
	.cfi_offset 23, -52
	.cfi_offset 22, -56
	.cfi_offset 62, -16
	.cfi_offset 31, -20
	.cfi_offset 30, -24
	bl _ZN8idEntity11GetPVSAreasEv
.LVL863:
	mr 30,3
	mr 3,28
	bl _ZN8idEntity14GetNumPVSAreasEv
	mr 4,30
	mr 5,3
	li 6,0
	mr 3,27
	bl _ZNK5idPVS15SetupCurrentPVSEPKii9pvsType_t
	.loc 2 367 0
	lis 11,gameLocal@ha
	la 11,gameLocal@l(11)
	.loc 2 365 0
	lis 10,_ZN6idMath8INFINITYE@ha
	.loc 2 367 0
	addis 11,11,0x1
	.loc 2 363 0
	mr 31,4
.LVL864:
	.loc 2 367 0
	lwz 9,-32176(11)
	.loc 2 363 0
	mr 30,3
	.loc 2 365 0
	lfs 31,_ZN6idMath8INFINITYE@l(10)
.LVL865:
.LBB2526:
.LBB2524:
	.loc 15 268 0
	cmpwi 7,9,0
.LBE2524:
.LBE2526:
	.loc 2 367 0
	lwz 0,-32180(11)
.LBB2527:
.LBB2525:
	.loc 15 268 0
	beq- 7,.L474
	cmpw 7,0,9
	beq- 7,.L474
	.loc 15 271 0
	lwz 29,12(9)
.LVL866:
.LBE2525:
.LBE2527:
	.loc 2 367 0
	cmpwi 7,29,0
	beq- 7,.L474
	.loc 2 383 0
	cntlzw 23,26
	.loc 2 381 0
	addi 24,28,4216
	.loc 2 383 0
	srwi 23,23,5
.LBB2528:
	.loc 2 2707 0
	lis 26,_ZN7idActor4TypeE@ha
.LVL867:
.LBE2528:
	.loc 2 383 0
	xori 23,23,1
.LVL868:
.L481:
	.loc 2 368 0
	lwz 0,192(29)
	andis. 9,0,4096
	bne- 0,.L477
	.loc 2 368 0 is_stmt 0 discriminator 2
	andis. 9,0,64
	beq- 0,.L492
.LVL869:
.L477:
	.loc 2 2707 0 is_stmt 1
	lwz 9,32(29)
	lwz 0,28(29)
.LBB2533:
.LBB2534:
	.loc 15 268 0
	cmpwi 7,9,0
	beq- 7,.L474
	cmpw 7,0,9
	beq- 7,.L474
	.loc 15 271 0
	lwz 29,12(9)
.LVL870:
.LBE2534:
.LBE2533:
	.loc 2 367 0
	cmpwi 7,29,0
	bne+ 7,.L481
.LVL871:
.L474:
	.loc 2 389 0
	mr 3,27
	addi 4,1,8
	stw 30,8(1)
	stw 31,12(1)
	bl _ZNK5idPVS14FreeCurrentPVSE11pvsHandle_s
	.loc 2 390 0
	mr 3,25
	bl _ZN8idThread12ReturnEntityEP8idEntity
.LBE2544:
	.loc 2 391 0
	lwz 0,76(1)
	lwz 22,16(1)
	mtlr 0
	lwz 23,20(1)
	lwz 24,24(1)
	lwz 25,28(1)
	lwz 26,32(1)
	lwz 27,36(1)
	lwz 28,40(1)
.LVL872:
	lwz 29,44(1)
	lwz 30,48(1)
.LVL873:
	lwz 31,52(1)
	lfd 30,56(1)
	lfd 31,64(1)
.LVL874:
	addi 1,1,72
	.cfi_remember_state
.LCFI242:
	.cfi_def_cfa_offset 0
	.cfi_restore 63
	.cfi_restore 62
	.cfi_restore 31
	.cfi_restore 30
	.cfi_restore 29
	.cfi_restore 28
	.cfi_restore 27
	.cfi_restore 26
	.cfi_restore 25
	.cfi_restore 24
	.cfi_restore 23
	.cfi_restore 22
	blr
.LVL875:
.L492:
.LCFI243:
	.cfi_restore_state
.LBB2545:
.LBB2535:
.LBB2529:
	.loc 8 340 0 discriminator 3
	lwz 9,0(29)
	mr 3,29
	lwz 0,0(9)
	mtctr 0
	bctrl
.LVL876:
.LBE2529:
	.loc 2 2707 0 discriminator 3
	la 9,_ZN7idActor4TypeE@l(26)
	lwz 0,56(3)
.LBB2532:
.LBB2530:
.LBB2531:
	.loc 8 311 0 discriminator 3
	lwz 11,56(9)
	cmpw 7,0,11
	blt- 7,.L477
	.loc 8 311 0 is_stmt 0
	lwz 9,60(9)
	cmpw 7,0,9
	bgt- 7,.L477
.LVL877:
.LBE2531:
.LBE2530:
.LBE2532:
.LBE2535:
	.loc 2 373 0 is_stmt 1
	lwz 0,188(29)
	cmpwi 7,0,0
	ble- 7,.L477
	.loc 2 373 0 is_stmt 0 discriminator 2
	mr 3,28
.LVL878:
	mr 4,29
	bl _ZN4idAI10ReactionToEPK8idEntity
	andi. 0,3,4
	beq- 0,.L477
	.loc 2 377 0 is_stmt 1
	mr 3,29
	bl _ZN8idEntity11GetPVSAreasEv
	mr 22,3
	mr 3,29
	bl _ZN8idEntity14GetNumPVSAreasEv
	addi 4,1,8
	mr 6,3
	mr 5,22
	mr 3,27
	stw 30,8(1)
	stw 31,12(1)
	bl _ZNK5idPVS12InCurrentPVSE11pvsHandle_sPKii
	cmpwi 7,3,0
	beq+ 7,.L477
	.loc 2 381 0
	li 4,0
	mr 3,24
	bl _ZNK15idPhysics_Actor9GetOriginEi
	mr 22,3
	mr 3,29
	bl _ZNK8idEntity10GetPhysicsEv
	li 4,0
	lwz 9,0(3)
	lwz 0,132(9)
	mtctr 0
	bctrl
.LVL879:
.LBB2536:
.LBB2537:
	.loc 3 431 0
	lfs 12,4(22)
	lfs 0,4(3)
	lfs 13,0(22)
	fsubs 12,12,0
	lfs 0,0(3)
	lfs 11,8(22)
	fsubs 13,13,0
	lfs 0,8(3)
.LBE2537:
.LBE2536:
.LBB2539:
.LBB2540:
	.loc 3 636 0
	fmuls 12,12,12
.LBE2540:
.LBE2539:
.LBB2541:
.LBB2538:
	.loc 3 431 0
	fsubs 0,11,0
.LVL880:
	.loc 3 636 0
	fmadds 13,13,13,12
.LVL881:
	fmadds 30,0,0,13
.LBE2538:
.LBE2541:
	.loc 2 383 0
	fcmpu 7,31,30
	bng+ 7,.L477
	.loc 2 383 0 is_stmt 0 discriminator 1
	mr 3,28
.LVL882:
	mr 4,29
	mr 5,23
	bl _ZNK7idActor6CanSeeEP8idEntityb
.LVL883:
	cmpwi 7,3,0
	beq- 7,.L477
	.loc 2 384 0 is_stmt 1
	fmr 31,30
.LVL884:
	.loc 2 383 0
	mr 25,29
	b .L477
.LBE2545:
	.cfi_endproc
.LFE2815:
	.size	_ZN4idAI17Event_FindEnemyAIEi, .-_ZN4idAI17Event_FindEnemyAIEi
	.align 2
	.globl _ZN4idAI14Event_ActivateEP8idEntity
	.type	_ZN4idAI14Event_ActivateEP8idEntity, @function
_ZN4idAI14Event_ActivateEP8idEntity:
.LFB2812:
	.loc 2 300 0
	.cfi_startproc
.LVL885:
	mflr 0
	stwu 1,-8(1)
.LCFI244:
	.cfi_def_cfa_offset 8
	.cfi_register 65, 0
	stw 0,12(1)
	.loc 2 301 0
	.cfi_offset 65, 4
	bl _ZN4idAI8ActivateEP8idEntity
.LVL886:
	.loc 2 302 0
	lwz 0,12(1)
	addi 1,1,8
.LCFI245:
	.cfi_def_cfa_offset 0
	mtlr 0
	blr
	.cfi_endproc
.LFE2812:
	.size	_ZN4idAI14Event_ActivateEP8idEntity, .-_ZN4idAI14Event_ActivateEP8idEntity
	.align 2
	.globl _ZN4idAI11Event_TouchEP8idEntityP7trace_s
	.type	_ZN4idAI11Event_TouchEP8idEntityP7trace_s, @function
_ZN4idAI11Event_TouchEP8idEntityP7trace_s:
.LFB2813:
	.loc 2 309 0
	.cfi_startproc
.LVL887:
	mflr 0
	stwu 1,-16(1)
.LCFI246:
	.cfi_def_cfa_offset 16
	.cfi_register 65, 0
.LBB2546:
.LBB2547:
	.loc 6 635 0
	lis 9,gameLocal@ha
.LBE2547:
.LBE2546:
	.loc 2 309 0
	stw 30,8(1)
.LBB2551:
.LBB2548:
	.loc 6 635 0
	la 9,gameLocal@l(9)
.LBE2548:
.LBE2551:
	.loc 2 309 0
	stw 31,12(1)
	mr 30,4
	.cfi_offset 31, -4
	.cfi_offset 30, -8
	stw 0,20(1)
	.loc 2 309 0
	mr 31,3
.LVL888:
.LBB2552:
.LBB2549:
	.loc 6 634 0
	lwz 0,5120(3)
	.cfi_offset 65, 4
	rlwinm 11,0,0,20,31
.LVL889:
	.loc 6 635 0
	srawi 0,0,12
	addi 10,11,4228
	slwi 10,10,2
	add 10,9,10
	lwz 10,4(10)
	cmpw 7,10,0
	beq- 7,.L499
.LVL890:
.L495:
.LBE2549:
.LBE2552:
	.loc 2 310 0 discriminator 1
	lwz 0,192(30)
	cmpwi 7,0,0
	bge- 7,.L500
.LVL891:
.L498:
.LBB2553:
.LBB2554:
	.loc 5 237 0
	lwz 9,5248(31)
	cmpwi 7,9,0
	beq- 7,.L494
	.loc 5 238 0
	li 0,1
	stw 0,0(9)
.L494:
.LBE2554:
.LBE2553:
	.loc 2 314 0
	lwz 0,20(1)
	lwz 30,8(1)
.LVL892:
	mtlr 0
	lwz 31,12(1)
.LVL893:
	addi 1,1,16
	.cfi_remember_state
.LCFI247:
	.cfi_def_cfa_offset 0
	.cfi_restore 31
	.cfi_restore 30
	blr
.LVL894:
.L499:
.LCFI248:
	.cfi_restore_state
.LBB2555:
.LBB2550:
	.loc 6 636 0
	addi 11,11,132
.LVL895:
	slwi 11,11,2
.LVL896:
	add 9,9,11
.LBE2550:
.LBE2555:
	.loc 2 310 0
	lwz 0,4(9)
	cmpwi 7,0,0
	bne+ 7,.L498
	b .L495
.L500:
	.loc 2 310 0 is_stmt 0 discriminator 3
	mr 3,31
.LVL897:
	mr 4,30
.LVL898:
	bl _ZN4idAI10ReactionToEPK8idEntity
.LVL899:
	andi. 0,3,2
	beq- 0,.L498
	.loc 2 311 0 is_stmt 1 discriminator 5
	mr 3,31
	mr 4,30
	bl _ZN4idAI8ActivateEP8idEntity
	b .L498
	.cfi_endproc
.LFE2813:
	.size	_ZN4idAI11Event_TouchEP8idEntityP7trace_s, .-_ZN4idAI11Event_TouchEP8idEntityP7trace_s
	.align 2
	.globl _ZN4idAI14CreateInstanceEv
	.type	_ZN4idAI14CreateInstanceEv, @function
_ZN4idAI14CreateInstanceEv:
.LFB2810:
	.loc 2 164 0
	.cfi_startproc
	.cfi_personality 0,__gxx_personality_v0
	.cfi_lsda 0,.LLSDA2810
	mflr 0
	stwu 1,-24(1)
.LCFI249:
	.cfi_def_cfa_offset 24
	.cfi_register 65, 0
.LBB2556:
	li 3,5252
.LBE2556:
	stw 30,16(1)
	stw 0,28(1)
	stw 31,20(1)
.LEHB0:
.LBB2557:
	.loc 2 164 0
	.cfi_offset 31, -4
	.cfi_offset 65, 4
	.cfi_offset 30, -8
	bl _ZN7idClassnwEj
.LEHE0:
	mr 31,3
.LEHB1:
	bl _ZN4idAIC1Ev
.LEHE1:
.LVL900:
	.loc 2 164 0 is_stmt 0 discriminator 2
	mr 3,31
.LEHB2:
	bl _ZN7idClass23FindUninitializedMemoryEv
.LEHE2:
.LVL901:
.L506:
.LBE2557:
	.loc 2 164 0
	lwz 0,28(1)
	mr 3,31
	lwz 30,16(1)
	mtlr 0
	lwz 31,20(1)
	addi 1,1,24
	.cfi_remember_state
.LCFI250:
	.cfi_def_cfa_offset 0
	.cfi_restore 31
	.cfi_restore 30
	blr
.L507:
.L503:
.LCFI251:
	.cfi_restore_state
.LBB2558:
	cmpwi 7,4,1
	beq- 7,.L505
.LEHB3:
	bl _Unwind_Resume
.LEHE3:
.L508:
	mr 30,3
	mr 3,31
	stw 4,8(1)
	bl _ZN7idClassdlEPv
	mr 3,30
	lwz 4,8(1)
	b .L503
.L505:
.LBE2558:
.LBB2559:
	bl __cxa_begin_catch
	li 31,0
	bl __cxa_end_catch
	b .L506
.LBE2559:
	.cfi_endproc
.LFE2810:
	.globl __gxx_personality_v0
	.section	.gcc_except_table,"a",@progbits
	.align 2
.LLSDA2810:
	.byte	0xff
	.byte	0
	.uleb128 .LLSDATT2810-.LLSDATTD2810
.LLSDATTD2810:
	.byte	0x1
	.uleb128 .LLSDACSE2810-.LLSDACSB2810
.LLSDACSB2810:
	.uleb128 .LEHB0-.LFB2810
	.uleb128 .LEHE0-.LEHB0
	.uleb128 .L507-.LFB2810
	.uleb128 0x1
	.uleb128 .LEHB1-.LFB2810
	.uleb128 .LEHE1-.LEHB1
	.uleb128 .L508-.LFB2810
	.uleb128 0x3
	.uleb128 .LEHB2-.LFB2810
	.uleb128 .LEHE2-.LEHB2
	.uleb128 .L507-.LFB2810
	.uleb128 0x1
	.uleb128 .LEHB3-.LFB2810
	.uleb128 .LEHE3-.LEHB3
	.uleb128 0
	.uleb128 0
.LLSDACSE2810:
	.byte	0x1
	.byte	0
	.byte	0
	.byte	0x7d
	.align 2
	.long	_ZTI12idAllocError
.LLSDATT2810:
	.section	".text"
	.size	_ZN4idAI14CreateInstanceEv, .-_ZN4idAI14CreateInstanceEv
	.align 2
	.globl _ZN4idAI14Event_WaitMoveEv
	.type	_ZN4idAI14Event_WaitMoveEv, @function
_ZN4idAI14Event_WaitMoveEv:
.LFB2872:
	.loc 2 1194 0 is_stmt 1
	.cfi_startproc
.LVL902:
	stwu 1,-16(1)
.LCFI252:
	.cfi_def_cfa_offset 16
	mflr 0
	stw 31,12(1)
	.loc 2 1195 0
	lis 31,.LANCHOR0@ha
	.cfi_offset 31, -4
	.cfi_register 65, 0
	la 31,.LANCHOR0@l(31)
	.loc 2 1194 0
	stw 30,8(1)
	.loc 2 1195 0
	addi 31,31,208
	.loc 2 1194 0
	mr 30,3
	.cfi_offset 30, -8
	.loc 2 1195 0
	mr 4,31
	.loc 2 1194 0
	stw 0,20(1)
	.loc 2 1195 0
	.cfi_offset 65, 4
	bl _ZN8idThread20BeginMultiFrameEventEP8idEntityPK10idEventDef
.LVL903:
	.loc 2 1197 0
	mr 3,30
	bl _ZNK4idAI8MoveDoneEv
	cmpwi 7,3,0
	beq+ 7,.L509
.LVL904:
.LBB2562:
.LBB2563:
	.loc 2 1198 0
	mr 3,30
	mr 4,31
	bl _ZN8idThread18EndMultiFrameEventEP8idEntityPK10idEventDef
.LVL905:
.L509:
.LBE2563:
.LBE2562:
	.loc 2 1200 0
	lwz 0,20(1)
	lwz 30,8(1)
.LVL906:
	mtlr 0
	lwz 31,12(1)
	addi 1,1,16
.LCFI253:
	.cfi_def_cfa_offset 0
	.cfi_restore 31
	.cfi_restore 30
	blr
	.cfi_endproc
.LFE2872:
	.size	_ZN4idAI14Event_WaitMoveEv, .-_ZN4idAI14Event_WaitMoveEv
	.align 2
	.globl _ZN4idAI16Event_WaitActionEPKc
	.type	_ZN4idAI16Event_WaitActionEPKc, @function
_ZN4idAI16Event_WaitActionEPKc:
.LFB2869:
	.loc 2 1089 0
	.cfi_startproc
.LVL907:
	stwu 1,-24(1)
.LCFI254:
	.cfi_def_cfa_offset 24
	mflr 0
	stw 30,16(1)
	.loc 2 1090 0
	lis 30,.LANCHOR0@ha
	.cfi_offset 30, -8
	.cfi_register 65, 0
	la 30,.LANCHOR0@l(30)
	.loc 2 1089 0
	stw 29,12(1)
	.loc 2 1090 0
	addi 30,30,272
	.loc 2 1089 0
	mr 29,4
	.cfi_offset 29, -12
	.loc 2 1090 0
	mr 4,30
.LVL908:
	.loc 2 1089 0
	stw 31,20(1)
	stw 0,28(1)
	.loc 2 1089 0
	mr 31,3
	.cfi_offset 65, 4
	.cfi_offset 31, -4
	.loc 2 1090 0
	bl _ZN8idThread20BeginMultiFrameEventEP8idEntityPK10idEventDef
.LVL909:
	cmpwi 7,3,0
	bne- 7,.L514
	.loc 2 1094 0
	mr 3,31
	bl _ZNK7idActor9WaitStateEv
	cmpwi 7,3,0
	beq- 7,.L515
.L511:
	.loc 2 1097 0
	lwz 0,28(1)
	lwz 29,12(1)
.LVL910:
	mtlr 0
	lwz 30,16(1)
	lwz 31,20(1)
.LVL911:
	addi 1,1,24
	.cfi_remember_state
.LCFI255:
	.cfi_def_cfa_offset 0
	.cfi_restore 31
	.cfi_restore 30
	.cfi_restore 29
	blr
.LVL912:
.L514:
.LCFI256:
	.cfi_restore_state
	.loc 2 1091 0
	mr 3,31
	mr 4,29
	bl _ZN7idActor12SetWaitStateEPKc
	.loc 2 1094 0
	mr 3,31
	bl _ZNK7idActor9WaitStateEv
	cmpwi 7,3,0
	bne+ 7,.L511
.L515:
.LBB2566:
.LBB2567:
	.loc 2 1095 0
	mr 3,31
	mr 4,30
	bl _ZN8idThread18EndMultiFrameEventEP8idEntityPK10idEventDef
.LBE2567:
.LBE2566:
	.loc 2 1097 0
	lwz 0,28(1)
	lwz 29,12(1)
.LVL913:
	mtlr 0
	lwz 30,16(1)
	lwz 31,20(1)
.LVL914:
	addi 1,1,24
	.cfi_restore 29
	.cfi_restore 30
	.cfi_restore 31
.LCFI257:
	.cfi_def_cfa_offset 0
	blr
	.cfi_endproc
.LFE2869:
	.size	_ZN4idAI16Event_WaitActionEPKc, .-_ZN4idAI16Event_WaitActionEPKc
	.align 2
	.globl _ZN4idAI18Event_GetTurnDeltaEv
	.type	_ZN4idAI18Event_GetTurnDeltaEv, @function
_ZN4idAI18Event_GetTurnDeltaEv:
.LFB2906:
	.loc 2 1922 0
	.cfi_startproc
.LVL915:
.LBB2576:
	.loc 2 1925 0
	lis 9,.LC0@ha
	lfs 0,4196(3)
	lfs 1,.LC0@l(9)
.LBE2576:
	.loc 2 1922 0
	mflr 0
	stwu 1,-32(1)
.LCFI258:
	.cfi_def_cfa_offset 32
	.cfi_register 65, 0
.LBB2577:
	.loc 2 1925 0
	fcmpu 7,0,1
.LBE2577:
	.loc 2 1922 0
	stw 0,36(1)
	stfd 30,16(1)
	stfd 31,24(1)
	stw 31,12(1)
.LBB2578:
	.loc 2 1925 0
	bne- 7,.L525
	.cfi_offset 31, -20
	.cfi_offset 63, -8
	.cfi_offset 62, -16
	.cfi_offset 65, 4
	.loc 2 1929 0
	bl _ZN8idThread11ReturnFloatEf
.LVL916:
.LBE2578:
	.loc 2 1931 0
	lwz 0,36(1)
	lwz 31,12(1)
	mtlr 0
	lfd 30,16(1)
	lfd 31,24(1)
	addi 1,1,32
	.cfi_remember_state
.LCFI259:
	.cfi_def_cfa_offset 0
	.cfi_restore 63
	.cfi_restore 62
	.cfi_restore 31
	blr
.LVL917:
.L525:
.LCFI260:
	.cfi_restore_state
.LBB2579:
.LBB2580:
	.loc 2 1926 0
	lfs 0,4192(3)
.LBB2581:
.LBB2582:
.LBB2583:
.LBB2584:
	.loc 7 904 0
	lis 31,.LC22@ha
.LBE2584:
.LBE2583:
.LBE2582:
.LBE2581:
	.loc 2 1926 0
	lfs 31,4188(3)
	fsubs 31,31,0
.LVL918:
.LBB2591:
.LBB2589:
.LBB2587:
.LBB2585:
	.loc 7 904 0
	lfs 0,.LC22@l(31)
	fcmpu 7,31,0
	cror 30,29,30
	bne- 7,.L526
.L518:
	.loc 7 905 0
	lfs 30,.LC22@l(31)
	fdivs 1,31,30
	bl floor
.LVL919:
	fmr 0,31
	.loc 2 1922 0
	fneg 1,1
	.loc 7 905 0
	fmadd 31,1,30,0
.LVL920:
	frsp 31,31
.LVL921:
.L519:
.LBE2585:
.LBE2587:
	.loc 7 912 0
	lis 9,.LC24@ha
	lfs 0,.LC24@l(9)
	fcmpu 7,31,0
	bng- 7,.L521
	.loc 7 913 0
	lfs 0,.LC22@l(31)
	fsubs 31,31,0
.LVL922:
.L521:
.LBE2589:
.LBE2591:
	.loc 2 1927 0
	fmr 1,31
	bl _ZN8idThread11ReturnFloatEf
.LBE2580:
.LBE2579:
	.loc 2 1931 0
	lwz 0,36(1)
	lwz 31,12(1)
	mtlr 0
	lfd 30,16(1)
	lfd 31,24(1)
.LVL923:
	addi 1,1,32
	.cfi_remember_state
	.cfi_restore 31
	.cfi_restore 62
	.cfi_restore 63
.LCFI261:
	.cfi_def_cfa_offset 0
	blr
.LVL924:
.L526:
.LCFI262:
	.cfi_restore_state
.LBB2594:
.LBB2593:
.LBB2592:
.LBB2590:
.LBB2588:
.LBB2586:
	.loc 7 904 0
	fcmpu 7,31,1
	bnl- 7,.L519
	b .L518
.LBE2586:
.LBE2588:
.LBE2590:
.LBE2592:
.LBE2593:
.LBE2594:
	.cfi_endproc
.LFE2906:
	.size	_ZN4idAI18Event_GetTurnDeltaEv, .-_ZN4idAI18Event_GetTurnDeltaEv
	.align 2
	.globl _ZN4idAI14Event_SetEnemyEP8idEntity
	.type	_ZN4idAI14Event_SetEnemyEP8idEntity, @function
_ZN4idAI14Event_SetEnemyEP8idEntity:
.LFB2822:
	.loc 2 512 0
	.cfi_startproc
.LVL925:
	stwu 1,-16(1)
.LCFI263:
	.cfi_def_cfa_offset 16
	mflr 0
	stw 31,12(1)
	.loc 2 513 0
	mr. 31,4
	.cfi_offset 31, -4
	.cfi_register 65, 0
	.loc 2 512 0
	stw 30,8(1)
	mr 30,3
	.cfi_offset 30, -8
	stw 0,20(1)
	.loc 2 513 0
	beq- 0,.L531
	.cfi_offset 65, 4
.LVL926:
.LBB2607:
.LBB2608:
	.loc 8 340 0
	lwz 9,0(31)
	mr 3,31
.LVL927:
	lwz 0,0(9)
	mtctr 0
	bctrl
.LVL928:
.LBE2608:
	.loc 2 2707 0
	lis 9,_ZN7idActor4TypeE@ha
	la 9,_ZN7idActor4TypeE@l(9)
	lwz 0,56(3)
.LBB2611:
.LBB2609:
.LBB2610:
	.loc 8 311 0
	lwz 11,56(9)
	cmpw 7,0,11
	blt- 7,.L530
	lwz 9,60(9)
	cmpw 7,0,9
	bgt- 7,.L530
.LBE2610:
.LBE2609:
.LBE2611:
.LBE2607:
	.loc 2 518 0
	mr 3,30
.LVL929:
	mr 4,31
	bl _ZN4idAI8SetEnemyEP7idActor
	.loc 2 520 0
	lwz 0,20(1)
	lwz 30,8(1)
.LVL930:
	mtlr 0
	lwz 31,12(1)
.LVL931:
	addi 1,1,16
	.cfi_remember_state
	.cfi_restore 30
	.cfi_restore 31
.LCFI264:
	.cfi_def_cfa_offset 0
	blr
.LVL932:
.L530:
.LCFI265:
	.cfi_restore_state
.LBB2612:
.LBB2613:
	.loc 2 516 0
	lwz 5,72(31)
	lis 3,gameLocal@ha
.LVL933:
	lis 4,.LC25@ha
	la 3,gameLocal@l(3)
	la 4,.LC25@l(4)
	crxor 6,6,6
	bl _ZNK11idGameLocal5ErrorEPKcz
.LBE2613:
.LBE2612:
	.loc 2 520 0
	lwz 0,20(1)
	lwz 30,8(1)
.LVL934:
	mtlr 0
	lwz 31,12(1)
.LVL935:
	addi 1,1,16
	.cfi_remember_state
.LCFI266:
	.cfi_def_cfa_offset 0
	.cfi_restore 31
	.cfi_restore 30
	blr
.LVL936:
.L531:
.LCFI267:
	.cfi_restore_state
	.loc 2 514 0
	bl _ZN4idAI10ClearEnemyEv
.LVL937:
	.loc 2 520 0
	lwz 0,20(1)
	lwz 30,8(1)
.LVL938:
	mtlr 0
	lwz 31,12(1)
.LVL939:
	addi 1,1,16
	.cfi_restore 30
	.cfi_restore 31
.LCFI268:
	.cfi_def_cfa_offset 0
	blr
	.cfi_endproc
.LFE2822:
	.size	_ZN4idAI14Event_SetEnemyEP8idEntity, .-_ZN4idAI14Event_SetEnemyEP8idEntity
	.align 2
	.globl _ZN4idAI15Event_SetHealthEf
	.type	_ZN4idAI15Event_SetHealthEf, @function
_ZN4idAI15Event_SetHealthEf:
.LFB2847:
	.loc 2 860 0
	.cfi_startproc
.LVL940:
	stwu 1,-16(1)
.LCFI269:
	.cfi_def_cfa_offset 16
	.loc 2 861 0
	fctiwz 1,1
.LVL941:
	.loc 2 862 0
	li 11,1
	.loc 2 861 0
	addi 9,1,8
	stfiwx 1,0,9
	lwz 9,8(1)
	.loc 2 862 0
	lwz 0,192(3)
	.loc 2 863 0
	cmpwi 7,9,0
	.loc 2 861 0
	stw 9,188(3)
	.loc 2 862 0
	rlwimi 0,11,29,2,2
.LBB2622:
.LBB2623:
	.loc 5 237 0
	lwz 9,5192(3)
.LBE2623:
.LBE2622:
	.loc 2 862 0
	stw 0,192(3)
	.loc 2 863 0
	ble- 7,.L533
.LVL942:
.LBB2625:
.LBB2624:
	.loc 5 237 0
	cmpwi 7,9,0
	beq- 7,.L532
	.loc 5 238 0
	li 0,0
	stw 0,0(9)
.LVL943:
.L532:
.LBE2624:
.LBE2625:
	.loc 2 868 0
	addi 1,1,16
	.cfi_remember_state
.LCFI270:
	.cfi_def_cfa_offset 0
	blr
.L533:
.LCFI271:
	.cfi_restore_state
.LBB2626:
.LBB2627:
.LBB2628:
.LBB2629:
	.loc 5 237 0
	cmpwi 7,9,0
	beq- 7,.L532
	.loc 5 238 0
	stw 11,0(9)
.LBE2629:
.LBE2628:
.LBE2627:
.LBE2626:
	.loc 2 868 0
	addi 1,1,16
.LCFI272:
	.cfi_def_cfa_offset 0
	blr
	.cfi_endproc
.LFE2847:
	.size	_ZN4idAI15Event_SetHealthEf, .-_ZN4idAI15Event_SetHealthEf
	.align 2
	.globl _ZN4idAI24Event_SetSmokeVisibilityEii
	.type	_ZN4idAI24Event_SetSmokeVisibilityEii, @function
_ZN4idAI24Event_SetSmokeVisibilityEii:
.LFB2903:
	.loc 2 1868 0
	.cfi_startproc
.LVL944:
	mflr 0
	stwu 1,-24(1)
.LCFI273:
	.cfi_def_cfa_offset 24
	.cfi_register 65, 0
	stw 30,16(1)
	mr 30,3
	.cfi_offset 30, -8
	stw 31,20(1)
	mr 31,4
	.cfi_offset 31, -4
	stw 0,28(1)
	stw 29,12(1)
.LBB2642:
	.loc 2 2707 0
	lwz 6,4848(3)
	.loc 2 1872 0
	cmpw 7,6,4
	ble- 7,.L547
	.cfi_offset 29, -12
	.cfi_offset 65, 4
	.loc 2 1877 0
	cmpwi 7,5,0
	.loc 2 1881 0
	li 29,0
	.loc 2 1877 0
	bne- 7,.L548
.LVL945:
	.loc 2 1884 0
	cmpwi 7,31,0
	blt- 7,.L549
.LVL946:
.L539:
	.loc 2 1885 0
	lwz 0,4860(30)
	mulli 31,31,12
.LVL947:
	add 31,0,31
	stw 29,4(31)
.L541:
	.loc 2 1892 0
	mr 3,30
	bl _ZN8idEntity13UpdateVisualsEv
.LBE2642:
	.loc 2 1893 0
	lwz 0,28(1)
	lwz 29,12(1)
.LVL948:
	mtlr 0
	lwz 30,16(1)
.LVL949:
	lwz 31,20(1)
	addi 1,1,24
	.cfi_remember_state
.LCFI274:
	.cfi_def_cfa_offset 0
	.cfi_restore 31
	.cfi_restore 30
	.cfi_restore 29
	blr
.LVL950:
.L548:
.LCFI275:
	.cfi_restore_state
.LBB2643:
	.loc 2 1878 0
	lis 9,gameLocal+2426836@ha
	.loc 2 1879 0
	li 4,16
.LVL951:
	.loc 2 1878 0
	lwz 29,gameLocal+2426836@l(9)
.LVL952:
	.loc 2 1879 0
	bl _ZN8idEntity12BecomeActiveEi
.LVL953:
	.loc 2 1884 0
	cmpwi 7,31,0
	bge+ 7,.L539
.L549:
.LVL954:
	.loc 2 1887 0 discriminator 1
	lwz 0,4848(30)
	li 11,0
	li 9,0
	cmpwi 7,0,0
	ble- 7,.L541
.LVL955:
.L544:
	.loc 2 1888 0 discriminator 2
	lwz 10,4860(30)
	.loc 2 1887 0 discriminator 2
	addi 9,9,1
.LVL956:
	.loc 2 1888 0 discriminator 2
	add 10,10,11
	.loc 2 1887 0 discriminator 2
	addi 11,11,12
	.loc 2 1888 0 discriminator 2
	stw 29,4(10)
	.loc 2 1887 0 discriminator 2
	lwz 0,4848(30)
	cmpw 7,0,9
	ble- 7,.L541
.LVL957:
	.loc 2 1888 0
	lwz 10,4860(30)
	.loc 2 1887 0
	addi 9,9,1
.LVL958:
	.loc 2 1888 0
	add 10,10,11
	.loc 2 1887 0
	addi 11,11,12
	.loc 2 1888 0
	stw 29,4(10)
	.loc 2 1887 0
	lwz 0,4848(30)
	cmpw 7,0,9
	bgt+ 7,.L544
	b .L541
.LVL959:
.L547:
.LBE2643:
.LBB2644:
.LBB2645:
.LBB2646:
	.loc 2 1873 0
	lwz 7,72(3)
	lis 4,.LC26@ha
	lis 3,gameLocal@ha
	mr 5,31
.LVL960:
	la 3,gameLocal@l(3)
	la 4,.LC26@l(4)
	crxor 6,6,6
	bl _ZNK11idGameLocal7WarningEPKcz
.LBE2646:
.LBE2645:
.LBE2644:
	.loc 2 1893 0
	lwz 0,28(1)
	lwz 29,12(1)
	mtlr 0
	lwz 30,16(1)
.LVL961:
	lwz 31,20(1)
.LVL962:
	addi 1,1,24
	.cfi_restore 29
	.cfi_restore 30
	.cfi_restore 31
.LCFI276:
	.cfi_def_cfa_offset 0
	blr
	.cfi_endproc
.LFE2903:
	.size	_ZN4idAI24Event_SetSmokeVisibilityEii, .-_ZN4idAI24Event_SetSmokeVisibilityEii
	.align 2
	.type	_Z41__static_initialization_and_destruction_0ii.constprop.38, @function
_Z41__static_initialization_and_destruction_0ii.constprop.38:
.LFB3290:
	.loc 2 2707 0
	.cfi_startproc
.LVL963:
	cmpwi 7,3,1
	mflr 0
	stwu 1,-72(1)
.LCFI277:
	.cfi_def_cfa_offset 72
	.cfi_register 65, 0
	stw 0,76(1)
	stw 23,36(1)
	stw 24,40(1)
	stw 25,44(1)
	stw 26,48(1)
	stw 27,52(1)
	stw 28,56(1)
	stw 29,60(1)
	stw 30,64(1)
	stw 31,68(1)
	.loc 2 2707 0
	beq- 7,.L553
	.cfi_offset 31, -4
	.cfi_offset 30, -8
	.cfi_offset 29, -12
	.cfi_offset 28, -16
	.cfi_offset 27, -20
	.cfi_offset 26, -24
	.cfi_offset 25, -28
	.cfi_offset 24, -32
	.cfi_offset 23, -36
	.cfi_offset 65, 4
	.loc 2 164 0
	cmpwi 7,3,0
	bne- 7,.L550
	lis 3,.LANCHOR0@ha
.LVL964:
	la 3,.LANCHOR0@l(3)
	bl _ZN10idTypeInfoD1Ev
.L550:
	.loc 2 2707 0
	lwz 0,76(1)
	lwz 23,36(1)
	mtlr 0
	lwz 24,40(1)
	lwz 25,44(1)
	lwz 26,48(1)
	lwz 27,52(1)
	lwz 28,56(1)
	lwz 29,60(1)
	lwz 30,64(1)
	lwz 31,68(1)
	addi 1,1,72
	.cfi_remember_state
.LCFI278:
	.cfi_def_cfa_offset 0
	.cfi_restore 31
	.cfi_restore 30
	.cfi_restore 29
	.cfi_restore 28
	.cfi_restore 27
	.cfi_restore 26
	.cfi_restore 25
	.cfi_restore 24
	.cfi_restore 23
	blr
.LVL965:
.L553:
.LCFI279:
	.cfi_restore_state
	.loc 6 694 0
	lis 9,_ZN6idMath8M_SEC2MSE@ha
	.loc 6 121 0
	lis 31,.LANCHOR0@ha
	.loc 6 694 0
	lfs 0,_ZN6idMath8M_SEC2MSE@l(9)
	.loc 6 121 0
	la 31,.LANCHOR0@l(31)
	li 11,3
.LBB2647:
.LBB2648:
	.loc 3 396 0
	li 0,0
.LBE2648:
.LBE2647:
	.loc 6 694 0
	fadds 0,0,0
	.loc 6 121 0
	stw 11,336(31)
.LVL966:
.LBB2652:
.LBB2649:
	.loc 3 398 0
	lis 11,.LC27@ha
	.loc 3 396 0
	stw 0,340(31)
	.loc 3 397 0
	stw 0,344(31)
.LBE2649:
.LBE2652:
.LBB2653:
.LBB2654:
	.loc 7 825 0
	addi 9,31,352
.LBE2654:
.LBE2653:
.LBB2657:
.LBB2650:
	.loc 3 398 0
	lwz 0,.LC27@l(11)
.LBE2650:
.LBE2657:
.LBB2658:
.LBB2655:
	.loc 7 825 0
	fctiwz 0,0
.LBE2655:
.LBE2658:
	.loc 2 40 0
	lis 29,.LC29@ha
	lis 4,.LC28@ha
.LBB2659:
.LBB2651:
	.loc 3 398 0
	stw 0,348(31)
.LVL967:
.LBE2651:
.LBE2659:
	.file 16 "d:/Data/Nintendo/DoomGX/src/game/ai/../Player.h"
	.loc 16 69 0
	li 0,10
	stw 0,356(31)
	.loc 2 40 0
	la 29,.LC29@l(29)
.LBB2660:
.LBB2656:
	.loc 7 825 0
	stfiwx 0,0,9
.LVL968:
.LBE2656:
.LBE2660:
	.loc 2 40 0
	addi 3,31,360
.LVL969:
	mr 5,29
	la 4,.LC28@l(4)
	li 6,101
	.loc 2 43 0
	lis 27,.LC33@ha
	.loc 2 40 0
	bl _ZN10idEventDefC1EPKcS1_c
	.loc 2 41 0
	lis 4,.LC30@ha
	addi 3,31,424
	mr 5,29
	la 4,.LC30@l(4)
	li 6,101
	bl _ZN10idEventDefC1EPKcS1_c
	.loc 2 42 0
	lis 4,.LC31@ha
	addi 3,31,488
	la 4,.LC31@l(4)
	li 5,0
	li 6,101
	.loc 2 43 0
	la 27,.LC33@l(27)
	.loc 2 42 0
	bl _ZN10idEventDefC1EPKcS1_c
	.loc 2 43 0
	lis 4,.LC32@ha
	addi 3,31,552
	mr 5,27
	la 4,.LC32@l(4)
	li 6,101
	.loc 2 47 0
	lis 30,.LC38@ha
	.loc 2 43 0
	bl _ZN10idEventDefC1EPKcS1_c
	.loc 2 44 0
	lis 4,.LC34@ha
	addi 3,31,616
	mr 5,29
	la 4,.LC34@l(4)
	li 6,101
	bl _ZN10idEventDefC1EPKcS1_c
	.loc 2 45 0
	lis 4,.LC35@ha
	addi 3,31,680
	mr 5,27
	la 4,.LC35@l(4)
	li 6,0
	bl _ZN10idEventDefC1EPKcS1_c
	.loc 2 46 0
	lis 4,.LC36@ha
	addi 3,31,744
	la 4,.LC36@l(4)
	li 5,0
	li 6,0
	.loc 2 47 0
	la 30,.LC38@l(30)
	.loc 2 46 0
	bl _ZN10idEventDefC1EPKcS1_c
	.loc 2 47 0
	lis 4,.LC37@ha
	addi 3,31,808
	mr 5,30
	la 4,.LC37@l(4)
	li 6,0
	.loc 2 50 0
	lis 28,.LC42@ha
	.loc 2 47 0
	bl _ZN10idEventDefC1EPKcS1_c
	.loc 2 48 0
	lis 4,.LC39@ha
	addi 3,31,872
	mr 5,30
	la 4,.LC39@l(4)
	li 6,101
	bl _ZN10idEventDefC1EPKcS1_c
	.loc 2 49 0
	lis 4,.LC40@ha
	addi 3,31,936
	mr 5,30
	la 4,.LC40@l(4)
	li 6,101
	bl _ZN10idEventDefC1EPKcS1_c
	.loc 2 50 0
	la 28,.LC42@l(28)
	lis 4,.LC41@ha
	addi 3,31,1000
	mr 5,28
	la 4,.LC41@l(4)
	li 6,101
	.loc 2 51 0
	lis 24,.LC44@ha
	.loc 2 50 0
	bl _ZN10idEventDefC1EPKcS1_c
	.loc 2 51 0
	la 24,.LC44@l(24)
	lis 4,.LC43@ha
	addi 3,31,1064
	mr 5,24
	la 4,.LC43@l(4)
	li 6,101
	.loc 2 53 0
	lis 25,.LC47@ha
	.loc 2 51 0
	bl _ZN10idEventDefC1EPKcS1_c
	.loc 2 52 0
	lis 4,.LC45@ha
	addi 3,31,1128
	mr 5,30
	la 4,.LC45@l(4)
	li 6,100
	bl _ZN10idEventDefC1EPKcS1_c
	.loc 2 53 0
	la 25,.LC47@l(25)
	lis 4,.LC46@ha
	addi 3,31,1192
	mr 5,25
	la 4,.LC46@l(4)
	li 6,0
	.loc 2 69 0
	lis 26,.LC65@ha
	.loc 2 53 0
	bl _ZN10idEventDefC1EPKcS1_c
	.loc 2 54 0
	lis 4,.LC48@ha
	addi 3,31,1256
	mr 5,28
	la 4,.LC48@l(4)
	li 6,0
	bl _ZN10idEventDefC1EPKcS1_c
	.loc 2 55 0
	lis 4,.LC49@ha
	addi 3,31,1320
	mr 5,30
	la 4,.LC49@l(4)
	li 6,0
	bl _ZN10idEventDefC1EPKcS1_c
	.loc 2 56 0
	lis 4,.LC50@ha
	addi 3,31,1384
	la 4,.LC50@l(4)
	li 5,0
	li 6,0
	bl _ZN10idEventDefC1EPKcS1_c
	.loc 2 57 0
	lis 4,.LC51@ha
	addi 3,31,1448
	mr 5,28
	la 4,.LC51@l(4)
	li 6,100
	bl _ZN10idEventDefC1EPKcS1_c
	.loc 2 58 0
	lis 4,.LC52@ha
	addi 3,31,1512
	la 4,.LC52@l(4)
	li 5,0
	li 6,101
	bl _ZN10idEventDefC1EPKcS1_c
	.loc 2 59 0
	lis 4,.LC53@ha
	addi 3,31,1576
	la 4,.LC53@l(4)
	li 5,0
	li 6,102
	bl _ZN10idEventDefC1EPKcS1_c
	.loc 2 60 0
	lis 4,.LC54@ha
	addi 3,31,1640
	la 4,.LC54@l(4)
	li 5,0
	li 6,0
	bl _ZN10idEventDefC1EPKcS1_c
	.loc 2 61 0
	lis 4,.LC55@ha
	addi 3,31,1704
	la 4,.LC55@l(4)
	li 5,0
	li 6,100
	bl _ZN10idEventDefC1EPKcS1_c
	.loc 2 62 0
	lis 4,.LC56@ha
	addi 3,31,1768
	la 4,.LC56@l(4)
	li 5,0
	li 6,0
	.loc 2 63 0
	lis 28,.LC58@ha
	.loc 2 62 0
	bl _ZN10idEventDefC1EPKcS1_c
	.loc 2 63 0
	la 28,.LC58@l(28)
	lis 4,.LC57@ha
	addi 3,31,1832
	mr 5,28
	la 4,.LC57@l(4)
	li 6,0
	bl _ZN10idEventDefC1EPKcS1_c
	.loc 2 64 0
	lis 4,.LC59@ha
	addi 3,31,1896
	la 4,.LC59@l(4)
	li 5,0
	li 6,102
	bl _ZN10idEventDefC1EPKcS1_c
	.loc 2 65 0
	lis 4,.LC60@ha
	addi 3,31,1960
	la 4,.LC60@l(4)
	li 5,0
	li 6,0
	bl _ZN10idEventDefC1EPKcS1_c
	.loc 2 66 0
	lis 4,.LC61@ha
	addi 3,31,2024
	la 4,.LC61@l(4)
	li 5,0
	li 6,0
	bl _ZN10idEventDefC1EPKcS1_c
	.loc 2 67 0
	lis 4,.LC62@ha
	addi 3,31,2088
	la 4,.LC62@l(4)
	li 5,0
	li 6,102
	bl _ZN10idEventDefC1EPKcS1_c
	.loc 2 68 0
	lis 4,.LC63@ha
	addi 3,31,2152
	mr 5,28
	la 4,.LC63@l(4)
	li 6,0
	bl _ZN10idEventDefC1EPKcS1_c
	.loc 2 69 0
	la 26,.LC65@l(26)
	lis 4,.LC64@ha
	addi 3,31,2216
	mr 5,26
	la 4,.LC64@l(4)
	li 6,0
	.loc 2 141 0
	lis 23,.LC145@ha
	.loc 2 69 0
	bl _ZN10idEventDefC1EPKcS1_c
	.loc 2 70 0
	lis 4,.LC66@ha
	addi 3,31,2280
	mr 5,27
	la 4,.LC66@l(4)
	li 6,0
	bl _ZN10idEventDefC1EPKcS1_c
	.loc 2 71 0
	lis 4,.LC67@ha
	addi 3,31,2344
	la 4,.LC67@l(4)
	li 5,0
	li 6,100
	bl _ZN10idEventDefC1EPKcS1_c
	.loc 2 72 0
	lis 4,.LC68@ha
	addi 3,31,2408
	la 4,.LC68@l(4)
	li 5,0
	li 6,0
	bl _ZN10idEventDefC1EPKcS1_c
	.loc 2 73 0
	lis 4,.LC69@ha
	addi 3,31,2472
	la 4,.LC69@l(4)
	li 5,0
	li 6,0
	bl _ZN10idEventDefC1EPKcS1_c
	.loc 2 74 0
	lis 4,.LC70@ha
	addi 3,31,2536
	la 4,.LC70@l(4)
	li 5,0
	li 6,0
	bl _ZN10idEventDefC1EPKcS1_c
	.loc 2 75 0
	lis 4,.LC71@ha
	addi 3,31,2600
	la 4,.LC71@l(4)
	li 5,0
	li 6,0
	bl _ZN10idEventDefC1EPKcS1_c
	.loc 2 76 0
	lis 4,.LC72@ha
	lis 5,.LC73@ha
	addi 3,31,2664
	la 4,.LC72@l(4)
	la 5,.LC73@l(5)
	li 6,0
	.loc 2 141 0
	la 23,.LC145@l(23)
	.loc 2 76 0
	bl _ZN10idEventDefC1EPKcS1_c
	.loc 2 77 0
	lis 4,.LC74@ha
	addi 3,31,2728
	mr 5,25
	la 4,.LC74@l(4)
	li 6,0
	bl _ZN10idEventDefC1EPKcS1_c
	.loc 2 78 0
	lis 4,.LC75@ha
	addi 3,31,2792
	la 4,.LC75@l(4)
	li 5,0
	li 6,0
	.loc 2 79 0
	lis 25,.LC77@ha
	.loc 2 78 0
	bl _ZN10idEventDefC1EPKcS1_c
	.loc 2 79 0
	la 25,.LC77@l(25)
	lis 4,.LC76@ha
	addi 3,31,2856
	mr 5,25
	la 4,.LC76@l(4)
	li 6,0
	bl _ZN10idEventDefC1EPKcS1_c
	.loc 2 80 0
	lis 4,.LC78@ha
	addi 3,31,2920
	mr 5,26
	la 4,.LC78@l(4)
	li 6,0
	bl _ZN10idEventDefC1EPKcS1_c
	.loc 2 81 0
	lis 4,.LC79@ha
	lis 5,.LC80@ha
	addi 3,31,2984
	la 4,.LC79@l(4)
	la 5,.LC80@l(5)
	li 6,0
	bl _ZN10idEventDefC1EPKcS1_c
	.loc 2 82 0
	lis 4,.LC81@ha
	addi 3,31,3048
	la 4,.LC81@l(4)
	li 5,0
	li 6,100
	bl _ZN10idEventDefC1EPKcS1_c
	.loc 2 83 0
	lis 4,.LC82@ha
	addi 3,31,3112
	la 4,.LC82@l(4)
	li 5,0
	li 6,0
	bl _ZN10idEventDefC1EPKcS1_c
	.loc 2 84 0
	lis 4,.LC83@ha
	addi 3,31,3176
	mr 5,27
	la 4,.LC83@l(4)
	li 6,0
	bl _ZN10idEventDefC1EPKcS1_c
	.loc 2 85 0
	lis 4,.LC84@ha
	addi 3,31,3240
	la 4,.LC84@l(4)
	li 5,0
	li 6,101
	bl _ZN10idEventDefC1EPKcS1_c
	.loc 2 86 0
	lis 4,.LC85@ha
	lis 5,.LC86@ha
	addi 3,31,3304
	la 4,.LC85@l(4)
	la 5,.LC86@l(5)
	li 6,100
	bl _ZN10idEventDefC1EPKcS1_c
	.loc 2 87 0
	lis 4,.LC87@ha
	addi 3,31,208
	la 4,.LC87@l(4)
	li 5,0
	li 6,0
	bl _ZN10idEventDefC1EPKcS1_c
	.loc 2 88 0
	lis 4,.LC88@ha
	lis 5,.LC89@ha
	addi 3,31,3368
	la 4,.LC88@l(4)
	la 5,.LC89@l(5)
	li 6,118
	bl _ZN10idEventDefC1EPKcS1_c
	.loc 2 89 0
	lis 4,.LC90@ha
	addi 3,31,3432
	mr 5,27
	la 4,.LC90@l(4)
	li 6,100
	bl _ZN10idEventDefC1EPKcS1_c
	.loc 2 90 0
	lis 4,.LC91@ha
	addi 3,31,3496
	mr 5,27
	la 4,.LC91@l(4)
	li 6,100
	bl _ZN10idEventDefC1EPKcS1_c
	.loc 2 91 0
	lis 4,.LC92@ha
	addi 3,31,3560
	mr 5,27
	la 4,.LC92@l(4)
	li 6,0
	bl _ZN10idEventDefC1EPKcS1_c
	.loc 2 92 0
	lis 4,.LC93@ha
	addi 3,31,3624
	la 4,.LC93@l(4)
	li 5,0
	li 6,101
	bl _ZN10idEventDefC1EPKcS1_c
	.loc 2 93 0
	lis 4,.LC94@ha
	addi 3,31,3688
	mr 5,29
	la 4,.LC94@l(4)
	li 6,0
	bl _ZN10idEventDefC1EPKcS1_c
	.loc 2 94 0
	lis 4,.LC95@ha
	addi 3,31,3752
	la 4,.LC95@l(4)
	li 5,0
	li 6,102
	bl _ZN10idEventDefC1EPKcS1_c
	.loc 2 95 0
	lis 4,.LC96@ha
	addi 3,31,3816
	la 4,.LC96@l(4)
	li 5,0
	li 6,102
	bl _ZN10idEventDefC1EPKcS1_c
	.loc 2 96 0
	lis 4,.LC97@ha
	addi 3,31,3880
	la 4,.LC97@l(4)
	li 5,0
	li 6,101
	bl _ZN10idEventDefC1EPKcS1_c
	.loc 2 97 0
	lis 4,.LC98@ha
	addi 3,31,3944
	la 4,.LC98@l(4)
	li 5,0
	li 6,118
	bl _ZN10idEventDefC1EPKcS1_c
	.loc 2 98 0
	lis 4,.LC99@ha
	addi 3,31,4008
	la 4,.LC99@l(4)
	li 5,0
	li 6,118
	bl _ZN10idEventDefC1EPKcS1_c
	.loc 2 99 0
	lis 4,.LC100@ha
	addi 3,31,4072
	mr 5,28
	la 4,.LC100@l(4)
	li 6,118
	bl _ZN10idEventDefC1EPKcS1_c
	.loc 2 100 0
	lis 4,.LC101@ha
	addi 3,31,4136
	la 4,.LC101@l(4)
	li 5,0
	li 6,100
	bl _ZN10idEventDefC1EPKcS1_c
	.loc 2 101 0
	lis 4,.LC102@ha
	addi 3,31,4200
	mr 5,30
	la 4,.LC102@l(4)
	li 6,100
	bl _ZN10idEventDefC1EPKcS1_c
	.loc 2 102 0
	lis 4,.LC103@ha
	addi 3,31,4264
	mr 5,30
	la 4,.LC103@l(4)
	li 6,100
	bl _ZN10idEventDefC1EPKcS1_c
	.loc 2 103 0
	lis 4,.LC104@ha
	addi 3,31,4328
	la 4,.LC104@l(4)
	li 5,0
	li 6,100
	bl _ZN10idEventDefC1EPKcS1_c
	.loc 2 104 0
	lis 4,.LC105@ha
	addi 3,31,4392
	mr 5,30
	la 4,.LC105@l(4)
	li 6,0
	bl _ZN10idEventDefC1EPKcS1_c
	.loc 2 105 0
	lis 4,.LC106@ha
	addi 3,31,4456
	la 4,.LC106@l(4)
	li 5,0
	li 6,102
	bl _ZN10idEventDefC1EPKcS1_c
	.loc 2 106 0
	lis 4,.LC107@ha
	addi 3,31,4520
	mr 5,26
	la 4,.LC107@l(4)
	li 6,100
	bl _ZN10idEventDefC1EPKcS1_c
	.loc 2 107 0
	lis 4,.LC108@ha
	addi 3,31,4584
	mr 5,30
	la 4,.LC108@l(4)
	li 6,100
	bl _ZN10idEventDefC1EPKcS1_c
	.loc 2 108 0
	lis 4,.LC109@ha
	addi 3,31,4648
	mr 5,30
	la 4,.LC109@l(4)
	li 6,100
	bl _ZN10idEventDefC1EPKcS1_c
	.loc 2 109 0
	lis 4,.LC110@ha
	addi 3,31,4712
	la 4,.LC110@l(4)
	li 5,0
	li 6,100
	bl _ZN10idEventDefC1EPKcS1_c
	.loc 2 110 0
	lis 4,.LC111@ha
	addi 3,31,4776
	mr 5,30
	la 4,.LC111@l(4)
	li 6,100
	bl _ZN10idEventDefC1EPKcS1_c
	.loc 2 111 0
	lis 4,.LC112@ha
	addi 3,31,144
	mr 5,28
	la 4,.LC112@l(4)
	li 6,0
	bl _ZN10idEventDefC1EPKcS1_c
	.loc 2 112 0
	lis 4,.LC113@ha
	addi 3,31,4840
	la 4,.LC113@l(4)
	li 5,0
	li 6,0
	bl _ZN10idEventDefC1EPKcS1_c
	.loc 2 113 0
	lis 4,.LC114@ha
	addi 3,31,4904
	la 4,.LC114@l(4)
	li 5,0
	li 6,0
	bl _ZN10idEventDefC1EPKcS1_c
	.loc 2 114 0
	lis 4,.LC115@ha
	addi 3,31,4968
	la 4,.LC115@l(4)
	li 5,0
	li 6,0
	bl _ZN10idEventDefC1EPKcS1_c
	.loc 2 115 0
	lis 4,.LC116@ha
	lis 5,.LC117@ha
	addi 3,31,5032
	la 4,.LC116@l(4)
	la 5,.LC117@l(5)
	li 6,0
	bl _ZN10idEventDefC1EPKcS1_c
	.loc 2 116 0
	lis 4,.LC118@ha
	addi 3,31,5096
	la 4,.LC118@l(4)
	li 5,0
	li 6,100
	bl _ZN10idEventDefC1EPKcS1_c
	.loc 2 117 0
	lis 4,.LC119@ha
	addi 3,31,272
	mr 5,30
	la 4,.LC119@l(4)
	li 6,0
	bl _ZN10idEventDefC1EPKcS1_c
	.loc 2 118 0
	lis 4,.LC120@ha
	addi 3,31,5160
	la 4,.LC120@l(4)
	li 5,0
	li 6,0
	bl _ZN10idEventDefC1EPKcS1_c
	.loc 2 119 0
	lis 4,.LC121@ha
	addi 3,31,5224
	la 4,.LC121@l(4)
	li 5,0
	li 6,102
	bl _ZN10idEventDefC1EPKcS1_c
	.loc 2 120 0
	lis 4,.LC122@ha
	addi 3,31,5288
	la 4,.LC122@l(4)
	li 5,0
	li 6,100
	bl _ZN10idEventDefC1EPKcS1_c
	.loc 2 121 0
	lis 4,.LC123@ha
	addi 3,31,5352
	mr 5,29
	la 4,.LC123@l(4)
	li 6,0
	bl _ZN10idEventDefC1EPKcS1_c
	.loc 2 122 0
	lis 4,.LC124@ha
	addi 3,31,5416
	la 4,.LC124@l(4)
	li 5,0
	li 6,0
	bl _ZN10idEventDefC1EPKcS1_c
	.loc 2 123 0
	lis 4,.LC125@ha
	addi 3,31,5480
	la 4,.LC125@l(4)
	li 5,0
	li 6,0
	bl _ZN10idEventDefC1EPKcS1_c
	.loc 2 124 0
	lis 4,.LC126@ha
	addi 3,31,5544
	mr 5,28
	la 4,.LC126@l(4)
	li 6,0
	bl _ZN10idEventDefC1EPKcS1_c
	.loc 2 125 0
	lis 4,.LC127@ha
	addi 3,31,5608
	la 4,.LC127@l(4)
	li 5,0
	li 6,0
	bl _ZN10idEventDefC1EPKcS1_c
	.loc 2 126 0
	lis 4,.LC128@ha
	addi 3,31,5672
	la 4,.LC128@l(4)
	li 5,0
	li 6,0
	bl _ZN10idEventDefC1EPKcS1_c
	.loc 2 127 0
	lis 4,.LC129@ha
	addi 3,31,5736
	la 4,.LC129@l(4)
	li 5,0
	li 6,0
	bl _ZN10idEventDefC1EPKcS1_c
	.loc 2 128 0
	lis 4,.LC130@ha
	addi 3,31,5800
	la 4,.LC130@l(4)
	li 5,0
	li 6,0
	bl _ZN10idEventDefC1EPKcS1_c
	.loc 2 129 0
	lis 4,.LC131@ha
	addi 3,31,5864
	la 4,.LC131@l(4)
	li 5,0
	li 6,0
	bl _ZN10idEventDefC1EPKcS1_c
	.loc 2 130 0
	lis 4,.LC132@ha
	addi 3,31,5928
	la 4,.LC132@l(4)
	li 5,0
	li 6,0
	bl _ZN10idEventDefC1EPKcS1_c
	.loc 2 131 0
	lis 4,.LC133@ha
	addi 3,31,5992
	la 4,.LC133@l(4)
	li 5,0
	li 6,0
	bl _ZN10idEventDefC1EPKcS1_c
	.loc 2 132 0
	lis 4,.LC134@ha
	addi 3,31,6056
	mr 5,28
	la 4,.LC134@l(4)
	li 6,0
	bl _ZN10idEventDefC1EPKcS1_c
	.loc 2 133 0
	lis 4,.LC135@ha
	addi 3,31,6120
	mr 5,29
	la 4,.LC135@l(4)
	li 6,0
	bl _ZN10idEventDefC1EPKcS1_c
	.loc 2 134 0
	lis 4,.LC136@ha
	addi 3,31,6184
	la 4,.LC136@l(4)
	li 5,0
	li 6,0
	bl _ZN10idEventDefC1EPKcS1_c
	.loc 2 135 0
	lis 4,.LC137@ha
	addi 3,31,6248
	mr 5,30
	la 4,.LC137@l(4)
	li 6,101
	bl _ZN10idEventDefC1EPKcS1_c
	.loc 2 136 0
	lis 4,.LC138@ha
	addi 3,31,6312
	mr 5,30
	la 4,.LC138@l(4)
	li 6,101
	bl _ZN10idEventDefC1EPKcS1_c
	.loc 2 137 0
	lis 4,.LC139@ha
	addi 3,31,6376
	mr 5,26
	la 4,.LC139@l(4)
	li 6,102
	bl _ZN10idEventDefC1EPKcS1_c
	.loc 2 138 0
	lis 4,.LC140@ha
	addi 3,31,6440
	mr 5,25
	la 4,.LC140@l(4)
	li 6,102
	bl _ZN10idEventDefC1EPKcS1_c
	.loc 2 139 0
	lis 4,.LC141@ha
	addi 3,31,6504
	mr 5,24
	la 4,.LC141@l(4)
	li 6,102
	bl _ZN10idEventDefC1EPKcS1_c
	.loc 2 140 0
	lis 4,.LC142@ha
	lis 5,.LC143@ha
	addi 3,31,6568
	la 4,.LC142@l(4)
	la 5,.LC143@l(5)
	li 6,102
	bl _ZN10idEventDefC1EPKcS1_c
	.loc 2 141 0
	lis 4,.LC144@ha
	addi 3,31,6632
	mr 5,23
	la 4,.LC144@l(4)
	li 6,0
	bl _ZN10idEventDefC1EPKcS1_c
	.loc 2 142 0
	lis 4,.LC146@ha
	addi 3,31,6696
	mr 5,28
	la 4,.LC146@l(4)
	li 6,0
	bl _ZN10idEventDefC1EPKcS1_c
	.loc 2 143 0
	lis 4,.LC147@ha
	addi 3,31,6760
	mr 5,29
	la 4,.LC147@l(4)
	li 6,0
	bl _ZN10idEventDefC1EPKcS1_c
	.loc 2 144 0
	lis 4,.LC148@ha
	addi 3,31,6824
	la 4,.LC148@l(4)
	li 5,0
	li 6,0
	bl _ZN10idEventDefC1EPKcS1_c
	.loc 2 145 0
	lis 4,.LC149@ha
	addi 3,31,6888
	la 4,.LC149@l(4)
	li 5,0
	li 6,0
	bl _ZN10idEventDefC1EPKcS1_c
	.loc 2 146 0
	lis 4,.LC150@ha
	addi 3,31,80
	la 4,.LC150@l(4)
	li 5,0
	li 6,0
	bl _ZN10idEventDefC1EPKcS1_c
	.loc 2 147 0
	lis 4,.LC151@ha
	addi 3,31,6952
	la 4,.LC151@l(4)
	li 5,0
	li 6,0
	bl _ZN10idEventDefC1EPKcS1_c
	.loc 2 148 0
	lis 4,.LC152@ha
	addi 3,31,7016
	mr 5,29
	la 4,.LC152@l(4)
	li 6,0
	bl _ZN10idEventDefC1EPKcS1_c
	.loc 2 149 0
	lis 4,.LC153@ha
	addi 3,31,7080
	la 4,.LC153@l(4)
	li 5,0
	li 6,0
	bl _ZN10idEventDefC1EPKcS1_c
	.loc 2 150 0
	lis 4,.LC154@ha
	addi 3,31,7144
	mr 5,23
	la 4,.LC154@l(4)
	li 6,0
	bl _ZN10idEventDefC1EPKcS1_c
	.loc 2 151 0
	lis 4,.LC155@ha
	addi 3,31,7208
	la 4,.LC155@l(4)
	li 5,0
	li 6,101
	bl _ZN10idEventDefC1EPKcS1_c
	.loc 2 152 0
	lis 4,.LC156@ha
	addi 3,31,7272
	mr 5,26
	la 4,.LC156@l(4)
	li 6,118
	bl _ZN10idEventDefC1EPKcS1_c
	.loc 2 153 0
	lis 4,.LC157@ha
	addi 3,31,7336
	la 4,.LC157@l(4)
	li 5,0
	li 6,102
	bl _ZN10idEventDefC1EPKcS1_c
	.loc 2 154 0
	lis 4,.LC158@ha
	addi 3,31,7400
	mr 5,28
	la 4,.LC158@l(4)
	li 6,0
	bl _ZN10idEventDefC1EPKcS1_c
	.loc 2 155 0
	lis 4,.LC159@ha
	addi 3,31,7464
	mr 5,28
	la 4,.LC159@l(4)
	li 6,0
	bl _ZN10idEventDefC1EPKcS1_c
	.loc 2 156 0
	lis 4,.LC160@ha
	addi 3,31,7528
	mr 5,29
	la 4,.LC160@l(4)
	li 6,0
	bl _ZN10idEventDefC1EPKcS1_c
	.loc 2 157 0
	lis 4,.LC161@ha
	addi 3,31,7592
	mr 5,30
	la 4,.LC161@l(4)
	li 6,0
	bl _ZN10idEventDefC1EPKcS1_c
	.loc 2 158 0
	lis 4,.LC162@ha
	addi 3,31,7656
	mr 5,24
	la 4,.LC162@l(4)
	li 6,101
	bl _ZN10idEventDefC1EPKcS1_c
	.loc 2 159 0
	lis 4,.LC163@ha
	addi 3,31,7720
	mr 5,26
	la 4,.LC163@l(4)
	li 6,100
	bl _ZN10idEventDefC1EPKcS1_c
	.loc 2 160 0
	lis 4,.LC164@ha
	addi 3,31,7784
	mr 5,27
	la 4,.LC164@l(4)
	li 6,100
	bl _ZN10idEventDefC1EPKcS1_c
	.loc 2 161 0
	lis 4,.LC165@ha
	addi 3,31,7848
	la 4,.LC165@l(4)
	li 5,0
	li 6,100
	bl _ZN10idEventDefC1EPKcS1_c
	.loc 2 162 0
	lis 4,.LC166@ha
	addi 3,31,7912
	mr 5,25
	la 4,.LC166@l(4)
	li 6,118
	bl _ZN10idEventDefC1EPKcS1_c
	.loc 2 164 0
	lis 11,_ZN4idAI5SpawnEv@ha
	la 11,_ZN4idAI5SpawnEv@l(11)
	lis 4,.LC167@ha
	stw 11,8(1)
	lis 11,_ZNK4idAI4SaveEP10idSaveGame@ha
	la 11,_ZNK4idAI4SaveEP10idSaveGame@l(11)
	lis 5,.LC168@ha
	stw 11,16(1)
	lis 6,.LANCHOR1@ha
	lis 7,_ZN4idAI14CreateInstanceEv@ha
	lis 11,_ZN4idAI7RestoreEP13idRestoreGame@ha
	li 0,0
	la 11,_ZN4idAI7RestoreEP13idRestoreGame@l(11)
	mr 3,31
	la 4,.LC167@l(4)
	la 5,.LC168@l(5)
	la 6,.LANCHOR1@l(6)
	la 7,_ZN4idAI14CreateInstanceEv@l(7)
	addi 8,1,8
	addi 9,1,16
	addi 10,1,24
	stw 0,12(1)
	stw 0,20(1)
	stw 11,24(1)
	stw 0,28(1)
	bl _ZN10idTypeInfoC1EPKcS1_P11idEventFuncI7idClassEPFPS3_vEMS3_FvvEMS3_KFvP10idSaveGameEMS3_FvP13idRestoreGameE
	b .L550
	.cfi_endproc
.LFE3290:
	.size	_Z41__static_initialization_and_destruction_0ii.constprop.38, .-_Z41__static_initialization_and_destruction_0ii.constprop.38
	.section	.text._ZN14idFixedWindingD2Ev,"axG",@progbits,_ZN14idFixedWindingD5Ev,comdat
	.align 2
	.weak	_ZN14idFixedWindingD2Ev
	.type	_ZN14idFixedWindingD2Ev, @function
_ZN14idFixedWindingD2Ev:
.LFB1498:
	.loc 1 380 0
	.cfi_startproc
.LVL970:
.LBB2666:
	.loc 1 381 0
	li 0,0
.LBB2667:
.LBB2668:
.LBB2669:
	.loc 1 183 0
	lis 9,_ZTV9idWinding+8@ha
.LBE2669:
.LBE2668:
.LBE2667:
	.loc 1 381 0
	stw 0,8(3)
.LVL971:
.LBB2672:
.LBB2671:
.LBB2670:
	.loc 1 183 0
	la 0,_ZTV9idWinding+8@l(9)
	stw 0,0(3)
.LBE2670:
.LBE2671:
.LBE2672:
.LBE2666:
	.loc 1 382 0
	blr
	.cfi_endproc
.LFE1498:
	.size	_ZN14idFixedWindingD2Ev, .-_ZN14idFixedWindingD2Ev
	.section	.text._ZN9idWindingD0Ev,"axG",@progbits,_ZN9idWindingD5Ev,comdat
	.align 2
	.weak	_ZN9idWindingD0Ev
	.type	_ZN9idWindingD0Ev, @function
_ZN9idWindingD0Ev:
.LFB1463:
	.loc 1 183 0
	.cfi_startproc
.LVL972:
	mflr 0
	stwu 1,-16(1)
.LCFI280:
	.cfi_def_cfa_offset 16
	.cfi_register 65, 0
.LBB2676:
.LBB2677:
.LBB2678:
	lis 9,_ZTV9idWinding+8@ha
.LBE2678:
.LBE2677:
.LBE2676:
	stw 31,12(1)
	mr 31,3
	.cfi_offset 31, -4
.LVL973:
	stw 0,20(1)
.LBB2683:
.LBB2681:
.LBB2679:
	.loc 1 183 0
	la 0,_ZTV9idWinding+8@l(9)
	.cfi_offset 65, 4
	.loc 1 184 0
	lwz 3,8(3)
.LVL974:
	.loc 1 183 0
	stw 0,0(31)
	.loc 1 184 0
	cmpwi 7,3,0
	beq- 7,.L558
	bl _ZdaPv
.LVL975:
.L558:
	.loc 1 185 0
	li 0,0
.LBE2679:
.LBE2681:
.LBE2683:
	.loc 1 186 0
	mr 3,31
.LBB2684:
.LBB2682:
.LBB2680:
	.loc 1 185 0
	stw 0,8(31)
.LBE2680:
.LBE2682:
.LBE2684:
	.loc 1 186 0
	bl _ZdlPv
	lwz 0,20(1)
	lwz 31,12(1)
.LVL976:
	mtlr 0
	addi 1,1,16
.LCFI281:
	.cfi_def_cfa_offset 0
	.cfi_restore 31
	blr
	.cfi_endproc
.LFE1463:
	.size	_ZN9idWindingD0Ev, .-_ZN9idWindingD0Ev
	.section	.text._ZN14idFixedWindingD0Ev,"axG",@progbits,_ZN14idFixedWindingD5Ev,comdat
	.align 2
	.weak	_ZN14idFixedWindingD0Ev
	.type	_ZN14idFixedWindingD0Ev, @function
_ZN14idFixedWindingD0Ev:
.LFB1500:
	.loc 1 380 0
	.cfi_startproc
.LVL977:
	mflr 0
	stwu 1,-8(1)
.LCFI282:
	.cfi_def_cfa_offset 8
	.cfi_register 65, 0
.LBB2691:
.LBB2692:
.LBB2693:
.LBB2694:
.LBB2695:
.LBB2696:
	.loc 1 183 0
	lis 11,_ZTV9idWinding+8@ha
.LBE2696:
.LBE2695:
.LBE2694:
.LBE2693:
.LBE2692:
.LBE2691:
	.loc 1 380 0
	stw 0,12(1)
.LBB2702:
.LBB2701:
.LBB2700:
	.loc 1 381 0
	li 0,0
	.cfi_offset 65, 4
	stw 0,8(3)
.LVL978:
.LBB2699:
.LBB2698:
.LBB2697:
	.loc 1 183 0
	la 0,_ZTV9idWinding+8@l(11)
	stw 0,0(3)
.LBE2697:
.LBE2698:
.LBE2699:
.LBE2700:
.LBE2701:
.LBE2702:
	.loc 1 382 0
	bl _ZdlPv
.LVL979:
	lwz 0,12(1)
	addi 1,1,8
.LCFI283:
	.cfi_def_cfa_offset 0
	mtlr 0
	blr
	.cfi_endproc
.LFE1500:
	.size	_ZN14idFixedWindingD0Ev, .-_ZN14idFixedWindingD0Ev
	.section	".text"
	.align 2
	.globl _ZN4idAI15Event_ClearBurnEv
	.type	_ZN4idAI15Event_ClearBurnEv, @function
_ZN4idAI15Event_ClearBurnEv:
.LFB2902:
	.loc 2 1857 0
	.cfi_startproc
.LVL980:
	stwu 1,-16(1)
.LCFI284:
	.cfi_def_cfa_offset 16
	mflr 0
.LBB2708:
.LBB2709:
.LBB2710:
.LBB2711:
	.file 17 "d:/Data/Nintendo/DoomGX/src/game/ai/../../idlib/../idlib/Dict.h"
	.loc 17 241 0
	lis 4,.LC169@ha
.LBE2711:
.LBE2710:
.LBE2709:
.LBE2708:
	.loc 2 1857 0
	stw 31,12(1)
.LBB2729:
.LBB2721:
.LBB2717:
.LBB2713:
	.loc 17 241 0
	la 4,.LC169@l(4)
.LBE2713:
.LBE2717:
.LBE2721:
.LBE2729:
	.loc 2 1857 0
	mr 31,3
	.cfi_offset 31, -4
	.cfi_register 65, 0
.LVL981:
.LBB2730:
.LBB2722:
.LBB2718:
.LBB2714:
	.loc 17 241 0
	addi 3,3,100
.LVL982:
.LBE2714:
.LBE2718:
.LBE2722:
.LBE2730:
	.loc 2 1857 0
	stw 0,20(1)
.LBB2731:
.LBB2723:
.LBB2719:
.LBB2715:
	.loc 17 241 0
	.cfi_offset 65, 4
	bl _ZNK6idDict7FindKeyEPKc
.LVL983:
	.loc 17 242 0
	cmpwi 0,3,0
	beq- 0,.L567
.LVL984:
.LBB2712:
	.loc 2 2707 0
	lwz 9,4(3)
	lwz 3,4(9)
.LVL985:
.LBE2712:
.LBE2715:
.LBE2719:
	.loc 17 257 0
	bl atoi
.LVL986:
.LBE2723:
.LBE2731:
	.loc 2 1859 0
	li 0,0
.LBB2732:
.LBB2724:
	.loc 17 257 0
	cntlzw 3,3
.LBE2724:
.LBE2732:
	.loc 2 1859 0
	stw 0,348(31)
.LBB2733:
.LBB2725:
	.loc 17 257 0
	srwi 3,3,5
	xori 3,3,1
.LBE2725:
.LBE2733:
	.loc 2 1858 0
	stb 3,397(31)
	.loc 2 1860 0
	mr 3,31
	bl _ZN8idEntity13UpdateVisualsEv
	.loc 2 1861 0
	lwz 0,20(1)
	lwz 31,12(1)
.LVL987:
	mtlr 0
	addi 1,1,16
	.cfi_remember_state
.LCFI285:
	.cfi_def_cfa_offset 0
	.cfi_restore 31
	blr
.LVL988:
.L567:
.LCFI286:
	.cfi_restore_state
.LBB2734:
.LBB2726:
.LBB2720:
.LBB2716:
	.loc 17 245 0
	lis 3,.LC6@ha
.LVL989:
	la 3,.LC6@l(3)
.LBE2716:
.LBE2720:
	.loc 17 257 0
	bl atoi
.LBE2726:
.LBE2734:
	.loc 2 1859 0
	li 0,0
.LBB2735:
.LBB2727:
	.loc 17 257 0
	cntlzw 3,3
.LBE2727:
.LBE2735:
	.loc 2 1859 0
	stw 0,348(31)
.LBB2736:
.LBB2728:
	.loc 17 257 0
	srwi 3,3,5
	xori 3,3,1
.LBE2728:
.LBE2736:
	.loc 2 1858 0
	stb 3,397(31)
	.loc 2 1860 0
	mr 3,31
	bl _ZN8idEntity13UpdateVisualsEv
	.loc 2 1861 0
	lwz 0,20(1)
	lwz 31,12(1)
.LVL990:
	mtlr 0
	addi 1,1,16
	.cfi_restore 31
.LCFI287:
	.cfi_def_cfa_offset 0
	blr
	.cfi_endproc
.LFE2902:
	.size	_ZN4idAI15Event_ClearBurnEv, .-_ZN4idAI15Event_ClearBurnEv
	.align 2
	.globl _ZN4idAI17Event_BecomeSolidEv
	.type	_ZN4idAI17Event_BecomeSolidEv, @function
_ZN4idAI17Event_BecomeSolidEv:
.LFB2843:
	.loc 2 807 0
	.cfi_startproc
.LVL991:
	stwu 1,-24(1)
.LCFI288:
	.cfi_def_cfa_offset 24
	mflr 0
	stw 30,16(1)
	.loc 2 808 0
	addi 30,3,4216
	.cfi_offset 30, -8
	.cfi_register 65, 0
	.loc 2 807 0
	stw 31,20(1)
	mr 31,3
	.cfi_offset 31, -4
	.loc 2 808 0
	mr 3,30
.LVL992:
	.loc 2 807 0
	stw 0,28(1)
	stw 29,12(1)
	.loc 2 808 0
	.cfi_offset 29, -12
	.cfi_offset 65, 4
	bl _ZN15idPhysics_Actor10EnableClipEv
	.loc 2 809 0
	addi 29,31,100
.LVL993:
.LBB2747:
.LBB2748:
.LBB2749:
.LBB2750:
	.loc 17 241 0
	lis 4,.LC170@ha
	mr 3,29
	la 4,.LC170@l(4)
	bl _ZNK6idDict7FindKeyEPKc
.LVL994:
	.loc 17 242 0
	cmpwi 0,3,0
	beq- 0,.L574
.LVL995:
.LBB2751:
	.loc 2 2707 0
	lwz 9,4(3)
	lwz 3,4(9)
.LVL996:
.L569:
.LBE2751:
.LBE2750:
.LBE2749:
	.loc 17 257 0
	bl atoi
.LBE2748:
.LBE2747:
	.loc 2 809 0
	cmpwi 7,3,0
	bne- 7,.L576
	.loc 2 811 0
	lbz 0,2420(31)
	.loc 2 812 0
	mr 3,30
	.loc 2 811 0
	cmpwi 7,0,0
	bne- 7,.L577
	.loc 2 814 0
	li 4,256
	li 5,-1
	bl _ZN15idPhysics_Actor11SetContentsEii
.L571:
	.loc 2 816 0
	li 4,0
	mr 3,30
	bl _ZNK15idPhysics_Actor12GetClipModelEi
	lis 4,gameLocal+2311032@ha
	la 4,gameLocal+2311032@l(4)
	bl _ZN11idClipModel4LinkER6idClip
.LVL997:
.LBB2755:
.LBB2756:
.LBB2757:
.LBB2758:
	.loc 17 241 0
	lis 4,.LC171@ha
	mr 3,29
	la 4,.LC171@l(4)
	bl _ZNK6idDict7FindKeyEPKc
.LVL998:
	.loc 17 242 0
	cmpwi 0,3,0
	beq- 0,.L575
.L578:
.LVL999:
.LBB2759:
	.loc 2 2707 0
	lwz 9,4(3)
	lwz 3,4(9)
.LVL1000:
.LBE2759:
.LBE2758:
.LBE2757:
	.loc 17 257 0
	bl atoi
.LVL1001:
.LBE2756:
.LBE2755:
	.loc 2 817 0
	lwz 0,192(31)
	cntlzw 3,3
	srwi 3,3,5
	rlwimi 0,3,29,2,2
	stw 0,192(31)
	.loc 2 818 0
	lwz 0,28(1)
	lwz 29,12(1)
.LVL1002:
	mtlr 0
	lwz 30,16(1)
	lwz 31,20(1)
.LVL1003:
	addi 1,1,24
	.cfi_remember_state
.LCFI289:
	.cfi_def_cfa_offset 0
	.cfi_restore 31
	.cfi_restore 30
	.cfi_restore 29
	blr
.LVL1004:
.L577:
.LCFI290:
	.cfi_restore_state
	.loc 2 812 0
	li 5,-1
	li 4,257
	bl _ZN15idPhysics_Actor11SetContentsEii
	.loc 2 816 0
	li 4,0
	mr 3,30
	bl _ZNK15idPhysics_Actor12GetClipModelEi
	lis 4,gameLocal+2311032@ha
	la 4,gameLocal+2311032@l(4)
	bl _ZN11idClipModel4LinkER6idClip
.LVL1005:
.LBB2763:
.LBB2762:
.LBB2761:
.LBB2760:
	.loc 17 241 0
	lis 4,.LC171@ha
	mr 3,29
	la 4,.LC171@l(4)
	bl _ZNK6idDict7FindKeyEPKc
.LVL1006:
	.loc 17 242 0
	cmpwi 0,3,0
	bne+ 0,.L578
.L575:
	.loc 17 245 0
	lis 3,.LC6@ha
.LVL1007:
	la 3,.LC6@l(3)
.LBE2760:
.LBE2761:
	.loc 17 257 0
	bl atoi
.LBE2762:
.LBE2763:
	.loc 2 817 0
	lwz 0,192(31)
	cntlzw 3,3
	srwi 3,3,5
	rlwimi 0,3,29,2,2
	stw 0,192(31)
	.loc 2 818 0
	lwz 0,28(1)
	lwz 29,12(1)
.LVL1008:
	mtlr 0
	lwz 30,16(1)
	lwz 31,20(1)
.LVL1009:
	addi 1,1,24
	.cfi_remember_state
	.cfi_restore 29
	.cfi_restore 30
	.cfi_restore 31
.LCFI291:
	.cfi_def_cfa_offset 0
	blr
.LVL1010:
.L576:
.LCFI292:
	.cfi_restore_state
	.loc 2 810 0
	mr 3,30
	li 4,0
	li 5,-1
	bl _ZN15idPhysics_Actor11SetContentsEii
	b .L571
.LVL1011:
.L574:
.LBB2764:
.LBB2754:
.LBB2753:
.LBB2752:
	.loc 17 245 0
	lis 3,.LC6@ha
.LVL1012:
	la 3,.LC6@l(3)
	b .L569
.LBE2752:
.LBE2753:
.LBE2754:
.LBE2764:
	.cfi_endproc
.LFE2843:
	.size	_ZN4idAI17Event_BecomeSolidEv, .-_ZN4idAI17Event_BecomeSolidEv
	.align 2
	.globl _ZN4idAI19Event_LaunchMissileERK6idVec3RK8idAngles
	.type	_ZN4idAI19Event_LaunchMissileERK6idVec3RK8idAngles, @function
_ZN4idAI19Event_LaunchMissileERK6idVec3RK8idAngles:
.LFB2828:
	.loc 2 605 0
	.cfi_startproc
.LVL1013:
	mflr 0
	stwu 1,-296(1)
.LCFI293:
	.cfi_def_cfa_offset 296
	.cfi_register 65, 0
	stw 25,268(1)
	mr 25,4
	.cfi_offset 25, -28
	stw 31,292(1)
	mr 31,3
	.cfi_offset 31, -4
	stw 0,300(1)
	stw 26,272(1)
	stw 27,276(1)
	stw 28,280(1)
	stw 29,284(1)
	stw 30,288(1)
.LBB2871:
	.loc 2 613 0
	lwz 0,4584(3)
	.cfi_offset 30, -8
	.cfi_offset 29, -12
	.cfi_offset 28, -16
	.cfi_offset 27, -20
	.cfi_offset 26, -24
	.cfi_offset 65, 4
	cmpwi 7,0,0
	beq- 7,.L602
	.loc 2 619 0
	addi 3,1,72
.LVL1014:
	mr 4,5
.LVL1015:
	bl _ZNK8idAngles6ToMat3Ev
.LVL1016:
	li 10,0
.L582:
.LBB2872:
.LBB2873:
.LBB2874:
.LBB2875:
	.loc 3 424 0
	addi 11,1,72
.LVL1017:
.LBE2875:
.LBE2874:
	.loc 11 333 0
	cmpwi 7,10,24
.LBB2878:
.LBB2876:
	.loc 3 424 0
	lwzux 0,11,10
.LVL1018:
	addi 9,1,108
	stwux 0,9,10
.LBE2876:
.LBE2878:
	.loc 11 333 0
	addi 10,10,12
.LBB2879:
.LBB2877:
	.loc 3 425 0
	lwz 8,4(11)
	.loc 3 426 0
	lwz 0,8(11)
	.loc 3 425 0
	stw 8,4(9)
	.loc 3 426 0
	stw 0,8(9)
.LBE2877:
.LBE2879:
	.loc 11 333 0
	bne+ 7,.L582
.LVL1019:
.LBE2873:
.LBE2872:
.LBB2880:
.LBB2881:
	.loc 6 634 0
	lwz 0,4624(31)
	.loc 6 635 0
	lis 30,gameLocal@ha
	la 30,gameLocal@l(30)
	.loc 6 634 0
	rlwinm 9,0,0,20,31
.LVL1020:
	.loc 6 635 0
	srawi 0,0,12
	addi 11,9,4228
	slwi 11,11,2
	add 11,30,11
	lwz 11,4(11)
	cmpw 7,11,0
	beq- 7,.L603
.LVL1021:
.L583:
.LBE2881:
.LBE2880:
	.loc 2 621 0
	mr 3,31
	mr 4,25
	addi 5,1,108
	bl _ZN4idAI16CreateProjectileERK6idVec3S2_
.LVL1022:
.L584:
	.loc 2 625 0
	addi 3,31,4216
	li 4,-1
	bl _ZNK15idPhysics_Actor12GetAbsBoundsEi
.LBB2883:
.LBB2884:
	.loc 6 634 0
	lwz 0,4624(31)
.LBE2884:
.LBE2883:
	.loc 2 625 0
	mr 27,3
.LVL1023:
.LBB2887:
.LBB2885:
	.loc 6 638 0
	li 3,0
.LVL1024:
	.loc 6 634 0
	rlwinm 9,0,0,20,31
.LVL1025:
	.loc 6 635 0
	srawi 0,0,12
	addi 11,9,4228
	slwi 11,11,2
	add 11,30,11
	lwz 11,4(11)
	cmpw 7,11,0
	beq- 7,.L604
.LVL1026:
.L585:
.LBE2885:
.LBE2887:
	.loc 2 626 0
	bl _ZNK8idEntity10GetPhysicsEv
	li 4,0
	lwz 9,0(3)
.LBB2888:
.LBB2889:
	.file 18 "d:/Data/Nintendo/DoomGX/src/game/ai/../../idlib/../idlib/bv/Bounds.h"
	.loc 18 344 0
	lis 29,vec3_origin@ha
	la 29,vec3_origin@l(29)
.LBE2889:
.LBE2888:
	.loc 2 626 0
	lwz 0,24(9)
	mtctr 0
	bctrl
.LBB2892:
.LBB2890:
	.loc 18 344 0
	mr 5,29
.LBE2890:
.LBE2892:
	.loc 2 626 0
	mr 26,3
.LVL1027:
	.loc 2 627 0
	addi 28,3,28
.LVL1028:
.LBB2893:
.LBB2891:
	.loc 18 344 0
	addi 4,26,64
	addi 3,1,48
.LVL1029:
	mr 6,28
	bl _ZN8idBounds21FromTransformedBoundsERKS_RK6idVec3RK6idMat3
.LVL1030:
.LBE2891:
.LBE2893:
.LBB2894:
.LBB2895:
.LBB2896:
	.loc 3 424 0
	lfs 8,48(1)
	lfs 7,60(1)
.LBE2896:
.LBE2895:
.LBE2894:
.LBB2901:
.LBB2902:
	.loc 3 402 0
	lfs 12,12(27)
.LBE2902:
.LBE2901:
.LBB2903:
.LBB2904:
	lfs 13,0(27)
.LBE2904:
.LBE2903:
	.loc 2 630 0
	fsubs 0,7,8
.LBB2905:
.LBB2899:
.LBB2897:
	.loc 3 425 0
	lfs 6,52(1)
.LBE2897:
.LBE2899:
.LBE2905:
	.loc 2 630 0
	fsubs 10,12,13
.LBB2906:
.LBB2900:
.LBB2898:
	.loc 3 426 0
	lfs 4,56(1)
.LVL1031:
	.loc 3 425 0
	lfs 5,64(1)
	.loc 3 426 0
	lfs 3,68(1)
.LVL1032:
.LBE2898:
.LBE2900:
.LBE2906:
	.loc 2 630 0
	fcmpu 7,10,0
.LBB2907:
.LBB2908:
	.loc 3 402 0
	lfs 11,16(27)
.LVL1033:
.LBE2908:
.LBE2907:
.LBB2909:
.LBB2910:
	lfs 10,4(27)
.LBE2910:
.LBE2909:
	.loc 2 630 0
	bgt- 7,.L605
	.loc 2 616 0
	lfs 9,20(27)
	lfs 0,8(27)
.L589:
.LVL1034:
.LBB2911:
.LBB2912:
	.loc 18 212 0
	fadds 9,9,0
.LVL1035:
	lis 9,.LC13@ha
	fadds 13,12,13
	lfs 0,.LC13@l(9)
	fadds 11,10,11
	fmuls 13,13,0
	fmuls 11,11,0
	fmuls 0,9,0
.LVL1036:
.LBE2912:
.LBE2911:
.LBB2913:
.LBB2914:
	.loc 3 424 0
	stfs 13,12(1)
	.loc 3 425 0
	stfs 11,16(1)
	.loc 3 426 0
	stfs 0,20(1)
.LVL1037:
.L592:
.LBE2914:
.LBE2913:
	.loc 2 643 0
	lis 3,gameLocal+2311032@ha
	li 9,2049
	la 3,gameLocal+2311032@l(3)
	addi 4,1,144
	addi 5,1,12
	mr 6,25
	mr 7,26
	mr 8,28
	mr 10,31
	bl _ZN6idClip11TranslationER7trace_sRK6idVec3S4_PK11idClipModelRK6idMat3iPK8idEntity
.LVL1038:
.LBB2915:
.LBB2916:
	.loc 6 634 0
	lwz 0,4624(31)
	.loc 6 638 0
	li 3,0
	.loc 6 634 0
	rlwinm 9,0,0,20,31
.LVL1039:
	.loc 6 635 0
	srawi 0,0,12
	addi 11,9,4228
	slwi 11,11,2
	add 11,30,11
	lwz 11,4(11)
	cmpw 7,11,0
	beq- 7,.L606
.LVL1040:
.L593:
.LBE2916:
.LBE2915:
	.loc 2 646 0
	bl _ZN8idThread12ReturnEntityEP8idEntity
.LVL1041:
.LBB2918:
.LBB2919:
	.loc 6 634 0
	lwz 0,4624(31)
	.loc 6 638 0
	li 3,0
	.loc 6 634 0
	rlwinm 9,0,0,20,31
.LVL1042:
	.loc 6 635 0
	srawi 0,0,12
	addi 11,9,4228
	slwi 11,11,2
	add 11,30,11
	lwz 11,4(11)
	cmpw 7,11,0
	beq- 7,.L607
.LVL1043:
.L594:
.LBE2919:
.LBE2918:
	.loc 2 647 0
	lwz 9,0(3)
	lis 11,.LC11@ha
	lfs 2,.LC11@l(11)
	addi 4,1,148
	lwz 0,228(9)
	lis 9,.LC0@ha
	addi 5,1,108
	mr 6,29
	mtctr 0
	lfs 1,.LC0@l(9)
	fmr 3,2
	.loc 2 652 0
	addis 30,30,0x25
	.loc 2 647 0
	bctrl
.LVL1044:
.LBB2921:
.LBB2922:
	.loc 6 606 0
	li 0,0
	stw 0,4624(31)
.LBE2922:
.LBE2921:
	.loc 2 650 0
	mr 3,31
	addi 4,1,148
	bl _ZN4idAI20TriggerWeaponEffectsERK6idVec3
	.loc 2 652 0
	lwz 0,2004(30)
	stw 0,4556(31)
.LBE2871:
	.loc 2 653 0
	lwz 0,300(1)
	lwz 25,268(1)
.LVL1045:
	mtlr 0
	lwz 26,272(1)
.LVL1046:
	lwz 27,276(1)
.LVL1047:
	lwz 28,280(1)
.LVL1048:
	lwz 29,284(1)
	lwz 30,288(1)
	lwz 31,292(1)
.LVL1049:
	addi 1,1,296
	.cfi_remember_state
.LCFI294:
	.cfi_def_cfa_offset 0
	.cfi_restore 31
	.cfi_restore 30
	.cfi_restore 29
	.cfi_restore 28
	.cfi_restore 27
	.cfi_restore 26
	.cfi_restore 25
	blr
.LVL1050:
.L605:
.LCFI295:
	.cfi_restore_state
.LBB2957:
	.loc 2 630 0
	fsubs 0,5,6
	fsubs 9,11,10
	fcmpu 7,9,0
.LBB2923:
.LBB2924:
	.loc 3 402 0
	lfs 9,20(27)
.LVL1051:
.LBE2924:
.LBE2923:
.LBB2925:
.LBB2926:
	lfs 0,8(27)
.LBE2926:
.LBE2925:
	.loc 2 630 0
	bng- 7,.L589
.LVL1052:
	fsubs 2,3,4
	fsubs 1,9,0
	fcmpu 7,1,2
	bng- 7,.L589
.LVL1053:
.LBB2927:
.LBB2928:
	.loc 18 173 0 discriminator 5
	fadds 13,13,7
.LVL1054:
.LBE2928:
.LBE2927:
	.loc 2 633 0 discriminator 5
	addi 3,1,24
.LBB2941:
.LBB2937:
	.loc 18 173 0 discriminator 5
	fadds 10,10,5
.LVL1055:
.LBE2937:
.LBE2941:
	.loc 2 633 0 discriminator 5
	mr 4,25
.LBB2942:
.LBB2938:
	.loc 18 173 0 discriminator 5
	fadds 0,0,3
.LBE2938:
.LBE2942:
	.loc 2 633 0 discriminator 5
	addi 5,31,2268
.LBB2943:
.LBB2939:
	.loc 18 173 0 discriminator 5
	fadds 12,12,8
.LVL1056:
.LBE2939:
.LBE2943:
	.loc 2 633 0 discriminator 5
	addi 6,1,8
.LBB2944:
.LBB2940:
	.loc 18 173 0 discriminator 5
	fadds 11,11,6
.LVL1057:
.LBB2929:
.LBB2930:
.LBB2931:
	.loc 3 424 0 discriminator 5
	stfs 13,24(1)
.LBE2931:
.LBE2930:
.LBE2929:
	.loc 18 173 0 discriminator 5
	fadds 9,9,4
.LBB2936:
.LBB2933:
.LBB2932:
	.loc 3 425 0 discriminator 5
	stfs 10,28(1)
	.loc 3 426 0 discriminator 5
	stfs 0,32(1)
.LVL1058:
.LBE2932:
.LBE2933:
.LBB2934:
.LBB2935:
	.loc 3 424 0 discriminator 5
	stfs 12,36(1)
	.loc 3 425 0 discriminator 5
	stfs 11,40(1)
	.loc 3 426 0 discriminator 5
	stfs 9,44(1)
.LVL1059:
.LBE2935:
.LBE2934:
.LBE2936:
.LBE2940:
.LBE2944:
	.loc 2 633 0 discriminator 5
	bl _ZNK8idBounds15RayIntersectionERK6idVec3S2_Rf
.LVL1060:
	cmpwi 7,3,0
	beq- 7,.L591
.LVL1061:
	.loc 2 634 0
	lfs 0,8(1)
.LVL1062:
	.loc 3 452 0
	lfs 8,2272(31)
	lfs 12,4(25)
	lfs 9,2276(31)
	lfs 13,8(25)
	fmadds 12,0,8,12
.LBB2945:
.LBB2946:
	lfs 10,2268(31)
.LVL1063:
	lfs 11,0(25)
.LBE2946:
.LBE2945:
	fmadds 13,0,9,13
.LVL1064:
.LBB2948:
.LBB2947:
	.loc 3 425 0
	stfs 12,16(1)
	.loc 3 452 0
	fmadds 0,0,10,11
	.loc 3 426 0
	stfs 13,20(1)
	.loc 3 424 0
	stfs 0,12(1)
	b .L592
.LVL1065:
.L604:
.LBE2947:
.LBE2948:
.LBB2949:
.LBB2886:
	.loc 6 636 0
	addi 9,9,132
.LVL1066:
	slwi 9,9,2
.LVL1067:
	add 9,30,9
	lwz 3,4(9)
	b .L585
.LVL1068:
.L603:
.LBE2886:
.LBE2949:
.LBB2950:
.LBB2882:
	addi 9,9,132
.LVL1069:
	slwi 9,9,2
.LVL1070:
	add 9,30,9
.LBE2882:
.LBE2950:
	.loc 2 620 0
	lwz 0,4(9)
	cmpwi 7,0,0
	bne+ 7,.L584
	b .L583
.LVL1071:
.L607:
.LBB2951:
.LBB2920:
	.loc 6 636 0
	addi 9,9,132
.LVL1072:
	slwi 9,9,2
.LVL1073:
	add 9,30,9
	lwz 3,4(9)
	b .L594
.LVL1074:
.L606:
.LBE2920:
.LBE2951:
.LBB2952:
.LBB2917:
	addi 9,9,132
.LVL1075:
	slwi 9,9,2
.LVL1076:
	add 9,30,9
	lwz 3,4(9)
	b .L593
.LVL1077:
.L591:
.LBE2917:
.LBE2952:
.LBB2953:
.LBB2954:
	.loc 18 212 0
	lfs 0,0(27)
	lis 9,.LC13@ha
	lfs 12,4(27)
	lfs 13,8(27)
	lfs 9,16(27)
	lfs 10,20(27)
	lfs 11,12(27)
	fadds 12,9,12
	fadds 13,10,13
	fadds 11,11,0
	lfs 0,.LC13@l(9)
	fmuls 12,12,0
.LVL1078:
	fmuls 13,13,0
.LVL1079:
	fmuls 0,11,0
.LBE2954:
.LBE2953:
.LBB2955:
.LBB2956:
	.loc 3 425 0
	stfs 12,16(1)
	.loc 3 426 0
	stfs 13,20(1)
	.loc 3 424 0
	stfs 0,12(1)
	b .L592
.LVL1080:
.L602:
.LBE2956:
.LBE2955:
	.loc 2 2707 0
	lwz 31,72(3)
.LVL1081:
	.loc 2 614 0
	bl _ZNK8idEntity16GetEntityDefNameEv
.LVL1082:
	mr 6,3
	lis 4,.LC172@ha
	lis 3,gameLocal@ha
	mr 5,31
	la 3,gameLocal@l(3)
	la 4,.LC172@l(4)
	crxor 6,6,6
	bl _ZNK11idGameLocal7WarningEPKcz
	.loc 2 615 0
	li 3,0
	bl _ZN8idThread12ReturnEntityEP8idEntity
.LBE2957:
	.loc 2 653 0
	lwz 0,300(1)
	lwz 25,268(1)
.LVL1083:
	mtlr 0
	lwz 26,272(1)
	lwz 27,276(1)
	lwz 28,280(1)
	lwz 29,284(1)
	lwz 30,288(1)
	lwz 31,292(1)
	addi 1,1,296
	.cfi_restore 25
	.cfi_restore 26
	.cfi_restore 27
	.cfi_restore 28
	.cfi_restore 29
	.cfi_restore 30
	.cfi_restore 31
.LCFI296:
	.cfi_def_cfa_offset 0
	blr
	.cfi_endproc
.LFE2828:
	.size	_ZN4idAI19Event_LaunchMissileERK6idVec3RK8idAngles, .-_ZN4idAI19Event_LaunchMissileERK6idVec3RK8idAngles
	.align 2
	.globl _ZN4idAI14Event_AnimTurnEf
	.type	_ZN4idAI14Event_AnimTurnEf, @function
_ZN4idAI14Event_AnimTurnEf:
.LFB2945:
	.loc 2 2514 0
	.cfi_startproc
.LVL1084:
	stwu 1,-40(1)
.LCFI297:
	.cfi_def_cfa_offset 40
	.loc 2 2515 0
	lis 9,.LC0@ha
	.loc 2 2514 0
	mflr 0
	stfd 31,32(1)
	.loc 2 2515 0
	lfs 31,.LC0@l(9)
	.cfi_offset 63, -8
	.cfi_register 65, 0
	.loc 2 2514 0
	stw 30,16(1)
	mr 30,3
	.cfi_offset 30, -24
	.loc 2 2517 0
	fcmpu 7,1,31
	.loc 2 2514 0
	stfd 30,24(1)
	stw 0,44(1)
	fmr 30,1
	.cfi_offset 65, 4
	.cfi_offset 62, -16
	stw 31,20(1)
	.loc 2 2515 0
	stfs 31,4200(3)
	.loc 2 2516 0
	stfs 1,4212(30)
	.loc 2 2517 0
	beq- 7,.L609
	.cfi_offset 31, -20
	.loc 2 2518 0
	lfs 0,4192(3)
.LBB2968:
.LBB2969:
.LBB2970:
.LBB2971:
	.loc 7 904 0
	lis 31,.LC22@ha
.LBE2971:
.LBE2970:
.LBE2969:
.LBE2968:
	.loc 2 2519 0
	lfs 13,4188(3)
	.loc 2 2518 0
	stfs 0,4204(3)
	.loc 2 2519 0
	fsubs 13,0,13
	stfs 13,8(1)
.LVL1085:
.LBB2978:
.LBB2976:
.LBB2974:
.LBB2972:
	.loc 7 904 0
	lfs 13,.LC22@l(31)
.LVL1086:
	lfs 0,8(1)
	fcmpu 7,0,13
	cror 30,29,30
	bne- 7,.L619
.L610:
	.loc 7 905 0
	lfs 13,8(1)
	lfs 31,.LC22@l(31)
	fdivs 1,13,31
.LVL1087:
	bl floor
.LVL1088:
	lfs 0,8(1)
	.loc 2 2514 0
	fneg 1,1
	.loc 7 905 0
	fmadd 31,1,31,0
	frsp 31,31
	stfs 31,8(1)
.LVL1089:
.L611:
.LBE2972:
.LBE2974:
	.loc 7 912 0
	lis 9,.LC24@ha
	lfs 13,8(1)
	lfs 0,.LC24@l(9)
	fcmpu 7,13,0
	bng- 7,.L613
	.loc 7 913 0
	lfs 0,.LC22@l(31)
	fsubs 13,13,0
	stfs 13,8(1)
.LVL1090:
.L613:
.LBE2976:
.LBE2978:
.LBB2979:
.LBB2980:
	.loc 7 782 0
	lwz 9,8(1)
	rlwinm 0,9,0,1,31
.LBE2980:
.LBE2979:
	.loc 2 2520 0
	stw 0,12(1)
	lfs 0,12(1)
	.loc 2 2519 0
	stw 0,4208(30)
	.loc 2 2520 0
	fcmpu 7,30,0
	bnl- 7,.L608
	.loc 2 2521 0
	stfs 30,4208(30)
.L608:
	.loc 2 2530 0
	lwz 0,44(1)
	lwz 30,16(1)
.LVL1091:
	mtlr 0
	lwz 31,20(1)
	lfd 30,24(1)
.LVL1092:
	lfd 31,32(1)
	addi 1,1,40
	.cfi_remember_state
.LCFI298:
	.cfi_def_cfa_offset 0
	.cfi_restore 63
	.cfi_restore 62
	.cfi_restore 31
	.cfi_restore 30
	blr
.LVL1093:
.L619:
.LCFI299:
	.cfi_restore_state
.LBB2981:
.LBB2977:
.LBB2975:
.LBB2973:
	.loc 7 904 0
	fcmpu 7,0,31
	bnl- 7,.L611
	b .L610
.LVL1094:
.L609:
.LBE2973:
.LBE2975:
.LBE2977:
.LBE2981:
.LBB2982:
.LBB2983:
	.loc 2 2525 0
	addi 31,3,636
	.loc 2 2524 0
	stfs 31,4208(3)
	.loc 2 2525 0
	li 4,2
	mr 3,31
.LVL1095:
	bl _ZN10idAnimator11CurrentAnimEi
.LVL1096:
	lis 9,.LC11@ha
	lfs 30,.LC11@l(9)
.LVL1097:
	li 4,0
	fmr 1,30
	bl _ZN11idAnimBlend19SetSyncedAnimWeightEif
	.loc 2 2526 0
	mr 3,31
	li 4,2
	bl _ZN10idAnimator11CurrentAnimEi
	fmr 1,31
	li 4,1
	bl _ZN11idAnimBlend19SetSyncedAnimWeightEif
	.loc 2 2527 0
	mr 3,31
	li 4,1
	bl _ZN10idAnimator11CurrentAnimEi
	fmr 1,30
	li 4,0
	bl _ZN11idAnimBlend19SetSyncedAnimWeightEif
	.loc 2 2528 0
	mr 3,31
	li 4,1
	bl _ZN10idAnimator11CurrentAnimEi
	fmr 1,31
	li 4,1
	bl _ZN11idAnimBlend19SetSyncedAnimWeightEif
.LBE2983:
.LBE2982:
	.loc 2 2530 0
	lwz 0,44(1)
	lwz 30,16(1)
.LVL1098:
	mtlr 0
	lwz 31,20(1)
.LVL1099:
	lfd 30,24(1)
	lfd 31,32(1)
	addi 1,1,40
	.cfi_restore 30
	.cfi_restore 31
	.cfi_restore 62
	.cfi_restore 63
.LCFI300:
	.cfi_def_cfa_offset 0
	blr
	.cfi_endproc
.LFE2945:
	.size	_ZN4idAI14Event_AnimTurnEf, .-_ZN4idAI14Event_AnimTurnEf
	.align 2
	.globl _ZN4idAI21Event_GetJumpVelocityERK6idVec3ff
	.type	_ZN4idAI21Event_GetJumpVelocityERK6idVec3ff, @function
_ZN4idAI21Event_GetJumpVelocityERK6idVec3ff:
.LFB2873:
	.loc 2 1207 0
	.cfi_startproc
.LVL1100:
	mflr 0
	stwu 1,-104(1)
.LCFI301:
	.cfi_def_cfa_offset 104
	.cfi_register 65, 0
	stfd 30,88(1)
	fmr 30,2
	.cfi_offset 62, -16
	stfd 31,96(1)
	fmr 31,1
	.cfi_offset 63, -8
	stw 29,76(1)
	mr 29,4
	.cfi_offset 29, -28
	stw 30,80(1)
	mr 30,3
	.cfi_offset 30, -24
.LVL1101:
	stw 0,108(1)
	stw 28,72(1)
	stw 31,84(1)
.LBB3011:
.LBB3012:
.LBB3013:
	.loc 6 634 0
	lwz 0,5120(3)
	.cfi_offset 31, -20
	.cfi_offset 28, -32
	.cfi_offset 65, 4
	.loc 6 635 0
	lis 3,gameLocal@ha
.LVL1102:
	la 3,gameLocal@l(3)
	.loc 6 634 0
	rlwinm 9,0,0,20,31
.LVL1103:
	.loc 6 635 0
	srawi 0,0,12
	addi 11,9,4228
	slwi 11,11,2
	add 11,3,11
	lwz 11,4(11)
	cmpw 7,11,0
	beq- 7,.L633
.LVL1104:
.L629:
.LBE3013:
.LBE3012:
	.loc 2 1237 0
	lis 3,vec3_origin@ha
	la 3,vec3_origin@l(3)
	bl _ZN8idThread12ReturnVectorERK6idVec3
.LBE3011:
	.loc 2 1239 0
	lwz 0,108(1)
	lwz 28,72(1)
	mtlr 0
	lwz 29,76(1)
	lwz 30,80(1)
.LVL1105:
	lwz 31,84(1)
	lfd 30,88(1)
.LVL1106:
	lfd 31,96(1)
.LVL1107:
	addi 1,1,104
	.cfi_remember_state
.LCFI302:
	.cfi_def_cfa_offset 0
	.cfi_restore 63
	.cfi_restore 62
	.cfi_restore 31
	.cfi_restore 30
	.cfi_restore 29
	.cfi_restore 28
	blr
.LVL1108:
.L633:
.LCFI303:
	.cfi_restore_state
.LBB3070:
.LBB3015:
.LBB3014:
	.loc 6 636 0
	addi 9,9,132
.LVL1109:
	slwi 9,9,2
.LVL1110:
	add 9,3,9
	lwz 31,4(9)
.LBE3014:
.LBE3015:
	.loc 2 1215 0
	cmpwi 7,31,0
	beq- 7,.L629
	.loc 2 1220 0
	lis 9,.LC0@ha
	lfs 0,.LC0@l(9)
	fcmpu 7,1,0
	cror 30,28,30
	beq- 7,.L634
.LVL1111:
.L624:
	.loc 2 1224 0
	addi 28,30,4216
	li 4,0
	mr 3,28
	bl _ZNK15idPhysics_Actor9GetOriginEi
.LVL1112:
.LBB3016:
.LBB3017:
	.loc 3 425 0
	lfs 7,4(29)
.LBE3017:
.LBE3016:
.LBB3021:
.LBB3022:
	lfs 1,4(3)
	.loc 3 424 0
	lfs 0,0(3)
.LBE3022:
.LBE3021:
.LBB3026:
.LBB3027:
	.loc 3 431 0
	fsubs 12,7,1
.LBE3027:
.LBE3026:
.LBB3032:
.LBB3018:
	.loc 3 424 0
	lfs 6,0(29)
.LBE3018:
.LBE3032:
.LBB3033:
.LBB3023:
	.loc 3 426 0
	lfs 2,8(3)
.LBE3023:
.LBE3033:
.LBB3034:
.LBB3028:
	.loc 3 431 0
	fsubs 11,6,0
.LBE3028:
.LBE3034:
.LBB3035:
.LBB3019:
	.loc 3 426 0
	lfs 8,8(29)
.LBE3019:
.LBE3035:
.LBB3036:
.LBB3037:
	.loc 3 649 0
	fmuls 10,12,12
.LBE3037:
.LBE3036:
.LBB3050:
.LBB3024:
	.loc 3 424 0
	stfs 0,52(1)
.LBE3024:
.LBE3050:
.LBB3051:
.LBB3029:
	.loc 3 431 0
	fsubs 13,8,2
.LBE3029:
.LBE3051:
.LBB3052:
.LBB3025:
	.loc 3 425 0
	stfs 1,56(1)
	.loc 3 426 0
	stfs 2,60(1)
.LBE3025:
.LBE3052:
.LBB3053:
.LBB3030:
	.loc 3 649 0
	fmadds 10,11,11,10
.LBE3030:
.LBE3053:
.LBB3054:
.LBB3020:
	.loc 3 424 0
	stfs 6,40(1)
	.loc 3 425 0
	stfs 7,44(1)
	.loc 3 426 0
	stfs 8,48(1)
.LBE3020:
.LBE3054:
.LBB3055:
.LBB3031:
	.loc 3 649 0
	fmadds 10,13,13,10
	stfs 10,64(1)
.LBE3031:
.LBE3055:
.LBB3056:
.LBB3046:
.LBB3038:
.LBB3039:
	.loc 7 270 0
	lwz 0,64(1)
	.loc 7 276 0
	rlwinm 11,0,9,24,31
	rlwinm 9,0,19,21,29
	subfic 0,11,380
	lis 11,_ZN6idMath5iSqrtE@ha
	la 11,_ZN6idMath5iSqrtE@l(11)
	rlwinm 0,0,22,0,8
	lwzx 9,11,9
	.loc 7 275 0
	lis 11,.LC13@ha
	lfs 3,.LC13@l(11)
	.loc 7 276 0
	or 0,0,9
	.loc 7 278 0
	lis 9,.LC16@ha
	.loc 7 277 0
	stw 0,68(1)
	.loc 7 275 0
	fmuls 3,10,3
	.loc 7 278 0
	lfs 4,.LC16@l(9)
.LBE3039:
.LBE3038:
.LBE3046:
.LBE3056:
	.loc 2 1228 0
	lis 9,.LC175@ha
.LBB3057:
.LBB3047:
.LBB3043:
.LBB3040:
	.loc 7 277 0
	lfs 10,68(1)
	.loc 2 1207 0
	fneg 3,3
.LBE3040:
.LBE3043:
.LBE3047:
.LBE3057:
	.loc 2 1228 0
	lfs 5,.LC175@l(9)
.LBB3058:
.LBB3048:
.LBB3044:
.LBB3041:
	.loc 7 277 0
	fmr 9,10
	.loc 7 278 0
	fmul 10,9,9
.LVL1113:
	fmadd 10,3,10,4
	fmul 10,9,10
.LVL1114:
.LBE3041:
.LBE3044:
	.loc 3 654 0
	lfs 9,64(1)
.LBB3045:
.LBB3042:
	.loc 7 279 0
	fmul 0,10,10
	fmadd 0,3,0,4
.LVL1115:
	fmul 0,10,0
.LVL1116:
	.loc 7 280 0
	frsp 0,0
.LVL1117:
.LBE3042:
.LBE3045:
	.loc 3 654 0
	fmuls 10,9,0
	.loc 3 651 0
	fmuls 11,11,0
.LVL1118:
	.loc 3 652 0
	fmuls 12,12,0
.LVL1119:
.LBE3048:
.LBE3058:
	.loc 2 1228 0
	fcmpu 7,10,5
.LBB3059:
.LBB3049:
	.loc 3 653 0
	fmuls 0,13,0
	.loc 3 651 0
	stfs 11,28(1)
	.loc 3 652 0
	stfs 12,32(1)
	.loc 3 653 0
	stfs 0,36(1)
.LBE3049:
.LBE3059:
	.loc 2 1228 0
	bng- 7,.L626
.LVL1120:
.LBB3060:
.LBB3061:
	.loc 2 1207 0
	fneg 11,11
.LVL1121:
	fneg 12,12
.LVL1122:
	fneg 0,0
.LVL1123:
	.loc 3 481 0
	fmadds 6,11,5,6
	.loc 3 482 0
	fmadds 7,12,5,7
	.loc 3 483 0
	fmadds 8,0,5,8
	.loc 3 481 0
	stfs 6,40(1)
	.loc 3 482 0
	stfs 7,44(1)
	.loc 3 483 0
	stfs 8,48(1)
.LVL1124:
.L626:
.LBE3061:
.LBE3060:
	.loc 2 1233 0
	mr 3,28
.LVL1125:
	bl _ZNK14idPhysics_Base10GetGravityEv
.LVL1126:
	li 4,0
	mr 29,3
.LVL1127:
	mr 3,28
	bl _ZNK15idPhysics_Actor12GetClipModelEi
.LBB3062:
.LBB3063:
	lis 9,ai_debugMove+44@ha
	.loc 14 142 0
	lwz 9,ai_debugMove+44@l(9)
.LBE3063:
.LBE3062:
	.loc 2 1233 0
	fmr 1,31
	fmr 2,30
	mr 6,3
	lwz 10,36(9)
	addi 0,1,28
	addi 3,1,52
	addi 4,1,40
	addic 10,10,-1
	subfe 10,10,10
	mr 5,29
	nor 10,10,10
	stw 0,8(1)
	andi. 10,10,4000
	li 7,273
	mr 8,30
	mr 9,31
	bl _ZN4idAI17PredictTrajectoryERK6idVec3S2_fS2_PK11idClipModelifPK8idEntityS8_iRS0_
.LVL1128:
	.loc 2 1234 0
	cmpwi 7,3,0
	beq+ 7,.L629
.LVL1129:
.LBB3064:
.LBB3065:
	.loc 3 439 0
	lfs 13,32(1)
.LBE3065:
.LBE3064:
	.loc 2 1235 0
	addi 3,1,16
.LVL1130:
.LBB3069:
.LBB3068:
	.loc 3 439 0
	lfs 0,36(1)
	lfs 12,28(1)
	fmuls 13,31,13
	fmuls 0,31,0
.LVL1131:
	fmuls 31,31,12
.LVL1132:
.LBB3066:
.LBB3067:
	.loc 3 397 0
	stfs 13,20(1)
	.loc 3 398 0
	stfs 0,24(1)
	.loc 3 396 0
	stfs 31,16(1)
.LBE3067:
.LBE3066:
.LBE3068:
.LBE3069:
	.loc 2 1235 0
	bl _ZN8idThread12ReturnVectorERK6idVec3
.LVL1133:
.LBE3070:
	.loc 2 1239 0
	lwz 0,108(1)
	lwz 28,72(1)
	mtlr 0
	lwz 29,76(1)
	lwz 30,80(1)
.LVL1134:
	lwz 31,84(1)
	lfd 30,88(1)
.LVL1135:
	lfd 31,96(1)
.LVL1136:
	addi 1,1,104
	.cfi_remember_state
	.cfi_restore 28
	.cfi_restore 29
	.cfi_restore 30
	.cfi_restore 31
	.cfi_restore 62
	.cfi_restore 63
.LCFI304:
	.cfi_def_cfa_offset 0
	blr
.LVL1137:
.L634:
.LCFI305:
	.cfi_restore_state
.LBB3071:
	.loc 2 1221 0
	lis 4,.LC173@ha
.LVL1138:
	la 4,.LC173@l(4)
	crxor 6,6,6
	bl _ZNK11idGameLocal5ErrorEPKcz
.LVL1139:
	b .L624
.LBE3071:
	.cfi_endproc
.LFE2873:
	.size	_ZN4idAI21Event_GetJumpVelocityERK6idVec3ff, .-_ZN4idAI21Event_GetJumpVelocityERK6idVec3ff
	.align 2
	.globl _ZN4idAI24Event_EntityInAttackConeEP8idEntity
	.type	_ZN4idAI24Event_EntityInAttackConeEP8idEntity, @function
_ZN4idAI24Event_EntityInAttackConeEP8idEntity:
.LFB2874:
	.loc 2 1246 0
	.cfi_startproc
.LVL1140:
.LBB3100:
	.loc 2 1252 0
	cmpwi 0,4,0
.LBE3100:
	.loc 2 1246 0
	mflr 0
	stwu 1,-80(1)
.LCFI306:
	.cfi_def_cfa_offset 80
	.cfi_register 65, 0
	stw 31,60(1)
	mr 31,3
	.cfi_offset 31, -20
	stw 0,84(1)
	stfd 30,64(1)
	stfd 31,72(1)
	stw 29,52(1)
	stw 30,56(1)
.LBB3174:
	.loc 2 1252 0
	beq- 0,.L649
	.cfi_offset 30, -24
	.cfi_offset 29, -28
	.cfi_offset 63, -8
	.cfi_offset 62, -16
	.cfi_offset 65, 4
	.loc 2 1257 0
	mr 3,4
.LVL1141:
.LBB3101:
.LBB3102:
.LBB3103:
.LBB3104:
	.loc 7 275 0
	lis 29,.LC13@ha
.LBE3104:
.LBE3103:
.LBE3102:
.LBE3101:
	.loc 2 1257 0
	bl _ZNK8idEntity10GetPhysicsEv
.LVL1142:
	li 4,0
	lwz 9,0(3)
	lwz 0,132(9)
	mtctr 0
	bctrl
	mr 4,31
	mr 30,3
	addi 3,1,8
	bl _ZNK7idActor14GetEyePositionEv
.LVL1143:
.LBB3119:
.LBB3120:
	.loc 3 431 0
	lfs 12,4(30)
	lfs 0,12(1)
.LBE3120:
.LBE3119:
	.loc 2 1260 0
	mr 3,31
.LBB3123:
.LBB3121:
	.loc 3 431 0
	lfs 13,8(30)
	fsubs 12,12,0
	lfs 0,16(1)
	lfs 11,0(30)
	fsubs 0,13,0
.LVL1144:
	lfs 13,8(1)
.LBE3121:
.LBE3123:
.LBB3124:
.LBB3125:
	.loc 3 425 0
	stfs 12,24(1)
.LBE3125:
.LBE3124:
.LBB3127:
.LBB3122:
	.loc 3 431 0
	fsubs 13,11,13
.LBE3122:
.LBE3127:
.LBB3128:
.LBB3126:
	.loc 3 426 0
	stfs 0,28(1)
	.loc 3 424 0
	stfs 13,20(1)
.LBE3126:
.LBE3128:
	.loc 2 1260 0
	bl _ZNK8idEntity10GetPhysicsEv
.LVL1145:
	lwz 9,0(3)
	lwz 0,164(9)
	mtctr 0
	bctrl
.LVL1146:
.LBB3129:
.LBB3130:
	.loc 3 435 0
	lfs 7,24(1)
	lfs 12,4(3)
.LBE3130:
.LBE3129:
.LBB3135:
.LBB3115:
.LBB3110:
.LBB3105:
	.loc 7 278 0
	lis 9,.LC16@ha
.LBE3105:
.LBE3110:
.LBE3115:
.LBE3135:
.LBB3136:
.LBB3131:
	.loc 3 435 0
	lfs 11,0(3)
	fmuls 10,12,7
	lfs 8,20(1)
	lfs 0,8(3)
	.loc 2 1246 0
	fneg 12,12
	.loc 3 435 0
	lfs 9,28(1)
.LBE3131:
.LBE3136:
	.loc 2 1266 0
	addi 3,1,20
.LVL1147:
.LBB3137:
.LBB3132:
	.loc 3 435 0
	fmadds 10,11,8,10
	.loc 2 1246 0
	fneg 11,11
	.loc 3 435 0
	fmadds 10,0,9,10
.LVL1148:
	.loc 2 1246 0
	fneg 0,0
.LVL1149:
	.loc 3 482 0
	fmadds 12,12,10,7
.LBE3132:
.LBE3137:
.LBB3138:
.LBB3116:
.LBB3111:
.LBB3106:
	.loc 7 275 0
	lfs 7,.LC13@l(29)
.LBE3106:
.LBE3111:
.LBE3116:
.LBE3138:
.LBB3139:
.LBB3133:
	.loc 3 483 0
	fmadds 13,0,10,9
.LVL1150:
	.loc 3 481 0
	fmadds 11,11,10,8
.LBE3133:
.LBE3139:
.LBB3140:
.LBB3117:
.LBB3112:
.LBB3107:
	.loc 7 278 0
	lfs 8,.LC16@l(9)
.LBE3107:
.LBE3112:
	.loc 3 649 0
	fmuls 0,12,12
.LBB3113:
.LBB3108:
	.loc 7 276 0
	lis 9,_ZN6idMath5iSqrtE@ha
	la 9,_ZN6idMath5iSqrtE@l(9)
.LBE3108:
.LBE3113:
.LBE3117:
.LBE3140:
.LBB3141:
.LBB3134:
	.loc 3 649 0
	fmadds 0,11,11,0
	fmadds 0,13,13,0
	stfs 0,40(1)
.LVL1151:
.LBE3134:
.LBE3141:
.LBB3142:
.LBB3118:
.LBB3114:
.LBB3109:
	.loc 7 275 0
	fmuls 7,0,7
	.loc 7 270 0
	lwz 0,40(1)
.LVL1152:
	.loc 2 1246 0
	fneg 7,7
	.loc 7 276 0
	rlwinm 11,0,9,24,31
	rlwinm 0,0,19,21,29
	lwzx 9,9,0
	subfic 0,11,380
	rlwinm 0,0,22,0,8
	or 0,0,9
	.loc 7 277 0
	stw 0,44(1)
	lfs 0,44(1)
.LVL1153:
	fmr 9,0
.LVL1154:
	.loc 7 278 0
	fmul 10,9,9
.LVL1155:
	fmadd 10,7,10,8
	fmul 10,9,10
.LVL1156:
	.loc 7 279 0
	fmul 0,10,10
	fmadd 0,7,0,8
.LVL1157:
	fmul 0,10,0
.LVL1158:
	.loc 7 280 0
	frsp 0,0
.LVL1159:
.LBE3109:
.LBE3114:
	.loc 3 651 0
	fmuls 11,11,0
	.loc 3 652 0
	fmuls 12,12,0
	.loc 3 653 0
	fmuls 0,13,0
	.loc 3 651 0
	stfs 11,20(1)
	.loc 3 652 0
	stfs 12,24(1)
	.loc 3 653 0
	stfs 0,28(1)
.LBE3118:
.LBE3142:
	.loc 2 1266 0
	bl _ZNK6idVec35ToYawEv
.LBB3143:
.LBB3144:
.LBB3145:
.LBB3146:
	.loc 17 241 0
	lis 4,.LC177@ha
	addi 3,31,100
	la 4,.LC177@l(4)
.LBE3146:
.LBE3145:
.LBE3144:
.LBE3143:
	.loc 2 1266 0
	fmr 31,1
.LVL1160:
.LBB3155:
.LBB3152:
.LBB3150:
.LBB3148:
	.loc 17 241 0
	bl _ZNK6idDict7FindKeyEPKc
.LVL1161:
	.loc 17 242 0
	cmpwi 0,3,0
	beq- 0,.L646
.LVL1162:
.LBB3147:
	.loc 2 2707 0
	lwz 9,4(3)
	lwz 3,4(9)
.LVL1163:
.L638:
.LBE3147:
.LBE3148:
.LBE3150:
	.loc 17 249 0
	bl atof
.LBE3152:
.LBE3155:
	.loc 2 1269 0
	lfs 0,4188(31)
.LBB3156:
.LBB3157:
.LBB3158:
.LBB3159:
	.loc 7 904 0
	lis 31,.LC22@ha
.LVL1164:
.LBE3159:
.LBE3158:
.LBE3157:
.LBE3156:
.LBB3166:
.LBB3153:
	.loc 17 249 0
	frsp 30,1
.LVL1165:
.LBE3153:
.LBE3166:
	.loc 2 1269 0
	fsubs 0,0,31
	stfs 0,40(1)
.LBB3167:
.LBB3164:
.LBB3162:
.LBB3160:
	.loc 7 904 0
	lfs 0,.LC22@l(31)
	lfs 13,40(1)
	fcmpu 7,13,0
	cror 30,29,30
	bne- 7,.L650
.L639:
	.loc 7 905 0
	lfs 0,40(1)
	lfs 31,.LC22@l(31)
.LVL1166:
	fdivs 1,0,31
	bl floor
	lfs 0,40(1)
	.loc 2 1246 0
	fneg 1,1
	.loc 7 905 0
	fmadd 31,1,31,0
	frsp 31,31
	stfs 31,40(1)
.LVL1167:
.L640:
.LBE3160:
.LBE3162:
	.loc 7 912 0
	lis 9,.LC24@ha
	lfs 13,40(1)
	lfs 0,.LC24@l(9)
	fcmpu 7,13,0
	bng- 7,.L642
	.loc 7 913 0
	lfs 0,.LC22@l(31)
	fsubs 13,13,0
	stfs 13,40(1)
.LVL1168:
.L642:
.LBE3164:
.LBE3167:
.LBB3168:
.LBB3169:
	.loc 7 781 0
	lwz 9,40(1)
.LBE3169:
.LBE3168:
	.loc 2 1270 0
	lfs 0,.LC13@l(29)
.LBB3171:
.LBB3170:
	.loc 7 781 0
	rlwinm 0,9,0,1,31
.LBE3170:
.LBE3171:
	.loc 2 1270 0
	stw 0,44(1)
	fmuls 30,30,0
.LVL1169:
	lfs 0,44(1)
	fcmpu 7,30,0
	bgt- 7,.L651
.LVL1170:
.L649:
	.loc 2 1273 0
	li 3,0
	bl _ZN8idThread9ReturnIntEi
.LBE3174:
	.loc 2 1275 0
	lwz 0,84(1)
	lwz 29,52(1)
	mtlr 0
	lwz 30,56(1)
	lwz 31,60(1)
	lfd 30,64(1)
	lfd 31,72(1)
	addi 1,1,80
	.cfi_remember_state
.LCFI307:
	.cfi_def_cfa_offset 0
	.cfi_restore 63
	.cfi_restore 62
	.cfi_restore 31
	.cfi_restore 30
	.cfi_restore 29
	blr
.LVL1171:
.L650:
.LCFI308:
	.cfi_restore_state
.LBB3175:
.LBB3172:
.LBB3165:
.LBB3163:
.LBB3161:
	.loc 7 904 0
	lis 9,.LC0@ha
	lfs 0,.LC0@l(9)
	fcmpu 7,13,0
	bnl- 7,.L640
	b .L639
.LVL1172:
.L651:
.LBE3161:
.LBE3163:
.LBE3165:
.LBE3172:
	.loc 2 1271 0
	li 3,1
	bl _ZN8idThread9ReturnIntEi
.LVL1173:
.LBE3175:
	.loc 2 1275 0
	lwz 0,84(1)
	lwz 29,52(1)
	mtlr 0
	lwz 30,56(1)
.LVL1174:
	lwz 31,60(1)
	lfd 30,64(1)
	lfd 31,72(1)
	addi 1,1,80
	.cfi_remember_state
	.cfi_restore 29
	.cfi_restore 30
	.cfi_restore 31
	.cfi_restore 62
	.cfi_restore 63
.LCFI309:
	.cfi_def_cfa_offset 0
	blr
.LVL1175:
.L646:
.LCFI310:
	.cfi_restore_state
.LBB3176:
.LBB3173:
.LBB3154:
.LBB3151:
.LBB3149:
	.loc 17 245 0
	lis 3,.LC176@ha
.LVL1176:
	la 3,.LC176@l(3)
	b .L638
.LBE3149:
.LBE3151:
.LBE3154:
.LBE3173:
.LBE3176:
	.cfi_endproc
.LFE2874:
	.size	_ZN4idAI24Event_EntityInAttackConeEP8idEntity, .-_ZN4idAI24Event_EntityInAttackConeEP8idEntity
	.align 2
	.globl _ZN4idAI17Event_CanHitEnemyEv
	.type	_ZN4idAI17Event_CanHitEnemyEv, @function
_ZN4idAI17Event_CanHitEnemyEv:
.LFB2888:
	.loc 2 1422 0
	.cfi_startproc
.LVL1177:
	mflr 0
	stwu 1,-176(1)
.LCFI311:
	.cfi_def_cfa_offset 176
	.cfi_register 65, 0
	stw 29,164(1)
.LBB3204:
.LBB3205:
.LBB3206:
	.loc 6 638 0
	li 29,0
	.cfi_offset 29, -12
.LBE3206:
.LBE3205:
.LBE3204:
	.loc 2 1422 0
	stw 30,168(1)
.LBB3282:
.LBB3211:
.LBB3207:
	.loc 6 635 0
	lis 30,gameLocal@ha
	.cfi_offset 30, -8
.LBE3207:
.LBE3211:
.LBE3282:
	.loc 2 1422 0
	stw 31,172(1)
.LBB3283:
.LBB3212:
.LBB3208:
	.loc 6 635 0
	la 30,gameLocal@l(30)
.LBE3208:
.LBE3212:
.LBE3283:
	.loc 2 1422 0
	stw 0,180(1)
	.loc 2 1422 0
	mr 31,3
	.cfi_offset 65, 4
	.cfi_offset 31, -4
.LVL1178:
.LBB3284:
.LBB3213:
.LBB3209:
	.loc 6 634 0
	lwz 0,5120(3)
	rlwinm 9,0,0,20,31
.LVL1179:
	.loc 6 635 0
	srawi 0,0,12
	addi 11,9,4228
	slwi 11,11,2
	add 11,30,11
	lwz 11,4(11)
	cmpw 7,11,0
	beq- 7,.L668
.LVL1180:
.LBE3209:
.LBE3213:
.LBB3214:
.LBB3215:
	.loc 5 249 0
	lwz 9,5196(31)
.LVL1181:
	cmpwi 7,9,0
	beq- 7,.L654
.LVL1182:
.L671:
.LBE3215:
.LBE3214:
	.loc 2 1427 0
	lwz 0,0(9)
	cmpwi 7,0,0
	beq- 7,.L654
	.loc 2 1427 0 is_stmt 0 discriminator 2
	cmpwi 7,29,0
	beq- 7,.L654
	.loc 2 1433 0 is_stmt 1
	addis 9,30,0x25
	lwz 0,2004(9)
	lwz 9,4552(31)
	cmpw 7,0,9
	beq- 7,.L669
	.loc 2 1438 0
	stw 0,4552(31)
	.loc 2 1440 0
	addi 3,1,20
.LVL1183:
	mr 4,29
	bl _ZNK7idActor14GetEyePositionEv
	.loc 2 1441 0
	addi 3,1,8
	mr 4,31
	bl _ZNK7idActor14GetEyePositionEv
.LVL1184:
.LBB3217:
.LBB3218:
	.loc 3 431 0
	lfs 6,12(1)
	lfs 11,24(1)
.LBE3218:
.LBE3217:
.LBB3225:
.LBB3226:
.LBB3227:
.LBB3228:
	.loc 7 276 0
	lis 9,_ZN6idMath5iSqrtE@ha
.LBE3228:
.LBE3227:
.LBE3226:
.LBE3225:
.LBB3245:
.LBB3219:
	.loc 3 431 0
	lfs 5,8(1)
.LBE3219:
.LBE3245:
.LBB3246:
.LBB3239:
.LBB3234:
.LBB3229:
	.loc 7 276 0
	la 9,_ZN6idMath5iSqrtE@l(9)
.LBE3229:
.LBE3234:
.LBE3239:
.LBE3246:
.LBB3247:
.LBB3220:
	.loc 3 431 0
	fsubs 11,11,6
	lfs 10,20(1)
	lfs 7,16(1)
.LBE3220:
.LBE3247:
.LBB3248:
.LBB3249:
	.file 19 "d:/Data/Nintendo/DoomGX/src/game/ai/../physics/Clip.h"
	.loc 19 334 0
	lis 8,mat3_identity@ha
.LBE3249:
.LBE3248:
.LBB3255:
.LBB3221:
	.loc 3 431 0
	fsubs 10,10,5
	lfs 12,28(1)
.LBE3221:
.LBE3255:
.LBB3256:
.LBB3240:
	.loc 3 649 0
	fmuls 0,11,11
.LBE3240:
.LBE3256:
.LBB3257:
.LBB3250:
	.loc 19 334 0
	lis 3,gameLocal+2311032@ha
.LBE3250:
.LBE3257:
.LBB3258:
.LBB3222:
	.loc 3 431 0
	fsubs 12,12,7
.LVL1185:
.LBE3222:
.LBE3258:
.LBB3259:
.LBB3251:
	.loc 19 334 0
	addi 5,1,8
.LVL1186:
	addi 6,1,20
.LVL1187:
	li 7,0
.LBE3251:
.LBE3259:
.LBB3260:
.LBB3223:
	.loc 3 649 0
	fmadds 0,10,10,0
.LBE3223:
.LBE3260:
.LBB3261:
.LBB3252:
	.loc 19 334 0
	la 8,mat3_identity@l(8)
	mr 10,31
	addi 4,1,32
	la 3,gameLocal+2311032@l(3)
.LBE3252:
.LBE3261:
.LBB3262:
.LBB3224:
	.loc 3 649 0
	fmadds 0,12,12,0
	stfs 0,152(1)
.LVL1188:
.LBE3224:
.LBE3262:
.LBB3263:
.LBB3241:
.LBB3235:
.LBB3230:
	.loc 7 270 0
	lwz 0,152(1)
.LVL1189:
	.loc 7 276 0
	rlwinm 11,0,9,24,31
	rlwinm 0,0,19,21,29
	lwzx 9,9,0
	subfic 0,11,380
	rlwinm 0,0,22,0,8
	.loc 7 275 0
	lis 11,.LC13@ha
	.loc 7 276 0
	or 0,0,9
	.loc 7 275 0
	lfs 3,.LC13@l(11)
	.loc 7 277 0
	stw 0,156(1)
	.loc 7 278 0
	lis 9,.LC16@ha
	.loc 7 275 0
	fmuls 3,0,3
.LVL1190:
	.loc 7 278 0
	lfs 4,.LC16@l(9)
	.loc 7 277 0
	lfs 0,156(1)
.LVL1191:
.LBE3230:
.LBE3235:
.LBE3241:
.LBE3263:
.LBB3264:
.LBB3265:
	.loc 3 452 0
	lis 9,.LC178@ha
.LBE3265:
.LBE3264:
.LBB3268:
.LBB3242:
.LBB3236:
.LBB3231:
	.loc 7 277 0
	fmr 8,0
.LVL1192:
.LBE3231:
.LBE3236:
.LBE3242:
.LBE3268:
.LBB3269:
.LBB3266:
	.loc 3 452 0
	lfs 0,.LC178@l(9)
.LVL1193:
.LBE3266:
.LBE3269:
.LBB3270:
.LBB3243:
.LBB3237:
.LBB3232:
	.loc 2 1422 0
	fneg 3,3
.LVL1194:
.LBE3232:
.LBE3237:
.LBE3243:
.LBE3270:
.LBB3271:
.LBB3253:
	.loc 19 334 0
	li 9,257
.LBE3253:
.LBE3271:
.LBB3272:
.LBB3244:
.LBB3238:
.LBB3233:
	.loc 7 278 0
	fmul 9,8,8
	fmadd 9,3,9,4
	fmul 9,8,9
.LVL1195:
	.loc 7 279 0
	fmul 13,9,9
	fmadd 13,3,13,4
.LVL1196:
	fmul 13,9,13
.LVL1197:
	.loc 7 280 0
	frsp 13,13
.LVL1198:
.LBE3233:
.LBE3238:
	.loc 3 651 0
	fmuls 10,10,13
.LVL1199:
	.loc 3 652 0
	fmuls 11,11,13
.LVL1200:
	.loc 3 653 0
	fmuls 13,12,13
.LVL1201:
.LBE3244:
.LBE3272:
.LBB3273:
.LBB3267:
	.loc 3 452 0
	fmadds 5,10,0,5
.LVL1202:
	fmadds 6,11,0,6
.LVL1203:
	fmadds 0,13,0,7
.LVL1204:
	.loc 3 424 0
	stfs 5,20(1)
	.loc 3 425 0
	stfs 6,24(1)
	.loc 3 426 0
	stfs 0,28(1)
.LVL1205:
.LBE3267:
.LBE3273:
.LBB3274:
.LBB3254:
	.loc 19 334 0
	bl _ZN6idClip11TranslationER7trace_sRK6idVec3S4_PK11idClipModelRK6idMat3iPK8idEntity
.LVL1206:
.LBE3254:
.LBE3274:
	.loc 2 1449 0
	mr 3,30
	addi 4,1,32
.LVL1207:
	bl _ZNK11idGameLocal14GetTraceEntityERK7trace_s
.LVL1208:
	.loc 2 1450 0
	lis 9,.LC11@ha
	lfs 0,.LC11@l(9)
	.loc 2 1449 0
	mr 30,3
.LVL1209:
	.loc 2 1450 0
	lfs 13,32(1)
	fcmpu 7,13,0
	cror 26,29,30
	beq- 6,.L667
	.loc 2 1450 0 is_stmt 0 discriminator 1
	cmpw 6,3,29
	beq- 6,.L667
	.loc 2 1452 0 is_stmt 1
	blt- 7,.L670
.LVL1210:
.L660:
	.loc 2 1456 0
	li 0,0
	li 3,0
	stb 0,4548(31)
.L659:
	.loc 2 1459 0
	bl _ZN8idThread9ReturnIntEi
.LVL1211:
.L652:
.LBE3284:
	.loc 2 1460 0
	lwz 0,180(1)
	lwz 29,164(1)
	mtlr 0
	lwz 30,168(1)
	lwz 31,172(1)
.LVL1212:
	addi 1,1,176
	.cfi_remember_state
.LCFI312:
	.cfi_def_cfa_offset 0
	.cfi_restore 31
	.cfi_restore 30
	.cfi_restore 29
	blr
.LVL1213:
.L670:
.LCFI313:
	.cfi_restore_state
.LBB3285:
.LBB3275:
.LBB3276:
	.loc 8 340 0 discriminator 1
	lwz 9,0(3)
	lwz 0,0(9)
	mtctr 0
	bctrl
.LVL1214:
.LBE3276:
	.loc 2 1452 0 discriminator 1
	lis 9,.LANCHOR0@ha
	la 9,.LANCHOR0@l(9)
	.loc 2 2707 0 discriminator 1
	lwz 0,56(3)
.LBB3279:
.LBB3277:
.LBB3278:
	.loc 8 311 0 discriminator 1
	lwz 11,56(9)
	cmpw 7,0,11
	blt- 7,.L660
	.loc 8 311 0 is_stmt 0
	lwz 9,60(9)
	cmpw 7,0,9
	bgt- 7,.L660
.LBE3278:
.LBE3277:
.LBE3279:
.LBE3275:
	.loc 2 1452 0 is_stmt 1
	lwz 9,2260(30)
	lwz 0,2260(31)
	cmpw 7,9,0
	beq- 7,.L660
.LVL1215:
.L667:
	.loc 2 1454 0 discriminator 5
	li 0,1
	li 3,1
	stb 0,4548(31)
	b .L659
.LVL1216:
.L668:
.LBB3280:
.LBB3210:
	.loc 6 636 0
	addi 9,9,132
.LVL1217:
	slwi 9,9,2
.LVL1218:
	add 9,30,9
	lwz 29,4(9)
.LVL1219:
.LBE3210:
.LBE3280:
.LBB3281:
.LBB3216:
	.loc 5 249 0
	lwz 9,5196(31)
	cmpwi 7,9,0
	bne+ 7,.L671
.LVL1220:
.L654:
.LBE3216:
.LBE3281:
	.loc 2 1428 0 discriminator 4
	li 3,0
	bl _ZN8idThread9ReturnIntEi
	.loc 2 1429 0 discriminator 4
	b .L652
.L669:
	.loc 2 1434 0
	lbz 3,4548(31)
	bl _ZN8idThread9ReturnIntEi
.LBE3285:
	.loc 2 1460 0
	lwz 0,180(1)
	lwz 29,164(1)
	mtlr 0
	lwz 30,168(1)
	lwz 31,172(1)
.LVL1221:
	addi 1,1,176
	.cfi_restore 29
	.cfi_restore 30
	.cfi_restore 31
.LCFI314:
	.cfi_def_cfa_offset 0
	blr
	.cfi_endproc
.LFE2888:
	.size	_ZN4idAI17Event_CanHitEnemyEv, .-_ZN4idAI17Event_CanHitEnemyEv
	.align 2
	.globl _ZN4idAI25Event_CanHitEnemyFromAnimEPKc
	.type	_ZN4idAI25Event_CanHitEnemyFromAnimEPKc, @function
_ZN4idAI25Event_CanHitEnemyFromAnimEPKc:
.LFB2889:
	.loc 2 1467 0
	.cfi_startproc
.LVL1222:
	mflr 0
	stwu 1,-296(1)
.LCFI315:
	.cfi_def_cfa_offset 296
	.cfi_register 65, 0
	mr 5,4
	stw 29,284(1)
.LBB3453:
.LBB3454:
.LBB3455:
	.loc 6 638 0
	li 29,0
	.cfi_offset 29, -12
.LBE3455:
.LBE3454:
.LBE3453:
	.loc 2 1467 0
	stw 30,288(1)
.LBB3667:
.LBB3460:
.LBB3456:
	.loc 6 635 0
	lis 30,gameLocal@ha
	.cfi_offset 30, -8
.LBE3456:
.LBE3460:
.LBE3667:
	.loc 2 1467 0
	stw 31,292(1)
.LBB3668:
.LBB3461:
.LBB3457:
	.loc 6 635 0
	la 30,gameLocal@l(30)
.LBE3457:
.LBE3461:
.LBE3668:
	.loc 2 1467 0
	stw 0,300(1)
	mr 31,3
	.cfi_offset 65, 4
	.cfi_offset 31, -4
.LVL1223:
	stw 26,272(1)
	stw 27,276(1)
	stw 28,280(1)
.LBB3669:
.LBB3462:
.LBB3458:
	.loc 6 634 0
	lwz 0,5120(3)
	rlwinm 9,0,0,20,31
.LVL1224:
	.loc 6 635 0
	srawi 0,0,12
	addi 11,9,4228
	slwi 11,11,2
	add 11,30,11
	lwz 11,4(11)
	cmpw 7,11,0
	beq- 7,.L701
	.cfi_offset 28, -16
	.cfi_offset 27, -20
	.cfi_offset 26, -24
.LVL1225:
.LBE3458:
.LBE3462:
.LBB3463:
.LBB3464:
	.loc 5 249 0
	lwz 9,5196(31)
.LVL1226:
	cmpwi 7,9,0
	beq- 7,.L674
.LVL1227:
.L706:
.LBE3464:
.LBE3463:
	.loc 2 1478 0
	lwz 0,0(9)
	cmpwi 7,0,0
	beq- 7,.L674
	.loc 2 1478 0 is_stmt 0 discriminator 2
	cmpwi 7,29,0
	beq- 7,.L674
	.loc 2 1483 0 is_stmt 1
	mr 3,31
.LVL1228:
	li 4,2
.LVL1229:
	bl _ZN7idActor7GetAnimEiPKc
.LVL1230:
	.loc 2 1484 0
	mr. 26,3
	beq- 0,.L690
	.loc 2 1490 0
	mr 3,29
.LVL1231:
	addi 29,31,4216
	bl _ZNK8idEntity10GetPhysicsEv
	li 4,-1
	lwz 9,0(3)
	lwz 0,60(9)
	mtctr 0
	bctrl
	li 4,-1
	mr 28,3
	mr 3,29
	bl _ZNK15idPhysics_Actor12GetAbsBoundsEi
.LVL1232:
.LBB3466:
.LBB3467:
	.loc 18 319 0
	lis 9,.LC175@ha
	lfs 12,12(3)
	lfs 0,.LC175@l(9)
.LBE3467:
.LBE3466:
.LBB3485:
.LBB3486:
	.loc 18 362 0
	lfs 13,0(28)
.LBE3486:
.LBE3485:
.LBB3494:
.LBB3478:
	.loc 18 319 0
	fadds 12,12,0
.LBB3468:
.LBB3469:
	.loc 3 402 0
	lfs 11,0(3)
.LVL1233:
.LBE3469:
.LBE3468:
.LBB3470:
.LBB3471:
	lfs 10,4(3)
.LVL1234:
.LBE3471:
.LBE3470:
.LBB3472:
.LBB3473:
	lfs 9,8(3)
.LVL1235:
.LBE3473:
.LBE3472:
.LBE3478:
.LBE3494:
.LBB3495:
.LBB3487:
	.loc 18 362 0
	fcmpu 7,12,13
.LBE3487:
.LBE3495:
.LBB3496:
.LBB3479:
.LBB3474:
.LBB3475:
	.loc 3 402 0
	lfs 13,16(3)
.LVL1236:
.LBE3475:
.LBE3474:
.LBB3476:
.LBB3477:
	lfs 12,20(3)
.LVL1237:
.LBE3477:
.LBE3476:
.LBE3479:
.LBE3496:
.LBB3497:
.LBB3488:
	.loc 18 362 0
	bnl- 7,.L702
.L677:
.LBE3488:
.LBE3497:
	.loc 2 1496 0
	li 4,0
	mr 3,29
.LVL1238:
	bl _ZNK15idPhysics_Actor9GetOriginEi
.LVL1239:
.LBB3498:
.LBB3499:
	.loc 3 431 0
	lfs 9,5128(31)
	lfs 13,0(3)
.LBE3499:
.LBE3498:
	.loc 2 1496 0
	mr 28,3
.LVL1240:
.LBB3503:
.LBB3500:
	.loc 3 431 0
	lfs 12,4(3)
.LBE3500:
.LBE3503:
.LBB3504:
.LBB3505:
.LBB3506:
.LBB3507:
	.loc 7 275 0
	lis 27,.LC13@ha
.LBE3507:
.LBE3506:
.LBE3505:
.LBE3504:
.LBB3521:
.LBB3501:
	.loc 3 431 0
	lfs 0,8(3)
.LBE3501:
.LBE3521:
	.loc 2 1498 0
	mr 3,29
.LVL1241:
.LBB3522:
.LBB3502:
	.loc 3 431 0
	lfs 10,5132(31)
	fsubs 12,9,12
	lfs 11,5124(31)
	fsubs 0,10,0
.LVL1242:
	fsubs 13,11,13
.LBE3502:
.LBE3522:
.LBB3523:
.LBB3524:
	.loc 3 425 0
	stfs 12,52(1)
	.loc 3 426 0
	stfs 0,56(1)
	.loc 3 424 0
	stfs 13,48(1)
.LBE3524:
.LBE3523:
	.loc 2 1498 0
	bl _ZNK15idPhysics_Actor14GetGravityAxisEv
.LVL1243:
.LBB3525:
.LBB3526:
.LBB3527:
	.loc 3 435 0
	lfs 0,16(3)
.LBE3527:
.LBE3526:
.LBE3525:
	.loc 2 1501 0
	addi 4,1,36
.LBB3538:
.LBB3529:
.LBB3530:
	.loc 3 435 0
	lfs 13,52(1)
	lfs 10,4(3)
.LBE3530:
.LBE3529:
.LBB3534:
.LBB3528:
	fmuls 0,13,0
.LBE3528:
.LBE3534:
.LBB3535:
.LBB3531:
	lfs 12,12(3)
	lfs 11,48(1)
	fmuls 13,13,10
	lfs 9,0(3)
	fmadds 0,11,12,0
	lfs 10,20(3)
	lfs 12,56(1)
	fmadds 11,11,9,13
	lfs 13,8(3)
.LBE3531:
.LBE3535:
.LBE3538:
	.loc 2 1501 0
	addi 3,1,84
.LVL1244:
.LBB3539:
.LBB3536:
.LBB3532:
	.loc 3 435 0
	fmadds 0,12,10,0
.LBE3532:
.LBE3536:
.LBE3539:
.LBB3540:
.LBB3516:
.LBB3512:
.LBB3508:
	.loc 7 275 0
	lfs 9,.LC13@l(27)
.LBE3508:
.LBE3512:
.LBE3516:
.LBE3540:
.LBB3541:
.LBB3537:
.LBB3533:
	.loc 3 435 0
	fmadds 13,12,13,11
.LVL1245:
.LBE3533:
.LBE3537:
.LBE3541:
.LBB3542:
.LBB3517:
	.loc 3 173 0
	fmuls 12,0,0
.LBE3517:
.LBE3542:
	fmadds 12,13,13,12
	stfs 12,264(1)
.LBB3543:
.LBB3518:
.LBB3513:
.LBB3509:
	.loc 7 275 0
	fmuls 9,12,9
	.loc 7 270 0
	lwz 0,264(1)
	.loc 2 1467 0
	fneg 9,9
	.loc 7 276 0
	rlwinm 11,0,9,24,31
	rlwinm 9,0,19,21,29
	subfic 0,11,380
	lis 11,_ZN6idMath5iSqrtE@ha
	la 11,_ZN6idMath5iSqrtE@l(11)
	rlwinm 0,0,22,0,8
	lwzx 9,11,9
	or 0,0,9
	.loc 7 278 0
	lis 9,.LC16@ha
	.loc 7 277 0
	stw 0,268(1)
.LBE3509:
.LBE3513:
.LBE3518:
.LBE3543:
	.loc 2 1499 0
	li 0,0
.LBB3544:
.LBB3519:
.LBB3514:
.LBB3510:
	.loc 7 278 0
	lfs 10,.LC16@l(9)
	.loc 7 277 0
	lfs 12,268(1)
.LBE3510:
.LBE3514:
.LBE3519:
.LBE3544:
	.loc 2 1499 0
	stw 0,44(1)
.LVL1246:
.LBB3545:
.LBB3520:
.LBB3515:
.LBB3511:
	.loc 7 277 0
	fmr 11,12
.LVL1247:
	.loc 7 278 0
	fmul 12,11,11
.LVL1248:
	fmadd 12,9,12,10
	fmul 12,11,12
.LVL1249:
	.loc 7 279 0
	fmul 11,12,12
	fmadd 10,9,11,10
.LVL1250:
	fmul 12,12,10
.LVL1251:
	.loc 7 280 0
	frsp 12,12
.LVL1252:
.LBE3511:
.LBE3515:
	.loc 3 175 0
	fmuls 13,13,12
	.loc 3 176 0
	fmuls 0,0,12
	.loc 3 175 0
	stfs 13,36(1)
	.loc 3 176 0
	stfs 0,40(1)
.LBE3520:
.LBE3545:
	.loc 2 1501 0
	bl _ZNK6idVec36ToMat3Ev
.LVL1253:
	li 10,0
.L680:
.LBB3546:
.LBB3547:
.LBB3548:
.LBB3549:
	.loc 3 424 0
	addi 11,1,84
.LVL1254:
	addi 9,1,120
	lwzux 0,11,10
.LVL1255:
.LBE3549:
.LBE3548:
	.loc 11 333 0
	cmpwi 7,10,24
.LBB3552:
.LBB3550:
	.loc 3 424 0
	stwux 0,9,10
.LBE3550:
.LBE3552:
	.loc 11 333 0
	addi 10,10,12
.LBB3553:
.LBB3551:
	.loc 3 425 0
	lwz 0,4(11)
	stw 0,4(9)
	.loc 3 426 0
	lwz 0,8(11)
	stw 0,8(9)
.LBE3551:
.LBE3553:
	.loc 11 333 0
	bne+ 7,.L680
.LBE3547:
.LBE3546:
	.loc 2 1502 0
	mr 3,29
	li 4,0
	bl _ZNK15idPhysics_Actor9GetOriginEi
.LVL1256:
.LBB3554:
.LBB3555:
	.file 20 "d:/Data/Nintendo/DoomGX/src/game/ai/../../idlib/../idlib/containers/List.h"
	.loc 20 589 0
	mulli 26,26,12
.LVL1257:
	lwz 11,4580(31)
.LBE3555:
.LBE3554:
.LBB3557:
.LBB3558:
.LBB3559:
	.loc 11 454 0
	lfs 11,136(1)
.LBE3559:
.LBE3558:
.LBE3557:
.LBB3568:
.LBB3556:
	.loc 20 589 0
	add 9,11,26
.LVL1258:
.LBE3556:
.LBE3568:
.LBB3569:
.LBB3564:
.LBB3560:
	.loc 11 454 0
	lfs 13,132(1)
	lfs 0,4(9)
	lfs 12,140(1)
	fmuls 11,0,11
.LBE3560:
.LBE3564:
.LBE3569:
.LBB3570:
.LBB3571:
	lfs 10,124(1)
.LBE3571:
.LBE3570:
.LBB3576:
.LBB3565:
.LBB3561:
	fmuls 12,0,12
.LBE3561:
.LBE3565:
.LBE3576:
	.loc 2 1504 0
	lwz 0,4588(31)
.LBB3577:
.LBB3566:
.LBB3562:
	.loc 11 454 0
	fmuls 0,0,13
	lfsx 13,11,26
.LBE3562:
.LBE3566:
.LBE3577:
.LBB3578:
.LBB3572:
	.loc 3 452 0
	lfs 9,4(3)
.LBE3572:
.LBE3578:
	.loc 2 1504 0
	cmpwi 7,0,0
.LBB3579:
.LBB3573:
	.loc 11 454 0
	fmadds 11,13,10,11
	lfs 10,128(1)
	fmadds 12,13,10,12
	lfs 10,120(1)
	fmadds 13,10,13,0
.LBE3573:
.LBE3579:
.LBB3580:
.LBB3567:
.LBB3563:
	lfs 0,8(9)
.LVL1259:
.LBE3563:
.LBE3567:
.LBE3580:
.LBB3581:
.LBB3574:
	lfs 10,148(1)
	fmadds 11,0,10,11
	lfs 10,152(1)
	fmadds 12,0,10,12
	lfs 10,144(1)
	.loc 3 452 0
	fadds 11,11,9
	.loc 11 454 0
	fmadds 0,10,0,13
	.loc 3 452 0
	lfs 13,0(3)
	lfs 10,8(3)
.LBE3574:
.LBE3581:
.LBB3582:
.LBB3583:
	.loc 3 425 0
	stfs 11,28(1)
.LBE3583:
.LBE3582:
.LBB3585:
.LBB3575:
	.loc 3 452 0
	fadds 12,12,10
.LVL1260:
	fadds 0,13,0
.LBE3575:
.LBE3585:
.LBB3586:
.LBB3584:
	.loc 3 426 0
	stfs 12,32(1)
	.loc 3 424 0
	stfs 0,24(1)
.LBE3584:
.LBE3586:
	.loc 2 1504 0
	beq- 7,.L703
.LVL1261:
.L681:
	.loc 2 1509 0
	mr 3,29
	li 4,-1
	bl _ZNK15idPhysics_Actor12GetAbsBoundsEi
	.loc 2 1510 0
	lwz 7,4588(31)
.LBB3587:
.LBB3588:
	.loc 3 402 0
	lfs 12,12(3)
.LBE3588:
.LBE3587:
	.loc 2 1509 0
	mr 29,3
.LVL1262:
.LBB3589:
.LBB3590:
	.loc 3 402 0
	lfs 13,0(3)
.LVL1263:
.LBE3590:
.LBE3589:
.LBB3591:
.LBB3592:
	lfs 7,76(7)
.LVL1264:
.LBE3592:
.LBE3591:
.LBB3593:
.LBB3594:
	lfs 8,64(7)
.LBE3594:
.LBE3593:
	.loc 2 1511 0
	fsubs 11,12,13
.LBB3595:
.LBB3596:
	.loc 3 402 0
	lfs 10,16(3)
.LVL1265:
.LBE3596:
.LBE3595:
	.loc 2 1511 0
	fsubs 0,7,8
	fcmpu 7,11,0
.LBB3597:
.LBB3598:
	.loc 3 402 0
	lfs 11,4(3)
.LBE3598:
.LBE3597:
	.loc 2 1511 0
	bng- 7,.L699
.LVL1266:
.LBB3599:
.LBB3600:
	.loc 3 402 0
	lfs 5,80(7)
.LVL1267:
.LBE3600:
.LBE3599:
	.loc 2 1511 0
	fsubs 9,10,11
.LBB3601:
.LBB3602:
	.loc 3 402 0
	lfs 6,68(7)
.LBE3602:
.LBE3601:
	.loc 2 1511 0
	fsubs 0,5,6
	fcmpu 7,9,0
.LBB3603:
.LBB3604:
	.loc 3 402 0
	lfs 9,20(3)
.LVL1268:
.LBE3604:
.LBE3603:
.LBB3605:
.LBB3606:
	lfs 0,8(3)
.LBE3606:
.LBE3605:
	.loc 2 1511 0
	bng- 7,.L685
.LVL1269:
.LBB3607:
.LBB3608:
	.loc 3 402 0
	lfs 3,84(7)
.LVL1270:
.LBE3608:
.LBE3607:
	.loc 2 1511 0
	fsubs 1,9,0
.LBB3609:
.LBB3610:
	.loc 3 402 0
	lfs 4,72(7)
.LBE3610:
.LBE3609:
	.loc 2 1511 0
	fsubs 2,3,4
	fcmpu 7,1,2
	bgt- 7,.L704
.LVL1271:
.L685:
.LBB3611:
.LBB3612:
	.loc 18 212 0
	fadds 9,9,0
.LVL1272:
	lfs 0,.LC13@l(27)
	fadds 13,12,13
	fadds 11,10,11
	fmuls 13,13,0
	fmuls 11,11,0
	fmuls 0,9,0
.LVL1273:
.LBE3612:
.LBE3611:
.LBB3613:
.LBB3614:
	.loc 3 424 0
	stfs 13,12(1)
	.loc 3 425 0
	stfs 11,16(1)
	.loc 3 426 0
	stfs 0,20(1)
.LVL1274:
.L688:
.LBE3614:
.LBE3613:
	.loc 2 1524 0
	lis 3,gameLocal+2311032@ha
	lis 8,mat3_identity@ha
	addi 5,1,12
	li 9,2049
	la 3,gameLocal+2311032@l(3)
	addi 4,1,156
	addi 6,1,24
	la 8,mat3_identity@l(8)
	mr 10,31
	bl _ZN6idClip11TranslationER7trace_sRK6idVec3S4_PK11idClipModelRK6idMat3iPK8idEntity
.LVL1275:
.LBB3615:
.LBB3616:
	.loc 6 634 0
	lwz 0,5120(31)
	.loc 6 638 0
	li 5,0
	.loc 6 634 0
	rlwinm 9,0,0,20,31
	.loc 6 635 0
	srawi 0,0,12
	addi 11,9,4228
	slwi 11,11,2
	add 11,30,11
	lwz 11,4(11)
	cmpw 7,11,0
.LBE3616:
.LBE3615:
.LBB3619:
.LBB3620:
	.loc 3 424 0
	lwz 0,160(1)
	stw 0,24(1)
	.loc 3 425 0
	lwz 0,164(1)
	stw 0,28(1)
	.loc 3 426 0
	lwz 0,168(1)
	stw 0,32(1)
.LVL1276:
.LBE3620:
.LBE3619:
.LBB3621:
.LBB3617:
	.loc 6 635 0
	beq- 7,.L705
.LVL1277:
.L689:
.LBE3617:
.LBE3621:
	.loc 2 1527 0
	mr 3,31
	addi 4,1,24
	mr 6,31
	addi 7,1,48
	bl _ZNK4idAI9GetAimDirERK6idVec3P8idEntityPKS3_RS0_
	cmpwi 7,3,0
	beq+ 7,.L690
	.loc 2 1528 0
	li 3,1
	bl _ZN8idThread9ReturnIntEi
	b .L672
.LVL1278:
.L690:
	.loc 2 1530 0
	bl _ZN8idThread9ReturnIntEi
.L672:
.LBE3669:
	.loc 2 1532 0
	lwz 0,300(1)
	lwz 26,272(1)
	mtlr 0
	lwz 27,276(1)
	lwz 28,280(1)
	lwz 29,284(1)
	lwz 30,288(1)
	lwz 31,292(1)
.LVL1279:
	addi 1,1,296
	.cfi_remember_state
.LCFI316:
	.cfi_def_cfa_offset 0
	.cfi_restore 31
	.cfi_restore 30
	.cfi_restore 29
	.cfi_restore 28
	.cfi_restore 27
	.cfi_restore 26
	blr
.LVL1280:
.L701:
.LCFI317:
	.cfi_restore_state
.LBB3670:
.LBB3622:
.LBB3459:
	.loc 6 636 0
	addi 9,9,132
.LVL1281:
	slwi 9,9,2
.LVL1282:
	add 9,30,9
	lwz 29,4(9)
.LVL1283:
.LBE3459:
.LBE3622:
.LBB3623:
.LBB3465:
	.loc 5 249 0
	lwz 9,5196(31)
	cmpwi 7,9,0
	bne+ 7,.L706
.LVL1284:
.L674:
.LBE3465:
.LBE3623:
	.loc 2 1479 0 discriminator 4
	li 3,0
.LVL1285:
	bl _ZN8idThread9ReturnIntEi
.LVL1286:
	.loc 2 1480 0 discriminator 4
	b .L672
.LVL1287:
.L702:
.LBB3624:
.LBB3480:
	.loc 18 319 0
	fadds 13,13,0
.LVL1288:
.LBE3480:
.LBE3624:
.LBB3625:
.LBB3489:
	.loc 18 362 0
	lfs 8,4(28)
	fcmpu 7,13,8
	blt- 7,.L677
.LVL1289:
.LBE3489:
.LBE3625:
.LBB3626:
.LBB3481:
	.loc 18 319 0
	fadds 12,12,0
.LVL1290:
.LBE3481:
.LBE3626:
.LBB3627:
.LBB3490:
	.loc 18 362 0
	lfs 13,8(28)
	fcmpu 7,12,13
	blt- 7,.L677
.LVL1291:
.LBE3490:
.LBE3627:
.LBB3628:
.LBB3482:
	.loc 18 319 0
	fsubs 11,11,0
.LVL1292:
.LBE3482:
.LBE3628:
.LBB3629:
.LBB3491:
	.loc 18 362 0
	lfs 13,12(28)
	fcmpu 7,11,13
	bgt- 7,.L677
.LVL1293:
.LBE3491:
.LBE3629:
.LBB3630:
.LBB3483:
	.loc 18 319 0
	fsubs 10,10,0
.LVL1294:
.LBE3483:
.LBE3630:
.LBB3631:
.LBB3492:
	.loc 18 362 0
	lfs 13,16(28)
	fcmpu 7,10,13
	bgt- 7,.L677
.LVL1295:
.LBE3492:
.LBE3631:
.LBB3632:
.LBB3484:
	.loc 18 319 0
	fsubs 0,9,0
.LBE3484:
.LBE3632:
.LBB3633:
.LBB3493:
	.loc 18 362 0
	lfs 13,20(28)
	fcmpu 7,0,13
	bgt- 7,.L677
.LBE3493:
.LBE3633:
	.loc 2 1491 0
	mr 3,31
.LVL1296:
	bl _ZN4idAI17Event_CanHitEnemyEv
.LVL1297:
.LBE3670:
	.loc 2 1532 0
	lwz 0,300(1)
	lwz 26,272(1)
.LVL1298:
	mtlr 0
	lwz 27,276(1)
	lwz 28,280(1)
.LVL1299:
	lwz 29,284(1)
	lwz 30,288(1)
	lwz 31,292(1)
.LVL1300:
	addi 1,1,296
	.cfi_remember_state
	.cfi_restore 26
	.cfi_restore 27
	.cfi_restore 28
	.cfi_restore 29
	.cfi_restore 30
	.cfi_restore 31
.LCFI318:
	.cfi_def_cfa_offset 0
	blr
.LVL1301:
.L699:
.LCFI319:
	.cfi_restore_state
.LBB3671:
	.loc 2 1492 0
	lfs 9,20(3)
	lfs 0,8(3)
	b .L685
.LVL1302:
.L705:
.LBB3634:
.LBB3618:
	.loc 6 636 0
	addi 9,9,132
.LVL1303:
	slwi 9,9,2
.LVL1304:
	add 30,30,9
	lwz 5,4(30)
	b .L689
.LVL1305:
.L704:
.LBE3618:
.LBE3634:
.LBB3635:
.LBB3636:
	.loc 18 173 0 discriminator 5
	fadds 13,13,7
.LVL1306:
.LBE3636:
.LBE3635:
	.loc 2 1514 0 discriminator 5
	addi 3,1,60
.LBB3649:
.LBB3645:
	.loc 18 173 0 discriminator 5
	fadds 11,11,5
.LVL1307:
.LBE3645:
.LBE3649:
	.loc 2 1514 0 discriminator 5
	mr 4,28
.LBB3650:
.LBB3646:
	.loc 18 173 0 discriminator 5
	fadds 0,0,3
.LVL1308:
.LBE3646:
.LBE3650:
	.loc 2 1514 0 discriminator 5
	addi 5,31,2268
.LBB3651:
.LBB3647:
	.loc 18 173 0 discriminator 5
	fadds 12,12,8
.LVL1309:
.LBE3647:
.LBE3651:
	.loc 2 1514 0 discriminator 5
	addi 6,1,8
.LBB3652:
.LBB3648:
	.loc 18 173 0 discriminator 5
	fadds 10,10,6
.LVL1310:
.LBB3637:
.LBB3638:
.LBB3639:
	.loc 3 424 0 discriminator 5
	stfs 13,60(1)
.LBE3639:
.LBE3638:
.LBE3637:
	.loc 18 173 0 discriminator 5
	fadds 9,9,4
.LVL1311:
.LBB3644:
.LBB3641:
.LBB3640:
	.loc 3 425 0 discriminator 5
	stfs 11,64(1)
	.loc 3 426 0 discriminator 5
	stfs 0,68(1)
.LVL1312:
.LBE3640:
.LBE3641:
.LBB3642:
.LBB3643:
	.loc 3 424 0 discriminator 5
	stfs 12,72(1)
	.loc 3 425 0 discriminator 5
	stfs 10,76(1)
	.loc 3 426 0 discriminator 5
	stfs 9,80(1)
.LVL1313:
.LBE3643:
.LBE3642:
.LBE3644:
.LBE3648:
.LBE3652:
	.loc 2 1514 0 discriminator 5
	bl _ZNK8idBounds15RayIntersectionERK6idVec3S2_Rf
.LVL1314:
	cmpwi 7,3,0
	beq- 7,.L687
.LBB3653:
.LBB3654:
	.loc 3 452 0
	lfs 11,0(28)
.LVL1315:
.LBE3654:
.LBE3653:
	.loc 2 1515 0
	lfs 0,8(1)
.LVL1316:
	.loc 3 452 0
	lfs 12,4(28)
	lfs 13,8(28)
	lfs 8,2272(31)
	lfs 9,2276(31)
.LBB3657:
.LBB3655:
	lfs 10,2268(31)
.LVL1317:
.LBE3655:
.LBE3657:
	fmadds 12,0,8,12
	fmadds 13,0,9,13
.LVL1318:
.LBB3658:
.LBB3656:
	.loc 3 426 0
	lwz 7,4588(31)
	.loc 3 452 0
	fmadds 0,0,10,11
	.loc 3 425 0
	stfs 12,16(1)
	.loc 3 426 0
	stfs 13,20(1)
	.loc 3 424 0
	stfs 0,12(1)
	b .L688
.LVL1319:
.L687:
.LBE3656:
.LBE3658:
.LBB3659:
.LBB3660:
	.loc 18 212 0
	lfs 0,0(29)
	lfs 12,4(29)
	lfs 13,8(29)
	lfs 9,16(29)
	lfs 10,20(29)
	lfs 11,12(29)
	fadds 12,9,12
	fadds 13,10,13
.LBE3660:
.LBE3659:
.LBB3662:
.LBB3663:
	.loc 3 426 0
	lwz 7,4588(31)
.LBE3663:
.LBE3662:
.LBB3665:
.LBB3661:
	.loc 18 212 0
	fadds 11,11,0
	lfs 0,.LC13@l(27)
	fmuls 12,12,0
.LVL1320:
	fmuls 13,13,0
.LVL1321:
	fmuls 0,11,0
.LBE3661:
.LBE3665:
.LBB3666:
.LBB3664:
	.loc 3 425 0
	stfs 12,16(1)
	.loc 3 426 0
	stfs 13,20(1)
	.loc 3 424 0
	stfs 0,12(1)
	b .L688
.LVL1322:
.L703:
.LBE3664:
.LBE3666:
	.loc 2 1505 0
	mr 3,31
.LVL1323:
	bl _ZNK4idAI25CreateProjectileClipModelEv
.LVL1324:
	b .L681
.LBE3671:
	.cfi_endproc
.LFE2889:
	.size	_ZN4idAI25Event_CanHitEnemyFromAnimEPKc, .-_ZN4idAI25Event_CanHitEnemyFromAnimEPKc
	.align 2
	.globl _ZN4idAI19Event_KickObstaclesEP8idEntityf
	.type	_ZN4idAI19Event_KickObstaclesEP8idEntityf, @function
_ZN4idAI19Event_KickObstaclesEP8idEntityf:
