	.file	"Anim_Testmodel.cpp"
	.section	".text"
.Ltext0:
	.section	.text._ZN14idFixedWinding5ClearEv,"axG",@progbits,_ZN14idFixedWinding5ClearEv,comdat
	.align 2
	.weak	_ZN14idFixedWinding5ClearEv
	.type	_ZN14idFixedWinding5ClearEv, @function
_ZN14idFixedWinding5ClearEv:
.LFB1502:
	.file 1 "d:/Data/Nintendo/DoomGX/src/game/anim/../../idlib/../idlib/geometry/Winding.h"
	.loc 1 398 0
	.cfi_startproc
.LVL0:
	.loc 1 399 0
	li 0,0
	.loc 1 400 0
	.loc 1 399 0
	stw 0,4(3)
	.loc 1 400 0
	blr
	.cfi_endproc
.LFE1502:
	.size	_ZN14idFixedWinding5ClearEv, .-_ZN14idFixedWinding5ClearEv
	.section	".text"
	.align 2
	.globl _ZNK11idTestModel7GetTypeEv
	.type	_ZNK11idTestModel7GetTypeEv, @function
_ZNK11idTestModel7GetTypeEv:
.LFB2811:
	.file 2 "d:/Data/Nintendo/DoomGX/src/game/anim/Anim_Testmodel.cpp"
	.loc 2 56 0
	.cfi_startproc
.LVL1:
	.loc 2 56 0
	lis 3,.LANCHOR0@ha
.LVL2:
	la 3,.LANCHOR0@l(3)
	blr
	.cfi_endproc
.LFE2811:
	.size	_ZNK11idTestModel7GetTypeEv, .-_ZNK11idTestModel7GetTypeEv
	.align 2
	.globl _ZN11idTestModel4SaveEP10idSaveGame
	.type	_ZN11idTestModel4SaveEP10idSaveGame, @function
_ZN11idTestModel4SaveEP10idSaveGame:
.LFB2815:
	.loc 2 86 0
	.cfi_startproc
.LVL3:
	.loc 2 87 0
	blr
	.cfi_endproc
.LFE2815:
	.size	_ZN11idTestModel4SaveEP10idSaveGame, .-_ZN11idTestModel4SaveEP10idSaveGame
	.align 2
	.globl _ZN11idTestModel7RestoreEP13idRestoreGame
	.type	_ZN11idTestModel7RestoreEP13idRestoreGame, @function
_ZN11idTestModel7RestoreEP13idRestoreGame:
.LFB2816:
	.loc 2 94 0
	.cfi_startproc
.LVL4:
	.loc 2 96 0
	mr. 9,3
	.loc 2 94 0
	mflr 0
	stwu 1,-8(1)
.LCFI0:
	.cfi_def_cfa_offset 8
	.cfi_register 65, 0
	stw 0,12(1)
	.loc 2 96 0
	beq- 0,.L4
	.cfi_offset 65, 4
	.loc 2 96 0 is_stmt 0 discriminator 1
	lwz 9,0(9)
	lwz 0,8(9)
	mtctr 0
	bctrl
.LVL5:
.L4:
	.loc 2 97 0 is_stmt 1
	lwz 0,12(1)
	addi 1,1,8
.LCFI1:
	.cfi_def_cfa_offset 0
	mtlr 0
	blr
	.cfi_endproc
.LFE2816:
	.size	_ZN11idTestModel7RestoreEP13idRestoreGame, .-_ZN11idTestModel7RestoreEP13idRestoreGame
	.align 2
	.globl _ZNK11idTestModel34ShouldConstructScriptObjectAtSpawnEv
	.type	_ZNK11idTestModel34ShouldConstructScriptObjectAtSpawnEv, @function
_ZNK11idTestModel34ShouldConstructScriptObjectAtSpawnEv:
.LFB2823:
	.loc 2 242 0
	.cfi_startproc
.LVL6:
	.loc 2 244 0
	li 3,0
.LVL7:
	blr
	.cfi_endproc
.LFE2823:
	.size	_ZNK11idTestModel34ShouldConstructScriptObjectAtSpawnEv, .-_ZNK11idTestModel34ShouldConstructScriptObjectAtSpawnEv
	.section	.text._ZN9idWinding5ClearEv,"axG",@progbits,_ZN9idWinding5ClearEv,comdat
	.align 2
	.weak	_ZN9idWinding5ClearEv
	.type	_ZN9idWinding5ClearEv, @function
_ZN9idWinding5ClearEv:
.LFB1473:
	.loc 1 249 0
	.cfi_startproc
.LVL8:
	mflr 0
	stwu 1,-16(1)
.LCFI2:
	.cfi_def_cfa_offset 16
	.cfi_register 65, 0
	stw 31,12(1)
	mr 31,3
	.cfi_offset 31, -4
	stw 0,20(1)
	.loc 1 250 0
	li 0,0
	.cfi_offset 65, 4
	.loc 1 251 0
	lwz 3,8(3)
.LVL9:
	.loc 1 250 0
	stw 0,4(31)
	.loc 1 251 0
	cmpwi 7,3,0
	beq- 7,.L9
	.loc 1 251 0 is_stmt 0 discriminator 1
	bl _ZdaPv
.L9:
	.loc 1 252 0 is_stmt 1
	li 0,0
	stw 0,8(31)
	.loc 1 253 0
	lwz 0,20(1)
	lwz 31,12(1)
.LVL10:
	mtlr 0
	addi 1,1,16
.LCFI3:
	.cfi_def_cfa_offset 0
	.cfi_restore 31
	blr
	.cfi_endproc
.LFE1473:
	.size	_ZN9idWinding5ClearEv, .-_ZN9idWinding5ClearEv
	.section	.text._ZN9idWindingD2Ev,"axG",@progbits,_ZN9idWindingD5Ev,comdat
	.align 2
	.weak	_ZN9idWindingD2Ev
	.type	_ZN9idWindingD2Ev, @function
_ZN9idWindingD2Ev:
.LFB1461:
	.loc 1 183 0
	.cfi_startproc
.LVL11:
	mflr 0
	stwu 1,-16(1)
.LCFI4:
	.cfi_def_cfa_offset 16
	.cfi_register 65, 0
.LBB1087:
	lis 9,_ZTV9idWinding+8@ha
.LBE1087:
	stw 31,12(1)
	mr 31,3
	.cfi_offset 31, -4
	stw 0,20(1)
.LBB1088:
	.loc 1 183 0
	la 0,_ZTV9idWinding+8@l(9)
	.cfi_offset 65, 4
	.loc 1 184 0
	lwz 3,8(3)
.LVL12:
	.loc 1 183 0
	stw 0,0(31)
	.loc 1 184 0
	cmpwi 7,3,0
	beq- 7,.L11
	.loc 1 184 0 is_stmt 0 discriminator 1
	bl _ZdaPv
.L11:
	.loc 1 185 0 is_stmt 1
	li 0,0
	stw 0,8(31)
.LBE1088:
	.loc 1 186 0
	lwz 0,20(1)
	lwz 31,12(1)
.LVL13:
	mtlr 0
	addi 1,1,16
.LCFI5:
	.cfi_def_cfa_offset 0
	.cfi_restore 31
	blr
	.cfi_endproc
.LFE1461:
	.size	_ZN9idWindingD2Ev, .-_ZN9idWindingD2Ev
	.section	".text"
	.align 2
	.globl _ZN11idTestModel14Event_FootstepEv
	.type	_ZN11idTestModel14Event_FootstepEv, @function
_ZN11idTestModel14Event_FootstepEv:
.LFB2822:
	.loc 2 230 0
	.cfi_startproc
.LVL14:
	mflr 0
	stwu 1,-8(1)
.LCFI6:
	.cfi_def_cfa_offset 8
	.cfi_register 65, 0
	.loc 2 231 0
	lis 4,.LC0@ha
	li 5,3
	la 4,.LC0@l(4)
	li 6,0
	li 7,0
	li 8,0
	.loc 2 230 0
	stw 0,12(1)
	.loc 2 231 0
	.cfi_offset 65, 4
	bl _ZN8idEntity10StartSoundEPKciibPi
.LVL15:
	.loc 2 232 0
	lwz 0,12(1)
	addi 1,1,8
.LCFI7:
	.cfi_def_cfa_offset 0
	mtlr 0
	blr
	.cfi_endproc
.LFE2822:
	.size	_ZN11idTestModel14Event_FootstepEv, .-_ZN11idTestModel14Event_FootstepEv
	.align 2
	.type	_Z41__static_initialization_and_destruction_0ii.constprop.27, @function
_Z41__static_initialization_and_destruction_0ii.constprop.27:
.LFB3172:
	.loc 2 928 0
	.cfi_startproc
.LVL16:
	cmpwi 7,3,1
	mflr 0
	stwu 1,-40(1)
.LCFI8:
	.cfi_def_cfa_offset 40
	.cfi_register 65, 0
	stw 0,44(1)
	stw 30,32(1)
	stw 31,36(1)
	.loc 2 928 0
	beq- 7,.L17
	.cfi_offset 31, -4
	.cfi_offset 30, -8
	.cfi_offset 65, 4
	.loc 2 56 0
	cmpwi 7,3,0
	bne- 7,.L14
.LVL17:
.LBB1099:
.LBB1100:
	lis 3,.LANCHOR0@ha
.LVL18:
	la 3,.LANCHOR0@l(3)
	bl _ZN10idTypeInfoD1Ev
.LVL19:
.L14:
.LBE1100:
.LBE1099:
	.loc 2 928 0
	lwz 0,44(1)
	lwz 30,32(1)
	mtlr 0
	lwz 31,36(1)
	addi 1,1,40
	.cfi_remember_state
.LCFI9:
	.cfi_def_cfa_offset 0
	.cfi_restore 31
	.cfi_restore 30
	blr
.LVL20:
.L17:
.LCFI10:
	.cfi_restore_state
	.file 3 "d:/Data/Nintendo/DoomGX/src/game/anim/../Game_local.h"
	.loc 3 694 0
	lis 9,_ZN6idMath8M_SEC2MSE@ha
	.loc 3 121 0
	lis 11,.LANCHOR0@ha
	.loc 3 694 0
	lfs 0,_ZN6idMath8M_SEC2MSE@l(9)
	.loc 3 121 0
	la 11,.LANCHOR0@l(11)
.LBB1101:
.LBB1102:
	.file 4 "d:/Data/Nintendo/DoomGX/src/game/anim/../../idlib/../idlib/math/Vector.h"
	.loc 4 396 0
	li 12,0
.LBE1102:
.LBE1101:
	.loc 3 121 0
	li 30,3
.LBB1106:
.LBB1103:
	.loc 4 396 0
	stw 12,84(11)
.LBE1103:
.LBE1106:
	.loc 3 694 0
	fadds 0,0,0
.LBB1107:
.LBB1104:
	.loc 4 397 0
	stw 12,88(11)
	.loc 4 398 0
	lis 12,.LC1@ha
	lwz 12,.LC1@l(12)
.LBE1104:
.LBE1107:
.LBB1108:
.LBB1109:
	.file 5 "d:/Data/Nintendo/DoomGX/src/game/anim/../../idlib/../idlib/math/Math.h"
	.loc 5 825 0
	addi 31,11,96
	fctiwz 0,0
.LBE1109:
.LBE1108:
	.loc 3 121 0
	stw 30,80(11)
.LVL21:
.LBB1111:
.LBB1105:
	.loc 4 398 0
	stw 12,92(11)
.LVL22:
.LBE1105:
.LBE1111:
	.file 6 "d:/Data/Nintendo/DoomGX/src/game/anim/../Player.h"
	.loc 6 69 0
	li 12,10
	stw 12,100(11)
	.loc 2 56 0
	mr 3,11
.LVL23:
	lis 11,_ZN11idTestModel5SpawnEv@ha
.LBB1112:
.LBB1110:
	.loc 5 825 0
	stfiwx 0,0,31
.LVL24:
.LBE1110:
.LBE1112:
	.loc 2 56 0
	la 11,_ZN11idTestModel5SpawnEv@l(11)
	lis 4,.LC2@ha
	stw 11,8(1)
	lis 11,_ZN11idTestModel4SaveEP10idSaveGame@ha
	la 11,_ZN11idTestModel4SaveEP10idSaveGame@l(11)
	lis 5,.LC3@ha
	stw 11,16(1)
	lis 6,.LANCHOR1@ha
	lis 7,_ZN11idTestModel14CreateInstanceEv@ha
	lis 11,_ZN11idTestModel7RestoreEP13idRestoreGame@ha
	li 0,0
	la 11,_ZN11idTestModel7RestoreEP13idRestoreGame@l(11)
	la 4,.LC2@l(4)
	la 5,.LC3@l(5)
	la 6,.LANCHOR1@l(6)
	la 7,_ZN11idTestModel14CreateInstanceEv@l(7)
	addi 8,1,8
	addi 9,1,16
	addi 10,1,24
	stw 0,12(1)
	stw 0,20(1)
	stw 11,24(1)
	stw 0,28(1)
	bl _ZN10idTypeInfoC1EPKcS1_P11idEventFuncI7idClassEPFPS3_vEMS3_FvvEMS3_KFvP10idSaveGameEMS3_FvP13idRestoreGameE
	b .L14
	.cfi_endproc
.LFE3172:
	.size	_Z41__static_initialization_and_destruction_0ii.constprop.27, .-_Z41__static_initialization_and_destruction_0ii.constprop.27
	.section	.text._ZN14idFixedWindingD2Ev,"axG",@progbits,_ZN14idFixedWindingD5Ev,comdat
	.align 2
	.weak	_ZN14idFixedWindingD2Ev
	.type	_ZN14idFixedWindingD2Ev, @function
_ZN14idFixedWindingD2Ev:
.LFB1498:
	.loc 1 380 0
	.cfi_startproc
.LVL25:
.LBB1118:
	.loc 1 381 0
	li 0,0
.LBB1119:
.LBB1120:
.LBB1121:
	.loc 1 183 0
	lis 9,_ZTV9idWinding+8@ha
.LBE1121:
.LBE1120:
.LBE1119:
	.loc 1 381 0
	stw 0,8(3)
.LVL26:
.LBB1124:
.LBB1123:
.LBB1122:
	.loc 1 183 0
	la 0,_ZTV9idWinding+8@l(9)
	stw 0,0(3)
.LBE1122:
.LBE1123:
.LBE1124:
.LBE1118:
	.loc 1 382 0
	blr
	.cfi_endproc
.LFE1498:
	.size	_ZN14idFixedWindingD2Ev, .-_ZN14idFixedWindingD2Ev
	.section	.text._ZN9idWindingD0Ev,"axG",@progbits,_ZN9idWindingD5Ev,comdat
	.align 2
	.weak	_ZN9idWindingD0Ev
	.type	_ZN9idWindingD0Ev, @function
_ZN9idWindingD0Ev:
.LFB1463:
	.loc 1 183 0
	.cfi_startproc
.LVL27:
	mflr 0
	stwu 1,-16(1)
.LCFI11:
	.cfi_def_cfa_offset 16
	.cfi_register 65, 0
.LBB1128:
.LBB1129:
.LBB1130:
	lis 9,_ZTV9idWinding+8@ha
.LBE1130:
.LBE1129:
.LBE1128:
	stw 31,12(1)
	mr 31,3
	.cfi_offset 31, -4
.LVL28:
	stw 0,20(1)
.LBB1135:
.LBB1133:
.LBB1131:
	.loc 1 183 0
	la 0,_ZTV9idWinding+8@l(9)
	.cfi_offset 65, 4
	.loc 1 184 0
	lwz 3,8(3)
.LVL29:
	.loc 1 183 0
	stw 0,0(31)
	.loc 1 184 0
	cmpwi 7,3,0
	beq- 7,.L22
	bl _ZdaPv
.L22:
	.loc 1 185 0
	li 0,0
.LBE1131:
.LBE1133:
.LBE1135:
	.loc 1 186 0
	mr 3,31
.LBB1136:
.LBB1134:
.LBB1132:
	.loc 1 185 0
	stw 0,8(31)
.LBE1132:
.LBE1134:
.LBE1136:
	.loc 1 186 0
	bl _ZdlPv
	lwz 0,20(1)
	lwz 31,12(1)
.LVL30:
	mtlr 0
	addi 1,1,16
.LCFI12:
	.cfi_def_cfa_offset 0
	.cfi_restore 31
	blr
	.cfi_endproc
.LFE1463:
	.size	_ZN9idWindingD0Ev, .-_ZN9idWindingD0Ev
	.section	.text._ZN14idFixedWindingD0Ev,"axG",@progbits,_ZN14idFixedWindingD5Ev,comdat
	.align 2
	.weak	_ZN14idFixedWindingD0Ev
	.type	_ZN14idFixedWindingD0Ev, @function
_ZN14idFixedWindingD0Ev:
.LFB1500:
	.loc 1 380 0
	.cfi_startproc
.LVL31:
	mflr 0
	stwu 1,-8(1)
.LCFI13:
	.cfi_def_cfa_offset 8
	.cfi_register 65, 0
.LBB1143:
.LBB1144:
.LBB1145:
.LBB1146:
.LBB1147:
.LBB1148:
	.loc 1 183 0
	lis 11,_ZTV9idWinding+8@ha
.LBE1148:
.LBE1147:
.LBE1146:
.LBE1145:
.LBE1144:
.LBE1143:
	.loc 1 380 0
	stw 0,12(1)
.LBB1154:
.LBB1153:
.LBB1152:
	.loc 1 381 0
	li 0,0
	.cfi_offset 65, 4
	stw 0,8(3)
.LVL32:
.LBB1151:
.LBB1150:
.LBB1149:
	.loc 1 183 0
	la 0,_ZTV9idWinding+8@l(11)
	stw 0,0(3)
.LBE1149:
.LBE1150:
.LBE1151:
.LBE1152:
.LBE1153:
.LBE1154:
	.loc 1 382 0
	bl _ZdlPv
.LVL33:
	lwz 0,12(1)
	addi 1,1,8
.LCFI14:
	.cfi_def_cfa_offset 0
	mtlr 0
	blr
	.cfi_endproc
.LFE1500:
	.size	_ZN14idFixedWindingD0Ev, .-_ZN14idFixedWindingD0Ev
	.section	".text"
	.align 2
	.globl _ZN11idTestModel5ThinkEv
	.type	_ZN11idTestModel5ThinkEv, @function
_ZN11idTestModel5ThinkEv:
.LFB2824:
	.loc 2 251 0
	.cfi_startproc
.LVL34:
	mflr 0
	stwu 1,-304(1)
.LCFI15:
	.cfi_def_cfa_offset 304
	.cfi_register 65, 0
	stw 31,228(1)
	mr 31,3
	.cfi_offset 31, -76
	stw 0,308(1)
	stfd 23,232(1)
	stfd 24,240(1)
	stfd 25,248(1)
	stfd 26,256(1)
	stfd 27,264(1)
	stfd 28,272(1)
	stfd 29,280(1)
	stfd 30,288(1)
	stfd 31,296(1)
	stw 24,200(1)
	stw 25,204(1)
	stw 26,208(1)
	stw 27,212(1)
	stw 28,216(1)
	stw 29,220(1)
	stw 30,224(1)
.LBB1315:
.LBB1316:
	.loc 2 257 0
	lwz 0,152(3)
	.cfi_offset 30, -80
	.cfi_offset 29, -84
	.cfi_offset 28, -88
	.cfi_offset 27, -92
	.cfi_offset 26, -96
	.cfi_offset 25, -100
	.cfi_offset 24, -104
	.cfi_offset 63, -8
	.cfi_offset 62, -16
	.cfi_offset 61, -24
	.cfi_offset 60, -32
	.cfi_offset 59, -40
	.cfi_offset 58, -48
	.cfi_offset 57, -56
	.cfi_offset 56, -64
	.cfi_offset 55, -72
	.cfi_offset 65, 4
	andi. 9,0,1
	bne- 0,.L60
	lis 29,gameLocal@ha
	la 29,gameLocal@l(29)
	addis 30,29,0x25
.LVL35:
.L30:
.LBE1316:
	.loc 2 384 0
	mr 3,31
	bl _ZN16idAnimatedEntity15UpdateAnimationEv
	.loc 2 385 0
	lwz 9,0(31)
	mr 3,31
	lwz 0,32(9)
	mtctr 0
	bctrl
	.loc 2 387 0
	lwz 0,1376(30)
	cmpw 7,0,31
	beq- 7,.L64
.LVL36:
.L29:
.LBE1315:
	.loc 2 397 0
	lwz 0,308(1)
	lwz 24,200(1)
	mtlr 0
	lwz 25,204(1)
	lwz 26,208(1)
	lwz 27,212(1)
	lwz 28,216(1)
	lwz 29,220(1)
	lwz 30,224(1)
	lwz 31,228(1)
	lfd 23,232(1)
	lfd 24,240(1)
	lfd 25,248(1)
	lfd 26,256(1)
	lfd 27,264(1)
	lfd 28,272(1)
	lfd 29,280(1)
	lfd 30,288(1)
	lfd 31,296(1)
	addi 1,1,304
	.cfi_remember_state
.LCFI16:
	.cfi_def_cfa_offset 0
	.cfi_restore 63
	.cfi_restore 62
	.cfi_restore 61
	.cfi_restore 60
	.cfi_restore 59
	.cfi_restore 58
	.cfi_restore 57
	.cfi_restore 56
	.cfi_restore 55
	.cfi_restore 31
	.cfi_restore 30
	.cfi_restore 29
	.cfi_restore 28
	.cfi_restore 27
	.cfi_restore 26
	.cfi_restore 25
	.cfi_restore 24
	blr
.LVL37:
.L60:
.LCFI17:
	.cfi_restore_state
.LBB1626:
.LBB1621:
.LBB1317:
	.loc 2 258 0
	lwz 0,2960(3)
	lis 29,gameLocal@ha
	la 29,gameLocal@l(29)
	cmpwi 7,0,0
	addis 30,29,0x25
	beq- 7,.L31
	.loc 2 258 0 is_stmt 0 discriminator 1
	lwz 28,1376(30)
	cmpw 7,28,3
	beq- 7,.L65
.L31:
	.loc 2 335 0 is_stmt 1
	lwz 0,2968(31)
	cmpwi 7,0,0
	bne- 7,.L43
.LVL38:
.L74:
	.loc 2 335 0 is_stmt 0 discriminator 1
	lwz 11,2976(31)
	lwz 9,2980(31)
	lwz 0,2004(30)
	add 9,11,9
	cmpw 7,0,9
	bge- 7,.L66
.L43:
.LBB1318:
	.loc 2 348 0 is_stmt 1
	lwz 0,1628(31)
	cmpwi 7,0,0
	beq- 7,.L44
.LVL39:
.LBB1319:
	.loc 2 350 0 discriminator 1
	lwz 0,2984(31)
	cmpwi 7,0,0
	ble- 7,.L44
	.loc 2 350 0 is_stmt 0
	li 27,0
	li 26,0
.LBB1320:
	.loc 2 358 0 is_stmt 1
	addi 25,31,636
.LBB1321:
.LBB1322:
.LBB1323:
	.loc 3 635 0
	mr 24,29
.LBE1323:
.LBE1322:
	.loc 2 251 0
	addi 28,1,104
.LVL40:
.L50:
.LBE1321:
.LBB1417:
.LBB1418:
	.file 7 "d:/Data/Nintendo/DoomGX/src/game/anim/../../idlib/../idlib/containers/List.h"
	.loc 7 589 0
	lwz 9,2996(31)
.LBE1418:
.LBE1417:
	.loc 2 351 0
	lwzx 0,9,27
.LBB1420:
.LBB1419:
	.loc 7 589 0
	add 9,9,27
.LBE1419:
.LBE1420:
	.loc 2 351 0
	cmpwi 7,0,4
	bne- 7,.L45
.LVL41:
.LBB1421:
.LBB1326:
.LBB1324:
	.loc 3 634 0
	lwz 0,1624(31)
	.loc 3 638 0
	li 3,0
	.loc 3 634 0
	rlwinm 9,0,0,20,31
.LVL42:
	.loc 3 635 0
	srawi 0,0,12
	addi 11,9,4228
	slwi 11,11,2
	add 11,29,11
	lwz 11,4(11)
	cmpw 7,11,0
	beq- 7,.L67
.LVL43:
.L46:
.LBE1324:
.LBE1326:
	.loc 2 352 0
	bl _ZNK8idEntity10GetPhysicsEv
	li 4,0
	lwz 9,0(3)
	lwz 0,136(9)
	mtctr 0
	bctrl
.LVL44:
	.loc 2 353 0
	lwz 9,2996(31)
.LBB1327:
.LBB1328:
.LBB1329:
	.loc 4 402 0
	lfs 31,0(3)
.LVL45:
.LBE1329:
.LBE1328:
.LBE1327:
	.loc 2 353 0
	addi 6,1,56
.LBB1348:
.LBB1330:
.LBB1331:
	.loc 4 402 0
	lfs 26,12(3)
.LVL46:
.LBE1331:
.LBE1330:
.LBE1348:
	.loc 2 353 0
	add 9,9,27
.LBB1349:
.LBB1332:
.LBB1333:
	.loc 4 402 0
	lfs 27,24(3)
.LVL47:
.LBE1333:
.LBE1332:
.LBE1349:
	.loc 2 353 0
	addi 7,1,140
.LBB1350:
.LBB1334:
.LBB1335:
	.loc 4 402 0
	lfs 23,4(3)
.LVL48:
.LBE1335:
.LBE1334:
.LBB1336:
.LBB1337:
	lfs 24,16(3)
.LVL49:
.LBE1337:
.LBE1336:
.LBB1338:
.LBB1339:
	lfs 25,28(3)
.LVL50:
.LBE1339:
.LBE1338:
.LBB1340:
.LBB1341:
	lfs 28,8(3)
.LVL51:
.LBE1341:
.LBE1340:
.LBB1342:
.LBB1343:
	lfs 29,20(3)
.LVL52:
.LBE1343:
.LBE1342:
.LBB1344:
.LBB1345:
	lfs 30,32(3)
.LVL53:
.LBE1345:
.LBE1344:
.LBE1350:
	.loc 2 353 0
	mr 3,31
.LVL54:
.LBB1351:
.LBB1346:
.LBB1347:
	.file 8 "d:/Data/Nintendo/DoomGX/src/game/anim/../../idlib/../idlib/math/Matrix.h"
	.loc 8 425 0
	stfs 31,104(1)
	stfs 26,108(1)
	stfs 27,112(1)
	.loc 8 426 0
	stfs 23,116(1)
	stfs 24,120(1)
	stfs 25,124(1)
	.loc 8 427 0
	stfs 28,128(1)
	stfs 29,132(1)
	stfs 30,136(1)
.LVL55:
.LBE1347:
.LBE1346:
.LBE1351:
	.loc 2 353 0
	lwz 5,2004(30)
	lwz 4,4(9)
	bl _ZN16idAnimatedEntity22GetJointWorldTransformE13jointHandle_tiR6idVec3R6idMat3
.LVL56:
.LBB1352:
.LBB1353:
	.loc 3 634 0
	lwz 0,1624(31)
	.loc 3 638 0
	li 3,0
	.loc 3 634 0
	rlwinm 9,0,0,20,31
.LVL57:
	.loc 3 635 0
	srawi 0,0,12
	addi 11,9,4228
	slwi 11,11,2
	add 11,29,11
	lwz 11,4(11)
	cmpw 7,11,0
	beq- 7,.L68
.LVL58:
.L47:
.LBE1353:
.LBE1352:
	.loc 2 354 0
	bl _ZNK8idEntity10GetPhysicsEv
	li 4,0
	lwz 9,0(3)
	lwz 0,132(9)
	mtctr 0
	bctrl
.LVL59:
.LBB1356:
.LBB1357:
	.loc 4 482 0
	lfs 13,60(1)
	lfs 0,4(3)
.LBE1357:
.LBE1356:
	.loc 2 355 0
	addi 6,1,32
.LBB1362:
.LBB1358:
	.loc 4 481 0
	lfs 12,0(3)
	.loc 4 482 0
	fsubs 13,13,0
	.loc 4 481 0
	lfs 11,56(1)
	.loc 4 483 0
	lfs 0,8(3)
	.loc 4 481 0
	fsubs 12,11,12
	.loc 4 483 0
	lfs 11,64(1)
.LBE1358:
.LBE1362:
.LBB1363:
.LBB1364:
.LBB1365:
	.loc 8 454 0
	fmuls 23,23,13
.LVL60:
.LBE1365:
.LBE1364:
.LBE1363:
.LBB1390:
.LBB1391:
	.loc 7 589 0
	lwz 9,2996(31)
.LBE1391:
.LBE1390:
.LBB1393:
.LBB1383:
.LBB1376:
	.loc 8 454 0
	fmuls 24,24,13
.LVL61:
.LBE1376:
.LBE1383:
.LBE1393:
.LBB1394:
.LBB1359:
	.loc 4 482 0
	stfs 13,60(1)
.LBE1359:
.LBE1394:
.LBB1395:
.LBB1384:
.LBB1377:
	.loc 8 454 0
	fmuls 25,25,13
.LVL62:
.LBE1377:
.LBE1384:
.LBE1395:
.LBB1396:
.LBB1360:
	.loc 4 481 0
	stfs 12,56(1)
	.loc 4 483 0
	fsubs 0,11,0
.LBE1360:
.LBE1396:
.LBB1397:
.LBB1392:
	.loc 7 589 0
	add 11,9,27
.LBE1392:
.LBE1397:
.LBB1398:
.LBB1385:
.LBB1378:
.LBB1366:
.LBB1367:
	.loc 8 454 0
	fmadds 23,31,12,23
.LBE1367:
.LBE1366:
.LBE1378:
.LBE1385:
.LBE1398:
	.loc 2 355 0
	lwz 3,1628(31)
.LVL63:
.LBB1399:
.LBB1386:
.LBB1379:
.LBB1372:
.LBB1368:
	.loc 8 454 0
	fmadds 26,26,12,24
.LVL64:
	fmadds 27,27,12,25
.LVL65:
.LBE1368:
.LBE1372:
.LBE1379:
.LBE1386:
.LBE1399:
.LBB1400:
.LBB1361:
	.loc 4 483 0
	stfs 0,64(1)
.LVL66:
.LBE1361:
.LBE1400:
.LBB1401:
.LBB1387:
.LBB1380:
.LBB1373:
.LBB1369:
	.loc 8 454 0
	fmadds 28,28,0,23
.LVL67:
	fmadds 29,29,0,26
.LVL68:
.LBE1369:
.LBE1373:
.LBE1380:
.LBE1387:
.LBE1401:
	.loc 2 355 0
	lwzx 5,9,27
.LBB1402:
.LBB1388:
.LBB1381:
.LBB1374:
.LBB1370:
	.loc 8 454 0
	fmadds 0,30,0,27
.LBE1370:
.LBE1374:
.LBE1381:
.LBE1388:
.LBE1402:
	.loc 2 355 0
	lwz 4,8(11)
.LBB1403:
.LBB1389:
.LBB1382:
.LBB1375:
.LBB1371:
	.loc 4 396 0
	stfs 28,32(1)
	.loc 4 397 0
	stfs 29,36(1)
	.loc 4 398 0
	stfs 0,40(1)
.LBE1371:
.LBE1375:
.LBE1382:
.LBE1389:
.LBE1403:
	.loc 2 355 0
	bl _ZN10idAnimator11SetJointPosE13jointHandle_t19jointModTransform_tRK6idVec3
.LVL69:
.LBB1404:
.LBB1405:
	.loc 7 589 0
	lwz 9,2996(31)
.LBE1405:
.LBE1404:
	.loc 2 356 0
	lwz 3,1628(31)
.LVL70:
.LBB1407:
.LBB1406:
	.loc 7 589 0
	add 11,9,27
.LBE1406:
.LBE1407:
	.loc 2 356 0
	lwzx 5,9,27
	lwz 4,8(11)
.LVL71:
.LBB1408:
.LBB1354:
	.loc 8 465 0
	addi 9,1,68
	.loc 2 356 0
	addi 11,1,140
.LVL72:
.L48:
.LBE1354:
.LBE1408:
	.loc 2 251 0
	lfs 0,4(11)
.LBB1409:
.LBB1410:
	.loc 8 471 0
	lfs 13,20(28)
	lfs 11,12(28)
	lfs 12,16(28)
	fmuls 11,0,11
	lfs 9,4(28)
	fmuls 12,0,12
	lfs 10,8(28)
	fmuls 0,0,13
.LBE1410:
.LBE1409:
	.loc 2 251 0
	lfs 13,0(11)
.LBB1413:
.LBB1411:
	.loc 8 471 0
	lfs 8,24(28)
	fmadds 12,9,13,12
	lfs 9,28(28)
	fmadds 11,31,13,11
	fmadds 13,10,13,0
.LBE1411:
.LBE1413:
	.loc 2 251 0
	lfs 0,8(11)
.LBB1414:
.LBB1412:
	.loc 8 471 0
	lfs 10,32(28)
	.loc 8 474 0
	addi 11,11,12
.LVL73:
	.loc 8 471 0
	fmadds 11,8,0,11
	fmadds 12,9,0,12
	fmadds 0,10,0,13
	stfs 11,0(9)
.LVL74:
	stfs 12,4(9)
.LVL75:
	stfs 0,8(9)
.LVL76:
	addi 9,9,12
.LVL77:
	.loc 8 467 0
	cmpw 7,9,28
	bne+ 7,.L48
.LBE1412:
.LBE1414:
	.loc 2 356 0
	addi 6,1,68
	bl _ZN10idAnimator12SetJointAxisE13jointHandle_t19jointModTransform_tRK6idMat3
.LVL78:
.L49:
.LBE1421:
.LBE1320:
	.loc 2 350 0
	lwz 0,2984(31)
	addi 26,26,1
.LVL79:
	addi 27,27,12
	cmpw 7,0,26
	bgt+ 7,.L50
.LVL80:
.L44:
.LBE1319:
.LBE1318:
	.loc 2 368 0
	addi 28,31,1752
	.loc 2 366 0
	mr 3,31
	bl _ZN8idEntity10RunPhysicsEv
	.loc 2 368 0
	mr 3,28
	addi 4,1,44
	bl _ZNK20idPhysics_Parametric9GetAnglesER8idAngles
.LBB1433:
.LBB1434:
	.loc 2 369 0
	lis 9,g_testModelRotate+44@ha
	.file 9 "d:/Data/Nintendo/DoomGX/src/game/anim/../../idlib/../framework/CVarSystem.h"
	.loc 9 144 0
	lwz 9,g_testModelRotate+44@l(9)
.LBE1434:
.LBE1433:
.LBB1435:
.LBB1436:
	.file 10 "d:/Data/Nintendo/DoomGX/src/game/anim/../../idlib/../idlib/math/Angles.h"
	.loc 10 109 0
	li 0,0
.LBE1436:
.LBE1435:
	.loc 2 369 0
	lwz 5,2004(30)
	li 4,66
	lfs 13,40(9)
	lis 9,.LC4@ha
	lfs 0,.LC4@l(9)
	lis 9,.LC5@ha
	li 6,0
	addi 7,1,44
	fmuls 13,13,0
	lfs 0,.LC5@l(9)
	lis 9,ang_zero@ha
	addi 8,1,20
	la 9,ang_zero@l(9)
	mr 3,28
	fdivs 0,13,0
.LVL81:
.LBB1438:
.LBB1437:
	.loc 10 109 0
	stw 0,20(1)
	.loc 10 111 0
	stw 0,28(1)
	.loc 10 110 0
	stfs 0,24(1)
.LBE1437:
.LBE1438:
	.loc 2 369 0
	bl _ZN20idPhysics_Parametric23SetAngularExtrapolationE15extrapolation_tiiRK8idAnglesS3_S3_
.LVL82:
	.loc 2 371 0
	mr 3,28
	li 4,0
	bl _ZNK20idPhysics_Parametric12GetClipModelEi
.LVL83:
.LBB1439:
	.loc 2 372 0
	mr. 26,3
	beq- 0,.L30
	.loc 2 372 0 is_stmt 0 discriminator 1
	addi 27,31,636
	mr 3,27
.LVL84:
	bl _ZNK10idAnimator8ModelDefEv
	cmpwi 7,3,0
	beq- 7,.L30
.LBB1440:
	.loc 2 377 0 is_stmt 1 discriminator 4
	lis 4,.LC6@ha
	mr 3,27
	la 4,.LC6@l(4)
	bl _ZNK10idAnimator14GetJointHandleEPKc
	.loc 2 378 0 discriminator 4
	lwz 5,2004(30)
	addi 6,1,8
	addi 7,1,104
	.loc 2 377 0 discriminator 4
	mr 4,3
.LVL85:
	.loc 2 378 0 discriminator 4
	mr 3,27
.LVL86:
	bl _ZN10idAnimator17GetJointTransformE13jointHandle_tiR6idVec3R6idMat3
.LVL87:
	.loc 2 379 0 discriminator 4
	mr 3,27
	bl _ZNK10idAnimator8ModelDefEv
	bl _ZNK14idDeclModelDef15GetVisualOffsetEv
.LVL88:
.LBB1441:
.LBB1442:
	.loc 4 431 0 discriminator 4
	lfs 30,8(1)
	lfs 12,0(3)
.LBE1442:
.LBE1441:
	.loc 2 379 0 discriminator 4
	li 4,0
.LBB1445:
.LBB1443:
	.loc 4 431 0 discriminator 4
	lfs 13,4(3)
	lfs 0,8(3)
.LBE1443:
.LBE1445:
	.loc 2 379 0 discriminator 4
	mr 3,28
.LVL89:
.LBB1446:
.LBB1444:
	.loc 4 431 0 discriminator 4
	lfs 29,12(1)
	fsubs 30,30,12
	lfs 31,16(1)
	fsubs 29,29,13
	fsubs 31,31,0
.LVL90:
.LBE1444:
.LBE1446:
	.loc 2 379 0 discriminator 4
	bl _ZNK20idPhysics_Parametric7GetAxisEi
.LVL91:
.LBB1447:
.LBB1448:
.LBB1449:
	.loc 8 454 0 discriminator 4
	lfs 0,20(3)
	lfs 12,12(3)
	lfs 13,16(3)
	fmuls 12,29,12
.LBE1449:
.LBE1448:
.LBE1447:
	lfs 10,0(3)
.LBB1454:
.LBB1452:
.LBB1450:
	fmuls 13,29,13
.LBE1450:
.LBE1452:
.LBE1454:
	lfs 11,4(3)
.LBB1455:
.LBB1453:
.LBB1451:
	fmuls 29,29,0
.LVL92:
.LBE1451:
.LBE1453:
.LBE1455:
	lfs 0,8(3)
	fmadds 12,30,10,12
	lfs 28,28(3)
	fmadds 13,30,11,13
	fmadds 30,30,0,29
.LVL93:
	lfs 0,32(3)
	lfs 29,24(3)
	.loc 2 379 0 discriminator 4
	mr 3,31
.LVL94:
	.loc 8 454 0 discriminator 4
	fmadds 28,31,28,13
	fmadds 29,31,29,12
	fmadds 31,31,0,30
.LVL95:
	.loc 2 379 0 discriminator 4
	bl _ZNK8idEntity10GetPhysicsEv
	lwz 9,0(3)
	li 4,0
	lwz 0,132(9)
	mtctr 0
	bctrl
.LVL96:
	.loc 2 380 0 discriminator 4
	lis 4,gameLocal+2311032@ha
.LBB1456:
.LBB1457:
	.loc 4 452 0 discriminator 4
	lfs 12,0(3)
.LBE1457:
.LBE1456:
	.loc 2 380 0 discriminator 4
	la 4,gameLocal+2311032@l(4)
.LBB1461:
.LBB1458:
	.loc 4 452 0 discriminator 4
	lfs 13,4(3)
.LBE1458:
.LBE1461:
	.loc 2 380 0 discriminator 4
	mr 5,31
.LBB1462:
.LBB1459:
	.loc 4 452 0 discriminator 4
	lfs 0,8(3)
	fadds 12,12,29
	fadds 13,28,13
.LBE1459:
.LBE1462:
	.loc 2 380 0 discriminator 4
	li 6,0
.LBB1463:
.LBB1460:
	.loc 4 452 0 discriminator 4
	fadds 0,31,0
.LVL97:
.LBE1460:
.LBE1463:
	.loc 2 380 0 discriminator 4
	addi 7,1,8
.LVL98:
	addi 8,26,28
	li 9,-1
	mr 3,26
.LVL99:
.LBB1464:
.LBB1465:
	.loc 4 424 0 discriminator 4
	stfs 12,8(1)
	.loc 4 425 0 discriminator 4
	stfs 13,12(1)
	.loc 4 426 0 discriminator 4
	stfs 0,16(1)
.LVL100:
.LBE1465:
.LBE1464:
	.loc 2 380 0 discriminator 4
	bl _ZN11idClipModel4LinkER6idClipP8idEntityiRK6idVec3RK6idMat3i
.LVL101:
.LBE1440:
.LBE1439:
.LBE1317:
.LBE1621:
	.loc 2 384 0 discriminator 4
	mr 3,31
	bl _ZN16idAnimatedEntity15UpdateAnimationEv
	.loc 2 385 0 discriminator 4
	lwz 9,0(31)
	mr 3,31
	lwz 0,32(9)
	mtctr 0
	bctrl
	.loc 2 387 0 discriminator 4
	lwz 0,1376(30)
	cmpw 7,0,31
	bne+ 7,.L29
.LVL102:
.L64:
.LBB1622:
.LBB1623:
	.loc 2 387 0 is_stmt 0 discriminator 1
	lis 9,g_showTestModelFrame+44@ha
	.loc 9 143 0 is_stmt 1 discriminator 1
	lwz 9,g_showTestModelFrame+44@l(9)
.LBE1623:
.LBE1622:
	.loc 2 387 0 discriminator 1
	lwz 0,36(9)
	cmpwi 7,0,0
	beq- 7,.L29
	.loc 2 387 0 is_stmt 0 discriminator 3
	lwz 4,2960(31)
	cmpwi 7,4,0
	beq- 7,.L29
	.loc 2 389 0 is_stmt 1 discriminator 5
	addi 28,31,636
	mr 3,28
	bl _ZNK10idAnimator12AnimFullNameEi
	li 4,0
	mr 25,3
	mr 3,28
	bl _ZN10idAnimator11CurrentAnimEi
	lwz 4,2004(30)
	bl _ZNK11idAnimBlend14GetFrameNumberEi
	li 4,0
	mr 26,3
	mr 3,28
	bl _ZN10idAnimator11CurrentAnimEi
	bl _ZNK11idAnimBlend9NumFramesEv
	li 4,0
	mr 27,3
	mr 3,28
	lwz 28,2004(30)
	bl _ZN10idAnimator11CurrentAnimEi
	bl _ZNK11idAnimBlend12GetStartTimeEv
	lis 9,.LC9@ha
	subf 0,3,28
	lis 28,0x4330
	xoris 0,0,0x8000
	stw 28,184(1)
	stw 0,188(1)
	lis 4,.LC7@ha
	lfs 30,.LC9@l(9)
	lis 9,_ZN6idMath8M_MS2SECE@ha
	lfd 1,184(1)
	la 4,.LC7@l(4)
	lfs 31,_ZN6idMath8M_MS2SECE@l(9)
	mr 3,29
	fsub 1,1,30
	mr 5,25
	mr 6,26
	mr 7,27
	frsp 1,1
	fmuls 1,1,31
	creqv 6,6,6
	bl _ZNK11idGameLocal6PrintfEPKcz
	.loc 2 390 0 discriminator 5
	lwz 4,2964(31)
	cmpwi 7,4,0
	bne- 7,.L69
	.loc 2 394 0
	lis 4,.LC11@ha
	mr 3,29
	la 4,.LC11@l(4)
	crxor 6,6,6
	bl _ZNK11idGameLocal6PrintfEPKcz
	b .L29
.LVL103:
.L45:
.LBB1624:
.LBB1619:
.LBB1466:
.LBB1432:
.LBB1431:
	.loc 2 358 0
	lwz 4,4(9)
	addi 6,1,56
	lwz 5,2004(30)
	addi 7,1,140
	mr 3,25
	bl _ZN10idAnimator22GetJointLocalTransformE13jointHandle_tiR6idVec3R6idMat3
.LVL104:
.LBB1422:
.LBB1423:
	.loc 7 589 0
	lwz 9,2996(31)
.LBE1423:
.LBE1422:
	.loc 2 359 0
	lwz 3,1628(31)
	addi 6,1,56
.LBB1425:
.LBB1424:
	.loc 7 589 0
	add 11,9,27
.LVL105:
.LBE1424:
.LBE1425:
	.loc 2 359 0
	lwzx 5,9,27
	lwz 4,8(11)
	bl _ZN10idAnimator11SetJointPosE13jointHandle_t19jointModTransform_tRK6idVec3
.LVL106:
.LBB1426:
.LBB1427:
	.loc 7 589 0
	lwz 9,2996(31)
.LBE1427:
.LBE1426:
	.loc 2 360 0
	lwz 3,1628(31)
	addi 6,1,140
.LBB1429:
.LBB1428:
	.loc 7 589 0
	add 11,9,27
.LVL107:
.LBE1428:
.LBE1429:
	.loc 2 360 0
	lwzx 5,9,27
	lwz 4,8(11)
	bl _ZN10idAnimator12SetJointAxisE13jointHandle_t19jointModTransform_tRK6idMat3
	b .L49
.LVL108:
.L67:
.LBB1430:
.LBB1415:
.LBB1325:
	.loc 3 636 0
	addi 9,9,132
.LVL109:
	slwi 9,9,2
.LVL110:
	add 9,24,9
	lwz 3,4(9)
	b .L46
.LVL111:
.L68:
.LBE1325:
.LBE1415:
.LBB1416:
.LBB1355:
	addi 9,9,132
.LVL112:
	slwi 9,9,2
.LVL113:
	add 9,24,9
	lwz 3,4(9)
	b .L47
.LVL114:
.L66:
.LBE1355:
.LBE1416:
.LBE1430:
.LBE1431:
.LBE1432:
.LBE1466:
	.loc 2 336 0
	stw 0,2976(31)
.LBB1467:
.LBB1468:
	.loc 2 338 0
	lis 26,g_testModelBlend@ha
.LBE1468:
.LBE1467:
	.loc 2 337 0
	mr 3,31
	li 4,0
	li 5,0
.LBB1471:
.LBB1469:
	.loc 2 338 0
	la 26,g_testModelBlend@l(26)
.LBE1469:
.LBE1471:
	.loc 2 337 0
	bl _ZN8idEntity9StopSoundEib
.LBB1472:
.LBB1470:
	.loc 9 143 0
	lwz 9,44(26)
.LBE1470:
.LBE1472:
.LBB1473:
.LBB1474:
	.file 11 "d:/Data/Nintendo/DoomGX/src/game/anim/../anim/Anim.h"
	.loc 11 49 0
	lis 27,0x2aaa
.LBE1474:
.LBE1473:
	.loc 2 338 0
	lwz 5,2960(31)
.LBB1478:
.LBB1475:
	.loc 11 49 0
	lwz 0,36(9)
	ori 27,27,43691
.LBE1475:
.LBE1478:
	.loc 2 338 0
	addi 28,31,636
.LVL115:
	lwz 6,2004(30)
.LBB1479:
.LBB1476:
	.loc 11 49 0
	mulli 0,0,1000
.LBE1476:
.LBE1479:
	.loc 2 338 0
	mr 3,28
	li 4,0
.LBB1480:
.LBB1477:
	.loc 11 49 0
	mulhw 7,0,27
	srawi 0,0,31
	srawi 7,7,2
.LBE1477:
.LBE1480:
	.loc 2 338 0
	subf 7,0,7
	bl _ZN10idAnimator8PlayAnimEiiii
.LVL116:
	.loc 2 339 0
	lwz 5,2964(31)
	cmpwi 7,5,0
	beq+ 7,.L43
.LVL117:
.LBB1481:
.LBB1482:
	.loc 9 143 0
	lwz 9,44(26)
.LBE1482:
.LBE1481:
	.loc 2 340 0
	li 4,0
	lwz 6,2004(30)
.LBB1483:
.LBB1484:
	.loc 11 49 0
	lwz 0,36(9)
.LBE1484:
.LBE1483:
	.loc 2 340 0
	lwz 3,1628(31)
.LBB1486:
.LBB1485:
	.loc 11 49 0
	mulli 0,0,1000
	mulhw 7,0,27
	srawi 0,0,31
	srawi 7,7,2
.LBE1485:
.LBE1486:
	.loc 2 340 0
	subf 7,0,7
	bl _ZN10idAnimator8PlayAnimEiiii
.LVL118:
	.loc 2 341 0
	lwz 4,2964(31)
	lwz 3,1628(31)
	bl _ZNK10idAnimator10AnimLengthEi
	lwz 4,2960(31)
	mr 27,3
	mr 3,28
	bl _ZNK10idAnimator10AnimLengthEi
	cmpw 7,27,3
	ble+ 7,.L43
	.loc 2 343 0
	li 4,0
	mr 3,28
	bl _ZN10idAnimator11CurrentAnimEi
	li 4,-1
	bl _ZN11idAnimBlend13SetCycleCountEi
	b .L43
.L65:
.LBB1487:
.LBB1488:
	.loc 2 258 0 discriminator 3
	lis 27,g_testModelAnimate@ha
.LBE1488:
.LBE1487:
	lwz 9,2968(28)
.LBB1490:
.LBB1489:
	la 27,g_testModelAnimate@l(27)
	.loc 9 143 0 discriminator 3
	lwz 11,44(27)
.LBE1489:
.LBE1490:
	.loc 2 258 0 discriminator 3
	lwz 0,36(11)
	cmpw 7,9,0
	beq- 7,.L31
	.loc 2 259 0 discriminator 5
	li 4,0
	li 5,0
	bl _ZN8idEntity9StopSoundEib
.LVL119:
.LBB1491:
.LBB1492:
	.loc 3 634 0 discriminator 5
	lwz 0,1624(28)
	rlwinm 9,0,0,20,31
.LVL120:
	.loc 3 635 0 discriminator 5
	srawi 0,0,12
	addi 11,9,4228
	slwi 11,11,2
	add 11,29,11
	lwz 11,4(11)
	cmpw 7,11,0
	beq- 7,.L70
.LVL121:
.L32:
.LBE1492:
.LBE1491:
.LBB1494:
.LBB1495:
	.loc 9 143 0
	lwz 9,44(27)
.LBE1495:
.LBE1494:
	.loc 2 263 0
	lwz 0,36(9)
	cmplwi 7,0,5
	ble- 7,.L71
.L33:
	.loc 2 267 0
	addi 26,28,636
	lwz 4,2960(28)
.LBB1496:
.LBB1497:
	.loc 2 269 0
	lis 24,g_testModelBlend@ha
.LBE1497:
.LBE1496:
	.loc 2 267 0
	mr 3,26
.LBB1500:
.LBB1498:
	.loc 2 269 0
	la 24,g_testModelBlend@l(24)
.LBE1498:
.LBE1500:
	.loc 2 267 0
	bl _ZNK10idAnimator9NumFramesEi
.LBB1501:
.LBB1499:
	.loc 9 143 0
	lwz 9,44(24)
.LBE1499:
.LBE1501:
.LBB1502:
.LBB1503:
	.loc 11 49 0
	lis 25,0x2aaa
	ori 25,25,43691
.LBE1503:
.LBE1502:
	.loc 2 267 0
	cmpwi 7,3,1
.LBB1507:
.LBB1504:
	.loc 11 49 0
	lwz 0,36(9)
.LBE1504:
.LBE1507:
	.loc 2 269 0
	mr 3,26
	lwz 5,2960(28)
	li 4,0
.LBB1508:
.LBB1505:
	.loc 11 49 0
	mulli 0,0,1000
.LBE1505:
.LBE1508:
	.loc 2 269 0
	lwz 6,2004(30)
.LBB1509:
.LBB1506:
	.loc 11 49 0
	mulhw 7,0,25
	srawi 0,0,31
	srawi 7,7,2
.LBE1506:
.LBE1509:
	.loc 2 269 0
	subf 7,0,7
	.loc 2 267 0
	ble- 7,.L72
.LVL122:
	.loc 2 274 0
	bl _ZN10idAnimator8PlayAnimEiiii
.LVL123:
	.loc 2 275 0
	lwz 5,2964(28)
	cmpwi 7,5,0
	bne- 7,.L73
.L41:
	.loc 2 283 0
	mr 3,26
	li 4,0
	bl _ZN10idAnimator18RemoveOriginOffsetEb
.L42:
.LBB1510:
.LBB1511:
	.loc 9 143 0
	lwz 9,44(27)
	lwz 0,36(9)
.LBE1511:
.LBE1510:
	.loc 2 332 0
	stw 0,2968(28)
	.loc 2 335 0
	lwz 0,2968(31)
	cmpwi 7,0,0
	bne- 7,.L43
	b .L74
.LVL124:
.L69:
.LBE1619:
.LBE1624:
	.loc 2 392 0
	lwz 3,1628(31)
	bl _ZNK10idAnimator12AnimFullNameEi
	li 4,0
	mr 25,3
	lwz 3,1628(31)
	bl _ZN10idAnimator11CurrentAnimEi
	lwz 4,2004(30)
	bl _ZNK11idAnimBlend14GetFrameNumberEi
	li 4,0
	mr 26,3
	lwz 3,1628(31)
	bl _ZN10idAnimator11CurrentAnimEi
	bl _ZNK11idAnimBlend9NumFramesEv
	li 4,0
	mr 27,3
	lwz 3,1628(31)
	lwz 31,2004(30)
.LVL125:
	bl _ZN10idAnimator11CurrentAnimEi
	bl _ZNK11idAnimBlend12GetStartTimeEv
	stw 28,192(1)
	subf 0,3,31
	lis 4,.LC10@ha
	xoris 0,0,0x8000
	mr 3,29
	stw 0,196(1)
	la 4,.LC10@l(4)
	mr 5,25
	mr 6,26
	lfd 1,192(1)
	mr 7,27
	fsub 1,1,30
	frsp 1,1
	fmuls 1,31,1
	creqv 6,6,6
	bl _ZNK11idGameLocal6PrintfEPKcz
	b .L29
.LVL126:
.L71:
.LBB1625:
.LBB1620:
	.loc 2 263 0
	lis 9,.L39@ha
	slwi 0,0,2
	la 9,.L39@l(9)
	lwzx 0,9,0
	add 9,0,9
	mtctr 9
	bctr
	.section	.rodata
	.align 2
	.align 2
.L39:
	.long .L33-.L39
	.long .L34-.L39
	.long .L35-.L39
	.long .L36-.L39
	.long .L37-.L39
	.long .L38-.L39
	.section	".text"
.L38:
.LBB1512:
.LBB1513:
	.loc 2 324 0
	lis 25,g_testModelBlend@ha
.LBE1513:
.LBE1512:
.LBB1516:
.LBB1517:
	.loc 11 49 0
	lis 26,0x2aaa
.LBE1517:
.LBE1516:
.LBB1522:
.LBB1514:
	.loc 2 324 0
	la 25,g_testModelBlend@l(25)
.LBE1514:
.LBE1522:
.LBB1523:
.LBB1518:
	.loc 11 49 0
	ori 26,26,43691
.LBE1518:
.LBE1523:
.LBB1524:
.LBB1515:
	.loc 9 143 0
	lwz 9,44(25)
.LBE1515:
.LBE1524:
	.loc 2 324 0
	addi 24,28,636
.LVL127:
	lwz 5,2960(28)
	li 4,0
.LBB1525:
.LBB1519:
	.loc 11 49 0
	lwz 0,36(9)
.LBE1519:
.LBE1525:
	.loc 2 324 0
	mr 3,24
	lwz 6,2972(28)
.LBB1526:
.LBB1520:
	.loc 11 49 0
	mulli 0,0,1000
.LBE1520:
.LBE1526:
	.loc 2 324 0
	lwz 7,2004(30)
.LBB1527:
.LBB1521:
	.loc 11 49 0
	mulhw 8,0,26
	srawi 0,0,31
	srawi 8,8,2
.LBE1521:
.LBE1527:
	.loc 2 324 0
	subf 8,0,8
	bl _ZN10idAnimator8SetFrameEiiiii
.LVL128:
	.loc 2 325 0
	mr 3,24
	li 4,1
	bl _ZN10idAnimator18RemoveOriginOffsetEb
	.loc 2 326 0
	lwz 5,2964(28)
	cmpwi 7,5,0
	beq+ 7,.L42
.L63:
.LVL129:
.LBB1528:
.LBB1529:
	.loc 9 143 0
	lwz 9,44(25)
.LBE1529:
.LBE1528:
	.loc 2 327 0
	li 4,0
	lwz 3,1628(28)
.LBB1530:
.LBB1531:
	.loc 11 49 0
	lwz 0,36(9)
.LBE1531:
.LBE1530:
	.loc 2 327 0
	lwz 6,2972(28)
.LBB1534:
.LBB1532:
	.loc 11 49 0
	mulli 0,0,1000
.LBE1532:
.LBE1534:
	.loc 2 327 0
	lwz 7,2004(30)
.LBB1535:
.LBB1533:
	.loc 11 49 0
	mulhw 8,0,26
	srawi 0,0,31
	srawi 8,8,2
.LBE1533:
.LBE1535:
	.loc 2 327 0
	subf 8,0,8
	bl _ZN10idAnimator8SetFrameEiiiii
.LVL130:
	b .L42
.L37:
.LBB1536:
.LBB1537:
	.loc 2 315 0
	lis 25,g_testModelBlend@ha
.LBE1537:
.LBE1536:
.LBB1540:
.LBB1541:
	.loc 11 49 0
	lis 26,0x2aaa
.LBE1541:
.LBE1540:
.LBB1545:
.LBB1538:
	.loc 2 315 0
	la 25,g_testModelBlend@l(25)
.LBE1538:
.LBE1545:
.LBB1546:
.LBB1542:
	.loc 11 49 0
	ori 26,26,43691
.LBE1542:
.LBE1546:
.LBB1547:
.LBB1539:
	.loc 9 143 0
	lwz 9,44(25)
.LBE1539:
.LBE1547:
	.loc 2 315 0
	addi 24,28,636
.LVL131:
	lwz 5,2960(28)
	li 4,0
.LBB1548:
.LBB1543:
	.loc 11 49 0
	lwz 0,36(9)
.LBE1543:
.LBE1548:
	.loc 2 315 0
	mr 3,24
	lwz 6,2004(30)
.LBB1549:
.LBB1544:
	.loc 11 49 0
	mulli 0,0,1000
	mulhw 7,0,26
	srawi 0,0,31
	srawi 7,7,2
.LBE1544:
.LBE1549:
	.loc 2 315 0
	subf 7,0,7
	bl _ZN10idAnimator8PlayAnimEiiii
.LVL132:
	.loc 2 316 0
	mr 3,24
	li 4,0
	bl _ZN10idAnimator18RemoveOriginOffsetEb
	.loc 2 317 0
	lwz 5,2964(28)
	cmpwi 7,5,0
	beq+ 7,.L42
.LVL133:
.LBB1550:
.LBB1551:
	.loc 9 143 0
	lwz 9,44(25)
.LBE1551:
.LBE1550:
	.loc 2 318 0
	li 4,0
	lwz 3,1628(28)
.LBB1552:
.LBB1553:
	.loc 11 49 0
	lwz 0,36(9)
.LBE1553:
.LBE1552:
	.loc 2 318 0
	lwz 6,2004(30)
.LBB1555:
.LBB1554:
	.loc 11 49 0
	mulli 0,0,1000
	mulhw 7,0,26
	srawi 0,0,31
	srawi 7,7,2
.LBE1554:
.LBE1555:
	.loc 2 318 0
	subf 7,0,7
	bl _ZN10idAnimator8PlayAnimEiiii
.LVL134:
	b .L42
.L36:
.LBB1556:
.LBB1557:
	.loc 2 306 0
	lis 25,g_testModelBlend@ha
.LBE1557:
.LBE1556:
.LBB1560:
.LBB1561:
	.loc 11 49 0
	lis 26,0x2aaa
.LBE1561:
.LBE1560:
.LBB1566:
.LBB1558:
	.loc 2 306 0
	la 25,g_testModelBlend@l(25)
.LBE1558:
.LBE1566:
.LBB1567:
.LBB1562:
	.loc 11 49 0
	ori 26,26,43691
.LBE1562:
.LBE1567:
.LBB1568:
.LBB1559:
	.loc 9 143 0
	lwz 9,44(25)
.LBE1559:
.LBE1568:
	.loc 2 306 0
	addi 24,28,636
.LVL135:
	lwz 5,2960(28)
	li 4,0
.LBB1569:
.LBB1563:
	.loc 11 49 0
	lwz 0,36(9)
.LBE1563:
.LBE1569:
	.loc 2 306 0
	mr 3,24
	lwz 6,2972(28)
.LBB1570:
.LBB1564:
	.loc 11 49 0
	mulli 0,0,1000
.LBE1564:
.LBE1570:
	.loc 2 306 0
	lwz 7,2004(30)
.LBB1571:
.LBB1565:
	.loc 11 49 0
	mulhw 8,0,26
	srawi 0,0,31
	srawi 8,8,2
.LBE1565:
.LBE1571:
	.loc 2 306 0
	subf 8,0,8
	bl _ZN10idAnimator8SetFrameEiiiii
.LVL136:
	.loc 2 307 0
	mr 3,24
	li 4,0
	bl _ZN10idAnimator18RemoveOriginOffsetEb
	.loc 2 308 0
	lwz 5,2964(28)
	cmpwi 7,5,0
	beq+ 7,.L42
	b .L63
.L35:
.LBB1572:
.LBB1573:
	.loc 2 297 0
	lis 25,g_testModelBlend@ha
.LBE1573:
.LBE1572:
.LBB1576:
.LBB1577:
	.loc 11 49 0
	lis 26,0x2aaa
.LBE1577:
.LBE1576:
.LBB1581:
.LBB1574:
	.loc 2 297 0
	la 25,g_testModelBlend@l(25)
.LBE1574:
.LBE1581:
.LBB1582:
.LBB1578:
	.loc 11 49 0
	ori 26,26,43691
.LBE1578:
.LBE1582:
.LBB1583:
.LBB1575:
	.loc 9 143 0
	lwz 9,44(25)
.LBE1575:
.LBE1583:
	.loc 2 297 0
	addi 24,28,636
.LVL137:
	lwz 5,2960(28)
	li 4,0
.LBB1584:
.LBB1579:
	.loc 11 49 0
	lwz 0,36(9)
.LBE1579:
.LBE1584:
	.loc 2 297 0
	mr 3,24
	lwz 6,2004(30)
.LBB1585:
.LBB1580:
	.loc 11 49 0
	mulli 0,0,1000
	mulhw 7,0,26
	srawi 0,0,31
	srawi 7,7,2
.LBE1580:
.LBE1585:
	.loc 2 297 0
	subf 7,0,7
	bl _ZN10idAnimator9CycleAnimEiiii
.LVL138:
	.loc 2 298 0
	mr 3,24
	li 4,0
	bl _ZN10idAnimator18RemoveOriginOffsetEb
	.loc 2 299 0
	lwz 5,2964(28)
	cmpwi 7,5,0
	beq+ 7,.L42
.L62:
.LVL139:
.LBB1586:
.LBB1587:
	.loc 9 143 0
	lwz 9,44(25)
.LBE1587:
.LBE1586:
	.loc 2 300 0
	li 4,0
	lwz 3,1628(28)
.LBB1588:
.LBB1589:
	.loc 11 49 0
	lwz 0,36(9)
.LBE1589:
.LBE1588:
	.loc 2 300 0
	lwz 6,2004(30)
.LBB1591:
.LBB1590:
	.loc 11 49 0
	mulli 0,0,1000
	mulhw 7,0,26
	srawi 0,0,31
	srawi 7,7,2
.LBE1590:
.LBE1591:
	.loc 2 300 0
	subf 7,0,7
	bl _ZN10idAnimator9CycleAnimEiiii
.LVL140:
	b .L42
.L34:
.LBB1592:
.LBB1593:
	.loc 2 288 0
	lis 25,g_testModelBlend@ha
.LBE1593:
.LBE1592:
.LBB1596:
.LBB1597:
	.loc 11 49 0
	lis 26,0x2aaa
.LBE1597:
.LBE1596:
.LBB1601:
.LBB1594:
	.loc 2 288 0
	la 25,g_testModelBlend@l(25)
.LBE1594:
.LBE1601:
.LBB1602:
.LBB1598:
	.loc 11 49 0
	ori 26,26,43691
.LBE1598:
.LBE1602:
.LBB1603:
.LBB1595:
	.loc 9 143 0
	lwz 9,44(25)
.LBE1595:
.LBE1603:
	.loc 2 288 0
	addi 24,28,636
.LVL141:
	lwz 5,2960(28)
	li 4,0
.LBB1604:
.LBB1599:
	.loc 11 49 0
	lwz 0,36(9)
.LBE1599:
.LBE1604:
	.loc 2 288 0
	mr 3,24
	lwz 6,2004(30)
.LBB1605:
.LBB1600:
	.loc 11 49 0
	mulli 0,0,1000
	mulhw 7,0,26
	srawi 0,0,31
	srawi 7,7,2
.LBE1600:
.LBE1605:
	.loc 2 288 0
	subf 7,0,7
	bl _ZN10idAnimator9CycleAnimEiiii
.LVL142:
	.loc 2 289 0
	mr 3,24
	li 4,1
	bl _ZN10idAnimator18RemoveOriginOffsetEb
	.loc 2 290 0
	lwz 5,2964(28)
	cmpwi 7,5,0
	beq+ 7,.L42
	b .L62
.LVL143:
.L70:
.LBB1606:
.LBB1493:
	.loc 3 636 0
	addi 9,9,132
.LVL144:
	slwi 9,9,2
.LVL145:
	add 9,29,9
	lwz 3,4(9)
.LBE1493:
.LBE1606:
	.loc 2 260 0
	cmpwi 7,3,0
	beq- 7,.L32
.LVL146:
	.loc 2 261 0
	li 4,0
	li 5,0
	bl _ZN8idEntity9StopSoundEib
	b .L32
.LVL147:
.L72:
	.loc 2 269 0
	bl _ZN10idAnimator9CycleAnimEiiii
.LVL148:
	.loc 2 270 0
	lwz 5,2964(28)
	cmpwi 7,5,0
	beq+ 7,.L41
.LVL149:
.LBB1607:
.LBB1608:
	.loc 9 143 0
	lwz 9,44(24)
.LBE1608:
.LBE1607:
	.loc 2 271 0
	li 4,0
	lwz 3,1628(28)
.LBB1609:
.LBB1610:
	.loc 11 49 0
	lwz 0,36(9)
.LBE1610:
.LBE1609:
	.loc 2 271 0
	lwz 6,2004(30)
.LBB1612:
.LBB1611:
	.loc 11 49 0
	mulli 0,0,1000
	mulhw 7,0,25
	srawi 0,0,31
	srawi 7,7,2
.LBE1611:
.LBE1612:
	.loc 2 271 0
	subf 7,0,7
	bl _ZN10idAnimator9CycleAnimEiiii
.LVL150:
	b .L41
.L73:
.LVL151:
.LBB1613:
.LBB1614:
	.loc 9 143 0
	lwz 9,44(24)
.LBE1614:
.LBE1613:
	.loc 2 276 0
	li 4,0
	lwz 6,2004(30)
.LBB1615:
.LBB1616:
	.loc 11 49 0
	lwz 0,36(9)
.LBE1616:
.LBE1615:
	.loc 2 276 0
	lwz 3,1628(28)
.LBB1618:
.LBB1617:
	.loc 11 49 0
	mulli 0,0,1000
	mulhw 7,0,25
	srawi 0,0,31
	srawi 7,7,2
.LBE1617:
.LBE1618:
	.loc 2 276 0
	subf 7,0,7
	bl _ZN10idAnimator8PlayAnimEiiii
.LVL152:
	.loc 2 277 0
	lwz 4,2964(28)
	lwz 3,1628(28)
	bl _ZNK10idAnimator10AnimLengthEi
	lwz 4,2960(28)
	mr 25,3
	mr 3,26
	bl _ZNK10idAnimator10AnimLengthEi
	cmpw 7,25,3
	ble+ 7,.L41
	.loc 2 279 0
	li 4,0
	mr 3,26
	bl _ZN10idAnimator11CurrentAnimEi
	li 4,-1
	bl _ZN11idAnimBlend13SetCycleCountEi
	b .L41
.LBE1620:
.LBE1625:
.LBE1626:
	.cfi_endproc
.LFE2824:
	.size	_ZN11idTestModel5ThinkEv, .-_ZN11idTestModel5ThinkEv
	.align 2
	.globl _ZN11idTestModel8NextAnimERK9idCmdArgs
	.type	_ZN11idTestModel8NextAnimERK9idCmdArgs, @function
_ZN11idTestModel8NextAnimERK9idCmdArgs:
.LFB2825:
	.loc 2 404 0
	.cfi_startproc
.LVL153:
	stwu 1,-32(1)
.LCFI18:
	.cfi_def_cfa_offset 32
	mflr 0
	stw 30,24(1)
	.loc 2 405 0
	addi 30,3,636
	.cfi_offset 30, -8
	.cfi_register 65, 0
	.loc 2 404 0
	stw 31,28(1)
	mr 31,3
	.cfi_offset 31, -4
	.loc 2 405 0
	mr 3,30
.LVL154:
	.loc 2 404 0
	stw 0,36(1)
	stw 26,8(1)
	stw 27,12(1)
	stw 28,16(1)
	stw 29,20(1)
	.loc 2 405 0
	.cfi_offset 29, -12
	.cfi_offset 28, -16
	.cfi_offset 27, -20
	.cfi_offset 26, -24
	.cfi_offset 65, 4
	bl _ZNK10idAnimator8NumAnimsEv
.LVL155:
	cmpwi 7,3,0
	bne- 7,.L83
	.loc 2 439 0
	lwz 0,36(1)
	lwz 26,8(1)
	mtlr 0
	lwz 27,12(1)
	lwz 28,16(1)
	lwz 29,20(1)
	lwz 30,24(1)
	lwz 31,28(1)
.LVL156:
	addi 1,1,32
	.cfi_remember_state
.LCFI19:
	.cfi_def_cfa_offset 0
	.cfi_restore 31
	.cfi_restore 30
	.cfi_restore 29
	.cfi_restore 28
	.cfi_restore 27
	.cfi_restore 26
	blr
.LVL157:
.L83:
.LCFI20:
	.cfi_restore_state
	.loc 2 409 0
	lwz 29,2960(31)
	.loc 2 410 0
	mr 3,30
	.loc 2 409 0
	addi 29,29,1
	stw 29,2960(31)
	.loc 2 410 0
	bl _ZNK10idAnimator8NumAnimsEv
	cmpw 7,29,3
	bge- 7,.L77
	lwz 4,2960(31)
.L78:
	.loc 2 415 0
	lis 29,gameLocal@ha
	.loc 2 416 0
	mr 3,30
	.loc 2 415 0
	la 29,gameLocal@l(29)
	addis 28,29,0x25
	lwz 0,2004(28)
	stw 0,2976(31)
	.loc 2 416 0
	bl _ZNK10idAnimator10AnimLengthEi
	.loc 2 417 0
	lwz 4,2960(31)
	.loc 2 416 0
	stw 3,2980(31)
	.loc 2 417 0
	mr 3,30
	bl _ZNK10idAnimator12AnimFullNameEi
	mr 4,3
	addi 3,31,2928
	bl _ZN5idStraSEPKc
	.loc 2 419 0
	lwz 3,1628(31)
	.loc 2 418 0
	li 0,0
	.loc 2 419 0
	cmpwi 7,3,0
	.loc 2 418 0
	stw 0,2964(31)
	.loc 2 419 0
	beq- 7,.L79
	.loc 2 420 0
	lwz 4,2004(28)
	li 5,0
	bl _ZN10idAnimator13ClearAllAnimsEii
	.loc 2 421 0
	lwz 4,2932(31)
	lwz 3,1628(31)
	bl _ZNK10idAnimator7GetAnimEPKc
	.loc 2 422 0
	cmpwi 7,3,0
	.loc 2 421 0
	mr 4,3
	stw 3,2964(31)
	.loc 2 422 0
	beq- 7,.L84
.L80:
	.loc 2 426 0 discriminator 1
	lwz 3,1628(31)
	bl _ZNK10idAnimator10AnimLengthEi
	lwz 0,2980(31)
	cmpw 7,3,0
	bgt- 7,.L85
.LVL158:
.L79:
	.loc 2 431 0
	lwz 4,2960(31)
	mr 3,30
	.loc 2 928 0
	lwz 26,2932(31)
	.loc 2 431 0
	bl _ZNK10idAnimator10AnimLengthEi
	lwz 4,2960(31)
	mr 27,3
	mr 3,30
	bl _ZNK10idAnimator10AnimLengthEi
	lwz 4,2960(31)
	mr 28,3
	mr 3,30
	lis 30,0x1062
	bl _ZNK10idAnimator9NumFramesEi
	ori 30,30,19923
	srawi 9,28,31
	mulhw 7,28,30
	srawi 0,27,31
	lis 4,.LC13@ha
	mr 8,3
	la 4,.LC13@l(4)
	srawi 7,7,6
	mulhw 6,27,30
	subf 7,9,7
	mr 3,29
	mr 5,26
	mulli 7,7,1000
	srawi 6,6,6
	subf 6,0,6
	subf 7,7,28
	crxor 6,6,6
	bl _ZNK11idGameLocal6PrintfEPKcz
	.loc 2 432 0
	lwz 4,2964(31)
	cmpwi 7,4,0
	bne- 7,.L86
.L82:
	.loc 2 437 0
	li 0,-1
	stw 0,2968(31)
	.loc 2 438 0
	li 0,1
	stw 0,2972(31)
	.loc 2 439 0
	lwz 0,36(1)
	lwz 26,8(1)
	mtlr 0
	lwz 27,12(1)
	lwz 28,16(1)
	lwz 29,20(1)
	lwz 30,24(1)
	lwz 31,28(1)
.LVL159:
	addi 1,1,32
	.cfi_remember_state
	.cfi_restore 26
	.cfi_restore 27
	.cfi_restore 28
	.cfi_restore 29
	.cfi_restore 30
	.cfi_restore 31
.LCFI21:
	.cfi_def_cfa_offset 0
	blr
.LVL160:
.L77:
.LCFI22:
	.cfi_restore_state
	.loc 2 412 0
	li 0,1
	li 4,1
	stw 0,2960(31)
	b .L78
.L86:
	.loc 2 433 0
	lwz 3,1628(31)
	bl _ZNK10idAnimator12AnimFullNameEi
	lwz 4,2964(31)
	mr 26,3
	lwz 3,1628(31)
	bl _ZNK10idAnimator10AnimLengthEi
	lwz 4,2964(31)
	mr 27,3
	lwz 3,1628(31)
	bl _ZNK10idAnimator10AnimLengthEi
	lwz 4,2964(31)
	mr 28,3
	lwz 3,1628(31)
	bl _ZNK10idAnimator9NumFramesEi
	mulhw 7,28,30
	srawi 9,28,31
	srawi 0,27,31
	lis 4,.LC14@ha
	mulhw 30,27,30
	srawi 7,7,6
	subf 7,9,7
	mr 8,3
	la 4,.LC14@l(4)
	mulli 7,7,1000
	srawi 6,30,6
	mr 3,29
	mr 5,26
	subf 6,0,6
	subf 7,7,28
	crxor 6,6,6
	bl _ZNK11idGameLocal6PrintfEPKcz
	b .L82
.L84:
	.loc 2 423 0
	lwz 3,1628(31)
	lis 4,.LC12@ha
	la 4,.LC12@l(4)
	bl _ZNK10idAnimator7GetAnimEPKc
	.loc 2 426 0
	cmpwi 7,3,0
	.loc 2 423 0
	mr 4,3
	stw 3,2964(31)
	.loc 2 426 0
	beq+ 7,.L79
	b .L80
.L85:
	.loc 2 427 0 discriminator 4
	lwz 3,1628(31)
	lwz 4,2964(31)
	bl _ZNK10idAnimator10AnimLengthEi
	stw 3,2980(31)
	b .L79
	.cfi_endproc
.LFE2825:
	.size	_ZN11idTestModel8NextAnimERK9idCmdArgs, .-_ZN11idTestModel8NextAnimERK9idCmdArgs
	.align 2
	.globl _ZN11idTestModel8PrevAnimERK9idCmdArgs
	.type	_ZN11idTestModel8PrevAnimERK9idCmdArgs, @function
_ZN11idTestModel8PrevAnimERK9idCmdArgs:
.LFB2826:
	.loc 2 446 0
	.cfi_startproc
.LVL161:
	stwu 1,-32(1)
.LCFI23:
	.cfi_def_cfa_offset 32
	mflr 0
	stw 30,24(1)
	.loc 2 447 0
	addi 30,3,636
	.cfi_offset 30, -8
	.cfi_register 65, 0
	.loc 2 446 0
	stw 31,28(1)
	mr 31,3
	.cfi_offset 31, -4
	.loc 2 447 0
	mr 3,30
.LVL162:
	.loc 2 446 0
	stw 0,36(1)
	stw 26,8(1)
	stw 27,12(1)
	stw 28,16(1)
	stw 29,20(1)
	.loc 2 447 0
	.cfi_offset 29, -12
	.cfi_offset 28, -16
	.cfi_offset 27, -20
	.cfi_offset 26, -24
	.cfi_offset 65, 4
	bl _ZNK10idAnimator8NumAnimsEv
.LVL163:
	cmpwi 7,3,0
	beq- 7,.L87
	.loc 2 452 0
	lwz 4,2960(31)
	.loc 2 451 0
	li 0,0
	stw 0,2964(31)
	.loc 2 452 0
	addi 4,4,-1
	.loc 2 453 0
	cmpwi 7,4,0
	.loc 2 452 0
	stw 4,2960(31)
	.loc 2 453 0
	blt- 7,.L94
.L89:
	.loc 2 457 0
	lis 29,gameLocal@ha
	.loc 2 458 0
	mr 3,30
	.loc 2 457 0
	la 29,gameLocal@l(29)
	addis 28,29,0x25
	lwz 0,2004(28)
	stw 0,2976(31)
	.loc 2 458 0
	bl _ZNK10idAnimator10AnimLengthEi
	.loc 2 459 0
	lwz 4,2960(31)
	.loc 2 458 0
	stw 3,2980(31)
	.loc 2 459 0
	mr 3,30
	bl _ZNK10idAnimator12AnimFullNameEi
	mr 4,3
	addi 3,31,2928
	bl _ZN5idStraSEPKc
	.loc 2 461 0
	lwz 3,1628(31)
	.loc 2 460 0
	li 0,0
	.loc 2 461 0
	cmpwi 7,3,0
	.loc 2 460 0
	stw 0,2964(31)
	.loc 2 461 0
	beq- 7,.L90
	.loc 2 462 0
	lwz 4,2004(28)
	li 5,0
	bl _ZN10idAnimator13ClearAllAnimsEii
	.loc 2 463 0
	lwz 4,2932(31)
	lwz 3,1628(31)
	bl _ZNK10idAnimator7GetAnimEPKc
	.loc 2 464 0
	cmpwi 7,3,0
	.loc 2 463 0
	mr 4,3
	stw 3,2964(31)
	.loc 2 464 0
	beq- 7,.L95
.L91:
	.loc 2 468 0 discriminator 1
	lwz 3,1628(31)
	bl _ZNK10idAnimator10AnimLengthEi
	lwz 0,2980(31)
	cmpw 7,3,0
	ble- 7,.L90
	.loc 2 469 0 discriminator 4
	lwz 3,1628(31)
	lwz 4,2964(31)
	bl _ZNK10idAnimator10AnimLengthEi
	stw 3,2980(31)
.LVL164:
.L90:
	.loc 2 473 0
	lwz 4,2960(31)
	mr 3,30
	.loc 2 928 0
	lwz 26,2932(31)
	.loc 2 473 0
	bl _ZNK10idAnimator10AnimLengthEi
	lwz 4,2960(31)
	mr 27,3
	mr 3,30
	bl _ZNK10idAnimator10AnimLengthEi
	lwz 4,2960(31)
	mr 28,3
	mr 3,30
	lis 30,0x1062
	bl _ZNK10idAnimator9NumFramesEi
	ori 30,30,19923
	srawi 9,28,31
	mulhw 7,28,30
	srawi 0,27,31
	lis 4,.LC13@ha
	mr 8,3
	la 4,.LC13@l(4)
	srawi 7,7,6
	mulhw 6,27,30
	subf 7,9,7
	mr 3,29
	mr 5,26
	mulli 7,7,1000
	srawi 6,6,6
	subf 6,0,6
	subf 7,7,28
	crxor 6,6,6
	bl _ZNK11idGameLocal6PrintfEPKcz
	.loc 2 474 0
	lwz 4,2964(31)
	cmpwi 7,4,0
	bne- 7,.L96
.L93:
	.loc 2 479 0
	li 0,-1
	stw 0,2968(31)
	.loc 2 480 0
	li 0,1
	stw 0,2972(31)
.L87:
	.loc 2 481 0
	lwz 0,36(1)
	lwz 26,8(1)
	mtlr 0
	lwz 27,12(1)
	lwz 28,16(1)
	lwz 29,20(1)
	lwz 30,24(1)
	lwz 31,28(1)
.LVL165:
	addi 1,1,32
	.cfi_remember_state
.LCFI24:
	.cfi_def_cfa_offset 0
	.cfi_restore 31
	.cfi_restore 30
	.cfi_restore 29
	.cfi_restore 28
	.cfi_restore 27
	.cfi_restore 26
	blr
.LVL166:
.L96:
.LCFI25:
	.cfi_restore_state
	.loc 2 475 0
	lwz 3,1628(31)
	bl _ZNK10idAnimator12AnimFullNameEi
	lwz 4,2964(31)
	mr 26,3
	lwz 3,1628(31)
	bl _ZNK10idAnimator10AnimLengthEi
	lwz 4,2964(31)
	mr 27,3
	lwz 3,1628(31)
	bl _ZNK10idAnimator10AnimLengthEi
	lwz 4,2964(31)
	mr 28,3
	lwz 3,1628(31)
	bl _ZNK10idAnimator9NumFramesEi
	mulhw 7,28,30
	srawi 9,28,31
	srawi 0,27,31
	lis 4,.LC14@ha
	mulhw 30,27,30
	srawi 7,7,6
	subf 7,9,7
	mr 8,3
	la 4,.LC14@l(4)
	mulli 7,7,1000
	srawi 6,30,6
	mr 3,29
	mr 5,26
	subf 6,0,6
	subf 7,7,28
	crxor 6,6,6
	bl _ZNK11idGameLocal6PrintfEPKcz
	b .L93
.L95:
	.loc 2 465 0
	lwz 3,1628(31)
	lis 4,.LC12@ha
	la 4,.LC12@l(4)
	bl _ZNK10idAnimator7GetAnimEPKc
	.loc 2 468 0
	cmpwi 7,3,0
	.loc 2 465 0
	mr 4,3
	stw 3,2964(31)
	.loc 2 468 0
	beq+ 7,.L90
	b .L91
.L94:
	.loc 2 454 0
	mr 3,30
	bl _ZNK10idAnimator8NumAnimsEv
	addi 4,3,-1
	stw 4,2960(31)
	b .L89
	.cfi_endproc
.LFE2826:
	.size	_ZN11idTestModel8PrevAnimERK9idCmdArgs, .-_ZN11idTestModel8PrevAnimERK9idCmdArgs
	.align 2
	.globl _ZN11idTestModel9NextFrameERK9idCmdArgs
	.type	_ZN11idTestModel9NextFrameERK9idCmdArgs, @function
_ZN11idTestModel9NextFrameERK9idCmdArgs:
.LFB2827:
	.loc 2 488 0
	.cfi_startproc
.LVL167:
	mflr 0
	stwu 1,-24(1)
.LCFI26:
	.cfi_def_cfa_offset 24
	.cfi_register 65, 0
	stw 31,20(1)
	mr 31,3
	.cfi_offset 31, -4
	stw 0,28(1)
	stw 28,8(1)
	stw 29,12(1)
	stw 30,16(1)
	.loc 2 489 0
	lwz 4,2960(3)
.LVL168:
	cmpwi 7,4,0
	beq- 7,.L97
	.cfi_offset 30, -8
	.cfi_offset 29, -12
	.cfi_offset 28, -16
	.cfi_offset 65, 4
.LBB1627:
.LBB1628:
	.loc 2 489 0 is_stmt 0 discriminator 2
	lis 9,g_testModelAnimate+44@ha
	.loc 9 143 0 is_stmt 1 discriminator 2
	lwz 9,g_testModelAnimate+44@l(9)
	lwz 0,36(9)
.LBE1628:
.LBE1627:
	.loc 2 489 0 discriminator 2
	cmpwi 7,0,3
	beq- 7,.L99
	.loc 2 489 0 is_stmt 0 discriminator 3
	cmpwi 7,0,5
	beq- 7,.L99
.L97:
	.loc 2 502 0 is_stmt 1
	lwz 0,28(1)
	lwz 28,8(1)
	mtlr 0
	lwz 29,12(1)
	lwz 30,16(1)
	lwz 31,20(1)
	addi 1,1,24
	.cfi_remember_state
.LCFI27:
	.cfi_def_cfa_offset 0
	.cfi_restore 31
	.cfi_restore 30
	.cfi_restore 29
	.cfi_restore 28
	blr
.L99:
.LCFI28:
	.cfi_restore_state
	.loc 2 493 0
	lwz 30,2972(31)
	.loc 2 494 0
	addi 29,31,636
	mr 3,29
.LVL169:
	.loc 2 493 0
	addi 30,30,1
	stw 30,2972(31)
	.loc 2 494 0
	bl _ZNK10idAnimator9NumFramesEi
	cmpw 7,30,3
	ble- 7,.L101
	.loc 2 495 0
	li 0,1
	stw 0,2972(31)
.L101:
	.loc 2 498 0
	lwz 4,2960(31)
	mr 3,29
	bl _ZNK10idAnimator12AnimFullNameEi
	lwz 4,2960(31)
	mr 28,3
	mr 3,29
	lwz 30,2972(31)
	bl _ZNK10idAnimator9NumFramesEi
	mr 7,3
	lis 4,.LC15@ha
	lis 3,gameLocal@ha
	mr 5,28
	mr 6,30
	la 3,gameLocal@l(3)
	la 4,.LC15@l(4)
	crxor 6,6,6
	bl _ZNK11idGameLocal6PrintfEPKcz
	.loc 2 501 0
	li 0,-1
	stw 0,2968(31)
	.loc 2 502 0
	lwz 0,28(1)
	lwz 28,8(1)
	mtlr 0
	lwz 29,12(1)
	lwz 30,16(1)
	lwz 31,20(1)
.LVL170:
	addi 1,1,24
	.cfi_restore 28
	.cfi_restore 29
	.cfi_restore 30
	.cfi_restore 31
.LCFI29:
	.cfi_def_cfa_offset 0
	blr
	.cfi_endproc
.LFE2827:
	.size	_ZN11idTestModel9NextFrameERK9idCmdArgs, .-_ZN11idTestModel9NextFrameERK9idCmdArgs
	.align 2
	.globl _ZN11idTestModel9PrevFrameERK9idCmdArgs
	.type	_ZN11idTestModel9PrevFrameERK9idCmdArgs, @function
_ZN11idTestModel9PrevFrameERK9idCmdArgs:
.LFB2828:
	.loc 2 509 0
	.cfi_startproc
.LVL171:
	mflr 0
	stwu 1,-24(1)
.LCFI30:
	.cfi_def_cfa_offset 24
	.cfi_register 65, 0
	stw 31,20(1)
	mr 31,3
	.cfi_offset 31, -4
	stw 0,28(1)
	stw 28,8(1)
	stw 29,12(1)
	stw 30,16(1)
	.loc 2 510 0
	lwz 4,2960(3)
.LVL172:
	cmpwi 7,4,0
	beq- 7,.L102
	.cfi_offset 30, -8
	.cfi_offset 29, -12
	.cfi_offset 28, -16
	.cfi_offset 65, 4
.LBB1629:
.LBB1630:
	.loc 2 510 0 is_stmt 0 discriminator 2
	lis 9,g_testModelAnimate+44@ha
	.loc 9 143 0 is_stmt 1 discriminator 2
	lwz 9,g_testModelAnimate+44@l(9)
	lwz 0,36(9)
.LBE1630:
.LBE1629:
	.loc 2 510 0 discriminator 2
	cmpwi 7,0,3
	beq- 7,.L104
	.loc 2 510 0 is_stmt 0 discriminator 3
	cmpwi 7,0,5
	beq- 7,.L104
.L102:
	.loc 2 523 0 is_stmt 1
	lwz 0,28(1)
	lwz 28,8(1)
	mtlr 0
	lwz 29,12(1)
	lwz 30,16(1)
	lwz 31,20(1)
	addi 1,1,24
	.cfi_remember_state
.LCFI31:
	.cfi_def_cfa_offset 0
	.cfi_restore 31
	.cfi_restore 30
	.cfi_restore 29
	.cfi_restore 28
	blr
.L104:
.LCFI32:
	.cfi_restore_state
	.loc 2 514 0
	lwz 9,2972(31)
	.loc 2 516 0
	addi 29,31,636
	.loc 2 514 0
	addi 0,9,-1
	.loc 2 515 0
	cmpwi 7,0,0
	.loc 2 514 0
	stw 0,2972(31)
	.loc 2 515 0
	ble- 7,.L105
.LVL173:
.L106:
	.loc 2 519 0
	mr 3,29
	bl _ZNK10idAnimator12AnimFullNameEi
	lwz 4,2960(31)
	mr 28,3
	mr 3,29
	lwz 30,2972(31)
	bl _ZNK10idAnimator9NumFramesEi
	mr 7,3
	lis 4,.LC15@ha
	lis 3,gameLocal@ha
	mr 5,28
	mr 6,30
	la 3,gameLocal@l(3)
	la 4,.LC15@l(4)
	crxor 6,6,6
	bl _ZNK11idGameLocal6PrintfEPKcz
	.loc 2 522 0
	li 0,-1
	stw 0,2968(31)
	.loc 2 523 0
	lwz 0,28(1)
	lwz 28,8(1)
	mtlr 0
	lwz 29,12(1)
	lwz 30,16(1)
	lwz 31,20(1)
.LVL174:
	addi 1,1,24
	.cfi_remember_state
	.cfi_restore 28
	.cfi_restore 29
	.cfi_restore 30
	.cfi_restore 31
.LCFI33:
	.cfi_def_cfa_offset 0
	blr
.LVL175:
.L105:
.LCFI34:
	.cfi_restore_state
	.loc 2 516 0
	mr 3,29
.LVL176:
	bl _ZNK10idAnimator9NumFramesEi
	lwz 4,2960(31)
	stw 3,2972(31)
	b .L106
	.cfi_endproc
.LFE2828:
	.size	_ZN11idTestModel9PrevFrameERK9idCmdArgs, .-_ZN11idTestModel9PrevFrameERK9idCmdArgs
	.align 2
	.globl _ZN11idTestModel8TestAnimERK9idCmdArgs
	.type	_ZN11idTestModel8TestAnimERK9idCmdArgs, @function
_ZN11idTestModel8TestAnimERK9idCmdArgs:
.LFB2829:
	.loc 2 530 0
	.cfi_startproc
	.cfi_personality 0,__gxx_personality_v0
	.cfi_lsda 0,.LLSDA2829
.LVL177:
	mflr 0
	stwu 1,-72(1)
.LCFI35:
	.cfi_def_cfa_offset 72
	.cfi_register 65, 0
.LVL178:
	stw 31,68(1)
	mr 31,3
	.cfi_offset 31, -4
	stw 0,76(1)
.LBB1653:
.LBB1654:
.LBB1655:
.LBB1656:
	.file 12 "d:/Data/Nintendo/DoomGX/src/game/anim/../../idlib/../idlib/Str.h"
	.loc 12 356 0
	li 0,0
	.cfi_offset 65, 4
.LBE1656:
.LBE1655:
.LBE1654:
.LBE1653:
	.loc 2 530 0
	stw 25,44(1)
	stw 26,48(1)
	stw 27,52(1)
	stw 28,56(1)
	stw 29,60(1)
	stw 30,64(1)
.LBB1692:
.LBB1663:
.LBB1660:
.LBB1657:
	.loc 12 356 0
	stw 0,8(1)
.LBE1657:
.LBE1660:
.LBE1663:
	.loc 2 535 0
	lwz 9,0(4)
.LBB1664:
.LBB1661:
.LBB1658:
	.loc 12 359 0
	stb 0,20(1)
.LBE1658:
.LBE1661:
.LBE1664:
	.loc 2 535 0
	cmpwi 7,9,1
.LBB1665:
.LBB1662:
.LBB1659:
	.loc 12 357 0
	li 9,20
	stw 9,16(1)
	.loc 12 358 0
	addi 9,1,20
	stw 9,12(1)
.LBE1659:
.LBE1662:
.LBE1665:
	.loc 2 535 0
	ble- 7,.L121
	.cfi_offset 30, -8
	.cfi_offset 29, -12
	.cfi_offset 28, -16
	.cfi_offset 27, -20
	.cfi_offset 26, -24
	.cfi_offset 25, -28
.LVL179:
	.loc 2 542 0
	addi 29,1,8
	lwz 4,8(4)
.LVL180:
	mr 3,29
.LVL181:
.LEHB0:
	bl _ZN5idStraSEPKc
	.loc 2 558 0
	addi 30,31,636
.LVL182:
	lwz 4,12(1)
	mr 3,30
	bl _ZNK10idAnimator7GetAnimEPKc
.LVL183:
	.loc 2 561 0
	mr. 4,3
	beq- 0,.L122
	.loc 2 567 0
	lis 27,gameLocal@ha
	.loc 2 566 0
	stw 4,2960(31)
	.loc 2 567 0
	la 27,gameLocal@l(27)
	.loc 2 568 0
	mr 3,30
.LVL184:
	.loc 2 567 0
	addis 28,27,0x25
	lwz 0,2004(28)
	stw 0,2976(31)
	.loc 2 568 0
	bl _ZNK10idAnimator10AnimLengthEi
.LVL185:
	.loc 2 570 0
	lwz 0,1628(31)
	.loc 2 569 0
	li 9,0
	.loc 2 568 0
	stw 3,2980(31)
	.loc 2 570 0
	cmpwi 7,0,0
	.loc 2 569 0
	stw 9,2964(31)
	.loc 2 570 0
	beq- 7,.L111
	.loc 2 571 0
	lwz 4,2004(28)
	mr 3,0
	li 5,0
	bl _ZN10idAnimator13ClearAllAnimsEii
.LVL186:
	.loc 2 572 0
	lwz 3,1628(31)
	lwz 4,2932(31)
	bl _ZNK10idAnimator7GetAnimEPKc
	.loc 2 573 0
	cmpwi 7,3,0
	.loc 2 572 0
	mr 4,3
	stw 3,2964(31)
	.loc 2 573 0
	beq- 7,.L123
.L119:
	.loc 2 580 0 discriminator 1
	lwz 3,1628(31)
	bl _ZNK10idAnimator10AnimLengthEi
	lwz 0,2980(31)
	cmpw 7,3,0
	bgt- 7,.L124
.LVL187:
.L111:
.LBB1666:
	.loc 2 928 0
	lwz 28,8(1)
.LBB1667:
.LBB1668:
.LBB1669:
	.loc 12 350 0
	lwz 0,2936(31)
.LBE1669:
.LBE1668:
	.loc 12 534 0
	addi 4,28,1
.LVL188:
.LBB1672:
.LBB1670:
	.loc 12 350 0
	cmpw 7,4,0
	bgt- 7,.L125
.LVL189:
.L114:
.LBE1670:
.LBE1672:
	.loc 12 535 0
	lwz 4,12(1)
	mr 5,28
	lwz 3,2932(31)
	bl memcpy
	.loc 12 536 0
	lwz 9,2932(31)
	li 0,0
.LBE1667:
.LBE1666:
	.loc 2 586 0
	mr 3,30
.LBB1677:
.LBB1674:
	.loc 12 536 0
	stbx 0,9,28
	.loc 12 537 0
	stw 28,2928(31)
.LBE1674:
.LBE1677:
	.loc 2 586 0
	lwz 4,2960(31)
.LBB1678:
.LBB1675:
	.loc 2 928 0
	lwz 25,2932(31)
.LBE1675:
.LBE1678:
	.loc 2 586 0
	bl _ZNK10idAnimator10AnimLengthEi
	lwz 4,2960(31)
	mr 26,3
	mr 3,30
	bl _ZNK10idAnimator10AnimLengthEi
	.loc 2 586 0 is_stmt 0 discriminator 1
	lwz 4,2960(31)
	mr 28,3
	mr 3,30
	bl _ZNK10idAnimator9NumFramesEi
	lis 6,0x1062
	srawi 0,26,31
	ori 6,6,19923
	srawi 9,28,31
	mulhw 7,28,6
	lis 4,.LC13@ha
	mr 8,3
	la 4,.LC13@l(4)
	mr 3,27
	mulhw 26,26,6
	srawi 7,7,6
	subf 7,9,7
	mr 5,25
	mulli 7,7,1000
	srawi 6,26,6
	subf 6,0,6
	subf 7,7,28
	crxor 6,6,6
	bl _ZNK11idGameLocal6PrintfEPKcz
.LEHE0:
	.loc 2 589 0 is_stmt 1
	li 0,-1
.LBB1679:
.LBB1680:
.LBB1681:
	.loc 12 501 0
	mr 3,29
.LBE1681:
.LBE1680:
.LBE1679:
	.loc 2 589 0
	stw 0,2968(31)
.LVL190:
.LEHB1:
.LBB1684:
.LBB1683:
.LBB1682:
	.loc 12 501 0
	bl _ZN5idStr8FreeDataEv
.LEHE1:
.LBE1682:
.LBE1683:
.LBE1684:
.LBE1692:
	.loc 2 590 0
	lwz 0,76(1)
	lwz 25,44(1)
	mtlr 0
	lwz 26,48(1)
	lwz 27,52(1)
	lwz 28,56(1)
	lwz 29,60(1)
	lwz 30,64(1)
	lwz 31,68(1)
.LVL191:
	addi 1,1,72
	.cfi_remember_state
	.cfi_restore 25
	.cfi_restore 26
	.cfi_restore 27
	.cfi_restore 28
	.cfi_restore 29
	.cfi_restore 30
	.cfi_restore 31
.LCFI36:
	.cfi_def_cfa_offset 0
	blr
.LVL192:
.L122:
.LCFI37:
	.cfi_restore_state
.LBB1693:
	.loc 2 562 0
	lis 3,gameLocal@ha
.LVL193:
	lis 4,.LC17@ha
.LVL194:
	lwz 5,12(1)
	la 3,gameLocal@l(3)
	la 4,.LC17@l(4)
.LEHB2:
	crxor 6,6,6
	bl _ZNK11idGameLocal6PrintfEPKcz
.LEHE2:
.LVL195:
.L109:
.LBB1685:
.LBB1686:
.LBB1687:
	.loc 12 501 0
	mr 3,29
.LEHB3:
	bl _ZN5idStr8FreeDataEv
.LEHE3:
.LBE1687:
.LBE1686:
.LBE1685:
.LBE1693:
	.loc 2 590 0
	lwz 0,76(1)
	lwz 25,44(1)
	mtlr 0
	lwz 26,48(1)
	lwz 27,52(1)
	lwz 28,56(1)
	lwz 29,60(1)
	lwz 30,64(1)
	lwz 31,68(1)
.LVL196:
	addi 1,1,72
	.cfi_remember_state
.LCFI38:
	.cfi_def_cfa_offset 0
	.cfi_restore 31
	.cfi_restore 30
	.cfi_restore 29
	.cfi_restore 28
	.cfi_restore 27
	.cfi_restore 26
	.cfi_restore 25
	blr
.LVL197:
.L124:
.LCFI39:
	.cfi_restore_state
.LBB1694:
	.loc 2 581 0 discriminator 4
	lwz 3,1628(31)
	lwz 4,2964(31)
.LEHB4:
	bl _ZNK10idAnimator10AnimLengthEi
	stw 3,2980(31)
	b .L111
.LVL198:
.L125:
.LBB1688:
.LBB1676:
.LBB1673:
.LBB1671:
	.loc 12 351 0
	addi 3,31,2928
	li 5,0
	bl _ZN5idStr10ReAllocateEib
.LVL199:
	b .L114
.LVL200:
.L121:
.LBE1671:
.LBE1673:
.LBE1676:
.LBE1688:
	.loc 2 536 0
	lis 3,gameLocal@ha
	lis 4,.LC16@ha
.LVL201:
	la 3,gameLocal@l(3)
	la 4,.LC16@l(4)
	addi 29,1,8
	crxor 6,6,6
	bl _ZNK11idGameLocal6PrintfEPKcz
	addi 29,1,8
	b .L109
.LVL202:
.L123:
	.loc 2 574 0
	lis 4,.LC12@ha
	lwz 3,1628(31)
	la 4,.LC12@l(4)
	bl _ZNK10idAnimator7GetAnimEPKc
	.loc 2 575 0
	cmpwi 7,3,0
	.loc 2 574 0
	mr 4,3
	stw 3,2964(31)
	.loc 2 575 0
	bne+ 7,.L119
	.loc 2 576 0
	lis 4,.LC18@ha
	mr 3,27
	la 4,.LC18@l(4)
	crxor 6,6,6
	bl _ZNK11idGameLocal6PrintfEPKcz
.LEHE4:
	.loc 2 580 0
	lwz 4,2964(31)
	cmpwi 7,4,0
	beq+ 7,.L111
	b .L119
.LVL203:
.L120:
	mr 31,3
.LVL204:
.LBB1689:
.LBB1690:
.LBB1691:
	.loc 12 501 0
	mr 3,29
	bl _ZN5idStr8FreeDataEv
	mr 3,31
.LEHB5:
	bl _Unwind_Resume
.LEHE5:
.LBE1691:
.LBE1690:
.LBE1689:
.LBE1694:
	.cfi_endproc
.LFE2829:
	.globl __gxx_personality_v0
	.section	.gcc_except_table,"a",@progbits
.LLSDA2829:
	.byte	0xff
	.byte	0xff
	.byte	0x1
	.uleb128 .LLSDACSE2829-.LLSDACSB2829
.LLSDACSB2829:
	.uleb128 .LEHB0-.LFB2829
	.uleb128 .LEHE0-.LEHB0
	.uleb128 .L120-.LFB2829
	.uleb128 0
	.uleb128 .LEHB1-.LFB2829
	.uleb128 .LEHE1-.LEHB1
	.uleb128 0
	.uleb128 0
	.uleb128 .LEHB2-.LFB2829
	.uleb128 .LEHE2-.LEHB2
	.uleb128 .L120-.LFB2829
	.uleb128 0
	.uleb128 .LEHB3-.LFB2829
	.uleb128 .LEHE3-.LEHB3
	.uleb128 0
	.uleb128 0
	.uleb128 .LEHB4-.LFB2829
	.uleb128 .LEHE4-.LEHB4
	.uleb128 .L120-.LFB2829
	.uleb128 0
	.uleb128 .LEHB5-.LFB2829
	.uleb128 .LEHE5-.LEHB5
	.uleb128 0
	.uleb128 0
.LLSDACSE2829:
	.section	".text"
	.size	_ZN11idTestModel8TestAnimERK9idCmdArgs, .-_ZN11idTestModel8TestAnimERK9idCmdArgs
	.align 2
	.globl _ZN11idTestModel9BlendAnimERK9idCmdArgs
	.type	_ZN11idTestModel9BlendAnimERK9idCmdArgs, @function
_ZN11idTestModel9BlendAnimERK9idCmdArgs:
.LFB2830:
	.loc 2 597 0
	.cfi_startproc
.LVL205:
	mflr 0
	stwu 1,-32(1)
.LCFI40:
	.cfi_def_cfa_offset 32
	.cfi_register 65, 0
	stw 29,20(1)
	mr 29,3
	.cfi_offset 29, -12
	stw 31,28(1)
	mr 31,4
	.cfi_offset 31, -4
	stw 0,36(1)
	stw 26,8(1)
	stw 27,12(1)
	stw 28,16(1)
	stw 30,24(1)
.LBB1695:
	.loc 2 601 0
	lwz 0,0(4)
	.cfi_offset 30, -8
	.cfi_offset 28, -16
	.cfi_offset 27, -20
	.cfi_offset 26, -24
	.cfi_offset 65, 4
	cmpwi 7,0,3
	ble- 7,.L141
.LVL206:
	.loc 2 606 0
	lis 27,gameLocal@ha
	lwz 4,8(4)
.LVL207:
	la 27,gameLocal@l(27)
	addis 30,27,0x25
	lwz 3,1376(30)
.LVL208:
	addi 3,3,636
	bl _ZNK10idAnimator7GetAnimEPKc
.LVL209:
.LBB1696:
.LBB1697:
	.file 13 "d:/Data/Nintendo/DoomGX/src/game/anim/../../idlib/../idlib/CmdArgs.h"
	.loc 13 50 0
	lwz 0,0(31)
.LBE1697:
.LBE1696:
	.loc 2 607 0
	mr. 26,3
	bne- 0,.L129
.LVL210:
.LBB1699:
.LBB1698:
	.loc 13 50 0
	cmpwi 7,0,1
	ble- 7,.L138
	lwz 5,8(31)
.LVL211:
.L133:
.LBE1698:
.LBE1699:
	.loc 2 614 0
	lis 4,.LC17@ha
	mr 3,27
	la 4,.LC17@l(4)
	crxor 6,6,6
	bl _ZNK11idGameLocal6PrintfEPKcz
.LBE1695:
	.loc 2 624 0
	lwz 0,36(1)
	lwz 26,8(1)
.LVL212:
	mtlr 0
	lwz 27,12(1)
	lwz 28,16(1)
	lwz 29,20(1)
.LVL213:
	lwz 30,24(1)
	lwz 31,28(1)
.LVL214:
	addi 1,1,32
	.cfi_remember_state
.LCFI41:
	.cfi_def_cfa_offset 0
	.cfi_restore 31
	.cfi_restore 30
	.cfi_restore 29
	.cfi_restore 28
	.cfi_restore 27
	.cfi_restore 26
	blr
.LVL215:
.L129:
.LCFI42:
	.cfi_restore_state
.LBB1732:
.LBB1700:
.LBB1701:
	.loc 13 50 0
	cmpwi 7,0,2
.LBE1701:
.LBE1700:
	.loc 2 612 0
	lwz 3,1376(30)
.LVL216:
	addi 3,3,636
.LVL217:
.LBB1704:
.LBB1702:
	.loc 13 50 0
	bgt- 7,.L142
	lis 4,.LC19@ha
	la 4,.LC19@l(4)
.LBE1702:
.LBE1704:
	.loc 2 612 0
	bl _ZNK10idAnimator7GetAnimEPKc
.LVL218:
.LBB1705:
.LBB1706:
	.loc 13 50 0
	lwz 0,0(31)
.LBE1706:
.LBE1705:
	.loc 2 613 0
	mr. 28,3
	bne- 0,.L132
.L143:
.LVL219:
.LBB1710:
.LBB1707:
	.loc 13 50 0
	cmpwi 7,0,2
	ble- 7,.L138
	lwz 5,12(31)
	b .L133
.LVL220:
.L141:
.LBE1707:
.LBE1710:
	.loc 2 602 0
	lis 3,gameLocal@ha
	lis 4,.LC20@ha
	la 3,gameLocal@l(3)
	la 4,.LC20@l(4)
	crxor 6,6,6
	bl _ZNK11idGameLocal6PrintfEPKcz
.LBE1732:
	.loc 2 624 0
	lwz 0,36(1)
	lwz 26,8(1)
	mtlr 0
	lwz 27,12(1)
	lwz 28,16(1)
	lwz 29,20(1)
.LVL221:
	lwz 30,24(1)
	lwz 31,28(1)
.LVL222:
	addi 1,1,32
	.cfi_remember_state
	.cfi_restore 26
	.cfi_restore 27
	.cfi_restore 28
	.cfi_restore 29
	.cfi_restore 30
	.cfi_restore 31
.LCFI43:
	.cfi_def_cfa_offset 0
	blr
.LVL223:
.L142:
.LCFI44:
	.cfi_restore_state
.LBB1733:
.LBB1711:
.LBB1703:
	.loc 13 50 0
	lwz 4,12(31)
.LBE1703:
.LBE1711:
	.loc 2 612 0
	bl _ZNK10idAnimator7GetAnimEPKc
.LVL224:
.LBB1712:
.LBB1708:
	.loc 13 50 0
	lwz 0,0(31)
.LBE1708:
.LBE1712:
	.loc 2 613 0
	mr. 28,3
	beq- 0,.L143
.L132:
.LBB1713:
.LBB1714:
	.loc 13 50 0
	cmpwi 7,0,2
.LBE1714:
.LBE1713:
	.loc 2 618 0
	addi 3,29,2928
.LVL225:
.LBB1717:
.LBB1715:
	.loc 13 50 0
	ble- 7,.L139
	lwz 4,12(31)
.L134:
.LBE1715:
.LBE1717:
	.loc 2 618 0
	bl _ZN5idStraSEPKc
	.loc 2 619 0
	addi 27,29,636
	lwz 6,2004(30)
	mr 3,27
	li 4,0
	mr 5,26
	li 7,0
	bl _ZN10idAnimator9CycleAnimEiiii
.LBB1718:
.LBB1719:
	.loc 13 50 0
	lwz 0,0(31)
.LBE1719:
.LBE1718:
	.loc 2 620 0
	lwz 30,2004(30)
.LVL226:
.LBB1722:
.LBB1720:
	.loc 13 50 0
	cmpwi 7,0,3
	ble- 7,.L140
	lwz 3,16(31)
.L135:
.LBE1720:
.LBE1722:
	.loc 2 620 0
	bl atoi
.LVL227:
.LBB1723:
.LBB1724:
	.loc 11 49 0
	lis 7,0x2aaa
	mulli 0,3,1000
	ori 7,7,43691
.LBE1724:
.LBE1723:
	.loc 2 620 0
	mr 3,27
.LVL228:
	mr 5,28
	mr 6,30
.LBB1727:
.LBB1725:
	.loc 11 49 0
	mulhw 7,0,7
	srawi 0,0,31
.LBE1725:
.LBE1727:
	.loc 2 620 0
	li 4,0
.LBB1728:
.LBB1726:
	.loc 11 49 0
	srawi 7,7,2
.LBE1726:
.LBE1728:
	.loc 2 620 0
	subf 7,0,7
	bl _ZN10idAnimator9CycleAnimEiiii
	.loc 2 623 0
	li 0,0
	.loc 2 622 0
	stw 28,2960(29)
	.loc 2 623 0
	stw 0,2964(29)
.LBE1733:
	.loc 2 624 0
	lwz 0,36(1)
	lwz 26,8(1)
.LVL229:
	mtlr 0
	lwz 27,12(1)
	lwz 28,16(1)
.LVL230:
	lwz 29,20(1)
.LVL231:
	lwz 30,24(1)
	lwz 31,28(1)
.LVL232:
	addi 1,1,32
	.cfi_remember_state
	.cfi_restore 26
	.cfi_restore 27
	.cfi_restore 28
	.cfi_restore 29
	.cfi_restore 30
	.cfi_restore 31
.LCFI45:
	.cfi_def_cfa_offset 0
	blr
.LVL233:
.L138:
.LCFI46:
	.cfi_restore_state
.LBB1734:
.LBB1729:
.LBB1709:
	.loc 13 50 0
	lis 5,.LC19@ha
	la 5,.LC19@l(5)
	b .L133
.LVL234:
.L140:
.LBE1709:
.LBE1729:
.LBB1730:
.LBB1721:
	lis 3,.LC19@ha
	la 3,.LC19@l(3)
	b .L135
.LVL235:
.L139:
.LBE1721:
.LBE1730:
.LBB1731:
.LBB1716:
	lis 4,.LC19@ha
	la 4,.LC19@l(4)
	b .L134
.LBE1716:
.LBE1731:
.LBE1734:
	.cfi_endproc
.LFE2830:
	.size	_ZN11idTestModel9BlendAnimERK9idCmdArgs, .-_ZN11idTestModel9BlendAnimERK9idCmdArgs
	.align 2
	.globl _ZN11idTestModel15KeepTestModel_fERK9idCmdArgs
	.type	_ZN11idTestModel15KeepTestModel_fERK9idCmdArgs, @function
_ZN11idTestModel15KeepTestModel_fERK9idCmdArgs:
.LFB2831:
	.loc 2 640 0
	.cfi_startproc
.LVL236:
	mflr 0
	stwu 1,-16(1)
.LCFI47:
	.cfi_def_cfa_offset 16
	.cfi_register 65, 0
	.loc 2 641 0
	lis 3,gameLocal@ha
.LVL237:
	.loc 2 640 0
	stw 31,12(1)
	.loc 2 641 0
	la 3,gameLocal@l(3)
	.loc 2 640 0
	stw 0,20(1)
	.loc 2 641 0
	addis 31,3,0x25
	.cfi_offset 65, 4
	.cfi_offset 31, -4
	lwz 9,1376(31)
	cmpwi 7,9,0
	beq- 7,.L147
	.loc 2 646 0
	lwz 5,196(9)
	lis 4,.LC22@ha
	la 4,.LC22@l(4)
	crxor 6,6,6
	bl _ZNK11idGameLocal6PrintfEPKcz
	.loc 2 648 0
	li 0,0
	stw 0,1376(31)
	.loc 2 649 0
	lwz 0,20(1)
	lwz 31,12(1)
	mtlr 0
	addi 1,1,16
	.cfi_remember_state
.LCFI48:
	.cfi_def_cfa_offset 0
	.cfi_restore 31
	blr
.L147:
.LCFI49:
	.cfi_restore_state
	.loc 2 642 0
	lis 4,.LC21@ha
	la 4,.LC21@l(4)
	crxor 6,6,6
	bl _ZNK11idGameLocal6PrintfEPKcz
	.loc 2 649 0
	lwz 0,20(1)
	lwz 31,12(1)
	mtlr 0
	addi 1,1,16
	.cfi_restore 31
.LCFI50:
	.cfi_def_cfa_offset 0
	blr
	.cfi_endproc
.LFE2831:
	.size	_ZN11idTestModel15KeepTestModel_fERK9idCmdArgs, .-_ZN11idTestModel15KeepTestModel_fERK9idCmdArgs
	.align 2
	.globl _ZN11idTestModel23ArgCompletion_TestModelERK9idCmdArgsPFvPKcE
	.type	_ZN11idTestModel23ArgCompletion_TestModelERK9idCmdArgsPFvPKcE, @function
_ZN11idTestModel23ArgCompletion_TestModelERK9idCmdArgsPFvPKcE:
.LFB2838:
	.loc 2 802 0
	.cfi_startproc
	.cfi_personality 0,__gxx_personality_v0
	.cfi_lsda 0,.LLSDA2838
.LVL238:
	stwu 1,-296(1)
.LCFI51:
	.cfi_def_cfa_offset 296
	mflr 0
	mfcr 12
	stw 30,288(1)
.LBB1860:
	.loc 2 805 0
	lis 30,declManager@ha
	.cfi_offset 30, -8
	.cfi_register 70, 12
	.cfi_register 65, 0
.LBE1860:
	.loc 2 802 0
	stw 20,248(1)
	stw 24,264(1)
	mr 24,3
	.cfi_offset 24, -32
	.cfi_offset 20, -48
	stw 0,300(1)
	stw 16,232(1)
	stw 17,236(1)
	stw 18,240(1)
	stw 19,244(1)
	stw 21,252(1)
	stw 22,256(1)
	stw 23,260(1)
	stw 25,268(1)
	stw 26,272(1)
	stw 27,276(1)
	stw 28,280(1)
	stw 29,284(1)
	stw 31,292(1)
	stw 12,228(1)
.LBB2175:
	.loc 2 805 0
	lwz 9,declManager@l(30)
.LBE2175:
	.loc 2 802 0
	stw 4,216(1)
.LBB2176:
	.loc 2 805 0
	li 4,4
.LVL239:
	lwz 11,0(9)
	mr 3,9
.LVL240:
	lwz 0,72(11)
	.cfi_offset 70, -68
	.cfi_offset 31, -4
	.cfi_offset 29, -12
	.cfi_offset 28, -16
	.cfi_offset 27, -20
	.cfi_offset 26, -24
	.cfi_offset 25, -28
	.cfi_offset 23, -36
	.cfi_offset 22, -40
	.cfi_offset 21, -44
	.cfi_offset 19, -52
	.cfi_offset 18, -56
	.cfi_offset 17, -60
	.cfi_offset 16, -64
	.cfi_offset 65, 4
	mtctr 0
.LEHB6:
	bctrl
.LVL241:
	.loc 2 806 0
	mr. 20,3
	ble- 0,.L149
	li 0,1
	addi 21,1,164
	cmpwi 3,0,20
	li 29,0
	addi 19,1,196
.LBB1861:
.LBB1862:
.LBB1863:
.LBB1864:
	.loc 12 356 0
	li 26,0
	.loc 12 357 0
	li 23,20
	.loc 13 50 0
	lis 18,.LC19@ha
.LBE1864:
.LBE1863:
.LBE1862:
.LBE1861:
.LBB1875:
.LBB1876:
.LBB1877:
.LBB1878:
.LBB1879:
.LBB1880:
	.loc 12 358 0
	mr 17,21
.LBE1880:
.LBE1879:
.LBE1878:
.LBE1877:
.LBB1894:
.LBB1895:
	.loc 12 778 0
	li 27,32
	.loc 12 781 0
	li 28,0
.LBE1895:
.LBE1894:
.LBE1876:
.LBE1875:
.LBB1931:
.LBB1932:
.LBB1933:
.LBB1934:
.LBB1935:
.LBB1936:
	.loc 12 358 0
	addi 22,1,132
.LVL242:
.L170:
.LBE1936:
.LBE1935:
.LBE1934:
.LBE1933:
.LBE1932:
.LBE1931:
.LBB1978:
.LBB1979:
	.loc 13 50 0
	lwz 0,0(24)
	cmpwi 7,0,0
	ble- 7,.L150
	lwz 31,4(24)
.LVL243:
.LBE1979:
.LBE1978:
.LBB1980:
.LBB1873:
.LBB1868:
.LBB1865:
	.loc 12 356 0
	stw 26,184(1)
.LBE1865:
.LBE1868:
	.loc 12 412 0
	cmpwi 7,31,0
.LBB1869:
.LBB1866:
	.loc 12 357 0
	stw 23,192(1)
	.loc 12 358 0
	stw 19,188(1)
	.loc 12 359 0
	stb 26,196(1)
.LBE1866:
.LBE1869:
	.loc 12 412 0
	beq- 7,.L151
	.loc 2 802 0
	mr 3,31
	bl strlen
.LVL244:
	addi 16,3,1
	mr 25,3
.LVL245:
.LBB1870:
.LBB1871:
	.loc 12 350 0
	cmpwi 4,16,20
	ble+ 4,.L152
	.loc 12 351 0
	addi 3,1,184
.LVL246:
	mr 4,16
	li 5,1
	bl _ZN5idStr10ReAllocateEib
.LEHE6:
.LVL247:
.L152:
.LBE1871:
.LBE1870:
	.loc 12 415 0
	lwz 3,188(1)
	mr 4,31
	bl strcpy
	.loc 12 416 0
	stw 25,184(1)
.LVL248:
.LBE1873:
.LBE1980:
.LBB1981:
.LBB1925:
.LBB1909:
.LBB1889:
.LBB1883:
.LBB1881:
	.loc 12 356 0
	stw 26,152(1)
	.loc 12 357 0
	stw 23,160(1)
	.loc 12 358 0
	stw 21,156(1)
	.loc 12 359 0
	stb 26,164(1)
.LVL249:
.LBE1881:
.LBE1883:
.LBB1884:
.LBB1885:
	.loc 12 350 0
	bgt- 4,.L221
	.loc 12 358 0
	mr 3,21
.LVL250:
.L153:
.LBE1885:
.LBE1884:
	.loc 12 375 0
	lwz 4,188(1)
.LBE1889:
.LBE1909:
.LBB1910:
.LBB1904:
	.loc 12 775 0
	addi 31,25,1
.LBE1904:
.LBE1910:
.LBB1911:
.LBB1890:
	.loc 12 375 0
	bl strcpy
.LBE1890:
.LBE1911:
.LBB1912:
.LBB1905:
.LBB1896:
.LBB1897:
	.loc 12 350 0
	lwz 0,160(1)
.LBE1897:
.LBE1896:
	.loc 12 776 0
	addi 4,31,1
	.loc 12 775 0
	mr 11,25
.LBB1901:
.LBB1898:
	.loc 12 350 0
	cmpw 7,4,0
.LBE1898:
.LBE1901:
.LBE1905:
.LBE1912:
.LBB1913:
.LBB1891:
	.loc 12 376 0
	stw 25,152(1)
.LVL251:
.LBE1891:
.LBE1913:
.LBB1914:
.LBB1906:
.LBB1902:
.LBB1899:
	.loc 12 350 0
	bgt- 7,.L222
.LVL252:
.L154:
.LBE1899:
.LBE1902:
	.loc 12 778 0
	lwz 9,156(1)
.LBE1906:
.LBE1914:
.LBE1925:
.LBE1981:
	.loc 2 807 0
	li 4,4
	mr 5,29
	li 6,0
.LBB1982:
.LBB1926:
.LBB1915:
.LBB1907:
	.loc 12 778 0
	stbx 27,9,11
.LVL253:
	.loc 12 780 0
	stw 31,152(1)
	.loc 12 781 0
	lwz 9,156(1)
	stbx 28,9,31
.LBE1907:
.LBE1915:
.LBE1926:
.LBE1982:
	.loc 2 807 0
	lwz 3,declManager@l(30)
	lwz 9,0(3)
	lwz 0,76(9)
	mtctr 0
.LEHB7:
	bctrl
.LBB1983:
.LBB1927:
.LBB1916:
.LBB1917:
.LBB1918:
	.loc 2 928 0
	lwz 3,4(3)
.LBE1918:
.LBE1917:
.LBE1916:
.LBE1927:
.LBE1983:
.LBB1984:
.LBB1985:
	.file 14 "d:/Data/Nintendo/DoomGX/src/game/anim/../../idlib/../framework/DeclManager.h"
	.loc 14 140 0
	lwz 9,0(3)
	lwz 0,8(9)
	mtctr 0
	bctrl
.LEHE7:
.LBE1985:
.LBE1984:
.LBB1987:
.LBB1973:
.LBB1954:
	.loc 2 928 0 discriminator 2
	lwz 25,152(1)
.LBE1954:
.LBE1973:
.LBE1987:
.LBB1988:
.LBB1986:
	.loc 14 140 0 discriminator 2
	mr 31,3
.LVL254:
.LBE1986:
.LBE1988:
.LBB1989:
.LBB1974:
.LBB1955:
.LBB1951:
.LBB1940:
.LBB1937:
	.loc 12 356 0 discriminator 2
	stw 26,120(1)
.LBE1937:
.LBE1940:
.LBB1941:
.LBB1942:
	.loc 12 358 0 discriminator 2
	mr 3,22
.LVL255:
.LBE1942:
.LBE1941:
	.loc 12 374 0 discriminator 2
	addi 4,25,1
.LVL256:
.LBB1946:
.LBB1938:
	.loc 12 357 0 discriminator 2
	stw 23,128(1)
.LBE1938:
.LBE1946:
.LBB1947:
.LBB1943:
	.loc 12 350 0 discriminator 2
	cmpwi 7,4,20
.LBE1943:
.LBE1947:
.LBB1948:
.LBB1939:
	.loc 12 358 0 discriminator 2
	stw 22,124(1)
	.loc 12 359 0 discriminator 2
	stb 26,132(1)
.LBE1939:
.LBE1948:
.LBB1949:
.LBB1944:
	.loc 12 350 0 discriminator 2
	bgt- 7,.L223
.LVL257:
.L159:
.LBE1944:
.LBE1949:
	.loc 12 375 0
	lwz 4,156(1)
	bl strcpy
.LBE1951:
.LBE1955:
.LBB1956:
.LBB1957:
	.loc 12 774 0
	cmpwi 7,31,0
.LBE1957:
.LBE1956:
.LBB1966:
.LBB1952:
	.loc 12 376 0
	stw 25,120(1)
.LVL258:
.LBE1952:
.LBE1966:
.LBB1967:
.LBB1964:
	.loc 12 774 0
	beq- 7,.L160
	.loc 12 775 0
	mr 3,31
	bl strlen
.LBB1958:
.LBB1959:
	.loc 12 350 0
	lwz 0,128(1)
.LBE1959:
.LBE1958:
	.loc 12 775 0
	add 25,3,25
.LVL259:
	.loc 12 776 0
	addi 4,25,1
.LVL260:
.LBB1962:
.LBB1960:
	.loc 12 350 0
	cmpw 7,4,0
	bgt- 7,.L224
.LVL261:
.L161:
.LBE1960:
.LBE1962:
	.loc 12 777 0
	lbz 0,0(31)
	cmpwi 7,0,0
	beq- 7,.L162
	li 9,0
.LVL262:
.L163:
	.loc 12 778 0
	lwz 11,120(1)
	lwz 10,124(1)
	add 11,10,11
	stbx 0,11,9
	.loc 12 777 0
	addi 9,9,1
.LVL263:
	lbzx 0,31,9
	cmpwi 7,0,0
	bne+ 7,.L163
.LVL264:
.L162:
	.loc 12 781 0
	lwz 9,124(1)
	.loc 12 780 0
	stw 25,120(1)
	.loc 12 781 0
	stbx 28,9,25
.LVL265:
.L160:
.LBE1964:
.LBE1967:
.LBE1974:
.LBE1989:
	.loc 2 807 0
	lwz 0,216(1)
	lwz 3,124(1)
	mtctr 0
.LEHB8:
	bctrl
.LEHE8:
.LVL266:
.LBB1990:
.LBB1991:
.LBB1992:
	.loc 12 501 0
	addi 3,1,120
.LEHB9:
	bl _ZN5idStr8FreeDataEv
.LEHE9:
.LVL267:
.LBE1992:
.LBE1991:
.LBE1990:
.LBB1993:
.LBB1994:
.LBB1995:
	addi 3,1,152
.LVL268:
.LEHB10:
	bl _ZN5idStr8FreeDataEv
.LEHE10:
.LVL269:
.LBE1995:
.LBE1994:
.LBE1993:
.LBB1996:
.LBB1997:
.LBB1998:
	addi 3,1,184
.LVL270:
.LBE1998:
.LBE1997:
.LBE1996:
	.loc 2 806 0
	addi 29,29,1
.LEHB11:
.LBB2001:
.LBB2000:
.LBB1999:
	.loc 12 501 0
	bl _ZN5idStr8FreeDataEv
.LVL271:
.LBE1999:
.LBE2000:
.LBE2001:
	.loc 2 806 0
	cmpw 7,29,20
	bne+ 7,.L170
.LVL272:
.L149:
	.loc 2 809 0
	lwz 3,declManager@l(30)
	li 4,5
	lwz 9,0(3)
	lwz 0,72(9)
	mtctr 0
	bctrl
.LVL273:
	.loc 2 810 0
	mr. 20,3
	ble- 0,.L171
	li 0,1
	addi 21,1,68
	cmpwi 3,0,20
	li 29,0
	addi 19,1,100
.LBB2002:
.LBB2003:
.LBB2004:
.LBB2005:
	.loc 12 356 0
	li 26,0
	.loc 12 357 0
	li 23,20
	.loc 13 50 0
	lis 18,.LC19@ha
.LBE2005:
.LBE2004:
.LBE2003:
.LBE2002:
.LBB2016:
.LBB2017:
.LBB2018:
.LBB2019:
.LBB2020:
.LBB2021:
	.loc 12 358 0
	mr 17,21
.LBE2021:
.LBE2020:
.LBE2019:
.LBE2018:
.LBB2035:
.LBB2036:
	.loc 12 778 0
	li 27,32
	.loc 12 781 0
	li 28,0
.LBE2036:
.LBE2035:
.LBE2017:
.LBE2016:
.LBB2072:
.LBB2073:
.LBB2074:
.LBB2075:
.LBB2076:
.LBB2077:
	.loc 12 358 0
	addi 22,1,36
.LVL274:
.L192:
.LBE2077:
.LBE2076:
.LBE2075:
.LBE2074:
.LBE2073:
.LBE2072:
.LBB2119:
.LBB2120:
	.loc 13 50 0
	lwz 0,0(24)
	cmpwi 7,0,0
	ble- 7,.L172
	lwz 31,4(24)
.LVL275:
.LBE2120:
.LBE2119:
.LBB2121:
.LBB2014:
.LBB2009:
.LBB2006:
	.loc 12 356 0
	stw 26,88(1)
.LBE2006:
.LBE2009:
	.loc 12 412 0
	cmpwi 7,31,0
.LBB2010:
.LBB2007:
	.loc 12 357 0
	stw 23,96(1)
	.loc 12 358 0
	stw 19,92(1)
	.loc 12 359 0
	stb 26,100(1)
.LBE2007:
.LBE2010:
	.loc 12 412 0
	beq- 7,.L173
	.loc 2 802 0
	mr 3,31
	bl strlen
.LVL276:
	addi 16,3,1
	mr 25,3
.LVL277:
.LBB2011:
.LBB2012:
	.loc 12 350 0
	cmpwi 4,16,20
	ble+ 4,.L174
	.loc 12 351 0
	addi 3,1,88
.LVL278:
	mr 4,16
	li 5,1
	bl _ZN5idStr10ReAllocateEib
.LEHE11:
.LVL279:
.L174:
.LBE2012:
.LBE2011:
	.loc 12 415 0
	lwz 3,92(1)
	mr 4,31
	bl strcpy
	.loc 12 416 0
	stw 25,88(1)
.LVL280:
.LBE2014:
.LBE2121:
.LBB2122:
.LBB2066:
.LBB2050:
.LBB2030:
.LBB2024:
.LBB2022:
	.loc 12 356 0
	stw 26,56(1)
	.loc 12 357 0
	stw 23,64(1)
	.loc 12 358 0
	stw 21,60(1)
	.loc 12 359 0
	stb 26,68(1)
.LVL281:
.LBE2022:
.LBE2024:
.LBB2025:
.LBB2026:
	.loc 12 350 0
	bgt- 4,.L225
	.loc 12 358 0
	mr 3,21
.LVL282:
.L175:
.LBE2026:
.LBE2025:
	.loc 12 375 0
	lwz 4,92(1)
.LBE2030:
.LBE2050:
.LBB2051:
.LBB2045:
	.loc 12 775 0
	addi 31,25,1
.LBE2045:
.LBE2051:
.LBB2052:
.LBB2031:
	.loc 12 375 0
	bl strcpy
.LBE2031:
.LBE2052:
.LBB2053:
.LBB2046:
.LBB2037:
.LBB2038:
	.loc 12 350 0
	lwz 0,64(1)
.LBE2038:
.LBE2037:
	.loc 12 776 0
	addi 4,31,1
	.loc 12 775 0
	mr 11,25
.LBB2042:
.LBB2039:
	.loc 12 350 0
	cmpw 7,4,0
.LBE2039:
.LBE2042:
.LBE2046:
.LBE2053:
.LBB2054:
.LBB2032:
	.loc 12 376 0
	stw 25,56(1)
.LVL283:
.LBE2032:
.LBE2054:
.LBB2055:
.LBB2047:
.LBB2043:
.LBB2040:
	.loc 12 350 0
	bgt- 7,.L226
.LVL284:
.L176:
.LBE2040:
.LBE2043:
	.loc 12 778 0
	lwz 9,60(1)
.LBE2047:
.LBE2055:
.LBE2066:
.LBE2122:
	.loc 2 811 0
	li 4,5
	mr 5,29
	li 6,0
.LBB2123:
.LBB2067:
.LBB2056:
.LBB2048:
	.loc 12 778 0
	stbx 27,9,11
.LVL285:
	.loc 12 780 0
	stw 31,56(1)
	.loc 12 781 0
	lwz 9,60(1)
	stbx 28,9,31
.LBE2048:
.LBE2056:
.LBE2067:
.LBE2123:
	.loc 2 811 0
	lwz 3,declManager@l(30)
	lwz 9,0(3)
	lwz 0,76(9)
	mtctr 0
.LEHB12:
	bctrl
.LBB2124:
.LBB2068:
.LBB2057:
.LBB2058:
.LBB2059:
	.loc 2 928 0
	lwz 3,4(3)
.LBE2059:
.LBE2058:
.LBE2057:
.LBE2068:
.LBE2124:
.LBB2125:
.LBB2126:
	.loc 14 140 0
	lwz 9,0(3)
	lwz 0,8(9)
	mtctr 0
	bctrl
.LEHE12:
.LBE2126:
.LBE2125:
.LBB2128:
.LBB2114:
.LBB2095:
	.loc 2 928 0 discriminator 2
	lwz 25,56(1)
.LBE2095:
.LBE2114:
.LBE2128:
.LBB2129:
.LBB2127:
	.loc 14 140 0 discriminator 2
	mr 31,3
.LVL286:
.LBE2127:
.LBE2129:
.LBB2130:
.LBB2115:
.LBB2096:
.LBB2092:
.LBB2081:
.LBB2078:
	.loc 12 356 0 discriminator 2
	stw 26,24(1)
.LBE2078:
.LBE2081:
.LBB2082:
.LBB2083:
	.loc 12 358 0 discriminator 2
	mr 3,22
.LVL287:
.LBE2083:
.LBE2082:
	.loc 12 374 0 discriminator 2
	addi 4,25,1
.LVL288:
.LBB2087:
.LBB2079:
	.loc 12 357 0 discriminator 2
	stw 23,32(1)
.LBE2079:
.LBE2087:
.LBB2088:
.LBB2084:
	.loc 12 350 0 discriminator 2
	cmpwi 7,4,20
.LBE2084:
.LBE2088:
.LBB2089:
.LBB2080:
	.loc 12 358 0 discriminator 2
	stw 22,28(1)
	.loc 12 359 0 discriminator 2
	stb 26,36(1)
.LBE2080:
.LBE2089:
.LBB2090:
.LBB2085:
	.loc 12 350 0 discriminator 2
	bgt- 7,.L227
.LVL289:
.L181:
.LBE2085:
.LBE2090:
	.loc 12 375 0
	lwz 4,60(1)
	bl strcpy
.LBE2092:
.LBE2096:
.LBB2097:
.LBB2098:
	.loc 12 774 0
	cmpwi 7,31,0
.LBE2098:
.LBE2097:
.LBB2107:
.LBB2093:
	.loc 12 376 0
	stw 25,24(1)
.LVL290:
.LBE2093:
.LBE2107:
.LBB2108:
.LBB2105:
	.loc 12 774 0
	beq- 7,.L182
	.loc 12 775 0
	mr 3,31
	bl strlen
.LBB2099:
.LBB2100:
	.loc 12 350 0
	lwz 0,32(1)
.LBE2100:
.LBE2099:
	.loc 12 775 0
	add 25,3,25
.LVL291:
	.loc 12 776 0
	addi 4,25,1
.LVL292:
.LBB2103:
.LBB2101:
	.loc 12 350 0
	cmpw 7,4,0
	bgt- 7,.L228
.LVL293:
.L183:
.LBE2101:
.LBE2103:
	.loc 12 777 0
	lbz 0,0(31)
	cmpwi 7,0,0
	beq- 7,.L184
	li 9,0
.LVL294:
.L185:
	.loc 12 778 0
	lwz 11,24(1)
	lwz 10,28(1)
	add 11,10,11
	stbx 0,11,9
	.loc 12 777 0
	addi 9,9,1
.LVL295:
	lbzx 0,31,9
	cmpwi 7,0,0
	bne+ 7,.L185
.LVL296:
.L184:
	.loc 12 781 0
	lwz 9,28(1)
	.loc 12 780 0
	stw 25,24(1)
	.loc 12 781 0
	stbx 28,9,25
.LVL297:
.L182:
.LBE2105:
.LBE2108:
.LBE2115:
.LBE2130:
	.loc 2 811 0
	lwz 0,216(1)
	lwz 3,28(1)
	mtctr 0
.LEHB13:
	bctrl
.LEHE13:
.LVL298:
.LBB2131:
.LBB2132:
.LBB2133:
	.loc 12 501 0
	addi 3,1,24
.LEHB14:
	bl _ZN5idStr8FreeDataEv
.LEHE14:
.LVL299:
.LBE2133:
.LBE2132:
.LBE2131:
.LBB2134:
.LBB2135:
.LBB2136:
	addi 3,1,56
.LVL300:
.LEHB15:
	bl _ZN5idStr8FreeDataEv
.LEHE15:
.LVL301:
.LBE2136:
.LBE2135:
.LBE2134:
.LBB2137:
.LBB2138:
.LBB2139:
	addi 3,1,88
.LVL302:
.LBE2139:
.LBE2138:
.LBE2137:
	.loc 2 810 0
	addi 29,29,1
.LEHB16:
.LBB2142:
.LBB2141:
.LBB2140:
	.loc 12 501 0
	bl _ZN5idStr8FreeDataEv
.LVL303:
.LBE2140:
.LBE2141:
.LBE2142:
	.loc 2 810 0
	cmpw 7,29,20
	bne+ 7,.L192
.LVL304:
.L171:
	.loc 2 813 0
	lis 9,cmdSystem@ha
	lis 11,.LC27@ha
	lwz 3,cmdSystem@l(9)
	la 0,.LC27@l(11)
	lis 11,.LC28@ha
	lis 6,.LC23@ha
	lwz 9,0(3)
	lis 8,.LC24@ha
	stw 0,8(1)
	la 0,.LC28@l(11)
	stw 0,12(1)
	li 0,0
	stw 0,16(1)
	lis 10,.LC26@ha
	mr 4,24
	lwz 5,216(1)
	lwz 0,44(9)
	lis 9,.LC25@ha
	la 6,.LC23@l(6)
	li 7,0
	mtctr 0
	la 8,.LC24@l(8)
	la 9,.LC25@l(9)
	la 10,.LC26@l(10)
	crxor 6,6,6
	bctrl
.LEHE16:
.LBE2176:
	.loc 2 814 0
	lwz 0,300(1)
	lwz 12,228(1)
	mtlr 0
	lwz 16,232(1)
	lwz 17,236(1)
	mtcrf 24,12
	lwz 18,240(1)
	lwz 19,244(1)
	lwz 20,248(1)
.LVL305:
	lwz 21,252(1)
	lwz 22,256(1)
	lwz 23,260(1)
	lwz 24,264(1)
.LVL306:
	lwz 25,268(1)
	lwz 26,272(1)
	lwz 27,276(1)
	lwz 28,280(1)
	lwz 29,284(1)
	lwz 30,288(1)
	lwz 31,292(1)
	addi 1,1,296
	.cfi_remember_state
.LCFI52:
	.cfi_def_cfa_offset 0
	.cfi_restore 70
	.cfi_restore 31
	.cfi_restore 30
	.cfi_restore 29
	.cfi_restore 28
	.cfi_restore 27
	.cfi_restore 26
	.cfi_restore 25
	.cfi_restore 24
	.cfi_restore 23
	.cfi_restore 22
	.cfi_restore 21
	.cfi_restore 20
	.cfi_restore 19
	.cfi_restore 18
	.cfi_restore 17
	.cfi_restore 16
	blr
.LVL307:
.L227:
.LCFI53:
	.cfi_restore_state
.LBB2177:
.LBB2143:
.LBB2116:
.LBB2109:
.LBB2094:
.LBB2091:
.LBB2086:
	.loc 12 351 0
	addi 3,1,24
	li 5,1
.LEHB17:
	bl _ZN5idStr10ReAllocateEib
.LEHE17:
.LVL308:
	lwz 3,28(1)
	b .L181
.LVL309:
.L226:
.LBE2086:
.LBE2091:
.LBE2094:
.LBE2109:
.LBE2116:
.LBE2143:
.LBB2144:
.LBB2069:
.LBB2062:
.LBB2049:
.LBB2044:
.LBB2041:
	addi 3,1,56
.LVL310:
	li 5,1
.LEHB18:
	bl _ZN5idStr10ReAllocateEib
.LEHE18:
.LVL311:
	lwz 11,56(1)
	b .L176
.LVL312:
.L225:
.LBE2041:
.LBE2044:
.LBE2049:
.LBE2062:
.LBB2063:
.LBB2033:
.LBB2028:
.LBB2027:
	addi 3,1,56
	mr 4,16
	li 5,1
.LEHB19:
	bl _ZN5idStr10ReAllocateEib
.LEHE19:
	lwz 3,60(1)
	b .L175
.LVL313:
.L223:
.LBE2027:
.LBE2028:
.LBE2033:
.LBE2063:
.LBE2069:
.LBE2144:
.LBB2145:
.LBB1975:
.LBB1968:
.LBB1953:
.LBB1950:
.LBB1945:
	addi 3,1,120
	li 5,1
.LEHB20:
	bl _ZN5idStr10ReAllocateEib
.LEHE20:
.LVL314:
	lwz 3,124(1)
	b .L159
.LVL315:
.L222:
.LBE1945:
.LBE1950:
.LBE1953:
.LBE1968:
.LBE1975:
.LBE2145:
.LBB2146:
.LBB1928:
.LBB1921:
.LBB1908:
.LBB1903:
.LBB1900:
	addi 3,1,152
.LVL316:
	li 5,1
.LEHB21:
	bl _ZN5idStr10ReAllocateEib
.LEHE21:
.LVL317:
	lwz 11,152(1)
	b .L154
.LVL318:
.L221:
.LBE1900:
.LBE1903:
.LBE1908:
.LBE1921:
.LBB1922:
.LBB1892:
.LBB1887:
.LBB1886:
	addi 3,1,152
	mr 4,16
	li 5,1
.LEHB22:
	bl _ZN5idStr10ReAllocateEib
.LEHE22:
	lwz 3,156(1)
	b .L153
.LVL319:
.L150:
.LBE1886:
.LBE1887:
.LBE1892:
.LBE1922:
.LBE1928:
.LBE2146:
.LBB2147:
.LBB1874:
.LBB1872:
.LBB1867:
	.loc 12 356 0
	stw 26,184(1)
	.loc 12 359 0
	li 16,1
	.loc 12 357 0
	stw 23,192(1)
	.loc 12 359 0
	li 25,0
	.loc 12 358 0
	stw 19,188(1)
	.loc 13 50 0
	la 31,.LC19@l(18)
	.loc 12 359 0
	stb 26,196(1)
.LVL320:
	mcrf 4,3
	b .L152
.LVL321:
.L172:
.LBE1867:
.LBE1872:
.LBE1874:
.LBE2147:
.LBB2148:
.LBB2015:
.LBB2013:
.LBB2008:
	.loc 12 356 0
	stw 26,88(1)
	.loc 12 359 0
	li 16,1
	.loc 12 357 0
	stw 23,96(1)
	.loc 12 359 0
	li 25,0
	.loc 12 358 0
	stw 19,92(1)
	.loc 13 50 0
	la 31,.LC19@l(18)
	.loc 12 359 0
	stb 26,100(1)
.LVL322:
	mcrf 4,3
	b .L174
.LVL323:
.L228:
.LBE2008:
.LBE2013:
.LBE2015:
.LBE2148:
.LBB2149:
.LBB2117:
.LBB2110:
.LBB2106:
.LBB2104:
.LBB2102:
	.loc 12 351 0
	addi 3,1,24
	li 5,1
.LEHB23:
	bl _ZN5idStr10ReAllocateEib
.LEHE23:
.LVL324:
	b .L183
.LVL325:
.L224:
.LBE2102:
.LBE2104:
.LBE2106:
.LBE2110:
.LBE2117:
.LBE2149:
.LBB2150:
.LBB1976:
.LBB1969:
.LBB1965:
.LBB1963:
.LBB1961:
	addi 3,1,120
	li 5,1
.LEHB24:
	bl _ZN5idStr10ReAllocateEib
.LEHE24:
.LVL326:
	b .L161
.LVL327:
.L151:
.LBE1961:
.LBE1963:
.LBE1965:
.LBE1969:
.LBE1976:
.LBE2150:
.LBB2151:
.LBB1929:
.LBB1923:
.LBB1893:
.LBB1888:
.LBB1882:
	.loc 12 358 0
	stw 21,156(1)
	.loc 12 359 0
	li 25,0
	.loc 12 356 0
	stw 31,152(1)
	.loc 12 358 0
	mr 21,17
	.loc 12 357 0
	stw 23,160(1)
	.loc 12 358 0
	mr 3,17
	.loc 12 359 0
	stb 31,164(1)
.LVL328:
	b .L153
.LVL329:
.L173:
.LBE1882:
.LBE1888:
.LBE1893:
.LBE1923:
.LBE1929:
.LBE2151:
.LBB2152:
.LBB2070:
.LBB2064:
.LBB2034:
.LBB2029:
.LBB2023:
	.loc 12 358 0
	stw 21,60(1)
	.loc 12 359 0
	li 25,0
	.loc 12 356 0
	stw 31,56(1)
	.loc 12 358 0
	mr 21,17
	.loc 12 357 0
	stw 23,64(1)
	.loc 12 358 0
	mr 3,17
	.loc 12 359 0
	stb 31,68(1)
.LVL330:
	b .L175
.LVL331:
.L206:
	mr 31,3
.L166:
.LVL332:
.LBE2023:
.LBE2029:
.LBE2034:
.LBE2064:
.LBE2070:
.LBE2152:
.LBB2153:
.LBB2154:
.LBB2155:
	.loc 12 501 0
	addi 3,1,152
.LVL333:
	bl _ZN5idStr8FreeDataEv
.LVL334:
.L158:
.LBE2155:
.LBE2154:
.LBE2153:
.LBB2156:
.LBB2157:
.LBB2158:
	addi 3,1,184
.LVL335:
	bl _ZN5idStr8FreeDataEv
.LVL336:
	mr 3,31
.LEHB25:
	bl _Unwind_Resume
.LEHE25:
.LVL337:
.L207:
	mr 31,3
.LVL338:
.LBE2158:
.LBE2157:
.LBE2156:
.LBB2159:
.LBB2160:
.LBB2161:
	addi 3,1,120
	bl _ZN5idStr8FreeDataEv
	b .L166
.LVL339:
.L205:
	mr 31,3
	b .L158
.LVL340:
.L209:
	mr 31,3
.L188:
.LVL341:
.LBE2161:
.LBE2160:
.LBE2159:
.LBB2162:
.LBB2163:
.LBB2164:
	addi 3,1,56
.LVL342:
	bl _ZN5idStr8FreeDataEv
.LVL343:
.L180:
.LBE2164:
.LBE2163:
.LBE2162:
.LBB2165:
.LBB2166:
.LBB2167:
	addi 3,1,88
.LVL344:
	bl _ZN5idStr8FreeDataEv
.LVL345:
	mr 3,31
.LEHB26:
	bl _Unwind_Resume
.LEHE26:
.LVL346:
.L210:
	mr 31,3
.LVL347:
.LBE2167:
.LBE2166:
.LBE2165:
.LBB2168:
.LBB2169:
.LBB2170:
	addi 3,1,24
	bl _ZN5idStr8FreeDataEv
	b .L188
.LVL348:
.L208:
	mr 31,3
	b .L180
.LVL349:
.L213:
	mr 31,3
.LVL350:
.LBE2170:
.LBE2169:
.LBE2168:
.LBB2171:
.LBB2071:
.LBB2065:
.LBB2061:
.LBB2060:
	addi 3,1,56
.LVL351:
	bl _ZN5idStr8FreeDataEv
.LVL352:
	b .L180
.LVL353:
.L211:
	mr 31,3
.LVL354:
.LBE2060:
.LBE2061:
.LBE2065:
.LBE2071:
.LBE2171:
.LBB2172:
.LBB1930:
.LBB1924:
.LBB1920:
.LBB1919:
	addi 3,1,152
.LVL355:
	bl _ZN5idStr8FreeDataEv
.LVL356:
	b .L158
.LVL357:
.L214:
	mr 31,3
.LVL358:
.LBE1919:
.LBE1920:
.LBE1924:
.LBE1930:
.LBE2172:
.LBB2173:
.LBB2118:
.LBB2111:
.LBB2112:
.LBB2113:
	addi 3,1,24
	bl _ZN5idStr8FreeDataEv
	b .L188
.LVL359:
.L212:
	mr 31,3
.LVL360:
.LBE2113:
.LBE2112:
.LBE2111:
.LBE2118:
.LBE2173:
.LBB2174:
.LBB1977:
.LBB1970:
.LBB1971:
.LBB1972:
	addi 3,1,120
	bl _ZN5idStr8FreeDataEv
	b .L166
.LBE1972:
.LBE1971:
.LBE1970:
.LBE1977:
.LBE2174:
.LBE2177:
	.cfi_endproc
.LFE2838:
	.section	.gcc_except_table
.LLSDA2838:
	.byte	0xff
	.byte	0xff
	.byte	0x1
	.uleb128 .LLSDACSE2838-.LLSDACSB2838
.LLSDACSB2838:
	.uleb128 .LEHB6-.LFB2838
	.uleb128 .LEHE6-.LEHB6
	.uleb128 0
	.uleb128 0
	.uleb128 .LEHB7-.LFB2838
	.uleb128 .LEHE7-.LEHB7
	.uleb128 .L206-.LFB2838
	.uleb128 0
	.uleb128 .LEHB8-.LFB2838
	.uleb128 .LEHE8-.LEHB8
	.uleb128 .L207-.LFB2838
	.uleb128 0
	.uleb128 .LEHB9-.LFB2838
	.uleb128 .LEHE9-.LEHB9
	.uleb128 .L206-.LFB2838
	.uleb128 0
	.uleb128 .LEHB10-.LFB2838
	.uleb128 .LEHE10-.LEHB10
	.uleb128 .L205-.LFB2838
	.uleb128 0
	.uleb128 .LEHB11-.LFB2838
	.uleb128 .LEHE11-.LEHB11
	.uleb128 0
	.uleb128 0
	.uleb128 .LEHB12-.LFB2838
	.uleb128 .LEHE12-.LEHB12
	.uleb128 .L209-.LFB2838
	.uleb128 0
	.uleb128 .LEHB13-.LFB2838
	.uleb128 .LEHE13-.LEHB13
	.uleb128 .L210-.LFB2838
	.uleb128 0
	.uleb128 .LEHB14-.LFB2838
	.uleb128 .LEHE14-.LEHB14
	.uleb128 .L209-.LFB2838
	.uleb128 0
	.uleb128 .LEHB15-.LFB2838
	.uleb128 .LEHE15-.LEHB15
	.uleb128 .L208-.LFB2838
	.uleb128 0
	.uleb128 .LEHB16-.LFB2838
	.uleb128 .LEHE16-.LEHB16
	.uleb128 0
	.uleb128 0
	.uleb128 .LEHB17-.LFB2838
	.uleb128 .LEHE17-.LEHB17
	.uleb128 .L209-.LFB2838
	.uleb128 0
	.uleb128 .LEHB18-.LFB2838
	.uleb128 .LEHE18-.LEHB18
	.uleb128 .L213-.LFB2838
	.uleb128 0
	.uleb128 .LEHB19-.LFB2838
	.uleb128 .LEHE19-.LEHB19
	.uleb128 .L208-.LFB2838
	.uleb128 0
	.uleb128 .LEHB20-.LFB2838
	.uleb128 .LEHE20-.LEHB20
	.uleb128 .L206-.LFB2838
	.uleb128 0
	.uleb128 .LEHB21-.LFB2838
	.uleb128 .LEHE21-.LEHB21
	.uleb128 .L211-.LFB2838
	.uleb128 0
	.uleb128 .LEHB22-.LFB2838
	.uleb128 .LEHE22-.LEHB22
	.uleb128 .L205-.LFB2838
	.uleb128 0
	.uleb128 .LEHB23-.LFB2838
	.uleb128 .LEHE23-.LEHB23
	.uleb128 .L214-.LFB2838
	.uleb128 0
	.uleb128 .LEHB24-.LFB2838
	.uleb128 .LEHE24-.LEHB24
	.uleb128 .L212-.LFB2838
	.uleb128 0
	.uleb128 .LEHB25-.LFB2838
	.uleb128 .LEHE25-.LEHB25
	.uleb128 0
	.uleb128 0
	.uleb128 .LEHB26-.LFB2838
	.uleb128 .LEHE26-.LEHB26
	.uleb128 0
	.uleb128 0
.LLSDACSE2838:
	.section	".text"
	.size	_ZN11idTestModel23ArgCompletion_TestModelERK9idCmdArgsPFvPKcE, .-_ZN11idTestModel23ArgCompletion_TestModelERK9idCmdArgsPFvPKcE
	.align 2
	.globl _ZN11idTestModel22TestParticleStopTime_fERK9idCmdArgs
	.type	_ZN11idTestModel22TestParticleStopTime_fERK9idCmdArgs, @function
_ZN11idTestModel22TestParticleStopTime_fERK9idCmdArgs:
.LFB2839:
	.loc 2 821 0
	.cfi_startproc
.LVL361:
	mflr 0
	stwu 1,-16(1)
.LCFI54:
	.cfi_def_cfa_offset 16
	.cfi_register 65, 0
	.loc 2 822 0
	lis 3,gameLocal@ha
.LVL362:
	la 3,gameLocal@l(3)
	.loc 2 821 0
	stw 0,20(1)
	.loc 2 822 0
	addis 9,3,0x25
	lwz 11,1376(9)
	cmpwi 7,11,0
	beq- 7,.L232
	.cfi_offset 65, 4
	.loc 2 827 0
	lwz 0,2004(9)
	lis 10,.LC9@ha
	lfs 0,.LC9@l(10)
	lis 10,_ZN6idMath8M_MS2SECE@ha
	xoris 0,0,0x8000
	stw 0,12(1)
	lis 0,0x4330
	stw 0,8(1)
	lfd 13,8(1)
	fsub 0,13,0
	lfs 13,_ZN6idMath8M_MS2SECE@l(10)
	frsp 0,0
	fmuls 0,0,13
	stfs 0,352(11)
	.loc 2 828 0
	lwz 3,1376(9)
	bl _ZN8idEntity13UpdateVisualsEv
	.loc 2 829 0
	lwz 0,20(1)
	addi 1,1,16
	.cfi_remember_state
.LCFI55:
	.cfi_def_cfa_offset 0
	mtlr 0
	blr
.L232:
.LCFI56:
	.cfi_restore_state
	.loc 2 823 0
	lis 4,.LC29@ha
	la 4,.LC29@l(4)
	crxor 6,6,6
	bl _ZNK11idGameLocal6PrintfEPKcz
	.loc 2 829 0
	lwz 0,20(1)
	addi 1,1,16
.LCFI57:
	.cfi_def_cfa_offset 0
	mtlr 0
	blr
	.cfi_endproc
.LFE2839:
	.size	_ZN11idTestModel22TestParticleStopTime_fERK9idCmdArgs, .-_ZN11idTestModel22TestParticleStopTime_fERK9idCmdArgs
	.align 2
	.globl _ZN11idTestModel10TestAnim_fERK9idCmdArgs
	.type	_ZN11idTestModel10TestAnim_fERK9idCmdArgs, @function
_ZN11idTestModel10TestAnim_fERK9idCmdArgs:
.LFB2840:
	.loc 2 836 0
	.cfi_startproc
.LVL363:
	mflr 0
	stwu 1,-8(1)
.LCFI58:
	.cfi_def_cfa_offset 8
	.cfi_register 65, 0
	.loc 2 837 0
	lis 9,gameLocal@ha
	.loc 2 836 0
	mr 4,3
	.loc 2 837 0
	la 9,gameLocal@l(9)
	.loc 2 836 0
	stw 0,12(1)
	.loc 2 837 0
	addis 11,9,0x25
	lwz 0,1376(11)
	.cfi_offset 65, 4
	cmpwi 7,0,0
	beq- 7,.L236
	.loc 2 842 0
	mr 3,0
.LVL364:
	.loc 2 843 0
	lwz 0,12(1)
	addi 1,1,8
	.cfi_remember_state
.LCFI59:
	.cfi_def_cfa_offset 0
	mtlr 0
	.loc 2 842 0
	b _ZN11idTestModel8TestAnimERK9idCmdArgs
.LVL365:
.L236:
.LCFI60:
	.cfi_restore_state
	.loc 2 838 0
	lis 4,.LC29@ha
	mr 3,9
.LVL366:
	la 4,.LC29@l(4)
	crxor 6,6,6
	bl _ZNK11idGameLocal6PrintfEPKcz
	.loc 2 843 0
	lwz 0,12(1)
	addi 1,1,8
.LCFI61:
	.cfi_def_cfa_offset 0
	mtlr 0
	blr
	.cfi_endproc
.LFE2840:
	.size	_ZN11idTestModel10TestAnim_fERK9idCmdArgs, .-_ZN11idTestModel10TestAnim_fERK9idCmdArgs
	.align 2
	.globl _ZN11idTestModel22ArgCompletion_TestAnimERK9idCmdArgsPFvPKcE
	.type	_ZN11idTestModel22ArgCompletion_TestAnimERK9idCmdArgsPFvPKcE, @function
_ZN11idTestModel22ArgCompletion_TestAnimERK9idCmdArgsPFvPKcE:
.LFB2841:
	.loc 2 851 0
	.cfi_startproc
.LVL367:
.LBB2178:
	.loc 2 852 0
	lis 9,gameLocal+2426208@ha
.LBE2178:
	.loc 2 851 0
	mflr 0
.LBB2189:
	.loc 2 852 0
	lwz 9,gameLocal+2426208@l(9)
.LBE2189:
	.loc 2 851 0
	stwu 1,-40(1)
.LCFI62:
	.cfi_def_cfa_offset 40
	.cfi_register 65, 0
.LBB2190:
	.loc 2 852 0
	cmpwi 7,9,0
.LBE2190:
	.loc 2 851 0
	stw 29,28(1)
	mr 29,3
	.cfi_offset 29, -12
	stw 0,44(1)
	stw 26,16(1)
	stw 27,20(1)
	stw 28,24(1)
	stw 30,32(1)
	stw 31,36(1)
	.loc 2 851 0
	stw 4,8(1)
.LBB2191:
	.loc 2 852 0
	beq- 7,.L237
	.cfi_offset 31, -4
	.cfi_offset 30, -8
	.cfi_offset 28, -16
	.cfi_offset 27, -20
	.cfi_offset 26, -24
	.cfi_offset 65, 4
.LBB2179:
	.loc 2 853 0
	lwz 11,0(9)
	mr 3,9
.LVL368:
.LBB2180:
	.loc 2 855 0
	lis 28,.LC30@ha
.LBB2181:
.LBB2182:
	.loc 13 50 0
	lis 27,.LC19@ha
.LBE2182:
.LBE2181:
.LBE2180:
	.loc 2 853 0
	lwz 0,92(11)
.LBB2187:
	.loc 2 854 0
	li 31,0
	.loc 2 855 0
	la 28,.LC30@l(28)
.LBE2187:
	.loc 2 853 0
	mtctr 0
	bctrl
.LVL369:
	mr 30,3
.LVL370:
.LBB2188:
	.loc 2 854 0
	b .L239
.LVL371:
.L243:
.LBB2185:
.LBB2183:
	.loc 13 50 0
	lwz 26,4(29)
.L240:
.LBE2183:
.LBE2185:
	.loc 2 855 0
	mr 4,31
	mr 3,30
	bl _ZNK10idAnimator12AnimFullNameEi
	mr 4,26
	mr 5,3
	mr 3,28
	crxor 6,6,6
	bl _Z2vaPKcz
	lwz 0,8(1)
	.loc 2 854 0
	addi 31,31,1
.LVL372:
	.loc 2 855 0
	mtctr 0
	bctrl
.LVL373:
.L239:
	.loc 2 854 0 discriminator 1
	mr 3,30
	bl _ZNK10idAnimator8NumAnimsEv
	cmpw 7,31,3
	bge- 7,.L237
.LVL374:
.LBB2186:
.LBB2184:
	.loc 13 50 0
	lwz 0,0(29)
	cmpwi 7,0,0
	bgt+ 7,.L243
	la 26,.LC19@l(27)
	b .L240
.LVL375:
.L237:
.LBE2184:
.LBE2186:
.LBE2188:
.LBE2179:
.LBE2191:
	.loc 2 858 0
	lwz 0,44(1)
	lwz 26,16(1)
	mtlr 0
	lwz 27,20(1)
	lwz 28,24(1)
	lwz 29,28(1)
.LVL376:
	lwz 30,32(1)
	lwz 31,36(1)
	addi 1,1,40
.LCFI63:
	.cfi_def_cfa_offset 0
	.cfi_restore 31
	.cfi_restore 30
	.cfi_restore 29
	.cfi_restore 28
	.cfi_restore 27
	.cfi_restore 26
	blr
	.cfi_endproc
.LFE2841:
	.size	_ZN11idTestModel22ArgCompletion_TestAnimERK9idCmdArgsPFvPKcE, .-_ZN11idTestModel22ArgCompletion_TestAnimERK9idCmdArgsPFvPKcE
	.align 2
	.globl _ZN11idTestModel11TestBlend_fERK9idCmdArgs
	.type	_ZN11idTestModel11TestBlend_fERK9idCmdArgs, @function
_ZN11idTestModel11TestBlend_fERK9idCmdArgs:
.LFB2842:
	.loc 2 865 0
	.cfi_startproc
.LVL377:
	mflr 0
	stwu 1,-8(1)
.LCFI64:
	.cfi_def_cfa_offset 8
	.cfi_register 65, 0
	.loc 2 866 0
	lis 9,gameLocal@ha
	.loc 2 865 0
	mr 4,3
	.loc 2 866 0
	la 9,gameLocal@l(9)
	.loc 2 865 0
	stw 0,12(1)
	.loc 2 866 0
	addis 11,9,0x25
	lwz 0,1376(11)
	.cfi_offset 65, 4
	cmpwi 7,0,0
	beq- 7,.L247
	.loc 2 871 0
	mr 3,0
.LVL378:
	.loc 2 872 0
	lwz 0,12(1)
	addi 1,1,8
	.cfi_remember_state
.LCFI65:
	.cfi_def_cfa_offset 0
	mtlr 0
	.loc 2 871 0
	b _ZN11idTestModel9BlendAnimERK9idCmdArgs
.LVL379:
.L247:
.LCFI66:
	.cfi_restore_state
	.loc 2 867 0
	lis 4,.LC29@ha
	mr 3,9
.LVL380:
	la 4,.LC29@l(4)
	crxor 6,6,6
	bl _ZNK11idGameLocal6PrintfEPKcz
	.loc 2 872 0
	lwz 0,12(1)
	addi 1,1,8
.LCFI67:
	.cfi_def_cfa_offset 0
	mtlr 0
	blr
	.cfi_endproc
.LFE2842:
	.size	_ZN11idTestModel11TestBlend_fERK9idCmdArgs, .-_ZN11idTestModel11TestBlend_fERK9idCmdArgs
	.align 2
	.globl _ZN11idTestModel19TestModelNextAnim_fERK9idCmdArgs
	.type	_ZN11idTestModel19TestModelNextAnim_fERK9idCmdArgs, @function
_ZN11idTestModel19TestModelNextAnim_fERK9idCmdArgs:
.LFB2843:
	.loc 2 879 0
	.cfi_startproc
.LVL381:
	mflr 0
	stwu 1,-8(1)
.LCFI68:
	.cfi_def_cfa_offset 8
	.cfi_register 65, 0
	.loc 2 880 0
	lis 9,gameLocal@ha
	.loc 2 879 0
	mr 4,3
	.loc 2 880 0
	la 9,gameLocal@l(9)
	.loc 2 879 0
	stw 0,12(1)
	.loc 2 880 0
	addis 11,9,0x25
	lwz 0,1376(11)
	.cfi_offset 65, 4
	cmpwi 7,0,0
	beq- 7,.L251
	.loc 2 885 0
	mr 3,0
.LVL382:
	.loc 2 886 0
	lwz 0,12(1)
	addi 1,1,8
	.cfi_remember_state
.LCFI69:
	.cfi_def_cfa_offset 0
	mtlr 0
	.loc 2 885 0
	b _ZN11idTestModel8NextAnimERK9idCmdArgs
.LVL383:
.L251:
.LCFI70:
	.cfi_restore_state
	.loc 2 881 0
	lis 4,.LC29@ha
	mr 3,9
.LVL384:
	la 4,.LC29@l(4)
	crxor 6,6,6
	bl _ZNK11idGameLocal6PrintfEPKcz
	.loc 2 886 0
	lwz 0,12(1)
	addi 1,1,8
.LCFI71:
	.cfi_def_cfa_offset 0
	mtlr 0
	blr
	.cfi_endproc
.LFE2843:
	.size	_ZN11idTestModel19TestModelNextAnim_fERK9idCmdArgs, .-_ZN11idTestModel19TestModelNextAnim_fERK9idCmdArgs
	.align 2
	.globl _ZN11idTestModel19TestModelPrevAnim_fERK9idCmdArgs
	.type	_ZN11idTestModel19TestModelPrevAnim_fERK9idCmdArgs, @function
_ZN11idTestModel19TestModelPrevAnim_fERK9idCmdArgs:
.LFB2844:
	.loc 2 893 0
	.cfi_startproc
.LVL385:
	mflr 0
	stwu 1,-8(1)
.LCFI72:
	.cfi_def_cfa_offset 8
	.cfi_register 65, 0
	.loc 2 894 0
	lis 9,gameLocal@ha
	.loc 2 893 0
	mr 4,3
	.loc 2 894 0
	la 9,gameLocal@l(9)
	.loc 2 893 0
	stw 0,12(1)
	.loc 2 894 0
	addis 11,9,0x25
	lwz 0,1376(11)
	.cfi_offset 65, 4
	cmpwi 7,0,0
	beq- 7,.L255
	.loc 2 899 0
	mr 3,0
.LVL386:
	.loc 2 900 0
	lwz 0,12(1)
	addi 1,1,8
	.cfi_remember_state
.LCFI73:
	.cfi_def_cfa_offset 0
	mtlr 0
	.loc 2 899 0
	b _ZN11idTestModel8PrevAnimERK9idCmdArgs
.LVL387:
.L255:
.LCFI74:
	.cfi_restore_state
	.loc 2 895 0
	lis 4,.LC29@ha
	mr 3,9
.LVL388:
	la 4,.LC29@l(4)
	crxor 6,6,6
	bl _ZNK11idGameLocal6PrintfEPKcz
	.loc 2 900 0
	lwz 0,12(1)
	addi 1,1,8
.LCFI75:
	.cfi_def_cfa_offset 0
	mtlr 0
	blr
	.cfi_endproc
.LFE2844:
	.size	_ZN11idTestModel19TestModelPrevAnim_fERK9idCmdArgs, .-_ZN11idTestModel19TestModelPrevAnim_fERK9idCmdArgs
	.align 2
	.globl _ZN11idTestModel20TestModelNextFrame_fERK9idCmdArgs
	.type	_ZN11idTestModel20TestModelNextFrame_fERK9idCmdArgs, @function
_ZN11idTestModel20TestModelNextFrame_fERK9idCmdArgs:
.LFB2845:
	.loc 2 907 0
	.cfi_startproc
.LVL389:
	mflr 0
	stwu 1,-8(1)
.LCFI76:
	.cfi_def_cfa_offset 8
	.cfi_register 65, 0
	.loc 2 908 0
	lis 9,gameLocal@ha
	.loc 2 907 0
	mr 4,3
	.loc 2 908 0
	la 9,gameLocal@l(9)
	.loc 2 907 0
	stw 0,12(1)
	.loc 2 908 0
	addis 11,9,0x25
	lwz 0,1376(11)
	.cfi_offset 65, 4
	cmpwi 7,0,0
	beq- 7,.L259
	.loc 2 913 0
	mr 3,0
.LVL390:
	.loc 2 914 0
	lwz 0,12(1)
	addi 1,1,8
	.cfi_remember_state
.LCFI77:
	.cfi_def_cfa_offset 0
	mtlr 0
	.loc 2 913 0
	b _ZN11idTestModel9NextFrameERK9idCmdArgs
.LVL391:
.L259:
.LCFI78:
	.cfi_restore_state
	.loc 2 909 0
	lis 4,.LC29@ha
	mr 3,9
.LVL392:
	la 4,.LC29@l(4)
	crxor 6,6,6
	bl _ZNK11idGameLocal6PrintfEPKcz
	.loc 2 914 0
	lwz 0,12(1)
	addi 1,1,8
.LCFI79:
	.cfi_def_cfa_offset 0
	mtlr 0
	blr
	.cfi_endproc
.LFE2845:
	.size	_ZN11idTestModel20TestModelNextFrame_fERK9idCmdArgs, .-_ZN11idTestModel20TestModelNextFrame_fERK9idCmdArgs
	.align 2
	.globl _ZN11idTestModel20TestModelPrevFrame_fERK9idCmdArgs
	.type	_ZN11idTestModel20TestModelPrevFrame_fERK9idCmdArgs, @function
_ZN11idTestModel20TestModelPrevFrame_fERK9idCmdArgs:
.LFB2846:
	.loc 2 921 0
	.cfi_startproc
.LVL393:
	mflr 0
	stwu 1,-8(1)
.LCFI80:
	.cfi_def_cfa_offset 8
	.cfi_register 65, 0
	.loc 2 922 0
	lis 9,gameLocal@ha
	.loc 2 921 0
	mr 4,3
	.loc 2 922 0
	la 9,gameLocal@l(9)
	.loc 2 921 0
	stw 0,12(1)
	.loc 2 922 0
	addis 11,9,0x25
	lwz 0,1376(11)
	.cfi_offset 65, 4
	cmpwi 7,0,0
	beq- 7,.L263
	.loc 2 927 0
	mr 3,0
.LVL394:
	.loc 2 928 0
	lwz 0,12(1)
	addi 1,1,8
	.cfi_remember_state
.LCFI81:
	.cfi_def_cfa_offset 0
	mtlr 0
	.loc 2 927 0
	b _ZN11idTestModel9PrevFrameERK9idCmdArgs
.LVL395:
.L263:
.LCFI82:
	.cfi_restore_state
	.loc 2 923 0
	lis 4,.LC29@ha
	mr 3,9
.LVL396:
	la 4,.LC29@l(4)
	crxor 6,6,6
	bl _ZNK11idGameLocal6PrintfEPKcz
	.loc 2 928 0
	lwz 0,12(1)
	addi 1,1,8
.LCFI83:
	.cfi_def_cfa_offset 0
	mtlr 0
	blr
	.cfi_endproc
.LFE2846:
	.size	_ZN11idTestModel20TestModelPrevFrame_fERK9idCmdArgs, .-_ZN11idTestModel20TestModelPrevFrame_fERK9idCmdArgs
	.section	.text._ZN6idListI10idKeyValueE5ClearEv,"axG",@progbits,_ZN6idListI10idKeyValueE5ClearEv,comdat
	.align 2
	.weak	_ZN6idListI10idKeyValueE5ClearEv
	.type	_ZN6idListI10idKeyValueE5ClearEv, @function
_ZN6idListI10idKeyValueE5ClearEv:
.LFB3088:
	.loc 7 192 0
	.cfi_startproc
.LVL397:
	mflr 0
	stwu 1,-16(1)
.LCFI84:
	.cfi_def_cfa_offset 16
	.cfi_register 65, 0
	stw 31,12(1)
	mr 31,3
	.cfi_offset 31, -4
	stw 0,20(1)
	.loc 7 193 0
	lwz 3,12(3)
.LVL398:
	cmpwi 7,3,0
	beq- 7,.L265
	.cfi_offset 65, 4
	.loc 7 194 0 discriminator 1
	bl _ZdaPv
.L265:
	.loc 7 197 0
	li 0,0
	stw 0,12(31)
	.loc 7 198 0
	stw 0,0(31)
	.loc 7 199 0
	stw 0,4(31)
	.loc 7 200 0
	lwz 0,20(1)
	lwz 31,12(1)
.LVL399:
	mtlr 0
	addi 1,1,16
.LCFI85:
	.cfi_def_cfa_offset 0
	.cfi_restore 31
	blr
	.cfi_endproc
.LFE3088:
	.size	_ZN6idListI10idKeyValueE5ClearEv, .-_ZN6idListI10idKeyValueE5ClearEv
	.section	.text._ZN6idDictD2Ev,"axG",@progbits,_ZN6idDictD5Ev,comdat
	.align 2
	.weak	_ZN6idDictD2Ev
	.type	_ZN6idDictD2Ev, @function
_ZN6idDictD2Ev:
.LFB1936:
	.file 15 "d:/Data/Nintendo/DoomGX/src/game/anim/../../idlib/../idlib/Dict.h"
	.loc 15 173 0
	.cfi_startproc
	.cfi_personality 0,__gxx_personality_v0
	.cfi_lsda 0,.LLSDA1936
.LVL400:
	mflr 0
	stwu 1,-16(1)
.LCFI86:
	.cfi_def_cfa_offset 16
	.cfi_register 65, 0
	stw 31,12(1)
	mr 31,3
	.cfi_offset 31, -4
	stw 0,20(1)
	stw 30,8(1)
.LEHB27:
.LBB2220:
	.loc 15 174 0
	.cfi_offset 30, -8
	.cfi_offset 65, 4
	bl _ZN6idDict5ClearEv
.LEHE27:
.LVL401:
.LBB2221:
.LBB2222:
.LBB2223:
	.file 16 "d:/Data/Nintendo/DoomGX/src/game/anim/../../idlib/../idlib/containers/HashIndex.h"
	.loc 16 130 0
	addi 3,31,16
.LEHB28:
	bl _ZN11idHashIndex4FreeEv
.LEHE28:
.LVL402:
.LBE2223:
.LBE2222:
.LBE2221:
.LBB2224:
.LBB2225:
.LBB2226:
.LBB2227:
	.loc 7 193 0 discriminator 1
	lwz 3,12(31)
	cmpwi 7,3,0
	beq- 7,.L268
	.loc 7 194 0
	bl _ZdaPv
.L268:
	.loc 7 197 0
	li 0,0
	stw 0,12(31)
	.loc 7 198 0
	stw 0,0(31)
	.loc 7 199 0
	stw 0,4(31)
.LBE2227:
.LBE2226:
.LBE2225:
.LBE2224:
.LBE2220:
	.loc 15 175 0
	lwz 0,20(1)
	lwz 30,8(1)
	mtlr 0
	lwz 31,12(1)
.LVL403:
	addi 1,1,16
	.cfi_remember_state
.LCFI87:
	.cfi_def_cfa_offset 0
	.cfi_restore 31
	.cfi_restore 30
	blr
.LVL404:
.L275:
.LCFI88:
	.cfi_restore_state
	mr 30,3
.LVL405:
.LBB2234:
.LBB2228:
.LBB2229:
.LBB2230:
	.loc 16 130 0
	addi 3,31,16
	bl _ZN11idHashIndex4FreeEv
.LVL406:
.L273:
.LBE2230:
.LBE2229:
.LBE2228:
.LBB2231:
.LBB2232:
.LBB2233:
	.loc 7 181 0
	mr 3,31
	bl _ZN6idListI10idKeyValueE5ClearEv
	mr 3,30
.LEHB29:
	bl _Unwind_Resume
.LEHE29:
.LVL407:
.L276:
	mr 30,3
	b .L273
.LBE2233:
.LBE2232:
.LBE2231:
.LBE2234:
	.cfi_endproc
.LFE1936:
	.section	.gcc_except_table
.LLSDA1936:
	.byte	0xff
	.byte	0xff
	.byte	0x1
	.uleb128 .LLSDACSE1936-.LLSDACSB1936
.LLSDACSB1936:
	.uleb128 .LEHB27-.LFB1936
	.uleb128 .LEHE27-.LEHB27
	.uleb128 .L275-.LFB1936
	.uleb128 0
	.uleb128 .LEHB28-.LFB1936
	.uleb128 .LEHE28-.LEHB28
	.uleb128 .L276-.LFB1936
	.uleb128 0
	.uleb128 .LEHB29-.LFB1936
	.uleb128 .LEHE29-.LEHB29
	.uleb128 0
	.uleb128 0
.LLSDACSE1936:
	.section	.text._ZN6idDictD2Ev,"axG",@progbits,_ZN6idDictD5Ev,comdat
	.size	_ZN6idDictD2Ev, .-_ZN6idDictD2Ev
	.section	".text"
	.align 2
	.globl _ZN11idTestModel5SpawnEv
	.type	_ZN11idTestModel5SpawnEv, @function
_ZN11idTestModel5SpawnEv:
.LFB2817:
	.loc 2 104 0
	.cfi_startproc
	.cfi_personality 0,__gxx_personality_v0
	.cfi_lsda 0,.LLSDA2817
.LVL408:
	mflr 0
	stwu 1,-336(1)
.LCFI89:
	.cfi_def_cfa_offset 336
	.cfi_register 65, 0
.LVL409:
.LBB2361:
.LBB2362:
.LBB2363:
.LBB2364:
	.loc 12 357 0
	li 9,20
.LBE2364:
.LBE2363:
.LBE2362:
.LBE2361:
	.loc 2 104 0
	stw 22,248(1)
	stw 0,340(1)
.LBB2659:
.LBB2373:
.LBB2369:
.LBB2365:
	.loc 12 356 0
	li 0,0
	.cfi_offset 65, 4
	.cfi_offset 22, -88
.LBE2365:
.LBE2369:
.LBE2373:
.LBE2659:
	.loc 2 104 0
	stw 31,284(1)
	mr 31,3
	.cfi_offset 31, -52
	stfd 26,288(1)
	addi 22,31,636
	stfd 27,296(1)
	stfd 28,304(1)
	stfd 29,312(1)
	stfd 30,320(1)
	stfd 31,328(1)
	stw 14,216(1)
	stw 15,220(1)
	stw 16,224(1)
	stw 17,228(1)
	stw 18,232(1)
	stw 19,236(1)
	stw 20,240(1)
	stw 21,244(1)
	stw 23,252(1)
	stw 24,256(1)
	stw 25,260(1)
	stw 26,264(1)
	stw 27,268(1)
	stw 28,272(1)
	stw 29,276(1)
	stw 30,280(1)
.LBB2660:
.LBB2374:
.LBB2370:
.LBB2366:
	.loc 12 357 0
	stw 9,88(1)
	.loc 12 358 0
	addi 9,1,92
.LBE2366:
.LBE2370:
.LBE2374:
	.loc 2 115 0
	lwz 3,196(3)
.LVL410:
.LBB2375:
.LBB2371:
.LBB2367:
	.loc 12 356 0
	stw 0,80(1)
.LBE2367:
.LBE2371:
.LBE2375:
	.loc 2 115 0
	cmpwi 7,3,0
.LBB2376:
.LBB2372:
.LBB2368:
	.loc 12 358 0
	stw 9,84(1)
	.loc 12 359 0
	stb 0,92(1)
.LBE2368:
.LBE2372:
.LBE2376:
	.loc 2 115 0
	beq- 7,.L278
	.cfi_offset 30, -56
	.cfi_offset 29, -60
	.cfi_offset 28, -64
	.cfi_offset 27, -68
	.cfi_offset 26, -72
	.cfi_offset 25, -76
	.cfi_offset 24, -80
	.cfi_offset 23, -84
	.cfi_offset 21, -92
	.cfi_offset 20, -96
	.cfi_offset 19, -100
	.cfi_offset 18, -104
	.cfi_offset 17, -108
	.cfi_offset 16, -112
	.cfi_offset 15, -116
	.cfi_offset 14, -120
	.cfi_offset 63, -8
	.cfi_offset 62, -16
	.cfi_offset 61, -24
	.cfi_offset 60, -32
	.cfi_offset 59, -40
	.cfi_offset 58, -48
	.loc 2 115 0 is_stmt 0 discriminator 1
	lwz 9,0(3)
	addi 30,1,80
	lwz 0,124(9)
	mtctr 0
.LEHB30:
	bctrl
	cmpwi 7,3,0
	addi 22,31,636
	bne- 7,.L376
.L278:
.LBB2377:
.LBB2378:
.LBB2379:
	.loc 2 121 0 is_stmt 1
	lis 9,g_testModelAnimate+44@ha
.LBE2379:
.LBE2378:
.LBE2377:
	.loc 2 122 0
	mr 3,22
.LBB2384:
.LBB2382:
.LBB2380:
	.loc 2 121 0
	lwz 9,g_testModelAnimate+44@l(9)
	addi 30,1,80
.LBE2380:
.LBE2382:
.LBE2384:
.LBB2385:
.LBB2386:
	.loc 9 143 0
	lwz 0,36(9)
.LBE2386:
.LBE2385:
	.loc 2 121 0
	stw 0,2968(31)
	.loc 2 122 0
	lwz 4,36(9)
	xori 4,4,1
	cntlzw 4,4
	srwi 4,4,5
	bl _ZN10idAnimator18RemoveOriginOffsetEb
	.loc 2 124 0
	addi 16,31,1752
	mr 4,31
	mr 3,16
	addi 30,1,80
	bl _ZN14idPhysics_Base7SetSelfEP8idEntity
	.loc 2 125 0
	mr 3,31
	addi 30,1,80
	bl _ZNK8idEntity10GetPhysicsEv
	lwz 9,0(3)
	li 4,0
	addi 30,1,80
	lwz 0,132(9)
	mtctr 0
	bctrl
	.loc 2 125 0 is_stmt 0 discriminator 1
	mr 4,3
	li 5,-1
	mr 3,16
	addi 30,1,80
	bl _ZN20idPhysics_Parametric9SetOriginERK6idVec3i
	.loc 2 126 0 is_stmt 1
	mr 3,31
	addi 30,1,80
	bl _ZNK8idEntity10GetPhysicsEv
	lwz 9,0(3)
	li 4,0
	addi 30,1,80
	lwz 0,136(9)
	mtctr 0
	bctrl
	.loc 2 126 0 is_stmt 0 discriminator 1
	mr 4,3
	li 5,-1
	mr 3,16
	addi 30,1,80
	bl _ZN20idPhysics_Parametric7SetAxisERK6idMat3i
	.loc 2 128 0 is_stmt 1
	addi 23,31,100
.LVL411:
	lis 4,.LC33@ha
	mr 3,23
	la 4,.LC33@l(4)
	li 5,0
	addi 6,1,56
	addi 30,1,80
	bl _ZNK6idDict9GetVectorEPKcS1_R6idVec3
	cmpwi 7,3,0
	.loc 2 129 0
	mr 3,23
	.loc 2 128 0
	beq- 7,.L281
.LVL412:
	.loc 2 129 0
	lis 4,.LC34@ha
	li 5,0
	la 4,.LC34@l(4)
	addi 6,1,68
	addi 30,1,80
	bl _ZNK6idDict9GetVectorEPKcS1_R6idVec3
	.loc 2 130 0
	lis 9,.LC35@ha
	mr 3,16
	lfs 1,.LC35@l(9)
	addi 4,1,56
	addi 30,1,80
	bl _ZN9idPhysics10SetClipBoxERK8idBoundsf
.LVL413:
.L374:
	.loc 2 136 0
	mr 3,16
	li 4,0
	li 5,-1
	addi 30,1,80
	bl _ZN20idPhysics_Parametric11SetContentsEii
.L282:
	.loc 2 139 0
	lis 4,.LC39@ha
	lis 5,.LC40@ha
	mr 3,23
	la 4,.LC39@l(4)
	la 5,.LC40@l(5)
	addi 6,1,20
	addi 30,1,80
	bl _ZNK6idDict9GetVectorEPKcS1_R6idVec3
.LVL414:
.LBB2387:
.LBB2388:
	.loc 15 241 0
	lis 4,.LC41@ha
	mr 3,23
	la 4,.LC41@l(4)
	addi 30,1,80
	bl _ZNK6idDict7FindKeyEPKc
.LVL415:
	.loc 15 242 0
	cmpwi 0,3,0
	beq- 0,.L344
.LVL416:
.LBB2389:
	.loc 2 928 0
	lwz 9,4(3)
	lwz 27,4(9)
.LVL417:
.L283:
.LBE2389:
.LBE2388:
.LBE2387:
.LBB2391:
	.loc 2 143 0
	lbz 0,0(27)
	cmpwi 7,0,0
	bne- 7,.L371
	lis 17,gameLocal@ha
	addi 30,1,80
	la 17,gameLocal@l(17)
	addis 9,17,0x25
	stw 9,208(1)
.LVL418:
.L337:
.LBE2391:
	.loc 2 196 0
	lwz 9,208(1)
	.loc 2 198 0
	mr 3,31
	mr 4,16
	.loc 2 196 0
	lwz 0,2004(9)
	lis 9,.LC9@ha
	lfs 0,.LC9@l(9)
	lis 9,_ZN6idMath8M_MS2SECE@ha
	xoris 0,0,0x8000
	stw 0,204(1)
	lis 0,0x4330
	stw 0,200(1)
	lfd 13,200(1)
	fsub 13,13,0
	lfs 0,_ZN6idMath8M_MS2SECE@l(9)
	frsp 13,13
	fmuls 0,13,0
	fneg 0,0
	stfs 0,336(31)
	.loc 2 198 0
	bl _ZN8idEntity10SetPhysicsEP9idPhysics
	.loc 2 200 0
	mr 3,31
	bl _ZNK8idEntity10GetPhysicsEv
	lwz 9,0(3)
	li 4,0
	lwz 0,132(9)
	mtctr 0
	bctrl
	.loc 2 200 0 is_stmt 0 discriminator 1
	li 4,2
	bl _ZNK6idVec38ToStringEi
	mr 29,3
	mr 3,31
	bl _ZNK8idEntity10GetPhysicsEv
	lwz 9,0(3)
	li 4,0
	lwz 0,136(9)
	mtctr 0
	bctrl
	mr 4,3
	addi 3,1,8
	bl _ZNK6idMat38ToAnglesEv
	.loc 2 200 0 discriminator 2
	addi 3,1,8
	li 4,2
	bl _ZNK8idAngles8ToStringEi
	lis 4,.LC50@ha
	mr 6,3
	la 4,.LC50@l(4)
	mr 3,17
	mr 5,29
	crxor 6,6,6
	bl _ZNK11idGameLocal6PrintfEPKcz
	.loc 2 201 0 is_stmt 1
	mr 3,31
	li 4,1
	bl _ZN8idEntity12BecomeActiveEi
.LEHE30:
.LVL419:
.LBB2632:
.LBB2633:
.LBB2634:
	.loc 12 501 0
	mr 3,30
.LEHB31:
	bl _ZN5idStr8FreeDataEv
.LEHE31:
.LVL420:
.L277:
.LBE2634:
.LBE2633:
.LBE2632:
.LBE2660:
	.loc 2 202 0
	lwz 0,340(1)
	lwz 14,216(1)
	mtlr 0
	lwz 15,220(1)
	lwz 16,224(1)
	lwz 17,228(1)
	lwz 18,232(1)
	lwz 19,236(1)
	lwz 20,240(1)
	lwz 21,244(1)
	lwz 22,248(1)
	lwz 23,252(1)
	lwz 24,256(1)
	lwz 25,260(1)
	lwz 26,264(1)
	lwz 27,268(1)
	lwz 28,272(1)
	lwz 29,276(1)
	lwz 30,280(1)
	lwz 31,284(1)
.LVL421:
	lfd 26,288(1)
	lfd 27,296(1)
	lfd 28,304(1)
	lfd 29,312(1)
	lfd 30,320(1)
	lfd 31,328(1)
	addi 1,1,336
	.cfi_remember_state
.LCFI90:
	.cfi_def_cfa_offset 0
	.cfi_restore 63
	.cfi_restore 62
	.cfi_restore 61
	.cfi_restore 60
	.cfi_restore 59
	.cfi_restore 58
	.cfi_restore 31
	.cfi_restore 30
	.cfi_restore 29
	.cfi_restore 28
	.cfi_restore 27
	.cfi_restore 26
	.cfi_restore 25
	.cfi_restore 24
	.cfi_restore 23
	.cfi_restore 22
	.cfi_restore 21
	.cfi_restore 20
	.cfi_restore 19
	.cfi_restore 18
	.cfi_restore 17
	.cfi_restore 16
	.cfi_restore 15
	.cfi_restore 14
	blr
.LVL422:
.L281:
.LCFI91:
	.cfi_restore_state
.LBB2661:
	.loc 2 132 0
	lis 4,.LC36@ha
	li 5,0
	la 4,.LC36@l(4)
	addi 6,1,44
	addi 30,1,80
.LEHB32:
	bl _ZNK6idDict9GetVectorEPKcS1_R6idVec3
	cmpwi 7,3,0
	beq+ 7,.L282
.LVL423:
	.loc 2 133 0
	lis 9,.LC37@ha
	lfs 13,44(1)
	lfs 12,.LC37@l(9)
	.loc 2 134 0
	lis 9,.LC38@ha
	lfs 0,.LC38@l(9)
.LBB2635:
.LBB2636:
	.loc 4 412 0
	li 0,0
.LBE2636:
.LBE2635:
	.loc 2 133 0
	lfs 10,48(1)
.LVL424:
	fmuls 11,13,12
	.loc 2 135 0
	lis 9,.LC35@ha
	.loc 2 134 0
	fmuls 13,13,0
	.loc 2 133 0
	fmuls 12,10,12
.LBB2639:
.LBB2637:
	.loc 4 412 0
	stw 0,64(1)
.LVL425:
.LBE2637:
.LBE2639:
	.loc 2 134 0
	fmuls 0,10,0
.LBB2640:
.LBB2641:
	.loc 4 412 0
	lwz 0,52(1)
.LBE2641:
.LBE2640:
	.loc 2 135 0
	lfs 1,.LC35@l(9)
	mr 3,16
	addi 4,1,56
.LBB2643:
.LBB2638:
	.loc 4 410 0
	stfs 11,56(1)
	.loc 4 411 0
	stfs 12,60(1)
	addi 30,1,80
.LBE2638:
.LBE2643:
.LBB2644:
.LBB2642:
	.loc 4 410 0
	stfs 13,68(1)
	.loc 4 411 0
	stfs 0,72(1)
	.loc 4 412 0
	stw 0,76(1)
.LBE2642:
.LBE2644:
	.loc 2 135 0
	bl _ZN9idPhysics10SetClipBoxERK8idBoundsf
.LVL426:
	b .L374
.LVL427:
.L376:
	.loc 2 115 0 discriminator 3
	mr 3,22
	addi 30,1,80
	bl _ZNK10idAnimator8ModelDefEv
	cmpwi 7,3,0
	bne+ 7,.L278
.LVL428:
.LBB2645:
.LBB2646:
	.loc 15 241 0 discriminator 5
	lis 4,.LC31@ha
	addi 3,31,100
	la 4,.LC31@l(4)
	addi 30,1,80
	bl _ZNK6idDict7FindKeyEPKc
.LVL429:
	.loc 15 242 0 discriminator 5
	cmpwi 0,3,0
	beq- 0,.L343
.LVL430:
.LBB2647:
	.loc 2 928 0
	lwz 9,4(3)
	lwz 5,4(9)
.LVL431:
.L279:
.LBE2647:
.LBE2646:
.LBE2645:
	.loc 2 116 0
	lis 3,gameLocal@ha
.LVL432:
	lis 4,.LC32@ha
	la 3,gameLocal@l(3)
	la 4,.LC32@l(4)
	addi 30,1,80
	crxor 6,6,6
	bl _ZNK11idGameLocal7WarningEPKcz
	.loc 2 117 0
	lis 4,EV_Remove@ha
	mr 3,31
	la 4,EV_Remove@l(4)
	li 5,0
	addi 30,1,80
	bl _ZN7idClass11PostEventMSEPK10idEventDefi
.LEHE32:
.LVL433:
.LBB2649:
.LBB2650:
.LBB2651:
	.loc 12 501 0
	addi 3,1,80
.LEHB33:
	bl _ZN5idStr8FreeDataEv
.LEHE33:
	b .L277
.LVL434:
.L371:
.LBE2651:
.LBE2650:
.LBE2649:
.LBB2652:
.LBB2392:
.LBB2393:
.LBB2394:
	.loc 15 241 0
	lis 4,.LC42@ha
	mr 3,23
.LVL435:
	la 4,.LC42@l(4)
	addi 30,1,80
.LEHB34:
	bl _ZNK6idDict7FindKeyEPKc
.LVL436:
	.loc 15 242 0
	cmpwi 0,3,0
	beq- 0,.L345
.LVL437:
.LBB2395:
	.loc 2 928 0
	lwz 9,4(3)
	lwz 4,4(9)
.LVL438:
.L285:
.LBE2395:
.LBE2394:
.LBE2393:
	.loc 2 144 0
	addi 30,1,80
	mr 3,30
.LVL439:
	bl _ZN5idStraSEPKc
.LVL440:
	.loc 2 145 0
	lwz 4,4(30)
	mr 3,22
	bl _ZNK10idAnimator14GetJointHandleEPKc
.LEHE34:
.LBB2398:
	.loc 2 146 0
	cmpwi 7,3,-1
.LBE2398:
	.loc 2 145 0
	mr 26,3
.LVL441:
.LBB2622:
	.loc 2 146 0
	beq- 7,.L377
.LVL442:
.LBB2399:
.LBB2400:
.LBB2401:
.LBB2402:
.LBB2403:
.LBB2404:
	.loc 7 197 0
	li 0,0
.LBE2404:
.LBE2403:
	.loc 7 159 0
	li 9,16
.LBE2402:
.LBE2401:
.LBB2408:
.LBB2409:
	.loc 16 112 0
	addi 3,1,164
.LVL443:
	li 4,1024
	li 5,1024
.LBE2409:
.LBE2408:
.LBB2411:
.LBB2407:
	.loc 7 159 0
	stw 9,156(1)
.LVL444:
.LBB2406:
.LBB2405:
	.loc 7 197 0
	stw 0,160(1)
	.loc 7 198 0
	stw 0,148(1)
	.loc 7 199 0
	stw 0,152(1)
.LVL445:
.LEHB35:
.LBE2405:
.LBE2406:
.LBE2407:
.LBE2411:
.LBB2412:
.LBB2410:
	.loc 16 112 0
	bl _ZN11idHashIndex4InitEii
.LEHE35:
.LVL446:
.LBE2410:
.LBE2412:
.LBB2413:
.LBB2414:
	.loc 7 319 0
	lwz 29,160(1)
	.loc 7 317 0
	li 0,16
	stw 0,156(1)
	.loc 7 319 0
	cmpwi 7,29,0
	beq- 7,.L287
	.loc 7 321 0
	lwz 9,148(1)
	.loc 7 323 0
	lwz 0,152(1)
	.loc 7 321 0
	addi 3,9,15
.LVL447:
	.loc 7 322 0
	srawi 3,3,4
	addze 3,3
.LVL448:
	slwi 3,3,4
.LVL449:
	.loc 7 323 0
	cmpw 7,3,0
	beq- 7,.L287
.LVL450:
.LBB2415:
.LBB2416:
	.loc 7 375 0
	cmpwi 7,3,0
	ble- 7,.L378
.LVL451:
	.loc 7 387 0
	cmpw 7,9,3
	.loc 7 386 0
	stw 3,152(1)
	.loc 7 387 0
	bgt- 7,.L379
.L289:
	.loc 7 392 0
	slwi 3,3,3
.LVL452:
.LEHB36:
	bl _Znaj
.LVL453:
	.loc 7 393 0
	lwz 0,148(1)
	.loc 7 392 0
	stw 3,160(1)
.LVL454:
	.loc 7 393 0
	cmpwi 7,0,0
	ble- 7,.L290
	.loc 2 104 0
	addi 8,29,-8
.LBE2416:
.LBE2415:
.LBE2414:
.LBE2413:
.LBE2400:
.LBE2399:
.LBE2622:
.LBB2623:
.LBB2396:
	.loc 7 393 0
	li 9,0
	b .L291
.LVL455:
.L380:
.LBE2396:
.LBE2623:
.LBB2624:
.LBB2617:
.LBB2453:
.LBB2428:
.LBB2425:
.LBB2422:
.LBB2419:
	lwz 3,160(1)
.LVL456:
.L291:
	.loc 7 394 0
	addi 8,8,8
	slwi 0,9,3
	lwz 10,0(8)
	add 3,3,0
	lwz 11,4(8)
	.loc 7 393 0
	addi 9,9,1
.LVL457:
	.loc 7 394 0
	stw 10,0(3)
	stw 11,4(3)
	.loc 7 393 0
	lwz 0,148(1)
	cmpw 7,9,0
	blt+ 7,.L380
.LVL458:
.L290:
	.loc 7 399 0
	mr 3,29
	bl _ZdaPv
.LVL459:
.L287:
.LBE2419:
.LBE2422:
.LBE2425:
.LBE2428:
.LBB2429:
.LBB2430:
	.loc 16 371 0
	li 0,16
.LBE2430:
.LBE2429:
.LBB2432:
.LBB2433:
	.loc 16 341 0
	addi 3,1,164
.LVL460:
.LBE2433:
.LBE2432:
.LBB2439:
.LBB2431:
	.loc 16 371 0
	stw 0,180(1)
.LVL461:
.LBE2431:
.LBE2439:
.LBB2440:
.LBB2434:
	.loc 16 341 0
	bl _ZN11idHashIndex4FreeEv
.LEHE36:
.LVL462:
.LBE2434:
.LBE2440:
.LBE2453:
	.loc 2 151 0
	lis 28,.LC44@ha
.LBB2454:
.LBB2441:
.LBB2435:
	.loc 16 342 0
	li 0,128
.LBE2435:
.LBE2441:
.LBE2454:
	.loc 2 151 0
	la 28,.LC44@l(28)
.LBB2455:
.LBB2442:
.LBB2436:
	.loc 16 342 0
	stw 0,164(1)
.LBE2436:
.LBE2442:
.LBE2455:
	.loc 2 151 0
	mr 3,23
.LBB2456:
.LBB2443:
.LBB2437:
	.loc 16 343 0
	li 0,16
.LBE2437:
.LBE2443:
.LBE2456:
	.loc 2 151 0
	mr 4,28
	li 5,0
.LBB2457:
.LBB2444:
.LBB2438:
	.loc 16 343 0
	stw 0,172(1)
	addi 18,1,148
.LEHB37:
.LBE2438:
.LBE2444:
.LBE2457:
	.loc 2 151 0
	bl _ZNK6idDict11MatchPrefixEPKcPK10idKeyValue
.LVL463:
	.loc 2 152 0
	mr. 29,3
	addi 18,1,148
	beq- 0,.L293
.L365:
.LVL464:
.LBB2458:
	.loc 2 928 0
	lwz 11,0(29)
.LBE2458:
	.loc 2 153 0
	mr 3,18
.LVL465:
.LBB2459:
	.loc 2 928 0
	lwz 9,4(29)
.LBE2459:
	.loc 2 153 0
	lwz 4,4(11)
	lwz 5,4(9)
	bl _ZN6idDict3SetEPKcS1_
.LVL466:
	.loc 2 154 0
	mr 3,23
	mr 4,28
	mr 5,29
	bl _ZNK6idDict11MatchPrefixEPKcPK10idKeyValue
.LVL467:
	.loc 2 152 0
	mr. 29,3
	bne+ 0,.L365
.L293:
	.loc 2 157 0
	lis 17,gameLocal@ha
	lis 4,_ZN16idAnimatedEntity4TypeE@ha
	la 17,gameLocal@l(17)
	la 4,_ZN16idAnimatedEntity4TypeE@l(4)
	mr 3,17
.LVL468:
	mr 5,18
	li 6,0
	bl _ZN11idGameLocal15SpawnEntityTypeERK10idTypeInfoPK6idDictb
.LVL469:
.LBB2460:
.LBB2461:
	.loc 3 605 0
	cmpwi 0,3,0
	beq- 0,.L381
	.loc 3 608 0
	lwz 9,4(3)
	addi 11,9,4228
	slwi 11,11,2
	add 11,17,11
	lwz 0,4(11)
	slwi 0,0,12
	or 9,0,9
	stw 9,1624(31)
.L301:
.LBE2461:
.LBE2460:
	.loc 2 158 0
	addis 9,17,0x25
	mr 3,22
.LVL470:
	lwz 5,2004(9)
	mr 4,26
	addi 6,1,32
	addi 7,1,112
	stw 9,208(1)
	bl _ZN10idAnimator17GetJointTransformE13jointHandle_tiR6idVec3R6idMat3
	.loc 2 159 0
	mr 3,31
	bl _ZNK8idEntity10GetPhysicsEv
	lwz 9,0(3)
	li 4,0
	lwz 0,132(9)
	mtctr 0
	bctrl
	.loc 2 159 0 is_stmt 0 discriminator 1
	mr 29,3
.LVL471:
	mr 3,31
.LBB2463:
.LBB2464:
	.loc 4 452 0 is_stmt 1 discriminator 1
	lfs 30,32(1)
	lfs 31,20(1)
	lfs 28,36(1)
	lfs 29,24(1)
	lfs 27,40(1)
	lfs 26,28(1)
.LVL472:
.LBE2464:
.LBE2463:
	.loc 2 159 0 discriminator 1
	bl _ZNK8idEntity10GetPhysicsEv
.LVL473:
	lwz 9,0(3)
	li 4,0
	lwz 0,136(9)
	mtctr 0
	bctrl
.LBB2468:
.LBB2465:
	.loc 4 452 0 discriminator 1
	fadds 29,28,29
.LVL474:
.LBE2465:
.LBE2468:
.LBB2469:
.LBB2470:
.LBB2471:
	.loc 8 454 0 discriminator 1
	lfs 0,12(3)
	lfs 12,16(3)
.LBE2471:
.LBE2470:
.LBE2469:
.LBB2478:
.LBB2466:
	.loc 4 452 0 discriminator 1
	fadds 31,30,31
.LVL475:
.LBE2466:
.LBE2478:
.LBB2479:
.LBB2475:
.LBB2472:
	.loc 8 454 0 discriminator 1
	lfs 13,20(3)
.LBE2472:
.LBE2475:
.LBE2479:
.LBB2480:
.LBB2467:
	.loc 4 452 0 discriminator 1
	fadds 27,27,26
.LVL476:
.LBE2467:
.LBE2480:
.LBB2481:
.LBB2482:
	.loc 3 634 0 discriminator 1
	lwz 0,1624(31)
.LBE2482:
.LBE2481:
.LBB2492:
.LBB2476:
.LBB2473:
	.loc 8 454 0 discriminator 1
	fmuls 12,29,12
	fmuls 13,29,13
.LVL477:
.LBE2473:
.LBE2476:
.LBE2492:
.LBB2493:
.LBB2494:
	lfs 10,4(3)
.LBE2494:
.LBE2493:
.LBB2503:
.LBB2477:
.LBB2474:
	fmuls 29,29,0
.LVL478:
.LBE2474:
.LBE2477:
.LBE2503:
.LBB2504:
.LBB2495:
	lfs 11,8(3)
	lfs 0,0(3)
.LBE2495:
.LBE2504:
.LBB2505:
.LBB2483:
	.loc 3 634 0 discriminator 1
	rlwinm 9,0,0,20,31
.LBE2483:
.LBE2505:
.LBB2506:
.LBB2496:
	.loc 8 454 0 discriminator 1
	fmadds 12,31,10,12
.LBE2496:
.LBE2506:
.LBB2507:
.LBB2484:
	.loc 3 635 0 discriminator 1
	addi 11,9,4228
.LBE2484:
.LBE2507:
.LBB2508:
.LBB2497:
	.loc 8 454 0 discriminator 1
	fmadds 13,31,11,13
	lfs 10,28(3)
	fmadds 31,31,0,29
.LVL479:
	lfs 11,32(3)
	lfs 0,24(3)
.LBE2497:
.LBE2508:
.LBB2509:
.LBB2485:
	.loc 3 635 0 discriminator 1
	slwi 11,11,2
	add 11,17,11
.LBE2485:
.LBE2509:
.LBB2510:
.LBB2498:
	.loc 8 454 0 discriminator 1
	fmadds 10,27,10,12
	fmadds 11,27,11,13
.LBE2498:
.LBE2510:
.LBB2511:
.LBB2486:
	.loc 3 635 0 discriminator 1
	lwz 11,4(11)
.LBE2486:
.LBE2511:
.LBB2512:
.LBB2499:
	.loc 8 454 0 discriminator 1
	fmadds 27,27,0,31
.LVL480:
	.loc 4 452 0 discriminator 1
	lfs 12,4(29)
	lfs 0,0(29)
.LBE2499:
.LBE2512:
.LBB2513:
.LBB2487:
	.loc 3 635 0 discriminator 1
	srawi 0,0,12
.LBE2487:
.LBE2513:
.LBB2514:
.LBB2500:
	.loc 4 452 0 discriminator 1
	lfs 13,8(29)
.LBE2500:
.LBE2514:
.LBB2515:
.LBB2488:
	.loc 3 635 0 discriminator 1
	cmpw 7,11,0
.LBE2488:
.LBE2515:
.LBB2516:
.LBB2501:
	.loc 4 452 0 discriminator 1
	fadds 12,10,12
.LBE2501:
.LBE2516:
.LBB2517:
.LBB2489:
	.loc 3 638 0 discriminator 1
	li 3,0
.LVL481:
.LBE2489:
.LBE2517:
.LBB2518:
.LBB2502:
	.loc 4 452 0 discriminator 1
	fadds 13,11,13
.LVL482:
	fadds 0,0,27
.LBE2502:
.LBE2518:
.LBB2519:
.LBB2520:
	.loc 4 425 0 discriminator 1
	stfs 12,36(1)
	.loc 4 426 0 discriminator 1
	stfs 13,40(1)
.LVL483:
	.loc 4 424 0 discriminator 1
	stfs 0,32(1)
.LBE2520:
.LBE2519:
.LBB2521:
.LBB2490:
	.loc 3 635 0 discriminator 1
	beq- 7,.L382
.LVL484:
.L302:
.LBE2490:
.LBE2521:
	.loc 2 160 0
	lwz 9,0(3)
	mr 4,27
	lwz 0,44(9)
	mtctr 0
	bctrl
.LVL485:
.LBB2522:
.LBB2523:
	.loc 3 634 0
	lwz 0,1624(31)
	.loc 3 638 0
	li 3,0
	.loc 3 634 0
	rlwinm 9,0,0,20,31
.LVL486:
	.loc 3 635 0
	srawi 0,0,12
	addi 11,9,4228
	slwi 11,11,2
	add 11,17,11
	lwz 11,4(11)
	cmpw 7,11,0
	beq- 7,.L383
.LVL487:
.L303:
.LBE2523:
.LBE2522:
	.loc 2 161 0
	addi 4,1,32
.LVL488:
	bl _ZN8idEntity9SetOriginERK6idVec3
.LVL489:
.LBB2525:
.LBB2526:
	.loc 3 634 0
	lwz 0,1624(31)
	.loc 3 638 0
	li 29,0
.LVL490:
	.loc 3 634 0
	rlwinm 9,0,0,20,31
.LVL491:
	.loc 3 635 0
	srawi 0,0,12
	addi 11,9,4228
	slwi 11,11,2
	add 11,17,11
	lwz 11,4(11)
	cmpw 7,11,0
	beq- 7,.L384
.LVL492:
.L304:
.LBE2526:
.LBE2525:
	.loc 2 162 0
	mr 3,31
	bl _ZNK8idEntity10GetPhysicsEv
	lwz 9,0(3)
	li 4,0
	lwz 0,136(9)
	mtctr 0
	bctrl
	.loc 2 162 0 is_stmt 0 discriminator 1
	mr 4,3
	mr 3,29
	bl _ZN8idEntity7SetAxisERK6idMat3
.LVL493:
.LBB2528:
.LBB2529:
	.loc 3 634 0 is_stmt 1
	lwz 0,1624(31)
	.loc 3 638 0
	li 29,0
	.loc 3 634 0
	rlwinm 9,0,0,20,31
.LVL494:
	.loc 3 635 0
	srawi 0,0,12
	addi 11,9,4228
	slwi 11,11,2
	add 11,17,11
	lwz 11,4(11)
	cmpw 7,11,0
	beq- 7,.L385
.LVL495:
.L305:
.LBE2529:
.LBE2528:
	.loc 2 163 0
	mr 3,22
	mr 4,26
	bl _ZNK10idAnimator12GetJointNameE13jointHandle_t
	mr 5,3
	mr 4,31
	mr 3,29
	li 6,1
	bl _ZN8idEntity11BindToJointEPS_PKcb
.LVL496:
.LBB2531:
.LBB2532:
	.loc 3 634 0
	lwz 0,1624(31)
	.loc 3 638 0
	li 3,0
	.loc 3 634 0
	rlwinm 9,0,0,20,31
.LVL497:
	.loc 3 635 0
	srawi 0,0,12
	addi 11,9,4228
	slwi 11,11,2
	add 11,17,11
	lwz 11,4(11)
	cmpw 7,11,0
	beq- 7,.L386
.LVL498:
.L306:
.LBE2532:
.LBE2531:
	.loc 2 165 0
	lwz 9,0(3)
	lwz 0,92(9)
	mtctr 0
	bctrl
	.loc 2 168 0
	lis 21,.LC45@ha
	.loc 2 165 0
	stw 3,1628(31)
	.loc 2 168 0
	la 21,.LC45@l(21)
	mr 3,23
	mr 4,21
	li 5,0
	bl _ZNK6idDict11MatchPrefixEPKcPK10idKeyValue
.LVL499:
	.loc 2 168 0 is_stmt 0 discriminator 1
	mr. 28,3
	beq- 0,.L307
	.loc 2 171 0 is_stmt 1
	lis 20,.LC46@ha
	.loc 2 174 0
	lis 15,.LC47@ha
	.loc 2 180 0
	lis 14,.LC48@ha
.LBB2534:
.LBB2535:
	.loc 12 536 0
	li 19,0
.LBE2535:
.LBE2534:
	.loc 2 171 0
	la 20,.LC46@l(20)
	.loc 2 174 0
	la 15,.LC47@l(15)
	.loc 2 180 0
	la 14,.LC48@l(14)
	b .L364
.LVL500:
.L308:
.LBB2544:
.LBB2540:
	.loc 12 535 0
	lwz 4,4(27)
	mr 5,29
	lwz 3,84(1)
	bl memcpy
	.loc 12 536 0
	lwz 9,84(1)
.LBE2540:
.LBE2544:
	.loc 2 171 0
	mr 3,30
	mr 4,20
.LBB2545:
.LBB2541:
	.loc 12 536 0
	stbx 19,9,29
	.loc 12 537 0
	stw 29,80(1)
.LBE2541:
.LBE2545:
	.loc 2 171 0
	bl _ZN5idStr16StripLeadingOnceEPKc
	cmpwi 7,3,0
	.loc 2 172 0
	li 24,4
	.loc 2 171 0
	beq- 7,.L387
.L309:
.LVL501:
	.loc 2 178 0
	lwz 4,4(30)
	mr 3,22
	bl _ZNK10idAnimator14GetJointHandleEPKc
	.loc 2 179 0
	cmpwi 7,3,-1
	.loc 2 178 0
	mr 27,3
.LVL502:
	.loc 2 179 0
	beq- 7,.L388
.LVL503:
	.loc 2 184 0
	lwz 3,1628(31)
.LVL504:
	lwz 4,4(30)
	bl _ZNK10idAnimator14GetJointHandleEPKc
	.loc 2 185 0
	cmpwi 7,3,-1
	.loc 2 184 0
	mr 25,3
.LVL505:
	.loc 2 185 0
	beq- 7,.L389
.LBB2546:
.LBB2547:
	.loc 7 655 0
	lwz 29,2996(31)
.LBE2547:
.LBE2546:
	.loc 2 190 0
	addi 26,31,2984
.LVL506:
.LBB2582:
.LBB2576:
	.loc 7 655 0
	cmpwi 7,29,0
	beq- 7,.L313
	lwz 0,2984(31)
	lwz 9,2988(31)
.LVL507:
.L314:
.LBB2548:
	.loc 7 659 0
	cmpw 7,0,9
	beq- 7,.L353
.L375:
.LBB2549:
.LBB2550:
.LBB2551:
	.loc 7 399 0
	mulli 0,0,12
	add 29,29,0
.L321:
	.loc 7 669 0
	stw 24,0(29)
	stw 27,4(29)
	stw 25,8(29)
.LBE2551:
.LBE2550:
.LBE2549:
.LBE2548:
	.loc 7 670 0
	lwz 9,2984(31)
	addi 0,9,1
	stw 0,2984(31)
.LVL508:
.L311:
.LBE2576:
.LBE2582:
	.loc 2 168 0
	mr 3,23
	mr 4,21
	mr 5,28
	bl _ZNK6idDict11MatchPrefixEPKcPK10idKeyValue
.LVL509:
	mr. 28,3
	beq- 0,.L307
.LVL510:
.L364:
	.loc 2 928 0
	lwz 27,0(28)
.LVL511:
.LBB2583:
.LBB2542:
.LBB2536:
.LBB2537:
	.loc 12 350 0
	lwz 0,88(1)
.LBE2537:
.LBE2536:
.LBE2542:
	.loc 2 928 0
	lwz 29,0(27)
.LBB2543:
	.loc 12 534 0
	addi 4,29,1
.LVL512:
.LBB2539:
.LBB2538:
	.loc 12 350 0
	cmpw 7,4,0
	ble+ 7,.L308
.LVL513:
	.loc 12 351 0
	mr 3,30
.LVL514:
	li 5,0
	bl _ZN5idStr10ReAllocateEib
.LEHE37:
.LVL515:
	b .L308
.LVL516:
.L377:
.LBE2538:
.LBE2539:
.LBE2543:
.LBE2583:
.LBE2617:
	.loc 2 147 0
	lis 17,gameLocal@ha
	lis 4,.LC43@ha
	la 17,gameLocal@l(17)
	lwz 5,4(30)
	mr 3,17
.LVL517:
	la 4,.LC43@l(4)
.LEHB38:
	crxor 6,6,6
	bl _ZNK11idGameLocal7WarningEPKcz
.LEHE38:
	lis 9,gameLocal+2424832@ha
	la 9,gameLocal+2424832@l(9)
	stw 9,208(1)
	b .L337
.LVL518:
.L387:
.LBB2618:
	.loc 2 174 0
	mr 3,30
	mr 4,15
.LEHB39:
	bl _ZN5idStr16StripLeadingOnceEPKc
	.loc 2 175 0
	li 24,2
	b .L309
.LVL519:
.L388:
	.loc 2 180 0
	lwz 5,4(30)
	mr 3,17
.LVL520:
	mr 4,14
	crxor 6,6,6
	bl _ZNK11idGameLocal7WarningEPKcz
	b .L311
.LVL521:
.L353:
	lwz 3,2992(31)
.LBB2584:
.LBB2577:
.LBB2563:
	.loc 7 659 0
	mr 10,0
.L316:
.LBB2560:
	.loc 7 662 0
	cmpwi 7,3,0
	mr 9,3
	bne- 7,.L322
	.loc 7 663 0
	li 9,16
	stw 9,2992(31)
.L322:
	.loc 7 665 0
	add 11,9,0
.LVL522:
	.loc 7 666 0
	divw 11,11,9
.LVL523:
.LBB2557:
.LBB2554:
	.loc 7 375 0
	mullw. 9,11,9
.LVL524:
	ble- 0,.L390
	.loc 7 380 0
	cmpw 7,9,0
	beq- 7,.L391
.LVL525:
	.loc 7 387 0
	cmpw 7,10,9
	.loc 7 386 0
	stw 9,2988(31)
	.loc 7 387 0
	ble- 7,.L326
	.loc 7 388 0
	stw 9,2984(31)
.L326:
	.loc 7 392 0
	mulli 3,9,12
	bl _Znaj
.LVL526:
	.loc 7 393 0
	lwz 0,2984(31)
	.loc 7 392 0
	stw 3,2996(31)
.LVL527:
	.loc 7 393 0
	cmpwi 7,0,0
	ble- 7,.L327
	li 11,0
	li 10,0
	b .L328
.LVL528:
.L392:
	lwz 3,2996(31)
.LVL529:
.L328:
	.loc 7 394 0
	mr 9,29
	add 8,3,11
	lwzux 6,9,11
	.loc 7 393 0
	addi 10,10,1
.LVL530:
	.loc 7 394 0
	lwz 0,8(9)
	lwz 7,4(9)
	stwx 6,3,11
	.loc 7 393 0
	addi 11,11,12
	.loc 7 394 0
	stw 7,4(8)
	stw 0,8(8)
	.loc 7 393 0
	lwz 0,0(26)
	cmpw 7,10,0
	blt+ 7,.L392
.LVL531:
.L327:
	.loc 7 398 0
	cmpwi 7,29,0
	beq- 7,.L393
	.loc 7 399 0
	mr 3,29
	bl _ZdaPv
	lwz 0,2984(31)
	lwz 29,2996(31)
.LVL532:
	b .L375
.LVL533:
.L389:
.LBE2554:
.LBE2557:
.LBE2560:
.LBE2563:
.LBE2577:
.LBE2584:
	.loc 2 186 0
	lis 9,.LC51@ha
	lwz 5,4(30)
	lwz 4,.LC51@l(9)
	mr 3,17
	crxor 6,6,6
	bl _ZNK11idGameLocal7WarningEPKcz
	b .L311
.LVL534:
.L313:
.LBB2585:
.LBB2578:
	.loc 7 656 0
	lwz 3,2992(31)
.LBB2564:
.LBB2565:
	.loc 7 375 0
	cmpwi 7,3,0
.LBE2565:
.LBE2564:
	.loc 7 656 0
	mr 9,3
.LVL535:
.LBB2571:
.LBB2568:
	.loc 7 375 0
	ble- 7,.L394
	.loc 7 380 0
	lwz 0,2988(31)
	cmpw 7,3,0
	lwz 0,2984(31)
	beq- 7,.L314
.LVL536:
	.loc 7 387 0
	cmpw 7,3,0
	.loc 7 386 0
	stw 3,2988(31)
	.loc 7 387 0
	bge- 7,.L318
	.loc 7 388 0
	stw 3,2984(31)
.L318:
	.loc 7 392 0
	mulli 3,3,12
	bl _Znaj
.LEHE39:
.LVL537:
	.loc 7 393 0
	lwz 0,2984(31)
	.loc 7 392 0
	mr 29,3
	stw 3,2996(31)
.LVL538:
	.loc 7 393 0
	li 9,0
	cmpwi 7,0,0
	li 11,0
	bgt+ 7,.L368
	b .L397
.LVL539:
.L396:
	lwz 29,2996(31)
.LVL540:
.L368:
	.loc 7 394 0
	lwz 0,8(9)
	add 10,29,9
	lwz 7,0(9)
	.loc 7 393 0
	addi 11,11,1
.LVL541:
	.loc 7 394 0
	lwz 8,4(9)
	stwx 7,29,9
	.loc 7 393 0
	addi 9,9,12
	.loc 7 394 0
	stw 8,4(10)
	stw 0,8(10)
	.loc 7 393 0
	lwz 0,0(26)
	cmpw 7,11,0
	blt+ 7,.L396
	lwz 9,2988(31)
	lwz 29,2996(31)
	b .L314
.LVL542:
.L391:
.LBE2568:
.LBE2571:
.LBB2572:
.LBB2561:
.LBB2558:
.LBB2555:
	.loc 7 380 0
	mulli 10,10,12
	add 29,29,10
	b .L321
.LVL543:
.L307:
.LBE2555:
.LBE2558:
.LBE2561:
.LBE2572:
.LBE2578:
.LBE2585:
.LBB2586:
.LBB2587:
.LBB2588:
	.loc 15 174 0
	mr 3,18
.LVL544:
.LEHB40:
	bl _ZN6idDict5ClearEv
.LEHE40:
.LVL545:
.LBB2589:
.LBB2590:
.LBB2591:
	.loc 16 130 0
	addi 3,1,164
.LVL546:
.LEHB41:
	bl _ZN11idHashIndex4FreeEv
.LEHE41:
.LVL547:
.LBE2591:
.LBE2590:
.LBE2589:
.LBB2592:
.LBB2593:
.LBB2594:
.LBB2595:
	.loc 7 193 0
	lwz 3,160(1)
	cmpwi 7,3,0
	beq- 7,.L332
	.loc 7 194 0
	bl _ZdaPv
.L332:
	.loc 7 197 0
	li 0,0
	stw 0,160(1)
	.loc 7 198 0
	stw 0,148(1)
	.loc 7 199 0
	stw 0,152(1)
	b .L337
.LVL548:
.L390:
.LBE2595:
.LBE2594:
.LBE2593:
.LBE2592:
.LBE2588:
.LBE2587:
.LBE2586:
.LBB2604:
.LBB2579:
.LBB2573:
.LBB2562:
.LBB2559:
.LBB2556:
.LBB2552:
.LBB2553:
	.loc 7 193 0
	cmpwi 7,29,0
	beq- 7,.L324
	.loc 7 194 0
	mr 3,29
	bl _ZdaPv
.LVL549:
.L324:
	.loc 7 197 0
	li 0,0
	.loc 7 199 0
	li 29,0
	.loc 7 197 0
	stw 0,2996(31)
	.loc 7 198 0
	stw 0,2984(31)
	.loc 7 199 0
	stw 0,2988(31)
	b .L321
.LVL550:
.L393:
.LBE2553:
.LBE2552:
	.loc 7 398 0
	lwz 0,2984(31)
	lwz 29,2996(31)
.LVL551:
	mulli 0,0,12
	add 29,29,0
	b .L321
.LVL552:
.L344:
.LBE2556:
.LBE2559:
.LBE2562:
.LBE2573:
.LBE2579:
.LBE2604:
.LBE2618:
.LBE2624:
.LBE2392:
.LBE2652:
.LBB2653:
.LBB2390:
	.loc 15 245 0
	lis 27,.LC19@ha
	la 27,.LC19@l(27)
	b .L283
.LVL553:
.L386:
.LBE2390:
.LBE2653:
.LBB2654:
.LBB2629:
.LBB2625:
.LBB2619:
.LBB2605:
.LBB2533:
	.loc 3 636 0
	addi 9,9,132
.LVL554:
	slwi 9,9,2
.LVL555:
	add 9,17,9
	lwz 3,4(9)
	b .L306
.LVL556:
.L385:
.LBE2533:
.LBE2605:
.LBB2606:
.LBB2530:
	addi 9,9,132
.LVL557:
	slwi 9,9,2
.LVL558:
	add 9,17,9
	lwz 29,4(9)
	b .L305
.LVL559:
.L384:
.LBE2530:
.LBE2606:
.LBB2607:
.LBB2527:
	addi 9,9,132
.LVL560:
	slwi 9,9,2
.LVL561:
	add 9,17,9
	lwz 29,4(9)
	b .L304
.LVL562:
.L383:
.LBE2527:
.LBE2607:
.LBB2608:
.LBB2524:
	addi 9,9,132
.LVL563:
	slwi 9,9,2
.LVL564:
	add 9,17,9
	lwz 3,4(9)
	b .L303
.LVL565:
.L382:
.LBE2524:
.LBE2608:
.LBB2609:
.LBB2491:
	addi 9,9,132
.LVL566:
	slwi 9,9,2
.LVL567:
	add 9,17,9
	lwz 3,4(9)
	b .L302
.LVL568:
.L379:
.LBE2491:
.LBE2609:
.LBB2610:
.LBB2445:
.LBB2426:
.LBB2423:
.LBB2420:
	.loc 7 388 0
	stw 3,148(1)
	b .L289
.LVL569:
.L343:
.LBE2420:
.LBE2423:
.LBE2426:
.LBE2445:
.LBE2610:
.LBE2619:
.LBE2625:
.LBE2629:
.LBE2654:
.LBB2655:
.LBB2648:
	.loc 15 245 0
	lis 5,.LC19@ha
	la 5,.LC19@l(5)
	b .L279
.LVL570:
.L345:
.LBE2648:
.LBE2655:
.LBB2656:
.LBB2630:
.LBB2626:
.LBB2397:
	lis 4,.LC19@ha
	la 4,.LC19@l(4)
	b .L285
.LVL571:
.L394:
.LBE2397:
.LBE2626:
.LBB2627:
.LBB2620:
.LBB2611:
.LBB2580:
.LBB2574:
.LBB2569:
.LBB2566:
.LBB2567:
	.loc 7 198 0
	stw 29,2984(31)
	.loc 7 199 0
	li 0,0
	stw 29,2988(31)
	li 10,0
	b .L316
.LVL572:
.L381:
.LBE2567:
.LBE2566:
.LBE2569:
.LBE2574:
.LBE2580:
.LBE2611:
.LBB2612:
.LBB2462:
	.loc 3 606 0
	stw 3,1624(31)
	b .L301
.LVL573:
.L397:
.LBE2462:
.LBE2612:
.LBB2613:
.LBB2581:
.LBB2575:
.LBB2570:
	.loc 7 393 0
	lwz 9,2988(31)
	b .L314
.LVL574:
.L378:
.LBE2570:
.LBE2575:
.LBE2581:
.LBE2613:
.LBB2614:
.LBB2446:
.LBB2427:
.LBB2424:
.LBB2421:
.LBB2417:
.LBB2418:
	.loc 7 194 0
	mr 3,29
.LVL575:
	bl _ZdaPv
	.loc 7 197 0
	li 0,0
	stw 0,160(1)
	.loc 7 198 0
	stw 0,148(1)
	.loc 7 199 0
	stw 0,152(1)
	b .L287
.LVL576:
.L355:
	mr 31,3
.LVL577:
.LBE2418:
.LBE2417:
.LBE2421:
.LBE2424:
.LBE2427:
.LBE2446:
.LBE2614:
	.loc 2 191 0
	mr 3,18
	bl _ZN6idDictD1Ev
.LVL578:
.L298:
.LBE2620:
.LBE2627:
.LBE2630:
.LBE2656:
.LBB2657:
.LBB2383:
.LBB2381:
	.loc 12 501 0
	mr 3,30
	bl _ZN5idStr8FreeDataEv
	mr 3,31
.LEHB42:
	bl _Unwind_Resume
.LEHE42:
.LVL579:
.L358:
	mr 31,3
.LVL580:
.L335:
.LBE2381:
.LBE2383:
.LBE2657:
.LBB2658:
.LBB2631:
.LBB2628:
.LBB2621:
.LBB2615:
.LBB2603:
.LBB2602:
.LBB2596:
.LBB2597:
.LBB2598:
	.loc 7 181 0
	mr 3,18
	bl _ZN6idListI10idKeyValueE5ClearEv
	b .L298
.LVL581:
.L359:
	mr 31,3
.LVL582:
.LBE2598:
.LBE2597:
.LBE2596:
.LBB2599:
.LBB2600:
.LBB2601:
	.loc 16 130 0
	addi 3,1,164
.LVL583:
	bl _ZN11idHashIndex4FreeEv
.LVL584:
	b .L335
.LVL585:
.L357:
	mr 31,3
.LVL586:
.LBE2601:
.LBE2600:
.LBE2599:
.LBE2602:
.LBE2603:
.LBE2615:
.LBB2616:
.LBB2447:
.LBB2448:
.LBB2449:
	addi 3,1,164
.LVL587:
	bl _ZN11idHashIndex4FreeEv
.LVL588:
.L296:
.LBE2449:
.LBE2448:
.LBE2447:
.LBB2450:
.LBB2451:
.LBB2452:
	.loc 7 181 0
	addi 3,1,148
	bl _ZN6idListI10idKeyValueE5ClearEv
	b .L298
.LVL589:
.L356:
	mr 31,3
	b .L296
.LVL590:
.L354:
	mr 31,3
	b .L298
.LBE2452:
.LBE2451:
.LBE2450:
.LBE2616:
.LBE2621:
.LBE2628:
.LBE2631:
.LBE2658:
.LBE2661:
	.cfi_endproc
.LFE2817:
	.section	.gcc_except_table
.LLSDA2817:
	.byte	0xff
	.byte	0xff
	.byte	0x1
	.uleb128 .LLSDACSE2817-.LLSDACSB2817
.LLSDACSB2817:
	.uleb128 .LEHB30-.LFB2817
	.uleb128 .LEHE30-.LEHB30
	.uleb128 .L354-.LFB2817
	.uleb128 0
	.uleb128 .LEHB31-.LFB2817
	.uleb128 .LEHE31-.LEHB31
	.uleb128 0
	.uleb128 0
	.uleb128 .LEHB32-.LFB2817
	.uleb128 .LEHE32-.LEHB32
	.uleb128 .L354-.LFB2817
	.uleb128 0
	.uleb128 .LEHB33-.LFB2817
	.uleb128 .LEHE33-.LEHB33
	.uleb128 0
	.uleb128 0
	.uleb128 .LEHB34-.LFB2817
	.uleb128 .LEHE34-.LEHB34
	.uleb128 .L354-.LFB2817
	.uleb128 0
	.uleb128 .LEHB35-.LFB2817
	.uleb128 .LEHE35-.LEHB35
	.uleb128 .L356-.LFB2817
	.uleb128 0
	.uleb128 .LEHB36-.LFB2817
	.uleb128 .LEHE36-.LEHB36
	.uleb128 .L357-.LFB2817
	.uleb128 0
	.uleb128 .LEHB37-.LFB2817
	.uleb128 .LEHE37-.LEHB37
	.uleb128 .L355-.LFB2817
	.uleb128 0
	.uleb128 .LEHB38-.LFB2817
	.uleb128 .LEHE38-.LEHB38
	.uleb128 .L354-.LFB2817
	.uleb128 0
	.uleb128 .LEHB39-.LFB2817
	.uleb128 .LEHE39-.LEHB39
	.uleb128 .L355-.LFB2817
	.uleb128 0
	.uleb128 .LEHB40-.LFB2817
	.uleb128 .LEHE40-.LEHB40
	.uleb128 .L359-.LFB2817
	.uleb128 0
	.uleb128 .LEHB41-.LFB2817
	.uleb128 .LEHE41-.LEHB41
	.uleb128 .L358-.LFB2817
	.uleb128 0
	.uleb128 .LEHB42-.LFB2817
	.uleb128 .LEHE42-.LEHB42
	.uleb128 0
	.uleb128 0
.LLSDACSE2817:
	.section	".text"
	.size	_ZN11idTestModel5SpawnEv, .-_ZN11idTestModel5SpawnEv
	.align 2
	.globl _ZN11idTestModel16TestShaderParm_fERK9idCmdArgs
	.type	_ZN11idTestModel16TestShaderParm_fERK9idCmdArgs, @function
_ZN11idTestModel16TestShaderParm_fERK9idCmdArgs:
.LFB2833:
	.loc 2 692 0
	.cfi_startproc
	.cfi_personality 0,__gxx_personality_v0
	.cfi_lsda 0,.LLSDA2833
.LVL591:
	stwu 1,-112(1)
.LCFI92:
	.cfi_def_cfa_offset 112
.LVL592:
	mflr 0
.LBB2740:
.LBB2741:
.LBB2742:
.LBB2743:
	.loc 12 357 0
	li 9,20
.LBE2743:
.LBE2742:
.LBE2741:
.LBB2752:
.LBB2753:
.LBB2754:
	.loc 16 112 0
	li 4,1024
.LBE2754:
.LBE2753:
.LBE2752:
.LBB2805:
.LBB2748:
.LBB2744:
	.loc 12 357 0
	stw 9,16(1)
	.loc 12 358 0
	addi 9,1,20
.LBE2744:
.LBE2748:
.LBE2805:
.LBE2740:
	.loc 2 692 0
	stw 0,116(1)
.LBB2877:
.LBB2806:
.LBB2758:
.LBB2755:
	.loc 16 112 0
	li 5,1024
.LBE2755:
.LBE2758:
.LBE2806:
.LBB2807:
.LBB2749:
.LBB2745:
	.loc 12 356 0
	li 0,0
.LBE2745:
.LBE2749:
.LBE2807:
.LBE2877:
	.loc 2 692 0
	stw 30,104(1)
.LBB2878:
.LBB2808:
.LBB2750:
.LBB2746:
	.loc 12 358 0
	stw 9,12(1)
.LBE2746:
.LBE2750:
.LBE2808:
.LBE2878:
	.loc 2 692 0
	mr 30,3
	.cfi_offset 30, -8
	.cfi_offset 65, 4
.LBB2879:
.LBB2809:
.LBB2759:
.LBB2760:
	.loc 7 159 0
	li 9,16
.LBE2760:
.LBE2759:
.LBB2764:
.LBB2756:
	.loc 16 112 0
	addi 3,1,56
.LVL593:
.LBE2756:
.LBE2764:
.LBE2809:
.LBE2879:
	.loc 2 692 0
	stw 29,100(1)
	stw 31,108(1)
.LBB2880:
.LBB2810:
.LBB2751:
.LBB2747:
	.loc 12 356 0
	stw 0,8(1)
	.loc 12 359 0
	stb 0,20(1)
.LVL594:
.LBE2747:
.LBE2751:
.LBE2810:
.LBB2811:
.LBB2765:
.LBB2763:
	.loc 7 159 0
	stw 9,48(1)
.LVL595:
.LBB2761:
.LBB2762:
	.loc 7 197 0
	stw 0,52(1)
	.loc 7 198 0
	stw 0,40(1)
	.loc 7 199 0
	stw 0,44(1)
.LVL596:
.LEHB43:
.LBE2762:
.LBE2761:
.LBE2763:
.LBE2765:
.LBB2766:
.LBB2757:
	.loc 16 112 0
	.cfi_offset 31, -4
	.cfi_offset 29, -12
	bl _ZN11idHashIndex4InitEii
.LEHE43:
.LVL597:
.LBE2757:
.LBE2766:
.LBB2767:
.LBB2768:
	.loc 7 319 0
	lwz 31,52(1)
	.loc 7 317 0
	li 0,16
	stw 0,48(1)
	.loc 7 319 0
	cmpwi 7,31,0
	beq- 7,.L399
	.loc 7 321 0
	lwz 9,40(1)
	.loc 7 323 0
	lwz 0,44(1)
	.loc 7 321 0
	addi 3,9,15
.LVL598:
	.loc 7 322 0
	srawi 3,3,4
	addze 3,3
.LVL599:
	slwi 3,3,4
.LVL600:
	.loc 7 323 0
	cmpw 7,3,0
	beq- 7,.L399
.LVL601:
.LBB2769:
.LBB2770:
	.loc 7 375 0
	cmpwi 7,3,0
	ble- 7,.L456
.LVL602:
	.loc 7 387 0
	cmpw 7,9,3
	.loc 7 386 0
	stw 3,44(1)
	.loc 7 387 0
	bgt- 7,.L457
.L401:
	.loc 7 392 0
	slwi 3,3,3
.LVL603:
.LEHB44:
	bl _Znaj
.LVL604:
	.loc 7 393 0
	lwz 0,40(1)
	.loc 7 392 0
	stw 3,52(1)
.LVL605:
	.loc 7 393 0
	cmpwi 7,0,0
	ble- 7,.L402
	.loc 2 692 0
	addi 8,31,-8
.LBE2770:
.LBE2769:
.LBE2768:
.LBE2767:
.LBE2811:
.LBE2880:
	.loc 7 393 0
	li 9,0
	b .L403
.LVL606:
.L458:
.LBB2881:
.LBB2812:
.LBB2782:
.LBB2779:
.LBB2776:
.LBB2773:
	lwz 3,52(1)
.LVL607:
.L403:
	.loc 7 394 0
	addi 8,8,8
	slwi 0,9,3
	lwz 10,0(8)
	add 3,3,0
	lwz 11,4(8)
	.loc 7 393 0
	addi 9,9,1
.LVL608:
	.loc 7 394 0
	stw 10,0(3)
	stw 11,4(3)
	.loc 7 393 0
	lwz 0,40(1)
	cmpw 7,9,0
	blt+ 7,.L458
.LVL609:
.L402:
	.loc 7 399 0
	mr 3,31
	bl _ZdaPv
.LVL610:
.L399:
.LBE2773:
.LBE2776:
.LBE2779:
.LBE2782:
.LBB2783:
.LBB2784:
	.loc 16 371 0
	li 0,16
.LBE2784:
.LBE2783:
.LBB2786:
.LBB2787:
	.loc 16 341 0
	addi 3,1,56
.LVL611:
.LBE2787:
.LBE2786:
.LBB2792:
.LBB2785:
	.loc 16 371 0
	stw 0,72(1)
.LVL612:
.LBE2785:
.LBE2792:
.LBB2793:
.LBB2788:
	.loc 16 341 0
	bl _ZN11idHashIndex4FreeEv
.LEHE44:
.LVL613:
.LBE2788:
.LBE2793:
.LBE2812:
	.loc 2 698 0
	lis 31,gameLocal@ha
.LBB2813:
.LBB2794:
.LBB2789:
	.loc 16 342 0
	li 0,128
.LBE2789:
.LBE2794:
.LBE2813:
	.loc 2 698 0
	la 31,gameLocal@l(31)
.LBB2814:
.LBB2795:
.LBB2790:
	.loc 16 342 0
	stw 0,56(1)
.LBE2790:
.LBE2795:
.LBE2814:
	.loc 2 698 0
	mr 3,31
.LBB2815:
.LBB2796:
.LBB2791:
	.loc 16 343 0
	li 0,16
	stw 0,64(1)
.LEHB45:
.LBE2791:
.LBE2796:
.LBE2815:
	.loc 2 698 0
	bl _ZNK11idGameLocal14GetLocalPlayerEv
.LVL614:
	.loc 2 699 0
	cmpwi 7,3,0
	beq- 7,.L412
	.loc 2 699 0 is_stmt 0 discriminator 2
	mr 3,31
.LVL615:
	li 4,1
	bl _ZN11idGameLocal8CheatsOkEb
.LEHE45:
	cmpwi 7,3,0
	bne- 7,.L411
.L412:
.LVL616:
.LBB2816:
.LBB2817:
.LBB2818:
	.loc 2 727 0 is_stmt 1
	addi 31,1,40
	.loc 15 174 0
	mr 3,31
.LEHB46:
	bl _ZN6idDict5ClearEv
.LEHE46:
.LVL617:
.LBB2819:
.LBB2820:
.LBB2821:
	.loc 16 130 0
	addi 3,1,56
.LVL618:
.LEHB47:
	bl _ZN11idHashIndex4FreeEv
.LEHE47:
.LVL619:
.L455:
.LBE2821:
.LBE2820:
.LBE2819:
.LBB2822:
.LBB2823:
.LBB2824:
.LBB2825:
	.loc 7 193 0
	lwz 3,52(1)
	cmpwi 7,3,0
	beq- 7,.L427
	.loc 7 194 0
	bl _ZdaPv
.L427:
	.loc 7 197 0
	li 0,0
.LBE2825:
.LBE2824:
.LBE2823:
.LBE2822:
.LBE2818:
.LBE2817:
.LBE2816:
.LBB2842:
.LBB2843:
.LBB2844:
	.loc 12 501 0
	addi 3,1,8
.LBE2844:
.LBE2843:
.LBE2842:
.LBB2847:
.LBB2839:
.LBB2836:
.LBB2829:
.LBB2828:
.LBB2827:
.LBB2826:
	.loc 7 197 0
	stw 0,52(1)
	.loc 7 198 0
	stw 0,40(1)
	.loc 7 199 0
	stw 0,44(1)
.LVL620:
.LEHB48:
.LBE2826:
.LBE2827:
.LBE2828:
.LBE2829:
.LBE2836:
.LBE2839:
.LBE2847:
.LBB2848:
.LBB2846:
.LBB2845:
	.loc 12 501 0
	bl _ZN5idStr8FreeDataEv
.LEHE48:
.LBE2845:
.LBE2846:
.LBE2848:
.LBE2881:
	.loc 2 728 0
	lwz 0,116(1)
	lwz 29,100(1)
	mtlr 0
	lwz 30,104(1)
.LVL621:
	lwz 31,108(1)
	addi 1,1,112
	.cfi_remember_state
.LCFI93:
	.cfi_def_cfa_offset 0
	.cfi_restore 31
	.cfi_restore 30
	.cfi_restore 29
	blr
.LVL622:
.L411:
.LCFI94:
	.cfi_restore_state
.LBB2882:
	.loc 2 704 0
	addis 31,31,0x25
	lwz 0,1376(31)
	cmpwi 7,0,0
	beq- 7,.L459
	.loc 2 709 0
	lwz 0,0(30)
	cmpwi 7,0,3
	bne- 7,.L460
.LVL623:
	.loc 2 714 0
	lwz 3,8(30)
	bl atoi
	.loc 2 715 0
	cmplwi 7,3,11
	.loc 2 714 0
	mr 29,3
.LVL624:
	.loc 2 715 0
	bgt- 7,.L461
.LVL625:
.LBB2849:
.LBB2850:
	.loc 13 50 0
	lwz 0,0(30)
	cmpwi 7,0,2
	bgt- 7,.L462
	lis 3,.LC19@ha
.LVL626:
	la 3,.LC19@l(3)
.L415:
.LBE2850:
.LBE2849:
	.loc 2 721 0
	lis 4,.LC55@ha
	la 4,.LC55@l(4)
.LEHB49:
	bl _ZN5idStr4IcmpEPKcS1_
	cmpwi 7,3,0
	bne- 7,.L416
	.loc 2 722 0
	lwz 0,2004(31)
	lis 9,.LC9@ha
	lfs 0,.LC9@l(9)
	lis 9,.LC56@ha
	xoris 0,0,0x8000
	stw 0,92(1)
	lis 0,0x4330
	stw 0,88(1)
	lfd 1,88(1)
	fsub 1,1,0
	lfd 0,.LC56@l(9)
	fmul 1,1,0
	frsp 1,1
.LVL627:
.L417:
	.loc 2 727 0
	lwz 3,1376(31)
	mr 4,29
	bl _ZN8idEntity13SetShaderParmEif
.LEHE49:
.LVL628:
.LBB2852:
.LBB2853:
.LBB2854:
	addi 31,1,40
	.loc 15 174 0
	mr 3,31
.LEHB50:
	bl _ZN6idDict5ClearEv
.LEHE50:
.LVL629:
.LBB2855:
.LBB2856:
.LBB2857:
	.loc 16 130 0
	addi 3,1,56
.LVL630:
.LEHB51:
	bl _ZN11idHashIndex4FreeEv
.LEHE51:
.LVL631:
	b .L455
.LVL632:
.L457:
.LBE2857:
.LBE2856:
.LBE2855:
.LBE2854:
.LBE2853:
.LBE2852:
.LBB2863:
.LBB2797:
.LBB2780:
.LBB2777:
.LBB2774:
	.loc 7 388 0
	stw 3,40(1)
	b .L401
.LVL633:
.L460:
.LBE2774:
.LBE2777:
.LBE2780:
.LBE2797:
.LBE2863:
	.loc 2 710 0
	lis 9,common@ha
	lis 4,.LC53@ha
	lwz 3,common@l(9)
	la 4,.LC53@l(4)
	lwz 9,0(3)
	lwz 0,68(9)
	mtctr 0
.LEHB52:
	crxor 6,6,6
	bctrl
	b .L412
.LVL634:
.L462:
.LBB2864:
.LBB2851:
	.loc 13 50 0
	lwz 3,12(30)
.LVL635:
	b .L415
.LVL636:
.L461:
.LBE2851:
.LBE2864:
	.loc 2 716 0
	lis 9,common@ha
	lis 4,.LC54@ha
	lwz 3,common@l(9)
	la 4,.LC54@l(4)
	mr 5,29
	lwz 9,0(3)
	lwz 0,68(9)
	mtctr 0
	crxor 6,6,6
	bctrl
	b .L412
.LVL637:
.L416:
.LBB2865:
.LBB2866:
	.loc 13 50 0
	lwz 0,0(30)
	cmpwi 7,0,2
	ble- 7,.L442
	lwz 3,12(30)
.L418:
.LBE2866:
.LBE2865:
	.loc 2 724 0
	bl atof
	frsp 1,1
.LVL638:
	b .L417
.LVL639:
.L456:
.LBB2868:
.LBB2798:
.LBB2781:
.LBB2778:
.LBB2775:
.LBB2771:
.LBB2772:
	.loc 7 194 0
	mr 3,31
.LVL640:
	bl _ZdaPv
	.loc 7 197 0
	li 0,0
	stw 0,52(1)
	.loc 7 198 0
	stw 0,40(1)
	.loc 7 199 0
	stw 0,44(1)
	b .L399
.LVL641:
.L442:
.LBE2772:
.LBE2771:
.LBE2775:
.LBE2778:
.LBE2781:
.LBE2798:
.LBE2868:
.LBB2869:
.LBB2867:
	.loc 13 50 0
	lis 3,.LC19@ha
	la 3,.LC19@l(3)
	b .L418
.LVL642:
.L459:
.LBE2867:
.LBE2869:
	.loc 2 705 0
	lis 9,common@ha
	lis 4,.LC52@ha
	lwz 3,common@l(9)
	la 4,.LC52@l(4)
	lwz 9,0(3)
	lwz 0,68(9)
	mtctr 0
	crxor 6,6,6
	bctrl
.LEHE52:
	b .L412
.LVL643:
.L446:
.L453:
	mr 30,3
.LVL644:
.L431:
.LBB2870:
.LBB2840:
.LBB2837:
.LBB2830:
.LBB2831:
.LBB2832:
	.loc 7 181 0
	mr 3,31
	mr 31,30
	bl _ZN6idListI10idKeyValueE5ClearEv
.LVL645:
.L409:
.LBE2832:
.LBE2831:
.LBE2830:
.LBE2837:
.LBE2840:
.LBE2870:
.LBB2871:
.LBB2872:
.LBB2873:
	.loc 12 501 0
	addi 3,1,8
	bl _ZN5idStr8FreeDataEv
	mr 3,31
.LEHB53:
	bl _Unwind_Resume
.LEHE53:
.LVL646:
.L447:
	mr 30,3
.LVL647:
.LBE2873:
.LBE2872:
.LBE2871:
.LBB2874:
.LBB2862:
.LBB2861:
.LBB2858:
.LBB2859:
.LBB2860:
	.loc 16 130 0
	addi 3,1,56
.LVL648:
	bl _ZN11idHashIndex4FreeEv
.LVL649:
	b .L431
.LVL650:
.L443:
	mr 31,3
.LBE2860:
.LBE2859:
.LBE2858:
.LBE2861:
.LBE2862:
.LBE2874:
	.loc 2 727 0
	addi 3,1,40
	bl _ZN6idDictD1Ev
	b .L409
.LVL651:
.L445:
	mr 31,3
.LVL652:
.LBB2875:
.LBB2799:
.LBB2800:
.LBB2801:
	.loc 16 130 0
	addi 3,1,56
.LVL653:
	bl _ZN11idHashIndex4FreeEv
.LVL654:
.L407:
.LBE2801:
.LBE2800:
.LBE2799:
.LBB2802:
.LBB2803:
.LBB2804:
	.loc 7 181 0
	addi 3,1,40
	bl _ZN6idListI10idKeyValueE5ClearEv
	b .L409
.LVL655:
.L448:
	b .L453
.LVL656:
.L449:
	mr 30,3
.LVL657:
.LBE2804:
.LBE2803:
.LBE2802:
.LBE2875:
.LBB2876:
.LBB2841:
.LBB2838:
.LBB2833:
.LBB2834:
.LBB2835:
	.loc 16 130 0
	addi 3,1,56
.LVL658:
	bl _ZN11idHashIndex4FreeEv
.LVL659:
	b .L431
.LVL660:
.L444:
	mr 31,3
	b .L407
.LBE2835:
.LBE2834:
.LBE2833:
.LBE2838:
.LBE2841:
.LBE2876:
.LBE2882:
	.cfi_endproc
.LFE2833:
	.section	.gcc_except_table
.LLSDA2833:
	.byte	0xff
	.byte	0xff
	.byte	0x1
	.uleb128 .LLSDACSE2833-.LLSDACSB2833
.LLSDACSB2833:
	.uleb128 .LEHB43-.LFB2833
	.uleb128 .LEHE43-.LEHB43
	.uleb128 .L444-.LFB2833
	.uleb128 0
	.uleb128 .LEHB44-.LFB2833
	.uleb128 .LEHE44-.LEHB44
	.uleb128 .L445-.LFB2833
	.uleb128 0
	.uleb128 .LEHB45-.LFB2833
	.uleb128 .LEHE45-.LEHB45
	.uleb128 .L443-.LFB2833
	.uleb128 0
	.uleb128 .LEHB46-.LFB2833
	.uleb128 .LEHE46-.LEHB46
	.uleb128 .L449-.LFB2833
	.uleb128 0
	.uleb128 .LEHB47-.LFB2833
	.uleb128 .LEHE47-.LEHB47
	.uleb128 .L448-.LFB2833
	.uleb128 0
	.uleb128 .LEHB48-.LFB2833
	.uleb128 .LEHE48-.LEHB48
	.uleb128 0
	.uleb128 0
	.uleb128 .LEHB49-.LFB2833
	.uleb128 .LEHE49-.LEHB49
	.uleb128 .L443-.LFB2833
	.uleb128 0
	.uleb128 .LEHB50-.LFB2833
	.uleb128 .LEHE50-.LEHB50
	.uleb128 .L447-.LFB2833
	.uleb128 0
	.uleb128 .LEHB51-.LFB2833
	.uleb128 .LEHE51-.LEHB51
	.uleb128 .L446-.LFB2833
	.uleb128 0
	.uleb128 .LEHB52-.LFB2833
	.uleb128 .LEHE52-.LEHB52
	.uleb128 .L443-.LFB2833
	.uleb128 0
	.uleb128 .LEHB53-.LFB2833
	.uleb128 .LEHE53-.LEHB53
	.uleb128 0
	.uleb128 0
.LLSDACSE2833:
	.section	".text"
	.size	_ZN11idTestModel16TestShaderParm_fERK9idCmdArgs, .-_ZN11idTestModel16TestShaderParm_fERK9idCmdArgs
	.align 2
	.globl _ZN11idTestModel11TestModel_fERK9idCmdArgs
	.type	_ZN11idTestModel11TestModel_fERK9idCmdArgs, @function
_ZN11idTestModel11TestModel_fERK9idCmdArgs:
.LFB2834:
	.loc 2 738 0
	.cfi_startproc
	.cfi_personality 0,__gxx_personality_v0
	.cfi_lsda 0,.LLSDA2834
.LVL661:
	stwu 1,-248(1)
.LCFI95:
	.cfi_def_cfa_offset 248
.LVL662:
	mflr 0
.LBB3012:
.LBB3013:
.LBB3014:
.LBB3015:
	.loc 12 357 0
	li 9,20
.LBE3015:
.LBE3014:
.LBE3013:
.LBB3024:
.LBB3025:
.LBB3026:
	.loc 16 112 0
	li 4,1024
.LBE3026:
.LBE3025:
.LBE3024:
.LBB3077:
.LBB3020:
.LBB3016:
	.loc 12 357 0
	stw 9,40(1)
	.loc 12 358 0
	addi 9,1,44
.LBE3016:
.LBE3020:
.LBE3077:
.LBE3012:
	.loc 2 738 0
	stw 0,252(1)
.LBB3196:
.LBB3078:
.LBB3030:
.LBB3027:
	.loc 16 112 0
	li 5,1024
.LBE3027:
.LBE3030:
.LBE3078:
.LBB3079:
.LBB3021:
.LBB3017:
	.loc 12 356 0
	li 0,0
.LBE3017:
.LBE3021:
.LBE3079:
.LBE3196:
	.loc 2 738 0
	stw 28,232(1)
.LBB3197:
.LBB3080:
.LBB3022:
.LBB3018:
	.loc 12 358 0
	stw 9,36(1)
.LBE3018:
.LBE3022:
.LBE3080:
.LBE3197:
	.loc 2 738 0
	mr 28,3
	.cfi_offset 28, -16
	.cfi_offset 65, 4
.LBB3198:
.LBB3081:
.LBB3031:
.LBB3032:
	.loc 7 159 0
	li 9,16
.LBE3032:
.LBE3031:
.LBB3036:
.LBB3028:
	.loc 16 112 0
	addi 3,1,80
.LVL663:
.LBE3028:
.LBE3036:
.LBE3081:
.LBE3198:
	.loc 2 738 0
	stw 26,224(1)
	stw 27,228(1)
	stw 29,236(1)
	stw 30,240(1)
	stw 31,244(1)
.LBB3199:
.LBB3082:
.LBB3023:
.LBB3019:
	.loc 12 356 0
	stw 0,32(1)
	.loc 12 359 0
	stb 0,44(1)
.LVL664:
.LBE3019:
.LBE3023:
.LBE3082:
.LBB3083:
.LBB3037:
.LBB3035:
	.loc 7 159 0
	stw 9,72(1)
.LVL665:
.LBB3033:
.LBB3034:
	.loc 7 197 0
	stw 0,76(1)
	.loc 7 198 0
	stw 0,64(1)
	.loc 7 199 0
	stw 0,68(1)
.LVL666:
.LEHB54:
.LBE3034:
.LBE3033:
.LBE3035:
.LBE3037:
.LBB3038:
.LBB3029:
	.loc 16 112 0
	.cfi_offset 31, -4
	.cfi_offset 30, -8
	.cfi_offset 29, -12
	.cfi_offset 27, -20
	.cfi_offset 26, -24
	bl _ZN11idHashIndex4InitEii
.LEHE54:
.LVL667:
.LBE3029:
.LBE3038:
.LBB3039:
.LBB3040:
	.loc 7 319 0
	lwz 31,76(1)
	.loc 7 317 0
	li 0,16
	stw 0,72(1)
	.loc 7 319 0
	cmpwi 7,31,0
	beq- 7,.L464
	.loc 7 321 0
	lwz 9,64(1)
	.loc 7 323 0
	lwz 0,68(1)
	.loc 7 321 0
	addi 3,9,15
.LVL668:
	.loc 7 322 0
	srawi 3,3,4
	addze 3,3
.LVL669:
	slwi 3,3,4
.LVL670:
	.loc 7 323 0
	cmpw 7,3,0
	beq- 7,.L464
.LVL671:
.LBB3041:
.LBB3042:
	.loc 7 375 0
	cmpwi 7,3,0
	ble- 7,.L545
.LVL672:
	.loc 7 387 0
	cmpw 7,9,3
	.loc 7 386 0
	stw 3,68(1)
	.loc 7 387 0
	bgt- 7,.L546
.L466:
	.loc 7 392 0
	slwi 3,3,3
.LVL673:
.LEHB55:
	bl _Znaj
.LVL674:
	.loc 7 393 0
	lwz 0,64(1)
	.loc 7 392 0
	stw 3,76(1)
.LVL675:
	.loc 7 393 0
	cmpwi 7,0,0
	ble- 7,.L467
	.loc 2 738 0
	addi 8,31,-8
.LBE3042:
.LBE3041:
.LBE3040:
.LBE3039:
.LBE3083:
.LBE3199:
	.loc 7 393 0
	li 9,0
	b .L468
.LVL676:
.L547:
.LBB3200:
.LBB3084:
.LBB3054:
.LBB3051:
.LBB3048:
.LBB3045:
	lwz 3,76(1)
.LVL677:
.L468:
	.loc 7 394 0
	addi 8,8,8
	slwi 0,9,3
	lwz 10,0(8)
	add 3,3,0
	lwz 11,4(8)
	.loc 7 393 0
	addi 9,9,1
.LVL678:
	.loc 7 394 0
	stw 10,0(3)
	stw 11,4(3)
	.loc 7 393 0
	lwz 0,64(1)
	cmpw 7,9,0
	blt+ 7,.L547
.LVL679:
.L467:
	.loc 7 399 0
	mr 3,31
	bl _ZdaPv
.LVL680:
.L464:
.LBE3045:
.LBE3048:
.LBE3051:
.LBE3054:
.LBB3055:
.LBB3056:
	.loc 16 371 0
	li 0,16
.LBE3056:
.LBE3055:
.LBB3058:
.LBB3059:
	.loc 16 341 0
	addi 3,1,80
.LVL681:
.LBE3059:
.LBE3058:
.LBB3064:
.LBB3057:
	.loc 16 371 0
	stw 0,96(1)
.LVL682:
.LBE3057:
.LBE3064:
.LBB3065:
.LBB3060:
	.loc 16 341 0
	bl _ZN11idHashIndex4FreeEv
.LEHE55:
.LVL683:
.LBE3060:
.LBE3065:
.LBE3084:
	.loc 2 745 0
	lis 29,gameLocal@ha
.LBB3085:
.LBB3066:
.LBB3061:
	.loc 16 342 0
	li 0,128
.LBE3061:
.LBE3066:
.LBE3085:
	.loc 2 745 0
	la 29,gameLocal@l(29)
.LBB3086:
.LBB3067:
.LBB3062:
	.loc 16 342 0
	stw 0,80(1)
.LBE3062:
.LBE3067:
.LBE3086:
	.loc 2 745 0
	mr 3,29
.LBB3087:
.LBB3068:
.LBB3063:
	.loc 16 343 0
	li 0,16
	stw 0,88(1)
	addi 31,1,64
	addi 30,1,32
.LEHB56:
.LBE3063:
.LBE3068:
.LBE3087:
	.loc 2 745 0
	bl _ZNK11idGameLocal14GetLocalPlayerEv
.LVL684:
	.loc 2 746 0
	mr. 27,3
	beq- 0,.L540
	.loc 2 746 0 is_stmt 0 discriminator 2
	mr 3,29
.LVL685:
	li 4,1
	addi 31,1,64
	addi 30,1,32
	bl _ZN11idGameLocal8CheatsOkEb
	cmpwi 7,3,0
	beq- 7,.L540
	.loc 2 751 0 is_stmt 1
	addis 26,29,0x25
	lwz 3,1376(26)
	cmpwi 7,3,0
	beq- 7,.L522
	.loc 2 752 0 discriminator 1
	lwz 9,0(3)
	addi 31,1,64
	addi 30,1,32
	lwz 0,8(9)
	mtctr 0
	bctrl
	.loc 2 753 0
	li 0,0
	stw 0,1376(26)
.L522:
	.loc 2 756 0
	lwz 0,0(28)
	addi 30,1,32
	cmpwi 7,0,1
	ble- 7,.L477
.LVL686:
	.loc 2 760 0
	lwz 4,8(28)
	mr 3,30
	addi 31,1,64
	bl _ZN5idStraSEPKc
.LVL687:
	.loc 2 762 0
	lwz 4,4(30)
	mr 3,29
	li 5,0
	addi 31,1,64
	bl _ZNK11idGameLocal17FindEntityDefDictEPKcb
.LVL688:
.LBB3088:
	.loc 2 763 0
	mr. 4,3
	beq- 0,.L478
	.loc 2 764 0
	addi 31,1,64
	mr 3,31
.LVL689:
	bl _ZN6idDictaSERKS_
.LVL690:
.L479:
.LBE3088:
	.loc 2 789 0
	mr 3,27
	bl _ZNK8idEntity10GetPhysicsEv
	lwz 9,0(3)
	li 4,0
	lwz 0,132(9)
	mtctr 0
	bctrl
	.loc 2 789 0 is_stmt 0 discriminator 1
	mr 28,3
.LVL691:
	addi 4,27,4644
	addi 3,1,8
	bl _ZNK8idAngles9ToForwardEv
.LVL692:
	.loc 4 452 0 is_stmt 1
	lis 9,.LC59@ha
	lfs 12,4(28)
	lfs 0,.LC59@l(9)
	.loc 2 791 0
	addi 3,1,20
	.loc 4 452 0
	lfs 10,12(1)
	.loc 2 791 0
	li 4,2
	.loc 4 452 0
	lfs 13,8(28)
	fmadds 12,10,0,12
	lfs 10,16(1)
.LBB3136:
.LBB3137:
	lfs 11,0(28)
.LBE3137:
.LBE3136:
	fmadds 13,10,0,13
.LVL693:
.LBB3139:
.LBB3138:
	lfs 10,8(1)
	.loc 4 425 0
	stfs 12,24(1)
	.loc 4 452 0
	fmadds 0,10,0,11
	.loc 4 426 0
	stfs 13,28(1)
	.loc 4 424 0
	stfs 0,20(1)
.LBE3138:
.LBE3139:
	.loc 2 791 0
	bl _ZNK6idVec38ToStringEi
.LVL694:
	lis 4,.LC6@ha
	mr 5,3
	la 4,.LC6@l(4)
	mr 3,31
	bl _ZN6idDict3SetEPKcS1_
	.loc 2 792 0
	lis 9,.LC61@ha
	lfs 1,4648(27)
	lfs 0,.LC61@l(9)
	lis 3,.LC60@ha
	la 3,.LC60@l(3)
	fadds 1,1,0
	creqv 6,6,6
	bl _Z2vaPKcz
	lis 4,.LC62@ha
	mr 5,3
	la 4,.LC62@l(4)
	mr 3,31
	bl _ZN6idDict3SetEPKcS1_
	.loc 2 793 0
	lis 4,.LANCHOR0@ha
	mr 3,29
	la 4,.LANCHOR0@l(4)
	mr 5,31
	li 6,0
	bl _ZN11idGameLocal15SpawnEntityTypeERK10idTypeInfoPK6idDictb
.LEHE56:
	.loc 2 794 0
	lwz 0,2004(26)
	lis 11,.LC9@ha
	lfs 0,.LC9@l(11)
	lis 11,_ZN6idMath8M_MS2SECE@ha
	xoris 0,0,0x8000
	.loc 2 793 0
	mr 9,3
	.loc 2 794 0
	stw 0,220(1)
	lis 0,0x4330
	stw 0,216(1)
	lfd 13,216(1)
	.loc 2 793 0
	stw 3,1376(26)
.LBB3140:
.LBB3141:
.LBB3142:
	.loc 15 174 0
	mr 3,31
.LBE3142:
.LBE3141:
.LBE3140:
	.loc 2 794 0
	fsub 0,13,0
	lfs 13,_ZN6idMath8M_MS2SECE@l(11)
	frsp 0,0
	fmuls 0,0,13
	fneg 0,0
	stfs 0,336(9)
.LVL695:
.LEHB57:
.LBB3153:
.LBB3151:
.LBB3149:
	.loc 15 174 0
	bl _ZN6idDict5ClearEv
.LEHE57:
.LVL696:
.LBB3143:
.LBB3144:
.LBB3145:
	.loc 16 130 0
	addi 3,1,80
.LVL697:
.LEHB58:
	bl _ZN11idHashIndex4FreeEv
.LEHE58:
.LVL698:
	b .L544
.LVL699:
.L540:
	addi 30,1,32
.L477:
.LVL700:
.LBE3145:
.LBE3144:
.LBE3143:
.LBE3149:
.LBE3151:
.LBE3153:
.LBB3154:
.LBB3155:
.LBB3156:
	.loc 2 794 0
	addi 31,1,64
	.loc 15 174 0
	mr 3,31
.LEHB59:
	bl _ZN6idDict5ClearEv
.LEHE59:
.LVL701:
.LBB3157:
.LBB3158:
.LBB3159:
	.loc 16 130 0
	addi 3,1,80
.LVL702:
.LEHB60:
	bl _ZN11idHashIndex4FreeEv
.LEHE60:
.LVL703:
.L544:
.LBE3159:
.LBE3158:
.LBE3157:
.LBB3160:
.LBB3161:
.LBB3162:
.LBB3163:
	.loc 7 193 0
	lwz 3,76(1)
	cmpwi 7,3,0
	beq- 7,.L501
	.loc 7 194 0
	bl _ZdaPv
.L501:
	.loc 7 197 0
	li 0,0
.LBE3163:
.LBE3162:
.LBE3161:
.LBE3160:
.LBE3156:
.LBE3155:
.LBE3154:
.LBB3178:
.LBB3179:
.LBB3180:
	.loc 12 501 0
	mr 3,30
.LBE3180:
.LBE3179:
.LBE3178:
.LBB3183:
.LBB3176:
.LBB3174:
.LBB3167:
.LBB3166:
.LBB3165:
.LBB3164:
	.loc 7 197 0
	stw 0,76(1)
	.loc 7 198 0
	stw 0,64(1)
	.loc 7 199 0
	stw 0,68(1)
.LVL704:
.LEHB61:
.LBE3164:
.LBE3165:
.LBE3166:
.LBE3167:
.LBE3174:
.LBE3176:
.LBE3183:
.LBB3184:
.LBB3182:
.LBB3181:
	.loc 12 501 0
	bl _ZN5idStr8FreeDataEv
.LEHE61:
.LBE3181:
.LBE3182:
.LBE3184:
.LBE3200:
	.loc 2 795 0
	lwz 0,252(1)
	lwz 26,224(1)
	mtlr 0
	lwz 27,228(1)
.LVL705:
	lwz 28,232(1)
	lwz 29,236(1)
	lwz 30,240(1)
	lwz 31,244(1)
	addi 1,1,248
	.cfi_remember_state
.LCFI96:
	.cfi_def_cfa_offset 0
	.cfi_restore 31
	.cfi_restore 30
	.cfi_restore 29
	.cfi_restore 28
	.cfi_restore 27
	.cfi_restore 26
	blr
.LVL706:
.L546:
.LCFI97:
	.cfi_restore_state
.LBB3201:
.LBB3185:
.LBB3069:
.LBB3052:
.LBB3049:
.LBB3046:
	.loc 7 388 0
	stw 3,64(1)
	b .L466
.LVL707:
.L478:
.LBE3046:
.LBE3049:
.LBE3052:
.LBE3069:
.LBE3185:
.LBB3186:
.LBB3089:
	.loc 2 766 0
	lis 9,declManager@ha
	li 4,5
	lwz 3,declManager@l(9)
.LVL708:
	li 6,0
	lwz 5,4(30)
	li 7,0
	lwz 9,0(3)
	addi 31,1,64
	lwz 0,60(9)
	mtctr 0
.LEHB62:
	bctrl
	cmpwi 7,3,0
	beq- 7,.L480
.L492:
.LVL709:
.LBB3090:
	.loc 2 785 0
	addi 31,1,64
	lis 4,.LC31@ha
	lwz 5,4(30)
	mr 3,31
	la 4,.LC31@l(4)
	bl _ZN6idDict3SetEPKcS1_
	b .L479
.LVL710:
.L545:
.LBE3090:
.LBE3089:
.LBE3186:
.LBB3187:
.LBB3070:
.LBB3053:
.LBB3050:
.LBB3047:
.LBB3043:
.LBB3044:
	.loc 7 194 0
	mr 3,31
.LVL711:
	bl _ZdaPv
	.loc 7 197 0
	li 0,0
	stw 0,76(1)
	.loc 7 198 0
	stw 0,64(1)
	.loc 7 199 0
	stw 0,68(1)
	b .L464
.LVL712:
.L480:
.LBE3044:
.LBE3043:
.LBE3047:
.LBE3050:
.LBE3053:
.LBE3070:
.LBE3187:
.LBB3188:
.LBB3134:
	.loc 2 771 0
	lwz 31,4(30)
.LVL713:
.LBB3132:
	lbz 0,0(31)
	cmpwi 7,0,95
	beq- 7,.L481
	.loc 2 772 0
	lis 4,.LC25@ha
	mr 3,30
	la 4,.LC25@l(4)
	addi 31,1,64
	bl _ZN5idStr20DefaultFileExtensionEPKc
	lwz 31,4(30)
.L481:
.LVL714:
.LBB3091:
	.loc 2 775 0
	lis 4,.LC27@ha
	mr 3,31
	la 4,.LC27@l(4)
	bl strstr
	cmpwi 7,3,0
	beq- 7,.L548
.L482:
.LBB3092:
	.loc 2 776 0 discriminator 4
	addi 3,1,108
	addi 31,1,64
	bl _ZN13idModelExportC1Ev
.LEHE62:
.LVL715:
	.loc 2 777 0
	lwz 4,4(30)
	addi 3,1,108
.LEHB63:
	bl _ZN13idModelExport11ExportModelEPKc
	.loc 2 778 0
	lis 4,.LC57@ha
	mr 3,30
	la 4,.LC57@l(4)
	bl _ZN5idStr16SetFileExtensionEPKc
.LEHE63:
.LVL716:
.LBB3093:
.LBB3094:
.LBB3095:
.LBB3096:
.LBB3097:
	.loc 12 501 0
	addi 3,1,172
.LEHB64:
	bl _ZN5idStr8FreeDataEv
.LEHE64:
.LVL717:
.LBE3097:
.LBE3096:
.LBE3095:
.LBB3098:
.LBB3099:
.LBB3100:
	addi 3,1,140
.LEHB65:
	bl _ZN5idStr8FreeDataEv
.LEHE65:
.LVL718:
.LBE3100:
.LBE3099:
.LBE3098:
.LBB3101:
.LBB3102:
.LBB3103:
	addi 3,1,108
.LVL719:
	addi 31,1,64
.LEHB66:
	bl _ZN5idStr8FreeDataEv
.LVL720:
.L491:
.LBE3103:
.LBE3102:
.LBE3101:
.LBE3094:
.LBE3093:
.LBE3092:
.LBE3091:
	.loc 2 781 0
	lis 9,renderModelManager@ha
	lwz 4,4(30)
	lwz 3,renderModelManager@l(9)
.LVL721:
	addi 31,1,64
	lwz 9,0(3)
	lwz 0,36(9)
	mtctr 0
	bctrl
	cmpwi 7,3,0
	bne+ 7,.L492
	.loc 2 782 0
	lis 4,.LC58@ha
	mr 3,29
	la 4,.LC58@l(4)
	addi 31,1,64
	crxor 6,6,6
	bl _ZNK11idGameLocal6PrintfEPKcz
.LEHE66:
	b .L477
.LVL722:
.L548:
.LBB3130:
	.loc 2 775 0
	lis 4,.LC28@ha
	mr 3,31
	la 4,.LC28@l(4)
	bl strstr
	cmpwi 7,3,0
	bne+ 7,.L482
	b .L491
.LVL723:
.L526:
	mr 31,3
.LVL724:
.LBE3130:
.LBE3132:
.LBE3134:
.LBE3188:
.LBB3189:
.LBB3071:
.LBB3072:
.LBB3073:
	.loc 16 130 0
	addi 3,1,80
.LVL725:
	bl _ZN11idHashIndex4FreeEv
.LVL726:
.L472:
.LBE3073:
.LBE3072:
.LBE3071:
.LBB3074:
.LBB3075:
.LBB3076:
	.loc 7 181 0
	addi 3,1,64
	addi 30,1,32
	bl _ZN6idListI10idKeyValueE5ClearEv
.LVL727:
.L474:
.LBE3076:
.LBE3075:
.LBE3074:
.LBE3189:
.LBB3190:
.LBB3191:
.LBB3192:
	.loc 12 501 0
	mr 3,30
	bl _ZN5idStr8FreeDataEv
	mr 3,31
.LEHB67:
	bl _Unwind_Resume
.LEHE67:
.LVL728:
.L531:
.L542:
	mr 29,3
.LVL729:
.L505:
.LBE3192:
.LBE3191:
.LBE3190:
.LBB3193:
.LBB3177:
.LBB3175:
.LBB3168:
.LBB3169:
.LBB3170:
	.loc 7 181 0
	mr 3,31
	mr 31,29
	bl _ZN6idListI10idKeyValueE5ClearEv
	b .L474
.LVL730:
.L532:
	mr 29,3
.LVL731:
.LBE3170:
.LBE3169:
.LBE3168:
.LBB3171:
.LBB3172:
.LBB3173:
	.loc 16 130 0
	addi 3,1,80
.LVL732:
	bl _ZN11idHashIndex4FreeEv
.LVL733:
	b .L505
.LVL734:
.L530:
	mr 29,3
.LVL735:
.LBE3173:
.LBE3172:
.LBE3171:
.LBE3175:
.LBE3177:
.LBE3193:
.LBB3194:
.LBB3152:
.LBB3150:
.LBB3146:
.LBB3147:
.LBB3148:
	addi 3,1,80
.LVL736:
	bl _ZN11idHashIndex4FreeEv
.LVL737:
	b .L505
.LVL738:
.L529:
	b .L542
.LVL739:
.L525:
	mr 31,3
	b .L472
.LVL740:
.L523:
	mr 29,3
.L490:
.LBE3148:
.LBE3147:
.LBE3146:
.LBE3150:
.LBE3152:
.LBE3194:
	.loc 2 794 0
	mr 3,31
	mr 31,29
	bl _ZN6idDictD1Ev
	b .L474
.LVL741:
.L527:
	mr 29,3
.LVL742:
.L488:
.LBB3195:
.LBB3135:
.LBB3133:
.LBB3131:
.LBB3129:
.LBB3111:
.LBB3110:
.LBB3104:
.LBB3105:
.LBB3106:
	.loc 12 501 0
	addi 3,1,108
.LVL743:
	addi 31,1,64
	bl _ZN5idStr8FreeDataEv
.LVL744:
	b .L490
.LVL745:
.L528:
	mr 29,3
.LVL746:
.LBE3106:
.LBE3105:
.LBE3104:
.LBB3107:
.LBB3108:
.LBB3109:
	addi 3,1,140
.LVL747:
	bl _ZN5idStr8FreeDataEv
.LVL748:
	b .L488
.LVL749:
.L524:
	mr 29,3
.LVL750:
.LBE3109:
.LBE3108:
.LBE3107:
.LBE3110:
.LBE3111:
.LBB3112:
.LBB3113:
.LBB3114:
.LBB3115:
.LBB3116:
	addi 3,1,172
.LVL751:
.LEHB68:
	bl _ZN5idStr8FreeDataEv
.LEHE68:
.LVL752:
.LBE3116:
.LBE3115:
.LBE3114:
.LBB3117:
.LBB3118:
.LBB3119:
	addi 3,1,140
.LVL753:
.LEHB69:
	bl _ZN5idStr8FreeDataEv
.LEHE69:
.LVL754:
.LBE3119:
.LBE3118:
.LBE3117:
.LBB3120:
.LBB3121:
.LBB3122:
	addi 3,1,108
.LVL755:
	addi 31,1,64
	bl _ZN5idStr8FreeDataEv
.LVL756:
	b .L490
.LVL757:
.L534:
.LBE3122:
.LBE3121:
.LBE3120:
.LBB3123:
.LBB3124:
.LBB3125:
	addi 3,1,140
.LVL758:
	bl _ZN5idStr8FreeDataEv
.LVL759:
.L517:
.LBE3125:
.LBE3124:
.LBE3123:
.LBB3126:
.LBB3127:
.LBB3128:
	addi 3,1,108
.LVL760:
	bl _ZN5idStr8FreeDataEv
.LVL761:
	bl _ZSt9terminatev
.LVL762:
.L533:
	b .L517
.LBE3128:
.LBE3127:
.LBE3126:
.LBE3113:
.LBE3112:
.LBE3129:
.LBE3131:
.LBE3133:
.LBE3135:
.LBE3195:
.LBE3201:
	.cfi_endproc
.LFE2834:
	.section	.gcc_except_table
.LLSDA2834:
	.byte	0xff
	.byte	0xff
	.byte	0x1
	.uleb128 .LLSDACSE2834-.LLSDACSB2834
.LLSDACSB2834:
	.uleb128 .LEHB54-.LFB2834
	.uleb128 .LEHE54-.LEHB54
	.uleb128 .L525-.LFB2834
	.uleb128 0
	.uleb128 .LEHB55-.LFB2834
	.uleb128 .LEHE55-.LEHB55
	.uleb128 .L526-.LFB2834
	.uleb128 0
	.uleb128 .LEHB56-.LFB2834
	.uleb128 .LEHE56-.LEHB56
	.uleb128 .L523-.LFB2834
	.uleb128 0
	.uleb128 .LEHB57-.LFB2834
	.uleb128 .LEHE57-.LEHB57
	.uleb128 .L530-.LFB2834
	.uleb128 0
	.uleb128 .LEHB58-.LFB2834
	.uleb128 .LEHE58-.LEHB58
	.uleb128 .L529-.LFB2834
	.uleb128 0
	.uleb128 .LEHB59-.LFB2834
	.uleb128 .LEHE59-.LEHB59
	.uleb128 .L532-.LFB2834
	.uleb128 0
	.uleb128 .LEHB60-.LFB2834
	.uleb128 .LEHE60-.LEHB60
	.uleb128 .L531-.LFB2834
	.uleb128 0
	.uleb128 .LEHB61-.LFB2834
	.uleb128 .LEHE61-.LEHB61
	.uleb128 0
	.uleb128 0
	.uleb128 .LEHB62-.LFB2834
	.uleb128 .LEHE62-.LEHB62
	.uleb128 .L523-.LFB2834
	.uleb128 0
	.uleb128 .LEHB63-.LFB2834
	.uleb128 .LEHE63-.LEHB63
	.uleb128 .L524-.LFB2834
	.uleb128 0
	.uleb128 .LEHB64-.LFB2834
	.uleb128 .LEHE64-.LEHB64
	.uleb128 .L528-.LFB2834
	.uleb128 0
	.uleb128 .LEHB65-.LFB2834
	.uleb128 .LEHE65-.LEHB65
	.uleb128 .L527-.LFB2834
	.uleb128 0
	.uleb128 .LEHB66-.LFB2834
	.uleb128 .LEHE66-.LEHB66
	.uleb128 .L523-.LFB2834
	.uleb128 0
	.uleb128 .LEHB67-.LFB2834
	.uleb128 .LEHE67-.LEHB67
	.uleb128 0
	.uleb128 0
	.uleb128 .LEHB68-.LFB2834
	.uleb128 .LEHE68-.LEHB68
	.uleb128 .L534-.LFB2834
	.uleb128 0
	.uleb128 .LEHB69-.LFB2834
	.uleb128 .LEHE69-.LEHB69
	.uleb128 .L533-.LFB2834
	.uleb128 0
.LLSDACSE2834:
	.section	".text"
	.size	_ZN11idTestModel11TestModel_fERK9idCmdArgs, .-_ZN11idTestModel11TestModel_fERK9idCmdArgs
	.align 2
	.globl _ZN11idTestModel10TestSkin_fERK9idCmdArgs
	.type	_ZN11idTestModel10TestSkin_fERK9idCmdArgs, @function
_ZN11idTestModel10TestSkin_fERK9idCmdArgs:
.LFB2832:
	.loc 2 658 0
	.cfi_startproc
	.cfi_personality 0,__gxx_personality_v0
	.cfi_lsda 0,.LLSDA2832
.LVL763:
	stwu 1,-104(1)
.LCFI98:
	.cfi_def_cfa_offset 104
.LVL764:
	mflr 0
.LBB3277:
.LBB3278:
.LBB3279:
.LBB3280:
	.loc 12 357 0
	li 9,20
.LBE3280:
.LBE3279:
.LBE3278:
.LBB3289:
.LBB3290:
.LBB3291:
	.loc 16 112 0
	li 4,1024
.LBE3291:
.LBE3290:
.LBE3289:
.LBB3338:
.LBB3285:
.LBB3281:
	.loc 12 357 0
	stw 9,16(1)
	.loc 12 358 0
	addi 9,1,20
.LBE3281:
.LBE3285:
.LBE3338:
.LBE3277:
	.loc 2 658 0
	stw 0,108(1)
.LBB3419:
.LBB3339:
.LBB3295:
.LBB3292:
	.loc 16 112 0
	li 5,1024
.LBE3292:
.LBE3295:
.LBE3339:
.LBB3340:
.LBB3286:
.LBB3282:
	.loc 12 356 0
	li 0,0
.LBE3282:
.LBE3286:
.LBE3340:
.LBE3419:
	.loc 2 658 0
	stw 29,92(1)
.LBB3420:
.LBB3341:
.LBB3287:
.LBB3283:
	.loc 12 358 0
	stw 9,12(1)
.LBE3283:
.LBE3287:
.LBE3341:
.LBE3420:
	.loc 2 658 0
	mr 29,3
	.cfi_offset 29, -12
	.cfi_offset 65, 4
.LBB3421:
.LBB3342:
.LBB3296:
.LBB3297:
	.loc 7 159 0
	li 9,16
.LBE3297:
.LBE3296:
.LBB3301:
.LBB3293:
	.loc 16 112 0
	addi 3,1,56
.LVL765:
.LBE3293:
.LBE3301:
.LBE3342:
.LBE3421:
	.loc 2 658 0
	stw 30,96(1)
	stw 31,100(1)
.LBB3422:
.LBB3343:
.LBB3288:
.LBB3284:
	.loc 12 356 0
	stw 0,8(1)
	.loc 12 359 0
	stb 0,20(1)
.LVL766:
.LBE3284:
.LBE3288:
.LBE3343:
.LBB3344:
.LBB3302:
.LBB3300:
	.loc 7 159 0
	stw 9,48(1)
.LVL767:
.LBB3298:
.LBB3299:
	.loc 7 197 0
	stw 0,52(1)
	.loc 7 198 0
	stw 0,40(1)
	.loc 7 199 0
	stw 0,44(1)
.LVL768:
.LEHB70:
.LBE3299:
.LBE3298:
.LBE3300:
.LBE3302:
.LBB3303:
.LBB3294:
	.loc 16 112 0
	.cfi_offset 31, -4
	.cfi_offset 30, -8
	bl _ZN11idHashIndex4InitEii
.LEHE70:
.LVL769:
.LBE3294:
.LBE3303:
.LBB3304:
.LBB3305:
	.loc 7 319 0
	lwz 31,52(1)
	.loc 7 317 0
	li 0,16
	stw 0,48(1)
	.loc 7 319 0
	cmpwi 7,31,0
	beq- 7,.L550
	.loc 7 321 0
	lwz 9,40(1)
	.loc 7 323 0
	lwz 0,44(1)
	.loc 7 321 0
	addi 3,9,15
.LVL770:
	.loc 7 322 0
	srawi 3,3,4
	addze 3,3
.LVL771:
	slwi 3,3,4
.LVL772:
	.loc 7 323 0
	cmpw 7,3,0
	beq- 7,.L550
.LVL773:
.LBB3306:
.LBB3307:
	.loc 7 375 0
	cmpwi 7,3,0
	ble- 7,.L596
.LVL774:
	.loc 7 387 0
	cmpw 7,9,3
	.loc 7 386 0
	stw 3,44(1)
	.loc 7 387 0
	bgt- 7,.L597
.L552:
	.loc 7 392 0
	slwi 3,3,3
.LVL775:
.LEHB71:
	bl _Znaj
.LVL776:
	.loc 7 393 0
	lwz 0,40(1)
	.loc 7 392 0
	stw 3,52(1)
.LVL777:
	.loc 7 393 0
	cmpwi 7,0,0
	ble- 7,.L553
	.loc 2 658 0
	addi 8,31,-8
.LBE3307:
.LBE3306:
.LBE3305:
.LBE3304:
.LBE3344:
.LBE3422:
	.loc 7 393 0
	li 9,0
	b .L554
.LVL778:
.L598:
.LBB3423:
.LBB3345:
.LBB3316:
.LBB3314:
.LBB3312:
.LBB3310:
	lwz 3,52(1)
.LVL779:
.L554:
	.loc 7 394 0
	addi 8,8,8
	slwi 0,9,3
	lwz 10,0(8)
	add 3,3,0
	lwz 11,4(8)
	.loc 7 393 0
	addi 9,9,1
.LVL780:
	.loc 7 394 0
	stw 10,0(3)
	stw 11,4(3)
	.loc 7 393 0
	lwz 0,40(1)
	cmpw 7,9,0
	blt+ 7,.L598
.LVL781:
.L553:
	.loc 7 399 0
	mr 3,31
	bl _ZdaPv
.LVL782:
.L550:
.LBE3310:
.LBE3312:
.LBE3314:
.LBE3316:
.LBB3317:
.LBB3318:
	.loc 16 371 0
	li 0,16
.LBE3318:
.LBE3317:
.LBB3320:
.LBB3321:
	.loc 16 341 0
	addi 3,1,56
.LVL783:
.LBE3321:
.LBE3320:
.LBB3326:
.LBB3319:
	.loc 16 371 0
	stw 0,72(1)
.LVL784:
.LBE3319:
.LBE3326:
.LBB3327:
.LBB3322:
	.loc 16 341 0
	bl _ZN11idHashIndex4FreeEv
.LEHE71:
.LVL785:
.LBE3322:
.LBE3327:
.LBE3345:
	.loc 2 664 0
	lis 30,gameLocal@ha
.LBB3346:
.LBB3328:
.LBB3323:
	.loc 16 342 0
	li 0,128
.LBE3323:
.LBE3328:
.LBE3346:
	.loc 2 664 0
	la 30,gameLocal@l(30)
.LBB3347:
.LBB3329:
.LBB3324:
	.loc 16 342 0
	stw 0,56(1)
.LBE3324:
.LBE3329:
.LBE3347:
	.loc 2 664 0
	mr 3,30
.LBB3348:
.LBB3330:
.LBB3325:
	.loc 16 343 0
	li 0,16
	stw 0,64(1)
	addi 31,1,8
.LEHB72:
.LBE3325:
.LBE3330:
.LBE3348:
	.loc 2 664 0
	bl _ZNK11idGameLocal14GetLocalPlayerEv
.LVL786:
	.loc 2 665 0
	cmpwi 7,3,0
	beq- 7,.L563
	.loc 2 665 0 is_stmt 0 discriminator 2
	mr 3,30
.LVL787:
	li 4,1
	addi 31,1,8
	bl _ZN11idGameLocal8CheatsOkEb
	cmpwi 7,3,0
	beq- 7,.L563
	.loc 2 670 0 is_stmt 1
	addis 30,30,0x25
	lwz 0,1376(30)
	cmpwi 7,0,0
	beq- 7,.L599
	.loc 2 675 0
	lwz 0,0(29)
	cmpwi 7,0,1
	ble- 7,.L600
.LVL788:
	.loc 2 681 0
	addi 31,1,8
	lwz 4,8(29)
	mr 3,31
	bl _ZN5idStraSEPKc
	.loc 2 682 0
	lis 9,declManager@ha
	lwz 4,12(1)
	lwz 3,declManager@l(9)
.LVL789:
	li 5,1
	lwz 30,1376(30)
	lwz 9,0(3)
	lwz 0,108(9)
	mtctr 0
	bctrl
	mr 4,3
	mr 3,30
	bl _ZN8idEntity7SetSkinEPK10idDeclSkin
.LEHE72:
.LVL790:
.LBB3349:
.LBB3350:
.LBB3351:
	addi 30,1,40
	.loc 15 174 0
	mr 3,30
.LEHB73:
	bl _ZN6idDict5ClearEv
.LEHE73:
.LVL791:
.LBB3352:
.LBB3353:
.LBB3354:
	.loc 16 130 0
	addi 3,1,56
.LVL792:
.LEHB74:
	bl _ZN11idHashIndex4FreeEv
.LEHE74:
.LVL793:
.LBE3354:
.LBE3353:
.LBE3352:
.LBB3355:
.LBB3356:
.LBB3357:
.LBB3358:
	.loc 7 193 0
	lwz 3,52(1)
	cmpwi 7,3,0
	beq- 7,.L566
	.loc 7 194 0
	bl _ZdaPv
.L566:
	.loc 7 197 0
	li 0,0
.LBE3358:
.LBE3357:
.LBE3356:
.LBE3355:
.LBE3351:
.LBE3350:
.LBE3349:
.LBB3373:
.LBB3374:
.LBB3375:
	.loc 12 501 0
	mr 3,31
.LBE3375:
.LBE3374:
.LBE3373:
.LBB3378:
.LBB3371:
.LBB3369:
.LBB3362:
.LBB3361:
.LBB3360:
.LBB3359:
	.loc 7 197 0
	stw 0,52(1)
	.loc 7 198 0
	stw 0,40(1)
	.loc 7 199 0
	stw 0,44(1)
.LVL794:
.LEHB75:
.LBE3359:
.LBE3360:
.LBE3361:
.LBE3362:
.LBE3369:
.LBE3371:
.LBE3378:
.LBB3379:
.LBB3377:
.LBB3376:
	.loc 12 501 0
	bl _ZN5idStr8FreeDataEv
.LEHE75:
.LBE3376:
.LBE3377:
.LBE3379:
.LBE3423:
	.loc 2 683 0
	lwz 0,108(1)
	lwz 29,92(1)
.LVL795:
	mtlr 0
	lwz 30,96(1)
	lwz 31,100(1)
	addi 1,1,104
	.cfi_remember_state
	.cfi_restore 29
	.cfi_restore 30
	.cfi_restore 31
.LCFI99:
	.cfi_def_cfa_offset 0
	blr
.LVL796:
.L600:
.LCFI100:
	.cfi_restore_state
.LBB3424:
	.loc 2 676 0
	lis 9,common@ha
	lis 4,.LC63@ha
	lwz 3,common@l(9)
	la 4,.LC63@l(4)
	addi 31,1,8
	lwz 9,0(3)
	lwz 0,68(9)
	mtctr 0
.LEHB76:
	crxor 6,6,6
	bctrl
	.loc 2 677 0
	lwz 3,1376(30)
	li 4,0
	addi 31,1,8
	bl _ZN8idEntity7SetSkinEPK10idDeclSkin
.LEHE76:
.L563:
.LVL797:
.LBB3380:
.LBB3381:
.LBB3382:
	.loc 2 682 0
	addi 30,1,40
	.loc 15 174 0
	mr 3,30
.LEHB77:
	bl _ZN6idDict5ClearEv
.LEHE77:
.LVL798:
.LBB3383:
.LBB3384:
.LBB3385:
	.loc 16 130 0
	addi 3,1,56
.LVL799:
.LEHB78:
	bl _ZN11idHashIndex4FreeEv
.LEHE78:
.LVL800:
.LBE3385:
.LBE3384:
.LBE3383:
.LBB3386:
.LBB3387:
.LBB3388:
.LBB3389:
	.loc 7 193 0
	lwz 3,52(1)
	cmpwi 7,3,0
	beq- 7,.L573
	.loc 7 194 0
	bl _ZdaPv
.L573:
	.loc 7 197 0
	li 0,0
.LBE3389:
.LBE3388:
.LBE3387:
.LBE3386:
.LBE3382:
.LBE3381:
.LBE3380:
.LBB3404:
.LBB3405:
.LBB3406:
	.loc 12 501 0
	addi 3,1,8
.LBE3406:
.LBE3405:
.LBE3404:
.LBB3409:
.LBB3402:
.LBB3400:
.LBB3393:
.LBB3392:
.LBB3391:
.LBB3390:
	.loc 7 197 0
	stw 0,52(1)
	.loc 7 198 0
	stw 0,40(1)
	.loc 7 199 0
	stw 0,44(1)
.LVL801:
.LEHB79:
.LBE3390:
.LBE3391:
.LBE3392:
.LBE3393:
.LBE3400:
.LBE3402:
.LBE3409:
.LBB3410:
.LBB3408:
.LBB3407:
	.loc 12 501 0
	bl _ZN5idStr8FreeDataEv
.LEHE79:
.LBE3407:
.LBE3408:
.LBE3410:
.LBE3424:
	.loc 2 683 0
	lwz 0,108(1)
	lwz 29,92(1)
.LVL802:
	mtlr 0
	lwz 30,96(1)
	lwz 31,100(1)
	addi 1,1,104
	.cfi_remember_state
.LCFI101:
	.cfi_def_cfa_offset 0
	.cfi_restore 31
	.cfi_restore 30
	.cfi_restore 29
	blr
.LVL803:
.L597:
.LCFI102:
	.cfi_restore_state
.LBB3425:
.LBB3411:
.LBB3331:
.LBB3315:
.LBB3313:
.LBB3311:
	.loc 7 388 0
	stw 3,40(1)
	b .L552
.LVL804:
.L596:
.LBB3308:
.LBB3309:
	.loc 7 194 0
	mr 3,31
.LVL805:
	bl _ZdaPv
	.loc 7 197 0
	li 0,0
	stw 0,52(1)
	.loc 7 198 0
	stw 0,40(1)
	.loc 7 199 0
	stw 0,44(1)
	b .L550
.LVL806:
.L599:
.LBE3309:
.LBE3308:
.LBE3311:
.LBE3313:
.LBE3315:
.LBE3331:
.LBE3411:
	.loc 2 671 0
	lis 9,common@ha
	lis 4,.LC52@ha
	lwz 3,common@l(9)
	la 4,.LC52@l(4)
	addi 31,1,8
	lwz 9,0(3)
	lwz 0,68(9)
	mtctr 0
.LEHB80:
	crxor 6,6,6
	bctrl
.LEHE80:
	b .L563
.L587:
	mr 30,3
	.loc 2 682 0
	addi 3,1,40
	bl _ZN6idDictD1Ev
.LVL807:
.L560:
.LBB3412:
.LBB3413:
.LBB3414:
	.loc 12 501 0
	mr 3,31
	bl _ZN5idStr8FreeDataEv
	mr 3,30
.LEHB81:
	bl _Unwind_Resume
.LEHE81:
.LVL808:
.L588:
	mr 30,3
.L558:
.LVL809:
.LBE3414:
.LBE3413:
.LBE3412:
.LBB3415:
.LBB3332:
.LBB3333:
.LBB3334:
	.loc 7 181 0
	addi 3,1,40
	addi 31,1,8
	bl _ZN6idListI10idKeyValueE5ClearEv
	b .L560
.LVL810:
.L593:
	mr 29,3
.LVL811:
.LBE3334:
.LBE3333:
.LBE3332:
.LBE3415:
.LBB3416:
.LBB3403:
.LBB3401:
.LBB3394:
.LBB3395:
.LBB3396:
	.loc 16 130 0
	addi 3,1,56
.LVL812:
	bl _ZN11idHashIndex4FreeEv
.LVL813:
.L577:
.LBE3396:
.LBE3395:
.LBE3394:
.LBB3397:
.LBB3398:
.LBB3399:
	.loc 7 181 0
	mr 3,30
	addi 31,1,8
	bl _ZN6idListI10idKeyValueE5ClearEv
	mr 30,29
	b .L560
.LVL814:
.L592:
	mr 29,3
.LVL815:
	b .L577
.LVL816:
.L591:
	mr 29,3
.LVL817:
.LBE3399:
.LBE3398:
.LBE3397:
.LBE3401:
.LBE3403:
.LBE3416:
.LBB3417:
.LBB3372:
.LBB3370:
.LBB3363:
.LBB3364:
.LBB3365:
	.loc 16 130 0
	addi 3,1,56
.LVL818:
	bl _ZN11idHashIndex4FreeEv
.LVL819:
.L570:
.LBE3365:
.LBE3364:
.LBE3363:
.LBB3366:
.LBB3367:
.LBB3368:
	.loc 7 181 0
	mr 3,30
	mr 30,29
	bl _ZN6idListI10idKeyValueE5ClearEv
	b .L560
.LVL820:
.L590:
	mr 29,3
.LVL821:
	b .L570
.LVL822:
.L589:
	mr 30,3
.LVL823:
.LBE3368:
.LBE3367:
.LBE3366:
.LBE3370:
.LBE3372:
.LBE3417:
.LBB3418:
.LBB3335:
.LBB3336:
.LBB3337:
	.loc 16 130 0
	addi 3,1,56
.LVL824:
	bl _ZN11idHashIndex4FreeEv
.LVL825:
	b .L558
.LBE3337:
.LBE3336:
.LBE3335:
.LBE3418:
.LBE3425:
	.cfi_endproc
.LFE2832:
	.section	.gcc_except_table
.LLSDA2832:
	.byte	0xff
	.byte	0xff
	.byte	0x1
	.uleb128 .LLSDACSE2832-.LLSDACSB2832
.LLSDACSB2832:
	.uleb128 .LEHB70-.LFB2832
	.uleb128 .LEHE70-.LEHB70
	.uleb128 .L588-.LFB2832
	.uleb128 0
	.uleb128 .LEHB71-.LFB2832
	.uleb128 .LEHE71-.LEHB71
	.uleb128 .L589-.LFB2832
	.uleb128 0
	.uleb128 .LEHB72-.LFB2832
	.uleb128 .LEHE72-.LEHB72
	.uleb128 .L587-.LFB2832
	.uleb128 0
	.uleb128 .LEHB73-.LFB2832
	.uleb128 .LEHE73-.LEHB73
	.uleb128 .L591-.LFB2832
	.uleb128 0
	.uleb128 .LEHB74-.LFB2832
	.uleb128 .LEHE74-.LEHB74
	.uleb128 .L590-.LFB2832
	.uleb128 0
	.uleb128 .LEHB75-.LFB2832
	.uleb128 .LEHE75-.LEHB75
	.uleb128 0
	.uleb128 0
	.uleb128 .LEHB76-.LFB2832
	.uleb128 .LEHE76-.LEHB76
	.uleb128 .L587-.LFB2832
	.uleb128 0
	.uleb128 .LEHB77-.LFB2832
	.uleb128 .LEHE77-.LEHB77
	.uleb128 .L593-.LFB2832
	.uleb128 0
	.uleb128 .LEHB78-.LFB2832
	.uleb128 .LEHE78-.LEHB78
	.uleb128 .L592-.LFB2832
	.uleb128 0
	.uleb128 .LEHB79-.LFB2832
	.uleb128 .LEHE79-.LEHB79
	.uleb128 0
	.uleb128 0
	.uleb128 .LEHB80-.LFB2832
	.uleb128 .LEHE80-.LEHB80
	.uleb128 .L587-.LFB2832
	.uleb128 0
	.uleb128 .LEHB81-.LFB2832
	.uleb128 .LEHE81-.LEHB81
	.uleb128 0
	.uleb128 0
.LLSDACSE2832:
	.section	".text"
	.size	_ZN11idTestModel10TestSkin_fERK9idCmdArgs, .-_ZN11idTestModel10TestSkin_fERK9idCmdArgs
	.section	.text._ZN6idListI12copyJoints_tE5ClearEv,"axG",@progbits,_ZN6idListI12copyJoints_tE5ClearEv,comdat
	.align 2
	.weak	_ZN6idListI12copyJoints_tE5ClearEv
	.type	_ZN6idListI12copyJoints_tE5ClearEv, @function
_ZN6idListI12copyJoints_tE5ClearEv:
.LFB3116:
	.loc 7 192 0
	.cfi_startproc
.LVL826:
	mflr 0
	stwu 1,-16(1)
.LCFI103:
	.cfi_def_cfa_offset 16
	.cfi_register 65, 0
	stw 31,12(1)
	mr 31,3
	.cfi_offset 31, -4
	stw 0,20(1)
	.loc 7 193 0
	lwz 3,12(3)
.LVL827:
	cmpwi 7,3,0
	beq- 7,.L602
	.cfi_offset 65, 4
	.loc 7 194 0 discriminator 1
	bl _ZdaPv
.L602:
	.loc 7 197 0
	li 0,0
	stw 0,12(31)
	.loc 7 198 0
	stw 0,0(31)
	.loc 7 199 0
	stw 0,4(31)
	.loc 7 200 0
	lwz 0,20(1)
	lwz 31,12(1)
.LVL828:
	mtlr 0
	addi 1,1,16
.LCFI104:
	.cfi_def_cfa_offset 0
	.cfi_restore 31
	blr
	.cfi_endproc
.LFE3116:
	.size	_ZN6idListI12copyJoints_tE5ClearEv, .-_ZN6idListI12copyJoints_tE5ClearEv
	.section	".text"
	.align 2
	.globl _ZN11idTestModelD2Ev
	.type	_ZN11idTestModelD2Ev, @function
_ZN11idTestModelD2Ev:
.LFB2819:
	.loc 2 209 0
	.cfi_startproc
	.cfi_personality 0,__gxx_personality_v0
	.cfi_lsda 0,.LLSDA2819
.LVL829:
	mflr 0
	stwu 1,-16(1)
.LCFI105:
	.cfi_def_cfa_offset 16
	.cfi_register 65, 0
.LBB3447:
	lis 9,_ZTV11idTestModel+8@ha
	.loc 2 210 0
	li 4,0
.LBE3447:
	.loc 2 209 0
	stw 31,12(1)
.LBB3476:
	.loc 2 210 0
	li 5,0
.LBE3476:
	.loc 2 209 0
	stw 0,20(1)
.LBB3477:
	la 0,_ZTV11idTestModel+8@l(9)
	.cfi_offset 65, 4
	.cfi_offset 31, -4
.LBE3477:
	stw 30,8(1)
	.loc 2 209 0
	mr 31,3
.LBB3478:
	stw 0,0(3)
.LEHB82:
	.loc 2 210 0
	.cfi_offset 30, -8
	bl _ZN8idEntity9StopSoundEib
.LVL830:
	.loc 2 211 0
	lwz 3,196(31)
	cmpwi 7,3,0
	beq- 7,.L604
	.loc 2 212 0
	lwz 9,0(3)
	lwz 0,60(9)
	mtctr 0
	bctrl
	lis 30,gameLocal@ha
	lis 4,.LC64@ha
	la 30,gameLocal@l(30)
	mr 5,3
	la 4,.LC64@l(4)
	mr 3,30
	crxor 6,6,6
	bl _ZNK11idGameLocal6PrintfEPKcz
.LEHE82:
.L605:
	.loc 2 216 0
	addis 9,30,0x25
	lwz 0,1376(9)
	cmpw 7,0,31
	beq- 7,.L624
.L606:
.LVL831:
.LBB3448:
.LBB3449:
	.loc 3 634 0
	lwz 0,1624(31)
	rlwinm 9,0,0,20,31
.LVL832:
	.loc 3 635 0
	srawi 0,0,12
	addi 11,9,4228
	slwi 11,11,2
	add 11,30,11
	lwz 11,4(11)
	cmpw 7,11,0
	beq- 7,.L625
.LVL833:
.L607:
.LBE3449:
.LBE3448:
.LBB3451:
.LBB3452:
.LBB3453:
.LBB3454:
	.loc 7 193 0
	lwz 3,2996(31)
	cmpwi 7,3,0
	beq- 7,.L609
	.loc 7 194 0
	bl _ZdaPv
.L609:
	.loc 7 197 0
	li 0,0
.LBE3454:
.LBE3453:
.LBE3452:
.LBE3451:
.LBB3458:
.LBB3459:
.LBB3460:
	.loc 12 501 0
	addi 3,31,2928
.LBE3460:
.LBE3459:
.LBE3458:
.LBB3463:
.LBB3457:
.LBB3456:
.LBB3455:
	.loc 7 197 0
	stw 0,2996(31)
	.loc 7 198 0
	stw 0,2984(31)
	.loc 7 199 0
	stw 0,2988(31)
.LVL834:
.LEHB83:
.LBE3455:
.LBE3456:
.LBE3457:
.LBE3463:
.LBB3464:
.LBB3462:
.LBB3461:
	.loc 12 501 0
	bl _ZN5idStr8FreeDataEv
.LEHE83:
.LVL835:
.LBE3461:
.LBE3462:
.LBE3464:
	.loc 2 209 0 discriminator 2
	addi 3,31,1752
.LEHB84:
	bl _ZN20idPhysics_ParametricD1Ev
.LEHE84:
	.loc 2 209 0 is_stmt 0 discriminator 3
	addi 3,31,1632
.LEHB85:
	bl _ZN6idAnimD1Ev
.LEHE85:
	.loc 2 209 0 discriminator 4
	mr 3,31
.LEHB86:
	bl _ZN16idAnimatedEntityD2Ev
.LEHE86:
.LBE3478:
	.loc 2 223 0 is_stmt 1 discriminator 4
	lwz 0,20(1)
	lwz 30,8(1)
	mtlr 0
	lwz 31,12(1)
.LVL836:
	addi 1,1,16
	.cfi_remember_state
.LCFI106:
	.cfi_def_cfa_offset 0
	.cfi_restore 31
	.cfi_restore 30
	blr
.LVL837:
.L625:
.LCFI107:
	.cfi_restore_state
.LBB3479:
.LBB3465:
.LBB3450:
	.loc 3 636 0
	addi 9,9,132
.LVL838:
	slwi 9,9,2
.LVL839:
	add 9,30,9
	lwz 3,4(9)
.LBE3450:
.LBE3465:
	.loc 2 219 0
	cmpwi 7,3,0
	beq- 7,.L607
.LVL840:
	.loc 2 220 0
	li 4,0
	li 5,0
.LEHB87:
	bl _ZN8idEntity9StopSoundEib
.LVL841:
.LBB3466:
.LBB3467:
	.loc 3 634 0
	lwz 0,1624(31)
	.loc 3 638 0
	li 3,0
	.loc 3 634 0
	rlwinm 9,0,0,20,31
.LVL842:
	.loc 3 635 0
	srawi 0,0,12
	addi 11,9,4228
	slwi 11,11,2
	add 11,30,11
	lwz 11,4(11)
	cmpw 7,11,0
	beq- 7,.L626
.LVL843:
.L608:
.LBE3467:
.LBE3466:
	.loc 2 221 0
	lis 4,EV_Remove@ha
	li 5,0
	la 4,EV_Remove@l(4)
	bl _ZN7idClass11PostEventMSEPK10idEventDefi
	b .L607
.LVL844:
.L626:
.LBB3469:
.LBB3468:
	.loc 3 636 0
	addi 9,9,132
.LVL845:
	slwi 9,9,2
.LVL846:
	add 30,30,9
	lwz 3,4(30)
	b .L608
.LVL847:
.L624:
.LBE3468:
.LBE3469:
	.loc 2 217 0
	li 0,0
	stw 0,1376(9)
	b .L606
.L604:
	.loc 2 214 0
	lis 30,gameLocal@ha
	lis 4,.LC65@ha
	la 30,gameLocal@l(30)
	la 4,.LC65@l(4)
	mr 3,30
	crxor 6,6,6
	bl _ZNK11idGameLocal6PrintfEPKcz
.LEHE87:
	b .L605
.LVL848:
.L621:
	mr 30,3
.LVL849:
.L616:
	.loc 2 209 0
	addi 3,31,1752
	bl _ZN20idPhysics_ParametricD1Ev
.L617:
	addi 3,31,1632
	bl _ZN6idAnimD1Ev
.L618:
	mr 3,31
	bl _ZN16idAnimatedEntityD2Ev
	mr 3,30
.LEHB88:
	bl _Unwind_Resume
.LEHE88:
.LVL850:
.L623:
	mr 30,3
	b .L618
.L622:
	mr 30,3
	b .L617
.LVL851:
.L620:
	mr 30,3
.LVL852:
.LBB3470:
.LBB3471:
.LBB3472:
	.loc 7 181 0
	addi 3,31,2984
	bl _ZN6idListI12copyJoints_tE5ClearEv
.LVL853:
.LBE3472:
.LBE3471:
.LBE3470:
.LBB3473:
.LBB3474:
.LBB3475:
	.loc 12 501 0
	addi 3,31,2928
	bl _ZN5idStr8FreeDataEv
	b .L616
.LBE3475:
.LBE3474:
.LBE3473:
.LBE3479:
	.cfi_endproc
.LFE2819:
	.section	.gcc_except_table
.LLSDA2819:
	.byte	0xff
	.byte	0xff
	.byte	0x1
	.uleb128 .LLSDACSE2819-.LLSDACSB2819
.LLSDACSB2819:
	.uleb128 .LEHB82-.LFB2819
	.uleb128 .LEHE82-.LEHB82
	.uleb128 .L620-.LFB2819
	.uleb128 0
	.uleb128 .LEHB83-.LFB2819
	.uleb128 .LEHE83-.LEHB83
	.uleb128 .L621-.LFB2819
	.uleb128 0
	.uleb128 .LEHB84-.LFB2819
	.uleb128 .LEHE84-.LEHB84
	.uleb128 .L622-.LFB2819
	.uleb128 0
	.uleb128 .LEHB85-.LFB2819
	.uleb128 .LEHE85-.LEHB85
	.uleb128 .L623-.LFB2819
	.uleb128 0
	.uleb128 .LEHB86-.LFB2819
	.uleb128 .LEHE86-.LEHB86
	.uleb128 0
	.uleb128 0
	.uleb128 .LEHB87-.LFB2819
	.uleb128 .LEHE87-.LEHB87
	.uleb128 .L620-.LFB2819
	.uleb128 0
	.uleb128 .LEHB88-.LFB2819
	.uleb128 .LEHE88-.LEHB88
	.uleb128 0
	.uleb128 0
.LLSDACSE2819:
	.section	".text"
	.size	_ZN11idTestModelD2Ev, .-_ZN11idTestModelD2Ev
	.align 2
	.globl _ZN11idTestModelD0Ev
	.type	_ZN11idTestModelD0Ev, @function
_ZN11idTestModelD0Ev:
.LFB2821:
	.loc 2 209 0
	.cfi_startproc
.LVL854:
	stwu 1,-16(1)
.LCFI108:
	.cfi_def_cfa_offset 16
	mflr 0
	stw 31,12(1)
	mr 31,3
	.cfi_offset 31, -4
	.cfi_register 65, 0
	stw 0,20(1)
	.loc 2 223 0
	.cfi_offset 65, 4
	bl _ZN11idTestModelD1Ev
.LVL855:
	mr 3,31
	bl _ZN7idClassdlEPv
	lwz 0,20(1)
	lwz 31,12(1)
.LVL856:
	mtlr 0
	addi 1,1,16
.LCFI109:
	.cfi_def_cfa_offset 0
	.cfi_restore 31
	blr
	.cfi_endproc
.LFE2821:
	.size	_ZN11idTestModelD0Ev, .-_ZN11idTestModelD0Ev
	.align 2
	.globl _ZN11idTestModelC2Ev
	.type	_ZN11idTestModelC2Ev, @function
_ZN11idTestModelC2Ev:
.LFB2813:
	.loc 2 66 0
	.cfi_startproc
	.cfi_personality 0,__gxx_personality_v0
	.cfi_lsda 0,.LLSDA2813
.LVL857:
	mflr 0
	stwu 1,-24(1)
.LCFI110:
	.cfi_def_cfa_offset 24
	.cfi_register 65, 0
	stw 30,16(1)
	stw 0,28(1)
	stw 31,20(1)
	mr 31,3
	.cfi_offset 31, -4
	.cfi_offset 65, 4
	.cfi_offset 30, -8
	stw 28,8(1)
.LBB3498:
	addi 30,31,1632
.LBE3498:
	stw 29,12(1)
.LEHB89:
.LBB3527:
	.loc 2 66 0
	.cfi_offset 29, -12
	.cfi_offset 28, -16
	bl _ZN16idAnimatedEntityC2Ev
.LEHE89:
.LVL858:
	lis 9,_ZTV11idTestModel+8@ha
	mr 3,30
	la 0,_ZTV11idTestModel+8@l(9)
	stw 0,0(31)
.LVL859:
.LBB3499:
.LBB3500:
	.loc 3 590 0
	li 0,0
	stw 0,1624(31)
.LEHB90:
.LBE3500:
.LBE3499:
	.loc 2 66 0
	bl _ZN6idAnimC1Ev
.LEHE90:
	.loc 2 66 0 is_stmt 0 discriminator 1
	addi 29,31,1752
	mr 3,29
.LEHB91:
	bl _ZN20idPhysics_ParametricC1Ev
.LEHE91:
.LVL860:
.LBB3501:
.LBB3502:
.LBB3503:
	.loc 12 358 0 is_stmt 1 discriminator 2
	addi 9,31,2940
	.loc 12 356 0 discriminator 2
	li 0,0
	.loc 12 357 0 discriminator 2
	li 11,20
	.loc 12 358 0 discriminator 2
	stw 9,2932(31)
.LBE3503:
.LBE3502:
.LBE3501:
.LBB3510:
.LBB3511:
	.loc 7 159 0 discriminator 2
	li 9,16
.LBE3511:
.LBE3510:
	.loc 2 68 0 discriminator 2
	lis 3,.LC66@ha
.LBB3515:
.LBB3507:
.LBB3504:
	.loc 12 356 0 discriminator 2
	stw 0,2928(31)
.LBE3504:
.LBE3507:
.LBE3515:
	.loc 2 68 0 discriminator 2
	la 3,.LC66@l(3)
.LBB3516:
.LBB3508:
.LBB3505:
	.loc 12 357 0 discriminator 2
	stw 11,2936(31)
.LBE3505:
.LBE3508:
.LBE3516:
	.loc 2 68 0 discriminator 2
	li 4,3000
.LBB3517:
.LBB3509:
.LBB3506:
	.loc 12 359 0 discriminator 2
	stb 0,2940(31)
.LVL861:
.LBE3506:
.LBE3509:
.LBE3517:
.LBB3518:
.LBB3514:
	.loc 7 159 0 discriminator 2
	stw 9,2992(31)
.LVL862:
.LBB3512:
.LBB3513:
	.loc 7 197 0 discriminator 2
	stw 0,2996(31)
	.loc 7 198 0 discriminator 2
	stw 0,2984(31)
	.loc 7 199 0 discriminator 2
	stw 0,2988(31)
.LEHB92:
.LBE3513:
.LBE3512:
.LBE3514:
.LBE3518:
	.loc 2 68 0 discriminator 2
	crxor 6,6,6
	bl _Z15Sys_DebugPrintfPKcz
.LEHE92:
.LVL863:
.LBB3519:
.LBB3520:
	.loc 3 606 0
	li 0,0
	stw 0,1624(31)
.LBE3520:
.LBE3519:
	.loc 2 72 0
	stw 0,1628(31)
	.loc 2 73 0
	stw 0,2960(31)
	.loc 2 74 0
	stw 0,2964(31)
	.loc 2 75 0
	stw 0,2976(31)
	.loc 2 76 0
	stw 0,2980(31)
	.loc 2 77 0
	stw 0,2968(31)
	.loc 2 78 0
	stw 0,2972(31)
.LBE3527:
	.loc 2 79 0
	lwz 0,28(1)
	lwz 28,8(1)
	mtlr 0
	lwz 29,12(1)
	lwz 30,16(1)
	lwz 31,20(1)
.LVL864:
	addi 1,1,24
	.cfi_remember_state
.LCFI111:
	.cfi_def_cfa_offset 0
	.cfi_restore 31
	.cfi_restore 30
	.cfi_restore 29
	.cfi_restore 28
	blr
.LVL865:
.L635:
.LCFI112:
	.cfi_restore_state
	mr 30,3
.L634:
.LBB3528:
	.loc 2 66 0
	mr 3,31
	bl _ZN16idAnimatedEntityD2Ev
	mr 3,30
.LEHB93:
	bl _Unwind_Resume
.LEHE93:
.LVL866:
.L637:
	mr 28,3
.LVL867:
.LBB3521:
.LBB3522:
.LBB3523:
	.loc 7 181 0
	addi 3,31,2984
	bl _ZN6idListI12copyJoints_tE5ClearEv
.LVL868:
.LBE3523:
.LBE3522:
.LBE3521:
.LBB3524:
.LBB3525:
.LBB3526:
	.loc 12 501 0
	addi 3,31,2928
	bl _ZN5idStr8FreeDataEv
.LBE3526:
.LBE3525:
.LBE3524:
	.loc 2 66 0
	mr 3,29
	bl _ZN20idPhysics_ParametricD1Ev
	mr 29,28
.LVL869:
.L633:
	mr 3,30
	mr 30,29
	bl _ZN6idAnimD1Ev
	b .L634
.L636:
	mr 29,3
	b .L633
.LBE3528:
	.cfi_endproc
.LFE2813:
	.section	.gcc_except_table
.LLSDA2813:
	.byte	0xff
	.byte	0xff
	.byte	0x1
	.uleb128 .LLSDACSE2813-.LLSDACSB2813
.LLSDACSB2813:
	.uleb128 .LEHB89-.LFB2813
	.uleb128 .LEHE89-.LEHB89
	.uleb128 0
	.uleb128 0
	.uleb128 .LEHB90-.LFB2813
	.uleb128 .LEHE90-.LEHB90
	.uleb128 .L635-.LFB2813
	.uleb128 0
	.uleb128 .LEHB91-.LFB2813
	.uleb128 .LEHE91-.LEHB91
	.uleb128 .L636-.LFB2813
	.uleb128 0
	.uleb128 .LEHB92-.LFB2813
	.uleb128 .LEHE92-.LEHB92
	.uleb128 .L637-.LFB2813
	.uleb128 0
	.uleb128 .LEHB93-.LFB2813
	.uleb128 .LEHE93-.LEHB93
	.uleb128 0
	.uleb128 0
.LLSDACSE2813:
	.section	".text"
	.size	_ZN11idTestModelC2Ev, .-_ZN11idTestModelC2Ev
	.align 2
	.globl _ZN11idTestModel14CreateInstanceEv
	.type	_ZN11idTestModel14CreateInstanceEv, @function
_ZN11idTestModel14CreateInstanceEv:
.LFB2810:
	.loc 2 56 0
	.cfi_startproc
	.cfi_personality 0,__gxx_personality_v0
	.cfi_lsda 0,.LLSDA2810
	mflr 0
	stwu 1,-24(1)
.LCFI113:
	.cfi_def_cfa_offset 24
	.cfi_register 65, 0
.LBB3529:
	li 3,3000
.LBE3529:
	stw 30,16(1)
	stw 0,28(1)
	stw 31,20(1)
.LEHB94:
.LBB3530:
	.loc 2 56 0
	.cfi_offset 31, -4
	.cfi_offset 65, 4
	.cfi_offset 30, -8
	bl _ZN7idClassnwEj
.LEHE94:
	mr 31,3
.LEHB95:
	bl _ZN11idTestModelC1Ev
.LEHE95:
.LVL870:
	.loc 2 56 0 is_stmt 0 discriminator 2
	mr 3,31
.LEHB96:
	bl _ZN7idClass23FindUninitializedMemoryEv
.LEHE96:
.LVL871:
.L643:
.LBE3530:
	.loc 2 56 0
	lwz 0,28(1)
	mr 3,31
	lwz 30,16(1)
	mtlr 0
	lwz 31,20(1)
	addi 1,1,24
	.cfi_remember_state
.LCFI114:
	.cfi_def_cfa_offset 0
	.cfi_restore 31
	.cfi_restore 30
	blr
.L644:
.L640:
.LCFI115:
	.cfi_restore_state
.LBB3531:
	cmpwi 7,4,1
	beq- 7,.L642
.LEHB97:
	bl _Unwind_Resume
.LEHE97:
.L645:
	mr 30,3
	mr 3,31
	stw 4,8(1)
	bl _ZN7idClassdlEPv
	mr 3,30
	lwz 4,8(1)
	b .L640
.L642:
.LBE3531:
.LBB3532:
	bl __cxa_begin_catch
	li 31,0
	bl __cxa_end_catch
	b .L643
.LBE3532:
	.cfi_endproc
.LFE2810:
	.section	.gcc_except_table
	.align 2
.LLSDA2810:
	.byte	0xff
	.byte	0
	.uleb128 .LLSDATT2810-.LLSDATTD2810
.LLSDATTD2810:
	.byte	0x1
	.uleb128 .LLSDACSE2810-.LLSDACSB2810
.LLSDACSB2810:
	.uleb128 .LEHB94-.LFB2810
	.uleb128 .LEHE94-.LEHB94
	.uleb128 .L644-.LFB2810
	.uleb128 0x1
	.uleb128 .LEHB95-.LFB2810
	.uleb128 .LEHE95-.LEHB95
	.uleb128 .L645-.LFB2810
	.uleb128 0x3
	.uleb128 .LEHB96-.LFB2810
	.uleb128 .LEHE96-.LEHB96
	.uleb128 .L644-.LFB2810
	.uleb128 0x1
	.uleb128 .LEHB97-.LFB2810
	.uleb128 .LEHE97-.LEHB97
	.uleb128 0
	.uleb128 0
.LLSDACSE2810:
	.byte	0x1
	.byte	0
	.byte	0
	.byte	0x7d
	.align 2
	.long	_ZTI12idAllocError
.LLSDATT2810:
	.section	".text"
	.size	_ZN11idTestModel14CreateInstanceEv, .-_ZN11idTestModel14CreateInstanceEv
	.section	.text.startup,"ax",@progbits
	.align 2
	.type	_GLOBAL__sub_I__ZN11idTestModel4TypeE, @function
_GLOBAL__sub_I__ZN11idTestModel4TypeE:
.LFB3144:
	.loc 2 928 0 is_stmt 1
	.cfi_startproc
	.loc 2 928 0
	li 3,1
	b _Z41__static_initialization_and_destruction_0ii.constprop.27
	.cfi_endproc
.LFE3144:
	.size	_GLOBAL__sub_I__ZN11idTestModel4TypeE, .-_GLOBAL__sub_I__ZN11idTestModel4TypeE
	.section	.ctors,"aw",@progbits
	.align 2
	.long	_GLOBAL__sub_I__ZN11idTestModel4TypeE
	.section	.text.exit,"ax",@progbits
	.align 2
	.type	_GLOBAL__sub_D__ZN11idTestModel4TypeE, @function
_GLOBAL__sub_D__ZN11idTestModel4TypeE:
.LFB3145:
	.loc 2 928 0
	.cfi_startproc
	.loc 2 928 0
	li 3,0
	b _Z41__static_initialization_and_destruction_0ii.constprop.27
	.cfi_endproc
.LFE3145:
	.size	_GLOBAL__sub_D__ZN11idTestModel4TypeE, .-_GLOBAL__sub_D__ZN11idTestModel4TypeE
	.section	.dtors,"aw",@progbits
	.align 2
	.long	_GLOBAL__sub_D__ZN11idTestModel4TypeE
	.weak	_ZTS9idWinding
	.section	.rodata._ZTS9idWinding,"aG",@progbits,_ZTS9idWinding,comdat
	.align 2
	.type	_ZTS9idWinding, @object
	.size	_ZTS9idWinding, 11
_ZTS9idWinding:
	.string	"9idWinding"
	.weak	_ZTI9idWinding
	.section	.sdata._ZTI9idWinding,"awG",@progbits,_ZTI9idWinding,comdat
	.align 2
	.type	_ZTI9idWinding, @object
	.size	_ZTI9idWinding, 8
_ZTI9idWinding:
	.long	_ZTVN10__cxxabiv117__class_type_infoE+8
	.long	_ZTS9idWinding
	.weak	_ZTS14idFixedWinding
	.section	.rodata._ZTS14idFixedWinding,"aG",@progbits,_ZTS14idFixedWinding,comdat
	.align 2
	.type	_ZTS14idFixedWinding, @object
	.size	_ZTS14idFixedWinding, 17
_ZTS14idFixedWinding:
	.string	"14idFixedWinding"
	.weak	_ZTI14idFixedWinding
	.section	.rodata._ZTI14idFixedWinding,"aG",@progbits,_ZTI14idFixedWinding,comdat
	.align 2
	.type	_ZTI14idFixedWinding, @object
	.size	_ZTI14idFixedWinding, 12
_ZTI14idFixedWinding:
	.long	_ZTVN10__cxxabiv120__si_class_type_infoE+8
	.long	_ZTS14idFixedWinding
	.long	_ZTI9idWinding
	.weak	_ZTS11idTestModel
	.section	.rodata._ZTS11idTestModel,"aG",@progbits,_ZTS11idTestModel,comdat
	.align 2
	.type	_ZTS11idTestModel, @object
	.size	_ZTS11idTestModel, 14
_ZTS11idTestModel:
	.string	"11idTestModel"
	.weak	_ZTI11idTestModel
	.section	.rodata._ZTI11idTestModel,"aG",@progbits,_ZTI11idTestModel,comdat
	.align 2
	.type	_ZTI11idTestModel, @object
	.size	_ZTI11idTestModel, 12
_ZTI11idTestModel:
	.long	_ZTVN10__cxxabiv120__si_class_type_infoE+8
	.long	_ZTS11idTestModel
	.long	_ZTI16idAnimatedEntity
	.weak	_ZTV9idWinding
	.section	.rodata._ZTV9idWinding,"aG",@progbits,_ZTV9idWinding,comdat
	.align 3
	.type	_ZTV9idWinding, @object
	.size	_ZTV9idWinding, 24
_ZTV9idWinding:
	.long	0
	.long	_ZTI9idWinding
	.long	_ZN9idWindingD1Ev
	.long	_ZN9idWindingD0Ev
	.long	_ZN9idWinding5ClearEv
	.long	_ZN9idWinding10ReAllocateEib
	.weak	_ZTV14idFixedWinding
	.section	.rodata._ZTV14idFixedWinding,"aG",@progbits,_ZTV14idFixedWinding,comdat
	.align 3
	.type	_ZTV14idFixedWinding, @object
	.size	_ZTV14idFixedWinding, 24
_ZTV14idFixedWinding:
	.long	0
	.long	_ZTI14idFixedWinding
	.long	_ZN14idFixedWindingD1Ev
	.long	_ZN14idFixedWindingD0Ev
	.long	_ZN14idFixedWinding5ClearEv
	.long	_ZN14idFixedWinding10ReAllocateEib
	.weak	_ZTV11idTestModel
	.section	.rodata._ZTV11idTestModel,"aG",@progbits,_ZTV11idTestModel,comdat
	.align 3
	.type	_ZTV11idTestModel, @object
	.size	_ZTV11idTestModel, 240
_ZTV11idTestModel:
	.long	0
	.long	_ZTI11idTestModel
	.long	_ZNK11idTestModel7GetTypeEv
	.long	_ZN11idTestModelD1Ev
	.long	_ZN11idTestModelD0Ev
	.long	_ZN8idEntity25UpdateChangeableSpawnArgsEPK6idDict
	.long	_ZN8idEntity13GetRenderViewEv
	.long	_ZN11idTestModel5ThinkEv
	.long	_ZN8idEntity12DormantBeginEv
	.long	_ZN8idEntity10DormantEndEv
	.long	_ZN8idEntity7PresentEv
	.long	_ZN8idEntity15GetRenderEntityEv
	.long	_ZN8idEntity17GetModelDefHandleEv
	.long	_ZN16idAnimatedEntity8SetModelEPKc
	.long	_ZN8idEntity8SetColorEfff
	.long	_ZN8idEntity8SetColorERK6idVec3
	.long	_ZNK8idEntity8GetColorER6idVec3
	.long	_ZN8idEntity8SetColorERK6idVec4
	.long	_ZNK8idEntity8GetColorER6idVec4
	.long	_ZN8idEntity12FreeModelDefEv
	.long	_ZN8idEntity12FreeLightDefEv
	.long	_ZN8idEntity4HideEv
	.long	_ZN8idEntity4ShowEv
	.long	_ZN8idEntity14ProjectOverlayERK6idVec3S2_fPKc
	.long	_ZN8idEntity26UpdateAnimationControllersEv
	.long	_ZN16idAnimatedEntity11GetAnimatorEv
	.long	_ZNK8idEntity20CanPlayChatterSoundsEv
	.long	_ZN8idEntity7PreBindEv
	.long	_ZN8idEntity8PostBindEv
	.long	_ZN8idEntity9PreUnbindEv
	.long	_ZN8idEntity10PostUnbindEv
	.long	_ZN8idEntity27GetPhysicsToVisualTransformER6idVec3R6idMat3
	.long	_ZN8idEntity26GetPhysicsToSoundTransformER6idVec3R6idMat3
	.long	_ZN8idEntity7CollideERK7trace_sRK6idVec3
	.long	_ZN8idEntity13GetImpactInfoEPS_iRK6idVec3P12impactInfo_s
	.long	_ZN8idEntity12ApplyImpulseEPS_iRK6idVec3S3_
	.long	_ZN8idEntity8AddForceEPS_iRK6idVec3S3_
	.long	_ZN8idEntity15ActivatePhysicsEPS_
	.long	_ZNK8idEntity8IsAtRestEv
	.long	_ZNK8idEntity16GetRestStartTimeEv
	.long	_ZN8idEntity16AddContactEntityEPS_
	.long	_ZN8idEntity19RemoveContactEntityEPS_
	.long	_ZNK8idEntity9CanDamageERK6idVec3RS0_
	.long	_ZN8idEntity6DamageEPS_S0_RK6idVec3PKcfi
	.long	_ZN16idAnimatedEntity15AddDamageEffectERK7trace_sRK6idVec3PKc
	.long	_ZN8idEntity14DamageFeedbackEPS_S0_Ri
	.long	_ZN8idEntity4PainEPS_S0_iRK6idVec3i
	.long	_ZN8idEntity6KilledEPS_S0_iRK6idVec3i
	.long	_ZNK11idTestModel34ShouldConstructScriptObjectAtSpawnEv
	.long	_ZN8idEntity21ConstructScriptObjectEv
	.long	_ZN8idEntity23DeconstructScriptObjectEv
	.long	_ZN8idEntity22HandleSingleGuiCommandEPS_P7idLexer
	.long	_ZN8idEntity8TeleportERK6idVec3RK8idAnglesPS_
	.long	_ZN8idEntity17ShowEditingDialogEv
	.long	_ZN16idAnimatedEntity21ClientPredictionThinkEv
	.long	_ZNK8idEntity15WriteToSnapshotER13idBitMsgDelta
	.long	_ZN8idEntity16ReadFromSnapshotERK13idBitMsgDelta
	.long	_ZN8idEntity18ServerReceiveEventEiiRK8idBitMsg
	.long	_ZN16idAnimatedEntity18ClientReceiveEventEiiRK8idBitMsg
	.long	_ZNK16idAnimatedEntity21GetDefaultSurfaceTypeEv
	.globl _ZN11idTestModel14eventCallbacksE
	.globl _ZN11idTestModel4TypeE
	.weak	_ZTI12idAllocError
	.section	.rodata._ZTI12idAllocError,"aG",@progbits,_ZTI12idAllocError,comdat
	.align 2
	.type	_ZTI12idAllocError, @object
	.size	_ZTI12idAllocError, 12
_ZTI12idAllocError:
	.long	_ZTVN10__cxxabiv120__si_class_type_infoE+8
	.long	_ZTS12idAllocError
	.long	_ZTI11idException
	.weak	_ZTS12idAllocError
	.section	.rodata._ZTS12idAllocError,"aG",@progbits,_ZTS12idAllocError,comdat
	.align 2
	.type	_ZTS12idAllocError, @object
	.size	_ZTS12idAllocError, 15
_ZTS12idAllocError:
	.string	"12idAllocError"
	.weak	_ZTI11idException
	.section	.sdata._ZTI11idException,"awG",@progbits,_ZTI11idException,comdat
	.align 2
	.type	_ZTI11idException, @object
	.size	_ZTI11idException, 8
_ZTI11idException:
	.long	_ZTVN10__cxxabiv117__class_type_infoE+8
	.long	_ZTS11idException
	.weak	_ZTS11idException
	.section	.rodata._ZTS11idException,"aG",@progbits,_ZTS11idException,comdat
	.align 2
	.type	_ZTS11idException, @object
	.size	_ZTS11idException, 14
_ZTS11idException:
	.string	"11idException"
	.weak	_ZN9idWindingD1Ev
	.set	_ZN9idWindingD1Ev,_ZN9idWindingD2Ev
	.weak	_ZN14idFixedWindingD1Ev
	.set	_ZN14idFixedWindingD1Ev,_ZN14idFixedWindingD2Ev
	.weak	_ZN6idDictD1Ev
	.set	_ZN6idDictD1Ev,_ZN6idDictD2Ev
	.globl _ZN11idTestModelD1Ev
	.set	_ZN11idTestModelD1Ev,_ZN11idTestModelD2Ev
	.globl _ZN11idTestModelC1Ev
	.set	_ZN11idTestModelC1Ev,_ZN11idTestModelC2Ev
	.section	.rodata.cst4,"aM",@progbits,4
	.align 2
.LC1:
	.4byte	-997900288
.LC4:
	.4byte	1135869952
.LC5:
	.4byte	1114636288
.LC9:
	.4byte	1501560836
.LC35:
	.4byte	1065353216
.LC37:
	.4byte	-1090519040
.LC38:
	.4byte	1056964608
.LC51:
	.4byte	.LC49
.LC59:
	.4byte	1120403456
.LC61:
	.4byte	1127481344
	.section	.rodata.cst8,"aM",@progbits,8
	.align 3
.LC56:
	.4byte	-1085250995
	.4byte	-755914244
	.section	".data"
	.align 2
	.set	.LANCHOR1,. + 0
	.type	_ZN11idTestModel14eventCallbacksE, @object
	.size	_ZN11idTestModel14eventCallbacksE, 36
_ZN11idTestModel14eventCallbacksE:
	.long	EV_FootstepLeft
	.long	_ZN11idTestModel14Event_FootstepEv
	.long	0
	.long	EV_FootstepRight
	.long	_ZN11idTestModel14Event_FootstepEv
	.long	0
	.long	0
	.long	0
	.long	0
	.section	.rodata.str1.4,"aMS",@progbits,1
	.align 2
.LC0:
	.string	"snd_footstep"
	.zero	3
.LC2:
	.string	"idTestModel"
.LC3:
	.string	"idAnimatedEntity"
	.zero	3
.LC6:
	.string	"origin"
	.zero	1
.LC7:
	.string	"^5 Anim: ^7%s  ^5Frame: ^7%d/%d  Time: %.3f\n"
	.zero	3
.LC10:
	.string	"^5 Head: ^7%s  ^5Frame: ^7%d/%d  Time: %.3f\n\n"
	.zero	2
.LC11:
	.string	"\n\n"
	.zero	1
.LC12:
	.string	"idle"
	.zero	3
.LC13:
	.string	"anim '%s', %d.%03d seconds, %d frames\n"
	.zero	1
.LC14:
	.string	"head '%s', %d.%03d seconds, %d frames\n"
	.zero	1
.LC15:
	.string	"^5 Anim: ^7%s\n^5Frame: ^7%d/%d\n\n"
	.zero	3
.LC16:
	.string	"usage: testanim <animname>\n"
.LC17:
	.string	"Animation '%s' not found.\n"
	.zero	1
.LC18:
	.string	"Missing 'idle' anim for head.\n"
	.zero	1
.LC19:
	.string	""
	.zero	3
.LC20:
	.string	"usage: testblend <anim1> <anim2> <frames>\n"
	.zero	1
.LC21:
	.string	"No active testModel.\n"
	.zero	2
.LC22:
	.string	"modelDef %p kept\n"
	.zero	2
.LC23:
	.string	"models/"
.LC24:
	.string	".lwo"
	.zero	3
.LC25:
	.string	".ase"
	.zero	3
.LC26:
	.string	".md5mesh"
	.zero	3
.LC27:
	.string	".ma"
.LC28:
	.string	".mb"
.LC29:
	.string	"No testModel active.\n"
	.zero	2
.LC30:
	.string	"%s %s"
	.zero	2
.LC31:
	.string	"model"
	.zero	2
.LC32:
	.string	"Unable to create testmodel for '%s' : model defaulted"
	.zero	2
.LC33:
	.string	"mins"
	.zero	3
.LC34:
	.string	"maxs"
	.zero	3
.LC36:
	.string	"size"
	.zero	3
.LC39:
	.string	"offsetModel"
.LC40:
	.string	"0 0 0"
	.zero	2
.LC41:
	.string	"def_head"
	.zero	3
.LC42:
	.string	"head_joint"
	.zero	1
.LC43:
	.string	"Joint '%s' not found for 'head_joint'"
	.zero	2
.LC44:
	.string	"snd_"
	.zero	3
.LC45:
	.string	"copy_joint"
	.zero	1
.LC46:
	.string	"copy_joint_world "
	.zero	2
.LC47:
	.string	"copy_joint "
.LC48:
	.string	"Unknown copy_joint '%s'"
.LC49:
	.string	"Unknown copy_joint '%s' on head"
.LC50:
	.string	"Added testmodel at origin = '%s',  angles = '%s'\n"
	.zero	2
.LC52:
	.string	"No active testModel\n"
	.zero	3
.LC53:
	.string	"USAGE: testShaderParm <parmNum> <float | \"time\">\n"
	.zero	2
.LC54:
	.string	"parmNum %i out of range\n"
	.zero	3
.LC55:
	.string	"time"
	.zero	3
.LC57:
	.string	"md5mesh"
.LC58:
	.string	"Can't register model\n"
	.zero	2
.LC60:
	.string	"%f"
	.zero	1
.LC62:
	.string	"angle"
	.zero	2
.LC63:
	.string	"removing testSkin.\n"
.LC64:
	.string	"Removing testmodel %s\n"
	.zero	1
.LC65:
	.string	"Removing testmodel\n"
.LC66:
	.string	"idTestModel::idTestModel() size %d\r\n"
	.section	".bss"
	.align 2
	.set	.LANCHOR0,. + 0
	.type	_ZN11idTestModel4TypeE, @object
	.size	_ZN11idTestModel4TypeE, 80
_ZN11idTestModel4TypeE:
	.zero	80
	.type	_ZL22NUM_RENDER_PORTAL_BITS, @object
	.size	_ZL22NUM_RENDER_PORTAL_BITS, 4
_ZL22NUM_RENDER_PORTAL_BITS:
	.zero	4
	.type	_ZL20DEFAULT_GRAVITY_VEC3, @object
	.size	_ZL20DEFAULT_GRAVITY_VEC3, 12
_ZL20DEFAULT_GRAVITY_VEC3:
	.zero	12
	.type	_ZL20CINEMATIC_SKIP_DELAY, @object
	.size	_ZL20CINEMATIC_SKIP_DELAY, 4
_ZL20CINEMATIC_SKIP_DELAY:
	.zero	4
	.type	_ZL26ASYNC_PLAYER_INV_AMMO_BITS, @object
	.size	_ZL26ASYNC_PLAYER_INV_AMMO_BITS, 4
_ZL26ASYNC_PLAYER_INV_AMMO_BITS:
	.zero	4
	.section	".text"
.Letext0:
	.file 17 "<built-in>"
	.file 18 "c:\\utils\\devkitpro\\devkitppc\\bin\\../lib/gcc/powerpc-eabi/4.6.3/include/stddef.h"
	.file 19 "c:\\utils\\devkitpro\\devkitppc\\bin\\../lib/gcc/powerpc-eabi/4.6.3/../../../../powerpc-eabi/include/sys/types.h"
	.file 20 "d:/Data/Nintendo/DoomGX/src/game/anim/../../idlib/../sys/sys_public.h"
	.file 21 "d:/Data/Nintendo/DoomGX/src/game/anim/../../idlib/../framework/Common.h"
	.file 22 "d:/Data/Nintendo/DoomGX/src/game/anim/../../idlib/../framework/FileSystem.h"
	.file 23 "d:/Data/Nintendo/DoomGX/src/game/anim/../../idlib/../idlib/Lib.h"
	.file 24 "d:/Data/Nintendo/DoomGX/src/game/anim/../../idlib/../idlib/math/Random.h"
	.file 25 "d:/Data/Nintendo/DoomGX/src/game/anim/../../idlib/../idlib/math/Quat.h"
	.file 26 "d:/Data/Nintendo/DoomGX/src/game/anim/../../idlib/../idlib/math/Rotation.h"
	.file 27 "d:/Data/Nintendo/DoomGX/src/game/anim/../../idlib/../idlib/math/Plane.h"
	.file 28 "d:/Data/Nintendo/DoomGX/src/game/anim/../../idlib/../idlib/math/Extrapolate.h"
	.file 29 "d:/Data/Nintendo/DoomGX/src/game/anim/../../idlib/../idlib/math/Ode.h"
	.file 30 "d:/Data/Nintendo/DoomGX/src/game/anim/../../idlib/../idlib/bv/Sphere.h"
	.file 31 "d:/Data/Nintendo/DoomGX/src/game/anim/../../idlib/../idlib/bv/Bounds.h"
	.file 32 "d:/Data/Nintendo/DoomGX/src/game/anim/../../idlib/../idlib/bv/Box.h"
	.file 33 "d:/Data/Nintendo/DoomGX/src/game/anim/../../idlib/../idlib/bv/Frustum.h"
	.file 34 "d:/Data/Nintendo/DoomGX/src/game/anim/../../idlib/../idlib/geometry/DrawVert.h"
	.file 35 "d:/Data/Nintendo/DoomGX/src/game/anim/../../idlib/../idlib/geometry/JointTransform.h"
	.file 36 "d:/Data/Nintendo/DoomGX/src/game/anim/../../idlib/../idlib/geometry/Surface.h"
	.file 37 "d:/Data/Nintendo/DoomGX/src/game/anim/../../idlib/../idlib/geometry/TraceModel.h"
	.file 38 "d:/Data/Nintendo/DoomGX/src/game/anim/../../idlib/../idlib/Token.h"
	.file 39 "d:/Data/Nintendo/DoomGX/src/game/anim/../../idlib/../idlib/Lexer.h"
	.file 40 "d:/Data/Nintendo/DoomGX/src/game/anim/../../idlib/../framework/File.h"
	.file 41 "d:/Data/Nintendo/DoomGX/src/game/anim/../../idlib/../idlib/Parser.h"
	.file 42 "d:/Data/Nintendo/DoomGX/src/game/anim/../../idlib/../idlib/containers/StrList.h"
	.file 43 "d:/Data/Nintendo/DoomGX/src/game/anim/../../idlib/../idlib/containers/StrPool.h"
	.file 44 "d:/Data/Nintendo/DoomGX/src/game/anim/../../idlib/../idlib/containers/PlaneSet.h"
	.file 45 "d:/Data/Nintendo/DoomGX/src/game/anim/../../idlib/../idlib/LangDict.h"
	.file 46 "d:/Data/Nintendo/DoomGX/src/game/anim/../../idlib/../idlib/BitMsg.h"
	.file 47 "d:/Data/Nintendo/DoomGX/src/game/anim/../../idlib/../idlib/MapFile.h"
	.file 48 "d:/Data/Nintendo/DoomGX/src/game/anim/../../idlib/../framework/CmdSystem.h"
	.file 49 "d:/Data/Nintendo/DoomGX/src/game/anim/../../idlib/../framework/UsercmdGen.h"
	.file 50 "d:/Data/Nintendo/DoomGX/src/game/anim/../../idlib/../framework/DeclParticle.h"
	.file 51 "d:/Data/Nintendo/DoomGX/src/game/anim/../../idlib/../renderer/RenderWorld.h"
	.file 52 "d:/Data/Nintendo/DoomGX/src/game/anim/../../idlib/../renderer/Cinematic.h"
	.file 53 "d:/Data/Nintendo/DoomGX/src/game/anim/../../idlib/../renderer/Model.h"
	.file 54 "d:/Data/Nintendo/DoomGX/src/game/anim/../../idlib/../renderer/RenderSystem.h"
	.file 55 "d:/Data/Nintendo/DoomGX/src/game/anim/../../idlib/../sound/sound.h"
	.file 56 "d:/Data/Nintendo/DoomGX/src/game/anim/../../idlib/../ui/UserInterface.h"
	.file 57 "d:/Data/Nintendo/DoomGX/src/game/anim/../../idlib/../cm/CollisionModel.h"
	.file 58 "d:/Data/Nintendo/DoomGX/src/game/anim/../../idlib/../tools/compilers/aas/AASFile.h"
	.file 59 "d:/Data/Nintendo/DoomGX/src/game/anim/../../idlib/../game/Game.h"
	.file 60 "d:/Data/Nintendo/DoomGX/src/game/anim/../../idlib/../framework/async/NetworkSystem.h"
	.file 61 "d:/Data/Nintendo/DoomGX/src/game/anim/../../idlib/../renderer/ModelManager.h"
	.file 62 "d:/Data/Nintendo/DoomGX/src/game/anim/../../idlib/../tools/compilers/aas/AASFileManager.h"
	.file 63 "d:/Data/Nintendo/DoomGX/src/game/anim/../../idlib/../framework/Session.h"
	.file 64 "d:/Data/Nintendo/DoomGX/src/game/anim/../../idlib/../ui/ListGUI.h"
	.file 65 "d:/Data/Nintendo/DoomGX/src/game/anim/../gamesys/Event.h"
	.file 66 "d:/Data/Nintendo/DoomGX/src/game/anim/../gamesys/Class.h"
	.file 67 "d:/Data/Nintendo/DoomGX/src/game/anim/../gamesys/SaveGame.h"
	.file 68 "d:/Data/Nintendo/DoomGX/src/game/anim/../Entity.h"
	.file 69 "d:/Data/Nintendo/DoomGX/src/game/anim/../../idlib/../idlib/containers/Hierarchy.h"
	.file 70 "d:/Data/Nintendo/DoomGX/src/game/anim/../physics/Clip.h"
	.file 71 "d:/Data/Nintendo/DoomGX/src/game/anim/../script/Script_Program.h"
	.file 72 "d:/Data/Nintendo/DoomGX/src/game/anim/../Actor.h"
	.file 73 "d:/Data/Nintendo/DoomGX/src/game/anim/../anim/Anim_Testmodel.h"
	.file 74 "d:/Data/Nintendo/DoomGX/src/game/anim/../ai/AAS.h"
	.file 75 "d:/Data/Nintendo/DoomGX/src/game/anim/../../idlib/../framework/Console.h"
	.file 76 "d:/Data/Nintendo/DoomGX/src/game/anim/../../idlib/../idlib/math/Curve.h"
	.file 77 "d:/Data/Nintendo/DoomGX/src/game/anim/../../idlib/../idlib/math/Simd.h"
	.file 78 "d:/Data/Nintendo/DoomGX/src/game/anim/../../idlib/../framework/BuildVersion.h"
	.file 79 "d:/Data/Nintendo/DoomGX/src/game/anim/../../idlib/precompiled.h"
	.file 80 "d:/Data/Nintendo/DoomGX/src/game/anim/../../idlib/../renderer/Material.h"
	.file 81 "d:/Data/Nintendo/DoomGX/src/game/anim/../../idlib/../framework/EventLoop.h"
	.file 82 "d:/Data/Nintendo/DoomGX/src/game/anim/../../idlib/../framework/EditField.h"
	.file 83 "d:/Data/Nintendo/DoomGX/src/game/anim/../../idlib/../framework/async/AsyncNetwork.h"
	.file 84 "d:/Data/Nintendo/DoomGX/src/game/anim/../../idlib/../framework/async/AsyncServer.h"
	.file 85 "d:/Data/Nintendo/DoomGX/src/game/anim/../gamesys/SysCvar.h"
	.file 86 "d:/Data/Nintendo/DoomGX/src/game/anim/../MultiplayerGame.h"
	.file 87 "d:/Data/Nintendo/DoomGX/src/game/anim/../AFEntity.h"
	.file 88 "d:/Data/Nintendo/DoomGX/src/game/anim/../Weapon.h"
	.file 89 "d:/Data/Nintendo/DoomGX/src/game/anim/../ai/AI.h"
	.file 90 "d:/Data/Nintendo/DoomGX/src/game/anim/../script/Script_Compiler.h"
	.file 91 "d:/Data/Nintendo/DoomGX/src/game/anim/../script/Script_Thread.h"