	.file	"Anim_Blend.cpp"
	.section	".text"
.Ltext0:
	.section	.text._ZN14idFixedWinding5ClearEv,"axG",@progbits,_ZN14idFixedWinding5ClearEv,comdat
	.align 2
	.weak	_ZN14idFixedWinding5ClearEv
	.type	_ZN14idFixedWinding5ClearEv, @function
_ZN14idFixedWinding5ClearEv:
.LFB1502:
	.file 1 "d:/Data/Nintendo/DoomGX/src/game/anim/../../idlib/../idlib/geometry/Winding.h"
	.loc 1 398 0
	.cfi_startproc
.LVL0:
	.loc 1 399 0
	li 0,0
	.loc 1 400 0
	.loc 1 399 0
	stw 0,4(3)
	.loc 1 400 0
	blr
	.cfi_endproc
.LFE1502:
	.size	_ZN14idFixedWinding5ClearEv, .-_ZN14idFixedWinding5ClearEv
	.section	.text._ZN6idCVarD2Ev,"axG",@progbits,_ZN6idCVarD5Ev,comdat
	.align 2
	.weak	_ZN6idCVarD2Ev
	.type	_ZN6idCVarD2Ev, @function
_ZN6idCVarD2Ev:
.LFB2175:
	.file 2 "d:/Data/Nintendo/DoomGX/src/game/anim/../../idlib/../framework/CVarSystem.h"
	.loc 2 127 0
	.cfi_startproc
.LVL1:
.LBB3571:
	.loc 2 127 0
	lis 9,_ZTV6idCVar+8@ha
.LBE3571:
.LBB3572:
	la 0,_ZTV6idCVar+8@l(9)
	stw 0,0(3)
.LBE3572:
	blr
	.cfi_endproc
.LFE2175:
	.size	_ZN6idCVarD2Ev, .-_ZN6idCVarD2Ev
	.section	.text._ZN6idCVar17InternalSetStringEPKc,"axG",@progbits,_ZN6idCVar17InternalSetStringEPKc,comdat
	.align 2
	.weak	_ZN6idCVar17InternalSetStringEPKc
	.type	_ZN6idCVar17InternalSetStringEPKc, @function
_ZN6idCVar17InternalSetStringEPKc:
.LFB2197:
	.loc 2 173 0
	.cfi_startproc
.LVL2:
	.loc 2 173 0
	blr
	.cfi_endproc
.LFE2197:
	.size	_ZN6idCVar17InternalSetStringEPKc, .-_ZN6idCVar17InternalSetStringEPKc
	.section	.text._ZN6idCVar15InternalSetBoolEb,"axG",@progbits,_ZN6idCVar15InternalSetBoolEb,comdat
	.align 2
	.weak	_ZN6idCVar15InternalSetBoolEb
	.type	_ZN6idCVar15InternalSetBoolEb, @function
_ZN6idCVar15InternalSetBoolEb:
.LFB2198:
	.loc 2 174 0
	.cfi_startproc
.LVL3:
	.loc 2 174 0
	blr
	.cfi_endproc
.LFE2198:
	.size	_ZN6idCVar15InternalSetBoolEb, .-_ZN6idCVar15InternalSetBoolEb
	.section	.text._ZN6idCVar18InternalSetIntegerEi,"axG",@progbits,_ZN6idCVar18InternalSetIntegerEi,comdat
	.align 2
	.weak	_ZN6idCVar18InternalSetIntegerEi
	.type	_ZN6idCVar18InternalSetIntegerEi, @function
_ZN6idCVar18InternalSetIntegerEi:
.LFB2199:
	.loc 2 175 0
	.cfi_startproc
.LVL4:
	.loc 2 175 0
	blr
	.cfi_endproc
.LFE2199:
	.size	_ZN6idCVar18InternalSetIntegerEi, .-_ZN6idCVar18InternalSetIntegerEi
	.section	.text._ZN6idCVar16InternalSetFloatEf,"axG",@progbits,_ZN6idCVar16InternalSetFloatEf,comdat
	.align 2
	.weak	_ZN6idCVar16InternalSetFloatEf
	.type	_ZN6idCVar16InternalSetFloatEf, @function
_ZN6idCVar16InternalSetFloatEf:
.LFB2200:
	.loc 2 176 0
	.cfi_startproc
.LVL5:
	.loc 2 176 0
	blr
	.cfi_endproc
.LFE2200:
	.size	_ZN6idCVar16InternalSetFloatEf, .-_ZN6idCVar16InternalSetFloatEf
	.section	.text._ZN6idDeclD2Ev,"axG",@progbits,_ZN6idDeclD5Ev,comdat
	.align 2
	.weak	_ZN6idDeclD2Ev
	.type	_ZN6idDeclD2Ev, @function
_ZN6idDeclD2Ev:
.LFB2259:
	.file 3 "d:/Data/Nintendo/DoomGX/src/game/anim/../../idlib/../framework/DeclManager.h"
	.loc 3 137 0
	.cfi_startproc
.LVL6:
.LBB3573:
	.loc 3 137 0
	lis 9,_ZTV6idDecl+8@ha
.LBE3573:
.LBB3574:
	la 0,_ZTV6idDecl+8@l(9)
	stw 0,0(3)
.LBE3574:
	blr
	.cfi_endproc
.LFE2259:
	.size	_ZN6idDeclD2Ev, .-_ZN6idDeclD2Ev
	.section	.text._ZN6idDecl14SetDefaultTextEv,"axG",@progbits,_ZN6idDecl14SetDefaultTextEv,comdat
	.align 2
	.weak	_ZN6idDecl14SetDefaultTextEv
	.type	_ZN6idDecl14SetDefaultTextEv, @function
_ZN6idDecl14SetDefaultTextEv:
.LFB2279:
	.loc 3 200 0
	.cfi_startproc
.LVL7:
	mflr 0
	stwu 1,-8(1)
.LCFI0:
	.cfi_def_cfa_offset 8
	.cfi_register 65, 0
	stw 0,12(1)
	.loc 3 200 0
	lwz 3,4(3)
.LVL8:
	lwz 9,0(3)
	lwz 0,80(9)
	.cfi_offset 65, 4
	mtctr 0
	bctrl
	lwz 0,12(1)
	addi 1,1,8
.LCFI1:
	.cfi_def_cfa_offset 0
	mtlr 0
	blr
	.cfi_endproc
.LFE2279:
	.size	_ZN6idDecl14SetDefaultTextEv, .-_ZN6idDecl14SetDefaultTextEv
	.section	.text._ZNK6idDecl17DefaultDefinitionEv,"axG",@progbits,_ZNK6idDecl17DefaultDefinitionEv,comdat
	.align 2
	.weak	_ZNK6idDecl17DefaultDefinitionEv
	.type	_ZNK6idDecl17DefaultDefinitionEv, @function
_ZNK6idDecl17DefaultDefinitionEv:
.LFB2280:
	.loc 3 207 0
	.cfi_startproc
.LVL9:
	mflr 0
	stwu 1,-8(1)
.LCFI2:
	.cfi_def_cfa_offset 8
	.cfi_register 65, 0
	stw 0,12(1)
	.loc 3 207 0
	lwz 3,4(3)
.LVL10:
	lwz 9,0(3)
	lwz 0,84(9)
	.cfi_offset 65, 4
	mtctr 0
	bctrl
	lwz 0,12(1)
	addi 1,1,8
.LCFI3:
	.cfi_def_cfa_offset 0
	mtlr 0
	blr
	.cfi_endproc
.LFE2280:
	.size	_ZNK6idDecl17DefaultDefinitionEv, .-_ZNK6idDecl17DefaultDefinitionEv
	.section	.text._ZN6idDecl5ParseEPKci,"axG",@progbits,_ZN6idDecl5ParseEPKci,comdat
	.align 2
	.weak	_ZN6idDecl5ParseEPKci
	.type	_ZN6idDecl5ParseEPKci, @function
_ZN6idDecl5ParseEPKci:
.LFB2281:
	.loc 3 214 0
	.cfi_startproc
.LVL11:
	mflr 0
	stwu 1,-8(1)
.LCFI4:
	.cfi_def_cfa_offset 8
	.cfi_register 65, 0
	stw 0,12(1)
	.loc 3 214 0
	lwz 3,4(3)
.LVL12:
	lwz 9,0(3)
	lwz 0,88(9)
	.cfi_offset 65, 4
	mtctr 0
	bctrl
.LVL13:
	lwz 0,12(1)
	addi 1,1,8
.LCFI5:
	.cfi_def_cfa_offset 0
	mtlr 0
	blr
	.cfi_endproc
.LFE2281:
	.size	_ZN6idDecl5ParseEPKci, .-_ZN6idDecl5ParseEPKci
	.section	.text._ZN6idDecl8FreeDataEv,"axG",@progbits,_ZN6idDecl8FreeDataEv,comdat
	.align 2
	.weak	_ZN6idDecl8FreeDataEv
	.type	_ZN6idDecl8FreeDataEv, @function
_ZN6idDecl8FreeDataEv:
.LFB2282:
	.loc 3 220 0
	.cfi_startproc
.LVL14:
	mflr 0
	stwu 1,-8(1)
.LCFI6:
	.cfi_def_cfa_offset 8
	.cfi_register 65, 0
	stw 0,12(1)
	.loc 3 220 0
	lwz 3,4(3)
.LVL15:
	lwz 9,0(3)
	lwz 0,92(9)
	.cfi_offset 65, 4
	mtctr 0
	bctrl
	lwz 0,12(1)
	addi 1,1,8
.LCFI7:
	.cfi_def_cfa_offset 0
	mtlr 0
	blr
	.cfi_endproc
.LFE2282:
	.size	_ZN6idDecl8FreeDataEv, .-_ZN6idDecl8FreeDataEv
	.section	.text._ZNK6idDecl4SizeEv,"axG",@progbits,_ZNK6idDecl4SizeEv,comdat
	.align 2
	.weak	_ZNK6idDecl4SizeEv
	.type	_ZNK6idDecl4SizeEv, @function
_ZNK6idDecl4SizeEv:
.LFB2283:
	.loc 3 223 0
	.cfi_startproc
.LVL16:
	mflr 0
	stwu 1,-8(1)
.LCFI8:
	.cfi_def_cfa_offset 8
	.cfi_register 65, 0
	stw 0,12(1)
	.loc 3 223 0
	lwz 3,4(3)
.LVL17:
	lwz 9,0(3)
	lwz 0,96(9)
	.cfi_offset 65, 4
	mtctr 0
	bctrl
	lwz 0,12(1)
	addi 1,1,8
.LCFI9:
	.cfi_def_cfa_offset 0
	mtlr 0
	blr
	.cfi_endproc
.LFE2283:
	.size	_ZNK6idDecl4SizeEv, .-_ZNK6idDecl4SizeEv
	.section	.text._ZNK6idDecl4ListEv,"axG",@progbits,_ZNK6idDecl4ListEv,comdat
	.align 2
	.weak	_ZNK6idDecl4ListEv
	.type	_ZNK6idDecl4ListEv, @function
_ZNK6idDecl4ListEv:
.LFB2284:
	.loc 3 228 0
	.cfi_startproc
.LVL18:
	mflr 0
	stwu 1,-8(1)
.LCFI10:
	.cfi_def_cfa_offset 8
	.cfi_register 65, 0
	stw 0,12(1)
	.loc 3 228 0
	lwz 3,4(3)
.LVL19:
	lwz 9,0(3)
	lwz 0,100(9)
	.cfi_offset 65, 4
	mtctr 0
	bctrl
	lwz 0,12(1)
	addi 1,1,8
.LCFI11:
	.cfi_def_cfa_offset 0
	mtlr 0
	blr
	.cfi_endproc
.LFE2284:
	.size	_ZNK6idDecl4ListEv, .-_ZNK6idDecl4ListEv
	.section	.text._ZNK6idDecl5PrintEv,"axG",@progbits,_ZNK6idDecl5PrintEv,comdat
	.align 2
	.weak	_ZNK6idDecl5PrintEv
	.type	_ZNK6idDecl5PrintEv, @function
_ZNK6idDecl5PrintEv:
.LFB2285:
	.loc 3 233 0
	.cfi_startproc
.LVL20:
	mflr 0
	stwu 1,-8(1)
.LCFI12:
	.cfi_def_cfa_offset 8
	.cfi_register 65, 0
	stw 0,12(1)
	.loc 3 233 0
	lwz 3,4(3)
.LVL21:
	lwz 9,0(3)
	lwz 0,104(9)
	.cfi_offset 65, 4
	mtctr 0
	bctrl
	lwz 0,12(1)
	addi 1,1,8
.LCFI13:
	.cfi_def_cfa_offset 0
	mtlr 0
	blr
	.cfi_endproc
.LFE2285:
	.size	_ZNK6idDecl5PrintEv, .-_ZNK6idDecl5PrintEv
	.section	".text"
	.align 2
	.globl _ZNK14idDeclModelDef4SizeEv
	.type	_ZNK14idDeclModelDef4SizeEv, @function
_ZNK14idDeclModelDef4SizeEv:
.LFB2885:
	.file 4 "d:/Data/Nintendo/DoomGX/src/game/anim/Anim_Blend.cpp"
	.loc 4 2124 0
	.cfi_startproc
.LVL22:
	.loc 4 2126 0
	li 3,156
.LVL23:
	blr
	.cfi_endproc
.LFE2885:
	.size	_ZNK14idDeclModelDef4SizeEv, .-_ZNK14idDeclModelDef4SizeEv
	.align 2
	.globl _ZNK14idDeclModelDef17DefaultDefinitionEv
	.type	_ZNK14idDeclModelDef17DefaultDefinitionEv, @function
_ZNK14idDeclModelDef17DefaultDefinitionEv:
.LFB2888:
	.loc 4 2178 0
	.cfi_startproc
.LVL24:
	.loc 4 2179 0
	lis 3,.LC0@ha
.LVL25:
	.loc 4 2180 0
	la 3,.LC0@l(3)
	blr
	.cfi_endproc
.LFE2888:
	.size	_ZNK14idDeclModelDef17DefaultDefinitionEv, .-_ZNK14idDeclModelDef17DefaultDefinitionEv
	.align 2
	.type	__tcf_0, @function
__tcf_0:
.LFB2966:
	.loc 4 4202 0
	.cfi_startproc
.LVL26:
.LBB3575:
.LBB3576:
.LBB3577:
	.loc 2 127 0
	lis 9,_ZTV6idCVar+8@ha
.LBE3577:
.LBE3576:
.LBE3575:
	.loc 4 4202 0
.LBB3580:
.LBB3579:
.LBB3578:
	.loc 2 127 0
	la 0,_ZTV6idCVar+8@l(9)
	lis 9,.LANCHOR0@ha
	stw 0,.LANCHOR0@l(9)
.LBE3578:
.LBE3579:
.LBE3580:
	.loc 4 4202 0
	blr
	.cfi_endproc
.LFE2966:
	.size	__tcf_0, .-__tcf_0
	.section	.text._ZN9idWinding5ClearEv,"axG",@progbits,_ZN9idWinding5ClearEv,comdat
	.align 2
	.weak	_ZN9idWinding5ClearEv
	.type	_ZN9idWinding5ClearEv, @function
_ZN9idWinding5ClearEv:
.LFB1473:
	.loc 1 249 0
	.cfi_startproc
.LVL27:
	mflr 0
	stwu 1,-16(1)
.LCFI14:
	.cfi_def_cfa_offset 16
	.cfi_register 65, 0
	stw 31,12(1)
	mr 31,3
	.cfi_offset 31, -4
	stw 0,20(1)
	.loc 1 250 0
	li 0,0
	.cfi_offset 65, 4
	.loc 1 251 0
	lwz 3,8(3)
.LVL28:
	.loc 1 250 0
	stw 0,4(31)
	.loc 1 251 0
	cmpwi 7,3,0
	beq- 7,.L22
	.loc 1 251 0 is_stmt 0 discriminator 1
	bl _ZdaPv
.L22:
	.loc 1 252 0 is_stmt 1
	li 0,0
	stw 0,8(31)
	.loc 1 253 0
	lwz 0,20(1)
	lwz 31,12(1)
.LVL29:
	mtlr 0
	addi 1,1,16
.LCFI15:
	.cfi_def_cfa_offset 0
	.cfi_restore 31
	blr
	.cfi_endproc
.LFE1473:
	.size	_ZN9idWinding5ClearEv, .-_ZN9idWinding5ClearEv
	.section	.text._ZN9idWindingD2Ev,"axG",@progbits,_ZN9idWindingD5Ev,comdat
	.align 2
	.weak	_ZN9idWindingD2Ev
	.type	_ZN9idWindingD2Ev, @function
_ZN9idWindingD2Ev:
.LFB1461:
	.loc 1 183 0
	.cfi_startproc
.LVL30:
	mflr 0
	stwu 1,-16(1)
.LCFI16:
	.cfi_def_cfa_offset 16
	.cfi_register 65, 0
.LBB3582:
	lis 9,_ZTV9idWinding+8@ha
.LBE3582:
	stw 31,12(1)
	mr 31,3
	.cfi_offset 31, -4
	stw 0,20(1)
.LBB3583:
	.loc 1 183 0
	la 0,_ZTV9idWinding+8@l(9)
	.cfi_offset 65, 4
	.loc 1 184 0
	lwz 3,8(3)
.LVL31:
	.loc 1 183 0
	stw 0,0(31)
	.loc 1 184 0
	cmpwi 7,3,0
	beq- 7,.L25
	.loc 1 184 0 is_stmt 0 discriminator 1
	bl _ZdaPv
.L25:
	.loc 1 185 0 is_stmt 1
	li 0,0
	stw 0,8(31)
.LBE3583:
	.loc 1 186 0
	lwz 0,20(1)
	lwz 31,12(1)
.LVL32:
	mtlr 0
	addi 1,1,16
.LCFI17:
	.cfi_def_cfa_offset 0
	.cfi_restore 31
	blr
	.cfi_endproc
.LFE1461:
	.size	_ZN9idWindingD2Ev, .-_ZN9idWindingD2Ev
	.section	.text._ZN6idDeclD0Ev,"axG",@progbits,_ZN6idDeclD5Ev,comdat
	.align 2
	.weak	_ZN6idDeclD0Ev
	.type	_ZN6idDeclD0Ev, @function
_ZN6idDeclD0Ev:
.LFB2261:
	.loc 3 137 0
	.cfi_startproc
.LVL33:
	mflr 0
	stwu 1,-8(1)
.LCFI18:
	.cfi_def_cfa_offset 8
	.cfi_register 65, 0
.LBB3584:
.LBB3585:
.LBB3586:
	lis 9,_ZTV6idDecl+8@ha
.LBE3586:
.LBE3585:
.LBE3584:
	stw 0,12(1)
.LBB3589:
.LBB3588:
.LBB3587:
	.loc 3 137 0
	la 0,_ZTV6idDecl+8@l(9)
	.cfi_offset 65, 4
	stw 0,0(3)
.LBE3587:
.LBE3588:
.LBE3589:
	bl _ZdlPv
.LVL34:
	lwz 0,12(1)
	addi 1,1,8
.LCFI19:
	.cfi_def_cfa_offset 0
	mtlr 0
	blr
	.cfi_endproc
.LFE2261:
	.size	_ZN6idDeclD0Ev, .-_ZN6idDeclD0Ev
	.section	.text._ZN6idCVarD0Ev,"axG",@progbits,_ZN6idCVarD5Ev,comdat
	.align 2
	.weak	_ZN6idCVarD0Ev
	.type	_ZN6idCVarD0Ev, @function
_ZN6idCVarD0Ev:
.LFB2177:
	.loc 2 127 0
	.cfi_startproc
.LVL35:
	mflr 0
	stwu 1,-8(1)
.LCFI20:
	.cfi_def_cfa_offset 8
	.cfi_register 65, 0
.LBB3590:
.LBB3591:
.LBB3592:
	lis 9,_ZTV6idCVar+8@ha
.LBE3592:
.LBE3591:
.LBE3590:
	stw 0,12(1)
.LBB3595:
.LBB3594:
.LBB3593:
	.loc 2 127 0
	la 0,_ZTV6idCVar+8@l(9)
	.cfi_offset 65, 4
	stw 0,0(3)
.LBE3593:
.LBE3594:
.LBE3595:
	bl _ZdlPv
.LVL36:
	lwz 0,12(1)
	addi 1,1,8
.LCFI21:
	.cfi_def_cfa_offset 0
	mtlr 0
	blr
	.cfi_endproc
.LFE2177:
	.size	_ZN6idCVarD0Ev, .-_ZN6idCVarD0Ev
	.section	.text._ZN11idCmdSystem21ArgCompletion_IntegerILi0ELi2EEEvRK9idCmdArgsPFvPKcE,"axG",@progbits,_ZN11idCmdSystem21ArgCompletion_IntegerILi0ELi2EEEvRK9idCmdArgsPFvPKcE,comdat
	.align 2
	.weak	_ZN11idCmdSystem21ArgCompletion_IntegerILi0ELi2EEEvRK9idCmdArgsPFvPKcE
	.type	_ZN11idCmdSystem21ArgCompletion_IntegerILi0ELi2EEEvRK9idCmdArgsPFvPKcE, @function
_ZN11idCmdSystem21ArgCompletion_IntegerILi0ELi2EEEvRK9idCmdArgsPFvPKcE:
.LFB3317:
	.file 5 "d:/Data/Nintendo/DoomGX/src/game/anim/../../idlib/../framework/CmdSystem.h"
	.loc 5 136 0
	.cfi_startproc
.LVL37:
	mflr 0
	stwu 1,-32(1)
.LCFI22:
	.cfi_def_cfa_offset 32
	.cfi_register 65, 0
	stw 29,20(1)
	lis 29,.LC2@ha
	.cfi_offset 29, -12
	stw 0,36(1)
	la 29,.LC2@l(29)
	stw 4,8(1)
	stw 28,16(1)
.LBB3596:
.LBB3597:
.LBB3598:
	.file 6 "d:/Data/Nintendo/DoomGX/src/game/anim/../../idlib/../idlib/CmdArgs.h"
	.loc 6 50 0
	lis 28,.LC1@ha
	.cfi_offset 28, -16
	.cfi_offset 65, 4
.LBE3598:
.LBE3597:
.LBE3596:
	.loc 5 136 0
	stw 30,24(1)
	mr 30,3
	.cfi_offset 30, -8
	stw 31,28(1)
	.loc 5 137 0
	li 31,0
	.cfi_offset 31, -4
.LVL38:
.L35:
.LBB3603:
.LBB3601:
.LBB3599:
	.loc 6 50 0
	lwz 0,0(30)
	cmpwi 7,0,0
	ble- 7,.L36
	lwz 4,4(30)
.L34:
.LBE3599:
.LBE3601:
	.loc 5 138 0
	mr 5,31
	mr 3,29
	crxor 6,6,6
	bl _Z2vaPKcz
	lwz 0,8(1)
	mtctr 0
	bctrl
.LVL39:
	.loc 5 137 0
	cmpwi 7,31,2
	addi 31,31,1
.LVL40:
	bne+ 7,.L35
.LBE3603:
	.loc 5 140 0
	lwz 0,36(1)
	lwz 28,16(1)
	mtlr 0
	lwz 29,20(1)
	lwz 30,24(1)
.LVL41:
	lwz 31,28(1)
.LVL42:
	addi 1,1,32
	.cfi_remember_state
.LCFI23:
	.cfi_def_cfa_offset 0
	.cfi_restore 31
	.cfi_restore 30
	.cfi_restore 29
	.cfi_restore 28
	blr
.LVL43:
.L36:
.LCFI24:
	.cfi_restore_state
.LBB3604:
.LBB3602:
.LBB3600:
	.loc 6 50 0
	la 4,.LC1@l(28)
	b .L34
.LBE3600:
.LBE3602:
.LBE3604:
	.cfi_endproc
.LFE3317:
	.size	_ZN11idCmdSystem21ArgCompletion_IntegerILi0ELi2EEEvRK9idCmdArgsPFvPKcE, .-_ZN11idCmdSystem21ArgCompletion_IntegerILi0ELi2EEEvRK9idCmdArgsPFvPKcE
	.section	".text"
	.align 2
	.type	_ZeqRK5idStrPKc.isra.9, @function
_ZeqRK5idStrPKc.isra.9:
.LFB3423:
	.file 7 "d:/Data/Nintendo/DoomGX/src/game/anim/../../idlib/../idlib/Str.h"
	.loc 7 651 0
	.cfi_startproc
.LVL44:
	mflr 0
	stwu 1,-8(1)
.LCFI25:
	.cfi_def_cfa_offset 8
	.cfi_register 65, 0
	stw 0,12(1)
	.loc 7 653 0
	.cfi_offset 65, 4
	bl _ZN5idStr3CmpEPKcS1_
.LVL45:
	.loc 7 654 0
	lwz 0,12(1)
	cntlzw 3,3
	srwi 3,3,5
	mtlr 0
	addi 1,1,8
.LCFI26:
	.cfi_def_cfa_offset 0
	blr
	.cfi_endproc
.LFE3423:
	.size	_ZeqRK5idStrPKc.isra.9, .-_ZeqRK5idStrPKc.isra.9
	.section	.text._ZN14idFixedWindingD2Ev,"axG",@progbits,_ZN14idFixedWindingD5Ev,comdat
	.align 2
	.weak	_ZN14idFixedWindingD2Ev
	.type	_ZN14idFixedWindingD2Ev, @function
_ZN14idFixedWindingD2Ev:
.LFB1498:
	.loc 1 380 0
	.cfi_startproc
.LVL46:
.LBB3610:
	.loc 1 381 0
	li 0,0
.LBB3611:
.LBB3612:
.LBB3613:
	.loc 1 183 0
	lis 9,_ZTV9idWinding+8@ha
.LBE3613:
.LBE3612:
.LBE3611:
	.loc 1 381 0
	stw 0,8(3)
.LVL47:
.LBB3616:
.LBB3615:
.LBB3614:
	.loc 1 183 0
	la 0,_ZTV9idWinding+8@l(9)
	stw 0,0(3)
.LBE3614:
.LBE3615:
.LBE3616:
.LBE3610:
	.loc 1 382 0
	blr
	.cfi_endproc
.LFE1498:
	.size	_ZN14idFixedWindingD2Ev, .-_ZN14idFixedWindingD2Ev
	.section	.text._ZN9idWindingD0Ev,"axG",@progbits,_ZN9idWindingD5Ev,comdat
	.align 2
	.weak	_ZN9idWindingD0Ev
	.type	_ZN9idWindingD0Ev, @function
_ZN9idWindingD0Ev:
.LFB1463:
	.loc 1 183 0
	.cfi_startproc
.LVL48:
	mflr 0
	stwu 1,-16(1)
.LCFI27:
	.cfi_def_cfa_offset 16
	.cfi_register 65, 0
.LBB3620:
.LBB3621:
.LBB3622:
	lis 9,_ZTV9idWinding+8@ha
.LBE3622:
.LBE3621:
.LBE3620:
	stw 31,12(1)
	mr 31,3
	.cfi_offset 31, -4
.LVL49:
	stw 0,20(1)
.LBB3627:
.LBB3625:
.LBB3623:
	.loc 1 183 0
	la 0,_ZTV9idWinding+8@l(9)
	.cfi_offset 65, 4
	.loc 1 184 0
	lwz 3,8(3)
.LVL50:
	.loc 1 183 0
	stw 0,0(31)
	.loc 1 184 0
	cmpwi 7,3,0
	beq- 7,.L43
	bl _ZdaPv
.L43:
	.loc 1 185 0
	li 0,0
.LBE3623:
.LBE3625:
.LBE3627:
	.loc 1 186 0
	mr 3,31
.LBB3628:
.LBB3626:
.LBB3624:
	.loc 1 185 0
	stw 0,8(31)
.LBE3624:
.LBE3626:
.LBE3628:
	.loc 1 186 0
	bl _ZdlPv
	lwz 0,20(1)
	lwz 31,12(1)
.LVL51:
	mtlr 0
	addi 1,1,16
.LCFI28:
	.cfi_def_cfa_offset 0
	.cfi_restore 31
	blr
	.cfi_endproc
.LFE1463:
	.size	_ZN9idWindingD0Ev, .-_ZN9idWindingD0Ev
	.section	.text._ZN14idFixedWindingD0Ev,"axG",@progbits,_ZN14idFixedWindingD5Ev,comdat
	.align 2
	.weak	_ZN14idFixedWindingD0Ev
	.type	_ZN14idFixedWindingD0Ev, @function
_ZN14idFixedWindingD0Ev:
.LFB1500:
	.loc 1 380 0
	.cfi_startproc
.LVL52:
	mflr 0
	stwu 1,-8(1)
.LCFI29:
	.cfi_def_cfa_offset 8
	.cfi_register 65, 0
.LBB3635:
.LBB3636:
.LBB3637:
.LBB3638:
.LBB3639:
.LBB3640:
	.loc 1 183 0
	lis 11,_ZTV9idWinding+8@ha
.LBE3640:
.LBE3639:
.LBE3638:
.LBE3637:
.LBE3636:
.LBE3635:
	.loc 1 380 0
	stw 0,12(1)
.LBB3646:
.LBB3645:
.LBB3644:
	.loc 1 381 0
	li 0,0
	.cfi_offset 65, 4
	stw 0,8(3)
.LVL53:
.LBB3643:
.LBB3642:
.LBB3641:
	.loc 1 183 0
	la 0,_ZTV9idWinding+8@l(11)
	stw 0,0(3)
.LBE3641:
.LBE3642:
.LBE3643:
.LBE3644:
.LBE3645:
.LBE3646:
	.loc 1 382 0
	bl _ZdlPv
.LVL54:
	lwz 0,12(1)
	addi 1,1,8
.LCFI30:
	.cfi_def_cfa_offset 0
	mtlr 0
	blr
	.cfi_endproc
.LFE1500:
	.size	_ZN14idFixedWindingD0Ev, .-_ZN14idFixedWindingD0Ev
	.section	.text._ZN5idStrC2ERKS_,"axG",@progbits,_ZN5idStrC5ERKS_,comdat
	.align 2
	.weak	_ZN5idStrC2ERKS_
	.type	_ZN5idStrC2ERKS_, @function
_ZN5idStrC2ERKS_:
.LFB1596:
	.loc 7 369 0
	.cfi_startproc
.LVL55:
	mflr 0
	stwu 1,-24(1)
.LCFI31:
	.cfi_def_cfa_offset 24
	.cfi_register 65, 0
.LBB3659:
.LBB3660:
.LBB3661:
	.loc 7 356 0
	li 9,0
	.loc 7 357 0
	li 11,20
.LBE3661:
.LBE3660:
.LBE3659:
	.loc 7 369 0
	stw 29,12(1)
	mr 29,4
	.cfi_offset 29, -12
	stw 0,28(1)
.LBB3668:
.LBB3664:
.LBB3662:
	.loc 7 358 0
	addi 0,3,12
	.cfi_offset 65, 4
.LBE3662:
.LBE3664:
.LBE3668:
	.loc 7 369 0
	stw 31,20(1)
	mr 31,3
	.cfi_offset 31, -4
.LVL56:
	stw 30,16(1)
.LBB3669:
.LBB3665:
.LBB3663:
	.loc 7 356 0
	stw 9,0(3)
	.loc 7 357 0
	stw 11,8(3)
	.loc 7 358 0
	stw 0,4(3)
	.loc 7 359 0
	stb 9,12(3)
	.loc 4 5042 0
	lwz 30,0(4)
	.cfi_offset 30, -8
.LBE3663:
.LBE3665:
	.loc 7 374 0
	addi 4,30,1
.LVL57:
.LBB3666:
.LBB3667:
	.loc 7 350 0
	cmpwi 7,4,20
	ble+ 7,.L51
.LVL58:
	.loc 7 351 0
	li 5,1
	bl _ZN5idStr10ReAllocateEib
.LVL59:
	lwz 0,4(31)
.L51:
.LBE3667:
.LBE3666:
	.loc 7 375 0
	lwz 4,4(29)
	mr 3,0
	bl strcpy
	.loc 7 376 0
	stw 30,0(31)
.LBE3669:
	.loc 7 377 0
	lwz 0,28(1)
	lwz 29,12(1)
.LVL60:
	mtlr 0
	lwz 30,16(1)
	lwz 31,20(1)
.LVL61:
	addi 1,1,24
.LCFI32:
	.cfi_def_cfa_offset 0
	.cfi_restore 31
	.cfi_restore 30
	.cfi_restore 29
	blr
	.cfi_endproc
.LFE1596:
	.size	_ZN5idStrC2ERKS_, .-_ZN5idStrC2ERKS_
	.section	".text"
	.align 2
	.globl _ZN6idAnim7SetAnimEPK14idDeclModelDefPKcS4_iPPK9idMD5Anim
	.type	_ZN6idAnim7SetAnimEPK14idDeclModelDefPKcS4_iPPK9idMD5Anim, @function
_ZN6idAnim7SetAnimEPK14idDeclModelDefPKcS4_iPPK9idMD5Anim:
.LFB2819:
	.loc 4 118 0
	.cfi_startproc
.LVL62:
	mflr 0
	stwu 1,-40(1)
.LCFI33:
	.cfi_def_cfa_offset 40
	.cfi_register 65, 0
	stw 27,20(1)
	mr 27,8
	.cfi_offset 27, -20
	stw 28,24(1)
	mr 28,7
	.cfi_offset 28, -16
	stw 29,28(1)
	mr 29,6
	.cfi_offset 29, -12
	stw 30,32(1)
	mr 30,5
	.cfi_offset 30, -8
	stw 31,36(1)
	mr 31,3
	.cfi_offset 31, -4
	stw 0,44(1)
	stw 24,8(1)
	stw 25,12(1)
	stw 26,16(1)
.LBB3682:
	.loc 4 121 0
	stw 4,0(3)
.LVL63:
	.loc 4 123 0
	lwz 0,16(3)
	.cfi_offset 26, -24
	.cfi_offset 25, -28
	.cfi_offset 24, -32
	.cfi_offset 65, 4
	cmpwi 7,0,0
	ble- 7,.L53
	.loc 4 118 0
	addi 26,3,-4
.LBE3682:
	.loc 4 123 0
	li 25,0
.LBB3701:
	.loc 4 125 0
	li 24,0
.LVL64:
.L54:
	.loc 4 123 0 discriminator 2
	addi 26,26,4
	addi 25,25,1
	.loc 4 124 0 discriminator 2
	lwz 3,4(26)
	bl _ZNK9idMD5Anim12DecreaseRefsEv
.LVL65:
	.loc 4 125 0 discriminator 2
	stw 24,4(26)
	.loc 4 123 0 discriminator 2
	lwz 0,16(31)
	cmpw 7,0,25
	bgt+ 7,.L54
.LVL66:
.L53:
	.loc 4 129 0
	stw 28,16(31)
	.loc 4 130 0
	addi 3,31,52
	mr 4,30
	bl _ZN5idStraSEPKc
	.loc 4 131 0
	addi 3,31,20
	mr 4,29
	bl _ZN5idStraSEPKc
.LVL67:
	.loc 4 133 0
	cmpwi 7,28,0
	ble- 7,.L55
	li 30,0
.LVL68:
	li 29,0
.LVL69:
.L56:
	.loc 4 134 0 discriminator 2
	lwzx 3,27,30
	.loc 4 118 0 discriminator 2
	add 9,31,30
	.loc 4 133 0 discriminator 2
	addi 29,29,1
	addi 30,30,4
	.loc 4 134 0 discriminator 2
	stw 3,4(9)
	.loc 4 135 0 discriminator 2
	bl _ZNK9idMD5Anim12IncreaseRefsEv
.LVL70:
	.loc 4 133 0 discriminator 2
	cmpw 7,29,28
	bne+ 7,.L56
.LVL71:
.L55:
	.loc 4 140 0
	lwz 0,100(31)
	.loc 4 138 0
	li 9,0
	stb 9,116(31)
.LVL72:
	.loc 4 140 0
	cmpwi 7,0,0
	ble- 7,.L57
	li 28,0
.LVL73:
	li 29,0
.LVL74:
.L60:
	.loc 4 141 0
	lwz 9,112(31)
	.loc 4 140 0
	addi 29,29,1
.LVL75:
	.loc 4 141 0
	add 9,9,28
	.loc 4 140 0
	addi 28,28,12
	.loc 4 141 0
	lwz 30,4(9)
	cmpwi 7,30,0
.LBB3683:
.LBB3684:
.LBB3685:
	.loc 7 501 0
	mr 3,30
.LBE3685:
.LBE3684:
.LBE3683:
	.loc 4 141 0
	beq- 7,.L58
.LVL76:
.LBB3688:
.LBB3687:
.LBB3686:
	.loc 7 501 0
	bl _ZN5idStr8FreeDataEv
.LVL77:
.LBE3686:
.LBE3687:
.LBE3688:
	.loc 4 141 0
	mr 3,30
	bl _ZdlPv
	lwz 0,100(31)
.LVL78:
.L58:
	.loc 4 140 0
	cmpw 7,0,29
	bgt+ 7,.L60
.LVL79:
.L57:
.LBB3689:
.LBB3690:
	.file 8 "d:/Data/Nintendo/DoomGX/src/game/anim/../../idlib/../idlib/containers/List.h"
	.loc 8 193 0
	lwz 3,96(31)
	cmpwi 7,3,0
	beq- 7,.L61
	.loc 8 194 0
	bl _ZdaPv
.L61:
.LBE3690:
.LBE3689:
.LBB3693:
.LBB3694:
	.loc 8 193 0
	lwz 3,112(31)
.LBE3694:
.LBE3693:
.LBB3697:
.LBB3691:
	.loc 8 197 0
	li 0,0
	stw 0,96(31)
.LBE3691:
.LBE3697:
.LBB3698:
.LBB3695:
	.loc 8 193 0
	cmpwi 7,3,0
.LBE3695:
.LBE3698:
.LBB3699:
.LBB3692:
	.loc 8 198 0
	stw 0,84(31)
	.loc 8 199 0
	stw 0,88(31)
.LVL80:
.LBE3692:
.LBE3699:
.LBB3700:
.LBB3696:
	.loc 8 193 0
	beq- 7,.L62
	.loc 8 194 0
	bl _ZdaPv
.L62:
	.loc 8 197 0
	li 0,0
	stw 0,112(31)
	.loc 8 198 0
	stw 0,100(31)
	.loc 8 199 0
	stw 0,104(31)
.LBE3696:
.LBE3700:
.LBE3701:
	.loc 4 146 0
	lwz 0,44(1)
	lwz 24,8(1)
	mtlr 0
	lwz 25,12(1)
	lwz 26,16(1)
	lwz 27,20(1)
.LVL81:
	lwz 28,24(1)
	lwz 29,28(1)
	lwz 30,32(1)
	lwz 31,36(1)
.LVL82:
	addi 1,1,40
.LCFI34:
	.cfi_def_cfa_offset 0
	.cfi_restore 31
	.cfi_restore 30
	.cfi_restore 29
	.cfi_restore 28
	.cfi_restore 27
	.cfi_restore 26
	.cfi_restore 25
	.cfi_restore 24
	blr
	.cfi_endproc
.LFE2819:
	.size	_ZN6idAnim7SetAnimEPK14idDeclModelDefPKcS4_iPPK9idMD5Anim, .-_ZN6idAnim7SetAnimEPK14idDeclModelDefPKcS4_iPPK9idMD5Anim
	.align 2
	.globl _ZNK6idAnim4NameEv
	.type	_ZNK6idAnim4NameEv, @function
_ZNK6idAnim4NameEv:
.LFB2820:
	.loc 4 153 0
	.cfi_startproc
.LVL83:
	.loc 4 155 0
	lwz 3,24(3)
.LVL84:
	blr
	.cfi_endproc
.LFE2820:
	.size	_ZNK6idAnim4NameEv, .-_ZNK6idAnim4NameEv
	.align 2
	.globl _ZNK6idAnim8FullNameEv
	.type	_ZNK6idAnim8FullNameEv, @function
_ZNK6idAnim8FullNameEv:
.LFB2821:
	.loc 4 162 0
	.cfi_startproc
.LVL85:
	.loc 4 164 0
	lwz 3,56(3)
.LVL86:
	blr
	.cfi_endproc
.LFE2821:
	.size	_ZNK6idAnim8FullNameEv, .-_ZNK6idAnim8FullNameEv
	.align 2
	.globl _ZNK6idAnim7MD5AnimEi
	.type	_ZNK6idAnim7MD5AnimEi, @function
_ZNK6idAnim7MD5AnimEi:
.LFB2822:
	.loc 4 173 0
	.cfi_startproc
.LVL87:
	.loc 4 174 0
	cmpwi 7,3,-4
	.loc 4 173 0
	mr 9,3
	.loc 4 175 0
	li 3,0
.LVL88:
	.loc 4 174 0
	beqlr- 7
	.loc 4 174 0 is_stmt 0 discriminator 1
	lwz 0,4(9)
	cmpwi 7,0,0
	beqlr- 7
	.loc 4 177 0 is_stmt 1
	slwi 4,4,2
.LVL89:
	add 9,9,4
.LVL90:
	lwz 3,4(9)
	.loc 4 178 0
	blr
	.cfi_endproc
.LFE2822:
	.size	_ZNK6idAnim7MD5AnimEi, .-_ZNK6idAnim7MD5AnimEi
	.align 2
	.globl _ZNK6idAnim8ModelDefEv
	.type	_ZNK6idAnim8ModelDefEv, @function
_ZNK6idAnim8ModelDefEv:
.LFB2823:
	.loc 4 185 0
	.cfi_startproc
.LVL91:
	.loc 4 187 0
	lwz 3,0(3)
.LVL92:
	blr
	.cfi_endproc
.LFE2823:
	.size	_ZNK6idAnim8ModelDefEv, .-_ZNK6idAnim8ModelDefEv
	.align 2
	.globl _ZNK6idAnim6LengthEv
	.type	_ZNK6idAnim6LengthEv, @function
_ZNK6idAnim6LengthEv:
.LFB2824:
	.loc 4 194 0
	.cfi_startproc
.LVL93:
	mflr 0
	stwu 1,-8(1)
.LCFI35:
	.cfi_def_cfa_offset 8
	.cfi_register 65, 0
	stw 0,12(1)
	.loc 4 195 0
	lwz 0,4(3)
	.cfi_offset 65, 4
	.loc 4 196 0
	li 3,0
.LVL94:
	.loc 4 195 0
	cmpwi 7,0,0
	beq- 7,.L74
	.loc 4 199 0
	mr 3,0
	bl _ZNK9idMD5Anim6LengthEv
.L74:
	.loc 4 200 0
	lwz 0,12(1)
	addi 1,1,8
.LCFI36:
	.cfi_def_cfa_offset 0
	mtlr 0
	blr
	.cfi_endproc
.LFE2824:
	.size	_ZNK6idAnim6LengthEv, .-_ZNK6idAnim6LengthEv
	.align 2
	.globl _ZNK6idAnim9NumFramesEv
	.type	_ZNK6idAnim9NumFramesEv, @function
_ZNK6idAnim9NumFramesEv:
.LFB2825:
	.loc 4 207 0
	.cfi_startproc
.LVL95:
	mflr 0
	stwu 1,-8(1)
.LCFI37:
	.cfi_def_cfa_offset 8
	.cfi_register 65, 0
	stw 0,12(1)
	.loc 4 208 0
	lwz 0,4(3)
	.cfi_offset 65, 4
	.loc 4 209 0
	li 3,0
.LVL96:
	.loc 4 208 0
	cmpwi 7,0,0
	beq- 7,.L77
	.loc 4 212 0
	mr 3,0
	bl _ZNK9idMD5Anim9NumFramesEv
.L77:
	.loc 4 213 0
	lwz 0,12(1)
	addi 1,1,8
.LCFI38:
	.cfi_def_cfa_offset 0
	mtlr 0
	blr
	.cfi_endproc
.LFE2825:
	.size	_ZNK6idAnim9NumFramesEv, .-_ZNK6idAnim9NumFramesEv
	.align 2
	.globl _ZNK6idAnim8NumAnimsEv
	.type	_ZNK6idAnim8NumAnimsEv, @function
_ZNK6idAnim8NumAnimsEv:
.LFB2826:
	.loc 4 220 0
	.cfi_startproc
.LVL97:
	.loc 4 222 0
	lwz 3,16(3)
.LVL98:
	blr
	.cfi_endproc
.LFE2826:
	.size	_ZNK6idAnim8NumAnimsEv, .-_ZNK6idAnim8NumAnimsEv
	.align 2
	.globl _ZNK6idAnim18TotalMovementDeltaEv
	.type	_ZNK6idAnim18TotalMovementDeltaEv, @function
_ZNK6idAnim18TotalMovementDeltaEv:
.LFB2827:
	.loc 4 229 0
	.cfi_startproc
.LVL99:
	mflr 0
	stwu 1,-8(1)
.LCFI39:
	.cfi_def_cfa_offset 8
	.cfi_register 65, 0
	stw 0,12(1)
	.loc 4 230 0
	lwz 3,4(3)
.LVL100:
	cmpwi 7,3,0
	beq- 7,.L82
	.cfi_offset 65, 4
	.loc 4 234 0
	bl _ZNK9idMD5Anim18TotalMovementDeltaEv
	.loc 4 235 0
	lwz 0,12(1)
	addi 1,1,8
	.cfi_remember_state
.LCFI40:
	.cfi_def_cfa_offset 0
	mtlr 0
	blr
.L82:
.LCFI41:
	.cfi_restore_state
	lwz 0,12(1)
	.loc 4 231 0
	lis 3,vec3_origin@ha
	la 3,vec3_origin@l(3)
	.loc 4 235 0
	mtlr 0
	addi 1,1,8
.LCFI42:
	.cfi_def_cfa_offset 0
	blr
	.cfi_endproc
.LFE2827:
	.size	_ZNK6idAnim18TotalMovementDeltaEv, .-_ZNK6idAnim18TotalMovementDeltaEv
	.align 2
	.globl _ZNK6idAnim9GetOriginER6idVec3iii
	.type	_ZNK6idAnim9GetOriginER6idVec3iii, @function
_ZNK6idAnim9GetOriginER6idVec3iii:
.LFB2828:
	.loc 4 242 0
	.cfi_startproc
.LVL101:
	mflr 0
	stwu 1,-8(1)
.LCFI43:
	.cfi_def_cfa_offset 8
	.cfi_register 65, 0
	.loc 4 243 0
	slwi 5,5,2
.LVL102:
	add 5,3,5
	.loc 4 242 0
	stw 0,12(1)
	.loc 4 243 0
	lwz 3,4(5)
.LVL103:
	cmpwi 7,3,0
	beq- 7,.L86
	.cfi_offset 65, 4
	.loc 4 248 0
	mr 5,6
	mr 6,7
.LVL104:
	bl _ZNK9idMD5Anim9GetOriginER6idVec3ii
.LVL105:
	.loc 4 250 0
	lwz 0,12(1)
	.loc 4 249 0
	li 3,1
	.loc 4 250 0
	mtlr 0
	addi 1,1,8
	.cfi_remember_state
.LCFI44:
	.cfi_def_cfa_offset 0
	blr
.LVL106:
.L86:
.LCFI45:
	.cfi_restore_state
.LBB3706:
.LBB3707:
.LBB3708:
.LBB3709:
	.file 9 "d:/Data/Nintendo/DoomGX/src/game/anim/../../idlib/../idlib/math/Vector.h"
	.loc 9 416 0
	li 0,0
	stw 0,8(4)
	stw 0,4(4)
	stw 0,0(4)
.LBE3709:
.LBE3708:
.LBE3707:
.LBE3706:
	.loc 4 250 0
	lwz 0,12(1)
	addi 1,1,8
.LCFI46:
	.cfi_def_cfa_offset 0
	mtlr 0
	blr
	.cfi_endproc
.LFE2828:
	.size	_ZNK6idAnim9GetOriginER6idVec3iii, .-_ZNK6idAnim9GetOriginER6idVec3iii
	.align 2
	.globl _ZNK6idAnim17GetOriginRotationER6idQuatiii
	.type	_ZNK6idAnim17GetOriginRotationER6idQuatiii, @function
_ZNK6idAnim17GetOriginRotationER6idQuatiii:
.LFB2829:
	.loc 4 257 0
	.cfi_startproc
.LVL107:
	mflr 0
	stwu 1,-8(1)
.LCFI47:
	.cfi_def_cfa_offset 8
	.cfi_register 65, 0
	.loc 4 258 0
	slwi 5,5,2
.LVL108:
	add 5,3,5
	.loc 4 257 0
	stw 0,12(1)
	.loc 4 258 0
	lwz 3,4(5)
.LVL109:
	cmpwi 7,3,0
	beq- 7,.L90
	.cfi_offset 65, 4
	.loc 4 263 0
	mr 5,6
	mr 6,7
.LVL110:
	bl _ZNK9idMD5Anim17GetOriginRotationER6idQuatii
.LVL111:
	.loc 4 265 0
	lwz 0,12(1)
	.loc 4 264 0
	li 3,1
	.loc 4 265 0
	mtlr 0
	addi 1,1,8
	.cfi_remember_state
.LCFI48:
	.cfi_def_cfa_offset 0
	blr
.LVL112:
.L90:
.LCFI49:
	.cfi_restore_state
.LBB3714:
.LBB3715:
.LBB3716:
.LBB3717:
	.file 10 "d:/Data/Nintendo/DoomGX/src/game/anim/../../idlib/../idlib/math/Quat.h"
	.loc 10 248 0
	li 0,0
	.loc 10 251 0
	lis 11,.LC3@ha
	.loc 10 248 0
	stw 0,0(4)
	.loc 10 249 0
	stw 0,4(4)
	.loc 10 250 0
	stw 0,8(4)
	.loc 10 251 0
	lwz 0,.LC3@l(11)
	stw 0,12(4)
.LBE3717:
.LBE3716:
.LBE3715:
.LBE3714:
	.loc 4 265 0
	lwz 0,12(1)
	addi 1,1,8
.LCFI50:
	.cfi_def_cfa_offset 0
	mtlr 0
	blr
	.cfi_endproc
.LFE2829:
	.size	_ZNK6idAnim17GetOriginRotationER6idQuatiii, .-_ZNK6idAnim17GetOriginRotationER6idQuatiii
	.align 2
	.globl _ZNK6idAnim24FindFrameForFrameCommandE18frameCommandType_tPPK14frameCommand_t
	.type	_ZNK6idAnim24FindFrameForFrameCommandE18frameCommandType_tPPK14frameCommand_t, @function
_ZNK6idAnim24FindFrameForFrameCommandE18frameCommandType_tPPK14frameCommand_t:
.LFB2833:
	.loc 4 953 0
	.cfi_startproc
.LVL113:
	mflr 0
	stwu 1,-24(1)
.LCFI51:
	.cfi_def_cfa_offset 24
	.cfi_register 65, 0
	stw 29,12(1)
	mr 29,5
	.cfi_offset 29, -12
	stw 30,16(1)
	mr 30,4
	.cfi_offset 30, -8
	stw 31,20(1)
	mr 31,3
	.cfi_offset 31, -4
	stw 0,28(1)
.LBB3718:
	.loc 4 959 0
	lwz 0,100(3)
	.cfi_offset 65, 4
	.loc 4 960 0
	li 3,-1
.LVL114:
	.loc 4 959 0
	cmpwi 7,0,0
	beq- 7,.L92
	.loc 4 963 0
	lwz 3,4(31)
	bl _ZNK9idMD5Anim9NumFramesEv
.LVL115:
	.loc 4 964 0
	mr. 6,3
	ble- 0,.L93
	lwz 8,96(31)
	li 3,0
.LVL116:
.L99:
.LBB3719:
.LBB3720:
	.loc 4 953 0
	slwi 0,3,3
	.loc 8 573 0
	add 9,8,0
.LBE3720:
.LBE3719:
	.loc 4 965 0
	lwzx 0,8,0
	lwz 9,4(9)
.LVL117:
	add 0,9,0
.LVL118:
	.loc 4 966 0
	cmpw 7,9,0
	bge- 7,.L94
	.loc 4 5042 0
	lwz 10,112(31)
.LVL119:
.LBB3721:
.LBB3722:
	.loc 8 573 0
	mulli 11,9,12
.LBE3722:
.LBE3721:
	.loc 4 967 0
	lwzx 7,10,11
.LBB3726:
.LBB3723:
	.loc 8 573 0
	add 11,10,11
.LBE3723:
.LBE3726:
	.loc 4 967 0
	cmpw 7,7,30
	beq- 7,.L95
	.loc 4 953 0
	addi 9,9,1
.LVL120:
	.loc 4 969 0
	subf 11,9,0
	mulli 9,9,12
.LVL121:
	addi 11,11,1
	mtctr 11
	b .L97
.LVL122:
.L98:
	.loc 4 967 0
	lwz 0,0(11)
.LBB3727:
.LBB3724:
	.loc 8 573 0
	addi 9,9,12
.LBE3724:
.LBE3727:
	.loc 4 967 0
	cmpw 7,0,30
	beq- 7,.L95
.L97:
.LBB3728:
.LBB3725:
	.loc 8 573 0
	add 11,10,9
.LBE3725:
.LBE3728:
	.loc 4 966 0
	bdnz .L98
.L94:
	.loc 4 964 0
	addi 3,3,1
.LVL123:
	cmpw 7,3,6
	bne+ 7,.L99
.LVL124:
.L93:
	.loc 4 976 0
	cmpwi 7,29,0
	.loc 4 980 0
	li 3,-1
	.loc 4 976 0
	beq- 7,.L92
	.loc 4 977 0
	li 0,0
	stw 0,0(29)
.LVL125:
.L92:
.LBE3718:
	.loc 4 981 0
	lwz 0,28(1)
	lwz 29,12(1)
.LVL126:
	mtlr 0
	lwz 30,16(1)
.LVL127:
	lwz 31,20(1)
.LVL128:
	addi 1,1,24
	.cfi_remember_state
.LCFI52:
	.cfi_def_cfa_offset 0
	.cfi_restore 31
	.cfi_restore 30
	.cfi_restore 29
	blr
.LVL129:
.L95:
.LCFI53:
	.cfi_restore_state
.LBB3729:
	.loc 4 968 0
	cmpwi 7,29,0
	beq- 7,.L92
	.loc 4 969 0
	stw 11,0(29)
.LBE3729:
	.loc 4 981 0
	lwz 0,28(1)
	lwz 29,12(1)
.LVL130:
	mtlr 0
	lwz 30,16(1)
.LVL131:
	lwz 31,20(1)
.LVL132:
	addi 1,1,24
	.cfi_restore 29
	.cfi_restore 30
	.cfi_restore 31
.LCFI54:
	.cfi_def_cfa_offset 0
	blr
	.cfi_endproc
.LFE2833:
	.size	_ZNK6idAnim24FindFrameForFrameCommandE18frameCommandType_tPPK14frameCommand_t, .-_ZNK6idAnim24FindFrameForFrameCommandE18frameCommandType_tPPK14frameCommand_t
	.align 2
	.globl _ZNK6idAnim16HasFrameCommandsEv
	.type	_ZNK6idAnim16HasFrameCommandsEv, @function
_ZNK6idAnim16HasFrameCommandsEv:
.LFB2834:
	.loc 4 988 0
	.cfi_startproc
.LVL133:
	.loc 4 988 0
	lwz 3,100(3)
.LVL134:
	.loc 4 993 0
	.loc 4 988 0
	cntlzw 3,3
	srwi 3,3,5
	.loc 4 993 0
	xori 3,3,1
	blr
	.cfi_endproc
.LFE2834:
	.size	_ZNK6idAnim16HasFrameCommandsEv, .-_ZNK6idAnim16HasFrameCommandsEv
	.align 2
	.globl _ZN6idAnim12SetAnimFlagsERK11animFlags_t
	.type	_ZN6idAnim12SetAnimFlagsERK11animFlags_t, @function
_ZN6idAnim12SetAnimFlagsERK11animFlags_t:
.LFB2835:
	.loc 4 1000 0
	.cfi_startproc
.LVL135:
	.loc 4 1001 0
	lbz 0,0(4)
	stb 0,116(3)
	.loc 4 1002 0
	blr
	.cfi_endproc
.LFE2835:
	.size	_ZN6idAnim12SetAnimFlagsERK11animFlags_t, .-_ZN6idAnim12SetAnimFlagsERK11animFlags_t
	.align 2
	.globl _ZNK6idAnim12GetAnimFlagsEv
	.type	_ZNK6idAnim12GetAnimFlagsEv, @function
_ZNK6idAnim12GetAnimFlagsEv:
.LFB2836:
	.loc 4 1009 0
	.cfi_startproc
.LVL136:
	.loc 4 1011 0
	addi 3,3,116
.LVL137:
	blr
	.cfi_endproc
.LFE2836:
	.size	_ZNK6idAnim12GetAnimFlagsEv, .-_ZNK6idAnim12GetAnimFlagsEv
	.align 2
	.globl _ZNK11idAnimBlend4SaveEP10idSaveGame
	.type	_ZNK11idAnimBlend4SaveEP10idSaveGame, @function
_ZNK11idAnimBlend4SaveEP10idSaveGame:
.LFB2840:
	.loc 4 1039 0
	.cfi_startproc
.LVL138:
	mflr 0
	stwu 1,-16(1)
.LCFI55:
	.cfi_def_cfa_offset 16
	.cfi_register 65, 0
	stw 30,8(1)
	mr 30,4
	.cfi_offset 30, -8
	stw 0,20(1)
	stw 31,12(1)
	.loc 4 1039 0
	mr 31,3
	.cfi_offset 31, -4
	.cfi_offset 65, 4
.LBB3730:
	.loc 4 1042 0
	lwz 4,4(3)
.LVL139:
	mr 3,30
.LVL140:
	bl _ZN10idSaveGame8WriteIntEi
	.loc 4 1043 0
	lwz 4,8(31)
	mr 3,30
	bl _ZN10idSaveGame8WriteIntEi
	.loc 4 1044 0
	lwz 4,12(31)
	mr 3,30
	bl _ZN10idSaveGame8WriteIntEi
	.loc 4 1045 0
	lfs 1,16(31)
	mr 3,30
	bl _ZN10idSaveGame10WriteFloatEf
	.loc 4 1047 0
	lwz 4,20(31)
	mr 3,30
	bl _ZN10idSaveGame8WriteIntEi
	.loc 4 1048 0
	lwz 4,24(31)
	mr 3,30
	bl _ZN10idSaveGame8WriteIntEi
	.loc 4 1049 0
	lfs 1,28(31)
	mr 3,30
	bl _ZN10idSaveGame10WriteFloatEf
	.loc 4 1050 0
	lfs 1,32(31)
	mr 3,30
	bl _ZN10idSaveGame10WriteFloatEf
.LVL141:
	.loc 4 1053 0
	lfs 1,36(31)
	mr 3,30
	bl _ZN10idSaveGame10WriteFloatEf
.LVL142:
	lfs 1,40(31)
	mr 3,30
	bl _ZN10idSaveGame10WriteFloatEf
.LVL143:
	lfs 1,44(31)
	mr 3,30
	bl _ZN10idSaveGame10WriteFloatEf
.LVL144:
	.loc 4 1055 0
	lha 4,48(31)
	mr 3,30
	bl _ZN10idSaveGame10WriteShortEs
	.loc 4 1056 0
	lha 4,50(31)
	mr 3,30
	bl _ZN10idSaveGame10WriteShortEs
	.loc 4 1057 0
	lha 4,52(31)
	mr 3,30
	bl _ZN10idSaveGame10WriteShortEs
	.loc 4 1058 0
	lbz 4,54(31)
	mr 3,30
	bl _ZN10idSaveGame9WriteBoolEb
	.loc 4 1059 0
	lbz 4,55(31)
	mr 3,30
	bl _ZN10idSaveGame9WriteBoolEb
.LBE3730:
	.loc 4 1060 0
	lwz 0,20(1)
	lwz 30,8(1)
.LVL145:
	mtlr 0
	lwz 31,12(1)
.LVL146:
	addi 1,1,16
.LCFI56:
	.cfi_def_cfa_offset 0
	.cfi_restore 31
	.cfi_restore 30
	blr
	.cfi_endproc
.LFE2840:
	.size	_ZNK11idAnimBlend4SaveEP10idSaveGame, .-_ZNK11idAnimBlend4SaveEP10idSaveGame
	.align 2
	.globl _ZN11idAnimBlend7RestoreEP13idRestoreGamePK14idDeclModelDef
	.type	_ZN11idAnimBlend7RestoreEP13idRestoreGamePK14idDeclModelDef, @function
_ZN11idAnimBlend7RestoreEP13idRestoreGamePK14idDeclModelDef:
.LFB2841:
	.loc 4 1069 0
	.cfi_startproc
.LVL147:
	stwu 1,-24(1)
.LCFI57:
	.cfi_def_cfa_offset 24
	mflr 0
	stw 31,20(1)
	mr 31,3
	.cfi_offset 31, -4
	.cfi_register 65, 0
	stw 0,28(1)
	stw 29,12(1)
	mr 29,5
	.cfi_offset 29, -12
	.cfi_offset 65, 4
	stw 30,16(1)
	mr 30,4
	.cfi_offset 30, -8
	stw 28,8(1)
.LBB3731:
	.loc 4 1074 0
	addi 4,3,4
.LVL148:
	.loc 4 1072 0
	stw 5,0(31)
	.loc 4 1074 0
	mr 3,30
.LVL149:
	.cfi_offset 28, -16
	bl _ZN13idRestoreGame7ReadIntERi
.LVL150:
	.loc 4 1075 0
	mr 3,30
	addi 4,31,8
	bl _ZN13idRestoreGame7ReadIntERi
	.loc 4 1076 0
	mr 3,30
	addi 4,31,12
	bl _ZN13idRestoreGame7ReadIntERi
	.loc 4 1077 0
	mr 3,30
	addi 4,31,16
	bl _ZN13idRestoreGame9ReadFloatERf
	.loc 4 1079 0
	mr 3,30
	addi 4,31,20
	bl _ZN13idRestoreGame7ReadIntERi
	.loc 4 1080 0
	mr 3,30
	addi 4,31,24
	bl _ZN13idRestoreGame7ReadIntERi
	.loc 4 1081 0
	mr 3,30
	addi 4,31,28
	bl _ZN13idRestoreGame9ReadFloatERf
	.loc 4 1082 0
	mr 3,30
	addi 4,31,32
	bl _ZN13idRestoreGame9ReadFloatERf
.LVL151:
	.loc 4 1085 0
	mr 3,30
	addi 4,31,36
	bl _ZN13idRestoreGame9ReadFloatERf
.LVL152:
	mr 3,30
	addi 4,31,40
	bl _ZN13idRestoreGame9ReadFloatERf
.LVL153:
	mr 3,30
	addi 4,31,44
	bl _ZN13idRestoreGame9ReadFloatERf
.LVL154:
	.loc 4 1087 0
	mr 3,30
	addi 4,31,48
	bl _ZN13idRestoreGame9ReadShortERs
	.loc 4 1088 0
	mr 3,30
	addi 4,31,50
	bl _ZN13idRestoreGame9ReadShortERs
	.loc 4 1089 0
	mr 3,30
	addi 4,31,52
	bl _ZN13idRestoreGame9ReadShortERs
	.loc 4 1090 0
	cmpwi 7,29,0
	beq- 7,.L116
	.loc 4 1092 0
	lha 28,52(31)
	cmpwi 7,28,0
	blt- 7,.L113
.LVL155:
.LBB3732:
.LBB3733:
	.loc 4 2815 0 discriminator 2
	lwz 9,136(29)
	addi 0,9,1
.LBE3733:
.LBE3732:
	.loc 4 1092 0 discriminator 2
	cmpw 7,28,0
	ble- 7,.L111
.LVL156:
.L113:
.LBB3734:
.LBB3735:
	.loc 4 2907 0 discriminator 4
	lwz 3,132(29)
	cmpwi 7,3,0
	beq- 7,.L115
	.loc 4 2908 0
	lwz 9,0(3)
	lwz 0,60(9)
	mtctr 0
	bctrl
	mr 6,3
.L114:
.LBE3735:
.LBE3734:
	.loc 4 1093 0
	lis 3,gameLocal@ha
	lis 4,.LC4@ha
	la 3,gameLocal@l(3)
	la 4,.LC4@l(4)
	mr 5,28
	crxor 6,6,6
	bl _ZNK11idGameLocal7WarningEPKcz
	.loc 4 1094 0
	li 0,0
	sth 0,52(31)
.LVL157:
.L111:
	.loc 4 1096 0
	addi 4,31,54
	mr 3,30
	bl _ZN13idRestoreGame8ReadBoolERb
	.loc 4 1097 0
	mr 3,30
	addi 4,31,55
	bl _ZN13idRestoreGame8ReadBoolERb
.LBE3731:
	.loc 4 1098 0
	lwz 0,28(1)
	lwz 28,8(1)
	mtlr 0
	lwz 29,12(1)
.LVL158:
	lwz 30,16(1)
.LVL159:
	lwz 31,20(1)
.LVL160:
	addi 1,1,24
	.cfi_remember_state
.LCFI58:
	.cfi_def_cfa_offset 0
	.cfi_restore 31
	.cfi_restore 30
	.cfi_restore 29
	.cfi_restore 28
	blr
.LVL161:
.L116:
.LCFI59:
	.cfi_restore_state
.LBB3738:
	.loc 4 1091 0
	sth 29,52(31)
	.loc 4 1096 0
	addi 4,31,54
	mr 3,30
	bl _ZN13idRestoreGame8ReadBoolERb
	.loc 4 1097 0
	mr 3,30
	addi 4,31,55
	bl _ZN13idRestoreGame8ReadBoolERb
.LBE3738:
	.loc 4 1098 0
	lwz 0,28(1)
	lwz 28,8(1)
	mtlr 0
	lwz 29,12(1)
.LVL162:
	lwz 30,16(1)
.LVL163:
	lwz 31,20(1)
.LVL164:
	addi 1,1,24
	.cfi_remember_state
	.cfi_restore 28
	.cfi_restore 29
	.cfi_restore 30
	.cfi_restore 31
.LCFI60:
	.cfi_def_cfa_offset 0
	blr
.LVL165:
.L115:
.LCFI61:
	.cfi_restore_state
.LBB3739:
.LBB3737:
.LBB3736:
	.loc 4 2910 0
	lis 6,.LC1@ha
	la 6,.LC1@l(6)
	b .L114
.LBE3736:
.LBE3737:
.LBE3739:
	.cfi_endproc
.LFE2841:
	.size	_ZN11idAnimBlend7RestoreEP13idRestoreGamePK14idDeclModelDef, .-_ZN11idAnimBlend7RestoreEP13idRestoreGamePK14idDeclModelDef
	.align 2
	.globl _ZN11idAnimBlend5ResetEPK14idDeclModelDef
	.type	_ZN11idAnimBlend5ResetEPK14idDeclModelDef, @function
_ZN11idAnimBlend5ResetEPK14idDeclModelDef:
.LFB2842:
	.loc 4 1105 0
	.cfi_startproc
.LVL166:
	.loc 4 1111 0
	lis 8,.LC3@ha
	.loc 4 1108 0
	li 0,0
	.loc 4 1111 0
	lwz 8,.LC3@l(8)
	.loc 4 1107 0
	li 9,1
	.loc 4 1119 0
	li 11,0
	.loc 4 1106 0
	stw 4,0(3)
	.loc 4 1107 0
	sth 9,48(3)
	.loc 4 1123 0
	.loc 4 1108 0
	stw 0,4(3)
	.loc 4 1109 0
	stw 0,8(3)
	.loc 4 1110 0
	stw 0,12(3)
	.loc 4 1111 0
	stw 8,16(3)
	.loc 4 1112 0
	sth 0,50(3)
	.loc 4 1113 0
	stb 9,54(3)
	.loc 4 1114 0
	stb 9,55(3)
	.loc 4 1115 0
	sth 0,52(3)
	.loc 4 1117 0
	stw 0,36(3)
	stw 0,40(3)
	stw 0,44(3)
	.loc 4 1119 0
	stw 11,28(3)
	.loc 4 1120 0
	stw 11,32(3)
	.loc 4 1121 0
	stw 0,20(3)
	.loc 4 1122 0
	stw 0,24(3)
	.loc 4 1123 0
	blr
	.cfi_endproc
.LFE2842:
	.size	_ZN11idAnimBlend5ResetEPK14idDeclModelDef, .-_ZN11idAnimBlend5ResetEPK14idDeclModelDef
	.align 2
	.globl _ZN11idAnimBlendC2Ev
	.type	_ZN11idAnimBlendC2Ev, @function
_ZN11idAnimBlendC2Ev:
.LFB2838:
	.loc 4 1024 0
	.cfi_startproc
.LVL167:
	stwu 1,-16(1)
.LCFI62:
	.cfi_def_cfa_offset 16
	mflr 0
.LBB3740:
	.loc 4 1026 0
	li 4,56
.LBE3740:
	.loc 4 1024 0
	stw 31,12(1)
	mr 31,3
	.cfi_offset 31, -4
	.cfi_register 65, 0
.LBB3741:
	.loc 4 1026 0
	lis 3,.LC5@ha
.LVL168:
.LBE3741:
	.loc 4 1024 0
	stw 0,20(1)
.LBB3742:
	.loc 4 1026 0
	la 3,.LC5@l(3)
	.cfi_offset 65, 4
	crxor 6,6,6
	bl _Z15Sys_DebugPrintfPKcz
.LBE3742:
	.loc 4 1030 0
	lwz 0,20(1)
.LBB3743:
	.loc 4 1029 0
	mr 3,31
.LBE3743:
	.loc 4 1030 0
	lwz 31,12(1)
.LVL169:
	mtlr 0
.LBB3744:
	.loc 4 1029 0
	li 4,0
.LBE3744:
	.loc 4 1030 0
	addi 1,1,16
.LCFI63:
	.cfi_def_cfa_offset 0
	.cfi_restore 31
.LBB3745:
	.loc 4 1029 0
	b _ZN11idAnimBlend5ResetEPK14idDeclModelDef
.LVL170:
.LBE3745:
	.cfi_endproc
.LFE2838:
	.size	_ZN11idAnimBlendC2Ev, .-_ZN11idAnimBlendC2Ev
	.align 2
	.globl _ZNK11idAnimBlend9GetWeightEi
	.type	_ZNK11idAnimBlend9GetWeightEi, @function
_ZNK11idAnimBlend9GetWeightEi:
.LFB2847:
	.loc 4 1186 0
	.cfi_startproc
.LVL171:
.LBB3746:
	.loc 4 1191 0
	lwz 0,20(3)
.LVL172:
.LBE3746:
	.loc 4 1186 0
	stwu 1,-24(1)
.LCFI64:
	.cfi_def_cfa_offset 24
.LBB3747:
	.loc 4 1192 0
	subf. 0,0,4
	ble- 0,.L123
	.loc 4 1194 0
	lwz 9,24(3)
	cmpw 7,0,9
	bge- 7,.L124
.LVL173:
	.loc 4 1197 0
	lis 11,0x4330
	xoris 9,9,0x8000
	xoris 0,0,0x8000
	stw 9,20(1)
	stw 0,12(1)
	lis 9,.LC7@ha
	stw 11,8(1)
	stw 11,16(1)
	lfs 0,.LC7@l(9)
	lfd 12,8(1)
	lfd 13,16(1)
.LBE3747:
	.loc 4 1202 0
.LBB3748:
	.loc 4 1197 0
	fsub 12,12,0
	.loc 4 1198 0
	lfs 1,32(3)
	.loc 4 1197 0
	fsub 13,13,0
	.loc 4 1198 0
	lfs 0,28(3)
.LBE3748:
	.loc 4 1202 0
	addi 1,1,24
	.cfi_remember_state
.LCFI65:
	.cfi_def_cfa_offset 0
.LBB3749:
	.loc 4 1197 0
	frsp 12,12
	frsp 13,13
	.loc 4 1198 0
	fsubs 1,1,0
	.loc 4 1197 0
	fdivs 13,12,13
	.loc 4 1198 0
	fmadds 1,1,13,0
.LVL174:
.LBE3749:
	.loc 4 1202 0
	blr
.LVL175:
.L124:
.LCFI66:
	.cfi_restore_state
.LBB3750:
	.loc 4 1195 0
	lfs 1,32(3)
.LVL176:
.LBE3750:
	.loc 4 1202 0
	addi 1,1,24
	.cfi_remember_state
.LCFI67:
	.cfi_def_cfa_offset 0
	blr
.LVL177:
.L123:
.LCFI68:
	.cfi_restore_state
.LBB3751:
	.loc 4 1193 0
	lfs 1,28(3)
.LVL178:
.LBE3751:
	.loc 4 1202 0
	addi 1,1,24
.LCFI69:
	.cfi_def_cfa_offset 0
	blr
	.cfi_endproc
.LFE2847:
	.size	_ZNK11idAnimBlend9GetWeightEi, .-_ZNK11idAnimBlend9GetWeightEi
	.align 2
	.globl _ZNK11idAnimBlend14GetFinalWeightEv
	.type	_ZNK11idAnimBlend14GetFinalWeightEv, @function
_ZNK11idAnimBlend14GetFinalWeightEv:
.LFB2848:
	.loc 4 1209 0
	.cfi_startproc
.LVL179:
	.loc 4 1211 0
	lfs 1,32(3)
	blr
	.cfi_endproc
.LFE2848:
	.size	_ZNK11idAnimBlend14GetFinalWeightEv, .-_ZNK11idAnimBlend14GetFinalWeightEv
	.align 2
	.globl _ZN11idAnimBlend9SetWeightEfii
	.type	_ZN11idAnimBlend9SetWeightEfii, @function
_ZN11idAnimBlend9SetWeightEfii:
.LFB2849:
	.loc 4 1218 0
	.cfi_startproc
.LVL180:
.LBB3752:
.LBB3753:
	.loc 4 1191 0
	lwz 0,20(3)
.LVL181:
.LBE3753:
.LBE3752:
	.loc 4 1218 0
	stwu 1,-24(1)
.LCFI70:
	.cfi_def_cfa_offset 24
.LBB3756:
.LBB3754:
	.loc 4 1192 0
	subf. 0,0,4
	ble- 0,.L131
.LVL182:
	.loc 4 1194 0
	lwz 9,24(3)
	cmpw 7,0,9
	bge- 7,.L132
.LVL183:
	.loc 4 1197 0
	lis 11,0x4330
	xoris 9,9,0x8000
	xoris 0,0,0x8000
	stw 9,20(1)
	stw 0,12(1)
	lis 9,.LC7@ha
	stw 11,8(1)
	stw 11,16(1)
	lfs 13,.LC7@l(9)
	lfd 11,8(1)
	lfd 0,16(1)
	fsub 11,11,13
	.loc 4 1198 0
	lfs 12,32(3)
	.loc 4 1197 0
	fsub 0,0,13
	.loc 4 1198 0
	lfs 13,28(3)
	.loc 4 1197 0
	frsp 11,11
	frsp 0,0
	.loc 4 1198 0
	fsubs 12,12,13
	.loc 4 1197 0
	fdivs 0,11,0
	.loc 4 1198 0
	fmadds 0,0,12,13
.LVL184:
.L128:
.LBE3754:
.LBE3756:
	.loc 4 1224 0
	lis 9,.LC8@ha
	.loc 4 1221 0
	addi 0,4,-1
	.loc 4 1224 0
	lfs 13,.LC8@l(9)
	.loc 4 1219 0
	stfs 0,28(3)
	.loc 4 1224 0
	fcmpu 7,1,13
	.loc 4 1220 0
	stfs 1,32(3)
	.loc 4 1221 0
	stw 0,20(3)
	.loc 4 1222 0
	stw 5,24(3)
	.loc 4 1224 0
	bne- 7,.L126
	.loc 4 1225 0
	add 4,4,5
.LVL185:
	stw 4,8(3)
.L126:
	.loc 4 1227 0
	addi 1,1,24
	.cfi_remember_state
.LCFI71:
	.cfi_def_cfa_offset 0
	blr
.LVL186:
.L132:
.LCFI72:
	.cfi_restore_state
.LBB3757:
.LBB3755:
	.loc 4 1195 0
	lfs 0,32(3)
.LVL187:
	b .L128
.LVL188:
.L131:
	.loc 4 1193 0
	lfs 0,28(3)
.LVL189:
	b .L128
.LBE3755:
.LBE3757:
	.cfi_endproc
.LFE2849:
	.size	_ZN11idAnimBlend9SetWeightEfii, .-_ZN11idAnimBlend9SetWeightEfii
	.align 2
	.globl _ZN11idAnimBlend8SetFrameEPK14idDeclModelDefiiii
	.type	_ZN11idAnimBlend8SetFrameEPK14idDeclModelDefiiii, @function
_ZN11idAnimBlend8SetFrameEPK14idDeclModelDefiiii:
.LFB2852:
	.loc 4 1267 0
	.cfi_startproc
.LVL190:
	stwu 1,-48(1)
.LCFI73:
	.cfi_def_cfa_offset 48
	mflr 0
	stw 31,44(1)
	mr 31,4
	.cfi_offset 31, -4
	.cfi_register 65, 0
	stw 26,24(1)
	mr 26,8
	.cfi_offset 26, -24
	stw 27,28(1)
	mr 27,7
	.cfi_offset 27, -20
	stw 28,32(1)
	mr 28,6
	.cfi_offset 28, -16
	stw 29,36(1)
	mr 29,5
	.cfi_offset 29, -12
	stw 30,40(1)
	mr 30,3
	.cfi_offset 30, -8
	stw 0,52(1)
	stw 23,12(1)
	stw 24,16(1)
	stw 25,20(1)
.LBB3758:
	.loc 4 1268 0
	.cfi_offset 25, -28
	.cfi_offset 24, -32
	.cfi_offset 23, -36
	.cfi_offset 65, 4
	bl _ZN11idAnimBlend5ResetEPK14idDeclModelDef
.LVL191:
	.loc 4 1269 0
	cmpwi 7,31,0
	beq- 7,.L133
.LVL192:
.LBB3759:
.LBB3760:
	.loc 4 2845 0
	cmpwi 7,29,0
	ble- 7,.L133
	lwz 0,136(31)
	cmpw 7,29,0
	bgt- 7,.L133
.LVL193:
.LBB3761:
.LBB3762:
	.loc 8 573 0
	addi 0,29,-1
.LBE3762:
.LBE3761:
	.loc 4 2849 0
	lwz 9,148(31)
	slwi 0,0,2
	lwzx 24,9,0
.LVL194:
.LBE3760:
.LBE3759:
	.loc 4 1274 0
	cmpwi 7,24,0
	beq- 7,.L133
.LVL195:
.LBB3763:
.LBB3764:
	.loc 4 174 0
	lwz 25,4(24)
.LVL196:
	.loc 4 5042 0
	lwz 23,20(31)
.LBE3764:
.LBE3763:
	.loc 4 1279 0
	mr 3,25
	bl _ZNK9idMD5Anim9NumJointsEv
.LVL197:
	cmpw 7,23,3
	beq- 7,.L136
.LVL198:
.LBB3765:
.LBB3766:
	.loc 4 2907 0
	lwz 3,132(31)
	cmpwi 7,3,0
	beq- 7,.L141
	.loc 4 2908 0
	lwz 9,0(3)
	lwz 0,60(9)
	mtctr 0
	bctrl
	mr 31,3
.LVL199:
.L137:
.LBE3766:
.LBE3765:
	.loc 4 1280 0
	mr 3,25
	bl _ZNK9idMD5Anim4NameEv
	lis 4,.LC9@ha
	mr 6,3
	lis 3,gameLocal@ha
	la 3,gameLocal@l(3)
	la 4,.LC9@l(4)
	mr 5,31
	crxor 6,6,6
	bl _ZNK11idGameLocal7WarningEPKcz
.LVL200:
.L133:
.LBE3758:
	.loc 4 1303 0
	lwz 0,52(1)
	lwz 23,12(1)
	mtlr 0
	lwz 24,16(1)
	lwz 25,20(1)
	lwz 26,24(1)
.LVL201:
	lwz 27,28(1)
.LVL202:
	lwz 28,32(1)
.LVL203:
	lwz 29,36(1)
.LVL204:
	lwz 30,40(1)
.LVL205:
	lwz 31,44(1)
	addi 1,1,48
	.cfi_remember_state
.LCFI74:
	.cfi_def_cfa_offset 0
	.cfi_restore 31
	.cfi_restore 30
	.cfi_restore 29
	.cfi_restore 28
	.cfi_restore 27
	.cfi_restore 26
	.cfi_restore 25
	.cfi_restore 24
	.cfi_restore 23
	blr
.LVL206:
.L136:
.LCFI75:
	.cfi_restore_state
.LBB3769:
	.loc 4 1289 0
	extsh 28,28
.LVL207:
	.loc 4 1288 0
	lis 31,.LC3@ha
.LVL208:
	.loc 4 1292 0
	cmpwi 7,28,0
	.loc 4 1288 0
	lwz 9,.LC3@l(31)
	.loc 4 1286 0
	li 0,-1
	.loc 4 1284 0
	sth 29,52(30)
	.loc 4 1285 0
	stw 27,4(30)
	.loc 4 1286 0
	stw 0,8(30)
	.loc 4 1287 0
	sth 0,48(30)
	.loc 4 1288 0
	stw 9,36(30)
	.loc 4 1289 0
	sth 28,50(30)
	.loc 4 1292 0
	ble- 7,.L144
	.loc 4 1294 0
	mr 3,24
	bl _ZNK6idAnim9NumFramesEv
	cmpw 7,28,3
	bgt- 7,.L145
.L139:
	.loc 4 1299 0
	lwz 0,.LC3@l(31)
	.loc 4 1300 0
	addi 27,27,-1
.LVL209:
	stw 27,20(30)
	.loc 4 1299 0
	stw 0,32(30)
	.loc 4 1302 0
	li 0,0
	.loc 4 1301 0
	stw 26,24(30)
	.loc 4 1302 0
	stw 0,28(30)
.LBE3769:
	.loc 4 1303 0
	lwz 0,52(1)
	lwz 23,12(1)
	mtlr 0
	lwz 24,16(1)
.LVL210:
	lwz 25,20(1)
	lwz 26,24(1)
.LVL211:
	lwz 27,28(1)
.LVL212:
	lwz 28,32(1)
	lwz 29,36(1)
.LVL213:
	lwz 30,40(1)
.LVL214:
	lwz 31,44(1)
	addi 1,1,48
	.cfi_remember_state
	.cfi_restore 23
	.cfi_restore 24
	.cfi_restore 25
	.cfi_restore 26
	.cfi_restore 27
	.cfi_restore 28
	.cfi_restore 29
	.cfi_restore 30
	.cfi_restore 31
.LCFI76:
	.cfi_def_cfa_offset 0
	blr
.LVL215:
.L144:
.LCFI77:
	.cfi_restore_state
.LBB3770:
	.loc 4 1293 0
	li 0,1
	sth 0,50(30)
	b .L139
.LVL216:
.L141:
.LBB3768:
.LBB3767:
	.loc 4 2910 0
	lis 31,.LC1@ha
.LVL217:
	la 31,.LC1@l(31)
	b .L137
.LVL218:
.L145:
.LBE3767:
.LBE3768:
	.loc 4 1295 0
	mr 3,24
	bl _ZNK6idAnim9NumFramesEv
	sth 3,50(30)
	b .L139
.LBE3770:
	.cfi_endproc
.LFE2852:
	.size	_ZN11idAnimBlend8SetFrameEPK14idDeclModelDefiiii, .-_ZN11idAnimBlend8SetFrameEPK14idDeclModelDefiiii
	.align 2
	.globl _ZN11idAnimBlend9CycleAnimEPK14idDeclModelDefiii
	.type	_ZN11idAnimBlend9CycleAnimEPK14idDeclModelDefiii, @function
_ZN11idAnimBlend9CycleAnimEPK14idDeclModelDefiii:
.LFB2853:
	.loc 4 1310 0
	.cfi_startproc
.LVL219:
	stwu 1,-64(1)
.LCFI78:
	.cfi_def_cfa_offset 64
	mflr 0
	stw 31,60(1)
	mr 31,4
	.cfi_offset 31, -4
	.cfi_register 65, 0
	stw 27,44(1)
	mr 27,7
	.cfi_offset 27, -20
	stw 28,48(1)
	mr 28,6
	.cfi_offset 28, -16
	stw 29,52(1)
	mr 29,5
	.cfi_offset 29, -12
	stw 30,56(1)
	mr 30,3
	.cfi_offset 30, -8
	stw 0,68(1)
	stw 24,32(1)
	stw 25,36(1)
	stw 26,40(1)
.LBB3771:
	.loc 4 1311 0
	.cfi_offset 26, -24
	.cfi_offset 25, -28
	.cfi_offset 24, -32
	.cfi_offset 65, 4
	bl _ZN11idAnimBlend5ResetEPK14idDeclModelDef
.LVL220:
	.loc 4 1312 0
	cmpwi 7,31,0
	beq- 7,.L146
.LVL221:
.LBB3772:
.LBB3773:
	.loc 4 2845 0
	cmpwi 7,29,0
	ble- 7,.L146
	lwz 0,136(31)
	cmpw 7,29,0
	bgt- 7,.L146
.LVL222:
.LBB3774:
.LBB3775:
	.loc 8 573 0
	addi 0,29,-1
.LBE3775:
.LBE3774:
	.loc 4 2849 0
	lwz 9,148(31)
	slwi 0,0,2
	lwzx 25,9,0
.LVL223:
.LBE3773:
.LBE3772:
	.loc 4 1317 0
	cmpwi 7,25,0
	beq- 7,.L146
.LVL224:
.LBB3776:
.LBB3777:
	.loc 4 174 0
	lwz 26,4(25)
.LVL225:
	.loc 4 5042 0
	lwz 24,20(31)
.LBE3777:
.LBE3776:
	.loc 4 1322 0
	mr 3,26
	bl _ZNK9idMD5Anim9NumJointsEv
.LVL226:
	cmpw 7,24,3
	beq- 7,.L149
.LVL227:
.LBB3778:
.LBB3779:
	.loc 4 2907 0
	lwz 3,132(31)
	cmpwi 7,3,0
	beq- 7,.L154
	.loc 4 2908 0
	lwz 9,0(3)
	lwz 0,60(9)
	mtctr 0
	bctrl
	mr 31,3
.LVL228:
.L150:
.LBE3779:
.LBE3778:
	.loc 4 1323 0
	mr 3,26
	bl _ZNK9idMD5Anim4NameEv
	lis 4,.LC9@ha
	mr 6,3
	lis 3,gameLocal@ha
	la 3,gameLocal@l(3)
	la 4,.LC9@l(4)
	mr 5,31
	crxor 6,6,6
	bl _ZNK11idGameLocal7WarningEPKcz
.LVL229:
.L146:
.LBE3771:
	.loc 4 1343 0
	lwz 0,68(1)
	lwz 24,32(1)
	mtlr 0
	lwz 25,36(1)
	lwz 26,40(1)
	lwz 27,44(1)
.LVL230:
	lwz 28,48(1)
.LVL231:
	lwz 29,52(1)
.LVL232:
	lwz 30,56(1)
.LVL233:
	lwz 31,60(1)
	addi 1,1,64
	.cfi_remember_state
.LCFI79:
	.cfi_def_cfa_offset 0
	.cfi_restore 31
	.cfi_restore 30
	.cfi_restore 29
	.cfi_restore 28
	.cfi_restore 27
	.cfi_restore 26
	.cfi_restore 25
	.cfi_restore 24
	blr
.LVL234:
.L149:
.LCFI80:
	.cfi_restore_state
.LBB3800:
	.loc 4 1328 0
	lis 31,.LC3@ha
.LVL235:
	.loc 4 1329 0
	li 0,-1
	.loc 4 1328 0
	lwz 9,.LC3@l(31)
	.loc 4 1327 0
	sth 29,52(30)
	.loc 4 1328 0
	stw 9,36(30)
	.loc 4 1329 0
	stw 0,8(30)
	.loc 4 1330 0
	sth 0,48(30)
.LVL236:
	.loc 4 1331 0
	lbz 0,116(25)
	andi. 9,0,64
	bne- 0,.L157
	.loc 4 1335 0
	stw 28,4(30)
.LVL237:
.L152:
	.loc 4 1339 0
	lwz 0,.LC3@l(31)
	.loc 4 1340 0
	addi 28,28,-1
.LVL238:
	stw 28,20(30)
	.loc 4 1339 0
	stw 0,32(30)
	.loc 4 1342 0
	li 0,0
	.loc 4 1341 0
	stw 27,24(30)
	.loc 4 1342 0
	stw 0,28(30)
.LBE3800:
	.loc 4 1343 0
	lwz 0,68(1)
	lwz 24,32(1)
	mtlr 0
	lwz 25,36(1)
.LVL239:
	lwz 26,40(1)
	lwz 27,44(1)
.LVL240:
	lwz 28,48(1)
.LVL241:
	lwz 29,52(1)
	lwz 30,56(1)
.LVL242:
	lwz 31,60(1)
	addi 1,1,64
	.cfi_remember_state
	.cfi_restore 24
	.cfi_restore 25
	.cfi_restore 26
	.cfi_restore 27
	.cfi_restore 28
	.cfi_restore 29
	.cfi_restore 30
	.cfi_restore 31
.LCFI81:
	.cfi_def_cfa_offset 0
	blr
.LVL243:
.L157:
.LCFI82:
	.cfi_restore_state
.LBB3801:
.LBB3781:
.LBB3782:
.LBB3783:
.LBB3784:
	.file 11 "d:/Data/Nintendo/DoomGX/src/game/anim/../../idlib/../idlib/math/Random.h"
	.loc 11 71 0
	lis 9,gameLocal@ha
	lis 29,0x1
.LVL244:
	la 9,gameLocal@l(9)
	ori 29,29,3533
	addis 9,9,0x1
.LBE3784:
.LBE3783:
.LBE3782:
.LBE3781:
	.loc 4 1333 0
	mr 3,25
.LBB3793:
.LBB3787:
.LBB3786:
.LBB3785:
	.loc 11 71 0
	lwz 0,-32064(9)
	mullw 29,29,0
	addi 29,29,1
	stw 29,-32064(9)
	.loc 11 72 0
	rlwinm 29,29,0,17,31
.LBE3785:
.LBE3786:
	.loc 11 83 0
	xoris 29,29,0x8000
.LBE3787:
.LBE3793:
	.loc 4 1333 0
	bl _ZNK6idAnim6LengthEv
	lis 0,0x4330
	xoris 3,3,0x8000
	stw 0,8(1)
	stw 3,12(1)
	lis 9,.LC7@ha
.LBB3794:
.LBB3788:
	.loc 11 83 0
	stw 29,28(1)
	stw 0,24(1)
.LBE3788:
.LBE3794:
	.loc 4 1333 0
	lfs 0,.LC7@l(9)
	xoris 9,28,0x8000
	lfd 12,8(1)
.LBB3795:
.LBB3789:
	.loc 11 83 0
	lfd 10,24(1)
.LBE3789:
.LBE3795:
	.loc 4 1333 0
	stw 9,20(1)
	fsub 12,12,0
	stw 0,16(1)
.LBB3796:
.LBB3790:
	.loc 11 83 0
	fsub 10,10,0
	lis 9,.LC10@ha
.LBE3790:
.LBE3796:
	.loc 4 1333 0
	lfd 13,16(1)
	frsp 12,12
.LBB3797:
.LBB3791:
	.loc 11 83 0
	frsp 10,10
	lfs 11,.LC10@l(9)
.LBE3791:
.LBE3797:
	.loc 4 1333 0
	fsub 13,13,0
	addi 9,30,4
	.loc 4 1310 0
	fneg 12,12
.LBB3798:
.LBB3792:
	.loc 11 83 0
	fmuls 0,10,11
.LBE3792:
.LBE3798:
	.loc 4 1333 0
	frsp 13,13
	fmadds 0,12,0,13
	fctiwz 0,0
	stfiwx 0,0,9
	b .L152
.LVL245:
.L154:
.LBB3799:
.LBB3780:
	.loc 4 2910 0
	lis 31,.LC1@ha
.LVL246:
	la 31,.LC1@l(31)
	b .L150
.LBE3780:
.LBE3799:
.LBE3801:
	.cfi_endproc
.LFE2853:
	.size	_ZN11idAnimBlend9CycleAnimEPK14idDeclModelDefiii, .-_ZN11idAnimBlend9CycleAnimEPK14idDeclModelDefiii
	.align 2
	.globl _ZN11idAnimBlend8PlayAnimEPK14idDeclModelDefiii
	.type	_ZN11idAnimBlend8PlayAnimEPK14idDeclModelDefiii, @function
_ZN11idAnimBlend8PlayAnimEPK14idDeclModelDefiii:
.LFB2854:
	.loc 4 1350 0
	.cfi_startproc
.LVL247:
	stwu 1,-40(1)
.LCFI83:
	.cfi_def_cfa_offset 40
	mflr 0
	stw 31,36(1)
	mr 31,4
	.cfi_offset 31, -4
	.cfi_register 65, 0
	stw 27,20(1)
	mr 27,7
	.cfi_offset 27, -20
	stw 28,24(1)
	mr 28,6
	.cfi_offset 28, -16
	stw 29,28(1)
	mr 29,5
	.cfi_offset 29, -12
	stw 30,32(1)
	mr 30,3
	.cfi_offset 30, -8
	stw 0,44(1)
	stw 24,8(1)
	stw 25,12(1)
	stw 26,16(1)
.LBB3802:
	.loc 4 1351 0
	.cfi_offset 26, -24
	.cfi_offset 25, -28
	.cfi_offset 24, -32
	.cfi_offset 65, 4
	bl _ZN11idAnimBlend5ResetEPK14idDeclModelDef
.LVL248:
	.loc 4 1352 0
	cmpwi 7,31,0
	beq- 7,.L158
.LVL249:
.LBB3803:
.LBB3804:
	.loc 4 2845 0
	cmpwi 7,29,0
	ble- 7,.L158
	lwz 0,136(31)
	cmpw 7,29,0
	bgt- 7,.L158
.LVL250:
.LBB3805:
.LBB3806:
	.loc 8 573 0
	addi 0,29,-1
.LBE3806:
.LBE3805:
	.loc 4 2849 0
	lwz 9,148(31)
	slwi 0,0,2
	lwzx 24,9,0
.LVL251:
.LBE3804:
.LBE3803:
	.loc 4 1357 0
	cmpwi 7,24,0
	beq- 7,.L158
.LVL252:
.LBB3807:
.LBB3808:
	.loc 4 174 0
	lwz 26,4(24)
.LVL253:
	.loc 4 5042 0
	lwz 25,20(31)
.LBE3808:
.LBE3807:
	.loc 4 1362 0
	mr 3,26
	bl _ZNK9idMD5Anim9NumJointsEv
.LVL254:
	cmpw 7,25,3
	beq- 7,.L161
.LVL255:
.LBB3809:
.LBB3810:
	.loc 4 2907 0
	lwz 3,132(31)
	cmpwi 7,3,0
	beq- 7,.L164
	.loc 4 2908 0
	lwz 9,0(3)
	lwz 0,60(9)
	mtctr 0
	bctrl
	mr 31,3
.LVL256:
.L162:
.LBE3810:
.LBE3809:
	.loc 4 1363 0
	mr 3,26
	bl _ZNK9idMD5Anim4NameEv
	lis 4,.LC9@ha
	mr 6,3
	lis 3,gameLocal@ha
	la 3,gameLocal@l(3)
	la 4,.LC9@l(4)
	mr 5,31
	crxor 6,6,6
	bl _ZNK11idGameLocal7WarningEPKcz
.LVL257:
.L158:
.LBE3802:
	.loc 4 1378 0
	lwz 0,44(1)
	lwz 24,8(1)
	mtlr 0
	lwz 25,12(1)
	lwz 26,16(1)
	lwz 27,20(1)
.LVL258:
	lwz 28,24(1)
.LVL259:
	lwz 29,28(1)
.LVL260:
	lwz 30,32(1)
.LVL261:
	lwz 31,36(1)
	addi 1,1,40
	.cfi_remember_state
.LCFI84:
	.cfi_def_cfa_offset 0
	.cfi_restore 31
	.cfi_restore 30
	.cfi_restore 29
	.cfi_restore 28
	.cfi_restore 27
	.cfi_restore 26
	.cfi_restore 25
	.cfi_restore 24
	blr
.LVL262:
.L164:
.LCFI85:
	.cfi_restore_state
.LBB3813:
.LBB3812:
.LBB3811:
	.loc 4 2910 0
	lis 31,.LC1@ha
.LVL263:
	la 31,.LC1@l(31)
	b .L162
.LVL264:
.L161:
.LBE3811:
.LBE3812:
	.loc 4 1367 0
	sth 29,52(30)
	.loc 4 1369 0
	mr 3,24
	.loc 4 1368 0
	stw 28,4(30)
	.loc 4 1369 0
	bl _ZNK6idAnim6LengthEv
	.loc 4 1371 0
	lis 9,.LC3@ha
	lwz 0,.LC3@l(9)
	.loc 4 1369 0
	add 3,28,3
	.loc 4 1370 0
	li 9,1
	.loc 4 1375 0
	addi 28,28,-1
.LVL265:
	.loc 4 1371 0
	stw 0,36(30)
	.loc 4 1374 0
	stw 0,32(30)
	.loc 4 1377 0
	li 0,0
	.loc 4 1369 0
	stw 3,8(30)
	.loc 4 1370 0
	sth 9,48(30)
	.loc 4 1375 0
	stw 28,20(30)
	.loc 4 1376 0
	stw 27,24(30)
	.loc 4 1377 0
	stw 0,28(30)
.LBE3813:
	.loc 4 1378 0
	lwz 0,44(1)
	lwz 24,8(1)
.LVL266:
	mtlr 0
	lwz 25,12(1)
	lwz 26,16(1)
	lwz 27,20(1)
.LVL267:
	lwz 28,24(1)
.LVL268:
	lwz 29,28(1)
.LVL269:
	lwz 30,32(1)
.LVL270:
	lwz 31,36(1)
.LVL271:
	addi 1,1,40
	.cfi_restore 24
	.cfi_restore 25
	.cfi_restore 26
	.cfi_restore 27
	.cfi_restore 28
	.cfi_restore 29
	.cfi_restore 30
	.cfi_restore 31
.LCFI86:
	.cfi_def_cfa_offset 0
	blr
	.cfi_endproc
.LFE2854:
	.size	_ZN11idAnimBlend8PlayAnimEPK14idDeclModelDefiii, .-_ZN11idAnimBlend8PlayAnimEPK14idDeclModelDefiii
	.align 2
	.globl _ZN11idAnimBlend5ClearEii
	.type	_ZN11idAnimBlend5ClearEii, @function
_ZN11idAnimBlend5ClearEii:
.LFB2855:
	.loc 4 1385 0
	.cfi_startproc
.LVL272:
	.loc 4 1386 0
	cmpwi 7,5,0
	beq- 7,.L169
	.loc 4 1389 0
	lis 9,.LC8@ha
	.loc 4 1391 0
	.loc 4 1389 0
	lfs 1,.LC8@l(9)
	b _ZN11idAnimBlend9SetWeightEfii
.LVL273:
.L169:
.LBB3816:
.LBB3817:
	.loc 4 1387 0
	lwz 4,0(3)
.LVL274:
.LBE3817:
.LBE3816:
	.loc 4 1391 0
.LBB3819:
.LBB3818:
	.loc 4 1387 0
	b _ZN11idAnimBlend5ResetEPK14idDeclModelDef
.LVL275:
.LVL276:
.LVL277:
.LBE3818:
.LBE3819:
	.cfi_endproc
.LFE2855:
	.size	_ZN11idAnimBlend5ClearEii, .-_ZN11idAnimBlend5ClearEii
	.align 2
	.globl _ZNK11idAnimBlend6IsDoneEi
	.type	_ZNK11idAnimBlend6IsDoneEi, @function
_ZNK11idAnimBlend6IsDoneEi:
.LFB2856:
	.loc 4 1398 0
	.cfi_startproc
.LVL278:
	.loc 4 1399 0
	lha 0,50(3)
	.loc 4 1398 0
	mr 9,3
	.loc 4 1399 0
	cmpwi 7,0,0
	bne- 7,.L171
	.loc 4 1399 0 is_stmt 0 discriminator 1
	lwz 0,8(3)
	cmpwi 7,0,0
	ble- 7,.L171
	.loc 4 1399 0 discriminator 2
	cmpw 7,0,4
	.loc 4 1400 0 is_stmt 1 discriminator 2
	li 3,1
.LVL279:
	.loc 4 1399 0 discriminator 2
	blelr- 7
.L171:
	.loc 4 1403 0
	lis 11,.LC8@ha
	lfs 13,32(9)
	lfs 0,.LC8@l(11)
	fcmpu 7,13,0
	cror 30,28,30
	bne- 7,.L177
	.loc 4 1403 0 is_stmt 0 discriminator 1
	lwz 11,20(9)
	lwz 0,24(9)
	add 0,11,0
	.loc 4 1398 0 is_stmt 1 discriminator 1
	cmpw 7,4,0
	crnot 30,28
	mfcr 3
	rlwinm 3,3,31,1
	blr
.L177:
	.loc 4 1407 0
	li 3,0
	.loc 4 1408 0
	blr
	.cfi_endproc
.LFE2856:
	.size	_ZNK11idAnimBlend6IsDoneEi, .-_ZNK11idAnimBlend6IsDoneEi
	.align 2
	.globl _ZNK11idAnimBlend13GetCycleCountEv
	.type	_ZNK11idAnimBlend13GetCycleCountEv, @function
_ZNK11idAnimBlend13GetCycleCountEv:
.LFB2858:
	.loc 4 1444 0
	.cfi_startproc
.LVL280:
	.loc 4 1446 0
	lha 3,48(3)
.LVL281:
	blr
	.cfi_endproc
.LFE2858:
	.size	_ZNK11idAnimBlend13GetCycleCountEv, .-_ZNK11idAnimBlend13GetCycleCountEv
	.align 2
	.globl _ZNK11idAnimBlend15GetPlaybackRateEv
	.type	_ZNK11idAnimBlend15GetPlaybackRateEv, @function
_ZNK11idAnimBlend15GetPlaybackRateEv:
.LFB2861:
	.loc 4 1518 0
	.cfi_startproc
.LVL282:
	.loc 4 1520 0
	lfs 1,16(3)
	blr
	.cfi_endproc
.LFE2861:
	.size	_ZNK11idAnimBlend15GetPlaybackRateEv, .-_ZNK11idAnimBlend15GetPlaybackRateEv
	.align 2
	.globl _ZNK11idAnimBlend12GetStartTimeEv
	.type	_ZNK11idAnimBlend12GetStartTimeEv, @function
_ZNK11idAnimBlend12GetStartTimeEv:
.LFB2863:
	.loc 4 1539 0
	.cfi_startproc
.LVL283:
	.loc 4 1540 0
	lha 9,52(3)
	.loc 4 1541 0
	li 0,0
	.loc 4 1540 0
	cmpwi 7,9,0
	beq- 7,.L181
	.loc 4 1544 0
	lwz 0,4(3)
.L181:
	.loc 4 1545 0
	mr 3,0
.LVL284:
	blr
	.cfi_endproc
.LFE2863:
	.size	_ZNK11idAnimBlend12GetStartTimeEv, .-_ZNK11idAnimBlend12GetStartTimeEv
	.align 2
	.globl _ZNK11idAnimBlend10GetEndTimeEv
	.type	_ZNK11idAnimBlend10GetEndTimeEv, @function
_ZNK11idAnimBlend10GetEndTimeEv:
.LFB2864:
	.loc 4 1552 0
	.cfi_startproc
.LVL285:
	.loc 4 1553 0
	lha 9,52(3)
	.loc 4 1554 0
	li 0,0
	.loc 4 1553 0
	cmpwi 7,9,0
	beq- 7,.L184
	.loc 4 1557 0
	lwz 0,8(3)
.L184:
	.loc 4 1558 0
	mr 3,0
.LVL286:
	blr
	.cfi_endproc
.LFE2864:
	.size	_ZNK11idAnimBlend10GetEndTimeEv, .-_ZNK11idAnimBlend10GetEndTimeEv
	.align 2
	.globl _ZNK11idAnimBlend10PlayLengthEv
	.type	_ZNK11idAnimBlend10PlayLengthEv, @function
_ZNK11idAnimBlend10PlayLengthEv:
.LFB2865:
	.loc 4 1565 0
	.cfi_startproc
.LVL287:
	.loc 4 1566 0
	lha 0,52(3)
	.loc 4 1565 0
	mr 9,3
	.loc 4 1567 0
	li 3,0
.LVL288:
	.loc 4 1566 0
	cmpwi 7,0,0
	beqlr- 7
	.loc 4 1570 0
	lwz 0,8(9)
	.loc 4 1571 0
	li 3,-1
	.loc 4 1570 0
	cmpwi 7,0,0
	bltlr- 7
	.loc 4 1574 0
	lwz 3,4(9)
	lwz 9,12(9)
.LVL289:
	subf 3,3,0
	add 3,3,9
	.loc 4 1575 0
	blr
	.cfi_endproc
.LFE2865:
	.size	_ZNK11idAnimBlend10PlayLengthEv, .-_ZNK11idAnimBlend10PlayLengthEv
	.align 2
	.globl _ZN11idAnimBlend13AllowMovementEb
	.type	_ZN11idAnimBlend13AllowMovementEb, @function
_ZN11idAnimBlend13AllowMovementEb:
.LFB2866:
	.loc 4 1582 0
	.cfi_startproc
.LVL290:
	.loc 4 1583 0
	stb 4,54(3)
	.loc 4 1584 0
	blr
	.cfi_endproc
.LFE2866:
	.size	_ZN11idAnimBlend13AllowMovementEb, .-_ZN11idAnimBlend13AllowMovementEb
	.align 2
	.globl _ZN11idAnimBlend18AllowFrameCommandsEb
	.type	_ZN11idAnimBlend18AllowFrameCommandsEb, @function
_ZN11idAnimBlend18AllowFrameCommandsEb:
.LFB2867:
	.loc 4 1591 0
	.cfi_startproc
.LVL291:
	.loc 4 1592 0
	stb 4,55(3)
	.loc 4 1593 0
	blr
	.cfi_endproc
.LFE2867:
	.size	_ZN11idAnimBlend18AllowFrameCommandsEb, .-_ZN11idAnimBlend18AllowFrameCommandsEb
	.align 2
	.globl _ZNK11idAnimBlend4AnimEv
	.type	_ZNK11idAnimBlend4AnimEv, @function
_ZNK11idAnimBlend4AnimEv:
.LFB2868:
	.loc 4 1601 0
	.cfi_startproc
.LVL292:
.LBB3820:
	.loc 4 1602 0
	lwz 9,0(3)
.LBE3820:
	.loc 4 1601 0
	mr 11,3
.LBB3827:
	.loc 4 1603 0
	li 3,0
.LVL293:
	.loc 4 1602 0
	cmpwi 7,9,0
	beqlr- 7
	.loc 4 1606 0
	lha 11,52(11)
.LVL294:
.LBB3821:
.LBB3822:
	.loc 4 2845 0
	cmpwi 7,11,0
	blelr- 7
	lwz 0,136(9)
	cmpw 7,11,0
	ble- 7,.L194
.LBE3822:
.LBE3821:
.LBE3827:
	.loc 4 1608 0
	blr
.L194:
.LVL295:
.LBB3828:
.LBB3826:
.LBB3825:
.LBB3823:
.LBB3824:
	.loc 8 573 0
	addi 11,11,-1
.LVL296:
.LBE3824:
.LBE3823:
	.loc 4 2849 0
	lwz 9,148(9)
.LVL297:
	slwi 11,11,2
.LVL298:
	lwzx 3,9,11
	blr
.LBE3825:
.LBE3826:
.LBE3828:
	.cfi_endproc
.LFE2868:
	.size	_ZNK11idAnimBlend4AnimEv, .-_ZNK11idAnimBlend4AnimEv
	.align 2
	.globl _ZN11idAnimBlend13SetCycleCountEi
	.type	_ZN11idAnimBlend13SetCycleCountEi, @function
_ZN11idAnimBlend13SetCycleCountEi:
.LFB2859:
	.loc 4 1453 0
	.cfi_startproc
.LVL299:
	mflr 0
	stwu 1,-64(1)
.LCFI87:
	.cfi_def_cfa_offset 64
	.cfi_register 65, 0
	stw 30,40(1)
	mr 30,4
	.cfi_offset 30, -24
	stw 0,68(1)
	stw 31,44(1)
	mr 31,3
	.cfi_offset 31, -20
	.cfi_offset 65, 4
	stfd 30,48(1)
	stfd 31,56(1)
.LBB3829:
	.loc 4 1454 0
	.cfi_offset 63, -8
	.cfi_offset 62, -16
	bl _ZNK11idAnimBlend4AnimEv
.LVL300:
	.loc 4 1456 0
	mr. 0,3
	beq- 0,.L207
	.loc 4 1460 0
	extsh 4,30
	.loc 4 1461 0
	cmpwi 7,4,0
	.loc 4 1460 0
	sth 4,48(31)
	.loc 4 1461 0
	blt- 7,.L208
	.loc 4 1468 0
	lis 9,.LC3@ha
	lfs 0,16(31)
	lfs 13,.LC3@l(9)
	.loc 4 1464 0
	beq- 7,.L209
	.loc 4 1477 0
	fcmpu 7,0,13
	beq- 7,.L210
	.loc 4 1479 0
	lis 9,.LC8@ha
	lfs 13,.LC8@l(9)
	fcmpu 7,0,13
	bne- 7,.L211
.L205:
	.loc 4 1482 0
	li 0,-1
	stw 0,8(31)
.LVL301:
.L197:
.LBE3829:
	.loc 4 1486 0
	lwz 0,68(1)
	lwz 30,40(1)
	mtlr 0
	lwz 31,44(1)
.LVL302:
	lfd 30,48(1)
	lfd 31,56(1)
	addi 1,1,64
	.cfi_remember_state
.LCFI88:
	.cfi_def_cfa_offset 0
	.cfi_restore 63
	.cfi_restore 62
	.cfi_restore 31
	.cfi_restore 30
	blr
.LVL303:
.L209:
.LCFI89:
	.cfi_restore_state
.LBB3830:
	.loc 4 1468 0
	fcmpu 7,0,13
	.loc 4 1465 0
	li 0,1
.LVL304:
	sth 0,48(31)
	.loc 4 1468 0
	beq- 7,.L212
	.loc 4 1470 0
	lis 9,.LC8@ha
	lfs 13,.LC8@l(9)
	fcmpu 7,0,13
	beq+ 7,.L205
	.loc 4 1471 0
	lwz 9,4(31)
	lis 30,0x4330
.LVL305:
	lwz 0,12(31)
	stw 30,8(1)
	subf 0,0,9
	lis 9,.LC7@ha
	xoris 0,0,0x8000
	lfs 31,.LC7@l(9)
	stw 0,12(1)
	lfd 30,8(1)
	bl _ZNK6idAnim6LengthEv
.LVL306:
	xoris 3,3,0x8000
	stw 30,16(1)
	fsub 30,30,31
	stw 3,20(1)
	lfd 0,16(1)
	frsp 30,30
	lfs 13,16(31)
	addi 31,31,8
.LVL307:
.L206:
	.loc 4 1480 0
	fsub 0,0,31
	frsp 0,0
	fdivs 0,0,13
	fadds 0,30,0
	fctiwz 0,0
	stfiwx 0,0,31
.LBE3830:
	.loc 4 1486 0
	lwz 0,68(1)
	lwz 30,40(1)
	mtlr 0
	lwz 31,44(1)
	lfd 30,48(1)
	lfd 31,56(1)
	addi 1,1,64
	.cfi_remember_state
	.cfi_restore 30
	.cfi_restore 31
	.cfi_restore 62
	.cfi_restore 63
.LCFI90:
	.cfi_def_cfa_offset 0
	blr
.LVL308:
.L208:
.LCFI91:
	.cfi_restore_state
.LBB3831:
	.loc 4 1462 0
	li 0,-1
.LVL309:
	sth 0,48(31)
	.loc 4 1463 0
	li 0,-1
	stw 0,8(31)
.LBE3831:
	.loc 4 1486 0
	lwz 0,68(1)
	lwz 30,40(1)
.LVL310:
	mtlr 0
	lwz 31,44(1)
.LVL311:
	lfd 30,48(1)
	lfd 31,56(1)
	addi 1,1,64
	.cfi_remember_state
	.cfi_restore 30
	.cfi_restore 31
	.cfi_restore 62
	.cfi_restore 63
.LCFI92:
	.cfi_def_cfa_offset 0
	blr
.LVL312:
.L207:
.LCFI93:
	.cfi_restore_state
.LBB3832:
	.loc 4 1457 0
	li 9,-1
	.loc 4 1458 0
	stw 0,8(31)
	.loc 4 1457 0
	sth 9,48(31)
.LBE3832:
	.loc 4 1486 0
	lwz 0,68(1)
	lwz 30,40(1)
.LVL313:
	mtlr 0
	lwz 31,44(1)
.LVL314:
	lfd 30,48(1)
	lfd 31,56(1)
	addi 1,1,64
	.cfi_remember_state
	.cfi_restore 30
	.cfi_restore 31
	.cfi_restore 62
	.cfi_restore 63
.LCFI94:
	.cfi_def_cfa_offset 0
	blr
.LVL315:
.L212:
.LCFI95:
	.cfi_restore_state
.LBB3833:
	.loc 4 1469 0
	lwz 30,4(31)
.LVL316:
	lwz 0,12(31)
	subf 30,0,30
	bl _ZNK6idAnim6LengthEv
.LVL317:
	add 3,30,3
	stw 3,8(31)
	b .L197
.LVL318:
.L210:
	.loc 4 1478 0
	lwz 0,12(31)
.LVL319:
	lwz 30,4(31)
.LVL320:
	subf 30,0,30
	bl _ZNK6idAnim6LengthEv
.LVL321:
	lha 0,48(31)
	mullw 0,3,0
	add 30,30,0
	stw 30,8(31)
	b .L197
.LVL322:
.L211:
	.loc 4 1480 0
	lwz 9,4(31)
	lis 30,0x4330
.LVL323:
	lwz 0,12(31)
.LVL324:
	stw 30,24(1)
	subf 0,0,9
	lis 9,.LC7@ha
	xoris 0,0,0x8000
	lfs 31,.LC7@l(9)
	stw 0,28(1)
	lfd 30,24(1)
	bl _ZNK6idAnim6LengthEv
.LVL325:
	lha 0,48(31)
	stw 30,32(1)
	fsub 30,30,31
	mullw 0,3,0
	lfs 13,16(31)
	addi 31,31,8
.LVL326:
	frsp 30,30
	xoris 0,0,0x8000
	stw 0,36(1)
	lfd 0,32(1)
	b .L206
.LBE3833:
	.cfi_endproc
.LFE2859:
	.size	_ZN11idAnimBlend13SetCycleCountEi, .-_ZN11idAnimBlend13SetCycleCountEi
	.align 2
	.globl _ZN11idAnimBlend12SetStartTimeEi
	.type	_ZN11idAnimBlend12SetStartTimeEi, @function
_ZN11idAnimBlend12SetStartTimeEi:
.LFB2862:
	.loc 4 1527 0
	.cfi_startproc
.LVL327:
	.loc 4 1528 0
	stw 4,4(3)
	.loc 4 1532 0
	.loc 4 1531 0
	lha 4,48(3)
.LVL328:
	b _ZN11idAnimBlend13SetCycleCountEi
.LVL329:
.LVL330:
	.cfi_endproc
.LFE2862:
	.size	_ZN11idAnimBlend12SetStartTimeEi, .-_ZN11idAnimBlend12SetStartTimeEi
	.align 2
	.globl _ZN11idAnimBlend19SetSyncedAnimWeightEif
	.type	_ZN11idAnimBlend19SetSyncedAnimWeightEif, @function
_ZN11idAnimBlend19SetSyncedAnimWeightEif:
.LFB2851:
	.loc 4 1248 0
	.cfi_startproc
.LVL331:
	mflr 0
	stwu 1,-24(1)
.LCFI96:
	.cfi_def_cfa_offset 24
	.cfi_register 65, 0
	stfd 31,16(1)
	fmr 31,1
	.cfi_offset 63, -8
	stw 30,8(1)
	mr 30,4
	.cfi_offset 30, -16
	stw 31,12(1)
	mr 31,3
	.cfi_offset 31, -12
	stw 0,28(1)
.LBB3834:
	.loc 4 1249 0
	.cfi_offset 65, 4
	bl _ZNK11idAnimBlend4AnimEv
.LVL332:
	.loc 4 1250 0
	mr. 9,3
	.loc 4 1251 0
	li 3,0
.LVL333:
	.loc 4 1250 0
	beq- 0,.L215
	.loc 4 1254 0
	cmpwi 7,30,0
	blt- 7,.L215
.LVL334:
	lwz 0,16(9)
	cmpw 7,30,0
	ble- 7,.L216
.LVL335:
.L215:
.LBE3834:
	.loc 4 1260 0
	lwz 0,28(1)
	lwz 30,8(1)
.LVL336:
	mtlr 0
	lwz 31,12(1)
.LVL337:
	lfd 31,16(1)
.LVL338:
	addi 1,1,24
	.cfi_remember_state
.LCFI97:
	.cfi_def_cfa_offset 0
	.cfi_restore 63
	.cfi_restore 31
	.cfi_restore 30
	blr
.LVL339:
.L216:
.LCFI98:
	.cfi_restore_state
.LBB3835:
	.loc 4 1258 0
	addi 30,30,8
.LVL340:
	.loc 4 1259 0
	li 3,1
	.loc 4 1258 0
	slwi 30,30,2
.LVL341:
	add 31,31,30
.LVL342:
	stfs 31,4(31)
.LBE3835:
	.loc 4 1260 0
	lwz 0,28(1)
	lwz 30,8(1)
	mtlr 0
	lwz 31,12(1)
	lfd 31,16(1)
.LVL343:
	addi 1,1,24
	.cfi_restore 30
	.cfi_restore 31
	.cfi_restore 63
.LCFI99:
	.cfi_def_cfa_offset 0
	blr
	.cfi_endproc
.LFE2851:
	.size	_ZN11idAnimBlend19SetSyncedAnimWeightEif, .-_ZN11idAnimBlend19SetSyncedAnimWeightEif
	.align 2
	.globl _ZNK11idAnimBlend14NumSyncedAnimsEv
	.type	_ZNK11idAnimBlend14NumSyncedAnimsEv, @function
_ZNK11idAnimBlend14NumSyncedAnimsEv:
.LFB2850:
	.loc 4 1234 0
	.cfi_startproc
.LVL344:
	mflr 0
	stwu 1,-8(1)
.LCFI100:
	.cfi_def_cfa_offset 8
	.cfi_register 65, 0
	stw 0,12(1)
.LBB3836:
	.loc 4 1235 0
	.cfi_offset 65, 4
	bl _ZNK11idAnimBlend4AnimEv
.LVL345:
	.loc 4 1236 0
	mr. 9,3
	.loc 4 1237 0
	li 3,0
.LVL346:
	.loc 4 1236 0
	beq- 0,.L220
.LVL347:
.LBB3837:
.LBB3838:
	.loc 4 221 0
	lwz 3,16(9)
.LVL348:
.L220:
.LBE3838:
.LBE3837:
.LBE3836:
	.loc 4 1241 0
	lwz 0,12(1)
	addi 1,1,8
.LCFI101:
	.cfi_def_cfa_offset 0
	mtlr 0
	blr
	.cfi_endproc
.LFE2850:
	.size	_ZNK11idAnimBlend14NumSyncedAnimsEv, .-_ZNK11idAnimBlend14NumSyncedAnimsEv
	.align 2
	.globl _ZNK11idAnimBlend6LengthEv
	.type	_ZNK11idAnimBlend6LengthEv, @function
_ZNK11idAnimBlend6LengthEv:
.LFB2846:
	.loc 4 1172 0
	.cfi_startproc
.LVL349:
	mflr 0
	stwu 1,-8(1)
.LCFI102:
	.cfi_def_cfa_offset 8
	.cfi_register 65, 0
	stw 0,12(1)
.LBB3839:
	.loc 4 1173 0
	.cfi_offset 65, 4
	bl _ZNK11idAnimBlend4AnimEv
.LVL350:
	.loc 4 1174 0
	cmpwi 7,3,0
	beq- 7,.L223
.LBE3839:
	.loc 4 1179 0
	lwz 0,12(1)
	addi 1,1,8
	.cfi_remember_state
.LCFI103:
	.cfi_def_cfa_offset 0
	mtlr 0
.LBB3840:
	.loc 4 1178 0
	b _ZNK6idAnim6LengthEv
.LVL351:
.L223:
.LCFI104:
	.cfi_restore_state
.LBE3840:
	.loc 4 1179 0
	lwz 0,12(1)
	addi 1,1,8
.LCFI105:
	.cfi_def_cfa_offset 0
	mtlr 0
	blr
	.cfi_endproc
.LFE2846:
	.size	_ZNK11idAnimBlend6LengthEv, .-_ZNK11idAnimBlend6LengthEv
	.align 2
	.globl _ZNK11idAnimBlend9NumFramesEv
	.type	_ZNK11idAnimBlend9NumFramesEv, @function
_ZNK11idAnimBlend9NumFramesEv:
.LFB2845:
	.loc 4 1158 0
	.cfi_startproc
.LVL352:
	mflr 0
	stwu 1,-8(1)
.LCFI106:
	.cfi_def_cfa_offset 8
	.cfi_register 65, 0
	stw 0,12(1)
.LBB3841:
	.loc 4 1159 0
	.cfi_offset 65, 4
	bl _ZNK11idAnimBlend4AnimEv
.LVL353:
	.loc 4 1160 0
	cmpwi 7,3,0
	beq- 7,.L225
.LBE3841:
	.loc 4 1165 0
	lwz 0,12(1)
	addi 1,1,8
	.cfi_remember_state
.LCFI107:
	.cfi_def_cfa_offset 0
	mtlr 0
.LBB3842:
	.loc 4 1164 0
	b _ZNK6idAnim9NumFramesEv
.LVL354:
.L225:
.LCFI108:
	.cfi_restore_state
.LBE3842:
	.loc 4 1165 0
	lwz 0,12(1)
	addi 1,1,8
.LCFI109:
	.cfi_def_cfa_offset 0
	mtlr 0
	blr
	.cfi_endproc
.LFE2845:
	.size	_ZNK11idAnimBlend9NumFramesEv, .-_ZNK11idAnimBlend9NumFramesEv
	.align 2
	.globl _ZNK11idAnimBlend15FrameHasChangedEi
	.type	_ZNK11idAnimBlend15FrameHasChangedEi, @function
_ZNK11idAnimBlend15FrameHasChangedEi:
.LFB2857:
	.loc 4 1415 0
	.cfi_startproc
.LVL355:
	mflr 0
	stwu 1,-24(1)
.LCFI110:
	.cfi_def_cfa_offset 24
	.cfi_register 65, 0
	stw 31,20(1)
	mr 31,3
	.cfi_offset 31, -4
	stw 0,28(1)
	.loc 4 1417 0
	lha 0,52(3)
	.cfi_offset 65, 4
	.loc 4 1418 0
	li 3,0
.LVL356:
	.loc 4 1417 0
	cmpwi 7,0,0
	beq- 7,.L227
	.loc 4 1422 0
	lwz 0,8(31)
	cmpwi 7,0,0
	ble- 7,.L228
	.loc 4 1422 0 is_stmt 0 discriminator 1
	cmpw 7,0,4
	blt- 7,.L227
.L228:
	.loc 4 1427 0 is_stmt 1
	lwz 9,20(31)
	lwz 0,24(31)
	add 0,9,0
	cmpw 7,4,0
	bge- 7,.L229
	.loc 4 1427 0 is_stmt 0 discriminator 1
	lfs 13,28(31)
	.loc 4 1428 0 is_stmt 1 discriminator 1
	li 3,1
	.loc 4 1427 0 discriminator 1
	lfs 0,32(31)
	fcmpu 7,13,0
	bne- 7,.L227
.L229:
	.loc 4 1432 0
	lha 0,50(31)
	cmpwi 7,0,0
	beq- 7,.L235
.LVL357:
.L230:
	.loc 4 1415 0 discriminator 1
	lwz 3,4(31)
	xor 3,4,3
	cntlzw 3,3
	srwi 3,3,5
.L227:
	.loc 4 1437 0
	lwz 0,28(1)
	lwz 31,20(1)
.LVL358:
	mtlr 0
	addi 1,1,24
	.cfi_remember_state
.LCFI111:
	.cfi_def_cfa_offset 0
	.cfi_restore 31
	blr
.LVL359:
.L235:
.LCFI112:
	.cfi_restore_state
	.loc 4 1432 0 discriminator 2
	mr 3,31
	stw 4,8(1)
	bl _ZNK11idAnimBlend9NumFramesEv
.LVL360:
	lwz 4,8(1)
	cmpwi 7,3,1
	.loc 4 1436 0 discriminator 2
	li 3,1
	.loc 4 1432 0 discriminator 2
	bne+ 7,.L227
	b .L230
	.cfi_endproc
.LFE2857:
	.size	_ZNK11idAnimBlend15FrameHasChangedEi, .-_ZNK11idAnimBlend15FrameHasChangedEi
	.align 2
	.globl _ZNK11idAnimBlend8AnimNameEv
	.type	_ZNK11idAnimBlend8AnimNameEv, @function
_ZNK11idAnimBlend8AnimNameEv:
.LFB2844:
	.loc 4 1144 0
	.cfi_startproc
.LVL361:
	mflr 0
	stwu 1,-8(1)
.LCFI113:
	.cfi_def_cfa_offset 8
	.cfi_register 65, 0
	stw 0,12(1)
.LBB3843:
	.loc 4 1145 0
	.cfi_offset 65, 4
	bl _ZNK11idAnimBlend4AnimEv
.LVL362:
	.loc 4 1146 0
	cmpwi 0,3,0
	beq- 0,.L238
.LVL363:
.LBE3843:
	.loc 4 1151 0
	lwz 0,12(1)
.LBB3846:
.LBB3844:
.LBB3845:
	.loc 4 5042 0
	lwz 3,24(3)
.LVL364:
.LBE3845:
.LBE3844:
.LBE3846:
	.loc 4 1151 0
	mtlr 0
	addi 1,1,8
	.cfi_remember_state
.LCFI114:
	.cfi_def_cfa_offset 0
	blr
.LVL365:
.L238:
.LCFI115:
	.cfi_restore_state
	lwz 0,12(1)
.LBB3847:
	.loc 4 1147 0
	lis 3,.LC1@ha
.LVL366:
	la 3,.LC1@l(3)
.LBE3847:
	.loc 4 1151 0
	mtlr 0
	addi 1,1,8
.LCFI116:
	.cfi_def_cfa_offset 0
	blr
	.cfi_endproc
.LFE2844:
	.size	_ZNK11idAnimBlend8AnimNameEv, .-_ZNK11idAnimBlend8AnimNameEv
	.align 2
	.globl _ZNK11idAnimBlend12AnimFullNameEv
	.type	_ZNK11idAnimBlend12AnimFullNameEv, @function
_ZNK11idAnimBlend12AnimFullNameEv:
.LFB2843:
	.loc 4 1130 0
	.cfi_startproc
.LVL367:
	mflr 0
	stwu 1,-8(1)
.LCFI117:
	.cfi_def_cfa_offset 8
	.cfi_register 65, 0
	stw 0,12(1)
.LBB3848:
	.loc 4 1131 0
	.cfi_offset 65, 4
	bl _ZNK11idAnimBlend4AnimEv
.LVL368:
	.loc 4 1132 0
	cmpwi 0,3,0
	beq- 0,.L241
.LVL369:
.LBE3848:
	.loc 4 1137 0
	lwz 0,12(1)
.LBB3851:
.LBB3849:
.LBB3850:
	.loc 4 5042 0
	lwz 3,56(3)
.LVL370:
.LBE3850:
.LBE3849:
.LBE3851:
	.loc 4 1137 0
	mtlr 0
	addi 1,1,8
	.cfi_remember_state
.LCFI118:
	.cfi_def_cfa_offset 0
	blr
.LVL371:
.L241:
.LCFI119:
	.cfi_restore_state
	lwz 0,12(1)
.LBB3852:
	.loc 4 1133 0
	lis 3,.LC1@ha
.LVL372:
	la 3,.LC1@l(3)
.LBE3852:
	.loc 4 1137 0
	mtlr 0
	addi 1,1,8
.LCFI120:
	.cfi_def_cfa_offset 0
	blr
	.cfi_endproc
.LFE2843:
	.size	_ZNK11idAnimBlend12AnimFullNameEv, .-_ZNK11idAnimBlend12AnimFullNameEv
	.align 2
	.globl _ZNK11idAnimBlend7AnimNumEv
	.type	_ZNK11idAnimBlend7AnimNumEv, @function
_ZNK11idAnimBlend7AnimNumEv:
.LFB2869:
	.loc 4 1615 0
	.cfi_startproc
.LVL373:
	.loc 4 1617 0
	lha 3,52(3)
.LVL374:
	blr
	.cfi_endproc
.LFE2869:
	.size	_ZNK11idAnimBlend7AnimNumEv, .-_ZNK11idAnimBlend7AnimNumEv
	.align 2
	.globl _ZNK11idAnimBlend8AnimTimeEi
	.type	_ZNK11idAnimBlend8AnimTimeEi, @function
_ZNK11idAnimBlend8AnimTimeEi:
.LFB2870:
	.loc 4 1624 0
	.cfi_startproc
.LVL375:
	mflr 0
	stwu 1,-40(1)
.LCFI121:
	.cfi_def_cfa_offset 40
	.cfi_register 65, 0
	stw 29,28(1)
	mr 29,4
	.cfi_offset 29, -12
	stw 30,32(1)
.LBB3859:
	.loc 4 1655 0
	li 30,0
	.cfi_offset 30, -8
.LBE3859:
	.loc 4 1624 0
	stw 31,36(1)
	mr 31,3
	.cfi_offset 31, -4
	stw 0,44(1)
.LBB3860:
	.loc 4 1627 0
	.cfi_offset 65, 4
	bl _ZNK11idAnimBlend4AnimEv
.LVL376:
	.loc 4 1629 0
	cmpwi 0,3,0
	beq- 0,.L244
	.loc 4 1630 0
	lha 30,50(31)
	cmpwi 7,30,0
	bne- 7,.L249
	.loc 4 1635 0
	lis 9,.LC3@ha
	lfs 0,16(31)
	lfs 13,.LC3@l(9)
	.loc 4 1636 0
	lwz 30,4(31)
	.loc 4 1635 0
	fcmpu 7,0,13
	beq- 7,.L250
	.loc 4 1638 0
	subf 29,30,29
.LVL377:
	lis 0,0x4330
	xoris 29,29,0x8000
	stw 0,8(1)
	stw 29,12(1)
	lis 9,.LC7@ha
	lfs 13,.LC7@l(9)
	addi 9,1,16
	lfd 12,8(1)
	lwz 0,12(31)
	fsub 13,12,13
	frsp 13,13
	fmuls 0,0,13
	fctiwz 0,0
	stfiwx 0,0,9
	lwz 30,16(1)
	add 30,30,0
.LVL378:
	.loc 4 1643 0
	bl _ZNK6idAnim6LengthEv
.LVL379:
	.loc 4 1644 0
	lha 0,48(31)
	cmpwi 7,0,0
	blt- 7,.L251
.LVL380:
.L244:
.LBE3860:
	.loc 4 1657 0
	lwz 0,44(1)
	mr 3,30
	lwz 29,28(1)
	mtlr 0
	lwz 30,32(1)
	lwz 31,36(1)
.LVL381:
	addi 1,1,40
	.cfi_remember_state
.LCFI122:
	.cfi_def_cfa_offset 0
	.cfi_restore 31
	.cfi_restore 30
	.cfi_restore 29
	blr
.LVL382:
.L250:
.LCFI123:
	.cfi_restore_state
.LBB3861:
	.loc 4 1636 0
	lwz 0,12(31)
	subf 30,30,29
	add 30,30,0
.LVL383:
	.loc 4 1643 0
	bl _ZNK6idAnim6LengthEv
.LVL384:
	.loc 4 1644 0
	lha 0,48(31)
	cmpwi 7,0,0
	bge+ 7,.L244
.LVL385:
.L251:
	.loc 4 1644 0 is_stmt 0 discriminator 1
	cmpwi 7,3,0
	ble- 7,.L244
	.loc 4 1645 0 is_stmt 1
	divw 0,30,3
	mullw 0,0,3
.LVL386:
	.loc 4 1649 0
	subf. 30,0,30
.LVL387:
	bge+ 0,.L244
	.loc 4 1650 0
	add 30,30,3
.LVL388:
	b .L244
.LVL389:
.L249:
.LBE3861:
.LBB3862:
.LBB3863:
.LBB3864:
	.loc 4 1631 0
	addi 30,30,-1
.LBB3865:
.LBB3866:
	.file 12 "d:/Data/Nintendo/DoomGX/src/game/anim/../anim/Anim.h"
	.loc 12 49 0
	lis 0,0x2aaa
	mulli 30,30,1000
	ori 0,0,43691
.LBE3866:
.LBE3865:
.LBE3864:
.LBE3863:
.LBE3862:
	.loc 4 1657 0
	lwz 29,28(1)
.LVL390:
	lwz 31,36(1)
.LVL391:
.LBB3871:
.LBB3870:
.LBB3869:
.LBB3868:
.LBB3867:
	.loc 12 49 0
	mulhw 0,30,0
	srawi 30,30,31
	srawi 0,0,2
	subf 30,30,0
.LBE3867:
.LBE3868:
.LBE3869:
.LBE3870:
.LBE3871:
	.loc 4 1657 0
	lwz 0,44(1)
	mr 3,30
.LVL392:
	lwz 30,32(1)
	mtlr 0
	addi 1,1,40
	.cfi_restore 29
	.cfi_restore 30
	.cfi_restore 31
.LCFI124:
	.cfi_def_cfa_offset 0
	blr
	.cfi_endproc
.LFE2870:
	.size	_ZNK11idAnimBlend8AnimTimeEi, .-_ZNK11idAnimBlend8AnimTimeEi
	.align 2
	.globl _ZN11idAnimBlend15SetPlaybackRateEif
	.type	_ZN11idAnimBlend15SetPlaybackRateEif, @function
_ZN11idAnimBlend15SetPlaybackRateEif:
.LFB2860:
	.loc 4 1493 0
	.cfi_startproc
.LVL393:
	mflr 0
	stwu 1,-40(1)
.LCFI125:
	.cfi_def_cfa_offset 40
	.cfi_register 65, 0
	stw 30,32(1)
	mr 30,4
	.cfi_offset 30, -8
	stw 31,36(1)
	mr 31,3
	.cfi_offset 31, -4
	stw 0,44(1)
.LBB3872:
	.loc 4 1496 0
	lfs 0,16(3)
	fcmpu 7,0,1
	bne- 7,.L256
	.cfi_offset 65, 4
.LBE3872:
	.loc 4 1511 0
	lwz 0,44(1)
	lwz 30,32(1)
	mtlr 0
	lwz 31,36(1)
	addi 1,1,40
	.cfi_remember_state
.LCFI126:
	.cfi_def_cfa_offset 0
	.cfi_restore 31
	.cfi_restore 30
	blr
.L256:
.LCFI127:
	.cfi_restore_state
.LBB3873:
	.loc 4 1500 0
	stfd 1,24(1)
	bl _ZNK11idAnimBlend8AnimTimeEi
.LVL394:
	.loc 4 1501 0
	lis 9,.LC3@ha
	lfd 1,24(1)
	lfs 0,.LC3@l(9)
	fcmpu 7,1,0
	beq- 7,.L257
	.loc 4 1504 0
	lwz 9,4(31)
	lis 0,0x4330
	stw 0,8(1)
	xoris 3,3,0x8000
.LVL395:
	subf 30,9,30
.LVL396:
	lis 9,.LC7@ha
	xoris 30,30,0x8000
	lfs 0,.LC7@l(9)
	stw 30,12(1)
	addi 9,31,12
	stw 3,20(1)
	.loc 4 1510 0
	mr 3,31
.LVL397:
	.loc 4 1504 0
	lfd 13,8(1)
	stw 0,16(1)
	fsub 13,13,0
	lfd 12,16(1)
	frsp 13,13
	fsub 0,12,0
	.loc 4 1493 0
	fneg 13,13
	.loc 4 1504 0
	frsp 0,0
	fmadds 0,13,1,0
	fctiwz 0,0
	stfiwx 0,0,9
	.loc 4 1507 0
	stfs 1,16(31)
	.loc 4 1510 0
	lha 4,48(31)
.LBE3873:
	.loc 4 1511 0
	lwz 0,44(1)
	lwz 30,32(1)
	lwz 31,36(1)
.LVL398:
	mtlr 0
	addi 1,1,40
	.cfi_remember_state
.LCFI128:
	.cfi_def_cfa_offset 0
	.cfi_restore 31
	.cfi_restore 30
.LBB3874:
	.loc 4 1510 0
	b _ZN11idAnimBlend13SetCycleCountEi
.LVL399:
.L257:
.LCFI129:
	.cfi_restore_state
	.loc 4 1502 0
	lwz 0,4(31)
	.loc 4 1507 0
	stfs 1,16(31)
	.loc 4 1502 0
	subf 30,30,0
.LVL400:
	.loc 4 1510 0
	lha 4,48(31)
	.loc 4 1502 0
	add 3,3,30
.LVL401:
	stw 3,12(31)
	.loc 4 1510 0
	mr 3,31
.LBE3874:
	.loc 4 1511 0
	lwz 0,44(1)
	lwz 30,32(1)
	lwz 31,36(1)
.LVL402:
	mtlr 0
	addi 1,1,40
	.cfi_restore 30
	.cfi_restore 31
.LCFI130:
	.cfi_def_cfa_offset 0
.LBB3875:
	.loc 4 1510 0
	b _ZN11idAnimBlend13SetCycleCountEi
.LVL403:
.LBE3875:
	.cfi_endproc
.LFE2860:
	.size	_ZN11idAnimBlend15SetPlaybackRateEif, .-_ZN11idAnimBlend15SetPlaybackRateEif
	.align 2
	.globl _ZNK11idAnimBlend14GetFrameNumberEi
	.type	_ZNK11idAnimBlend14GetFrameNumberEi, @function
_ZNK11idAnimBlend14GetFrameNumberEi:
.LFB2871:
	.loc 4 1664 0
	.cfi_startproc
.LVL404:
	mflr 0
	stwu 1,-56(1)
.LCFI131:
	.cfi_def_cfa_offset 56
	.cfi_register 65, 0
	stw 29,44(1)
	mr 29,4
	.cfi_offset 29, -12
	stw 31,52(1)
	mr 31,3
	.cfi_offset 31, -4
	stw 0,60(1)
	stw 30,48(1)
.LBB3876:
	.loc 4 1669 0
	.cfi_offset 30, -8
	.cfi_offset 65, 4
	bl _ZNK11idAnimBlend4AnimEv
.LVL405:
	.loc 4 1670 0
	mr. 9,3
	.loc 4 1671 0
	li 3,1
.LVL406:
	.loc 4 1670 0
	beq- 0,.L259
	.loc 4 1674 0
	lha 3,50(31)
	cmpwi 7,3,0
	bne- 7,.L259
.LVL407:
.LBB3877:
.LBB3878:
	.loc 4 174 0
	lwz 30,4(9)
.LBE3878:
.LBE3877:
	.loc 4 1679 0
	mr 4,29
	mr 3,31
	bl _ZNK11idAnimBlend8AnimTimeEi
.LVL408:
	.loc 4 1680 0
	lha 5,48(31)
	.loc 4 1679 0
	mr 4,3
.LVL409:
	.loc 4 1680 0
	addi 6,1,8
	mr 3,30
.LVL410:
	bl _ZNK9idMD5Anim18ConvertTimeToFrameEiiR12frameBlend_t
.LVL411:
	.loc 4 1682 0
	lwz 3,12(1)
	addi 3,3,1
.LVL412:
.L259:
.LBE3876:
	.loc 4 1683 0
	lwz 0,60(1)
	lwz 29,44(1)
.LVL413:
	mtlr 0
	lwz 30,48(1)
	lwz 31,52(1)
.LVL414:
	addi 1,1,56
.LCFI132:
	.cfi_def_cfa_offset 0
	.cfi_restore 31
	.cfi_restore 30
	.cfi_restore 29
	blr
	.cfi_endproc
.LFE2871:
	.size	_ZNK11idAnimBlend14GetFrameNumberEi, .-_ZNK11idAnimBlend14GetFrameNumberEi
	.align 2
	.globl _ZNK11idAnimBlend11BlendOriginEiR6idVec3Rfb
	.type	_ZNK11idAnimBlend11BlendOriginEiR6idVec3Rfb, @function
_ZNK11idAnimBlend11BlendOriginEiR6idVec3Rfb:
.LFB2874:
	.loc 4 1869 0
	.cfi_startproc
.LVL415:
	mflr 0
	stwu 1,-112(1)
.LCFI133:
	.cfi_def_cfa_offset 112
	.cfi_register 65, 0
	stw 28,64(1)
	mr 28,6
	.cfi_offset 28, -48
	stw 30,72(1)
	mr 30,5
	.cfi_offset 30, -40
	stw 31,76(1)
	mr 31,3
	.cfi_offset 31, -36
	stw 0,116(1)
	stfd 28,80(1)
	stfd 29,88(1)
	stfd 30,96(1)
	stfd 31,104(1)
	stw 24,48(1)
	stw 25,52(1)
	stw 26,56(1)
	stw 27,60(1)
	stw 29,68(1)
.LBB3901:
	.loc 4 1877 0
	lha 0,50(3)
	.cfi_offset 29, -44
	.cfi_offset 27, -52
	.cfi_offset 26, -56
	.cfi_offset 25, -60
	.cfi_offset 24, -64
	.cfi_offset 63, -8
	.cfi_offset 62, -16
	.cfi_offset 61, -24
	.cfi_offset 60, -32
	.cfi_offset 65, 4
	cmpwi 7,0,0
	bne- 7,.L262
	.loc 4 1877 0 is_stmt 0 discriminator 1
	lwz 0,8(3)
	cmpwi 7,0,0
	ble- 7,.L264
	.loc 4 1877 0 discriminator 2
	cmpw 7,0,4
	blt- 7,.L262
.L264:
.LVL416:
.LBE3901:
.LBB3902:
.LBB3903:
	.loc 4 1881 0 is_stmt 1
	mr 3,31
.LVL417:
	stw 4,40(1)
	stw 7,44(1)
	bl _ZNK11idAnimBlend4AnimEv
.LVL418:
	.loc 4 1882 0
	mr. 27,3
	lwz 4,40(1)
.LVL419:
	lwz 7,44(1)
.LVL420:
	beq- 0,.L262
	.loc 4 1886 0
	lbz 0,54(31)
	cmpwi 7,0,0
	bne- 7,.L274
.L265:
.LVL421:
.LBB3904:
.LBB3905:
	.loc 4 1191 0
	lwz 0,20(31)
.LVL422:
	.loc 4 1192 0
	subf. 0,0,4
	ble- 0,.L275
	.loc 4 1194 0
	lwz 9,24(31)
	cmpw 7,0,9
	bge- 7,.L276
.LVL423:
	.loc 4 1197 0
	lis 11,0x4330
	xoris 9,9,0x8000
	xoris 0,0,0x8000
	stw 9,36(1)
	stw 0,28(1)
	lis 9,.LC7@ha
	stw 11,24(1)
	stw 11,32(1)
	lfs 0,.LC7@l(9)
	lfd 28,24(1)
	lfd 12,32(1)
	fsub 28,28,0
	.loc 4 1198 0
	lfs 13,32(31)
	.loc 4 1197 0
	fsub 12,12,0
	.loc 4 1198 0
	lfs 0,28(31)
	.loc 4 1197 0
	frsp 28,28
	frsp 12,12
	.loc 4 1198 0
	fsubs 13,13,0
	.loc 4 1197 0
	fdivs 28,28,12
	.loc 4 1198 0
	fmadds 28,28,13,0
.LVL424:
.L267:
.LBE3905:
.LBE3904:
	.loc 4 1891 0
	lis 9,.LC8@ha
	lfs 31,.LC8@l(9)
	fcmpu 7,28,31
	beq+ 7,.L262
	.loc 4 1895 0
	mr 3,31
.LVL425:
	.loc 9 416 0
	fmr 30,31
	.loc 4 1895 0
	bl _ZNK11idAnimBlend8AnimTimeEi
.LVL426:
.LBB3907:
.LBB3908:
	.loc 4 221 0
	lwz 25,16(27)
.LBE3908:
.LBE3907:
	.loc 4 1895 0
	mr 24,3
.LVL427:
	.loc 9 416 0
	fmr 29,31
	.loc 4 1899 0
	cmpwi 7,25,0
	ble- 7,.L269
.LBE3903:
.LBE3902:
	.loc 9 416 0
	fmr 30,31
.LBB3921:
.LBB3918:
	.loc 4 1869 0
	addi 26,31,32
.LBE3918:
.LBE3921:
	.loc 9 416 0
	fmr 29,31
	.loc 4 1899 0
	li 29,0
.LVL428:
.L270:
.LBB3922:
.LBB3919:
	.loc 4 1900 0
	lha 7,48(31)
	mr 5,29
	mr 3,27
	addi 4,1,8
	mr 6,24
	.loc 4 1899 0
	addi 29,29,1
	.loc 4 1900 0
	bl _ZNK6idAnim9GetOriginER6idVec3iii
	.loc 4 1901 0
	lfsu 0,4(26)
.LVL429:
	.loc 9 456 0
	lfs 13,8(1)
	.loc 4 1899 0
	cmpw 7,29,25
	.loc 9 456 0
	fmadds 29,0,13,29
.LVL430:
	.loc 9 457 0
	lfs 13,12(1)
	fmadds 30,0,13,30
.LVL431:
	.loc 9 458 0
	lfs 13,16(1)
	fmadds 31,0,13,31
.LVL432:
	.loc 4 1899 0
	bne+ 7,.L270
.LVL433:
.L269:
	.loc 4 1904 0
	lis 9,.LC8@ha
	lfs 0,0(28)
	lfs 13,.LC8@l(9)
	fcmpu 7,0,13
	beq- 7,.L277
	.loc 4 1908 0
	fadds 0,28,0
.LBB3909:
.LBB3910:
	.loc 9 431 0
	lfs 11,0(30)
	lfs 12,4(30)
	lfs 13,8(30)
	fsubs 29,29,11
.LBE3910:
.LBE3909:
	.loc 4 1908 0
	fdivs 0,28,0
.LVL434:
.LBB3912:
.LBB3911:
	.loc 9 431 0
	fsubs 30,30,12
.LVL435:
	fsubs 31,31,13
.LVL436:
.LBE3911:
.LBE3912:
.LBB3913:
.LBB3914:
	.loc 9 456 0
	fmadds 11,0,29,11
	.loc 9 457 0
	fmadds 12,0,30,12
	.loc 9 458 0
	fmadds 0,0,31,13
.LVL437:
	.loc 9 456 0
	stfs 11,0(30)
	.loc 9 457 0
	stfs 12,4(30)
	.loc 9 458 0
	stfs 0,8(30)
.LBE3914:
.LBE3913:
	.loc 4 1910 0
	lfs 0,0(28)
	fadds 28,0,28
.LVL438:
	stfs 28,0(28)
.LVL439:
.L262:
.LBE3919:
.LBE3922:
	.loc 4 1912 0
	lwz 0,116(1)
	lwz 24,48(1)
	mtlr 0
	lwz 25,52(1)
	lwz 26,56(1)
	lwz 27,60(1)
	lwz 28,64(1)
.LVL440:
	lwz 29,68(1)
	lwz 30,72(1)
.LVL441:
	lwz 31,76(1)
.LVL442:
	lfd 28,80(1)
	lfd 29,88(1)
	lfd 30,96(1)
	lfd 31,104(1)
	addi 1,1,112
	.cfi_remember_state
.LCFI134:
	.cfi_def_cfa_offset 0
	.cfi_restore 63
	.cfi_restore 62
	.cfi_restore 61
	.cfi_restore 60
	.cfi_restore 31
	.cfi_restore 30
	.cfi_restore 29
	.cfi_restore 28
	.cfi_restore 27
	.cfi_restore 26
	.cfi_restore 25
	.cfi_restore 24
	blr
.LVL443:
.L274:
.LCFI135:
	.cfi_restore_state
.LBB3923:
.LBB3920:
	.loc 4 1886 0
	cmpwi 7,7,0
	beq+ 7,.L265
	b .L262
.LVL444:
.L276:
.LBB3915:
.LBB3906:
	.loc 4 1195 0
	lfs 28,32(31)
.LVL445:
	b .L267
.LVL446:
.L275:
	.loc 4 1193 0
	lfs 28,28(31)
.LVL447:
	b .L267
.LVL448:
.L277:
.LBE3906:
.LBE3915:
.LBB3916:
.LBB3917:
	.loc 9 424 0
	stfs 29,0(30)
	.loc 9 425 0
	stfs 30,4(30)
	.loc 9 426 0
	stfs 31,8(30)
.LBE3917:
.LBE3916:
	.loc 4 1906 0
	stfs 28,0(28)
	b .L262
.LBE3920:
.LBE3923:
	.cfi_endproc
.LFE2874:
	.size	_ZNK11idAnimBlend11BlendOriginEiR6idVec3Rfb, .-_ZNK11idAnimBlend11BlendOriginEiR6idVec3Rfb
	.align 2
	.globl _ZNK11idAnimBlend10BlendDeltaEiiR6idVec3Rf
	.type	_ZNK11idAnimBlend10BlendDeltaEiiR6idVec3Rf, @function
_ZNK11idAnimBlend10BlendDeltaEiiR6idVec3Rf:
.LFB2875:
	.loc 4 1919 0
	.cfi_startproc
.LVL449:
	mflr 0
	stwu 1,-144(1)
.LCFI136:
	.cfi_def_cfa_offset 144
	.cfi_register 65, 0
	stw 28,72(1)
	mr 28,7
	.cfi_offset 28, -72
	stw 29,76(1)
	mr 29,6
	.cfi_offset 29, -68
	stw 31,84(1)
	mr 31,3
	.cfi_offset 31, -60
	stw 0,148(1)
	stfd 25,88(1)
	stfd 26,96(1)
	stfd 27,104(1)
	stfd 28,112(1)
	stfd 29,120(1)
	stfd 30,128(1)
	stfd 31,136(1)
	stw 23,52(1)
	stw 24,56(1)
	stw 25,60(1)
	stw 26,64(1)
	stw 27,68(1)
	stw 30,80(1)
.LBB3954:
	.loc 4 1930 0
	lha 0,50(3)
	.cfi_offset 30, -64
	.cfi_offset 27, -76
	.cfi_offset 26, -80
	.cfi_offset 25, -84
	.cfi_offset 24, -88
	.cfi_offset 23, -92
	.cfi_offset 63, -8
	.cfi_offset 62, -16
	.cfi_offset 61, -24
	.cfi_offset 60, -32
	.cfi_offset 59, -40
	.cfi_offset 58, -48
	.cfi_offset 57, -56
	.cfi_offset 65, 4
	cmpwi 7,0,0
	bne- 7,.L278
	.loc 4 1930 0 is_stmt 0 discriminator 1
	lbz 0,54(3)
	cmpwi 7,0,0
	beq- 7,.L278
	.loc 4 1930 0 discriminator 2
	lwz 0,8(3)
	cmpwi 7,0,0
	ble- 7,.L280
	.loc 4 1930 0 discriminator 3
	cmpw 7,0,4
	blt- 7,.L278
.L280:
.LVL450:
.LBE3954:
.LBB3955:
.LBB3956:
	.loc 4 1934 0 is_stmt 1
	mr 3,31
.LVL451:
	stw 4,40(1)
	stw 5,44(1)
	bl _ZNK11idAnimBlend4AnimEv
.LVL452:
	.loc 4 1935 0
	mr. 27,3
	lwz 4,40(1)
.LVL453:
	lwz 5,44(1)
.LVL454:
	beq- 0,.L278
.LVL455:
.LBB3957:
.LBB3958:
	.loc 4 1191 0
	lwz 0,20(31)
.LVL456:
	.loc 4 1192 0
	subf. 0,0,5
	ble- 0,.L290
	.loc 4 1194 0
	lwz 9,24(31)
	cmpw 7,0,9
	blt- 7,.L283
	.loc 4 1195 0
	lfs 25,32(31)
.LVL457:
.L282:
.LBE3958:
.LBE3957:
	.loc 4 1940 0
	lis 9,.LC8@ha
	lfs 0,.LC8@l(9)
	fcmpu 7,25,0
	beq+ 7,.L278
	.loc 4 1944 0
	mr 3,31
.LVL458:
	stw 5,44(1)
	bl _ZNK11idAnimBlend8AnimTimeEi
.LVL459:
	.loc 4 1945 0
	lwz 5,44(1)
	.loc 4 1944 0
	mr 24,3
.LVL460:
	.loc 4 1945 0
	mr 3,31
.LVL461:
	mr 4,5
	bl _ZNK11idAnimBlend8AnimTimeEi
	.loc 4 1946 0
	cmpw 7,24,3
	.loc 4 1945 0
	mr 25,3
.LVL462:
	.loc 4 1946 0
	bgt- 7,.L291
.LVL463:
.L284:
.LBB3960:
.LBB3961:
	.loc 4 221 0
	lwz 23,16(27)
.LVL464:
.LBE3961:
.LBE3960:
.LBE3956:
.LBE3955:
	.loc 9 416 0
	lis 9,.LC8@ha
	lfs 31,.LC8@l(9)
.LBB3975:
.LBB3971:
	.loc 4 1954 0
	cmpwi 7,23,0
	fmr 29,31
	fmr 27,31
	ble- 7,.L285
.LBE3971:
.LBE3975:
	.loc 9 416 0
	fmr 28,31
.LBB3976:
.LBB3972:
	.loc 4 1919 0
	addi 26,31,32
.LBE3972:
.LBE3976:
	.loc 9 416 0
	fmr 26,31
	.loc 4 1954 0
	li 30,0
	.loc 9 416 0
	fmr 30,31
	fmr 29,31
	fmr 27,31
.LVL465:
.L286:
.LBB3977:
.LBB3973:
	.loc 4 1955 0
	lha 7,48(31)
	mr 5,30
	addi 4,1,8
	mr 6,24
	mr 3,27
	bl _ZNK6idAnim9GetOriginER6idVec3iii
	.loc 4 1956 0
	lfsu 0,4(26)
.LVL466:
	.loc 9 456 0
	lfs 13,8(1)
	.loc 4 1958 0
	mr 5,30
	lha 7,48(31)
	mr 3,27
	.loc 9 456 0
	fmadds 27,0,13,27
.LVL467:
	.loc 9 457 0
	lfs 13,12(1)
	.loc 4 1958 0
	addi 4,1,8
.LVL468:
	mr 6,25
	.loc 9 457 0
	fmadds 29,0,13,29
.LVL469:
	.loc 9 458 0
	lfs 13,16(1)
	.loc 4 1954 0
	addi 30,30,1
	.loc 9 458 0
	fmadds 30,0,13,30
.LVL470:
	.loc 4 1958 0
	bl _ZNK6idAnim9GetOriginER6idVec3iii
.LVL471:
	.loc 4 1959 0
	lfs 0,0(26)
.LVL472:
	.loc 4 1954 0
	cmpw 7,30,23
	.loc 9 456 0
	lfs 13,8(1)
	fmadds 26,0,13,26
.LVL473:
	.loc 9 457 0
	lfs 13,12(1)
	fmadds 28,0,13,28
.LVL474:
	.loc 9 458 0
	lfs 13,16(1)
	fmadds 31,0,13,31
.LVL475:
	.loc 4 1954 0
	bne+ 7,.L286
	fsubs 27,26,27
.LVL476:
	fsubs 29,28,29
.LVL477:
	fsubs 31,31,30
.LVL478:
.L285:
	.loc 4 1963 0
	lis 9,.LC8@ha
	lfs 0,0(28)
	lfs 13,.LC8@l(9)
	fcmpu 7,0,13
	beq- 7,.L292
	.loc 4 1967 0
	fadds 0,25,0
.LBB3962:
.LBB3963:
	.loc 9 431 0
	lfs 11,0(29)
	lfs 12,4(29)
	lfs 13,8(29)
	fsubs 27,27,11
.LVL479:
.LBE3963:
.LBE3962:
	.loc 4 1967 0
	fdivs 0,25,0
.LVL480:
.LBB3965:
.LBB3964:
	.loc 9 431 0
	fsubs 29,29,12
.LVL481:
	fsubs 31,31,13
.LVL482:
.LBE3964:
.LBE3965:
.LBB3966:
.LBB3967:
	.loc 9 456 0
	fmadds 11,0,27,11
	.loc 9 457 0
	fmadds 12,0,29,12
	.loc 9 458 0
	fmadds 0,0,31,13
.LVL483:
	.loc 9 456 0
	stfs 11,0(29)
	.loc 9 457 0
	stfs 12,4(29)
	.loc 9 458 0
	stfs 0,8(29)
.LBE3967:
.LBE3966:
	.loc 4 1969 0
	lfs 0,0(28)
	fadds 25,0,25
.LVL484:
	stfs 25,0(28)
.LVL485:
.L278:
.LBE3973:
.LBE3977:
	.loc 4 1971 0
	lwz 0,148(1)
	lwz 23,52(1)
	mtlr 0
	lwz 24,56(1)
	lwz 25,60(1)
	lwz 26,64(1)
	lwz 27,68(1)
	lwz 28,72(1)
.LVL486:
	lwz 29,76(1)
.LVL487:
	lwz 30,80(1)
	lwz 31,84(1)
.LVL488:
	lfd 25,88(1)
	lfd 26,96(1)
	lfd 27,104(1)
	lfd 28,112(1)
	lfd 29,120(1)
	lfd 30,128(1)
	lfd 31,136(1)
	addi 1,1,144
	.cfi_remember_state
.LCFI137:
	.cfi_def_cfa_offset 0
	.cfi_restore 63
	.cfi_restore 62
	.cfi_restore 61
	.cfi_restore 60
	.cfi_restore 59
	.cfi_restore 58
	.cfi_restore 57
	.cfi_restore 31
	.cfi_restore 30
	.cfi_restore 29
	.cfi_restore 28
	.cfi_restore 27
	.cfi_restore 26
	.cfi_restore 25
	.cfi_restore 24
	.cfi_restore 23
	blr
.LVL489:
.L290:
.LCFI138:
	.cfi_restore_state
.LBB3978:
.LBB3974:
.LBB3968:
.LBB3959:
	.loc 4 1193 0
	lfs 25,28(31)
.LVL490:
	b .L282
.LVL491:
.L283:
	.loc 4 1197 0
	lis 11,0x4330
	xoris 9,9,0x8000
.LVL492:
	xoris 0,0,0x8000
.LVL493:
	stw 9,36(1)
	stw 0,28(1)
	lis 9,.LC7@ha
	stw 11,24(1)
	stw 11,32(1)
	lfs 0,.LC7@l(9)
	lfd 25,24(1)
	lfd 12,32(1)
	fsub 25,25,0
	.loc 4 1198 0
	lfs 13,32(31)
	.loc 4 1197 0
	fsub 12,12,0
	.loc 4 1198 0
	lfs 0,28(31)
	.loc 4 1197 0
	frsp 25,25
	frsp 12,12
	.loc 4 1198 0
	fsubs 13,13,0
	.loc 4 1197 0
	fdivs 25,25,12
	.loc 4 1198 0
	fmadds 25,25,13,0
.LVL494:
	b .L282
.LVL495:
.L292:
.LBE3959:
.LBE3968:
.LBB3969:
.LBB3970:
	.loc 9 424 0
	stfs 27,0(29)
	.loc 9 425 0
	stfs 29,4(29)
	.loc 9 426 0
	stfs 31,8(29)
.LBE3970:
.LBE3969:
	.loc 4 1965 0
	stfs 25,0(28)
	b .L278
.LVL496:
.L291:
	.loc 4 1947 0
	mr 3,27
.LVL497:
	bl _ZNK6idAnim6LengthEv
	add 25,25,3
.LVL498:
	b .L284
.LBE3974:
.LBE3978:
	.cfi_endproc
.LFE2875:
	.size	_ZNK11idAnimBlend10BlendDeltaEiiR6idVec3Rf, .-_ZNK11idAnimBlend10BlendDeltaEiiR6idVec3Rf
	.align 2
	.globl _ZNK11idAnimBlend18BlendDeltaRotationEiiR6idQuatRf
	.type	_ZNK11idAnimBlend18BlendDeltaRotationEiiR6idQuatRf, @function
_ZNK11idAnimBlend18BlendDeltaRotationEiiR6idQuatRf:
.LFB2876:
	.loc 4 1978 0
	.cfi_startproc
.LVL499:
	mflr 0
	stwu 1,-160(1)
.LCFI139:
	.cfi_def_cfa_offset 160
	.cfi_register 65, 0
	stw 29,116(1)
	mr 29,7
	.cfi_offset 29, -44
	stw 30,120(1)
	mr 30,6
	.cfi_offset 30, -40
	stw 31,124(1)
	mr 31,3
	.cfi_offset 31, -36
	stw 0,164(1)
	stfd 28,128(1)
	stfd 29,136(1)
	stfd 30,144(1)
	stfd 31,152(1)
	stw 23,92(1)
	stw 24,96(1)
	stw 25,100(1)
	stw 26,104(1)
	stw 27,108(1)
	stw 28,112(1)
.LBB3999:
	.loc 4 1989 0
	lha 0,50(3)
	.cfi_offset 28, -48
	.cfi_offset 27, -52
	.cfi_offset 26, -56
	.cfi_offset 25, -60
	.cfi_offset 24, -64
	.cfi_offset 23, -68
	.cfi_offset 63, -8
	.cfi_offset 62, -16
	.cfi_offset 61, -24
	.cfi_offset 60, -32
	.cfi_offset 65, 4
	cmpwi 7,0,0
	bne- 7,.L293
	.loc 4 1989 0 is_stmt 0 discriminator 1
	lbz 0,54(3)
	cmpwi 7,0,0
	beq- 7,.L293
	.loc 4 1989 0 discriminator 2
	lwz 0,8(3)
	cmpwi 7,0,0
	ble- 7,.L295
	.loc 4 1989 0 discriminator 3
	cmpw 7,0,4
	blt- 7,.L293
.L295:
.LVL500:
.LBE3999:
.LBB4000:
.LBB4001:
	.loc 4 1993 0 is_stmt 1
	mr 3,31
.LVL501:
	stw 4,72(1)
	stw 5,76(1)
	bl _ZNK11idAnimBlend4AnimEv
.LVL502:
	.loc 4 1994 0
	mr. 27,3
	lwz 4,72(1)
.LVL503:
	lwz 5,76(1)
.LVL504:
	beq- 0,.L293
.LVL505:
	lbz 0,116(27)
	andi. 9,0,16
	beq- 0,.L293
.LVL506:
.LBB4002:
.LBB4003:
	.loc 4 1191 0
	lwz 0,20(31)
.LVL507:
	.loc 4 1192 0
	subf. 0,0,5
	ble- 0,.L313
	.loc 4 1194 0
	lwz 9,24(31)
	cmpw 7,0,9
	blt- 7,.L298
	.loc 4 1195 0
	lfs 31,32(31)
.LVL508:
.L297:
.LBE4003:
.LBE4002:
	.loc 4 1999 0
	lis 9,.LC8@ha
	lfs 0,.LC8@l(9)
	fcmpu 7,31,0
	beq+ 7,.L293
	.loc 4 2003 0
	mr 3,31
.LVL509:
	stw 5,76(1)
	bl _ZNK11idAnimBlend8AnimTimeEi
.LVL510:
	.loc 4 2004 0
	lwz 5,76(1)
	.loc 4 2003 0
	mr 24,3
.LVL511:
	.loc 4 2004 0
	mr 3,31
.LVL512:
	mr 4,5
	bl _ZNK11idAnimBlend8AnimTimeEi
	.loc 4 2005 0
	cmpw 7,24,3
	.loc 4 2004 0
	mr 23,3
.LVL513:
	.loc 4 2005 0
	bgt- 7,.L314
.LVL514:
.L299:
.LBB4006:
.LBB4007:
	.loc 4 221 0
	lwz 25,16(27)
.LBE4007:
.LBE4006:
.LBB4008:
.LBB4009:
	.loc 10 251 0
	lis 9,.LC3@ha
	lwz 9,.LC3@l(9)
	.loc 10 248 0
	li 0,0
.LBE4009:
.LBE4008:
	.loc 4 2014 0
	cmpwi 7,25,0
.LBB4011:
.LBB4010:
	.loc 10 248 0
	stw 0,40(1)
	.loc 10 249 0
	stw 0,44(1)
	.loc 10 250 0
	stw 0,48(1)
	.loc 10 251 0
	stw 9,52(1)
.LVL515:
.LBE4010:
.LBE4011:
.LBB4012:
.LBB4013:
	.loc 10 248 0
	stw 0,24(1)
	.loc 10 249 0
	stw 0,28(1)
	.loc 10 250 0
	stw 0,32(1)
	.loc 10 251 0
	stw 9,36(1)
.LVL516:
.LBE4013:
.LBE4012:
.LBE4001:
.LBE4000:
	.loc 4 2012 0
	stw 0,80(1)
.LBB4026:
.LBB4022:
	.loc 4 2014 0
	ble- 7,.L308
.LBE4022:
.LBE4026:
	.loc 4 2012 0
	lfs 30,80(1)
.LBB4027:
.LBB4023:
	.loc 4 1978 0
	addi 26,31,32
.LBE4023:
.LBE4027:
	.loc 4 2014 0
	li 28,0
.LBB4028:
.LBB4024:
	.loc 4 2015 0
	fmr 29,30
.LVL517:
.L304:
	lfsu 28,4(26)
	fcmpu 7,28,29
	bng- 7,.L301
	.loc 4 2016 0
	fadds 30,30,28
.LVL518:
	.loc 4 2022 0
	mr 5,28
	mr 6,24
	mr 3,27
	addi 4,1,8
	.loc 4 2017 0
	fcmpu 7,28,30
	bne- 7,.L303
	.loc 4 2018 0
	lha 7,48(31)
	addi 4,1,40
	bl _ZNK6idAnim17GetOriginRotationER6idQuatiii
	.loc 4 2019 0
	lha 7,48(31)
	mr 3,27
	addi 4,1,24
	mr 5,28
	mr 6,23
	bl _ZNK6idAnim17GetOriginRotationER6idQuatiii
.LVL519:
.L301:
	.loc 4 2014 0
	addi 28,28,1
.LVL520:
	cmpw 7,28,25
	bne+ 7,.L304
	lfs 11,40(1)
	lfs 7,44(1)
	lfs 8,48(1)
	fneg 11,11
	fneg 7,7
	lfs 13,24(1)
	fneg 8,8
	lfs 10,36(1)
	.loc 4 1978 0
	fmuls 6,11,13
	.loc 4 2014 0
	lfs 9,52(1)
	fmuls 4,11,10
	lfs 0,32(1)
	fmuls 2,7,10
	lfs 12,28(1)
	fmuls 3,8,10
	.loc 4 1978 0
	fneg 5,7
	.loc 4 2014 0
	fmadds 4,9,13,4
	fmadds 2,9,12,2
	fmadds 3,9,0,3
	.loc 4 1978 0
	fmsubs 10,9,10,6
	.loc 4 2014 0
	fmadds 7,7,0,4
	.loc 4 1978 0
	fneg 6,8
	fneg 4,11
	.loc 4 2014 0
	fmadds 8,8,13,2
	fmadds 11,11,12,3
	.loc 4 1978 0
	fmadds 10,5,12,10
	.loc 4 2014 0
	fmadds 8,4,0,8
	fmadds 12,6,12,7
	fmadds 13,5,13,11
	.loc 4 1978 0
	fmadds 0,6,0,10
.LVL521:
.L300:
	.loc 4 2032 0
	lis 9,.LC8@ha
	lfs 11,0(29)
	lfs 10,.LC8@l(9)
.LBB4014:
.LBB4015:
	.loc 10 127 0
	stfs 12,8(1)
.LBE4015:
.LBE4014:
	.loc 4 2032 0
	fcmpu 7,11,10
.LBB4017:
.LBB4016:
	.loc 10 128 0
	stfs 8,12(1)
	.loc 10 129 0
	stfs 13,16(1)
	.loc 10 130 0
	stfs 0,20(1)
.LBE4016:
.LBE4017:
	.loc 4 2032 0
	bne- 7,.L305
.LVL522:
.LBB4018:
.LBB4019:
	.loc 10 127 0
	stfs 12,0(30)
	.loc 10 128 0
	stfs 8,4(30)
	.loc 10 129 0
	stfs 13,8(30)
	.loc 10 130 0
	stfs 0,12(30)
.LBE4019:
.LBE4018:
	.loc 4 2034 0
	stfs 31,0(29)
.LVL523:
.L293:
.LBE4024:
.LBE4028:
	.loc 4 2040 0
	lwz 0,164(1)
	lwz 23,92(1)
	mtlr 0
	lwz 24,96(1)
	lwz 25,100(1)
	lwz 26,104(1)
	lwz 27,108(1)
	lwz 28,112(1)
	lwz 29,116(1)
.LVL524:
	lwz 30,120(1)
.LVL525:
	lwz 31,124(1)
.LVL526:
	lfd 28,128(1)
	lfd 29,136(1)
	lfd 30,144(1)
	lfd 31,152(1)
	addi 1,1,160
	.cfi_remember_state
.LCFI140:
	.cfi_def_cfa_offset 0
	.cfi_restore 63
	.cfi_restore 62
	.cfi_restore 61
	.cfi_restore 60
	.cfi_restore 31
	.cfi_restore 30
	.cfi_restore 29
	.cfi_restore 28
	.cfi_restore 27
	.cfi_restore 26
	.cfi_restore 25
	.cfi_restore 24
	.cfi_restore 23
	blr
.LVL527:
.L298:
.LCFI141:
	.cfi_restore_state
.LBB4029:
.LBB4025:
.LBB4020:
.LBB4004:
	.loc 4 1197 0
	lis 11,0x4330
	xoris 9,9,0x8000
.LVL528:
	xoris 0,0,0x8000
.LVL529:
	stw 9,68(1)
	stw 0,60(1)
	lis 9,.LC7@ha
	stw 11,56(1)
	stw 11,64(1)
	lfs 0,.LC7@l(9)
	lfd 31,56(1)
	lfd 12,64(1)
	fsub 31,31,0
	.loc 4 1198 0
	lfs 13,32(31)
	.loc 4 1197 0
	fsub 12,12,0
	.loc 4 1198 0
	lfs 0,28(31)
	.loc 4 1197 0
	frsp 31,31
	frsp 12,12
	.loc 4 1198 0
	fsubs 13,13,0
	.loc 4 1197 0
	fdivs 31,31,12
	.loc 4 1198 0
	fmadds 31,31,13,0
.LVL530:
	b .L297
.LVL531:
.L314:
.LBE4004:
.LBE4020:
	.loc 4 2006 0
	mr 3,27
.LVL532:
	bl _ZNK6idAnim6LengthEv
	add 23,23,3
.LVL533:
	b .L299
.LVL534:
.L308:
	.loc 4 2014 0
	lfs 13,80(1)
	stw 9,80(1)
	fmr 8,13
	lfs 0,80(1)
	fmr 12,13
	b .L300
.LVL535:
.L303:
	.loc 4 2021 0
	fdivs 28,28,30
.LVL536:
	.loc 4 2022 0
	lha 7,48(31)
	bl _ZNK6idAnim17GetOriginRotationER6idQuatiii
	.loc 4 2023 0
	addi 3,1,40
	addi 5,1,8
	mr 4,3
	fmr 1,28
	bl _ZN6idQuat5SlerpERKS_S1_f
	.loc 4 2025 0
	lha 7,48(31)
	addi 4,1,8
	mr 5,28
	mr 3,27
	mr 6,23
	bl _ZNK6idAnim17GetOriginRotationER6idQuatiii
	.loc 4 2026 0
	fmr 1,28
	addi 3,1,24
	addi 4,1,40
	addi 5,1,8
	bl _ZN6idQuat5SlerpERKS_S1_f
	b .L301
.LVL537:
.L313:
.LBB4021:
.LBB4005:
	.loc 4 1193 0
	lfs 31,28(31)
.LVL538:
	b .L297
.LVL539:
.L305:
.LBE4005:
.LBE4021:
	.loc 4 2036 0
	fadds 11,31,11
.LVL540:
	.loc 4 2037 0
	mr 3,30
	mr 4,30
	addi 5,1,8
.LVL541:
	fdivs 1,31,11
	bl _ZN6idQuat5SlerpERKS_S1_f
.LVL542:
	.loc 4 2038 0
	lfs 0,0(29)
	fadds 31,0,31
.LVL543:
	stfs 31,0(29)
	b .L293
.LBE4025:
.LBE4029:
	.cfi_endproc
.LFE2876:
	.size	_ZNK11idAnimBlend18BlendDeltaRotationEiiR6idQuatRf, .-_ZNK11idAnimBlend18BlendDeltaRotationEiiR6idQuatRf
	.align 2
	.globl _ZNK11idAnimBlend9AddBoundsEiR8idBoundsb
	.type	_ZNK11idAnimBlend9AddBoundsEiR8idBoundsb, @function
_ZNK11idAnimBlend9AddBoundsEiR8idBoundsb:
.LFB2877:
	.loc 4 2047 0
	.cfi_startproc
.LVL544:
	mflr 0
	stwu 1,-104(1)
.LCFI142:
	.cfi_def_cfa_offset 104
	.cfi_register 65, 0
	mfcr 12
	stw 28,88(1)
	mr 28,6
	.cfi_offset 28, -16
	.cfi_register 70, 12
	stw 29,92(1)
	mr 29,4
	.cfi_offset 29, -12
	stw 30,96(1)
	mr 30,5
	.cfi_offset 30, -8
	stw 31,100(1)
	mr 31,3
	.cfi_offset 31, -4
	stw 0,108(1)
	stw 25,76(1)
	stw 26,80(1)
	stw 27,84(1)
	stw 12,72(1)
.LBB4030:
	.loc 4 2055 0
	lwz 0,8(3)
	.cfi_offset 70, -32
	.cfi_offset 27, -20
	.cfi_offset 26, -24
	.cfi_offset 25, -28
	.cfi_offset 65, 4
	cmpwi 7,0,0
	ble- 7,.L316
	.loc 4 2055 0 is_stmt 0 discriminator 1
	cmpw 7,0,4
	.loc 4 2056 0 is_stmt 1 discriminator 1
	li 3,0
.LVL545:
	.loc 4 2055 0 discriminator 1
	blt- 7,.L317
.L316:
	.loc 4 2059 0
	mr 3,31
	bl _ZNK11idAnimBlend4AnimEv
.LVL546:
	.loc 4 2060 0
	mr. 27,3
	.loc 4 2061 0
	li 3,0
.LVL547:
	.loc 4 2060 0
	beq- 0,.L317
.LVL548:
.LBB4031:
.LBB4032:
	.loc 4 1191 0
	lwz 0,20(31)
.LVL549:
	.loc 4 1192 0
	subf. 0,0,29
	ble- 0,.L349
	.loc 4 1194 0
	lwz 9,24(31)
	cmpw 7,0,9
	blt- 7,.L320
	.loc 4 1195 0
	lfs 13,32(31)
.LVL550:
.L319:
.LBE4032:
.LBE4031:
	.loc 4 2065 0
	lis 9,.LC8@ha
	.loc 4 2066 0
	li 3,0
	.loc 4 2065 0
	lfs 0,.LC8@l(9)
	fcmpu 7,13,0
	beq+ 7,.L317
	.loc 4 2069 0
	mr 3,31
	mr 4,29
	bl _ZNK11idAnimBlend8AnimTimeEi
.LVL551:
	.loc 4 2072 0
	lbz 0,54(31)
	.loc 4 2069 0
	mr 25,3
.LVL552:
.LBB4034:
.LBB4035:
	.loc 4 221 0
	lwz 26,16(27)
.LBE4035:
.LBE4034:
	.loc 4 2072 0
	cmpwi 7,0,0
	li 0,1
	bne- 7,.L350
.LVL553:
	.loc 4 2073 0 discriminator 4
	cmpwi 7,26,0
	.loc 4 2083 0 discriminator 4
	li 3,1
.LVL554:
	.loc 4 2073 0 discriminator 4
	ble- 7,.L317
.LVL555:
.L351:
	.loc 4 2075 0
	cmpwi 4,0,0
	.loc 4 2047 0
	addi 28,27,-4
	.loc 4 2073 0
	li 29,0
.LVL556:
.L336:
	.loc 4 2074 0
	addi 28,28,4
	lha 6,48(31)
.LVL557:
.LBB4036:
.LBB4037:
	.loc 4 273 0
	lwz 3,4(28)
	cmpwi 7,3,0
	beq- 7,.L322
	.loc 4 277 0
	addi 4,1,20
	mr 5,25
	bl _ZNK9idMD5Anim9GetBoundsER8idBoundsii
.LVL558:
.LBE4037:
.LBE4036:
	.loc 4 2075 0
	bne- 4,.L323
	lfs 9,20(1)
	lfs 10,24(1)
	lfs 11,28(1)
	lfs 12,32(1)
	lfs 13,36(1)
	lfs 0,40(1)
.L324:
.LVL559:
.LBB4038:
.LBB4039:
	.file 13 "d:/Data/Nintendo/DoomGX/src/game/anim/../../idlib/../idlib/bv/Bounds.h"
	.loc 13 257 0
	lfs 8,0(30)
	fcmpu 7,8,9
	bng- 7,.L325
.LVL560:
	.loc 13 258 0
	stfs 9,0(30)
.LVL561:
.L325:
	.loc 13 261 0
	lfs 9,4(30)
	fcmpu 7,9,10
	bng- 7,.L327
.LVL562:
	.loc 13 262 0
	stfs 10,4(30)
.LVL563:
.L327:
	.loc 13 265 0
	lfs 10,8(30)
	fcmpu 7,10,11
	bng- 7,.L329
.LVL564:
	.loc 13 266 0
	stfs 11,8(30)
.LVL565:
.L329:
	.loc 13 269 0
	lfs 11,12(30)
	fcmpu 7,11,12
	bnl- 7,.L331
.LVL566:
	.loc 13 270 0
	stfs 12,12(30)
.LVL567:
.L331:
	.loc 13 273 0
	lfs 12,16(30)
	fcmpu 7,12,13
	bnl- 7,.L333
.LVL568:
	.loc 13 274 0
	stfs 13,16(30)
.LVL569:
.L333:
	.loc 13 277 0
	lfs 13,20(30)
	fcmpu 7,13,0
	bnl- 7,.L322
.LVL570:
	.loc 13 278 0
	stfs 0,20(30)
.LVL571:
.L322:
.LBE4039:
.LBE4038:
	.loc 4 2073 0
	addi 29,29,1
.LVL572:
	cmpw 7,29,26
	bne+ 7,.L336
	.loc 4 2083 0
	li 3,1
.LVL573:
.L317:
.LBE4030:
	.loc 4 2084 0
	lwz 0,108(1)
	lwz 12,72(1)
	mtlr 0
	lwz 25,76(1)
	lwz 26,80(1)
	mtcrf 8,12
	lwz 27,84(1)
	lwz 28,88(1)
	lwz 29,92(1)
	lwz 30,96(1)
.LVL574:
	lwz 31,100(1)
.LVL575:
	addi 1,1,104
	.cfi_remember_state
.LCFI143:
	.cfi_def_cfa_offset 0
	.cfi_restore 70
	.cfi_restore 31
	.cfi_restore 30
	.cfi_restore 29
	.cfi_restore 28
	.cfi_restore 27
	.cfi_restore 26
	.cfi_restore 25
	blr
.LVL576:
.L320:
.LCFI144:
	.cfi_restore_state
.LBB4064:
.LBB4040:
.LBB4033:
	.loc 4 1197 0
	lis 11,0x4330
	xoris 9,9,0x8000
.LVL577:
	xoris 0,0,0x8000
.LVL578:
	stw 9,68(1)
	stw 0,60(1)
	lis 9,.LC7@ha
	stw 11,56(1)
	stw 11,64(1)
	lfs 0,.LC7@l(9)
	lfd 11,56(1)
	lfd 13,64(1)
	fsub 11,11,0
	.loc 4 1198 0
	lfs 12,32(31)
	.loc 4 1197 0
	fsub 13,13,0
	.loc 4 1198 0
	lfs 0,28(31)
	.loc 4 1197 0
	frsp 11,11
	frsp 13,13
	.loc 4 1198 0
	fsubs 12,12,0
	.loc 4 1197 0
	fdivs 13,11,13
	.loc 4 1198 0
	fmadds 13,13,12,0
.LVL579:
	b .L319
.LVL580:
.L349:
	.loc 4 1193 0
	lfs 13,28(31)
.LVL581:
	b .L319
.LVL582:
.L350:
.LBE4033:
.LBE4040:
	.loc 4 2073 0 discriminator 2
	cmpwi 7,26,0
	.loc 4 2047 0 discriminator 2
	xori 0,28,1
.LVL583:
	.loc 4 2083 0 discriminator 2
	li 3,1
.LVL584:
	.loc 4 2073 0 discriminator 2
	bgt+ 7,.L351
	b .L317
.LVL585:
.L323:
	.loc 4 2076 0
	lha 7,48(31)
	mr 3,27
	addi 4,1,8
	mr 5,29
	mr 6,25
	bl _ZNK6idAnim9GetOriginER6idVec3iii
.LVL586:
.LBB4041:
.LBB4042:
.LBB4043:
	.loc 9 456 0
	lfs 8,32(1)
.LBE4043:
.LBE4042:
.LBB4049:
.LBB4050:
	lfs 12,8(1)
	lfs 9,20(1)
	.loc 9 457 0
	lfs 13,12(1)
	.loc 9 456 0
	fadds 9,12,9
	.loc 9 457 0
	lfs 10,24(1)
.LBE4050:
.LBE4049:
.LBB4055:
.LBB4044:
	.loc 9 456 0
	fadds 12,12,8
	.loc 9 457 0
	lfs 8,36(1)
.LBE4044:
.LBE4055:
.LBB4056:
.LBB4051:
	.loc 9 458 0
	lfs 0,16(1)
	.loc 9 457 0
	fadds 10,13,10
	.loc 9 458 0
	lfs 11,28(1)
.LBE4051:
.LBE4056:
.LBB4057:
.LBB4045:
	.loc 9 457 0
	fadds 13,13,8
	.loc 9 458 0
	lfs 8,40(1)
.LBE4045:
.LBE4057:
.LBB4058:
.LBB4052:
	fadds 11,0,11
	.loc 9 456 0
	stfs 9,20(1)
.LBE4052:
.LBE4058:
.LBB4059:
.LBB4046:
	.loc 9 458 0
	fadds 0,0,8
.LBE4046:
.LBE4059:
.LBB4060:
.LBB4053:
	.loc 9 457 0
	stfs 10,24(1)
.LBE4053:
.LBE4060:
.LBB4061:
.LBB4047:
	.loc 9 456 0
	stfs 12,32(1)
.LBE4047:
.LBE4061:
.LBB4062:
.LBB4054:
	.loc 9 458 0
	stfs 11,28(1)
.LVL587:
.LBE4054:
.LBE4062:
.LBB4063:
.LBB4048:
	.loc 9 457 0
	stfs 13,36(1)
	.loc 9 458 0
	stfs 0,40(1)
	b .L324
.LBE4048:
.LBE4063:
.LBE4041:
.LBE4064:
	.cfi_endproc
.LFE2877:
	.size	_ZNK11idAnimBlend9AddBoundsEiR8idBoundsb, .-_ZNK11idAnimBlend9AddBoundsEiR8idBoundsb
	.align 2
	.globl _ZNK14idDeclModelDef9FindJointEPKc
	.type	_ZNK14idDeclModelDef9FindJointEPKc, @function
_ZNK14idDeclModelDef9FindJointEPKc:
.LFB2889:
	.loc 4 2187 0
	.cfi_startproc
.LVL588:
	mflr 0
	stwu 1,-24(1)
.LCFI145:
	.cfi_def_cfa_offset 24
	.cfi_register 65, 0
	stw 28,8(1)
	mr 28,4
	.cfi_offset 28, -16
	stw 29,12(1)
	mr 29,3
	.cfi_offset 29, -12
	stw 30,16(1)
.LBB4065:
	.loc 4 2192 0
	li 30,0
	.cfi_offset 30, -8
.LBE4065:
	.loc 4 2187 0
	stw 0,28(1)
	stw 31,20(1)
.LBB4072:
	.loc 4 2191 0
	lwz 9,132(3)
	cmpwi 7,9,0
	beq- 7,.L353
	.cfi_offset 31, -4
	.cfi_offset 65, 4
	.loc 4 2195 0
	lwz 11,0(9)
	mr 3,9
.LVL589:
	lwz 0,144(11)
	mtctr 0
	bctrl
.LVL590:
	.loc 4 2196 0
	lwz 0,20(29)
	.loc 4 2195 0
	mr 31,3
.LVL591:
	.loc 4 2196 0
	cmpwi 7,0,0
	bgt+ 7,.L355
	b .L353
.LVL592:
.L354:
	lwz 0,20(29)
	addi 30,30,1
.LVL593:
	cmpw 7,0,30
	ble- 7,.L359
.LVL594:
.L355:
.LBB4066:
.LBB4067:
	.loc 7 690 0
	lwz 3,4(31)
	mr 4,28
.LBE4067:
.LBE4066:
	.loc 4 2196 0
	addi 31,31,36
.LVL595:
.LBB4069:
.LBB4068:
	.loc 7 690 0
	bl _ZN5idStr4IcmpEPKcS1_
.LBE4068:
.LBE4069:
	.loc 4 2197 0
	cmpwi 7,3,0
	bne+ 7,.L354
.LVL596:
.LBB4070:
.LBB4071:
	.loc 8 573 0
	mulli 30,30,12
.LVL597:
	lwz 0,32(29)
	add 30,0,30
.LVL598:
.L353:
.LBE4071:
.LBE4070:
.LBE4072:
	.loc 4 2203 0
	lwz 0,28(1)
	mr 3,30
	lwz 28,8(1)
.LVL599:
	mtlr 0
	lwz 29,12(1)
.LVL600:
	lwz 30,16(1)
	lwz 31,20(1)
	addi 1,1,24
	.cfi_remember_state
.LCFI146:
	.cfi_def_cfa_offset 0
	.cfi_restore 31
	.cfi_restore 30
	.cfi_restore 29
	.cfi_restore 28
	blr
.LVL601:
.L359:
.LCFI147:
	.cfi_restore_state
	lwz 0,28(1)
.LBB4073:
	.loc 4 2202 0
	li 30,0
.LVL602:
.LBE4073:
	.loc 4 2203 0
	mr 3,30
	lwz 28,8(1)
.LVL603:
	mtlr 0
	lwz 29,12(1)
.LVL604:
	lwz 30,16(1)
	lwz 31,20(1)
.LVL605:
	addi 1,1,24
	.cfi_restore 28
	.cfi_restore 29
	.cfi_restore 30
	.cfi_restore 31
.LCFI148:
	.cfi_def_cfa_offset 0
	blr
	.cfi_endproc
.LFE2889:
	.size	_ZNK14idDeclModelDef9FindJointEPKc, .-_ZNK14idDeclModelDef9FindJointEPKc
	.align 2
	.globl _ZN6idAnim15AddFrameCommandEPK14idDeclModelDefiR7idLexerPK6idDict
	.type	_ZN6idAnim15AddFrameCommandEPK14idDeclModelDefiR7idLexerPK6idDict, @function
_ZN6idAnim15AddFrameCommandEPK14idDeclModelDefiR7idLexerPK6idDict:
.LFB2831:
	.loc 4 289 0
	.cfi_startproc
	.cfi_personality 0,__gxx_personality_v0
	.cfi_lsda 0,.LLSDA2831
.LVL606:
	stwu 1,-192(1)
.LCFI149:
	.cfi_def_cfa_offset 192
.LVL607:
	mflr 0
.LBB4225:
.LBB4226:
.LBB4227:
.LBB4228:
	.loc 7 357 0
	li 9,20
.LBE4228:
.LBE4227:
.LBE4226:
.LBE4225:
	.loc 4 289 0
	stw 29,180(1)
.LBB4501:
	.loc 4 299 0
	mr. 29,5
	.cfi_offset 29, -12
	.cfi_register 65, 0
.LBB4235:
.LBB4232:
.LBB4229:
	.loc 7 358 0
	addi 11,1,64
.LBE4229:
.LBE4232:
.LBE4235:
.LBE4501:
	.loc 4 289 0
	stw 0,196(1)
.LBB4502:
.LBB4236:
.LBB4233:
.LBB4230:
	.loc 7 357 0
	stw 9,60(1)
	.loc 7 356 0
	li 0,0
	.cfi_offset 65, 4
	.loc 7 358 0
	stw 11,56(1)
.LBE4230:
.LBE4233:
.LBE4236:
.LBB4237:
.LBB4238:
.LBB4239:
	addi 11,1,32
	.loc 7 357 0
	stw 9,28(1)
.LBE4239:
.LBE4238:
.LBE4237:
.LBB4242:
.LBB4243:
.LBB4244:
.LBB4245:
	stw 9,96(1)
	.loc 7 358 0
	addi 9,1,100
.LBE4245:
.LBE4244:
.LBE4243:
.LBE4242:
.LBE4502:
	.loc 4 289 0
	stw 27,172(1)
	mr 27,4
	.cfi_offset 27, -20
	stw 28,176(1)
	mr 28,6
	.cfi_offset 28, -16
	stw 31,188(1)
	mr 31,3
	.cfi_offset 31, -4
	stw 26,168(1)
	stw 30,184(1)
.LBB4503:
.LBB4249:
.LBB4234:
.LBB4231:
	.loc 7 356 0
	stw 0,52(1)
	.loc 7 359 0
	stb 0,64(1)
.LVL608:
.LBE4231:
.LBE4234:
.LBE4249:
.LBB4250:
.LBB4241:
.LBB4240:
	.loc 7 356 0
	stw 0,20(1)
	.loc 7 358 0
	stw 11,24(1)
	.loc 7 359 0
	stb 0,32(1)
.LVL609:
.LBE4240:
.LBE4241:
.LBE4250:
.LBB4251:
.LBB4248:
.LBB4247:
.LBB4246:
	.loc 7 356 0
	stw 0,88(1)
	.loc 7 358 0
	stw 9,92(1)
	.loc 7 359 0
	stb 0,100(1)
.LBE4246:
.LBE4247:
.LBE4248:
.LBE4251:
	.loc 4 299 0
	ble- 0,.L361
	.cfi_offset 30, -8
	.cfi_offset 26, -24
	.loc 4 299 0 is_stmt 0 discriminator 2
	lwz 3,4(3)
.LVL610:
	addi 30,1,88
.LEHB0:
	bl _ZNK9idMD5Anim9NumFramesEv
.LVL611:
	cmpw 7,29,3
	ble- 7,.L362
.L361:
	.loc 4 300 0 is_stmt 1 discriminator 4
	lis 3,.LC12@ha
	mr 4,29
	la 3,.LC12@l(3)
	addi 30,1,88
	crxor 6,6,6
	bl _Z2vaPKcz
.LEHE0:
	mr 29,3
.LVL612:
	addi 30,1,88
.LVL613:
.L363:
.LBB4252:
.LBB4253:
.LBB4254:
.LBB4255:
.LBB4256:
	.loc 7 501 0
	mr 3,30
.LEHB1:
	bl _ZN5idStr8FreeDataEv
.LEHE1:
.LVL614:
.LBE4256:
.LBE4255:
.LBE4254:
.LBE4253:
.LBE4252:
.LBB4257:
.LBB4258:
.LBB4259:
	addi 3,1,20
.LEHB2:
	bl _ZN5idStr8FreeDataEv
.LEHE2:
.LVL615:
.LBE4259:
.LBE4258:
.LBE4257:
.LBB4260:
.LBB4261:
.LBB4262:
	addi 3,1,52
.LEHB3:
	bl _ZN5idStr8FreeDataEv
.LEHE3:
.LBE4262:
.LBE4261:
.LBE4260:
.LBE4503:
	.loc 4 661 0
	lwz 0,196(1)
	mr 3,29
	lwz 26,168(1)
	mtlr 0
	lwz 27,172(1)
	lwz 28,176(1)
	lwz 29,180(1)
	lwz 30,184(1)
	lwz 31,188(1)
.LVL616:
	addi 1,1,192
	.cfi_remember_state
.LCFI150:
	.cfi_def_cfa_offset 0
	.cfi_restore 31
	.cfi_restore 30
	.cfi_restore 29
	.cfi_restore 28
	.cfi_restore 27
	.cfi_restore 26
	blr
.LVL617:
.L362:
.LCFI151:
	.cfi_restore_state
.LBB4504:
	.loc 4 308 0
	addi 30,1,88
	.loc 4 306 0
	li 0,0
	.loc 4 308 0
	mr 3,28
	mr 4,30
	.loc 4 306 0
	stw 0,8(1)
	stw 0,12(1)
	stw 0,16(1)
.LEHB4:
	.loc 4 308 0
	bl _ZN7idLexer15ReadTokenOnLineEP7idToken
	cmpwi 7,3,0
	bne- 7,.L561
.LVL618:
.L510:
.LBB4263:
.LBB4264:
.LBB4265:
	.loc 4 608 0
	lis 29,.LC11@ha
.LVL619:
	la 29,.LC11@l(29)
	b .L363
.LVL620:
.L561:
.LBE4265:
.LBE4264:
.LBB4401:
.LBB4402:
	.loc 7 653 0
	lis 4,.LC13@ha
	lwz 3,4(30)
	la 4,.LC13@l(4)
	bl _ZN5idStr3CmpEPKcS1_
.LBE4402:
.LBE4401:
	.loc 4 311 0
	cmpwi 7,3,0
	bne- 7,.L364
	.loc 4 312 0
	mr 3,28
	mr 4,30
	bl _ZN7idLexer15ReadTokenOnLineEP7idToken
	cmpwi 7,3,0
	beq+ 7,.L510
.LVL621:
	.loc 4 316 0
	lis 3,gameLocal+33476@ha
	lwz 4,4(30)
	la 3,gameLocal+33476@l(3)
	bl _ZNK9idProgram12FindFunctionEPKc
	.loc 4 317 0
	cmpwi 7,3,0
	.loc 4 316 0
	stw 3,16(1)
	.loc 4 317 0
	bne+ 7,.L365
	.loc 4 318 0
	lis 3,.LC14@ha
	lwz 4,4(30)
	la 3,.LC14@l(3)
	crxor 6,6,6
	bl _Z2vaPKcz
.LBB4403:
.LBB4370:
	.loc 4 623 0
	mr 29,3
.LVL622:
	b .L363
.LVL623:
.L364:
.LBE4370:
.LBB4371:
.LBB4372:
	.loc 7 653 0
	lis 4,.LC15@ha
	lwz 3,4(30)
	la 4,.LC15@l(4)
	bl _ZN5idStr3CmpEPKcS1_
.LBE4372:
.LBE4371:
	.loc 4 320 0
	cmpwi 7,3,0
	bne- 7,.L366
	.loc 4 321 0
	mr 3,28
	mr 4,30
	bl _ZN7idLexer15ReadTokenOnLineEP7idToken
	cmpwi 7,3,0
	beq+ 7,.L510
	.loc 4 324 0
	li 0,1
	.loc 4 325 0
	li 3,32
	.loc 4 324 0
	stw 0,8(1)
	.loc 4 325 0
	bl _Znwj
.LBB4373:
.LBB4374:
.LBB4375:
.LBB4376:
	.loc 7 356 0
	li 9,0
	.loc 7 358 0
	addi 0,3,12
	.loc 7 356 0
	stw 9,0(3)
	.loc 7 357 0
	li 11,20
.LBE4376:
.LBE4375:
.LBE4374:
.LBE4373:
	.loc 4 325 0
	mr 28,3
.LVL624:
.LBB4390:
.LBB4387:
.LBB4380:
.LBB4377:
	.loc 7 357 0
	stw 11,8(3)
.LBE4377:
.LBE4380:
.LBE4387:
	.loc 4 5042 0
	lwz 27,88(1)
.LVL625:
.LBB4388:
.LBB4381:
.LBB4378:
	.loc 7 358 0
	stw 0,4(3)
.LBE4378:
.LBE4381:
	.loc 7 374 0
	addi 4,27,1
.LVL626:
.LBB4382:
.LBB4379:
	.loc 7 359 0
	stb 9,12(3)
.LBE4379:
.LBE4382:
.LBB4383:
.LBB4384:
	.loc 7 350 0
	cmpwi 7,4,20
	bgt- 7,.L562
.LVL627:
.L371:
.LBE4384:
.LBE4383:
.LBE4388:
.LBE4390:
.LBB4391:
.LBB4266:
.LBB4267:
.LBB4268:
	.loc 7 375 0
	lwz 4,92(1)
	mr 3,0
	bl strcpy
	.loc 7 376 0
	stw 27,0(28)
.LBE4268:
.LBE4267:
	.loc 4 338 0
	stw 28,12(1)
.LVL628:
.L365:
.LBE4266:
.LBE4391:
.LBE4403:
.LBE4263:
	.loc 4 627 0
	lwz 27,84(31)
	cmpwi 7,27,0
	bne- 7,.L419
.LBB4411:
.LBB4412:
	.loc 8 319 0
	lwz 3,96(31)
	.loc 8 317 0
	li 0,1
.LBE4412:
.LBE4411:
	.loc 4 629 0
	addi 28,31,84
.LVL629:
.LBB4418:
.LBB4417:
	.loc 8 317 0
	stw 0,92(31)
	.loc 8 319 0
	cmpwi 7,3,0
	beq- 7,.L420
.LVL630:
	.loc 8 323 0
	lwz 0,88(31)
	cmpwi 7,0,0
	beq- 7,.L420
.LVL631:
.LBB4413:
.LBB4414:
.LBB4415:
.LBB4416:
	.loc 8 194 0
	bl _ZdaPv
	.loc 8 197 0
	stw 27,96(31)
	.loc 8 198 0
	stw 27,84(31)
	.loc 8 199 0
	stw 27,88(31)
.LVL632:
.L420:
.LBE4416:
.LBE4415:
.LBE4414:
.LBE4413:
.LBE4417:
.LBE4418:
	.loc 4 630 0
	lwz 3,4(31)
	bl _ZNK9idMD5Anim9NumFramesEv
.LVL633:
.LBB4419:
.LBB4420:
.LBB4421:
.LBB4422:
	.loc 8 375 0
	mr. 27,3
	ble- 0,.L563
	.loc 8 380 0
	lwz 0,88(31)
	cmpw 7,27,0
	beq- 7,.L423
	.loc 8 387 0
	lwz 0,84(31)
	.loc 8 385 0
	lwz 26,96(31)
.LVL634:
	.loc 8 387 0
	cmpw 7,27,0
	.loc 8 386 0
	stw 27,88(31)
	.loc 8 387 0
	bge- 7,.L424
	.loc 8 388 0
	stw 27,84(31)
.L424:
	.loc 8 392 0
	slwi 3,27,3
.LVL635:
	bl _Znaj
.LVL636:
	.loc 8 393 0
	lwz 0,84(31)
	.loc 8 392 0
	stw 3,96(31)
.LVL637:
	.loc 8 393 0
	cmpwi 7,0,0
	ble- 7,.L425
	.loc 4 289 0
	addi 8,26,-8
.LBE4422:
.LBE4421:
.LBE4420:
.LBE4419:
.LBE4504:
	.loc 8 393 0
	li 9,0
	b .L426
.LVL638:
.L564:
.LBB4505:
.LBB4436:
.LBB4433:
.LBB4430:
.LBB4427:
	lwz 3,96(31)
.LVL639:
.L426:
	.loc 8 394 0
	addi 8,8,8
	slwi 0,9,3
	lwz 10,0(8)
	add 3,3,0
	lwz 11,4(8)
	.loc 8 393 0
	addi 9,9,1
.LVL640:
	.loc 8 394 0
	stw 10,0(3)
	stw 11,4(3)
	.loc 8 393 0
	lwz 0,0(28)
	cmpw 7,9,0
	blt+ 7,.L564
.LVL641:
.L425:
	.loc 8 398 0
	cmpwi 7,26,0
	beq- 7,.L423
	.loc 8 399 0
	mr 3,26
	bl _ZdaPv
.LVL642:
.L423:
.LBE4427:
.LBE4430:
	.loc 8 302 0
	stw 27,84(31)
.LVL643:
	li 9,0
.LBE4433:
.LBE4436:
	.loc 4 632 0
	li 11,0
.LVL644:
.L427:
	.loc 4 632 0 is_stmt 0 discriminator 2
	lwz 10,96(31)
.LBB4437:
.LBB4434:
	.loc 4 289 0 is_stmt 1 discriminator 2
	slwi 0,9,3
.LBE4434:
.LBE4437:
	.loc 4 631 0 discriminator 2
	addi 9,9,1
.LVL645:
	.loc 4 632 0 discriminator 2
	stwx 11,10,0
.LVL646:
	.loc 4 633 0 discriminator 2
	lwz 10,96(31)
	add 10,10,0
	stw 11,4(10)
	.loc 4 631 0 discriminator 2
	lwz 0,84(31)
	cmpw 7,0,9
	bgt+ 7,.L427
.LVL647:
.L419:
.LBB4438:
.LBB4439:
	.loc 8 633 0
	lwz 0,112(31)
.LBE4439:
.LBE4438:
	.loc 4 638 0
	addi 28,31,100
.LVL648:
.LBB4465:
.LBB4458:
	.loc 8 633 0
	cmpwi 7,0,0
	beq- 7,.L428
	lwz 9,100(31)
	lwz 0,104(31)
.L429:
	.loc 8 637 0
	cmpw 7,0,9
	beq- 7,.L565
.L435:
.LBE4458:
.LBE4465:
.LBB4466:
.LBB4467:
	.loc 8 589 0
	lwz 11,96(31)
.LBE4467:
.LBE4466:
.LBB4469:
.LBB4459:
	.loc 8 641 0
	addi 0,9,1
.LBE4459:
.LBE4469:
	.loc 4 304 0
	addi 6,29,-1
.LBB4470:
.LBB4460:
	.loc 8 641 0
	stw 0,100(31)
.LVL649:
.LBE4460:
.LBE4470:
.LBB4471:
.LBB4468:
	.loc 8 589 0
	slwi 6,6,3
	add 10,11,6
.LVL650:
.LBE4468:
.LBE4471:
	.loc 4 641 0
	lwzx 0,11,6
	lwz 5,4(10)
	add 5,5,0
.LVL651:
	.loc 4 644 0
	cmpw 7,9,5
	ble- 7,.L442
	mulli 11,9,12
	subf 9,5,9
.LVL652:
	mtctr 9
.LVL653:
.L443:
	.loc 4 5042 0 discriminator 2
	lwz 10,112(31)
	.loc 4 645 0 discriminator 2
	add 9,10,11
	lwz 8,-8(9)
	lwz 0,-4(9)
	lwz 7,-12(9)
	stwx 7,10,11
	.loc 4 644 0 discriminator 2
	addi 11,11,-12
	.loc 4 645 0 discriminator 2
	stw 8,4(9)
	stw 0,8(9)
	.loc 4 644 0 discriminator 2
	bdnz .L443
.L442:
.LVL654:
	.loc 4 649 0 discriminator 1
	lwz 0,84(31)
	cmpw 7,29,0
	bge- 7,.L444
	.loc 4 649 0 is_stmt 0
	slwi 9,29,3
.LVL655:
.L445:
.LBB4472:
.LBB4473:
	.loc 8 589 0 is_stmt 1 discriminator 2
	lwz 11,96(31)
.LBE4473:
.LBE4472:
	.loc 4 649 0 discriminator 2
	addi 29,29,1
.LVL656:
.LBB4475:
.LBB4474:
	.loc 8 589 0 discriminator 2
	add 11,11,9
.LBE4474:
.LBE4475:
	.loc 4 649 0 discriminator 2
	addi 9,9,8
	.loc 4 650 0 discriminator 2
	lwz 10,4(11)
	addi 0,10,1
	stw 0,4(11)
	.loc 4 649 0 discriminator 2
	lwz 0,84(31)
	cmpw 7,0,29
	bgt+ 7,.L445
.LVL657:
.L444:
	.loc 4 654 0
	lwz 11,112(31)
	mulli 5,5,12
.LVL658:
	lwz 0,8(1)
	.loc 4 660 0
	li 29,0
.LVL659:
	.loc 4 654 0
	add 9,11,5
	stwx 0,11,5
	lwz 0,12(1)
	stw 0,4(9)
	lwz 0,16(1)
	stw 0,8(9)
.LBB4476:
.LBB4477:
	.loc 8 589 0
	lwz 9,96(31)
.LBE4477:
.LBE4476:
	.loc 4 657 0
	lwzx 11,9,6
	addi 0,11,1
	stwx 0,9,6
	b .L363
.LVL660:
.L366:
.LBB4478:
.LBB4404:
.LBB4392:
.LBB4288:
.LBB4289:
	.loc 7 653 0
	lis 4,.LC16@ha
	lwz 3,4(30)
	la 4,.LC16@l(4)
	bl _ZN5idStr3CmpEPKcS1_
.LBE4289:
.LBE4288:
	.loc 4 326 0
	cmpwi 7,3,0
	bne- 7,.L368
.LBB4290:
	.loc 4 327 0
	mr 3,28
	mr 4,30
	bl _ZN7idLexer15ReadTokenOnLineEP7idToken
	cmpwi 7,3,0
	beq+ 7,.L510
	.loc 4 331 0
	lwz 3,4(30)
	.loc 4 330 0
	li 0,2
	stw 0,8(1)
.LVL661:
	.loc 4 331 0
	bl _ZN10idEventDef9FindEventEPKc
.LVL662:
	.loc 4 332 0
	cmpwi 0,3,0
	beq- 0,.L566
	.loc 4 335 0
	lwz 0,16(3)
	cmpwi 7,0,0
	beq- 7,.L370
	.loc 4 336 0
	lis 3,.LC18@ha
.LVL663:
	lwz 4,4(30)
	la 3,.LC18@l(3)
	crxor 6,6,6
	bl _Z2vaPKcz
.LBE4290:
	.loc 4 623 0
	mr 29,3
.LVL664:
	b .L363
.LVL665:
.L368:
.LBB4291:
.LBB4292:
	.loc 7 653 0
	lis 4,.LC19@ha
	lwz 3,4(30)
	la 4,.LC19@l(4)
	bl _ZN5idStr3CmpEPKcS1_
.LBE4292:
.LBE4291:
	.loc 4 339 0
	cmpwi 7,3,0
	bne- 7,.L372
	.loc 4 340 0
	mr 3,28
	mr 4,30
	bl _ZN7idLexer15ReadTokenOnLineEP7idToken
	cmpwi 7,3,0
	beq+ 7,.L510
.LBB4293:
.LBB4294:
	.loc 7 680 0
	lis 4,.LC20@ha
	lwz 3,4(30)
.LBE4294:
.LBE4293:
	.loc 4 343 0
	li 0,3
.LBB4297:
.LBB4295:
	.loc 7 680 0
	la 4,.LC20@l(4)
	li 5,4
.LBE4295:
.LBE4297:
	.loc 4 343 0
	stw 0,8(1)
.LVL666:
.LBB4298:
.LBB4296:
	.loc 7 680 0
	bl _ZN5idStr4CmpnEPKcS1_i
.LBE4296:
.LBE4298:
	.loc 4 344 0
	cmpwi 7,3,0
	bne+ 7,.L365
	.loc 4 345 0
	li 3,32
	bl _Znwj
.LEHE4:
	mr 4,30
	mr 28,3
.LVL667:
.LEHB5:
	bl _ZN5idStrC1ERKS_
.LEHE5:
	.loc 4 620 0 discriminator 1
	stw 28,12(1)
	b .L365
.LVL668:
.L372:
.LBB4299:
.LBB4300:
	.loc 7 653 0
	lis 4,.LC21@ha
	lwz 3,4(30)
	la 4,.LC21@l(4)
.LEHB6:
	bl _ZN5idStr3CmpEPKcS1_
.LBE4300:
.LBE4299:
	.loc 4 352 0
	cmpwi 7,3,0
	bne- 7,.L373
	.loc 4 353 0
	mr 3,28
	mr 4,30
	bl _ZN7idLexer15ReadTokenOnLineEP7idToken
	cmpwi 7,3,0
	beq+ 7,.L510
.LBB4301:
.LBB4302:
	.loc 7 680 0
	lis 4,.LC20@ha
	lwz 3,4(30)
.LBE4302:
.LBE4301:
	.loc 4 356 0
	li 0,4
.LBB4305:
.LBB4303:
	.loc 7 680 0
	la 4,.LC20@l(4)
	li 5,4
.LBE4303:
.LBE4305:
	.loc 4 356 0
	stw 0,8(1)
.LVL669:
.LBB4306:
.LBB4304:
	.loc 7 680 0
	bl _ZN5idStr4CmpnEPKcS1_i
.LBE4304:
.LBE4306:
	.loc 4 357 0
	cmpwi 7,3,0
	bne+ 7,.L365
	.loc 4 358 0
	li 3,32
	bl _Znwj
.LEHE6:
	mr 4,30
	mr 28,3
.LVL670:
.LEHB7:
	bl _ZN5idStrC1ERKS_
.LEHE7:
	.loc 4 620 0
	stw 28,12(1)
	b .L365
.LVL671:
.L565:
	lwz 3,108(31)
.L431:
.LVL672:
.LBE4392:
.LBE4404:
.LBE4478:
.LBB4479:
.LBB4461:
.LBB4440:
.LBB4441:
	.loc 8 375 0
	add. 3,0,3
.LVL673:
	ble- 0,.L567
	.loc 8 380 0
	cmpw 7,0,3
	beq- 7,.L435
	.loc 8 387 0
	cmpw 7,3,9
	.loc 8 385 0
	lwz 27,112(31)
.LVL674:
	.loc 8 386 0
	stw 3,104(31)
	.loc 8 387 0
	bge- 7,.L438
	.loc 8 388 0
	stw 3,100(31)
.L438:
	.loc 8 392 0
	mulli 3,3,12
.LVL675:
.LEHB8:
	bl _Znaj
.LVL676:
	.loc 8 393 0
	lwz 0,100(31)
	.loc 8 392 0
	stw 3,112(31)
.LVL677:
	.loc 8 393 0
	cmpwi 7,0,0
	ble- 7,.L439
	li 11,0
	li 10,0
	b .L440
.LVL678:
.L568:
	lwz 3,112(31)
.LVL679:
.L440:
	.loc 8 394 0
	mr 9,27
	add 8,3,11
	lwzux 6,9,11
	.loc 8 393 0
	addi 10,10,1
.LVL680:
	.loc 8 394 0
	lwz 0,8(9)
	lwz 7,4(9)
	stwx 6,3,11
	.loc 8 393 0
	addi 11,11,12
	.loc 8 394 0
	stw 7,4(8)
	stw 0,8(8)
	.loc 8 393 0
	lwz 0,0(28)
	cmpw 7,10,0
	blt+ 7,.L568
.LVL681:
.L439:
	.loc 8 398 0
	cmpwi 7,27,0
	beq- 7,.L549
	.loc 8 399 0
	mr 3,27
	bl _ZdaPv
.L549:
	lwz 9,100(31)
	b .L435
.LVL682:
.L373:
.LBE4441:
.LBE4440:
.LBE4461:
.LBE4479:
.LBB4480:
.LBB4405:
.LBB4393:
.LBB4307:
.LBB4308:
	.loc 7 653 0
	lis 4,.LC22@ha
	lwz 3,4(30)
	la 4,.LC22@l(4)
	bl _ZN5idStr3CmpEPKcS1_
.LBE4308:
.LBE4307:
	.loc 4 365 0
	cmpwi 7,3,0
	bne- 7,.L374
	.loc 4 366 0
	mr 3,28
	mr 4,30
	bl _ZN7idLexer15ReadTokenOnLineEP7idToken
	cmpwi 7,3,0
	beq+ 7,.L510
.LBB4309:
.LBB4310:
	.loc 7 680 0
	lis 4,.LC20@ha
	lwz 3,4(30)
.LBE4310:
.LBE4309:
	.loc 4 369 0
	li 0,5
.LBB4313:
.LBB4311:
	.loc 7 680 0
	la 4,.LC20@l(4)
	li 5,4
.LBE4311:
.LBE4313:
	.loc 4 369 0
	stw 0,8(1)
.LVL683:
.LBB4314:
.LBB4312:
	.loc 7 680 0
	bl _ZN5idStr4CmpnEPKcS1_i
.LBE4312:
.LBE4314:
	.loc 4 370 0
	cmpwi 7,3,0
	bne+ 7,.L365
	.loc 4 371 0
	li 3,32
	bl _Znwj
.LEHE8:
	mr 4,30
	mr 28,3
.LVL684:
.LEHB9:
	bl _ZN5idStrC1ERKS_
.LEHE9:
	.loc 4 620 0
	stw 28,12(1)
	b .L365
.LVL685:
.L562:
.LBE4393:
.LBB4394:
.LBB4389:
.LBB4386:
.LBB4385:
	.loc 7 351 0
	li 5,1
.LEHB10:
	bl _ZN5idStr10ReAllocateEib
.LEHE10:
.LVL686:
.LBE4385:
.LBE4386:
.LBE4389:
.LBE4394:
.LBB4395:
.LBB4315:
.LBB4285:
.LBB4281:
.LBB4269:
.LBB4270:
	lwz 0,4(28)
	b .L371
.LVL687:
.L428:
.LBE4270:
.LBE4269:
.LBE4281:
.LBE4285:
.LBE4315:
.LBE4395:
.LBE4405:
.LBE4480:
.LBB4481:
.LBB4462:
	.loc 8 634 0
	lwz 3,108(31)
.LVL688:
.LBB4445:
.LBB4446:
	.loc 8 375 0
	cmpwi 7,3,0
	ble- 7,.L569
	.loc 8 380 0
	lwz 0,104(31)
	cmpw 7,3,0
	beq- 7,.L570
.LVL689:
	.loc 8 387 0
	lwz 0,100(31)
	.loc 8 386 0
	stw 3,104(31)
	.loc 8 387 0
	cmpw 7,3,0
	bge- 7,.L433
	.loc 8 388 0
	stw 3,100(31)
.L433:
	.loc 8 392 0
	mulli 3,3,12
.LEHB11:
	bl _Znaj
.LVL690:
	.loc 8 393 0
	lwz 9,100(31)
	li 11,0
	.loc 8 392 0
	stw 3,112(31)
.LVL691:
	.loc 8 393 0
	li 10,0
	cmpwi 7,9,0
	bgt+ 7,.L434
	b .L548
.LVL692:
.L544:
	lwz 3,112(31)
.LVL693:
.L434:
	.loc 8 394 0
	lwz 7,0(11)
	add 9,3,11
	lwz 8,4(11)
	.loc 8 393 0
	addi 10,10,1
.LVL694:
	.loc 8 394 0
	lwz 0,8(11)
	stwx 7,3,11
	.loc 8 393 0
	addi 11,11,12
	.loc 8 394 0
	stw 8,4(9)
	stw 0,8(9)
	.loc 8 393 0
	lwz 9,0(28)
	cmpw 7,10,9
	blt+ 7,.L544
.LVL695:
.L548:
	lwz 0,104(31)
	b .L429
.LVL696:
.L370:
.LBE4446:
.LBE4445:
.LBE4462:
.LBE4481:
.LBB4482:
.LBB4406:
.LBB4396:
.LBB4316:
	.loc 4 338 0
	li 3,32
.LVL697:
	bl _Znwj
.LEHE11:
.LBB4286:
.LBB4282:
.LBB4272:
.LBB4273:
	.loc 7 356 0
	li 9,0
	.loc 7 358 0
	addi 0,3,12
	.loc 7 356 0
	stw 9,0(3)
	.loc 7 357 0
	li 11,20
.LBE4273:
.LBE4272:
.LBE4282:
.LBE4286:
	.loc 4 338 0
	mr 28,3
.LVL698:
.LBB4287:
.LBB4283:
.LBB4277:
.LBB4274:
	.loc 7 357 0
	stw 11,8(3)
.LBE4274:
.LBE4277:
.LBE4283:
	.loc 4 5042 0
	lwz 27,88(1)
.LVL699:
.LBB4284:
.LBB4278:
.LBB4275:
	.loc 7 358 0
	stw 0,4(3)
.LBE4275:
.LBE4278:
	.loc 7 374 0
	addi 4,27,1
.LVL700:
.LBB4279:
.LBB4276:
	.loc 7 359 0
	stb 9,12(3)
.LBE4276:
.LBE4279:
.LBB4280:
.LBB4271:
	.loc 7 350 0
	cmpwi 7,4,20
	ble+ 7,.L371
	.loc 7 351 0
	li 5,1
.LEHB12:
	bl _ZN5idStr10ReAllocateEib
.LEHE12:
.LVL701:
	lwz 0,4(28)
	b .L371
.LVL702:
.L374:
.LBE4271:
.LBE4280:
.LBE4284:
.LBE4287:
.LBE4316:
.LBB4317:
.LBB4318:
	.loc 7 653 0
	lis 4,.LC23@ha
	lwz 3,4(30)
	la 4,.LC23@l(4)
.LEHB13:
	bl _ZN5idStr3CmpEPKcS1_
.LBE4318:
.LBE4317:
	.loc 4 378 0
	cmpwi 7,3,0
	bne- 7,.L375
	.loc 4 379 0
	mr 3,28
	mr 4,30
	bl _ZN7idLexer15ReadTokenOnLineEP7idToken
	cmpwi 7,3,0
	beq+ 7,.L510
.LBB4319:
.LBB4320:
	.loc 7 680 0
	lis 4,.LC20@ha
	lwz 3,4(30)
.LBE4320:
.LBE4319:
	.loc 4 382 0
	li 0,6
.LBB4323:
.LBB4321:
	.loc 7 680 0
	la 4,.LC20@l(4)
	li 5,4
.LBE4321:
.LBE4323:
	.loc 4 382 0
	stw 0,8(1)
.LVL703:
.LBB4324:
.LBB4322:
	.loc 7 680 0
	bl _ZN5idStr4CmpnEPKcS1_i
.LBE4322:
.LBE4324:
	.loc 4 383 0
	cmpwi 7,3,0
	bne+ 7,.L365
	.loc 4 384 0
	li 3,32
	bl _Znwj
.LEHE13:
	mr 4,30
	mr 28,3
.LVL704:
.LEHB14:
	bl _ZN5idStrC1ERKS_
.LEHE14:
	.loc 4 620 0
	stw 28,12(1)
	b .L365
.LVL705:
.L563:
.LBE4396:
.LBE4406:
.LBE4482:
.LBB4483:
.LBB4435:
.LBB4431:
.LBB4428:
.LBB4423:
.LBB4424:
	.loc 8 193 0
	lwz 3,96(31)
.LVL706:
	cmpwi 7,3,0
	beq- 7,.L422
	.loc 8 194 0
	bl _ZdaPv
.L422:
	.loc 8 197 0
	li 0,0
.LBE4424:
.LBE4423:
.LBE4428:
.LBE4431:
	.loc 8 302 0
	stw 27,84(31)
.LVL707:
.LBB4432:
.LBB4429:
.LBB4426:
.LBB4425:
	.loc 8 197 0
	stw 0,96(31)
	.loc 8 199 0
	stw 0,88(31)
	b .L419
.LVL708:
.L375:
.LBE4425:
.LBE4426:
.LBE4429:
.LBE4432:
.LBE4435:
.LBE4483:
.LBB4484:
.LBB4407:
.LBB4397:
	.loc 4 391 0
	lis 4,.LC24@ha
	lwz 3,4(30)
	la 4,.LC24@l(4)
.LEHB15:
	bl _ZeqRK5idStrPKc.isra.9
	cmpwi 7,3,0
	beq- 7,.L376
	.loc 4 392 0
	mr 3,28
	mr 4,30
	bl _ZN7idLexer15ReadTokenOnLineEP7idToken
	cmpwi 7,3,0
	beq+ 7,.L510
.LBB4325:
.LBB4326:
	.loc 7 680 0
	lis 4,.LC20@ha
	lwz 3,4(30)
.LBE4326:
.LBE4325:
	.loc 4 395 0
	li 0,7
.LBB4329:
.LBB4327:
	.loc 7 680 0
	la 4,.LC20@l(4)
	li 5,4
.LBE4327:
.LBE4329:
	.loc 4 395 0
	stw 0,8(1)
.LVL709:
.LBB4330:
.LBB4328:
	.loc 7 680 0
	bl _ZN5idStr4CmpnEPKcS1_i
.LBE4328:
.LBE4330:
	.loc 4 396 0
	cmpwi 7,3,0
	bne+ 7,.L365
	.loc 4 397 0
	li 3,32
	bl _Znwj
.LEHE15:
	mr 4,30
	mr 28,3
.LVL710:
.LEHB16:
	bl _ZN5idStrC1ERKS_
.LEHE16:
	.loc 4 620 0
	stw 28,12(1)
	b .L365
.LVL711:
.L376:
	.loc 4 404 0
	lis 4,.LC25@ha
	lwz 3,4(30)
	la 4,.LC25@l(4)
.LEHB17:
	bl _ZeqRK5idStrPKc.isra.9
	cmpwi 7,3,0
	beq- 7,.L377
	.loc 4 405 0
	mr 3,28
	mr 4,30
	bl _ZN7idLexer15ReadTokenOnLineEP7idToken
	cmpwi 7,3,0
	beq+ 7,.L510
.LBB4331:
.LBB4332:
	.loc 7 680 0
	lis 4,.LC20@ha
	lwz 3,4(30)
.LBE4332:
.LBE4331:
	.loc 4 408 0
	li 0,8
.LBB4335:
.LBB4333:
	.loc 7 680 0
	la 4,.LC20@l(4)
	li 5,4
.LBE4333:
.LBE4335:
	.loc 4 408 0
	stw 0,8(1)
.LVL712:
.LBB4336:
.LBB4334:
	.loc 7 680 0
	bl _ZN5idStr4CmpnEPKcS1_i
.LBE4334:
.LBE4336:
	.loc 4 409 0
	cmpwi 7,3,0
	bne+ 7,.L365
	.loc 4 410 0
	li 3,32
	bl _Znwj
.LEHE17:
	mr 4,30
	mr 28,3
.LVL713:
.LEHB18:
	bl _ZN5idStrC1ERKS_
.LEHE18:
	.loc 4 620 0
	stw 28,12(1)
	b .L365
.LVL714:
.L567:
.LBE4397:
.LBE4407:
.LBE4484:
.LBB4485:
.LBB4463:
.LBB4454:
.LBB4444:
.LBB4442:
.LBB4443:
	.loc 8 193 0
	lwz 3,112(31)
.LVL715:
	cmpwi 7,3,0
	beq- 7,.L437
	.loc 8 194 0
	bl _ZdaPv
.L437:
	.loc 8 197 0
	li 0,0
	.loc 8 199 0
	li 9,0
	.loc 8 197 0
	stw 0,112(31)
	.loc 8 199 0
	stw 0,104(31)
	b .L435
.LVL716:
.L570:
.LBE4443:
.LBE4442:
.LBE4444:
.LBE4454:
.LBB4455:
.LBB4451:
	.loc 8 380 0
	lwz 9,100(31)
	b .L429
.LVL717:
.L566:
.LBE4451:
.LBE4455:
.LBE4463:
.LBE4485:
.LBB4486:
.LBB4408:
.LBB4398:
.LBB4337:
	.loc 4 333 0
	lis 3,.LC17@ha
.LVL718:
	lwz 4,4(30)
	la 3,.LC17@l(3)
.LEHB19:
	crxor 6,6,6
	bl _Z2vaPKcz
.LBE4337:
	.loc 4 623 0
	mr 29,3
.LVL719:
	b .L363
.LVL720:
.L377:
	.loc 4 417 0
	lis 4,.LC26@ha
	lwz 3,4(30)
	la 4,.LC26@l(4)
	bl _ZeqRK5idStrPKc.isra.9
	cmpwi 7,3,0
	beq- 7,.L378
	.loc 4 418 0
	mr 3,28
	mr 4,30
	bl _ZN7idLexer15ReadTokenOnLineEP7idToken
	cmpwi 7,3,0
	beq+ 7,.L510
.LBB4338:
.LBB4339:
	.loc 7 680 0
	lis 4,.LC20@ha
	lwz 3,4(30)
.LBE4339:
.LBE4338:
	.loc 4 421 0
	li 0,9
.LBB4342:
.LBB4340:
	.loc 7 680 0
	la 4,.LC20@l(4)
	li 5,4
.LBE4340:
.LBE4342:
	.loc 4 421 0
	stw 0,8(1)
.LVL721:
.LBB4343:
.LBB4341:
	.loc 7 680 0
	bl _ZN5idStr4CmpnEPKcS1_i
.LBE4341:
.LBE4343:
	.loc 4 422 0
	cmpwi 7,3,0
	bne+ 7,.L365
	.loc 4 423 0
	li 3,32
	bl _Znwj
.LEHE19:
	mr 4,30
	mr 28,3
.LVL722:
.LEHB20:
	bl _ZN5idStrC1ERKS_
.LEHE20:
	.loc 4 620 0
	stw 28,12(1)
	b .L365
.LVL723:
.L569:
.LBE4398:
.LBE4408:
.LBE4486:
.LBB4487:
.LBB4464:
.LBB4456:
.LBB4452:
.LBB4447:
.LBB4448:
	.loc 8 198 0
	stw 0,100(31)
.LBE4448:
.LBE4447:
.LBE4452:
.LBE4456:
	.loc 8 637 0
	li 9,0
.LBB4457:
.LBB4453:
.LBB4450:
.LBB4449:
	.loc 8 199 0
	stw 0,104(31)
.LBE4449:
.LBE4450:
.LBE4453:
.LBE4457:
	.loc 8 637 0
	li 0,0
	b .L431
.LVL724:
.L378:
.LBE4464:
.LBE4487:
.LBB4488:
.LBB4409:
.LBB4399:
	.loc 4 430 0
	lis 4,.LC27@ha
	lwz 3,4(30)
	la 4,.LC27@l(4)
.LEHB21:
	bl _ZeqRK5idStrPKc.isra.9
	cmpwi 7,3,0
	beq- 7,.L379
	.loc 4 431 0
	mr 3,28
	mr 4,30
	bl _ZN7idLexer15ReadTokenOnLineEP7idToken
	cmpwi 7,3,0
	beq+ 7,.L510
.LBB4344:
.LBB4345:
	.loc 7 680 0
	lis 4,.LC20@ha
	lwz 3,4(30)
.LBE4345:
.LBE4344:
	.loc 4 434 0
	li 0,11
.LBB4348:
.LBB4346:
	.loc 7 680 0
	la 4,.LC20@l(4)
	li 5,4
.LBE4346:
.LBE4348:
	.loc 4 434 0
	stw 0,8(1)
.LVL725:
.LBB4349:
.LBB4347:
	.loc 7 680 0
	bl _ZN5idStr4CmpnEPKcS1_i
.LBE4347:
.LBE4349:
	.loc 4 435 0
	cmpwi 7,3,0
	bne+ 7,.L365
	.loc 4 436 0
	li 3,32
	bl _Znwj
.LEHE21:
	mr 4,30
	mr 28,3
.LVL726:
.LEHB22:
	bl _ZN5idStrC1ERKS_
.LEHE22:
	.loc 4 620 0
	stw 28,12(1)
	b .L365
.LVL727:
.L379:
	.loc 4 443 0
	lis 4,.LC28@ha
	lwz 3,4(30)
	la 4,.LC28@l(4)
.LEHB23:
	bl _ZeqRK5idStrPKc.isra.9
	cmpwi 7,3,0
	beq- 7,.L380
	.loc 4 444 0
	mr 3,28
	mr 4,30
	bl _ZN7idLexer15ReadTokenOnLineEP7idToken
	cmpwi 7,3,0
	beq+ 7,.L510
.LBB4350:
.LBB4351:
	.loc 7 680 0
	lis 4,.LC20@ha
	lwz 3,4(30)
.LBE4351:
.LBE4350:
	.loc 4 447 0
	li 0,10
.LBB4354:
.LBB4352:
	.loc 7 680 0
	la 4,.LC20@l(4)
	li 5,4
.LBE4352:
.LBE4354:
	.loc 4 447 0
	stw 0,8(1)
.LVL728:
.LBB4355:
.LBB4353:
	.loc 7 680 0
	bl _ZN5idStr4CmpnEPKcS1_i
.LBE4353:
.LBE4355:
	.loc 4 448 0
	cmpwi 7,3,0
	bne+ 7,.L365
	.loc 4 449 0
	li 3,32
	bl _Znwj
.LEHE23:
	mr 4,30
	mr 28,3
.LVL729:
.LEHB24:
	bl _ZN5idStrC1ERKS_
.LEHE24:
	.loc 4 620 0
	stw 28,12(1)
	b .L365
.LVL730:
.L522:
.L552:
	mr 31,3
.LVL731:
	.loc 4 561 0
	mr 3,28
	bl _ZdlPv
.LVL732:
.L451:
.LBE4399:
.LBE4409:
.LBE4488:
.LBB4489:
.LBB4490:
.LBB4491:
.LBB4492:
.LBB4493:
	.loc 7 501 0
	mr 3,30
	bl _ZN5idStr8FreeDataEv
.LVL733:
.L477:
.LBE4493:
.LBE4492:
.LBE4491:
.LBE4490:
.LBE4489:
.LBB4494:
.LBB4495:
.LBB4496:
	addi 3,1,20
	bl _ZN5idStr8FreeDataEv
.LVL734:
.L479:
.LBE4496:
.LBE4495:
.LBE4494:
.LBB4497:
.LBB4498:
.LBB4499:
	addi 3,1,52
	bl _ZN5idStr8FreeDataEv
	mr 3,31
.LEHB25:
	bl _Unwind_Resume
.LEHE25:
.LVL735:
.L523:
	b .L552
.LVL736:
.L380:
.LBE4499:
.LBE4498:
.LBE4497:
.LBB4500:
.LBB4410:
.LBB4400:
	.loc 4 456 0
	lis 4,.LC29@ha
	lwz 3,4(30)
	la 4,.LC29@l(4)
.LEHB26:
	bl _ZeqRK5idStrPKc.isra.9
	cmpwi 7,3,0
	beq- 7,.L381
	.loc 4 457 0
	mr 3,28
	mr 4,30
	bl _ZN7idLexer15ReadTokenOnLineEP7idToken
	cmpwi 7,3,0
	beq+ 7,.L510
.LBB4356:
.LBB4357:
	.loc 7 680 0
	lis 4,.LC20@ha
	lwz 3,4(30)
.LBE4357:
.LBE4356:
	.loc 4 460 0
	li 0,12
.LBB4360:
.LBB4358:
	.loc 7 680 0
	la 4,.LC20@l(4)
	li 5,4
.LBE4358:
.LBE4360:
	.loc 4 460 0
	stw 0,8(1)
.LVL737:
.LBB4361:
.LBB4359:
	.loc 7 680 0
	bl _ZN5idStr4CmpnEPKcS1_i
.LBE4359:
.LBE4361:
	.loc 4 461 0
	cmpwi 7,3,0
	bne+ 7,.L365
	.loc 4 462 0
	li 3,32
	bl _Znwj
.LEHE26:
	mr 4,30
	mr 28,3
.LVL738:
.LEHB27:
	bl _ZN5idStrC1ERKS_
.LEHE27:
	.loc 4 620 0
	stw 28,12(1)
	b .L365
.LVL739:
.L513:
	b .L552
.LVL740:
.L516:
	b .L552
.LVL741:
.L517:
	b .L552
.LVL742:
.L514:
	b .L552
.LVL743:
.L524:
	b .L552
.LVL744:
.L381:
	.loc 4 469 0
	lis 4,.LC30@ha
	lwz 3,4(30)
	la 4,.LC30@l(4)
.LEHB28:
	bl _ZeqRK5idStrPKc.isra.9
	cmpwi 7,3,0
	beq- 7,.L382
	.loc 4 470 0
	mr 3,28
	mr 4,30
	bl _ZN7idLexer15ReadTokenOnLineEP7idToken
	cmpwi 7,3,0
	beq+ 7,.L510
	.loc 4 474 0
	lis 4,.LC31@ha
	lwz 3,4(30)
	.loc 4 473 0
	li 0,13
	.loc 4 474 0
	la 4,.LC31@l(4)
	.loc 4 473 0
	stw 0,8(1)
	.loc 4 474 0
	bl _ZeqRK5idStrPKc.isra.9
	cmpwi 7,3,0
	bne+ 7,.L365
	.loc 4 477 0
	lis 9,declManager@ha
	lwz 4,4(30)
	lwz 3,declManager@l(9)
.LVL745:
	li 5,1
	lwz 9,0(3)
	lwz 0,108(9)
	mtctr 0
	bctrl
	.loc 4 478 0
	cmpwi 7,3,0
	.loc 4 477 0
	stw 3,16(1)
	.loc 4 478 0
	bne+ 7,.L365
	.loc 4 479 0
	lis 3,.LC32@ha
	lwz 4,4(30)
	la 3,.LC32@l(3)
	crxor 6,6,6
	bl _Z2vaPKcz
	.loc 4 623 0
	mr 29,3
.LVL746:
	b .L363
.LVL747:
.L511:
	mr 31,3
.LVL748:
	b .L477
.LVL749:
.L515:
	b .L552
.LVL750:
.L520:
	b .L552
.LVL751:
.L537:
	mr 31,3
.LVL752:
	b .L479
.LVL753:
.L512:
	mr 31,3
.LVL754:
	b .L451
.LVL755:
.L518:
	b .L552
.LVL756:
.L519:
	b .L552
.LVL757:
.L521:
	b .L552
.LVL758:
.L382:
	.loc 4 482 0
	lis 4,.LC33@ha
	lwz 3,4(30)
	la 4,.LC33@l(4)
	bl _ZeqRK5idStrPKc.isra.9
	cmpwi 7,3,0
	beq- 7,.L383
	.loc 4 483 0
	mr 3,28
	mr 4,30
	bl _ZN7idLexer15ReadTokenOnLineEP7idToken
	cmpwi 7,3,0
	beq+ 7,.L510
	.loc 4 487 0
	lis 9,declManager@ha
	.loc 4 486 0
	li 0,29
	.loc 4 487 0
	lwz 3,declManager@l(9)
	li 4,6
	.loc 4 486 0
	stw 0,8(1)
	.loc 4 487 0
	li 6,1
	lwz 9,0(3)
	li 7,0
	lwz 5,4(30)
	lwz 0,60(9)
	mtctr 0
	bctrl
	cmpwi 7,3,0
	beq- 7,.L571
	.loc 4 490 0
	li 3,32
	bl _Znwj
.LEHE28:
	mr 4,30
	mr 28,3
.LVL759:
.LEHB29:
	bl _ZN5idStrC1ERKS_
.LEHE29:
	.loc 4 620 0
	stw 28,12(1)
	b .L365
.LVL760:
.L383:
	.loc 4 491 0
	lis 4,.LC35@ha
	lwz 3,4(30)
	la 4,.LC35@l(4)
.LEHB30:
	bl _ZeqRK5idStrPKc.isra.9
	cmpwi 7,3,0
	beq- 7,.L385
	.loc 4 492 0
	mr 3,28
	mr 4,30
	bl _ZN7idLexer15ReadTokenOnLineEP7idToken
	cmpwi 7,3,0
	beq+ 7,.L510
	.loc 4 495 0
	li 0,14
	.loc 4 496 0
	li 3,32
	.loc 4 495 0
	stw 0,8(1)
	.loc 4 496 0
	bl _Znwj
.LEHE30:
	mr 4,30
	mr 28,3
.LVL761:
.LEHB31:
	bl _ZN5idStrC1ERKS_
.LEHE31:
	.loc 4 620 0
	stw 28,12(1)
	b .L365
.L525:
	b .L552
.LVL762:
.L571:
	.loc 4 488 0
	lis 3,.LC34@ha
	lwz 4,4(30)
	la 3,.LC34@l(3)
.LEHB32:
	crxor 6,6,6
	bl _Z2vaPKcz
	.loc 4 623 0
	mr 29,3
.LVL763:
	b .L363
.LVL764:
.L526:
	b .L552
.LVL765:
.L385:
	.loc 4 497 0
	lis 4,.LC36@ha
	lwz 3,4(30)
	la 4,.LC36@l(4)
	bl _ZeqRK5idStrPKc.isra.9
	cmpwi 7,3,0
	beq- 7,.L386
	.loc 4 498 0
	mr 3,28
	mr 4,30
	bl _ZN7idLexer15ReadTokenOnLineEP7idToken
	cmpwi 7,3,0
	beq+ 7,.L510
	.loc 4 501 0
	li 0,15
	.loc 4 502 0
	li 3,32
	.loc 4 501 0
	stw 0,8(1)
	.loc 4 502 0
	bl _Znwj
.LEHE32:
	mr 4,30
	mr 28,3
.LVL766:
.LEHB33:
	bl _ZN5idStrC1ERKS_
.LEHE33:
	.loc 4 620 0
	stw 28,12(1)
	b .L365
.LVL767:
.L386:
	.loc 4 503 0
	lis 4,.LC37@ha
	lwz 3,4(30)
	la 4,.LC37@l(4)
.LEHB34:
	bl _ZeqRK5idStrPKc.isra.9
	cmpwi 7,3,0
	beq- 7,.L387
	.loc 4 504 0
	mr 3,28
	mr 4,30
	bl _ZN7idLexer15ReadTokenOnLineEP7idToken
	cmpwi 7,3,0
	beq+ 7,.L510
	.loc 4 508 0
	lis 3,gameLocal@ha
	lwz 4,4(30)
	.loc 4 507 0
	li 0,16
	.loc 4 508 0
	la 3,gameLocal@l(3)
	li 5,0
	li 6,1
	.loc 4 507 0
	stw 0,8(1)
	.loc 4 508 0
	bl _ZNK11idGameLocal13FindEntityDefEPKcbb
	cmpwi 7,3,0
	beq- 7,.L559
	.loc 4 511 0
	li 3,32
	bl _Znwj
.LEHE34:
	mr 4,30
	mr 28,3
.LVL768:
.LEHB35:
	bl _ZN5idStrC1ERKS_
.LEHE35:
	.loc 4 620 0
	stw 28,12(1)
	b .L365
.L527:
	b .L552
.L528:
	b .L552
.LVL769:
.L559:
	.loc 4 527 0
	lis 3,.LC38@ha
	lwz 4,4(30)
	la 3,.LC38@l(3)
.LEHB36:
	crxor 6,6,6
	bl _Z2vaPKcz
	.loc 4 623 0
	mr 29,3
.LVL770:
	b .L363
.LVL771:
.L387:
	.loc 4 512 0
	lis 4,.LC39@ha
	lwz 3,4(30)
	la 4,.LC39@l(4)
	bl _ZeqRK5idStrPKc.isra.9
	cmpwi 7,3,0
	beq- 7,.L389
	.loc 4 513 0
	mr 3,28
	mr 4,30
	bl _ZN7idLexer15ReadTokenOnLineEP7idToken
	cmpwi 7,3,0
	beq+ 7,.L510
	.loc 4 517 0
	lis 3,gameLocal@ha
	lwz 4,4(30)
	.loc 4 516 0
	li 0,17
	.loc 4 517 0
	la 3,gameLocal@l(3)
	li 5,0
	li 6,1
	.loc 4 516 0
	stw 0,8(1)
	.loc 4 517 0
	bl _ZNK11idGameLocal13FindEntityDefEPKcbb
	cmpwi 7,3,0
	beq- 7,.L559
	.loc 4 520 0
	li 3,32
	bl _Znwj
.LEHE36:
	mr 4,30
	mr 28,3
.LVL772:
.LEHB37:
	bl _ZN5idStrC1ERKS_
.LEHE37:
	.loc 4 620 0
	stw 28,12(1)
	b .L365
.LVL773:
.L389:
	.loc 4 521 0
	lis 4,.LC40@ha
	lwz 3,4(30)
	la 4,.LC40@l(4)
.LEHB38:
	bl _ZeqRK5idStrPKc.isra.9
	cmpwi 7,3,0
	beq- 7,.L391
	.loc 4 522 0
	mr 3,28
	mr 4,30
	bl _ZN7idLexer15ReadTokenOnLineEP7idToken
	cmpwi 7,3,0
	beq+ 7,.L510
	.loc 4 526 0
	lis 3,gameLocal@ha
	lwz 4,4(30)
	.loc 4 525 0
	li 0,18
	.loc 4 526 0
	la 3,gameLocal@l(3)
	li 5,0
	li 6,1
	.loc 4 525 0
	stw 0,8(1)
	.loc 4 526 0
	bl _ZNK11idGameLocal13FindEntityDefEPKcbb
	cmpwi 7,3,0
	beq- 7,.L559
	.loc 4 529 0
	li 3,32
	bl _Znwj
.LEHE38:
	mr 4,30
	mr 28,3
.LVL774:
.LEHB39:
	bl _ZN5idStrC1ERKS_
.LEHE39:
	.loc 4 620 0
	stw 28,12(1)
	b .L365
.L529:
	b .L552
.L530:
	b .L552
.LVL775:
.L391:
	.loc 4 530 0
	lis 4,.LC41@ha
	lwz 3,4(30)
	la 4,.LC41@l(4)
.LEHB40:
	bl _ZeqRK5idStrPKc.isra.9
	cmpwi 7,3,0
	beq- 7,.L393
	.loc 4 531 0
	li 0,19
	stw 0,8(1)
	b .L365
.L393:
	.loc 4 532 0
	lis 26,.LC42@ha
	lwz 3,4(30)
	la 26,.LC42@l(26)
	mr 4,26
	bl _ZeqRK5idStrPKc.isra.9
	cmpwi 7,3,0
	beq- 7,.L394
	.loc 4 533 0
	mr 3,28
	mr 4,30
	bl _ZN7idLexer15ReadTokenOnLineEP7idToken
	cmpwi 7,3,0
	beq+ 7,.L510
.LVL776:
.LBB4362:
.LBB4363:
	.loc 7 666 0
	lis 4,.LC1@ha
	lwz 3,4(30)
	la 4,.LC1@l(4)
	bl _ZeqRK5idStrPKc.isra.9
.LBE4363:
.LBE4362:
	.loc 4 536 0
	cmpwi 7,3,0
	beq- 7,.L572
.L395:
	.loc 4 539 0
	li 0,20
	.loc 4 540 0
	li 3,32
	.loc 4 539 0
	stw 0,8(1)
	.loc 4 540 0
	bl _Znwj
.LEHE40:
	mr 4,30
	mr 28,3
.LVL777:
.LEHB41:
	bl _ZN5idStrC1ERKS_
.LEHE41:
	.loc 4 620 0
	stw 28,12(1)
	b .L365
.LVL778:
.L394:
	.loc 4 541 0
	lwz 3,4(30)
	mr 4,26
.LEHB42:
	bl _ZeqRK5idStrPKc.isra.9
	cmpwi 7,3,0
	beq- 7,.L396
	.loc 4 542 0
	li 0,20
	.loc 4 543 0
	li 3,32
	.loc 4 542 0
	stw 0,8(1)
	.loc 4 543 0
	bl _Znwj
.LVL779:
.LBB4364:
.LBB4365:
.LBB4366:
.LBB4367:
	.loc 7 358 0
	addi 0,3,12
	.loc 7 359 0
	li 9,0
.LVL780:
	.loc 7 415 0
	stb 9,12(3)
	.loc 7 357 0
	li 9,20
	.loc 7 358 0
	stw 0,4(3)
.LBE4367:
.LBE4366:
	.loc 7 416 0
	li 0,0
.LBB4369:
.LBB4368:
	.loc 7 357 0
	stw 9,8(3)
.LBE4368:
.LBE4369:
	.loc 7 416 0
	stw 0,0(3)
.LBE4365:
.LBE4364:
	.loc 4 543 0
	stw 3,12(1)
	b .L365
.LVL781:
.L531:
	b .L552
.LVL782:
.L572:
	.loc 4 536 0
	lwz 4,4(30)
	mr 3,27
	bl _ZNK14idDeclModelDef9FindJointEPKc
	cmpwi 7,3,0
	bne+ 7,.L395
.LVL783:
.L555:
	.loc 4 568 0
	lis 3,.LC43@ha
	lwz 4,4(30)
	la 3,.LC43@l(3)
	crxor 6,6,6
	bl _Z2vaPKcz
	.loc 4 623 0
	mr 29,3
.LVL784:
	b .L363
.LVL785:
.L396:
	.loc 4 544 0
	lis 4,.LC44@ha
	lwz 3,4(30)
	la 4,.LC44@l(4)
	bl _ZeqRK5idStrPKc.isra.9
	cmpwi 7,3,0
	beq- 7,.L397
	.loc 4 545 0
	mr 3,28
	mr 4,30
	bl _ZN7idLexer15ReadTokenOnLineEP7idToken
	cmpwi 7,3,0
	beq+ 7,.L510
.LVL786:
	.loc 4 548 0
	lwz 4,4(30)
	mr 3,27
	bl _ZNK14idDeclModelDef9FindJointEPKc
	cmpwi 7,3,0
	beq- 7,.L555
	.loc 4 551 0
	li 0,21
	.loc 4 552 0
	li 3,32
	.loc 4 551 0
	stw 0,8(1)
	.loc 4 552 0
	bl _Znwj
.LEHE42:
	mr 4,30
	mr 28,3
.LVL787:
.LEHB43:
	bl _ZN5idStrC1ERKS_
.LEHE43:
	.loc 4 620 0
	stw 28,12(1)
	b .L365
.LVL788:
.L397:
	.loc 4 553 0
	lis 4,.LC45@ha
	lwz 3,4(30)
	la 4,.LC45@l(4)
.LEHB44:
	bl _ZeqRK5idStrPKc.isra.9
	cmpwi 7,3,0
	beq- 7,.L399
	.loc 4 554 0
	mr 3,28
	mr 4,30
	bl _ZN7idLexer15ReadTokenOnLineEP7idToken
	cmpwi 7,3,0
	beq+ 7,.L510
.LVL789:
	.loc 4 557 0
	lwz 4,4(30)
	mr 3,27
	bl _ZNK14idDeclModelDef9FindJointEPKc
	cmpwi 7,3,0
	beq- 7,.L555
	.loc 4 560 0
	li 0,22
	.loc 4 561 0
	li 3,32
	.loc 4 560 0
	stw 0,8(1)
	.loc 4 561 0
	bl _Znwj
.LEHE44:
	mr 4,30
	mr 28,3
.LVL790:
.LEHB45:
	bl _ZN5idStrC1ERKS_
.LEHE45:
	.loc 4 620 0
	stw 28,12(1)
	b .L365
.LVL791:
.L532:
	b .L552
.LVL792:
.L533:
	b .L552
.LVL793:
.L399:
	.loc 4 562 0
	lis 4,.LC46@ha
	lwz 3,4(30)
	la 4,.LC46@l(4)
.LEHB46:
	bl _ZeqRK5idStrPKc.isra.9
	cmpwi 7,3,0
	beq- 7,.L401
	.loc 4 563 0
	mr 3,28
	mr 4,30
	bl _ZN7idLexer15ReadTokenOnLineEP7idToken
	cmpwi 7,3,0
	beq+ 7,.L510
.LVL794:
	.loc 4 566 0
	lwz 4,4(30)
	mr 3,27
	bl _ZNK14idDeclModelDef9FindJointEPKc
.LVL795:
	.loc 4 567 0
	mr. 27,3
.LVL796:
	beq- 0,.L555
	.loc 4 570 0
	mr 3,28
.LVL797:
	mr 4,30
	bl _ZN7idLexer15ReadTokenOnLineEP7idToken
	cmpwi 7,3,0
	beq+ 7,.L510
	.loc 4 573 0
	li 0,23
	.loc 4 574 0
	li 3,32
	.loc 4 573 0
	stw 0,8(1)
	.loc 4 574 0
	bl _Znwj
.LEHE46:
	mr 4,30
	mr 28,3
.LVL798:
.LEHB47:
	bl _ZN5idStrC1ERKS_
.LEHE47:
	.loc 4 575 0 discriminator 1
	lwz 0,0(27)
	.loc 4 574 0 discriminator 1
	stw 28,12(1)
	.loc 4 575 0 discriminator 1
	stw 0,16(1)
	b .L365
.LVL799:
.L401:
	.loc 4 576 0
	lis 4,.LC47@ha
	lwz 3,4(30)
	la 4,.LC47@l(4)
.LEHB48:
	bl _ZeqRK5idStrPKc.isra.9
	cmpwi 7,3,0
	beq- 7,.L403
	.loc 4 577 0
	li 0,24
	stw 0,8(1)
	b .L365
.LVL800:
.L534:
	b .L552
.LVL801:
.L403:
	.loc 4 578 0
	lis 4,.LC48@ha
	lwz 3,4(30)
	la 4,.LC48@l(4)
	bl _ZeqRK5idStrPKc.isra.9
	cmpwi 7,3,0
	beq- 7,.L404
	.loc 4 579 0
	li 0,25
	stw 0,8(1)
	b .L365
.L404:
	.loc 4 580 0
	lis 4,.LC49@ha
	lwz 3,4(30)
	la 4,.LC49@l(4)
	bl _ZeqRK5idStrPKc.isra.9
	cmpwi 7,3,0
	beq- 7,.L405
	.loc 4 581 0
	li 0,26
	stw 0,8(1)
	b .L365
.L405:
	.loc 4 582 0
	lis 4,.LC50@ha
	lwz 3,4(30)
	la 4,.LC50@l(4)
	bl _ZeqRK5idStrPKc.isra.9
	cmpwi 7,3,0
	beq- 7,.L406
	.loc 4 583 0
	li 0,27
	stw 0,8(1)
	b .L365
.L406:
	.loc 4 584 0
	lis 4,.LC51@ha
	lwz 3,4(30)
	la 4,.LC51@l(4)
	bl _ZeqRK5idStrPKc.isra.9
	cmpwi 7,3,0
	beq- 7,.L407
	.loc 4 585 0
	li 0,28
	stw 0,8(1)
	b .L365
.L407:
	.loc 4 586 0
	lis 4,.LC52@ha
	lwz 3,4(30)
	la 4,.LC52@l(4)
	bl _ZeqRK5idStrPKc.isra.9
	cmpwi 7,3,0
	beq- 7,.L408
	.loc 4 587 0
	li 0,30
	stw 0,8(1)
	b .L365
.L408:
	.loc 4 588 0
	lis 4,.LC53@ha
	lwz 3,4(30)
	la 4,.LC53@l(4)
	bl _ZeqRK5idStrPKc.isra.9
	cmpwi 7,3,0
	beq- 7,.L409
	.loc 4 589 0
	li 0,31
	stw 0,8(1)
	b .L365
.L409:
	.loc 4 590 0
	lis 4,.LC54@ha
	lwz 3,4(30)
	la 4,.LC54@l(4)
	bl _ZeqRK5idStrPKc.isra.9
	cmpwi 7,3,0
	beq- 7,.L410
	.loc 4 591 0
	li 0,32
	stw 0,8(1)
	b .L365
.L410:
	.loc 4 592 0
	lis 4,.LC55@ha
	lwz 3,4(30)
	la 4,.LC55@l(4)
	bl _ZeqRK5idStrPKc.isra.9
	cmpwi 7,3,0
	beq- 7,.L411
	.loc 4 593 0
	li 0,33
	stw 0,8(1)
	b .L365
.L411:
	.loc 4 594 0
	lis 4,.LC56@ha
	lwz 3,4(30)
	la 4,.LC56@l(4)
	bl _ZeqRK5idStrPKc.isra.9
	cmpwi 7,3,0
	beq- 7,.L412
	.loc 4 595 0
	li 0,34
	stw 0,8(1)
	b .L365
.L412:
	.loc 4 596 0
	lis 4,.LC57@ha
	lwz 3,4(30)
	la 4,.LC57@l(4)
	bl _ZeqRK5idStrPKc.isra.9
	cmpwi 7,3,0
	beq- 7,.L413
	.loc 4 597 0
	li 0,35
	stw 0,8(1)
	b .L365
.L413:
	.loc 4 598 0
	lis 4,.LC58@ha
	lwz 3,4(30)
	la 4,.LC58@l(4)
	bl _ZeqRK5idStrPKc.isra.9
	cmpwi 7,3,0
	beq- 7,.L414
	.loc 4 599 0
	li 0,36
	stw 0,8(1)
	b .L365
.L414:
	.loc 4 600 0
	lis 4,.LC59@ha
	lwz 3,4(30)
	la 4,.LC59@l(4)
	bl _ZeqRK5idStrPKc.isra.9
	cmpwi 7,3,0
	beq- 7,.L415
	.loc 4 601 0
	mr 3,28
	mr 4,30
	bl _ZN7idLexer15ReadTokenOnLineEP7idToken
	cmpwi 7,3,0
	beq+ 7,.L510
	.loc 4 605 0
	lwz 3,4(30)
	.loc 4 604 0
	li 0,37
	stw 0,8(1)
.LVL802:
	.loc 4 605 0
	bl atoi
	stw 3,16(1)
	b .L365
.LVL803:
.L415:
	.loc 4 606 0
	lis 4,.LC60@ha
	lwz 3,4(30)
	la 4,.LC60@l(4)
	bl _ZeqRK5idStrPKc.isra.9
	cmpwi 7,3,0
	beq- 7,.L416
	.loc 4 607 0
	mr 3,28
	mr 4,30
	bl _ZN7idLexer15ReadTokenOnLineEP7idToken
	cmpwi 7,3,0
	beq+ 7,.L510
	.loc 4 611 0
	lwz 3,4(30)
	.loc 4 610 0
	li 0,38
	stw 0,8(1)
.LVL804:
	.loc 4 611 0
	bl atoi
	stw 3,16(1)
	b .L365
.LVL805:
.L416:
	.loc 4 612 0
	lis 4,.LC61@ha
	lwz 3,4(30)
	la 4,.LC61@l(4)
	bl _ZeqRK5idStrPKc.isra.9
	cmpwi 7,3,0
	beq- 7,.L417
	.loc 4 613 0
	li 0,39
	.loc 4 614 0
	mr 3,28
	mr 4,30
	.loc 4 613 0
	stw 0,8(1)
	.loc 4 614 0
	bl _ZN7idLexer15ReadTokenOnLineEP7idToken
	cmpwi 7,3,0
	beq+ 7,.L365
	.loc 4 615 0
	li 3,32
	bl _Znwj
.LEHE48:
	mr 4,30
	mr 28,3
.LVL806:
.LEHB49:
	bl _ZN5idStrC1ERKS_
.LEHE49:
	.loc 4 620 0
	stw 28,12(1)
	b .L365
.LVL807:
.L417:
	.loc 4 617 0
	lis 4,.LC62@ha
	lwz 3,4(30)
	la 4,.LC62@l(4)
.LEHB50:
	bl _ZeqRK5idStrPKc.isra.9
	cmpwi 7,3,0
	beq- 7,.L418
	.loc 4 618 0
	li 0,40
	.loc 4 619 0
	mr 3,28
	mr 4,30
	.loc 4 618 0
	stw 0,8(1)
	.loc 4 619 0
	bl _ZN7idLexer15ReadTokenOnLineEP7idToken
	cmpwi 7,3,0
	beq+ 7,.L365
	.loc 4 620 0
	li 3,32
	bl _Znwj
.LEHE50:
	mr 4,30
	mr 28,3
.LVL808:
.LEHB51:
	bl _ZN5idStrC1ERKS_
.LEHE51:
	stw 28,12(1)
	b .L365
.L535:
	b .L552
.L536:
	b .L552
.LVL809:
.L418:
	.loc 4 623 0
	lis 3,.LC63@ha
	lwz 4,4(30)
	la 3,.LC63@l(3)
.LEHB52:
	crxor 6,6,6
	bl _Z2vaPKcz
.LEHE52:
	mr 29,3
.LVL810:
	b .L363
.LBE4400:
.LBE4410:
.LBE4500:
.LBE4505:
	.cfi_endproc
.LFE2831:
	.globl __gxx_personality_v0
	.section	.gcc_except_table,"a",@progbits
.LLSDA2831:
	.byte	0xff
	.byte	0xff
	.byte	0x1
	.uleb128 .LLSDACSE2831-.LLSDACSB2831
.LLSDACSB2831:
	.uleb128 .LEHB0-.LFB2831
	.uleb128 .LEHE0-.LEHB0
	.uleb128 .L512-.LFB2831
	.uleb128 0
	.uleb128 .LEHB1-.LFB2831
	.uleb128 .LEHE1-.LEHB1
	.uleb128 .L511-.LFB2831
	.uleb128 0
	.uleb128 .LEHB2-.LFB2831
	.uleb128 .LEHE2-.LEHB2
	.uleb128 .L537-.LFB2831
	.uleb128 0
	.uleb128 .LEHB3-.LFB2831
	.uleb128 .LEHE3-.LEHB3
	.uleb128 0
	.uleb128 0
	.uleb128 .LEHB4-.LFB2831
	.uleb128 .LEHE4-.LEHB4
	.uleb128 .L512-.LFB2831
	.uleb128 0
	.uleb128 .LEHB5-.LFB2831
	.uleb128 .LEHE5-.LEHB5
	.uleb128 .L515-.LFB2831
	.uleb128 0
	.uleb128 .LEHB6-.LFB2831
	.uleb128 .LEHE6-.LEHB6
	.uleb128 .L512-.LFB2831
	.uleb128 0
	.uleb128 .LEHB7-.LFB2831
	.uleb128 .LEHE7-.LEHB7
	.uleb128 .L516-.LFB2831
	.uleb128 0
	.uleb128 .LEHB8-.LFB2831
	.uleb128 .LEHE8-.LEHB8
	.uleb128 .L512-.LFB2831
	.uleb128 0
	.uleb128 .LEHB9-.LFB2831
	.uleb128 .LEHE9-.LEHB9
	.uleb128 .L517-.LFB2831
	.uleb128 0
	.uleb128 .LEHB10-.LFB2831
	.uleb128 .LEHE10-.LEHB10
	.uleb128 .L513-.LFB2831
	.uleb128 0
	.uleb128 .LEHB11-.LFB2831
	.uleb128 .LEHE11-.LEHB11
	.uleb128 .L512-.LFB2831
	.uleb128 0
	.uleb128 .LEHB12-.LFB2831
	.uleb128 .LEHE12-.LEHB12
	.uleb128 .L514-.LFB2831
	.uleb128 0
	.uleb128 .LEHB13-.LFB2831
	.uleb128 .LEHE13-.LEHB13
	.uleb128 .L512-.LFB2831
	.uleb128 0
	.uleb128 .LEHB14-.LFB2831
	.uleb128 .LEHE14-.LEHB14
	.uleb128 .L518-.LFB2831
	.uleb128 0
	.uleb128 .LEHB15-.LFB2831
	.uleb128 .LEHE15-.LEHB15
	.uleb128 .L512-.LFB2831
	.uleb128 0
	.uleb128 .LEHB16-.LFB2831
	.uleb128 .LEHE16-.LEHB16
	.uleb128 .L519-.LFB2831
	.uleb128 0
	.uleb128 .LEHB17-.LFB2831
	.uleb128 .LEHE17-.LEHB17
	.uleb128 .L512-.LFB2831
	.uleb128 0
	.uleb128 .LEHB18-.LFB2831
	.uleb128 .LEHE18-.LEHB18
	.uleb128 .L520-.LFB2831
	.uleb128 0
	.uleb128 .LEHB19-.LFB2831
	.uleb128 .LEHE19-.LEHB19
	.uleb128 .L512-.LFB2831
	.uleb128 0
	.uleb128 .LEHB20-.LFB2831
	.uleb128 .LEHE20-.LEHB20
	.uleb128 .L521-.LFB2831
	.uleb128 0
	.uleb128 .LEHB21-.LFB2831
	.uleb128 .LEHE21-.LEHB21
	.uleb128 .L512-.LFB2831
	.uleb128 0
	.uleb128 .LEHB22-.LFB2831
	.uleb128 .LEHE22-.LEHB22
	.uleb128 .L522-.LFB2831
	.uleb128 0
	.uleb128 .LEHB23-.LFB2831
	.uleb128 .LEHE23-.LEHB23
	.uleb128 .L512-.LFB2831
	.uleb128 0
	.uleb128 .LEHB24-.LFB2831
	.uleb128 .LEHE24-.LEHB24
	.uleb128 .L523-.LFB2831
	.uleb128 0
	.uleb128 .LEHB25-.LFB2831
	.uleb128 .LEHE25-.LEHB25
	.uleb128 0
	.uleb128 0
	.uleb128 .LEHB26-.LFB2831
	.uleb128 .LEHE26-.LEHB26
	.uleb128 .L512-.LFB2831
	.uleb128 0
	.uleb128 .LEHB27-.LFB2831
	.uleb128 .LEHE27-.LEHB27
	.uleb128 .L524-.LFB2831
	.uleb128 0
	.uleb128 .LEHB28-.LFB2831
	.uleb128 .LEHE28-.LEHB28
	.uleb128 .L512-.LFB2831
	.uleb128 0
	.uleb128 .LEHB29-.LFB2831
	.uleb128 .LEHE29-.LEHB29
	.uleb128 .L525-.LFB2831
	.uleb128 0
	.uleb128 .LEHB30-.LFB2831
	.uleb128 .LEHE30-.LEHB30
	.uleb128 .L512-.LFB2831
	.uleb128 0
	.uleb128 .LEHB31-.LFB2831
	.uleb128 .LEHE31-.LEHB31
	.uleb128 .L526-.LFB2831
	.uleb128 0
	.uleb128 .LEHB32-.LFB2831
	.uleb128 .LEHE32-.LEHB32
	.uleb128 .L512-.LFB2831
	.uleb128 0
	.uleb128 .LEHB33-.LFB2831
	.uleb128 .LEHE33-.LEHB33
	.uleb128 .L527-.LFB2831
	.uleb128 0
	.uleb128 .LEHB34-.LFB2831
	.uleb128 .LEHE34-.LEHB34
	.uleb128 .L512-.LFB2831
	.uleb128 0
	.uleb128 .LEHB35-.LFB2831
	.uleb128 .LEHE35-.LEHB35
	.uleb128 .L528-.LFB2831
	.uleb128 0
	.uleb128 .LEHB36-.LFB2831
	.uleb128 .LEHE36-.LEHB36
	.uleb128 .L512-.LFB2831
	.uleb128 0
	.uleb128 .LEHB37-.LFB2831
	.uleb128 .LEHE37-.LEHB37
	.uleb128 .L529-.LFB2831
	.uleb128 0
	.uleb128 .LEHB38-.LFB2831
	.uleb128 .LEHE38-.LEHB38
	.uleb128 .L512-.LFB2831
	.uleb128 0
	.uleb128 .LEHB39-.LFB2831
	.uleb128 .LEHE39-.LEHB39
	.uleb128 .L530-.LFB2831
	.uleb128 0
	.uleb128 .LEHB40-.LFB2831
	.uleb128 .LEHE40-.LEHB40
	.uleb128 .L512-.LFB2831
	.uleb128 0
	.uleb128 .LEHB41-.LFB2831
	.uleb128 .LEHE41-.LEHB41
	.uleb128 .L531-.LFB2831
	.uleb128 0
	.uleb128 .LEHB42-.LFB2831
	.uleb128 .LEHE42-.LEHB42
	.uleb128 .L512-.LFB2831
	.uleb128 0
	.uleb128 .LEHB43-.LFB2831
	.uleb128 .LEHE43-.LEHB43
	.uleb128 .L532-.LFB2831
	.uleb128 0
	.uleb128 .LEHB44-.LFB2831
	.uleb128 .LEHE44-.LEHB44
	.uleb128 .L512-.LFB2831
	.uleb128 0
	.uleb128 .LEHB45-.LFB2831
	.uleb128 .LEHE45-.LEHB45
	.uleb128 .L533-.LFB2831
	.uleb128 0
	.uleb128 .LEHB46-.LFB2831
	.uleb128 .LEHE46-.LEHB46
	.uleb128 .L512-.LFB2831
	.uleb128 0
	.uleb128 .LEHB47-.LFB2831
	.uleb128 .LEHE47-.LEHB47
	.uleb128 .L534-.LFB2831
	.uleb128 0
	.uleb128 .LEHB48-.LFB2831
	.uleb128 .LEHE48-.LEHB48
	.uleb128 .L512-.LFB2831
	.uleb128 0
	.uleb128 .LEHB49-.LFB2831
	.uleb128 .LEHE49-.LEHB49
	.uleb128 .L535-.LFB2831
	.uleb128 0
	.uleb128 .LEHB50-.LFB2831
	.uleb128 .LEHE50-.LEHB50
	.uleb128 .L512-.LFB2831
	.uleb128 0
	.uleb128 .LEHB51-.LFB2831
	.uleb128 .LEHE51-.LEHB51
	.uleb128 .L536-.LFB2831
	.uleb128 0
	.uleb128 .LEHB52-.LFB2831
	.uleb128 .LEHE52-.LEHB52
	.uleb128 .L512-.LFB2831
	.uleb128 0
.LLSDACSE2831:
	.section	".text"
	.size	_ZN6idAnim15AddFrameCommandEPK14idDeclModelDefiR7idLexerPK6idDict, .-_ZN6idAnim15AddFrameCommandEPK14idDeclModelDefiR7idLexerPK6idDict
	.align 2
	.globl _ZNK14idDeclModelDef11ModelHandleEv
	.type	_ZNK14idDeclModelDef11ModelHandleEv, @function
_ZNK14idDeclModelDef11ModelHandleEv:
.LFB2890:
	.loc 4 2210 0
	.cfi_startproc
.LVL811:
	.loc 4 2212 0
	lwz 3,132(3)
.LVL812:
	blr
	.cfi_endproc
.LFE2890:
	.size	_ZNK14idDeclModelDef11ModelHandleEv, .-_ZNK14idDeclModelDef11ModelHandleEv
	.align 2
	.globl _ZNK14idDeclModelDef12GetJointListEPKcR6idListI13jointHandle_tE
	.type	_ZNK14idDeclModelDef12GetJointListEPKcR6idListI13jointHandle_tE, @function
_ZNK14idDeclModelDef12GetJointListEPKcR6idListI13jointHandle_tE:
.LFB2891:
	.loc 4 2219 0
	.cfi_startproc
	.cfi_personality 0,__gxx_personality_v0
	.cfi_lsda 0,.LLSDA2891
.LVL813:
	mflr 0
	stwu 1,-112(1)
.LCFI152:
	.cfi_def_cfa_offset 112
	.cfi_register 65, 0
.LVL814:
	mfcr 12
	stw 17,52(1)
	mr 17,4
	.cfi_offset 17, -60
	.cfi_register 70, 12
	stw 0,116(1)
.LBB4591:
.LBB4592:
.LBB4593:
.LBB4594:
	.loc 7 356 0
	li 0,0
	.cfi_offset 65, 4
.LBE4594:
.LBE4593:
.LBE4592:
.LBE4591:
	.loc 4 2219 0
	stw 21,68(1)
	mr 21,3
	.cfi_offset 21, -44
	stw 31,108(1)
	mr 31,5
	.cfi_offset 31, -4
	stw 15,44(1)
	stw 16,48(1)
	stw 18,56(1)
	stw 19,60(1)
	stw 20,64(1)
	stw 22,72(1)
	stw 23,76(1)
	stw 24,80(1)
	stw 25,84(1)
	stw 26,88(1)
	stw 27,92(1)
	stw 28,96(1)
	stw 29,100(1)
	stw 30,104(1)
	stw 12,40(1)
.LBB4755:
.LBB4601:
.LBB4598:
.LBB4595:
	.loc 7 356 0
	stw 0,8(1)
.LBE4595:
.LBE4598:
.LBE4601:
	.loc 4 2229 0
	lwz 9,132(3)
.LBB4602:
.LBB4599:
.LBB4596:
	.loc 7 359 0
	stb 0,20(1)
.LBE4596:
.LBE4599:
.LBE4602:
	.loc 4 2229 0
	cmpwi 7,9,0
.LBB4603:
.LBB4600:
.LBB4597:
	.loc 7 357 0
	li 9,20
	stw 9,16(1)
	.loc 7 358 0
	addi 9,1,20
	stw 9,12(1)
.LBE4597:
.LBE4600:
.LBE4603:
	.loc 4 2229 0
	beq- 7,.L575
	.cfi_offset 70, -72
	.cfi_offset 30, -8
	.cfi_offset 29, -12
	.cfi_offset 28, -16
	.cfi_offset 27, -20
	.cfi_offset 26, -24
	.cfi_offset 25, -28
	.cfi_offset 24, -32
	.cfi_offset 23, -36
	.cfi_offset 22, -40
	.cfi_offset 20, -48
	.cfi_offset 19, -52
	.cfi_offset 18, -56
	.cfi_offset 16, -64
	.cfi_offset 15, -68
.LVL815:
.LBB4604:
.LBB4605:
	.loc 8 193 0
	lwz 3,12(5)
.LVL816:
	cmpwi 7,3,0
	beq- 7,.L576
	.loc 8 194 0
	bl _ZdaPv
.LVL817:
.L576:
	.loc 8 197 0
	li 0,0
	addi 24,1,8
	stw 0,12(31)
	.loc 8 198 0
	stw 0,0(31)
	.loc 8 199 0
	stw 0,4(31)
.LBE4605:
.LBE4604:
	.loc 4 2235 0
	lwz 3,132(21)
	lwz 9,0(3)
	lwz 0,140(9)
	mtctr 0
.LEHB53:
	bctrl
.LEHE53:
	.loc 4 2251 0
	lis 20,.LC1@ha
	.loc 4 2274 0
	lis 15,gameLocal@ha
	lis 16,.LC64@ha
	.loc 4 2235 0
	mr 23,3
	mr 30,17
	addi 24,1,8
	.loc 4 2251 0
	la 20,.LC1@l(20)
	.loc 4 2257 0
	li 19,0
.LBB4606:
.LBB4607:
.LBB4608:
	.loc 7 754 0
	li 27,0
.LBE4608:
.LBE4607:
.LBE4606:
.LBB4621:
.LBB4622:
.LBB4623:
.LBB4624:
.LBB4625:
.LBB4626:
.LBB4627:
	.loc 8 663 0
	li 18,16
.LBE4627:
.LBE4626:
.LBE4625:
.LBE4624:
.LBE4623:
.LBE4622:
.LBE4621:
	.loc 4 2274 0
	la 15,gameLocal@l(15)
	la 16,.LC64@l(16)
.L661:
.LVL818:
	.loc 4 2239 0 discriminator 1
	lbz 3,0(30)
	cmpwi 4,3,0
	beq- 4,.L580
	.loc 4 2239 0 is_stmt 0
	mr 28,30
.LVL819:
.L579:
	.loc 4 2241 0 is_stmt 1 discriminator 2
	bl isspace
	.loc 4 2235 0 discriminator 2
	mr 30,28
	.loc 4 2241 0 discriminator 2
	cmpwi 7,3,0
	beq- 7,.L578
.LVL820:
	.loc 4 2241 0 is_stmt 0 discriminator 5
	lbzu 3,1(28)
.LVL821:
	cmpwi 4,3,0
	bne- 4,.L579
.LVL822:
.L580:
.LBB4665:
.LBB4666:
.LBB4667:
	.loc 7 501 0 is_stmt 1
	mr 3,24
.LEHB54:
	bl _ZN5idStr8FreeDataEv
.LEHE54:
.LVL823:
.L574:
.LBE4667:
.LBE4666:
.LBE4665:
.LBE4755:
	.loc 4 2304 0
	lwz 0,116(1)
	lwz 12,40(1)
	mtlr 0
	lwz 15,44(1)
	lwz 16,48(1)
	mtcrf 8,12
	lwz 17,52(1)
.LVL824:
	lwz 18,56(1)
	lwz 19,60(1)
	lwz 20,64(1)
	lwz 21,68(1)
.LVL825:
	lwz 22,72(1)
	lwz 23,76(1)
	lwz 24,80(1)
	lwz 25,84(1)
	lwz 26,88(1)
	lwz 27,92(1)
	lwz 28,96(1)
	lwz 29,100(1)
	lwz 30,104(1)
	lwz 31,108(1)
.LVL826:
	addi 1,1,112
	.cfi_remember_state
.LCFI153:
	.cfi_def_cfa_offset 0
	.cfi_restore 70
	.cfi_restore 31
	.cfi_restore 30
	.cfi_restore 29
	.cfi_restore 28
	.cfi_restore 27
	.cfi_restore 26
	.cfi_restore 25
	.cfi_restore 24
	.cfi_restore 23
	.cfi_restore 22
	.cfi_restore 21
	.cfi_restore 20
	.cfi_restore 19
	.cfi_restore 18
	.cfi_restore 17
	.cfi_restore 16
	.cfi_restore 15
	blr
.LVL827:
.L578:
.LCFI154:
	.cfi_restore_state
.LBB4756:
	.loc 4 2245 0
	beq- 4,.L580
	.loc 4 2251 0
	mr 3,24
	mr 4,20
.LEHB55:
	bl _ZN5idStraSEPKc
	.loc 4 2253 0
	lbz 29,0(28)
	.loc 4 2257 0
	li 25,0
	.loc 4 2253 0
	cmpwi 7,29,45
	beq- 7,.L668
.LVL828:
	.loc 4 2260 0
	cmpwi 7,29,42
	.loc 4 2264 0
	li 22,0
	.loc 4 2260 0
	beq- 7,.L669
.LVL829:
.L582:
	.loc 4 2267 0 discriminator 1
	cmpwi 7,29,0
	mr 28,30
	bne- 7,.L584
.LVL830:
.L583:
	.loc 4 2272 0
	lwz 4,12(1)
	mr 3,21
	bl _ZNK14idDeclModelDef9FindJointEPKc
.LVL831:
	.loc 4 2273 0
	mr. 26,3
	beq- 0,.L670
	.loc 4 2278 0
	cmpwi 4,25,0
	bne- 4,.L589
.LVL832:
.LBB4668:
	.loc 4 5042 0
	lwz 10,0(31)
.LVL833:
.LBB4669:
.LBB4670:
.LBB4671:
	.loc 8 773 0
	lwz 29,12(31)
	.loc 8 772 0
	cmpwi 7,10,0
	ble- 7,.L594
	.loc 8 773 0
	lwz 11,0(26)
	mr 9,29
	lwz 0,0(29)
	.loc 8 772 0
	mtctr 10
	.loc 8 773 0
	cmpw 7,0,11
	beq- 7,.L591
.LVL834:
.L592:
	.loc 8 772 0
	bdz .L594
	.loc 8 773 0
	lwzu 0,4(9)
	cmpw 7,0,11
	bne+ 7,.L592
.LVL835:
.L591:
.LBE4671:
.LBE4670:
.LBE4669:
.LBE4668:
	.loc 4 2284 0
	cmpwi 7,22,0
	beq- 7,.L661
.LVL836:
	.loc 4 2287 0
	lwz 9,0(26)
	addi 28,9,1
.LVL837:
	cmpw 7,23,28
	ble- 7,.L661
	.loc 4 2292 0
	lwz 0,16(26)
	.loc 4 2286 0
	addi 29,26,12
	.loc 4 2219 0
	addi 22,26,24
	.loc 4 2292 0
	cmpw 7,9,0
	bgt- 7,.L661
	.loc 4 2296 0
	bne- 4,.L615
.LVL838:
.L671:
.LBB4716:
	.loc 4 5042 0
	lwz 10,0(31)
.LVL839:
.LBB4659:
.LBB4660:
.LBB4661:
	.loc 8 773 0
	lwz 25,12(31)
	.loc 8 772 0
	cmpwi 7,10,0
	ble- 7,.L620
	.loc 8 773 0
	lwz 11,0(29)
	mr 9,25
	lwz 0,0(25)
	.loc 8 772 0
	mtctr 10
	.loc 8 773 0
	cmpw 7,0,11
	beq- 7,.L617
.LVL840:
.L618:
	.loc 8 772 0
	bdz .L620
	.loc 8 773 0
	lwzu 0,4(9)
	cmpw 7,0,11
	bne+ 7,.L618
.LVL841:
.L617:
.LBE4661:
.LBE4660:
.LBE4659:
.LBE4716:
	.loc 4 2287 0
	addi 28,28,1
.LVL842:
	cmpw 7,28,23
	beq- 7,.L661
	.loc 4 2219 0
	subf 9,26,29
	.loc 4 2292 0
	lwz 0,0(26)
	.loc 4 2219 0
	add 9,9,22
	.loc 4 2292 0
	addi 29,29,12
	lwz 9,-8(9)
	cmpw 7,9,0
	blt- 7,.L661
	.loc 4 2296 0
	beq- 4,.L671
.L615:
.LVL843:
.LBB4717:
	.loc 4 5042 0
	lwz 7,0(31)
.LVL844:
.LBB4718:
.LBB4719:
.LBB4720:
	.loc 8 772 0
	cmpwi 7,7,0
	ble- 7,.L617
	.loc 8 773 0
	lwz 8,12(31)
	lwz 10,0(29)
	lwz 0,0(8)
	cmpw 7,0,10
	beq- 7,.L654
	mr 11,8
	.loc 8 772 0
	li 9,0
	mtctr 7
	b .L637
.LVL845:
.L638:
	.loc 8 773 0
	lwzu 0,4(11)
	cmpw 7,0,10
	beq- 7,.L636
.LVL846:
.L637:
	.loc 8 772 0
	addi 9,9,1
.LVL847:
	bdnz .L638
	b .L617
.LVL848:
.L685:
.LBE4720:
.LBE4719:
.LBE4718:
.LBE4717:
.LBB4726:
.LBB4618:
.LBB4615:
.LBB4609:
.LBB4610:
	.loc 7 351 0
	mr 3,24
	li 5,1
	bl _ZN5idStr10ReAllocateEib
.LVL849:
	lwz 11,8(1)
.L586:
.LBE4610:
.LBE4609:
	.loc 7 752 0
	lwz 9,12(1)
.LBE4615:
.LBE4618:
.LBE4726:
	.loc 4 2269 0
	addi 30,30,1
.LVL850:
.LBB4727:
.LBB4619:
.LBB4616:
	.loc 7 752 0
	stbx 29,9,11
	.loc 7 753 0
	lwz 9,8(1)
	addi 0,9,1
	.loc 7 754 0
	lwz 9,12(1)
	.loc 7 753 0
	stw 0,8(1)
	.loc 7 754 0
	stbx 27,9,0
.LBE4616:
.LBE4619:
.LBE4727:
	.loc 4 2267 0
	lbzu 29,1(28)
.LVL851:
	cmpwi 7,29,0
	beq- 7,.L583
.LVL852:
.L584:
	.loc 4 2267 0 is_stmt 0 discriminator 2
	mr 3,29
	bl isspace
	cmpwi 7,3,0
	bne- 7,.L583
.LVL853:
.LBB4728:
.LBB4620:
.LBB4617:
	.loc 7 751 0 is_stmt 1 discriminator 5
	lwz 11,8(1)
.LBB4613:
.LBB4611:
	.loc 7 350 0 discriminator 5
	lwz 0,16(1)
.LBE4611:
.LBE4613:
	.loc 7 751 0 discriminator 5
	addi 4,11,2
.LVL854:
.LBB4614:
.LBB4612:
	.loc 7 350 0 discriminator 5
	cmpw 7,4,0
	ble+ 7,.L586
	b .L685
.LVL855:
.L620:
.LBE4612:
.LBE4614:
.LBE4617:
.LBE4620:
.LBE4728:
.LBB4729:
.LBB4662:
.LBB4656:
.LBB4653:
.LBB4650:
	.loc 8 655 0
	cmpwi 7,25,0
	beq- 7,.L646
.L665:
	lwz 0,4(31)
.L623:
.LBB4641:
	.loc 8 659 0
	cmpw 7,10,0
	beq- 7,.L653
.L666:
.LBB4638:
.LBB4628:
.LBB4629:
	.loc 8 380 0
	slwi 10,10,2
	add 25,25,10
.L627:
.LBE4629:
.LBE4628:
.LBE4638:
.LBE4641:
	.loc 8 669 0
	lwz 0,0(29)
	stw 0,0(25)
	.loc 8 670 0
	lwz 9,0(31)
	addi 0,9,1
	stw 0,0(31)
.LVL856:
	b .L617
.LVL857:
.L646:
	.loc 8 656 0
	lwz 3,8(31)
.LVL858:
.LBB4642:
.LBB4643:
	.loc 8 375 0
	cmpwi 7,3,0
	ble- 7,.L673
	.loc 8 380 0
	lwz 0,4(31)
	cmpw 7,3,0
	beq- 7,.L623
.LVL859:
	.loc 8 387 0
	cmpw 7,10,3
	.loc 8 386 0
	stw 3,4(31)
	.loc 8 387 0
	ble- 7,.L624
	.loc 8 388 0
	stw 3,0(31)
.L624:
	.loc 8 392 0
	slwi 3,3,2
	bl _Znaj
.LVL860:
	.loc 8 393 0
	lwz 10,0(31)
	.loc 8 392 0
	mr 25,3
	stw 3,12(31)
.LVL861:
	.loc 8 393 0
	li 9,0
	cmpwi 7,10,0
	li 11,0
	bgt+ 7,.L660
	b .L665
.LVL862:
.L674:
	lwz 25,12(31)
.LVL863:
.L660:
	.loc 8 394 0
	lwz 0,0(9)
	.loc 8 393 0
	addi 11,11,1
.LVL864:
	.loc 8 394 0
	stwx 0,25,9
	.loc 8 393 0
	addi 9,9,4
	lwz 10,0(31)
	cmpw 7,11,10
	blt+ 7,.L674
	lwz 0,4(31)
	lwz 25,12(31)
.LBE4643:
.LBE4642:
.LBB4647:
	.loc 8 659 0
	cmpw 7,10,0
	bne+ 7,.L666
.LVL865:
.L653:
	lwz 3,8(31)
	mr 11,10
.L622:
.LBB4639:
	.loc 8 662 0
	cmpwi 7,3,0
	mr 0,3
	bne- 7,.L628
	.loc 8 663 0
	stw 18,8(31)
	li 0,16
.L628:
	.loc 8 665 0
	add 9,11,0
.LVL866:
	.loc 8 666 0
	divw 9,9,0
.LVL867:
.LBB4635:
.LBB4632:
	.loc 8 375 0
	mullw. 0,9,0
.LVL868:
	ble- 0,.L675
	.loc 8 380 0
	cmpw 7,0,11
	beq- 7,.L666
.LVL869:
	.loc 8 387 0
	cmpw 7,0,10
	.loc 8 386 0
	stw 0,4(31)
	.loc 8 387 0
	bge- 7,.L632
	.loc 8 388 0
	stw 0,0(31)
.L632:
	.loc 8 392 0
	slwi 3,0,2
	bl _Znaj
.LVL870:
	.loc 8 393 0
	lwz 0,0(31)
	.loc 8 392 0
	stw 3,12(31)
.LVL871:
	.loc 8 393 0
	cmpwi 7,0,0
	ble- 7,.L633
	.loc 4 2219 0
	addi 11,25,-4
.LBE4632:
.LBE4635:
	.loc 8 393 0
	li 9,0
	b .L634
.LVL872:
.L676:
.LBB4636:
.LBB4633:
	lwz 3,12(31)
.LVL873:
.L634:
	.loc 8 394 0
	lwzu 10,4(11)
	slwi 0,9,2
	.loc 8 393 0
	addi 9,9,1
.LVL874:
	.loc 8 394 0
	stwx 10,3,0
	.loc 8 393 0
	lwz 0,0(31)
	cmpw 7,9,0
	blt+ 7,.L676
.LVL875:
.L633:
	.loc 8 398 0
	cmpwi 7,25,0
	beq- 7,.L667
	.loc 8 399 0
	mr 3,25
	bl _ZdaPv
	lwz 0,0(31)
.L667:
	lwz 25,12(31)
.LVL876:
	slwi 0,0,2
	add 25,25,0
	b .L627
.LVL877:
.L654:
.LBE4633:
.LBE4636:
.LBE4639:
.LBE4647:
.LBE4650:
.LBE4653:
.LBE4656:
.LBE4662:
.LBE4729:
.LBB4730:
.LBB4725:
.LBB4722:
.LBB4721:
	.loc 8 772 0
	li 9,0
.LVL878:
.L636:
.LBE4721:
.LBE4722:
.LBB4723:
.LBB4724:
	.loc 8 868 0
	addi 7,7,-1
	.loc 8 869 0
	cmpw 7,9,7
	.loc 8 868 0
	stw 7,0(31)
.LVL879:
	.loc 8 869 0
	bge- 7,.L617
	slwi 11,9,2
	b .L639
.LVL880:
.L677:
	lwz 8,12(31)
.L639:
	.loc 8 870 0
	add 10,8,11
	.loc 4 2219 0
	addi 11,11,4
	.loc 8 870 0
	lwzx 0,8,11
	.loc 8 869 0
	addi 9,9,1
.LVL881:
	.loc 8 870 0
	stw 0,0(10)
	.loc 8 869 0
	lwz 0,0(31)
	cmpw 7,9,0
	blt+ 7,.L677
	b .L617
.LVL882:
.L589:
.LBE4724:
.LBE4723:
.LBE4725:
.LBE4730:
.LBB4731:
	.loc 4 5042 0
	lwz 7,0(31)
.LVL883:
.LBB4732:
.LBB4733:
.LBB4734:
	.loc 8 772 0
	cmpwi 7,7,0
	ble- 7,.L591
	.loc 8 773 0
	lwz 8,12(31)
	lwz 10,0(26)
	lwz 0,0(8)
	cmpw 7,0,10
	beq- 7,.L651
	mr 11,8
	.loc 8 772 0
	li 9,0
	mtctr 7
	b .L611
.LVL884:
.L612:
	.loc 8 773 0
	lwzu 0,4(11)
	cmpw 7,10,0
	beq- 7,.L610
.LVL885:
.L611:
	.loc 8 772 0
	addi 9,9,1
.LVL886:
	bdnz .L612
	b .L591
.LVL887:
.L668:
.LBE4734:
.LBE4733:
.LBE4732:
.LBE4731:
	.loc 4 2255 0
	lbz 29,1(28)
	addi 30,28,1
.LVL888:
	.loc 4 2254 0
	li 25,1
.LVL889:
	.loc 4 2264 0
	li 22,0
	.loc 4 2260 0
	cmpwi 7,29,42
	bne+ 7,.L582
.LVL890:
.L669:
	.loc 4 2262 0
	lbz 29,1(30)
	.loc 4 2261 0
	li 22,1
	.loc 4 2262 0
	addi 30,30,1
.LVL891:
	b .L582
.LVL892:
.L594:
.LBB4740:
.LBB4672:
.LBB4673:
.LBB4674:
.LBB4675:
	.loc 8 655 0
	cmpwi 7,29,0
	beq- 7,.L645
.LVL893:
.L662:
	lwz 0,4(31)
.L597:
.LBB4676:
	.loc 8 659 0
	cmpw 7,10,0
	beq- 7,.L650
.L663:
.LBB4677:
.LBB4678:
.LBB4679:
	.loc 8 380 0
	slwi 10,10,2
	add 29,29,10
.L601:
.LBE4679:
.LBE4678:
.LBE4677:
.LBE4676:
	.loc 8 669 0
	lwz 0,0(26)
	stw 0,0(29)
	.loc 8 670 0
	lwz 9,0(31)
	addi 0,9,1
	stw 0,0(31)
.LVL894:
	b .L591
.LVL895:
.L651:
.LBE4675:
.LBE4674:
.LBE4673:
.LBE4672:
.LBE4740:
.LBB4741:
.LBB4739:
.LBB4736:
.LBB4735:
	.loc 8 772 0
	li 9,0
.LVL896:
.L610:
.LBE4735:
.LBE4736:
.LBB4737:
.LBB4738:
	.loc 8 868 0
	addi 7,7,-1
	.loc 8 869 0
	cmpw 7,9,7
	.loc 8 868 0
	stw 7,0(31)
.LVL897:
	.loc 8 869 0
	bge- 7,.L591
	slwi 11,9,2
	b .L613
.LVL898:
.L678:
	lwz 8,12(31)
.L613:
	.loc 8 870 0
	add 10,8,11
	.loc 4 2219 0
	addi 11,11,4
	.loc 8 870 0
	lwzx 0,8,11
	.loc 8 869 0
	addi 9,9,1
.LVL899:
	.loc 8 870 0
	stw 0,0(10)
	.loc 8 869 0
	lwz 0,0(31)
	cmpw 7,9,0
	blt+ 7,.L678
	b .L591
.LVL900:
.L670:
.LBE4738:
.LBE4737:
.LBE4739:
.LBE4741:
	.loc 4 5042 0
	lwz 3,4(21)
	.loc 4 2274 0
	lwz 29,12(1)
.LBB4742:
.LBB4743:
	.loc 3 140 0
	lwz 9,0(3)
	lwz 0,8(9)
	mtctr 0
	bctrl
	mr 7,3
.LBE4743:
.LBE4742:
	.loc 4 2274 0
	mr 4,16
	mr 3,15
	mr 5,29
	mr 6,17
	crxor 6,6,6
	bl _ZNK11idGameLocal7WarningEPKcz
	b .L661
.LVL901:
.L650:
	lwz 3,8(31)
.LBB4744:
.LBB4713:
.LBB4710:
.LBB4707:
.LBB4704:
.LBB4693:
	.loc 8 659 0
	mr 0,10
.L596:
.LBB4690:
	.loc 8 662 0
	cmpwi 7,3,0
	bne- 7,.L602
	.loc 8 663 0
	stw 18,8(31)
	li 3,16
.L602:
	.loc 8 665 0
	add 9,0,3
.LVL902:
	.loc 8 666 0
	divw 9,9,3
.LVL903:
.LBB4686:
.LBB4682:
	.loc 8 375 0
	mullw. 3,9,3
.LVL904:
	ble- 0,.L679
	.loc 8 380 0
	cmpw 7,3,0
	beq- 7,.L663
.LVL905:
	.loc 8 387 0
	cmpw 7,3,10
	.loc 8 386 0
	stw 3,4(31)
	.loc 8 387 0
	blt- 7,.L680
.L606:
	.loc 8 392 0
	slwi 3,3,2
.LVL906:
	bl _Znaj
.LVL907:
	.loc 8 393 0
	lwz 0,0(31)
	.loc 8 392 0
	stw 3,12(31)
.LVL908:
	.loc 8 393 0
	cmpwi 7,0,0
	ble- 7,.L607
	.loc 4 2219 0
	addi 11,29,-4
.LBE4682:
.LBE4686:
	.loc 8 393 0
	li 9,0
	b .L608
.LVL909:
.L681:
.LBB4687:
.LBB4683:
	lwz 3,12(31)
.LVL910:
.L608:
	.loc 8 394 0
	lwzu 10,4(11)
	slwi 0,9,2
	.loc 8 393 0
	addi 9,9,1
.LVL911:
	.loc 8 394 0
	stwx 10,3,0
	.loc 8 393 0
	lwz 0,0(31)
	cmpw 7,9,0
	blt+ 7,.L681
.LVL912:
.L607:
	.loc 8 398 0
	cmpwi 7,29,0
	beq- 7,.L664
	.loc 8 399 0
	mr 3,29
	bl _ZdaPv
	lwz 0,0(31)
.L664:
	lwz 29,12(31)
.LVL913:
	slwi 0,0,2
	add 29,29,0
	b .L601
.LVL914:
.L675:
.LBE4683:
.LBE4687:
.LBE4690:
.LBE4693:
.LBE4704:
.LBE4707:
.LBE4710:
.LBE4713:
.LBE4744:
.LBB4745:
.LBB4663:
.LBB4657:
.LBB4654:
.LBB4651:
.LBB4648:
.LBB4640:
.LBB4637:
.LBB4634:
.LBB4630:
.LBB4631:
	.loc 8 193 0
	cmpwi 7,25,0
	beq- 7,.L630
	.loc 8 194 0
	mr 3,25
	bl _ZdaPv
.LVL915:
.L630:
	.loc 8 197 0
	stw 19,12(31)
	.loc 8 199 0
	li 25,0
	.loc 8 198 0
	stw 19,0(31)
	.loc 8 199 0
	stw 19,4(31)
	b .L627
.LVL916:
.L680:
.LBE4631:
.LBE4630:
.LBE4634:
.LBE4637:
.LBE4640:
.LBE4648:
.LBE4651:
.LBE4654:
.LBE4657:
.LBE4663:
.LBE4745:
.LBB4746:
.LBB4714:
.LBB4711:
.LBB4708:
.LBB4705:
.LBB4694:
.LBB4691:
.LBB4688:
.LBB4684:
	.loc 8 388 0
	stw 3,0(31)
	b .L606
.LVL917:
.L645:
.LBE4684:
.LBE4688:
.LBE4691:
.LBE4694:
	.loc 8 656 0
	lwz 3,8(31)
.LVL918:
.LBB4695:
.LBB4696:
	.loc 8 375 0
	cmpwi 7,3,0
	ble- 7,.L682
	.loc 8 380 0
	lwz 0,4(31)
	cmpw 7,3,0
	beq- 7,.L597
.LVL919:
	.loc 8 387 0
	cmpw 7,10,3
	.loc 8 386 0
	stw 3,4(31)
	.loc 8 387 0
	bgt- 7,.L683
.L598:
	.loc 8 392 0
	slwi 3,3,2
	bl _Znaj
.LEHE55:
.LVL920:
	.loc 8 393 0
	lwz 10,0(31)
	.loc 8 392 0
	mr 29,3
	stw 3,12(31)
.LVL921:
	.loc 8 393 0
	li 9,0
	cmpwi 7,10,0
	li 11,0
	bgt+ 7,.L658
	b .L662
.LVL922:
.L684:
	lwz 29,12(31)
.LVL923:
.L658:
	.loc 8 394 0
	lwz 0,0(9)
	.loc 8 393 0
	addi 11,11,1
.LVL924:
	.loc 8 394 0
	stwx 0,29,9
	.loc 8 393 0
	addi 9,9,4
	lwz 10,0(31)
	cmpw 7,11,10
	blt+ 7,.L684
	lwz 0,4(31)
	lwz 29,12(31)
	b .L597
.LVL925:
.L673:
.LBE4696:
.LBE4695:
.LBE4705:
.LBE4708:
.LBE4711:
.LBE4714:
.LBE4746:
.LBB4747:
.LBB4664:
.LBB4658:
.LBB4655:
.LBB4652:
.LBB4649:
.LBB4646:
.LBB4644:
.LBB4645:
	.loc 8 197 0
	stw 25,12(31)
	.loc 8 199 0
	li 11,0
	.loc 8 198 0
	stw 25,0(31)
	.loc 8 199 0
	li 10,0
	stw 25,4(31)
	b .L622
.LVL926:
.L575:
.LBE4645:
.LBE4644:
.LBE4646:
.LBE4649:
.LBE4652:
.LBE4655:
.LBE4658:
.LBE4664:
.LBE4747:
.LBB4748:
.LBB4749:
.LBB4750:
	.loc 7 501 0
	addi 3,1,8
.LEHB56:
	bl _ZN5idStr8FreeDataEv
.LEHE56:
	b .L574
.LVL927:
.L683:
.LBE4750:
.LBE4749:
.LBE4748:
.LBB4751:
.LBB4715:
.LBB4712:
.LBB4709:
.LBB4706:
.LBB4701:
.LBB4699:
	.loc 8 388 0
	stw 3,0(31)
	b .L598
.LVL928:
.L679:
.LBE4699:
.LBE4701:
.LBB4702:
.LBB4692:
.LBB4689:
.LBB4685:
.LBB4680:
.LBB4681:
	.loc 8 193 0
	cmpwi 7,29,0
	beq- 7,.L604
	.loc 8 194 0
	mr 3,29
.LVL929:
	bl _ZdaPv
.L604:
	.loc 8 197 0
	stw 19,12(31)
	.loc 8 199 0
	li 29,0
	.loc 8 198 0
	stw 19,0(31)
	.loc 8 199 0
	stw 19,4(31)
	b .L601
.LVL930:
.L682:
.LBE4681:
.LBE4680:
.LBE4685:
.LBE4689:
.LBE4692:
.LBE4702:
.LBB4703:
.LBB4700:
.LBB4697:
.LBB4698:
	.loc 8 197 0
	stw 29,12(31)
	.loc 8 199 0
	li 0,0
	.loc 8 198 0
	stw 29,0(31)
	.loc 8 199 0
	li 10,0
	stw 29,4(31)
	b .L596
.LVL931:
.L655:
	mr 31,3
.LVL932:
.LBE4698:
.LBE4697:
.LBE4700:
.LBE4703:
.LBE4706:
.LBE4709:
.LBE4712:
.LBE4715:
.LBE4751:
.LBB4752:
.LBB4753:
.LBB4754:
	.loc 7 501 0
	mr 3,24
	bl _ZN5idStr8FreeDataEv
	mr 3,31
.LEHB57:
	bl _Unwind_Resume
.LEHE57:
.LBE4754:
.LBE4753:
.LBE4752:
.LBE4756:
	.cfi_endproc
.LFE2891:
	.section	.gcc_except_table
.LLSDA2891:
	.byte	0xff
	.byte	0xff
	.byte	0x1
	.uleb128 .LLSDACSE2891-.LLSDACSB2891
.LLSDACSB2891:
	.uleb128 .LEHB53-.LFB2891
	.uleb128 .LEHE53-.LEHB53
	.uleb128 .L655-.LFB2891
	.uleb128 0
	.uleb128 .LEHB54-.LFB2891
	.uleb128 .LEHE54-.LEHB54
	.uleb128 0
	.uleb128 0
	.uleb128 .LEHB55-.LFB2891
	.uleb128 .LEHE55-.LEHB55
	.uleb128 .L655-.LFB2891
	.uleb128 0
	.uleb128 .LEHB56-.LFB2891
	.uleb128 .LEHE56-.LEHB56
	.uleb128 0
	.uleb128 0
	.uleb128 .LEHB57-.LFB2891
	.uleb128 .LEHE57-.LEHB57
	.uleb128 0
	.uleb128 0
.LLSDACSE2891:
	.section	".text"
	.size	_ZNK14idDeclModelDef12GetJointListEPKcR6idListI13jointHandle_tE, .-_ZNK14idDeclModelDef12GetJointListEPKcR6idListI13jointHandle_tE
	.align 2
	.globl _ZNK14idDeclModelDef5TouchEv
	.type	_ZNK14idDeclModelDef5TouchEv, @function
_ZNK14idDeclModelDef5TouchEv:
.LFB2892:
	.loc 4 2311 0
	.cfi_startproc
.LVL933:
	mflr 0
	stwu 1,-16(1)
.LCFI155:
	.cfi_def_cfa_offset 16
	.cfi_register 65, 0
	stw 30,8(1)
	stw 0,20(1)
	stw 31,12(1)
	.loc 4 2312 0
	lwz 3,132(3)
.LVL934:
	cmpwi 7,3,0
	beq- 7,.L686
	.cfi_offset 31, -4
	.cfi_offset 65, 4
	.cfi_offset 30, -8
	.loc 4 2313 0
	lwz 9,0(3)
	lis 11,renderModelManager@ha
	lwz 30,renderModelManager@l(11)
	lwz 0,60(9)
	lwz 9,0(30)
	mtctr 0
	lwz 31,32(9)
	bctrl
	mtctr 31
	mr 4,3
	mr 3,30
	bctrl
.L686:
	.loc 4 2315 0
	lwz 0,20(1)
	lwz 30,8(1)
	mtlr 0
	lwz 31,12(1)
	addi 1,1,16
.LCFI156:
	.cfi_def_cfa_offset 0
	.cfi_restore 31
	.cfi_restore 30
	blr
	.cfi_endproc
.LFE2892:
	.size	_ZNK14idDeclModelDef5TouchEv, .-_ZNK14idDeclModelDef5TouchEv
	.align 2
	.globl _ZNK14idDeclModelDef14GetDefaultSkinEv
	.type	_ZNK14idDeclModelDef14GetDefaultSkinEv, @function
_ZNK14idDeclModelDef14GetDefaultSkinEv:
.LFB2893:
	.loc 4 2322 0
	.cfi_startproc
.LVL935:
	.loc 4 2324 0
	lwz 3,152(3)
.LVL936:
	blr
	.cfi_endproc
.LFE2893:
	.size	_ZNK14idDeclModelDef14GetDefaultSkinEv, .-_ZNK14idDeclModelDef14GetDefaultSkinEv
	.align 2
	.globl _ZNK14idDeclModelDef14GetDefaultPoseEv
	.type	_ZNK14idDeclModelDef14GetDefaultPoseEv, @function
_ZNK14idDeclModelDef14GetDefaultPoseEv:
.LFB2894:
	.loc 4 2331 0
	.cfi_startproc
.LVL937:
	mflr 0
	stwu 1,-8(1)
.LCFI157:
	.cfi_def_cfa_offset 8
	.cfi_register 65, 0
	stw 0,12(1)
	.loc 4 2332 0
	lwz 3,132(3)
.LVL938:
	lwz 9,0(3)
	lwz 0,156(9)
	.cfi_offset 65, 4
	mtctr 0
	bctrl
	.loc 4 2333 0
	lwz 0,12(1)
	addi 1,1,8
.LCFI158:
	.cfi_def_cfa_offset 0
	mtlr 0
	blr
	.cfi_endproc
.LFE2894:
	.size	_ZNK14idDeclModelDef14GetDefaultPoseEv, .-_ZNK14idDeclModelDef14GetDefaultPoseEv
	.align 2
	.globl _ZNK14idDeclModelDef11SetupJointsEPiPP10idJointMatR8idBoundsb
	.type	_ZNK14idDeclModelDef11SetupJointsEPiPP10idJointMatR8idBoundsb, @function
_ZNK14idDeclModelDef11SetupJointsEPiPP10idJointMatR8idBoundsb:
.LFB2895:
	.loc 4 2340 0
	.cfi_startproc
.LVL939:
	mflr 0
	stwu 1,-80(1)
.LCFI159:
	.cfi_def_cfa_offset 80
	.cfi_register 65, 0
	stw 23,44(1)
	mr 23,7
	.cfi_offset 23, -36
	stw 27,60(1)
	mr 27,4
	.cfi_offset 27, -20
	stw 28,64(1)
	mr 28,5
	.cfi_offset 28, -16
	stw 30,72(1)
	mr 30,6
	.cfi_offset 30, -8
	stw 31,76(1)
	mr 31,3
	.cfi_offset 31, -4
	stw 0,84(1)
	stw 24,48(1)
	stw 25,52(1)
	stw 26,56(1)
	stw 29,68(1)
.LBB4757:
	.loc 4 2345 0
	lwz 3,132(3)
.LVL940:
	cmpwi 7,3,0
	beq- 7,.L691
	.cfi_offset 29, -12
	.cfi_offset 26, -24
	.cfi_offset 25, -28
	.cfi_offset 24, -32
	.cfi_offset 65, 4
	.loc 4 2345 0 is_stmt 0 discriminator 2
	lwz 9,0(3)
	lwz 0,124(9)
	mtctr 0
	bctrl
.LVL941:
	cmpwi 7,3,0
	bne- 7,.L691
	.loc 4 2353 0 is_stmt 1
	lwz 3,132(31)
	lwz 9,0(3)
	lwz 0,140(9)
	mtctr 0
	bctrl
.LVL942:
	.loc 4 2355 0
	mr. 26,3
	bne+ 0,.L697
	.loc 4 2356 0
	lwz 3,132(31)
.LVL943:
	lwz 9,0(3)
	lwz 0,60(9)
	mtctr 0
	bctrl
	lis 4,.LC65@ha
	mr 5,3
	lis 3,gameLocal@ha
	la 3,gameLocal@l(3)
	la 4,.LC65@l(4)
	crxor 6,6,6
	bl _ZNK11idGameLocal5ErrorEPKcz
.L697:
	.loc 4 2360 0
	mulli 3,26,48
	.loc 4 2364 0
	lis 24,SIMDProcessor@ha
	.loc 4 2360 0
	bl _Z11Mem_Alloc16i
	mr 29,3
.LVL944:
.LBB4758:
.LBB4759:
	.loc 4 2332 0
	lwz 3,132(31)
.LVL945:
	lwz 9,0(3)
	lwz 0,156(9)
	mtctr 0
	bctrl
.LBE4759:
.LBE4758:
	.loc 4 2364 0
	mr 4,29
.LBB4761:
.LBB4760:
	.loc 4 2332 0
	mr 25,3
.LVL946:
.LBE4760:
.LBE4761:
	.loc 4 2364 0
	lwz 3,SIMDProcessor@l(24)
.LVL947:
	mr 5,25
	lwz 6,20(31)
	lwz 9,0(3)
	lwz 0,240(9)
	mtctr 0
	bctrl
	.loc 4 2367 0
	cmpwi 7,23,0
	beq- 7,.L694
.LVL948:
.LBB4762:
.LBB4763:
.LBB4764:
.LBB4765:
	.loc 9 402 0
	lwz 0,8(31)
.LBE4765:
.LBE4764:
	.file 14 "d:/Data/Nintendo/DoomGX/src/game/anim/../../idlib/../idlib/geometry/JointTransform.h"
	.loc 14 104 0
	stw 0,12(29)
.LVL949:
.LBB4766:
.LBB4767:
	.loc 9 402 0
	lwz 0,12(31)
.LBE4767:
.LBE4766:
	.loc 14 105 0
	stw 0,28(29)
.LVL950:
.LBB4768:
.LBB4769:
	.loc 9 402 0
	lwz 0,16(31)
.LBE4769:
.LBE4768:
	.loc 14 106 0
	stw 0,44(29)
.LVL951:
.L695:
.LBE4763:
.LBE4762:
	.loc 4 2378 0
	lwz 3,SIMDProcessor@l(24)
	mr 4,29
	lwz 7,20(31)
	li 6,1
	lwz 9,0(3)
	lwz 5,48(31)
	addi 7,7,-1
	lwz 0,248(9)
	mtctr 0
	bctrl
	.loc 4 2380 0
	stw 26,0(27)
	.loc 4 2381 0
	stw 29,0(28)
	.loc 4 2384 0
	addi 3,1,8
	li 5,0
	lwz 4,132(31)
	lwz 9,0(4)
	lwz 0,128(9)
	mtctr 0
	bctrl
.LVL952:
.LBB4770:
.LBB4771:
.LBB4772:
	.loc 9 424 0
	lwz 0,8(1)
	stw 0,0(30)
	.loc 9 425 0
	lwz 0,12(1)
	stw 0,4(30)
	.loc 9 426 0
	lwz 0,16(1)
	stw 0,8(30)
.LVL953:
	.loc 9 424 0
	lwz 0,20(1)
	stw 0,12(30)
	.loc 9 425 0
	lwz 0,24(1)
	stw 0,16(30)
	.loc 9 426 0
	lwz 0,28(1)
	stw 0,20(30)
.LBE4772:
.LBE4771:
.LBE4770:
.LBE4757:
	.loc 4 2385 0
	lwz 0,84(1)
	lwz 23,44(1)
	mtlr 0
	lwz 24,48(1)
	lwz 25,52(1)
.LVL954:
	lwz 26,56(1)
.LVL955:
	lwz 27,60(1)
.LVL956:
	lwz 28,64(1)
.LVL957:
	lwz 29,68(1)
.LVL958:
	lwz 30,72(1)
.LVL959:
	lwz 31,76(1)
.LVL960:
	addi 1,1,80
	.cfi_remember_state
.LCFI160:
	.cfi_def_cfa_offset 0
	.cfi_restore 31
	.cfi_restore 30
	.cfi_restore 29
	.cfi_restore 28
	.cfi_restore 27
	.cfi_restore 26
	.cfi_restore 25
	.cfi_restore 24
	.cfi_restore 23
	blr
.LVL961:
.L691:
.LCFI161:
	.cfi_restore_state
.LBB4785:
	.loc 4 2346 0 discriminator 4
	lwz 3,0(28)
	bl _Z10Mem_Free16Pv
.LBB4773:
.LBB4774:
	.loc 13 202 0 discriminator 4
	lis 9,_ZN6idMath8INFINITYE@ha
	lfs 0,_ZN6idMath8INFINITYE@l(9)
.LBE4774:
.LBE4773:
	.loc 4 2347 0 discriminator 4
	li 0,0
	stw 0,0(28)
.LVL962:
.LBB4776:
.LBB4775:
	.loc 13 203 0 discriminator 4
	fneg 13,0
	.loc 13 202 0 discriminator 4
	stfs 0,8(30)
	stfs 0,4(30)
	stfs 0,0(30)
.LVL963:
	.loc 13 203 0 discriminator 4
	stfs 13,20(30)
	stfs 13,16(30)
	stfs 13,12(30)
.LBE4775:
.LBE4776:
.LBE4785:
	.loc 4 2385 0 discriminator 4
	lwz 0,84(1)
	lwz 23,44(1)
	mtlr 0
	lwz 24,48(1)
	lwz 25,52(1)
	lwz 26,56(1)
	lwz 27,60(1)
.LVL964:
	lwz 28,64(1)
.LVL965:
	lwz 29,68(1)
	lwz 30,72(1)
.LVL966:
	lwz 31,76(1)
.LVL967:
	addi 1,1,80
	.cfi_remember_state
	.cfi_restore 23
	.cfi_restore 24
	.cfi_restore 25
	.cfi_restore 26
	.cfi_restore 27
	.cfi_restore 28
	.cfi_restore 29
	.cfi_restore 30
	.cfi_restore 31
.LCFI162:
	.cfi_def_cfa_offset 0
	blr
.LVL968:
.L694:
.LCFI163:
	.cfi_restore_state
.LBB4786:
.LBB4777:
.LBB4778:
	.loc 9 452 0
	lfs 9,20(25)
	lfs 12,12(31)
	lfs 10,24(25)
	lfs 13,16(31)
	fadds 12,9,12
	lfs 11,16(25)
	lfs 0,8(31)
	fadds 13,10,13
.LVL969:
.LBE4778:
.LBE4777:
.LBB4780:
.LBB4781:
	.loc 14 105 0
	stfs 12,28(29)
.LBE4781:
.LBE4780:
.LBB4783:
.LBB4779:
	.loc 9 452 0
	fadds 0,11,0
.LBE4779:
.LBE4783:
.LBB4784:
.LBB4782:
	.loc 14 106 0
	stfs 13,44(29)
	.loc 14 104 0
	stfs 0,12(29)
.LVL970:
	b .L695
.LBE4782:
.LBE4784:
.LBE4786:
	.cfi_endproc
.LFE2895:
	.size	_ZNK14idDeclModelDef11SetupJointsEPiPP10idJointMatR8idBoundsb, .-_ZNK14idDeclModelDef11SetupJointsEPiPP10idJointMatR8idBoundsb
	.align 2
	.globl _ZNK14idDeclModelDef7HasAnimEPKc
	.type	_ZNK14idDeclModelDef7HasAnimEPKc, @function
_ZNK14idDeclModelDef7HasAnimEPKc:
.LFB2898:
	.loc 4 2796 0
	.cfi_startproc
.LVL971:
	mflr 0
	stwu 1,-24(1)
.LCFI164:
	.cfi_def_cfa_offset 24
	.cfi_register 65, 0
	stw 29,12(1)
	mr 29,4
	.cfi_offset 29, -12
	stw 30,16(1)
	mr 30,3
	.cfi_offset 30, -8
	stw 0,28(1)
	stw 31,20(1)
.LBB4787:
	.loc 4 2800 0
	lwz 0,136(3)
	.cfi_offset 31, -4
	.cfi_offset 65, 4
	.loc 4 2806 0
	li 3,0
.LVL972:
	.loc 4 2800 0
	cmpwi 7,0,0
	ble- 7,.L699
	li 31,0
	b .L700
.LVL973:
.L705:
	lwz 0,136(30)
	cmpw 7,0,31
	ble- 7,.L704
.LVL974:
.L700:
	.loc 4 2801 0
	lwz 9,148(30)
	slwi 0,31,2
	mr 4,29
	.loc 4 2800 0
	addi 31,31,1
.LVL975:
.LBB4788:
.LBB4789:
	.loc 4 5042 0
	lwzx 9,9,0
.LBE4789:
.LBE4788:
	.loc 4 2801 0
	lwz 3,24(9)
	bl _ZN5idStr3CmpEPKcS1_
.LVL976:
	cmpwi 7,3,0
	bne+ 7,.L705
	.loc 4 2802 0
	li 3,1
.LVL977:
.L699:
.LBE4787:
	.loc 4 2807 0
	lwz 0,28(1)
	lwz 29,12(1)
.LVL978:
	mtlr 0
	lwz 30,16(1)
.LVL979:
	lwz 31,20(1)
	addi 1,1,24
	.cfi_remember_state
.LCFI165:
	.cfi_def_cfa_offset 0
	.cfi_restore 31
	.cfi_restore 30
	.cfi_restore 29
	blr
.LVL980:
.L704:
.LCFI166:
	.cfi_restore_state
	lwz 0,28(1)
.LBB4790:
	.loc 4 2806 0
	li 3,0
.LBE4790:
	.loc 4 2807 0
	lwz 29,12(1)
.LVL981:
	mtlr 0
	lwz 30,16(1)
.LVL982:
	lwz 31,20(1)
.LVL983:
	addi 1,1,24
	.cfi_restore 29
	.cfi_restore 30
	.cfi_restore 31
.LCFI167:
	.cfi_def_cfa_offset 0
	blr
	.cfi_endproc
.LFE2898:
	.size	_ZNK14idDeclModelDef7HasAnimEPKc, .-_ZNK14idDeclModelDef7HasAnimEPKc
	.align 2
	.globl _ZNK14idDeclModelDef8NumAnimsEv
	.type	_ZNK14idDeclModelDef8NumAnimsEv, @function
_ZNK14idDeclModelDef8NumAnimsEv:
.LFB2899:
	.loc 4 2814 0
	.cfi_startproc
.LVL984:
	.loc 4 2815 0
	lwz 3,136(3)
.LVL985:
	.loc 4 2816 0
	addi 3,3,1
	blr
	.cfi_endproc
.LFE2899:
	.size	_ZNK14idDeclModelDef8NumAnimsEv, .-_ZNK14idDeclModelDef8NumAnimsEv
	.align 2
	.globl _ZNK14idDeclModelDef15GetSpecificAnimEPKc
	.type	_ZNK14idDeclModelDef15GetSpecificAnimEPKc, @function
_ZNK14idDeclModelDef15GetSpecificAnimEPKc:
.LFB2900:
	.loc 4 2825 0
	.cfi_startproc
.LVL986:
	mflr 0
	stwu 1,-24(1)
.LCFI168:
	.cfi_def_cfa_offset 24
	.cfi_register 65, 0
	stw 29,12(1)
	mr 29,4
	.cfi_offset 29, -12
	stw 30,16(1)
	mr 30,3
	.cfi_offset 30, -8
	stw 0,28(1)
	stw 31,20(1)
.LBB4791:
	.loc 4 2829 0
	lwz 0,136(3)
	.cfi_offset 31, -4
	.cfi_offset 65, 4
	.loc 4 2836 0
	li 3,0
.LVL987:
	.loc 4 2829 0
	cmpwi 7,0,0
	ble- 7,.L708
	li 31,0
	b .L710
.LVL988:
.L709:
	lwz 0,136(30)
	addi 31,31,1
.LVL989:
	cmpw 7,0,31
	ble- 7,.L713
.LVL990:
.L710:
	.loc 4 2830 0
	lwz 9,148(30)
	slwi 0,31,2
	mr 4,29
.LBB4792:
.LBB4793:
	.loc 4 5042 0
	lwzx 9,9,0
.LBE4793:
.LBE4792:
	.loc 4 2830 0
	lwz 3,56(9)
	bl _ZN5idStr3CmpEPKcS1_
.LVL991:
	cmpwi 7,3,0
	bne+ 7,.L709
	.loc 4 2831 0
	addi 3,31,1
.LVL992:
.L708:
.LBE4791:
	.loc 4 2837 0
	lwz 0,28(1)
	lwz 29,12(1)
.LVL993:
	mtlr 0
	lwz 30,16(1)
.LVL994:
	lwz 31,20(1)
	addi 1,1,24
	.cfi_remember_state
.LCFI169:
	.cfi_def_cfa_offset 0
	.cfi_restore 31
	.cfi_restore 30
	.cfi_restore 29
	blr
.LVL995:
.L713:
.LCFI170:
	.cfi_restore_state
	lwz 0,28(1)
.LBB4794:
	.loc 4 2836 0
	li 3,0
.LBE4794:
	.loc 4 2837 0
	lwz 29,12(1)
.LVL996:
	mtlr 0
	lwz 30,16(1)
.LVL997:
	lwz 31,20(1)
.LVL998:
	addi 1,1,24
	.cfi_restore 29
	.cfi_restore 30
	.cfi_restore 31
.LCFI171:
	.cfi_def_cfa_offset 0
	blr
	.cfi_endproc
.LFE2900:
	.size	_ZNK14idDeclModelDef15GetSpecificAnimEPKc, .-_ZNK14idDeclModelDef15GetSpecificAnimEPKc
	.align 2
	.globl _ZNK14idDeclModelDef7GetAnimEi
	.type	_ZNK14idDeclModelDef7GetAnimEi, @function
_ZNK14idDeclModelDef7GetAnimEi:
.LFB2901:
	.loc 4 2844 0
	.cfi_startproc
.LVL999:
	.loc 4 2845 0
	cmpwi 0,4,0
	.loc 4 2846 0
	li 0,0
	.loc 4 2845 0
	ble- 0,.L715
	.loc 4 2845 0 is_stmt 0 discriminator 2
	lwz 9,136(3)
	cmpw 7,4,9
	ble- 7,.L716
.L715:
	.loc 4 2850 0 is_stmt 1
	mr 3,0
.LVL1000:
	blr
.LVL1001:
.L716:
	.loc 4 2849 0
	lwz 9,148(3)
.LBB4795:
.LBB4796:
	.loc 8 573 0
	addi 4,4,-1
.LVL1002:
.LBE4796:
.LBE4795:
	.loc 4 2849 0
	slwi 4,4,2
.LVL1003:
	lwzx 0,9,4
	.loc 4 2850 0
	mr 3,0
.LVL1004:
	blr
	.cfi_endproc
.LFE2901:
	.size	_ZNK14idDeclModelDef7GetAnimEi, .-_ZNK14idDeclModelDef7GetAnimEi
	.align 2
	.globl _ZNK14idDeclModelDef7GetAnimEPKc
	.type	_ZNK14idDeclModelDef7GetAnimEPKc, @function
_ZNK14idDeclModelDef7GetAnimEPKc:
.LFB2902:
	.loc 4 2857 0
	.cfi_startproc
.LVL1005:
	stwu 1,-288(1)
.LCFI172:
	.cfi_def_cfa_offset 288
	mflr 0
	stw 29,276(1)
	mr 29,3
	.cfi_offset 29, -12
	.cfi_register 65, 0
.LBB4797:
	.loc 4 2865 0
	mr 3,4
.LVL1006:
.LBE4797:
	.loc 4 2857 0
	stw 27,268(1)
	stw 0,292(1)
	mr 27,4
	.cfi_offset 65, 4
	.cfi_offset 27, -20
	stw 28,272(1)
	stw 30,280(1)
	stw 31,284(1)
.LBB4808:
	.loc 4 2865 0
	.cfi_offset 31, -4
	.cfi_offset 30, -8
	.cfi_offset 28, -16
	bl strlen
.LVL1007:
	.loc 4 2866 0
	cmpwi 0,3,0
	beq- 0,.L722
.LVL1008:
	.loc 4 2866 0 is_stmt 0 discriminator 1
	add 3,27,3
.LVL1009:
	lbz 9,-1(3)
.LBB4798:
.LBB4799:
	.loc 7 1046 0 is_stmt 1 discriminator 1
	addi 0,9,-48
.LBE4799:
.LBE4798:
	.loc 4 2866 0 discriminator 1
	cmplwi 7,0,9
	ble- 7,.L729
.L722:
.LVL1010:
	.loc 4 2873 0 discriminator 1
	lwz 0,136(29)
	li 30,0
	.loc 4 2883 0 discriminator 1
	li 3,0
	.loc 4 2873 0 discriminator 1
	li 31,0
	cmpwi 7,0,0
	.loc 4 2875 0 discriminator 1
	addi 28,1,8
	.loc 4 2873 0 discriminator 1
	ble- 7,.L721
.LVL1011:
.L727:
	.loc 4 2874 0
	lwz 9,148(29)
	slwi 0,31,2
	mr 4,27
.LBB4800:
.LBB4801:
	.loc 4 5042 0
	lwzx 9,9,0
.LBE4801:
.LBE4800:
	.loc 4 2874 0
	lwz 3,24(9)
	bl _ZN5idStr3CmpEPKcS1_
.LVL1012:
	.loc 4 2875 0
	slwi 0,30,2
	.loc 4 2874 0
	cmpwi 7,3,0
	.loc 4 2875 0
	mr 9,28
	.loc 4 2874 0
	bne- 7,.L723
	.loc 4 2875 0
	addi 30,30,1
.LVL1013:
	stwx 31,28,0
	.loc 4 2876 0
	cmpwi 7,30,63
	bgt- 7,.L724
.LVL1014:
.L723:
	.loc 4 2873 0
	lwz 0,136(29)
	addi 31,31,1
.LVL1015:
	cmpw 7,0,31
	bgt+ 7,.L727
	.loc 4 2882 0
	cmpwi 7,30,0
	.loc 4 2883 0
	li 3,0
	.loc 4 2882 0
	bne- 7,.L730
.LVL1016:
.L721:
.LBE4808:
	.loc 4 2890 0
	lwz 0,292(1)
	lwz 27,268(1)
.LVL1017:
	mtlr 0
	lwz 28,272(1)
	lwz 29,276(1)
.LVL1018:
	lwz 30,280(1)
	lwz 31,284(1)
	addi 1,1,288
	.cfi_remember_state
.LCFI173:
	.cfi_def_cfa_offset 0
	.cfi_restore 31
	.cfi_restore 30
	.cfi_restore 29
	.cfi_restore 28
	.cfi_restore 27
	blr
.LVL1019:
.L729:
.LCFI174:
	.cfi_restore_state
	.loc 4 2890 0 is_stmt 0 discriminator 4
	lwz 0,292(1)
.LBB4809:
	.loc 4 2868 0 is_stmt 1 discriminator 4
	mr 3,29
.LBE4809:
	.loc 4 2890 0 discriminator 4
	lwz 28,272(1)
.LBB4810:
	.loc 4 2868 0 discriminator 4
	mr 4,27
.LBE4810:
	.loc 4 2890 0 discriminator 4
	lwz 29,276(1)
.LVL1020:
	mtlr 0
	lwz 27,268(1)
.LVL1021:
	lwz 30,280(1)
	lwz 31,284(1)
	addi 1,1,288
	.cfi_remember_state
.LCFI175:
	.cfi_def_cfa_offset 0
	.cfi_restore 31
	.cfi_restore 30
	.cfi_restore 29
	.cfi_restore 28
	.cfi_restore 27
.LBB4811:
	.loc 4 2868 0 discriminator 4
	b _ZNK14idDeclModelDef15GetSpecificAnimEPKc
.LVL1022:
.L730:
.LCFI176:
	.cfi_restore_state
	addi 9,1,8
.LVL1023:
.L724:
.LBB4802:
.LBB4803:
.LBB4804:
.LBB4805:
	.loc 11 71 0
	lis 11,gameLocal@ha
	lis 10,0x1
	la 11,gameLocal@l(11)
	ori 10,10,3533
	addis 11,11,0x1
	lwz 0,-32064(11)
	mullw 10,10,0
	addi 10,10,1
	.loc 11 72 0
	rlwinm 0,10,0,17,31
	.loc 11 71 0
	stw 10,-32064(11)
.LBE4805:
.LBE4804:
	.loc 11 79 0
	divw 8,0,30
.LBE4803:
.LBE4802:
.LBE4811:
	.loc 4 2890 0
	lwz 27,268(1)
.LVL1024:
	lwz 28,272(1)
	lwz 29,276(1)
.LVL1025:
	lwz 31,284(1)
.LBB4812:
.LBB4807:
.LBB4806:
	.loc 11 79 0
	mullw 30,8,30
.LVL1026:
	subf 0,30,0
.LBE4806:
.LBE4807:
.LBE4812:
	.loc 4 2890 0
	lwz 30,280(1)
.LBB4813:
	.loc 4 2889 0
	slwi 0,0,2
	lwzx 3,9,0
.LBE4813:
	.loc 4 2890 0
	lwz 0,292(1)
.LBB4814:
	.loc 4 2889 0
	addi 3,3,1
.LBE4814:
	.loc 4 2890 0
	addi 1,1,288
	.cfi_restore 27
	.cfi_restore 28
	.cfi_restore 29
	.cfi_restore 30
	.cfi_restore 31
.LCFI177:
	.cfi_def_cfa_offset 0
	mtlr 0
	blr
	.cfi_endproc
.LFE2902:
	.size	_ZNK14idDeclModelDef7GetAnimEPKc, .-_ZNK14idDeclModelDef7GetAnimEPKc
	.align 2
	.globl _ZNK14idDeclModelDef7GetSkinEv
	.type	_ZNK14idDeclModelDef7GetSkinEv, @function
_ZNK14idDeclModelDef7GetSkinEv:
.LFB2903:
	.loc 4 2897 0
	.cfi_startproc
.LVL1027:
	.loc 4 2899 0
	lwz 3,152(3)
.LVL1028:
	blr
	.cfi_endproc
.LFE2903:
	.size	_ZNK14idDeclModelDef7GetSkinEv, .-_ZNK14idDeclModelDef7GetSkinEv
	.align 2
	.globl _ZNK14idDeclModelDef12GetModelNameEv
	.type	_ZNK14idDeclModelDef12GetModelNameEv, @function
_ZNK14idDeclModelDef12GetModelNameEv:
.LFB2904:
	.loc 4 2906 0
	.cfi_startproc
.LVL1029:
	mflr 0
	stwu 1,-8(1)
.LCFI178:
	.cfi_def_cfa_offset 8
	.cfi_register 65, 0
	stw 0,12(1)
	.loc 4 2907 0
	lwz 3,132(3)
.LVL1030:
	cmpwi 7,3,0
	beq- 7,.L734
	.cfi_offset 65, 4
	.loc 4 2908 0
	lwz 9,0(3)
	lwz 0,60(9)
	mtctr 0
	bctrl
	.loc 4 2912 0
	lwz 0,12(1)
	addi 1,1,8
	.cfi_remember_state
.LCFI179:
	.cfi_def_cfa_offset 0
	mtlr 0
	blr
.L734:
.LCFI180:
	.cfi_restore_state
	lwz 0,12(1)
	.loc 4 2910 0
	lis 3,.LC1@ha
	la 3,.LC1@l(3)
	.loc 4 2912 0
	mtlr 0
	addi 1,1,8
.LCFI181:
	.cfi_def_cfa_offset 0
	blr
	.cfi_endproc
.LFE2904:
	.size	_ZNK14idDeclModelDef12GetModelNameEv, .-_ZNK14idDeclModelDef12GetModelNameEv
	.align 2
	.globl _ZNK14idDeclModelDef6JointsEv
	.type	_ZNK14idDeclModelDef6JointsEv, @function
_ZNK14idDeclModelDef6JointsEv:
.LFB2905:
	.loc 4 2919 0
	.cfi_startproc
.LVL1031:
	.loc 4 2921 0
	addi 3,3,20
.LVL1032:
	blr
	.cfi_endproc
.LFE2905:
	.size	_ZNK14idDeclModelDef6JointsEv, .-_ZNK14idDeclModelDef6JointsEv
	.align 2
	.globl _ZNK14idDeclModelDef12JointParentsEv
	.type	_ZNK14idDeclModelDef12JointParentsEv, @function
_ZNK14idDeclModelDef12JointParentsEv:
.LFB2906:
	.loc 4 2928 0
	.cfi_startproc
.LVL1033:
	.loc 4 2930 0
	lwz 3,48(3)
.LVL1034:
	blr
	.cfi_endproc
.LFE2906:
	.size	_ZNK14idDeclModelDef12JointParentsEv, .-_ZNK14idDeclModelDef12JointParentsEv
	.align 2
	.globl _ZNK14idDeclModelDef9NumJointsEv
	.type	_ZNK14idDeclModelDef9NumJointsEv, @function
_ZNK14idDeclModelDef9NumJointsEv:
.LFB2907:
	.loc 4 2937 0
	.cfi_startproc
.LVL1035:
	.loc 4 2939 0
	lwz 3,20(3)
.LVL1036:
	blr
	.cfi_endproc
.LFE2907:
	.size	_ZNK14idDeclModelDef9NumJointsEv, .-_ZNK14idDeclModelDef9NumJointsEv
	.align 2
	.globl _ZNK14idDeclModelDef8GetJointEi
	.type	_ZNK14idDeclModelDef8GetJointEi, @function
_ZNK14idDeclModelDef8GetJointEi:
.LFB2908:
	.loc 4 2946 0
	.cfi_startproc
.LVL1037:
	stwu 1,-16(1)
.LCFI182:
	.cfi_def_cfa_offset 16
	mflr 0
	stw 30,8(1)
	.loc 4 2947 0
	mr. 30,4
	.cfi_offset 30, -8
	.cfi_register 65, 0
	.loc 4 2946 0
	stw 31,12(1)
	mr 31,3
	.cfi_offset 31, -4
	stw 0,20(1)
	.loc 4 2947 0
	blt- 0,.L739
	.cfi_offset 65, 4
	.loc 4 2947 0 is_stmt 0 discriminator 2
	lwz 0,20(3)
	cmpw 7,30,0
	ble- 7,.L740
.L739:
	.loc 4 2948 0 is_stmt 1 discriminator 4
	lis 3,gameLocal@ha
.LVL1038:
	lis 4,.LC66@ha
.LVL1039:
	la 3,gameLocal@l(3)
	la 4,.LC66@l(4)
	crxor 6,6,6
	bl _ZNK11idGameLocal5ErrorEPKcz
.L740:
.LVL1040:
	.loc 4 2951 0
	lwz 0,20(1)
.LBB4815:
.LBB4816:
	.loc 8 573 0
	mulli 30,30,12
.LVL1041:
	lwz 3,32(31)
.LBE4816:
.LBE4815:
	.loc 4 2951 0
	mtlr 0
	lwz 31,12(1)
.LVL1042:
	add 3,3,30
	lwz 30,8(1)
	addi 1,1,16
.LCFI183:
	.cfi_def_cfa_offset 0
	.cfi_restore 31
	.cfi_restore 30
	blr
	.cfi_endproc
.LFE2908:
	.size	_ZNK14idDeclModelDef8GetJointEi, .-_ZNK14idDeclModelDef8GetJointEi
	.align 2
	.globl _ZNK14idDeclModelDef12GetJointNameEi
	.type	_ZNK14idDeclModelDef12GetJointNameEi, @function
_ZNK14idDeclModelDef12GetJointNameEi:
.LFB2909:
	.loc 4 2958 0
	.cfi_startproc
.LVL1043:
	mflr 0
	stwu 1,-16(1)
.LCFI184:
	.cfi_def_cfa_offset 16
	.cfi_register 65, 0
	stw 30,8(1)
	mr 30,3
	.cfi_offset 30, -8
	stw 31,12(1)
	mr 31,4
	.cfi_offset 31, -4
	stw 0,20(1)
.LBB4817:
	.loc 4 2961 0
	lwz 9,132(3)
	.loc 4 2962 0
	li 3,0
.LVL1044:
	.loc 4 2961 0
	cmpwi 7,9,0
	beq- 7,.L742
	.cfi_offset 65, 4
	.loc 4 2965 0
	cmpwi 7,4,0
	blt- 7,.L743
	.loc 4 2965 0 is_stmt 0 discriminator 2
	lwz 0,20(30)
	cmpw 7,4,0
	bgt- 7,.L743
.LVL1045:
.L744:
	.loc 4 2969 0 is_stmt 1
	lwz 11,0(9)
	mr 3,9
	.loc 4 5042 0
	mulli 31,31,36
.LVL1046:
	.loc 4 2969 0
	lwz 0,144(11)
	mtctr 0
	bctrl
.LVL1047:
	.loc 4 5042 0
	add 31,3,31
	lwz 3,4(31)
.LVL1048:
.L742:
.LBE4817:
	.loc 4 2971 0
	lwz 0,20(1)
	lwz 30,8(1)
.LVL1049:
	mtlr 0
	lwz 31,12(1)
	addi 1,1,16
	.cfi_remember_state
.LCFI185:
	.cfi_def_cfa_offset 0
	.cfi_restore 31
	.cfi_restore 30
	blr
.LVL1050:
.L743:
.LCFI186:
	.cfi_restore_state
.LBB4818:
	.loc 4 2966 0 discriminator 4
	lis 3,gameLocal@ha
	lis 4,.LC67@ha
.LVL1051:
	la 3,gameLocal@l(3)
	la 4,.LC67@l(4)
	crxor 6,6,6
	bl _ZNK11idGameLocal5ErrorEPKcz
	lwz 9,132(30)
	b .L744
.LBE4818:
	.cfi_endproc
.LFE2909:
	.size	_ZNK14idDeclModelDef12GetJointNameEi, .-_ZNK14idDeclModelDef12GetJointNameEi
	.align 2
	.globl _ZNK6idAnim17CallFrameCommandsEP8idEntityii
	.type	_ZNK6idAnim17CallFrameCommandsEP8idEntityii, @function
_ZNK6idAnim17CallFrameCommandsEP8idEntityii:
.LFB2832:
	.loc 4 668 0
	.cfi_startproc
.LVL1052:
	mflr 0
	stwu 1,-96(1)
.LCFI187:
	.cfi_def_cfa_offset 96
	.cfi_register 65, 0
	stw 23,60(1)
	mr 23,4
	.cfi_offset 23, -36
	stw 26,72(1)
	stw 27,76(1)
	mr 27,6
	.cfi_offset 27, -20
	.cfi_offset 26, -24
	stw 28,80(1)
	mr 28,3
	.cfi_offset 28, -16
	stw 31,92(1)
	mr 31,5
	.cfi_offset 31, -4
	stw 0,100(1)
	stw 14,24(1)
	stw 15,28(1)
	stw 16,32(1)
	stw 17,36(1)
	stw 18,40(1)
	stw 19,44(1)
	stw 20,48(1)
	stw 21,52(1)
	stw 22,56(1)
	stw 24,64(1)
	stw 25,68(1)
	stw 29,84(1)
	stw 30,88(1)
.LBB4819:
	.loc 4 674 0
	lwz 3,4(3)
.LVL1053:
	.cfi_offset 30, -8
	.cfi_offset 29, -12
	.cfi_offset 25, -28
	.cfi_offset 24, -32
	.cfi_offset 22, -40
	.cfi_offset 21, -44
	.cfi_offset 20, -48
	.cfi_offset 19, -52
	.cfi_offset 18, -56
	.cfi_offset 17, -60
	.cfi_offset 16, -64
	.cfi_offset 15, -68
	.cfi_offset 14, -72
	.cfi_offset 65, 4
	bl _ZNK9idMD5Anim9NumFramesEv
.LVL1054:
	.loc 4 677 0
	cmpw 7,31,27
	.loc 4 674 0
	mr 26,3
.LVL1055:
	.loc 4 677 0
	beq- 7,.L746
.LBB4820:
.LBB4821:
.LBB4822:
.LBB4823:
	.loc 4 939 0
	lis 16,.LC62@ha
	.loc 4 937 0
	lis 18,.LC81@ha
	.loc 4 931 0
	lis 17,.LC80@ha
	.loc 4 929 0
	lis 19,.LC79@ha
	.loc 4 924 0
	lis 20,EV_DisableLegIK@ha
	.loc 4 920 0
	lis 21,EV_EnableLegIK@ha
.LBE4823:
	.loc 4 687 0
	lis 22,.L792@ha
.LBB4832:
	.loc 4 939 0
	la 16,.LC62@l(16)
	.loc 4 937 0
	la 18,.LC81@l(18)
	.loc 4 931 0
	la 17,.LC80@l(17)
	.loc 4 929 0
	la 19,.LC79@l(19)
	.loc 4 924 0
	la 20,EV_DisableLegIK@l(20)
	.loc 4 920 0
	la 21,EV_EnableLegIK@l(21)
	b .L807
.LVL1056:
.L749:
.LBE4832:
.LBE4822:
.LBE4821:
.LBE4820:
	.loc 4 677 0
	cmpw 7,31,27
	beq- 7,.L746
.LVL1057:
.L807:
.LBB4852:
	.loc 4 678 0
	addi 31,31,1
.LVL1058:
	.loc 4 679 0
	cmpw 7,26,31
	slwi 0,31,3
	bgt- 7,.L748
	li 0,0
	.loc 4 680 0
	li 31,0
.LVL1059:
.L748:
.LBB4846:
.LBB4847:
	.loc 8 573 0
	lwz 9,96(28)
	add 11,9,0
.LBE4847:
.LBE4846:
	.loc 4 684 0
	lwzx 29,9,0
	.loc 4 683 0
	lwz 30,4(11)
.LVL1060:
	.loc 4 684 0
	add 29,30,29
.LVL1061:
	.loc 4 685 0
	cmpw 7,30,29
	bge+ 7,.L749
	mulli 25,30,12
.LVL1062:
.L806:
.LBB4848:
.LBB4837:
.LBB4838:
	.loc 8 573 0
	lwz 24,112(28)
.LBE4838:
.LBE4837:
	.loc 4 686 0
	addi 30,30,1
.LVL1063:
.LBB4840:
	.loc 4 687 0
	lwzx 0,24,25
.LBE4840:
.LBB4841:
.LBB4839:
	.loc 8 573 0
	add 24,24,25
.LBE4839:
.LBE4841:
.LBB4842:
	.loc 4 687 0
	cmplwi 7,0,40
	bgt- 7,.L750
	la 9,.L792@l(22)
	slwi 0,0,2
	lwzx 0,9,0
	add 9,0,9
	mtctr 9
	bctr
	.section	.rodata
	.align 2
	.align 2
.L792:
	.long .L751-.L792
	.long .L752-.L792
	.long .L753-.L792
	.long .L754-.L792
	.long .L755-.L792
	.long .L756-.L792
	.long .L757-.L792
	.long .L758-.L792
	.long .L759-.L792
	.long .L760-.L792
	.long .L761-.L792
	.long .L762-.L792
	.long .L763-.L792
	.long .L764-.L792
	.long .L765-.L792
	.long .L766-.L792
	.long .L767-.L792
	.long .L768-.L792
	.long .L769-.L792
	.long .L770-.L792
	.long .L771-.L792
	.long .L772-.L792
	.long .L773-.L792
	.long .L774-.L792
	.long .L775-.L792
	.long .L776-.L792
	.long .L777-.L792
	.long .L778-.L792
	.long .L779-.L792
	.long .L780-.L792
	.long .L781-.L792
	.long .L782-.L792
	.long .L783-.L792
	.long .L784-.L792
	.long .L785-.L792
	.long .L786-.L792
	.long .L787-.L792
	.long .L788-.L792
	.long .L789-.L792
	.long .L790-.L792
	.long .L791-.L792
	.section	".text"
.L763:
.LBB4833:
	.loc 4 801 0
	lwz 9,0(23)
	mr 3,23
	lwz 0,96(9)
	mtctr 0
	bctrl
	cmpwi 7,3,0
	beq- 7,.L750
	.loc 4 802 0
	lwz 4,8(24)
	cmpwi 7,4,0
	bne+ 7,.L802
	.loc 4 5042 0
	lwz 9,4(24)
	.loc 4 803 0
	mr 3,23
	li 5,1
	li 6,0
	lwz 4,4(9)
	li 7,0
	li 8,0
	bl _ZN8idEntity10StartSoundEPKciibPi
	cmpwi 7,3,0
	bne+ 7,.L750
.LVL1064:
	.loc 4 5042 0
	lwz 9,4(24)
	.loc 4 805 0
	lis 3,gameLocal@ha
	lis 4,.LC77@ha
	lwz 5,72(23)
	lwz 6,56(28)
	la 3,gameLocal@l(3)
	lwz 8,4(9)
	la 4,.LC77@l(4)
	addi 7,31,1
	crxor 6,6,6
	bl _ZNK11idGameLocal7WarningEPKcz
.LVL1065:
.L750:
.LBE4833:
.LBE4842:
.LBE4848:
	.loc 4 685 0 discriminator 1
	cmpw 7,30,29
.LBB4849:
.LBB4843:
.LBB4834:
	.loc 4 939 0 discriminator 1
	addi 25,25,12
.LBE4834:
.LBE4843:
.LBE4849:
	.loc 4 685 0 discriminator 1
	bne- 7,.L806
.L814:
.LBE4852:
	.loc 4 677 0
	cmpw 7,31,27
	bne+ 7,.L807
.LVL1066:
.L746:
.LBE4819:
	.loc 4 946 0
	lwz 0,100(1)
	lwz 14,24(1)
	mtlr 0
	lwz 15,28(1)
	lwz 16,32(1)
	lwz 17,36(1)
	lwz 18,40(1)
	lwz 19,44(1)
	lwz 20,48(1)
	lwz 21,52(1)
	lwz 22,56(1)
	lwz 23,60(1)
.LVL1067:
	lwz 24,64(1)
	lwz 25,68(1)
	lwz 26,72(1)
.LVL1068:
	lwz 27,76(1)
.LVL1069:
	lwz 28,80(1)
.LVL1070:
	lwz 29,84(1)
	lwz 30,88(1)
	lwz 31,92(1)
.LVL1071:
	addi 1,1,96
	.cfi_remember_state
.LCFI188:
	.cfi_def_cfa_offset 0
	.cfi_restore 31
	.cfi_restore 30
	.cfi_restore 29
	.cfi_restore 28
	.cfi_restore 27
	.cfi_restore 26
	.cfi_restore 25
	.cfi_restore 24
	.cfi_restore 23
	.cfi_restore 22
	.cfi_restore 21
	.cfi_restore 20
	.cfi_restore 19
	.cfi_restore 18
	.cfi_restore 17
	.cfi_restore 16
	.cfi_restore 15
	.cfi_restore 14
	blr
.LVL1072:
.L790:
.LCFI189:
	.cfi_restore_state
.LBB4854:
.LBB4853:
.LBB4850:
.LBB4844:
.LBB4835:
	.loc 4 928 0
	lwz 9,4(24)
	cmpwi 7,9,0
	beq- 7,.L804
	.loc 4 929 0
	lis 11,cmdSystem@ha
	lwz 4,4(9)
	lwz 15,cmdSystem@l(11)
	mr 3,19
	lwz 9,0(15)
.L811:
	.loc 4 937 0
	lwz 24,36(9)
	crxor 6,6,6
	bl _Z2vaPKcz
	mr 5,3
	li 4,0
	mr 3,15
	mtctr 24
	bctrl
	b .L750
.L789:
	.loc 4 924 0
	lwz 0,8(24)
.LVL1073:
	mr 3,23
	mr 4,20
.LVL1074:
.L812:
	li 9,100
	addi 5,1,8
	stw 9,8(1)
	stw 0,12(1)
	bl _ZN7idClass12ProcessEventEPK10idEventDef10idEventArg
	.loc 4 925 0
	b .L750
.L785:
	.loc 4 908 0
	lis 4,AI_DisableClip@ha
	mr 3,23
	la 4,AI_DisableClip@l(4)
	bl _ZN7idClass12ProcessEventEPK10idEventDef
	.loc 4 909 0
	b .L750
.L784:
	.loc 4 904 0
	lis 4,AI_EnableClip@ha
	mr 3,23
	la 4,AI_EnableClip@l(4)
	bl _ZN7idClass12ProcessEventEPK10idEventDef
	.loc 4 905 0
	b .L750
.L783:
	.loc 4 900 0
	lis 4,AI_JumpFrame@ha
	mr 3,23
	la 4,AI_JumpFrame@l(4)
	bl _ZN7idClass12ProcessEventEPK10idEventDef
	.loc 4 901 0
	b .L750
.L782:
	.loc 4 896 0
	lis 4,AI_EnableGravity@ha
	mr 3,23
	la 4,AI_EnableGravity@l(4)
	bl _ZN7idClass12ProcessEventEPK10idEventDef
	.loc 4 897 0
	b .L750
.L787:
	.loc 4 916 0
	lis 4,EV_DisableWalkIK@ha
	mr 3,23
	la 4,EV_DisableWalkIK@l(4)
	bl _ZN7idClass12ProcessEventEPK10idEventDef
	.loc 4 917 0
	b .L750
.L786:
	.loc 4 912 0
	lis 4,EV_EnableWalkIK@ha
	mr 3,23
	la 4,EV_EnableWalkIK@l(4)
	bl _ZN7idClass12ProcessEventEPK10idEventDef
	.loc 4 913 0
	b .L750
.L788:
	.loc 4 920 0
	lwz 0,8(24)
.LVL1075:
	mr 3,23
	mr 4,21
	b .L812
.LVL1076:
.L781:
	.loc 4 892 0
	lis 4,AI_DisableGravity@ha
	mr 3,23
	la 4,AI_DisableGravity@l(4)
	bl _ZN7idClass12ProcessEventEPK10idEventDef
	.loc 4 893 0
	b .L750
.L780:
	.loc 4 5042 0
	lwz 9,4(24)
	.loc 4 814 0
	li 4,0
	li 5,0
	mr 6,23
	lwz 3,4(9)
	li 7,1
	bl _ZN10idEntityFx7StartFxEPKcPK6idVec3PK6idMat3P8idEntityb
	.loc 4 815 0
	b .L750
.L779:
	.loc 4 888 0
	lis 4,AI_DisableEyeFocus@ha
	mr 3,23
	la 4,AI_DisableEyeFocus@l(4)
	bl _ZN7idClass12ProcessEventEPK10idEventDef
	.loc 4 889 0
	b .L750
.L778:
	.loc 4 884 0
	lis 4,AI_EnableEyeFocus@ha
	mr 3,23
	la 4,AI_EnableEyeFocus@l(4)
	bl _ZN7idClass12ProcessEventEPK10idEventDef
	.loc 4 885 0
	b .L750
.L777:
	.loc 4 880 0
	lis 4,EV_FootstepRight@ha
	mr 3,23
	la 4,EV_FootstepRight@l(4)
	bl _ZN7idClass12ProcessEventEPK10idEventDef
	.loc 4 881 0
	b .L750
.L776:
	.loc 4 876 0
	lis 4,EV_FootstepLeft@ha
	mr 3,23
	la 4,EV_FootstepLeft@l(4)
	bl _ZN7idClass12ProcessEventEPK10idEventDef
	.loc 4 877 0
	b .L750
.L775:
	.loc 4 872 0
	lis 4,EV_Footstep@ha
	mr 3,23
	la 4,EV_Footstep@l(4)
	bl _ZN7idClass12ProcessEventEPK10idEventDef
	.loc 4 873 0
	b .L750
.L774:
	.loc 4 868 0
	lwz 4,8(24)
	lwz 3,0(28)
	bl _ZNK14idDeclModelDef12GetJointNameEi
.LVL1077:
.LBB4824:
.LBB4825:
	.loc 4 5042 0
	lwz 9,4(24)
.LBE4825:
.LBE4824:
	.loc 4 868 0
	lis 4,AI_FireMissileAtTarget@ha
.LBB4827:
.LBB4826:
	.file 15 "d:/Data/Nintendo/DoomGX/src/game/anim/../gamesys/Class.h"
	.loc 15 67 0
	li 0,115
	.loc 4 5042 0
	lwz 9,4(9)
.LVL1078:
.LBE4826:
.LBE4827:
	.loc 4 868 0
	la 4,AI_FireMissileAtTarget@l(4)
	stw 3,12(1)
	addi 5,1,8
	mr 3,23
.LVL1079:
	addi 6,1,16
	stw 0,8(1)
	stw 0,16(1)
	stw 9,20(1)
	bl _ZN7idClass12ProcessEventEPK10idEventDef10idEventArgS3_
.LVL1080:
	.loc 4 869 0
	b .L750
.LVL1081:
.L773:
	.loc 4 5042 0
	lwz 9,4(24)
	.loc 4 864 0
	lis 4,AI_AttackMissile@ha
	mr 3,23
	la 4,AI_AttackMissile@l(4)
	.loc 4 5042 0
	lwz 0,4(9)
.LVL1082:
.L813:
	.loc 4 864 0
	li 9,115
	addi 5,1,8
	stw 9,8(1)
	.loc 4 939 0
	addi 25,25,12
	.loc 4 864 0
	stw 0,12(1)
	bl _ZN7idClass12ProcessEventEPK10idEventDef10idEventArg
.LBE4835:
.LBE4844:
.LBE4850:
	.loc 4 685 0
	cmpw 7,30,29
	beq+ 7,.L814
	b .L806
.L772:
.LBB4851:
.LBB4845:
.LBB4836:
	.loc 4 5042 0
	lwz 9,4(24)
	.loc 4 860 0
	lis 4,AI_CreateMissile@ha
	mr 3,23
	la 4,AI_CreateMissile@l(4)
	.loc 4 5042 0
	lwz 0,4(9)
.LVL1083:
	b .L813
.LVL1084:
.L771:
	lwz 9,4(24)
	.loc 4 856 0
	lis 4,AI_MuzzleFlash@ha
	mr 3,23
	la 4,AI_MuzzleFlash@l(4)
	.loc 4 5042 0
	lwz 0,4(9)
.LVL1085:
	b .L813
.LVL1086:
.L770:
	.loc 4 852 0
	lis 4,AI_EndAttack@ha
	mr 3,23
	la 4,AI_EndAttack@l(4)
	bl _ZN7idClass12ProcessEventEPK10idEventDef
	.loc 4 853 0
	b .L750
.L769:
	.loc 4 5042 0
	lwz 9,4(24)
	.loc 4 848 0
	lis 4,AI_BeginAttack@ha
	mr 3,23
	la 4,AI_BeginAttack@l(4)
	.loc 4 5042 0
	lwz 0,4(9)
.LVL1087:
	b .L813
.LVL1088:
.L768:
	lwz 9,4(24)
	.loc 4 844 0
	lis 4,AI_DirectDamage@ha
	mr 3,23
	la 4,AI_DirectDamage@l(4)
	.loc 4 5042 0
	lwz 0,4(9)
.LVL1089:
	b .L813
.LVL1090:
.L767:
	lwz 9,4(24)
	.loc 4 840 0
	lis 4,AI_AttackMelee@ha
	mr 3,23
	la 4,AI_AttackMelee@l(4)
	.loc 4 5042 0
	lwz 0,4(9)
.LVL1091:
	b .L813
.LVL1092:
.L766:
.LBB4828:
	lwz 9,4(24)
.LBE4828:
	.loc 4 836 0
	lis 4,AI_TriggerParticles@ha
	mr 3,23
	la 4,AI_TriggerParticles@l(4)
.LBB4829:
	.loc 4 5042 0
	lwz 0,4(9)
.LVL1093:
	b .L813
.LVL1094:
.L765:
	lwz 9,4(24)
	.loc 4 824 0
	lis 15,gameLocal@ha
	la 15,gameLocal@l(15)
	lwz 4,4(9)
	mr 3,15
	bl _ZNK11idGameLocal10FindEntityEPKc
.LVL1095:
	.loc 4 825 0
	mr. 14,3
	beq- 0,.L803
	.loc 4 826 0
	li 4,2
	bl _ZN8idEntity6SignalE11signalNum_t
.LVL1096:
	.loc 4 827 0
	lis 4,EV_Activate@ha
	li 0,101
	mr 3,14
	la 4,EV_Activate@l(4)
	addi 5,1,8
	stw 0,8(1)
	stw 23,12(1)
	bl _ZN7idClass12ProcessEventEPK10idEventDef10idEventArg
	.loc 4 828 0
	mr 3,14
	bl _ZN8idEntity11TriggerGuisEv
	b .L750
.LVL1097:
.L764:
.LBE4829:
	.loc 4 818 0
	lwz 4,8(24)
	mr 3,23
	bl _ZN8idEntity7SetSkinEPK10idDeclSkin
	.loc 4 819 0
	b .L750
.L757:
	.loc 4 735 0
	lwz 4,8(24)
	cmpwi 7,4,0
	beq- 7,.L815
	.loc 4 741 0
	mr 3,23
	li 5,3
	li 6,0
	li 7,0
	li 8,0
	bl _ZN8idEntity16StartSoundShaderEPK13idSoundShaderiibPi
	b .L750
.L756:
	.loc 4 724 0
	lwz 4,8(24)
	cmpwi 7,4,0
	beq- 7,.L816
	.loc 4 730 0
	mr 3,23
	li 5,2
	li 6,0
	li 7,0
	li 8,0
	bl _ZN8idEntity16StartSoundShaderEPK13idSoundShaderiibPi
	b .L750
.L755:
	.loc 4 713 0
	lwz 4,8(24)
	cmpwi 7,4,0
	beq- 7,.L817
.L802:
	.loc 4 808 0
	mr 3,23
	li 5,1
	li 6,0
	li 7,0
	li 8,0
	bl _ZN8idEntity16StartSoundShaderEPK13idSoundShaderiibPi
	b .L750
.L754:
	.loc 4 702 0
	lwz 4,8(24)
	cmpwi 7,4,0
	beq- 7,.L818
	.loc 4 708 0
	mr 3,23
	li 5,0
	li 6,0
	li 7,0
	li 8,0
	bl _ZN8idEntity16StartSoundShaderEPK13idSoundShaderiibPi
	b .L750
.L753:
.LBB4830:
	.loc 4 5042 0
	lwz 9,4(24)
	.loc 4 697 0
	lwz 3,4(9)
	bl _ZN10idEventDef9FindEventEPKc
	mr 4,3
.LVL1098:
	.loc 4 698 0
	mr 3,23
.LVL1099:
	bl _ZN7idClass12ProcessEventEPK10idEventDef
.LVL1100:
	.loc 4 699 0
	b .L750
.L751:
.LBE4830:
	.loc 4 689 0
	lwz 5,8(24)
	lis 3,gameLocal@ha
	la 3,gameLocal@l(3)
	mr 4,23
	bl _ZN11idGameLocal16CallFrameCommandEP8idEntityPK10function_t
	.loc 4 690 0
	b .L750
.L791:
	.loc 4 936 0
	lwz 9,4(24)
	cmpwi 7,9,0
	beq- 7,.L805
	.loc 4 937 0
	lis 11,cmdSystem@ha
	lwz 4,4(9)
	lwz 15,cmdSystem@l(11)
	mr 3,18
	lwz 9,0(15)
	b .L811
.L752:
	.loc 4 5042 0
	lwz 9,4(24)
	.loc 4 693 0
	lis 3,gameLocal@ha
	la 3,gameLocal@l(3)
	mr 4,23
	lwz 5,4(9)
	bl _ZN11idGameLocal22CallObjectFrameCommandEP8idEntityPKc
	.loc 4 694 0
	b .L750
.L761:
	.loc 4 790 0
	lwz 4,8(24)
	cmpwi 7,4,0
	beq- 7,.L819
	.loc 4 796 0
	mr 3,23
	li 5,7
	li 6,0
	li 7,0
	li 8,0
	bl _ZN8idEntity16StartSoundShaderEPK13idSoundShaderiibPi
	b .L750
.L760:
	.loc 4 768 0
	lwz 4,8(24)
	cmpwi 7,4,0
	beq- 7,.L820
	.loc 4 774 0
	mr 3,23
	li 5,6
	li 6,0
	li 7,0
	li 8,0
	bl _ZN8idEntity16StartSoundShaderEPK13idSoundShaderiibPi
	b .L750
.L759:
	.loc 4 757 0
	lwz 4,8(24)
	cmpwi 7,4,0
	beq- 7,.L821
	.loc 4 763 0
	mr 3,23
	li 5,5
	li 6,0
	li 7,0
	li 8,0
	bl _ZN8idEntity16StartSoundShaderEPK13idSoundShaderiibPi
	b .L750
.L758:
	.loc 4 746 0
	lwz 4,8(24)
	cmpwi 7,4,0
	beq- 7,.L822
	.loc 4 752 0
	mr 3,23
	li 5,4
	li 6,0
	li 7,0
	li 8,0
	bl _ZN8idEntity16StartSoundShaderEPK13idSoundShaderiibPi
	b .L750
.L762:
	.loc 4 779 0
	lwz 4,8(24)
	cmpwi 7,4,0
	beq- 7,.L823
	.loc 4 785 0
	mr 3,23
	li 5,0
	li 6,8
	li 7,0
	li 8,0
	bl _ZN8idEntity16StartSoundShaderEPK13idSoundShaderiibPi
	b .L750
.L821:
	.loc 4 5042 0
	lwz 9,4(24)
	.loc 4 758 0
	mr 3,23
	li 5,5
	li 6,0
	lwz 4,4(9)
	li 7,0
	li 8,0
	bl _ZN8idEntity10StartSoundEPKciibPi
	cmpwi 7,3,0
	bne+ 7,.L750
.LVL1101:
	.loc 4 5042 0
	lwz 9,4(24)
	.loc 4 760 0
	lis 3,gameLocal@ha
	lwz 5,72(23)
	lis 4,.LC73@ha
	lwz 6,56(28)
	la 3,gameLocal@l(3)
	lwz 8,4(9)
	la 4,.LC73@l(4)
	addi 7,31,1
	crxor 6,6,6
	bl _ZNK11idGameLocal7WarningEPKcz
	b .L750
.LVL1102:
.L823:
	.loc 4 5042 0
	lwz 9,4(24)
	.loc 4 780 0
	mr 3,23
	li 5,0
	li 6,8
	lwz 4,4(9)
	li 7,0
	li 8,0
	bl _ZN8idEntity10StartSoundEPKciibPi
	cmpwi 7,3,0
	bne+ 7,.L750
.LVL1103:
	.loc 4 5042 0
	lwz 9,4(24)
	.loc 4 782 0
	lis 3,gameLocal@ha
	lwz 5,72(23)
	lis 4,.LC75@ha
	lwz 6,56(28)
	la 3,gameLocal@l(3)
	lwz 8,4(9)
	la 4,.LC75@l(4)
	addi 7,31,1
	crxor 6,6,6
	bl _ZNK11idGameLocal7WarningEPKcz
	b .L750
.LVL1104:
.L815:
	.loc 4 5042 0
	lwz 9,4(24)
	.loc 4 736 0
	mr 3,23
	li 5,3
	li 6,0
	lwz 4,4(9)
	li 7,0
	li 8,0
	bl _ZN8idEntity10StartSoundEPKciibPi
	cmpwi 7,3,0
	bne+ 7,.L750
.LVL1105:
	.loc 4 5042 0
	lwz 9,4(24)
	.loc 4 738 0
	lis 3,gameLocal@ha
	lwz 5,72(23)
	lis 4,.LC71@ha
	lwz 6,56(28)
	la 3,gameLocal@l(3)
	lwz 8,4(9)
	la 4,.LC71@l(4)
	addi 7,31,1
	crxor 6,6,6
	bl _ZNK11idGameLocal7WarningEPKcz
	b .L750
.LVL1106:
.L819:
	.loc 4 5042 0
	lwz 9,4(24)
	.loc 4 791 0
	mr 3,23
	li 5,7
	li 6,0
	lwz 4,4(9)
	li 7,0
	li 8,0
	bl _ZN8idEntity10StartSoundEPKciibPi
	cmpwi 7,3,0
	bne+ 7,.L750
.LVL1107:
	.loc 4 5042 0
	lwz 9,4(24)
	.loc 4 793 0
	lis 3,gameLocal@ha
	lwz 5,72(23)
	lis 4,.LC76@ha
	lwz 6,56(28)
	la 3,gameLocal@l(3)
	lwz 8,4(9)
	la 4,.LC76@l(4)
	addi 7,31,1
	crxor 6,6,6
	bl _ZNK11idGameLocal7WarningEPKcz
	b .L750
.LVL1108:
.L816:
	.loc 4 5042 0
	lwz 9,4(24)
	.loc 4 725 0
	mr 3,23
	li 5,2
	li 6,0
	lwz 4,4(9)
	li 7,0
	li 8,0
	bl _ZN8idEntity10StartSoundEPKciibPi
	cmpwi 7,3,0
	bne+ 7,.L750
.LVL1109:
	.loc 4 5042 0
	lwz 9,4(24)
	.loc 4 727 0
	lis 3,gameLocal@ha
	lwz 5,72(23)
	lis 4,.LC70@ha
	lwz 6,56(28)
	la 3,gameLocal@l(3)
	lwz 8,4(9)
	la 4,.LC70@l(4)
	addi 7,31,1
	crxor 6,6,6
	bl _ZNK11idGameLocal7WarningEPKcz
	b .L750
.LVL1110:
.L817:
	.loc 4 5042 0
	lwz 9,4(24)
	.loc 4 714 0
	mr 3,23
	li 5,1
	li 6,0
	lwz 4,4(9)
	li 7,0
	li 8,0
	bl _ZN8idEntity10StartSoundEPKciibPi
	cmpwi 7,3,0
	bne+ 7,.L750
.LVL1111:
	.loc 4 5042 0
	lwz 9,4(24)
	.loc 4 716 0
	lis 3,gameLocal@ha
	lwz 5,72(23)
	lis 4,.LC69@ha
	lwz 6,56(28)
	la 3,gameLocal@l(3)
	lwz 8,4(9)
	la 4,.LC69@l(4)
	addi 7,31,1
	crxor 6,6,6
	bl _ZNK11idGameLocal7WarningEPKcz
	b .L750
.LVL1112:
.L818:
	.loc 4 5042 0
	lwz 9,4(24)
	.loc 4 703 0
	mr 3,23
	li 5,0
	li 6,0
	lwz 4,4(9)
	li 7,0
	li 8,0
	bl _ZN8idEntity10StartSoundEPKciibPi
	cmpwi 7,3,0
	bne+ 7,.L750
.LVL1113:
	.loc 4 5042 0
	lwz 9,4(24)
	.loc 4 705 0
	lis 3,gameLocal@ha
	lwz 5,72(23)
	lis 4,.LC68@ha
	lwz 6,56(28)
	la 3,gameLocal@l(3)
	lwz 8,4(9)
	la 4,.LC68@l(4)
	addi 7,31,1
	crxor 6,6,6
	bl _ZNK11idGameLocal7WarningEPKcz
	b .L750
.LVL1114:
.L805:
	.loc 4 939 0
	lis 9,cmdSystem@ha
	li 4,0
	lwz 3,cmdSystem@l(9)
	mr 5,16
	lwz 9,0(3)
	lwz 0,36(9)
	mtctr 0
	bctrl
	b .L750
.L804:
	.loc 4 931 0
	lis 9,cmdSystem@ha
	li 4,0
	lwz 3,cmdSystem@l(9)
	mr 5,17
	lwz 9,0(3)
	lwz 0,36(9)
	mtctr 0
	bctrl
	b .L750
.LVL1115:
.L803:
.LBB4831:
	.loc 4 5042 0
	lwz 9,4(24)
	.loc 4 831 0
	lis 4,.LC78@ha
	lwz 5,72(23)
	mr 3,15
.LVL1116:
	lwz 6,56(28)
	la 4,.LC78@l(4)
	lwz 8,4(9)
	addi 7,31,1
	crxor 6,6,6
	bl _ZNK11idGameLocal7WarningEPKcz
	b .L750
.LVL1117:
.L820:
.LBE4831:
	.loc 4 5042 0
	lwz 9,4(24)
	.loc 4 769 0
	mr 3,23
	li 5,6
	li 6,0
	lwz 4,4(9)
	li 7,0
	li 8,0
	bl _ZN8idEntity10StartSoundEPKciibPi
	cmpwi 7,3,0
	bne+ 7,.L750
.LVL1118:
	.loc 4 5042 0
	lwz 9,4(24)
	.loc 4 771 0
	lis 3,gameLocal@ha
	lwz 5,72(23)
	lis 4,.LC74@ha
	lwz 6,56(28)
	la 3,gameLocal@l(3)
	lwz 8,4(9)
	la 4,.LC74@l(4)
	addi 7,31,1
	crxor 6,6,6
	bl _ZNK11idGameLocal7WarningEPKcz
	b .L750
.LVL1119:
.L822:
	.loc 4 5042 0
	lwz 9,4(24)
	.loc 4 747 0
	mr 3,23
	li 5,4
	li 6,0
	lwz 4,4(9)
	li 7,0
	li 8,0
	bl _ZN8idEntity10StartSoundEPKciibPi
	cmpwi 7,3,0
	bne+ 7,.L750
.LVL1120:
	.loc 4 5042 0
	lwz 9,4(24)
	.loc 4 749 0
	lis 3,gameLocal@ha
	lwz 5,72(23)
	lis 4,.LC72@ha
	lwz 6,56(28)
	la 3,gameLocal@l(3)
	lwz 8,4(9)
	la 4,.LC72@l(4)
	addi 7,31,1
	crxor 6,6,6
	bl _ZNK11idGameLocal7WarningEPKcz
	b .L750
.LBE4836:
.LBE4845:
.LBE4851:
.LBE4853:
.LBE4854:
	.cfi_endproc
.LFE2832:
	.size	_ZNK6idAnim17CallFrameCommandsEP8idEntityii, .-_ZNK6idAnim17CallFrameCommandsEP8idEntityii
	.align 2
	.globl _ZNK11idAnimBlend17CallFrameCommandsEP8idEntityii
	.type	_ZNK11idAnimBlend17CallFrameCommandsEP8idEntityii, @function
_ZNK11idAnimBlend17CallFrameCommandsEP8idEntityii:
.LFB2872:
	.loc 4 1690 0
	.cfi_startproc
.LVL1121:
	mflr 0
	stwu 1,-88(1)
.LCFI190:
	.cfi_def_cfa_offset 88
	.cfi_register 65, 0
	stw 30,80(1)
	mr 30,4
	.cfi_offset 30, -8
	stw 31,84(1)
	mr 31,3
	.cfi_offset 31, -4
	stw 0,92(1)
	stw 26,64(1)
	stw 27,68(1)
	stw 28,72(1)
	stw 29,76(1)
.LBB4855:
	.loc 4 1697 0
	lbz 0,55(3)
	.cfi_offset 29, -12
	.cfi_offset 28, -16
	.cfi_offset 27, -20
	.cfi_offset 26, -24
	.cfi_offset 65, 4
	cmpwi 7,0,0
	beq- 7,.L824
	.loc 4 1697 0 is_stmt 0 discriminator 1
	cmpwi 7,4,0
	beq- 7,.L824
	.loc 4 1697 0 discriminator 2
	lha 0,50(3)
	cmpwi 7,0,0
	bne- 7,.L824
	.loc 4 1697 0 discriminator 3
	lwz 0,8(3)
	cmpwi 7,0,0
	ble- 7,.L826
	.loc 4 1697 0 discriminator 4
	cmpw 7,0,5
	blt- 7,.L824
.L826:
	.loc 4 1701 0 is_stmt 1
	mr 3,31
.LVL1122:
	stw 5,56(1)
	stw 6,60(1)
	bl _ZNK11idAnimBlend4AnimEv
.LVL1123:
	.loc 4 1702 0
	mr. 29,3
	lwz 5,56(1)
.LVL1124:
	lwz 6,60(1)
.LVL1125:
	beq- 0,.L824
.LVL1126:
.LBB4856:
.LBB4857:
	.loc 4 989 0
	lwz 0,100(29)
	cmpwi 7,0,0
	bne- 7,.L833
.LVL1127:
.L824:
.LBE4857:
.LBE4856:
.LBE4855:
	.loc 4 1728 0
	lwz 0,92(1)
	lwz 26,64(1)
	mtlr 0
	lwz 27,68(1)
	lwz 28,72(1)
	lwz 29,76(1)
	lwz 30,80(1)
.LVL1128:
	lwz 31,84(1)
.LVL1129:
	addi 1,1,88
	.cfi_remember_state
.LCFI191:
	.cfi_def_cfa_offset 0
	.cfi_restore 31
	.cfi_restore 30
	.cfi_restore 29
	.cfi_restore 28
	.cfi_restore 27
	.cfi_restore 26
	blr
.LVL1130:
.L833:
.LCFI192:
	.cfi_restore_state
.LBB4860:
	.loc 4 1706 0
	lwz 0,4(31)
	cmpw 7,0,6
	bge+ 7,.L824
	.loc 4 1712 0
	mr 4,5
	mr 3,31
.LVL1131:
	stw 6,60(1)
	bl _ZNK11idAnimBlend8AnimTimeEi
.LVL1132:
	.loc 4 1713 0
	lwz 6,60(1)
	.loc 4 1712 0
	mr 28,3
.LVL1133:
	.loc 4 1713 0
	mr 3,31
.LVL1134:
	mr 4,6
	bl _ZNK11idAnimBlend8AnimTimeEi
	.loc 4 1714 0
	cmpw 7,28,3
	.loc 4 1713 0
	mr 27,3
.LVL1135:
	.loc 4 1714 0
	bgt- 7,.L834
.LVL1136:
.L828:
.LBB4858:
.LBB4859:
	.loc 4 174 0
	lwz 26,4(29)
.LBE4859:
.LBE4858:
	.loc 4 1719 0
	addi 6,1,28
	lha 5,48(31)
	mr 4,28
	mr 3,26
	bl _ZNK9idMD5Anim18ConvertTimeToFrameEiiR12frameBlend_t
	.loc 4 1720 0
	lha 5,48(31)
	mr 3,26
	mr 4,27
	addi 6,1,8
	bl _ZNK9idMD5Anim18ConvertTimeToFrameEiiR12frameBlend_t
	.loc 4 1722 0
	cmpwi 7,28,0
	ble- 7,.L835
	.loc 4 1726 0
	lwz 5,32(1)
	mr 3,29
	lwz 6,12(1)
	mr 4,30
	bl _ZNK6idAnim17CallFrameCommandsEP8idEntityii
	b .L824
.LVL1137:
.L834:
	.loc 4 1715 0
	mr 3,29
.LVL1138:
	bl _ZNK6idAnim6LengthEv
	add 27,27,3
.LVL1139:
	b .L828
.LVL1140:
.L835:
	.loc 4 1724 0
	lwz 6,12(1)
	mr 3,29
	mr 4,30
	li 5,-1
	bl _ZNK6idAnim17CallFrameCommandsEP8idEntityii
	b .L824
.LBE4860:
	.cfi_endproc
.LFE2872:
	.size	_ZNK11idAnimBlend17CallFrameCommandsEP8idEntityii, .-_ZNK11idAnimBlend17CallFrameCommandsEP8idEntityii
	.align 2
	.globl _ZNK14idDeclModelDef18NumJointsOnChannelEi
	.type	_ZNK14idDeclModelDef18NumJointsOnChannelEi, @function
_ZNK14idDeclModelDef18NumJointsOnChannelEi:
.LFB2910:
	.loc 4 2978 0
	.cfi_startproc
.LVL1141:
	.loc 4 2979 0
	cmplwi 7,4,4
	.loc 4 2978 0
	mflr 0
	stwu 1,-16(1)
.LCFI193:
	.cfi_def_cfa_offset 16
	.cfi_register 65, 0
	stw 30,8(1)
	mr 30,3
	.cfi_offset 30, -8
	stw 31,12(1)
	mr 31,4
	.cfi_offset 31, -4
	stw 0,20(1)
	.loc 4 2979 0
	ble+ 7,.L837
	.cfi_offset 65, 4
	.loc 4 2980 0
	lis 3,gameLocal@ha
.LVL1142:
	lis 4,.LC82@ha
.LVL1143:
	la 3,gameLocal@l(3)
	la 4,.LC82@l(4)
	crxor 6,6,6
	bl _ZNK11idGameLocal5ErrorEPKcz
.L837:
	.loc 4 2983 0
	lwz 0,20(1)
	.loc 4 2982 0
	addi 31,31,3
.LVL1144:
	slwi 31,31,4
.LVL1145:
	.loc 4 2983 0
	mtlr 0
	.loc 4 5042 0
	add 30,30,31
.LVL1146:
	.loc 4 2983 0
	lwz 3,4(30)
	lwz 30,8(1)
	lwz 31,12(1)
	addi 1,1,16
.LCFI194:
	.cfi_def_cfa_offset 0
	.cfi_restore 31
	.cfi_restore 30
	blr
	.cfi_endproc
.LFE2910:
	.size	_ZNK14idDeclModelDef18NumJointsOnChannelEi, .-_ZNK14idDeclModelDef18NumJointsOnChannelEi
	.align 2
	.globl _ZNK14idDeclModelDef16GetChannelJointsEi
	.type	_ZNK14idDeclModelDef16GetChannelJointsEi, @function
_ZNK14idDeclModelDef16GetChannelJointsEi:
.LFB2911:
	.loc 4 2990 0
	.cfi_startproc
.LVL1147:
	.loc 4 2991 0
	cmplwi 7,4,4
	.loc 4 2990 0
	mflr 0
	stwu 1,-16(1)
.LCFI195:
	.cfi_def_cfa_offset 16
	.cfi_register 65, 0
	stw 30,8(1)
	mr 30,3
	.cfi_offset 30, -8
	stw 31,12(1)
	mr 31,4
	.cfi_offset 31, -4
	stw 0,20(1)
	.loc 4 2991 0
	ble+ 7,.L839
	.cfi_offset 65, 4
	.loc 4 2992 0
	lis 3,gameLocal@ha
.LVL1148:
	lis 4,.LC83@ha
.LVL1149:
	la 3,gameLocal@l(3)
	la 4,.LC83@l(4)
	crxor 6,6,6
	bl _ZNK11idGameLocal5ErrorEPKcz
.L839:
	.loc 4 2995 0
	lwz 0,20(1)
	.loc 4 2994 0
	addi 31,31,3
.LVL1150:
	slwi 31,31,4
.LVL1151:
	.loc 4 2995 0
	mtlr 0
	.loc 4 5042 0
	add 30,30,31
.LVL1152:
	.loc 4 2995 0
	lwz 3,16(30)
	lwz 30,8(1)
	lwz 31,12(1)
	addi 1,1,16
.LCFI196:
	.cfi_def_cfa_offset 0
	.cfi_restore 31
	.cfi_restore 30
	blr
	.cfi_endproc
.LFE2911:
	.size	_ZNK14idDeclModelDef16GetChannelJointsEi, .-_ZNK14idDeclModelDef16GetChannelJointsEi
	.align 2
	.globl _ZNK11idAnimBlend9BlendAnimEiiiP11idJointQuatRfbbb
	.type	_ZNK11idAnimBlend9BlendAnimEiiiP11idJointQuatRfbbb, @function
_ZNK11idAnimBlend9BlendAnimEiiiP11idJointQuatRfbbb:
.LFB2873:
	.loc 4 1735 0
	.cfi_startproc
.LVL1153:
	stwu 1,-176(1)
.LCFI197:
	.cfi_def_cfa_offset 176
	mflr 0
	mfcr 12
	stw 31,140(1)
	mr 31,1
	.cfi_offset 31, -36
	.cfi_register 70, 12
	.cfi_register 65, 0
.LCFI198:
	.cfi_def_cfa_register 31
	stw 19,92(1)
	stw 21,100(1)
.LBB4861:
	.loc 4 1749 0
	li 21,0
	.cfi_offset 21, -76
	.cfi_offset 19, -84
.LBE4861:
	.loc 4 1735 0
	stw 22,104(1)
	stw 23,108(1)
	mr 23,10
	.cfi_offset 23, -68
	.cfi_offset 22, -72
	stw 24,112(1)
	mr 24,9
	.cfi_offset 24, -64
	stw 25,116(1)
	mr 25,6
	.cfi_offset 25, -60
	stw 26,120(1)
	mr 26,8
	.cfi_offset 26, -56
	stw 27,124(1)
	mr 27,4
	.cfi_offset 27, -52
	stw 28,128(1)
	mr 28,7
	.cfi_offset 28, -48
	stw 29,132(1)
	mr 29,5
	.cfi_offset 29, -44
	stw 30,136(1)
	mr 30,3
	.cfi_offset 30, -40
	stw 0,180(1)
	stfd 28,144(1)
	stfd 29,152(1)
	stfd 30,160(1)
	stfd 31,168(1)
	stw 14,72(1)
	stw 15,76(1)
	stw 16,80(1)
	stw 17,84(1)
	stw 18,88(1)
	stw 20,96(1)
	stw 12,68(1)
.LBB4904:
	.loc 4 1747 0
	.cfi_offset 70, -108
	.cfi_offset 20, -80
	.cfi_offset 18, -88
	.cfi_offset 17, -92
	.cfi_offset 16, -96
	.cfi_offset 15, -100
	.cfi_offset 14, -104
	.cfi_offset 63, -8
	.cfi_offset 62, -16
	.cfi_offset 61, -24
	.cfi_offset 60, -32
	.cfi_offset 65, 4
	bl _ZNK11idAnimBlend4AnimEv
.LVL1154:
	.loc 4 1748 0
	mr. 22,3
.LBE4904:
	.loc 4 1735 0
	lbz 19,187(31)
.LBB4905:
	.loc 4 1748 0
	beq- 0,.L841
.LVL1155:
.LBB4862:
.LBB4863:
	.loc 4 1191 0
	lwz 0,20(30)
.LVL1156:
	.loc 4 1192 0
	subf. 0,0,27
	ble- 0,.L879
	.loc 4 1194 0
	lwz 9,24(30)
	cmpw 7,0,9
	bge- 7,.L880
.LVL1157:
	.loc 4 1197 0
	lis 11,0x4330
	xoris 9,9,0x8000
	xoris 0,0,0x8000
	stw 9,52(31)
	stw 0,44(31)
	lis 9,.LC7@ha
	stw 11,40(31)
	stw 11,48(31)
	lfs 0,.LC7@l(9)
	lfd 31,40(31)
	lfd 12,48(31)
	fsub 31,31,0
	.loc 4 1198 0
	lfs 13,32(30)
	.loc 4 1197 0
	fsub 12,12,0
	.loc 4 1198 0
	lfs 0,28(30)
	.loc 4 1197 0
	frsp 31,31
	frsp 12,12
	.loc 4 1198 0
	fsubs 13,13,0
	.loc 4 1197 0
	fdivs 31,31,12
	.loc 4 1198 0
	fmadds 31,31,13,0
.LVL1158:
.L843:
.LBE4863:
.LBE4862:
	.loc 4 1753 0
	lis 9,.LC8@ha
	lfs 13,0(26)
	lfs 0,.LC8@l(9)
	fcmpu 7,13,0
	bng- 7,.L845
	.loc 4 1754 0
	lwz 0,8(30)
	cmpwi 7,0,0
	blt- 7,.L847
	.loc 4 1754 0 is_stmt 0 discriminator 1
	cmpw 7,27,0
	.loc 4 1755 0 is_stmt 1 discriminator 1
	li 21,0
	.loc 4 1754 0 discriminator 1
	bge- 7,.L841
.L847:
	.loc 4 1757 0
	lis 9,.LC8@ha
	.loc 4 1758 0
	li 21,0
	.loc 4 1757 0
	lfs 0,.LC8@l(9)
	fcmpu 7,31,0
	beq- 7,.L841
	.loc 4 1760 0
	cmpwi 7,23,0
	beq- 7,.L845
	.loc 4 1761 0
	lis 9,.LC3@ha
	lfs 0,.LC3@l(9)
	fsubs 0,0,31
	stfs 0,0(26)
.L845:
	.loc 4 1765 0
	cmpwi 4,29,0
	bne- 4,.L848
	.loc 4 1765 0 is_stmt 0 discriminator 1
	lis 9,.LC8@ha
	lfs 13,0(26)
	lfs 0,.LC8@l(9)
	.loc 4 1767 0 is_stmt 1 discriminator 1
	mr 23,28
	.loc 4 1765 0 discriminator 1
	fcmpu 7,13,0
	beq- 7,.L849
.L848:
	.loc 4 1770 0
	mulli 11,25,28
	lwz 9,0(1)
	addi 0,11,45
	rlwinm 0,0,0,0,27
	neg 0,0
	stwux 9,1,0
	addi 23,1,23
	rlwinm 23,23,0,0,27
.LVL1159:
.L849:
	.loc 4 1773 0
	mr 4,27
	mr 3,30
.LVL1160:
	bl _ZNK11idAnimBlend8AnimTimeEi
.LVL1161:
.LBB4866:
.LBB4867:
	.loc 4 221 0
	lwz 20,16(22)
.LBE4867:
.LBE4866:
	.loc 4 1773 0
	mr 4,3
.LVL1162:
	.loc 4 1776 0
	cmpwi 7,20,1
	bne- 7,.L850
.LVL1163:
	.loc 4 1778 0
	lha 21,50(30)
.LBB4868:
.LBB4869:
	.loc 4 174 0
	lwz 27,4(22)
.LVL1164:
.LBE4869:
.LBE4868:
	.loc 4 1778 0
	cmpwi 7,21,0
	beq- 7,.L851
	.loc 4 1779 0
	lwz 3,0(30)
.LVL1165:
	mr 4,29
.LVL1166:
	bl _ZNK14idDeclModelDef16GetChannelJointsEi
	mr 4,29
	mr 25,3
.LVL1167:
	lwz 3,0(30)
	bl _ZNK14idDeclModelDef18NumJointsOnChannelEi
	addi 4,21,-1
	mr 7,3
	mr 5,23
	mr 3,27
	mr 6,25
	bl _ZNK9idMD5Anim14GetSingleFrameEiP11idJointQuatPKii
	.loc 4 1822 0
	cmpwi 7,24,0
	bne- 7,.L881
.LVL1168:
.L860:
.LBB4870:
	.loc 4 1836 0
	lis 9,.LC8@ha
	lfs 0,0(26)
	lfs 13,.LC8@l(9)
	fcmpu 7,0,13
	bne- 7,.L862
.L885:
.LBB4871:
	.loc 4 1837 0
	stfs 31,0(26)
.LBB4872:
	.loc 4 1838 0
	bne- 4,.L882
.LVL1169:
.L863:
.LBE4872:
.LBE4871:
.LBE4870:
	.loc 4 1853 0
	cmpwi 7,19,0
	.loc 4 1861 0
	li 21,1
	.loc 4 1853 0
	beq- 7,.L841
	.loc 4 1854 0
	lha 7,50(30)
	cmpwi 7,7,0
	bne- 7,.L883
.LVL1170:
	.loc 4 1857 0
	lwz 0,12(31)
	lis 9,.LC7@ha
	lwz 6,56(22)
	slwi 29,29,2
.LVL1171:
	xoris 0,0,0x8000
	lfs 0,.LC7@l(9)
	stw 0,60(31)
	lis 0,0x4330
	stw 0,56(31)
	lis 9,.LC87@ha
	lis 3,gameLocal@ha
	lis 4,.LC88@ha
	lfd 1,56(31)
	la 3,gameLocal@l(3)
	la 4,.LC88@l(4)
	fsub 1,1,0
	lfs 0,.LC87@l(9)
	lis 9,.LANCHOR1@ha
	fmuls 31,31,0
.LVL1172:
	lfs 0,24(31)
	frsp 1,1
	la 9,.LANCHOR1@l(9)
	lwzx 5,9,29
	fmr 2,31
	fadds 1,1,0
	creqv 6,6,6
	bl _ZNK11idGameLocal6PrintfEPKcz
.LVL1173:
.L841:
.LBE4905:
	.loc 4 1862 0
	addi 11,31,176
	mr 3,21
	lwz 0,4(11)
	lwz 12,-108(11)
	mtlr 0
	lwz 14,-104(11)
	lwz 15,-100(11)
	mtcrf 8,12
	lwz 16,-96(11)
	lwz 17,-92(11)
	lwz 18,-88(11)
	lwz 19,-84(11)
	lwz 20,-80(11)
	lwz 21,-76(11)
	lwz 22,-72(11)
.LVL1174:
	lwz 23,-68(11)
	lwz 24,-64(11)
	lwz 25,-60(11)
	lwz 26,-56(11)
	lwz 27,-52(11)
	lwz 28,-48(11)
.LVL1175:
	lwz 29,-44(11)
	lwz 30,-40(11)
.LVL1176:
	lwz 31,-36(11)
	.cfi_remember_state
.LCFI199:
	.cfi_def_cfa 11, 0
	lfd 28,-32(11)
	lfd 29,-24(11)
	lfd 30,-16(11)
	lfd 31,-8(11)
	mr 1,11
.LCFI200:
	.cfi_def_cfa_register 1
	.cfi_restore 70
	.cfi_restore 63
	.cfi_restore 62
	.cfi_restore 61
	.cfi_restore 60
	.cfi_restore 31
	.cfi_restore 30
	.cfi_restore 29
	.cfi_restore 28
	.cfi_restore 27
	.cfi_restore 26
	.cfi_restore 25
	.cfi_restore 24
	.cfi_restore 23
	.cfi_restore 22
	.cfi_restore 21
	.cfi_restore 20
	.cfi_restore 19
	.cfi_restore 18
	.cfi_restore 17
	.cfi_restore 16
	.cfi_restore 15
	.cfi_restore 14
	blr
.LVL1177:
.L880:
.LCFI201:
	.cfi_restore_state
.LBB4906:
.LBB4886:
.LBB4864:
	.loc 4 1195 0
	lfs 31,32(30)
.LVL1178:
	b .L843
.LVL1179:
.L850:
.LBE4864:
.LBE4886:
	.loc 4 1789 0
	mulli 25,25,28
.LVL1180:
	.loc 4 1791 0
	lha 11,50(30)
	.loc 4 1789 0
	lwz 9,0(1)
	addi 0,25,45
	.loc 4 1791 0
	cmpwi 7,11,0
	.loc 4 1789 0
	rlwinm 0,0,0,0,27
	neg 0,0
	stwux 9,1,0
	addi 18,1,23
	rlwinm 18,18,0,0,27
.LVL1181:
	.loc 4 1791 0
	beq- 7,.L884
.LVL1182:
.L853:
	.loc 4 1797 0 discriminator 1
	cmpwi 7,20,0
	.loc 4 1818 0 discriminator 1
	li 21,0
	.loc 4 1797 0 discriminator 1
	ble- 7,.L841
	.loc 4 1735 0
	lis 9,.LC8@ha
	addi 25,30,32
	lfs 30,.LC8@l(9)
	mr 21,23
	li 27,0
.LVL1183:
	.loc 4 1810 0
	lis 16,SIMDProcessor@ha
	.loc 4 1798 0
	fmr 29,30
.LVL1184:
.L859:
	lfsu 28,4(25)
.LBB4887:
.LBB4888:
	.loc 4 1735 0
	slwi 9,27,2
	add 9,22,9
	.loc 4 175 0
	li 15,0
.LBE4888:
.LBE4887:
	.loc 4 1798 0
	fcmpu 7,28,29
	bng- 7,.L854
.LBB4891:
.LBB4889:
	.loc 4 174 0
	lwz 0,4(22)
.LBE4889:
.LBE4891:
	.loc 4 1803 0
	mr 4,29
	.loc 4 1799 0
	fadds 30,30,28
.LVL1185:
.LBB4892:
.LBB4890:
	.loc 4 174 0
	cmpwi 7,0,0
	beq- 7,.L856
	.loc 4 177 0
	lwz 15,4(9)
.L856:
.LBE4890:
.LBE4892:
	.loc 4 1802 0
	lha 14,50(30)
	.loc 4 1803 0
	lwz 3,0(30)
	.loc 4 1802 0
	cmpwi 7,14,0
	beq- 7,.L857
	.loc 4 1803 0
	bl _ZNK14idDeclModelDef16GetChannelJointsEi
.LVL1186:
	mr 4,29
	mr 17,3
	lwz 3,0(30)
	bl _ZNK14idDeclModelDef18NumJointsOnChannelEi
	addi 4,14,-1
	mr 7,3
	mr 5,21
	mr 3,15
	mr 6,17
	bl _ZNK9idMD5Anim14GetSingleFrameEiP11idJointQuatPKii
	.loc 4 1809 0
	cmpw 7,21,23
	.loc 4 1810 0
	mr 4,29
	.loc 4 1809 0
	beq- 7,.L872
.L886:
	.loc 4 1810 0
	lwz 14,SIMDProcessor@l(16)
	lwz 3,0(30)
	lwz 9,0(14)
	lwz 17,236(9)
	bl _ZNK14idDeclModelDef16GetChannelJointsEi
	mr 15,3
	lwz 3,0(30)
	mr 4,29
	bl _ZNK14idDeclModelDef18NumJointsOnChannelEi
	mr 5,21
	mr 7,3
	mr 4,23
	mr 3,14
	fdivs 1,28,30
	mr 6,15
	mtctr 17
	.loc 4 1813 0
	mr 21,18
.LVL1187:
	.loc 4 1810 0
	bctrl
.LVL1188:
.L854:
	.loc 4 1797 0
	addi 27,27,1
.LVL1189:
	cmpw 7,27,20
	bne+ 7,.L859
	.loc 4 1817 0
	lis 9,.LC8@ha
	.loc 4 1818 0
	li 21,0
.LVL1190:
	.loc 4 1817 0
	lfs 0,.LC8@l(9)
	fcmpu 7,30,0
	beq- 7,.L841
.LVL1191:
.L852:
	.loc 4 1822 0
	cmpwi 7,24,0
	beq- 7,.L860
.L881:
	.loc 4 1823 0
	lbz 0,54(30)
	cmpwi 7,0,0
	beq- 7,.L861
.LVL1192:
.LBB4893:
.LBB4894:
	.loc 9 416 0
	li 0,0
	stw 0,24(23)
	stw 0,20(23)
	stw 0,16(23)
.LVL1193:
.L861:
.LBE4894:
.LBE4893:
	.loc 4 1831 0
	lbz 0,116(22)
	andi. 9,0,16
	beq- 0,.L860
.LVL1194:
.LBB4895:
.LBB4896:
	.loc 10 248 0
	lis 9,.LC84@ha
	.loc 10 249 0
	li 0,0
	.loc 10 248 0
	lwz 9,.LC84@l(9)
	.loc 10 249 0
	stw 0,4(23)
	.loc 10 248 0
	stw 9,0(23)
	.loc 10 251 0
	lis 9,.LC85@ha
	.loc 10 250 0
	stw 0,8(23)
	.loc 10 251 0
	lwz 0,.LC85@l(9)
.LBE4896:
.LBE4895:
.LBB4898:
	.loc 4 1836 0
	lis 9,.LC8@ha
	lfs 13,.LC8@l(9)
.LBE4898:
.LBB4899:
.LBB4897:
	.loc 10 251 0
	stw 0,12(23)
.LBE4897:
.LBE4899:
.LBB4900:
	.loc 4 1836 0
	lfs 0,0(26)
	fcmpu 7,0,13
	beq+ 7,.L885
.LVL1195:
.L862:
	.loc 4 1848 0
	fadds 0,0,31
	.loc 4 1850 0
	lis 9,SIMDProcessor@ha
	mr 4,29
	.loc 4 1849 0
	fdivs 30,31,0
.LVL1196:
	.loc 4 1848 0
	stfs 0,0(26)
	.loc 4 1850 0
	lwz 25,SIMDProcessor@l(9)
	lwz 3,0(30)
	lwz 9,0(25)
	lwz 27,236(9)
	bl _ZNK14idDeclModelDef16GetChannelJointsEi
	mr 26,3
.LVL1197:
	lwz 3,0(30)
	mr 4,29
	bl _ZNK14idDeclModelDef18NumJointsOnChannelEi
	mr 4,28
	mr 7,3
	mr 5,23
	mr 3,25
	mr 6,26
	mtctr 27
	fmr 1,30
	bctrl
	b .L863
.LVL1198:
.L857:
.LBE4900:
	.loc 4 1805 0
	mr 4,29
	bl _ZNK14idDeclModelDef16GetChannelJointsEi
	mr 4,29
	mr 17,3
	lwz 3,0(30)
	bl _ZNK14idDeclModelDef18NumJointsOnChannelEi
	addi 4,31,8
	mr 7,3
	mr 5,21
	mr 3,15
	mr 6,17
	bl _ZNK9idMD5Anim20GetInterpolatedFrameER12frameBlend_tP11idJointQuatPKii
	.loc 4 1809 0
	cmpw 7,21,23
	.loc 4 1810 0
	mr 4,29
	.loc 4 1809 0
	bne+ 7,.L886
.L872:
	.loc 4 1813 0
	mr 21,18
.LVL1199:
	b .L854
.LVL1200:
.L879:
.LBB4901:
.LBB4865:
	.loc 4 1193 0
	lfs 31,28(30)
.LVL1201:
	b .L843
.LVL1202:
.L884:
.LBE4865:
.LBE4901:
	.loc 4 1792 0
	lwz 3,4(22)
.LVL1203:
	addi 6,31,8
	lha 5,48(30)
	bl _ZNK9idMD5Anim18ConvertTimeToFrameEiiR12frameBlend_t
.LVL1204:
	b .L853
.LVL1205:
.L851:
	.loc 4 1781 0
	lha 5,48(30)
	addi 6,31,8
	mr 3,27
.LVL1206:
	bl _ZNK9idMD5Anim18ConvertTimeToFrameEiiR12frameBlend_t
.LVL1207:
	.loc 4 1782 0
	lwz 3,0(30)
	mr 4,29
	bl _ZNK14idDeclModelDef16GetChannelJointsEi
	mr 4,29
	mr 25,3
.LVL1208:
	lwz 3,0(30)
	bl _ZNK14idDeclModelDef18NumJointsOnChannelEi
	addi 4,31,8
	mr 7,3
	mr 5,23
	mr 3,27
	mr 6,25
	bl _ZNK9idMD5Anim20GetInterpolatedFrameER12frameBlend_tP11idJointQuatPKii
	b .L852
.LVL1209:
.L883:
	.loc 4 1855 0
	lis 9,.LC87@ha
	slwi 29,29,2
.LVL1210:
	lfs 0,.LC87@l(9)
	lis 9,.LANCHOR1@ha
	la 9,.LANCHOR1@l(9)
	lwz 6,56(22)
	fmuls 31,31,0
.LVL1211:
	lwzx 5,9,29
	lis 3,gameLocal@ha
	lis 4,.LC86@ha
	la 3,gameLocal@l(3)
	la 4,.LC86@l(4)
	fmr 1,31
	creqv 6,6,6
	bl _ZNK11idGameLocal6PrintfEPKcz
	b .L841
.LVL1212:
.L882:
.LBB4902:
.LBB4884:
.LBB4882:
.LBB4873:
	.loc 4 1839 0
	lwz 3,0(30)
	mr 4,29
	bl _ZNK14idDeclModelDef16GetChannelJointsEi
	.loc 4 1840 0
	mr 4,29
	.loc 4 1839 0
	mr 27,3
.LVL1213:
	.loc 4 1840 0
	lwz 3,0(30)
.LVL1214:
	bl _ZNK14idDeclModelDef18NumJointsOnChannelEi
.LVL1215:
.LBB4874:
	.loc 4 1841 0
	cmpwi 0,3,0
	ble- 0,.L863
.LBE4874:
.LBE4873:
.LBE4882:
.LBE4884:
.LBE4902:
	mtctr 3
.LBB4903:
.LBB4885:
.LBB4883:
.LBB4881:
.LBB4880:
	.loc 4 1735 0
	addi 27,27,-4
.LVL1216:
.L864:
.LBB4875:
	.loc 4 1843 0 discriminator 2
	lwzu 0,4(27)
.LVL1217:
	mulli 0,0,28
	add 11,23,0
	add 9,28,0
.LVL1218:
.LBB4876:
.LBB4877:
	.loc 9 424 0 discriminator 2
	lwz 10,16(11)
	stw 10,16(9)
	.loc 9 425 0 discriminator 2
	lwz 10,20(11)
	stw 10,20(9)
	.loc 9 426 0 discriminator 2
	lwz 10,24(11)
	stw 10,24(9)
.LVL1219:
.LBE4877:
.LBE4876:
.LBB4878:
.LBB4879:
	.loc 10 127 0 discriminator 2
	lwzx 10,23,0
	stwx 10,28,0
	.loc 10 128 0 discriminator 2
	lwz 0,4(11)
	stw 0,4(9)
	.loc 10 129 0 discriminator 2
	lwz 0,8(11)
	stw 0,8(9)
	.loc 10 130 0 discriminator 2
	lwz 0,12(11)
	stw 0,12(9)
.LBE4879:
.LBE4878:
.LBE4875:
	.loc 4 1841 0 discriminator 2
	bdnz .L864
	b .L863
.LBE4880:
.LBE4881:
.LBE4883:
.LBE4885:
.LBE4903:
.LBE4906:
	.cfi_endproc
.LFE2873:
	.size	_ZNK11idAnimBlend9BlendAnimEiiiP11idJointQuatRfbbb, .-_ZNK11idAnimBlend9BlendAnimEiiiP11idJointQuatRfbbb
	.align 2
	.globl _ZNK14idDeclModelDef15GetVisualOffsetEv
	.type	_ZNK14idDeclModelDef15GetVisualOffsetEv, @function
_ZNK14idDeclModelDef15GetVisualOffsetEv:
.LFB2912:
	.loc 4 3002 0
	.cfi_startproc
.LVL1220:
	.loc 4 3004 0
	addi 3,3,8
.LVL1221:
	blr
	.cfi_endproc
.LFE2912:
	.size	_ZNK14idDeclModelDef15GetVisualOffsetEv, .-_ZNK14idDeclModelDef15GetVisualOffsetEv
	.align 2
	.globl _ZNK10idAnimator9AllocatedEv
	.type	_ZNK10idAnimator9AllocatedEv, @function
_ZNK10idAnimator9AllocatedEv:
.LFB2919:
	.loc 4 3062 0
	.cfi_startproc
.LVL1222:
.LBB4907:
	.loc 4 3065 0
	lwz 9,864(3)
.LBB4908:
.LBB4909:
	.loc 8 239 0
	lwz 11,928(3)
.LBE4909:
.LBE4908:
.LBB4911:
.LBB4912:
	lwz 7,944(3)
.LBE4912:
.LBE4911:
	.loc 4 3065 0
	mulli 9,9,12
	lwz 8,848(3)
.LBB4914:
.LBB4910:
	.loc 8 239 0
	mulli 11,11,52
.LBE4910:
.LBE4914:
.LBE4907:
	.loc 4 3062 0
	lwz 10,912(3)
	lwz 0,852(3)
.LBB4916:
.LBB4915:
.LBB4913:
	.loc 8 239 0
	mulli 3,7,28
.LVL1223:
.LBE4913:
.LBE4915:
	.loc 4 3065 0
	add 9,9,8
.LBE4916:
	.loc 4 3068 0
	.loc 4 3062 0
	add 0,10,0
.LBB4917:
	.loc 4 3065 0
	add 3,3,11
	slwi 9,9,2
	slwi 0,0,2
	add 3,3,9
.LBE4917:
	.loc 4 3068 0
	add 3,3,0
	blr
	.cfi_endproc
.LFE2919:
	.size	_ZNK10idAnimator9AllocatedEv, .-_ZNK10idAnimator9AllocatedEv
	.align 2
	.globl _ZNK10idAnimator4SaveEP10idSaveGame
	.type	_ZNK10idAnimator4SaveEP10idSaveGame, @function
_ZNK10idAnimator4SaveEP10idSaveGame:
.LFB2920:
	.loc 4 3077 0
	.cfi_startproc
.LVL1224:
	mflr 0
	stwu 1,-32(1)
.LCFI202:
	.cfi_def_cfa_offset 32
	.cfi_register 65, 0
	stw 30,24(1)
	mr 30,3
	.cfi_offset 30, -8
	stw 0,36(1)
	stw 31,28(1)
	mr 31,4
	.cfi_offset 31, -4
	.cfi_offset 65, 4
	stw 26,8(1)
	stw 27,12(1)
	stw 28,16(1)
	stw 29,20(1)
.LBB4918:
	.loc 4 3081 0
	lwz 4,0(3)
.LVL1225:
	mr 3,31
.LVL1226:
	.cfi_offset 29, -12
	.cfi_offset 28, -16
	.cfi_offset 27, -20
	.cfi_offset 26, -24
	bl _ZN10idSaveGame13WriteModelDefEPK14idDeclModelDef
	.loc 4 3082 0
	lwz 4,4(30)
	mr 3,31
	bl _ZN10idSaveGame11WriteObjectEPK7idClass
	.loc 4 3084 0
	lwz 4,848(30)
	mr 3,31
	bl _ZN10idSaveGame8WriteIntEi
.LVL1227:
	.loc 4 3085 0
	lwz 0,848(30)
	cmpwi 7,0,0
	ble- 7,.L890
	li 28,0
.LVL1228:
.L891:
	.loc 4 3086 0 discriminator 2
	lwz 9,860(30)
	.loc 4 3077 0 discriminator 2
	slwi 29,28,2
	.loc 4 3086 0 discriminator 2
	mr 3,31
	.loc 4 3085 0 discriminator 2
	addi 28,28,1
.LVL1229:
	.loc 4 3086 0 discriminator 2
	lwzx 9,9,29
	lwz 4,0(9)
	bl _ZN10idSaveGame8WriteIntEi
	.loc 4 3087 0 discriminator 2
	lwz 9,860(30)
	mr 3,31
	lwzx 4,9,29
	addi 4,4,4
	bl _ZN10idSaveGame9WriteMat3ERK6idMat3
	.loc 4 3088 0 discriminator 2
	lwz 9,860(30)
	mr 3,31
	lwzx 4,9,29
	addi 4,4,40
	bl _ZN10idSaveGame9WriteVec3ERK6idVec3
	.loc 4 3089 0 discriminator 2
	lwz 9,860(30)
	mr 3,31
	lwzx 9,9,29
	lwz 4,52(9)
	bl _ZN10idSaveGame8WriteIntEi
	.loc 4 3090 0 discriminator 2
	lwz 9,860(30)
	mr 3,31
	lwzx 9,9,29
	lwz 4,56(9)
	bl _ZN10idSaveGame8WriteIntEi
.LVL1230:
	.loc 4 3085 0 discriminator 2
	lwz 0,848(30)
	cmpw 7,0,28
	bgt+ 7,.L891
.LVL1231:
.L890:
	.loc 4 3093 0
	lwz 4,864(30)
	mr 3,31
	bl _ZN10idSaveGame8WriteIntEi
.LVL1232:
.LBB4919:
	.loc 4 3094 0
	lwz 0,864(30)
	cmpwi 7,0,0
	ble- 7,.L892
	li 26,0
	li 27,0
.LVL1233:
.L894:
.LBB4920:
	.loc 4 3095 0
	lwz 28,868(30)
	li 29,0
	add 28,28,26
.LVL1234:
.L893:
	.loc 4 3097 0 discriminator 2
	lfsx 1,28,29
	mr 3,31
	bl _ZN10idSaveGame10WriteFloatEf
	.loc 4 3096 0 discriminator 2
	cmpwi 7,29,44
	addi 29,29,4
	bne+ 7,.L893
.LBE4920:
	.loc 4 3094 0
	lwz 0,864(30)
	addi 27,27,1
.LVL1235:
	addi 26,26,48
	cmpw 7,0,27
	bgt+ 7,.L894
.LVL1236:
.L892:
.LBE4919:
	.loc 4 3101 0
	lwz 4,872(30)
	mr 3,31
	bl _ZN10idSaveGame8WriteIntEi
	.loc 4 3102 0
	lbz 4,876(30)
	mr 3,31
	bl _ZN10idSaveGame9WriteBoolEb
	.loc 4 3103 0
	lbz 4,878(30)
	mr 3,31
	bl _ZN10idSaveGame9WriteBoolEb
	.loc 4 3104 0
	addi 4,30,880
	mr 3,31
	bl _ZN10idSaveGame11WriteBoundsERK8idBounds
	.loc 4 3106 0
	lfs 1,904(30)
	mr 3,31
	bl _ZN10idSaveGame10WriteFloatEf
	.loc 4 3108 0
	lwz 4,908(30)
	mr 3,31
	bl _ZN10idSaveGame8WriteIntEi
.LVL1237:
	.loc 4 3109 0
	lwz 0,908(30)
	cmpwi 7,0,0
	ble- 7,.L895
	li 29,0
.LVL1238:
.L896:
	.loc 4 3110 0 discriminator 2
	lwz 9,920(30)
	slwi 0,29,2
	mr 3,31
	.loc 4 3109 0 discriminator 2
	addi 29,29,1
.LVL1239:
	.loc 4 3110 0 discriminator 2
	lwzx 4,9,0
	bl _ZN10idSaveGame8WriteIntEi
.LVL1240:
	.loc 4 3109 0 discriminator 2
	lwz 0,908(30)
	cmpw 7,0,29
	bgt+ 7,.L896
.LVL1241:
.L895:
	.loc 4 3113 0
	lwz 4,924(30)
	mr 3,31
	bl _ZN10idSaveGame8WriteIntEi
.LVL1242:
	.loc 4 3114 0
	lwz 0,924(30)
	cmpwi 7,0,0
	ble- 7,.L897
	li 29,0
	li 28,0
.LVL1243:
.L898:
	.loc 4 3115 0 discriminator 2
	lwz 9,936(30)
	mr 3,31
	.loc 4 3114 0 discriminator 2
	addi 28,28,1
.LVL1244:
	.loc 4 3115 0 discriminator 2
	lwzx 4,9,29
	bl _ZN10idSaveGame8WriteIntEi
.LBB4921:
.LBB4922:
	.loc 8 573 0 discriminator 2
	lwz 4,936(30)
.LBE4922:
.LBE4921:
	.loc 4 3116 0 discriminator 2
	mr 3,31
.LBB4924:
.LBB4923:
	.loc 8 573 0 discriminator 2
	add 4,4,29
.LBE4923:
.LBE4924:
	.loc 4 3116 0 discriminator 2
	addi 4,4,4
	bl _ZN10idSaveGame9WriteMat3ERK6idMat3
.LBB4925:
.LBB4926:
	.loc 8 573 0 discriminator 2
	lwz 4,936(30)
.LBE4926:
.LBE4925:
	.loc 4 3117 0 discriminator 2
	mr 3,31
.LBB4928:
.LBB4927:
	.loc 8 573 0 discriminator 2
	add 4,4,29
.LBE4927:
.LBE4928:
	.loc 4 3114 0 discriminator 2
	addi 29,29,52
	.loc 4 3117 0 discriminator 2
	addi 4,4,40
	bl _ZN10idSaveGame9WriteVec3ERK6idVec3
.LVL1245:
	.loc 4 3114 0 discriminator 2
	lwz 0,924(30)
	cmpw 7,0,28
	bgt+ 7,.L898
.LVL1246:
.L897:
	.loc 4 3120 0
	lwz 4,940(30)
	mr 3,31
	bl _ZN10idSaveGame8WriteIntEi
.LVL1247:
	.loc 4 3121 0
	lwz 0,940(30)
	cmpwi 7,0,0
	ble- 7,.L899
	li 29,0
	li 28,0
.LVL1248:
.L900:
	.loc 4 3122 0 discriminator 2
	lwz 9,952(30)
	mr 3,31
	.loc 4 3121 0 discriminator 2
	addi 28,28,1
.LVL1249:
	.loc 4 3122 0 discriminator 2
	lfsx 1,9,29
	bl _ZN10idSaveGame10WriteFloatEf
	.loc 4 3123 0 discriminator 2
	lwz 9,952(30)
	mr 3,31
	add 9,9,29
	lfs 1,4(9)
	bl _ZN10idSaveGame10WriteFloatEf
	.loc 4 3124 0 discriminator 2
	lwz 9,952(30)
	mr 3,31
	add 9,9,29
	lfs 1,8(9)
	bl _ZN10idSaveGame10WriteFloatEf
	.loc 4 3125 0 discriminator 2
	lwz 9,952(30)
	mr 3,31
	add 9,9,29
	lfs 1,12(9)
	bl _ZN10idSaveGame10WriteFloatEf
.LBB4929:
.LBB4930:
	.loc 8 573 0 discriminator 2
	lwz 4,952(30)
.LBE4930:
.LBE4929:
	.loc 4 3126 0 discriminator 2
	mr 3,31
.LBB4932:
.LBB4931:
	.loc 8 573 0 discriminator 2
	add 4,4,29
.LBE4931:
.LBE4932:
	.loc 4 3121 0 discriminator 2
	addi 29,29,28
	.loc 4 3126 0 discriminator 2
	addi 4,4,16
	bl _ZN10idSaveGame9WriteVec3ERK6idVec3
.LVL1250:
	.loc 4 3121 0 discriminator 2
	lwz 0,940(30)
	cmpw 7,0,28
	bgt+ 7,.L900
.LVL1251:
.L899:
	.loc 4 3129 0
	addi 4,30,956
	mr 3,31
	bl _ZN10idSaveGame11WriteBoundsERK8idBounds
	.loc 4 3130 0
	lwz 4,980(30)
	mr 3,31
	.loc 4 3134 0
	li 29,0
	.loc 4 3130 0
	bl _ZN10idSaveGame8WriteIntEi
	.loc 4 3132 0
	lbz 4,877(30)
	mr 3,31
	bl _ZN10idSaveGame9WriteBoolEb
.LVL1252:
.L901:
	.loc 4 3136 0 discriminator 1
	mulli 28,29,168
	mr 4,31
	add 3,30,28
	addi 3,3,8
	bl _ZNK11idAnimBlend4SaveEP10idSaveGame
.LVL1253:
	add 3,30,28
	addi 3,3,64
	mr 4,31
	bl _ZNK11idAnimBlend4SaveEP10idSaveGame
.LVL1254:
	add 3,30,28
	addi 3,3,120
	mr 4,31
	bl _ZNK11idAnimBlend4SaveEP10idSaveGame
.LVL1255:
	.loc 4 3134 0 discriminator 1
	cmpwi 7,29,4
	addi 29,29,1
.LVL1256:
	bne+ 7,.L901
.LBE4918:
	.loc 4 3139 0
	lwz 0,36(1)
	lwz 26,8(1)
	mtlr 0
	lwz 27,12(1)
	lwz 28,16(1)
	lwz 29,20(1)
.LVL1257:
	lwz 30,24(1)
.LVL1258:
	lwz 31,28(1)
.LVL1259:
	addi 1,1,32
.LCFI203:
	.cfi_def_cfa_offset 0
	.cfi_restore 31
	.cfi_restore 30
	.cfi_restore 29
	.cfi_restore 28
	.cfi_restore 27
	.cfi_restore 26
	blr
	.cfi_endproc
.LFE2920:
	.size	_ZNK10idAnimator4SaveEP10idSaveGame, .-_ZNK10idAnimator4SaveEP10idSaveGame
	.align 2
	.globl _ZN10idAnimator7RestoreEP13idRestoreGame
	.type	_ZN10idAnimator7RestoreEP13idRestoreGame, @function
_ZN10idAnimator7RestoreEP13idRestoreGame:
.LFB2921:
	.loc 4 3148 0
	.cfi_startproc
.LVL1260:
	stwu 1,-56(1)
.LCFI204:
	.cfi_def_cfa_offset 56
	mflr 0
	mfcr 12
	stw 31,52(1)
	mr 31,3
	.cfi_offset 31, -4
	.cfi_register 70, 12
	.cfi_register 65, 0
	stw 30,48(1)
.LBB5062:
	.loc 4 3153 0
	mr 3,4
.LVL1261:
.LBE5062:
	.loc 4 3148 0
	mr 30,4
	.cfi_offset 30, -8
.LBB5356:
	.loc 4 3153 0
	mr 4,31
.LVL1262:
.LBE5356:
	.loc 4 3148 0
	stw 0,60(1)
	stw 12,28(1)
	stw 28,40(1)
	stw 29,44(1)
.LBB5357:
	.loc 4 3157 0
	addi 29,31,848
	.cfi_offset 29, -12
	.cfi_offset 28, -16
	.cfi_offset 70, -28
	.cfi_offset 65, 4
.LBE5357:
	.loc 4 3148 0
	stw 26,32(1)
	stw 27,36(1)
.LBB5358:
	.loc 4 3153 0
	.cfi_offset 27, -20
	.cfi_offset 26, -24
	bl _ZN13idRestoreGame12ReadModelDefERPK14idDeclModelDef
.LVL1263:
	.loc 4 3154 0
	mr 3,30
	addi 4,31,4
	bl _ZN13idRestoreGame10ReadObjectERP7idClass
	.loc 4 3156 0
	mr 3,30
	addi 4,1,8
	bl _ZN13idRestoreGame7ReadIntERi
.LVL1264:
	.loc 4 3157 0
	lwz 28,8(1)
.LVL1265:
.LBB5063:
.LBB5064:
.LBB5065:
.LBB5066:
	.loc 8 375 0
	cmpwi 7,28,0
	ble- 7,.L984
	.loc 8 380 0
	lwz 0,852(31)
	cmpw 7,28,0
	beq- 7,.L913
	.loc 8 387 0
	lwz 0,848(31)
	.loc 8 385 0
	lwz 27,860(31)
.LVL1266:
	.loc 8 387 0
	cmpw 7,28,0
	.loc 8 386 0
	stw 28,852(31)
	.loc 8 387 0
	blt- 7,.L985
.L914:
	.loc 8 392 0
	slwi 3,28,2
	bl _Znaj
.LVL1267:
	.loc 8 393 0
	lwz 0,848(31)
	.loc 8 392 0
	stw 3,860(31)
.LVL1268:
	.loc 8 393 0
	cmpwi 7,0,0
	ble- 7,.L915
	.loc 4 3148 0
	addi 11,27,-4
.LBB5067:
.LBB5068:
	.loc 8 393 0
	li 9,0
	b .L916
.LVL1269:
.L986:
.LBE5068:
.LBE5067:
	lwz 3,860(31)
.LVL1270:
.L916:
	.loc 8 394 0
	lwzu 10,4(11)
	slwi 0,9,2
	.loc 8 393 0
	addi 9,9,1
.LVL1271:
	.loc 8 394 0
	stwx 10,3,0
	.loc 8 393 0
	lwz 0,0(29)
	cmpw 7,9,0
	blt+ 7,.L986
.LVL1272:
.L915:
	.loc 8 398 0
	cmpwi 7,27,0
	beq- 7,.L983
	.loc 8 399 0
	mr 3,27
	bl _ZdaPv
.L983:
	lwz 0,8(1)
.LVL1273:
.L912:
.LBE5066:
.LBE5065:
.LBE5064:
.LBE5063:
	.loc 4 3158 0
	cmpwi 7,0,0
.LBB5084:
.LBB5079:
	.loc 8 302 0
	stw 28,848(31)
.LVL1274:
.LBE5079:
.LBE5084:
	.loc 4 3158 0
	ble- 7,.L918
.L969:
.LBB5085:
.LBB5080:
.LBB5076:
.LBB5073:
.LBB5071:
.LBB5069:
	.loc 8 393 0 discriminator 2
	li 28,0
.LVL1275:
.L919:
.LBE5069:
.LBE5071:
.LBE5073:
.LBE5076:
.LBE5080:
.LBE5085:
	.loc 4 3159 0 discriminator 2
	li 3,60
	.loc 4 3148 0 discriminator 2
	slwi 29,28,2
	.loc 4 3159 0 discriminator 2
	bl _Znwj
.LVL1276:
	lwz 9,860(31)
	.loc 4 3158 0 discriminator 2
	addi 28,28,1
.LVL1277:
	.loc 4 3159 0 discriminator 2
	stwx 3,9,29
	.loc 4 3160 0 discriminator 2
	mr 3,30
	lwz 9,860(31)
	lwzx 4,9,29
	bl _ZN13idRestoreGame7ReadIntERi
	.loc 4 3161 0 discriminator 2
	lwz 9,860(31)
	mr 3,30
	lwzx 4,9,29
	addi 4,4,4
	bl _ZN13idRestoreGame8ReadMat3ER6idMat3
	.loc 4 3162 0 discriminator 2
	lwz 9,860(31)
	mr 3,30
	lwzx 4,9,29
	addi 4,4,40
	bl _ZN13idRestoreGame8ReadVec3ER6idVec3
	.loc 4 3163 0 discriminator 2
	lwz 9,860(31)
	mr 3,30
	lwzx 4,9,29
	addi 4,4,52
	bl _ZN13idRestoreGame7ReadIntERi
	.loc 4 3164 0 discriminator 2
	lwz 9,860(31)
	mr 3,30
	lwzx 4,9,29
	addi 4,4,56
	bl _ZN13idRestoreGame7ReadIntERi
.LVL1278:
	.loc 4 3158 0 discriminator 2
	lwz 0,8(1)
	cmpw 7,0,28
	bgt+ 7,.L919
.LVL1279:
.L918:
	.loc 4 3167 0
	mr 3,30
	addi 4,31,864
	bl _ZN13idRestoreGame7ReadIntERi
	.loc 4 3168 0
	lwz 3,864(31)
	mulli 3,3,48
	bl _Z11Mem_Alloc16i
.LBB5086:
	.loc 4 3169 0
	lwz 0,864(31)
.LBE5086:
	.loc 4 3168 0
	stw 3,868(31)
.LVL1280:
.LBB5090:
	.loc 4 3169 0
	cmpwi 7,0,0
	ble- 7,.L920
	li 26,0
	li 27,0
.LVL1281:
.L922:
.LBB5087:
	.loc 4 3170 0
	add 28,3,26
.LVL1282:
	.loc 4 3171 0
	li 29,0
.LVL1283:
.L921:
	.loc 4 3172 0 discriminator 2
	slwi 4,29,2
	mr 3,30
	add 4,28,4
	bl _ZN13idRestoreGame9ReadFloatERf
.LVL1284:
	.loc 4 3171 0 discriminator 2
	cmpwi 7,29,11
	addi 29,29,1
.LVL1285:
	bne+ 7,.L921
.LBE5087:
	.loc 4 3169 0
	lwz 0,864(31)
	addi 27,27,1
.LVL1286:
	addi 26,26,48
	cmpw 7,0,27
	ble- 7,.L920
	lwz 3,868(31)
	b .L922
.LVL1287:
.L920:
.LBE5090:
	.loc 4 3176 0
	addi 4,31,872
	mr 3,30
	bl _ZN13idRestoreGame7ReadIntERi
	.loc 4 3177 0
	mr 3,30
	addi 4,31,876
	.loc 4 3184 0
	addi 29,31,908
	.loc 4 3177 0
	bl _ZN13idRestoreGame8ReadBoolERb
	.loc 4 3178 0
	mr 3,30
	addi 4,31,878
	bl _ZN13idRestoreGame8ReadBoolERb
	.loc 4 3179 0
	mr 3,30
	addi 4,31,880
	bl _ZN13idRestoreGame10ReadBoundsER8idBounds
	.loc 4 3181 0
	mr 3,30
	addi 4,31,904
	bl _ZN13idRestoreGame9ReadFloatERf
	.loc 4 3183 0
	mr 3,30
	addi 4,1,8
	bl _ZN13idRestoreGame7ReadIntERi
.LVL1288:
.LBB5091:
.LBB5092:
	.loc 8 319 0
	lwz 28,920(31)
	.loc 8 317 0
	li 0,1
	.loc 8 319 0
	cmpwi 7,28,0
	.loc 8 317 0
	stw 0,916(31)
	.loc 8 319 0
	beq- 7,.L923
	.loc 8 321 0
	lwz 3,908(31)
.LVL1289:
	.loc 8 323 0
	lwz 0,912(31)
	cmpw 7,3,0
	beq- 7,.L923
.LVL1290:
.LBB5093:
.LBB5094:
	.loc 8 375 0
	cmpwi 7,3,0
	ble- 7,.L987
.LVL1291:
	.loc 8 386 0
	stw 3,912(31)
	.loc 8 392 0
	slwi 3,3,2
	bl _Znaj
.LVL1292:
	.loc 8 393 0
	lwz 0,908(31)
	.loc 8 392 0
	stw 3,920(31)
.LVL1293:
	.loc 8 393 0
	cmpwi 7,0,0
	ble- 7,.L925
	.loc 4 3148 0
	addi 11,28,-4
.LBE5094:
.LBE5093:
.LBE5092:
.LBE5091:
.LBB5103:
.LBB5088:
	.loc 8 393 0
	li 9,0
	b .L926
.LVL1294:
.L988:
.LBE5088:
.LBE5103:
.LBB5104:
.LBB5101:
.LBB5099:
.LBB5097:
	lwz 3,920(31)
.LVL1295:
.L926:
	.loc 8 394 0
	lwzu 10,4(11)
	slwi 0,9,2
	.loc 8 393 0
	addi 9,9,1
.LVL1296:
	.loc 8 394 0
	stwx 10,3,0
	.loc 8 393 0
	lwz 0,0(29)
	cmpw 7,9,0
	blt+ 7,.L988
.LVL1297:
.L925:
	.loc 8 399 0
	mr 3,28
	bl _ZdaPv
.LVL1298:
.L923:
.LBE5097:
.LBE5099:
.LBE5101:
.LBE5104:
	.loc 4 3185 0
	lwz 28,8(1)
.LVL1299:
.LBB5105:
.LBB5106:
.LBB5107:
.LBB5108:
	.loc 8 375 0
	cmpwi 7,28,0
	ble- 7,.L989
	.loc 8 380 0
	lwz 0,912(31)
	cmpw 7,28,0
	beq- 7,.L930
	.loc 8 387 0
	lwz 0,908(31)
	.loc 8 385 0
	lwz 27,920(31)
.LVL1300:
	.loc 8 387 0
	cmpw 7,28,0
	.loc 8 386 0
	stw 28,912(31)
	.loc 8 387 0
	blt- 7,.L990
.L931:
	.loc 8 392 0
	slwi 3,28,2
	bl _Znaj
.LVL1301:
	.loc 8 393 0
	lwz 0,908(31)
	.loc 8 392 0
	stw 3,920(31)
.LVL1302:
	.loc 8 393 0
	cmpwi 7,0,0
	ble- 7,.L932
	.loc 4 3148 0
	addi 11,27,-4
.LBE5108:
.LBE5107:
.LBE5106:
.LBE5105:
.LBB5124:
.LBB5089:
	.loc 8 393 0
	li 9,0
	b .L933
.LVL1303:
.L991:
.LBE5089:
.LBE5124:
.LBB5125:
.LBB5121:
.LBB5117:
.LBB5113:
	lwz 3,920(31)
.LVL1304:
.L933:
	.loc 8 394 0
	lwzu 10,4(11)
	slwi 0,9,2
	.loc 8 393 0
	addi 9,9,1
.LVL1305:
	.loc 8 394 0
	stwx 10,3,0
	.loc 8 393 0
	lwz 0,0(29)
	cmpw 7,9,0
	blt+ 7,.L991
.LVL1306:
.L932:
	.loc 8 398 0
	cmpwi 7,27,0
	beq- 7,.L930
	.loc 8 399 0
	mr 3,27
	bl _ZdaPv
.LVL1307:
.L930:
.LBE5113:
.LBE5117:
	.loc 8 302 0
	stw 28,908(31)
.LVL1308:
	li 29,0
.LVL1309:
.L934:
.LBE5121:
.LBE5125:
.LBB5126:
.LBB5127:
	.loc 8 589 0 discriminator 2
	lwz 4,920(31)
	.loc 4 3148 0 discriminator 2
	slwi 0,29,2
.LBE5127:
.LBE5126:
	.loc 4 3187 0 discriminator 2
	mr 3,30
	.loc 4 3186 0 discriminator 2
	addi 29,29,1
.LVL1310:
	.loc 4 3187 0 discriminator 2
	add 4,4,0
	bl _ZN13idRestoreGame7ReadIntERi
.LVL1311:
	.loc 4 3186 0 discriminator 2
	lwz 0,908(31)
	cmpw 7,0,29
	bgt+ 7,.L934
.LVL1312:
.L929:
	.loc 4 3190 0
	mr 3,30
	addi 4,1,8
	bl _ZN13idRestoreGame7ReadIntERi
.LBB5128:
.LBB5129:
	.loc 8 319 0
	lwz 27,936(31)
	.loc 8 317 0
	li 0,1
.LBE5129:
.LBE5128:
	.loc 4 3191 0
	addi 28,31,924
.LVL1313:
.LBB5187:
.LBB5185:
	.loc 8 319 0
	cmpwi 7,27,0
	.loc 8 317 0
	stw 0,932(31)
	.loc 8 319 0
	beq- 7,.L935
	.loc 8 321 0
	lwz 29,924(31)
.LVL1314:
	.loc 8 323 0
	lwz 0,928(31)
	cmpw 7,29,0
	beq- 7,.L935
.LVL1315:
.LBB5130:
.LBB5131:
	.loc 8 375 0
	cmpwi 7,29,0
	ble- 7,.L992
.LVL1316:
	.loc 8 386 0
	stw 29,928(31)
	.loc 8 392 0
	mulli 3,29,52
	bl _Znaj
.LVL1317:
	lis 7,mat3_identity@ha
	mr 8,3
	li 4,0
	la 7,mat3_identity@l(7)
	addi 26,3,40
.LBB5132:
.LBB5133:
	.loc 12 471 0
	li 12,0
.LBB5134:
.LBB5135:
	.loc 9 416 0
	li 5,0
.L938:
.LVL1318:
.LBE5135:
.LBE5134:
	.loc 12 471 0
	stw 12,0(8)
.LVL1319:
.LBB5138:
.LBB5139:
.LBB5140:
	.file 16 "d:/Data/Nintendo/DoomGX/src/game/anim/../../idlib/../idlib/math/Matrix.h"
	.loc 16 333 0
	addi 6,8,4
	li 10,0
.L937:
.LBB5141:
.LBB5142:
	.loc 9 424 0
	mr 11,7
	mr 9,6
	lwzux 0,11,10
.LBE5142:
.LBE5141:
	.loc 16 333 0
	cmpwi 7,10,24
.LBB5145:
.LBB5143:
	.loc 9 424 0
	stwux 0,9,10
.LBE5143:
.LBE5145:
	.loc 16 333 0
	addi 10,10,12
.LBB5146:
.LBB5144:
	.loc 9 425 0
	lwz 0,4(11)
	stw 0,4(9)
	.loc 9 426 0
	lwz 0,8(11)
	stw 0,8(9)
.LBE5144:
.LBE5146:
	.loc 16 333 0
	bne+ 7,.L937
.LBE5140:
.LBE5139:
.LBE5138:
.LBB5151:
.LBB5136:
	.loc 9 416 0
	addi 4,4,1
.LBE5136:
.LBE5151:
.LBB5152:
.LBB5149:
.LBB5147:
	.loc 4 3148 0
	subf 9,3,8
.LBE5147:
.LBE5149:
.LBE5152:
.LBE5133:
.LBE5132:
	.loc 8 392 0
	cmpw 7,29,4
.LBB5156:
.LBB5155:
.LBB5153:
.LBB5150:
.LBB5148:
	.loc 4 3148 0
	add 11,9,26
.LBE5148:
.LBE5150:
.LBE5153:
.LBB5154:
.LBB5137:
	.loc 9 416 0
	stw 5,8(11)
	addi 8,8,52
.LVL1320:
	stw 5,4(11)
	stwx 5,9,26
.LBE5137:
.LBE5154:
.LBE5155:
.LBE5156:
	.loc 8 392 0
	bne+ 7,.L938
	.loc 8 393 0
	lwz 0,924(31)
	.loc 8 392 0
	stw 3,936(31)
.LVL1321:
	.loc 8 393 0
	cmpwi 7,0,0
	ble- 7,.L939
	mr 8,27
.LVL1322:
	li 6,0
.LVL1323:
	li 29,0
.LVL1324:
	addi 26,27,40
.LVL1325:
.L941:
.LBB5157:
.LBB5158:
	.loc 12 461 0
	lwz 0,0(8)
.LBE5158:
.LBE5157:
	.loc 8 394 0
	add 7,3,6
.LVL1326:
.LBB5178:
.LBB5175:
.LBB5159:
.LBB5160:
	.loc 16 333 0
	addi 4,7,4
	addi 5,8,4
.LBE5160:
.LBE5159:
	.loc 12 461 0
	stwx 0,3,6
.LVL1327:
.LBB5168:
.LBB5167:
	.loc 16 333 0
	li 10,0
.L940:
.LBB5161:
.LBB5162:
	.loc 9 424 0
	mr 11,5
	mr 9,4
	lwzux 0,11,10
.LBE5162:
.LBE5161:
	.loc 16 333 0
	cmpwi 7,10,24
.LBB5165:
.LBB5163:
	.loc 9 424 0
	stwux 0,9,10
.LBE5163:
.LBE5165:
	.loc 16 333 0
	addi 10,10,12
.LBB5166:
.LBB5164:
	.loc 9 425 0
	lwz 0,4(11)
	stw 0,4(9)
	.loc 9 426 0
	lwz 0,8(11)
	stw 0,8(9)
.LBE5164:
.LBE5166:
	.loc 16 333 0
	bne+ 7,.L940
.LVL1328:
.LBE5167:
.LBE5168:
.LBB5169:
.LBB5170:
	.loc 9 424 0
	subf 9,27,8
.LBE5170:
.LBE5169:
.LBE5175:
.LBE5178:
	.loc 8 393 0
	addi 29,29,1
.LVL1329:
.LBB5179:
.LBB5176:
.LBB5173:
.LBB5171:
	.loc 9 424 0
	lwzux 0,9,26
.LBE5171:
.LBE5173:
.LBE5176:
.LBE5179:
	.loc 8 393 0
	addi 6,6,52
	addi 8,8,52
.LVL1330:
.LBB5180:
.LBB5177:
.LBB5174:
.LBB5172:
	.loc 9 424 0
	stw 0,40(7)
	.loc 9 425 0
	lwz 0,4(9)
	stw 0,44(7)
	.loc 9 426 0
	lwz 0,8(9)
	stw 0,48(7)
.LBE5172:
.LBE5174:
.LBE5177:
.LBE5180:
	.loc 8 393 0
	lwz 0,0(28)
	cmpw 7,29,0
	bge- 7,.L939
.LVL1331:
	lwz 3,936(31)
	b .L941
.LVL1332:
.L939:
	.loc 8 399 0
	mr 3,27
	bl _ZdaPv
.LVL1333:
.L935:
.LBE5131:
.LBE5130:
.LBE5185:
.LBE5187:
	.loc 4 3192 0
	lwz 29,8(1)
.LVL1334:
.LBB5188:
.LBB5189:
.LBB5190:
.LBB5191:
	.loc 8 375 0
	cmpwi 4,29,0
	ble- 4,.L993
	.loc 8 380 0
	lwz 0,928(31)
	cmpw 7,29,0
	beq- 7,.L945
	.loc 8 387 0
	lwz 0,924(31)
	.loc 8 385 0
	lwz 27,936(31)
.LVL1335:
	.loc 8 387 0
	cmpw 7,29,0
	.loc 8 386 0
	stw 29,928(31)
	.loc 8 387 0
	blt- 7,.L994
.L946:
	.loc 8 392 0
	mulli 3,29,52
	bl _Znaj
.LVL1336:
	beq- 4,.L947
	lis 7,mat3_identity@ha
	mr 8,3
	li 4,0
	la 7,mat3_identity@l(7)
	addi 26,3,40
.LBB5192:
.LBB5193:
	.loc 12 471 0
	li 12,0
.LBB5194:
.LBB5195:
	.loc 9 416 0
	li 5,0
.L949:
.LVL1337:
.LBE5195:
.LBE5194:
	.loc 12 471 0
	stw 12,0(8)
.LVL1338:
.LBB5198:
.LBB5199:
.LBB5200:
	.loc 16 333 0
	addi 6,8,4
	li 10,0
.L948:
.LBB5201:
.LBB5202:
	.loc 9 424 0
	mr 11,7
	mr 9,6
	lwzux 0,11,10
.LBE5202:
.LBE5201:
	.loc 16 333 0
	cmpwi 7,10,24
.LBB5205:
.LBB5203:
	.loc 9 424 0
	stwux 0,9,10
.LBE5203:
.LBE5205:
	.loc 16 333 0
	addi 10,10,12
.LBB5206:
.LBB5204:
	.loc 9 425 0
	lwz 0,4(11)
	stw 0,4(9)
	.loc 9 426 0
	lwz 0,8(11)
	stw 0,8(9)
.LBE5204:
.LBE5206:
	.loc 16 333 0
	bne+ 7,.L948
.LBE5200:
.LBE5199:
.LBE5198:
.LBB5211:
.LBB5196:
	.loc 9 416 0
	addi 4,4,1
.LBE5196:
.LBE5211:
.LBB5212:
.LBB5209:
.LBB5207:
	.loc 4 3148 0
	subf 9,3,8
.LBE5207:
.LBE5209:
.LBE5212:
.LBE5193:
.LBE5192:
	.loc 8 392 0
	cmpw 7,29,4
.LBB5216:
.LBB5215:
.LBB5213:
.LBB5210:
.LBB5208:
	.loc 4 3148 0
	add 11,9,26
.LBE5208:
.LBE5210:
.LBE5213:
.LBB5214:
.LBB5197:
	.loc 9 416 0
	stw 5,8(11)
	addi 8,8,52
.LVL1339:
	stw 5,4(11)
	stwx 5,9,26
.LBE5197:
.LBE5214:
.LBE5215:
.LBE5216:
	.loc 8 392 0
	bne+ 7,.L949
.LVL1340:
.L947:
	.loc 8 393 0
	lwz 0,924(31)
	.loc 8 392 0
	stw 3,936(31)
.LVL1341:
	.loc 8 393 0
	cmpwi 7,0,0
	ble- 7,.L950
	mr 8,27
	li 6,0
	li 26,0
	addi 12,27,40
.LVL1342:
.L952:
.LBB5217:
.LBB5218:
	.loc 12 461 0
	lwz 0,0(8)
.LBE5218:
.LBE5217:
	.loc 8 394 0
	add 7,3,6
.LVL1343:
.LBB5238:
.LBB5235:
.LBB5219:
.LBB5220:
	.loc 16 333 0
	addi 4,7,4
	addi 5,8,4
.LBE5220:
.LBE5219:
	.loc 12 461 0
	stwx 0,3,6
.LVL1344:
.LBB5228:
.LBB5227:
	.loc 16 333 0
	li 10,0
.L951:
.LBB5221:
.LBB5222:
	.loc 9 424 0
	mr 11,5
	mr 9,4
	lwzux 0,11,10
.LBE5222:
.LBE5221:
	.loc 16 333 0
	cmpwi 7,10,24
.LBB5225:
.LBB5223:
	.loc 9 424 0
	stwux 0,9,10
.LBE5223:
.LBE5225:
	.loc 16 333 0
	addi 10,10,12
.LBB5226:
.LBB5224:
	.loc 9 425 0
	lwz 0,4(11)
	stw 0,4(9)
	.loc 9 426 0
	lwz 0,8(11)
	stw 0,8(9)
.LBE5224:
.LBE5226:
	.loc 16 333 0
	bne+ 7,.L951
.LVL1345:
.LBE5227:
.LBE5228:
.LBB5229:
.LBB5230:
	.loc 9 424 0
	subf 9,27,8
.LBE5230:
.LBE5229:
.LBE5235:
.LBE5238:
	.loc 8 393 0
	addi 26,26,1
.LVL1346:
.LBB5239:
.LBB5236:
.LBB5233:
.LBB5231:
	.loc 9 424 0
	lwzux 0,9,12
.LBE5231:
.LBE5233:
.LBE5236:
.LBE5239:
	.loc 8 393 0
	addi 6,6,52
	addi 8,8,52
.LVL1347:
.LBB5240:
.LBB5237:
.LBB5234:
.LBB5232:
	.loc 9 424 0
	stw 0,40(7)
	.loc 9 425 0
	lwz 0,4(9)
	stw 0,44(7)
	.loc 9 426 0
	lwz 0,8(9)
	stw 0,48(7)
.LBE5232:
.LBE5234:
.LBE5237:
.LBE5240:
	.loc 8 393 0
	lwz 0,0(28)
	cmpw 7,26,0
	bge- 7,.L950
.LVL1348:
	lwz 3,936(31)
	b .L952
.LVL1349:
.L950:
	.loc 8 398 0
	cmpwi 7,27,0
	beq- 7,.L945
	.loc 8 399 0
	mr 3,27
	bl _ZdaPv
.LVL1350:
.L945:
.LBE5191:
.LBE5190:
	.loc 8 302 0
	stw 29,924(31)
.LVL1351:
	li 28,0
.LVL1352:
	li 29,0
.LVL1353:
.L953:
.LBE5189:
.LBE5188:
.LBB5253:
.LBB5254:
	.loc 8 589 0 discriminator 2
	lwz 4,936(31)
.LBE5254:
.LBE5253:
	.loc 4 3194 0 discriminator 2
	mr 3,30
	.loc 4 3193 0 discriminator 2
	addi 28,28,1
.LVL1354:
	.loc 4 3194 0 discriminator 2
	add 4,4,29
	bl _ZN13idRestoreGame7ReadIntERi
.LBB5255:
.LBB5256:
	.loc 8 589 0 discriminator 2
	lwz 4,936(31)
.LBE5256:
.LBE5255:
	.loc 4 3195 0 discriminator 2
	mr 3,30
.LBB5258:
.LBB5257:
	.loc 8 589 0 discriminator 2
	add 4,4,29
.LBE5257:
.LBE5258:
	.loc 4 3195 0 discriminator 2
	addi 4,4,4
	bl _ZN13idRestoreGame8ReadMat3ER6idMat3
.LBB5259:
.LBB5260:
	.loc 8 589 0 discriminator 2
	lwz 4,936(31)
.LBE5260:
.LBE5259:
	.loc 4 3196 0 discriminator 2
	mr 3,30
.LBB5262:
.LBB5261:
	.loc 8 589 0 discriminator 2
	add 4,4,29
.LBE5261:
.LBE5262:
	.loc 4 3193 0 discriminator 2
	addi 29,29,52
	.loc 4 3196 0 discriminator 2
	addi 4,4,40
	bl _ZN13idRestoreGame8ReadVec3ER6idVec3
.LVL1355:
	.loc 4 3193 0 discriminator 2
	lwz 0,924(31)
	cmpw 7,0,28
	bgt+ 7,.L953
.LVL1356:
.L944:
	.loc 4 3199 0
	mr 3,30
	addi 4,1,8
	bl _ZN13idRestoreGame7ReadIntERi
.LBB5263:
.LBB5264:
	.loc 8 319 0
	lwz 28,952(31)
	.loc 8 317 0
	li 0,1
.LBE5264:
.LBE5263:
	.loc 4 3200 0
	addi 29,31,940
.LVL1357:
.LBB5290:
.LBB5288:
	.loc 8 319 0
	cmpwi 7,28,0
	.loc 8 317 0
	stw 0,948(31)
	.loc 8 319 0
	beq- 7,.L954
	.loc 8 321 0
	lwz 3,940(31)
.LVL1358:
	.loc 8 323 0
	lwz 0,944(31)
	cmpw 7,3,0
	beq- 7,.L954
.LVL1359:
.LBB5265:
.LBB5266:
	.loc 8 375 0
	cmpwi 7,3,0
	ble- 7,.L995
.LVL1360:
	.loc 8 386 0
	stw 3,944(31)
	.loc 8 392 0
	mulli 3,3,28
	bl _Znaj
.LVL1361:
	.loc 8 393 0
	lwz 0,940(31)
	.loc 8 392 0
	stw 3,952(31)
.LVL1362:
	.loc 8 393 0
	cmpwi 7,0,0
	ble- 7,.L956
	mr 9,28
	li 8,0
	li 7,0
	addi 6,28,16
	b .L957
.LVL1363:
.L996:
	lwz 3,952(31)
.LVL1364:
.L957:
.LBB5267:
.LBB5268:
.LBB5269:
	.loc 10 127 0
	lwz 0,0(9)
.LBE5269:
.LBE5268:
.LBE5267:
	.loc 8 394 0
	add 11,3,8
.LVL1365:
.LBB5280:
.LBB5273:
.LBB5274:
	.loc 9 424 0
	subf 10,28,9
.LBE5274:
.LBE5273:
.LBE5280:
	.loc 8 393 0
	addi 7,7,1
.LBB5281:
.LBB5276:
.LBB5270:
	.loc 10 127 0
	stwx 0,3,8
.LBE5270:
.LBE5276:
.LBE5281:
	.loc 8 393 0
	addi 8,8,28
.LVL1366:
.LBB5282:
.LBB5277:
.LBB5271:
	.loc 10 128 0
	lwz 0,4(9)
	stw 0,4(11)
	.loc 10 129 0
	lwz 0,8(9)
	stw 0,8(11)
	.loc 10 130 0
	lwz 0,12(9)
.LBE5271:
.LBE5277:
.LBE5282:
	.loc 8 393 0
	addi 9,9,28
.LBB5283:
.LBB5278:
.LBB5272:
	.loc 10 130 0
	stw 0,12(11)
.LVL1367:
.LBE5272:
.LBE5278:
.LBB5279:
.LBB5275:
	.loc 9 424 0
	lwzux 0,10,6
	stw 0,16(11)
	.loc 9 425 0
	lwz 0,4(10)
	stw 0,20(11)
	.loc 9 426 0
	lwz 0,8(10)
	stw 0,24(11)
.LBE5275:
.LBE5279:
.LBE5283:
	.loc 8 393 0
	lwz 0,0(29)
	cmpw 7,7,0
	blt+ 7,.L996
.LVL1368:
.L956:
	.loc 8 399 0
	mr 3,28
	bl _ZdaPv
.LVL1369:
.L954:
.LBE5266:
.LBE5265:
.LBE5288:
.LBE5290:
	.loc 4 3201 0
	lwz 27,8(1)
.LVL1370:
.LBB5291:
.LBB5292:
.LBB5293:
.LBB5294:
	.loc 8 375 0
	cmpwi 7,27,0
	ble- 7,.L997
	.loc 8 380 0
	lwz 0,944(31)
	cmpw 7,27,0
	beq- 7,.L961
	.loc 8 387 0
	lwz 0,940(31)
	.loc 8 385 0
	lwz 28,952(31)
.LVL1371:
	.loc 8 387 0
	cmpw 7,27,0
	.loc 8 386 0
	stw 27,944(31)
	.loc 8 387 0
	blt- 7,.L998
.L962:
	.loc 8 392 0
	mulli 3,27,28
	bl _Znaj
.LVL1372:
	.loc 8 393 0
	lwz 0,940(31)
	.loc 8 392 0
	stw 3,952(31)
.LVL1373:
	.loc 8 393 0
	cmpwi 7,0,0
	ble- 7,.L963
	mr 9,28
	li 8,0
	li 7,0
	addi 6,28,16
	b .L964
.LVL1374:
.L999:
	lwz 3,952(31)
.LVL1375:
.L964:
.LBB5295:
.LBB5296:
.LBB5297:
	.loc 10 127 0
	lwz 0,0(9)
.LBE5297:
.LBE5296:
.LBE5295:
	.loc 8 394 0
	add 11,3,8
.LVL1376:
.LBB5308:
.LBB5301:
.LBB5302:
	.loc 9 424 0
	subf 10,28,9
.LBE5302:
.LBE5301:
.LBE5308:
	.loc 8 393 0
	addi 7,7,1
.LBB5309:
.LBB5304:
.LBB5298:
	.loc 10 127 0
	stwx 0,3,8
.LBE5298:
.LBE5304:
.LBE5309:
	.loc 8 393 0
	addi 8,8,28
.LVL1377:
.LBB5310:
.LBB5305:
.LBB5299:
	.loc 10 128 0
	lwz 0,4(9)
	stw 0,4(11)
	.loc 10 129 0
	lwz 0,8(9)
	stw 0,8(11)
	.loc 10 130 0
	lwz 0,12(9)
.LBE5299:
.LBE5305:
.LBE5310:
	.loc 8 393 0
	addi 9,9,28
.LBB5311:
.LBB5306:
.LBB5300:
	.loc 10 130 0
	stw 0,12(11)
.LVL1378:
.LBE5300:
.LBE5306:
.LBB5307:
.LBB5303:
	.loc 9 424 0
	lwzux 0,10,6
	stw 0,16(11)
	.loc 9 425 0
	lwz 0,4(10)
	stw 0,20(11)
	.loc 9 426 0
	lwz 0,8(10)
	stw 0,24(11)
.LBE5303:
.LBE5307:
.LBE5311:
	.loc 8 393 0
	lwz 0,0(29)
	cmpw 7,7,0
	blt+ 7,.L999
.LVL1379:
.L963:
	.loc 8 398 0
	cmpwi 7,28,0
	beq- 7,.L961
	.loc 8 399 0
	mr 3,28
	bl _ZdaPv
.LVL1380:
.L961:
.LBE5294:
.LBE5293:
	.loc 8 302 0
	stw 27,940(31)
.LVL1381:
	li 29,0
.LVL1382:
	li 28,0
.LVL1383:
.L965:
.LBE5292:
.LBE5291:
.LBB5325:
.LBB5326:
	.loc 8 589 0 discriminator 2
	lwz 4,952(31)
.LBE5326:
.LBE5325:
	.loc 4 3203 0 discriminator 2
	mr 3,30
	.loc 4 3202 0 discriminator 2
	addi 28,28,1
.LVL1384:
	.loc 4 3203 0 discriminator 2
	add 4,4,29
	bl _ZN13idRestoreGame9ReadFloatERf
.LBB5327:
.LBB5328:
	.loc 8 589 0 discriminator 2
	lwz 4,952(31)
.LBE5328:
.LBE5327:
	.loc 4 3204 0 discriminator 2
	mr 3,30
.LBB5330:
.LBB5329:
	.loc 8 589 0 discriminator 2
	add 4,4,29
.LBE5329:
.LBE5330:
	.loc 4 3204 0 discriminator 2
	addi 4,4,4
	bl _ZN13idRestoreGame9ReadFloatERf
.LBB5331:
.LBB5332:
	.loc 8 589 0 discriminator 2
	lwz 4,952(31)
.LBE5332:
.LBE5331:
	.loc 4 3205 0 discriminator 2
	mr 3,30
.LBB5334:
.LBB5333:
	.loc 8 589 0 discriminator 2
	add 4,4,29
.LBE5333:
.LBE5334:
	.loc 4 3205 0 discriminator 2
	addi 4,4,8
	bl _ZN13idRestoreGame9ReadFloatERf
.LBB5335:
.LBB5336:
	.loc 8 589 0 discriminator 2
	lwz 4,952(31)
.LBE5336:
.LBE5335:
	.loc 4 3206 0 discriminator 2
	mr 3,30
.LBB5338:
.LBB5337:
	.loc 8 589 0 discriminator 2
	add 4,4,29
.LBE5337:
.LBE5338:
	.loc 4 3206 0 discriminator 2
	addi 4,4,12
	bl _ZN13idRestoreGame9ReadFloatERf
.LBB5339:
.LBB5340:
	.loc 8 589 0 discriminator 2
	lwz 4,952(31)
.LBE5340:
.LBE5339:
	.loc 4 3207 0 discriminator 2
	mr 3,30
.LBB5342:
.LBB5341:
	.loc 8 589 0 discriminator 2
	add 4,4,29
.LBE5341:
.LBE5342:
	.loc 4 3202 0 discriminator 2
	addi 29,29,28
	.loc 4 3207 0 discriminator 2
	addi 4,4,16
	bl _ZN13idRestoreGame8ReadVec3ER6idVec3
.LVL1385:
	.loc 4 3202 0 discriminator 2
	lwz 0,940(31)
	cmpw 7,0,28
	bgt+ 7,.L965
.LVL1386:
.L960:
	.loc 4 3210 0
	addi 4,31,956
	mr 3,30
	bl _ZN13idRestoreGame10ReadBoundsER8idBounds
	.loc 4 3211 0
	mr 3,30
	addi 4,31,980
	.loc 4 3215 0
	li 28,0
	.loc 4 3211 0
	bl _ZN13idRestoreGame7ReadIntERi
	.loc 4 3213 0
	mr 3,30
	addi 4,31,877
	bl _ZN13idRestoreGame8ReadBoolERb
.LVL1387:
.L966:
	mulli 27,28,168
.LBB5343:
.LBB5322:
	.loc 8 302 0 discriminator 1
	li 29,0
.LVL1388:
.L967:
.LBE5322:
.LBE5343:
	.loc 4 3217 0 discriminator 2
	mulli 3,29,56
	lwz 5,0(31)
	mr 4,30
	add 3,3,27
	add 3,31,3
	addi 3,3,8
	bl _ZN11idAnimBlend7RestoreEP13idRestoreGamePK14idDeclModelDef
.LVL1389:
	.loc 4 3216 0 discriminator 2
	cmpwi 7,29,2
	addi 29,29,1
.LVL1390:
	bne+ 7,.L967
.LVL1391:
	.loc 4 3215 0
	cmpwi 7,28,4
	addi 28,28,1
.LVL1392:
	bne+ 7,.L966
.LBE5358:
	.loc 4 3220 0
	lwz 0,60(1)
	lwz 12,28(1)
	mtlr 0
	lwz 26,32(1)
	lwz 27,36(1)
	mtcrf 8,12
	lwz 28,40(1)
.LVL1393:
	lwz 29,44(1)
.LVL1394:
	lwz 30,48(1)
.LVL1395:
	lwz 31,52(1)
.LVL1396:
	addi 1,1,56
	.cfi_remember_state
.LCFI205:
	.cfi_def_cfa_offset 0
	.cfi_restore 70
	.cfi_restore 31
	.cfi_restore 30
	.cfi_restore 29
	.cfi_restore 28
	.cfi_restore 27
	.cfi_restore 26
	blr
.LVL1397:
.L994:
.LCFI206:
	.cfi_restore_state
.LBB5359:
.LBB5344:
.LBB5251:
.LBB5248:
.LBB5245:
	.loc 8 388 0
	stw 29,924(31)
	b .L946
.LVL1398:
.L998:
.LBE5245:
.LBE5248:
.LBE5251:
.LBE5344:
.LBB5345:
.LBB5323:
.LBB5319:
.LBB5316:
	stw 27,940(31)
	b .L962
.LVL1399:
.L985:
.LBE5316:
.LBE5319:
.LBE5323:
.LBE5345:
.LBB5346:
.LBB5081:
.LBB5077:
.LBB5074:
	stw 28,848(31)
	b .L914
.LVL1400:
.L990:
.LBE5074:
.LBE5077:
.LBE5081:
.LBE5346:
.LBB5347:
.LBB5122:
.LBB5118:
.LBB5114:
	stw 28,908(31)
	b .L931
.LVL1401:
.L913:
.LBE5114:
.LBE5118:
.LBE5122:
.LBE5347:
.LBB5348:
.LBB5082:
	.loc 8 302 0
	stw 28,848(31)
.LVL1402:
	b .L969
.LVL1403:
.L993:
.LBE5082:
.LBE5348:
.LBB5349:
.LBB5252:
.LBB5249:
.LBB5246:
.LBB5241:
.LBB5242:
	.loc 8 193 0
	lwz 3,936(31)
	cmpwi 7,3,0
	beq- 7,.L943
	.loc 8 194 0
	bl _ZdaPv
.L943:
	.loc 8 197 0
	li 0,0
.LBE5242:
.LBE5241:
.LBE5246:
.LBE5249:
	.loc 8 302 0
	stw 29,924(31)
.LVL1404:
.LBB5250:
.LBB5247:
.LBB5244:
.LBB5243:
	.loc 8 197 0
	stw 0,936(31)
	.loc 8 199 0
	stw 0,928(31)
	b .L944
.LVL1405:
.L997:
.LBE5243:
.LBE5244:
.LBE5247:
.LBE5250:
.LBE5252:
.LBE5349:
.LBB5350:
.LBB5324:
.LBB5320:
.LBB5317:
.LBB5312:
.LBB5313:
	.loc 8 193 0
	lwz 3,952(31)
	cmpwi 7,3,0
	beq- 7,.L959
	.loc 8 194 0
	bl _ZdaPv
.L959:
	.loc 8 197 0
	li 0,0
.LBE5313:
.LBE5312:
.LBE5317:
.LBE5320:
	.loc 8 302 0
	stw 27,940(31)
.LVL1406:
.LBB5321:
.LBB5318:
.LBB5315:
.LBB5314:
	.loc 8 197 0
	stw 0,952(31)
	.loc 8 199 0
	stw 0,944(31)
	b .L960
.LVL1407:
.L989:
.LBE5314:
.LBE5315:
.LBE5318:
.LBE5321:
.LBE5324:
.LBE5350:
.LBB5351:
.LBB5123:
.LBB5119:
.LBB5115:
.LBB5109:
.LBB5110:
	.loc 8 193 0
	lwz 3,920(31)
	cmpwi 7,3,0
	beq- 7,.L928
	.loc 8 194 0
	bl _ZdaPv
.L928:
	.loc 8 197 0
	li 0,0
.LBE5110:
.LBE5109:
.LBE5115:
.LBE5119:
	.loc 8 302 0
	stw 28,908(31)
.LVL1408:
.LBB5120:
.LBB5116:
.LBB5112:
.LBB5111:
	.loc 8 197 0
	stw 0,920(31)
	.loc 8 199 0
	stw 0,912(31)
	b .L929
.LVL1409:
.L984:
.LBE5111:
.LBE5112:
.LBE5116:
.LBE5120:
.LBE5123:
.LBE5351:
.LBB5352:
.LBB5083:
.LBB5078:
.LBB5075:
.LBB5072:
.LBB5070:
	.loc 8 193 0
	lwz 3,860(31)
	mr 0,28
	cmpwi 7,3,0
	beq- 7,.L911
	.loc 8 194 0
	bl _ZdaPv
	lwz 0,8(1)
.L911:
	.loc 8 197 0
	li 9,0
	stw 9,860(31)
	.loc 8 199 0
	stw 9,852(31)
	b .L912
.LVL1410:
.L992:
.LBE5070:
.LBE5072:
.LBE5075:
.LBE5078:
.LBE5083:
.LBE5352:
.LBB5353:
.LBB5186:
.LBB5184:
.LBB5183:
.LBB5181:
.LBB5182:
	.loc 8 194 0
	mr 3,27
	bl _ZdaPv
	.loc 8 197 0
	li 0,0
	stw 0,936(31)
	.loc 8 198 0
	stw 0,924(31)
	.loc 8 199 0
	stw 0,928(31)
	b .L935
.LVL1411:
.L995:
.LBE5182:
.LBE5181:
.LBE5183:
.LBE5184:
.LBE5186:
.LBE5353:
.LBB5354:
.LBB5289:
.LBB5287:
.LBB5286:
.LBB5284:
.LBB5285:
	.loc 8 194 0
	mr 3,28
.LVL1412:
	bl _ZdaPv
.LVL1413:
	.loc 8 197 0
	li 0,0
	stw 0,952(31)
	.loc 8 198 0
	stw 0,940(31)
	.loc 8 199 0
	stw 0,944(31)
	b .L954
.LVL1414:
.L987:
.LBE5285:
.LBE5284:
.LBE5286:
.LBE5287:
.LBE5289:
.LBE5354:
.LBB5355:
.LBB5102:
.LBB5100:
.LBB5098:
.LBB5095:
.LBB5096:
	.loc 8 194 0
	mr 3,28
.LVL1415:
	bl _ZdaPv
.LVL1416:
	.loc 8 197 0
	li 0,0
	stw 0,920(31)
	.loc 8 198 0
	stw 0,908(31)
	.loc 8 199 0
	stw 0,912(31)
	b .L923
.LBE5096:
.LBE5095:
.LBE5098:
.LBE5100:
.LBE5102:
.LBE5355:
.LBE5359:
	.cfi_endproc
.LFE2921:
	.size	_ZN10idAnimator7RestoreEP13idRestoreGame, .-_ZN10idAnimator7RestoreEP13idRestoreGame
	.align 2
	.globl _ZN10idAnimator8FreeDataEv
	.type	_ZN10idAnimator8FreeDataEv, @function
_ZN10idAnimator8FreeDataEv:
.LFB2925:
	.loc 4 3227 0
	.cfi_startproc
.LVL1417:
	mflr 0
	stwu 1,-32(1)
.LCFI207:
	.cfi_def_cfa_offset 32
	.cfi_register 65, 0
	stw 31,28(1)
	mr 31,3
	.cfi_offset 31, -4
	stw 0,36(1)
	stw 27,12(1)
	stw 28,16(1)
	stw 29,20(1)
	stw 30,24(1)
.LBB5371:
	.loc 4 3230 0
	lwz 3,4(3)
.LVL1418:
	cmpwi 7,3,0
	beq- 7,.L1001
	.cfi_offset 30, -8
	.cfi_offset 29, -12
	.cfi_offset 28, -16
	.cfi_offset 27, -20
	.cfi_offset 65, 4
	.loc 4 3231 0
	li 4,4
	bl _ZN8idEntity14BecomeInactiveEi
.L1001:
.LVL1419:
.LBE5371:
	.loc 4 3227 0 discriminator 1
	li 30,0
.LVL1420:
.L1002:
.LBB5386:
	.loc 4 3236 0 discriminator 1
	mulli 29,30,168
	li 4,0
	add 3,31,29
	addi 3,3,8
	bl _ZN11idAnimBlend5ResetEPK14idDeclModelDef
.LVL1421:
	add 3,31,29
	addi 3,3,64
	li 4,0
	bl _ZN11idAnimBlend5ResetEPK14idDeclModelDef
.LVL1422:
	add 3,31,29
	addi 3,3,120
	li 4,0
	bl _ZN11idAnimBlend5ResetEPK14idDeclModelDef
.LVL1423:
	.loc 4 3234 0 discriminator 1
	cmpwi 7,30,4
	addi 30,30,1
.LVL1424:
	bne+ 7,.L1002
.LBB5372:
.LBB5373:
	.loc 8 218 0
	lwz 0,848(31)
.LBE5373:
.LBE5372:
	.loc 4 3240 0
	addi 29,31,848
.LVL1425:
.LBB5380:
.LBB5378:
	.loc 8 218 0
	cmpwi 7,0,0
	ble- 7,.L1003
	li 30,0
.LVL1426:
	.loc 8 220 0
	li 27,0
.LVL1427:
.L1004:
	.loc 8 219 0
	lwz 9,12(29)
	.loc 4 3227 0
	slwi 28,30,2
	.loc 8 218 0
	addi 30,30,1
	.loc 8 219 0
	lwzx 3,9,28
	bl _ZdlPv
.LVL1428:
	.loc 8 220 0
	lwz 9,12(29)
	stwx 27,9,28
	.loc 8 218 0
	lwz 0,0(29)
	cmpw 7,30,0
	blt+ 7,.L1004
.LVL1429:
.L1003:
.LBB5374:
.LBB5375:
	.loc 8 193 0
	lwz 3,860(31)
	cmpwi 7,3,0
	beq- 7,.L1005
	.loc 8 194 0
	bl _ZdaPv
.L1005:
	.loc 8 197 0
	li 30,0
.LBE5375:
.LBE5374:
.LBE5378:
.LBE5380:
	.loc 4 3242 0
	lwz 3,868(31)
.LBB5381:
.LBB5379:
.LBB5377:
.LBB5376:
	.loc 8 197 0
	stw 30,860(31)
	.loc 8 198 0
	stw 30,848(31)
	.loc 8 199 0
	stw 30,852(31)
.LBE5376:
.LBE5377:
.LBE5379:
.LBE5381:
	.loc 4 3242 0
	bl _Z10Mem_Free16Pv
.LBB5382:
.LBB5383:
	.loc 4 4435 0
	li 0,-1
	stw 0,872(31)
	.loc 4 4436 0
	li 0,1
.LBE5383:
.LBE5382:
	.loc 4 3243 0
	stw 30,868(31)
	.loc 4 3244 0
	stw 30,864(31)
	.loc 4 3246 0
	stw 30,0(31)
.LVL1430:
.LBB5385:
.LBB5384:
	.loc 4 4436 0
	stb 0,878(31)
.LBE5384:
.LBE5385:
.LBE5386:
	.loc 4 3249 0
	lwz 0,36(1)
	lwz 27,12(1)
	mtlr 0
	lwz 28,16(1)
	lwz 29,20(1)
	lwz 30,24(1)
	lwz 31,28(1)
.LVL1431:
	addi 1,1,32
.LCFI208:
	.cfi_def_cfa_offset 0
	.cfi_restore 31
	.cfi_restore 30
	.cfi_restore 29
	.cfi_restore 28
	.cfi_restore 27
	blr
	.cfi_endproc
.LFE2925:
	.size	_ZN10idAnimator8FreeDataEv, .-_ZN10idAnimator8FreeDataEv
	.align 2
	.globl _ZN10idAnimator9PushAnimsEiii
	.type	_ZN10idAnimator9PushAnimsEiii, @function
_ZN10idAnimator9PushAnimsEiii:
.LFB2926:
	.loc 4 3256 0
	.cfi_startproc
.LVL1432:
	mflr 0
.LBB5387:
	.loc 4 3260 0
	mulli 4,4,168
.LVL1433:
.LBE5387:
	.loc 4 3256 0
	stwu 1,-48(1)
.LCFI209:
	.cfi_def_cfa_offset 48
	.cfi_register 65, 0
	stw 29,36(1)
	mr 29,3
	.cfi_offset 29, -12
	stw 30,40(1)
	mr 30,5
	.cfi_offset 30, -8
	stw 31,44(1)
.LBB5394:
	.loc 4 3260 0
	add 31,3,4
	.cfi_offset 31, -4
.LBE5394:
	.loc 4 3256 0
	stw 0,52(1)
.LBB5395:
	.loc 4 3260 0
	addi 31,31,8
.LVL1434:
.LBE5395:
	.loc 4 3256 0
	stw 28,32(1)
.LBB5396:
.LBB5388:
.LBB5389:
	.loc 4 1191 0
	lwz 0,20(31)
	.cfi_offset 28, -16
	.cfi_offset 65, 4
.LVL1435:
	.loc 4 1192 0
	subf. 0,0,5
	ble- 0,.L1014
	.loc 4 1194 0
	lwz 9,24(31)
	cmpw 7,0,9
	bge- 7,.L1015
.LVL1436:
	.loc 4 1197 0
	lis 11,0x4330
	xoris 9,9,0x8000
	xoris 0,0,0x8000
	.loc 4 1198 0
	lfs 0,28(31)
	.loc 4 1197 0
	stw 9,20(1)
	lis 9,.LC7@ha
	stw 0,12(1)
	stw 11,8(1)
	stw 11,16(1)
	lfs 12,.LC7@l(9)
	lfd 11,16(1)
	lfd 13,8(1)
	fsub 13,13,12
	fsub 12,11,12
	.loc 4 1198 0
	lfs 11,32(31)
	.loc 4 1197 0
	frsp 13,13
	frsp 12,12
	.loc 4 1198 0
	fsubs 11,11,0
	.loc 4 1197 0
	fdivs 13,13,12
	.loc 4 1198 0
	fmadds 13,13,11,0
.LVL1437:
.L1010:
.LBE5389:
.LBE5388:
	.loc 4 3261 0
	lis 9,.LC8@ha
	lfs 0,.LC8@l(9)
	fcmpu 7,13,0
	beq- 7,.L1008
	.loc 4 3261 0 is_stmt 0 discriminator 2
	lwz 0,4(31)
	cmpw 7,0,30
	beq- 7,.L1008
.LVL1438:
	.loc 4 3266 0 is_stmt 1
	addi 28,31,56
	li 5,56
.LVL1439:
	mr 4,28
	addi 3,31,112
.LVL1440:
	stw 6,24(1)
	bl memcpy
.LVL1441:
	li 5,56
	mr 4,31
	mr 3,28
	bl memcpy
.LVL1442:
	.loc 4 3269 0
	lwz 4,0(29)
	mr 3,31
	bl _ZN11idAnimBlend5ResetEPK14idDeclModelDef
	.loc 4 3270 0
	lwz 6,24(1)
	mr 3,28
	mr 4,30
	mr 5,6
	bl _ZN11idAnimBlend5ClearEii
.LVL1443:
.LBB5391:
.LBB5392:
	.loc 4 4435 0
	li 0,-1
	stw 0,872(29)
	.loc 4 4436 0
	li 0,1
	stb 0,878(29)
.LVL1444:
.L1008:
.LBE5392:
.LBE5391:
.LBE5396:
	.loc 4 3272 0
	lwz 0,52(1)
	lwz 28,32(1)
	mtlr 0
	lwz 29,36(1)
.LVL1445:
	lwz 30,40(1)
.LVL1446:
	lwz 31,44(1)
.LVL1447:
	addi 1,1,48
	.cfi_remember_state
.LCFI210:
	.cfi_def_cfa_offset 0
	.cfi_restore 31
	.cfi_restore 30
	.cfi_restore 29
	.cfi_restore 28
	blr
.LVL1448:
.L1015:
.LCFI211:
	.cfi_restore_state
.LBB5397:
.LBB5393:
.LBB5390:
	.loc 4 1195 0
	lfs 13,32(31)
.LVL1449:
	b .L1010
.LVL1450:
.L1014:
	.loc 4 1193 0
	lfs 13,28(31)
.LVL1451:
	b .L1010
.LBE5390:
.LBE5393:
.LBE5397:
	.cfi_endproc
.LFE2926:
	.size	_ZN10idAnimator9PushAnimsEiii, .-_ZN10idAnimator9PushAnimsEiii
	.align 2
	.globl _ZN10idAnimator8SetModelEPKc
	.type	_ZN10idAnimator8SetModelEPKc, @function
_ZN10idAnimator8SetModelEPKc:
.LFB2927:
	.loc 4 3279 0
	.cfi_startproc
.LVL1452:
	stwu 1,-24(1)
.LCFI212:
	.cfi_def_cfa_offset 24
	mflr 0
	stw 29,12(1)
	mr 29,4
	.cfi_offset 29, -12
	.cfi_register 65, 0
	stw 30,16(1)
.LBB5398:
	.loc 4 3286 0
	li 30,0
	.cfi_offset 30, -8
.LBE5398:
	.loc 4 3279 0
	stw 31,20(1)
	mr 31,3
	.cfi_offset 31, -4
	stw 0,28(1)
	stw 28,8(1)
.LBB5405:
	.loc 4 3282 0
	.cfi_offset 28, -16
	.cfi_offset 65, 4
	bl _ZN10idAnimator8FreeDataEv
.LVL1453:
	.loc 4 3285 0
	cmpwi 7,29,0
	beq- 7,.L1017
	.loc 4 3285 0 is_stmt 0 discriminator 1
	lbz 0,0(29)
	cmpwi 7,0,0
