	.file	"AsyncServer.cpp"
	.section	".text"
.Ltext0:
	.section	.text._ZN14idFixedWinding5ClearEv,"axG",@progbits,_ZN14idFixedWinding5ClearEv,comdat
	.align 2
	.weak	_ZN14idFixedWinding5ClearEv
	.type	_ZN14idFixedWinding5ClearEv, @function
_ZN14idFixedWinding5ClearEv:
.LFB1502:
	.file 1 "d:/Data/Nintendo/DoomGX/src/framework/async/../../idlib/../idlib/geometry/Winding.h"
	.loc 1 398 0
	.cfi_startproc
.LVL0:
	.loc 1 399 0
	li 0,0
	.loc 1 400 0
	.loc 1 399 0
	stw 0,4(3)
	.loc 1 400 0
	blr
	.cfi_endproc
.LFE1502:
	.size	_ZN14idFixedWinding5ClearEv, .-_ZN14idFixedWinding5ClearEv
	.section	.text._ZN9idWinding5ClearEv,"axG",@progbits,_ZN9idWinding5ClearEv,comdat
	.align 2
	.weak	_ZN9idWinding5ClearEv
	.type	_ZN9idWinding5ClearEv, @function
_ZN9idWinding5ClearEv:
.LFB1473:
	.loc 1 249 0
	.cfi_startproc
.LVL1:
	mflr 0
	stwu 1,-16(1)
.LCFI0:
	.cfi_def_cfa_offset 16
	.cfi_register 65, 0
	stw 31,12(1)
	mr 31,3
	.cfi_offset 31, -4
	stw 0,20(1)
	.loc 1 250 0
	li 0,0
	.cfi_offset 65, 4
	.loc 1 251 0
	lwz 3,8(3)
.LVL2:
	.loc 1 250 0
	stw 0,4(31)
	.loc 1 251 0
	cmpwi 7,3,0
	beq- 7,.L3
	.loc 1 251 0 is_stmt 0 discriminator 1
	bl _ZdaPv
.L3:
	.loc 1 252 0 is_stmt 1
	li 0,0
	stw 0,8(31)
	.loc 1 253 0
	lwz 0,20(1)
	lwz 31,12(1)
.LVL3:
	mtlr 0
	addi 1,1,16
.LCFI1:
	.cfi_def_cfa_offset 0
	.cfi_restore 31
	blr
	.cfi_endproc
.LFE1473:
	.size	_ZN9idWinding5ClearEv, .-_ZN9idWinding5ClearEv
	.section	.text._ZN9idWindingD2Ev,"axG",@progbits,_ZN9idWindingD5Ev,comdat
	.align 2
	.weak	_ZN9idWindingD2Ev
	.type	_ZN9idWindingD2Ev, @function
_ZN9idWindingD2Ev:
.LFB1461:
	.loc 1 183 0
	.cfi_startproc
.LVL4:
	mflr 0
	stwu 1,-16(1)
.LCFI2:
	.cfi_def_cfa_offset 16
	.cfi_register 65, 0
.LBB1284:
	lis 9,_ZTV9idWinding+8@ha
.LBE1284:
	stw 31,12(1)
	mr 31,3
	.cfi_offset 31, -4
	stw 0,20(1)
.LBB1285:
	.loc 1 183 0
	la 0,_ZTV9idWinding+8@l(9)
	.cfi_offset 65, 4
	.loc 1 184 0
	lwz 3,8(3)
.LVL5:
	.loc 1 183 0
	stw 0,0(31)
	.loc 1 184 0
	cmpwi 7,3,0
	beq- 7,.L6
	.loc 1 184 0 is_stmt 0 discriminator 1
	bl _ZdaPv
.L6:
	.loc 1 185 0 is_stmt 1
	li 0,0
	stw 0,8(31)
.LBE1285:
	.loc 1 186 0
	lwz 0,20(1)
	lwz 31,12(1)
.LVL6:
	mtlr 0
	addi 1,1,16
.LCFI3:
	.cfi_def_cfa_offset 0
	.cfi_restore 31
	blr
	.cfi_endproc
.LFE1461:
	.size	_ZN9idWindingD2Ev, .-_ZN9idWindingD2Ev
	.section	".text"
	.align 2
	.type	_ZN13idAsyncServer15MasterHeartbeatEb.part.33, @function
_ZN13idAsyncServer15MasterHeartbeatEb.part.33:
.LFB2897:
	.file 2 "d:/Data/Nintendo/DoomGX/src/framework/async/AsyncServer.cpp"
	.loc 2 2595 0
	.cfi_startproc
.LVL7:
	mflr 0
	stwu 1,-16504(1)
.LCFI4:
	.cfi_def_cfa_offset 16504
	.cfi_register 65, 0
.LBB1299:
	.loc 2 2609 0
	addis 9,3,0x5
.LBE1299:
	.loc 2 2595 0
	stw 25,16476(1)
.LBB1349:
.LBB1300:
.LBB1301:
.LBB1302:
.LBB1303:
	.loc 2 2613 0
	lis 25,common@ha
	.cfi_offset 25, -28
.LBE1303:
.LBE1302:
.LBE1301:
.LBE1300:
.LBE1349:
	.loc 2 2595 0
	stw 0,16508(1)
	stw 26,16480(1)
.LBB1350:
.LBB1340:
.LBB1331:
.LBB1322:
.LBB1314:
	.loc 2 2613 0
	lis 26,.LC0@ha
	.cfi_offset 26, -24
	.cfi_offset 65, 4
.LBE1314:
.LBE1322:
.LBE1331:
.LBE1340:
.LBE1350:
	.loc 2 2595 0
	stw 27,16484(1)
.LBB1351:
.LBB1341:
.LBB1332:
.LBB1323:
.LBB1315:
	.loc 2 2613 0
	la 26,.LC0@l(26)
.LBE1315:
.LBE1323:
.LBE1332:
.LBE1341:
.LBE1351:
	.loc 2 2595 0
	stw 28,16488(1)
.LBB1352:
.LBB1342:
.LBB1333:
.LBB1324:
.LBB1316:
	.loc 2 2618 0
	lis 28,.LC1@ha
	.cfi_offset 28, -16
	.cfi_offset 27, -20
.LBE1316:
.LBE1324:
.LBE1333:
.LBE1342:
.LBE1352:
	.loc 2 2595 0
	stw 29,16492(1)
.LBB1353:
.LBB1343:
.LBB1334:
.LBB1325:
.LBB1317:
.LBB1304:
.LBB1305:
	.file 3 "d:/Data/Nintendo/DoomGX/src/framework/async/../../idlib/../idlib/BitMsg.h"
	.loc 3 158 0
	li 27,16384
.LBE1305:
.LBE1304:
.LBE1317:
.LBE1325:
.LBE1334:
.LBE1343:
.LBE1353:
	.loc 2 2595 0
	stw 30,16496(1)
.LBB1354:
.LBB1344:
.LBB1335:
.LBB1326:
.LBB1318:
	.loc 2 2618 0
	la 28,.LC1@l(28)
.LBE1318:
.LBE1326:
.LBE1335:
.LBE1344:
.LBE1354:
	.loc 2 2595 0
	stw 31,16500(1)
.LBB1355:
.LBB1345:
.LBB1336:
.LBB1327:
.LBB1319:
.LBB1308:
.LBB1306:
	.loc 3 156 0
	addi 30,1,52
	.cfi_offset 31, -4
	.cfi_offset 30, -8
	.cfi_offset 29, -12
.LBE1306:
.LBE1308:
.LBE1319:
.LBE1327:
.LBE1336:
.LBE1345:
.LBE1355:
	.loc 2 2595 0
	stw 23,16468(1)
.LBB1356:
	.loc 2 2610 0
	li 31,0
.LBE1356:
	.loc 2 2595 0
	stw 24,16472(1)
.LBB1357:
.LBB1346:
.LBB1337:
.LBB1328:
.LBB1320:
	.loc 2 2619 0
	addi 29,3,12
.LBE1320:
.LBE1328:
.LBE1337:
.LBE1346:
	.loc 2 2609 0
	lwz 11,8(3)
	addis 11,11,0x5
	addi 0,11,-27680
	stw 0,-25816(9)
.LVL8:
.L10:
.LBB1347:
.LBB1338:
.LBB1329:
	.loc 2 2612 0
	mr 3,31
	addi 4,1,8
	.cfi_offset 24, -32
	.cfi_offset 23, -36
	bl _ZN14idAsyncNetwork16GetMasterAddressEiR8netadr_t
	cmpwi 7,3,0
	bne- 7,.L12
.L9:
.LVL9:
.LBE1329:
.LBE1338:
	.loc 2 2610 0
	cmpwi 7,31,4
	addi 31,31,1
.LVL10:
	bne+ 7,.L10
.LBE1347:
.LBE1357:
	.loc 2 2622 0
	lwz 0,16508(1)
	lwz 23,16468(1)
	mtlr 0
	lwz 24,16472(1)
	lwz 25,16476(1)
	lwz 26,16480(1)
	lwz 27,16484(1)
	lwz 28,16488(1)
	lwz 29,16492(1)
.LVL11:
	lwz 30,16496(1)
	lwz 31,16500(1)
.LVL12:
	addi 1,1,16504
	.cfi_remember_state
.LCFI5:
	.cfi_def_cfa_offset 0
	.cfi_restore 31
	.cfi_restore 30
	.cfi_restore 29
	.cfi_restore 28
	.cfi_restore 27
	.cfi_restore 26
	.cfi_restore 25
	.cfi_restore 24
	.cfi_restore 23
	blr
.LVL13:
.L12:
.LCFI6:
	.cfi_restore_state
.LBB1358:
.LBB1348:
.LBB1339:
.LBB1330:
.LBB1321:
	.loc 2 2613 0
	lwz 23,common@l(25)
	addi 3,1,16448
	lwz 0,8(1)
	lwz 9,0(23)
	lwz 24,68(9)
	stw 0,16448(1)
	lwz 0,12(1)
	stw 0,16452(1)
	lwz 0,16(1)
	stw 0,16456(1)
	bl _Z18Sys_NetAdrToString8netadr_t
	mr 5,3
	mtctr 24
	mr 4,26
	mr 3,23
	crxor 6,6,6
	bctrl
	.loc 2 2614 0
	addi 3,1,20
	bl _ZN8idBitMsgC1Ev
.LVL14:
.LBB1309:
.LBB1310:
	.loc 3 288 0
	addi 3,1,20
.LVL15:
	li 5,-16
	li 4,-1
.LBE1310:
.LBE1309:
.LBB1312:
.LBB1307:
	.loc 3 156 0
	stw 30,20(1)
	.loc 3 157 0
	stw 30,24(1)
	.loc 3 158 0
	stw 27,28(1)
.LVL16:
.LBE1307:
.LBE1312:
.LBB1313:
.LBB1311:
	.loc 3 288 0
	bl _ZN8idBitMsg9WriteBitsEii
.LVL17:
.LBE1311:
.LBE1313:
	.loc 2 2618 0
	addi 3,1,20
.LVL18:
	mr 4,28
	li 5,-1
	li 6,1
	bl _ZN8idBitMsg11WriteStringEPKcib
.LVL19:
	.loc 2 2619 0
	lwz 0,8(1)
	lwz 5,20(1)
	mr 3,29
	stw 0,16448(1)
	addi 4,1,16448
	lwz 0,12(1)
	lwz 6,32(1)
	stw 0,16452(1)
	lwz 0,16(1)
	stw 0,16456(1)
	bl _ZN6idPort10SendPacketE8netadr_tPKvi
	b .L9
.LBE1321:
.LBE1330:
.LBE1339:
.LBE1348:
.LBE1358:
	.cfi_endproc
.LFE2897:
	.size	_ZN13idAsyncServer15MasterHeartbeatEb.part.33, .-_ZN13idAsyncServer15MasterHeartbeatEb.part.33
	.section	.text._ZN14idFixedWindingD0Ev,"axG",@progbits,_ZN14idFixedWindingD5Ev,comdat
	.align 2
	.weak	_ZN14idFixedWindingD0Ev
	.type	_ZN14idFixedWindingD0Ev, @function
_ZN14idFixedWindingD0Ev:
.LFB1500:
	.loc 1 380 0
	.cfi_startproc
.LVL20:
	mflr 0
	stwu 1,-8(1)
.LCFI7:
	.cfi_def_cfa_offset 8
	.cfi_register 65, 0
.LBB1365:
.LBB1366:
.LBB1367:
.LBB1368:
.LBB1369:
.LBB1370:
	.loc 1 183 0
	lis 11,_ZTV9idWinding+8@ha
.LBE1370:
.LBE1369:
.LBE1368:
.LBE1367:
.LBE1366:
.LBE1365:
	.loc 1 380 0
	stw 0,12(1)
.LBB1376:
.LBB1375:
.LBB1374:
	.loc 1 381 0
	li 0,0
	.cfi_offset 65, 4
	stw 0,8(3)
.LVL21:
.LBB1373:
.LBB1372:
.LBB1371:
	.loc 1 183 0
	la 0,_ZTV9idWinding+8@l(11)
	stw 0,0(3)
.LBE1371:
.LBE1372:
.LBE1373:
.LBE1374:
.LBE1375:
.LBE1376:
	.loc 1 382 0
	bl _ZdlPv
.LVL22:
	lwz 0,12(1)
	addi 1,1,8
.LCFI8:
	.cfi_def_cfa_offset 0
	mtlr 0
	blr
	.cfi_endproc
.LFE1500:
	.size	_ZN14idFixedWindingD0Ev, .-_ZN14idFixedWindingD0Ev
	.section	.text._ZN14idFixedWindingD2Ev,"axG",@progbits,_ZN14idFixedWindingD5Ev,comdat
	.align 2
	.weak	_ZN14idFixedWindingD2Ev
	.type	_ZN14idFixedWindingD2Ev, @function
_ZN14idFixedWindingD2Ev:
.LFB1498:
	.loc 1 380 0
	.cfi_startproc
.LVL23:
.LBB1381:
	.loc 1 381 0
	li 0,0
.LBB1382:
.LBB1383:
.LBB1384:
	.loc 1 183 0
	lis 9,_ZTV9idWinding+8@ha
.LBE1384:
.LBE1383:
.LBE1382:
	.loc 1 381 0
	stw 0,8(3)
.LVL24:
.LBB1387:
.LBB1386:
.LBB1385:
	.loc 1 183 0
	la 0,_ZTV9idWinding+8@l(9)
	stw 0,0(3)
.LBE1385:
.LBE1386:
.LBE1387:
.LBE1381:
	.loc 1 382 0
	blr
	.cfi_endproc
.LFE1498:
	.size	_ZN14idFixedWindingD2Ev, .-_ZN14idFixedWindingD2Ev
	.section	.text._ZN9idWindingD0Ev,"axG",@progbits,_ZN9idWindingD5Ev,comdat
	.align 2
	.weak	_ZN9idWindingD0Ev
	.type	_ZN9idWindingD0Ev, @function
_ZN9idWindingD0Ev:
.LFB1463:
	.loc 1 183 0
	.cfi_startproc
.LVL25:
	mflr 0
	stwu 1,-16(1)
.LCFI9:
	.cfi_def_cfa_offset 16
	.cfi_register 65, 0
.LBB1391:
.LBB1392:
.LBB1393:
	lis 9,_ZTV9idWinding+8@ha
.LBE1393:
.LBE1392:
.LBE1391:
	stw 31,12(1)
	mr 31,3
	.cfi_offset 31, -4
.LVL26:
	stw 0,20(1)
.LBB1398:
.LBB1396:
.LBB1394:
	.loc 1 183 0
	la 0,_ZTV9idWinding+8@l(9)
	.cfi_offset 65, 4
	.loc 1 184 0
	lwz 3,8(3)
.LVL27:
	.loc 1 183 0
	stw 0,0(31)
	.loc 1 184 0
	cmpwi 7,3,0
	beq- 7,.L21
	bl _ZdaPv
.LVL28:
.L21:
	.loc 1 185 0
	li 0,0
.LBE1394:
.LBE1396:
.LBE1398:
	.loc 1 186 0
	mr 3,31
.LBB1399:
.LBB1397:
.LBB1395:
	.loc 1 185 0
	stw 0,8(31)
.LBE1395:
.LBE1397:
.LBE1399:
	.loc 1 186 0
	bl _ZdlPv
	lwz 0,20(1)
	lwz 31,12(1)
.LVL29:
	mtlr 0
	addi 1,1,16
.LCFI10:
	.cfi_def_cfa_offset 0
	.cfi_restore 31
	blr
	.cfi_endproc
.LFE1463:
	.size	_ZN9idWindingD0Ev, .-_ZN9idWindingD0Ev
	.section	".text"
	.align 2
	.globl _ZN13idAsyncServer8InitPortEv
	.type	_ZN13idAsyncServer8InitPortEv, @function
_ZN13idAsyncServer8InitPortEv:
.LFB2557:
	.loc 2 109 0
	.cfi_startproc
.LVL30:
	mflr 0
	stwu 1,-32(1)
.LCFI11:
	.cfi_def_cfa_offset 32
	.cfi_register 65, 0
	mr 9,3
	stw 30,24(1)
.LBB1400:
	.loc 2 133 0
	li 30,1
	.cfi_offset 30, -8
.LBE1400:
	.loc 2 109 0
	stw 0,36(1)
	stw 27,12(1)
	stw 28,16(1)
	stw 29,20(1)
	stw 31,28(1)
.LBB1401:
	.loc 2 113 0
	lhz 0,40(3)
	.cfi_offset 31, -4
	.cfi_offset 29, -12
	.cfi_offset 28, -16
	.cfi_offset 27, -20
	.cfi_offset 65, 4
	cmpwi 7,0,0
	beq- 7,.L35
.LVL31:
.L25:
.LBE1401:
	.loc 2 134 0
	lwz 0,36(1)
	mr 3,30
	lwz 27,12(1)
	mtlr 0
	lwz 28,16(1)
	lwz 29,20(1)
	lwz 30,24(1)
	lwz 31,28(1)
	addi 1,1,32
	.cfi_remember_state
.LCFI12:
	.cfi_def_cfa_offset 0
	.cfi_restore 31
	.cfi_restore 30
	.cfi_restore 29
	.cfi_restore 28
	.cfi_restore 27
	blr
.LVL32:
.L35:
.LCFI13:
	.cfi_restore_state
.LBB1402:
	.loc 2 114 0
	lis 27,cvarSystem@ha
	lis 28,.LC2@ha
	lwz 3,cvarSystem@l(27)
.LVL33:
	la 28,.LC2@l(28)
	mr 4,28
	addi 29,9,12
	lwz 11,0(3)
	li 31,27666
	lwz 0,52(11)
	mtctr 0
	bctrl
.LVL34:
	cmpwi 7,3,0
	bne- 7,.L36
.L32:
	.loc 2 122 0
	mr 4,31
	mr 3,29
	bl _ZN6idPort11InitForPortEi
	.loc 2 121 0
	cmpwi 6,31,27669
	.loc 2 122 0
	cmpwi 7,3,0
	.loc 2 121 0
	addi 31,31,1
	.loc 2 122 0
	bne- 7,.L31
	.loc 2 121 0
	bne+ 6,.L32
	.loc 2 127 0
	lis 9,common@ha
	lis 4,.LC4@ha
	lwz 3,common@l(9)
	la 4,.LC4@l(4)
	.loc 2 128 0
	li 30,0
	.loc 2 127 0
	lwz 9,0(3)
	lwz 0,68(9)
	mtctr 0
	crxor 6,6,6
	bctrl
.LBE1402:
	.loc 2 134 0
	lwz 0,36(1)
	mr 3,30
	lwz 27,12(1)
	mtlr 0
	lwz 28,16(1)
	lwz 29,20(1)
.LVL35:
	lwz 30,24(1)
	lwz 31,28(1)
	addi 1,1,32
	.cfi_remember_state
	.cfi_restore 27
	.cfi_restore 28
	.cfi_restore 29
	.cfi_restore 30
	.cfi_restore 31
.LCFI14:
	.cfi_def_cfa_offset 0
	blr
.LVL36:
.L36:
.LCFI15:
	.cfi_restore_state
.LBB1403:
	.loc 2 115 0
	lwz 3,cvarSystem@l(27)
	mr 4,28
	lwz 9,0(3)
	lwz 0,52(9)
	mtctr 0
	bctrl
	mr 4,3
	mr 3,29
	bl _ZN6idPort11InitForPortEi
	cmpwi 7,3,0
	bne+ 7,.L25
	.loc 2 116 0
	lwz 3,cvarSystem@l(27)
	lis 11,common@ha
	lwz 30,common@l(11)
	mr 4,28
	lwz 9,0(3)
	lwz 0,52(9)
	lwz 9,0(30)
	mtctr 0
	lwz 31,68(9)
	bctrl
	lis 4,.LC3@ha
	mr 5,3
	la 4,.LC3@l(4)
	mr 3,30
	mtctr 31
	.loc 2 117 0
	li 30,0
	.loc 2 116 0
	crxor 6,6,6
	bctrl
	.loc 2 117 0
	b .L25
.L31:
	.loc 2 133 0
	li 30,1
	b .L25
.LBE1403:
	.cfi_endproc
.LFE2557:
	.size	_ZN13idAsyncServer8InitPortEv, .-_ZN13idAsyncServer8InitPortEv
	.align 2
	.globl _ZN13idAsyncServer9ClosePortEv
	.type	_ZN13idAsyncServer9ClosePortEv, @function
_ZN13idAsyncServer9ClosePortEv:
.LFB2558:
	.loc 2 141 0
	.cfi_startproc
.LVL37:
	stwu 1,-32(1)
.LCFI16:
	.cfi_def_cfa_offset 32
	mflr 0
	stw 27,12(1)
	mr 27,3
	.cfi_offset 27, -20
	.cfi_register 65, 0
.LBB1404:
	.loc 2 144 0
	addi 3,3,12
.LVL38:
.LBE1404:
	.loc 2 141 0
	stw 26,8(1)
	stw 28,16(1)
.LBB1423:
.LBB1405:
.LBB1406:
.LBB1407:
.LBB1408:
	.file 4 "d:/Data/Nintendo/DoomGX/src/framework/async/../../idlib/../idlib/Str.h"
	.loc 4 357 0
	li 26,20
	.cfi_offset 28, -16
	.cfi_offset 26, -24
.LBE1408:
.LBE1407:
.LBE1406:
.LBE1405:
.LBE1423:
	.loc 2 141 0
	stw 30,24(1)
.LBB1424:
.LBB1419:
.LBB1415:
.LBB1412:
.LBB1409:
	.loc 4 356 0
	li 28,0
.LBE1409:
.LBE1412:
.LBE1415:
.LBE1419:
.LBE1424:
	.loc 2 141 0
	stw 0,36(1)
.LBB1425:
	.loc 2 145 0
	li 30,0
	.cfi_offset 65, 4
	.cfi_offset 30, -8
.LBE1425:
	.loc 2 141 0
	stw 29,20(1)
	stw 31,28(1)
.LBB1426:
	.loc 2 144 0
	.cfi_offset 31, -4
	.cfi_offset 29, -12
	bl _ZN6idPort5CloseEv
.LVL39:
.L38:
	.loc 2 146 0 discriminator 2
	mulli 29,30,92
	addi 29,29,80
	add 29,27,29
	addi 31,29,24
.LVL40:
.LBB1420:
.LBB1416:
	.loc 4 746 0 discriminator 2
	mr 3,31
	bl _ZN5idStr8FreeDataEv
.LVL41:
.LBE1416:
.LBE1420:
	.loc 2 145 0 discriminator 2
	cmpwi 7,30,63
.LBB1421:
.LBB1417:
.LBB1413:
.LBB1410:
	.loc 4 358 0 discriminator 2
	addi 0,29,36
	.loc 4 356 0 discriminator 2
	stw 28,24(29)
.LBE1410:
.LBE1413:
.LBE1417:
.LBE1421:
	.loc 2 145 0 discriminator 2
	addi 30,30,1
.LVL42:
.LBB1422:
.LBB1418:
.LBB1414:
.LBB1411:
	.loc 4 357 0 discriminator 2
	stw 26,32(29)
	.loc 4 358 0 discriminator 2
	stw 0,28(29)
	.loc 4 359 0 discriminator 2
	stb 28,36(29)
.LBE1411:
.LBE1414:
.LBE1418:
.LBE1422:
	.loc 2 145 0 discriminator 2
	bne+ 7,.L38
.LBE1426:
	.loc 2 148 0
	lwz 0,36(1)
	lwz 26,8(1)
	mtlr 0
	lwz 27,12(1)
.LVL43:
	lwz 28,16(1)
	lwz 29,20(1)
	lwz 30,24(1)
.LVL44:
	lwz 31,28(1)
.LVL45:
	addi 1,1,32
.LCFI17:
	.cfi_def_cfa_offset 0
	.cfi_restore 31
	.cfi_restore 30
	.cfi_restore 29
	.cfi_restore 28
	.cfi_restore 27
	.cfi_restore 26
	blr
	.cfi_endproc
.LFE2558:
	.size	_ZN13idAsyncServer9ClosePortEv, .-_ZN13idAsyncServer9ClosePortEv
	.align 2
	.globl _ZNK13idAsyncServer7GetPortEv
	.type	_ZNK13idAsyncServer7GetPortEv, @function
_ZNK13idAsyncServer7GetPortEv:
.LFB2562:
	.loc 2 385 0
	.cfi_startproc
.LVL46:
	.loc 2 387 0
	lhz 3,40(3)
.LVL47:
	blr
	.cfi_endproc
.LFE2562:
	.size	_ZNK13idAsyncServer7GetPortEv, .-_ZNK13idAsyncServer7GetPortEv
	.align 2
	.globl _ZNK13idAsyncServer11GetBoundAdrEv
	.type	_ZNK13idAsyncServer11GetBoundAdrEv, @function
_ZNK13idAsyncServer11GetBoundAdrEv:
.LFB2563:
	.loc 2 394 0
	.cfi_startproc
.LVL48:
.LBB1427:
.LBB1428:
	.file 5 "d:/Data/Nintendo/DoomGX/src/framework/async/../../idlib/../sys/sys_public.h"
	.loc 5 468 0
	lwz 10,32(4)
.LBE1428:
.LBE1427:
	.loc 2 396 0
.LBB1430:
.LBB1429:
	.loc 5 468 0
	lwz 11,36(4)
	lwz 0,40(4)
	stw 10,0(3)
	stw 11,4(3)
	stw 0,8(3)
.LBE1429:
.LBE1430:
	.loc 2 396 0
	blr
	.cfi_endproc
.LFE2563:
	.size	_ZNK13idAsyncServer11GetBoundAdrEv, .-_ZNK13idAsyncServer11GetBoundAdrEv
	.align 2
	.globl _ZNK13idAsyncServer15GetOutgoingRateEv
	.type	_ZNK13idAsyncServer15GetOutgoingRateEv, @function
_ZNK13idAsyncServer15GetOutgoingRateEv:
.LFB2564:
	.loc 2 403 0
	.cfi_startproc
.LVL49:
	.loc 2 407 0
	li 0,4
	.loc 2 406 0
	li 10,0
	.loc 2 407 0
	mtctr 0
	li 9,0
.LVL50:
.L44:
.LBB1431:
.LBB1432:
.LBB1433:
	.loc 2 408 0
	slwi 11,9,8
	slwi 0,9,2
	subf 0,0,11
	add 0,0,9
.LBE1433:
	.loc 2 407 0
	addi 9,9,1
.LBB1434:
	.loc 2 408 0
	slwi 11,0,6
	add 11,0,11
	slwi 11,11,2
	add 11,3,11
.LVL51:
	.loc 2 410 0
	lwz 0,5956(11)
	.loc 2 408 0
	addi 11,11,5948
.LVL52:
	.loc 2 410 0
	cmpwi 7,0,2
	ble- 7,.L43
	.loc 2 411 0
	lwz 0,76(11)
	add 10,10,0
.LVL53:
.L43:
.LBE1434:
	.loc 2 407 0
	bdnz .L44
.LBE1432:
.LBE1431:
	.loc 2 415 0
	mr 3,10
.LVL54:
	blr
	.cfi_endproc
.LFE2564:
	.size	_ZNK13idAsyncServer15GetOutgoingRateEv, .-_ZNK13idAsyncServer15GetOutgoingRateEv
	.align 2
	.globl _ZNK13idAsyncServer15GetIncomingRateEv
	.type	_ZNK13idAsyncServer15GetIncomingRateEv, @function
_ZNK13idAsyncServer15GetIncomingRateEv:
.LFB2565:
	.loc 2 422 0
	.cfi_startproc
.LVL55:
	.loc 2 426 0
	li 0,4
	.loc 2 425 0
	li 10,0
	.loc 2 426 0
	mtctr 0
	li 9,0
.LVL56:
.L48:
.LBB1435:
.LBB1436:
.LBB1437:
	.loc 2 427 0
	slwi 11,9,8
	slwi 0,9,2
	subf 0,0,11
	add 0,0,9
.LBE1437:
	.loc 2 426 0
	addi 9,9,1
.LBB1438:
	.loc 2 427 0
	slwi 11,0,6
	add 11,0,11
	slwi 11,11,2
	add 11,3,11
.LVL57:
	.loc 2 429 0
	lwz 0,5956(11)
	.loc 2 427 0
	addi 11,11,5948
.LVL58:
	.loc 2 429 0
	cmpwi 7,0,2
	ble- 7,.L47
	.loc 2 430 0
	lwz 0,84(11)
	add 10,10,0
.LVL59:
.L47:
.LBE1438:
	.loc 2 426 0
	bdnz .L48
.LBE1436:
.LBE1435:
	.loc 2 434 0
	mr 3,10
.LVL60:
	blr
	.cfi_endproc
.LFE2565:
	.size	_ZNK13idAsyncServer15GetIncomingRateEv, .-_ZNK13idAsyncServer15GetIncomingRateEv
	.align 2
	.globl _ZNK13idAsyncServer14IsClientInGameEi
	.type	_ZNK13idAsyncServer14IsClientInGameEi, @function
_ZNK13idAsyncServer14IsClientInGameEi:
.LFB2566:
	.loc 2 441 0
	.cfi_startproc
.LVL61:
	.loc 2 442 0
	slwi 0,4,2
	slwi 9,4,8
	subf 0,0,9
	add 4,0,4
.LVL62:
	slwi 0,4,6
	add 4,4,0
	slwi 4,4,2
	add 4,3,4
	lwz 0,5956(4)
	.loc 2 443 0
	.loc 2 442 0
	cmpwi 7,0,3
	.loc 2 443 0
	mfcr 3
	rlwinm 3,3,30,1
.LVL63:
	blr
	.cfi_endproc
.LFE2566:
	.size	_ZNK13idAsyncServer14IsClientInGameEi, .-_ZNK13idAsyncServer14IsClientInGameEi
	.align 2
	.globl _ZNK13idAsyncServer13GetClientPingEi
	.type	_ZNK13idAsyncServer13GetClientPingEi, @function
_ZNK13idAsyncServer13GetClientPingEi:
.LFB2567:
	.loc 2 450 0
	.cfi_startproc
.LVL64:
.LBB1439:
	.loc 2 451 0
	slwi 0,4,2
	slwi 9,4,8
	subf 0,0,9
	add 4,0,4
.LVL65:
	slwi 0,4,6
	add 4,4,0
	slwi 4,4,2
	add 4,3,4
.LVL66:
	.loc 2 454 0
	lis 3,0x1
.LVL67:
	.loc 2 453 0
	lwz 0,5956(4)
	.loc 2 454 0
	ori 3,3,34463
	.loc 2 451 0
	addi 4,4,5948
.LVL68:
	.loc 2 453 0
	cmpwi 7,0,2
	blelr+ 7
	.loc 2 456 0
	lwz 3,24(4)
.LBE1439:
	.loc 2 458 0
	blr
	.cfi_endproc
.LFE2567:
	.size	_ZNK13idAsyncServer13GetClientPingEi, .-_ZNK13idAsyncServer13GetClientPingEi
	.align 2
	.globl _ZNK13idAsyncServer19GetClientPredictionEi
	.type	_ZNK13idAsyncServer19GetClientPredictionEi, @function
_ZNK13idAsyncServer19GetClientPredictionEi:
.LFB2568:
	.loc 2 465 0
	.cfi_startproc
.LVL69:
.LBB1440:
	.loc 2 466 0
	slwi 0,4,2
	slwi 9,4,8
	subf 0,0,9
	add 4,0,4
.LVL70:
	slwi 0,4,6
	add 4,4,0
	slwi 4,4,2
	add 4,3,4
.LVL71:
	.loc 2 469 0
	lis 3,0x1
.LVL72:
	.loc 2 468 0
	lwz 0,5956(4)
	.loc 2 469 0
	ori 3,3,34463
	.loc 2 466 0
	addi 4,4,5948
.LVL73:
	.loc 2 468 0
	cmpwi 7,0,2
	blelr+ 7
	.loc 2 471 0
	lwz 3,12(4)
.LBE1440:
	.loc 2 473 0
	blr
	.cfi_endproc
.LFE2568:
	.size	_ZNK13idAsyncServer19GetClientPredictionEi, .-_ZNK13idAsyncServer19GetClientPredictionEi
	.align 2
	.globl _ZNK13idAsyncServer28GetClientTimeSinceLastPacketEi
	.type	_ZNK13idAsyncServer28GetClientTimeSinceLastPacketEi, @function
_ZNK13idAsyncServer28GetClientTimeSinceLastPacketEi:
.LFB2569:
	.loc 2 480 0
	.cfi_startproc
.LVL74:
.LBB1441:
	.loc 2 481 0
	slwi 9,4,8
	slwi 0,4,2
	subf 0,0,9
.LBE1441:
	.loc 2 480 0
	mr 9,3
.LBB1442:
	.loc 2 481 0
	add 4,0,4
.LVL75:
	slwi 0,4,6
	add 4,4,0
	slwi 4,4,2
	add 4,3,4
.LVL76:
	.loc 2 484 0
	lis 3,0x1
.LVL77:
	.loc 2 483 0
	lwz 0,5956(4)
	.loc 2 484 0
	ori 3,3,34463
	.loc 2 481 0
	addi 4,4,5948
.LVL78:
	.loc 2 483 0
	cmpwi 7,0,2
	blelr+ 7
	.loc 2 486 0
	addis 4,4,0x1
.LVL79:
	lwz 3,8(9)
	lwz 0,212(4)
	subf 3,0,3
.LBE1442:
	.loc 2 488 0
	blr
	.cfi_endproc
.LFE2569:
	.size	_ZNK13idAsyncServer28GetClientTimeSinceLastPacketEi, .-_ZNK13idAsyncServer28GetClientTimeSinceLastPacketEi
	.align 2
	.globl _ZNK13idAsyncServer27GetClientTimeSinceLastInputEi
	.type	_ZNK13idAsyncServer27GetClientTimeSinceLastInputEi, @function
_ZNK13idAsyncServer27GetClientTimeSinceLastInputEi:
.LFB2570:
	.loc 2 495 0
	.cfi_startproc
.LVL80:
.LBB1443:
	.loc 2 496 0
	slwi 9,4,8
	slwi 0,4,2
	subf 0,0,9
.LBE1443:
	.loc 2 495 0
	mr 9,3
.LBB1444:
	.loc 2 496 0
	add 4,0,4
.LVL81:
	slwi 0,4,6
	add 4,4,0
	slwi 4,4,2
	add 4,3,4
.LVL82:
	.loc 2 499 0
	lis 3,0x1
.LVL83:
	.loc 2 498 0
	lwz 0,5956(4)
	.loc 2 499 0
	ori 3,3,34463
	.loc 2 496 0
	addi 4,4,5948
.LVL84:
	.loc 2 498 0
	cmpwi 7,0,2
	blelr+ 7
	.loc 2 501 0
	addis 4,4,0x1
.LVL85:
	lwz 3,8(9)
	lwz 0,216(4)
	subf 3,0,3
.LBE1444:
	.loc 2 503 0
	blr
	.cfi_endproc
.LFE2570:
	.size	_ZNK13idAsyncServer27GetClientTimeSinceLastInputEi, .-_ZNK13idAsyncServer27GetClientTimeSinceLastInputEi
	.align 2
	.globl _ZNK13idAsyncServer21GetClientOutgoingRateEi
	.type	_ZNK13idAsyncServer21GetClientOutgoingRateEi, @function
_ZNK13idAsyncServer21GetClientOutgoingRateEi:
.LFB2571:
	.loc 2 510 0
	.cfi_startproc
.LVL86:
.LBB1445:
	.loc 2 511 0
	slwi 0,4,2
	slwi 9,4,8
	subf 0,0,9
	add 4,0,4
.LVL87:
	slwi 0,4,6
	add 4,4,0
	slwi 4,4,2
	add 4,3,4
.LVL88:
	.loc 2 514 0
	li 3,-1
.LVL89:
	.loc 2 513 0
	lwz 0,5956(4)
	.loc 2 511 0
	addi 4,4,5948
.LVL90:
	.loc 2 513 0
	cmpwi 7,0,2
	blelr- 7
	.loc 2 2829 0
	lwz 3,76(4)
.LBE1445:
	.loc 2 518 0
	blr
	.cfi_endproc
.LFE2571:
	.size	_ZNK13idAsyncServer21GetClientOutgoingRateEi, .-_ZNK13idAsyncServer21GetClientOutgoingRateEi
	.align 2
	.globl _ZNK13idAsyncServer21GetClientIncomingRateEi
	.type	_ZNK13idAsyncServer21GetClientIncomingRateEi, @function
_ZNK13idAsyncServer21GetClientIncomingRateEi:
.LFB2572:
	.loc 2 525 0
	.cfi_startproc
.LVL91:
.LBB1446:
	.loc 2 526 0
	slwi 0,4,2
	slwi 9,4,8
	subf 0,0,9
	add 4,0,4
.LVL92:
	slwi 0,4,6
	add 4,4,0
	slwi 4,4,2
	add 4,3,4
.LVL93:
	.loc 2 529 0
	li 3,-1
.LVL94:
	.loc 2 528 0
	lwz 0,5956(4)
	.loc 2 526 0
	addi 4,4,5948
.LVL95:
	.loc 2 528 0
	cmpwi 7,0,2
	blelr- 7
	.loc 2 2829 0
	lwz 3,84(4)
.LBE1446:
	.loc 2 533 0
	blr
	.cfi_endproc
.LFE2572:
	.size	_ZNK13idAsyncServer21GetClientIncomingRateEi, .-_ZNK13idAsyncServer21GetClientIncomingRateEi
	.align 2
	.globl _ZNK13idAsyncServer28GetClientOutgoingCompressionEi
	.type	_ZNK13idAsyncServer28GetClientOutgoingCompressionEi, @function
_ZNK13idAsyncServer28GetClientOutgoingCompressionEi:
.LFB2573:
	.loc 2 540 0
	.cfi_startproc
.LVL96:
.LBB1447:
	.loc 2 541 0
	slwi 9,4,8
	slwi 0,4,2
	subf 0,0,9
	.loc 2 544 0
	lis 9,.LC5@ha
	.loc 2 541 0
	add 4,0,4
.LVL97:
	.loc 2 544 0
	lfs 1,.LC5@l(9)
	.loc 2 541 0
	slwi 0,4,6
	add 4,4,0
	slwi 4,4,2
	add 4,3,4
.LVL98:
	.loc 2 543 0
	lwz 0,5956(4)
	.loc 2 541 0
	addi 4,4,5948
.LVL99:
	.loc 2 543 0
	cmpwi 7,0,2
	blelr- 7
	.loc 2 2829 0
	lfs 1,88(4)
.LBE1447:
	.loc 2 548 0
	blr
	.cfi_endproc
.LFE2573:
	.size	_ZNK13idAsyncServer28GetClientOutgoingCompressionEi, .-_ZNK13idAsyncServer28GetClientOutgoingCompressionEi
	.align 2
	.globl _ZNK13idAsyncServer28GetClientIncomingCompressionEi
	.type	_ZNK13idAsyncServer28GetClientIncomingCompressionEi, @function
_ZNK13idAsyncServer28GetClientIncomingCompressionEi:
.LFB2574:
	.loc 2 555 0
	.cfi_startproc
.LVL100:
.LBB1448:
	.loc 2 556 0
	slwi 9,4,8
	slwi 0,4,2
	subf 0,0,9
	.loc 2 559 0
	lis 9,.LC5@ha
	.loc 2 556 0
	add 4,0,4
.LVL101:
	.loc 2 559 0
	lfs 1,.LC5@l(9)
	.loc 2 556 0
	slwi 0,4,6
	add 4,4,0
	slwi 4,4,2
	add 4,3,4
.LVL102:
	.loc 2 558 0
	lwz 0,5956(4)
	.loc 2 556 0
	addi 4,4,5948
.LVL103:
	.loc 2 558 0
	cmpwi 7,0,2
	blelr- 7
	.loc 2 2829 0
	lfs 1,92(4)
.LBE1448:
	.loc 2 563 0
	blr
	.cfi_endproc
.LFE2574:
	.size	_ZNK13idAsyncServer28GetClientIncomingCompressionEi, .-_ZNK13idAsyncServer28GetClientIncomingCompressionEi
	.align 2
	.globl _ZNK13idAsyncServer27GetClientIncomingPacketLossEi
	.type	_ZNK13idAsyncServer27GetClientIncomingPacketLossEi, @function
_ZNK13idAsyncServer27GetClientIncomingPacketLossEi:
.LFB2575:
	.loc 2 570 0
	.cfi_startproc
.LVL104:
	mflr 0
	stwu 1,-8(1)
.LCFI18:
	.cfi_def_cfa_offset 8
	.cfi_register 65, 0
.LBB1449:
	.loc 2 571 0
	slwi 9,4,8
.LBE1449:
	.loc 2 570 0
	stw 0,12(1)
.LBB1450:
	.loc 2 571 0
	slwi 0,4,2
	.cfi_offset 65, 4
	subf 0,0,9
	.loc 2 574 0
	lis 9,.LC5@ha
	.loc 2 571 0
	add 4,0,4
.LVL105:
	.loc 2 574 0
	lfs 1,.LC5@l(9)
	.loc 2 571 0
	slwi 0,4,6
	add 4,4,0
	slwi 4,4,2
	addi 4,4,5936
	add 3,3,4
.LVL106:
	.loc 2 573 0
	lwz 0,20(3)
	cmpwi 7,0,2
	ble+ 7,.L76
	.loc 2 576 0
	addi 3,3,52
.LVL107:
	bl _ZNK12idMsgChannel21GetIncomingPacketLossEv
.LVL108:
.L76:
.LBE1450:
	.loc 2 578 0
	lwz 0,12(1)
	addi 1,1,8
.LCFI19:
	.cfi_def_cfa_offset 0
	mtlr 0
	blr
	.cfi_endproc
.LFE2575:
	.size	_ZNK13idAsyncServer27GetClientIncomingPacketLossEi, .-_ZNK13idAsyncServer27GetClientIncomingPacketLossEi
	.align 2
	.globl _ZNK13idAsyncServer13GetNumClientsEv
	.type	_ZNK13idAsyncServer13GetNumClientsEv, @function
_ZNK13idAsyncServer13GetNumClientsEv:
.LFB2576:
	.loc 2 585 0
	.cfi_startproc
.LVL109:
.LBB1451:
.LBB1452:
	.loc 2 587 0
	li 11,4
.LBE1452:
.LBE1451:
	.loc 2 585 0
	li 9,0
.LBB1455:
.LBB1453:
	.loc 2 587 0
	mtctr 11
.LBE1453:
.LBE1455:
	.loc 2 586 0
	li 0,0
.LVL110:
.L80:
.LBB1456:
.LBB1454:
	.loc 2 585 0
	add 11,3,9
	.loc 2 589 0
	addis 9,9,0x1
	.loc 2 588 0
	lwz 11,5956(11)
	.loc 2 589 0
	addi 9,9,244
	cmpwi 7,11,2
	mfcr 11
	rlwinm 11,11,30,1
	add 0,0,11
.LVL111:
	.loc 2 587 0
	bdnz .L80
.LBE1454:
.LBE1456:
	.loc 2 593 0
	mr 3,0
.LVL112:
	blr
	.cfi_endproc
.LFE2576:
	.size	_ZNK13idAsyncServer13GetNumClientsEv, .-_ZNK13idAsyncServer13GetNumClientsEv
	.align 2
	.globl _ZNK13idAsyncServer17GetNumIdleClientsEv
	.type	_ZNK13idAsyncServer17GetNumIdleClientsEv, @function
_ZNK13idAsyncServer17GetNumIdleClientsEv:
.LFB2577:
	.loc 2 600 0
	.cfi_startproc
.LVL113:
	.loc 2 601 0
	li 0,4
	mr 9,3
	mtctr 0
	li 10,0
.LVL114:
.L84:
.LBB1457:
.LBB1458:
	.loc 2 603 0
	lwz 0,5956(9)
	addis 11,9,0x1
	.loc 2 605 0
	addi 9,11,244
	.loc 2 603 0
	cmpwi 7,0,2
	ble- 7,.L83
	.loc 2 604 0
	lwz 8,8(3)
	lwz 0,6164(11)
	subf 0,0,8
	.loc 2 605 0
	cmpwi 7,0,30000
	mfcr 0
	rlwinm 0,0,30,1
	add 10,10,0
.L83:
.LVL115:
	.loc 2 602 0
	bdnz .L84
.LBE1458:
.LBE1457:
	.loc 2 610 0
	mr 3,10
.LVL116:
	blr
	.cfi_endproc
.LFE2577:
	.size	_ZNK13idAsyncServer17GetNumIdleClientsEv, .-_ZNK13idAsyncServer17GetNumIdleClientsEv
	.align 2
	.globl _ZN13idAsyncServer17DuplicateUsercmdsEii
	.type	_ZN13idAsyncServer17DuplicateUsercmdsEii, @function
_ZN13idAsyncServer17DuplicateUsercmdsEii:
.LFB2578:
	.loc 2 617 0
	.cfi_startproc
.LVL117:
	mflr 0
	stwu 1,-40(1)
.LCFI20:
	.cfi_def_cfa_offset 40
	.cfi_register 65, 0
	stw 26,16(1)
.LBB1459:
	.loc 2 620 0
	addi 26,4,-1
	.cfi_offset 26, -24
.LVL118:
.LBE1459:
	.loc 2 617 0
	stw 30,32(1)
.LBB1460:
	addis 30,3,0x1
	.cfi_offset 30, -8
.LBE1460:
	stw 0,44(1)
.LBB1461:
	addi 30,30,6176
.LBE1461:
	stw 25,12(1)
.LBB1462:
	.loc 2 629 0
	rlwinm 26,26,2,22,29
.LVL119:
.LBE1462:
	.loc 2 617 0
	stw 27,20(1)
	mr 25,5
	.cfi_offset 27, -20
	.cfi_offset 25, -28
	.cfi_offset 65, 4
	stw 28,24(1)
.LBB1463:
	.loc 2 629 0
	rlwinm 27,4,2,22,29
.LBE1463:
	.loc 2 617 0
	stw 29,28(1)
	mr 28,4
	.cfi_offset 29, -12
	.cfi_offset 28, -16
	stw 31,36(1)
	.loc 2 617 0
	mr 29,3
	.loc 2 624 0
	li 31,0
	.cfi_offset 31, -4
.LVL120:
.L89:
.LBB1464:
	.loc 2 617 0
	addis 9,30,0xffff
	.loc 2 625 0
	lwz 0,-220(9)
	cmpwi 7,0,0
	bne- 7,.L91
.L88:
.LVL121:
	.loc 2 624 0
	cmpwi 7,31,3
	addis 30,30,0x1
	addi 30,30,244
	addi 31,31,1
.LVL122:
	bne+ 7,.L89
.LBE1464:
	.loc 2 633 0
	lwz 0,44(1)
	lwz 25,12(1)
.LVL123:
	mtlr 0
	lwz 26,16(1)
	lwz 27,20(1)
	lwz 28,24(1)
.LVL124:
	lwz 29,28(1)
.LVL125:
	lwz 30,32(1)
	lwz 31,36(1)
.LVL126:
	addi 1,1,40
	.cfi_remember_state
.LCFI21:
	.cfi_def_cfa_offset 0
	.cfi_restore 31
	.cfi_restore 30
	.cfi_restore 29
	.cfi_restore 28
	.cfi_restore 27
	.cfi_restore 26
	.cfi_restore 25
	blr
.LVL127:
.L91:
.LCFI22:
	.cfi_restore_state
.LBB1465:
	.loc 2 629 0
	add 3,26,31
	add 4,27,31
	addi 3,3,8408
	addi 4,4,8408
	slwi 3,3,5
	slwi 4,4,5
	add 3,29,3
	add 4,29,4
	addi 3,3,12
	addi 4,4,12
	mr 5,28
	mr 6,25
	bl _ZN14idAsyncNetwork16DuplicateUsercmdERK9usercmd_tRS0_ii
	cmpwi 7,3,0
	beq- 7,.L88
	.loc 2 630 0
	lwz 9,0(30)
	addi 0,9,1
	stw 0,0(30)
	b .L88
.LBE1465:
	.cfi_endproc
.LFE2578:
	.size	_ZN13idAsyncServer17DuplicateUsercmdsEii, .-_ZN13idAsyncServer17DuplicateUsercmdsEii
	.align 2
	.globl _ZN13idAsyncServer11ClearClientEi
	.type	_ZN13idAsyncServer11ClearClientEi, @function
_ZN13idAsyncServer11ClearClientEi:
.LFB2579:
	.loc 2 640 0
	.cfi_startproc
.LVL128:
	mflr 0
	stwu 1,-16(1)
.LCFI23:
	.cfi_def_cfa_offset 16
	.cfi_register 65, 0
.LBB1466:
	.loc 2 641 0
	slwi 9,4,8
.LBE1466:
	.loc 2 640 0
	stw 31,12(1)
.LBB1467:
	.loc 2 642 0
	li 31,0
	.cfi_offset 31, -4
.LBE1467:
	.loc 2 640 0
	stw 0,20(1)
.LBB1468:
	.loc 2 641 0
	slwi 0,4,2
	.cfi_offset 65, 4
	subf 0,0,9
.LBE1468:
	.loc 2 640 0
	stw 30,8(1)
.LBB1469:
	.loc 2 641 0
	add 4,0,4
.LVL129:
	slwi 0,4,6
	add 4,4,0
	slwi 4,4,2
	addi 4,4,5936
	add 3,3,4
.LVL130:
	.loc 2 642 0
	stw 31,16(3)
	.loc 2 641 0
	addi 30,3,12
	.cfi_offset 30, -8
.LVL131:
	.loc 2 643 0
	stw 31,20(3)
	.loc 2 652 0
	addis 30,30,0x1
.LVL132:
	.loc 2 644 0
	stw 31,24(3)
	.loc 2 645 0
	stw 31,28(3)
	.loc 2 646 0
	stw 31,32(3)
	.loc 2 647 0
	stw 31,36(3)
	.loc 2 648 0
	stw 31,40(3)
	.loc 2 649 0
	stw 31,44(3)
	.loc 2 650 0
	stw 31,48(3)
	.loc 2 651 0
	addi 3,3,52
	bl _ZN12idMsgChannel8ShutdownEv
	.loc 2 652 0
	stw 31,196(30)
	.loc 2 653 0
	stw 31,200(30)
	.loc 2 654 0
	stw 31,204(30)
	.loc 2 655 0
	stw 31,208(30)
	.loc 2 656 0
	stw 31,212(30)
	.loc 2 657 0
	stw 31,216(30)
	.loc 2 658 0
	stw 31,220(30)
	.loc 2 659 0
	stw 31,224(30)
	.loc 2 660 0
	stw 31,228(30)
.LBE1469:
	.loc 2 661 0
	lwz 0,20(1)
	lwz 30,8(1)
.LVL133:
	mtlr 0
	lwz 31,12(1)
	addi 1,1,16
.LCFI24:
	.cfi_def_cfa_offset 0
	.cfi_restore 31
	.cfi_restore 30
	blr
	.cfi_endproc
.LFE2579:
	.size	_ZN13idAsyncServer11ClearClientEi, .-_ZN13idAsyncServer11ClearClientEi
	.align 2
	.globl _ZN13idAsyncServerC2Ev
	.type	_ZN13idAsyncServerC2Ev, @function
_ZN13idAsyncServerC2Ev:
.LFB2555:
	.loc 2 69 0
	.cfi_startproc
	.cfi_personality 0,__gxx_personality_v0
	.cfi_lsda 0,.LLSDA2555
.LVL134:
	stwu 1,-32(1)
.LCFI25:
	.cfi_def_cfa_offset 32
	mflr 0
	stw 26,8(1)
.LBB1470:
	addi 26,3,12
	.cfi_offset 26, -24
	.cfi_register 65, 0
.LBE1470:
	stw 29,20(1)
	mr 29,3
	.cfi_offset 29, -12
.LBB1488:
	mr 3,26
.LVL135:
.LBE1488:
	stw 0,36(1)
	stw 27,12(1)
.LBB1489:
	addi 27,29,5948
	.cfi_offset 27, -20
	.cfi_offset 65, 4
.LBE1489:
	stw 31,28(1)
.LBB1490:
	addi 31,29,60
	.cfi_offset 31, -4
.LBE1490:
	stw 28,16(1)
	stw 30,24(1)
.LEHB0:
.LBB1491:
	.loc 2 69 0
	.cfi_offset 30, -8
	.cfi_offset 28, -16
	bl _ZN6idPortC1Ev
.LEHE0:
.LBB1471:
.LBB1472:
.LBB1473:
.LBB1474:
	.loc 4 357 0
	li 11,64
.LBE1474:
.LBE1473:
.LBE1472:
.LBE1471:
.LBE1491:
	.loc 2 69 0
	mr 9,31
.LBB1492:
.LBB1478:
.LBB1477:
.LBB1476:
.LBB1475:
	.loc 4 357 0
	mtctr 11
	addi 7,29,104
	.loc 4 356 0
	li 0,0
	.loc 4 357 0
	li 8,20
.L94:
.LVL136:
	.loc 4 356 0
	subf 11,31,9
	.loc 4 358 0
	addi 10,9,56
	.loc 4 356 0
	stwux 0,11,7
	.loc 4 357 0
	stw 8,8(11)
	.loc 4 358 0
	stw 10,4(11)
	.loc 4 359 0
	stb 0,56(9)
.LBE1475:
.LBE1476:
.LBE1477:
.LBE1478:
	.loc 2 69 0
	addi 9,9,92
.LVL137:
	bdnz .L94
	.loc 2 69 0 is_stmt 0 discriminator 4
	addis 28,27,0x4
	mr 30,27
	addi 28,28,976
.LVL138:
.L95:
.LBB1479:
.LBB1480:
	.file 6 "d:/Data/Nintendo/DoomGX/src/framework/async/../../idlib/../framework/async/AsyncServer.h"
	.loc 6 106 0 is_stmt 1
	addi 3,30,40
.LEHB1:
	bl _ZN12idMsgChannelC1Ev
	.loc 6 106 0 is_stmt 0 discriminator 6
	addis 30,30,0x1
.LVL139:
	addi 30,30,244
.LVL140:
.LBE1480:
.LBE1479:
	.loc 2 69 0 is_stmt 1 discriminator 6
	cmpw 7,30,28
	bne+ 7,.L95
.LBB1481:
	.loc 2 71 0 discriminator 8
	lis 3,.LC6@ha
	lis 4,0x4
	la 3,.LC6@l(3)
	ori 4,4,39992
	crxor 6,6,6
	bl _Z15Sys_DebugPrintfPKcz
	.loc 2 76 0
	li 9,0
	.loc 2 77 0
	li 0,0
	.loc 2 76 0
	stb 9,0(29)
	.loc 2 82 0
	addis 28,29,0x5
	.loc 2 81 0
	li 9,-1
	.loc 2 77 0
	stw 0,4(29)
	.loc 2 78 0
	stw 0,8(29)
	.loc 2 86 0
	li 4,0
	.loc 2 79 0
	stw 0,48(29)
	.loc 2 86 0
	li 5,5888
	.loc 2 80 0
	stw 0,52(29)
	.loc 2 86 0
	mr 3,31
	.loc 2 81 0
	stw 9,56(29)
	.loc 2 88 0
	li 30,0
.LVL141:
	.loc 2 82 0
	stw 0,-25844(28)
	.loc 2 83 0
	stw 0,-25840(28)
	.loc 2 84 0
	stw 0,-25836(28)
	.loc 2 85 0
	stw 0,-25832(28)
	.loc 2 86 0
	bl memset
	.loc 2 87 0
	addis 3,29,0x4
	li 5,0
	addi 3,3,6924
	li 4,0
	ori 5,5,32768
	bl memset
.LVL142:
.L96:
	.loc 2 89 0
	mr 3,29
	mr 4,30
	bl _ZN13idAsyncServer11ClearClientEi
.LEHE1:
.LVL143:
	.loc 2 88 0
	cmpwi 7,30,3
	addi 30,30,1
.LVL144:
	bne+ 7,.L96
	.loc 2 91 0
	li 0,0
	.loc 2 92 0
	li 31,0
	.loc 2 91 0
	stb 0,-25808(28)
	.loc 2 94 0
	li 0,1
	.loc 2 92 0
	stw 31,-25816(28)
	.loc 2 97 0
	addi 3,28,-25800
	.loc 2 93 0
	stw 31,-25812(28)
	.loc 2 97 0
	li 4,0
	.loc 2 94 0
	stb 0,-25807(28)
	.loc 2 97 0
	li 5,240
	.loc 2 95 0
	stw 31,-25804(28)
	.loc 2 97 0
	bl memset
	.loc 2 98 0
	stw 31,-25560(28)
	.loc 2 99 0
	stw 31,-25556(28)
	.loc 2 100 0
	stw 31,-25552(28)
	.loc 2 101 0
	stw 31,-25548(28)
.LBE1481:
.LBE1492:
	.loc 2 102 0
	lwz 0,36(1)
	lwz 26,8(1)
	mtlr 0
	lwz 27,12(1)
	lwz 28,16(1)
	lwz 29,20(1)
.LVL145:
	lwz 30,24(1)
.LVL146:
	lwz 31,28(1)
	addi 1,1,32
	.cfi_remember_state
.LCFI26:
	.cfi_def_cfa_offset 0
	.cfi_restore 31
	.cfi_restore 30
	.cfi_restore 29
	.cfi_restore 28
	.cfi_restore 27
	.cfi_restore 26
	blr
.LVL147:
.L102:
.LCFI27:
	.cfi_restore_state
.LBB1493:
	cmpwi 7,31,0
	mr 30,3
	beq- 7,.L98
	.loc 2 102 0 is_stmt 0 discriminator 4
	mr 3,27
.LVL148:
.L99:
.LBB1482:
.LBB1483:
.LBB1484:
	.loc 6 83 0 is_stmt 1 discriminator 6
	addi 29,3,-92
.LBB1485:
.LBB1486:
.LBB1487:
	.loc 4 501 0 discriminator 6
	addi 3,3,-48
.LVL149:
	bl _ZN5idStr8FreeDataEv
.LVL150:
.LBE1487:
.LBE1486:
.LBE1485:
.LBE1484:
.LBE1483:
.LBE1482:
	.loc 2 102 0 discriminator 6
	cmpw 7,31,29
	mr 3,29
	bne+ 7,.L99
.LVL151:
.L98:
	.loc 2 69 0
	mr 3,26
	bl _ZN6idPortD1Ev
	mr 3,30
.LEHB2:
	bl _Unwind_Resume
.LEHE2:
.LBE1493:
	.cfi_endproc
.LFE2555:
	.globl __gxx_personality_v0
	.section	.gcc_except_table,"a",@progbits
.LLSDA2555:
	.byte	0xff
	.byte	0xff
	.byte	0x1
	.uleb128 .LLSDACSE2555-.LLSDACSB2555
.LLSDACSB2555:
	.uleb128 .LEHB0-.LFB2555
	.uleb128 .LEHE0-.LEHB0
	.uleb128 0
	.uleb128 0
	.uleb128 .LEHB1-.LFB2555
	.uleb128 .LEHE1-.LEHB1
	.uleb128 .L102-.LFB2555
	.uleb128 0
	.uleb128 .LEHB2-.LFB2555
	.uleb128 .LEHE2-.LEHB2
	.uleb128 0
	.uleb128 0
.LLSDACSE2555:
	.section	".text"
	.size	_ZN13idAsyncServerC2Ev, .-_ZN13idAsyncServerC2Ev
	.align 2
	.globl _ZN13idAsyncServer10InitClientEiii
	.type	_ZN13idAsyncServer10InitClientEiii, @function
_ZN13idAsyncServer10InitClientEiii:
.LFB2580:
	.loc 2 668 0
	.cfi_startproc
.LVL152:
	mflr 0
	stwu 1,-32(1)
.LCFI28:
	.cfi_def_cfa_offset 32
	.cfi_register 65, 0
.LBB1494:
	.loc 2 672 0
	lis 9,sessLocal@ha
	la 9,sessLocal@l(9)
.LBE1494:
	.loc 2 668 0
	stw 30,24(1)
	stw 0,36(1)
.LBB1505:
	.loc 2 672 0
	mulli 0,4,44
	.cfi_offset 65, 4
	.cfi_offset 30, -8
.LBE1505:
	.loc 2 668 0
	mr 30,4
	stw 31,28(1)
.LBB1506:
	.loc 2 672 0
	add 9,9,0
.LBE1506:
	.loc 2 668 0
	mr 31,3
	.cfi_offset 31, -4
.LBB1507:
	.loc 2 672 0
	addi 3,9,136
.LVL153:
.LBE1507:
	.loc 2 668 0
	stw 27,12(1)
	stw 28,16(1)
	mr 27,6
	.cfi_offset 28, -16
	.cfi_offset 27, -20
	stw 29,20(1)
	.loc 2 668 0
	mr 29,5
	.cfi_offset 29, -12
.LBB1508:
	.loc 2 672 0
	bl _ZN6idDict5ClearEv
.LVL154:
	.loc 2 675 0
	slwi 9,30,8
	slwi 0,30,2
	subf 0,0,9
	add 0,0,30
	slwi 9,0,6
	add 0,0,9
	.loc 2 677 0
	li 9,3
	.loc 2 675 0
	slwi 3,0,2
	.loc 2 678 0
	li 0,0
	.loc 2 675 0
	addi 3,3,5936
	add 3,31,3
	addi 28,3,12
.LVL155:
	.loc 2 683 0
	addi 3,3,52
	.loc 2 677 0
	stw 9,8(28)
	.loc 2 680 0
	li 9,-1
	stw 9,28(28)
	.loc 2 676 0
	stw 29,4(28)
	.loc 2 678 0
	stw 0,12(28)
	.loc 2 679 0
	stw 0,16(28)
	.loc 2 681 0
	stw 0,32(28)
	.loc 2 682 0
	stw 0,36(28)
	.loc 2 683 0
	bl _ZN12idMsgChannel9ResetRateEv
	.loc 2 684 0
	cmpwi 7,27,0
.LBB1495:
.LBB1496:
	lis 9,_ZN14idAsyncNetwork19serverMaxClientRateE@ha
	la 9,_ZN14idAsyncNetwork19serverMaxClientRateE@l(9)
.LBE1496:
.LBE1495:
	bne- 7,.L107
.LBB1498:
.LBB1497:
	.file 7 "d:/Data/Nintendo/DoomGX/src/framework/async/../../idlib/../framework/CVarSystem.h"
	.loc 7 143 0 discriminator 1
	lwz 11,44(9)
	lwz 27,36(11)
.LVL156:
.L107:
.LBE1497:
.LBE1498:
	.loc 2 684 0 discriminator 3
	stw 27,20(28)
.LBB1499:
.LBB1500:
	.loc 7 143 0 discriminator 3
	lwz 9,44(9)
	lwz 0,36(9)
.LVL157:
.LBE1500:
.LBE1499:
.LBB1501:
.LBB1502:
	.file 8 "d:/Data/Nintendo/DoomGX/src/framework/async/../../idlib/../framework/async/MsgChannel.h"
	.loc 8 97 0 discriminator 3
	cmpw 7,27,0
	ble- 7,.L108
	mr 27,0
.LVL158:
.L108:
.LBE1502:
.LBE1501:
	.loc 2 686 0 discriminator 3
	li 9,0
.LBB1504:
.LBB1503:
	.loc 8 97 0 discriminator 3
	stw 27,56(28)
.LBE1503:
.LBE1504:
	.loc 2 686 0 discriminator 3
	stw 9,24(28)
	.loc 2 687 0 discriminator 3
	addis 5,28,0x1
	.loc 2 698 0 discriminator 3
	li 8,256
	.loc 2 697 0 discriminator 3
	li 11,0
	.loc 2 687 0 discriminator 3
	lwz 0,8(31)
	.loc 2 698 0 discriminator 3
	mtctr 8
	.loc 2 687 0 discriminator 3
	stw 0,196(5)
	.loc 2 698 0 discriminator 3
	li 0,0
	.loc 2 688 0 discriminator 3
	lwz 10,8(31)
	stw 10,200(5)
	.loc 2 689 0 discriminator 3
	lwz 10,8(31)
	stw 10,204(5)
	.loc 2 690 0 discriminator 3
	lwz 10,8(31)
	stw 10,208(5)
	.loc 2 691 0 discriminator 3
	lwz 10,8(31)
	stw 10,212(5)
	.loc 2 692 0 discriminator 3
	lwz 10,8(31)
	.loc 2 693 0 discriminator 3
	stw 9,224(5)
	.loc 2 692 0 discriminator 3
	stw 10,216(5)
	.loc 2 694 0 discriminator 3
	stw 9,228(5)
.LVL159:
.L109:
	.loc 2 698 0 discriminator 2
	slwi 10,11,2
	.loc 2 697 0 discriminator 2
	addi 11,11,1
.LVL160:
	.loc 2 698 0 discriminator 2
	add 10,10,30
	addi 10,10,8408
	slwi 10,10,5
	add 10,31,10
	stw 0,12(10)
	stw 0,16(10)
	stw 0,20(10)
	stw 0,24(10)
	stw 0,28(10)
	stw 0,32(10)
	stw 0,36(10)
	stw 0,40(10)
	.loc 2 697 0 discriminator 2
	bdnz .L109
	.loc 2 702 0
	lis 9,game@ha
	mr 4,30
	lwz 3,game@l(9)
	addi 5,5,232
	lwz 9,0(3)
	lwz 0,96(9)
	mtctr 0
	bctrl
.LVL161:
.LBE1508:
	.loc 2 703 0
	lwz 0,36(1)
	lwz 27,12(1)
	mtlr 0
	lwz 28,16(1)
.LVL162:
	lwz 29,20(1)
.LVL163:
	lwz 30,24(1)
.LVL164:
	lwz 31,28(1)
.LVL165:
	addi 1,1,32
.LCFI29:
	.cfi_def_cfa_offset 0
	.cfi_restore 31
	.cfi_restore 30
	.cfi_restore 29
	.cfi_restore 28
	.cfi_restore 27
	blr
	.cfi_endproc
.LFE2580:
	.size	_ZN13idAsyncServer10InitClientEiii, .-_ZN13idAsyncServer10InitClientEiii
	.align 2
	.globl _ZN13idAsyncServer15InitLocalClientEi
	.type	_ZN13idAsyncServer15InitLocalClientEi, @function
_ZN13idAsyncServer15InitLocalClientEi:
.LFB2581:
	.loc 2 710 0
	.cfi_startproc
.LVL166:
	stwu 1,-64(1)
.LCFI30:
	.cfi_def_cfa_offset 64
	mflr 0
.LBB1509:
	.loc 2 714 0
	li 6,0
	li 5,0
.LBE1509:
	.loc 2 710 0
	stw 30,56(1)
	mr 30,3
	.cfi_offset 30, -8
	.cfi_register 65, 0
	stw 0,68(1)
	stw 29,52(1)
	stw 31,60(1)
	.loc 2 710 0
	mr 31,4
	.cfi_offset 31, -4
	.cfi_offset 29, -12
	.cfi_offset 65, 4
.LBB1510:
	.loc 2 713 0
	stw 4,56(30)
	.loc 2 717 0
	slwi 29,31,8
	.loc 2 714 0
	bl _ZN13idAsyncServer10InitClientEiii
.LVL167:
	.loc 2 717 0
	slwi 0,31,2
	subf 29,0,29
	lwz 5,48(30)
	add 29,29,31
	addi 4,1,32
	slwi 0,29,6
	.loc 2 719 0
	mulli 31,31,44
.LVL168:
	.loc 2 717 0
	add 29,29,0
	.loc 2 715 0
	li 0,0
	.loc 2 717 0
	slwi 29,29,2
	.loc 2 715 0
	stw 0,8(1)
	.loc 2 717 0
	add 3,30,29
	.loc 2 715 0
	stw 0,12(1)
	.loc 2 717 0
	addi 3,3,5988
	.loc 2 715 0
	stw 0,16(1)
	.loc 2 717 0
	stw 0,32(1)
	.loc 2 718 0
	add 30,30,29
.LVL169:
	.loc 2 717 0
	stw 0,36(1)
	stw 0,40(1)
	bl _ZN12idMsgChannel4InitE8netadr_ti
	.loc 2 718 0
	li 0,4
	.loc 2 719 0
	lis 9,cvarSystem@ha
	.loc 2 718 0
	stw 0,5956(30)
	.loc 2 719 0
	li 4,512
	lwz 3,cvarSystem@l(9)
	lwz 9,0(3)
	lwz 0,96(9)
	mtctr 0
	bctrl
	mr 4,3
	lis 3,sessLocal@ha
	la 3,sessLocal@l(3)
	add 3,3,31
	addi 3,3,136
	bl _ZN6idDictaSERKS_
.LBE1510:
	.loc 2 720 0
	lwz 0,68(1)
	lwz 29,52(1)
	mtlr 0
	lwz 30,56(1)
	lwz 31,60(1)
	addi 1,1,64
.LCFI31:
	.cfi_def_cfa_offset 0
	.cfi_restore 31
	.cfi_restore 30
	.cfi_restore 29
	blr
	.cfi_endproc
.LFE2581:
	.size	_ZN13idAsyncServer15InitLocalClientEi, .-_ZN13idAsyncServer15InitLocalClientEi
	.align 2
	.globl _ZN13idAsyncServer16BeginLocalClientEv
	.type	_ZN13idAsyncServer16BeginLocalClientEv, @function
_ZN13idAsyncServer16BeginLocalClientEv:
.LFB2582:
	.loc 2 727 0
	.cfi_startproc
.LVL170:
	stwu 1,-16(1)
.LCFI32:
	.cfi_def_cfa_offset 16
	mflr 0
	stw 30,8(1)
	.loc 2 728 0
	lis 30,game@ha
	.cfi_offset 30, -8
	.cfi_register 65, 0
	.loc 2 727 0
	stw 31,12(1)
	mr 31,3
	.cfi_offset 31, -4
	stw 0,20(1)
	.loc 2 728 0
	lwz 9,game@l(30)
	lwz 4,56(31)
	lwz 11,0(9)
	mr 3,9
.LVL171:
	lwz 0,16(11)
	.cfi_offset 65, 4
	mtctr 0
	bctrl
	.loc 2 729 0
	lwz 4,56(31)
	lwz 3,game@l(30)
	lis 5,sessLocal@ha
	mulli 0,4,44
	la 5,sessLocal@l(5)
	lwz 9,0(3)
	li 6,0
	add 5,5,0
	li 7,0
	lwz 0,20(9)
	addi 5,5,136
	mtctr 0
	bctrl
	.loc 2 730 0
	lwz 3,game@l(30)
	lwz 4,56(31)
	lwz 9,0(3)
	lwz 0,100(9)
	mtctr 0
	bctrl
	.loc 2 731 0
	lwz 0,20(1)
	lwz 30,8(1)
	mtlr 0
	lwz 31,12(1)
.LVL172:
	addi 1,1,16
.LCFI33:
	.cfi_def_cfa_offset 0
	.cfi_restore 31
	.cfi_restore 30
	blr
	.cfi_endproc
.LFE2582:
	.size	_ZN13idAsyncServer16BeginLocalClientEv, .-_ZN13idAsyncServer16BeginLocalClientEv
	.align 2
	.globl _ZN13idAsyncServer16LocalClientInputEv
	.type	_ZN13idAsyncServer16LocalClientInputEv, @function
_ZN13idAsyncServer16LocalClientInputEv:
.LFB2583:
	.loc 2 738 0
	.cfi_startproc
.LVL173:
	mflr 0
	stwu 1,-64(1)
.LCFI34:
	.cfi_def_cfa_offset 64
	.cfi_register 65, 0
	stw 31,60(1)
	mr 31,3
	.cfi_offset 31, -4
	stw 0,68(1)
	stw 28,48(1)
	stw 29,52(1)
	stw 30,56(1)
.LBB1511:
	.loc 2 741 0
	lwz 30,56(3)
	.cfi_offset 30, -8
	.cfi_offset 29, -12
	.cfi_offset 28, -16
	.cfi_offset 65, 4
	cmpwi 7,30,0
	blt- 7,.L115
	.loc 2 746 0
	lis 9,usercmdGen@ha
	.loc 2 745 0
	addis 29,3,0x5
	.loc 2 746 0
	lwz 4,usercmdGen@l(9)
	addi 3,1,16
.LVL174:
	.loc 2 745 0
	lbz 28,-25837(29)
.LVL175:
	.loc 2 746 0
	lwz 9,0(4)
	slwi 28,28,2
.LVL176:
	lwz 0,64(9)
	add 30,28,30
	addi 30,30,8408
	mtctr 0
	slwi 30,30,5
	add 30,31,30
	bctrl
	lwz 9,40(1)
	lwz 0,44(1)
	lwz 6,20(1)
	lwz 7,24(1)
	lwz 8,28(1)
	lwz 10,32(1)
	lwz 11,36(1)
	lwz 5,16(1)
	stw 6,16(30)
	stw 5,12(30)
	stw 7,20(30)
	stw 8,24(30)
	stw 10,28(30)
	stw 11,32(30)
	stw 9,36(30)
	stw 0,40(30)
	.loc 2 747 0
	lwz 0,56(31)
	lwz 9,-25840(29)
	add 4,28,0
	addi 4,4,8408
	.loc 2 749 0
	addi 3,9,-1
	.loc 2 747 0
	slwi 4,4,5
	.loc 2 749 0
	rlwinm 3,3,2,22,29
	.loc 2 747 0
	add 4,31,4
	.loc 2 749 0
	add 3,3,0
	.loc 2 747 0
	stw 9,12(4)
	.loc 2 749 0
	addi 3,3,8408
	slwi 3,3,5
	.loc 2 748 0
	lwz 9,-25836(29)
	.loc 2 749 0
	add 3,31,3
	addi 3,3,12
	.loc 2 748 0
	stw 9,16(4)
	.loc 2 749 0
	addi 4,4,12
	bl _ZN14idAsyncNetwork19UsercmdInputChangedERK9usercmd_tS2_
	.loc 2 750 0
	lwz 0,56(31)
	.loc 2 749 0
	cmpwi 7,3,0
	.loc 2 750 0
	lwz 9,8(31)
	.loc 2 749 0
	bne- 7,.L117
	mulli 0,0,16445
.L118:
	.loc 2 752 0
	lwz 11,-25840(29)
	slwi 0,0,2
	add 31,31,0
.LVL177:
	stw 11,5980(31)
	.loc 2 754 0
	addis 11,31,0x1
	.loc 2 753 0
	lwz 0,-25836(29)
	stw 0,5984(31)
	.loc 2 754 0
	stw 9,6160(11)
.LVL178:
.L115:
.LBE1511:
	.loc 2 755 0
	lwz 0,68(1)
	lwz 28,48(1)
	mtlr 0
	lwz 29,52(1)
	lwz 30,56(1)
	lwz 31,60(1)
	addi 1,1,64
	.cfi_remember_state
.LCFI35:
	.cfi_def_cfa_offset 0
	.cfi_restore 31
	.cfi_restore 30
	.cfi_restore 29
	.cfi_restore 28
	blr
.LVL179:
.L117:
.LCFI36:
	.cfi_restore_state
.LBB1512:
	.loc 2 750 0
	slwi 11,0,2
	slwi 10,0,8
	subf 11,11,10
	add 0,11,0
	slwi 11,0,6
	add 0,0,11
	slwi 11,0,2
	add 11,31,11
	addis 11,11,0x1
	stw 9,6164(11)
	b .L118
.LBE1512:
	.cfi_endproc
.LFE2583:
	.size	_ZN13idAsyncServer16LocalClientInputEv, .-_ZN13idAsyncServer16LocalClientInputEv
	.align 2
	.globl _ZN13idAsyncServer19SendReliableMessageEiRK8idBitMsg
	.type	_ZN13idAsyncServer19SendReliableMessageEiRK8idBitMsg, @function
_ZN13idAsyncServer19SendReliableMessageEiRK8idBitMsg:
.LFB2585:
	.loc 2 801 0
	.cfi_startproc
.LVL180:
	mflr 0
	stwu 1,-24(1)
.LCFI37:
	.cfi_def_cfa_offset 24
	.cfi_register 65, 0
	stw 30,16(1)
	mr 30,3
	.cfi_offset 30, -8
	stw 31,20(1)
	mr 31,4
	.cfi_offset 31, -4
	stw 0,28(1)
	stw 29,12(1)
	.loc 2 802 0
	lwz 0,56(3)
	.cfi_offset 29, -12
	.cfi_offset 65, 4
	cmpw 7,0,4
	beq- 7,.L119
	.loc 2 805 0
	slwi 9,4,8
	slwi 0,4,2
	subf 0,0,9
	add 0,0,4
	mr 4,5
.LVL181:
	slwi 29,0,6
	add 29,0,29
	slwi 29,29,2
	add 29,3,29
	addi 29,29,5988
	mr 3,29
.LVL182:
	bl _ZN12idMsgChannel19SendReliableMessageERK8idBitMsg
.LVL183:
	cmpwi 7,3,0
	beq- 7,.L121
.L119:
	.loc 2 809 0
	lwz 0,28(1)
	lwz 29,12(1)
	mtlr 0
	lwz 30,16(1)
.LVL184:
	lwz 31,20(1)
.LVL185:
	addi 1,1,24
	.cfi_remember_state
.LCFI38:
	.cfi_def_cfa_offset 0
	.cfi_restore 31
	.cfi_restore 30
	.cfi_restore 29
	blr
.LVL186:
.L121:
.LCFI39:
	.cfi_restore_state
.LBB1515:
.LBB1516:
	.loc 2 806 0
	mr 3,29
	bl _ZN12idMsgChannel21ClearReliableMessagesEv
.LBE1516:
.LBE1515:
	.loc 2 809 0
	lwz 0,28(1)
	lwz 29,12(1)
.LBB1521:
.LBB1517:
	.loc 2 807 0
	mr 3,30
	mr 4,31
.LBE1517:
.LBE1521:
	.loc 2 809 0
	lwz 30,16(1)
.LVL187:
	lwz 31,20(1)
.LVL188:
.LBB1522:
.LBB1518:
	.loc 2 807 0
	lis 5,.LC7@ha
.LBE1518:
.LBE1522:
	.loc 2 809 0
	mtlr 0
.LBB1523:
.LBB1519:
	.loc 2 807 0
	la 5,.LC7@l(5)
.LBE1519:
.LBE1523:
	.loc 2 809 0
	addi 1,1,24
.LCFI40:
	.cfi_def_cfa_offset 0
	.cfi_restore 31
	.cfi_restore 30
	.cfi_restore 29
.LBB1524:
.LBB1520:
	.loc 2 807 0
	b _ZN13idAsyncServer10DropClientEiPKc
.LVL189:
.LVL190:
.LVL191:
.LBE1520:
.LBE1524:
	.cfi_endproc
.LFE2585:
	.size	_ZN13idAsyncServer19SendReliableMessageEiRK8idBitMsg, .-_ZN13idAsyncServer19SendReliableMessageEiRK8idBitMsg
	.align 2
	.globl _ZN13idAsyncServer10DropClientEiPKc
	.type	_ZN13idAsyncServer10DropClientEiPKc, @function
_ZN13idAsyncServer10DropClientEiPKc:
.LFB2584:
	.loc 2 762 0
	.cfi_startproc
.LVL192:
	stwu 1,-16448(1)
.LCFI41:
	.cfi_def_cfa_offset 16448
	mflr 0
	stw 30,16440(1)
	mr 30,3
	.cfi_offset 30, -8
	.cfi_register 65, 0
	stw 31,16444(1)
.LBB1540:
	.loc 2 764 0
	addi 3,1,8
.LVL193:
.LBE1540:
	.loc 2 762 0
	mr 31,4
	.cfi_offset 31, -4
	stw 0,16452(1)
	stw 28,16432(1)
	mr 28,5
	.cfi_offset 28, -16
	.cfi_offset 65, 4
	stw 29,16436(1)
	stw 26,16424(1)
	stw 27,16428(1)
.LBB1564:
	.loc 2 764 0
	.cfi_offset 27, -20
	.cfi_offset 26, -24
	.cfi_offset 29, -12
	bl _ZN8idBitMsgC1Ev
.LVL194:
	.loc 2 767 0
	slwi 0,31,2
	slwi 9,31,8
	subf 0,0,9
	add 0,0,31
	slwi 29,0,6
	add 29,0,29
	slwi 29,29,2
	add 29,30,29
	addi 29,29,5948
.LVL195:
	.loc 2 769 0
	lwz 0,8(29)
	cmpwi 7,0,1
	ble- 7,.L122
	.loc 2 773 0 discriminator 1
	lwz 0,56(30)
	cmpw 7,0,31
	beq- 7,.L124
.LVL196:
.LBB1541:
.LBB1542:
	.loc 3 156 0
	addi 0,1,40
.LBE1542:
.LBE1541:
.LBB1545:
.LBB1546:
	.loc 3 284 0
	li 5,8
	addi 3,1,8
.LVL197:
	li 4,5
.LBE1546:
.LBE1545:
.LBB1548:
.LBB1543:
	.loc 3 156 0
	stw 0,8(1)
.LBE1543:
.LBE1548:
	.loc 2 777 0
	mr 26,30
.LBB1549:
.LBB1544:
	.loc 3 157 0
	stw 0,12(1)
	.loc 3 158 0
	li 0,16384
	stw 0,16(1)
.LVL198:
.LBE1544:
.LBE1549:
.LBB1550:
.LBB1547:
	.loc 3 284 0
	bl _ZN8idBitMsg9WriteBitsEii
.LVL199:
.LBE1547:
.LBE1550:
.LBB1551:
.LBB1552:
	.loc 3 296 0
	addi 3,1,8
.LVL200:
	mr 4,31
	li 5,32
.LBE1552:
.LBE1551:
	.loc 2 777 0
	li 27,0
.LBB1554:
.LBB1553:
	.loc 3 296 0
	bl _ZN8idBitMsg9WriteBitsEii
.LVL201:
.LBE1553:
.LBE1554:
	.loc 2 777 0
	addi 3,1,8
.LVL202:
	mr 4,28
	li 5,-1
	li 6,1
	bl _ZN8idBitMsg11WriteStringEPKcib
.LVL203:
.L127:
	.loc 2 780 0
	cmpw 7,27,31
	.loc 2 781 0
	mr 4,27
	mr 3,30
	addi 5,1,8
.LVL204:
	.loc 2 780 0
	beq- 7,.L125
	.loc 2 780 0 is_stmt 0 discriminator 1
	lwz 0,5956(26)
	cmpwi 7,0,2
	ble- 7,.L126
.L125:
	.loc 2 781 0 is_stmt 1
	bl _ZN13idAsyncServer19SendReliableMessageEiRK8idBitMsg
.LVL205:
.L126:
	.loc 2 778 0
	cmpwi 7,27,3
	addis 26,26,0x1
	addi 26,26,244
	addi 27,27,1
.LVL206:
	bne+ 7,.L127
.LVL207:
.L124:
	.loc 2 786 0
	lis 27,common@ha
	lwz 3,common@l(27)
	lwz 9,0(3)
	lwz 0,104(9)
	mtctr 0
	bctrl
	mr 4,28
	bl _ZNK10idLangDict9GetStringEPKc
	.loc 2 787 0
	lis 4,.LC9@ha
	.loc 2 786 0
	mr 30,3
.LVL208:
	.loc 2 787 0
	lwz 3,common@l(27)
.LVL209:
	la 4,.LC9@l(4)
	mr 5,31
	lwz 9,0(3)
	mr 6,30
	lwz 0,68(9)
	mtctr 0
	crxor 6,6,6
	bctrl
	.loc 2 788 0
	lis 9,cmdSystem@ha
	lwz 28,cmdSystem@l(9)
	mulli 0,31,44
	lis 3,sessLocal@ha
.LBB1555:
.LBB1556:
	.file 9 "d:/Data/Nintendo/DoomGX/src/framework/async/../../idlib/../idlib/Dict.h"
	.loc 9 241 0
	lis 4,.LC10@ha
.LBE1556:
.LBE1555:
	.loc 2 788 0
	la 3,sessLocal@l(3)
	lwz 9,0(28)
	add 3,3,0
.LBB1561:
.LBB1558:
	.loc 9 241 0
	la 4,.LC10@l(4)
	addi 3,3,136
.LBE1558:
.LBE1561:
	.loc 2 788 0
	lwz 27,36(9)
.LVL210:
.LBB1562:
.LBB1559:
	.loc 9 241 0
	bl _ZNK6idDict7FindKeyEPKc
.LVL211:
	.loc 9 242 0
	cmpwi 0,3,0
	beq- 0,.L130
.LVL212:
.LBB1557:
	.loc 2 2829 0
	lwz 9,4(3)
	lwz 4,4(9)
.LVL213:
.L128:
.LBE1557:
.LBE1559:
.LBE1562:
	.loc 2 788 0
	lis 3,.LC11@ha
.LVL214:
	mr 5,30
	la 3,.LC11@l(3)
	crxor 6,6,6
	bl _Z2vaPKcz
	li 4,0
	mr 5,3
	mtctr 27
	mr 3,28
	bctrl
	.loc 2 791 0
	lis 9,game@ha
	lwz 3,game@l(9)
	mr 4,31
	lwz 9,0(3)
	lwz 0,104(9)
	mtctr 0
	bctrl
	.loc 2 793 0
	li 0,1
	stw 0,8(29)
.LVL215:
.L122:
.LBE1564:
	.loc 2 794 0
	lwz 0,16452(1)
	lwz 26,16424(1)
	mtlr 0
	lwz 27,16428(1)
	lwz 28,16432(1)
	lwz 29,16436(1)
.LVL216:
	lwz 30,16440(1)
	lwz 31,16444(1)
.LVL217:
	addi 1,1,16448
	.cfi_remember_state
.LCFI42:
	.cfi_def_cfa_offset 0
	.cfi_restore 31
	.cfi_restore 30
	.cfi_restore 29
	.cfi_restore 28
	.cfi_restore 27
	.cfi_restore 26
	blr
.LVL218:
.L130:
.LCFI43:
	.cfi_restore_state
.LBB1565:
.LBB1563:
.LBB1560:
	.loc 9 245 0
	lis 4,.LC8@ha
	la 4,.LC8@l(4)
	b .L128
.LBE1560:
.LBE1563:
.LBE1565:
	.cfi_endproc
.LFE2584:
	.size	_ZN13idAsyncServer10DropClientEiPKc, .-_ZN13idAsyncServer10DropClientEiPKc
	.align 2
	.globl _ZN13idAsyncServer19CheckClientTimeoutsEv
	.type	_ZN13idAsyncServer19CheckClientTimeoutsEv, @function
_ZN13idAsyncServer19CheckClientTimeoutsEv:
.LFB2586:
	.loc 2 816 0
	.cfi_startproc
.LVL219:
	mflr 0
	stwu 1,-40(1)
.LCFI44:
	.cfi_def_cfa_offset 40
	.cfi_register 65, 0
.LBB1566:
.LBB1567:
.LBB1568:
	.loc 2 819 0
	lis 9,_ZN14idAsyncNetwork19serverZombieTimeoutE+44@ha
	.loc 7 143 0
	lwz 11,_ZN14idAsyncNetwork19serverZombieTimeoutE+44@l(9)
.LBE1568:
.LBE1567:
.LBB1569:
.LBB1570:
	lis 9,_ZN14idAsyncNetwork19serverClientTimeoutE+44@ha
.LBE1570:
.LBE1569:
.LBE1566:
	.loc 2 816 0
	stw 26,16(1)
.LBB1583:
.LBB1572:
.LBB1573:
	.loc 2 836 0
	li 26,0
	.cfi_offset 26, -24
.LBE1573:
.LBE1572:
.LBE1583:
	.loc 2 816 0
	stw 27,20(1)
.LBB1584:
.LBB1578:
.LBB1574:
	.loc 2 841 0
	lis 27,.LC12@ha
	.cfi_offset 27, -20
.LBE1574:
.LBE1578:
.LBE1584:
	.loc 2 816 0
	stw 29,28(1)
.LBB1585:
.LBB1579:
.LBB1575:
	.loc 2 841 0
	la 27,.LC12@l(27)
.LBE1575:
.LBE1579:
.LBE1585:
	.loc 2 816 0
	stw 30,32(1)
	mr 30,3
	.cfi_offset 30, -8
	.cfi_offset 29, -12
	stw 31,36(1)
.LBB1586:
	.loc 2 822 0
	li 31,0
	.cfi_offset 31, -4
.LBE1586:
	.loc 2 816 0
	stw 0,44(1)
	stw 25,12(1)
	stw 28,24(1)
.LBB1587:
.LBB1580:
.LBB1571:
	.loc 7 143 0
	lwz 9,_ZN14idAsyncNetwork19serverClientTimeoutE+44@l(9)
.LBE1571:
.LBE1580:
	.loc 2 819 0
	lwz 28,36(11)
	.cfi_offset 28, -16
	.cfi_offset 25, -28
	.cfi_offset 65, 4
	.loc 2 820 0
	lwz 0,36(9)
	.loc 2 819 0
	mulli 28,28,-1000
	lwz 9,8(3)
	.loc 2 820 0
	mulli 29,0,-1000
	.loc 2 819 0
	add 28,9,28
.LVL220:
	.loc 2 820 0
	add 29,9,29
.LVL221:
.L136:
.LBB1581:
.LBB1576:
	.loc 2 823 0
	slwi 9,31,8
	slwi 0,31,2
	subf 0,0,9
	add 0,0,31
	slwi 3,0,6
	add 3,0,3
	.loc 2 825 0
	lwz 0,56(30)
	.loc 2 823 0
	slwi 3,3,2
	.loc 2 825 0
	cmpw 7,0,31
	.loc 2 823 0
	addi 3,3,5936
	add 3,30,3
	addi 25,3,12
	.loc 2 829 0
	addis 9,25,0x1
	.loc 2 825 0
	beq- 7,.L133
	.loc 2 829 0
	lwz 0,212(9)
	lwz 11,8(30)
	cmpw 7,0,11
	ble- 7,.L134
	.loc 2 830 0
	stw 11,212(9)
.L133:
.LVL222:
.LBE1576:
	.loc 2 822 0
	cmpwi 7,31,3
	addi 31,31,1
.LVL223:
	bne+ 7,.L136
.LVL224:
.LBE1581:
.LBE1587:
	.loc 2 845 0
	lwz 0,44(1)
	lwz 25,12(1)
	mtlr 0
	lwz 26,16(1)
	lwz 27,20(1)
	lwz 28,24(1)
.LVL225:
	lwz 29,28(1)
.LVL226:
	lwz 30,32(1)
.LVL227:
	lwz 31,36(1)
.LVL228:
	addi 1,1,40
	.cfi_remember_state
.LCFI45:
	.cfi_def_cfa_offset 0
	.cfi_restore 31
	.cfi_restore 30
	.cfi_restore 29
	.cfi_restore 28
	.cfi_restore 27
	.cfi_restore 26
	.cfi_restore 25
	blr
.LVL229:
.L134:
.LCFI46:
	.cfi_restore_state
.LBB1588:
.LBB1582:
.LBB1577:
	.loc 2 834 0
	lwz 9,8(25)
	.loc 2 840 0
	cmpw 6,29,0
	.loc 2 834 0
	cmpwi 7,9,1
	beq- 7,.L139
	.loc 2 840 0
	ble- 7,.L133
	.loc 2 840 0 is_stmt 0 discriminator 1
	ble+ 6,.L133
	.loc 2 841 0 is_stmt 1
	mr 4,31
	mr 3,30
	mr 5,27
	bl _ZN13idAsyncServer10DropClientEiPKc
	.loc 2 842 0
	b .L133
.L139:
	.loc 2 834 0 discriminator 1
	cmpw 7,28,0
	ble+ 7,.L133
	.loc 2 835 0
	addi 3,3,52
	bl _ZN12idMsgChannel8ShutdownEv
	.loc 2 836 0
	stw 26,8(25)
	.loc 2 837 0
	b .L133
.LBE1577:
.LBE1582:
.LBE1588:
	.cfi_endproc
.LFE2586:
	.size	_ZN13idAsyncServer19CheckClientTimeoutsEv, .-_ZN13idAsyncServer19CheckClientTimeoutsEv
	.align 2
	.globl _ZN13idAsyncServer18SendPrintBroadcastEPKc
	.type	_ZN13idAsyncServer18SendPrintBroadcastEPKc, @function
_ZN13idAsyncServer18SendPrintBroadcastEPKc:
.LFB2587:
	.loc 2 852 0
	.cfi_startproc
.LVL230:
	stwu 1,-16440(1)
.LCFI47:
	.cfi_def_cfa_offset 16440
	mflr 0
	stw 31,16436(1)
	mr 31,3
	.cfi_offset 31, -4
	.cfi_register 65, 0
.LBB1596:
	.loc 2 854 0
	addi 3,1,8
.LVL231:
.LBE1596:
	.loc 2 852 0
	stw 0,16444(1)
	stw 29,16428(1)
.LBB1605:
	.loc 2 859 0
	mr 29,31
	.cfi_offset 29, -12
	.cfi_offset 65, 4
.LBE1605:
	.loc 2 852 0
	stw 30,16432(1)
	.loc 2 852 0
	mr 30,4
	.cfi_offset 30, -8
.LBB1606:
	.loc 2 854 0
	bl _ZN8idBitMsgC1Ev
.LVL232:
.LBB1597:
.LBB1598:
	.loc 3 156 0
	addi 0,1,40
.LBE1598:
.LBE1597:
.LBB1600:
.LBB1601:
	.loc 3 284 0
	li 5,8
	addi 3,1,8
.LVL233:
	li 4,4
.LBE1601:
.LBE1600:
.LBB1603:
.LBB1599:
	.loc 3 156 0
	stw 0,8(1)
	.loc 3 157 0
	stw 0,12(1)
	.loc 3 158 0
	li 0,16384
	stw 0,16(1)
.LVL234:
.LBE1599:
.LBE1603:
.LBB1604:
.LBB1602:
	.loc 3 284 0
	bl _ZN8idBitMsg9WriteBitsEii
.LVL235:
.LBE1602:
.LBE1604:
	.loc 2 859 0
	mr 4,30
	addi 3,1,8
.LVL236:
	li 5,-1
	li 6,1
	bl _ZN8idBitMsg11WriteStringEPKcib
.LVL237:
	li 30,0
.LVL238:
.L142:
	.loc 2 862 0
	lwz 0,5956(29)
	cmpwi 7,0,2
	bgt- 7,.L145
.L141:
.LVL239:
	.loc 2 861 0
	cmpwi 7,30,3
	addis 29,29,0x1
	addi 29,29,244
	addi 30,30,1
.LVL240:
	bne+ 7,.L142
.LBE1606:
	.loc 2 866 0
	lwz 0,16444(1)
	lwz 29,16428(1)
	mtlr 0
	lwz 30,16432(1)
.LVL241:
	lwz 31,16436(1)
.LVL242:
	addi 1,1,16440
	.cfi_remember_state
.LCFI48:
	.cfi_def_cfa_offset 0
	.cfi_restore 31
	.cfi_restore 30
	.cfi_restore 29
	blr
.LVL243:
.L145:
.LCFI49:
	.cfi_restore_state
.LBB1607:
	.loc 2 863 0
	mr 4,30
	mr 3,31
	addi 5,1,8
.LVL244:
	bl _ZN13idAsyncServer19SendReliableMessageEiRK8idBitMsg
.LVL245:
	b .L141
.LBE1607:
	.cfi_endproc
.LFE2587:
	.size	_ZN13idAsyncServer18SendPrintBroadcastEPKc, .-_ZN13idAsyncServer18SendPrintBroadcastEPKc
	.align 2
	.globl _ZN13idAsyncServer17SendPrintToClientEiPKc
	.type	_ZN13idAsyncServer17SendPrintToClientEiPKc, @function
_ZN13idAsyncServer17SendPrintToClientEiPKc:
.LFB2588:
	.loc 2 873 0
	.cfi_startproc
.LVL246:
	stwu 1,-16440(1)
.LCFI50:
	.cfi_def_cfa_offset 16440
	mflr 0
	stw 30,16432(1)
	mr 30,3
	.cfi_offset 30, -8
	.cfi_register 65, 0
	stw 31,16436(1)
.LBB1617:
	.loc 2 874 0
	addi 3,1,8
.LVL247:
.LBE1617:
	.loc 2 873 0
	mr 31,4
	.cfi_offset 31, -4
	stw 0,16444(1)
	stw 29,16428(1)
	.loc 2 873 0
	mr 29,5
	.cfi_offset 29, -12
	.cfi_offset 65, 4
.LBB1626:
	.loc 2 874 0
	bl _ZN8idBitMsgC1Ev
.LVL248:
	.loc 2 877 0
	slwi 9,31,8
	slwi 0,31,2
	subf 0,0,9
	add 0,0,31
	slwi 9,0,6
	add 9,0,9
	slwi 9,9,2
	.loc 2 879 0
	add 9,30,9
	lwz 0,5956(9)
	cmpwi 7,0,2
	ble+ 7,.L146
.LVL249:
.LBB1618:
.LBB1619:
	.loc 3 156 0
	addi 0,1,40
.LBE1619:
.LBE1618:
.LBB1621:
.LBB1622:
	.loc 3 284 0
	li 5,8
	addi 3,1,8
.LVL250:
	li 4,4
.LBE1622:
.LBE1621:
.LBB1624:
.LBB1620:
	.loc 3 156 0
	stw 0,8(1)
	.loc 3 157 0
	stw 0,12(1)
	.loc 3 158 0
	li 0,16384
	stw 0,16(1)
.LVL251:
.LBE1620:
.LBE1624:
.LBB1625:
.LBB1623:
	.loc 3 284 0
	bl _ZN8idBitMsg9WriteBitsEii
.LVL252:
.LBE1623:
.LBE1625:
	.loc 2 885 0
	addi 3,1,8
.LVL253:
	mr 4,29
	li 5,-1
	li 6,1
	bl _ZN8idBitMsg11WriteStringEPKcib
.LVL254:
	.loc 2 887 0
	mr 3,30
	mr 4,31
	addi 5,1,8
.LVL255:
	bl _ZN13idAsyncServer19SendReliableMessageEiRK8idBitMsg
.LVL256:
.L146:
.LBE1626:
	.loc 2 888 0
	lwz 0,16444(1)
	lwz 29,16428(1)
.LVL257:
	mtlr 0
	lwz 30,16432(1)
.LVL258:
	lwz 31,16436(1)
.LVL259:
	addi 1,1,16440
.LCFI51:
	.cfi_def_cfa_offset 0
	.cfi_restore 31
	.cfi_restore 30
	.cfi_restore 29
	blr
	.cfi_endproc
.LFE2588:
	.size	_ZN13idAsyncServer17SendPrintToClientEiPKc, .-_ZN13idAsyncServer17SendPrintToClientEiPKc
	.align 2
	.globl _ZN13idAsyncServer21SendUserInfoBroadcastEiRK6idDictb
	.type	_ZN13idAsyncServer21SendUserInfoBroadcastEiRK6idDictb, @function
_ZN13idAsyncServer21SendUserInfoBroadcastEiRK6idDictb:
.LFB2589:
	.loc 2 895 0
	.cfi_startproc
.LVL260:
	stwu 1,-16456(1)
.LCFI52:
	.cfi_def_cfa_offset 16456
	mflr 0
	mfcr 12
	stw 31,16452(1)
	mr 31,3
	.cfi_offset 31, -4
	.cfi_register 70, 12
	.cfi_register 65, 0
.LBB1637:
	.loc 2 896 0
	addi 3,1,8
.LVL261:
.LBE1637:
	.loc 2 895 0
	stw 0,16460(1)
	stw 27,16436(1)
	stw 28,16440(1)
	mr 28,5
	.cfi_offset 28, -16
	.cfi_offset 27, -20
	.cfi_offset 65, 4
	stw 29,16444(1)
	mr 29,6
	.cfi_offset 29, -12
	stw 30,16448(1)
	mr 30,4
	.cfi_offset 30, -8
	stw 12,16424(1)
	stw 25,16428(1)
	stw 26,16432(1)
.LBB1651:
	.loc 2 896 0
	.cfi_offset 26, -24
	.cfi_offset 25, -28
	.cfi_offset 70, -32
	bl _ZN8idBitMsgC1Ev
.LVL262:
	.loc 2 901 0
	lis 9,game@ha
	mr 4,30
	lwz 3,game@l(9)
	mr 5,28
	li 6,0
	li 7,1
	lwz 9,0(3)
	lwz 0,20(9)
	mtctr 0
	bctrl
.LVL263:
	.loc 2 902 0
	mr. 27,3
	beq- 0,.L160
	.loc 2 909 0
	lwz 0,56(31)
	.loc 2 903 0
	li 28,1
.LVL264:
	.loc 2 909 0
	cmpw 7,0,30
	beq- 7,.L163
.LVL265:
.L151:
	.loc 2 918 0
	cmpwi 3,28,0
.LBB1638:
.LBB1639:
	.loc 3 156 0
	addi 0,1,40
.LBE1639:
.LBE1638:
.LBB1641:
.LBB1642:
	.loc 3 284 0
	li 5,8
	addi 3,1,8
.LVL266:
	li 4,2
.LBE1642:
.LBE1641:
.LBB1644:
.LBB1640:
	.loc 3 156 0
	stw 0,8(1)
	.loc 3 157 0
	stw 0,12(1)
	.loc 3 158 0
	li 0,16384
	stw 0,16(1)
.LVL267:
.LBE1640:
.LBE1644:
.LBB1645:
.LBB1643:
	.loc 3 284 0
	bl _ZN8idBitMsg9WriteBitsEii
.LVL268:
.LBE1643:
.LBE1645:
.LBB1646:
.LBB1647:
	addi 3,1,8
.LVL269:
	mr 4,30
	li 5,8
	bl _ZN8idBitMsg9WriteBitsEii
.LVL270:
.LBE1647:
.LBE1646:
	.loc 2 919 0
	addi 3,1,8
.LVL271:
	.loc 2 918 0
	bne- 3,.L162
	.loc 2 918 0 is_stmt 0 discriminator 1
	cmpwi 7,29,0
	beq- 7,.L153
.L162:
	.loc 2 919 0 is_stmt 1
	li 4,0
	li 5,1
	bl _ZN8idBitMsg9WriteBitsEii
.LVL272:
	lis 25,sessLocal@ha
	.loc 2 931 0
	addi 3,1,8
.LVL273:
	mr 4,27
	li 5,0
	mulli 26,30,44
	bl _ZN8idBitMsg14WriteDeltaDictERK6idDictPS1_
.LVL274:
	la 25,sessLocal@l(25)
.L155:
.LVL275:
.LBB1648:
	.loc 2 937 0 discriminator 1
	cmpwi 4,29,0
.LBE1648:
	.loc 2 931 0 discriminator 1
	mr 28,31
	.loc 2 905 0 discriminator 1
	li 29,0
.LVL276:
.L158:
.LBB1649:
	.loc 2 937 0
	lwz 0,5956(28)
	.loc 2 938 0
	mr 4,29
	mr 3,31
	addi 5,1,8
.LVL277:
	.loc 2 937 0
	cmpwi 7,0,2
	ble- 7,.L156
	.loc 2 937 0 is_stmt 0 discriminator 1
	cmpw 7,29,30
	bne- 4,.L157
	.loc 2 937 0 discriminator 2
	beq- 7,.L164
.L157:
	.loc 2 938 0 is_stmt 1
	bl _ZN13idAsyncServer19SendReliableMessageEiRK8idBitMsg
.LVL278:
.L156:
	.loc 2 936 0
	cmpwi 7,29,3
	addis 28,28,0x1
	addi 28,28,244
	addi 29,29,1
.LVL279:
	bne+ 7,.L158
.LBE1649:
	.loc 2 942 0
	add 26,25,26
	mr 4,27
	addi 3,26,136
	bl _ZN6idDictaSERKS_
.LBE1651:
	.loc 2 943 0
	lwz 0,16460(1)
	lwz 12,16424(1)
	mtlr 0
	lwz 25,16428(1)
	lwz 26,16432(1)
	mtcrf 24,12
	lwz 27,16436(1)
.LVL280:
	lwz 28,16440(1)
	lwz 29,16444(1)
.LVL281:
	lwz 30,16448(1)
.LVL282:
	lwz 31,16452(1)
.LVL283:
	addi 1,1,16456
	.cfi_remember_state
.LCFI53:
	.cfi_def_cfa_offset 0
	.cfi_restore 70
	.cfi_restore 31
	.cfi_restore 30
	.cfi_restore 29
	.cfi_restore 28
	.cfi_restore 27
	.cfi_restore 26
	.cfi_restore 25
	blr
.LVL284:
.L164:
.LCFI54:
	.cfi_restore_state
.LBB1652:
.LBB1650:
	.loc 2 937 0 discriminator 3
	beq- 3,.L156
	b .L157
.LVL285:
.L153:
.LBE1650:
	.loc 2 933 0
	mulli 26,30,44
	lis 25,sessLocal@ha
	.loc 2 921 0
	li 4,1
	li 5,1
	.loc 2 933 0
	la 25,sessLocal@l(25)
	.loc 2 921 0
	bl _ZN8idBitMsg9WriteBitsEii
.LVL286:
	.loc 2 933 0
	add 5,25,26
	addi 3,1,8
.LVL287:
	mr 4,27
	addi 5,5,136
	bl _ZN8idBitMsg14WriteDeltaDictERK6idDictPS1_
.LVL288:
	b .L155
.LVL289:
.L160:
	.loc 2 909 0
	lwz 0,56(31)
	.loc 2 906 0
	mr 27,28
	.loc 2 905 0
	li 28,0
.LVL290:
	.loc 2 909 0
	cmpw 7,0,30
	bne+ 7,.L151
.LVL291:
.L163:
	.loc 2 910 0
	lis 9,common@ha
	lis 4,.LC13@ha
	lwz 3,common@l(9)
	la 4,.LC13@l(4)
	.loc 2 911 0
	lis 26,cvarSystem@ha
	.loc 2 910 0
	lwz 9,0(3)
	lwz 0,76(9)
	mtctr 0
	crxor 6,6,6
	bctrl
	.loc 2 911 0
	lwz 3,cvarSystem@l(26)
	mr 4,27
	lwz 9,0(3)
	lwz 0,100(9)
	mtctr 0
	bctrl
	.loc 2 912 0
	lwz 3,cvarSystem@l(26)
	li 4,512
	lwz 9,0(3)
	lwz 0,80(9)
	mtctr 0
	bctrl
	b .L151
.LBE1652:
	.cfi_endproc
.LFE2589:
	.size	_ZN13idAsyncServer21SendUserInfoBroadcastEiRK6idDictb, .-_ZN13idAsyncServer21SendUserInfoBroadcastEiRK6idDictb
	.align 2
	.globl _ZN13idAsyncServer8UpdateUIEi
	.type	_ZN13idAsyncServer8UpdateUIEi, @function
_ZN13idAsyncServer8UpdateUIEi:
.LFB2590:
	.loc 2 953 0
	.cfi_startproc
.LVL292:
	mflr 0
	stwu 1,-16(1)
.LCFI55:
	.cfi_def_cfa_offset 16
	.cfi_register 65, 0
.LBB1653:
	.loc 2 954 0
	lis 9,game@ha
.LBE1653:
	.loc 2 953 0
	stw 30,8(1)
	mr 30,3
	.cfi_offset 30, -8
	stw 31,12(1)
	mr 31,4
	.cfi_offset 31, -4
	stw 0,20(1)
.LBB1654:
	.loc 2 954 0
	lwz 9,game@l(9)
	lwz 11,0(9)
	mr 3,9
.LVL293:
	lwz 0,24(11)
	.cfi_offset 65, 4
	mtctr 0
	bctrl
.LVL294:
	.loc 2 956 0
	mr. 5,3
	beq- 0,.L168
.LBE1654:
	.loc 2 962 0
	lwz 0,20(1)
.LBB1655:
	.loc 2 961 0
	mr 3,30
.LVL295:
	mr 4,31
.LBE1655:
	.loc 2 962 0
	lwz 30,8(1)
.LVL296:
	lwz 31,12(1)
.LVL297:
	mtlr 0
.LBB1656:
	.loc 2 961 0
	li 6,1
.LBE1656:
	.loc 2 962 0
	addi 1,1,16
	.cfi_remember_state
.LCFI56:
	.cfi_def_cfa_offset 0
	.cfi_restore 31
	.cfi_restore 30
.LBB1657:
	.loc 2 961 0
	b _ZN13idAsyncServer21SendUserInfoBroadcastEiRK6idDictb
.LVL298:
.L168:
.LCFI57:
	.cfi_restore_state
	.loc 2 957 0
	lis 9,common@ha
	lis 4,.LC14@ha
	lwz 3,common@l(9)
.LVL299:
	la 4,.LC14@l(4)
	lwz 9,0(3)
	lwz 0,80(9)
	mtctr 0
	crxor 6,6,6
	bctrl
.LVL300:
.LBE1657:
	.loc 2 962 0
	lwz 0,20(1)
	lwz 30,8(1)
.LVL301:
	mtlr 0
	lwz 31,12(1)
.LVL302:
	addi 1,1,16
.LCFI58:
	.cfi_def_cfa_offset 0
	.cfi_restore 31
	.cfi_restore 30
	blr
	.cfi_endproc
.LFE2590:
	.size	_ZN13idAsyncServer8UpdateUIEi, .-_ZN13idAsyncServer8UpdateUIEi
	.align 2
	.globl _ZN13idAsyncServer20SendUserInfoToClientEiiRK6idDict
	.type	_ZN13idAsyncServer20SendUserInfoToClientEiiRK6idDict, @function
_ZN13idAsyncServer20SendUserInfoToClientEiiRK6idDict:
.LFB2591:
	.loc 2 969 0
	.cfi_startproc
.LVL303:
	stwu 1,-16440(1)
.LCFI59:
	.cfi_def_cfa_offset 16440
	mflr 0
	stw 30,16432(1)
	mr 30,3
	.cfi_offset 30, -8
	.cfi_register 65, 0
	stw 31,16436(1)
.LBB1669:
	.loc 2 970 0
	addi 3,1,8
.LVL304:
.LBE1669:
	.loc 2 969 0
	mr 31,4
	.cfi_offset 31, -4
	stw 0,16444(1)
	stw 28,16424(1)
	mr 28,6
	.cfi_offset 28, -16
	.cfi_offset 65, 4
	stw 29,16428(1)
	.loc 2 969 0
	mr 29,5
	.cfi_offset 29, -12
.LBB1680:
	.loc 2 970 0
	bl _ZN8idBitMsgC1Ev
.LVL305:
	.loc 2 973 0
	slwi 9,31,8
	slwi 0,31,2
	subf 0,0,9
	add 0,0,31
	slwi 9,0,6
	add 9,0,9
	slwi 9,9,2
	add 9,30,9
	lwz 0,5956(9)
	cmpwi 7,0,2
	ble+ 7,.L169
.LVL306:
.LBB1670:
.LBB1671:
	.loc 3 156 0
	addi 0,1,40
.LBE1671:
.LBE1670:
.LBB1673:
.LBB1674:
	.loc 3 284 0
	li 5,8
	addi 3,1,8
.LVL307:
	li 4,2
.LBE1674:
.LBE1673:
.LBB1676:
.LBB1672:
	.loc 3 156 0
	stw 0,8(1)
	.loc 3 157 0
	stw 0,12(1)
	.loc 3 158 0
	li 0,16384
	stw 0,16(1)
.LVL308:
.LBE1672:
.LBE1676:
.LBB1677:
.LBB1675:
	.loc 3 284 0
	bl _ZN8idBitMsg9WriteBitsEii
.LVL309:
.LBE1675:
.LBE1677:
.LBB1678:
.LBB1679:
	addi 3,1,8
.LVL310:
	mr 4,29
	li 5,8
	bl _ZN8idBitMsg9WriteBitsEii
.LVL311:
.LBE1679:
.LBE1678:
	.loc 2 980 0
	addi 3,1,8
.LVL312:
	li 5,1
	li 4,0
	bl _ZN8idBitMsg9WriteBitsEii
.LVL313:
	.loc 2 987 0
	mr 4,28
	li 5,0
	addi 3,1,8
.LVL314:
	bl _ZN8idBitMsg14WriteDeltaDictERK6idDictPS1_
.LVL315:
	.loc 2 989 0
	mr 3,30
	mr 4,31
	addi 5,1,8
.LVL316:
	bl _ZN13idAsyncServer19SendReliableMessageEiRK8idBitMsg
.LVL317:
.L169:
.LBE1680:
	.loc 2 990 0
	lwz 0,16444(1)
	lwz 28,16424(1)
.LVL318:
	mtlr 0
	lwz 29,16428(1)
.LVL319:
	lwz 30,16432(1)
.LVL320:
	lwz 31,16436(1)
.LVL321:
	addi 1,1,16440
.LCFI60:
	.cfi_def_cfa_offset 0
	.cfi_restore 31
	.cfi_restore 30
	.cfi_restore 29
	.cfi_restore 28
	blr
	.cfi_endproc
.LFE2591:
	.size	_ZN13idAsyncServer20SendUserInfoToClientEiiRK6idDict, .-_ZN13idAsyncServer20SendUserInfoToClientEiiRK6idDict
	.align 2
	.globl _ZN13idAsyncServer24SendSyncedCvarsBroadcastERK6idDict
	.type	_ZN13idAsyncServer24SendSyncedCvarsBroadcastERK6idDict, @function
_ZN13idAsyncServer24SendSyncedCvarsBroadcastERK6idDict:
.LFB2592:
	.loc 2 997 0
	.cfi_startproc
.LVL322:
	stwu 1,-16448(1)
.LCFI61:
	.cfi_def_cfa_offset 16448
	mflr 0
	stw 29,16436(1)
	mr 29,3
	.cfi_offset 29, -12
	.cfi_register 65, 0
.LBB1688:
	.loc 2 998 0
	addi 3,1,8
.LVL323:
.LBE1688:
	.loc 2 997 0
	stw 0,16452(1)
	stw 27,16428(1)
.LBB1699:
	.loc 2 1004 0
	lis 27,sessLocal+92@ha
	.cfi_offset 27, -20
	.cfi_offset 65, 4
.LBE1699:
	.loc 2 997 0
	stw 28,16432(1)
	mr 28,4
	.cfi_offset 28, -16
	stw 30,16440(1)
.LBB1700:
	.loc 2 1004 0
	la 27,sessLocal+92@l(27)
.LBE1700:
	.loc 2 997 0
	stw 31,16444(1)
.LBB1701:
	.loc 2 998 0
	.cfi_offset 31, -4
	.cfi_offset 30, -8
	bl _ZN8idBitMsgC1Ev
.LVL324:
.LBB1689:
.LBB1690:
	.loc 3 156 0
	addi 0,1,40
.LBE1690:
.LBE1689:
.LBB1693:
.LBB1694:
	.loc 3 284 0
	addi 3,1,8
.LVL325:
	li 4,3
	li 5,8
.LBE1694:
.LBE1693:
.LBB1696:
.LBB1691:
	.loc 3 156 0
	stw 0,8(1)
.LBE1691:
.LBE1696:
	.loc 2 1004 0
	mr 30,29
.LBB1697:
.LBB1692:
	.loc 3 157 0
	stw 0,12(1)
	.loc 3 158 0
	li 0,16384
	stw 0,16(1)
.LVL326:
.LBE1692:
.LBE1697:
.LBB1698:
.LBB1695:
	.loc 3 284 0
	bl _ZN8idBitMsg9WriteBitsEii
.LVL327:
.LBE1695:
.LBE1698:
	.loc 2 1004 0
	addi 3,1,8
.LVL328:
	mr 4,28
	mr 5,27
	li 31,0
	bl _ZN8idBitMsg14WriteDeltaDictERK6idDictPS1_
.LVL329:
.L174:
	.loc 2 1007 0
	lwz 0,5956(30)
	cmpwi 7,0,2
	bgt- 7,.L177
.L173:
.LVL330:
	.loc 2 1006 0
	cmpwi 7,31,3
	addis 30,30,0x1
	addi 30,30,244
	addi 31,31,1
.LVL331:
	bne+ 7,.L174
	.loc 2 1012 0
	mr 3,27
	mr 4,28
	bl _ZN6idDictaSERKS_
.LBE1701:
	.loc 2 1013 0
	lwz 0,16452(1)
	lwz 27,16428(1)
	mtlr 0
	lwz 28,16432(1)
.LVL332:
	lwz 29,16436(1)
.LVL333:
	lwz 30,16440(1)
	lwz 31,16444(1)
.LVL334:
	addi 1,1,16448
	.cfi_remember_state
.LCFI62:
	.cfi_def_cfa_offset 0
	.cfi_restore 31
	.cfi_restore 30
	.cfi_restore 29
	.cfi_restore 28
	.cfi_restore 27
	blr
.LVL335:
.L177:
.LCFI63:
	.cfi_restore_state
.LBB1702:
	.loc 2 1008 0
	mr 4,31
	mr 3,29
	addi 5,1,8
.LVL336:
	bl _ZN13idAsyncServer19SendReliableMessageEiRK8idBitMsg
.LVL337:
	b .L173
.LBE1702:
	.cfi_endproc
.LFE2592:
	.size	_ZN13idAsyncServer24SendSyncedCvarsBroadcastERK6idDict, .-_ZN13idAsyncServer24SendSyncedCvarsBroadcastERK6idDict
	.align 2
	.globl _ZN13idAsyncServer23SendSyncedCvarsToClientEiRK6idDict
	.type	_ZN13idAsyncServer23SendSyncedCvarsToClientEiRK6idDict, @function
_ZN13idAsyncServer23SendSyncedCvarsToClientEiRK6idDict:
.LFB2593:
	.loc 2 1020 0
	.cfi_startproc
.LVL338:
	stwu 1,-16440(1)
.LCFI64:
	.cfi_def_cfa_offset 16440
	mflr 0
	stw 30,16432(1)
	mr 30,3
	.cfi_offset 30, -8
	.cfi_register 65, 0
	stw 31,16436(1)
.LBB1712:
	.loc 2 1021 0
	addi 3,1,8
.LVL339:
.LBE1712:
	.loc 2 1020 0
	mr 31,4
	.cfi_offset 31, -4
	stw 0,16444(1)
	stw 29,16428(1)
	.loc 2 1020 0
	mr 29,5
	.cfi_offset 29, -12
	.cfi_offset 65, 4
.LBB1721:
	.loc 2 1021 0
	bl _ZN8idBitMsgC1Ev
.LVL340:
	.loc 2 1024 0
	slwi 9,31,8
	slwi 0,31,2
	subf 0,0,9
	add 0,0,31
	slwi 9,0,6
	add 9,0,9
	slwi 9,9,2
	add 9,30,9
	lwz 0,5956(9)
	cmpwi 7,0,2
	ble+ 7,.L178
.LVL341:
.LBB1713:
.LBB1714:
	.loc 3 156 0
	addi 0,1,40
.LBE1714:
.LBE1713:
.LBB1716:
.LBB1717:
	.loc 3 284 0
	li 5,8
	addi 3,1,8
.LVL342:
	li 4,3
.LBE1717:
.LBE1716:
.LBB1719:
.LBB1715:
	.loc 3 156 0
	stw 0,8(1)
	.loc 3 157 0
	stw 0,12(1)
	.loc 3 158 0
	li 0,16384
	stw 0,16(1)
.LVL343:
.LBE1715:
.LBE1719:
.LBB1720:
.LBB1718:
	.loc 3 284 0
	bl _ZN8idBitMsg9WriteBitsEii
.LVL344:
.LBE1718:
.LBE1720:
	.loc 2 1030 0
	mr 4,29
	li 5,0
	addi 3,1,8
.LVL345:
	bl _ZN8idBitMsg14WriteDeltaDictERK6idDictPS1_
.LVL346:
	.loc 2 1032 0
	mr 3,30
	mr 4,31
	addi 5,1,8
.LVL347:
	bl _ZN13idAsyncServer19SendReliableMessageEiRK8idBitMsg
.LVL348:
.L178:
.LBE1721:
	.loc 2 1033 0
	lwz 0,16444(1)
	lwz 29,16428(1)
.LVL349:
	mtlr 0
	lwz 30,16432(1)
.LVL350:
	lwz 31,16436(1)
.LVL351:
	addi 1,1,16440
.LCFI65:
	.cfi_def_cfa_offset 0
	.cfi_restore 31
	.cfi_restore 30
	.cfi_restore 29
	blr
	.cfi_endproc
.LFE2593:
	.size	_ZN13idAsyncServer23SendSyncedCvarsToClientEiRK6idDict, .-_ZN13idAsyncServer23SendSyncedCvarsToClientEiRK6idDict
	.align 2
	.globl _ZN13idAsyncServer25SendApplySnapshotToClientEii
	.type	_ZN13idAsyncServer25SendApplySnapshotToClientEii, @function
_ZN13idAsyncServer25SendApplySnapshotToClientEii:
.LFB2594:
	.loc 2 1040 0
	.cfi_startproc
.LVL352:
	stwu 1,-16440(1)
.LCFI66:
	.cfi_def_cfa_offset 16440
	mflr 0
	stw 30,16432(1)
	mr 30,3
	.cfi_offset 30, -8
	.cfi_register 65, 0
.LBB1731:
	.loc 2 1041 0
	addi 3,1,8
.LVL353:
.LBE1731:
	.loc 2 1040 0
	stw 0,16444(1)
	stw 29,16428(1)
	mr 29,5
	.cfi_offset 29, -12
	.cfi_offset 65, 4
	stw 31,16436(1)
	.loc 2 1040 0
	mr 31,4
	.cfi_offset 31, -4
.LBB1750:
	.loc 2 1041 0
	bl _ZN8idBitMsgC1Ev
.LVL354:
.LBB1732:
.LBB1733:
	.loc 3 156 0
	addi 0,1,40
.LBE1733:
.LBE1732:
.LBB1737:
.LBB1738:
	.loc 3 284 0
	addi 3,1,8
.LVL355:
.LBE1738:
.LBE1737:
.LBB1742:
.LBB1734:
	.loc 3 156 0
	stw 0,8(1)
	.loc 3 157 0
	stw 0,12(1)
.LBE1734:
.LBE1742:
.LBB1743:
.LBB1739:
	.loc 3 284 0
	li 5,8
.LBE1739:
.LBE1743:
.LBB1744:
.LBB1735:
	.loc 3 158 0
	li 0,16384
.LBE1735:
.LBE1744:
.LBB1745:
.LBB1740:
	.loc 3 284 0
	li 4,6
.LBE1740:
.LBE1745:
.LBB1746:
.LBB1736:
	.loc 3 158 0
	stw 0,16(1)
.LVL356:
.LBE1736:
.LBE1746:
.LBB1747:
.LBB1741:
	.loc 3 284 0
	bl _ZN8idBitMsg9WriteBitsEii
.LVL357:
.LBE1741:
.LBE1747:
.LBB1748:
.LBB1749:
	.loc 3 296 0
	addi 3,1,8
.LVL358:
	mr 4,29
	li 5,32
	bl _ZN8idBitMsg9WriteBitsEii
.LVL359:
.LBE1749:
.LBE1748:
	.loc 2 1048 0
	mr 3,30
	mr 4,31
	addi 5,1,8
.LVL360:
	bl _ZN13idAsyncServer19SendReliableMessageEiRK8idBitMsg
.LVL361:
.LBE1750:
	.loc 2 1049 0
	lwz 0,16444(1)
	lwz 29,16428(1)
.LVL362:
	mtlr 0
	lwz 30,16432(1)
.LVL363:
	lwz 31,16436(1)
.LVL364:
	addi 1,1,16440
.LCFI67:
	.cfi_def_cfa_offset 0
	.cfi_restore 31
	.cfi_restore 30
	.cfi_restore 29
	blr
	.cfi_endproc
.LFE2594:
	.size	_ZN13idAsyncServer25SendApplySnapshotToClientEii, .-_ZN13idAsyncServer25SendApplySnapshotToClientEii
	.align 2
	.globl _ZN13idAsyncServer17SendEmptyToClientEib
	.type	_ZN13idAsyncServer17SendEmptyToClientEib, @function
_ZN13idAsyncServer17SendEmptyToClientEib:
.LFB2595:
	.loc 2 1056 0
	.cfi_startproc
.LVL365:
	stwu 1,-16448(1)
.LCFI68:
	.cfi_def_cfa_offset 16448
	mflr 0
	stw 27,16428(1)
	mr 27,4
	.cfi_offset 27, -20
	.cfi_register 65, 0
	stw 31,16444(1)
	mr 31,3
	.cfi_offset 31, -4
.LBB1762:
	.loc 2 1057 0
	addi 3,1,8
.LVL366:
.LBE1762:
	.loc 2 1056 0
	stw 0,16452(1)
	stw 28,16432(1)
	mr 28,5
	.cfi_offset 28, -16
	.cfi_offset 65, 4
	stw 29,16436(1)
	stw 30,16440(1)
.LBB1775:
	.loc 2 1057 0
	.cfi_offset 30, -8
	.cfi_offset 29, -12
	bl _ZN8idBitMsgC1Ev
.LVL367:
	.loc 2 1060 0
	slwi 9,27,8
	slwi 0,27,2
	subf 0,0,9
	add 0,0,27
	slwi 29,0,6
	add 29,0,29
	.loc 2 1062 0
	lwz 0,4(31)
	.loc 2 1060 0
	slwi 29,29,2
	add 29,31,29
	addi 29,29,5948
.LVL368:
	.loc 2 1062 0
	addis 30,29,0x1
	lwz 9,200(30)
	cmpw 7,9,0
	ble- 7,.L184
	.loc 2 1063 0
	stw 0,200(30)
.L184:
	.loc 2 1066 0
	cmpwi 7,28,0
	bne- 7,.L185
	.loc 2 1066 0 is_stmt 0 discriminator 1
	lwz 9,4(31)
	.loc 2 1067 0 is_stmt 1 discriminator 1
	li 3,0
	.loc 2 1066 0 discriminator 1
	lwz 0,200(30)
	subf 0,0,9
	cmpwi 7,0,499
	ble- 7,.L188
.L185:
.LBB1763:
.LBB1764:
	.loc 2 1070 0
	lis 9,_ZN14idAsyncNetwork7verboseE+44@ha
	addis 28,31,0x5
	.loc 7 143 0
	lwz 9,_ZN14idAsyncNetwork7verboseE+44@l(9)
.LBE1764:
.LBE1763:
	.loc 2 1070 0
	lwz 0,36(9)
	cmpwi 7,0,0
	bne- 7,.L191
.L187:
.LVL369:
.LBB1765:
.LBB1766:
	.loc 3 156 0
	addi 0,1,40
.LBE1766:
.LBE1765:
.LBB1768:
.LBB1769:
	.loc 3 296 0
	lwz 4,-25844(28)
	li 5,32
	addi 3,1,8
.LVL370:
.LBE1769:
.LBE1768:
.LBB1771:
.LBB1767:
	.loc 3 156 0
	stw 0,8(1)
	.loc 3 157 0
	stw 0,12(1)
	.loc 3 158 0
	li 0,16384
	stw 0,16(1)
.LVL371:
.LBE1767:
.LBE1771:
.LBB1772:
.LBB1770:
	.loc 3 296 0
	bl _ZN8idBitMsg9WriteBitsEii
.LVL372:
.LBE1770:
.LBE1772:
.LBB1773:
.LBB1774:
	.loc 3 284 0
	addi 3,1,8
.LVL373:
	li 4,0
	li 5,8
	bl _ZN8idBitMsg9WriteBitsEii
.LVL374:
.LBE1774:
.LBE1773:
	.loc 2 1078 0
	lwz 5,8(31)
	addi 3,29,40
	addi 4,31,12
	addi 6,1,8
.LVL375:
	bl _ZN12idMsgChannel11SendMessageER6idPortiRK8idBitMsg
.LVL376:
	.loc 2 1080 0
	lwz 0,4(31)
	.loc 2 1082 0
	li 3,1
	.loc 2 1080 0
	stw 0,200(30)
.LVL377:
.L188:
.LBE1775:
	.loc 2 1083 0
	lwz 0,16452(1)
	lwz 27,16428(1)
.LVL378:
	mtlr 0
	lwz 28,16432(1)
	lwz 29,16436(1)
.LVL379:
	lwz 30,16440(1)
.LVL380:
	lwz 31,16444(1)
.LVL381:
	addi 1,1,16448
	.cfi_remember_state
.LCFI69:
	.cfi_def_cfa_offset 0
	.cfi_restore 31
	.cfi_restore 30
	.cfi_restore 29
	.cfi_restore 28
	.cfi_restore 27
	blr
.LVL382:
.L191:
.LCFI70:
	.cfi_restore_state
.LBB1776:
	.loc 2 1071 0
	lis 9,common@ha
	lis 4,.LC15@ha
	lwz 3,common@l(9)
	la 4,.LC15@l(4)
	mr 5,27
	lwz 6,-25844(28)
	lwz 9,0(3)
	lwz 7,-25840(28)
	lwz 0,68(9)
	lwz 8,-25836(28)
	mtctr 0
	crxor 6,6,6
	bctrl
	b .L187
.LBE1776:
	.cfi_endproc
.LFE2595:
	.size	_ZN13idAsyncServer17SendEmptyToClientEib, .-_ZN13idAsyncServer17SendEmptyToClientEib
	.align 2
	.globl _ZN13idAsyncServer4KillEv
	.type	_ZN13idAsyncServer4KillEv, @function
_ZN13idAsyncServer4KillEv:
.LFB2560:
	.loc 2 207 0
	.cfi_startproc
.LVL383:
	mflr 0
	stwu 1,-32(1)
.LCFI71:
	.cfi_def_cfa_offset 32
	.cfi_register 65, 0
	stw 29,20(1)
	mr 29,3
	.cfi_offset 29, -12
	stw 0,36(1)
	stw 28,16(1)
	stw 30,24(1)
	stw 31,28(1)
.LBB1777:
	.loc 2 210 0
	lbz 0,0(3)
	.cfi_offset 31, -4
	.cfi_offset 30, -8
	.cfi_offset 28, -16
	.cfi_offset 65, 4
	cmpwi 7,0,0
	beq- 7,.L192
	lis 30,.LC16@ha
	li 31,0
	la 30,.LC16@l(30)
.LVL384:
.L194:
	.loc 2 216 0 discriminator 2
	mr 4,31
	mr 3,29
	mr 5,30
	bl _ZN13idAsyncServer10DropClientEiPKc
.LVL385:
	.loc 2 215 0 discriminator 2
	cmpwi 7,31,3
	addi 31,31,1
.LVL386:
	bne+ 7,.L194
	.loc 2 215 0 is_stmt 0
	li 0,4
	.loc 2 224 0 is_stmt 1
	addi 28,29,12
	.loc 2 215 0
	stw 0,8(1)
.L195:
.LVL387:
	.loc 2 220 0 discriminator 1
	mr 30,29
	.loc 2 210 0 discriminator 1
	li 31,0
.LVL388:
.L198:
	.loc 2 222 0
	lwz 0,5956(30)
	cmpwi 7,0,1
	beq- 7,.L202
.L196:
.LVL389:
	.loc 2 221 0
	cmpwi 7,31,3
	addis 30,30,0x1
	addi 30,30,244
	addi 31,31,1
.LVL390:
	bne+ 7,.L198
	.loc 2 230 0
	li 3,10
	bl _Z9Sys_Sleepi
	.loc 2 220 0
	lwz 0,8(1)
	addic. 9,0,-1
	stw 9,8(1)
	bne+ 0,.L195
	.loc 2 234 0
	lis 9,fileSystem@ha
	lwz 3,fileSystem@l(9)
	lwz 9,0(3)
	lwz 0,88(9)
	mtctr 0
	bctrl
	.loc 2 236 0
	lwz 0,8(1)
	.loc 2 239 0
	lis 9,session@ha
	.loc 2 236 0
	stb 0,0(29)
	.loc 2 239 0
	lwz 3,session@l(9)
	lwz 9,0(3)
	lwz 0,16(9)
	mtctr 0
	bctrl
.LVL391:
.L192:
.LBE1777:
	.loc 2 240 0
	lwz 0,36(1)
	lwz 28,16(1)
	mtlr 0
	lwz 29,20(1)
.LVL392:
	lwz 30,24(1)
	lwz 31,28(1)
	addi 1,1,32
	.cfi_remember_state
.LCFI72:
	.cfi_def_cfa_offset 0
	.cfi_restore 31
	.cfi_restore 30
	.cfi_restore 29
	.cfi_restore 28
	blr
.LVL393:
.L202:
.LCFI73:
	.cfi_restore_state
.LBB1778:
	.loc 2 223 0
	slwi 0,31,2
	slwi 9,31,8
	subf 0,0,9
	.loc 2 224 0
	mr 4,28
	.loc 2 223 0
	add 0,0,31
	.loc 2 226 0
	li 5,1
	.loc 2 223 0
	slwi 3,0,6
	add 3,0,3
	slwi 3,3,2
	add 3,29,3
	addi 3,3,5988
	lbz 0,76(3)
	cmpwi 7,0,0
	beq- 7,.L197
	.loc 2 224 0
	lwz 5,8(29)
	bl _ZN12idMsgChannel16SendNextFragmentER6idPorti
	b .L196
.L197:
	.loc 2 226 0
	mr 4,31
	mr 3,29
	bl _ZN13idAsyncServer17SendEmptyToClientEib
	b .L196
.LBE1778:
	.cfi_endproc
.LFE2560:
	.size	_ZN13idAsyncServer4KillEv, .-_ZN13idAsyncServer4KillEv
	.align 2
	.globl _ZN13idAsyncServer16SendPingToClientEi
	.type	_ZN13idAsyncServer16SendPingToClientEi, @function
_ZN13idAsyncServer16SendPingToClientEi:
.LFB2596:
	.loc 2 1090 0
	.cfi_startproc
.LVL394:
	stwu 1,-16448(1)
.LCFI74:
	.cfi_def_cfa_offset 16448
	mflr 0
	stw 27,16428(1)
	mr 27,4
	.cfi_offset 27, -20
	.cfi_register 65, 0
	stw 31,16444(1)
	mr 31,3
	.cfi_offset 31, -4
.LBB1792:
	.loc 2 1091 0
	addi 3,1,8
.LVL395:
.LBE1792:
	.loc 2 1090 0
	stw 0,16452(1)
	stw 29,16436(1)
	stw 30,16440(1)
	stw 28,16432(1)
.LBB1807:
	.loc 2 1091 0
	.cfi_offset 28, -16
	.cfi_offset 30, -8
	.cfi_offset 29, -12
	.cfi_offset 65, 4
	bl _ZN8idBitMsgC1Ev
.LVL396:
	.loc 2 1094 0
	slwi 9,27,8
	slwi 0,27,2
	subf 0,0,9
	add 0,0,27
	slwi 29,0,6
	add 29,0,29
	.loc 2 1096 0
	lwz 0,4(31)
	.loc 2 1094 0
	slwi 29,29,2
	add 29,31,29
	addi 29,29,5948
.LVL397:
	.loc 2 1096 0
	addis 30,29,0x1
	lwz 9,204(30)
	cmpw 7,9,0
	ble- 7,.L204
	.loc 2 1097 0
	stw 0,204(30)
	mr 9,0
	lwz 0,4(31)
.L204:
	.loc 2 1100 0
	subf 0,9,0
	.loc 2 1101 0
	li 3,0
	.loc 2 1100 0
	cmpwi 7,0,499
	ble- 7,.L207
.LBB1793:
.LBB1794:
	.loc 2 1104 0
	lis 9,_ZN14idAsyncNetwork7verboseE+44@ha
	addis 28,31,0x5
	.loc 7 143 0
	lwz 9,_ZN14idAsyncNetwork7verboseE+44@l(9)
.LBE1794:
.LBE1793:
	.loc 2 1104 0
	lwz 0,36(9)
	cmpwi 7,0,2
	beq- 7,.L210
.L206:
.LVL398:
.LBB1795:
.LBB1796:
	.loc 3 156 0
	addi 0,1,40
.LBE1796:
.LBE1795:
.LBB1798:
.LBB1799:
	.loc 3 296 0
	lwz 4,-25844(28)
	li 5,32
	addi 3,1,8
.LVL399:
.LBE1799:
.LBE1798:
.LBB1801:
.LBB1797:
	.loc 3 156 0
	stw 0,8(1)
	.loc 3 157 0
	stw 0,12(1)
	.loc 3 158 0
	li 0,16384
	stw 0,16(1)
.LVL400:
.LBE1797:
.LBE1801:
.LBB1802:
.LBB1800:
	.loc 3 296 0
	bl _ZN8idBitMsg9WriteBitsEii
.LVL401:
.LBE1800:
.LBE1802:
.LBB1803:
.LBB1804:
	.loc 3 284 0
	addi 3,1,8
.LVL402:
	li 4,1
	li 5,8
	bl _ZN8idBitMsg9WriteBitsEii
.LVL403:
.LBE1804:
.LBE1803:
.LBB1805:
.LBB1806:
	.loc 3 296 0
	lwz 4,4(31)
	addi 3,1,8
.LVL404:
	li 5,32
	bl _ZN8idBitMsg9WriteBitsEii
.LVL405:
.LBE1806:
.LBE1805:
	.loc 2 1113 0
	lwz 5,8(31)
	addi 3,29,40
	addi 4,31,12
	addi 6,1,8
.LVL406:
	bl _ZN12idMsgChannel11SendMessageER6idPortiRK8idBitMsg
.LVL407:
	.loc 2 1115 0
	lwz 0,4(31)
	.loc 2 1117 0
	li 3,1
	.loc 2 1115 0
	stw 0,204(30)
.LVL408:
.L207:
.LBE1807:
	.loc 2 1118 0
	lwz 0,16452(1)
	lwz 27,16428(1)
.LVL409:
	mtlr 0
	lwz 28,16432(1)
	lwz 29,16436(1)
.LVL410:
	lwz 30,16440(1)
.LVL411:
	lwz 31,16444(1)
.LVL412:
	addi 1,1,16448
	.cfi_remember_state
.LCFI75:
	.cfi_def_cfa_offset 0
	.cfi_restore 31
	.cfi_restore 30
	.cfi_restore 29
	.cfi_restore 28
	.cfi_restore 27
	blr
.LVL413:
.L210:
.LCFI76:
	.cfi_restore_state
.LBB1808:
	.loc 2 1105 0
	lis 9,common@ha
	lis 4,.LC17@ha
	lwz 3,common@l(9)
	la 4,.LC17@l(4)
	mr 5,27
	lwz 6,-25844(28)
	lwz 9,0(3)
	lwz 7,-25840(28)
	lwz 0,68(9)
	lwz 8,-25836(28)
	mtctr 0
	crxor 6,6,6
	bctrl
	b .L206
.LBE1808:
	.cfi_endproc
.LFE2596:
	.size	_ZN13idAsyncServer16SendPingToClientEi, .-_ZN13idAsyncServer16SendPingToClientEi
	.align 2
	.globl _ZN13idAsyncServer20SendGameInitToClientEi
	.type	_ZN13idAsyncServer20SendGameInitToClientEi, @function
_ZN13idAsyncServer20SendGameInitToClientEi:
.LFB2597:
	.loc 2 1125 0
	.cfi_startproc
.LVL414:
	stwu 1,-16448(1)
.LCFI77:
	.cfi_def_cfa_offset 16448
	mflr 0
	stw 31,16444(1)
	mr 31,3
	.cfi_offset 31, -4
	.cfi_register 65, 0
.LBB1824:
	.loc 2 1126 0
	addi 3,1,8
.LVL415:
.LBE1824:
	.loc 2 1125 0
	stw 0,16452(1)
	stw 29,16436(1)
	mr 29,4
	.cfi_offset 29, -12
	.cfi_offset 65, 4
	stw 30,16440(1)
	addis 30,31,0x5
	.cfi_offset 30, -8
	stw 27,16428(1)
	stw 28,16432(1)
.LBB1845:
	.loc 2 1126 0
	.cfi_offset 28, -16
	.cfi_offset 27, -20
	bl _ZN8idBitMsgC1Ev
.LVL416:
.LBB1825:
.LBB1826:
	.loc 2 1129 0
	lis 9,_ZN14idAsyncNetwork7verboseE+44@ha
	.loc 7 143 0
	lwz 9,_ZN14idAsyncNetwork7verboseE+44@l(9)
.LBE1826:
.LBE1825:
	.loc 2 1129 0
	lwz 0,36(9)
	cmpwi 7,0,0
	bne- 7,.L219
.L212:
	.loc 2 1133 0
	slwi 9,29,8
	slwi 0,29,2
	subf 0,0,9
	addi 27,31,12
	add 29,0,29
.LVL417:
	slwi 9,29,6
	add 9,29,9
	slwi 9,9,2
	addi 9,9,5936
	add 9,31,9
	addi 29,9,12
.LVL418:
	addi 28,9,52
	.loc 2 1136 0
	lbz 0,116(29)
	cmpwi 7,0,0
	beq- 7,.L213
.L214:
	.loc 2 1137 0
	lwz 5,8(31)
	mr 3,28
	mr 4,27
	bl _ZN12idMsgChannel16SendNextFragmentER6idPorti
	.loc 2 1136 0
	lbz 0,116(29)
	cmpwi 7,0,0
	bne+ 7,.L214
.L213:
.LVL419:
.LBB1827:
.LBB1828:
	.loc 3 156 0
	addi 0,1,40
.LBE1828:
.LBE1827:
.LBB1831:
.LBB1832:
	.loc 3 296 0
	lwz 4,-25844(30)
	addi 3,1,8
.LVL420:
.LBE1832:
.LBE1831:
.LBB1835:
.LBB1829:
	.loc 3 156 0
	stw 0,8(1)
	.loc 3 157 0
	stw 0,12(1)
.LBE1829:
.LBE1835:
.LBB1836:
.LBB1833:
	.loc 3 296 0
	li 5,32
.LBE1833:
.LBE1836:
.LBB1837:
.LBB1830:
	.loc 3 158 0
	li 0,16384
	stw 0,16(1)
.LVL421:
.LBE1830:
.LBE1837:
.LBB1838:
.LBB1834:
	.loc 3 296 0
	bl _ZN8idBitMsg9WriteBitsEii
.LVL422:
.LBE1834:
.LBE1838:
.LBB1839:
.LBB1840:
	.loc 3 284 0
	addi 3,1,8
.LVL423:
	li 4,2
	li 5,8
	bl _ZN8idBitMsg9WriteBitsEii
.LVL424:
.LBE1840:
.LBE1839:
.LBB1841:
.LBB1842:
	.loc 3 296 0
	lwz 4,-25840(30)
	addi 3,1,8
.LVL425:
	li 5,32
	bl _ZN8idBitMsg9WriteBitsEii
.LVL426:
.LBE1842:
.LBE1841:
.LBB1843:
.LBB1844:
	lwz 4,-25836(30)
	addi 3,1,8
.LVL427:
	li 5,32
	bl _ZN8idBitMsg9WriteBitsEii
.LVL428:
.LBE1844:
.LBE1843:
	.loc 2 1145 0
	lis 4,sessLocal+48@ha
	li 5,0
	addi 3,1,8
.LVL429:
	la 4,sessLocal+48@l(4)
	bl _ZN8idBitMsg14WriteDeltaDictERK6idDictPS1_
.LVL430:
	.loc 2 1146 0
	lwz 5,8(31)
	mr 3,28
	mr 4,27
	addi 6,1,8
.LVL431:
	bl _ZN12idMsgChannel11SendMessageER6idPortiRK8idBitMsg
.LVL432:
	stw 3,28(29)
.LBE1845:
	.loc 2 1147 0
	lwz 0,16452(1)
	lwz 27,16428(1)
	mtlr 0
	lwz 28,16432(1)
	lwz 29,16436(1)
.LVL433:
	lwz 30,16440(1)
	lwz 31,16444(1)
.LVL434:
	addi 1,1,16448
	.cfi_remember_state
.LCFI78:
	.cfi_def_cfa_offset 0
	.cfi_restore 31
	.cfi_restore 30
	.cfi_restore 29
	.cfi_restore 28
	.cfi_restore 27
	blr
.LVL435:
.L219:
.LCFI79:
	.cfi_restore_state
.LBB1846:
	.loc 2 1130 0
	lis 9,common@ha
	lis 4,.LC18@ha
	lwz 3,common@l(9)
	la 4,.LC18@l(4)
	mr 5,29
	lwz 6,-25844(30)
	lwz 9,0(3)
	lwz 7,-25840(30)
	lwz 0,68(9)
	lwz 8,-25836(30)
	mtctr 0
	crxor 6,6,6
	bctrl
	b .L212
.LBE1846:
	.cfi_endproc
.LFE2597:
	.size	_ZN13idAsyncServer20SendGameInitToClientEi, .-_ZN13idAsyncServer20SendGameInitToClientEi
	.align 2
	.globl _ZN13idAsyncServer20SendSnapshotToClientEi
	.type	_ZN13idAsyncServer20SendSnapshotToClientEi, @function
_ZN13idAsyncServer20SendSnapshotToClientEi:
.LFB2598:
	.loc 2 1154 0
	.cfi_startproc
.LVL436:
	stwu 1,-16480(1)
.LCFI80:
	.cfi_def_cfa_offset 16480
	mflr 0
	stw 29,16468(1)
	mr 29,4
	.cfi_offset 29, -12
	.cfi_register 65, 0
	stw 31,16476(1)
	mr 31,3
	.cfi_offset 31, -4
.LBB1890:
	.loc 2 1156 0
	addi 3,1,12
.LVL437:
.LBE1890:
	.loc 2 1154 0
	stw 0,16484(1)
	stw 27,16460(1)
	stw 28,16464(1)
	stw 22,16440(1)
	stw 23,16444(1)
	stw 24,16448(1)
	stw 25,16452(1)
	stw 26,16456(1)
	stw 30,16472(1)
.LBB1967:
	.loc 2 1156 0
	.cfi_offset 30, -8
	.cfi_offset 26, -24
	.cfi_offset 25, -28
	.cfi_offset 24, -32
	.cfi_offset 23, -36
	.cfi_offset 22, -40
	.cfi_offset 28, -16
	.cfi_offset 27, -20
	.cfi_offset 65, 4
	bl _ZN8idBitMsgC1Ev
.LVL438:
	.loc 2 1161 0
	slwi 9,29,8
	slwi 0,29,2
	subf 0,0,9
.LBB1891:
.LBB1892:
	.loc 7 143 0
	lis 9,_ZN14idAsyncNetwork19serverSnapshotDelayE+44@ha
.LBE1892:
.LBE1891:
	.loc 2 1161 0
	add 0,0,29
.LBB1894:
.LBB1893:
	.loc 7 143 0
	lwz 10,_ZN14idAsyncNetwork19serverSnapshotDelayE+44@l(9)
.LBE1893:
.LBE1894:
	.loc 2 1161 0
	slwi 27,0,6
	.loc 2 1163 0
	lwz 11,8(31)
	.loc 2 1161 0
	add 27,0,27
	.loc 2 1163 0
	lwz 0,36(10)
	.loc 2 1161 0
	slwi 27,27,2
	.loc 2 1164 0
	li 3,0
	.loc 2 1161 0
	add 27,31,27
	addi 27,27,5948
.LVL439:
	.loc 2 1163 0
	addis 28,27,0x1
	lwz 9,208(28)
	subf 9,9,11
	cmpw 7,9,0
	blt- 7,.L232
.LBB1895:
.LBB1896:
	.loc 2 1167 0
	lis 9,_ZN14idAsyncNetwork7verboseE+44@ha
	addis 30,31,0x5
	.loc 7 143 0
	lwz 9,_ZN14idAsyncNetwork7verboseE+44@l(9)
.LBE1896:
.LBE1895:
	.loc 2 1167 0
	lwz 0,36(9)
	cmpwi 7,0,2
	beq- 7,.L242
.L222:
	.loc 2 1172 0
	lwz 11,-25836(30)
.LBB1897:
.LBB1898:
	.loc 3 296 0
	li 5,32
.LBE1898:
.LBE1897:
	.loc 2 1172 0
	lwz 0,-25832(30)
.LBB1902:
.LBB1899:
	.loc 3 296 0
	addi 3,1,12
.LBE1899:
.LBE1902:
	.loc 2 1172 0
	lwz 9,36(27)
	add 0,11,0
	subf 0,0,9
	stw 0,16(27)
.LVL440:
.LBB1903:
.LBB1904:
	.loc 3 156 0
	addi 0,1,44
	stw 0,12(1)
.LBE1904:
.LBE1903:
.LBB1906:
.LBB1900:
	.loc 3 296 0
	lwz 4,-25844(30)
.LBE1900:
.LBE1906:
.LBB1907:
.LBB1905:
	.loc 3 157 0
	stw 0,16(1)
	.loc 3 158 0
	li 0,16384
	stw 0,20(1)
.LVL441:
.LBE1905:
.LBE1907:
.LBB1908:
.LBB1901:
	.loc 3 296 0
	bl _ZN8idBitMsg9WriteBitsEii
.LVL442:
.LBE1901:
.LBE1908:
.LBB1909:
.LBB1910:
	.loc 3 284 0
	addi 3,1,12
.LVL443:
	li 4,3
	li 5,8
	bl _ZN8idBitMsg9WriteBitsEii
.LVL444:
.LBE1910:
.LBE1909:
.LBB1911:
.LBB1912:
	.loc 3 296 0
	lwz 4,220(28)
	addi 3,1,12
.LVL445:
	li 5,32
	bl _ZN8idBitMsg9WriteBitsEii
.LVL446:
.LBE1912:
.LBE1911:
.LBB1913:
.LBB1914:
	lwz 4,-25840(30)
	addi 3,1,12
.LVL447:
	li 5,32
	bl _ZN8idBitMsg9WriteBitsEii
.LVL448:
.LBE1914:
.LBE1913:
.LBB1915:
.LBB1916:
	lwz 4,-25836(30)
	addi 3,1,12
.LVL449:
	li 5,32
	bl _ZN8idBitMsg9WriteBitsEii
.LVL450:
.LBE1916:
.LBE1915:
	.loc 2 1181 0
	lwz 0,228(28)
.LVL451:
.LBB1917:
.LBB1918:
	.file 10 "d:/Data/Nintendo/DoomGX/src/framework/async/../../idlib/../idlib/math/Math.h"
	.loc 10 864 0
	li 4,-128
	cmpwi 7,0,-128
	bge- 7,.L243
.L223:
.LVL452:
.LBE1918:
.LBE1917:
.LBB1920:
.LBB1921:
	.loc 3 284 0
	addi 3,1,12
.LVL453:
	li 5,8
	bl _ZN8idBitMsg9WriteBitsEii
.LVL454:
.LBE1921:
.LBE1920:
	.loc 2 1182 0
	lwz 0,16(27)
.LVL455:
.LBB1923:
.LBB1924:
	.loc 10 874 0
	li 4,-32768
	cmpwi 7,0,-32768
	bge- 7,.L244
.LVL456:
.L224:
.LBE1924:
.LBE1923:
.LBB1927:
.LBB1928:
	.loc 3 288 0
	addi 3,1,12
.LVL457:
	li 5,-16
	bl _ZN8idBitMsg9WriteBitsEii
.LVL458:
.LBE1928:
.LBE1927:
	.loc 2 1185 0
	lis 9,game@ha
	lwz 3,game@l(9)
	mr 4,29
	lwz 5,220(28)
	addi 6,1,12
.LVL459:
	lwz 9,0(3)
	addi 7,1,8
	li 8,4
.LBB1929:
.LBB1930:
.LBB1931:
.LBB1932:
	.loc 2 1200 0
	lis 26,_ZN14idAsyncNetwork21serverMaxUsercmdRelayE@ha
.LBE1932:
.LBE1931:
.LBE1930:
.LBE1929:
	.loc 2 1185 0
	lwz 0,112(9)
	li 23,0
	li 25,0
	mtctr 0
	bctrl
.LVL460:
.L231:
.LBB1958:
.LBB1955:
	.loc 2 1189 0
	slwi 9,25,8
	slwi 0,25,2
	subf 0,0,9
	add 0,0,25
	slwi 9,0,6
	add 9,0,9
	slwi 9,9,2
	add 9,31,9
	addi 9,9,5948
.LVL461:
	.loc 2 1191 0
	lwz 0,8(9)
	cmpwi 7,0,0
	beq- 7,.L225
	.loc 2 1191 0 is_stmt 0 discriminator 1
	cmpw 7,25,29
	beq- 7,.L225
	.loc 2 1196 0 is_stmt 1
	srawi 11,25,3
	rlwinm 0,25,0,29,31
	add 11,1,11
	lbz 11,8(11)
	sraw 0,11,0
	andi. 11,0,1
	beq- 0,.L225
.LBB1935:
.LBB1933:
	.loc 2 1200 0
	la 11,_ZN14idAsyncNetwork21serverMaxUsercmdRelayE@l(26)
.LBE1933:
.LBE1935:
.LBB1936:
.LBB1937:
	.loc 10 885 0
	li 22,1
.LBE1937:
.LBE1936:
.LBB1940:
.LBB1934:
	.loc 7 143 0
	lwz 11,44(11)
	lwz 0,36(11)
.LVL462:
.LBE1934:
.LBE1940:
.LBB1941:
.LBB1938:
	.loc 10 884 0
	cmpwi 7,0,0
	ble- 7,.L226
	cmpwi 7,0,10
	mr 22,0
	bgt- 7,.L245
.L226:
.LBE1938:
.LBE1941:
	.loc 2 1203 0
	lwz 0,-25840(30)
	lwz 9,32(9)
.LVL463:
	add 22,0,22
.LVL464:
	cmpw 7,22,9
	bgt- 7,.L246
.L228:
.LVL465:
.LBB1942:
.LBB1943:
	.file 11 "d:/Data/Nintendo/DoomGX/src/framework/async/../../idlib/../idlib/Lib.h"
	.loc 11 158 0
	subf. 22,0,22
.LVL466:
	ble- 0,.L247
.LVL467:
.L229:
.LBE1943:
.LBE1942:
.LBB1945:
.LBB1946:
	.loc 3 284 0
	li 5,8
	addi 3,1,12
.LVL468:
	mr 4,25
.LBE1946:
.LBE1945:
.LBB1948:
.LBB1949:
	li 24,0
.LBE1949:
.LBE1948:
.LBB1951:
.LBB1947:
	bl _ZN8idBitMsg9WriteBitsEii
.LVL469:
.LBE1947:
.LBE1951:
.LBB1952:
.LBB1950:
	li 5,8
	addi 3,1,12
.LVL470:
	mr 4,22
	bl _ZN8idBitMsg9WriteBitsEii
.LVL471:
	mr 5,23
.LVL472:
.L230:
.LBE1950:
.LBE1952:
	.loc 2 1207 0
	lwz 23,-25840(30)
	.loc 2 1208 0
	addi 3,1,12
.LVL473:
	.loc 2 1207 0
	add 23,24,23
	.loc 2 1206 0
	addi 24,24,1
.LVL474:
	.loc 2 1208 0
	rlwinm 23,23,2,22,29
	add 23,23,25
	addi 23,23,8408
	slwi 23,23,5
	add 23,31,23
	addi 23,23,12
	mr 4,23
	bl _ZN14idAsyncNetwork17WriteUserCmdDeltaER8idBitMsgRK9usercmd_tPS3_
.LVL475:
	.loc 2 1206 0
	cmpw 7,24,22
	.loc 2 1208 0
	mr 5,23
	.loc 2 1206 0
	blt+ 7,.L230
.LVL476:
.L225:
.LBE1955:
	.loc 2 1188 0
	cmpwi 7,25,3
	addi 25,25,1
.LVL477:
	bne+ 7,.L231
.LVL478:
.LBE1958:
.LBB1959:
.LBB1960:
	.loc 3 284 0
	addi 3,1,12
.LVL479:
	li 4,4
	li 5,8
	bl _ZN8idBitMsg9WriteBitsEii
.LVL480:
.LBE1960:
.LBE1959:
	.loc 2 1214 0
	lwz 5,8(31)
	addi 3,27,40
	addi 4,31,12
	addi 6,1,12
.LVL481:
	bl _ZN12idMsgChannel11SendMessageER6idPortiRK8idBitMsg
.LVL482:
	.loc 2 1217 0
	lwz 11,220(28)
	.loc 2 1216 0
	lwz 9,8(31)
	.loc 2 1220 0
	li 3,1
	.loc 2 1217 0
	addi 0,11,1
	stw 0,220(28)
	.loc 2 1218 0
	li 0,0
	.loc 2 1216 0
	stw 9,208(28)
	.loc 2 1218 0
	stw 0,228(28)
.LVL483:
.L232:
.LBE1967:
	.loc 2 1221 0
	lwz 0,16484(1)
	lwz 22,16440(1)
	mtlr 0
	lwz 23,16444(1)
	lwz 24,16448(1)
	lwz 25,16452(1)
	lwz 26,16456(1)
	lwz 27,16460(1)
.LVL484:
	lwz 28,16464(1)
.LVL485:
	lwz 29,16468(1)
.LVL486:
	lwz 30,16472(1)
	lwz 31,16476(1)
.LVL487:
	addi 1,1,16480
	.cfi_remember_state
.LCFI81:
	.cfi_def_cfa_offset 0
	.cfi_restore 31
	.cfi_restore 30
	.cfi_restore 29
	.cfi_restore 28
	.cfi_restore 27
	.cfi_restore 26
	.cfi_restore 25
	.cfi_restore 24
	.cfi_restore 23
	.cfi_restore 22
	blr
.LVL488:
.L244:
.LCFI82:
	.cfi_restore_state
.LBB1968:
.LBB1961:
.LBB1925:
	.loc 10 877 0
	cmpwi 7,0,32767
	li 4,32767
	bgt- 7,.L224
	extsh 4,0
	b .L224
.LVL489:
.L243:
.LBE1925:
.LBE1961:
.LBB1962:
.LBB1919:
	.loc 10 867 0
	cmpwi 7,0,127
	li 4,127
	bgt- 7,.L223
	extsb 4,0
.LVL490:
.LBE1919:
.LBE1962:
.LBB1963:
.LBB1922:
	.loc 3 284 0
	addi 3,1,12
.LVL491:
	li 5,8
	bl _ZN8idBitMsg9WriteBitsEii
.LVL492:
.LBE1922:
.LBE1963:
	.loc 2 1182 0
	lwz 0,16(27)
.LVL493:
.LBB1964:
.LBB1926:
	.loc 10 874 0
	li 4,-32768
	cmpwi 7,0,-32768
	blt- 7,.L224
	b .L244
.LVL494:
.L246:
.LBE1926:
.LBE1964:
.LBB1965:
.LBB1956:
	.loc 2 1203 0
	mr 22,9
	b .L228
.LVL495:
.L245:
	lwz 0,-25840(30)
.LBB1953:
.LBB1939:
	.loc 10 884 0
	li 22,10
.LBE1939:
.LBE1953:
	.loc 2 1203 0
	lwz 9,32(9)
.LVL496:
	add 22,0,22
.LVL497:
	cmpw 7,22,9
	ble- 7,.L228
	b .L246
.LVL498:
.L242:
.LBE1956:
.LBE1965:
	.loc 2 1168 0
	lis 9,common@ha
	lis 4,.LC19@ha
	lwz 3,common@l(9)
	la 4,.LC19@l(4)
	mr 5,29
	lwz 6,-25844(30)
	lwz 9,0(3)
	lwz 7,-25840(30)
	lwz 0,68(9)
	lwz 8,-25836(30)
	mtctr 0
	crxor 6,6,6
	bctrl
	b .L222
.LVL499:
.L247:
.LBB1966:
.LBB1957:
.LBB1954:
.LBB1944:
	.loc 11 158 0
	li 22,1
.LVL500:
	b .L229
.LBE1944:
.LBE1954:
.LBE1957:
.LBE1966:
.LBE1968:
	.cfi_endproc
.LFE2598:
	.size	_ZN13idAsyncServer20SendSnapshotToClientEi, .-_ZN13idAsyncServer20SendSnapshotToClientEi
	.align 2
	.globl _ZN13idAsyncServer18ProcessAuthMessageERK8idBitMsg
	.type	_ZN13idAsyncServer18ProcessAuthMessageERK8idBitMsg, @function
_ZN13idAsyncServer18ProcessAuthMessageERK8idBitMsg:
.LFB2601:
	.loc 2 1402 0
	.cfi_startproc
	.cfi_personality 0,__gxx_personality_v0
	.cfi_lsda 0,.LLSDA2601
.LVL501:
	mflr 0
	stwu 1,-1176(1)
.LCFI83:
	.cfi_def_cfa_offset 1176
	.cfi_register 65, 0
.LVL502:
.LBB1995:
.LBB1996:
.LBB1997:
.LBB1998:
	.loc 4 357 0
	li 9,20
.LBE1998:
.LBE1997:
.LBE1996:
.LBE1995:
	.loc 2 1402 0
	mfcr 12
	stw 27,1156(1)
	mr 27,4
	.cfi_offset 27, -20
	.cfi_register 70, 12
	stw 0,1180(1)
.LBB2037:
.LBB2007:
.LBB2003:
.LBB1999:
	.loc 4 356 0
	li 0,0
	.cfi_offset 65, 4
.LBE1999:
.LBE2003:
.LBE2007:
.LBE2037:
	.loc 2 1402 0
	stw 29,1164(1)
	mr 29,3
	.cfi_offset 29, -12
.LBB2038:
.LBB2008:
.LBB2004:
.LBB2000:
	.loc 4 357 0
	stw 9,40(1)
.LBE2000:
.LBE2004:
.LBE2008:
.LBB2009:
.LBB2010:
	.loc 3 364 0
	mr 3,4
.LVL503:
.LBE2010:
.LBE2009:
.LBB2013:
.LBB2005:
.LBB2001:
	.loc 4 358 0
	addi 9,1,44
.LBE2001:
.LBE2005:
.LBE2013:
.LBB2014:
.LBB2011:
	.loc 3 364 0
	li 4,8
.LVL504:
.LBE2011:
.LBE2014:
.LBE2038:
	.loc 2 1402 0
	stw 31,1172(1)
	addi 31,1,32
	.cfi_offset 31, -4
	stw 23,1140(1)
	stw 24,1144(1)
	stw 25,1148(1)
	stw 26,1152(1)
	stw 28,1160(1)
	stw 30,1168(1)
	stw 12,1136(1)
.LBB2039:
.LBB2015:
.LBB2006:
.LBB2002:
	.loc 4 356 0
	stw 0,32(1)
	.loc 4 358 0
	stw 9,36(1)
	.loc 4 359 0
	stb 0,44(1)
.LVL505:
.LEHB3:
.LBE2002:
.LBE2006:
.LBE2015:
.LBB2016:
.LBB2012:
	.loc 3 364 0
	.cfi_offset 70, -40
	.cfi_offset 30, -8
	.cfi_offset 28, -16
	.cfi_offset 26, -24
	.cfi_offset 25, -28
	.cfi_offset 24, -32
	.cfi_offset 23, -36
	bl _ZNK8idBitMsg8ReadBitsEi
.LVL506:
	rlwinm 30,3,0,0xff
.LVL507:
.LBE2012:
.LBE2016:
	.loc 2 1411 0
	addi 0,30,-1
	cmplwi 7,0,2
	ble- 7,.L249
	.loc 2 1412 0
	lis 9,common@ha
	lis 4,.LC20@ha
	lwz 3,common@l(9)
	la 4,.LC20@l(4)
	mr 5,30
	addi 31,1,32
	lwz 9,0(3)
	lwz 0,76(9)
	mtctr 0
	crxor 6,6,6
	bctrl
.LEHE3:
.LVL508:
.L277:
	addi 31,1,32
.LVL509:
.L250:
.LBB2017:
.LBB2018:
.LBB2019:
	.loc 4 501 0
	mr 3,31
.LEHB4:
	bl _ZN5idStr8FreeDataEv
.LEHE4:
.LBE2019:
.LBE2018:
.LBE2017:
.LBE2039:
	.loc 2 1481 0
	lwz 0,1180(1)
	lwz 12,1136(1)
	mtlr 0
	lwz 23,1140(1)
	lwz 24,1144(1)
	mtcrf 8,12
	lwz 25,1148(1)
	lwz 26,1152(1)
	lwz 27,1156(1)
	lwz 28,1160(1)
	lwz 29,1164(1)
	lwz 30,1168(1)
	lwz 31,1172(1)
	addi 1,1,1176
	.cfi_remember_state
.LCFI84:
	.cfi_def_cfa_offset 0
	.cfi_restore 70
	.cfi_restore 31
	.cfi_restore 30
	.cfi_restore 29
	.cfi_restore 28
	.cfi_restore 27
	.cfi_restore 26
	.cfi_restore 25
	.cfi_restore 24
	.cfi_restore 23
	blr
.LVL510:
.L249:
.LCFI85:
	.cfi_restore_state
.LBB2040:
.LBB2020:
.LBB2021:
	.loc 3 368 0
	mr 3,27
	li 4,-16
	addi 31,1,32
.LEHB5:
	bl _ZNK8idBitMsg8ReadBitsEi
	extsh 26,3
.LBE2021:
.LBE2020:
	.loc 2 1416 0
	addi 4,1,20
	mr 3,27
	addi 31,1,32
	bl _ZNK8idBitMsg10ReadNetadrEP8netadr_t
	.loc 2 1417 0
	mr 3,27
	addi 4,1,8
	li 5,12
	addi 31,1,32
	bl _ZNK8idBitMsg10ReadStringEPci
	.loc 2 1418 0
	cmpwi 4,30,1
	beq- 4,.L271
.LVL511:
.LBB2022:
.LBB2023:
	.loc 3 364 0
	mr 3,27
	li 4,8
	addi 31,1,32
	bl _ZNK8idBitMsg8ReadBitsEi
	rlwinm 28,3,0,0xff
.LVL512:
.LBE2023:
.LBE2022:
	.loc 2 1420 0
	addi 0,28,-1
	cmplwi 7,0,3
	bgt- 7,.L278
	.loc 2 1424 0
	cmpwi 7,28,3
	addi 31,1,32
	bne+ 7,.L251
	.loc 2 1425 0
	mr 3,27
	addi 4,1,64
	li 5,1024
	bl _ZNK8idBitMsg10ReadStringEPci
	.loc 2 1426 0
	addi 31,1,32
	addi 4,1,64
	mr 3,31
	bl _ZN5idStraSEPKc
	b .L251
.LVL513:
.L271:
	.loc 2 1407 0
	li 28,0
	addi 31,1,32
.LVL514:
.L251:
	.loc 2 1430 0
	lwz 0,8(29)
	addis 9,29,0x5
	.loc 2 1434 0
	li 27,0
.LVL515:
	.loc 2 1430 0
	stw 0,-25804(9)
.LVL516:
	.loc 2 1434 0
	li 0,64
	.loc 2 1402 0
	addi 9,29,88
	.loc 2 1434 0
	mtctr 0
	b .L257
.LVL517:
.L253:
	addi 27,27,1
.LVL518:
	addi 9,9,92
	bdz .L279
.LVL519:
.L257:
	.loc 2 1435 0
	lbz 0,0(9)
	cmpwi 7,0,0
	bne- 7,.L253
	.loc 2 1435 0 is_stmt 0 discriminator 1
	lwz 0,-16(9)
	cmpw 7,0,26
	bne+ 7,.L253
	.loc 2 1438 0 is_stmt 1
	mulli 27,27,92
	addi 26,27,112
	add 26,29,26
	lbz 0,24(26)
	addi 26,26,24
	cmpwi 7,0,0
	beq- 7,.L280
	.loc 2 1442 0
	mr 3,26
	addi 4,1,8
	bl _ZN5idStr3CmpEPKcS1_
	cmpwi 7,3,0
	beq- 7,.L255
	.loc 2 1443 0
	lis 9,common@ha
	add 8,29,27
	lwz 30,common@l(9)
.LVL520:
	addi 3,1,1104
	lwz 11,60(8)
	lwz 10,0(30)
	lwz 9,64(8)
	lwz 0,68(8)
	lwz 29,76(10)
.LVL521:
	stw 11,1104(1)
	stw 9,1108(1)
	stw 0,1112(1)
	bl _Z18Sys_NetAdrToString8netadr_t
	lis 4,.LC23@ha
	mr 5,3
	la 4,.LC23@l(4)
	mr 3,30
	mr 6,26
	addi 7,1,8
	mtctr 29
	crxor 6,6,6
	bctrl
	b .L250
.LVL522:
.L280:
	.loc 2 1439 0
	lis 9,common@ha
	add 8,29,27
	lwz 30,common@l(9)
.LVL523:
	addi 3,1,1104
	lwz 11,60(8)
	lwz 10,0(30)
	lwz 9,64(8)
	lwz 0,68(8)
	lwz 29,76(10)
.LVL524:
	stw 11,1104(1)
	stw 9,1108(1)
	stw 0,1112(1)
	bl _Z18Sys_NetAdrToString8netadr_t
	lis 4,.LC22@ha
	mr 5,3
	la 4,.LC22@l(4)
	mr 3,30
	mtctr 29
	crxor 6,6,6
	bctrl
	b .L250
.LVL525:
.L278:
	.loc 2 1421 0
	lis 9,common@ha
	lis 4,.LC21@ha
	lwz 3,common@l(9)
	la 4,.LC21@l(4)
	mr 5,28
	addi 31,1,32
	lwz 9,0(3)
	lwz 0,76(9)
	mtctr 0
	crxor 6,6,6
	bctrl
	b .L277
.LVL526:
.L279:
	.loc 2 1454 0
	lis 9,common@ha
	lwz 0,20(1)
	lwz 30,common@l(9)
.LVL527:
	addi 3,1,1104
	lwz 9,0(30)
	lwz 29,76(9)
.LVL528:
	stw 0,1104(1)
	lwz 0,24(1)
	stw 0,1108(1)
	lwz 0,28(1)
	stw 0,1112(1)
	bl _Z18Sys_NetAdrToString8netadr_t
	lis 4,.LC25@ha
	mr 5,3
	la 4,.LC25@l(4)
	mr 3,30
	addi 6,1,8
	mtctr 29
	crxor 6,6,6
	bctrl
	b .L250
.LVL529:
.L255:
	.loc 2 1446 0
	lwz 0,20(1)
	add 10,29,27
	addi 3,1,1104
	addi 4,1,1120
	stw 0,1104(1)
	lwz 0,24(1)
	stw 0,1108(1)
	lwz 0,28(1)
	stw 0,1112(1)
	lwz 11,60(10)
	lwz 9,64(10)
	lwz 0,68(10)
	stw 11,1120(1)
	stw 9,1124(1)
	stw 0,1128(1)
	bl _Z21Sys_CompareNetAdrBase8netadr_tS_
	cmpwi 7,3,0
	beq- 7,.L281
.L256:
	.loc 2 1458 0
	add 9,29,27
	lwz 0,92(9)
	cmpwi 7,0,0
	beq- 7,.L276
	.loc 2 1459 0
	lis 11,common@ha
	lwz 10,60(9)
	lwz 30,common@l(11)
.LVL530:
	addi 3,1,1104
	lwz 11,64(9)
	lwz 8,0(30)
	lwz 0,68(9)
	lwz 28,84(8)
.LVL531:
	lwz 26,76(9)
	stw 10,1104(1)
	stw 11,1108(1)
	stw 0,1112(1)
	bl _Z18Sys_NetAdrToString8netadr_t
	add 29,29,27
.LVL532:
	lis 4,.LC26@ha
	mr 6,3
	la 4,.LC26@l(4)
	mr 3,30
	mr 5,26
	lwz 7,92(29)
	mtctr 28
	crxor 6,6,6
	bctrl
	b .L250
.LVL533:
.L281:
	.loc 2 1448 0
	lis 9,common@ha
	lwz 0,20(1)
	lwz 25,common@l(9)
	addi 3,1,1104
	lwz 9,0(25)
	lwz 23,76(9)
	stw 0,1104(1)
	lwz 0,24(1)
	stw 0,1108(1)
	lwz 0,28(1)
	stw 0,1112(1)
	bl _Z18Sys_NetAdrToString8netadr_t
	add 10,29,27
	mr 24,3
	lwz 11,60(10)
	addi 3,1,1104
	lwz 9,64(10)
	lwz 0,68(10)
	stw 11,1104(1)
	stw 9,1108(1)
	stw 0,1112(1)
	bl _Z18Sys_NetAdrToString8netadr_t
	.loc 2 1448 0 is_stmt 0 discriminator 1
	lis 4,.LC24@ha
	mr 7,3
	la 4,.LC24@l(4)
	mr 3,25
	addi 5,1,8
	mr 6,24
	mtctr 23
	crxor 6,6,6
	bctrl
	b .L256
.L276:
	.loc 2 1463 0 is_stmt 1
	mr 3,26
	li 4,12
	addi 5,1,8
	crxor 6,6,6
	bl _ZN5idStr8snPrintfEPciPKcz
.LBB2024:
	.loc 2 1464 0
	beq- 4,.L282
.LBB2025:
	.loc 2 1469 0
	cmpwi 7,28,3
	beq- 7,.L263
	.loc 2 1470 0
	lis 9,.LANCHOR0@ha
	slwi 0,28,2
	la 9,.LANCHOR0@l(9)
	lwzx 25,9,0
.LVL534:
.L264:
	.loc 2 1475 0
	lis 26,common@ha
	lwz 3,common@l(26)
	lwz 9,0(3)
	lwz 0,104(9)
	mtctr 0
	bctrl
	mr 4,25
	bl _ZNK10idLangDict9GetStringEPKc
	.loc 2 1476 0 discriminator 1
	lwz 26,common@l(26)
	.loc 2 1475 0 discriminator 1
	mr 25,3
.LVL535:
	.loc 2 1476 0 discriminator 1
	lwz 0,20(1)
	addi 3,1,1104
.LVL536:
	lwz 9,0(26)
	lwz 24,76(9)
	stw 0,1104(1)
	lwz 0,24(1)
	stw 0,1108(1)
	lwz 0,28(1)
	stw 0,1112(1)
	bl _Z18Sys_NetAdrToString8netadr_t
	.loc 2 1476 0 is_stmt 0 discriminator 2
	lis 9,.LANCHOR0@ha
	slwi 0,30,2
	la 9,.LANCHOR0@l(9)
	lis 4,.LC28@ha
	add 9,9,0
	mr 5,3
	la 4,.LC28@l(4)
	mr 3,26
	addi 6,1,8
	lwz 7,20(9)
	mr 8,25
	mtctr 24
	crxor 6,6,6
	bctrl
	.loc 2 1477 0 is_stmt 1
	add 9,29,27
	.loc 2 1479 0
	addi 27,27,80
	.loc 2 1477 0
	stw 30,96(9)
	.loc 2 1479 0
	add 29,29,27
.LVL537:
	.loc 2 1478 0
	stw 28,100(9)
	.loc 2 1479 0
	addi 28,29,24
.LVL538:
.LBB2026:
	.loc 2 2829 0
	lwz 30,32(1)
.LVL539:
.LBB2027:
.LBB2028:
.LBB2029:
	.loc 4 350 0
	lwz 0,8(28)
.LBE2029:
.LBE2028:
	.loc 4 534 0
	addi 4,30,1
.LVL540:
.LBB2032:
.LBB2030:
	.loc 4 350 0
	cmpw 7,4,0
	bgt- 7,.L283
.LVL541:
.L265:
.LBE2030:
.LBE2032:
	.loc 4 535 0
	lwz 3,4(28)
	mr 5,30
	lwz 4,36(1)
	bl memcpy
	.loc 4 536 0
	lwz 9,4(28)
	li 0,0
	stbx 0,9,30
	.loc 4 537 0
	stw 30,24(29)
.LVL542:
	b .L250
.LVL543:
.L283:
.LBB2033:
.LBB2031:
	.loc 4 351 0
	mr 3,28
	li 5,0
	bl _ZN5idStr10ReAllocateEib
.LVL544:
	b .L265
.LVL545:
.L263:
.LBE2031:
.LBE2033:
.LBE2027:
.LBE2026:
	.loc 2 1472 0
	lwz 25,4(31)
	b .L264
.L282:
.LBE2025:
	.loc 2 1465 0
	add 29,29,27
.LVL546:
	.loc 2 1466 0
	lis 9,common@ha
	.loc 2 1465 0
	stw 30,92(29)
	.loc 2 1466 0
	addi 3,1,1104
	lwz 30,common@l(9)
.LVL547:
	lwz 0,20(1)
	lwz 9,0(30)
	lwz 29,68(9)
.LVL548:
	stw 0,1104(1)
	lwz 0,24(1)
	stw 0,1108(1)
	lwz 0,28(1)
	stw 0,1112(1)
	bl _Z18Sys_NetAdrToString8netadr_t
	lis 4,.LC27@ha
	mr 5,3
	la 4,.LC27@l(4)
	mr 3,30
	addi 6,1,8
	mtctr 29
	crxor 6,6,6
	bctrl
.LEHE5:
	b .L250
.LVL549:
.L272:
	mr 30,3
.LVL550:
.LBE2024:
.LBB2034:
.LBB2035:
.LBB2036:
	.loc 4 501 0
	mr 3,31
	bl _ZN5idStr8FreeDataEv
	mr 3,30
.LEHB6:
	bl _Unwind_Resume
.LEHE6:
.LBE2036:
.LBE2035:
.LBE2034:
.LBE2040:
	.cfi_endproc
.LFE2601:
	.section	.gcc_except_table
.LLSDA2601:
	.byte	0xff
	.byte	0xff
	.byte	0x1
	.uleb128 .LLSDACSE2601-.LLSDACSB2601
.LLSDACSB2601:
	.uleb128 .LEHB3-.LFB2601
	.uleb128 .LEHE3-.LEHB3
	.uleb128 .L272-.LFB2601
	.uleb128 0
	.uleb128 .LEHB4-.LFB2601
	.uleb128 .LEHE4-.LEHB4
	.uleb128 0
	.uleb128 0
	.uleb128 .LEHB5-.LFB2601
	.uleb128 .LEHE5-.LEHB5
	.uleb128 .L272-.LFB2601
	.uleb128 0
	.uleb128 .LEHB6-.LFB2601
	.uleb128 .LEHE6-.LEHB6
	.uleb128 0
	.uleb128 0
.LLSDACSE2601:
	.section	".text"
	.size	_ZN13idAsyncServer18ProcessAuthMessageERK8idBitMsg, .-_ZN13idAsyncServer18ProcessAuthMessageERK8idBitMsg
	.align 2
	.globl _ZN13idAsyncServer23ProcessChallengeMessageE8netadr_tRK8idBitMsg
	.type	_ZN13idAsyncServer23ProcessChallengeMessageE8netadr_tRK8idBitMsg, @function
_ZN13idAsyncServer23ProcessChallengeMessageE8netadr_tRK8idBitMsg:
.LFB2602:
	.loc 2 1488 0
	.cfi_startproc
.LVL551:
	stwu 1,-16512(1)
.LCFI86:
	.cfi_def_cfa_offset 16512
	mflr 0
	stw 29,16500(1)
	mr 29,5
	.cfi_offset 29, -12
	.cfi_register 65, 0
	stw 30,16504(1)
	mr 30,3
	.cfi_offset 30, -8
.LBB2066:
	.loc 2 1490 0
	addi 3,1,20
.LVL552:
.LBE2066:
	.loc 2 1488 0
	stw 0,16516(1)
	stw 24,16480(1)
	stw 25,16484(1)
	.loc 2 1495 0
	li 25,0
	.cfi_offset 25, -28
	.cfi_offset 24, -32
	.cfi_offset 65, 4
	.loc 2 1488 0
	stw 26,16488(1)
	.loc 2 1496 0
	lis 26,0x7fff
	.cfi_offset 26, -24
	.loc 2 1488 0
	stw 27,16492(1)
	.loc 2 1496 0
	ori 26,26,65535
	.loc 2 1488 0
	stw 28,16496(1)
	.loc 2 1499 0
	li 27,0
	.cfi_offset 28, -16
	.cfi_offset 27, -20
	.loc 2 1488 0
	stw 31,16508(1)
	.loc 2 1488 0
	mr 31,4
	.cfi_offset 31, -4
.LBB2097:
	.loc 2 1490 0
	bl _ZN8idBitMsgC1Ev
.LVL553:
.LBB2067:
.LBB2068:
	.loc 3 376 0
	mr 3,29
	li 4,32
	.loc 2 1488 0
	addi 28,30,88
	.loc 3 376 0
	bl _ZNK8idBitMsg8ReadBitsEi
	mr 24,3
.LVL554:
	b .L287
.LVL555:
.L285:
.LBE2068:
.LBE2067:
	.loc 2 1503 0
	lwz 0,-8(28)
	cmpw 7,0,26
	bge- 7,.L293
	mr 25,27
	mr 26,0
.L293:
.LVL556:
	.loc 2 1499 0
	cmpwi 7,27,63
	addi 28,28,92
	addi 27,27,1
.LVL557:
	beq- 7,.L295
.LVL558:
.L287:
	.loc 2 1500 0
	lbz 0,0(28)
	cmpwi 7,0,0
	bne+ 7,.L285
	.loc 2 1500 0 is_stmt 0 discriminator 1
	lwz 11,0(31)
	mulli 29,27,92
	lwz 9,4(31)
	addi 3,1,16448
	lwz 0,8(31)
	add 10,30,29
	stw 11,16448(1)
	addi 4,1,16464
	stw 9,16452(1)
	stw 0,16456(1)
	lwz 11,60(10)
	lwz 9,64(10)
	lwz 0,68(10)
	stw 11,16464(1)
	stw 9,16468(1)
	stw 0,16472(1)
	bl _Z21Sys_CompareNetAdrBase8netadr_tS_
	cmpwi 7,3,0
	beq- 7,.L285
	.loc 2 1500 0 discriminator 3
	lwz 0,-16(28)
	cmpw 7,0,24
	bne+ 7,.L285
.L286:
	.loc 2 1523 0 is_stmt 1
	lwz 0,8(30)
	add 29,30,29
	.loc 2 1525 0
	lis 26,common@ha
	lwz 11,0(31)
	.loc 2 1523 0
	stw 0,84(29)
	.loc 2 1525 0
	addi 3,1,16448
	lwz 27,common@l(26)
	lwz 9,4(31)
	lwz 10,0(27)
	lwz 0,8(31)
	lwz 25,68(10)
	lwz 28,76(29)
	stw 11,16448(1)
	stw 9,16452(1)
	stw 0,16456(1)
	bl _Z18Sys_NetAdrToString8netadr_t
	lis 4,.LC29@ha
	mtctr 25
	mr 6,3
	mr 5,28
	mr 3,27
	la 4,.LC29@l(4)
	.loc 2 1532 0
	lis 28,cvarSystem@ha
	.loc 2 1535 0
	addi 27,30,12
	.loc 2 1525 0
	crxor 6,6,6
	bctrl
.LVL559:
.LBB2069:
.LBB2070:
	.loc 3 156 0
	addi 0,1,52
.LBE2070:
.LBE2069:
.LBB2072:
.LBB2073:
	.loc 3 288 0
	addi 3,1,20
.LVL560:
	li 4,-1
	li 5,-16
.LBE2073:
.LBE2072:
.LBB2075:
.LBB2071:
	.loc 3 156 0
	stw 0,20(1)
	.loc 3 157 0
	stw 0,24(1)
	.loc 3 158 0
	li 0,16384
	stw 0,28(1)
.LVL561:
.LBE2071:
.LBE2075:
.LBB2076:
.LBB2074:
	.loc 3 288 0
	bl _ZN8idBitMsg9WriteBitsEii
.LVL562:
.LBE2074:
.LBE2076:
	.loc 2 1529 0
	lis 4,.LC30@ha
	li 6,1
	la 4,.LC30@l(4)
	li 5,-1
	addi 3,1,20
.LVL563:
	bl _ZN8idBitMsg11WriteStringEPKcib
.LVL564:
.LBB2077:
.LBB2078:
	.loc 3 296 0
	lwz 4,76(29)
	addi 3,1,20
.LVL565:
	li 5,32
	bl _ZN8idBitMsg9WriteBitsEii
.LVL566:
.LBE2078:
.LBE2077:
.LBB2079:
.LBB2080:
	.loc 3 288 0
	lwz 4,48(30)
	li 5,-16
	addi 3,1,20
.LVL567:
	bl _ZN8idBitMsg9WriteBitsEii
.LVL568:
.LBE2080:
.LBE2079:
	.loc 2 1532 0
	lwz 3,cvarSystem@l(28)
	lis 4,.LC31@ha
	lwz 9,0(3)
	la 4,.LC31@l(4)
	lwz 0,44(9)
	mtctr 0
	bctrl
	li 5,-1
	mr 4,3
	li 6,1
	addi 3,1,20
.LVL569:
	bl _ZN8idBitMsg11WriteStringEPKcib
.LVL570:
	.loc 2 1533 0
	lwz 3,cvarSystem@l(28)
	lis 4,.LC32@ha
	lwz 9,0(3)
	la 4,.LC32@l(4)
	lwz 0,44(9)
	mtctr 0
	bctrl
	li 5,-1
	mr 4,3
	li 6,1
	addi 3,1,20
.LVL571:
	bl _ZN8idBitMsg11WriteStringEPKcib
.LVL572:
	.loc 2 1535 0
	lwz 11,0(31)
	lwz 9,4(31)
	mr 3,27
	lwz 0,8(31)
	addi 4,1,16448
	lwz 5,20(1)
	lwz 6,32(1)
	stw 11,16448(1)
	stw 9,16452(1)
	stw 0,16456(1)
	bl _ZN6idPort10SendPacketE8netadr_tPKvi
	.loc 2 1537 0
	lwz 11,0(31)
	addi 3,1,16448
	lwz 9,4(31)
	lwz 0,8(31)
	stw 11,16448(1)
	stw 9,16452(1)
	stw 0,16456(1)
	bl _Z16Sys_IsLANAddress8netadr_t
	cmpwi 7,3,0
	bne- 7,.L296
.LBB2081:
.LBB2082:
	.loc 2 1541 0
	lis 9,_ZN14idAsyncNetwork9LANServerE+44@ha
	.loc 7 142 0
	lwz 9,_ZN14idAsyncNetwork9LANServerE+44@l(9)
.LBE2082:
.LBE2081:
	.loc 2 1541 0
	lwz 0,36(9)
	cmpwi 7,0,0
	bne- 7,.L297
.LVL573:
.LBB2083:
.LBB2084:
	.loc 3 288 0
	addi 3,1,20
.LVL574:
	li 4,-1
	li 5,-16
.LBE2084:
.LBE2083:
.LBB2086:
.LBB2087:
	.loc 3 266 0
	stw 0,32(1)
	.loc 3 267 0
	stb 0,49(1)
	.loc 3 268 0
	stw 0,36(1)
.LVL575:
.LBE2087:
.LBE2086:
.LBB2088:
.LBB2085:
	.loc 3 288 0
	bl _ZN8idBitMsg9WriteBitsEii
.LVL576:
.LBE2085:
.LBE2088:
	.loc 2 1548 0
	lis 4,.LC34@ha
	li 6,1
	addi 3,1,20
.LVL577:
	la 4,.LC34@l(4)
	li 5,-1
	bl _ZN8idBitMsg11WriteStringEPKcib
.LVL578:
.LBB2089:
.LBB2090:
	.loc 3 296 0
	lis 4,0x1
	addi 3,1,20
.LVL579:
	li 5,32
	ori 4,4,41
	bl _ZN8idBitMsg9WriteBitsEii
.LVL580:
.LBE2090:
.LBE2089:
	.loc 2 1550 0
	lwz 11,0(31)
	lwz 9,4(31)
	addi 4,1,16448
	lwz 0,8(31)
	addi 3,1,20
.LVL581:
	stw 11,16448(1)
	stw 9,16452(1)
	stw 0,16456(1)
	bl _ZN8idBitMsg11WriteNetadrE8netadr_t
.LVL582:
.LBB2091:
.LBB2092:
	.loc 3 296 0
	addi 3,1,20
.LVL583:
	li 5,32
	li 4,-1
	bl _ZN8idBitMsg9WriteBitsEii
.LVL584:
.LBE2092:
.LBE2091:
	.loc 2 1553 0
	lis 9,fileSystem@ha
	lwz 3,fileSystem@l(9)
	lwz 9,0(3)
	lwz 0,168(9)
	mtctr 0
	bctrl
.LBB2093:
.LBB2094:
	.loc 3 284 0
	li 5,8
.LBE2094:
.LBE2093:
	.loc 2 1553 0
	mr 4,3
.LVL585:
.LBB2096:
.LBB2095:
	.loc 3 284 0
	addi 3,1,20
.LVL586:
	bl _ZN8idBitMsg9WriteBitsEii
.LVL587:
.LBE2095:
.LBE2096:
	.loc 2 1554 0
	addi 3,1,8
	bl _ZN14idAsyncNetwork16GetMasterAddressEv
	lwz 0,8(1)
	lwz 5,20(1)
	mr 3,27
	stw 0,16448(1)
	addi 4,1,16448
	lwz 0,12(1)
	lwz 6,32(1)
	stw 0,16452(1)
	lwz 0,16(1)
	stw 0,16456(1)
	bl _ZN6idPort10SendPacketE8netadr_tPKvi
.LBE2097:
	.loc 2 1557 0
	lwz 0,16516(1)
	lwz 24,16480(1)
	mtlr 0
	lwz 25,16484(1)
	lwz 26,16488(1)
	lwz 27,16492(1)
	lwz 28,16496(1)
	lwz 29,16500(1)
	lwz 30,16504(1)
.LVL588:
	lwz 31,16508(1)
	addi 1,1,16512
	.cfi_remember_state
.LCFI87:
	.cfi_def_cfa_offset 0
	.cfi_restore 31
	.cfi_restore 30
	.cfi_restore 29
	.cfi_restore 28
	.cfi_restore 27
	.cfi_restore 26
	.cfi_restore 25
	.cfi_restore 24
	blr
.LVL589:
.L297:
.LCFI88:
	.cfi_restore_state
.LBB2098:
	.loc 2 1542 0
	lwz 30,common@l(26)
.LVL590:
	addi 3,1,16448
	lwz 0,8(31)
	lwz 10,0(30)
	lwz 11,0(31)
	lwz 9,4(31)
	lwz 31,68(10)
	stw 0,16456(1)
	stw 11,16448(1)
	stw 9,16452(1)
	bl _Z18Sys_NetAdrToString8netadr_t
	lis 4,.LC33@ha
	mr 5,3
	mtctr 31
	mr 3,30
	la 4,.LC33@l(4)
	crxor 6,6,6
	bctrl
	.loc 2 1543 0
	li 0,2
	stw 0,92(29)
.LBE2098:
	.loc 2 1557 0
	lwz 0,16516(1)
	lwz 24,16480(1)
	mtlr 0
	lwz 25,16484(1)
	lwz 26,16488(1)
	lwz 27,16492(1)
.LVL591:
	lwz 28,16496(1)
	lwz 29,16500(1)
	lwz 30,16504(1)
	lwz 31,16508(1)
	addi 1,1,16512
	.cfi_remember_state
	.cfi_restore 24
	.cfi_restore 25
	.cfi_restore 26
	.cfi_restore 27
	.cfi_restore 28
	.cfi_restore 29
	.cfi_restore 30
	.cfi_restore 31
.LCFI89:
	.cfi_def_cfa_offset 0
	blr
.LVL592:
.L296:
.LCFI90:
	.cfi_restore_state
.LBB2099:
	.loc 2 1539 0
	li 0,1
	stw 0,92(29)
.LBE2099:
	.loc 2 1557 0
	lwz 0,16516(1)
	lwz 24,16480(1)
	mtlr 0
	lwz 25,16484(1)
	lwz 26,16488(1)
	lwz 27,16492(1)
	lwz 28,16496(1)
	lwz 29,16500(1)
	lwz 30,16504(1)
.LVL593:
	lwz 31,16508(1)
	addi 1,1,16512
	.cfi_remember_state
	.cfi_restore 24
	.cfi_restore 25
	.cfi_restore 26
	.cfi_restore 27
	.cfi_restore 28
	.cfi_restore 29
	.cfi_restore 30
	.cfi_restore 31
.LCFI91:
	.cfi_def_cfa_offset 0
	blr
.LVL594:
.L295:
.LCFI92:
	.cfi_restore_state
.LBB2100:
	.loc 2 1512 0
	mulli 29,25,92
	lwz 10,0(31)
	lwz 11,4(31)
	lwz 0,8(31)
	add 28,30,29
	stw 10,60(28)
	stw 11,64(28)
	stw 0,68(28)
	.loc 2 1513 0
	stw 24,72(28)
	.loc 2 1514 0
	bl rand
	mr 27,3
	bl rand
	lwz 0,8(30)
	slwi 9,27,16
	.loc 2 1517 0
	li 27,0
	.loc 2 1520 0
	lis 4,.LC8@ha
	.loc 2 1514 0
	xor 3,3,0
	.loc 2 1515 0
	stw 0,80(28)
	.loc 2 1514 0
	xor 9,3,9
	.loc 2 1516 0
	li 0,0
	.loc 2 1514 0
	stw 9,76(28)
	.loc 2 1520 0
	addi 3,28,104
	.loc 2 1516 0
	stb 0,88(28)
	.loc 2 1520 0
	la 4,.LC8@l(4)
	.loc 2 1517 0
	stw 27,92(28)
	.loc 2 1518 0
	stw 27,96(28)
	.loc 2 1519 0
	stw 27,100(28)
	.loc 2 1520 0
	bl _ZN5idStraSEPKc
	.loc 2 1521 0
	stb 27,136(28)
	b .L286
.LBE2100:
	.cfi_endproc
.LFE2602:
	.size	_ZN13idAsyncServer23ProcessChallengeMessageE8netadr_tRK8idBitMsg, .-_ZN13idAsyncServer23ProcessChallengeMessageE8netadr_tRK8idBitMsg
	.align 2
	.globl _ZN13idAsyncServer21SendPureServerMessageE8netadr_ti
	.type	_ZN13idAsyncServer21SendPureServerMessageE8netadr_ti, @function
_ZN13idAsyncServer21SendPureServerMessageE8netadr_ti:
.LFB2603:
	.loc 2 1564 0
	.cfi_startproc
.LVL595:
	stwu 1,-17008(1)
.LCFI93:
	.cfi_def_cfa_offset 17008
	mflr 0
	stw 30,17000(1)
	mr 30,3
	.cfi_offset 30, -8
	.cfi_register 65, 0
.LBB2114:
	.loc 2 1565 0
	addi 3,1,12
.LVL596:
.LBE2114:
	.loc 2 1564 0
	stw 0,17012(1)
	stw 31,17004(1)
	mr 31,4
	.cfi_offset 31, -4
	.cfi_offset 65, 4
.LBB2129:
	.loc 2 1565 0
	stw 5,16976(1)
.LBE2129:
	.loc 2 1564 0
	stw 28,16992(1)
	stw 29,16996(1)
.LBB2130:
	.loc 2 1565 0
	.cfi_offset 29, -12
	.cfi_offset 28, -16
	bl _ZN8idBitMsgC1Ev
.LVL597:
	.loc 2 1571 0
	lis 9,fileSystem@ha
	addi 4,1,44
	lwz 3,fileSystem@l(9)
	addi 6,1,8
	lwz 5,16976(1)
	lwz 9,0(3)
	lwz 0,80(9)
	mtctr 0
	bctrl
	.loc 2 1572 0
	lwz 0,44(1)
	.loc 2 1574 0
	lis 9,common@ha
	.loc 2 1572 0
	cmpwi 7,0,0
	bne- 7,.L299
	.loc 2 1574 0
	lwz 3,common@l(9)
	lis 4,.LC35@ha
	la 4,.LC35@l(4)
	lwz 9,0(3)
	lwz 0,80(9)
	mtctr 0
	crxor 6,6,6
	bctrl
.LBE2130:
	.loc 2 1595 0
	lwz 0,17012(1)
	lwz 28,16992(1)
.LBB2131:
	.loc 2 1575 0
	li 3,0
.LBE2131:
	.loc 2 1595 0
	mtlr 0
	lwz 29,16996(1)
	lwz 30,17000(1)
.LVL598:
	lwz 31,17004(1)
	addi 1,1,17008
	.cfi_remember_state
.LCFI94:
	.cfi_def_cfa_offset 0
	.cfi_restore 31
	.cfi_restore 30
	.cfi_restore 29
	.cfi_restore 28
	blr
.LVL599:
.L299:
.LCFI95:
	.cfi_restore_state
.LBB2132:
	.loc 2 1577 0
	lwz 28,common@l(9)
	addi 3,1,16960
	lwz 11,0(31)
	lwz 10,0(28)
	lwz 9,4(31)
	lwz 0,8(31)
	lwz 29,76(10)
	stw 11,16960(1)
	stw 9,16964(1)
	stw 0,16968(1)
	bl _Z18Sys_NetAdrToString8netadr_t
	lis 4,.LC36@ha
	mr 5,3
	mtctr 29
	mr 3,28
	la 4,.LC36@l(4)
	crxor 6,6,6
	bctrl
.LVL600:
.LBB2115:
.LBB2116:
	.loc 3 156 0
	addi 0,1,556
.LBE2116:
.LBE2115:
.LBB2118:
.LBB2119:
	.loc 3 288 0
	addi 3,1,12
.LVL601:
	li 4,-1
	li 5,-16
.LBE2119:
.LBE2118:
.LBB2121:
.LBB2117:
	.loc 3 156 0
	stw 0,12(1)
	.loc 3 157 0
	stw 0,16(1)
	.loc 3 158 0
	li 0,16384
	stw 0,20(1)
.LVL602:
.LBE2117:
.LBE2121:
.LBB2122:
.LBB2120:
	.loc 3 288 0
	bl _ZN8idBitMsg9WriteBitsEii
.LVL603:
.LBE2120:
.LBE2122:
	.loc 2 1582 0
	lis 4,.LC37@ha
	addi 3,1,12
.LVL604:
	la 4,.LC37@l(4)
	li 5,-1
	li 6,1
	bl _ZN8idBitMsg11WriteStringEPKcib
.LVL605:
	.loc 2 1585 0
	lwz 4,44(1)
	cmpwi 7,4,0
	beq- 7,.L301
	addi 29,1,44
.LVL606:
.L302:
.LBB2123:
.LBB2124:
	.loc 3 296 0
	addi 3,1,12
.LVL607:
	li 5,32
	bl _ZN8idBitMsg9WriteBitsEii
.LVL608:
.LBE2124:
.LBE2123:
	.loc 2 1585 0
	lwzu 4,4(29)
	cmpwi 7,4,0
	bne+ 7,.L302
.LVL609:
.L301:
.LBB2125:
.LBB2126:
	.loc 3 296 0
	addi 3,1,12
.LVL610:
	li 4,0
	li 5,32
	bl _ZN8idBitMsg9WriteBitsEii
.LVL611:
.LBE2126:
.LBE2125:
.LBB2127:
.LBB2128:
	lwz 4,8(1)
	addi 3,1,12
.LVL612:
	li 5,32
	bl _ZN8idBitMsg9WriteBitsEii
.LVL613:
.LBE2128:
.LBE2127:
	.loc 2 1593 0
	lwz 0,8(31)
	lwz 11,0(31)
	addi 3,30,12
	lwz 9,4(31)
	addi 4,1,16960
	lwz 5,12(1)
	lwz 6,24(1)
	stw 0,16968(1)
	stw 11,16960(1)
	stw 9,16964(1)
	bl _ZN6idPort10SendPacketE8netadr_tPKvi
.LBE2132:
	.loc 2 1595 0
	lwz 0,17012(1)
.LBB2133:
	.loc 2 1594 0
	li 3,1
.LBE2133:
	.loc 2 1595 0
	lwz 28,16992(1)
	mtlr 0
	lwz 29,16996(1)
	lwz 30,17000(1)
.LVL614:
	lwz 31,17004(1)
	addi 1,1,17008
	.cfi_restore 28
	.cfi_restore 29
	.cfi_restore 30
	.cfi_restore 31
.LCFI96:
	.cfi_def_cfa_offset 0
	blr
	.cfi_endproc
.LFE2603:
	.size	_ZN13idAsyncServer21SendPureServerMessageE8netadr_ti, .-_ZN13idAsyncServer21SendPureServerMessageE8netadr_ti
	.align 2
	.globl _ZN13idAsyncServer24SendReliablePureToClientEi
	.type	_ZN13idAsyncServer24SendReliablePureToClientEi, @function
_ZN13idAsyncServer24SendReliablePureToClientEi:
.LFB2604:
	.loc 2 1602 0
	.cfi_startproc
.LVL615:
	stwu 1,-16968(1)
.LCFI97:
	.cfi_def_cfa_offset 16968
	mflr 0
	stw 30,16960(1)
	mr 30,3
	.cfi_offset 30, -8
	.cfi_register 65, 0
	stw 31,16964(1)
.LBB2149:
	.loc 2 1603 0
	addi 3,1,12
.LVL616:
.LBE2149:
	.loc 2 1602 0
	mr 31,4
	.cfi_offset 31, -4
	stw 0,16972(1)
	stw 29,16956(1)
.LBB2166:
	.loc 2 1603 0
	.cfi_offset 29, -12
	.cfi_offset 65, 4
	bl _ZN8idBitMsgC1Ev
.LVL617:
	.loc 2 1609 0
	slwi 9,31,8
	slwi 0,31,2
	subf 0,0,9
	lis 9,fileSystem@ha
	lwz 3,fileSystem@l(9)
	add 0,0,31
	slwi 9,0,6
	addi 4,1,44
	lwz 11,0(3)
	add 9,0,9
	slwi 9,9,2
	addi 6,1,8
	lwz 0,80(11)
	add 9,30,9
	lwz 5,5948(9)
	mtctr 0
	bctrl
	.loc 2 1610 0
	lwz 0,44(1)
	.loc 2 1612 0
	lis 9,common@ha
	.loc 2 1610 0
	cmpwi 7,0,0
	.loc 2 1612 0
	lwz 3,common@l(9)
	.loc 2 1610 0
	bne- 7,.L306
	.loc 2 1612 0
	lwz 9,0(3)
	lis 4,.LC35@ha
	la 4,.LC35@l(4)
	lwz 0,80(9)
	mtctr 0
	crxor 6,6,6
	bctrl
.LBE2166:
	.loc 2 1633 0
	lwz 0,16972(1)
	lwz 29,16956(1)
.LBB2167:
	.loc 2 1613 0
	li 3,0
.LBE2167:
	.loc 2 1633 0
	mtlr 0
	lwz 30,16960(1)
.LVL618:
	lwz 31,16964(1)
.LVL619:
	addi 1,1,16968
	.cfi_remember_state
.LCFI98:
	.cfi_def_cfa_offset 0
	.cfi_restore 31
	.cfi_restore 30
	.cfi_restore 29
	blr
.LVL620:
.L306:
.LCFI99:
	.cfi_restore_state
.LBB2168:
	.loc 2 1616 0
	lwz 9,0(3)
	addis 29,30,0x5
	lis 4,.LC38@ha
	lwz 6,-25844(29)
	lwz 0,76(9)
	la 4,.LC38@l(4)
	mr 5,31
	mtctr 0
	crxor 6,6,6
	bctrl
.LVL621:
.LBB2150:
.LBB2151:
	.loc 3 156 0
	addi 0,1,556
.LBE2151:
.LBE2150:
.LBB2153:
.LBB2154:
	.loc 3 284 0
	li 4,0
	li 5,8
	addi 3,1,12
.LVL622:
.LBE2154:
.LBE2153:
.LBB2156:
.LBB2152:
	.loc 3 156 0
	stw 0,12(1)
	.loc 3 157 0
	stw 0,16(1)
	.loc 3 158 0
	li 0,16384
	stw 0,20(1)
.LVL623:
.LBE2152:
.LBE2156:
.LBB2157:
.LBB2155:
	.loc 3 284 0
	bl _ZN8idBitMsg9WriteBitsEii
.LVL624:
.LBE2155:
.LBE2157:
.LBB2158:
.LBB2159:
	.loc 3 296 0
	lwz 4,-25844(29)
	addi 3,1,12
.LVL625:
	li 5,32
	bl _ZN8idBitMsg9WriteBitsEii
.LVL626:
.LBE2159:
.LBE2158:
	.loc 2 1624 0
	lwz 4,44(1)
	cmpwi 7,4,0
	beq- 7,.L308
	addi 29,1,44
.LVL627:
.L309:
.LBB2160:
.LBB2161:
	.loc 3 296 0
	addi 3,1,12
.LVL628:
	li 5,32
	bl _ZN8idBitMsg9WriteBitsEii
.LVL629:
.LBE2161:
.LBE2160:
	.loc 2 1624 0
	lwzu 4,4(29)
	cmpwi 7,4,0
	bne+ 7,.L309
.LVL630:
.L308:
.LBB2162:
.LBB2163:
	.loc 3 296 0
	addi 3,1,12
.LVL631:
	li 4,0
	li 5,32
	bl _ZN8idBitMsg9WriteBitsEii
.LVL632:
.LBE2163:
.LBE2162:
.LBB2164:
.LBB2165:
	lwz 4,8(1)
	addi 3,1,12
.LVL633:
	li 5,32
	bl _ZN8idBitMsg9WriteBitsEii
.LVL634:
.LBE2165:
.LBE2164:
	.loc 2 1630 0
	mr 3,30
	mr 4,31
	addi 5,1,12
.LVL635:
	bl _ZN13idAsyncServer19SendReliableMessageEiRK8idBitMsg
.LVL636:
.LBE2168:
	.loc 2 1633 0
	lwz 0,16972(1)
	lwz 29,16956(1)
.LBB2169:
	.loc 2 1632 0
	li 3,1
.LBE2169:
	.loc 2 1633 0
	mtlr 0
	lwz 30,16960(1)
.LVL637:
	lwz 31,16964(1)
.LVL638:
	addi 1,1,16968
	.cfi_restore 29
	.cfi_restore 30
	.cfi_restore 31
.LCFI100:
	.cfi_def_cfa_offset 0
	blr
	.cfi_endproc
.LFE2604:
	.size	_ZN13idAsyncServer24SendReliablePureToClientEi, .-_ZN13idAsyncServer24SendReliablePureToClientEi
	.align 2
	.globl _ZN13idAsyncServer21VerifyChecksumMessageEiPK8netadr_tRK8idBitMsgR5idStri
	.type	_ZN13idAsyncServer21VerifyChecksumMessageEiPK8netadr_tRK8idBitMsgR5idStri, @function
_ZN13idAsyncServer21VerifyChecksumMessageEiPK8netadr_tRK8idBitMsgR5idStri:
.LFB2607:
	.loc 2 1889 0
	.cfi_startproc
.LVL639:
	stwu 1,-1112(1)
.LCFI101:
	.cfi_def_cfa_offset 1112
	mflr 0
.LBB2175:
.LBB2176:
.LBB2177:
	.loc 3 376 0
	mr 3,6
.LVL640:
.LBE2177:
.LBE2176:
.LBE2175:
	.loc 2 1889 0
	stw 30,1104(1)
	mr 30,4
	.cfi_offset 30, -8
	.cfi_register 65, 0
.LBB2194:
.LBB2184:
.LBB2178:
	.loc 3 376 0
	li 4,32
.LVL641:
.LBE2178:
.LBE2184:
.LBE2194:
	.loc 2 1889 0
	stw 23,1076(1)
	stw 24,1080(1)
	mr 23,8
	.cfi_offset 24, -32
	.cfi_offset 23, -36
	stw 25,1084(1)
.LBB2195:
	addi 24,1,1032
.LBE2195:
	stw 26,1088(1)
.LBB2196:
	.loc 2 1900 0
	mr 26,1
	.cfi_offset 26, -24
	.cfi_offset 25, -28
.LBE2196:
	.loc 2 1889 0
	stw 27,1092(1)
	stw 28,1096(1)
	mr 28,7
	.cfi_offset 28, -16
	.cfi_offset 27, -20
	stw 29,1100(1)
	mr 29,6
	.cfi_offset 29, -12
.LVL642:
	stw 31,1108(1)
	mr 31,5
	.cfi_offset 31, -4
	stw 0,1116(1)
.LBB2197:
.LBB2185:
.LBB2179:
	.loc 3 376 0
	.cfi_offset 65, 4
	bl _ZNK8idBitMsg8ReadBitsEi
.LVL643:
.LBE2179:
.LBE2185:
	.loc 2 1900 0
	stwu 3,524(26)
.LBB2186:
.LBB2180:
	.loc 3 376 0
	mr 27,3
.LVL644:
.LBE2180:
.LBE2186:
.LBE2197:
	.loc 2 1889 0
	mr 25,26
	b .L313
.LVL645:
.L315:
.LBB2198:
.LBB2187:
.LBB2181:
	.loc 3 376 0
	bl _ZNK8idBitMsg8ReadBitsEi
.LBE2181:
.LBE2187:
	.loc 2 1900 0
	stwu 3,4(25)
.LBB2188:
.LBB2182:
	.loc 3 376 0
	mr 27,3
.LBE2182:
.LBE2188:
	.loc 2 1902 0
	cmpw 7,25,24
	beq- 7,.L332
.L313:
	.loc 2 1898 0
	cmpwi 7,27,0
.LBB2189:
.LBB2183:
	.loc 3 376 0
	mr 3,29
	li 4,32
.LBE2183:
.LBE2189:
	.loc 2 1898 0
	bne+ 7,.L315
.LBB2190:
.LBB2191:
	.loc 3 376 0
	bl _ZNK8idBitMsg8ReadBitsEi
.LBE2191:
.LBE2190:
	.loc 2 1913 0
	lis 9,fileSystem@ha
.LBB2193:
.LBB2192:
	.loc 3 376 0
	mr 29,3
.LVL646:
.LBE2192:
.LBE2193:
	.loc 2 1913 0
	lwz 3,fileSystem@l(9)
	addi 4,1,12
	mr 5,23
	lwz 9,0(3)
	addi 6,1,8
	lwz 0,80(9)
	mtctr 0
	bctrl
.LVL647:
	.loc 2 1917 0
	lwz 0,8(1)
	cmpw 7,0,29
	beq- 7,.L333
	.loc 2 1918 0
	lis 9,common@ha
	cmpwi 7,31,0
	lwz 26,common@l(9)
	lwz 9,0(26)
	lwz 27,68(9)
	beq- 7,.L320
	.loc 2 1918 0 is_stmt 0 discriminator 1
	lwz 11,0(31)
	addi 3,1,1056
	lwz 9,4(31)
	lwz 0,8(31)
	stw 11,1056(1)
	stw 9,1060(1)
	stw 0,1064(1)
	bl _Z18Sys_NetAdrToString8netadr_t
	mr 5,3
.L321:
	.loc 2 1918 0 discriminator 3
	lis 4,.LC42@ha
	mr 3,26
	la 4,.LC42@l(4)
	mr 6,29
	mtctr 27
	crxor 6,6,6
	bctrl
	.loc 2 1919 0 is_stmt 1 discriminator 3
	lis 4,.LC43@ha
	mr 3,28
	la 4,.LC43@l(4)
	crxor 6,6,6
	bl _Z7sprintfR5idStrPKcz
	.loc 2 1920 0 discriminator 3
	li 3,0
.L314:
.LBE2198:
	.loc 2 1935 0
	lwz 0,1116(1)
	lwz 23,1076(1)
.LVL648:
	mtlr 0
	lwz 24,1080(1)
	lwz 25,1084(1)
	lwz 26,1088(1)
	lwz 27,1092(1)
	lwz 28,1096(1)
.LVL649:
	lwz 29,1100(1)
	lwz 30,1104(1)
.LVL650:
	lwz 31,1108(1)
.LVL651:
	addi 1,1,1112
	.cfi_remember_state
.LCFI102:
	.cfi_def_cfa_offset 0
	.cfi_restore 31
	.cfi_restore 30
	.cfi_restore 29
	.cfi_restore 28
	.cfi_restore 27
	.cfi_restore 26
	.cfi_restore 25
	.cfi_restore 24
	.cfi_restore 23
	blr
.LVL652:
.L333:
.LCFI103:
	.cfi_restore_state
.LBB2199:
	.loc 2 1922 0 discriminator 1
	lwz 0,12(1)
	cmpwi 7,0,0
	beq- 7,.L317
	.loc 2 1923 0
	lwz 9,524(1)
	cmpw 7,0,9
	bne- 7,.L318
	.loc 2 1926 0
	addi 9,1,12
	b .L322
.LVL653:
.L325:
	.loc 2 1923 0
	lwzu 11,4(26)
	cmpw 7,0,11
	bne- 7,.L318
.LVL654:
.L322:
	.loc 2 1922 0
	lwzu 0,4(9)
	addi 27,27,1
.LVL655:
	cmpwi 7,0,0
	bne+ 7,.L325
.LVL656:
.L317:
	.loc 2 1929 0
	slwi 27,27,2
	addi 0,1,8
	add 27,0,27
	.loc 2 1934 0
	li 3,1
	.loc 2 1929 0
	lwz 29,516(27)
	cmpwi 7,29,0
	beq- 7,.L314
	.loc 2 1930 0
	lis 9,common@ha
	cmpwi 7,31,0
	lwz 26,common@l(9)
	lwz 9,0(26)
	lwz 27,76(9)
	beq- 7,.L326
	.loc 2 1930 0 is_stmt 0 discriminator 1
	lwz 11,0(31)
	addi 3,1,1056
	lwz 9,4(31)
	lwz 0,8(31)
	stw 11,1056(1)
	stw 9,1060(1)
	stw 0,1064(1)
	bl _Z18Sys_NetAdrToString8netadr_t
	mr 5,3
.L327:
	.loc 2 1930 0 discriminator 3
	lis 4,.LC46@ha
	mr 3,26
	la 4,.LC46@l(4)
	mr 6,29
	mtctr 27
	crxor 6,6,6
	bctrl
	.loc 2 1931 0 is_stmt 1 discriminator 3
	lis 4,.LC47@ha
	mr 3,28
	la 4,.LC47@l(4)
	mr 5,29
	crxor 6,6,6
	bl _Z7sprintfR5idStrPKcz
	.loc 2 1932 0 discriminator 3
	li 3,0
	b .L314
.L318:
	.loc 2 1924 0
	lis 9,common@ha
	cmpwi 7,31,0
	lwz 26,common@l(9)
	lwz 9,0(26)
	lwz 29,76(9)
	beq- 7,.L323
	.loc 2 1924 0 is_stmt 0 discriminator 1
	lwz 11,0(31)
	addi 3,1,1056
	lwz 9,4(31)
	lwz 0,8(31)
	stw 11,1056(1)
	stw 9,1060(1)
	stw 0,1064(1)
	bl _Z18Sys_NetAdrToString8netadr_t
	mr 5,3
.L324:
	.loc 2 1924 0 discriminator 3
	addi 0,1,8
	slwi 27,27,2
	add 27,0,27
	lis 4,.LC44@ha
	mr 3,26
	lwz 6,4(27)
	mtctr 29
	la 4,.LC44@l(4)
	crxor 6,6,6
	bctrl
	.loc 2 1925 0 is_stmt 1 discriminator 3
	lwz 5,4(27)
	lis 4,.LC45@ha
	mr 3,28
	la 4,.LC45@l(4)
	crxor 6,6,6
	bl _Z7sprintfR5idStrPKcz
.LBE2199:
	.loc 2 1935 0 discriminator 3
	lwz 0,1116(1)
	lwz 23,1076(1)
.LVL657:
.LBB2200:
	.loc 2 1926 0 discriminator 3
	li 3,0
.LBE2200:
	.loc 2 1935 0 discriminator 3
	mtlr 0
	lwz 24,1080(1)
	lwz 25,1084(1)
	lwz 26,1088(1)
	lwz 27,1092(1)
	lwz 28,1096(1)
.LVL658:
	lwz 29,1100(1)
	lwz 30,1104(1)
.LVL659:
	lwz 31,1108(1)
.LVL660:
	addi 1,1,1112
	.cfi_remember_state
	.cfi_restore 23
	.cfi_restore 24
	.cfi_restore 25
	.cfi_restore 26
	.cfi_restore 27
	.cfi_restore 28
	.cfi_restore 29
	.cfi_restore 30
	.cfi_restore 31
.LCFI104:
	.cfi_def_cfa_offset 0
	blr
.LVL661:
.L320:
.LCFI105:
	.cfi_restore_state
.LBB2201:
	.loc 2 1918 0 discriminator 2
	lis 3,.LC41@ha
	mr 4,30
	la 3,.LC41@l(3)
	crxor 6,6,6
	bl _Z2vaPKcz
	mr 5,3
	b .L321
.LVL662:
.L332:
	.loc 2 1903 0
	lis 9,common@ha
	lis 4,.LC39@ha
	lwz 3,common@l(9)
	la 4,.LC39@l(4)
	li 5,128
	lwz 9,0(3)
	lwz 0,80(9)
	mtctr 0
	crxor 6,6,6
	bctrl
	.loc 2 1904 0
	lis 4,.LC40@ha
	mr 3,28
	la 4,.LC40@l(4)
	crxor 6,6,6
	bl _Z7sprintfR5idStrPKcz
	.loc 2 1905 0
	li 3,0
	b .L314
.LVL663:
.L323:
	.loc 2 1924 0 discriminator 2
	lis 3,.LC41@ha
	mr 4,30
	la 3,.LC41@l(3)
	crxor 6,6,6
	bl _Z2vaPKcz
	mr 5,3
	b .L324
.L326:
	.loc 2 1930 0 discriminator 2
	lis 3,.LC41@ha
	mr 4,30
	la 3,.LC41@l(3)
	crxor 6,6,6
	bl _Z2vaPKcz
	mr 5,3
	b .L327
.LBE2201:
	.cfi_endproc
.LFE2607:
	.size	_ZN13idAsyncServer21VerifyChecksumMessageEiPK8netadr_tRK8idBitMsgR5idStri, .-_ZN13idAsyncServer21VerifyChecksumMessageEiPK8netadr_tRK8idBitMsgR5idStri
	.align 2
	.globl _ZN13idAsyncServer19ProcessReliablePureEiRK8idBitMsg
	.type	_ZN13idAsyncServer19ProcessReliablePureEiRK8idBitMsg, @function
_ZN13idAsyncServer19ProcessReliablePureEiRK8idBitMsg:
.LFB2609:
	.loc 2 1972 0
	.cfi_startproc
	.cfi_personality 0,__gxx_personality_v0
	.cfi_lsda 0,.LLSDA2609
.LVL664:
	mflr 0
	stwu 1,-16480(1)
.LCFI106:
	.cfi_def_cfa_offset 16480
	.cfi_register 65, 0
.LVL665:
.LBB2228:
.LBB2229:
.LBB2230:
.LBB2231:
	.loc 4 357 0
	li 9,20
.LBE2231:
.LBE2230:
.LBE2229:
.LBE2228:
	.loc 2 1972 0
	stw 29,16468(1)
	mr 29,3
	.cfi_offset 29, -12
	stw 0,16484(1)
.LBB2270:
	.loc 2 1974 0
	addi 3,1,8
.LVL666:
.LBB2236:
.LBB2234:
.LBB2232:
	.loc 4 356 0
	li 0,0
	.cfi_offset 65, 4
	.loc 4 357 0
	stw 9,48(1)
	.loc 4 358 0
	addi 9,1,52
.LBE2232:
.LBE2234:
.LBE2236:
.LBE2270:
	.loc 2 1972 0
	stw 28,16464(1)
	stw 30,16472(1)
	mr 28,5
	.cfi_offset 30, -8
	.cfi_offset 28, -16
	stw 27,16460(1)
	mr 30,4
	stw 31,16476(1)
.LBB2271:
.LBB2237:
.LBB2235:
.LBB2233:
	.loc 4 356 0
	stw 0,40(1)
	.loc 4 358 0
	stw 9,44(1)
	.loc 4 359 0
	stb 0,52(1)
.LEHB7:
.LBE2233:
.LBE2235:
.LBE2237:
	.loc 2 1974 0
	.cfi_offset 31, -4
	.cfi_offset 27, -20
	bl _ZN8idBitMsgC1Ev
.LEHE7:
.LVL667:
.LBB2238:
.LBB2239:
	.loc 3 376 0
	mr 3,28
	li 4,32
	addi 31,1,40
.LEHB8:
	bl _ZNK8idBitMsg8ReadBitsEi
.LBE2239:
.LBE2238:
	.loc 2 1979 0
	addis 9,29,0x5
.LBB2241:
.LBB2240:
	.loc 3 376 0
	mr 6,3
.LBE2240:
.LBE2241:
	.loc 2 1979 0
	lwz 0,-25844(9)
	cmpw 7,0,3
	beq- 7,.L335
	.loc 2 1980 0
	lis 9,common@ha
	lis 4,.LC48@ha
	lwz 3,common@l(9)
	la 4,.LC48@l(4)
	mr 5,30
	addi 31,1,40
	lwz 9,0(3)
	lwz 0,76(9)
	mtctr 0
	crxor 6,6,6
	bctrl
.LEHE8:
.LVL668:
.L349:
	addi 31,1,40
.L341:
.LVL669:
.LBB2242:
.LBB2243:
.LBB2244:
	.loc 4 501 0
	mr 3,31
.LEHB9:
	bl _ZN5idStr8FreeDataEv
.LEHE9:
.LVL670:
.L334:
.LBE2244:
.LBE2243:
.LBE2242:
.LBE2271:
	.loc 2 2001 0
	lwz 0,16484(1)
	lwz 27,16460(1)
	mtlr 0
	lwz 28,16464(1)
.LVL671:
	lwz 29,16468(1)
	lwz 30,16472(1)
.LVL672:
	lwz 31,16476(1)
	addi 1,1,16480
	.cfi_remember_state
.LCFI107:
	.cfi_def_cfa_offset 0
	.cfi_restore 31
	.cfi_restore 30
	.cfi_restore 29
	.cfi_restore 28
	.cfi_restore 27
	blr
.LVL673:
.L335:
.LCFI108:
	.cfi_restore_state
.LBB2272:
	.loc 2 1984 0
	slwi 0,30,2
	slwi 27,30,8
	subf 27,0,27
	add 27,27,30
	slwi 0,27,6
	add 27,27,0
	slwi 9,27,2
	add 9,29,9
	lwz 0,5956(9)
	cmpwi 7,0,2
	beq- 7,.L337
	.loc 2 1986 0
	lis 9,common@ha
	lis 4,.LC49@ha
	lwz 3,common@l(9)
	la 4,.LC49@l(4)
	mr 5,30
	addi 31,1,40
	lwz 9,0(3)
	lwz 0,76(9)
	mtctr 0
.LEHB10:
	crxor 6,6,6
	bctrl
.LVL674:
.LBB2245:
.LBB2246:
	.loc 3 156 0
	addi 0,1,72
.LBE2246:
.LBE2245:
.LBB2250:
.LBB2251:
	.loc 3 284 0
	addi 3,1,8
.LVL675:
.LBE2251:
.LBE2250:
.LBB2255:
.LBB2247:
	.loc 3 156 0
	stw 0,8(1)
.LBE2247:
.LBE2255:
.LBB2256:
.LBB2252:
	.loc 3 284 0
	li 4,1
.LBE2252:
.LBE2256:
.LBB2257:
.LBB2248:
	.loc 3 157 0
	stw 0,12(1)
.LBE2248:
.LBE2257:
.LBB2258:
.LBB2253:
	.loc 3 284 0
	li 5,8
.LBE2253:
.LBE2258:
.LBB2259:
.LBB2249:
	.loc 3 158 0
	li 0,16384
	addi 31,1,40
	stw 0,16(1)
.LVL676:
.LBE2249:
.LBE2259:
.LBB2260:
.LBB2254:
	.loc 3 284 0
	bl _ZN8idBitMsg9WriteBitsEii
.LVL677:
.LBE2254:
.LBE2260:
	.loc 2 1989 0
	mr 3,29
	mr 4,30
	mr 5,28
	addi 31,1,40
	bl _ZN13idAsyncServer19SendReliableMessageEiRK8idBitMsg
	.loc 2 1991 0
	slwi 27,27,2
	li 0,3
	add 29,29,27
.LVL678:
	stw 0,5956(29)
	b .L349
.LVL679:
.L337:
	.loc 2 1995 0
	addi 31,1,40
	lwz 8,5948(9)
	mr 3,29
	mr 4,30
	li 5,0
	mr 6,28
	mr 7,31
	bl _ZN13idAsyncServer21VerifyChecksumMessageEiPK8netadr_tRK8idBitMsgR5idStri
	cmpwi 7,3,0
	bne- 7,.L338
.LVL680:
	.loc 2 1996 0
	lwz 5,4(31)
	mr 3,29
	mr 4,30
	bl _ZN13idAsyncServer10DropClientEiPKc
	b .L341
.LVL681:
.L338:
	.loc 2 1999 0
	lis 9,common@ha
	lis 4,.LC50@ha
	lwz 3,common@l(9)
	la 4,.LC50@l(4)
	mr 5,30
	lwz 9,0(3)
	lwz 0,76(9)
	mtctr 0
	crxor 6,6,6
	bctrl
.LEHE10:
	.loc 2 2000 0
	slwi 27,27,2
	li 0,3
	add 29,29,27
.LVL682:
.LBB2261:
.LBB2262:
.LBB2263:
	.loc 4 501 0
	mr 3,31
.LBE2263:
.LBE2262:
.LBE2261:
	.loc 2 2000 0
	stw 0,5956(29)
.LVL683:
.LEHB11:
.LBB2266:
.LBB2265:
.LBB2264:
	.loc 4 501 0
	bl _ZN5idStr8FreeDataEv
.LEHE11:
	b .L334
.LVL684:
.L347:
	mr 30,3
.LVL685:
	addi 31,1,40
.L345:
.LVL686:
.LBE2264:
.LBE2265:
.LBE2266:
.LBB2267:
.LBB2268:
.LBB2269:
	mr 3,31
	bl _ZN5idStr8FreeDataEv
	mr 3,30
.LEHB12:
	bl _Unwind_Resume
.LEHE12:
.LVL687:
.L348:
	mr 30,3
.LVL688:
	b .L345
.LBE2269:
.LBE2268:
.LBE2267:
.LBE2272:
	.cfi_endproc
.LFE2609:
	.section	.gcc_except_table
.LLSDA2609:
	.byte	0xff
	.byte	0xff
	.byte	0x1
	.uleb128 .LLSDACSE2609-.LLSDACSB2609
.LLSDACSB2609:
	.uleb128 .LEHB7-.LFB2609
	.uleb128 .LEHE7-.LEHB7
	.uleb128 .L347-.LFB2609
	.uleb128 0
	.uleb128 .LEHB8-.LFB2609
	.uleb128 .LEHE8-.LEHB8
	.uleb128 .L348-.LFB2609
	.uleb128 0
	.uleb128 .LEHB9-.LFB2609
	.uleb128 .LEHE9-.LEHB9
	.uleb128 0
	.uleb128 0
	.uleb128 .LEHB10-.LFB2609
	.uleb128 .LEHE10-.LEHB10
	.uleb128 .L348-.LFB2609
	.uleb128 0
	.uleb128 .LEHB11-.LFB2609
	.uleb128 .LEHE11-.LEHB11
	.uleb128 0
	.uleb128 0
	.uleb128 .LEHB12-.LFB2609
	.uleb128 .LEHE12-.LEHB12
	.uleb128 0
	.uleb128 0
.LLSDACSE2609:
	.section	".text"
	.size	_ZN13idAsyncServer19ProcessReliablePureEiRK8idBitMsg, .-_ZN13idAsyncServer19ProcessReliablePureEiRK8idBitMsg
	.align 2
	.globl _ZN13idAsyncServer21ProcessGetInfoMessageE8netadr_tRK8idBitMsg
	.type	_ZN13idAsyncServer21ProcessGetInfoMessageE8netadr_tRK8idBitMsg, @function
_ZN13idAsyncServer21ProcessGetInfoMessageE8netadr_tRK8idBitMsg:
.LFB2613:
	.loc 2 2066 0
	.cfi_startproc
.LVL689:
	stwu 1,-16480(1)
.LCFI109:
	.cfi_def_cfa_offset 16480
	mflr 0
	stw 30,16472(1)
	mr 30,3
	.cfi_offset 30, -8
	.cfi_register 65, 0
.LBB2304:
	.loc 2 2068 0
	addi 3,1,8
.LVL690:
.LBE2304:
	.loc 2 2066 0
	stw 0,16484(1)
	stw 29,16468(1)
	mr 29,4
	.cfi_offset 29, -12
	.cfi_offset 65, 4
	stw 31,16476(1)
	mr 31,5
	.cfi_offset 31, -4
	stw 25,16452(1)
	stw 26,16456(1)
	stw 27,16460(1)
	stw 28,16464(1)
.LBB2354:
	.loc 2 2068 0
	.cfi_offset 28, -16
	.cfi_offset 27, -20
	.cfi_offset 26, -24
	.cfi_offset 25, -28
	bl _ZN8idBitMsgC1Ev
.LVL691:
	.loc 2 2071 0
	lbz 0,0(30)
	cmpwi 7,0,0
	bne- 7,.L358
.LBE2354:
	.loc 2 2102 0
	lwz 0,16484(1)
	lwz 25,16452(1)
	mtlr 0
	lwz 26,16456(1)
	lwz 27,16460(1)
	lwz 28,16464(1)
	lwz 29,16468(1)
	lwz 30,16472(1)
.LVL692:
	lwz 31,16476(1)
.LVL693:
	addi 1,1,16480
	.cfi_remember_state
.LCFI110:
	.cfi_def_cfa_offset 0
	.cfi_restore 31
	.cfi_restore 30
	.cfi_restore 29
	.cfi_restore 28
	.cfi_restore 27
	.cfi_restore 26
	.cfi_restore 25
	blr
.LVL694:
.L358:
.LCFI111:
	.cfi_restore_state
.LBB2355:
	.loc 2 2075 0
	lis 9,common@ha
	lwz 11,0(29)
	lwz 28,common@l(9)
	addi 3,1,16432
	lwz 9,4(29)
.LBB2305:
.LBB2306:
.LBB2307:
.LBB2308:
	.loc 9 245 0
	lis 26,.LC51@ha
.LBE2308:
.LBE2307:
.LBE2306:
.LBE2305:
	.loc 2 2075 0
	lwz 10,0(28)
	lwz 0,8(29)
	lwz 27,76(10)
	stw 11,16432(1)
	stw 9,16436(1)
	stw 0,16440(1)
	bl _Z18Sys_NetAdrToString8netadr_t
	lis 4,.LC52@ha
	mtctr 27
	mr 5,3
	la 4,.LC52@l(4)
	mr 3,28
	.loc 2 2084 0
	lis 27,sessLocal+48@ha
	la 27,sessLocal+48@l(27)
.LBB2327:
.LBB2324:
.LBB2314:
.LBB2310:
	.loc 9 241 0
	lis 28,.LC10@ha
	la 28,.LC10@l(28)
.LBE2310:
.LBE2314:
.LBE2324:
.LBE2327:
	.loc 2 2075 0
	crxor 6,6,6
	bctrl
.LVL695:
.LBB2328:
.LBB2329:
	.loc 3 376 0
	mr 3,31
	li 4,32
	bl _ZNK8idBitMsg8ReadBitsEi
.LBE2329:
.LBE2328:
.LBB2331:
.LBB2332:
	.loc 3 156 0
	addi 0,1,40
.LBE2332:
.LBE2331:
.LBB2334:
.LBB2330:
	.loc 3 376 0
	mr 31,3
.LVL696:
.LBE2330:
.LBE2334:
.LBB2335:
.LBB2336:
	.loc 3 288 0
	li 4,-1
	addi 3,1,8
.LVL697:
	li 5,-16
.LBE2336:
.LBE2335:
.LBB2338:
.LBB2333:
	.loc 3 156 0
	stw 0,8(1)
	.loc 3 157 0
	stw 0,12(1)
	.loc 3 158 0
	li 0,16384
.LVL698:
	stw 0,16(1)
.LVL699:
.LBE2333:
.LBE2338:
.LBB2339:
.LBB2337:
	.loc 3 288 0
	bl _ZN8idBitMsg9WriteBitsEii
.LVL700:
.LBE2337:
.LBE2339:
	.loc 2 2081 0
	lis 4,.LC53@ha
	li 6,1
	li 5,-1
	addi 3,1,8
.LVL701:
	la 4,.LC53@l(4)
	bl _ZN8idBitMsg11WriteStringEPKcib
.LVL702:
.LBB2340:
.LBB2341:
	.loc 3 296 0
	mr 4,31
	addi 3,1,8
.LVL703:
	li 5,32
	bl _ZN8idBitMsg9WriteBitsEii
.LVL704:
.LBE2341:
.LBE2340:
.LBB2342:
.LBB2343:
	lis 4,0x1
	addi 3,1,8
.LVL705:
	ori 4,4,41
	li 5,32
.LBE2343:
.LBE2342:
	.loc 2 2084 0
	li 31,0
.LVL706:
.LBB2345:
.LBB2344:
	.loc 3 296 0
	bl _ZN8idBitMsg9WriteBitsEii
.LVL707:
.LBE2344:
.LBE2345:
	.loc 2 2084 0
	mr 4,27
	addi 3,1,8
.LVL708:
	li 5,0
	bl _ZN8idBitMsg14WriteDeltaDictERK6idDictPS1_
.LVL709:
.LBB2346:
.LBB2325:
	.loc 2 2096 0
	addi 27,27,-48
.LVL710:
.L354:
	.loc 2 2087 0
	slwi 0,31,2
	slwi 9,31,8
	subf 0,0,9
	add 0,0,31
	slwi 25,0,6
	add 25,0,25
	slwi 25,25,2
	add 25,30,25
.LVL711:
	.loc 2 2089 0
	lwz 0,5956(25)
	.loc 2 2087 0
	addi 25,25,5948
.LVL712:
	.loc 2 2089 0
	cmpwi 7,0,2
	bgt- 7,.L359
.L352:
.LVL713:
.LBE2325:
	.loc 2 2086 0
	cmpwi 7,31,3
	addi 31,31,1
.LVL714:
	bne+ 7,.L354
.LVL715:
.LBE2346:
.LBB2347:
.LBB2348:
	.loc 3 284 0
	li 5,8
	addi 3,1,8
.LVL716:
	li 4,4
	bl _ZN8idBitMsg9WriteBitsEii
.LVL717:
.LBE2348:
.LBE2347:
	.loc 2 2099 0
	lis 9,fileSystem@ha
	lwz 3,fileSystem@l(9)
	lwz 9,0(3)
	lwz 0,92(9)
	mtctr 0
	bctrl
.LBB2349:
.LBB2350:
	.loc 3 296 0
	li 5,32
.LBE2350:
.LBE2349:
	.loc 2 2099 0
	mr 4,3
.LVL718:
.LBB2352:
.LBB2351:
	.loc 3 296 0
	addi 3,1,8
.LVL719:
	bl _ZN8idBitMsg9WriteBitsEii
.LVL720:
.LBE2351:
.LBE2352:
	.loc 2 2101 0
	lwz 0,8(29)
	lwz 11,0(29)
	addi 3,30,12
	lwz 9,4(29)
	addi 4,1,16432
	lwz 5,8(1)
	lwz 6,20(1)
	stw 0,16440(1)
	stw 11,16432(1)
	stw 9,16436(1)
	bl _ZN6idPort10SendPacketE8netadr_tPKvi
.LBE2355:
	.loc 2 2102 0
	lwz 0,16484(1)
	lwz 25,16452(1)
.LVL721:
	mtlr 0
	lwz 26,16456(1)
	lwz 27,16460(1)
	lwz 28,16464(1)
	lwz 29,16468(1)
	lwz 30,16472(1)
.LVL722:
	lwz 31,16476(1)
.LVL723:
	addi 1,1,16480
	.cfi_remember_state
	.cfi_restore 25
	.cfi_restore 26
	.cfi_restore 27
	.cfi_restore 28
	.cfi_restore 29
	.cfi_restore 30
	.cfi_restore 31
.LCFI112:
	.cfi_def_cfa_offset 0
	blr
.LVL724:
.L359:
.LCFI113:
	.cfi_restore_state
.LBB2356:
.LBB2353:
.LBB2326:
.LBB2315:
.LBB2316:
	.loc 3 284 0
	mr 4,31
	addi 3,1,8
.LVL725:
	li 5,8
	bl _ZN8idBitMsg9WriteBitsEii
.LVL726:
.LBE2316:
.LBE2315:
.LBB2317:
.LBB2318:
	.loc 3 288 0
	lwz 4,24(25)
	addi 3,1,8
.LVL727:
	li 5,-16
	bl _ZN8idBitMsg9WriteBitsEii
.LVL728:
.LBE2318:
.LBE2317:
.LBB2319:
.LBB2320:
	.loc 3 296 0
	lwz 4,56(25)
	addi 3,1,8
.LVL729:
	li 5,32
	bl _ZN8idBitMsg9WriteBitsEii
.LVL730:
.LBE2320:
.LBE2319:
	.loc 2 2096 0
	mulli 3,31,44
.LBB2321:
.LBB2311:
	.loc 9 241 0
	mr 4,28
.LBE2311:
.LBE2321:
	.loc 2 2096 0
	add 3,27,3
.LBB2322:
.LBB2312:
	.loc 9 241 0
	addi 3,3,136
	bl _ZNK6idDict7FindKeyEPKc
.LVL731:
	.loc 9 242 0
	cmpwi 0,3,0
	beq- 0,.L356
.LVL732:
.LBB2309:
	.loc 2 2829 0
	lwz 9,4(3)
	lwz 4,4(9)
.LVL733:
.L353:
.LBE2309:
.LBE2312:
.LBE2322:
	.loc 2 2096 0
	addi 3,1,8
.LVL734:
	li 5,-1
	li 6,1
	bl _ZN8idBitMsg11WriteStringEPKcib
.LVL735:
	b .L352
.LVL736:
.L356:
.LBB2323:
.LBB2313:
	.loc 9 245 0
	la 4,.LC51@l(26)
	b .L353
.LBE2313:
.LBE2323:
.LBE2326:
.LBE2353:
.LBE2356:
	.cfi_endproc
.LFE2613:
	.size	_ZN13idAsyncServer21ProcessGetInfoMessageE8netadr_tRK8idBitMsg, .-_ZN13idAsyncServer21ProcessGetInfoMessageE8netadr_tRK8idBitMsg
	.align 2
	.globl _ZN13idAsyncServer20PrintLocalServerInfoEv
	.type	_ZN13idAsyncServer20PrintLocalServerInfoEv, @function
_ZN13idAsyncServer20PrintLocalServerInfoEv:
.LFB2614:
	.loc 2 2110 0
	.cfi_startproc
.LVL737:
	stwu 1,-88(1)
.LCFI114:
	.cfi_def_cfa_offset 88
	mflr 0
.LBB2372:
.LBB2373:
.LBB2374:
	.loc 9 241 0
	lis 4,.LC54@ha
.LBE2374:
.LBE2373:
.LBE2372:
	.loc 2 2110 0
	stw 29,76(1)
.LBB2423:
	.loc 2 2118 0
	lis 29,common@ha
	.cfi_offset 29, -12
	.cfi_register 65, 0
.LBE2423:
	.loc 2 2110 0
	stw 28,72(1)
.LBB2424:
.LBB2382:
.LBB2376:
	.loc 9 241 0
	la 4,.LC54@l(4)
.LBE2376:
.LBE2382:
.LBE2424:
	.loc 2 2110 0
	stw 30,80(1)
.LBB2425:
.LBB2383:
.LBB2377:
	.loc 9 241 0
	lis 30,sessLocal+48@ha
	.cfi_offset 30, -8
	.cfi_offset 28, -16
.LBE2377:
.LBE2383:
.LBE2425:
	.loc 2 2110 0
	stw 31,84(1)
.LBB2426:
.LBB2384:
.LBB2378:
	.loc 9 241 0
	la 30,sessLocal+48@l(30)
.LBE2378:
.LBE2384:
.LBE2426:
	.loc 2 2110 0
	stw 0,92(1)
	mr 31,3
	.cfi_offset 65, 4
	.cfi_offset 31, -4
	stw 22,48(1)
.LBB2427:
.LBB2385:
.LBB2379:
	.loc 9 241 0
	mr 3,30
.LVL738:
.LBE2379:
.LBE2385:
.LBE2427:
	.loc 2 2110 0
	stw 23,52(1)
	stw 24,56(1)
	stw 25,60(1)
	stw 26,64(1)
	stw 27,68(1)
.LBB2428:
	.loc 2 2118 0
	lwz 28,common@l(29)
	lwz 9,0(28)
	lwz 26,68(9)
	.cfi_offset 27, -20
	.cfi_offset 26, -24
	.cfi_offset 25, -28
	.cfi_offset 24, -32
	.cfi_offset 23, -36
	.cfi_offset 22, -40
.LVL739:
.LBB2386:
.LBB2380:
	.loc 9 241 0
	bl _ZNK6idDict7FindKeyEPKc
.LVL740:
	.loc 9 242 0
	cmpwi 0,3,0
	beq- 0,.L365
.LVL741:
.LBB2375:
	.loc 2 2829 0
	lwz 9,4(3)
	lwz 23,4(9)
.LVL742:
.L361:
.LBE2375:
.LBE2380:
.LBE2386:
.LBB2387:
.LBB2388:
	.loc 5 468 0
	lwz 11,32(31)
.LBE2388:
.LBE2387:
	.loc 2 2118 0
	addi 3,1,32
.LVL743:
.LBB2393:
.LBB2389:
	.loc 5 468 0
	lwz 9,36(31)
.LBE2389:
.LBE2393:
.LBB2394:
.LBB2395:
	.loc 2 2127 0
	addi 27,30,-48
.LBE2395:
.LBE2394:
.LBB2415:
.LBB2390:
	.loc 5 468 0
	lwz 0,40(31)
.LBE2390:
.LBE2415:
.LBB2416:
.LBB2411:
.LBB2396:
.LBB2397:
	.loc 9 245 0
	lis 25,.LC51@ha
.LBE2397:
.LBE2396:
.LBE2411:
.LBE2416:
.LBB2417:
.LBB2391:
	.loc 5 468 0
	stw 11,8(1)
.LBE2391:
.LBE2417:
	.loc 2 2118 0
	stw 11,32(1)
.LBB2418:
.LBB2392:
	.loc 5 468 0
	stw 9,12(1)
	stw 0,16(1)
.LBE2392:
.LBE2418:
	.loc 2 2118 0
	stw 9,36(1)
	stw 0,40(1)
	bl _Z18Sys_NetAdrToString8netadr_t
	lis 9,fileSystem@ha
	mr 24,3
	lwz 3,fileSystem@l(9)
	lwz 9,0(3)
	lwz 0,92(9)
	mtctr 0
	bctrl
	lis 4,.LC55@ha
	mr 9,3
	mr 6,24
	mtctr 26
	la 4,.LC55@l(4)
	mr 5,23
	li 7,1
	li 8,41
	mr 3,28
.LBB2419:
.LBB2412:
.LBB2405:
.LBB2399:
	.loc 9 241 0
	lis 24,.LC10@ha
.LBE2399:
.LBE2405:
	.loc 2 2127 0
	lis 26,.LC56@ha
.LBB2406:
.LBB2400:
	.loc 9 241 0
	la 24,.LC10@l(24)
.LBE2400:
.LBE2406:
	.loc 2 2127 0
	la 26,.LC56@l(26)
.LBE2412:
.LBE2419:
	.loc 2 2118 0
	crxor 6,6,6
	bctrl
	.loc 2 2119 0
	mr 3,30
	bl _ZNK6idDict5PrintEv
.LVL744:
	.loc 2 2120 0
	li 30,0
.LVL745:
.L364:
.LBB2420:
.LBB2413:
	.loc 2 2121 0
	slwi 0,30,2
	slwi 9,30,8
	subf 0,0,9
	add 0,0,30
	slwi 23,0,6
	add 23,0,23
	slwi 23,23,2
	add 23,31,23
	addi 23,23,5948
.LVL746:
	.loc 2 2122 0
	lwz 0,8(23)
	cmpwi 7,0,2
	bgt- 7,.L368
.L362:
.LVL747:
.LBE2413:
	.loc 2 2120 0
	cmpwi 7,30,3
	addi 30,30,1
.LVL748:
	bne+ 7,.L364
.LBE2420:
.LBE2428:
	.loc 2 2129 0
	lwz 0,92(1)
	lwz 22,48(1)
	mtlr 0
	lwz 23,52(1)
.LVL749:
	lwz 24,56(1)
	lwz 25,60(1)
	lwz 26,64(1)
	lwz 27,68(1)
	lwz 28,72(1)
	lwz 29,76(1)
	lwz 30,80(1)
.LVL750:
	lwz 31,84(1)
.LVL751:
	addi 1,1,88
	.cfi_remember_state
.LCFI115:
	.cfi_def_cfa_offset 0
	.cfi_restore 31
	.cfi_restore 30
	.cfi_restore 29
	.cfi_restore 28
	.cfi_restore 27
	.cfi_restore 26
	.cfi_restore 25
	.cfi_restore 24
	.cfi_restore 23
	.cfi_restore 22
	blr
.LVL752:
.L368:
.LCFI116:
	.cfi_restore_state
.LBB2429:
.LBB2421:
.LBB2414:
	.loc 2 2127 0
	lwz 22,common@l(29)
	mulli 3,30,44
.LBB2407:
.LBB2401:
	.loc 9 241 0
	mr 4,24
.LBE2401:
.LBE2407:
	.loc 2 2127 0
	lwz 9,0(22)
	add 3,27,3
.LBB2408:
.LBB2402:
	.loc 9 241 0
	addi 3,3,136
.LBE2402:
.LBE2408:
	.loc 2 2127 0
	lwz 28,68(9)
.LVL753:
.LBB2409:
.LBB2403:
	.loc 9 241 0
	bl _ZNK6idDict7FindKeyEPKc
.LVL754:
	.loc 9 242 0
	cmpwi 0,3,0
	beq- 0,.L366
.LVL755:
.LBB2398:
	.loc 2 2829 0
	lwz 9,4(3)
	lwz 6,4(9)
.LVL756:
.L363:
.LBE2398:
.LBE2403:
.LBE2409:
	.loc 2 2127 0
	mr 5,30
	mr 3,22
.LVL757:
	mr 4,26
	lwz 7,24(23)
	lwz 8,56(23)
	mtctr 28
	crxor 6,6,6
	bctrl
	b .L362
.LVL758:
.L366:
.LBB2410:
.LBB2404:
	.loc 9 245 0
	la 6,.LC51@l(25)
	b .L363
.LVL759:
.L365:
.LBE2404:
.LBE2410:
.LBE2414:
.LBE2421:
.LBB2422:
.LBB2381:
	lis 23,.LC8@ha
	la 23,.LC8@l(23)
	b .L361
.LBE2381:
.LBE2422:
.LBE2429:
	.cfi_endproc
.LFE2614:
	.size	_ZN13idAsyncServer20PrintLocalServerInfoEv, .-_ZN13idAsyncServer20PrintLocalServerInfoEv
	.align 2
	.globl _ZN13idAsyncServer23SendReliableGameMessageEiRK8idBitMsg
	.type	_ZN13idAsyncServer23SendReliableGameMessageEiRK8idBitMsg, @function
_ZN13idAsyncServer23SendReliableGameMessageEiRK8idBitMsg:
.LFB2617:
	.loc 2 2267 0
	.cfi_startproc
.LVL760:
	stwu 1,-16440(1)
.LCFI117:
	.cfi_def_cfa_offset 16440
	mflr 0
	stw 28,16424(1)
	mr 28,3
	.cfi_offset 28, -16
	.cfi_register 65, 0
.LBB2439:
	.loc 2 2269 0
	addi 3,1,8
.LVL761:
.LBE2439:
	.loc 2 2267 0
	stw 0,16444(1)
	stw 29,16428(1)
	mr 29,4
	.cfi_offset 29, -12
	.cfi_offset 65, 4
	stw 30,16432(1)
.LBB2448:
	.loc 2 2278 0
	mr 30,28
	.cfi_offset 30, -8
.LBE2448:
	.loc 2 2267 0
	stw 31,16436(1)
	.loc 2 2267 0
	mr 31,5
	.cfi_offset 31, -4
.LBB2449:
	.loc 2 2269 0
	bl _ZN8idBitMsgC1Ev
.LVL762:
.LBB2440:
.LBB2441:
	.loc 3 156 0
	addi 0,1,40
.LBE2441:
.LBE2440:
.LBB2443:
.LBB2444:
	.loc 3 284 0
	li 4,7
	li 5,8
	addi 3,1,8
.LVL763:
.LBE2444:
.LBE2443:
.LBB2446:
.LBB2442:
	.loc 3 156 0
	stw 0,8(1)
	.loc 3 157 0
	stw 0,12(1)
	.loc 3 158 0
	li 0,16384
	stw 0,16(1)
.LVL764:
.LBE2442:
.LBE2446:
.LBB2447:
.LBB2445:
	.loc 3 284 0
	bl _ZN8idBitMsg9WriteBitsEii
.LVL765:
.LBE2445:
.LBE2447:
	.loc 2 2274 0
	lwz 4,4(31)
	addi 3,1,8
.LVL766:
	lwz 5,12(31)
	.loc 2 2276 0
	li 31,0
.LVL767:
	.loc 2 2274 0
	bl _ZN8idBitMsg9WriteDataEPKvi
.LVL768:
	.loc 2 2276 0
	cmplwi 7,29,3
	bgt- 7,.L375
	.loc 2 2277 0
	slwi 9,29,8
	slwi 0,29,2
	subf 0,0,9
	add 0,0,29
	slwi 9,0,6
	add 9,0,9
	slwi 9,9,2
	add 9,28,9
	lwz 0,5956(9)
	cmpwi 7,0,4
	beq- 7,.L378
.L369:
.LBE2449:
	.loc 2 2289 0
	lwz 0,16444(1)
	lwz 28,16424(1)
.LVL769:
	mtlr 0
	lwz 29,16428(1)
.LVL770:
	lwz 30,16432(1)
	lwz 31,16436(1)
	addi 1,1,16440
	.cfi_remember_state
.LCFI118:
	.cfi_def_cfa_offset 0
	.cfi_restore 31
	.cfi_restore 30
	.cfi_restore 29
	.cfi_restore 28
	blr
.LVL771:
.L375:
.LCFI119:
	.cfi_restore_state
.LBB2450:
	.loc 2 2284 0
	lwz 0,5956(30)
	cmpwi 7,0,4
	beq- 7,.L379
.L372:
.LVL772:
	.loc 2 2283 0
	cmpwi 7,31,3
	addis 30,30,0x1
	addi 30,30,244
	addi 31,31,1
.LVL773:
	beq- 7,.L369
	.loc 2 2284 0
	lwz 0,5956(30)
	cmpwi 7,0,4
	bne+ 7,.L372
.LVL774:
.L379:
	.loc 2 2287 0
	mr 4,31
	mr 3,28
	addi 5,1,8
.LVL775:
	bl _ZN13idAsyncServer19SendReliableMessageEiRK8idBitMsg
.LVL776:
	b .L372
.L378:
	.loc 2 2278 0
	mr 3,28
	mr 4,29
	addi 5,1,8
.LVL777:
	bl _ZN13idAsyncServer19SendReliableMessageEiRK8idBitMsg
.LVL778:
	b .L369
.LBE2450:
	.cfi_endproc
.LFE2617:
	.size	_ZN13idAsyncServer23SendReliableGameMessageEiRK8idBitMsg, .-_ZN13idAsyncServer23SendReliableGameMessageEiRK8idBitMsg
	.align 2
	.globl _ZN13idAsyncServer32SendReliableGameMessageExcludingEiRK8idBitMsg
	.type	_ZN13idAsyncServer32SendReliableGameMessageExcludingEiRK8idBitMsg, @function
_ZN13idAsyncServer32SendReliableGameMessageExcludingEiRK8idBitMsg:
.LFB2618:
	.loc 2 2296 0
	.cfi_startproc
.LVL779:
	stwu 1,-16440(1)
.LCFI120:
	.cfi_def_cfa_offset 16440
	mflr 0
	stw 28,16424(1)
	mr 28,3
	.cfi_offset 28, -16
	.cfi_register 65, 0
.LBB2458:
	.loc 2 2298 0
	addi 3,1,8
.LVL780:
.LBE2458:
	.loc 2 2296 0
	stw 0,16444(1)
	stw 29,16428(1)
	mr 29,4
	.cfi_offset 29, -12
	.cfi_offset 65, 4
	stw 30,16432(1)
.LBB2467:
	.loc 2 2305 0
	mr 30,28
	.cfi_offset 30, -8
.LBE2467:
	.loc 2 2296 0
	stw 31,16436(1)
	.loc 2 2296 0
	mr 31,5
	.cfi_offset 31, -4
.LBB2468:
	.loc 2 2298 0
	bl _ZN8idBitMsgC1Ev
.LVL781:
.LBB2459:
.LBB2460:
	.loc 3 156 0
	addi 0,1,40
.LBE2460:
.LBE2459:
.LBB2462:
.LBB2463:
	.loc 3 284 0
	li 4,7
	li 5,8
	addi 3,1,8
.LVL782:
.LBE2463:
.LBE2462:
.LBB2465:
.LBB2461:
	.loc 3 156 0
	stw 0,8(1)
	.loc 3 157 0
	stw 0,12(1)
	.loc 3 158 0
	li 0,16384
	stw 0,16(1)
.LVL783:
.LBE2461:
.LBE2465:
.LBB2466:
.LBB2464:
	.loc 3 284 0
	bl _ZN8idBitMsg9WriteBitsEii
.LVL784:
.LBE2464:
.LBE2466:
	.loc 2 2305 0
	lwz 4,4(31)
	addi 3,1,8
.LVL785:
	lwz 5,12(31)
	li 31,0
.LVL786:
	bl _ZN8idBitMsg9WriteDataEPKvi
.LVL787:
.L382:
	.loc 2 2308 0
	cmpw 7,31,29
	beq- 7,.L381
	.loc 2 2311 0
	lwz 0,5956(30)
	cmpwi 7,0,4
	beq- 7,.L385
.L381:
.LVL788:
	.loc 2 2307 0
	cmpwi 7,31,3
	addis 30,30,0x1
	addi 30,30,244
	addi 31,31,1
.LVL789:
	bne+ 7,.L382
.LBE2468:
	.loc 2 2316 0
	lwz 0,16444(1)
	lwz 28,16424(1)
.LVL790:
	mtlr 0
	lwz 29,16428(1)
.LVL791:
	lwz 30,16432(1)
	lwz 31,16436(1)
.LVL792:
	addi 1,1,16440
	.cfi_remember_state
.LCFI121:
	.cfi_def_cfa_offset 0
	.cfi_restore 31
	.cfi_restore 30
	.cfi_restore 29
	.cfi_restore 28
	blr
.LVL793:
.L385:
.LCFI122:
	.cfi_restore_state
.LBB2469:
	.loc 2 2314 0
	mr 4,31
	mr 3,28
	addi 5,1,8
.LVL794:
	bl _ZN13idAsyncServer19SendReliableMessageEiRK8idBitMsg
.LVL795:
	b .L381
.LBE2469:
	.cfi_endproc
.LFE2618:
	.size	_ZN13idAsyncServer32SendReliableGameMessageExcludingEiRK8idBitMsg, .-_ZN13idAsyncServer32SendReliableGameMessageExcludingEiRK8idBitMsg
	.align 2
	.globl _ZN13idAsyncServer30LocalClientSendReliableMessageERK8idBitMsg
	.type	_ZN13idAsyncServer30LocalClientSendReliableMessageERK8idBitMsg, @function
_ZN13idAsyncServer30LocalClientSendReliableMessageERK8idBitMsg:
.LFB2619:
	.loc 2 2323 0
	.cfi_startproc
.LVL796:
	mflr 0
	stwu 1,-8(1)
.LCFI123:
	.cfi_def_cfa_offset 8
	.cfi_register 65, 0
	mr 5,4
	stw 0,12(1)
	.loc 2 2324 0
	lwz 0,56(3)
	.cfi_offset 65, 4
	cmpwi 7,0,0
	blt- 7,.L389
	.loc 2 2328 0
	lis 9,game@ha
	mr 4,0
.LVL797:
	lwz 3,game@l(9)
.LVL798:
	lwz 9,0(3)
	lwz 0,120(9)
	mtctr 0
	bctrl
.LVL799:
	.loc 2 2329 0
	lwz 0,12(1)
	addi 1,1,8
	.cfi_remember_state
.LCFI124:
	.cfi_def_cfa_offset 0
	mtlr 0
	blr
.LVL800:
.L389:
.LCFI125:
	.cfi_restore_state
	.loc 2 2325 0
	lis 9,common@ha
	lis 4,.LC57@ha
.LVL801:
	lwz 3,common@l(9)
.LVL802:
	la 4,.LC57@l(4)
	lwz 9,0(3)
	lwz 0,68(9)
	mtctr 0
	crxor 6,6,6
	bctrl
.LVL803:
	.loc 2 2329 0
	lwz 0,12(1)
	addi 1,1,8
.LCFI126:
	.cfi_def_cfa_offset 0
	mtlr 0
	blr
	.cfi_endproc
.LFE2619:
	.size	_ZN13idAsyncServer30LocalClientSendReliableMessageERK8idBitMsg, .-_ZN13idAsyncServer30LocalClientSendReliableMessageERK8idBitMsg
	.align 2
	.globl _ZN13idAsyncServer10UpdateTimeEi
	.type	_ZN13idAsyncServer10UpdateTimeEi, @function
_ZN13idAsyncServer10UpdateTimeEi:
.LFB2621:
	.loc 2 2362 0
	.cfi_startproc
.LVL804:
	stwu 1,-16(1)
.LCFI127:
	.cfi_def_cfa_offset 16
	mflr 0
	stw 31,12(1)
	mr 31,3
	.cfi_offset 31, -4
	.cfi_register 65, 0
	stw 0,20(1)
	stw 30,8(1)
	.loc 2 2362 0
	mr 30,4
	.cfi_offset 30, -8
	.cfi_offset 65, 4
.LBB2470:
	.loc 2 2365 0
	bl _Z16Sys_Millisecondsv
.LVL805:
	.loc 2 2366 0
	lwz 9,4(31)
.LVL806:
.LBB2471:
.LBB2472:
	.loc 10 885 0
	li 0,0
	.loc 10 884 0
	subf. 9,9,3
	blt- 0,.L391
	cmpw 7,9,30
	mr 0,9
	bgt- 7,.L394
.L391:
.LBE2472:
.LBE2471:
	.loc 2 2368 0
	lwz 9,8(31)
	.loc 2 2367 0
	stw 3,4(31)
.LBE2470:
	.loc 2 2370 0
	mr 3,0
.LVL807:
.LBB2475:
	.loc 2 2368 0
	add 9,9,0
	stw 9,8(31)
.LBE2475:
	.loc 2 2370 0
	lwz 0,20(1)
	lwz 30,8(1)
.LVL808:
	mtlr 0
	lwz 31,12(1)
.LVL809:
	addi 1,1,16
	.cfi_remember_state
.LCFI128:
	.cfi_def_cfa_offset 0
	.cfi_restore 31
	.cfi_restore 30
	blr
.LVL810:
.L394:
.LCFI129:
	.cfi_restore_state
.LBB2476:
	.loc 2 2368 0
	lwz 9,8(31)
.LBB2474:
.LBB2473:
	.loc 10 884 0
	mr 0,30
.LVL811:
.LBE2473:
.LBE2474:
	.loc 2 2367 0
	stw 3,4(31)
.LBE2476:
	.loc 2 2370 0
	mr 3,0
.LVL812:
.LBB2477:
	.loc 2 2368 0
	add 9,9,0
	stw 9,8(31)
.LBE2477:
	.loc 2 2370 0
	lwz 0,20(1)
	lwz 30,8(1)
.LVL813:
	mtlr 0
	lwz 31,12(1)
.LVL814:
	addi 1,1,16
	.cfi_restore 30
	.cfi_restore 31
.LCFI130:
	.cfi_def_cfa_offset 0
	blr
	.cfi_endproc
.LFE2621:
	.size	_ZN13idAsyncServer10UpdateTimeEi, .-_ZN13idAsyncServer10UpdateTimeEi
	.align 2
	.globl _ZN13idAsyncServer8PrintOOBE8netadr_tiPKc
	.type	_ZN13idAsyncServer8PrintOOBE8netadr_tiPKc, @function
_ZN13idAsyncServer8PrintOOBE8netadr_tiPKc:
.LFB2624:
	.loc 2 2578 0
	.cfi_startproc
.LVL815:
	stwu 1,-16464(1)
.LCFI131:
	.cfi_def_cfa_offset 16464
	mflr 0
	stw 30,16456(1)
	mr 30,3
	.cfi_offset 30, -8
	.cfi_register 65, 0
.LBB2487:
	.loc 2 2579 0
	addi 3,1,8
.LVL816:
.LBE2487:
	.loc 2 2578 0
	stw 0,16468(1)
	stw 28,16448(1)
	mr 28,5
	.cfi_offset 28, -16
	.cfi_offset 65, 4
	stw 29,16452(1)
	mr 29,6
	.cfi_offset 29, -12
	stw 31,16460(1)
	.loc 2 2578 0
	mr 31,4
	.cfi_offset 31, -4
.LBB2506:
	.loc 2 2579 0
	bl _ZN8idBitMsgC1Ev
.LVL817:
.LBB2488:
.LBB2489:
	.loc 3 156 0
	addi 0,1,40
.LBE2489:
.LBE2488:
.LBB2493:
.LBB2494:
	.loc 3 288 0
	addi 3,1,8
.LVL818:
.LBE2494:
.LBE2493:
.LBB2498:
.LBB2490:
	.loc 3 156 0
	stw 0,8(1)
	.loc 3 157 0
	stw 0,12(1)
.LBE2490:
.LBE2498:
.LBB2499:
.LBB2495:
	.loc 3 288 0
	li 4,-1
.LBE2495:
.LBE2499:
.LBB2500:
.LBB2491:
	.loc 3 158 0
	li 0,16384
.LBE2491:
.LBE2500:
.LBB2501:
.LBB2496:
	.loc 3 288 0
	li 5,-16
.LBE2496:
.LBE2501:
.LBB2502:
.LBB2492:
	.loc 3 158 0
	stw 0,16(1)
.LVL819:
.LBE2492:
.LBE2502:
.LBB2503:
.LBB2497:
	.loc 3 288 0
	bl _ZN8idBitMsg9WriteBitsEii
.LVL820:
.LBE2497:
.LBE2503:
	.loc 2 2584 0
	lis 4,.LC58@ha
	li 6,1
	addi 3,1,8
.LVL821:
	li 5,-1
	la 4,.LC58@l(4)
	bl _ZN8idBitMsg11WriteStringEPKcib
.LVL822:
.LBB2504:
.LBB2505:
	.loc 3 296 0
	addi 3,1,8
.LVL823:
	mr 4,28
	li 5,32
	bl _ZN8idBitMsg9WriteBitsEii
.LVL824:
.LBE2505:
.LBE2504:
	.loc 2 2586 0
	addi 3,1,8
.LVL825:
	mr 4,29
	li 5,-1
	li 6,1
	bl _ZN8idBitMsg11WriteStringEPKcib
.LVL826:
	.loc 2 2587 0
	lwz 0,8(31)
	lwz 11,0(31)
	addi 3,30,12
	lwz 9,4(31)
	addi 4,1,16432
	lwz 5,8(1)
	lwz 6,20(1)
	stw 0,16440(1)
	stw 11,16432(1)
	stw 9,16436(1)
	bl _ZN6idPort10SendPacketE8netadr_tPKvi
.LBE2506:
	.loc 2 2588 0
	lwz 0,16468(1)
	lwz 28,16448(1)
.LVL827:
	mtlr 0
	lwz 29,16452(1)
.LVL828:
	lwz 30,16456(1)
.LVL829:
	lwz 31,16460(1)
	addi 1,1,16464
.LCFI132:
	.cfi_def_cfa_offset 0
	.cfi_restore 31
	.cfi_restore 30
	.cfi_restore 29
	.cfi_restore 28
	blr
	.cfi_endproc
.LFE2624:
	.size	_ZN13idAsyncServer8PrintOOBE8netadr_tiPKc, .-_ZN13idAsyncServer8PrintOOBE8netadr_tiPKc
	.align 2
	.globl _ZN13idAsyncServer27ProcessRemoteConsoleMessageE8netadr_tRK8idBitMsg
	.type	_ZN13idAsyncServer27ProcessRemoteConsoleMessageE8netadr_tRK8idBitMsg, @function
_ZN13idAsyncServer27ProcessRemoteConsoleMessageE8netadr_tRK8idBitMsg:
.LFB2612:
	.loc 2 2027 0
	.cfi_startproc
.LVL830:
	stwu 1,-2072(1)
.LCFI133:
	.cfi_def_cfa_offset 2072
	mflr 0
	stw 30,2064(1)
.LBB2507:
.LBB2508:
.LBB2509:
	.loc 2 2032 0
	lis 30,_ZN14idAsyncNetwork27serverRemoteConsolePasswordE@ha
	.cfi_offset 30, -8
	.cfi_register 65, 0
.LBE2509:
.LBE2508:
.LBE2507:
	.loc 2 2027 0
	stw 29,2060(1)
.LBB2516:
.LBB2512:
.LBB2510:
	.loc 2 2032 0
	la 30,_ZN14idAsyncNetwork27serverRemoteConsolePasswordE@l(30)
.LBE2510:
.LBE2512:
.LBE2516:
	.loc 2 2027 0
	mr 29,3
	.cfi_offset 29, -12
.LBB2517:
	.loc 2 2028 0
	addi 3,1,8
.LVL831:
.LBE2517:
	.loc 2 2027 0
	stw 0,2076(1)
	stw 27,2052(1)
	mr 27,5
	.cfi_offset 27, -20
	.cfi_offset 65, 4
	stw 31,2068(1)
	mr 31,4
	.cfi_offset 31, -4
	stw 28,2056(1)
.LBB2518:
	.loc 2 2028 0
	.cfi_offset 28, -16
	bl _ZN8idBitMsgC1Ev
.LVL832:
.LBB2513:
.LBB2511:
	.loc 7 141 0
	lwz 9,44(30)
.LBE2511:
.LBE2513:
	.loc 2 2032 0
	lwz 9,8(9)
	lbz 0,0(9)
	cmpwi 7,0,0
	beq- 7,.L402
	.loc 2 2037 0
	addi 4,1,992
	li 5,1024
	mr 3,27
	bl _ZNK8idBitMsg10ReadStringEPci
.LBB2514:
.LBB2515:
	.loc 7 141 0
	lwz 9,44(30)
.LBE2515:
.LBE2514:
	.loc 2 2039 0
	addi 3,1,992
	lwz 4,8(9)
	bl _ZN5idStr4IcmpEPKcS1_
	cmpwi 7,3,0
	bne- 7,.L403
	.loc 2 2044 0
	addi 4,1,992
	li 5,1024
	.loc 2 2046 0
	lis 28,common@ha
	.loc 2 2044 0
	mr 3,27
	bl _ZNK8idBitMsg10ReadStringEPci
	.loc 2 2046 0
	lwz 30,common@l(28)
	lwz 11,0(31)
	addi 3,1,2032
	lwz 10,0(30)
	lwz 9,4(31)
	lwz 0,8(31)
	lwz 27,68(10)
.LVL833:
	stw 11,2032(1)
	stw 9,2036(1)
	stw 0,2040(1)
	bl _Z18Sys_NetAdrToString8netadr_t
	lis 4,.LC61@ha
	mr 5,3
	la 4,.LC61@l(4)
	mr 3,30
	addi 6,1,992
	mtctr 27
	.loc 2 2048 0
	addis 30,29,0x5
	.loc 2 2046 0
	crxor 6,6,6
	bctrl
	.loc 2 2048 0
	lwz 0,8(31)
	lwz 11,0(31)
	.loc 2 2050 0
	lis 6,_Z12RConRedirectPKc@ha
	.loc 2 2048 0
	lwz 9,4(31)
	.loc 2 2050 0
	la 6,_Z12RConRedirectPKc@l(6)
	.loc 2 2048 0
	stw 0,-25820(30)
	.loc 2 2049 0
	li 0,1
	.loc 2 2048 0
	stw 11,-25828(30)
	.loc 2 2050 0
	addi 4,1,40
	lwz 3,common@l(28)
	li 5,952
	.loc 2 2048 0
	stw 9,-25824(30)
	.loc 2 2049 0
	stb 0,-25807(30)
	.loc 2 2050 0
	lwz 9,0(3)
	lwz 0,56(9)
	mtctr 0
	bctrl
	.loc 2 2052 0
	lis 9,cmdSystem@ha
	lwz 3,cmdSystem@l(9)
	li 4,0
	addi 5,1,992
	lwz 9,0(3)
	lwz 0,36(9)
	mtctr 0
	bctrl
	.loc 2 2054 0
	lwz 3,common@l(28)
	lwz 9,0(3)
	lwz 0,60(9)
	mtctr 0
	bctrl
	.loc 2 2056 0
	lbz 0,-25807(30)
	cmpwi 7,0,0
	beq+ 7,.L397
	.loc 2 2057 0
	lwz 11,-25828(30)
	lis 6,.LC62@ha
	lwz 9,-25824(30)
	mr 3,29
	lwz 0,-25820(30)
	addi 4,1,2032
	li 5,2
	la 6,.LC62@l(6)
	stw 11,2032(1)
	stw 9,2036(1)
	stw 0,2040(1)
	bl _ZN13idAsyncServer8PrintOOBE8netadr_tiPKc
.L397:
.LBE2518:
	.loc 2 2059 0
	lwz 0,2076(1)
	lwz 27,2052(1)
	mtlr 0
	lwz 28,2056(1)
	lwz 29,2060(1)
.LVL834:
	lwz 30,2064(1)
.LVL835:
	lwz 31,2068(1)
	addi 1,1,2072
	.cfi_remember_state
.LCFI134:
	.cfi_def_cfa_offset 0
	.cfi_restore 31
	.cfi_restore 30
	.cfi_restore 29
	.cfi_restore 28
	.cfi_restore 27
	blr
.LVL836:
.L403:
.LCFI135:
	.cfi_restore_state
.LBB2519:
	.loc 2 2040 0
	lwz 0,8(31)
	lis 6,.LC60@ha
	lwz 11,0(31)
	mr 3,29
	lwz 9,4(31)
	addi 4,1,2032
	li 5,0
	la 6,.LC60@l(6)
	stw 0,2040(1)
	stw 11,2032(1)
	stw 9,2036(1)
	bl _ZN13idAsyncServer8PrintOOBE8netadr_tiPKc
.LBE2519:
	.loc 2 2059 0
	lwz 0,2076(1)
	lwz 27,2052(1)
.LVL837:
	mtlr 0
	lwz 28,2056(1)
	lwz 29,2060(1)
.LVL838:
	lwz 30,2064(1)
	lwz 31,2068(1)
	addi 1,1,2072
	.cfi_remember_state
	.cfi_restore 27
	.cfi_restore 28
	.cfi_restore 29
	.cfi_restore 30
	.cfi_restore 31
.LCFI136:
	.cfi_def_cfa_offset 0
	blr
.LVL839:
.L402:
.LCFI137:
	.cfi_restore_state
.LBB2520:
	.loc 2 2033 0
	lwz 0,8(31)
	lis 6,.LC59@ha
	lwz 11,0(31)
	mr 3,29
	lwz 9,4(31)
	addi 4,1,2032
	li 5,0
	la 6,.LC59@l(6)
	stw 0,2040(1)
	stw 11,2032(1)
	stw 9,2036(1)
	bl _ZN13idAsyncServer8PrintOOBE8netadr_tiPKc
.LBE2520:
	.loc 2 2059 0
	lwz 0,2076(1)
	lwz 27,2052(1)
.LVL840:
	mtlr 0
	lwz 28,2056(1)
	lwz 29,2060(1)
.LVL841:
	lwz 30,2064(1)
	lwz 31,2068(1)
	addi 1,1,2072
	.cfi_restore 27
	.cfi_restore 28
	.cfi_restore 29
	.cfi_restore 30
	.cfi_restore 31
.LCFI138:
	.cfi_def_cfa_offset 0
	blr
	.cfi_endproc
.LFE2612:
	.size	_ZN13idAsyncServer27ProcessRemoteConsoleMessageE8netadr_tRK8idBitMsg, .-_ZN13idAsyncServer27ProcessRemoteConsoleMessageE8netadr_tRK8idBitMsg
	.align 2
	.globl _ZN13idAsyncServer19RemoteConsoleOutputEPKc
	.type	_ZN13idAsyncServer19RemoteConsoleOutputEPKc, @function
_ZN13idAsyncServer19RemoteConsoleOutputEPKc:
.LFB2610:
	.loc 2 2008 0
	.cfi_startproc
.LVL842:
	mflr 0
	stwu 1,-32(1)
.LCFI139:
	.cfi_def_cfa_offset 32
	.cfi_register 65, 0
	.loc 2 2009 0
	addis 10,3,0x5
	.loc 2 2008 0
	mr 6,4
	.loc 2 2010 0
	li 5,2
	addi 4,1,16
.LVL843:
	.loc 2 2008 0
	stw 0,36(1)
	.loc 2 2009 0
	li 0,0
	.cfi_offset 65, 4
	stb 0,-25807(10)
	.loc 2 2010 0
	lwz 11,-25828(10)
	lwz 0,-25820(10)
	lwz 9,-25824(10)
	stw 0,24(1)
	stw 11,16(1)
	stw 9,20(1)
	bl _ZN13idAsyncServer8PrintOOBE8netadr_tiPKc
.LVL844:
	.loc 2 2011 0
	lwz 0,36(1)
	addi 1,1,32
.LCFI140:
	.cfi_def_cfa_offset 0
	mtlr 0
	blr
	.cfi_endproc
.LFE2610:
	.size	_ZN13idAsyncServer19RemoteConsoleOutputEPKc, .-_ZN13idAsyncServer19RemoteConsoleOutputEPKc
	.align 2
	.globl _Z12RConRedirectPKc
	.type	_Z12RConRedirectPKc, @function
_Z12RConRedirectPKc:
.LFB2611:
	.loc 2 2018 0
	.cfi_startproc
.LVL845:
	.loc 2 2018 0
	mr 4,3
	.loc 2 2019 0
	lis 3,_ZN14idAsyncNetwork6serverE@ha
.LVL846:
	la 3,_ZN14idAsyncNetwork6serverE@l(3)
	.loc 2 2020 0
	.loc 2 2019 0
	b _ZN13idAsyncServer19RemoteConsoleOutputEPKc
.LVL847:
	.cfi_endproc
.LFE2611:
	.size	_Z12RConRedirectPKc, .-_Z12RConRedirectPKc
	.align 2
	.globl _ZN13idAsyncServer17ValidateChallengeE8netadr_tii
	.type	_ZN13idAsyncServer17ValidateChallengeE8netadr_tii, @function
_ZN13idAsyncServer17ValidateChallengeE8netadr_tii:
.LFB2605:
	.loc 2 1640 0
	.cfi_startproc
.LVL848:
	mflr 0
	stwu 1,-112(1)
.LCFI141:
	.cfi_def_cfa_offset 112
	.cfi_register 65, 0
	stw 25,84(1)
	mr 25,6
	.cfi_offset 25, -28
	stw 27,92(1)
	.loc 2 1642 0
	li 27,0
	.cfi_offset 27, -20
	.loc 2 1640 0
	stw 28,96(1)
	mr 28,5
	.cfi_offset 28, -16
	stw 29,100(1)
	mr 29,3
	.cfi_offset 29, -12
	stw 31,108(1)
	mr 31,4
	.cfi_offset 31, -4
	stw 0,116(1)
	stw 26,88(1)
	stw 30,104(1)
.LBB2521:
	.loc 2 1667 0
	lhz 30,8(4)
	.cfi_offset 30, -8
	.cfi_offset 26, -24
	.cfi_offset 65, 4
.LVL849:
.L412:
.LBB2522:
.LBB2523:
	.loc 2 1643 0
	slwi 0,27,2
	slwi 9,27,8
	subf 0,0,9
	add 0,0,27
	slwi 26,0,6
	add 26,0,26
	slwi 26,26,2
	add 26,29,26
	addi 26,26,5948
.LVL850:
	.loc 2 1645 0
	lwz 0,8(26)
	cmpwi 7,0,0
	bne- 7,.L419
.L407:
.LVL851:
.LBE2523:
	.loc 2 1642 0
	cmpwi 7,27,3
	addi 27,27,1
.LVL852:
	bne+ 7,.L412
.LVL853:
.L413:
.LBB2532:
	.loc 2 1640 0 discriminator 1
	addi 26,29,76
.LBE2532:
.LBE2522:
.LBE2521:
	li 27,0
	b .L410
.LVL854:
.L414:
.LBB2536:
	.loc 2 1658 0
	addi 26,26,92
	addi 27,27,1
.LVL855:
	beq- 6,.L420
.LVL856:
.L410:
.LBB2534:
	.loc 2 1659 0
	sth 30,8(31)
.LBE2534:
	mulli 10,27,92
	lwz 11,0(31)
	addi 3,1,32
	lwz 9,4(31)
	add 10,29,10
	lwz 0,8(31)
	addi 4,1,64
	stw 11,32(1)
	stw 9,36(1)
	stw 0,40(1)
	lwz 11,60(10)
	lwz 9,64(10)
	lwz 0,68(10)
	stw 11,64(1)
	stw 9,68(1)
	stw 0,72(1)
	bl _Z21Sys_CompareNetAdrBase8netadr_tS_
	cmpwi 7,3,0
	.loc 2 1658 0
	cmpwi 6,27,63
	.loc 2 1659 0
	beq- 7,.L414
	.loc 2 1659 0 is_stmt 0 discriminator 1
	lhz 0,-8(26)
	cmpw 7,0,30
	bne+ 7,.L414
	.loc 2 1660 0 is_stmt 1 discriminator 4
	lwz 0,0(26)
	cmpw 7,0,28
	bne+ 7,.L414
.LVL857:
.L411:
.LBE2536:
	.loc 2 1670 0
	lwz 0,116(1)
	mr 3,27
	lwz 25,84(1)
.LVL858:
	mtlr 0
	lwz 26,88(1)
	lwz 27,92(1)
	lwz 28,96(1)
.LVL859:
	lwz 29,100(1)
.LVL860:
	lwz 30,104(1)
	lwz 31,108(1)
	addi 1,1,112
	.cfi_remember_state
.LCFI142:
	.cfi_def_cfa_offset 0
	.cfi_restore 31
	.cfi_restore 30
	.cfi_restore 29
	.cfi_restore 28
	.cfi_restore 27
	.cfi_restore 26
	.cfi_restore 25
	blr
.LVL861:
.L419:
.LCFI143:
	.cfi_restore_state
.LBB2537:
.LBB2535:
.LBB2533:
.LBB2524:
.LBB2525:
	.loc 2 1648 0
	sth 30,8(31)
.LBE2525:
.LBE2524:
	addi 3,1,32
.LBB2529:
.LBB2526:
	.loc 8 103 0
	lwz 11,40(26)
.LBE2526:
.LBE2529:
	.loc 2 1648 0
	addi 4,1,48
.LBB2530:
.LBB2527:
	.loc 8 103 0
	lwz 9,44(26)
	lwz 0,48(26)
.LBE2527:
.LBE2530:
	.loc 2 1648 0
	lwz 7,0(31)
	lwz 8,4(31)
	lwz 10,8(31)
.LBB2531:
.LBB2528:
	.loc 8 103 0
	stw 11,8(1)
	stw 9,12(1)
	stw 0,16(1)
.LBE2528:
.LBE2531:
	.loc 2 1648 0
	stw 7,32(1)
	stw 8,36(1)
	stw 10,40(1)
	stw 11,48(1)
	stw 9,52(1)
	stw 0,56(1)
	bl _Z21Sys_CompareNetAdrBase8netadr_tS_
	cmpwi 7,3,0
	beq- 7,.L407
	.loc 2 1648 0 is_stmt 0 discriminator 1
	lwz 0,4(26)
	cmpw 7,0,25
	beq- 7,.L408
.LVL862:
	.loc 2 1648 0 discriminator 4
	lhz 0,48(26)
	cmpw 7,0,30
	bne+ 7,.L407
.LVL863:
.L408:
	.loc 2 1650 0 is_stmt 1
	addis 26,26,0x1
.LVL864:
	lwz 9,8(29)
	lwz 0,196(26)
	subf 0,0,9
	cmpwi 7,0,1999
	bgt+ 7,.L413
	.loc 2 1651 0
	lis 9,common@ha
	lwz 11,0(31)
	lwz 30,common@l(9)
.LVL865:
	addi 3,1,32
	lwz 9,4(31)
	.loc 2 1652 0
	li 27,-1
	.loc 2 1651 0
	lwz 10,0(30)
	lwz 0,8(31)
	lwz 31,68(10)
	stw 11,32(1)
	stw 9,36(1)
	stw 0,40(1)
	bl _Z18Sys_NetAdrToString8netadr_t
	lis 4,.LC63@ha
	mr 5,3
	la 4,.LC63@l(4)
	mr 3,30
	mtctr 31
	crxor 6,6,6
	bctrl
	.loc 2 1652 0
	b .L411
.LVL866:
.L420:
.LBE2533:
.LBE2535:
	.loc 2 1666 0
	lwz 0,8(31)
	lis 6,.LC64@ha
	lwz 11,0(31)
	mr 3,29
	lwz 9,4(31)
	addi 4,1,32
	li 5,4
	la 6,.LC64@l(6)
	stw 0,40(1)
	.loc 2 1667 0
	li 27,-1
.LVL867:
	.loc 2 1666 0
	stw 11,32(1)
	stw 9,36(1)
	bl _ZN13idAsyncServer8PrintOOBE8netadr_tiPKc
.LBE2537:
	.loc 2 1670 0
	lwz 0,116(1)
	mr 3,27
	lwz 25,84(1)
.LVL868:
	mtlr 0
	lwz 26,88(1)
	lwz 27,92(1)
	lwz 28,96(1)
.LVL869:
	lwz 29,100(1)
.LVL870:
	lwz 30,104(1)
	lwz 31,108(1)
	addi 1,1,112
	.cfi_restore 25
	.cfi_restore 26
	.cfi_restore 27
	.cfi_restore 28
	.cfi_restore 29
	.cfi_restore 30
	.cfi_restore 31
.LCFI144:
	.cfi_def_cfa_offset 0
	blr
	.cfi_endproc
.LFE2605:
	.size	_ZN13idAsyncServer17ValidateChallengeE8netadr_tii, .-_ZN13idAsyncServer17ValidateChallengeE8netadr_tii
	.align 2
	.globl _ZN13idAsyncServer18ProcessPureMessageE8netadr_tRK8idBitMsg
	.type	_ZN13idAsyncServer18ProcessPureMessageE8netadr_tRK8idBitMsg, @function
_ZN13idAsyncServer18ProcessPureMessageE8netadr_tRK8idBitMsg:
.LFB2608:
	.loc 2 1942 0
	.cfi_startproc
	.cfi_personality 0,__gxx_personality_v0
	.cfi_lsda 0,.LLSDA2608
.LVL871:
	mflr 0
	stwu 1,-88(1)
.LCFI145:
	.cfi_def_cfa_offset 88
	.cfi_register 65, 0
.LVL872:
.LBB2556:
.LBB2557:
.LBB2558:
.LBB2559:
	.loc 4 357 0
	li 9,20
.LBE2559:
.LBE2558:
.LBE2557:
.LBE2556:
	.loc 2 1942 0
	stw 29,76(1)
	mr 29,3
	.cfi_offset 29, -12
	stw 0,92(1)
.LBB2591:
.LBB2568:
.LBB2569:
	.loc 3 376 0
	mr 3,5
.LVL873:
.LBE2569:
.LBE2568:
.LBB2572:
.LBB2564:
.LBB2560:
	.loc 4 356 0
	li 0,0
	.cfi_offset 65, 4
.LBE2560:
.LBE2564:
.LBE2572:
.LBE2591:
	.loc 2 1942 0
	stw 31,84(1)
.LBB2592:
.LBB2573:
.LBB2565:
.LBB2561:
	.loc 4 357 0
	stw 9,16(1)
.LBE2561:
.LBE2565:
.LBE2573:
.LBE2592:
	.loc 2 1942 0
	mr 31,4
	.cfi_offset 31, -4
.LBB2593:
.LBB2574:
.LBB2566:
.LBB2562:
	.loc 4 358 0
	addi 9,1,20
.LBE2562:
.LBE2566:
.LBE2574:
.LBB2575:
.LBB2570:
	.loc 3 376 0
	li 4,32
.LBE2570:
.LBE2575:
.LBE2593:
	.loc 2 1942 0
	stw 28,72(1)
	mr 28,5
	.cfi_offset 28, -16
	stw 30,80(1)
	addi 30,1,8
	.cfi_offset 30, -8
	stw 27,68(1)
.LBB2594:
.LBB2576:
.LBB2567:
.LBB2563:
	.loc 4 356 0
	stw 0,8(1)
	.loc 4 358 0
	stw 9,12(1)
	.loc 4 359 0
	stb 0,20(1)
.LVL874:
.LEHB13:
.LBE2563:
.LBE2567:
.LBE2576:
.LBB2577:
.LBB2571:
	.loc 3 376 0
	.cfi_offset 27, -20
	bl _ZNK8idBitMsg8ReadBitsEi
.LVL875:
	mr 27,3
.LVL876:
.LBE2571:
.LBE2577:
.LBB2578:
.LBB2579:
	.loc 3 368 0
	li 4,-16
	mr 3,28
	addi 30,1,8
	bl _ZNK8idBitMsg8ReadBitsEi
.LBE2579:
.LBE2578:
	.loc 2 1949 0
	lwz 11,0(31)
.LBB2581:
.LBB2580:
	.loc 3 368 0
	extsh 6,3
.LBE2580:
.LBE2581:
	.loc 2 1949 0
	lwz 9,4(31)
	mr 3,29
	lwz 0,8(31)
	addi 4,1,48
	mr 5,27
	stw 11,48(1)
	stw 9,52(1)
	addi 30,1,8
	stw 0,56(1)
	bl _ZN13idAsyncServer17ValidateChallengeE8netadr_tii
	cmpwi 7,3,-1
	mr 4,3
.LVL877:
	beq- 7,.L432
	.loc 2 1953 0
	mulli 27,3,92
	add 9,29,27
	lwz 0,92(9)
	cmpwi 7,0,3
	beq- 7,.L423
	.loc 2 1954 0
	lis 9,common@ha
	lwz 11,0(31)
	lwz 29,common@l(9)
.LVL878:
	addi 3,1,48
.LVL879:
	lwz 9,4(31)
	addi 30,1,8
	lwz 10,0(29)
	lwz 0,8(31)
	lwz 31,76(10)
	stw 11,48(1)
	stw 9,52(1)
	stw 0,56(1)
	bl _Z18Sys_NetAdrToString8netadr_t
.LVL880:
	lis 4,.LC65@ha
	mr 5,3
	la 4,.LC65@l(4)
	mr 3,29
	mtctr 31
	addi 30,1,8
	crxor 6,6,6
	bctrl
.LEHE13:
.LVL881:
.L432:
	addi 30,1,8
.L422:
.LVL882:
.LBB2582:
.LBB2583:
.LBB2584:
	.loc 4 501 0
	mr 3,30
.LEHB14:
	bl _ZN5idStr8FreeDataEv
.LEHE14:
.LBE2584:
.LBE2583:
.LBE2582:
.LBE2594:
	.loc 2 1965 0
	lwz 0,92(1)
	lwz 27,68(1)
	mtlr 0
	lwz 28,72(1)
.LVL883:
	lwz 29,76(1)
	lwz 30,80(1)
	lwz 31,84(1)
	addi 1,1,88
	.cfi_remember_state
.LCFI146:
	.cfi_def_cfa_offset 0
	.cfi_restore 31
	.cfi_restore 30
	.cfi_restore 29
	.cfi_restore 28
	.cfi_restore 27
	blr
.LVL884:
.L423:
.LCFI147:
	.cfi_restore_state
.LBB2595:
	.loc 2 1958 0
	addi 30,1,8
	lwz 8,148(9)
	mr 3,29
.LVL885:
	mr 5,31
	mr 6,28
	mr 7,30
.LEHB15:
	bl _ZN13idAsyncServer21VerifyChecksumMessageEiPK8netadr_tRK8idBitMsgR5idStri
.LVL886:
	cmpwi 7,3,0
	beq- 7,.L433
	.loc 2 1963 0
	lis 9,common@ha
	lwz 11,0(31)
	lwz 28,common@l(9)
.LVL887:
	addi 3,1,48
	lwz 9,4(31)
	lwz 10,0(28)
	lwz 0,8(31)
	lwz 31,76(10)
	stw 11,48(1)
	stw 9,52(1)
	stw 0,56(1)
	bl _Z18Sys_NetAdrToString8netadr_t
	lis 4,.LC66@ha
	mr 5,3
	la 4,.LC66@l(4)
	mr 3,28
	mtctr 31
	crxor 6,6,6
	bctrl
.LEHE15:
	.loc 2 1964 0
	add 29,29,27
.LVL888:
	li 0,4
	stw 0,92(29)
.LVL889:
.LBB2585:
.LBB2586:
.LBB2587:
	.loc 4 501 0
	mr 3,30
.LEHB16:
	bl _ZN5idStr8FreeDataEv
.LEHE16:
.LBE2587:
.LBE2586:
.LBE2585:
.LBE2595:
	.loc 2 1965 0
	lwz 0,92(1)
	lwz 27,68(1)
	mtlr 0
	lwz 28,72(1)
	lwz 29,76(1)
	lwz 30,80(1)
	lwz 31,84(1)
	addi 1,1,88
	.cfi_remember_state
	.cfi_restore 27
	.cfi_restore 28
	.cfi_restore 29
	.cfi_restore 30
	.cfi_restore 31
.LCFI148:
	.cfi_def_cfa_offset 0
	blr
.LVL890:
.L433:
.LCFI149:
	.cfi_restore_state
.LBB2596:
	.loc 2 1959 0
	lwz 11,0(31)
	mr 3,29
	lwz 9,4(31)
	addi 4,1,48
	lwz 0,8(31)
	li 5,0
	lwz 6,12(1)
	stw 11,48(1)
	stw 9,52(1)
	stw 0,56(1)
.LEHB17:
	bl _ZN13idAsyncServer8PrintOOBE8netadr_tiPKc
.LEHE17:
	b .L422
.LVL891:
.L429:
	mr 31,3
.LVL892:
.LBB2588:
.LBB2589:
.LBB2590:
	.loc 4 501 0
	mr 3,30
	bl _ZN5idStr8FreeDataEv
	mr 3,31
.LEHB18:
	bl _Unwind_Resume
.LEHE18:
.LBE2590:
.LBE2589:
.LBE2588:
.LBE2596:
	.cfi_endproc
.LFE2608:
	.section	.gcc_except_table
.LLSDA2608:
	.byte	0xff
	.byte	0xff
	.byte	0x1
	.uleb128 .LLSDACSE2608-.LLSDACSB2608
.LLSDACSB2608:
	.uleb128 .LEHB13-.LFB2608
	.uleb128 .LEHE13-.LEHB13
	.uleb128 .L429-.LFB2608
	.uleb128 0
	.uleb128 .LEHB14-.LFB2608
	.uleb128 .LEHE14-.LEHB14
	.uleb128 0
	.uleb128 0
	.uleb128 .LEHB15-.LFB2608
	.uleb128 .LEHE15-.LEHB15
	.uleb128 .L429-.LFB2608
	.uleb128 0
	.uleb128 .LEHB16-.LFB2608
	.uleb128 .LEHE16-.LEHB16
	.uleb128 0
	.uleb128 0
	.uleb128 .LEHB17-.LFB2608
	.uleb128 .LEHE17-.LEHB17
	.uleb128 .L429-.LFB2608
	.uleb128 0
	.uleb128 .LEHB18-.LFB2608
	.uleb128 .LEHE18-.LEHB18
	.uleb128 0
	.uleb128 0
.LLSDACSE2608:
	.section	".text"
	.size	_ZN13idAsyncServer18ProcessPureMessageE8netadr_tRK8idBitMsg, .-_ZN13idAsyncServer18ProcessPureMessageE8netadr_tRK8idBitMsg
	.align 2
	.globl _ZN13idAsyncServer21ProcessConnectMessageE8netadr_tRK8idBitMsg
	.type	_ZN13idAsyncServer21ProcessConnectMessageE8netadr_tRK8idBitMsg, @function
_ZN13idAsyncServer21ProcessConnectMessageE8netadr_tRK8idBitMsg:
.LFB2606:
	.loc 2 1677 0
	.cfi_startproc
.LVL893:
	lis 0,0xffff
	mr 12,1
	ori 0,0,31472
	stwux 1,1,0
.LCFI150:
	.cfi_def_cfa_offset 34064
	mflr 0
	stw 21,-44(12)
	stw 0,4(12)
	mfcr 0
	stw 22,-40(12)
	mr 21,5
	.cfi_offset 22, -40
	.cfi_register 70, 0
	.cfi_offset 21, -44
	.cfi_offset 65, 4
	stw 29,-12(12)
	stw 30,-8(12)
	mr 30,3
	.cfi_offset 30, -8
	.cfi_offset 29, -12
	stw 31,-4(12)
.LBB2684:
	.loc 2 1679 0
	addi 3,1,108
.LVL894:
.LBE2684:
	.loc 2 1677 0
	stw 0,-64(12)
	mr 31,4
	.cfi_offset 70, -64
	.cfi_offset 31, -4
	stw 17,-60(12)
	stw 18,-56(12)
	stw 19,-52(12)
	stw 20,-48(12)
	stw 23,-36(12)
	stw 24,-32(12)
	stw 25,-28(12)
	stw 26,-24(12)
	stw 27,-20(12)
	stw 28,-16(12)
.LBB2900:
	.loc 2 1679 0
	.cfi_offset 28, -16
	.cfi_offset 27, -20
	.cfi_offset 26, -24
	.cfi_offset 25, -28
	.cfi_offset 24, -32
	.cfi_offset 23, -36
	.cfi_offset 20, -48
	.cfi_offset 19, -52
	.cfi_offset 18, -56
	.cfi_offset 17, -60
	bl _ZN8idBitMsgC1Ev
.LVL895:
.LBB2685:
.LBB2686:
	.loc 3 376 0
	li 4,32
	mr 3,21
	bl _ZNK8idBitMsg8ReadBitsEi
.LBE2686:
.LBE2685:
.LBB2688:
.LBB2689:
	.loc 3 368 0
	li 4,-16
.LBE2689:
.LBE2688:
.LBB2693:
.LBB2687:
	.loc 3 376 0
	mr 29,3
.LVL896:
.LBE2687:
.LBE2693:
.LBB2694:
.LBB2690:
	.loc 3 368 0
	mr 3,21
	bl _ZNK8idBitMsg8ReadBitsEi
.LBE2690:
.LBE2694:
	.loc 2 1689 0
	xoris 0,29,0x1
	cmpwi 7,0,41
.LBB2695:
.LBB2691:
	.loc 3 368 0
	mr 22,3
.LBE2691:
.LBE2695:
	.loc 2 1689 0
	beq 7,.L435
	.loc 2 1691 0
	lis 3,.LC68@ha
	li 4,1
	li 5,41
	la 3,.LC68@l(3)
	crxor 6,6,6
	bl _Z2vaPKcz
	lwz 10,0(31)
	lwz 11,4(31)
	addis 9,1,0x1
	lwz 0,8(31)
	mr 6,3
	stw 10,-31584(9)
	mr 3,30
	stw 11,-31580(9)
	addi 4,9,-31584
	stw 0,-31576(9)
	li 5,1
	bl _ZN13idAsyncServer8PrintOOBE8netadr_tiPKc
.LVL897:
.L434:
.LBE2900:
	.loc 2 1882 0
	lwz 11,0(1)
	lwz 0,4(11)
	lwz 12,-64(11)
	mtlr 0
	lwz 17,-60(11)
	lwz 18,-56(11)
	mtcrf 24,12
	lwz 19,-52(11)
	lwz 20,-48(11)
	lwz 21,-44(11)
	lwz 22,-40(11)
	lwz 23,-36(11)
	lwz 24,-32(11)
	lwz 25,-28(11)
	lwz 26,-24(11)
	lwz 27,-20(11)
	lwz 28,-16(11)
	lwz 29,-12(11)
	lwz 30,-8(11)
.LVL898:
	lwz 31,-4(11)
	mr 1,11
	.cfi_remember_state
.LCFI151:
	.cfi_def_cfa_offset 0
	.cfi_restore 70
	.cfi_restore 31
	.cfi_restore 30
	.cfi_restore 29
	.cfi_restore 28
	.cfi_restore 27
	.cfi_restore 26
	.cfi_restore 25
	.cfi_restore 24
	.cfi_restore 23
	.cfi_restore 22
	.cfi_restore 21
	.cfi_restore 20
	.cfi_restore 19
	.cfi_restore 18
	.cfi_restore 17
	blr
.LVL899:
.L435:
.LCFI152:
	.cfi_restore_state
.LBB2901:
.LBB2696:
.LBB2697:
	.loc 3 376 0
	li 4,32
	mr 3,21
	bl _ZNK8idBitMsg8ReadBitsEi
.LBE2697:
.LBE2696:
.LBB2699:
.LBB2700:
	li 4,32
.LBE2700:
.LBE2699:
.LBB2703:
.LBB2698:
	mr 26,3
.LVL900:
.LBE2698:
.LBE2703:
.LBB2704:
.LBB2701:
	mr 3,21
	bl _ZNK8idBitMsg8ReadBitsEi
.LBE2701:
.LBE2704:
.LBB2705:
.LBB2706:
	.loc 3 368 0
	li 4,-16
.LBE2706:
.LBE2705:
.LBB2710:
.LBB2702:
	.loc 3 376 0
	mr 24,3
.LVL901:
.LBE2702:
.LBE2710:
.LBB2711:
.LBB2707:
	.loc 3 368 0
	mr 3,21
	bl _ZNK8idBitMsg8ReadBitsEi
.LBE2707:
.LBE2711:
.LBB2712:
.LBB2713:
.LBB2714:
.LBB2715:
	.loc 9 241 0
	lis 28,sessLocal+48@ha
.LBE2715:
.LBE2714:
.LBE2713:
.LBE2712:
.LBB2729:
.LBB2730:
	.loc 3 376 0
	li 4,32
.LBE2730:
.LBE2729:
.LBB2733:
.LBB2708:
	.loc 3 368 0
	mr 25,3
.LVL902:
.LBE2708:
.LBE2733:
.LBB2734:
.LBB2725:
.LBB2721:
.LBB2717:
	.loc 9 241 0
	lis 27,.LC69@ha
.LBE2717:
.LBE2721:
.LBE2725:
.LBE2734:
.LBB2735:
.LBB2731:
	.loc 3 376 0
	mr 3,21
	bl _ZNK8idBitMsg8ReadBitsEi
.LBE2731:
.LBE2735:
.LBB2736:
.LBB2726:
.LBB2722:
.LBB2718:
	.loc 9 241 0
	la 28,sessLocal+48@l(28)
	la 27,.LC69@l(27)
.LBE2718:
.LBE2722:
.LBE2726:
.LBE2736:
.LBB2737:
.LBB2732:
	.loc 3 376 0
	mr 23,3
.LVL903:
.LBE2732:
.LBE2737:
.LBB2738:
.LBB2727:
.LBB2723:
.LBB2719:
	.loc 9 241 0
	mr 4,27
	mr 3,28
	bl _ZNK6idDict7FindKeyEPKc
.LVL904:
	.loc 9 242 0
	cmpwi 0,3,0
	beq- 0,.L466
.LVL905:
.LBB2716:
	.loc 2 2829 0
	lwz 9,4(3)
	lwz 3,4(9)
.LVL906:
.L437:
.LBE2716:
.LBE2719:
.LBE2723:
	.loc 9 253 0
	bl atoi
.LBE2727:
.LBE2738:
	.loc 2 1701 0
	cmpwi 7,3,0
	bne- 7,.L438
	.loc 2 1701 0 is_stmt 0 discriminator 1
	lwz 0,52(30)
	cmpw 7,0,26
	beq- 7,.L438
	.loc 2 1702 0 is_stmt 1 discriminator 4
	lwz 10,0(31)
	addis 9,1,0x1
	lwz 11,4(31)
	lis 6,.LC70@ha
	lwz 0,8(31)
	mr 3,30
	stw 10,-31584(9)
	addi 4,9,-31584
	stw 11,-31580(9)
	li 5,0
	stw 0,-31576(9)
	la 6,.LC70@l(6)
	bl _ZN13idAsyncServer8PrintOOBE8netadr_tiPKc
	b .L434
.L438:
	.loc 2 1706 0
	lwz 11,0(31)
	addis 29,1,0x1
	lwz 9,4(31)
	li 4,0
	lwz 0,8(31)
.LBB2739:
.LBB2709:
	.loc 3 368 0
	extsh 25,25
.LBE2709:
.LBE2739:
	.loc 2 1706 0
	ori 4,4,33952
	stw 11,-31584(29)
	stw 9,-31580(29)
	mr 3,30
	stw 0,-31576(29)
	add 4,4,1
	mr 5,24
	mr 6,25
	bl _ZN13idAsyncServer17ValidateChallengeE8netadr_tii
.LVL907:
	cmpwi 7,3,-1
	beq- 7,.L434
	.loc 2 1709 0
	mulli 24,3,92
.LBB2740:
.LBB2692:
	.loc 3 368 0
	extsh 22,22
.LBE2692:
.LBE2740:
	.loc 2 1711 0
	mr 3,21
.LVL908:
	addi 4,1,44
	.loc 2 1709 0
	add 20,30,24
	.loc 2 1711 0
	li 5,12
	.loc 2 1709 0
	stw 22,148(20)
	.loc 2 1711 0
	bl _ZNK8idBitMsg10ReadStringEPci
.LBB2741:
	.loc 2 1713 0
	lwz 0,92(20)
	cmpwi 7,0,2
	beq- 7,.L441
	cmpwi 7,0,3
	beq- 7,.L442
	cmpwi 7,0,0
	bne- 7,.L439
.LBB2742:
	.loc 2 1722 0
	lwz 0,96(20)
	cmpwi 7,0,0
	bne- 7,.L443
	.loc 2 1722 0 is_stmt 0 discriminator 1
	addis 9,30,0x5
	lwz 0,8(30)
	lwz 9,-25804(9)
	lwz 11,80(20)
	subf 9,9,0
	subf 0,11,0
.LVL909:
	cmpw 7,0,9
	ble- 7,.L444
	mr 0,9
.L444:
	cmpwi 7,0,5000
	ble- 7,.L443
	.loc 2 1723 0 is_stmt 1 discriminator 4
	lis 9,common@ha
.LVL910:
	lwz 11,0(31)
	lwz 19,common@l(9)
	addi 8,1,8
	lwz 9,4(31)
	addis 3,8,0x1
	lwz 10,0(19)
	addi 3,3,-31592
	lwz 0,8(31)
	lwz 20,76(10)
	stw 11,-31584(29)
	stw 9,-31580(29)
	stw 0,-31576(29)
	bl _Z18Sys_NetAdrToString8netadr_t
	lis 4,.LC73@ha
	mr 5,3
	la 4,.LC73@l(4)
	mr 3,19
	mtctr 20
	crxor 6,6,6
	bctrl
.L439:
.LVL911:
	.loc 2 1772 0
	li 0,4
	.loc 2 1771 0
	li 20,0
	.loc 2 1772 0
	mtctr 0
	li 9,0
.LVL912:
.L448:
.LBE2742:
.LBE2741:
.LBB2789:
.LBB2790:
	.loc 2 1773 0
	slwi 11,9,8
	slwi 0,9,2
	subf 0,0,11
	add 0,0,9
.LBE2790:
	.loc 2 1772 0
	addi 9,9,1
.LVL913:
.LBB2791:
	.loc 2 1773 0
	slwi 11,0,6
	add 11,0,11
	slwi 11,11,2
	.loc 2 1774 0
	add 11,30,11
	lwz 0,5956(11)
	.loc 2 1775 0
	cmpwi 7,0,1
	mfcr 0
	rlwinm 0,0,30,1
	add 20,20,0
.LVL914:
.LBE2791:
	.loc 2 1772 0
	bdnz .L448
.LBE2789:
	.loc 2 1782 0
	addi 4,1,56
	li 5,17
	mr 3,21
	bl _ZNK8idBitMsg10ReadStringEPci
.LVL915:
	.loc 2 1784 0
	lis 9,game@ha
	lwz 19,game@l(9)
	li 3,0
	lwz 11,0(31)
	ori 3,3,33952
	lwz 10,0(19)
	add 3,3,1
	lwz 9,4(31)
	lwz 0,8(31)
	lwz 21,92(10)
.LVL916:
	stw 11,-31584(29)
	stw 9,-31580(29)
	stw 0,-31576(29)
	bl _Z18Sys_NetAdrToString8netadr_t
	mtctr 21
	mr 5,3
	mr 4,20
	mr 3,19
	addi 6,1,44
	addi 7,1,56
	addi 8,1,140
	bctrl
.LVL917:
	.loc 2 1785 0
	mr. 21,3
	bne- 0,.L476
.LVL918:
.LBB2792:
.LBB2793:
.LBB2794:
.LBB2795:
	.loc 9 241 0
	mr 3,28
.LVL919:
	mr 4,27
	bl _ZNK6idDict7FindKeyEPKc
.LVL920:
	.loc 9 242 0
	cmpwi 0,3,0
	beq- 0,.L467
.LVL921:
.LBB2796:
	.loc 2 2829 0
	lwz 9,4(3)
	lwz 3,4(9)
.LVL922:
.L450:
.LBE2796:
.LBE2795:
.LBE2794:
	.loc 9 253 0
	bl atoi
.LBE2793:
.LBE2792:
	.loc 2 1801 0
	cmpwi 7,3,0
	beq- 7,.L451
	.loc 2 1801 0 is_stmt 0 discriminator 1
	add 21,30,24
.LVL923:
	lwz 0,92(21)
	cmpwi 7,0,4
	beq- 7,.L451
	.loc 2 1802 0 is_stmt 1 discriminator 4
	lwz 11,0(31)
	addi 8,1,8
	lwz 9,4(31)
	addis 4,8,0x1
	lwz 0,8(31)
	mr 3,30
	stw 11,-31584(29)
	addi 4,4,-31592
	stw 9,-31580(29)
	mr 5,22
	stw 0,-31576(29)
	bl _ZN13idAsyncServer21SendPureServerMessageE8netadr_ti
	cmpwi 7,3,0
	bne- 7,.L477
.L451:
.LVL924:
.LBB2800:
.LBB2801:
.LBB2802:
.LBB2803:
	.loc 9 241 0
	mr 3,28
	mr 4,27
	bl _ZNK6idDict7FindKeyEPKc
.LVL925:
	.loc 9 242 0
	cmpwi 0,3,0
	beq- 0,.L468
.LVL926:
.LBB2804:
	.loc 2 2829 0
	lwz 9,4(3)
	lwz 3,4(9)
.LVL927:
.L452:
.LBE2804:
.LBE2803:
.LBE2802:
	.loc 9 253 0
	bl atoi
.LBE2801:
.LBE2800:
	.loc 2 1809 0
	cmpwi 7,3,0
	beq- 7,.L453
	.loc 2 1809 0 is_stmt 0 discriminator 1
	lwz 0,52(30)
	cmpw 7,0,26
	beq- 7,.L453
	.loc 2 1810 0 is_stmt 1 discriminator 4
	lwz 11,0(31)
	addi 10,1,8
	lwz 9,4(31)
	addis 4,10,0x1
	lwz 0,8(31)
	lis 6,.LC77@ha
	stw 11,-31584(29)
	mr 3,30
	stw 9,-31580(29)
	addi 4,4,-31592
	stw 0,-31576(29)
	li 5,0
	la 6,.LC77@l(6)
	bl _ZN13idAsyncServer8PrintOOBE8netadr_tiPKc
	b .L434
.LVL928:
.L466:
.LBB2811:
.LBB2728:
.LBB2724:
.LBB2720:
	.loc 9 245 0
	lis 3,.LC67@ha
.LVL929:
	la 3,.LC67@l(3)
	b .L437
.L441:
.LBE2720:
.LBE2724:
.LBE2728:
.LBE2811:
.LBB2812:
.LBB2786:
	.loc 2 1718 0
	lis 9,common@ha
	lwz 11,0(31)
	lwz 27,common@l(9)
	li 3,0
	lwz 9,4(31)
	ori 3,3,33952
	lwz 10,0(27)
	add 3,3,1
	lwz 0,8(31)
	lwz 28,76(10)
	stw 11,-31584(29)
	stw 9,-31580(29)
	stw 0,-31576(29)
	bl _Z18Sys_NetAdrToString8netadr_t
	lis 4,.LC71@ha
	mr 5,3
	la 4,.LC71@l(4)
	mr 3,27
	mtctr 28
	crxor 6,6,6
	bctrl
	.loc 2 1719 0
	lwz 11,0(31)
	lwz 9,4(31)
	li 4,0
	lwz 0,8(31)
	ori 4,4,33952
	lis 6,.LC72@ha
	stw 11,-31584(29)
	stw 9,-31580(29)
	mr 3,30
	stw 0,-31576(29)
	add 4,4,1
	li 5,0
	la 6,.LC72@l(6)
	bl _ZN13idAsyncServer8PrintOOBE8netadr_tiPKc
	b .L434
.L442:
	.loc 2 1715 0
	lwz 11,0(31)
	li 4,0
	lwz 9,4(31)
	ori 4,4,33952
	lwz 0,8(31)
	mr 3,30
	stw 11,-31584(29)
	add 4,4,1
	stw 9,-31580(29)
	mr 5,22
	stw 0,-31576(29)
	bl _ZN13idAsyncServer21SendPureServerMessageE8netadr_ti
	b .L434
.L443:
	.loc 2 1727 0
	add 9,30,24
	lwz 0,100(9)
	cmpwi 7,0,3
	beq- 7,.L478
	.loc 2 1728 0
	lis 9,.LANCHOR0@ha
	slwi 0,0,2
	la 9,.LANCHOR0@l(9)
	lwzx 28,9,0
.LVL930:
.L445:
	.loc 2 1732 0
	lis 27,common@ha
	lwz 3,common@l(27)
	lwz 9,0(3)
	lwz 0,104(9)
	mtctr 0
	bctrl
	mr 4,28
	bl _ZNK10idLangDict9GetStringEPKc
	.loc 2 1734 0
	lwz 23,common@l(27)
	lwz 9,4(31)
	.loc 2 1732 0
	mr 26,3
.LVL931:
	.loc 2 1734 0
	lwz 10,0(23)
	li 3,0
.LVL932:
	lwz 0,8(31)
	ori 3,3,33952
	lwz 11,0(31)
	add 3,3,1
	lwz 27,76(10)
	stw 9,-31580(29)
	stw 0,-31576(29)
	stw 11,-31584(29)
	bl _Z18Sys_NetAdrToString8netadr_t
	lis 4,.LC74@ha
	mr 5,3
	la 4,.LC74@l(4)
	mr 3,23
	mr 6,26
	mtctr 27
	crxor 6,6,6
	bctrl
.LBB2743:
	.loc 2 1736 0
	add 9,30,24
	lwz 0,100(9)
	cmplwi 7,0,1
	ble- 7,.L479
.L446:
.LBE2743:
	.loc 2 1747 0
	lwz 0,8(31)
	li 4,0
	lwz 11,0(31)
	ori 4,4,33952
	lwz 9,4(31)
	mr 3,30
	stw 0,-31576(29)
	add 4,4,1
	stw 11,-31584(29)
	li 5,0
	stw 9,-31580(29)
	mr 6,28
	bl _ZN13idAsyncServer8PrintOOBE8netadr_tiPKc
	.loc 2 1750 0
	add 3,30,24
	addi 3,3,136
	li 4,12
	addi 5,1,44
	.loc 2 1753 0
	add 24,30,24
	.loc 2 1750 0
	crxor 6,6,6
	bl _ZN5idStr8snPrintfEPciPKcz
	.loc 2 1753 0
	lwz 0,96(24)
	cmpwi 7,0,3
	beq- 7,.L434
.LVL933:
.LBB2761:
.LBB2762:
	.loc 3 156 0
	addi 0,1,17548
.LBE2762:
.LBE2761:
.LBB2766:
.LBB2767:
	.loc 3 288 0
	addi 3,1,108
.LVL934:
.LBE2767:
.LBE2766:
.LBB2771:
.LBB2763:
	.loc 3 156 0
	stw 0,108(1)
.LBE2763:
.LBE2771:
.LBB2772:
.LBB2768:
	.loc 3 288 0
	li 4,-1
.LBE2768:
.LBE2772:
.LBB2773:
.LBB2764:
	.loc 3 157 0
	stw 0,112(1)
.LBE2764:
.LBE2773:
.LBB2774:
.LBB2769:
	.loc 3 288 0
	li 5,-16
.LBE2769:
.LBE2774:
.LBB2775:
.LBB2765:
	.loc 3 158 0
	li 0,16384
	stw 0,116(1)
.LVL935:
.LBE2765:
.LBE2775:
.LBB2776:
.LBB2770:
	.loc 3 288 0
	bl _ZN8idBitMsg9WriteBitsEii
.LVL936:
.LBE2770:
.LBE2776:
	.loc 2 1757 0
	lis 4,.LC34@ha
	li 6,1
	addi 3,1,108
.LVL937:
	la 4,.LC34@l(4)
	li 5,-1
	bl _ZN8idBitMsg11WriteStringEPKcib
.LVL938:
.LBB2777:
.LBB2778:
	.loc 3 296 0
	lis 4,0x1
	addi 3,1,108
.LVL939:
	li 5,32
	ori 4,4,41
	bl _ZN8idBitMsg9WriteBitsEii
.LVL940:
.LBE2778:
.LBE2777:
	.loc 2 1759 0
	lwz 11,0(31)
	lwz 9,4(31)
	li 4,0
	lwz 0,8(31)
	ori 4,4,33952
	stw 11,-31584(29)
	addi 3,1,108
.LVL941:
	stw 9,-31580(29)
	add 4,4,1
	stw 0,-31576(29)
	bl _ZN8idBitMsg11WriteNetadrE8netadr_t
.LVL942:
.LBB2779:
.LBB2780:
	.loc 3 296 0
	addi 3,1,108
.LVL943:
	mr 4,25
	li 5,32
	bl _ZN8idBitMsg9WriteBitsEii
.LVL944:
.LBE2780:
.LBE2779:
	.loc 2 1761 0
	li 6,1
	addi 4,1,44
	addi 3,1,108
.LVL945:
	li 5,-1
	bl _ZN8idBitMsg11WriteStringEPKcib
.LVL946:
	.loc 2 1763 0
	lis 9,fileSystem@ha
	lwz 3,fileSystem@l(9)
	lwz 9,0(3)
	lwz 0,168(9)
	mtctr 0
	bctrl
.LBB2781:
.LBB2782:
	.loc 3 284 0
	li 5,8
.LBE2782:
.LBE2781:
	.loc 2 1763 0
	mr 4,3
.LVL947:
.LBB2784:
.LBB2783:
	.loc 3 284 0
	addi 3,1,108
.LVL948:
	bl _ZN8idBitMsg9WriteBitsEii
.LVL949:
.LBE2783:
.LBE2784:
	.loc 2 1764 0
	addi 3,1,32
	bl _ZN14idAsyncNetwork16GetMasterAddressEv
	lwz 0,32(1)
	lwz 5,108(1)
	li 4,0
	lwz 6,120(1)
	ori 4,4,33952
	stw 0,-31584(29)
	addi 3,30,12
	add 4,4,1
	lwz 0,36(1)
	stw 0,-31580(29)
	lwz 0,40(1)
	stw 0,-31576(29)
	bl _ZN6idPort10SendPacketE8netadr_tPKvi
	b .L434
.LVL950:
.L476:
.LBE2786:
.LBE2812:
	.loc 2 1786 0
	lis 9,common@ha
	lwz 11,0(31)
	lwz 27,common@l(9)
	li 3,0
.LVL951:
	lwz 9,4(31)
	ori 3,3,33952
	lwz 10,0(27)
	add 3,3,1
	lwz 0,8(31)
	lwz 28,76(10)
	stw 11,-31584(29)
	stw 9,-31580(29)
	stw 0,-31576(29)
	bl _Z18Sys_NetAdrToString8netadr_t
	lis 4,.LC76@ha
	mtctr 28
	mr 5,3
	la 4,.LC76@l(4)
	mr 3,27
	crxor 6,6,6
	bctrl
.LVL952:
.LBB2813:
.LBB2814:
	.loc 3 156 0
	addi 0,1,17548
.LVL953:
.LBE2814:
.LBE2813:
.LBB2818:
.LBB2819:
	.loc 3 288 0
	addi 3,1,108
.LVL954:
.LBE2819:
.LBE2818:
.LBB2823:
.LBB2815:
	.loc 3 156 0
	stw 0,108(1)
	.loc 3 157 0
	stw 0,112(1)
.LBE2815:
.LBE2823:
.LBB2824:
.LBB2820:
	.loc 3 288 0
	li 4,-1
.LBE2820:
.LBE2824:
.LBB2825:
.LBB2816:
	.loc 3 158 0
	li 0,16384
.LVL955:
.LBE2816:
.LBE2825:
.LBB2826:
.LBB2821:
	.loc 3 288 0
	li 5,-16
.LBE2821:
.LBE2826:
.LBB2827:
.LBB2817:
	.loc 3 158 0
	stw 0,116(1)
.LVL956:
.LBE2817:
.LBE2827:
.LBB2828:
.LBB2822:
	.loc 3 288 0
	bl _ZN8idBitMsg9WriteBitsEii
.LVL957:
.LBE2822:
.LBE2828:
	.loc 2 1791 0
	lis 4,.LC58@ha
	li 6,1
	addi 3,1,108
.LVL958:
	la 4,.LC58@l(4)
	li 5,-1
	bl _ZN8idBitMsg11WriteStringEPKcib
.LVL959:
.LBB2829:
.LBB2830:
	.loc 3 296 0
	addi 3,1,108
.LVL960:
	li 5,32
	li 4,3
	bl _ZN8idBitMsg9WriteBitsEii
.LVL961:
.LBE2830:
.LBE2829:
.LBB2831:
.LBB2832:
	addi 3,1,108
.LVL962:
	mr 4,21
	li 5,32
	bl _ZN8idBitMsg9WriteBitsEii
.LVL963:
.LBE2832:
.LBE2831:
	.loc 2 1794 0
	addi 3,1,108
.LVL964:
	addi 4,1,140
	li 5,-1
	li 6,1
	bl _ZN8idBitMsg11WriteStringEPKcib
.LVL965:
	.loc 2 1795 0
	lwz 11,0(31)
	lwz 9,4(31)
	li 4,0
	lwz 0,8(31)
	ori 4,4,33952
	lwz 5,108(1)
	addi 3,30,12
	lwz 6,120(1)
	add 4,4,1
	stw 11,-31584(29)
	stw 9,-31580(29)
	stw 0,-31576(29)
	bl _ZN6idPort10SendPacketE8netadr_tPKvi
	b .L434
.LVL966:
.L453:
	.loc 2 1815 0
	lis 19,common@ha
	lwz 0,8(31)
	lwz 17,common@l(19)
	addi 10,1,8
	lwz 11,0(31)
	addis 27,10,0x1
	lwz 8,0(17)
	.loc 2 1814 0
	add 20,30,24
.LVL967:
	.loc 2 1815 0
	lwz 9,4(31)
	addi 21,27,-31592
	lwz 18,68(8)
	mr 3,21
	.loc 2 1814 0
	lwz 10,84(20)
	lwz 26,8(30)
	.loc 2 1815 0
	stw 0,-31576(29)
	stw 11,-31584(29)
	.loc 2 1814 0
	subf 26,10,26
.LVL968:
	.loc 2 1815 0
	stw 9,-31580(29)
	bl _Z18Sys_NetAdrToString8netadr_t
	lis 4,.LC81@ha
	mr 5,3
	mr 6,26
	mr 3,17
	mtctr 18
	la 4,.LC81@l(4)
.LBB2833:
.LBB2834:
.LBB2835:
.LBB2836:
	.loc 2 1834 0
	addi 17,27,-31560
	.loc 2 1825 0
	addi 26,27,-31576
.LVL969:
.LBE2836:
.LBE2835:
.LBE2834:
.LBE2833:
	.loc 2 1819 0
	li 18,0
	.loc 2 1815 0
	crxor 6,6,6
	bctrl
.LVL970:
	.loc 2 1816 0
	li 0,1
	stb 0,88(20)
.LVL971:
.L464:
	cmpwi 4,18,0
.LBB2866:
.LBB2861:
.LBB2857:
.LBB2853:
	.loc 2 1829 0 discriminator 1
	cmpwi 3,18,1
.LBE2853:
.LBE2857:
.LBE2861:
.LBE2866:
.LBB2867:
.LBB2809:
.LBB2807:
.LBB2805:
	.loc 9 245 0 discriminator 1
	li 27,0
.LVL972:
.L458:
.LBE2805:
.LBE2807:
.LBE2809:
.LBE2867:
.LBB2868:
.LBB2862:
.LBB2858:
.LBB2854:
	.loc 2 1821 0
	slwi 0,27,2
	slwi 9,27,8
	subf 0,0,9
	add 0,0,27
	slwi 20,0,6
	add 20,0,20
	slwi 20,20,2
	add 20,30,20
	addi 20,20,5948
.LVL973:
	.loc 2 1823 0
	beq- 4,.L480
	.loc 2 1831 0
	lwz 0,8(20)
	.loc 2 1829 0
	beq- 3,.L481
	.loc 2 1839 0
	cmpwi 7,0,0
	beq- 7,.L456
.L455:
.LVL974:
.LBE2854:
	.loc 2 1820 0
	cmpwi 7,27,3
	addi 27,27,1
.LVL975:
	bne+ 7,.L458
.LVL976:
.LBE2858:
.LBE2862:
	.loc 2 1819 0
	cmpwi 7,18,2
	addi 18,18,1
.LVL977:
	bne+ 7,.L464
.LBE2868:
	.loc 2 1857 0
	lwz 11,0(31)
	addi 8,1,8
	lwz 9,4(31)
	addis 4,8,0x1
	lwz 0,8(31)
	lis 6,.LC80@ha
	stw 11,-31584(29)
	mr 3,30
	stw 9,-31580(29)
	addi 4,4,-31592
	stw 0,-31576(29)
	li 5,0
	la 6,.LC80@l(6)
	bl _ZN13idAsyncServer8PrintOOBE8netadr_tiPKc
	b .L434
.LVL978:
.L480:
.LBB2869:
.LBB2863:
.LBB2859:
.LBB2855:
.LBB2837:
.LBB2838:
	.loc 8 103 0
	lwz 11,40(20)
.LBE2838:
.LBE2837:
	.loc 2 1825 0
	mr 3,21
.LBB2842:
.LBB2839:
	.loc 8 103 0
	lwz 9,44(20)
.LBE2839:
.LBE2842:
	.loc 2 1825 0
	mr 4,26
.LBB2843:
.LBB2840:
	.loc 8 103 0
	lwz 0,48(20)
.LBE2840:
.LBE2843:
	.loc 2 1825 0
	lwz 7,0(31)
	lwz 8,4(31)
	lwz 10,8(31)
.LBB2844:
.LBB2841:
	.loc 8 103 0
	stw 11,20(1)
	stw 9,24(1)
	stw 0,28(1)
.LBE2841:
.LBE2844:
	.loc 2 1825 0
	stw 7,-31584(29)
	stw 8,-31580(29)
	stw 10,-31576(29)
	stw 11,-31568(29)
	stw 9,-31564(29)
	stw 0,-31560(29)
	bl _Z21Sys_CompareNetAdrBase8netadr_tS_
	cmpwi 7,3,0
	beq- 7,.L455
	.loc 2 1825 0 is_stmt 0 discriminator 1
	lwz 0,4(20)
	cmpw 7,0,25
	beq- 7,.L456
.LVL979:
	.loc 2 1825 0 discriminator 4
	lhz 9,8(31)
	lhz 0,48(20)
	cmpw 7,9,0
	bne+ 7,.L455
.LVL980:
.L456:
.LBE2855:
.LBE2859:
	.loc 2 1847 0 is_stmt 1
	lis 21,0x1
	lwz 11,0(31)
	ori 21,21,244
	lwz 9,4(31)
	mullw 21,27,21
	lwz 0,8(31)
	li 4,0
	lwz 5,48(30)
	ori 4,4,33952
	stw 11,-31584(29)
	stw 9,-31580(29)
	add 4,4,1
	stw 0,-31576(29)
	add 3,30,21
	addi 3,3,5988
	.loc 2 1848 0
	add 26,30,21
	.loc 2 1847 0
	bl _ZN12idMsgChannel4InitE8netadr_ti
	.loc 2 1849 0
	addis 3,21,0x1
	.loc 2 1848 0
	stw 22,5948(26)
	.loc 2 1849 0
	add 3,30,3
	addi 4,1,44
	li 5,12
	addi 3,3,6180
	.loc 2 1850 0
	addis 21,26,0x1
	.loc 2 1849 0
	bl strncpy
	.loc 2 1850 0
	li 0,0
.LBE2863:
.LBE2869:
	.loc 2 1861 0
	lwz 22,common@l(19)
	li 3,0
.LBB2870:
.LBB2864:
	.loc 2 1850 0
	stb 0,6191(21)
.LVL981:
.LBE2864:
.LBE2870:
	.loc 2 1861 0
	ori 3,3,33952
	lwz 11,0(31)
	add 3,3,1
	lwz 10,0(22)
	lwz 9,4(31)
	lwz 0,8(31)
	lwz 20,68(10)
.LVL982:
	stw 11,-31584(29)
	stw 9,-31580(29)
	stw 0,-31576(29)
	bl _Z18Sys_NetAdrToString8netadr_t
	lis 4,.LC78@ha
	mtctr 20
	mr 5,3
	la 4,.LC78@l(4)
	mr 3,22
	.loc 2 1868 0
	addis 22,30,0x5
	.loc 2 1861 0
	crxor 6,6,6
	bctrl
.LVL983:
.LBB2871:
.LBB2872:
	.loc 3 156 0
	addi 0,1,17548
.LVL984:
.LBE2872:
.LBE2871:
.LBB2876:
.LBB2877:
	.loc 3 288 0
	addi 3,1,108
.LVL985:
.LBE2877:
.LBE2876:
.LBB2881:
.LBB2873:
	.loc 3 156 0
	stw 0,108(1)
	.loc 3 157 0
	stw 0,112(1)
.LBE2873:
.LBE2881:
.LBB2882:
.LBB2878:
	.loc 3 288 0
	li 4,-1
.LBE2878:
.LBE2882:
.LBB2883:
.LBB2874:
	.loc 3 158 0
	li 0,16384
.LVL986:
.LBE2874:
.LBE2883:
.LBB2884:
.LBB2879:
	.loc 3 288 0
	li 5,-16
.LBE2879:
.LBE2884:
.LBB2885:
.LBB2875:
	.loc 3 158 0
	stw 0,116(1)
.LVL987:
.LBE2875:
.LBE2885:
.LBB2886:
.LBB2880:
	.loc 3 288 0
	bl _ZN8idBitMsg9WriteBitsEii
.LVL988:
.LBE2880:
.LBE2886:
	.loc 2 1866 0
	lis 4,.LC79@ha
	li 6,1
	addi 3,1,108
.LVL989:
	la 4,.LC79@l(4)
	li 5,-1
	bl _ZN8idBitMsg11WriteStringEPKcib
.LVL990:
.LBB2887:
.LBB2888:
	.loc 3 296 0
	addi 3,1,108
.LVL991:
	mr 4,27
	li 5,32
	bl _ZN8idBitMsg9WriteBitsEii
.LVL992:
.LBE2888:
.LBE2887:
.LBB2889:
.LBB2890:
	lwz 4,-25844(22)
	addi 3,1,108
.LVL993:
	li 5,32
	bl _ZN8idBitMsg9WriteBitsEii
.LVL994:
.LBE2890:
.LBE2889:
.LBB2891:
.LBB2892:
	lwz 4,-25840(22)
	addi 3,1,108
.LVL995:
	li 5,32
	bl _ZN8idBitMsg9WriteBitsEii
.LVL996:
.LBE2892:
.LBE2891:
.LBB2893:
.LBB2894:
	lwz 4,-25836(22)
	addi 3,1,108
.LVL997:
	li 5,32
	bl _ZN8idBitMsg9WriteBitsEii
.LVL998:
.LBE2894:
.LBE2893:
	.loc 2 1871 0
	mr 4,28
	addi 3,1,108
.LVL999:
	li 5,0
	bl _ZN8idBitMsg14WriteDeltaDictERK6idDictPS1_
.LVL1000:
	.loc 2 1873 0
	lwz 0,8(31)
	lwz 11,0(31)
	li 4,0
	lwz 9,4(31)
	ori 4,4,33952
	lwz 5,108(1)
	addi 3,30,12
	lwz 6,120(1)
	add 4,4,1
	stw 0,-31576(29)
	stw 11,-31584(29)
	stw 9,-31580(29)
	bl _ZN6idPort10SendPacketE8netadr_tPKvi
	.loc 2 1875 0
	mr 3,30
	mr 4,27
	mr 5,25
	mr 6,23
	bl _ZN13idAsyncServer10InitClientEiii
	.loc 2 1877 0
	li 0,1
	stw 0,5976(26)
	.loc 2 1881 0
	add 3,30,24
	.loc 2 1878 0
	stw 0,6168(21)
	.loc 2 1881 0
	li 4,0
	li 5,92
	addi 3,3,60
	bl memset
	b .L434
.LVL1001:
.L481:
.LBB2895:
.LBB2865:
.LBB2860:
.LBB2856:
	.loc 2 1831 0
	cmpwi 7,0,1
	bgt+ 7,.L455
.LVL1002:
.LBB2845:
.LBB2846:
	.loc 8 103 0
	lwz 11,40(20)
.LBE2846:
.LBE2845:
	.loc 2 1834 0
	mr 3,21
.LBB2850:
.LBB2847:
	.loc 8 103 0
	lwz 9,44(20)
.LBE2847:
.LBE2850:
	.loc 2 1834 0
	mr 4,17
.LBB2851:
.LBB2848:
	.loc 8 103 0
	lwz 0,48(20)
.LBE2848:
.LBE2851:
	.loc 2 1834 0
	lwz 7,0(31)
	lwz 8,4(31)
	lwz 10,8(31)
.LBB2852:
.LBB2849:
	.loc 8 103 0
	stw 11,8(1)
	stw 9,12(1)
	stw 0,16(1)
.LBE2849:
.LBE2852:
	.loc 2 1834 0
	stw 7,-31584(29)
	stw 8,-31580(29)
	stw 10,-31576(29)
	stw 11,-31552(29)
	stw 9,-31548(29)
	stw 0,-31544(29)
	bl _Z21Sys_CompareNetAdrBase8netadr_tS_
	cmpwi 7,3,0
	beq+ 7,.L455
	b .L456
.LVL1003:
.L478:
.LBE2856:
.LBE2860:
.LBE2865:
.LBE2895:
.LBB2896:
.LBB2787:
	.loc 2 2829 0
	add 9,30,24
	lwz 28,108(9)
	b .L445
.LVL1004:
.L477:
.LBE2787:
.LBE2896:
	.loc 2 1803 0
	li 0,3
	stw 0,92(21)
	b .L434
.LVL1005:
.L479:
.LBB2897:
.LBB2788:
.LBB2785:
.LBB2744:
	.loc 2 1739 0
	addi 3,1,76
	bl _ZN8idBitMsgC1Ev
.LVL1006:
.LBB2745:
.LBB2746:
	.loc 3 156 0
	addi 0,1,1164
.LBE2746:
.LBE2745:
.LBB2750:
.LBB2751:
	.loc 3 288 0
	addi 3,1,76
.LVL1007:
.LBE2751:
.LBE2750:
.LBB2755:
.LBB2747:
	.loc 3 156 0
	stw 0,76(1)
	.loc 3 157 0
	stw 0,80(1)
.LBE2747:
.LBE2755:
.LBB2756:
.LBB2752:
	.loc 3 288 0
	li 4,-1
.LBE2752:
.LBE2756:
.LBB2757:
.LBB2748:
	.loc 3 158 0
	li 0,16384
.LBE2748:
.LBE2757:
.LBB2758:
.LBB2753:
	.loc 3 288 0
	li 5,-16
.LBE2753:
.LBE2758:
.LBB2759:
.LBB2749:
	.loc 3 158 0
	stw 0,84(1)
.LVL1008:
.LBE2749:
.LBE2759:
.LBB2760:
.LBB2754:
	.loc 3 288 0
	bl _ZN8idBitMsg9WriteBitsEii
.LVL1009:
.LBE2754:
.LBE2760:
	.loc 2 1743 0
	lis 4,.LC75@ha
	addi 3,1,76
.LVL1010:
	la 4,.LC75@l(4)
	li 5,-1
	li 6,1
	bl _ZN8idBitMsg11WriteStringEPKcib
.LVL1011:
	.loc 2 1744 0
	lwz 11,0(31)
	lwz 9,4(31)
	li 4,0
	lwz 0,8(31)
	ori 4,4,33952
	lwz 5,76(1)
	addi 3,30,12
	lwz 6,88(1)
	add 4,4,1
	stw 11,-31584(29)
	stw 9,-31580(29)
	stw 0,-31576(29)
	bl _ZN6idPort10SendPacketE8netadr_tPKvi
	b .L446
.LVL1012:
.L467:
.LBE2744:
.LBE2785:
.LBE2788:
.LBE2897:
.LBB2898:
.LBB2799:
.LBB2798:
.LBB2797:
	.loc 9 245 0
	lis 3,.LC67@ha
.LVL1013:
	la 3,.LC67@l(3)
	b .L450
.LVL1014:
.L468:
.LBE2797:
.LBE2798:
.LBE2799:
.LBE2898:
.LBB2899:
.LBB2810:
.LBB2808:
.LBB2806:
	lis 3,.LC67@ha
.LVL1015:
	la 3,.LC67@l(3)
	b .L452
.LBE2806:
.LBE2808:
.LBE2810:
.LBE2899:
.LBE2901:
	.cfi_endproc
.LFE2606:
	.size	_ZN13idAsyncServer21ProcessConnectMessageE8netadr_tRK8idBitMsg, .-_ZN13idAsyncServer21ProcessConnectMessageE8netadr_tRK8idBitMsg
	.align 2
	.globl _ZN13idAsyncServer15MasterHeartbeatEb
	.type	_ZN13idAsyncServer15MasterHeartbeatEb, @function
_ZN13idAsyncServer15MasterHeartbeatEb:
.LFB2625:
	.loc 2 2595 0
	.cfi_startproc
.LVL1016:
	mflr 0
	stwu 1,-8(1)
.LCFI153:
	.cfi_def_cfa_offset 8
	.cfi_register 65, 0
.LBB2902:
.LBB2903:
.LBB2904:
	.loc 2 2596 0
	lis 9,_ZN14idAsyncNetwork9LANServerE+44@ha
	.loc 7 142 0
	lwz 9,_ZN14idAsyncNetwork9LANServerE+44@l(9)
.LBE2904:
.LBE2903:
.LBE2902:
	.loc 2 2595 0
	stw 0,12(1)
.LBB2905:
	.loc 2 2596 0
	lwz 0,36(9)
	.cfi_offset 65, 4
	cmpwi 7,0,0
	beq- 7,.L483
	.loc 2 2597 0
	cmpwi 7,4,0
	bne- 7,.L487
.L482:
.LBE2905:
	.loc 2 2622 0
	lwz 0,12(1)
	addi 1,1,8
	.cfi_remember_state
.LCFI154:
	.cfi_def_cfa_offset 0
	mtlr 0
	blr
.L483:
.LCFI155:
	.cfi_restore_state
.LBB2906:
	.loc 2 2602 0
	cmpwi 7,4,0
	.loc 2 2603 0
	addis 9,3,0x5
	.loc 2 2602 0
	bne- 7,.L485
	lwz 9,-25816(9)
.L486:
	.loc 2 2606 0
	lwz 0,8(3)
	cmpw 7,0,9
	blt- 7,.L482
.LBE2906:
	.loc 2 2622 0
	lwz 0,12(1)
	addi 1,1,8
	.cfi_remember_state
.LCFI156:
	.cfi_def_cfa_offset 0
	mtlr 0
.LBB2907:
	.loc 2 2606 0
	b _ZN13idAsyncServer15MasterHeartbeatEb.part.33
.LVL1017:
.L485:
.LCFI157:
	.cfi_restore_state
	.loc 2 2603 0
	stw 0,-25816(9)
	li 9,0
	b .L486
.L487:
	.loc 2 2598 0
	lis 9,common@ha
	lis 4,.LC82@ha
.LVL1018:
	lwz 3,common@l(9)
.LVL1019:
	la 4,.LC82@l(4)
	lwz 9,0(3)
	lwz 0,68(9)
	mtctr 0
	crxor 6,6,6
	bctrl
.LBE2907:
	.loc 2 2622 0
	lwz 0,12(1)
	addi 1,1,8
.LCFI158:
	.cfi_def_cfa_offset 0
	mtlr 0
	blr
	.cfi_endproc
.LFE2625:
	.size	_ZN13idAsyncServer15MasterHeartbeatEb, .-_ZN13idAsyncServer15MasterHeartbeatEb
	.align 2
	.globl _ZN13idAsyncServer16ExecuteMapChangeEv
	.type	_ZN13idAsyncServer16ExecuteMapChangeEv, @function
_ZN13idAsyncServer16ExecuteMapChangeEv:
.LFB2561:
	.loc 2 247 0
	.cfi_startproc
	.cfi_personality 0,__gxx_personality_v0
	.cfi_lsda 0,.LLSDA2561
.LVL1020:
	stwu 1,-17528(1)
.LCFI159:
	.cfi_def_cfa_offset 17528
	mflr 0
	stw 30,17520(1)
	mr 30,3
	.cfi_offset 30, -8
	.cfi_register 65, 0
.LBB2966:
	.loc 2 249 0
	addi 3,1,40
.LVL1021:
.LBE2966:
	.loc 2 247 0
	stw 0,17532(1)
	stw 28,17512(1)
.LBB3044:
	.loc 2 259 0
	lis 28,fileSystem@ha
	.cfi_offset 28, -16
	.cfi_offset 65, 4
.LBE3044:
	.loc 2 247 0
	stw 31,17524(1)
	addi 31,1,8
	.cfi_offset 31, -4
	stw 20,17480(1)
	stw 21,17484(1)
	stw 22,17488(1)
	stw 23,17492(1)
	stw 24,17496(1)
	stw 25,17500(1)
	stw 26,17504(1)
	stw 27,17508(1)
	stw 29,17516(1)
.LEHB19:
.LBB3045:
	.loc 2 249 0
	.cfi_offset 29, -12
	.cfi_offset 27, -20
	.cfi_offset 26, -24
	.cfi_offset 25, -28
	.cfi_offset 24, -32
	.cfi_offset 23, -36
	.cfi_offset 22, -40
	.cfi_offset 21, -44
	.cfi_offset 20, -48
	bl _ZN8idBitMsgC1Ev
.LEHE19:
.LVL1022:
.LBB2967:
.LBB2968:
.LBB2969:
	.loc 4 357 0
	li 11,20
	.loc 4 356 0
	li 0,0
	.loc 4 357 0
	stw 11,16(1)
	.loc 4 358 0
	addi 11,1,20
.LBE2969:
.LBE2968:
.LBE2967:
	.loc 2 259 0
	lwz 9,fileSystem@l(28)
.LBB2974:
.LBB2972:
.LBB2970:
	.loc 4 356 0
	stw 0,8(1)
	.loc 4 359 0
	stb 0,20(1)
.LVL1023:
.LBE2970:
.LBE2972:
.LBE2974:
	.loc 2 259 0
	mr 3,9
.LBB2975:
.LBB2973:
.LBB2971:
	.loc 4 358 0
	stw 11,12(1)
.LBE2971:
.LBE2973:
.LBE2975:
	.loc 2 259 0
	lwz 9,0(9)
	lwz 0,88(9)
	mtctr 0
.LEHB20:
	bctrl
	.loc 2 262 0
	lis 29,cvarSystem@ha
	lis 27,.LC83@ha
	lwz 3,cvarSystem@l(29)
	lis 22,game@ha
	la 27,.LC83@l(27)
	lwz 25,game@l(22)
	lwz 9,0(3)
	mr 4,27
	addi 31,1,8
	lwz 0,44(9)
	lwz 9,0(25)
	mtctr 0
	lwz 23,148(9)
	bctrl
	mr 24,3
	lwz 3,cvarSystem@l(29)
	lis 26,.LC84@ha
	addi 31,1,8
	lwz 9,0(3)
	la 26,.LC84@l(26)
	mr 4,26
	lwz 0,44(9)
	mtctr 0
	bctrl
	.loc 2 262 0 is_stmt 0 discriminator 1
	mr 5,3
	mr 4,24
	mr 3,25
	addi 6,1,72
	mtctr 23
	addi 31,1,8
	bctrl
	.loc 2 263 0 is_stmt 1
	lwz 3,cvarSystem@l(29)
	mr 4,26
	addi 5,1,72
	li 6,0
	lwz 9,0(3)
	addi 31,1,8
	lwz 0,28(9)
	mtctr 0
	bctrl
	.loc 2 266 0
	lis 26,cmdSystem@ha
	lis 5,.LC85@ha
	lwz 3,cmdSystem@l(26)
	li 4,0
	la 5,.LC85@l(5)
	addi 31,1,8
	lwz 9,0(3)
	lwz 0,36(9)
	mtctr 0
	bctrl
.LVL1024:
.LBB2976:
.LBB2977:
	.loc 9 241 0
	lis 25,sessLocal+48@ha
	mr 4,27
	la 25,sessLocal+48@l(25)
	addi 31,1,8
	mr 3,25
	bl _ZNK6idDict7FindKeyEPKc
.LVL1025:
	.loc 9 242 0
	cmpwi 0,3,0
	beq- 0,.L520
.LVL1026:
.LBB2978:
	.loc 2 2829 0
	lwz 9,4(3)
	lwz 5,4(9)
.LVL1027:
.L489:
.LBE2978:
.LBE2977:
.LBE2976:
	.loc 2 268 0
	addi 31,1,8
	lis 4,.LC86@ha
	mr 3,31
.LVL1028:
	la 4,.LC86@l(4)
	crxor 6,6,6
	bl _Z7sprintfR5idStrPKcz
	.loc 2 269 0
	lis 4,.LC87@ha
	mr 3,31
	la 4,.LC87@l(4)
	bl _ZN5idStr16SetFileExtensionEPKc
	.loc 2 270 0
	lwz 3,fileSystem@l(28)
.LVL1029:
	addis 29,30,0x5
	lbz 5,-25808(29)
	lwz 9,0(3)
	lwz 4,12(1)
	xori 5,5,1
	lwz 0,188(9)
	mtctr 0
	bctrl
.LVL1030:
	.loc 2 271 0
	cmpwi 0,3,0
	bne- 0,.L533
	.loc 2 273 0
	lis 9,common@ha
	lis 4,.LC88@ha
	lwz 3,common@l(9)
.LVL1031:
	la 4,.LC88@l(4)
	lwz 5,12(1)
	lwz 9,0(3)
	lwz 0,68(9)
	mtctr 0
	crxor 6,6,6
	bctrl
.LVL1032:
.L532:
	.loc 2 349 0
	lwz 3,cmdSystem@l(26)
	lis 5,.LC89@ha
	li 4,2
	la 5,.LC89@l(5)
	lwz 9,0(3)
	lwz 0,36(9)
	mtctr 0
	bctrl
.LEHE20:
.L493:
.LVL1033:
.LBB2980:
.LBB2981:
.LBB2982:
	.loc 4 501 0
	mr 3,31
.LEHB21:
	bl _ZN5idStr8FreeDataEv
.LEHE21:
.LBE2982:
.LBE2981:
.LBE2980:
.LBE3045:
	.loc 2 378 0
	lwz 0,17532(1)
	lwz 20,17480(1)
	mtlr 0
	lwz 21,17484(1)
	lwz 22,17488(1)
	lwz 23,17492(1)
	lwz 24,17496(1)
	lwz 25,17500(1)
	lwz 26,17504(1)
	lwz 27,17508(1)
	lwz 28,17512(1)
	lwz 29,17516(1)
	lwz 30,17520(1)
	lwz 31,17524(1)
.LVL1034:
	addi 1,1,17528
	.cfi_remember_state
.LCFI160:
	.cfi_def_cfa_offset 0
	.cfi_restore 31
	.cfi_restore 30
	.cfi_restore 29
	.cfi_restore 28
	.cfi_restore 27
	.cfi_restore 26
	.cfi_restore 25
	.cfi_restore 24
	.cfi_restore 23
	.cfi_restore 22
	.cfi_restore 21
	.cfi_restore 20
	blr
.LVL1035:
.L533:
.LCFI161:
	.cfi_restore_state
.LBB3046:
	.loc 2 271 0 discriminator 1
	cmpwi 7,3,2
	.loc 2 253 0 discriminator 1
	li 9,0
	.loc 2 271 0 discriminator 1
	beq- 7,.L534
.LVL1036:
	.loc 2 287 0
	lbz 0,-25808(29)
	cmpwi 7,0,0
	beq- 7,.L535
.LVL1037:
.L494:
	.loc 2 313 0
	li 0,0
	stb 0,-25808(29)
	.loc 2 315 0
	li 0,0
	stw 0,8(30)
	.loc 2 318 0
	lwz 27,-25844(29)
.LEHB22:
	bl _Z16Sys_Millisecondsv
	.loc 2 319 0
	li 0,0
	.loc 2 318 0
	xor 3,3,27
	stw 3,-25844(29)
	.loc 2 322 0
	li 5,0
	.loc 2 319 0
	stw 0,-25840(29)
	.loc 2 322 0
	addis 3,30,0x4
	.loc 2 320 0
	stw 0,-25836(29)
	.loc 2 322 0
	addi 3,3,6924
	.loc 2 321 0
	stw 0,-25832(29)
	.loc 2 322 0
	li 4,0
	ori 5,5,32768
	bl memset
.LBB2983:
.LBB2984:
	.loc 2 324 0
	lis 9,_ZN14idAsyncNetwork15serverDedicatedE+44@ha
	.loc 7 143 0
	lwz 9,_ZN14idAsyncNetwork15serverDedicatedE+44@l(9)
.LBE2984:
.LBE2983:
	.loc 2 324 0
	lwz 0,36(9)
	cmpwi 7,0,0
	beq- 7,.L536
	.loc 2 327 0
	li 0,-1
	stw 0,56(30)
.L501:
.LVL1038:
.LBB2985:
.LBB2986:
.LBB2987:
.LBB2988:
	.loc 9 241 0 discriminator 1
	lis 23,.LC69@ha
.LBE2988:
.LBE2987:
.LBE2986:
.LBE2985:
	.loc 2 327 0 discriminator 1
	mr 24,30
	.loc 2 253 0 discriminator 1
	mr 27,30
	li 29,0
.LBB3002:
.LBB2998:
.LBB2994:
.LBB2990:
	.loc 9 241 0 discriminator 1
	la 23,.LC69@l(23)
.LBE2990:
.LBE2994:
.LBE2998:
.LBE3002:
	.loc 2 339 0 discriminator 1
	li 21,2
.LBB3003:
.LBB2999:
.LBB2995:
.LBB2991:
	.loc 9 245 0 discriminator 1
	lis 20,.LC67@ha
.LVL1039:
.L504:
.LBE2991:
.LBE2995:
.LBE2999:
.LBE3003:
	.loc 2 332 0
	lwz 0,5956(27)
	cmpwi 7,0,1
	ble- 7,.L502
	.loc 2 332 0 is_stmt 0 discriminator 1
	lwz 0,56(30)
	cmpw 7,0,29
	beq- 7,.L502
	.loc 2 334 0 is_stmt 1
	lwz 5,5952(27)
	mr 3,30
	lwz 6,5968(27)
	mr 4,29
	bl _ZN13idAsyncServer10InitClientEiii
	.loc 2 336 0
	mr 3,30
	mr 4,29
	bl _ZN13idAsyncServer20SendGameInitToClientEi
.LVL1040:
.LBB3004:
.LBB3000:
.LBB2996:
.LBB2992:
	.loc 9 241 0
	mr 3,25
	mr 4,23
	bl _ZNK6idDict7FindKeyEPKc
.LVL1041:
	.loc 9 242 0
	cmpwi 0,3,0
	beq- 0,.L522
.LVL1042:
.LBB2989:
	.loc 2 2829 0
	lwz 9,4(3)
	lwz 3,4(9)
.LVL1043:
.L503:
.LBE2989:
.LBE2992:
.LBE2996:
	.loc 9 257 0
	bl atoi
.LBE3000:
.LBE3004:
	.loc 2 338 0
	cmpwi 7,3,0
	beq- 7,.L502
	.loc 2 339 0
	stw 21,5956(27)
.LVL1044:
.L502:
	.loc 2 331 0
	cmpwi 7,29,3
	addis 27,27,0x1
	addi 27,27,244
	addi 29,29,1
.LVL1045:
	bne+ 7,.L504
.LVL1046:
.LBB3005:
.LBB3006:
.LBB3007:
.LBB3008:
	.loc 9 241 0
	lis 29,.LC69@ha
.LVL1047:
	mr 3,25
	la 29,.LC69@l(29)
	mr 4,29
	bl _ZNK6idDict7FindKeyEPKc
.LVL1048:
	.loc 9 242 0
	cmpwi 0,3,0
	beq- 0,.L523
.LVL1049:
.LBB3009:
	.loc 2 2829 0
	lwz 9,4(3)
	lwz 3,4(9)
.LVL1050:
.L505:
.LBE3009:
.LBE3008:
.LBE3007:
	.loc 9 253 0
	bl atoi
.LBE3006:
.LBE3005:
	.loc 2 346 0
	cmpwi 7,3,0
	beq- 7,.L506
	.loc 2 347 0
	lwz 3,fileSystem@l(28)
	lwz 9,0(3)
	lwz 0,72(9)
	mtctr 0
	bctrl
	cmpwi 7,3,0
	beq- 7,.L537
.L506:
	.loc 2 355 0
	lis 3,sessLocal@ha
	li 4,0
	la 3,sessLocal@l(3)
	bl _ZN14idSessionLocal16ExecuteMapChangeEb
	.loc 2 357 0
	lwz 0,56(30)
	cmpwi 7,0,0
	blt- 7,.L507
	.loc 2 358 0
	mr 3,30
	bl _ZN13idAsyncServer16BeginLocalClientEv
.L508:
.LVL1051:
.LBB3013:
.LBB3014:
.LBB3015:
.LBB3016:
	.loc 9 241 0
	mr 3,25
	mr 4,29
	bl _ZNK6idDict7FindKeyEPKc
.LVL1052:
	.loc 9 242 0
	cmpwi 0,3,0
	beq- 0,.L524
.LVL1053:
.LBB3017:
	.loc 2 2829 0
	lwz 9,4(3)
	lwz 3,4(9)
.LVL1054:
.L509:
.LBE3017:
.LBE3016:
.LBE3015:
	.loc 9 253 0
	bl atoi
.LBE3014:
.LBE3013:
	.loc 2 363 0
	cmpwi 7,3,0
	beq- 7,.L510
	.loc 2 365 0
	lwz 3,fileSystem@l(28)
	lwz 9,0(3)
	lwz 0,68(9)
	mtctr 0
	bctrl
	li 29,0
	.loc 2 370 0
	li 28,3
.L512:
	.loc 2 368 0
	lwz 0,5956(24)
	cmpwi 7,0,2
	beq- 7,.L538
.L511:
.LVL1055:
	.loc 2 367 0
	cmpwi 7,29,3
	addis 24,24,0x1
	addi 24,24,244
	addi 29,29,1
.LVL1056:
	bne+ 7,.L512
.LVL1057:
.L510:
	.loc 2 377 0
	mr 3,30
	li 4,1
	bl _ZN13idAsyncServer15MasterHeartbeatEb
	b .L493
.LVL1058:
.L535:
.LBB3021:
.LBB3022:
	.loc 2 288 0 discriminator 1
	lis 23,_ZN14idAsyncNetwork18serverReloadEngineE@ha
.LBE3022:
.LBE3021:
	.loc 2 287 0 discriminator 1
	cmpwi 7,9,0
.LBB3024:
.LBB3023:
	.loc 2 288 0 discriminator 1
	la 23,_ZN14idAsyncNetwork18serverReloadEngineE@l(23)
	.loc 7 143 0 discriminator 1
	lwz 9,44(23)
.LBE3023:
.LBE3024:
	.loc 2 288 0 discriminator 1
	lwz 0,36(9)
	.loc 2 287 0 discriminator 1
	bne- 7,.L495
	.loc 2 287 0 is_stmt 0 discriminator 4
	cmpwi 7,0,0
	beq- 7,.L494
.L496:
	.loc 2 289 0 is_stmt 1
	lis 9,common@ha
	lis 4,.LC91@ha
	lwz 3,common@l(9)
	la 4,.LC91@l(4)
	lwz 9,0(3)
	lwz 0,68(9)
	mtctr 0
	crxor 6,6,6
	bctrl
.L498:
.LVL1059:
	.loc 2 288 0 discriminator 1
	mr 27,30
	.loc 2 253 0 discriminator 1
	li 28,0
.LBB3025:
.LBB3026:
	.loc 3 156 0 discriminator 1
	addi 25,1,1096
	.loc 3 158 0 discriminator 1
	li 24,16384
.LVL1060:
.L497:
.LBE3026:
.LBE3025:
	.loc 2 297 0
	lwz 0,5956(27)
	cmpwi 7,0,1
	ble- 7,.L499
	.loc 2 297 0 is_stmt 0 discriminator 1
	lwz 0,56(30)
	cmpw 7,0,28
	beq- 7,.L499
.LVL1061:
.LBB3028:
.LBB3029:
	.loc 3 284 0 is_stmt 1
	addi 3,1,40
.LVL1062:
	li 4,1
	li 5,8
.LBE3029:
.LBE3028:
.LBB3031:
.LBB3027:
	.loc 3 156 0
	stw 25,40(1)
	.loc 3 157 0
	stw 25,44(1)
	.loc 3 158 0
	stw 24,48(1)
.LVL1063:
.LBE3027:
.LBE3031:
.LBB3032:
.LBB3030:
	.loc 3 284 0
	bl _ZN8idBitMsg9WriteBitsEii
.LVL1064:
.LBE3030:
.LBE3032:
	.loc 2 300 0
	mr 3,30
	mr 4,28
	addi 5,1,40
.LVL1065:
	bl _ZN13idAsyncServer19SendReliableMessageEiRK8idBitMsg
.LVL1066:
	.loc 2 301 0
	li 0,1
	stw 0,5956(27)
.LVL1067:
.L499:
	.loc 2 296 0
	cmpwi 7,28,3
	addis 27,27,0x1
	addi 27,27,244
	addi 28,28,1
.LVL1068:
	bne+ 7,.L497
	.loc 2 304 0
	lwz 3,cmdSystem@l(26)
	lis 5,.LC92@ha
	li 4,0
	la 5,.LC92@l(5)
	lwz 9,0(3)
	lwz 0,36(9)
	mtctr 0
	bctrl
	.loc 2 305 0
	li 0,1
	.loc 2 306 0
	lwz 3,cmdSystem@l(26)
	.loc 2 305 0
	stb 0,-25808(29)
	.loc 2 306 0
	lis 5,.LC93@ha
	li 4,2
	la 5,.LC93@l(5)
	lwz 9,0(3)
	lwz 0,36(9)
	mtctr 0
	bctrl
	.loc 2 308 0
	lwz 3,44(23)
.LBB3033:
.LBB3034:
	.loc 7 143 0
	lwz 4,36(3)
.LBE3034:
.LBE3033:
	.loc 2 308 0
	cmpwi 7,4,0
	ble- 7,.L493
.LVL1069:
.LBB3035:
.LBB3036:
	.loc 7 148 0
	lwz 9,0(3)
	addi 4,4,-1
	lwz 0,16(9)
	mtctr 0
	bctrl
.LVL1070:
	b .L493
.LVL1071:
.L534:
.LBE3036:
.LBE3035:
	.loc 2 279 0
	lis 9,common@ha
	lis 4,.LC90@ha
	lwz 3,common@l(9)
.LVL1072:
	la 4,.LC90@l(4)
	lwz 5,12(1)
	lwz 9,0(3)
	lwz 0,68(9)
	mtctr 0
	crxor 6,6,6
	bctrl
	.loc 2 287 0
	lbz 0,-25808(29)
	.loc 2 280 0
	li 9,1
.LVL1073:
	.loc 2 287 0
	cmpwi 7,0,0
	bne- 7,.L494
	b .L535
.LVL1074:
.L520:
.LBB3037:
.LBB2979:
	.loc 9 245 0
	lis 5,.LC8@ha
	la 5,.LC8@l(5)
	b .L489
.LVL1075:
.L536:
.LBE2979:
.LBE3037:
	.loc 2 325 0
	mr 3,30
	li 4,0
	bl _ZN13idAsyncServer15InitLocalClientEi
	b .L501
.L495:
	.loc 2 288 0 discriminator 5
	cmpwi 7,0,0
	beq+ 7,.L498
	b .L496
.LVL1076:
.L538:
	.loc 2 369 0
	mr 3,30
	mr 4,29
	bl _ZN13idAsyncServer24SendReliablePureToClientEi
	cmpwi 7,3,0
	bne- 7,.L511
	.loc 2 370 0
	stw 28,5956(24)
	b .L511
.LVL1077:
.L507:
	.loc 2 360 0
	lwz 3,game@l(22)
	li 4,-1
	lwz 9,0(3)
	lwz 0,16(9)
	mtctr 0
	bctrl
	b .L508
.LVL1078:
.L522:
.LBB3038:
.LBB3001:
.LBB2997:
.LBB2993:
	.loc 9 245 0
	la 3,.LC67@l(20)
.LVL1079:
	b .L503
.LVL1080:
.L537:
.LBE2993:
.LBE2997:
.LBE3001:
.LBE3038:
	.loc 2 348 0
	lis 29,common@ha
	lis 11,session@ha
	lwz 3,common@l(29)
	lwz 30,session@l(11)
.LVL1081:
	lwz 9,0(3)
	lwz 0,104(9)
	lwz 9,0(30)
	mtctr 0
	lwz 28,52(9)
	bctrl
	lis 4,.LC94@ha
	la 4,.LC94@l(4)
	bl _ZNK10idLangDict9GetStringEPKc
	.loc 2 348 0 is_stmt 0 discriminator 1
	mr 27,3
	lwz 3,common@l(29)
	lwz 9,0(3)
	lwz 0,104(9)
	mtctr 0
	bctrl
	.loc 2 348 0 discriminator 2
	lis 4,.LC95@ha
	la 4,.LC95@l(4)
	bl _ZNK10idLangDict9GetStringEPKc
	.loc 2 348 0 discriminator 3
	mr 6,3
	li 4,0
	mr 3,30
	mr 5,27
	li 7,1
	li 8,0
	li 9,0
	li 10,0
	mtctr 28
	bctrl
.LEHE22:
	b .L532
.LVL1082:
.L523:
.LBB3039:
.LBB3012:
.LBB3011:
.LBB3010:
	.loc 9 245 0 is_stmt 1
	lis 3,.LC67@ha
.LVL1083:
	la 3,.LC67@l(3)
	b .L505
.LVL1084:
.L524:
.LBE3010:
.LBE3011:
.LBE3012:
.LBE3039:
.LBB3040:
.LBB3020:
.LBB3019:
.LBB3018:
	lis 3,.LC67@ha
.LVL1085:
	la 3,.LC67@l(3)
	b .L509
.LVL1086:
.L525:
	mr 30,3
.LVL1087:
.LBE3018:
.LBE3019:
.LBE3020:
.LBE3040:
.LBB3041:
.LBB3042:
.LBB3043:
	.loc 4 501 0
	mr 3,31
	bl _ZN5idStr8FreeDataEv
	mr 3,30
.LEHB23:
	bl _Unwind_Resume
.LEHE23:
.LBE3043:
.LBE3042:
.LBE3041:
.LBE3046:
	.cfi_endproc
.LFE2561:
	.section	.gcc_except_table
.LLSDA2561:
	.byte	0xff
	.byte	0xff
	.byte	0x1
	.uleb128 .LLSDACSE2561-.LLSDACSB2561
.LLSDACSB2561:
	.uleb128 .LEHB19-.LFB2561
	.uleb128 .LEHE19-.LEHB19
	.uleb128 0
	.uleb128 0
	.uleb128 .LEHB20-.LFB2561
	.uleb128 .LEHE20-.LEHB20
	.uleb128 .L525-.LFB2561
	.uleb128 0
	.uleb128 .LEHB21-.LFB2561
	.uleb128 .LEHE21-.LEHB21
	.uleb128 0
	.uleb128 0
	.uleb128 .LEHB22-.LFB2561
	.uleb128 .LEHE22-.LEHB22
	.uleb128 .L525-.LFB2561
	.uleb128 0
	.uleb128 .LEHB23-.LFB2561
	.uleb128 .LEHE23-.LEHB23
	.uleb128 0
	.uleb128 0
.LLSDACSE2561:
	.section	".text"
	.size	_ZN13idAsyncServer16ExecuteMapChangeEv, .-_ZN13idAsyncServer16ExecuteMapChangeEv
	.align 2
	.globl _ZN13idAsyncServer5SpawnEv
	.type	_ZN13idAsyncServer5SpawnEv, @function
_ZN13idAsyncServer5SpawnEv:
.LFB2559:
	.loc 2 155 0
	.cfi_startproc
.LVL1088:
	mflr 0
	stwu 1,-16416(1)
.LCFI162:
	.cfi_def_cfa_offset 16416
	.cfi_register 65, 0
.LBB3047:
	.loc 2 161 0
	lis 9,session@ha
.LBE3047:
	.loc 2 155 0
	stw 31,16412(1)
	mr 31,3
	.cfi_offset 31, -4
	stw 0,16420(1)
	stw 30,16408(1)
.LBB3050:
	.loc 2 161 0
	lwz 9,session@l(9)
	lwz 11,0(9)
	mr 3,9
.LVL1089:
	lwz 0,16(11)
	.cfi_offset 30, -8
	.cfi_offset 65, 4
	mtctr 0
	bctrl
	.loc 2 163 0
	lbz 0,0(31)
	cmpwi 7,0,0
	beq- 7,.L546
.L539:
.LBE3050:
	.loc 2 200 0
	lwz 0,16420(1)
	lwz 30,16408(1)
	mtlr 0
	lwz 31,16412(1)
.LVL1090:
	addi 1,1,16416
	.cfi_remember_state
.LCFI163:
	.cfi_def_cfa_offset 0
	.cfi_restore 31
	.cfi_restore 30
	blr
.LVL1091:
.L546:
.LCFI164:
	.cfi_restore_state
.LBB3051:
	.loc 2 167 0
	mr 3,31
	bl _ZN13idAsyncServer8InitPortEv
	cmpwi 7,3,0
	beq- 7,.L539
	addi 30,31,12
.L541:
	.loc 2 172 0 discriminator 1
	mr 3,30
	addi 4,1,12
	addi 5,1,24
	addi 6,1,8
	li 7,16384
	bl _ZN6idPort9GetPacketER8netadr_tPvRii
	cmpwi 7,3,0
	bne+ 7,.L541
.LBB3048:
.LBB3049:
	.loc 2 176 0
	lis 9,_ZN14idAsyncNetwork11allowCheatsE+44@ha
	.loc 7 142 0
	lwz 9,_ZN14idAsyncNetwork11allowCheatsE+44@l(9)
.LBE3049:
.LBE3048:
	.loc 2 176 0
	lwz 0,36(9)
	cmpwi 7,0,0
	beq- 7,.L547
.L542:
	.loc 2 180 0
	li 4,0
	li 5,5888
	addi 3,31,60
	.loc 2 182 0
	li 30,0
	.loc 2 180 0
	bl memset
	.loc 2 181 0
	addis 3,31,0x4
	li 5,0
	addi 3,3,6924
	li 4,0
	ori 5,5,32768
	bl memset
.LVL1092:
.L543:
	.loc 2 183 0 discriminator 2
	mr 4,30
	mr 3,31
	bl _ZN13idAsyncServer11ClearClientEi
.LVL1093:
	.loc 2 182 0 discriminator 2
	cmpwi 7,30,3
	addi 30,30,1
.LVL1094:
	bne+ 7,.L543
	.loc 2 186 0
	lis 9,common@ha
	lis 4,.LC96@ha
	lwz 3,common@l(9)
	la 4,.LC96@l(4)
	lhz 5,40(31)
	lwz 9,0(3)
	lwz 0,68(9)
	mtctr 0
	crxor 6,6,6
	bctrl
	.loc 2 189 0
	lis 9,declManager@ha
	lwz 3,declManager@l(9)
	lwz 9,0(3)
	lwz 0,44(9)
	mtctr 0
	bctrl
	stw 3,52(31)
	.loc 2 192 0
	bl _Z16Sys_Millisecondsv
	.loc 2 196 0
	addis 9,31,0x5
	li 0,0
	.loc 2 192 0
	rlwinm 3,3,0,17,31
	.loc 2 194 0
	li 11,1
	.loc 2 192 0
	stw 3,48(31)
	.loc 2 194 0
	stb 11,0(31)
	.loc 2 199 0
	mr 3,31
	.loc 2 196 0
	stw 0,-25816(9)
	.loc 2 197 0
	stw 0,-25812(9)
	.loc 2 199 0
	bl _ZN13idAsyncServer16ExecuteMapChangeEv
.LBE3051:
	.loc 2 200 0
	lwz 0,16420(1)
	lwz 30,16408(1)
.LVL1095:
	mtlr 0
	lwz 31,16412(1)
.LVL1096:
	addi 1,1,16416
	.cfi_remember_state
	.cfi_restore 30
	.cfi_restore 31
.LCFI165:
	.cfi_def_cfa_offset 0
	blr
.LVL1097:
.L547:
.LCFI166:
	.cfi_restore_state
.LBB3052:
	.loc 2 177 0
	lis 9,cvarSystem@ha
	li 4,8192
	lwz 3,cvarSystem@l(9)
	lwz 9,0(3)
	lwz 0,84(9)
	mtctr 0
	bctrl
	b .L542
.LBE3052:
	.cfi_endproc
.LFE2559:
	.size	_ZN13idAsyncServer5SpawnEv, .-_ZN13idAsyncServer5SpawnEv
	.align 2
	.globl _ZN13idAsyncServer21SendEnterGameToClientEi
	.type	_ZN13idAsyncServer21SendEnterGameToClientEi, @function
_ZN13idAsyncServer21SendEnterGameToClientEi:
.LFB2626:
	.loc 2 2629 0
	.cfi_startproc
.LVL1098:
	stwu 1,-16432(1)
.LCFI167:
	.cfi_def_cfa_offset 16432
	mflr 0
	stw 30,16424(1)
	mr 30,3
	.cfi_offset 30, -8
	.cfi_register 65, 0
.LBB3060:
	.loc 2 2630 0
	addi 3,1,8
.LVL1099:
.LBE3060:
	.loc 2 2629 0
	stw 0,16436(1)
	stw 31,16428(1)
	.loc 2 2629 0
	mr 31,4
	.cfi_offset 31, -4
	.cfi_offset 65, 4
.LBB3077:
	.loc 2 2630 0
	bl _ZN8idBitMsgC1Ev
.LVL1100:
.LBB3061:
.LBB3062:
	.loc 3 156 0
	addi 0,1,40
.LBE3062:
.LBE3061:
.LBB3066:
.LBB3067:
	.loc 3 284 0
	addi 3,1,8
.LVL1101:
.LBE3067:
.LBE3066:
.LBB3071:
.LBB3063:
	.loc 3 156 0
	stw 0,8(1)
	.loc 3 157 0
	stw 0,12(1)
.LBE3063:
.LBE3071:
.LBB3072:
.LBB3068:
	.loc 3 284 0
	li 4,8
.LBE3068:
.LBE3072:
.LBB3073:
.LBB3064:
	.loc 3 158 0
	li 0,16384
.LBE3064:
.LBE3073:
.LBB3074:
.LBB3069:
	.loc 3 284 0
	li 5,8
.LBE3069:
.LBE3074:
.LBB3075:
.LBB3065:
	.loc 3 158 0
	stw 0,16(1)
.LVL1102:
.LBE3065:
.LBE3075:
.LBB3076:
.LBB3070:
	.loc 3 284 0
	bl _ZN8idBitMsg9WriteBitsEii
.LVL1103:
.LBE3070:
.LBE3076:
	.loc 2 2635 0
	mr 3,30
	mr 4,31
	addi 5,1,8
.LVL1104:
	bl _ZN13idAsyncServer19SendReliableMessageEiRK8idBitMsg
.LVL1105:
.LBE3077:
	.loc 2 2636 0
	lwz 0,16436(1)
	lwz 30,16424(1)
.LVL1106:
	mtlr 0
	lwz 31,16428(1)
.LVL1107:
	addi 1,1,16432
.LCFI168:
	.cfi_def_cfa_offset 0
	.cfi_restore 31
	.cfi_restore 30
	blr
	.cfi_endproc
.LFE2626:
	.size	_ZN13idAsyncServer21SendEnterGameToClientEi, .-_ZN13idAsyncServer21SendEnterGameToClientEi
	.align 2
	.globl _ZN13idAsyncServer30ProcessUnreliableClientMessageEiRK8idBitMsg
	.type	_ZN13idAsyncServer30ProcessUnreliableClientMessageEiRK8idBitMsg, @function
_ZN13idAsyncServer30ProcessUnreliableClientMessageEiRK8idBitMsg:
.LFB2599:
	.loc 2 1228 0
	.cfi_startproc
.LVL1108:
	mflr 0
	stwu 1,-56(1)
.LCFI169:
	.cfi_def_cfa_offset 56
	.cfi_register 65, 0
.LBB3109:
	.loc 2 1232 0
	slwi 9,4,8
.LBE3109:
	.loc 2 1228 0
	stw 31,52(1)
	stw 0,60(1)
.LBB3159:
	.loc 2 1232 0
	slwi 0,4,2
	.cfi_offset 65, 4
	.cfi_offset 31, -4
	subf 0,0,9
.LBE3159:
	.loc 2 1228 0
	stw 28,40(1)
.LBB3160:
	.loc 2 1232 0
	add 0,0,4
.LBE3160:
	.loc 2 1228 0
	stw 29,44(1)
.LBB3161:
	.loc 2 1232 0
	slwi 31,0,6
.LBE3161:
	.loc 2 1228 0
	stw 30,48(1)
.LBB3162:
	.loc 2 1232 0
	add 0,0,31
.LBE3162:
	.loc 2 1228 0
	stw 21,12(1)
.LBB3163:
	.loc 2 1232 0
	slwi 0,0,2
.LBE3163:
	.loc 2 1228 0
	stw 22,16(1)
.LBB3164:
	.loc 2 1232 0
	add 31,3,0
.LBE3164:
	.loc 2 1228 0
	stw 23,20(1)
	stw 24,24(1)
.LBB3165:
	.loc 2 1232 0
	addi 31,31,5948
.LVL1109:
.LBE3165:
	.loc 2 1228 0
	stw 25,28(1)
	mr 30,4
	.cfi_offset 25, -28
	.cfi_offset 24, -32
	.cfi_offset 23, -36
	.cfi_offset 22, -40
	.cfi_offset 21, -44
	.cfi_offset 30, -8
	.cfi_offset 29, -12
	.cfi_offset 28, -16
	stw 26,32(1)
	mr 29,3
	stw 27,36(1)
	.loc 2 1228 0
	mr 28,5
.LBB3166:
	.loc 2 1234 0
	lwz 0,8(31)
	cmpwi 7,0,1
	beq- 7,.L550
	.cfi_offset 27, -20
	.cfi_offset 26, -24
.LVL1110:
.LBB3110:
.LBB3111:
	.loc 3 376 0
	li 4,32
.LVL1111:
	mr 3,5
.LVL1112:
	bl _ZNK8idBitMsg8ReadBitsEi
.LVL1113:
.LBE3111:
.LBE3110:
.LBB3113:
.LBB3114:
	li 4,32
.LBE3114:
.LBE3113:
.LBB3117:
.LBB3112:
	mr 26,3
.LVL1114:
.LBE3112:
.LBE3117:
.LBB3118:
.LBB3115:
	mr 3,28
	bl _ZNK8idBitMsg8ReadBitsEi
.LBE3115:
.LBE3118:
	.loc 2 1242 0
	cmpwi 7,3,-2
.LBB3119:
.LBB3116:
	.loc 3 376 0
	mr 27,3
.LBE3116:
.LBE3119:
	.loc 2 1242 0
	beq- 7,.L571
	.loc 2 1250 0
	addis 9,29,0x5
	lwz 0,-25844(9)
	cmpw 7,0,3
	beq- 7,.L553
	.loc 2 1251 0
	lwz 0,28(31)
	cmpw 7,0,26
	blt- 7,.L572
.LBB3120:
.LBB3121:
	.loc 2 1264 0
	lis 9,_ZN14idAsyncNetwork7verboseE+44@ha
	.loc 7 143 0
	lwz 9,_ZN14idAsyncNetwork7verboseE+44@l(9)
.LBE3121:
.LBE3120:
	.loc 2 1264 0
	lwz 0,36(9)
	cmpwi 7,0,0
	bne- 7,.L573
.LVL1115:
.L550:
.LBE3166:
	.loc 2 1348 0
	lwz 0,60(1)
	lwz 21,12(1)
	mtlr 0
	lwz 22,16(1)
	lwz 23,20(1)
	lwz 24,24(1)
	lwz 25,28(1)
	lwz 26,32(1)
	lwz 27,36(1)
	lwz 28,40(1)
.LVL1116:
	lwz 29,44(1)
.LVL1117:
	lwz 30,48(1)
	lwz 31,52(1)
.LVL1118:
	addi 1,1,56
	.cfi_remember_state
.LCFI170:
	.cfi_def_cfa_offset 0
	.cfi_restore 31
	.cfi_restore 30
	.cfi_restore 29
	.cfi_restore 28
	.cfi_restore 27
	.cfi_restore 26
	.cfi_restore 25
	.cfi_restore 24
	.cfi_restore 23
	.cfi_restore 22
	.cfi_restore 21
	blr
.LVL1119:
.L571:
.LCFI171:
	.cfi_restore_state
.LBB3167:
.LBB3122:
.LBB3123:
	.loc 2 1243 0
	lis 9,_ZN14idAsyncNetwork7verboseE+44@ha
	.loc 7 143 0
	lwz 9,_ZN14idAsyncNetwork7verboseE+44@l(9)
.LBE3123:
.LBE3122:
	.loc 2 1243 0
	lwz 0,36(9)
	cmpwi 7,0,0
	beq+ 7,.L550
	.loc 2 1244 0
	lis 9,common@ha
	lis 4,.LC97@ha
	lwz 3,common@l(9)
	la 4,.LC97@l(4)
	mr 5,30
	lwz 9,0(3)
	lwz 0,68(9)
	mtctr 0
	crxor 6,6,6
	bctrl
	b .L550
.L573:
	.loc 2 1265 0
	lis 9,common@ha
	lis 4,.LC98@ha
	lwz 3,common@l(9)
	la 4,.LC98@l(4)
	mr 5,30
	lwz 9,0(3)
	lwz 0,68(9)
	mtctr 0
	crxor 6,6,6
	bctrl
	b .L550
.L572:
	.loc 2 1253 0
	li 0,3
	.loc 2 1256 0
	mr 3,29
	.loc 2 1253 0
	stw 0,8(31)
	.loc 2 1256 0
	mr 4,30
	bl _ZN13idAsyncServer20SendGameInitToClientEi
.LVL1120:
.LBB3124:
.LBB3125:
.LBB3126:
.LBB3127:
	.loc 9 241 0
	lis 3,sessLocal+48@ha
	lis 4,.LC69@ha
	la 3,sessLocal+48@l(3)
	la 4,.LC69@l(4)
	bl _ZNK6idDict7FindKeyEPKc
.LVL1121:
	.loc 9 242 0
	cmpwi 0,3,0
	beq- 0,.L567
.LVL1122:
.LBB3128:
	.loc 2 2829 0
	lwz 9,4(3)
	lwz 3,4(9)
.LVL1123:
.L555:
.LBE3128:
.LBE3127:
.LBE3126:
	.loc 9 257 0
	bl atoi
.LBE3125:
.LBE3124:
	.loc 2 1258 0
	cmpwi 7,3,0
	beq+ 7,.L550
	.loc 2 1259 0
	li 0,2
	.loc 2 1260 0
	mr 3,29
	.loc 2 1259 0
	stw 0,8(31)
	.loc 2 1260 0
	mr 4,30
	bl _ZN13idAsyncServer24SendReliablePureToClientEi
	cmpwi 7,3,0
	bne- 7,.L550
	.loc 2 1261 0
	li 0,3
	stw 0,8(31)
	b .L550
.LVL1124:
.L553:
.LBB3132:
.LBB3133:
	.loc 3 376 0
	mr 3,28
	li 4,32
	bl _ZNK8idBitMsg8ReadBitsEi
.LBE3133:
.LBE3132:
	.loc 2 1270 0
	addis 24,31,0x1
	stw 3,224(24)
.LBB3135:
.LBB3134:
	.loc 3 376 0
	mr 5,3
.LBE3134:
.LBE3135:
	.loc 2 1272 0
	lwz 0,8(31)
	cmpwi 7,0,3
	beq- 7,.L574
	.loc 2 1294 0
	cmpwi 7,0,4
	beq- 7,.L575
.L559:
.LVL1125:
.LBB3136:
.LBB3137:
	.loc 3 364 0
	mr 3,28
	li 4,8
	bl _ZNK8idBitMsg8ReadBitsEi
	rlwinm 5,3,0,0xff
.LVL1126:
.LBE3137:
.LBE3136:
	.loc 2 1304 0
	cmpwi 7,5,1
	beq- 7,.L562
	cmplwi 7,5,1
	bge- 7,.L576
.LBB3138:
.LBB3139:
	.loc 2 1306 0
	lis 9,_ZN14idAsyncNetwork7verboseE+44@ha
	.loc 7 143 0
	lwz 9,_ZN14idAsyncNetwork7verboseE+44@l(9)
.LBE3139:
.LBE3138:
	.loc 2 1306 0
	lwz 0,36(9)
	cmpwi 7,0,0
	beq+ 7,.L550
	.loc 2 1307 0
	lis 9,common@ha
	lis 4,.LC99@ha
	lwz 3,common@l(9)
	la 4,.LC99@l(4)
	mr 5,30
.LVL1127:
	lwz 9,0(3)
	lwz 0,68(9)
	mtctr 0
	crxor 6,6,6
	bctrl
	b .L550
.LVL1128:
.L574:
	.loc 2 1275 0
	li 0,4
	.loc 2 1280 0
	lis 23,sessLocal@ha
	.loc 2 1275 0
	stw 0,8(31)
.LVL1129:
	mr 25,29
	.loc 2 1278 0
	li 26,0
	.loc 2 1280 0
	la 23,sessLocal@l(23)
.LVL1130:
.L558:
	.loc 2 1279 0
	lwz 0,5956(25)
	cmpw 6,26,30
	cmpwi 7,0,2
	ble- 7,.L557
	.loc 2 1280 0 discriminator 1
	mulli 6,26,44
	mr 5,26
	mr 3,29
	mr 4,30
	add 6,23,6
	addi 6,6,136
	.loc 2 1279 0 discriminator 1
	beq- 6,.L557
	.loc 2 1280 0
	bl _ZN13idAsyncServer20SendUserInfoToClientEiiRK6idDict
.L557:
.LVL1131:
	.loc 2 1278 0
	cmpwi 7,26,3
	addis 25,25,0x1
	addi 25,25,244
	addi 26,26,1
.LVL1132:
	bne+ 7,.L558
	.loc 2 1285 0
	lis 5,sessLocal+92@ha
	mr 3,29
	la 5,sessLocal+92@l(5)
	mr 4,30
	bl _ZN13idAsyncServer23SendSyncedCvarsToClientEiRK6idDict
	.loc 2 1290 0
	lis 26,game@ha
.LVL1133:
	.loc 2 1287 0
	mr 3,29
	mr 4,30
	bl _ZN13idAsyncServer21SendEnterGameToClientEi
	.loc 2 1290 0
	lwz 3,game@l(26)
	mr 4,30
	lwz 9,0(3)
	lwz 0,100(9)
	mtctr 0
	bctrl
	.loc 2 1293 0
	lwz 3,game@l(26)
	mr 4,30
	lwz 9,0(3)
	lwz 0,108(9)
	mtctr 0
	bctrl
	b .L559
.LVL1134:
.L576:
	.loc 2 1304 0
	cmpwi 7,5,2
	beq- 7,.L577
	.loc 2 1344 0
	lis 9,common@ha
	lis 4,.LC101@ha
	lwz 3,common@l(9)
	la 4,.LC101@l(4)
	mr 6,30
	lwz 9,0(3)
	lwz 0,68(9)
	mtctr 0
	crxor 6,6,6
	bctrl
.LVL1135:
	.loc 2 1345 0
	b .L550
.LVL1136:
.L562:
	.loc 2 1312 0
	lwz 30,4(29)
.LVL1137:
.LBB3140:
.LBB3141:
	.loc 3 376 0
	mr 3,28
	li 4,32
	bl _ZNK8idBitMsg8ReadBitsEi
.LVL1138:
.LBE3141:
.LBE3140:
	.loc 2 1312 0
	subf 3,3,30
	stw 3,24(31)
	.loc 2 1313 0
	b .L550
.LVL1139:
.L577:
.LBB3142:
.LBB3143:
	.loc 3 368 0
	li 4,-16
	mr 3,28
	bl _ZNK8idBitMsg8ReadBitsEi
.LVL1140:
.LBE3143:
.LBE3142:
.LBB3145:
.LBB3146:
	.loc 3 376 0
	li 4,32
.LBE3146:
.LBE3145:
.LBB3149:
.LBB3144:
	.loc 3 368 0
	extsh 3,3
	stw 3,12(31)
.LVL1141:
.LBE3144:
.LBE3149:
.LBB3150:
.LBB3147:
	.loc 3 376 0
	mr 3,28
	bl _ZNK8idBitMsg8ReadBitsEi
.LBE3147:
.LBE3150:
.LBB3151:
.LBB3152:
	.loc 3 364 0
	li 4,8
.LBE3152:
.LBE3151:
.LBB3154:
.LBB3148:
	.loc 3 376 0
	mr 22,3
.LVL1142:
.LBE3148:
.LBE3154:
.LBB3155:
.LBB3153:
	.loc 3 364 0
	mr 3,28
	bl _ZNK8idBitMsg8ReadBitsEi
.LVL1143:
	rlwinm 3,3,0,0xff
.LVL1144:
.LBE3153:
.LBE3155:
	.loc 2 1322 0
	subf 26,3,22
	addi 26,26,1
.LVL1145:
	cmpw 7,26,22
	bgt- 7,.L564
	li 5,0
	.loc 2 1326 0
	li 21,0
.LVL1146:
.L566:
	.loc 2 1324 0
	rlwinm 23,26,2,22,29
	mr 3,28
	add 23,23,30
	addi 23,23,8408
	slwi 23,23,5
	add 23,29,23
	addi 25,23,12
	mr 4,25
	bl _ZN14idAsyncNetwork16ReadUserCmdDeltaERK8idBitMsgR9usercmd_tPKS3_
	.loc 2 1228 0
	addi 3,26,-1
	.loc 2 1327 0
	rlwinm 3,3,2,22,29
	.loc 2 1325 0
	stw 26,12(23)
	.loc 2 1327 0
	add 3,3,30
	.loc 2 1326 0
	stw 21,20(23)
	.loc 2 1327 0
	addi 3,3,8408
	mr 4,25
	slwi 3,3,5
	.loc 2 1322 0
	addi 26,26,1
.LVL1147:
	.loc 2 1327 0
	add 3,29,3
	addi 3,3,12
	bl _ZN14idAsyncNetwork19UsercmdInputChangedERK9usercmd_tS2_
.LVL1148:
	.loc 2 1322 0
	cmpw 7,26,22
	.loc 2 1327 0
	cmpwi 6,3,0
	.loc 2 1324 0
	mr 5,25
	.loc 2 1327 0
	beq- 6,.L565
	.loc 2 1328 0
	lwz 0,8(29)
	stw 0,216(24)
.LVL1149:
.L565:
	.loc 2 1322 0
	ble+ 7,.L566
	.loc 2 1334 0
	lwz 0,0(25)
	stw 0,32(31)
	.loc 2 1335 0
	lwz 0,4(25)
	stw 0,36(31)
.LVL1150:
.L564:
.LBB3156:
.LBB3157:
	.loc 2 1338 0
	lis 9,_ZN14idAsyncNetwork7verboseE+44@ha
	.loc 7 143 0
	lwz 9,_ZN14idAsyncNetwork7verboseE+44@l(9)
.LBE3157:
.LBE3156:
	.loc 2 1338 0
	lwz 0,36(9)
	cmpwi 7,0,2
	bne+ 7,.L550
	.loc 2 1339 0
	lis 9,common@ha
	lis 4,.LC100@ha
	lwz 3,common@l(9)
	la 4,.LC100@l(4)
	mr 5,30
	mr 6,27
	lwz 9,0(3)
	lwz 7,32(31)
	lwz 0,68(9)
	lwz 8,36(31)
	mtctr 0
	crxor 6,6,6
	bctrl
	b .L550
.LVL1151:
.L567:
.LBB3158:
.LBB3131:
.LBB3130:
.LBB3129:
	.loc 9 245 0
	lis 3,.LC67@ha
.LVL1152:
	la 3,.LC67@l(3)
	b .L555
.LVL1153:
.L575:
.LBE3129:
.LBE3130:
.LBE3131:
.LBE3158:
	.loc 2 1297 0
	lis 9,game@ha
	mr 4,30
	lwz 3,game@l(9)
	lwz 9,0(3)
	lwz 0,116(9)
	mtctr 0
	bctrl
	cmpwi 7,3,0
	beq+ 7,.L559
	.loc 2 1298 0
	lwz 5,224(24)
	mr 3,29
	mr 4,30
	bl _ZN13idAsyncServer25SendApplySnapshotToClientEii
	b .L559
.LBE3167:
	.cfi_endproc
.LFE2599:
	.size	_ZN13idAsyncServer30ProcessUnreliableClientMessageEiRK8idBitMsg, .-_ZN13idAsyncServer30ProcessUnreliableClientMessageEiRK8idBitMsg
	.align 2
	.globl _ZN13idAsyncServer19UpdateAsyncStatsAvgEv
	.type	_ZN13idAsyncServer19UpdateAsyncStatsAvgEv, @function
_ZN13idAsyncServer19UpdateAsyncStatsAvgEv:
.LFB2627:
	.loc 2 2643 0
	.cfi_startproc
.LVL1154:
.LBB3168:
	.loc 2 2644 0
	addis 9,3,0x5
	lis 7,_ZN14idAsyncNetwork6serverE@ha
	lwz 6,-25560(9)
	.loc 2 406 0
	li 8,0
	.loc 2 2644 0
	lwz 4,-25556(9)
	la 7,_ZN14idAsyncNetwork6serverE@l(7)
	addis 5,6,0x1
	addi 11,5,9932
	slwi 11,11,2
	add 11,3,11
	lwz 0,8(11)
	.loc 2 407 0
	li 11,0
	.loc 2 2644 0
	subf 4,0,4
	li 0,4
	stw 4,-25556(9)
.LVL1155:
	mtctr 0
.LVL1156:
.L580:
.LBB3169:
.LBB3170:
.LBB3171:
.LBB3172:
	.loc 2 408 0
	slwi 10,11,8
	slwi 0,11,2
	subf 0,0,10
	add 0,0,11
.LBE3172:
	.loc 2 407 0
	addi 11,11,1
.LBB3173:
	.loc 2 408 0
	slwi 10,0,6
	add 10,0,10
	slwi 10,10,2
	add 10,7,10
.LVL1157:
	.loc 2 410 0
	lwz 0,5956(10)
	.loc 2 408 0
	addi 10,10,5948
.LVL1158:
	.loc 2 410 0
	cmpwi 7,0,2
	ble- 7,.L579
	.loc 2 411 0
	lwz 10,76(10)
.LVL1159:
	add 8,8,10
.LVL1160:
.L579:
.LBE3173:
	.loc 2 407 0
	bdnz .L580
.LBE3171:
.LBE3170:
.LBE3169:
	.loc 2 2645 0
	addi 11,5,9932
.LVL1161:
	slwi 11,11,2
	add 11,3,11
	stw 8,8(11)
.LBB3176:
	.loc 2 2646 0
	lwz 0,-25552(9)
	cmpw 7,0,8
	blt- 7,.L589
.LBB3177:
	.loc 2 2649 0
	lwz 0,-25548(9)
	cmpw 7,6,0
	beq- 7,.L590
.LBE3177:
.LBE3176:
	.loc 2 2661 0
	lis 11,0x8888
	addi 0,6,1
	ori 11,11,34953
	srawi 10,0,31
	mulhw 11,0,11
	.loc 2 2660 0
	add 8,4,8
.LVL1162:
	stw 8,-25556(9)
	.loc 2 2661 0
	add 11,11,0
	srawi 11,11,5
	subf 11,10,11
	mulli 11,11,60
	subf 0,11,0
	stw 0,-25560(9)
.LBE3168:
	.loc 2 2662 0
	blr
.LVL1163:
.L590:
.LBB3194:
.LBB3186:
.LBB3182:
.LBB3178:
	.loc 2 2652 0
	li 0,0
	.loc 2 2643 0
	addi 10,9,-25804
	.loc 2 2652 0
	stw 0,-25552(9)
.LVL1164:
.LBE3178:
.LBE3182:
.LBE3186:
.LBB3187:
.LBB3175:
.LBB3174:
	.loc 2 2653 0
	li 0,60
	.loc 2 2643 0
	li 8,0
.LVL1165:
	.loc 2 2653 0
	li 11,0
.LVL1166:
	mtctr 0
	b .L585
.LVL1167:
.L591:
.LBE3174:
.LBE3175:
.LBE3187:
.LBB3188:
.LBB3183:
.LBB3179:
	lwz 8,-25552(9)
.LVL1168:
.L585:
	.loc 2 2654 0
	lwzu 0,4(10)
	cmpw 7,0,8
	ble- 7,.L583
	.loc 2 2655 0
	stw 0,-25552(9)
	.loc 2 2656 0
	stw 11,-25548(9)
.L583:
	.loc 2 2653 0
	addi 11,11,1
.LVL1169:
	bdnz .L591
.LBE3179:
.LBE3183:
.LBE3188:
	.loc 2 2661 0
	lis 11,0x8888
.LVL1170:
	addi 0,6,1
	ori 11,11,34953
.LBB3189:
.LBB3184:
.LBB3180:
	.loc 2 2653 0
	addi 5,5,9932
.LBE3180:
.LBE3184:
.LBE3189:
	.loc 2 2661 0
	mulhw 11,0,11
	srawi 10,0,31
.LBB3190:
.LBB3185:
.LBB3181:
	.loc 2 2653 0
	slwi 5,5,2
	add 3,3,5
.LVL1171:
	lwz 8,8(3)
.LBE3181:
.LBE3185:
.LBE3190:
	.loc 2 2661 0
	add 11,11,0
	srawi 11,11,5
	.loc 2 2660 0
	add 8,4,8
	.loc 2 2661 0
	subf 11,10,11
	.loc 2 2660 0
	stw 8,-25556(9)
	.loc 2 2661 0
	mulli 11,11,60
	subf 0,11,0
	stw 0,-25560(9)
.LBE3194:
	.loc 2 2662 0
	blr
.LVL1172:
.L589:
.LBB3195:
.LBB3191:
	.loc 2 2647 0
	stw 8,-25552(9)
.LBE3191:
	.loc 2 2661 0
	addi 0,6,1
.LBB3192:
	.loc 2 2648 0
	stw 6,-25548(9)
.LBE3192:
	.loc 2 2661 0
	srawi 10,0,31
.LBB3193:
	.loc 2 2648 0
	lwz 8,8(11)
.LVL1173:
.LBE3193:
	.loc 2 2661 0
	lis 11,0x8888
.LVL1174:
	ori 11,11,34953
	mulhw 11,0,11
	.loc 2 2660 0
	add 8,4,8
	stw 8,-25556(9)
	.loc 2 2661 0
	add 11,11,0
	srawi 11,11,5
	subf 11,10,11
	mulli 11,11,60
	subf 0,11,0
	stw 0,-25560(9)
.LBE3195:
	.loc 2 2662 0
	blr
	.cfi_endproc
.LFE2627:
	.size	_ZN13idAsyncServer19UpdateAsyncStatsAvgEv, .-_ZN13idAsyncServer19UpdateAsyncStatsAvgEv
	.align 2
	.globl _ZN13idAsyncServer19GetAsyncStatsAvgMsgER5idStr
	.type	_ZN13idAsyncServer19GetAsyncStatsAvgMsgER5idStr, @function
_ZN13idAsyncServer19GetAsyncStatsAvgMsgER5idStr:
.LFB2628:
	.loc 2 2669 0
	.cfi_startproc
.LVL1175:
	mflr 0
	stwu 1,-8(1)
.LCFI172:
	.cfi_def_cfa_offset 8
	.cfi_register 65, 0
	.loc 2 2670 0
	addis 3,3,0x5
.LVL1176:
	lis 5,0x8888
	ori 5,5,34953
.LBB3196:
.LBB3197:
	lis 9,_ZN14idAsyncNetwork19serverSnapshotDelayE+44@ha
.LBE3197:
.LBE3196:
	.loc 2 2669 0
	stw 0,12(1)
.LBB3199:
.LBB3198:
	.loc 7 143 0
	lwz 9,_ZN14idAsyncNetwork19serverSnapshotDelayE+44@l(9)
.LBE3198:
.LBE3199:
	.loc 2 2670 0
	lwz 0,-25556(3)
	.cfi_offset 65, 4
	lwz 7,36(9)
	mulhw 5,0,5
	lwz 6,-25552(3)
	mr 3,4
.LVL1177:
	lis 4,.LC102@ha
.LVL1178:
	la 4,.LC102@l(4)
	add 5,5,0
	mulli 7,7,60
	srawi 0,0,31
	srawi 5,5,5
	subf 5,0,5
	crxor 6,6,6
	bl _Z7sprintfR5idStrPKcz
.LVL1179:
	.loc 2 2671 0
	lwz 0,12(1)
	addi 1,1,8
.LCFI173:
	.cfi_def_cfa_offset 0
	mtlr 0
	blr
	.cfi_endproc
.LFE2628:
	.size	_ZN13idAsyncServer19GetAsyncStatsAvgMsgER5idStr, .-_ZN13idAsyncServer19GetAsyncStatsAvgMsgER5idStr
	.section	.text._ZN6idListI5idStrE5ClearEv,"axG",@progbits,_ZN6idListI5idStrE5ClearEv,comdat
	.align 2
	.weak	_ZN6idListI5idStrE5ClearEv
	.type	_ZN6idListI5idStrE5ClearEv, @function
_ZN6idListI5idStrE5ClearEv:
.LFB2817:
	.file 12 "d:/Data/Nintendo/DoomGX/src/framework/async/../../idlib/../idlib/containers/List.h"
	.loc 12 192 0
	.cfi_startproc
.LVL1180:
	mflr 0
	stwu 1,-16(1)
.LCFI174:
	.cfi_def_cfa_offset 16
	.cfi_register 65, 0
	stw 30,8(1)
	mr 30,3
	.cfi_offset 30, -8
	stw 0,20(1)
	stw 31,12(1)
	.loc 12 193 0
	lwz 3,12(3)
.LVL1181:
	cmpwi 7,3,0
	beq- 7,.L594
	.cfi_offset 31, -4
	.cfi_offset 65, 4
	.loc 12 194 0 discriminator 1
	lwz 31,-4(3)
	slwi 31,31,5
	add 31,3,31
	cmpw 7,3,31
	beq- 7,.L595
.L599:
	.loc 12 194 0 is_stmt 0 discriminator 4
	addi 31,31,-32
.LVL1182:
.LBB3203:
.LBB3204:
.LBB3205:
	.loc 4 501 0 is_stmt 1 discriminator 4
	mr 3,31
	bl _ZN5idStr8FreeDataEv
.LBE3205:
.LBE3204:
.LBE3203:
	.loc 12 194 0 discriminator 4
	lwz 3,12(30)
	cmpw 7,3,31
	bne+ 7,.L599
.LVL1183:
.L595:
	.loc 12 194 0 is_stmt 0 discriminator 3
	addi 3,3,-4
	bl _ZdaPv
.L594:
	.loc 12 197 0 is_stmt 1
	li 0,0
	stw 0,12(30)
	.loc 12 198 0
	stw 0,0(30)
	.loc 12 199 0
	stw 0,4(30)
	.loc 12 200 0
	lwz 0,20(1)
	lwz 30,8(1)
.LVL1184:
	mtlr 0
	lwz 31,12(1)
	addi 1,1,16
.LCFI175:
	.cfi_def_cfa_offset 0
	.cfi_restore 31
	.cfi_restore 30
	blr
	.cfi_endproc
.LFE2817:
	.size	_ZN6idListI5idStrE5ClearEv, .-_ZN6idListI5idStrE5ClearEv
	.section	".text"
	.align 2
	.globl _ZN13idAsyncServer29ProcessDownloadRequestMessageE8netadr_tRK8idBitMsg
	.type	_ZN13idAsyncServer29ProcessDownloadRequestMessageE8netadr_tRK8idBitMsg, @function
_ZN13idAsyncServer29ProcessDownloadRequestMessageE8netadr_tRK8idBitMsg:
.LFB2629:
	.loc 2 2678 0
	.cfi_startproc
	.cfi_personality 0,__gxx_personality_v0
	.cfi_lsda 0,.LLSDA2629
.LVL1185:
	lis 0,0xffff
	mr 12,1
	ori 0,0,30880
.LBB3533:
.LBB3534:
.LBB3535:
	.loc 12 159 0
	li 9,16
.LBE3535:
.LBE3534:
.LBE3533:
	.loc 2 2678 0
	stwux 1,1,0
.LCFI176:
	.cfi_def_cfa_offset 34656
.LVL1186:
	mflr 0
	addis 8,1,0x1
	stw 0,4(12)
	mfcr 0
	stw 16,-64(12)
	mr 16,4
	.cfi_offset 16, -64
	.cfi_register 70, 0
	.cfi_offset 65, 4
	stw 19,-52(12)
	mr 19,5
	.cfi_offset 19, -52
	stw 0,-76(12)
.LBB4115:
.LBB3543:
.LBB3540:
.LBB3536:
.LBB3537:
	.loc 12 197 0
	li 0,0
	.cfi_offset 70, -76
.LBE3537:
.LBE3536:
.LBE3540:
.LBE3543:
.LBE4115:
	.loc 2 2678 0
	stw 14,-72(12)
	stw 15,-68(12)
	stw 17,-60(12)
	stw 18,-56(12)
	stw 20,-48(12)
	stw 21,-44(12)
	stw 22,-40(12)
	stw 23,-36(12)
	stw 24,-32(12)
	stw 25,-28(12)
	stw 26,-24(12)
	stw 27,-20(12)
	stw 28,-16(12)
	stw 29,-12(12)
	stw 30,-8(12)
	stw 31,-4(12)
.LBB4116:
.LBB3544:
.LBB3541:
	.loc 12 159 0
	stw 9,32(1)
.LVL1187:
.LBE3541:
.LBE3544:
.LBB3545:
.LBB3546:
	stw 9,16(1)
.LBE3546:
.LBE3545:
.LBB3550:
.LBB3551:
.LBB3552:
	.loc 4 357 0
	li 9,20
.LBE3552:
.LBE3551:
.LBE3550:
.LBE4116:
	.loc 2 2678 0
	stw 3,-30972(8)
.LBB4117:
	.loc 2 2689 0
	addi 3,1,168
.LVL1188:
.LBB3555:
.LBB3542:
.LBB3539:
.LBB3538:
	.loc 12 197 0
	stw 0,36(1)
	.loc 12 198 0
	stw 0,24(1)
	.loc 12 199 0
	stw 0,28(1)
.LVL1189:
.LBE3538:
.LBE3539:
.LBE3542:
.LBE3555:
.LBB3556:
.LBB3549:
.LBB3547:
.LBB3548:
	.loc 12 197 0
	stw 0,20(1)
	.loc 12 198 0
	stw 0,8(1)
	.loc 12 199 0
	stw 0,12(1)
.LVL1190:
.LBE3548:
.LBE3547:
.LBE3549:
.LBE3556:
.LBB3557:
.LBB3554:
.LBB3553:
	.loc 4 356 0
	stw 0,200(1)
	.loc 4 357 0
	stw 9,208(1)
	.loc 4 358 0
	addi 9,1,212
	stw 9,204(1)
	.loc 4 359 0
	stb 0,212(1)
.LEHB24:
.LBE3553:
.LBE3554:
.LBE3557:
	.loc 2 2689 0
	.cfi_offset 31, -4
	.cfi_offset 30, -8
	.cfi_offset 29, -12
	.cfi_offset 28, -16
	.cfi_offset 27, -20
	.cfi_offset 26, -24
	.cfi_offset 25, -28
	.cfi_offset 24, -32
	.cfi_offset 23, -36
	.cfi_offset 22, -40
	.cfi_offset 21, -44
	.cfi_offset 20, -48
	.cfi_offset 18, -56
	.cfi_offset 17, -60
	.cfi_offset 15, -68
	.cfi_offset 14, -72
	bl _ZN8idBitMsgC1Ev
.LEHE24:
.LVL1191:
	.loc 2 2689 0 is_stmt 0 discriminator 1
	addi 3,1,136
.LEHB25:
	bl _ZN8idBitMsgC1Ev
.LEHE25:
.LVL1192:
	addi 10,1,8
	addis 9,1,0x1
.LVL1193:
	stw 10,-30976(9)
.LBB3558:
.LBB3559:
	.loc 3 376 0 is_stmt 1
	mr 3,19
	li 4,32
	addi 28,1,200
	addi 30,1,24
.LEHB26:
	bl _ZNK8idBitMsg8ReadBitsEi
.LVL1194:
	addi 0,1,8
	addis 11,1,0x1
.LVL1195:
	stw 0,-30976(11)
	mr 29,3
.LVL1196:
.LBE3559:
.LBE3558:
.LBB3560:
.LBB3561:
	.loc 3 368 0
	li 4,-16
	mr 3,19
	addi 28,1,200
	addi 30,1,24
	bl _ZNK8idBitMsg8ReadBitsEi
.LVL1197:
	addi 9,1,8
	addis 8,1,0x1
.LVL1198:
	stw 9,-30976(8)
	mr 31,3
.LVL1199:
.LBE3561:
.LBE3560:
.LBB3562:
.LBB3563:
	.loc 3 376 0
	li 4,32
	mr 3,19
	addi 28,1,200
	addi 30,1,24
	bl _ZNK8idBitMsg8ReadBitsEi
.LVL1200:
	addis 10,1,0x1
.LVL1201:
.LBE3563:
.LBE3562:
	.loc 2 2697 0
	addi 11,1,8
	stw 11,-30976(10)
	mr 5,29
	lwz 11,0(16)
	extsh 6,31
	lwz 9,4(16)
	mr 14,10
	lwz 0,8(16)
	addi 28,1,200
	lwz 8,-30976(10)
	addi 30,1,24
.LBB3565:
.LBB3564:
	.loc 3 376 0
	stw 3,-30964(10)
.LBE3564:
.LBE3565:
	.loc 2 2697 0
	addis 4,8,0x1
	lwz 3,-30972(10)
	stw 11,-30992(10)
	addi 4,4,-31000
	stw 9,-30988(10)
	stw 0,-30984(10)
	bl _ZN13idAsyncServer17ValidateChallengeE8netadr_tii
.LVL1202:
	cmpwi 7,3,-1
	beq- 7,.L843
	.loc 2 2701 0
	addis 9,1,0x1
	mulli 10,3,92
	lwz 0,-30972(9)
	stw 10,-30968(9)
	add 9,0,10
	lwz 0,92(9)
	cmpwi 7,0,3
	beq- 7,.L602
	.loc 2 2702 0
	lis 9,common@ha
	addis 8,1,0x1
	lwz 31,common@l(9)
	addi 28,1,200
	lwz 8,-30976(8)
	addi 30,1,24
	lwz 10,0(31)
	lwz 11,0(16)
	addis 3,8,0x1
.LVL1203:
	lwz 9,4(16)
	addi 3,3,-31000
	lwz 0,8(16)
	lwz 29,76(10)
	stw 11,-30992(14)
	stw 9,-30988(14)
	stw 0,-30984(14)
	bl _Z18Sys_NetAdrToString8netadr_t
	lis 4,.LC103@ha
	mr 5,3
	la 4,.LC103@l(4)
	mr 3,31
	mtctr 29
	addi 28,1,200
	addi 30,1,24
	crxor 6,6,6
	bctrl
.LEHE26:
.L843:
	addi 28,1,200
.LVL1204:
.L733:
.LBB3566:
.LBB3567:
.LBB3568:
	.loc 4 501 0
	mr 3,28
.LEHB27:
	bl _ZN5idStr8FreeDataEv
.LEHE27:
.LVL1205:
.LBE3568:
.LBE3567:
.LBE3566:
.LBB3569:
.LBB3570:
.LBB3571:
.LBB3572:
	.loc 12 193 0
	lwz 9,20(1)
	cmpwi 7,9,0
	beq- 7,.L739
	.loc 12 194 0
	lwz 31,-4(9)
	slwi 31,31,5
	add 31,9,31
	b .L740
.L844:
	addi 31,31,-32
.LVL1206:
.LBB3573:
.LBB3574:
.LBB3575:
	.loc 4 501 0
	mr 3,31
.LEHB28:
	bl _ZN5idStr8FreeDataEv
.LEHE28:
	lwz 9,20(1)
.LVL1207:
.L740:
.LBE3575:
.LBE3574:
.LBE3573:
	.loc 12 194 0
	cmpw 7,31,9
	bne+ 7,.L844
	addi 3,31,-4
	bl _ZdaPv
.L739:
.LBE3572:
.LBE3571:
.LBE3570:
.LBE3569:
.LBB3582:
.LBB3583:
.LBB3584:
.LBB3585:
	.loc 12 193 0
	lwz 3,36(1)
.LBE3585:
.LBE3584:
.LBE3583:
.LBE3582:
.LBB3595:
.LBB3580:
.LBB3578:
.LBB3576:
	.loc 12 197 0
	li 0,0
	stw 0,20(1)
.LBE3576:
.LBE3578:
.LBE3580:
.LBE3595:
.LBB3596:
.LBB3593:
.LBB3591:
.LBB3589:
	.loc 12 193 0
	cmpwi 7,3,0
.LBE3589:
.LBE3591:
.LBE3593:
.LBE3596:
.LBB3597:
.LBB3581:
.LBB3579:
.LBB3577:
	.loc 12 198 0
	stw 0,8(1)
	.loc 12 199 0
	stw 0,12(1)
.LVL1208:
.LBE3577:
.LBE3579:
.LBE3581:
.LBE3597:
.LBB3598:
.LBB3594:
.LBB3592:
.LBB3590:
	.loc 12 193 0
	beq- 7,.L600
	.loc 12 194 0
	lwz 31,-4(3)
	slwi 31,31,5
	add 31,3,31
	cmpw 7,3,31
	beq- 7,.L748
.L835:
	addi 31,31,-32
.LVL1209:
.LBB3586:
.LBB3587:
.LBB3588:
	.loc 4 501 0
	mr 3,31
.LEHB29:
	bl _ZN5idStr8FreeDataEv
.LEHE29:
.LBE3588:
.LBE3587:
.LBE3586:
	.loc 12 194 0
	lwz 3,36(1)
	cmpw 7,3,31
	bne+ 7,.L835
.LVL1210:
.L748:
	addi 3,3,-4
	bl _ZdaPv
.L600:
.LBE3590:
.LBE3592:
.LBE3594:
.LBE3598:
.LBE4117:
	.loc 2 2829 0
	lwz 11,0(1)
	lwz 0,4(11)
	lwz 12,-76(11)
	mtlr 0
	lwz 14,-72(11)
.LVL1211:
	lwz 15,-68(11)
	mtcrf 24,12
	lwz 16,-64(11)
	lwz 17,-60(11)
	lwz 18,-56(11)
	lwz 19,-52(11)
	lwz 20,-48(11)
	lwz 21,-44(11)
	lwz 22,-40(11)
	lwz 23,-36(11)
	lwz 24,-32(11)
	lwz 25,-28(11)
	lwz 26,-24(11)
	lwz 27,-20(11)
	lwz 28,-16(11)
	lwz 29,-12(11)
	lwz 30,-8(11)
	lwz 31,-4(11)
	mr 1,11
	.cfi_remember_state
.LCFI177:
	.cfi_def_cfa_offset 0
	.cfi_restore 70
	.cfi_restore 31
	.cfi_restore 30
	.cfi_restore 29
	.cfi_restore 28
	.cfi_restore 27
	.cfi_restore 26
	.cfi_restore 25
	.cfi_restore 24
	.cfi_restore 23
	.cfi_restore 22
	.cfi_restore 21
	.cfi_restore 20
	.cfi_restore 19
	.cfi_restore 18
	.cfi_restore 17
	.cfi_restore 16
	.cfi_restore 15
	.cfi_restore 14
	blr
.LVL1212:
.L602:
.LCFI178:
	.cfi_restore_state
.LBB4118:
.LBB3599:
.LBB3600:
	.loc 3 376 0
	mr 3,19
.LVL1213:
	li 4,32
	addi 28,1,200
	addi 30,1,24
.LEHB30:
	bl _ZNK8idBitMsg8ReadBitsEi
.LBE3600:
.LBE3599:
	.loc 2 2708 0
	mr. 31,3
	bne- 0,.L845
	.loc 2 2715 0
	mr 24,1
	.loc 2 2716 0
	li 17,1
	.loc 2 2715 0
	stbu 31,744(24)
.LVL1214:
.L604:
.LBB3601:
.LBB3602:
.LBB3603:
.LBB3604:
	.loc 4 356 0
	li 0,0
	.loc 4 358 0
	addi 31,1,116
	.loc 4 357 0
	li 9,20
.LBE3604:
.LBE3603:
	.loc 4 413 0
	mr 3,24
.LBB3606:
.LBB3605:
	.loc 4 356 0
	stw 0,104(1)
	.loc 4 357 0
	stw 9,112(1)
	.loc 4 358 0
	stw 31,108(1)
	.loc 4 359 0
	stb 0,116(1)
.LBE3605:
.LBE3606:
	.loc 4 413 0
	bl strlen
	.loc 4 414 0
	addi 4,3,1
	.loc 4 413 0
	mr 29,3
.LVL1215:
.LBB3607:
.LBB3608:
	.loc 4 350 0
	cmpwi 7,4,20
	.loc 4 358 0
	mr 3,31
.LVL1216:
	.loc 4 350 0
	bgt- 7,.L846
.LVL1217:
.L605:
.LBE3608:
.LBE3607:
	.loc 4 415 0
	mr 4,24
	bl strcpy
.LBE3602:
.LBE3601:
.LBB3613:
.LBB3614:
	.loc 12 655 0
	lwz 31,36(1)
.LBE3614:
.LBE3613:
.LBB3704:
.LBB3611:
	.loc 4 416 0
	stw 29,104(1)
.LVL1218:
.LBE3611:
.LBE3704:
.LBB3705:
.LBB3696:
	.loc 12 655 0
	cmpwi 7,31,0
	beq- 7,.L606
	lwz 0,24(1)
	lwz 9,28(1)
.LVL1219:
.L607:
.LBB3615:
	.loc 12 659 0
	cmpw 7,0,9
	beq- 7,.L773
	slwi 0,0,5
	add 31,31,0
.L617:
.LVL1220:
.LBE3615:
.LBB3652:
	.loc 2 2829 0
	lwz 30,104(1)
.LBB3653:
.LBB3654:
.LBB3655:
	.loc 4 350 0
	lwz 0,8(31)
.LBE3655:
.LBE3654:
	.loc 4 534 0
	addi 4,30,1
.LVL1221:
.LBB3658:
.LBB3656:
	.loc 4 350 0
	cmpw 7,4,0
	bgt- 7,.L847
.LVL1222:
.L635:
.LBE3656:
.LBE3658:
	.loc 4 535 0
	lwz 3,4(31)
	mr 5,30
	lwz 4,108(1)
	addi 28,1,200
	bl memcpy
	.loc 4 536 0
	lwz 9,4(31)
	li 0,0
.LBE3653:
.LBE3652:
.LBE3696:
.LBE3705:
.LBB3706:
.LBB3707:
.LBB3708:
	.loc 4 501 0
	addi 3,1,104
.LBE3708:
.LBE3707:
.LBE3706:
.LBB3711:
.LBB3697:
.LBB3662:
.LBB3660:
	.loc 4 536 0
	stbx 0,9,30
	.loc 4 537 0
	stw 30,0(31)
	addi 30,1,24
.LBE3660:
.LBE3662:
	.loc 12 670 0
	lwz 9,24(1)
	addi 0,9,1
	stw 0,24(1)
.LVL1223:
.LBE3697:
.LBE3711:
.LBB3712:
.LBB3710:
.LBB3709:
	.loc 4 501 0
	bl _ZN5idStr8FreeDataEv
.LVL1224:
.LBE3709:
.LBE3710:
.LBE3712:
.LBB3713:
.LBB3714:
	.loc 3 376 0
	mr 3,19
	li 4,32
	addi 28,1,200
	addi 30,1,24
	bl _ZNK8idBitMsg8ReadBitsEi
.LVL1225:
.LBE3714:
.LBE3713:
	.loc 2 2723 0
	mr. 31,3
.LVL1226:
	beq- 0,.L774
	lis 22,fileSystem@ha
	.loc 2 2726 0
	lis 15,.LC105@ha
	.loc 2 2723 0
	addi 21,1,232
	li 20,1
	la 22,fileSystem@l(22)
	.loc 2 2726 0
	lis 18,common@ha
	la 15,.LC105@l(15)
	.loc 2 2727 0
	li 26,0
.LBB3715:
.LBB3716:
.LBB3717:
.LBB3718:
	.loc 4 357 0
	li 25,20
	.loc 4 358 0
	addi 23,1,84
	b .L671
.LVL1227:
.L669:
.LBE3718:
.LBE3717:
.LBE3716:
.LBE3715:
.LBB3731:
.LBB3732:
.LBB3733:
.LBB3734:
	.loc 4 535 0
	lwz 3,4(28)
	mr 5,31
	lwz 4,76(1)
	addi 30,1,24
	bl memcpy
	.loc 4 536 0
	lwz 9,4(28)
.LBE3734:
.LBE3733:
.LBE3732:
.LBE3731:
.LBB3817:
.LBB3818:
.LBB3819:
	.loc 4 501 0
	addi 3,1,72
.LVL1228:
.LBE3819:
.LBE3818:
.LBE3817:
.LBB3822:
.LBB3808:
.LBB3741:
.LBB3739:
	.loc 4 536 0
	stbx 26,9,31
	.loc 4 537 0
	stw 31,0(28)
	addi 28,1,200
.LVL1229:
.LBE3739:
.LBE3741:
	.loc 12 670 0
	lwz 9,24(1)
	addi 0,9,1
	stw 0,24(1)
.LVL1230:
.LBE3808:
.LBE3822:
.LBB3823:
.LBB3821:
.LBB3820:
	.loc 4 501 0
	bl _ZN5idStr8FreeDataEv
.LVL1231:
.LBE3820:
.LBE3821:
.LBE3823:
.LBB3824:
.LBB3825:
	.loc 3 376 0
	mr 3,19
	li 4,32
	addi 28,1,200
	addi 30,1,24
	bl _ZNK8idBitMsg8ReadBitsEi
.LBE3825:
.LBE3824:
	.loc 2 2723 0
	mr. 31,3
	.loc 2 2731 0
	addi 20,20,1
.LVL1232:
	.loc 2 2723 0
	beq- 0,.L637
.LVL1233:
.L671:
	.loc 2 2724 0
	lwz 3,0(22)
	mr 4,31
	mr 5,24
	li 6,0
	lwz 9,0(3)
	addi 28,1,200
	addi 30,1,24
	lwz 0,176(9)
	mtctr 0
	bctrl
	cmpwi 7,3,0
	stwu 3,4(21)
	bne- 7,.L638
	.loc 2 2726 0
	lwz 3,common@l(18)
	mr 4,15
	mr 5,31
	addi 28,1,200
	lwz 9,0(3)
	addi 30,1,24
	lwz 0,80(9)
	mtctr 0
	crxor 6,6,6
	bctrl
.LEHE30:
	.loc 2 2727 0
	stb 26,744(1)
	.loc 2 2728 0
	addi 17,17,1
.LVL1234:
.L638:
.LBB3826:
.LBB3727:
.LBB3721:
.LBB3719:
	.loc 4 356 0
	li 0,0
.LBE3719:
.LBE3721:
	.loc 4 413 0
	mr 3,24
.LBB3722:
.LBB3720:
	.loc 4 356 0
	stw 0,72(1)
	.loc 4 357 0
	stw 25,80(1)
	.loc 4 358 0
	stw 23,76(1)
	.loc 4 359 0
	stb 0,84(1)
.LBE3720:
.LBE3722:
	.loc 4 413 0
	bl strlen
	.loc 4 414 0
	addi 4,3,1
	.loc 4 413 0
	mr 31,3
.LVL1235:
.LBB3723:
.LBB3724:
	.loc 4 350 0
	cmpwi 7,4,20
	.loc 4 358 0
	mr 3,23
.LVL1236:
	.loc 4 350 0
	bgt- 7,.L848
.LBE3724:
.LBE3723:
	.loc 4 415 0
	mr 4,24
.LVL1237:
	bl strcpy
.LBE3727:
.LBE3826:
.LBB3827:
.LBB3809:
	.loc 12 655 0
	lwz 28,36(1)
.LBE3809:
.LBE3827:
.LBB3828:
.LBB3728:
	.loc 4 416 0
	stw 31,72(1)
.LVL1238:
.LBE3728:
.LBE3828:
.LBB3829:
.LBB3810:
	.loc 12 655 0
	cmpwi 7,28,0
	beq- 7,.L640
.L852:
	lwz 0,24(1)
	lwz 9,28(1)
.LVL1239:
.L641:
.LBB3742:
	.loc 12 659 0
	cmpw 7,0,9
	beq- 7,.L777
	slwi 0,0,5
	add 28,28,0
.L651:
.LVL1240:
.LBE3742:
.LBB3775:
	.loc 2 2829 0
	lwz 31,72(1)
.LBB3740:
.LBB3735:
.LBB3736:
	.loc 4 350 0
	lwz 0,8(28)
.LBE3736:
.LBE3735:
	.loc 4 534 0
	addi 4,31,1
.LVL1241:
.LBB3738:
.LBB3737:
	.loc 4 350 0
	cmpw 7,4,0
	ble+ 7,.L669
	.loc 4 351 0
	mr 3,28
	li 5,0
.LEHB31:
	bl _ZN5idStr10ReAllocateEib
.LEHE31:
.LVL1242:
	b .L669
.LVL1243:
.L845:
.LBE3737:
.LBE3738:
.LBE3740:
.LBE3775:
.LBE3810:
.LBE3829:
	.loc 2 2709 0
	lis 22,fileSystem@ha
	addi 24,1,744
	lwz 3,fileSystem@l(22)
	mr 4,31
	mr 5,24
	li 6,1
	lwz 9,0(3)
	addi 28,1,200
	addi 30,1,24
	lwz 0,176(9)
	mtctr 0
.LEHB32:
	bctrl
	cmpwi 7,3,0
	stw 3,232(1)
	.loc 2 2691 0
	li 17,0
	.loc 2 2709 0
	bne+ 7,.L604
	.loc 2 2710 0
	lis 9,common@ha
	lis 4,.LC104@ha
	lwz 3,common@l(9)
	la 4,.LC104@l(4)
	mr 5,31
	addi 28,1,200
	lwz 9,0(3)
	addi 30,1,24
	lwz 0,80(9)
	mtctr 0
	crxor 6,6,6
	bctrl
.LEHE32:
	.loc 2 2711 0
	li 0,0
	.loc 2 2712 0
	li 17,1
	.loc 2 2711 0
	stb 0,744(1)
.LVL1244:
	b .L604
.LVL1245:
.L777:
	lwz 30,32(1)
.LBB3830:
.LBB3811:
.LBB3776:
	.loc 12 659 0
	mr 11,0
.L643:
.LBB3743:
	.loc 12 662 0
	cmpwi 7,30,0
	bne- 7,.L652
	.loc 12 663 0
	li 8,16
	li 30,16
	stw 8,32(1)
.L652:
	.loc 12 665 0
	add 9,0,30
.LVL1246:
	.loc 12 666 0
	divw 9,9,30
.LVL1247:
.LBB3744:
.LBB3745:
	.loc 12 375 0
	mullw 30,9,30
.LVL1248:
	cmpwi 4,30,0
	ble- 4,.L849
	.loc 12 380 0
	cmpw 7,0,30
	beq- 7,.L850
.LVL1249:
	.loc 12 387 0
	cmpw 7,30,11
	.loc 12 386 0
	stw 30,28(1)
	.loc 12 387 0
	bge- 7,.L658
	.loc 12 388 0
	stw 30,24(1)
.L658:
	.loc 12 392 0
	slwi 3,30,5
	addi 3,3,4
.LEHB33:
	bl _Znaj
	stw 30,0(3)
	addi 31,3,4
	beq- 4,.L659
.LBB3746:
.LBB3747:
.LBB3748:
	.loc 4 357 0
	mtctr 30
.LBE3748:
.LBE3747:
.LBE3746:
	.loc 12 392 0
	mr 9,31
.LBB3751:
.LBB3750:
.LBB3749:
	.loc 4 356 0
	li 0,0
.L660:
.LVL1250:
	.loc 4 358 0
	addi 11,9,12
	.loc 4 356 0
	stw 0,0(9)
	.loc 4 357 0
	stw 25,8(9)
	.loc 4 358 0
	stw 11,4(9)
	.loc 4 359 0
	stb 0,12(9)
	addi 9,9,32
.LVL1251:
.LBE3749:
.LBE3750:
.LBE3751:
	.loc 12 392 0
	bdnz .L660
.LVL1252:
.L659:
	.loc 12 393 0
	lwz 0,24(1)
	.loc 12 392 0
	stw 31,36(1)
.LVL1253:
	.loc 12 393 0
	cmpwi 7,0,0
	ble- 7,.L661
	li 30,0
.LVL1254:
	li 27,0
	b .L663
.LVL1255:
.L662:
.LBB3752:
.LBB3753:
	.loc 2 2678 0
	add 9,28,30
	.loc 4 535 0
	lwz 3,4(31)
	lwz 4,4(9)
.LVL1256:
	mr 5,29
.LBE3753:
.LBE3752:
	.loc 12 393 0
	addi 27,27,1
	addi 30,30,32
.LVL1257:
.LBB3761:
.LBB3758:
	.loc 4 535 0
	bl memcpy
.LVL1258:
	.loc 4 536 0
	lwz 9,4(31)
	stbx 26,9,29
	.loc 4 537 0
	stw 29,0(31)
.LBE3758:
.LBE3761:
	.loc 12 393 0
	lwz 0,24(1)
	cmpw 7,27,0
	bge- 7,.L661
.LVL1259:
.L851:
	lwz 31,36(1)
.LVL1260:
.L663:
	.loc 12 394 0
	add 31,31,30
.LVL1261:
.LBB3762:
	.loc 2 2829 0
	lwzx 29,28,30
.LBB3759:
.LBB3754:
.LBB3755:
	.loc 4 350 0
	lwz 0,8(31)
.LBE3755:
.LBE3754:
	.loc 4 534 0
	addi 4,29,1
.LVL1262:
.LBB3757:
.LBB3756:
	.loc 4 350 0
	cmpw 7,4,0
	ble+ 7,.L662
	.loc 4 351 0
	mr 3,31
	li 5,0
	bl _ZN5idStr10ReAllocateEib
.LVL1263:
.LBE3756:
.LBE3757:
	.loc 2 2678 0
	add 9,28,30
	.loc 4 535 0
	lwz 3,4(31)
	lwz 4,4(9)
	mr 5,29
.LBE3759:
.LBE3762:
	.loc 12 393 0
	addi 27,27,1
	addi 30,30,32
.LVL1264:
.LBB3763:
.LBB3760:
	.loc 4 535 0
	bl memcpy
.LVL1265:
	.loc 4 536 0
	lwz 9,4(31)
	stbx 26,9,29
	.loc 4 537 0
	stw 29,0(31)
.LBE3760:
.LBE3763:
	.loc 12 393 0
	lwz 0,24(1)
	cmpw 7,27,0
	blt+ 7,.L851
.LVL1266:
.L661:
	.loc 12 398 0
	cmpwi 7,28,0
	beq- 7,.L838
	.loc 12 399 0
	lwz 31,-4(28)
	slwi 31,31,5
	add 31,28,31
	cmpw 7,28,31
	beq- 7,.L665
.L822:
	addi 31,31,-32
.LVL1267:
.LBB3764:
.LBB3765:
.LBB3766:
	.loc 4 501 0
	mr 3,31
	bl _ZN5idStr8FreeDataEv
.LEHE33:
.LBE3766:
.LBE3765:
.LBE3764:
	.loc 12 399 0
	cmpw 7,28,31
	bne+ 7,.L822
.LVL1268:
.L665:
	addi 3,28,-4
	bl _ZdaPv
	lwz 0,24(1)
.L838:
	lwz 28,36(1)
.LVL1269:
	slwi 0,0,5
	add 28,28,0
	b .L651
.LVL1270:
.L848:
.LBE3745:
.LBE3744:
.LBE3743:
.LBE3776:
.LBE3811:
.LBE3830:
.LBB3831:
.LBB3729:
.LBB3726:
.LBB3725:
	.loc 4 351 0
	addi 3,1,72
.LVL1271:
	li 5,1
	addi 28,1,200
	addi 30,1,24
.LEHB34:
	bl _ZN5idStr10ReAllocateEib
.LEHE34:
.LVL1272:
	lwz 3,76(1)
.LBE3725:
.LBE3726:
	.loc 4 415 0
	mr 4,24
	bl strcpy
.LBE3729:
.LBE3831:
.LBB3832:
.LBB3812:
	.loc 12 655 0
	lwz 28,36(1)
.LBE3812:
.LBE3832:
.LBB3833:
.LBB3730:
	.loc 4 416 0
	stw 31,72(1)
.LVL1273:
.LBE3730:
.LBE3833:
.LBB3834:
.LBB3813:
	.loc 12 655 0
	cmpwi 7,28,0
	bne+ 7,.L852
.L640:
	.loc 12 656 0
	lwz 30,32(1)
.LBB3777:
.LBB3778:
	.loc 12 375 0
	cmpwi 4,30,0
.LBE3778:
.LBE3777:
	.loc 12 656 0
	mr 9,30
.LVL1274:
.LBB3803:
.LBB3799:
	.loc 12 375 0
	ble- 4,.L853
	.loc 12 380 0
	lwz 0,28(1)
	cmpw 7,30,0
	beq- 7,.L854
.LVL1275:
	.loc 12 387 0
	lwz 0,24(1)
	.loc 12 386 0
	stw 30,28(1)
	.loc 12 387 0
	cmpw 7,30,0
	bge- 7,.L645
	.loc 12 388 0
	stw 30,24(1)
.L645:
	.loc 12 392 0
	slwi 3,30,5
	addi 3,3,4
.LEHB35:
	bl _Znaj
.LVL1276:
	stw 30,0(3)
	addi 28,3,4
	beq- 4,.L646
.LBB3779:
.LBB3780:
.LBB3781:
	.loc 4 357 0
	mtctr 30
.LBE3781:
.LBE3780:
.LBE3779:
	.loc 12 392 0
	mr 9,28
.LBB3784:
.LBB3783:
.LBB3782:
	.loc 4 356 0
	li 0,0
.L647:
.LVL1277:
	.loc 4 358 0
	addi 11,9,12
	.loc 4 356 0
	stw 0,0(9)
	.loc 4 357 0
	stw 25,8(9)
	.loc 4 358 0
	stw 11,4(9)
	.loc 4 359 0
	stb 0,12(9)
	addi 9,9,32
.LVL1278:
.LBE3782:
.LBE3783:
.LBE3784:
	.loc 12 392 0
	bdnz .L647
.LVL1279:
.L646:
	.loc 12 393 0
	lwz 0,24(1)
	li 31,0
.LVL1280:
	.loc 12 392 0
	stw 28,36(1)
.LVL1281:
	.loc 12 393 0
	li 30,0
.LVL1282:
	cmpwi 7,0,0
	bgt+ 7,.L811
	b .L884
.LVL1283:
.L649:
.LBB3785:
.LBB3786:
	.loc 4 535 0
	lwz 4,4(31)
.LVL1284:
	mr 5,29
	lwz 3,4(28)
.LBE3786:
.LBE3785:
	.loc 12 393 0
	addi 30,30,1
	addi 31,31,32
.LVL1285:
.LBB3794:
.LBB3791:
	.loc 4 535 0
	bl memcpy
.LVL1286:
	.loc 4 536 0
	lwz 9,4(28)
	stbx 26,9,29
	.loc 4 537 0
	stw 29,0(28)
.LBE3791:
.LBE3794:
	.loc 12 393 0
	lwz 0,24(1)
	cmpw 7,30,0
	bge- 7,.L650
.LVL1287:
.L856:
	lwz 28,36(1)
.LVL1288:
.L811:
	.loc 12 394 0
	add 28,28,31
.LVL1289:
.LBB3795:
	.loc 2 2829 0
	lwz 29,0(31)
.LBB3792:
.LBB3787:
.LBB3788:
	.loc 4 350 0
	lwz 0,8(28)
.LBE3788:
.LBE3787:
	.loc 4 534 0
	addi 4,29,1
.LVL1290:
.LBB3790:
.LBB3789:
	.loc 4 350 0
	cmpw 7,4,0
	ble+ 7,.L649
	.loc 4 351 0
	mr 3,28
	li 5,0
	bl _ZN5idStr10ReAllocateEib
.LVL1291:
.LBE3789:
.LBE3790:
	.loc 4 535 0
	lwz 4,4(31)
	mr 5,29
	lwz 3,4(28)
.LBE3792:
.LBE3795:
	.loc 12 393 0
	addi 30,30,1
	addi 31,31,32
.LVL1292:
.LBB3796:
.LBB3793:
	.loc 4 535 0
	bl memcpy
.LVL1293:
	.loc 4 536 0
	lwz 9,4(28)
	stbx 26,9,29
	.loc 4 537 0
	stw 29,0(28)
.LBE3793:
.LBE3796:
	.loc 12 393 0
	lwz 0,24(1)
	cmpw 7,30,0
	blt+ 7,.L856
.LVL1294:
.L650:
	lwz 9,28(1)
	lwz 28,36(1)
.LVL1295:
	b .L641
.LVL1296:
.L850:
.LBE3799:
.LBE3803:
.LBB3804:
.LBB3774:
.LBB3773:
.LBB3772:
	.loc 12 380 0
	slwi 11,11,5
	add 28,28,11
	b .L651
.L849:
.LVL1297:
.LBB3767:
.LBB3768:
	.loc 12 193 0
	cmpwi 7,28,0
	beq- 7,.L654
	.loc 12 194 0
	lwz 31,-4(28)
	slwi 31,31,5
	add 31,28,31
	b .L655
.L857:
	addi 31,31,-32
.LVL1298:
.LBB3769:
.LBB3770:
.LBB3771:
	.loc 4 501 0
	mr 3,31
	bl _ZN5idStr8FreeDataEv
.LEHE35:
	lwz 28,36(1)
.LVL1299:
.L655:
.LBE3771:
.LBE3770:
.LBE3769:
	.loc 12 194 0
	cmpw 7,28,31
	bne+ 7,.L857
	addi 3,28,-4
	bl _ZdaPv
.L654:
	.loc 12 197 0
	li 0,0
	.loc 12 199 0
	li 28,0
	.loc 12 197 0
	stw 0,36(1)
	.loc 12 198 0
	stw 0,24(1)
	.loc 12 199 0
	stw 0,28(1)
	b .L651
.LVL1300:
.L774:
.LBE3768:
.LBE3767:
.LBE3772:
.LBE3773:
.LBE3774:
.LBE3804:
.LBE3813:
.LBE3834:
	.loc 2 2723 0
	li 20,1
.LVL1301:
.L637:
	.loc 2 2735 0 discriminator 1
	lwz 0,24(1)
	addi 28,1,200
	cmpwi 7,0,0
	ble- 7,.L673
	.loc 2 2735 0 is_stmt 0
	li 26,0
	addi 28,1,200
	addi 30,1,24
.LBB3835:
.LBB3836:
.LBB3837:
	.loc 4 781 0 is_stmt 1
	li 29,0
.LBE3837:
.LBE3836:
.LBE3835:
.LBB3848:
.LBB3849:
.LBB3850:
	.loc 4 778 0
	li 27,59
.LVL1302:
.L813:
	.loc 2 2829 0
	lwz 9,12(30)
	slwi 0,26,5
	add 9,9,0
	lwz 31,4(9)
.LVL1303:
.LBE3850:
.LBE3849:
.LBE3848:
.LBB3861:
.LBB3846:
.LBB3844:
	.loc 4 774 0
	cmpwi 7,31,0
	beq- 7,.L676
	.loc 4 775 0
	mr 3,31
	bl strlen
.LVL1304:
	lwz 25,200(1)
.LBB3838:
.LBB3839:
	.loc 4 350 0
	lwz 0,208(1)
.LBE3839:
.LBE3838:
	.loc 4 775 0
	add 25,3,25
.LVL1305:
	.loc 4 776 0
	addi 4,25,1
.LVL1306:
.LBB3842:
.LBB3840:
	.loc 4 350 0
	cmpw 7,4,0
	bgt- 7,.L858
.LVL1307:
.L677:
.LBE3840:
.LBE3842:
	.loc 4 777 0
	lbz 0,0(31)
	cmpwi 7,0,0
	beq- 7,.L678
	li 9,0
.LVL1308:
.L679:
	.loc 4 778 0
	lwz 11,200(1)
	lwz 10,204(1)
	add 11,10,11
	stbx 0,11,9
	.loc 4 777 0
	addi 9,9,1
.LVL1309:
	lbzx 0,31,9
	cmpwi 7,0,0
	bne+ 7,.L679
.LVL1310:
.L678:
	.loc 4 781 0
	lwz 9,204(1)
	.loc 4 780 0
	stw 25,200(1)
	.loc 4 781 0
	stbx 29,9,25
.LVL1311:
.L676:
.LBE3844:
.LBE3846:
.LBE3861:
	.loc 2 2735 0
	lwz 0,0(30)
	addi 26,26,1
.LVL1312:
	cmpw 7,0,26
	ble- 7,.L673
	.loc 2 2736 0
	cmpwi 7,26,0
	ble- 7,.L813
.LVL1313:
.LBB3862:
.LBB3859:
.LBB3857:
	.loc 4 775 0
	lwz 11,200(1)
.LBB3851:
.LBB3852:
	.loc 4 350 0
	lwz 0,208(1)
.LBE3852:
.LBE3851:
	.loc 4 775 0
	addi 31,11,1
.LVL1314:
	.loc 4 776 0
	addi 4,31,1
.LVL1315:
.LBB3855:
.LBB3853:
	.loc 4 350 0
	cmpw 7,4,0
	bgt- 7,.L859
.LVL1316:
.L675:
.LBE3853:
.LBE3855:
	.loc 4 778 0
	lwz 9,204(1)
	stbx 27,9,11
.LVL1317:
	.loc 4 780 0
	stw 31,200(1)
	.loc 4 781 0
	lwz 9,204(1)
	stbx 29,9,31
	b .L813
.LVL1318:
.L858:
.LBE3857:
.LBE3859:
.LBE3862:
.LBB3863:
.LBB3847:
.LBB3845:
.LBB3843:
.LBB3841:
	.loc 4 351 0
	mr 3,28
	li 5,1
.LEHB36:
	bl _ZN5idStr10ReAllocateEib
.LVL1319:
	b .L677
.LVL1320:
.L859:
.LBE3841:
.LBE3843:
.LBE3845:
.LBE3847:
.LBE3863:
.LBB3864:
.LBB3860:
.LBB3858:
.LBB3856:
.LBB3854:
	mr 3,28
	li 5,1
	bl _ZN5idStr10ReAllocateEib
.LVL1321:
	lwz 11,200(1)
	b .L675
.LVL1322:
.L673:
.LBE3854:
.LBE3856:
.LBE3858:
.LBE3860:
.LBE3864:
	.loc 2 2743 0
	lis 21,common@ha
	lis 4,.LC106@ha
	lwz 3,common@l(21)
	la 4,.LC106@l(4)
	subf 5,17,20
	lwz 6,4(28)
	lwz 9,0(3)
	addi 30,1,24
	lwz 0,76(9)
	mtctr 0
	crxor 6,6,6
	bctrl
.LVL1323:
.LBB3865:
.LBB3866:
	.loc 3 156 0
	addi 0,1,18152
.LBE3866:
.LBE3865:
.LBB3870:
.LBB3871:
	.loc 3 288 0
	addi 3,1,168
.LVL1324:
.LBE3871:
.LBE3870:
.LBB3875:
.LBB3867:
	.loc 3 156 0
	stw 0,168(1)
.LBE3867:
.LBE3875:
.LBB3876:
.LBB3872:
	.loc 3 288 0
	li 4,-1
.LBE3872:
.LBE3876:
.LBB3877:
.LBB3868:
	.loc 3 157 0
	stw 0,172(1)
.LBE3868:
.LBE3877:
.LBB3878:
.LBB3873:
	.loc 3 288 0
	li 5,-16
.LBE3873:
.LBE3878:
.LBB3879:
.LBB3869:
	.loc 3 158 0
	li 0,16384
	addi 30,1,24
	stw 0,176(1)
.LVL1325:
.LBE3869:
.LBE3879:
.LBB3880:
.LBB3874:
	.loc 3 288 0
	bl _ZN8idBitMsg9WriteBitsEii
.LVL1326:
.LBE3874:
.LBE3880:
	.loc 2 2747 0
	lis 4,.LC107@ha
	addi 3,1,168
.LVL1327:
	la 4,.LC107@l(4)
	li 5,-1
	li 6,1
	addi 30,1,24
	bl _ZN8idBitMsg11WriteStringEPKcib
.LVL1328:
.LBB3881:
.LBB3882:
	.loc 3 296 0
	addis 8,1,0x1
	addi 3,1,168
.LVL1329:
	lwz 4,-30964(8)
	li 5,32
	addi 30,1,24
	bl _ZN8idBitMsg9WriteBitsEii
.LVL1330:
.LBE3882:
.LBE3881:
	.loc 2 2749 0
	lis 9,game@ha
	addis 8,1,0x1
	lwz 31,game@l(9)
	addi 30,1,24
	lwz 8,-30976(8)
	lwz 10,0(31)
	lwz 11,0(16)
	addis 3,8,0x1
	lwz 9,4(16)
	addi 3,3,-31000
	lwz 0,8(16)
	lwz 29,160(10)
	stw 11,-30992(14)
	stw 9,-30988(14)
	stw 0,-30984(14)
	bl _Z18Sys_NetAdrToString8netadr_t
	addis 9,1,0x1
	mr 4,3
	lwz 10,-30972(9)
	mr 3,31
	lwz 9,-30968(9)
	mr 7,24
	lwz 6,4(28)
	mtctr 29
	add 5,10,9
	addi 30,1,24
	addi 5,5,136
	bctrl
	.loc 2 2749 0 is_stmt 0 discriminator 1
	cmpwi 7,3,0
	beq- 7,.L860
.LVL1331:
	.loc 2 2760 0 is_stmt 1
	mr 3,24
	li 4,59
	bl strchr
	.loc 2 2757 0
	li 29,0
	.loc 2 2760 0
	mr 31,3
.LVL1332:
	.loc 2 2763 0
	li 22,0
.LBB3883:
.LBB3884:
.LBB3885:
.LBB3886:
	.loc 4 356 0
	li 23,0
	.loc 4 357 0
	li 20,20
	.loc 4 358 0
	addi 19,1,52
.LVL1333:
.LBE3886:
.LBE3885:
.LBE3884:
.LBE3883:
.LBB3896:
.LBB3897:
.LBB3898:
.LBB3899:
	.loc 12 663 0
	li 18,16
.LVL1334:
.L719:
.LBE3899:
.LBE3898:
.LBE3897:
.LBE3896:
	.loc 2 2762 0
	cmpwi 3,31,0
	beq- 3,.L682
	.loc 2 2763 0
	stb 22,0(31)
.L682:
	.loc 2 2766 0
	cmpwi 7,29,0
	beq- 7,.L861
	.loc 2 2768 0
	cmpwi 7,29,1
	beq- 7,.L862
	.loc 2 2774 0
	cmpwi 4,29,2
	beq- 4,.L863
	.loc 2 2777 0
	lwz 3,common@l(21)
.LVL1335:
	lis 4,.LC110@ha
	la 4,.LC110@l(4)
	mr 5,29
	lwz 9,0(3)
	addi 30,1,24
	lwz 0,76(9)
	mtctr 0
	crxor 6,6,6
	bctrl
.LEHE36:
.L718:
.LBB3988:
	.loc 2 2789 0
	beq- 4,.L864
.LVL1336:
.L730:
.LBE3988:
.LBB4026:
.LBB4027:
.LBB4028:
	.loc 4 501 0
	mr 3,28
.LEHB37:
	bl _ZN5idStr8FreeDataEv
.LEHE37:
.LVL1337:
.LBE4028:
.LBE4027:
.LBE4026:
.LBB4029:
.LBB4030:
.LBB4031:
.LBB4032:
	.loc 12 193 0
	lwz 3,20(1)
	cmpwi 7,3,0
	beq- 7,.L735
	.loc 12 194 0
	lwz 31,-4(3)
	slwi 31,31,5
	add 31,3,31
	b .L736
.L865:
	addi 31,31,-32
.LVL1338:
.LBB4033:
.LBB4034:
.LBB4035:
	.loc 4 501 0
	mr 3,31
.LEHB38:
	bl _ZN5idStr8FreeDataEv
.LEHE38:
	lwz 3,20(1)
.LVL1339:
.L736:
.LBE4035:
.LBE4034:
.LBE4033:
	.loc 12 194 0
	cmpw 7,3,31
	bne+ 7,.L865
	addi 3,3,-4
	bl _ZdaPv
.L735:
.LBE4032:
.LBE4031:
.LBE4030:
.LBE4029:
.LBB4042:
.LBB4043:
.LBB4044:
.LBB4045:
	.loc 12 193 0
	lwz 3,36(1)
.LBE4045:
.LBE4044:
.LBE4043:
.LBE4042:
.LBB4055:
.LBB4040:
.LBB4038:
.LBB4036:
	.loc 12 197 0
	li 0,0
	stw 0,20(1)
.LBE4036:
.LBE4038:
.LBE4040:
.LBE4055:
.LBB4056:
.LBB4053:
.LBB4051:
.LBB4049:
	.loc 12 193 0
	cmpwi 7,3,0
.LBE4049:
.LBE4051:
.LBE4053:
.LBE4056:
.LBB4057:
.LBB4041:
.LBB4039:
.LBB4037:
	.loc 12 198 0
	stw 0,8(1)
	.loc 12 199 0
	stw 0,12(1)
.LVL1340:
.LBE4037:
.LBE4039:
.LBE4041:
.LBE4057:
.LBB4058:
.LBB4054:
.LBB4052:
.LBB4050:
	.loc 12 193 0
	beq- 7,.L600
	.loc 12 194 0
	lwz 31,-4(3)
	slwi 31,31,5
	add 31,3,31
	cmpw 7,3,31
	beq- 7,.L748
.L834:
	addi 31,31,-32
.LVL1341:
.LBB4046:
.LBB4047:
.LBB4048:
	.loc 4 501 0
	mr 3,31
.LEHB39:
	bl _ZN5idStr8FreeDataEv
.LEHE39:
.LBE4048:
.LBE4047:
.LBE4046:
	.loc 12 194 0
	lwz 3,36(1)
	cmpw 7,3,31
	bne+ 7,.L834
	b .L748
.LVL1342:
.L861:
.LBE4050:
.LBE4052:
.LBE4054:
.LBE4058:
	.loc 2 2767 0
	mr 3,24
.LVL1343:
	bl atoi
	mr 29,3
.LVL1344:
.L684:
	.loc 2 2781 0
	beq- 3,.L840
	.loc 2 2782 0
	addi 24,31,1
.LVL1345:
	.loc 2 2783 0
	li 4,59
	mr 3,24
	bl strchr
	.loc 2 2761 0
	cmpwi 7,24,0
	.loc 2 2783 0
	mr 31,3
.LVL1346:
	.loc 2 2761 0
	bne+ 7,.L719
.LVL1347:
.L840:
	cmpwi 4,29,2
	b .L718
.LVL1348:
.L863:
.LBB4059:
.LBB3893:
	.loc 4 413 0
	mr 3,24
.LVL1349:
.LBB3888:
.LBB3887:
	.loc 4 356 0
	stw 23,40(1)
	.loc 4 357 0
	stw 20,48(1)
	.loc 4 358 0
	stw 19,44(1)
	.loc 4 359 0
	stb 23,52(1)
.LBE3887:
.LBE3888:
	.loc 4 413 0
	bl strlen
	.loc 4 414 0
	addi 4,3,1
	.loc 4 413 0
	mr 27,3
.LVL1350:
.LBB3889:
.LBB3890:
	.loc 4 350 0
	cmpwi 7,4,20
	.loc 4 358 0
	mr 3,19
.LVL1351:
	.loc 4 350 0
	bgt- 7,.L866
.LVL1352:
.L687:
.LBE3890:
.LBE3889:
	.loc 4 415 0
	mr 4,24
	bl strcpy
.LBE3893:
.LBE4059:
.LBB4060:
.LBB3979:
	.loc 12 655 0
	lwz 25,20(1)
.LBE3979:
.LBE4060:
.LBB4061:
.LBB3894:
	.loc 4 416 0
	stw 27,40(1)
.LVL1353:
.LBE3894:
.LBE4061:
.LBB4062:
.LBB3980:
	.loc 12 655 0
	cmpwi 7,25,0
	beq- 7,.L688
	lwz 0,8(1)
	lwz 9,12(1)
.LVL1354:
.L689:
.LBB3935:
	.loc 12 659 0
	cmpw 7,9,0
	beq- 7,.L781
	slwi 0,0,5
	add 25,25,0
.LVL1355:
.L699:
.LBE3935:
.LBB3936:
	.loc 2 2829 0
	lwz 30,40(1)
.LBB3937:
.LBB3938:
.LBB3939:
	.loc 4 350 0
	lwz 0,8(25)
.LBE3939:
.LBE3938:
	.loc 4 534 0
	addi 4,30,1
.LVL1356:
.LBB3942:
.LBB3940:
	.loc 4 350 0
	cmpw 7,4,0
	bgt- 7,.L867
.LVL1357:
.L717:
.LBE3940:
.LBE3942:
	.loc 4 535 0
	lwz 3,4(25)
	mr 5,30
	lwz 4,44(1)
	bl memcpy
	.loc 4 536 0
	lwz 9,4(25)
.LBE3937:
.LBE3936:
.LBE3980:
.LBE4062:
.LBB4063:
.LBB4064:
.LBB4065:
	.loc 4 501 0
	addi 3,1,40
.LBE4065:
.LBE4064:
.LBE4063:
.LBB4068:
.LBB3981:
.LBB3946:
.LBB3944:
	.loc 4 536 0
	stbx 22,9,30
	.loc 4 537 0
	stw 30,0(25)
	addi 30,1,24
.LBE3944:
.LBE3946:
	.loc 12 670 0
	lwz 9,8(1)
	addi 0,9,1
	stw 0,8(1)
.LVL1358:
.LEHB40:
.LBE3981:
.LBE4068:
.LBB4069:
.LBB4067:
.LBB4066:
	.loc 4 501 0
	bl _ZN5idStr8FreeDataEv
.LEHE40:
	b .L684
.LVL1359:
.L867:
.LBE4066:
.LBE4067:
.LBE4069:
.LBB4070:
.LBB3982:
.LBB3947:
.LBB3945:
.LBB3943:
.LBB3941:
	.loc 4 351 0
	mr 3,25
	li 5,0
.LEHB41:
	bl _ZN5idStr10ReAllocateEib
.LVL1360:
	b .L717
.LVL1361:
.L781:
	lwz 30,16(1)
.LBE3941:
.LBE3943:
.LBE3945:
.LBE3947:
.LBB3948:
	.loc 12 659 0
	mr 0,9
.L691:
.LBB3932:
	.loc 12 662 0
	cmpwi 7,30,0
	bne- 7,.L700
	.loc 12 663 0
	stw 18,16(1)
	li 30,16
.L700:
	.loc 12 665 0
	add 27,0,30
.LVL1362:
	.loc 12 666 0
	divw 27,27,30
.LVL1363:
.LBB3900:
.LBB3901:
	.loc 12 375 0
	mullw 27,27,30
.LVL1364:
	cmpwi 4,27,0
	ble- 4,.L868
	.loc 12 380 0
	cmpw 7,0,27
	beq- 7,.L869
.LVL1365:
	.loc 12 387 0
	cmpw 7,27,9
	.loc 12 386 0
	stw 27,12(1)
	.loc 12 387 0
	bge- 7,.L706
	.loc 12 388 0
	stw 27,8(1)
.L706:
	.loc 12 392 0
	slwi 3,27,5
	addi 3,3,4
	bl _Znaj
	stw 27,0(3)
	addi 30,3,4
	beq- 4,.L707
.LBB3902:
.LBB3903:
.LBB3904:
	.loc 4 357 0
	mtctr 27
.LBE3904:
.LBE3903:
.LBE3902:
	.loc 12 392 0
	mr 9,30
.L708:
.LVL1366:
.LBB3907:
.LBB3906:
.LBB3905:
	.loc 4 358 0
	addi 0,9,12
	.loc 4 356 0
	stw 23,0(9)
	.loc 4 357 0
	stw 20,8(9)
	.loc 4 358 0
	stw 0,4(9)
	.loc 4 359 0
	stb 23,12(9)
	addi 9,9,32
.LVL1367:
.LBE3905:
.LBE3906:
.LBE3907:
	.loc 12 392 0
	bdnz .L708
.LVL1368:
.L707:
	.loc 12 393 0
	lwz 0,8(1)
	.loc 12 392 0
	stw 30,20(1)
.LVL1369:
	.loc 12 393 0
	cmpwi 7,0,0
	ble- 7,.L709
	li 27,0
.LVL1370:
	li 24,0
.LVL1371:
	b .L711
.LVL1372:
.L710:
.LBB3908:
.LBB3909:
	.loc 2 2678 0
	add 9,25,27
	.loc 4 535 0
	lwz 3,4(30)
	lwz 4,4(9)
.LVL1373:
	mr 5,26
.LBE3909:
.LBE3908:
	.loc 12 393 0
	addi 24,24,1
	addi 27,27,32
.LVL1374:
.LBB3917:
.LBB3914:
	.loc 4 535 0
	bl memcpy
.LVL1375:
	.loc 4 536 0
	lwz 9,4(30)
	stbx 22,9,26
	.loc 4 537 0
	stw 26,0(30)
.LBE3914:
.LBE3917:
	.loc 12 393 0
	lwz 0,8(1)
	cmpw 7,24,0
	bge- 7,.L709
.LVL1376:
.L870:
	lwz 30,20(1)
.LVL1377:
.L711:
	.loc 12 394 0
	add 30,30,27
.LVL1378:
.LBB3918:
	.loc 2 2829 0
	lwzx 26,25,27
.LBB3915:
.LBB3910:
.LBB3911:
	.loc 4 350 0
	lwz 0,8(30)
.LBE3911:
.LBE3910:
	.loc 4 534 0
	addi 4,26,1
.LVL1379:
.LBB3913:
.LBB3912:
	.loc 4 350 0
	cmpw 7,4,0
	ble+ 7,.L710
	.loc 4 351 0
	mr 3,30
	li 5,0
	bl _ZN5idStr10ReAllocateEib
.LVL1380:
.LBE3912:
.LBE3913:
	.loc 2 2678 0
	add 9,25,27
	.loc 4 535 0
	lwz 3,4(30)
	lwz 4,4(9)
	mr 5,26
.LBE3915:
.LBE3918:
	.loc 12 393 0
	addi 24,24,1
	addi 27,27,32
.LVL1381:
.LBB3919:
.LBB3916:
	.loc 4 535 0
	bl memcpy
.LVL1382:
	.loc 4 536 0
	lwz 9,4(30)
	stbx 22,9,26
	.loc 4 537 0
	stw 26,0(30)
.LBE3916:
.LBE3919:
	.loc 12 393 0
	lwz 0,8(1)
	cmpw 7,24,0
	blt+ 7,.L870
.LVL1383:
.L709:
	.loc 12 398 0
	cmpwi 7,25,0
	beq- 7,.L839
	.loc 12 399 0
	lwz 30,-4(25)
	slwi 30,30,5
	add 30,25,30
	cmpw 7,30,25
	beq- 7,.L713
.L826:
	addi 30,30,-32
.LVL1384:
.LBB3920:
.LBB3921:
.LBB3922:
	.loc 4 501 0
	mr 3,30
	bl _ZN5idStr8FreeDataEv
.LEHE41:
.LBE3922:
.LBE3921:
.LBE3920:
	.loc 12 399 0
	cmpw 7,30,25
	bne+ 7,.L826
.LVL1385:
.L713:
	addi 3,25,-4
	bl _ZdaPv
	lwz 0,8(1)
.L839:
	lwz 25,20(1)
.LVL1386:
	slwi 0,0,5
	add 25,25,0
	b .L699
.LVL1387:
.L866:
.LBE3901:
.LBE3900:
.LBE3932:
.LBE3948:
.LBE3982:
.LBE4070:
.LBB4071:
.LBB3895:
.LBB3892:
.LBB3891:
	.loc 4 351 0
	addi 3,1,40
	li 5,1
	addi 30,1,24
.LEHB42:
	bl _ZN5idStr10ReAllocateEib
.LEHE42:
.LVL1388:
	lwz 3,44(1)
	b .L687
.LVL1389:
.L854:
.LBE3891:
.LBE3892:
.LBE3895:
.LBE4071:
.LBB4072:
.LBB3814:
.LBB3805:
.LBB3800:
	.loc 12 380 0
	lwz 0,24(1)
	b .L641
.LVL1390:
.L847:
.LBE3800:
.LBE3805:
.LBE3814:
.LBE4072:
.LBB4073:
.LBB3698:
.LBB3663:
.LBB3661:
.LBB3659:
.LBB3657:
	.loc 4 351 0
	mr 3,31
	li 5,0
.LEHB43:
	bl _ZN5idStr10ReAllocateEib
.LVL1391:
	b .L635
.LVL1392:
.L773:
	lwz 30,32(1)
.LBE3657:
.LBE3659:
.LBE3661:
.LBE3663:
.LBB3664:
	.loc 12 659 0
	mr 9,0
.L609:
.LBB3616:
	.loc 12 662 0
	cmpwi 7,30,0
	beq- 7,.L871
.L618:
	.loc 12 665 0
	add 11,0,30
.LVL1393:
	.loc 12 666 0
	divw 11,11,30
.LVL1394:
.LBB3617:
.LBB3618:
	.loc 12 375 0
	mullw 30,11,30
.LVL1395:
	cmpwi 4,30,0
	ble- 4,.L872
	.loc 12 380 0
	cmpw 7,30,0
	beq- 7,.L873
.LVL1396:
	.loc 12 387 0
	cmpw 7,30,9
	.loc 12 386 0
	stw 30,28(1)
	.loc 12 387 0
	blt- 7,.L874
.L624:
	.loc 12 392 0
	slwi 3,30,5
	addi 3,3,4
	bl _Znaj
	stw 30,0(3)
	addi 8,3,4
	beq- 4,.L625
.LBB3619:
.LBB3620:
.LBB3621:
	.loc 4 357 0
	mtctr 30
.LBE3621:
.LBE3620:
.LBE3619:
	.loc 12 392 0
	mr 9,8
.LBB3624:
.LBB3623:
.LBB3622:
	.loc 4 356 0
	li 0,0
	.loc 4 357 0
	li 10,20
.L626:
.LVL1397:
	.loc 4 358 0
	addi 11,9,12
	.loc 4 356 0
	stw 0,0(9)
	.loc 4 357 0
	stw 10,8(9)
	.loc 4 358 0
	stw 11,4(9)
	.loc 4 359 0
	stb 0,12(9)
	addi 9,9,32
.LVL1398:
.LBE3622:
.LBE3623:
.LBE3624:
	.loc 12 392 0
	bdnz .L626
.LVL1399:
.L625:
	.loc 12 393 0
	lwz 0,24(1)
	.loc 12 392 0
	mr 30,8
.LVL1400:
	stw 8,36(1)
.LVL1401:
	.loc 12 393 0
	cmpwi 7,0,0
	ble- 7,.L627
	li 29,0
	li 27,0
.LBB3625:
.LBB3626:
	.loc 4 536 0
	li 26,0
	b .L629
.LVL1402:
.L628:
	.loc 2 2678 0
	add 9,31,29
	.loc 4 535 0
	lwz 3,4(30)
	lwz 4,4(9)
	mr 5,28
.LBE3626:
.LBE3625:
	.loc 12 393 0
	addi 27,27,1
	addi 29,29,32
.LVL1403:
.LBB3633:
.LBB3631:
	.loc 4 535 0
	bl memcpy
.LVL1404:
	.loc 4 536 0
	lwz 9,4(30)
	stbx 26,9,28
	.loc 4 537 0
	stw 28,0(30)
.LBE3631:
.LBE3633:
	.loc 12 393 0
	lwz 0,24(1)
	cmpw 7,27,0
	bge- 7,.L627
	lwz 30,36(1)
.LVL1405:
.L629:
	.loc 12 394 0
	add 30,30,29
.LVL1406:
.LBB3634:
	.loc 2 2829 0
	lwzx 28,31,29
.LBB3632:
.LBB3627:
.LBB3628:
	.loc 4 350 0
	lwz 0,8(30)
.LBE3628:
.LBE3627:
	.loc 4 534 0
	addi 4,28,1
.LVL1407:
.LBB3630:
.LBB3629:
	.loc 4 350 0
	cmpw 7,4,0
	ble+ 7,.L628
	.loc 4 351 0
	mr 3,30
	li 5,0
	bl _ZN5idStr10ReAllocateEib
.LVL1408:
	b .L628
.LVL1409:
.L627:
.LBE3629:
.LBE3630:
.LBE3632:
.LBE3634:
	.loc 12 398 0
	cmpwi 7,31,0
	beq- 7,.L837
	.loc 12 399 0
	lwz 30,-4(31)
	slwi 30,30,5
	add 30,31,30
	cmpw 7,31,30
	beq- 7,.L631
.L818:
	addi 30,30,-32
.LVL1410:
.LBB3635:
.LBB3636:
.LBB3637:
	.loc 4 501 0
	mr 3,30
	bl _ZN5idStr8FreeDataEv
.LEHE43:
.LBE3637:
.LBE3636:
.LBE3635:
	.loc 12 399 0
	cmpw 7,31,30
	bne+ 7,.L818
.LVL1411:
.L631:
	addi 3,31,-4
	bl _ZdaPv
	lwz 0,24(1)
.L837:
	lwz 31,36(1)
.LVL1412:
	slwi 0,0,5
	add 31,31,0
	b .L617
.LVL1413:
.L869:
.LBE3618:
.LBE3617:
.LBE3616:
.LBE3664:
.LBE3698:
.LBE4073:
.LBB4074:
.LBB3983:
.LBB3949:
.LBB3933:
.LBB3930:
.LBB3928:
	.loc 12 380 0
	slwi 9,9,5
	add 25,25,9
	b .L699
.LVL1414:
.L862:
.LBE3928:
.LBE3930:
.LBE3933:
.LBE3949:
.LBE3983:
.LBE4074:
	.loc 2 2769 0
	lwz 3,common@l(21)
	lis 4,.LC109@ha
	la 4,.LC109@l(4)
	mr 5,24
	lwz 9,0(3)
	addi 30,1,24
	lwz 0,76(9)
	mtctr 0
.LEHB44:
	crxor 6,6,6
	bctrl
.LVL1415:
.LBB4075:
.LBB4076:
	.loc 3 284 0
	addi 3,1,168
.LVL1416:
	li 4,1
	li 5,8
	addi 30,1,24
	bl _ZN8idBitMsg9WriteBitsEii
.LVL1417:
.LBE4076:
.LBE4075:
	.loc 2 2771 0
	addi 3,1,168
.LVL1418:
	mr 4,24
	li 5,-1
	li 6,1
	addi 30,1,24
	bl _ZN8idBitMsg11WriteStringEPKcib
.LVL1419:
.L842:
	.loc 2 2772 0
	addis 8,1,0x1
	lwz 11,0(16)
	lwz 8,-30976(8)
	addis 10,1,0x1
	lwz 9,4(16)
	addi 30,1,24
	lwz 0,8(16)
	addis 4,8,0x1
	lwz 10,-30972(10)
	addi 4,4,-31000
