	.file	"BrittleFracture.cpp"
	.section	".text"
.Ltext0:
	.section	.text._ZN14idFixedWinding5ClearEv,"axG",@progbits,_ZN14idFixedWinding5ClearEv,comdat
	.align 2
	.weak	_ZN14idFixedWinding5ClearEv
	.type	_ZN14idFixedWinding5ClearEv, @function
_ZN14idFixedWinding5ClearEv:
.LFB1502:
	.file 1 "d:/Data/Nintendo/DoomGX/src/game/../idlib/../idlib/geometry/Winding.h"
	.loc 1 398 0
	.cfi_startproc
.LVL0:
	.loc 1 399 0
	li 0,0
	.loc 1 400 0
	.loc 1 399 0
	stw 0,4(3)
	.loc 1 400 0
	blr
	.cfi_endproc
.LFE1502:
	.size	_ZN14idFixedWinding5ClearEv, .-_ZN14idFixedWinding5ClearEv
	.section	".text"
	.align 2
	.globl _ZNK17idBrittleFracture7GetTypeEv
	.type	_ZNK17idBrittleFracture7GetTypeEv, @function
_ZNK17idBrittleFracture7GetTypeEv:
.LFB2811:
	.file 2 "d:/Data/Nintendo/DoomGX/src/game/BrittleFracture.cpp"
	.loc 2 35 0
	.cfi_startproc
.LVL1:
	.loc 2 35 0
	lis 3,.LANCHOR0@ha
.LVL2:
	la 3,.LANCHOR0@l(3)
	blr
	.cfi_endproc
.LFE2811:
	.size	_ZNK17idBrittleFracture7GetTypeEv, .-_ZNK17idBrittleFracture7GetTypeEv
	.section	.text._ZN9idWinding5ClearEv,"axG",@progbits,_ZN9idWinding5ClearEv,comdat
	.align 2
	.weak	_ZN9idWinding5ClearEv
	.type	_ZN9idWinding5ClearEv, @function
_ZN9idWinding5ClearEv:
.LFB1473:
	.loc 1 249 0
	.cfi_startproc
.LVL3:
	mflr 0
	stwu 1,-16(1)
.LCFI0:
	.cfi_def_cfa_offset 16
	.cfi_register 65, 0
	stw 31,12(1)
	mr 31,3
	.cfi_offset 31, -4
	stw 0,20(1)
	.loc 1 250 0
	li 0,0
	.cfi_offset 65, 4
	.loc 1 251 0
	lwz 3,8(3)
.LVL4:
	.loc 1 250 0
	stw 0,4(31)
	.loc 1 251 0
	cmpwi 7,3,0
	beq- 7,.L4
	.loc 1 251 0 is_stmt 0 discriminator 1
	bl _ZdaPv
.L4:
	.loc 1 252 0 is_stmt 1
	li 0,0
	stw 0,8(31)
	.loc 1 253 0
	lwz 0,20(1)
	lwz 31,12(1)
.LVL5:
	mtlr 0
	addi 1,1,16
.LCFI1:
	.cfi_def_cfa_offset 0
	.cfi_restore 31
	blr
	.cfi_endproc
.LFE1473:
	.size	_ZN9idWinding5ClearEv, .-_ZN9idWinding5ClearEv
	.section	.text._ZN9idWindingD2Ev,"axG",@progbits,_ZN9idWindingD5Ev,comdat
	.align 2
	.weak	_ZN9idWindingD2Ev
	.type	_ZN9idWindingD2Ev, @function
_ZN9idWindingD2Ev:
.LFB1461:
	.loc 1 183 0
	.cfi_startproc
.LVL6:
	mflr 0
	stwu 1,-16(1)
.LCFI2:
	.cfi_def_cfa_offset 16
	.cfi_register 65, 0
.LBB1995:
	lis 9,_ZTV9idWinding+8@ha
.LBE1995:
	stw 31,12(1)
	mr 31,3
	.cfi_offset 31, -4
	stw 0,20(1)
.LBB1996:
	.loc 1 183 0
	la 0,_ZTV9idWinding+8@l(9)
	.cfi_offset 65, 4
	.loc 1 184 0
	lwz 3,8(3)
.LVL7:
	.loc 1 183 0
	stw 0,0(31)
	.loc 1 184 0
	cmpwi 7,3,0
	beq- 7,.L7
	.loc 1 184 0 is_stmt 0 discriminator 1
	bl _ZdaPv
.L7:
	.loc 1 185 0 is_stmt 1
	li 0,0
	stw 0,8(31)
.LBE1996:
	.loc 1 186 0
	lwz 0,20(1)
	lwz 31,12(1)
.LVL8:
	mtlr 0
	addi 1,1,16
.LCFI3:
	.cfi_def_cfa_offset 0
	.cfi_restore 31
	blr
	.cfi_endproc
.LFE1461:
	.size	_ZN9idWindingD2Ev, .-_ZN9idWindingD2Ev
	.section	".text"
	.align 2
	.globl _ZNK17idBrittleFracture4SaveEP10idSaveGame
	.type	_ZNK17idBrittleFracture4SaveEP10idSaveGame, @function
_ZNK17idBrittleFracture4SaveEP10idSaveGame:
.LFB2822:
	.loc 2 101 0
	.cfi_startproc
.LVL9:
	mflr 0
	stwu 1,-48(1)
.LCFI4:
	.cfi_def_cfa_offset 48
	.cfi_register 65, 0
	stw 29,36(1)
.LBB1997:
	.loc 2 105 0
	mr 29,1
	.cfi_offset 29, -12
.LBE1997:
	.loc 2 101 0
	stw 0,52(1)
	stw 30,40(1)
	mr 30,4
	.cfi_offset 30, -8
	.cfi_offset 65, 4
	stw 31,44(1)
	mr 31,3
	.cfi_offset 31, -4
	stw 27,28(1)
	stw 28,32(1)
.LBB2010:
	.loc 2 104 0
	lwz 4,188(3)
.LVL10:
	mr 3,30
.LVL11:
	.cfi_offset 28, -16
	.cfi_offset 27, -20
	bl _ZN10idSaveGame8WriteIntEi
	.loc 2 105 0
	lhz 0,192(31)
	.loc 2 106 0
	li 4,2
	.loc 2 105 0
	sthu 0,8(29)
	.loc 2 106 0
	mr 3,29
	bl _Z14LittleBitFieldPvi
	.loc 2 107 0
	li 5,2
	mr 3,30
	mr 4,29
	bl _ZN10idSaveGame5WriteEPKvi
	.loc 2 110 0
	lwz 4,636(31)
	mr 3,30
	bl _ZN10idSaveGame13WriteMaterialEPK10idMaterial
	.loc 2 111 0
	lwz 4,640(31)
	mr 3,30
	bl _ZN10idSaveGame13WriteMaterialEPK10idMaterial
	.loc 2 112 0
	lfs 1,644(31)
	mr 3,30
	bl _ZN10idSaveGame10WriteFloatEf
	.loc 2 113 0
	lfs 1,648(31)
	mr 3,30
	bl _ZN10idSaveGame10WriteFloatEf
	.loc 2 114 0
	lfs 1,652(31)
	mr 3,30
	bl _ZN10idSaveGame10WriteFloatEf
	.loc 2 115 0
	lfs 1,656(31)
	mr 3,30
	bl _ZN10idSaveGame10WriteFloatEf
	.loc 2 116 0
	lfs 1,660(31)
	mr 3,30
	bl _ZN10idSaveGame10WriteFloatEf
	.loc 2 117 0
	lfs 1,664(31)
	mr 3,30
	bl _ZN10idSaveGame10WriteFloatEf
	.loc 2 118 0
	lfs 1,668(31)
	mr 3,30
	bl _ZN10idSaveGame10WriteFloatEf
	.loc 2 119 0
	lfs 1,672(31)
	mr 3,30
	bl _ZN10idSaveGame10WriteFloatEf
	.loc 2 120 0
	lfs 1,676(31)
	mr 3,30
	bl _ZN10idSaveGame10WriteFloatEf
	.loc 2 121 0
	lfs 1,680(31)
	mr 3,30
	bl _ZN10idSaveGame10WriteFloatEf
.LVL12:
	.loc 2 122 0
	lwz 4,688(31)
	mr 3,30
	bl _ZN10idSaveGame11WriteStringEPKc
	.loc 2 125 0
	mr 3,30
	addi 4,31,776
	bl _ZN10idSaveGame11WriteBoundsERK8idBounds
	.loc 2 126 0
	lbz 4,800(31)
	mr 3,30
	bl _ZN10idSaveGame9WriteBoolEb
	.loc 2 128 0
	lwz 4,804(31)
	mr 3,30
	bl _ZN10idSaveGame8WriteIntEi
	.loc 2 129 0
	lbz 4,808(31)
	mr 3,30
	bl _ZN10idSaveGame9WriteBoolEb
	.loc 2 131 0
	mr 3,30
	addi 4,31,716
	bl _ZN10idSaveGame17WriteStaticObjectERK7idClass
	.loc 2 133 0
	lwz 4,760(31)
	mr 3,30
	bl _ZN10idSaveGame8WriteIntEi
.LVL13:
.LBB1998:
	.loc 2 134 0
	lwz 0,760(31)
	cmpwi 7,0,0
	ble- 7,.L9
	li 27,0
.LVL14:
.L20:
.LBB1999:
	.loc 2 135 0
	lwz 9,772(31)
.LBE1999:
	.loc 2 101 0
	slwi 28,27,2
.LBB2008:
	.loc 2 135 0
	mr 3,30
	lwzx 4,9,28
	addi 4,4,4
	bl _ZN10idSaveGame12WriteWindingERK9idWinding
.LVL15:
	.loc 2 137 0
	lwz 9,772(31)
	mr 3,30
	.loc 2 1290 0
	lwzx 9,9,28
	.loc 2 137 0
	lwz 4,1300(9)
	bl _ZN10idSaveGame8WriteIntEi
.LVL16:
	.loc 2 138 0
	lwz 9,772(31)
	lwzx 9,9,28
	lwz 0,1300(9)
	cmpwi 7,0,0
	ble- 7,.L11
	li 29,0
.LVL17:
.L12:
	.loc 2 139 0 discriminator 2
	lwz 9,1312(9)
	slwi 0,29,2
	mr 3,30
	.loc 2 138 0 discriminator 2
	addi 29,29,1
.LVL18:
	.loc 2 139 0 discriminator 2
	lwzx 4,9,0
	bl _ZN10idSaveGame12WriteWindingERK9idWinding
.LVL19:
	.loc 2 138 0 discriminator 2
	lwz 9,772(31)
	lwzx 9,9,28
	lwz 0,1300(9)
	cmpw 7,0,29
	bgt+ 7,.L12
.LVL20:
.L11:
	.loc 2 142 0
	lwz 4,1332(9)
	mr 3,30
	bl _ZN10idSaveGame8WriteIntEi
.LVL21:
	.loc 2 1290 0
	lwz 9,772(31)
.LVL22:
.LBB2000:
	.loc 2 143 0
	lwzx 11,9,28
	lwz 0,1332(11)
	cmpwi 7,0,0
	ble- 7,.L13
	li 29,0
.LVL23:
.L17:
	.loc 2 1290 0 discriminator 2
	lwz 0,760(31)
.LBB2001:
.LBB2002:
.LBB2003:
	.file 3 "d:/Data/Nintendo/DoomGX/src/game/../idlib/../idlib/containers/List.h"
	.loc 3 779 0 discriminator 2
	li 4,-1
.LBE2003:
.LBE2002:
.LBE2001:
	.loc 2 1290 0 discriminator 2
	lwz 11,1344(11)
.LVL24:
.LBB2006:
.LBB2005:
.LBB2004:
	.loc 3 772 0 discriminator 2
	cmpwi 7,0,0
	ble- 7,.L14
	.loc 3 773 0
	slwi 10,29,2
	.loc 3 772 0
	li 4,0
	.loc 3 773 0
	lwzx 11,11,10
.LVL25:
	.loc 3 772 0
	mtctr 0
	.loc 3 773 0
	lwz 10,0(9)
	cmpw 7,10,11
	bne+ 7,.L15
	b .L14
.LVL26:
.L16:
	lwzu 0,4(9)
	cmpw 7,11,0
	beq- 7,.L14
.LVL27:
.L15:
	.loc 3 772 0
	addi 4,4,1
.LVL28:
	bdnz .L16
	.loc 3 779 0
	li 4,-1
.LVL29:
.L14:
.LBE2004:
.LBE2005:
	.loc 2 146 0
	mr 3,30
.LBE2006:
	.loc 2 143 0
	addi 29,29,1
.LVL30:
.LBB2007:
	.loc 2 146 0
	bl _ZN10idSaveGame8WriteIntEi
.LVL31:
.LBE2007:
	.loc 2 1290 0
	lwz 9,772(31)
	.loc 2 143 0
	lwzx 11,9,28
	lwz 0,1332(11)
	cmpw 7,0,29
	bgt+ 7,.L17
.LVL32:
.L13:
.LBE2000:
	.loc 2 149 0
	lwz 4,1316(11)
	mr 3,30
	bl _ZN10idSaveGame8WriteIntEi
.LVL33:
	.loc 2 150 0
	lwz 9,772(31)
	lwzx 9,9,28
	lwz 0,1316(9)
	cmpwi 7,0,0
	ble- 7,.L18
	li 29,0
.LVL34:
.L19:
	.loc 2 151 0 discriminator 2
	lwz 9,1328(9)
	mr 3,30
	lbzx 4,9,29
	.loc 2 150 0 discriminator 2
	addi 29,29,1
.LVL35:
	.loc 2 151 0 discriminator 2
	bl _ZN10idSaveGame9WriteBoolEb
.LVL36:
	.loc 2 150 0 discriminator 2
	lwz 9,772(31)
	lwzx 9,9,28
	lwz 0,1316(9)
	cmpw 7,0,29
	bgt+ 7,.L19
.LVL37:
.L18:
	.loc 2 154 0
	lwz 4,1892(9)
	mr 3,30
.LBE2008:
	.loc 2 134 0
	addi 27,27,1
.LVL38:
.LBB2009:
	.loc 2 154 0
	bl _ZN10idSaveGame8WriteIntEi
	.loc 2 155 0
	lwz 9,772(31)
	mr 3,30
	lwzx 9,9,28
	lwz 4,1900(9)
	bl _ZN10idSaveGame8WriteIntEi
	.loc 2 156 0
	lwz 9,772(31)
	mr 3,30
	lwzx 9,9,28
	lbz 4,1896(9)
	bl _ZN10idSaveGame9WriteBoolEb
	.loc 2 157 0
	lwz 9,772(31)
	mr 3,30
	lwzx 4,9,28
	addi 4,4,1348
	bl _ZN10idSaveGame17WriteStaticObjectERK7idClass
.LVL39:
.LBE2009:
	.loc 2 134 0
	lwz 0,760(31)
	cmpw 7,0,27
	bgt+ 7,.L20
.LVL40:
.L9:
.LBE1998:
.LBE2010:
	.loc 2 159 0
	lwz 0,52(1)
	lwz 27,28(1)
	mtlr 0
	lwz 28,32(1)
	lwz 29,36(1)
	lwz 30,40(1)
.LVL41:
	lwz 31,44(1)
.LVL42:
	addi 1,1,48
.LCFI5:
	.cfi_def_cfa_offset 0
	.cfi_restore 31
	.cfi_restore 30
	.cfi_restore 29
	.cfi_restore 28
	.cfi_restore 27
	blr
	.cfi_endproc
.LFE2822:
	.size	_ZNK17idBrittleFracture4SaveEP10idSaveGame, .-_ZNK17idBrittleFracture4SaveEP10idSaveGame
	.align 2
	.globl _ZN17idBrittleFracture21ClientPredictionThinkEv
	.type	_ZN17idBrittleFracture21ClientPredictionThinkEv, @function
_ZN17idBrittleFracture21ClientPredictionThinkEv:
.LFB2850:
	.loc 2 1247 0
	.cfi_startproc
.LVL43:
	mflr 0
	stwu 1,-8(1)
.LCFI6:
	.cfi_def_cfa_offset 8
	.cfi_register 65, 0
	.loc 2 1249 0
	lis 9,gameLocal+2426876@ha
	.loc 2 1247 0
	stw 0,12(1)
	.loc 2 1249 0
	lbz 0,gameLocal+2426876@l(9)
	.cfi_offset 65, 4
	cmpwi 7,0,0
	beq+ 7,.L27
.LVL44:
.LBB2013:
.LBB2014:
	.loc 2 1253 0
	lwz 9,0(3)
	lwz 0,20(9)
	mtctr 0
	bctrl
.LVL45:
.L27:
.LBE2014:
.LBE2013:
	.loc 2 1254 0
	lwz 0,12(1)
	addi 1,1,8
.LCFI7:
	.cfi_def_cfa_offset 0
	mtlr 0
	blr
	.cfi_endproc
.LFE2850:
	.size	_ZN17idBrittleFracture21ClientPredictionThinkEv, .-_ZN17idBrittleFracture21ClientPredictionThinkEv
	.align 2
	.globl _ZN17idBrittleFracture7PresentEv
	.type	_ZN17idBrittleFracture7PresentEv, @function
_ZN17idBrittleFracture7PresentEv:
.LFB2833:
	.loc 2 536 0
	.cfi_startproc
.LVL46:
	mflr 0
	stwu 1,-16(1)
.LCFI8:
	.cfi_def_cfa_offset 16
	.cfi_register 65, 0
	stw 31,12(1)
	mr 31,3
	.cfi_offset 31, -4
	stw 0,20(1)
	.loc 2 539 0
	lwz 0,152(3)
	.cfi_offset 65, 4
	andi. 9,0,8
	bne- 0,.L35
	.loc 2 559 0
	lwz 0,20(1)
	lwz 31,12(1)
	mtlr 0
	addi 1,1,16
	.cfi_remember_state
.LCFI9:
	.cfi_def_cfa_offset 0
	.cfi_restore 31
	blr
.L35:
.LCFI10:
	.cfi_restore_state
.LVL47:
.LBB2028:
.LBB2029:
	.loc 2 542 0
	li 4,8
	bl _ZN8idEntity14BecomeInactiveEi
.LVL48:
.LBB2030:
.LBB2031:
.LBB2032:
	.file 4 "d:/Data/Nintendo/DoomGX/src/game/../idlib/../idlib/math/Vector.h"
	.loc 4 426 0
	lwz 8,784(31)
	.loc 4 424 0
	lwz 6,776(31)
.LBE2032:
.LBE2031:
.LBE2030:
.LBB2039:
.LBB2040:
	.loc 4 416 0
	li 0,0
.LBE2040:
.LBE2039:
.LBB2042:
.LBB2036:
.LBB2033:
	.loc 4 425 0
	lwz 11,792(31)
	.loc 4 426 0
	lwz 9,796(31)
	.loc 4 425 0
	lwz 7,780(31)
	.loc 4 424 0
	lwz 10,788(31)
	.loc 4 426 0
	stw 8,216(31)
.LVL49:
	lis 8,mat3_identity@ha
	.loc 4 424 0
	stw 6,208(31)
	la 8,mat3_identity@l(8)
	.loc 4 425 0
	stw 11,224(31)
	.loc 4 426 0
	stw 9,228(31)
.LVL50:
.LBE2033:
.LBE2036:
.LBE2042:
.LBB2043:
.LBB2041:
	.loc 4 416 0
	stw 0,264(31)
	stw 0,260(31)
	stw 0,256(31)
.LVL51:
.LBE2041:
.LBE2043:
.LBB2044:
.LBB2037:
.LBB2034:
	.loc 4 425 0
	stw 7,212(31)
.LBE2034:
.LBE2037:
.LBE2044:
.LBB2045:
.LBB2046:
.LBB2047:
	.file 5 "d:/Data/Nintendo/DoomGX/src/game/../idlib/../idlib/math/Matrix.h"
	.loc 5 333 0
	addi 7,31,268
.LBE2047:
.LBE2046:
.LBE2045:
.LBB2056:
.LBB2038:
.LBB2035:
	.loc 4 424 0
	stw 10,220(31)
.LBE2035:
.LBE2038:
.LBE2056:
.LBB2057:
.LBB2055:
.LBB2054:
	.loc 5 333 0
	li 10,0
.L31:
.LBB2048:
.LBB2049:
	.loc 4 424 0
	mr 11,8
	mr 9,7
	lwzux 0,11,10
.LBE2049:
.LBE2048:
	.loc 5 333 0
	cmpwi 7,10,24
.LBB2052:
.LBB2050:
	.loc 4 424 0
	stwux 0,9,10
.LBE2050:
.LBE2052:
	.loc 5 333 0
	addi 10,10,12
.LBB2053:
.LBB2051:
	.loc 4 425 0
	lwz 0,4(11)
	stw 0,4(9)
	.loc 4 426 0
	lwz 0,8(11)
	stw 0,8(9)
.LBE2051:
.LBE2053:
	.loc 5 333 0
	bne+ 7,.L31
.LBE2054:
.LBE2055:
.LBE2057:
	.loc 2 552 0
	lwz 4,412(31)
	.loc 2 553 0
	lis 9,gameRenderWorld@ha
	.loc 2 549 0
	li 0,1
	.loc 2 553 0
	lwz 3,gameRenderWorld@l(9)
	.loc 2 552 0
	cmpwi 7,4,-1
	.loc 2 549 0
	stw 0,400(31)
	.loc 2 552 0
	beq- 7,.L36
	.loc 2 555 0
	lwz 9,0(3)
	addi 5,31,196
	lwz 0,20(9)
	mtctr 0
	bctrl
.L33:
	.loc 2 558 0
	li 0,1
	stb 0,808(31)
.LBE2029:
.LBE2028:
	.loc 2 559 0
	lwz 0,20(1)
	lwz 31,12(1)
.LVL52:
	mtlr 0
	addi 1,1,16
	.cfi_remember_state
	.cfi_restore 31
.LCFI11:
	.cfi_def_cfa_offset 0
	blr
.LVL53:
.L36:
.LCFI12:
	.cfi_restore_state
.LBB2059:
.LBB2058:
	.loc 2 553 0
	lwz 9,0(3)
	addi 4,31,196
	lwz 0,16(9)
	mtctr 0
	bctrl
.LVL54:
	stw 3,412(31)
	b .L33
.LBE2058:
.LBE2059:
	.cfi_endproc
.LFE2833:
	.size	_ZN17idBrittleFracture7PresentEv, .-_ZN17idBrittleFracture7PresentEv
	.align 2
	.type	_Z41__static_initialization_and_destruction_0ii.constprop.49, @function
_Z41__static_initialization_and_destruction_0ii.constprop.49:
.LFB3228:
	.loc 2 1290 0
	.cfi_startproc
.LVL55:
	cmpwi 7,3,1
	mflr 0
	stwu 1,-40(1)
.LCFI13:
	.cfi_def_cfa_offset 40
	.cfi_register 65, 0
	stw 0,44(1)
	stw 30,32(1)
	stw 31,36(1)
	.loc 2 1290 0
	beq- 7,.L40
	.cfi_offset 31, -4
	.cfi_offset 30, -8
	.cfi_offset 65, 4
	.loc 2 35 0
	cmpwi 7,3,0
	bne- 7,.L37
.LVL56:
.LBB2070:
.LBB2071:
	lis 3,.LANCHOR0@ha
.LVL57:
	la 3,.LANCHOR0@l(3)
	bl _ZN10idTypeInfoD1Ev
.LVL58:
.L37:
.LBE2071:
.LBE2070:
	.loc 2 1290 0
	lwz 0,44(1)
	lwz 30,32(1)
	mtlr 0
	lwz 31,36(1)
	addi 1,1,40
	.cfi_remember_state
.LCFI14:
	.cfi_def_cfa_offset 0
	.cfi_restore 31
	.cfi_restore 30
	blr
.LVL59:
.L40:
.LCFI15:
	.cfi_restore_state
	.file 6 "d:/Data/Nintendo/DoomGX/src/game/Game_local.h"
	.loc 6 694 0
	lis 9,_ZN6idMath8M_SEC2MSE@ha
	.loc 6 121 0
	lis 11,.LANCHOR0@ha
	.loc 6 694 0
	lfs 0,_ZN6idMath8M_SEC2MSE@l(9)
	.loc 6 121 0
	la 11,.LANCHOR0@l(11)
.LBB2072:
.LBB2073:
	.loc 4 396 0
	li 12,0
.LBE2073:
.LBE2072:
	.loc 6 121 0
	li 30,3
.LBB2077:
.LBB2074:
	.loc 4 396 0
	stw 12,84(11)
.LBE2074:
.LBE2077:
	.loc 6 694 0
	fadds 0,0,0
.LBB2078:
.LBB2075:
	.loc 4 397 0
	stw 12,88(11)
	.loc 4 398 0
	lis 12,.LC0@ha
	lwz 12,.LC0@l(12)
.LBE2075:
.LBE2078:
.LBB2079:
.LBB2080:
	.file 7 "d:/Data/Nintendo/DoomGX/src/game/../idlib/../idlib/math/Math.h"
	.loc 7 825 0
	addi 31,11,96
	fctiwz 0,0
.LBE2080:
.LBE2079:
	.loc 6 121 0
	stw 30,80(11)
.LVL60:
.LBB2082:
.LBB2076:
	.loc 4 398 0
	stw 12,92(11)
.LVL61:
.LBE2076:
.LBE2082:
	.file 8 "d:/Data/Nintendo/DoomGX/src/game/Player.h"
	.loc 8 69 0
	li 12,10
	stw 12,100(11)
	.loc 2 35 0
	mr 3,11
.LVL62:
	lis 11,_ZN17idBrittleFracture5SpawnEv@ha
.LBB2083:
.LBB2081:
	.loc 7 825 0
	stfiwx 0,0,31
.LVL63:
.LBE2081:
.LBE2083:
	.loc 2 35 0
	la 11,_ZN17idBrittleFracture5SpawnEv@l(11)
	lis 4,.LC1@ha
	stw 11,8(1)
	lis 11,_ZNK17idBrittleFracture4SaveEP10idSaveGame@ha
	la 11,_ZNK17idBrittleFracture4SaveEP10idSaveGame@l(11)
	lis 5,.LC2@ha
	stw 11,16(1)
	lis 6,.LANCHOR1@ha
	lis 7,_ZN17idBrittleFracture14CreateInstanceEv@ha
	lis 11,_ZN17idBrittleFracture7RestoreEP13idRestoreGame@ha
	li 0,0
	la 11,_ZN17idBrittleFracture7RestoreEP13idRestoreGame@l(11)
	la 4,.LC1@l(4)
	la 5,.LC2@l(5)
	la 6,.LANCHOR1@l(6)
	la 7,_ZN17idBrittleFracture14CreateInstanceEv@l(7)
	addi 8,1,8
	addi 9,1,16
	addi 10,1,24
	stw 0,12(1)
	stw 0,20(1)
	stw 11,24(1)
	stw 0,28(1)
	bl _ZN10idTypeInfoC1EPKcS1_P11idEventFuncI7idClassEPFPS3_vEMS3_FvvEMS3_KFvP10idSaveGameEMS3_FvP13idRestoreGameE
	b .L37
	.cfi_endproc
.LFE3228:
	.size	_Z41__static_initialization_and_destruction_0ii.constprop.49, .-_Z41__static_initialization_and_destruction_0ii.constprop.49
	.section	.text._ZN14idFixedWindingD2Ev,"axG",@progbits,_ZN14idFixedWindingD5Ev,comdat
	.align 2
	.weak	_ZN14idFixedWindingD2Ev
	.type	_ZN14idFixedWindingD2Ev, @function
_ZN14idFixedWindingD2Ev:
.LFB1498:
	.loc 1 380 0
	.cfi_startproc
.LVL64:
.LBB2089:
	.loc 1 381 0
	li 0,0
.LBB2090:
.LBB2091:
.LBB2092:
	.loc 1 183 0
	lis 9,_ZTV9idWinding+8@ha
.LBE2092:
.LBE2091:
.LBE2090:
	.loc 1 381 0
	stw 0,8(3)
.LVL65:
.LBB2095:
.LBB2094:
.LBB2093:
	.loc 1 183 0
	la 0,_ZTV9idWinding+8@l(9)
	stw 0,0(3)
.LBE2093:
.LBE2094:
.LBE2095:
.LBE2089:
	.loc 1 382 0
	blr
	.cfi_endproc
.LFE1498:
	.size	_ZN14idFixedWindingD2Ev, .-_ZN14idFixedWindingD2Ev
	.section	.text._ZN9idWindingD0Ev,"axG",@progbits,_ZN9idWindingD5Ev,comdat
	.align 2
	.weak	_ZN9idWindingD0Ev
	.type	_ZN9idWindingD0Ev, @function
_ZN9idWindingD0Ev:
.LFB1463:
	.loc 1 183 0
	.cfi_startproc
.LVL66:
	mflr 0
	stwu 1,-16(1)
.LCFI16:
	.cfi_def_cfa_offset 16
	.cfi_register 65, 0
.LBB2099:
.LBB2100:
.LBB2101:
	lis 9,_ZTV9idWinding+8@ha
.LBE2101:
.LBE2100:
.LBE2099:
	stw 31,12(1)
	mr 31,3
	.cfi_offset 31, -4
.LVL67:
	stw 0,20(1)
.LBB2106:
.LBB2104:
.LBB2102:
	.loc 1 183 0
	la 0,_ZTV9idWinding+8@l(9)
	.cfi_offset 65, 4
	.loc 1 184 0
	lwz 3,8(3)
.LVL68:
	.loc 1 183 0
	stw 0,0(31)
	.loc 1 184 0
	cmpwi 7,3,0
	beq- 7,.L45
	bl _ZdaPv
.LVL69:
.L45:
	.loc 1 185 0
	li 0,0
.LBE2102:
.LBE2104:
.LBE2106:
	.loc 1 186 0
	mr 3,31
.LBB2107:
.LBB2105:
.LBB2103:
	.loc 1 185 0
	stw 0,8(31)
.LBE2103:
.LBE2105:
.LBE2107:
	.loc 1 186 0
	bl _ZdlPv
	lwz 0,20(1)
	lwz 31,12(1)
.LVL70:
	mtlr 0
	addi 1,1,16
.LCFI17:
	.cfi_def_cfa_offset 0
	.cfi_restore 31
	blr
	.cfi_endproc
.LFE1463:
	.size	_ZN9idWindingD0Ev, .-_ZN9idWindingD0Ev
	.section	.text._ZN14idFixedWindingD0Ev,"axG",@progbits,_ZN14idFixedWindingD5Ev,comdat
	.align 2
	.weak	_ZN14idFixedWindingD0Ev
	.type	_ZN14idFixedWindingD0Ev, @function
_ZN14idFixedWindingD0Ev:
.LFB1500:
	.loc 1 380 0
	.cfi_startproc
.LVL71:
	mflr 0
	stwu 1,-8(1)
.LCFI18:
	.cfi_def_cfa_offset 8
	.cfi_register 65, 0
.LBB2114:
.LBB2115:
.LBB2116:
.LBB2117:
.LBB2118:
.LBB2119:
	.loc 1 183 0
	lis 11,_ZTV9idWinding+8@ha
.LBE2119:
.LBE2118:
.LBE2117:
.LBE2116:
.LBE2115:
.LBE2114:
	.loc 1 380 0
	stw 0,12(1)
.LBB2125:
.LBB2124:
.LBB2123:
	.loc 1 381 0
	li 0,0
	.cfi_offset 65, 4
	stw 0,8(3)
.LVL72:
.LBB2122:
.LBB2121:
.LBB2120:
	.loc 1 183 0
	la 0,_ZTV9idWinding+8@l(11)
	stw 0,0(3)
.LBE2120:
.LBE2121:
.LBE2122:
.LBE2123:
.LBE2124:
.LBE2125:
	.loc 1 382 0
	bl _ZdlPv
.LVL73:
	lwz 0,12(1)
	addi 1,1,8
.LCFI19:
	.cfi_def_cfa_offset 0
	mtlr 0
	blr
	.cfi_endproc
.LFE1500:
	.size	_ZN14idFixedWindingD0Ev, .-_ZN14idFixedWindingD0Ev
	.section	".text"
	.align 2
	.globl _ZNK17idBrittleFracture18UpdateRenderEntityEP14renderEntity_sPK12renderView_s
	.type	_ZNK17idBrittleFracture18UpdateRenderEntityEP14renderEntity_sPK12renderView_s, @function
_ZNK17idBrittleFracture18UpdateRenderEntityEP14renderEntity_sPK12renderView_s:
.LFB2831:
	.loc 2 334 0
	.cfi_startproc
.LVL74:
.LBB2371:
	.loc 2 346 0
	cmpwi 7,5,0
.LBE2371:
	.loc 2 334 0
	mflr 0
	stwu 1,-232(1)
.LCFI20:
	.cfi_def_cfa_offset 232
	.cfi_register 65, 0
	stw 28,216(1)
	mr 28,4
	.cfi_offset 28, -16
	stw 29,220(1)
	mr 29,3
	.cfi_offset 29, -12
	stw 0,236(1)
.LBB2741:
	.loc 2 347 0
	li 3,0
.LVL75:
.LBE2741:
	.loc 2 334 0
	stw 14,160(1)
	stw 15,164(1)
	stw 16,168(1)
	stw 17,172(1)
	stw 18,176(1)
	stw 19,180(1)
	stw 20,184(1)
	stw 21,188(1)
	stw 22,192(1)
	stw 23,196(1)
	stw 24,200(1)
	stw 25,204(1)
	stw 26,208(1)
	stw 27,212(1)
	stw 30,224(1)
	stw 31,228(1)
.LBB2742:
	.loc 2 346 0
	beq- 7,.L53
	.cfi_offset 31, -4
	.cfi_offset 30, -8
	.cfi_offset 27, -20
	.cfi_offset 26, -24
	.cfi_offset 25, -28
	.cfi_offset 24, -32
	.cfi_offset 23, -36
	.cfi_offset 22, -40
	.cfi_offset 21, -44
	.cfi_offset 20, -48
	.cfi_offset 19, -52
	.cfi_offset 18, -56
	.cfi_offset 17, -60
	.cfi_offset 16, -64
	.cfi_offset 15, -68
	.cfi_offset 14, -72
	.cfi_offset 65, 4
	.loc 2 351 0
	lis 9,gameLocal+2424832@ha
	la 9,gameLocal+2424832@l(9)
	lwz 0,2004(9)
	lwz 9,804(29)
	cmpw 7,9,0
	beq- 7,.L53
	.loc 2 351 0 is_stmt 0 discriminator 1
	lbz 9,808(29)
	cmpwi 7,9,0
	beq- 7,.L53
	.loc 2 1290 0 is_stmt 1
	lwz 7,760(29)
	.loc 2 355 0
	stw 0,804(29)
	.loc 2 360 0
	cmpwi 7,7,0
	.loc 2 356 0
	stb 3,808(29)
.LVL76:
	.loc 2 360 0
	ble- 7,.L77
	lwz 6,772(29)
	.loc 2 359 0
	li 31,0
	.loc 2 358 0
	li 30,0
	.loc 2 360 0
	li 8,0
.LVL77:
.L59:
	.loc 2 361 0
	slwi 0,8,2
	lwzx 9,6,0
	.loc 2 1290 0
	lwz 11,8(9)
	.loc 2 362 0
	cmpwi 7,11,2
	ble- 7,.L55
	.loc 2 363 0
	addi 11,11,-2
	add 30,30,11
.LVL78:
.L55:
	.loc 2 1290 0
	lwz 0,1300(9)
	.loc 2 365 0
	cmpwi 7,0,0
	ble- 7,.L56
	mtctr 0
	lwz 10,1312(9)
	li 9,0
.LVL79:
.L58:
	.loc 2 366 0
	slwi 0,9,2
	.loc 2 365 0
	addi 9,9,1
.LVL80:
	.loc 2 1290 0
	lwzx 11,10,0
	lwz 11,4(11)
	.loc 2 367 0
	cmpwi 7,11,2
	.loc 2 368 0
	addi 11,11,-2
	.loc 2 367 0
	ble- 7,.L57
	.loc 2 368 0
	add 31,31,11
.LVL81:
.L57:
	.loc 2 365 0
	bdnz .L58
.LVL82:
.L56:
	.loc 2 360 0
	addi 8,8,1
.LVL83:
	cmpw 7,8,7
	bne+ 7,.L59
	mulli 26,30,3
	mulli 27,31,3
.LVL84:
.L54:
	.loc 2 374 0
	lwz 3,0(28)
	lis 4,.LC4@ha
.LVL85:
	li 5,0
.LVL86:
	la 4,.LC4@l(4)
	lwz 9,0(3)
	li 6,0
	lwz 0,16(9)
	mtctr 0
	bctrl
	.loc 2 1290 0
	lwz 9,636(29)
	.loc 2 377 0
	lwz 3,0(28)
	mr 5,26
	lbz 0,200(9)
	lwz 9,0(3)
	cmpwi 7,0,0
	lwz 0,100(9)
	beq- 7,.L60
	.loc 2 377 0 is_stmt 0 discriminator 1
	mulli 5,30,6
.L60:
	.loc 2 377 0 discriminator 3
	mtctr 0
	mr 4,26
	bctrl
	.loc 2 1290 0 is_stmt 1 discriminator 3
	lwz 9,640(29)
	.loc 2 377 0 discriminator 3
	mr 30,3
.LVL87:
	.loc 2 378 0 discriminator 3
	lwz 3,0(28)
.LVL88:
	lbz 0,200(9)
	mr 5,27
	lwz 9,0(3)
	cmpwi 7,0,0
	lwz 0,100(9)
	beq- 7,.L61
	.loc 2 378 0 is_stmt 0 discriminator 1
	mulli 5,31,6
.L61:
	.loc 2 378 0 discriminator 3
	mtctr 0
	mr 4,27
	bctrl
.LBB2372:
	.loc 2 380 0 is_stmt 1 discriminator 3
	lwz 0,760(29)
.LBE2372:
	.loc 2 378 0 discriminator 3
	mr 31,3
.LVL89:
.LBB2739:
	.loc 2 380 0 discriminator 3
	cmpwi 7,0,0
	ble- 7,.L62
	lwz 10,772(29)
	.loc 2 380 0 is_stmt 0
	li 21,0
.LBB2373:
.LBB2374:
.LBB2375:
.LBB2376:
.LBB2377:
	.loc 4 416 0 is_stmt 1
	li 27,0
.LBE2377:
.LBE2376:
	.file 9 "d:/Data/Nintendo/DoomGX/src/game/../idlib/../idlib/geometry/DrawVert.h"
	.loc 9 79 0
	li 25,0
.LVL90:
.L73:
.LBE2375:
.LBE2374:
.LBE2373:
	.loc 2 334 0
	slwi 20,21,2
.LBB2737:
	.loc 2 381 0
	lwzx 9,10,20
	.loc 2 385 0
	lwz 0,1892(9)
	.loc 2 381 0
	lwz 24,0(9)
.LVL91:
	.loc 2 385 0
	cmpwi 7,0,0
	.loc 2 382 0
	addi 26,24,28
.LVL92:
	.loc 2 385 0
	blt- 7,.L80
.LVL93:
	.loc 2 386 0
	lis 11,gameLocal+2424832@ha
	la 11,gameLocal+2424832@l(11)
	lwz 9,2004(11)
	subf 0,0,9
.LVL94:
	.loc 2 387 0
	addic. 0,0,-2000
.LVL95:
	ble- 0,.L81
	.loc 2 388 0
	xoris 0,0,0x8000
.LVL96:
	lis 9,.LC6@ha
	stw 0,140(1)
	lis 0,0x4330
.LVL97:
	stw 0,136(1)
	lis 11,.LC7@ha
	lfs 13,.LC6@l(9)
	lis 9,.LC3@ha
	lfd 12,136(1)
	la 9,.LC3@l(9)
	lfs 0,.LC7@l(11)
	fsub 12,12,13
	lfs 13,0(9)
	frsp 12,12
	fdivs 0,12,0
	fsubs 0,13,0
.LVL98:
.L63:
	.loc 2 394 0
	lfs 11,128(28)
	addi 3,1,32
	lfs 13,132(28)
	lfs 12,124(28)
	fmuls 11,0,11
	fmuls 13,0,13
.LVL99:
.LBB2389:
.LBB2390:
	.loc 4 870 0
	stfs 0,44(1)
.LBE2390:
.LBE2389:
	.loc 2 394 0
	fmuls 12,12,0
.LBB2392:
.LBB2391:
	.loc 4 868 0
	stfs 11,36(1)
	.loc 4 869 0
	stfs 13,40(1)
	.loc 4 867 0
	stfs 12,32(1)
.LBE2391:
.LBE2392:
	.loc 2 394 0
	bl _Z9PackColorRK6idVec4
.LVL100:
	.loc 2 396 0
	lwz 9,772(29)
	.loc 2 398 0
	addi 4,1,48
	.loc 2 394 0
	mr 23,3
.LVL101:
	.loc 2 396 0
	lwzx 22,9,20
.LVL102:
	.loc 2 398 0
	addi 3,22,4
.LVL103:
	bl _ZNK9idWinding8GetPlaneER7idPlane
.LVL104:
.LBB2393:
.LBB2394:
.LBB2395:
	.loc 5 454 0
	lfs 0,52(1)
	lfs 12,44(24)
.LBE2395:
.LBE2394:
.LBE2393:
	.loc 2 399 0
	addi 3,1,64
.LBB2406:
.LBB2404:
.LBB2402:
	.loc 5 454 0
	lfs 13,48(24)
.LBE2402:
.LBE2404:
.LBE2406:
	.loc 2 399 0
	addi 4,1,8
.LBB2407:
.LBB2405:
.LBB2403:
	.loc 5 454 0
	lfs 11,40(24)
	fmuls 12,0,12
	fmuls 13,0,13
	lfs 8,32(24)
	fmuls 11,0,11
	lfs 9,36(24)
	lfs 0,48(1)
.LBB2396:
.LBB2397:
	lfs 10,28(24)
.LBE2397:
.LBE2396:
	fmadds 12,0,8,12
	lfs 8,56(24)
.LBB2400:
.LBB2398:
	fmadds 11,10,0,11
	lfs 10,52(24)
.LBE2398:
.LBE2400:
	fmadds 13,0,9,13
	lfs 0,56(1)
	lfs 9,60(24)
	fmadds 12,0,8,12
	fmadds 13,0,9,13
.LVL105:
.LBB2401:
.LBB2399:
	fmadds 0,10,0,11
	.loc 4 397 0
	stfs 12,12(1)
	.loc 4 398 0
	stfs 13,16(1)
	.loc 4 396 0
	stfs 0,8(1)
.LBE2399:
.LBE2401:
.LBE2403:
.LBE2405:
.LBE2407:
	.loc 2 399 0
	bl _ZNK6idVec36ToMat3Ev
.LVL106:
	li 10,0
.L64:
.LBB2408:
.LBB2409:
.LBB2410:
.LBB2411:
	.loc 4 424 0
	addi 11,1,64
.LVL107:
.LBE2411:
.LBE2410:
	.loc 5 333 0
	cmpwi 7,10,24
.LBB2414:
.LBB2412:
	.loc 4 424 0
	lwzux 0,11,10
.LVL108:
	addi 9,1,100
	stwux 0,9,10
.LBE2412:
.LBE2414:
	.loc 5 333 0
	addi 10,10,12
.LBB2415:
.LBB2413:
	.loc 4 425 0
	lwz 8,4(11)
	.loc 4 426 0
	lwz 0,8(11)
	.loc 4 425 0
	stw 8,4(9)
	.loc 4 426 0
	stw 0,8(9)
.LBE2413:
.LBE2415:
	.loc 5 333 0
	bne+ 7,.L64
.LVL109:
.LBE2409:
.LBE2408:
	.loc 2 401 0 discriminator 1
	lwz 0,8(22)
	cmpwi 7,0,2
	ble- 7,.L65
	.loc 2 401 0 is_stmt 0
	lwz 16,100(1)
	li 11,20
	lwz 17,104(1)
	li 8,2
	lwz 18,108(1)
	lwz 19,112(1)
	lwz 3,116(1)
	lwz 4,120(1)
	lwz 5,124(1)
	lwz 6,128(1)
	lwz 7,132(1)
.LVL110:
.L67:
	.loc 2 403 0 is_stmt 1
	lwz 9,36(30)
	lwz 10,40(30)
	mulli 0,9,60
	addi 15,9,1
	stw 15,36(30)
	add 9,10,0
.LVL111:
.LBB2416:
.LBB2388:
.LBB2379:
.LBB2378:
	.loc 4 416 0
	stw 27,8(9)
	stw 27,4(9)
	stwx 27,10,0
.LVL112:
.LBE2378:
.LBE2379:
.LBB2380:
.LBB2381:
	.loc 4 120 0
	stw 27,16(9)
	stw 27,12(9)
.LVL113:
.LBE2381:
.LBE2380:
.LBB2382:
.LBB2383:
	.loc 4 416 0
	stw 27,28(9)
	stw 27,24(9)
	stw 27,20(9)
.LVL114:
.LBE2383:
.LBE2382:
.LBB2384:
.LBB2385:
	stw 27,40(9)
	stw 27,36(9)
	stw 27,32(9)
.LVL115:
.LBE2385:
.LBE2384:
.LBB2386:
.LBB2387:
	stw 27,52(9)
	stw 27,48(9)
	stw 27,44(9)
.LBE2387:
.LBE2386:
	.loc 9 79 0
	stb 25,59(9)
	stb 25,58(9)
	stb 25,57(9)
	stb 25,56(9)
	.loc 2 1290 0
	lwz 15,12(22)
.LVL116:
.LBE2388:
.LBE2416:
.LBB2417:
.LBB2418:
.LBB2419:
	.loc 5 454 0
	lfs 13,12(26)
	lfs 0,4(15)
	lfs 11,16(26)
	lfs 12,20(26)
	fmuls 11,0,11
.LBE2419:
.LBE2418:
.LBE2417:
.LBB2428:
.LBB2429:
	lfs 8,4(26)
.LBE2429:
.LBE2428:
.LBB2434:
.LBB2424:
.LBB2420:
	fmuls 12,0,12
.LBE2420:
.LBE2424:
.LBE2434:
.LBB2435:
.LBB2430:
	lfs 9,8(26)
.LBE2430:
.LBE2435:
.LBB2436:
.LBB2425:
.LBB2421:
	fmuls 0,0,13
.LBE2421:
.LBE2425:
.LBE2436:
.LBB2437:
.LBB2431:
	lfs 10,0(26)
.LBE2431:
.LBE2437:
.LBB2438:
.LBB2426:
.LBB2422:
	lfs 13,0(15)
.LBE2422:
.LBE2426:
.LBE2438:
.LBB2439:
.LBB2432:
	fmadds 11,13,8,11
	lfs 8,28(26)
	fmadds 12,13,9,12
	lfs 9,32(26)
	fmadds 13,10,13,0
.LBE2432:
.LBE2439:
.LBB2440:
.LBB2427:
.LBB2423:
	lfs 0,8(15)
.LVL117:
.LBE2423:
.LBE2427:
.LBE2440:
.LBB2441:
.LBB2433:
	lfs 10,24(26)
	fmadds 11,0,8,11
	fmadds 12,0,9,12
	.loc 4 452 0
	lfs 9,20(24)
	.loc 5 454 0
	fmadds 0,10,0,13
	.loc 4 452 0
	lfs 10,24(24)
	lfs 13,16(24)
	fadds 11,11,9
	fadds 12,12,10
.LVL118:
	fadds 0,13,0
.LBE2433:
.LBE2441:
.LBB2442:
.LBB2443:
	.loc 4 424 0
	stfsx 0,10,0
	.loc 4 425 0
	stfs 11,4(9)
	.loc 4 426 0
	stfs 12,8(9)
.LVL119:
.LBE2443:
.LBE2442:
	.loc 2 406 0
	lwz 10,12(22)
	lwz 0,12(10)
	stw 0,12(9)
.LVL120:
	.loc 2 407 0
	lwz 10,12(22)
	lwz 0,16(10)
.LBB2444:
.LBB2445:
	.loc 4 424 0
	stw 16,20(9)
.LBE2445:
.LBE2444:
	.loc 2 407 0
	stw 0,16(9)
.LVL121:
.LBB2447:
.LBB2446:
	.loc 4 425 0
	stw 17,24(9)
	.loc 4 426 0
	stw 18,28(9)
.LVL122:
.LBE2446:
.LBE2447:
.LBB2448:
.LBB2449:
	.loc 4 424 0
	stw 19,32(9)
	.loc 4 425 0
	stw 3,36(9)
	.loc 4 426 0
	stw 4,40(9)
.LVL123:
.LBE2449:
.LBE2448:
.LBB2450:
.LBB2451:
	stw 7,52(9)
.LVL124:
	.loc 4 424 0
	stw 5,44(9)
	.loc 4 425 0
	stw 6,48(9)
.LBE2451:
.LBE2450:
.LBB2452:
.LBB2453:
	.loc 9 100 0
	stw 23,56(9)
.LBE2453:
.LBE2452:
	.loc 2 413 0
	lwz 9,36(30)
.LVL125:
	lwz 10,40(30)
	mulli 0,9,60
	addi 15,9,1
	stw 15,36(30)
	add 9,10,0
.LVL126:
.LBB2454:
.LBB2455:
.LBB2456:
.LBB2457:
	.loc 4 416 0
	stw 27,8(9)
	stw 27,4(9)
	stwx 27,10,0
.LVL127:
.LBE2457:
.LBE2456:
.LBB2458:
.LBB2459:
	.loc 4 120 0
	stw 27,16(9)
	stw 27,12(9)
.LVL128:
.LBE2459:
.LBE2458:
.LBB2460:
.LBB2461:
	.loc 4 416 0
	stw 27,28(9)
	stw 27,24(9)
	stw 27,20(9)
.LVL129:
.LBE2461:
.LBE2460:
.LBB2462:
.LBB2463:
	stw 27,40(9)
	stw 27,36(9)
	stw 27,32(9)
.LVL130:
.LBE2463:
.LBE2462:
.LBB2464:
.LBB2465:
	stw 27,52(9)
	stw 27,48(9)
	stw 27,44(9)
.LBE2465:
.LBE2464:
	.loc 9 79 0
	stb 25,59(9)
	stb 25,58(9)
	stb 25,57(9)
	stb 25,56(9)
.LVL131:
.LBE2455:
.LBE2454:
.LBB2466:
.LBB2467:
	.loc 1 204 0
	lwz 14,12(22)
.LBE2467:
.LBE2466:
.LBB2469:
.LBB2470:
.LBB2471:
	.loc 5 454 0
	lfs 13,12(26)
.LBE2471:
.LBE2470:
.LBE2469:
.LBB2482:
.LBB2468:
	.loc 1 204 0
	add 15,14,11
.LVL132:
.LBE2468:
.LBE2482:
.LBB2483:
.LBB2477:
.LBB2472:
	.loc 5 454 0
	lfs 11,16(26)
.LVL133:
	lfs 0,4(15)
	lfs 12,20(26)
.LVL134:
	fmuls 11,0,11
.LBE2472:
.LBE2477:
.LBE2483:
.LBB2484:
.LBB2485:
	lfs 8,4(26)
.LBE2485:
.LBE2484:
.LBB2490:
.LBB2478:
.LBB2473:
	fmuls 12,0,12
.LBE2473:
.LBE2478:
.LBE2490:
.LBB2491:
.LBB2486:
	lfs 9,8(26)
.LBE2486:
.LBE2491:
.LBB2492:
.LBB2479:
.LBB2474:
	fmuls 0,0,13
.LBE2474:
.LBE2479:
.LBE2492:
.LBB2493:
.LBB2487:
	lfs 10,0(26)
.LBE2487:
.LBE2493:
.LBB2494:
.LBB2480:
.LBB2475:
	lfsx 13,14,11
.LBE2475:
.LBE2480:
.LBE2494:
.LBB2495:
.LBB2488:
	fmadds 11,13,8,11
	lfs 8,28(26)
	fmadds 12,13,9,12
	lfs 9,32(26)
	fmadds 13,10,13,0
.LBE2488:
.LBE2495:
.LBB2496:
.LBB2481:
.LBB2476:
	lfs 0,8(15)
.LVL135:
.LBE2476:
.LBE2481:
.LBE2496:
.LBB2497:
.LBB2489:
	lfs 10,24(26)
	fmadds 11,0,8,11
	fmadds 12,0,9,12
	.loc 4 452 0
	lfs 9,20(24)
	.loc 5 454 0
	fmadds 0,10,0,13
	.loc 4 452 0
	lfs 10,24(24)
	lfs 13,16(24)
	fadds 11,11,9
	fadds 12,12,10
.LVL136:
	fadds 0,13,0
.LBE2489:
.LBE2497:
.LBB2498:
.LBB2499:
	.loc 4 424 0
	stfsx 0,10,0
	.loc 4 425 0
	stfs 11,4(9)
	.loc 4 426 0
	stfs 12,8(9)
.LVL137:
.LBE2499:
.LBE2498:
	.loc 2 416 0
	lwz 10,12(22)
	add 10,10,11
	lwz 0,12(10)
	stw 0,12(9)
.LVL138:
	.loc 2 417 0
	lwz 10,12(22)
	add 10,10,11
.LBB2500:
.LBB2501:
	.loc 1 204 0
	addi 11,11,20
.LBE2501:
.LBE2500:
	.loc 2 417 0
	lwz 0,16(10)
.LBB2504:
.LBB2505:
	.loc 4 424 0
	stw 16,20(9)
.LBE2505:
.LBE2504:
	.loc 2 417 0
	stw 0,16(9)
.LVL139:
.LBB2507:
.LBB2506:
	.loc 4 425 0
	stw 17,24(9)
	.loc 4 426 0
	stw 18,28(9)
.LVL140:
.LBE2506:
.LBE2507:
.LBB2508:
.LBB2509:
	.loc 4 424 0
	stw 19,32(9)
.LBE2509:
.LBE2508:
.LBB2511:
.LBB2512:
	.loc 9 100 0
	stw 23,56(9)
.LBE2512:
.LBE2511:
.LBB2513:
.LBB2510:
	.loc 4 425 0
	stw 3,36(9)
	.loc 4 426 0
	stw 4,40(9)
.LVL141:
.LBE2510:
.LBE2513:
.LBB2514:
.LBB2515:
	.loc 4 424 0
	stw 5,44(9)
	.loc 4 425 0
	stw 6,48(9)
	.loc 4 426 0
	stw 7,52(9)
.LVL142:
.LBE2515:
.LBE2514:
	.loc 2 423 0
	lwz 9,36(30)
.LVL143:
	lwz 10,40(30)
	mulli 0,9,60
	addi 15,9,1
.LVL144:
	stw 15,36(30)
	add 9,10,0
.LVL145:
.LBB2516:
.LBB2517:
.LBB2518:
.LBB2519:
	.loc 4 416 0
	stw 27,8(9)
	stw 27,4(9)
	stwx 27,10,0
.LVL146:
.LBE2519:
.LBE2518:
.LBB2520:
.LBB2521:
	.loc 4 120 0
	stw 27,16(9)
	stw 27,12(9)
.LVL147:
.LBE2521:
.LBE2520:
.LBB2522:
.LBB2523:
	.loc 4 416 0
	stw 27,28(9)
	stw 27,24(9)
	stw 27,20(9)
.LVL148:
.LBE2523:
.LBE2522:
.LBB2524:
.LBB2525:
	stw 27,40(9)
	stw 27,36(9)
	stw 27,32(9)
.LVL149:
.LBE2525:
.LBE2524:
.LBB2526:
.LBB2527:
	stw 27,52(9)
	stw 27,48(9)
	stw 27,44(9)
.LBE2527:
.LBE2526:
	.loc 9 79 0
	stb 25,59(9)
	stb 25,58(9)
	stb 25,57(9)
	stb 25,56(9)
.LVL150:
.LBE2517:
.LBE2516:
.LBB2528:
.LBB2502:
	.loc 1 204 0
	lwz 14,12(22)
.LBE2502:
.LBE2528:
.LBB2529:
.LBB2530:
.LBB2531:
	.loc 5 454 0
	lfs 13,12(26)
.LBE2531:
.LBE2530:
.LBE2529:
.LBB2542:
.LBB2503:
	.loc 1 204 0
	add 15,14,11
.LVL151:
.LBE2503:
.LBE2542:
.LBB2543:
.LBB2537:
.LBB2532:
	.loc 5 454 0
	lfs 11,16(26)
.LVL152:
	lfs 0,4(15)
	lfs 12,20(26)
.LVL153:
	fmuls 11,0,11
.LBE2532:
.LBE2537:
.LBE2543:
.LBB2544:
.LBB2545:
	lfs 8,4(26)
.LBE2545:
.LBE2544:
.LBB2550:
.LBB2538:
.LBB2533:
	fmuls 12,0,12
.LBE2533:
.LBE2538:
.LBE2550:
.LBB2551:
.LBB2546:
	lfs 9,8(26)
.LBE2546:
.LBE2551:
.LBB2552:
.LBB2539:
.LBB2534:
	fmuls 0,0,13
.LBE2534:
.LBE2539:
.LBE2552:
.LBB2553:
.LBB2547:
	lfs 10,0(26)
.LBE2547:
.LBE2553:
.LBB2554:
.LBB2540:
.LBB2535:
	lfsx 13,14,11
.LBE2535:
.LBE2540:
.LBE2554:
.LBB2555:
.LBB2548:
	fmadds 11,13,8,11
	lfs 8,28(26)
	fmadds 12,13,9,12
	lfs 9,32(26)
	fmadds 13,10,13,0
.LBE2548:
.LBE2555:
.LBB2556:
.LBB2541:
.LBB2536:
	lfs 0,8(15)
.LVL154:
.LBE2536:
.LBE2541:
.LBE2556:
.LBB2557:
.LBB2549:
	lfs 10,24(26)
	fmadds 12,0,9,12
	.loc 4 452 0
	lfs 9,20(24)
	.loc 5 454 0
	fmadds 11,0,8,11
	fmadds 0,10,0,13
	.loc 4 452 0
	lfs 10,24(24)
	lfs 13,16(24)
	fadds 11,11,9
	fadds 12,12,10
.LVL155:
	fadds 0,13,0
.LBE2549:
.LBE2557:
.LBB2558:
.LBB2559:
	.loc 4 424 0
	stfsx 0,10,0
	.loc 4 425 0
	stfs 11,4(9)
	.loc 4 426 0
	stfs 12,8(9)
.LVL156:
.LBE2559:
.LBE2558:
	.loc 2 426 0
	lwz 10,12(22)
	add 10,10,11
	lwz 0,12(10)
	stw 0,12(9)
.LVL157:
	.loc 2 427 0
	lwz 10,12(22)
	add 10,10,11
	lwz 0,16(10)
.LBB2560:
.LBB2561:
	.loc 4 424 0
	stw 16,20(9)
.LBE2561:
.LBE2560:
	.loc 2 427 0
	stw 0,16(9)
.LVL158:
.LBB2563:
.LBB2562:
	.loc 4 425 0
	stw 17,24(9)
	.loc 4 426 0
	stw 18,28(9)
.LVL159:
.LBE2562:
.LBE2563:
.LBB2564:
.LBB2565:
	.loc 4 424 0
	stw 19,32(9)
	.loc 4 425 0
	stw 3,36(9)
	.loc 4 426 0
	stw 4,40(9)
.LVL160:
.LBE2565:
.LBE2564:
.LBB2566:
.LBB2567:
	.loc 4 424 0
	stw 5,44(9)
	.loc 4 425 0
	stw 6,48(9)
	.loc 4 426 0
	stw 7,52(9)
.LVL161:
.LBE2567:
.LBE2566:
.LBB2568:
.LBB2569:
	.loc 9 100 0
	stw 23,56(9)
.LBE2569:
.LBE2568:
	.loc 2 433 0
	lwz 9,44(30)
.LVL162:
	lwz 15,36(30)
.LVL163:
	lwz 10,48(30)
	slwi 0,9,2
	addi 15,15,-3
	stwx 15,10,0
	addi 0,9,1
	.loc 2 434 0
	slwi 0,0,2
	lwz 15,36(30)
	lwz 10,48(30)
	addi 15,15,-2
	stwx 15,10,0
	addi 10,9,2
	.loc 2 435 0
	slwi 10,10,2
	addi 0,9,3
	lwz 14,36(30)
	lwz 15,48(30)
	addi 14,14,-1
	stwx 14,15,10
	stw 0,44(30)
	.loc 2 1290 0
	lwz 10,636(29)
	.loc 2 437 0
	lbz 10,200(10)
	cmpwi 7,10,0
	beq- 7,.L66
	.loc 2 439 0
	lwz 15,36(30)
	slwi 0,0,2
	lwz 10,48(30)
	addi 15,15,-2
	stwx 15,10,0
	addi 0,9,4
	.loc 2 440 0
	slwi 0,0,2
	lwz 15,36(30)
	lwz 10,48(30)
	addi 15,15,-3
	stwx 15,10,0
	addi 0,9,5
	.loc 2 441 0
	slwi 0,0,2
	addi 9,9,6
	lwz 15,36(30)
	lwz 10,48(30)
	addi 15,15,-1
	stwx 15,10,0
	stw 9,44(30)
.L66:
	.loc 2 401 0
	lwz 0,8(22)
	addi 8,8,1
.LVL164:
	cmpw 7,0,8
	bgt+ 7,.L67
.LVL165:
.L65:
.LBB2570:
	.loc 2 445 0 discriminator 1
	lwz 10,772(29)
	lwzx 9,10,20
	lwz 0,1300(9)
	cmpwi 7,0,0
	ble- 7,.L68
	.loc 2 445 0 is_stmt 0
	lwz 17,100(1)
	li 16,0
	lwz 18,104(1)
	lwz 19,108(1)
	lwz 22,112(1)
.LVL166:
	lwz 3,116(1)
	lwz 4,120(1)
	lwz 5,124(1)
	lwz 6,128(1)
	lwz 7,132(1)
.LVL167:
.L72:
.LBB2571:
	.loc 2 446 0 is_stmt 1
	lwz 9,1312(9)
	slwi 0,16,2
	lwzx 11,9,0
.LVL168:
	.loc 2 448 0
	lwz 0,4(11)
.LVL169:
	cmpwi 7,0,2
	ble- 7,.L69
	li 10,20
	li 8,2
.LVL170:
.L71:
	.loc 2 450 0
	lwz 9,36(31)
	lwz 15,40(31)
	mulli 0,9,60
	addi 14,9,1
	stw 14,36(31)
	add 9,15,0
.LVL171:
.LBB2572:
.LBB2573:
.LBB2574:
.LBB2575:
	.loc 4 416 0
	stw 27,8(9)
	stw 27,4(9)
	stwx 27,15,0
.LVL172:
.LBE2575:
.LBE2574:
.LBB2576:
.LBB2577:
	.loc 4 120 0
	stw 27,16(9)
	stw 27,12(9)
.LVL173:
.LBE2577:
.LBE2576:
.LBB2578:
.LBB2579:
	.loc 4 416 0
	stw 27,28(9)
	stw 27,24(9)
	stw 27,20(9)
.LVL174:
.LBE2579:
.LBE2578:
.LBB2580:
.LBB2581:
	stw 27,40(9)
	stw 27,36(9)
	stw 27,32(9)
.LVL175:
.LBE2581:
.LBE2580:
.LBB2582:
.LBB2583:
	stw 27,52(9)
	stw 27,48(9)
	stw 27,44(9)
.LBE2583:
.LBE2582:
	.loc 9 79 0
	stb 25,59(9)
	stb 25,58(9)
	stb 25,57(9)
	stb 25,56(9)
	.loc 2 1290 0
	lwz 14,8(11)
.LVL176:
.LBE2573:
.LBE2572:
.LBB2584:
.LBB2585:
.LBB2586:
	.loc 5 454 0
	lfs 13,12(26)
	lfs 0,4(14)
	lfs 11,16(26)
	lfs 12,20(26)
	fmuls 11,0,11
.LBE2586:
.LBE2585:
.LBE2584:
.LBB2595:
.LBB2596:
	lfs 8,4(26)
.LBE2596:
.LBE2595:
.LBB2601:
.LBB2591:
.LBB2587:
	fmuls 12,0,12
.LBE2587:
.LBE2591:
.LBE2601:
.LBB2602:
.LBB2597:
	lfs 9,8(26)
.LBE2597:
.LBE2602:
.LBB2603:
.LBB2592:
.LBB2588:
	fmuls 0,0,13
.LBE2588:
.LBE2592:
.LBE2603:
.LBB2604:
.LBB2598:
	lfs 10,0(26)
.LBE2598:
.LBE2604:
.LBB2605:
.LBB2593:
.LBB2589:
	lfs 13,0(14)
.LBE2589:
.LBE2593:
.LBE2605:
.LBB2606:
.LBB2599:
	fmadds 11,13,8,11
	lfs 8,28(26)
	fmadds 12,13,9,12
	lfs 9,32(26)
	fmadds 13,10,13,0
.LBE2599:
.LBE2606:
.LBB2607:
.LBB2594:
.LBB2590:
	lfs 0,8(14)
.LVL177:
.LBE2590:
.LBE2594:
.LBE2607:
.LBB2608:
.LBB2600:
	lfs 10,24(26)
	fmadds 11,0,8,11
	fmadds 12,0,9,12
	.loc 4 452 0
	lfs 9,20(24)
	.loc 5 454 0
	fmadds 0,10,0,13
	.loc 4 452 0
	lfs 10,24(24)
	lfs 13,16(24)
	fadds 11,11,9
	fadds 12,12,10
.LVL178:
	fadds 0,13,0
.LBE2600:
.LBE2608:
.LBB2609:
.LBB2610:
	.loc 4 424 0
	stfsx 0,15,0
	.loc 4 425 0
	stfs 11,4(9)
	.loc 4 426 0
	stfs 12,8(9)
.LVL179:
.LBE2610:
.LBE2609:
	.loc 2 453 0
	lwz 15,8(11)
	lwz 0,12(15)
	stw 0,12(9)
.LVL180:
	.loc 2 454 0
	lwz 15,8(11)
	lwz 0,16(15)
.LBB2611:
.LBB2612:
	.loc 4 424 0
	stw 17,20(9)
.LBE2612:
.LBE2611:
	.loc 2 454 0
	stw 0,16(9)
.LVL181:
.LBB2614:
.LBB2613:
	.loc 4 425 0
	stw 18,24(9)
	.loc 4 426 0
	stw 19,28(9)
.LVL182:
.LBE2613:
.LBE2614:
.LBB2615:
.LBB2616:
	.loc 4 424 0
	stw 22,32(9)
	.loc 4 425 0
	stw 3,36(9)
	.loc 4 426 0
	stw 4,40(9)
.LVL183:
.LBE2616:
.LBE2615:
.LBB2617:
.LBB2618:
	stw 7,52(9)
.LVL184:
	.loc 4 424 0
	stw 5,44(9)
	.loc 4 425 0
	stw 6,48(9)
.LBE2618:
.LBE2617:
.LBB2619:
.LBB2620:
	.loc 9 100 0
	stw 23,56(9)
.LBE2620:
.LBE2619:
	.loc 2 460 0
	lwz 9,36(31)
.LVL185:
	lwz 15,40(31)
	mulli 0,9,60
	addi 14,9,1
	stw 14,36(31)
	add 9,15,0
.LVL186:
.LBB2621:
.LBB2622:
.LBB2623:
.LBB2624:
	.loc 4 416 0
	stw 27,8(9)
	stw 27,4(9)
	stwx 27,15,0
.LVL187:
.LBE2624:
.LBE2623:
.LBB2625:
.LBB2626:
	.loc 4 120 0
	stw 27,16(9)
	stw 27,12(9)
.LVL188:
.LBE2626:
.LBE2625:
.LBB2627:
.LBB2628:
	.loc 4 416 0
	stw 27,28(9)
	stw 27,24(9)
	stw 27,20(9)
.LVL189:
.LBE2628:
.LBE2627:
.LBB2629:
.LBB2630:
	stw 27,40(9)
	stw 27,36(9)
	stw 27,32(9)
.LVL190:
.LBE2630:
.LBE2629:
.LBB2631:
.LBB2632:
	stw 27,52(9)
	stw 27,48(9)
	stw 27,44(9)
.LBE2632:
.LBE2631:
	.loc 9 79 0
	stb 25,59(9)
	stb 25,58(9)
	stb 25,57(9)
	stb 25,56(9)
.LVL191:
.LBE2622:
.LBE2621:
.LBB2633:
.LBB2634:
	.loc 1 204 0
	lwz 12,8(11)
.LBE2634:
.LBE2633:
.LBB2636:
.LBB2637:
.LBB2638:
	.loc 5 454 0
	lfs 13,12(26)
.LBE2638:
.LBE2637:
.LBE2636:
.LBB2649:
.LBB2635:
	.loc 1 204 0
	add 14,12,10
.LVL192:
.LBE2635:
.LBE2649:
.LBB2650:
.LBB2644:
.LBB2639:
	.loc 5 454 0
	lfs 11,16(26)
.LVL193:
	lfs 0,4(14)
	lfs 12,20(26)
.LVL194:
	fmuls 11,0,11
.LBE2639:
.LBE2644:
.LBE2650:
.LBB2651:
.LBB2652:
	lfs 8,4(26)
.LBE2652:
.LBE2651:
.LBB2657:
.LBB2645:
.LBB2640:
	fmuls 12,0,12
.LBE2640:
.LBE2645:
.LBE2657:
.LBB2658:
.LBB2653:
	lfs 9,8(26)
.LBE2653:
.LBE2658:
.LBB2659:
.LBB2646:
.LBB2641:
	fmuls 0,0,13
.LBE2641:
.LBE2646:
.LBE2659:
.LBB2660:
.LBB2654:
	lfs 10,0(26)
.LBE2654:
.LBE2660:
.LBB2661:
.LBB2647:
.LBB2642:
	lfsx 13,12,10
.LBE2642:
.LBE2647:
.LBE2661:
.LBB2662:
.LBB2655:
	fmadds 11,13,8,11
	lfs 8,28(26)
	fmadds 12,13,9,12
	lfs 9,32(26)
	fmadds 13,10,13,0
.LBE2655:
.LBE2662:
.LBB2663:
.LBB2648:
.LBB2643:
	lfs 0,8(14)
.LVL195:
.LBE2643:
.LBE2648:
.LBE2663:
.LBB2664:
.LBB2656:
	lfs 10,24(26)
	fmadds 11,0,8,11
	fmadds 12,0,9,12
	.loc 4 452 0
	lfs 9,20(24)
	.loc 5 454 0
	fmadds 0,10,0,13
	.loc 4 452 0
	lfs 10,24(24)
	lfs 13,16(24)
	fadds 11,11,9
	fadds 12,12,10
.LVL196:
	fadds 0,13,0
.LBE2656:
.LBE2664:
.LBB2665:
.LBB2666:
	.loc 4 424 0
	stfsx 0,15,0
	.loc 4 425 0
	stfs 11,4(9)
	.loc 4 426 0
	stfs 12,8(9)
.LVL197:
.LBE2666:
.LBE2665:
	.loc 2 463 0
	lwz 15,8(11)
	add 15,15,10
	lwz 0,12(15)
	stw 0,12(9)
.LVL198:
	.loc 2 464 0
	lwz 15,8(11)
	add 15,15,10
.LBB2667:
.LBB2668:
	.loc 1 204 0
	addi 10,10,20
.LBE2668:
.LBE2667:
	.loc 2 464 0
	lwz 0,16(15)
.LBB2671:
.LBB2672:
	.loc 4 424 0
	stw 17,20(9)
.LBE2672:
.LBE2671:
	.loc 2 464 0
	stw 0,16(9)
.LVL199:
.LBB2674:
.LBB2673:
	.loc 4 425 0
	stw 18,24(9)
	.loc 4 426 0
	stw 19,28(9)
.LVL200:
.LBE2673:
.LBE2674:
.LBB2675:
.LBB2676:
	.loc 4 424 0
	stw 22,32(9)
.LBE2676:
.LBE2675:
.LBB2678:
.LBB2679:
	.loc 9 100 0
	stw 23,56(9)
.LBE2679:
.LBE2678:
.LBB2680:
.LBB2677:
	.loc 4 425 0
	stw 3,36(9)
	.loc 4 426 0
	stw 4,40(9)
.LVL201:
.LBE2677:
.LBE2680:
.LBB2681:
.LBB2682:
	.loc 4 424 0
	stw 5,44(9)
	.loc 4 425 0
	stw 6,48(9)
	.loc 4 426 0
	stw 7,52(9)
.LVL202:
.LBE2682:
.LBE2681:
	.loc 2 470 0
	lwz 9,36(31)
.LVL203:
	lwz 15,40(31)
	mulli 0,9,60
	addi 14,9,1
.LVL204:
	stw 14,36(31)
	add 9,15,0
.LVL205:
.LBB2683:
.LBB2684:
.LBB2685:
.LBB2686:
	.loc 4 416 0
	stw 27,8(9)
	stw 27,4(9)
	stwx 27,15,0
.LVL206:
.LBE2686:
.LBE2685:
.LBB2687:
.LBB2688:
	.loc 4 120 0
	stw 27,16(9)
	stw 27,12(9)
.LVL207:
.LBE2688:
.LBE2687:
.LBB2689:
.LBB2690:
	.loc 4 416 0
	stw 27,28(9)
	stw 27,24(9)
	stw 27,20(9)
.LVL208:
.LBE2690:
.LBE2689:
.LBB2691:
.LBB2692:
	stw 27,40(9)
	stw 27,36(9)
	stw 27,32(9)
.LVL209:
.LBE2692:
.LBE2691:
.LBB2693:
.LBB2694:
	stw 27,52(9)
	stw 27,48(9)
	stw 27,44(9)
.LBE2694:
.LBE2693:
	.loc 9 79 0
	stb 25,59(9)
	stb 25,58(9)
	stb 25,57(9)
	stb 25,56(9)
.LVL210:
.LBE2684:
.LBE2683:
.LBB2695:
.LBB2669:
	.loc 1 204 0
	lwz 12,8(11)
.LBE2669:
.LBE2695:
.LBB2696:
.LBB2697:
.LBB2698:
	.loc 5 454 0
	lfs 13,12(26)
.LBE2698:
.LBE2697:
.LBE2696:
.LBB2709:
.LBB2670:
	.loc 1 204 0
	add 14,12,10
.LVL211:
.LBE2670:
.LBE2709:
.LBB2710:
.LBB2704:
.LBB2699:
	.loc 5 454 0
	lfs 11,16(26)
.LVL212:
	lfs 0,4(14)
	lfs 12,20(26)
.LVL213:
	fmuls 11,0,11
.LBE2699:
.LBE2704:
.LBE2710:
.LBB2711:
.LBB2712:
	lfs 8,4(26)
.LBE2712:
.LBE2711:
.LBB2717:
.LBB2705:
.LBB2700:
	fmuls 12,0,12
.LBE2700:
.LBE2705:
.LBE2717:
.LBB2718:
.LBB2713:
	lfs 9,8(26)
.LBE2713:
.LBE2718:
.LBB2719:
.LBB2706:
.LBB2701:
	fmuls 0,0,13
.LBE2701:
.LBE2706:
.LBE2719:
.LBB2720:
.LBB2714:
	lfs 10,0(26)
.LBE2714:
.LBE2720:
.LBB2721:
.LBB2707:
.LBB2702:
	lfsx 13,12,10
.LBE2702:
.LBE2707:
.LBE2721:
.LBB2722:
.LBB2715:
	fmadds 11,13,8,11
	lfs 8,28(26)
	fmadds 12,13,9,12
	lfs 9,32(26)
	fmadds 13,10,13,0
.LBE2715:
.LBE2722:
.LBB2723:
.LBB2708:
.LBB2703:
	lfs 0,8(14)
.LVL214:
.LBE2703:
.LBE2708:
.LBE2723:
.LBB2724:
.LBB2716:
	lfs 10,24(26)
	fmadds 12,0,9,12
	.loc 4 452 0
	lfs 9,20(24)
	.loc 5 454 0
	fmadds 11,0,8,11
	fmadds 0,10,0,13
	.loc 4 452 0
	lfs 10,24(24)
	lfs 13,16(24)
	fadds 11,11,9
	fadds 12,12,10
.LVL215:
	fadds 0,13,0
.LBE2716:
.LBE2724:
.LBB2725:
.LBB2726:
	.loc 4 424 0
	stfsx 0,15,0
	.loc 4 425 0
	stfs 11,4(9)
	.loc 4 426 0
	stfs 12,8(9)
.LVL216:
.LBE2726:
.LBE2725:
	.loc 2 473 0
	lwz 15,8(11)
	add 15,15,10
	lwz 0,12(15)
	stw 0,12(9)
.LVL217:
	.loc 2 474 0
	lwz 15,8(11)
	add 15,15,10
	lwz 0,16(15)
.LBB2727:
.LBB2728:
	.loc 4 424 0
	stw 17,20(9)
.LBE2728:
.LBE2727:
	.loc 2 474 0
	stw 0,16(9)
.LVL218:
.LBB2730:
.LBB2729:
	.loc 4 425 0
	stw 18,24(9)
	.loc 4 426 0
	stw 19,28(9)
.LVL219:
.LBE2729:
.LBE2730:
.LBB2731:
.LBB2732:
	.loc 4 424 0
	stw 22,32(9)
	.loc 4 425 0
	stw 3,36(9)
	.loc 4 426 0
	stw 4,40(9)
.LVL220:
.LBE2732:
.LBE2731:
.LBB2733:
.LBB2734:
	.loc 4 424 0
	stw 5,44(9)
	.loc 4 425 0
	stw 6,48(9)
	.loc 4 426 0
	stw 7,52(9)
.LVL221:
.LBE2734:
.LBE2733:
.LBB2735:
.LBB2736:
	.loc 9 100 0
	stw 23,56(9)
.LBE2736:
.LBE2735:
	.loc 2 480 0
	lwz 9,44(31)
.LVL222:
	lwz 14,36(31)
.LVL223:
	lwz 15,48(31)
	slwi 0,9,2
	addi 14,14,-3
	stwx 14,15,0
	addi 0,9,1
	.loc 2 481 0
	slwi 0,0,2
	lwz 14,36(31)
	lwz 15,48(31)
	addi 14,14,-2
	stwx 14,15,0
	addi 15,9,2
	.loc 2 482 0
	slwi 15,15,2
	addi 0,9,3
	lwz 12,36(31)
	lwz 14,48(31)
	addi 12,12,-1
	stwx 12,14,15
	stw 0,44(31)
	.loc 2 1290 0
	lwz 15,640(29)
	.loc 2 484 0
	lbz 15,200(15)
	cmpwi 7,15,0
	beq- 7,.L70
	.loc 2 486 0
	lwz 14,36(31)
	slwi 0,0,2
	lwz 15,48(31)
	addi 14,14,-2
	stwx 14,15,0
	addi 0,9,4
	.loc 2 487 0
	slwi 0,0,2
	lwz 14,36(31)
	lwz 15,48(31)
	addi 14,14,-3
	stwx 14,15,0
	addi 0,9,5
	.loc 2 488 0
	slwi 0,0,2
	addi 9,9,6
	lwz 14,36(31)
	lwz 15,48(31)
	addi 14,14,-1
	stwx 14,15,0
	stw 9,44(31)
.L70:
	.loc 2 448 0
	lwz 0,4(11)
	addi 8,8,1
.LVL224:
	cmpw 7,0,8
	bgt+ 7,.L71
	lwz 10,772(29)
.LVL225:
.L69:
.LBE2571:
	.loc 2 445 0
	lwzx 9,10,20
	addi 16,16,1
.LVL226:
	lwz 0,1300(9)
	cmpw 7,0,16
	bgt+ 7,.L72
.LVL227:
.L68:
.LBE2570:
.LBE2737:
	.loc 2 380 0
	lwz 0,760(29)
	addi 21,21,1
.LVL228:
	cmpw 7,0,21
	bgt+ 7,.L73
.LVL229:
.L62:
.LBE2739:
	.loc 2 494 0
	li 0,1
	.loc 2 497 0
	lis 27,SIMDProcessor@ha
	.loc 2 494 0
	stb 0,29(30)
	.loc 2 497 0
	mr 4,30
	.loc 2 495 0
	stb 0,29(31)
	.loc 2 497 0
	addi 5,30,12
	lwz 9,SIMDProcessor@l(27)
.LVL230:
	lwz 6,40(30)
	mr 3,9
	lwz 9,0(9)
	lwz 7,36(30)
	lwz 0,128(9)
	mtctr 0
	bctrl
	.loc 2 498 0
	lwz 3,SIMDProcessor@l(27)
.LVL231:
	addi 5,31,12
	lwz 6,40(31)
	lwz 9,0(3)
	mr 4,31
	lwz 7,36(31)
	lwz 0,128(9)
	mtctr 0
	bctrl
	.loc 2 501 0
	lwz 0,636(29)
	.loc 2 500 0
	li 9,0
	.loc 2 504 0
	lwz 11,0(28)
	stw 9,144(1)
	addi 4,1,144
	stw 0,148(1)
	mr 3,11
	stw 30,152(1)
	.loc 2 500 0
	stw 9,20(1)
	.loc 2 504 0
	lwz 11,0(11)
	.loc 2 501 0
	stw 0,24(1)
	.loc 2 504 0
	lwz 11,20(11)
	.loc 2 503 0
	stw 30,28(1)
	.loc 2 504 0
	mtctr 11
	bctrl
	.loc 2 507 0
	lwz 9,640(29)
	.loc 2 508 0
	li 0,1
	.loc 2 510 0
	lwz 3,0(28)
	stw 0,144(1)
	addi 4,1,144
	stw 9,148(1)
	stw 31,152(1)
	.loc 2 507 0
	stw 9,24(1)
	.loc 2 510 0
	lwz 9,0(3)
	.loc 2 508 0
	stw 0,20(1)
	.loc 2 510 0
	lwz 0,20(9)
	.loc 2 509 0
	stw 31,28(1)
	.loc 2 510 0
	mtctr 0
	bctrl
	.loc 2 512 0
	li 3,1
.LVL232:
.L53:
.LBE2742:
	.loc 2 513 0
	lwz 0,236(1)
	lwz 14,160(1)
	mtlr 0
	lwz 15,164(1)
	lwz 16,168(1)
	lwz 17,172(1)
	lwz 18,176(1)
	lwz 19,180(1)
	lwz 20,184(1)
	lwz 21,188(1)
	lwz 22,192(1)
	lwz 23,196(1)
	lwz 24,200(1)
	lwz 25,204(1)
	lwz 26,208(1)
	lwz 27,212(1)
	lwz 28,216(1)
.LVL233:
	lwz 29,220(1)
.LVL234:
	lwz 30,224(1)
	lwz 31,228(1)
	addi 1,1,232
	.cfi_remember_state
.LCFI21:
	.cfi_def_cfa_offset 0
	.cfi_restore 31
	.cfi_restore 30
	.cfi_restore 29
	.cfi_restore 28
	.cfi_restore 27
	.cfi_restore 26
	.cfi_restore 25
	.cfi_restore 24
	.cfi_restore 23
	.cfi_restore 22
	.cfi_restore 21
	.cfi_restore 20
	.cfi_restore 19
	.cfi_restore 18
	.cfi_restore 17
	.cfi_restore 16
	.cfi_restore 15
	.cfi_restore 14
	blr
.LVL235:
.L80:
.LCFI22:
	.cfi_restore_state
.LBB2743:
.LBB2740:
.LBB2738:
	.loc 2 384 0
	lis 11,.LC3@ha
	la 11,.LC3@l(11)
	lfs 0,0(11)
	b .L63
.LVL236:
.L81:
	lis 9,.LC3@ha
	la 9,.LC3@l(9)
	lfs 0,0(9)
	b .L63
.LVL237:
.L77:
.LBE2738:
.LBE2740:
	.loc 2 360 0
	li 27,0
	li 26,0
	.loc 2 359 0
	li 31,0
	.loc 2 358 0
	li 30,0
	b .L54
.LBE2743:
	.cfi_endproc
.LFE2831:
	.size	_ZNK17idBrittleFracture18UpdateRenderEntityEP14renderEntity_sPK12renderView_s, .-_ZNK17idBrittleFracture18UpdateRenderEntityEP14renderEntity_sPK12renderView_s
	.align 2
	.globl _ZN17idBrittleFracture13ModelCallbackEP14renderEntity_sPK12renderView_s
	.type	_ZN17idBrittleFracture13ModelCallbackEP14renderEntity_sPK12renderView_s, @function
_ZN17idBrittleFracture13ModelCallbackEP14renderEntity_sPK12renderView_s:
.LFB2832:
	.loc 2 520 0
	.cfi_startproc
.LVL238:
	mflr 0
	stwu 1,-24(1)
.LCFI23:
	.cfi_def_cfa_offset 24
	.cfi_register 65, 0
	mr 5,4
	stw 31,20(1)
	mr 31,3
	.cfi_offset 31, -4
	stw 0,28(1)
	stw 30,16(1)
.LBB2744:
	.loc 2 523 0
	lwz 9,4(3)
	lis 3,gameLocal@ha
.LVL239:
	la 3,gameLocal@l(3)
	addi 9,9,132
	slwi 9,9,2
	add 9,3,9
	lwz 30,4(9)
	.cfi_offset 30, -8
	.cfi_offset 65, 4
.LVL240:
	.loc 2 524 0
	cmpwi 7,30,0
	beq- 7,.L91
.LBE2744:
	.loc 2 529 0
	lwz 0,28(1)
.LBB2745:
	.loc 2 528 0
	mr 3,30
	mr 4,31
.LVL241:
.LBE2745:
	.loc 2 529 0
	lwz 30,16(1)
	lwz 31,20(1)
.LVL242:
	mtlr 0
	addi 1,1,24
	.cfi_remember_state
.LCFI24:
	.cfi_def_cfa_offset 0
	.cfi_restore 31
	.cfi_restore 30
.LBB2746:
	.loc 2 528 0
	b _ZNK17idBrittleFracture18UpdateRenderEntityEP14renderEntity_sPK12renderView_s
.LVL243:
.L91:
.LCFI25:
	.cfi_restore_state
	.loc 2 525 0
	lis 4,.LC8@ha
.LVL244:
	stw 5,8(1)
	la 4,.LC8@l(4)
	crxor 6,6,6
	bl _ZNK11idGameLocal5ErrorEPKcz
.LVL245:
.LBE2746:
	.loc 2 529 0
	lwz 0,28(1)
.LBB2747:
	.loc 2 525 0
	lwz 5,8(1)
	.loc 2 528 0
	mr 3,30
	mr 4,31
.LBE2747:
	.loc 2 529 0
	lwz 30,16(1)
.LVL246:
	lwz 31,20(1)
.LVL247:
	mtlr 0
	addi 1,1,24
	.cfi_restore 30
	.cfi_restore 31
.LCFI26:
	.cfi_def_cfa_offset 0
.LBB2748:
	.loc 2 528 0
	b _ZNK17idBrittleFracture18UpdateRenderEntityEP14renderEntity_sPK12renderView_s
.LVL248:
.LVL249:
.LBE2748:
	.cfi_endproc
.LFE2832:
	.size	_ZN17idBrittleFracture13ModelCallbackEP14renderEntity_sPK12renderView_s, .-_ZN17idBrittleFracture13ModelCallbackEP14renderEntity_sPK12renderView_s
	.align 2
	.globl _ZN17idBrittleFracture12ProjectDecalERK6idVec3S2_iPKc
	.type	_ZN17idBrittleFracture12ProjectDecalERK6idVec3S2_iPKc, @function
_ZN17idBrittleFracture12ProjectDecalERK6idVec3S2_iPKc:
.LFB2837:
	.loc 2 674 0
	.cfi_startproc
.LVL250:
	stwu 1,-896(1)
.LCFI27:
	.cfi_def_cfa_offset 896
	mflr 0
	stw 28,784(1)
.LBB2904:
.LBB2905:
	.loc 2 682 0
	lis 28,gameLocal@ha
	.cfi_offset 28, -112
	.cfi_register 65, 0
.LBE2905:
.LBE2904:
	.loc 2 674 0
	stw 25,772(1)
.LBB3220:
.LBB2939:
	.loc 2 682 0
	la 28,gameLocal@l(28)
.LBE2939:
.LBE3220:
	.loc 2 674 0
	stw 26,776(1)
.LBB3221:
.LBB2940:
	.loc 2 682 0
	addis 26,28,0x25
	.cfi_offset 26, -120
	.cfi_offset 25, -124
.LBE2940:
.LBE3221:
	.loc 2 674 0
	stw 27,780(1)
	mr 25,6
	stw 29,788(1)
	mr 27,7
	.cfi_offset 29, -108
	.cfi_offset 27, -116
	stw 30,792(1)
	mr 29,5
	stw 31,796(1)
	mr 30,4
	.cfi_offset 31, -100
	.cfi_offset 30, -104
	stw 0,900(1)
	mr 31,3
	stfd 20,800(1)
	stfd 21,808(1)
	stfd 22,816(1)
	stfd 23,824(1)
	stfd 24,832(1)
	stfd 25,840(1)
	stfd 26,848(1)
	stfd 27,856(1)
	stfd 28,864(1)
	stfd 29,872(1)
	stfd 30,880(1)
	stfd 31,888(1)
	stw 18,744(1)
	stw 19,748(1)
	stw 20,752(1)
	stw 21,756(1)
	stw 22,760(1)
	stw 23,764(1)
	stw 24,768(1)
.LBB3222:
.LBB2941:
	.loc 2 682 0
	lbz 0,2017(26)
	.cfi_offset 24, -128
	.cfi_offset 23, -132
	.cfi_offset 22, -136
	.cfi_offset 21, -140
	.cfi_offset 20, -144
	.cfi_offset 19, -148
	.cfi_offset 18, -152
	.cfi_offset 63, -8
	.cfi_offset 62, -16
	.cfi_offset 61, -24
	.cfi_offset 60, -32
	.cfi_offset 59, -40
	.cfi_offset 58, -48
	.cfi_offset 57, -56
	.cfi_offset 56, -64
	.cfi_offset 55, -72
	.cfi_offset 54, -80
	.cfi_offset 53, -88
	.cfi_offset 52, -96
	.cfi_offset 65, 4
	cmpwi 7,0,0
	bne- 7,.L134
.LVL251:
.L93:
.LBE2941:
.LBB2942:
	.loc 2 697 0
	lwz 0,2004(26)
	cmpw 7,0,25
	bgt- 7,.L94
.LVL252:
.LBB2943:
	.loc 2 701 0
	cmpwi 7,27,0
	beq- 7,.L95
	.loc 2 702 0
	mr 3,28
	mr 4,27
	li 5,0
	li 6,1
	bl _ZNK11idGameLocal13FindEntityDefEPKcbb
.LVL253:
.L95:
	.loc 2 711 0
	lis 4,.LC9@ha
	mr 3,31
	la 4,.LC9@l(4)
	li 5,0
	li 6,0
	li 7,0
	li 8,0
	bl _ZN8idEntity10StartSoundEPKciibPi
.LVL254:
.L94:
.LBE2943:
.LBE2942:
.LBB2944:
.LBB2945:
.LBB2946:
.LBB2947:
	.file 10 "d:/Data/Nintendo/DoomGX/src/game/../idlib/../idlib/math/Random.h"
	.loc 10 71 0
	addis 28,28,0x1
	lis 9,0x1
	lwz 0,-32064(28)
	ori 9,9,3533
	mullw 0,9,0
.LBE2947:
.LBE2946:
	.loc 10 83 0
	lis 9,0x4330
	stw 9,728(1)
.LBB2950:
.LBB2948:
	.loc 10 71 0
	addic 0,0,1
	.loc 10 72 0
	rlwinm 9,0,0,17,31
.LBE2948:
.LBE2950:
	.loc 10 83 0
	xoris 9,9,0x8000
	stw 9,732(1)
	lis 9,.LC6@ha
	lfs 0,.LC6@l(9)
	lis 9,.LC10@ha
	lfd 30,728(1)
.LBB2951:
.LBB2949:
	.loc 10 71 0
	stw 0,-32064(28)
.LBE2949:
.LBE2951:
	.loc 10 83 0
	fsub 30,30,0
	lfs 0,.LC10@l(9)
.LBE2945:
.LBE2944:
	.loc 2 715 0
	lis 9,_ZN6idMath6TWO_PIE@ha
.LBB2953:
.LBB2952:
	.loc 10 83 0
	frsp 30,30
.LVL255:
	fmuls 30,30,0
.LBE2952:
.LBE2953:
	.loc 2 715 0
	lfs 0,_ZN6idMath6TWO_PIE@l(9)
	fmuls 30,30,0
	.loc 2 716 0
	fmr 1,30
	bl cos
.LVL256:
	frsp 31,1
.LVL257:
	.loc 2 717 0
	fmr 1,30
	bl sin
.LBB2954:
.LBB2955:
	.loc 4 420 0
	lfs 11,4(29)
	lfs 12,0(29)
.LBE2955:
.LBE2954:
.LBB2960:
.LBB2961:
.LBB2962:
.LBB2963:
	.loc 7 276 0
	lis 9,_ZN6idMath5iSqrtE@ha
.LBE2963:
.LBE2962:
.LBE2961:
.LBE2960:
.LBB2980:
.LBB2956:
	.loc 4 420 0
	fneg 11,11
	lfs 13,8(29)
	fneg 12,12
.LBE2956:
.LBE2980:
.LBB2981:
.LBB2974:
.LBB2969:
.LBB2964:
	.loc 7 276 0
	la 9,_ZN6idMath5iSqrtE@l(9)
.LBE2964:
.LBE2969:
.LBE2974:
.LBE2981:
.LBB2982:
.LBB2957:
	.loc 4 420 0
	fneg 13,13
.LBE2957:
.LBE2982:
.LBB2983:
.LBB2975:
.LBB2970:
.LBB2965:
	.loc 7 275 0
	lis 11,.LC11@ha
.LBE2965:
.LBE2970:
	.loc 4 649 0
	fmuls 0,11,11
.LBB2971:
.LBB2966:
	.loc 7 275 0
	lfs 8,.LC11@l(11)
.LBE2966:
.LBE2971:
.LBE2975:
.LBE2983:
	.loc 2 717 0
	frsp 5,1
.LBB2984:
.LBB2958:
	.loc 4 649 0
	fmadds 0,12,12,0
.LBE2958:
.LBE2984:
	.loc 2 717 0
	fneg 5,5
.LBB2985:
.LBB2959:
	.loc 4 649 0
	fmadds 0,13,13,0
	stfs 0,736(1)
.LBE2959:
.LBE2985:
.LBB2986:
.LBB2976:
.LBB2972:
.LBB2967:
	.loc 7 275 0
	fmuls 7,0,8
	.loc 7 270 0
	lwz 0,736(1)
	.loc 2 674 0
	fneg 7,7
	.loc 7 276 0
	rlwinm 10,0,9,24,31
	rlwinm 0,0,19,21,29
	lwzx 0,9,0
	subfic 10,10,380
	rlwinm 10,10,22,0,8
	or 0,10,0
	.loc 7 278 0
	lis 10,.LC13@ha
	.loc 7 277 0
	stw 0,740(1)
	lfs 0,740(1)
	fmr 10,0
	.loc 7 278 0
	lfs 0,.LC13@l(10)
.LBE2967:
.LBE2972:
.LBE2976:
.LBE2986:
.LBB2987:
.LBB2988:
	.loc 4 731 0
	lis 10,.LC14@ha
	lfs 9,.LC14@l(10)
.LVL258:
.LBE2988:
.LBE2987:
.LBB3014:
.LBB2977:
.LBB2973:
.LBB2968:
	.loc 7 278 0
	fmul 6,10,10
	fmadd 6,7,6,0
	fmul 10,10,6
.LVL259:
	.loc 7 279 0
	fmul 6,10,10
	fmadd 7,7,6,0
.LVL260:
	fmul 10,10,7
.LVL261:
	.loc 7 280 0
	frsp 10,10
.LVL262:
.LBE2968:
.LBE2973:
	.loc 4 652 0
	fmuls 11,11,10
.LVL263:
	.loc 4 651 0
	fmuls 12,12,10
.LVL264:
	.loc 4 653 0
	fmuls 13,13,10
.LVL265:
.LBE2977:
.LBE3014:
.LBB3015:
.LBB3003:
	.loc 4 730 0
	fmuls 10,11,11
.LBE3003:
.LBE3015:
.LBB3016:
.LBB2978:
	.loc 4 652 0
	stfs 11,68(1)
	.loc 4 651 0
	stfs 12,64(1)
	.loc 4 653 0
	stfs 13,72(1)
.LVL266:
	.loc 4 730 0
	fmadds 10,12,12,10
.LBE2978:
.LBE3016:
.LBB3017:
.LBB3004:
	.loc 4 731 0
	fcmpu 7,10,9
.LBE3004:
.LBE3017:
.LBB3018:
.LBB2979:
	.loc 4 730 0
	stfs 10,736(1)
.LBE2979:
.LBE3018:
.LBB3019:
.LBB3005:
	.loc 4 731 0
	beq- 7,.L122
.LVL267:
.LBB2989:
.LBB2990:
	.loc 7 270 0
	lwz 0,736(1)
.LVL268:
	.loc 7 275 0
	fmuls 9,10,8
	.loc 7 276 0
	rlwinm 10,0,9,24,31
.LVL269:
	rlwinm 0,0,19,21,29
	lwzx 0,9,0
	subfic 10,10,380
	rlwinm 9,10,22,0,8
	.loc 2 674 0
	fneg 9,9
.LVL270:
	.loc 7 276 0
	or 0,9,0
	lis 9,.LC3@ha
	.loc 7 277 0
	stw 0,740(1)
	lfs 8,740(1)
	fmr 10,8
.LVL271:
.LBE2990:
.LBE2989:
	.loc 4 737 0
	fneg 8,11
.LVL272:
.LBB2992:
.LBB2991:
	.loc 7 278 0
	fmul 7,10,10
	fmadd 7,9,7,0
	fmul 10,10,7
.LVL273:
	.loc 7 279 0
	fmul 7,10,10
	fmadd 0,9,7,0
.LVL274:
	fmul 10,10,0
.LVL275:
	.loc 7 280 0
	frsp 9,10
.LVL276:
.LBE2991:
.LBE2992:
	.loc 4 737 0
	fmuls 0,8,9
.LVL277:
	.loc 4 738 0
	fmuls 9,12,9
.LVL278:
.L96:
.LBE3005:
.LBE3019:
	.loc 2 725 0
	lfs 22,.LC3@l(9)
.LBB3020:
.LBB3006:
.LBB2993:
.LBB2994:
	.loc 4 620 0
	fmuls 2,0,13
.LBE2994:
.LBE2993:
.LBE3006:
.LBE3020:
	.loc 2 725 0
	lfs 10,644(31)
.LBB3021:
.LBB3007:
.LBB2999:
.LBB2995:
	.loc 4 620 0
	lis 9,.LC14@ha
.LBE2995:
.LBE2999:
.LBE3007:
.LBE3021:
	.loc 2 723 0
	fneg 8,31
.LBB3022:
.LBB3023:
	.loc 4 435 0
	lfs 3,4(30)
.LBE3023:
.LBE3022:
	.loc 2 725 0
	fdivs 22,22,10
.LBB3027:
.LBB3008:
.LBB3000:
.LBB2996:
	.loc 4 620 0
	lfs 10,.LC14@l(9)
.LBE2996:
.LBE3000:
.LBE3008:
.LBE3027:
.LBB3028:
.LBB3024:
	.loc 4 435 0
	lfs 4,0(30)
.LBE3024:
.LBE3028:
.LBB3029:
	.loc 2 731 0
	lwz 29,760(31)
.LVL279:
.LBE3029:
.LBB3170:
.LBB3025:
	.loc 4 435 0
	lfs 6,8(30)
.LBE3025:
.LBE3170:
.LBB3171:
	.loc 2 731 0
	cmpwi 7,29,0
.LBE3171:
	.loc 2 726 0
	lfs 7,.LC11@l(11)
.LBB3172:
.LBB3009:
.LBB3001:
.LBB2997:
	.loc 4 620 0
	fmuls 30,11,10
.LBE2997:
.LBE3001:
	fmsubs 2,12,10,2
.LBB3002:
.LBB2998:
	fmuls 1,9,12
.LBE2998:
.LBE3002:
	fmsubs 13,9,13,30
.LBE3009:
.LBE3172:
.LBB3173:
.LBB3174:
	.loc 4 439 0
	fmuls 12,5,2
.LBE3174:
.LBE3173:
.LBB3177:
.LBB3178:
	fmuls 2,8,2
.LBE3178:
.LBE3177:
.LBB3181:
.LBB3010:
	.loc 4 620 0
	fmsubs 11,0,11,1
.LVL280:
	.loc 4 452 0
	fmadds 12,31,9,12
.LBE3010:
.LBE3181:
.LBB3182:
.LBB3179:
	.loc 4 439 0
	fmuls 1,8,13
.LBE3179:
.LBE3182:
	.loc 4 452 0
	fmadds 9,5,9,2
.LBB3183:
.LBB3175:
	.loc 4 439 0
	fmuls 30,5,13
.LBE3175:
.LBE3183:
.LBB3184:
.LBB3185:
	.loc 4 425 0
	stfs 12,44(1)
.LBE3185:
.LBE3184:
.LBB3188:
.LBB3176:
	.loc 4 439 0
	fmuls 2,5,11
.LBE3176:
.LBE3188:
.LBB3189:
.LBB3190:
	fmuls 26,22,12
.LBE3190:
.LBE3189:
.LBB3193:
.LBB3194:
	.loc 4 425 0
	stfs 9,56(1)
.LBE3194:
.LBE3193:
.LBB3197:
.LBB3011:
	.loc 4 452 0
	fmadds 13,31,0,30
.LVL281:
.LBE3011:
.LBE3197:
.LBB3198:
.LBB3199:
	.loc 4 439 0
	fmuls 23,22,9
.LBE3199:
.LBE3198:
	.loc 4 452 0
	fmadds 0,5,0,1
.LBB3202:
.LBB3180:
	.loc 4 439 0
	fmuls 11,8,11
.LVL282:
.LBE3180:
.LBE3202:
.LBB3203:
.LBB3186:
	.loc 4 424 0
	stfs 13,40(1)
.LBE3186:
.LBE3203:
.LBB3204:
.LBB3012:
	.loc 4 452 0
	fmadds 31,31,10,2
.LVL283:
.LBE3012:
.LBE3204:
.LBB3205:
.LBB3191:
	.loc 4 439 0
	fmuls 27,22,13
.LBE3191:
.LBE3205:
.LBB3206:
.LBB3195:
	.loc 4 424 0
	stfs 0,52(1)
.LBE3195:
.LBE3206:
	.loc 4 452 0
	fmadds 10,5,10,11
.LBB3207:
.LBB3026:
	.loc 4 435 0
	fmuls 21,26,3
.LBE3026:
.LBE3207:
.LBB3208:
.LBB3187:
	.loc 4 426 0
	stfs 31,48(1)
.LBE3187:
.LBE3208:
.LBB3209:
.LBB3200:
	.loc 4 439 0
	fmuls 24,22,0
.LBE3200:
.LBE3209:
.LBB3210:
.LBB3211:
	.loc 4 435 0
	fmuls 3,3,23
.LBE3211:
.LBE3210:
.LBB3212:
.LBB3196:
	.loc 4 426 0
	stfs 10,60(1)
.LBE3196:
.LBE3212:
.LBB3213:
.LBB3192:
	.loc 4 439 0
	fmuls 25,22,31
.LBE3192:
.LBE3213:
	.loc 4 435 0
	fmadds 21,27,4,21
.LVL284:
.LBB3214:
.LBB3201:
	.loc 4 439 0
	fmuls 22,22,10
.LVL285:
.LBE3201:
.LBE3214:
	.loc 4 435 0
	fmadds 4,4,24,3
	fmadds 21,25,6,21
	fmadds 6,6,22,4
	.loc 2 726 0
	fsubs 21,7,21
.LVL286:
	.loc 2 729 0
	fsubs 20,7,6
.LVL287:
.LBB3215:
	.loc 2 731 0
	ble- 7,.L97
.LBB3030:
.LBB3031:
.LBB3032:
	.loc 1 307 0
	lis 23,_ZTV14idFixedWinding+8@ha
.LBE3032:
.LBE3031:
.LBE3030:
	.loc 2 731 0
	li 27,0
.LVL288:
.LBB3166:
.LBB3038:
.LBB3039:
	.loc 5 333 0
	li 22,0
	lis 26,.LC3@ha
.LBE3039:
.LBE3038:
.LBB3052:
.LBB3035:
	.loc 1 307 0
	la 23,_ZTV14idFixedWinding+8@l(23)
	.loc 1 310 0
	li 24,64
.LBE3035:
.LBE3052:
.LBB3053:
.LBB3054:
.LBB3055:
.LBB3056:
	.loc 3 663 0
	li 21,16
.LVL289:
.L121:
.LBE3056:
.LBE3055:
.LBE3054:
.LBE3053:
	.loc 2 732 0
	lwz 9,772(31)
.LBE3166:
	.loc 2 674 0
	slwi 20,27,2
.LBB3167:
.LBB3085:
.LBB3046:
	.loc 5 333 0
	li 10,0
.LBE3046:
.LBE3085:
	.loc 2 732 0
	lwzx 28,9,20
.LVL290:
	.loc 2 733 0
	lwz 9,0(28)
.LVL291:
.LBB3086:
.LBB3087:
	.loc 4 424 0
	lfs 30,16(9)
.LVL292:
.LBE3087:
.LBE3086:
.LBB3089:
.LBB3047:
	.loc 5 333 0
	addi 8,9,28
.LBE3047:
.LBE3089:
.LBB3090:
.LBB3088:
	.loc 4 425 0
	lfs 29,20(9)
.LVL293:
	.loc 4 426 0
	lfs 28,24(9)
.LVL294:
.L98:
.LBE3088:
.LBE3090:
.LBB3091:
.LBB3048:
.LBB3040:
.LBB3041:
	.loc 4 424 0
	mr 11,8
	addi 9,1,40
	lwzux 0,11,10
.LBE3041:
.LBE3040:
	.loc 5 333 0
	cmpwi 7,10,24
.LBB3044:
.LBB3042:
	.loc 4 424 0
	stwux 0,9,10
.LBE3042:
.LBE3044:
	.loc 5 333 0
	addi 10,10,12
.LBB3045:
.LBB3043:
	.loc 4 425 0
	lwz 0,4(11)
	stw 0,4(9)
	.loc 4 426 0
	lwz 0,8(11)
	stw 0,8(9)
.LBE3043:
.LBE3045:
	.loc 5 333 0
	bne+ 7,.L98
.LVL295:
	.loc 2 1290 0 discriminator 1
	lwz 3,8(28)
.LBE3048:
.LBE3091:
.LBB3092:
	.loc 2 738 0 discriminator 1
	cmpwi 7,3,0
	ble- 7,.L99
	.loc 2 738 0 is_stmt 0
	addi 30,1,204
	lwz 8,12(28)
.LVL296:
	lfs 31,40(1)
	.loc 2 674 0 is_stmt 1
	mulli 3,3,20
	.loc 2 738 0
	lfs 1,52(1)
.LBE3092:
.LBB3130:
.LBB3049:
	.loc 2 674 0
	mr 11,30
.LBE3049:
.LBE3130:
.LBB3131:
	.loc 2 738 0
	lfs 2,64(1)
.LBE3131:
.LBB3132:
.LBB3050:
	.loc 2 674 0
	li 9,0
.LBE3050:
.LBE3132:
.LBB3133:
	.loc 2 738 0
	lfs 3,44(1)
.LBE3133:
.LBB3134:
.LBB3051:
	.loc 2 674 0
	li 25,-1
.LBE3051:
.LBE3134:
.LBB3135:
	.loc 2 738 0
	lfs 4,56(1)
	lfs 5,68(1)
	lfs 6,48(1)
	lfs 7,60(1)
	lfs 8,72(1)
.LBB3093:
	.loc 2 745 0
	lfs 9,.LC3@l(26)
.LVL297:
.L100:
.LBB3094:
.LBB3095:
	.loc 1 209 0 discriminator 2
	add 10,8,9
.LVL298:
.LBE3095:
.LBE3094:
.LBB3096:
.LBB3097:
.LBB3098:
	.loc 5 454 0 discriminator 2
	lfsx 13,8,9
	lfs 12,4(10)
.LBE3098:
.LBE3097:
.LBE3096:
	.loc 2 751 0 discriminator 2
	addi 9,9,20
.LBB3103:
.LBB3101:
.LBB3099:
	.loc 5 454 0 discriminator 2
	lfs 0,8(10)
.LVL299:
.LBE3099:
.LBE3101:
.LBE3103:
.LBE3093:
	.loc 2 738 0 discriminator 2
	cmpw 7,9,3
.LBB3129:
.LBB3104:
.LBB3102:
.LBB3100:
	.loc 5 454 0 discriminator 2
	fmuls 10,12,4
	fmuls 11,12,1
	fmuls 12,12,7
.LBE3100:
.LBE3102:
.LBE3104:
.LBB3105:
.LBB3106:
	fmadds 10,13,3,10
	fmadds 11,13,31,11
	fmadds 13,13,6,12
	fmadds 10,0,5,10
	fmadds 11,0,2,11
	fmadds 0,0,8,13
	.loc 4 452 0 discriminator 2
	fadds 10,29,10
	fadds 11,30,11
	fadds 0,28,0
.LBE3106:
.LBE3105:
.LBB3107:
.LBB3108:
	.file 11 "d:/Data/Nintendo/DoomGX/src/game/../idlib/../idlib/math/Plane.h"
	.loc 11 325 0 discriminator 2
	fmuls 13,26,10
.LVL300:
.LBE3108:
.LBE3107:
.LBB3113:
.LBB3114:
	fmuls 10,23,10
.LVL301:
.LBE3114:
.LBE3113:
.LBB3120:
.LBB3109:
	fmadds 13,27,11,13
.LBE3109:
.LBE3120:
.LBB3121:
.LBB3115:
	fmadds 11,24,11,10
.LVL302:
.LBE3115:
.LBE3121:
.LBB3122:
.LBB3110:
	fmadds 13,25,0,13
.LBE3110:
.LBE3122:
.LBB3123:
.LBB3116:
	fmadds 0,22,0,11
.LVL303:
.LBE3116:
.LBE3123:
.LBB3124:
.LBB3111:
	fadds 13,21,13
.LBE3111:
.LBE3124:
.LBB3125:
.LBB3117:
	fadds 0,20,0
.LBE3117:
.LBE3125:
.LBB3126:
.LBB3112:
	stfs 13,740(1)
	lwz 10,740(1)
.LVL304:
.LBE3112:
.LBE3126:
.LBB3127:
.LBB3118:
	stfs 0,740(1)
.LBE3118:
.LBE3127:
	.loc 2 745 0 discriminator 2
	fsubs 0,9,13
	.loc 2 744 0 discriminator 2
	srwi 7,10,31
.LBB3128:
.LBB3119:
	.loc 11 325 0 discriminator 2
	lwz 0,740(1)
.LBE3119:
.LBE3128:
	.loc 2 745 0 discriminator 2
	stfs 0,740(1)
	.loc 2 746 0 discriminator 2
	rlwinm 4,0,3,29,29
	.loc 2 745 0 discriminator 2
	lwz 5,740(1)
	.loc 2 746 0 discriminator 2
	or 7,4,7
	.loc 2 747 0 discriminator 2
	stw 0,740(1)
	.loc 2 748 0 discriminator 2
	rlwinm 5,5,2,30,30
	.loc 2 747 0 discriminator 2
	lfs 10,740(1)
	.loc 2 748 0 discriminator 2
	or 7,7,5
	.loc 2 747 0 discriminator 2
	fsubs 10,9,10
	stfs 10,740(1)
	lwz 6,740(1)
	.loc 2 741 0 discriminator 2
	stw 10,0(11)
	.loc 2 749 0 discriminator 2
	rlwinm 6,6,4,28,28
	.loc 2 742 0 discriminator 2
	stw 0,4(11)
	.loc 2 749 0 discriminator 2
	or 7,7,6
.LVL305:
	.loc 2 751 0 discriminator 2
	addi 11,11,8
.LVL306:
	and 25,25,7
.LVL307:
.LBE3129:
	.loc 2 738 0 discriminator 2
	bne+ 7,.L100
.LBE3135:
	.loc 2 754 0
	cmpwi 7,25,0
	beq- 7,.L135
.LVL308:
.L99:
.LBE3167:
	.loc 2 731 0
	addi 27,27,1
.LVL309:
	cmpw 7,29,27
	bgt+ 7,.L121
.LVL310:
.L97:
.LBE3215:
	.loc 2 769 0
	mr 3,31
	li 4,8
	bl _ZN8idEntity12BecomeActiveEi
.LBE3222:
	.loc 2 770 0
	lwz 0,900(1)
	lwz 18,744(1)
	mtlr 0
	lwz 19,748(1)
	lwz 20,752(1)
	lwz 21,756(1)
	lwz 22,760(1)
	lwz 23,764(1)
	lwz 24,768(1)
	lwz 25,772(1)
	lwz 26,776(1)
	lwz 27,780(1)
	lwz 28,784(1)
	lwz 29,788(1)
	lwz 30,792(1)
	lwz 31,796(1)
.LVL311:
	lfd 20,800(1)
	lfd 21,808(1)
	lfd 22,816(1)
.LVL312:
	lfd 23,824(1)
.LVL313:
	lfd 24,832(1)
.LVL314:
	lfd 25,840(1)
.LVL315:
	lfd 26,848(1)
.LVL316:
	lfd 27,856(1)
.LVL317:
	lfd 28,864(1)
	lfd 29,872(1)
	lfd 30,880(1)
	lfd 31,888(1)
	addi 1,1,896
	.cfi_remember_state
.LCFI28:
	.cfi_def_cfa_offset 0
	.cfi_restore 63
	.cfi_restore 62
	.cfi_restore 61
	.cfi_restore 60
	.cfi_restore 59
	.cfi_restore 58
	.cfi_restore 57
	.cfi_restore 56
	.cfi_restore 55
	.cfi_restore 54
	.cfi_restore 53
	.cfi_restore 52
	.cfi_restore 31
	.cfi_restore 30
	.cfi_restore 29
	.cfi_restore 28
	.cfi_restore 27
	.cfi_restore 26
	.cfi_restore 25
	.cfi_restore 24
	.cfi_restore 23
	.cfi_restore 22
	.cfi_restore 21
	.cfi_restore 20
	.cfi_restore 19
	.cfi_restore 18
	blr
.LVL318:
.L135:
.LCFI29:
	.cfi_restore_state
.LBB3223:
.LBB3216:
.LBB3168:
	.loc 2 758 0
	li 3,1296
	bl _Znwj
.LVL319:
.LBB3136:
.LBB3036:
	.loc 1 309 0
	addi 0,3,16
.LBB3033:
.LBB3034:
	.loc 1 133 0
	stw 25,4(3)
.LBE3034:
.LBE3033:
	.loc 1 307 0
	stw 23,0(3)
.LBE3036:
.LBE3136:
	.loc 2 758 0
	mr 29,3
.LVL320:
.LBB3137:
.LBB3037:
	.loc 1 309 0
	stw 0,8(3)
	.loc 1 310 0
	stw 24,12(3)
.LVL321:
.LBE3037:
.LBE3137:
	.loc 2 759 0
	lwz 9,772(31)
	lwzx 20,9,20
.LBB3138:
.LBB3081:
	.loc 3 655 0
	lwz 19,1312(20)
.LBE3081:
.LBE3138:
	.loc 2 759 0
	addi 18,20,1300
.LVL322:
.LBB3139:
.LBB3082:
	.loc 3 655 0
	cmpwi 7,19,0
	beq- 7,.L101
	lwz 0,1300(20)
	lwz 9,1304(20)
.LVL323:
.L102:
.LBB3070:
	.loc 3 659 0
	cmpw 7,0,9
	beq- 7,.L124
.L132:
.LBB3067:
.LBB3057:
.LBB3058:
	.loc 3 399 0
	slwi 0,0,2
	add 19,19,0
.L109:
.LBE3058:
.LBE3057:
.LBE3067:
.LBE3070:
	.loc 3 669 0
	stw 29,0(19)
	.loc 3 670 0
	lwz 9,1300(20)
	addi 0,9,1
	stw 0,1300(20)
	.loc 2 1290 0
	lwz 25,8(28)
.LVL324:
.LBE3082:
.LBE3139:
.LBB3140:
.LBB3141:
.LBB3142:
.LBB3143:
	.loc 1 260 0
	lwz 0,12(29)
	cmpw 7,25,0
	bgt- 7,.L136
.LVL325:
.L118:
.LBE3143:
.LBE3142:
	.loc 1 246 0
	stw 25,4(29)
.L119:
.LVL326:
.LBE3141:
.LBE3140:
	.loc 2 762 0 discriminator 1
	lwz 0,8(28)
	li 9,0
	li 11,0
	cmpwi 7,0,0
	ble- 7,.L133
.LVL327:
.L120:
.LBB3149:
.LBB3150:
	.loc 1 209 0 discriminator 2
	lwz 8,12(28)
.LBE3150:
.LBE3149:
	.loc 2 762 0 discriminator 2
	addi 11,11,1
.LVL328:
.LBB3152:
.LBB3153:
	.loc 1 209 0 discriminator 2
	lwz 10,8(29)
.LBE3153:
.LBE3152:
.LBB3155:
.LBB3156:
	.loc 4 424 0 discriminator 2
	lwzx 0,8,9
.LBE3156:
.LBE3155:
.LBB3159:
.LBB3151:
	.loc 1 209 0 discriminator 2
	add 8,8,9
.LBE3151:
.LBE3159:
.LBB3160:
.LBB3157:
	.loc 4 424 0 discriminator 2
	stwx 0,10,9
.LBE3157:
.LBE3160:
.LBB3161:
.LBB3154:
	.loc 1 209 0 discriminator 2
	add 10,10,9
.LVL329:
.LBE3154:
.LBE3161:
.LBB3162:
.LBB3158:
	.loc 4 425 0 discriminator 2
	lwz 0,4(8)
	stw 0,4(10)
	.loc 4 426 0 discriminator 2
	lwz 0,8(8)
	stw 0,8(10)
.LBE3158:
.LBE3162:
	.loc 2 764 0 discriminator 2
	lwz 10,8(29)
	lwz 0,0(30)
	add 10,10,9
	stw 0,12(10)
.LVL330:
	.loc 2 765 0 discriminator 2
	lwz 10,8(29)
	lwz 0,4(30)
	.loc 2 762 0 discriminator 2
	addi 30,30,8
	.loc 2 765 0 discriminator 2
	add 10,10,9
	.loc 2 762 0 discriminator 2
	addi 9,9,20
.LVL331:
	.loc 2 765 0 discriminator 2
	stw 0,16(10)
	.loc 2 762 0 discriminator 2
	lwz 0,8(28)
	cmpw 7,0,11
	bgt+ 7,.L120
.LVL332:
.L133:
	lwz 29,760(31)
.LVL333:
	b .L99
.LVL334:
.L136:
.LBB3163:
.LBB3148:
.LBB3147:
.LBB3146:
.LBB3144:
.LBB3145:
	.loc 1 261 0
	lwz 9,0(29)
	mr 3,29
	mr 4,25
	li 5,1
	lwz 0,12(9)
	mtctr 0
	bctrl
.LBE3145:
.LBE3144:
.LBE3146:
.LBE3147:
	.loc 1 243 0
	cmpwi 7,3,0
	beq+ 7,.L119
	b .L118
.LVL335:
.L124:
	lwz 3,1308(20)
.LBE3148:
.LBE3163:
.LBB3164:
.LBB3083:
.LBB3071:
	.loc 3 659 0
	mr 9,0
.L104:
.LBB3068:
	.loc 3 662 0
	cmpwi 7,3,0
	bne- 7,.L110
	.loc 3 663 0
	stw 21,1308(20)
	li 3,16
.L110:
	.loc 3 665 0
	add 11,9,3
.LVL336:
	.loc 3 666 0
	divw 11,11,3
.LVL337:
.LBB3064:
.LBB3061:
	.loc 3 375 0
	mullw. 3,11,3
.LVL338:
	ble- 0,.L137
	.loc 3 380 0
	cmpw 7,3,9
	beq- 7,.L132
.LVL339:
	.loc 3 387 0
	cmpw 7,3,0
	.loc 3 386 0
	stw 3,1304(20)
	.loc 3 387 0
	blt- 7,.L138
.L114:
	.loc 3 392 0
	slwi 3,3,2
.LVL340:
	bl _Znaj
.LVL341:
	.loc 3 393 0
	lwz 0,1300(20)
	.loc 3 392 0
	stw 3,1312(20)
.LVL342:
	.loc 3 393 0
	cmpwi 7,0,0
	ble- 7,.L115
	.loc 2 674 0
	addi 11,19,-4
.LBE3061:
.LBE3064:
	.loc 3 393 0
	li 9,0
	b .L116
.LVL343:
.L139:
.LBB3065:
.LBB3062:
	lwz 3,1312(20)
.LVL344:
.L116:
	.loc 3 394 0
	lwzu 10,4(11)
	slwi 0,9,2
	.loc 3 393 0
	addi 9,9,1
.LVL345:
	.loc 3 394 0
	stwx 10,3,0
	.loc 3 393 0
	lwz 0,0(18)
	cmpw 7,9,0
	blt+ 7,.L139
.LVL346:
.L115:
	.loc 3 398 0
	cmpwi 7,19,0
	beq- 7,.L140
	.loc 3 399 0
	mr 3,19
	bl _ZdaPv
	lwz 0,1300(20)
	lwz 19,1312(20)
.LVL347:
	b .L132
.LVL348:
.L138:
	.loc 3 388 0
	stw 3,1300(20)
	b .L114
.LVL349:
.L122:
.LBE3062:
.LBE3065:
.LBE3068:
.LBE3071:
.LBE3083:
.LBE3164:
.LBE3168:
.LBE3216:
.LBB3217:
.LBB3013:
	.loc 4 732 0
	lis 9,.LC3@ha
	lfs 0,.LC3@l(9)
	b .L96
.LVL350:
.L134:
.LBE3013:
.LBE3217:
.LBB3218:
.LBB2906:
	.loc 2 683 0
	addi 3,1,8
	bl _ZN8idBitMsgC1Ev
.LVL351:
.LBB2907:
.LBB2908:
	.file 12 "d:/Data/Nintendo/DoomGX/src/game/../idlib/../idlib/BitMsg.h"
	.loc 12 156 0
	addi 9,1,76
.LBE2908:
.LBE2907:
.LBB2912:
.LBB2913:
	.loc 12 300 0
	lwz 4,0(30)
.LBE2913:
.LBE2912:
.LBB2917:
.LBB2918:
	.loc 12 266 0
	li 0,0
.LBE2918:
.LBE2917:
.LBB2921:
.LBB2914:
	.loc 12 300 0
	addi 3,1,8
.LVL352:
.LBE2914:
.LBE2921:
.LBB2922:
.LBB2909:
	.loc 12 156 0
	stw 9,8(1)
	.loc 12 157 0
	stw 9,12(1)
.LBE2909:
.LBE2922:
.LBB2923:
.LBB2915:
	.loc 12 300 0
	li 5,32
.LBE2915:
.LBE2923:
.LBB2924:
.LBB2910:
	.loc 12 158 0
	li 9,128
.LBE2910:
.LBE2924:
.LBB2925:
.LBB2919:
	.loc 12 266 0
	stw 0,20(1)
.LBE2919:
.LBE2925:
.LBB2926:
.LBB2911:
	.loc 12 158 0
	stw 9,16(1)
.LVL353:
.LBE2911:
.LBE2926:
.LBB2927:
.LBB2920:
	.loc 12 267 0
	stb 0,37(1)
	.loc 12 268 0
	stw 0,24(1)
.LVL354:
.LBE2920:
.LBE2927:
.LBB2928:
.LBB2916:
	.loc 12 300 0
	bl _ZN8idBitMsg9WriteBitsEii
.LVL355:
.LBE2916:
.LBE2928:
.LBB2929:
.LBB2930:
	lwz 4,4(30)
	addi 3,1,8
.LVL356:
	li 5,32
	bl _ZN8idBitMsg9WriteBitsEii
.LVL357:
.LBE2930:
.LBE2929:
.LBB2931:
.LBB2932:
	lwz 4,8(30)
	addi 3,1,8
.LVL358:
	li 5,32
	bl _ZN8idBitMsg9WriteBitsEii
.LVL359:
.LBE2932:
.LBE2931:
.LBB2933:
.LBB2934:
	lwz 4,0(29)
	addi 3,1,8
.LVL360:
	li 5,32
	bl _ZN8idBitMsg9WriteBitsEii
.LVL361:
.LBE2934:
.LBE2933:
.LBB2935:
.LBB2936:
	lwz 4,4(29)
	addi 3,1,8
.LVL362:
	li 5,32
	bl _ZN8idBitMsg9WriteBitsEii
.LVL363:
.LBE2936:
.LBE2935:
.LBB2937:
.LBB2938:
	lwz 4,8(29)
	addi 3,1,8
.LVL364:
	li 5,32
	bl _ZN8idBitMsg9WriteBitsEii
.LVL365:
.LBE2938:
.LBE2937:
	.loc 2 694 0
	mr 3,31
	li 4,2
	addi 5,1,8
.LVL366:
	li 6,1
	li 7,-1
	bl _ZNK8idEntity15ServerSendEventEiPK8idBitMsgbi
.LVL367:
	b .L93
.LVL368:
.L101:
.LBE2906:
.LBE3218:
.LBB3219:
.LBB3169:
.LBB3165:
.LBB3084:
	.loc 3 656 0
	lwz 3,1308(20)
.LVL369:
.LBB3072:
.LBB3073:
	.loc 3 375 0
	cmpwi 7,3,0
.LBE3073:
.LBE3072:
	.loc 3 656 0
	mr 9,3
.LVL370:
.LBB3078:
.LBB3076:
	.loc 3 375 0
	ble- 7,.L141
	.loc 3 380 0
	lwz 0,1304(20)
	cmpw 7,3,0
	lwz 0,1300(20)
	beq- 7,.L102
.LVL371:
	.loc 3 387 0
	cmpw 7,3,0
	.loc 3 386 0
	stw 3,1304(20)
	.loc 3 387 0
	bge- 7,.L106
	.loc 3 388 0
	stw 3,1300(20)
.L106:
	.loc 3 392 0
	slwi 3,3,2
	bl _Znaj
.LVL372:
	.loc 3 393 0
	lwz 0,1300(20)
	.loc 3 392 0
	mr 19,3
	stw 3,1312(20)
.LVL373:
	.loc 3 393 0
	cmpwi 7,0,0
	li 9,0
	li 11,0
	bgt+ 7,.L130
	b .L144
.LVL374:
.L143:
	lwz 19,1312(20)
.LVL375:
.L130:
	.loc 3 394 0
	lwz 0,0(9)
	.loc 3 393 0
	addi 11,11,1
.LVL376:
	.loc 3 394 0
	stwx 0,19,9
	.loc 3 393 0
	addi 9,9,4
	lwz 0,0(18)
	cmpw 7,11,0
	blt+ 7,.L143
	lwz 9,1304(20)
	lwz 19,1312(20)
	b .L102
.LVL377:
.L137:
.LBE3076:
.LBE3078:
.LBB3079:
.LBB3069:
.LBB3066:
.LBB3063:
.LBB3059:
.LBB3060:
	.loc 3 193 0
	cmpwi 7,19,0
	beq- 7,.L112
	.loc 3 194 0
	mr 3,19
.LVL378:
	bl _ZdaPv
.L112:
	.loc 3 197 0
	stw 22,1312(20)
	.loc 3 199 0
	li 19,0
	.loc 3 198 0
	stw 22,1300(20)
	.loc 3 199 0
	stw 22,1304(20)
	b .L109
.LVL379:
.L140:
.LBE3060:
.LBE3059:
	.loc 3 398 0
	lwz 0,1300(20)
	lwz 19,1312(20)
.LVL380:
	slwi 0,0,2
	add 19,19,0
	b .L109
.LVL381:
.L144:
.LBE3063:
.LBE3066:
.LBE3069:
.LBE3079:
.LBB3080:
.LBB3077:
	.loc 3 393 0
	lwz 9,1304(20)
	b .L102
.LVL382:
.L141:
.LBB3074:
.LBB3075:
	.loc 3 198 0
	stw 25,1300(20)
	.loc 3 199 0
	li 9,0
	stw 25,1304(20)
	li 0,0
	b .L104
.LBE3075:
.LBE3074:
.LBE3077:
.LBE3080:
.LBE3084:
.LBE3165:
.LBE3169:
.LBE3219:
.LBE3223:
	.cfi_endproc
.LFE2837:
	.size	_ZN17idBrittleFracture12ProjectDecalERK6idVec3S2_iPKc, .-_ZN17idBrittleFracture12ProjectDecalERK6idVec3S2_iPKc
	.align 2
	.globl _ZN17idBrittleFracture15AddDamageEffectERK7trace_sRK6idVec3PKc
	.type	_ZN17idBrittleFracture15AddDamageEffectERK7trace_sRK6idVec3PKc, @function
_ZN17idBrittleFracture15AddDamageEffectERK7trace_sRK6idVec3PKc:
.LFB2844:
	.loc 2 1002 0
	.cfi_startproc
.LVL383:
	.loc 2 1003 0
	lbz 0,800(3)
	.loc 2 1002 0
	mr 5,4
.LVL384:
	mr 7,6
	.loc 2 1003 0
	cmpwi 7,0,0
	bnelr+ 7
.LVL385:
.LBB3226:
.LBB3227:
	.loc 2 1004 0
	lis 9,gameLocal+2426836@ha
	addi 4,4,56
.LVL386:
	lwz 6,gameLocal+2426836@l(9)
.LVL387:
	addi 5,5,68
.LVL388:
.LBE3227:
.LBE3226:
	.loc 2 1006 0
.LBB3229:
.LBB3228:
	.loc 2 1004 0
	b _ZN17idBrittleFracture12ProjectDecalERK6idVec3S2_iPKc
.LVL389:
.LVL390:
.LVL391:
.LVL392:
.LBE3228:
.LBE3229:
	.cfi_endproc
.LFE2844:
	.size	_ZN17idBrittleFracture15AddDamageEffectERK7trace_sRK6idVec3PKc, .-_ZN17idBrittleFracture15AddDamageEffectERK7trace_sRK6idVec3PKc
	.align 2
	.globl _ZN17idBrittleFracture9DropShardEP7shard_sRK6idVec3S4_fi
	.type	_ZN17idBrittleFracture9DropShardEP7shard_sRK6idVec3S4_fi, @function
_ZN17idBrittleFracture9DropShardEP7shard_sRK6idVec3S4_fi:
.LFB2838:
	.loc 2 777 0
	.cfi_startproc
.LVL393:
	mflr 0
	stwu 1,-184(1)
.LCFI30:
	.cfi_def_cfa_offset 184
	.cfi_register 65, 0
	stfd 27,144(1)
	fmr 27,1
	.cfi_offset 59, -40
	stw 24,112(1)
.LBB3287:
	.loc 2 785 0
	addi 24,4,1300
	.cfi_offset 24, -72
.LVL394:
.LBE3287:
	.loc 2 777 0
	stw 25,116(1)
	mr 25,7
	.cfi_offset 25, -68
	stw 28,128(1)
	mr 28,5
	.cfi_offset 28, -56
	stw 29,132(1)
	mr 29,6
	.cfi_offset 29, -52
	stw 30,136(1)
	mr 30,3
	.cfi_offset 30, -48
	stw 31,140(1)
	mr 31,4
	.cfi_offset 31, -44
	stw 0,188(1)
	stfd 28,152(1)
	stfd 29,160(1)
	stfd 30,168(1)
	stfd 31,176(1)
	stw 23,108(1)
	stw 26,120(1)
	stw 27,124(1)
.LBB3481:
.LBB3288:
.LBB3289:
	.loc 3 218 0
	lwz 0,1300(4)
	.cfi_offset 27, -60
	.cfi_offset 26, -64
	.cfi_offset 23, -76
	.cfi_offset 63, -8
	.cfi_offset 62, -16
	.cfi_offset 61, -24
	.cfi_offset 60, -32
	.cfi_offset 65, 4
	cmpwi 7,0,0
	ble- 7,.L148
	li 27,0
	.loc 3 220 0
	li 23,0
.LVL395:
.L150:
	.loc 3 219 0
	lwz 11,12(24)
	.loc 2 777 0
	slwi 26,27,2
	.loc 3 218 0
	addi 27,27,1
	.loc 3 219 0
	lwzx 9,11,26
	add 11,11,26
	cmpwi 7,9,0
	mr 3,9
	beq- 7,.L149
	lwz 9,0(9)
	lwz 0,4(9)
	mtctr 0
	bctrl
	lwz 11,1312(31)
	add 11,11,26
.L149:
.LVL396:
	.loc 3 220 0
	stw 23,0(11)
	.loc 3 218 0
	lwz 0,0(24)
	cmpw 7,27,0
	blt+ 7,.L150
.LVL397:
.L148:
.LBB3290:
.LBB3291:
	.loc 3 193 0
	lwz 3,1312(31)
	cmpwi 7,3,0
	beq- 7,.L151
	.loc 3 194 0
	bl _ZdaPv
.L151:
.LBE3291:
.LBE3290:
.LBE3289:
.LBE3288:
	.loc 2 788 0
	lwz 6,1332(31)
.LBB3301:
.LBB3298:
.LBB3295:
.LBB3292:
	.loc 3 197 0
	li 0,0
.LBE3292:
.LBE3295:
.LBE3298:
.LBE3301:
	.loc 2 788 0
	li 7,0
.LBB3302:
.LBB3299:
.LBB3296:
.LBB3293:
	.loc 3 197 0
	stw 0,1312(31)
.LBE3293:
.LBE3296:
.LBE3299:
.LBE3302:
	.loc 2 788 0
	cmpwi 7,6,0
.LBB3303:
.LBB3300:
.LBB3297:
.LBB3294:
	.loc 3 198 0
	stw 0,1300(31)
	.loc 3 199 0
	stw 0,1304(31)
.LVL398:
.LBE3294:
.LBE3297:
.LBE3300:
.LBE3303:
	.loc 2 788 0
	lwz 3,1344(31)
	ble- 7,.L153
.LVL399:
.L161:
	.loc 2 789 0
	slwi 0,7,2
	lwzx 8,3,0
.LVL400:
	.loc 2 1290 0
	lwz 10,1332(8)
	.loc 2 790 0
	cmpwi 7,10,0
	ble- 7,.L154
	.loc 2 1290 0
	lwz 11,1344(8)
.LVL401:
	.loc 2 790 0
	li 9,0
	.loc 2 791 0
	mtctr 10
	lwz 0,0(11)
.LVL402:
	cmpw 7,31,0
	bne+ 7,.L156
	b .L155
.LVL403:
.L160:
	lwzx 0,11,0
	cmpw 7,31,0
	beq- 7,.L173
.LVL404:
.L156:
	.loc 2 790 0
	addi 9,9,1
.LVL405:
	.loc 2 791 0
	slwi 0,9,2
	.loc 2 790 0
	bdnz .L160
.LVL406:
.L154:
	.loc 2 788 0
	addi 7,7,1
.LVL407:
	cmpw 7,6,7
	bgt+ 7,.L161
.LVL408:
.L153:
.LBB3304:
.LBB3305:
	.loc 3 193 0
	cmpwi 7,3,0
	beq- 7,.L162
	.loc 3 194 0
	bl _ZdaPv
.L162:
	.loc 3 197 0
	li 0,0
	.loc 2 1290 0
	lwz 9,0(31)
	.loc 3 197 0
	stw 0,1344(31)
.LBE3305:
.LBE3304:
	.loc 2 803 0
	lis 26,.LC3@ha
.LBB3309:
.LBB3306:
	.loc 3 198 0
	stw 0,1332(31)
.LBE3306:
.LBE3309:
	.loc 2 803 0
	addi 3,30,716
.LBB3310:
.LBB3307:
	.loc 3 199 0
	stw 0,1336(31)
.LBE3307:
.LBE3310:
	.loc 2 803 0
	li 4,0
	lfs 1,.LC3@l(26)
	li 6,0
.LBB3311:
.LBB3308:
	.loc 2 1290 0
	lwz 27,8(9)
.LBE3308:
.LBE3311:
	.loc 2 803 0
	mr 5,27
	bl _ZN21idPhysics_StaticMulti12SetClipModelEP11idClipModelfib
	.loc 2 805 0
	lwz 9,0(31)
.LVL409:
.LBB3312:
.LBB3313:
	.loc 5 333 0
	li 10,0
.LBE3313:
.LBE3312:
.LBB3321:
.LBB3322:
	.loc 4 425 0
	lwz 11,20(9)
	.loc 4 426 0
	lwz 0,24(9)
	.loc 4 424 0
	lwz 8,16(9)
	.loc 4 425 0
	stw 11,36(1)
	.loc 4 426 0
	stw 0,40(1)
.LVL410:
	.loc 4 424 0
	stw 8,32(1)
.LBE3322:
.LBE3321:
.LBB3323:
.LBB3320:
	.loc 5 333 0
	addi 8,9,28
.L163:
.LBB3314:
.LBB3315:
	.loc 4 424 0
	mr 11,8
	addi 9,1,44
	lwzux 0,11,10
.LBE3315:
.LBE3314:
	.loc 5 333 0
	cmpwi 7,10,24
.LBB3318:
.LBB3316:
	.loc 4 424 0
	stwux 0,9,10
.LBE3316:
.LBE3318:
	.loc 5 333 0
	addi 10,10,12
.LBB3319:
.LBB3317:
	.loc 4 425 0
	lwz 0,4(11)
	stw 0,4(9)
	.loc 4 426 0
	lwz 0,8(11)
	stw 0,8(9)
.LBE3317:
.LBE3319:
	.loc 5 333 0
	bne+ 7,.L163
.LBE3320:
.LBE3323:
	.loc 2 809 0
	stw 25,1892(31)
.LVL411:
.LBB3324:
.LBB3325:
.LBB3326:
.LBB3327:
	.loc 7 275 0
	lis 9,.LC11@ha
.LBE3327:
.LBE3326:
.LBE3325:
.LBE3324:
.LBB3343:
.LBB3344:
	.loc 4 431 0
	lfs 30,36(1)
	lfs 0,4(28)
	lfs 29,32(1)
	fsubs 30,30,0
	lfs 0,0(28)
	lfs 13,8(28)
	fsubs 29,29,0
	lfs 28,40(1)
.LBE3344:
.LBE3343:
.LBB3347:
.LBB3338:
	.loc 4 649 0
	fmuls 0,30,30
.LBB3333:
.LBB3328:
	.loc 7 275 0
	lfs 12,.LC11@l(9)
.LBE3328:
.LBE3333:
.LBE3338:
.LBE3347:
.LBB3348:
.LBB3345:
	.loc 4 431 0
	fsubs 28,28,13
.LVL412:
.LBE3345:
.LBE3348:
.LBB3349:
.LBB3339:
.LBB3334:
.LBB3329:
	.loc 7 276 0
	lis 9,_ZN6idMath5iSqrtE@ha
	la 9,_ZN6idMath5iSqrtE@l(9)
.LBE3329:
.LBE3334:
.LBE3339:
.LBE3349:
	.loc 2 813 0
	lfs 31,.LC3@l(26)
.LBB3350:
.LBB3346:
	.loc 4 649 0
	fmadds 0,29,29,0
	fmadds 0,28,28,0
	stfs 0,88(1)
.LVL413:
.LBE3346:
.LBE3350:
.LBB3351:
.LBB3340:
.LBB3335:
.LBB3330:
	.loc 7 275 0
	fmuls 11,0,12
	.loc 7 270 0
	lwz 0,88(1)
.LVL414:
	.loc 2 777 0
	fneg 11,11
	.loc 7 276 0
	rlwinm 11,0,9,24,31
	rlwinm 0,0,19,21,29
	lwzx 0,9,0
	subfic 11,11,380
	rlwinm 11,11,22,0,8
	or 0,11,0
	.loc 7 278 0
	lis 11,.LC13@ha
	.loc 7 277 0
	stw 0,96(1)
	lfs 0,96(1)
.LVL415:
.LBE3330:
.LBE3335:
.LBE3340:
.LBE3351:
	.loc 2 813 0
	lfs 10,652(30)
.LBB3352:
.LBB3341:
.LBB3336:
.LBB3331:
	.loc 7 277 0
	fmr 13,0
.LVL416:
	.loc 7 278 0
	lfs 0,.LC13@l(11)
.LVL417:
	fmul 9,13,13
	fmadd 9,11,9,0
	fmul 13,13,9
.LVL418:
	.loc 7 279 0
	fmul 9,13,13
	fmadd 11,11,9,0
.LVL419:
.LBE3331:
.LBE3336:
	.loc 4 654 0
	lfs 9,88(1)
.LBB3337:
.LBB3332:
	.loc 7 279 0
	fmul 13,13,11
.LVL420:
	.loc 7 280 0
	frsp 13,13
.LVL421:
.LBE3332:
.LBE3337:
	.loc 4 654 0
	fmuls 11,9,13
	.loc 4 651 0
	fmuls 29,29,13
.LVL422:
	.loc 4 652 0
	fmuls 30,30,13
.LVL423:
.LBE3341:
.LBE3352:
	.loc 2 813 0
	fcmpu 7,10,11
.LBB3353:
.LBB3342:
	.loc 4 653 0
	fmuls 28,28,13
.LVL424:
.LBE3342:
.LBE3353:
	.loc 2 813 0
	blt- 7,.L164
	.loc 2 813 0 is_stmt 0 discriminator 2
	lfs 13,656(30)
	fsubs 10,10,13
	fsubs 11,11,13
	stfs 10,92(1)
.LBB3354:
.LBB3355:
.LBB3356:
.LBB3357:
	.loc 7 275 0 is_stmt 1 discriminator 2
	fmuls 10,10,12
.LBE3357:
.LBE3356:
.LBE3355:
.LBE3354:
	.loc 2 813 0 discriminator 2
	stfs 11,88(1)
.LVL425:
.LBB3391:
.LBB3380:
.LBB3369:
.LBB3358:
	.loc 7 270 0 discriminator 2
	lwz 0,92(1)
	.loc 2 777 0 discriminator 2
	fneg 10,10
.LBE3358:
.LBE3369:
.LBE3380:
.LBE3391:
.LBB3392:
.LBB3393:
.LBB3394:
.LBB3395:
	.loc 7 275 0 discriminator 2
	lfs 9,88(1)
.LBE3395:
.LBE3394:
.LBE3393:
.LBE3392:
.LBB3431:
.LBB3381:
.LBB3370:
.LBB3359:
	.loc 7 276 0 discriminator 2
	rlwinm 11,0,9,24,31
	rlwinm 0,0,19,21,29
	lwzx 0,9,0
	subfic 11,11,380
	rlwinm 11,11,22,0,8
.LBE3359:
.LBE3370:
.LBE3381:
.LBE3431:
.LBB3432:
.LBB3420:
.LBB3408:
.LBB3396:
	.loc 7 275 0 discriminator 2
	fmuls 12,9,12
.LBE3396:
.LBE3408:
.LBE3420:
.LBE3432:
.LBB3433:
.LBB3382:
.LBB3371:
.LBB3360:
	.loc 7 276 0 discriminator 2
	or 0,11,0
	.loc 7 277 0 discriminator 2
	stw 0,96(1)
.LBE3360:
.LBE3371:
.LBE3382:
.LBE3433:
.LBB3434:
.LBB3421:
.LBB3409:
.LBB3397:
	.loc 7 270 0 discriminator 2
	lwz 0,88(1)
.LVL426:
	.loc 2 777 0 discriminator 2
	fneg 12,12
.LBE3397:
.LBE3409:
.LBE3421:
.LBE3434:
.LBB3435:
.LBB3383:
.LBB3372:
.LBB3361:
	.loc 7 277 0 discriminator 2
	lfs 11,96(1)
.LVL427:
.LBE3361:
.LBE3372:
.LBE3383:
.LBE3435:
.LBB3436:
.LBB3422:
.LBB3410:
.LBB3398:
	.loc 7 276 0 discriminator 2
	rlwinm 11,0,9,24,31
	rlwinm 0,0,19,21,29
.LBE3398:
.LBE3410:
.LBE3422:
.LBE3436:
.LBB3437:
.LBB3384:
.LBB3373:
.LBB3362:
	.loc 7 277 0 discriminator 2
	fmr 13,11
.LBE3362:
.LBE3373:
.LBE3384:
.LBE3437:
.LBB3438:
.LBB3423:
.LBB3411:
.LBB3399:
	.loc 7 276 0 discriminator 2
	lwzx 0,9,0
	subfic 11,11,380
	rlwinm 9,11,22,0,8
.LBE3399:
.LBE3411:
.LBE3423:
.LBE3438:
.LBB3439:
.LBB3385:
.LBB3374:
.LBB3363:
	.loc 7 278 0 discriminator 2
	fmul 11,13,13
.LBE3363:
.LBE3374:
.LBE3385:
.LBE3439:
.LBB3440:
.LBB3424:
.LBB3412:
.LBB3400:
	.loc 7 276 0 discriminator 2
	or 0,9,0
	.loc 7 277 0 discriminator 2
	stw 0,96(1)
	lfs 9,96(1)
.LVL428:
.LBE3400:
.LBE3412:
.LBE3424:
.LBE3440:
.LBB3441:
.LBB3386:
.LBB3375:
.LBB3364:
	.loc 7 278 0 discriminator 2
	fmadd 11,10,11,0
	fmul 11,13,11
.LBE3364:
.LBE3375:
.LBE3386:
.LBE3441:
.LBB3442:
.LBB3425:
.LBB3413:
.LBB3401:
	.loc 7 277 0 discriminator 2
	fmr 13,9
.LVL429:
.LBE3401:
.LBE3413:
.LBE3425:
.LBE3442:
.LBB3443:
.LBB3387:
.LBB3376:
.LBB3365:
	.loc 7 279 0 discriminator 2
	fmul 8,11,11
.LBE3365:
.LBE3376:
.LBE3387:
.LBE3443:
.LBB3444:
.LBB3426:
.LBB3414:
.LBB3402:
	.loc 7 278 0 discriminator 2
	fmul 9,13,13
.LVL430:
.LBE3402:
.LBE3414:
.LBE3426:
.LBE3444:
.LBB3445:
.LBB3388:
.LBB3377:
.LBB3366:
	.loc 7 279 0 discriminator 2
	fmadd 10,10,8,0
.LBE3366:
.LBE3377:
.LBE3388:
.LBE3445:
.LBB3446:
.LBB3427:
.LBB3415:
.LBB3403:
	.loc 7 278 0 discriminator 2
	fmadd 9,12,9,0
.LBE3403:
.LBE3415:
.LBE3427:
.LBE3446:
.LBB3447:
.LBB3389:
.LBB3378:
.LBB3367:
	.loc 7 279 0 discriminator 2
	fmul 11,11,10
.LBE3367:
.LBE3378:
.LBE3389:
.LBE3447:
.LBB3448:
.LBB3428:
.LBB3416:
.LBB3404:
	.loc 7 278 0 discriminator 2
	fmul 13,13,9
.LVL431:
.LBE3404:
.LBE3416:
.LBE3428:
.LBE3448:
.LBB3449:
.LBB3390:
.LBB3379:
.LBB3368:
	.loc 7 280 0 discriminator 2
	frsp 10,11
.LBE3368:
.LBE3379:
	.loc 7 303 0 discriminator 2
	lfs 11,92(1)
	fmuls 10,11,10
.LBE3390:
.LBE3449:
.LBB3450:
.LBB3429:
.LBB3417:
.LBB3405:
	.loc 7 279 0 discriminator 2
	fmul 11,13,13
.LBE3405:
.LBE3417:
.LBE3429:
.LBE3450:
	.loc 2 813 0 discriminator 2
	fdivs 31,31,10
.LBB3451:
.LBB3430:
.LBB3418:
.LBB3406:
	.loc 7 279 0 discriminator 2
	fmadd 0,12,11,0
.LVL432:
	fmul 0,13,0
.LVL433:
.LBE3406:
.LBE3418:
	.loc 7 303 0 discriminator 2
	lfs 13,88(1)
.LBB3419:
.LBB3407:
	.loc 7 280 0 discriminator 2
	frsp 0,0
.LVL434:
.LBE3407:
.LBE3419:
	.loc 7 303 0 discriminator 2
	fmuls 0,13,0
.LBE3430:
.LBE3451:
	.loc 2 813 0 discriminator 2
	fmuls 31,31,0
.LVL435:
.L164:
	.loc 2 816 0 discriminator 3
	addi 28,31,1348
.LVL436:
	mr 4,30
	mr 3,28
	bl _ZN14idPhysics_Base7SetSelfEP8idEntity
.LVL437:
	.loc 2 817 0 discriminator 3
	lwz 4,0(31)
	lfs 1,672(30)
	li 6,1
	mr 3,28
	li 5,0
	bl _ZN19idPhysics_RigidBody12SetClipModelEP11idClipModelfib
	.loc 2 818 0 discriminator 3
	lfs 1,668(30)
	mr 3,28
	li 4,-1
	bl _ZN19idPhysics_RigidBody7SetMassEfi
	.loc 2 819 0 discriminator 3
	mr 3,28
	addi 4,1,32
	li 5,-1
	bl _ZN19idPhysics_RigidBody9SetOriginERK6idVec3i
	.loc 2 820 0 discriminator 3
	addi 4,1,44
	li 5,-1
	mr 3,28
	bl _ZN19idPhysics_RigidBody7SetAxisERK6idMat3i
	.loc 2 821 0 discriminator 3
	lfs 1,680(30)
	mr 3,28
	bl _ZN19idPhysics_RigidBody13SetBouncynessEf
	.loc 2 822 0 discriminator 3
	lis 9,.LC15@ha
	lfs 1,.LC15@l(9)
	mr 3,28
	lfs 3,676(30)
	fmr 2,1
	bl _ZN19idPhysics_RigidBody11SetFrictionEfff
	.loc 2 823 0 discriminator 3
	lis 3,gameLocal@ha
	la 3,gameLocal@l(3)
	bl _ZNK11idGameLocal10GetGravityEv
	mr 4,3
	mr 3,28
	bl _ZN14idPhysics_Base10SetGravityERK6idVec3
	.loc 2 824 0 discriminator 3
	mr 3,28
	li 4,2048
	li 5,-1
	bl _ZN19idPhysics_RigidBody11SetContentsEii
	.loc 2 825 0 discriminator 3
	mr 3,28
	li 4,33
	li 5,-1
	bl _ZN14idPhysics_Base11SetClipMaskEii
	.loc 2 826 0 discriminator 3
	lfs 0,660(30)
.LBB3452:
.LBB3453:
	.loc 4 448 0 discriminator 3
	lfs 12,0(29)
.LBE3453:
.LBE3452:
	.loc 2 826 0 discriminator 3
	addi 6,1,20
	fmuls 27,27,0
.LVL438:
.LBB3458:
.LBB3456:
	.loc 4 448 0 discriminator 3
	lfs 13,4(29)
	lfs 0,8(29)
.LBE3456:
.LBE3458:
	.loc 2 826 0 discriminator 3
	mr 3,28
	addi 5,1,32
	li 4,0
.LBB3459:
.LBB3457:
	.loc 4 448 0 discriminator 3
	fmuls 13,27,13
	fmuls 0,27,0
.LVL439:
	fmuls 27,27,12
.LVL440:
.LBB3454:
.LBB3455:
	.loc 4 397 0 discriminator 3
	stfs 13,24(1)
	.loc 4 398 0 discriminator 3
	stfs 0,28(1)
	.loc 4 396 0 discriminator 3
	stfs 27,20(1)
.LBE3455:
.LBE3454:
.LBE3457:
.LBE3459:
	.loc 2 826 0 discriminator 3
	bl _ZN19idPhysics_RigidBody12ApplyImpulseEiRK6idVec3S2_
.LVL441:
.LBB3460:
.LBB3461:
	.loc 4 620 0 discriminator 3
	lfs 12,4(29)
.LBE3461:
.LBE3460:
	.loc 2 827 0 discriminator 3
	mr 3,28
.LBB3465:
.LBB3462:
	.loc 4 620 0 discriminator 3
	lfs 13,8(29)
.LBE3462:
.LBE3465:
	.loc 2 827 0 discriminator 3
	addi 4,1,8
.LBB3466:
.LBB3463:
	.loc 4 620 0 discriminator 3
	lfs 0,0(29)
.LVL442:
	fmuls 11,12,29
	fmuls 8,13,30
.LBE3463:
.LBE3466:
	.loc 2 827 0 discriminator 3
	lfs 9,664(30)
.LBB3467:
.LBB3464:
	.loc 4 620 0 discriminator 3
	fmuls 10,0,28
.LBE3464:
.LBE3467:
	.loc 2 827 0 discriminator 3
	li 5,0
	fmuls 31,31,9
.LVL443:
.LBB3468:
.LBB3469:
	.loc 4 620 0 discriminator 3
	fmsubs 12,12,28,8
	fmsubs 13,13,29,10
	fmsubs 0,0,30,11
	.loc 4 439 0 discriminator 3
	fmuls 12,31,12
	fmuls 13,31,13
	fmuls 31,31,0
.LVL444:
.LBB3470:
.LBB3471:
	.loc 4 396 0 discriminator 3
	stfs 12,8(1)
	.loc 4 397 0 discriminator 3
	stfs 13,12(1)
	.loc 4 398 0 discriminator 3
	stfs 31,16(1)
.LBE3471:
.LBE3470:
.LBE3469:
.LBE3468:
	.loc 2 827 0 discriminator 3
	bl _ZN19idPhysics_RigidBody18SetAngularVelocityERK6idVec3i
.LVL445:
	.loc 2 829 0 discriminator 3
	lwz 9,0(31)
.LVL446:
	.loc 2 831 0 discriminator 3
	mr 3,30
	li 4,2
.LBB3472:
.LBB3473:
	.file 13 "d:/Data/Nintendo/DoomGX/src/game/physics/Clip.h"
	.loc 13 183 0 discriminator 3
	stw 27,8(9)
.LBE3473:
.LBE3472:
	.loc 2 831 0 discriminator 3
	bl _ZN8idEntity12BecomeActiveEi
.LBE3481:
	.loc 2 832 0 discriminator 3
	lwz 0,188(1)
	lwz 23,108(1)
	mtlr 0
	lwz 24,112(1)
.LVL447:
	lwz 25,116(1)
.LVL448:
	lwz 26,120(1)
	lwz 27,124(1)
.LVL449:
	lwz 28,128(1)
	lwz 29,132(1)
.LVL450:
	lwz 30,136(1)
.LVL451:
	lwz 31,140(1)
.LVL452:
	lfd 27,144(1)
.LVL453:
	lfd 28,152(1)
	lfd 29,160(1)
	lfd 30,168(1)
	lfd 31,176(1)
	addi 1,1,184
	.cfi_remember_state
.LCFI31:
	.cfi_def_cfa_offset 0
	.cfi_restore 63
	.cfi_restore 62
	.cfi_restore 61
	.cfi_restore 60
	.cfi_restore 59
	.cfi_restore 31
	.cfi_restore 30
	.cfi_restore 29
	.cfi_restore 28
	.cfi_restore 27
	.cfi_restore 26
	.cfi_restore 25
	.cfi_restore 24
	.cfi_restore 23
	blr
.LVL454:
.L173:
.LCFI32:
	.cfi_restore_state
.LBB3482:
.LBB3474:
.LBB3475:
	.loc 3 864 0
	cmpwi 7,9,0
	blt- 7,.L154
.LVL455:
.L155:
.LBE3475:
.LBB3476:
.LBB3477:
	.loc 3 868 0
	addi 10,10,-1
	.loc 3 869 0
	cmpw 7,9,10
	.loc 3 868 0
	stw 10,1332(8)
.LVL456:
	.loc 3 869 0
	slwi 10,9,2
	blt+ 7,.L171
	b .L172
.LVL457:
.L158:
	lwz 11,1344(8)
.L171:
	.loc 3 870 0
	add 6,11,10
	.loc 2 777 0
	addi 10,10,4
	.loc 3 870 0
	lwzx 0,11,10
	.loc 3 869 0
	addi 9,9,1
.LVL458:
	.loc 3 870 0
	stw 0,0(6)
	.loc 3 869 0
	lwz 0,1332(8)
	cmpw 7,9,0
	blt+ 7,.L158
.L172:
	lwz 6,1332(31)
.LBE3477:
.LBE3476:
.LBE3474:
	.loc 2 788 0
	addi 7,7,1
.LVL459:
.LBB3480:
.LBB3479:
.LBB3478:
	.loc 3 869 0
	lwz 3,1344(31)
.LBE3478:
.LBE3479:
.LBE3480:
	.loc 2 788 0
	cmpw 7,6,7
	bgt+ 7,.L161
	b .L153
.LBE3482:
	.cfi_endproc
.LFE2838:
	.size	_ZN17idBrittleFracture9DropShardEP7shard_sRK6idVec3S4_fi, .-_ZN17idBrittleFracture9DropShardEP7shard_sRK6idVec3S4_fi
	.align 2
	.globl _ZN17idBrittleFracture19DropFloatingIslandsERK6idVec3S2_i
	.type	_ZN17idBrittleFracture19DropFloatingIslandsERK6idVec3S2_i, @function
_ZN17idBrittleFracture19DropFloatingIslandsERK6idVec3S2_i:
.LFB2840:
	.loc 2 897 0
	.cfi_startproc
.LVL460:
	mflr 0
	stwu 1,-72(1)
.LCFI33:
	.cfi_def_cfa_offset 72
	.cfi_register 65, 0
.LBB3506:
.LBB3507:
.LBB3508:
.LBB3509:
.LBB3510:
	.loc 7 276 0
	lis 11,_ZN6idMath5iSqrtE@ha
.LBE3510:
.LBE3509:
.LBE3508:
.LBE3507:
.LBE3506:
	.loc 2 897 0
	stw 22,32(1)
.LBB3545:
.LBB3533:
.LBB3525:
.LBB3518:
.LBB3511:
	.loc 7 276 0
	la 11,_ZN6idMath5iSqrtE@l(11)
.LBE3511:
.LBE3518:
.LBE3525:
.LBE3533:
.LBE3545:
	.loc 2 897 0
	stw 0,76(1)
	mr 22,6
	.cfi_offset 65, 4
	.cfi_offset 22, -40
	stw 23,36(1)
	mr 23,4
	.cfi_offset 23, -36
	stw 27,52(1)
	stw 29,60(1)
	mr 29,3
	.cfi_offset 29, -12
	.cfi_offset 27, -20
	stw 31,68(1)
	mr 31,1
	.cfi_offset 31, -4
.LCFI34:
	.cfi_def_cfa_register 31
.LVL461:
	stw 24,40(1)
	stw 25,44(1)
	stw 26,48(1)
	stw 28,56(1)
	stw 30,64(1)
.LBB3546:
.LBB3534:
.LBB3535:
	.loc 4 425 0
	lfs 12,4(5)
	.loc 4 424 0
	lfs 11,0(5)
.LBE3535:
.LBE3534:
.LBB3537:
.LBB3526:
	.loc 4 649 0
	fmuls 0,12,12
.LBE3526:
.LBE3537:
.LBB3538:
.LBB3536:
	.loc 4 426 0
	lfs 13,8(5)
.LVL462:
	.loc 4 649 0
	fmadds 0,11,11,0
	fmadds 0,13,13,0
	stfs 0,24(31)
.LVL463:
.LBE3536:
.LBE3538:
.LBB3539:
.LBB3527:
.LBB3519:
.LBB3512:
	.loc 7 270 0
	lwz 0,24(31)
.LVL464:
	.loc 7 276 0
	rlwinm 9,0,9,24,31
	rlwinm 0,0,19,21,29
	lwzx 0,11,0
	subfic 9,9,380
	rlwinm 9,9,22,0,8
	.loc 7 275 0
	lis 11,.LC11@ha
	.loc 7 276 0
	or 0,9,0
	.loc 7 275 0
	lfs 9,.LC11@l(11)
	.loc 7 277 0
	stw 0,28(31)
	.loc 7 278 0
	lis 9,.LC13@ha
	.loc 7 275 0
	fmuls 9,0,9
.LVL465:
.LBE3512:
.LBE3519:
.LBE3527:
.LBE3539:
	.loc 2 908 0
	lwz 11,0(1)
.LBB3540:
.LBB3528:
.LBB3520:
.LBB3513:
	.loc 7 277 0
	lfs 10,28(31)
	fmr 0,10
.LVL466:
	.loc 7 278 0
	lfs 10,.LC13@l(9)
.LVL467:
	.loc 2 897 0
	fneg 9,9
.LVL468:
.LBE3513:
.LBE3520:
.LBE3528:
.LBE3540:
	.loc 2 908 0
	lwz 9,760(3)
.LBB3541:
.LBB3529:
.LBB3521:
.LBB3514:
	.loc 7 278 0
	fmul 8,0,0
.LBE3514:
.LBE3521:
.LBE3529:
.LBE3541:
	.loc 2 908 0
	slwi 10,9,2
	addi 0,10,45
	.loc 2 909 0
	cmpwi 7,9,0
	.loc 2 908 0
	rlwinm 0,0,0,0,27
	neg 0,0
.LBB3542:
.LBB3530:
.LBB3522:
.LBB3515:
	.loc 7 278 0
	fmadd 8,9,8,10
.LBE3515:
.LBE3522:
.LBE3530:
.LBE3542:
	.loc 2 908 0
	stwux 11,1,0
	addi 27,1,23
.LBB3543:
.LBB3531:
.LBB3523:
.LBB3516:
	.loc 7 278 0
	fmul 0,0,8
.LVL469:
.LBE3516:
.LBE3523:
.LBE3531:
.LBE3543:
	.loc 2 908 0
	rlwinm 27,27,0,0,27
.LBB3544:
.LBB3532:
.LBB3524:
.LBB3517:
	.loc 7 279 0
	fmul 8,0,0
	fmadd 10,9,8,10
.LVL470:
	fmul 0,0,10
.LVL471:
	.loc 7 280 0
	frsp 0,0
.LVL472:
.LBE3517:
.LBE3524:
	.loc 4 651 0
	fmuls 11,11,0
	.loc 4 652 0
	fmuls 12,12,0
	.loc 4 653 0
	fmuls 0,13,0
	.loc 4 651 0
	stfs 11,8(31)
	.loc 4 652 0
	stfs 12,12(31)
	.loc 4 653 0
	stfs 0,16(31)
.LVL473:
.LBE3532:
.LBE3544:
	.loc 2 909 0
	ble- 7,.L174
	.cfi_offset 30, -8
	.cfi_offset 28, -16
	.cfi_offset 26, -24
	.cfi_offset 25, -28
	.cfi_offset 24, -32
.LVL474:
	li 9,0
	.loc 2 910 0
	li 10,0
.LVL475:
.L176:
	.loc 2 910 0 is_stmt 0 discriminator 2
	lwz 11,772(29)
	slwi 0,9,2
	.loc 2 909 0 is_stmt 1 discriminator 2
	addi 9,9,1
.LVL476:
	.loc 2 910 0 discriminator 2
	lwzx 11,11,0
	stw 10,1900(11)
	.loc 2 1290 0 discriminator 2
	lwz 0,760(29)
	.loc 2 909 0 discriminator 2
	cmpw 7,0,9
	bgt+ 7,.L176
.LVL477:
	.loc 2 913 0 discriminator 1
	cmpwi 7,0,0
	ble- 7,.L174
	.loc 2 913 0 is_stmt 0
	li 26,0
	li 28,0
	b .L184
.LVL478:
.L177:
	addi 28,28,1
.LVL479:
	cmpw 7,0,28
	ble- 7,.L174
.LVL480:
.L184:
	.loc 2 915 0 is_stmt 1
	lwz 9,772(29)
	.loc 2 897 0
	slwi 11,28,2
	.loc 2 915 0
	lwzx 9,9,11
	lwz 10,1892(9)
	cmpwi 7,10,-1
	bne+ 7,.L177
.LVL481:
	.loc 2 919 0
	lwz 10,1900(9)
	cmpwi 7,10,0
	bne- 7,.L177
.LVL482:
	.loc 2 925 0
	stw 9,0(27)
.LVL483:
	.loc 2 926 0
	addi 26,26,1
	.loc 2 933 0
	mr 5,27
	.loc 2 923 0
	li 6,0
	.loc 2 926 0
	lwz 9,772(29)
	.loc 2 924 0
	li 30,1
	.loc 2 926 0
	lwzx 9,9,11
	stw 26,1900(9)
.LVL484:
	.loc 2 929 0
	lwz 9,772(29)
	.loc 2 933 0
	lwz 10,0(27)
	.loc 2 929 0
	lwzx 9,9,11
	lbz 4,1896(9)
.LVL485:
.L178:
	.loc 2 935 0 discriminator 1
	lwz 8,1332(10)
	li 9,0
	cmpwi 7,8,0
	bgt+ 7,.L189
	b .L182
.LVL486:
.L179:
	.loc 2 935 0 is_stmt 0
	addi 9,9,1
.LVL487:
	cmpw 7,8,9
	ble- 7,.L182
.LVL488:
.L189:
	.loc 2 937 0 is_stmt 1
	lwz 11,1344(10)
	slwi 0,9,2
	lwzx 11,11,0
.LVL489:
	.loc 2 939 0
	lwz 0,1892(11)
.LVL490:
	cmpwi 7,0,-1
	bne+ 7,.L179
	.loc 2 943 0
	lwz 0,1900(11)
	.loc 2 947 0
	slwi 7,30,2
	.loc 2 943 0
	cmpwi 7,0,0
	bne- 7,.L179
	.loc 2 947 0
	stwx 11,27,7
	addi 30,30,1
.LVL491:
	.loc 2 948 0
	stw 26,1900(11)
	.loc 2 950 0
	lbz 0,1896(11)
	lwz 8,1332(10)
	cmpwi 7,0,0
	beq- 7,.L179
	.loc 2 935 0
	addi 9,9,1
.LVL492:
	.loc 2 951 0
	li 4,1
.LVL493:
	.loc 2 935 0
	cmpw 7,8,9
	bgt+ 7,.L189
.LVL494:
.L182:
	.loc 2 933 0
	addi 6,6,1
.LVL495:
	lwzu 10,4(5)
.LVL496:
	cmpw 7,6,30
	blt+ 7,.L178
.LVL497:
	.loc 2 958 0
	cmpwi 7,4,0
	bne- 7,.L196
.LVL498:
	.loc 2 959 0 discriminator 1
	cmpwi 7,30,0
	addi 24,27,-4
	li 25,0
	ble- 7,.L196
.LVL499:
.L183:
	.loc 2 960 0 discriminator 2
	lis 9,.LC14@ha
	lwzu 4,4(24)
	lfs 1,.LC14@l(9)
	mr 3,29
	mr 5,23
	addi 6,31,8
	mr 7,22
	.loc 2 959 0 discriminator 2
	addi 25,25,1
	.loc 2 960 0 discriminator 2
	bl _ZN17idBrittleFracture9DropShardEP7shard_sRK6idVec3S4_fi
.LVL500:
	.loc 2 959 0 discriminator 2
	cmpw 7,25,30
	bne+ 7,.L183
.LVL501:
.L196:
	lwz 0,760(29)
	.loc 2 913 0
	addi 28,28,1
.LVL502:
	cmpw 7,0,28
	bgt+ 7,.L184
.LVL503:
.L174:
.LBE3546:
	.loc 2 964 0
	addi 11,31,72
	lwz 0,4(11)
	lwz 22,-40(11)
.LVL504:
	mtlr 0
	lwz 23,-36(11)
.LVL505:
	lwz 24,-32(11)
	lwz 25,-28(11)
	lwz 26,-24(11)
	lwz 27,-20(11)
.LVL506:
	lwz 28,-16(11)
	lwz 29,-12(11)
.LVL507:
	lwz 30,-8(11)
	lwz 31,-4(11)
.LCFI35:
	.cfi_def_cfa 11, 0
	mr 1,11
.LCFI36:
	.cfi_def_cfa_register 1
	.cfi_restore 31
	.cfi_restore 30
	.cfi_restore 29
	.cfi_restore 28
	.cfi_restore 27
	.cfi_restore 26
	.cfi_restore 25
	.cfi_restore 24
	.cfi_restore 23
	.cfi_restore 22
	blr
	.cfi_endproc
.LFE2840:
	.size	_ZN17idBrittleFracture19DropFloatingIslandsERK6idVec3S2_i, .-_ZN17idBrittleFracture19DropFloatingIslandsERK6idVec3S2_i
	.align 2
	.globl _ZN17idBrittleFracture5BreakEv
	.type	_ZN17idBrittleFracture5BreakEv, @function
_ZN17idBrittleFracture5BreakEv:
.LFB2841:
	.loc 2 971 0
	.cfi_startproc
.LVL508:
	mflr 0
	stwu 1,-8(1)
.LCFI37:
	.cfi_def_cfa_offset 8
	.cfi_register 65, 0
	.loc 2 972 0
	li 9,0
	.loc 2 973 0
	li 4,6144
	li 5,-1
	.loc 2 971 0
	stw 0,12(1)
	.loc 2 972 0
	lwz 0,192(3)
	.cfi_offset 65, 4
	rlwimi 0,9,29,2,2
	stw 0,192(3)
	.loc 2 973 0
	addi 3,3,716
.LVL509:
	bl _ZN21idPhysics_StaticMulti11SetContentsEii
.LVL510:
	.loc 2 974 0
	lwz 0,12(1)
	addi 1,1,8
.LCFI38:
	.cfi_def_cfa_offset 0
	mtlr 0
	blr
	.cfi_endproc
.LFE2841:
	.size	_ZN17idBrittleFracture5BreakEv, .-_ZN17idBrittleFracture5BreakEv
	.align 2
	.globl _ZN17idBrittleFracture14Event_ActivateEP8idEntity
	.type	_ZN17idBrittleFracture14Event_ActivateEP8idEntity, @function
_ZN17idBrittleFracture14Event_ActivateEP8idEntity:
.LFB2848:
	.loc 2 1213 0
	.cfi_startproc
.LVL511:
	.loc 2 1215 0
	lwz 0,188(3)
	cmpwi 7,0,0
	.loc 2 1214 0
	li 0,0
	stb 0,800(3)
	.loc 2 1215 0
	bgtlr+ 7
	.loc 2 1218 0
	.loc 2 1216 0
	b _ZN17idBrittleFracture5BreakEv
.LVL512:
.LVL513:
	.cfi_endproc
.LFE2848:
	.size	_ZN17idBrittleFracture14Event_ActivateEP8idEntity, .-_ZN17idBrittleFracture14Event_ActivateEP8idEntity
	.align 2
	.globl _ZN17idBrittleFracture6KilledEP8idEntityS1_iRK6idVec3i
	.type	_ZN17idBrittleFracture6KilledEP8idEntityS1_iRK6idVec3i, @function
_ZN17idBrittleFracture6KilledEP8idEntityS1_iRK6idVec3i:
.LFB2843:
	.loc 2 990 0
	.cfi_startproc
.LVL514:
	mflr 0
	stwu 1,-16(1)
.LCFI39:
	.cfi_def_cfa_offset 16
	.cfi_register 65, 0
	stw 31,12(1)
	mr 31,3
	.cfi_offset 31, -4
	stw 0,20(1)
	.loc 2 991 0
	lbz 0,800(3)
	.cfi_offset 65, 4
	cmpwi 7,0,0
	beq- 7,.L202
	.loc 2 995 0
	lwz 0,20(1)
	lwz 31,12(1)
	mtlr 0
	addi 1,1,16
	.cfi_remember_state
.LCFI40:
	.cfi_def_cfa_offset 0
	.cfi_restore 31
	blr
.L202:
.LCFI41:
	.cfi_restore_state
.LVL515:
.LBB3549:
.LBB3550:
	.loc 2 992 0
	mr 4,3
.LVL516:
	bl _ZNK8idEntity15ActivateTargetsEPS_
.LVL517:
.LBE3550:
.LBE3549:
	.loc 2 995 0
	lwz 0,20(1)
.LBB3553:
.LBB3551:
	.loc 2 993 0
	mr 3,31
.LBE3551:
.LBE3553:
	.loc 2 995 0
	lwz 31,12(1)
.LVL518:
	mtlr 0
	addi 1,1,16
.LCFI42:
	.cfi_def_cfa_offset 0
	.cfi_restore 31
.LBB3554:
.LBB3552:
	.loc 2 993 0
	b _ZN17idBrittleFracture5BreakEv
.LVL519:
.LVL520:
.LBE3552:
.LBE3554:
	.cfi_endproc
.LFE2843:
	.size	_ZN17idBrittleFracture6KilledEP8idEntityS1_iRK6idVec3i, .-_ZN17idBrittleFracture6KilledEP8idEntityS1_iRK6idVec3i
	.align 2
	.globl _ZN17idBrittleFracture7ShatterERK6idVec3S2_i
	.type	_ZN17idBrittleFracture7ShatterERK6idVec3S2_i, @function
_ZN17idBrittleFracture7ShatterERK6idVec3S2_i:
.LFB2839:
	.loc 2 839 0
	.cfi_startproc
.LVL521:
	stwu 1,-224(1)
.LCFI43:
	.cfi_def_cfa_offset 224
	mflr 0
	stw 27,196(1)
.LBB3607:
.LBB3608:
	.loc 2 845 0
	lis 27,gameLocal@ha
	.cfi_offset 27, -28
	.cfi_register 65, 0
.LBE3608:
.LBE3607:
	.loc 2 839 0
	stw 28,200(1)
.LBB3669:
.LBB3634:
	.loc 2 845 0
	la 27,gameLocal@l(27)
.LBE3634:
.LBE3669:
	.loc 2 839 0
	stw 29,204(1)
.LBB3670:
.LBB3635:
	.loc 2 845 0
	addis 27,27,0x25
.LBE3635:
.LBE3670:
	.loc 2 839 0
	stw 30,208(1)
	mr 29,5
	.cfi_offset 30, -16
	.cfi_offset 29, -20
	.cfi_offset 28, -24
	stw 31,212(1)
	mr 30,4
	stw 0,228(1)
	mr 31,3
	.cfi_offset 65, 4
	.cfi_offset 31, -12
	stfd 31,216(1)
	.loc 2 839 0
	mr 28,6
.LBB3671:
.LBB3636:
	.loc 2 845 0
	lbz 0,2017(27)
	cmpwi 7,0,0
	bne- 7,.L212
	.cfi_offset 63, -8
.LBE3636:
	.loc 2 860 0
	lwz 9,2004(27)
	addi 0,9,-4999
	cmpw 7,0,28
	ble- 7,.L213
.LVL522:
.L205:
.LBB3637:
.LBB3638:
	.loc 2 982 0
	lwz 0,192(31)
.LBE3638:
.LBE3637:
	.loc 2 864 0
	andis. 9,0,8192
	bne- 0,.L214
.L206:
	.loc 2 868 0
	lwz 0,684(31)
	cmpwi 7,0,0
	bne- 7,.L215
.L207:
.LVL523:
.LBB3640:
.LBB3641:
	.loc 4 425 0
	lfs 13,4(29)
	.loc 4 424 0
	lfs 12,0(29)
.LBE3641:
.LBE3640:
.LBB3643:
.LBB3644:
	.loc 4 649 0
	fmuls 11,13,13
.LBE3644:
.LBE3643:
.LBB3654:
.LBB3642:
	.loc 4 426 0
	lfs 0,8(29)
.LVL524:
	.loc 4 649 0
	fmadds 11,12,12,11
	fmadds 11,0,0,11
	stfs 11,184(1)
.LVL525:
.LBE3642:
.LBE3654:
.LBB3655:
.LBB3651:
.LBB3645:
.LBB3646:
	.loc 7 270 0
	lwz 0,184(1)
.LVL526:
	.loc 7 276 0
	rlwinm 11,0,9,24,31
	rlwinm 9,0,19,21,29
	subfic 0,11,380
	lis 11,_ZN6idMath5iSqrtE@ha
	la 11,_ZN6idMath5iSqrtE@l(11)
	rlwinm 0,0,22,0,8
	lwzx 9,11,9
	.loc 7 275 0
	lis 11,.LC11@ha
	lfs 8,.LC11@l(11)
	.loc 7 276 0
	or 0,0,9
	.loc 7 278 0
	lis 9,.LC13@ha
	.loc 7 277 0
	stw 0,188(1)
	.loc 7 275 0
	fmuls 8,11,8
.LVL527:
	.loc 7 278 0
	lfs 9,.LC13@l(9)
	.loc 7 277 0
	lfs 11,188(1)
.LVL528:
	.loc 2 839 0
	fneg 8,8
.LVL529:
.LBE3646:
.LBE3645:
.LBE3651:
.LBE3655:
	.loc 2 875 0
	lwz 11,760(31)
.LBB3656:
.LBB3652:
.LBB3649:
.LBB3647:
	.loc 7 277 0
	fmr 10,11
.LVL530:
.LBE3647:
.LBE3649:
.LBE3652:
.LBE3656:
	.loc 2 875 0
	cmpwi 7,11,0
.LBB3657:
.LBB3653:
.LBB3650:
.LBB3648:
	.loc 7 278 0
	fmul 11,10,10
.LVL531:
	fmadd 11,8,11,9
	fmul 11,10,11
.LVL532:
	.loc 7 279 0
	fmul 31,11,11
	fmadd 31,8,31,9
.LVL533:
	fmul 31,11,31
.LVL534:
	.loc 7 280 0
	frsp 31,31
.LBE3648:
.LBE3650:
	.loc 4 653 0
	fmuls 0,0,31
	.loc 4 651 0
	fmuls 12,12,31
	.loc 4 652 0
	fmuls 13,13,31
	.loc 4 653 0
	stfs 0,16(1)
	.loc 4 654 0
	lfs 0,184(1)
	.loc 4 651 0
	stfs 12,8(1)
	.loc 4 652 0
	stfs 13,12(1)
	.loc 4 654 0
	fmuls 31,0,31
.LVL535:
.LBE3653:
.LBE3657:
	.loc 2 875 0
	ble- 7,.L208
	li 27,0
	b .L210
.LVL536:
.L209:
	cmpw 7,11,27
	ble- 7,.L208
.LVL537:
.L210:
	.loc 2 876 0
	lwz 9,772(31)
	slwi 0,27,2
	.loc 2 875 0
	addi 27,27,1
.LVL538:
	.loc 2 876 0
	lwzx 4,9,0
.LVL539:
	.loc 2 878 0
	lwz 0,1892(4)
.LVL540:
	cmpwi 7,0,-1
	bne+ 7,.L209
	.loc 2 882 0
	lwz 9,0(4)
.LVL541:
.LBB3658:
.LBB3659:
	.loc 4 431 0
	lfs 0,4(30)
	lfs 13,20(9)
	lfs 12,16(9)
	fsubs 13,13,0
	lfs 0,0(30)
	lfs 10,24(9)
	fsubs 12,12,0
	lfs 0,8(30)
.LBE3659:
.LBE3658:
.LBB3661:
.LBB3662:
	.loc 4 636 0
	fmuls 11,13,13
.LBE3662:
.LBE3661:
	.loc 2 882 0
	lfs 13,652(31)
.LBB3663:
.LBB3660:
	.loc 4 431 0
	fsubs 0,10,0
.LVL542:
.LBE3660:
.LBE3663:
.LBB3664:
.LBB3665:
	.loc 7 104 0
	fmuls 13,13,13
.LBE3665:
.LBE3664:
	.loc 4 636 0
	fmadds 12,12,12,11
.LVL543:
	fmadds 0,0,0,12
.LVL544:
	.loc 2 882 0
	fcmpu 7,0,13
	bgt+ 7,.L209
	.loc 2 886 0
	fmr 1,31
	mr 3,31
	mr 5,30
	addi 6,1,8
	mr 7,28
	bl _ZN17idBrittleFracture9DropShardEP7shard_sRK6idVec3S4_fi
.LVL545:
	lwz 11,760(31)
.LVL546:
	.loc 2 875 0
	cmpw 7,11,27
	bgt+ 7,.L210
.LVL547:
.L208:
	.loc 2 889 0
	mr 3,31
	mr 4,30
	mr 5,29
	mr 6,28
	bl _ZN17idBrittleFracture19DropFloatingIslandsERK6idVec3S2_i
.LBE3671:
	.loc 2 890 0
	lwz 0,228(1)
	lwz 27,196(1)
	mtlr 0
	lwz 28,200(1)
.LVL548:
	lwz 29,204(1)
.LVL549:
	lwz 30,208(1)
.LVL550:
	lwz 31,212(1)
.LVL551:
	lfd 31,216(1)
	addi 1,1,224
	.cfi_remember_state
.LCFI44:
	.cfi_def_cfa_offset 0
	.cfi_restore 63
	.cfi_restore 31
	.cfi_restore 30
	.cfi_restore 29
	.cfi_restore 28
	.cfi_restore 27
	blr
.LVL552:
.L212:
.LCFI45:
	.cfi_restore_state
.LBB3672:
.LBB3666:
.LBB3609:
	.loc 2 846 0
	addi 3,1,20
.LVL553:
	bl _ZN8idBitMsgC1Ev
.LVL554:
.LBB3610:
.LBB3611:
	.loc 12 156 0
	addi 9,1,52
.LBE3611:
.LBE3610:
.LBB3613:
.LBB3614:
	.loc 12 300 0
	lwz 4,0(30)
.LBE3614:
.LBE3613:
.LBB3617:
.LBB3618:
	.loc 12 266 0
	li 0,0
.LBE3618:
.LBE3617:
.LBB3620:
.LBB3615:
	.loc 12 300 0
	li 5,32
	addi 3,1,20
.LVL555:
.LBE3615:
.LBE3620:
.LBB3621:
.LBB3612:
	.loc 12 156 0
	stw 9,20(1)
	.loc 12 157 0
	stw 9,24(1)
	.loc 12 158 0
	li 9,128
	stw 9,28(1)
.LVL556:
.LBE3612:
.LBE3621:
.LBB3622:
.LBB3619:
	.loc 12 266 0
	stw 0,32(1)
	.loc 12 267 0
	stb 0,49(1)
	.loc 12 268 0
	stw 0,36(1)
.LVL557:
.LBE3619:
.LBE3622:
.LBB3623:
.LBB3616:
	.loc 12 300 0
	bl _ZN8idBitMsg9WriteBitsEii
.LVL558:
.LBE3616:
.LBE3623:
.LBB3624:
.LBB3625:
	lwz 4,4(30)
	addi 3,1,20
.LVL559:
	li 5,32
	bl _ZN8idBitMsg9WriteBitsEii
.LVL560:
.LBE3625:
.LBE3624:
.LBB3626:
.LBB3627:
	lwz 4,8(30)
	addi 3,1,20
.LVL561:
	li 5,32
	bl _ZN8idBitMsg9WriteBitsEii
.LVL562:
.LBE3627:
.LBE3626:
.LBB3628:
.LBB3629:
	lwz 4,0(29)
	addi 3,1,20
.LVL563:
	li 5,32
	bl _ZN8idBitMsg9WriteBitsEii
.LVL564:
.LBE3629:
.LBE3628:
.LBB3630:
.LBB3631:
	lwz 4,4(29)
	addi 3,1,20
.LVL565:
	li 5,32
	bl _ZN8idBitMsg9WriteBitsEii
.LVL566:
.LBE3631:
.LBE3630:
.LBB3632:
.LBB3633:
	lwz 4,8(29)
	addi 3,1,20
.LVL567:
	li 5,32
	bl _ZN8idBitMsg9WriteBitsEii
.LVL568:
.LBE3633:
.LBE3632:
	.loc 2 857 0
	mr 3,31
	li 4,3
	addi 5,1,20
.LVL569:
	li 6,1
	li 7,-1
	bl _ZNK8idEntity15ServerSendEventEiPK8idBitMsgbi
.LVL570:
.LBE3609:
.LBE3666:
	.loc 2 860 0
	lwz 9,2004(27)
	addi 0,9,-4999
	cmpw 7,0,28
	bgt+ 7,.L205
.LVL571:
.L213:
	.loc 2 861 0
	lis 4,.LC16@ha
	mr 3,31
	la 4,.LC16@l(4)
	li 5,0
	li 6,0
	li 7,0
	li 8,0
	bl _ZN8idEntity10StartSoundEPKciibPi
.LVL572:
.LBB3667:
.LBB3639:
	.loc 2 982 0
	lwz 0,192(31)
.LBE3639:
.LBE3667:
	.loc 2 864 0
	andis. 9,0,8192
	beq+ 0,.L206
.L214:
	.loc 2 865 0
	mr 3,31
	bl _ZN17idBrittleFracture5BreakEv
	.loc 2 868 0
	lwz 0,684(31)
	cmpwi 7,0,0
	beq+ 7,.L207
.L215:
.LVL573:
	.loc 2 869 0
	mr 3,31
.LBB3668:
	.loc 2 1290 0
	lwz 27,688(31)
.LBE3668:
	.loc 2 869 0
	bl _ZNK8idEntity10GetPhysicsEv
	li 4,0
	lwz 9,0(3)
	lwz 0,136(9)
	mtctr 0
	bctrl
	mr 4,30
	mr 5,3
	mr 6,31
	mr 3,27
	li 7,1
	bl _ZN10idEntityFx7StartFxEPKcPK6idVec3PK6idMat3P8idEntityb
	b .L207
.LBE3672:
	.cfi_endproc
.LFE2839:
	.size	_ZN17idBrittleFracture7ShatterERK6idVec3S2_i, .-_ZN17idBrittleFracture7ShatterERK6idVec3S2_i
	.align 2
	.globl _ZN17idBrittleFracture11Event_TouchEP8idEntityP7trace_s
	.type	_ZN17idBrittleFracture11Event_TouchEP8idEntityP7trace_s, @function
_ZN17idBrittleFracture11Event_TouchEP8idEntityP7trace_s:
.LFB2849:
	.loc 2 1225 0
	.cfi_startproc
.LVL574:
	mflr 0
	stwu 1,-56(1)
.LCFI46:
	.cfi_def_cfa_offset 56
	.cfi_register 65, 0
	stw 30,48(1)
	mr 30,4
	.cfi_offset 30, -8
	stw 31,52(1)
	mr 31,3
	.cfi_offset 31, -4
.LVL575:
	stw 0,60(1)
	stw 29,44(1)
.LBB3689:
.LBB3690:
.LBB3691:
	.loc 2 982 0
	lwz 0,192(3)
	.cfi_offset 29, -12
	.cfi_offset 65, 4
.LBE3691:
.LBE3690:
	.loc 2 1228 0
	andis. 9,0,8192
	bne- 0,.L216
	.loc 2 1232 0
	lwz 0,104(5)
	cmpwi 7,0,0
	blt- 7,.L216
	.loc 2 1232 0 is_stmt 0 discriminator 2
	lwz 9,760(3)
	cmpw 7,0,9
	bge- 7,.L216
.LVL576:
.LBE3689:
.LBB3692:
.LBB3693:
	.loc 2 1236 0 is_stmt 1
	lwz 9,772(3)
	slwi 0,0,2
	.loc 2 1237 0
	mr 3,4
.LVL577:
	.loc 2 1236 0
	lwzx 9,9,0
	lwz 9,0(9)
.LVL578:
.LBB3694:
.LBB3695:
	.loc 4 424 0
	lwz 10,16(9)
	.loc 4 425 0
	lwz 11,20(9)
	.loc 4 426 0
	lwz 0,24(9)
.LVL579:
	.loc 4 424 0
	stw 10,20(1)
	.loc 4 425 0
	stw 11,24(1)
	.loc 4 426 0
	stw 0,28(1)
.LBE3695:
.LBE3694:
	.loc 2 1237 0
	bl _ZNK8idEntity10GetPhysicsEv
.LVL580:
	lwz 9,0(3)
	li 4,0
	lwz 0,148(9)
	mtctr 0
	bctrl
	mr 29,3
	mr 3,30
	bl _ZNK8idEntity10GetPhysicsEv
	li 4,-1
	lwz 9,0(3)
	lwz 0,36(9)
	mtctr 0
	bctrl
.LVL581:
.LBB3696:
.LBB3697:
	.loc 4 439 0
	lfs 12,0(29)
	lfs 13,4(29)
.LBE3697:
.LBE3696:
	.loc 2 1239 0
	lis 9,gameLocal+2426836@ha
.LBB3702:
.LBB3698:
	.loc 4 439 0
	lfs 0,8(29)
.LBE3698:
.LBE3702:
	.loc 2 1239 0
	mr 3,31
.LBB3703:
.LBB3699:
	.loc 4 439 0
	fmuls 13,1,13
.LBE3699:
.LBE3703:
	.loc 2 1239 0
	lwz 6,gameLocal+2426836@l(9)
.LBB3704:
.LBB3700:
	.loc 4 439 0
	fmuls 0,1,0
.LVL582:
.LBE3700:
.LBE3704:
	.loc 2 1239 0
	addi 4,1,20
.LBB3705:
.LBB3701:
	.loc 4 439 0
	fmuls 1,1,12
.LVL583:
.LBE3701:
.LBE3705:
	.loc 2 1239 0
	addi 5,1,8
.LBB3706:
.LBB3707:
	.loc 4 425 0
	stfs 13,12(1)
	.loc 4 426 0
	stfs 0,16(1)
	.loc 4 424 0
	stfs 1,8(1)
.LBE3707:
.LBE3706:
	.loc 2 1239 0
	bl _ZN17idBrittleFracture7ShatterERK6idVec3S2_i
.LVL584:
.L216:
.LBE3693:
.LBE3692:
	.loc 2 1240 0
	lwz 0,60(1)
	lwz 29,44(1)
	mtlr 0
	lwz 30,48(1)
.LVL585:
	lwz 31,52(1)
.LVL586:
	addi 1,1,56
.LCFI47:
	.cfi_def_cfa_offset 0
	.cfi_restore 31
	.cfi_restore 30
	.cfi_restore 29
	blr
	.cfi_endproc
.LFE2849:
	.size	_ZN17idBrittleFracture11Event_TouchEP8idEntityP7trace_s, .-_ZN17idBrittleFracture11Event_TouchEP8idEntityP7trace_s
	.align 2
	.globl _ZN17idBrittleFracture8AddForceEP8idEntityiRK6idVec3S4_
	.type	_ZN17idBrittleFracture8AddForceEP8idEntityiRK6idVec3S4_, @function
_ZN17idBrittleFracture8AddForceEP8idEntityiRK6idVec3S4_:
.LFB2836:
	.loc 2 656 0
	.cfi_startproc
.LVL587:
	mflr 0
	stwu 1,-8(1)
.LCFI48:
	.cfi_def_cfa_offset 8
	.cfi_register 65, 0
	mr 9,3
	stw 0,12(1)
	.loc 2 658 0
	mr. 0,5
	.cfi_offset 65, 4
	.loc 2 656 0
	mr 5,6
.LVL588:
	.loc 2 658 0
	blt- 0,.L219
.LVL589:
	.loc 2 658 0 is_stmt 0 discriminator 2
	lwz 11,760(3)
	cmpw 7,0,11
	bge- 7,.L219
.LVL590:
	.loc 2 662 0 is_stmt 1
	lwz 11,772(3)
	slwi 0,0,2
.LVL591:
	lwzx 11,11,0
	lwz 0,1892(11)
	cmpwi 7,0,-1
	bne- 7,.L226
	.loc 2 664 0
	lwz 0,188(9)
	cmpwi 7,0,0
	ble- 7,.L227
.L219:
	.loc 2 667 0
	lwz 0,12(1)
	addi 1,1,8
	.cfi_remember_state
.LCFI49:
	.cfi_def_cfa_offset 0
	mtlr 0
	blr
.L226:
.LCFI50:
	.cfi_restore_state
	.loc 2 663 0
	addi 3,11,1348
.LVL592:
	li 4,0
.LVL593:
	mr 6,7
	bl _ZN19idPhysics_RigidBody8AddForceEiRK6idVec3S2_
.LVL594:
	.loc 2 667 0
	lwz 0,12(1)
	addi 1,1,8
	.cfi_remember_state
.LCFI51:
	.cfi_def_cfa_offset 0
	mtlr 0
	blr
.LVL595:
.L227:
.LCFI52:
	.cfi_restore_state
	.loc 2 664 0 discriminator 1
	lbz 0,800(9)
	cmpwi 7,0,0
	bne+ 7,.L219
.LVL596:
	.loc 2 667 0
	lwz 0,12(1)
.LBB3718:
.LBB3719:
	.loc 2 665 0
	lis 9,gameLocal+2426836@ha
	lwz 6,gameLocal+2426836@l(9)
	mr 4,5
.LVL597:
.LBE3719:
.LBE3718:
	.loc 2 667 0
	mtlr 0
.LBB3722:
.LBB3720:
	.loc 2 665 0
	mr 5,7
.LVL598:
.LBE3720:
.LBE3722:
	.loc 2 667 0
	addi 1,1,8
.LCFI53:
	.cfi_def_cfa_offset 0
.LBB3723:
.LBB3721:
	.loc 2 665 0
	b _ZN17idBrittleFracture7ShatterERK6idVec3S2_i
.LVL599:
.LVL600:
.LVL601:
.LVL602:
.LBE3721:
.LBE3723:
	.cfi_endproc
.LFE2836:
	.size	_ZN17idBrittleFracture8AddForceEP8idEntityiRK6idVec3S4_, .-_ZN17idBrittleFracture8AddForceEP8idEntityiRK6idVec3S4_
	.align 2
	.globl _ZN17idBrittleFracture12ApplyImpulseEP8idEntityiRK6idVec3S4_
	.type	_ZN17idBrittleFracture12ApplyImpulseEP8idEntityiRK6idVec3S4_, @function
_ZN17idBrittleFracture12ApplyImpulseEP8idEntityiRK6idVec3S4_:
.LFB2835:
	.loc 2 638 0
	.cfi_startproc
.LVL603:
	mflr 0
	stwu 1,-8(1)
.LCFI54:
	.cfi_def_cfa_offset 8
	.cfi_register 65, 0
	mr 9,3
	stw 0,12(1)
	.loc 2 640 0
	mr. 0,5
	.cfi_offset 65, 4
	.loc 2 638 0
	mr 5,6
.LVL604:
	.loc 2 640 0
	blt- 0,.L228
.LVL605:
	.loc 2 640 0 is_stmt 0 discriminator 2
	lwz 11,760(3)
	cmpw 7,0,11
	bge- 7,.L228
.LVL606:
	.loc 2 644 0 is_stmt 1
	lwz 11,772(3)
	slwi 0,0,2
.LVL607:
	lwzx 11,11,0
	lwz 0,1892(11)
	cmpwi 7,0,-1
	bne- 7,.L235
	.loc 2 646 0
	lwz 0,188(9)
	cmpwi 7,0,0
	ble- 7,.L236
.L228:
	.loc 2 649 0
	lwz 0,12(1)
	addi 1,1,8
	.cfi_remember_state
.LCFI55:
	.cfi_def_cfa_offset 0
	mtlr 0
	blr
.L235:
.LCFI56:
	.cfi_restore_state
	.loc 2 645 0
	addi 3,11,1348
.LVL608:
	li 4,0
.LVL609:
	mr 6,7
	bl _ZN19idPhysics_RigidBody12ApplyImpulseEiRK6idVec3S2_
.LVL610:
	.loc 2 649 0
	lwz 0,12(1)
	addi 1,1,8
	.cfi_remember_state
.LCFI57:
	.cfi_def_cfa_offset 0
	mtlr 0
	blr
.LVL611:
.L236:
.LCFI58:
	.cfi_restore_state
	.loc 2 646 0 discriminator 1
	lbz 0,800(9)
	cmpwi 7,0,0
	bne+ 7,.L228
.LVL612:
	.loc 2 649 0
	lwz 0,12(1)
.LBB3734:
.LBB3735:
	.loc 2 647 0
	lis 9,gameLocal+2426836@ha
	lwz 6,gameLocal+2426836@l(9)
	mr 4,5
.LVL613:
.LBE3735:
.LBE3734:
	.loc 2 649 0
	mtlr 0
.LBB3738:
.LBB3736:
	.loc 2 647 0
	mr 5,7
.LVL614:
.LBE3736:
.LBE3738:
	.loc 2 649 0
	addi 1,1,8
.LCFI59:
	.cfi_def_cfa_offset 0
.LBB3739:
.LBB3737:
	.loc 2 647 0
	b _ZN17idBrittleFracture7ShatterERK6idVec3S2_i
.LVL615:
.LVL616:
.LVL617:
.LVL618:
.LBE3737:
.LBE3739:
	.cfi_endproc
.LFE2835:
	.size	_ZN17idBrittleFracture12ApplyImpulseEP8idEntityiRK6idVec3S4_, .-_ZN17idBrittleFracture12ApplyImpulseEP8idEntityiRK6idVec3S4_
	.align 2
	.globl _ZN17idBrittleFracture18ClientReceiveEventEiiRK8idBitMsg
	.type	_ZN17idBrittleFracture18ClientReceiveEventEiiRK8idBitMsg, @function
_ZN17idBrittleFracture18ClientReceiveEventEiiRK8idBitMsg:
.LFB2851:
	.loc 2 1261 0
	.cfi_startproc
.LVL619:
.LBB3777:
	.loc 2 1264 0
	cmpwi 7,4,2
.LBE3777:
	.loc 2 1261 0
	mflr 0
	stwu 1,-56(1)
.LCFI60:
	.cfi_def_cfa_offset 56
	.cfi_register 65, 0
	stw 29,44(1)
	mr 29,3
	.cfi_offset 29, -12
	stw 30,48(1)
	mr 30,5
	.cfi_offset 30, -8
	stw 31,52(1)
	mr 31,6
	.cfi_offset 31, -4
	stw 0,60(1)
.LBB3822:
	.loc 2 1264 0
	beq- 7,.L239
	.cfi_offset 65, 4
	cmpwi 7,4,3
	beq- 7,.L243
	.loc 2 1286 0
	bl _ZN8idEntity18ClientReceiveEventEiiRK8idBitMsg
.LVL620:
.LBE3822:
	.loc 2 1290 0
	lwz 0,60(1)
	lwz 29,44(1)
.LVL621:
	mtlr 0
	lwz 30,48(1)
.LVL622:
	lwz 31,52(1)
.LVL623:
	addi 1,1,56
	.cfi_remember_state
.LCFI61:
	.cfi_def_cfa_offset 0
	.cfi_restore 31
	.cfi_restore 30
	.cfi_restore 29
	blr
.LVL624:
.L239:
.LCFI62:
	.cfi_restore_state
.LBB3823:
.LBB3778:
.LBB3779:
	.loc 12 381 0
	mr 3,6
.LVL625:
	li 4,32
.LVL626:
	bl _ZNK8idBitMsg8ReadBitsEi
.LVL627:
.LBE3779:
.LBE3778:
.LBB3780:
.LBB3781:
	li 4,32
.LBE3781:
.LBE3780:
	.loc 2 1266 0
	stw 3,20(1)
.LVL628:
.LBB3783:
.LBB3782:
	.loc 12 381 0
	mr 3,31
.LVL629:
	bl _ZNK8idBitMsg8ReadBitsEi
.LVL630:
.LBE3782:
.LBE3783:
.LBB3784:
.LBB3785:
	li 4,32
.LBE3785:
.LBE3784:
	.loc 2 1267 0
	stw 3,24(1)
.LVL631:
.LBB3787:
.LBB3786:
	.loc 12 381 0
	mr 3,31
.LVL632:
	bl _ZNK8idBitMsg8ReadBitsEi
.LVL633:
.LBE3786:
.LBE3787:
.LBB3788:
.LBB3789:
	li 4,32
.LBE3789:
.LBE3788:
	.loc 2 1268 0
	stw 3,28(1)
.LVL634:
.LBB3791:
.LBB3790:
	.loc 12 381 0
	mr 3,31
.LVL635:
	bl _ZNK8idBitMsg8ReadBitsEi
.LVL636:
.LBE3790:
.LBE3791:
.LBB3792:
.LBB3793:
	li 4,32
.LBE3793:
.LBE3792:
	.loc 2 1269 0
	stw 3,8(1)
.LVL637:
.LBB3795:
.LBB3794:
	.loc 12 381 0
	mr 3,31
.LVL638:
	bl _ZNK8idBitMsg8ReadBitsEi
.LVL639:
.LBE3794:
.LBE3795:
.LBB3796:
.LBB3797:
	li 4,32
.LBE3797:
.LBE3796:
	.loc 2 1270 0
	stw 3,12(1)
.LVL640:
.LBB3799:
.LBB3798:
	.loc 12 381 0
	mr 3,31
.LVL641:
	bl _ZNK8idBitMsg8ReadBitsEi
.LVL642:
.LBE3798:
.LBE3799:
	.loc 2 1272 0
	addi 4,1,20
	.loc 2 1271 0
	stw 3,16(1)
	.loc 2 1272 0
	addi 5,1,8
	mr 3,29
.LVL643:
	mr 6,30
	li 7,0
	bl _ZN17idBrittleFracture12ProjectDecalERK6idVec3S2_iPKc
.LVL644:
.LBE3823:
	.loc 2 1290 0
	lwz 0,60(1)
	lwz 29,44(1)
.LVL645:
.LBB3824:
	.loc 2 1273 0
	li 3,1
.LBE3824:
	.loc 2 1290 0
	mtlr 0
	lwz 30,48(1)
.LVL646:
	lwz 31,52(1)
.LVL647:
	addi 1,1,56
	.cfi_remember_state
	.cfi_restore 29
	.cfi_restore 30
	.cfi_restore 31
.LCFI63:
	.cfi_def_cfa_offset 0
	blr
.LVL648:
.L243:
.LCFI64:
	.cfi_restore_state
.LBB3825:
.LBB3800:
.LBB3801:
	.loc 12 381 0
	mr 3,6
.LVL649:
	li 4,32
.LVL650:
	bl _ZNK8idBitMsg8ReadBitsEi
.LVL651:
.LBE3801:
.LBE3800:
.LBB3802:
.LBB3803:
	li 4,32
.LBE3803:
.LBE3802:
	.loc 2 1276 0
	stw 3,20(1)
.LVL652:
.LBB3805:
.LBB3804:
	.loc 12 381 0
	mr 3,31
.LVL653:
	bl _ZNK8idBitMsg8ReadBitsEi
.LVL654:
.LBE3804:
.LBE3805:
.LBB3806:
.LBB3807:
	li 4,32
.LBE3807:
.LBE3806:
	.loc 2 1277 0
	stw 3,24(1)
.LVL655:
.LBB3809:
.LBB3808:
	.loc 12 381 0
	mr 3,31
.LVL656:
	bl _ZNK8idBitMsg8ReadBitsEi
.LVL657:
.LBE3808:
.LBE3809:
.LBB3810:
.LBB3811:
	li 4,32
.LBE3811:
.LBE3810:
	.loc 2 1278 0
	stw 3,28(1)
.LVL658:
.LBB3813:
.LBB3812:
	.loc 12 381 0
	mr 3,31
.LVL659:
	bl _ZNK8idBitMsg8ReadBitsEi
.LVL660:
.LBE3812:
.LBE3813:
.LBB3814:
.LBB3815:
	li 4,32
.LBE3815:
.LBE3814:
	.loc 2 1279 0
	stw 3,8(1)
.LVL661:
.LBB3817:
.LBB3816:
	.loc 12 381 0
	mr 3,31
.LVL662:
	bl _ZNK8idBitMsg8ReadBitsEi
.LVL663:
.LBE3816:
.LBE3817:
.LBB3818:
.LBB3819:
	li 4,32
.LBE3819:
.LBE3818:
	.loc 2 1280 0
	stw 3,12(1)
.LVL664:
.LBB3821:
.LBB3820:
	.loc 12 381 0
	mr 3,31
.LVL665:
	bl _ZNK8idBitMsg8ReadBitsEi
.LVL666:
.LBE3820:
.LBE3821:
	.loc 2 1282 0
	addi 4,1,20
.LVL667:
	.loc 2 1281 0
	stw 3,16(1)
	.loc 2 1282 0
	addi 5,1,8
.LVL668:
	mr 3,29
.LVL669:
	mr 6,30
	bl _ZN17idBrittleFracture7ShatterERK6idVec3S2_i
.LVL670:
.LBE3825:
	.loc 2 1290 0
	lwz 0,60(1)
	lwz 29,44(1)
.LVL671:
.LBB3826:
	.loc 2 1283 0
	li 3,1
.LBE3826:
	.loc 2 1290 0
	mtlr 0
	lwz 30,48(1)
.LVL672:
	lwz 31,52(1)
.LVL673:
	addi 1,1,56
	.cfi_restore 29
	.cfi_restore 30
	.cfi_restore 31
.LCFI65:
	.cfi_def_cfa_offset 0
	blr
	.cfi_endproc
.LFE2851:
	.size	_ZN17idBrittleFracture18ClientReceiveEventEiiRK8idBitMsg, .-_ZN17idBrittleFracture18ClientReceiveEventEiiRK8idBitMsg
	.align 2
	.globl _ZNK17idBrittleFracture8IsBrokenEv
	.type	_ZNK17idBrittleFracture8IsBrokenEv, @function
_ZNK17idBrittleFracture8IsBrokenEv:
.LFB2842:
	.loc 2 981 0
	.cfi_startproc
.LVL674:
	.loc 2 982 0
	lwz 3,192(3)
.LVL675:
	.loc 2 983 0
	.loc 2 982 0
	rlwinm 3,3,3,31,31
	.loc 2 983 0
	xori 3,3,1
	blr
	.cfi_endproc
.LFE2842:
	.size	_ZNK17idBrittleFracture8IsBrokenEv, .-_ZNK17idBrittleFracture8IsBrokenEv
	.align 2
	.globl _ZN17idBrittleFracture14FindNeighboursEv
	.type	_ZN17idBrittleFracture14FindNeighboursEv, @function
_ZN17idBrittleFracture14FindNeighboursEv:
.LFB2847:
	.loc 2 1126 0
	.cfi_startproc
.LVL676:
	mflr 0
	stwu 1,-360(1)
.LCFI66:
	.cfi_def_cfa_offset 360
	.cfi_register 65, 0
	stfd 14,216(1)
	stw 0,364(1)
	stfd 15,224(1)
	stfd 16,232(1)
	stfd 17,240(1)
	stfd 18,248(1)
	stfd 19,256(1)
	stfd 20,264(1)
	stfd 21,272(1)
	stfd 22,280(1)
	stfd 23,288(1)
	stfd 24,296(1)
	stfd 25,304(1)
	stfd 26,312(1)
	stfd 27,320(1)
	stfd 28,328(1)
	stfd 29,336(1)
	stfd 30,344(1)
	stfd 31,352(1)
	stw 14,144(1)
	stw 15,148(1)
	stw 16,152(1)
	stw 17,156(1)
	stw 18,160(1)
	stw 19,164(1)
	stw 20,168(1)
	stw 21,172(1)
	stw 22,176(1)
	stw 23,180(1)
	stw 24,184(1)
	stw 25,188(1)
	stw 26,192(1)
	stw 27,196(1)
.LVL677:
	stw 28,200(1)
	mr 28,3
	.cfi_offset 28, -160
	.cfi_offset 27, -164
	.cfi_offset 26, -168
	.cfi_offset 25, -172
	.cfi_offset 24, -176
	.cfi_offset 23, -180
	.cfi_offset 22, -184
	.cfi_offset 21, -188
	.cfi_offset 20, -192
	.cfi_offset 19, -196
	.cfi_offset 18, -200
	.cfi_offset 17, -204
	.cfi_offset 16, -208
	.cfi_offset 15, -212
	.cfi_offset 14, -216
	.cfi_offset 63, -8
	.cfi_offset 62, -16
	.cfi_offset 61, -24
	.cfi_offset 60, -32
	.cfi_offset 59, -40
	.cfi_offset 58, -48
	.cfi_offset 57, -56
	.cfi_offset 56, -64
	.cfi_offset 55, -72
	.cfi_offset 54, -80
	.cfi_offset 53, -88
	.cfi_offset 52, -96
	.cfi_offset 51, -104
	.cfi_offset 50, -112
	.cfi_offset 49, -120
	.cfi_offset 48, -128
	.cfi_offset 47, -136
	.cfi_offset 65, 4
	.cfi_offset 46, -144
	stw 29,204(1)
	stw 30,208(1)
	stw 31,212(1)
.LBB3994:
.LBB3995:
	.loc 2 1132 0
	lwz 0,760(3)
	cmpwi 7,0,0
	ble- 7,.L245
	.cfi_offset 31, -148
	.cfi_offset 30, -152
	.cfi_offset 29, -156
.LBB3996:
.LBB3997:
.LBB3998:
.LBB3999:
.LBB4000:
.LBB4001:
.LBB4002:
	.loc 7 276 0
	lis 19,_ZN6idMath5iSqrtE@ha
.LBE4002:
.LBE4001:
.LBE4000:
.LBE3999:
.LBE3998:
.LBE3997:
.LBE3996:
	.loc 2 1132 0
	li 29,0
.LBB4309:
.LBB4303:
	.loc 2 1139 0
	li 17,0
.LBB4298:
.LBB4015:
.LBB4011:
.LBB4007:
.LBB4003:
	.loc 7 275 0
	lis 18,.LC11@ha
	.loc 7 276 0
	la 19,_ZN6idMath5iSqrtE@l(19)
	.loc 7 278 0
	lis 20,.LC13@ha
	lis 24,.LC17@ha
.LBE4003:
.LBE4007:
.LBE4011:
.LBE4015:
.LBB4016:
.LBB4017:
.LBB4018:
.LBB4019:
	.loc 11 333 0
	lis 30,.LC18@ha
.LBE4019:
.LBE4018:
	.loc 2 1184 0
	li 21,1
.LBB4024:
.LBB4025:
.LBB4026:
.LBB4027:
	.loc 3 663 0
	li 16,16
.LVL678:
.L298:
.LBE4027:
.LBE4026:
.LBE4025:
.LBE4024:
.LBE4017:
.LBE4016:
.LBE4298:
.LBE4303:
	.loc 2 1134 0
	lwz 9,772(28)
	slwi 0,29,2
.LBB4304:
	.loc 2 1139 0
	li 26,0
	li 25,0
.LBE4304:
	.loc 2 1134 0
	lwzx 31,9,0
.LVL679:
.LBB4305:
.LBB4299:
.LBB4165:
	.loc 2 1290 0
	lwz 0,8(31)
.LVL680:
.LBE4165:
.LBE4299:
.LBE4305:
	.loc 2 1136 0
	lwz 23,0(31)
.LVL681:
.LBB4306:
	.loc 2 1139 0
	cmpw 7,26,0
.LBE4306:
	.loc 2 1137 0
	addi 27,23,28
.LVL682:
.LBB4307:
	.loc 2 1139 0
	bge- 7,.L327
.LVL683:
.L294:
.LBB4300:
.LBB4166:
.LBB4167:
	.loc 1 204 0
	mr 22,26
.LBE4167:
.LBE4166:
	.loc 2 1142 0
	addi 26,26,1
.LVL684:
	divw 10,26,0
.LBE4300:
	.loc 2 1290 0
	lwz 9,12(31)
.LBB4301:
.LBB4169:
.LBB4170:
.LBB4171:
	.loc 5 454 0
	lfs 1,16(27)
.LBE4171:
.LBE4170:
.LBE4169:
	.loc 2 1145 0
	addi 3,1,20
.LBB4182:
.LBB4168:
	.loc 1 204 0
	add 11,9,25
.LVL685:
.LBE4168:
.LBE4182:
.LBB4183:
.LBB4177:
.LBB4172:
	.loc 5 454 0
	lfsx 11,9,25
	lfs 0,4(11)
.LBE4172:
.LBE4177:
.LBE4183:
	.loc 2 1145 0
	addi 4,1,8
.LBB4184:
.LBB4178:
.LBB4173:
	.loc 5 454 0
	lfs 13,8(11)
	fmuls 29,0,1
	lfs 3,4(27)
	lfs 2,12(27)
	lfs 5,20(27)
.LBE4173:
.LBE4178:
.LBE4184:
.LBB4185:
.LBB4186:
	fmadds 29,11,3,29
.LBE4186:
.LBE4185:
.LBB4194:
.LBB4179:
.LBB4174:
	lfs 4,0(27)
	fmuls 30,2,0
	lfs 6,28(27)
	fmuls 31,0,5
	lfs 9,8(27)
.LBE4174:
.LBE4179:
.LBE4194:
.LBB4195:
.LBB4187:
	fmadds 29,13,6,29
	.loc 4 452 0
	lfs 8,20(23)
	.loc 5 454 0
	fmadds 30,4,11,30
.LBE4187:
.LBE4195:
.LBB4196:
.LBB4180:
.LBB4175:
	lfs 7,24(27)
.LBE4175:
.LBE4180:
.LBE4196:
.LBB4197:
.LBB4188:
	fmadds 11,11,9,31
	.loc 4 452 0
	fadds 29,8,29
	.loc 5 454 0
	fmadds 30,7,13,30
.LBE4188:
.LBE4197:
	.loc 2 1142 0
	mullw 0,10,0
	subf 0,0,26
.LBB4198:
.LBB4199:
	.loc 1 204 0
	mulli 0,0,20
	add 11,9,0
.LVL686:
.LBE4199:
.LBE4198:
.LBB4200:
.LBB4201:
.LBB4202:
	.loc 5 454 0
	lfsx 12,9,0
	lfs 10,4(11)
	lfs 0,8(11)
	fmuls 1,1,10
	fmuls 2,2,10
	fmuls 10,5,10
.LBE4202:
.LBE4201:
.LBE4200:
.LBB4203:
.LBB4204:
	fmadds 3,3,12,1
	fmadds 4,4,12,2
	fmadds 12,9,12,10
.LBE4204:
.LBE4203:
.LBB4210:
.LBB4181:
.LBB4176:
	lfs 10,32(27)
.LBE4176:
.LBE4181:
.LBE4210:
.LBB4211:
.LBB4205:
	fmadds 6,6,0,3
.LBE4205:
.LBE4211:
.LBB4212:
.LBB4189:
	.loc 4 452 0
	lfs 9,16(23)
.LBE4189:
.LBE4212:
.LBB4213:
.LBB4206:
	.loc 5 454 0
	fmadds 7,7,0,4
.LBE4206:
.LBE4213:
.LBB4214:
.LBB4190:
	fmadds 13,13,10,11
.LBE4190:
.LBE4214:
.LBB4215:
.LBB4207:
	.loc 4 452 0
	fadds 26,8,6
.LVL687:
	.loc 5 454 0
	fmadds 0,10,0,12
.LBE4207:
.LBE4215:
.LBB4216:
.LBB4191:
	.loc 4 452 0
	lfs 10,24(23)
.LBE4191:
.LBE4216:
.LBB4217:
.LBB4208:
	fadds 27,9,7
.LBE4208:
.LBE4217:
.LBB4218:
.LBB4192:
	fadds 30,9,30
.LBE4192:
.LBE4218:
.LBB4219:
.LBB4012:
.LBB4008:
.LBB4004:
	.loc 7 275 0
	lfs 9,.LC11@l(18)
.LBE4004:
.LBE4008:
.LBE4012:
.LBE4219:
.LBB4220:
.LBB4221:
	.loc 4 431 0
	fsubs 12,26,29
.LBE4221:
.LBE4220:
.LBB4224:
.LBB4209:
	.loc 4 452 0
	fadds 28,10,0
.LBE4209:
.LBE4224:
.LBB4225:
.LBB4222:
	.loc 4 431 0
	fsubs 11,27,30
.LBE4222:
.LBE4225:
.LBB4226:
.LBB4193:
	.loc 4 452 0
	fadds 31,10,13
.LVL688:
.LBE4193:
.LBE4226:
.LBB4227:
.LBB4013:
.LBB4009:
.LBB4005:
	.loc 7 278 0
	lfs 10,.LC13@l(20)
.LBE4005:
.LBE4009:
	.loc 4 649 0
	fmuls 0,12,12
.LBE4013:
.LBE4227:
.LBB4228:
.LBB4223:
	.loc 4 431 0
	fsubs 13,28,31
.LVL689:
	.loc 4 649 0
	fmadds 0,11,11,0
	fmadds 0,13,13,0
	stfs 0,104(1)
.LVL690:
.LBE4223:
.LBE4228:
.LBB4229:
.LBB4014:
.LBB4010:
.LBB4006:
	.loc 7 275 0
	fmuls 9,0,9
	.loc 7 270 0
	lwz 0,104(1)
.LVL691:
	.loc 2 1126 0
	fneg 9,9
	.loc 7 276 0
	rlwinm 9,0,9,24,31
	rlwinm 0,0,19,21,29
	lwzx 0,19,0
	subfic 9,9,380
	rlwinm 9,9,22,0,8
	or 0,9,0
	.loc 7 277 0
	stw 0,136(1)
	lfs 8,136(1)
	fmr 0,8
.LVL692:
	.loc 7 278 0
	fmul 8,0,0
.LVL693:
	fmadd 8,9,8,10
	fmul 0,0,8
.LVL694:
	.loc 7 279 0
	fmul 8,0,0
	fmadd 10,9,8,10
.LVL695:
	fmul 0,0,10
.LVL696:
	.loc 7 280 0
	frsp 0,0
.LVL697:
.LBE4006:
.LBE4010:
	.loc 4 651 0
	fmuls 11,11,0
.LVL698:
	.loc 4 652 0
	fmuls 12,12,0
.LVL699:
	.loc 4 653 0
	fmuls 0,13,0
	.loc 4 651 0
	stfs 11,8(1)
	.loc 4 652 0
	stfs 12,12(1)
	.loc 4 653 0
	stfs 0,16(1)
.LBE4014:
.LBE4229:
	.loc 2 1145 0
	bl _ZNK6idVec36ToMat3Ev
.LVL700:
	li 10,0
.L248:
.LBB4230:
.LBB4231:
.LBB4232:
.LBB4233:
	.loc 4 424 0
	addi 11,1,20
.LVL701:
	addi 9,1,56
	lwzux 0,11,10
.LVL702:
.LBE4233:
.LBE4232:
	.loc 5 333 0
	cmpwi 7,10,24
.LBB4236:
.LBB4234:
	.loc 4 424 0
	stwux 0,9,10
.LBE4234:
.LBE4236:
	.loc 5 333 0
	addi 10,10,12
.LBB4237:
.LBB4235:
	.loc 4 425 0
	lwz 0,4(11)
	stw 0,4(9)
	.loc 4 426 0
	lwz 0,8(11)
	stw 0,8(9)
.LBE4235:
.LBE4237:
	.loc 5 333 0
	bne+ 7,.L248
.LVL703:
.LBE4231:
.LBE4230:
.LBB4238:
.LBB4239:
	.loc 11 235 0
	lfs 24,12(1)
.LBE4239:
.LBE4238:
.LBB4244:
.LBB4245:
	lfs 10,72(1)
.LBE4245:
.LBE4244:
.LBB4252:
.LBB4253:
	lfs 16,84(1)
.LBE4253:
.LBE4252:
.LBB4258:
.LBB4259:
.LBB4260:
	.loc 4 435 0
	fmuls 22,29,24
.LBE4260:
.LBE4259:
.LBE4258:
.LBB4261:
.LBB4262:
.LBB4263:
	fmuls 0,29,10
.LBE4263:
.LBE4262:
.LBE4261:
.LBB4264:
.LBB4240:
	.loc 11 234 0
	lfs 25,8(1)
.LVL704:
.LBE4240:
.LBE4264:
.LBB4265:
.LBB4266:
	.loc 4 420 0
	fneg 20,24
.LBE4266:
.LBE4265:
.LBB4271:
.LBB4246:
	.loc 11 234 0
	lfs 12,68(1)
.LBE4246:
.LBE4271:
.LBB4272:
.LBB4273:
.LBB4274:
	.loc 4 435 0
	fmuls 29,29,16
.LBE4274:
.LBE4273:
.LBE4272:
.LBB4275:
.LBB4254:
	.loc 11 234 0
	lfs 17,80(1)
.LBE4254:
.LBE4275:
.LBB4276:
.LBB4241:
	.loc 4 435 0
	fmadds 22,30,25,22
.LBE4241:
.LBE4276:
.LBB4277:
	.loc 2 1156 0
	lwz 4,760(28)
.LBE4277:
.LBB4278:
.LBB4247:
	.loc 4 435 0
	fmadds 0,30,12,0
.LBE4247:
.LBE4278:
.LBB4279:
.LBB4242:
	.loc 11 236 0
	lfs 23,16(1)
.LVL705:
.LBE4242:
.LBE4279:
.LBB4280:
.LBB4267:
	.loc 4 420 0
	fneg 21,25
.LBE4267:
.LBE4280:
.LBB4281:
.LBB4248:
	.loc 11 236 0
	lfs 13,76(1)
.LBE4248:
.LBE4281:
.LBB4282:
.LBB4283:
.LBB4284:
	.loc 4 435 0
	fmuls 26,26,20
.LVL706:
.LBE4284:
.LBE4283:
.LBE4282:
.LBB4285:
.LBB4255:
	.loc 11 236 0
	lfs 15,88(1)
	.loc 4 435 0
	fmadds 30,30,17,29
.LBE4255:
.LBE4285:
.LBB4286:
	.loc 2 1156 0
	cmpwi 7,4,0
.LBE4286:
.LBB4287:
.LBB4268:
	.loc 4 420 0
	fneg 19,23
.LBE4268:
.LBE4287:
.LBB4288:
.LBB4249:
	.loc 11 235 0
	stfs 10,112(1)
.LBE4249:
.LBE4288:
.LBB4289:
.LBB4269:
	.loc 4 435 0
	fmadds 27,27,21,26
.LVL707:
.LBE4269:
.LBE4289:
.LBB4290:
.LBB4250:
	.loc 11 234 0
	stfs 12,108(1)
	.loc 4 435 0
	fmadds 0,31,13,0
	.loc 11 236 0
	stfs 13,116(1)
.LBE4250:
.LBE4290:
.LBB4291:
.LBB4256:
	.loc 4 435 0
	fmadds 30,31,15,30
.LBE4256:
.LBE4291:
.LBB4292:
.LBB4243:
	fmadds 22,31,23,22
.LVL708:
.LBE4243:
.LBE4292:
.LBB4293:
.LBB4270:
	fmadds 18,28,19,27
.LVL709:
.LBE4270:
.LBE4293:
.LBB4294:
.LBB4251:
	stfs 0,120(1)
.LVL710:
.LBE4251:
.LBE4294:
.LBB4295:
.LBB4257:
	stfs 30,104(1)
.LVL711:
.LBE4257:
.LBE4295:
.LBB4296:
	.loc 2 1156 0
	ble- 7,.L249
	li 9,0
.LVL712:
.L293:
.LBB4163:
	.loc 2 1158 0
	cmpw 7,29,9
	beq- 7,.L250
.LVL713:
	.loc 2 1290 0
	lwz 6,1332(31)
	.loc 2 1162 0
	slwi 0,9,2
	lwz 11,772(28)
	.loc 2 1164 0
	cmpwi 7,6,0
	.loc 2 1162 0
	lwzx 14,11,0
.LVL714:
	.loc 2 1164 0
	ble- 7,.L251
	.loc 2 1290 0
	lwz 10,1344(31)
.LVL715:
	.loc 2 1165 0
	li 11,0
	mtctr 6
	lwz 0,0(10)
.LVL716:
	cmpw 7,14,0
	bne+ 7,.L252
	b .L250
.LVL717:
.L253:
	lwzx 0,10,0
	cmpw 7,14,0
	beq- 7,.L250
.LVL718:
.L252:
	.loc 2 1164 0
	addi 11,11,1
.LVL719:
	.loc 2 1165 0
	slwi 0,11,2
	.loc 2 1164 0
	bdnz .L253
.LVL720:
.L251:
	.loc 2 1290 0
	lwz 8,8(14)
	.loc 2 1174 0
	lwz 7,0(14)
.LVL721:
	.loc 2 1177 0
	addic. 10,8,-1
	blt- 0,.L250
	lwz 11,12(14)
	.loc 2 1126 0
	addi 15,8,-2
	.loc 2 1177 0
	lfs 26,16(7)
	mulli 10,10,20
	lfs 27,20(7)
.LBB4064:
.LBB4022:
	.loc 11 333 0
	mtctr 8
.LBE4022:
.LBE4064:
	.loc 2 1177 0
	lfs 28,24(7)
	lfs 29,28(7)
	lfs 30,40(7)
	lfs 31,52(7)
	lfs 1,32(7)
	lfs 2,44(7)
	lfs 3,56(7)
	lfs 4,36(7)
	lfs 5,48(7)
	lfs 6,60(7)
.LBB4065:
.LBB4066:
	.loc 11 330 0
	lfs 8,.LC17@l(24)
	b .L292
.LVL722:
.L254:
.LBE4066:
.LBE4065:
	.loc 2 1187 0
	addi 15,15,-1
.LVL723:
	addi 10,10,-20
	.loc 2 1177 0
	bdz .L250
.LVL724:
.L292:
	.loc 2 1126 0
	add 7,15,8
.LBB4070:
.LBB4071:
	.loc 1 204 0
	add 5,11,10
.LVL725:
.LBE4071:
.LBE4070:
	.loc 2 1179 0
	divw 0,7,8
.LBB4072:
.LBB4073:
.LBB4074:
	.loc 5 454 0
	lfsx 9,11,10
	lfs 10,4(5)
	lfs 11,8(5)
.LVL726:
.LBE4074:
.LBE4073:
.LBE4072:
	.loc 2 1179 0
	mullw 0,0,8
	subf 0,0,7
.LBB4077:
.LBB4078:
	.loc 1 204 0
	mulli 0,0,20
	add 7,11,0
.LVL727:
.LBE4078:
.LBE4077:
.LBB4079:
.LBB4080:
.LBB4081:
	.loc 5 454 0
	lfsx 13,11,0
	lfs 12,4(7)
	lfs 0,8(7)
.LVL728:
	fmuls 14,2,12
	fmuls 7,30,12
	fmuls 12,5,12
.LBE4081:
.LBE4080:
.LBE4079:
.LBB4082:
.LBB4083:
	fmadds 14,1,13,14
	fmadds 7,29,13,7
	fmadds 12,4,13,12
	fmadds 14,3,0,14
	fmadds 7,31,0,7
	fmadds 0,6,0,12
	.loc 4 452 0
	fadds 14,27,14
	fadds 7,26,7
	fadds 0,28,0
.LVL729:
.LBE4083:
.LBE4082:
.LBB4084:
.LBB4069:
.LBB4067:
.LBB4068:
	.loc 11 325 0
	fmuls 13,24,14
	fmadds 13,25,7,13
	fmadds 13,23,0,13
	fsubs 13,13,22
.LBE4068:
.LBE4067:
	.loc 11 330 0
	fcmpu 7,13,8
	bng+ 7,.L254
.LBE4069:
.LBE4084:
.LBB4085:
.LBB4076:
.LBB4075:
	.loc 5 454 0
	fmuls 12,1,9
	fmuls 13,29,9
	fmuls 9,4,9
.LBE4075:
.LBE4076:
.LBE4085:
.LBB4086:
.LBB4087:
	fmadds 12,2,10,12
	fmadds 13,30,10,13
	fmadds 9,5,10,9
	fmadds 12,3,11,12
	fmadds 13,31,11,13
	fmadds 11,6,11,9
	.loc 4 452 0
	fadds 12,27,12
	fadds 13,26,13
	fadds 11,28,11
.LVL730:
.LBE4087:
.LBE4086:
.LBB4088:
.LBB4089:
.LBB4090:
.LBB4091:
	.loc 11 325 0
	fmuls 10,20,12
	fmadds 10,21,13,10
	fmadds 10,19,11,10
	fsubs 10,10,18
.LBE4091:
.LBE4090:
	.loc 11 330 0
	fcmpu 7,10,8
	bng+ 7,.L254
.LVL731:
.LBE4089:
.LBE4088:
.LBB4092:
.LBB4023:
.LBB4020:
.LBB4021:
	.loc 11 325 0 discriminator 4
	lfs 10,112(1)
	fmuls 9,10,12
	lfs 10,108(1)
	fmadds 9,10,13,9
	lfs 10,116(1)
	fmadds 9,10,11,9
	lfs 10,120(1)
	fsubs 9,9,10
.LBE4021:
.LBE4020:
	.loc 11 330 0 discriminator 4
	fcmpu 7,9,8
	bgt- 7,.L254
	.loc 11 333 0
	lfs 10,.LC18@l(30)
	fcmpu 7,9,10
	blt- 7,.L254
.LVL732:
.LBE4023:
.LBE4092:
.LBB4093:
.LBB4094:
.LBB4095:
.LBB4096:
	.loc 11 325 0
	fmuls 12,16,12
	fmadds 12,17,13,12
	lfs 13,104(1)
	fmadds 12,15,11,12
	fsubs 12,12,13
.LBE4096:
.LBE4095:
	.loc 11 330 0
	fcmpu 7,12,8
	bgt- 7,.L254
	.loc 11 333 0
	fcmpu 7,12,10
	blt- 7,.L254
.LVL733:
.LBE4094:
.LBE4093:
.LBB4097:
.LBB4098:
.LBB4099:
.LBB4100:
	.loc 11 325 0 discriminator 4
	lfs 12,112(1)
	fmuls 13,12,14
	lfs 12,108(1)
	fmadds 13,12,7,13
	lfs 12,116(1)
	fmadds 13,12,0,13
	lfs 12,120(1)
	fsubs 13,13,12
.LBE4100:
.LBE4099:
	.loc 11 330 0 discriminator 4
	fcmpu 7,13,8
	bgt- 7,.L254
	.loc 11 333 0
	fcmpu 7,13,10
	blt- 7,.L254
.LVL734:
.LBE4098:
.LBE4097:
.LBB4101:
.LBB4102:
.LBB4103:
.LBB4104:
	.loc 11 325 0
	fmuls 14,16,14
.LVL735:
	lfs 12,104(1)
	fmadds 7,17,7,14
.LVL736:
	fmadds 0,15,0,7
.LVL737:
	fsubs 0,0,12
.LBE4104:
.LBE4103:
	.loc 11 330 0
	fcmpu 7,0,8
	bgt- 7,.L254
	.loc 11 333 0
	fcmpu 7,0,10
	blt- 7,.L254
.LBE4102:
.LBE4101:
.LBB4105:
.LBB4106:
	.loc 3 655 0
	lwz 11,1344(31)
.LBE4106:
.LBE4105:
	.loc 2 1183 0
	addi 10,31,1332
.LVL738:
.LBB4148:
.LBB4139:
	.loc 3 655 0
	cmpwi 7,11,0
	beq- 7,.L259
.LVL739:
.L324:
.LBB4107:
.LBB4108:
	.loc 3 393 0
	lwz 0,1336(31)
.L260:
.LBE4108:
.LBE4107:
.LBB4113:
	.loc 3 659 0
	cmpw 7,6,0
	beq- 7,.L302
.L325:
.LBB4114:
.LBB4115:
.LBB4116:
	.loc 3 380 0
	slwi 6,6,2
	add 11,11,6
.L266:
.LBE4116:
.LBE4115:
.LBE4114:
.LBE4113:
	.loc 3 669 0
	stw 14,0(11)
.LBE4139:
.LBE4148:
	.loc 2 1185 0
	addi 10,14,1332
.LBB4149:
.LBB4140:
	.loc 3 670 0
	lwz 8,1332(31)
.LBE4140:
.LBE4149:
	.loc 2 1184 0
	lwz 11,1328(31)
.LBB4150:
.LBB4141:
	.loc 3 670 0
	addi 0,8,1
	stw 0,1332(31)
.LVL740:
.LBE4141:
.LBE4150:
	.loc 2 1184 0
	stbx 21,11,22
.LBB4151:
.LBB4058:
	.loc 3 655 0
	lwz 11,1344(14)
	cmpwi 7,11,0
	beq- 7,.L275
.L333:
	lwz 0,1332(14)
	lwz 8,1336(14)
.LVL741:
.L276:
.LBB4044:
	.loc 3 659 0
	cmpw 7,8,0
	beq- 7,.L304
.L326:
.LBB4040:
.LBB4028:
.LBB4029:
	.loc 3 398 0
	slwi 0,0,2
	add 11,11,0
.L283:
.LBE4029:
.LBE4028:
.LBE4040:
.LBE4044:
	.loc 3 669 0
	stw 31,0(11)
	.loc 2 1290 0
	lwz 0,8(14)
.LVL742:
	.loc 3 670 0
	lwz 8,1332(14)
.LBE4058:
.LBE4151:
	.loc 2 1186 0
	add 15,0,15
.LVL743:
	lwz 11,1328(14)
	divw 10,15,0
.LBB4152:
.LBB4059:
	.loc 3 670 0
	addi 8,8,1
	stw 8,1332(14)
.LBE4059:
.LBE4152:
	.loc 2 1186 0
	mullw 0,10,0
	subf 15,0,15
	stbx 21,11,15
	lwz 4,760(28)
.LVL744:
.L250:
.LBE4163:
	.loc 2 1156 0
	addi 9,9,1
.LVL745:
	cmpw 7,4,9
	bgt+ 7,.L293
.LVL746:
.L249:
	.loc 2 1290 0
	lwz 0,8(31)
	.loc 2 1156 0
	addi 25,25,20
.LVL747:
.LBE4296:
.LBE4301:
	.loc 2 1139 0
	cmpw 7,26,0
	blt+ 7,.L294
.LVL748:
.L327:
.LBE4307:
	.loc 2 1195 0
	cmpwi 7,0,0
	cmpw 6,17,0
	ble- 7,.L295
	.loc 2 1290 0
	lwz 10,1328(31)
.LVL749:
	.loc 2 1196 0
	lbz 9,0(10)
	cmpwi 7,9,0
	beq- 7,.L295
	li 9,0
	mtctr 0
	b .L296
.LVL750:
.L297:
	lbzx 11,10,9
	cmpwi 7,11,0
	beq- 7,.L295
.LVL751:
.L296:
	.loc 2 1195 0
	addi 9,9,1
.LVL752:
	cmpw 6,9,0
	bdnz .L297
.LVL753:
.L295:
	.loc 2 1126 0
	mfcr 0
	rlwinm 0,0,25,1
.LBE4309:
	.loc 2 1132 0
	addi 29,29,1
.LVL754:
.LBB4310:
	.loc 2 1126 0
	stb 0,1896(31)
.LBE4310:
	.loc 2 1132 0
	lwz 0,760(28)
	cmpw 7,0,29
	bgt+ 7,.L298
.LVL755:
.L245:
.LBE3995:
.LBE3994:
	.loc 2 1206 0
	lwz 0,364(1)
	lwz 14,144(1)
	mtlr 0
	lwz 15,148(1)
	lwz 16,152(1)
	lwz 17,156(1)
	lwz 18,160(1)
	lwz 19,164(1)
	lwz 20,168(1)
	lwz 21,172(1)
	lwz 22,176(1)
	lwz 23,180(1)
	lwz 24,184(1)
	lwz 25,188(1)
	lwz 26,192(1)
	lwz 27,196(1)
	lwz 28,200(1)
.LVL756:
	lwz 29,204(1)
	lwz 30,208(1)
	lwz 31,212(1)
	lfd 14,216(1)
	lfd 15,224(1)
	lfd 16,232(1)
	lfd 17,240(1)
	lfd 18,248(1)
	lfd 19,256(1)
	lfd 20,264(1)
	lfd 21,272(1)
	lfd 22,280(1)
	lfd 23,288(1)
	lfd 24,296(1)
	lfd 25,304(1)
	lfd 26,312(1)
	lfd 27,320(1)
	lfd 28,328(1)
	lfd 29,336(1)
	lfd 30,344(1)
	lfd 31,352(1)
	addi 1,1,360
	.cfi_remember_state
.LCFI67:
	.cfi_def_cfa_offset 0
	.cfi_restore 63
	.cfi_restore 62
	.cfi_restore 61
	.cfi_restore 60
	.cfi_restore 59
	.cfi_restore 58
	.cfi_restore 57
	.cfi_restore 56
	.cfi_restore 55
	.cfi_restore 54
	.cfi_restore 53
	.cfi_restore 52
	.cfi_restore 51
	.cfi_restore 50
	.cfi_restore 49
	.cfi_restore 48
	.cfi_restore 47
	.cfi_restore 46
	.cfi_restore 31
	.cfi_restore 30
	.cfi_restore 29
	.cfi_restore 28
	.cfi_restore 27
	.cfi_restore 26
	.cfi_restore 25
	.cfi_restore 24
	.cfi_restore 23
	.cfi_restore 22
	.cfi_restore 21
	.cfi_restore 20
	.cfi_restore 19
	.cfi_restore 18
	.cfi_restore 17
	.cfi_restore 16
	.cfi_restore 15
	.cfi_restore 14
	blr
.LVL757:
.L259:
.LCFI68:
	.cfi_restore_state
.LBB4313:
.LBB4312:
.LBB4311:
.LBB4308:
.LBB4302:
.LBB4297:
.LBB4164:
.LBB4153:
.LBB4142:
	.loc 3 656 0
	lwz 3,1340(31)
.LVL758:
.LBB4133:
.LBB4111:
	.loc 3 375 0
	cmpwi 7,3,0
	ble- 7,.L328
	.loc 3 380 0
	lwz 0,1336(31)
	cmpw 7,3,0
	beq- 7,.L260
.LVL759:
	.loc 3 387 0
	cmpw 7,6,3
	.loc 3 386 0
	stw 3,1336(31)
	.loc 3 387 0
	ble- 7,.L263
	.loc 3 388 0
	stw 3,1332(31)
.L263:
	.loc 3 392 0
	slwi 3,3,2
	stw 9,132(1)
	stw 10,128(1)
	bl _Znaj
.LVL760:
	.loc 3 393 0
	lwz 6,1332(31)
	.loc 3 392 0
	mr 11,3
	stw 3,1344(31)
.LVL761:
	.loc 3 393 0
	li 8,0
	cmpwi 7,6,0
	li 7,0
	lwz 9,132(1)
	lwz 10,128(1)
	bgt+ 7,.L313
	b .L324
.LVL762:
.L329:
	lwz 11,1344(31)
.LVL763:
.L313:
	.loc 3 394 0
	lwz 0,0(8)
	.loc 3 393 0
	addi 7,7,1
.LVL764:
	.loc 3 394 0
	stwx 0,11,8
	.loc 3 393 0
	addi 8,8,4
	lwz 6,0(10)
	cmpw 7,7,6
	blt+ 7,.L329
	lwz 0,1336(31)
	lwz 11,1344(31)
.LBE4111:
.LBE4133:
.LBB4134:
	.loc 3 659 0
	cmpw 7,6,0
	bne+ 7,.L325
.LVL765:
.L302:
	lwz 3,1340(31)
	mr 8,6
.L262:
.LBB4129:
	.loc 3 662 0
	cmpwi 7,3,0
	mr 0,3
	bne- 7,.L267
	.loc 3 663 0
	stw 16,1340(31)
	li 0,16
.L267:
	.loc 3 665 0
	add 7,8,0
.LVL766:
	.loc 3 666 0
	divw 7,7,0
.LVL767:
.LBB4124:
.LBB4119:
	.loc 3 375 0
	mullw. 0,7,0
.LVL768:
	ble- 0,.L330
	.loc 3 380 0
	cmpw 7,8,0
	beq- 7,.L325
.LVL769:
	.loc 3 387 0
	cmpw 7,0,6
	.loc 3 386 0
	stw 0,1336(31)
	.loc 3 387 0
	bge- 7,.L271
	.loc 3 388 0
	stw 0,1332(31)
.L271:
	.loc 3 392 0
	slwi 3,0,2
	stw 9,132(1)
	stw 10,128(1)
	stw 11,124(1)
	bl _Znaj
.LVL770:
	.loc 3 393 0
	lwz 0,1332(31)
	.loc 3 392 0
	stw 3,1344(31)
.LVL771:
	.loc 3 393 0
	cmpwi 7,0,0
	lwz 9,132(1)
	lwz 10,128(1)
	lwz 11,124(1)
	ble- 7,.L272
	.loc 2 1126 0
	addi 7,11,-4
.LBE4119:
.LBE4124:
	.loc 3 393 0
	li 8,0
	b .L273
.LVL772:
.L331:
.LBB4125:
.LBB4120:
	lwz 3,1344(31)
.LVL773:
.L273:
	.loc 3 394 0
	lwzu 6,4(7)
	slwi 0,8,2
	.loc 3 393 0
	addi 8,8,1
.LVL774:
	.loc 3 394 0
	stwx 6,3,0
	.loc 3 393 0
	lwz 0,0(10)
	cmpw 7,8,0
	blt+ 7,.L331
.LVL775:
.L272:
	.loc 3 398 0
	cmpwi 7,11,0
	beq- 7,.L332
	.loc 3 399 0
	mr 3,11
	stw 9,132(1)
	bl _ZdaPv
	lwz 0,1332(31)
	lwz 11,1344(31)
.LBE4120:
.LBE4125:
.LBE4129:
.LBE4134:
.LBE4142:
.LBE4153:
	.loc 2 1185 0
	addi 10,14,1332
.LBB4154:
.LBB4143:
.LBB4135:
.LBB4130:
.LBB4126:
.LBB4121:
	.loc 3 399 0
	slwi 0,0,2
	lwz 9,132(1)
	add 11,11,0
.LBE4121:
.LBE4126:
.LBE4130:
.LBE4135:
	.loc 3 669 0
	stw 14,0(11)
	.loc 3 670 0
	lwz 8,1332(31)
.LBE4143:
.LBE4154:
	.loc 2 1184 0
	lwz 11,1328(31)
.LBB4155:
.LBB4144:
	.loc 3 670 0
	addi 0,8,1
	stw 0,1332(31)
.LVL776:
.LBE4144:
.LBE4155:
	.loc 2 1184 0
	stbx 21,11,22
.LBB4156:
.LBB4060:
	.loc 3 655 0
	lwz 11,1344(14)
	cmpwi 7,11,0
	bne+ 7,.L333
.L275:
	.loc 3 656 0
	lwz 8,1340(14)
.LBB4045:
.LBB4046:
	.loc 3 375 0
	cmpwi 7,8,0
.LBE4046:
.LBE4045:
	.loc 3 656 0
	mr 0,8
.LVL777:
.LBB4052:
.LBB4049:
	.loc 3 375 0
	ble- 7,.L334
	.loc 3 380 0
	lwz 7,1336(14)
	cmpw 7,8,7
	beq- 7,.L335
.LVL778:
	.loc 3 387 0
	lwz 11,1332(14)
	.loc 3 386 0
	stw 8,1336(14)
	.loc 3 387 0
	cmpw 7,8,11
	bge- 7,.L280
	.loc 3 388 0
	stw 8,1332(14)
.L280:
	.loc 3 392 0
	slwi 3,0,2
	stw 9,132(1)
	stw 10,128(1)
	bl _Znaj
.LVL779:
	.loc 3 393 0
	lwz 0,1332(14)
	.loc 3 392 0
	mr 11,3
	stw 3,1344(14)
.LVL780:
	.loc 3 393 0
	li 8,0
	cmpwi 7,0,0
	li 7,0
	lwz 9,132(1)
	lwz 10,128(1)
	bgt+ 7,.L314
	b .L342
.LVL781:
.L337:
	lwz 11,1344(14)
.LVL782:
.L314:
	.loc 3 394 0
	lwz 0,0(8)
	.loc 3 393 0
	addi 7,7,1
.LVL783:
	.loc 3 394 0
	stwx 0,11,8
	.loc 3 393 0
	addi 8,8,4
	lwz 0,0(10)
	cmpw 7,7,0
	blt+ 7,.L337
	lwz 8,1336(14)
	lwz 11,1344(14)
.LBE4049:
.LBE4052:
.LBB4053:
	.loc 3 659 0
	cmpw 7,8,0
	bne+ 7,.L326
.LVL784:
.L304:
	lwz 0,1340(14)
	mr 6,8
.L278:
.LBB4041:
	.loc 3 662 0
	cmpwi 7,0,0
	bne- 7,.L284
	.loc 3 663 0
	stw 16,1340(14)
	li 0,16
.L284:
	.loc 3 665 0
	add 7,8,0
.LVL785:
	.loc 3 666 0
	divw 7,7,0
.LVL786:
.LBB4036:
.LBB4032:
	.loc 3 375 0
	mullw. 0,7,0
.LVL787:
	ble- 0,.L338
	.loc 3 380 0
	cmpw 7,8,0
	beq- 7,.L339
.LVL788:
	.loc 3 387 0
	cmpw 7,0,6
	.loc 3 386 0
	stw 0,1336(14)
	.loc 3 387 0
	bge- 7,.L288
	.loc 3 388 0
	stw 0,1332(14)
.L288:
	.loc 3 392 0
	slwi 3,0,2
	stw 9,132(1)
	stw 10,128(1)
	stw 11,124(1)
	bl _Znaj
.LVL789:
	.loc 3 393 0
	lwz 0,1332(14)
	.loc 3 392 0
	stw 3,1344(14)
.LVL790:
	.loc 3 393 0
	cmpwi 7,0,0
	lwz 9,132(1)
	lwz 10,128(1)
	lwz 11,124(1)
	ble- 7,.L289
	.loc 2 1126 0
	addi 7,11,-4
.LBE4032:
.LBE4036:
	.loc 3 393 0
	li 8,0
	b .L290
.LVL791:
.L340:
.LBB4037:
.LBB4033:
	lwz 3,1344(14)
.LVL792:
.L290:
	.loc 3 394 0
	lwzu 6,4(7)
	slwi 0,8,2
	.loc 3 393 0
	addi 8,8,1
.LVL793:
	.loc 3 394 0
	stwx 6,3,0
	.loc 3 393 0
	lwz 0,0(10)
	cmpw 7,8,0
	blt+ 7,.L340
.LVL794:
.L289:
	.loc 3 398 0
	cmpwi 7,11,0
	beq- 7,.L341
	.loc 3 399 0
	mr 3,11
	stw 9,132(1)
	bl _ZdaPv
	lwz 0,1332(14)
	lwz 11,1344(14)
	slwi 0,0,2
	lwz 9,132(1)
	add 11,11,0
	b .L283
.LVL795:
.L339:
	.loc 3 380 0
	slwi 6,6,2
	add 11,11,6
	b .L283
.LVL796:
.L330:
.LBE4033:
.LBE4037:
.LBE4041:
.LBE4053:
.LBE4060:
.LBE4156:
.LBB4157:
.LBB4145:
.LBB4136:
.LBB4131:
.LBB4127:
.LBB4122:
.LBB4117:
.LBB4118:
	.loc 3 193 0
	cmpwi 7,11,0
	beq- 7,.L269
	.loc 3 194 0
	mr 3,11
	stw 9,132(1)
	bl _ZdaPv
.LVL797:
	lwz 9,132(1)
.L269:
	.loc 3 197 0
	stw 17,1344(31)
	.loc 3 199 0
	li 11,0
	.loc 3 198 0
	stw 17,1332(31)
	.loc 3 199 0
	stw 17,1336(31)
	b .L266
.LVL798:
.L338:
.LBE4118:
.LBE4117:
.LBE4122:
.LBE4127:
.LBE4131:
.LBE4136:
.LBE4145:
.LBE4157:
.LBB4158:
.LBB4061:
.LBB4054:
.LBB4042:
.LBB4038:
.LBB4034:
.LBB4030:
.LBB4031:
	.loc 3 193 0
	cmpwi 7,11,0
	beq- 7,.L286
	.loc 3 194 0
	mr 3,11
	stw 9,132(1)
	bl _ZdaPv
.LVL799:
	lwz 9,132(1)
.L286:
	.loc 3 197 0
	stw 17,1344(14)
	.loc 3 199 0
	li 11,0
	.loc 3 198 0
	stw 17,1332(14)
	.loc 3 199 0
	stw 17,1336(14)
	b .L283
.LVL800:
.L332:
.LBE4031:
.LBE4030:
.LBE4034:
.LBE4038:
.LBE4042:
.LBE4054:
.LBE4061:
.LBE4158:
.LBB4159:
.LBB4146:
.LBB4137:
.LBB4132:
.LBB4128:
.LBB4123:
	.loc 3 398 0
	lwz 0,1332(31)
	lwz 11,1344(31)
	slwi 0,0,2
	add 11,11,0
	b .L266
.LVL801:
.L341:
.LBE4123:
.LBE4128:
.LBE4132:
.LBE4137:
.LBE4146:
.LBE4159:
.LBB4160:
.LBB4062:
.LBB4055:
.LBB4043:
.LBB4039:
.LBB4035:
	lwz 0,1332(14)
	lwz 11,1344(14)
	b .L326
.LVL802:
.L335:
.LBE4035:
.LBE4039:
.LBE4043:
.LBE4055:
.LBB4056:
.LBB4050:
	.loc 3 380 0
	lwz 0,1332(14)
.LVL803:
	b .L276
.L334:
.LVL804:
.LBB4047:
.LBB4048:
	.loc 3 198 0
	stw 11,1332(14)
	.loc 3 199 0
	li 6,0
	stw 11,1336(14)
	li 8,0
.LVL805:
	b .L278
.LVL806:
.L328:
.LBE4048:
.LBE4047:
.LBE4050:
.LBE4056:
.LBE4062:
.LBE4160:
.LBB4161:
.LBB4147:
.LBB4138:
.LBB4112:
.LBB4109:
.LBB4110:
	.loc 3 198 0
	stw 11,1332(31)
	.loc 3 199 0
	li 8,0
.LVL807:
	stw 11,1336(31)
	li 6,0
	b .L262
.LVL808:
.L342:
.LBE4110:
.LBE4109:
.LBE4112:
.LBE4138:
.LBE4147:
.LBE4161:
.LBB4162:
.LBB4063:
.LBB4057:
.LBB4051:
	.loc 3 393 0
	lwz 8,1336(14)
	b .L276
.LBE4051:
.LBE4057:
.LBE4063:
.LBE4162:
.LBE4164:
.LBE4297:
.LBE4302:
.LBE4308:
.LBE4311:
.LBE4312:
.LBE4313:
	.cfi_endproc
.LFE2847:
	.size	_ZN17idBrittleFracture14FindNeighboursEv, .-_ZN17idBrittleFracture14FindNeighboursEv
	.section	.text._ZN6idListIP14idFixedWindingE5ClearEv,"axG",@progbits,_ZN6idListIP14idFixedWindingE5ClearEv,comdat
	.align 2
	.weak	_ZN6idListIP14idFixedWindingE5ClearEv
	.type	_ZN6idListIP14idFixedWindingE5ClearEv, @function
_ZN6idListIP14idFixedWindingE5ClearEv:
.LFB3088:
	.loc 3 192 0
	.cfi_startproc
.LVL809:
	mflr 0
	stwu 1,-16(1)
.LCFI69:
	.cfi_def_cfa_offset 16
	.cfi_register 65, 0
	stw 31,12(1)
	mr 31,3
	.cfi_offset 31, -4
	stw 0,20(1)
	.loc 3 193 0
	lwz 3,12(3)
.LVL810:
	cmpwi 7,3,0
	beq- 7,.L344
	.cfi_offset 65, 4
	.loc 3 194 0 discriminator 1
	bl _ZdaPv
.L344:
	.loc 3 197 0
	li 0,0
	stw 0,12(31)
	.loc 3 198 0
	stw 0,0(31)
	.loc 3 199 0
	stw 0,4(31)
	.loc 3 200 0
	lwz 0,20(1)
	lwz 31,12(1)
.LVL811:
	mtlr 0
	addi 1,1,16
.LCFI70:
	.cfi_def_cfa_offset 0
	.cfi_restore 31
	blr
	.cfi_endproc
.LFE3088:
	.size	_ZN6idListIP14idFixedWindingE5ClearEv, .-_ZN6idListIP14idFixedWindingE5ClearEv
	.section	.text._ZN6idListIP7shard_sE5ClearEv,"axG",@progbits,_ZN6idListIP7shard_sE5ClearEv,comdat
	.align 2
	.weak	_ZN6idListIP7shard_sE5ClearEv
	.type	_ZN6idListIP7shard_sE5ClearEv, @function
_ZN6idListIP7shard_sE5ClearEv:
.LFB3090:
	.loc 3 192 0
	.cfi_startproc
.LVL812:
	mflr 0
	stwu 1,-16(1)
.LCFI71:
	.cfi_def_cfa_offset 16
	.cfi_register 65, 0
	stw 31,12(1)
	mr 31,3
	.cfi_offset 31, -4
	stw 0,20(1)
	.loc 3 193 0
	lwz 3,12(3)
.LVL813:
	cmpwi 7,3,0
	beq- 7,.L346
	.cfi_offset 65, 4
	.loc 3 194 0 discriminator 1
	bl _ZdaPv
.L346:
	.loc 3 197 0
	li 0,0
	stw 0,12(31)
	.loc 3 198 0
	stw 0,0(31)
	.loc 3 199 0
	stw 0,4(31)
	.loc 3 200 0
	lwz 0,20(1)
	lwz 31,12(1)
.LVL814:
	mtlr 0
	addi 1,1,16
.LCFI72:
	.cfi_def_cfa_offset 0
	.cfi_restore 31
	blr
	.cfi_endproc
.LFE3090:
	.size	_ZN6idListIP7shard_sE5ClearEv, .-_ZN6idListIP7shard_sE5ClearEv
	.section	".text"
	.align 2
	.globl _ZN17idBrittleFractureC2Ev
	.type	_ZN17idBrittleFractureC2Ev, @function
_ZN17idBrittleFractureC2Ev:
.LFB2813:
	.loc 2 50 0
	.cfi_startproc
	.cfi_personality 0,__gxx_personality_v0
	.cfi_lsda 0,.LLSDA2813
.LVL815:
	mflr 0
	stwu 1,-24(1)
.LCFI73:
	.cfi_def_cfa_offset 24
	.cfi_register 65, 0
	stw 28,8(1)
	stw 0,28(1)
	stw 29,12(1)
	stw 31,20(1)
	mr 31,3
	.cfi_offset 31, -4
	.cfi_offset 29, -12
	.cfi_offset 65, 4
	.cfi_offset 28, -16
	stw 30,16(1)
.LEHB0:
.LBB4334:
	.loc 2 50 0
	.cfi_offset 30, -8
	bl _ZN8idEntityC2Ev
.LEHE0:
.LVL816:
	lis 9,_ZTV17idBrittleFracture+8@ha
.LBB4335:
.LBB4336:
.LBB4337:
	.file 14 "d:/Data/Nintendo/DoomGX/src/game/../idlib/../idlib/Str.h"
	.loc 14 356 0
	li 0,0
.LBE4337:
.LBE4336:
.LBE4335:
	.loc 2 50 0
	la 9,_ZTV17idBrittleFracture+8@l(9)
.LBB4346:
.LBB4342:
.LBB4338:
	.loc 14 358 0
	addi 29,31,696
.LBE4338:
.LBE4342:
.LBE4346:
	.loc 2 50 0
	stw 9,0(31)
.LVL817:
.LBB4347:
.LBB4343:
.LBB4339:
	.loc 14 357 0
	li 9,20
.LBE4339:
.LBE4343:
.LBE4347:
	.loc 2 50 0
	addi 28,31,716
.LBB4348:
.LBB4344:
.LBB4340:
	.loc 14 356 0
	stw 0,684(31)
	.loc 14 357 0
	stw 9,692(31)
.LBE4340:
.LBE4344:
.LBE4348:
	.loc 2 50 0
	mr 3,28
.LBB4349:
.LBB4345:
.LBB4341:
	.loc 14 358 0
	stw 29,688(31)
	.loc 14 359 0
	stb 0,696(31)
.LEHB1:
.LBE4341:
.LBE4345:
.LBE4349:
	.loc 2 50 0
	bl _ZN21idPhysics_StaticMultiC1Ev
.LEHE1:
.LVL818:
.LBB4350:
.LBB4351:
.LBB4352:
.LBB4353:
	.loc 3 197 0 discriminator 1
	li 0,0
.LBE4353:
.LBE4352:
	.loc 3 159 0 discriminator 1
	li 9,16
.LBE4351:
.LBE4350:
	.loc 2 52 0 discriminator 1
	lis 3,.LC19@ha
.LBB4363:
.LBB4360:
	.loc 3 159 0 discriminator 1
	stw 9,768(31)
.LVL819:
.LBB4357:
.LBB4354:
	.loc 3 197 0 discriminator 1
	stw 0,772(31)
.LBE4354:
.LBE4357:
.LBE4360:
.LBE4363:
	.loc 2 52 0 discriminator 1
	la 3,.LC19@l(3)
.LBB4364:
.LBB4361:
.LBB4358:
.LBB4355:
	.loc 3 198 0 discriminator 1
	stw 0,760(31)
.LBE4355:
.LBE4358:
.LBE4361:
.LBE4364:
	.loc 2 52 0 discriminator 1
	li 4,812
.LBB4365:
.LBB4362:
.LBB4359:
.LBB4356:
	.loc 3 199 0 discriminator 1
	stw 0,764(31)
	addi 30,31,684
.LEHB2:
.LBE4356:
.LBE4359:
.LBE4362:
.LBE4365:
	.loc 2 52 0 discriminator 1
	crxor 6,6,6
	bl _Z15Sys_DebugPrintfPKcz
	.loc 2 57 0
	li 0,0
	.loc 2 55 0
	li 9,0
	stw 9,636(31)
.LBB4366:
.LBB4367:
	.loc 14 746 0
	mr 3,30
.LBE4367:
.LBE4366:
	.loc 2 56 0
	stw 9,640(31)
	.loc 2 57 0
	stw 0,644(31)
	.loc 2 58 0
	stw 0,648(31)
	.loc 2 59 0
	stw 0,652(31)
	.loc 2 60 0
	stw 0,656(31)
	.loc 2 61 0
	stw 0,660(31)
	.loc 2 62 0
	stw 0,664(31)
	.loc 2 63 0
	stw 0,668(31)
	.loc 2 64 0
	stw 0,672(31)
	.loc 2 65 0
	stw 0,676(31)
	.loc 2 66 0
	stw 0,680(31)
.LVL820:
.LBB4381:
.LBB4376:
	.loc 14 746 0
	bl _ZN5idStr8FreeDataEv
.LEHE2:
.LVL821:
.LBE4376:
.LBE4381:
.LBB4382:
.LBB4383:
	.file 15 "d:/Data/Nintendo/DoomGX/src/game/../idlib/../idlib/bv/Bounds.h"
	.loc 15 202 0
	lis 9,_ZN6idMath8INFINITYE@ha
.LBE4383:
.LBE4382:
	.loc 2 75 0
	li 11,1
.LBB4387:
.LBB4384:
	.loc 15 202 0
	lfs 0,_ZN6idMath8INFINITYE@l(9)
.LBE4384:
.LBE4387:
.LBB4388:
.LBB4377:
.LBB4368:
.LBB4369:
	.loc 14 356 0
	li 0,0
.LBE4369:
.LBE4368:
.LBE4377:
.LBE4388:
	.loc 2 75 0
	lwz 9,192(31)
.LBB4389:
.LBB4385:
	.loc 15 203 0
	fneg 13,0
.LBE4385:
.LBE4389:
.LBB4390:
.LBB4378:
.LBB4373:
.LBB4370:
	.loc 14 356 0
	stw 0,684(31)
.LBE4370:
.LBE4373:
.LBE4378:
.LBE4390:
	.loc 2 75 0
	rlwimi 9,11,20,11,11
.LBB4391:
.LBB4379:
.LBB4374:
.LBB4371:
	.loc 14 357 0
	li 11,20
	stw 11,692(31)
.LBE4371:
.LBE4374:
.LBE4379:
.LBE4391:
	.loc 2 72 0
	li 11,-1
.LBB4392:
.LBB4380:
.LBB4375:
.LBB4372:
	.loc 14 358 0
	stw 29,688(31)
	.loc 14 359 0
	stb 0,696(31)
.LVL822:
.LBE4372:
.LBE4375:
.LBE4380:
.LBE4392:
.LBB4393:
.LBB4386:
	.loc 15 202 0
	stfs 0,784(31)
	stfs 0,780(31)
	stfs 0,776(31)
.LVL823:
	.loc 15 203 0
	stfs 13,796(31)
	stfs 13,792(31)
	stfs 13,788(31)
.LBE4386:
.LBE4393:
	.loc 2 70 0
	stb 0,800(31)
	.loc 2 72 0
	stw 11,804(31)
	.loc 2 73 0
	stb 0,808(31)
	.loc 2 75 0
	stw 9,192(31)
.LBE4334:
	.loc 2 76 0
	lwz 0,28(1)
	lwz 28,8(1)
	mtlr 0
	lwz 29,12(1)
	lwz 30,16(1)
	lwz 31,20(1)
.LVL824:
	addi 1,1,24
	.cfi_remember_state
.LCFI74:
	.cfi_def_cfa_offset 0
	.cfi_restore 31
	.cfi_restore 30
	.cfi_restore 29
	.cfi_restore 28
	blr
.LVL825:
.L352:
.LCFI75:
	.cfi_restore_state
	mr 29,3
	addi 30,31,684
.L350:
.LVL826:
.LBB4400:
.LBB4394:
.LBB4395:
.LBB4396:
	.loc 14 501 0
	mr 3,30
	bl _ZN5idStr8FreeDataEv
.LBE4396:
.LBE4395:
.LBE4394:
	.loc 2 50 0
	mr 3,31
	bl _ZN8idEntityD2Ev
	mr 3,29
.LEHB3:
	bl _Unwind_Resume
.LEHE3:
.LVL827:
.L353:
	mr 29,3
.LVL828:
.LBB4397:
.LBB4398:
.LBB4399:
	.loc 3 181 0
	addi 3,31,760
	bl _ZN6idListIP7shard_sE5ClearEv
.LBE4399:
.LBE4398:
.LBE4397:
	.loc 2 50 0
	mr 3,28
	bl _ZN21idPhysics_StaticMultiD1Ev
	b .L350
.LBE4400:
	.cfi_endproc
.LFE2813:
	.globl __gxx_personality_v0
	.section	.gcc_except_table,"a",@progbits
.LLSDA2813:
	.byte	0xff
	.byte	0xff
	.byte	0x1
	.uleb128 .LLSDACSE2813-.LLSDACSB2813
.LLSDACSB2813:
	.uleb128 .LEHB0-.LFB2813
	.uleb128 .LEHE0-.LEHB0
	.uleb128 0
	.uleb128 0
	.uleb128 .LEHB1-.LFB2813
	.uleb128 .LEHE1-.LEHB1
	.uleb128 .L352-.LFB2813
	.uleb128 0
	.uleb128 .LEHB2-.LFB2813
	.uleb128 .LEHE2-.LEHB2
	.uleb128 .L353-.LFB2813
	.uleb128 0
	.uleb128 .LEHB3-.LFB2813
	.uleb128 .LEHE3-.LEHB3
	.uleb128 0
	.uleb128 0
.LLSDACSE2813:
	.section	".text"
	.size	_ZN17idBrittleFractureC2Ev, .-_ZN17idBrittleFractureC2Ev
	.align 2
	.globl _ZN17idBrittleFracture14CreateInstanceEv
	.type	_ZN17idBrittleFracture14CreateInstanceEv, @function
_ZN17idBrittleFracture14CreateInstanceEv:
.LFB2810:
	.loc 2 35 0
	.cfi_startproc
	.cfi_personality 0,__gxx_personality_v0
	.cfi_lsda 0,.LLSDA2810
	mflr 0
	stwu 1,-24(1)
.LCFI76:
	.cfi_def_cfa_offset 24
	.cfi_register 65, 0
.LBB4401:
	li 3,812
.LBE4401:
	stw 30,16(1)
	stw 0,28(1)
	stw 31,20(1)
.LEHB4:
.LBB4402:
	.loc 2 35 0
	.cfi_offset 31, -4
	.cfi_offset 65, 4
	.cfi_offset 30, -8
	bl _ZN7idClassnwEj
.LEHE4:
	mr 31,3
.LEHB5:
	bl _ZN17idBrittleFractureC1Ev
.LEHE5:
.LVL829:
	.loc 2 35 0 is_stmt 0 discriminator 2
	mr 3,31
.LEHB6:
	bl _ZN7idClass23FindUninitializedMemoryEv
.LEHE6:
.LVL830:
.L359:
.LBE4402:
	.loc 2 35 0
	lwz 0,28(1)
	mr 3,31
	lwz 30,16(1)
	mtlr 0
	lwz 31,20(1)
	addi 1,1,24
	.cfi_remember_state
.LCFI77:
	.cfi_def_cfa_offset 0
	.cfi_restore 31
	.cfi_restore 30
	blr
.L360:
.L356:
.LCFI78:
	.cfi_restore_state
.LBB4403:
	cmpwi 7,4,1
	beq- 7,.L358
.LEHB7:
	bl _Unwind_Resume
.LEHE7:
.L361:
	mr 30,3
	mr 3,31
	stw 4,8(1)
	bl _ZN7idClassdlEPv
	mr 3,30
	lwz 4,8(1)
	b .L356
.L358:
.LBE4403:
.LBB4404:
	bl __cxa_begin_catch
	li 31,0
	bl __cxa_end_catch
	b .L359
.LBE4404:
	.cfi_endproc
.LFE2810:
	.section	.gcc_except_table
	.align 2
.LLSDA2810:
	.byte	0xff
	.byte	0
	.uleb128 .LLSDATT2810-.LLSDATTD2810
.LLSDATTD2810:
	.byte	0x1
	.uleb128 .LLSDACSE2810-.LLSDACSB2810
.LLSDACSB2810:
	.uleb128 .LEHB4-.LFB2810
	.uleb128 .LEHE4-.LEHB4
	.uleb128 .L360-.LFB2810
	.uleb128 0x1
	.uleb128 .LEHB5-.LFB2810
	.uleb128 .LEHE5-.LEHB5
	.uleb128 .L361-.LFB2810
	.uleb128 0x3
	.uleb128 .LEHB6-.LFB2810
	.uleb128 .LEHE6-.LEHB6
	.uleb128 .L360-.LFB2810
	.uleb128 0x1
	.uleb128 .LEHB7-.LFB2810
	.uleb128 .LEHE7-.LEHB7
	.uleb128 0
	.uleb128 0
.LLSDACSE2810:
	.byte	0x1
	.byte	0
	.byte	0
	.byte	0x7d
	.align 2
	.long	_ZTI12idAllocError
.LLSDATT2810:
	.section	".text"
	.size	_ZN17idBrittleFracture14CreateInstanceEv, .-_ZN17idBrittleFracture14CreateInstanceEv
	.section	.text._ZN6idListIbE5ClearEv,"axG",@progbits,_ZN6idListIbE5ClearEv,comdat
	.align 2
	.weak	_ZN6idListIbE5ClearEv
	.type	_ZN6idListIbE5ClearEv, @function
_ZN6idListIbE5ClearEv:
.LFB3145:
	.loc 3 192 0 is_stmt 1
	.cfi_startproc
.LVL831:
	mflr 0
	stwu 1,-16(1)
.LCFI79:
	.cfi_def_cfa_offset 16
	.cfi_register 65, 0
	stw 31,12(1)
	mr 31,3
	.cfi_offset 31, -4
	stw 0,20(1)
	.loc 3 193 0
	lwz 3,12(3)
.LVL832:
	cmpwi 7,3,0
	beq- 7,.L363
	.cfi_offset 65, 4
	.loc 3 194 0 discriminator 1
	bl _ZdaPv
.L363:
	.loc 3 197 0
	li 0,0
	stw 0,12(31)
	.loc 3 198 0
	stw 0,0(31)
	.loc 3 199 0
	stw 0,4(31)
	.loc 3 200 0
	lwz 0,20(1)
	lwz 31,12(1)
.LVL833:
	mtlr 0
	addi 1,1,16
.LCFI80:
	.cfi_def_cfa_offset 0
	.cfi_restore 31
	blr
	.cfi_endproc
.LFE3145:
	.size	_ZN6idListIbE5ClearEv, .-_ZN6idListIbE5ClearEv
	.section	".text"
	.align 2
	.globl _ZN17idBrittleFracture11RemoveShardEi
	.type	_ZN17idBrittleFracture11RemoveShardEi, @function
_ZN17idBrittleFracture11RemoveShardEi:
.LFB2830:
	.loc 2 317 0
	.cfi_startproc
	.cfi_personality 0,__gxx_personality_v0
	.cfi_lsda 0,.LLSDA2830
.LVL834:
	mflr 0
	stwu 1,-24(1)
.LCFI81:
	.cfi_def_cfa_offset 24
	.cfi_register 65, 0
	stw 28,8(1)
	mr 28,4
	.cfi_offset 28, -16
.LVL835:
	stw 30,16(1)
.LBB4449:
.LBB4450:
.LBB4451:
	.loc 3 589 0
	slwi 30,4,2
	.cfi_offset 30, -8
.LBE4451:
.LBE4450:
.LBE4449:
	.loc 2 317 0
	stw 31,20(1)
	mr 31,3
	.cfi_offset 31, -4
	stw 0,28(1)
	stw 29,12(1)
.LBB4540:
	.loc 2 320 0
	lwz 9,772(3)
	lwzx 29,9,30
	.cfi_offset 29, -12
	.cfi_offset 65, 4
	cmpwi 7,29,0
	beq- 7,.L365
.LVL836:
.LBB4452:
.LBB4453:
.LBB4454:
	.file 16 "d:/Data/Nintendo/DoomGX/src/game/BrittleFracture.h"
	.loc 16 42 0
	addi 3,29,1348
.LVL837:
.LEHB8:
	bl _ZN19idPhysics_RigidBodyD1Ev
.LEHE8:
.LVL838:
.LBB4455:
.LBB4456:
.LBB4457:
.LBB4458:
	.loc 3 193 0
	lwz 3,1344(29)
	cmpwi 7,3,0
	beq- 7,.L366
	.loc 3 194 0
	bl _ZdaPv
.L366:
.LBE4458:
.LBE4457:
.LBE4456:
.LBE4455:
.LBB4465:
.LBB4466:
.LBB4467:
.LBB4468:
	.loc 3 193 0
	lwz 3,1328(29)
.LBE4468:
.LBE4467:
.LBE4466:
.LBE4465:
.LBB4481:
.LBB4463:
.LBB4461:
.LBB4459:
	.loc 3 197 0
	li 0,0
	stw 0,1344(29)
.LBE4459:
.LBE4461:
.LBE4463:
.LBE4481:
.LBB4482:
.LBB4477:
.LBB4473:
.LBB4469:
	.loc 3 193 0
	cmpwi 7,3,0
.LBE4469:
.LBE4473:
.LBE4477:
.LBE4482:
.LBB4483:
.LBB4464:
.LBB4462:
.LBB4460:
	.loc 3 198 0
	stw 0,1332(29)
	.loc 3 199 0
	stw 0,1336(29)
.LVL839:
.LBE4460:
.LBE4462:
.LBE4464:
.LBE4483:
.LBB4484:
.LBB4478:
.LBB4474:
.LBB4470:
	.loc 3 193 0
	beq- 7,.L368
	.loc 3 194 0
	bl _ZdaPv
.L368:
.LBE4470:
.LBE4474:
.LBE4478:
.LBE4484:
.LBB4485:
.LBB4486:
.LBB4487:
.LBB4488:
	.loc 3 193 0
	lwz 3,1312(29)
.LBE4488:
.LBE4487:
.LBE4486:
.LBE4485:
.LBB4501:
.LBB4479:
.LBB4475:
.LBB4471:
	.loc 3 197 0
	li 0,0
	stw 0,1328(29)
.LBE4471:
.LBE4475:
.LBE4479:
.LBE4501:
.LBB4502:
.LBB4497:
.LBB4493:
.LBB4489:
	.loc 3 193 0
	cmpwi 7,3,0
.LBE4489:
.LBE4493:
.LBE4497:
.LBE4502:
.LBB4503:
.LBB4480:
.LBB4476:
.LBB4472:
	.loc 3 198 0
	stw 0,1316(29)
	.loc 3 199 0
	stw 0,1320(29)
.LVL840:
.LBE4472:
.LBE4476:
.LBE4480:
.LBE4503:
.LBB4504:
.LBB4498:
.LBB4494:
.LBB4490:
	.loc 3 193 0
	beq- 7,.L370
	.loc 3 194 0
	bl _ZdaPv
.L370:
	.loc 3 197 0
	li 0,0
.LBE4490:
.LBE4494:
.LBE4498:
.LBE4504:
.LBB4505:
.LBB4506:
.LBB4507:
.LBB4508:
.LBB4509:
.LBB4510:
	.loc 1 183 0
	lis 9,_ZTV9idWinding+8@ha
.LBE4510:
.LBE4509:
.LBE4508:
.LBE4507:
.LBE4506:
.LBE4505:
.LBB4516:
.LBB4499:
.LBB4495:
.LBB4491:
	.loc 3 197 0
	stw 0,1312(29)
.LBE4491:
.LBE4495:
.LBE4499:
.LBE4516:
.LBE4454:
.LBE4453:
.LBE4452:
	.loc 2 320 0
	mr 3,29
.LBB4532:
.LBB4530:
.LBB4528:
.LBB4517:
.LBB4500:
.LBB4496:
.LBB4492:
	.loc 3 198 0
	stw 0,1300(29)
	.loc 3 199 0
	stw 0,1304(29)
.LVL841:
.LBE4492:
.LBE4496:
.LBE4500:
.LBE4517:
.LBB4518:
.LBB4515:
.LBB4514:
	.loc 1 381 0
	stw 0,12(29)
.LVL842:
.LBB4513:
.LBB4512:
.LBB4511:
	.loc 1 183 0
	la 0,_ZTV9idWinding+8@l(9)
	stw 0,4(29)
.LBE4511:
.LBE4512:
.LBE4513:
.LBE4514:
.LBE4515:
.LBE4518:
.LBE4528:
.LBE4530:
.LBE4532:
	.loc 2 320 0
	bl _ZdlPv
.LVL843:
.L365:
.LBB4533:
.LBB4534:
	.loc 3 864 0
	cmpwi 7,28,0
	blt- 7,.L379
	lwz 9,760(31)
	cmpw 7,28,9
	bge- 7,.L379
.LVL844:
.LBE4534:
.LBB4535:
.LBB4536:
	.loc 3 868 0
	addi 9,9,-1
	.loc 3 869 0
	cmpw 7,28,9
	.loc 3 868 0
	stw 9,760(31)
.LVL845:
	.loc 3 869 0
	bge- 7,.L379
	mr 9,30
	mr 11,28
.LVL846:
.L380:
	.loc 3 870 0
	lwz 10,772(31)
	.loc 3 869 0
	addi 11,11,1
.LVL847:
	.loc 3 870 0
	add 8,10,9
	.loc 2 317 0
	addi 9,9,4
	.loc 3 870 0
	lwzx 0,10,9
	stw 0,0(8)
	.loc 3 869 0
	lwz 0,760(31)
	cmpw 7,11,0
	blt+ 7,.L380
.LVL848:
.L379:
.LBE4536:
.LBE4535:
.LBE4533:
	.loc 2 322 0
	addi 3,31,716
	mr 4,28
	li 5,1
.LEHB9:
	bl _ZN21idPhysics_StaticMulti11RemoveIndexEib
.LVL849:
	.loc 2 324 0
	lwz 0,760(31)
	cmpw 7,28,0
	bge- 7,.L364
.LVL850:
.L382:
	.loc 2 325 0 discriminator 2
	lwz 9,772(31)
	lwzx 9,9,30
	.loc 2 324 0 discriminator 2
	addi 30,30,4
	.loc 2 325 0 discriminator 2
	lwz 9,0(9)
.LVL851:
.LBB4537:
.LBB4538:
	.loc 13 183 0 discriminator 2
	stw 28,8(9)
.LBE4538:
.LBE4537:
	.loc 2 324 0 discriminator 2
	addi 28,28,1
.LVL852:
	lwz 0,760(31)
	cmpw 7,0,28
	bgt+ 7,.L382
.LVL853:
.L364:
.LBE4540:
	.loc 2 327 0
	lwz 0,28(1)
	lwz 28,8(1)
.LVL854:
	mtlr 0
	lwz 29,12(1)
	lwz 30,16(1)
	lwz 31,20(1)
.LVL855:
	addi 1,1,24
	.cfi_remember_state
.LCFI82:
	.cfi_def_cfa_offset 0
	.cfi_restore 31
	.cfi_restore 30
	.cfi_restore 29
	.cfi_restore 28
	blr
.LVL856:
.L383:
.LCFI83:
	.cfi_restore_state
	mr 31,3
.LVL857:
.LBB4541:
.LBB4539:
.LBB4531:
.LBB4529:
.LBB4519:
.LBB4520:
.LBB4521:
	.loc 3 181 0
	addi 3,29,1332
	bl _ZN6idListIP7shard_sE5ClearEv
.LVL858:
.LBE4521:
.LBE4520:
.LBE4519:
.LBB4522:
.LBB4523:
.LBB4524:
	addi 3,29,1316
	bl _ZN6idListIbE5ClearEv
.LVL859:
.LBE4524:
.LBE4523:
.LBE4522:
.LBB4525:
.LBB4526:
.LBB4527:
	addi 3,29,1300
	bl _ZN6idListIP14idFixedWindingE5ClearEv
.LBE4527:
.LBE4526:
.LBE4525:
	.loc 16 42 0
	addi 3,29,4
	bl _ZN14idFixedWindingD1Ev
	mr 3,31
	bl _Unwind_Resume
.LEHE9:
.LBE4529:
.LBE4531:
.LBE4539:
.LBE4541:
	.cfi_endproc
.LFE2830:
	.section	.gcc_except_table
.LLSDA2830:
	.byte	0xff
	.byte	0xff
	.byte	0x1
	.uleb128 .LLSDACSE2830-.LLSDACSB2830
.LLSDACSB2830:
	.uleb128 .LEHB8-.LFB2830
	.uleb128 .LEHE8-.LEHB8
	.uleb128 .L383-.LFB2830
	.uleb128 0
	.uleb128 .LEHB9-.LFB2830
	.uleb128 .LEHE9-.LEHB9
	.uleb128 0
	.uleb128 0
.LLSDACSE2830:
	.section	".text"
	.size	_ZN17idBrittleFracture11RemoveShardEi, .-_ZN17idBrittleFracture11RemoveShardEi
	.align 2
	.globl _ZN17idBrittleFracture5ThinkEv
	.type	_ZN17idBrittleFracture5ThinkEv, @function
_ZN17idBrittleFracture5ThinkEv:
.LFB2834:
	.loc 2 566 0
	.cfi_startproc
.LVL860:
	mflr 0
	stwu 1,-40(1)
.LCFI84:
	.cfi_def_cfa_offset 40
	.cfi_register 65, 0
	stw 28,24(1)
.LBB4542:
	.loc 2 569 0
	li 28,0
	.cfi_offset 28, -16
.LBE4542:
	.loc 2 566 0
	stw 31,36(1)
	mr 31,3
	.cfi_offset 31, -4
	stw 0,44(1)
	stw 25,12(1)
	stw 26,16(1)
	stw 27,20(1)
	stw 29,28(1)
	stw 30,32(1)
.LBB4563:
.LBB4543:
.LBB4544:
	.loc 2 1290 0
	lwz 0,760(3)
	.cfi_offset 30, -8
	.cfi_offset 29, -12
	.cfi_offset 27, -20
	.cfi_offset 26, -24
	.cfi_offset 25, -28
	.cfi_offset 65, 4
.LBE4544:
.LBE4543:
	.loc 2 572 0
	cmpwi 7,0,0
	ble- 7,.L387
	.loc 2 575 0
	lis 29,gameLocal@ha
	.loc 2 572 0
	li 30,0
	.loc 2 575 0
	la 29,gameLocal@l(29)
	addis 29,29,0x25
	b .L389
.LVL861:
.L388:
	.loc 2 572 0
	addi 30,30,1
.LVL862:
	cmpw 7,0,30
	ble- 7,.L428
.LVL863:
.L389:
	.loc 2 573 0
	lwz 11,772(31)
	slwi 9,30,2
	lwzx 9,11,9
	lwz 9,1892(9)
.LVL864:
	.loc 2 574 0
	cmpwi 7,9,-1
	beq- 7,.L388
	.loc 2 575 0
	lwz 11,2004(29)
	.loc 2 579 0
	li 28,1
	.loc 2 575 0
	subf 9,9,11
.LVL865:
	cmpwi 7,9,5000
	ble+ 7,.L388
	.loc 2 576 0
	mr 4,30
	mr 3,31
	bl _ZN17idBrittleFracture11RemoveShardEi
	.loc 2 577 0
	addi 30,30,-1
.LVL866:
	lwz 0,760(31)
	.loc 2 572 0
	addi 30,30,1
.LVL867:
	cmpw 7,0,30
	bgt+ 7,.L389
.LVL868:
.L428:
	cmpwi 7,0,0
.LVL869:
.L387:
	.loc 2 584 0
	beq- 7,.L429
	.loc 2 589 0
	lwz 9,152(31)
	andi. 11,9,2
	beq- 0,.L392
	.loc 2 595 0
	cmpwi 7,0,0
	.loc 2 591 0
	lis 9,gameLocal@ha
	la 9,gameLocal@l(9)
	addis 9,9,0x25
	lwz 26,2000(9)
.LVL870:
	.loc 2 592 0
	lwz 27,2004(9)
.LVL871:
	.loc 2 595 0
	ble- 7,.L393
	li 25,1
	li 30,0
	.loc 2 602 0
	subf 26,26,27
.LVL872:
.L395:
	.loc 2 596 0
	lwz 11,772(31)
	slwi 9,30,2
	.loc 2 602 0
	mr 4,26
	mr 5,27
	.loc 2 596 0
	lwzx 9,11,9
.LVL873:
	.loc 2 602 0
	addi 29,9,1348
	.loc 2 598 0
	lwz 9,1892(9)
.LVL874:
	.loc 2 602 0
	mr 3,29
	.loc 2 598 0
	cmpwi 7,9,-1
	beq- 7,.L394
	.loc 2 602 0
	bl _ZN19idPhysics_RigidBody8EvaluateEii
	.loc 2 604 0
	mr 3,29
	bl _ZNK19idPhysics_RigidBody8IsAtRestEv
	lwz 0,760(31)
	cmpwi 7,3,0
	bne- 7,.L394
	.loc 2 605 0
	li 25,0
.L394:
	.loc 2 595 0
	addi 30,30,1
.LVL875:
	cmpw 7,0,30
	bgt+ 7,.L395
	.loc 2 609 0
	cmpwi 7,25,0
	bne- 7,.L393
	.loc 2 612 0
	mr 3,31
	li 4,2
	bl _ZN8idEntity12BecomeActiveEi
.LVL876:
.L397:
.LBB4558:
.LBB4559:
	.loc 2 1290 0 discriminator 4
	lwz 0,760(31)
	.loc 15 202 0 discriminator 4
	lis 9,_ZN6idMath8INFINITYE@ha
	lfs 0,_ZN6idMath8INFINITYE@l(9)
.LBE4559:
.LBE4558:
	.loc 2 618 0 discriminator 4
	cmpwi 7,0,0
.LBB4561:
.LBB4560:
	.loc 15 203 0 discriminator 4
	fneg 13,0
	.loc 15 202 0 discriminator 4
	stfs 0,784(31)
	stfs 0,780(31)
	stfs 0,776(31)
.LVL877:
	.loc 15 203 0 discriminator 4
	stfs 13,796(31)
	stfs 13,792(31)
	stfs 13,788(31)
.LVL878:
.LBE4560:
.LBE4561:
	.loc 2 618 0 discriminator 4
	ble- 7,.L398
	.loc 2 618 0 is_stmt 0
	fmr 9,13
	lwz 10,772(31)
	fmr 10,13
	mtctr 0
	fmr 11,0
	li 11,0
	fmr 12,0
.LVL879:
.L412:
	.loc 2 619 0 is_stmt 1 discriminator 2
	slwi 0,11,2
	lwzx 9,10,0
	lwz 9,0(9)
.LVL880:
.LBB4562:
.LBB4557:
.LBB4545:
.LBB4546:
	.loc 4 402 0 discriminator 2
	lfs 8,88(9)
.LVL881:
.LBE4546:
.LBE4545:
	.loc 15 257 0 discriminator 2
	fcmpu 7,8,0
	bnl- 7,.L400
	.loc 15 258 0
	fmr 0,8
.L400:
	.loc 15 257 0
	stfs 0,776(31)
.LVL882:
.LBB4547:
.LBB4548:
	.loc 4 402 0
	lfs 8,92(9)
.LVL883:
.LBE4548:
.LBE4547:
	.loc 15 261 0
	fcmpu 7,8,12
	bnl- 7,.L402
	.loc 15 262 0
	fmr 12,8
.L402:
	.loc 15 261 0
	stfs 12,780(31)
.LVL884:
.LBB4549:
.LBB4550:
	.loc 4 402 0
	lfs 8,96(9)
.LVL885:
.LBE4550:
.LBE4549:
	.loc 15 265 0
	fcmpu 7,8,11
	bnl- 7,.L404
	.loc 15 266 0
	fmr 11,8
.L404:
	.loc 15 265 0
	stfs 11,784(31)
.LVL886:
.LBB4551:
.LBB4552:
	.loc 4 402 0
	lfs 8,100(9)
.LVL887:
.LBE4552:
.LBE4551:
	.loc 15 269 0
	fcmpu 7,8,13
	bng- 7,.L406
	.loc 15 270 0
	fmr 13,8
.L406:
	.loc 15 269 0
	stfs 13,788(31)
.LVL888:
.LBB4553:
.LBB4554:
	.loc 4 402 0
	lfs 8,104(9)
.LVL889:
.LBE4554:
.LBE4553:
	.loc 15 273 0
	fcmpu 7,8,10
	bng- 7,.L408
	.loc 15 274 0
	fmr 10,8
.L408:
	.loc 15 273 0
	stfs 10,792(31)
.LVL890:
.LBB4555:
.LBB4556:
	.loc 4 402 0
	lfs 8,108(9)
.LVL891:
.LBE4556:
.LBE4555:
	.loc 15 277 0
	fcmpu 7,8,9
	bng- 7,.L410
	.loc 15 278 0
	fmr 9,8
.L410:
	.loc 15 277 0
	stfs 9,796(31)
.LBE4557:
.LBE4562:
	.loc 2 618 0
	addi 11,11,1
.LVL892:
	bdnz .L412
.LVL893:
.L398:
	.loc 2 623 0
	cmpwi 7,28,0
	.loc 2 624 0
	mr 3,31
	.loc 2 623 0
	beq- 7,.L413
.LVL894:
.L430:
	.loc 2 624 0
	li 4,9
	bl _ZN8idEntity12BecomeActiveEi
.L414:
	.loc 2 629 0
	mr 3,31
	bl _ZN8idEntity10RunPhysicsEv
	.loc 2 630 0
	lwz 9,0(31)
	mr 3,31
	lwz 0,32(9)
	mtctr 0
	bctrl
.LBE4563:
	.loc 2 631 0
	lwz 0,44(1)
	lwz 25,12(1)
	mtlr 0
	lwz 26,16(1)
	lwz 27,20(1)
	lwz 28,24(1)
	lwz 29,28(1)
	lwz 30,32(1)
	lwz 31,36(1)
.LVL895:
	addi 1,1,40
	.cfi_remember_state
.LCFI85:
	.cfi_def_cfa_offset 0
	.cfi_restore 31
	.cfi_restore 30
	.cfi_restore 29
	.cfi_restore 28
	.cfi_restore 27
	.cfi_restore 26
	.cfi_restore 25
	blr
.LVL896:
.L393:
.LCFI86:
	.cfi_restore_state
.LBB4564:
	.loc 2 610 0
	mr 3,31
	li 4,2
	bl _ZN8idEntity14BecomeInactiveEi
.LVL897:
.L392:
	.loc 2 616 0
	lfs 13,776(31)
	lfs 0,788(31)
	fcmpu 7,13,0
	bgt- 7,.L397
	.loc 2 623 0
	cmpwi 7,28,0
	.loc 2 624 0
	mr 3,31
	.loc 2 623 0
	bne- 7,.L430
.LVL898:
.L413:
	.loc 2 626 0
	li 4,1
	bl _ZN8idEntity14BecomeInactiveEi
	b .L414
.LVL899:
.L429:
	.loc 2 585 0
	lis 4,EV_Remove@ha
	mr 3,31
	la 4,EV_Remove@l(4)
	li 5,0
	bl _ZN7idClass11PostEventMSEPK10idEventDefi
.LBE4564:
	.loc 2 631 0
	lwz 0,44(1)
	lwz 25,12(1)
	mtlr 0
	lwz 26,16(1)
	lwz 27,20(1)
	lwz 28,24(1)
	lwz 29,28(1)
	lwz 30,32(1)
	lwz 31,36(1)
.LVL900:
	addi 1,1,40
	.cfi_restore 25
	.cfi_restore 26
	.cfi_restore 27
	.cfi_restore 28
	.cfi_restore 29
	.cfi_restore 30
	.cfi_restore 31
.LCFI87:
	.cfi_def_cfa_offset 0
	blr
	.cfi_endproc
.LFE2834:
	.size	_ZN17idBrittleFracture5ThinkEv, .-_ZN17idBrittleFracture5ThinkEv
	.align 2
	.globl _ZN17idBrittleFracture8AddShardEP11idClipModelR14idFixedWinding
	.type	_ZN17idBrittleFracture8AddShardEP11idClipModelR14idFixedWinding, @function
_ZN17idBrittleFracture8AddShardEP11idClipModelR14idFixedWinding:
.LFB2828:
	.loc 2 300 0
	.cfi_startproc
	.cfi_personality 0,__gxx_personality_v0
	.cfi_lsda 0,.LLSDA2828
.LVL901:
	stwu 1,-32(1)
.LCFI88:
	.cfi_def_cfa_offset 32
	mflr 0
	stw 29,20(1)
	mr 29,3
	.cfi_offset 29, -12
	.cfi_register 65, 0
.LBB4631:
	.loc 2 301 0
	li 3,1904
.LVL902:
.LBE4631:
	.loc 2 300 0
	stw 0,36(1)
	stw 27,12(1)
	mr 27,4
	.cfi_offset 27, -20
	.cfi_offset 65, 4
	stw 28,16(1)
	stw 30,24(1)
	mr 30,5
	.cfi_offset 30, -8
	.cfi_offset 28, -16
	stw 31,28(1)
	stw 26,8(1)
.LEHB10:
.LBB4763:
	.loc 2 301 0
	.cfi_offset 26, -24
	.cfi_offset 31, -4
	bl _Znwj
.LEHE10:
.LVL903:
.LBB4632:
.LBB4633:
.LBB4634:
.LBB4635:
	.loc 1 307 0
	lis 11,_ZTV14idFixedWinding+8@ha
.LBB4636:
.LBB4637:
	.loc 1 133 0
	li 0,0
.LBE4637:
.LBE4636:
	.loc 1 307 0
	la 11,_ZTV14idFixedWinding+8@l(11)
.LBE4635:
.LBE4634:
.LBB4642:
.LBB4643:
	.loc 3 159 0
	li 9,16
.LBE4643:
.LBE4642:
.LBB4647:
.LBB4640:
	.loc 1 309 0
	addi 28,3,20
	.loc 1 307 0
	stw 11,4(3)
	.loc 1 310 0
	li 11,64
.LBB4639:
.LBB4638:
	.loc 1 133 0
	stw 0,8(3)
.LBE4638:
.LBE4639:
	.loc 1 309 0
	stw 28,12(3)
.LBE4640:
.LBE4647:
.LBE4633:
.LBE4632:
	.loc 2 301 0
	mr 31,3
.LVL904:
.LBB4669:
.LBB4667:
.LBB4648:
.LBB4641:
	.loc 1 310 0
	stw 11,16(3)
.LVL905:
.LBE4641:
.LBE4648:
.LBB4649:
.LBB4646:
	.loc 3 159 0
	stw 9,1308(3)
.LVL906:
.LBB4644:
.LBB4645:
	.loc 3 197 0
	stw 0,1312(3)
	.loc 3 198 0
	stw 0,1300(3)
	.loc 3 199 0
	stw 0,1304(3)
.LVL907:
.LBE4645:
.LBE4644:
.LBE4646:
.LBE4649:
.LBB4650:
.LBB4651:
	.loc 3 159 0
	stw 9,1324(3)
.LVL908:
.LBB4652:
.LBB4653:
	.loc 3 197 0
	stw 0,1328(3)
	.loc 3 198 0
	stw 0,1316(3)
	.loc 3 199 0
	stw 0,1320(3)
.LVL909:
.LBE4653:
.LBE4652:
.LBE4651:
.LBE4650:
.LBB4654:
.LBB4655:
	.loc 3 159 0
	stw 9,1340(3)
.LVL910:
.LBB4656:
.LBB4657:
	.loc 3 197 0
	stw 0,1344(3)
	.loc 3 198 0
	stw 0,1332(3)
	.loc 3 199 0
	stw 0,1336(3)
.LBE4657:
.LBE4656:
.LBE4655:
.LBE4654:
	.loc 16 42 0
	addi 3,3,1348
.LVL911:
.LEHB11:
	bl _ZN19idPhysics_RigidBodyC1Ev
.LEHE11:
.LVL912:
.LBE4667:
.LBE4669:
	.loc 2 303 0 discriminator 1
	li 0,-1
	.loc 2 302 0 discriminator 1
	stw 27,0(31)
	.loc 2 303 0 discriminator 1
	stw 0,1892(31)
.LVL913:
.LBB4670:
.LBB4671:
.LBB4672:
.LBB4673:
.LBB4674:
.LBB4675:
	.loc 1 260 0 discriminator 1
	lwz 0,16(31)
.LBE4675:
.LBE4674:
	.loc 1 191 0 discriminator 1
	lwz 4,4(30)
.LVL914:
.LBB4680:
.LBB4678:
	.loc 1 260 0 discriminator 1
	cmpw 7,4,0
	bgt- 7,.L484
.LVL915:
.L437:
.LBE4678:
.LBE4680:
	.loc 1 195 0
	cmpwi 7,4,0
	li 10,0
	li 8,0
	ble- 7,.L440
.LVL916:
.L477:
	.loc 1 196 0
	lwz 9,8(30)
	.loc 1 195 0
	addi 8,8,1
.LVL917:
	.loc 1 196 0
	lwz 7,12(31)
	lwzux 4,9,10
	add 11,7,10
	lwz 0,12(9)
	lwz 5,4(9)
	lwz 6,8(9)
	stwx 4,7,10
	.loc 1 195 0
	addi 10,10,20
	.loc 1 196 0
	stw 5,4(11)
	stw 6,8(11)
	stw 0,12(11)
	lwz 0,16(9)
	stw 0,16(11)
	.loc 1 195 0
	lwz 4,4(30)
	cmpw 7,8,4
	blt+ 7,.L477
.LVL918:
.L440:
	.loc 1 198 0
	stw 4,8(31)
.L441:
.LBE4673:
.LBE4672:
	.loc 1 281 0
	mr 3,28
	addi 4,30,16
	li 5,1280
	bl memcpy
.LVL919:
.LBE4671:
.LBE4670:
.LBB4688:
.LBB4689:
	.loc 3 193 0
	lwz 3,1312(31)
	cmpwi 7,3,0
	beq- 7,.L442
	.loc 3 194 0
	bl _ZdaPv
.L442:
	.loc 3 197 0
	li 0,0
.LBE4689:
.LBE4688:
	.loc 2 306 0
	addi 28,31,1316
.LVL920:
.LBB4691:
.LBB4690:
	.loc 3 197 0
	stw 0,1312(31)
	.loc 3 198 0
	stw 0,1300(31)
	.loc 3 199 0
	stw 0,1304(31)
.LBE4690:
.LBE4691:
.LBB4692:
.LBB4693:
.LBB4694:
	.loc 3 481 0
	lwz 0,1320(31)
.LBE4694:
.LBE4693:
.LBE4692:
	.loc 2 1290 0
	lwz 27,4(30)
.LVL921:
.LBB4712:
.LBB4708:
.LBB4705:
	.loc 3 481 0
	cmpw 7,27,0
	ble- 7,.L443
.LBB4695:
	.loc 3 483 0
	lwz 9,1324(31)
	cmpwi 7,9,0
	addi 26,9,-1
	beq- 7,.L485
.L445:
	.loc 3 487 0
	add 26,27,26
.LVL922:
	.loc 3 489 0
	stw 0,1316(31)
	.loc 3 488 0
	divw 26,26,9
.LVL923:
.LBB4696:
.LBB4697:
	.loc 3 375 0
	mullw. 26,26,9
.LVL924:
	ble- 0,.L486
	.loc 3 380 0
	cmpw 7,0,26
	beq- 7,.L443
	.loc 3 385 0
	lwz 30,1328(31)
.LVL925:
	.loc 3 386 0
	stw 26,1320(31)
	.loc 3 387 0
	ble- 7,.L448
	.loc 3 388 0
	stw 26,1316(31)
.L448:
	.loc 3 392 0
	mr 3,26
.LEHB12:
	bl _Znaj
.LVL926:
	.loc 3 393 0
	lwz 0,1316(31)
	.loc 3 392 0
	stw 3,1328(31)
.LVL927:
	.loc 3 393 0
	cmpwi 7,0,0
	ble- 7,.L449
	li 9,0
	b .L450
.LVL928:
.L487:
	lwz 3,1328(31)
.LVL929:
.L450:
	.loc 3 394 0
	lbzx 0,30,9
	stbx 0,3,9
	.loc 3 393 0
	addi 9,9,1
.LVL930:
	lwz 0,0(28)
	cmpw 7,9,0
	blt+ 7,.L487
.LVL931:
.L449:
	.loc 3 398 0
	cmpwi 7,30,0
	beq- 7,.L482
	.loc 3 399 0
	mr 3,30
	bl _ZdaPv
.L482:
	lwz 9,1316(31)
.LVL932:
.LBE4697:
.LBE4696:
.LBB4701:
	.loc 3 492 0
	cmpw 7,26,9
	ble- 7,.L443
	.loc 3 493 0
	subf 26,9,26
.LVL933:
	li 0,0
	mtctr 26
.LVL934:
.L476:
	lwz 11,1328(31)
	stbx 0,11,9
	.loc 3 492 0
	addi 9,9,1
.LVL935:
	bdnz .L476
.LVL936:
.L443:
.LBE4701:
.LBE4695:
.LBE4705:
.LBE4708:
.LBE4712:
.LBB4713:
.LBB4714:
	.loc 3 193 0
	lwz 3,1344(31)
.LBE4714:
.LBE4713:
.LBB4717:
.LBB4709:
	.loc 3 497 0
	stw 27,1316(31)
.LVL937:
.LBE4709:
.LBE4717:
.LBB4718:
.LBB4715:
	.loc 3 193 0
	cmpwi 7,3,0
	beq- 7,.L454
	.loc 3 194 0
	bl _ZdaPv
.L454:
	.loc 3 197 0
	li 0,0
.LBE4715:
.LBE4718:
	.loc 2 309 0
	addi 28,29,760
.LVL938:
.LBB4719:
.LBB4716:
	.loc 3 197 0
	stw 0,1344(31)
	.loc 3 198 0
	stw 0,1332(31)
	.loc 3 199 0
	stw 0,1336(31)
.LBE4716:
.LBE4719:
	.loc 2 308 0
	stb 0,1896(31)
.LBB4720:
.LBB4721:
	.loc 3 655 0
	lwz 30,772(29)
	cmpwi 7,30,0
	beq- 7,.L455
	lwz 0,760(29)
	lwz 9,764(29)
.L456:
.LBB4722:
	.loc 3 659 0
	cmpw 7,9,0
	beq- 7,.L474
.L483:
.LBB4723:
.LBB4724:
.LBB4725:
	.loc 3 399 0
	slwi 0,0,2
	add 30,30,0
.L463:
.LBE4725:
.LBE4724:
.LBE4723:
.LBE4722:
	.loc 3 669 0
	stw 31,0(30)
	.loc 3 670 0
	lwz 9,760(29)
	addi 0,9,1
	stw 0,760(29)
.LBE4721:
.LBE4720:
.LBE4763:
	.loc 2 310 0
	lwz 0,36(1)
	lwz 26,8(1)
	mtlr 0
	lwz 27,12(1)
.LVL939:
	lwz 28,16(1)
.LVL940:
	lwz 29,20(1)
.LVL941:
	lwz 30,24(1)
	lwz 31,28(1)
.LVL942:
	addi 1,1,32
	.cfi_remember_state
.LCFI89:
	.cfi_def_cfa_offset 0
	.cfi_restore 31
	.cfi_restore 30
	.cfi_restore 29
	.cfi_restore 28
	.cfi_restore 27
	.cfi_restore 26
	blr
.LVL943:
.L485:
.LCFI90:
	.cfi_restore_state
.LBB4764:
.LBB4755:
.LBB4710:
.LBB4706:
.LBB4703:
	.loc 3 484 0
	li 9,16
	li 26,15
	stw 9,1324(31)
	b .L445
.LVL944:
.L474:
	lwz 0,768(29)
.LBE4703:
.LBE4706:
.LBE4710:
.LBE4755:
.LBB4756:
.LBB4752:
.LBB4739:
	.loc 3 659 0
	mr 10,9
.L458:
.LBB4736:
	.loc 3 662 0
	cmpwi 7,0,0
	beq- 7,.L488
.L464:
	.loc 3 665 0
	add 11,9,0
.LVL945:
	.loc 3 666 0
	divw 11,11,0
.LVL946:
.LBB4732:
.LBB4728:
	.loc 3 375 0
	mullw. 0,11,0
.LVL947:
	ble- 0,.L489
	.loc 3 380 0
	cmpw 7,9,0
	beq- 7,.L490
.LVL948:
	.loc 3 387 0
	cmpw 7,0,10
	.loc 3 386 0
	stw 0,764(29)
	.loc 3 387 0
	blt- 7,.L491
.L468:
	.loc 3 392 0
	slwi 3,0,2
	bl _Znaj
.LVL949:
	.loc 3 393 0
	lwz 0,760(29)
	.loc 3 392 0
	stw 3,772(29)
.LVL950:
	.loc 3 393 0
	cmpwi 7,0,0
	ble- 7,.L469
	.loc 2 300 0
	addi 11,30,-4
.LBE4728:
.LBE4732:
	.loc 3 393 0
	li 9,0
	b .L470
.LVL951:
.L492:
.LBB4733:
.LBB4729:
	lwz 3,772(29)
.LVL952:
.L470:
	.loc 3 394 0
	lwzu 10,4(11)
	slwi 0,9,2
	.loc 3 393 0
	addi 9,9,1
.LVL953:
	.loc 3 394 0
	stwx 10,3,0
	.loc 3 393 0
	lwz 0,0(28)
	cmpw 7,9,0
	blt+ 7,.L492
.LVL954:
.L469:
	.loc 3 398 0
	cmpwi 7,30,0
	beq- 7,.L493
	.loc 3 399 0
	mr 3,30
	bl _ZdaPv
	lwz 0,760(29)
	lwz 30,772(29)
.LVL955:
	b .L483
.LVL956:
.L484:
.LBE4729:
.LBE4733:
.LBE4736:
.LBE4739:
.LBE4752:
.LBE4756:
.LBB4757:
.LBB4686:
.LBB4684:
.LBB4682:
.LBB4681:
.LBB4679:
.LBB4676:
.LBB4677:
	.loc 1 261 0
	lwz 9,4(31)
	addi 3,31,4
	li 5,0
	lwz 0,12(9)
	mtctr 0
	bctrl
.LVL957:
.LBE4677:
.LBE4676:
.LBE4679:
.LBE4681:
	.loc 1 191 0
	cmpwi 0,3,0
	bne- 0,.L494
	.loc 1 192 0
	stw 3,8(31)
	b .L441
.LVL958:
.L488:
.LBE4682:
.LBE4684:
.LBE4686:
.LBE4757:
.LBB4758:
.LBB4753:
.LBB4740:
.LBB4737:
	.loc 3 663 0
	li 0,16
	stw 0,768(29)
	b .L464
.LVL959:
.L491:
.LBB4734:
.LBB4730:
	.loc 3 388 0
	stw 0,760(29)
	b .L468
.LVL960:
.L490:
	.loc 3 380 0
	slwi 10,10,2
	add 30,30,10
	b .L463
.LVL961:
.L455:
.LBE4730:
.LBE4734:
.LBE4737:
.LBE4740:
	.loc 3 656 0
	lwz 9,768(29)
.LBB4741:
.LBB4742:
	.loc 3 375 0
	cmpwi 7,9,0
.LBE4742:
.LBE4741:
	.loc 3 656 0
	mr 0,9
.LVL962:
.LBB4748:
.LBB4745:
	.loc 3 375 0
	ble- 7,.L495
	.loc 3 380 0
	lwz 11,764(29)
	cmpw 7,9,11
	beq- 7,.L496
.LVL963:
	.loc 3 387 0
	lwz 9,760(29)
	.loc 3 386 0
	stw 0,764(29)
	.loc 3 387 0
	cmpw 7,0,9
	bge- 7,.L460
	.loc 3 388 0
	stw 0,760(29)
.L460:
	.loc 3 392 0
	slwi 3,0,2
	bl _Znaj
.LVL964:
	.loc 3 393 0
	lwz 0,760(29)
	.loc 3 392 0
	mr 30,3
	stw 3,772(29)
.LVL965:
	.loc 3 393 0
	cmpwi 7,0,0
	li 9,0
	li 11,0
	bgt+ 7,.L480
	b .L499
.LVL966:
.L498:
	lwz 30,772(29)
.LVL967:
.L480:
	.loc 3 394 0
	lwz 0,0(9)
	.loc 3 393 0
	addi 11,11,1
.LVL968:
	.loc 3 394 0
	stwx 0,30,9
	.loc 3 393 0
	addi 9,9,4
	lwz 0,0(28)
	cmpw 7,11,0
	blt+ 7,.L498
	lwz 9,764(29)
	lwz 30,772(29)
	b .L456
.LVL969:
.L486:
.LBE4745:
.LBE4748:
.LBE4753:
.LBE4758:
.LBB4759:
.LBB4711:
.LBB4707:
.LBB4704:
.LBB4702:
.LBB4700:
.LBB4698:
.LBB4699:
	.loc 3 193 0
	lwz 3,1328(31)
	cmpwi 7,3,0
	beq- 7,.L447
	.loc 3 194 0
	bl _ZdaPv
.L447:
	.loc 3 197 0
	li 0,0
	stw 0,1328(31)
	.loc 3 199 0
	stw 0,1320(31)
.LVL970:
	b .L443
.LVL971:
.L496:
.LBE4699:
.LBE4698:
.LBE4700:
.LBE4702:
.LBE4704:
.LBE4707:
.LBE4711:
.LBE4759:
.LBB4760:
.LBB4754:
.LBB4749:
.LBB4746:
	.loc 3 380 0
	lwz 0,760(29)
.LVL972:
	b .L456
.LVL973:
.L489:
.LBE4746:
.LBE4749:
.LBB4750:
.LBB4738:
.LBB4735:
.LBB4731:
.LBB4726:
.LBB4727:
	.loc 3 193 0
	cmpwi 7,30,0
	beq- 7,.L466
	.loc 3 194 0
	mr 3,30
	bl _ZdaPv
.LVL974:
.L466:
	.loc 3 197 0
	li 0,0
	.loc 3 199 0
	li 30,0
	.loc 3 197 0
	stw 0,772(29)
	.loc 3 198 0
	stw 0,760(29)
	.loc 3 199 0
	stw 0,764(29)
	b .L463
.LVL975:
.L493:
.LBE4727:
.LBE4726:
	.loc 3 398 0
	lwz 0,760(29)
	lwz 30,772(29)
.LVL976:
	slwi 0,0,2
	add 30,30,0
	b .L463
.LVL977:
.L495:
.LBE4731:
.LBE4735:
.LBE4738:
.LBE4750:
.LBB4751:
.LBB4747:
.LBB4743:
.LBB4744:
	.loc 3 198 0
	stw 30,760(29)
	.loc 3 199 0
	li 10,0
	stw 30,764(29)
	li 9,0
	b .L458
.LVL978:
.L499:
.LBE4744:
.LBE4743:
	.loc 3 393 0
	lwz 9,764(29)
	b .L456
.LVL979:
.L475:
	mr 30,3
.LVL980:
.LBE4747:
.LBE4751:
.LBE4754:
.LBE4760:
.LBB4761:
.LBB4668:
.LBB4658:
.LBB4659:
.LBB4660:
	.loc 3 181 0
	addi 3,31,1332
	bl _ZN6idListIP7shard_sE5ClearEv
.LVL981:
.LBE4660:
.LBE4659:
.LBE4658:
.LBB4661:
.LBB4662:
.LBB4663:
	addi 3,31,1316
	bl _ZN6idListIbE5ClearEv
.LVL982:
.LBE4663:
.LBE4662:
.LBE4661:
.LBB4664:
.LBB4665:
.LBB4666:
	addi 3,31,1300
	bl _ZN6idListIP14idFixedWindingE5ClearEv
.LBE4666:
.LBE4665:
.LBE4664:
	.loc 16 42 0
	addi 3,31,4
	bl _ZN14idFixedWindingD1Ev
.LBE4668:
.LBE4761:
	.loc 2 301 0
	mr 3,31
	bl _ZdlPv
	mr 3,30
	bl _Unwind_Resume
.LEHE12:
.LVL983:
.L494:
.LBB4762:
.LBB4687:
.LBB4685:
.LBB4683:
	.loc 1 191 0
	lwz 4,4(30)
	b .L437
.LBE4683:
.LBE4685:
.LBE4687:
.LBE4762:
.LBE4764:
	.cfi_endproc
.LFE2828:
	.section	.gcc_except_table
.LLSDA2828:
	.byte	0xff
	.byte	0xff
	.byte	0x1
	.uleb128 .LLSDACSE2828-.LLSDACSB2828
.LLSDACSB2828:
	.uleb128 .LEHB10-.LFB2828
	.uleb128 .LEHE10-.LEHB10
	.uleb128 0
	.uleb128 0
	.uleb128 .LEHB11-.LFB2828
	.uleb128 .LEHE11-.LEHB11
	.uleb128 .L475-.LFB2828
	.uleb128 0
	.uleb128 .LEHB12-.LFB2828
	.uleb128 .LEHE12-.LEHB12
	.uleb128 0
	.uleb128 0
.LLSDACSE2828:
	.section	".text"
	.size	_ZN17idBrittleFracture8AddShardEP11idClipModelR14idFixedWinding, .-_ZN17idBrittleFracture8AddShardEP11idClipModelR14idFixedWinding
	.align 2
	.globl _ZN17idBrittleFracture10Fracture_rER14idFixedWinding
	.type	_ZN17idBrittleFracture10Fracture_rER14idFixedWinding, @function
_ZN17idBrittleFracture10Fracture_rER14idFixedWinding:
.LFB2845:
	.loc 2 1013 0
	.cfi_startproc
	.cfi_personality 0,__gxx_personality_v0
	.cfi_lsda 0,.LLSDA2845
.LVL984:
	stwu 1,-4376(1)
.LCFI91:
	.cfi_def_cfa_offset 4376
.LVL985:
	mflr 0
.LBB4836:
.LBB4837:
.LBB4838:
	.loc 1 307 0
	lis 11,_ZTV14idFixedWinding+8@ha
.LBB4839:
.LBB4840:
	.loc 1 133 0
	li 9,0
.LBE4840:
.LBE4839:
	.loc 1 307 0
	la 11,_ZTV14idFixedWinding+8@l(11)
.LBE4838:
.LBE4837:
.LBE4836:
	.loc 2 1013 0
	stfd 31,4368(1)
.LBB4997:
.LBB4846:
.LBB4843:
	.loc 1 307 0
	stw 11,128(1)
	.loc 1 309 0
	addi 11,1,144
.LBE4843:
.LBE4846:
.LBE4997:
	.loc 2 1013 0
	stw 0,4380(1)
.LBB4998:
.LBB4847:
.LBB4848:
.LBB4849:
.LBB4850:
	.loc 15 208 0
	li 0,0
.LBE4850:
.LBE4849:
.LBE4848:
.LBE4847:
.LBB4854:
.LBB4844:
	.loc 1 309 0
	stw 11,136(1)
	.loc 1 310 0
	li 11,64
.LBE4844:
.LBE4854:
.LBE4998:
	.loc 2 1013 0
	stw 20,4280(1)
.LBB4999:
.LBB4855:
.LBB4856:
	.loc 4 732 0
	lis 20,.LC3@ha
	.cfi_offset 20, -96
	.cfi_offset 63, -8
	.cfi_offset 65, 4
.LBE4856:
.LBE4855:
.LBE4999:
	.loc 2 1013 0
	stw 21,4284(1)
.LBB5000:
.LBB4887:
.LBB4875:
.LBB4857:
.LBB4858:
	.loc 7 275 0
	lis 21,.LC11@ha
	.cfi_offset 21, -92
.LBE4858:
.LBE4857:
.LBE4875:
.LBE4887:
.LBE5000:
	.loc 2 1013 0
	stw 22,4288(1)
.LBB5001:
.LBB4888:
.LBB4876:
.LBB4864:
.LBB4859:
	.loc 7 276 0
	lis 22,_ZN6idMath5iSqrtE@ha
	.cfi_offset 22, -88
.LBE4859:
.LBE4864:
.LBE4876:
.LBE4888:
.LBE5001:
	.loc 2 1013 0
	stw 23,4292(1)
.LBB5002:
.LBB4889:
.LBB4877:
.LBB4865:
.LBB4860:
	.loc 7 276 0
	la 22,_ZN6idMath5iSqrtE@l(22)
.LBE4860:
.LBE4865:
.LBE4877:
.LBE4889:
.LBE5002:
	.loc 2 1013 0
	stw 24,4296(1)
.LBB5003:
.LBB4890:
.LBB4878:
.LBB4866:
.LBB4861:
	.loc 7 278 0
	lis 23,.LC13@ha
	.cfi_offset 24, -80
	.cfi_offset 23, -84
.LBE4861:
.LBE4866:
.LBE4878:
.LBE4890:
.LBE5003:
	.loc 2 1013 0
	stw 25,4300(1)
.LBB5004:
.LBB4891:
.LBB4892:
	.loc 10 83 0
	lis 24,.LC6@ha
.LBE4892:
.LBE4891:
.LBE5004:
	.loc 2 1013 0
	stw 26,4304(1)
.LBB5005:
	.loc 2 1056 0
	lis 25,.LC17@ha
	.cfi_offset 26, -72
	.cfi_offset 25, -76
.LBE5005:
	.loc 2 1013 0
	stw 27,4308(1)
.LBB5006:
.LBB4913:
.LBB4907:
	.loc 10 83 0
	lis 26,.LC10@ha
.LBE4907:
.LBE4913:
.LBE5006:
	.loc 2 1013 0
	stw 28,4312(1)
.LBB5007:
.LBB4914:
.LBB4908:
.LBB4893:
.LBB4894:
	.loc 10 71 0
	lis 28,gameLocal@ha
	.cfi_offset 28, -64
	.cfi_offset 27, -68
.LBE4894:
.LBE4893:
.LBE4908:
.LBE4914:
.LBE5007:
	.loc 2 1013 0
	stw 29,4316(1)
.LBB5008:
.LBB4915:
.LBB4909:
.LBB4901:
.LBB4895:
	.loc 10 71 0
	la 28,gameLocal@l(28)
.LBE4895:
.LBE4901:
.LBE4909:
.LBE4915:
.LBE5008:
	.loc 2 1013 0
	stw 31,4324(1)
	mr 29,3
	.cfi_offset 31, -52
	.cfi_offset 29, -60
	stfd 26,4328(1)
	mr 31,4
	stfd 27,4336(1)
.LBB5009:
.LBB4916:
.LBB4910:
.LBB4902:
.LBB4896:
	.loc 10 71 0
	addis 28,28,0x1
.LBE4896:
.LBE4902:
.LBE4910:
.LBE4916:
.LBE5009:
	.loc 2 1013 0
	stfd 28,4344(1)
.LBB5010:
	.loc 2 1032 0
	lis 27,_ZN6idMath6TWO_PIE@ha
.LBE5010:
	.loc 2 1013 0
	stfd 29,4352(1)
	stfd 30,4360(1)
	stw 30,4320(1)
.LBB5011:
.LBB4917:
.LBB4845:
.LBB4842:
.LBB4841:
	.loc 1 133 0
	stw 9,132(1)
.LBE4841:
.LBE4842:
	.loc 1 310 0
	stw 11,140(1)
.LVL986:
.LBE4845:
.LBE4917:
.LBB4918:
.LBB4853:
	.file 17 "d:/Data/Nintendo/DoomGX/src/game/../idlib/../idlib/geometry/TraceModel.h"
	.loc 17 161 0
	stw 9,1424(1)
	.loc 17 162 0
	stw 9,2480(1)
	stw 9,1816(1)
	stw 9,1428(1)
.LVL987:
.LBB4852:
.LBB4851:
	.loc 15 208 0
	stw 0,4244(1)
	stw 0,4240(1)
	stw 0,4236(1)
	stw 0,4232(1)
	stw 0,4228(1)
	stw 0,4224(1)
.LBE4851:
.LBE4852:
.LBE4853:
.LBE4918:
.LBB4919:
.LBB4879:
	.loc 4 731 0
	stw 0,4276(1)
	lfs 31,4276(1)
.LVL988:
.L507:
.LBE4879:
.LBE4919:
	.loc 2 1024 0
	addi 3,1,32
	mr 4,31
	addi 30,1,128
	.cfi_offset 30, -56
	.cfi_offset 62, -16
	.cfi_offset 61, -24
	.cfi_offset 60, -32
	.cfi_offset 59, -40
	.cfi_offset 58, -48
.LEHB13:
	bl _ZNK9idWinding9GetCenterEv
.LVL989:
	.loc 2 1025 0
	mr 3,31
	addi 4,1,44
.LBB4920:
.LBB4921:
	.loc 4 424 0
	lfs 30,32(1)
.LVL990:
	addi 30,1,128
	.loc 4 425 0
	lfs 29,36(1)
.LVL991:
	.loc 4 426 0
	lfs 28,40(1)
.LVL992:
.LBE4921:
.LBE4920:
	.loc 2 1025 0
	bl _ZNK9idWinding8GetPlaneER7idPlane
	.loc 2 1027 0
	mr 3,31
	addi 30,1,128
	bl _ZNK9idWinding7GetAreaEv
	lfs 0,648(29)
	fcmpu 7,1,0
	blt- 7,.L501
.LVL993:
.LBB4922:
.LBB4911:
.LBB4903:
.LBB4897:
	.loc 10 71 0
	lwz 0,-32064(28)
	lis 9,0x1
	ori 9,9,3533
.LBE4897:
.LBE4903:
	.loc 10 83 0
	lfs 12,.LC6@l(24)
.LBB4904:
.LBB4898:
	.loc 10 71 0
	mullw 9,9,0
.LBE4898:
.LBE4904:
	.loc 10 83 0
	lis 0,0x4330
	stw 0,4264(1)
	lfs 13,.LC10@l(26)
.LBE4911:
.LBE4922:
	.loc 2 1032 0
	lfs 0,_ZN6idMath6TWO_PIE@l(27)
.LBB4923:
.LBB4912:
.LBB4905:
.LBB4899:
	.loc 10 71 0
	addi 0,9,1
	.loc 10 72 0
	rlwinm 9,0,0,17,31
.LBE4899:
.LBE4905:
	.loc 10 83 0
	xoris 9,9,0x8000
	stw 9,4268(1)
	lfd 26,4264(1)
.LBB4906:
.LBB4900:
	.loc 10 71 0
	stw 0,-32064(28)
.LBE4900:
.LBE4906:
	.loc 10 83 0
	fsub 26,26,12
.LVL994:
	frsp 26,26
	fmuls 26,26,13
.LBE4912:
.LBE4923:
	.loc 2 1032 0
	fmuls 26,26,0
	.loc 2 1033 0
	fmr 1,26
	bl cos
.LVL995:
	frsp 27,1
.LVL996:
	.loc 2 1034 0
	fmr 1,26
	bl sin
.LBB4924:
.LBB4925:
	.loc 4 425 0
	lfs 0,48(1)
	.loc 4 424 0
	lfs 13,44(1)
.LBE4925:
.LBE4924:
	.loc 2 1034 0
	frsp 1,1
.LBB4927:
.LBB4880:
	.loc 4 730 0
	fmuls 12,0,0
.LBE4880:
.LBE4927:
.LBB4928:
.LBB4926:
	.loc 4 426 0
	lfs 8,52(1)
	.loc 4 424 0
	stfs 13,116(1)
	.loc 4 425 0
	stfs 0,120(1)
	.loc 4 730 0
	fmadds 12,13,13,12
	.loc 4 426 0
	stfs 8,124(1)
	.loc 4 730 0
	stfs 12,4272(1)
.LBE4926:
.LBE4928:
	.loc 2 1034 0
	fneg 12,1
.LVL997:
.LBB4929:
.LBB4881:
	.loc 4 731 0
	lfs 11,4272(1)
	fcmpu 7,11,31
	beq- 7,.L514
.LVL998:
.LBB4867:
.LBB4862:
	.loc 7 270 0
	lwz 0,4272(1)
.LVL999:
.LBE4862:
.LBE4867:
	.loc 4 737 0
	fneg 10,0
.LBB4868:
.LBB4863:
	.loc 7 275 0
	lfs 6,.LC11@l(21)
	.loc 7 276 0
	rlwinm 9,0,19,21,29
	rlwinm 11,0,9,24,31
	subfic 0,11,380
	lwzx 9,22,9
	rlwinm 0,0,22,0,8
	.loc 7 275 0
	fmuls 6,11,6
.LVL1000:
	.loc 7 276 0
	or 0,0,9
	.loc 7 278 0
	lfs 7,.LC13@l(23)
	.loc 7 277 0
	stw 0,4276(1)
	.loc 2 1013 0
	fneg 6,6
.LVL1001:
	.loc 7 277 0
	lfs 11,4276(1)
	fmr 9,11
.LVL1002:
	.loc 7 278 0
	fmul 11,9,9
.LVL1003:
	fmadd 11,6,11,7
	fmul 11,9,11
.LVL1004:
	.loc 7 279 0
	fmul 9,11,11
	fmadd 7,6,9,7
.LVL1005:
	fmul 11,11,7
.LVL1006:
	.loc 7 280 0
	frsp 11,11
.LVL1007:
.LBE4863:
.LBE4868:
	.loc 4 737 0
	fmuls 10,10,11
.LVL1008:
	.loc 4 738 0
	fmuls 11,13,11
.LVL1009:
.L502:
.LBB4869:
.LBB4870:
	.loc 4 620 0
	fmuls 6,8,10
.LBE4870:
.LBE4869:
.LBE4881:
.LBE4929:
.LBB4930:
.LBB4931:
	.loc 4 426 0
	lwz 4,4(31)
.LBE4931:
.LBE4930:
.LBB4938:
.LBB4882:
.LBB4873:
.LBB4871:
	.loc 4 620 0
	fmuls 7,13,11
.LBE4871:
.LBE4873:
.LBE4882:
.LBE4938:
.LBB4939:
.LBB4932:
	.loc 2 1041 0
	lis 9,.LC14@ha
.LBE4932:
.LBE4939:
.LBB4940:
.LBB4883:
.LBB4874:
.LBB4872:
	.loc 4 620 0
	fmuls 5,0,31
	cmpwi 6,4,0
.LBE4872:
.LBE4874:
.LBE4883:
.LBE4940:
	.loc 2 1038 0
	fneg 9,27
.LBB4941:
.LBB4933:
	.loc 2 1042 0
	li 5,0
.LBE4933:
.LBE4941:
.LBB4942:
.LBB4884:
	.loc 4 620 0
	fmsubs 0,0,10,7
.LVL1010:
.LBE4884:
.LBE4942:
.LBB4943:
.LBB4934:
	.loc 2 1043 0
	li 7,0
.LBE4934:
.LBE4943:
.LBB4944:
.LBB4885:
	.loc 4 620 0
	fmsubs 8,8,11,5
.LVL1011:
	addi 6,1,92
	fmsubs 13,13,31,6
.LVL1012:
.LBE4885:
.LBE4944:
.LBB4945:
.LBB4946:
	.loc 4 439 0
	fmuls 5,12,0
	fmuls 6,12,8
	fmuls 7,12,13
.LBE4946:
.LBE4945:
.LBB4947:
.LBB4948:
	fmuls 8,9,8
.LVL1013:
	fmuls 13,9,13
.LVL1014:
	fmuls 0,9,0
.LVL1015:
.LBE4948:
.LBE4947:
.LBB4949:
.LBB4950:
	.loc 4 452 0
	fmadds 6,27,10,6
.LVL1016:
	fmadds 7,27,11,7
.LVL1017:
.LBE4950:
.LBE4949:
.LBB4953:
.LBB4935:
	fmadds 10,12,10,8
	fmadds 11,12,11,13
.LBE4935:
.LBE4953:
.LBB4954:
.LBB4951:
	.loc 4 424 0
	stfs 6,92(1)
	.loc 4 452 0
	fmadds 27,27,31,5
.LVL1018:
	.loc 4 425 0
	stfs 7,96(1)
.LBE4951:
.LBE4954:
.LBB4955:
.LBB4936:
	.loc 4 452 0
	fmadds 12,12,31,0
.LVL1019:
	.loc 4 424 0
	stfs 10,104(1)
	.loc 4 425 0
	stfs 11,108(1)
.LBE4936:
.LBE4955:
.LBB4956:
.LBB4952:
	.loc 4 426 0
	stfs 27,100(1)
.LVL1020:
.LBE4952:
.LBE4956:
.LBB4957:
.LBB4937:
	stfs 12,112(1)
.LVL1021:
	.loc 2 1041 0
	lfs 11,.LC14@l(9)
	addi 9,1,60
.LVL1022:
.L506:
.LBE4937:
.LBE4957:
	.loc 2 1044 0
	mulli 10,7,12
	slwi 0,7,4
	add 11,6,10
.LBB4958:
.LBB4959:
	.loc 11 234 0
	lfsx 10,6,10
	.loc 11 235 0
	lfs 9,4(11)
	.loc 11 236 0
	lfs 8,8(11)
.LBE4959:
.LBE4958:
	.loc 2 1044 0
	add 11,9,0
.LBB4961:
.LBB4962:
.LBB4963:
.LBB4964:
	.loc 4 435 0
	fmuls 7,29,9
.LVL1023:
.LBE4964:
.LBE4963:
.LBE4962:
.LBE4961:
.LBB4966:
.LBB4960:
	.loc 11 234 0
	stfsx 10,9,0
	.loc 11 235 0
	stfs 9,4(11)
	.loc 11 236 0
	stfs 8,8(11)
.LVL1024:
	.loc 4 435 0
	fmadds 7,30,10,7
	fmadds 7,28,8,7
.LBE4960:
.LBE4966:
.LBB4967:
.LBB4965:
	.loc 11 298 0
	fneg 0,7
	stfs 0,12(11)
.LVL1025:
.LBE4965:
.LBE4967:
	.loc 2 1046 0
	ble- 6,.L503
	lwz 8,8(31)
	mtctr 4
	li 11,0
.LVL1026:
.L505:
.LBB4968:
.LBB4969:
	.loc 1 209 0
	add 10,8,11
.LVL1027:
.LBE4969:
.LBE4968:
.LBB4970:
.LBB4971:
	.loc 11 325 0
	lfsx 12,8,11
	lfs 0,4(10)
	lfs 13,8(10)
	fmuls 0,9,0
	fmadds 0,10,12,0
	fmadds 0,8,13,0
	fsubs 0,0,7
.LBE4971:
.LBE4970:
	.loc 2 1048 0
	fcmpu 7,11,0
	bnl- 7,.L504
	.loc 2 1049 0
	fmr 11,0
.LVL1028:
	.loc 2 1048 0
	mr 5,7
.L504:
.LVL1029:
	.loc 2 1046 0
	addi 11,11,20
	bdnz .L505
.LVL1030:
.L503:
	.loc 2 1043 0
	cmpwi 7,7,1
	addi 7,7,1
.LVL1031:
	bne- 7,.L506
	.loc 2 1056 0
	addi 30,1,128
	slwi 5,5,4
	lfs 1,.LC17@l(25)
	mr 3,31
	mr 4,30
	add 5,9,5
	bl _ZN14idFixedWinding5SplitEPS_RK7idPlanef
.LVL1032:
	cmpwi 7,3,0
	beq- 7,.L501
	.loc 2 1061 0
	mr 3,29
	mr 4,30
	bl _ZN17idBrittleFracture10Fracture_rER14idFixedWinding
	b .L507
.LVL1033:
.L514:
.LBB4972:
.LBB4886:
	.loc 4 733 0
	lis 9,.LC14@ha
	.loc 4 732 0
	lfs 10,.LC3@l(20)
	.loc 4 733 0
	lfs 11,.LC14@l(9)
	b .L502
.LVL1034:
.L501:
.LBE4886:
.LBE4972:
	.loc 2 1065 0
	addi 3,1,20
	mr 4,31
	addi 30,1,128
	bl _ZNK9idWinding9GetCenterEv
.LVL1035:
	.loc 2 1066 0
	lwz 0,4(31)
.LBB4973:
.LBB4974:
	.loc 4 424 0
	lfs 31,20(1)
.LVL1036:
.LBE4974:
.LBE4973:
	.loc 2 1066 0
	cmpwi 7,0,0
.LBB4976:
.LBB4975:
	.loc 4 425 0
	lfs 29,24(1)
.LVL1037:
	.loc 4 426 0
	lfs 30,28(1)
.LVL1038:
.LBE4975:
.LBE4976:
	.loc 2 1066 0
	ble- 7,.L508
	li 9,0
	li 8,0
.LVL1039:
.L509:
.LBB4977:
.LBB4978:
	.loc 1 209 0 discriminator 2
	lwz 10,8(31)
.LBE4978:
.LBE4977:
	.loc 2 1066 0 discriminator 2
	addi 8,8,1
.LVL1040:
.LBB4980:
.LBB4981:
	.loc 4 481 0 discriminator 2
	lfsx 0,10,9
.LBE4981:
.LBE4980:
.LBB4984:
.LBB4979:
	.loc 1 209 0 discriminator 2
	add 11,10,9
.LVL1041:
.LBE4979:
.LBE4984:
.LBB4985:
.LBB4982:
	.loc 4 481 0 discriminator 2
	fsubs 0,0,31
	stfsx 0,10,9
.LBE4982:
.LBE4985:
	.loc 2 1066 0 discriminator 2
	addi 9,9,20
.LVL1042:
.LBB4986:
.LBB4983:
	.loc 4 482 0 discriminator 2
	lfs 13,4(11)
	.loc 4 483 0 discriminator 2
	lfs 0,8(11)
	.loc 4 482 0 discriminator 2
	fsubs 13,13,29
	.loc 4 483 0 discriminator 2
	fsubs 0,0,30
	.loc 4 482 0 discriminator 2
	stfs 13,4(11)
	.loc 4 483 0 discriminator 2
	stfs 0,8(11)
.LBE4983:
.LBE4986:
	.loc 2 1066 0 discriminator 2
	lwz 0,4(31)
	cmpw 7,0,8
	bgt+ 7,.L509
.LVL1043:
.L508:
	.loc 2 1069 0
	lis 9,.LC17@ha
	mr 3,31
	lfs 1,.LC17@l(9)
	addi 30,1,128
	bl _ZN9idWinding17RemoveEqualPointsEf
	.loc 2 1071 0
	addi 3,1,1424
	mr 4,31
	addi 30,1,128
	bl _ZN12idTraceModel12SetupPolygonERK9idWinding
	.loc 2 1072 0
	lis 9,.LC20@ha
	addi 3,1,1424
	lfs 1,.LC20@l(9)
	addi 30,1,128
	bl _ZN12idTraceModel6ShrinkEf
	.loc 2 1073 0
	li 3,140
	addi 30,1,128
	bl _Znwj
.LEHE13:
	addi 4,1,1424
	mr 28,3
.LEHB14:
	bl _ZN11idClipModelC1ERK12idTraceModel
.LEHE14:
.LVL1044:
	.loc 2 1075 0 discriminator 1
	lis 9,.LC3@ha
	addi 27,29,716
	lfs 1,.LC3@l(9)
	mr 3,27
	lwz 5,760(29)
	mr 4,28
	li 6,1
	addi 30,1,128
.LEHB15:
	bl _ZN21idPhysics_StaticMulti12SetClipModelEP11idClipModelfib
	.loc 2 1076 0
	mr 3,29
	addi 30,1,128
	bl _ZNK8idEntity10GetPhysicsEv
	lwz 9,0(3)
	li 4,0
	addi 30,1,128
	lwz 0,132(9)
	mtctr 0
	bctrl
.LVL1045:
.LBB4987:
.LBB4988:
	.loc 4 452 0 discriminator 1
	lfs 0,0(3)
.LBE4988:
.LBE4987:
	.loc 2 1076 0 discriminator 1
	addi 4,1,8
.LBB4994:
.LBB4991:
	.loc 4 452 0 discriminator 1
	lfs 12,4(3)
	addi 30,1,128
	lfs 13,8(3)
	fadds 31,31,0
	fadds 29,29,12
.LBE4991:
.LBE4994:
	.loc 2 1076 0 discriminator 1
	lwz 5,760(29)
.LBB4995:
.LBB4992:
	.loc 4 452 0 discriminator 1
	fadds 30,30,13
.LVL1046:
.LBE4992:
.LBE4995:
	.loc 2 1076 0 discriminator 1
	mr 3,27
.LVL1047:
.LBB4996:
.LBB4993:
.LBB4989:
.LBB4990:
	.loc 4 396 0 discriminator 1
	stfs 31,8(1)
	.loc 4 397 0 discriminator 1
	stfs 29,12(1)
	.loc 4 398 0 discriminator 1
	stfs 30,16(1)
.LBE4990:
.LBE4989:
.LBE4993:
.LBE4996:
	.loc 2 1076 0 discriminator 1
	bl _ZN21idPhysics_StaticMulti9SetOriginERK6idVec3i
.LVL1048:
	.loc 2 1077 0
	mr 3,29
	addi 30,1,128
	bl _ZNK8idEntity10GetPhysicsEv
	lwz 9,0(3)
	li 4,0
	addi 30,1,128
	lwz 0,136(9)
	mtctr 0
	bctrl
	.loc 2 1077 0 is_stmt 0 discriminator 1
	lwz 5,760(29)
	mr 4,3
	mr 3,27
	addi 30,1,128
	bl _ZN21idPhysics_StaticMulti7SetAxisERK6idMat3i
	.loc 2 1079 0 is_stmt 1
	mr 3,29
	mr 4,28
	mr 5,31
	addi 30,1,128
	bl _ZN17idBrittleFracture8AddShardEP11idClipModelR14idFixedWinding
.LEHE15:
.LBE5011:
	.loc 2 1080 0
	lwz 0,4380(1)
	lwz 20,4280(1)
	mtlr 0
	lwz 21,4284(1)
	lwz 22,4288(1)
	lwz 23,4292(1)
	lwz 24,4296(1)
	lwz 25,4300(1)
	lwz 26,4304(1)
	lwz 27,4308(1)
	lwz 28,4312(1)
.LVL1049:
	lwz 29,4316(1)
.LVL1050:
	lwz 30,4320(1)
	lwz 31,4324(1)
.LVL1051:
	lfd 26,4328(1)
	lfd 27,4336(1)
	lfd 28,4344(1)
	lfd 29,4352(1)
.LVL1052:
	lfd 30,4360(1)
.LVL1053:
	lfd 31,4368(1)
	addi 1,1,4376
	.cfi_remember_state
.LCFI92:
	.cfi_def_cfa_offset 0
	.cfi_restore 63
	.cfi_restore 62
	.cfi_restore 61
	.cfi_restore 60
	.cfi_restore 59
	.cfi_restore 58
	.cfi_restore 31
	.cfi_restore 30
	.cfi_restore 29
	.cfi_restore 28
	.cfi_restore 27
	.cfi_restore 26
	.cfi_restore 25
	.cfi_restore 24
	.cfi_restore 23
	.cfi_restore 22
	.cfi_restore 21
	.cfi_restore 20
	blr
.LVL1054:
.L516:
.LCFI93:
	.cfi_restore_state
	mr 31,3
.LVL1055:
.L513:
.LBB5012:
	.loc 2 1079 0
	mr 3,30
	bl _ZN14idFixedWindingD1Ev
	mr 3,31
.LEHB16:
	bl _Unwind_Resume
.LEHE16:
.LVL1056:
.L517:
	mr 31,3
.LVL1057:
	.loc 2 1073 0
	mr 3,28
	bl _ZdlPv
	addi 30,1,128
	b .L513
.LBE5012:
	.cfi_endproc
.LFE2845:
	.section	.gcc_except_table
.LLSDA2845:
	.byte	0xff
	.byte	0xff
	.byte	0x1
	.uleb128 .LLSDACSE2845-.LLSDACSB2845
.LLSDACSB2845:
	.uleb128 .LEHB13-.LFB2845
	.uleb128 .LEHE13-.LEHB13
	.uleb128 .L516-.LFB2845
	.uleb128 0
	.uleb128 .LEHB14-.LFB2845
	.uleb128 .LEHE14-.LEHB14
	.uleb128 .L517-.LFB2845
	.uleb128 0
	.uleb128 .LEHB15-.LFB2845
	.uleb128 .LEHE15-.LEHB15
	.uleb128 .L516-.LFB2845
	.uleb128 0
	.uleb128 .LEHB16-.LFB2845
	.uleb128 .LEHE16-.LEHB16
	.uleb128 0
	.uleb128 0
.LLSDACSE2845:
	.section	".text"
	.size	_ZN17idBrittleFracture10Fracture_rER14idFixedWinding, .-_ZN17idBrittleFracture10Fracture_rER14idFixedWinding
	.align 2
	.globl _ZN17idBrittleFracture15CreateFracturesEPK13idRenderModel
	.type	_ZN17idBrittleFracture15CreateFracturesEPK13idRenderModel, @function
_ZN17idBrittleFracture15CreateFracturesEPK13idRenderModel:
.LFB2846:
	.loc 2 1087 0
	.cfi_startproc
	.cfi_personality 0,__gxx_personality_v0
	.cfi_lsda 0,.LLSDA2846
.LVL1058:
	mflr 0
	stwu 1,-1360(1)
.LCFI94:
	.cfi_def_cfa_offset 1360
	.cfi_register 65, 0
.LVL1059:
.LBB5048:
.LBB5049:
.LBB5050:
	.loc 1 307 0
	lis 9,_ZTV14idFixedWinding+8@ha
.LBE5050:
.LBE5049:
.LBE5048:
	.loc 2 1087 0
	stw 31,1356(1)
.LBB5113:
	.loc 2 1093 0
	mr. 31,4
	.cfi_offset 31, -4
.LBE5113:
	.loc 2 1087 0
	stw 0,1364(1)
.LBB5114:
.LBB5055:
.LBB5053:
.LBB5051:
.LBB5052:
	.loc 1 133 0
	li 0,0
	.cfi_offset 65, 4
	stw 0,12(1)
.LBE5052:
.LBE5051:
	.loc 1 307 0
	la 0,_ZTV14idFixedWinding+8@l(9)
	stw 0,8(1)
	.loc 1 309 0
	addi 0,1,24
	stw 0,16(1)
	.loc 1 310 0
	li 0,64
.LBE5053:
.LBE5055:
.LBE5114:
	.loc 2 1087 0
	stw 21,1316(1)
	mr 21,3
	.cfi_offset 21, -44
	stw 19,1308(1)
	stw 20,1312(1)
	stw 22,1320(1)
	stw 23,1324(1)
	stw 24,1328(1)
	stw 25,1332(1)
	stw 26,1336(1)
	stw 27,1340(1)
	stw 28,1344(1)
	stw 29,1348(1)
	stw 30,1352(1)
.LBB5115:
.LBB5056:
.LBB5054:
	.loc 1 310 0
	stw 0,20(1)
.LBE5054:
.LBE5056:
	.loc 2 1093 0
	beq- 0,.L522
	.cfi_offset 30, -8
	.cfi_offset 29, -12
	.cfi_offset 28, -16
	.cfi_offset 27, -20
	.cfi_offset 26, -24
	.cfi_offset 25, -28
	.cfi_offset 24, -32
	.cfi_offset 23, -36
	.cfi_offset 22, -40
	.cfi_offset 20, -48
	.cfi_offset 19, -52
	.loc 2 1097 0
	addi 19,3,716
	mr 4,21
.LVL1060:
	mr 3,19
.LVL1061:
	addi 22,1,8
.LEHB17:
	bl _ZN21idPhysics_StaticMulti7SetSelfEP8idEntity
.LVL1062:
	.loc 2 1098 0
	mr 3,21
	addi 22,1,8
	bl _ZNK8idEntity10GetPhysicsEv
	lwz 9,0(3)
	li 4,0
	addi 22,1,8
	lwz 0,132(9)
	mtctr 0
	bctrl
	.loc 2 1098 0 is_stmt 0 discriminator 1
	mr 4,3
	li 5,0
	mr 3,19
	addi 22,1,8
	bl _ZN21idPhysics_StaticMulti9SetOriginERK6idVec3i
	.loc 2 1099 0 is_stmt 1
	mr 3,21
	addi 22,1,8
	bl _ZNK8idEntity10GetPhysicsEv
	lwz 9,0(3)
	li 4,0
	addi 22,1,8
	lwz 0,136(9)
	mtctr 0
	bctrl
	.loc 2 1099 0 is_stmt 0 discriminator 1
	mr 4,3
	li 5,0
	mr 3,19
	addi 22,1,8
	bl _ZN21idPhysics_StaticMulti7SetAxisERK6idMat3i
.LVL1063:
	.loc 2 1102 0 is_stmt 1
	lwz 9,0(31)
	mr 3,31
	li 4,0
	addi 22,1,8
	lwz 0,96(9)
	mtctr 0
	bctrl
	.loc 2 1103 0
	lwz 11,4(3)
	.loc 2 1102 0
	mr 26,3
.LVL1064:
	.loc 2 1103 0
	stw 11,636(21)
.LVL1065:
	.loc 2 1105 0
	lwz 9,8(3)
	lwz 0,44(9)
	cmpwi 7,0,0
	ble- 7,.L524
	li 24,8
	li 23,0
	addi 22,1,8
.LBB5057:
.LBB5058:
	.loc 1 399 0
	li 20,0
.LBE5058:
.LBE5057:
.LBB5062:
.LBB5063:
.LBB5064:
.LBB5065:
	.loc 4 1127 0
	li 25,0
.LVL1066:
.L529:
.LBE5065:
.LBE5064:
.LBE5063:
.LBE5062:
.LBB5096:
.LBB5059:
	.loc 1 399 0
	stw 20,12(1)
.LVL1067:
	li 11,0
.LBE5059:
.LBE5096:
	.loc 2 1108 0
	lwz 10,48(9)
.LBB5097:
.LBB5060:
	.loc 1 399 0
	mr 29,24
.LBE5060:
.LBE5097:
.LBB5098:
.LBB5090:
.LBB5071:
.LBB5072:
	.loc 1 260 0
	lwz 0,20(1)
.LBE5072:
.LBE5071:
	.loc 1 223 0
	addi 4,11,1
.LBE5090:
.LBE5098:
	.loc 2 1108 0
	lwzx 28,10,29
.LBB5099:
.LBB5061:
	.loc 1 399 0
	li 31,0
.LBE5061:
.LBE5099:
.LBB5100:
.LBB5091:
.LBB5080:
.LBB5075:
	.loc 1 260 0
	cmpw 7,4,0
.LBE5075:
.LBE5080:
.LBE5091:
.LBE5100:
	.loc 2 1108 0
	lwz 27,40(9)
	mulli 28,28,60
	add 30,27,28
.LVL1068:
.LBB5101:
.LBB5092:
.LBB5081:
.LBB5076:
	.loc 1 260 0
	bgt- 7,.L536
.LVL1069:
.L525:
.LBE5076:
.LBE5081:
.LBB5082:
.LBB5066:
	.loc 4 1124 0
	lwzx 0,27,28
.LBE5066:
.LBE5082:
	.loc 1 226 0
	mulli 11,11,20
	lwz 9,16(1)
.LBB5083:
.LBB5067:
	.loc 4 1124 0
	stwx 0,9,11
.LBE5067:
.LBE5083:
	.loc 1 226 0
	add 11,9,11
.LVL1070:
.LBB5084:
.LBB5068:
	.loc 4 1125 0
	lwz 0,4(30)
	stw 0,4(11)
.LBE5068:
.LBE5084:
	.loc 1 227 0
	lwz 10,12(1)
.LBB5085:
.LBB5069:
	.loc 4 1126 0
	lwz 9,8(30)
.LBE5069:
.LBE5085:
	.loc 1 227 0
	addi 0,10,1
.LBB5086:
.LBB5070:
	.loc 4 1127 0
	stw 25,16(11)
	.loc 4 1126 0
	stw 9,8(11)
	.loc 4 1127 0
	stw 25,12(11)
.LBE5070:
.LBE5086:
	.loc 1 227 0
	stw 0,12(1)
.LVL1071:
.L526:
.LBE5092:
.LBE5101:
.LBB5102:
.LBB5103:
	.loc 1 209 0
	lwz 9,16(1)
.LBE5103:
.LBE5102:
	.loc 2 1107 0
	cmpwi 7,31,40
.LBB5105:
.LBB5106:
	.loc 4 148 0
	lwz 0,12(30)
.LBE5106:
.LBE5105:
	.loc 2 1111 0
	addi 29,29,-4
.LBB5107:
.LBB5104:
	.loc 1 209 0
	add 9,9,31
.LVL1072:
.LBE5104:
.LBE5107:
	.loc 2 1107 0
	addi 31,31,20
	.loc 2 1110 0
	stw 0,12(9)
.LVL1073:
.LBB5108:
.LBB5109:
	.loc 4 148 0
	lwz 0,16(30)
.LBE5109:
.LBE5108:
	.loc 2 1111 0
	stw 0,16(9)
	.loc 2 1107 0
	beq- 7,.L527
	lwz 9,8(26)
	lwz 11,12(1)
	.loc 2 1108 0
	lwz 10,48(9)
.LBB5110:
.LBB5093:
.LBB5087:
.LBB5077:
	.loc 1 260 0
	lwz 0,20(1)
.LBE5077:
.LBE5087:
	.loc 1 223 0
	addi 4,11,1
.LBE5093:
.LBE5110:
	.loc 2 1108 0
	lwzx 28,10,29
.LBB5111:
.LBB5094:
.LBB5088:
.LBB5078:
	.loc 1 260 0
	cmpw 7,4,0
.LBE5078:
.LBE5088:
.LBE5094:
.LBE5111:
	.loc 2 1108 0
	lwz 27,40(9)
	mulli 28,28,60
	add 30,27,28
.LVL1074:
.LBB5112:
.LBB5095:
.LBB5089:
.LBB5079:
	.loc 1 260 0
	ble+ 7,.L525
.LVL1075:
.L536:
.LBB5073:
.LBB5074:
	.loc 1 261 0
	lwz 9,8(1)
	mr 3,22
	li 5,1
	lwz 0,12(9)
	mtctr 0
	bctrl
.LVL1076:
.LBE5074:
.LBE5073:
.LBE5079:
.LBE5089:
	.loc 1 223 0
	cmpwi 7,3,0
	beq+ 7,.L526
	lwz 11,12(1)
	b .L525
.LVL1077:
.L527:
.LBE5095:
.LBE5112:
	.loc 2 1113 0
	mr 3,21
	mr 4,22
	bl _ZN17idBrittleFracture10Fracture_rER14idFixedWinding
	.loc 2 1105 0
	lwz 9,8(26)
	addi 23,23,3
.LVL1078:
	addi 24,24,12
	lwz 0,44(9)
	cmpw 7,0,23
	bgt+ 7,.L529
	lwz 11,636(21)
.LVL1079:
.L524:
	.loc 2 1117 0 discriminator 1
	lwz 4,96(11)
	mr 3,19
	li 5,-1
	addi 22,1,8
	bl _ZN21idPhysics_StaticMulti11SetContentsEii
	.loc 2 1118 0
	mr 3,21
	mr 4,19
	addi 22,1,8
	bl _ZN8idEntity10SetPhysicsEP9idPhysics
.LEHE17:
.LVL1080:
.L522:
.LBE5115:
	.loc 2 1119 0
	lwz 0,1364(1)
	lwz 19,1308(1)
	mtlr 0
	lwz 20,1312(1)
	lwz 21,1316(1)
.LVL1081:
	lwz 22,1320(1)
	lwz 23,1324(1)
	lwz 24,1328(1)
	lwz 25,1332(1)
	lwz 26,1336(1)
	lwz 27,1340(1)
	lwz 28,1344(1)
	lwz 29,1348(1)
	lwz 30,1352(1)
	lwz 31,1356(1)
	addi 1,1,1360
	.cfi_remember_state
.LCFI95:
	.cfi_def_cfa_offset 0
	.cfi_restore 31
	.cfi_restore 30
	.cfi_restore 29
	.cfi_restore 28
	.cfi_restore 27
	.cfi_restore 26
	.cfi_restore 25
	.cfi_restore 24
	.cfi_restore 23
	.cfi_restore 22
	.cfi_restore 21
	.cfi_restore 20
	.cfi_restore 19
	blr
.LVL1082:
.L534:
.LCFI96:
	.cfi_restore_state
	mr 31,3
.LBB5116:
	.loc 2 1118 0
	mr 3,22
	bl _ZN14idFixedWindingD1Ev
	mr 3,31
.LEHB18:
	bl _Unwind_Resume
.LEHE18:
.LBE5116:
	.cfi_endproc
.LFE2846:
	.section	.gcc_except_table
.LLSDA2846:
	.byte	0xff
	.byte	0xff
	.byte	0x1
	.uleb128 .LLSDACSE2846-.LLSDACSB2846
.LLSDACSB2846:
	.uleb128 .LEHB17-.LFB2846
	.uleb128 .LEHE17-.LEHB17
	.uleb128 .L534-.LFB2846
	.uleb128 0
	.uleb128 .LEHB18-.LFB2846
	.uleb128 .LEHE18-.LEHB18
	.uleb128 0
	.uleb128 0
.LLSDACSE2846:
	.section	".text"
	.size	_ZN17idBrittleFracture15CreateFracturesEPK13idRenderModel, .-_ZN17idBrittleFracture15CreateFracturesEPK13idRenderModel
	.align 2
	.globl _ZN17idBrittleFracture5SpawnEv
	.type	_ZN17idBrittleFracture5SpawnEv, @function
_ZN17idBrittleFracture5SpawnEv:
.LFB2827:
	.loc 2 253 0
	.cfi_startproc
.LVL1083:
	mflr 0
	stwu 1,-24(1)
.LCFI97:
	.cfi_def_cfa_offset 24
	.cfi_register 65, 0
	.loc 2 256 0
	lis 9,declManager@ha
.LBB5191:
.LBB5192:
	.file 18 "d:/Data/Nintendo/DoomGX/src/game/../idlib/../idlib/Dict.h"
	.loc 18 241 0
	lis 4,.LC32@ha
.LBE5192:
.LBE5191:
	.loc 2 253 0
	stw 29,12(1)
.LBB5201:
.LBB5195:
	.loc 18 241 0
	la 4,.LC32@l(4)
.LBE5195:
.LBE5201:
	.loc 2 253 0
	stw 30,16(1)
	.loc 2 256 0
	addi 30,3,100
	.cfi_offset 30, -8
	.cfi_offset 29, -12
.LVL1084:
	.loc 2 253 0
	stw 31,20(1)
	mr 31,3
	.cfi_offset 31, -4
	stw 0,28(1)
.LBB5202:
.LBB5196:
	.loc 18 241 0
	mr 3,30
.LVL1085:
.LBE5196:
.LBE5202:
	.loc 2 253 0
	stw 28,8(1)
	.loc 2 256 0
	lwz 29,declManager@l(9)
	lwz 9,0(29)
	lwz 28,104(9)
	.cfi_offset 28, -16
	.cfi_offset 65, 4
.LBB5203:
.LBB5197:
	.loc 18 241 0
	bl _ZNK6idDict7FindKeyEPKc
.LVL1086:
	.loc 18 242 0
	cmpwi 0,3,0
	beq- 0,.L559
.LVL1087:
.LBB5193:
	.loc 2 1290 0
	lwz 9,4(3)
.LBE5193:
.LBE5197:
.LBE5203:
	.loc 2 256 0
	li 5,1
	li 6,0
	mtctr 28
.LBB5204:
.LBB5198:
.LBB5194:
	.loc 2 1290 0
	lwz 4,4(9)
.LBE5194:
.LBE5198:
.LBE5204:
	.loc 2 256 0
	mr 3,29
.LVL1088:
	bctrl
.LVL1089:
.LBB5205:
.LBB5206:
.LBB5207:
.LBB5208:
	.loc 18 241 0
	lis 4,.LC33@ha
.LBE5208:
.LBE5207:
.LBE5206:
.LBE5205:
	.loc 2 256 0
	stw 3,640(31)
.LVL1090:
.LBB5223:
.LBB5216:
.LBB5213:
.LBB5210:
	.loc 18 241 0
	la 4,.LC33@l(4)
	mr 3,30
	bl _ZNK6idDict7FindKeyEPKc
.LVL1091:
	.loc 18 242 0
	cmpwi 0,3,0
	beq- 0,.L560
.L589:
.LVL1092:
.LBB5209:
	.loc 2 1290 0
	lwz 9,4(3)
	lwz 3,4(9)
.LVL1093:
.LBE5209:
.LBE5210:
.LBE5213:
	.loc 18 249 0
	bl atof
.LVL1094:
.LBE5216:
.LBE5223:
.LBB5224:
.LBB5225:
.LBB5226:
.LBB5227:
	.loc 18 241 0
	lis 4,.LC34@ha
.LBE5227:
.LBE5226:
.LBE5225:
.LBE5224:
.LBB5245:
.LBB5217:
	.loc 18 249 0
	frsp 1,1
.LBE5217:
.LBE5245:
.LBB5246:
.LBB5239:
.LBB5234:
.LBB5229:
	.loc 18 241 0
	mr 3,30
	la 4,.LC34@l(4)
.LBE5229:
.LBE5234:
.LBE5239:
.LBE5246:
.LBB5247:
.LBB5218:
	.loc 18 249 0
	stfs 1,644(31)
.LVL1095:
.LBE5218:
.LBE5247:
.LBB5248:
.LBB5240:
.LBB5235:
.LBB5230:
	.loc 18 241 0
	bl _ZNK6idDict7FindKeyEPKc
.LVL1096:
	.loc 18 242 0
	cmpwi 0,3,0
	beq- 0,.L561
.L590:
.LVL1097:
.LBB5228:
	.loc 2 1290 0
	lwz 9,4(3)
	lwz 3,4(9)
.LVL1098:
.L540:
.LBE5228:
.LBE5230:
.LBE5235:
	.loc 18 249 0
	bl atof
.LBE5240:
.LBE5248:
.LBB5249:
.LBB5250:
	.loc 7 894 0
	lis 9,.LC24@ha
.LBE5250:
.LBE5249:
.LBB5253:
.LBB5241:
	.loc 18 249 0
	frsp 1,1
.LVL1099:
.LBE5241:
.LBE5253:
.LBB5254:
.LBB5251:
	.loc 7 894 0
	lfs 0,.LC24@l(9)
	fcmpu 7,1,0
	blt- 7,.L562
	.loc 7 897 0
	lis 9,.LC25@ha
	lfs 0,.LC25@l(9)
	fcmpu 7,1,0
	bgt- 7,.L562
.LBE5251:
.LBE5254:
	.loc 2 259 0
	stfs 1,648(31)
.LVL1100:
.LBB5255:
.LBB5256:
.LBB5257:
.LBB5258:
	.loc 18 241 0
	lis 4,.LC35@ha
	mr 3,30
	la 4,.LC35@l(4)
	bl _ZNK6idDict7FindKeyEPKc
.LVL1101:
	.loc 18 242 0
	cmpwi 0,3,0
	beq- 0,.L563
.L583:
.LVL1102:
.LBB5259:
	.loc 2 1290 0
	lwz 9,4(3)
	lwz 3,4(9)
.LVL1103:
.LBE5259:
.LBE5258:
.LBE5257:
	.loc 18 249 0
	bl atof
.LVL1104:
.LBE5256:
.LBE5255:
.LBB5270:
.LBB5271:
.LBB5272:
.LBB5273:
	.loc 18 241 0
	lis 4,.LC36@ha
.LBE5273:
.LBE5272:
.LBE5271:
.LBE5270:
.LBB5294:
.LBB5264:
	.loc 18 249 0
	frsp 1,1
.LBE5264:
.LBE5294:
.LBB5295:
.LBB5285:
.LBB5280:
.LBB5275:
	.loc 18 241 0
	mr 3,30
	la 4,.LC36@l(4)
.LBE5275:
.LBE5280:
.LBE5285:
.LBE5295:
.LBB5296:
.LBB5265:
	.loc 18 249 0
	stfs 1,652(31)
.LVL1105:
.LBE5265:
.LBE5296:
.LBB5297:
.LBB5286:
.LBB5281:
.LBB5276:
	.loc 18 241 0
	bl _ZNK6idDict7FindKeyEPKc
.LVL1106:
	.loc 18 242 0
	cmpwi 0,3,0
	beq- 0,.L564
.L584:
.LVL1107:
.LBB5274:
	.loc 2 1290 0
	lwz 9,4(3)
	lwz 3,4(9)
.LVL1108:
.LBE5274:
.LBE5276:
.LBE5281:
	.loc 18 249 0
	bl atof
.LVL1109:
.LBE5286:
.LBE5297:
.LBB5298:
.LBB5299:
.LBB5300:
.LBB5301:
	.loc 18 241 0
	lis 4,.LC37@ha
.LBE5301:
.LBE5300:
.LBE5299:
.LBE5298:
.LBB5322:
.LBB5287:
	.loc 18 249 0
	frsp 1,1
.LBE5287:
.LBE5322:
.LBB5323:
.LBB5313:
.LBB5308:
.LBB5303:
	.loc 18 241 0
	mr 3,30
	la 4,.LC37@l(4)
.LBE5303:
.LBE5308:
.LBE5313:
.LBE5323:
.LBB5324:
.LBB5288:
	.loc 18 249 0
	stfs 1,656(31)
.LVL1110:
.LBE5288:
.LBE5324:
.LBB5325:
.LBB5314:
.LBB5309:
.LBB5304:
	.loc 18 241 0
	bl _ZNK6idDict7FindKeyEPKc
.LVL1111:
	.loc 18 242 0
	cmpwi 0,3,0
	beq- 0,.L565
.L585:
.LVL1112:
.LBB5302:
	.loc 2 1290 0
	lwz 9,4(3)
	lis 28,.LC27@ha
	la 28,.LC27@l(28)
	lwz 3,4(9)
.LVL1113:
.LBE5302:
.LBE5304:
.LBE5309:
	.loc 18 249 0
	bl atof
.LVL1114:
.LBE5314:
.LBE5325:
.LBB5326:
.LBB5327:
.LBB5328:
.LBB5329:
	.loc 18 241 0
	lis 4,.LC38@ha
.LBE5329:
.LBE5328:
.LBE5327:
.LBE5326:
.LBB5350:
.LBB5315:
	.loc 18 249 0
	frsp 1,1
.LBE5315:
.LBE5350:
.LBB5351:
.LBB5341:
.LBB5336:
.LBB5331:
	.loc 18 241 0
	mr 3,30
	la 4,.LC38@l(4)
.LBE5331:
.LBE5336:
.LBE5341:
.LBE5351:
.LBB5352:
.LBB5316:
	.loc 18 249 0
	stfs 1,660(31)
.LVL1115:
.LBE5316:
.LBE5352:
.LBB5353:
.LBB5342:
.LBB5337:
.LBB5332:
	.loc 18 241 0
	bl _ZNK6idDict7FindKeyEPKc
.LVL1116:
	.loc 18 242 0
	cmpwi 0,3,0
	beq- 0,.L566
.L586:
.LVL1117:
.LBB5330:
	.loc 2 1290 0
	lwz 9,4(3)
	lwz 3,4(9)
.LVL1118:
.LBE5330:
.LBE5332:
.LBE5337:
	.loc 18 249 0
	bl atof
.LVL1119:
.LBE5342:
.LBE5353:
.LBB5354:
.LBB5355:
	.loc 18 241 0
	lis 4,.LC39@ha
.LBE5355:
.LBE5354:
.LBB5364:
.LBB5343:
	.loc 18 249 0
	frsp 1,1
.LBE5343:
.LBE5364:
.LBB5365:
.LBB5357:
	.loc 18 241 0
	mr 3,30
	la 4,.LC39@l(4)
.LBE5357:
.LBE5365:
.LBB5366:
.LBB5344:
	.loc 18 249 0
	stfs 1,664(31)
.LBE5344:
.LBE5366:
.LBB5367:
.LBB5358:
	.loc 18 241 0
	bl _ZNK6idDict7FindKeyEPKc
	.loc 18 242 0
	mr. 9,3
.LBE5358:
.LBE5367:
	.loc 2 264 0
	addi 3,31,684
.LVL1120:
.LBB5368:
.LBB5359:
	.loc 18 242 0
	beq- 0,.L567
.LVL1121:
.L587:
.LBB5356:
	.loc 2 1290 0
	lwz 9,4(9)
.LVL1122:
	lwz 4,4(9)
.LBE5356:
.LBE5359:
.LBE5368:
	.loc 2 264 0
	bl _ZN5idStraSEPKc
.LVL1123:
.LBB5369:
.LBB5370:
.LBB5371:
.LBB5372:
	.loc 18 241 0
	lis 4,.LC40@ha
	mr 3,30
	la 4,.LC40@l(4)
	bl _ZNK6idDict7FindKeyEPKc
.LVL1124:
	.loc 18 242 0
	cmpwi 0,3,0
	beq- 0,.L568
.L588:
.LVL1125:
.LBB5373:
	.loc 2 1290 0
	lwz 9,4(3)
	lwz 3,4(9)
.LVL1126:
.L548:
.LBE5373:
.LBE5372:
.LBE5371:
	.loc 18 249 0
	bl atof
.LBE5370:
.LBE5369:
.LBB5378:
.LBB5379:
	.loc 7 894 0
	lis 29,.LC29@ha
.LBE5379:
.LBE5378:
.LBB5382:
.LBB5376:
	.loc 18 249 0
	frsp 1,1
.LVL1127:
.LBE5376:
.LBE5382:
.LBB5383:
.LBB5380:
	.loc 7 894 0
	lfs 0,.LC29@l(29)
	fcmpu 7,1,0
	blt- 7,.L569
	.loc 7 897 0
	lis 9,.LC30@ha
	lfs 0,.LC30@l(9)
	fcmpu 7,1,0
	bgt- 7,.L569
.LVL1128:
.L549:
.LBE5380:
.LBE5383:
	.loc 2 268 0
	stfs 1,668(31)
	.loc 2 269 0
	lis 4,.LC41@ha
	mr 3,30
	la 4,.LC41@l(4)
	mr 5,28
	addi 6,31,672
	bl _ZNK6idDict8GetFloatEPKcS1_Rf
	.loc 2 270 0
	lfs 0,672(31)
.LVL1129:
.LBB5384:
.LBB5385:
	.loc 7 894 0
	lfs 13,.LC29@l(29)
	fcmpu 7,0,13
	blt- 7,.L570
	.loc 7 897 0
	lis 9,.LC30@ha
	lfs 13,.LC30@l(9)
	fcmpu 7,0,13
	bgt- 7,.L570
.LVL1130:
.L551:
.LBE5385:
.LBE5384:
	.loc 2 270 0
	stfs 0,672(31)
	.loc 2 271 0
	lis 4,.LC42@ha
	lis 5,.LC43@ha
	mr 3,30
	la 4,.LC42@l(4)
	la 5,.LC43@l(5)
	addi 6,31,676
	bl _ZNK6idDict8GetFloatEPKcS1_Rf
.LBB5387:
.LBB5388:
	.loc 7 894 0
	lis 9,.LC14@ha
.LBE5388:
.LBE5387:
	.loc 2 272 0
	lfs 0,676(31)
.LVL1131:
.LBB5391:
.LBB5389:
	.loc 7 894 0
	lfs 13,.LC14@l(9)
	fcmpu 7,0,13
	blt- 7,.L571
	.loc 7 897 0
	lis 9,.LC3@ha
	lfs 13,.LC3@l(9)
	fcmpu 7,0,13
	bgt- 7,.L571
.LBE5389:
.LBE5391:
	.loc 2 272 0
	stfs 0,676(31)
	.loc 2 273 0
	lis 4,.LC44@ha
	lis 5,.LC45@ha
	mr 3,30
	la 4,.LC44@l(4)
	la 5,.LC45@l(5)
	addi 6,31,680
	bl _ZNK6idDict8GetFloatEPKcS1_Rf
.LVL1132:
.LBB5392:
.LBB5393:
	.loc 7 894 0
	lis 9,.LC14@ha
.LBE5393:
.LBE5392:
	.loc 2 274 0
	lfs 0,680(31)
.LVL1133:
.LBB5397:
.LBB5394:
	.loc 7 894 0
	lfs 13,.LC14@l(9)
	fcmpu 7,0,13
	blt- 7,.L572
.L580:
	.loc 7 897 0
	lis 9,.LC3@ha
	lfs 13,.LC3@l(9)
	fcmpu 7,0,13
	bgt- 7,.L572
.LBE5394:
.LBE5397:
	.loc 2 274 0
	stfs 0,680(31)
.LVL1134:
.LBB5398:
.LBB5399:
.LBB5400:
.LBB5401:
	.loc 18 241 0
	lis 4,.LC46@ha
	mr 3,30
	la 4,.LC46@l(4)
	bl _ZNK6idDict7FindKeyEPKc
.LVL1135:
	.loc 18 242 0
	cmpwi 0,3,0
	beq- 0,.L573
.L581:
.LVL1136:
.LBB5402:
	.loc 2 1290 0
	lwz 9,4(3)
	lwz 3,4(9)
.LVL1137:
.LBE5402:
.LBE5401:
.LBE5400:
	.loc 18 257 0
	bl atoi
.LVL1138:
.LBE5399:
.LBE5398:
.LBB5413:
.LBB5414:
.LBB5415:
.LBB5416:
	.loc 18 241 0
	lis 4,.LC47@ha
.LBE5416:
.LBE5415:
.LBE5414:
.LBE5413:
.LBB5433:
.LBB5407:
	.loc 18 257 0
	cntlzw 3,3
.LBE5407:
.LBE5433:
.LBB5434:
.LBB5428:
.LBB5423:
.LBB5418:
	.loc 18 241 0
	la 4,.LC47@l(4)
.LBE5418:
.LBE5423:
.LBE5428:
.LBE5434:
.LBB5435:
.LBB5408:
	.loc 18 257 0
	srwi 3,3,5
	xori 3,3,1
.LBE5408:
.LBE5435:
	.loc 2 276 0
	stb 3,800(31)
.LVL1139:
.LBB5436:
.LBB5429:
.LBB5424:
.LBB5419:
	.loc 18 241 0
	mr 3,30
	bl _ZNK6idDict7FindKeyEPKc
.LVL1140:
	.loc 18 242 0
	cmpwi 0,3,0
	beq- 0,.L574
.L582:
.LVL1141:
.LBB5417:
	.loc 2 1290 0
	lwz 9,4(3)
	lwz 3,4(9)
.LVL1142:
.L558:
.LBE5417:
.LBE5419:
.LBE5424:
	.loc 18 253 0
	bl atoi
.LBE5429:
.LBE5436:
	.loc 2 278 0
	lwz 0,192(31)
	li 29,1
	.loc 2 277 0
	stw 3,188(31)
	.loc 2 278 0
	rlwimi 0,29,29,2,2
.LBB5437:
.LBB5438:
	.loc 18 197 0
	lis 3,.LC48@ha
.LBE5438:
.LBE5437:
	.loc 2 278 0
	stw 0,192(31)
.LVL1143:
.LBB5440:
.LBB5439:
	.loc 18 197 0
	li 4,1
	la 3,.LC48@l(3)
	crxor 6,6,6
	bl _Z2vaPKcz
	lis 4,.LC49@ha
	mr 5,3
	la 4,.LC49@l(4)
	mr 3,30
	bl _ZN6idDict3SetEPKcS1_
.LBE5439:
.LBE5440:
	.loc 2 283 0
	lwz 4,196(31)
	mr 3,31
	bl _ZN17idBrittleFracture15CreateFracturesEPK13idRenderModel
	.loc 2 285 0
	mr 3,31
	bl _ZN17idBrittleFracture14FindNeighboursEv
	.loc 2 287 0
	lis 9,renderModelManager@ha
	lwz 3,renderModelManager@l(9)
	lwz 9,0(3)
	lwz 0,24(9)
	mtctr 0
	bctrl
	.loc 2 288 0
	lis 4,.LC4@ha
	.loc 2 287 0
	stw 3,196(31)
	.loc 2 288 0
	la 4,.LC4@l(4)
	li 5,0
	li 6,0
	lwz 9,0(3)
	lwz 0,16(9)
	mtctr 0
	bctrl
	.loc 2 289 0
	lis 9,_ZN17idBrittleFracture13ModelCallbackEP14renderEntity_sPK12renderView_s@ha
	la 0,_ZN17idBrittleFracture13ModelCallbackEP14renderEntity_sPK12renderView_s@l(9)
	.loc 2 290 0
	stb 29,397(31)
	.loc 2 289 0
	stw 0,232(31)
	.loc 2 292 0
	li 0,0
	.loc 2 291 0
	stb 29,396(31)
	.loc 2 292 0
	stb 0,398(31)
	.loc 2 293 0
	lwz 0,28(1)
	lwz 28,8(1)
	mtlr 0
	lwz 29,12(1)
	lwz 30,16(1)
.LVL1144:
	lwz 31,20(1)
.LVL1145:
	addi 1,1,24
	.cfi_remember_state
.LCFI98:
	.cfi_def_cfa_offset 0
	.cfi_restore 31
	.cfi_restore 30
	.cfi_restore 29
	.cfi_restore 28
	blr
.LVL1146:
.L571:
.LCFI99:
	.cfi_restore_state
.LBB5441:
.LBB5390:
	.loc 7 895 0
	fmr 0,13
.LVL1147:
.LBE5390:
.LBE5441:
	.loc 2 273 0
	lis 4,.LC44@ha
	lis 5,.LC45@ha
	mr 3,30
	la 4,.LC44@l(4)
	la 5,.LC45@l(5)
	.loc 2 272 0
	stfs 0,676(31)
	.loc 2 273 0
	addi 6,31,680
	bl _ZNK6idDict8GetFloatEPKcS1_Rf
.LBB5442:
.LBB5395:
	.loc 7 894 0
	lis 9,.LC14@ha
.LBE5395:
.LBE5442:
	.loc 2 274 0
	lfs 0,680(31)
.LVL1148:
.LBB5443:
.LBB5396:
	.loc 7 894 0
	lfs 13,.LC14@l(9)
	fcmpu 7,0,13
	bnl+ 7,.L580
.L572:
	.loc 7 895 0
	fmr 0,13
.LVL1149:
.LBE5396:
.LBE5443:
.LBB5444:
.LBB5409:
.LBB5405:
.LBB5403:
	.loc 18 241 0
	lis 4,.LC46@ha
	mr 3,30
	la 4,.LC46@l(4)
.LBE5403:
.LBE5405:
.LBE5409:
.LBE5444:
	.loc 2 274 0
	stfs 0,680(31)
.LVL1150:
.LBB5445:
.LBB5410:
.LBB5406:
.LBB5404:
	.loc 18 241 0
	bl _ZNK6idDict7FindKeyEPKc
.LVL1151:
	.loc 18 242 0
	cmpwi 0,3,0
	bne+ 0,.L581
.L573:
	.loc 18 245 0
	lis 3,.LC31@ha
.LVL1152:
	la 3,.LC31@l(3)
.LBE5404:
.LBE5406:
	.loc 18 257 0
	bl atoi
.LBE5410:
.LBE5445:
.LBB5446:
.LBB5430:
.LBB5425:
.LBB5420:
	.loc 18 241 0
	lis 4,.LC47@ha
.LBE5420:
.LBE5425:
.LBE5430:
.LBE5446:
.LBB5447:
.LBB5411:
	.loc 18 257 0
	cntlzw 3,3
.LBE5411:
.LBE5447:
.LBB5448:
.LBB5431:
.LBB5426:
.LBB5421:
	.loc 18 241 0
	la 4,.LC47@l(4)
.LBE5421:
.LBE5426:
.LBE5431:
.LBE5448:
.LBB5449:
.LBB5412:
	.loc 18 257 0
	srwi 3,3,5
	xori 3,3,1
.LBE5412:
.LBE5449:
	.loc 2 276 0
	stb 3,800(31)
.LVL1153:
.LBB5450:
.LBB5432:
.LBB5427:
.LBB5422:
	.loc 18 241 0
	mr 3,30
	bl _ZNK6idDict7FindKeyEPKc
.LVL1154:
	.loc 18 242 0
	cmpwi 0,3,0
	bne+ 0,.L582
.L574:
	.loc 18 245 0
	lis 3,.LC22@ha
.LVL1155:
	la 3,.LC22@l(3)
	b .L558
.LVL1156:
.L570:
.LBE5422:
.LBE5427:
.LBE5432:
.LBE5450:
.LBB5451:
.LBB5386:
	.loc 7 895 0
	fmr 0,13
.LVL1157:
	b .L551
.LVL1158:
.L569:
.LBE5386:
.LBE5451:
.LBB5452:
.LBB5381:
	fmr 1,0
.LVL1159:
	b .L549
.LVL1160:
.L562:
.LBE5381:
.LBE5452:
.LBB5453:
.LBB5252:
	fmr 1,0
.LVL1161:
.LBE5252:
.LBE5453:
.LBB5454:
.LBB5266:
.LBB5262:
.LBB5260:
	.loc 18 241 0
	lis 4,.LC35@ha
	mr 3,30
	la 4,.LC35@l(4)
.LBE5260:
.LBE5262:
.LBE5266:
.LBE5454:
	.loc 2 259 0
	stfs 1,648(31)
.LVL1162:
.LBB5455:
.LBB5267:
.LBB5263:
.LBB5261:
	.loc 18 241 0
	bl _ZNK6idDict7FindKeyEPKc
.LVL1163:
	.loc 18 242 0
	cmpwi 0,3,0
	bne+ 0,.L583
.L563:
	.loc 18 245 0
	lis 3,.LC22@ha
.LVL1164:
	la 3,.LC22@l(3)
.LBE5261:
.LBE5263:
	.loc 18 249 0
	bl atof
.LBE5267:
.LBE5455:
.LBB5456:
.LBB5289:
.LBB5282:
.LBB5277:
	.loc 18 241 0
	lis 4,.LC36@ha
.LBE5277:
.LBE5282:
.LBE5289:
.LBE5456:
.LBB5457:
.LBB5268:
	.loc 18 249 0
	frsp 1,1
.LBE5268:
.LBE5457:
.LBB5458:
.LBB5290:
.LBB5283:
.LBB5278:
	.loc 18 241 0
	mr 3,30
	la 4,.LC36@l(4)
.LBE5278:
.LBE5283:
.LBE5290:
.LBE5458:
.LBB5459:
.LBB5269:
	.loc 18 249 0
	stfs 1,652(31)
.LVL1165:
.LBE5269:
.LBE5459:
.LBB5460:
.LBB5291:
.LBB5284:
.LBB5279:
	.loc 18 241 0
	bl _ZNK6idDict7FindKeyEPKc
.LVL1166:
	.loc 18 242 0
	cmpwi 0,3,0
	bne+ 0,.L584
.L564:
	.loc 18 245 0
	lis 3,.LC26@ha
.LVL1167:
	la 3,.LC26@l(3)
.LBE5279:
.LBE5284:
	.loc 18 249 0
	bl atof
.LBE5291:
.LBE5460:
.LBB5461:
.LBB5317:
.LBB5310:
.LBB5305:
	.loc 18 241 0
	lis 4,.LC37@ha
.LBE5305:
.LBE5310:
.LBE5317:
.LBE5461:
.LBB5462:
.LBB5292:
	.loc 18 249 0
	frsp 1,1
.LBE5292:
.LBE5462:
.LBB5463:
.LBB5318:
.LBB5311:
.LBB5306:
	.loc 18 241 0
	mr 3,30
	la 4,.LC37@l(4)
.LBE5306:
.LBE5311:
.LBE5318:
.LBE5463:
.LBB5464:
.LBB5293:
	.loc 18 249 0
	stfs 1,656(31)
.LVL1168:
.LBE5293:
.LBE5464:
.LBB5465:
.LBB5319:
.LBB5312:
.LBB5307:
	.loc 18 241 0
	bl _ZNK6idDict7FindKeyEPKc
.LVL1169:
	.loc 18 242 0
	cmpwi 0,3,0
	bne+ 0,.L585
.L565:
	.loc 18 245 0
	lis 28,.LC27@ha
	la 28,.LC27@l(28)
	mr 3,28
.LVL1170:
.LBE5307:
.LBE5312:
	.loc 18 249 0
	bl atof
.LBE5319:
.LBE5465:
.LBB5466:
.LBB5345:
.LBB5338:
.LBB5333:
	.loc 18 241 0
	lis 4,.LC38@ha
.LBE5333:
.LBE5338:
.LBE5345:
.LBE5466:
.LBB5467:
.LBB5320:
	.loc 18 249 0
	frsp 1,1
.LBE5320:
.LBE5467:
.LBB5468:
.LBB5346:
.LBB5339:
.LBB5334:
	.loc 18 241 0
	mr 3,30
	la 4,.LC38@l(4)
.LBE5334:
.LBE5339:
.LBE5346:
.LBE5468:
.LBB5469:
.LBB5321:
	.loc 18 249 0
	stfs 1,660(31)
.LVL1171:
.LBE5321:
.LBE5469:
.LBB5470:
.LBB5347:
.LBB5340:
.LBB5335:
	.loc 18 241 0
	bl _ZNK6idDict7FindKeyEPKc
.LVL1172:
	.loc 18 242 0
	cmpwi 0,3,0
	bne+ 0,.L586
.L566:
	.loc 18 245 0
	lis 3,.LC22@ha
.LVL1173:
	la 3,.LC22@l(3)
.LBE5335:
.LBE5340:
	.loc 18 249 0
	bl atof
.LBE5347:
.LBE5470:
.LBB5471:
.LBB5360:
	.loc 18 241 0
	lis 4,.LC39@ha
.LBE5360:
.LBE5471:
.LBB5472:
.LBB5348:
	.loc 18 249 0
	frsp 1,1
.LBE5348:
.LBE5472:
.LBB5473:
.LBB5361:
	.loc 18 241 0
	mr 3,30
	la 4,.LC39@l(4)
.LBE5361:
.LBE5473:
.LBB5474:
.LBB5349:
	.loc 18 249 0
	stfs 1,664(31)
.LBE5349:
.LBE5474:
.LBB5475:
.LBB5362:
	.loc 18 241 0
	bl _ZNK6idDict7FindKeyEPKc
	.loc 18 242 0
	mr. 9,3
.LBE5362:
.LBE5475:
	.loc 2 264 0
	addi 3,31,684
.LVL1174:
.LBB5476:
.LBB5363:
	.loc 18 242 0
	bne+ 0,.L587
.LVL1175:
.L567:
	.loc 18 245 0
	lis 4,.LC21@ha
	la 4,.LC21@l(4)
.LBE5363:
.LBE5476:
	.loc 2 264 0
	bl _ZN5idStraSEPKc
.LVL1176:
.LBB5477:
.LBB5377:
.LBB5375:
.LBB5374:
	.loc 18 241 0
	lis 4,.LC40@ha
	mr 3,30
	la 4,.LC40@l(4)
	bl _ZNK6idDict7FindKeyEPKc
.LVL1177:
	.loc 18 242 0
	cmpwi 0,3,0
	bne+ 0,.L588
.L568:
	.loc 18 245 0
	lis 3,.LC28@ha
.LVL1178:
	la 3,.LC28@l(3)
	b .L548
.LVL1179:
.L559:
.LBE5374:
.LBE5375:
.LBE5377:
.LBE5477:
.LBB5478:
.LBB5199:
	lis 4,.LC21@ha
.LBE5199:
.LBE5478:
	.loc 2 256 0
	li 5,1
.LBB5479:
.LBB5200:
	.loc 18 245 0
	la 4,.LC21@l(4)
.LBE5200:
.LBE5479:
	.loc 2 256 0
	li 6,0
	mtctr 28
	mr 3,29
.LVL1180:
	bctrl
.LBB5480:
.LBB5219:
.LBB5214:
.LBB5211:
	.loc 18 241 0
	lis 4,.LC33@ha
.LBE5211:
.LBE5214:
.LBE5219:
.LBE5480:
	.loc 2 256 0
	stw 3,640(31)
.LVL1181:
.LBB5481:
.LBB5220:
.LBB5215:
.LBB5212:
	.loc 18 241 0
	la 4,.LC33@l(4)
	mr 3,30
	bl _ZNK6idDict7FindKeyEPKc
.LVL1182:
	.loc 18 242 0
	cmpwi 0,3,0
	bne+ 0,.L589
.L560:
	.loc 18 245 0
	lis 3,.LC22@ha
.LVL1183:
	la 3,.LC22@l(3)
.LBE5212:
.LBE5215:
	.loc 18 249 0
	bl atof
.LBE5220:
.LBE5481:
.LBB5482:
.LBB5242:
.LBB5236:
.LBB5231:
	.loc 18 241 0
	lis 4,.LC34@ha
.LBE5231:
.LBE5236:
.LBE5242:
.LBE5482:
.LBB5483:
.LBB5221:
	.loc 18 249 0
	frsp 1,1
.LBE5221:
.LBE5483:
.LBB5484:
.LBB5243:
.LBB5237:
.LBB5232:
	.loc 18 241 0
	mr 3,30
	la 4,.LC34@l(4)
.LBE5232:
.LBE5237:
.LBE5243:
.LBE5484:
.LBB5485:
.LBB5222:
	.loc 18 249 0
	stfs 1,644(31)
.LVL1184:
.LBE5222:
.LBE5485:
.LBB5486:
.LBB5244:
.LBB5238:
.LBB5233:
	.loc 18 241 0
	bl _ZNK6idDict7FindKeyEPKc
.LVL1185:
	.loc 18 242 0
	cmpwi 0,3,0
	bne+ 0,.L590
.L561:
	.loc 18 245 0
	lis 3,.LC23@ha
.LVL1186:
	la 3,.LC23@l(3)
	b .L540
.LBE5233:
.LBE5238:
.LBE5244:
.LBE5486:
	.cfi_endproc
.LFE2827:
	.size	_ZN17idBrittleFracture5SpawnEv, .-_ZN17idBrittleFracture5SpawnEv
	.align 2
	.globl _ZN17idBrittleFracture7RestoreEP13idRestoreGame
	.type	_ZN17idBrittleFracture7RestoreEP13idRestoreGame, @function
_ZN17idBrittleFracture7RestoreEP13idRestoreGame:
.LFB2823:
	.loc 2 166 0
	.cfi_startproc
	.cfi_personality 0,__gxx_personality_v0
	.cfi_lsda 0,.LLSDA2823
.LVL1187:
	mflr 0
	stwu 1,-72(1)
.LCFI100:
	.cfi_def_cfa_offset 72
	.cfi_register 65, 0
.LBB5602:
	.loc 2 169 0
	lis 9,renderModelManager@ha
.LBE5602:
	.loc 2 166 0
	stw 23,36(1)
	stw 28,56(1)
	stw 29,60(1)
	mr 29,4
	.cfi_offset 29, -12
	.cfi_offset 28, -16
	.cfi_offset 23, -36
	stw 30,64(1)
	stw 31,68(1)
	mr 31,3
	.cfi_offset 31, -4
	.cfi_offset 30, -8
.LBB5741:
	.loc 2 169 0
	lwz 9,renderModelManager@l(9)
	.loc 2 177 0
	addi 28,31,192
.LBE5741:
	.loc 2 166 0
	stw 0,76(1)
.LBB5742:
	.loc 2 202 0
	addi 23,31,716
.LBE5742:
	.loc 2 166 0
	stw 20,24(1)
.LBB5743:
	.loc 2 169 0
	mr 3,9
.LVL1188:
.LBE5743:
	.loc 2 166 0
	stw 21,28(1)
.LBB5744:
	.loc 2 206 0
	addi 30,31,760
.LBE5744:
	.loc 2 166 0
	stw 22,32(1)
	stw 24,40(1)
	stw 25,44(1)
	stw 26,48(1)
	stw 27,52(1)
.LBB5745:
	.loc 2 169 0
	lwz 11,0(9)
	lwz 0,24(11)
	.cfi_offset 27, -20
	.cfi_offset 26, -24
	.cfi_offset 25, -28
	.cfi_offset 24, -32
	.cfi_offset 22, -40
	.cfi_offset 21, -44
	.cfi_offset 20, -48
	.cfi_offset 65, 4
	mtctr 0
.LEHB19:
	bctrl
.LVL1189:
	.loc 2 170 0
	lis 4,.LC4@ha
	.loc 2 169 0
	stw 3,196(31)
	.loc 2 170 0
	li 6,0
	li 5,0
	la 4,.LC4@l(4)
	lwz 9,0(3)
	lwz 0,16(9)
	mtctr 0
	bctrl
	.loc 2 172 0
	li 0,1
	.loc 2 171 0
	lis 9,_ZN17idBrittleFracture13ModelCallbackEP14renderEntity_sPK12renderView_s@ha
	.loc 2 172 0
	stb 0,397(31)
	.loc 2 171 0
	la 9,_ZN17idBrittleFracture13ModelCallbackEP14renderEntity_sPK12renderView_s@l(9)
	.loc 2 173 0
	stb 0,396(31)
	.loc 2 174 0
	li 0,0
	.loc 2 171 0
	stw 9,232(31)
	.loc 2 174 0
	stb 0,398(31)
	.loc 2 176 0
	mr 3,29
	addi 4,31,188
	bl _ZN13idRestoreGame7ReadIntERi
	.loc 2 177 0
	li 5,2
	mr 4,28
	mr 3,29
	bl _ZN13idRestoreGame4ReadEPvi
	.loc 2 178 0
	mr 3,28
	li 4,2
	bl _Z14LittleBitFieldPvi
	.loc 2 181 0
	mr 3,29
	addi 4,31,636
	bl _ZN13idRestoreGame12ReadMaterialERPK10idMaterial
	.loc 2 182 0
	mr 3,29
	addi 4,31,640
	bl _ZN13idRestoreGame12ReadMaterialERPK10idMaterial
	.loc 2 183 0
	mr 3,29
	addi 4,31,644
	bl _ZN13idRestoreGame9ReadFloatERf
	.loc 2 184 0
	mr 3,29
	addi 4,31,648
	bl _ZN13idRestoreGame9ReadFloatERf
	.loc 2 185 0
	mr 3,29
	addi 4,31,652
	bl _ZN13idRestoreGame9ReadFloatERf
	.loc 2 186 0
	mr 3,29
	addi 4,31,656
	bl _ZN13idRestoreGame9ReadFloatERf
	.loc 2 187 0
	mr 3,29
	addi 4,31,660
	bl _ZN13idRestoreGame9ReadFloatERf
	.loc 2 188 0
	mr 3,29
	addi 4,31,664
	bl _ZN13idRestoreGame9ReadFloatERf
	.loc 2 189 0
	mr 3,29
	addi 4,31,668
	bl _ZN13idRestoreGame9ReadFloatERf
	.loc 2 190 0
	mr 3,29
	addi 4,31,672
	bl _ZN13idRestoreGame9ReadFloatERf
	.loc 2 191 0
	mr 3,29
	addi 4,31,676
	bl _ZN13idRestoreGame9ReadFloatERf
	.loc 2 192 0
	mr 3,29
	addi 4,31,680
	bl _ZN13idRestoreGame9ReadFloatERf
	.loc 2 193 0
	mr 3,29
	addi 4,31,684
	bl _ZN13idRestoreGame10ReadStringER5idStr
	.loc 2 196 0
	mr 3,29
	addi 4,31,776
	bl _ZN13idRestoreGame10ReadBoundsER8idBounds
	.loc 2 197 0
	mr 3,29
	addi 4,31,800
	bl _ZN13idRestoreGame8ReadBoolERb
	.loc 2 199 0
	mr 3,29
	addi 4,31,804
	bl _ZN13idRestoreGame7ReadIntERi
	.loc 2 200 0
	mr 3,29
	addi 4,31,808
	bl _ZN13idRestoreGame8ReadBoolERb
	.loc 2 202 0
	mr 3,29
	mr 4,23
	bl _ZN13idRestoreGame16ReadStaticObjectER7idClass
	.loc 2 203 0
	mr 3,31
	mr 4,23
	bl _ZN8idEntity14RestorePhysicsEP9idPhysics
	.loc 2 205 0
	mr 3,29
	addi 4,1,12
	bl _ZN13idRestoreGame7ReadIntERi
.LVL1190:
	.loc 2 206 0
	lwz 28,12(1)
.LVL1191:
.LBB5603:
.LBB5604:
.LBB5605:
.LBB5606:
	.loc 3 375 0
	cmpwi 7,28,0
	ble- 7,.L645
	.loc 3 380 0
	lwz 0,764(31)
	cmpw 7,28,0
	beq- 7,.L595
	.loc 3 387 0
	lwz 0,760(31)
	.loc 3 385 0
	lwz 27,772(31)
.LVL1192:
	.loc 3 387 0
	cmpw 7,28,0
	.loc 3 386 0
	stw 28,764(31)
	.loc 3 387 0
	blt- 7,.L646
.L596:
	.loc 3 392 0
	slwi 3,28,2
	bl _Znaj
.LVL1193:
	.loc 3 393 0
	lwz 0,760(31)
	.loc 3 392 0
	stw 3,772(31)
.LVL1194:
	.loc 3 393 0
	cmpwi 7,0,0
	ble- 7,.L597
	.loc 2 166 0
	addi 11,27,-4
.LBB5607:
.LBB5608:
	.loc 3 393 0
	li 9,0
	b .L598
.LVL1195:
.L647:
.LBE5608:
.LBE5607:
	lwz 3,772(31)
.LVL1196:
.L598:
	.loc 3 394 0
	lwzu 10,4(11)
	slwi 0,9,2
	.loc 3 393 0
	addi 9,9,1
.LVL1197:
	.loc 3 394 0
	stwx 10,3,0
	.loc 3 393 0
	lwz 0,0(30)
	cmpw 7,9,0
	blt+ 7,.L647
.LVL1198:
.L597:
	.loc 3 398 0
	cmpwi 7,27,0
	beq- 7,.L644
	.loc 3 399 0
	mr 3,27
	bl _ZdaPv
.L644:
	lwz 0,12(1)
.LVL1199:
.L594:
.LBE5606:
.LBE5605:
.LBE5604:
.LBE5603:
	.loc 2 207 0
	cmpwi 7,0,0
.LBB5622:
.LBB5619:
	.loc 3 302 0
	stw 28,760(31)
.LVL1200:
.LBE5619:
.LBE5622:
	.loc 2 207 0
	ble- 7,.L591
.L634:
	lis 27,_ZTV14idFixedWinding+8@ha
.LBB5623:
.LBB5620:
.LBB5616:
.LBB5613:
.LBB5611:
.LBB5609:
	.loc 3 393 0
	li 26,0
	la 27,_ZTV14idFixedWinding+8@l(27)
.LBE5609:
.LBE5611:
.LBE5613:
.LBE5616:
.LBE5620:
.LBE5623:
.LBB5624:
.LBB5625:
.LBB5626:
.LBB5627:
.LBB5628:
.LBB5629:
	.loc 1 133 0
	li 28,0
.LVL1201:
.LBE5629:
.LBE5628:
	.loc 1 310 0
	li 24,64
.LBE5627:
.LBE5626:
.LBB5634:
.LBB5635:
	.loc 3 159 0
	li 25,16
.LVL1202:
.L606:
.LBE5635:
.LBE5634:
.LBE5625:
.LBE5624:
	.loc 2 208 0
	li 3,1904
	bl _Znwj
.LEHE19:
.LBB5662:
.LBB5659:
.LBB5639:
.LBB5632:
	.loc 1 309 0
	addi 0,3,20
.LBB5631:
.LBB5630:
	.loc 1 133 0
	stw 28,8(3)
.LBE5630:
.LBE5631:
	.loc 1 307 0
	stw 27,4(3)
.LBE5632:
.LBE5639:
.LBE5659:
.LBE5662:
	.loc 2 208 0
	mr 30,3
.LVL1203:
.LBB5663:
.LBB5660:
.LBB5640:
.LBB5633:
	.loc 1 309 0
	stw 0,12(3)
	.loc 1 310 0
	stw 24,16(3)
.LVL1204:
.LBE5633:
.LBE5640:
.LBB5641:
.LBB5638:
	.loc 3 159 0
	stw 25,1308(3)
.LVL1205:
.LBB5636:
.LBB5637:
	.loc 3 197 0
	stw 28,1312(3)
	.loc 3 198 0
	stw 28,1300(3)
	.loc 3 199 0
	stw 28,1304(3)
.LVL1206:
.LBE5637:
.LBE5636:
.LBE5638:
.LBE5641:
.LBB5642:
.LBB5643:
	.loc 3 159 0
	stw 25,1324(3)
.LVL1207:
.LBB5644:
.LBB5645:
	.loc 3 197 0
	stw 28,1328(3)
	.loc 3 198 0
	stw 28,1316(3)
	.loc 3 199 0
	stw 28,1320(3)
.LVL1208:
.LBE5645:
.LBE5644:
.LBE5643:
.LBE5642:
.LBB5646:
.LBB5647:
	.loc 3 159 0
	stw 25,1340(3)
.LVL1209:
.LBB5648:
.LBB5649:
	.loc 3 197 0
	stw 28,1344(3)
	.loc 3 198 0
	stw 28,1332(3)
	.loc 3 199 0
	stw 28,1336(3)
.LBE5649:
.LBE5648:
.LBE5647:
.LBE5646:
	.loc 16 42 0
	addi 3,3,1348
.LVL1210:
.LEHB20:
	bl _ZN19idPhysics_RigidBodyC1Ev
.LEHE20:
.LVL1211:
.LBE5660:
.LBE5663:
	.loc 2 208 0 discriminator 1
	lwz 9,772(31)
	slwi 0,26,2
	.loc 2 207 0 discriminator 1
	addi 26,26,1
.LVL1212:
	.loc 2 208 0 discriminator 1
	stwx 30,9,0
	.loc 2 207 0 discriminator 1
	lwz 0,12(1)
	cmpw 7,0,26
	bgt+ 7,.L606
.LVL1213:
.LBB5664:
	.loc 2 211 0 discriminator 1
	cmpwi 7,0,0
	ble- 7,.L591
	.loc 2 211 0 is_stmt 0
	li 25,0
	.loc 3 393 0 is_stmt 1
	li 28,0
.LBB5665:
.LBB5666:
.LBB5667:
	.loc 1 310 0
	li 26,64
.LVL1214:
.L633:
.LBE5667:
.LBE5666:
	.loc 2 212 0
	lwz 9,772(31)
.LBE5665:
	.loc 2 166 0
	slwi 30,25,2
.LBB5734:
	.loc 2 212 0
	mr 3,29
	lwzx 4,9,30
	addi 4,4,4
.LEHB21:
	bl _ZN13idRestoreGame11ReadWindingER9idWinding
	.loc 2 214 0
	mr 3,29
	addi 4,1,16
	bl _ZN13idRestoreGame7ReadIntERi
.LVL1215:
	.loc 2 215 0
	lwz 21,16(1)
	lwz 9,772(31)
.LBB5672:
.LBB5673:
.LBB5674:
.LBB5675:
	.loc 3 375 0
	cmpwi 7,21,0
.LBE5675:
.LBE5674:
.LBE5673:
.LBE5672:
	.loc 2 215 0
	lwzx 24,9,30
	addi 22,24,1300
.LVL1216:
.LBB5687:
.LBB5684:
.LBB5681:
.LBB5678:
	.loc 3 375 0
	ble- 7,.L648
	.loc 3 380 0
	lwz 0,1304(24)
	cmpw 7,21,0
	beq- 7,.L609
	.loc 3 387 0
	lwz 0,1300(24)
	.loc 3 385 0
	lwz 20,1312(24)
.LVL1217:
	.loc 3 387 0
	cmpw 7,21,0
	.loc 3 386 0
	stw 21,1304(24)
	.loc 3 387 0
	bge- 7,.L610
	.loc 3 388 0
	stw 21,1300(24)
.L610:
	.loc 3 392 0
	slwi 3,21,2
	bl _Znaj
.LVL1218:
	.loc 3 393 0
	lwz 0,1300(24)
	.loc 3 392 0
	stw 3,1312(24)
.LVL1219:
	.loc 3 393 0
	cmpwi 7,0,0
	ble- 7,.L611
	.loc 2 166 0
	addi 11,20,-4
.LBE5678:
.LBE5681:
.LBE5684:
.LBE5687:
.LBE5734:
	.loc 3 393 0
	li 9,0
	b .L612
.LVL1220:
.L649:
.LBB5735:
.LBB5688:
.LBB5685:
.LBB5682:
.LBB5679:
	lwz 3,1312(24)
.LVL1221:
.L612:
	.loc 3 394 0
	lwzu 10,4(11)
	slwi 0,9,2
	.loc 3 393 0
	addi 9,9,1
.LVL1222:
	.loc 3 394 0
	stwx 10,3,0
	.loc 3 393 0
	lwz 0,0(22)
	cmpw 7,9,0
	blt+ 7,.L649
.LVL1223:
.L611:
	.loc 3 398 0
	cmpwi 7,20,0
	beq- 7,.L609
	.loc 3 399 0
	mr 3,20
	bl _ZdaPv
.LVL1224:
.L609:
.LBE5679:
.LBE5682:
	.loc 3 302 0
	stw 21,1300(24)
.LBE5685:
.LBE5688:
	.loc 2 216 0
	stw 28,16(1)
.LVL1225:
	lwz 9,772(31)
	.loc 2 1290 0
	lwzx 9,9,30
	.loc 2 216 0
	lwz 0,1300(9)
	cmpwi 7,0,0
	ble- 7,.L613
.LVL1226:
.L637:
	.loc 2 217 0 discriminator 2
	li 3,1296
	bl _Znwj
.LBB5689:
.LBB5670:
	.loc 1 309 0 discriminator 2
	addi 0,3,16
	.loc 1 307 0 discriminator 2
	stw 27,0(3)
	.loc 1 309 0 discriminator 2
	stw 0,8(3)
.LBE5670:
.LBE5689:
	.loc 2 217 0 discriminator 2
	mr 9,3
.LVL1227:
.LBB5690:
.LBB5671:
.LBB5668:
.LBB5669:
	.loc 1 133 0 discriminator 2
	stw 28,4(3)
.LBE5669:
.LBE5668:
	.loc 1 310 0 discriminator 2
	stw 26,12(3)
.LVL1228:
.LBE5671:
.LBE5690:
	.loc 2 218 0 discriminator 2
	mr 3,29
.LVL1229:
	.loc 2 217 0 discriminator 2
	lwz 0,16(1)
	lwz 11,772(31)
	slwi 0,0,2
.LBB5691:
.LBB5692:
	.loc 2 1290 0 discriminator 2
	lwzx 11,11,30
.LBE5692:
.LBE5691:
	.loc 2 217 0 discriminator 2
	lwz 11,1312(11)
	stwx 9,11,0
.LVL1230:
	.loc 2 218 0 discriminator 2
	lwz 9,772(31)
.LVL1231:
	lwz 0,16(1)
.LBB5693:
.LBB5694:
	.loc 2 1290 0 discriminator 2
	lwzx 9,9,30
.LBE5694:
.LBE5693:
	.loc 2 218 0 discriminator 2
	slwi 0,0,2
	lwz 9,1312(9)
	lwzx 4,9,0
	bl _ZN13idRestoreGame11ReadWindingER9idWinding
.LVL1232:
	.loc 2 216 0 discriminator 2
	lwz 11,16(1)
	lwz 9,772(31)
	addi 0,11,1
	stw 0,16(1)
	.loc 2 1290 0 discriminator 2
	lwzx 9,9,30
	.loc 2 216 0 discriminator 2
	lwz 9,1300(9)
	cmpw 7,9,0
	bgt+ 7,.L637
.L613:
	.loc 2 221 0
	mr 3,29
	addi 4,1,16
	bl _ZN13idRestoreGame7ReadIntERi
.LVL1233:
	.loc 2 222 0
	lwz 21,16(1)
.LVL1234:
	lwz 9,772(31)
.LBB5695:
.LBB5696:
.LBB5697:
.LBB5698:
	.loc 3 375 0
	cmpwi 7,21,0
.LBE5698:
.LBE5697:
.LBE5696:
.LBE5695:
	.loc 2 222 0
	lwzx 24,9,30
	addi 22,24,1332
.LVL1235:
.LBB5710:
.LBB5707:
.LBB5704:
.LBB5701:
	.loc 3 375 0
	ble- 7,.L650
	.loc 3 380 0
	lwz 0,1336(24)
	cmpw 7,21,0
	beq- 7,.L617
	.loc 3 387 0
	lwz 0,1332(24)
	.loc 3 385 0
	lwz 20,1344(24)
.LVL1236:
	.loc 3 387 0
	cmpw 7,21,0
	.loc 3 386 0
	stw 21,1336(24)
	.loc 3 387 0
	bge- 7,.L618
	.loc 3 388 0
	stw 21,1332(24)
.L618:
	.loc 3 392 0
	slwi 3,21,2
	bl _Znaj
.LVL1237:
	.loc 3 393 0
	lwz 0,1332(24)
	.loc 3 392 0
	stw 3,1344(24)
.LVL1238:
	.loc 3 393 0
	cmpwi 7,0,0
	ble- 7,.L619
	.loc 2 166 0
	addi 11,20,-4
.LBE5701:
.LBE5704:
.LBE5707:
.LBE5710:
.LBE5735:
	.loc 3 393 0
	li 9,0
	b .L620
.LVL1239:
.L651:
.LBB5736:
.LBB5711:
.LBB5708:
.LBB5705:
.LBB5702:
	lwz 3,1344(24)
.LVL1240:
.L620:
	.loc 3 394 0
	lwzu 10,4(11)
	slwi 0,9,2
	.loc 3 393 0
	addi 9,9,1
.LVL1241:
	.loc 3 394 0
	stwx 10,3,0
	.loc 3 393 0
	lwz 0,0(22)
	cmpw 7,9,0
	blt+ 7,.L651
.LVL1242:
.L619:
	.loc 3 398 0
	cmpwi 7,20,0
	beq- 7,.L617
	.loc 3 399 0
	mr 3,20
	bl _ZdaPv
.LVL1243:
.L617:
.LBE5702:
.LBE5705:
	.loc 3 302 0
	stw 21,1332(24)
.LBE5708:
.LBE5711:
.LBB5712:
	.loc 2 223 0
	stw 28,16(1)
.LVL1244:
	lwz 9,772(31)
	.loc 2 1290 0
	lwzx 9,9,30
	.loc 2 223 0
	lwz 0,1332(9)
	cmpwi 7,0,0
	ble- 7,.L621
.LVL1245:
.L622:
.LBB5713:
	.loc 2 225 0 discriminator 2
	mr 3,29
	addi 4,1,8
	bl _ZN13idRestoreGame7ReadIntERi
	.loc 2 1290 0 discriminator 2
	lwz 9,772(31)
.LVL1246:
	.loc 2 227 0 discriminator 2
	lwz 0,8(1)
.LBB5714:
.LBB5715:
	.loc 2 1290 0 discriminator 2
	lwzx 10,9,30
.LBE5715:
.LBE5714:
	.loc 2 227 0 discriminator 2
	slwi 0,0,2
	lwzx 11,9,0
	lwz 0,16(1)
	lwz 9,1344(10)
	slwi 0,0,2
	stwx 11,9,0
.LBE5713:
	.loc 2 223 0 discriminator 2
	lwz 11,16(1)
	lwz 9,772(31)
	addi 0,11,1
	stw 0,16(1)
	.loc 2 1290 0 discriminator 2
	lwzx 9,9,30
	.loc 2 223 0 discriminator 2
	lwz 9,1332(9)
	cmpw 7,9,0
	bgt+ 7,.L622
.LVL1247:
.L621:
.LBE5712:
	.loc 2 230 0
	mr 3,29
	addi 4,1,16
	bl _ZN13idRestoreGame7ReadIntERi
.LVL1248:
	.loc 2 231 0
	lwz 20,16(1)
	lwz 9,772(31)
.LBB5716:
.LBB5717:
.LBB5718:
.LBB5719:
	.loc 3 375 0
	cmpwi 7,20,0
.LBE5719:
.LBE5718:
.LBE5717:
.LBE5716:
	.loc 2 231 0
	lwzx 24,9,30
	addi 21,24,1316
.LVL1249:
.LBB5728:
.LBB5726:
.LBB5724:
.LBB5722:
	.loc 3 375 0
	ble- 7,.L652
	.loc 3 380 0
	lwz 0,1320(24)
	cmpw 7,20,0
	beq- 7,.L625
	.loc 3 387 0
	lwz 0,1316(24)
	.loc 3 385 0
	lwz 22,1328(24)
.LVL1250:
	.loc 3 387 0
	cmpw 7,20,0
	.loc 3 386 0
	stw 20,1320(24)
	.loc 3 387 0
	bge- 7,.L626
	.loc 3 388 0
	stw 20,1316(24)
.L626:
	.loc 3 392 0
	mr 3,20
	bl _Znaj
.LVL1251:
	.loc 3 393 0
	lwz 0,1316(24)
	.loc 3 392 0
	stw 3,1328(24)
.LVL1252:
	.loc 3 393 0
	cmpwi 7,0,0
	ble- 7,.L627
	li 9,0
	b .L628
.LVL1253:
.L653:
	lwz 3,1328(24)
.LVL1254:
.L628:
	.loc 3 394 0
	lbzx 0,22,9
	stbx 0,3,9
	.loc 3 393 0
	addi 9,9,1
.LVL1255:
	lwz 0,0(21)
	cmpw 7,9,0
	blt+ 7,.L653
.LVL1256:
.L627:
	.loc 3 398 0
	cmpwi 7,22,0
	beq- 7,.L625
	.loc 3 399 0
	mr 3,22
	bl _ZdaPv
.LVL1257:
.L625:
.LBE5722:
.LBE5724:
	.loc 3 302 0
	stw 20,1316(24)
.LBE5726:
.LBE5728:
	.loc 2 232 0
	stw 28,16(1)
.LVL1258:
	lwz 9,772(31)
	lwzx 4,9,30
	lwz 0,1316(4)
	cmpwi 7,0,0
	ble- 7,.L629
	li 0,0
.LVL1259:
.L630:
.LBB5729:
.LBB5730:
	.loc 3 589 0 discriminator 2
	lwz 4,1328(4)
.LBE5730:
.LBE5729:
	.loc 2 233 0 discriminator 2
	mr 3,29
	add 4,4,0
	bl _ZN13idRestoreGame8ReadBoolERb
.LVL1260:
	.loc 2 232 0 discriminator 2
	lwz 11,16(1)
	lwz 9,772(31)
	addi 0,11,1
	stw 0,16(1)
	lwzx 4,9,30
	lwz 9,1316(4)
	cmpw 7,9,0
	bgt+ 7,.L630
.L629:
.LVL1261:
	.loc 2 236 0
	mr 3,29
	addi 4,4,1892
	bl _ZN13idRestoreGame7ReadIntERi
.LVL1262:
	.loc 2 237 0
	lwz 9,772(31)
	mr 3,29
	lwzx 4,9,30
	addi 4,4,1900
	bl _ZN13idRestoreGame7ReadIntERi
.LVL1263:
	.loc 2 238 0
	lwz 9,772(31)
	mr 3,29
	lwzx 4,9,30
	addi 4,4,1896
	bl _ZN13idRestoreGame8ReadBoolERb
.LVL1264:
	.loc 2 239 0
	lwz 9,772(31)
	mr 3,29
	lwzx 4,9,30
	addi 4,4,1348
	bl _ZN13idRestoreGame16ReadStaticObjectER7idClass
.LVL1265:
	.loc 2 240 0
	lwz 9,772(31)
	lwzx 30,9,30
	lwz 0,1892(30)
	cmpwi 7,0,0
	blt- 7,.L654
.LVL1266:
	.loc 2 243 0
	addi 3,30,1348
	li 4,0
	bl _ZNK19idPhysics_RigidBody12GetClipModelEi
	stw 3,0(30)
.LVL1267:
.L632:
.LBE5736:
	.loc 2 211 0
	lwz 0,12(1)
	addi 25,25,1
.LVL1268:
	cmpw 7,0,25
	bgt+ 7,.L633
.LVL1269:
.L591:
.LBE5664:
.LBE5745:
	.loc 2 246 0
	lwz 0,76(1)
	lwz 20,24(1)
	mtlr 0
	lwz 21,28(1)
	lwz 22,32(1)
	lwz 23,36(1)
	lwz 24,40(1)
	lwz 25,44(1)
	lwz 26,48(1)
	lwz 27,52(1)
	lwz 28,56(1)
	lwz 29,60(1)
.LVL1270:
	lwz 30,64(1)
	lwz 31,68(1)
.LVL1271:
	addi 1,1,72
	.cfi_remember_state
.LCFI101:
	.cfi_def_cfa_offset 0
	.cfi_restore 31
	.cfi_restore 30
	.cfi_restore 29
	.cfi_restore 28
	.cfi_restore 27
	.cfi_restore 26
	.cfi_restore 25
	.cfi_restore 24
	.cfi_restore 23
	.cfi_restore 22
	.cfi_restore 21
	.cfi_restore 20
	blr
.LVL1272:
.L654:
.LCFI102:
	.cfi_restore_state
.LBB5746:
.LBB5738:
.LBB5737:
	.loc 2 241 0
	mr 3,23
	mr 4,25
	bl _ZNK21idPhysics_StaticMulti12GetClipModelEi
	stw 3,0(30)
	b .L632
.LVL1273:
.L648:
.LBB5731:
.LBB5686:
.LBB5683:
.LBB5680:
.LBB5676:
.LBB5677:
	.loc 3 193 0
	lwz 3,1312(24)
	cmpwi 7,3,0
	beq- 7,.L608
	.loc 3 194 0
	bl _ZdaPv
.L608:
	.loc 3 197 0
	stw 28,1312(24)
	.loc 3 199 0
	stw 28,1304(24)
	b .L609
.LVL1274:
.L652:
.LBE5677:
.LBE5676:
.LBE5680:
.LBE5683:
.LBE5686:
.LBE5731:
.LBB5732:
.LBB5727:
.LBB5725:
.LBB5723:
.LBB5720:
.LBB5721:
	.loc 3 193 0
	lwz 3,1328(24)
	cmpwi 7,3,0
	beq- 7,.L624
	.loc 3 194 0
	bl _ZdaPv
.L624:
	.loc 3 197 0
	stw 28,1328(24)
	.loc 3 199 0
	stw 28,1320(24)
	b .L625
.LVL1275:
.L650:
.LBE5721:
.LBE5720:
.LBE5723:
.LBE5725:
.LBE5727:
.LBE5732:
.LBB5733:
.LBB5709:
.LBB5706:
.LBB5703:
.LBB5699:
.LBB5700:
	.loc 3 193 0
	lwz 3,1344(24)
	cmpwi 7,3,0
	beq- 7,.L616
	.loc 3 194 0
	bl _ZdaPv
.L616:
	.loc 3 197 0
	stw 28,1344(24)
	.loc 3 199 0
	stw 28,1336(24)
	b .L617
.LVL1276:
.L646:
.LBE5700:
.LBE5699:
.LBE5703:
.LBE5706:
.LBE5709:
.LBE5733:
.LBE5737:
.LBE5738:
.LBB5739:
.LBB5621:
.LBB5617:
.LBB5614:
	.loc 3 388 0
	stw 28,760(31)
	b .L596
.LVL1277:
.L595:
.LBE5614:
.LBE5617:
	.loc 3 302 0
	stw 28,760(31)
.LVL1278:
	b .L634
.LVL1279:
.L645:
.LBB5618:
.LBB5615:
.LBB5612:
.LBB5610:
	.loc 3 193 0
	lwz 3,772(31)
	mr 0,28
	cmpwi 7,3,0
	beq- 7,.L593
	.loc 3 194 0
	bl _ZdaPv
	lwz 0,12(1)
.L593:
	.loc 3 197 0
	li 9,0
	stw 9,772(31)
	.loc 3 199 0
	stw 9,764(31)
	b .L594
.LVL1280:
.L636:
	mr 31,3
.LVL1281:
.LBE5610:
.LBE5612:
.LBE5615:
.LBE5618:
.LBE5621:
.LBE5739:
.LBB5740:
.LBB5661:
.LBB5650:
.LBB5651:
.LBB5652:
	.loc 3 181 0
	addi 3,30,1332
	bl _ZN6idListIP7shard_sE5ClearEv
.LVL1282:
.LBE5652:
.LBE5651:
.LBE5650:
.LBB5653:
.LBB5654:
.LBB5655:
	addi 3,30,1316
	bl _ZN6idListIbE5ClearEv
.LVL1283:
.LBE5655:
.LBE5654:
.LBE5653:
.LBB5656:
.LBB5657:
.LBB5658:
	addi 3,30,1300
	bl _ZN6idListIP14idFixedWindingE5ClearEv
.LBE5658:
.LBE5657:
.LBE5656:
	.loc 16 42 0
	addi 3,30,4
	bl _ZN14idFixedWindingD1Ev
.LBE5661:
.LBE5740:
	.loc 2 208 0
	mr 3,30
	bl _ZdlPv
	mr 3,31
	bl _Unwind_Resume
.LEHE21:
.LBE5746:
	.cfi_endproc
.LFE2823:
	.section	.gcc_except_table
.LLSDA2823:
	.byte	0xff
	.byte	0xff
	.byte	0x1
	.uleb128 .LLSDACSE2823-.LLSDACSB2823
.LLSDACSB2823:
	.uleb128 .LEHB19-.LFB2823
	.uleb128 .LEHE19-.LEHB19
	.uleb128 0
	.uleb128 0
	.uleb128 .LEHB20-.LFB2823
	.uleb128 .LEHE20-.LEHB20
	.uleb128 .L636-.LFB2823
	.uleb128 0
	.uleb128 .LEHB21-.LFB2823
	.uleb128 .LEHE21-.LEHB21
	.uleb128 0
	.uleb128 0
.LLSDACSE2823:
	.section	".text"
	.size	_ZN17idBrittleFracture7RestoreEP13idRestoreGame, .-_ZN17idBrittleFracture7RestoreEP13idRestoreGame
	.align 2
	.globl _ZN17idBrittleFractureD2Ev
	.type	_ZN17idBrittleFractureD2Ev, @function
_ZN17idBrittleFractureD2Ev:
.LFB2819:
	.loc 2 83 0
	.cfi_startproc
	.cfi_personality 0,__gxx_personality_v0
	.cfi_lsda 0,.LLSDA2819
.LVL1284:
	mflr 0
	stwu 1,-48(1)
.LCFI103:
	.cfi_def_cfa_offset 48
	.cfi_register 65, 0
.LBB5810:
	lis 9,_ZTV17idBrittleFracture+8@ha
.LBE5810:
	stw 25,20(1)
	mr 25,3
	.cfi_offset 25, -28
	stw 0,52(1)
	stw 23,12(1)
	stw 24,16(1)
	stw 26,24(1)
	stw 27,28(1)
	stw 28,32(1)
	stw 29,36(1)
	stw 30,40(1)
	stw 31,44(1)
.LBB5929:
.LBB5811:
	.loc 2 86 0
	lwz 0,760(3)
	.cfi_offset 31, -4
	.cfi_offset 30, -8
	.cfi_offset 29, -12
	.cfi_offset 28, -16
	.cfi_offset 27, -20
	.cfi_offset 26, -24
	.cfi_offset 24, -32
	.cfi_offset 23, -36
	.cfi_offset 65, 4
	cmpwi 7,0,0
.LBE5811:
	.loc 2 83 0
	la 0,_ZTV17idBrittleFracture+8@l(9)
	stw 0,0(3)
.LVL1285:
.LBB5910:
	.loc 2 86 0
	ble- 7,.L656
.LBB5812:
.LBB5813:
.LBB5814:
.LBB5815:
.LBB5816:
.LBB5817:
.LBB5818:
.LBB5819:
.LBB5820:
	.loc 1 183 0
	lis 23,_ZTV9idWinding+8@ha
.LBE5820:
.LBE5819:
.LBE5818:
.LBE5817:
.LBE5816:
.LBE5815:
.LBE5814:
.LBE5813:
.LBE5812:
	.loc 2 86 0
	li 26,0
.LBB5898:
.LBB5899:
	.loc 3 218 0
	li 28,0
.LBE5899:
.LBE5898:
.LBB5904:
.LBB5894:
.LBB5890:
.LBB5831:
.LBB5829:
.LBB5827:
.LBB5825:
.LBB5823:
.LBB5821:
	.loc 1 183 0
	la 23,_ZTV9idWinding+8@l(23)
.LVL1286:
.L676:
.LBE5821:
.LBE5823:
.LBE5825:
.LBE5827:
.LBE5829:
.LBE5831:
.LBE5890:
.LBE5894:
.LBE5904:
	.loc 2 87 0
	lwz 9,772(25)
	.loc 2 83 0
	slwi 24,26,2
	.loc 2 87 0
	lwzx 27,9,24
.LBB5905:
.LBB5902:
	.loc 3 218 0
	lwz 0,1300(27)
.LBE5902:
.LBE5905:
	.loc 2 87 0
	addi 29,27,1300
.LVL1287:
.LBB5906:
.LBB5903:
	.loc 3 218 0
	cmpwi 7,0,0
	ble- 7,.L657
	li 31,0
.LVL1288:
.L659:
	.loc 3 219 0
	lwz 9,12(29)
	.loc 2 83 0
	slwi 30,31,2
	.loc 3 219 0
	lwzx 3,9,30
	add 9,9,30
	cmpwi 7,3,0
	beq- 7,.L658
	lwz 9,0(3)
	lwz 0,4(9)
	mtctr 0
.LEHB22:
	bctrl
.LEHE22:
	lwz 9,1312(27)
	add 9,9,30
.L658:
	.loc 3 220 0
	stw 28,0(9)
	.loc 3 218 0
	addi 31,31,1
.LVL1289:
	lwz 0,0(29)
	cmpw 7,31,0
	blt+ 7,.L659
.LVL1290:
.L657:
.LBB5900:
.LBB5901:
	.loc 3 193 0
	lwz 3,1312(27)
	cmpwi 7,3,0
	beq- 7,.L660
	.loc 3 194 0
	bl _ZdaPv
.L660:
	.loc 3 197 0
	stw 28,1312(27)
	.loc 3 198 0
	stw 28,1300(27)
	.loc 3 199 0
	stw 28,1304(27)
.LVL1291:
.LBE5901:
.LBE5900:
.LBE5903:
.LBE5906:
	.loc 2 88 0
	lwz 9,772(25)
	lwzx 31,9,24
	cmpwi 7,31,0
	beq- 7,.L661
.LVL1292:
.LBB5907:
.LBB5895:
.LBB5891:
	.loc 16 42 0
	addi 3,31,1348
.LEHB23:
	bl _ZN19idPhysics_RigidBodyD1Ev
.LEHE23:
.LVL1293:
.LBB5832:
.LBB5833:
.LBB5834:
.LBB5835:
	.loc 3 193 0
	lwz 3,1344(31)
	cmpwi 7,3,0
	beq- 7,.L662
	.loc 3 194 0
	bl _ZdaPv
.L662:
.LBE5835:
.LBE5834:
.LBE5833:
.LBE5832:
.LBB5842:
.LBB5843:
.LBB5844:
.LBB5845:
	.loc 3 193 0
	lwz 3,1328(31)
.LBE5845:
.LBE5844:
.LBE5843:
.LBE5842:
.LBB5858:
.LBB5840:
.LBB5838:
.LBB5836:
	.loc 3 197 0
	stw 28,1344(31)
.LBE5836:
.LBE5838:
.LBE5840:
.LBE5858:
.LBB5859:
.LBB5854:
.LBB5850:
.LBB5846:
	.loc 3 193 0
	cmpwi 7,3,0
.LBE5846:
.LBE5850:
.LBE5854:
.LBE5859:
.LBB5860:
.LBB5841:
.LBB5839:
.LBB5837:
	.loc 3 198 0
	stw 28,1332(31)
	.loc 3 199 0
	stw 28,1336(31)
.LVL1294:
.LBE5837:
.LBE5839:
.LBE5841:
.LBE5860:
.LBB5861:
.LBB5855:
.LBB5851:
.LBB5847:
	.loc 3 193 0
	beq- 7,.L664
	.loc 3 194 0
	bl _ZdaPv
.L664:
.LBE5847:
.LBE5851:
.LBE5855:
.LBE5861:
.LBB5862:
.LBB5863:
.LBB5864:
.LBB5865:
	.loc 3 193 0
	lwz 3,1312(31)
.LBE5865:
.LBE5864:
.LBE5863:
.LBE5862:
.LBB5875:
.LBB5856:
.LBB5852:
.LBB5848:
	.loc 3 197 0
	stw 28,1328(31)
.LBE5848:
.LBE5852:
.LBE5856:
.LBE5875:
.LBB5876:
.LBB5872:
.LBB5869:
.LBB5866:
	.loc 3 193 0
	cmpwi 7,3,0
.LBE5866:
.LBE5869:
.LBE5872:
.LBE5876:
.LBB5877:
.LBB5857:
.LBB5853:
.LBB5849:
	.loc 3 198 0
	stw 28,1316(31)
	.loc 3 199 0
	stw 28,1320(31)
.LVL1295:
.LBE5849:
.LBE5853:
.LBE5857:
.LBE5877:
.LBB5878:
.LBB5873:
.LBB5870:
.LBB5867:
	.loc 3 193 0
	beq- 7,.L666
	.loc 3 194 0
	bl _ZdaPv
.L666:
	.loc 3 197 0
	stw 28,1312(31)
.LBE5867:
.LBE5870:
.LBE5873:
.LBE5878:
.LBE5891:
.LBE5895:
.LBE5907:
	.loc 2 88 0
	mr 3,31
.LBB5908:
.LBB5896:
.LBB5892:
.LBB5879:
.LBB5874:
.LBB5871:
.LBB5868:
	.loc 3 198 0
	stw 28,1300(31)
	.loc 3 199 0
	stw 28,1304(31)
.LVL1296:
.LBE5868:
.LBE5871:
.LBE5874:
.LBE5879:
.LBB5880:
.LBB5830:
.LBB5828:
	.loc 1 381 0
	stw 28,12(31)
.LVL1297:
.LBB5826:
.LBB5824:
.LBB5822:
	.loc 1 183 0
	stw 23,4(31)
.LBE5822:
.LBE5824:
.LBE5826:
.LBE5828:
.LBE5830:
.LBE5880:
.LBE5892:
.LBE5896:
.LBE5908:
	.loc 2 88 0
	bl _ZdlPv
.LVL1298:
.L661:
	.loc 2 86 0
	lwz 0,760(25)
	addi 26,26,1
.LVL1299:
	cmpw 7,0,26
	bgt+ 7,.L676
.LVL1300:
.L656:
	.loc 2 92 0
	mr 3,25
.LEHB24:
	bl _ZN8idEntity12FreeModelDefEv
	.loc 2 93 0
	lis 9,renderModelManager@ha
	lwz 4,196(25)
	lwz 3,renderModelManager@l(9)
	lwz 9,0(3)
	lwz 0,28(9)
	mtctr 0
	bctrl
.LEHE24:
.LVL1301:
.LBE5910:
.LBB5911:
.LBB5912:
.LBB5913:
.LBB5914:
	.loc 3 193 0
	lwz 3,772(25)
	cmpwi 7,3,0
	beq- 7,.L677
	.loc 3 194 0
	bl _ZdaPv
.L677:
	.loc 3 197 0
	li 0,0
.LBE5914:
.LBE5913:
.LBE5912:
.LBE5911:
	.loc 2 83 0
	addi 3,25,716
.LBB5918:
.LBB5917:
.LBB5916:
.LBB5915:
	.loc 3 197 0
	stw 0,772(25)
	.loc 3 198 0
	stw 0,760(25)
	.loc 3 199 0
	stw 0,764(25)
.LEHB25:
.LBE5915:
.LBE5916:
.LBE5917:
.LBE5918:
	.loc 2 83 0
	bl _ZN21idPhysics_StaticMultiD1Ev
.LEHE25:
.LVL1302:
.LBB5919:
.LBB5920:
.LBB5921:
	.loc 14 501 0 discriminator 2
	addi 3,25,684
.LEHB26:
	bl _ZN5idStr8FreeDataEv
.LEHE26:
.LBE5921:
.LBE5920:
.LBE5919:
	.loc 2 83 0 discriminator 3
	mr 3,25
.LEHB27:
	bl _ZN8idEntityD2Ev
.LEHE27:
.LBE5929:
	.loc 2 94 0 discriminator 3
	lwz 0,52(1)
	lwz 23,12(1)
	mtlr 0
	lwz 24,16(1)
	lwz 25,20(1)
.LVL1303:
	lwz 26,24(1)
	lwz 27,28(1)
	lwz 28,32(1)
	lwz 29,36(1)
	lwz 30,40(1)
	lwz 31,44(1)
	addi 1,1,48
	.cfi_remember_state
.LCFI104:
	.cfi_def_cfa_offset 0
	.cfi_restore 31
	.cfi_restore 30
	.cfi_restore 29
	.cfi_restore 28
	.cfi_restore 27
	.cfi_restore 26
	.cfi_restore 25
	.cfi_restore 24
	.cfi_restore 23
	blr
.LVL1304:
.L685:
.LCFI105:
	.cfi_restore_state
	mr 31,3
.L673:
.LVL1305:
.LBB5930:
.LBB5922:
.LBB5923:
.LBB5924:
	.loc 3 181 0
	addi 3,25,760
	bl _ZN6idListIP7shard_sE5ClearEv
.LBE5924:
.LBE5923:
.LBE5922:
	.loc 2 83 0
	addi 3,25,716
	bl _ZN21idPhysics_StaticMultiD1Ev
.LVL1306:
.L682:
.LBB5925:
.LBB5926:
.LBB5927:
	.loc 14 501 0
	addi 3,25,684
	bl _ZN5idStr8FreeDataEv
.LVL1307:
.L684:
.LBE5927:
.LBE5926:
.LBE5925:
	.loc 2 83 0
	mr 3,25
	bl _ZN8idEntityD2Ev
	mr 3,31
.LEHB28:
	bl _Unwind_Resume
.LEHE28:
.LVL1308:
.L687:
	mr 31,3
	b .L684
.LVL1309:
.L686:
	mr 31,3
	b .L682
.LVL1310:
.L688:
	mr 30,3
.LVL1311:
.LBB5928:
.LBB5909:
.LBB5897:
.LBB5893:
.LBB5881:
.LBB5882:
.LBB5883:
	.loc 3 181 0
	addi 3,31,1332
	bl _ZN6idListIP7shard_sE5ClearEv
.LVL1312:
.LBE5883:
.LBE5882:
.LBE5881:
.LBB5884:
.LBB5885:
.LBB5886:
	addi 3,31,1316
	bl _ZN6idListIbE5ClearEv
.LVL1313:
.LBE5886:
.LBE5885:
.LBE5884:
.LBB5887:
.LBB5888:
.LBB5889:
	addi 3,31,1300
	bl _ZN6idListIP14idFixedWindingE5ClearEv
.LBE5889:
.LBE5888:
.LBE5887:
	.loc 16 42 0
	addi 3,31,4
	bl _ZN14idFixedWindingD1Ev
	mr 31,30
.LVL1314:
	b .L673
.LBE5893:
.LBE5897:
.LBE5909:
.LBE5928:
.LBE5930:
	.cfi_endproc
.LFE2819:
	.section	.gcc_except_table
.LLSDA2819:
	.byte	0xff
	.byte	0xff
	.byte	0x1
	.uleb128 .LLSDACSE2819-.LLSDACSB2819
.LLSDACSB2819:
	.uleb128 .LEHB22-.LFB2819
	.uleb128 .LEHE22-.LEHB22
	.uleb128 .L685-.LFB2819
	.uleb128 0
	.uleb128 .LEHB23-.LFB2819
	.uleb128 .LEHE23-.LEHB23
	.uleb128 .L688-.LFB2819
	.uleb128 0
	.uleb128 .LEHB24-.LFB2819
	.uleb128 .LEHE24-.LEHB24
	.uleb128 .L685-.LFB2819
	.uleb128 0
	.uleb128 .LEHB25-.LFB2819
	.uleb128 .LEHE25-.LEHB25
	.uleb128 .L686-.LFB2819
	.uleb128 0
	.uleb128 .LEHB26-.LFB2819
	.uleb128 .LEHE26-.LEHB26
	.uleb128 .L687-.LFB2819
	.uleb128 0
	.uleb128 .LEHB27-.LFB2819
	.uleb128 .LEHE27-.LEHB27
	.uleb128 0
	.uleb128 0
	.uleb128 .LEHB28-.LFB2819
	.uleb128 .LEHE28-.LEHB28
	.uleb128 0
	.uleb128 0
.LLSDACSE2819:
	.section	".text"
	.size	_ZN17idBrittleFractureD2Ev, .-_ZN17idBrittleFractureD2Ev
	.align 2
	.globl _ZN17idBrittleFractureD0Ev
	.type	_ZN17idBrittleFractureD0Ev, @function
_ZN17idBrittleFractureD0Ev:
.LFB2821:
	.loc 2 83 0
	.cfi_startproc
.LVL1315:
	stwu 1,-16(1)
.LCFI106:
	.cfi_def_cfa_offset 16
	mflr 0
	stw 31,12(1)
	mr 31,3
	.cfi_offset 31, -4
	.cfi_register 65, 0
	stw 0,20(1)
	.loc 2 94 0
	.cfi_offset 65, 4
	bl _ZN17idBrittleFractureD1Ev
.LVL1316:
	mr 3,31
	bl _ZN7idClassdlEPv
	lwz 0,20(1)
	lwz 31,12(1)
.LVL1317:
	mtlr 0
	addi 1,1,16
.LCFI107:
	.cfi_def_cfa_offset 0
	.cfi_restore 31
	blr
	.cfi_endproc
.LFE2821:
	.size	_ZN17idBrittleFractureD0Ev, .-_ZN17idBrittleFractureD0Ev
	.section	.text.startup,"ax",@progbits
	.align 2
	.type	_GLOBAL__sub_I__ZN17idBrittleFracture4TypeE, @function
_GLOBAL__sub_I__ZN17idBrittleFracture4TypeE:
.LFB3175:
	.loc 2 1290 0
	.cfi_startproc
	.loc 2 1290 0
	li 3,1
	b _Z41__static_initialization_and_destruction_0ii.constprop.49
	.cfi_endproc
.LFE3175:
	.size	_GLOBAL__sub_I__ZN17idBrittleFracture4TypeE, .-_GLOBAL__sub_I__ZN17idBrittleFracture4TypeE
	.section	.ctors,"aw",@progbits
	.align 2
	.long	_GLOBAL__sub_I__ZN17idBrittleFracture4TypeE
	.section	.text.exit,"ax",@progbits
	.align 2
	.type	_GLOBAL__sub_D__ZN17idBrittleFracture4TypeE, @function
_GLOBAL__sub_D__ZN17idBrittleFracture4TypeE:
.LFB3176:
	.loc 2 1290 0
	.cfi_startproc
	.loc 2 1290 0
	li 3,0
	b _Z41__static_initialization_and_destruction_0ii.constprop.49
	.cfi_endproc
.LFE3176:
	.size	_GLOBAL__sub_D__ZN17idBrittleFracture4TypeE, .-_GLOBAL__sub_D__ZN17idBrittleFracture4TypeE
	.section	.dtors,"aw",@progbits
	.align 2
	.long	_GLOBAL__sub_D__ZN17idBrittleFracture4TypeE
	.weak	_ZTS9idWinding
	.section	.rodata._ZTS9idWinding,"aG",@progbits,_ZTS9idWinding,comdat
	.align 2
	.type	_ZTS9idWinding, @object
	.size	_ZTS9idWinding, 11
_ZTS9idWinding:
	.string	"9idWinding"
	.weak	_ZTI9idWinding
	.section	.sdata._ZTI9idWinding,"awG",@progbits,_ZTI9idWinding,comdat
	.align 2
	.type	_ZTI9idWinding, @object
	.size	_ZTI9idWinding, 8
_ZTI9idWinding:
	.long	_ZTVN10__cxxabiv117__class_type_infoE+8
	.long	_ZTS9idWinding
	.weak	_ZTS14idFixedWinding
	.section	.rodata._ZTS14idFixedWinding,"aG",@progbits,_ZTS14idFixedWinding,comdat
	.align 2
	.type	_ZTS14idFixedWinding, @object
	.size	_ZTS14idFixedWinding, 17
_ZTS14idFixedWinding:
	.string	"14idFixedWinding"
	.weak	_ZTI14idFixedWinding
	.section	.rodata._ZTI14idFixedWinding,"aG",@progbits,_ZTI14idFixedWinding,comdat
	.align 2
	.type	_ZTI14idFixedWinding, @object
	.size	_ZTI14idFixedWinding, 12
_ZTI14idFixedWinding:
	.long	_ZTVN10__cxxabiv120__si_class_type_infoE+8
	.long	_ZTS14idFixedWinding
	.long	_ZTI9idWinding
	.weak	_ZTS17idBrittleFracture
	.section	.rodata._ZTS17idBrittleFracture,"aG",@progbits,_ZTS17idBrittleFracture,comdat
	.align 2
	.type	_ZTS17idBrittleFracture, @object
	.size	_ZTS17idBrittleFracture, 20
_ZTS17idBrittleFracture:
	.string	"17idBrittleFracture"
	.weak	_ZTI17idBrittleFracture
	.section	.rodata._ZTI17idBrittleFracture,"aG",@progbits,_ZTI17idBrittleFracture,comdat
	.align 2
	.type	_ZTI17idBrittleFracture, @object
	.size	_ZTI17idBrittleFracture, 12
_ZTI17idBrittleFracture:
	.long	_ZTVN10__cxxabiv120__si_class_type_infoE+8
	.long	_ZTS17idBrittleFracture
	.long	_ZTI8idEntity
	.weak	_ZTV9idWinding
	.section	.rodata._ZTV9idWinding,"aG",@progbits,_ZTV9idWinding,comdat
	.align 3
	.type	_ZTV9idWinding, @object
	.size	_ZTV9idWinding, 24
_ZTV9idWinding:
	.long	0
	.long	_ZTI9idWinding
	.long	_ZN9idWindingD1Ev
	.long	_ZN9idWindingD0Ev
	.long	_ZN9idWinding5ClearEv
	.long	_ZN9idWinding10ReAllocateEib
	.weak	_ZTV14idFixedWinding
	.section	.rodata._ZTV14idFixedWinding,"aG",@progbits,_ZTV14idFixedWinding,comdat
	.align 3
	.type	_ZTV14idFixedWinding, @object
	.size	_ZTV14idFixedWinding, 24
_ZTV14idFixedWinding:
	.long	0
	.long	_ZTI14idFixedWinding
	.long	_ZN14idFixedWindingD1Ev
	.long	_ZN14idFixedWindingD0Ev
	.long	_ZN14idFixedWinding5ClearEv
	.long	_ZN14idFixedWinding10ReAllocateEib
	.weak	_ZTV17idBrittleFracture
	.section	.rodata._ZTV17idBrittleFracture,"aG",@progbits,_ZTV17idBrittleFracture,comdat
	.align 3
	.type	_ZTV17idBrittleFracture, @object
	.size	_ZTV17idBrittleFracture, 236
_ZTV17idBrittleFracture:
	.long	0
	.long	_ZTI17idBrittleFracture
	.long	_ZNK17idBrittleFracture7GetTypeEv
	.long	_ZN17idBrittleFractureD1Ev
	.long	_ZN17idBrittleFractureD0Ev
	.long	_ZN8idEntity25UpdateChangeableSpawnArgsEPK6idDict
	.long	_ZN8idEntity13GetRenderViewEv
	.long	_ZN17idBrittleFracture5ThinkEv
	.long	_ZN8idEntity12DormantBeginEv
	.long	_ZN8idEntity10DormantEndEv
	.long	_ZN17idBrittleFracture7PresentEv
	.long	_ZN8idEntity15GetRenderEntityEv
	.long	_ZN8idEntity17GetModelDefHandleEv
	.long	_ZN8idEntity8SetModelEPKc
	.long	_ZN8idEntity8SetColorEfff
	.long	_ZN8idEntity8SetColorERK6idVec3
	.long	_ZNK8idEntity8GetColorER6idVec3
	.long	_ZN8idEntity8SetColorERK6idVec4
	.long	_ZNK8idEntity8GetColorER6idVec4
	.long	_ZN8idEntity12FreeModelDefEv
	.long	_ZN8idEntity12FreeLightDefEv
	.long	_ZN8idEntity4HideEv
	.long	_ZN8idEntity4ShowEv
	.long	_ZN8idEntity14ProjectOverlayERK6idVec3S2_fPKc
	.long	_ZN8idEntity26UpdateAnimationControllersEv
	.long	_ZN8idEntity11GetAnimatorEv
	.long	_ZNK8idEntity20CanPlayChatterSoundsEv
	.long	_ZN8idEntity7PreBindEv
	.long	_ZN8idEntity8PostBindEv
	.long	_ZN8idEntity9PreUnbindEv
	.long	_ZN8idEntity10PostUnbindEv
	.long	_ZN8idEntity27GetPhysicsToVisualTransformER6idVec3R6idMat3
	.long	_ZN8idEntity26GetPhysicsToSoundTransformER6idVec3R6idMat3
	.long	_ZN8idEntity7CollideERK7trace_sRK6idVec3
	.long	_ZN8idEntity13GetImpactInfoEPS_iRK6idVec3P12impactInfo_s
	.long	_ZN17idBrittleFracture12ApplyImpulseEP8idEntityiRK6idVec3S4_
	.long	_ZN17idBrittleFracture8AddForceEP8idEntityiRK6idVec3S4_
	.long	_ZN8idEntity15ActivatePhysicsEPS_
	.long	_ZNK8idEntity8IsAtRestEv
	.long	_ZNK8idEntity16GetRestStartTimeEv
	.long	_ZN8idEntity16AddContactEntityEPS_
	.long	_ZN8idEntity19RemoveContactEntityEPS_
	.long	_ZNK8idEntity9CanDamageERK6idVec3RS0_
	.long	_ZN8idEntity6DamageEPS_S0_RK6idVec3PKcfi
	.long	_ZN17idBrittleFracture15AddDamageEffectERK7trace_sRK6idVec3PKc
	.long	_ZN8idEntity14DamageFeedbackEPS_S0_Ri
	.long	_ZN8idEntity4PainEPS_S0_iRK6idVec3i
	.long	_ZN17idBrittleFracture6KilledEP8idEntityS1_iRK6idVec3i
	.long	_ZNK8idEntity34ShouldConstructScriptObjectAtSpawnEv
	.long	_ZN8idEntity21ConstructScriptObjectEv
	.long	_ZN8idEntity23DeconstructScriptObjectEv
	.long	_ZN8idEntity22HandleSingleGuiCommandEPS_P7idLexer
	.long	_ZN8idEntity8TeleportERK6idVec3RK8idAnglesPS_
	.long	_ZN8idEntity17ShowEditingDialogEv
	.long	_ZN17idBrittleFracture21ClientPredictionThinkEv
	.long	_ZNK8idEntity15WriteToSnapshotER13idBitMsgDelta
	.long	_ZN8idEntity16ReadFromSnapshotERK13idBitMsgDelta
	.long	_ZN8idEntity18ServerReceiveEventEiiRK8idBitMsg
	.long	_ZN17idBrittleFracture18ClientReceiveEventEiiRK8idBitMsg
	.globl _ZN17idBrittleFracture14eventCallbacksE
	.globl _ZN17idBrittleFracture4TypeE
	.weak	_ZTI12idAllocError
	.section	.rodata._ZTI12idAllocError,"aG",@progbits,_ZTI12idAllocError,comdat
	.align 2
	.type	_ZTI12idAllocError, @object
	.size	_ZTI12idAllocError, 12
_ZTI12idAllocError:
	.long	_ZTVN10__cxxabiv120__si_class_type_infoE+8
	.long	_ZTS12idAllocError
	.long	_ZTI11idException
	.weak	_ZTS12idAllocError
	.section	.rodata._ZTS12idAllocError,"aG",@progbits,_ZTS12idAllocError,comdat
	.align 2
	.type	_ZTS12idAllocError, @object
	.size	_ZTS12idAllocError, 15
_ZTS12idAllocError:
	.string	"12idAllocError"
	.weak	_ZTI11idException
	.section	.sdata._ZTI11idException,"awG",@progbits,_ZTI11idException,comdat
	.align 2
	.type	_ZTI11idException, @object
	.size	_ZTI11idException, 8
_ZTI11idException:
	.long	_ZTVN10__cxxabiv117__class_type_infoE+8
	.long	_ZTS11idException
	.weak	_ZTS11idException
	.section	.rodata._ZTS11idException,"aG",@progbits,_ZTS11idException,comdat
	.align 2
	.type	_ZTS11idException, @object
	.size	_ZTS11idException, 14
_ZTS11idException:
	.string	"11idException"
	.weak	_ZN9idWindingD1Ev
	.set	_ZN9idWindingD1Ev,_ZN9idWindingD2Ev
	.weak	_ZN14idFixedWindingD1Ev
	.set	_ZN14idFixedWindingD1Ev,_ZN14idFixedWindingD2Ev
	.globl _ZN17idBrittleFractureC1Ev
	.set	_ZN17idBrittleFractureC1Ev,_ZN17idBrittleFractureC2Ev
	.globl _ZN17idBrittleFractureD1Ev
	.set	_ZN17idBrittleFractureD1Ev,_ZN17idBrittleFractureD2Ev
	.section	.rodata.cst4,"aM",@progbits,4
	.align 2
.LC0:
	.4byte	-997900288
.LC3:
	.4byte	1065353216
.LC6:
	.4byte	1501560836
.LC7:
	.4byte	1161527296
.LC10:
	.4byte	939524096
.LC11:
	.4byte	1056964608
.LC13:
	.4byte	1069547520
.LC14:
	.4byte	0
.LC15:
	.4byte	1058642330
.LC17:
	.4byte	1036831949
.LC18:
	.4byte	-1110651699
.LC20:
	.4byte	1048576000
.LC24:
	.4byte	1120403456
.LC25:
	.4byte	1176256512
.LC29:
	.4byte	981668463
.LC30:
	.4byte	1148846080
	.section	".data"
	.align 2
	.set	.LANCHOR1,. + 0
	.type	_ZN17idBrittleFracture14eventCallbacksE, @object
	.size	_ZN17idBrittleFracture14eventCallbacksE, 36
_ZN17idBrittleFracture14eventCallbacksE:
	.long	EV_Activate
	.long	_ZN17idBrittleFracture14Event_ActivateEP8idEntity
	.long	0
	.long	EV_Touch
	.long	_ZN17idBrittleFracture11Event_TouchEP8idEntityP7trace_s
	.long	0
	.long	0
	.long	0
	.long	0
	.section	.rodata.str1.4,"aMS",@progbits,1
	.align 2
.LC1:
	.string	"idBrittleFracture"
	.zero	2
.LC2:
	.string	"idEntity"
	.zero	3
.LC4:
	.string	"_BrittleFracture_Snapshot_"
	.zero	1
.LC8:
	.string	"idBrittleFracture::ModelCallback: callback with NULL game entity"
	.zero	3
.LC9:
	.string	"snd_bullethole"
	.zero	1
.LC16:
	.string	"snd_shatter"
.LC19:
	.string	"idBrittleFracture::idBrittleFracture( void ) size %d\r\n"
	.zero	1
.LC21:
	.string	""
	.zero	3
.LC22:
	.string	"40"
	.zero	1
.LC23:
	.string	"200"
.LC26:
	.string	"10"
	.zero	1
.LC27:
	.string	"0.1"
.LC28:
	.string	"20"
	.zero	1
.LC31:
	.string	"0"
	.zero	2
.LC32:
	.string	"mtr_decal"
	.zero	2
.LC33:
	.string	"decalSize"
	.zero	2
.LC34:
	.string	"maxShardArea"
	.zero	3
.LC35:
	.string	"maxShatterRadius"
	.zero	3
.LC36:
	.string	"minShatterRadius"
	.zero	3
.LC37:
	.string	"linearVelocityScale"
.LC38:
	.string	"angularVelocityScale"
	.zero	3
.LC39:
	.string	"fx"
	.zero	1
.LC40:
	.string	"shardMass"
	.zero	2
.LC41:
	.string	"density"
.LC42:
	.string	"friction"
	.zero	3
.LC43:
	.string	"0.4"
.LC44:
	.string	"bouncyness"
	.zero	1
.LC45:
	.string	"0.01"
	.zero	3
.LC46:
	.string	"disableFracture"
.LC47:
	.string	"health"
	.zero	1
.LC48:
	.string	"%i"
	.zero	1
.LC49:
	.string	"bleed"
	.section	".bss"
	.align 2
	.set	.LANCHOR0,. + 0
	.type	_ZN17idBrittleFracture4TypeE, @object
	.size	_ZN17idBrittleFracture4TypeE, 80
_ZN17idBrittleFracture4TypeE:
	.zero	80
	.type	_ZL22NUM_RENDER_PORTAL_BITS, @object
	.size	_ZL22NUM_RENDER_PORTAL_BITS, 4
_ZL22NUM_RENDER_PORTAL_BITS:
	.zero	4
	.type	_ZL20DEFAULT_GRAVITY_VEC3, @object
	.size	_ZL20DEFAULT_GRAVITY_VEC3, 12
_ZL20DEFAULT_GRAVITY_VEC3:
	.zero	12
	.type	_ZL20CINEMATIC_SKIP_DELAY, @object
	.size	_ZL20CINEMATIC_SKIP_DELAY, 4
_ZL20CINEMATIC_SKIP_DELAY:
	.zero	4
	.type	_ZL26ASYNC_PLAYER_INV_AMMO_BITS, @object
	.size	_ZL26ASYNC_PLAYER_INV_AMMO_BITS, 4
_ZL26ASYNC_PLAYER_INV_AMMO_BITS:
	.zero	4
	.section	".text"
.Letext0:
	.file 19 "<built-in>"
	.file 20 "c:\\utils\\devkitpro\\devkitppc\\bin\\../lib/gcc/powerpc-eabi/4.6.3/include/stddef.h"
	.file 21 "c:\\utils\\devkitpro\\devkitppc\\bin\\../lib/gcc/powerpc-eabi/4.6.3/../../../../powerpc-eabi/include/sys/types.h"
	.file 22 "d:/Data/Nintendo/DoomGX/src/game/../idlib/../sys/sys_public.h"
	.file 23 "d:/Data/Nintendo/DoomGX/src/game/../idlib/../framework/Common.h"
	.file 24 "d:/Data/Nintendo/DoomGX/src/game/../idlib/../framework/CVarSystem.h"
	.file 25 "d:/Data/Nintendo/DoomGX/src/game/../idlib/../framework/FileSystem.h"
	.file 26 "d:/Data/Nintendo/DoomGX/src/game/../idlib/../idlib/Lib.h"
	.file 27 "d:/Data/Nintendo/DoomGX/src/game/../idlib/../idlib/CmdArgs.h"
	.file 28 "d:/Data/Nintendo/DoomGX/src/game/../idlib/../idlib/math/Angles.h"
	.file 29 "d:/Data/Nintendo/DoomGX/src/game/../idlib/../idlib/math/Quat.h"
	.file 30 "d:/Data/Nintendo/DoomGX/src/game/../idlib/../idlib/math/Rotation.h"
	.file 31 "d:/Data/Nintendo/DoomGX/src/game/../idlib/../idlib/math/Ode.h"
	.file 32 "d:/Data/Nintendo/DoomGX/src/game/../idlib/../idlib/bv/Sphere.h"
	.file 33 "d:/Data/Nintendo/DoomGX/src/game/../idlib/../idlib/bv/Box.h"
	.file 34 "d:/Data/Nintendo/DoomGX/src/game/../idlib/../idlib/bv/Frustum.h"
	.file 35 "d:/Data/Nintendo/DoomGX/src/game/../idlib/../idlib/geometry/JointTransform.h"
	.file 36 "d:/Data/Nintendo/DoomGX/src/game/../idlib/../idlib/geometry/Surface.h"
	.file 37 "d:/Data/Nintendo/DoomGX/src/game/../idlib/../idlib/Token.h"
	.file 38 "d:/Data/Nintendo/DoomGX/src/game/../idlib/../idlib/Lexer.h"
	.file 39 "d:/Data/Nintendo/DoomGX/src/game/../idlib/../framework/File.h"
	.file 40 "d:/Data/Nintendo/DoomGX/src/game/../idlib/../idlib/Parser.h"
	.file 41 "d:/Data/Nintendo/DoomGX/src/game/../idlib/../idlib/containers/HashIndex.h"
	.file 42 "d:/Data/Nintendo/DoomGX/src/game/../idlib/../idlib/containers/StrList.h"
	.file 43 "d:/Data/Nintendo/DoomGX/src/game/../idlib/../idlib/containers/StrPool.h"
	.file 44 "d:/Data/Nintendo/DoomGX/src/game/../idlib/../idlib/containers/PlaneSet.h"
	.file 45 "d:/Data/Nintendo/DoomGX/src/game/../idlib/../idlib/LangDict.h"
	.file 46 "d:/Data/Nintendo/DoomGX/src/game/../idlib/../idlib/MapFile.h"
	.file 47 "d:/Data/Nintendo/DoomGX/src/game/../idlib/../framework/CmdSystem.h"
	.file 48 "d:/Data/Nintendo/DoomGX/src/game/../idlib/../framework/UsercmdGen.h"
	.file 49 "d:/Data/Nintendo/DoomGX/src/game/../idlib/../framework/DeclManager.h"
	.file 50 "d:/Data/Nintendo/DoomGX/src/game/../idlib/../renderer/Material.h"
	.file 51 "d:/Data/Nintendo/DoomGX/src/game/../idlib/../framework/DeclParticle.h"
	.file 52 "d:/Data/Nintendo/DoomGX/src/game/../idlib/../renderer/RenderWorld.h"
	.file 53 "d:/Data/Nintendo/DoomGX/src/game/../idlib/../renderer/Cinematic.h"
	.file 54 "d:/Data/Nintendo/DoomGX/src/game/../idlib/../renderer/Model.h"
	.file 55 "d:/Data/Nintendo/DoomGX/src/game/../idlib/../renderer/RenderSystem.h"
	.file 56 "d:/Data/Nintendo/DoomGX/src/game/../idlib/../sound/sound.h"
	.file 57 "d:/Data/Nintendo/DoomGX/src/game/../idlib/../ui/UserInterface.h"
	.file 58 "d:/Data/Nintendo/DoomGX/src/game/../idlib/../cm/CollisionModel.h"
	.file 59 "d:/Data/Nintendo/DoomGX/src/game/../idlib/../tools/compilers/aas/AASFile.h"
	.file 60 "d:/Data/Nintendo/DoomGX/src/game/../idlib/../game/Game.h"
	.file 61 "d:/Data/Nintendo/DoomGX/src/game/../idlib/../framework/async/NetworkSystem.h"
	.file 62 "d:/Data/Nintendo/DoomGX/src/game/../idlib/../renderer/ModelManager.h"
	.file 63 "d:/Data/Nintendo/DoomGX/src/game/../idlib/../tools/compilers/aas/AASFileManager.h"
	.file 64 "d:/Data/Nintendo/DoomGX/src/game/../idlib/../framework/Session.h"
	.file 65 "d:/Data/Nintendo/DoomGX/src/game/../idlib/../ui/ListGUI.h"
	.file 66 "d:/Data/Nintendo/DoomGX/src/game/gamesys/Event.h"
	.file 67 "d:/Data/Nintendo/DoomGX/src/game/gamesys/Class.h"
	.file 68 "d:/Data/Nintendo/DoomGX/src/game/gamesys/SaveGame.h"
	.file 69 "d:/Data/Nintendo/DoomGX/src/game/Entity.h"
	.file 70 "d:/Data/Nintendo/DoomGX/src/game/../idlib/../idlib/containers/Hierarchy.h"
	.file 71 "d:/Data/Nintendo/DoomGX/src/game/ai/AAS.h"
	.file 72 "d:/Data/Nintendo/DoomGX/src/game/../idlib/../framework/Console.h"
	.file 73 "d:/Data/Nintendo/DoomGX/src/game/../idlib/../idlib/math/Curve.h"
	.file 74 "d:/Data/Nintendo/DoomGX/src/game/../idlib/../idlib/math/Simd.h"
	.file 75 "d:/Data/Nintendo/DoomGX/src/game/../idlib/../framework/BuildVersion.h"
	.file 76 "d:/Data/Nintendo/DoomGX/src/game/../idlib/precompiled.h"
	.file 77 "d:/Data/Nintendo/DoomGX/src/game/../idlib/../framework/EventLoop.h"
	.file 78 "d:/Data/Nintendo/DoomGX/src/game/../idlib/../framework/EditField.h"
	.file 79 "d:/Data/Nintendo/DoomGX/src/game/../idlib/../framework/async/AsyncNetwork.h"
	.file 80 "d:/Data/Nintendo/DoomGX/src/game/../idlib/../framework/async/AsyncServer.h"
	.file 81 "d:/Data/Nintendo/DoomGX/src/game/anim/Anim.h"
	.file 82 "d:/Data/Nintendo/DoomGX/src/game/MultiplayerGame.h"
	.file 83 "d:/Data/Nintendo/DoomGX/src/game/AFEntity.h"
	.file 84 "d:/Data/Nintendo/DoomGX/src/game/Weapon.h"
	.file 85 "d:/Data/Nintendo/DoomGX/src/game/ai/AI.h"
	.file 86 "d:/Data/Nintendo/DoomGX/src/game/script/Script_Compiler.h"
	.file 87 "d:/Data/Nintendo/DoomGX/src/game/script/Script_Thread.h"