	.file	"Cinematic.cpp"
	.section	".text"
.Ltext0:
	.section	.text._ZN14idFixedWinding5ClearEv,"axG",@progbits,_ZN14idFixedWinding5ClearEv,comdat
	.align 2
	.weak	_ZN14idFixedWinding5ClearEv
	.type	_ZN14idFixedWinding5ClearEv, @function
_ZN14idFixedWinding5ClearEv:
.LFB1502:
	.file 1 "d:/Data/Nintendo/DoomGX/src/renderer/../idlib/../idlib/geometry/Winding.h"
	.loc 1 398 0
	.cfi_startproc
.LVL0:
	.loc 1 399 0
	li 0,0
	.loc 1 400 0
	.loc 1 399 0
	stw 0,4(3)
	.loc 1 400 0
	blr
	.cfi_endproc
.LFE1502:
	.size	_ZN14idFixedWinding5ClearEv, .-_ZN14idFixedWinding5ClearEv
	.section	.text._ZN11idSndWindowD2Ev,"axG",@progbits,_ZN11idSndWindowD5Ev,comdat
	.align 2
	.weak	_ZN11idSndWindowD2Ev
	.type	_ZN11idSndWindowD2Ev, @function
_ZN11idSndWindowD2Ev:
.LFB2343:
	.file 2 "d:/Data/Nintendo/DoomGX/src/renderer/../idlib/../renderer/Cinematic.h"
	.loc 2 104 0
	.cfi_startproc
.LVL1:
.LBB453:
.LBB454:
.LBB455:
.LBB456:
	.file 3 "d:/Data/Nintendo/DoomGX/src/renderer/Cinematic.cpp"
	.loc 3 215 0
	lis 9,_ZTV11idCinematic+8@ha
.LBE456:
.LBE455:
.LBE454:
.LBE453:
	.loc 2 104 0
.LBB460:
.LBB459:
.LBB458:
.LBB457:
	.loc 3 215 0
	la 0,_ZTV11idCinematic+8@l(9)
	stw 0,0(3)
.LVL2:
.LBE457:
.LBE458:
.LBE459:
.LBE460:
	.loc 2 104 0
	blr
	.cfi_endproc
.LFE2343:
	.size	_ZN11idSndWindowD2Ev, .-_ZN11idSndWindowD2Ev
	.section	".text"
	.align 2
	.globl _ZN11idCinematicD2Ev
	.type	_ZN11idCinematicD2Ev, @function
_ZN11idCinematicD2Ev:
.LFB2570:
	.loc 3 215 0
	.cfi_startproc
.LVL3:
.LBB461:
	.loc 3 215 0
	lis 9,_ZTV11idCinematic+8@ha
.LBE461:
	.loc 3 217 0
.LBB462:
	.loc 3 215 0
	la 0,_ZTV11idCinematic+8@l(9)
	stw 0,0(3)
.LVL4:
.LBE462:
	.loc 3 217 0
	blr
	.cfi_endproc
.LFE2570:
	.size	_ZN11idCinematicD2Ev, .-_ZN11idCinematicD2Ev
	.align 2
	.globl _ZN11idCinematic12InitFromFileEPKcb
	.type	_ZN11idCinematic12InitFromFileEPKcb, @function
_ZN11idCinematic12InitFromFileEPKcb:
.LFB2573:
	.loc 3 224 0
	.cfi_startproc
.LVL5:
	.loc 3 226 0
	li 3,0
.LVL6:
	blr
	.cfi_endproc
.LFE2573:
	.size	_ZN11idCinematic12InitFromFileEPKcb, .-_ZN11idCinematic12InitFromFileEPKcb
	.align 2
	.globl _ZN11idCinematic15AnimationLengthEv
	.type	_ZN11idCinematic15AnimationLengthEv, @function
_ZN11idCinematic15AnimationLengthEv:
.LFB2574:
	.loc 3 233 0
	.cfi_startproc
.LVL7:
	.loc 3 235 0
	li 3,0
.LVL8:
	blr
	.cfi_endproc
.LFE2574:
	.size	_ZN11idCinematic15AnimationLengthEv, .-_ZN11idCinematic15AnimationLengthEv
	.align 2
	.globl _ZN11idCinematic9ResetTimeEi
	.type	_ZN11idCinematic9ResetTimeEi, @function
_ZN11idCinematic9ResetTimeEi:
.LFB2575:
	.loc 3 242 0
	.cfi_startproc
.LVL9:
	.loc 3 243 0
	blr
	.cfi_endproc
.LFE2575:
	.size	_ZN11idCinematic9ResetTimeEi, .-_ZN11idCinematic9ResetTimeEi
	.align 2
	.globl _ZN11idCinematic5CloseEv
	.type	_ZN11idCinematic5CloseEv, @function
_ZN11idCinematic5CloseEv:
.LFB2577:
	.loc 3 261 0
	.cfi_startproc
.LVL10:
	.loc 3 262 0
	blr
	.cfi_endproc
.LFE2577:
	.size	_ZN11idCinematic5CloseEv, .-_ZN11idCinematic5CloseEv
	.align 2
	.globl _ZN16idCinematicLocal15AnimationLengthEv
	.type	_ZN16idCinematicLocal15AnimationLengthEv, @function
_ZN16idCinematicLocal15AnimationLengthEv:
.LFB2587:
	.loc 3 375 0
	.cfi_startproc
.LVL11:
	.loc 3 377 0
	lwz 3,1180(3)
.LVL12:
	blr
	.cfi_endproc
.LFE2587:
	.size	_ZN16idCinematicLocal15AnimationLengthEv, .-_ZN16idCinematicLocal15AnimationLengthEv
	.align 2
	.globl _ZN16idCinematicLocal9ResetTimeEi
	.type	_ZN16idCinematicLocal9ResetTimeEi, @function
_ZN16idCinematicLocal9ResetTimeEi:
.LFB2588:
	.loc 3 384 0
	.cfi_startproc
.LVL13:
	.loc 3 385 0
	lis 9,backEnd+4@ha
	.loc 3 384 0
	stwu 1,-16(1)
.LCFI0:
	.cfi_def_cfa_offset 16
	.loc 3 385 0
	lwz 9,backEnd+4@l(9)
	li 0,-1
	cmpwi 7,9,0
	beq- 7,.L13
	.loc 3 385 0 is_stmt 0 discriminator 1
	lfs 13,368(9)
	lis 9,.LC0@ha
	lfs 0,.LC0@l(9)
	addi 9,1,8
	fmuls 0,13,0
	fctiwz 0,0
	stfiwx 0,0,9
	lwz 0,8(1)
.L13:
	.loc 3 385 0 discriminator 3
	stw 0,1184(3)
	.loc 3 386 0 is_stmt 1 discriminator 3
	li 0,1
	.loc 3 387 0 discriminator 3
	.loc 3 386 0 discriminator 3
	stw 0,1080(3)
	.loc 3 387 0 discriminator 3
	addi 1,1,16
.LCFI1:
	.cfi_def_cfa_offset 0
	blr
	.cfi_endproc
.LFE2588:
	.size	_ZN16idCinematicLocal9ResetTimeEi, .-_ZN16idCinematicLocal9ResetTimeEi
	.align 2
	.type	_ZL11init_sourceP22jpeg_decompress_struct, @function
_ZL11init_sourceP22jpeg_decompress_struct:
.LFB2605:
	.loc 3 1378 0
	.cfi_startproc
.LVL14:
.LBB463:
	.loc 3 1379 0
	lwz 9,20(3)
.LVL15:
	.loc 3 1385 0
	li 0,1
	stb 0,36(9)
.LBE463:
	.loc 3 1386 0
	blr
	.cfi_endproc
.LFE2605:
	.size	_ZL11init_sourceP22jpeg_decompress_struct, .-_ZL11init_sourceP22jpeg_decompress_struct
	.align 2
	.type	_ZL15skip_input_dataP22jpeg_decompress_structl, @function
_ZL15skip_input_dataP22jpeg_decompress_structl:
.LFB2606:
	.loc 3 1402 0
	.cfi_startproc
.LVL16:
.LBB464:
	.loc 3 1409 0
	cmpwi 0,4,0
	.loc 3 1403 0
	lwz 9,20(3)
.LVL17:
	.loc 3 1409 0
	blelr- 0
	.loc 3 1410 0
	lwz 11,28(9)
	.loc 3 1411 0
	lwz 0,0(9)
	.loc 3 1412 0
	lwz 10,4(9)
	.loc 3 1410 0
	add 11,11,4
	.loc 3 1411 0
	add 0,0,4
	.loc 3 1410 0
	stw 11,28(9)
	.loc 3 1412 0
	subf 4,4,10
.LVL18:
	.loc 3 1411 0
	stw 0,0(9)
	.loc 3 1412 0
	stw 4,4(9)
	blr
.LBE464:
	.cfi_endproc
.LFE2606:
	.size	_ZL15skip_input_dataP22jpeg_decompress_structl, .-_ZL15skip_input_dataP22jpeg_decompress_structl
	.align 2
	.type	_ZL11term_sourceP22jpeg_decompress_struct, @function
_ZL11term_sourceP22jpeg_decompress_struct:
.LFB2607:
	.loc 3 1437 0
	.cfi_startproc
.LVL19:
	.loc 3 1440 0
	blr
	.cfi_endproc
.LFE2607:
	.size	_ZL11term_sourceP22jpeg_decompress_struct, .-_ZL11term_sourceP22jpeg_decompress_struct
	.align 2
	.globl _ZN11idSndWindow15AnimationLengthEv
	.type	_ZN11idSndWindow15AnimationLengthEv, @function
_ZN11idSndWindow15AnimationLengthEv:
.LFB2615:
	.loc 3 1787 0
	.cfi_startproc
.LVL20:
	.loc 3 1789 0
	li 3,-1
.LVL21:
	blr
	.cfi_endproc
.LFE2615:
	.size	_ZN11idSndWindow15AnimationLengthEv, .-_ZN11idSndWindow15AnimationLengthEv
	.section	.text._ZN9idWinding5ClearEv,"axG",@progbits,_ZN9idWinding5ClearEv,comdat
	.align 2
	.weak	_ZN9idWinding5ClearEv
	.type	_ZN9idWinding5ClearEv, @function
_ZN9idWinding5ClearEv:
.LFB1473:
	.loc 1 249 0
	.cfi_startproc
.LVL22:
	mflr 0
	stwu 1,-16(1)
.LCFI2:
	.cfi_def_cfa_offset 16
	.cfi_register 65, 0
	stw 31,12(1)
	mr 31,3
	.cfi_offset 31, -4
	stw 0,20(1)
	.loc 1 250 0
	li 0,0
	.cfi_offset 65, 4
	.loc 1 251 0
	lwz 3,8(3)
.LVL23:
	.loc 1 250 0
	stw 0,4(31)
	.loc 1 251 0
	cmpwi 7,3,0
	beq- 7,.L22
	.loc 1 251 0 is_stmt 0 discriminator 1
	bl _ZdaPv
.L22:
	.loc 1 252 0 is_stmt 1
	li 0,0
	stw 0,8(31)
	.loc 1 253 0
	lwz 0,20(1)
	lwz 31,12(1)
.LVL24:
	mtlr 0
	addi 1,1,16
.LCFI3:
	.cfi_def_cfa_offset 0
	.cfi_restore 31
	blr
	.cfi_endproc
.LFE1473:
	.size	_ZN9idWinding5ClearEv, .-_ZN9idWinding5ClearEv
	.section	.text._ZN9idWindingD2Ev,"axG",@progbits,_ZN9idWindingD5Ev,comdat
	.align 2
	.weak	_ZN9idWindingD2Ev
	.type	_ZN9idWindingD2Ev, @function
_ZN9idWindingD2Ev:
.LFB1461:
	.loc 1 183 0
	.cfi_startproc
.LVL25:
	mflr 0
	stwu 1,-16(1)
.LCFI4:
	.cfi_def_cfa_offset 16
	.cfi_register 65, 0
.LBB466:
	lis 9,_ZTV9idWinding+8@ha
.LBE466:
	stw 31,12(1)
	mr 31,3
	.cfi_offset 31, -4
	stw 0,20(1)
.LBB467:
	.loc 1 183 0
	la 0,_ZTV9idWinding+8@l(9)
	.cfi_offset 65, 4
	.loc 1 184 0
	lwz 3,8(3)
.LVL26:
	.loc 1 183 0
	stw 0,0(31)
	.loc 1 184 0
	cmpwi 7,3,0
	beq- 7,.L24
	.loc 1 184 0 is_stmt 0 discriminator 1
	bl _ZdaPv
.L24:
	.loc 1 185 0 is_stmt 1
	li 0,0
	stw 0,8(31)
.LBE467:
	.loc 1 186 0
	lwz 0,20(1)
	lwz 31,12(1)
.LVL27:
	mtlr 0
	addi 1,1,16
.LCFI5:
	.cfi_def_cfa_offset 0
	.cfi_restore 31
	blr
	.cfi_endproc
.LFE1461:
	.size	_ZN9idWindingD2Ev, .-_ZN9idWindingD2Ev
	.section	".text"
	.align 2
	.globl _ZN11idCinematicD0Ev
	.type	_ZN11idCinematicD0Ev, @function
_ZN11idCinematicD0Ev:
.LFB2572:
	.loc 3 215 0
	.cfi_startproc
.LVL28:
	mflr 0
	stwu 1,-8(1)
.LCFI6:
	.cfi_def_cfa_offset 8
	.cfi_register 65, 0
.LBB468:
.LBB469:
.LBB470:
	lis 9,_ZTV11idCinematic+8@ha
.LBE470:
.LBE469:
.LBE468:
	stw 0,12(1)
.LBB473:
.LBB472:
.LBB471:
	.loc 3 215 0
	la 0,_ZTV11idCinematic+8@l(9)
	.cfi_offset 65, 4
	stw 0,0(3)
.LVL29:
.LBE471:
.LBE472:
.LBE473:
	.loc 3 217 0
	bl _ZdlPv
.LVL30:
	lwz 0,12(1)
	addi 1,1,8
.LCFI7:
	.cfi_def_cfa_offset 0
	mtlr 0
	blr
	.cfi_endproc
.LFE2572:
	.size	_ZN11idCinematicD0Ev, .-_ZN11idCinematicD0Ev
	.section	.text._ZN11idSndWindowD0Ev,"axG",@progbits,_ZN11idSndWindowD5Ev,comdat
	.align 2
	.weak	_ZN11idSndWindowD0Ev
	.type	_ZN11idSndWindowD0Ev, @function
_ZN11idSndWindowD0Ev:
.LFB2345:
	.loc 2 104 0
	.cfi_startproc
.LVL31:
	mflr 0
	stwu 1,-8(1)
.LCFI8:
	.cfi_def_cfa_offset 8
	.cfi_register 65, 0
.LBB474:
.LBB475:
.LBB476:
.LBB477:
.LBB478:
.LBB479:
	.loc 3 215 0
	lis 9,_ZTV11idCinematic+8@ha
.LBE479:
.LBE478:
.LBE477:
.LBE476:
.LBE475:
.LBE474:
	.loc 2 104 0
	stw 0,12(1)
.LBB485:
.LBB484:
.LBB483:
.LBB482:
.LBB481:
.LBB480:
	.loc 3 215 0
	la 0,_ZTV11idCinematic+8@l(9)
	.cfi_offset 65, 4
	stw 0,0(3)
.LVL32:
.LBE480:
.LBE481:
.LBE482:
.LBE483:
.LBE484:
.LBE485:
	.loc 2 104 0
	bl _ZdlPv
.LVL33:
	lwz 0,12(1)
	addi 1,1,8
.LCFI9:
	.cfi_def_cfa_offset 0
	mtlr 0
	blr
	.cfi_endproc
.LFE2345:
	.size	_ZN11idSndWindowD0Ev, .-_ZN11idSndWindowD0Ev
	.section	".text"
	.align 2
	.globl _ZN11idCinematic12ImageForTimeEi
	.type	_ZN11idCinematic12ImageForTimeEi, @function
_ZN11idCinematic12ImageForTimeEi:
.LFB2576:
	.loc 3 250 0
	.cfi_startproc
.LVL34:
.LBB486:
	.loc 3 252 0
	li 0,0
.LBE486:
	.loc 3 254 0
.LBB487:
	.loc 3 252 0
	stw 0,0(3)
	stw 0,4(3)
	stw 0,8(3)
	stw 0,12(3)
.LBE487:
	.loc 3 254 0
	blr
	.cfi_endproc
.LFE2576:
	.size	_ZN11idCinematic12ImageForTimeEi, .-_ZN11idCinematic12ImageForTimeEi
	.align 2
	.globl _ZN11idSndWindow12ImageForTimeEi
	.type	_ZN11idSndWindow12ImageForTimeEi, @function
_ZN11idSndWindow12ImageForTimeEi:
.LFB2614:
	.loc 3 1774 0
	.cfi_startproc
.LVL35:
	mflr 0
	stwu 1,-16(1)
.LCFI10:
	.cfi_def_cfa_offset 16
	.cfi_register 65, 0
	stw 31,12(1)
	mr 31,3
	.cfi_offset 31, -4
	stw 0,20(1)
.LBB488:
	.loc 3 1776 0
	li 0,0
	.cfi_offset 65, 4
	stw 0,0(3)
	stw 0,4(3)
	stw 0,8(3)
	stw 0,12(3)
	.loc 3 1777 0
	lis 3,.LC1@ha
.LVL36:
	la 3,.LC1@l(3)
	crxor 6,6,6
	bl _Z10Sys_PrintfPKcz
.LVL37:
.LBE488:
	.loc 3 1779 0
	lwz 0,20(1)
	mr 3,31
	lwz 31,12(1)
.LVL38:
	mtlr 0
	addi 1,1,16
.LCFI11:
	.cfi_def_cfa_offset 0
	.cfi_restore 31
	blr
	.cfi_endproc
.LFE2614:
	.size	_ZN11idSndWindow12ImageForTimeEi, .-_ZN11idSndWindow12ImageForTimeEi
	.align 2
	.globl _ZN11idSndWindow12InitFromFileEPKcb
	.type	_ZN11idSndWindow12InitFromFileEPKcb, @function
_ZN11idSndWindow12InitFromFileEPKcb:
.LFB2613:
	.loc 3 1757 0
	.cfi_startproc
	.cfi_personality 0,__gxx_personality_v0
	.cfi_lsda 0,.LLSDA2613
.LVL39:
	stwu 1,-56(1)
.LCFI12:
	.cfi_def_cfa_offset 56
.LVL40:
	mflr 0
.LBB489:
.LBB490:
.LBB491:
.LBB492:
.LBB493:
	.file 4 "d:/Data/Nintendo/DoomGX/src/renderer/../idlib/../idlib/Str.h"
	.loc 4 357 0
	li 9,20
.LBE493:
.LBE492:
.LBE491:
.LBE490:
.LBE489:
	.loc 3 1757 0
	stw 30,48(1)
.LBB530:
.LBB510:
.LBB504:
	.loc 4 412 0
	mr. 30,4
	.cfi_offset 30, -8
	.cfi_register 65, 0
.LBE504:
.LBE510:
.LBE530:
	.loc 3 1757 0
	stw 0,60(1)
.LBB531:
.LBB511:
.LBB505:
.LBB497:
.LBB494:
	.loc 4 356 0
	li 0,0
	.cfi_offset 65, 4
.LBE494:
.LBE497:
.LBE505:
.LBE511:
.LBE531:
	.loc 3 1757 0
	stw 28,40(1)
.LBB532:
.LBB512:
.LBB506:
.LBB498:
.LBB495:
	.loc 4 358 0
	addi 28,1,20
	.cfi_offset 28, -16
.LBE495:
.LBE498:
.LBE506:
.LBE512:
.LBE532:
	.loc 3 1757 0
	stw 31,52(1)
	mr 31,3
	.cfi_offset 31, -4
	stw 29,44(1)
.LBB533:
.LBB513:
.LBB507:
	.loc 4 358 0
	mr 3,28
.LVL41:
.LBB499:
.LBB496:
	.loc 4 356 0
	stw 0,8(1)
	.loc 4 357 0
	stw 9,16(1)
	.loc 4 358 0
	stw 28,12(1)
	.loc 4 359 0
	stb 0,20(1)
.LBE496:
.LBE499:
	.loc 4 412 0
	beq- 0,.L36
	.cfi_offset 29, -12
.LVL42:
	.loc 4 413 0
	mr 3,30
	bl strlen
.LVL43:
	.loc 4 414 0
	addi 4,3,1
	.loc 4 413 0
	mr 29,3
.LVL44:
.LBB500:
.LBB501:
	.loc 4 350 0
	cmpwi 7,4,20
	.loc 4 358 0
	mr 3,28
.LVL45:
	.loc 4 350 0
	bgt- 7,.L49
.LVL46:
.L37:
.LBE501:
.LBE500:
	.loc 4 415 0
	mr 4,30
	bl strcpy
	.loc 4 416 0
	lwz 10,12(1)
	stw 29,8(1)
	mr 8,10
.LBE507:
.LBE513:
.LBB514:
.LBB515:
	.loc 4 839 0
	mr 3,10
.LBE515:
.LBE514:
.LBB519:
.LBB508:
	.loc 4 416 0
	lbz 9,0(10)
.LVL47:
.LBE508:
.LBE519:
.LBB520:
.LBB518:
	.loc 4 839 0
	cmpwi 7,9,0
	beq- 7,.L36
	li 11,0
.LVL48:
.L40:
.LBB516:
.LBB517:
	.loc 4 1036 0
	addi 0,9,-65
	cmplwi 7,0,25
	ble- 7,.L38
	addi 0,9,-192
	cmplwi 7,0,31
	bgt- 7,.L39
.L38:
.LBE517:
.LBE516:
	.loc 4 841 0
	addi 9,9,32
.LVL49:
	stb 9,0(8)
	lwz 10,12(1)
.LVL50:
.L39:
	.loc 4 839 0
	addi 11,11,1
.LVL51:
	mr 3,10
	lbzx 9,10,11
	add 8,10,11
	cmpwi 7,9,0
	bne+ 7,.L40
.LVL52:
.L36:
.LBE518:
.LBE520:
.LBB521:
.LBB522:
	.loc 4 690 0
	lis 4,.LC2@ha
	la 4,.LC2@l(4)
.LEHB0:
	bl _ZN5idStr4IcmpEPKcS1_
.LEHE0:
	.loc 3 1757 0
	cntlzw 3,3
	srwi 3,3,5
	stb 3,4(31)
.LVL53:
.LBE522:
.LBE521:
.LBB523:
.LBB524:
.LBB525:
	.loc 4 501 0
	addi 3,1,8
.LEHB1:
	bl _ZN5idStr8FreeDataEv
.LBE525:
.LBE524:
.LBE523:
.LBE533:
	.loc 3 1767 0
	lwz 0,60(1)
	lwz 28,40(1)
	li 3,1
	mtlr 0
	lwz 29,44(1)
	lwz 30,48(1)
.LVL54:
	lwz 31,52(1)
.LVL55:
	addi 1,1,56
	.cfi_remember_state
.LCFI13:
	.cfi_def_cfa_offset 0
	.cfi_restore 31
	.cfi_restore 30
	.cfi_restore 29
	.cfi_restore 28
	blr
.LVL56:
.L49:
.LCFI14:
	.cfi_restore_state
.LBB534:
.LBB526:
.LBB509:
.LBB503:
.LBB502:
	.loc 4 351 0
	addi 3,1,8
	li 5,1
	bl _ZN5idStr10ReAllocateEib
.LEHE1:
.LVL57:
	lwz 3,12(1)
	b .L37
.LVL58:
.L47:
	mr 31,3
.LVL59:
.LBE502:
.LBE503:
.LBE509:
.LBE526:
.LBB527:
.LBB528:
.LBB529:
	.loc 4 501 0
	addi 3,1,8
	bl _ZN5idStr8FreeDataEv
	mr 3,31
.LEHB2:
	bl _Unwind_Resume
.LEHE2:
.LBE529:
.LBE528:
.LBE527:
.LBE534:
	.cfi_endproc
.LFE2613:
	.globl __gxx_personality_v0
	.section	.gcc_except_table,"a",@progbits
.LLSDA2613:
	.byte	0xff
	.byte	0xff
	.byte	0x1
	.uleb128 .LLSDACSE2613-.LLSDACSB2613
.LLSDACSB2613:
	.uleb128 .LEHB0-.LFB2613
	.uleb128 .LEHE0-.LEHB0
	.uleb128 .L47-.LFB2613
	.uleb128 0
	.uleb128 .LEHB1-.LFB2613
	.uleb128 .LEHE1-.LEHB1
	.uleb128 0
	.uleb128 0
	.uleb128 .LEHB2-.LFB2613
	.uleb128 .LEHE2-.LEHB2
	.uleb128 0
	.uleb128 0
.LLSDACSE2613:
	.section	".text"
	.size	_ZN11idSndWindow12InitFromFileEPKcb, .-_ZN11idSndWindow12InitFromFileEPKcb
	.align 2
	.type	_ZL17fill_input_bufferP22jpeg_decompress_struct, @function
_ZL17fill_input_bufferP22jpeg_decompress_struct:
.LFB2604:
	.loc 3 1349 0
	.cfi_startproc
.LVL60:
	mflr 0
	stwu 1,-16(1)
.LCFI15:
	.cfi_def_cfa_offset 16
	.cfi_register 65, 0
	stw 30,8(1)
.LBB535:
	.loc 3 1354 0
	li 30,0
	.cfi_offset 30, -8
.LBE535:
	.loc 3 1349 0
	stw 0,20(1)
.LBB536:
	.loc 3 1354 0
	ori 30,30,32768
.LBE536:
	.loc 3 1349 0
	stw 31,12(1)
.LBB537:
	.loc 3 1350 0
	lwz 31,20(3)
	.cfi_offset 31, -4
	.cfi_offset 65, 4
.LVL61:
	.loc 3 1354 0
	lwz 0,40(31)
	cmpwi 7,0,32767
	ble- 7,.L55
.LVL62:
.L51:
	.loc 3 1361 0
	lwz 3,32(31)
.LVL63:
	li 5,0
	lwz 4,28(31)
	ori 5,5,32768
	bl memcpy
	.loc 3 1363 0
	lwz 11,40(31)
	.loc 3 1362 0
	lwz 9,28(31)
.LBE537:
	.loc 3 1370 0
	li 3,1
.LBB538:
	.loc 3 1363 0
	addi 0,11,-32768
	.loc 3 1366 0
	stw 30,4(31)
	.loc 3 1363 0
	stw 0,40(31)
	.loc 3 1362 0
	add 9,9,30
	.loc 3 1365 0
	lwz 0,32(31)
	.loc 3 1362 0
	stw 9,28(31)
	.loc 3 1365 0
	stw 0,0(31)
	.loc 3 1367 0
	li 0,0
	stb 0,36(31)
.LBE538:
	.loc 3 1370 0
	lwz 0,20(1)
	lwz 30,8(1)
	mtlr 0
	lwz 31,12(1)
.LVL64:
	addi 1,1,16
	.cfi_remember_state
.LCFI16:
	.cfi_def_cfa_offset 0
	.cfi_restore 31
	.cfi_restore 30
	blr
.LVL65:
.L55:
.LCFI17:
	.cfi_restore_state
.LBB539:
	.loc 3 1355 0
	cmpwi 7,0,0
	mr 30,0
	bne- 7,.L51
	.loc 3 1357 0
	lwz 9,32(31)
	li 0,-1
.LVL66:
	.loc 3 1358 0
	li 30,2
.LVL67:
.LBE539:
	.loc 3 1370 0
	li 3,1
.LVL68:
.LBB540:
	.loc 3 1357 0
	stb 0,0(9)
	.loc 3 1358 0
	li 0,-39
	lwz 9,32(31)
	stb 0,1(9)
.LVL69:
	.loc 3 1366 0
	stw 30,4(31)
	.loc 3 1365 0
	lwz 0,32(31)
	stw 0,0(31)
	.loc 3 1367 0
	li 0,0
	stb 0,36(31)
.LBE540:
	.loc 3 1370 0
	lwz 0,20(1)
	lwz 30,8(1)
	mtlr 0
	lwz 31,12(1)
.LVL70:
	addi 1,1,16
	.cfi_restore 30
	.cfi_restore 31
.LCFI18:
	.cfi_def_cfa_offset 0
	blr
	.cfi_endproc
.LFE2604:
	.size	_ZL17fill_input_bufferP22jpeg_decompress_struct, .-_ZL17fill_input_bufferP22jpeg_decompress_struct
	.section	.text._ZN14idFixedWindingD0Ev,"axG",@progbits,_ZN14idFixedWindingD5Ev,comdat
	.align 2
	.weak	_ZN14idFixedWindingD0Ev
	.type	_ZN14idFixedWindingD0Ev, @function
_ZN14idFixedWindingD0Ev:
.LFB1500:
	.loc 1 380 0
	.cfi_startproc
.LVL71:
	mflr 0
	stwu 1,-8(1)
.LCFI19:
	.cfi_def_cfa_offset 8
	.cfi_register 65, 0
.LBB547:
.LBB548:
.LBB549:
.LBB550:
.LBB551:
.LBB552:
	.loc 1 183 0
	lis 11,_ZTV9idWinding+8@ha
.LBE552:
.LBE551:
.LBE550:
.LBE549:
.LBE548:
.LBE547:
	.loc 1 380 0
	stw 0,12(1)
.LBB558:
.LBB557:
.LBB556:
	.loc 1 381 0
	li 0,0
	.cfi_offset 65, 4
	stw 0,8(3)
.LVL72:
.LBB555:
.LBB554:
.LBB553:
	.loc 1 183 0
	la 0,_ZTV9idWinding+8@l(11)
	stw 0,0(3)
.LBE553:
.LBE554:
.LBE555:
.LBE556:
.LBE557:
.LBE558:
	.loc 1 382 0
	bl _ZdlPv
.LVL73:
	lwz 0,12(1)
	addi 1,1,8
.LCFI20:
	.cfi_def_cfa_offset 0
	mtlr 0
	blr
	.cfi_endproc
.LFE1500:
	.size	_ZN14idFixedWindingD0Ev, .-_ZN14idFixedWindingD0Ev
	.section	.text._ZN14idFixedWindingD2Ev,"axG",@progbits,_ZN14idFixedWindingD5Ev,comdat
	.align 2
	.weak	_ZN14idFixedWindingD2Ev
	.type	_ZN14idFixedWindingD2Ev, @function
_ZN14idFixedWindingD2Ev:
.LFB1498:
	.loc 1 380 0
	.cfi_startproc
.LVL74:
.LBB563:
	.loc 1 381 0
	li 0,0
.LBB564:
.LBB565:
.LBB566:
	.loc 1 183 0
	lis 9,_ZTV9idWinding+8@ha
.LBE566:
.LBE565:
.LBE564:
	.loc 1 381 0
	stw 0,8(3)
.LVL75:
.LBB569:
.LBB568:
.LBB567:
	.loc 1 183 0
	la 0,_ZTV9idWinding+8@l(9)
	stw 0,0(3)
.LBE567:
.LBE568:
.LBE569:
.LBE563:
	.loc 1 382 0
	blr
	.cfi_endproc
.LFE1498:
	.size	_ZN14idFixedWindingD2Ev, .-_ZN14idFixedWindingD2Ev
	.section	.text._ZN9idWindingD0Ev,"axG",@progbits,_ZN9idWindingD5Ev,comdat
	.align 2
	.weak	_ZN9idWindingD0Ev
	.type	_ZN9idWindingD0Ev, @function
_ZN9idWindingD0Ev:
.LFB1463:
	.loc 1 183 0
	.cfi_startproc
.LVL76:
	mflr 0
	stwu 1,-16(1)
.LCFI21:
	.cfi_def_cfa_offset 16
	.cfi_register 65, 0
.LBB573:
.LBB574:
.LBB575:
	lis 9,_ZTV9idWinding+8@ha
.LBE575:
.LBE574:
.LBE573:
	stw 31,12(1)
	mr 31,3
	.cfi_offset 31, -4
.LVL77:
	stw 0,20(1)
.LBB580:
.LBB578:
.LBB576:
	.loc 1 183 0
	la 0,_ZTV9idWinding+8@l(9)
	.cfi_offset 65, 4
	.loc 1 184 0
	lwz 3,8(3)
.LVL78:
	.loc 1 183 0
	stw 0,0(31)
	.loc 1 184 0
	cmpwi 7,3,0
	beq- 7,.L64
	bl _ZdaPv
.LVL79:
.L64:
	.loc 1 185 0
	li 0,0
.LBE576:
.LBE578:
.LBE580:
	.loc 1 186 0
	mr 3,31
.LBB581:
.LBB579:
.LBB577:
	.loc 1 185 0
	stw 0,8(31)
.LBE577:
.LBE579:
.LBE581:
	.loc 1 186 0
	bl _ZdlPv
	lwz 0,20(1)
	lwz 31,12(1)
.LVL80:
	mtlr 0
	addi 1,1,16
.LCFI22:
	.cfi_def_cfa_offset 0
	.cfi_restore 31
	blr
	.cfi_endproc
.LFE1463:
	.size	_ZN9idWindingD0Ev, .-_ZN9idWindingD0Ev
	.section	".text"
	.align 2
	.globl _ZN11idCinematic13InitCinematicEv
	.type	_ZN11idCinematic13InitCinematicEv, @function
_ZN11idCinematic13InitCinematicEv:
.LFB2566:
	.loc 3 157 0
	.cfi_startproc
.LVL81:
.LBB582:
.LBB583:
.LBB584:
	.loc 3 167 0
	lis 9,.LC4@ha
.LBE584:
.LBE583:
.LBE582:
	.loc 3 157 0
	mflr 0
.LBB597:
.LBB592:
.LBB585:
	.loc 3 167 0
	lfs 5,.LC4@l(9)
	.loc 3 169 0
	lis 9,.LC5@ha
.LBE585:
.LBE592:
.LBE597:
	.loc 3 157 0
	stwu 1,-24(1)
.LCFI23:
	.cfi_def_cfa_offset 24
	.cfi_register 65, 0
	li 10,-255
.LBB598:
.LBB593:
.LBB586:
	.loc 3 169 0
	lfs 6,.LC5@l(9)
	lis 9,.LC6@ha
	lfs 13,.LC6@l(9)
	.loc 3 170 0
	lis 9,.LC7@ha
.LBE586:
.LBE593:
.LBE598:
	.loc 3 157 0
	stw 0,28(1)
.LBB599:
.LBB594:
.LBB587:
	.loc 3 172 0
	li 0,256
	.cfi_offset 65, 4
.LBE587:
.LBE594:
.LBE599:
	.loc 3 157 0
	stw 31,20(1)
	lis 31,.LANCHOR0@ha
	.cfi_offset 31, -4
.LBB600:
.LBB595:
.LBB588:
	.loc 3 170 0
	lfs 7,.LC7@l(9)
	.loc 3 171 0
	lis 9,.LC8@ha
	la 31,.LANCHOR0@l(31)
	lfs 8,.LC8@l(9)
	.loc 3 172 0
	mtctr 0
	lis 9,.LC9@ha
	lfs 9,.LC9@l(9)
.LBE588:
.LBE595:
.LBE600:
	.loc 3 166 0
	li 11,0
	.loc 3 157 0
	li 9,0
	addi 3,31,1024
	addi 4,31,2048
	addi 5,31,3072
	addi 6,31,4096
.LBB601:
.LBB596:
.LBB589:
	.loc 3 167 0
	lis 7,0x4330
.LVL82:
.L68:
	.loc 3 167 0 is_stmt 0 discriminator 2
	xoris 0,10,0x8000
	stw 7,8(1)
	stw 0,12(1)
	.loc 3 173 0 is_stmt 1 discriminator 2
	srawi 8,11,2
	slwi 0,11,6
.LBE589:
	.loc 3 166 0 discriminator 2
	addi 10,10,2
.LBB590:
	.loc 3 167 0 discriminator 2
	lfd 0,8(1)
	.loc 3 173 0 discriminator 2
	or 0,8,0
	stwx 0,6,9
.LBE590:
	.loc 3 166 0 discriminator 2
	addi 11,11,1
.LBB591:
	.loc 3 167 0 discriminator 2
	fsub 0,0,5
	frsp 0,0
.LVL83:
	.loc 3 169 0 discriminator 2
	fmadds 10,0,6,13
	.loc 3 170 0 discriminator 2
	fmadds 11,0,7,13
	.loc 3 171 0 discriminator 2
	fmuls 12,0,8
	.loc 3 172 0 discriminator 2
	fmadds 0,0,9,13
.LVL84:
	.loc 3 169 0 discriminator 2
	fctiwz 10,10
	.loc 3 170 0 discriminator 2
	fctiwz 11,11
	.loc 3 171 0 discriminator 2
	fctiwz 12,12
	.loc 3 172 0 discriminator 2
	fctiwz 0,0
	.loc 3 169 0 discriminator 2
	stfiwx 10,31,9
	.loc 3 170 0 discriminator 2
	stfiwx 11,3,9
	.loc 3 171 0 discriminator 2
	stfiwx 12,4,9
	.loc 3 172 0 discriminator 2
	stfiwx 0,5,9
.LBE591:
	.loc 3 166 0 discriminator 2
	addi 9,9,4
	bdnz .L68
.LBE596:
	.loc 3 176 0
	lis 3,0x1
	bl _Z9Mem_Alloci
.LVL85:
	stw 3,5120(31)
	.loc 3 177 0
	li 3,0
	ori 3,3,32768
	bl _Z9Mem_Alloci
	stw 3,5124(31)
	.loc 3 178 0
	lis 3,0x2
	bl _Z9Mem_Alloci
	stw 3,5128(31)
	.loc 3 179 0
	lis 3,0x8
	bl _Z9Mem_Alloci
	stw 3,5132(31)
.LBE601:
	.loc 3 180 0
	lwz 0,28(1)
	lwz 31,20(1)
	mtlr 0
	addi 1,1,24
.LCFI24:
	.cfi_def_cfa_offset 0
	.cfi_restore 31
	blr
	.cfi_endproc
.LFE2566:
	.size	_ZN11idCinematic13InitCinematicEv, .-_ZN11idCinematic13InitCinematicEv
	.align 2
	.globl _ZN11idCinematic17ShutdownCinematicEv
	.type	_ZN11idCinematic17ShutdownCinematicEv, @function
_ZN11idCinematic17ShutdownCinematicEv:
.LFB2567:
	.loc 3 188 0
	.cfi_startproc
	mflr 0
	stwu 1,-16(1)
.LCFI25:
	.cfi_def_cfa_offset 16
	.cfi_register 65, 0
	stw 30,8(1)
	.loc 3 190 0
	li 30,0
	.cfi_offset 30, -8
	.loc 3 188 0
	stw 0,20(1)
	stw 31,12(1)
	.loc 3 189 0
	lis 31,.LANCHOR0@ha
	.cfi_offset 31, -4
	.cfi_offset 65, 4
	la 31,.LANCHOR0@l(31)
	lwz 3,5120(31)
	bl _Z8Mem_FreePv
	.loc 3 191 0
	lwz 3,5124(31)
	.loc 3 190 0
	stw 30,5120(31)
	.loc 3 191 0
	bl _Z8Mem_FreePv
	.loc 3 193 0
	lwz 3,5128(31)
	.loc 3 192 0
	stw 30,5124(31)
	.loc 3 193 0
	bl _Z8Mem_FreePv
	.loc 3 194 0
	stw 30,5128(31)
	.loc 3 195 0
	lwz 3,5132(31)
	bl _Z8Mem_FreePv
	.loc 3 196 0
	stw 30,5132(31)
	.loc 3 197 0
	lwz 0,20(1)
	lwz 30,8(1)
	mtlr 0
	lwz 31,12(1)
	addi 1,1,16
.LCFI26:
	.cfi_def_cfa_offset 0
	.cfi_restore 31
	.cfi_restore 30
	blr
	.cfi_endproc
.LFE2567:
	.size	_ZN11idCinematic17ShutdownCinematicEv, .-_ZN11idCinematic17ShutdownCinematicEv
	.align 2
	.globl _ZN16idCinematicLocalC2Ev
	.type	_ZN16idCinematicLocalC2Ev, @function
_ZN16idCinematicLocalC2Ev:
.LFB2579:
	.loc 3 271 0
	.cfi_startproc
	.cfi_personality 0,__gxx_personality_v0
	.cfi_lsda 0,.LLSDA2579
.LVL86:
	mflr 0
	stwu 1,-16(1)
.LCFI27:
	.cfi_def_cfa_offset 16
	.cfi_register 65, 0
.LBB602:
	lis 11,_ZTV16idCinematicLocal+8@ha
.LBB603:
.LBB604:
.LBB605:
	.loc 4 358 0
	addi 9,3,1048
.LBE605:
.LBE604:
.LBE603:
	.loc 3 271 0
	la 11,_ZTV16idCinematicLocal+8@l(11)
.LBE602:
	stw 31,12(1)
	stw 0,20(1)
.LBB621:
.LBB612:
.LBB609:
.LBB606:
	.loc 4 356 0
	li 0,0
	.cfi_offset 65, 4
	.cfi_offset 31, -4
.LBE606:
.LBE609:
.LBE612:
.LBE621:
	.loc 3 271 0
	stw 30,8(1)
	.loc 3 271 0
	mr 31,3
.LVL87:
.LBB622:
	stw 11,0(3)
.LVL88:
.LBB613:
.LBB610:
.LBB607:
	.loc 4 357 0
	li 11,20
	.loc 4 356 0
	stw 0,1036(3)
.LBE607:
.LBE610:
.LBE613:
	.loc 3 273 0
	li 4,1204
.LBB614:
.LBB611:
.LBB608:
	.loc 4 357 0
	stw 11,1044(3)
	.loc 4 358 0
	stw 9,1040(3)
	.loc 4 359 0
	stb 0,1048(3)
.LBE608:
.LBE611:
.LBE614:
	.loc 3 273 0
	lis 3,.LC10@ha
.LVL89:
	la 3,.LC10@l(3)
.LEHB3:
	.cfi_offset 30, -8
	crxor 6,6,6
	bl _Z15Sys_DebugPrintfPKcz
.LVL90:
	.loc 3 276 0
	li 0,0
	.loc 3 277 0
	li 9,2
	.loc 3 276 0
	stw 0,1192(31)
	.loc 3 281 0
	lis 3,0x2
	.loc 3 277 0
	stw 9,1080(31)
	.loc 3 278 0
	stw 0,1120(31)
	.loc 3 279 0
	stw 0,1076(31)
	.loc 3 281 0
	bl _Z9Mem_Alloci
	stw 3,1028(31)
	.loc 3 282 0
	lis 3,0x2
	bl _Z9Mem_Alloci
.LEHE3:
	.loc 3 282 0 is_stmt 0 discriminator 1
	stw 3,1032(31)
.LBE622:
	.loc 3 283 0 is_stmt 1 discriminator 1
	lwz 0,20(1)
	lwz 30,8(1)
	mtlr 0
	lwz 31,12(1)
.LVL91:
	addi 1,1,16
	.cfi_remember_state
.LCFI28:
	.cfi_def_cfa_offset 0
	.cfi_restore 31
	.cfi_restore 30
	blr
.LVL92:
.L75:
.LCFI29:
	.cfi_restore_state
	mr 30,3
.LVL93:
.LBB623:
.LBB615:
.LBB616:
.LBB617:
	.loc 4 501 0
	addi 3,31,1036
	bl _ZN5idStr8FreeDataEv
.LVL94:
.LBE617:
.LBE616:
.LBE615:
.LBB618:
.LBB619:
.LBB620:
	.loc 3 215 0
	lis 9,_ZTV11idCinematic+8@ha
	la 0,_ZTV11idCinematic+8@l(9)
	mr 3,30
	stw 0,0(31)
.LVL95:
.LEHB4:
	bl _Unwind_Resume
.LEHE4:
.LBE620:
.LBE619:
.LBE618:
.LBE623:
	.cfi_endproc
.LFE2579:
	.section	.gcc_except_table
.LLSDA2579:
	.byte	0xff
	.byte	0xff
	.byte	0x1
	.uleb128 .LLSDACSE2579-.LLSDACSB2579
.LLSDACSB2579:
	.uleb128 .LEHB3-.LFB2579
	.uleb128 .LEHE3-.LEHB3
	.uleb128 .L75-.LFB2579
	.uleb128 0
	.uleb128 .LEHB4-.LFB2579
	.uleb128 .LEHE4-.LEHB4
	.uleb128 0
	.uleb128 0
.LLSDACSE2579:
	.section	".text"
	.size	_ZN16idCinematicLocalC2Ev, .-_ZN16idCinematicLocalC2Ev
	.align 2
	.globl _ZN11idCinematic5AllocEv
	.type	_ZN11idCinematic5AllocEv, @function
_ZN11idCinematic5AllocEv:
.LFB2568:
	.loc 3 205 0
	.cfi_startproc
	.cfi_personality 0,__gxx_personality_v0
	.cfi_lsda 0,.LLSDA2568
	mflr 0
	stwu 1,-16(1)
.LCFI30:
	.cfi_def_cfa_offset 16
	.cfi_register 65, 0
	.loc 3 206 0
	li 3,1204
	.loc 3 205 0
	stw 31,12(1)
	stw 0,20(1)
	stw 30,8(1)
.LEHB5:
	.loc 3 206 0
	.cfi_offset 30, -8
	.cfi_offset 65, 4
	.cfi_offset 31, -4
	bl _Znwj
.LEHE5:
	mr 31,3
.LEHB6:
	bl _ZN16idCinematicLocalC1Ev
.LEHE6:
	.loc 3 207 0 discriminator 1
	lwz 0,20(1)
	mr 3,31
	lwz 30,8(1)
	mtlr 0
	lwz 31,12(1)
	addi 1,1,16
	.cfi_remember_state
.LCFI31:
	.cfi_def_cfa_offset 0
	.cfi_restore 31
	.cfi_restore 30
	blr
.L78:
.LCFI32:
	.cfi_restore_state
	mr 30,3
	.loc 3 206 0
	mr 3,31
	bl _ZdlPv
	mr 3,30
.LEHB7:
	bl _Unwind_Resume
.LEHE7:
	.cfi_endproc
.LFE2568:
	.section	.gcc_except_table
.LLSDA2568:
	.byte	0xff
	.byte	0xff
	.byte	0x1
	.uleb128 .LLSDACSE2568-.LLSDACSB2568
.LLSDACSB2568:
	.uleb128 .LEHB5-.LFB2568
	.uleb128 .LEHE5-.LEHB5
	.uleb128 0
	.uleb128 0
	.uleb128 .LEHB6-.LFB2568
	.uleb128 .LEHE6-.LEHB6
	.uleb128 .L78-.LFB2568
	.uleb128 0
	.uleb128 .LEHB7-.LFB2568
	.uleb128 .LEHE7-.LEHB7
	.uleb128 0
	.uleb128 0
.LLSDACSE2568:
	.section	".text"
	.size	_ZN11idCinematic5AllocEv, .-_ZN11idCinematic5AllocEv
	.align 2
	.globl _ZN16idCinematicLocal8move8_32EPhS0_i
	.type	_ZN16idCinematicLocal8move8_32EPhS0_i, @function
_ZN16idCinematicLocal8move8_32EPhS0_i:
.LFB2590:
	.loc 3 478 0
	.cfi_startproc
.LVL96:
.LBB624:
	.loc 3 487 0
	lwz 0,0(4)
.LVL97:
	.loc 3 485 0
	srawi 9,6,2
.LVL98:
.LBE624:
	.loc 3 478 0
	stwu 1,-104(1)
.LCFI33:
	.cfi_def_cfa_offset 104
.LBB625:
	.loc 3 496 0
	slwi 10,9,2
	.loc 3 487 0
	stw 0,0(5)
	.loc 3 501 0
	addi 6,9,5
.LVL99:
.LBE625:
	.loc 3 478 0
	stw 14,32(1)
.LBB626:
	.loc 3 501 0
	slwi 6,6,2
	.loc 3 488 0
	lwz 0,4(4)
	.loc 3 502 0
	addi 7,9,6
.LBE626:
	.loc 3 478 0
	stw 15,36(1)
.LBB627:
	.loc 3 502 0
	slwi 7,7,2
	.loc 3 488 0
	stw 0,4(5)
	.loc 3 497 0
	addi 0,9,1
.LBE627:
	.loc 3 478 0
	stw 16,40(1)
.LBB628:
	.loc 3 489 0
	lwz 11,8(4)
.LBE628:
	.loc 3 478 0
	stw 17,44(1)
.LBB629:
	.loc 3 527 0
	slwi 17,0,4
	.cfi_offset 17, -60
	.cfi_offset 16, -64
	.cfi_offset 15, -68
	.cfi_offset 14, -72
	.loc 3 489 0
	stw 11,8(5)
.LBE629:
	.loc 3 478 0
	stw 18,48(1)
.LBB630:
	.loc 3 490 0
	lwz 11,12(4)
.LBE630:
	.loc 3 478 0
	stw 19,52(1)
.LBB631:
	.loc 3 490 0
	stw 11,12(5)
.LBE631:
	.loc 3 478 0
	stw 20,56(1)
.LBB632:
	.loc 3 491 0
	lwz 11,16(4)
.LBE632:
	.loc 3 478 0
	stw 21,60(1)
.LBB633:
	.loc 3 491 0
	stw 11,16(5)
	.loc 3 500 0
	addi 11,9,4
.LBE633:
	.loc 3 478 0
	stw 22,64(1)
.LBB634:
	.loc 3 500 0
	slwi 11,11,2
	.loc 3 492 0
	lwz 8,20(4)
.LBE634:
	.loc 3 478 0
	stw 23,68(1)
.LBB635:
	.loc 3 507 0
	slwi 23,0,3
	.cfi_offset 23, -36
	.cfi_offset 22, -40
	.cfi_offset 21, -44
	.cfi_offset 20, -48
	.cfi_offset 19, -52
	.cfi_offset 18, -56
	.loc 3 492 0
	stw 8,20(5)
.LBE635:
	.loc 3 478 0
	stw 24,72(1)
.LBB636:
	.loc 3 493 0
	lwz 8,24(4)
.LBE636:
	.loc 3 478 0
	stw 25,76(1)
.LBB637:
	.loc 3 498 0
	addi 25,9,2
	.cfi_offset 25, -28
	.cfi_offset 24, -32
	.loc 3 493 0
	stw 8,24(5)
.LBE637:
	.loc 3 478 0
	stw 26,80(1)
.LBB638:
	.loc 3 494 0
	lwz 8,28(4)
.LBE638:
	.loc 3 478 0
	stw 27,84(1)
.LBB639:
	.loc 3 499 0
	addi 27,9,3
	.cfi_offset 27, -20
	.cfi_offset 26, -24
.LBE639:
	.loc 3 478 0
	stw 28,88(1)
.LBB640:
	.loc 3 499 0
	slwi 3,27,2
.LVL100:
.LBE640:
	.loc 3 478 0
	stw 29,92(1)
.LBB641:
	.loc 3 511 0
	slwi 27,27,3
.LBE641:
	.loc 3 478 0
	stw 30,96(1)
.LBB642:
	.loc 3 497 0
	slwi 30,0,2
	.cfi_offset 30, -8
	.cfi_offset 29, -12
	.cfi_offset 28, -16
.LBE642:
	.loc 3 478 0
	stw 31,100(1)
.LBB643:
	.loc 3 498 0
	slwi 31,25,2
	.cfi_offset 31, -4
	.loc 3 494 0
	stw 8,28(5)
	.loc 3 503 0
	addi 8,9,7
	.loc 3 496 0
	lwzx 29,4,10
	.loc 3 503 0
	slwi 8,8,2
	.loc 3 509 0
	slwi 25,25,3
	.loc 3 496 0
	stwx 29,5,10
	.loc 3 505 0
	slwi 10,9,3
	.loc 3 506 0
	addi 22,10,4
	.loc 3 508 0
	addi 24,10,12
	.loc 3 497 0
	lwzx 29,4,30
	.loc 3 510 0
	addi 26,10,20
	.loc 3 512 0
	addi 28,10,28
	.loc 3 497 0
	stwx 29,5,30
	.loc 3 498 0
	lwzx 30,4,31
	stwx 30,5,31
	.loc 3 499 0
	lwzx 31,4,3
	stwx 31,5,3
	.loc 3 517 0
	mulli 31,0,12
	.loc 3 500 0
	lwzx 3,4,11
	stwx 3,5,11
	.loc 3 514 0
	mulli 11,9,12
	.loc 3 501 0
	lwzx 3,4,6
	.loc 3 515 0
	addi 29,11,4
	.loc 3 516 0
	addi 30,11,8
	.loc 3 518 0
	addi 12,11,16
	.loc 3 501 0
	stwx 3,5,6
	.loc 3 519 0
	addi 3,11,20
	.loc 3 502 0
	lwzx 6,4,7
	stwx 6,5,7
	.loc 3 520 0
	addi 6,11,24
	.loc 3 503 0
	lwzx 7,4,8
	stwx 7,5,8
	.loc 3 521 0
	addi 7,11,28
	.loc 3 505 0
	lwzx 8,4,10
	stwx 8,5,10
	.loc 3 523 0
	slwi 8,9,4
	.loc 3 524 0
	addi 14,8,4
	.loc 3 525 0
	addi 15,8,8
	.loc 3 506 0
	lwzx 10,4,22
	.loc 3 526 0
	addi 16,8,12
	.loc 3 528 0
	addi 18,8,20
	.loc 3 529 0
	addi 19,8,24
	.loc 3 506 0
	stwx 10,5,22
	.loc 3 530 0
	addi 20,8,28
	.loc 3 507 0
	lwzx 10,4,23
	stwx 10,5,23
	.loc 3 508 0
	lwzx 10,4,24
	stwx 10,5,24
	.loc 3 509 0
	lwzx 10,4,25
	stwx 10,5,25
	.loc 3 532 0
	mulli 10,9,20
	.loc 3 510 0
	lwzx 25,4,26
	.loc 3 533 0
	addi 21,10,4
	.loc 3 534 0
	addi 22,10,8
	.loc 3 535 0
	addi 23,10,12
	.loc 3 510 0
	stwx 25,5,26
	.loc 3 536 0
	addi 24,10,16
	.loc 3 537 0
	mulli 25,0,20
	.loc 3 511 0
	lwzx 26,4,27
	stwx 26,5,27
	.loc 3 538 0
	addi 26,10,24
	.loc 3 512 0
	lwzx 27,4,28
	stwx 27,5,28
	.loc 3 539 0
	addi 27,10,28
	.loc 3 514 0
	lwzx 28,4,11
	stwx 28,5,11
	.loc 3 541 0
	mulli 11,9,24
	.loc 3 515 0
	lwzx 28,4,29
	.loc 3 550 0
	mulli 9,9,28
.LVL101:
	.loc 3 515 0
	stwx 28,5,29
	.loc 3 543 0
	addi 29,11,8
	stw 29,28(1)
	.loc 3 542 0
	addi 28,11,4
	.loc 3 516 0
	lwzx 29,4,30
	stwx 29,5,30
	.loc 3 545 0
	addi 29,11,16
	stw 29,12(1)
	.loc 3 544 0
	addi 30,11,12
	.loc 3 517 0
	lwzx 29,4,31
	stwx 29,5,31
	.loc 3 547 0
	mulli 29,0,24
	.loc 3 546 0
	addi 31,11,20
	.loc 3 557 0
	mulli 0,0,28
.LVL102:
	.loc 3 547 0
	stw 29,16(1)
	.loc 3 518 0
	lwzx 29,4,12
	stwx 29,5,12
	.loc 3 548 0
	addi 12,11,28
	.loc 3 519 0
	lwzx 29,4,3
	stwx 29,5,3
	.loc 3 552 0
	addi 29,9,8
	stw 29,8(1)
	.loc 3 551 0
	addi 3,9,4
	.loc 3 520 0
	lwzx 29,4,6
	stwx 29,5,6
	.loc 3 554 0
	addi 29,9,16
	stw 29,20(1)
	.loc 3 553 0
	addi 6,9,12
	.loc 3 521 0
	lwzx 29,4,7
	stwx 29,5,7
	.loc 3 556 0
	addi 29,9,24
	stw 29,24(1)
	.loc 3 555 0
	addi 7,9,20
	.loc 3 523 0
	lwzx 29,4,8
	stwx 29,5,8
	.loc 3 524 0
	lwzx 8,4,14
	stwx 8,5,14
	.loc 3 525 0
	lwzx 8,4,15
	stwx 8,5,15
	.loc 3 526 0
	lwzx 8,4,16
	stwx 8,5,16
	.loc 3 527 0
	lwzx 8,4,17
	stwx 8,5,17
	.loc 3 528 0
	lwzx 8,4,18
	stwx 8,5,18
	.loc 3 529 0
	lwzx 8,4,19
	stwx 8,5,19
	.loc 3 530 0
	lwzx 8,4,20
	.loc 3 545 0
	lwz 29,12(1)
	.loc 3 530 0
	stwx 8,5,20
	.loc 3 532 0
	lwzx 8,4,10
	stwx 8,5,10
	.loc 3 533 0
	lwzx 10,4,21
	stwx 10,5,21
	.loc 3 534 0
	lwzx 10,4,22
	stwx 10,5,22
	.loc 3 535 0
	lwzx 10,4,23
	stwx 10,5,23
	.loc 3 536 0
	lwzx 10,4,24
	stwx 10,5,24
	.loc 3 537 0
	lwzx 10,4,25
	stwx 10,5,25
	.loc 3 538 0
	lwzx 10,4,26
	stwx 10,5,26
	.loc 3 539 0
	lwzx 10,4,27
	stwx 10,5,27
	.loc 3 541 0
	lwzx 10,4,11
	stwx 10,5,11
	.loc 3 543 0
	lwz 10,28(1)
	.loc 3 542 0
	lwzx 11,4,28
	stwx 11,5,28
	.loc 3 543 0
	lwzx 11,4,10
	stwx 11,5,10
	.loc 3 547 0
	lwz 10,16(1)
	.loc 3 544 0
	lwzx 11,4,30
	stwx 11,5,30
	.loc 3 545 0
	lwzx 11,4,29
	stwx 11,5,29
	.loc 3 546 0
	lwzx 11,4,31
	stwx 11,5,31
	.loc 3 547 0
	lwzx 11,4,10
	stwx 11,5,10
	.loc 3 548 0
	lwzx 11,4,12
	.loc 3 554 0
	lwz 29,20(1)
	.loc 3 548 0
	stwx 11,5,12
	.loc 3 556 0
	lwz 10,24(1)
	.loc 3 550 0
	lwzx 11,4,9
.LBE643:
	.loc 3 582 0
	lwz 14,32(1)
.LBB644:
	.loc 3 550 0
	stwx 11,5,9
	.loc 3 552 0
	lwz 11,8(1)
	.loc 3 551 0
	lwzx 9,4,3
.LBE644:
	.loc 3 582 0
	lwz 15,36(1)
.LBB645:
	.loc 3 551 0
	stwx 9,5,3
.LBE645:
	.loc 3 582 0
	lwz 16,40(1)
.LBB646:
	.loc 3 552 0
	lwzx 9,4,11
.LBE646:
	.loc 3 582 0
	lwz 17,44(1)
.LBB647:
	.loc 3 552 0
	stwx 9,5,11
.LBE647:
	.loc 3 582 0
	lwz 18,48(1)
.LBB648:
	.loc 3 553 0
	lwzx 9,4,6
.LBE648:
	.loc 3 582 0
	lwz 19,52(1)
.LBB649:
	.loc 3 553 0
	stwx 9,5,6
.LBE649:
	.loc 3 582 0
	lwz 20,56(1)
.LBB650:
	.loc 3 554 0
	lwzx 9,4,29
.LBE650:
	.loc 3 582 0
	lwz 21,60(1)
.LBB651:
	.loc 3 554 0
	stwx 9,5,29
.LBE651:
	.loc 3 582 0
	lwz 22,64(1)
.LBB652:
	.loc 3 555 0
	lwzx 9,4,7
.LBE652:
	.loc 3 582 0
	lwz 23,68(1)
.LBB653:
	.loc 3 555 0
	stwx 9,5,7
.LBE653:
	.loc 3 582 0
	lwz 24,72(1)
.LBB654:
	.loc 3 556 0
	lwzx 9,4,10
.LBE654:
	.loc 3 582 0
	lwz 25,76(1)
.LBB655:
	.loc 3 556 0
	stwx 9,5,10
.LBE655:
	.loc 3 582 0
	lwz 26,80(1)
.LBB656:
	.loc 3 557 0
	lwzx 9,4,0
.LBE656:
	.loc 3 582 0
	lwz 27,84(1)
	lwz 28,88(1)
	lwz 29,92(1)
	lwz 30,96(1)
	lwz 31,100(1)
.LBB657:
	.loc 3 557 0
	stwx 9,5,0
.LBE657:
	.loc 3 582 0
	addi 1,1,104
.LCFI34:
	.cfi_def_cfa_offset 0
	.cfi_restore 31
	.cfi_restore 30
	.cfi_restore 29
	.cfi_restore 28
	.cfi_restore 27
	.cfi_restore 26
	.cfi_restore 25
	.cfi_restore 24
	.cfi_restore 23
	.cfi_restore 22
	.cfi_restore 21
	.cfi_restore 20
	.cfi_restore 19
	.cfi_restore 18
	.cfi_restore 17
	.cfi_restore 16
	.cfi_restore 15
	.cfi_restore 14
	blr
	.cfi_endproc
.LFE2590:
	.size	_ZN16idCinematicLocal8move8_32EPhS0_i, .-_ZN16idCinematicLocal8move8_32EPhS0_i
	.align 2
	.globl _ZN16idCinematicLocal8move4_32EPhS0_i
	.type	_ZN16idCinematicLocal8move4_32EPhS0_i, @function
_ZN16idCinematicLocal8move4_32EPhS0_i:
.LFB2591:
	.loc 3 589 0
	.cfi_startproc
.LVL103:
.LBB658:
	.loc 3 598 0
	lwz 0,0(4)
.LVL104:
	.loc 3 596 0
	srawi 6,6,2
.LVL105:
	.loc 3 603 0
	slwi 9,6,2
	.loc 3 605 0
	addi 10,6,2
	.loc 3 598 0
	stw 0,0(5)
	.loc 3 605 0
	slwi 10,10,2
.LBE658:
	.loc 3 633 0
.LBB659:
	.loc 3 599 0
	lwz 0,4(4)
	stw 0,4(5)
	.loc 3 604 0
	addi 0,6,1
	slwi 8,0,2
	.loc 3 600 0
	lwz 11,8(4)
	stw 11,8(5)
	.loc 3 601 0
	lwz 11,12(4)
	stw 11,12(5)
	.loc 3 606 0
	addi 11,6,3
	slwi 11,11,2
	.loc 3 603 0
	lwzx 7,4,9
	stwx 7,5,9
	.loc 3 608 0
	slwi 9,6,3
	.loc 3 609 0
	addi 3,9,4
.LVL106:
	.loc 3 613 0
	mulli 6,6,12
.LVL107:
	.loc 3 604 0
	lwzx 7,4,8
	stwx 7,5,8
	.loc 3 611 0
	addi 8,9,12
	.loc 3 610 0
	slwi 7,0,3
	.loc 3 616 0
	mulli 0,0,12
.LVL108:
	.loc 3 605 0
	lwzx 12,4,10
	stwx 12,5,10
	.loc 3 614 0
	addi 10,6,4
	.loc 3 606 0
	lwzx 12,4,11
	stwx 12,5,11
	.loc 3 615 0
	addi 11,6,8
	.loc 3 608 0
	lwzx 12,4,9
	stwx 12,5,9
	.loc 3 609 0
	lwzx 9,4,3
	stwx 9,5,3
	.loc 3 610 0
	lwzx 9,4,7
	stwx 9,5,7
	.loc 3 611 0
	lwzx 9,4,8
	stwx 9,5,8
	.loc 3 613 0
	lwzx 9,4,6
	stwx 9,5,6
	.loc 3 614 0
	lwzx 9,4,10
	stwx 9,5,10
	.loc 3 615 0
	lwzx 9,4,11
	stwx 9,5,11
	.loc 3 616 0
	lwzx 9,4,0
	stwx 9,5,0
.LBE659:
	.loc 3 633 0
	blr
	.cfi_endproc
.LFE2591:
	.size	_ZN16idCinematicLocal8move4_32EPhS0_i, .-_ZN16idCinematicLocal8move4_32EPhS0_i
	.align 2
	.globl _ZN16idCinematicLocal8blit8_32EPhS0_i
	.type	_ZN16idCinematicLocal8blit8_32EPhS0_i, @function
_ZN16idCinematicLocal8blit8_32EPhS0_i:
.LFB2592:
	.loc 3 640 0
	.cfi_startproc
.LVL109:
.LBB660:
	.loc 3 649 0
	lwz 0,0(4)
.LVL110:
	.loc 3 647 0
	srawi 6,6,2
.LVL111:
.LBE660:
	.loc 3 640 0
	stwu 1,-56(1)
.LCFI35:
	.cfi_def_cfa_offset 56
.LBB661:
	.loc 3 658 0
	slwi 3,6,2
.LVL112:
	.loc 3 649 0
	stw 0,0(5)
	.loc 3 660 0
	addi 11,6,2
.LBE661:
	.loc 3 640 0
	stw 29,44(1)
.LBB662:
	.loc 3 662 0
	addi 8,6,4
	.loc 3 650 0
	lwz 0,4(4)
	.loc 3 662 0
	slwi 8,8,2
.LBE662:
	.loc 3 640 0
	stw 27,36(1)
.LBB663:
	.loc 3 650 0
	stw 0,4(5)
	.loc 3 659 0
	addi 0,6,1
.LBE663:
	.loc 3 640 0
	stw 28,40(1)
.LBB664:
	.loc 3 659 0
	slwi 28,0,2
	.cfi_offset 28, -16
	.cfi_offset 27, -20
	.cfi_offset 29, -12
	.loc 3 651 0
	lwz 9,8(4)
	.loc 3 709 0
	mulli 12,0,24
.LBE664:
	.loc 3 640 0
	stw 30,48(1)
.LBB665:
	.loc 3 660 0
	slwi 30,11,2
	.cfi_offset 30, -8
	.loc 3 651 0
	stw 9,8(5)
.LBE665:
	.loc 3 640 0
	stw 21,12(1)
.LBB666:
	.loc 3 667 0
	slwi 21,6,3
	.cfi_offset 21, -44
	.loc 3 652 0
	lwz 9,12(4)
.LBE666:
	.loc 3 640 0
	stw 22,16(1)
.LBB667:
	.loc 3 676 0
	mulli 22,6,12
	.cfi_offset 22, -40
	.loc 3 652 0
	stw 9,12(5)
	.loc 3 661 0
	addi 9,6,3
.LBE667:
	.loc 3 640 0
	stw 23,20(1)
.LBB668:
	.loc 3 661 0
	slwi 7,9,2
	.loc 3 653 0
	lwz 10,16(4)
	.loc 3 669 0
	slwi 23,0,3
	.cfi_offset 23, -36
.LBE668:
	.loc 3 640 0
	stw 24,24(1)
.LBB669:
	.loc 3 671 0
	slwi 24,11,3
	.cfi_offset 24, -32
	.loc 3 653 0
	stw 10,16(5)
	.loc 3 703 0
	mr 11,5
.LBE669:
	.loc 3 640 0
	stw 25,28(1)
.LBB670:
	.loc 3 685 0
	slwi 25,6,4
	.cfi_offset 25, -28
	.loc 3 654 0
	lwz 10,20(4)
.LBE670:
	.loc 3 640 0
	stw 26,32(1)
.LBB671:
	.loc 3 673 0
	slwi 26,9,3
	.cfi_offset 26, -24
	.loc 3 654 0
	stw 10,20(5)
.LBE671:
	.loc 3 640 0
	stw 31,52(1)
.LBB672:
	.loc 3 663 0
	addi 31,6,5
	.cfi_offset 31, -4
	.loc 3 655 0
	lwz 10,24(4)
	.loc 3 663 0
	slwi 31,31,2
	.loc 3 655 0
	stw 10,24(5)
	.loc 3 664 0
	addi 10,6,6
	slwi 10,10,2
	.loc 3 656 0
	lwz 29,28(4)
	stw 29,28(5)
	.loc 3 665 0
	addi 29,6,7
	slwi 29,29,2
	.loc 3 658 0
	lwz 27,32(4)
	stwx 27,5,3
	.loc 3 667 0
	mr 3,5
	.loc 3 659 0
	lwz 27,36(4)
	stwx 27,5,28
	.loc 3 679 0
	mulli 27,0,12
	.loc 3 660 0
	lwz 28,40(4)
	stwx 28,5,30
	.loc 3 689 0
	slwi 30,0,4
	.loc 3 661 0
	lwz 9,44(4)
	.loc 3 694 0
	mulli 28,6,20
	.loc 3 661 0
	stwx 9,5,7
	.loc 3 676 0
	mr 7,5
	.loc 3 662 0
	lwz 9,48(4)
	stwx 9,5,8
	.loc 3 685 0
	mr 8,5
	.loc 3 663 0
	lwz 9,52(4)
	stwx 9,5,31
	.loc 3 699 0
	mulli 31,0,20
	.loc 3 719 0
	mulli 0,0,28
	.loc 3 664 0
	lwz 9,56(4)
	stwx 9,5,10
	.loc 3 694 0
	mr 10,5
	.loc 3 665 0
	lwz 9,60(4)
	stwx 9,5,29
	.loc 3 703 0
	mulli 29,6,24
	.loc 3 712 0
	mulli 6,6,28
.LVL113:
	.loc 3 667 0
	lwz 9,64(4)
	stwux 9,3,21
	.loc 3 668 0
	lwz 9,68(4)
	stw 9,4(3)
	.loc 3 712 0
	mr 9,5
	.loc 3 669 0
	lwz 21,72(4)
	stwx 21,5,23
	.loc 3 670 0
	lwz 23,76(4)
	stw 23,12(3)
	.loc 3 671 0
	lwz 23,80(4)
	stwx 23,5,24
	.loc 3 672 0
	lwz 24,84(4)
	stw 24,20(3)
	.loc 3 673 0
	lwz 24,88(4)
	stwx 24,5,26
	.loc 3 674 0
	lwz 26,92(4)
	stw 26,28(3)
	.loc 3 676 0
	lwz 3,96(4)
	stwux 3,7,22
	.loc 3 677 0
	lwz 3,100(4)
	stw 3,4(7)
	.loc 3 678 0
	lwz 3,104(4)
	stw 3,8(7)
	.loc 3 679 0
	lwz 3,108(4)
	stwx 3,5,27
	.loc 3 680 0
	lwz 3,112(4)
	stw 3,16(7)
	.loc 3 681 0
	lwz 3,116(4)
	stw 3,20(7)
	.loc 3 682 0
	lwz 3,120(4)
	stw 3,24(7)
	.loc 3 683 0
	lwz 3,124(4)
	stw 3,28(7)
	.loc 3 685 0
	lwz 7,128(4)
	stwux 7,8,25
	.loc 3 686 0
	lwz 7,132(4)
	stw 7,4(8)
	.loc 3 687 0
	lwz 7,136(4)
	stw 7,8(8)
	.loc 3 688 0
	lwz 7,140(4)
	stw 7,12(8)
	.loc 3 689 0
	lwz 7,144(4)
	stwx 7,5,30
	.loc 3 690 0
	lwz 7,148(4)
	stw 7,20(8)
	.loc 3 691 0
	lwz 7,152(4)
	stw 7,24(8)
	.loc 3 692 0
	lwz 7,156(4)
	stw 7,28(8)
	.loc 3 694 0
	lwz 8,160(4)
	stwux 8,10,28
	.loc 3 695 0
	lwz 8,164(4)
	stw 8,4(10)
	.loc 3 696 0
	lwz 8,168(4)
	stw 8,8(10)
	.loc 3 697 0
	lwz 8,172(4)
	stw 8,12(10)
	.loc 3 698 0
	lwz 8,176(4)
	stw 8,16(10)
	.loc 3 699 0
	lwz 8,180(4)
	stwx 8,5,31
	.loc 3 700 0
	lwz 8,184(4)
	stw 8,24(10)
	.loc 3 701 0
	lwz 8,188(4)
	stw 8,28(10)
	.loc 3 703 0
	lwz 10,192(4)
	stwux 10,11,29
	.loc 3 704 0
	lwz 10,196(4)
	stw 10,4(11)
	.loc 3 705 0
	lwz 10,200(4)
	stw 10,8(11)
	.loc 3 706 0
	lwz 10,204(4)
	stw 10,12(11)
	.loc 3 707 0
	lwz 10,208(4)
	stw 10,16(11)
	.loc 3 708 0
	lwz 10,212(4)
	stw 10,20(11)
	.loc 3 709 0
	lwz 10,216(4)
	stwx 10,5,12
	.loc 3 710 0
	lwz 10,220(4)
	stw 10,28(11)
	.loc 3 712 0
	lwz 11,224(4)
	stwux 11,9,6
	.loc 3 713 0
	lwz 11,228(4)
	stw 11,4(9)
	.loc 3 714 0
	lwz 11,232(4)
	stw 11,8(9)
	.loc 3 715 0
	lwz 11,236(4)
	stw 11,12(9)
	.loc 3 716 0
	lwz 11,240(4)
	stw 11,16(9)
	.loc 3 717 0
	lwz 11,244(4)
	stw 11,20(9)
	.loc 3 718 0
	lwz 11,248(4)
	stw 11,24(9)
	.loc 3 719 0
	lwz 9,252(4)
.LBE672:
	.loc 3 744 0
	lwz 21,12(1)
	lwz 22,16(1)
	lwz 23,20(1)
	lwz 24,24(1)
	lwz 25,28(1)
	lwz 26,32(1)
	lwz 27,36(1)
	lwz 28,40(1)
	lwz 29,44(1)
	lwz 30,48(1)
	lwz 31,52(1)
.LBB673:
	.loc 3 719 0
	stwx 9,5,0
.LBE673:
	.loc 3 744 0
	addi 1,1,56
.LCFI36:
	.cfi_def_cfa_offset 0
	.cfi_restore 31
	.cfi_restore 30
	.cfi_restore 29
	.cfi_restore 28
	.cfi_restore 27
	.cfi_restore 26
	.cfi_restore 25
	.cfi_restore 24
	.cfi_restore 23
	.cfi_restore 22
	.cfi_restore 21
	blr
	.cfi_endproc
.LFE2592:
	.size	_ZN16idCinematicLocal8blit8_32EPhS0_i, .-_ZN16idCinematicLocal8blit8_32EPhS0_i
	.align 2
	.globl _ZN16idCinematicLocal8blit4_32EPhS0_i
	.type	_ZN16idCinematicLocal8blit4_32EPhS0_i, @function
_ZN16idCinematicLocal8blit4_32EPhS0_i:
.LFB2593:
	.loc 3 751 0
	.cfi_startproc
.LVL114:
.LBB674:
	.loc 3 760 0
	lwz 0,0(4)
.LVL115:
	.loc 3 758 0
	srawi 6,6,2
.LVL116:
	.loc 3 764 0
	slwi 11,6,2
	.loc 3 768 0
	slwi 3,6,3
.LVL117:
	.loc 3 760 0
	stw 0,0(5)
	.loc 3 761 0
	lwz 0,4(4)
	stw 0,4(5)
	.loc 3 765 0
	addi 0,6,1
	slwi 10,0,2
	.loc 3 762 0
	lwz 9,8(4)
	stw 9,8(5)
	.loc 3 766 0
	addi 9,6,2
	slwi 9,9,2
	.loc 3 763 0
	lwz 8,12(4)
	stw 8,12(5)
	.loc 3 767 0
	addi 8,6,3
	slwi 8,8,2
	.loc 3 772 0
	mulli 6,6,12
.LVL118:
	.loc 3 764 0
	lwz 7,16(4)
	stwx 7,5,11
	.loc 3 768 0
	mr 11,5
	.loc 3 765 0
	lwz 7,20(4)
	stwx 7,5,10
	.loc 3 770 0
	slwi 10,0,3
	.loc 3 775 0
	mulli 0,0,12
.LVL119:
	.loc 3 766 0
	lwz 7,24(4)
	stwx 7,5,9
	.loc 3 772 0
	mr 9,5
	.loc 3 767 0
	lwz 7,28(4)
	stwx 7,5,8
	.loc 3 768 0
	lwz 8,32(4)
	stwux 8,11,3
	.loc 3 769 0
	lwz 8,36(4)
	stw 8,4(11)
	.loc 3 770 0
	lwz 8,40(4)
	stwx 8,5,10
	.loc 3 771 0
	lwz 10,44(4)
	stw 10,12(11)
	.loc 3 772 0
	lwz 11,48(4)
	stwux 11,9,6
	.loc 3 773 0
	lwz 11,52(4)
	stw 11,4(9)
	.loc 3 774 0
	lwz 11,56(4)
	stw 11,8(9)
	.loc 3 775 0
	lwz 9,60(4)
.LBE674:
	.loc 3 792 0
.LBB675:
	.loc 3 775 0
	stwx 9,5,0
.LBE675:
	.loc 3 792 0
	blr
	.cfi_endproc
.LFE2593:
	.size	_ZN16idCinematicLocal8blit4_32EPhS0_i, .-_ZN16idCinematicLocal8blit4_32EPhS0_i
	.align 2
	.globl _ZN16idCinematicLocal8blit2_32EPhS0_i
	.type	_ZN16idCinematicLocal8blit2_32EPhS0_i, @function
_ZN16idCinematicLocal8blit2_32EPhS0_i:
.LFB2594:
	.loc 3 799 0
	.cfi_startproc
.LVL120:
.LBB676:
	.loc 3 808 0
	lwz 0,0(4)
.LVL121:
	.loc 3 806 0
	srawi 6,6,2
.LVL122:
.LBE676:
	.loc 3 823 0
.LBB677:
	.loc 3 808 0
	stw 0,0(5)
	.loc 3 810 0
	slwi 0,6,2
	.loc 3 811 0
	addi 6,6,1
.LVL123:
	.loc 3 809 0
	lwz 9,4(4)
	.loc 3 811 0
	slwi 6,6,2
.LVL124:
	.loc 3 809 0
	stw 9,4(5)
	.loc 3 810 0
	lwz 9,8(4)
	stwx 9,5,0
	.loc 3 811 0
	lwz 0,12(4)
	stwx 0,5,6
.LBE677:
	.loc 3 823 0
	blr
	.cfi_endproc
.LFE2594:
	.size	_ZN16idCinematicLocal8blit2_32EPhS0_i, .-_ZN16idCinematicLocal8blit2_32EPhS0_i
	.align 2
	.globl _ZN16idCinematicLocal14blitVQQuad32fsEPPhS0_
	.type	_ZN16idCinematicLocal14blitVQQuad32fsEPPhS0_, @function
_ZN16idCinematicLocal14blitVQQuad32fsEPPhS0_:
.LFB2595:
	.loc 3 830 0
	.cfi_startproc
.LVL125:
	mflr 0
	stwu 1,-56(1)
.LCFI37:
	.cfi_def_cfa_offset 56
	.cfi_register 65, 0
	stw 22,16(1)
.LBB678:
	.loc 3 850 0
	li 22,0
	.cfi_offset 22, -40
.LBE678:
	.loc 3 830 0
	stw 23,20(1)
.LBB701:
	.loc 3 850 0
	li 23,0
	.cfi_offset 23, -36
.LBE701:
	.loc 3 830 0
	stw 0,60(1)
.LBB702:
	.loc 3 850 0
	ori 23,23,32768
.LBE702:
	.loc 3 830 0
	stw 25,28(1)
.LBB703:
	.loc 3 850 0
	ori 22,22,49152
.LBE703:
	.loc 3 830 0
	stw 27,36(1)
	stw 21,12(1)
.LBB704:
	.loc 3 852 0
	lis 21,.LANCHOR0@ha
	.cfi_offset 21, -44
	.cfi_offset 27, -20
	.cfi_offset 25, -28
	.cfi_offset 65, 4
.LBE704:
	.loc 3 830 0
	stw 24,24(1)
	mr 24,4
	.cfi_offset 24, -32
	stw 26,32(1)
	mr 26,3
	.cfi_offset 26, -24
	stw 28,40(1)
	.loc 3 836 0
	li 28,0
	.cfi_offset 28, -16
	.loc 3 830 0
	stw 29,44(1)
	.loc 3 834 0
	li 29,0
	.cfi_offset 29, -12
	.loc 3 830 0
	stw 30,48(1)
	.loc 3 835 0
	li 30,0
	.cfi_offset 30, -8
	.loc 3 830 0
	stw 31,52(1)
	.loc 3 830 0
	mr 31,5
	.cfi_offset 31, -4
.LVL126:
.L100:
.LBB705:
	.loc 3 839 0
	cmpwi 7,29,0
	bne- 7,.L85
.LVL127:
	.loc 3 841 0
	lbz 30,1(31)
.LVL128:
	.loc 3 840 0
	li 29,7
	.loc 3 841 0
	lbz 0,0(31)
	.loc 3 842 0
	addi 31,31,2
.LVL129:
	.loc 3 841 0
	slwi 30,30,8
	add 30,30,0
	rlwinm 30,30,0,0xffff
.LVL130:
	.loc 3 847 0
	rlwinm 0,30,0,16,17
.LVL131:
	.loc 3 848 0
	rlwinm 30,30,2,16,29
.LVL132:
	.loc 3 850 0
	cmpwi 7,0,16384
	beq- 7,.L89
.LVL133:
.L104:
	cmplwi 7,0,16384
	bgt- 7,.L92
	cmpwi 7,0,0
	bne- 7,.L87
.LVL134:
.L88:
	.loc 3 898 0
	addi 28,28,5
.LVL135:
.L87:
	.loc 3 901 0
	slwi 0,28,2
	.loc 3 838 0
	lwzx 0,24,0
	cmpwi 7,0,0
	bne+ 7,.L100
.LVL136:
.L105:
.LBE705:
	.loc 3 902 0
	lwz 0,60(1)
	lwz 21,12(1)
	mtlr 0
	lwz 22,16(1)
	lwz 23,20(1)
	lwz 24,24(1)
.LVL137:
	lwz 25,28(1)
	lwz 26,32(1)
.LVL138:
	lwz 27,36(1)
	lwz 28,40(1)
.LVL139:
	lwz 29,44(1)
	lwz 30,48(1)
	lwz 31,52(1)
.LVL140:
	addi 1,1,56
	.cfi_remember_state
.LCFI38:
	.cfi_def_cfa_offset 0
	.cfi_restore 31
	.cfi_restore 30
	.cfi_restore 29
	.cfi_restore 28
	.cfi_restore 27
	.cfi_restore 26
	.cfi_restore 25
	.cfi_restore 24
	.cfi_restore 23
	.cfi_restore 22
	.cfi_restore 21
	blr
.LVL141:
.L85:
.LCFI39:
	.cfi_restore_state
.LBB706:
	.loc 3 847 0
	rlwinm 0,30,0,16,17
	.loc 3 844 0
	addi 29,29,-1
.LVL142:
	.loc 3 850 0
	cmpwi 7,0,16384
	.loc 3 844 0
	rlwinm 29,29,0,0xffff
.LVL143:
	.loc 3 848 0
	rlwinm 30,30,2,16,29
.LVL144:
	.loc 3 850 0
	bne+ 7,.L104
.LVL145:
.L89:
	.loc 3 893 0
	lbz 9,0(31)
	slwi 0,28,2
	lwzx 5,24,0
	mr 3,26
	slwi 9,9,2
	lwz 6,1108(26)
	add 9,26,9
	.loc 3 895 0
	addi 28,28,5
.LVL146:
	.loc 3 893 0
	lwz 4,4(9)
	.loc 3 894 0
	addi 31,31,1
.LVL147:
	.loc 3 893 0
	add 4,5,4
	bl _ZN16idCinematicLocal8move8_32EPhS0_i
.LVL148:
	.loc 3 901 0
	slwi 0,28,2
	.loc 3 838 0
	lwzx 0,24,0
	cmpwi 7,0,0
	bne+ 7,.L100
	b .L105
.LVL149:
.L92:
	.loc 3 850 0
	cmpw 7,0,23
	beq- 7,.L90
	cmpw 7,0,22
	bne+ 7,.L87
.LVL150:
	.loc 3 859 0
	cmpwi 7,29,0
	.loc 3 830 0
	slwi 27,28,2
	add 27,24,27
	.loc 3 858 0
	li 25,0
	.loc 3 859 0
	bne- 7,.L93
.LVL151:
.L106:
	.loc 3 861 0
	lbz 30,1(31)
	.loc 3 860 0
	li 29,7
	.loc 3 861 0
	lbz 0,0(31)
	.loc 3 862 0
	addi 31,31,2
.LVL152:
	.loc 3 861 0
	slwi 30,30,8
	add 30,30,0
	rlwinm 30,30,0,0xffff
.LVL153:
	.loc 3 867 0
	rlwinm 0,30,0,16,17
.LVL154:
	rlwinm 30,30,2,16,29
.LVL155:
	.loc 3 869 0
	cmpw 7,0,23
	beq- 7,.L97
.LVL156:
.L107:
	cmpw 7,0,22
	beq- 7,.L98
	cmpwi 7,0,16384
	bne+ 7,.L95
	.loc 3 885 0
	lbz 9,0(31)
	mr 3,26
	lwz 5,4(27)
	.loc 3 886 0
	addi 31,31,1
.LVL157:
	.loc 3 885 0
	slwi 9,9,2
	lwz 6,1108(26)
	add 9,26,9
	lwz 4,4(9)
	add 4,5,4
	bl _ZN16idCinematicLocal8move4_32EPhS0_i
.LVL158:
.L95:
	.loc 3 858 0
	cmpwi 7,25,3
	addi 27,27,4
	addi 25,25,1
.LVL159:
	beq- 7,.L88
	.loc 3 859 0
	cmpwi 7,29,0
	beq- 7,.L106
.LVL160:
.L93:
	.loc 3 867 0
	rlwinm 0,30,0,16,17
	.loc 3 864 0
	addi 29,29,-1
	.loc 3 869 0
	cmpw 7,0,23
	.loc 3 864 0
	rlwinm 29,29,0,0xffff
.LVL161:
	.loc 3 867 0
	rlwinm 30,30,2,16,29
.LVL162:
	.loc 3 869 0
	bne+ 7,.L107
.LVL163:
.L97:
	.loc 3 871 0
	lbz 0,0(31)
	la 9,.LANCHOR0@l(21)
	lwz 4,5128(9)
	mr 3,26
	slwi 0,0,6
	lwz 5,4(27)
	lwz 6,1108(26)
	add 4,4,0
	.loc 3 872 0
	addi 31,31,1
.LVL164:
	.loc 3 871 0
	bl _ZN16idCinematicLocal8blit4_32EPhS0_i
.LVL165:
	.loc 3 873 0
	b .L95
.L98:
	.loc 3 875 0
	lbz 10,0(31)
	la 9,.LANCHOR0@l(21)
	lwz 9,5124(9)
	slwi 10,10,4
	lwz 11,4(27)
.LVL166:
.LBB679:
.LBB680:
	.loc 3 808 0
	lwzx 0,9,10
.LBE680:
.LBE679:
	.loc 3 875 0
	add 10,9,10
.LVL167:
.LBB682:
.LBB681:
	.loc 3 806 0
	lwz 8,1108(26)
	.loc 3 808 0
	stw 0,0(11)
	.loc 3 806 0
	srawi 8,8,2
.LVL168:
	.loc 3 809 0
	lwz 0,4(10)
	stw 0,4(11)
	.loc 3 810 0
	slwi 0,8,2
	.loc 3 811 0
	addi 8,8,1
.LVL169:
	.loc 3 810 0
	lwz 7,8(10)
	.loc 3 811 0
	slwi 8,8,2
.LVL170:
	.loc 3 810 0
	stwx 7,11,0
	.loc 3 811 0
	lwz 0,12(10)
	stwx 0,11,8
.LVL171:
.LBE681:
.LBE682:
	.loc 3 877 0
	lbz 11,1(31)
	lwz 10,4(27)
.LVL172:
	slwi 11,11,4
.LBB683:
.LBB684:
	.loc 3 806 0
	lwz 8,1108(26)
	.loc 3 808 0
	lwzx 0,9,11
.LBE684:
.LBE683:
	.loc 3 877 0
	add 11,9,11
.LBB687:
.LBB685:
	.loc 3 806 0
	srawi 8,8,2
	.loc 3 808 0
	stw 0,8(10)
	.loc 3 809 0
	lwz 0,4(11)
	stw 0,12(10)
.LBE685:
.LBE687:
	.loc 3 877 0
	addi 10,10,8
.LVL173:
.LBB688:
.LBB686:
	.loc 3 810 0
	slwi 0,8,2
	.loc 3 811 0
	addi 8,8,1
.LVL174:
	.loc 3 810 0
	lwz 7,8(11)
	.loc 3 811 0
	slwi 8,8,2
.LVL175:
	.loc 3 810 0
	stwx 7,10,0
	.loc 3 811 0
	lwz 0,12(11)
	stwx 0,10,8
.LVL176:
.LBE686:
.LBE688:
	.loc 3 879 0
	lbz 10,2(31)
	lwz 8,1108(26)
	slwi 10,10,4
	lwz 11,4(27)
.LVL177:
.LBB689:
.LBB690:
	.loc 3 808 0
	lwzx 7,9,10
.LBE690:
.LBE689:
	.loc 3 879 0
	slwi 0,8,1
	add 10,9,10
.LBB693:
.LBB691:
	.loc 3 806 0
	srawi 8,8,2
	.loc 3 808 0
	stwx 7,11,0
.LBE691:
.LBE693:
	.loc 3 879 0
	add 11,11,0
.LVL178:
.LBB694:
.LBB692:
	.loc 3 810 0
	slwi 0,8,2
.LVL179:
	.loc 3 811 0
	addi 8,8,1
	.loc 3 809 0
	lwz 7,4(10)
	.loc 3 811 0
	slwi 8,8,2
	.loc 3 809 0
	stw 7,4(11)
	.loc 3 810 0
	lwz 7,8(10)
	stwx 7,11,0
	.loc 3 811 0
	lwz 0,12(10)
	stwx 0,11,8
.LVL180:
.LBE692:
.LBE694:
	.loc 3 881 0
	lbz 0,3(31)
	.loc 3 882 0
	addi 31,31,4
.LVL181:
	.loc 3 881 0
	lwz 10,1108(26)
.LVL182:
	slwi 0,0,4
	lwz 8,4(27)
.LBB695:
.LBB696:
	.loc 3 808 0
	lwzx 7,9,0
.LBE696:
.LBE695:
	.loc 3 881 0
	addi 11,10,4
.LVL183:
	slwi 11,11,1
	add 9,9,0
.LBB699:
.LBB697:
	.loc 3 808 0
	stwx 7,8,11
.LBE697:
.LBE699:
	.loc 3 881 0
	add 11,8,11
.LVL184:
.LBB700:
.LBB698:
	.loc 3 806 0
	srawi 10,10,2
	.loc 3 809 0
	lwz 0,4(9)
.LVL185:
	stw 0,4(11)
	.loc 3 810 0
	slwi 0,10,2
	.loc 3 811 0
	addi 10,10,1
	.loc 3 810 0
	lwz 8,8(9)
	.loc 3 811 0
	slwi 10,10,2
	.loc 3 810 0
	stwx 8,11,0
	.loc 3 811 0
	lwz 0,12(9)
	stwx 0,11,10
.LBE698:
.LBE700:
	.loc 3 883 0
	b .L95
.LVL186:
.L90:
	.loc 3 852 0
	lbz 0,0(31)
	la 9,.LANCHOR0@l(21)
	lwz 4,5132(9)
	slwi 9,28,2
	slwi 0,0,8
	lwzx 5,24,9
	lwz 6,1108(26)
	add 4,4,0
	mr 3,26
	.loc 3 854 0
	addi 28,28,5
.LVL187:
	.loc 3 852 0
	bl _ZN16idCinematicLocal8blit8_32EPhS0_i
	.loc 3 901 0
	slwi 0,28,2
	.loc 3 838 0
	lwzx 0,24,0
	.loc 3 853 0
	addi 31,31,1
.LVL188:
	.loc 3 838 0
	cmpwi 7,0,0
	bne+ 7,.L100
	b .L105
.LBE706:
	.cfi_endproc
.LFE2595:
	.size	_ZN16idCinematicLocal14blitVQQuad32fsEPPhS0_, .-_ZN16idCinematicLocal14blitVQQuad32fsEPPhS0_
	.align 2
	.globl _ZN16idCinematicLocal10yuv_to_rgbElll
	.type	_ZN16idCinematicLocal10yuv_to_rgbElll, @function
_ZN16idCinematicLocal10yuv_to_rgbElll:
.LFB2596:
	.loc 3 945 0
	.cfi_startproc
.LVL189:
.LBB707:
	.loc 3 946 0
	lis 9,.LANCHOR0@ha
	slwi 4,4,2
.LVL190:
	la 9,.LANCHOR0@l(9)
	.loc 3 948 0
	slwi 6,6,2
.LVL191:
	add 6,9,6
	.loc 3 946 0
	add 4,9,4
	lwz 0,4096(4)
.LVL192:
	.loc 3 949 0
	slwi 5,5,2
.LVL193:
	.loc 3 948 0
	lwz 11,1024(6)
	.loc 3 949 0
	add 10,9,5
	lwz 10,2048(10)
	.loc 3 948 0
	add 11,0,11
	.loc 3 950 0
	lwzx 8,9,5
	.loc 3 948 0
	srawi 11,11,9
.LVL194:
	.loc 3 949 0
	lwz 7,3072(6)
	.loc 3 950 0
	nor 4,11,11
.LVL195:
	.loc 3 949 0
	add 10,0,10
	.loc 3 950 0
	srawi 9,4,31
	add 0,0,8
.LVL196:
	.loc 3 955 0
	and 11,11,9
.LVL197:
	.loc 3 949 0
	add 10,10,7
	.loc 3 955 0
	cmpwi 7,11,31
	.loc 3 949 0
	srawi 10,10,8
.LVL198:
	.loc 3 950 0
	srawi 0,0,9
.LVL199:
	nor 9,10,10
.LVL200:
	nor 8,0,0
	srawi 9,9,31
	srawi 8,8,31
	and 9,10,9
.LVL201:
	and 0,0,8
.LVL202:
	.loc 3 955 0
	ble- 7,.L112
	li 11,31
.L112:
	cmpwi 7,9,63
	slwi 11,11,11
	ble- 7,.L113
	li 9,63
.LVL203:
.L113:
	cmpwi 7,0,31
	slwi 9,9,5
	add 9,11,9
	ble- 7,.L114
	li 0,31
.LVL204:
.L114:
	add 0,9,0
.LBE707:
	.loc 3 956 0
	rlwinm 3,0,0,0xffff
.LVL205:
	blr
	.cfi_endproc
.LFE2596:
	.size	_ZN16idCinematicLocal10yuv_to_rgbElll, .-_ZN16idCinematicLocal10yuv_to_rgbElll
	.align 2
	.globl _ZN16idCinematicLocal12yuv_to_rgb24Elll
	.type	_ZN16idCinematicLocal12yuv_to_rgb24Elll, @function
_ZN16idCinematicLocal12yuv_to_rgb24Elll:
.LFB2597:
	.loc 3 963 0
	.cfi_startproc
.LVL206:
	mflr 0
	stwu 1,-8(1)
.LCFI40:
	.cfi_def_cfa_offset 8
	.cfi_register 65, 0
.LBB708:
	.loc 3 964 0
	lis 9,.LANCHOR0@ha
	.loc 3 967 0
	slwi 5,5,2
.LVL207:
	.loc 3 964 0
	la 9,.LANCHOR0@l(9)
	slwi 4,4,2
.LVL208:
.LBE708:
	.loc 3 963 0
	stw 0,12(1)
.LBB709:
	.loc 3 967 0
	add 11,9,5
	.loc 3 964 0
	add 4,9,4
	.loc 3 966 0
	slwi 6,6,2
.LVL209:
	.loc 3 964 0
	lwz 0,4096(4)
	.cfi_offset 65, 4
.LVL210:
	.loc 3 966 0
	add 6,9,6
	.loc 3 967 0
	lwz 8,2048(11)
	lwz 10,3072(6)
	add 8,0,8
	.loc 3 968 0
	lwzx 7,9,5
	.loc 3 967 0
	add 8,8,10
	.loc 3 966 0
	lwz 10,1024(6)
	.loc 3 967 0
	srawi 8,8,6
	.loc 3 968 0
	nor 11,8,8
	.loc 3 966 0
	add 10,0,10
	.loc 3 968 0
	srawi 11,11,31
	add 0,0,7
	.loc 3 973 0
	and 11,8,11
	.loc 3 966 0
	srawi 10,10,6
.LVL211:
	.loc 3 973 0
	cmpwi 7,11,255
	.loc 3 968 0
	srawi 0,0,6
.LVL212:
	nor 8,0,0
.LVL213:
	nor 9,10,10
	srawi 9,9,31
	srawi 8,8,31
	and 9,10,9
.LVL214:
	and 0,0,8
.LVL215:
	.loc 3 973 0
	ble- 7,.L119
	li 11,255
.L119:
	cmpwi 7,9,255
	slwi 11,11,8
	ble- 7,.L120
	li 9,255
.LVL216:
.L120:
	cmpwi 7,0,255
	add 9,11,9
	ble- 7,.L121
	li 0,255
.LVL217:
.L121:
	slwi 0,0,16
	add 3,9,0
.LVL218:
	bl _Z10LittleLongi
.LVL219:
.LBE709:
	.loc 3 974 0
	lwz 0,12(1)
	addi 1,1,8
.LCFI41:
	.cfi_def_cfa_offset 0
	mtlr 0
	blr
	.cfi_endproc
.LFE2597:
	.size	_ZN16idCinematicLocal12yuv_to_rgb24Elll, .-_ZN16idCinematicLocal12yuv_to_rgb24Elll
	.align 2
	.globl _ZN16idCinematicLocal14decodeCodeBookEPht
	.type	_ZN16idCinematicLocal14decodeCodeBookEPht, @function
_ZN16idCinematicLocal14decodeCodeBookEPht:
.LFB2598:
	.loc 3 981 0
	.cfi_startproc
.LVL220:
.LBB710:
	.loc 3 987 0
	cmpwi 0,5,0
.LVL221:
.LBE710:
	.loc 3 981 0
	mflr 0
	stwu 1,-64(1)
.LCFI42:
	.cfi_def_cfa_offset 64
	.cfi_register 65, 0
	stw 23,28(1)
.LBB711:
	.loc 3 988 0
	li 23,256
	.cfi_offset 23, -36
.LBE711:
	.loc 3 981 0
	stw 24,32(1)
.LBB712:
	.loc 3 987 0
	li 24,512
	.cfi_offset 24, -32
.LBE712:
	.loc 3 981 0
	stw 31,60(1)
	mr 31,3
	.cfi_offset 31, -4
	stw 0,68(1)
	stw 19,12(1)
	stw 20,16(1)
	stw 21,20(1)
	stw 22,24(1)
	stw 25,36(1)
	stw 26,40(1)
	stw 27,44(1)
	stw 28,48(1)
	stw 29,52(1)
	stw 30,56(1)
.LBB713:
	.loc 3 987 0
	beq- 0,.L123
	.cfi_offset 30, -8
	.cfi_offset 29, -12
	.cfi_offset 28, -16
	.cfi_offset 27, -20
	.cfi_offset 26, -24
	.cfi_offset 25, -28
	.cfi_offset 22, -40
	.cfi_offset 21, -44
	.cfi_offset 20, -48
	.cfi_offset 19, -52
	.cfi_offset 65, 4
.LVL222:
	.loc 3 991 0
	srawi. 23,5,8
	beq- 0,.L175
.L124:
.LVL223:
	rlwinm 24,5,1,23,30
.LVL224:
.L123:
	.loc 3 999 0
	lbz 0,1198(31)
	.loc 3 997 0
	lis 25,.LANCHOR0@ha
	la 25,.LANCHOR0@l(25)
	.loc 3 999 0
	cmpwi 7,0,0
	.loc 3 997 0
	lwz 29,5124(25)
.LVL225:
	.loc 3 999 0
	bne- 7,.L125
	.loc 3 1000 0
	lbz 0,1199(31)
	cmpwi 7,0,0
	.loc 3 1004 0
	lwz 0,1124(31)
	.loc 3 1000 0
	bne- 7,.L126
	.loc 3 1004 0
	cmpwi 7,0,2
	beq- 7,.L176
	.loc 3 1027 0
	cmpwi 7,0,4
	bne+ 7,.L122
.LVL226:
	.loc 3 1029 0 discriminator 1
	cmpwi 7,23,0
	ble- 7,.L133
	.loc 3 981 0
	mulli 23,23,6
.LVL227:
	mr 30,4
	add 21,4,23
.LVL228:
.L134:
	.loc 3 1034 0 discriminator 2
	lbz 27,4(30)
	.loc 3 1036 0 discriminator 2
	mr 3,31
	.loc 3 1035 0 discriminator 2
	lbz 28,5(30)
	.loc 3 1030 0 discriminator 2
	lbz 4,0(30)
.LVL229:
	.loc 3 1036 0 discriminator 2
	mr 5,27
	mr 6,28
	.loc 3 1031 0 discriminator 2
	lbz 22,1(30)
.LVL230:
	.loc 3 1032 0 discriminator 2
	lbz 23,2(30)
.LVL231:
	.loc 3 1033 0 discriminator 2
	lbz 26,3(30)
.LVL232:
	.loc 3 1036 0 discriminator 2
	bl _ZN16idCinematicLocal12yuv_to_rgb24Elll
.LVL233:
	stw 3,0(29)
	.loc 3 1037 0 discriminator 2
	mr 4,22
	mr 5,27
	mr 6,28
	mr 3,31
	.loc 3 981 0 discriminator 2
	addi 30,30,6
.LVL234:
	.loc 3 1037 0 discriminator 2
	bl _ZN16idCinematicLocal12yuv_to_rgb24Elll
	.loc 3 1038 0 discriminator 2
	mr 4,23
	.loc 3 1037 0 discriminator 2
	stw 3,4(29)
	.loc 3 1038 0 discriminator 2
	mr 5,27
	mr 6,28
	mr 3,31
	bl _ZN16idCinematicLocal12yuv_to_rgb24Elll
.LVL235:
	.loc 3 1039 0 discriminator 2
	mr 4,26
	.loc 3 1038 0 discriminator 2
	stw 3,8(29)
	.loc 3 1039 0 discriminator 2
	mr 5,27
	mr 3,31
	mr 6,28
	bl _ZN16idCinematicLocal12yuv_to_rgb24Elll
	.loc 3 1029 0 discriminator 2
	cmpw 7,21,30
	.loc 3 1039 0 discriminator 2
	stw 3,12(29)
	.loc 3 981 0 discriminator 2
	addi 29,29,16
.LVL236:
	.loc 3 1029 0 discriminator 2
	bne+ 7,.L134
	.loc 3 1029 0 is_stmt 0
	mr 4,21
.LVL237:
.L133:
	.loc 3 1045 0 is_stmt 1
	cmpwi 7,24,0
	.loc 3 1042 0
	lwz 7,5128(25)
.LVL238:
	.loc 3 1043 0
	lwz 9,5132(25)
.LVL239:
	.loc 3 1045 0
	beq- 7,.L122
	.loc 3 981 0
	slwi 3,24,1
	.loc 3 1045 0
	lwz 5,5124(25)
	.loc 3 981 0
	add 3,4,3
.LVL240:
.L136:
	.loc 3 1046 0
	lbz 10,0(4)
	.loc 3 981 0
	addi 6,9,128
	.loc 3 1047 0
	lbz 11,1(4)
	.loc 3 981 0
	mr 8,7
	.loc 3 1046 0
	slwi 10,10,4
	.loc 3 981 0
	addi 4,4,2
.LVL241:
	.loc 3 1047 0
	slwi 11,11,4
	.loc 3 1046 0
	add 10,5,10
.LVL242:
	.loc 3 1047 0
	add 11,5,11
.LVL243:
.L135:
	.loc 3 1049 0 discriminator 2
	lwz 0,0(10)
	stw 0,0(8)
.LVL244:
	lwz 0,0(10)
	stw 0,0(9)
.LVL245:
	lwz 0,0(10)
	stw 0,4(9)
.LVL246:
	lwz 0,4(10)
	stw 0,4(8)
.LVL247:
	lwz 0,4(10)
	stw 0,8(9)
.LVL248:
	lwz 0,4(10)
	stw 0,12(9)
.LVL249:
	lwz 0,0(11)
	stw 0,8(8)
.LVL250:
	lwz 0,0(11)
	stw 0,16(9)
.LVL251:
	lwz 0,0(11)
	stw 0,20(9)
.LVL252:
	lwz 0,4(11)
	stw 0,12(8)
	.loc 3 981 0 discriminator 2
	addi 8,8,16
.LVL253:
	.loc 3 1049 0 discriminator 2
	lwz 0,4(11)
	stw 0,24(9)
.LVL254:
	lwz 0,4(11)
	stw 0,28(9)
.LVL255:
	lwz 0,0(10)
	stw 0,32(9)
.LVL256:
	lwz 0,0(10)
	stw 0,36(9)
.LVL257:
	lwz 0,4(10)
	stw 0,40(9)
.LVL258:
	lwz 0,4(10)
	addi 10,10,8
.LVL259:
	stw 0,44(9)
.LVL260:
	lwz 0,0(11)
	stw 0,48(9)
.LVL261:
	lwz 0,0(11)
	stw 0,52(9)
.LVL262:
	lwz 0,4(11)
	stw 0,56(9)
.LVL263:
	lwz 0,4(11)
	addi 11,11,8
.LVL264:
	stw 0,60(9)
	.loc 3 981 0 discriminator 2
	addi 9,9,64
.LVL265:
	.loc 3 1048 0 discriminator 2
	cmpw 7,9,6
	bne- 7,.L135
	.loc 3 1045 0
	cmpw 7,3,4
	.loc 3 1048 0
	addi 7,7,32
.LVL266:
	.loc 3 1045 0
	bne+ 7,.L136
	b .L122
.LVL267:
.L125:
	.loc 3 1121 0
	lwz 0,1124(31)
	cmpwi 7,0,2
	beq- 7,.L177
	.loc 3 1141 0
	cmpwi 7,0,4
	beq- 7,.L178
.LVL268:
.L122:
.LBE713:
	.loc 3 1164 0
	lwz 0,68(1)
	lwz 19,12(1)
	mtlr 0
	lwz 20,16(1)
	lwz 21,20(1)
	lwz 22,24(1)
	lwz 23,28(1)
	lwz 24,32(1)
	lwz 25,36(1)
	lwz 26,40(1)
	lwz 27,44(1)
	lwz 28,48(1)
	lwz 29,52(1)
	lwz 30,56(1)
	lwz 31,60(1)
.LVL269:
	addi 1,1,64
	.cfi_remember_state
.LCFI43:
	.cfi_def_cfa_offset 0
	.cfi_restore 31
	.cfi_restore 30
	.cfi_restore 29
	.cfi_restore 28
	.cfi_restore 27
	.cfi_restore 26
	.cfi_restore 25
	.cfi_restore 24
	.cfi_restore 23
	.cfi_restore 22
	.cfi_restore 21
	.cfi_restore 20
	.cfi_restore 19
	blr
.LVL270:
.L126:
.LCFI44:
	.cfi_restore_state
.LBB714:
	.loc 3 1056 0
	cmpwi 7,0,2
	beq- 7,.L179
	.loc 3 1085 0
	cmpwi 7,0,4
	bne+ 7,.L122
.LVL271:
	.loc 3 1087 0 discriminator 1
	cmpwi 7,23,0
	ble- 7,.L142
	.loc 3 981 0
	mulli 23,23,6
.LVL272:
	mr 30,4
	add 20,4,23
.LVL273:
.L143:
	.loc 3 1092 0 discriminator 2
	lbz 27,4(30)
	.loc 3 1094 0 discriminator 2
	mr 3,31
	.loc 3 1093 0 discriminator 2
	lbz 28,5(30)
	.loc 3 1088 0 discriminator 2
	lbz 21,0(30)
.LVL274:
	.loc 3 1094 0 discriminator 2
	mr 5,27
	mr 6,28
	.loc 3 1089 0 discriminator 2
	lbz 22,1(30)
.LVL275:
	.loc 3 1094 0 discriminator 2
	mr 4,21
	.loc 3 1090 0 discriminator 2
	lbz 23,2(30)
.LVL276:
	.loc 3 1091 0 discriminator 2
	lbz 26,3(30)
.LVL277:
	.loc 3 1094 0 discriminator 2
	bl _ZN16idCinematicLocal12yuv_to_rgb24Elll
	stw 3,0(29)
	.loc 3 1095 0 discriminator 2
	mr 4,22
	mr 5,27
	mr 6,28
	mr 3,31
	.loc 3 981 0 discriminator 2
	addi 30,30,6
.LVL278:
	.loc 3 1095 0 discriminator 2
	bl _ZN16idCinematicLocal12yuv_to_rgb24Elll
	.loc 3 1096 0 discriminator 2
	mulli 0,21,3
	.loc 3 1095 0 discriminator 2
	stw 3,4(29)
	.loc 3 1096 0 discriminator 2
	mr 5,27
	add 0,0,23
	mr 6,28
	srwi 4,0,2
	mr 3,31
	bl _ZN16idCinematicLocal12yuv_to_rgb24Elll
	.loc 3 1097 0 discriminator 2
	mulli 0,22,3
	.loc 3 1096 0 discriminator 2
	stw 3,8(29)
	.loc 3 1097 0 discriminator 2
	mr 5,27
	add 0,0,26
	mr 6,28
	srwi 4,0,2
	mr 3,31
	bl _ZN16idCinematicLocal12yuv_to_rgb24Elll
	.loc 3 1098 0 discriminator 2
	mulli 0,23,3
	.loc 3 1097 0 discriminator 2
	stw 3,12(29)
	.loc 3 1098 0 discriminator 2
	mr 5,27
	add 21,0,21
.LVL279:
	mr 6,28
	srwi 4,21,2
	mr 3,31
	bl _ZN16idCinematicLocal12yuv_to_rgb24Elll
	.loc 3 1099 0 discriminator 2
	mulli 0,26,3
	.loc 3 1098 0 discriminator 2
	stw 3,16(29)
	.loc 3 1099 0 discriminator 2
	mr 5,27
	add 22,0,22
.LVL280:
	mr 6,28
	srwi 4,22,2
	mr 3,31
	bl _ZN16idCinematicLocal12yuv_to_rgb24Elll
	.loc 3 1100 0 discriminator 2
	mr 4,23
	.loc 3 1099 0 discriminator 2
	stw 3,20(29)
	.loc 3 1100 0 discriminator 2
	mr 5,27
	mr 6,28
	mr 3,31
	bl _ZN16idCinematicLocal12yuv_to_rgb24Elll
.LVL281:
	.loc 3 1101 0 discriminator 2
	mr 4,26
	.loc 3 1100 0 discriminator 2
	stw 3,24(29)
	.loc 3 1101 0 discriminator 2
	mr 5,27
	mr 3,31
	mr 6,28
	bl _ZN16idCinematicLocal12yuv_to_rgb24Elll
	.loc 3 1087 0 discriminator 2
	cmpw 7,20,30
	.loc 3 1101 0 discriminator 2
	stw 3,28(29)
	.loc 3 981 0 discriminator 2
	addi 29,29,32
.LVL282:
	.loc 3 1087 0 discriminator 2
	bne+ 7,.L143
	.loc 3 1087 0 is_stmt 0
	mr 4,20
.LVL283:
.L142:
	.loc 3 1107 0 is_stmt 1
	cmpwi 7,24,0
	.loc 3 1104 0
	lwz 7,5128(25)
.LVL284:
	.loc 3 1105 0
	lwz 9,5132(25)
.LVL285:
	.loc 3 1107 0
	beq- 7,.L122
	.loc 3 981 0
	slwi 3,24,1
	.loc 3 1107 0
	lwz 5,5124(25)
	.loc 3 981 0
	add 3,4,3
.LVL286:
.L145:
	.loc 3 1108 0
	lbz 10,0(4)
	.loc 3 981 0
	addi 6,9,256
	.loc 3 1109 0
	lbz 11,1(4)
	.loc 3 981 0
	mr 8,7
	.loc 3 1108 0
	slwi 10,10,5
	.loc 3 981 0
	addi 4,4,2
.LVL287:
	.loc 3 1109 0
	slwi 11,11,5
	.loc 3 1108 0
	add 10,5,10
.LVL288:
	.loc 3 1109 0
	add 11,5,11
.LVL289:
.L144:
	.loc 3 1111 0 discriminator 2
	lwz 0,0(10)
	stw 0,0(8)
.LVL290:
	lwz 0,0(10)
	stw 0,0(9)
.LVL291:
	lwz 0,0(10)
	stw 0,4(9)
.LVL292:
	lwz 0,4(10)
	stw 0,4(8)
.LVL293:
	lwz 0,4(10)
	stw 0,8(9)
.LVL294:
	lwz 0,4(10)
	stw 0,12(9)
.LVL295:
	lwz 0,0(11)
	stw 0,8(8)
.LVL296:
	lwz 0,0(11)
	stw 0,16(9)
.LVL297:
	lwz 0,0(11)
	stw 0,20(9)
.LVL298:
	lwz 0,4(11)
	stw 0,12(8)
.LVL299:
	lwz 0,4(11)
	stw 0,24(9)
.LVL300:
	lwz 0,4(11)
	stw 0,28(9)
.LVL301:
	lwz 0,0(10)
	stw 0,32(9)
.LVL302:
	lwz 0,0(10)
	stw 0,36(9)
.LVL303:
	lwz 0,4(10)
	stw 0,40(9)
.LVL304:
	lwz 0,4(10)
	stw 0,44(9)
.LVL305:
	lwz 0,0(11)
	stw 0,48(9)
.LVL306:
	lwz 0,0(11)
	stw 0,52(9)
.LVL307:
	lwz 0,4(11)
	stw 0,56(9)
.LVL308:
	lwz 0,4(11)
	stw 0,60(9)
.LVL309:
	.loc 3 1112 0 discriminator 2
	lwz 0,8(10)
	stw 0,16(8)
.LVL310:
	lwz 0,8(10)
	stw 0,64(9)
.LVL311:
	lwz 0,8(10)
	stw 0,68(9)
.LVL312:
	lwz 0,12(10)
	stw 0,20(8)
.LVL313:
	lwz 0,12(10)
	stw 0,72(9)
.LVL314:
	lwz 0,12(10)
	stw 0,76(9)
.LVL315:
	lwz 0,8(11)
	stw 0,24(8)
.LVL316:
	lwz 0,8(11)
	stw 0,80(9)
.LVL317:
	lwz 0,8(11)
	stw 0,84(9)
.LVL318:
	lwz 0,12(11)
	stw 0,28(8)
	.loc 3 981 0 discriminator 2
	addi 8,8,32
.LVL319:
	.loc 3 1112 0 discriminator 2
	lwz 0,12(11)
	stw 0,88(9)
.LVL320:
	lwz 0,12(11)
	stw 0,92(9)
.LVL321:
	lwz 0,8(10)
	stw 0,96(9)
.LVL322:
	lwz 0,8(10)
	stw 0,100(9)
.LVL323:
	lwz 0,12(10)
	stw 0,104(9)
.LVL324:
	lwz 0,12(10)
	.loc 3 981 0 discriminator 2
	addi 10,10,16
.LVL325:
	.loc 3 1112 0 discriminator 2
	stw 0,108(9)
.LVL326:
	lwz 0,8(11)
	stw 0,112(9)
.LVL327:
	lwz 0,8(11)
	stw 0,116(9)
.LVL328:
	lwz 0,12(11)
	stw 0,120(9)
.LVL329:
	lwz 0,12(11)
	.loc 3 981 0 discriminator 2
	addi 11,11,16
.LVL330:
	.loc 3 1112 0 discriminator 2
	stw 0,124(9)
	.loc 3 981 0 discriminator 2
	addi 9,9,128
.LVL331:
	.loc 3 1110 0 discriminator 2
	cmpw 7,9,6
	bne- 7,.L144
	.loc 3 1107 0
	cmpw 7,3,4
	.loc 3 1110 0
	addi 7,7,64
.LVL332:
	.loc 3 1107 0
	bne+ 7,.L145
	b .L122
.LVL333:
.L175:
	.loc 3 991 0
	li 23,256
.LVL334:
	b .L124
.LVL335:
.L177:
	.loc 3 1122 0 discriminator 1
	cmpwi 7,23,0
	ble- 7,.L147
	.loc 3 981 0
	mulli 23,23,6
.LVL336:
	mr 28,29
	mr 30,4
	add 23,4,23
.LVL337:
.L148:
	.loc 3 1125 0 discriminator 2
	lbz 26,4(30)
	.loc 3 1127 0 discriminator 2
	mr 3,31
	.loc 3 1126 0 discriminator 2
	lbz 27,5(30)
	.loc 3 1123 0 discriminator 2
	lbz 4,0(30)
.LVL338:
	.loc 3 1127 0 discriminator 2
	mr 5,26
	mr 6,27
	bl _ZN16idCinematicLocal10yuv_to_rgbElll
.LVL339:
	.loc 3 1124 0 discriminator 2
	lbz 4,2(30)
.LVL340:
	.loc 3 1127 0 discriminator 2
	sth 3,0(28)
	.loc 3 981 0 discriminator 2
	addi 30,30,6
.LVL341:
	.loc 3 1128 0 discriminator 2
	mr 3,31
	mr 5,26
	mr 6,27
	bl _ZN16idCinematicLocal10yuv_to_rgbElll
.LVL342:
	.loc 3 1122 0 discriminator 2
	cmpw 7,23,30
	.loc 3 1128 0 discriminator 2
	sth 3,2(28)
	.loc 3 981 0 discriminator 2
	addi 28,28,4
.LVL343:
	.loc 3 1122 0 discriminator 2
	bne+ 7,.L148
	.loc 3 1122 0 is_stmt 0
	mr 4,23
.LVL344:
.L147:
	.loc 3 1134 0 is_stmt 1
	cmpwi 7,24,0
	.loc 3 1131 0
	lwz 7,5128(25)
.LVL345:
	.loc 3 1132 0
	lwz 9,5132(25)
.LVL346:
	.loc 3 1134 0
	beq- 7,.L122
	.loc 3 981 0
	slwi 24,24,1
.LVL347:
	add 24,4,24
.LVL348:
.L150:
	.loc 3 1135 0
	lbz 10,0(4)
	.loc 3 981 0
	addi 6,9,32
	.loc 3 1136 0
	lbz 11,1(4)
	.loc 3 981 0
	mr 8,7
	.loc 3 1135 0
	slwi 10,10,2
	.loc 3 981 0
	addi 4,4,2
.LVL349:
	.loc 3 1136 0
	slwi 11,11,2
	.loc 3 1135 0
	add 10,29,10
.LVL350:
	.loc 3 1136 0
	add 11,29,11
.LVL351:
.L149:
	.loc 3 1138 0 discriminator 2
	lhz 0,0(10)
	sth 0,0(8)
.LVL352:
	lhz 0,0(10)
	sth 0,0(9)
.LVL353:
	lhz 0,0(10)
	sth 0,2(9)
.LVL354:
	lhz 0,0(11)
	sth 0,2(8)
	.loc 3 981 0 discriminator 2
	addi 8,8,4
.LVL355:
	.loc 3 1138 0 discriminator 2
	lhz 0,0(11)
	sth 0,4(9)
.LVL356:
	lhz 0,0(11)
	sth 0,6(9)
.LVL357:
	lhz 0,0(10)
	sth 0,8(9)
.LVL358:
	lhz 0,0(10)
	addi 10,10,2
.LVL359:
	sth 0,10(9)
.LVL360:
	lhz 0,0(11)
	sth 0,12(9)
.LVL361:
	lhz 0,0(11)
	addi 11,11,2
.LVL362:
	sth 0,14(9)
	.loc 3 981 0 discriminator 2
	addi 9,9,16
.LVL363:
	.loc 3 1137 0 discriminator 2
	cmpw 7,9,6
	bne- 7,.L149
	.loc 3 1134 0
	cmpw 7,24,4
	.loc 3 1137 0
	addi 7,7,8
.LVL364:
	.loc 3 1134 0
	bne+ 7,.L150
	b .L122
.LVL365:
.L176:
	.loc 3 1005 0 discriminator 1
	cmpwi 7,23,0
	ble- 7,.L128
	.loc 3 981 0
	mulli 23,23,6
.LVL366:
	mr 28,29
	mr 30,4
	add 21,4,23
.LVL367:
.L129:
	.loc 3 1010 0 discriminator 2
	lbz 26,4(30)
	.loc 3 1012 0 discriminator 2
	mr 3,31
	.loc 3 1011 0 discriminator 2
	lbz 27,5(30)
	.loc 3 1006 0 discriminator 2
	lbz 4,0(30)
.LVL368:
	.loc 3 1012 0 discriminator 2
	mr 5,26
	mr 6,27
	bl _ZN16idCinematicLocal10yuv_to_rgbElll
.LVL369:
	.loc 3 1007 0 discriminator 2
	lbz 4,1(30)
.LVL370:
	.loc 3 1008 0 discriminator 2
	lbz 22,2(30)
.LVL371:
	.loc 3 1013 0 discriminator 2
	mr 5,26
	.loc 3 1009 0 discriminator 2
	lbz 23,3(30)
.LVL372:
	.loc 3 1013 0 discriminator 2
	mr 6,27
	.loc 3 1012 0 discriminator 2
	sth 3,0(28)
	.loc 3 1013 0 discriminator 2
	mr 3,31
	.loc 3 981 0 discriminator 2
	addi 30,30,6
.LVL373:
	.loc 3 1013 0 discriminator 2
	bl _ZN16idCinematicLocal10yuv_to_rgbElll
.LVL374:
	.loc 3 1014 0 discriminator 2
	mr 4,22
	.loc 3 1013 0 discriminator 2
	sth 3,2(28)
	.loc 3 1014 0 discriminator 2
	mr 5,26
	mr 6,27
	mr 3,31
	bl _ZN16idCinematicLocal10yuv_to_rgbElll
.LVL375:
	.loc 3 1015 0 discriminator 2
	mr 4,23
	.loc 3 1014 0 discriminator 2
	sth 3,4(28)
	.loc 3 1015 0 discriminator 2
	mr 5,26
	mr 3,31
	mr 6,27
	bl _ZN16idCinematicLocal10yuv_to_rgbElll
	.loc 3 1005 0 discriminator 2
	cmpw 7,21,30
	.loc 3 1015 0 discriminator 2
	sth 3,6(28)
	.loc 3 981 0 discriminator 2
	addi 28,28,8
.LVL376:
	.loc 3 1005 0 discriminator 2
	bne+ 7,.L129
	.loc 3 1005 0 is_stmt 0
	mr 4,21
.LVL377:
.L128:
	.loc 3 1021 0 is_stmt 1
	cmpwi 7,24,0
	.loc 3 1018 0
	lwz 6,5128(25)
.LVL378:
	.loc 3 1019 0
	lwz 7,5132(25)
.LVL379:
	.loc 3 1021 0
	beq- 7,.L122
	.loc 3 981 0
	slwi 3,24,1
	add 3,4,3
.LVL380:
.L132:
	.loc 3 1022 0
	lbz 11,0(4)
	.loc 3 981 0
	mr 9,7
	.loc 3 1023 0
	lbz 10,1(4)
	.loc 3 981 0
	mr 8,6
	.loc 3 1022 0
	slwi 11,11,3
	.loc 3 981 0
	addi 4,4,2
.LVL381:
	.loc 3 1022 0
	add 11,29,11
.LVL382:
	.loc 3 1023 0
	slwi 10,10,3
	add 10,29,10
.LVL383:
	.loc 3 981 0
	addi 5,11,8
.LVL384:
.L131:
	.loc 3 1025 0 discriminator 2
	lhz 0,0(11)
	sth 0,0(8)
.LVL385:
	lhz 0,0(11)
	sth 0,0(9)
.LVL386:
	lhz 0,0(11)
	sth 0,2(9)
.LVL387:
	lhz 0,2(11)
	sth 0,2(8)
.LVL388:
	lhz 0,2(11)
	sth 0,4(9)
.LVL389:
	lhz 0,2(11)
	sth 0,6(9)
.LVL390:
	lhz 0,0(10)
	sth 0,4(8)
.LVL391:
	lhz 0,0(10)
	sth 0,8(9)
.LVL392:
	lhz 0,0(10)
	sth 0,10(9)
.LVL393:
	lhz 0,2(10)
	sth 0,6(8)
	.loc 3 981 0 discriminator 2
	addi 8,8,8
.LVL394:
	.loc 3 1025 0 discriminator 2
	lhz 0,2(10)
	sth 0,12(9)
.LVL395:
	lhz 0,2(10)
	sth 0,14(9)
.LVL396:
	lhz 0,0(11)
	sth 0,16(9)
.LVL397:
	lhz 0,0(11)
	sth 0,18(9)
.LVL398:
	lhz 0,2(11)
	sth 0,20(9)
.LVL399:
	lhz 0,2(11)
	addi 11,11,4
.LVL400:
	.loc 3 1024 0 discriminator 2
	cmpw 7,11,5
	.loc 3 1025 0 discriminator 2
	sth 0,22(9)
.LVL401:
	lhz 0,0(10)
	sth 0,24(9)
.LVL402:
	lhz 0,0(10)
	sth 0,26(9)
.LVL403:
	lhz 0,2(10)
	sth 0,28(9)
.LVL404:
	lhz 0,2(10)
	addi 10,10,4
.LVL405:
	sth 0,30(9)
	.loc 3 981 0 discriminator 2
	addi 9,9,32
.LVL406:
	.loc 3 1024 0 discriminator 2
	bne- 7,.L131
	.loc 3 1021 0
	cmpw 7,3,4
	.loc 3 1024 0
	addi 6,6,16
	addi 7,7,64
.LVL407:
	.loc 3 1021 0
	bne+ 7,.L132
	b .L122
.LVL408:
.L179:
	.loc 3 1057 0 discriminator 1
	cmpwi 7,23,0
	ble- 7,.L138
	.loc 3 981 0
	mulli 23,23,6
.LVL409:
	mr 28,29
	mr 30,4
	add 19,4,23
.LVL410:
.L139:
	.loc 3 1062 0 discriminator 2
	lbz 26,4(30)
	.loc 3 1064 0 discriminator 2
	mr 3,31
	.loc 3 1063 0 discriminator 2
	lbz 27,5(30)
	.loc 3 1058 0 discriminator 2
	lbz 20,0(30)
.LVL411:
	.loc 3 1064 0 discriminator 2
	mr 5,26
	mr 6,27
	mr 4,20
	bl _ZN16idCinematicLocal10yuv_to_rgbElll
	.loc 3 1059 0 discriminator 2
	lbz 21,1(30)
.LVL412:
	.loc 3 1060 0 discriminator 2
	lbz 22,2(30)
.LVL413:
	.loc 3 1065 0 discriminator 2
	mr 5,26
	.loc 3 1061 0 discriminator 2
	lbz 23,3(30)
.LVL414:
	.loc 3 1065 0 discriminator 2
	mr 4,21
	.loc 3 1064 0 discriminator 2
	sth 3,0(28)
	.loc 3 1065 0 discriminator 2
	mr 6,27
	mr 3,31
	.loc 3 981 0 discriminator 2
	addi 30,30,6
.LVL415:
	.loc 3 1065 0 discriminator 2
	bl _ZN16idCinematicLocal10yuv_to_rgbElll
	.loc 3 1066 0 discriminator 2
	mulli 0,20,3
	.loc 3 1065 0 discriminator 2
	sth 3,2(28)
	.loc 3 1066 0 discriminator 2
	mr 5,26
	add 0,0,22
	mr 6,27
	srwi 4,0,2
	mr 3,31
	bl _ZN16idCinematicLocal10yuv_to_rgbElll
	.loc 3 1067 0 discriminator 2
	mulli 0,21,3
	.loc 3 1066 0 discriminator 2
	sth 3,4(28)
	.loc 3 1067 0 discriminator 2
	mr 5,26
	add 0,0,23
	mr 6,27
	srwi 4,0,2
	mr 3,31
	bl _ZN16idCinematicLocal10yuv_to_rgbElll
	.loc 3 1068 0 discriminator 2
	mulli 0,22,3
	.loc 3 1067 0 discriminator 2
	sth 3,6(28)
	.loc 3 1068 0 discriminator 2
	mr 5,26
	add 20,0,20
.LVL416:
	mr 6,27
	srwi 4,20,2
	mr 3,31
	bl _ZN16idCinematicLocal10yuv_to_rgbElll
	.loc 3 1069 0 discriminator 2
	mulli 0,23,3
	.loc 3 1068 0 discriminator 2
	sth 3,8(28)
	.loc 3 1069 0 discriminator 2
	mr 5,26
	add 21,0,21
.LVL417:
	mr 6,27
	srwi 4,21,2
	mr 3,31
	bl _ZN16idCinematicLocal10yuv_to_rgbElll
	.loc 3 1070 0 discriminator 2
	mr 4,22
	.loc 3 1069 0 discriminator 2
	sth 3,10(28)
	.loc 3 1070 0 discriminator 2
	mr 5,26
	mr 6,27
	mr 3,31
	bl _ZN16idCinematicLocal10yuv_to_rgbElll
.LVL418:
	.loc 3 1071 0 discriminator 2
	mr 4,23
	.loc 3 1070 0 discriminator 2
	sth 3,12(28)
	.loc 3 1071 0 discriminator 2
	mr 5,26
	mr 3,31
	mr 6,27
	bl _ZN16idCinematicLocal10yuv_to_rgbElll
	.loc 3 1057 0 discriminator 2
	cmpw 7,19,30
	.loc 3 1071 0 discriminator 2
	sth 3,14(28)
	.loc 3 981 0 discriminator 2
	addi 28,28,16
.LVL419:
	.loc 3 1057 0 discriminator 2
	bne+ 7,.L139
	.loc 3 1057 0 is_stmt 0
	mr 4,19
.LVL420:
.L138:
	.loc 3 1077 0 is_stmt 1
	cmpwi 7,24,0
	.loc 3 1074 0
	lwz 7,5128(25)
.LVL421:
	.loc 3 1075 0
	lwz 9,5132(25)
.LVL422:
	.loc 3 1077 0
	beq- 7,.L122
	.loc 3 981 0
	slwi 5,24,1
	add 5,4,5
.LVL423:
.L141:
	.loc 3 1078 0
	lbz 10,0(4)
	.loc 3 981 0
	addi 6,9,128
	.loc 3 1079 0
	lbz 11,1(4)
	.loc 3 981 0
	mr 8,7
	.loc 3 1078 0
	slwi 10,10,4
	.loc 3 981 0
	addi 4,4,2
.LVL424:
	.loc 3 1079 0
	slwi 11,11,4
	.loc 3 1078 0
	add 10,29,10
.LVL425:
	.loc 3 1079 0
	add 11,29,11
.LVL426:
.L140:
	.loc 3 1081 0 discriminator 2
	lhz 0,0(10)
	sth 0,0(8)
.LVL427:
	lhz 0,0(10)
	sth 0,0(9)
.LVL428:
	lhz 0,0(10)
	sth 0,2(9)
.LVL429:
	lhz 0,2(10)
	sth 0,2(8)
.LVL430:
	lhz 0,2(10)
	sth 0,4(9)
.LVL431:
	lhz 0,2(10)
	sth 0,6(9)
.LVL432:
	lhz 0,0(11)
	sth 0,4(8)
.LVL433:
	lhz 0,0(11)
	sth 0,8(9)
.LVL434:
	lhz 0,0(11)
	sth 0,10(9)
.LVL435:
	lhz 0,2(11)
	sth 0,6(8)
.LVL436:
	lhz 0,2(11)
	sth 0,12(9)
.LVL437:
	lhz 0,2(11)
	sth 0,14(9)
.LVL438:
	lhz 0,0(10)
	sth 0,16(9)
.LVL439:
	lhz 0,0(10)
	sth 0,18(9)
.LVL440:
	lhz 0,2(10)
	sth 0,20(9)
.LVL441:
	lhz 0,2(10)
	sth 0,22(9)
.LVL442:
	lhz 0,0(11)
	sth 0,24(9)
.LVL443:
	lhz 0,0(11)
	sth 0,26(9)
.LVL444:
	lhz 0,2(11)
	sth 0,28(9)
.LVL445:
	lhz 0,2(11)
	sth 0,30(9)
.LVL446:
	.loc 3 1082 0 discriminator 2
	lhz 0,4(10)
	sth 0,8(8)
.LVL447:
	lhz 0,4(10)
	sth 0,32(9)
.LVL448:
	lhz 0,4(10)
	sth 0,34(9)
.LVL449:
	lhz 0,6(10)
	sth 0,10(8)
.LVL450:
	lhz 0,6(10)
	sth 0,36(9)
.LVL451:
	lhz 0,6(10)
	sth 0,38(9)
.LVL452:
	lhz 0,4(11)
	sth 0,12(8)
.LVL453:
	lhz 0,4(11)
	sth 0,40(9)
.LVL454:
	lhz 0,4(11)
	sth 0,42(9)
.LVL455:
	lhz 0,6(11)
	sth 0,14(8)
	.loc 3 981 0 discriminator 2
	addi 8,8,16
.LVL456:
	.loc 3 1082 0 discriminator 2
	lhz 0,6(11)
	sth 0,44(9)
.LVL457:
	lhz 0,6(11)
	sth 0,46(9)
.LVL458:
	lhz 0,4(10)
	sth 0,48(9)
.LVL459:
	lhz 0,4(10)
	sth 0,50(9)
.LVL460:
	lhz 0,6(10)
	sth 0,52(9)
.LVL461:
	lhz 0,6(10)
	.loc 3 981 0 discriminator 2
	addi 10,10,8
.LVL462:
	.loc 3 1082 0 discriminator 2
	sth 0,54(9)
.LVL463:
	lhz 0,4(11)
	sth 0,56(9)
.LVL464:
	lhz 0,4(11)
	sth 0,58(9)
.LVL465:
	lhz 0,6(11)
	sth 0,60(9)
.LVL466:
	lhz 0,6(11)
	.loc 3 981 0 discriminator 2
	addi 11,11,8
.LVL467:
	.loc 3 1082 0 discriminator 2
	sth 0,62(9)
	.loc 3 981 0 discriminator 2
	addi 9,9,64
.LVL468:
	.loc 3 1080 0 discriminator 2
	cmpw 7,9,6
	bne- 7,.L140
	.loc 3 1077 0
	cmpw 7,5,4
	.loc 3 1080 0
	addi 7,7,32
.LVL469:
	.loc 3 1077 0
	bne+ 7,.L141
	b .L122
.LVL470:
.L178:
	.loc 3 1143 0 discriminator 1
	cmpwi 7,23,0
	ble- 7,.L151
	.loc 3 981 0
	mulli 23,23,6
.LVL471:
	mr 30,4
	add 23,4,23
.LVL472:
.L152:
	.loc 3 1146 0 discriminator 2
	lbz 27,4(30)
	.loc 3 1148 0 discriminator 2
	mr 3,31
	.loc 3 1147 0 discriminator 2
	lbz 28,5(30)
	.loc 3 1144 0 discriminator 2
	lbz 4,0(30)
.LVL473:
	.loc 3 1148 0 discriminator 2
	mr 5,27
	mr 6,28
	.loc 3 1145 0 discriminator 2
	lbz 26,2(30)
.LVL474:
	.loc 3 1148 0 discriminator 2
	bl _ZN16idCinematicLocal12yuv_to_rgb24Elll
.LVL475:
	.loc 3 981 0 discriminator 2
	addi 30,30,6
.LVL476:
	.loc 3 1148 0 discriminator 2
	stw 3,0(29)
	.loc 3 1149 0 discriminator 2
	mr 4,26
	mr 3,31
	mr 5,27
	mr 6,28
	bl _ZN16idCinematicLocal12yuv_to_rgb24Elll
	.loc 3 1143 0 discriminator 2
	cmpw 7,23,30
	.loc 3 1149 0 discriminator 2
	stw 3,4(29)
	.loc 3 981 0 discriminator 2
	addi 29,29,8
.LVL477:
	.loc 3 1143 0 discriminator 2
	bne+ 7,.L152
	.loc 3 1143 0 is_stmt 0
	mr 4,23
.LVL478:
.L151:
	.loc 3 1155 0 is_stmt 1
	cmpwi 7,24,0
	.loc 3 1152 0
	lwz 7,5128(25)
.LVL479:
	.loc 3 1153 0
	lwz 6,5132(25)
.LVL480:
	.loc 3 1155 0
	beq- 7,.L122
	.loc 3 981 0
	slwi 24,24,1
.LVL481:
	.loc 3 1155 0
	lwz 3,5124(25)
	.loc 3 981 0
	add 24,4,24
.LVL482:
.L154:
	.loc 3 1157 0
	lbz 11,1(4)
	.loc 3 981 0
	mr 9,6
	.loc 3 1156 0
	lbz 10,0(4)
	.loc 3 981 0
	mr 8,7
	.loc 3 1157 0
	slwi 11,11,3
	.loc 3 981 0
	addi 4,4,2
.LVL483:
	.loc 3 1156 0
	slwi 10,10,3
	.loc 3 1157 0
	add 11,3,11
	.loc 3 1156 0
	add 10,3,10
.LVL484:
	.loc 3 981 0
	addi 5,11,8
.LVL485:
.L153:
	.loc 3 1159 0 discriminator 2
	lwz 0,0(10)
	stw 0,0(8)
.LVL486:
	lwz 0,0(10)
	stw 0,0(9)
.LVL487:
	lwz 0,0(10)
	stw 0,4(9)
.LVL488:
	lwz 0,0(11)
	stw 0,4(8)
	.loc 3 981 0 discriminator 2
	addi 8,8,8
.LVL489:
	.loc 3 1159 0 discriminator 2
	lwz 0,0(11)
	stw 0,8(9)
.LVL490:
	lwz 0,0(11)
	stw 0,12(9)
.LVL491:
	lwz 0,0(10)
	stw 0,16(9)
.LVL492:
	lwz 0,0(10)
	addi 10,10,4
.LVL493:
	stw 0,20(9)
.LVL494:
	lwz 0,0(11)
	stw 0,24(9)
.LVL495:
	lwz 0,0(11)
	addi 11,11,4
.LVL496:
	.loc 3 1158 0 discriminator 2
	cmpw 7,11,5
	.loc 3 1159 0 discriminator 2
	stw 0,28(9)
	.loc 3 981 0 discriminator 2
	addi 9,9,32
.LVL497:
	.loc 3 1158 0 discriminator 2
	bne- 7,.L153
	.loc 3 1155 0
	cmpw 7,24,4
	.loc 3 1158 0
	addi 7,7,16
	addi 6,6,64
.LVL498:
	.loc 3 1155 0
	bne+ 7,.L154
	b .L122
.LBE714:
	.cfi_endproc
.LFE2598:
	.size	_ZN16idCinematicLocal14decodeCodeBookEPht, .-_ZN16idCinematicLocal14decodeCodeBookEPht
	.align 2
	.globl _ZN16idCinematicLocal11recurseQuadElllll
	.type	_ZN16idCinematicLocal11recurseQuadElllll, @function
_ZN16idCinematicLocal11recurseQuadElllll:
.LFB2599:
	.loc 3 1171 0
	.cfi_startproc
.LVL499:
	mflr 0
	stwu 1,-40(1)
.LCFI45:
	.cfi_def_cfa_offset 40
	.cfi_register 65, 0
	stw 26,16(1)
	mr 26,7
	.cfi_offset 26, -24
	stw 27,20(1)
	mr 27,8
	.cfi_offset 27, -20
	stw 28,24(1)
	mr 28,5
	.cfi_offset 28, -16
	stw 29,28(1)
	mr 29,4
	.cfi_offset 29, -12
	stw 30,32(1)
	mr 30,3
	.cfi_offset 30, -8
	stw 31,36(1)
	mr 31,6
	.cfi_offset 31, -4
	stw 0,44(1)
	stw 25,12(1)
	b .L186
	.cfi_offset 25, -28
	.cfi_offset 65, 4
.LVL500:
.L184:
.LBB715:
	.loc 3 1194 0
	srawi 31,31,1
.LVL501:
	.loc 3 1195 0
	mr 4,29
	mr 5,28
	mr 3,30
	mr 6,31
	mr 7,26
	mr 8,27
	.loc 3 1196 0
	add 25,29,31
	.loc 3 1195 0
	bl _ZN16idCinematicLocal11recurseQuadElllll
.LVL502:
	.loc 3 1196 0
	mr 5,28
	mr 3,30
	mr 4,25
	mr 6,31
	mr 7,26
	mr 8,27
	.loc 3 1197 0
	add 28,28,31
	.loc 3 1196 0
	bl _ZN16idCinematicLocal11recurseQuadElllll
	.loc 3 1197 0
	mr 4,29
	mr 3,30
	mr 5,28
	mr 6,31
	mr 7,26
	mr 8,27
	.loc 3 1198 0
	mr 29,25
	.loc 3 1197 0
	bl _ZN16idCinematicLocal11recurseQuadElllll
.LVL503:
.L186:
	.loc 3 1185 0
	cmpwi 7,29,0
	.loc 3 1176 0
	lwz 7,1116(30)
.LVL504:
	.loc 3 1179 0
	lwz 0,1128(30)
.LVL505:
	.loc 3 1180 0
	lwz 8,1132(30)
.LVL506:
	.loc 3 1182 0
	lwz 9,1068(30)
.LVL507:
	.loc 3 1183 0
	lwz 11,1072(30)
.LVL508:
	.loc 3 1185 0
	blt- 7,.L181
	.loc 3 1185 0 is_stmt 0 discriminator 1
	cmpw 7,0,9
	add 10,29,31
	ble- 7,.L182
	mr 0,9
.L182:
	cmpw 7,10,0
	bgt- 7,.L181
	.loc 3 1180 0 is_stmt 1 discriminator 2
	cmpw 7,8,11
	ble- 7,.L183
	mr 8,11
.L183:
	.loc 3 1185 0 discriminator 2
	add 0,28,31
	cmpw 7,0,8
	bgt- 7,.L181
	.loc 3 1185 0 is_stmt 0 discriminator 3
	cmpwi 7,28,0
	blt- 7,.L181
	.loc 3 1185 0 discriminator 4
	cmpwi 7,31,8
	bgt- 7,.L184
.LVL509:
	.loc 3 1187 0 is_stmt 1
	subf 8,8,11
	lwz 9,1108(30)
	srawi 8,8,1
	lwz 6,1124(30)
	add 8,28,8
	add 0,29,26
	add 8,8,27
	mullw 0,0,6
	lwz 10,1192(30)
	.loc 3 1189 0
	lwz 11,1028(30)
	.loc 3 1187 0
	mullw 8,8,9
	.loc 3 1189 0
	lwz 9,1100(30)
	slwi 9,9,2
	.loc 3 1187 0
	add 0,8,0
	add 0,10,0
.LVL510:
	.loc 3 1189 0
	stwx 0,11,9
	.loc 3 1190 0
	add 7,0,7
	lwz 9,1100(30)
	lwz 10,1032(30)
	slwi 11,9,2
	addi 9,9,1
	stwx 7,10,11
	stw 9,1100(30)
.LVL511:
.L181:
	.loc 3 1193 0
	cmpwi 7,31,4
	bne+ 7,.L184
.LBE715:
	.loc 3 1200 0
	lwz 0,44(1)
	lwz 25,12(1)
	mtlr 0
	lwz 26,16(1)
.LVL512:
	lwz 27,20(1)
.LVL513:
	lwz 28,24(1)
	lwz 29,28(1)
	lwz 30,32(1)
.LVL514:
	lwz 31,36(1)
.LVL515:
	addi 1,1,40
.LCFI46:
	.cfi_def_cfa_offset 0
	.cfi_restore 31
	.cfi_restore 30
	.cfi_restore 29
	.cfi_restore 28
	.cfi_restore 27
	.cfi_restore 26
	.cfi_restore 25
	blr
	.cfi_endproc
.LFE2599:
	.size	_ZN16idCinematicLocal11recurseQuadElllll, .-_ZN16idCinematicLocal11recurseQuadElllll
	.align 2
	.globl _ZN16idCinematicLocal9setupQuadEll
	.type	_ZN16idCinematicLocal9setupQuadEll, @function
_ZN16idCinematicLocal9setupQuadEll:
.LFB2600:
	.loc 3 1207 0
	.cfi_startproc
.LVL516:
	mflr 0
	stwu 1,-32(1)
.LCFI47:
	.cfi_def_cfa_offset 32
	.cfi_register 65, 0
	stw 26,8(1)
	stw 27,12(1)
	mr 27,4
	.cfi_offset 27, -20
	.cfi_offset 26, -24
	stw 28,16(1)
	mr 28,5
	.cfi_offset 28, -16
	stw 29,20(1)
.LBB716:
	.loc 3 1221 0
	li 29,0
	.cfi_offset 29, -12
.LBE716:
	.loc 3 1207 0
	stw 30,24(1)
	mr 30,3
	.cfi_offset 30, -8
	stw 0,36(1)
	stw 31,28(1)
.LBB717:
	.loc 3 1215 0
	lwz 9,1132(3)
	lwz 0,1128(3)
	.cfi_offset 31, -4
	.cfi_offset 65, 4
	.loc 3 1221 0
	cmpwi 7,9,0
	.loc 3 1215 0
	mullw 11,9,0
	srwi 11,11,4
.LVL517:
	.loc 3 1216 0
	srawi 26,11,2
	add 26,26,11
.LVL518:
	.loc 3 1219 0
	li 11,0
	stw 11,1100(3)
.LVL519:
	.loc 3 1221 0
	ble- 7,.L189
.LVL520:
.L198:
	.loc 3 1222 0 discriminator 1
	cmpwi 7,0,0
	li 31,0
	ble- 7,.L191
.LVL521:
.L195:
	.loc 3 1223 0 discriminator 2
	mr 4,31
	mr 3,30
	mr 5,29
	li 6,16
	mr 7,27
	mr 8,28
	bl _ZN16idCinematicLocal11recurseQuadElllll
	.loc 3 1222 0 discriminator 2
	lwz 0,1128(30)
	addi 31,31,16
.LVL522:
	cmpw 7,0,31
	bgt+ 7,.L195
	lwz 9,1132(30)
.LVL523:
.L191:
	.loc 3 1221 0
	addi 29,29,16
.LVL524:
	cmpw 7,9,29
	bgt+ 7,.L198
.LVL525:
.L189:
	.loc 3 1228 0 discriminator 1
	li 0,64
	.loc 3 1221 0 discriminator 1
	li 9,0
	.loc 3 1228 0 discriminator 1
	mtctr 0
	slwi 26,26,2
.LVL526:
	li 11,0
.L192:
	.loc 3 1228 0 is_stmt 0 discriminator 2
	lwz 10,1028(30)
	.loc 3 1207 0 is_stmt 1 discriminator 2
	add 0,9,26
	.loc 3 1229 0 discriminator 2
	addi 9,9,4
	.loc 3 1228 0 discriminator 2
	stwx 11,10,0
	.loc 3 1229 0 discriminator 2
	lwz 10,1032(30)
	stwx 11,10,0
	.loc 3 1227 0 discriminator 2
	bdnz .L192
.LBE717:
	.loc 3 1231 0
	lwz 0,36(1)
	lwz 26,8(1)
	mtlr 0
	lwz 27,12(1)
.LVL527:
	lwz 28,16(1)
.LVL528:
	lwz 29,20(1)
	lwz 30,24(1)
.LVL529:
	lwz 31,28(1)
	addi 1,1,32
.LCFI48:
	.cfi_def_cfa_offset 0
	.cfi_restore 31
	.cfi_restore 30
	.cfi_restore 29
	.cfi_restore 28
	.cfi_restore 27
	.cfi_restore 26
	blr
	.cfi_endproc
.LFE2600:
	.size	_ZN16idCinematicLocal9setupQuadEll, .-_ZN16idCinematicLocal9setupQuadEll
	.align 2
	.globl _ZN16idCinematicLocal12readQuadInfoEPh
	.type	_ZN16idCinematicLocal12readQuadInfoEPh, @function
_ZN16idCinematicLocal12readQuadInfoEPh:
.LFB2601:
	.loc 3 1238 0
	.cfi_startproc
.LVL530:
	mflr 0
	stwu 1,-16(1)
.LCFI49:
	.cfi_def_cfa_offset 16
	.cfi_register 65, 0
	.loc 3 1239 0
	lbz 9,0(4)
	.loc 3 1238 0
	stw 31,12(1)
	mr 31,3
	.cfi_offset 31, -4
	stw 0,20(1)
	.loc 3 1239 0
	lbz 0,1(4)
	.cfi_offset 65, 4
	.loc 3 1247 0
	lwz 8,1124(3)
	.loc 3 1239 0
	slwi 0,0,8
	.loc 3 1250 0
	lwz 6,1192(3)
	.loc 3 1239 0
	add 0,9,0
	stw 0,1128(3)
	.loc 3 1247 0
	mullw 10,0,8
	.loc 3 1250 0
	cmpwi 7,6,0
	.loc 3 1240 0
	lbz 11,3(4)
	lbz 9,2(4)
	slwi 11,11,8
	add 11,9,11
	stw 11,1132(3)
	.loc 3 1241 0
	lbz 9,5(4)
	lbz 7,4(4)
	slwi 9,9,8
	add 9,7,9
	stw 9,1136(3)
	.loc 3 1248 0
	mullw 9,11,10
	.loc 3 1242 0
	lbz 7,7(4)
	lbz 6,6(4)
	slwi 7,7,8
	.loc 3 1244 0
	stw 11,1072(3)
	.loc 3 1242 0
	add 7,6,7
	.loc 3 1245 0
	stw 0,1068(3)
	.loc 3 1242 0
	stw 7,1140(3)
	.loc 3 1247 0
	stw 10,1108(3)
	.loc 3 1248 0
	stw 9,1116(3)
	.loc 3 1250 0
	beq- 7,.L201
	.loc 3 1254 0
	li 10,0
	.loc 3 1258 0
	neg 8,9
	.loc 3 1254 0
	stb 10,1198(31)
	.loc 3 1255 0
	stb 10,1199(31)
	.loc 3 1257 0
	stw 9,1160(31)
	.loc 3 1258 0
	stw 8,1164(31)
	.loc 3 1260 0
	stw 0,1172(31)
	.loc 3 1261 0
	stw 11,1176(31)
	.loc 3 1262 0
	lwz 0,20(1)
	lwz 31,12(1)
	mtlr 0
	addi 1,1,16
	.cfi_remember_state
.LCFI50:
	.cfi_def_cfa_offset 0
	.cfi_restore 31
	blr
.L201:
.LCFI51:
	.cfi_restore_state
	.loc 3 1251 0
	mullw 0,0,11
	mullw 8,8,0
	slwi 3,8,1
.LVL531:
	bl _Z9Mem_Alloci
.LVL532:
	lwz 9,1116(31)
	lwz 0,1068(31)
	.loc 3 1254 0
	li 10,0
	.loc 3 1251 0
	lwz 11,1072(31)
	.loc 3 1258 0
	neg 8,9
	.loc 3 1251 0
	stw 3,1192(31)
	.loc 3 1254 0
	stb 10,1198(31)
	.loc 3 1255 0
	stb 10,1199(31)
	.loc 3 1257 0
	stw 9,1160(31)
	.loc 3 1258 0
	stw 8,1164(31)
	.loc 3 1260 0
	stw 0,1172(31)
	.loc 3 1261 0
	stw 11,1176(31)
	.loc 3 1262 0
	lwz 0,20(1)
	lwz 31,12(1)
.LVL533:
	mtlr 0
	addi 1,1,16
	.cfi_restore 31
.LCFI52:
	.cfi_def_cfa_offset 0
	blr
	.cfi_endproc
.LFE2601:
	.size	_ZN16idCinematicLocal12readQuadInfoEPh, .-_ZN16idCinematicLocal12readQuadInfoEPh
	.align 2
	.globl _ZN16idCinematicLocal12RoQPrepMcompEll
	.type	_ZN16idCinematicLocal12RoQPrepMcompEll, @function
_ZN16idCinematicLocal12RoQPrepMcompEll:
.LFB2602:
	.loc 3 1269 0
	.cfi_startproc
.LVL534:
.LBB718:
	.loc 3 1273 0
	lwz 0,1132(3)
	lwz 9,1128(3)
	slwi 0,0,2
	.loc 3 1272 0
	lwz 10,1124(3)
	.loc 3 1273 0
	cmpw 7,9,0
	.loc 3 1272 0
	lwz 0,1108(3)
.LVL535:
	.loc 3 1273 0
	beq- 7,.L208
.LVL536:
.L203:
	.loc 3 1269 0
	subfic 8,4,8
	subfic 11,5,8
	mullw 8,8,10
	neg 6,0
	lwz 9,1144(3)
.LBE718:
	.loc 3 1275 0
	li 7,0
	neg 10,10
.LVL537:
.LBB719:
	.loc 3 1269 0
	mullw 0,11,0
.LVL538:
	add 8,8,0
	add 8,8,9
.LVL539:
.L205:
.LBE719:
	li 11,16
	mr 0,8
	mtctr 11
	li 9,0
.LVL540:
.L204:
.LBB720:
	.loc 3 1269 0 is_stmt 0 discriminator 2
	add 11,3,9
	.loc 3 1279 0 is_stmt 1 discriminator 2
	addi 9,9,64
	stw 0,4(11)
	add 0,0,10
	.loc 3 1277 0 discriminator 2
	bdnz .L204
.LVL541:
	.loc 3 1275 0
	cmpwi 7,7,15
	add 8,8,6
	addi 3,3,4
	addi 7,7,1
.LVL542:
	bne+ 7,.L205
.LBE720:
	.loc 3 1282 0
	blr
.LVL543:
.L208:
.LBB721:
	.loc 3 1273 0 discriminator 1
	lbz 9,1198(3)
	cmpwi 7,9,0
	bne- 7,.L203
	.loc 3 1273 0 is_stmt 0 discriminator 2
	slwi 10,10,1
.LVL544:
	slwi 0,0,1
.LVL545:
	b .L203
.LBE721:
	.cfi_endproc
.LFE2602:
	.size	_ZN16idCinematicLocal12RoQPrepMcompEll, .-_ZN16idCinematicLocal12RoQPrepMcompEll
	.align 2
	.globl _Z15jpeg_memory_srcP22jpeg_decompress_structPhi
	.type	_Z15jpeg_memory_srcP22jpeg_decompress_structPhi, @function
_Z15jpeg_memory_srcP22jpeg_decompress_structPhi:
.LFB2608:
	.loc 3 1444 0 is_stmt 1
	.cfi_startproc
.LVL546:
	mflr 0
	stwu 1,-24(1)
.LCFI53:
	.cfi_def_cfa_offset 24
	.cfi_register 65, 0
	stw 29,12(1)
	mr 29,4
	.cfi_offset 29, -12
	stw 30,16(1)
	mr 30,5
	.cfi_offset 30, -8
	stw 31,20(1)
	mr 31,3
	.cfi_offset 31, -4
	stw 0,28(1)
	stw 28,8(1)
.LBB722:
	.loc 3 1454 0
	lwz 9,20(3)
	cmpwi 7,9,0
	beq- 7,.L211
	.cfi_offset 28, -16
	.cfi_offset 65, 4
.LVL547:
.L210:
	.loc 3 1465 0
	lis 11,_ZL11init_sourceP22jpeg_decompress_struct@ha
	.loc 3 1472 0
	li 0,0
	.loc 3 1465 0
	la 11,_ZL11init_sourceP22jpeg_decompress_struct@l(11)
	.loc 3 1470 0
	stw 29,28(9)
	.loc 3 1465 0
	stw 11,8(9)
	.loc 3 1466 0
	lis 11,_ZL17fill_input_bufferP22jpeg_decompress_struct@ha
	la 11,_ZL17fill_input_bufferP22jpeg_decompress_struct@l(11)
	.loc 3 1471 0
	stw 30,40(9)
	.loc 3 1466 0
	stw 11,12(9)
	.loc 3 1467 0
	lis 11,_ZL15skip_input_dataP22jpeg_decompress_structl@ha
	la 11,_ZL15skip_input_dataP22jpeg_decompress_structl@l(11)
	.loc 3 1472 0
	stw 0,4(9)
	.loc 3 1467 0
	stw 11,16(9)
	.loc 3 1468 0
	lis 11,jpeg_resync_to_restart@ha
	la 11,jpeg_resync_to_restart@l(11)
	.loc 3 1473 0
	stw 0,0(9)
	.loc 3 1468 0
	stw 11,20(9)
	.loc 3 1469 0
	lis 11,_ZL11term_sourceP22jpeg_decompress_struct@ha
	la 11,_ZL11term_sourceP22jpeg_decompress_struct@l(11)
	stw 11,24(9)
.LBE722:
	.loc 3 1474 0
	lwz 0,28(1)
	lwz 28,8(1)
	mtlr 0
	lwz 29,12(1)
.LVL548:
	lwz 30,16(1)
.LVL549:
	lwz 31,20(1)
.LVL550:
	addi 1,1,24
	.cfi_remember_state
.LCFI54:
	.cfi_def_cfa_offset 0
	.cfi_restore 31
	.cfi_restore 30
	.cfi_restore 29
	.cfi_restore 28
	blr
.LVL551:
.L211:
.LCFI55:
	.cfi_restore_state
.LBB723:
	.loc 3 1457 0
	lwz 9,4(3)
	li 4,0
.LVL552:
	li 5,44
.LVL553:
	lwz 0,0(9)
	mtctr 0
	bctrl
.LVL554:
	.loc 3 1461 0
	lwz 9,4(31)
	.loc 3 1457 0
	stw 3,20(31)
	.loc 3 1461 0
	li 5,0
	.loc 3 1457 0
	mr 28,3
.LVL555:
	.loc 3 1461 0
	li 4,0
	lwz 0,0(9)
	mr 3,31
.LVL556:
	ori 5,5,32768
	mtctr 0
	bctrl
	stw 3,32(28)
	lwz 9,20(31)
	b .L210
.LBE723:
	.cfi_endproc
.LFE2608:
	.size	_Z15jpeg_memory_srcP22jpeg_decompress_structPhi, .-_Z15jpeg_memory_srcP22jpeg_decompress_structPhi
	.align 2
	.globl _Z8JPEGBlitPhS_i
	.type	_Z8JPEGBlitPhS_i, @function
_Z8JPEGBlitPhS_i:
.LFB2609:
	.loc 3 1477 0
	.cfi_startproc
.LVL557:
	stwu 1,-472(1)
.LCFI56:
	.cfi_def_cfa_offset 472
	mflr 0
	stw 29,460(1)
	mr 29,3
	.cfi_offset 29, -12
	.cfi_register 65, 0
.LBB724:
	.loc 3 1493 0
	lis 3,.LANCHOR0@ha
.LVL558:
.LBE724:
	.loc 3 1477 0
	stw 0,476(1)
.LBB725:
	.loc 3 1493 0
	la 3,.LANCHOR0@l(3)
	stw 4,440(1)
	addi 3,3,5136
	stw 5,444(1)
.LBE725:
	.loc 3 1477 0
	stw 28,456(1)
	stw 30,464(1)
	stw 31,468(1)
.LBB726:
	.loc 3 1493 0
	mr 31,1
	.cfi_offset 31, -4
	.cfi_offset 30, -8
	.cfi_offset 28, -16
	.cfi_offset 65, 4
.LBE726:
	.loc 3 1477 0
	stw 27,452(1)
.LBB727:
	.loc 3 1493 0
	.cfi_offset 27, -20
	bl jpeg_std_error
.LVL559:
	stwu 3,8(31)
	.loc 3 1496 0
	mr 3,31
	bl jpeg_create_decompress
	.loc 3 1500 0
	lwz 5,444(1)
	lwz 4,440(1)
	mr 3,31
	bl _Z15jpeg_memory_srcP22jpeg_decompress_structPhi
	.loc 3 1504 0
	li 4,1
	mr 3,31
	bl jpeg_read_header
	.loc 3 1521 0
	li 0,0
	.loc 3 1520 0
	li 9,2
	.loc 3 1525 0
	mr 3,31
	.loc 3 1520 0
	stw 9,76(1)
	.loc 3 1521 0
	stw 0,84(1)
	.loc 3 1522 0
	stb 0,80(1)
	.loc 3 1525 0
	bl jpeg_start_decompress
	.loc 3 1537 0
	lwz 0,100(1)
	.loc 3 1541 0
	mr 3,31
	.loc 3 1537 0
	lwz 30,112(1)
	.loc 3 1541 0
	li 4,1
	lwz 9,12(1)
	li 6,1
	.loc 3 1537 0
	mullw 30,30,0
.LVL560:
	.loc 3 1541 0
	lwz 0,8(9)
	mtctr 0
	mr 5,30
	bctrl
	.loc 3 1550 0
	lwz 9,104(1)
	.loc 3 1551 0
	lwz 0,128(1)
	.loc 3 1541 0
	mr 28,3
.LVL561:
	.loc 3 1551 0
	cmplw 7,0,9
	bge- 7,.L213
	.loc 3 1550 0
	addi 9,9,-1
	neg 27,30
	mullw 9,30,9
	add 29,29,9
.LVL562:
.L214:
	.loc 3 1556 0
	mr 4,28
	li 5,1
	mr 3,31
	bl jpeg_read_scanlines
	.loc 3 1559 0
	lwz 4,0(28)
	mr 3,29
	mr 5,30
	bl memcpy
	.loc 3 1551 0
	lwz 0,104(1)
	lwz 9,128(1)
	.loc 3 1573 0
	add 29,29,27
.LVL563:
	.loc 3 1551 0
	cmplw 7,9,0
	blt+ 7,.L214
.LVL564:
.L213:
	.loc 3 1578 0
	mr 3,31
	bl jpeg_finish_decompress
	.loc 3 1586 0
	mr 3,31
	bl jpeg_destroy_decompress
.LBE727:
	.loc 3 1594 0
	lwz 0,476(1)
	lwz 27,452(1)
	li 3,1
	mtlr 0
	lwz 28,456(1)
.LVL565:
	lwz 29,460(1)
	lwz 30,464(1)
.LVL566:
	lwz 31,468(1)
	addi 1,1,472
.LCFI57:
	.cfi_def_cfa_offset 0
	.cfi_restore 31
	.cfi_restore 30
	.cfi_restore 29
	.cfi_restore 28
	.cfi_restore 27
	blr
	.cfi_endproc
.LFE2609:
	.size	_Z8JPEGBlitPhS_i, .-_Z8JPEGBlitPhS_i
	.align 2
	.globl _ZN16idCinematicLocal8RoQ_initEv
	.type	_ZN16idCinematicLocal8RoQ_initEv, @function
_ZN16idCinematicLocal8RoQ_initEv:
.LFB2611:
	.loc 3 1715 0
	.cfi_startproc
.LVL567:
	.loc 3 1717 0
	li 0,24
	.loc 3 1720 0
	lis 9,.LANCHOR0+5120@ha
	.loc 3 1717 0
	stw 0,1088(3)
	.loc 3 1720 0
	lwz 9,.LANCHOR0+5120@l(9)
	lbz 0,7(9)
	lbz 11,6(9)
	slwi 0,0,8
	add 0,11,0
	.loc 3 1722 0
	cmpwi 7,0,0
	.loc 3 1720 0
	stw 0,1168(3)
	.loc 3 1722 0
	bne- 7,.L217
	.loc 3 1722 0 is_stmt 0 discriminator 1
	li 0,30
	stw 0,1168(3)
.L217:
	.loc 3 1724 0 is_stmt 1
	li 0,-1
	stw 0,1104(3)
	.loc 3 1726 0
	lbz 0,9(9)
	lbz 11,8(9)
	slwi 0,0,8
	add 0,11,0
	stw 0,1112(3)
	.loc 3 1727 0
	lbz 0,12(9)
	lbz 10,11(9)
	slwi 0,0,8
	lbz 11,10(9)
	add 0,0,10
	slwi 0,0,8
	add 0,11,0
	stw 0,1096(3)
	.loc 3 1728 0
	lbz 0,15(9)
	lbz 9,14(9)
	.loc 3 1729 0
	.loc 3 1728 0
	slwi 0,0,8
	add 0,9,0
	stw 0,1148(3)
	.loc 3 1729 0
	blr
	.cfi_endproc
.LFE2611:
	.size	_ZN16idCinematicLocal8RoQ_initEv, .-_ZN16idCinematicLocal8RoQ_initEv
	.align 2
	.globl _ZN16idCinematicLocal8RoQResetEv
	.type	_ZN16idCinematicLocal8RoQResetEv, @function
_ZN16idCinematicLocal8RoQResetEv:
.LFB2603:
	.loc 3 1289 0
	.cfi_startproc
.LVL568:
	mflr 0
	stwu 1,-16(1)
.LCFI58:
	.cfi_def_cfa_offset 16
	.cfi_register 65, 0
	.loc 3 1291 0
	li 4,0
	li 5,2
	.loc 3 1289 0
	stw 31,12(1)
	mr 31,3
	.cfi_offset 31, -4
	stw 0,20(1)
	.loc 3 1291 0
	lwz 3,1076(3)
.LVL569:
	lwz 9,0(3)
	lwz 0,48(9)
	.cfi_offset 65, 4
	mtctr 0
	bctrl
	.loc 3 1292 0
	lwz 3,1076(31)
	lis 11,.LANCHOR0+5120@ha
	li 5,16
	lwz 9,0(3)
	lwz 4,.LANCHOR0+5120@l(11)
	lwz 0,20(9)
	mtctr 0
	bctrl
	.loc 3 1293 0
	mr 3,31
	bl _ZN16idCinematicLocal8RoQ_initEv
	.loc 3 1294 0
	li 0,5
	stw 0,1080(31)
	.loc 3 1295 0
	lwz 0,20(1)
	lwz 31,12(1)
.LVL570:
	mtlr 0
	addi 1,1,16
.LCFI59:
	.cfi_def_cfa_offset 0
	.cfi_restore 31
	blr
	.cfi_endproc
.LFE2603:
	.size	_ZN16idCinematicLocal8RoQResetEv, .-_ZN16idCinematicLocal8RoQResetEv
	.align 2
	.globl _ZN16idCinematicLocal12RoQInterruptEv
	.type	_ZN16idCinematicLocal12RoQInterruptEv, @function
_ZN16idCinematicLocal12RoQInterruptEv:
.LFB2610:
	.loc 3 1601 0
	.cfi_startproc
.LVL571:
	mflr 0
	stwu 1,-40(1)
.LCFI60:
	.cfi_def_cfa_offset 40
	.cfi_register 65, 0
	stw 30,32(1)
.LBB732:
	.loc 3 1604 0
	lis 30,.LANCHOR0@ha
	.cfi_offset 30, -8
.LBE732:
	.loc 3 1601 0
	stw 31,36(1)
	mr 31,3
	.cfi_offset 31, -4
	stw 0,44(1)
.LBB733:
	.loc 3 1604 0
	la 30,.LANCHOR0@l(30)
.LBE733:
	.loc 3 1601 0
	stw 24,8(1)
	stw 25,12(1)
	stw 26,16(1)
	stw 27,20(1)
	stw 28,24(1)
	stw 29,28(1)
.LBB734:
	.loc 3 1604 0
	lwz 3,1076(3)
.LVL572:
	lwz 5,1096(31)
	lwz 9,0(3)
	lwz 4,5120(30)
	addi 5,5,8
	lwz 0,20(9)
	.cfi_offset 29, -12
	.cfi_offset 28, -16
	.cfi_offset 27, -20
	.cfi_offset 26, -24
	.cfi_offset 25, -28
	.cfi_offset 24, -32
	.cfi_offset 65, 4
	mtctr 0
	bctrl
	.loc 3 1605 0
	lwz 7,1088(31)
	lwz 6,1092(31)
	cmpw 7,7,6
	bge- 7,.L244
.L223:
.LVL573:
.LBE734:
.LBB735:
.LBB736:
.LBB737:
	.loc 3 1614 0
	lwz 11,1112(31)
	.loc 3 1619 0
	lis 29,.L232@ha
	.loc 3 1614 0
	lwz 30,5120(30)
.LVL574:
	.loc 3 1669 0
	li 24,2
	.loc 3 1619 0
	addi 11,11,-4097
	la 29,.L232@l(29)
	cmplwi 7,11,47
	.loc 3 1658 0
	li 26,0
	.loc 3 1637 0
	li 25,1
	.loc 3 1691 0
	lis 28,0x1
	.loc 3 1700 0
	li 27,0
	.loc 3 1619 0
	ble- 7,.L245
.LVL575:
.L224:
	.loc 3 1669 0
	stw 24,1080(31)
.L230:
	.loc 3 1675 0
	cmpw 7,7,6
	bge- 7,.L244
.L237:
	.loc 3 1684 0
	lwz 0,1096(31)
	add 9,30,0
.LVL576:
	.loc 3 1685 0
	lbzx 0,30,0
	lbz 11,1(9)
	slwi 11,11,8
	add 11,0,11
	stw 11,1112(31)
	.loc 3 1686 0
	lbz 10,4(9)
	lbz 8,3(9)
	slwi 10,10,8
	lbz 0,2(9)
	add 10,10,8
	slwi 10,10,8
	add 10,0,10
	stw 10,1096(31)
	.loc 3 1691 0
	cmplw 7,10,28
	.loc 3 1687 0
	lbz 0,7(9)
	lbz 8,6(9)
	slwi 0,0,8
	add 0,8,0
	stw 0,1148(31)
	.loc 3 1688 0
	lbz 0,7(9)
	stw 0,1152(31)
	.loc 3 1689 0
	lbz 0,6(9)
	stw 0,1156(31)
	.loc 3 1691 0
	bgt- 7,.L239
	cmpwi 7,11,4228
	beq- 7,.L239
	.loc 3 1699 0
	lbz 0,1200(31)
	cmpwi 7,0,0
	beq- 7,.L241
	lwz 0,1080(31)
	cmpwi 7,0,2
	beq- 7,.L241
	.loc 3 1619 0
	addi 11,11,-4097
	.loc 3 1700 0
	stb 27,1200(31)
	.loc 3 1619 0
	cmplwi 7,11,47
	.loc 3 1700 0
	addi 30,9,8
.LVL577:
	.loc 3 1619 0
	bgt- 7,.L224
.L245:
	slwi 11,11,2
	lwzx 0,29,11
	add 0,0,29
	mtctr 0
	bctr
	.section	.rodata
	.align 2
	.align 2
.L232:
	.long .L225-.L232
	.long .L226-.L232
	.long .L224-.L232
	.long .L224-.L232
	.long .L224-.L232
	.long .L224-.L232
	.long .L224-.L232
	.long .L224-.L232
	.long .L224-.L232
	.long .L224-.L232
	.long .L224-.L232
	.long .L224-.L232
	.long .L224-.L232
	.long .L224-.L232
	.long .L224-.L232
	.long .L224-.L232
	.long .L227-.L232
	.long .L228-.L232
	.long .L229-.L232
	.long .L224-.L232
	.long .L224-.L232
	.long .L224-.L232
	.long .L224-.L232
	.long .L224-.L232
	.long .L224-.L232
	.long .L224-.L232
	.long .L224-.L232
	.long .L224-.L232
	.long .L224-.L232
	.long .L224-.L232
	.long .L224-.L232
	.long .L230-.L232
	.long .L230-.L232
	.long .L224-.L232
	.long .L224-.L232
	.long .L224-.L232
	.long .L224-.L232
	.long .L224-.L232
	.long .L224-.L232
	.long .L224-.L232
	.long .L224-.L232
	.long .L224-.L232
	.long .L224-.L232
	.long .L224-.L232
	.long .L224-.L232
	.long .L224-.L232
	.long .L224-.L232
	.long .L231-.L232
	.section	".text"
.L229:
	.loc 3 1675 0
	cmpw 7,7,6
	.loc 3 1658 0
	stw 26,1096(31)
	.loc 3 1675 0
	blt+ 7,.L237
.LVL578:
.L244:
	.loc 3 1676 0
	lbz 0,1196(31)
	cmpwi 7,0,0
	bne- 7,.L242
	.loc 3 1679 0
	li 0,2
	stw 0,1080(31)
.L219:
.LBE737:
.LBE736:
.LBE735:
	.loc 3 1708 0
	lwz 0,44(1)
	lwz 24,8(1)
	mtlr 0
	lwz 25,12(1)
	lwz 26,16(1)
	lwz 27,20(1)
	lwz 28,24(1)
	lwz 29,28(1)
	lwz 30,32(1)
	lwz 31,36(1)
.LVL579:
	addi 1,1,40
	.cfi_remember_state
.LCFI61:
	.cfi_def_cfa_offset 0
	.cfi_restore 31
	.cfi_restore 30
	.cfi_restore 29
	.cfi_restore 28
	.cfi_restore 27
	.cfi_restore 26
	.cfi_restore 25
	.cfi_restore 24
	blr
.LVL580:
.L231:
.LCFI62:
	.cfi_restore_state
.LBB746:
.LBB742:
.LBB738:
	.loc 3 1654 0
	lwz 0,1148(31)
	.loc 3 1655 0
	stw 26,1096(31)
	.loc 3 1654 0
	cntlzw 0,0
	srwi 0,0,5
	xori 0,0,1
	stb 0,1200(31)
	b .L230
.L228:
	.loc 3 1661 0
	lwz 0,1104(31)
	cmpwi 7,0,0
	bne+ 7,.L230
	.loc 3 1662 0
	lwz 0,1160(31)
	.loc 3 1663 0
	mr 4,30
	lwz 5,1096(31)
	.loc 3 1662 0
	stw 0,1144(31)
	.loc 3 1663 0
	lwz 3,1192(31)
	bl _Z8JPEGBlitPhS_i
	.loc 3 1664 0
	lwz 9,1132(31)
	lwz 5,1108(31)
	lwz 0,1192(31)
	mullw 5,5,9
	lwz 3,1116(31)
	mr 4,0
	add 3,0,3
	bl memcpy
	.loc 3 1665 0
	lwz 9,1104(31)
	lwz 7,1088(31)
	addi 0,9,1
	lwz 6,1092(31)
	stw 0,1104(31)
	b .L230
.L227:
	.loc 3 1622 0
	lwz 0,1104(31)
	andi. 9,0,1
	bne- 0,.L246
	.loc 3 1628 0
	lwz 0,1160(31)
	.loc 3 1629 0
	mr 3,31
	lwz 4,1152(31)
	lwz 5,1156(31)
	.loc 3 1628 0
	stw 0,1144(31)
	.loc 3 1629 0
	bl _ZN16idCinematicLocal12RoQPrepMcompEll
	.loc 3 1630 0
	lwz 4,1028(31)
	mr 3,31
	mr 5,30
	bl _ZN16idCinematicLocal14blitVQQuad32fsEPPhS0_
	.loc 3 1633 0
	lwz 9,1104(31)
	.loc 3 1631 0
	lwz 4,1192(31)
	.loc 3 1633 0
	cmpwi 7,9,0
	.loc 3 1631 0
	stw 4,1120(31)
	.loc 3 1633 0
	beq- 7,.L247
.L235:
	.loc 3 1636 0
	addi 9,9,1
	.loc 3 1637 0
	stb 25,1197(31)
	.loc 3 1636 0
	stw 9,1104(31)
	lwz 7,1088(31)
	lwz 6,1092(31)
	b .L230
.L226:
	.loc 3 1640 0
	lhz 5,1150(31)
	mr 3,31
	mr 4,30
	bl _ZN16idCinematicLocal14decodeCodeBookEPht
	lwz 7,1088(31)
	lwz 6,1092(31)
	b .L230
.L225:
	.loc 3 1647 0
	lwz 0,1104(31)
	cmpwi 7,0,-1
	beq- 7,.L248
.L236:
	.loc 3 1651 0
	cmpwi 7,0,1
	beq- 7,.L230
	stw 26,1104(31)
	b .L230
.L246:
	.loc 3 1623 0
	lwz 0,1164(31)
	.loc 3 1624 0
	mr 3,31
	lwz 4,1152(31)
	.loc 3 1623 0
	stw 0,1144(31)
	.loc 3 1624 0
	lwz 5,1156(31)
	bl _ZN16idCinematicLocal12RoQPrepMcompEll
	.loc 3 1625 0
	lwz 4,1032(31)
	mr 3,31
	mr 5,30
	bl _ZN16idCinematicLocal14blitVQQuad32fsEPPhS0_
	.loc 3 1633 0
	lwz 9,1104(31)
	.loc 3 1626 0
	lwz 4,1192(31)
	.loc 3 1633 0
	cmpwi 7,9,0
	.loc 3 1626 0
	lwz 0,1116(31)
	add 0,4,0
	stw 0,1120(31)
	.loc 3 1633 0
	bne+ 7,.L235
.L247:
	.loc 3 1634 0
	lwz 5,1108(31)
	lwz 0,1132(31)
	lwz 3,1116(31)
	mullw 5,5,0
	add 3,4,3
	bl memcpy
	lwz 9,1104(31)
	b .L235
.LVL581:
.L239:
	.loc 3 1692 0
	lis 9,common@ha
.LVL582:
	lis 4,.LC11@ha
	lwz 3,common@l(9)
	la 4,.LC11@l(4)
	lwz 9,0(3)
	lwz 0,76(9)
	mtctr 0
	crxor 6,6,6
	bctrl
	.loc 3 1694 0
	lbz 0,1196(31)
	cmpwi 7,0,0
	.loc 3 1693 0
	li 0,2
	stw 0,1080(31)
	.loc 3 1694 0
	beq+ 7,.L219
.LVL583:
.L242:
.LBE738:
.LBE742:
.LBE746:
	.loc 3 1708 0
	lwz 0,44(1)
.LBB747:
.LBB743:
.LBB739:
	.loc 3 1695 0
	mr 3,31
.LBE739:
.LBE743:
.LBE747:
	.loc 3 1708 0
	lwz 24,8(1)
	lwz 25,12(1)
	mtlr 0
	lwz 26,16(1)
	lwz 27,20(1)
	lwz 28,24(1)
	lwz 29,28(1)
	lwz 30,32(1)
	lwz 31,36(1)
.LVL584:
	addi 1,1,40
	.cfi_remember_state
.LCFI63:
	.cfi_def_cfa_offset 0
	.cfi_restore 31
	.cfi_restore 30
	.cfi_restore 29
	.cfi_restore 28
	.cfi_restore 27
	.cfi_restore 26
	.cfi_restore 25
	.cfi_restore 24
.LBB748:
.LBB744:
.LBB740:
	.loc 3 1695 0
	b _ZN16idCinematicLocal8RoQResetEv
.LVL585:
.L241:
.LCFI64:
	.cfi_restore_state
	.loc 3 1707 0
	addi 10,10,8
	add 7,10,7
	stw 7,1088(31)
.LBE740:
.LBE744:
.LBE748:
	.loc 3 1708 0
	lwz 0,44(1)
	lwz 24,8(1)
	mtlr 0
	lwz 25,12(1)
	lwz 26,16(1)
	lwz 27,20(1)
	lwz 28,24(1)
	lwz 29,28(1)
	lwz 30,32(1)
	lwz 31,36(1)
.LVL586:
	addi 1,1,40
	.cfi_remember_state
	.cfi_restore 24
	.cfi_restore 25
	.cfi_restore 26
	.cfi_restore 27
	.cfi_restore 28
	.cfi_restore 29
	.cfi_restore 30
	.cfi_restore 31
.LCFI65:
	.cfi_def_cfa_offset 0
	blr
.LVL587:
.L248:
.LCFI66:
	.cfi_restore_state
.LBB749:
.LBB745:
.LBB741:
	.loc 3 1648 0
	mr 4,30
	mr 3,31
	bl _ZN16idCinematicLocal12readQuadInfoEPh
	.loc 3 1649 0
	mr 3,31
	li 4,0
	li 5,0
	bl _ZN16idCinematicLocal9setupQuadEll
	lwz 0,1104(31)
	lwz 7,1088(31)
	lwz 6,1092(31)
	b .L236
.LBE741:
.LBE745:
.LBE749:
	.cfi_endproc
.LFE2610:
	.size	_ZN16idCinematicLocal12RoQInterruptEv, .-_ZN16idCinematicLocal12RoQInterruptEv
	.align 2
	.globl _ZN16idCinematicLocal11RoQShutdownEv
	.type	_ZN16idCinematicLocal11RoQShutdownEv, @function
_ZN16idCinematicLocal11RoQShutdownEv:
.LFB2612:
	.loc 3 1736 0
	.cfi_startproc
.LVL588:
	mflr 0
	stwu 1,-16(1)
.LCFI67:
	.cfi_def_cfa_offset 16
	.cfi_register 65, 0
	stw 31,12(1)
	mr 31,3
	.cfi_offset 31, -4
	stw 0,20(1)
	stw 30,8(1)
	.loc 3 1737 0
	lwz 0,1080(3)
	.cfi_offset 30, -8
	.cfi_offset 65, 4
	cmpwi 7,0,0
	beq- 7,.L249
.LVL589:
.LBB752:
.LBB753:
	.loc 3 1742 0
	lwz 4,1076(3)
	.loc 3 1740 0
	li 30,0
	stw 30,1080(3)
	.loc 3 1742 0
	cmpwi 7,4,0
	beq- 7,.L251
	.loc 3 1743 0
	lis 9,fileSystem@ha
	lwz 3,fileSystem@l(9)
.LVL590:
	lwz 9,0(3)
	lwz 0,136(9)
	mtctr 0
	bctrl
	.loc 3 1744 0
	stw 30,1076(31)
.L251:
	.loc 3 1747 0
	lis 4,.LC12@ha
	addi 3,31,1036
	la 4,.LC12@l(4)
	bl _ZN5idStraSEPKc
.LVL591:
.L249:
.LBE753:
.LBE752:
	.loc 3 1748 0
	lwz 0,20(1)
	lwz 30,8(1)
	mtlr 0
	lwz 31,12(1)
.LVL592:
	addi 1,1,16
.LCFI68:
	.cfi_def_cfa_offset 0
	.cfi_restore 31
	.cfi_restore 30
	blr
	.cfi_endproc
.LFE2612:
	.size	_ZN16idCinematicLocal11RoQShutdownEv, .-_ZN16idCinematicLocal11RoQShutdownEv
	.align 2
	.globl _ZN16idCinematicLocal12ImageForTimeEi
	.type	_ZN16idCinematicLocal12ImageForTimeEi, @function
_ZN16idCinematicLocal12ImageForTimeEi:
.LFB2589:
	.loc 3 394 0
	.cfi_startproc
.LVL593:
	mflr 0
	stwu 1,-40(1)
.LCFI69:
	.cfi_def_cfa_offset 40
	.cfi_register 65, 0
.LBB754:
.LBB755:
.LBB756:
	.loc 3 403 0
	lis 9,r_skipROQ+44@ha
.LBE756:
.LBE755:
.LBE754:
	.loc 3 394 0
	stw 30,32(1)
	mr 30,4
	.cfi_offset 30, -8
.LVL594:
	stw 0,44(1)
.LBB759:
	.loc 3 401 0
	li 0,0
	.cfi_offset 65, 4
.LBE759:
	.loc 3 394 0
	stw 31,36(1)
	mr 31,3
	.cfi_offset 31, -4
	stw 29,28(1)
.LBB760:
.LBB758:
.LBB757:
	.file 5 "d:/Data/Nintendo/DoomGX/src/renderer/../idlib/../framework/CVarSystem.h"
	.loc 5 142 0
	lwz 9,r_skipROQ+44@l(9)
.LBE757:
.LBE758:
	.loc 3 401 0
	stw 0,0(3)
	.loc 3 403 0
	lwz 9,36(9)
	.loc 3 401 0
	stw 0,4(3)
	.loc 3 403 0
	cmpwi 7,9,0
	.loc 3 401 0
	stw 0,8(3)
	stw 0,12(3)
	.loc 3 403 0
	bne- 7,.L252
	.cfi_offset 29, -12
	.loc 3 407 0
	lwz 0,1080(4)
	cmpwi 7,0,2
	beq- 7,.L252
	.loc 3 407 0 is_stmt 0 discriminator 1
	cmpwi 7,0,0
	beq- 7,.L252
	.loc 3 411 0 is_stmt 1
	lwz 0,1120(4)
	.loc 3 407 0
	nor 29,5,5
	srawi 29,29,31
	.loc 3 411 0
	cmpwi 7,0,0
	.loc 3 407 0
	and 29,5,29
	.loc 3 412 0
	lwz 0,1184(4)
	.loc 3 411 0
	beq- 7,.L255
	.loc 3 411 0 is_stmt 0 discriminator 1
	cmpwi 7,0,-1
	beq- 7,.L256
	.loc 3 411 0
	subf 0,0,29
	lis 9,.LC4@ha
	xoris 0,0,0x8000
	lfs 0,.LC4@l(9)
	stw 0,12(1)
	lis 0,0x4330
	stw 0,8(1)
	lfd 13,8(1)
	fsub 0,13,0
	frsp 0,0
.LVL595:
.L257:
	.loc 3 418 0 is_stmt 1
	lfs 13,1188(30)
	lis 9,.LC0@ha
	fmuls 0,0,13
	lfs 13,.LC0@l(9)
	addi 9,1,16
	fdivs 0,0,13
	fctiwz 0,0
	stfiwx 0,0,9
	lwz 0,16(1)
	.loc 3 420 0
	cmpwi 7,0,0
	.loc 3 418 0
	stw 0,1084(30)
	.loc 3 420 0
	blt- 7,.L293
.L259:
	.loc 3 424 0
	lwz 9,1104(30)
	cmpw 7,9,0
	bgt- 7,.L260
	.loc 3 430 0
	lwz 0,1120(30)
	cmpwi 7,0,0
	beq- 7,.L281
	.loc 3 435 0 discriminator 1
	lwz 0,1084(30)
	cmpw 7,0,9
	lwz 0,1080(30)
	beq- 7,.L264
.L288:
	.loc 3 435 0 is_stmt 0 discriminator 2
	cmpwi 7,0,1
	beq- 7,.L294
.L264:
	.loc 3 440 0 is_stmt 1
	cmpwi 7,0,5
	beq- 7,.L295
.L268:
	.loc 3 448 0
	cmpwi 7,0,2
	beq- 7,.L272
.L290:
	.loc 3 461 0
	lwz 10,1120(30)
.L273:
	.loc 3 465 0
	lwz 11,1068(30)
	.loc 3 466 0
	lwz 9,1072(30)
	.loc 3 465 0
	stw 11,0(31)
	.loc 3 466 0
	stw 9,4(31)
	.loc 3 467 0
	stw 0,12(31)
	.loc 3 468 0
	stw 10,8(31)
.L252:
.LBE760:
	.loc 3 471 0
	lwz 0,44(1)
	mr 3,31
	lwz 29,28(1)
	mtlr 0
	lwz 30,32(1)
.LVL596:
	lwz 31,36(1)
.LVL597:
	addi 1,1,40
	.cfi_remember_state
.LCFI70:
	.cfi_def_cfa_offset 0
	.cfi_restore 31
	.cfi_restore 30
	.cfi_restore 29
	blr
.LVL598:
.L260:
.LCFI71:
	.cfi_restore_state
.LBB761:
	.loc 3 425 0
	mr 3,30
	bl _ZN16idCinematicLocal8RoQResetEv
	.loc 3 426 0
	li 0,0
	stw 0,1120(30)
	.loc 3 427 0
	li 0,1
	stw 0,1080(30)
.L281:
	.loc 3 432 0
	mr 3,30
	bl _ZN16idCinematicLocal12RoQInterruptEv
	.loc 3 431 0
	lwz 0,1120(30)
	cmpwi 7,0,0
	beq+ 7,.L281
.L289:
	.loc 3 435 0
	lwz 0,1080(30)
	b .L264
.L272:
	.loc 3 449 0
	lbz 0,1196(30)
	cmpwi 7,0,0
	beq- 7,.L274
	.loc 3 450 0
	mr 3,30
	bl _ZN16idCinematicLocal8RoQResetEv
	.loc 3 452 0
	lwz 0,1080(30)
	.loc 3 451 0
	li 9,0
	.loc 3 452 0
	cmpwi 7,0,5
	.loc 3 451 0
	stw 9,1120(30)
	.loc 3 452 0
	beq- 7,.L296
	.loc 3 455 0
	cmpwi 7,0,1
	li 10,0
	beq- 7,.L280
.L277:
	.loc 3 458 0
	stw 29,1184(30)
	b .L273
.L294:
	.loc 3 436 0 discriminator 5
	mr 3,30
	bl _ZN16idCinematicLocal12RoQInterruptEv
	.loc 3 435 0 discriminator 5
	lwz 9,1084(30)
	lwz 0,1104(30)
	cmpw 7,9,0
	beq- 7,.L289
	.loc 3 435 0 is_stmt 0 discriminator 2
	lwz 0,1080(30)
	b .L288
.L295:
	.loc 3 442 0 is_stmt 1
	lwz 0,1120(30)
	cmpwi 7,0,0
	.loc 3 441 0
	li 0,1
	stw 0,1080(30)
	.loc 3 442 0
	beq- 7,.L285
.L270:
	.loc 3 445 0
	stw 29,1184(30)
	b .L268
.L293:
	.loc 3 421 0
	li 0,0
	stw 0,1084(30)
	b .L259
.LVL599:
.L255:
	.loc 3 412 0
	cmpwi 7,0,-1
	bne+ 7,.L258
.L256:
	.loc 3 413 0
	mr 3,30
	bl _ZN16idCinematicLocal8RoQResetEv
.LVL600:
.L258:
	.loc 3 415 0
	lis 9,.LC13@ha
	stw 29,1184(30)
	lfs 0,.LC13@l(9)
	b .L257
.L274:
	.loc 3 460 0
	stw 0,1080(30)
	.loc 3 461 0
	mr 3,30
	bl _ZN16idCinematicLocal11RoQShutdownEv
	lwz 0,1080(30)
	b .L290
.L285:
	.loc 3 443 0 discriminator 5
	mr 3,30
	bl _ZN16idCinematicLocal12RoQInterruptEv
	.loc 3 442 0 discriminator 5
	lwz 0,1120(30)
	cmpwi 7,0,0
	lwz 0,1080(30)
	bne+ 7,.L270
	.loc 3 442 0 is_stmt 0 discriminator 2
	cmpwi 7,0,1
	beq- 7,.L285
	.loc 3 445 0 is_stmt 1
	stw 29,1184(30)
	b .L268
.L296:
	.loc 3 453 0
	li 0,1
	stw 0,1080(30)
.L280:
	.loc 3 456 0 discriminator 5
	mr 3,30
	bl _ZN16idCinematicLocal12RoQInterruptEv
	.loc 3 455 0 discriminator 5
	lwz 10,1120(30)
	lwz 0,1080(30)
	cmpwi 7,10,0
	bne+ 7,.L277
	.loc 3 455 0 is_stmt 0 discriminator 2
	cmpwi 7,0,1
	beq- 7,.L280
	.loc 3 458 0 is_stmt 1
	stw 29,1184(30)
	b .L273
.LBE761:
	.cfi_endproc
.LFE2589:
	.size	_ZN16idCinematicLocal12ImageForTimeEi, .-_ZN16idCinematicLocal12ImageForTimeEi
	.align 2
	.globl _ZN16idCinematicLocal5CloseEv
	.type	_ZN16idCinematicLocal5CloseEv, @function
_ZN16idCinematicLocal5CloseEv:
.LFB2586:
	.loc 3 360 0
	.cfi_startproc
.LVL601:
	mflr 0
	stwu 1,-16(1)
.LCFI72:
	.cfi_def_cfa_offset 16
	.cfi_register 65, 0
	stw 31,12(1)
	mr 31,3
	.cfi_offset 31, -4
	stw 0,20(1)
	.loc 3 361 0
	lwz 3,1192(3)
.LVL602:
	cmpwi 7,3,0
	beq- 7,.L298
	.cfi_offset 65, 4
	.loc 3 362 0
	bl _Z8Mem_FreePv
	.loc 3 363 0
	li 0,0
	stw 0,1192(31)
	.loc 3 364 0
	stw 0,1120(31)
	.loc 3 365 0
	li 0,2
	stw 0,1080(31)
.L298:
	.loc 3 368 0
	lwz 0,20(1)
	.loc 3 367 0
	mr 3,31
	.loc 3 368 0
	lwz 31,12(1)
.LVL603:
	mtlr 0
	addi 1,1,16
.LCFI73:
	.cfi_def_cfa_offset 0
	.cfi_restore 31
	.loc 3 367 0
	b _ZN16idCinematicLocal11RoQShutdownEv
.LVL604:
	.cfi_endproc
.LFE2586:
	.size	_ZN16idCinematicLocal5CloseEv, .-_ZN16idCinematicLocal5CloseEv
	.align 2
	.globl _ZN16idCinematicLocalD2Ev
	.type	_ZN16idCinematicLocalD2Ev, @function
_ZN16idCinematicLocalD2Ev:
.LFB2582:
	.loc 3 290 0
	.cfi_startproc
	.cfi_personality 0,__gxx_personality_v0
	.cfi_lsda 0,.LLSDA2582
.LVL605:
	mflr 0
	stwu 1,-16(1)
.LCFI74:
	.cfi_def_cfa_offset 16
	.cfi_register 65, 0
.LBB762:
	lis 9,_ZTV16idCinematicLocal+8@ha
.LBE762:
	stw 31,12(1)
	mr 31,3
	.cfi_offset 31, -4
	stw 0,20(1)
.LBB778:
	la 0,_ZTV16idCinematicLocal+8@l(9)
	.cfi_offset 65, 4
.LBE778:
	stw 30,8(1)
.LBB779:
	.loc 3 290 0
	stw 0,0(3)
.LEHB8:
	.loc 3 291 0
	.cfi_offset 30, -8
	bl _ZN16idCinematicLocal5CloseEv
.LVL606:
	.loc 3 293 0
	lwz 3,1028(31)
	bl _Z8Mem_FreePv
	.loc 3 294 0
	li 0,0
	.loc 3 295 0
	lwz 3,1032(31)
	.loc 3 294 0
	stw 0,1028(31)
	.loc 3 295 0
	bl _Z8Mem_FreePv
.LEHE8:
	.loc 3 296 0
	li 0,0
.LBB763:
.LBB764:
.LBB765:
	.loc 4 501 0
	addi 3,31,1036
.LBE765:
.LBE764:
.LBE763:
	.loc 3 296 0
	stw 0,1032(31)
.LVL607:
.LEHB9:
.LBB768:
.LBB767:
.LBB766:
	.loc 4 501 0
	bl _ZN5idStr8FreeDataEv
.LEHE9:
.LVL608:
.LBE766:
.LBE767:
.LBE768:
.LBB769:
.LBB770:
.LBB771:
	.loc 3 215 0 discriminator 1
	lis 9,_ZTV11idCinematic+8@ha
	la 0,_ZTV11idCinematic+8@l(9)
	stw 0,0(31)
.LVL609:
.LBE771:
.LBE770:
.LBE769:
.LBE779:
	.loc 3 297 0 discriminator 1
	lwz 0,20(1)
	lwz 30,8(1)
	mtlr 0
	lwz 31,12(1)
.LVL610:
	addi 1,1,16
	.cfi_remember_state
.LCFI75:
	.cfi_def_cfa_offset 0
	.cfi_restore 31
	.cfi_restore 30
	blr
.LVL611:
.L307:
.LCFI76:
	.cfi_restore_state
	mr 30,3
.LVL612:
.LBB780:
.LBB772:
.LBB773:
.LBB774:
	.loc 4 501 0
	addi 3,31,1036
	bl _ZN5idStr8FreeDataEv
	mr 3,30
.LVL613:
.L305:
.LBE774:
.LBE773:
.LBE772:
.LBB775:
.LBB776:
.LBB777:
	.loc 3 215 0
	lis 9,_ZTV11idCinematic+8@ha
	la 0,_ZTV11idCinematic+8@l(9)
	stw 0,0(31)
.LVL614:
.LEHB10:
	bl _Unwind_Resume
.LEHE10:
.LVL615:
.L308:
	b .L305
.LBE777:
.LBE776:
.LBE775:
.LBE780:
	.cfi_endproc
.LFE2582:
	.section	.gcc_except_table
.LLSDA2582:
	.byte	0xff
	.byte	0xff
	.byte	0x1
	.uleb128 .LLSDACSE2582-.LLSDACSB2582
.LLSDACSB2582:
	.uleb128 .LEHB8-.LFB2582
	.uleb128 .LEHE8-.LEHB8
	.uleb128 .L307-.LFB2582
	.uleb128 0
	.uleb128 .LEHB9-.LFB2582
	.uleb128 .LEHE9-.LEHB9
	.uleb128 .L308-.LFB2582
	.uleb128 0
	.uleb128 .LEHB10-.LFB2582
	.uleb128 .LEHE10-.LEHB10
	.uleb128 0
	.uleb128 0
.LLSDACSE2582:
	.section	".text"
	.size	_ZN16idCinematicLocalD2Ev, .-_ZN16idCinematicLocalD2Ev
	.align 2
	.globl _ZN16idCinematicLocalD0Ev
	.type	_ZN16idCinematicLocalD0Ev, @function
_ZN16idCinematicLocalD0Ev:
.LFB2584:
	.loc 3 290 0
	.cfi_startproc
.LVL616:
	stwu 1,-16(1)
.LCFI77:
	.cfi_def_cfa_offset 16
	mflr 0
	stw 31,12(1)
	mr 31,3
	.cfi_offset 31, -4
	.cfi_register 65, 0
	stw 0,20(1)
	.loc 3 297 0
	.cfi_offset 65, 4
	bl _ZN16idCinematicLocalD1Ev
.LVL617:
	mr 3,31
	bl _ZdlPv
	lwz 0,20(1)
	lwz 31,12(1)
.LVL618:
	mtlr 0
	addi 1,1,16
.LCFI78:
	.cfi_def_cfa_offset 0
	.cfi_restore 31
	blr
	.cfi_endproc
.LFE2584:
	.size	_ZN16idCinematicLocalD0Ev, .-_ZN16idCinematicLocalD0Ev
	.align 2
	.globl _ZN16idCinematicLocal12InitFromFileEPKcb
	.type	_ZN16idCinematicLocal12InitFromFileEPKcb, @function
_ZN16idCinematicLocal12InitFromFileEPKcb:
.LFB2585:
	.loc 3 304 0
	.cfi_startproc
.LVL619:
	mflr 0
	stwu 1,-48(1)
.LCFI79:
	.cfi_def_cfa_offset 48
	.cfi_register 65, 0
	stw 29,36(1)
	mr 29,4
	.cfi_offset 29, -12
	stw 30,40(1)
	mr 30,5
	.cfi_offset 30, -8
	stw 31,44(1)
	mr 31,3
	.cfi_offset 31, -4
	stw 0,52(1)
.LBB781:
	.loc 3 307 0
	lwz 9,0(3)
	lwz 0,20(9)
	.cfi_offset 65, 4
	mtctr 0
	bctrl
.LVL620:
	.loc 3 309 0
	li 0,0
	stb 0,1200(31)
	.loc 3 310 0
	lis 0,0x1
	ori 0,0,34464
	.loc 3 312 0
	mr 3,29
	.loc 3 310 0
	stw 0,1180(31)
	.loc 3 312 0
	li 4,47
	bl strchr
	cmpwi 7,3,0
	beq- 7,.L318
.L312:
	.loc 3 315 0
	lis 4,.LC15@ha
	addi 3,31,1036
	la 4,.LC15@l(4)
	mr 5,29
	crxor 6,6,6
	bl _Z7sprintfR5idStrPKcz
.L313:
	.loc 3 318 0
	lis 9,fileSystem@ha
	lwz 4,1040(31)
	lwz 3,fileSystem@l(9)
.LVL621:
	li 5,1
	li 6,0
	.loc 3 321 0
	li 29,0
.LVL622:
	.loc 3 318 0
	lwz 9,0(3)
	lwz 0,112(9)
	mtctr 0
	bctrl
	.loc 3 320 0
	cmpwi 7,3,0
	.loc 3 318 0
	stw 3,1076(31)
	.loc 3 320 0
	beq- 7,.L314
	.loc 3 324 0
	lwz 9,0(3)
	lwz 0,28(9)
	mtctr 0
	bctrl
	.loc 3 328 0
	li 0,512
	stw 0,1072(31)
	.loc 3 334 0
	li 5,16
	.loc 3 329 0
	stw 0,1068(31)
	.loc 3 330 0
	li 0,4
	.loc 3 324 0
	stw 3,1092(31)
	.loc 3 326 0
	stb 30,1196(31)
	.loc 3 334 0
	lis 30,.LANCHOR0@ha
	.loc 3 330 0
	stw 0,1124(31)
	.loc 3 334 0
	la 30,.LANCHOR0@l(30)
	.loc 3 331 0
	stw 29,1184(31)
	.loc 3 332 0
	stw 29,1120(31)
	.loc 3 334 0
	lwz 3,1076(31)
	lwz 4,5120(30)
	lwz 9,0(3)
	lwz 0,20(9)
	mtctr 0
	bctrl
	.loc 3 336 0
	lwz 9,5120(30)
	.loc 3 338 0
	lbz 11,6(9)
	.loc 3 336 0
	lbz 0,1(9)
	lbz 9,0(9)
	.loc 3 338 0
	stw 11,28(1)
	lis 11,0x4330
	stw 11,24(1)
	lis 11,.LC17@ha
	lfs 0,.LC17@l(11)
	.loc 3 336 0
	slwi 0,0,8
	.loc 3 338 0
	lfd 13,24(1)
	.loc 3 336 0
	add 0,0,9
	.loc 3 339 0
	lis 9,.LC6@ha
	.loc 3 336 0
	rlwinm 0,0,0,0xffff
.LVL623:
	.loc 3 338 0
	fsub 0,13,0
	.loc 3 339 0
	lfs 13,.LC6@l(9)
	.loc 3 338 0
	frsp 0,0
	.loc 3 339 0
	fcmpu 7,0,13
	.loc 3 338 0
	stfs 0,1188(31)
	.loc 3 339 0
	beq- 7,.L319
	.loc 3 343 0
	cmpwi 7,0,4228
	.loc 3 344 0
	mr 3,31
	.loc 3 343 0
	beq- 7,.L320
.L316:
	.loc 3 351 0
	bl _ZN16idCinematicLocal11RoQShutdownEv
.LVL624:
	.loc 3 352 0
	li 29,0
.L314:
.LBE781:
	.loc 3 353 0
	lwz 0,52(1)
	mr 3,29
	lwz 30,40(1)
	mtlr 0
	lwz 29,36(1)
	lwz 31,44(1)
.LVL625:
	addi 1,1,48
	.cfi_remember_state
.LCFI80:
	.cfi_def_cfa_offset 0
	.cfi_restore 31
	.cfi_restore 30
	.cfi_restore 29
	blr
.LVL626:
.L319:
.LCFI81:
	.cfi_restore_state
.LBB782:
	.loc 3 343 0
	cmpwi 7,0,4228
	.loc 3 340 0
	lis 9,.LC18@ha
	lwz 9,.LC18@l(9)
	.loc 3 344 0
	mr 3,31
	.loc 3 340 0
	stw 9,1188(31)
	.loc 3 343 0
	bne+ 7,.L316
.L320:
	.loc 3 344 0
	bl _ZN16idCinematicLocal8RoQ_initEv
.LVL627:
	.loc 3 345 0
	li 0,1
	stw 0,1080(31)
	.loc 3 346 0
	addi 3,1,8
	lwz 9,0(31)
	mr 4,31
	li 5,0
	.loc 3 348 0
	li 29,1
	.loc 3 346 0
	lwz 0,16(9)
	mtctr 0
	bctrl
	.loc 3 347 0
	lbz 0,1196(31)
.LBE782:
	.loc 3 353 0
	mr 3,29
.LBB783:
	.loc 3 347 0
	stw 0,1080(31)
.LBE783:
	.loc 3 353 0
	lwz 0,52(1)
	lwz 29,36(1)
	mtlr 0
	lwz 30,40(1)
	lwz 31,44(1)
.LVL628:
	addi 1,1,48
	.cfi_remember_state
	.cfi_restore 29
	.cfi_restore 30
	.cfi_restore 31
.LCFI82:
	.cfi_def_cfa_offset 0
	blr
.LVL629:
.L318:
.LCFI83:
	.cfi_restore_state
.LBB784:
	.loc 3 312 0 discriminator 1
	mr 3,29
	li 4,92
	bl strchr
	cmpwi 7,3,0
	bne+ 7,.L312
	.loc 3 313 0
	lis 4,.LC14@ha
	addi 3,31,1036
	la 4,.LC14@l(4)
	mr 5,29
	crxor 6,6,6
	bl _Z7sprintfR5idStrPKcz
	b .L313
.LBE784:
	.cfi_endproc
.LFE2585:
	.size	_ZN16idCinematicLocal12InitFromFileEPKcb, .-_ZN16idCinematicLocal12InitFromFileEPKcb
	.weak	_ZTS9idWinding
	.section	.rodata._ZTS9idWinding,"aG",@progbits,_ZTS9idWinding,comdat
	.align 2
	.type	_ZTS9idWinding, @object
	.size	_ZTS9idWinding, 11
_ZTS9idWinding:
	.string	"9idWinding"
	.weak	_ZTI9idWinding
	.section	.sdata._ZTI9idWinding,"awG",@progbits,_ZTI9idWinding,comdat
	.align 2
	.type	_ZTI9idWinding, @object
	.size	_ZTI9idWinding, 8
_ZTI9idWinding:
	.long	_ZTVN10__cxxabiv117__class_type_infoE+8
	.long	_ZTS9idWinding
	.weak	_ZTS14idFixedWinding
	.section	.rodata._ZTS14idFixedWinding,"aG",@progbits,_ZTS14idFixedWinding,comdat
	.align 2
	.type	_ZTS14idFixedWinding, @object
	.size	_ZTS14idFixedWinding, 17
_ZTS14idFixedWinding:
	.string	"14idFixedWinding"
	.weak	_ZTI14idFixedWinding
	.section	.rodata._ZTI14idFixedWinding,"aG",@progbits,_ZTI14idFixedWinding,comdat
	.align 2
	.type	_ZTI14idFixedWinding, @object
	.size	_ZTI14idFixedWinding, 12
_ZTI14idFixedWinding:
	.long	_ZTVN10__cxxabiv120__si_class_type_infoE+8
	.long	_ZTS14idFixedWinding
	.long	_ZTI9idWinding
	.weak	_ZTS11idCinematic
	.section	.rodata._ZTS11idCinematic,"aG",@progbits,_ZTS11idCinematic,comdat
	.align 2
	.type	_ZTS11idCinematic, @object
	.size	_ZTS11idCinematic, 14
_ZTS11idCinematic:
	.string	"11idCinematic"
	.weak	_ZTI11idCinematic
	.section	.sdata._ZTI11idCinematic,"awG",@progbits,_ZTI11idCinematic,comdat
	.align 2
	.type	_ZTI11idCinematic, @object
	.size	_ZTI11idCinematic, 8
_ZTI11idCinematic:
	.long	_ZTVN10__cxxabiv117__class_type_infoE+8
	.long	_ZTS11idCinematic
	.weak	_ZTS11idSndWindow
	.section	.rodata._ZTS11idSndWindow,"aG",@progbits,_ZTS11idSndWindow,comdat
	.align 2
	.type	_ZTS11idSndWindow, @object
	.size	_ZTS11idSndWindow, 14
_ZTS11idSndWindow:
	.string	"11idSndWindow"
	.weak	_ZTI11idSndWindow
	.section	.rodata._ZTI11idSndWindow,"aG",@progbits,_ZTI11idSndWindow,comdat
	.align 2
	.type	_ZTI11idSndWindow, @object
	.size	_ZTI11idSndWindow, 12
_ZTI11idSndWindow:
	.long	_ZTVN10__cxxabiv120__si_class_type_infoE+8
	.long	_ZTS11idSndWindow
	.long	_ZTI11idCinematic
	.weak	_ZTS16idCinematicLocal
	.section	.rodata._ZTS16idCinematicLocal,"aG",@progbits,_ZTS16idCinematicLocal,comdat
	.align 2
	.type	_ZTS16idCinematicLocal, @object
	.size	_ZTS16idCinematicLocal, 19
_ZTS16idCinematicLocal:
	.string	"16idCinematicLocal"
	.weak	_ZTI16idCinematicLocal
	.section	.rodata._ZTI16idCinematicLocal,"aG",@progbits,_ZTI16idCinematicLocal,comdat
	.align 2
	.type	_ZTI16idCinematicLocal, @object
	.size	_ZTI16idCinematicLocal, 12
_ZTI16idCinematicLocal:
	.long	_ZTVN10__cxxabiv120__si_class_type_infoE+8
	.long	_ZTS16idCinematicLocal
	.long	_ZTI11idCinematic
	.weak	_ZTV9idWinding
	.section	.rodata._ZTV9idWinding,"aG",@progbits,_ZTV9idWinding,comdat
	.align 3
	.type	_ZTV9idWinding, @object
	.size	_ZTV9idWinding, 24
_ZTV9idWinding:
	.long	0
	.long	_ZTI9idWinding
	.long	_ZN9idWindingD1Ev
	.long	_ZN9idWindingD0Ev
	.long	_ZN9idWinding5ClearEv
	.long	_ZN9idWinding10ReAllocateEib
	.weak	_ZTV14idFixedWinding
	.section	.rodata._ZTV14idFixedWinding,"aG",@progbits,_ZTV14idFixedWinding,comdat
	.align 3
	.type	_ZTV14idFixedWinding, @object
	.size	_ZTV14idFixedWinding, 24
_ZTV14idFixedWinding:
	.long	0
	.long	_ZTI14idFixedWinding
	.long	_ZN14idFixedWindingD1Ev
	.long	_ZN14idFixedWindingD0Ev
	.long	_ZN14idFixedWinding5ClearEv
	.long	_ZN14idFixedWinding10ReAllocateEib
	.weak	_ZTV11idCinematic
	.section	.rodata._ZTV11idCinematic,"aG",@progbits,_ZTV11idCinematic,comdat
	.align 3
	.type	_ZTV11idCinematic, @object
	.size	_ZTV11idCinematic, 36
_ZTV11idCinematic:
	.long	0
	.long	_ZTI11idCinematic
	.long	_ZN11idCinematicD1Ev
	.long	_ZN11idCinematicD0Ev
	.long	_ZN11idCinematic12InitFromFileEPKcb
	.long	_ZN11idCinematic15AnimationLengthEv
	.long	_ZN11idCinematic12ImageForTimeEi
	.long	_ZN11idCinematic5CloseEv
	.long	_ZN11idCinematic9ResetTimeEi
	.weak	_ZTV16idCinematicLocal
	.section	.rodata._ZTV16idCinematicLocal,"aG",@progbits,_ZTV16idCinematicLocal,comdat
	.align 3
	.type	_ZTV16idCinematicLocal, @object
	.size	_ZTV16idCinematicLocal, 36
_ZTV16idCinematicLocal:
	.long	0
	.long	_ZTI16idCinematicLocal
	.long	_ZN16idCinematicLocalD1Ev
	.long	_ZN16idCinematicLocalD0Ev
	.long	_ZN16idCinematicLocal12InitFromFileEPKcb
	.long	_ZN16idCinematicLocal15AnimationLengthEv
	.long	_ZN16idCinematicLocal12ImageForTimeEi
	.long	_ZN16idCinematicLocal5CloseEv
	.long	_ZN16idCinematicLocal9ResetTimeEi
	.weak	_ZTV11idSndWindow
	.section	.rodata._ZTV11idSndWindow,"aG",@progbits,_ZTV11idSndWindow,comdat
	.align 3
	.type	_ZTV11idSndWindow, @object
	.size	_ZTV11idSndWindow, 36
_ZTV11idSndWindow:
	.long	0
	.long	_ZTI11idSndWindow
	.long	_ZN11idSndWindowD1Ev
	.long	_ZN11idSndWindowD0Ev
	.long	_ZN11idSndWindow12InitFromFileEPKcb
	.long	_ZN11idSndWindow15AnimationLengthEv
	.long	_ZN11idSndWindow12ImageForTimeEi
	.long	_ZN11idCinematic5CloseEv
	.long	_ZN11idCinematic9ResetTimeEi
	.globl jerr
	.weak	_ZN11idSndWindowD1Ev
	.set	_ZN11idSndWindowD1Ev,_ZN11idSndWindowD2Ev
	.globl _ZN11idCinematicD1Ev
	.set	_ZN11idCinematicD1Ev,_ZN11idCinematicD2Ev
	.weak	_ZN9idWindingD1Ev
	.set	_ZN9idWindingD1Ev,_ZN9idWindingD2Ev
	.weak	_ZN14idFixedWindingD1Ev
	.set	_ZN14idFixedWindingD1Ev,_ZN14idFixedWindingD2Ev
	.globl _ZN16idCinematicLocalC1Ev
	.set	_ZN16idCinematicLocalC1Ev,_ZN16idCinematicLocalC2Ev
	.globl _ZN16idCinematicLocalD1Ev
	.set	_ZN16idCinematicLocalD1Ev,_ZN16idCinematicLocalD2Ev
	.section	.rodata.cst4,"aM",@progbits,4
	.align 2
.LC0:
	.4byte	1148846080
.LC4:
	.4byte	1501560836
.LC5:
	.4byte	1113903333
.LC6:
	.4byte	1107296256
.LC7:
	.4byte	1110799548
.LC8:
	.4byte	-1053281506
.LC9:
	.4byte	-1044721183
.LC13:
	.4byte	0
.LC17:
	.4byte	1501560832
.LC18:
	.4byte	1106903040
	.section	.rodata.str1.4,"aMS",@progbits,1
	.align 2
.LC1:
	.string	"cinData_t idSndWindow::ImageForTime( int milliseconds )\r\n"
	.zero	2
.LC2:
	.string	"waveform"
	.zero	3
.LC10:
	.string	"idCinematicLocal::idCinematicLocal() size %d\r\n"
	.zero	1
.LC11:
	.string	"roq_size>65536||roq_id==0x1084\n"
.LC12:
	.string	""
	.zero	3
.LC14:
	.string	"video/%s"
	.zero	3
.LC15:
	.string	"%s"
	.section	".bss"
	.align 2
	.set	.LANCHOR0,. + 0
	.type	_ZL10ROQ_UB_tab, @object
	.size	_ZL10ROQ_UB_tab, 1024
_ZL10ROQ_UB_tab:
	.zero	1024
	.type	_ZL10ROQ_VR_tab, @object
	.size	_ZL10ROQ_VR_tab, 1024
_ZL10ROQ_VR_tab:
	.zero	1024
	.type	_ZL10ROQ_UG_tab, @object
	.size	_ZL10ROQ_UG_tab, 1024
_ZL10ROQ_UG_tab:
	.zero	1024
	.type	_ZL10ROQ_VG_tab, @object
	.size	_ZL10ROQ_VG_tab, 1024
_ZL10ROQ_VG_tab:
	.zero	1024
	.type	_ZL10ROQ_YY_tab, @object
	.size	_ZL10ROQ_YY_tab, 1024
_ZL10ROQ_YY_tab:
	.zero	1024
	.type	_ZL4file, @object
	.size	_ZL4file, 4
_ZL4file:
	.zero	4
	.type	_ZL3vq2, @object
	.size	_ZL3vq2, 4
_ZL3vq2:
	.zero	4
	.type	_ZL3vq4, @object
	.size	_ZL3vq4, 4
_ZL3vq4:
	.zero	4
	.type	_ZL3vq8, @object
	.size	_ZL3vq8, 4
_ZL3vq8:
	.zero	4
	.type	jerr, @object
	.size	jerr, 132
jerr:
	.zero	132
	.section	".text"
.Letext0:
	.file 6 "<built-in>"
	.file 7 "c:\\utils\\devkitpro\\devkitppc\\bin\\../lib/gcc/powerpc-eabi/4.6.3/include/stddef.h"
	.file 8 "c:\\utils\\devkitpro\\devkitppc\\bin\\../lib/gcc/powerpc-eabi/4.6.3/../../../../powerpc-eabi/include/sys/types.h"
	.file 9 "d:/Data/Nintendo/DoomGX/src/renderer/../idlib/../sys/sys_public.h"
	.file 10 "d:/Data/Nintendo/DoomGX/src/renderer/../idlib/../framework/Common.h"
	.file 11 "d:/Data/Nintendo/DoomGX/src/renderer/../idlib/../framework/FileSystem.h"
	.file 12 "d:/Data/Nintendo/DoomGX/src/renderer/../idlib/../idlib/Lib.h"
	.file 13 "d:/Data/Nintendo/DoomGX/src/renderer/../idlib/../idlib/CmdArgs.h"
	.file 14 "d:/Data/Nintendo/DoomGX/src/renderer/../idlib/../idlib/math/Random.h"
	.file 15 "d:/Data/Nintendo/DoomGX/src/renderer/../idlib/../idlib/math/Vector.h"
	.file 16 "d:/Data/Nintendo/DoomGX/src/renderer/../idlib/../idlib/math/Angles.h"
	.file 17 "d:/Data/Nintendo/DoomGX/src/renderer/../idlib/../idlib/math/Matrix.h"
	.file 18 "d:/Data/Nintendo/DoomGX/src/renderer/../idlib/../idlib/math/Quat.h"
	.file 19 "d:/Data/Nintendo/DoomGX/src/renderer/../idlib/../idlib/math/Rotation.h"
	.file 20 "d:/Data/Nintendo/DoomGX/src/renderer/../idlib/../idlib/math/Plane.h"
	.file 21 "d:/Data/Nintendo/DoomGX/src/renderer/../idlib/../idlib/containers/List.h"
	.file 22 "d:/Data/Nintendo/DoomGX/src/renderer/../idlib/../idlib/math/Ode.h"
	.file 23 "d:/Data/Nintendo/DoomGX/src/renderer/../idlib/../idlib/bv/Sphere.h"
	.file 24 "d:/Data/Nintendo/DoomGX/src/renderer/../idlib/../idlib/bv/Bounds.h"
	.file 25 "d:/Data/Nintendo/DoomGX/src/renderer/../idlib/../idlib/bv/Box.h"
	.file 26 "d:/Data/Nintendo/DoomGX/src/renderer/../idlib/../idlib/bv/Frustum.h"
	.file 27 "d:/Data/Nintendo/DoomGX/src/renderer/../idlib/../idlib/geometry/DrawVert.h"
	.file 28 "d:/Data/Nintendo/DoomGX/src/renderer/../idlib/../idlib/geometry/JointTransform.h"
	.file 29 "d:/Data/Nintendo/DoomGX/src/renderer/../idlib/../idlib/geometry/Surface.h"
	.file 30 "d:/Data/Nintendo/DoomGX/src/renderer/../idlib/../idlib/geometry/TraceModel.h"
	.file 31 "d:/Data/Nintendo/DoomGX/src/renderer/../idlib/../idlib/Token.h"
	.file 32 "d:/Data/Nintendo/DoomGX/src/renderer/../idlib/../idlib/Lexer.h"
	.file 33 "d:/Data/Nintendo/DoomGX/src/renderer/../idlib/../framework/File.h"
	.file 34 "d:/Data/Nintendo/DoomGX/src/renderer/../idlib/../idlib/Parser.h"
	.file 35 "d:/Data/Nintendo/DoomGX/src/renderer/../idlib/../idlib/containers/HashIndex.h"
	.file 36 "d:/Data/Nintendo/DoomGX/src/renderer/../idlib/../idlib/containers/StrList.h"
	.file 37 "d:/Data/Nintendo/DoomGX/src/renderer/../idlib/../idlib/containers/StrPool.h"
	.file 38 "d:/Data/Nintendo/DoomGX/src/renderer/../idlib/../idlib/containers/PlaneSet.h"
	.file 39 "d:/Data/Nintendo/DoomGX/src/renderer/../idlib/../idlib/Dict.h"
	.file 40 "d:/Data/Nintendo/DoomGX/src/renderer/../idlib/../idlib/LangDict.h"
	.file 41 "d:/Data/Nintendo/DoomGX/src/renderer/../idlib/../idlib/BitMsg.h"
	.file 42 "d:/Data/Nintendo/DoomGX/src/renderer/../idlib/../idlib/MapFile.h"
	.file 43 "d:/Data/Nintendo/DoomGX/src/renderer/../idlib/../framework/CmdSystem.h"
	.file 44 "d:/Data/Nintendo/DoomGX/src/renderer/../idlib/../framework/UsercmdGen.h"
	.file 45 "d:/Data/Nintendo/DoomGX/src/renderer/../idlib/../framework/DeclManager.h"
	.file 46 "d:/Data/Nintendo/DoomGX/src/renderer/../idlib/../framework/DeclParticle.h"
	.file 47 "d:/Data/Nintendo/DoomGX/src/renderer/../idlib/../renderer/RenderWorld.h"
	.file 48 "d:/Data/Nintendo/DoomGX/gl2gx/include/GL/gl.h"
	.file 49 "d:/Data/Nintendo/DoomGX/src/renderer/../idlib/../renderer/Material.h"
	.file 50 "d:/Data/Nintendo/DoomGX/src/renderer/Image.h"
	.file 51 "d:/Data/Nintendo/DoomGX/src/renderer/../idlib/../renderer/Model.h"
	.file 52 "d:/Data/Nintendo/DoomGX/src/renderer/VertexCache.h"
	.file 53 "d:/Data/Nintendo/DoomGX/src/renderer/../idlib/../renderer/RenderSystem.h"
	.file 54 "d:/Data/Nintendo/DoomGX/src/renderer/../idlib/../sound/sound.h"
	.file 55 "d:/Data/Nintendo/DoomGX/src/renderer/../idlib/../ui/UserInterface.h"
	.file 56 "d:/Data/Nintendo/DoomGX/src/renderer/../idlib/../cm/CollisionModel.h"
	.file 57 "d:/Data/Nintendo/DoomGX/src/renderer/../idlib/../tools/compilers/aas/AASFile.h"
	.file 58 "d:/Data/Nintendo/DoomGX/src/renderer/../idlib/../game/Game.h"
	.file 59 "d:/Data/Nintendo/DoomGX/src/renderer/../idlib/../framework/async/NetworkSystem.h"
	.file 60 "d:/Data/Nintendo/DoomGX/src/renderer/../idlib/../renderer/ModelManager.h"
	.file 61 "d:/Data/Nintendo/DoomGX/src/renderer/../idlib/../tools/compilers/aas/AASFileManager.h"
	.file 62 "d:/Data/Nintendo/DoomGX/src/renderer/../idlib/../framework/Session.h"
	.file 63 "d:/Data/Nintendo/DoomGX/src/renderer/../idlib/../ui/ListGUI.h"
	.file 64 "d:/Data/Nintendo/DoomGX/src/renderer/./jpeg-6/jpeglib.h"
	.file 65 "d:/Data/Nintendo/DoomGX/src/renderer/./jpeg-6/../jpeg-6/jmorecfg.h"
	.file 66 "d:/Data/Nintendo/DoomGX/src/renderer/./jpeg-6/../jpeg-6/jpegint.h"
	.file 67 "d:/Data/Nintendo/DoomGX/src/renderer/tr_local.h"
	.file 68 "d:/Data/Nintendo/DoomGX/src/renderer/../idlib/../framework/Console.h"
	.file 69 "d:/Data/Nintendo/DoomGX/src/renderer/../idlib/../idlib/math/Curve.h"
	.file 70 "d:/Data/Nintendo/DoomGX/src/renderer/../idlib/../idlib/math/Simd.h"
	.file 71 "d:/Data/Nintendo/DoomGX/src/renderer/../idlib/../framework/BuildVersion.h"
	.file 72 "d:/Data/Nintendo/DoomGX/src/renderer/../idlib/precompiled.h"
	.file 73 "d:/Data/Nintendo/DoomGX/src/renderer/../idlib/../framework/EventLoop.h"
	.file 74 "d:/Data/Nintendo/DoomGX/src/renderer/../idlib/../framework/EditField.h"
	.file 75 "d:/Data/Nintendo/DoomGX/src/renderer/../idlib/../framework/async/AsyncNetwork.h"
	.file 76 "d:/Data/Nintendo/DoomGX/src/renderer/../idlib/../framework/async/AsyncServer.h"
	.file 77 "d:/Data/Nintendo/DoomGX/src/renderer/MegaTexture.h"
	.file 78 "d:/Data/Nintendo/DoomGX/src/renderer/ModelDecal.h"
	.file 79 "d:/Data/Nintendo/DoomGX/src/renderer/ModelOverlay.h"
	.file 80 "d:/Data/Nintendo/DoomGX/src/renderer/RenderWorld_local.h"