	.file	"Class.cpp"
	.section	".text"
.Ltext0:
	.section	.text._ZN14idFixedWinding5ClearEv,"axG",@progbits,_ZN14idFixedWinding5ClearEv,comdat
	.align 2
	.weak	_ZN14idFixedWinding5ClearEv
	.type	_ZN14idFixedWinding5ClearEv, @function
_ZN14idFixedWinding5ClearEv:
.LFB1502:
	.file 1 "d:/Data/Nintendo/DoomGX/src/game/gamesys/../../idlib/../idlib/geometry/Winding.h"
	.loc 1 398 0
	.cfi_startproc
.LVL0:
	.loc 1 399 0
	li 0,0
	.loc 1 400 0
	.loc 1 399 0
	stw 0,4(3)
	.loc 1 400 0
	blr
	.cfi_endproc
.LFE1502:
	.size	_ZN14idFixedWinding5ClearEv, .-_ZN14idFixedWinding5ClearEv
	.section	.text._ZNK7idClass4SaveEP10idSaveGame,"axG",@progbits,_ZNK7idClass4SaveEP10idSaveGame,comdat
	.align 2
	.weak	_ZNK7idClass4SaveEP10idSaveGame
	.type	_ZNK7idClass4SaveEP10idSaveGame, @function
_ZNK7idClass4SaveEP10idSaveGame:
.LFB2574:
	.file 2 "d:/Data/Nintendo/DoomGX/src/game/gamesys/../gamesys/Class.h"
	.loc 2 198 0
	.cfi_startproc
.LVL1:
	.loc 2 198 0
	blr
	.cfi_endproc
.LFE2574:
	.size	_ZNK7idClass4SaveEP10idSaveGame, .-_ZNK7idClass4SaveEP10idSaveGame
	.section	.text._ZN7idClass7RestoreEP13idRestoreGame,"axG",@progbits,_ZN7idClass7RestoreEP13idRestoreGame,comdat
	.align 2
	.weak	_ZN7idClass7RestoreEP13idRestoreGame
	.type	_ZN7idClass7RestoreEP13idRestoreGame, @function
_ZN7idClass7RestoreEP13idRestoreGame:
.LFB2575:
	.loc 2 199 0
	.cfi_startproc
.LVL2:
	.loc 2 199 0
	blr
	.cfi_endproc
.LFE2575:
	.size	_ZN7idClass7RestoreEP13idRestoreGame, .-_ZN7idClass7RestoreEP13idRestoreGame
	.section	".text"
	.align 2
	.globl _ZNK7idClass7GetTypeEv
	.type	_ZNK7idClass7GetTypeEv, @function
_ZNK7idClass7GetTypeEv:
.LFB2819:
	.file 3 "d:/Data/Nintendo/DoomGX/src/game/gamesys/Class.cpp"
	.loc 3 232 0
	.cfi_startproc
.LVL3:
	.loc 3 232 0
	lis 3,.LANCHOR0@ha
.LVL4:
	la 3,.LANCHOR0@l(3)
	blr
	.cfi_endproc
.LFE2819:
	.size	_ZNK7idClass7GetTypeEv, .-_ZNK7idClass7GetTypeEv
	.align 2
	.globl _ZN7idClass5SpawnEv
	.type	_ZN7idClass5SpawnEv, @function
_ZN7idClass5SpawnEv:
.LFB2823:
	.loc 3 306 0
	.cfi_startproc
.LVL5:
	.loc 3 307 0
	blr
	.cfi_endproc
.LFE2823:
	.size	_ZN7idClass5SpawnEv, .-_ZN7idClass5SpawnEv
	.align 2
	.globl _ZN7idClass12Event_RemoveEv
	.type	_ZN7idClass12Event_RemoveEv, @function
_ZN7idClass12Event_RemoveEv:
.LFB2872:
	.loc 3 1047 0
	.cfi_startproc
.LVL6:
	.loc 3 1048 0
	mr. 9,3
	.loc 3 1047 0
	mflr 0
	stwu 1,-8(1)
.LCFI0:
	.cfi_def_cfa_offset 8
	.cfi_register 65, 0
	stw 0,12(1)
	.loc 3 1048 0
	beq- 0,.L6
	.cfi_offset 65, 4
	.loc 3 1048 0 is_stmt 0 discriminator 1
	lwz 9,0(9)
	lwz 0,8(9)
	mtctr 0
	bctrl
.LVL7:
.L6:
	.loc 3 1049 0 is_stmt 1
	lwz 0,12(1)
	addi 1,1,8
.LCFI1:
	.cfi_def_cfa_offset 0
	mtlr 0
	blr
	.cfi_endproc
.LFE2872:
	.size	_ZN7idClass12Event_RemoveEv, .-_ZN7idClass12Event_RemoveEv
	.section	.text._ZN9idWinding5ClearEv,"axG",@progbits,_ZN9idWinding5ClearEv,comdat
	.align 2
	.weak	_ZN9idWinding5ClearEv
	.type	_ZN9idWinding5ClearEv, @function
_ZN9idWinding5ClearEv:
.LFB1473:
	.loc 1 249 0
	.cfi_startproc
.LVL8:
	mflr 0
	stwu 1,-16(1)
.LCFI2:
	.cfi_def_cfa_offset 16
	.cfi_register 65, 0
	stw 31,12(1)
	mr 31,3
	.cfi_offset 31, -4
	stw 0,20(1)
	.loc 1 250 0
	li 0,0
	.cfi_offset 65, 4
	.loc 1 251 0
	lwz 3,8(3)
.LVL9:
	.loc 1 250 0
	stw 0,4(31)
	.loc 1 251 0
	cmpwi 7,3,0
	beq- 7,.L10
	.loc 1 251 0 is_stmt 0 discriminator 1
	bl _ZdaPv
.L10:
	.loc 1 252 0 is_stmt 1
	li 0,0
	stw 0,8(31)
	.loc 1 253 0
	lwz 0,20(1)
	lwz 31,12(1)
.LVL10:
	mtlr 0
	addi 1,1,16
.LCFI3:
	.cfi_def_cfa_offset 0
	.cfi_restore 31
	blr
	.cfi_endproc
.LFE1473:
	.size	_ZN9idWinding5ClearEv, .-_ZN9idWinding5ClearEv
	.section	.text._ZN9idWindingD2Ev,"axG",@progbits,_ZN9idWindingD5Ev,comdat
	.align 2
	.weak	_ZN9idWindingD2Ev
	.type	_ZN9idWindingD2Ev, @function
_ZN9idWindingD2Ev:
.LFB1461:
	.loc 1 183 0
	.cfi_startproc
.LVL11:
	mflr 0
	stwu 1,-16(1)
.LCFI4:
	.cfi_def_cfa_offset 16
	.cfi_register 65, 0
.LBB548:
	lis 9,_ZTV9idWinding+8@ha
.LBE548:
	stw 31,12(1)
	mr 31,3
	.cfi_offset 31, -4
	stw 0,20(1)
.LBB549:
	.loc 1 183 0
	la 0,_ZTV9idWinding+8@l(9)
	.cfi_offset 65, 4
	.loc 1 184 0
	lwz 3,8(3)
.LVL12:
	.loc 1 183 0
	stw 0,0(31)
	.loc 1 184 0
	cmpwi 7,3,0
	beq- 7,.L12
	.loc 1 184 0 is_stmt 0 discriminator 1
	bl _ZdaPv
.L12:
	.loc 1 185 0 is_stmt 1
	li 0,0
	stw 0,8(31)
.LBE549:
	.loc 1 186 0
	lwz 0,20(1)
	lwz 31,12(1)
.LVL13:
	mtlr 0
	addi 1,1,16
.LCFI5:
	.cfi_def_cfa_offset 0
	.cfi_restore 31
	blr
	.cfi_endproc
.LFE1461:
	.size	_ZN9idWindingD2Ev, .-_ZN9idWindingD2Ev
	.section	".text"
	.align 2
	.globl _ZN7idClassD2Ev
	.type	_ZN7idClassD2Ev, @function
_ZN7idClassD2Ev:
.LFB2825:
	.loc 3 316 0
	.cfi_startproc
.LVL14:
	mflr 0
	stwu 1,-8(1)
.LCFI6:
	.cfi_def_cfa_offset 8
	.cfi_register 65, 0
.LBB550:
	lis 9,_ZTV7idClass+8@ha
	.loc 3 317 0
	li 4,0
.LBE550:
	.loc 3 316 0
	stw 0,12(1)
.LBB551:
	.loc 3 316 0
	la 0,_ZTV7idClass+8@l(9)
	.cfi_offset 65, 4
	stw 0,0(3)
	.loc 3 317 0
	bl _ZN7idEvent12CancelEventsEPK7idClassPK10idEventDef
.LVL15:
.LBE551:
	.loc 3 318 0
	lwz 0,12(1)
	addi 1,1,8
.LCFI7:
	.cfi_def_cfa_offset 0
	mtlr 0
	blr
	.cfi_endproc
.LFE2825:
	.size	_ZN7idClassD2Ev, .-_ZN7idClassD2Ev
	.align 2
	.globl _ZN7idClass14CreateInstanceEv
	.type	_ZN7idClass14CreateInstanceEv, @function
_ZN7idClass14CreateInstanceEv:
.LFB2818:
	.loc 3 232 0
	.cfi_startproc
	mflr 0
	stwu 1,-8(1)
.LCFI8:
	.cfi_def_cfa_offset 8
	.cfi_register 65, 0
	lis 3,gameLocal@ha
	lis 4,.LC0@ha
	lis 5,.LC1@ha
	la 3,gameLocal@l(3)
	la 4,.LC0@l(4)
	la 5,.LC1@l(5)
	stw 0,12(1)
	.loc 3 232 0
	.cfi_offset 65, 4
	crxor 6,6,6
	bl _ZNK11idGameLocal5ErrorEPKcz
	lwz 0,12(1)
	li 3,0
	addi 1,1,8
.LCFI9:
	.cfi_def_cfa_offset 0
	mtlr 0
	blr
	.cfi_endproc
.LFE2818:
	.size	_ZN7idClass14CreateInstanceEv, .-_ZN7idClass14CreateInstanceEv
	.section	.text._ZN14idFixedWindingD2Ev,"axG",@progbits,_ZN14idFixedWindingD5Ev,comdat
	.align 2
	.weak	_ZN14idFixedWindingD2Ev
	.type	_ZN14idFixedWindingD2Ev, @function
_ZN14idFixedWindingD2Ev:
.LFB1498:
	.loc 1 380 0
	.cfi_startproc
.LVL16:
.LBB557:
	.loc 1 381 0
	li 0,0
.LBB558:
.LBB559:
.LBB560:
	.loc 1 183 0
	lis 9,_ZTV9idWinding+8@ha
.LBE560:
.LBE559:
.LBE558:
	.loc 1 381 0
	stw 0,8(3)
.LVL17:
.LBB563:
.LBB562:
.LBB561:
	.loc 1 183 0
	la 0,_ZTV9idWinding+8@l(9)
	stw 0,0(3)
.LBE561:
.LBE562:
.LBE563:
.LBE557:
	.loc 1 382 0
	blr
	.cfi_endproc
.LFE1498:
	.size	_ZN14idFixedWindingD2Ev, .-_ZN14idFixedWindingD2Ev
	.section	.text._ZN9idWindingD0Ev,"axG",@progbits,_ZN9idWindingD5Ev,comdat
	.align 2
	.weak	_ZN9idWindingD0Ev
	.type	_ZN9idWindingD0Ev, @function
_ZN9idWindingD0Ev:
.LFB1463:
	.loc 1 183 0
	.cfi_startproc
.LVL18:
	mflr 0
	stwu 1,-16(1)
.LCFI10:
	.cfi_def_cfa_offset 16
	.cfi_register 65, 0
.LBB567:
.LBB568:
.LBB569:
	lis 9,_ZTV9idWinding+8@ha
.LBE569:
.LBE568:
.LBE567:
	stw 31,12(1)
	mr 31,3
	.cfi_offset 31, -4
.LVL19:
	stw 0,20(1)
.LBB574:
.LBB572:
.LBB570:
	.loc 1 183 0
	la 0,_ZTV9idWinding+8@l(9)
	.cfi_offset 65, 4
	.loc 1 184 0
	lwz 3,8(3)
.LVL20:
	.loc 1 183 0
	stw 0,0(31)
	.loc 1 184 0
	cmpwi 7,3,0
	beq- 7,.L21
	bl _ZdaPv
.LVL21:
.L21:
	.loc 1 185 0
	li 0,0
.LBE570:
.LBE572:
.LBE574:
	.loc 1 186 0
	mr 3,31
.LBB575:
.LBB573:
.LBB571:
	.loc 1 185 0
	stw 0,8(31)
.LBE571:
.LBE573:
.LBE575:
	.loc 1 186 0
	bl _ZdlPv
	lwz 0,20(1)
	lwz 31,12(1)
.LVL22:
	mtlr 0
	addi 1,1,16
.LCFI11:
	.cfi_def_cfa_offset 0
	.cfi_restore 31
	blr
	.cfi_endproc
.LFE1463:
	.size	_ZN9idWindingD0Ev, .-_ZN9idWindingD0Ev
	.section	.text._ZN14idFixedWindingD0Ev,"axG",@progbits,_ZN14idFixedWindingD5Ev,comdat
	.align 2
	.weak	_ZN14idFixedWindingD0Ev
	.type	_ZN14idFixedWindingD0Ev, @function
_ZN14idFixedWindingD0Ev:
.LFB1500:
	.loc 1 380 0
	.cfi_startproc
.LVL23:
	mflr 0
	stwu 1,-8(1)
.LCFI12:
	.cfi_def_cfa_offset 8
	.cfi_register 65, 0
.LBB582:
.LBB583:
.LBB584:
.LBB585:
.LBB586:
.LBB587:
	.loc 1 183 0
	lis 11,_ZTV9idWinding+8@ha
.LBE587:
.LBE586:
.LBE585:
.LBE584:
.LBE583:
.LBE582:
	.loc 1 380 0
	stw 0,12(1)
.LBB593:
.LBB592:
.LBB591:
	.loc 1 381 0
	li 0,0
	.cfi_offset 65, 4
	stw 0,8(3)
.LVL24:
.LBB590:
.LBB589:
.LBB588:
	.loc 1 183 0
	la 0,_ZTV9idWinding+8@l(11)
	stw 0,0(3)
.LBE588:
.LBE589:
.LBE590:
.LBE591:
.LBE592:
.LBE593:
	.loc 1 382 0
	bl _ZdlPv
.LVL25:
	lwz 0,12(1)
	addi 1,1,8
.LCFI13:
	.cfi_def_cfa_offset 0
	mtlr 0
	blr
	.cfi_endproc
.LFE1500:
	.size	_ZN14idFixedWindingD0Ev, .-_ZN14idFixedWindingD0Ev
	.section	".text"
	.align 2
	.globl _ZN10idTypeInfo8ShutdownEv
	.type	_ZN10idTypeInfo8ShutdownEv, @function
_ZN10idTypeInfo8ShutdownEv:
.LFB2817:
	.loc 3 210 0
	.cfi_startproc
.LVL26:
	mflr 0
	stwu 1,-16(1)
.LCFI14:
	.cfi_def_cfa_offset 16
	.cfi_register 65, 0
	stw 31,12(1)
	mr 31,3
	.cfi_offset 31, -4
	stw 0,20(1)
	.loc 3 212 0
	lwz 3,40(3)
.LVL27:
	cmpwi 7,3,0
	beq- 7,.L29
	.cfi_offset 65, 4
	.loc 3 213 0
	lbz 0,52(31)
	cmpwi 7,0,0
	bne- 7,.L31
.L30:
	.loc 3 216 0
	li 0,0
	stw 0,40(31)
.L29:
	.loc 3 218 0
	li 0,0
	stw 0,56(31)
	.loc 3 219 0
	stw 0,60(31)
	.loc 3 220 0
	lwz 0,20(1)
	lwz 31,12(1)
.LVL28:
	mtlr 0
	addi 1,1,16
	.cfi_remember_state
.LCFI15:
	.cfi_def_cfa_offset 0
	.cfi_restore 31
	blr
.LVL29:
.L31:
.LCFI16:
	.cfi_restore_state
	.loc 3 214 0 discriminator 1
	bl _ZdaPv
	b .L30
	.cfi_endproc
.LFE2817:
	.size	_ZN10idTypeInfo8ShutdownEv, .-_ZN10idTypeInfo8ShutdownEv
	.align 2
	.globl _ZN7idClass13CallSpawnFuncEP10idTypeInfo
	.type	_ZN7idClass13CallSpawnFuncEP10idTypeInfo, @function
_ZN7idClass13CallSpawnFuncEP10idTypeInfo:
.LFB2821:
	.loc 3 264 0
	.cfi_startproc
.LVL30:
	mflr 0
	stwu 1,-16(1)
.LCFI17:
	.cfi_def_cfa_offset 16
	.cfi_register 65, 0
	stw 30,8(1)
	mr 30,3
	.cfi_offset 30, -8
	stw 31,12(1)
	mr 31,4
	.cfi_offset 31, -4
	stw 0,20(1)
.LBB594:
	.loc 3 267 0
	lwz 4,44(4)
.LVL31:
	cmpwi 7,4,0
	beq- 7,.L33
	.cfi_offset 65, 4
	.loc 3 268 0
	bl _ZN7idClass13CallSpawnFuncEP10idTypeInfo
.LVL32:
	.loc 3 269 0
	lwz 0,12(31)
	cmpw 7,0,3
	lwz 3,16(31)
.LVL33:
	beq- 7,.L34
.LVL34:
.L35:
	.loc 3 276 0
	andi. 9,0,1
	bne- 0,.L38
	add 3,30,3
.L39:
	.loc 3 276 0 is_stmt 0 discriminator 3
	mtctr 0
	bctrl
	.loc 3 278 0 is_stmt 1 discriminator 3
	lwz 3,12(31)
	lwz 4,16(31)
.L37:
.LBE594:
	.loc 3 279 0
	lwz 0,20(1)
	lwz 30,8(1)
.LVL35:
	mtlr 0
	lwz 31,12(1)
.LVL36:
	addi 1,1,16
	.cfi_remember_state
.LCFI18:
	.cfi_def_cfa_offset 0
	.cfi_restore 31
	.cfi_restore 30
	blr
.LVL37:
.L38:
.LCFI19:
	.cfi_restore_state
.LBB595:
	.loc 3 276 0 discriminator 1
	lwzx 9,30,3
	add 3,30,3
	add 9,9,0
	lwz 0,-1(9)
	b .L39
.L33:
	.loc 3 272 0
	lwz 0,12(31)
	lwz 3,16(31)
	b .L35
.LVL38:
.L34:
	.loc 3 269 0 discriminator 1
	cmpw 7,3,4
	beq- 7,.L36
	.loc 3 269 0 is_stmt 0 discriminator 2
	cmpwi 7,0,0
	bne+ 7,.L35
.L36:
	.loc 3 272 0 is_stmt 1
	mr 3,0
	b .L37
.LBE595:
	.cfi_endproc
.LFE2821:
	.size	_ZN7idClass13CallSpawnFuncEP10idTypeInfo, .-_ZN7idClass13CallSpawnFuncEP10idTypeInfo
	.align 2
	.globl _ZN7idClass9CallSpawnEv
	.type	_ZN7idClass9CallSpawnEv, @function
_ZN7idClass9CallSpawnEv:
.LFB2820:
	.loc 3 252 0
	.cfi_startproc
.LVL39:
	mflr 0
	stwu 1,-16(1)
.LCFI20:
	.cfi_def_cfa_offset 16
	.cfi_register 65, 0
	stw 31,12(1)
	mr 31,3
	.cfi_offset 31, -4
	stw 0,20(1)
.LBB596:
	.loc 3 255 0
	lwz 9,0(3)
	lwz 0,0(9)
	.cfi_offset 65, 4
	mtctr 0
	bctrl
.LVL40:
.LBE596:
	.loc 3 257 0
	lwz 0,20(1)
.LBB597:
	.loc 3 255 0
	mr 4,3
.LVL41:
	.loc 3 256 0
	mr 3,31
.LVL42:
.LBE597:
	.loc 3 257 0
	mtlr 0
	lwz 31,12(1)
.LVL43:
	addi 1,1,16
.LCFI21:
	.cfi_def_cfa_offset 0
	.cfi_restore 31
.LBB598:
	.loc 3 256 0
	b _ZN7idClass13CallSpawnFuncEP10idTypeInfo
.LVL44:
.LVL45:
.LBE598:
	.cfi_endproc
.LFE2820:
	.size	_ZN7idClass9CallSpawnEv, .-_ZN7idClass9CallSpawnEv
	.align 2
	.globl _ZN7idClass23FindUninitializedMemoryEv
	.type	_ZN7idClass23FindUninitializedMemoryEv, @function
_ZN7idClass23FindUninitializedMemoryEv:
.LFB2822:
	.loc 3 286 0
	.cfi_startproc
.LVL46:
	.loc 3 299 0
	blr
	.cfi_endproc
.LFE2822:
	.size	_ZN7idClass23FindUninitializedMemoryEv, .-_ZN7idClass23FindUninitializedMemoryEv
	.align 2
	.globl _ZN7idClass13DisplayInfo_fERK9idCmdArgs
	.type	_ZN7idClass13DisplayInfo_fERK9idCmdArgs, @function
_ZN7idClass13DisplayInfo_fERK9idCmdArgs:
.LFB2828:
	.loc 3 325 0
	.cfi_startproc
.LVL47:
	.loc 3 326 0
	lis 9,_ZN7idClass7memusedE@ha
	.loc 3 325 0
	mflr 0
	.loc 3 326 0
	lwz 5,_ZN7idClass7memusedE@l(9)
	lis 9,_ZN7idClass10numobjectsE@ha
	.loc 3 325 0
	stwu 1,-8(1)
.LCFI22:
	.cfi_def_cfa_offset 8
	.cfi_register 65, 0
	.loc 3 326 0
	lis 3,gameLocal@ha
.LVL48:
	lwz 6,_ZN7idClass10numobjectsE@l(9)
	lis 4,.LC2@ha
	la 3,gameLocal@l(3)
	la 4,.LC2@l(4)
	.loc 3 325 0
	stw 0,12(1)
	.loc 3 326 0
	.cfi_offset 65, 4
	crxor 6,6,6
	bl _ZNK11idGameLocal6PrintfEPKcz
	.loc 3 327 0
	lwz 0,12(1)
	addi 1,1,8
.LCFI23:
	.cfi_def_cfa_offset 0
	mtlr 0
	blr
	.cfi_endproc
.LFE2828:
	.size	_ZN7idClass13DisplayInfo_fERK9idCmdArgs, .-_ZN7idClass13DisplayInfo_fERK9idCmdArgs
	.align 2
	.globl _ZN7idClass13ListClasses_fERK9idCmdArgs
	.type	_ZN7idClass13ListClasses_fERK9idCmdArgs, @function
_ZN7idClass13ListClasses_fERK9idCmdArgs:
.LFB2829:
	.loc 3 334 0
	.cfi_startproc
.LVL49:
	stwu 1,-24(1)
.LCFI24:
	.cfi_def_cfa_offset 24
	mflr 0
.LBB599:
	.loc 3 338 0
	lis 4,.LC3@ha
	lis 5,.LC4@ha
.LBE599:
	.loc 3 334 0
	stw 29,12(1)
.LBB600:
	.loc 3 338 0
	lis 29,gameLocal@ha
	.cfi_offset 29, -12
	.cfi_register 65, 0
	la 29,gameLocal@l(29)
	lis 6,.LC5@ha
	lis 7,.LC6@ha
	lis 8,.LC7@ha
	la 5,.LC4@l(5)
	mr 3,29
.LVL50:
	la 4,.LC3@l(4)
	la 6,.LC5@l(6)
	la 7,.LC6@l(7)
	la 8,.LC7@l(8)
.LBE600:
	.loc 3 334 0
	stw 0,28(1)
	stw 30,16(1)
.LBB601:
	.loc 3 341 0
	lis 30,.LANCHOR0@ha
	.cfi_offset 30, -8
	.cfi_offset 65, 4
.LBE601:
	.loc 3 334 0
	stw 28,8(1)
.LBB602:
	.loc 3 341 0
	la 30,.LANCHOR0@l(30)
.LBE602:
	.loc 3 334 0
	stw 31,20(1)
.LBB603:
	.loc 3 338 0
	.cfi_offset 31, -4
	.cfi_offset 28, -16
	crxor 6,6,6
	bl _ZNK11idGameLocal6PrintfEPKcz
	.loc 3 339 0
	lis 4,.LC8@ha
	mr 3,29
	la 4,.LC8@l(4)
	crxor 6,6,6
	bl _ZNK11idGameLocal6PrintfEPKcz
.LVL51:
	.loc 3 341 0
	lwz 5,80(30)
	cmpwi 7,5,0
	ble- 7,.L44
	lis 28,.LC9@ha
	li 31,0
	addi 30,30,80
	la 28,.LC9@l(28)
.LVL52:
.L45:
	.loc 3 342 0 discriminator 2
	lwz 9,12(30)
	slwi 0,31,2
	.loc 3 343 0 discriminator 2
	mr 3,29
	mr 4,28
	.loc 3 342 0 discriminator 2
	lwzx 9,9,0
.LVL53:
	.loc 3 341 0 discriminator 2
	addi 31,31,1
.LVL54:
	.loc 3 343 0 discriminator 2
	lwz 7,56(9)
	lwz 8,60(9)
	lwz 5,0(9)
	lwz 6,4(9)
	subf 8,7,8
	crxor 6,6,6
	bl _ZNK11idGameLocal6PrintfEPKcz
.LVL55:
	.loc 3 341 0 discriminator 2
	lwz 5,0(30)
	cmpw 7,5,31
	bgt+ 7,.L45
.LVL56:
.L44:
	.loc 3 346 0
	lis 4,.LC10@ha
	mr 3,29
	la 4,.LC10@l(4)
	crxor 6,6,6
	bl _ZNK11idGameLocal6PrintfEPKcz
.LBE603:
	.loc 3 347 0
	lwz 0,28(1)
	lwz 28,8(1)
	mtlr 0
	lwz 29,12(1)
	lwz 30,16(1)
	lwz 31,20(1)
	addi 1,1,24
.LCFI25:
	.cfi_def_cfa_offset 0
	.cfi_restore 31
	.cfi_restore 30
	.cfi_restore 29
	.cfi_restore 28
	blr
	.cfi_endproc
.LFE2829:
	.size	_ZN7idClass13ListClasses_fERK9idCmdArgs, .-_ZN7idClass13ListClasses_fERK9idCmdArgs
	.align 2
	.globl _ZN7idClass8ShutdownEv
	.type	_ZN7idClass8ShutdownEv, @function
_ZN7idClass8ShutdownEv:
.LFB2832:
	.loc 3 426 0
	.cfi_startproc
	stwu 1,-16(1)
.LCFI26:
	.cfi_def_cfa_offset 16
	mflr 0
	stw 30,8(1)
.LBB609:
	.loc 3 429 0
	lis 30,.LANCHOR0@ha
	.cfi_offset 30, -8
	.cfi_register 65, 0
	la 30,.LANCHOR0@l(30)
.LBE609:
	.loc 3 426 0
	stw 31,12(1)
.LBB624:
	.loc 3 429 0
	lwz 31,96(30)
	.cfi_offset 31, -4
.LVL57:
.LBE624:
	.loc 3 426 0
	stw 0,20(1)
.LBB625:
	.loc 3 429 0
	cmpwi 7,31,0
	beq- 7,.L48
	.cfi_offset 65, 4
.LVL58:
.L52:
	.loc 3 430 0 discriminator 2
	mr 3,31
	bl _ZN10idTypeInfo8ShutdownEv
	.loc 3 429 0 discriminator 2
	lwz 31,48(31)
.LVL59:
	cmpwi 7,31,0
	bne+ 7,.L52
.L48:
.LVL60:
.LBB610:
.LBB611:
	.file 4 "d:/Data/Nintendo/DoomGX/src/game/gamesys/../../idlib/../idlib/containers/List.h"
	.loc 4 193 0
	lwz 3,92(30)
	cmpwi 7,3,0
	beq- 7,.L50
	.loc 4 194 0
	bl _ZdaPv
.L50:
.LBE611:
.LBE610:
.LBB614:
.LBB615:
	.loc 4 193 0
	lwz 3,112(30)
.LBE615:
.LBE614:
.LBB619:
.LBB612:
	.loc 4 197 0
	li 0,0
	stw 0,92(30)
.LBE612:
.LBE619:
.LBB620:
.LBB616:
	.loc 4 193 0
	cmpwi 7,3,0
.LBE616:
.LBE620:
.LBB621:
.LBB613:
	.loc 4 198 0
	stw 0,80(30)
	.loc 4 199 0
	stw 0,84(30)
.LVL61:
.LBE613:
.LBE621:
.LBB622:
.LBB617:
	.loc 4 193 0
	beq- 7,.L51
	.loc 4 194 0
	bl _ZdaPv
.L51:
	.loc 4 197 0
	li 0,0
.LBE617:
.LBE622:
	.loc 3 435 0
	lis 9,_ZN7idClass11initializedE@ha
.LBB623:
.LBB618:
	.loc 4 197 0
	stw 0,112(30)
	.loc 4 198 0
	stw 0,100(30)
	.loc 4 199 0
	stw 0,104(30)
.LBE618:
.LBE623:
	.loc 3 435 0
	stb 0,_ZN7idClass11initializedE@l(9)
.LBE625:
	.loc 3 436 0
	lwz 0,20(1)
	lwz 30,8(1)
	mtlr 0
	lwz 31,12(1)
.LVL62:
	addi 1,1,16
.LCFI27:
	.cfi_def_cfa_offset 0
	.cfi_restore 31
	.cfi_restore 30
	blr
	.cfi_endproc
.LFE2832:
	.size	_ZN7idClass8ShutdownEv, .-_ZN7idClass8ShutdownEv
	.align 2
	.globl _ZN7idClassnwEj
	.type	_ZN7idClassnwEj, @function
_ZN7idClassnwEj:
.LFB2833:
	.loc 3 447 0
	.cfi_startproc
.LVL63:
	stwu 1,-16(1)
.LCFI28:
	.cfi_def_cfa_offset 16
	mflr 0
	stw 31,12(1)
.LBB626:
	.loc 3 450 0
	addi 31,3,4
	.cfi_offset 31, -4
	.cfi_register 65, 0
.LVL64:
	.loc 3 451 0
	mr 3,31
.LBE626:
	.loc 3 447 0
	stw 0,20(1)
.LBB627:
	.loc 3 451 0
	.cfi_offset 65, 4
	bl _Z9Mem_Alloci
.LVL65:
	.loc 3 453 0
	lis 11,_ZN7idClass7memusedE@ha
	.loc 3 452 0
	stw 31,0(3)
	.loc 3 454 0
	lis 9,_ZN7idClass10numobjectsE@ha
.LBE627:
	.loc 3 467 0
	addi 3,3,4
.LVL66:
.LBB628:
	.loc 3 453 0
	lwz 0,_ZN7idClass7memusedE@l(11)
	.loc 3 454 0
	lwz 10,_ZN7idClass10numobjectsE@l(9)
	.loc 3 453 0
	add 31,31,0
.LVL67:
	.loc 3 454 0
	addi 0,10,1
	.loc 3 453 0
	stw 31,_ZN7idClass7memusedE@l(11)
	.loc 3 454 0
	stw 0,_ZN7idClass10numobjectsE@l(9)
.LBE628:
	.loc 3 467 0
	lwz 0,20(1)
	lwz 31,12(1)
	mtlr 0
	addi 1,1,16
.LCFI29:
	.cfi_def_cfa_offset 0
	.cfi_restore 31
	blr
	.cfi_endproc
.LFE2833:
	.size	_ZN7idClassnwEj, .-_ZN7idClassnwEj
	.align 2
	.globl _ZN7idClassnwEjiiPci
	.type	_ZN7idClassnwEjiiPci, @function
_ZN7idClassnwEjiiPci:
.LFB2834:
	.loc 3 469 0
	.cfi_startproc
.LVL68:
	stwu 1,-16(1)
.LCFI30:
	.cfi_def_cfa_offset 16
	mflr 0
	stw 31,12(1)
.LBB629:
	.loc 3 472 0
	addi 31,3,4
	.cfi_offset 31, -4
	.cfi_register 65, 0
.LVL69:
	.loc 3 473 0
	mr 3,31
.LBE629:
	.loc 3 469 0
	stw 0,20(1)
.LBB630:
	.loc 3 473 0
	.cfi_offset 65, 4
	bl _Z9Mem_Alloci
.LVL70:
	.loc 3 475 0
	lis 11,_ZN7idClass7memusedE@ha
	.loc 3 474 0
	stw 31,0(3)
	.loc 3 476 0
	lis 9,_ZN7idClass10numobjectsE@ha
.LBE630:
	.loc 3 489 0
	addi 3,3,4
.LVL71:
.LBB631:
	.loc 3 475 0
	lwz 0,_ZN7idClass7memusedE@l(11)
	.loc 3 476 0
	lwz 10,_ZN7idClass10numobjectsE@l(9)
	.loc 3 475 0
	add 31,31,0
.LVL72:
	.loc 3 476 0
	addi 0,10,1
	.loc 3 475 0
	stw 31,_ZN7idClass7memusedE@l(11)
	.loc 3 476 0
	stw 0,_ZN7idClass10numobjectsE@l(9)
.LBE631:
	.loc 3 489 0
	lwz 0,20(1)
	lwz 31,12(1)
	mtlr 0
	addi 1,1,16
.LCFI31:
	.cfi_def_cfa_offset 0
	.cfi_restore 31
	blr
	.cfi_endproc
.LFE2834:
	.size	_ZN7idClassnwEjiiPci, .-_ZN7idClassnwEjiiPci
	.align 2
	.globl _ZN7idClassdlEPv
	.type	_ZN7idClassdlEPv, @function
_ZN7idClassdlEPv:
.LFB2835:
	.loc 3 500 0
	.cfi_startproc
.LVL73:
.LBB632:
	.loc 3 503 0
	cmpwi 0,3,0
.LBE632:
	.loc 3 500 0
	mflr 0
	stwu 1,-8(1)
.LCFI32:
	.cfi_def_cfa_offset 8
	.cfi_register 65, 0
	stw 0,12(1)
.LBB633:
	.loc 3 503 0
	beq- 0,.L56
	.cfi_offset 65, 4
.LVL74:
	.loc 3 505 0
	lis 11,_ZN7idClass7memusedE@ha
	.loc 3 506 0
	lis 9,_ZN7idClass10numobjectsE@ha
	.loc 3 505 0
	lwzu 0,-4(3)
.LVL75:
	lwz 10,_ZN7idClass7memusedE@l(11)
	.loc 3 506 0
	lwz 8,_ZN7idClass10numobjectsE@l(9)
	.loc 3 505 0
	subf 10,0,10
	.loc 3 506 0
	addi 0,8,-1
	.loc 3 505 0
	stw 10,_ZN7idClass7memusedE@l(11)
	.loc 3 506 0
	stw 0,_ZN7idClass10numobjectsE@l(9)
	.loc 3 507 0
	bl _Z8Mem_FreePv
.LVL76:
.L56:
.LBE633:
	.loc 3 509 0
	lwz 0,12(1)
	addi 1,1,8
.LCFI33:
	.cfi_def_cfa_offset 0
	mtlr 0
	blr
	.cfi_endproc
.LFE2835:
	.size	_ZN7idClassdlEPv, .-_ZN7idClassdlEPv
	.align 2
	.globl _ZN7idClassD0Ev
	.type	_ZN7idClassD0Ev, @function
_ZN7idClassD0Ev:
.LFB2827:
	.loc 3 316 0
	.cfi_startproc
.LVL77:
	mflr 0
	stwu 1,-16(1)
.LCFI34:
	.cfi_def_cfa_offset 16
	.cfi_register 65, 0
	stw 31,12(1)
	mr 31,3
	.cfi_offset 31, -4
	stw 0,20(1)
	.loc 3 318 0
	.cfi_offset 65, 4
	bl _ZN7idClassD1Ev
.LVL78:
	lwz 0,20(1)
	mr 3,31
	lwz 31,12(1)
.LVL79:
	mtlr 0
	addi 1,1,16
.LCFI35:
	.cfi_def_cfa_offset 0
	.cfi_restore 31
	b _ZN7idClassdlEPv
.LVL80:
	.cfi_endproc
.LFE2827:
	.size	_ZN7idClassD0Ev, .-_ZN7idClassD0Ev
	.align 2
	.globl _ZN7idClassdlEPviiPci
	.type	_ZN7idClassdlEPviiPci, @function
_ZN7idClassdlEPviiPci:
.LFB2836:
	.loc 3 511 0
	.cfi_startproc
.LVL81:
.LBB634:
	.loc 3 514 0
	cmpwi 0,3,0
.LBE634:
	.loc 3 511 0
	mflr 0
	stwu 1,-8(1)
.LCFI36:
	.cfi_def_cfa_offset 8
	.cfi_register 65, 0
	stw 0,12(1)
.LBB635:
	.loc 3 514 0
	beq- 0,.L60
	.cfi_offset 65, 4
.LVL82:
	.loc 3 516 0
	lis 11,_ZN7idClass7memusedE@ha
	.loc 3 517 0
	lis 9,_ZN7idClass10numobjectsE@ha
	.loc 3 516 0
	lwzu 0,-4(3)
.LVL83:
	lwz 10,_ZN7idClass7memusedE@l(11)
	.loc 3 517 0
	lwz 8,_ZN7idClass10numobjectsE@l(9)
	.loc 3 516 0
	subf 10,0,10
	.loc 3 517 0
	addi 0,8,-1
	.loc 3 516 0
	stw 10,_ZN7idClass7memusedE@l(11)
	.loc 3 517 0
	stw 0,_ZN7idClass10numobjectsE@l(9)
	.loc 3 518 0
	bl _Z8Mem_FreePv
.LVL84:
.L60:
.LBE635:
	.loc 3 520 0
	lwz 0,12(1)
	addi 1,1,8
.LCFI37:
	.cfi_def_cfa_offset 0
	mtlr 0
	blr
	.cfi_endproc
.LFE2836:
	.size	_ZN7idClassdlEPviiPci, .-_ZN7idClassdlEPviiPci
	.align 2
	.globl _ZN7idClass8GetClassEPKc
	.type	_ZN7idClass8GetClassEPKc, @function
_ZN7idClass8GetClassEPKc:
.LFB2837:
	.loc 3 530 0
	.cfi_startproc
.LVL85:
	mflr 0
	stwu 1,-32(1)
.LCFI38:
	.cfi_def_cfa_offset 32
	.cfi_register 65, 0
.LBB642:
	.loc 3 537 0
	lis 9,_ZN7idClass11initializedE@ha
.LBE642:
	.loc 3 530 0
	stw 27,12(1)
	mr 27,3
	.cfi_offset 27, -20
	stw 0,36(1)
.LBB643:
	.loc 3 537 0
	lbz 0,_ZN7idClass11initializedE@l(9)
	.cfi_offset 65, 4
.LBE643:
	.loc 3 530 0
	stw 26,8(1)
.LBB644:
	.loc 3 537 0
	cmpwi 7,0,0
.LBE644:
	.loc 3 530 0
	stw 28,16(1)
	stw 29,20(1)
	stw 30,24(1)
	stw 31,28(1)
.LBB645:
	.loc 3 537 0
	bne- 7,.L63
	.cfi_offset 31, -4
	.cfi_offset 30, -8
	.cfi_offset 29, -12
	.cfi_offset 28, -16
	.cfi_offset 26, -24
	.loc 3 539 0
	lis 9,.LANCHOR0+96@ha
	lwz 31,.LANCHOR0+96@l(9)
.LVL86:
	cmpwi 7,31,0
	bne+ 7,.L71
.LVL87:
.L64:
.LBE645:
	.loc 3 563 0
	lwz 0,36(1)
	mr 3,31
	lwz 26,8(1)
	mtlr 0
	lwz 27,12(1)
.LVL88:
	lwz 28,16(1)
	lwz 29,20(1)
	lwz 30,24(1)
	lwz 31,28(1)
	addi 1,1,32
	.cfi_remember_state
.LCFI39:
	.cfi_def_cfa_offset 0
	.cfi_restore 31
	.cfi_restore 30
	.cfi_restore 29
	.cfi_restore 28
	.cfi_restore 27
	.cfi_restore 26
	blr
.LVL89:
.L75:
.LCFI40:
	.cfi_restore_state
.LBB646:
	.loc 3 539 0
	lwz 31,48(31)
.LVL90:
	cmpwi 7,31,0
	beq- 7,.L64
.L71:
	.loc 3 540 0
	lwz 3,0(31)
	mr 4,27
	bl _ZN5idStr3CmpEPKcS1_
	cmpwi 7,3,0
	bne+ 7,.L75
.LBE646:
	.loc 3 563 0
	lwz 0,36(1)
	mr 3,31
	lwz 26,8(1)
	mtlr 0
	lwz 27,12(1)
.LVL91:
	lwz 28,16(1)
	lwz 29,20(1)
	lwz 30,24(1)
	lwz 31,28(1)
.LVL92:
	addi 1,1,32
	.cfi_remember_state
	.cfi_restore 26
	.cfi_restore 27
	.cfi_restore 28
	.cfi_restore 29
	.cfi_restore 30
	.cfi_restore 31
.LCFI41:
	.cfi_def_cfa_offset 0
	blr
.LVL93:
.L63:
.LCFI42:
	.cfi_restore_state
.LBB647:
	.loc 3 547 0
	lis 26,.LANCHOR0@ha
.LBB648:
	.loc 3 562 0
	li 31,0
.LBE648:
	.loc 3 547 0
	la 26,.LANCHOR0@l(26)
.LBB649:
	lwz 29,80(26)
.LVL94:
	.loc 3 548 0
	addic. 29,29,-1
	blt- 0,.L64
	li 28,0
	addi 26,26,80
.LVL95:
	b .L69
.LVL96:
.L77:
	.loc 3 555 0
	addi 29,30,-1
.LVL97:
	.loc 3 548 0
	cmpw 7,29,28
	blt- 7,.L76
.LVL98:
.L69:
	.loc 3 549 0
	add 30,28,29
	.loc 3 550 0
	lwz 9,12(26)
	.loc 3 549 0
	srawi 30,30,1
	addze 30,30
.LVL99:
	.loc 3 551 0
	mr 4,27
	.loc 3 550 0
	slwi 0,30,2
	lwzx 31,9,0
.LVL100:
	.loc 3 551 0
	lwz 3,0(31)
	bl _ZN5idStr3CmpEPKcS1_
.LVL101:
	.loc 3 552 0
	cmpwi 7,3,0
	beq- 7,.L64
	.loc 3 554 0
	bgt+ 7,.L77
	.loc 3 557 0
	addi 28,30,1
.LVL102:
	.loc 3 548 0
	cmpw 7,29,28
	bge+ 7,.L69
.L76:
.LBE649:
.LBE647:
	.loc 3 563 0
	lwz 0,36(1)
.LBB651:
.LBB650:
	.loc 3 562 0
	li 31,0
.LVL103:
.LBE650:
.LBE651:
	.loc 3 563 0
	mr 3,31
.LVL104:
	lwz 26,8(1)
	mtlr 0
	lwz 27,12(1)
.LVL105:
	lwz 28,16(1)
.LVL106:
	lwz 29,20(1)
.LVL107:
	lwz 30,24(1)
.LVL108:
	lwz 31,28(1)
	addi 1,1,32
	.cfi_restore 26
	.cfi_restore 27
	.cfi_restore 28
	.cfi_restore 29
	.cfi_restore 30
	.cfi_restore 31
.LCFI43:
	.cfi_def_cfa_offset 0
	blr
	.cfi_endproc
.LFE2837:
	.size	_ZN7idClass8GetClassEPKc, .-_ZN7idClass8GetClassEPKc
	.align 2
	.globl _ZN7idClass14CreateInstanceEPKc
	.type	_ZN7idClass14CreateInstanceEPKc, @function
_ZN7idClass14CreateInstanceEPKc:
.LFB2830:
	.loc 3 354 0
	.cfi_startproc
.LVL109:
	mflr 0
	stwu 1,-8(1)
.LCFI44:
	.cfi_def_cfa_offset 8
	.cfi_register 65, 0
	stw 0,12(1)
.LBB652:
	.loc 3 358 0
	.cfi_offset 65, 4
	bl _ZN7idClass8GetClassEPKc
.LVL110:
	.loc 3 359 0
	mr. 9,3
	.loc 3 360 0
	li 3,0
.LVL111:
	.loc 3 359 0
	beq- 0,.L79
	.loc 3 363 0
	lwz 0,8(9)
	mtctr 0
	bctrl
.LVL112:
.L79:
.LBE652:
	.loc 3 365 0
	lwz 0,12(1)
	addi 1,1,8
.LCFI45:
	.cfi_def_cfa_offset 0
	mtlr 0
	blr
	.cfi_endproc
.LFE2830:
	.size	_ZN7idClass14CreateInstanceEPKc, .-_ZN7idClass14CreateInstanceEPKc
	.align 2
	.globl _ZN7idClass7GetTypeEi
	.type	_ZN7idClass7GetTypeEi, @function
_ZN7idClass7GetTypeEi:
.LFB2838:
	.loc 3 570 0
	.cfi_startproc
.LVL113:
.LBB653:
	.loc 3 573 0
	lis 9,_ZN7idClass11initializedE@ha
	lbz 0,_ZN7idClass11initializedE@l(9)
	cmpwi 7,0,0
	bne- 7,.L82
	.loc 3 574 0
	lis 9,.LANCHOR0+96@ha
	lwz 9,.LANCHOR0+96@l(9)
.LVL114:
	cmpwi 7,9,0
	bne+ 7,.L86
.LVL115:
.L83:
.LBE653:
	.loc 3 584 0
	mr 3,9
.LVL116:
	blr
.LVL117:
.L91:
.LBB654:
	.loc 3 574 0
	lwz 9,48(9)
.LVL118:
	cmpwi 7,9,0
	beq- 7,.L83
.L86:
	.loc 3 575 0
	lwz 0,56(9)
	cmpw 7,0,3
	bne+ 7,.L91
.LBE654:
	.loc 3 584 0
	mr 3,9
.LVL119:
	blr
.LVL120:
.L82:
.LBB655:
	.loc 3 579 0
	cmpwi 7,3,0
	.loc 3 583 0
	li 9,0
	.loc 3 579 0
	blt- 7,.L83
	.loc 3 579 0 is_stmt 0 discriminator 1
	lis 11,.LANCHOR0@ha
	la 11,.LANCHOR0@l(11)
	lwz 0,80(11)
	cmpw 7,3,0
	bge- 7,.L83
.LVL121:
	.loc 3 580 0 is_stmt 1 discriminator 4
	lwz 9,112(11)
	slwi 3,3,2
.LVL122:
	lwzx 9,9,3
.LBE655:
	.loc 3 584 0 discriminator 4
	mr 3,9
	blr
	.cfi_endproc
.LFE2838:
	.size	_ZN7idClass7GetTypeEi, .-_ZN7idClass7GetTypeEi
	.align 2
	.globl _ZNK7idClass12GetClassnameEv
	.type	_ZNK7idClass12GetClassnameEv, @function
_ZNK7idClass12GetClassnameEv:
.LFB2839:
	.loc 3 593 0
	.cfi_startproc
.LVL123:
	mflr 0
	stwu 1,-8(1)
.LCFI46:
	.cfi_def_cfa_offset 8
	.cfi_register 65, 0
	stw 0,12(1)
.LBB656:
	.loc 3 596 0
	lwz 9,0(3)
	lwz 0,0(9)
	.cfi_offset 65, 4
	mtctr 0
	bctrl
.LVL124:
.LBE656:
	.loc 3 598 0
	lwz 0,12(1)
	lwz 3,0(3)
.LVL125:
	mtlr 0
	addi 1,1,8
.LCFI47:
	.cfi_def_cfa_offset 0
	blr
	.cfi_endproc
.LFE2839:
	.size	_ZNK7idClass12GetClassnameEv, .-_ZNK7idClass12GetClassnameEv
	.align 2
	.globl _ZNK7idClass13GetSuperclassEv
	.type	_ZNK7idClass13GetSuperclassEv, @function
_ZNK7idClass13GetSuperclassEv:
.LFB2840:
	.loc 3 607 0
	.cfi_startproc
.LVL126:
	mflr 0
	stwu 1,-8(1)
.LCFI48:
	.cfi_def_cfa_offset 8
	.cfi_register 65, 0
	stw 0,12(1)
.LBB657:
	.loc 3 610 0
	lwz 9,0(3)
	lwz 0,0(9)
	.cfi_offset 65, 4
	mtctr 0
	bctrl
.LVL127:
.LBE657:
	.loc 3 612 0
	lwz 0,12(1)
	lwz 3,4(3)
.LVL128:
	mtlr 0
	addi 1,1,8
.LCFI49:
	.cfi_def_cfa_offset 0
	blr
	.cfi_endproc
.LFE2840:
	.size	_ZNK7idClass13GetSuperclassEv, .-_ZNK7idClass13GetSuperclassEv
	.align 2
	.globl _ZN7idClass12CancelEventsEPK10idEventDef
	.type	_ZN7idClass12CancelEventsEPK10idEventDef, @function
_ZN7idClass12CancelEventsEPK10idEventDef:
.LFB2841:
	.loc 3 619 0
	.cfi_startproc
.LVL129:
	mflr 0
	stwu 1,-8(1)
.LCFI50:
	.cfi_def_cfa_offset 8
	.cfi_register 65, 0
	stw 0,12(1)
	.loc 3 620 0
	.cfi_offset 65, 4
	bl _ZN7idEvent12CancelEventsEPK7idClassPK10idEventDef
.LVL130:
	.loc 3 621 0
	lwz 0,12(1)
	addi 1,1,8
.LCFI51:
	.cfi_def_cfa_offset 0
	mtlr 0
	blr
	.cfi_endproc
.LFE2841:
	.size	_ZN7idClass12CancelEventsEPK10idEventDef, .-_ZN7idClass12CancelEventsEPK10idEventDef
	.align 2
	.globl _ZN7idClass13PostEventArgsEPK10idEventDefiiz
	.type	_ZN7idClass13PostEventArgsEPK10idEventDefiiz, @function
_ZN7idClass13PostEventArgsEPK10idEventDefiiz:
.LFB2842:
	.loc 3 628 0
	.cfi_startproc
.LVL131:
	mflr 0
	stwu 1,-128(1)
.LCFI52:
	.cfi_def_cfa_offset 128
	.cfi_register 65, 0
	stw 29,116(1)
	mr 29,4
	.cfi_offset 29, -12
	stw 30,120(1)
	mr 30,5
	.cfi_offset 30, -8
	stw 31,124(1)
	mr 31,3
	.cfi_offset 31, -4
	stw 0,132(1)
	stw 26,104(1)
	stw 27,108(1)
	stw 28,112(1)
	stw 7,24(1)
	stw 8,28(1)
	stw 9,32(1)
	stw 10,36(1)
	bne- 1,.L96
	.cfi_offset 28, -16
	.cfi_offset 27, -20
	.cfi_offset 26, -24
	.cfi_offset 65, 4
	.loc 3 628 0
	stfd 1,40(1)
	stfd 2,48(1)
	stfd 3,56(1)
	stfd 4,64(1)
	stfd 5,72(1)
	stfd 6,80(1)
	stfd 7,88(1)
	stfd 8,96(1)
.L96:
.LBB658:
	.loc 3 635 0
	lis 9,_ZN7idEvent11initializedE@ha
.LBE658:
	.loc 3 628 0
	mr 26,6
.LBB666:
	.loc 3 635 0
	lbz 0,_ZN7idEvent11initializedE@l(9)
	.loc 3 636 0
	li 27,0
	.loc 3 635 0
	cmpwi 7,0,0
	bne- 7,.L102
.LVL132:
.L97:
.LBE666:
	.loc 3 659 0
	lwz 0,132(1)
	mr 3,27
	lwz 26,104(1)
.LVL133:
	mtlr 0
	lwz 27,108(1)
	lwz 28,112(1)
	lwz 29,116(1)
.LVL134:
	lwz 30,120(1)
.LVL135:
	lwz 31,124(1)
.LVL136:
	addi 1,1,128
	.cfi_remember_state
.LCFI53:
	.cfi_def_cfa_offset 0
	.cfi_restore 31
	.cfi_restore 30
	.cfi_restore 29
	.cfi_restore 28
	.cfi_restore 27
	.cfi_restore 26
	blr
.LVL137:
.L102:
.LCFI54:
	.cfi_restore_state
.LBB667:
	.loc 3 639 0
	lwz 9,0(31)
	mr 3,31
.LVL138:
	lwz 0,0(9)
	mtctr 0
	bctrl
.LVL139:
	.loc 3 640 0
	lwz 0,56(29)
	lwz 9,40(3)
	.loc 3 639 0
	mr 28,3
.LVL140:
	.loc 3 640 0
	slwi 0,0,3
	lwzx 0,9,0
	cmpwi 7,0,0
	beq- 7,.L97
	.loc 3 648 0
	lis 3,gameLocal@ha
.LVL141:
	la 3,gameLocal@l(3)
	addis 9,3,0x25
	lbz 0,2018(9)
	cmpwi 7,0,0
	bne- 7,.L103
.L98:
	.loc 3 652 0
	li 9,4
	addi 0,1,8
	stb 9,8(1)
	li 9,0
	.loc 3 653 0
	mr 5,0
	mr 4,26
	.loc 3 652 0
	stb 9,9(1)
	.loc 3 653 0
	mr 3,29
	.loc 3 652 0
	addi 9,1,136
	stw 0,16(1)
	stw 9,12(1)
	.loc 3 653 0
	bl _ZN7idEvent5AllocEPK10idEventDefiP13__va_list_tag
	.loc 3 656 0
	mr 4,31
	mr 5,28
	mr 6,30
	.loc 3 658 0
	li 27,1
	.loc 3 656 0
	bl _ZN7idEvent8ScheduleEP7idClassPK10idTypeInfoi
.LBE667:
	.loc 3 659 0
	lwz 0,132(1)
	mr 3,27
	lwz 26,104(1)
.LVL142:
	mtlr 0
	lwz 27,108(1)
	lwz 28,112(1)
.LVL143:
	lwz 29,116(1)
.LVL144:
	lwz 30,120(1)
.LVL145:
	lwz 31,124(1)
.LVL146:
	addi 1,1,128
	.cfi_remember_state
	.cfi_restore 26
	.cfi_restore 27
	.cfi_restore 28
	.cfi_restore 29
	.cfi_restore 30
	.cfi_restore 31
.LCFI55:
	.cfi_def_cfa_offset 0
	blr
.LVL147:
.L103:
.LCFI56:
	.cfi_restore_state
.LBB668:
	.loc 3 648 0 discriminator 1
	bl _ZNK11idGameLocal9GameStateEv
	cmpwi 7,3,2
	beq- 7,.L98
.LVL148:
.LBB659:
.LBB660:
	.loc 2 340 0
	lwz 9,0(31)
	mr 3,31
.LBB661:
.LBB662:
	.loc 3 649 0
	li 27,1
.LBE662:
.LBE661:
	.loc 2 340 0
	lwz 0,0(9)
	mtctr 0
	bctrl
.LVL149:
.LBE660:
	.loc 3 1059 0
	lis 9,_ZN8idThread4TypeE@ha
	la 9,_ZN8idThread4TypeE@l(9)
	lwz 0,56(3)
.LBB665:
.LBB664:
.LBB663:
	.loc 2 311 0
	lwz 11,56(9)
	cmpw 7,0,11
	blt- 7,.L97
	lwz 9,60(9)
	cmpw 7,0,9
	ble- 7,.L98
	b .L97
.LBE663:
.LBE664:
.LBE665:
.LBE659:
.LBE668:
	.cfi_endproc
.LFE2842:
	.size	_ZN7idClass13PostEventArgsEPK10idEventDefiiz, .-_ZN7idClass13PostEventArgsEPK10idEventDefiiz
	.align 2
	.globl _ZN7idClass11PostEventMSEPK10idEventDefi
	.type	_ZN7idClass11PostEventMSEPK10idEventDefi, @function
_ZN7idClass11PostEventMSEPK10idEventDefi:
.LFB2843:
	.loc 3 666 0
	.cfi_startproc
.LVL150:
	.loc 3 667 0
	li 6,0
	.loc 3 668 0
	.loc 3 667 0
	crxor 6,6,6
	b _ZN7idClass13PostEventArgsEPK10idEventDefiiz
.LVL151:
.LVL152:
.LVL153:
	.cfi_endproc
.LFE2843:
	.size	_ZN7idClass11PostEventMSEPK10idEventDefi, .-_ZN7idClass11PostEventMSEPK10idEventDefi
	.align 2
	.globl _ZN7idClass16Event_SafeRemoveEv
	.type	_ZN7idClass16Event_SafeRemoveEv, @function
_ZN7idClass16Event_SafeRemoveEv:
.LFB2873:
	.loc 3 1056 0
	.cfi_startproc
.LVL154:
	.loc 3 1058 0
	lis 4,.LANCHOR0@ha
	li 5,0
	la 4,.LANCHOR0@l(4)
	.loc 3 1059 0
	.loc 3 1058 0
	addi 4,4,116
	b _ZN7idClass11PostEventMSEPK10idEventDefi
.LVL155:
	.cfi_endproc
.LFE2873:
	.size	_ZN7idClass16Event_SafeRemoveEv, .-_ZN7idClass16Event_SafeRemoveEv
	.align 2
	.globl _ZN7idClass11PostEventMSEPK10idEventDefi10idEventArg
	.type	_ZN7idClass11PostEventMSEPK10idEventDefi10idEventArg, @function
_ZN7idClass11PostEventMSEPK10idEventDefi10idEventArg:
.LFB2844:
	.loc 3 675 0
	.cfi_startproc
.LVL156:
	mflr 0
	stwu 1,-8(1)
.LCFI57:
	.cfi_def_cfa_offset 8
	.cfi_register 65, 0
	mr 7,6
	.loc 3 676 0
	li 6,1
	.loc 3 675 0
	stw 0,12(1)
	.loc 3 676 0
	.cfi_offset 65, 4
	crxor 6,6,6
	bl _ZN7idClass13PostEventArgsEPK10idEventDefiiz
.LVL157:
	.loc 3 677 0
	lwz 0,12(1)
	addi 1,1,8
.LCFI58:
	.cfi_def_cfa_offset 0
	mtlr 0
	blr
	.cfi_endproc
.LFE2844:
	.size	_ZN7idClass11PostEventMSEPK10idEventDefi10idEventArg, .-_ZN7idClass11PostEventMSEPK10idEventDefi10idEventArg
	.align 2
	.globl _ZN7idClass11PostEventMSEPK10idEventDefi10idEventArgS3_
	.type	_ZN7idClass11PostEventMSEPK10idEventDefi10idEventArgS3_, @function
_ZN7idClass11PostEventMSEPK10idEventDefi10idEventArgS3_:
.LFB2845:
	.loc 3 684 0
	.cfi_startproc
.LVL158:
	mflr 0
	stwu 1,-8(1)
.LCFI59:
	.cfi_def_cfa_offset 8
	.cfi_register 65, 0
	mr 8,7
	stw 0,12(1)
	.loc 3 684 0
	mr 0,6
	.cfi_offset 65, 4
	.loc 3 685 0
	mr 7,0
	li 6,2
	crxor 6,6,6
	bl _ZN7idClass13PostEventArgsEPK10idEventDefiiz
.LVL159:
	.loc 3 686 0
	lwz 0,12(1)
	addi 1,1,8
.LCFI60:
	.cfi_def_cfa_offset 0
	mtlr 0
	blr
	.cfi_endproc
.LFE2845:
	.size	_ZN7idClass11PostEventMSEPK10idEventDefi10idEventArgS3_, .-_ZN7idClass11PostEventMSEPK10idEventDefi10idEventArgS3_
	.align 2
	.globl _ZN7idClass11PostEventMSEPK10idEventDefi10idEventArgS3_S3_
	.type	_ZN7idClass11PostEventMSEPK10idEventDefi10idEventArgS3_S3_, @function
_ZN7idClass11PostEventMSEPK10idEventDefi10idEventArgS3_S3_:
.LFB2846:
	.loc 3 693 0
	.cfi_startproc
.LVL160:
	mflr 0
	stwu 1,-8(1)
.LCFI61:
	.cfi_def_cfa_offset 8
	.cfi_register 65, 0
	mr 11,6
	mr 9,8
	.loc 3 694 0
	li 6,3
	.loc 3 693 0
	stw 0,12(1)
	.loc 3 693 0
	mr 0,7
	.cfi_offset 65, 4
	.loc 3 694 0
	mr 8,0
	mr 7,11
	crxor 6,6,6
	bl _ZN7idClass13PostEventArgsEPK10idEventDefiiz
.LVL161:
	.loc 3 695 0
	lwz 0,12(1)
	addi 1,1,8
.LCFI62:
	.cfi_def_cfa_offset 0
	mtlr 0
	blr
	.cfi_endproc
.LFE2846:
	.size	_ZN7idClass11PostEventMSEPK10idEventDefi10idEventArgS3_S3_, .-_ZN7idClass11PostEventMSEPK10idEventDefi10idEventArgS3_S3_
	.align 2
	.globl _ZN7idClass11PostEventMSEPK10idEventDefi10idEventArgS3_S3_S3_
	.type	_ZN7idClass11PostEventMSEPK10idEventDefi10idEventArgS3_S3_S3_, @function
_ZN7idClass11PostEventMSEPK10idEventDefi10idEventArgS3_S3_S3_:
.LFB2847:
	.loc 3 702 0
	.cfi_startproc
.LVL162:
	mflr 0
	stwu 1,-8(1)
.LCFI63:
	.cfi_def_cfa_offset 8
	.cfi_register 65, 0
	mr 12,6
	mr 11,7
	mr 10,9
	.loc 3 703 0
	li 6,4
	.loc 3 702 0
	stw 0,12(1)
	.loc 3 702 0
	mr 0,8
	.cfi_offset 65, 4
	.loc 3 703 0
	mr 9,0
	mr 7,12
	mr 8,11
	crxor 6,6,6
	bl _ZN7idClass13PostEventArgsEPK10idEventDefiiz
.LVL163:
	.loc 3 704 0
	lwz 0,12(1)
	addi 1,1,8
.LCFI64:
	.cfi_def_cfa_offset 0
	mtlr 0
	blr
	.cfi_endproc
.LFE2847:
	.size	_ZN7idClass11PostEventMSEPK10idEventDefi10idEventArgS3_S3_S3_, .-_ZN7idClass11PostEventMSEPK10idEventDefi10idEventArgS3_S3_S3_
	.align 2
	.globl _ZN7idClass11PostEventMSEPK10idEventDefi10idEventArgS3_S3_S3_S3_
	.type	_ZN7idClass11PostEventMSEPK10idEventDefi10idEventArgS3_S3_S3_S3_, @function
_ZN7idClass11PostEventMSEPK10idEventDefi10idEventArgS3_S3_S3_S3_:
.LFB2848:
	.loc 3 711 0
	.cfi_startproc
.LVL164:
	mflr 0
	stwu 1,-24(1)
.LCFI65:
	.cfi_def_cfa_offset 24
	.cfi_register 65, 0
	mr 12,7
	mr 11,8
	stw 31,20(1)
	mr 31,6
	.cfi_offset 31, -4
	stw 0,28(1)
	.loc 3 711 0
	mr 0,9
	.cfi_offset 65, 4
	.loc 3 712 0
	stw 10,8(1)
	mr 7,31
	mr 10,0
	li 6,5
	mr 8,12
	mr 9,11
	crxor 6,6,6
	bl _ZN7idClass13PostEventArgsEPK10idEventDefiiz
.LVL165:
	.loc 3 713 0
	lwz 0,28(1)
	lwz 31,20(1)
	mtlr 0
	addi 1,1,24
.LCFI66:
	.cfi_def_cfa_offset 0
	.cfi_restore 31
	blr
	.cfi_endproc
.LFE2848:
	.size	_ZN7idClass11PostEventMSEPK10idEventDefi10idEventArgS3_S3_S3_S3_, .-_ZN7idClass11PostEventMSEPK10idEventDefi10idEventArgS3_S3_S3_S3_
	.align 2
	.globl _ZN7idClass11PostEventMSEPK10idEventDefi10idEventArgS3_S3_S3_S3_S3_
	.type	_ZN7idClass11PostEventMSEPK10idEventDefi10idEventArgS3_S3_S3_S3_S3_, @function
_ZN7idClass11PostEventMSEPK10idEventDefi10idEventArgS3_S3_S3_S3_S3_:
.LFB2849:
	.loc 3 720 0
	.cfi_startproc
.LVL166:
	mflr 0
	stwu 1,-24(1)
.LCFI67:
	.cfi_def_cfa_offset 24
	.cfi_register 65, 0
	mr 12,7
	mr 11,8
	stw 31,20(1)
	mr 31,6
	.cfi_offset 31, -4
	stw 0,28(1)
	.loc 3 720 0
	mr 0,9
	.cfi_offset 65, 4
	.loc 3 721 0
	stw 10,8(1)
	mr 10,0
	lwz 0,32(1)
	mr 7,31
	li 6,6
	mr 8,12
	mr 9,11
	stw 0,12(1)
	crxor 6,6,6
	bl _ZN7idClass13PostEventArgsEPK10idEventDefiiz
.LVL167:
	.loc 3 722 0
	lwz 0,28(1)
	lwz 31,20(1)
	mtlr 0
	addi 1,1,24
.LCFI68:
	.cfi_def_cfa_offset 0
	.cfi_restore 31
	blr
	.cfi_endproc
.LFE2849:
	.size	_ZN7idClass11PostEventMSEPK10idEventDefi10idEventArgS3_S3_S3_S3_S3_, .-_ZN7idClass11PostEventMSEPK10idEventDefi10idEventArgS3_S3_S3_S3_S3_
	.align 2
	.globl _ZN7idClass11PostEventMSEPK10idEventDefi10idEventArgS3_S3_S3_S3_S3_S3_
	.type	_ZN7idClass11PostEventMSEPK10idEventDefi10idEventArgS3_S3_S3_S3_S3_S3_, @function
_ZN7idClass11PostEventMSEPK10idEventDefi10idEventArgS3_S3_S3_S3_S3_S3_:
.LFB2850:
	.loc 3 729 0
	.cfi_startproc
.LVL168:
	mflr 0
	stwu 1,-32(1)
.LCFI69:
	.cfi_def_cfa_offset 32
	.cfi_register 65, 0
	mr 12,7
	mr 11,8
	.loc 3 730 0
	stw 10,8(1)
	mr 8,12
	.loc 3 729 0
	stw 0,36(1)
	mr 0,9
	.cfi_offset 65, 4
	.loc 3 730 0
	mr 10,0
	lwz 0,40(1)
	.loc 3 729 0
	stw 31,28(1)
	.loc 3 729 0
	mr 31,6
	.cfi_offset 31, -4
	.loc 3 730 0
	stw 0,12(1)
	mr 7,31
	lwz 0,44(1)
	li 6,7
	mr 9,11
	stw 0,16(1)
	crxor 6,6,6
	bl _ZN7idClass13PostEventArgsEPK10idEventDefiiz
.LVL169:
	.loc 3 731 0
	lwz 0,36(1)
	lwz 31,28(1)
	mtlr 0
	addi 1,1,32
.LCFI70:
	.cfi_def_cfa_offset 0
	.cfi_restore 31
	blr
	.cfi_endproc
.LFE2850:
	.size	_ZN7idClass11PostEventMSEPK10idEventDefi10idEventArgS3_S3_S3_S3_S3_S3_, .-_ZN7idClass11PostEventMSEPK10idEventDefi10idEventArgS3_S3_S3_S3_S3_S3_
	.align 2
	.globl _ZN7idClass11PostEventMSEPK10idEventDefi10idEventArgS3_S3_S3_S3_S3_S3_S3_
	.type	_ZN7idClass11PostEventMSEPK10idEventDefi10idEventArgS3_S3_S3_S3_S3_S3_S3_, @function
_ZN7idClass11PostEventMSEPK10idEventDefi10idEventArgS3_S3_S3_S3_S3_S3_S3_:
.LFB2851:
	.loc 3 738 0
	.cfi_startproc
.LVL170:
	mflr 0
	stwu 1,-32(1)
.LCFI71:
	.cfi_def_cfa_offset 32
	.cfi_register 65, 0
	mr 12,7
	mr 11,8
	.loc 3 739 0
	stw 10,8(1)
	mr 8,12
	.loc 3 738 0
	stw 0,36(1)
	mr 0,9
	.cfi_offset 65, 4
	.loc 3 739 0
	mr 10,0
	lwz 0,40(1)
	.loc 3 738 0
	stw 31,28(1)
	.loc 3 738 0
	mr 31,6
	.cfi_offset 31, -4
	.loc 3 739 0
	stw 0,12(1)
	mr 7,31
	lwz 0,44(1)
	li 6,8
	mr 9,11
	stw 0,16(1)
	lwz 0,48(1)
	stw 0,20(1)
	crxor 6,6,6
	bl _ZN7idClass13PostEventArgsEPK10idEventDefiiz
.LVL171:
	.loc 3 740 0
	lwz 0,36(1)
	lwz 31,28(1)
	mtlr 0
	addi 1,1,32
.LCFI72:
	.cfi_def_cfa_offset 0
	.cfi_restore 31
	blr
	.cfi_endproc
.LFE2851:
	.size	_ZN7idClass11PostEventMSEPK10idEventDefi10idEventArgS3_S3_S3_S3_S3_S3_S3_, .-_ZN7idClass11PostEventMSEPK10idEventDefi10idEventArgS3_S3_S3_S3_S3_S3_S3_
	.align 2
	.globl _ZN7idClass12PostEventSecEPK10idEventDeff
	.type	_ZN7idClass12PostEventSecEPK10idEventDeff, @function
_ZN7idClass12PostEventSecEPK10idEventDeff:
.LFB2852:
	.loc 3 747 0
	.cfi_startproc
.LVL172:
	.loc 3 748 0
	lis 9,_ZN6idMath8M_SEC2MSE@ha
	.loc 3 747 0
	stwu 1,-16(1)
.LCFI73:
	.cfi_def_cfa_offset 16
	.loc 3 748 0
	lfs 0,_ZN6idMath8M_SEC2MSE@l(9)
	li 6,0
	addi 9,1,8
	fmuls 0,1,0
	fctiwz 0,0
	stfiwx 0,0,9
	lwz 5,8(1)
	.loc 3 749 0
	addi 1,1,16
.LCFI74:
	.cfi_def_cfa_offset 0
	.loc 3 748 0
	crxor 6,6,6
	b _ZN7idClass13PostEventArgsEPK10idEventDefiiz
.LVL173:
.LVL174:
.LVL175:
.LVL176:
	.cfi_endproc
.LFE2852:
	.size	_ZN7idClass12PostEventSecEPK10idEventDeff, .-_ZN7idClass12PostEventSecEPK10idEventDeff
	.align 2
	.globl _ZN7idClass12PostEventSecEPK10idEventDeff10idEventArg
	.type	_ZN7idClass12PostEventSecEPK10idEventDeff10idEventArg, @function
_ZN7idClass12PostEventSecEPK10idEventDeff10idEventArg:
.LFB2853:
	.loc 3 756 0
	.cfi_startproc
.LVL177:
	.loc 3 757 0
	lis 9,_ZN6idMath8M_SEC2MSE@ha
	.loc 3 756 0
	stwu 1,-16(1)
.LCFI75:
	.cfi_def_cfa_offset 16
	.loc 3 757 0
	lfs 0,_ZN6idMath8M_SEC2MSE@l(9)
	.loc 3 756 0
	mflr 0
	.loc 3 757 0
	addi 9,1,8
	.loc 3 756 0
	mr 7,5
	.loc 3 757 0
	fmuls 0,1,0
	li 6,1
	.loc 3 756 0
	stw 0,20(1)
	.loc 3 757 0
	fctiwz 0,0
	stfiwx 0,0,9
	lwz 5,8(1)
	.cfi_offset 65, 4
	crxor 6,6,6
	bl _ZN7idClass13PostEventArgsEPK10idEventDefiiz
.LVL178:
	.loc 3 758 0
	lwz 0,20(1)
	addi 1,1,16
.LCFI76:
	.cfi_def_cfa_offset 0
	mtlr 0
	blr
	.cfi_endproc
.LFE2853:
	.size	_ZN7idClass12PostEventSecEPK10idEventDeff10idEventArg, .-_ZN7idClass12PostEventSecEPK10idEventDeff10idEventArg
	.align 2
	.globl _ZN7idClass12PostEventSecEPK10idEventDeff10idEventArgS3_
	.type	_ZN7idClass12PostEventSecEPK10idEventDeff10idEventArgS3_, @function
_ZN7idClass12PostEventSecEPK10idEventDeff10idEventArgS3_:
.LFB2854:
	.loc 3 765 0
	.cfi_startproc
.LVL179:
	.loc 3 766 0
	lis 9,_ZN6idMath8M_SEC2MSE@ha
	.loc 3 765 0
	stwu 1,-16(1)
.LCFI77:
	.cfi_def_cfa_offset 16
	.loc 3 766 0
	lfs 0,_ZN6idMath8M_SEC2MSE@l(9)
	.loc 3 765 0
	mflr 0
	.loc 3 766 0
	addi 9,1,8
	.loc 3 765 0
	mr 7,5
	.loc 3 766 0
	fmuls 0,1,0
	.loc 3 765 0
	mr 8,6
	stw 0,20(1)
	.loc 3 766 0
	li 6,2
	fctiwz 0,0
	stfiwx 0,0,9
	lwz 5,8(1)
	.cfi_offset 65, 4
	crxor 6,6,6
	bl _ZN7idClass13PostEventArgsEPK10idEventDefiiz
.LVL180:
	.loc 3 767 0
	lwz 0,20(1)
	addi 1,1,16
.LCFI78:
	.cfi_def_cfa_offset 0
	mtlr 0
	blr
	.cfi_endproc
.LFE2854:
	.size	_ZN7idClass12PostEventSecEPK10idEventDeff10idEventArgS3_, .-_ZN7idClass12PostEventSecEPK10idEventDeff10idEventArgS3_
	.align 2
	.globl _ZN7idClass12PostEventSecEPK10idEventDeff10idEventArgS3_S3_
	.type	_ZN7idClass12PostEventSecEPK10idEventDeff10idEventArgS3_S3_, @function
_ZN7idClass12PostEventSecEPK10idEventDeff10idEventArgS3_S3_:
.LFB2855:
	.loc 3 774 0
	.cfi_startproc
.LVL181:
	.loc 3 775 0
	lis 9,_ZN6idMath8M_SEC2MSE@ha
	.loc 3 774 0
	stwu 1,-16(1)
.LCFI79:
	.cfi_def_cfa_offset 16
	.loc 3 775 0
	lfs 0,_ZN6idMath8M_SEC2MSE@l(9)
	.loc 3 774 0
	mflr 0
	.loc 3 775 0
	addi 11,1,8
	.loc 3 774 0
	mr 9,7
	.loc 3 775 0
	fmuls 0,1,0
	mr 7,5
	.loc 3 774 0
	stw 0,20(1)
	.loc 3 774 0
	mr 8,6
	.loc 3 775 0
	li 6,3
	fctiwz 0,0
	stfiwx 0,0,11
	lwz 5,8(1)
	.cfi_offset 65, 4
	crxor 6,6,6
	bl _ZN7idClass13PostEventArgsEPK10idEventDefiiz
.LVL182:
	.loc 3 776 0
	lwz 0,20(1)
	addi 1,1,16
.LCFI80:
	.cfi_def_cfa_offset 0
	mtlr 0
	blr
	.cfi_endproc
.LFE2855:
	.size	_ZN7idClass12PostEventSecEPK10idEventDeff10idEventArgS3_S3_, .-_ZN7idClass12PostEventSecEPK10idEventDeff10idEventArgS3_S3_
	.align 2
	.globl _ZN7idClass12PostEventSecEPK10idEventDeff10idEventArgS3_S3_S3_
	.type	_ZN7idClass12PostEventSecEPK10idEventDeff10idEventArgS3_S3_S3_, @function
_ZN7idClass12PostEventSecEPK10idEventDeff10idEventArgS3_S3_S3_:
.LFB2856:
	.loc 3 783 0
	.cfi_startproc
.LVL183:
	.loc 3 784 0
	lis 9,_ZN6idMath8M_SEC2MSE@ha
	.loc 3 783 0
	stwu 1,-16(1)
.LCFI81:
	.cfi_def_cfa_offset 16
	.loc 3 784 0
	lfs 0,_ZN6idMath8M_SEC2MSE@l(9)
	.loc 3 783 0
	mflr 0
	mr 10,8
	.loc 3 784 0
	addi 8,1,8
	fmuls 0,1,0
	.loc 3 783 0
	mr 11,5
	stw 0,20(1)
	.loc 3 783 0
	mr 0,6
	mr 9,7
	.loc 3 784 0
	li 6,4
	fctiwz 0,0
	mr 7,11
	stfiwx 0,0,8
	mr 8,0
	lwz 5,8(1)
	.cfi_offset 65, 4
	crxor 6,6,6
	bl _ZN7idClass13PostEventArgsEPK10idEventDefiiz
.LVL184:
	.loc 3 785 0
	lwz 0,20(1)
	addi 1,1,16
.LCFI82:
	.cfi_def_cfa_offset 0
	mtlr 0
	blr
	.cfi_endproc
.LFE2856:
	.size	_ZN7idClass12PostEventSecEPK10idEventDeff10idEventArgS3_S3_S3_, .-_ZN7idClass12PostEventSecEPK10idEventDeff10idEventArgS3_S3_S3_
	.align 2
	.globl _ZN7idClass12PostEventSecEPK10idEventDeff10idEventArgS3_S3_S3_S3_
	.type	_ZN7idClass12PostEventSecEPK10idEventDeff10idEventArgS3_S3_S3_S3_, @function
_ZN7idClass12PostEventSecEPK10idEventDeff10idEventArgS3_S3_S3_S3_:
.LFB2857:
	.loc 3 792 0
	.cfi_startproc
.LVL185:
	.loc 3 793 0
	lis 11,_ZN6idMath8M_SEC2MSE@ha
	.loc 3 792 0
	stwu 1,-24(1)
.LCFI83:
	.cfi_def_cfa_offset 24
	.loc 3 793 0
	lfs 0,_ZN6idMath8M_SEC2MSE@l(11)
	.loc 3 792 0
	mflr 0
	mr 10,8
	.loc 3 793 0
	addi 8,1,16
	fmuls 0,1,0
	.loc 3 792 0
	mr 12,5
	stw 0,28(1)
	.loc 3 792 0
	mr 11,6
	mr 0,7
	.loc 3 793 0
	li 6,5
	fctiwz 0,0
	mr 7,12
	stfiwx 0,0,8
	mr 8,11
	stw 9,8(1)
	mr 9,0
	lwz 5,16(1)
	.cfi_offset 65, 4
	crxor 6,6,6
	bl _ZN7idClass13PostEventArgsEPK10idEventDefiiz
.LVL186:
	.loc 3 794 0
	lwz 0,28(1)
	addi 1,1,24
.LCFI84:
	.cfi_def_cfa_offset 0
	mtlr 0
	blr
	.cfi_endproc
.LFE2857:
	.size	_ZN7idClass12PostEventSecEPK10idEventDeff10idEventArgS3_S3_S3_S3_, .-_ZN7idClass12PostEventSecEPK10idEventDeff10idEventArgS3_S3_S3_S3_
	.align 2
	.globl _ZN7idClass12PostEventSecEPK10idEventDeff10idEventArgS3_S3_S3_S3_S3_
	.type	_ZN7idClass12PostEventSecEPK10idEventDeff10idEventArgS3_S3_S3_S3_S3_, @function
_ZN7idClass12PostEventSecEPK10idEventDeff10idEventArgS3_S3_S3_S3_S3_:
.LFB2858:
	.loc 3 801 0
	.cfi_startproc
.LVL187:
	.loc 3 802 0
	lis 11,_ZN6idMath8M_SEC2MSE@ha
	.loc 3 801 0
	mflr 0
	.loc 3 802 0
	lfs 0,_ZN6idMath8M_SEC2MSE@l(11)
	.loc 3 801 0
	mr 12,6
	stwu 1,-32(1)
.LCFI85:
	.cfi_def_cfa_offset 32
	.cfi_register 65, 0
	mr 11,7
	.loc 3 802 0
	fmuls 0,1,0
	li 6,6
	.loc 3 801 0
	stw 0,36(1)
	mr 0,8
	.cfi_offset 65, 4
	.loc 3 802 0
	addi 8,1,16
	.loc 3 801 0
	stw 31,28(1)
	.loc 3 802 0
	fctiwz 0,0
	.loc 3 801 0
	mr 31,5
	.cfi_offset 31, -4
	.loc 3 802 0
	mr 7,31
	stfiwx 0,0,8
	mr 8,12
	stw 9,8(1)
	mr 9,11
	lwz 5,16(1)
	stw 10,12(1)
	mr 10,0
	crxor 6,6,6
	bl _ZN7idClass13PostEventArgsEPK10idEventDefiiz
.LVL188:
	.loc 3 803 0
	lwz 0,36(1)
	lwz 31,28(1)
	mtlr 0
	addi 1,1,32
.LCFI86:
	.cfi_def_cfa_offset 0
	.cfi_restore 31
	blr
	.cfi_endproc
.LFE2858:
	.size	_ZN7idClass12PostEventSecEPK10idEventDeff10idEventArgS3_S3_S3_S3_S3_, .-_ZN7idClass12PostEventSecEPK10idEventDeff10idEventArgS3_S3_S3_S3_S3_
	.align 2
	.globl _ZN7idClass12PostEventSecEPK10idEventDeff10idEventArgS3_S3_S3_S3_S3_S3_
	.type	_ZN7idClass12PostEventSecEPK10idEventDeff10idEventArgS3_S3_S3_S3_S3_S3_, @function
_ZN7idClass12PostEventSecEPK10idEventDeff10idEventArgS3_S3_S3_S3_S3_S3_:
.LFB2859:
	.loc 3 810 0
	.cfi_startproc
.LVL189:
	.loc 3 811 0
	lis 11,_ZN6idMath8M_SEC2MSE@ha
	.loc 3 810 0
	mflr 0
	.loc 3 811 0
	lfs 0,_ZN6idMath8M_SEC2MSE@l(11)
	.loc 3 810 0
	mr 12,6
	stwu 1,-40(1)
.LCFI87:
	.cfi_def_cfa_offset 40
	.cfi_register 65, 0
	mr 11,7
	.loc 3 811 0
	fmuls 0,1,0
	li 6,7
	.loc 3 810 0
	stw 0,44(1)
	mr 0,8
	.cfi_offset 65, 4
	.loc 3 811 0
	addi 8,1,24
	.loc 3 810 0
	stw 31,36(1)
	.loc 3 811 0
	fctiwz 0,0
	.loc 3 810 0
	mr 31,5
	.cfi_offset 31, -4
	.loc 3 811 0
	mr 7,31
	stfiwx 0,0,8
	mr 8,12
	stw 10,12(1)
	mr 10,0
	lwz 5,24(1)
	lwz 0,48(1)
	stw 9,8(1)
	mr 9,11
	stw 0,16(1)
	crxor 6,6,6
	bl _ZN7idClass13PostEventArgsEPK10idEventDefiiz
.LVL190:
	.loc 3 812 0
	lwz 0,44(1)
	lwz 31,36(1)
	mtlr 0
	addi 1,1,40
.LCFI88:
	.cfi_def_cfa_offset 0
	.cfi_restore 31
	blr
	.cfi_endproc
.LFE2859:
	.size	_ZN7idClass12PostEventSecEPK10idEventDeff10idEventArgS3_S3_S3_S3_S3_S3_, .-_ZN7idClass12PostEventSecEPK10idEventDeff10idEventArgS3_S3_S3_S3_S3_S3_
	.align 2
	.globl _ZN7idClass12PostEventSecEPK10idEventDeff10idEventArgS3_S3_S3_S3_S3_S3_S3_
	.type	_ZN7idClass12PostEventSecEPK10idEventDeff10idEventArgS3_S3_S3_S3_S3_S3_S3_, @function
_ZN7idClass12PostEventSecEPK10idEventDeff10idEventArgS3_S3_S3_S3_S3_S3_S3_:
.LFB2860:
	.loc 3 819 0
	.cfi_startproc
.LVL191:
	.loc 3 820 0
	lis 11,_ZN6idMath8M_SEC2MSE@ha
	.loc 3 819 0
	mflr 0
	.loc 3 820 0
	lfs 0,_ZN6idMath8M_SEC2MSE@l(11)
	.loc 3 819 0
	mr 12,6
	stwu 1,-40(1)
.LCFI89:
	.cfi_def_cfa_offset 40
	.cfi_register 65, 0
	mr 11,7
	.loc 3 820 0
	fmuls 0,1,0
	li 6,8
	.loc 3 819 0
	stw 0,44(1)
	mr 0,8
	.cfi_offset 65, 4
	.loc 3 820 0
	addi 8,1,24
	.loc 3 819 0
	stw 31,36(1)
	.loc 3 820 0
	fctiwz 0,0
	.loc 3 819 0
	mr 31,5
	.cfi_offset 31, -4
	.loc 3 820 0
	mr 7,31
	stfiwx 0,0,8
	mr 8,12
	stw 10,12(1)
	mr 10,0
	lwz 0,48(1)
	lwz 5,24(1)
	stw 0,16(1)
	lwz 0,52(1)
	stw 9,8(1)
	mr 9,11
	stw 0,20(1)
	crxor 6,6,6
	bl _ZN7idClass13PostEventArgsEPK10idEventDefiiz
.LVL192:
	.loc 3 821 0
	lwz 0,44(1)
	lwz 31,36(1)
	mtlr 0
	addi 1,1,40
.LCFI90:
	.cfi_def_cfa_offset 0
	.cfi_restore 31
	blr
	.cfi_endproc
.LFE2860:
	.size	_ZN7idClass12PostEventSecEPK10idEventDeff10idEventArgS3_S3_S3_S3_S3_S3_S3_, .-_ZN7idClass12PostEventSecEPK10idEventDeff10idEventArgS3_S3_S3_S3_S3_S3_S3_
	.align 2
	.globl _ZN7idClass18ProcessEventArgPtrEPK10idEventDefPi
	.type	_ZN7idClass18ProcessEventArgPtrEPK10idEventDefPi, @function
_ZN7idClass18ProcessEventArgPtrEPK10idEventDefPi:
.LFB2871:
	.loc 3 939 0
	.cfi_startproc
.LVL193:
	mflr 0
	stwu 1,-48(1)
.LCFI91:
	.cfi_def_cfa_offset 48
	.cfi_register 65, 0
.LBB669:
.LBB670:
.LBB671:
.LBB672:
	.loc 3 947 0
	lis 9,g_debugTriggers+44@ha
.LBE672:
.LBE671:
.LBE670:
.LBE669:
	.loc 3 939 0
	stw 29,36(1)
	mr 29,4
	.cfi_offset 29, -12
	stw 30,40(1)
	mr 30,3
	.cfi_offset 30, -8
	stw 31,44(1)
	mr 31,5
	.cfi_offset 31, -4
	stw 0,52(1)
	stw 25,20(1)
	stw 26,24(1)
	stw 27,28(1)
	stw 28,32(1)
.LBB819:
.LBB682:
.LBB674:
.LBB673:
	.file 5 "d:/Data/Nintendo/DoomGX/src/game/gamesys/../../idlib/../framework/CVarSystem.h"
	.loc 5 142 0
	lwz 9,g_debugTriggers+44@l(9)
.LBE673:
.LBE674:
	.loc 3 947 0
	lwz 0,36(9)
	.cfi_offset 28, -16
	.cfi_offset 27, -20
	.cfi_offset 26, -24
	.cfi_offset 25, -28
	.cfi_offset 65, 4
	cmpwi 7,0,0
	beq- 7,.L1788
	.loc 3 947 0 is_stmt 0 discriminator 1
	lis 9,EV_Activate@ha
	la 0,EV_Activate@l(9)
	cmpw 7,4,0
	beq- 7,.L1911
.LVL194:
.L1788:
.LBE682:
	.loc 3 952 0 is_stmt 1
	lwz 9,0(30)
	mr 3,30
	lwz 0,0(9)
	mtctr 0
	bctrl
.LVL195:
	.loc 3 954 0
	lwz 0,56(29)
	lwz 11,40(3)
	.loc 3 956 0
	li 3,0
.LVL196:
	.loc 3 954 0
	slwi 9,0,3
	lwzx 0,11,9
	add 9,11,9
	cmpwi 7,0,0
	beq- 7,.L126
.LBB683:
	.loc 3 970 0
	lwz 11,8(29)
	lis 10,0x1
.LBE683:
	.loc 3 959 0
	lwz 9,4(9)
.LVL197:
.LBB813:
	.loc 3 970 0
	cmpw 7,11,10
	beq- 7,.L383
	cmplw 7,11,10
	ble- 7,.L1912
	lis 10,0x1
	ori 10,10,128
	cmpw 7,11,10
	beq- 7,.L511
	cmplw 7,11,10
	lis 10,0x1
	ble- 7,.L1913
	ori 10,10,192
	cmpw 7,11,10
	beq- 7,.L575
	cmplw 7,11,10
	lis 10,0x1
	ble- 7,.L1914
	ori 10,10,224
	cmpw 7,11,10
	beq- 7,.L607
	cmplw 7,11,10
	lis 10,0x1
	bgt- 7,.L751
	ori 10,10,208
	cmpw 7,11,10
	beq- 7,.L591
	lis 10,0x1
	ori 10,10,208
	cmplw 7,11,10
	lis 10,0x1
	bgt- 7,.L752
	ori 10,10,200
	cmpw 7,11,10
	beq- 7,.L583
	cmplw 7,11,10
	lis 10,0x1
	bgt- 7,.L753
	ori 10,10,196
	cmpw 7,11,10
	beq- 7,.L579
	cmplw 7,11,10
	lis 10,0x1
	ble- 7,$+8
	b .L754
	ori 10,10,194
	cmpw 7,11,10
	beq- 7,.L577
	cmplw 7,11,10
	ble- 7,.L1915
.LBB684:
	.file 6 "d:/Data/Nintendo/DoomGX/src/game/gamesys/Callbacks.hpp"
	.loc 6 2324 0
	andi. 11,0,1
	bne- 0,.L1666
	add 9,30,9
.L1667:
	.loc 6 2324 0 is_stmt 0 discriminator 3
	mr 3,9
	lfs 1,0(31)
	lfs 2,4(31)
	mtctr 0
	lwz 4,8(31)
	lwz 5,12(31)
	lwz 6,16(31)
	lwz 7,20(31)
	lfs 3,24(31)
	lfs 4,28(31)
	bctrl
	.loc 3 1039 0 is_stmt 1 discriminator 3
	li 3,1
.L126:
.LBE684:
.LBE813:
.LBE819:
	.loc 3 1040 0
	lwz 0,52(1)
	lwz 25,20(1)
	mtlr 0
	lwz 26,24(1)
	lwz 27,28(1)
	lwz 28,32(1)
	lwz 29,36(1)
.LVL198:
	lwz 30,40(1)
.LVL199:
	lwz 31,44(1)
.LVL200:
	addi 1,1,48
	.cfi_remember_state
.LCFI92:
	.cfi_def_cfa_offset 0
	.cfi_restore 31
	.cfi_restore 30
	.cfi_restore 29
	.cfi_restore 28
	.cfi_restore 27
	.cfi_restore 26
	.cfi_restore 25
	blr
.LVL201:
.L1912:
.LCFI93:
	.cfi_restore_state
.LBB820:
.LBB814:
	.loc 3 970 0
	xoris 10,11,0xffff
	cmpwi 7,10,-32768
	beq 7,.L255
	cmplwi 7,11,32768
	ble- 7,.L1916
	xoris 10,11,0xffff
	cmpwi 7,10,-32704
	beq 7,.L319
	cmplwi 7,11,32832
	li 10,0
	ble- 7,.L1917
	ori 10,10,32864
	cmpw 7,11,10
	beq- 7,.L351
	cmplwi 7,11,32864
	li 10,0
	bgt- 7,.L688
	ori 10,10,32848
	cmpw 7,11,10
	beq- 7,.L335
	cmplwi 7,11,32848
	li 10,0
	bgt- 7,.L689
	ori 10,10,32840
	cmpw 7,11,10
	beq- 7,.L327
	cmplwi 7,11,32840
	li 10,0
	bgt- 7,.L690
	ori 10,10,32836
	cmpw 7,11,10
	beq- 7,.L323
	cmplwi 7,11,32836
	li 10,0
	ble- 7,$+8
	b .L691
	ori 10,10,32834
	cmpw 7,11,10
	beq- 7,.L321
	cmplwi 7,11,32834
	ble- 7,.L1918
.LBB685:
	.loc 6 1038 0
	andi. 11,0,1
	bne- 0,.L1154
	add 9,30,9
.L1155:
	.loc 6 1038 0 is_stmt 0 discriminator 3
	mr 3,9
	lfs 1,0(31)
	lfs 2,4(31)
	mtctr 0
	lwz 4,8(31)
	lwz 5,12(31)
	lwz 6,16(31)
	lwz 7,20(31)
	lfs 3,24(31)
	bctrl
	.loc 3 1039 0 is_stmt 1 discriminator 3
	li 3,1
	.loc 6 1039 0 discriminator 3
	b .L126
.L1913:
.LBE685:
	.loc 3 970 0
	ori 10,10,64
	cmpw 7,11,10
	beq- 7,.L447
	cmplw 7,11,10
	lis 10,0x1
	ble- 7,.L1919
	ori 10,10,96
	cmpw 7,11,10
	beq- 7,.L479
	cmplw 7,11,10
	lis 10,0x1
	bgt- 7,.L720
	ori 10,10,80
	cmpw 7,11,10
	beq- 7,.L463
	lis 10,0x1
	ori 10,10,80
	cmplw 7,11,10
	lis 10,0x1
	bgt- 7,.L721
	ori 10,10,72
	cmpw 7,11,10
	beq- 7,.L455
	cmplw 7,11,10
	lis 10,0x1
	bgt- 7,.L722
	ori 10,10,68
	cmpw 7,11,10
	beq- 7,.L451
	cmplw 7,11,10
	lis 10,0x1
	ble- 7,$+8
	b .L723
	ori 10,10,66
	cmpw 7,11,10
	beq- 7,.L449
	cmplw 7,11,10
	ble- 7,.L1920
.LBB686:
	.loc 6 1684 0
	andi. 11,0,1
	bne- 0,.L1410
	add 9,30,9
.L1411:
	.loc 6 1684 0 is_stmt 0 discriminator 3
	mr 3,9
	lfs 1,0(31)
	lfs 2,4(31)
	mtctr 0
	lwz 4,8(31)
	lwz 5,12(31)
	lwz 6,16(31)
	lwz 7,20(31)
	lfs 3,24(31)
	lwz 8,28(31)
	bctrl
	.loc 3 1039 0 is_stmt 1 discriminator 3
	li 3,1
	.loc 6 1685 0 discriminator 3
	b .L126
.L1916:
.LBE686:
	.loc 3 970 0
	cmpwi 7,11,16384
	beq- 7,.L191
	cmplwi 7,11,16384
	ble- 7,.L1921
	cmpwi 7,11,16416
	beq- 7,.L223
	cmplwi 7,11,16416
	bgt- 7,.L657
	cmpwi 7,11,16400
	beq- 7,.L207
	cmplwi 7,11,16400
	bgt- 7,.L658
	cmpwi 7,11,16392
	beq- 7,.L199
	cmplwi 7,11,16392
	bgt- 7,.L659
	cmpwi 7,11,16388
	beq- 7,.L195
	cmplwi 7,11,16388
	ble- 7,$+8
	b .L660
	cmpwi 7,11,16386
	beq- 7,.L193
	cmplwi 7,11,16386
	ble- 7,.L1922
.LBB687:
	.loc 6 392 0
	andi. 11,0,1
	bne- 0,.L898
	add 9,30,9
.L899:
	.loc 6 392 0 is_stmt 0 discriminator 3
	mr 3,9
	lfs 1,0(31)
	lfs 2,4(31)
	mtctr 0
	lwz 4,8(31)
	lwz 5,12(31)
	lwz 6,16(31)
	lwz 7,20(31)
	bctrl
	.loc 3 1039 0 is_stmt 1 discriminator 3
	li 3,1
	.loc 6 393 0 discriminator 3
	b .L126
.L1917:
.LBE687:
	.loc 3 970 0
	ori 10,10,32800
	cmpw 7,11,10
	beq- 7,.L287
	cmplwi 7,11,32800
	li 10,0
	bgt- 7,.L673
	ori 10,10,32784
	cmpw 7,11,10
	beq- 7,.L271
	cmplwi 7,11,32784
	li 10,0
	bgt- 7,.L674
	ori 10,10,32776
	cmpw 7,11,10
	beq- 7,.L263
	cmplwi 7,11,32776
	li 10,0
	bgt- 7,.L675
	ori 10,10,32772
	cmpw 7,11,10
	beq- 7,.L259
	cmplwi 7,11,32772
	li 10,0
	ble- 7,$+8
	b .L676
	ori 10,10,32770
	cmpw 7,11,10
	beq- 7,.L257
	cmplwi 7,11,32770
	ble- 7,.L1923
.LBB688:
	.loc 6 718 0
	andi. 11,0,1
	bne- 0,.L1026
	add 9,30,9
.L1027:
	.loc 6 718 0 is_stmt 0 discriminator 3
	mr 3,9
	lfs 1,0(31)
	lfs 2,4(31)
	mtctr 0
	lwz 4,8(31)
	lwz 5,12(31)
	lwz 6,16(31)
	lwz 7,20(31)
	lwz 8,24(31)
	bctrl
	.loc 3 1039 0 is_stmt 1 discriminator 3
	li 3,1
	.loc 6 719 0 discriminator 3
	b .L126
.L1921:
.LBE688:
	.loc 3 970 0
	cmpwi 7,11,8192
	beq- 7,.L159
	cmplwi 7,11,8192
	bgt- 7,.L642
	cmpwi 7,11,4096
	beq- 7,.L143
	cmplwi 7,11,4096
	bgt- 7,.L643
	cmpwi 7,11,2048
	beq- 7,.L135
	cmplwi 7,11,2048
	bgt- 7,.L644
	cmpwi 7,11,1024
	beq- 7,.L131
	cmplwi 7,11,1024
	ble- 7,$+8
	b .L645
	cmpwi 7,11,512
	beq- 7,.L129
	cmpwi 7,11,513
	beq- 7,.L130
	cmpwi 7,11,256
	beq- 7,.L1924
.L127:
.LBB689:
	.loc 3 979 0
	lwz 5,0(29)
	lis 3,gameLocal@ha
	lis 4,.LC13@ha
	la 3,gameLocal@l(3)
	la 4,.LC13@l(4)
	crxor 6,6,6
	bl _ZNK11idGameLocal7WarningEPKcz
	.loc 3 1039 0
	li 3,1
	.loc 3 980 0
	b .L126
.L1919:
.LBE689:
	.loc 3 970 0
	ori 10,10,32
	cmpw 7,11,10
	beq- 7,.L415
	cmplw 7,11,10
	lis 10,0x1
	bgt- 7,.L705
	ori 10,10,16
	cmpw 7,11,10
	beq- 7,.L399
	lis 10,0x1
	ori 10,10,16
	cmplw 7,11,10
	lis 10,0x1
	bgt- 7,.L706
	ori 10,10,8
	cmpw 7,11,10
	beq- 7,.L391
	cmplw 7,11,10
	lis 10,0x1
	bgt- 7,.L707
	ori 10,10,4
	cmpw 7,11,10
	beq- 7,.L387
	cmplw 7,11,10
	lis 10,0x1
	ble- 7,$+8
	b .L708
	ori 10,10,2
	cmpw 7,11,10
	beq- 7,.L385
	cmplw 7,11,10
	ble- 7,.L1925
.LBB690:
	.loc 6 1364 0
	andi. 11,0,1
	bne- 0,.L1282
	add 9,30,9
.L1283:
	.loc 6 1364 0 is_stmt 0 discriminator 3
	mr 3,9
	lfs 1,0(31)
	lfs 2,4(31)
	mtctr 0
	lwz 4,8(31)
	lwz 5,12(31)
	lwz 6,16(31)
	lwz 7,20(31)
	lwz 8,24(31)
	lwz 9,28(31)
	bctrl
	.loc 3 1039 0 is_stmt 1 discriminator 3
	li 3,1
	.loc 6 1365 0 discriminator 3
	b .L126
.L1914:
.LBE690:
	.loc 3 970 0
	ori 10,10,160
	cmpw 7,11,10
	beq- 7,.L543
	cmplw 7,11,10
	lis 10,0x1
	bgt- 7,.L736
	ori 10,10,144
	cmpw 7,11,10
	beq- 7,.L527
	lis 10,0x1
	ori 10,10,144
	cmplw 7,11,10
	lis 10,0x1
	bgt- 7,.L737
	ori 10,10,136
	cmpw 7,11,10
	beq- 7,.L519
	cmplw 7,11,10
	lis 10,0x1
	bgt- 7,.L738
	ori 10,10,132
	cmpw 7,11,10
	beq- 7,.L515
	cmplw 7,11,10
	lis 10,0x1
	ble- 7,$+8
	b .L739
	ori 10,10,130
	cmpw 7,11,10
	beq- 7,.L513
	cmplw 7,11,10
	ble- 7,.L1926
.LBB691:
	.loc 6 2004 0
	andi. 11,0,1
	bne- 0,.L1538
	add 9,30,9
.L1539:
	.loc 6 2004 0 is_stmt 0 discriminator 3
	mr 3,9
	lfs 1,0(31)
	lfs 2,4(31)
	mtctr 0
	lwz 4,8(31)
	lwz 5,12(31)
	lwz 6,16(31)
	lwz 7,20(31)
	lwz 8,24(31)
	lfs 3,28(31)
	bctrl
	.loc 3 1039 0 is_stmt 1 discriminator 3
	li 3,1
	.loc 6 2005 0 discriminator 3
	b .L126
.L1911:
.LVL202:
.LBE691:
.LBE814:
.LBB815:
.LBB675:
.LBB676:
	.loc 2 340 0
	lwz 9,0(3)
	lwz 0,0(9)
	mtctr 0
	bctrl
.LVL203:
.LBE676:
	.loc 3 1059 0
	lis 9,_ZN8idEntity4TypeE@ha
	la 9,_ZN8idEntity4TypeE@l(9)
	lwz 0,56(3)
.LBB679:
.LBB677:
.LBB678:
	.loc 2 311 0
	lwz 11,56(9)
	cmpw 7,0,11
	blt- 7,.L1788
	lwz 9,60(9)
	cmpw 7,0,9
	bgt- 7,.L1788
.LBE678:
.LBE677:
.LBE679:
.LBE675:
.LBB680:
	.loc 3 949 0 discriminator 5
	lis 26,gameLocal@ha
	.loc 3 948 0 discriminator 5
	lwz 25,0(31)
.LVL204:
	.loc 3 949 0 discriminator 5
	la 26,gameLocal@l(26)
	mr 3,30
.LVL205:
	addis 9,26,0x25
	lwz 27,1996(9)
	bl _ZNK8idEntity7GetNameEv
.LVL206:
	cmpwi 7,25,0
	mr 28,3
	beq- 7,.L1789
	.loc 3 949 0 is_stmt 0 discriminator 1
	mr 3,25
	bl _ZNK8idEntity7GetNameEv
	mr 7,3
.L125:
	.loc 3 949 0 discriminator 3
	lis 4,.LC12@ha
	mr 3,26
	la 4,.LC12@l(4)
	mr 5,27
	mr 6,28
	crxor 6,6,6
	bl _ZNK11idGameLocal6PrintfEPKcz
	b .L1788
.LVL207:
.L673:
.LBE680:
.LBE815:
.LBB816:
	.loc 3 970 0 is_stmt 1
	ori 10,10,32816
	cmpw 7,11,10
	beq- 7,.L303
	cmplwi 7,11,32816
	li 10,0
	bgt- 7,.L681
	ori 10,10,32808
	cmpw 7,11,10
	beq- 7,.L295
	cmplwi 7,11,32808
	li 10,0
	bgt- 7,.L682
	ori 10,10,32804
	cmpw 7,11,10
	beq- 7,.L291
	cmplwi 7,11,32804
	li 10,0
	ble- 7,$+8
	b .L683
	ori 10,10,32802
	cmpw 7,11,10
	beq- 7,.L289
	cmplwi 7,11,32802
	ble- 7,.L1927
.LBB692:
	.loc 6 878 0
	andi. 11,0,1
	bne- 0,.L1090
	add 9,30,9
.L1091:
	.loc 6 878 0 is_stmt 0 discriminator 3
	mr 3,9
	lfs 1,0(31)
	lfs 2,4(31)
	mtctr 0
	lwz 4,8(31)
	lwz 5,12(31)
	lwz 6,16(31)
	lfs 3,20(31)
	lwz 7,24(31)
	bctrl
	.loc 3 1039 0 is_stmt 1 discriminator 3
	li 3,1
	.loc 6 879 0 discriminator 3
	b .L126
.L642:
.LBE692:
	.loc 3 970 0
	cmpwi 7,11,8208
	beq- 7,.L175
	cmplwi 7,11,8208
	bgt- 7,.L650
	cmpwi 7,11,8200
	beq- 7,.L167
	cmplwi 7,11,8200
	bgt- 7,.L651
	cmpwi 7,11,8196
	beq- 7,.L163
	cmplwi 7,11,8196
	ble- 7,$+8
	b .L652
	cmpwi 7,11,8194
	beq- 7,.L161
	cmplwi 7,11,8194
	ble- 7,.L1928
.LBB693:
	.loc 6 226 0
	andi. 11,0,1
	bne- 0,.L834
	add 9,30,9
.L835:
	.loc 6 226 0 is_stmt 0 discriminator 3
	mr 3,9
	lfs 1,0(31)
	lfs 2,4(31)
	mtctr 0
	lwz 4,8(31)
	lwz 5,12(31)
	lwz 6,16(31)
	bctrl
	.loc 3 1039 0 is_stmt 1 discriminator 3
	li 3,1
	.loc 6 227 0 discriminator 3
	b .L126
.L688:
.LBE693:
	.loc 3 970 0
	ori 10,10,32880
	cmpw 7,11,10
	beq- 7,.L367
	cmplwi 7,11,32880
	li 10,0
	bgt- 7,.L696
	ori 10,10,32872
	cmpw 7,11,10
	beq- 7,.L359
	cmplwi 7,11,32872
	li 10,0
	bgt- 7,.L697
	ori 10,10,32868
	cmpw 7,11,10
	beq- 7,.L355
	cmplwi 7,11,32868
	li 10,0
	ble- 7,$+8
	b .L698
	ori 10,10,32866
	cmpw 7,11,10
	beq- 7,.L353
	cmplwi 7,11,32866
	ble- 7,.L1929
.LBB694:
	.loc 6 1198 0
	andi. 11,0,1
	bne- 0,.L1218
	add 9,30,9
.L1219:
	.loc 6 1198 0 is_stmt 0 discriminator 3
	mr 3,9
	lfs 1,0(31)
	lfs 2,4(31)
	mtctr 0
	lwz 4,8(31)
	lwz 5,12(31)
	lwz 6,16(31)
	lfs 3,20(31)
	lfs 4,24(31)
	bctrl
	.loc 3 1039 0 is_stmt 1 discriminator 3
	li 3,1
	.loc 6 1199 0 discriminator 3
	b .L126
.L657:
.LBE694:
	.loc 3 970 0
	cmpwi 7,11,16432
	beq- 7,.L239
	cmplwi 7,11,16432
	bgt- 7,.L665
	cmpwi 7,11,16424
	beq- 7,.L231
	cmplwi 7,11,16424
	bgt- 7,.L666
	cmpwi 7,11,16420
	beq- 7,.L227
	cmplwi 7,11,16420
	ble- 7,$+8
	b .L667
	cmpwi 7,11,16418
	beq- 7,.L225
	cmplwi 7,11,16418
	ble- 7,.L1930
.LBB695:
	.loc 6 552 0
	andi. 11,0,1
	bne- 0,.L962
	add 9,30,9
.L963:
	.loc 6 552 0 is_stmt 0 discriminator 3
	mr 3,9
	lfs 1,0(31)
	lfs 2,4(31)
	mtctr 0
	lwz 4,8(31)
	lwz 5,12(31)
	lwz 6,16(31)
	lfs 3,20(31)
	bctrl
	.loc 3 1039 0 is_stmt 1 discriminator 3
	li 3,1
	.loc 6 553 0 discriminator 3
	b .L126
.L705:
.LBE695:
	.loc 3 970 0
	ori 10,10,48
	cmpw 7,11,10
	beq- 7,.L431
	lis 10,0x1
	ori 10,10,48
	cmplw 7,11,10
	lis 10,0x1
	bgt- 7,.L713
	ori 10,10,40
	cmpw 7,11,10
	beq- 7,.L423
	cmplw 7,11,10
	lis 10,0x1
	bgt- 7,.L714
	ori 10,10,36
	cmpw 7,11,10
	beq- 7,.L419
	cmplw 7,11,10
	lis 10,0x1
	ble- 7,$+8
	b .L715
	ori 10,10,34
	cmpw 7,11,10
	beq- 7,.L417
	cmplw 7,11,10
	ble- 7,.L1931
.LBB696:
	.loc 6 1524 0
	andi. 11,0,1
	bne- 0,.L1346
	add 9,30,9
.L1347:
	.loc 6 1524 0 is_stmt 0 discriminator 3
	mr 3,9
	lfs 1,0(31)
	lfs 2,4(31)
	mtctr 0
	lwz 4,8(31)
	lwz 5,12(31)
	lwz 6,16(31)
	lfs 3,20(31)
	lwz 7,24(31)
	lwz 8,28(31)
	bctrl
	.loc 3 1039 0 is_stmt 1 discriminator 3
	li 3,1
	.loc 6 1525 0 discriminator 3
	b .L126
.L720:
.LBE696:
	.loc 3 970 0
	ori 10,10,112
	cmpw 7,11,10
	beq- 7,.L495
	lis 10,0x1
	ori 10,10,112
	cmplw 7,11,10
	lis 10,0x1
	bgt- 7,.L728
	ori 10,10,104
	cmpw 7,11,10
	beq- 7,.L487
	cmplw 7,11,10
	lis 10,0x1
	bgt- 7,.L729
	ori 10,10,100
	cmpw 7,11,10
	beq- 7,.L483
	cmplw 7,11,10
	lis 10,0x1
	ble- 7,$+8
	b .L730
	ori 10,10,98
	cmpw 7,11,10
	beq- 7,.L481
	cmplw 7,11,10
	ble- 7,.L1932
.LBB697:
	.loc 6 1844 0
	andi. 11,0,1
	bne- 0,.L1474
	add 9,30,9
.L1475:
	.loc 6 1844 0 is_stmt 0 discriminator 3
	mr 3,9
	lfs 1,0(31)
	lfs 2,4(31)
	mtctr 0
	lwz 4,8(31)
	lwz 5,12(31)
	lwz 6,16(31)
	lfs 3,20(31)
	lfs 4,24(31)
	lwz 7,28(31)
	bctrl
	.loc 3 1039 0 is_stmt 1 discriminator 3
	li 3,1
	.loc 6 1845 0 discriminator 3
	b .L126
.L736:
.LBE697:
	.loc 3 970 0
	ori 10,10,176
	cmpw 7,11,10
	beq- 7,.L559
	lis 10,0x1
	ori 10,10,176
	cmplw 7,11,10
	lis 10,0x1
	bgt- 7,.L744
	ori 10,10,168
	cmpw 7,11,10
	beq- 7,.L551
	cmplw 7,11,10
	lis 10,0x1
	bgt- 7,.L745
	ori 10,10,164
	cmpw 7,11,10
	beq- 7,.L547
	cmplw 7,11,10
	lis 10,0x1
	ble- 7,$+8
	b .L746
	ori 10,10,162
	cmpw 7,11,10
	beq- 7,.L545
	cmplw 7,11,10
	ble- 7,.L1933
.LBB698:
	.loc 6 2164 0
	andi. 11,0,1
	bne- 0,.L1602
	add 9,30,9
.L1603:
	.loc 6 2164 0 is_stmt 0 discriminator 3
	mr 3,9
	lfs 1,0(31)
	lfs 2,4(31)
	mtctr 0
	lwz 4,8(31)
	lwz 5,12(31)
	lwz 6,16(31)
	lfs 3,20(31)
	lwz 7,24(31)
	lfs 4,28(31)
	bctrl
	.loc 3 1039 0 is_stmt 1 discriminator 3
	li 3,1
	.loc 6 2165 0 discriminator 3
	b .L126
.L751:
.LBE698:
	.loc 3 970 0
	ori 10,10,240
	cmpw 7,11,10
	beq- 7,.L623
	lis 10,0x1
	ori 10,10,240
	cmplw 7,11,10
	lis 10,0x1
	bgt- 7,.L759
	ori 10,10,232
	cmpw 7,11,10
	beq- 7,.L615
	cmplw 7,11,10
	lis 10,0x1
	bgt- 7,.L760
	ori 10,10,228
	cmpw 7,11,10
	beq- 7,.L611
	cmplw 7,11,10
	lis 10,0x1
	ble- 7,$+8
	b .L761
	ori 10,10,226
	cmpw 7,11,10
	beq- 7,.L609
	cmplw 7,11,10
	ble- 7,.L1934
.LBB699:
	.loc 6 2484 0
	andi. 11,0,1
	bne- 0,.L1730
	add 9,30,9
.L1731:
	.loc 6 2484 0 is_stmt 0 discriminator 3
	mr 3,9
	lfs 1,0(31)
	lfs 2,4(31)
	mtctr 0
	lwz 4,8(31)
	lwz 5,12(31)
	lwz 6,16(31)
	lfs 3,20(31)
	lfs 4,24(31)
	lfs 5,28(31)
	bctrl
	.loc 3 1039 0 is_stmt 1 discriminator 3
	li 3,1
	.loc 6 2485 0 discriminator 3
	b .L126
.L643:
.LBE699:
	.loc 3 970 0
	cmpwi 7,11,4104
	beq- 7,.L151
	cmplwi 7,11,4104
	bgt- 7,.L647
	cmpwi 7,11,4100
	beq- 7,.L147
	cmplwi 7,11,4100
	ble- 7,$+8
	b .L648
	cmpwi 7,11,4098
	beq- 7,.L145
	cmplwi 7,11,4098
	ble- 7,.L1935
.LBB700:
	.loc 6 140 0
	andi. 11,0,1
	bne- 0,.L802
	add 9,30,9
.L803:
	.loc 6 140 0 is_stmt 0 discriminator 3
	mr 3,9
	lfs 1,0(31)
	lfs 2,4(31)
	mtctr 0
	lwz 4,8(31)
	lwz 5,12(31)
	bctrl
	.loc 3 1039 0 is_stmt 1 discriminator 3
	li 3,1
	.loc 6 141 0 discriminator 3
	b .L126
.L681:
.LBE700:
	.loc 3 970 0
	ori 10,10,32824
	cmpw 7,11,10
	beq- 7,.L311
	cmplwi 7,11,32824
	li 10,0
	bgt- 7,.L685
	ori 10,10,32820
	cmpw 7,11,10
	beq- 7,.L307
	cmplwi 7,11,32820
	li 10,0
	ble- 7,$+8
	b .L686
	ori 10,10,32818
	cmpw 7,11,10
	beq- 7,.L305
	cmplwi 7,11,32818
	ble- 7,.L1936
.LBB701:
	.loc 6 958 0
	andi. 11,0,1
	bne- 0,.L1122
	add 9,30,9
.L1123:
	.loc 6 958 0 is_stmt 0 discriminator 3
	mr 3,9
	lfs 1,0(31)
	lfs 2,4(31)
	mtctr 0
	lwz 4,8(31)
	lwz 5,12(31)
	lfs 3,16(31)
	lfs 4,20(31)
	lwz 6,24(31)
	bctrl
	.loc 3 1039 0 is_stmt 1 discriminator 3
	li 3,1
	.loc 6 959 0 discriminator 3
	b .L126
.L706:
.LBE701:
	.loc 3 970 0
	ori 10,10,24
	cmpw 7,11,10
	beq- 7,.L407
	cmplw 7,11,10
	lis 10,0x1
	bgt- 7,.L710
	ori 10,10,20
	cmpw 7,11,10
	beq- 7,.L403
	cmplw 7,11,10
	lis 10,0x1
	ble- 7,$+8
	b .L711
	ori 10,10,18
	cmpw 7,11,10
	beq- 7,.L401
	cmplw 7,11,10
	ble- 7,.L1937
.LBB702:
	.loc 6 1444 0
	andi. 11,0,1
	bne- 0,.L1314
	add 9,30,9
.L1315:
	.loc 6 1444 0 is_stmt 0 discriminator 3
	mr 3,9
	lfs 1,0(31)
	lfs 2,4(31)
	mtctr 0
	lwz 4,8(31)
	lwz 5,12(31)
	lfs 3,16(31)
	lwz 6,20(31)
	lwz 7,24(31)
	lwz 8,28(31)
	bctrl
	.loc 3 1039 0 is_stmt 1 discriminator 3
	li 3,1
	.loc 6 1445 0 discriminator 3
	b .L126
.L658:
.LBE702:
	.loc 3 970 0
	cmpwi 7,11,16408
	beq- 7,.L215
	cmplwi 7,11,16408
	bgt- 7,.L662
	cmpwi 7,11,16404
	beq- 7,.L211
	cmplwi 7,11,16404
	bgt- 7,.L663
	cmpwi 7,11,16402
	beq- 7,.L209
	cmplwi 7,11,16402
	ble- 7,.L1938
.LBB703:
	.loc 6 472 0
	andi. 11,0,1
	bne- 0,.L930
	add 9,30,9
.L931:
	.loc 6 472 0 is_stmt 0 discriminator 3
	mr 3,9
	lfs 1,0(31)
	lfs 2,4(31)
	mtctr 0
	lwz 4,8(31)
	lwz 5,12(31)
	lfs 3,16(31)
	lwz 6,20(31)
	bctrl
	.loc 3 1039 0 is_stmt 1 discriminator 3
	li 3,1
	.loc 6 473 0 discriminator 3
	b .L126
.L721:
.LBE703:
	.loc 3 970 0
	ori 10,10,88
	cmpw 7,11,10
	beq- 7,.L471
	cmplw 7,11,10
	lis 10,0x1
	bgt- 7,.L725
	ori 10,10,84
	cmpw 7,11,10
	beq- 7,.L467
	cmplw 7,11,10
	lis 10,0x1
	ble- 7,$+8
	b .L726
	ori 10,10,82
	cmpw 7,11,10
	beq- 7,.L465
	cmplw 7,11,10
	ble- 7,.L1939
.LBB704:
	.loc 6 1764 0
	andi. 11,0,1
	bne- 0,.L1442
	add 9,30,9
.L1443:
	.loc 6 1764 0 is_stmt 0 discriminator 3
	mr 3,9
	lfs 1,0(31)
	lfs 2,4(31)
	mtctr 0
	lwz 4,8(31)
	lwz 5,12(31)
	lfs 3,16(31)
	lwz 6,20(31)
	lfs 4,24(31)
	lwz 7,28(31)
	bctrl
	.loc 3 1039 0 is_stmt 1 discriminator 3
	li 3,1
	.loc 6 1765 0 discriminator 3
	b .L126
.L689:
.LBE704:
	.loc 3 970 0
	ori 10,10,32856
	cmpw 7,11,10
	beq- 7,.L343
	cmplwi 7,11,32856
	li 10,0
	bgt- 7,.L693
	ori 10,10,32852
	cmpw 7,11,10
	beq- 7,.L339
	cmplwi 7,11,32852
	li 10,0
	bgt- 7,.L694
	ori 10,10,32850
	cmpw 7,11,10
	beq- 7,.L337
	cmplwi 7,11,32850
	ble- 7,.L1940
.LBB705:
	.loc 6 1118 0
	andi. 11,0,1
	bne- 0,.L1186
	add 9,30,9
.L1187:
	.loc 6 1118 0 is_stmt 0 discriminator 3
	mr 3,9
	lfs 1,0(31)
	lfs 2,4(31)
	mtctr 0
	lwz 4,8(31)
	lwz 5,12(31)
	lfs 3,16(31)
	lwz 6,20(31)
	lfs 4,24(31)
	bctrl
	.loc 3 1039 0 is_stmt 1 discriminator 3
	li 3,1
	.loc 6 1119 0 discriminator 3
	b .L126
.L737:
.LBE705:
	.loc 3 970 0
	ori 10,10,152
	cmpw 7,11,10
	beq- 7,.L535
	cmplw 7,11,10
	lis 10,0x1
	bgt- 7,.L741
	ori 10,10,148
	cmpw 7,11,10
	beq- 7,.L531
	cmplw 7,11,10
	lis 10,0x1
	ble- 7,$+8
	b .L742
	ori 10,10,146
	cmpw 7,11,10
	beq- 7,.L529
	cmplw 7,11,10
	ble- 7,.L1941
.LBB706:
	.loc 6 2084 0
	andi. 11,0,1
	bne- 0,.L1570
	add 9,30,9
.L1571:
	.loc 6 2084 0 is_stmt 0 discriminator 3
	mr 3,9
	lfs 1,0(31)
	lfs 2,4(31)
	mtctr 0
	lwz 4,8(31)
	lwz 5,12(31)
	lfs 3,16(31)
	lwz 6,20(31)
	lwz 7,24(31)
	lfs 4,28(31)
	bctrl
	.loc 3 1039 0 is_stmt 1 discriminator 3
	li 3,1
	.loc 6 2085 0 discriminator 3
	b .L126
.L674:
.LBE706:
	.loc 3 970 0
	ori 10,10,32792
	cmpw 7,11,10
	beq- 7,.L279
	cmplwi 7,11,32792
	li 10,0
	bgt- 7,.L678
	ori 10,10,32788
	cmpw 7,11,10
	beq- 7,.L275
	cmplwi 7,11,32788
	li 10,0
	bgt- 7,.L679
	ori 10,10,32786
	cmpw 7,11,10
	beq- 7,.L273
	cmplwi 7,11,32786
	ble- 7,.L1942
.LBB707:
	.loc 6 798 0
	andi. 11,0,1
	bne- 0,.L1058
	add 9,30,9
.L1059:
	.loc 6 798 0 is_stmt 0 discriminator 3
	mr 3,9
	lfs 1,0(31)
	lfs 2,4(31)
	mtctr 0
	lwz 4,8(31)
	lwz 5,12(31)
	lfs 3,16(31)
	lwz 6,20(31)
	lwz 7,24(31)
	bctrl
	.loc 3 1039 0 is_stmt 1 discriminator 3
	li 3,1
	.loc 6 799 0 discriminator 3
	b .L126
.L752:
.LBE707:
	.loc 3 970 0
	ori 10,10,216
	cmpw 7,11,10
	beq- 7,.L599
	cmplw 7,11,10
	lis 10,0x1
	bgt- 7,.L756
	ori 10,10,212
	cmpw 7,11,10
	beq- 7,.L595
	cmplw 7,11,10
	lis 10,0x1
	ble- 7,$+8
	b .L757
	ori 10,10,210
	cmpw 7,11,10
	beq- 7,.L593
	cmplw 7,11,10
	ble- 7,.L1943
.LBB708:
	.loc 6 2404 0
	andi. 11,0,1
	bne- 0,.L1698
	add 9,30,9
.L1699:
	.loc 6 2404 0 is_stmt 0 discriminator 3
	mr 3,9
	lfs 1,0(31)
	lfs 2,4(31)
	mtctr 0
	lwz 4,8(31)
	lwz 5,12(31)
	lfs 3,16(31)
	lwz 6,20(31)
	lfs 4,24(31)
	lfs 5,28(31)
	bctrl
	.loc 3 1039 0 is_stmt 1 discriminator 3
	li 3,1
	.loc 6 2405 0 discriminator 3
	b .L126
.L759:
.LBE708:
	.loc 3 970 0
	ori 10,10,248
	cmpw 7,11,10
	beq- 7,.L631
	cmplw 7,11,10
	lis 10,0x1
	bgt- 7,.L763
	ori 10,10,244
	cmpw 7,11,10
	beq- 7,.L627
	cmplw 7,11,10
	lis 10,0x1
	bgt- 7,.L764
	ori 10,10,242
	cmpw 7,11,10
	beq- 7,.L625
	cmplw 7,11,10
	ble- 7,.L1944
.LBB709:
	.loc 6 2564 0
	andi. 11,0,1
	bne- 0,.L1762
	add 9,30,9
.L1763:
	.loc 6 2564 0 is_stmt 0 discriminator 3
	mr 3,9
	lfs 1,0(31)
	lfs 2,4(31)
	mtctr 0
	lwz 4,8(31)
	lwz 5,12(31)
	lfs 3,16(31)
	lfs 4,20(31)
	lfs 5,24(31)
	lfs 6,28(31)
	bctrl
	.loc 3 1039 0 is_stmt 1 discriminator 3
	li 3,1
	.loc 6 2565 0 discriminator 3
	b .L126
.L665:
.LBE709:
	.loc 3 970 0
	cmpwi 7,11,16440
	beq- 7,.L247
	cmplwi 7,11,16440
	bgt- 7,.L669
	cmpwi 7,11,16436
	beq- 7,.L243
	cmplwi 7,11,16436
	bgt- 7,.L670
	cmpwi 7,11,16434
	beq- 7,.L241
	cmplwi 7,11,16434
	ble- 7,.L1945
.LBB710:
	.loc 6 632 0
	andi. 11,0,1
	bne- 0,.L994
	add 9,30,9
.L995:
	.loc 6 632 0 is_stmt 0 discriminator 3
	mr 3,9
	lfs 1,0(31)
	lfs 2,4(31)
	mtctr 0
	lwz 4,8(31)
	lwz 5,12(31)
	lfs 3,16(31)
	lfs 4,20(31)
	bctrl
	.loc 3 1039 0 is_stmt 1 discriminator 3
	li 3,1
	.loc 6 633 0 discriminator 3
	b .L126
.L696:
.LBE710:
	.loc 3 970 0
	ori 10,10,32888
	cmpw 7,11,10
	beq- 7,.L375
	cmplwi 7,11,32888
	li 10,0
	bgt- 7,.L700
	ori 10,10,32884
	cmpw 7,11,10
	beq- 7,.L371
	cmplwi 7,11,32884
	li 10,0
	ble- 7,$+8
	b .L701
	ori 10,10,32882
	cmpw 7,11,10
	beq- 7,.L369
	cmplwi 7,11,32882
	ble- 7,.L1946
.LBB711:
	.loc 6 1278 0
	andi. 11,0,1
	bne- 0,.L1250
	add 9,30,9
.L1251:
	.loc 6 1278 0 is_stmt 0 discriminator 3
	mr 3,9
	lfs 1,0(31)
	lfs 2,4(31)
	mtctr 0
	lwz 4,8(31)
	lwz 5,12(31)
	lfs 3,16(31)
	lfs 4,20(31)
	lfs 5,24(31)
	bctrl
	.loc 3 1039 0 is_stmt 1 discriminator 3
	li 3,1
	.loc 6 1279 0 discriminator 3
	b .L126
.L713:
.LBE711:
	.loc 3 970 0
	ori 10,10,56
	cmpw 7,11,10
	beq- 7,.L439
	cmplw 7,11,10
	lis 10,0x1
	bgt- 7,.L717
	ori 10,10,52
	cmpw 7,11,10
	beq- 7,.L435
	cmplw 7,11,10
	lis 10,0x1
	ble- 7,$+8
	b .L718
	ori 10,10,50
	cmpw 7,11,10
	beq- 7,.L433
	cmplw 7,11,10
	ble- 7,.L1947
.LBB712:
	.loc 6 1604 0
	andi. 11,0,1
	bne- 0,.L1378
	add 9,30,9
.L1379:
	.loc 6 1604 0 is_stmt 0 discriminator 3
	mr 3,9
	lfs 1,0(31)
	lfs 2,4(31)
	mtctr 0
	lwz 4,8(31)
	lwz 5,12(31)
	lfs 3,16(31)
	lfs 4,20(31)
	lwz 6,24(31)
	lwz 7,28(31)
	bctrl
	.loc 3 1039 0 is_stmt 1 discriminator 3
	li 3,1
	.loc 6 1605 0 discriminator 3
	b .L126
.L650:
.LBE712:
	.loc 3 970 0
	cmpwi 7,11,8216
	beq- 7,.L183
	cmplwi 7,11,8216
	bgt- 7,.L654
	cmpwi 7,11,8212
	beq- 7,.L179
	cmplwi 7,11,8212
	ble- 7,$+8
	b .L655
	cmpwi 7,11,8210
	beq- 7,.L177
	cmplwi 7,11,8210
	ble- 7,.L1948
.LBB713:
	.loc 6 306 0
	andi. 11,0,1
	bne- 0,.L866
	add 9,30,9
.L867:
	.loc 6 306 0 is_stmt 0 discriminator 3
	mr 3,9
	lfs 1,0(31)
	lfs 2,4(31)
	mtctr 0
	lwz 4,8(31)
	lwz 5,12(31)
	lfs 3,16(31)
	bctrl
	.loc 3 1039 0 is_stmt 1 discriminator 3
	li 3,1
	.loc 6 307 0 discriminator 3
	b .L126
.L728:
.LBE713:
	.loc 3 970 0
	ori 10,10,120
	cmpw 7,11,10
	beq- 7,.L503
	cmplw 7,11,10
	lis 10,0x1
	bgt- 7,.L732
	ori 10,10,116
	cmpw 7,11,10
	beq- 7,.L499
	cmplw 7,11,10
	lis 10,0x1
	bgt- 7,.L733
	ori 10,10,114
	cmpw 7,11,10
	beq- 7,.L497
	cmplw 7,11,10
	ble- 7,.L1949
.LBB714:
	.loc 6 1924 0
	andi. 11,0,1
	bne- 0,.L1506
	add 9,30,9
.L1507:
	.loc 6 1924 0 is_stmt 0 discriminator 3
	mr 3,9
	lfs 1,0(31)
	lfs 2,4(31)
	mtctr 0
	lwz 4,8(31)
	lwz 5,12(31)
	lfs 3,16(31)
	lfs 4,20(31)
	lfs 5,24(31)
	lwz 6,28(31)
	bctrl
	.loc 3 1039 0 is_stmt 1 discriminator 3
	li 3,1
	.loc 6 1925 0 discriminator 3
	b .L126
.L744:
.LBE714:
	.loc 3 970 0
	ori 10,10,184
	cmpw 7,11,10
	beq- 7,.L567
	cmplw 7,11,10
	lis 10,0x1
	bgt- 7,.L748
	ori 10,10,180
	cmpw 7,11,10
	beq- 7,.L563
	cmplw 7,11,10
	lis 10,0x1
	ble- 7,$+8
	b .L749
	ori 10,10,178
	cmpw 7,11,10
	beq- 7,.L561
	cmplw 7,11,10
	ble- 7,.L1950
.LBB715:
	.loc 6 2244 0
	andi. 11,0,1
	bne- 0,.L1634
	add 9,30,9
.L1635:
	.loc 6 2244 0 is_stmt 0 discriminator 3
	mr 3,9
	lfs 1,0(31)
	lfs 2,4(31)
	mtctr 0
	lwz 4,8(31)
	lwz 5,12(31)
	lfs 3,16(31)
	lfs 4,20(31)
	lwz 6,24(31)
	lfs 5,28(31)
	bctrl
	.loc 3 1039 0 is_stmt 1 discriminator 3
	li 3,1
	.loc 6 2245 0 discriminator 3
	b .L126
.LVL208:
.L1789:
.LBE715:
.LBE816:
.LBB817:
.LBB681:
	.loc 3 949 0
	lis 7,.LC11@ha
	la 7,.LC11@l(7)
	b .L125
.LVL209:
.L1922:
.LBE681:
.LBE817:
.LBB818:
.LBB716:
	.loc 6 382 0
	andi. 11,0,1
	bne- 0,.L894
	add 9,30,9
.L895:
	.loc 6 382 0 is_stmt 0 discriminator 3
	mr 3,9
	lfs 1,0(31)
	lwz 4,4(31)
	mtctr 0
	lwz 5,8(31)
	lwz 6,12(31)
	lwz 7,16(31)
	lwz 8,20(31)
	bctrl
	.loc 3 1039 0 is_stmt 1 discriminator 3
	li 3,1
	.loc 6 383 0 discriminator 3
	b .L126
.L193:
	.loc 6 387 0
	andi. 11,0,1
	bne- 0,.L896
	add 9,30,9
.L897:
	.loc 6 387 0 is_stmt 0 discriminator 3
	mr 3,9
	lwz 4,0(31)
	lfs 1,4(31)
	mtctr 0
	lwz 5,8(31)
	lwz 6,12(31)
	lwz 7,16(31)
	lwz 8,20(31)
	bctrl
	.loc 3 1039 0 is_stmt 1 discriminator 3
	li 3,1
	.loc 6 388 0 discriminator 3
	b .L126
.L387:
	.loc 6 1369 0
	andi. 11,0,1
	bne- 0,.L1284
	add 9,30,9
.L1285:
	.loc 6 1369 0 is_stmt 0 discriminator 3
	mr 3,9
	lwz 4,0(31)
	lwz 5,4(31)
	mtctr 0
	lfs 1,8(31)
	lwz 6,12(31)
	lwz 7,16(31)
	lwz 8,20(31)
	lwz 9,24(31)
	lwz 10,28(31)
	bctrl
	.loc 3 1039 0 is_stmt 1 discriminator 3
	li 3,1
	.loc 6 1370 0 discriminator 3
	b .L126
.L707:
.LBE716:
	.loc 3 970 0
	ori 10,10,12
	cmpw 7,11,10
	beq- 7,.L395
	cmplw 7,11,10
	lis 10,0x1
	bgt- 7,.L709
	ori 10,10,10
	cmpw 7,11,10
	beq- 7,.L393
	cmplw 7,11,10
	ble- 7,.L1951
.LBB717:
	.loc 6 1404 0
	andi. 11,0,1
	bne- 0,.L1298
	add 9,30,9
.L1299:
	.loc 6 1404 0 is_stmt 0 discriminator 3
	mr 3,9
	lfs 1,0(31)
	lfs 2,4(31)
	mtctr 0
	lwz 4,8(31)
	lfs 3,12(31)
	lwz 5,16(31)
	lwz 6,20(31)
	lwz 7,24(31)
	lwz 8,28(31)
	bctrl
	.loc 3 1039 0 is_stmt 1 discriminator 3
	li 3,1
	.loc 6 1405 0 discriminator 3
	b .L126
.L391:
	.loc 6 1389 0
	andi. 11,0,1
	bne- 0,.L1292
	add 9,30,9
.L1293:
	.loc 6 1389 0 is_stmt 0 discriminator 3
	mr 3,9
	lwz 4,0(31)
	lwz 5,4(31)
	mtctr 0
	lwz 6,8(31)
	lfs 1,12(31)
	lwz 7,16(31)
	lwz 8,20(31)
	lwz 9,24(31)
	lwz 10,28(31)
	bctrl
	.loc 3 1039 0 is_stmt 1 discriminator 3
	li 3,1
	.loc 6 1390 0 discriminator 3
	b .L126
.L1951:
	.loc 6 1394 0
	andi. 11,0,1
	bne- 0,.L1294
	add 9,30,9
.L1295:
	.loc 6 1394 0 is_stmt 0 discriminator 3
	mr 3,9
	lfs 1,0(31)
	lwz 4,4(31)
	mtctr 0
	lwz 5,8(31)
	lfs 2,12(31)
	lwz 6,16(31)
	lwz 7,20(31)
	lwz 8,24(31)
	lwz 9,28(31)
	bctrl
	.loc 3 1039 0 is_stmt 1 discriminator 3
	li 3,1
	.loc 6 1395 0 discriminator 3
	b .L126
.L319:
	.loc 6 1023 0
	andi. 11,0,1
	bne- 0,.L1148
	add 9,30,9
.L1149:
	.loc 6 1023 0 is_stmt 0 discriminator 3
	mr 3,9
	lwz 4,0(31)
	lwz 5,4(31)
	mtctr 0
	lwz 6,8(31)
	lwz 7,12(31)
	lwz 8,16(31)
	lwz 9,20(31)
	lfs 1,24(31)
	bctrl
	.loc 3 1039 0 is_stmt 1 discriminator 3
	li 3,1
	.loc 6 1024 0 discriminator 3
	b .L126
.L255:
	.loc 6 703 0
	andi. 11,0,1
	bne- 0,.L1020
	add 9,30,9
.L1021:
	.loc 6 703 0 is_stmt 0 discriminator 3
	mr 3,9
	lwz 4,0(31)
	lwz 5,4(31)
	mtctr 0
	lwz 6,8(31)
	lwz 7,12(31)
	lwz 8,16(31)
	lwz 9,20(31)
	lwz 10,24(31)
	bctrl
	.loc 3 1039 0 is_stmt 1 discriminator 3
	li 3,1
	.loc 6 704 0 discriminator 3
	b .L126
.L399:
	.loc 6 1429 0
	andi. 11,0,1
	bne- 0,.L1308
	add 9,30,9
.L1309:
	.loc 6 1429 0 is_stmt 0 discriminator 3
	mr 3,9
	lwz 4,0(31)
	lwz 5,4(31)
	mtctr 0
	lwz 6,8(31)
	lwz 7,12(31)
	lfs 1,16(31)
	lwz 8,20(31)
	lwz 9,24(31)
	lwz 10,28(31)
	bctrl
	.loc 3 1039 0 is_stmt 1 discriminator 3
	li 3,1
	.loc 6 1430 0 discriminator 3
	b .L126
.L543:
	.loc 6 2149 0
	andi. 11,0,1
	bne- 0,.L1596
	add 9,30,9
.L1597:
	.loc 6 2149 0 is_stmt 0 discriminator 3
	mr 3,9
	lwz 4,0(31)
	lwz 5,4(31)
	mtctr 0
	lwz 6,8(31)
	lwz 7,12(31)
	lwz 8,16(31)
	lfs 1,20(31)
	lwz 9,24(31)
	lfs 2,28(31)
	bctrl
	.loc 3 1039 0 is_stmt 1 discriminator 3
	li 3,1
	.loc 6 2150 0 discriminator 3
	b .L126
.L131:
	.loc 6 53 0
	andi. 11,0,1
	bne- 0,.L772
	add 9,30,9
.L773:
	.loc 6 53 0 is_stmt 0 discriminator 3
	mr 3,9
	lwz 4,0(31)
	lwz 5,4(31)
	mtctr 0
	bctrl
	.loc 3 1039 0 is_stmt 1 discriminator 3
	li 3,1
	.loc 6 54 0 discriminator 3
	b .L126
.L479:
	.loc 6 1829 0
	andi. 11,0,1
	bne- 0,.L1468
	add 9,30,9
.L1469:
	.loc 6 1829 0 is_stmt 0 discriminator 3
	mr 3,9
	lwz 4,0(31)
	lwz 5,4(31)
	mtctr 0
	lwz 6,8(31)
	lwz 7,12(31)
	lwz 8,16(31)
	lfs 1,20(31)
	lfs 2,24(31)
	lwz 9,28(31)
	bctrl
	.loc 3 1039 0 is_stmt 1 discriminator 3
	li 3,1
	.loc 6 1830 0 discriminator 3
	b .L126
.L463:
	.loc 6 1749 0
	andi. 11,0,1
	bne- 0,.L1436
	add 9,30,9
.L1437:
	.loc 6 1749 0 is_stmt 0 discriminator 3
	mr 3,9
	lwz 4,0(31)
	lwz 5,4(31)
	mtctr 0
	lwz 6,8(31)
	lwz 7,12(31)
	lfs 1,16(31)
	lwz 8,20(31)
	lfs 2,24(31)
	lwz 9,28(31)
	bctrl
	.loc 3 1039 0 is_stmt 1 discriminator 3
	li 3,1
	.loc 6 1750 0 discriminator 3
	b .L126
.L714:
.LBE717:
	.loc 3 970 0
	ori 10,10,44
	cmpw 7,11,10
	beq- 7,.L427
	cmplw 7,11,10
	lis 10,0x1
	bgt- 7,.L716
	ori 10,10,42
	cmpw 7,11,10
	beq- 7,.L425
	cmplw 7,11,10
	ble- 7,.L1952
.LBB718:
	.loc 6 1564 0
	andi. 11,0,1
	bne- 0,.L1362
	add 9,30,9
.L1363:
	.loc 6 1564 0 is_stmt 0 discriminator 3
	mr 3,9
	lfs 1,0(31)
	lfs 2,4(31)
	mtctr 0
	lwz 4,8(31)
	lfs 3,12(31)
	lwz 5,16(31)
	lfs 4,20(31)
	lwz 6,24(31)
	lwz 7,28(31)
	bctrl
	.loc 3 1039 0 is_stmt 1 discriminator 3
	li 3,1
	.loc 6 1565 0 discriminator 3
	b .L126
.L207:
	.loc 6 457 0
	andi. 11,0,1
	bne- 0,.L924
	add 9,30,9
.L925:
	.loc 6 457 0 is_stmt 0 discriminator 3
	mr 3,9
	lwz 4,0(31)
	lwz 5,4(31)
	mtctr 0
	lwz 6,8(31)
	lwz 7,12(31)
	lfs 1,16(31)
	lwz 8,20(31)
	bctrl
	.loc 3 1039 0 is_stmt 1 discriminator 3
	li 3,1
	.loc 6 458 0 discriminator 3
	b .L126
.L403:
	.loc 6 1449 0
	andi. 11,0,1
	bne- 0,.L1316
	add 9,30,9
.L1317:
	.loc 6 1449 0 is_stmt 0 discriminator 3
	mr 3,9
	lwz 4,0(31)
	lwz 5,4(31)
	mtctr 0
	lfs 1,8(31)
	lwz 6,12(31)
	lfs 2,16(31)
	lwz 7,20(31)
	lwz 8,24(31)
	lwz 9,28(31)
	bctrl
	.loc 3 1039 0 is_stmt 1 discriminator 3
	li 3,1
	.loc 6 1450 0 discriminator 3
	b .L126
.L710:
.LBE718:
	.loc 3 970 0
	ori 10,10,28
	cmpw 7,11,10
	beq- 7,.L411
	cmplw 7,11,10
	lis 10,0x1
	ble- 7,$+8
	b .L712
	ori 10,10,26
	cmpw 7,11,10
	beq- 7,.L409
	cmplw 7,11,10
	ble- 7,.L1953
.LBB719:
	.loc 6 1484 0
	andi. 11,0,1
	bne- 0,.L1330
	add 9,30,9
.L1331:
	.loc 6 1484 0 is_stmt 0 discriminator 3
	mr 3,9
	lfs 1,0(31)
	lfs 2,4(31)
	mtctr 0
	lwz 4,8(31)
	lfs 3,12(31)
	lfs 4,16(31)
	lwz 5,20(31)
	lwz 6,24(31)
	lwz 7,28(31)
	bctrl
	.loc 3 1039 0 is_stmt 1 discriminator 3
	li 3,1
	.loc 6 1485 0 discriminator 3
	b .L126
.L407:
	.loc 6 1469 0
	andi. 11,0,1
	bne- 0,.L1324
	add 9,30,9
.L1325:
	.loc 6 1469 0 is_stmt 0 discriminator 3
	mr 3,9
	lwz 4,0(31)
	lwz 5,4(31)
	mtctr 0
	lwz 6,8(31)
	lfs 1,12(31)
	lfs 2,16(31)
	lwz 7,20(31)
	lwz 8,24(31)
	lwz 9,28(31)
	bctrl
	.loc 3 1039 0 is_stmt 1 discriminator 3
	li 3,1
	.loc 6 1470 0 discriminator 3
	b .L126
.L1953:
	.loc 6 1474 0
	andi. 11,0,1
	bne- 0,.L1326
	add 9,30,9
.L1327:
	.loc 6 1474 0 is_stmt 0 discriminator 3
	mr 3,9
	lfs 1,0(31)
	lwz 4,4(31)
	mtctr 0
	lwz 5,8(31)
	lfs 2,12(31)
	lfs 3,16(31)
	lwz 6,20(31)
	lwz 7,24(31)
	lwz 8,28(31)
	bctrl
	.loc 3 1039 0 is_stmt 1 discriminator 3
	li 3,1
	.loc 6 1475 0 discriminator 3
	b .L126
.L411:
	.loc 6 1489 0
	andi. 11,0,1
	bne- 0,.L1332
	add 9,30,9
.L1333:
	.loc 6 1489 0 is_stmt 0 discriminator 3
	mr 3,9
	lwz 4,0(31)
	lwz 5,4(31)
	mtctr 0
	lfs 1,8(31)
	lfs 2,12(31)
	lfs 3,16(31)
	lwz 6,20(31)
	lwz 7,24(31)
	lwz 8,28(31)
	bctrl
	.loc 3 1039 0 is_stmt 1 discriminator 3
	li 3,1
	.loc 6 1490 0 discriminator 3
	b .L126
.L409:
	.loc 6 1479 0
	andi. 11,0,1
	bne- 0,.L1328
	add 9,30,9
.L1329:
	.loc 6 1479 0 is_stmt 0 discriminator 3
	mr 3,9
	lwz 4,0(31)
	lfs 1,4(31)
	mtctr 0
	lwz 5,8(31)
	lfs 2,12(31)
	lfs 3,16(31)
	lwz 6,20(31)
	lwz 7,24(31)
	lwz 8,28(31)
	bctrl
	.loc 3 1039 0 is_stmt 1 discriminator 3
	li 3,1
	.loc 6 1480 0 discriminator 3
	b .L126
.L447:
	.loc 6 1669 0
	andi. 11,0,1
	bne- 0,.L1404
	add 9,30,9
.L1405:
	.loc 6 1669 0 is_stmt 0 discriminator 3
	mr 3,9
	lwz 4,0(31)
	lwz 5,4(31)
	mtctr 0
	lwz 6,8(31)
	lwz 7,12(31)
	lwz 8,16(31)
	lwz 9,20(31)
	lfs 1,24(31)
	lwz 10,28(31)
	bctrl
	.loc 3 1039 0 is_stmt 1 discriminator 3
	li 3,1
	.loc 6 1670 0 discriminator 3
	b .L126
.L527:
	.loc 6 2069 0
	andi. 11,0,1
	bne- 0,.L1564
	add 9,30,9
.L1565:
	.loc 6 2069 0 is_stmt 0 discriminator 3
	mr 3,9
	lwz 4,0(31)
	lwz 5,4(31)
	mtctr 0
	lwz 6,8(31)
	lwz 7,12(31)
	lfs 1,16(31)
	lwz 8,20(31)
	lwz 9,24(31)
	lfs 2,28(31)
	bctrl
	.loc 3 1039 0 is_stmt 1 discriminator 3
	li 3,1
	.loc 6 2070 0 discriminator 3
	b .L126
.L579:
	.loc 6 2329 0
	andi. 11,0,1
	bne- 0,.L1668
	add 9,30,9
.L1669:
	.loc 6 2329 0 is_stmt 0 discriminator 3
	mr 3,9
	lwz 4,0(31)
	lwz 5,4(31)
	mtctr 0
	lfs 1,8(31)
	lwz 6,12(31)
	lwz 7,16(31)
	lwz 8,20(31)
	lfs 2,24(31)
	lfs 3,28(31)
	bctrl
	.loc 3 1039 0 is_stmt 1 discriminator 3
	li 3,1
	.loc 6 2330 0 discriminator 3
	b .L126
.L335:
	.loc 6 1103 0
	andi. 11,0,1
	bne- 0,.L1180
	add 9,30,9
.L1181:
	.loc 6 1103 0 is_stmt 0 discriminator 3
	mr 3,9
	lwz 4,0(31)
	lwz 5,4(31)
	mtctr 0
	lwz 6,8(31)
	lwz 7,12(31)
	lfs 1,16(31)
	lwz 8,20(31)
	lfs 2,24(31)
	bctrl
	.loc 3 1039 0 is_stmt 1 discriminator 3
	li 3,1
	.loc 6 1104 0 discriminator 3
	b .L126
.L415:
	.loc 6 1509 0
	andi. 11,0,1
	bne- 0,.L1340
	add 9,30,9
.L1341:
	.loc 6 1509 0 is_stmt 0 discriminator 3
	mr 3,9
	lwz 4,0(31)
	lwz 5,4(31)
	mtctr 0
	lwz 6,8(31)
	lwz 7,12(31)
	lwz 8,16(31)
	lfs 1,20(31)
	lwz 9,24(31)
	lwz 10,28(31)
	bctrl
	.loc 3 1039 0 is_stmt 1 discriminator 3
	li 3,1
	.loc 6 1510 0 discriminator 3
	b .L126
.L591:
	.loc 6 2389 0
	andi. 11,0,1
	bne- 0,.L1692
	add 9,30,9
.L1693:
	.loc 6 2389 0 is_stmt 0 discriminator 3
	mr 3,9
	lwz 4,0(31)
	lwz 5,4(31)
	mtctr 0
	lwz 6,8(31)
	lwz 7,12(31)
	lfs 1,16(31)
	lwz 8,20(31)
	lfs 2,24(31)
	lfs 3,28(31)
	bctrl
	.loc 3 1039 0 is_stmt 1 discriminator 3
	li 3,1
	.loc 6 2390 0 discriminator 3
	b .L126
.L729:
.LBE719:
	.loc 3 970 0
	ori 10,10,108
	cmpw 7,11,10
	beq- 7,.L491
	cmplw 7,11,10
	lis 10,0x1
	bgt- 7,.L731
	ori 10,10,106
	cmpw 7,11,10
	beq- 7,.L489
	cmplw 7,11,10
	ble- 7,.L1954
.LBB720:
	.loc 6 1884 0
	andi. 11,0,1
	bne- 0,.L1490
	add 9,30,9
.L1491:
	.loc 6 1884 0 is_stmt 0 discriminator 3
	mr 3,9
	lfs 1,0(31)
	lfs 2,4(31)
	mtctr 0
	lwz 4,8(31)
	lfs 3,12(31)
	lwz 5,16(31)
	lfs 4,20(31)
	lfs 5,24(31)
	lwz 6,28(31)
	bctrl
	.loc 3 1039 0 is_stmt 1 discriminator 3
	li 3,1
	.loc 6 1885 0 discriminator 3
	b .L126
.L271:
	.loc 6 783 0
	andi. 11,0,1
	bne- 0,.L1052
	add 9,30,9
.L1053:
	.loc 6 783 0 is_stmt 0 discriminator 3
	mr 3,9
	lwz 4,0(31)
	lwz 5,4(31)
	mtctr 0
	lwz 6,8(31)
	lwz 7,12(31)
	lfs 1,16(31)
	lwz 8,20(31)
	lwz 9,24(31)
	bctrl
	.loc 3 1039 0 is_stmt 1 discriminator 3
	li 3,1
	.loc 6 784 0 discriminator 3
	b .L126
.L531:
	.loc 6 2089 0
	andi. 11,0,1
	bne- 0,.L1572
	add 9,30,9
.L1573:
	.loc 6 2089 0 is_stmt 0 discriminator 3
	mr 3,9
	lwz 4,0(31)
	lwz 5,4(31)
	mtctr 0
	lfs 1,8(31)
	lwz 6,12(31)
	lfs 2,16(31)
	lwz 7,20(31)
	lwz 8,24(31)
	lfs 3,28(31)
	bctrl
	.loc 3 1039 0 is_stmt 1 discriminator 3
	li 3,1
	.loc 6 2090 0 discriminator 3
	b .L126
.L741:
.LBE720:
	.loc 3 970 0
	ori 10,10,156
	cmpw 7,11,10
	beq- 7,.L539
	cmplw 7,11,10
	lis 10,0x1
	ble- 7,$+8
	b .L743
	ori 10,10,154
	cmpw 7,11,10
	beq- 7,.L537
	cmplw 7,11,10
	ble- 7,.L1955
.LBB721:
	.loc 6 2124 0
	andi. 11,0,1
	bne- 0,.L1586
	add 9,30,9
.L1587:
	.loc 6 2124 0 is_stmt 0 discriminator 3
	mr 3,9
	lfs 1,0(31)
	lfs 2,4(31)
	mtctr 0
	lwz 4,8(31)
	lfs 3,12(31)
	lfs 4,16(31)
	lwz 5,20(31)
	lwz 6,24(31)
	lfs 5,28(31)
	bctrl
	.loc 3 1039 0 is_stmt 1 discriminator 3
	li 3,1
	.loc 6 2125 0 discriminator 3
	b .L126
.L535:
	.loc 6 2109 0
	andi. 11,0,1
	bne- 0,.L1580
	add 9,30,9
.L1581:
	.loc 6 2109 0 is_stmt 0 discriminator 3
	mr 3,9
	lwz 4,0(31)
	lwz 5,4(31)
	mtctr 0
	lwz 6,8(31)
	lfs 1,12(31)
	lfs 2,16(31)
	lwz 7,20(31)
	lwz 8,24(31)
	lfs 3,28(31)
	bctrl
	.loc 3 1039 0 is_stmt 1 discriminator 3
	li 3,1
	.loc 6 2110 0 discriminator 3
	b .L126
.L1955:
	.loc 6 2114 0
	andi. 11,0,1
	bne- 0,.L1582
	add 9,30,9
.L1583:
	.loc 6 2114 0 is_stmt 0 discriminator 3
	mr 3,9
	lfs 1,0(31)
	lwz 4,4(31)
	mtctr 0
	lwz 5,8(31)
	lfs 2,12(31)
	lfs 3,16(31)
	lwz 6,20(31)
	lwz 7,24(31)
	lfs 4,28(31)
	bctrl
	.loc 3 1039 0 is_stmt 1 discriminator 3
	li 3,1
	.loc 6 2115 0 discriminator 3
	b .L126
.L539:
	.loc 6 2129 0
	andi. 11,0,1
	bne- 0,.L1588
	add 9,30,9
.L1589:
	.loc 6 2129 0 is_stmt 0 discriminator 3
	mr 3,9
	lwz 4,0(31)
	lwz 5,4(31)
	mtctr 0
	lfs 1,8(31)
	lfs 2,12(31)
	lfs 3,16(31)
	lwz 6,20(31)
	lwz 7,24(31)
	lfs 4,28(31)
	bctrl
	.loc 3 1039 0 is_stmt 1 discriminator 3
	li 3,1
	.loc 6 2130 0 discriminator 3
	b .L126
.L537:
	.loc 6 2119 0
	andi. 11,0,1
	bne- 0,.L1584
	add 9,30,9
.L1585:
	.loc 6 2119 0 is_stmt 0 discriminator 3
	mr 3,9
	lwz 4,0(31)
	lfs 1,4(31)
	mtctr 0
	lwz 5,8(31)
	lfs 2,12(31)
	lfs 3,16(31)
	lwz 6,20(31)
	lwz 7,24(31)
	lfs 4,28(31)
	bctrl
	.loc 3 1039 0 is_stmt 1 discriminator 3
	li 3,1
	.loc 6 2120 0 discriminator 3
	b .L126
.L303:
	.loc 6 943 0
	andi. 11,0,1
	bne- 0,.L1116
	add 9,30,9
.L1117:
	.loc 6 943 0 is_stmt 0 discriminator 3
	mr 3,9
	lwz 4,0(31)
	lwz 5,4(31)
	mtctr 0
	lwz 6,8(31)
	lwz 7,12(31)
	lfs 1,16(31)
	lfs 2,20(31)
	lwz 8,24(31)
	bctrl
	.loc 3 1039 0 is_stmt 1 discriminator 3
	li 3,1
	.loc 6 944 0 discriminator 3
	b .L126
.L239:
	.loc 6 617 0
	andi. 11,0,1
	bne- 0,.L988
	add 9,30,9
.L989:
	.loc 6 617 0 is_stmt 0 discriminator 3
	mr 3,9
	lwz 4,0(31)
	lwz 5,4(31)
	mtctr 0
	lwz 6,8(31)
	lwz 7,12(31)
	lfs 1,16(31)
	lfs 2,20(31)
	bctrl
	.loc 3 1039 0 is_stmt 1 discriminator 3
	li 3,1
	.loc 6 618 0 discriminator 3
	b .L126
.L607:
	.loc 6 2469 0
	andi. 11,0,1
	bne- 0,.L1724
	add 9,30,9
.L1725:
	.loc 6 2469 0 is_stmt 0 discriminator 3
	mr 3,9
	lwz 4,0(31)
	lwz 5,4(31)
	mtctr 0
	lwz 6,8(31)
	lwz 7,12(31)
	lwz 8,16(31)
	lfs 1,20(31)
	lfs 2,24(31)
	lfs 3,28(31)
	bctrl
	.loc 3 1039 0 is_stmt 1 discriminator 3
	li 3,1
	.loc 6 2470 0 discriminator 3
	b .L126
.L623:
	.loc 6 2549 0
	andi. 11,0,1
	bne- 0,.L1756
	add 9,30,9
.L1757:
	.loc 6 2549 0 is_stmt 0 discriminator 3
	mr 3,9
	lwz 4,0(31)
	lwz 5,4(31)
	mtctr 0
	lwz 6,8(31)
	lwz 7,12(31)
	lfs 1,16(31)
	lfs 2,20(31)
	lfs 3,24(31)
	lfs 4,28(31)
	bctrl
	.loc 3 1039 0 is_stmt 1 discriminator 3
	li 3,1
	.loc 6 2550 0 discriminator 3
	b .L126
.L451:
	.loc 6 1689 0
	andi. 11,0,1
	bne- 0,.L1412
	add 9,30,9
.L1413:
	.loc 6 1689 0 is_stmt 0 discriminator 3
	mr 3,9
	lwz 4,0(31)
	lwz 5,4(31)
	mtctr 0
	lfs 1,8(31)
	lwz 6,12(31)
	lwz 7,16(31)
	lwz 8,20(31)
	lfs 2,24(31)
	lwz 9,28(31)
	bctrl
	.loc 3 1039 0 is_stmt 1 discriminator 3
	li 3,1
	.loc 6 1690 0 discriminator 3
	b .L126
.L431:
	.loc 6 1589 0
	andi. 11,0,1
	bne- 0,.L1372
	add 9,30,9
.L1373:
	.loc 6 1589 0 is_stmt 0 discriminator 3
	mr 3,9
	lwz 4,0(31)
	lwz 5,4(31)
	mtctr 0
	lwz 6,8(31)
	lwz 7,12(31)
	lfs 1,16(31)
	lfs 2,20(31)
	lwz 8,24(31)
	lwz 9,28(31)
	bctrl
	.loc 3 1039 0 is_stmt 1 discriminator 3
	li 3,1
	.loc 6 1590 0 discriminator 3
	b .L126
.L1931:
	.loc 6 1514 0
	andi. 11,0,1
	bne- 0,.L1342
	add 9,30,9
.L1343:
	.loc 6 1514 0 is_stmt 0 discriminator 3
	mr 3,9
	lfs 1,0(31)
	lwz 4,4(31)
	mtctr 0
	lwz 5,8(31)
	lwz 6,12(31)
	lwz 7,16(31)
	lfs 2,20(31)
	lwz 8,24(31)
	lwz 9,28(31)
	bctrl
	.loc 3 1039 0 is_stmt 1 discriminator 3
	li 3,1
	.loc 6 1515 0 discriminator 3
	b .L126
.L367:
	.loc 6 1263 0
	andi. 11,0,1
	bne- 0,.L1244
	add 9,30,9
.L1245:
	.loc 6 1263 0 is_stmt 0 discriminator 3
	mr 3,9
	lwz 4,0(31)
	lwz 5,4(31)
	mtctr 0
	lwz 6,8(31)
	lwz 7,12(31)
	lfs 1,16(31)
	lfs 2,20(31)
	lfs 3,24(31)
	bctrl
	.loc 3 1039 0 is_stmt 1 discriminator 3
	li 3,1
	.loc 6 1264 0 discriminator 3
	b .L126
.L575:
	.loc 6 2309 0
	andi. 11,0,1
	bne- 0,.L1660
	add 9,30,9
.L1661:
	.loc 6 2309 0 is_stmt 0 discriminator 3
	mr 3,9
	lwz 4,0(31)
	lwz 5,4(31)
	mtctr 0
	lwz 6,8(31)
	lwz 7,12(31)
	lwz 8,16(31)
	lwz 9,20(31)
	lfs 1,24(31)
	lfs 2,28(31)
	bctrl
	.loc 3 1039 0 is_stmt 1 discriminator 3
	li 3,1
	.loc 6 2310 0 discriminator 3
	b .L126
.L495:
	.loc 6 1909 0
	andi. 11,0,1
	bne- 0,.L1500
	add 9,30,9
.L1501:
	.loc 6 1909 0 is_stmt 0 discriminator 3
	mr 3,9
	lwz 4,0(31)
	lwz 5,4(31)
	mtctr 0
	lwz 6,8(31)
	lwz 7,12(31)
	lfs 1,16(31)
	lfs 2,20(31)
	lfs 3,24(31)
	lwz 8,28(31)
	bctrl
	.loc 3 1039 0 is_stmt 1 discriminator 3
	li 3,1
	.loc 6 1910 0 discriminator 3
	b .L126
.L666:
.LBE721:
	.loc 3 970 0
	cmpwi 7,11,16428
	beq- 7,.L235
	cmplwi 7,11,16428
	bgt- 7,.L668
	cmpwi 7,11,16426
	beq- 7,.L233
	cmplwi 7,11,16426
	ble- 7,.L1956
.LBB722:
	.loc 6 592 0
	andi. 11,0,1
	bne- 0,.L978
	add 9,30,9
.L979:
	.loc 6 592 0 is_stmt 0 discriminator 3
	mr 3,9
	lfs 1,0(31)
	lfs 2,4(31)
	mtctr 0
	lwz 4,8(31)
	lfs 3,12(31)
	lwz 5,16(31)
	lfs 4,20(31)
	bctrl
	.loc 3 1039 0 is_stmt 1 discriminator 3
	li 3,1
	.loc 6 593 0 discriminator 3
	b .L126
.L175:
	.loc 6 291 0
	andi. 11,0,1
	bne- 0,.L860
	add 9,30,9
.L861:
	.loc 6 291 0 is_stmt 0 discriminator 3
	mr 3,9
	lwz 4,0(31)
	lwz 5,4(31)
	mtctr 0
	lwz 6,8(31)
	lwz 7,12(31)
	lfs 1,16(31)
	bctrl
	.loc 3 1039 0 is_stmt 1 discriminator 3
	li 3,1
	.loc 6 292 0 discriminator 3
	b .L126
.L435:
	.loc 6 1609 0
	andi. 11,0,1
	bne- 0,.L1380
	add 9,30,9
.L1381:
	.loc 6 1609 0 is_stmt 0 discriminator 3
	mr 3,9
	lwz 4,0(31)
	lwz 5,4(31)
	mtctr 0
	lfs 1,8(31)
	lwz 6,12(31)
	lfs 2,16(31)
	lfs 3,20(31)
	lwz 7,24(31)
	lwz 8,28(31)
	bctrl
	.loc 3 1039 0 is_stmt 1 discriminator 3
	li 3,1
	.loc 6 1610 0 discriminator 3
	b .L126
.L717:
.LBE722:
	.loc 3 970 0
	ori 10,10,60
	cmpw 7,11,10
	beq- 7,.L443
	cmplw 7,11,10
	lis 10,0x1
	ble- 7,$+8
	b .L719
	ori 10,10,58
	cmpw 7,11,10
	beq- 7,.L441
	cmplw 7,11,10
	ble- 7,.L1957
.LBB723:
	.loc 6 1644 0
	andi. 11,0,1
	bne- 0,.L1394
	add 9,30,9
.L1395:
	.loc 6 1644 0 is_stmt 0 discriminator 3
	mr 3,9
	lfs 1,0(31)
	lfs 2,4(31)
	mtctr 0
	lwz 4,8(31)
	lfs 3,12(31)
	lfs 4,16(31)
	lfs 5,20(31)
	lwz 5,24(31)
	lwz 6,28(31)
	bctrl
	.loc 3 1039 0 is_stmt 1 discriminator 3
	li 3,1
	.loc 6 1645 0 discriminator 3
	b .L126
.L439:
	.loc 6 1629 0
	andi. 11,0,1
	bne- 0,.L1388
	add 9,30,9
.L1389:
	.loc 6 1629 0 is_stmt 0 discriminator 3
	mr 3,9
	lwz 4,0(31)
	lwz 5,4(31)
	mtctr 0
	lwz 6,8(31)
	lfs 1,12(31)
	lfs 2,16(31)
	lfs 3,20(31)
	lwz 7,24(31)
	lwz 8,28(31)
	bctrl
	.loc 3 1039 0 is_stmt 1 discriminator 3
	li 3,1
	.loc 6 1630 0 discriminator 3
	b .L126
.L1957:
	.loc 6 1634 0
	andi. 11,0,1
	bne- 0,.L1390
	add 9,30,9
.L1391:
	.loc 6 1634 0 is_stmt 0 discriminator 3
	mr 3,9
	lfs 1,0(31)
	lwz 4,4(31)
	mtctr 0
	lwz 5,8(31)
	lfs 2,12(31)
	lfs 3,16(31)
	lfs 4,20(31)
	lwz 6,24(31)
	lwz 7,28(31)
	bctrl
	.loc 3 1039 0 is_stmt 1 discriminator 3
	li 3,1
	.loc 6 1635 0 discriminator 3
	b .L126
.L443:
	.loc 6 1649 0
	andi. 11,0,1
	bne- 0,.L1396
	add 9,30,9
.L1397:
	.loc 6 1649 0 is_stmt 0 discriminator 3
	mr 3,9
	lwz 4,0(31)
	lwz 5,4(31)
	mtctr 0
	lfs 1,8(31)
	lfs 2,12(31)
	lfs 3,16(31)
	lfs 4,20(31)
	lwz 6,24(31)
	lwz 7,28(31)
	bctrl
	.loc 3 1039 0 is_stmt 1 discriminator 3
	li 3,1
	.loc 6 1650 0 discriminator 3
	b .L126
.L441:
	.loc 6 1639 0
	andi. 11,0,1
	bne- 0,.L1392
	add 9,30,9
.L1393:
	.loc 6 1639 0 is_stmt 0 discriminator 3
	mr 3,9
	lwz 4,0(31)
	lfs 1,4(31)
	mtctr 0
	lwz 5,8(31)
	lfs 2,12(31)
	lfs 3,16(31)
	lfs 4,20(31)
	lwz 6,24(31)
	lwz 7,28(31)
	bctrl
	.loc 3 1039 0 is_stmt 1 discriminator 3
	li 3,1
	.loc 6 1640 0 discriminator 3
	b .L126
.L287:
	.loc 6 863 0
	andi. 11,0,1
	bne- 0,.L1084
	add 9,30,9
.L1085:
	.loc 6 863 0 is_stmt 0 discriminator 3
	mr 3,9
	lwz 4,0(31)
	lwz 5,4(31)
	mtctr 0
	lwz 6,8(31)
	lwz 7,12(31)
	lwz 8,16(31)
	lfs 1,20(31)
	lwz 9,24(31)
	bctrl
	.loc 3 1039 0 is_stmt 1 discriminator 3
	li 3,1
	.loc 6 864 0 discriminator 3
	b .L126
.L559:
	.loc 6 2229 0
	andi. 11,0,1
	bne- 0,.L1628
	add 9,30,9
.L1629:
	.loc 6 2229 0 is_stmt 0 discriminator 3
	mr 3,9
	lwz 4,0(31)
	lwz 5,4(31)
	mtctr 0
	lwz 6,8(31)
	lwz 7,12(31)
	lfs 1,16(31)
	lfs 2,20(31)
	lwz 8,24(31)
	lfs 3,28(31)
	bctrl
	.loc 3 1039 0 is_stmt 1 discriminator 3
	li 3,1
	.loc 6 2230 0 discriminator 3
	b .L126
.L395:
	.loc 6 1409 0
	andi. 11,0,1
	bne- 0,.L1300
	add 9,30,9
.L1301:
	.loc 6 1409 0 is_stmt 0 discriminator 3
	mr 3,9
	lwz 4,0(31)
	lwz 5,4(31)
	mtctr 0
	lfs 1,8(31)
	lfs 2,12(31)
	lwz 6,16(31)
	lwz 7,20(31)
	lwz 8,24(31)
	lwz 9,28(31)
	bctrl
	.loc 3 1039 0 is_stmt 1 discriminator 3
	li 3,1
	.loc 6 1410 0 discriminator 3
	b .L126
.L191:
	.loc 6 377 0
	andi. 11,0,1
	bne- 0,.L892
	add 9,30,9
.L893:
	.loc 6 377 0 is_stmt 0 discriminator 3
	mr 3,9
	lwz 4,0(31)
	lwz 5,4(31)
	mtctr 0
	lwz 6,8(31)
	lwz 7,12(31)
	lwz 8,16(31)
	lwz 9,20(31)
	bctrl
	.loc 3 1039 0 is_stmt 1 discriminator 3
	li 3,1
	.loc 6 378 0 discriminator 3
	b .L126
.L1927:
	.loc 6 868 0
	andi. 11,0,1
	bne- 0,.L1086
	add 9,30,9
.L1087:
	.loc 6 868 0 is_stmt 0 discriminator 3
	mr 3,9
	lfs 1,0(31)
	lwz 4,4(31)
	mtctr 0
	lwz 5,8(31)
	lwz 6,12(31)
	lwz 7,16(31)
	lfs 2,20(31)
	lwz 8,24(31)
	bctrl
	.loc 3 1039 0 is_stmt 1 discriminator 3
	li 3,1
	.loc 6 869 0 discriminator 3
	b .L126
.L307:
	.loc 6 963 0
	andi. 11,0,1
	bne- 0,.L1124
	add 9,30,9
.L1125:
	.loc 6 963 0 is_stmt 0 discriminator 3
	mr 3,9
	lwz 4,0(31)
	lwz 5,4(31)
	mtctr 0
	lfs 1,8(31)
	lwz 6,12(31)
	lfs 2,16(31)
	lfs 3,20(31)
	lwz 7,24(31)
	bctrl
	.loc 3 1039 0 is_stmt 1 discriminator 3
	li 3,1
	.loc 6 964 0 discriminator 3
	b .L126
.L1923:
	.loc 6 708 0
	andi. 11,0,1
	bne- 0,.L1022
	add 9,30,9
.L1023:
	.loc 6 708 0 is_stmt 0 discriminator 3
	mr 3,9
	lfs 1,0(31)
	lwz 4,4(31)
	mtctr 0
	lwz 5,8(31)
	lwz 6,12(31)
	lwz 7,16(31)
	lwz 8,20(31)
	lwz 9,24(31)
	bctrl
	.loc 3 1039 0 is_stmt 1 discriminator 3
	li 3,1
	.loc 6 709 0 discriminator 3
	b .L126
.L159:
	.loc 6 211 0
	andi. 11,0,1
	bne- 0,.L828
	add 9,30,9
.L829:
	.loc 6 211 0 is_stmt 0 discriminator 3
	mr 3,9
	lwz 4,0(31)
	lwz 5,4(31)
	mtctr 0
	lwz 6,8(31)
	lwz 7,12(31)
	lwz 8,16(31)
	bctrl
	.loc 3 1039 0 is_stmt 1 discriminator 3
	li 3,1
	.loc 6 212 0 discriminator 3
	b .L126
.L323:
	.loc 6 1043 0
	andi. 11,0,1
	bne- 0,.L1156
	add 9,30,9
.L1157:
	.loc 6 1043 0 is_stmt 0 discriminator 3
	mr 3,9
	lwz 4,0(31)
	lwz 5,4(31)
	mtctr 0
	lfs 1,8(31)
	lwz 6,12(31)
	lwz 7,16(31)
	lwz 8,20(31)
	lfs 2,24(31)
	bctrl
	.loc 3 1039 0 is_stmt 1 discriminator 3
	li 3,1
	.loc 6 1044 0 discriminator 3
	b .L126
.L211:
	.loc 6 477 0
	andi. 11,0,1
	bne- 0,.L932
	add 9,30,9
.L933:
	.loc 6 477 0 is_stmt 0 discriminator 3
	mr 3,9
	lwz 4,0(31)
	lwz 5,4(31)
	mtctr 0
	lfs 1,8(31)
	lwz 6,12(31)
	lfs 2,16(31)
	lwz 7,20(31)
	bctrl
	.loc 3 1039 0 is_stmt 1 discriminator 3
	li 3,1
	.loc 6 478 0 discriminator 3
	b .L126
.L1928:
	.loc 6 216 0
	andi. 11,0,1
	bne- 0,.L830
	add 9,30,9
.L831:
	.loc 6 216 0 is_stmt 0 discriminator 3
	mr 3,9
	lfs 1,0(31)
	lwz 4,4(31)
	mtctr 0
	lwz 5,8(31)
	lwz 6,12(31)
	lwz 7,16(31)
	bctrl
	.loc 3 1039 0 is_stmt 1 discriminator 3
	li 3,1
	.loc 6 217 0 discriminator 3
	b .L126
.L1937:
	.loc 6 1434 0
	andi. 11,0,1
	bne- 0,.L1310
	add 9,30,9
.L1311:
	.loc 6 1434 0 is_stmt 0 discriminator 3
	mr 3,9
	lfs 1,0(31)
	lwz 4,4(31)
	mtctr 0
	lwz 5,8(31)
	lwz 6,12(31)
	lfs 2,16(31)
	lwz 7,20(31)
	lwz 8,24(31)
	lwz 9,28(31)
	bctrl
	.loc 3 1039 0 is_stmt 1 discriminator 3
	li 3,1
	.loc 6 1435 0 discriminator 3
	b .L126
.L1926:
	.loc 6 1994 0
	andi. 11,0,1
	bne- 0,.L1534
	add 9,30,9
.L1535:
	.loc 6 1994 0 is_stmt 0 discriminator 3
	mr 3,9
	lfs 1,0(31)
	lwz 4,4(31)
	mtctr 0
	lwz 5,8(31)
	lwz 6,12(31)
	lwz 7,16(31)
	lwz 8,20(31)
	lwz 9,24(31)
	lfs 2,28(31)
	bctrl
	.loc 3 1039 0 is_stmt 1 discriminator 3
	li 3,1
	.loc 6 1995 0 discriminator 3
	b .L126
.L339:
	.loc 6 1123 0
	andi. 11,0,1
	bne- 0,.L1188
	add 9,30,9
.L1189:
	.loc 6 1123 0 is_stmt 0 discriminator 3
	mr 3,9
	lwz 4,0(31)
	lwz 5,4(31)
	mtctr 0
	lfs 1,8(31)
	lwz 6,12(31)
	lfs 2,16(31)
	lwz 7,20(31)
	lfs 3,24(31)
	bctrl
	.loc 3 1039 0 is_stmt 1 discriminator 3
	li 3,1
	.loc 6 1124 0 discriminator 3
	b .L126
.L1930:
	.loc 6 542 0
	andi. 11,0,1
	bne- 0,.L958
	add 9,30,9
.L959:
	.loc 6 542 0 is_stmt 0 discriminator 3
	mr 3,9
	lfs 1,0(31)
	lwz 4,4(31)
	mtctr 0
	lwz 5,8(31)
	lwz 6,12(31)
	lwz 7,16(31)
	lfs 2,20(31)
	bctrl
	.loc 3 1039 0 is_stmt 1 discriminator 3
	li 3,1
	.loc 6 543 0 discriminator 3
	b .L126
.L467:
	.loc 6 1769 0
	andi. 11,0,1
	bne- 0,.L1444
	add 9,30,9
.L1445:
	.loc 6 1769 0 is_stmt 0 discriminator 3
	mr 3,9
	lwz 4,0(31)
	lwz 5,4(31)
	mtctr 0
	lfs 1,8(31)
	lwz 6,12(31)
	lfs 2,16(31)
	lwz 7,20(31)
	lfs 3,24(31)
	lwz 8,28(31)
	bctrl
	.loc 3 1039 0 is_stmt 1 discriminator 3
	li 3,1
	.loc 6 1770 0 discriminator 3
	b .L126
.L195:
	.loc 6 397 0
	andi. 11,0,1
	bne- 0,.L900
	add 9,30,9
.L901:
	.loc 6 397 0 is_stmt 0 discriminator 3
	mr 3,9
	lwz 4,0(31)
	lwz 5,4(31)
	mtctr 0
	lfs 1,8(31)
	lwz 6,12(31)
	lwz 7,16(31)
	lwz 8,20(31)
	bctrl
	.loc 3 1039 0 is_stmt 1 discriminator 3
	li 3,1
	.loc 6 398 0 discriminator 3
	b .L126
.L275:
	.loc 6 803 0
	andi. 11,0,1
	bne- 0,.L1060
	add 9,30,9
.L1061:
	.loc 6 803 0 is_stmt 0 discriminator 3
	mr 3,9
	lwz 4,0(31)
	lwz 5,4(31)
	mtctr 0
	lfs 1,8(31)
	lwz 6,12(31)
	lfs 2,16(31)
	lwz 7,20(31)
	lwz 8,24(31)
	bctrl
	.loc 3 1039 0 is_stmt 1 discriminator 3
	li 3,1
	.loc 6 804 0 discriminator 3
	b .L126
.L1933:
	.loc 6 2154 0
	andi. 11,0,1
	bne- 0,.L1598
	add 9,30,9
.L1599:
	.loc 6 2154 0 is_stmt 0 discriminator 3
	mr 3,9
	lfs 1,0(31)
	lwz 4,4(31)
	mtctr 0
	lwz 5,8(31)
	lwz 6,12(31)
	lwz 7,16(31)
	lfs 2,20(31)
	lwz 8,24(31)
	lfs 3,28(31)
	bctrl
	.loc 3 1039 0 is_stmt 1 discriminator 3
	li 3,1
	.loc 6 2155 0 discriminator 3
	b .L126
.L1941:
	.loc 6 2074 0
	andi. 11,0,1
	bne- 0,.L1566
	add 9,30,9
.L1567:
	.loc 6 2074 0 is_stmt 0 discriminator 3
	mr 3,9
	lfs 1,0(31)
	lwz 4,4(31)
	mtctr 0
	lwz 5,8(31)
	lwz 6,12(31)
	lfs 2,16(31)
	lwz 7,20(31)
	lwz 8,24(31)
	lfs 3,28(31)
	bctrl
	.loc 3 1039 0 is_stmt 1 discriminator 3
	li 3,1
	.loc 6 2075 0 discriminator 3
	b .L126
.L147:
	.loc 6 145 0
	andi. 11,0,1
	bne- 0,.L804
	add 9,30,9
.L805:
	.loc 6 145 0 is_stmt 0 discriminator 3
	mr 3,9
	lwz 4,0(31)
	lwz 5,4(31)
	mtctr 0
	lfs 1,8(31)
	lwz 6,12(31)
	bctrl
	.loc 3 1039 0 is_stmt 1 discriminator 3
	li 3,1
	.loc 6 146 0 discriminator 3
	b .L126
.L627:
	.loc 6 2569 0
	andi. 11,0,1
	bne- 0,.L1764
	add 9,30,9
.L1765:
	.loc 6 2569 0 is_stmt 0 discriminator 3
	mr 3,9
	lwz 4,0(31)
	lwz 5,4(31)
	mtctr 0
	lfs 1,8(31)
	lwz 6,12(31)
	lfs 2,16(31)
	lfs 3,20(31)
	lfs 4,24(31)
	lfs 5,28(31)
	bctrl
	.loc 3 1039 0 is_stmt 1 discriminator 3
	li 3,1
	.loc 6 2570 0 discriminator 3
	b .L126
.L1934:
	.loc 6 2474 0
	andi. 11,0,1
	bne- 0,.L1726
	add 9,30,9
.L1727:
	.loc 6 2474 0 is_stmt 0 discriminator 3
	mr 3,9
	lfs 1,0(31)
	lwz 4,4(31)
	mtctr 0
	lwz 5,8(31)
	lwz 6,12(31)
	lwz 7,16(31)
	lfs 2,20(31)
	lfs 3,24(31)
	lfs 4,28(31)
	bctrl
	.loc 3 1039 0 is_stmt 1 discriminator 3
	li 3,1
	.loc 6 2475 0 discriminator 3
	b .L126
.L595:
	.loc 6 2409 0
	andi. 11,0,1
	bne- 0,.L1700
	add 9,30,9
.L1701:
	.loc 6 2409 0 is_stmt 0 discriminator 3
	mr 3,9
	lwz 4,0(31)
	lwz 5,4(31)
	mtctr 0
	lfs 1,8(31)
	lwz 6,12(31)
	lfs 2,16(31)
	lwz 7,20(31)
	lfs 3,24(31)
	lfs 4,28(31)
	bctrl
	.loc 3 1039 0 is_stmt 1 discriminator 3
	li 3,1
	.loc 6 2410 0 discriminator 3
	b .L126
.L515:
	.loc 6 2009 0
	andi. 11,0,1
	bne- 0,.L1540
	add 9,30,9
.L1541:
	.loc 6 2009 0 is_stmt 0 discriminator 3
	mr 3,9
	lwz 4,0(31)
	lwz 5,4(31)
	mtctr 0
	lfs 1,8(31)
	lwz 6,12(31)
	lwz 7,16(31)
	lwz 8,20(31)
	lwz 9,24(31)
	lfs 2,28(31)
	bctrl
	.loc 3 1039 0 is_stmt 1 discriminator 3
	li 3,1
	.loc 6 2010 0 discriminator 3
	b .L126
.L371:
	.loc 6 1283 0
	andi. 11,0,1
	bne- 0,.L1252
	add 9,30,9
.L1253:
	.loc 6 1283 0 is_stmt 0 discriminator 3
	mr 3,9
	lwz 4,0(31)
	lwz 5,4(31)
	mtctr 0
	lfs 1,8(31)
	lwz 6,12(31)
	lfs 2,16(31)
	lfs 3,20(31)
	lfs 4,24(31)
	bctrl
	.loc 3 1039 0 is_stmt 1 discriminator 3
	li 3,1
	.loc 6 1284 0 discriminator 3
	b .L126
.L1932:
	.loc 6 1834 0
	andi. 11,0,1
	bne- 0,.L1470
	add 9,30,9
.L1471:
	.loc 6 1834 0 is_stmt 0 discriminator 3
	mr 3,9
	lfs 1,0(31)
	lwz 4,4(31)
	mtctr 0
	lwz 5,8(31)
	lwz 6,12(31)
	lwz 7,16(31)
	lfs 2,20(31)
	lfs 3,24(31)
	lwz 8,28(31)
	bctrl
	.loc 3 1039 0 is_stmt 1 discriminator 3
	li 3,1
	.loc 6 1835 0 discriminator 3
	b .L126
.L243:
	.loc 6 637 0
	andi. 11,0,1
	bne- 0,.L996
	add 9,30,9
.L997:
	.loc 6 637 0 is_stmt 0 discriminator 3
	mr 3,9
	lwz 4,0(31)
	lwz 5,4(31)
	mtctr 0
	lfs 1,8(31)
	lwz 6,12(31)
	lfs 2,16(31)
	lfs 3,20(31)
	bctrl
	.loc 3 1039 0 is_stmt 1 discriminator 3
	li 3,1
	.loc 6 638 0 discriminator 3
	b .L126
.L383:
	.loc 6 1349 0
	andi. 11,0,1
	add 3,30,9
	beq- 0,.L1277
	.loc 6 1349 0 is_stmt 0 discriminator 1
	lwzx 11,30,9
	add 3,30,9
	add 0,11,0
	mr 9,0
	lwz 0,-1(9)
.L1277:
	.loc 6 1349 0 discriminator 3
	lwz 11,28(31)
	mtctr 0
	lwz 4,0(31)
	lwz 5,4(31)
	lwz 6,8(31)
	lwz 7,12(31)
	lwz 8,16(31)
	lwz 9,20(31)
	lwz 10,24(31)
	stw 11,8(1)
	bctrl
	.loc 3 1039 0 is_stmt 1 discriminator 3
	li 3,1
	.loc 6 1350 0 discriminator 3
	b .L126
.L179:
	.loc 6 311 0
	andi. 11,0,1
	bne- 0,.L868
	add 9,30,9
.L869:
	.loc 6 311 0 is_stmt 0 discriminator 3
	mr 3,9
	lwz 4,0(31)
	lwz 5,4(31)
	mtctr 0
	lfs 1,8(31)
	lwz 6,12(31)
	lfs 2,16(31)
	bctrl
	.loc 3 1039 0 is_stmt 1 discriminator 3
	li 3,1
	.loc 6 312 0 discriminator 3
	b .L126
.L654:
.LBE723:
	.loc 3 970 0
	cmpwi 7,11,8220
	beq- 7,.L187
	cmplwi 7,11,8220
	bgt- 7,.L656
	cmpwi 7,11,8218
	beq- 7,.L185
	cmplwi 7,11,8218
	ble- 7,.L1958
.LBB724:
	.loc 6 346 0
	andi. 11,0,1
	bne- 0,.L882
	add 9,30,9
.L883:
	.loc 6 346 0 is_stmt 0 discriminator 3
	mr 3,9
	lfs 1,0(31)
	lfs 2,4(31)
	mtctr 0
	lwz 4,8(31)
	lfs 3,12(31)
	lfs 4,16(31)
	bctrl
	.loc 3 1039 0 is_stmt 1 discriminator 3
	li 3,1
	.loc 6 347 0 discriminator 3
	b .L126
.L1929:
	.loc 6 1188 0
	andi. 11,0,1
	bne- 0,.L1214
	add 9,30,9
.L1215:
	.loc 6 1188 0 is_stmt 0 discriminator 3
	mr 3,9
	lfs 1,0(31)
	lwz 4,4(31)
	mtctr 0
	lwz 5,8(31)
	lwz 6,12(31)
	lwz 7,16(31)
	lfs 2,20(31)
	lfs 3,24(31)
	bctrl
	.loc 3 1039 0 is_stmt 1 discriminator 3
	li 3,1
	.loc 6 1189 0 discriminator 3
	b .L126
.L697:
.LBE724:
	.loc 3 970 0
	ori 10,10,32876
	cmpw 7,11,10
	beq- 7,.L363
	cmplwi 7,11,32876
	li 10,0
	ble- 7,$+8
	b .L699
	ori 10,10,32874
	cmpw 7,11,10
	beq- 7,.L361
	cmplwi 7,11,32874
	ble- 7,.L1959
.LBB725:
	.loc 6 1238 0
	andi. 11,0,1
	bne- 0,.L1234
	add 9,30,9
.L1235:
	.loc 6 1238 0 is_stmt 0 discriminator 3
	mr 3,9
	lfs 1,0(31)
	lfs 2,4(31)
	mtctr 0
	lwz 4,8(31)
	lfs 3,12(31)
	lwz 5,16(31)
	lfs 4,20(31)
	lfs 5,24(31)
	bctrl
	.loc 3 1039 0 is_stmt 1 discriminator 3
	li 3,1
	.loc 6 1239 0 discriminator 3
	b .L126
.L231:
	.loc 6 577 0
	andi. 11,0,1
	bne- 0,.L972
	add 9,30,9
.L973:
	.loc 6 577 0 is_stmt 0 discriminator 3
	mr 3,9
	lwz 4,0(31)
	lwz 5,4(31)
	mtctr 0
	lwz 6,8(31)
	lfs 1,12(31)
	lwz 7,16(31)
	lfs 2,20(31)
	bctrl
	.loc 3 1039 0 is_stmt 1 discriminator 3
	li 3,1
	.loc 6 578 0 discriminator 3
	b .L126
.L359:
	.loc 6 1223 0
	andi. 11,0,1
	bne- 0,.L1228
	add 9,30,9
.L1229:
	.loc 6 1223 0 is_stmt 0 discriminator 3
	mr 3,9
	lwz 4,0(31)
	lwz 5,4(31)
	mtctr 0
	lwz 6,8(31)
	lfs 1,12(31)
	lwz 7,16(31)
	lfs 2,20(31)
	lfs 3,24(31)
	bctrl
	.loc 3 1039 0 is_stmt 1 discriminator 3
	li 3,1
	.loc 6 1224 0 discriminator 3
	b .L126
.L1959:
	.loc 6 1228 0
	andi. 11,0,1
	bne- 0,.L1230
	add 9,30,9
.L1231:
	.loc 6 1228 0 is_stmt 0 discriminator 3
	mr 3,9
	lfs 1,0(31)
	lwz 4,4(31)
	mtctr 0
	lwz 5,8(31)
	lfs 2,12(31)
	lwz 6,16(31)
	lfs 3,20(31)
	lfs 4,24(31)
	bctrl
	.loc 3 1039 0 is_stmt 1 discriminator 3
	li 3,1
	.loc 6 1229 0 discriminator 3
	b .L126
.L363:
	.loc 6 1243 0
	andi. 11,0,1
	bne- 0,.L1236
	add 9,30,9
.L1237:
	.loc 6 1243 0 is_stmt 0 discriminator 3
	mr 3,9
	lwz 4,0(31)
	lwz 5,4(31)
	mtctr 0
	lfs 1,8(31)
	lfs 2,12(31)
	lwz 6,16(31)
	lfs 3,20(31)
	lfs 4,24(31)
	bctrl
	.loc 3 1039 0 is_stmt 1 discriminator 3
	li 3,1
	.loc 6 1244 0 discriminator 3
	b .L126
.L361:
	.loc 6 1233 0
	andi. 11,0,1
	bne- 0,.L1232
	add 9,30,9
.L1233:
	.loc 6 1233 0 is_stmt 0 discriminator 3
	mr 3,9
	lwz 4,0(31)
	lfs 1,4(31)
	mtctr 0
	lwz 5,8(31)
	lfs 2,12(31)
	lwz 6,16(31)
	lfs 3,20(31)
	lfs 4,24(31)
	bctrl
	.loc 3 1039 0 is_stmt 1 discriminator 3
	li 3,1
	.loc 6 1234 0 discriminator 3
	b .L126
.L1947:
	.loc 6 1594 0
	andi. 11,0,1
	bne- 0,.L1374
	add 9,30,9
.L1375:
	.loc 6 1594 0 is_stmt 0 discriminator 3
	mr 3,9
	lfs 1,0(31)
	lwz 4,4(31)
	mtctr 0
	lwz 5,8(31)
	lwz 6,12(31)
	lfs 2,16(31)
	lfs 3,20(31)
	lwz 7,24(31)
	lwz 8,28(31)
	bctrl
	.loc 3 1039 0 is_stmt 1 discriminator 3
	li 3,1
	.loc 6 1595 0 discriminator 3
	b .L126
.L563:
	.loc 6 2249 0
	andi. 11,0,1
	bne- 0,.L1636
	add 9,30,9
.L1637:
	.loc 6 2249 0 is_stmt 0 discriminator 3
	mr 3,9
	lwz 4,0(31)
	lwz 5,4(31)
	mtctr 0
	lfs 1,8(31)
	lwz 6,12(31)
	lfs 2,16(31)
	lfs 3,20(31)
	lwz 7,24(31)
	lfs 4,28(31)
	bctrl
	.loc 3 1039 0 is_stmt 1 discriminator 3
	li 3,1
	.loc 6 2250 0 discriminator 3
	b .L126
.L499:
	.loc 6 1929 0
	andi. 11,0,1
	bne- 0,.L1508
	add 9,30,9
.L1509:
	.loc 6 1929 0 is_stmt 0 discriminator 3
	mr 3,9
	lwz 4,0(31)
	lwz 5,4(31)
	mtctr 0
	lfs 1,8(31)
	lwz 6,12(31)
	lfs 2,16(31)
	lfs 3,20(31)
	lfs 4,24(31)
	lwz 7,28(31)
	bctrl
	.loc 3 1039 0 is_stmt 1 discriminator 3
	li 3,1
	.loc 6 1930 0 discriminator 3
	b .L126
.L393:
	.loc 6 1399 0
	andi. 11,0,1
	bne- 0,.L1296
	add 9,30,9
.L1297:
	.loc 6 1399 0 is_stmt 0 discriminator 3
	mr 3,9
	lwz 4,0(31)
	lfs 1,4(31)
	mtctr 0
	lwz 5,8(31)
	lfs 2,12(31)
	lwz 6,16(31)
	lwz 7,20(31)
	lwz 8,24(31)
	lwz 9,28(31)
	bctrl
	.loc 3 1039 0 is_stmt 1 discriminator 3
	li 3,1
	.loc 6 1400 0 discriminator 3
	b .L126
.L1918:
	.loc 6 1028 0
	andi. 11,0,1
	bne- 0,.L1150
	add 9,30,9
.L1151:
	.loc 6 1028 0 is_stmt 0 discriminator 3
	mr 3,9
	lfs 1,0(31)
	lwz 4,4(31)
	mtctr 0
	lwz 5,8(31)
	lwz 6,12(31)
	lwz 7,16(31)
	lwz 8,20(31)
	lfs 2,24(31)
	bctrl
	.loc 3 1039 0 is_stmt 1 discriminator 3
	li 3,1
	.loc 6 1029 0 discriminator 3
	b .L126
.L682:
.LBE725:
	.loc 3 970 0
	ori 10,10,32812
	cmpw 7,11,10
	beq- 7,.L299
	cmplwi 7,11,32812
	li 10,0
	bgt- 7,.L684
	ori 10,10,32810
	cmpw 7,11,10
	beq- 7,.L297
	cmplwi 7,11,32810
	ble- 7,.L1960
.LBB726:
	.loc 6 918 0
	andi. 11,0,1
	bne- 0,.L1106
	add 9,30,9
.L1107:
	.loc 6 918 0 is_stmt 0 discriminator 3
	mr 3,9
	lfs 1,0(31)
	lfs 2,4(31)
	mtctr 0
	lwz 4,8(31)
	lfs 3,12(31)
	lwz 5,16(31)
	lfs 4,20(31)
	lwz 6,24(31)
	bctrl
	.loc 3 1039 0 is_stmt 1 discriminator 3
	li 3,1
	.loc 6 919 0 discriminator 3
	b .L126
.L1936:
	.loc 6 948 0
	andi. 11,0,1
	bne- 0,.L1118
	add 9,30,9
.L1119:
	.loc 6 948 0 is_stmt 0 discriminator 3
	mr 3,9
	lfs 1,0(31)
	lwz 4,4(31)
	mtctr 0
	lwz 5,8(31)
	lwz 6,12(31)
	lfs 2,16(31)
	lfs 3,20(31)
	lwz 7,24(31)
	bctrl
	.loc 3 1039 0 is_stmt 1 discriminator 3
	li 3,1
	.loc 6 949 0 discriminator 3
	b .L126
.L685:
.LBE726:
	.loc 3 970 0
	ori 10,10,32828
	cmpw 7,11,10
	beq- 7,.L315
	cmplwi 7,11,32828
	li 10,0
	ble- 7,$+8
	b .L687
	ori 10,10,32826
	cmpw 7,11,10
	beq- 7,.L313
	cmplwi 7,11,32826
	ble- 7,.L1961
.LBB727:
	.loc 6 998 0
	andi. 11,0,1
	bne- 0,.L1138
	add 9,30,9
.L1139:
	.loc 6 998 0 is_stmt 0 discriminator 3
	mr 3,9
	lfs 1,0(31)
	lfs 2,4(31)
	mtctr 0
	lwz 4,8(31)
	lfs 3,12(31)
	lfs 4,16(31)
	lfs 5,20(31)
	lwz 5,24(31)
	bctrl
	.loc 3 1039 0 is_stmt 1 discriminator 3
	li 3,1
	.loc 6 999 0 discriminator 3
	b .L126
.L311:
	.loc 6 983 0
	andi. 11,0,1
	bne- 0,.L1132
	add 9,30,9
.L1133:
	.loc 6 983 0 is_stmt 0 discriminator 3
	mr 3,9
	lwz 4,0(31)
	lwz 5,4(31)
	mtctr 0
	lwz 6,8(31)
	lfs 1,12(31)
	lfs 2,16(31)
	lfs 3,20(31)
	lwz 7,24(31)
	bctrl
	.loc 3 1039 0 is_stmt 1 discriminator 3
	li 3,1
	.loc 6 984 0 discriminator 3
	b .L126
.L1961:
	.loc 6 988 0
	andi. 11,0,1
	bne- 0,.L1134
	add 9,30,9
.L1135:
	.loc 6 988 0 is_stmt 0 discriminator 3
	mr 3,9
	lfs 1,0(31)
	lwz 4,4(31)
	mtctr 0
	lwz 5,8(31)
	lfs 2,12(31)
	lfs 3,16(31)
	lfs 4,20(31)
	lwz 6,24(31)
	bctrl
	.loc 3 1039 0 is_stmt 1 discriminator 3
	li 3,1
	.loc 6 989 0 discriminator 3
	b .L126
.L315:
	.loc 6 1003 0
	andi. 11,0,1
	bne- 0,.L1140
	add 9,30,9
.L1141:
	.loc 6 1003 0 is_stmt 0 discriminator 3
	mr 3,9
	lwz 4,0(31)
	lwz 5,4(31)
	mtctr 0
	lfs 1,8(31)
	lfs 2,12(31)
	lfs 3,16(31)
	lfs 4,20(31)
	lwz 6,24(31)
	bctrl
	.loc 3 1039 0 is_stmt 1 discriminator 3
	li 3,1
	.loc 6 1004 0 discriminator 3
	b .L126
.L313:
	.loc 6 993 0
	andi. 11,0,1
	bne- 0,.L1136
	add 9,30,9
.L1137:
	.loc 6 993 0 is_stmt 0 discriminator 3
	mr 3,9
	lwz 4,0(31)
	lfs 1,4(31)
	mtctr 0
	lwz 5,8(31)
	lfs 2,12(31)
	lfs 3,16(31)
	lfs 4,20(31)
	lwz 6,24(31)
	bctrl
	.loc 3 1039 0 is_stmt 1 discriminator 3
	li 3,1
	.loc 6 994 0 discriminator 3
	b .L126
.L675:
.LBE727:
	.loc 3 970 0
	ori 10,10,32780
	cmpw 7,11,10
	beq- 7,.L267
	cmplwi 7,11,32780
	li 10,0
	bgt- 7,.L677
	ori 10,10,32778
	cmpw 7,11,10
	beq- 7,.L265
	cmplwi 7,11,32778
	ble- 7,.L1962
.LBB728:
	.loc 6 758 0
	andi. 11,0,1
	bne- 0,.L1042
	add 9,30,9
.L1043:
	.loc 6 758 0 is_stmt 0 discriminator 3
	mr 3,9
	lfs 1,0(31)
	lfs 2,4(31)
	mtctr 0
	lwz 4,8(31)
	lfs 3,12(31)
	lwz 5,16(31)
	lwz 6,20(31)
	lwz 7,24(31)
	bctrl
	.loc 3 1039 0 is_stmt 1 discriminator 3
	li 3,1
	.loc 6 759 0 discriminator 3
	b .L126
.L644:
.LBE728:
	.loc 3 970 0
	cmpwi 7,11,2052
	beq- 7,.L139
	cmplwi 7,11,2052
	ble- 7,$+8
	b .L646
	cmpwi 7,11,2050
	beq- 7,.L137
	cmplwi 7,11,2050
	ble- 7,.L1963
.LBB729:
	.loc 6 94 0
	andi. 11,0,1
	bne- 0,.L786
	add 9,30,9
.L787:
	.loc 6 94 0 is_stmt 0 discriminator 3
	mr 3,9
	lfs 1,0(31)
	lfs 2,4(31)
	mtctr 0
	lwz 4,8(31)
	bctrl
	.loc 3 1039 0 is_stmt 1 discriminator 3
	li 3,1
	.loc 6 95 0 discriminator 3
	b .L126
.L143:
	.loc 6 125 0
	andi. 11,0,1
	bne- 0,.L796
	add 9,30,9
.L797:
	.loc 6 125 0 is_stmt 0 discriminator 3
	mr 3,9
	lwz 4,0(31)
	lwz 5,4(31)
	mtctr 0
	lwz 6,8(31)
	lwz 7,12(31)
	bctrl
	.loc 3 1039 0 is_stmt 1 discriminator 3
	li 3,1
	.loc 6 126 0 discriminator 3
	b .L126
.L1963:
	.loc 6 84 0
	andi. 11,0,1
	bne- 0,.L782
	add 9,30,9
.L783:
	.loc 6 84 0 is_stmt 0 discriminator 3
	mr 3,9
	lfs 1,0(31)
	lwz 4,4(31)
	mtctr 0
	lwz 5,8(31)
	bctrl
	.loc 3 1039 0 is_stmt 1 discriminator 3
	li 3,1
	.loc 6 85 0 discriminator 3
	b .L126
.L139:
	.loc 6 99 0
	andi. 11,0,1
	bne- 0,.L788
	add 9,30,9
.L789:
	.loc 6 99 0 is_stmt 0 discriminator 3
	mr 3,9
	lwz 4,0(31)
	lwz 5,4(31)
	mtctr 0
	lfs 1,8(31)
	bctrl
	.loc 3 1039 0 is_stmt 1 discriminator 3
	li 3,1
	.loc 6 100 0 discriminator 3
	b .L126
.L137:
	.loc 6 89 0
	andi. 11,0,1
	bne- 0,.L784
	add 9,30,9
.L785:
	.loc 6 89 0 is_stmt 0 discriminator 3
	mr 3,9
	lwz 4,0(31)
	lfs 1,4(31)
	mtctr 0
	lwz 5,8(31)
	bctrl
	.loc 3 1039 0 is_stmt 1 discriminator 3
	li 3,1
	.loc 6 90 0 discriminator 3
	b .L126
.L351:
	.loc 6 1183 0
	andi. 11,0,1
	bne- 0,.L1212
	add 9,30,9
.L1213:
	.loc 6 1183 0 is_stmt 0 discriminator 3
	mr 3,9
	lwz 4,0(31)
	lwz 5,4(31)
	mtctr 0
	lwz 6,8(31)
	lwz 7,12(31)
	lwz 8,16(31)
	lfs 1,20(31)
	lfs 2,24(31)
	bctrl
	.loc 3 1039 0 is_stmt 1 discriminator 3
	li 3,1
	.loc 6 1184 0 discriminator 3
	b .L126
.L1938:
	.loc 6 462 0
	andi. 11,0,1
	bne- 0,.L926
	add 9,30,9
.L927:
	.loc 6 462 0 is_stmt 0 discriminator 3
	mr 3,9
	lfs 1,0(31)
	lwz 4,4(31)
	mtctr 0
	lwz 5,8(31)
	lwz 6,12(31)
	lfs 2,16(31)
	lwz 7,20(31)
	bctrl
	.loc 3 1039 0 is_stmt 1 discriminator 3
	li 3,1
	.loc 6 463 0 discriminator 3
	b .L126
.L651:
.LBE729:
	.loc 3 970 0
	cmpwi 7,11,8204
	beq- 7,.L171
	cmplwi 7,11,8204
	bgt- 7,.L653
	cmpwi 7,11,8202
	beq- 7,.L169
	cmplwi 7,11,8202
	ble- 7,.L1964
.LBB730:
	.loc 6 266 0
	andi. 11,0,1
	bne- 0,.L850
	add 9,30,9
.L851:
	.loc 6 266 0 is_stmt 0 discriminator 3
	mr 3,9
	lfs 1,0(31)
	lfs 2,4(31)
	mtctr 0
	lwz 4,8(31)
	lfs 3,12(31)
	lwz 5,16(31)
	bctrl
	.loc 3 1039 0 is_stmt 1 discriminator 3
	li 3,1
	.loc 6 267 0 discriminator 3
	b .L126
.L1952:
	.loc 6 1554 0
	andi. 11,0,1
	bne- 0,.L1358
	add 9,30,9
.L1359:
	.loc 6 1554 0 is_stmt 0 discriminator 3
	mr 3,9
	lfs 1,0(31)
	lwz 4,4(31)
	mtctr 0
	lwz 5,8(31)
	lfs 2,12(31)
	lwz 6,16(31)
	lfs 3,20(31)
	lwz 7,24(31)
	lwz 8,28(31)
	bctrl
	.loc 3 1039 0 is_stmt 1 discriminator 3
	li 3,1
	.loc 6 1555 0 discriminator 3
	b .L126
.L401:
	.loc 6 1439 0
	andi. 11,0,1
	bne- 0,.L1312
	add 9,30,9
.L1313:
	.loc 6 1439 0 is_stmt 0 discriminator 3
	mr 3,9
	lwz 4,0(31)
	lfs 1,4(31)
	mtctr 0
	lwz 5,8(31)
	lwz 6,12(31)
	lfs 2,16(31)
	lwz 7,20(31)
	lwz 8,24(31)
	lwz 9,28(31)
	bctrl
	.loc 3 1039 0 is_stmt 1 discriminator 3
	li 3,1
	.loc 6 1440 0 discriminator 3
	b .L126
.L1925:
	.loc 6 1354 0
	andi. 11,0,1
	bne- 0,.L1278
	add 9,30,9
.L1279:
	.loc 6 1354 0 is_stmt 0 discriminator 3
	mr 3,9
	lfs 1,0(31)
	lwz 4,4(31)
	mtctr 0
	lwz 5,8(31)
	lwz 6,12(31)
	lwz 7,16(31)
	lwz 8,20(31)
	lwz 9,24(31)
	lwz 10,28(31)
	bctrl
	.loc 3 1039 0 is_stmt 1 discriminator 3
	li 3,1
	.loc 6 1355 0 discriminator 3
	b .L126
.L1940:
	.loc 6 1108 0
	andi. 11,0,1
	bne- 0,.L1182
	add 9,30,9
.L1183:
	.loc 6 1108 0 is_stmt 0 discriminator 3
	mr 3,9
	lfs 1,0(31)
	lwz 4,4(31)
	mtctr 0
	lwz 5,8(31)
	lwz 6,12(31)
	lfs 2,16(31)
	lwz 7,20(31)
	lfs 3,24(31)
	bctrl
	.loc 3 1039 0 is_stmt 1 discriminator 3
	li 3,1
	.loc 6 1109 0 discriminator 3
	b .L126
.L753:
.LBE730:
	.loc 3 970 0
	ori 10,10,204
	cmpw 7,11,10
	beq- 7,.L587
	cmplw 7,11,10
	lis 10,0x1
	bgt- 7,.L755
	ori 10,10,202
	cmpw 7,11,10
	beq- 7,.L585
	cmplw 7,11,10
	ble- 7,.L1965
.LBB731:
	.loc 6 2364 0
	andi. 11,0,1
	bne- 0,.L1682
	add 9,30,9
.L1683:
	.loc 6 2364 0 is_stmt 0 discriminator 3
	mr 3,9
	lfs 1,0(31)
	lfs 2,4(31)
	mtctr 0
	lwz 4,8(31)
	lfs 3,12(31)
	lwz 5,16(31)
	lwz 6,20(31)
	lfs 4,24(31)
	lfs 5,28(31)
	bctrl
	.loc 3 1039 0 is_stmt 1 discriminator 3
	li 3,1
	.loc 6 2365 0 discriminator 3
	b .L126
.L1939:
	.loc 6 1754 0
	andi. 11,0,1
	bne- 0,.L1438
	add 9,30,9
.L1439:
	.loc 6 1754 0 is_stmt 0 discriminator 3
	mr 3,9
	lfs 1,0(31)
	lwz 4,4(31)
	mtctr 0
	lwz 5,8(31)
	lwz 6,12(31)
	lfs 2,16(31)
	lwz 7,20(31)
	lfs 3,24(31)
	lwz 8,28(31)
	bctrl
	.loc 3 1039 0 is_stmt 1 discriminator 3
	li 3,1
	.loc 6 1755 0 discriminator 3
	b .L126
.L725:
.LBE731:
	.loc 3 970 0
	ori 10,10,92
	cmpw 7,11,10
	beq- 7,.L475
	cmplw 7,11,10
	lis 10,0x1
	bgt- 7,.L727
	ori 10,10,90
	cmpw 7,11,10
	beq- 7,.L473
	cmplw 7,11,10
	ble- 7,.L1966
.LBB732:
	.loc 6 1804 0
	andi. 11,0,1
	bne- 0,.L1458
	add 9,30,9
.L1459:
	.loc 6 1804 0 is_stmt 0 discriminator 3
	mr 3,9
	lfs 1,0(31)
	lfs 2,4(31)
	mtctr 0
	lwz 4,8(31)
	lfs 3,12(31)
	lfs 4,16(31)
	lwz 5,20(31)
	lfs 5,24(31)
	lwz 6,28(31)
	bctrl
	.loc 3 1039 0 is_stmt 1 discriminator 3
	li 3,1
	.loc 6 1805 0 discriminator 3
	b .L126
.L471:
	.loc 6 1789 0
	andi. 11,0,1
	bne- 0,.L1452
	add 9,30,9
.L1453:
	.loc 6 1789 0 is_stmt 0 discriminator 3
	mr 3,9
	lwz 4,0(31)
	lwz 5,4(31)
	mtctr 0
	lwz 6,8(31)
	lfs 1,12(31)
	lfs 2,16(31)
	lwz 7,20(31)
	lfs 3,24(31)
	lwz 8,28(31)
	bctrl
	.loc 3 1039 0 is_stmt 1 discriminator 3
	li 3,1
	.loc 6 1790 0 discriminator 3
	b .L126
.L1966:
	.loc 6 1794 0
	andi. 11,0,1
	bne- 0,.L1454
	add 9,30,9
.L1455:
	.loc 6 1794 0 is_stmt 0 discriminator 3
	mr 3,9
	lfs 1,0(31)
	lwz 4,4(31)
	mtctr 0
	lwz 5,8(31)
	lfs 2,12(31)
	lfs 3,16(31)
	lwz 6,20(31)
	lfs 4,24(31)
	lwz 7,28(31)
	bctrl
	.loc 3 1039 0 is_stmt 1 discriminator 3
	li 3,1
	.loc 6 1795 0 discriminator 3
	b .L126
.L475:
	.loc 6 1809 0
	andi. 11,0,1
	bne- 0,.L1460
	add 9,30,9
.L1461:
	.loc 6 1809 0 is_stmt 0 discriminator 3
	mr 3,9
	lwz 4,0(31)
	lwz 5,4(31)
	mtctr 0
	lfs 1,8(31)
	lfs 2,12(31)
	lfs 3,16(31)
	lwz 6,20(31)
	lfs 4,24(31)
	lwz 7,28(31)
	bctrl
	.loc 3 1039 0 is_stmt 1 discriminator 3
	li 3,1
	.loc 6 1810 0 discriminator 3
	b .L126
.L473:
	.loc 6 1799 0
	andi. 11,0,1
	bne- 0,.L1456
	add 9,30,9
.L1457:
	.loc 6 1799 0 is_stmt 0 discriminator 3
	mr 3,9
	lwz 4,0(31)
	lfs 1,4(31)
	mtctr 0
	lwz 5,8(31)
	lfs 2,12(31)
	lfs 3,16(31)
	lwz 6,20(31)
	lfs 4,24(31)
	lwz 7,28(31)
	bctrl
	.loc 3 1039 0 is_stmt 1 discriminator 3
	li 3,1
	.loc 6 1800 0 discriminator 3
	b .L126
.L223:
	.loc 6 537 0
	andi. 11,0,1
	bne- 0,.L956
	add 9,30,9
.L957:
	.loc 6 537 0 is_stmt 0 discriminator 3
	mr 3,9
	lwz 4,0(31)
	lwz 5,4(31)
	mtctr 0
	lwz 6,8(31)
	lwz 7,12(31)
	lwz 8,16(31)
	lfs 1,20(31)
	bctrl
	.loc 3 1039 0 is_stmt 1 discriminator 3
	li 3,1
	.loc 6 538 0 discriminator 3
	b .L126
.L1942:
	.loc 6 788 0
	andi. 11,0,1
	bne- 0,.L1054
	add 9,30,9
.L1055:
	.loc 6 788 0 is_stmt 0 discriminator 3
	mr 3,9
	lfs 1,0(31)
	lwz 4,4(31)
	mtctr 0
	lwz 5,8(31)
	lwz 6,12(31)
	lfs 2,16(31)
	lwz 7,20(31)
	lwz 8,24(31)
	bctrl
	.loc 3 1039 0 is_stmt 1 discriminator 3
	li 3,1
	.loc 6 789 0 discriminator 3
	b .L126
.L745:
.LBE732:
	.loc 3 970 0
	ori 10,10,172
	cmpw 7,11,10
	beq- 7,.L555
	cmplw 7,11,10
	lis 10,0x1
	bgt- 7,.L747
	ori 10,10,170
	cmpw 7,11,10
	beq- 7,.L553
	cmplw 7,11,10
	ble- 7,.L1967
.LBB733:
	.loc 6 2204 0
	andi. 11,0,1
	bne- 0,.L1618
	add 9,30,9
.L1619:
	.loc 6 2204 0 is_stmt 0 discriminator 3
	mr 3,9
	lfs 1,0(31)
	lfs 2,4(31)
	mtctr 0
	lwz 4,8(31)
	lfs 3,12(31)
	lwz 5,16(31)
	lfs 4,20(31)
	lwz 6,24(31)
	lfs 5,28(31)
	bctrl
	.loc 3 1039 0 is_stmt 1 discriminator 3
	li 3,1
	.loc 6 2205 0 discriminator 3
	b .L126
.L1954:
	.loc 6 1874 0
	andi. 11,0,1
	bne- 0,.L1486
	add 9,30,9
.L1487:
	.loc 6 1874 0 is_stmt 0 discriminator 3
	mr 3,9
	lfs 1,0(31)
	lwz 4,4(31)
	mtctr 0
	lwz 5,8(31)
	lfs 2,12(31)
	lwz 6,16(31)
	lfs 3,20(31)
	lfs 4,24(31)
	lwz 7,28(31)
	bctrl
	.loc 3 1039 0 is_stmt 1 discriminator 3
	li 3,1
	.loc 6 1875 0 discriminator 3
	b .L126
.L529:
	.loc 6 2079 0
	andi. 11,0,1
	bne- 0,.L1568
	add 9,30,9
.L1569:
	.loc 6 2079 0 is_stmt 0 discriminator 3
	mr 3,9
	lwz 4,0(31)
	lfs 1,4(31)
	mtctr 0
	lwz 5,8(31)
	lwz 6,12(31)
	lfs 2,16(31)
	lwz 7,20(31)
	lwz 8,24(31)
	lfs 3,28(31)
	bctrl
	.loc 3 1039 0 is_stmt 1 discriminator 3
	li 3,1
	.loc 6 2080 0 discriminator 3
	b .L126
.L1935:
	.loc 6 130 0
	andi. 11,0,1
	bne- 0,.L798
	add 9,30,9
.L799:
	.loc 6 130 0 is_stmt 0 discriminator 3
	mr 3,9
	lfs 1,0(31)
	lwz 4,4(31)
	mtctr 0
	lwz 5,8(31)
	lwz 6,12(31)
	bctrl
	.loc 3 1039 0 is_stmt 1 discriminator 3
	li 3,1
	.loc 6 131 0 discriminator 3
	b .L126
.L1944:
	.loc 6 2554 0
	andi. 11,0,1
	bne- 0,.L1758
	add 9,30,9
.L1759:
	.loc 6 2554 0 is_stmt 0 discriminator 3
	mr 3,9
	lfs 1,0(31)
	lwz 4,4(31)
	mtctr 0
	lwz 5,8(31)
	lwz 6,12(31)
	lfs 2,16(31)
	lfs 3,20(31)
	lfs 4,24(31)
	lfs 5,28(31)
	bctrl
	.loc 3 1039 0 is_stmt 1 discriminator 3
	li 3,1
	.loc 6 2555 0 discriminator 3
	b .L126
.L760:
.LBE733:
	.loc 3 970 0
	ori 10,10,236
	cmpw 7,11,10
	beq- 7,.L619
	cmplw 7,11,10
	lis 10,0x1
	bgt- 7,.L762
	ori 10,10,234
	cmpw 7,11,10
	beq- 7,.L617
	cmplw 7,11,10
	ble- 7,.L1968
.LBB734:
	.loc 6 2524 0
	andi. 11,0,1
	bne- 0,.L1746
	add 9,30,9
.L1747:
	.loc 6 2524 0 is_stmt 0 discriminator 3
	mr 3,9
	lfs 1,0(31)
	lfs 2,4(31)
	mtctr 0
	lwz 4,8(31)
	lfs 3,12(31)
	lwz 5,16(31)
	lfs 4,20(31)
	lfs 5,24(31)
	lfs 6,28(31)
	bctrl
	.loc 3 1039 0 is_stmt 1 discriminator 3
	li 3,1
	.loc 6 2525 0 discriminator 3
	b .L126
.L1943:
	.loc 6 2394 0
	andi. 11,0,1
	bne- 0,.L1694
	add 9,30,9
.L1695:
	.loc 6 2394 0 is_stmt 0 discriminator 3
	mr 3,9
	lfs 1,0(31)
	lwz 4,4(31)
	mtctr 0
	lwz 5,8(31)
	lwz 6,12(31)
	lfs 2,16(31)
	lwz 7,20(31)
	lfs 3,24(31)
	lfs 4,28(31)
	bctrl
	.loc 3 1039 0 is_stmt 1 discriminator 3
	li 3,1
	.loc 6 2395 0 discriminator 3
	b .L126
.L756:
.LBE734:
	.loc 3 970 0
	ori 10,10,220
	cmpw 7,11,10
	beq- 7,.L603
	cmplw 7,11,10
	lis 10,0x1
	bgt- 7,.L758
	ori 10,10,218
	cmpw 7,11,10
	beq- 7,.L601
	cmplw 7,11,10
	ble- 7,.L1969
.LBB735:
	.loc 6 2444 0
	andi. 11,0,1
	bne- 0,.L1714
	add 9,30,9
.L1715:
	.loc 6 2444 0 is_stmt 0 discriminator 3
	mr 3,9
	lfs 1,0(31)
	lfs 2,4(31)
	mtctr 0
	lwz 4,8(31)
	lfs 3,12(31)
	lfs 4,16(31)
	lwz 5,20(31)
	lfs 5,24(31)
	lfs 6,28(31)
	bctrl
	.loc 3 1039 0 is_stmt 1 discriminator 3
	li 3,1
	.loc 6 2445 0 discriminator 3
	b .L126
.L599:
	.loc 6 2429 0
	andi. 11,0,1
	bne- 0,.L1708
	add 9,30,9
.L1709:
	.loc 6 2429 0 is_stmt 0 discriminator 3
	mr 3,9
	lwz 4,0(31)
	lwz 5,4(31)
	mtctr 0
	lwz 6,8(31)
	lfs 1,12(31)
	lfs 2,16(31)
	lwz 7,20(31)
	lfs 3,24(31)
	lfs 4,28(31)
	bctrl
	.loc 3 1039 0 is_stmt 1 discriminator 3
	li 3,1
	.loc 6 2430 0 discriminator 3
	b .L126
.L1969:
	.loc 6 2434 0
	andi. 11,0,1
	bne- 0,.L1710
	add 9,30,9
.L1711:
	.loc 6 2434 0 is_stmt 0 discriminator 3
	mr 3,9
	lfs 1,0(31)
	lwz 4,4(31)
	mtctr 0
	lwz 5,8(31)
	lfs 2,12(31)
	lfs 3,16(31)
	lwz 6,20(31)
	lfs 4,24(31)
	lfs 5,28(31)
	bctrl
	.loc 3 1039 0 is_stmt 1 discriminator 3
	li 3,1
	.loc 6 2435 0 discriminator 3
	b .L126
.L603:
	.loc 6 2449 0
	andi. 11,0,1
	bne- 0,.L1716
	add 9,30,9
.L1717:
	.loc 6 2449 0 is_stmt 0 discriminator 3
	mr 3,9
	lwz 4,0(31)
	lwz 5,4(31)
	mtctr 0
	lfs 1,8(31)
	lfs 2,12(31)
	lfs 3,16(31)
	lwz 6,20(31)
	lfs 4,24(31)
	lfs 5,28(31)
	bctrl
	.loc 3 1039 0 is_stmt 1 discriminator 3
	li 3,1
	.loc 6 2450 0 discriminator 3
	b .L126
.L601:
	.loc 6 2439 0
	andi. 11,0,1
	bne- 0,.L1712
	add 9,30,9
.L1713:
	.loc 6 2439 0 is_stmt 0 discriminator 3
	mr 3,9
	lwz 4,0(31)
	lfs 1,4(31)
	mtctr 0
	lwz 5,8(31)
	lfs 2,12(31)
	lfs 3,16(31)
	lwz 6,20(31)
	lfs 4,24(31)
	lfs 5,28(31)
	bctrl
	.loc 3 1039 0 is_stmt 1 discriminator 3
	li 3,1
	.loc 6 2440 0 discriminator 3
	b .L126
.L722:
.LBE735:
	.loc 3 970 0
	ori 10,10,76
	cmpw 7,11,10
	beq- 7,.L459
	cmplw 7,11,10
	lis 10,0x1
	bgt- 7,.L724
	ori 10,10,74
	cmpw 7,11,10
	beq- 7,.L457
	cmplw 7,11,10
	ble- 7,.L1970
.LBB736:
	.loc 6 1724 0
	andi. 11,0,1
	bne- 0,.L1426
	add 9,30,9
.L1427:
	.loc 6 1724 0 is_stmt 0 discriminator 3
	mr 3,9
	lfs 1,0(31)
	lfs 2,4(31)
	mtctr 0
	lwz 4,8(31)
	lfs 3,12(31)
	lwz 5,16(31)
	lwz 6,20(31)
	lfs 4,24(31)
	lwz 7,28(31)
	bctrl
	.loc 3 1039 0 is_stmt 1 discriminator 3
	li 3,1
	.loc 6 1725 0 discriminator 3
	b .L126
.L1946:
	.loc 6 1268 0
	andi. 11,0,1
	bne- 0,.L1246
	add 9,30,9
.L1247:
	.loc 6 1268 0 is_stmt 0 discriminator 3
	mr 3,9
	lfs 1,0(31)
	lwz 4,4(31)
	mtctr 0
	lwz 5,8(31)
	lwz 6,12(31)
	lfs 2,16(31)
	lfs 3,20(31)
	lfs 4,24(31)
	bctrl
	.loc 3 1039 0 is_stmt 1 discriminator 3
	li 3,1
	.loc 6 1269 0 discriminator 3
	b .L126
.L700:
.LBE736:
	.loc 3 970 0
	ori 10,10,32892
	cmpw 7,11,10
	beq- 7,.L379
	cmplwi 7,11,32892
	li 10,0
	bgt- 7,.L702
	ori 10,10,32890
	cmpw 7,11,10
	beq- 7,.L377
	cmplwi 7,11,32890
	ble- 7,.L1971
.LBB737:
	.loc 6 1318 0
	andi. 11,0,1
	bne- 0,.L1266
	add 9,30,9
.L1267:
	.loc 6 1318 0 is_stmt 0 discriminator 3
	mr 3,9
	lfs 1,0(31)
	lfs 2,4(31)
	mtctr 0
	lwz 4,8(31)
	lfs 3,12(31)
	lfs 4,16(31)
	lfs 5,20(31)
	lfs 6,24(31)
	bctrl
	.loc 3 1039 0 is_stmt 1 discriminator 3
	li 3,1
	.loc 6 1319 0 discriminator 3
	b .L126
.L375:
	.loc 6 1303 0
	andi. 11,0,1
	bne- 0,.L1260
	add 9,30,9
.L1261:
	.loc 6 1303 0 is_stmt 0 discriminator 3
	mr 3,9
	lwz 4,0(31)
	lwz 5,4(31)
	mtctr 0
	lwz 6,8(31)
	lfs 1,12(31)
	lfs 2,16(31)
	lfs 3,20(31)
	lfs 4,24(31)
	bctrl
	.loc 3 1039 0 is_stmt 1 discriminator 3
	li 3,1
	.loc 6 1304 0 discriminator 3
	b .L126
.L1971:
	.loc 6 1308 0
	andi. 11,0,1
	bne- 0,.L1262
	add 9,30,9
.L1263:
	.loc 6 1308 0 is_stmt 0 discriminator 3
	mr 3,9
	lfs 1,0(31)
	lwz 4,4(31)
	mtctr 0
	lwz 5,8(31)
	lfs 2,12(31)
	lfs 3,16(31)
	lfs 4,20(31)
	lfs 5,24(31)
	bctrl
	.loc 3 1039 0 is_stmt 1 discriminator 3
	li 3,1
	.loc 6 1309 0 discriminator 3
	b .L126
.L379:
	.loc 6 1323 0
	andi. 11,0,1
	bne- 0,.L1268
	add 9,30,9
.L1269:
	.loc 6 1323 0 is_stmt 0 discriminator 3
	mr 3,9
	lwz 4,0(31)
	lwz 5,4(31)
	mtctr 0
	lfs 1,8(31)
	lfs 2,12(31)
	lfs 3,16(31)
	lfs 4,20(31)
	lfs 5,24(31)
	bctrl
	.loc 3 1039 0 is_stmt 1 discriminator 3
	li 3,1
	.loc 6 1324 0 discriminator 3
	b .L126
.L377:
	.loc 6 1313 0
	andi. 11,0,1
	bne- 0,.L1264
	add 9,30,9
.L1265:
	.loc 6 1313 0 is_stmt 0 discriminator 3
	mr 3,9
	lwz 4,0(31)
	lfs 1,4(31)
	mtctr 0
	lwz 5,8(31)
	lfs 2,12(31)
	lfs 3,16(31)
	lfs 4,20(31)
	lfs 5,24(31)
	bctrl
	.loc 3 1039 0 is_stmt 1 discriminator 3
	li 3,1
	.loc 6 1314 0 discriminator 3
	b .L126
.L419:
	.loc 6 1529 0
	andi. 11,0,1
	bne- 0,.L1348
	add 9,30,9
.L1349:
	.loc 6 1529 0 is_stmt 0 discriminator 3
	mr 3,9
	lwz 4,0(31)
	lwz 5,4(31)
	mtctr 0
	lfs 1,8(31)
	lwz 6,12(31)
	lwz 7,16(31)
	lfs 2,20(31)
	lwz 8,24(31)
	lwz 9,28(31)
	bctrl
	.loc 3 1039 0 is_stmt 1 discriminator 3
	li 3,1
	.loc 6 1530 0 discriminator 3
	b .L126
.L1945:
	.loc 6 622 0
	andi. 11,0,1
	bne- 0,.L990
	add 9,30,9
.L991:
	.loc 6 622 0 is_stmt 0 discriminator 3
	mr 3,9
	lfs 1,0(31)
	lwz 4,4(31)
	mtctr 0
	lwz 5,8(31)
	lwz 6,12(31)
	lfs 2,16(31)
	lfs 3,20(31)
	bctrl
	.loc 3 1039 0 is_stmt 1 discriminator 3
	li 3,1
	.loc 6 623 0 discriminator 3
	b .L126
.L130:
	.loc 6 42 0
	andi. 11,0,1
	bne- 0,.L770
	add 9,30,9
.L771:
	.loc 6 42 0 is_stmt 0 discriminator 3
	mr 3,9
	lfs 1,0(31)
	mtctr 0
	bctrl
	.loc 3 1039 0 is_stmt 1 discriminator 3
	li 3,1
	.loc 6 43 0 discriminator 3
	b .L126
.L1948:
	.loc 6 296 0
	andi. 11,0,1
	bne- 0,.L862
	add 9,30,9
.L863:
	.loc 6 296 0 is_stmt 0 discriminator 3
	mr 3,9
	lfs 1,0(31)
	lwz 4,4(31)
	mtctr 0
	lwz 5,8(31)
	lwz 6,12(31)
	lfs 2,16(31)
	bctrl
	.loc 3 1039 0 is_stmt 1 discriminator 3
	li 3,1
	.loc 6 297 0 discriminator 3
	b .L126
.L355:
	.loc 6 1203 0
	andi. 11,0,1
	bne- 0,.L1220
	add 9,30,9
.L1221:
	.loc 6 1203 0 is_stmt 0 discriminator 3
	mr 3,9
	lwz 4,0(31)
	lwz 5,4(31)
	mtctr 0
	lfs 1,8(31)
	lwz 6,12(31)
	lwz 7,16(31)
	lfs 2,20(31)
	lfs 3,24(31)
	bctrl
	.loc 3 1039 0 is_stmt 1 discriminator 3
	li 3,1
	.loc 6 1204 0 discriminator 3
	b .L126
.L1956:
	.loc 6 582 0
	andi. 11,0,1
	bne- 0,.L974
	add 9,30,9
.L975:
	.loc 6 582 0 is_stmt 0 discriminator 3
	mr 3,9
	lfs 1,0(31)
	lwz 4,4(31)
	mtctr 0
	lwz 5,8(31)
	lfs 2,12(31)
	lwz 6,16(31)
	lfs 3,20(31)
	bctrl
	.loc 3 1039 0 is_stmt 1 discriminator 3
	li 3,1
	.loc 6 583 0 discriminator 3
	b .L126
.L1950:
	.loc 6 2234 0
	andi. 11,0,1
	bne- 0,.L1630
	add 9,30,9
.L1631:
	.loc 6 2234 0 is_stmt 0 discriminator 3
	mr 3,9
	lfs 1,0(31)
	lwz 4,4(31)
	mtctr 0
	lwz 5,8(31)
	lwz 6,12(31)
	lfs 2,16(31)
	lfs 3,20(31)
	lwz 7,24(31)
	lfs 4,28(31)
	bctrl
	.loc 3 1039 0 is_stmt 1 discriminator 3
	li 3,1
	.loc 6 2235 0 discriminator 3
	b .L126
.L1949:
	.loc 6 1914 0
	andi. 11,0,1
	bne- 0,.L1502
	add 9,30,9
.L1503:
	.loc 6 1914 0 is_stmt 0 discriminator 3
	mr 3,9
	lfs 1,0(31)
	lwz 4,4(31)
	mtctr 0
	lwz 5,8(31)
	lwz 6,12(31)
	lfs 2,16(31)
	lfs 3,20(31)
	lfs 4,24(31)
	lwz 7,28(31)
	bctrl
	.loc 3 1039 0 is_stmt 1 discriminator 3
	li 3,1
	.loc 6 1915 0 discriminator 3
	b .L126
.L547:
	.loc 6 2169 0
	andi. 11,0,1
	bne- 0,.L1604
	add 9,30,9
.L1605:
	.loc 6 2169 0 is_stmt 0 discriminator 3
	mr 3,9
	lwz 4,0(31)
	lwz 5,4(31)
	mtctr 0
	lfs 1,8(31)
	lwz 6,12(31)
	lwz 7,16(31)
	lfs 2,20(31)
	lwz 8,24(31)
	lfs 3,28(31)
	bctrl
	.loc 3 1039 0 is_stmt 1 discriminator 3
	li 3,1
	.loc 6 2170 0 discriminator 3
	b .L126
.L1920:
	.loc 6 1674 0
	andi. 11,0,1
	bne- 0,.L1406
	add 9,30,9
.L1407:
	.loc 6 1674 0 is_stmt 0 discriminator 3
	mr 3,9
	lfs 1,0(31)
	lwz 4,4(31)
	mtctr 0
	lwz 5,8(31)
	lwz 6,12(31)
	lwz 7,16(31)
	lwz 8,20(31)
	lfs 2,24(31)
	lwz 9,28(31)
	bctrl
	.loc 3 1039 0 is_stmt 1 discriminator 3
	li 3,1
	.loc 6 1675 0 discriminator 3
	b .L126
.L291:
	.loc 6 883 0
	andi. 11,0,1
	bne- 0,.L1092
	add 9,30,9
.L1093:
	.loc 6 883 0 is_stmt 0 discriminator 3
	mr 3,9
	lwz 4,0(31)
	lwz 5,4(31)
	mtctr 0
	lfs 1,8(31)
	lwz 6,12(31)
	lwz 7,16(31)
	lfs 2,20(31)
	lwz 8,24(31)
	bctrl
	.loc 3 1039 0 is_stmt 1 discriminator 3
	li 3,1
	.loc 6 884 0 discriminator 3
	b .L126
.L305:
	.loc 6 953 0
	andi. 11,0,1
	bne- 0,.L1120
	add 9,30,9
.L1121:
	.loc 6 953 0 is_stmt 0 discriminator 3
	mr 3,9
	lwz 4,0(31)
	lfs 1,4(31)
	mtctr 0
	lwz 5,8(31)
	lwz 6,12(31)
	lfs 2,16(31)
	lfs 3,20(31)
	lwz 7,24(31)
	bctrl
	.loc 3 1039 0 is_stmt 1 discriminator 3
	li 3,1
	.loc 6 954 0 discriminator 3
	b .L126
.L259:
	.loc 6 723 0
	andi. 11,0,1
	bne- 0,.L1028
	add 9,30,9
.L1029:
	.loc 6 723 0 is_stmt 0 discriminator 3
	mr 3,9
	lwz 4,0(31)
	lwz 5,4(31)
	mtctr 0
	lfs 1,8(31)
	lwz 6,12(31)
	lwz 7,16(31)
	lwz 8,20(31)
	lwz 9,24(31)
	bctrl
	.loc 3 1039 0 is_stmt 1 discriminator 3
	li 3,1
	.loc 6 724 0 discriminator 3
	b .L126
.L135:
	.loc 6 79 0
	andi. 11,0,1
	bne- 0,.L780
	add 9,30,9
.L781:
	.loc 6 79 0 is_stmt 0 discriminator 3
	mr 3,9
	lwz 4,0(31)
	lwz 5,4(31)
	mtctr 0
	lwz 6,8(31)
	bctrl
	.loc 3 1039 0 is_stmt 1 discriminator 3
	li 3,1
	.loc 6 80 0 discriminator 3
	b .L126
.L690:
.LBE737:
	.loc 3 970 0
	ori 10,10,32844
	cmpw 7,11,10
	beq- 7,.L331
	cmplwi 7,11,32844
	li 10,0
	bgt- 7,.L692
	ori 10,10,32842
	cmpw 7,11,10
	beq- 7,.L329
	cmplwi 7,11,32842
	ble- 7,.L1972
.LBB738:
	.loc 6 1078 0
	andi. 11,0,1
	bne- 0,.L1170
	add 9,30,9
.L1171:
	.loc 6 1078 0 is_stmt 0 discriminator 3
	mr 3,9
	lfs 1,0(31)
	lfs 2,4(31)
	mtctr 0
	lwz 4,8(31)
	lfs 3,12(31)
	lwz 5,16(31)
	lwz 6,20(31)
	lfs 4,24(31)
	bctrl
	.loc 3 1039 0 is_stmt 1 discriminator 3
	li 3,1
	.loc 6 1079 0 discriminator 3
	b .L126
.L662:
.LBE738:
	.loc 3 970 0
	cmpwi 7,11,16412
	beq- 7,.L219
	cmplwi 7,11,16412
	bgt- 7,.L664
	cmpwi 7,11,16410
	beq- 7,.L217
	cmplwi 7,11,16410
	ble- 7,.L1973
.LBB739:
	.loc 6 512 0
	andi. 11,0,1
	bne- 0,.L946
	add 9,30,9
.L947:
	.loc 6 512 0 is_stmt 0 discriminator 3
	mr 3,9
	lfs 1,0(31)
	lfs 2,4(31)
	mtctr 0
	lwz 4,8(31)
	lfs 3,12(31)
	lfs 4,16(31)
	lwz 5,20(31)
	bctrl
	.loc 3 1039 0 is_stmt 1 discriminator 3
	li 3,1
	.loc 6 513 0 discriminator 3
	b .L126
.L209:
	.loc 6 467 0
	andi. 11,0,1
	bne- 0,.L928
	add 9,30,9
.L929:
	.loc 6 467 0 is_stmt 0 discriminator 3
	mr 3,9
	lwz 4,0(31)
	lfs 1,4(31)
	mtctr 0
	lwz 5,8(31)
	lwz 6,12(31)
	lfs 2,16(31)
	lwz 7,20(31)
	bctrl
	.loc 3 1039 0 is_stmt 1 discriminator 3
	li 3,1
	.loc 6 468 0 discriminator 3
	b .L126
.L1973:
	.loc 6 502 0
	andi. 11,0,1
	bne- 0,.L942
	add 9,30,9
.L943:
	.loc 6 502 0 is_stmt 0 discriminator 3
	mr 3,9
	lfs 1,0(31)
	lwz 4,4(31)
	mtctr 0
	lwz 5,8(31)
	lfs 2,12(31)
	lfs 3,16(31)
	lwz 6,20(31)
	bctrl
	.loc 3 1039 0 is_stmt 1 discriminator 3
	li 3,1
	.loc 6 503 0 discriminator 3
	b .L126
.L219:
	.loc 6 517 0
	andi. 11,0,1
	bne- 0,.L948
	add 9,30,9
.L949:
	.loc 6 517 0 is_stmt 0 discriminator 3
	mr 3,9
	lwz 4,0(31)
	lwz 5,4(31)
	mtctr 0
	lfs 1,8(31)
	lfs 2,12(31)
	lfs 3,16(31)
	lwz 6,20(31)
	bctrl
	.loc 3 1039 0 is_stmt 1 discriminator 3
	li 3,1
	.loc 6 518 0 discriminator 3
	b .L126
.L217:
	.loc 6 507 0
	andi. 11,0,1
	bne- 0,.L944
	add 9,30,9
.L945:
	.loc 6 507 0 is_stmt 0 discriminator 3
	mr 3,9
	lwz 4,0(31)
	lfs 1,4(31)
	mtctr 0
	lwz 5,8(31)
	lfs 2,12(31)
	lfs 3,16(31)
	lwz 6,20(31)
	bctrl
	.loc 3 1039 0 is_stmt 1 discriminator 3
	li 3,1
	.loc 6 508 0 discriminator 3
	b .L126
.L163:
	.loc 6 231 0
	andi. 11,0,1
	bne- 0,.L836
	add 9,30,9
.L837:
	.loc 6 231 0 is_stmt 0 discriminator 3
	mr 3,9
	lwz 4,0(31)
	lwz 5,4(31)
	mtctr 0
	lfs 1,8(31)
	lwz 6,12(31)
	lwz 7,16(31)
	bctrl
	.loc 3 1039 0 is_stmt 1 discriminator 3
	li 3,1
	.loc 6 232 0 discriminator 3
	b .L126
.L427:
	.loc 6 1569 0
	andi. 11,0,1
	bne- 0,.L1364
	add 9,30,9
.L1365:
	.loc 6 1569 0 is_stmt 0 discriminator 3
	mr 3,9
	lwz 4,0(31)
	lwz 5,4(31)
	mtctr 0
	lfs 1,8(31)
	lfs 2,12(31)
	lwz 6,16(31)
	lfs 3,20(31)
	lwz 7,24(31)
	lwz 8,28(31)
	bctrl
	.loc 3 1039 0 is_stmt 1 discriminator 3
	li 3,1
	.loc 6 1570 0 discriminator 3
	b .L126
.L513:
	.loc 6 1999 0
	andi. 11,0,1
	bne- 0,.L1536
	add 9,30,9
.L1537:
	.loc 6 1999 0 is_stmt 0 discriminator 3
	mr 3,9
	lwz 4,0(31)
	lfs 1,4(31)
	mtctr 0
	lwz 5,8(31)
	lwz 6,12(31)
	lwz 7,16(31)
	lwz 8,20(31)
	lwz 9,24(31)
	lfs 2,28(31)
	bctrl
	.loc 3 1039 0 is_stmt 1 discriminator 3
	li 3,1
	.loc 6 2000 0 discriminator 3
	b .L126
.L693:
.LBE739:
	.loc 3 970 0
	ori 10,10,32860
	cmpw 7,11,10
	beq- 7,.L347
	cmplwi 7,11,32860
	li 10,0
	bgt- 7,.L695
	ori 10,10,32858
	cmpw 7,11,10
	beq- 7,.L345
	cmplwi 7,11,32858
	ble- 7,.L1974
.LBB740:
	.loc 6 1158 0
	andi. 11,0,1
	bne- 0,.L1202
	add 9,30,9
.L1203:
	.loc 6 1158 0 is_stmt 0 discriminator 3
	mr 3,9
	lfs 1,0(31)
	lfs 2,4(31)
	mtctr 0
	lwz 4,8(31)
	lfs 3,12(31)
	lfs 4,16(31)
	lwz 5,20(31)
	lfs 5,24(31)
	bctrl
	.loc 3 1039 0 is_stmt 1 discriminator 3
	li 3,1
	.loc 6 1159 0 discriminator 3
	b .L126
.L227:
	.loc 6 557 0
	andi. 11,0,1
	bne- 0,.L964
	add 9,30,9
.L965:
	.loc 6 557 0 is_stmt 0 discriminator 3
	mr 3,9
	lwz 4,0(31)
	lwz 5,4(31)
	mtctr 0
	lfs 1,8(31)
	lwz 6,12(31)
	lwz 7,16(31)
	lfs 2,20(31)
	bctrl
	.loc 3 1039 0 is_stmt 1 discriminator 3
	li 3,1
	.loc 6 558 0 discriminator 3
	b .L126
.L583:
	.loc 6 2349 0
	andi. 11,0,1
	bne- 0,.L1676
	add 9,30,9
.L1677:
	.loc 6 2349 0 is_stmt 0 discriminator 3
	mr 3,9
	lwz 4,0(31)
	lwz 5,4(31)
	mtctr 0
	lwz 6,8(31)
	lfs 1,12(31)
	lwz 7,16(31)
	lwz 8,20(31)
	lfs 2,24(31)
	lfs 3,28(31)
	bctrl
	.loc 3 1039 0 is_stmt 1 discriminator 3
	li 3,1
	.loc 6 2350 0 discriminator 3
	b .L126
.L465:
	.loc 6 1759 0
	andi. 11,0,1
	bne- 0,.L1440
	add 9,30,9
.L1441:
	.loc 6 1759 0 is_stmt 0 discriminator 3
	mr 3,9
	lwz 4,0(31)
	lfs 1,4(31)
	mtctr 0
	lwz 5,8(31)
	lwz 6,12(31)
	lfs 2,16(31)
	lwz 7,20(31)
	lfs 3,24(31)
	lwz 8,28(31)
	bctrl
	.loc 3 1039 0 is_stmt 1 discriminator 3
	li 3,1
	.loc 6 1760 0 discriminator 3
	b .L126
.L659:
.LBE740:
	.loc 3 970 0
	cmpwi 7,11,16396
	beq- 7,.L203
	cmplwi 7,11,16396
	bgt- 7,.L661
	cmpwi 7,11,16394
	beq- 7,.L201
	cmplwi 7,11,16394
	ble- 7,.L1975
.LBB741:
	.loc 6 432 0
	andi. 11,0,1
	bne- 0,.L914
	add 9,30,9
.L915:
	.loc 6 432 0 is_stmt 0 discriminator 3
	mr 3,9
	lfs 1,0(31)
	lfs 2,4(31)
	mtctr 0
	lwz 4,8(31)
	lfs 3,12(31)
	lwz 5,16(31)
	lwz 6,20(31)
	bctrl
	.loc 3 1039 0 is_stmt 1 discriminator 3
	li 3,1
	.loc 6 433 0 discriminator 3
	b .L126
.L678:
.LBE741:
	.loc 3 970 0
	ori 10,10,32796
	cmpw 7,11,10
	beq- 7,.L283
	cmplwi 7,11,32796
	li 10,0
	bgt- 7,.L680
	ori 10,10,32794
	cmpw 7,11,10
	beq- 7,.L281
	cmplwi 7,11,32794
	ble- 7,.L1976
.LBB742:
	.loc 6 838 0
	andi. 11,0,1
	bne- 0,.L1074
	add 9,30,9
.L1075:
	.loc 6 838 0 is_stmt 0 discriminator 3
	mr 3,9
	lfs 1,0(31)
	lfs 2,4(31)
	mtctr 0
	lwz 4,8(31)
	lfs 3,12(31)
	lfs 4,16(31)
	lwz 5,20(31)
	lwz 6,24(31)
	bctrl
	.loc 3 1039 0 is_stmt 1 discriminator 3
	li 3,1
	.loc 6 839 0 discriminator 3
	b .L126
.L273:
	.loc 6 793 0
	andi. 11,0,1
	bne- 0,.L1056
	add 9,30,9
.L1057:
	.loc 6 793 0 is_stmt 0 discriminator 3
	mr 3,9
	lwz 4,0(31)
	lfs 1,4(31)
	mtctr 0
	lwz 5,8(31)
	lwz 6,12(31)
	lfs 2,16(31)
	lwz 7,20(31)
	lwz 8,24(31)
	bctrl
	.loc 3 1039 0 is_stmt 1 discriminator 3
	li 3,1
	.loc 6 794 0 discriminator 3
	b .L126
.L1976:
	.loc 6 828 0
	andi. 11,0,1
	bne- 0,.L1070
	add 9,30,9
.L1071:
	.loc 6 828 0 is_stmt 0 discriminator 3
	mr 3,9
	lfs 1,0(31)
	lwz 4,4(31)
	mtctr 0
	lwz 5,8(31)
	lfs 2,12(31)
	lfs 3,16(31)
	lwz 6,20(31)
	lwz 7,24(31)
	bctrl
	.loc 3 1039 0 is_stmt 1 discriminator 3
	li 3,1
	.loc 6 829 0 discriminator 3
	b .L126
.L283:
	.loc 6 843 0
	andi. 11,0,1
	bne- 0,.L1076
	add 9,30,9
.L1077:
	.loc 6 843 0 is_stmt 0 discriminator 3
	mr 3,9
	lwz 4,0(31)
	lwz 5,4(31)
	mtctr 0
	lfs 1,8(31)
	lfs 2,12(31)
	lfs 3,16(31)
	lwz 6,20(31)
	lwz 7,24(31)
	bctrl
	.loc 3 1039 0 is_stmt 1 discriminator 3
	li 3,1
	.loc 6 844 0 discriminator 3
	b .L126
.L281:
	.loc 6 833 0
	andi. 11,0,1
	bne- 0,.L1072
	add 9,30,9
.L1073:
	.loc 6 833 0 is_stmt 0 discriminator 3
	mr 3,9
	lwz 4,0(31)
	lfs 1,4(31)
	mtctr 0
	lwz 5,8(31)
	lfs 2,12(31)
	lfs 3,16(31)
	lwz 6,20(31)
	lwz 7,24(31)
	bctrl
	.loc 3 1039 0 is_stmt 1 discriminator 3
	li 3,1
	.loc 6 834 0 discriminator 3
	b .L126
.L487:
	.loc 6 1869 0
	andi. 11,0,1
	bne- 0,.L1484
	add 9,30,9
.L1485:
	.loc 6 1869 0 is_stmt 0 discriminator 3
	mr 3,9
	lwz 4,0(31)
	lwz 5,4(31)
	mtctr 0
	lwz 6,8(31)
	lfs 1,12(31)
	lwz 7,16(31)
	lfs 2,20(31)
	lfs 3,24(31)
	lwz 8,28(31)
	bctrl
	.loc 3 1039 0 is_stmt 1 discriminator 3
	li 3,1
	.loc 6 1870 0 discriminator 3
	b .L126
.L491:
	.loc 6 1889 0
	andi. 11,0,1
	bne- 0,.L1492
	add 9,30,9
.L1493:
	.loc 6 1889 0 is_stmt 0 discriminator 3
	mr 3,9
	lwz 4,0(31)
	lwz 5,4(31)
	mtctr 0
	lfs 1,8(31)
	lfs 2,12(31)
	lwz 6,16(31)
	lfs 3,20(31)
	lfs 4,24(31)
	lwz 7,28(31)
	bctrl
	.loc 3 1039 0 is_stmt 1 discriminator 3
	li 3,1
	.loc 6 1890 0 discriminator 3
	b .L126
.L647:
.LBE742:
	.loc 3 970 0
	cmpwi 7,11,4108
	beq- 7,.L155
	cmplwi 7,11,4108
	bgt- 7,.L649
	cmpwi 7,11,4106
	beq- 7,.L153
	cmplwi 7,11,4106
	ble- 7,.L1977
.LBB743:
	.loc 6 180 0
	andi. 11,0,1
	bne- 0,.L818
	add 9,30,9
.L819:
	.loc 6 180 0 is_stmt 0 discriminator 3
	mr 3,9
	lfs 1,0(31)
	lfs 2,4(31)
	mtctr 0
	lwz 4,8(31)
	lfs 3,12(31)
	bctrl
	.loc 3 1039 0 is_stmt 1 discriminator 3
	li 3,1
	.loc 6 181 0 discriminator 3
	b .L126
.L763:
.LBE743:
	.loc 3 970 0
	ori 10,10,252
	cmpw 7,11,10
	beq- 7,.L635
	cmplw 7,11,10
	lis 10,0x1
	bgt- 7,.L765
	ori 10,10,250
	cmpw 7,11,10
	beq- 7,.L633
	cmplw 7,11,10
	ble- 7,.L1978
.LBB744:
	.loc 6 2604 0
	andi. 11,0,1
	bne- 0,.L1778
	add 9,30,9
.L1779:
	.loc 6 2604 0 is_stmt 0 discriminator 3
	mr 3,9
	lfs 1,0(31)
	lfs 2,4(31)
	mtctr 0
	lwz 4,8(31)
	lfs 3,12(31)
	lfs 4,16(31)
	lfs 5,20(31)
	lfs 6,24(31)
	lfs 7,28(31)
	bctrl
	.loc 3 1039 0 is_stmt 1 discriminator 3
	li 3,1
	.loc 6 2605 0 discriminator 3
	b .L126
.L625:
	.loc 6 2559 0
	andi. 11,0,1
	bne- 0,.L1760
	add 9,30,9
.L1761:
	.loc 6 2559 0 is_stmt 0 discriminator 3
	mr 3,9
	lwz 4,0(31)
	lfs 1,4(31)
	mtctr 0
	lwz 5,8(31)
	lwz 6,12(31)
	lfs 2,16(31)
	lfs 3,20(31)
	lfs 4,24(31)
	lfs 5,28(31)
	bctrl
	.loc 3 1039 0 is_stmt 1 discriminator 3
	li 3,1
	.loc 6 2560 0 discriminator 3
	b .L126
.L1978:
	.loc 6 2594 0
	andi. 11,0,1
	bne- 0,.L1774
	add 9,30,9
.L1775:
	.loc 6 2594 0 is_stmt 0 discriminator 3
	mr 3,9
	lfs 1,0(31)
	lwz 4,4(31)
	mtctr 0
	lwz 5,8(31)
	lfs 2,12(31)
	lfs 3,16(31)
	lfs 4,20(31)
	lfs 5,24(31)
	lfs 6,28(31)
	bctrl
	.loc 3 1039 0 is_stmt 1 discriminator 3
	li 3,1
	.loc 6 2595 0 discriminator 3
	b .L126
.L635:
	.loc 6 2609 0
	andi. 11,0,1
	bne- 0,.L1780
	add 9,30,9
.L1781:
	.loc 6 2609 0 is_stmt 0 discriminator 3
	mr 3,9
	lwz 4,0(31)
	lwz 5,4(31)
	mtctr 0
	lfs 1,8(31)
	lfs 2,12(31)
	lfs 3,16(31)
	lfs 4,20(31)
	lfs 5,24(31)
	lfs 6,28(31)
	bctrl
	.loc 3 1039 0 is_stmt 1 discriminator 3
	li 3,1
	.loc 6 2610 0 discriminator 3
	b .L126
.L633:
	.loc 6 2599 0
	andi. 11,0,1
	bne- 0,.L1776
	add 9,30,9
.L1777:
	.loc 6 2599 0 is_stmt 0 discriminator 3
	mr 3,9
	lwz 4,0(31)
	lfs 1,4(31)
	mtctr 0
	lwz 5,8(31)
	lfs 2,12(31)
	lfs 3,16(31)
	lfs 4,20(31)
	lfs 5,24(31)
	lfs 6,28(31)
	bctrl
	.loc 3 1039 0 is_stmt 1 discriminator 3
	li 3,1
	.loc 6 2600 0 discriminator 3
	b .L126
.L611:
	.loc 6 2489 0
	andi. 11,0,1
	bne- 0,.L1732
	add 9,30,9
.L1733:
	.loc 6 2489 0 is_stmt 0 discriminator 3
	mr 3,9
	lwz 4,0(31)
	lwz 5,4(31)
	mtctr 0
	lfs 1,8(31)
	lwz 6,12(31)
	lwz 7,16(31)
	lfs 2,20(31)
	lfs 3,24(31)
	lfs 4,28(31)
	bctrl
	.loc 3 1039 0 is_stmt 1 discriminator 3
	li 3,1
	.loc 6 2490 0 discriminator 3
	b .L126
.L593:
	.loc 6 2399 0
	andi. 11,0,1
	bne- 0,.L1696
	add 9,30,9
.L1697:
	.loc 6 2399 0 is_stmt 0 discriminator 3
	mr 3,9
	lwz 4,0(31)
	lfs 1,4(31)
	mtctr 0
	lwz 5,8(31)
	lwz 6,12(31)
	lfs 2,16(31)
	lwz 7,20(31)
	lfs 3,24(31)
	lfs 4,28(31)
	bctrl
	.loc 3 1039 0 is_stmt 1 discriminator 3
	li 3,1
	.loc 6 2400 0 discriminator 3
	b .L126
.L738:
.LBE744:
	.loc 3 970 0
	ori 10,10,140
	cmpw 7,11,10
	beq- 7,.L523
	cmplw 7,11,10
	lis 10,0x1
	bgt- 7,.L740
	ori 10,10,138
	cmpw 7,11,10
	beq- 7,.L521
	cmplw 7,11,10
	ble- 7,.L1979
.LBB745:
	.loc 6 2044 0
	andi. 11,0,1
	bne- 0,.L1554
	add 9,30,9
.L1555:
	.loc 6 2044 0 is_stmt 0 discriminator 3
	mr 3,9
	lfs 1,0(31)
	lfs 2,4(31)
	mtctr 0
	lwz 4,8(31)
	lfs 3,12(31)
	lwz 5,16(31)
	lwz 6,20(31)
	lwz 7,24(31)
	lfs 4,28(31)
	bctrl
	.loc 3 1039 0 is_stmt 1 discriminator 3
	li 3,1
	.loc 6 2045 0 discriminator 3
	b .L126
.L369:
	.loc 6 1273 0
	andi. 11,0,1
	bne- 0,.L1248
	add 9,30,9
.L1249:
	.loc 6 1273 0 is_stmt 0 discriminator 3
	mr 3,9
	lwz 4,0(31)
	lfs 1,4(31)
	mtctr 0
	lwz 5,8(31)
	lwz 6,12(31)
	lfs 2,16(31)
	lfs 3,20(31)
	lfs 4,24(31)
	bctrl
	.loc 3 1039 0 is_stmt 1 discriminator 3
	li 3,1
	.loc 6 1274 0 discriminator 3
	b .L126
.L1970:
	.loc 6 1714 0
	andi. 11,0,1
	bne- 0,.L1422
	add 9,30,9
.L1423:
	.loc 6 1714 0 is_stmt 0 discriminator 3
	mr 3,9
	lfs 1,0(31)
	lwz 4,4(31)
	mtctr 0
	lwz 5,8(31)
	lfs 2,12(31)
	lwz 6,16(31)
	lwz 7,20(31)
	lfs 3,24(31)
	lwz 8,28(31)
	bctrl
	.loc 3 1039 0 is_stmt 1 discriminator 3
	li 3,1
	.loc 6 1715 0 discriminator 3
	b .L126
.L459:
	.loc 6 1729 0
	andi. 11,0,1
	bne- 0,.L1428
	add 9,30,9
.L1429:
	.loc 6 1729 0 is_stmt 0 discriminator 3
	mr 3,9
	lwz 4,0(31)
	lwz 5,4(31)
	mtctr 0
	lfs 1,8(31)
	lfs 2,12(31)
	lwz 6,16(31)
	lwz 7,20(31)
	lfs 3,24(31)
	lwz 8,28(31)
	bctrl
	.loc 3 1039 0 is_stmt 1 discriminator 3
	li 3,1
	.loc 6 1730 0 discriminator 3
	b .L126
.L457:
	.loc 6 1719 0
	andi. 11,0,1
	bne- 0,.L1424
	add 9,30,9
.L1425:
	.loc 6 1719 0 is_stmt 0 discriminator 3
	mr 3,9
	lwz 4,0(31)
	lfs 1,4(31)
	mtctr 0
	lwz 5,8(31)
	lfs 2,12(31)
	lwz 6,16(31)
	lwz 7,20(31)
	lfs 3,24(31)
	lwz 8,28(31)
	bctrl
	.loc 3 1039 0 is_stmt 1 discriminator 3
	li 3,1
	.loc 6 1720 0 discriminator 3
	b .L126
.L483:
	.loc 6 1849 0
	andi. 11,0,1
	bne- 0,.L1476
	add 9,30,9
.L1477:
	.loc 6 1849 0 is_stmt 0 discriminator 3
	mr 3,9
	lwz 4,0(31)
	lwz 5,4(31)
	mtctr 0
	lfs 1,8(31)
	lwz 6,12(31)
	lwz 7,16(31)
	lfs 2,20(31)
	lfs 3,24(31)
	lwz 8,28(31)
	bctrl
	.loc 3 1039 0 is_stmt 1 discriminator 3
	li 3,1
	.loc 6 1850 0 discriminator 3
	b .L126
.L669:
.LBE745:
	.loc 3 970 0
	cmpwi 7,11,16444
	beq- 7,.L251
	cmplwi 7,11,16444
	bgt- 7,.L671
	cmpwi 7,11,16442
	beq- 7,.L249
	cmplwi 7,11,16442
	ble- 7,.L1980
.LBB746:
	.loc 6 672 0
	andi. 11,0,1
	bne- 0,.L1010
	add 9,30,9
.L1011:
	.loc 6 672 0 is_stmt 0 discriminator 3
	mr 3,9
	lfs 1,0(31)
	lfs 2,4(31)
	mtctr 0
	lwz 4,8(31)
	lfs 3,12(31)
	lfs 4,16(31)
	lfs 5,20(31)
	bctrl
	.loc 3 1039 0 is_stmt 1 discriminator 3
	li 3,1
	.loc 6 673 0 discriminator 3
	b .L126
.L1915:
	.loc 6 2314 0
	andi. 11,0,1
	bne- 0,.L1662
	add 9,30,9
.L1663:
	.loc 6 2314 0 is_stmt 0 discriminator 3
	mr 3,9
	lfs 1,0(31)
	lwz 4,4(31)
	mtctr 0
	lwz 5,8(31)
	lwz 6,12(31)
	lwz 7,16(31)
	lwz 8,20(31)
	lfs 2,24(31)
	lfs 3,28(31)
	bctrl
	.loc 3 1039 0 is_stmt 1 discriminator 3
	li 3,1
	.loc 6 2315 0 discriminator 3
	b .L126
.L1924:
	.loc 3 972 0
	andi. 11,0,1
	bne- 0,.L766
	add 9,30,9
.L767:
	.loc 3 972 0 is_stmt 0 discriminator 3
	mr 3,9
	mtctr 0
	bctrl
	.loc 3 1039 0 is_stmt 1 discriminator 3
	li 3,1
	.loc 3 973 0 discriminator 3
	b .L126
.L129:
	.loc 6 37 0
	andi. 11,0,1
	bne- 0,.L768
	add 9,30,9
.L769:
	.loc 6 37 0 is_stmt 0 discriminator 3
	mr 3,9
	lwz 4,0(31)
	mtctr 0
	bctrl
	.loc 3 1039 0 is_stmt 1 discriminator 3
	li 3,1
	.loc 6 38 0 discriminator 3
	b .L126
.L183:
	.loc 6 331 0
	andi. 11,0,1
	bne- 0,.L876
	add 9,30,9
.L877:
	.loc 6 331 0 is_stmt 0 discriminator 3
	mr 3,9
	lwz 4,0(31)
	lwz 5,4(31)
	mtctr 0
	lwz 6,8(31)
	lfs 1,12(31)
	lfs 2,16(31)
	bctrl
	.loc 3 1039 0 is_stmt 1 discriminator 3
	li 3,1
	.loc 6 332 0 discriminator 3
	b .L126
.L1958:
	.loc 6 336 0
	andi. 11,0,1
	bne- 0,.L878
	add 9,30,9
.L879:
	.loc 6 336 0 is_stmt 0 discriminator 3
	mr 3,9
	lfs 1,0(31)
	lwz 4,4(31)
	mtctr 0
	lwz 5,8(31)
	lfs 2,12(31)
	lfs 3,16(31)
	bctrl
	.loc 3 1039 0 is_stmt 1 discriminator 3
	li 3,1
	.loc 6 337 0 discriminator 3
	b .L126
.L433:
	.loc 6 1599 0
	andi. 11,0,1
	bne- 0,.L1376
	add 9,30,9
.L1377:
	.loc 6 1599 0 is_stmt 0 discriminator 3
	mr 3,9
	lwz 4,0(31)
	lfs 1,4(31)
	mtctr 0
	lwz 5,8(31)
	lwz 6,12(31)
	lfs 2,16(31)
	lfs 3,20(31)
	lwz 7,24(31)
	lwz 8,28(31)
	bctrl
	.loc 3 1039 0 is_stmt 1 discriminator 3
	li 3,1
	.loc 6 1600 0 discriminator 3
	b .L126
.L748:
.LBE746:
	.loc 3 970 0
	ori 10,10,188
	cmpw 7,11,10
	beq- 7,.L571
	cmplw 7,11,10
	lis 10,0x1
	bgt- 7,.L750
	ori 10,10,186
	cmpw 7,11,10
	beq- 7,.L569
	cmplw 7,11,10
	ble- 7,.L1981
.LBB747:
	.loc 6 2284 0
	andi. 11,0,1
	bne- 0,.L1650
	add 9,30,9
.L1651:
	.loc 6 2284 0 is_stmt 0 discriminator 3
	mr 3,9
	lfs 1,0(31)
	lfs 2,4(31)
	mtctr 0
	lwz 4,8(31)
	lfs 3,12(31)
	lfs 4,16(31)
	lfs 5,20(31)
	lwz 5,24(31)
	lfs 6,28(31)
	bctrl
	.loc 3 1039 0 is_stmt 1 discriminator 3
	li 3,1
	.loc 6 2285 0 discriminator 3
	b .L126
.L732:
.LBE747:
	.loc 3 970 0
	ori 10,10,124
	cmpw 7,11,10
	beq- 7,.L507
	cmplw 7,11,10
	lis 10,0x1
	bgt- 7,.L734
	ori 10,10,122
	cmpw 7,11,10
	beq- 7,.L505
	cmplw 7,11,10
	ble- 7,.L1982
.LBB748:
	.loc 6 1964 0
	andi. 11,0,1
	bne- 0,.L1522
	add 9,30,9
.L1523:
	.loc 6 1964 0 is_stmt 0 discriminator 3
	mr 3,9
	lfs 1,0(31)
	lfs 2,4(31)
	mtctr 0
	lwz 4,8(31)
	lfs 3,12(31)
	lfs 4,16(31)
	lfs 5,20(31)
	lfs 6,24(31)
	lwz 5,28(31)
	bctrl
	.loc 3 1039 0 is_stmt 1 discriminator 3
	li 3,1
	.loc 6 1965 0 discriminator 3
	b .L126
.L497:
	.loc 6 1919 0
	andi. 11,0,1
	bne- 0,.L1504
	add 9,30,9
.L1505:
	.loc 6 1919 0 is_stmt 0 discriminator 3
	mr 3,9
	lwz 4,0(31)
	lfs 1,4(31)
	mtctr 0
	lwz 5,8(31)
	lwz 6,12(31)
	lfs 2,16(31)
	lfs 3,20(31)
	lfs 4,24(31)
	lwz 7,28(31)
	bctrl
	.loc 3 1039 0 is_stmt 1 discriminator 3
	li 3,1
	.loc 6 1920 0 discriminator 3
	b .L126
.L1982:
	.loc 6 1954 0
	andi. 11,0,1
	bne- 0,.L1518
	add 9,30,9
.L1519:
	.loc 6 1954 0 is_stmt 0 discriminator 3
	mr 3,9
	lfs 1,0(31)
	lwz 4,4(31)
	mtctr 0
	lwz 5,8(31)
	lfs 2,12(31)
	lfs 3,16(31)
	lfs 4,20(31)
	lfs 5,24(31)
	lwz 6,28(31)
	bctrl
	.loc 3 1039 0 is_stmt 1 discriminator 3
	li 3,1
	.loc 6 1955 0 discriminator 3
	b .L126
.L507:
	.loc 6 1969 0
	andi. 11,0,1
	bne- 0,.L1524
	add 9,30,9
.L1525:
	.loc 6 1969 0 is_stmt 0 discriminator 3
	mr 3,9
	lwz 4,0(31)
	lwz 5,4(31)
	mtctr 0
	lfs 1,8(31)
	lfs 2,12(31)
	lfs 3,16(31)
	lfs 4,20(31)
	lfs 5,24(31)
	lwz 6,28(31)
	bctrl
	.loc 3 1039 0 is_stmt 1 discriminator 3
	li 3,1
	.loc 6 1970 0 discriminator 3
	b .L126
.L505:
	.loc 6 1959 0
	andi. 11,0,1
	bne- 0,.L1520
	add 9,30,9
.L1521:
	.loc 6 1959 0 is_stmt 0 discriminator 3
	mr 3,9
	lwz 4,0(31)
	lfs 1,4(31)
	mtctr 0
	lwz 5,8(31)
	lfs 2,12(31)
	lfs 3,16(31)
	lfs 4,20(31)
	lfs 5,24(31)
	lwz 6,28(31)
	bctrl
	.loc 3 1039 0 is_stmt 1 discriminator 3
	li 3,1
	.loc 6 1960 0 discriminator 3
	b .L126
.L545:
	.loc 6 2159 0
	andi. 11,0,1
	bne- 0,.L1600
	add 9,30,9
.L1601:
	.loc 6 2159 0 is_stmt 0 discriminator 3
	mr 3,9
	lwz 4,0(31)
	lfs 1,4(31)
	mtctr 0
	lwz 5,8(31)
	lwz 6,12(31)
	lwz 7,16(31)
	lfs 2,20(31)
	lwz 8,24(31)
	lfs 3,28(31)
	bctrl
	.loc 3 1039 0 is_stmt 1 discriminator 3
	li 3,1
	.loc 6 2160 0 discriminator 3
	b .L126
.L321:
	.loc 6 1033 0
	andi. 11,0,1
	bne- 0,.L1152
	add 9,30,9
.L1153:
	.loc 6 1033 0 is_stmt 0 discriminator 3
	mr 3,9
	lwz 4,0(31)
	lfs 1,4(31)
	mtctr 0
	lwz 5,8(31)
	lwz 6,12(31)
	lwz 7,16(31)
	lwz 8,20(31)
	lfs 2,24(31)
	bctrl
	.loc 3 1039 0 is_stmt 1 discriminator 3
	li 3,1
	.loc 6 1034 0 discriminator 3
	b .L126
.L511:
	.loc 6 1989 0
	andi. 11,0,1
	bne- 0,.L1532
	add 9,30,9
.L1533:
	.loc 6 1989 0 is_stmt 0 discriminator 3
	mr 3,9
	lwz 4,0(31)
	lwz 5,4(31)
	mtctr 0
	lwz 6,8(31)
	lwz 7,12(31)
	lwz 8,16(31)
	lwz 9,20(31)
	lwz 10,24(31)
	lfs 1,28(31)
	bctrl
	.loc 3 1039 0 is_stmt 1 discriminator 3
	li 3,1
	.loc 6 1990 0 discriminator 3
	b .L126
.L1960:
	.loc 6 908 0
	andi. 11,0,1
	bne- 0,.L1102
	add 9,30,9
.L1103:
	.loc 6 908 0 is_stmt 0 discriminator 3
	mr 3,9
	lfs 1,0(31)
	lwz 4,4(31)
	mtctr 0
	lwz 5,8(31)
	lfs 2,12(31)
	lwz 6,16(31)
	lfs 3,20(31)
	lwz 7,24(31)
	bctrl
	.loc 3 1039 0 is_stmt 1 discriminator 3
	li 3,1
	.loc 6 909 0 discriminator 3
	b .L126
.L263:
	.loc 6 743 0
	andi. 11,0,1
	bne- 0,.L1036
	add 9,30,9
.L1037:
	.loc 6 743 0 is_stmt 0 discriminator 3
	mr 3,9
	lwz 4,0(31)
	lwz 5,4(31)
	mtctr 0
	lwz 6,8(31)
	lfs 1,12(31)
	lwz 7,16(31)
	lwz 8,20(31)
	lwz 9,24(31)
	bctrl
	.loc 3 1039 0 is_stmt 1 discriminator 3
	li 3,1
	.loc 6 744 0 discriminator 3
	b .L126
.L1962:
	.loc 6 748 0
	andi. 11,0,1
	bne- 0,.L1038
	add 9,30,9
.L1039:
	.loc 6 748 0 is_stmt 0 discriminator 3
	mr 3,9
	lfs 1,0(31)
	lwz 4,4(31)
	mtctr 0
	lwz 5,8(31)
	lfs 2,12(31)
	lwz 6,16(31)
	lwz 7,20(31)
	lwz 8,24(31)
	bctrl
	.loc 3 1039 0 is_stmt 1 discriminator 3
	li 3,1
	.loc 6 749 0 discriminator 3
	b .L126
.L327:
	.loc 6 1063 0
	andi. 11,0,1
	bne- 0,.L1164
	add 9,30,9
.L1165:
	.loc 6 1063 0 is_stmt 0 discriminator 3
	mr 3,9
	lwz 4,0(31)
	lwz 5,4(31)
	mtctr 0
	lwz 6,8(31)
	lfs 1,12(31)
	lwz 7,16(31)
	lwz 8,20(31)
	lfs 2,24(31)
	bctrl
	.loc 3 1039 0 is_stmt 1 discriminator 3
	li 3,1
	.loc 6 1064 0 discriminator 3
	b .L126
.L215:
	.loc 6 497 0
	andi. 11,0,1
	bne- 0,.L940
	add 9,30,9
.L941:
	.loc 6 497 0 is_stmt 0 discriminator 3
	mr 3,9
	lwz 4,0(31)
	lwz 5,4(31)
	mtctr 0
	lwz 6,8(31)
	lfs 1,12(31)
	lfs 2,16(31)
	lwz 7,20(31)
	bctrl
	.loc 3 1039 0 is_stmt 1 discriminator 3
	li 3,1
	.loc 6 498 0 discriminator 3
	b .L126
.L423:
	.loc 6 1549 0
	andi. 11,0,1
	bne- 0,.L1356
	add 9,30,9
.L1357:
	.loc 6 1549 0 is_stmt 0 discriminator 3
	mr 3,9
	lwz 4,0(31)
	lwz 5,4(31)
	mtctr 0
	lwz 6,8(31)
	lfs 1,12(31)
	lwz 7,16(31)
	lfs 2,20(31)
	lwz 8,24(31)
	lwz 9,28(31)
	bctrl
	.loc 3 1039 0 is_stmt 1 discriminator 3
	li 3,1
	.loc 6 1550 0 discriminator 3
	b .L126
.L1964:
	.loc 6 256 0
	andi. 11,0,1
	bne- 0,.L846
	add 9,30,9
.L847:
	.loc 6 256 0 is_stmt 0 discriminator 3
	mr 3,9
	lfs 1,0(31)
	lwz 4,4(31)
	mtctr 0
	lwz 5,8(31)
	lfs 2,12(31)
	lwz 6,16(31)
	bctrl
	.loc 3 1039 0 is_stmt 1 discriminator 3
	li 3,1
	.loc 6 257 0 discriminator 3
	b .L126
.L385:
	.loc 6 1359 0
	andi. 11,0,1
	bne- 0,.L1280
	add 9,30,9
.L1281:
	.loc 6 1359 0 is_stmt 0 discriminator 3
	mr 3,9
	lwz 4,0(31)
	lfs 1,4(31)
	mtctr 0
	lwz 5,8(31)
	lwz 6,12(31)
	lwz 7,16(31)
	lwz 8,20(31)
	lwz 9,24(31)
	lwz 10,28(31)
	bctrl
	.loc 3 1039 0 is_stmt 1 discriminator 3
	li 3,1
	.loc 6 1360 0 discriminator 3
	b .L126
.L337:
	.loc 6 1113 0
	andi. 11,0,1
	bne- 0,.L1184
	add 9,30,9
.L1185:
	.loc 6 1113 0 is_stmt 0 discriminator 3
	mr 3,9
	lwz 4,0(31)
	lfs 1,4(31)
	mtctr 0
	lwz 5,8(31)
	lwz 6,12(31)
	lfs 2,16(31)
	lwz 7,20(31)
	lfs 3,24(31)
	bctrl
	.loc 3 1039 0 is_stmt 1 discriminator 3
	li 3,1
	.loc 6 1114 0 discriminator 3
	b .L126
.L225:
	.loc 6 547 0
	andi. 11,0,1
	bne- 0,.L960
	add 9,30,9
.L961:
	.loc 6 547 0 is_stmt 0 discriminator 3
	mr 3,9
	lwz 4,0(31)
	lfs 1,4(31)
	mtctr 0
	lwz 5,8(31)
	lwz 6,12(31)
	lwz 7,16(31)
	lfs 2,20(31)
	bctrl
	.loc 3 1039 0 is_stmt 1 discriminator 3
	li 3,1
	.loc 6 548 0 discriminator 3
	b .L126
.L1965:
	.loc 6 2354 0
	andi. 11,0,1
	bne- 0,.L1678
	add 9,30,9
.L1679:
	.loc 6 2354 0 is_stmt 0 discriminator 3
	mr 3,9
	lfs 1,0(31)
	lwz 4,4(31)
	mtctr 0
	lwz 5,8(31)
	lfs 2,12(31)
	lwz 6,16(31)
	lwz 7,20(31)
	lfs 3,24(31)
	lfs 4,28(31)
	bctrl
	.loc 3 1039 0 is_stmt 1 discriminator 3
	li 3,1
	.loc 6 2355 0 discriminator 3
	b .L126
.L199:
	.loc 6 417 0
	andi. 11,0,1
	bne- 0,.L908
	add 9,30,9
.L909:
	.loc 6 417 0 is_stmt 0 discriminator 3
	mr 3,9
	lwz 4,0(31)
	lwz 5,4(31)
	mtctr 0
	lwz 6,8(31)
	lfs 1,12(31)
	lwz 7,16(31)
	lwz 8,20(31)
	bctrl
	.loc 3 1039 0 is_stmt 1 discriminator 3
	li 3,1
	.loc 6 418 0 discriminator 3
	b .L126
.L279:
	.loc 6 823 0
	andi. 11,0,1
	bne- 0,.L1068
	add 9,30,9
.L1069:
	.loc 6 823 0 is_stmt 0 discriminator 3
	mr 3,9
	lwz 4,0(31)
	lwz 5,4(31)
	mtctr 0
	lwz 6,8(31)
	lfs 1,12(31)
	lfs 2,16(31)
	lwz 7,20(31)
	lwz 8,24(31)
	bctrl
	.loc 3 1039 0 is_stmt 1 discriminator 3
	li 3,1
	.loc 6 824 0 discriminator 3
	b .L126
.L551:
	.loc 6 2189 0
	andi. 11,0,1
	bne- 0,.L1612
	add 9,30,9
.L1613:
	.loc 6 2189 0 is_stmt 0 discriminator 3
	mr 3,9
	lwz 4,0(31)
	lwz 5,4(31)
	mtctr 0
	lwz 6,8(31)
	lfs 1,12(31)
	lwz 7,16(31)
	lfs 2,20(31)
	lwz 8,24(31)
	lfs 3,28(31)
	bctrl
	.loc 3 1039 0 is_stmt 1 discriminator 3
	li 3,1
	.loc 6 2190 0 discriminator 3
	b .L126
.L1967:
	.loc 6 2194 0
	andi. 11,0,1
	bne- 0,.L1614
	add 9,30,9
.L1615:
	.loc 6 2194 0 is_stmt 0 discriminator 3
	mr 3,9
	lfs 1,0(31)
	lwz 4,4(31)
	mtctr 0
	lwz 5,8(31)
	lfs 2,12(31)
	lwz 6,16(31)
	lfs 3,20(31)
	lwz 7,24(31)
	lfs 4,28(31)
	bctrl
	.loc 3 1039 0 is_stmt 1 discriminator 3
	li 3,1
	.loc 6 2195 0 discriminator 3
	b .L126
.L145:
	.loc 6 135 0
	andi. 11,0,1
	bne- 0,.L800
	add 9,30,9
.L801:
	.loc 6 135 0 is_stmt 0 discriminator 3
	mr 3,9
	lwz 4,0(31)
	lfs 1,4(31)
	mtctr 0
	lwz 5,8(31)
	lwz 6,12(31)
	bctrl
	.loc 3 1039 0 is_stmt 1 discriminator 3
	li 3,1
	.loc 6 136 0 discriminator 3
	b .L126
.L631:
	.loc 6 2589 0
	andi. 11,0,1
	bne- 0,.L1772
	add 9,30,9
.L1773:
	.loc 6 2589 0 is_stmt 0 discriminator 3
	mr 3,9
	lwz 4,0(31)
	lwz 5,4(31)
	mtctr 0
	lwz 6,8(31)
	lfs 1,12(31)
	lfs 2,16(31)
	lfs 3,20(31)
	lfs 4,24(31)
	lfs 5,28(31)
	bctrl
	.loc 3 1039 0 is_stmt 1 discriminator 3
	li 3,1
	.loc 6 2590 0 discriminator 3
	b .L126
.L615:
	.loc 6 2509 0
	andi. 11,0,1
	bne- 0,.L1740
	add 9,30,9
.L1741:
	.loc 6 2509 0 is_stmt 0 discriminator 3
	mr 3,9
	lwz 4,0(31)
	lwz 5,4(31)
	mtctr 0
	lwz 6,8(31)
	lfs 1,12(31)
	lwz 7,16(31)
	lfs 2,20(31)
	lfs 3,24(31)
	lfs 4,28(31)
	bctrl
	.loc 3 1039 0 is_stmt 1 discriminator 3
	li 3,1
	.loc 6 2510 0 discriminator 3
	b .L126
.L1968:
	.loc 6 2514 0
	andi. 11,0,1
	bne- 0,.L1742
	add 9,30,9
.L1743:
	.loc 6 2514 0 is_stmt 0 discriminator 3
	mr 3,9
	lfs 1,0(31)
	lwz 4,4(31)
	mtctr 0
	lwz 5,8(31)
	lfs 2,12(31)
	lwz 6,16(31)
	lfs 3,20(31)
	lfs 4,24(31)
	lfs 5,28(31)
	bctrl
	.loc 3 1039 0 is_stmt 1 discriminator 3
	li 3,1
	.loc 6 2515 0 discriminator 3
	b .L126
.L455:
	.loc 6 1709 0
	andi. 11,0,1
	bne- 0,.L1420
	add 9,30,9
.L1421:
	.loc 6 1709 0 is_stmt 0 discriminator 3
	mr 3,9
	lwz 4,0(31)
	lwz 5,4(31)
	mtctr 0
	lwz 6,8(31)
	lfs 1,12(31)
	lwz 7,16(31)
	lwz 8,20(31)
	lfs 2,24(31)
	lwz 9,28(31)
	bctrl
	.loc 3 1039 0 is_stmt 1 discriminator 3
	li 3,1
	.loc 6 1710 0 discriminator 3
	b .L126
.L1979:
	.loc 6 2034 0
	andi. 11,0,1
	bne- 0,.L1550
	add 9,30,9
.L1551:
	.loc 6 2034 0 is_stmt 0 discriminator 3
	mr 3,9
	lfs 1,0(31)
	lwz 4,4(31)
	mtctr 0
	lwz 5,8(31)
	lfs 2,12(31)
	lwz 6,16(31)
	lwz 7,20(31)
	lwz 8,24(31)
	lfs 3,28(31)
	bctrl
	.loc 3 1039 0 is_stmt 1 discriminator 3
	li 3,1
	.loc 6 2035 0 discriminator 3
	b .L126
.L417:
	.loc 6 1519 0
	andi. 11,0,1
	bne- 0,.L1344
	add 9,30,9
.L1345:
	.loc 6 1519 0 is_stmt 0 discriminator 3
	mr 3,9
	lwz 4,0(31)
	lfs 1,4(31)
	mtctr 0
	lwz 5,8(31)
	lwz 6,12(31)
	lwz 7,16(31)
	lfs 2,20(31)
	lwz 8,24(31)
	lwz 9,28(31)
	bctrl
	.loc 3 1039 0 is_stmt 1 discriminator 3
	li 3,1
	.loc 6 1520 0 discriminator 3
	b .L126
.L241:
	.loc 6 627 0
	andi. 11,0,1
	bne- 0,.L992
	add 9,30,9
.L993:
	.loc 6 627 0 is_stmt 0 discriminator 3
	mr 3,9
	lwz 4,0(31)
	lfs 1,4(31)
	mtctr 0
	lwz 5,8(31)
	lwz 6,12(31)
	lfs 2,16(31)
	lfs 3,20(31)
	bctrl
	.loc 3 1039 0 is_stmt 1 discriminator 3
	li 3,1
	.loc 6 628 0 discriminator 3
	b .L126
.L577:
	.loc 6 2319 0
	andi. 11,0,1
	bne- 0,.L1664
	add 9,30,9
.L1665:
	.loc 6 2319 0 is_stmt 0 discriminator 3
	mr 3,9
	lwz 4,0(31)
	lfs 1,4(31)
	mtctr 0
	lwz 5,8(31)
	lwz 6,12(31)
	lwz 7,16(31)
	lwz 8,20(31)
	lfs 2,24(31)
	lfs 3,28(31)
	bctrl
	.loc 3 1039 0 is_stmt 1 discriminator 3
	li 3,1
	.loc 6 2320 0 discriminator 3
	b .L126
.L177:
	.loc 6 301 0
	andi. 11,0,1
	bne- 0,.L864
	add 9,30,9
.L865:
	.loc 6 301 0 is_stmt 0 discriminator 3
	mr 3,9
	lwz 4,0(31)
	lfs 1,4(31)
	mtctr 0
	lwz 5,8(31)
	lwz 6,12(31)
	lfs 2,16(31)
	bctrl
	.loc 3 1039 0 is_stmt 1 discriminator 3
	li 3,1
	.loc 6 302 0 discriminator 3
	b .L126
.L353:
	.loc 6 1193 0
	andi. 11,0,1
	bne- 0,.L1216
	add 9,30,9
.L1217:
	.loc 6 1193 0 is_stmt 0 discriminator 3
	mr 3,9
	lwz 4,0(31)
	lfs 1,4(31)
	mtctr 0
	lwz 5,8(31)
	lwz 6,12(31)
	lwz 7,16(31)
	lfs 2,20(31)
	lfs 3,24(31)
	bctrl
	.loc 3 1039 0 is_stmt 1 discriminator 3
	li 3,1
	.loc 6 1194 0 discriminator 3
	b .L126
.L235:
	.loc 6 597 0
	andi. 11,0,1
	bne- 0,.L980
	add 9,30,9
.L981:
	.loc 6 597 0 is_stmt 0 discriminator 3
	mr 3,9
	lwz 4,0(31)
	lwz 5,4(31)
	mtctr 0
	lfs 1,8(31)
	lfs 2,12(31)
	lwz 6,16(31)
	lfs 3,20(31)
	bctrl
	.loc 3 1039 0 is_stmt 1 discriminator 3
	li 3,1
	.loc 6 598 0 discriminator 3
	b .L126
.L561:
	.loc 6 2239 0
	andi. 11,0,1
	bne- 0,.L1632
	add 9,30,9
.L1633:
	.loc 6 2239 0 is_stmt 0 discriminator 3
	mr 3,9
	lwz 4,0(31)
	lfs 1,4(31)
	mtctr 0
	lwz 5,8(31)
	lwz 6,12(31)
	lfs 2,16(31)
	lfs 3,20(31)
	lwz 7,24(31)
	lfs 4,28(31)
	bctrl
	.loc 3 1039 0 is_stmt 1 discriminator 3
	li 3,1
	.loc 6 2240 0 discriminator 3
	b .L126
.L503:
	.loc 6 1949 0
	andi. 11,0,1
	bne- 0,.L1516
	add 9,30,9
.L1517:
	.loc 6 1949 0 is_stmt 0 discriminator 3
	mr 3,9
	lwz 4,0(31)
	lwz 5,4(31)
	mtctr 0
	lwz 6,8(31)
	lfs 1,12(31)
	lfs 2,16(31)
	lfs 3,20(31)
	lfs 4,24(31)
	lwz 7,28(31)
	bctrl
	.loc 3 1039 0 is_stmt 1 discriminator 3
	li 3,1
	.loc 6 1950 0 discriminator 3
	b .L126
.L161:
	.loc 6 221 0
	andi. 11,0,1
	bne- 0,.L832
	add 9,30,9
.L833:
	.loc 6 221 0 is_stmt 0 discriminator 3
	mr 3,9
	lwz 4,0(31)
	lfs 1,4(31)
	mtctr 0
	lwz 5,8(31)
	lwz 6,12(31)
	lwz 7,16(31)
	bctrl
	.loc 3 1039 0 is_stmt 1 discriminator 3
	li 3,1
	.loc 6 222 0 discriminator 3
	b .L126
.L449:
	.loc 6 1679 0
	andi. 11,0,1
	bne- 0,.L1408
	add 9,30,9
.L1409:
	.loc 6 1679 0 is_stmt 0 discriminator 3
	mr 3,9
	lwz 4,0(31)
	lfs 1,4(31)
	mtctr 0
	lwz 5,8(31)
	lwz 6,12(31)
	lwz 7,16(31)
	lwz 8,20(31)
	lfs 2,24(31)
	lwz 9,28(31)
	bctrl
	.loc 3 1039 0 is_stmt 1 discriminator 3
	li 3,1
	.loc 6 1680 0 discriminator 3
	b .L126
.L289:
	.loc 6 873 0
	andi. 11,0,1
	bne- 0,.L1088
	add 9,30,9
.L1089:
	.loc 6 873 0 is_stmt 0 discriminator 3
	mr 3,9
	lwz 4,0(31)
	lfs 1,4(31)
	mtctr 0
	lwz 5,8(31)
	lwz 6,12(31)
	lwz 7,16(31)
	lfs 2,20(31)
	lwz 8,24(31)
	bctrl
	.loc 3 1039 0 is_stmt 1 discriminator 3
	li 3,1
	.loc 6 874 0 discriminator 3
	b .L126
.L299:
	.loc 6 923 0
	andi. 11,0,1
	bne- 0,.L1108
	add 9,30,9
.L1109:
	.loc 6 923 0 is_stmt 0 discriminator 3
	mr 3,9
	lwz 4,0(31)
	lwz 5,4(31)
	mtctr 0
	lfs 1,8(31)
	lfs 2,12(31)
	lwz 6,16(31)
	lfs 3,20(31)
	lwz 7,24(31)
	bctrl
	.loc 3 1039 0 is_stmt 1 discriminator 3
	li 3,1
	.loc 6 924 0 discriminator 3
	b .L126
.L257:
	.loc 6 713 0
	andi. 11,0,1
	bne- 0,.L1024
	add 9,30,9
.L1025:
	.loc 6 713 0 is_stmt 0 discriminator 3
	mr 3,9
	lwz 4,0(31)
	lfs 1,4(31)
	mtctr 0
	lwz 5,8(31)
	lwz 6,12(31)
	lwz 7,16(31)
	lwz 8,20(31)
	lwz 9,24(31)
	bctrl
	.loc 3 1039 0 is_stmt 1 discriminator 3
	li 3,1
	.loc 6 714 0 discriminator 3
	b .L126
.L267:
	.loc 6 763 0
	andi. 11,0,1
	bne- 0,.L1044
	add 9,30,9
.L1045:
	.loc 6 763 0 is_stmt 0 discriminator 3
	mr 3,9
	lwz 4,0(31)
	lwz 5,4(31)
	mtctr 0
	lfs 1,8(31)
	lfs 2,12(31)
	lwz 6,16(31)
	lwz 7,20(31)
	lwz 8,24(31)
	bctrl
	.loc 3 1039 0 is_stmt 1 discriminator 3
	li 3,1
	.loc 6 764 0 discriminator 3
	b .L126
.L519:
	.loc 6 2029 0
	andi. 11,0,1
	bne- 0,.L1548
	add 9,30,9
.L1549:
	.loc 6 2029 0 is_stmt 0 discriminator 3
	mr 3,9
	lwz 4,0(31)
	lwz 5,4(31)
	mtctr 0
	lwz 6,8(31)
	lfs 1,12(31)
	lwz 7,16(31)
	lwz 8,20(31)
	lwz 9,24(31)
	lfs 2,28(31)
	bctrl
	.loc 3 1039 0 is_stmt 1 discriminator 3
	li 3,1
	.loc 6 2030 0 discriminator 3
	b .L126
.L1972:
	.loc 6 1068 0
	andi. 11,0,1
	bne- 0,.L1166
	add 9,30,9
.L1167:
	.loc 6 1068 0 is_stmt 0 discriminator 3
	mr 3,9
	lfs 1,0(31)
	lwz 4,4(31)
	mtctr 0
	lwz 5,8(31)
	lfs 2,12(31)
	lwz 6,16(31)
	lwz 7,20(31)
	lfs 3,24(31)
	bctrl
	.loc 3 1039 0 is_stmt 1 discriminator 3
	li 3,1
	.loc 6 1069 0 discriminator 3
	b .L126
.L481:
	.loc 6 1839 0
	andi. 11,0,1
	bne- 0,.L1472
	add 9,30,9
.L1473:
	.loc 6 1839 0 is_stmt 0 discriminator 3
	mr 3,9
	lwz 4,0(31)
	lfs 1,4(31)
	mtctr 0
	lwz 5,8(31)
	lwz 6,12(31)
	lwz 7,16(31)
	lfs 2,20(31)
	lfs 3,24(31)
	lwz 8,28(31)
	bctrl
	.loc 3 1039 0 is_stmt 1 discriminator 3
	li 3,1
	.loc 6 1840 0 discriminator 3
	b .L126
.L425:
	.loc 6 1559 0
	andi. 11,0,1
	bne- 0,.L1360
	add 9,30,9
.L1361:
	.loc 6 1559 0 is_stmt 0 discriminator 3
	mr 3,9
	lwz 4,0(31)
	lfs 1,4(31)
	mtctr 0
	lwz 5,8(31)
	lfs 2,12(31)
	lwz 6,16(31)
	lfs 3,20(31)
	lwz 7,24(31)
	lwz 8,28(31)
	bctrl
	.loc 3 1039 0 is_stmt 1 discriminator 3
	li 3,1
	.loc 6 1560 0 discriminator 3
	b .L126
.L1980:
	.loc 6 662 0
	andi. 11,0,1
	bne- 0,.L1006
	add 9,30,9
.L1007:
	.loc 6 662 0 is_stmt 0 discriminator 3
	mr 3,9
	lfs 1,0(31)
	lwz 4,4(31)
	mtctr 0
	lwz 5,8(31)
	lfs 2,12(31)
	lfs 3,16(31)
	lfs 4,20(31)
	bctrl
	.loc 3 1039 0 is_stmt 1 discriminator 3
	li 3,1
	.loc 6 663 0 discriminator 3
	b .L126
.L343:
	.loc 6 1143 0
	andi. 11,0,1
	bne- 0,.L1196
	add 9,30,9
.L1197:
	.loc 6 1143 0 is_stmt 0 discriminator 3
	mr 3,9
	lwz 4,0(31)
	lwz 5,4(31)
	mtctr 0
	lwz 6,8(31)
	lfs 1,12(31)
	lfs 2,16(31)
	lwz 7,20(31)
	lfs 3,24(31)
	bctrl
	.loc 3 1039 0 is_stmt 1 discriminator 3
	li 3,1
	.loc 6 1144 0 discriminator 3
	b .L126
.L1974:
	.loc 6 1148 0
	andi. 11,0,1
	bne- 0,.L1198
	add 9,30,9
.L1199:
	.loc 6 1148 0 is_stmt 0 discriminator 3
	mr 3,9
	lfs 1,0(31)
	lwz 4,4(31)
	mtctr 0
	lwz 5,8(31)
	lfs 2,12(31)
	lfs 3,16(31)
	lwz 6,20(31)
	lfs 4,24(31)
	bctrl
	.loc 3 1039 0 is_stmt 1 discriminator 3
	li 3,1
	.loc 6 1149 0 discriminator 3
	b .L126
.L587:
	.loc 6 2369 0
	andi. 11,0,1
	bne- 0,.L1684
	add 9,30,9
.L1685:
	.loc 6 2369 0 is_stmt 0 discriminator 3
	mr 3,9
	lwz 4,0(31)
	lwz 5,4(31)
	mtctr 0
	lfs 1,8(31)
	lfs 2,12(31)
	lwz 6,16(31)
	lwz 7,20(31)
	lfs 3,24(31)
	lfs 4,28(31)
	bctrl
	.loc 3 1039 0 is_stmt 1 discriminator 3
	li 3,1
	.loc 6 2370 0 discriminator 3
	b .L126
.L567:
	.loc 6 2269 0
	andi. 11,0,1
	bne- 0,.L1644
	add 9,30,9
.L1645:
	.loc 6 2269 0 is_stmt 0 discriminator 3
	mr 3,9
	lwz 4,0(31)
	lwz 5,4(31)
	mtctr 0
	lwz 6,8(31)
	lfs 1,12(31)
	lfs 2,16(31)
	lfs 3,20(31)
	lwz 7,24(31)
	lfs 4,28(31)
	bctrl
	.loc 3 1039 0 is_stmt 1 discriminator 3
	li 3,1
	.loc 6 2270 0 discriminator 3
	b .L126
.L1975:
	.loc 6 422 0
	andi. 11,0,1
	bne- 0,.L910
	add 9,30,9
.L911:
	.loc 6 422 0 is_stmt 0 discriminator 3
	mr 3,9
	lfs 1,0(31)
	lwz 4,4(31)
	mtctr 0
	lwz 5,8(31)
	lfs 2,12(31)
	lwz 6,16(31)
	lwz 7,20(31)
	bctrl
	.loc 3 1039 0 is_stmt 1 discriminator 3
	li 3,1
	.loc 6 423 0 discriminator 3
	b .L126
.L167:
	.loc 6 251 0
	andi. 11,0,1
	bne- 0,.L844
	add 9,30,9
.L845:
	.loc 6 251 0 is_stmt 0 discriminator 3
	mr 3,9
	lwz 4,0(31)
	lwz 5,4(31)
	mtctr 0
	lwz 6,8(31)
	lfs 1,12(31)
	lwz 7,16(31)
	bctrl
	.loc 3 1039 0 is_stmt 1 discriminator 3
	li 3,1
	.loc 6 252 0 discriminator 3
	b .L126
.L489:
	.loc 6 1879 0
	andi. 11,0,1
	bne- 0,.L1488
	add 9,30,9
.L1489:
	.loc 6 1879 0 is_stmt 0 discriminator 3
	mr 3,9
	lwz 4,0(31)
	lfs 1,4(31)
	mtctr 0
	lwz 5,8(31)
	lfs 2,12(31)
	lwz 6,16(31)
	lfs 3,20(31)
	lfs 4,24(31)
	lwz 7,28(31)
	bctrl
	.loc 3 1039 0 is_stmt 1 discriminator 3
	li 3,1
	.loc 6 1880 0 discriminator 3
	b .L126
.L151:
	.loc 6 165 0
	andi. 11,0,1
	bne- 0,.L812
	add 9,30,9
.L813:
	.loc 6 165 0 is_stmt 0 discriminator 3
	mr 3,9
	lwz 4,0(31)
	lwz 5,4(31)
	mtctr 0
	lwz 6,8(31)
	lfs 1,12(31)
	bctrl
	.loc 3 1039 0 is_stmt 1 discriminator 3
	li 3,1
	.loc 6 166 0 discriminator 3
	b .L126
.L1977:
	.loc 6 170 0
	andi. 11,0,1
	bne- 0,.L814
	add 9,30,9
.L815:
	.loc 6 170 0 is_stmt 0 discriminator 3
	mr 3,9
	lfs 1,0(31)
	lwz 4,4(31)
	mtctr 0
	lwz 5,8(31)
	lfs 2,12(31)
	bctrl
	.loc 3 1039 0 is_stmt 1 discriminator 3
	li 3,1
	.loc 6 171 0 discriminator 3
	b .L126
.L609:
	.loc 6 2479 0
	andi. 11,0,1
	bne- 0,.L1728
	add 9,30,9
.L1729:
	.loc 6 2479 0 is_stmt 0 discriminator 3
	mr 3,9
	lwz 4,0(31)
	lfs 1,4(31)
	mtctr 0
	lwz 5,8(31)
	lwz 6,12(31)
	lwz 7,16(31)
	lfs 2,20(31)
	lfs 3,24(31)
	lfs 4,28(31)
	bctrl
	.loc 3 1039 0 is_stmt 1 discriminator 3
	li 3,1
	.loc 6 2480 0 discriminator 3
	b .L126
.L619:
	.loc 6 2529 0
	andi. 11,0,1
	bne- 0,.L1748
	add 9,30,9
.L1749:
	.loc 6 2529 0 is_stmt 0 discriminator 3
	mr 3,9
	lwz 4,0(31)
	lwz 5,4(31)
	mtctr 0
	lfs 1,8(31)
	lfs 2,12(31)
	lwz 6,16(31)
	lfs 3,20(31)
	lfs 4,24(31)
	lfs 5,28(31)
	bctrl
	.loc 3 1039 0 is_stmt 1 discriminator 3
	li 3,1
	.loc 6 2530 0 discriminator 3
	b .L126
.L251:
	.loc 6 677 0
	andi. 11,0,1
	bne- 0,.L1012
	add 9,30,9
.L1013:
	.loc 6 677 0 is_stmt 0 discriminator 3
	mr 3,9
	lwz 4,0(31)
	lwz 5,4(31)
	mtctr 0
	lfs 1,8(31)
	lfs 2,12(31)
	lfs 3,16(31)
	lfs 4,20(31)
	bctrl
	.loc 3 1039 0 is_stmt 1 discriminator 3
	li 3,1
	.loc 6 678 0 discriminator 3
	b .L126
.L523:
	.loc 6 2049 0
	andi. 11,0,1
	bne- 0,.L1556
	add 9,30,9
.L1557:
	.loc 6 2049 0 is_stmt 0 discriminator 3
	mr 3,9
	lwz 4,0(31)
	lwz 5,4(31)
	mtctr 0
	lfs 1,8(31)
	lfs 2,12(31)
	lwz 6,16(31)
	lwz 7,20(31)
	lwz 8,24(31)
	lfs 3,28(31)
	bctrl
	.loc 3 1039 0 is_stmt 1 discriminator 3
	li 3,1
	.loc 6 2050 0 discriminator 3
	b .L126
.L187:
	.loc 6 351 0
	andi. 11,0,1
	bne- 0,.L884
	add 9,30,9
.L885:
	.loc 6 351 0 is_stmt 0 discriminator 3
	mr 3,9
	lwz 4,0(31)
	lwz 5,4(31)
	mtctr 0
	lfs 1,8(31)
	lfs 2,12(31)
	lfs 3,16(31)
	bctrl
	.loc 3 1039 0 is_stmt 1 discriminator 3
	li 3,1
	.loc 6 352 0 discriminator 3
	b .L126
.L247:
	.loc 6 657 0
	andi. 11,0,1
	bne- 0,.L1004
	add 9,30,9
.L1005:
	.loc 6 657 0 is_stmt 0 discriminator 3
	mr 3,9
	lwz 4,0(31)
	lwz 5,4(31)
	mtctr 0
	lwz 6,8(31)
	lfs 1,12(31)
	lfs 2,16(31)
	lfs 3,20(31)
	bctrl
	.loc 3 1039 0 is_stmt 1 discriminator 3
	li 3,1
	.loc 6 658 0 discriminator 3
	b .L126
.L295:
	.loc 6 903 0
	andi. 11,0,1
	bne- 0,.L1100
	add 9,30,9
.L1101:
	.loc 6 903 0 is_stmt 0 discriminator 3
	mr 3,9
	lwz 4,0(31)
	lwz 5,4(31)
	mtctr 0
	lwz 6,8(31)
	lfs 1,12(31)
	lwz 7,16(31)
	lfs 2,20(31)
	lwz 8,24(31)
	bctrl
	.loc 3 1039 0 is_stmt 1 discriminator 3
	li 3,1
	.loc 6 904 0 discriminator 3
	b .L126
.L297:
	.loc 6 913 0
	andi. 11,0,1
	bne- 0,.L1104
	add 9,30,9
.L1105:
	.loc 6 913 0 is_stmt 0 discriminator 3
	mr 3,9
	lwz 4,0(31)
	lfs 1,4(31)
	mtctr 0
	lwz 5,8(31)
	lfs 2,12(31)
	lwz 6,16(31)
	lfs 3,20(31)
	lwz 7,24(31)
	bctrl
	.loc 3 1039 0 is_stmt 1 discriminator 3
	li 3,1
	.loc 6 914 0 discriminator 3
	b .L126
.L347:
	.loc 6 1163 0
	andi. 11,0,1
	bne- 0,.L1204
	add 9,30,9
.L1205:
	.loc 6 1163 0 is_stmt 0 discriminator 3
	mr 3,9
	lwz 4,0(31)
	lwz 5,4(31)
	mtctr 0
	lfs 1,8(31)
	lfs 2,12(31)
	lfs 3,16(31)
	lwz 6,20(31)
	lfs 4,24(31)
	bctrl
	.loc 3 1039 0 is_stmt 1 discriminator 3
	li 3,1
	.loc 6 1164 0 discriminator 3
	b .L126
.L233:
	.loc 6 587 0
	andi. 11,0,1
	bne- 0,.L976
	add 9,30,9
.L977:
	.loc 6 587 0 is_stmt 0 discriminator 3
	mr 3,9
	lwz 4,0(31)
	lfs 1,4(31)
	mtctr 0
	lwz 5,8(31)
	lfs 2,12(31)
	lwz 6,16(31)
	lfs 3,20(31)
	bctrl
	.loc 3 1039 0 is_stmt 1 discriminator 3
	li 3,1
	.loc 6 588 0 discriminator 3
	b .L126
.L249:
	.loc 6 667 0
	andi. 11,0,1
	bne- 0,.L1008
	add 9,30,9
.L1009:
	.loc 6 667 0 is_stmt 0 discriminator 3
	mr 3,9
	lwz 4,0(31)
	lfs 1,4(31)
	mtctr 0
	lwz 5,8(31)
	lfs 2,12(31)
	lfs 3,16(31)
	lfs 4,20(31)
	bctrl
	.loc 3 1039 0 is_stmt 1 discriminator 3
	li 3,1
	.loc 6 668 0 discriminator 3
	b .L126
.L1981:
	.loc 6 2274 0
	andi. 11,0,1
	bne- 0,.L1646
	add 9,30,9
.L1647:
	.loc 6 2274 0 is_stmt 0 discriminator 3
	mr 3,9
	lfs 1,0(31)
	lwz 4,4(31)
	mtctr 0
	lwz 5,8(31)
	lfs 2,12(31)
	lfs 3,16(31)
	lfs 4,20(31)
	lwz 6,24(31)
	lfs 5,28(31)
	bctrl
	.loc 3 1039 0 is_stmt 1 discriminator 3
	li 3,1
	.loc 6 2275 0 discriminator 3
	b .L126
.L185:
	.loc 6 341 0
	andi. 11,0,1
	bne- 0,.L880
	add 9,30,9
.L881:
	.loc 6 341 0 is_stmt 0 discriminator 3
	mr 3,9
	lwz 4,0(31)
	lfs 1,4(31)
	mtctr 0
	lwz 5,8(31)
	lfs 2,12(31)
	lfs 3,16(31)
	bctrl
	.loc 3 1039 0 is_stmt 1 discriminator 3
	li 3,1
	.loc 6 342 0 discriminator 3
	b .L126
.L555:
	.loc 6 2209 0
	andi. 11,0,1
	bne- 0,.L1620
	add 9,30,9
.L1621:
	.loc 6 2209 0 is_stmt 0 discriminator 3
	mr 3,9
	lwz 4,0(31)
	lwz 5,4(31)
	mtctr 0
	lfs 1,8(31)
	lfs 2,12(31)
	lwz 6,16(31)
	lfs 3,20(31)
	lwz 7,24(31)
	lfs 4,28(31)
	bctrl
	.loc 3 1039 0 is_stmt 1 discriminator 3
	li 3,1
	.loc 6 2210 0 discriminator 3
	b .L126
.L345:
	.loc 6 1153 0
	andi. 11,0,1
	bne- 0,.L1200
	add 9,30,9
.L1201:
	.loc 6 1153 0 is_stmt 0 discriminator 3
	mr 3,9
	lwz 4,0(31)
	lfs 1,4(31)
	mtctr 0
	lwz 5,8(31)
	lfs 2,12(31)
	lfs 3,16(31)
	lwz 6,20(31)
	lfs 4,24(31)
	bctrl
	.loc 3 1039 0 is_stmt 1 discriminator 3
	li 3,1
	.loc 6 1154 0 discriminator 3
	b .L126
.L155:
	.loc 6 185 0
	andi. 11,0,1
	bne- 0,.L820
	add 9,30,9
.L821:
	.loc 6 185 0 is_stmt 0 discriminator 3
	mr 3,9
	lwz 4,0(31)
	lwz 5,4(31)
	mtctr 0
	lfs 1,8(31)
	lfs 2,12(31)
	bctrl
	.loc 3 1039 0 is_stmt 1 discriminator 3
	li 3,1
	.loc 6 186 0 discriminator 3
	b .L126
.L265:
	.loc 6 753 0
	andi. 11,0,1
	bne- 0,.L1040
	add 9,30,9
.L1041:
	.loc 6 753 0 is_stmt 0 discriminator 3
	mr 3,9
	lwz 4,0(31)
	lfs 1,4(31)
	mtctr 0
	lwz 5,8(31)
	lfs 2,12(31)
	lwz 6,16(31)
	lwz 7,20(31)
	lwz 8,24(31)
	bctrl
	.loc 3 1039 0 is_stmt 1 discriminator 3
	li 3,1
	.loc 6 754 0 discriminator 3
	b .L126
.L331:
	.loc 6 1083 0
	andi. 11,0,1
	bne- 0,.L1172
	add 9,30,9
.L1173:
	.loc 6 1083 0 is_stmt 0 discriminator 3
	mr 3,9
	lwz 4,0(31)
	lwz 5,4(31)
	mtctr 0
	lfs 1,8(31)
	lfs 2,12(31)
	lwz 6,16(31)
	lwz 7,20(31)
	lfs 3,24(31)
	bctrl
	.loc 3 1039 0 is_stmt 1 discriminator 3
	li 3,1
	.loc 6 1084 0 discriminator 3
	b .L126
.L171:
	.loc 6 271 0
	andi. 11,0,1
	bne- 0,.L852
	add 9,30,9
.L853:
	.loc 6 271 0 is_stmt 0 discriminator 3
	mr 3,9
	lwz 4,0(31)
	lwz 5,4(31)
	mtctr 0
	lfs 1,8(31)
	lfs 2,12(31)
	lwz 6,16(31)
	bctrl
	.loc 3 1039 0 is_stmt 1 discriminator 3
	li 3,1
	.loc 6 272 0 discriminator 3
	b .L126
.L153:
	.loc 6 175 0
	andi. 11,0,1
	bne- 0,.L816
	add 9,30,9
.L817:
	.loc 6 175 0 is_stmt 0 discriminator 3
	mr 3,9
	lwz 4,0(31)
	lfs 1,4(31)
	mtctr 0
	lwz 5,8(31)
	lfs 2,12(31)
	bctrl
	.loc 3 1039 0 is_stmt 1 discriminator 3
	li 3,1
	.loc 6 176 0 discriminator 3
	b .L126
.L585:
	.loc 6 2359 0
	andi. 11,0,1
	bne- 0,.L1680
	add 9,30,9
.L1681:
	.loc 6 2359 0 is_stmt 0 discriminator 3
	mr 3,9
	lwz 4,0(31)
	lfs 1,4(31)
	mtctr 0
	lwz 5,8(31)
	lfs 2,12(31)
	lwz 6,16(31)
	lwz 7,20(31)
	lfs 3,24(31)
	lfs 4,28(31)
	bctrl
	.loc 3 1039 0 is_stmt 1 discriminator 3
	li 3,1
	.loc 6 2360 0 discriminator 3
	b .L126
.L203:
	.loc 6 437 0
	andi. 11,0,1
	bne- 0,.L916
	add 9,30,9
.L917:
	.loc 6 437 0 is_stmt 0 discriminator 3
	mr 3,9
	lwz 4,0(31)
	lwz 5,4(31)
	mtctr 0
	lfs 1,8(31)
	lfs 2,12(31)
	lwz 6,16(31)
	lwz 7,20(31)
	bctrl
	.loc 3 1039 0 is_stmt 1 discriminator 3
	li 3,1
	.loc 6 438 0 discriminator 3
	b .L126
.L553:
	.loc 6 2199 0
	andi. 11,0,1
	bne- 0,.L1616
	add 9,30,9
.L1617:
	.loc 6 2199 0 is_stmt 0 discriminator 3
	mr 3,9
	lwz 4,0(31)
	lfs 1,4(31)
	mtctr 0
	lwz 5,8(31)
	lfs 2,12(31)
	lwz 6,16(31)
	lfs 3,20(31)
	lwz 7,24(31)
	lfs 4,28(31)
	bctrl
	.loc 3 1039 0 is_stmt 1 discriminator 3
	li 3,1
	.loc 6 2200 0 discriminator 3
	b .L126
.L521:
	.loc 6 2039 0
	andi. 11,0,1
	bne- 0,.L1552
	add 9,30,9
.L1553:
	.loc 6 2039 0 is_stmt 0 discriminator 3
	mr 3,9
	lwz 4,0(31)
	lfs 1,4(31)
	mtctr 0
	lwz 5,8(31)
	lfs 2,12(31)
	lwz 6,16(31)
	lwz 7,20(31)
	lwz 8,24(31)
	lfs 3,28(31)
	bctrl
	.loc 3 1039 0 is_stmt 1 discriminator 3
	li 3,1
	.loc 6 2040 0 discriminator 3
	b .L126
.L617:
	.loc 6 2519 0
	andi. 11,0,1
	bne- 0,.L1744
	add 9,30,9
.L1745:
	.loc 6 2519 0 is_stmt 0 discriminator 3
	mr 3,9
	lwz 4,0(31)
	lfs 1,4(31)
	mtctr 0
	lwz 5,8(31)
	lfs 2,12(31)
	lwz 6,16(31)
	lfs 3,20(31)
	lfs 4,24(31)
	lfs 5,28(31)
	bctrl
	.loc 3 1039 0 is_stmt 1 discriminator 3
	li 3,1
	.loc 6 2520 0 discriminator 3
	b .L126
.L571:
	.loc 6 2289 0
	andi. 11,0,1
	bne- 0,.L1652
	add 9,30,9
.L1653:
	.loc 6 2289 0 is_stmt 0 discriminator 3
	mr 3,9
	lwz 4,0(31)
	lwz 5,4(31)
	mtctr 0
	lfs 1,8(31)
	lfs 2,12(31)
	lfs 3,16(31)
	lfs 4,20(31)
	lwz 6,24(31)
	lfs 5,28(31)
	bctrl
	.loc 3 1039 0 is_stmt 1 discriminator 3
	li 3,1
	.loc 6 2290 0 discriminator 3
	b .L126
.L169:
	.loc 6 261 0
	andi. 11,0,1
	bne- 0,.L848
	add 9,30,9
.L849:
	.loc 6 261 0 is_stmt 0 discriminator 3
	mr 3,9
	lwz 4,0(31)
	lfs 1,4(31)
	mtctr 0
	lwz 5,8(31)
	lfs 2,12(31)
	lwz 6,16(31)
	bctrl
	.loc 3 1039 0 is_stmt 1 discriminator 3
	li 3,1
	.loc 6 262 0 discriminator 3
	b .L126
.L329:
	.loc 6 1073 0
	andi. 11,0,1
	bne- 0,.L1168
	add 9,30,9
.L1169:
	.loc 6 1073 0 is_stmt 0 discriminator 3
	mr 3,9
	lwz 4,0(31)
	lfs 1,4(31)
	mtctr 0
	lwz 5,8(31)
	lfs 2,12(31)
	lwz 6,16(31)
	lwz 7,20(31)
	lfs 3,24(31)
	bctrl
	.loc 3 1039 0 is_stmt 1 discriminator 3
	li 3,1
	.loc 6 1074 0 discriminator 3
	b .L126
.L201:
	.loc 6 427 0
	andi. 11,0,1
	bne- 0,.L912
	add 9,30,9
.L913:
	.loc 6 427 0 is_stmt 0 discriminator 3
	mr 3,9
	lwz 4,0(31)
	lfs 1,4(31)
	mtctr 0
	lwz 5,8(31)
	lfs 2,12(31)
	lwz 6,16(31)
	lwz 7,20(31)
	bctrl
	.loc 3 1039 0 is_stmt 1 discriminator 3
	li 3,1
	.loc 6 428 0 discriminator 3
	b .L126
.L569:
	.loc 6 2279 0
	andi. 11,0,1
	bne- 0,.L1648
	add 9,30,9
.L1649:
	.loc 6 2279 0 is_stmt 0 discriminator 3
	mr 3,9
	lwz 4,0(31)
	lfs 1,4(31)
	mtctr 0
	lwz 5,8(31)
	lfs 2,12(31)
	lfs 3,16(31)
	lfs 4,20(31)
	lwz 6,24(31)
	lfs 5,28(31)
	bctrl
	.loc 3 1039 0 is_stmt 1 discriminator 3
	li 3,1
	.loc 6 2280 0 discriminator 3
	b .L126
.L1244:
	.loc 6 1263 0 discriminator 1
	lwzx 11,30,9
	add 9,30,9
	add 0,11,0
	mr 11,0
	lwz 0,-1(11)
	b .L1245
.L990:
	.loc 6 622 0 discriminator 1
	lwzx 11,30,9
	add 9,30,9
	add 0,11,0
	mr 11,0
	lwz 0,-1(11)
	b .L991
.L766:
	.loc 3 972 0 discriminator 1
	lwzx 11,30,9
	add 9,30,9
	add 0,11,0
	mr 11,0
	lwz 0,-1(11)
	b .L767
.L1662:
	.loc 6 2314 0 discriminator 1
	lwzx 11,30,9
	add 9,30,9
	add 0,11,0
	mr 11,0
	lwz 0,-1(11)
	b .L1663
.L1648:
	.loc 6 2279 0 discriminator 1
	lwzx 11,30,9
	add 9,30,9
	add 0,11,0
	mr 11,0
	lwz 0,-1(11)
	b .L1649
.L1506:
	.loc 6 1924 0 discriminator 1
	lwzx 11,30,9
	add 9,30,9
	add 0,11,0
	mr 11,0
	lwz 0,-1(11)
	b .L1507
.L1084:
	.loc 6 863 0 discriminator 1
	lwzx 11,30,9
	add 9,30,9
	add 0,11,0
	mr 11,0
	lwz 0,-1(11)
	b .L1085
.L1630:
	.loc 6 2234 0 discriminator 1
	lwzx 11,30,9
	add 9,30,9
	add 0,11,0
	mr 11,0
	lwz 0,-1(11)
	b .L1631
.L1522:
	.loc 6 1964 0 discriminator 1
	lwzx 11,30,9
	add 9,30,9
	add 0,11,0
	mr 11,0
	lwz 0,-1(11)
	b .L1523
.L1518:
	.loc 6 1954 0 discriminator 1
	lwzx 11,30,9
	add 9,30,9
	add 0,11,0
	mr 11,0
	lwz 0,-1(11)
	b .L1519
.L1504:
	.loc 6 1919 0 discriminator 1
	lwzx 11,30,9
	add 9,30,9
	add 0,11,0
	mr 11,0
	lwz 0,-1(11)
	b .L1505
.L1524:
	.loc 6 1969 0 discriminator 1
	lwzx 11,30,9
	add 9,30,9
	add 0,11,0
	mr 11,0
	lwz 0,-1(11)
	b .L1525
.L1762:
	.loc 6 2564 0 discriminator 1
	lwzx 11,30,9
	add 9,30,9
	add 0,11,0
	mr 11,0
	lwz 0,-1(11)
	b .L1763
.L1116:
	.loc 6 943 0 discriminator 1
	lwzx 11,30,9
	add 9,30,9
	add 0,11,0
	mr 11,0
	lwz 0,-1(11)
	b .L1117
.L798:
	.loc 6 130 0 discriminator 1
	lwzx 11,30,9
	add 9,30,9
	add 0,11,0
	mr 11,0
	lwz 0,-1(11)
	b .L799
.L1778:
	.loc 6 2604 0 discriminator 1
	lwzx 11,30,9
	add 9,30,9
	add 0,11,0
	mr 11,0
	lwz 0,-1(11)
	b .L1779
.L1774:
	.loc 6 2594 0 discriminator 1
	lwzx 11,30,9
	add 9,30,9
	add 0,11,0
	mr 11,0
	lwz 0,-1(11)
	b .L1775
.L1760:
	.loc 6 2559 0 discriminator 1
	lwzx 11,30,9
	add 9,30,9
	add 0,11,0
	mr 11,0
	lwz 0,-1(11)
	b .L1761
.L1780:
	.loc 6 2609 0 discriminator 1
	lwzx 11,30,9
	add 9,30,9
	add 0,11,0
	mr 11,0
	lwz 0,-1(11)
	b .L1781
.L1564:
	.loc 6 2069 0 discriminator 1
	lwzx 11,30,9
	add 9,30,9
	add 0,11,0
	mr 11,0
	lwz 0,-1(11)
	b .L1565
.L1182:
	.loc 6 1108 0 discriminator 1
	lwzx 11,30,9
	add 9,30,9
	add 0,11,0
	mr 11,0
	lwz 0,-1(11)
	b .L1183
.L964:
	.loc 6 557 0 discriminator 1
	lwzx 11,30,9
	add 9,30,9
	add 0,11,0
	mr 11,0
	lwz 0,-1(11)
	b .L965
.L1422:
	.loc 6 1714 0 discriminator 1
	lwzx 11,30,9
	add 9,30,9
	add 0,11,0
	mr 11,0
	lwz 0,-1(11)
	b .L1423
.L1248:
	.loc 6 1273 0 discriminator 1
	lwzx 11,30,9
	add 9,30,9
	add 0,11,0
	mr 11,0
	lwz 0,-1(11)
	b .L1249
.L1428:
	.loc 6 1729 0 discriminator 1
	lwzx 11,30,9
	add 9,30,9
	add 0,11,0
	mr 11,0
	lwz 0,-1(11)
	b .L1429
.L1726:
	.loc 6 2474 0 discriminator 1
	lwzx 11,30,9
	add 9,30,9
	add 0,11,0
	mr 11,0
	lwz 0,-1(11)
	b .L1727
.L1694:
	.loc 6 2394 0 discriminator 1
	lwzx 11,30,9
	add 9,30,9
	add 0,11,0
	mr 11,0
	lwz 0,-1(11)
	b .L1695
.L1714:
	.loc 6 2444 0 discriminator 1
	lwzx 11,30,9
	add 9,30,9
	add 0,11,0
	mr 11,0
	lwz 0,-1(11)
	b .L1715
.L1710:
	.loc 6 2434 0 discriminator 1
	lwzx 11,30,9
	add 9,30,9
	add 0,11,0
	mr 11,0
	lwz 0,-1(11)
	b .L1711
.L1708:
	.loc 6 2429 0 discriminator 1
	lwzx 11,30,9
	add 9,30,9
	add 0,11,0
	mr 11,0
	lwz 0,-1(11)
	b .L1709
.L1716:
	.loc 6 2449 0 discriminator 1
	lwzx 11,30,9
	add 9,30,9
	add 0,11,0
	mr 11,0
	lwz 0,-1(11)
	b .L1717
.L1540:
	.loc 6 2009 0 discriminator 1
	lwzx 11,30,9
	add 9,30,9
	add 0,11,0
	mr 11,0
	lwz 0,-1(11)
	b .L1541
.L1246:
	.loc 6 1268 0 discriminator 1
	lwzx 11,30,9
	add 9,30,9
	add 0,11,0
	mr 11,0
	lwz 0,-1(11)
	b .L1247
.L1266:
	.loc 6 1318 0 discriminator 1
	lwzx 11,30,9
	add 9,30,9
	add 0,11,0
	mr 11,0
	lwz 0,-1(11)
	b .L1267
.L1262:
	.loc 6 1308 0 discriminator 1
	lwzx 11,30,9
	add 9,30,9
	add 0,11,0
	mr 11,0
	lwz 0,-1(11)
	b .L1263
.L1260:
	.loc 6 1303 0 discriminator 1
	lwzx 11,30,9
	add 9,30,9
	add 0,11,0
	mr 11,0
	lwz 0,-1(11)
	b .L1261
.L1268:
	.loc 6 1323 0 discriminator 1
	lwzx 11,30,9
	add 9,30,9
	add 0,11,0
	mr 11,0
	lwz 0,-1(11)
	b .L1269
.L930:
	.loc 6 472 0 discriminator 1
	lwzx 11,30,9
	add 9,30,9
	add 0,11,0
	mr 11,0
	lwz 0,-1(11)
	b .L931
.L1468:
	.loc 6 1829 0 discriminator 1
	lwzx 11,30,9
	add 9,30,9
	add 0,11,0
	mr 11,0
	lwz 0,-1(11)
	b .L1469
.L1212:
	.loc 6 1183 0 discriminator 1
	lwzx 11,30,9
	add 9,30,9
	add 0,11,0
	mr 11,0
	lwz 0,-1(11)
	b .L1213
.L946:
	.loc 6 512 0 discriminator 1
	lwzx 11,30,9
	add 9,30,9
	add 0,11,0
	mr 11,0
	lwz 0,-1(11)
	b .L947
.L942:
	.loc 6 502 0 discriminator 1
	lwzx 11,30,9
	add 9,30,9
	add 0,11,0
	mr 11,0
	lwz 0,-1(11)
	b .L943
.L928:
	.loc 6 467 0 discriminator 1
	lwzx 11,30,9
	add 9,30,9
	add 0,11,0
	mr 11,0
	lwz 0,-1(11)
	b .L929
.L948:
	.loc 6 517 0 discriminator 1
	lwzx 11,30,9
	add 9,30,9
	add 0,11,0
	mr 11,0
	lwz 0,-1(11)
	b .L949
.L1058:
	.loc 6 798 0 discriminator 1
	lwzx 11,30,9
	add 9,30,9
	add 0,11,0
	mr 11,0
	lwz 0,-1(11)
	b .L1059
.L1340:
	.loc 6 1509 0 discriminator 1
	lwzx 11,30,9
	add 9,30,9
	add 0,11,0
	mr 11,0
	lwz 0,-1(11)
	b .L1341
.L956:
	.loc 6 537 0 discriminator 1
	lwzx 11,30,9
	add 9,30,9
	add 0,11,0
	mr 11,0
	lwz 0,-1(11)
	b .L957
.L1074:
	.loc 6 838 0 discriminator 1
	lwzx 11,30,9
	add 9,30,9
	add 0,11,0
	mr 11,0
	lwz 0,-1(11)
	b .L1075
.L1070:
	.loc 6 828 0 discriminator 1
	lwzx 11,30,9
	add 9,30,9
	add 0,11,0
	mr 11,0
	lwz 0,-1(11)
	b .L1071
.L1056:
	.loc 6 793 0 discriminator 1
	lwzx 11,30,9
	add 9,30,9
	add 0,11,0
	mr 11,0
	lwz 0,-1(11)
	b .L1057
.L1076:
	.loc 6 843 0 discriminator 1
	lwzx 11,30,9
	add 9,30,9
	add 0,11,0
	mr 11,0
	lwz 0,-1(11)
	b .L1077
.L924:
	.loc 6 457 0 discriminator 1
	lwzx 11,30,9
	add 9,30,9
	add 0,11,0
	mr 11,0
	lwz 0,-1(11)
	b .L925
.L1316:
	.loc 6 1449 0 discriminator 1
	lwzx 11,30,9
	add 9,30,9
	add 0,11,0
	mr 11,0
	lwz 0,-1(11)
	b .L1317
.L1330:
	.loc 6 1484 0 discriminator 1
	lwzx 11,30,9
	add 9,30,9
	add 0,11,0
	mr 11,0
	lwz 0,-1(11)
	b .L1331
.L1326:
	.loc 6 1474 0 discriminator 1
	lwzx 11,30,9
	add 9,30,9
	add 0,11,0
	mr 11,0
	lwz 0,-1(11)
	b .L1327
.L1324:
	.loc 6 1469 0 discriminator 1
	lwzx 11,30,9
	add 9,30,9
	add 0,11,0
	mr 11,0
	lwz 0,-1(11)
	b .L1325
.L1332:
	.loc 6 1489 0 discriminator 1
	lwzx 11,30,9
	add 9,30,9
	add 0,11,0
	mr 11,0
	lwz 0,-1(11)
	b .L1333
.L1052:
	.loc 6 783 0 discriminator 1
	lwzx 11,30,9
	add 9,30,9
	add 0,11,0
	mr 11,0
	lwz 0,-1(11)
	b .L1053
.L1572:
	.loc 6 2089 0 discriminator 1
	lwzx 11,30,9
	add 9,30,9
	add 0,11,0
	mr 11,0
	lwz 0,-1(11)
	b .L1573
.L1586:
	.loc 6 2124 0 discriminator 1
	lwzx 11,30,9
	add 9,30,9
	add 0,11,0
	mr 11,0
	lwz 0,-1(11)
	b .L1587
.L1582:
	.loc 6 2114 0 discriminator 1
	lwzx 11,30,9
	add 9,30,9
	add 0,11,0
	mr 11,0
	lwz 0,-1(11)
	b .L1583
.L1580:
	.loc 6 2109 0 discriminator 1
	lwzx 11,30,9
	add 9,30,9
	add 0,11,0
	mr 11,0
	lwz 0,-1(11)
	b .L1581
.L1588:
	.loc 6 2129 0 discriminator 1
	lwzx 11,30,9
	add 9,30,9
	add 0,11,0
	mr 11,0
	lwz 0,-1(11)
	b .L1589
.L860:
	.loc 6 291 0 discriminator 1
	lwzx 11,30,9
	add 9,30,9
	add 0,11,0
	mr 11,0
	lwz 0,-1(11)
	b .L861
.L1380:
	.loc 6 1609 0 discriminator 1
	lwzx 11,30,9
	add 9,30,9
	add 0,11,0
	mr 11,0
	lwz 0,-1(11)
	b .L1381
.L1394:
	.loc 6 1644 0 discriminator 1
	lwzx 11,30,9
	add 9,30,9
	add 0,11,0
	mr 11,0
	lwz 0,-1(11)
	b .L1395
.L1390:
	.loc 6 1634 0 discriminator 1
	lwzx 11,30,9
	add 9,30,9
	add 0,11,0
	mr 11,0
	lwz 0,-1(11)
	b .L1391
.L1388:
	.loc 6 1629 0 discriminator 1
	lwzx 11,30,9
	add 9,30,9
	add 0,11,0
	mr 11,0
	lwz 0,-1(11)
	b .L1389
.L1396:
	.loc 6 1649 0 discriminator 1
	lwzx 11,30,9
	add 9,30,9
	add 0,11,0
	mr 11,0
	lwz 0,-1(11)
	b .L1397
.L1500:
	.loc 6 1909 0 discriminator 1
	lwzx 11,30,9
	add 9,30,9
	add 0,11,0
	mr 11,0
	lwz 0,-1(11)
	b .L1501
.L1234:
	.loc 6 1238 0 discriminator 1
	lwzx 11,30,9
	add 9,30,9
	add 0,11,0
	mr 11,0
	lwz 0,-1(11)
	b .L1235
.L1214:
	.loc 6 1188 0 discriminator 1
	lwzx 11,30,9
	add 9,30,9
	add 0,11,0
	mr 11,0
	lwz 0,-1(11)
	b .L1215
.L972:
	.loc 6 577 0 discriminator 1
	lwzx 11,30,9
	add 9,30,9
	add 0,11,0
	mr 11,0
	lwz 0,-1(11)
	b .L973
.L1230:
	.loc 6 1228 0 discriminator 1
	lwzx 11,30,9
	add 9,30,9
	add 0,11,0
	mr 11,0
	lwz 0,-1(11)
	b .L1231
.L1228:
	.loc 6 1223 0 discriminator 1
	lwzx 11,30,9
	add 9,30,9
	add 0,11,0
	mr 11,0
	lwz 0,-1(11)
	b .L1229
.L1236:
	.loc 6 1243 0 discriminator 1
	lwzx 11,30,9
	add 9,30,9
	add 0,11,0
	mr 11,0
	lwz 0,-1(11)
	b .L1237
.L1086:
	.loc 6 868 0 discriminator 1
	lwzx 11,30,9
	add 9,30,9
	add 0,11,0
	mr 11,0
	lwz 0,-1(11)
	b .L1087
.L1118:
	.loc 6 948 0 discriminator 1
	lwzx 11,30,9
	add 9,30,9
	add 0,11,0
	mr 11,0
	lwz 0,-1(11)
	b .L1119
.L1138:
	.loc 6 998 0 discriminator 1
	lwzx 11,30,9
	add 9,30,9
	add 0,11,0
	mr 11,0
	lwz 0,-1(11)
	b .L1139
.L1134:
	.loc 6 988 0 discriminator 1
	lwzx 11,30,9
	add 9,30,9
	add 0,11,0
	mr 11,0
	lwz 0,-1(11)
	b .L1135
.L1132:
	.loc 6 983 0 discriminator 1
	lwzx 11,30,9
	add 9,30,9
	add 0,11,0
	mr 11,0
	lwz 0,-1(11)
	b .L1133
.L1140:
	.loc 6 1003 0 discriminator 1
	lwzx 11,30,9
	add 9,30,9
	add 0,11,0
	mr 11,0
	lwz 0,-1(11)
	b .L1141
.L1090:
	.loc 6 878 0 discriminator 1
	lwzx 11,30,9
	add 9,30,9
	add 0,11,0
	mr 11,0
	lwz 0,-1(11)
	b .L1091
.L1022:
	.loc 6 708 0 discriminator 1
	lwzx 11,30,9
	add 9,30,9
	add 0,11,0
	mr 11,0
	lwz 0,-1(11)
	b .L1023
.L1730:
	.loc 6 2484 0 discriminator 1
	lwzx 11,30,9
	add 9,30,9
	add 0,11,0
	mr 11,0
	lwz 0,-1(11)
	b .L1731
.L786:
	.loc 6 94 0 discriminator 1
	lwzx 11,30,9
	add 9,30,9
	add 0,11,0
	mr 11,0
	lwz 0,-1(11)
	b .L787
.L782:
	.loc 6 84 0 discriminator 1
	lwzx 11,30,9
	add 9,30,9
	add 0,11,0
	mr 11,0
	lwz 0,-1(11)
	b .L783
.L796:
	.loc 6 125 0 discriminator 1
	lwzx 11,30,9
	add 9,30,9
	add 0,11,0
	mr 11,0
	lwz 0,-1(11)
	b .L797
.L788:
	.loc 6 99 0 discriminator 1
	lwzx 11,30,9
	add 9,30,9
	add 0,11,0
	mr 11,0
	lwz 0,-1(11)
	b .L789
.L958:
	.loc 6 542 0 discriminator 1
	lwzx 11,30,9
	add 9,30,9
	add 0,11,0
	mr 11,0
	lwz 0,-1(11)
	b .L959
.L1438:
	.loc 6 1754 0 discriminator 1
	lwzx 11,30,9
	add 9,30,9
	add 0,11,0
	mr 11,0
	lwz 0,-1(11)
	b .L1439
.L1458:
	.loc 6 1804 0 discriminator 1
	lwzx 11,30,9
	add 9,30,9
	add 0,11,0
	mr 11,0
	lwz 0,-1(11)
	b .L1459
.L1454:
	.loc 6 1794 0 discriminator 1
	lwzx 11,30,9
	add 9,30,9
	add 0,11,0
	mr 11,0
	lwz 0,-1(11)
	b .L1455
.L1452:
	.loc 6 1789 0 discriminator 1
	lwzx 11,30,9
	add 9,30,9
	add 0,11,0
	mr 11,0
	lwz 0,-1(11)
	b .L1453
.L1460:
	.loc 6 1809 0 discriminator 1
	lwzx 11,30,9
	add 9,30,9
	add 0,11,0
	mr 11,0
	lwz 0,-1(11)
	b .L1461
.L1314:
	.loc 6 1444 0 discriminator 1
	lwzx 11,30,9
	add 9,30,9
	add 0,11,0
	mr 11,0
	lwz 0,-1(11)
	b .L1315
.L1362:
	.loc 6 1564 0 discriminator 1
	lwzx 11,30,9
	add 9,30,9
	add 0,11,0
	mr 11,0
	lwz 0,-1(11)
	b .L1363
.L830:
	.loc 6 216 0 discriminator 1
	lwzx 11,30,9
	add 9,30,9
	add 0,11,0
	mr 11,0
	lwz 0,-1(11)
	b .L831
.L1358:
	.loc 6 1554 0 discriminator 1
	lwzx 11,30,9
	add 9,30,9
	add 0,11,0
	mr 11,0
	lwz 0,-1(11)
	b .L1359
.L1570:
	.loc 6 2084 0 discriminator 1
	lwzx 11,30,9
	add 9,30,9
	add 0,11,0
	mr 11,0
	lwz 0,-1(11)
	b .L1571
.L1490:
	.loc 6 1884 0 discriminator 1
	lwzx 11,30,9
	add 9,30,9
	add 0,11,0
	mr 11,0
	lwz 0,-1(11)
	b .L1491
.L1598:
	.loc 6 2154 0 discriminator 1
	lwzx 11,30,9
	add 9,30,9
	add 0,11,0
	mr 11,0
	lwz 0,-1(11)
	b .L1599
.L1486:
	.loc 6 1874 0 discriminator 1
	lwzx 11,30,9
	add 9,30,9
	add 0,11,0
	mr 11,0
	lwz 0,-1(11)
	b .L1487
.L1346:
	.loc 6 1524 0 discriminator 1
	lwzx 11,30,9
	add 9,30,9
	add 0,11,0
	mr 11,0
	lwz 0,-1(11)
	b .L1347
.L772:
	.loc 6 53 0 discriminator 1
	lwzx 11,30,9
	add 9,30,9
	add 0,11,0
	mr 11,0
	lwz 0,-1(11)
	b .L773
.L834:
	.loc 6 226 0 discriminator 1
	lwzx 11,30,9
	add 9,30,9
	add 0,11,0
	mr 11,0
	lwz 0,-1(11)
	b .L835
.L784:
	.loc 6 89 0 discriminator 1
	lwzx 11,30,9
	add 9,30,9
	add 0,11,0
	mr 11,0
	lwz 0,-1(11)
	b .L785
.L828:
	.loc 6 211 0 discriminator 1
	lwzx 11,30,9
	add 9,30,9
	add 0,11,0
	mr 11,0
	lwz 0,-1(11)
	b .L829
.L780:
	.loc 6 79 0 discriminator 1
	lwzx 11,30,9
	add 9,30,9
	add 0,11,0
	mr 11,0
	lwz 0,-1(11)
	b .L781
.L1038:
	.loc 6 748 0 discriminator 1
	lwzx 11,30,9
	add 9,30,9
	add 0,11,0
	mr 11,0
	lwz 0,-1(11)
	b .L1039
.L1756:
	.loc 6 2549 0 discriminator 1
	lwzx 11,30,9
	add 9,30,9
	add 0,11,0
	mr 11,0
	lwz 0,-1(11)
	b .L1757
.L1712:
	.loc 6 2439 0 discriminator 1
	lwzx 11,30,9
	add 9,30,9
	add 0,11,0
	mr 11,0
	lwz 0,-1(11)
	b .L1713
.L1742:
	.loc 6 2514 0 discriminator 1
	lwzx 11,30,9
	add 9,30,9
	add 0,11,0
	mr 11,0
	lwz 0,-1(11)
	b .L1743
.L1700:
	.loc 6 2409 0 discriminator 1
	lwzx 11,30,9
	add 9,30,9
	add 0,11,0
	mr 11,0
	lwz 0,-1(11)
	b .L1701
.L1696:
	.loc 6 2399 0 discriminator 1
	lwzx 11,30,9
	add 9,30,9
	add 0,11,0
	mr 11,0
	lwz 0,-1(11)
	b .L1697
.L1044:
	.loc 6 763 0 discriminator 1
	lwzx 11,30,9
	add 9,30,9
	add 0,11,0
	mr 11,0
	lwz 0,-1(11)
	b .L1045
.L962:
	.loc 6 552 0 discriminator 1
	lwzx 11,30,9
	add 9,30,9
	add 0,11,0
	mr 11,0
	lwz 0,-1(11)
	b .L963
.L1180:
	.loc 6 1103 0 discriminator 1
	lwzx 11,30,9
	add 9,30,9
	add 0,11,0
	mr 11,0
	lwz 0,-1(11)
	b .L1181
.L1218:
	.loc 6 1198 0 discriminator 1
	lwzx 11,30,9
	add 9,30,9
	add 0,11,0
	mr 11,0
	lwz 0,-1(11)
	b .L1219
.L1456:
	.loc 6 1799 0 discriminator 1
	lwzx 11,30,9
	add 9,30,9
	add 0,11,0
	mr 11,0
	lwz 0,-1(11)
	b .L1457
.L1444:
	.loc 6 1769 0 discriminator 1
	lwzx 11,30,9
	add 9,30,9
	add 0,11,0
	mr 11,0
	lwz 0,-1(11)
	b .L1445
.L1440:
	.loc 6 1759 0 discriminator 1
	lwzx 11,30,9
	add 9,30,9
	add 0,11,0
	mr 11,0
	lwz 0,-1(11)
	b .L1441
.L1678:
	.loc 6 2354 0 discriminator 1
	lwzx 11,30,9
	add 9,30,9
	add 0,11,0
	mr 11,0
	lwz 0,-1(11)
	b .L1679
.L1634:
	.loc 6 2244 0 discriminator 1
	lwzx 11,30,9
	add 9,30,9
	add 0,11,0
	mr 11,0
	lwz 0,-1(11)
	b .L1635
.L1392:
	.loc 6 1639 0 discriminator 1
	lwzx 11,30,9
	add 9,30,9
	add 0,11,0
	mr 11,0
	lwz 0,-1(11)
	b .L1393
.L974:
	.loc 6 582 0 discriminator 1
	lwzx 11,30,9
	add 9,30,9
	add 0,11,0
	mr 11,0
	lwz 0,-1(11)
	b .L975
.L980:
	.loc 6 597 0 discriminator 1
	lwzx 11,30,9
	add 9,30,9
	add 0,11,0
	mr 11,0
	lwz 0,-1(11)
	b .L981
.L1374:
	.loc 6 1594 0 discriminator 1
	lwzx 11,30,9
	add 9,30,9
	add 0,11,0
	mr 11,0
	lwz 0,-1(11)
	b .L1375
.L1376:
	.loc 6 1599 0 discriminator 1
	lwzx 11,30,9
	add 9,30,9
	add 0,11,0
	mr 11,0
	lwz 0,-1(11)
	b .L1377
.L1684:
	.loc 6 2369 0 discriminator 1
	lwzx 11,30,9
	add 9,30,9
	add 0,11,0
	mr 11,0
	lwz 0,-1(11)
	b .L1685
.L802:
	.loc 6 140 0 discriminator 1
	lwzx 11,30,9
	add 9,30,9
	add 0,11,0
	mr 11,0
	lwz 0,-1(11)
	b .L803
.L1584:
	.loc 6 2119 0 discriminator 1
	lwzx 11,30,9
	add 9,30,9
	add 0,11,0
	mr 11,0
	lwz 0,-1(11)
	b .L1585
.L1568:
	.loc 6 2079 0 discriminator 1
	lwzx 11,30,9
	add 9,30,9
	add 0,11,0
	mr 11,0
	lwz 0,-1(11)
	b .L1569
.L1614:
	.loc 6 2194 0 discriminator 1
	lwzx 11,30,9
	add 9,30,9
	add 0,11,0
	mr 11,0
	lwz 0,-1(11)
	b .L1615
.L1566:
	.loc 6 2074 0 discriminator 1
	lwzx 11,30,9
	add 9,30,9
	add 0,11,0
	mr 11,0
	lwz 0,-1(11)
	b .L1567
.L1492:
	.loc 6 1889 0 discriminator 1
	lwzx 11,30,9
	add 9,30,9
	add 0,11,0
	mr 11,0
	lwz 0,-1(11)
	b .L1493
.L1488:
	.loc 6 1879 0 discriminator 1
	lwzx 11,30,9
	add 9,30,9
	add 0,11,0
	mr 11,0
	lwz 0,-1(11)
	b .L1489
.L1406:
	.loc 6 1674 0 discriminator 1
	lwzx 11,30,9
	add 9,30,9
	add 0,11,0
	mr 11,0
	lwz 0,-1(11)
	b .L1407
.L892:
	.loc 6 377 0 discriminator 1
	lwzx 11,30,9
	add 9,30,9
	add 0,11,0
	mr 11,0
	lwz 0,-1(11)
	b .L893
.L1408:
	.loc 6 1679 0 discriminator 1
	lwzx 11,30,9
	add 9,30,9
	add 0,11,0
	mr 11,0
	lwz 0,-1(11)
	b .L1409
.L1148:
	.loc 6 1023 0 discriminator 1
	lwzx 11,30,9
	add 9,30,9
	add 0,11,0
	mr 11,0
	lwz 0,-1(11)
	b .L1149
.L1152:
	.loc 6 1033 0 discriminator 1
	lwzx 11,30,9
	add 9,30,9
	add 0,11,0
	mr 11,0
	lwz 0,-1(11)
	b .L1153
.L1150:
	.loc 6 1028 0 discriminator 1
	lwzx 11,30,9
	add 9,30,9
	add 0,11,0
	mr 11,0
	lwz 0,-1(11)
	b .L1151
.L1004:
	.loc 6 657 0 discriminator 1
	lwzx 11,30,9
	add 9,30,9
	add 0,11,0
	mr 11,0
	lwz 0,-1(11)
	b .L1005
.L898:
	.loc 6 392 0 discriminator 1
	lwzx 11,30,9
	add 9,30,9
	add 0,11,0
	mr 11,0
	lwz 0,-1(11)
	b .L899
.L1538:
	.loc 6 2004 0 discriminator 1
	lwzx 11,30,9
	add 9,30,9
	add 0,11,0
	mr 11,0
	lwz 0,-1(11)
	b .L1539
.L1310:
	.loc 6 1434 0 discriminator 1
	lwzx 11,30,9
	add 9,30,9
	add 0,11,0
	mr 11,0
	lwz 0,-1(11)
	b .L1311
.L1364:
	.loc 6 1569 0 discriminator 1
	lwzx 11,30,9
	add 9,30,9
	add 0,11,0
	mr 11,0
	lwz 0,-1(11)
	b .L1365
.L1282:
	.loc 6 1364 0 discriminator 1
	lwzx 11,30,9
	add 9,30,9
	add 0,11,0
	mr 11,0
	lwz 0,-1(11)
	b .L1283
.L1328:
	.loc 6 1479 0 discriminator 1
	lwzx 11,30,9
	add 9,30,9
	add 0,11,0
	mr 11,0
	lwz 0,-1(11)
	b .L1329
.L1312:
	.loc 6 1439 0 discriminator 1
	lwzx 11,30,9
	add 9,30,9
	add 0,11,0
	mr 11,0
	lwz 0,-1(11)
	b .L1313
.L846:
	.loc 6 256 0 discriminator 1
	lwzx 11,30,9
	add 9,30,9
	add 0,11,0
	mr 11,0
	lwz 0,-1(11)
	b .L847
.L1666:
	.loc 6 2324 0 discriminator 1
	lwzx 11,30,9
	add 9,30,9
	add 0,11,0
	mr 11,0
	lwz 0,-1(11)
	b .L1667
.L996:
	.loc 6 637 0 discriminator 1
	lwzx 11,30,9
	add 9,30,9
	add 0,11,0
	mr 11,0
	lwz 0,-1(11)
	b .L997
.L1010:
	.loc 6 672 0 discriminator 1
	lwzx 11,30,9
	add 9,30,9
	add 0,11,0
	mr 11,0
	lwz 0,-1(11)
	b .L1011
.L992:
	.loc 6 627 0 discriminator 1
	lwzx 11,30,9
	add 9,30,9
	add 0,11,0
	mr 11,0
	lwz 0,-1(11)
	b .L993
.L1748:
	.loc 6 2529 0 discriminator 1
	lwzx 11,30,9
	add 9,30,9
	add 0,11,0
	mr 11,0
	lwz 0,-1(11)
	b .L1749
.L1360:
	.loc 6 1559 0 discriminator 1
	lwzx 11,30,9
	add 9,30,9
	add 0,11,0
	mr 11,0
	lwz 0,-1(11)
	b .L1361
.L976:
	.loc 6 587 0 discriminator 1
	lwzx 11,30,9
	add 9,30,9
	add 0,11,0
	mr 11,0
	lwz 0,-1(11)
	b .L977
.L896:
	.loc 6 387 0 discriminator 1
	lwzx 11,30,9
	add 9,30,9
	add 0,11,0
	mr 11,0
	lwz 0,-1(11)
	b .L897
.L1284:
	.loc 6 1369 0 discriminator 1
	lwzx 11,30,9
	add 9,30,9
	add 0,11,0
	mr 11,0
	lwz 0,-1(11)
	b .L1285
.L1298:
	.loc 6 1404 0 discriminator 1
	lwzx 11,30,9
	add 9,30,9
	add 0,11,0
	mr 11,0
	lwz 0,-1(11)
	b .L1299
.L1628:
	.loc 6 2229 0 discriminator 1
	lwzx 11,30,9
	add 9,30,9
	add 0,11,0
	mr 11,0
	lwz 0,-1(11)
	b .L1629
.L1292:
	.loc 6 1389 0 discriminator 1
	lwzx 11,30,9
	add 9,30,9
	add 0,11,0
	mr 11,0
	lwz 0,-1(11)
	b .L1293
.L1508:
	.loc 6 1929 0 discriminator 1
	lwzx 11,30,9
	add 9,30,9
	add 0,11,0
	mr 11,0
	lwz 0,-1(11)
	b .L1509
.L1502:
	.loc 6 1914 0 discriminator 1
	lwzx 11,30,9
	add 9,30,9
	add 0,11,0
	mr 11,0
	lwz 0,-1(11)
	b .L1503
.L1060:
	.loc 6 803 0 discriminator 1
	lwzx 11,30,9
	add 9,30,9
	add 0,11,0
	mr 11,0
	lwz 0,-1(11)
	b .L1061
.L1520:
	.loc 6 1959 0 discriminator 1
	lwzx 11,30,9
	add 9,30,9
	add 0,11,0
	mr 11,0
	lwz 0,-1(11)
	b .L1521
.L1692:
	.loc 6 2389 0 discriminator 1
	lwzx 11,30,9
	add 9,30,9
	add 0,11,0
	mr 11,0
	lwz 0,-1(11)
	b .L1693
.L1072:
	.loc 6 833 0 discriminator 1
	lwzx 11,30,9
	add 9,30,9
	add 0,11,0
	mr 11,0
	lwz 0,-1(11)
	b .L1073
.L1054:
	.loc 6 788 0 discriminator 1
	lwzx 11,30,9
	add 9,30,9
	add 0,11,0
	mr 11,0
	lwz 0,-1(11)
	b .L1055
.L1068:
	.loc 6 823 0 discriminator 1
	lwzx 11,30,9
	add 9,30,9
	add 0,11,0
	mr 11,0
	lwz 0,-1(11)
	b .L1069
.L1264:
	.loc 6 1313 0 discriminator 1
	lwzx 11,30,9
	add 9,30,9
	add 0,11,0
	mr 11,0
	lwz 0,-1(11)
	b .L1265
.L1372:
	.loc 6 1589 0 discriminator 1
	lwzx 11,30,9
	add 9,30,9
	add 0,11,0
	mr 11,0
	lwz 0,-1(11)
	b .L1373
.L1550:
	.loc 6 2034 0 discriminator 1
	lwzx 11,30,9
	add 9,30,9
	add 0,11,0
	mr 11,0
	lwz 0,-1(11)
	b .L1551
.L1424:
	.loc 6 1719 0 discriminator 1
	lwzx 11,30,9
	add 9,30,9
	add 0,11,0
	mr 11,0
	lwz 0,-1(11)
	b .L1425
.L1252:
	.loc 6 1283 0 discriminator 1
	lwzx 11,30,9
	add 9,30,9
	add 0,11,0
	mr 11,0
	lwz 0,-1(11)
	b .L1253
.L1166:
	.loc 6 1068 0 discriminator 1
	lwzx 11,30,9
	add 9,30,9
	add 0,11,0
	mr 11,0
	lwz 0,-1(11)
	b .L1167
.L944:
	.loc 6 507 0 discriminator 1
	lwzx 11,30,9
	add 9,30,9
	add 0,11,0
	mr 11,0
	lwz 0,-1(11)
	b .L945
.L932:
	.loc 6 477 0 discriminator 1
	lwzx 11,30,9
	add 9,30,9
	add 0,11,0
	mr 11,0
	lwz 0,-1(11)
	b .L933
.L1516:
	.loc 6 1949 0 discriminator 1
	lwzx 11,30,9
	add 9,30,9
	add 0,11,0
	mr 11,0
	lwz 0,-1(11)
	b .L1517
.L1436:
	.loc 6 1749 0 discriminator 1
	lwzx 11,30,9
	add 9,30,9
	add 0,11,0
	mr 11,0
	lwz 0,-1(11)
	b .L1437
.L940:
	.loc 6 497 0 discriminator 1
	lwzx 11,30,9
	add 9,30,9
	add 0,11,0
	mr 11,0
	lwz 0,-1(11)
	b .L941
.L926:
	.loc 6 462 0 discriminator 1
	lwzx 11,30,9
	add 9,30,9
	add 0,11,0
	mr 11,0
	lwz 0,-1(11)
	b .L927
.L910:
	.loc 6 422 0 discriminator 1
	lwzx 11,30,9
	add 9,30,9
	add 0,11,0
	mr 11,0
	lwz 0,-1(11)
	b .L911
.L1474:
	.loc 6 1844 0 discriminator 1
	lwzx 11,30,9
	add 9,30,9
	add 0,11,0
	mr 11,0
	lwz 0,-1(11)
	b .L1475
.L1308:
	.loc 6 1429 0 discriminator 1
	lwzx 11,30,9
	add 9,30,9
	add 0,11,0
	mr 11,0
	lwz 0,-1(11)
	b .L1309
.L1136:
	.loc 6 993 0 discriminator 1
	lwzx 11,30,9
	add 9,30,9
	add 0,11,0
	mr 11,0
	lwz 0,-1(11)
	b .L1137
.L1102:
	.loc 6 908 0 discriminator 1
	lwzx 11,30,9
	add 9,30,9
	add 0,11,0
	mr 11,0
	lwz 0,-1(11)
	b .L1103
.L1120:
	.loc 6 953 0 discriminator 1
	lwzx 11,30,9
	add 9,30,9
	add 0,11,0
	mr 11,0
	lwz 0,-1(11)
	b .L1121
.L1124:
	.loc 6 963 0 discriminator 1
	lwzx 11,30,9
	add 9,30,9
	add 0,11,0
	mr 11,0
	lwz 0,-1(11)
	b .L1125
.L1108:
	.loc 6 923 0 discriminator 1
	lwzx 11,30,9
	add 9,30,9
	add 0,11,0
	mr 11,0
	lwz 0,-1(11)
	b .L1109
.L1602:
	.loc 6 2164 0 discriminator 1
	lwzx 11,30,9
	add 9,30,9
	add 0,11,0
	mr 11,0
	lwz 0,-1(11)
	b .L1603
.L988:
	.loc 6 617 0 discriminator 1
	lwzx 11,30,9
	add 9,30,9
	add 0,11,0
	mr 11,0
	lwz 0,-1(11)
	b .L989
.L1758:
	.loc 6 2554 0 discriminator 1
	lwzx 11,30,9
	add 9,30,9
	add 0,11,0
	mr 11,0
	lwz 0,-1(11)
	b .L1759
.L1772:
	.loc 6 2589 0 discriminator 1
	lwzx 11,30,9
	add 9,30,9
	add 0,11,0
	mr 11,0
	lwz 0,-1(11)
	b .L1773
.L1776:
	.loc 6 2599 0 discriminator 1
	lwzx 11,30,9
	add 9,30,9
	add 0,11,0
	mr 11,0
	lwz 0,-1(11)
	b .L1777
.L1764:
	.loc 6 2569 0 discriminator 1
	lwzx 11,30,9
	add 9,30,9
	add 0,11,0
	mr 11,0
	lwz 0,-1(11)
	b .L1765
.L814:
	.loc 6 170 0 discriminator 1
	lwzx 11,30,9
	add 9,30,9
	add 0,11,0
	mr 11,0
	lwz 0,-1(11)
	b .L815
.L862:
	.loc 6 296 0 discriminator 1
	lwzx 11,30,9
	add 9,30,9
	add 0,11,0
	mr 11,0
	lwz 0,-1(11)
	b .L863
.L882:
	.loc 6 346 0 discriminator 1
	lwzx 11,30,9
	add 9,30,9
	add 0,11,0
	mr 11,0
	lwz 0,-1(11)
	b .L883
.L864:
	.loc 6 301 0 discriminator 1
	lwzx 11,30,9
	add 9,30,9
	add 0,11,0
	mr 11,0
	lwz 0,-1(11)
	b .L865
.L1556:
	.loc 6 2049 0 discriminator 1
	lwzx 11,30,9
	add 9,30,9
	add 0,11,0
	mr 11,0
	lwz 0,-1(11)
	b .L1557
.L876:
	.loc 6 331 0 discriminator 1
	lwzx 11,30,9
	add 9,30,9
	add 0,11,0
	mr 11,0
	lwz 0,-1(11)
	b .L877
.L1646:
	.loc 6 2274 0 discriminator 1
	lwzx 11,30,9
	add 9,30,9
	add 0,11,0
	mr 11,0
	lwz 0,-1(11)
	b .L1647
.L1202:
	.loc 6 1158 0 discriminator 1
	lwzx 11,30,9
	add 9,30,9
	add 0,11,0
	mr 11,0
	lwz 0,-1(11)
	b .L1203
.L1188:
	.loc 6 1123 0 discriminator 1
	lwzx 11,30,9
	add 9,30,9
	add 0,11,0
	mr 11,0
	lwz 0,-1(11)
	b .L1189
.L1184:
	.loc 6 1113 0 discriminator 1
	lwzx 11,30,9
	add 9,30,9
	add 0,11,0
	mr 11,0
	lwz 0,-1(11)
	b .L1185
.L1104:
	.loc 6 913 0 discriminator 1
	lwzx 11,30,9
	add 9,30,9
	add 0,11,0
	mr 11,0
	lwz 0,-1(11)
	b .L1105
.L1196:
	.loc 6 1143 0 discriminator 1
	lwzx 11,30,9
	add 9,30,9
	add 0,11,0
	mr 11,0
	lwz 0,-1(11)
	b .L1197
.L1620:
	.loc 6 2209 0 discriminator 1
	lwzx 11,30,9
	add 9,30,9
	add 0,11,0
	mr 11,0
	lwz 0,-1(11)
	b .L1621
.L1378:
	.loc 6 1604 0 discriminator 1
	lwzx 11,30,9
	add 9,30,9
	add 0,11,0
	mr 11,0
	lwz 0,-1(11)
	b .L1379
.L978:
	.loc 6 592 0 discriminator 1
	lwzx 11,30,9
	add 9,30,9
	add 0,11,0
	mr 11,0
	lwz 0,-1(11)
	b .L979
.L1232:
	.loc 6 1233 0 discriminator 1
	lwzx 11,30,9
	add 9,30,9
	add 0,11,0
	mr 11,0
	lwz 0,-1(11)
	b .L1233
.L878:
	.loc 6 336 0 discriminator 1
	lwzx 11,30,9
	add 9,30,9
	add 0,11,0
	mr 11,0
	lwz 0,-1(11)
	b .L879
.L1216:
	.loc 6 1193 0 discriminator 1
	lwzx 11,30,9
	add 9,30,9
	add 0,11,0
	mr 11,0
	lwz 0,-1(11)
	b .L1217
.L1220:
	.loc 6 1203 0 discriminator 1
	lwzx 11,30,9
	add 9,30,9
	add 0,11,0
	mr 11,0
	lwz 0,-1(11)
	b .L1221
.L1204:
	.loc 6 1163 0 discriminator 1
	lwzx 11,30,9
	add 9,30,9
	add 0,11,0
	mr 11,0
	lwz 0,-1(11)
	b .L1205
.L1442:
	.loc 6 1764 0 discriminator 1
	lwzx 11,30,9
	add 9,30,9
	add 0,11,0
	mr 11,0
	lwz 0,-1(11)
	b .L1443
.L1668:
	.loc 6 2329 0 discriminator 1
	lwzx 11,30,9
	add 9,30,9
	add 0,11,0
	mr 11,0
	lwz 0,-1(11)
	b .L1669
.L1682:
	.loc 6 2364 0 discriminator 1
	lwzx 11,30,9
	add 9,30,9
	add 0,11,0
	mr 11,0
	lwz 0,-1(11)
	b .L1683
.L1676:
	.loc 6 2349 0 discriminator 1
	lwzx 11,30,9
	add 9,30,9
	add 0,11,0
	mr 11,0
	lwz 0,-1(11)
	b .L1677
.L1198:
	.loc 6 1148 0 discriminator 1
	lwzx 11,30,9
	add 9,30,9
	add 0,11,0
	mr 11,0
	lwz 0,-1(11)
	b .L1199
.L960:
	.loc 6 547 0 discriminator 1
	lwzx 11,30,9
	add 9,30,9
	add 0,11,0
	mr 11,0
	lwz 0,-1(11)
	b .L961
.L816:
	.loc 6 175 0 discriminator 1
	lwzx 11,30,9
	add 9,30,9
	add 0,11,0
	mr 11,0
	lwz 0,-1(11)
	b .L817
.L1596:
	.loc 6 2149 0 discriminator 1
	lwzx 11,30,9
	add 9,30,9
	add 0,11,0
	mr 11,0
	lwz 0,-1(11)
	b .L1597
.L1042:
	.loc 6 758 0 discriminator 1
	lwzx 11,30,9
	add 9,30,9
	add 0,11,0
	mr 11,0
	lwz 0,-1(11)
	b .L1043
.L1028:
	.loc 6 723 0 discriminator 1
	lwzx 11,30,9
	add 9,30,9
	add 0,11,0
	mr 11,0
	lwz 0,-1(11)
	b .L1029
.L1024:
	.loc 6 713 0 discriminator 1
	lwzx 11,30,9
	add 9,30,9
	add 0,11,0
	mr 11,0
	lwz 0,-1(11)
	b .L1025
.L1036:
	.loc 6 743 0 discriminator 1
	lwzx 11,30,9
	add 9,30,9
	add 0,11,0
	mr 11,0
	lwz 0,-1(11)
	b .L1037
.L820:
	.loc 6 185 0 discriminator 1
	lwzx 11,30,9
	add 9,30,9
	add 0,11,0
	mr 11,0
	lwz 0,-1(11)
	b .L821
.L1698:
	.loc 6 2404 0 discriminator 1
	lwzx 11,30,9
	add 9,30,9
	add 0,11,0
	mr 11,0
	lwz 0,-1(11)
	b .L1699
.L1724:
	.loc 6 2469 0 discriminator 1
	lwzx 11,30,9
	add 9,30,9
	add 0,11,0
	mr 11,0
	lwz 0,-1(11)
	b .L1725
.L1746:
	.loc 6 2524 0 discriminator 1
	lwzx 11,30,9
	add 9,30,9
	add 0,11,0
	mr 11,0
	lwz 0,-1(11)
	b .L1747
.L1732:
	.loc 6 2489 0 discriminator 1
	lwzx 11,30,9
	add 9,30,9
	add 0,11,0
	mr 11,0
	lwz 0,-1(11)
	b .L1733
.L1728:
	.loc 6 2479 0 discriminator 1
	lwzx 11,30,9
	add 9,30,9
	add 0,11,0
	mr 11,0
	lwz 0,-1(11)
	b .L1729
.L1740:
	.loc 6 2509 0 discriminator 1
	lwzx 11,30,9
	add 9,30,9
	add 0,11,0
	mr 11,0
	lwz 0,-1(11)
	b .L1741
.L1552:
	.loc 6 2039 0 discriminator 1
	lwzx 11,30,9
	add 9,30,9
	add 0,11,0
	mr 11,0
	lwz 0,-1(11)
	b .L1553
.L1154:
	.loc 6 1038 0 discriminator 1
	lwzx 11,30,9
	add 9,30,9
	add 0,11,0
	mr 11,0
	lwz 0,-1(11)
	b .L1155
.L1294:
	.loc 6 1394 0 discriminator 1
	lwzx 11,30,9
	add 9,30,9
	add 0,11,0
	mr 11,0
	lwz 0,-1(11)
	b .L1295
.L1296:
	.loc 6 1399 0 discriminator 1
	lwzx 11,30,9
	add 9,30,9
	add 0,11,0
	mr 11,0
	lwz 0,-1(11)
	b .L1297
.L1600:
	.loc 6 2159 0 discriminator 1
	lwzx 11,30,9
	add 9,30,9
	add 0,11,0
	mr 11,0
	lwz 0,-1(11)
	b .L1601
.L1410:
	.loc 6 1684 0 discriminator 1
	lwzx 11,30,9
	add 9,30,9
	add 0,11,0
	mr 11,0
	lwz 0,-1(11)
	b .L1411
.L1300:
	.loc 6 1409 0 discriminator 1
	lwzx 11,30,9
	add 9,30,9
	add 0,11,0
	mr 11,0
	lwz 0,-1(11)
	b .L1301
.L1604:
	.loc 6 2169 0 discriminator 1
	lwzx 11,30,9
	add 9,30,9
	add 0,11,0
	mr 11,0
	lwz 0,-1(11)
	b .L1605
.L832:
	.loc 6 221 0 discriminator 1
	lwzx 11,30,9
	add 9,30,9
	add 0,11,0
	mr 11,0
	lwz 0,-1(11)
	b .L833
.L1484:
	.loc 6 1869 0 discriminator 1
	lwzx 11,30,9
	add 9,30,9
	add 0,11,0
	mr 11,0
	lwz 0,-1(11)
	b .L1485
.L1618:
	.loc 6 2204 0 discriminator 1
	lwzx 11,30,9
	add 9,30,9
	add 0,11,0
	mr 11,0
	lwz 0,-1(11)
	b .L1619
.L844:
	.loc 6 251 0 discriminator 1
	lwzx 11,30,9
	add 9,30,9
	add 0,11,0
	mr 11,0
	lwz 0,-1(11)
	b .L845
.L880:
	.loc 6 341 0 discriminator 1
	lwzx 11,30,9
	add 9,30,9
	add 0,11,0
	mr 11,0
	lwz 0,-1(11)
	b .L881
.L1612:
	.loc 6 2189 0 discriminator 1
	lwzx 11,30,9
	add 9,30,9
	add 0,11,0
	mr 11,0
	lwz 0,-1(11)
	b .L1613
.L916:
	.loc 6 437 0 discriminator 1
	lwzx 11,30,9
	add 9,30,9
	add 0,11,0
	mr 11,0
	lwz 0,-1(11)
	b .L917
.L994:
	.loc 6 632 0 discriminator 1
	lwzx 11,30,9
	add 9,30,9
	add 0,11,0
	mr 11,0
	lwz 0,-1(11)
	b .L995
.L1342:
	.loc 6 1514 0 discriminator 1
	lwzx 11,30,9
	add 9,30,9
	add 0,11,0
	mr 11,0
	lwz 0,-1(11)
	b .L1343
.L1348:
	.loc 6 1529 0 discriminator 1
	lwzx 11,30,9
	add 9,30,9
	add 0,11,0
	mr 11,0
	lwz 0,-1(11)
	b .L1349
.L1344:
	.loc 6 1519 0 discriminator 1
	lwzx 11,30,9
	add 9,30,9
	add 0,11,0
	mr 11,0
	lwz 0,-1(11)
	b .L1345
.L1470:
	.loc 6 1834 0 discriminator 1
	lwzx 11,30,9
	add 9,30,9
	add 0,11,0
	mr 11,0
	lwz 0,-1(11)
	b .L1471
.L1476:
	.loc 6 1849 0 discriminator 1
	lwzx 11,30,9
	add 9,30,9
	add 0,11,0
	mr 11,0
	lwz 0,-1(11)
	b .L1477
.L884:
	.loc 6 351 0 discriminator 1
	lwzx 11,30,9
	add 9,30,9
	add 0,11,0
	mr 11,0
	lwz 0,-1(11)
	b .L885
.L836:
	.loc 6 231 0 discriminator 1
	lwzx 11,30,9
	add 9,30,9
	add 0,11,0
	mr 11,0
	lwz 0,-1(11)
	b .L837
.L850:
	.loc 6 266 0 discriminator 1
	lwzx 11,30,9
	add 9,30,9
	add 0,11,0
	mr 11,0
	lwz 0,-1(11)
	b .L851
.L1472:
	.loc 6 1839 0 discriminator 1
	lwzx 11,30,9
	add 9,30,9
	add 0,11,0
	mr 11,0
	lwz 0,-1(11)
	b .L1473
.L1172:
	.loc 6 1083 0 discriminator 1
	lwzx 11,30,9
	add 9,30,9
	add 0,11,0
	mr 11,0
	lwz 0,-1(11)
	b .L1173
.L1356:
	.loc 6 1549 0 discriminator 1
	lwzx 11,30,9
	add 9,30,9
	add 0,11,0
	mr 11,0
	lwz 0,-1(11)
	b .L1357
.L1652:
	.loc 6 2289 0 discriminator 1
	lwzx 11,30,9
	add 9,30,9
	add 0,11,0
	mr 11,0
	lwz 0,-1(11)
	b .L1653
.L1026:
	.loc 6 718 0 discriminator 1
	lwzx 11,30,9
	add 9,30,9
	add 0,11,0
	mr 11,0
	lwz 0,-1(11)
	b .L1027
.L894:
	.loc 6 382 0 discriminator 1
	lwzx 11,30,9
	add 9,30,9
	add 0,11,0
	mr 11,0
	lwz 0,-1(11)
	b .L895
.L868:
	.loc 6 311 0 discriminator 1
	lwzx 11,30,9
	add 9,30,9
	add 0,11,0
	mr 11,0
	lwz 0,-1(11)
	b .L869
.L768:
	.loc 6 37 0 discriminator 1
	lwzx 11,30,9
	add 9,30,9
	add 0,11,0
	mr 11,0
	lwz 0,-1(11)
	b .L769
.L866:
	.loc 6 306 0 discriminator 1
	lwzx 11,30,9
	add 9,30,9
	add 0,11,0
	mr 11,0
	lwz 0,-1(11)
	b .L867
.L1660:
	.loc 6 2309 0 discriminator 1
	lwzx 11,30,9
	add 9,30,9
	add 0,11,0
	mr 11,0
	lwz 0,-1(11)
	b .L1661
.L770:
	.loc 6 42 0 discriminator 1
	lwzx 11,30,9
	add 9,30,9
	add 0,11,0
	mr 11,0
	lwz 0,-1(11)
	b .L771
.L1664:
	.loc 6 2319 0 discriminator 1
	lwzx 11,30,9
	add 9,30,9
	add 0,11,0
	mr 11,0
	lwz 0,-1(11)
	b .L1665
.L1186:
	.loc 6 1118 0 discriminator 1
	lwzx 11,30,9
	add 9,30,9
	add 0,11,0
	mr 11,0
	lwz 0,-1(11)
	b .L1187
.L1404:
	.loc 6 1669 0 discriminator 1
	lwzx 11,30,9
	add 9,30,9
	add 0,11,0
	mr 11,0
	lwz 0,-1(11)
	b .L1405
.L1278:
	.loc 6 1354 0 discriminator 1
	lwzx 11,30,9
	add 9,30,9
	add 0,11,0
	mr 11,0
	lwz 0,-1(11)
	b .L1279
.L1280:
	.loc 6 1359 0 discriminator 1
	lwzx 11,30,9
	add 9,30,9
	add 0,11,0
	mr 11,0
	lwz 0,-1(11)
	b .L1281
.L1534:
	.loc 6 1994 0 discriminator 1
	lwzx 11,30,9
	add 9,30,9
	add 0,11,0
	mr 11,0
	lwz 0,-1(11)
	b .L1535
.L1536:
	.loc 6 1999 0 discriminator 1
	lwzx 11,30,9
	add 9,30,9
	add 0,11,0
	mr 11,0
	lwz 0,-1(11)
	b .L1537
.L1006:
	.loc 6 662 0 discriminator 1
	lwzx 11,30,9
	add 9,30,9
	add 0,11,0
	mr 11,0
	lwz 0,-1(11)
	b .L1007
.L1122:
	.loc 6 958 0 discriminator 1
	lwzx 11,30,9
	add 9,30,9
	add 0,11,0
	mr 11,0
	lwz 0,-1(11)
	b .L1123
.L1020:
	.loc 6 703 0 discriminator 1
	lwzx 11,30,9
	add 9,30,9
	add 0,11,0
	mr 11,0
	lwz 0,-1(11)
	b .L1021
.L1106:
	.loc 6 918 0 discriminator 1
	lwzx 11,30,9
	add 9,30,9
	add 0,11,0
	mr 11,0
	lwz 0,-1(11)
	b .L1107
.L1092:
	.loc 6 883 0 discriminator 1
	lwzx 11,30,9
	add 9,30,9
	add 0,11,0
	mr 11,0
	lwz 0,-1(11)
	b .L1093
.L1088:
	.loc 6 873 0 discriminator 1
	lwzx 11,30,9
	add 9,30,9
	add 0,11,0
	mr 11,0
	lwz 0,-1(11)
	b .L1089
.L1532:
	.loc 6 1989 0 discriminator 1
	lwzx 11,30,9
	add 9,30,9
	add 0,11,0
	mr 11,0
	lwz 0,-1(11)
	b .L1533
.L1100:
	.loc 6 903 0 discriminator 1
	lwzx 11,30,9
	add 9,30,9
	add 0,11,0
	mr 11,0
	lwz 0,-1(11)
	b .L1101
.L804:
	.loc 6 145 0 discriminator 1
	lwzx 11,30,9
	add 9,30,9
	add 0,11,0
	mr 11,0
	lwz 0,-1(11)
	b .L805
.L818:
	.loc 6 180 0 discriminator 1
	lwzx 11,30,9
	add 9,30,9
	add 0,11,0
	mr 11,0
	lwz 0,-1(11)
	b .L819
.L800:
	.loc 6 135 0 discriminator 1
	lwzx 11,30,9
	add 9,30,9
	add 0,11,0
	mr 11,0
	lwz 0,-1(11)
	b .L801
.L1200:
	.loc 6 1153 0 discriminator 1
	lwzx 11,30,9
	add 9,30,9
	add 0,11,0
	mr 11,0
	lwz 0,-1(11)
	b .L1201
.L812:
	.loc 6 165 0 discriminator 1
	lwzx 11,30,9
	add 9,30,9
	add 0,11,0
	mr 11,0
	lwz 0,-1(11)
	b .L813
.L852:
	.loc 6 271 0 discriminator 1
	lwzx 11,30,9
	add 9,30,9
	add 0,11,0
	mr 11,0
	lwz 0,-1(11)
	b .L853
.L1250:
	.loc 6 1278 0 discriminator 1
	lwzx 11,30,9
	add 9,30,9
	add 0,11,0
	mr 11,0
	lwz 0,-1(11)
	b .L1251
.L1412:
	.loc 6 1689 0 discriminator 1
	lwzx 11,30,9
	add 9,30,9
	add 0,11,0
	mr 11,0
	lwz 0,-1(11)
	b .L1413
.L1426:
	.loc 6 1724 0 discriminator 1
	lwzx 11,30,9
	add 9,30,9
	add 0,11,0
	mr 11,0
	lwz 0,-1(11)
	b .L1427
.L1554:
	.loc 6 2044 0 discriminator 1
	lwzx 11,30,9
	add 9,30,9
	add 0,11,0
	mr 11,0
	lwz 0,-1(11)
	b .L1555
.L1012:
	.loc 6 677 0 discriminator 1
	lwzx 11,30,9
	add 9,30,9
	add 0,11,0
	mr 11,0
	lwz 0,-1(11)
	b .L1013
.L1420:
	.loc 6 1709 0 discriminator 1
	lwzx 11,30,9
	add 9,30,9
	add 0,11,0
	mr 11,0
	lwz 0,-1(11)
	b .L1421
.L1616:
	.loc 6 2199 0 discriminator 1
	lwzx 11,30,9
	add 9,30,9
	add 0,11,0
	mr 11,0
	lwz 0,-1(11)
	b .L1617
.L1156:
	.loc 6 1043 0 discriminator 1
	lwzx 11,30,9
	add 9,30,9
	add 0,11,0
	mr 11,0
	lwz 0,-1(11)
	b .L1157
.L1170:
	.loc 6 1078 0 discriminator 1
	lwzx 11,30,9
	add 9,30,9
	add 0,11,0
	mr 11,0
	lwz 0,-1(11)
	b .L1171
.L1164:
	.loc 6 1063 0 discriminator 1
	lwzx 11,30,9
	add 9,30,9
	add 0,11,0
	mr 11,0
	lwz 0,-1(11)
	b .L1165
.L1040:
	.loc 6 753 0 discriminator 1
	lwzx 11,30,9
	add 9,30,9
	add 0,11,0
	mr 11,0
	lwz 0,-1(11)
	b .L1041
.L1548:
	.loc 6 2029 0 discriminator 1
	lwzx 11,30,9
	add 9,30,9
	add 0,11,0
	mr 11,0
	lwz 0,-1(11)
	b .L1549
.L848:
	.loc 6 261 0 discriminator 1
	lwzx 11,30,9
	add 9,30,9
	add 0,11,0
	mr 11,0
	lwz 0,-1(11)
	b .L849
.L900:
	.loc 6 397 0 discriminator 1
	lwzx 11,30,9
	add 9,30,9
	add 0,11,0
	mr 11,0
	lwz 0,-1(11)
	b .L901
.L914:
	.loc 6 432 0 discriminator 1
	lwzx 11,30,9
	add 9,30,9
	add 0,11,0
	mr 11,0
	lwz 0,-1(11)
	b .L915
.L908:
	.loc 6 417 0 discriminator 1
	lwzx 11,30,9
	add 9,30,9
	add 0,11,0
	mr 11,0
	lwz 0,-1(11)
	b .L909
.L1680:
	.loc 6 2359 0 discriminator 1
	lwzx 11,30,9
	add 9,30,9
	add 0,11,0
	mr 11,0
	lwz 0,-1(11)
	b .L1681
.L1644:
	.loc 6 2269 0 discriminator 1
	lwzx 11,30,9
	add 9,30,9
	add 0,11,0
	mr 11,0
	lwz 0,-1(11)
	b .L1645
.L1168:
	.loc 6 1073 0 discriminator 1
	lwzx 11,30,9
	add 9,30,9
	add 0,11,0
	mr 11,0
	lwz 0,-1(11)
	b .L1169
.L1636:
	.loc 6 2249 0 discriminator 1
	lwzx 11,30,9
	add 9,30,9
	add 0,11,0
	mr 11,0
	lwz 0,-1(11)
	b .L1637
.L1650:
	.loc 6 2284 0 discriminator 1
	lwzx 11,30,9
	add 9,30,9
	add 0,11,0
	mr 11,0
	lwz 0,-1(11)
	b .L1651
.L1632:
	.loc 6 2239 0 discriminator 1
	lwzx 11,30,9
	add 9,30,9
	add 0,11,0
	mr 11,0
	lwz 0,-1(11)
	b .L1633
.L1744:
	.loc 6 2519 0 discriminator 1
	lwzx 11,30,9
	add 9,30,9
	add 0,11,0
	mr 11,0
	lwz 0,-1(11)
	b .L1745
.L1008:
	.loc 6 667 0 discriminator 1
	lwzx 11,30,9
	add 9,30,9
	add 0,11,0
	mr 11,0
	lwz 0,-1(11)
	b .L1009
.L912:
	.loc 6 427 0 discriminator 1
	lwzx 11,30,9
	add 9,30,9
	add 0,11,0
	mr 11,0
	lwz 0,-1(11)
	b .L913
.L679:
.LBE748:
	.loc 3 970 0
	ori 10,10,32790
	cmpw 7,11,10
	beq- 7,.L277
	cmplwi 7,11,32790
	ble- 7,.L1983
.LBB749:
	.loc 6 818 0
	andi. 11,0,1
	bne- 0,.L1066
	add 9,30,9
.L1067:
	.loc 6 818 0 is_stmt 0 discriminator 3
	mr 3,9
	lfs 1,0(31)
	lfs 2,4(31)
	mtctr 0
	lfs 3,8(31)
	lwz 4,12(31)
	lfs 4,16(31)
	lwz 5,20(31)
	lwz 6,24(31)
	bctrl
	.loc 3 1039 0 is_stmt 1 discriminator 3
	li 3,1
	.loc 6 819 0 discriminator 3
	b .L126
.L277:
	.loc 6 813 0
	andi. 11,0,1
	bne- 0,.L1064
	add 9,30,9
.L1065:
	.loc 6 813 0 is_stmt 0 discriminator 3
	mr 3,9
	lwz 4,0(31)
	lfs 1,4(31)
	mtctr 0
	lfs 2,8(31)
	lwz 5,12(31)
	lfs 3,16(31)
	lwz 6,20(31)
	lwz 7,24(31)
	bctrl
	.loc 3 1039 0 is_stmt 1 discriminator 3
	li 3,1
	.loc 6 814 0 discriminator 3
	b .L126
.L1983:
	.loc 6 808 0
	andi. 11,0,1
	bne- 0,.L1062
	add 9,30,9
.L1063:
	.loc 6 808 0 is_stmt 0 discriminator 3
	mr 3,9
	lfs 1,0(31)
	lwz 4,4(31)
	mtctr 0
	lfs 2,8(31)
	lwz 5,12(31)
	lfs 3,16(31)
	lwz 6,20(31)
	lwz 7,24(31)
	bctrl
	.loc 3 1039 0 is_stmt 1 discriminator 3
	li 3,1
	.loc 6 809 0 discriminator 3
	b .L126
.L1066:
	.loc 6 818 0 discriminator 1
	lwzx 11,30,9
	add 9,30,9
	add 0,11,0
	mr 11,0
	lwz 0,-1(11)
	b .L1067
.L1064:
	.loc 6 813 0 discriminator 1
	lwzx 11,30,9
	add 9,30,9
	add 0,11,0
	mr 11,0
	lwz 0,-1(11)
	b .L1065
.L1062:
	.loc 6 808 0 discriminator 1
	lwzx 11,30,9
	add 9,30,9
	add 0,11,0
	mr 11,0
	lwz 0,-1(11)
	b .L1063
.L661:
.LBE749:
	.loc 3 970 0
	cmpwi 7,11,16398
	beq- 7,.L205
	cmplwi 7,11,16398
	ble- 7,.L1984
.LBB750:
	.loc 6 452 0
	andi. 11,0,1
	bne- 0,.L922
	add 9,30,9
.L923:
	.loc 6 452 0 is_stmt 0 discriminator 3
	mr 3,9
	lfs 1,0(31)
	lfs 2,4(31)
	mtctr 0
	lfs 3,8(31)
	lfs 4,12(31)
	lwz 4,16(31)
	lwz 5,20(31)
	bctrl
	.loc 3 1039 0 is_stmt 1 discriminator 3
	li 3,1
	.loc 6 453 0 discriminator 3
	b .L126
.L205:
	.loc 6 447 0
	andi. 11,0,1
	bne- 0,.L920
	add 9,30,9
.L921:
	.loc 6 447 0 is_stmt 0 discriminator 3
	mr 3,9
	lwz 4,0(31)
	lfs 1,4(31)
	mtctr 0
	lfs 2,8(31)
	lfs 3,12(31)
	lwz 5,16(31)
	lwz 6,20(31)
	bctrl
	.loc 3 1039 0 is_stmt 1 discriminator 3
	li 3,1
	.loc 6 448 0 discriminator 3
	b .L126
.L1984:
	.loc 6 442 0
	andi. 11,0,1
	bne- 0,.L918
	add 9,30,9
.L919:
	.loc 6 442 0 is_stmt 0 discriminator 3
	mr 3,9
	lfs 1,0(31)
	lwz 4,4(31)
	mtctr 0
	lfs 2,8(31)
	lfs 3,12(31)
	lwz 5,16(31)
	lwz 6,20(31)
	bctrl
	.loc 3 1039 0 is_stmt 1 discriminator 3
	li 3,1
	.loc 6 443 0 discriminator 3
	b .L126
.L922:
	.loc 6 452 0 discriminator 1
	lwzx 11,30,9
	add 9,30,9
	add 0,11,0
	mr 11,0
	lwz 0,-1(11)
	b .L923
.L920:
	.loc 6 447 0 discriminator 1
	lwzx 11,30,9
	add 9,30,9
	add 0,11,0
	mr 11,0
	lwz 0,-1(11)
	b .L921
.L918:
	.loc 6 442 0 discriminator 1
	lwzx 11,30,9
	add 9,30,9
	add 0,11,0
	mr 11,0
	lwz 0,-1(11)
	b .L919
.L733:
.LBE750:
	.loc 3 970 0
	ori 10,10,118
	cmpw 7,11,10
	beq- 7,.L501
	cmplw 7,11,10
	ble- 7,.L1985
.LBB751:
	.loc 6 1944 0
	andi. 11,0,1
	bne- 0,.L1514
	add 9,30,9
.L1515:
	.loc 6 1944 0 is_stmt 0 discriminator 3
	mr 3,9
	lfs 1,0(31)
	lfs 2,4(31)
	mtctr 0
	lfs 3,8(31)
	lwz 4,12(31)
	lfs 4,16(31)
	lfs 5,20(31)
	lfs 6,24(31)
	lwz 5,28(31)
	bctrl
	.loc 3 1039 0 is_stmt 1 discriminator 3
	li 3,1
	.loc 6 1945 0 discriminator 3
	b .L126
.L501:
	.loc 6 1939 0
	andi. 11,0,1
	bne- 0,.L1512
	add 9,30,9
.L1513:
	.loc 6 1939 0 is_stmt 0 discriminator 3
	mr 3,9
	lwz 4,0(31)
	lfs 1,4(31)
	mtctr 0
	lfs 2,8(31)
	lwz 5,12(31)
	lfs 3,16(31)
	lfs 4,20(31)
	lfs 5,24(31)
	lwz 6,28(31)
	bctrl
	.loc 3 1039 0 is_stmt 1 discriminator 3
	li 3,1
	.loc 6 1940 0 discriminator 3
	b .L126
.L1985:
	.loc 6 1934 0
	andi. 11,0,1
	bne- 0,.L1510
	add 9,30,9
.L1511:
	.loc 6 1934 0 is_stmt 0 discriminator 3
	mr 3,9
	lfs 1,0(31)
	lwz 4,4(31)
	mtctr 0
	lfs 2,8(31)
	lwz 5,12(31)
	lfs 3,16(31)
	lfs 4,20(31)
	lfs 5,24(31)
	lwz 6,28(31)
	bctrl
	.loc 3 1039 0 is_stmt 1 discriminator 3
	li 3,1
	.loc 6 1935 0 discriminator 3
	b .L126
.L1514:
	.loc 6 1944 0 discriminator 1
	lwzx 11,30,9
	add 9,30,9
	add 0,11,0
	mr 11,0
	lwz 0,-1(11)
	b .L1515
.L1512:
	.loc 6 1939 0 discriminator 1
	lwzx 11,30,9
	add 9,30,9
	add 0,11,0
	mr 11,0
	lwz 0,-1(11)
	b .L1513
.L1510:
	.loc 6 1934 0 discriminator 1
	lwzx 11,30,9
	add 9,30,9
	add 0,11,0
	mr 11,0
	lwz 0,-1(11)
	b .L1511
.L750:
.LBE751:
	.loc 3 970 0
	ori 10,10,190
	cmpw 7,11,10
	beq- 7,.L573
	cmplw 7,11,10
	ble- 7,.L1986
.LBB752:
	.loc 6 2304 0
	andi. 11,0,1
	bne- 0,.L1658
	add 9,30,9
.L1659:
	.loc 6 2304 0 is_stmt 0 discriminator 3
	mr 3,9
	lfs 1,0(31)
	lfs 2,4(31)
	mtctr 0
	lfs 3,8(31)
	lfs 4,12(31)
	lfs 5,16(31)
	lfs 6,20(31)
	lwz 4,24(31)
	lfs 7,28(31)
	bctrl
	.loc 3 1039 0 is_stmt 1 discriminator 3
	li 3,1
	.loc 6 2305 0 discriminator 3
	b .L126
.L573:
	.loc 6 2299 0
	andi. 11,0,1
	bne- 0,.L1656
	add 9,30,9
.L1657:
	.loc 6 2299 0 is_stmt 0 discriminator 3
	mr 3,9
	lwz 4,0(31)
	lfs 1,4(31)
	mtctr 0
	lfs 2,8(31)
	lfs 3,12(31)
	lfs 4,16(31)
	lfs 5,20(31)
	lwz 5,24(31)
	lfs 6,28(31)
	bctrl
	.loc 3 1039 0 is_stmt 1 discriminator 3
	li 3,1
	.loc 6 2300 0 discriminator 3
	b .L126
.L1986:
	.loc 6 2294 0
	andi. 11,0,1
	bne- 0,.L1654
	add 9,30,9
.L1655:
	.loc 6 2294 0 is_stmt 0 discriminator 3
	mr 3,9
	lfs 1,0(31)
	lwz 4,4(31)
	mtctr 0
	lfs 2,8(31)
	lfs 3,12(31)
	lfs 4,16(31)
	lfs 5,20(31)
	lwz 5,24(31)
	lfs 6,28(31)
	bctrl
	.loc 3 1039 0 is_stmt 1 discriminator 3
	li 3,1
	.loc 6 2295 0 discriminator 3
	b .L126
.L1658:
	.loc 6 2304 0 discriminator 1
	lwzx 11,30,9
	add 9,30,9
	add 0,11,0
	mr 11,0
	lwz 0,-1(11)
	b .L1659
.L1656:
	.loc 6 2299 0 discriminator 1
	lwzx 11,30,9
	add 9,30,9
	add 0,11,0
	mr 11,0
	lwz 0,-1(11)
	b .L1657
.L1654:
	.loc 6 2294 0 discriminator 1
	lwzx 11,30,9
	add 9,30,9
	add 0,11,0
	mr 11,0
	lwz 0,-1(11)
	b .L1655
.L649:
.LBE752:
	.loc 3 970 0
	cmpwi 7,11,4110
	beq- 7,.L157
	cmplwi 7,11,4110
	blt- 7,.L156
	cmpwi 7,11,4111
	bne+ 7,.L127
.LBB753:
	.loc 6 200 0
	andi. 11,0,1
	bne- 0,.L826
	add 9,30,9
.L827:
	.loc 6 200 0 is_stmt 0 discriminator 3
	mr 3,9
	lfs 1,0(31)
	lfs 2,4(31)
	mtctr 0
	lfs 3,8(31)
	lfs 4,12(31)
	bctrl
	.loc 3 1039 0 is_stmt 1 discriminator 3
	li 3,1
	.loc 6 201 0 discriminator 3
	b .L126
.L157:
	.loc 6 195 0
	andi. 11,0,1
	bne- 0,.L824
	add 9,30,9
.L825:
	.loc 6 195 0 is_stmt 0 discriminator 3
	mr 3,9
	lwz 4,0(31)
	lfs 1,4(31)
	mtctr 0
	lfs 2,8(31)
	lfs 3,12(31)
	bctrl
	.loc 3 1039 0 is_stmt 1 discriminator 3
	li 3,1
	.loc 6 196 0 discriminator 3
	b .L126
.L156:
	.loc 6 190 0
	andi. 11,0,1
	bne- 0,.L822
	add 9,30,9
.L823:
	.loc 6 190 0 is_stmt 0 discriminator 3
	mr 3,9
	lfs 1,0(31)
	lwz 4,4(31)
	mtctr 0
	lfs 2,8(31)
	lfs 3,12(31)
	bctrl
	.loc 3 1039 0 is_stmt 1 discriminator 3
	li 3,1
	.loc 6 191 0 discriminator 3
	b .L126
.L826:
	.loc 6 200 0 discriminator 1
	lwzx 11,30,9
	add 9,30,9
	add 0,11,0
	mr 11,0
	lwz 0,-1(11)
	b .L827
.L824:
	.loc 6 195 0 discriminator 1
	lwzx 11,30,9
	add 9,30,9
	add 0,11,0
	mr 11,0
	lwz 0,-1(11)
	b .L825
.L822:
	.loc 6 190 0 discriminator 1
	lwzx 11,30,9
	add 9,30,9
	add 0,11,0
	mr 11,0
	lwz 0,-1(11)
	b .L823
.L740:
.LBE753:
	.loc 3 970 0
	ori 10,10,142
	cmpw 7,11,10
	beq- 7,.L525
	cmplw 7,11,10
	ble- 7,.L1987
.LBB754:
	.loc 6 2064 0
	andi. 11,0,1
	bne- 0,.L1562
	add 9,30,9
.L1563:
	.loc 6 2064 0 is_stmt 0 discriminator 3
	mr 3,9
	lfs 1,0(31)
	lfs 2,4(31)
	mtctr 0
	lfs 3,8(31)
	lfs 4,12(31)
	lwz 4,16(31)
	lwz 5,20(31)
	lwz 6,24(31)
	lfs 5,28(31)
	bctrl
	.loc 3 1039 0 is_stmt 1 discriminator 3
	li 3,1
	.loc 6 2065 0 discriminator 3
	b .L126
.L525:
	.loc 6 2059 0
	andi. 11,0,1
	bne- 0,.L1560
	add 9,30,9
.L1561:
	.loc 6 2059 0 is_stmt 0 discriminator 3
	mr 3,9
	lwz 4,0(31)
	lfs 1,4(31)
	mtctr 0
	lfs 2,8(31)
	lfs 3,12(31)
	lwz 5,16(31)
	lwz 6,20(31)
	lwz 7,24(31)
	lfs 4,28(31)
	bctrl
	.loc 3 1039 0 is_stmt 1 discriminator 3
	li 3,1
	.loc 6 2060 0 discriminator 3
	b .L126
.L1987:
	.loc 6 2054 0
	andi. 11,0,1
	bne- 0,.L1558
	add 9,30,9
.L1559:
	.loc 6 2054 0 is_stmt 0 discriminator 3
	mr 3,9
	lfs 1,0(31)
	lwz 4,4(31)
	mtctr 0
	lfs 2,8(31)
	lfs 3,12(31)
	lwz 5,16(31)
	lwz 6,20(31)
	lwz 7,24(31)
	lfs 4,28(31)
	bctrl
	.loc 3 1039 0 is_stmt 1 discriminator 3
	li 3,1
	.loc 6 2055 0 discriminator 3
	b .L126
.L1562:
	.loc 6 2064 0 discriminator 1
	lwzx 11,30,9
	add 9,30,9
	add 0,11,0
	mr 11,0
	lwz 0,-1(11)
	b .L1563
.L1560:
	.loc 6 2059 0 discriminator 1
	lwzx 11,30,9
	add 9,30,9
	add 0,11,0
	mr 11,0
	lwz 0,-1(11)
	b .L1561
.L1558:
	.loc 6 2054 0 discriminator 1
	lwzx 11,30,9
	add 9,30,9
	add 0,11,0
	mr 11,0
	lwz 0,-1(11)
	b .L1559
.L663:
.LBE754:
	.loc 3 970 0
	cmpwi 7,11,16406
	beq- 7,.L213
	cmplwi 7,11,16406
	ble- 7,.L1988
.LBB755:
	.loc 6 492 0
	andi. 11,0,1
	bne- 0,.L938
	add 9,30,9
.L939:
	.loc 6 492 0 is_stmt 0 discriminator 3
	mr 3,9
	lfs 1,0(31)
	lfs 2,4(31)
	mtctr 0
	lfs 3,8(31)
	lwz 4,12(31)
	lfs 4,16(31)
	lwz 5,20(31)
	bctrl
	.loc 3 1039 0 is_stmt 1 discriminator 3
	li 3,1
	.loc 6 493 0 discriminator 3
	b .L126
.L213:
	.loc 6 487 0
	andi. 11,0,1
	bne- 0,.L936
	add 9,30,9
.L937:
	.loc 6 487 0 is_stmt 0 discriminator 3
	mr 3,9
	lwz 4,0(31)
	lfs 1,4(31)
	mtctr 0
	lfs 2,8(31)
	lwz 5,12(31)
	lfs 3,16(31)
	lwz 6,20(31)
	bctrl
	.loc 3 1039 0 is_stmt 1 discriminator 3
	li 3,1
	.loc 6 488 0 discriminator 3
	b .L126
.L1988:
	.loc 6 482 0
	andi. 11,0,1
	bne- 0,.L934
	add 9,30,9
.L935:
	.loc 6 482 0 is_stmt 0 discriminator 3
	mr 3,9
	lfs 1,0(31)
	lwz 4,4(31)
	mtctr 0
	lfs 2,8(31)
	lwz 5,12(31)
	lfs 3,16(31)
	lwz 6,20(31)
	bctrl
	.loc 3 1039 0 is_stmt 1 discriminator 3
	li 3,1
	.loc 6 483 0 discriminator 3
	b .L126
.L938:
	.loc 6 492 0 discriminator 1
	lwzx 11,30,9
	add 9,30,9
	add 0,11,0
	mr 11,0
	lwz 0,-1(11)
	b .L939
.L936:
	.loc 6 487 0 discriminator 1
	lwzx 11,30,9
	add 9,30,9
	add 0,11,0
	mr 11,0
	lwz 0,-1(11)
	b .L937
.L934:
	.loc 6 482 0 discriminator 1
	lwzx 11,30,9
	add 9,30,9
	add 0,11,0
	mr 11,0
	lwz 0,-1(11)
	b .L935
.L692:
.LBE755:
	.loc 3 970 0
	ori 10,10,32846
	cmpw 7,11,10
	beq- 7,.L333
	cmplwi 7,11,32846
	ble- 7,.L1989
.LBB756:
	.loc 6 1098 0
	andi. 11,0,1
	bne- 0,.L1178
	add 9,30,9
.L1179:
	.loc 6 1098 0 is_stmt 0 discriminator 3
	mr 3,9
	lfs 1,0(31)
	lfs 2,4(31)
	mtctr 0
	lfs 3,8(31)
	lfs 4,12(31)
	lwz 4,16(31)
	lwz 5,20(31)
	lfs 5,24(31)
	bctrl
	.loc 3 1039 0 is_stmt 1 discriminator 3
	li 3,1
	.loc 6 1099 0 discriminator 3
	b .L126
.L333:
	.loc 6 1093 0
	andi. 11,0,1
	bne- 0,.L1176
	add 9,30,9
.L1177:
	.loc 6 1093 0 is_stmt 0 discriminator 3
	mr 3,9
	lwz 4,0(31)
	lfs 1,4(31)
	mtctr 0
	lfs 2,8(31)
	lfs 3,12(31)
	lwz 5,16(31)
	lwz 6,20(31)
	lfs 4,24(31)
	bctrl
	.loc 3 1039 0 is_stmt 1 discriminator 3
	li 3,1
	.loc 6 1094 0 discriminator 3
	b .L126
.L1989:
	.loc 6 1088 0
	andi. 11,0,1
	bne- 0,.L1174
	add 9,30,9
.L1175:
	.loc 6 1088 0 is_stmt 0 discriminator 3
	mr 3,9
	lfs 1,0(31)
	lwz 4,4(31)
	mtctr 0
	lfs 2,8(31)
	lfs 3,12(31)
	lwz 5,16(31)
	lwz 6,20(31)
	lfs 4,24(31)
	bctrl
	.loc 3 1039 0 is_stmt 1 discriminator 3
	li 3,1
	.loc 6 1089 0 discriminator 3
	b .L126
.L1178:
	.loc 6 1098 0 discriminator 1
	lwzx 11,30,9
	add 9,30,9
	add 0,11,0
	mr 11,0
	lwz 0,-1(11)
	b .L1179
.L1176:
	.loc 6 1093 0 discriminator 1
	lwzx 11,30,9
	add 9,30,9
	add 0,11,0
	mr 11,0
	lwz 0,-1(11)
	b .L1177
.L1174:
	.loc 6 1088 0 discriminator 1
	lwzx 11,30,9
	add 9,30,9
	add 0,11,0
	mr 11,0
	lwz 0,-1(11)
	b .L1175
.L731:
.LBE756:
	.loc 3 970 0
	ori 10,10,110
	cmpw 7,11,10
	beq- 7,.L493
	cmplw 7,11,10
	ble- 7,.L1990
.LBB757:
	.loc 6 1904 0
	andi. 11,0,1
	bne- 0,.L1498
	add 9,30,9
.L1499:
	.loc 6 1904 0 is_stmt 0 discriminator 3
	mr 3,9
	lfs 1,0(31)
	lfs 2,4(31)
	mtctr 0
	lfs 3,8(31)
	lfs 4,12(31)
	lwz 4,16(31)
	lfs 5,20(31)
	lfs 6,24(31)
	lwz 5,28(31)
	bctrl
	.loc 3 1039 0 is_stmt 1 discriminator 3
	li 3,1
	.loc 6 1905 0 discriminator 3
	b .L126
.L493:
	.loc 6 1899 0
	andi. 11,0,1
	bne- 0,.L1496
	add 9,30,9
.L1497:
	.loc 6 1899 0 is_stmt 0 discriminator 3
	mr 3,9
	lwz 4,0(31)
	lfs 1,4(31)
	mtctr 0
	lfs 2,8(31)
	lfs 3,12(31)
	lwz 5,16(31)
	lfs 4,20(31)
	lfs 5,24(31)
	lwz 6,28(31)
	bctrl
	.loc 3 1039 0 is_stmt 1 discriminator 3
	li 3,1
	.loc 6 1900 0 discriminator 3
	b .L126
.L1990:
	.loc 6 1894 0
	andi. 11,0,1
	bne- 0,.L1494
	add 9,30,9
.L1495:
	.loc 6 1894 0 is_stmt 0 discriminator 3
	mr 3,9
	lfs 1,0(31)
	lwz 4,4(31)
	mtctr 0
	lfs 2,8(31)
	lfs 3,12(31)
	lwz 5,16(31)
	lfs 4,20(31)
	lfs 5,24(31)
	lwz 6,28(31)
	bctrl
	.loc 3 1039 0 is_stmt 1 discriminator 3
	li 3,1
	.loc 6 1895 0 discriminator 3
	b .L126
.L1498:
	.loc 6 1904 0 discriminator 1
	lwzx 11,30,9
	add 9,30,9
	add 0,11,0
	mr 11,0
	lwz 0,-1(11)
	b .L1499
.L1496:
	.loc 6 1899 0 discriminator 1
	lwzx 11,30,9
	add 9,30,9
	add 0,11,0
	mr 11,0
	lwz 0,-1(11)
	b .L1497
.L1494:
	.loc 6 1894 0 discriminator 1
	lwzx 11,30,9
	add 9,30,9
	add 0,11,0
	mr 11,0
	lwz 0,-1(11)
	b .L1495
.L747:
.LBE757:
	.loc 3 970 0
	ori 10,10,174
	cmpw 7,11,10
	beq- 7,.L557
	cmplw 7,11,10
	ble- 7,.L1991
.LBB758:
	.loc 6 2224 0
	andi. 11,0,1
	bne- 0,.L1626
	add 9,30,9
.L1627:
	.loc 6 2224 0 is_stmt 0 discriminator 3
	mr 3,9
	lfs 1,0(31)
	lfs 2,4(31)
	mtctr 0
	lfs 3,8(31)
	lfs 4,12(31)
	lwz 4,16(31)
	lfs 5,20(31)
	lwz 5,24(31)
	lfs 6,28(31)
	bctrl
	.loc 3 1039 0 is_stmt 1 discriminator 3
	li 3,1
	.loc 6 2225 0 discriminator 3
	b .L126
.L557:
	.loc 6 2219 0
	andi. 11,0,1
	bne- 0,.L1624
	add 9,30,9
.L1625:
	.loc 6 2219 0 is_stmt 0 discriminator 3
	mr 3,9
	lwz 4,0(31)
	lfs 1,4(31)
	mtctr 0
	lfs 2,8(31)
	lfs 3,12(31)
	lwz 5,16(31)
	lfs 4,20(31)
	lwz 6,24(31)
	lfs 5,28(31)
	bctrl
	.loc 3 1039 0 is_stmt 1 discriminator 3
	li 3,1
	.loc 6 2220 0 discriminator 3
	b .L126
.L1991:
	.loc 6 2214 0
	andi. 11,0,1
	bne- 0,.L1622
	add 9,30,9
.L1623:
	.loc 6 2214 0 is_stmt 0 discriminator 3
	mr 3,9
	lfs 1,0(31)
	lwz 4,4(31)
	mtctr 0
	lfs 2,8(31)
	lfs 3,12(31)
	lwz 5,16(31)
	lfs 4,20(31)
	lwz 6,24(31)
	lfs 5,28(31)
	bctrl
	.loc 3 1039 0 is_stmt 1 discriminator 3
	li 3,1
	.loc 6 2215 0 discriminator 3
	b .L126
.L1626:
	.loc 6 2224 0 discriminator 1
	lwzx 11,30,9
	add 9,30,9
	add 0,11,0
	mr 11,0
	lwz 0,-1(11)
	b .L1627
.L1624:
	.loc 6 2219 0 discriminator 1
	lwzx 11,30,9
	add 9,30,9
	add 0,11,0
	mr 11,0
	lwz 0,-1(11)
	b .L1625
.L1622:
	.loc 6 2214 0 discriminator 1
	lwzx 11,30,9
	add 9,30,9
	add 0,11,0
	mr 11,0
	lwz 0,-1(11)
	b .L1623
.L670:
.LBE758:
	.loc 3 970 0
	cmpwi 7,11,16438
	beq- 7,.L245
	cmplwi 7,11,16438
	ble- 7,.L1992
.LBB759:
	.loc 6 652 0
	andi. 11,0,1
	bne- 0,.L1002
	add 9,30,9
.L1003:
	.loc 6 652 0 is_stmt 0 discriminator 3
	mr 3,9
	lfs 1,0(31)
	lfs 2,4(31)
	mtctr 0
	lfs 3,8(31)
	lwz 4,12(31)
	lfs 4,16(31)
	lfs 5,20(31)
	bctrl
	.loc 3 1039 0 is_stmt 1 discriminator 3
	li 3,1
	.loc 6 653 0 discriminator 3
	b .L126
.L245:
	.loc 6 647 0
	andi. 11,0,1
	bne- 0,.L1000
	add 9,30,9
.L1001:
	.loc 6 647 0 is_stmt 0 discriminator 3
	mr 3,9
	lwz 4,0(31)
	lfs 1,4(31)
	mtctr 0
	lfs 2,8(31)
	lwz 5,12(31)
	lfs 3,16(31)
	lfs 4,20(31)
	bctrl
	.loc 3 1039 0 is_stmt 1 discriminator 3
	li 3,1
	.loc 6 648 0 discriminator 3
	b .L126
.L1992:
	.loc 6 642 0
	andi. 11,0,1
	bne- 0,.L998
	add 9,30,9
.L999:
	.loc 6 642 0 is_stmt 0 discriminator 3
	mr 3,9
	lfs 1,0(31)
	lwz 4,4(31)
	mtctr 0
	lfs 2,8(31)
	lwz 5,12(31)
	lfs 3,16(31)
	lfs 4,20(31)
	bctrl
	.loc 3 1039 0 is_stmt 1 discriminator 3
	li 3,1
	.loc 6 643 0 discriminator 3
	b .L126
.L1002:
	.loc 6 652 0 discriminator 1
	lwzx 11,30,9
	add 9,30,9
	add 0,11,0
	mr 11,0
	lwz 0,-1(11)
	b .L1003
.L1000:
	.loc 6 647 0 discriminator 1
	lwzx 11,30,9
	add 9,30,9
	add 0,11,0
	mr 11,0
	lwz 0,-1(11)
	b .L1001
.L998:
	.loc 6 642 0 discriminator 1
	lwzx 11,30,9
	add 9,30,9
	add 0,11,0
	mr 11,0
	lwz 0,-1(11)
	b .L999
.L716:
.LBE759:
	.loc 3 970 0
	ori 10,10,46
	cmpw 7,11,10
	beq- 7,.L429
	cmplw 7,11,10
	ble- 7,.L1993
.LBB760:
	.loc 6 1584 0
	andi. 11,0,1
	bne- 0,.L1370
	add 9,30,9
.L1371:
	.loc 6 1584 0 is_stmt 0 discriminator 3
	mr 3,9
	lfs 1,0(31)
	lfs 2,4(31)
	mtctr 0
	lfs 3,8(31)
	lfs 4,12(31)
	lwz 4,16(31)
	lfs 5,20(31)
	lwz 5,24(31)
	lwz 6,28(31)
	bctrl
	.loc 3 1039 0 is_stmt 1 discriminator 3
	li 3,1
	.loc 6 1585 0 discriminator 3
	b .L126
.L429:
	.loc 6 1579 0
	andi. 11,0,1
	bne- 0,.L1368
	add 9,30,9
.L1369:
	.loc 6 1579 0 is_stmt 0 discriminator 3
	mr 3,9
	lwz 4,0(31)
	lfs 1,4(31)
	mtctr 0
	lfs 2,8(31)
	lfs 3,12(31)
	lwz 5,16(31)
	lfs 4,20(31)
	lwz 6,24(31)
	lwz 7,28(31)
	bctrl
	.loc 3 1039 0 is_stmt 1 discriminator 3
	li 3,1
	.loc 6 1580 0 discriminator 3
	b .L126
.L1993:
	.loc 6 1574 0
	andi. 11,0,1
	bne- 0,.L1366
	add 9,30,9
.L1367:
	.loc 6 1574 0 is_stmt 0 discriminator 3
	mr 3,9
	lfs 1,0(31)
	lwz 4,4(31)
	mtctr 0
	lfs 2,8(31)
	lfs 3,12(31)
	lwz 5,16(31)
	lfs 4,20(31)
	lwz 6,24(31)
	lwz 7,28(31)
	bctrl
	.loc 3 1039 0 is_stmt 1 discriminator 3
	li 3,1
	.loc 6 1575 0 discriminator 3
	b .L126
.L1370:
	.loc 6 1584 0 discriminator 1
	lwzx 11,30,9
	add 9,30,9
	add 0,11,0
	mr 11,0
	lwz 0,-1(11)
	b .L1371
.L1368:
	.loc 6 1579 0 discriminator 1
	lwzx 11,30,9
	add 9,30,9
	add 0,11,0
	mr 11,0
	lwz 0,-1(11)
	b .L1369
.L1366:
	.loc 6 1574 0 discriminator 1
	lwzx 11,30,9
	add 9,30,9
	add 0,11,0
	mr 11,0
	lwz 0,-1(11)
	b .L1367
.L653:
.LBE760:
	.loc 3 970 0
	cmpwi 7,11,8206
	beq- 7,.L173
	cmplwi 7,11,8206
	ble- 7,.L1994
.LBB761:
	.loc 6 286 0
	andi. 11,0,1
	bne- 0,.L858
	add 9,30,9
.L859:
	.loc 6 286 0 is_stmt 0 discriminator 3
	mr 3,9
	lfs 1,0(31)
	lfs 2,4(31)
	mtctr 0
	lfs 3,8(31)
	lfs 4,12(31)
	lwz 4,16(31)
	bctrl
	.loc 3 1039 0 is_stmt 1 discriminator 3
	li 3,1
	.loc 6 287 0 discriminator 3
	b .L126
.L173:
	.loc 6 281 0
	andi. 11,0,1
	bne- 0,.L856
	add 9,30,9
.L857:
	.loc 6 281 0 is_stmt 0 discriminator 3
	mr 3,9
	lwz 4,0(31)
	lfs 1,4(31)
	mtctr 0
	lfs 2,8(31)
	lfs 3,12(31)
	lwz 5,16(31)
	bctrl
	.loc 3 1039 0 is_stmt 1 discriminator 3
	li 3,1
	.loc 6 282 0 discriminator 3
	b .L126
.L1994:
	.loc 6 276 0
	andi. 11,0,1
	bne- 0,.L854
	add 9,30,9
.L855:
	.loc 6 276 0 is_stmt 0 discriminator 3
	mr 3,9
	lfs 1,0(31)
	lwz 4,4(31)
	mtctr 0
	lfs 2,8(31)
	lfs 3,12(31)
	lwz 5,16(31)
	bctrl
	.loc 3 1039 0 is_stmt 1 discriminator 3
	li 3,1
	.loc 6 277 0 discriminator 3
	b .L126
.L858:
	.loc 6 286 0 discriminator 1
	lwzx 11,30,9
	add 9,30,9
	add 0,11,0
	mr 11,0
	lwz 0,-1(11)
	b .L859
.L856:
	.loc 6 281 0 discriminator 1
	lwzx 11,30,9
	add 9,30,9
	add 0,11,0
	mr 11,0
	lwz 0,-1(11)
	b .L857
.L854:
	.loc 6 276 0 discriminator 1
	lwzx 11,30,9
	add 9,30,9
	add 0,11,0
	mr 11,0
	lwz 0,-1(11)
	b .L855
.L694:
.LBE761:
	.loc 3 970 0
	ori 10,10,32854
	cmpw 7,11,10
	beq- 7,.L341
	cmplwi 7,11,32854
	ble- 7,.L1995
.LBB762:
	.loc 6 1138 0
	andi. 11,0,1
	bne- 0,.L1194
	add 9,30,9
.L1195:
	.loc 6 1138 0 is_stmt 0 discriminator 3
	mr 3,9
	lfs 1,0(31)
	lfs 2,4(31)
	mtctr 0
	lfs 3,8(31)
	lwz 4,12(31)
	lfs 4,16(31)
	lwz 5,20(31)
	lfs 5,24(31)
	bctrl
	.loc 3 1039 0 is_stmt 1 discriminator 3
	li 3,1
	.loc 6 1139 0 discriminator 3
	b .L126
.L341:
	.loc 6 1133 0
	andi. 11,0,1
	bne- 0,.L1192
	add 9,30,9
.L1193:
	.loc 6 1133 0 is_stmt 0 discriminator 3
	mr 3,9
	lwz 4,0(31)
	lfs 1,4(31)
	mtctr 0
	lfs 2,8(31)
	lwz 5,12(31)
	lfs 3,16(31)
	lwz 6,20(31)
	lfs 4,24(31)
	bctrl
	.loc 3 1039 0 is_stmt 1 discriminator 3
	li 3,1
	.loc 6 1134 0 discriminator 3
	b .L126
.L1995:
	.loc 6 1128 0
	andi. 11,0,1
	bne- 0,.L1190
	add 9,30,9
.L1191:
	.loc 6 1128 0 is_stmt 0 discriminator 3
	mr 3,9
	lfs 1,0(31)
	lwz 4,4(31)
	mtctr 0
	lfs 2,8(31)
	lwz 5,12(31)
	lfs 3,16(31)
	lwz 6,20(31)
	lfs 4,24(31)
	bctrl
	.loc 3 1039 0 is_stmt 1 discriminator 3
	li 3,1
	.loc 6 1129 0 discriminator 3
	b .L126
.L1194:
	.loc 6 1138 0 discriminator 1
	lwzx 11,30,9
	add 9,30,9
	add 0,11,0
	mr 11,0
	lwz 0,-1(11)
	b .L1195
.L1192:
	.loc 6 1133 0 discriminator 1
	lwzx 11,30,9
	add 9,30,9
	add 0,11,0
	mr 11,0
	lwz 0,-1(11)
	b .L1193
.L1190:
	.loc 6 1128 0 discriminator 1
	lwzx 11,30,9
	add 9,30,9
	add 0,11,0
	mr 11,0
	lwz 0,-1(11)
	b .L1191
.L684:
.LBE762:
	.loc 3 970 0
	ori 10,10,32814
	cmpw 7,11,10
	beq- 7,.L301
	cmplwi 7,11,32814
	ble- 7,.L1996
.LBB763:
	.loc 6 938 0
	andi. 11,0,1
	bne- 0,.L1114
	add 9,30,9
.L1115:
	.loc 6 938 0 is_stmt 0 discriminator 3
	mr 3,9
	lfs 1,0(31)
	lfs 2,4(31)
	mtctr 0
	lfs 3,8(31)
	lfs 4,12(31)
	lwz 4,16(31)
	lfs 5,20(31)
	lwz 5,24(31)
	bctrl
	.loc 3 1039 0 is_stmt 1 discriminator 3
	li 3,1
	.loc 6 939 0 discriminator 3
	b .L126
.L301:
	.loc 6 933 0
	andi. 11,0,1
	bne- 0,.L1112
	add 9,30,9
.L1113:
	.loc 6 933 0 is_stmt 0 discriminator 3
	mr 3,9
	lwz 4,0(31)
	lfs 1,4(31)
	mtctr 0
	lfs 2,8(31)
	lfs 3,12(31)
	lwz 5,16(31)
	lfs 4,20(31)
	lwz 6,24(31)
	bctrl
	.loc 3 1039 0 is_stmt 1 discriminator 3
	li 3,1
	.loc 6 934 0 discriminator 3
	b .L126
.L1996:
	.loc 6 928 0
	andi. 11,0,1
	bne- 0,.L1110
	add 9,30,9
.L1111:
	.loc 6 928 0 is_stmt 0 discriminator 3
	mr 3,9
	lfs 1,0(31)
	lwz 4,4(31)
	mtctr 0
	lfs 2,8(31)
	lfs 3,12(31)
	lwz 5,16(31)
	lfs 4,20(31)
	lwz 6,24(31)
	bctrl
	.loc 3 1039 0 is_stmt 1 discriminator 3
	li 3,1
	.loc 6 929 0 discriminator 3
	b .L126
.L1114:
	.loc 6 938 0 discriminator 1
	lwzx 11,30,9
	add 9,30,9
	add 0,11,0
	mr 11,0
	lwz 0,-1(11)
	b .L1115
.L1112:
	.loc 6 933 0 discriminator 1
	lwzx 11,30,9
	add 9,30,9
	add 0,11,0
	mr 11,0
	lwz 0,-1(11)
	b .L1113
.L1110:
	.loc 6 928 0 discriminator 1
	lwzx 11,30,9
	add 9,30,9
	add 0,11,0
	mr 11,0
	lwz 0,-1(11)
	b .L1111
.L764:
.LBE763:
	.loc 3 970 0
	ori 10,10,246
	cmpw 7,11,10
	beq- 7,.L629
	cmplw 7,11,10
	ble- 7,.L1997
.LBB764:
	.loc 6 2584 0
	andi. 11,0,1
	bne- 0,.L1770
	add 9,30,9
.L1771:
	.loc 6 2584 0 is_stmt 0 discriminator 3
	mr 3,9
	lfs 1,0(31)
	lfs 2,4(31)
	mtctr 0
	lfs 3,8(31)
	lwz 4,12(31)
	lfs 4,16(31)
	lfs 5,20(31)
	lfs 6,24(31)
	lfs 7,28(31)
	bctrl
	.loc 3 1039 0 is_stmt 1 discriminator 3
	li 3,1
	.loc 6 2585 0 discriminator 3
	b .L126
.L629:
	.loc 6 2579 0
	andi. 11,0,1
	bne- 0,.L1768
	add 9,30,9
.L1769:
	.loc 6 2579 0 is_stmt 0 discriminator 3
	mr 3,9
	lwz 4,0(31)
	lfs 1,4(31)
	mtctr 0
	lfs 2,8(31)
	lwz 5,12(31)
	lfs 3,16(31)
	lfs 4,20(31)
	lfs 5,24(31)
	lfs 6,28(31)
	bctrl
	.loc 3 1039 0 is_stmt 1 discriminator 3
	li 3,1
	.loc 6 2580 0 discriminator 3
	b .L126
.L1997:
	.loc 6 2574 0
	andi. 11,0,1
	bne- 0,.L1766
	add 9,30,9
.L1767:
	.loc 6 2574 0 is_stmt 0 discriminator 3
	mr 3,9
	lfs 1,0(31)
	lwz 4,4(31)
	mtctr 0
	lfs 2,8(31)
	lwz 5,12(31)
	lfs 3,16(31)
	lfs 4,20(31)
	lfs 5,24(31)
	lfs 6,28(31)
	bctrl
	.loc 3 1039 0 is_stmt 1 discriminator 3
	li 3,1
	.loc 6 2575 0 discriminator 3
	b .L126
.L1770:
	.loc 6 2584 0 discriminator 1
	lwzx 11,30,9
	add 9,30,9
	add 0,11,0
	mr 11,0
	lwz 0,-1(11)
	b .L1771
.L1768:
	.loc 6 2579 0 discriminator 1
	lwzx 11,30,9
	add 9,30,9
	add 0,11,0
	mr 11,0
	lwz 0,-1(11)
	b .L1769
.L1766:
	.loc 6 2574 0 discriminator 1
	lwzx 11,30,9
	add 9,30,9
	add 0,11,0
	mr 11,0
	lwz 0,-1(11)
	b .L1767
.L755:
.LBE764:
	.loc 3 970 0
	ori 10,10,206
	cmpw 7,11,10
	beq- 7,.L589
	cmplw 7,11,10
	ble- 7,.L1998
.LBB765:
	.loc 6 2384 0
	andi. 11,0,1
	bne- 0,.L1690
	add 9,30,9
.L1691:
	.loc 6 2384 0 is_stmt 0 discriminator 3
	mr 3,9
	lfs 1,0(31)
	lfs 2,4(31)
	mtctr 0
	lfs 3,8(31)
	lfs 4,12(31)
	lwz 4,16(31)
	lwz 5,20(31)
	lfs 5,24(31)
	lfs 6,28(31)
	bctrl
	.loc 3 1039 0 is_stmt 1 discriminator 3
	li 3,1
	.loc 6 2385 0 discriminator 3
	b .L126
.L589:
	.loc 6 2379 0
	andi. 11,0,1
	bne- 0,.L1688
	add 9,30,9
.L1689:
	.loc 6 2379 0 is_stmt 0 discriminator 3
	mr 3,9
	lwz 4,0(31)
	lfs 1,4(31)
	mtctr 0
	lfs 2,8(31)
	lfs 3,12(31)
	lwz 5,16(31)
	lwz 6,20(31)
	lfs 4,24(31)
	lfs 5,28(31)
	bctrl
	.loc 3 1039 0 is_stmt 1 discriminator 3
	li 3,1
	.loc 6 2380 0 discriminator 3
	b .L126
.L1998:
	.loc 6 2374 0
	andi. 11,0,1
	bne- 0,.L1686
	add 9,30,9
.L1687:
	.loc 6 2374 0 is_stmt 0 discriminator 3
	mr 3,9
	lfs 1,0(31)
	lwz 4,4(31)
	mtctr 0
	lfs 2,8(31)
	lfs 3,12(31)
	lwz 5,16(31)
	lwz 6,20(31)
	lfs 4,24(31)
	lfs 5,28(31)
	bctrl
	.loc 3 1039 0 is_stmt 1 discriminator 3
	li 3,1
	.loc 6 2375 0 discriminator 3
	b .L126
.L1690:
	.loc 6 2384 0 discriminator 1
	lwzx 11,30,9
	add 9,30,9
	add 0,11,0
	mr 11,0
	lwz 0,-1(11)
	b .L1691
.L1688:
	.loc 6 2379 0 discriminator 1
	lwzx 11,30,9
	add 9,30,9
	add 0,11,0
	mr 11,0
	lwz 0,-1(11)
	b .L1689
.L1686:
	.loc 6 2374 0 discriminator 1
	lwzx 11,30,9
	add 9,30,9
	add 0,11,0
	mr 11,0
	lwz 0,-1(11)
	b .L1687
.L645:
.LBE765:
	.loc 3 970 0
	cmpwi 7,11,1026
	beq- 7,.L133
	cmplwi 7,11,1026
	blt- 7,.L132
	cmpwi 7,11,1027
	beq- 7,$+8
	b .L127
.LBB766:
	.loc 6 68 0
	andi. 11,0,1
	bne- 0,.L778
	add 9,30,9
.L779:
	.loc 6 68 0 is_stmt 0 discriminator 3
	mr 3,9
	lfs 1,0(31)
	lfs 2,4(31)
	mtctr 0
	bctrl
	.loc 3 1039 0 is_stmt 1 discriminator 3
	li 3,1
	.loc 6 69 0 discriminator 3
	b .L126
.L133:
	.loc 6 63 0
	andi. 11,0,1
	bne- 0,.L776
	add 9,30,9
.L777:
	.loc 6 63 0 is_stmt 0 discriminator 3
	mr 3,9
	lwz 4,0(31)
	lfs 1,4(31)
	mtctr 0
	bctrl
	.loc 3 1039 0 is_stmt 1 discriminator 3
	li 3,1
	.loc 6 64 0 discriminator 3
	b .L126
.L132:
	.loc 6 58 0
	andi. 11,0,1
	bne- 0,.L774
	add 9,30,9
.L775:
	.loc 6 58 0 is_stmt 0 discriminator 3
	mr 3,9
	lfs 1,0(31)
	lwz 4,4(31)
	mtctr 0
	bctrl
	.loc 3 1039 0 is_stmt 1 discriminator 3
	li 3,1
	.loc 6 59 0 discriminator 3
	b .L126
.L778:
	.loc 6 68 0 discriminator 1
	lwzx 11,30,9
	add 9,30,9
	add 0,11,0
	mr 11,0
	lwz 0,-1(11)
	b .L779
.L776:
	.loc 6 63 0 discriminator 1
	lwzx 11,30,9
	add 9,30,9
	add 0,11,0
	mr 11,0
	lwz 0,-1(11)
	b .L777
.L774:
	.loc 6 58 0 discriminator 1
	lwzx 11,30,9
	add 9,30,9
	add 0,11,0
	mr 11,0
	lwz 0,-1(11)
	b .L775
.L677:
.LBE766:
	.loc 3 970 0
	ori 10,10,32782
	cmpw 7,11,10
	beq- 7,.L269
	cmplwi 7,11,32782
	ble- 7,.L1999
.LBB767:
	.loc 6 778 0
	andi. 11,0,1
	bne- 0,.L1050
	add 9,30,9
.L1051:
	.loc 6 778 0 is_stmt 0 discriminator 3
	mr 3,9
	lfs 1,0(31)
	lfs 2,4(31)
	mtctr 0
	lfs 3,8(31)
	lfs 4,12(31)
	lwz 4,16(31)
	lwz 5,20(31)
	lwz 6,24(31)
	bctrl
	.loc 3 1039 0 is_stmt 1 discriminator 3
	li 3,1
	.loc 6 779 0 discriminator 3
	b .L126
.L269:
	.loc 6 773 0
	andi. 11,0,1
	bne- 0,.L1048
	add 9,30,9
.L1049:
	.loc 6 773 0 is_stmt 0 discriminator 3
	mr 3,9
	lwz 4,0(31)
	lfs 1,4(31)
	mtctr 0
	lfs 2,8(31)
	lfs 3,12(31)
	lwz 5,16(31)
	lwz 6,20(31)
	lwz 7,24(31)
	bctrl
	.loc 3 1039 0 is_stmt 1 discriminator 3
	li 3,1
	.loc 6 774 0 discriminator 3
	b .L126
.L1999:
	.loc 6 768 0
	andi. 11,0,1
	bne- 0,.L1046
	add 9,30,9
.L1047:
	.loc 6 768 0 is_stmt 0 discriminator 3
	mr 3,9
	lfs 1,0(31)
	lwz 4,4(31)
	mtctr 0
	lfs 2,8(31)
	lfs 3,12(31)
	lwz 5,16(31)
	lwz 6,20(31)
	lwz 7,24(31)
	bctrl
	.loc 3 1039 0 is_stmt 1 discriminator 3
	li 3,1
	.loc 6 769 0 discriminator 3
	b .L126
.L1050:
	.loc 6 778 0 discriminator 1
	lwzx 11,30,9
	add 9,30,9
	add 0,11,0
	mr 11,0
	lwz 0,-1(11)
	b .L1051
.L1048:
	.loc 6 773 0 discriminator 1
	lwzx 11,30,9
	add 9,30,9
	add 0,11,0
	mr 11,0
	lwz 0,-1(11)
	b .L1049
.L1046:
	.loc 6 768 0 discriminator 1
	lwzx 11,30,9
	add 9,30,9
	add 0,11,0
	mr 11,0
	lwz 0,-1(11)
	b .L1047
.L762:
.LBE767:
	.loc 3 970 0
	ori 10,10,238
	cmpw 7,11,10
	beq- 7,.L621
	cmplw 7,11,10
	ble- 7,.L2000
.LBB768:
	.loc 6 2544 0
	andi. 11,0,1
	bne- 0,.L1754
	add 9,30,9
.L1755:
	.loc 6 2544 0 is_stmt 0 discriminator 3
	mr 3,9
	lfs 1,0(31)
	lfs 2,4(31)
	mtctr 0
	lfs 3,8(31)
	lfs 4,12(31)
	lwz 4,16(31)
	lfs 5,20(31)
	lfs 6,24(31)
	lfs 7,28(31)
	bctrl
	.loc 3 1039 0 is_stmt 1 discriminator 3
	li 3,1
	.loc 6 2545 0 discriminator 3
	b .L126
.L621:
	.loc 6 2539 0
	andi. 11,0,1
	bne- 0,.L1752
	add 9,30,9
.L1753:
	.loc 6 2539 0 is_stmt 0 discriminator 3
	mr 3,9
	lwz 4,0(31)
	lfs 1,4(31)
	mtctr 0
	lfs 2,8(31)
	lfs 3,12(31)
	lwz 5,16(31)
	lfs 4,20(31)
	lfs 5,24(31)
	lfs 6,28(31)
	bctrl
	.loc 3 1039 0 is_stmt 1 discriminator 3
	li 3,1
	.loc 6 2540 0 discriminator 3
	b .L126
.L2000:
	.loc 6 2534 0
	andi. 11,0,1
	bne- 0,.L1750
	add 9,30,9
.L1751:
	.loc 6 2534 0 is_stmt 0 discriminator 3
	mr 3,9
	lfs 1,0(31)
	lwz 4,4(31)
	mtctr 0
	lfs 2,8(31)
	lfs 3,12(31)
	lwz 5,16(31)
	lfs 4,20(31)
	lfs 5,24(31)
	lfs 6,28(31)
	bctrl
	.loc 3 1039 0 is_stmt 1 discriminator 3
	li 3,1
	.loc 6 2535 0 discriminator 3
	b .L126
.L1754:
	.loc 6 2544 0 discriminator 1
	lwzx 11,30,9
	add 9,30,9
	add 0,11,0
	mr 11,0
	lwz 0,-1(11)
	b .L1755
.L1752:
	.loc 6 2539 0 discriminator 1
	lwzx 11,30,9
	add 9,30,9
	add 0,11,0
	mr 11,0
	lwz 0,-1(11)
	b .L1753
.L1750:
	.loc 6 2534 0 discriminator 1
	lwzx 11,30,9
	add 9,30,9
	add 0,11,0
	mr 11,0
	lwz 0,-1(11)
	b .L1751
.L656:
.LBE768:
	.loc 3 970 0
	cmpwi 7,11,8222
	beq- 7,.L189
	cmplwi 7,11,8222
	blt- 7,.L188
	cmpwi 7,11,8223
	beq- 7,$+8
	b .L127
.LBB769:
	.loc 6 366 0
	andi. 11,0,1
	bne- 0,.L890
	add 9,30,9
.L891:
	.loc 6 366 0 is_stmt 0 discriminator 3
	mr 3,9
	lfs 1,0(31)
	lfs 2,4(31)
	mtctr 0
	lfs 3,8(31)
	lfs 4,12(31)
	lfs 5,16(31)
	bctrl
	.loc 3 1039 0 is_stmt 1 discriminator 3
	li 3,1
	.loc 6 367 0 discriminator 3
	b .L126
.L189:
	.loc 6 361 0
	andi. 11,0,1
	bne- 0,.L888
	add 9,30,9
.L889:
	.loc 6 361 0 is_stmt 0 discriminator 3
	mr 3,9
	lwz 4,0(31)
	lfs 1,4(31)
	mtctr 0
	lfs 2,8(31)
	lfs 3,12(31)
	lfs 4,16(31)
	bctrl
	.loc 3 1039 0 is_stmt 1 discriminator 3
	li 3,1
	.loc 6 362 0 discriminator 3
	b .L126
.L188:
	.loc 6 356 0
	andi. 11,0,1
	bne- 0,.L886
	add 9,30,9
.L887:
	.loc 6 356 0 is_stmt 0 discriminator 3
	mr 3,9
	lfs 1,0(31)
	lwz 4,4(31)
	mtctr 0
	lfs 2,8(31)
	lfs 3,12(31)
	lfs 4,16(31)
	bctrl
	.loc 3 1039 0 is_stmt 1 discriminator 3
	li 3,1
	.loc 6 357 0 discriminator 3
	b .L126
.L890:
	.loc 6 366 0 discriminator 1
	lwzx 11,30,9
	add 9,30,9
	add 0,11,0
	mr 11,0
	lwz 0,-1(11)
	b .L891
.L888:
	.loc 6 361 0 discriminator 1
	lwzx 11,30,9
	add 9,30,9
	add 0,11,0
	mr 11,0
	lwz 0,-1(11)
	b .L889
.L886:
	.loc 6 356 0 discriminator 1
	lwzx 11,30,9
	add 9,30,9
	add 0,11,0
	mr 11,0
	lwz 0,-1(11)
	b .L887
.L667:
.LBE769:
	.loc 3 970 0
	cmpwi 7,11,16422
	beq- 7,.L229
	cmplwi 7,11,16422
	ble- 7,.L2001
.LBB770:
	.loc 6 572 0
	andi. 11,0,1
	bne- 0,.L970
	add 9,30,9
.L971:
	.loc 6 572 0 is_stmt 0 discriminator 3
	mr 3,9
	lfs 1,0(31)
	lfs 2,4(31)
	mtctr 0
	lfs 3,8(31)
	lwz 4,12(31)
	lwz 5,16(31)
	lfs 4,20(31)
	bctrl
	.loc 3 1039 0 is_stmt 1 discriminator 3
	li 3,1
	.loc 6 573 0 discriminator 3
	b .L126
.L229:
	.loc 6 567 0
	andi. 11,0,1
	bne- 0,.L968
	add 9,30,9
.L969:
	.loc 6 567 0 is_stmt 0 discriminator 3
	mr 3,9
	lwz 4,0(31)
	lfs 1,4(31)
	mtctr 0
	lfs 2,8(31)
	lwz 5,12(31)
	lwz 6,16(31)
	lfs 3,20(31)
	bctrl
	.loc 3 1039 0 is_stmt 1 discriminator 3
	li 3,1
	.loc 6 568 0 discriminator 3
	b .L126
.L2001:
	.loc 6 562 0
	andi. 11,0,1
	bne- 0,.L966
	add 9,30,9
.L967:
	.loc 6 562 0 is_stmt 0 discriminator 3
	mr 3,9
	lfs 1,0(31)
	lwz 4,4(31)
	mtctr 0
	lfs 2,8(31)
	lwz 5,12(31)
	lwz 6,16(31)
	lfs 3,20(31)
	bctrl
	.loc 3 1039 0 is_stmt 1 discriminator 3
	li 3,1
	.loc 6 563 0 discriminator 3
	b .L126
.L970:
	.loc 6 572 0 discriminator 1
	lwzx 11,30,9
	add 9,30,9
	add 0,11,0
	mr 11,0
	lwz 0,-1(11)
	b .L971
.L968:
	.loc 6 567 0 discriminator 1
	lwzx 11,30,9
	add 9,30,9
	add 0,11,0
	mr 11,0
	lwz 0,-1(11)
	b .L969
.L966:
	.loc 6 562 0 discriminator 1
	lwzx 11,30,9
	add 9,30,9
	add 0,11,0
	mr 11,0
	lwz 0,-1(11)
	b .L967
.L695:
.LBE770:
	.loc 3 970 0
	ori 10,10,32862
	cmpw 7,11,10
	beq- 7,.L349
	cmplwi 7,11,32862
	ble- 7,.L2002
.LBB771:
	.loc 6 1178 0
	andi. 11,0,1
	bne- 0,.L1210
	add 9,30,9
.L1211:
	.loc 6 1178 0 is_stmt 0 discriminator 3
	mr 3,9
	lfs 1,0(31)
	lfs 2,4(31)
	mtctr 0
	lfs 3,8(31)
	lfs 4,12(31)
	lfs 5,16(31)
	lwz 4,20(31)
	lfs 6,24(31)
	bctrl
	.loc 3 1039 0 is_stmt 1 discriminator 3
	li 3,1
	.loc 6 1179 0 discriminator 3
	b .L126
.L349:
	.loc 6 1173 0
	andi. 11,0,1
	bne- 0,.L1208
	add 9,30,9
.L1209:
	.loc 6 1173 0 is_stmt 0 discriminator 3
	mr 3,9
	lwz 4,0(31)
	lfs 1,4(31)
	mtctr 0
	lfs 2,8(31)
	lfs 3,12(31)
	lfs 4,16(31)
	lwz 5,20(31)
	lfs 5,24(31)
	bctrl
	.loc 3 1039 0 is_stmt 1 discriminator 3
	li 3,1
	.loc 6 1174 0 discriminator 3
	b .L126
.L2002:
	.loc 6 1168 0
	andi. 11,0,1
	bne- 0,.L1206
	add 9,30,9
.L1207:
	.loc 6 1168 0 is_stmt 0 discriminator 3
	mr 3,9
	lfs 1,0(31)
	lwz 4,4(31)
	mtctr 0
	lfs 2,8(31)
	lfs 3,12(31)
	lfs 4,16(31)
	lwz 5,20(31)
	lfs 5,24(31)
	bctrl
	.loc 3 1039 0 is_stmt 1 discriminator 3
	li 3,1
	.loc 6 1169 0 discriminator 3
	b .L126
.L1210:
	.loc 6 1178 0 discriminator 1
	lwzx 11,30,9
	add 9,30,9
	add 0,11,0
	mr 11,0
	lwz 0,-1(11)
	b .L1211
.L1208:
	.loc 6 1173 0 discriminator 1
	lwzx 11,30,9
	add 9,30,9
	add 0,11,0
	mr 11,0
	lwz 0,-1(11)
	b .L1209
.L1206:
	.loc 6 1168 0 discriminator 1
	lwzx 11,30,9
	add 9,30,9
	add 0,11,0
	mr 11,0
	lwz 0,-1(11)
	b .L1207
.L668:
.LBE771:
	.loc 3 970 0
	cmpwi 7,11,16430
	beq- 7,.L237
	cmplwi 7,11,16430
	ble- 7,.L2003
.LBB772:
	.loc 6 612 0
	andi. 11,0,1
	bne- 0,.L986
	add 9,30,9
.L987:
	.loc 6 612 0 is_stmt 0 discriminator 3
	mr 3,9
	lfs 1,0(31)
	lfs 2,4(31)
	mtctr 0
	lfs 3,8(31)
	lfs 4,12(31)
	lwz 4,16(31)
	lfs 5,20(31)
	bctrl
	.loc 3 1039 0 is_stmt 1 discriminator 3
	li 3,1
	.loc 6 613 0 discriminator 3
	b .L126
.L237:
	.loc 6 607 0
	andi. 11,0,1
	bne- 0,.L984
	add 9,30,9
.L985:
	.loc 6 607 0 is_stmt 0 discriminator 3
	mr 3,9
	lwz 4,0(31)
	lfs 1,4(31)
	mtctr 0
	lfs 2,8(31)
	lfs 3,12(31)
	lwz 5,16(31)
	lfs 4,20(31)
	bctrl
	.loc 3 1039 0 is_stmt 1 discriminator 3
	li 3,1
	.loc 6 608 0 discriminator 3
	b .L126
.L2003:
	.loc 6 602 0
	andi. 11,0,1
	bne- 0,.L982
	add 9,30,9
.L983:
	.loc 6 602 0 is_stmt 0 discriminator 3
	mr 3,9
	lfs 1,0(31)
	lwz 4,4(31)
	mtctr 0
	lfs 2,8(31)
	lfs 3,12(31)
	lwz 5,16(31)
	lfs 4,20(31)
	bctrl
	.loc 3 1039 0 is_stmt 1 discriminator 3
	li 3,1
	.loc 6 603 0 discriminator 3
	b .L126
.L986:
	.loc 6 612 0 discriminator 1
	lwzx 11,30,9
	add 9,30,9
	add 0,11,0
	mr 11,0
	lwz 0,-1(11)
	b .L987
.L984:
	.loc 6 607 0 discriminator 1
	lwzx 11,30,9
	add 9,30,9
	add 0,11,0
	mr 11,0
	lwz 0,-1(11)
	b .L985
.L982:
	.loc 6 602 0 discriminator 1
	lwzx 11,30,9
	add 9,30,9
	add 0,11,0
	mr 11,0
	lwz 0,-1(11)
	b .L983
.L709:
.LBE772:
	.loc 3 970 0
	ori 10,10,14
	cmpw 7,11,10
	beq- 7,.L397
	cmplw 7,11,10
	ble- 7,.L2004
.LBB773:
	.loc 6 1424 0
	andi. 11,0,1
	bne- 0,.L1306
	add 9,30,9
.L1307:
	.loc 6 1424 0 is_stmt 0 discriminator 3
	mr 3,9
	lfs 1,0(31)
	lfs 2,4(31)
	mtctr 0
	lfs 3,8(31)
	lfs 4,12(31)
	lwz 4,16(31)
	lwz 5,20(31)
	lwz 6,24(31)
	lwz 7,28(31)
	bctrl
	.loc 3 1039 0 is_stmt 1 discriminator 3
	li 3,1
	.loc 6 1425 0 discriminator 3
	b .L126
.L397:
	.loc 6 1419 0
	andi. 11,0,1
	bne- 0,.L1304
	add 9,30,9
.L1305:
	.loc 6 1419 0 is_stmt 0 discriminator 3
	mr 3,9
	lwz 4,0(31)
	lfs 1,4(31)
	mtctr 0
	lfs 2,8(31)
	lfs 3,12(31)
	lwz 5,16(31)
	lwz 6,20(31)
	lwz 7,24(31)
	lwz 8,28(31)
	bctrl
	.loc 3 1039 0 is_stmt 1 discriminator 3
	li 3,1
	.loc 6 1420 0 discriminator 3
	b .L126
.L2004:
	.loc 6 1414 0
	andi. 11,0,1
	bne- 0,.L1302
	add 9,30,9
.L1303:
	.loc 6 1414 0 is_stmt 0 discriminator 3
	mr 3,9
	lfs 1,0(31)
	lwz 4,4(31)
	mtctr 0
	lfs 2,8(31)
	lfs 3,12(31)
	lwz 5,16(31)
	lwz 6,20(31)
	lwz 7,24(31)
	lwz 8,28(31)
	bctrl
	.loc 3 1039 0 is_stmt 1 discriminator 3
	li 3,1
	.loc 6 1415 0 discriminator 3
	b .L126
.L1306:
	.loc 6 1424 0 discriminator 1
	lwzx 11,30,9
	add 9,30,9
	add 0,11,0
	mr 11,0
	lwz 0,-1(11)
	b .L1307
.L1304:
	.loc 6 1419 0 discriminator 1
	lwzx 11,30,9
	add 9,30,9
	add 0,11,0
	mr 11,0
	lwz 0,-1(11)
	b .L1305
.L1302:
	.loc 6 1414 0 discriminator 1
	lwzx 11,30,9
	add 9,30,9
	add 0,11,0
	mr 11,0
	lwz 0,-1(11)
	b .L1303
.L746:
.LBE773:
	.loc 3 970 0
	ori 10,10,166
	cmpw 7,11,10
	beq- 7,.L549
	cmplw 7,11,10
	ble- 7,.L2005
.LBB774:
	.loc 6 2184 0
	andi. 11,0,1
	bne- 0,.L1610
	add 9,30,9
.L1611:
	.loc 6 2184 0 is_stmt 0 discriminator 3
	mr 3,9
	lfs 1,0(31)
	lfs 2,4(31)
	mtctr 0
	lfs 3,8(31)
	lwz 4,12(31)
	lwz 5,16(31)
	lfs 4,20(31)
	lwz 6,24(31)
	lfs 5,28(31)
	bctrl
	.loc 3 1039 0 is_stmt 1 discriminator 3
	li 3,1
	.loc 6 2185 0 discriminator 3
	b .L126
.L549:
	.loc 6 2179 0
	andi. 11,0,1
	bne- 0,.L1608
	add 9,30,9
.L1609:
	.loc 6 2179 0 is_stmt 0 discriminator 3
	mr 3,9
	lwz 4,0(31)
	lfs 1,4(31)
	mtctr 0
	lfs 2,8(31)
	lwz 5,12(31)
	lwz 6,16(31)
	lfs 3,20(31)
	lwz 7,24(31)
	lfs 4,28(31)
	bctrl
	.loc 3 1039 0 is_stmt 1 discriminator 3
	li 3,1
	.loc 6 2180 0 discriminator 3
	b .L126
.L2005:
	.loc 6 2174 0
	andi. 11,0,1
	bne- 0,.L1606
	add 9,30,9
.L1607:
	.loc 6 2174 0 is_stmt 0 discriminator 3
	mr 3,9
	lfs 1,0(31)
	lwz 4,4(31)
	mtctr 0
	lfs 2,8(31)
	lwz 5,12(31)
	lwz 6,16(31)
	lfs 3,20(31)
	lwz 7,24(31)
	lfs 4,28(31)
	bctrl
	.loc 3 1039 0 is_stmt 1 discriminator 3
	li 3,1
	.loc 6 2175 0 discriminator 3
	b .L126
.L1610:
	.loc 6 2184 0 discriminator 1
	lwzx 11,30,9
	add 9,30,9
	add 0,11,0
	mr 11,0
	lwz 0,-1(11)
	b .L1611
.L1608:
	.loc 6 2179 0 discriminator 1
	lwzx 11,30,9
	add 9,30,9
	add 0,11,0
	mr 11,0
	lwz 0,-1(11)
	b .L1609
.L1606:
	.loc 6 2174 0 discriminator 1
	lwzx 11,30,9
	add 9,30,9
	add 0,11,0
	mr 11,0
	lwz 0,-1(11)
	b .L1607
.L715:
.LBE774:
	.loc 3 970 0
	ori 10,10,38
	cmpw 7,11,10
	beq- 7,.L421
	cmplw 7,11,10
	ble- 7,.L2006
.LBB775:
	.loc 6 1544 0
	andi. 11,0,1
	bne- 0,.L1354
	add 9,30,9
.L1355:
	.loc 6 1544 0 is_stmt 0 discriminator 3
	mr 3,9
	lfs 1,0(31)
	lfs 2,4(31)
	mtctr 0
	lfs 3,8(31)
	lwz 4,12(31)
	lwz 5,16(31)
	lfs 4,20(31)
	lwz 6,24(31)
	lwz 7,28(31)
	bctrl
	.loc 3 1039 0 is_stmt 1 discriminator 3
	li 3,1
	.loc 6 1545 0 discriminator 3
	b .L126
.L421:
	.loc 6 1539 0
	andi. 11,0,1
	bne- 0,.L1352
	add 9,30,9
.L1353:
	.loc 6 1539 0 is_stmt 0 discriminator 3
	mr 3,9
	lwz 4,0(31)
	lfs 1,4(31)
	mtctr 0
	lfs 2,8(31)
	lwz 5,12(31)
	lwz 6,16(31)
	lfs 3,20(31)
	lwz 7,24(31)
	lwz 8,28(31)
	bctrl
	.loc 3 1039 0 is_stmt 1 discriminator 3
	li 3,1
	.loc 6 1540 0 discriminator 3
	b .L126
.L2006:
	.loc 6 1534 0
	andi. 11,0,1
	bne- 0,.L1350
	add 9,30,9
.L1351:
	.loc 6 1534 0 is_stmt 0 discriminator 3
	mr 3,9
	lfs 1,0(31)
	lwz 4,4(31)
	mtctr 0
	lfs 2,8(31)
	lwz 5,12(31)
	lwz 6,16(31)
	lfs 3,20(31)
	lwz 7,24(31)
	lwz 8,28(31)
	bctrl
	.loc 3 1039 0 is_stmt 1 discriminator 3
	li 3,1
	.loc 6 1535 0 discriminator 3
	b .L126
.L1354:
	.loc 6 1544 0 discriminator 1
	lwzx 11,30,9
	add 9,30,9
	add 0,11,0
	mr 11,0
	lwz 0,-1(11)
	b .L1355
.L1352:
	.loc 6 1539 0 discriminator 1
	lwzx 11,30,9
	add 9,30,9
	add 0,11,0
	mr 11,0
	lwz 0,-1(11)
	b .L1353
.L1350:
	.loc 6 1534 0 discriminator 1
	lwzx 11,30,9
	add 9,30,9
	add 0,11,0
	mr 11,0
	lwz 0,-1(11)
	b .L1351
.L730:
.LBE775:
	.loc 3 970 0
	ori 10,10,102
	cmpw 7,11,10
	beq- 7,.L485
	cmplw 7,11,10
	ble- 7,.L2007
.LBB776:
	.loc 6 1864 0
	andi. 11,0,1
	bne- 0,.L1482
	add 9,30,9
.L1483:
	.loc 6 1864 0 is_stmt 0 discriminator 3
	mr 3,9
	lfs 1,0(31)
	lfs 2,4(31)
	mtctr 0
	lfs 3,8(31)
	lwz 4,12(31)
	lwz 5,16(31)
	lfs 4,20(31)
	lfs 5,24(31)
	lwz 6,28(31)
	bctrl
	.loc 3 1039 0 is_stmt 1 discriminator 3
	li 3,1
	.loc 6 1865 0 discriminator 3
	b .L126
.L485:
	.loc 6 1859 0
	andi. 11,0,1
	bne- 0,.L1480
	add 9,30,9
.L1481:
	.loc 6 1859 0 is_stmt 0 discriminator 3
	mr 3,9
	lwz 4,0(31)
	lfs 1,4(31)
	mtctr 0
	lfs 2,8(31)
	lwz 5,12(31)
	lwz 6,16(31)
	lfs 3,20(31)
	lfs 4,24(31)
	lwz 7,28(31)
	bctrl
	.loc 3 1039 0 is_stmt 1 discriminator 3
	li 3,1
	.loc 6 1860 0 discriminator 3
	b .L126
.L2007:
	.loc 6 1854 0
	andi. 11,0,1
	bne- 0,.L1478
	add 9,30,9
.L1479:
	.loc 6 1854 0 is_stmt 0 discriminator 3
	mr 3,9
	lfs 1,0(31)
	lwz 4,4(31)
	mtctr 0
	lfs 2,8(31)
	lwz 5,12(31)
	lwz 6,16(31)
	lfs 3,20(31)
	lfs 4,24(31)
	lwz 7,28(31)
	bctrl
	.loc 3 1039 0 is_stmt 1 discriminator 3
	li 3,1
	.loc 6 1855 0 discriminator 3
	b .L126
.L1482:
	.loc 6 1864 0 discriminator 1
	lwzx 11,30,9
	add 9,30,9
	add 0,11,0
	mr 11,0
	lwz 0,-1(11)
	b .L1483
.L1480:
	.loc 6 1859 0 discriminator 1
	lwzx 11,30,9
	add 9,30,9
	add 0,11,0
	mr 11,0
	lwz 0,-1(11)
	b .L1481
.L1478:
	.loc 6 1854 0 discriminator 1
	lwzx 11,30,9
	add 9,30,9
	add 0,11,0
	mr 11,0
	lwz 0,-1(11)
	b .L1479
.L652:
.LBE776:
	.loc 3 970 0
	cmpwi 7,11,8198
	beq- 7,.L165
	cmplwi 7,11,8198
	ble- 7,.L2008
.LBB777:
	.loc 6 246 0
	andi. 11,0,1
	bne- 0,.L842
	add 9,30,9
.L843:
	.loc 6 246 0 is_stmt 0 discriminator 3
	mr 3,9
	lfs 1,0(31)
	lfs 2,4(31)
	mtctr 0
	lfs 3,8(31)
	lwz 4,12(31)
	lwz 5,16(31)
	bctrl
	.loc 3 1039 0 is_stmt 1 discriminator 3
	li 3,1
	.loc 6 247 0 discriminator 3
	b .L126
.L165:
	.loc 6 241 0
	andi. 11,0,1
	bne- 0,.L840
	add 9,30,9
.L841:
	.loc 6 241 0 is_stmt 0 discriminator 3
	mr 3,9
	lwz 4,0(31)
	lfs 1,4(31)
	mtctr 0
	lfs 2,8(31)
	lwz 5,12(31)
	lwz 6,16(31)
	bctrl
	.loc 3 1039 0 is_stmt 1 discriminator 3
	li 3,1
	.loc 6 242 0 discriminator 3
	b .L126
.L2008:
	.loc 6 236 0
	andi. 11,0,1
	bne- 0,.L838
	add 9,30,9
.L839:
	.loc 6 236 0 is_stmt 0 discriminator 3
	mr 3,9
	lfs 1,0(31)
	lwz 4,4(31)
	mtctr 0
	lfs 2,8(31)
	lwz 5,12(31)
	lwz 6,16(31)
	bctrl
	.loc 3 1039 0 is_stmt 1 discriminator 3
	li 3,1
	.loc 6 237 0 discriminator 3
	b .L126
.L842:
	.loc 6 246 0 discriminator 1
	lwzx 11,30,9
	add 9,30,9
	add 0,11,0
	mr 11,0
	lwz 0,-1(11)
	b .L843
.L840:
	.loc 6 241 0 discriminator 1
	lwzx 11,30,9
	add 9,30,9
	add 0,11,0
	mr 11,0
	lwz 0,-1(11)
	b .L841
.L838:
	.loc 6 236 0 discriminator 1
	lwzx 11,30,9
	add 9,30,9
	add 0,11,0
	mr 11,0
	lwz 0,-1(11)
	b .L839
.L676:
.LBE777:
	.loc 3 970 0
	ori 10,10,32774
	cmpw 7,11,10
	beq- 7,.L261
	cmplwi 7,11,32774
	ble- 7,.L2009
.LBB778:
	.loc 6 738 0
	andi. 11,0,1
	bne- 0,.L1034
	add 9,30,9
.L1035:
	.loc 6 738 0 is_stmt 0 discriminator 3
	mr 3,9
	lfs 1,0(31)
	lfs 2,4(31)
	mtctr 0
	lfs 3,8(31)
	lwz 4,12(31)
	lwz 5,16(31)
	lwz 6,20(31)
	lwz 7,24(31)
	bctrl
	.loc 3 1039 0 is_stmt 1 discriminator 3
	li 3,1
	.loc 6 739 0 discriminator 3
	b .L126
.L261:
	.loc 6 733 0
	andi. 11,0,1
	bne- 0,.L1032
	add 9,30,9
.L1033:
	.loc 6 733 0 is_stmt 0 discriminator 3
	mr 3,9
	lwz 4,0(31)
	lfs 1,4(31)
	mtctr 0
	lfs 2,8(31)
	lwz 5,12(31)
	lwz 6,16(31)
	lwz 7,20(31)
	lwz 8,24(31)
	bctrl
	.loc 3 1039 0 is_stmt 1 discriminator 3
	li 3,1
	.loc 6 734 0 discriminator 3
	b .L126
.L2009:
	.loc 6 728 0
	andi. 11,0,1
	bne- 0,.L1030
	add 9,30,9
.L1031:
	.loc 6 728 0 is_stmt 0 discriminator 3
	mr 3,9
	lfs 1,0(31)
	lwz 4,4(31)
	mtctr 0
	lfs 2,8(31)
	lwz 5,12(31)
	lwz 6,16(31)
	lwz 7,20(31)
	lwz 8,24(31)
	bctrl
	.loc 3 1039 0 is_stmt 1 discriminator 3
	li 3,1
	.loc 6 729 0 discriminator 3
	b .L126
.L1034:
	.loc 6 738 0 discriminator 1
	lwzx 11,30,9
	add 9,30,9
	add 0,11,0
	mr 11,0
	lwz 0,-1(11)
	b .L1035
.L1032:
	.loc 6 733 0 discriminator 1
	lwzx 11,30,9
	add 9,30,9
	add 0,11,0
	mr 11,0
	lwz 0,-1(11)
	b .L1033
.L1030:
	.loc 6 728 0 discriminator 1
	lwzx 11,30,9
	add 9,30,9
	add 0,11,0
	mr 11,0
	lwz 0,-1(11)
	b .L1031
.L761:
.LBE778:
	.loc 3 970 0
	ori 10,10,230
	cmpw 7,11,10
	beq- 7,.L613
	cmplw 7,11,10
	ble- 7,.L2010
.LBB779:
	.loc 6 2504 0
	andi. 11,0,1
	bne- 0,.L1738
	add 9,30,9
.L1739:
	.loc 6 2504 0 is_stmt 0 discriminator 3
	mr 3,9
	lfs 1,0(31)
	lfs 2,4(31)
	mtctr 0
	lfs 3,8(31)
	lwz 4,12(31)
	lwz 5,16(31)
	lfs 4,20(31)
	lfs 5,24(31)
	lfs 6,28(31)
	bctrl
	.loc 3 1039 0 is_stmt 1 discriminator 3
	li 3,1
	.loc 6 2505 0 discriminator 3
	b .L126
.L613:
	.loc 6 2499 0
	andi. 11,0,1
	bne- 0,.L1736
	add 9,30,9
.L1737:
	.loc 6 2499 0 is_stmt 0 discriminator 3
	mr 3,9
	lwz 4,0(31)
	lfs 1,4(31)
	mtctr 0
	lfs 2,8(31)
	lwz 5,12(31)
	lwz 6,16(31)
	lfs 3,20(31)
	lfs 4,24(31)
	lfs 5,28(31)
	bctrl
	.loc 3 1039 0 is_stmt 1 discriminator 3
	li 3,1
	.loc 6 2500 0 discriminator 3
	b .L126
.L2010:
	.loc 6 2494 0
	andi. 11,0,1
	bne- 0,.L1734
	add 9,30,9
.L1735:
	.loc 6 2494 0 is_stmt 0 discriminator 3
	mr 3,9
	lfs 1,0(31)
	lwz 4,4(31)
	mtctr 0
	lfs 2,8(31)
	lwz 5,12(31)
	lwz 6,16(31)
	lfs 3,20(31)
	lfs 4,24(31)
	lfs 5,28(31)
	bctrl
	.loc 3 1039 0 is_stmt 1 discriminator 3
	li 3,1
	.loc 6 2495 0 discriminator 3
	b .L126
.L1738:
	.loc 6 2504 0 discriminator 1
	lwzx 11,30,9
	add 9,30,9
	add 0,11,0
	mr 11,0
	lwz 0,-1(11)
	b .L1739
.L1736:
	.loc 6 2499 0 discriminator 1
	lwzx 11,30,9
	add 9,30,9
	add 0,11,0
	mr 11,0
	lwz 0,-1(11)
	b .L1737
.L1734:
	.loc 6 2494 0 discriminator 1
	lwzx 11,30,9
	add 9,30,9
	add 0,11,0
	mr 11,0
	lwz 0,-1(11)
	b .L1735
.L698:
.LBE779:
	.loc 3 970 0
	ori 10,10,32870
	cmpw 7,11,10
	beq- 7,.L357
	cmplwi 7,11,32870
	ble- 7,.L2011
.LBB780:
	.loc 6 1218 0
	andi. 11,0,1
	bne- 0,.L1226
	add 9,30,9
.L1227:
	.loc 6 1218 0 is_stmt 0 discriminator 3
	mr 3,9
	lfs 1,0(31)
	lfs 2,4(31)
	mtctr 0
	lfs 3,8(31)
	lwz 4,12(31)
	lwz 5,16(31)
	lfs 4,20(31)
	lfs 5,24(31)
	bctrl
	.loc 3 1039 0 is_stmt 1 discriminator 3
	li 3,1
	.loc 6 1219 0 discriminator 3
	b .L126
.L357:
	.loc 6 1213 0
	andi. 11,0,1
	bne- 0,.L1224
	add 9,30,9
.L1225:
	.loc 6 1213 0 is_stmt 0 discriminator 3
	mr 3,9
	lwz 4,0(31)
	lfs 1,4(31)
	mtctr 0
	lfs 2,8(31)
	lwz 5,12(31)
	lwz 6,16(31)
	lfs 3,20(31)
	lfs 4,24(31)
	bctrl
	.loc 3 1039 0 is_stmt 1 discriminator 3
	li 3,1
	.loc 6 1214 0 discriminator 3
	b .L126
.L2011:
	.loc 6 1208 0
	andi. 11,0,1
	bne- 0,.L1222
	add 9,30,9
.L1223:
	.loc 6 1208 0 is_stmt 0 discriminator 3
	mr 3,9
	lfs 1,0(31)
	lwz 4,4(31)
	mtctr 0
	lfs 2,8(31)
	lwz 5,12(31)
	lwz 6,16(31)
	lfs 3,20(31)
	lfs 4,24(31)
	bctrl
	.loc 3 1039 0 is_stmt 1 discriminator 3
	li 3,1
	.loc 6 1209 0 discriminator 3
	b .L126
.L1226:
	.loc 6 1218 0 discriminator 1
	lwzx 11,30,9
	add 9,30,9
	add 0,11,0
	mr 11,0
	lwz 0,-1(11)
	b .L1227
.L1224:
	.loc 6 1213 0 discriminator 1
	lwzx 11,30,9
	add 9,30,9
	add 0,11,0
	mr 11,0
	lwz 0,-1(11)
	b .L1225
.L1222:
	.loc 6 1208 0 discriminator 1
	lwzx 11,30,9
	add 9,30,9
	add 0,11,0
	mr 11,0
	lwz 0,-1(11)
	b .L1223
.L655:
.LBE780:
	.loc 3 970 0
	cmpwi 7,11,8214
	beq- 7,.L181
	cmplwi 7,11,8214
	ble- 7,.L2012
.LBB781:
	.loc 6 326 0
	andi. 11,0,1
	bne- 0,.L874
	add 9,30,9
.L875:
	.loc 6 326 0 is_stmt 0 discriminator 3
	mr 3,9
	lfs 1,0(31)
	lfs 2,4(31)
	mtctr 0
	lfs 3,8(31)
	lwz 4,12(31)
	lfs 4,16(31)
	bctrl
	.loc 3 1039 0 is_stmt 1 discriminator 3
	li 3,1
	.loc 6 327 0 discriminator 3
	b .L126
.L181:
	.loc 6 321 0
	andi. 11,0,1
	bne- 0,.L872
	add 9,30,9
.L873:
	.loc 6 321 0 is_stmt 0 discriminator 3
	mr 3,9
	lwz 4,0(31)
	lfs 1,4(31)
	mtctr 0
	lfs 2,8(31)
	lwz 5,12(31)
	lfs 3,16(31)
	bctrl
	.loc 3 1039 0 is_stmt 1 discriminator 3
	li 3,1
	.loc 6 322 0 discriminator 3
	b .L126
.L2012:
	.loc 6 316 0
	andi. 11,0,1
	bne- 0,.L870
	add 9,30,9
.L871:
	.loc 6 316 0 is_stmt 0 discriminator 3
	mr 3,9
	lfs 1,0(31)
	lwz 4,4(31)
	mtctr 0
	lfs 2,8(31)
	lwz 5,12(31)
	lfs 3,16(31)
	bctrl
	.loc 3 1039 0 is_stmt 1 discriminator 3
	li 3,1
	.loc 6 317 0 discriminator 3
	b .L126
.L874:
	.loc 6 326 0 discriminator 1
	lwzx 11,30,9
	add 9,30,9
	add 0,11,0
	mr 11,0
	lwz 0,-1(11)
	b .L875
.L872:
	.loc 6 321 0 discriminator 1
