	.file	"CollisionModel_rotate.cpp"
	.section	".text"
.Ltext0:
	.section	.text._ZN14idFixedWinding5ClearEv,"axG",@progbits,_ZN14idFixedWinding5ClearEv,comdat
	.align 2
	.weak	_ZN14idFixedWinding5ClearEv
	.type	_ZN14idFixedWinding5ClearEv, @function
_ZN14idFixedWinding5ClearEv:
.LFB1502:
	.file 1 "d:/Data/Nintendo/DoomGX/src/cm/../idlib/../idlib/geometry/Winding.h"
	.loc 1 398 0
	.cfi_startproc
.LVL0:
	.loc 1 399 0
	li 0,0
	.loc 1 400 0
	.loc 1 399 0
	stw 0,4(3)
	.loc 1 400 0
	blr
	.cfi_endproc
.LFE1502:
	.size	_ZN14idFixedWinding5ClearEv, .-_ZN14idFixedWinding5ClearEv
	.section	.text._ZN9idWinding5ClearEv,"axG",@progbits,_ZN9idWinding5ClearEv,comdat
	.align 2
	.weak	_ZN9idWinding5ClearEv
	.type	_ZN9idWinding5ClearEv, @function
_ZN9idWinding5ClearEv:
.LFB1473:
	.loc 1 249 0
	.cfi_startproc
.LVL1:
	mflr 0
	stwu 1,-16(1)
.LCFI0:
	.cfi_def_cfa_offset 16
	.cfi_register 65, 0
	stw 31,12(1)
	mr 31,3
	.cfi_offset 31, -4
	stw 0,20(1)
	.loc 1 250 0
	li 0,0
	.cfi_offset 65, 4
	.loc 1 251 0
	lwz 3,8(3)
.LVL2:
	.loc 1 250 0
	stw 0,4(31)
	.loc 1 251 0
	cmpwi 7,3,0
	beq- 7,.L3
	.loc 1 251 0 is_stmt 0 discriminator 1
	bl _ZdaPv
.L3:
	.loc 1 252 0 is_stmt 1
	li 0,0
	stw 0,8(31)
	.loc 1 253 0
	lwz 0,20(1)
	lwz 31,12(1)
.LVL3:
	mtlr 0
	addi 1,1,16
.LCFI1:
	.cfi_def_cfa_offset 0
	.cfi_restore 31
	blr
	.cfi_endproc
.LFE1473:
	.size	_ZN9idWinding5ClearEv, .-_ZN9idWinding5ClearEv
	.section	.text._ZN9idWindingD2Ev,"axG",@progbits,_ZN9idWindingD5Ev,comdat
	.align 2
	.weak	_ZN9idWindingD2Ev
	.type	_ZN9idWindingD2Ev, @function
_ZN9idWindingD2Ev:
.LFB1461:
	.loc 1 183 0
	.cfi_startproc
.LVL4:
	mflr 0
	stwu 1,-16(1)
.LCFI2:
	.cfi_def_cfa_offset 16
	.cfi_register 65, 0
.LBB2430:
	lis 9,_ZTV9idWinding+8@ha
.LBE2430:
	stw 31,12(1)
	mr 31,3
	.cfi_offset 31, -4
	stw 0,20(1)
.LBB2431:
	.loc 1 183 0
	la 0,_ZTV9idWinding+8@l(9)
	.cfi_offset 65, 4
	.loc 1 184 0
	lwz 3,8(3)
.LVL5:
	.loc 1 183 0
	stw 0,0(31)
	.loc 1 184 0
	cmpwi 7,3,0
	beq- 7,.L6
	.loc 1 184 0 is_stmt 0 discriminator 1
	bl _ZdaPv
.L6:
	.loc 1 185 0 is_stmt 1
	li 0,0
	stw 0,8(31)
.LBE2431:
	.loc 1 186 0
	lwz 0,20(1)
	lwz 31,12(1)
.LVL6:
	mtlr 0
	addi 1,1,16
.LCFI3:
	.cfi_def_cfa_offset 0
	.cfi_restore 31
	blr
	.cfi_endproc
.LFE1461:
	.size	_ZN9idWindingD2Ev, .-_ZN9idWindingD2Ev
	.section	.text._ZN14idFixedWindingD2Ev,"axG",@progbits,_ZN14idFixedWindingD5Ev,comdat
	.align 2
	.weak	_ZN14idFixedWindingD2Ev
	.type	_ZN14idFixedWindingD2Ev, @function
_ZN14idFixedWindingD2Ev:
.LFB1498:
	.loc 1 380 0
	.cfi_startproc
.LVL7:
.LBB2437:
	.loc 1 381 0
	li 0,0
.LBB2438:
.LBB2439:
.LBB2440:
	.loc 1 183 0
	lis 9,_ZTV9idWinding+8@ha
.LBE2440:
.LBE2439:
.LBE2438:
	.loc 1 381 0
	stw 0,8(3)
.LVL8:
.LBB2443:
.LBB2442:
.LBB2441:
	.loc 1 183 0
	la 0,_ZTV9idWinding+8@l(9)
	stw 0,0(3)
.LBE2441:
.LBE2442:
.LBE2443:
.LBE2437:
	.loc 1 382 0
	blr
	.cfi_endproc
.LFE1498:
	.size	_ZN14idFixedWindingD2Ev, .-_ZN14idFixedWindingD2Ev
	.section	.text._ZN14idFixedWindingD0Ev,"axG",@progbits,_ZN14idFixedWindingD5Ev,comdat
	.align 2
	.weak	_ZN14idFixedWindingD0Ev
	.type	_ZN14idFixedWindingD0Ev, @function
_ZN14idFixedWindingD0Ev:
.LFB1500:
	.loc 1 380 0
	.cfi_startproc
.LVL9:
	mflr 0
	stwu 1,-8(1)
.LCFI4:
	.cfi_def_cfa_offset 8
	.cfi_register 65, 0
.LBB2450:
.LBB2451:
.LBB2452:
.LBB2453:
.LBB2454:
.LBB2455:
	.loc 1 183 0
	lis 11,_ZTV9idWinding+8@ha
.LBE2455:
.LBE2454:
.LBE2453:
.LBE2452:
.LBE2451:
.LBE2450:
	.loc 1 380 0
	stw 0,12(1)
.LBB2461:
.LBB2460:
.LBB2459:
	.loc 1 381 0
	li 0,0
	.cfi_offset 65, 4
	stw 0,8(3)
.LVL10:
.LBB2458:
.LBB2457:
.LBB2456:
	.loc 1 183 0
	la 0,_ZTV9idWinding+8@l(11)
	stw 0,0(3)
.LBE2456:
.LBE2457:
.LBE2458:
.LBE2459:
.LBE2460:
.LBE2461:
	.loc 1 382 0
	bl _ZdlPv
.LVL11:
	lwz 0,12(1)
	addi 1,1,8
.LCFI5:
	.cfi_def_cfa_offset 0
	mtlr 0
	blr
	.cfi_endproc
.LFE1500:
	.size	_ZN14idFixedWindingD0Ev, .-_ZN14idFixedWindingD0Ev
	.section	.text._ZN9idWindingD0Ev,"axG",@progbits,_ZN9idWindingD5Ev,comdat
	.align 2
	.weak	_ZN9idWindingD0Ev
	.type	_ZN9idWindingD0Ev, @function
_ZN9idWindingD0Ev:
.LFB1463:
	.loc 1 183 0
	.cfi_startproc
.LVL12:
	mflr 0
	stwu 1,-16(1)
.LCFI6:
	.cfi_def_cfa_offset 16
	.cfi_register 65, 0
.LBB2465:
.LBB2466:
.LBB2467:
	lis 9,_ZTV9idWinding+8@ha
.LBE2467:
.LBE2466:
.LBE2465:
	stw 31,12(1)
	mr 31,3
	.cfi_offset 31, -4
.LVL13:
	stw 0,20(1)
.LBB2472:
.LBB2470:
.LBB2468:
	.loc 1 183 0
	la 0,_ZTV9idWinding+8@l(9)
	.cfi_offset 65, 4
	.loc 1 184 0
	lwz 3,8(3)
.LVL14:
	.loc 1 183 0
	stw 0,0(31)
	.loc 1 184 0
	cmpwi 7,3,0
	beq- 7,.L16
	bl _ZdaPv
.L16:
	.loc 1 185 0
	li 0,0
.LBE2468:
.LBE2470:
.LBE2472:
	.loc 1 186 0
	mr 3,31
.LBB2473:
.LBB2471:
.LBB2469:
	.loc 1 185 0
	stw 0,8(31)
.LBE2469:
.LBE2471:
.LBE2473:
	.loc 1 186 0
	bl _ZdlPv
	lwz 0,20(1)
	lwz 31,12(1)
.LVL15:
	mtlr 0
	addi 1,1,16
.LCFI7:
	.cfi_def_cfa_offset 0
	.cfi_restore 31
	blr
	.cfi_endproc
.LFE1463:
	.size	_ZN9idWindingD0Ev, .-_ZN9idWindingD0Ev
	.section	".text"
	.align 2
	.globl _Z14CM_RotatePointR6idVec3RKS_S2_f
	.type	_Z14CM_RotatePointR6idVec3RKS_S2_f, @function
_Z14CM_RotatePointR6idVec3RKS_S2_f:
.LFB2538:
	.file 2 "d:/Data/Nintendo/DoomGX/src/cm/CollisionModel_rotate.cpp"
	.loc 2 63 0
	.cfi_startproc
.LVL16:
.LBB2474:
	.loc 2 75 0
	fmuls 9,1,1
.LVL17:
	.loc 2 76 0
	lis 9,.LC1@ha
	lfs 0,.LC1@l(9)
	.loc 2 77 0
	fadds 1,1,1
.LVL18:
.LBB2475:
.LBB2476:
	.file 3 "d:/Data/Nintendo/DoomGX/src/cm/../idlib/../idlib/math/Vector.h"
	.loc 3 481 0
	lfs 13,0(4)
.LBE2476:
.LBE2475:
.LBE2474:
	.loc 2 81 0
.LBB2505:
	.loc 2 76 0
	fadd 12,9,0
.LBB2484:
.LBB2477:
	.loc 3 481 0
	lfs 8,0(3)
	.loc 3 482 0
	lfs 10,4(3)
.LBE2477:
.LBE2484:
	.loc 2 78 0
	fsub 9,0,9
.LBB2485:
.LBB2478:
	.loc 3 481 0
	fsubs 8,8,13
	.loc 3 483 0
	lfs 7,8(3)
.LBE2478:
.LBE2485:
	.loc 2 76 0
	fdiv 12,0,12
.LBB2486:
.LBB2479:
	.loc 3 481 0
	stfs 8,0(3)
	.loc 3 482 0
	lfs 13,4(4)
	fsubs 10,10,13
.LBE2479:
.LBE2486:
	.loc 2 78 0
	fmul 9,9,12
.LBB2487:
.LBB2480:
	.loc 3 482 0
	stfs 10,4(3)
.LBE2480:
.LBE2487:
	.loc 2 77 0
	fmul 1,1,12
.LBB2488:
.LBB2481:
	.loc 3 483 0
	lfs 13,8(4)
.LBE2481:
.LBE2488:
	.loc 2 80 0
	frsp 9,9
.LBB2489:
.LBB2482:
	.loc 3 483 0
	fsubs 7,7,13
.LBE2482:
.LBE2489:
	.loc 2 80 0
	frsp 1,1
.LBB2490:
.LBB2483:
	.loc 3 483 0
	stfs 7,8(3)
.LVL19:
.LBE2483:
.LBE2490:
.LBB2491:
.LBB2492:
	.loc 3 435 0
	lfs 13,4(5)
	lfs 12,0(5)
	fmuls 0,10,13
	lfs 11,8(5)
	.loc 2 63 0
	fneg 3,12
.LBE2492:
.LBE2491:
.LBB2494:
.LBB2495:
	.loc 3 452 0
	lfs 5,4(4)
.LBE2495:
.LBE2494:
.LBB2497:
.LBB2493:
	.loc 2 63 0
	fneg 6,11
	.loc 3 435 0
	fmadds 0,8,12,0
	.loc 2 63 0
	fneg 4,13
	.loc 3 435 0
	fmadds 0,7,11,0
.LVL20:
	.loc 3 431 0
	fmadds 8,3,0,8
	fmadds 10,4,0,10
	fmadds 7,6,0,7
.LVL21:
.LBE2493:
.LBE2497:
.LBB2498:
.LBB2499:
	.loc 3 620 0
	fmuls 4,13,8
	fmuls 6,11,10
	fmuls 3,12,7
.LBE2499:
.LBE2498:
.LBB2500:
.LBB2501:
	fmsubs 4,12,10,4
	fmsubs 6,13,7,6
	fmsubs 3,11,8,3
	.loc 3 439 0
	fmuls 4,1,4
	fmuls 6,1,6
	fmuls 1,1,3
.LVL22:
.LBE2501:
.LBE2500:
.LBB2502:
.LBB2496:
	.loc 3 431 0
	fmsubs 7,9,7,4
.LVL23:
	fmsubs 8,9,8,6
.LVL24:
	.loc 3 452 0
	lfs 6,0(4)
.LVL25:
	.loc 3 431 0
	fmsubs 10,9,10,1
.LVL26:
	.loc 3 452 0
	fmadds 11,11,0,7
.LVL27:
	fmadds 12,12,0,8
.LVL28:
	lfs 8,8(4)
.LVL29:
	fmadds 0,13,0,10
.LVL30:
	fadds 11,11,8
.LVL31:
	fadds 12,12,6
	fadds 0,0,5
.LVL32:
.LBE2496:
.LBE2502:
.LBB2503:
.LBB2504:
	.loc 3 426 0
	stfs 11,8(3)
	.loc 3 424 0
	stfs 12,0(3)
	.loc 3 425 0
	stfs 0,4(3)
.LBE2504:
.LBE2503:
.LBE2505:
	.loc 2 81 0
	blr
	.cfi_endproc
.LFE2538:
	.size	_Z14CM_RotatePointR6idVec3RKS_S2_f, .-_Z14CM_RotatePointR6idVec3RKS_S2_f
	.align 2
	.globl _Z13CM_RotateEdgeR6idVec3S0_RKS_S2_f
	.type	_Z13CM_RotateEdgeR6idVec3S0_RKS_S2_f, @function
_Z13CM_RotateEdgeR6idVec3S0_RKS_S2_f:
.LFB2539:
	.loc 2 90 0
	.cfi_startproc
.LVL33:
.LBB2506:
	.loc 2 97 0
	fmuls 13,1,1
.LVL34:
	.loc 2 98 0
	lis 9,.LC1@ha
	lfs 0,.LC1@l(9)
	.loc 2 99 0
	fadds 1,1,1
.LVL35:
.LBB2507:
.LBB2508:
	.loc 3 481 0
	lfs 12,0(5)
.LBE2508:
.LBE2507:
	.loc 2 98 0
	fadd 11,13,0
.LBB2516:
.LBB2509:
	.loc 3 481 0
	lfs 7,0(3)
	.loc 3 482 0
	lfs 8,4(3)
.LBE2509:
.LBE2516:
	.loc 2 100 0
	fsub 13,0,13
.LVL36:
.LBB2517:
.LBB2510:
	.loc 3 481 0
	fsubs 7,7,12
	.loc 3 483 0
	lfs 6,8(3)
.LBE2510:
.LBE2517:
	.loc 2 98 0
	fdiv 11,0,11
.LVL37:
.LBB2518:
.LBB2511:
	.loc 3 481 0
	stfs 7,0(3)
	.loc 3 482 0
	lfs 12,4(5)
	fsubs 8,8,12
.LBE2511:
.LBE2518:
	.loc 2 99 0
	fmr 12,1
	.loc 2 100 0
	fmul 13,13,11
.LBB2519:
.LBB2512:
	.loc 3 482 0
	stfs 8,4(3)
.LBE2512:
.LBE2519:
	.loc 2 99 0
	fmul 12,12,11
.LBB2520:
.LBB2513:
	.loc 3 483 0
	lfs 10,8(5)
.LBE2513:
.LBE2520:
	.loc 2 106 0
	frsp 13,13
.LBB2521:
.LBB2514:
	.loc 3 483 0
	fsubs 6,6,10
.LBE2514:
.LBE2521:
	.loc 2 106 0
	frsp 12,12
.LBB2522:
.LBB2515:
	.loc 3 483 0
	stfs 6,8(3)
.LVL38:
.LBE2515:
.LBE2522:
.LBB2523:
.LBB2524:
	.loc 3 435 0
	lfs 11,4(6)
.LVL39:
	lfs 10,0(6)
	fmuls 0,8,11
	lfs 9,8(6)
	.loc 2 90 0
	fneg 2,10
.LBE2524:
.LBE2523:
.LBB2526:
.LBB2527:
	.loc 3 452 0
	lfs 4,4(5)
.LBE2527:
.LBE2526:
.LBB2529:
.LBB2525:
	.loc 2 90 0
	fneg 3,11
	.loc 3 435 0
	fmadds 0,7,10,0
	.loc 2 90 0
	fneg 5,9
	.loc 3 435 0
	fmadds 0,6,9,0
.LVL40:
	.loc 3 431 0
	fmadds 7,2,0,7
	fmadds 8,3,0,8
	fmadds 6,5,0,6
.LVL41:
.LBE2525:
.LBE2529:
.LBB2530:
.LBB2531:
	.loc 3 620 0
	fmuls 2,11,7
	fmuls 3,9,8
	fmuls 5,10,6
.LBE2531:
.LBE2530:
.LBB2532:
.LBB2533:
	fmsubs 2,10,8,2
	fmsubs 3,11,6,3
	fmsubs 5,9,7,5
	.loc 3 439 0
	fmuls 2,12,2
	fmuls 3,12,3
	fmuls 5,12,5
.LBE2533:
.LBE2532:
.LBB2534:
.LBB2528:
	.loc 3 431 0
	fmsubs 6,13,6,2
.LVL42:
	fmsubs 7,13,7,3
.LVL43:
	fmsubs 8,13,8,5
.LVL44:
	.loc 3 452 0
	lfs 5,0(5)
.LVL45:
	fmadds 9,9,0,6
.LVL46:
	fmadds 10,10,0,7
.LVL47:
	lfs 7,8(5)
.LVL48:
	fmadds 0,11,0,8
.LVL49:
	fadds 9,9,7
.LVL50:
	fadds 10,10,5
	fadds 0,0,4
.LVL51:
.LBE2528:
.LBE2534:
.LBB2535:
.LBB2536:
	.loc 3 426 0
	stfs 9,8(3)
.LVL52:
	.loc 3 424 0
	stfs 10,0(3)
	.loc 3 425 0
	stfs 0,4(3)
.LBE2536:
.LBE2535:
.LBB2537:
.LBB2538:
	.loc 3 481 0
	lfs 0,0(5)
.LVL53:
	lfs 7,0(4)
	.loc 3 482 0
	lfs 8,4(4)
.LVL54:
	.loc 3 481 0
	fsubs 7,7,0
	.loc 3 483 0
	lfs 6,8(4)
.LVL55:
	.loc 3 481 0
	stfs 7,0(4)
	.loc 3 482 0
	lfs 0,4(5)
	fsubs 8,8,0
	stfs 8,4(4)
	.loc 3 483 0
	lfs 0,8(5)
	fsubs 6,6,0
	stfs 6,8(4)
.LVL56:
.LBE2538:
.LBE2537:
.LBB2539:
.LBB2540:
	.loc 3 435 0
	lfs 11,4(6)
	lfs 10,0(6)
	fmuls 0,8,11
	lfs 9,8(6)
.LVL57:
	.loc 2 90 0
	fneg 1,10
.LBE2540:
.LBE2539:
.LBB2543:
.LBB2544:
	.loc 3 452 0
	lfs 4,4(5)
.LBE2544:
.LBE2543:
.LBB2547:
.LBB2541:
	.loc 2 90 0
	fneg 5,9
.LBE2541:
.LBE2547:
.LBB2548:
.LBB2545:
	.loc 3 452 0
	lfs 3,8(5)
.LVL58:
.LBE2545:
.LBE2548:
.LBB2549:
.LBB2542:
	.loc 3 435 0
	fmadds 0,7,10,0
	.loc 2 90 0
	fneg 2,11
.LVL59:
	.loc 3 435 0
	fmadds 0,6,9,0
.LVL60:
	.loc 3 431 0
	fmadds 7,1,0,7
	fmadds 8,2,0,8
	fmadds 6,5,0,6
.LVL61:
.LBE2542:
.LBE2549:
.LBB2550:
.LBB2551:
	.loc 3 620 0
	fmuls 2,11,7
	fmuls 5,9,8
	fmuls 1,10,6
.LBE2551:
.LBE2550:
.LBB2552:
.LBB2553:
	fmsubs 2,10,8,2
	fmsubs 5,11,6,5
	fmsubs 1,9,7,1
	.loc 3 439 0
	fmuls 2,12,2
	fmuls 5,12,5
	fmuls 12,12,1
.LVL62:
.LBE2553:
.LBE2552:
.LBB2554:
.LBB2546:
	.loc 3 431 0
	fmsubs 6,13,6,2
.LVL63:
	fmsubs 7,13,7,5
.LVL64:
	.loc 3 452 0
	lfs 5,0(5)
.LVL65:
	.loc 3 431 0
	fmsubs 13,13,8,12
.LVL66:
	.loc 3 452 0
	fmadds 9,9,0,6
.LVL67:
	fmadds 10,10,0,7
.LVL68:
	fmadds 0,11,0,13
.LVL69:
	fadds 9,9,3
.LVL70:
	fadds 10,10,5
	fadds 0,0,4
.LVL71:
.LBE2546:
.LBE2554:
.LBB2555:
.LBB2556:
	.loc 3 424 0
	stfs 10,0(4)
.LBE2556:
.LBE2555:
.LBE2506:
	.loc 2 113 0
.LBB2559:
.LBB2558:
.LBB2557:
	.loc 3 425 0
	stfs 0,4(4)
	.loc 3 426 0
	stfs 9,8(4)
.LBE2557:
.LBE2558:
.LBE2559:
	.loc 2 113 0
	blr
	.cfi_endproc
.LFE2539:
	.size	_Z13CM_RotateEdgeR6idVec3S0_RKS_S2_f, .-_Z13CM_RotateEdgeR6idVec3S0_RKS_S2_f
	.align 2
	.globl _ZN28idCollisionModelManagerLocal26CollisionBetweenEdgeBoundsEP14cm_traceWork_sRK6idVec3S4_S4_S4_fRS2_S5_
	.type	_ZN28idCollisionModelManagerLocal26CollisionBetweenEdgeBoundsEP14cm_traceWork_sRK6idVec3S4_S4_S4_fRS2_S5_, @function
_ZN28idCollisionModelManagerLocal26CollisionBetweenEdgeBoundsEP14cm_traceWork_sRK6idVec3S4_S4_S4_fRS2_S5_:
.LFB2540:
	.loc 2 125 0
	.cfi_startproc
.LVL72:
	mflr 0
.LBB2821:
	.loc 2 132 0
	lis 11,.LC2@ha
.LBE2821:
	.loc 2 125 0
	stwu 1,-160(1)
.LCFI8:
	.cfi_def_cfa_offset 160
	.cfi_register 65, 0
.LVL73:
.LBB3014:
	.loc 2 132 0
	lfs 0,.LC2@l(11)
.LBE3014:
	.loc 2 125 0
	stw 31,60(1)
	mr 31,4
	.cfi_offset 31, -100
	stw 0,164(1)
.LBB3015:
	.loc 2 132 0
	fcmpu 7,1,0
.LVL74:
.LBE3015:
	.loc 2 125 0
	stfd 20,64(1)
	stfd 21,72(1)
	stfd 22,80(1)
	stfd 23,88(1)
	stfd 24,96(1)
	stfd 25,104(1)
	stfd 26,112(1)
	stfd 27,120(1)
	stfd 28,128(1)
	stfd 29,136(1)
	stfd 30,144(1)
	stfd 31,152(1)
.LBB3016:
.LBB2822:
.LBB2823:
	.loc 3 424 0
	lfs 13,0(5)
	.loc 3 425 0
	lfs 12,4(5)
	.loc 3 426 0
	lfs 0,8(5)
.LBE2823:
.LBE2822:
.LBB2825:
.LBB2826:
	.loc 3 424 0
	lfs 10,0(6)
	.loc 3 425 0
	lfs 9,4(6)
	.loc 3 426 0
	lfs 11,8(6)
.LBE2826:
.LBE2825:
.LBB2828:
.LBB2824:
	.loc 3 424 0
	stfs 13,20(1)
	.loc 3 425 0
	stfs 12,24(1)
	.loc 3 426 0
	stfs 0,28(1)
.LVL75:
.LBE2824:
.LBE2828:
.LBB2829:
.LBB2827:
	.loc 3 424 0
	stfs 10,8(1)
	.loc 3 425 0
	stfs 9,12(1)
	.loc 3 426 0
	stfs 11,16(1)
.LBE2827:
.LBE2829:
	.loc 2 132 0
	bne- 7,.L47
	.cfi_offset 63, -8
	.cfi_offset 62, -16
	.cfi_offset 61, -24
	.cfi_offset 60, -32
	.cfi_offset 59, -40
	.cfi_offset 58, -48
	.cfi_offset 57, -56
	.cfi_offset 56, -64
	.cfi_offset 55, -72
	.cfi_offset 54, -80
	.cfi_offset 53, -88
	.cfi_offset 52, -96
	.cfi_offset 65, 4
.LVL76:
.L22:
.LBB2830:
.LBB2831:
	.loc 3 431 0
	lfs 31,9060(31)
.LBE2831:
.LBE2830:
.LBB2836:
.LBB2837:
	.loc 3 620 0
	lfs 6,9080(31)
.LBE2837:
.LBE2836:
.LBB2845:
.LBB2832:
	.loc 3 431 0
	fsubs 30,13,31
	lfs 8,9068(31)
.LBE2832:
.LBE2845:
.LBB2846:
.LBB2847:
	fsubs 31,10,31
.LBE2847:
.LBE2846:
.LBB2853:
.LBB2838:
	.loc 3 620 0
	lfs 5,9076(31)
.LBE2838:
.LBE2853:
.LBB2854:
.LBB2833:
	.loc 3 431 0
	fsubs 2,0,8
.LVL77:
.LBE2833:
.LBE2854:
.LBB2855:
.LBB2839:
	.loc 3 620 0
	lfs 4,9072(31)
	fmuls 29,30,6
.LBE2839:
.LBE2855:
.LBB2856:
.LBB2834:
	.loc 3 431 0
	lfs 7,9064(31)
.LBE2834:
.LBE2856:
.LBB2857:
.LBB2848:
	fsubs 8,11,8
.LBE2848:
.LBE2857:
.LBB2858:
.LBB2859:
	.loc 3 620 0
	fmuls 28,6,31
.LBE2859:
.LBE2858:
.LBB2862:
.LBB2840:
	fmuls 3,2,5
.LBE2840:
.LBE2862:
.LBB2863:
.LBB2835:
	.loc 3 431 0
	fsubs 1,12,7
.LVL78:
.LBE2835:
.LBE2863:
.LBB2864:
.LBB2841:
	.loc 3 620 0
	fmsubs 2,2,4,29
.LVL79:
.LBE2841:
.LBE2864:
.LBB2865:
.LBB2849:
	.loc 3 431 0
	fsubs 7,9,7
.LBE2849:
.LBE2865:
.LBB2866:
.LBB2860:
	.loc 3 620 0
	fmuls 29,5,8
.LBE2860:
.LBE2866:
.LBB2867:
.LBB2850:
	fmsubs 8,4,8,28
.LBE2850:
.LBE2867:
.LBB2868:
.LBB2842:
	fmsubs 3,1,6,3
.LBE2842:
.LBE2868:
.LBB2869:
.LBB2851:
	fmsubs 6,6,7,29
.LBE2851:
.LBE2869:
.LBB2870:
.LBB2843:
	fmuls 1,1,4
.LVL80:
.LBE2843:
.LBE2870:
.LBB2871:
.LBB2861:
	fmuls 7,4,7
.LBE2861:
.LBE2871:
.LBB2872:
.LBB2873:
	.loc 3 435 0
	fmuls 29,8,8
.LBE2873:
.LBE2872:
.LBB2874:
.LBB2875:
	fmuls 4,2,2
.LBE2875:
.LBE2874:
.LBB2876:
.LBB2844:
	.loc 3 620 0
	fmsubs 1,30,5,1
.LVL81:
.LBE2844:
.LBE2876:
.LBB2877:
.LBB2852:
	fmsubs 7,5,31,7
.LVL82:
.LBE2852:
.LBE2877:
	.loc 3 435 0
	fmadds 4,3,3,4
	fmadds 5,6,6,29
	fmadds 4,1,1,4
	fmadds 5,7,7,5
	.loc 2 138 0
	fcmpu 7,4,5
	bng- 7,.L23
	.loc 3 426 0
	fmr 7,1
.LVL83:
	.loc 3 425 0
	fmr 8,2
.LVL84:
	.loc 3 424 0
	fmr 6,3
.LVL85:
.L23:
	.loc 2 144 0
	lis 11,.LC2@ha
	lfs 4,9120(31)
	lfs 5,.LC2@l(11)
	fcmpu 7,4,5
	bnl- 7,.L25
.LVL86:
.LBB2878:
.LBB2879:
	.loc 3 420 0
	fneg 6,6
.LVL87:
	fneg 8,8
.LVL88:
	fneg 7,7
.LVL89:
.L25:
.LBE2879:
.LBE2878:
.LBB2880:
.LBB2881:
	.file 4 "d:/Data/Nintendo/DoomGX/src/cm/../idlib/../idlib/math/Pluecker.h"
	.loc 4 251 0
	fmuls 26,0,10
.LBE2881:
.LBE2880:
.LBB2887:
.LBB2888:
.LBB2889:
.LBB2890:
	.loc 3 402 0
	lfs 5,8(7)
.LBE2890:
.LBE2889:
.LBE2888:
.LBE2887:
.LBB2904:
.LBB2882:
	.loc 4 250 0
	fmuls 27,12,10
.LBE2882:
.LBE2904:
.LBB2905:
.LBB2895:
.LBB2891:
.LBB2892:
	.loc 3 402 0
	lfs 3,4(7)
.LVL90:
.LBE2892:
.LBE2891:
	.loc 4 263 0
	fneg 23,7
.LBB2893:
.LBB2894:
	.loc 3 402 0
	lfs 4,0(7)
.LBE2894:
.LBE2893:
.LBE2895:
.LBE2905:
.LBB2906:
.LBB2907:
	.loc 4 251 0
	fmsubs 26,13,11,26
.LBE2907:
.LBE2906:
.LBB2909:
.LBB2910:
.LBB2911:
.LBB2912:
	.loc 3 402 0
	lfs 2,8(8)
.LVL91:
.LBE2912:
.LBE2911:
.LBE2910:
.LBE2909:
.LBB2932:
.LBB2896:
	.loc 4 250 0
	fmsubs 27,13,9,27
.LBE2896:
.LBE2932:
.LBB2933:
.LBB2925:
.LBB2917:
.LBB2918:
	.loc 3 402 0
	lfs 31,4(8)
.LVL92:
.LBE2918:
.LBE2917:
.LBE2925:
.LBE2933:
.LBB2934:
.LBB2897:
	.loc 4 262 0
	fmuls 1,8,5
.LVL93:
.LBE2897:
.LBE2934:
	.loc 2 153 0
	lis 11,.LC2@ha
.LBB2935:
.LBB2908:
	.loc 4 317 0
	fmuls 26,8,26
.LBE2908:
.LBE2935:
.LBB2936:
.LBB2883:
	.loc 4 252 0
	fsubs 25,13,10
.LVL94:
.LBE2883:
.LBE2936:
.LBB2937:
.LBB2898:
	.loc 4 262 0
	fmsubs 1,7,3,1
	.loc 4 317 0
	fmadds 26,27,23,26
	.loc 4 259 0
	fmuls 20,6,3
.LBE2898:
.LBE2937:
.LBB2938:
.LBB2884:
	.loc 4 254 0
	fsubs 27,0,11
.LBE2884:
.LBE2938:
.LBB2939:
.LBB2899:
	.loc 4 317 0
	fmadds 1,25,1,26
	.loc 4 259 0
	fmsubs 20,8,4,20
	.loc 4 260 0
	fmuls 24,6,5
.LBE2899:
.LBE2939:
.LBB2940:
.LBB2926:
	.loc 4 262 0
	fmuls 21,8,2
.LBE2926:
.LBE2940:
.LBB2941:
.LBB2900:
	.loc 4 317 0
	fmadds 20,27,20,1
.LBE2900:
.LBE2941:
.LBB2942:
.LBB2927:
.LBB2919:
.LBB2920:
	.loc 3 402 0
	lfs 1,0(8)
.LBE2920:
.LBE2919:
.LBE2927:
.LBE2942:
.LBB2943:
.LBB2885:
	.loc 4 255 0
	fsubs 29,9,12
	.loc 4 253 0
	fmuls 28,0,9
.LBE2885:
.LBE2943:
.LBB2944:
.LBB2901:
	.loc 4 260 0
	fmsubs 24,7,4,24
.LBE2901:
.LBE2944:
.LBB2945:
.LBB2928:
	.loc 4 259 0
	fmuls 22,6,31
.LBB2921:
.LBB2913:
	.loc 4 262 0
	fmsubs 21,7,31,21
.LBE2913:
.LBE2921:
.LBE2928:
.LBE2945:
.LBB2946:
.LBB2886:
	.loc 4 253 0
	fmsubs 28,12,11,28
.LVL95:
.LBE2886:
.LBE2946:
.LBB2947:
.LBB2902:
	.loc 4 261 0
	fneg 30,6
.LVL96:
	.loc 4 317 0
	fmadds 24,29,24,20
.LBE2902:
.LBE2947:
.LBB2948:
.LBB2929:
.LBB2922:
.LBB2914:
	fmadds 26,25,21,26
	.loc 4 259 0
	fmsubs 25,8,1,22
.LBE2914:
.LBE2922:
	.loc 4 260 0
	fmuls 22,6,2
.LBE2929:
.LBE2948:
.LBB2949:
.LBB2903:
	.loc 4 317 0
	fmadds 24,28,30,24
.LVL97:
.LBE2903:
.LBE2949:
.LBB2950:
.LBB2930:
.LBB2923:
.LBB2915:
	fmadds 27,27,25,26
	.loc 4 260 0
	fmsubs 26,7,1,22
.LBE2915:
.LBE2923:
.LBE2930:
.LBE2950:
	.loc 2 153 0
	lfs 22,.LC2@l(11)
	fcmpu 7,24,22
.LBB2951:
.LBB2931:
.LBB2924:
.LBB2916:
	.loc 4 317 0
	fmadds 27,29,26,27
	fmadds 28,28,30,27
.LBE2916:
.LBE2924:
.LBE2931:
.LBE2951:
	.loc 2 153 0
	bng- 7,.L27
	.loc 2 153 0 is_stmt 0 discriminator 1
	fcmpu 7,28,22
	.loc 2 154 0 is_stmt 1 discriminator 1
	li 3,0
	.loc 2 153 0 discriminator 1
	bgt- 7,.L29
.L27:
	.loc 2 153 0 is_stmt 0 discriminator 2
	lis 11,.LC2@ha
	lfs 22,.LC2@l(11)
	fcmpu 7,24,22
	bnl- 7,.L30
	.loc 2 153 0 discriminator 3
	fcmpu 7,28,22
	.loc 2 154 0 is_stmt 1 discriminator 3
	li 3,0
	.loc 2 153 0 discriminator 3
	blt- 7,.L29
.L30:
.LVL98:
.LBB2952:
.LBB2953:
	.loc 4 251 0
	fmuls 28,5,1
.LBE2953:
.LBE2952:
	.loc 2 162 0
	lis 11,.LC2@ha
.LBB2963:
.LBB2954:
	.loc 4 250 0
	fmuls 27,3,1
.LBE2954:
.LBE2963:
.LBB2964:
.LBB2965:
	.loc 4 262 0
	fmuls 24,8,0
.LBE2965:
.LBE2964:
.LBB2968:
.LBB2969:
	.loc 4 251 0
	fmsubs 28,4,2,28
.LBE2969:
.LBE2968:
.LBB2971:
.LBB2955:
	.loc 4 250 0
	fmsubs 27,4,31,27
	.loc 4 252 0
	fsubs 26,4,1
.LVL99:
.LBE2955:
.LBE2971:
.LBB2972:
.LBB2970:
	.loc 4 317 0
	fmuls 28,8,28
.LBE2970:
.LBE2972:
.LBB2973:
.LBB2956:
	.loc 4 262 0
	fmsubs 24,7,12,24
.LBE2956:
.LBE2973:
.LBB2974:
.LBB2966:
	.loc 4 259 0
	fmuls 21,6,12
.LBE2966:
.LBE2974:
.LBB2975:
.LBB2957:
	.loc 4 317 0
	fmadds 23,23,27,28
.LBE2957:
.LBE2975:
.LBB2976:
.LBB2967:
	.loc 4 260 0
	fmuls 25,6,0
.LBE2967:
.LBE2976:
.LBB2977:
.LBB2958:
	.loc 4 254 0
	fsubs 27,5,2
	.loc 4 317 0
	fmadds 24,26,24,23
	.loc 4 259 0
	fmsubs 21,8,13,21
.LBE2958:
.LBE2977:
.LBB2978:
.LBB2979:
	.loc 4 262 0
	fmuls 22,8,11
.LBE2979:
.LBE2978:
.LBB2982:
.LBB2959:
	.loc 4 255 0
	fsubs 28,31,3
	.loc 4 317 0
	fmadds 21,27,21,24
	.loc 4 253 0
	fmuls 31,5,31
	.loc 4 260 0
	fmsubs 25,7,13,25
.LBE2959:
.LBE2982:
.LBB2983:
.LBB2980:
	.loc 4 259 0
	fmuls 24,6,9
.LBE2980:
.LBE2983:
.LBB2984:
.LBB2960:
	.loc 4 262 0
	fmsubs 22,7,9,22
	.loc 4 253 0
	fmsubs 31,3,2,31
.LVL100:
	.loc 4 317 0
	fmadds 25,28,25,21
	fmadds 23,26,22,23
	.loc 4 259 0
	fmsubs 26,8,10,24
.LBE2960:
.LBE2984:
.LBB2985:
.LBB2981:
	.loc 4 260 0
	fmuls 24,6,11
.LBE2981:
.LBE2985:
.LBB2986:
.LBB2961:
	.loc 4 317 0
	fmadds 25,30,31,25
.LVL101:
	fmadds 27,27,26,23
	.loc 4 260 0
	fmsubs 26,7,10,24
.LBE2961:
.LBE2986:
	.loc 2 162 0
	lfs 24,.LC2@l(11)
	fcmpu 7,25,24
.LBB2987:
.LBB2962:
	.loc 4 317 0
	fmadds 27,28,26,27
	fmadds 31,30,31,27
.LBE2962:
.LBE2987:
	.loc 2 162 0
	bgt- 7,.L48
.L32:
	.loc 2 162 0 is_stmt 0 discriminator 2
	lis 11,.LC2@ha
	lfs 24,.LC2@l(11)
	fcmpu 7,25,24
	bnl- 7,.L34
	.loc 2 162 0 discriminator 3
	fcmpu 7,31,24
	.loc 2 163 0 is_stmt 1 discriminator 3
	li 3,0
	.loc 2 162 0 discriminator 3
	blt- 7,.L29
.L34:
.LVL102:
.LBB2988:
.LBB2989:
	.loc 3 431 0
	fsubs 1,1,4
.LBE2989:
.LBE2988:
	.loc 2 172 0
	li 3,0
.LBB2994:
.LBB2990:
	.loc 3 431 0
	fsubs 2,2,5
.LVL103:
.LBE2990:
.LBE2994:
.LBB2995:
.LBB2996:
	.loc 3 620 0
	fmuls 27,6,28
	fmuls 30,1,7
	fmuls 31,2,8
.LBE2996:
.LBE2995:
.LBB2997:
.LBB2991:
	fmsubs 8,1,8,27
.LVL104:
	fmsubs 6,2,6,30
.LVL105:
	fmsubs 7,7,28,31
.LVL106:
.LBE2991:
.LBE2997:
.LBB2998:
.LBB2999:
	.loc 3 435 0
	fmuls 3,6,3
.LBE2999:
.LBE2998:
.LBB3000:
.LBB3001:
	fmuls 2,6,12
.LVL107:
.LBE3001:
.LBE3000:
.LBB3002:
.LBB3003:
	fmuls 6,6,9
.LVL108:
.LBE3003:
.LBE3002:
.LBB3004:
.LBB2992:
	fmadds 4,7,4,3
.LBE2992:
.LBE3004:
	fmadds 2,7,13,2
	fmadds 7,7,10,6
.LVL109:
.LBB3005:
.LBB2993:
	fmadds 5,8,5,4
.LVL110:
.LBE2993:
.LBE3005:
	fmadds 2,8,0,2
	fmadds 8,8,11,7
.LVL111:
	.loc 2 169 0
	fsubs 2,2,5
.LVL112:
	.loc 2 170 0
	fsubs 5,8,5
.LVL113:
	.loc 2 171 0
	fcmpu 7,2,5
	beq- 7,.L29
	.loc 2 174 0
	fsubs 5,2,5
.LVL114:
	.loc 2 179 0
	li 3,1
.LBB3006:
.LBB3007:
	.loc 3 431 0
	fsubs 11,11,0
	fsubs 10,10,13
.LBE3007:
.LBE3006:
	.loc 2 174 0
	fdivs 2,2,5
.LVL115:
.LBB3008:
.LBB3009:
	.loc 3 452 0
	fmadds 13,2,10,13
.LVL116:
	fmadds 12,2,29,12
.LVL117:
	fmadds 2,2,11,0
.LVL118:
	.loc 3 424 0
	stfs 13,0(9)
	.loc 3 425 0
	stfs 12,4(9)
	.loc 3 426 0
	stfs 2,8(9)
.LVL119:
.LBE3009:
.LBE3008:
.LBB3010:
.LBB3011:
	.loc 3 431 0
	lfs 7,0(8)
	lfs 8,4(8)
	lfs 9,8(8)
	lfs 0,0(7)
	lfs 12,4(7)
.LVL120:
	lfs 13,8(7)
.LVL121:
	fsubs 0,7,0
	fsubs 12,8,12
	fsubs 13,9,13
.LVL122:
.LBE3011:
.LBE3010:
.LBB3012:
.LBB3013:
	.loc 3 626 0
	fmuls 7,0,29
	.loc 3 624 0
	fmuls 8,11,12
	.loc 3 625 0
	fmuls 9,10,13
	.loc 3 626 0
	fmsubs 10,10,12,7
.LVL123:
	.loc 3 624 0
	fmsubs 29,13,29,8
.LVL124:
	.loc 3 625 0
	fmsubs 11,11,0,9
.LVL125:
	.loc 3 626 0
	stfs 10,8(10)
	.loc 3 624 0
	stfs 29,0(10)
	.loc 3 625 0
	stfs 11,4(10)
.LVL126:
.L29:
.LBE3013:
.LBE3012:
.LBE3016:
	.loc 2 180 0
	lwz 0,164(1)
	lwz 31,60(1)
.LVL127:
	mtlr 0
	lfd 20,64(1)
	lfd 21,72(1)
	lfd 22,80(1)
	lfd 23,88(1)
	lfd 24,96(1)
	lfd 25,104(1)
	lfd 26,112(1)
	lfd 27,120(1)
	lfd 28,128(1)
	lfd 29,136(1)
	lfd 30,144(1)
	lfd 31,152(1)
	addi 1,1,160
	.cfi_remember_state
.LCFI9:
	.cfi_def_cfa_offset 0
	.cfi_restore 63
	.cfi_restore 62
	.cfi_restore 61
	.cfi_restore 60
	.cfi_restore 59
	.cfi_restore 58
	.cfi_restore 57
	.cfi_restore 56
	.cfi_restore 55
	.cfi_restore 54
	.cfi_restore 53
	.cfi_restore 52
	.cfi_restore 31
	blr
.LVL128:
.L48:
.LCFI10:
	.cfi_restore_state
.LBB3017:
	.loc 2 162 0 discriminator 1
	fcmpu 7,31,24
	.loc 2 163 0 discriminator 1
	li 3,0
	.loc 2 162 0 discriminator 1
	bng+ 7,.L32
	b .L29
.LVL129:
.L47:
	.loc 2 133 0
	addi 3,1,20
.LVL130:
	addi 4,1,8
	addi 5,31,9060
.LVL131:
	addi 6,31,9072
.LVL132:
	stw 7,40(1)
	stw 8,44(1)
	stw 9,48(1)
	stw 10,52(1)
	bl _Z13CM_RotateEdgeR6idVec3S0_RKS_S2_f
.LVL133:
	lfs 13,20(1)
	lfs 12,24(1)
	lfs 0,28(1)
	lfs 10,8(1)
	lfs 9,12(1)
	lfs 11,16(1)
	lwz 10,52(1)
	lwz 9,48(1)
	lwz 8,44(1)
	lwz 7,40(1)
	b .L22
.LBE3017:
	.cfi_endproc
.LFE2540:
	.size	_ZN28idCollisionModelManagerLocal26CollisionBetweenEdgeBoundsEP14cm_traceWork_sRK6idVec3S4_S4_S4_fRS2_S5_, .-_ZN28idCollisionModelManagerLocal26CollisionBetweenEdgeBoundsEP14cm_traceWork_sRK6idVec3S4_S4_S4_fRS2_S5_
	.align 2
	.globl _ZN28idCollisionModelManagerLocal21RotateEdgeThroughEdgeEP14cm_traceWork_sRK10idPlueckerRK6idVec3S7_fRf
	.type	_ZN28idCollisionModelManagerLocal21RotateEdgeThroughEdgeEP14cm_traceWork_sRK10idPlueckerRK6idVec3S7_fRf, @function
_ZN28idCollisionModelManagerLocal21RotateEdgeThroughEdgeEP14cm_traceWork_sRK10idPlueckerRK6idVec3S7_fRf:
.LFB2541:
	.loc 2 191 0
	.cfi_startproc
.LVL134:
	mflr 0
	stwu 1,-56(1)
.LCFI11:
	.cfi_def_cfa_offset 56
	.cfi_register 65, 0
.LBB3101:
	.loc 2 307 0
	lis 9,.LC5@ha
.LBE3101:
	.loc 2 191 0
	stfd 27,16(1)
	fmr 27,1
	.cfi_offset 59, -40
	stfd 28,24(1)
	stfd 29,32(1)
	stw 0,60(1)
	stfd 30,40(1)
	stfd 31,48(1)
.LBB3212:
	.loc 2 292 0
	lwz 0,9124(4)
	.cfi_offset 63, -8
	.cfi_offset 62, -16
	.cfi_offset 65, 4
	.cfi_offset 61, -24
	.cfi_offset 60, -32
	stw 0,0(8)
.LVL135:
.LBB3102:
.LBB3103:
	.loc 3 431 0
	lfs 0,9064(4)
	lfs 3,4(6)
.LBE3103:
.LBE3102:
.LBB3110:
.LBB3111:
	lfs 4,4(7)
.LBE3111:
.LBE3110:
.LBB3124:
.LBB3104:
	fsubs 3,3,0
.LBE3104:
.LBE3124:
.LBB3125:
.LBB3126:
.LBB3127:
	.file 5 "d:/Data/Nintendo/DoomGX/src/cm/../idlib/../idlib/math/Matrix.h"
	.loc 5 454 0
	lfs 10,9096(4)
.LBE3127:
.LBE3126:
.LBE3125:
.LBB3156:
.LBB3112:
	.loc 3 431 0
	fsubs 4,4,0
.LBE3112:
.LBE3156:
.LBB3157:
.LBB3142:
.LBB3128:
	.loc 5 454 0
	lfs 12,9104(4)
.LBE3128:
.LBE3142:
.LBE3157:
.LBB3158:
.LBB3105:
	.loc 3 431 0
	lfs 0,9060(4)
	lfs 5,0(6)
.LBE3105:
.LBE3158:
.LBB3159:
.LBB3143:
.LBB3129:
	.loc 5 454 0
	fmuls 13,3,10
.LBE3129:
.LBE3143:
.LBE3159:
.LBB3160:
.LBB3113:
	.loc 3 431 0
	lfs 6,0(7)
.LBE3113:
.LBE3160:
.LBB3161:
.LBB3144:
.LBB3130:
	.loc 5 454 0
	fmuls 9,3,12
.LBE3130:
.LBE3144:
.LBE3161:
.LBB3162:
.LBB3106:
	.loc 3 431 0
	fsubs 5,5,0
.LBE3106:
.LBE3162:
.LBB3163:
.LBB3145:
.LBB3131:
	.loc 5 454 0
	lfs 2,9084(4)
.LBE3131:
.LBE3145:
.LBE3163:
.LBB3164:
.LBB3114:
	.loc 3 431 0
	fsubs 6,6,0
.LBE3114:
.LBE3164:
.LBB3165:
.LBB3146:
.LBB3132:
	.loc 5 454 0
	lfs 30,9092(4)
.LBE3132:
.LBE3146:
.LBE3165:
.LBB3166:
.LBB3167:
.LBB3168:
	fmuls 10,4,10
.LBE3168:
.LBE3167:
.LBE3166:
.LBB3173:
.LBB3107:
	.loc 3 431 0
	lfs 8,9068(4)
.LBE3107:
.LBE3173:
.LBB3174:
.LBB3115:
	lfs 0,8(7)
.LBE3115:
.LBE3174:
.LBB3175:
.LBB3147:
.LBB3133:
	.loc 5 454 0
	fmadds 13,5,2,13
.LBE3133:
.LBE3147:
.LBE3175:
.LBB3176:
.LBB3108:
	.loc 3 431 0
	lfs 7,8(6)
.LBE3108:
.LBE3176:
.LBB3177:
.LBB3148:
.LBB3134:
	.loc 5 454 0
	fmadds 9,5,30,9
.LBE3134:
.LBE3148:
.LBE3177:
.LBB3178:
.LBB3116:
	fmadds 10,6,2,10
.LBE3116:
.LBE3178:
.LBB3179:
.LBB3149:
.LBB3135:
	lfs 11,9108(4)
.LBE3135:
.LBE3149:
.LBE3179:
.LBB3180:
.LBB3109:
	.loc 3 431 0
	fsubs 7,7,8
.LVL136:
.LBE3109:
.LBE3180:
.LBB3181:
.LBB3150:
.LBB3136:
	.loc 5 454 0
	lfs 2,9100(4)
.LBE3136:
.LBE3150:
.LBE3181:
.LBB3182:
.LBB3117:
	.loc 3 431 0
	fsubs 8,0,8
.LBE3117:
.LBE3182:
.LBB3183:
.LBB3151:
.LBB3137:
	.loc 5 454 0
	lfs 31,9116(4)
.LBE3137:
.LBE3151:
.LBE3183:
.LBB3184:
.LBB3171:
.LBB3169:
	fmuls 12,4,12
.LBE3169:
.LBE3171:
.LBE3184:
.LBB3185:
.LBB3152:
.LBB3138:
	fmadds 13,7,11,13
	fmadds 9,7,31,9
.LVL137:
.LBE3138:
.LBE3152:
.LBE3185:
.LBB3186:
.LBB3118:
	fmadds 10,8,11,10
.LBE3118:
.LBE3186:
.LBB3187:
.LBB3172:
.LBB3170:
	fmuls 0,4,2
.LBE3170:
.LBE3172:
.LBE3187:
.LBB3188:
.LBB3189:
	.loc 4 120 0
	lfs 4,4(5)
.LBE3189:
.LBE3188:
.LBB3190:
.LBB3153:
.LBB3139:
	.loc 5 454 0
	fmuls 11,3,2
	lfs 2,9088(4)
.LBE3139:
.LBE3153:
.LBE3190:
.LBB3191:
.LBB3119:
	fmadds 12,6,30,12
.LBE3119:
.LBE3191:
	.loc 2 300 0
	lfs 3,0(5)
.LVL138:
.LBB3192:
.LBB3193:
	.loc 4 252 0
	fsubs 30,13,10
	.loc 4 251 0
	fmuls 29,9,10
.LBE3193:
.LBE3192:
.LBB3197:
.LBB3120:
	.loc 5 454 0
	fmadds 12,8,31,12
.LBE3120:
.LBE3197:
.LBB3198:
.LBB3154:
.LBB3140:
	lfs 31,9112(4)
	fmadds 11,5,2,11
.LBE3140:
.LBE3154:
.LBE3198:
.LBB3199:
.LBB3121:
	fmadds 0,6,2,0
.LBE3121:
.LBE3199:
.LBB3200:
.LBB3201:
	.loc 4 120 0
	lfs 2,12(5)
.LBE3201:
.LBE3200:
.LBB3202:
.LBB3122:
	.loc 4 251 0
	fmsubs 5,13,12,29
.LVL139:
.LBE3122:
.LBE3202:
.LBB3203:
.LBB3204:
	.loc 4 120 0
	lfs 6,20(5)
.LBE3204:
.LBE3203:
.LBB3205:
.LBB3155:
.LBB3141:
	.loc 5 454 0
	fmadds 11,7,31,11
.LVL140:
.LBE3141:
.LBE3155:
.LBE3205:
.LBB3206:
.LBB3123:
	fmadds 0,8,31,0
.LVL141:
.LBE3123:
.LBE3206:
	.loc 2 302 0
	fmuls 8,2,30
.LVL142:
.LBB3207:
.LBB3194:
	.loc 4 250 0
	fmuls 10,11,10
.LVL143:
	.loc 4 255 0
	fsubs 7,0,11
.LVL144:
	.loc 4 253 0
	fmuls 31,9,0
.LBE3194:
.LBE3207:
	.loc 2 302 0
	fmadds 8,6,5,8
.LBB3208:
.LBB3195:
	.loc 4 254 0
	fsubs 9,9,12
.LVL145:
.LBE3195:
.LBE3208:
	.loc 4 250 0
	fmsubs 0,13,0,10
.LVL146:
	.loc 2 300 0
	lfs 13,16(5)
.LBB3209:
.LBB3196:
	.loc 4 253 0
	fmsubs 12,11,12,31
.LVL147:
.LBE3196:
.LBE3209:
.LBB3210:
.LBB3211:
	.loc 4 120 0
	lfs 11,8(5)
.LBE3211:
.LBE3210:
	.loc 2 302 0
	fmadds 8,4,7,8
	.loc 2 300 0
	fmuls 9,9,3
	.loc 2 301 0
	fmuls 30,4,30
	.loc 2 302 0
	fmadds 8,11,12,8
	.loc 2 300 0
	fmadds 0,13,0,9
.LVL148:
	.loc 2 301 0
	fmsubs 5,11,5,30
	.loc 2 307 0
	lfd 30,.LC5@l(9)
	.loc 2 189 0
	fneg 6,6
	.loc 2 304 0
	fsub 29,0,8
	.loc 2 301 0
	fmadds 7,2,7,5
	.loc 2 306 0
	fadd 28,0,8
	.loc 2 307 0
	fcmpu 7,29,30
	.loc 2 301 0
	fmadds 12,6,12,7
	fmr 31,12
.LVL149:
	.loc 2 307 0
	bne- 7,.L50
.LVL150:
	.loc 2 308 0
	fcmpu 7,31,30
	.loc 2 309 0
	li 3,0
.LVL151:
	.loc 2 308 0
	beq- 7,.L51
	.loc 2 311 0
	fneg 29,28
.LVL152:
	.loc 2 312 0
	lis 9,.LC4@ha
	.loc 2 311 0
	fadd 31,31,31
.LVL153:
	.loc 2 312 0
	lfs 13,.LC4@l(9)
	.loc 2 311 0
	fdiv 29,29,31
.LVL154:
.L52:
	.loc 2 330 0
	lis 9,.LC2@ha
	lfs 12,9120(4)
	lfs 0,.LC2@l(9)
	fcmpu 7,12,0
	bnl- 7,.L56
	.loc 2 331 0
	fneg 29,29
.LVL155:
	.loc 2 332 0
	fneg 13,13
.LVL156:
.L56:
	.loc 2 336 0
	fcmpu 7,27,29
	cror 30,28,30
	bne- 7,.L58
	.loc 2 336 0 is_stmt 0 discriminator 1
	lfs 0,0(8)
	fcmpu 7,0,29
	bgt- 7,.L77
.LVL157:
.L58:
	.loc 2 339 0 is_stmt 1
	fcmpu 7,13,27
	cror 30,29,30
	bne- 7,.L61
	.loc 2 339 0 is_stmt 0 discriminator 1
	lfs 0,0(8)
	fcmpu 7,0,13
	bgt- 7,.L78
.LVL158:
.L61:
	.loc 2 343 0 is_stmt 1
	lis 9,.LC2@ha
	lfs 13,9120(4)
	lfs 0,.LC2@l(9)
	.loc 2 347 0
	li 3,1
	.loc 2 343 0
	fcmpu 7,13,0
	bnl- 7,.L51
	.loc 2 344 0
	lfs 0,0(8)
	.loc 2 347 0
	li 3,1
	.loc 2 344 0
	fneg 0,0
	stfs 0,0(8)
.L51:
.LBE3212:
	.loc 2 348 0
	lwz 0,60(1)
	lfd 27,16(1)
.LVL159:
	mtlr 0
	lfd 28,24(1)
.LVL160:
	lfd 29,32(1)
	lfd 30,40(1)
	lfd 31,48(1)
	addi 1,1,56
	.cfi_remember_state
.LCFI12:
	.cfi_def_cfa_offset 0
	.cfi_restore 63
	.cfi_restore 62
	.cfi_restore 61
	.cfi_restore 60
	.cfi_restore 59
	blr
.LVL161:
.L50:
.LCFI13:
	.cfi_restore_state
.LBB3213:
	.loc 2 315 0
	fmul 1,28,29
.LVL162:
	.loc 2 317 0
	li 3,0
.LVL163:
	.loc 2 315 0
	fmsub 1,31,31,1
.LVL164:
	.loc 2 316 0
	fcmpu 7,1,30
	cror 30,28,30
	beq+ 7,.L51
	.loc 2 319 0
	stw 4,8(1)
	stw 8,12(1)
	bl sqrt
.LVL165:
	.loc 2 320 0
	fcmpu 7,31,30
	lwz 4,8(1)
	lwz 8,12(1)
	bng- 7,.L75
	.loc 2 321 0
	fsub 13,1,31
.LVL166:
.L55:
	.loc 2 326 0
	fdiv 29,13,29
.LVL167:
	.loc 2 327 0
	fdiv 13,28,13
.LVL168:
	b .L52
.LVL169:
.L77:
	.loc 2 337 0
	frsp 29,29
.LVL170:
	stfs 29,0(8)
	b .L58
.L78:
	.loc 2 340 0
	frsp 13,13
.LVL171:
	stfs 13,0(8)
	b .L61
.LVL172:
.L75:
	.loc 2 324 0
	fneg 13,31
	fsub 13,13,1
.LVL173:
	b .L55
.LBE3213:
	.cfi_endproc
.LFE2541:
	.size	_ZN28idCollisionModelManagerLocal21RotateEdgeThroughEdgeEP14cm_traceWork_sRK10idPlueckerRK6idVec3S7_fRf, .-_ZN28idCollisionModelManagerLocal21RotateEdgeThroughEdgeEP14cm_traceWork_sRK10idPlueckerRK6idVec3S7_fRf
	.align 2
	.globl _ZN28idCollisionModelManagerLocal20EdgeFurthestFromEdgeEP14cm_traceWork_sRK10idPlueckerRK6idVec3S7_RfS8_
	.type	_ZN28idCollisionModelManagerLocal20EdgeFurthestFromEdgeEP14cm_traceWork_sRK10idPlueckerRK6idVec3S7_RfS8_, @function
_ZN28idCollisionModelManagerLocal20EdgeFurthestFromEdgeEP14cm_traceWork_sRK10idPlueckerRK6idVec3S7_RfS8_:
.LFB2542:
	.loc 2 361 0
	.cfi_startproc
.LVL174:
	mflr 0
.LBB3297:
	.loc 2 389 0
	lis 11,.LC2@ha
.LBE3297:
	.loc 2 361 0
	stwu 1,-64(1)
.LCFI14:
	.cfi_def_cfa_offset 64
	.cfi_register 65, 0
.LBB3416:
	.loc 2 389 0
	lfs 1,.LC2@l(11)
.LBE3416:
	.loc 2 361 0
	stfd 27,24(1)
	stfd 29,40(1)
	stw 31,20(1)
.LBB3417:
	.loc 2 404 0
	lis 31,.LC5@ha
	.cfi_offset 31, -44
	.cfi_offset 61, -24
	.cfi_offset 59, -40
.LBE3417:
	.loc 2 361 0
	stw 0,68(1)
	stfd 28,32(1)
	stfd 30,48(1)
	stfd 31,56(1)
.LBB3418:
	.loc 2 389 0
	stfs 1,0(8)
.LVL175:
.LBB3298:
.LBB3299:
	.loc 3 431 0
	lfs 0,9064(4)
	lfs 3,4(6)
.LBE3299:
.LBE3298:
.LBB3306:
.LBB3307:
	lfs 4,4(7)
.LBE3307:
.LBE3306:
.LBB3319:
.LBB3300:
	fsubs 3,3,0
.LBE3300:
.LBE3319:
.LBB3320:
.LBB3321:
.LBB3322:
	.loc 5 454 0
	lfs 10,9096(4)
.LBE3322:
.LBE3321:
.LBE3320:
.LBB3351:
.LBB3308:
	.loc 3 431 0
	fsubs 4,4,0
.LBE3308:
.LBE3351:
.LBB3352:
.LBB3337:
.LBB3323:
	.loc 5 454 0
	lfs 12,9104(4)
.LBE3323:
.LBE3337:
.LBE3352:
.LBB3353:
.LBB3301:
	.loc 3 431 0
	lfs 0,9060(4)
	lfs 5,0(6)
.LBE3301:
.LBE3353:
.LBB3354:
.LBB3338:
.LBB3324:
	.loc 5 454 0
	fmuls 13,3,10
.LBE3324:
.LBE3338:
.LBE3354:
.LBB3355:
.LBB3309:
	.loc 3 431 0
	lfs 6,0(7)
.LBE3309:
.LBE3355:
.LBB3356:
.LBB3339:
.LBB3325:
	.loc 5 454 0
	fmuls 9,3,12
.LBE3325:
.LBE3339:
.LBE3356:
.LBB3357:
.LBB3302:
	.loc 3 431 0
	fsubs 5,5,0
.LBE3302:
.LBE3357:
.LBB3358:
.LBB3340:
.LBB3326:
	.loc 5 454 0
	lfs 2,9084(4)
.LBE3326:
.LBE3340:
.LBE3358:
.LBB3359:
.LBB3310:
	.loc 3 431 0
	fsubs 6,6,0
.LBE3310:
.LBE3359:
.LBB3360:
.LBB3341:
.LBB3327:
	.loc 5 454 0
	lfs 30,9092(4)
	.cfi_offset 63, -8
	.cfi_offset 62, -16
	.cfi_offset 60, -32
	.cfi_offset 65, 4
.LBE3327:
.LBE3341:
.LBE3360:
.LBB3361:
.LBB3362:
.LBB3363:
	fmuls 10,4,10
.LBE3363:
.LBE3362:
.LBE3361:
.LBB3368:
.LBB3303:
	.loc 3 431 0
	lfs 8,9068(4)
.LBE3303:
.LBE3368:
.LBB3369:
.LBB3311:
	lfs 0,8(7)
.LBE3311:
.LBE3369:
.LBB3370:
.LBB3342:
.LBB3328:
	.loc 5 454 0
	fmadds 13,5,2,13
.LBE3328:
.LBE3342:
.LBE3370:
.LBB3371:
.LBB3304:
	.loc 3 431 0
	lfs 7,8(6)
.LBE3304:
.LBE3371:
.LBB3372:
.LBB3343:
.LBB3329:
	.loc 5 454 0
	fmadds 9,5,30,9
.LBE3329:
.LBE3343:
.LBE3372:
.LBB3373:
.LBB3312:
	fmadds 10,6,2,10
.LBE3312:
.LBE3373:
.LBB3374:
.LBB3344:
.LBB3330:
	lfs 11,9108(4)
.LBE3330:
.LBE3344:
.LBE3374:
.LBB3375:
.LBB3305:
	.loc 3 431 0
	fsubs 7,7,8
.LVL176:
.LBE3305:
.LBE3375:
.LBB3376:
.LBB3345:
.LBB3331:
	.loc 5 454 0
	lfs 2,9100(4)
.LBE3331:
.LBE3345:
.LBE3376:
.LBB3377:
.LBB3313:
	.loc 3 431 0
	fsubs 8,0,8
.LBE3313:
.LBE3377:
.LBB3378:
.LBB3346:
.LBB3332:
	.loc 5 454 0
	lfs 31,9116(4)
.LBE3332:
.LBE3346:
.LBE3378:
.LBB3379:
.LBB3366:
.LBB3364:
	fmuls 12,4,12
.LBE3364:
.LBE3366:
.LBE3379:
.LBB3380:
.LBB3347:
.LBB3333:
	fmadds 13,7,11,13
	fmadds 9,7,31,9
.LVL177:
.LBE3333:
.LBE3347:
.LBE3380:
.LBB3381:
.LBB3314:
	fmadds 10,8,11,10
.LBE3314:
.LBE3381:
.LBB3382:
.LBB3367:
.LBB3365:
	fmuls 0,4,2
.LBE3365:
.LBE3367:
.LBE3382:
	.loc 2 397 0
	lfs 4,0(5)
.LBB3383:
.LBB3315:
	.loc 5 454 0
	fmadds 12,6,30,12
.LBE3315:
.LBE3383:
.LBB3384:
.LBB3348:
.LBB3334:
	fmuls 11,3,2
	lfs 2,9088(4)
.LBE3334:
.LBE3348:
.LBE3384:
.LBB3385:
.LBB3386:
	.loc 4 252 0
	fsubs 30,13,10
.LBE3386:
.LBE3385:
.LBB3391:
.LBB3316:
	.loc 5 454 0
	fmadds 12,8,31,12
.LBE3316:
.LBE3391:
.LBB3392:
.LBB3349:
.LBB3335:
	lfs 31,9112(4)
	fmadds 11,5,2,11
.LBE3335:
.LBE3349:
.LBE3392:
.LBB3393:
.LBB3317:
	fmadds 0,6,2,0
.LBE3317:
.LBE3393:
.LBB3394:
.LBB3395:
	.loc 4 120 0
	lfs 2,12(5)
.LBE3395:
.LBE3394:
.LBB3396:
.LBB3387:
	.loc 4 251 0
	fmuls 29,9,10
.LBE3387:
.LBE3396:
.LBB3397:
.LBB3398:
	.loc 4 120 0
	lfs 6,4(5)
.LBE3398:
.LBE3397:
.LBB3399:
.LBB3350:
.LBB3336:
	.loc 5 454 0
	fmadds 11,7,31,11
.LVL178:
.LBE3336:
.LBE3350:
.LBE3399:
.LBB3400:
.LBB3401:
	.loc 4 120 0
	lfs 7,20(5)
.LVL179:
.LBE3401:
.LBE3400:
.LBB3406:
.LBB3318:
	.loc 5 454 0
	fmadds 0,8,31,0
.LVL180:
	.loc 4 251 0
	fmsubs 5,13,12,29
.LVL181:
.LBE3318:
.LBE3406:
	.loc 2 399 0
	fmuls 31,2,30
.LBB3407:
.LBB3388:
	.loc 4 253 0
	fmuls 27,9,0
	.loc 4 255 0
	fsubs 8,0,11
.LVL182:
.LBE3388:
.LBE3407:
	.loc 2 399 0
	fmadds 31,7,5,31
.LBB3408:
.LBB3389:
	.loc 4 254 0
	fsubs 9,9,12
.LVL183:
	.loc 4 250 0
	fmuls 10,11,10
.LVL184:
.LBE3389:
.LBE3408:
	.loc 2 399 0
	fmadds 31,6,8,31
.LBB3409:
.LBB3390:
	.loc 4 253 0
	fmsubs 12,11,12,27
.LVL185:
.LBE3390:
.LBE3409:
	.loc 2 398 0
	fmuls 30,6,30
.LBB3410:
.LBB3411:
	.loc 4 120 0
	lfs 6,8(5)
.LVL186:
.LBE3411:
.LBE3410:
	.loc 4 250 0
	fmsubs 0,13,0,10
.LVL187:
	.loc 2 397 0
	lfs 13,16(5)
	fmuls 9,9,4
.LBB3412:
.LBB3402:
	.loc 2 398 0
	fmsubs 5,6,5,30
.LBE3402:
.LBE3412:
	.loc 2 399 0
	fmadds 6,6,12,31
	.loc 2 397 0
	fmadds 0,13,0,9
	.loc 2 403 0
	lfs 13,9120(4)
.LBB3413:
.LBB3403:
	.loc 2 359 0
	fneg 7,7
.LBE3403:
.LBE3413:
	.loc 2 403 0
	fcmpu 7,13,1
	.loc 2 404 0
	lfd 13,.LC5@l(31)
.LBB3414:
.LBB3404:
	.loc 2 398 0
	fmadds 8,2,8,5
.LBE3404:
.LBE3414:
	.loc 2 399 0
	fmr 31,6
.LBB3415:
.LBB3405:
	.loc 2 398 0
	fmadds 27,7,12,8
.LVL188:
.LBE3405:
.LBE3415:
	.loc 2 402 0
	fadd 0,0,31
.LVL189:
	.loc 2 403 0
	bng- 7,.L114
.LVL190:
	.loc 2 404 0
	fcmpu 7,0,13
	bgt- 7,.L116
.LVL191:
.L120:
	.loc 2 413 0
	fneg 0,27
.LVL192:
	stfs 0,0(9)
.L84:
	.loc 2 420 0
	lis 9,.LC2@ha
.LVL193:
	.loc 2 421 0
	li 3,1
.LVL194:
	.loc 2 420 0
	lfs 13,.LC2@l(9)
	fcmpu 7,0,13
	cror 30,28,30
	beq- 7,.L87
	.loc 2 424 0
	fneg 28,27
.LVL195:
	.loc 2 427 0
	lfd 29,.LC5@l(31)
	.loc 2 425 0
	fneg 30,31
.LVL196:
	.loc 2 427 0
	fcmpu 7,28,29
	bne- 7,.L88
	.loc 2 428 0
	fcmpu 7,30,29
	.loc 2 429 0
	li 3,0
	.loc 2 428 0
	beq- 7,.L87
	.loc 2 431 0
	fadd 30,30,30
.LVL197:
	.loc 2 432 0
	lis 9,.LC4@ha
	lfs 27,.LC4@l(9)
.LVL198:
	.loc 2 431 0
	fdiv 28,28,30
.LVL199:
.L89:
	.loc 2 450 0
	lis 11,.LC2@ha
	lfs 13,9120(4)
	lfs 0,.LC2@l(11)
	fcmpu 7,13,0
	bnl- 7,.L93
	.loc 2 451 0
	fneg 28,28
.LVL200:
	.loc 2 452 0
	fneg 27,27
.LVL201:
.L93:
	.loc 2 455 0
	lfd 0,.LC5@l(31)
	fcmpu 7,28,0
	bnl- 7,.L95
	.loc 2 455 0 is_stmt 0 discriminator 1
	fcmpu 7,27,0
	.loc 2 456 0 is_stmt 1 discriminator 1
	li 3,0
	.loc 2 455 0 discriminator 1
	blt- 7,.L87
.L95:
	.loc 2 459 0
	fcmpu 7,28,27
	bng- 7,.L118
	.loc 2 460 0
	frsp 28,28
.LVL202:
	stfs 28,0(8)
.LVL203:
.L99:
	.loc 2 466 0
	lis 9,.LC2@ha
	lfs 13,9120(4)
	lfs 0,.LC2@l(9)
	.loc 2 470 0
	li 3,1
	.loc 2 466 0
	fcmpu 7,13,0
	bnl- 7,.L87
	.loc 2 467 0
	lfs 0,0(8)
	.loc 2 470 0
	li 3,1
	.loc 2 467 0
	fneg 0,0
	stfs 0,0(8)
.L87:
.LBE3418:
	.loc 2 471 0
	lwz 0,68(1)
	lwz 31,20(1)
	mtlr 0
	lfd 27,24(1)
	lfd 28,32(1)
	lfd 29,40(1)
	lfd 30,48(1)
	lfd 31,56(1)
	addi 1,1,64
	.cfi_remember_state
.LCFI15:
	.cfi_def_cfa_offset 0
	.cfi_restore 63
	.cfi_restore 62
	.cfi_restore 61
	.cfi_restore 60
	.cfi_restore 59
	.cfi_restore 31
	blr
.LVL204:
.L114:
.LCFI16:
	.cfi_restore_state
.LBB3419:
	.loc 2 412 0
	fcmpu 7,0,13
	bgt- 7,.L120
.L116:
	.loc 2 416 0
	stfs 27,0(9)
	fmr 0,27
.LVL205:
	b .L84
.LVL206:
.L88:
	.loc 2 435 0
	fmul 1,27,28
	.loc 2 437 0
	li 3,0
	.loc 2 435 0
	fmsub 1,30,30,1
.LVL207:
	.loc 2 436 0
	fcmpu 7,1,29
	cror 30,28,30
	beq+ 7,.L87
	.loc 2 439 0
	stw 4,8(1)
	stw 8,12(1)
	bl sqrt
.LVL208:
	.loc 2 440 0
	fcmpu 7,30,29
	lwz 4,8(1)
	lwz 8,12(1)
	bng- 7,.L117
	.loc 2 441 0
	fadd 31,31,1
.LVL209:
.L92:
	.loc 2 446 0
	fdiv 28,31,28
.LVL210:
	.loc 2 447 0
	fdiv 27,27,31
.LVL211:
	b .L89
.LVL212:
.L118:
	.loc 2 463 0
	frsp 27,27
.LVL213:
	stfs 27,0(8)
	b .L99
.LVL214:
.L117:
	.loc 2 444 0
	fsub 31,31,1
.LVL215:
	b .L92
.LBE3419:
	.cfi_endproc
.LFE2542:
	.size	_ZN28idCollisionModelManagerLocal20EdgeFurthestFromEdgeEP14cm_traceWork_sRK10idPlueckerRK6idVec3S7_RfS8_, .-_ZN28idCollisionModelManagerLocal20EdgeFurthestFromEdgeEP14cm_traceWork_sRK10idPlueckerRK6idVec3S7_RfS8_
	.align 2
	.globl _ZN28idCollisionModelManagerLocal27RotateTrmEdgeThroughPolygonEP14cm_traceWork_sP12cm_polygon_sP12cm_trmEdge_s
	.type	_ZN28idCollisionModelManagerLocal27RotateTrmEdgeThroughPolygonEP14cm_traceWork_sP12cm_polygon_sP12cm_trmEdge_s, @function
_ZN28idCollisionModelManagerLocal27RotateTrmEdgeThroughPolygonEP14cm_traceWork_sP12cm_polygon_sP12cm_trmEdge_s:
.LFB2543:
	.loc 2 478 0
	.cfi_startproc
.LVL216:
	mflr 0
	stwu 1,-272(1)
.LCFI17:
	.cfi_def_cfa_offset 272
	.cfi_register 65, 0
	stw 24,176(1)
	mr 24,3
	.cfi_offset 24, -96
	stw 26,184(1)
	mr 26,5
	.cfi_offset 26, -88
	stw 30,200(1)
	mr 30,4
	.cfi_offset 30, -72
	stw 31,204(1)
	mr 31,6
	.cfi_offset 31, -68
	stw 0,276(1)
	stfd 24,208(1)
	stfd 25,216(1)
	stfd 26,224(1)
	stfd 27,232(1)
	stfd 28,240(1)
	stfd 29,248(1)
	stfd 30,256(1)
	stfd 31,264(1)
	stw 14,136(1)
	stw 15,140(1)
	stw 16,144(1)
	stw 17,148(1)
	stw 18,152(1)
	stw 19,156(1)
	stw 20,160(1)
	stw 21,164(1)
	stw 22,168(1)
	stw 23,172(1)
	stw 25,180(1)
	stw 27,188(1)
	stw 28,192(1)
	stw 29,196(1)
.LBB3620:
	.loc 2 488 0
	lbz 0,9055(4)
	.cfi_offset 29, -76
	.cfi_offset 28, -80
	.cfi_offset 27, -84
	.cfi_offset 25, -92
	.cfi_offset 23, -100
	.cfi_offset 22, -104
	.cfi_offset 21, -108
	.cfi_offset 20, -112
	.cfi_offset 19, -116
	.cfi_offset 18, -120
	.cfi_offset 17, -124
	.cfi_offset 16, -128
	.cfi_offset 15, -132
	.cfi_offset 14, -136
	.cfi_offset 63, -8
	.cfi_offset 62, -16
	.cfi_offset 61, -24
	.cfi_offset 60, -32
	.cfi_offset 59, -40
	.cfi_offset 58, -48
	.cfi_offset 57, -56
	.cfi_offset 56, -64
	.cfi_offset 65, 4
	cmpwi 7,0,0
	beq- 7,.L122
	.loc 2 488 0 is_stmt 0 discriminator 1
	lbz 0,9056(4)
	cmpwi 7,0,0
	beq- 7,.L122
	.loc 2 490 0 is_stmt 1
	lwz 9,32(6)
	lwz 11,28(6)
	mulli 9,9,92
	mulli 11,11,92
	add 9,4,9
	add 11,4,11
	lwz 9,32(9)
	lwz 0,32(11)
	and. 10,9,0
	bne- 0,.L121
.L122:
.LVL217:
.LBB3621:
.LBB3622:
	.file 6 "d:/Data/Nintendo/DoomGX/src/cm/../idlib/../idlib/bv/Bounds.h"
	.loc 6 362 0
	lfs 13,12(26)
	lfs 0,72(31)
	fcmpu 7,13,0
	blt- 7,.L121
.LVL218:
	lfs 13,16(26)
	lfs 0,76(31)
	fcmpu 7,13,0
	blt- 7,.L121
.LVL219:
	lfs 13,20(26)
	lfs 0,80(31)
	fcmpu 7,13,0
	blt- 7,.L121
.LVL220:
	lfs 13,0(26)
	lfs 0,84(31)
	fcmpu 7,13,0
	bgt- 7,.L121
.LVL221:
	lfs 13,4(26)
	lfs 0,88(31)
	fcmpu 7,13,0
	bgt- 7,.L121
.LVL222:
	lfs 13,8(26)
	lfs 0,92(31)
	fcmpu 7,13,0
	bgt- 7,.L121
.LBE3622:
.LBE3621:
	.loc 2 501 0
	lis 9,.LC11@ha
	addi 3,31,72
.LVL223:
	lfs 1,.LC11@l(9)
	addi 4,26,36
.LVL224:
	bl _ZNK8idBounds9PlaneSideERK7idPlanef
.LVL225:
	cmpwi 7,3,3
	bne+ 7,.L121
	.loc 2 505 0
	lwz 4,8840(30)
	mr 3,24
	bl _ZN28idCollisionModelManagerLocal17ensureModelLoadedEP10cm_model_s
.LVL226:
	.loc 2 508 0
	lwz 0,52(26)
	cmpwi 7,0,0
	ble- 7,.L121
	.loc 2 611 0
	addi 11,30,2952
	lis 9,0xbdef
	subf 11,11,31
	ori 9,9,31711
	srawi 11,11,2
	mr 28,26
	mullw 9,11,9
	.loc 2 552 0
	lis 11,.LC2@ha
	lfs 31,.LC2@l(11)
	.loc 2 508 0
	li 29,0
.LBB3623:
.LBB3624:
	.loc 3 439 0
	lis 21,.LC12@ha
.LBE3624:
.LBE3623:
	.loc 2 587 0
	addi 16,31,4
	.loc 2 611 0
	stw 9,120(1)
	.loc 2 587 0
	addi 15,31,16
	.loc 2 593 0
	lis 14,.LC7@ha
	.loc 3 452 0
	lis 20,.LC6@ha
.LVL227:
.L141:
	.loc 2 509 0
	lwz 27,56(28)
.LVL228:
	.loc 2 510 0
	lwz 7,8840(30)
	srawi 9,27,31
	.loc 2 513 0
	lwz 10,44(24)
	.loc 2 510 0
	xor 11,9,27
	subf 11,9,11
	lwz 9,84(7)
	mulli 11,11,36
	.loc 2 513 0
	lwzx 8,9,11
	.loc 2 510 0
	add 11,9,11
.LVL229:
	.loc 2 513 0
	cmpw 7,8,10
	beq- 7,.L125
	.loc 2 518 0
	lhz 9,4(11)
	cmpwi 7,9,0
	bne- 7,.L125
	.loc 2 523 0
	nor 9,27,27
	.loc 2 522 0
	srwi 10,27,31
	.loc 2 523 0
	srwi 9,9,31
	.loc 2 522 0
	addi 10,10,4
	.loc 2 523 0
	addi 9,9,4
	.loc 2 522 0
	slwi 10,10,2
	.loc 2 523 0
	slwi 9,9,2
	.loc 2 522 0
	lwzx 22,11,10
	.loc 2 523 0
	lwzx 18,11,9
	li 9,0
	.loc 2 522 0
	lwz 23,72(7)
	mulli 22,22,24
	.loc 2 523 0
	mulli 18,18,24
	.loc 2 522 0
	add 25,23,22
.LVL230:
	.loc 2 523 0
	add 19,23,18
.LVL231:
.L129:
	.loc 2 527 0
	lfsx 0,25,9
.LVL232:
	.loc 2 532 0
	addi 10,1,92
	.loc 2 527 0
	lfsx 13,19,9
	.loc 2 528 0
	mr 8,10
	.loc 2 527 0
	fcmpu 7,0,13
	bng- 7,.L158
.LVL233:
	.loc 2 528 0
	stfsux 13,8,9
.LVL234:
	.loc 2 529 0
	lwzx 10,25,9
.LVL235:
	stw 10,12(8)
.LVL236:
.L128:
	.loc 2 526 0
	cmpwi 7,9,8
	addi 9,9,4
	bne+ 7,.L129
.LVL237:
.LBB3632:
.LBB3633:
	.loc 6 362 0
	lfs 13,104(1)
	lfs 0,72(31)
	fcmpu 7,13,0
	blt- 7,.L125
.LVL238:
	lfs 13,108(1)
	lfs 0,76(31)
	fcmpu 7,13,0
	blt- 7,.L125
.LVL239:
	lfs 13,112(1)
	lfs 0,80(31)
	fcmpu 7,13,0
	blt- 7,.L125
.LVL240:
	lfs 13,92(1)
	lfs 0,84(31)
	fcmpu 7,13,0
	bgt- 7,.L125
.LVL241:
	lfs 13,96(1)
	lfs 0,88(31)
	fcmpu 7,13,0
	bgt- 7,.L125
.LVL242:
	lfs 13,100(1)
	lfs 0,92(31)
	fcmpu 7,13,0
	bgt- 7,.L125
.LBE3633:
.LBE3632:
	.loc 2 542 0
	mulli 8,29,24
	.loc 2 546 0
	lwz 0,16(11)
	.loc 2 547 0
	lwz 9,20(11)
	.loc 2 546 0
	lwz 10,72(7)
	mulli 0,0,24
.LBB3634:
.LBB3625:
	.loc 3 439 0
	lfs 12,.LC12@l(21)
.LBE3625:
.LBE3634:
	.loc 2 547 0
	mulli 7,9,24
	.loc 2 542 0
	addi 8,8,9248
.LBB3635:
.LBB3626:
	.loc 3 439 0
	lfs 13,28(11)
.LVL243:
.LBE3626:
.LBE3635:
	.loc 2 542 0
	add 8,30,8
.LBB3636:
.LBB3637:
	.loc 4 317 0
	lfs 10,40(31)
.LBE3637:
.LBE3636:
.LBB3652:
.LBB3627:
	.loc 3 439 0
	fmuls 29,13,12
.LBE3627:
.LBE3652:
	.loc 2 546 0
	add 5,10,0
	.loc 2 547 0
	add 6,10,7
.LBB3653:
.LBB3638:
	.loc 4 317 0
	lfs 4,24(8)
.LBE3638:
.LBE3653:
.LBB3654:
.LBB3628:
	.loc 3 439 0
	lfs 0,32(11)
.LBE3628:
.LBE3654:
.LBB3655:
.LBB3656:
	.loc 3 452 0
	lfs 6,4(5)
.LBE3656:
.LBE3655:
.LBB3662:
.LBB3639:
	.loc 4 317 0
	fmuls 4,10,4
.LBE3639:
.LBE3662:
.LBB3663:
.LBB3664:
	.loc 3 452 0
	lfs 7,4(6)
.LBE3664:
.LBE3663:
.LBB3674:
.LBB3629:
	.loc 3 439 0
	fmuls 28,0,12
.LBE3629:
.LBE3674:
.LBB3675:
.LBB3657:
	.loc 3 452 0
	fadds 6,29,6
.LBE3657:
.LBE3675:
.LBB3676:
.LBB3640:
	.loc 4 317 0
	lfs 5,36(31)
.LBE3640:
.LBE3676:
.LBB3677:
.LBB3665:
	.loc 3 452 0
	fadds 7,29,7
.LBE3665:
.LBE3677:
.LBB3678:
.LBB3641:
	.loc 4 317 0
	lfs 11,20(8)
.LBE3641:
.LBE3678:
.LBB3679:
.LBB3630:
	.loc 3 439 0
	lfs 1,24(11)
.LBE3630:
.LBE3679:
.LBB3680:
.LBB3658:
	.loc 3 452 0
	lfs 8,8(5)
.LBE3658:
.LBE3680:
.LBB3681:
.LBB3642:
	.loc 4 317 0
	fmadds 4,5,11,4
.LBE3642:
.LBE3681:
.LBB3682:
.LBB3666:
	.loc 3 452 0
	lfs 9,8(6)
.LBE3666:
.LBE3682:
.LBB3683:
.LBB3631:
	.loc 3 439 0
	fmuls 30,1,12
.LBE3631:
.LBE3683:
.LBB3684:
.LBB3659:
	.loc 3 452 0
	fadds 8,28,8
.LBE3659:
.LBE3684:
.LBB3685:
.LBB3643:
	.loc 4 317 0
	lfs 2,44(31)
.LBE3643:
.LBE3685:
.LBB3686:
.LBB3667:
	.loc 3 452 0
	fadds 9,28,9
.LBE3667:
.LBE3686:
.LBB3687:
.LBB3644:
	.loc 4 317 0
	lfs 12,16(8)
.LBE3644:
.LBE3687:
.LBB3688:
.LBB3689:
	.loc 4 255 0
	fsubs 26,7,6
.LBE3689:
.LBE3688:
.LBB3695:
.LBB3668:
	.loc 3 452 0
	lfsx 11,10,7
.LBE3668:
.LBE3695:
.LBB3696:
.LBB3645:
	.loc 4 317 0
	fmadds 12,2,12,4
	lfs 3,52(31)
.LBE3645:
.LBE3696:
.LBB3697:
.LBB3669:
	.loc 3 452 0
	fadds 11,30,11
.LBE3669:
.LBE3697:
.LBB3698:
.LBB3646:
	.loc 4 317 0
	lfs 4,4(8)
.LBE3646:
.LBE3698:
.LBB3699:
.LBB3690:
	.loc 4 254 0
	fsubs 24,8,9
.LBE3690:
.LBE3699:
.LBB3700:
.LBB3647:
	.loc 4 317 0
	lfs 27,8(8)
.LBE3647:
.LBE3700:
.LBB3701:
.LBB3691:
	.loc 4 253 0
	fmuls 25,8,7
.LBE3691:
.LBE3701:
.LBB3702:
.LBB3703:
	.loc 4 317 0
	fmuls 26,10,26
.LBE3703:
.LBE3702:
.LBB3704:
.LBB3660:
	.loc 3 452 0
	lfsx 10,10,0
.LBE3660:
.LBE3704:
.LBB3705:
.LBB3648:
	.loc 4 317 0
	fmadds 12,3,4,12
	lfs 4,56(31)
.LBE3648:
.LBE3705:
.LBB3706:
.LBB3661:
	.loc 3 452 0
	fadds 10,30,10
.LBE3661:
.LBE3706:
.LBB3707:
.LBB3670:
	.loc 4 253 0
	fmsubs 25,6,9,25
	.loc 4 317 0
	fmadds 26,5,24,26
.LBE3670:
.LBE3707:
.LBB3708:
.LBB3649:
	lfs 5,48(31)
.LBE3649:
.LBE3708:
.LBB3709:
.LBB3692:
	.loc 4 250 0
	fmuls 6,6,11
.LBE3692:
.LBE3709:
.LBB3710:
.LBB3650:
	.loc 4 317 0
	fmadds 12,4,27,12
	lfs 27,12(8)
.LBE3650:
.LBE3710:
.LBB3711:
.LBB3693:
	.loc 4 251 0
	fmuls 8,8,11
.LBE3693:
.LBE3711:
.LBB3712:
.LBB3671:
	.loc 4 317 0
	fmadds 2,2,25,26
	.loc 4 250 0
	fmsubs 7,10,7,6
.LBE3671:
.LBE3712:
.LBB3713:
.LBB3651:
	.loc 4 317 0
	fmadds 12,5,27,12
.LVL244:
.LBE3651:
.LBE3713:
.LBB3714:
.LBB3672:
	.loc 4 251 0
	fmsubs 9,10,9,8
.LVL245:
	.loc 4 317 0
	fmadds 3,3,7,2
.LBE3672:
.LBE3714:
	.loc 2 552 0
	fcmpu 7,12,31
.LBB3715:
.LBB3694:
	.loc 4 252 0
	fsubs 11,10,11
.LVL246:
.LBE3694:
.LBE3715:
.LBB3716:
.LBB3673:
	.loc 4 317 0
	fmadds 4,4,9,3
	fmadds 4,5,11,4
.LBE3673:
.LBE3716:
	.loc 2 552 0
	bnl- 7,.L144
	.loc 2 552 0 is_stmt 0 discriminator 1
	fcmpu 7,4,31
	bng- 7,.L144
.L131:
	.loc 2 554 0 is_stmt 1
	addi 17,31,96
	mr 3,24
	mr 4,30
	mr 5,17
.LVL247:
	mr 6,25
.LVL248:
	mr 7,19
	addi 8,1,16
	addi 9,1,12
	bl _ZN28idCollisionModelManagerLocal20EdgeFurthestFromEdgeEP14cm_traceWork_sRK10idPlueckerRK6idVec3S7_RfS8_
.LVL249:
	cmpwi 7,3,0
	beq- 7,.L168
	.loc 2 558 0
	lfs 0,12(1)
	fcmpu 7,0,31
	cror 30,28,30
	bne- 7,.L161
	.loc 2 560 0
	stfs 31,8(1)
	li 0,0
.LVL250:
.L137:
.LBB3717:
.LBB3718:
	.file 7 "d:/Data/Nintendo/DoomGX/src/cm/../idlib/../idlib/math/Math.h"
	.loc 7 781 0
	rlwinm 9,0,0,1,31
.LBE3718:
.LBE3717:
	.loc 2 581 0
	lfs 0,9124(30)
	stw 9,128(1)
	lfs 5,128(1)
	fcmpu 7,0,5
	cror 30,28,30
	bne- 7,.L164
.LVL251:
.L168:
	lwz 0,52(26)
.LVL252:
.L125:
	.loc 2 508 0
	addi 29,29,1
.LVL253:
	addi 28,28,4
	cmpw 7,0,29
	bgt+ 7,.L141
.LVL254:
.L121:
.LBE3620:
	.loc 2 618 0
	lwz 0,276(1)
	lwz 14,136(1)
	mtlr 0
	lwz 15,140(1)
	lwz 16,144(1)
	lwz 17,148(1)
	lwz 18,152(1)
	lwz 19,156(1)
	lwz 20,160(1)
	lwz 21,164(1)
	lwz 22,168(1)
	lwz 23,172(1)
	lwz 24,176(1)
.LVL255:
	lwz 25,180(1)
	lwz 26,184(1)
.LVL256:
	lwz 27,188(1)
	lwz 28,192(1)
	lwz 29,196(1)
	lwz 30,200(1)
.LVL257:
	lwz 31,204(1)
.LVL258:
	lfd 24,208(1)
	lfd 25,216(1)
	lfd 26,224(1)
	lfd 27,232(1)
	lfd 28,240(1)
	lfd 29,248(1)
	lfd 30,256(1)
	lfd 31,264(1)
	addi 1,1,272
	.cfi_remember_state
.LCFI18:
	.cfi_def_cfa_offset 0
	.cfi_restore 63
	.cfi_restore 62
	.cfi_restore 61
	.cfi_restore 60
	.cfi_restore 59
	.cfi_restore 58
	.cfi_restore 57
	.cfi_restore 56
	.cfi_restore 31
	.cfi_restore 30
	.cfi_restore 29
	.cfi_restore 28
	.cfi_restore 27
	.cfi_restore 26
	.cfi_restore 25
	.cfi_restore 24
	.cfi_restore 23
	.cfi_restore 22
	.cfi_restore 21
	.cfi_restore 20
	.cfi_restore 19
	.cfi_restore 18
	.cfi_restore 17
	.cfi_restore 16
	.cfi_restore 15
	.cfi_restore 14
	blr
.LVL259:
.L164:
.LCFI19:
	.cfi_restore_state
.LBB3861:
	.loc 2 587 0
	stw 0,128(1)
	mr 3,24
	mr 4,30
	mr 5,16
	lfs 1,128(1)
	mr 6,15
	mr 7,25
	mr 8,19
	addi 9,1,80
	addi 10,1,68
	bl _ZN28idCollisionModelManagerLocal26CollisionBetweenEdgeBoundsEP14cm_traceWork_sRK6idVec3S4_S4_S4_fRS2_S5_
.LVL260:
	.loc 2 586 0
	cmpwi 7,3,0
	beq- 7,.L168
.LVL261:
.LBB3719:
.LBB3720:
	.loc 3 431 0
	lfs 12,84(1)
	lfs 9,9064(30)
	lfs 11,80(1)
	fsubs 0,12,9
	lfs 10,9060(30)
.LBE3720:
.LBE3719:
.LBB3724:
.LBB3725:
	.loc 3 435 0
	lfs 5,9076(30)
.LBE3725:
.LBE3724:
.LBB3729:
.LBB3721:
	.loc 3 431 0
	fsubs 7,11,10
	lfs 13,88(1)
.LBE3721:
.LBE3729:
.LBB3730:
.LBB3726:
	.loc 3 435 0
	fmuls 0,0,5
.LBE3726:
.LBE3730:
.LBB3731:
.LBB3722:
	.loc 3 431 0
	lfs 8,9068(30)
.LVL262:
.LBE3722:
.LBE3731:
.LBB3732:
.LBB3727:
	.loc 3 435 0
	lfs 6,9072(30)
.LBE3727:
.LBE3732:
.LBB3733:
.LBB3723:
	.loc 3 431 0
	fsubs 3,13,8
.LBE3723:
.LBE3733:
	.loc 2 593 0
	lfs 4,.LC7@l(14)
.LBB3734:
.LBB3728:
	.loc 3 435 0
	fmadds 0,7,6,0
	lfs 7,9080(30)
.LVL263:
	fmadds 0,3,7,0
.LVL264:
.LBE3728:
.LBE3734:
.LBB3735:
.LBB3736:
	.loc 3 452 0
	fmadds 9,5,0,9
	fmadds 10,6,0,10
	fmadds 0,7,0,8
.LVL265:
	.loc 3 431 0
	fsubs 9,12,9
.LVL266:
	fsubs 10,11,10
.LVL267:
	fsubs 0,13,0
.LVL268:
.LBE3736:
.LBE3735:
.LBB3737:
.LBB3738:
	.loc 3 636 0
	fmuls 9,9,9
.LVL269:
.LBE3738:
.LBE3737:
	fmadds 10,10,10,9
.LVL270:
	fmadds 0,0,0,10
.LVL271:
	.loc 2 593 0
	fcmpu 7,0,4
	blt- 7,.L168
.LVL272:
.LBB3739:
.LBB3740:
	.loc 3 425 0
	lfs 10,72(1)
.LBE3740:
.LBE3739:
.LBB3746:
.LBB3747:
.LBB3748:
.LBB3749:
	.loc 7 275 0
	lis 9,.LC8@ha
.LBE3749:
.LBE3748:
.LBE3747:
.LBE3746:
.LBB3767:
.LBB3741:
	.loc 3 424 0
	lfs 9,68(1)
.LBE3741:
.LBE3767:
.LBB3768:
.LBB3760:
.LBB3755:
.LBB3750:
	.loc 7 278 0
	lis 10,.LC10@ha
.LBE3750:
.LBE3755:
	.loc 3 649 0
	fmuls 0,10,10
.LBE3760:
.LBE3768:
.LBB3769:
.LBB3742:
	.loc 3 426 0
	lfs 8,76(1)
.LBE3742:
.LBE3769:
.LBB3770:
.LBB3771:
	.loc 7 782 0
	lwz 0,8(1)
.LBE3771:
.LBE3770:
.LBB3773:
.LBB3761:
.LBB3756:
.LBB3751:
	.loc 7 275 0
	lfs 6,.LC8@l(9)
.LBE3751:
.LBE3756:
.LBE3761:
.LBE3773:
.LBB3774:
.LBB3743:
	.loc 3 649 0
	fmadds 0,9,9,0
.LBE3743:
.LBE3774:
.LBB3775:
.LBB3772:
	.loc 7 782 0
	rlwinm 0,0,0,1,31
.LBE3772:
.LBE3775:
	.loc 2 598 0
	stw 0,9124(30)
.LVL273:
.LBB3776:
.LBB3762:
.LBB3757:
.LBB3752:
	.loc 7 278 0
	lfs 7,.LC10@l(10)
	.loc 7 276 0
	lis 10,_ZN6idMath5iSqrtE@ha
.LBE3752:
.LBE3757:
.LBE3762:
.LBE3776:
.LBB3777:
.LBB3744:
	.loc 3 649 0
	fmadds 0,8,8,0
.LBE3744:
.LBE3777:
.LBB3778:
.LBB3763:
.LBB3758:
.LBB3753:
	.loc 7 276 0
	la 10,_ZN6idMath5iSqrtE@l(10)
.LBE3753:
.LBE3758:
.LBE3763:
.LBE3778:
.LBB3779:
.LBB3745:
	.loc 3 649 0
	stfs 0,124(1)
.LVL274:
.LBE3745:
.LBE3779:
.LBB3780:
.LBB3764:
.LBB3759:
.LBB3754:
	.loc 7 275 0
	fmuls 6,0,6
	.loc 7 270 0
	lwz 9,124(1)
.LVL275:
	.loc 2 478 0
	fneg 6,6
	.loc 7 276 0
	rlwinm 11,9,9,24,31
	rlwinm 9,9,19,21,29
	lwzx 9,10,9
	subfic 11,11,380
	rlwinm 11,11,22,0,8
	or 9,11,9
	.loc 7 277 0
	stw 9,128(1)
	lfs 5,128(1)
	fmr 0,5
.LVL276:
	.loc 7 278 0
	fmul 5,0,0
.LVL277:
	fmadd 5,6,5,7
	fmul 0,0,5
.LVL278:
	.loc 7 279 0
	fmul 5,0,0
	fmadd 7,6,5,7
.LVL279:
	fmul 0,0,7
.LVL280:
	.loc 7 280 0
	frsp 0,0
.LVL281:
.LBE3754:
.LBE3759:
	.loc 3 651 0
	fmuls 9,9,0
	.loc 3 652 0
	fmuls 10,10,0
	.loc 3 653 0
	fmuls 0,8,0
	.loc 3 651 0
	stfs 9,9012(30)
	.loc 3 652 0
	stfs 10,9016(30)
	.loc 3 653 0
	stfs 0,9020(30)
.LVL282:
.LBE3764:
.LBE3780:
.LBB3781:
.LBB3782:
	.loc 3 435 0
	lfs 8,4(25)
.LBE3782:
.LBE3781:
.LBB3784:
.LBB3765:
	lfsx 6,23,22
.LBE3765:
.LBE3784:
.LBB3785:
.LBB3783:
	fmuls 8,10,8
.LBE3783:
.LBE3785:
.LBB3786:
.LBB3766:
	lfs 7,8(25)
	fmadds 8,9,6,8
	fmadds 8,0,7,8
.LBE3766:
.LBE3786:
	.loc 2 601 0
	stfs 8,9024(30)
.LVL283:
.LBB3787:
.LBB3788:
	.loc 3 435 0
	lfs 7,8(31)
.LBE3788:
.LBE3787:
	lfs 5,4(31)
.LBB3790:
.LBB3789:
	fmuls 7,10,7
.LBE3789:
.LBE3790:
	lfs 6,12(31)
	fmadds 7,9,5,7
	fmadds 7,0,6,7
	.loc 2 603 0
	fsubs 7,7,8
	fcmpu 7,7,31
	bnl- 7,.L139
.LVL284:
.LBB3791:
.LBB3792:
	.loc 3 420 0
	fneg 9,9
.LVL285:
	fneg 10,10
.LVL286:
	fneg 0,0
.LVL287:
.LBE3792:
.LBE3791:
	.loc 2 605 0
	fneg 8,8
.LBB3793:
.LBB3794:
	.loc 3 424 0
	stfs 9,9012(30)
	.loc 3 425 0
	stfs 10,9016(30)
	.loc 3 426 0
	stfs 0,9020(30)
.LBE3794:
.LBE3793:
	.loc 2 605 0
	stfs 8,9024(30)
.LVL288:
.L139:
	.loc 2 607 0
	lwz 9,28(26)
	.loc 2 614 0
	stw 0,128(1)
	lfs 0,128(1)
	.loc 2 607 0
	stw 9,9028(30)
	.loc 2 609 0
	li 9,1
	.loc 2 614 0
	fcmpu 7,0,31
	.loc 2 608 0
	lwz 0,32(26)
	.loc 2 609 0
	stw 9,8996(30)
	.loc 2 608 0
	stw 0,9032(30)
	.loc 2 611 0
	lwz 0,120(1)
	.loc 2 610 0
	stw 27,9036(30)
	.loc 2 611 0
	stw 0,9040(30)
.LVL289:
.LBB3795:
.LBB3796:
	.loc 3 424 0
	stfs 11,9000(30)
	.loc 3 425 0
	stfs 12,9004(30)
	.loc 3 426 0
	stfs 13,9008(30)
.LBE3796:
.LBE3795:
	.loc 2 614 0
	bne+ 7,.L168
	b .L121
.LVL290:
.L158:
	.loc 2 532 0
	stfsux 0,10,9
.LVL291:
	.loc 2 533 0
	lwzx 8,19,9
.LVL292:
	stw 8,12(10)
	b .L128
.LVL293:
.L144:
	.loc 2 552 0 discriminator 2
	fcmpu 7,12,31
	bng- 7,.L132
	.loc 2 552 0 is_stmt 0 discriminator 3
	fcmpu 7,4,31
	blt- 7,.L131
.L132:
.LVL294:
.LBB3797:
.LBB3798:
.LBB3799:
.LBB3800:
	.loc 3 452 0 is_stmt 1
	lfsx 11,23,22
.LBE3800:
.LBE3799:
.LBE3798:
.LBE3797:
	.loc 2 576 0
	lis 9,.LC2@ha
	.loc 3 452 0
	lfs 12,.LC6@l(20)
	.loc 2 576 0
	mr 3,24
	.loc 3 452 0
	lfs 9,4(25)
	.loc 2 576 0
	mr 4,30
	.loc 3 452 0
	lfs 10,8(25)
.LBB3816:
.LBB3811:
.LBB3806:
.LBB3801:
	fmadds 11,1,12,11
.LBE3801:
.LBE3806:
.LBE3811:
.LBE3816:
	fmadds 9,13,12,9
	.loc 2 576 0
	addi 5,31,96
.LVL295:
	.loc 3 452 0
	fmadds 10,0,12,10
.LVL296:
	.loc 2 576 0
	addi 6,1,32
.LVL297:
.LBB3817:
.LBB3812:
.LBB3807:
.LBB3802:
	.loc 3 396 0
	stfs 11,32(1)
.LBE3802:
.LBE3807:
.LBE3812:
.LBE3817:
	.loc 2 576 0
	addi 7,1,20
.LBB3818:
.LBB3813:
.LBB3808:
.LBB3803:
	.loc 3 397 0
	stfs 9,36(1)
.LBE3803:
.LBE3808:
.LBE3813:
.LBE3818:
	.loc 2 576 0
	addi 8,1,8
.LBB3819:
.LBB3814:
.LBB3809:
.LBB3804:
	.loc 3 398 0
	stfs 10,40(1)
.LVL298:
.LBE3804:
.LBE3809:
.LBE3814:
.LBE3819:
.LBB3820:
.LBB3821:
.LBB3822:
.LBB3823:
	.loc 3 452 0
	lfsx 11,23,18
.LVL299:
.LBE3823:
.LBE3822:
.LBE3821:
.LBE3820:
.LBB3830:
.LBB3815:
.LBB3810:
.LBB3805:
	lfs 9,4(19)
.LVL300:
	lfs 10,8(19)
.LVL301:
	fmadds 13,13,12,9
.LVL302:
	fmadds 0,0,12,10
.LVL303:
.LBE3805:
.LBE3810:
.LBE3815:
.LBE3830:
.LBB3831:
.LBB3828:
.LBB3826:
.LBB3824:
	fmadds 12,1,12,11
.LBE3824:
.LBE3826:
.LBE3828:
.LBE3831:
	.loc 2 576 0
	lfs 1,.LC2@l(9)
.LVL304:
.LBB3832:
.LBB3829:
.LBB3827:
.LBB3825:
	.loc 3 397 0
	stfs 13,24(1)
	.loc 3 398 0
	stfs 0,28(1)
	.loc 3 396 0
	stfs 12,20(1)
.LBE3825:
.LBE3827:
.LBE3829:
.LBE3832:
	.loc 2 576 0
	bl _ZN28idCollisionModelManagerLocal21RotateEdgeThroughEdgeEP14cm_traceWork_sRK10idPlueckerRK6idVec3S7_fRf
.LVL305:
	cmpwi 7,3,0
	beq- 7,.L168
.LVL306:
.L163:
	lwz 0,8(1)
	b .L137
.LVL307:
.L161:
.LBB3833:
.LBB3834:
	.loc 7 782 0
	lwz 0,16(1)
.LBE3834:
.LBE3833:
	.loc 2 562 0
	lfs 0,9124(30)
.LBB3836:
.LBB3835:
	.loc 7 782 0
	rlwinm 10,0,0,1,31
	stw 10,124(1)
.LBE3835:
.LBE3836:
	.loc 2 562 0
	lfs 5,124(1)
	fcmpu 7,0,5
	cror 30,28,30
	beq+ 7,.L168
.LVL308:
.LBB3837:
.LBB3838:
	.loc 3 452 0
	lfsx 0,23,22
.LBE3838:
.LBE3837:
	.loc 2 568 0
	mr 3,24
.LBB3851:
.LBB3845:
	.loc 3 452 0
	lfs 12,4(25)
.LBE3845:
.LBE3851:
	.loc 2 568 0
	mr 4,30
.LBB3852:
.LBB3846:
	.loc 3 452 0
	lfs 13,8(25)
	fadds 0,30,0
	fadds 12,29,12
.LBE3846:
.LBE3852:
	.loc 2 568 0
	lfs 1,124(1)
.LBB3853:
.LBB3847:
	.loc 3 452 0
	fadds 13,28,13
.LVL309:
.LBE3847:
.LBE3853:
	.loc 2 568 0
	mr 5,17
.LBB3854:
.LBB3848:
.LBB3839:
.LBB3840:
	.loc 3 396 0
	stfs 0,56(1)
.LBE3840:
.LBE3839:
.LBE3848:
.LBE3854:
	.loc 2 568 0
	addi 6,1,56
.LBB3855:
.LBB3849:
.LBB3843:
.LBB3841:
	.loc 3 397 0
	stfs 12,60(1)
.LBE3841:
.LBE3843:
.LBE3849:
.LBE3855:
	.loc 2 568 0
	addi 7,1,44
.LBB3856:
.LBB3850:
.LBB3844:
.LBB3842:
	.loc 3 398 0
	stfs 13,64(1)
.LVL310:
.LBE3842:
.LBE3844:
.LBE3850:
.LBE3856:
	.loc 2 568 0
	addi 8,1,8
.LBB3857:
.LBB3858:
	.loc 3 452 0
	lfsx 12,23,18
.LVL311:
	lfs 13,4(19)
.LVL312:
	lfs 0,8(19)
.LVL313:
	fadds 12,30,12
	fadds 13,29,13
	fadds 0,28,0
.LVL314:
.LBB3859:
.LBB3860:
	.loc 3 396 0
	stfs 12,44(1)
	.loc 3 397 0
	stfs 13,48(1)
	.loc 3 398 0
	stfs 0,52(1)
.LVL315:
.LBE3860:
.LBE3859:
.LBE3858:
.LBE3857:
	.loc 2 568 0
	bl _ZN28idCollisionModelManagerLocal21RotateEdgeThroughEdgeEP14cm_traceWork_sRK10idPlueckerRK6idVec3S7_fRf
.LVL316:
	cmpwi 7,3,0
	bne- 7,.L163
	.loc 2 569 0
	lwz 0,16(1)
	stw 0,8(1)
	b .L137
.LBE3861:
	.cfi_endproc
.LFE2543:
	.size	_ZN28idCollisionModelManagerLocal27RotateTrmEdgeThroughPolygonEP14cm_traceWork_sP12cm_polygon_sP12cm_trmEdge_s, .-_ZN28idCollisionModelManagerLocal27RotateTrmEdgeThroughPolygonEP14cm_traceWork_sP12cm_polygon_sP12cm_trmEdge_s
	.align 2
	.globl _ZN28idCollisionModelManagerLocal23RotatePointThroughPlaneEPK14cm_traceWork_sRK6idVec3RK7idPlaneffRf
	.type	_ZN28idCollisionModelManagerLocal23RotatePointThroughPlaneEPK14cm_traceWork_sRK6idVec3RK7idPlaneffRf, @function
_ZN28idCollisionModelManagerLocal23RotatePointThroughPlaneEPK14cm_traceWork_sRK6idVec3RK7idPlaneffRf:
.LFB2544:
	.loc 2 628 0
	.cfi_startproc
.LVL317:
	mflr 0
	stwu 1,-64(1)
.LCFI20:
	.cfi_def_cfa_offset 64
	.cfi_register 65, 0
.LBB3887:
	.loc 2 680 0
	lis 9,.LC5@ha
.LBE3887:
	.loc 2 628 0
	stfd 27,24(1)
	stw 0,68(1)
.LBB3953:
	.loc 2 666 0
	lwz 0,9124(4)
	.cfi_offset 65, 4
	.cfi_offset 59, -40
.LBE3953:
	.loc 2 628 0
	stfd 28,32(1)
	stfd 29,40(1)
	stfd 30,48(1)
	stfd 31,56(1)
.LBB3954:
	.loc 2 666 0
	stw 0,0(7)
.LVL318:
.LBB3888:
.LBB3889:
	.loc 3 431 0
	lfs 8,9064(4)
	lfs 9,4(5)
.LBE3889:
.LBE3888:
.LBB3895:
.LBB3896:
	.loc 3 435 0
	lfs 12,4(6)
.LBE3896:
.LBE3895:
.LBB3903:
.LBB3890:
	.loc 3 431 0
	fsubs 9,9,8
	lfs 31,9060(4)
	.cfi_offset 63, -8
	.cfi_offset 62, -16
	.cfi_offset 61, -24
	.cfi_offset 60, -32
.LBE3890:
.LBE3903:
.LBB3904:
.LBB3905:
.LBB3906:
	.loc 5 454 0
	lfs 5,9100(4)
.LBE3906:
.LBE3905:
.LBE3904:
.LBB3927:
.LBB3897:
	.loc 3 435 0
	fmuls 30,8,12
.LBE3897:
.LBE3927:
.LBB3928:
.LBB3917:
.LBB3907:
	.loc 5 454 0
	lfs 7,9104(4)
.LBE3907:
.LBE3917:
.LBE3928:
.LBB3929:
.LBB3891:
	.loc 3 431 0
	lfs 10,0(5)
.LBE3891:
.LBE3929:
.LBB3930:
.LBB3931:
.LBB3932:
	.loc 5 454 0
	fmuls 0,12,5
	fmuls 4,12,7
.LBE3932:
.LBE3931:
.LBE3930:
.LBB3935:
.LBB3898:
	.loc 3 435 0
	lfs 13,0(6)
.LBE3898:
.LBE3935:
.LBB3936:
.LBB3892:
	.loc 3 431 0
	fsubs 10,10,31
	lfs 8,9068(4)
.LBE3892:
.LBE3936:
.LBB3937:
.LBB3918:
.LBB3908:
	.loc 5 454 0
	fmuls 6,9,5
	lfs 3,9096(4)
	fmuls 29,9,7
	lfs 5,9088(4)
	lfs 7,9092(4)
.LBE3908:
.LBE3918:
.LBE3937:
	.loc 3 435 0
	fmadds 30,31,13,30
.LBB3938:
.LBB3893:
	.loc 3 431 0
	lfs 11,8(5)
.LBE3893:
.LBE3938:
.LBB3939:
.LBB3919:
.LBB3909:
	.loc 5 454 0
	fmadds 6,10,5,6
.LBE3909:
.LBE3919:
.LBE3939:
	fmadds 29,10,7,29
.LBB3940:
.LBB3920:
.LBB3910:
	lfs 31,9112(4)
.LBE3910:
.LBE3920:
.LBE3940:
.LBB3941:
.LBB3894:
	.loc 3 431 0
	fsubs 11,11,8
.LVL319:
.LBE3894:
.LBE3941:
	.loc 5 454 0
	fmadds 7,13,7,4
.LBB3942:
.LBB3921:
.LBB3911:
	lfs 4,9116(4)
.LVL320:
	fmuls 9,9,3
.LVL321:
.LBE3911:
.LBE3921:
.LBE3942:
.LBB3943:
.LBB3934:
.LBB3933:
	fmuls 12,12,3
.LBE3933:
.LBE3934:
.LBE3943:
.LBB3944:
.LBB3922:
.LBB3912:
	lfs 3,9084(4)
.LBE3912:
.LBE3922:
.LBE3944:
.LBB3945:
.LBB3899:
	fmadds 5,13,5,0
	.loc 3 435 0
	lfs 0,8(6)
.LBE3899:
.LBE3945:
.LBB3946:
.LBB3923:
.LBB3913:
	.loc 5 454 0
	fmadds 6,11,31,6
.LBE3913:
.LBE3923:
.LBE3946:
	fmadds 29,11,4,29
.LBB3947:
.LBB3900:
	fmadds 5,0,31,5
.LBE3900:
.LBE3947:
.LBB3948:
.LBB3924:
.LBB3914:
	fmadds 10,10,3,9
.LVL322:
.LBE3914:
.LBE3924:
.LBE3948:
	.loc 3 435 0
	fmadds 31,8,0,30
.LBB3949:
.LBB3925:
.LBB3915:
	.loc 5 454 0
	lfs 8,9108(4)
.LBE3915:
.LBE3925:
.LBE3949:
	fmadds 4,0,4,7
	.loc 2 670 0
	lfs 30,12(6)
.LBB3950:
.LBB3901:
	.loc 5 454 0
	fmadds 3,13,3,12
.LBE3901:
.LBE3950:
.LBB3951:
.LBB3926:
.LBB3916:
	fmadds 11,11,8,10
.LVL323:
.LBE3916:
.LBE3926:
.LBE3951:
	.loc 2 670 0
	fadds 31,31,30
.LBB3952:
.LBB3902:
	.loc 5 454 0
	fmadds 0,0,8,3
.LVL324:
.LBE3902:
.LBE3952:
	.loc 2 673 0
	fmuls 7,29,4
	.loc 2 675 0
	fmuls 8,6,5
.LBE3954:
	.loc 2 628 0
	fmr 29,1
.LBB3955:
	.loc 2 673 0
	fadd 7,7,31
.LVL325:
	.loc 2 680 0
	lfd 31,.LC5@l(9)
	.loc 2 675 0
	fmadds 8,11,0,8
	.loc 2 674 0
	fmuls 11,11,5
	.loc 2 677 0
	fsub 30,7,8
	.loc 2 674 0
	fmsubs 0,6,0,11
.LVL326:
	.loc 2 679 0
	fadd 27,7,8
	.loc 2 680 0
	fcmpu 7,30,31
	.loc 2 674 0
	fmr 28,0
.LVL327:
	.loc 2 680 0
	bne- 7,.L170
.LVL328:
	.loc 2 681 0
	fcmpu 7,28,31
	.loc 2 682 0
	li 3,0
.LVL329:
	.loc 2 681 0
	beq- 7,.L171
	.loc 2 684 0
	fneg 30,27
.LVL330:
	.loc 2 685 0
	lis 9,.LC4@ha
	.loc 2 684 0
	fadd 28,28,28
.LVL331:
	.loc 2 685 0
	lfs 13,.LC4@l(9)
	.loc 2 684 0
	fdiv 30,30,28
.LVL332:
.L172:
	.loc 2 703 0
	lis 9,.LC2@ha
	lfs 0,.LC2@l(9)
	fcmpu 7,29,0
	mfcr 0
	rlwinm 0,0,29,1
	cmpwi 7,0,0
	beq- 7,.L176
	.loc 2 704 0
	fneg 30,30
.LVL333:
	.loc 2 705 0
	fneg 13,13
.LVL334:
.L176:
	.loc 2 709 0
	fcmpu 6,2,30
	cror 26,24,26
	bne- 6,.L177
	.loc 2 709 0 is_stmt 0 discriminator 1
	lfs 0,0(7)
	fcmpu 6,0,30
	bgt- 6,.L192
.LVL335:
.L177:
	.loc 2 712 0 is_stmt 1
	fcmpu 6,13,2
	cror 26,25,26
	bne- 6,.L180
	.loc 2 712 0 is_stmt 0 discriminator 1
	lfs 0,0(7)
	fcmpu 6,0,13
	bgt- 6,.L193
.L180:
	.loc 2 716 0 is_stmt 1
	beq- 7,.L185
.LVL336:
.L194:
	.loc 2 717 0
	lfs 0,0(7)
	.loc 2 720 0
	li 3,1
	.loc 2 717 0
	fneg 0,0
	stfs 0,0(7)
.L171:
.LBE3955:
	.loc 2 721 0
	lwz 0,68(1)
	lfd 27,24(1)
.LVL337:
	mtlr 0
	lfd 28,32(1)
	lfd 29,40(1)
.LVL338:
	lfd 30,48(1)
	lfd 31,56(1)
	addi 1,1,64
	.cfi_remember_state
.LCFI21:
	.cfi_def_cfa_offset 0
	.cfi_restore 63
	.cfi_restore 62
	.cfi_restore 61
	.cfi_restore 60
	.cfi_restore 59
	blr
.LVL339:
.L170:
.LCFI22:
	.cfi_restore_state
.LBB3956:
	.loc 2 688 0
	fmul 1,27,30
.LVL340:
	.loc 2 690 0
	li 3,0
.LVL341:
	.loc 2 688 0
	fmsub 1,28,28,1
.LVL342:
	.loc 2 689 0
	fcmpu 7,1,31
	cror 30,28,30
	beq+ 7,.L171
	.loc 2 692 0
	stw 7,16(1)
	stfd 2,8(1)
	bl sqrt
.LVL343:
	.loc 2 693 0
	fcmpu 7,28,31
	lwz 7,16(1)
	lfd 2,8(1)
	bng- 7,.L191
	.loc 2 694 0
	fsub 13,1,28
.LVL344:
.L175:
	.loc 2 699 0
	fdiv 30,13,30
.LVL345:
	.loc 2 700 0
	fdiv 13,27,13
.LVL346:
	b .L172
.LVL347:
.L192:
	.loc 2 710 0
	frsp 30,30
.LVL348:
	stfs 30,0(7)
	b .L177
.L193:
	.loc 2 713 0
	frsp 13,13
.LVL349:
	stfs 13,0(7)
	.loc 2 716 0
	bne+ 7,.L194
.L185:
.LBE3956:
	.loc 2 721 0
	lwz 0,68(1)
.LBB3957:
	.loc 2 720 0
	li 3,1
.LBE3957:
	.loc 2 721 0
	lfd 27,24(1)
.LVL350:
	mtlr 0
	lfd 28,32(1)
	lfd 29,40(1)
.LVL351:
	lfd 30,48(1)
	lfd 31,56(1)
	addi 1,1,64
	.cfi_remember_state
	.cfi_restore 59
	.cfi_restore 60
	.cfi_restore 61
	.cfi_restore 62
	.cfi_restore 63
.LCFI23:
	.cfi_def_cfa_offset 0
	blr
.LVL352:
.L191:
.LCFI24:
	.cfi_restore_state
.LBB3958:
	.loc 2 697 0
	fneg 13,28
	fsub 13,13,1
.LVL353:
	b .L175
.LBE3958:
	.cfi_endproc
.LFE2544:
	.size	_ZN28idCollisionModelManagerLocal23RotatePointThroughPlaneEPK14cm_traceWork_sRK6idVec3RK7idPlaneffRf, .-_ZN28idCollisionModelManagerLocal23RotatePointThroughPlaneEPK14cm_traceWork_sRK6idVec3RK7idPlaneffRf
	.align 2
	.globl _ZN28idCollisionModelManagerLocal22PointFurthestFromPlaneEPK14cm_traceWork_sRK6idVec3RK7idPlanefRfS9_
	.type	_ZN28idCollisionModelManagerLocal22PointFurthestFromPlaneEPK14cm_traceWork_sRK6idVec3RK7idPlanefRfS9_, @function
_ZN28idCollisionModelManagerLocal22PointFurthestFromPlaneEPK14cm_traceWork_sRK6idVec3RK7idPlanefRfS9_:
.LFB2545:
	.loc 2 733 0
	.cfi_startproc
.LVL354:
	mflr 0
.LBB3980:
	.loc 2 761 0
	lis 9,.LC2@ha
.LBE3980:
	.loc 2 733 0
	stwu 1,-64(1)
.LCFI25:
	.cfi_def_cfa_offset 64
	.cfi_register 65, 0
	mfcr 12
.LBB4052:
	.loc 2 761 0
	lfs 6,.LC2@l(9)
.LBE4052:
	.loc 2 733 0
	stw 0,68(1)
	stfd 28,32(1)
.LBB4053:
	.loc 2 771 0
	fcmpu 7,1,6
.LBE4053:
	.loc 2 733 0
	stfd 31,56(1)
	stfd 27,24(1)
.LBB4054:
	.loc 2 771 0
	mfcr 0
	rlwinm 0,0,29,1
	.cfi_offset 59, -40
	.cfi_offset 63, -8
	.cfi_offset 60, -32
	.cfi_offset 65, 4
	.cfi_register 70, 12
.LBE4054:
	.loc 2 733 0
	stfd 29,40(1)
	stfd 30,48(1)
.LBB4055:
	.loc 2 771 0
	cmpwi 4,0,0
.LBE4055:
	.loc 2 733 0
	stw 31,20(1)
	stw 12,16(1)
.LBB4056:
	.loc 2 761 0
	stfs 6,0(7)
.LVL355:
.LBB3981:
.LBB3982:
	.loc 3 431 0
	lfs 0,9064(4)
	lfs 3,4(5)
.LBE3982:
.LBE3981:
.LBB3989:
.LBB3990:
.LBB3991:
	.loc 5 454 0
	lfs 4,9100(4)
.LBE3991:
.LBE3990:
.LBE3989:
.LBB4010:
.LBB3983:
	.loc 3 431 0
	fsubs 3,3,0
.LBE3983:
.LBE4010:
.LBB4011:
.LBB4012:
.LBB4013:
	.loc 5 454 0
	lfs 5,4(6)
.LBE4013:
.LBE4012:
.LBE4011:
.LBB4030:
.LBB4001:
.LBB3992:
	lfs 0,9096(4)
.LBE3992:
.LBE4001:
.LBE4030:
.LBB4031:
.LBB3984:
	.loc 3 431 0
	lfs 13,9060(4)
.LBE3984:
.LBE4031:
.LBB4032:
.LBB4022:
.LBB4014:
	.loc 5 454 0
	fmuls 2,4,5
.LBE4014:
.LBE4022:
.LBE4032:
.LBB4033:
.LBB3985:
	.loc 3 431 0
	lfs 7,0(5)
.LBE3985:
.LBE4033:
.LBB4034:
.LBB4002:
.LBB3993:
	.loc 5 454 0
	fmuls 31,3,0
	lfs 9,9084(4)
.LBE3993:
.LBE4002:
.LBE4034:
.LBB4035:
.LBB4023:
.LBB4015:
	fmuls 5,0,5
.LBE4015:
.LBE4023:
.LBE4035:
.LBB4036:
.LBB3986:
	.loc 3 431 0
	fsubs 7,7,13
.LBE3986:
.LBE4036:
.LBB4037:
.LBB4003:
.LBB3994:
	.loc 5 454 0
	lfs 8,9088(4)
.LBE3994:
.LBE4003:
.LBE4037:
.LBB4038:
.LBB4024:
.LBB4016:
	lfs 10,0(6)
.LBE4016:
.LBE4024:
.LBE4038:
.LBB4039:
.LBB4004:
.LBB3995:
	fmuls 4,3,4
.LBE3995:
.LBE4004:
.LBE4039:
.LBB4040:
.LBB3987:
	.loc 3 431 0
	lfs 13,9068(4)
	lfs 11,8(5)
.LBE3987:
.LBE4040:
.LBB4041:
.LBB4005:
.LBB3996:
	.loc 5 454 0
	fmadds 31,7,9,31
.LBE3996:
.LBE4005:
.LBE4041:
.LBB4042:
.LBB4025:
.LBB4017:
	fmadds 2,8,10,2
.LBE4017:
.LBE4025:
.LBE4042:
.LBB4043:
.LBB4006:
.LBB3997:
	lfs 12,9112(4)
.LBE3997:
.LBE4006:
.LBE4043:
.LBB4044:
.LBB3988:
	.loc 3 431 0
	fsubs 11,11,13
.LVL356:
.LBE3988:
.LBE4044:
.LBB4045:
.LBB4026:
.LBB4018:
	.loc 5 454 0
	lfs 0,8(6)
.LBE4018:
.LBE4026:
.LBE4045:
.LBB4046:
.LBB4007:
.LBB3998:
	lfs 13,9108(4)
	fmadds 4,7,8,4
.LBE3998:
.LBE4007:
.LBE4046:
.LBB4047:
.LBB4027:
.LBB4019:
	fmadds 2,12,0,2
.LBE4019:
.LBE4027:
.LBE4047:
.LBB4048:
.LBB4008:
.LBB3999:
	fmadds 31,11,13,31
.LBE3999:
.LBE4008:
.LBE4048:
.LBB4049:
.LBB4028:
.LBB4020:
	fmadds 5,9,10,5
.LBE4020:
.LBE4028:
.LBE4049:
.LBB4050:
.LBB4009:
.LBB4000:
	fmadds 12,11,12,4
.LVL357:
.LBE4000:
.LBE4009:
.LBE4050:
	.loc 2 767 0
	fmuls 28,31,2
.LBB4051:
.LBB4029:
.LBB4021:
	.loc 5 454 0
	fmadds 0,13,0,5
.LVL358:
	.loc 2 767 0
	fmsubs 28,12,0,28
.LVL359:
.LBE4021:
.LBE4029:
.LBE4051:
	.loc 2 771 0
	beq- 4,.L196
	.cfi_offset 70, -48
	.cfi_offset 31, -44
	.cfi_offset 62, -16
	.cfi_offset 61, -24
.LVL360:
	.loc 2 772 0
	fneg 13,28
	stfs 13,0(8)
.LVL361:
.L197:
	.loc 2 778 0
	lis 9,.LC2@ha
	.loc 2 779 0
	li 3,1
.LVL362:
	.loc 2 778 0
	lfs 11,.LC2@l(9)
.LVL363:
	fcmpu 7,13,11
	cror 30,28,30
	beq- 7,.L198
	.loc 2 768 0
	fmuls 0,31,0
.LVL364:
	.loc 2 785 0
	lis 31,.LC5@ha
	.loc 2 782 0
	fneg 29,28
.LVL365:
	.loc 2 785 0
	lfd 30,.LC5@l(31)
	.loc 2 768 0
	fmadds 2,12,2,0
.LVL366:
	.loc 2 785 0
	fcmpu 7,29,30
	.loc 2 768 0
	fmr 27,2
	.loc 2 783 0
	fneg 31,27
.LVL367:
	.loc 2 785 0
	bne- 7,.L199
	.loc 2 786 0
	fcmpu 7,31,30
	.loc 2 787 0
	li 3,0
	.loc 2 786 0
	beq- 7,.L198
	.loc 2 789 0
	fadd 31,31,31
.LVL368:
	.loc 2 790 0
	lis 9,.LC4@ha
	lfs 28,.LC4@l(9)
.LVL369:
	.loc 2 789 0
	fdiv 29,29,31
.LVL370:
.L200:
	.loc 2 808 0
	beq- 4,.L204
	.loc 2 809 0
	fneg 29,29
.LVL371:
	.loc 2 810 0
	fneg 28,28
.LVL372:
.L204:
	.loc 2 813 0
	lfd 0,.LC5@l(31)
	fcmpu 7,29,0
	bnl- 7,.L205
	.loc 2 813 0 is_stmt 0 discriminator 1
	fcmpu 7,28,0
	.loc 2 814 0 is_stmt 1 discriminator 1
	li 3,0
	.loc 2 813 0 discriminator 1
	blt- 7,.L198
.L205:
	.loc 2 817 0
	fcmpu 7,29,28
	bng- 7,.L219
	.loc 2 818 0
	frsp 29,29
.LVL373:
	stfs 29,0(7)
.LVL374:
.L209:
	.loc 2 824 0
	beq- 4,.L214
	.loc 2 825 0
	lfs 0,0(7)
	.loc 2 828 0
	li 3,1
	.loc 2 825 0
	fneg 0,0
	stfs 0,0(7)
.L198:
.LBE4056:
	.loc 2 829 0
	lwz 0,68(1)
	lwz 12,16(1)
	mtlr 0
	lwz 31,20(1)
	lfd 27,24(1)
	mtcrf 8,12
	lfd 28,32(1)
	lfd 29,40(1)
	lfd 30,48(1)
	lfd 31,56(1)
	addi 1,1,64
	.cfi_remember_state
.LCFI26:
	.cfi_def_cfa_offset 0
	.cfi_restore 70
	.cfi_restore 63
	.cfi_restore 62
	.cfi_restore 61
	.cfi_restore 60
	.cfi_restore 59
	.cfi_restore 31
	blr
.LVL375:
.L196:
.LCFI27:
	.cfi_restore_state
.LBB4057:
	.loc 2 775 0
	stfs 28,0(8)
	fmr 13,28
	b .L197
.LVL376:
.L199:
	.loc 2 793 0
	fmul 1,28,29
.LVL377:
	.loc 2 795 0
	li 3,0
	.loc 2 793 0
	fmsub 1,31,31,1
.LVL378:
	.loc 2 794 0
	fcmpu 7,1,30
	cror 30,28,30
	beq+ 7,.L198
	.loc 2 797 0
	stw 7,8(1)
	bl sqrt
.LVL379:
	.loc 2 798 0
	fcmpu 7,31,30
	lwz 7,8(1)
	bng- 7,.L218
	.loc 2 799 0
	fadd 27,27,1
.LVL380:
.L203:
	.loc 2 804 0
	fdiv 29,27,29
.LVL381:
	.loc 2 805 0
	fdiv 28,28,27
.LVL382:
	b .L200
.LVL383:
.L219:
	.loc 2 821 0
	frsp 28,28
.LVL384:
	stfs 28,0(7)
	b .L209
.LVL385:
.L214:
	.loc 2 828 0
	li 3,1
	b .L198
.LVL386:
.L218:
	.loc 2 802 0
	fsub 27,27,1
.LVL387:
	b .L203
.LBE4057:
	.cfi_endproc
.LFE2545:
	.size	_ZN28idCollisionModelManagerLocal22PointFurthestFromPlaneEPK14cm_traceWork_sRK6idVec3RK7idPlanefRfS9_, .-_ZN28idCollisionModelManagerLocal22PointFurthestFromPlaneEPK14cm_traceWork_sRK6idVec3RK7idPlanefRfS9_
	.align 2
	.globl _ZN28idCollisionModelManagerLocal30RotatePointThroughEpsilonPlaneEPK14cm_traceWork_sRK6idVec3S5_RK7idPlanefS5_RfRS3_SA_
	.type	_ZN28idCollisionModelManagerLocal30RotatePointThroughEpsilonPlaneEPK14cm_traceWork_sRK6idVec3S5_RK7idPlanefS5_RfRS3_SA_, @function
_ZN28idCollisionModelManagerLocal30RotatePointThroughEpsilonPlaneEPK14cm_traceWork_sRK6idVec3S5_RK7idPlanefS5_RfRS3_SA_:
.LFB2546:
	.loc 2 838 0
	.cfi_startproc
.LVL388:
	mflr 0
	stwu 1,-128(1)
.LCFI28:
	.cfi_def_cfa_offset 128
	.cfi_register 65, 0
	mfcr 12
	stfd 29,104(1)
	stfd 30,112(1)
	stw 26,56(1)
	mr 26,10
	.cfi_offset 26, -72
	.cfi_offset 62, -16
	.cfi_offset 61, -24
	.cfi_register 70, 12
	stw 27,60(1)
	stw 28,64(1)
	mr 28,3
	.cfi_offset 28, -64
	.cfi_offset 27, -68
	stw 29,68(1)
.LBB4058:
	.loc 2 851 0
	li 3,0
.LVL389:
.LBE4058:
	.loc 2 838 0
	stw 30,72(1)
	mr 29,4
	.cfi_offset 30, -56
	.cfi_offset 29, -60
	stw 31,76(1)
	mr 30,8
	stw 0,132(1)
	mr 31,5
	.cfi_offset 65, 4
	.cfi_offset 31, -52
	stfd 26,80(1)
	stfd 27,88(1)
	stfd 28,96(1)
	stfd 31,120(1)
	stw 12,52(1)
	.loc 2 838 0
	lwz 27,136(1)
.LBB4159:
	.loc 2 844 0
	lwz 0,4(7)
.LBB4059:
.LBB4060:
	.file 8 "d:/Data/Nintendo/DoomGX/src/cm/../idlib/../idlib/math/Plane.h"
	.loc 8 325 0
	lfs 6,4(8)
.LBE4060:
.LBE4059:
	.loc 2 844 0
	stw 0,20(1)
	lwz 0,0(7)
.LBB4068:
.LBB4061:
	.loc 8 325 0
	lfs 8,20(1)
.LBE4061:
.LBE4068:
	.loc 2 844 0
	stw 0,16(1)
	lwz 11,12(7)
.LBB4069:
.LBB4062:
	.loc 8 325 0
	fmuls 4,8,6
.LBE4062:
.LBE4069:
	.loc 2 844 0
	lwz 0,8(7)
.LBB4070:
.LBB4063:
	.loc 8 325 0
	lfs 5,0(8)
	lfs 9,16(1)
.LBE4063:
.LBE4070:
.LBB4071:
.LBB4072:
	.loc 3 431 0
	lfs 31,4(5)
	.cfi_offset 70, -76
	.cfi_offset 63, -8
	.cfi_offset 60, -32
	.cfi_offset 59, -40
	.cfi_offset 58, -48
.LBE4072:
.LBE4071:
	.loc 2 844 0
	stw 11,28(1)
.LBB4077:
.LBB4064:
	.loc 8 325 0
	fmadds 4,9,5,4
.LBE4064:
.LBE4077:
	.loc 2 844 0
	stw 0,24(1)
.LBB4078:
.LBB4073:
	.loc 3 431 0
	fsubs 12,31,6
.LBE4073:
.LBE4078:
	.loc 2 845 0
	lis 11,.LC6@ha
	lfs 0,28(1)
.LBB4079:
.LBB4065:
	.loc 8 325 0
	lfs 7,8(8)
	lfs 10,24(1)
.LBE4065:
.LBE4079:
.LBB4080:
.LBB4081:
	.loc 3 435 0
	fmuls 30,12,12
.LBE4081:
.LBE4080:
.LBB4082:
.LBB4074:
	.loc 3 431 0
	lfs 2,0(5)
.LBE4074:
.LBE4082:
	.loc 2 845 0
	lfs 11,.LC6@l(11)
.LBB4083:
.LBB4066:
	.loc 8 325 0
	fmadds 4,10,7,4
.LBE4066:
.LBE4083:
.LBB4084:
.LBB4075:
	.loc 3 431 0
	lfs 3,8(5)
.LBE4075:
.LBE4084:
	.loc 2 845 0
	fsubs 11,11,0
.LVL390:
.LBB4085:
.LBB4076:
	.loc 3 431 0
	fsubs 0,2,5
	fsubs 13,3,7
.LBE4076:
.LBE4085:
.LBB4086:
.LBB4067:
	.loc 8 325 0
	fsubs 4,4,11
.LBE4067:
.LBE4086:
	.loc 3 435 0
	fmadds 30,0,0,30
.LBB4087:
.LBB4088:
	.loc 8 276 0
	fneg 29,11
.LBE4088:
.LBE4087:
	.loc 2 850 0
	fmuls 4,4,4
	.loc 3 435 0
	fmadds 30,13,13,30
.LBB4090:
.LBB4089:
	.loc 8 276 0
	stfs 29,28(1)
.LVL391:
.LBE4089:
.LBE4090:
	.loc 2 850 0
	fcmpu 7,4,30
.LBE4159:
	.loc 2 838 0
	fmr 30,1
.LBB4160:
	.loc 2 850 0
	bgt- 7,.L221
.LVL392:
	.loc 2 856 0
	lis 11,.LC2@ha
.LBB4091:
.LBB4092:
	.loc 3 620 0
	lfs 29,9072(4)
.LBE4092:
.LBE4091:
	.loc 2 856 0
	lfs 4,.LC2@l(11)
.LBB4097:
.LBB4093:
	.loc 3 620 0
	fmuls 28,12,29
.LBE4093:
.LBE4097:
	.loc 2 856 0
	fcmpu 7,1,4
.LBB4098:
.LBB4094:
	.loc 3 620 0
	lfs 4,9080(4)
	lfs 1,9076(4)
.LVL393:
.LBE4094:
.LBE4098:
	.loc 2 856 0
	mfcr 0
	rlwinm 0,0,29,1
.LBB4099:
.LBB4095:
	.loc 3 620 0
	fmuls 27,0,4
	fmuls 26,13,1
.LBE4095:
.LBE4099:
	.loc 2 856 0
	cmpwi 4,0,0
.LBB4100:
.LBB4096:
	.loc 3 620 0
	fmsubs 0,0,1,28
.LVL394:
	fmsubs 13,13,29,27
.LVL395:
	fmsubs 12,12,4,26
.LVL396:
.LBE4096:
.LBE4100:
	.loc 2 856 0
	beq- 4,.L222
.LVL397:
.LBB4101:
.LBB4102:
	.loc 3 420 0
	fneg 12,12
.LVL398:
	fneg 13,13
.LVL399:
	fneg 0,0
.LVL400:
.L222:
.LBE4102:
.LBE4101:
.LBB4103:
.LBB4104:
	.loc 3 435 0
	fmuls 13,8,13
.LVL401:
.LBE4104:
.LBE4103:
	.loc 2 860 0
	lis 11,.LC2@ha
	lfs 28,.LC2@l(11)
	.loc 3 435 0
	fmadds 12,9,12,13
.LVL402:
	fmadds 0,10,0,12
.LVL403:
	.loc 2 860 0
	fcmpu 7,0,28
	cror 30,29,30
	beq- 7,.L244
.LVL404:
.LBB4105:
.LBB4106:
	.loc 8 325 0
	fmuls 8,8,31
.LBE4106:
.LBE4105:
	.loc 2 879 0
	lis 11,.LC13@ha
	lfs 0,.LC13@l(11)
	.loc 2 882 0
	fmr 1,30
	mr 3,28
	mr 4,29
.LVL405:
.LBB4111:
.LBB4107:
	.loc 8 325 0
	fmadds 9,9,2,8
.LBE4107:
.LBE4111:
	.loc 2 882 0
	mr 5,31
.LVL406:
.LBB4112:
.LBB4108:
	.loc 8 325 0
	fmadds 10,10,3,9
	fsubs 11,10,11
.LVL407:
.LBE4108:
.LBE4112:
	.loc 2 879 0
	fcmpu 7,11,0
	cror 30,28,30
	bne- 7,.L242
.L246:
	.loc 2 882 0
	mr 6,7
.LVL408:
	addi 8,1,12
.LVL409:
	addi 7,1,8
.LVL410:
	stw 9,44(1)
	bl _ZN28idCollisionModelManagerLocal22PointFurthestFromPlaneEPK14cm_traceWork_sRK6idVec3RK7idPlanefRfS9_
.LVL411:
	lwz 9,44(1)
	cmpwi 7,3,0
	.loc 2 883 0
	li 3,0
	.loc 2 882 0
	beq- 7,.L221
	.loc 2 886 0
	lis 11,.LC2@ha
.LVL412:
	lfs 13,12(1)
	lfs 0,.LC2@l(11)
	fcmpu 7,13,0
	cror 30,28,30
	bne- 7,.L243
	.loc 2 888 0
	stfs 0,0(9)
.LVL413:
.L230:
.LBB4113:
.LBB4114:
	.loc 3 424 0
	lfs 12,0(31)
	stfs 12,0(26)
	.loc 3 425 0
	lfs 13,4(31)
	stfs 13,4(26)
	.loc 3 426 0
	lfs 0,8(31)
	stfs 0,8(26)
.LBE4114:
.LBE4113:
	.loc 2 910 0
	lfs 1,0(9)
	lis 9,.LC2@ha
	lfs 11,.LC2@l(9)
	fcmpu 7,1,11
	bne- 7,.L245
.L231:
.LVL414:
.LBB4116:
.LBB4117:
	.loc 3 431 0
	lfs 11,0(30)
	lfs 9,4(30)
	lfs 10,8(30)
	fsubs 12,12,11
	fsubs 13,13,9
.LBE4117:
.LBE4116:
.LBB4119:
.LBB4120:
	.loc 3 620 0
	lfs 11,9076(29)
.LBE4120:
.LBE4119:
.LBB4122:
.LBB4118:
	.loc 3 431 0
	fsubs 0,0,10
.LVL415:
.LBE4118:
.LBE4122:
.LBB4123:
.LBB4121:
	.loc 3 620 0
	lfs 9,9080(29)
	lfs 10,9072(29)
	fmuls 7,12,9
	fmuls 6,0,11
	fmuls 8,13,10
	fmsubs 0,0,10,7
.LVL416:
	fmsubs 13,13,9,6
.LVL417:
	fmsubs 12,12,11,8
.LVL418:
.LBE4121:
.LBE4123:
.LBB4124:
.LBB4125:
	.loc 3 425 0
	stfs 0,4(27)
	.loc 3 424 0
	stfs 13,0(27)
	.loc 3 426 0
	stfs 12,8(27)
.LBE4125:
.LBE4124:
	.loc 2 915 0
	beq- 4,.L238
.LVL419:
.LBB4126:
.LBB4127:
	.loc 3 420 0
	fneg 13,13
.LVL420:
.LBE4127:
.LBE4126:
.LBB4129:
.LBB4130:
	.loc 2 918 0
	li 3,1
.LBE4130:
.LBE4129:
.LBB4132:
.LBB4128:
	.loc 3 420 0
	fneg 0,0
.LVL421:
	fneg 12,12
.LVL422:
.LBE4128:
.LBE4132:
.LBB4133:
.LBB4131:
	.loc 3 424 0
	stfs 13,0(27)
	.loc 3 425 0
	stfs 0,4(27)
	.loc 3 426 0
	stfs 12,8(27)
.LVL423:
.L221:
.LBE4131:
.LBE4133:
.LBE4160:
	.loc 2 919 0
	lwz 0,132(1)
	lwz 12,52(1)
	mtlr 0
	lwz 26,56(1)
.LVL424:
	lwz 27,60(1)
	mtcrf 8,12
	lwz 28,64(1)
.LVL425:
	lwz 29,68(1)
.LVL426:
	lwz 30,72(1)
.LVL427:
	lwz 31,76(1)
.LVL428:
	lfd 26,80(1)
	lfd 27,88(1)
	lfd 28,96(1)
	lfd 29,104(1)
	lfd 30,112(1)
.LVL429:
	lfd 31,120(1)
	addi 1,1,128
	.cfi_remember_state
.LCFI29:
	.cfi_def_cfa_offset 0
	.cfi_restore 70
	.cfi_restore 63
	.cfi_restore 62
	.cfi_restore 61
	.cfi_restore 60
	.cfi_restore 59
	.cfi_restore 58
	.cfi_restore 31
	.cfi_restore 30
	.cfi_restore 29
	.cfi_restore 28
	.cfi_restore 27
	.cfi_restore 26
	blr
.LVL430:
.L244:
.LCFI30:
	.cfi_restore_state
.LBB4161:
.LBB4134:
.LBB4135:
	.loc 8 325 0
	lfs 13,4(6)
.LBE4135:
.LBE4134:
	.loc 2 864 0
	li 3,0
.LBB4137:
.LBB4136:
	.loc 8 325 0
	lfs 12,0(6)
	fmuls 3,8,13
	lfs 0,8(6)
	fmadds 3,9,12,3
	fmadds 3,10,0,3
	fsubs 3,3,11
.LBE4136:
.LBE4137:
	.loc 2 863 0
	fcmpu 7,3,28
	cror 30,29,30
	beq- 7,.L221
.LVL431:
.LBB4138:
.LBB4139:
	.loc 3 431 0
	fsubs 5,12,5
	fsubs 6,13,6
	fsubs 7,0,7
.LVL432:
.LBE4139:
.LBE4138:
.LBB4141:
.LBB4142:
	.loc 3 620 0
	fmuls 12,4,5
	fmuls 13,29,6
	fmuls 0,1,7
.LBE4142:
.LBE4141:
.LBB4143:
.LBB4140:
	fmsubs 29,29,7,12
	fmsubs 1,1,5,13
.LVL433:
	fmsubs 4,4,6,0
.LVL434:
.LBE4140:
.LBE4143:
.LBB4144:
.LBB4145:
	.loc 3 425 0
	stfs 29,4(27)
	.loc 3 426 0
	stfs 1,8(27)
	.loc 3 424 0
	stfs 4,0(27)
.LBE4145:
.LBE4144:
	.loc 2 868 0
	beq- 4,.L225
.LVL435:
.LBB4146:
.LBB4147:
	.loc 3 420 0
	fneg 4,4
.LVL436:
	fneg 29,29
.LVL437:
	fneg 1,1
.LVL438:
.LBE4147:
.LBE4146:
.LBB4148:
.LBB4149:
	.loc 3 424 0
	stfs 4,0(27)
	.loc 3 425 0
	stfs 29,4(27)
	.loc 3 426 0
	stfs 1,8(27)
.LVL439:
.L225:
.LBE4149:
.LBE4148:
.LBB4150:
.LBB4151:
	.loc 3 435 0
	fmuls 29,8,29
.LBE4151:
.LBE4150:
	.loc 2 872 0
	lis 11,.LC2@ha
	lfs 0,.LC2@l(11)
	.loc 2 873 0
	li 3,0
	.loc 3 435 0
	fmadds 4,9,4,29
	fmadds 1,10,1,4
	.loc 2 872 0
	fcmpu 7,1,0
	bgt- 7,.L221
	lfs 31,4(31)
	.loc 2 879 0
	lis 11,.LC13@ha
	.loc 2 872 0
	lfs 2,0(31)
	.loc 2 882 0
	fmr 1,30
.LBB4152:
.LBB4109:
	.loc 8 325 0
	fmuls 8,8,31
.LBE4109:
.LBE4152:
	.loc 2 872 0
	lfs 3,8(31)
.LVL440:
	.loc 2 879 0
	lfs 0,.LC13@l(11)
	.loc 2 882 0
	mr 3,28
	mr 4,29
.LVL441:
	mr 5,31
.LVL442:
.LBB4153:
.LBB4110:
	.loc 8 325 0
	fmadds 9,9,2,8
	fmadds 10,10,3,9
	fsubs 11,10,11
.LVL443:
.LBE4110:
.LBE4153:
	.loc 2 879 0
	fcmpu 7,11,0
	cror 30,28,30
	beq- 7,.L246
.LVL444:
.L242:
	.loc 2 903 0
	lis 11,.LC2@ha
	mr 7,9
.LVL445:
	lfs 2,.LC2@l(11)
	addi 6,1,16
.LVL446:
	stw 9,44(1)
	bl _ZN28idCollisionModelManagerLocal23RotatePointThroughPlaneEPK14cm_traceWork_sRK6idVec3RK7idPlaneffRf
.LVL447:
	lwz 9,44(1)
	cmpwi 7,3,0
	.loc 2 904 0
	li 3,0
	.loc 2 903 0
	beq- 7,.L221
.LVL448:
.LBB4154:
.LBB4115:
	.loc 3 424 0
	lfs 12,0(31)
	stfs 12,0(26)
	.loc 3 425 0
	lfs 13,4(31)
	stfs 13,4(26)
	.loc 3 426 0
	lfs 0,8(31)
	stfs 0,8(26)
.LBE4115:
.LBE4154:
	.loc 2 910 0
	lfs 1,0(9)
	lis 9,.LC2@ha
	lfs 11,.LC2@l(9)
	fcmpu 7,1,11
	beq+ 7,.L231
	b .L245
.LVL449:
.L238:
	.loc 2 918 0
	li 3,1
	b .L221
.LVL450:
.L245:
	.loc 2 911 0
	mr 3,26
	addi 4,29,9060
	addi 5,29,9072
	bl _Z14CM_RotatePointR6idVec3RKS_S2_f
	lfs 12,0(26)
	lfs 13,4(26)
	lfs 0,8(26)
	b .L231
.LVL451:
.L243:
.LBB4155:
.LBB4156:
	.loc 7 782 0
	lwz 0,8(1)
.LBE4156:
.LBE4155:
	.loc 2 890 0
	lfs 0,9124(29)
.LBB4158:
.LBB4157:
	.loc 7 782 0
	rlwinm 11,0,0,1,31
	stw 11,40(1)
.LBE4157:
.LBE4158:
	.loc 2 890 0
	lfs 13,40(1)
	fcmpu 7,0,13
	cror 30,28,30
	beq+ 7,.L221
.LVL452:
	.loc 2 896 0
	fmr 1,30
	mr 7,9
	fmr 2,13
	mr 3,28
	mr 4,29
	mr 5,31
	addi 6,1,16
	stw 9,44(1)
	bl _ZN28idCollisionModelManagerLocal23RotatePointThroughPlaneEPK14cm_traceWork_sRK6idVec3RK7idPlaneffRf
.LVL453:
	lwz 9,44(1)
	cmpwi 7,3,0
	bne- 7,.L230
	.loc 2 897 0
	lwz 0,8(1)
	stw 0,0(9)
	b .L230
.LBE4161:
	.cfi_endproc
.LFE2546:
	.size	_ZN28idCollisionModelManagerLocal30RotatePointThroughEpsilonPlaneEPK14cm_traceWork_sRK6idVec3S5_RK7idPlanefS5_RfRS3_SA_, .-_ZN28idCollisionModelManagerLocal30RotatePointThroughEpsilonPlaneEPK14cm_traceWork_sRK6idVec3S5_RK7idPlanefS5_RfRS3_SA_
	.align 2
	.globl _ZN28idCollisionModelManagerLocal29RotateTrmVertexThroughPolygonEP14cm_traceWork_sP12cm_polygon_sP14cm_trmVertex_si
	.type	_ZN28idCollisionModelManagerLocal29RotateTrmVertexThroughPolygonEP14cm_traceWork_sP12cm_polygon_sP14cm_trmVertex_si, @function
_ZN28idCollisionModelManagerLocal29RotateTrmVertexThroughPolygonEP14cm_traceWork_sP12cm_polygon_sP14cm_trmVertex_si:
.LFB2547:
	.loc 2 926 0
	.cfi_startproc
.LVL454:
	mflr 0
	stwu 1,-88(1)
.LCFI31:
	.cfi_def_cfa_offset 88
	.cfi_register 65, 0
	stw 26,56(1)
	mr 26,3
	.cfi_offset 26, -32
	stw 29,68(1)
	mr 29,4
	.cfi_offset 29, -20
	stw 30,72(1)
	mr 30,5
	.cfi_offset 30, -16
	stw 31,76(1)
	mr 31,6
	.cfi_offset 31, -12
	stw 0,92(1)
	stfd 31,80(1)
	stw 27,60(1)
	stw 28,64(1)
.LBB4238:
	.loc 2 933 0
	lbz 0,9055(4)
	.cfi_offset 28, -24
	.cfi_offset 27, -28
	.cfi_offset 63, -8
	.cfi_offset 65, 4
	cmpwi 7,0,0
	beq- 7,.L248
	.loc 2 933 0 is_stmt 0 discriminator 1
	lbz 0,9056(4)
	cmpwi 7,0,0
	beq- 7,.L248
	.loc 2 933 0 discriminator 2
	lwz 0,28(6)
	cmpwi 7,0,0
	bne- 7,.L247
.L248:
.LVL455:
.LBB4239:
.LBB4240:
	.loc 6 362 0 is_stmt 1
	lfs 13,12(30)
	lfs 0,68(31)
	fcmpu 7,13,0
	blt- 7,.L247
.LVL456:
	lfs 13,16(30)
	lfs 0,72(31)
	fcmpu 7,13,0
	blt- 7,.L247
.LVL457:
	lfs 13,20(30)
	lfs 0,76(31)
	fcmpu 7,13,0
	blt- 7,.L247
.LVL458:
	lfs 13,0(30)
	lfs 0,80(31)
	fcmpu 7,13,0
	bgt- 7,.L247
.LVL459:
	lfs 13,4(30)
	lfs 0,84(31)
	fcmpu 7,13,0
	bgt- 7,.L247
.LVL460:
	lfs 13,8(30)
	lfs 0,88(31)
	fcmpu 7,13,0
	bgt- 7,.L247
.LBE4240:
.LBE4239:
	.loc 2 943 0
	lis 9,.LC11@ha
	addi 27,30,36
	lfs 1,.LC11@l(9)
	addi 3,31,68
.LVL461:
	mr 4,27
.LVL462:
	bl _ZNK8idBounds9PlaneSideERK7idPlanef
.LVL463:
	cmpwi 7,3,3
	bne+ 7,.L247
.LVL464:
.LBE4238:
.LBB4241:
.LBB4242:
.LBB4243:
	.loc 2 949 0
	lfs 1,9120(29)
	addi 28,1,32
	mr 3,26
	mr 4,29
	addi 5,31,4
	addi 6,31,16
	mr 7,27
	addi 8,31,56
	addi 9,1,16
	addi 10,1,20
	stw 28,8(1)
	bl _ZN28idCollisionModelManagerLocal30RotatePointThroughEpsilonPlaneEPK14cm_traceWork_sRK6idVec3S5_RK7idPlanefS5_RfRS3_SA_
	.loc 2 948 0
	cmpwi 7,3,0
	beq- 7,.L247
.LVL465:
.LBB4244:
.LBB4245:
	.loc 7 782 0
	lwz 7,16(1)
.LBE4245:
.LBE4244:
	.loc 2 953 0
	lfs 0,9124(29)
.LBB4247:
.LBB4246:
	.loc 7 782 0
	rlwinm 7,7,0,1,31
.LBE4246:
.LBE4247:
	.loc 2 953 0
	stw 7,48(1)
	lfs 13,48(1)
	fcmpu 7,13,0
	bnl+ 7,.L247
.LVL466:
	.loc 2 956 0
	lwz 0,52(30)
.LBB4248:
.LBB4249:
.LBB4250:
.LBB4251:
	.loc 3 402 0
	lfs 5,0(28)
.LBE4251:
.LBE4250:
.LBB4252:
.LBB4253:
	lfs 9,4(28)
.LBE4253:
.LBE4252:
.LBE4249:
.LBE4248:
	.loc 2 956 0
	cmpwi 7,0,0
.LBB4267:
.LBB4266:
.LBB4254:
.LBB4255:
	.loc 3 402 0
	lfs 1,24(1)
.LBE4255:
.LBE4254:
.LBB4257:
.LBB4258:
	lfs 2,28(1)
.LBE4258:
.LBE4257:
	.loc 4 259 0
	fmuls 7,5,1
.LBB4260:
.LBB4261:
	.loc 3 402 0
	lfs 3,8(28)
.LBE4261:
.LBE4260:
	.loc 4 260 0
	fmuls 6,5,2
.LBB4262:
.LBB4263:
	.loc 3 402 0
	lfs 31,20(1)
.LVL467:
.LBE4263:
.LBE4262:
	.loc 4 262 0
	fmuls 4,9,2
	.loc 4 261 0
	fneg 5,5
.LBB4264:
.LBB4259:
	.loc 4 260 0
	fmsubs 6,31,3,6
.LBE4259:
.LBE4264:
	.loc 4 262 0
	fmsubs 4,1,3,4
.LBB4265:
.LBB4256:
	.loc 4 259 0
	fmsubs 7,31,9,7
.LVL468:
.LBE4256:
.LBE4265:
	.loc 4 263 0
	fneg 3,3
.LVL469:
.LBE4266:
.LBE4267:
	.loc 2 956 0
	ble- 7,.L252
	.loc 2 963 0
	lis 9,.LC2@ha
	.loc 2 956 0
	mr 10,30
	li 11,0
	.loc 2 963 0
	lfs 8,.LC2@l(9)
	mtctr 0
	b .L255
.LVL470:
.L253:
.LBB4268:
.LBB4269:
	.loc 4 317 0
	lfs 0,20(9)
.LBE4269:
.LBE4268:
	lfs 13,16(9)
.LBB4271:
.LBB4270:
	fmuls 0,6,0
.LBE4270:
.LBE4271:
	lfs 10,12(9)
	lfs 11,4(8)
	lfs 12,4(9)
	fmadds 0,7,13,0
	lfs 13,8(9)
	fmadds 0,5,10,0
	fmadds 0,3,11,0
	fmadds 0,9,12,0
	fmadds 0,4,13,0
	.loc 2 963 0
	fcmpu 7,0,8
	blt- 7,.L247
.LVL471:
.L254:
	.loc 2 956 0
	addi 11,11,1
.LVL472:
	bdz .L252
.LVL473:
.L255:
	.loc 2 957 0
	lwz 0,56(10)
	.loc 2 963 0
	mulli 8,11,24
	.loc 2 956 0
	addi 10,10,4
	.loc 2 957 0
	cmpwi 7,0,0
	.loc 2 963 0
	addi 8,8,9248
	add 8,29,8
	addi 9,8,4
	.loc 2 957 0
	bge+ 7,.L253
.LBB4272:
.LBB4273:
	.loc 4 317 0
	lfs 0,20(9)
.LBE4273:
.LBE4272:
	.loc 2 958 0
	mulli 8,11,24
	.loc 4 317 0
	lfs 13,16(9)
.LBB4275:
.LBB4274:
	fmuls 0,6,0
.LBE4274:
.LBE4275:
	lfs 10,12(9)
	.loc 2 958 0
	addi 8,8,9248
	.loc 4 317 0
	lfs 12,4(9)
	.loc 2 958 0
	add 8,29,8
.LVL474:
	.loc 4 317 0
	fmadds 0,7,13,0
	lfs 11,4(8)
	lfs 13,8(9)
	fmadds 0,5,10,0
	fmadds 0,3,11,0
	fmadds 0,9,12,0
	fmadds 0,4,13,0
	.loc 2 958 0
	fcmpu 7,0,8
	bng+ 7,.L254
.LVL475:
.L247:
.LBE4243:
.LBE4242:
.LBE4241:
	.loc 2 979 0
	lwz 0,92(1)
	lwz 26,56(1)
.LVL476:
	mtlr 0
	lwz 27,60(1)
	lwz 28,64(1)
	lwz 29,68(1)
.LVL477:
	lwz 30,72(1)
.LVL478:
	lwz 31,76(1)
.LVL479:
	lfd 31,80(1)
	addi 1,1,88
	.cfi_remember_state
.LCFI32:
	.cfi_def_cfa_offset 0
	.cfi_restore 63
	.cfi_restore 31
	.cfi_restore 30
	.cfi_restore 29
	.cfi_restore 28
	.cfi_restore 27
	.cfi_restore 26
	blr
.LVL480:
.L252:
.LCFI33:
	.cfi_restore_state
.LBB4290:
.LBB4289:
.LBB4288:
	.loc 2 968 0
	stw 7,9124(29)
.LVL481:
	.loc 2 976 0
	addi 11,29,4
	subf 11,11,31
.LBB4276:
.LBB4277:
	.loc 3 424 0
	lwz 0,36(30)
.LBE4277:
.LBE4276:
	.loc 2 976 0
	srawi 11,11,2
.LBB4281:
.LBB4278:
	.loc 3 424 0
	stw 0,9012(29)
	.loc 3 425 0
	lwz 0,40(30)
	stw 0,9016(29)
.LBE4278:
.LBE4281:
	.loc 2 976 0
	lis 0,0xe9bd
	ori 0,0,14247
.LBB4282:
.LBB4279:
	.loc 3 426 0
	lwz 9,44(30)
.LBE4279:
.LBE4282:
	.loc 2 976 0
	mullw 0,11,0
	.loc 2 974 0
	li 11,3
.LBB4283:
.LBB4280:
	.loc 3 426 0
	stw 9,9020(29)
.LBE4280:
.LBE4283:
.LBB4284:
.LBB4285:
	.loc 8 272 0
	lfs 0,48(30)
	fneg 0,0
.LBE4285:
.LBE4284:
	.loc 2 971 0
	stfs 0,9024(29)
	.loc 2 972 0
	lwz 9,28(30)
	stw 9,9028(29)
	.loc 2 973 0
	lwz 9,32(30)
	.loc 2 974 0
	stw 11,8996(29)
	.loc 2 973 0
	stw 9,9032(29)
	.loc 2 975 0
	stw 30,9036(29)
	.loc 2 976 0
	stw 0,9040(29)
.LVL482:
.LBB4286:
.LBB4287:
	.loc 3 424 0
	stfs 31,9000(29)
	.loc 3 425 0
	stfs 1,9004(29)
	.loc 3 426 0
	stfs 2,9008(29)
	b .L247
.LBE4287:
.LBE4286:
.LBE4288:
.LBE4289:
.LBE4290:
	.cfi_endproc
.LFE2547:
	.size	_ZN28idCollisionModelManagerLocal29RotateTrmVertexThroughPolygonEP14cm_traceWork_sP12cm_polygon_sP14cm_trmVertex_si, .-_ZN28idCollisionModelManagerLocal29RotateTrmVertexThroughPolygonEP14cm_traceWork_sP12cm_polygon_sP14cm_trmVertex_si
	.align 2
	.globl _ZN28idCollisionModelManagerLocal29RotateVertexThroughTrmPolygonEP14cm_traceWork_sP15cm_trmPolygon_sP12cm_polygon_sP11cm_vertex_sR6idVec3
	.type	_ZN28idCollisionModelManagerLocal29RotateVertexThroughTrmPolygonEP14cm_traceWork_sP15cm_trmPolygon_sP12cm_polygon_sP11cm_vertex_sR6idVec3, @function
_ZN28idCollisionModelManagerLocal29RotateVertexThroughTrmPolygonEP14cm_traceWork_sP15cm_trmPolygon_sP12cm_polygon_sP11cm_vertex_sR6idVec3:
.LFB2548:
	.loc 2 986 0
	.cfi_startproc
.LVL483:
	mflr 0
	stwu 1,-96(1)
.LCFI34:
	.cfi_def_cfa_offset 96
	.cfi_register 65, 0
	stw 27,76(1)
	mr 27,6
	.cfi_offset 27, -20
	stw 28,80(1)
	mr 28,3
	.cfi_offset 28, -16
	stw 29,84(1)
	mr 29,7
	.cfi_offset 29, -12
	stw 30,88(1)
	mr 30,5
	.cfi_offset 30, -8
	stw 31,92(1)
	mr 31,4
	.cfi_offset 31, -4
	stw 0,100(1)
	stw 26,72(1)
.LBB4392:
	.loc 2 994 0
	lbz 0,9055(4)
	.cfi_offset 26, -24
	.cfi_offset 65, 4
	cmpwi 7,0,0
	beq- 7,.L262
	.loc 2 994 0 is_stmt 0 discriminator 1
	lbz 0,9056(4)
	cmpwi 7,0,0
	bne- 7,.L263
.L262:
.LBB4393:
.LBB4394:
	.loc 3 426 0 is_stmt 1
	lfs 0,0(29)
.L264:
.LVL484:
.LBE4394:
.LBE4393:
.LBB4396:
.LBB4397:
	.loc 6 354 0
	lfs 13,88(30)
	fcmpu 7,13,0
	bng- 7,.L281
.LVL485:
.L261:
.LBE4397:
.LBE4396:
.LBE4392:
	.loc 2 1049 0
	lwz 0,100(1)
	lwz 26,72(1)
	mtlr 0
	lwz 27,76(1)
.LVL486:
	lwz 28,80(1)
.LVL487:
	lwz 29,84(1)
.LVL488:
	lwz 30,88(1)
	lwz 31,92(1)
.LVL489:
	addi 1,1,96
	.cfi_remember_state
.LCFI35:
	.cfi_def_cfa_offset 0
	.cfi_restore 31
	.cfi_restore 30
	.cfi_restore 29
	.cfi_restore 28
	.cfi_restore 27
	.cfi_restore 26
	blr
.LVL490:
.L281:
.LCFI36:
	.cfi_restore_state
.LBB4540:
.LBB4403:
.LBB4402:
.LBB4398:
.LBB4399:
	.loc 3 402 0
	lfs 11,4(29)
.LVL491:
.LBE4399:
.LBE4398:
	.loc 6 354 0
	lfs 13,92(30)
	fcmpu 7,11,13
	blt- 7,.L261
.LVL492:
.LBB4400:
.LBB4401:
	.loc 3 402 0
	lfs 8,8(29)
.LVL493:
.LBE4401:
.LBE4400:
	.loc 6 354 0
	lfs 13,96(30)
	fcmpu 7,8,13
	blt- 7,.L261
.LVL494:
	lfs 13,100(30)
	fcmpu 7,13,0
	blt- 7,.L261
.LVL495:
	lfs 13,104(30)
	fcmpu 7,11,13
	bgt- 7,.L261
.LVL496:
	lfs 13,108(30)
	fcmpu 7,8,13
	bgt- 7,.L261
.LVL497:
.LBE4402:
.LBE4403:
.LBB4404:
.LBB4405:
	.loc 3 431 0
	lfs 9,4(8)
.LBE4405:
.LBE4404:
	.loc 2 1005 0
	lis 9,.LC7@ha
.LBB4408:
.LBB4406:
	.loc 3 431 0
	lfs 10,0(8)
	fsubs 9,11,9
	lfs 13,8(8)
	fsubs 10,0,10
.LBE4406:
.LBE4408:
	.loc 2 1005 0
	lfs 12,.LC7@l(9)
.LBB4409:
.LBB4407:
	.loc 3 431 0
	fsubs 13,8,13
.LVL498:
.LBE4407:
.LBE4409:
.LBB4410:
.LBB4411:
	.loc 3 435 0
	fmuls 9,9,9
.LVL499:
.LBE4411:
.LBE4410:
	fmadds 10,10,10,9
.LVL500:
	fmadds 13,13,13,10
.LVL501:
	.loc 2 1005 0
	fcmpu 7,13,12
	blt+ 7,.L261
.LVL502:
.LBB4412:
.LBB4413:
	.file 9 "d:/Data/Nintendo/DoomGX/src/cm/../idlib/../idlib/math/Rotation.h"
	.loc 9 205 0
	lbz 0,9196(31)
.LBE4413:
.LBE4412:
.LBB4473:
.LBB4474:
	.loc 3 424 0
	stfs 0,44(1)
.LBE4474:
.LBE4473:
.LBB4476:
.LBB4461:
	.loc 9 205 0
	cmpwi 7,0,0
.LBE4461:
.LBE4476:
.LBB4477:
.LBB4475:
	.loc 3 425 0
	stfs 11,48(1)
	.loc 3 426 0
	stfs 8,52(1)
.LVL503:
.LBE4475:
.LBE4477:
.LBB4478:
.LBB4462:
	.loc 9 205 0
	bne+ 7,.L267
	.loc 9 206 0
	addi 3,31,9132
.LVL504:
	stw 8,64(1)
	bl _ZNK10idRotation6ToMat3Ev
.LVL505:
	lfs 0,44(1)
	lfs 11,48(1)
	lfs 8,52(1)
	lwz 8,64(1)
.L267:
.LVL506:
.LBB4414:
.LBB4415:
	.loc 3 431 0
	lfs 6,9136(31)
.LBE4415:
.LBE4414:
.LBE4462:
.LBE4478:
	.loc 2 1015 0
	addi 26,1,32
.LBB4479:
.LBB4463:
.LBB4421:
.LBB4416:
	.loc 3 431 0
	lfs 9,9132(31)
.LBE4416:
.LBE4421:
.LBE4463:
.LBE4479:
	.loc 2 1015 0
	mr 3,28
.LBB4480:
.LBB4464:
.LBB4422:
.LBB4417:
	.loc 3 431 0
	fsubs 11,11,6
.LBE4417:
.LBE4422:
.LBB4423:
.LBB4424:
.LBB4425:
	.loc 5 454 0
	lfs 7,9180(31)
	lfs 12,9172(31)
.LBE4425:
.LBE4424:
.LBE4423:
.LBB4434:
.LBB4418:
	.loc 3 431 0
	fsubs 10,0,9
.LBE4418:
.LBE4434:
.LBB4435:
.LBB4430:
.LBB4426:
	.loc 5 454 0
	lfs 13,9176(31)
.LBE4426:
.LBE4430:
.LBE4435:
.LBE4464:
.LBE4480:
	.loc 2 1015 0
	mr 4,31
.LBB4481:
.LBB4465:
.LBB4436:
.LBB4431:
.LBB4427:
	.loc 5 454 0
	fmuls 0,11,7
.LBE4427:
.LBE4431:
.LBE4436:
.LBB4437:
.LBB4438:
	lfs 5,9168(31)
.LBE4438:
.LBE4437:
.LBB4447:
.LBB4432:
.LBB4428:
	fmuls 13,11,13
.LBE4428:
.LBE4432:
.LBE4447:
.LBB4448:
.LBB4419:
	.loc 3 431 0
	lfs 7,9140(31)
.LBE4419:
.LBE4448:
.LBB4449:
.LBB4433:
.LBB4429:
	.loc 5 454 0
	fmuls 11,11,12
.LBE4429:
.LBE4433:
.LBE4449:
.LBB4450:
.LBB4439:
	lfs 4,9164(31)
	lfs 12,9160(31)
.LBE4439:
.LBE4450:
.LBB4451:
.LBB4420:
	.loc 3 431 0
	fsubs 8,8,7
.LVL507:
.LBE4420:
.LBE4451:
.LBB4452:
.LBB4440:
	.loc 5 454 0
	fmadds 13,10,4,13
.LBE4440:
.LBE4452:
.LBE4465:
.LBE4481:
	.loc 2 1015 0
	lfs 1,9120(31)
.LBB4482:
.LBB4466:
.LBB4453:
.LBB4441:
	.loc 5 454 0
	fmadds 0,10,5,0
	lfs 5,9188(31)
	fmadds 10,10,12,11
.LVL508:
	lfs 12,9184(31)
	lfs 11,9192(31)
	fmadds 13,8,5,13
.LBE4441:
.LBE4453:
.LBE4466:
.LBE4482:
	.loc 2 1015 0
	fneg 1,1
	mr 5,29
.LBB4483:
.LBB4467:
.LBB4454:
.LBB4442:
	.loc 5 454 0
	fmadds 0,8,11,0
.LBE4442:
.LBE4454:
.LBE4467:
.LBE4483:
	.loc 2 1015 0
	addi 6,1,44
.LBB4484:
.LBB4468:
.LBB4455:
.LBB4443:
	.loc 5 454 0
	fmadds 8,8,12,10
.LVL509:
.LBE4443:
.LBE4455:
.LBE4468:
.LBE4484:
	.loc 2 1015 0
	addi 7,30,4
.LBB4485:
.LBB4469:
.LBB4456:
.LBB4444:
	.loc 3 452 0
	fadds 13,6,13
.LBE4444:
.LBE4456:
.LBE4469:
.LBE4485:
	.loc 2 1015 0
	addi 9,1,16
.LBB4486:
.LBB4470:
.LBB4457:
.LBB4445:
	.loc 3 452 0
	fadds 0,7,0
.LVL510:
.LBE4445:
.LBE4457:
.LBE4470:
.LBE4486:
	.loc 2 1015 0
	addi 10,1,20
.LBB4487:
.LBB4471:
.LBB4458:
.LBB4446:
	.loc 3 452 0
	fadds 12,9,8
.LBE4446:
.LBE4458:
.LBE4471:
.LBE4487:
	.loc 2 1015 0
	stw 26,8(1)
.LBB4488:
.LBB4472:
.LBB4459:
.LBB4460:
	.loc 3 425 0
	stfs 13,48(1)
	.loc 3 426 0
	stfs 0,52(1)
	.loc 3 424 0
	stfs 12,44(1)
.LBE4460:
.LBE4459:
.LBE4472:
.LBE4488:
	.loc 2 1015 0
	bl _ZN28idCollisionModelManagerLocal30RotatePointThroughEpsilonPlaneEPK14cm_traceWork_sRK6idVec3S5_RK7idPlanefS5_RfRS3_SA_
.LVL511:
	.loc 2 1014 0
	cmpwi 7,3,0
	beq- 7,.L261
.LVL512:
.LBB4489:
.LBB4490:
	.loc 7 781 0
	lwz 0,16(1)
.LBE4490:
.LBE4489:
	.loc 2 1019 0
	lfs 0,9124(31)
.LBB4492:
.LBB4491:
	.loc 7 781 0
	rlwinm 0,0,0,1,31
.LBE4491:
.LBE4492:
	.loc 2 1019 0
	stw 0,68(1)
	lfs 13,68(1)
	fcmpu 7,0,13
	bng+ 7,.L261
	.loc 2 1021 0
	lwz 4,8840(31)
	mr 3,28
	bl _ZN28idCollisionModelManagerLocal17ensureModelLoadedEP10cm_model_s
.LVL513:
	.loc 2 1024 0
	lwz 0,20(30)
.LBB4493:
.LBB4494:
.LBB4495:
.LBB4496:
	.loc 3 402 0
	lfs 6,0(26)
.LBE4496:
.LBE4495:
.LBB4497:
.LBB4498:
	lfs 9,4(26)
.LBE4498:
.LBE4497:
.LBE4494:
.LBE4493:
	.loc 2 1024 0
	cmpwi 7,0,0
.LBB4512:
.LBB4511:
.LBB4499:
.LBB4500:
	.loc 3 402 0
	lfs 0,24(1)
.LBE4500:
.LBE4499:
.LBB4502:
.LBB4503:
	lfs 5,28(1)
.LBE4503:
.LBE4502:
	.loc 4 259 0
	fmuls 8,6,0
.LBB4505:
.LBB4506:
	.loc 3 402 0
	lfs 4,8(26)
.LBE4506:
.LBE4505:
	.loc 4 260 0
	fmuls 7,6,5
.LBB4507:
.LBB4508:
	.loc 3 402 0
	lfs 13,20(1)
.LVL514:
.LBE4508:
.LBE4507:
	.loc 4 262 0
	fmuls 5,9,5
	.loc 4 261 0
	fneg 6,6
.LBB4509:
.LBB4504:
	.loc 4 260 0
	fmsubs 7,13,4,7
.LBE4504:
.LBE4509:
	.loc 4 262 0
	fmsubs 5,0,4,5
.LBB4510:
.LBB4501:
	.loc 4 259 0
	fmsubs 8,13,9,8
.LVL515:
.LBE4501:
.LBE4510:
	.loc 4 263 0
	fneg 4,4
.LVL516:
.LBE4511:
.LBE4512:
	.loc 2 1024 0
	ble- 7,.L269
	.loc 2 1033 0
	lis 9,.LC2@ha
	mtctr 0
	lfs 3,.LC2@l(9)
	.loc 2 986 0
	addi 11,30,20
.LVL517:
.L272:
	.loc 2 1025 0
	lwzu 0,4(11)
.LVL518:
	.loc 2 1026 0
	srawi 10,0,31
	.loc 2 1027 0
	cmpwi 7,0,0
	.loc 2 1026 0
	xor 9,10,0
	subf 9,10,9
	mulli 9,9,124
	add 9,31,9
	addi 9,9,2952
.LVL519:
.LBB4513:
.LBB4514:
	.loc 4 317 0
	lfs 0,56(9)
.LBE4514:
.LBE4513:
	lfs 13,52(9)
.LBB4516:
.LBB4515:
	fmuls 0,7,0
.LBE4515:
.LBE4516:
	lfs 10,48(9)
	lfs 11,36(9)
	lfs 12,40(9)
	fmadds 0,8,13,0
	lfs 13,44(9)
	fmadds 0,6,10,0
	fmadds 0,4,11,0
	fmadds 0,9,12,0
	fmadds 0,5,13,0
	.loc 2 1027 0
	blt- 7,.L282
.LVL520:
	.loc 2 1033 0
	fcmpu 7,0,3
	blt- 7,.L261
.LVL521:
.L271:
	.loc 2 1024 0
	bdnz .L272
.LVL522:
.L269:
.LBB4517:
.LBB4518:
	.loc 7 781 0
	lwz 0,16(1)
.LBE4518:
.LBE4517:
	.loc 2 1044 0
	li 10,2
	.loc 2 1045 0
	lwz 9,8840(31)
.LBB4520:
.LBB4519:
	.loc 7 781 0
	rlwinm 0,0,0,1,31
.LBE4519:
.LBE4520:
	.loc 2 1038 0
	stw 0,9124(31)
.LVL523:
	.loc 2 1046 0
	addi 0,31,7048
.LBB4521:
.LBB4522:
	.loc 3 420 0
	lfs 13,4(30)
	lfs 12,8(30)
	lfs 0,12(30)
	fneg 13,13
	fneg 12,12
.LBE4522:
.LBE4521:
	.loc 2 1046 0
	subf 30,0,30
.LVL524:
.LBB4524:
.LBB4523:
	.loc 3 420 0
	fneg 0,0
.LVL525:
.LBE4523:
.LBE4524:
	.loc 2 1046 0
	lis 0,0xb6db
.LBB4525:
.LBB4526:
	.loc 3 424 0
	stfs 13,9012(31)
.LBE4526:
.LBE4525:
	.loc 2 1046 0
	srawi 30,30,4
.LBB4529:
.LBB4527:
	.loc 3 425 0
	stfs 12,9016(31)
.LBE4527:
.LBE4529:
	.loc 2 1046 0
	ori 0,0,28087
.LBB4530:
.LBB4528:
	.loc 3 426 0
	stfs 0,9020(31)
.LVL526:
.LBE4528:
.LBE4530:
	.loc 2 1046 0
	mullw 0,30,0
.LBB4531:
.LBB4532:
	.loc 3 435 0
	lfs 11,4(29)
.LBE4532:
.LBE4531:
	lfs 10,0(29)
.LBB4534:
.LBB4533:
	fmuls 12,12,11
.LVL527:
.LBE4533:
.LBE4534:
	lfs 11,8(29)
	fmadds 13,13,10,12
.LVL528:
	fmadds 0,0,11,13
.LVL529:
	.loc 2 1041 0
	stfs 0,9024(31)
	.loc 2 1042 0
	lwz 11,28(27)
	stw 11,9028(31)
	.loc 2 1043 0
	lwz 11,32(27)
	.loc 2 1044 0
	stw 10,8996(31)
	.loc 2 1043 0
	stw 11,9032(31)
	.loc 2 1045 0
	lwz 9,72(9)
	.loc 2 1046 0
	stw 0,9040(31)
.LVL530:
	.loc 2 1045 0
	lis 0,0xaaaa
	subf 9,9,29
	ori 0,0,43691
	srawi 9,9,3
	mullw 0,9,0
	stw 0,9036(31)
.LBB4535:
.LBB4395:
	.loc 3 424 0
	lwz 0,0(29)
	stw 0,9000(31)
	.loc 3 425 0
	lwz 0,4(29)
	stw 0,9004(31)
	.loc 3 426 0
	lwz 0,8(29)
	stw 0,9008(31)
	b .L261
.LVL531:
.L263:
.LBE4395:
.LBE4535:
.LBB4536:
.LBB4537:
	.loc 8 325 0 discriminator 3
	lfs 13,4(7)
.LBE4537:
.LBE4536:
	.loc 2 994 0 discriminator 3
	lis 9,.LC2@ha
.LBB4539:
.LBB4538:
	.loc 8 325 0 discriminator 3
	lfs 11,8(5)
	lfs 12,4(5)
	fmuls 11,11,13
	lfs 0,0(7)
	lfs 10,12(5)
	lfs 13,16(5)
	fmadds 11,12,0,11
	lfs 12,8(7)
	fmadds 12,10,12,11
	fadds 12,12,13
.LBE4538:
.LBE4539:
	.loc 2 994 0 discriminator 3
	lfs 13,.LC2@l(9)
	fcmpu 7,12,13
	bnl- 7,.L264
.LBE4540:
	.loc 2 1049 0
	lwz 0,100(1)
	lwz 26,72(1)
	mtlr 0
	lwz 27,76(1)
.LVL532:
	lwz 28,80(1)
.LVL533:
	lwz 29,84(1)
.LVL534:
	lwz 30,88(1)
	lwz 31,92(1)
.LVL535:
	addi 1,1,96
	.cfi_remember_state
	.cfi_restore 26
	.cfi_restore 27
	.cfi_restore 28
	.cfi_restore 29
	.cfi_restore 30
	.cfi_restore 31
.LCFI37:
	.cfi_def_cfa_offset 0
	blr
.LVL536:
.L282:
.LCFI38:
	.cfi_restore_state
.LBB4541:
	.loc 2 1028 0
	fcmpu 7,0,3
	bng+ 7,.L271
	b .L261
.LBE4541:
	.cfi_endproc
.LFE2548:
	.size	_ZN28idCollisionModelManagerLocal29RotateVertexThroughTrmPolygonEP14cm_traceWork_sP15cm_trmPolygon_sP12cm_polygon_sP11cm_vertex_sR6idVec3, .-_ZN28idCollisionModelManagerLocal29RotateVertexThroughTrmPolygonEP14cm_traceWork_sP15cm_trmPolygon_sP12cm_polygon_sP11cm_vertex_sR6idVec3
	.align 2
	.globl _ZN28idCollisionModelManagerLocal23RotateTrmThroughPolygonEP14cm_traceWork_sP12cm_polygon_s
	.type	_ZN28idCollisionModelManagerLocal23RotateTrmThroughPolygonEP14cm_traceWork_sP12cm_polygon_s, @function
_ZN28idCollisionModelManagerLocal23RotateTrmThroughPolygonEP14cm_traceWork_sP12cm_polygon_s:
.LFB2549:
	.loc 2 1058 0
	.cfi_startproc
.LVL537:
	mflr 0
	stwu 1,-64(1)
.LCFI39:
	.cfi_def_cfa_offset 64
	.cfi_register 65, 0
	stw 28,48(1)
.LBB4651:
	.loc 2 1070 0
	li 28,0
	.cfi_offset 28, -16
.LBE4651:
	.loc 2 1058 0
	stw 29,52(1)
	mr 29,3
	.cfi_offset 29, -12
	stw 30,56(1)
	mr 30,4
	.cfi_offset 30, -8
	stw 31,60(1)
	mr 31,5
	.cfi_offset 31, -4
	stw 0,68(1)
	stw 21,20(1)
	stw 22,24(1)
	stw 23,28(1)
	stw 24,32(1)
	stw 25,36(1)
	stw 26,40(1)
	stw 27,44(1)
.LBB4700:
	.loc 2 1069 0
	lwz 0,44(3)
	.cfi_offset 27, -20
	.cfi_offset 26, -24
	.cfi_offset 25, -28
	.cfi_offset 24, -32
	.cfi_offset 23, -36
	.cfi_offset 22, -40
	.cfi_offset 21, -44
	.cfi_offset 65, 4
	lwz 9,24(5)
	cmpw 7,9,0
	beq- 7,.L284
	.loc 2 1072 0
	stw 0,24(5)
	.loc 2 1075 0
	lwz 0,28(5)
	lwz 9,8940(4)
	and. 10,9,0
	beq- 0,.L284
.LVL538:
.LBB4652:
.LBB4653:
	.loc 6 362 0
	lfs 13,12(5)
	lfs 0,8880(4)
	fcmpu 7,13,0
	blt- 7,.L284
.LVL539:
	lfs 13,16(5)
	lfs 0,8884(4)
	fcmpu 7,13,0
	blt- 7,.L284
.LVL540:
	lfs 13,20(5)
	lfs 0,8888(4)
	fcmpu 7,13,0
	blt- 7,.L284
.LVL541:
	lfs 13,0(5)
	lfs 0,8892(4)
	fcmpu 7,13,0
	bgt- 7,.L284
.LVL542:
	lfs 13,4(5)
	lfs 0,8896(4)
	fcmpu 7,13,0
	bgt- 7,.L284
.LVL543:
	lfs 13,8(5)
	lfs 0,8900(4)
	fcmpu 7,13,0
	bgt- 7,.L284
.LBE4653:
.LBE4652:
	.loc 2 1085 0
	lbz 0,9055(4)
	cmpwi 7,0,0
	beq- 7,.L286
.LVL544:
.LBB4654:
.LBB4655:
	.loc 8 325 0
	lfs 13,40(31)
.LBE4655:
.LBE4654:
	.loc 2 1087 0
	lis 11,.LC2@ha
.LBB4657:
.LBB4656:
	.loc 8 325 0
	lfs 0,8848(30)
	lfs 12,36(31)
	fmuls 0,13,0
	lfs 13,8844(30)
	lfs 11,44(31)
	fmadds 12,12,13,0
	lfs 13,8852(30)
	lfs 0,48(31)
	fmadds 13,11,13,12
	fadds 13,13,0
.LBE4656:
.LBE4657:
	.loc 2 1087 0
	lfs 0,.LC2@l(11)
	fcmpu 7,13,0
	bnl- 7,.L286
	.loc 2 1089 0
	lbz 0,9056(30)
	.loc 2 1090 0
	li 28,0
	.loc 2 1089 0
	cmpwi 7,0,0
	bne- 7,.L284
.LVL545:
.L286:
	.loc 2 1102 0
	mr 3,31
.LVL546:
	addi 4,30,9212
.LVL547:
	bl _ZNK8idBounds13PlaneDistanceERK7idPlane
.LVL548:
	.loc 2 1103 0
	lfs 0,9228(30)
.LBB4658:
.LBB4659:
	.loc 7 781 0
	stfs 1,12(1)
.LBE4659:
.LBE4658:
	.loc 2 1104 0
	li 28,0
.LBB4661:
.LBB4660:
	.loc 7 781 0
	lwz 0,12(1)
	rlwinm 0,0,0,1,31
	stw 0,8(1)
.LBE4660:
.LBE4661:
	.loc 2 1103 0
	lfs 13,8(1)
	fcmpu 7,0,13
	blt+ 7,.L284
	.loc 2 1108 0
	lis 9,.LC11@ha
	addi 3,30,8880
	lfs 1,.LC11@l(9)
.LVL549:
	addi 4,31,36
	bl _ZNK8idBounds9PlaneSideERK7idPlanef
.LVL550:
	cmpwi 0,3,0
	bne- 0,.L341
	.loc 2 1112 0
	lwz 9,8840(30)
	lbz 0,60(9)
	cmpwi 7,0,0
	beq- 7,.L284
	.loc 2 1113 0
	li 0,1
	.loc 2 1114 0
	li 28,1
	.loc 2 1113 0
	stb 0,9058(30)
.LVL551:
.L284:
.LBE4700:
	.loc 2 1209 0
	lwz 0,68(1)
	mr 3,28
	lwz 21,20(1)
	mtlr 0
	lwz 22,24(1)
	lwz 23,28(1)
	lwz 24,32(1)
	lwz 25,36(1)
	lwz 26,40(1)
	lwz 27,44(1)
	lwz 28,48(1)
	lwz 29,52(1)
.LVL552:
	lwz 30,56(1)
.LVL553:
	lwz 31,60(1)
.LVL554:
	addi 1,1,64
	.cfi_remember_state
.LCFI40:
	.cfi_def_cfa_offset 0
	.cfi_restore 31
	.cfi_restore 30
	.cfi_restore 29
	.cfi_restore 28
	.cfi_restore 27
	.cfi_restore 26
	.cfi_restore 25
	.cfi_restore 24
	.cfi_restore 23
	.cfi_restore 22
	.cfi_restore 21
	blr
.LVL555:
.L341:
.LCFI41:
	.cfi_restore_state
.LBB4701:
	.loc 2 1108 0
	cmpwi 7,3,3
	bne+ 7,.L284
.LVL556:
	.loc 2 1120 0 discriminator 1
	lwz 0,0(30)
	li 11,0
	cmpwi 7,0,0
	ble- 7,.L291
.LVL557:
.L329:
	.loc 2 1121 0 discriminator 2
	mulli 9,11,92
.LBB4662:
.LBB4663:
	.loc 8 325 0 discriminator 2
	lfs 13,40(31)
	lfs 12,36(31)
.LBE4663:
.LBE4662:
	.loc 2 1120 0 discriminator 2
	addi 11,11,1
	.loc 2 1121 0 discriminator 2
	add 9,30,9
.LVL558:
.LBB4665:
.LBB4664:
	.loc 8 325 0 discriminator 2
	lfs 11,44(31)
	lfs 0,12(9)
	fmuls 0,13,0
	lfs 13,8(9)
	fmadds 12,12,13,0
	lfs 13,16(9)
	lfs 0,48(31)
	fmadds 13,11,13,12
	fadds 0,13,0
	stfs 0,12(1)
	lwz 0,12(1)
.LBE4664:
.LBE4665:
	.loc 2 1124 0 discriminator 2
	srwi 0,0,31
	stw 0,32(9)
	.loc 2 1120 0 discriminator 2
	lwz 0,0(30)
	cmpw 7,0,11
	bgt+ 7,.L329
.LVL559:
.L291:
	.loc 2 1127 0
	lwz 4,8840(30)
	mr 3,29
	bl _ZN28idCollisionModelManagerLocal17ensureModelLoadedEP10cm_model_s
.LVL560:
	.loc 2 1129 0
	lwz 0,52(31)
	cmpwi 7,0,0
	ble- 7,.L292
	mr 4,31
	li 7,0
.LVL561:
.L293:
	.loc 2 1130 0 discriminator 2
	lwz 3,56(4)
.LVL562:
	.loc 2 1136 0 discriminator 2
	mulli 8,7,24
	.loc 2 1131 0 discriminator 2
	lwz 9,8840(30)
	.loc 2 1129 0 discriminator 2
	addi 4,4,4
.LVL563:
	.loc 2 1131 0 discriminator 2
	srawi 10,3,31
	.loc 2 1136 0 discriminator 2
	addi 8,8,9248
	.loc 2 1131 0 discriminator 2
	xor 0,10,3
	lwz 5,84(9)
	subf 0,10,0
	.loc 2 1132 0 discriminator 2
	lwz 9,72(9)
	.loc 2 1131 0 discriminator 2
	mulli 0,0,36
	.loc 2 1132 0 discriminator 2
	srwi 3,3,31
	addi 3,3,4
	.loc 2 1136 0 discriminator 2
	add 8,30,8
	.loc 2 1131 0 discriminator 2
	add 5,5,0
.LVL564:
	.loc 2 1132 0 discriminator 2
	slwi 3,3,2
	.loc 2 1135 0 discriminator 2
	lwz 6,16(5)
	.loc 2 1136 0 discriminator 2
	lwz 0,20(5)
	.loc 2 1135 0 discriminator 2
	mulli 6,6,24
	.loc 2 1132 0 discriminator 2
	lwzx 28,5,3
	.loc 2 1136 0 discriminator 2
	mulli 0,0,24
	.loc 2 1135 0 discriminator 2
	add 11,9,6
.LBB4666:
.LBB4667:
	.loc 4 250 0 discriminator 2
	lfsx 12,9,6
	lfsx 13,9,0
.LBE4667:
.LBE4666:
	.loc 2 1136 0 discriminator 2
	add 10,9,0
.LBB4671:
.LBB4668:
	.loc 4 250 0 discriminator 2
	lfs 0,4(11)
.LBE4668:
.LBE4671:
	.loc 2 1132 0 discriminator 2
	mulli 28,28,24
	.loc 2 1139 0 discriminator 2
	mulli 5,7,12
.LVL565:
	.loc 2 1129 0 discriminator 2
	addi 7,7,1
.LBB4672:
.LBB4669:
	.loc 4 250 0 discriminator 2
	fmuls 13,13,0
	lfs 0,4(10)
.LBE4669:
.LBE4672:
	.loc 2 1132 0 discriminator 2
	add 3,9,28
.LVL566:
	.loc 2 1139 0 discriminator 2
	addi 5,5,12320
	add 5,30,5
.LBB4673:
.LBB4670:
	.loc 4 250 0 discriminator 2
	fmsubs 0,12,0,13
	stfs 0,4(8)
	.loc 4 251 0 discriminator 2
	lfsx 13,9,0
	lfs 0,8(11)
	lfsx 12,9,6
	fmuls 13,13,0
	lfs 0,8(10)
	fmsubs 0,12,0,13
	stfs 0,8(8)
.LVL567:
	.loc 4 252 0 discriminator 2
	lfsx 13,9,6
	lfsx 0,9,0
	fsubs 0,13,0
	stfs 0,12(8)
.LVL568:
	.loc 4 253 0 discriminator 2
	lfs 0,8(11)
	lfs 13,4(10)
	lfs 12,4(11)
	fmuls 13,13,0
	lfs 0,8(10)
	fmsubs 0,12,0,13
	stfs 0,16(8)
.LVL569:
	.loc 4 254 0 discriminator 2
	lfs 13,8(11)
	lfs 0,8(10)
	fsubs 0,13,0
	stfs 0,20(8)
.LVL570:
	.loc 4 255 0 discriminator 2
	lfs 13,4(10)
	lfs 0,4(11)
	fsubs 0,13,0
	stfs 0,24(8)
.LBE4670:
.LBE4673:
.LBB4674:
.LBB4675:
	.loc 3 431 0 discriminator 2
	lfs 11,9064(30)
	lfs 12,4(3)
	lfs 9,9060(30)
	fsubs 12,12,11
.LBE4675:
.LBE4674:
.LBB4678:
.LBB4679:
	.loc 3 435 0 discriminator 2
	lfs 10,9076(30)
.LBE4679:
.LBE4678:
.LBB4682:
.LBB4676:
	.loc 3 431 0 discriminator 2
	lfsx 7,9,28
	lfs 13,9068(30)
.LVL571:
.LBE4676:
.LBE4682:
.LBB4683:
.LBB4680:
	.loc 3 435 0 discriminator 2
	fmuls 12,12,10
.LVL572:
	lfs 8,9072(30)
.LBE4680:
.LBE4683:
.LBB4684:
.LBB4677:
	.loc 3 431 0 discriminator 2
	fsubs 7,7,9
	lfs 0,8(3)
	fsubs 0,0,13
.LBE4677:
.LBE4684:
.LBB4685:
.LBB4681:
	.loc 3 435 0 discriminator 2
	fmadds 7,7,8,12
	lfs 12,9080(30)
	fmadds 0,0,12,7
.LVL573:
.LBE4681:
.LBE4685:
.LBB4686:
.LBB4687:
	.loc 3 452 0 discriminator 2
	fmadds 9,8,0,9
	fmadds 11,10,0,11
	fmadds 0,12,0,13
.LVL574:
	.loc 3 424 0 discriminator 2
	stfs 9,4(5)
.LVL575:
	.loc 3 425 0 discriminator 2
	stfs 11,8(5)
	.loc 3 426 0 discriminator 2
	stfs 0,12(5)
.LBE4687:
.LBE4686:
	.loc 2 1129 0 discriminator 2
	lwz 0,52(31)
.LVL576:
	cmpw 7,0,7
	bgt- 7,.L293
.LVL577:
.L292:
	.loc 2 1142 0
	mulli 9,0,12
.LBB4688:
.LBB4689:
	.loc 3 424 0
	lwz 11,12324(30)
.LBE4689:
.LBE4688:
	.loc 2 1142 0
	addi 9,9,12320
	add 9,30,9
.LBB4691:
.LBB4690:
	.loc 3 424 0
	stw 11,4(9)
.LVL578:
	.loc 3 425 0
	lwz 0,12328(30)
	stw 0,8(9)
	.loc 3 426 0
	lwz 0,12332(30)
	stw 0,12(9)
.LBE4690:
.LBE4691:
	.loc 2 1145 0
	lbz 0,9053(30)
	cmpwi 7,0,0
	bne- 7,.L294
.LVL579:
	.loc 2 1150 0 discriminator 1
	lwz 9,0(30)
.LVL580:
	li 28,0
	cmpwi 7,9,0
	bgt+ 7,.L328
	b .L296
.LVL581:
.L298:
	.loc 2 1150 0 is_stmt 0
	addi 28,28,1
.LVL582:
	cmpw 7,9,28
	ble- 7,.L296
.LVL583:
.L328:
	.loc 2 1151 0 is_stmt 1
	mulli 6,28,92
	add 6,30,6
	.loc 2 1152 0
	lwz 0,4(6)
	.loc 2 1151 0
	addi 6,6,4
.LVL584:
	.loc 2 1152 0
	cmpwi 7,0,0
	beq+ 7,.L298
	.loc 2 1153 0
	mr 7,28
	mr 3,29
	mr 4,30
	mr 5,31
	bl _ZN28idCollisionModelManagerLocal29RotateTrmVertexThroughPolygonEP14cm_traceWork_sP12cm_polygon_sP14cm_trmVertex_si
.LVL585:
	lwz 9,0(30)
	b .L298
.L296:
.LVL586:
	.loc 2 1158 0 discriminator 1
	lwz 9,2948(30)
	cmpwi 7,9,0
	ble- 7,.L299
	.loc 2 1158 0 is_stmt 0
	li 28,1
	b .L301
.LVL587:
.L300:
	cmpw 7,9,28
	blt- 7,.L299
.LVL588:
.L301:
	.loc 2 1159 0 is_stmt 1
	mulli 6,28,124
	.loc 2 1158 0
	addi 28,28,1
	.loc 2 1159 0
	addi 6,6,2944
	add 6,30,6
	.loc 2 1160 0
	lwz 0,8(6)
	.loc 2 1159 0
	addi 6,6,8
.LVL589:
	.loc 2 1160 0
	cmpwi 7,0,0
	beq+ 7,.L300
	.loc 2 1161 0
	mr 3,29
	mr 4,30
	mr 5,31
	bl _ZN28idCollisionModelManagerLocal27RotateTrmEdgeThroughPolygonEP14cm_traceWork_sP12cm_polygon_sP12cm_trmEdge_s
.LVL590:
	lwz 9,2948(30)
	b .L300
.L299:
.LVL591:
	.loc 2 1166 0 discriminator 1
	lwz 11,52(31)
	cmpwi 7,11,0
	ble- 7,.L297
	.loc 2 1166 0 is_stmt 0
	mr 25,31
	li 27,0
.LVL592:
.L308:
	.loc 2 1167 0 is_stmt 1
	lwz 22,56(25)
.LVL593:
	.loc 2 1168 0
	lwz 9,8840(30)
	srawi 10,22,31
	xor 0,10,22
	lwz 9,84(9)
	subf 0,10,0
	.loc 2 1170 0
	lwz 10,44(29)
	.loc 2 1168 0
	mulli 0,0,36
	.loc 2 1170 0
	lwzx 8,9,0
	.loc 2 1168 0
	add 23,9,0
.LVL594:
	.loc 2 1170 0
	cmpw 7,8,10
	beq- 7,.L302
	.loc 2 1174 0
	stwx 10,9,0
	.loc 2 1176 0
	srwi 22,22,31
	li 26,0
	lhz 0,4(23)
.LVL595:
	cmpwi 7,0,0
	bne- 7,.L340
.LVL596:
.L307:
	.loc 2 1182 0
	xor 9,26,22
	.loc 2 1185 0
	lwz 11,44(29)
	.loc 2 1182 0
	addi 0,9,4
	lwz 9,8840(30)
	slwi 0,0,2
	lwzx 0,23,0
	lwz 9,72(9)
	mulli 0,0,24
	add 24,9,0
.LVL597:
	.loc 2 1185 0
	lwz 10,12(24)
	cmpw 7,10,11
	beq- 7,.L303
	.loc 2 1189 0
	stw 11,12(24)
.LVL598:
.LBB4692:
.LBB4693:
.LBB4694:
.LBB4695:
	.loc 3 402 0
	lfsx 0,9,0
.LVL599:
.LBE4695:
.LBE4694:
	.loc 6 354 0
	lfs 13,8880(30)
	fcmpu 7,0,13
	blt- 7,.L303
.LVL600:
.LBB4696:
.LBB4697:
	.loc 3 402 0
	lfs 13,4(24)
.LVL601:
.LBE4697:
.LBE4696:
	.loc 6 354 0
	lfs 12,8884(30)
	fcmpu 7,13,12
	blt- 7,.L303
.LVL602:
.LBB4698:
.LBB4699:
	.loc 3 402 0
	lfs 12,8(24)
.LVL603:
.LBE4699:
.LBE4698:
	.loc 6 354 0
	lfs 11,8888(30)
	fcmpu 7,12,11
	blt- 7,.L303
.LVL604:
	lfs 11,8892(30)
	fcmpu 7,0,11
	bgt- 7,.L303
.LVL605:
	lfs 0,8896(30)
	fcmpu 7,13,0
	bgt- 7,.L303
.LVL606:
	lfs 0,8900(30)
	fcmpu 7,12,0
	bgt- 7,.L303
.LBE4693:
.LBE4692:
	.loc 2 1198 0
	lwz 9,7044(30)
	.loc 2 1058 0
	add 21,26,27
	.loc 2 1196 0
	mulli 21,21,12
	.loc 2 1198 0
	li 28,0
	cmpwi 7,9,0
	.loc 2 1196 0
	add 21,30,21
	addi 21,21,12324
.LVL607:
	.loc 2 1198 0
	bgt+ 7,.L327
	b .L303
.LVL608:
.L305:
	cmpw 7,9,28
	ble- 7,.L303
.LVL609:
.L327:
	.loc 2 1199 0
	mulli 5,28,112
	.loc 2 1198 0
	addi 28,28,1
	.loc 2 1199 0
	addi 5,5,7040
	add 5,30,5
	.loc 2 1200 0
	lwz 0,8(5)
	.loc 2 1199 0
	addi 5,5,8
.LVL610:
	.loc 2 1200 0
	cmpwi 7,0,0
	beq+ 7,.L305
	.loc 2 1201 0
	mr 3,29
	mr 4,30
	mr 6,31
	mr 7,24
	mr 8,21
	bl _ZN28idCollisionModelManagerLocal29RotateVertexThroughTrmPolygonEP14cm_traceWork_sP15cm_trmPolygon_sP12cm_polygon_sP11cm_vertex_sR6idVec3
.LVL611:
	lwz 9,7044(30)
	b .L305
.LVL612:
.L294:
	.loc 2 1146 0
	mr 3,29
	mr 4,30
	mr 5,31
	addi 6,30,4
	li 7,0
	bl _ZN28idCollisionModelManagerLocal29RotateTrmVertexThroughPolygonEP14cm_traceWork_sP12cm_polygon_sP14cm_trmVertex_si
.LVL613:
.L297:
	.loc 2 1208 0
	lis 11,.LC2@ha
	lfs 13,9124(30)
	lfs 0,.LC2@l(11)
	fcmpu 7,13,0
	mfcr 28
	rlwinm 28,28,31,1
	b .L284
.LVL614:
.L303:
	.loc 2 1180 0
	cmpwi 7,26,1
	addi 26,26,1
.LVL615:
	bne- 7,.L307
.LVL616:
.L340:
	lwz 11,52(31)
.L302:
	.loc 2 1166 0
	addi 27,27,1
.LVL617:
	addi 25,25,4
	cmpw 7,11,27
	bgt- 7,.L308
	b .L297
.LBE4701:
	.cfi_endproc
.LFE2549:
	.size	_ZN28idCollisionModelManagerLocal23RotateTrmThroughPolygonEP14cm_traceWork_sP12cm_polygon_s, .-_ZN28idCollisionModelManagerLocal23RotateTrmThroughPolygonEP14cm_traceWork_sP12cm_polygon_s
	.align 2
	.globl _ZN28idCollisionModelManagerLocal17BoundsForRotationERK6idVec3S2_S2_S2_R8idBounds
	.type	_ZN28idCollisionModelManagerLocal17BoundsForRotationERK6idVec3S2_S2_S2_R8idBounds, @function
_ZN28idCollisionModelManagerLocal17BoundsForRotationERK6idVec3S2_S2_S2_R8idBounds:
.LFB2550:
	.loc 2 1218 0
	.cfi_startproc
.LVL618:
.LBB4799:
.LBB4800:
.LBB4801:
	.loc 3 431 0
	lfs 10,4(4)
.LBE4801:
.LBE4800:
	.loc 2 1229 0
	lis 10,.LC2@ha
.LBB4807:
.LBB4802:
	.loc 3 431 0
	lfs 13,4(6)
	lis 9,.LC1@ha
	lfs 11,8(4)
	la 9,.LC1@l(9)
	fsubs 13,13,10
	lfs 0,8(6)
	lfs 12,0(4)
.LBE4802:
.LBE4807:
.LBB4808:
.LBB4809:
	.loc 3 426 0
	li 11,0
.LBE4809:
.LBE4808:
.LBB4814:
.LBB4803:
	.loc 3 431 0
	lfs 9,0(6)
	fsubs 0,0,11
.LVL619:
.LBE4803:
.LBE4814:
.LBB4815:
.LBB4816:
	lfs 8,0(7)
.LBE4816:
.LBE4815:
.LBB4821:
.LBB4822:
	.loc 3 636 0
	fmuls 5,13,13
.LBE4822:
.LBE4821:
.LBB4823:
.LBB4817:
	.loc 3 431 0
	lfs 6,4(7)
.LBE4817:
.LBE4823:
.LBB4824:
.LBB4804:
	fsubs 9,9,12
.LVL620:
.LBE4804:
.LBE4824:
.LBE4799:
	.loc 2 1218 0
	stwu 1,-80(1)
.LCFI42:
	.cfi_def_cfa_offset 80
.LBB4923:
.LBB4825:
.LBB4818:
	.loc 3 431 0
	fsubs 8,8,12
.LBE4818:
.LBE4825:
.LBB4826:
.LBB4827:
	.loc 3 620 0
	lfs 12,4(5)
.LBE4827:
.LBE4826:
.LBB4833:
.LBB4819:
	.loc 3 431 0
	fsubs 6,6,10
	lfs 7,8(7)
.LBE4819:
.LBE4833:
.LBB4834:
.LBB4805:
	.loc 3 636 0
	fmadds 5,9,9,5
.LBE4805:
.LBE4834:
.LBB4835:
.LBB4828:
	.loc 3 620 0
	lfs 10,8(5)
	addi 3,8,12
.LVL621:
.LBE4828:
.LBE4835:
.LBE4923:
	.loc 2 1218 0
	stfd 30,64(1)
.LBB4924:
.LBB4836:
.LBB4829:
	.loc 3 620 0
	fmuls 30,0,12
	.cfi_offset 62, -16
.LBE4829:
.LBE4836:
.LBB4837:
.LBB4820:
	.loc 3 431 0
	fsubs 7,7,11
.LBE4820:
.LBE4837:
.LBB4838:
.LBB4830:
	.loc 3 620 0
	lfs 11,0(5)
	fmuls 4,9,10
.LBE4830:
.LBE4838:
.LBE4924:
	.loc 2 1218 0
	stfd 31,72(1)
.LBB4925:
.LBB4839:
.LBB4831:
	.loc 3 620 0
	fmuls 31,13,11
	.cfi_offset 63, -8
.LBE4831:
.LBE4839:
.LBE4925:
	.loc 2 1218 0
	stw 31,60(1)
.LBB4926:
.LBB4840:
.LBB4832:
	.loc 3 620 0
	fmsubs 13,13,10,30
.LVL622:
.LBE4832:
.LBE4840:
.LBB4841:
.LBB4842:
.LBB4843:
	.loc 7 276 0
	lis 31,_ZN6idMath5iSqrtE@ha
	.cfi_offset 31, -20
.LBE4843:
.LBE4842:
.LBE4841:
.LBB4854:
.LBB4855:
	.loc 3 620 0
	fmsubs 4,0,11,4
.LBE4855:
.LBE4854:
.LBE4926:
	.loc 2 1218 0
	stw 30,56(1)
.LBB4927:
.LBB4859:
.LBB4860:
	.loc 3 620 0
	fmuls 1,12,7
.LBE4860:
.LBE4859:
.LBE4927:
	.loc 2 1218 0
	stw 28,48(1)
.LBB4928:
.LBB4863:
.LBB4861:
	.loc 3 620 0
	fmuls 2,10,8
.LBE4861:
.LBE4863:
.LBE4928:
	.loc 2 1218 0
	stw 29,52(1)
.LBB4929:
.LBB4864:
.LBB4862:
	.loc 3 620 0
	fmuls 3,11,6
.LBE4862:
.LBE4864:
.LBB4865:
.LBB4856:
	.loc 3 424 0
	stfs 13,20(1)
.LBE4856:
.LBE4865:
.LBB4866:
.LBB4806:
	.loc 3 636 0
	fmadds 5,0,0,5
.LBE4806:
.LBE4866:
	.loc 2 1229 0
	lfs 0,.LC2@l(10)
.LVL623:
.LBB4867:
.LBB4857:
	.loc 3 620 0
	fmsubs 9,9,12,31
.LVL624:
	.loc 3 425 0
	stfs 4,24(1)
.LBE4857:
.LBE4867:
	.loc 2 1229 0
	fcmpu 7,13,0
	.loc 2 1230 0
	lis 30,.LC8@ha
	.cfi_offset 29, -28
	.cfi_offset 28, -32
	.cfi_offset 30, -24
.LBB4868:
.LBB4810:
	.loc 3 620 0
	fmsubs 12,12,8,3
.LBE4810:
.LBE4868:
.LBB4869:
.LBB4849:
.LBB4844:
	.loc 7 276 0
	la 31,_ZN6idMath5iSqrtE@l(31)
.LBE4844:
.LBE4849:
.LBE4869:
.LBB4870:
.LBB4811:
	.loc 3 620 0
	fmsubs 10,10,6,1
.LBE4811:
.LBE4870:
.LBB4871:
.LBB4858:
	.loc 3 426 0
	stfs 9,28(1)
.LBE4858:
.LBE4871:
.LBB4872:
.LBB4812:
	.loc 3 620 0
	fmsubs 11,11,7,2
.LVL625:
.LBE4812:
.LBE4872:
.LBB4873:
.LBB4850:
.LBB4845:
	.loc 7 278 0
	lis 12,.LC10@ha
.LBE4845:
.LBE4850:
.LBE4873:
.LBB4874:
.LBB4813:
	.loc 3 426 0
	stfs 12,16(1)
.LVL626:
	.loc 3 424 0
	stfs 10,8(1)
	.loc 3 425 0
	stfs 11,12(1)
.LBE4813:
.LBE4874:
	.loc 2 1248 0
	lfs 12,0(9)
	.loc 2 1229 0
	bng- 7,.L343
.LVL627:
.L369:
	add 10,1,11
	lfs 11,8(10)
	fcmpu 7,11,0
	bnl- 7,.L343
.LVL628:
.L345:
.LBB4875:
.LBB4876:
	.loc 3 402 0 discriminator 6
	lfsx 11,6,11
.LVL629:
.LBE4876:
.LBE4875:
.LBB4877:
.LBB4878:
	add 29,4,11
.LBE4878:
.LBE4877:
.LBB4880:
.LBB4881:
	lfsx 13,7,11
.LVL630:
.LBE4881:
.LBE4880:
.LBB4882:
.LBB4879:
	lfsx 8,4,11
.LBE4879:
.LBE4882:
	.loc 2 1230 0 discriminator 6
	fadds 10,11,13
	lfs 9,.LC8@l(30)
	fmsubs 10,10,9,8
	fcmpu 7,10,0
	bng- 7,.L365
.LVL631:
.LBB4883:
.LBB4884:
	.file 10 "d:/Data/Nintendo/DoomGX/src/cm/../idlib/../idlib/Lib.h"
	.loc 10 159 0
	fcmpu 7,11,13
.LBE4884:
.LBE4883:
.LBB4886:
.LBB4887:
	.loc 3 406 0
	add 10,8,11
.LVL632:
.LBE4887:
.LBE4886:
.LBB4888:
.LBB4885:
	.loc 10 159 0
	bnl- 7,.L351
	fmr 13,11
.L351:
.LBE4885:
.LBE4888:
	.loc 2 1231 0
	stfs 13,0(10)
.LVL633:
	.loc 2 1227 0
	cmpwi 7,11,8
	.loc 2 1232 0
	lfs 11,0(9)
.LBB4889:
.LBB4890:
	.loc 3 402 0
	lfsx 13,5,11
.LVL634:
.LBE4890:
.LBE4889:
	.loc 2 1232 0
	lfs 8,0(29)
	.loc 2 1218 0
	fneg 7,13
.LBB4891:
.LBB4892:
.LBB4893:
	.loc 7 275 0
	lfs 9,.LC8@l(30)
	.loc 7 278 0
	lfs 10,.LC10@l(12)
.LBE4893:
.LBE4892:
.LBE4891:
	.loc 2 1232 0
	fmadds 13,7,13,11
	fmuls 13,13,5
	stfs 13,40(1)
.LVL635:
.LBB4898:
.LBB4896:
.LBB4894:
	.loc 7 275 0
	fmuls 9,13,9
	.loc 7 270 0
	lwz 0,40(1)
.LVL636:
	.loc 2 1218 0
	fneg 9,9
	.loc 7 276 0
	rlwinm 28,0,9,24,31
	rlwinm 0,0,19,21,29
	lwzx 29,31,0
	subfic 0,28,380
	rlwinm 0,0,22,0,8
	or 0,0,29
	.loc 7 277 0
	stw 0,44(1)
	lfs 13,44(1)
.LVL637:
	fmr 11,13
.LVL638:
	.loc 7 278 0
	fmul 13,11,11
.LVL639:
	fmadd 13,9,13,10
	fmul 13,11,13
.LVL640:
	.loc 7 279 0
	fmul 11,13,13
	fmadd 10,9,11,10
.LVL641:
.LBE4894:
.LBE4896:
.LBE4898:
	.loc 2 1232 0
	lfs 11,40(1)
.LBB4899:
.LBB4897:
.LBB4895:
	.loc 7 279 0
	fmul 13,13,10
.LVL642:
	.loc 7 280 0
	frsp 13,13
.LVL643:
.LBE4895:
.LBE4897:
.LBE4899:
	.loc 2 1232 0
	fmadds 13,11,13,8
	stfs 13,12(10)
.LVL644:
	.loc 2 1248 0
	lfs 13,0(10)
	fsubs 13,13,12
	stfs 13,0(10)
.LVL645:
	.loc 2 1249 0
	lfsx 13,3,11
	fadds 13,13,12
	stfsx 13,3,11
	.loc 2 1227 0
	addi 11,11,4
.LVL646:
	bne+ 7,.L367
.LVL647:
.L342:
.LBE4929:
	.loc 2 1251 0
	lwz 28,48(1)
	lwz 29,52(1)
	lwz 30,56(1)
	lwz 31,60(1)
	lfd 30,64(1)
	lfd 31,72(1)
	addi 1,1,80
	.cfi_remember_state
.LCFI43:
	.cfi_def_cfa_offset 0
	.cfi_restore 63
	.cfi_restore 62
	.cfi_restore 31
	.cfi_restore 30
	.cfi_restore 29
	.cfi_restore 28
	blr
.LVL648:
.L365:
.LCFI44:
	.cfi_restore_state
.LBB4930:
.LBB4900:
.LBB4901:
	.loc 3 402 0
	lfsx 13,5,11
.LVL649:
.LBE4901:
.LBE4900:
.LBB4902:
.LBB4903:
	.loc 3 406 0
	add 10,3,11
.LBE4903:
.LBE4902:
	.loc 2 1235 0
	lfs 11,0(9)
	.loc 2 1218 0
	fneg 7,13
.LBB4904:
.LBB4851:
.LBB4846:
	.loc 7 278 0
	lfs 10,.LC10@l(12)
.LBE4846:
.LBE4851:
.LBE4904:
	.loc 2 1235 0
	fmadds 13,7,13,11
	fmuls 13,13,5
	stfs 13,40(1)
.LVL650:
.LBB4905:
.LBB4852:
.LBB4847:
	.loc 7 275 0
	fmuls 9,13,9
	.loc 7 270 0
	lwz 0,40(1)
.LVL651:
	.loc 2 1218 0
	fneg 9,9
	.loc 7 276 0
	rlwinm 28,0,9,24,31
	rlwinm 0,0,19,21,29
	lwzx 29,31,0
	subfic 0,28,380
	rlwinm 0,0,22,0,8
	or 0,0,29
	.loc 7 277 0
	stw 0,44(1)
	lfs 13,44(1)
.LVL652:
	fmr 11,13
.LVL653:
.LBE4847:
.LBE4852:
.LBE4905:
	.loc 2 1218 0
	lfs 13,40(1)
.LVL654:
	fneg 7,13
.LBB4906:
.LBB4853:
.LBB4848:
	.loc 7 278 0
	fmul 13,11,11
	fmadd 13,9,13,10
	fmul 13,11,13
.LVL655:
	.loc 7 279 0
	fmul 11,13,13
	fmadd 10,9,11,10
.LVL656:
	fmul 13,13,10
.LVL657:
	.loc 7 280 0
	frsp 13,13
.LVL658:
.LBE4848:
.LBE4853:
.LBE4906:
	.loc 2 1235 0
	fmadds 8,7,13,8
	stfsx 8,8,11
.LVL659:
.LBB4907:
.LBB4908:
	.loc 3 402 0
	lfsx 11,6,11
.LBE4908:
.LBE4907:
.LBB4909:
.LBB4910:
	lfsx 13,7,11
.LVL660:
.LBE4910:
.LBE4909:
.LBB4911:
.LBB4912:
	.loc 10 158 0
	fcmpu 7,11,13
	bgt- 7,.L368
.L354:
.LBE4912:
.LBE4911:
	.loc 2 1236 0
	stfs 13,0(10)
	add 10,8,11
.LVL661:
.L353:
	.loc 2 1248 0
	lfs 13,0(10)
	.loc 2 1227 0
	cmpwi 7,11,8
	.loc 2 1248 0
	fsubs 13,13,12
	stfs 13,0(10)
.LVL662:
	.loc 2 1249 0
	lfsx 13,3,11
	fadds 13,13,12
	stfsx 13,3,11
	.loc 2 1227 0
	addi 11,11,4
	beq- 7,.L342
.L367:
	addi 10,1,20
	lfsx 13,11,10
	.loc 2 1229 0
	fcmpu 7,13,0
	bgt- 7,.L369
.LVL663:
.L343:
	fcmpu 7,13,0
	bnl- 7,.L346
.LVL664:
	add 10,1,11
	lfs 13,8(10)
	fcmpu 7,13,0
	bgt- 7,.L345
.LVL665:
.L346:
.LBB4914:
.LBB4915:
	.loc 3 402 0
	lfsx 13,6,11
.LVL666:
.LBE4915:
.LBE4914:
.LBB4916:
.LBB4917:
	lfsx 11,7,11
.LBE4917:
.LBE4916:
	.loc 2 1239 0
	fcmpu 7,13,11
	bng- 7,.L370
.LVL667:
	.loc 2 1240 0
	mr 10,8
	stfsux 11,10,11
.LVL668:
.LBB4918:
.LBB4919:
	.loc 3 402 0
	lwzx 0,6,11
.LBE4919:
.LBE4918:
	.loc 2 1241 0
	stw 0,12(10)
	b .L353
.LVL669:
.L370:
	.loc 2 1244 0
	mr 10,8
	stfsux 13,10,11
.LVL670:
.LBB4920:
.LBB4921:
	.loc 3 402 0
	lwzx 0,7,11
.LBE4921:
.LBE4920:
	.loc 2 1245 0
	stw 0,12(10)
	b .L353
.LVL671:
.L368:
.LBB4922:
.LBB4913:
	.loc 10 158 0
	fmr 13,11
.LVL672:
	b .L354
.LBE4913:
.LBE4922:
.LBE4930:
	.cfi_endproc
.LFE2550:
	.size	_ZN28idCollisionModelManagerLocal17BoundsForRotationERK6idVec3S2_S2_S2_R8idBounds, .-_ZN28idCollisionModelManagerLocal17BoundsForRotationERK6idVec3S2_S2_S2_R8idBounds
	.align 2
	.type	_ZN28idCollisionModelManagerLocal11Rotation180EP7trace_sRK6idVec3S4_ffS4_PK12idTraceModelRK6idMat3iiS4_SA_.part.17, @function
_ZN28idCollisionModelManagerLocal11Rotation180EP7trace_sRK6idVec3S4_ffS4_PK12idTraceModelRK6idMat3iiS4_SA_.part.17:
.LFB2823:
	.loc 2 1258 0
	.cfi_startproc
.LVL673:
	mflr 0
	stwu 1,-496(1)
.LCFI45:
	.cfi_def_cfa_offset 496
	.cfi_register 65, 0
	mfcr 12
	stfd 29,472(1)
	fmr 29,2
	.cfi_offset 61, -24
	.cfi_register 70, 12
	stfd 31,488(1)
	fmr 31,1
	.cfi_offset 63, -8
	stw 21,380(1)
	mr 21,8
	.cfi_offset 21, -116
	stw 22,384(1)
	stw 23,388(1)
	stw 24,392(1)
	stw 26,400(1)
	mr 26,9
	.cfi_offset 26, -96
	.cfi_offset 24, -104
	.cfi_offset 23, -108
	.cfi_offset 22, -112
	stw 27,404(1)
	mr 27,7
	.cfi_offset 27, -92
	stw 28,408(1)
	mr 28,6
	.cfi_offset 28, -88
	stw 29,412(1)
	mr 29,5
	.cfi_offset 29, -84
	stw 30,416(1)
	mr 30,3
	.cfi_offset 30, -80
	stw 31,420(1)
	mr 31,4
	.cfi_offset 31, -76
	stw 0,500(1)
	stfd 23,424(1)
	stfd 24,432(1)
	stfd 25,440(1)
	stfd 26,448(1)
	stfd 27,456(1)
	stfd 28,464(1)
	stfd 30,480(1)
	stw 14,352(1)
	stw 15,356(1)
	stw 16,360(1)
	stw 17,364(1)
	stw 18,368(1)
	stw 19,372(1)
	stw 20,376(1)
	stw 25,396(1)
	stw 12,348(1)
.LBB5648:
	.loc 2 1278 0
	lwz 24,504(1)
	lwz 11,56(3)
	slwi 24,24,2
.LBE5648:
	.loc 2 1258 0
	lwz 22,508(1)
.LBB6878:
	.loc 2 1278 0
	lwzx 0,11,24
	.cfi_offset 70, -148
	.cfi_offset 25, -100
	.cfi_offset 20, -120
	.cfi_offset 19, -124
	.cfi_offset 18, -128
	.cfi_offset 17, -132
	.cfi_offset 16, -136
	.cfi_offset 15, -140
	.cfi_offset 14, -144
	.cfi_offset 62, -16
	.cfi_offset 60, -32
	.cfi_offset 59, -40
	.cfi_offset 58, -48
	.cfi_offset 57, -56
	.cfi_offset 56, -64
	.cfi_offset 55, -72
	.cfi_offset 65, 4
.LBE6878:
	.loc 2 1258 0
	lwz 23,512(1)
.LBB6879:
	.loc 2 1278 0
	cmpwi 7,0,0
	beq- 7,.L594
	.loc 2 1296 0
	lis 15,_ZN6idMath2PIE@ha
	lis 14,.LC15@ha
	lfs 28,_ZN6idMath2PIE@l(15)
	.loc 2 1294 0
	fsubs 30,2,31
	.loc 2 1296 0
	lfs 1,.LC15@l(14)
.LVL674:
	.loc 2 1285 0
	lis 20,.LC1@ha
	.loc 2 1283 0
	lwz 9,44(3)
.LVL675:
	.loc 2 1285 0
	lis 18,.LANCHOR0@ha
	.loc 2 1296 0
	fdivs 1,28,1
	.loc 2 1285 0
	lwz 11,.LC1@l(20)
	.loc 2 1283 0
	addi 0,9,1
	.loc 2 1285 0
	la 25,.LANCHOR0@l(18)
	.loc 2 1283 0
	stw 0,44(3)
	.loc 2 1289 0
	li 9,1
	.loc 2 1286 0
	li 0,0
	.loc 2 1285 0
	stw 11,8944(25)
	.loc 2 1286 0
	stw 0,9028(25)
	.loc 2 1287 0
	stw 0,8996(25)
	.loc 2 1289 0
	stb 9,9055(25)
	.loc 2 1290 0
	stb 9,9052(25)
	.loc 2 1291 0
	stb 0,9054(25)
	.loc 2 1292 0
	stb 0,9056(25)
	.loc 2 1293 0
	stb 0,9058(25)
	.loc 2 1288 0
	stw 10,8940(25)
	.loc 2 1294 0
	stfs 30,9120(25)
	.loc 2 1296 0
	fmuls 1,30,1
	bl tan
.LVL676:
.LBB5649:
.LBB5650:
.LBB5651:
.LBB5652:
.LBB5653:
.LBB5654:
	.loc 7 275 0
	lis 6,.LC8@ha
.LBE5654:
.LBE5653:
.LBE5652:
.LBE5651:
.LBE5650:
.LBE5649:
	.loc 2 1296 0
	frsp 1,1
.LVL677:
.LBB5683:
.LBB5677:
.LBB5672:
.LBB5667:
.LBB5661:
.LBB5655:
	.loc 7 275 0
	lfs 2,.LC8@l(6)
	.loc 7 276 0
	lis 7,_ZN6idMath5iSqrtE@ha
	la 7,_ZN6idMath5iSqrtE@l(7)
.LBE5655:
.LBE5661:
.LBE5667:
.LBE5672:
.LBE5677:
.LBE5683:
	.loc 2 1296 0
	stfs 1,340(1)
	lwz 0,340(1)
.LBB5684:
.LBB5685:
	.loc 7 782 0
	rlwinm 5,0,0,1,31
	stw 5,332(1)
.LBE5685:
.LBE5684:
.LBB5686:
.LBB5678:
.LBB5673:
.LBB5668:
.LBB5662:
.LBB5656:
	.loc 7 278 0
	lis 5,.LC10@ha
	lfs 8,.LC10@l(5)
.LBE5656:
.LBE5662:
.LBE5668:
.LBE5673:
.LBE5678:
.LBE5686:
	.loc 2 1296 0
	lwz 9,332(1)
	stw 9,9124(25)
	.loc 2 1297 0
	lwz 9,56(30)
	lwzx 0,9,24
	stw 0,8840(25)
.LVL678:
.LBB5687:
.LBB5688:
	.loc 3 431 0
	lfs 12,0(22)
	lfs 13,4(22)
	lfs 0,8(22)
	lfs 6,0(27)
	lfs 5,4(27)
	lfs 7,8(27)
	fsubs 6,6,12
	fsubs 5,5,13
	fsubs 7,7,0
.LVL679:
.LBE5688:
.LBE5687:
.LBB5689:
.LBB5690:
	.loc 3 424 0
	stfs 6,8844(25)
	.loc 3 425 0
	stfs 5,8848(25)
	.loc 3 426 0
	stfs 7,8852(25)
.LVL680:
.LBE5690:
.LBE5689:
.LBB5691:
.LBB5692:
	.loc 3 424 0
	lfs 13,0(28)
	stfs 13,9072(25)
.LBE5692:
.LBE5691:
	.loc 2 1258 0
	fneg 1,13
.LVL681:
.LBB5696:
.LBB5693:
	.loc 3 425 0
	lfs 0,4(28)
	stfs 0,9076(25)
.LBE5693:
.LBE5696:
.LBB5697:
.LBB5698:
	.loc 3 435 0
	fmuls 26,5,0
.LBE5698:
.LBE5697:
	.loc 2 1258 0
	fneg 27,0
.LBB5699:
.LBB5694:
	.loc 3 426 0
	lfs 12,8(28)
.LBE5694:
.LBE5699:
	.loc 3 435 0
	fmadds 26,6,13,26
.LBB5700:
.LBB5695:
	.loc 3 426 0
	stfs 12,9080(25)
.LVL682:
.LBE5695:
.LBE5700:
.LBB5701:
.LBB5702:
	.loc 3 431 0
	lfs 11,4(22)
.LBE5702:
.LBE5701:
	.loc 3 435 0
	fmadds 26,7,12,26
.LBB5705:
.LBB5703:
	.loc 3 431 0
	lfs 10,4(29)
	lfs 9,0(29)
	fsubs 10,10,11
	lfs 11,0(22)
	lfs 3,8(29)
	fsubs 9,9,11
	lfs 11,8(22)
.LBE5703:
.LBE5705:
.LBB5706:
.LBB5707:
	.loc 3 435 0
	fmuls 4,0,10
.LBE5707:
.LBE5706:
.LBB5708:
.LBB5704:
	.loc 3 431 0
	fsubs 3,3,11
.LVL683:
.LBE5704:
.LBE5708:
	.loc 2 1258 0
	fneg 11,12
	.loc 3 435 0
	fmadds 4,13,9,4
	fmadds 4,12,3,4
	.loc 2 1304 0
	fsubs 4,4,26
.LVL684:
	.loc 3 431 0
	fmadds 10,27,4,10
.LVL685:
	fmadds 9,1,4,9
.LVL686:
	fmadds 11,11,4,3
.LVL687:
.LBB5709:
.LBB5710:
	fsubs 5,5,10
	fsubs 6,6,9
.LBE5710:
.LBE5709:
.LBB5713:
.LBB5714:
	.loc 3 424 0
	stfs 9,9060(25)
.LBE5714:
.LBE5713:
.LBB5717:
.LBB5711:
	.loc 3 431 0
	fsubs 7,7,11
.LVL688:
.LBE5711:
.LBE5717:
.LBB5718:
.LBB5715:
	.loc 3 425 0
	stfs 10,9064(25)
.LBE5715:
.LBE5718:
.LBB5719:
.LBB5679:
	.loc 3 632 0
	fmuls 5,5,5
.LBE5679:
.LBE5719:
.LBB5720:
.LBB5716:
	.loc 3 426 0
	stfs 11,9068(25)
.LVL689:
.LBE5716:
.LBE5720:
.LBB5721:
.LBB5712:
	.loc 3 632 0
	fmadds 6,6,6,5
.LVL690:
	fmadds 6,7,7,6
	stfs 6,328(1)
.LVL691:
.LBE5712:
.LBE5721:
.LBB5722:
.LBB5680:
.LBB5674:
.LBB5669:
.LBB5663:
.LBB5657:
	.loc 7 275 0
	fmuls 5,6,2
	.loc 7 270 0
	lwz 0,328(1)
.LVL692:
	.loc 2 1258 0
	fneg 5,5
	.loc 7 276 0
	rlwinm 11,0,9,24,31
	rlwinm 0,0,19,21,29
	lwzx 9,7,0
	subfic 0,11,380
	rlwinm 0,0,22,0,8
	or 0,0,9
.LBE5657:
.LBE5663:
.LBE5669:
.LBE5674:
.LBE5680:
.LBE5722:
	.loc 2 1309 0
	lis 9,.LC16@ha
.LBB5723:
.LBB5681:
.LBB5675:
.LBB5670:
.LBB5664:
.LBB5658:
	.loc 7 277 0
	stw 0,340(1)
	lfs 4,340(1)
.LVL693:
	fmr 6,4
.LVL694:
	.loc 7 278 0
	fmul 7,6,6
.LVL695:
	fmadd 7,5,7,8
	fmul 7,6,7
.LVL696:
	.loc 7 279 0
	fmul 27,7,7
	fmadd 27,5,27,8
.LVL697:
.LBE5658:
.LBE5664:
	.loc 7 303 0
	lfs 5,328(1)
.LBB5665:
.LBB5659:
	.loc 7 279 0
	fmul 27,7,27
.LVL698:
.LBE5659:
.LBE5665:
.LBE5670:
.LBE5675:
.LBE5681:
.LBE5723:
	.loc 2 1309 0
	lfs 7,.LC16@l(9)
	.loc 2 1310 0
	lis 9,.LC2@ha
.LBB5724:
.LBB5682:
.LBB5676:
.LBB5671:
.LBB5666:
.LBB5660:
	.loc 7 280 0
	frsp 27,27
.LVL699:
.LBE5660:
.LBE5666:
	.loc 7 303 0
	fmuls 27,5,27
.LBE5671:
.LBE5676:
.LBE5682:
.LBE5724:
	.loc 2 1309 0
	fmsubs 7,27,27,7
	.loc 2 1307 0
	stfs 27,9128(25)
	.loc 2 1309 0
	stfs 7,328(1)
.LVL700:
	.loc 2 1310 0
	lfs 7,.LC2@l(9)
.LVL701:
	lfs 4,328(1)
	fcmpu 7,4,7
	bng- 7,.L374
.LVL702:
.LBB5725:
.LBB5726:
.LBB5727:
	.loc 7 270 0
	lwz 0,328(1)
.LVL703:
	.loc 7 275 0
	fmr 5,4
	fmuls 6,4,2
	.loc 7 276 0
	rlwinm 9,0,9,24,31
.LVL704:
	rlwinm 0,0,19,21,29
	lwzx 0,7,0
	subfic 9,9,380
	rlwinm 9,9,22,0,8
	.loc 2 1258 0
	fneg 6,6
.LVL705:
	.loc 7 276 0
	or 0,9,0
	.loc 2 1258 0
	fneg 5,5
	.loc 7 277 0
	stw 0,340(1)
	lfs 4,340(1)
	fmr 7,4
.LVL706:
	.loc 7 278 0
	fmul 4,7,7
.LVL707:
	fmadd 4,6,4,8
	fmul 7,7,4
.LVL708:
	.loc 7 279 0
	fmul 4,7,7
	fmadd 8,6,4,8
.LVL709:
	fmul 8,7,8
.LVL710:
	.loc 7 280 0
	frsp 8,8
.LVL711:
	.loc 2 1311 0
	fmadds 27,5,8,27
.LVL712:
.L374:
.LBE5727:
.LBE5726:
.LBE5725:
.LBB5728:
.LBB5729:
.LBB5730:
.LBB5731:
	.loc 3 497 0
	lis 19,mat3_identity@ha
	lfs 8,0(23)
	lfs 7,mat3_identity@l(19)
	la 24,mat3_identity@l(19)
	fcmpu 7,8,7
	bne- 7,.L376
	lfs 7,4(23)
	lfs 6,4(24)
	fcmpu 7,7,6
	beq- 7,.L377
	lfs 26,12(23)
	lfs 1,24(23)
	lfs 6,16(23)
	lfs 5,28(23)
	lfs 3,8(23)
.LVL713:
	lfs 2,20(23)
	lfs 4,32(23)
	b .L378
.LVL714:
.L376:
.LBE5731:
.LBE5730:
.LBE5729:
.LBE5728:
	.loc 2 1610 0
	lfs 26,12(23)
	lfs 1,24(23)
	lfs 7,4(23)
	lfs 6,16(23)
	lfs 5,28(23)
	lfs 3,8(23)
.LVL715:
	lfs 2,20(23)
.L586:
	lfs 4,32(23)
.L378:
.LVL716:
.LBB5754:
.LBB5755:
.LBB5756:
	.loc 5 427 0
	li 9,0
.LBE5756:
.LBE5755:
.LBE5754:
.LBB5765:
.LBB5766:
.LBB5767:
.LBB5768:
	.loc 3 424 0
	addi 11,1,152
	stfsux 8,11,9
	addi 8,1,8
.LBE5768:
.LBE5767:
.LBE5766:
.LBE5765:
.LBB5784:
.LBB5761:
.LBB5757:
	.loc 5 425 0
	stfs 8,8(1)
.LBE5757:
.LBE5761:
.LBE5784:
.LBB5785:
.LBB5779:
.LBB5774:
.LBB5769:
	.loc 2 1258 0
	add 10,8,9
.LBE5769:
.LBE5774:
.LBE5779:
.LBE5785:
.LBB5786:
.LBB5762:
.LBB5758:
	.loc 5 425 0
	stfs 26,12(1)
.LBE5758:
.LBE5762:
.LBE5786:
.LBB5787:
.LBB5780:
	.loc 5 333 0
	cmpwi 7,9,24
.LBE5780:
.LBE5787:
.LBB5788:
.LBB5763:
.LBB5759:
	.loc 5 425 0
	stfs 1,16(1)
.LBE5759:
.LBE5763:
.LBE5788:
.LBB5789:
.LBB5781:
	.loc 5 333 0
	addi 9,9,12
.LBE5781:
.LBE5789:
.LBB5790:
.LBB5764:
.LBB5760:
	.loc 5 426 0
	stfs 7,20(1)
	stfs 6,24(1)
	stfs 5,28(1)
	.loc 5 427 0
	stfs 3,32(1)
	stfs 2,36(1)
	stfs 4,40(1)
.LVL717:
.LBE5760:
.LBE5764:
.LBE5790:
.LBB5791:
.LBB5782:
.LBB5775:
.LBB5770:
	.loc 3 425 0
	lwz 0,4(10)
	stw 0,4(11)
	.loc 3 426 0
	lwz 0,8(10)
	stw 0,8(11)
.LBE5770:
.LBE5775:
	.loc 5 333 0
	beq- 7,.L595
.LVL718:
.L386:
.LBE5782:
.LBE5791:
.LBB5792:
.LBB5750:
.LBB5734:
.LBB5735:
	.loc 3 497 0
	lfsx 8,8,9
.LBE5735:
.LBE5734:
.LBE5750:
.LBE5792:
.LBB5793:
.LBB5783:
.LBB5776:
.LBB5771:
	.loc 3 424 0
	addi 11,1,152
.LVL719:
	.loc 2 1258 0
	add 10,8,9
.LBE5771:
.LBE5776:
	.loc 5 333 0
	cmpwi 7,9,24
.LBB5777:
.LBB5772:
	.loc 3 424 0
	stfsux 8,11,9
.LVL720:
.LBE5772:
.LBE5777:
	.loc 5 333 0
	addi 9,9,12
.LBB5778:
.LBB5773:
	.loc 3 425 0
	lwz 0,4(10)
	stw 0,4(11)
	.loc 3 426 0
	lwz 0,8(10)
	stw 0,8(11)
.LBE5773:
.LBE5778:
	.loc 5 333 0
	bne+ 7,.L386
.L595:
.LVL721:
.LBE5783:
.LBE5793:
.LBB5794:
.LBB5795:
	.loc 5 553 0
	lfs 13,9076(25)
.LBE5795:
.LBE5794:
.LBB5806:
.LBB5807:
	.loc 5 625 0
	li 17,1
	.loc 5 553 0
	lfs 0,9064(25)
.LBE5807:
.LBE5806:
.LBB5818:
.LBB5796:
	lfs 10,164(1)
.LVL722:
	.loc 5 554 0
	lfs 11,168(1)
.LVL723:
	.loc 5 555 0
	lfs 12,172(1)
.LBE5796:
.LBE5818:
.LBB5819:
.LBB5808:
	.loc 5 553 0
	fmuls 5,10,0
.LVL724:
.LBE5808:
.LBE5819:
.LBB5820:
.LBB5797:
	.loc 5 554 0
	fmuls 3,13,11
.LVL725:
	.loc 5 553 0
	lfs 9,152(1)
.LBE5797:
.LBE5820:
.LBB5821:
.LBB5809:
	.loc 5 555 0
	fmuls 7,12,0
.LVL726:
.LBE5809:
.LBE5821:
.LBB5822:
.LBB5798:
	lfs 8,160(1)
	fmuls 4,13,12
.LVL727:
	.loc 5 553 0
	lfs 12,9072(25)
.LVL728:
.LBE5798:
.LBE5822:
.LBB5823:
.LBB5810:
	.loc 5 554 0
	fmuls 6,11,0
.LVL729:
	.loc 5 553 0
	lfs 11,9060(25)
.LBE5810:
.LBE5823:
.LBB5824:
.LBB5799:
	fmuls 2,10,13
.LVL730:
	.loc 5 554 0
	lfs 10,156(1)
	.loc 5 555 0
	fmadds 4,12,8,4
	.loc 5 554 0
	fmadds 0,12,10,3
	.loc 5 553 0
	fmadds 13,9,12,2
	lfs 12,9080(25)
.LBE5799:
.LBE5824:
.LBB5825:
.LBB5811:
	fmadds 5,9,11,5
.LBE5811:
.LBE5825:
.LBB5826:
.LBB5800:
	lfs 9,176(1)
.LBE5800:
.LBE5826:
.LBB5827:
.LBB5812:
	.loc 5 554 0
	fmadds 6,10,11,6
.LBE5812:
.LBE5827:
.LBB5828:
.LBB5801:
	lfs 10,180(1)
.LBE5801:
.LBE5828:
.LBB5829:
.LBB5813:
	.loc 5 555 0
	fmadds 11,8,11,7
	.loc 5 553 0
	lfs 8,9068(25)
.LBE5813:
.LBE5829:
.LBB5830:
.LBB5802:
	.loc 5 555 0
	lfs 7,184(1)
	.loc 5 553 0
	fmadds 13,9,12,13
.LVL731:
	.loc 5 554 0
	fmadds 0,12,10,0
.LVL732:
.LBE5802:
.LBE5830:
.LBB5831:
.LBB5814:
	.loc 5 553 0
	fmadds 9,9,8,5
.LBE5814:
.LBE5831:
.LBB5832:
.LBB5803:
	.loc 5 555 0
	fmadds 12,12,7,4
	.loc 5 556 0
	stfs 13,9072(25)
.LBE5803:
.LBE5832:
.LBB5833:
.LBB5815:
	.loc 5 554 0
	fmadds 10,10,8,6
.LBE5815:
.LBE5833:
.LBB5834:
.LBB5804:
	.loc 5 557 0
	stfs 0,9076(25)
.LVL733:
.LBE5804:
.LBE5834:
.LBB5835:
.LBB5816:
	.loc 5 555 0
	fmadds 11,7,8,11
	.loc 5 556 0
	stfs 9,9060(25)
.LBE5816:
.LBE5835:
.LBB5836:
.LBB5805:
	.loc 5 555 0
	stfs 12,9080(25)
.LBE5805:
.LBE5836:
.LBB5837:
.LBB5817:
	.loc 5 557 0
	stfs 10,9064(25)
	.loc 5 555 0
	stfs 11,9068(25)
.LVL734:
.L385:
.LBE5817:
.LBE5837:
.LBB5838:
.LBB5839:
	.loc 3 730 0
	fmuls 7,0,0
	.loc 3 731 0
	lis 9,.LC2@ha
	lfs 8,.LC2@l(9)
.LBE5839:
.LBE5838:
.LBB5856:
.LBB5857:
	.loc 9 112 0
	li 0,0
.LBB5858:
.LBB5859:
	.loc 3 424 0
	stfs 9,256(1)
.LBE5859:
.LBE5858:
.LBE5857:
.LBE5856:
.LBB5868:
.LBB5869:
	.loc 3 730 0
	fmadds 7,13,13,7
.LBE5869:
.LBE5868:
.LBB5876:
.LBB5866:
.LBB5861:
.LBB5860:
	.loc 3 425 0
	stfs 10,260(1)
	.loc 3 426 0
	stfs 11,264(1)
.LVL735:
.LBE5860:
.LBE5861:
.LBB5862:
.LBB5863:
	.loc 3 424 0
	stfs 13,268(1)
.LBE5863:
.LBE5862:
.LBE5866:
.LBE5876:
.LBB5877:
.LBB5850:
	.loc 3 731 0
	fcmpu 7,7,8
.LBE5850:
.LBE5877:
.LBB5878:
.LBB5874:
	.loc 3 730 0
	stfs 7,328(1)
.LBE5874:
.LBE5878:
.LBB5879:
.LBB5867:
.LBB5865:
.LBB5864:
	.loc 3 425 0
	stfs 0,272(1)
	.loc 3 426 0
	stfs 12,276(1)
.LBE5864:
.LBE5865:
	.loc 9 111 0
	stfs 31,280(1)
	.loc 9 112 0
	stb 0,320(1)
.LVL736:
.LBE5867:
.LBE5879:
.LBB5880:
.LBB5875:
.LBB5870:
.LBB5871:
	.loc 3 424 0
	stfs 9,188(1)
	.loc 3 425 0
	stfs 10,192(1)
	.loc 3 426 0
	stfs 11,196(1)
.LVL737:
.LBE5871:
.LBE5870:
.LBB5872:
.LBB5873:
	.loc 3 424 0
	stfs 13,200(1)
	.loc 3 425 0
	stfs 0,204(1)
	.loc 3 426 0
	stfs 12,208(1)
.LBE5873:
.LBE5872:
	.loc 9 111 0
	stfs 29,212(1)
	.loc 9 112 0
	stb 0,252(1)
.LVL738:
.LBE5875:
.LBE5880:
.LBB5881:
.LBB5851:
	.loc 3 731 0
	beq- 7,.L520
.LVL739:
.LBB5840:
.LBB5841:
	.loc 7 270 0
	lwz 0,328(1)
.LVL740:
.LBE5841:
.LBE5840:
	.loc 3 737 0
	fneg 9,0
.LBB5843:
.LBB5842:
	.loc 7 275 0
	lfs 8,.LC8@l(6)
	.loc 7 276 0
	rlwinm 9,0,9,24,31
	rlwinm 0,0,19,21,29
	lwzx 0,7,0
	subfic 9,9,380
	rlwinm 9,9,22,0,8
	.loc 7 275 0
	fmuls 8,7,8
.LVL741:
	.loc 7 276 0
	or 0,9,0
	.loc 7 278 0
	lfs 10,.LC10@l(5)
	.loc 7 277 0
	stw 0,340(1)
	.loc 2 1258 0
	fneg 8,8
.LVL742:
	.loc 7 277 0
	lfs 4,340(1)
	fmr 11,4
.LVL743:
	.loc 7 278 0
	fmul 7,11,11
.LVL744:
	fmadd 7,8,7,10
	fmul 11,11,7
.LVL745:
	.loc 7 279 0
	fmul 7,11,11
	fmadd 10,8,7,10
.LVL746:
	fmul 11,11,10
.LVL747:
	.loc 7 280 0
	frsp 10,11
.LVL748:
.LBE5842:
.LBE5843:
	.loc 3 737 0
	fmuls 9,9,10
.LVL749:
	.loc 3 738 0
	fmuls 10,10,13
.LVL750:
.L387:
.LBE5851:
.LBE5881:
	.loc 2 1330 0
	lis 5,.LC2@ha
.LBB5882:
.LBB5852:
.LBB5844:
.LBB5845:
	.loc 3 620 0
	fmuls 7,9,12
.LBE5845:
.LBE5844:
.LBE5852:
.LBE5882:
	.loc 2 1330 0
	lfs 11,.LC2@l(5)
.LBB5883:
.LBB5853:
.LBB5848:
.LBB5846:
	.loc 3 620 0
	fmuls 8,10,13
.LBE5846:
.LBE5848:
.LBE5853:
.LBE5883:
	.loc 2 1339 0
	cmpwi 7,21,0
	.loc 2 1328 0
	stfs 9,9084(25)
.LVL751:
.LBB5884:
.LBB5854:
.LBB5849:
.LBB5847:
	.loc 3 620 0
	fmuls 6,0,11
.LBE5847:
.LBE5849:
.LBE5854:
.LBE5884:
	.loc 2 1329 0
	stfs 10,9096(25)
.LVL752:
	.loc 2 1332 0
	fnmsubs 7,13,11,7
	.loc 2 1330 0
	stfs 11,9108(25)
.LVL753:
	.loc 2 1333 0
	fnmsubs 8,9,0,8
	.loc 2 1334 0
	stfs 13,9092(25)
	.loc 2 1331 0
	fnmsubs 6,10,12,6
	.loc 2 1335 0
	stfs 0,9104(25)
	.loc 2 1332 0
	stfs 7,9100(25)
	.loc 2 1333 0
	stfs 8,9112(25)
	.loc 2 1331 0
	stfs 6,9088(25)
.LVL754:
	.loc 2 1336 0
	stfs 12,9116(25)
	.loc 2 1339 0
	beq- 7,.L388
.LVL755:
	lfs 13,2812(21)
.LVL756:
	lfs 0,2800(21)
.LVL757:
	fsubs 0,13,0
	fcmpu 7,0,11
	cror 30,28,30
	bne- 7,.L389
.LVL758:
	lfs 13,2816(21)
	lfs 0,2804(21)
	fsubs 0,13,0
	fcmpu 7,0,11
	cror 30,28,30
	bne- 7,.L389
.LVL759:
	lfs 13,2820(21)
	lfs 0,2808(21)
	fsubs 0,13,0
	fcmpu 7,0,11
	cror 30,28,30
	bne- 7,.L389
.LVL760:
.L388:
	.loc 2 1343 0
	cmpwi 4,17,0
	bne- 4,.L393
	lfs 11,8844(25)
	lfs 12,8848(25)
.LVL761:
	lfs 13,8852(25)
.LVL762:
.L394:
	.loc 2 1349 0
	lis 7,.LC2@ha
.LBB5885:
.LBB5886:
	.loc 3 424 0
	stfs 11,8856(25)
.LBE5886:
.LBE5885:
	.loc 2 1349 0
	lfs 0,.LC2@l(7)
.LBB5889:
.LBB5887:
	.loc 3 425 0
	stfs 12,8860(25)
.LBE5887:
.LBE5889:
	.loc 2 1349 0
	fcmpu 7,31,0
.LBB5890:
.LBB5888:
	.loc 3 426 0
	stfs 13,8864(25)
.LBE5888:
.LBE5890:
	.loc 2 1349 0
	bne- 7,.L596
.LVL763:
.L395:
.LBB5891:
.LBB5892:
	.loc 2 1353 0
	addi 19,1,188
	.loc 9 206 0
	mr 3,19
	bl _ZNK10idRotation6ToMat3Ev
.L396:
.LVL764:
.LBB5893:
.LBB5894:
	.loc 3 431 0
	lfs 12,192(1)
.LBE5894:
.LBE5893:
.LBE5892:
.LBE5891:
	.loc 2 1356 0
	li 26,1
.LVL765:
.LBB5968:
.LBB5946:
.LBB5901:
.LBB5895:
	.loc 3 431 0
	lfs 13,8860(25)
.LBE5895:
.LBE5901:
.LBE5946:
.LBE5968:
	.loc 2 1361 0
	mr 3,30
.LBB5969:
.LBB5947:
.LBB5902:
.LBB5896:
	.loc 3 431 0
	lfs 11,188(1)
.LBE5896:
.LBE5902:
.LBE5947:
.LBE5969:
	.loc 2 1361 0
	addi 4,25,60
.LBB5970:
.LBB5948:
.LBB5903:
.LBB5897:
	.loc 3 431 0
	fsubs 13,13,12
	lfs 0,8856(25)
.LBE5897:
.LBE5903:
.LBB5904:
.LBB5905:
.LBB5906:
	.loc 5 454 0
	lfs 26,228(1)
.LBE5906:
.LBE5905:
.LBE5904:
.LBE5948:
.LBE5970:
	.loc 2 1361 0
	addi 5,25,9072
.LBB5971:
.LBB5972:
	.loc 3 425 0
	lfs 9,8848(25)
.LBE5972:
.LBE5971:
.LBB5977:
.LBB5949:
.LBB5915:
.LBB5898:
	.loc 3 431 0
	fsubs 0,0,11
.LBE5898:
.LBE5915:
.LBE5949:
.LBE5977:
.LBB5978:
.LBB5979:
	lfs 5,9064(25)
.LBE5979:
.LBE5978:
.LBB5985:
.LBB5950:
.LBB5916:
.LBB5911:
.LBB5907:
	.loc 5 454 0
	fmuls 26,13,26
	lfs 29,232(1)
.LVL766:
.LBE5907:
.LBE5911:
.LBE5916:
.LBE5950:
.LBE5985:
	.loc 2 1361 0
	addi 6,25,8844
.LBB5986:
.LBB5980:
	.loc 3 431 0
	fsubs 6,9,5
.LBE5980:
.LBE5986:
.LBB5987:
.LBB5951:
.LBB5917:
.LBB5918:
	.loc 5 454 0
	lfs 24,216(1)
.LBE5918:
.LBE5917:
.LBE5951:
.LBE5987:
.LBB5988:
.LBB5973:
	.loc 3 424 0
	lfs 8,8844(25)
.LBE5973:
.LBE5988:
.LBB5989:
.LBB5952:
.LBB5927:
.LBB5912:
.LBB5908:
	.loc 5 454 0
	fmuls 29,13,29
.LBE5908:
.LBE5912:
.LBE5927:
.LBE5952:
.LBE5989:
.LBB5990:
.LBB5991:
	.loc 3 435 0
	lfs 4,9076(25)
.LBE5991:
.LBE5990:
.LBB5996:
.LBB5953:
.LBB5928:
.LBB5919:
	.loc 5 454 0
	fmadds 26,0,24,26
.LBE5919:
.LBE5928:
.LBE5953:
.LBE5996:
.LBB5997:
.LBB5981:
	.loc 3 431 0
	lfs 3,9060(25)
.LBE5981:
.LBE5997:
	.loc 2 1361 0
	addi 7,25,8856
.LBB5998:
.LBB5954:
.LBB5929:
.LBB5913:
.LBB5909:
	.loc 5 454 0
	lfs 25,236(1)
.LBE5909:
.LBE5913:
.LBE5929:
.LBE5954:
.LBE5998:
.LBB5999:
.LBB5992:
	.loc 3 435 0
	fmuls 6,6,4
.LBE5992:
.LBE5999:
.LBB6000:
.LBB5955:
.LBB5930:
.LBB5920:
	.loc 5 454 0
	lfs 24,220(1)
.LBE5920:
.LBE5930:
.LBE5955:
.LBE6000:
.LBB6001:
.LBB5982:
	.loc 3 431 0
	fsubs 23,8,3
.LBE5982:
.LBE6001:
.LBB6002:
.LBB5956:
.LBB5931:
.LBB5914:
.LBB5910:
	.loc 5 454 0
	fmuls 25,13,25
.LBE5910:
.LBE5914:
.LBE5931:
.LBE5956:
.LBE6002:
.LBB6003:
.LBB5974:
	.loc 3 426 0
	lfs 10,8852(25)
.LBE5974:
.LBE6003:
.LBB6004:
.LBB5983:
	.loc 3 431 0
	lfs 7,9068(25)
.LBE5983:
.LBE6004:
.LBB6005:
.LBB5957:
.LBB5932:
.LBB5921:
	.loc 5 454 0
	fmadds 29,0,24,29
.LBE5921:
.LBE5932:
.LBE5957:
.LBE6005:
.LBB6006:
.LBB5993:
	.loc 3 435 0
	lfs 2,9072(25)
.LBE5993:
.LBE6006:
	.loc 2 1361 0
	addi 8,25,72
.LBB6007:
.LBB5958:
.LBB5933:
.LBB5922:
	.loc 5 454 0
	lfs 24,224(1)
.LBE5922:
.LBE5933:
.LBB5934:
.LBB5899:
	.loc 3 431 0
	lfs 1,196(1)
	lfs 13,8864(25)
.LBE5899:
.LBE5934:
.LBB5935:
.LBB5923:
	.loc 5 454 0
	fmadds 25,0,24,25
.LBE5923:
.LBE5935:
.LBE5958:
.LBE6007:
.LBB6008:
.LBB5984:
	.loc 3 431 0
	fsubs 24,10,7
.LBE5984:
.LBE6008:
.LBB6009:
.LBB5975:
	.loc 3 424 0
	stfs 8,8(25)
.LBE5975:
.LBE6009:
.LBB6010:
.LBB5994:
	.loc 3 435 0
	fmadds 0,23,2,6
	lfs 6,9080(25)
.LBE5994:
.LBE6010:
.LBB6011:
.LBB5959:
.LBB5936:
.LBB5900:
	.loc 3 431 0
	fsubs 13,13,1
.LVL767:
.LBE5900:
.LBE5936:
.LBE5959:
.LBE6011:
.LBB6012:
.LBB5976:
	.loc 3 425 0
	stfs 9,12(25)
	.loc 3 426 0
	stfs 10,16(25)
.LBE5976:
.LBE6012:
.LBB6013:
.LBB5995:
	.loc 3 435 0
	fmadds 0,24,6,0
.LBE5995:
.LBE6013:
.LBB6014:
.LBB5960:
.LBB5937:
.LBB5924:
	.loc 5 454 0
	lfs 24,240(1)
	fmadds 26,13,24,26
	lfs 24,244(1)
.LBE5924:
.LBE5937:
.LBE5960:
.LBE6014:
.LBB6015:
.LBB6016:
	.loc 3 452 0
	fmadds 3,2,0,3
.LBE6016:
.LBE6015:
.LBB6020:
.LBB5961:
.LBB5938:
.LBB5925:
	.loc 5 454 0
	fmadds 29,13,24,29
	lfs 24,248(1)
	.loc 3 452 0
	fadds 11,11,26
	.loc 5 454 0
	fmadds 13,13,24,25
.LVL768:
	.loc 3 452 0
	fadds 12,12,29
.LBE5925:
.LBE5938:
.LBE5961:
.LBE6020:
.LBB6021:
.LBB6017:
	fmadds 5,4,0,5
.LBE6017:
.LBE6021:
.LBB6022:
.LBB5962:
.LBB5939:
.LBB5940:
	.loc 3 424 0
	stfs 11,8856(25)
.LBE5940:
.LBE5939:
.LBB5943:
.LBB5926:
	.loc 3 452 0
	fadds 13,1,13
.LVL769:
.LBE5926:
.LBE5943:
.LBE5962:
.LBE6022:
.LBB6023:
.LBB6024:
	.loc 3 424 0
	stfs 11,20(25)
.LBE6024:
.LBE6023:
.LBB6027:
.LBB6018:
	.loc 3 452 0
	fmadds 0,6,0,7
.LBE6018:
.LBE6027:
.LBB6028:
.LBB5963:
.LBB5944:
.LBB5941:
	.loc 3 425 0
	stfs 12,8860(25)
.LBE5941:
.LBE5944:
.LBE5963:
.LBE6028:
.LBB6029:
.LBB6025:
	stfs 12,24(25)
.LBE6025:
.LBE6029:
.LBB6030:
.LBB5964:
.LBB5945:
.LBB5942:
	.loc 3 426 0
	stfs 13,8864(25)
.LBE5942:
.LBE5945:
.LBE5964:
.LBE6030:
.LBB6031:
.LBB6026:
	stfs 13,28(25)
.LBE6026:
.LBE6031:
	.loc 2 1356 0
	stw 26,.LANCHOR0@l(18)
.LVL770:
.LBB6032:
.LBB6019:
	.loc 3 424 0
	stfs 3,60(25)
	.loc 3 425 0
	stfs 5,64(25)
	.loc 3 426 0
	stfs 0,68(25)
.LBE6019:
.LBE6032:
	.loc 2 1359 0
	stw 26,4(25)
.LVL771:
	.loc 2 1361 0
	bl _ZN28idCollisionModelManagerLocal17BoundsForRotationERK6idVec3S2_S2_S2_R8idBounds
.LVL772:
.LBB6033:
.LBB6034:
	.loc 8 235 0
	lfs 12,9076(25)
.LBE6034:
.LBE6033:
	.loc 2 1364 0
	li 0,0
.LBB6038:
.LBB6039:
.LBB6040:
.LBB6041:
	.loc 3 435 0
	lfs 13,8848(25)
.LBE6041:
.LBE6040:
.LBE6039:
.LBE6038:
	.loc 2 1378 0
	mr 3,30
.LBB6048:
.LBB6035:
	.loc 8 234 0
	lfs 11,9072(25)
.LBE6035:
.LBE6048:
	.loc 2 1378 0
	mr 4,25
.LBB6049:
.LBB6044:
.LBB6043:
.LBB6042:
	.loc 3 435 0
	fmuls 13,12,13
.LBE6042:
.LBE6043:
	lfs 10,8844(25)
.LBE6044:
.LBE6049:
	.loc 2 1370 0
	lfs 0,.LC1@l(20)
.LBB6050:
.LBB6051:
.LBB6052:
.LBB6053:
	.loc 5 333 0
	addi 30,31,16
.LVL773:
.LBE6053:
.LBE6052:
.LBE6051:
.LBE6050:
.LBB6071:
.LBB6045:
	.loc 3 435 0
	lfs 9,8852(25)
	fmadds 10,11,10,13
.LBE6045:
.LBE6071:
.LBB6072:
.LBB6036:
	.loc 8 236 0
	lfs 13,9080(25)
.LBE6036:
.LBE6072:
	.loc 2 1370 0
	fadds 27,27,0
.LVL774:
.LBB6073:
.LBB6074:
.LBB6075:
	.loc 3 424 0
	lwz 10,84(25)
	.loc 3 425 0
	lwz 11,88(25)
.LBE6075:
.LBE6074:
.LBE6073:
.LBB6080:
.LBB6046:
	.loc 8 298 0
	fnmadds 10,13,9,10
.LBE6046:
.LBE6080:
.LBB6081:
.LBB6078:
.LBB6076:
	.loc 3 426 0
	lwz 9,92(25)
	.loc 3 424 0
	lwz 6,72(25)
	.loc 3 425 0
	lwz 7,76(25)
	.loc 3 426 0
	lwz 8,80(25)
	.loc 3 424 0
	stw 10,8892(25)
	.loc 3 425 0
	stw 11,8896(25)
	.loc 3 426 0
	stw 9,8900(25)
.LBE6076:
.LBE6078:
.LBE6081:
	.loc 2 1364 0
	stw 0,7044(25)
	stw 0,2948(25)
.LBB6082:
.LBB6079:
.LBB6077:
	.loc 3 424 0
	stw 6,8880(25)
	.loc 3 425 0
	stw 7,8884(25)
	.loc 3 426 0
	stw 8,8888(25)
.LVL775:
.LBE6077:
.LBE6079:
.LBE6082:
	.loc 2 1367 0
	stb 26,9053(25)
.LVL776:
	.loc 2 1370 0
	stfs 27,8936(25)
	stfs 27,8932(25)
	stfs 27,8928(25)
.LVL777:
.LBB6083:
.LBB6037:
	.loc 8 234 0
	stfs 11,9212(25)
	.loc 8 235 0
	stfs 12,9216(25)
	.loc 8 236 0
	stfs 13,9220(25)
.LVL778:
.LBE6037:
.LBE6083:
.LBB6084:
.LBB6047:
	.loc 8 298 0
	stfs 10,9224(25)
.LBE6047:
.LBE6084:
	.loc 2 1375 0
	stfs 0,9228(25)
	.loc 2 1378 0
	bl _ZN28idCollisionModelManagerLocal17TraceThroughModelEP14cm_traceWork_s
.LVL779:
.LBB6085:
.LBB6070:
	.file 11 "d:/Data/Nintendo/DoomGX/src/cm/../idlib/../cm/CollisionModel.h"
	.loc 11 74 0
	lwz 0,8944(25)
.LBB6060:
.LBB6058:
	.loc 5 333 0
	addi 9,25,8960
	mr 11,30
	.loc 2 1258 0
	addi 10,25,8996
.LBE6058:
.LBE6060:
	.loc 11 74 0
	stw 0,0(31)
.LVL780:
.LBB6061:
.LBB6062:
	.loc 3 424 0
	lwz 0,8948(25)
	stw 0,4(31)
	.loc 3 425 0
	lwz 0,8952(25)
	stw 0,8(31)
	.loc 3 426 0
	lwz 0,8956(25)
	stw 0,12(31)
.LVL781:
.L397:
.LBE6062:
.LBE6061:
.LBB6063:
.LBB6059:
.LBB6054:
.LBB6055:
	.loc 3 424 0
	lwz 0,0(9)
	stw 0,0(11)
	.loc 3 425 0
	lwz 0,4(9)
	stw 0,4(11)
	.loc 3 426 0
	lwz 0,8(9)
	addi 9,9,12
.LBE6055:
.LBE6054:
	.loc 5 333 0
	cmpw 7,9,10
.LBB6057:
.LBB6056:
	.loc 3 426 0
	stw 0,8(11)
	addi 11,11,12
.LBE6056:
.LBE6057:
	.loc 5 333 0
	bne+ 7,.L397
.LVL782:
.LBE6059:
.LBE6063:
.LBB6064:
.LBB6065:
	.loc 11 71 0
	lwz 0,8996(25)
	stw 0,52(31)
.LVL783:
.LBB6066:
.LBB6067:
	.loc 3 424 0
	lwz 0,9000(25)
	stw 0,56(31)
	.loc 3 425 0
	lwz 0,9004(25)
	stw 0,60(31)
	.loc 3 426 0
	lwz 0,9008(25)
	stw 0,64(31)
.LVL784:
.LBE6067:
.LBE6066:
.LBB6068:
.LBB6069:
	.loc 3 424 0
	lwz 0,9012(25)
	stw 0,68(31)
	.loc 3 425 0
	lwz 0,9016(25)
	stw 0,72(31)
	.loc 3 426 0
	lwz 0,9020(25)
	stw 0,76(31)
.LBE6069:
.LBE6068:
	.loc 11 71 0
	lwz 0,9024(25)
	stw 0,80(31)
	lwz 0,9028(25)
	stw 0,84(31)
	lwz 0,9032(25)
	stw 0,88(31)
	lwz 0,9036(25)
	stw 0,92(31)
	lwz 0,9040(25)
	stw 0,96(31)
	lwz 0,9044(25)
	stw 0,100(31)
	lwz 0,9048(25)
	stw 0,104(31)
.LVL785:
.LBE6065:
.LBE6064:
.LBE6070:
.LBE6085:
.LBB6086:
.LBB6087:
	.loc 3 424 0
	lwz 0,0(27)
	stw 0,4(31)
	.loc 3 425 0
	lwz 0,4(27)
	stw 0,8(31)
	.loc 3 426 0
	lwz 0,8(27)
	stw 0,12(31)
.LBE6087:
.LBE6086:
	.loc 2 1383 0
	lfs 1,9124(25)
	lfs 0,332(1)
	fcmpu 7,0,1
	bne- 7,.L398
	.loc 2 1384 0
	lwz 0,.LC1@l(20)
	stw 0,0(31)
.L399:
.LVL786:
.LBB6088:
.LBB6089:
	.loc 2 1389 0
	stw 0,340(1)
.LBE6089:
.LBE6088:
.LBB6101:
.LBB6102:
	.loc 9 206 0
	mr 3,19
.LBE6102:
.LBE6101:
.LBB6144:
.LBB6100:
	.loc 2 1389 0
	lfs 4,340(1)
.LBB6090:
.LBB6091:
	.loc 3 426 0
	lwz 0,8(28)
.LVL787:
.LBE6091:
.LBE6090:
	.loc 2 1389 0
	fmadds 31,30,4,31
.LVL788:
.LBB6094:
.LBB6095:
	.loc 3 426 0
	lwz 10,8(29)
	.loc 3 424 0
	lwz 7,0(29)
	.loc 3 425 0
	lwz 8,4(29)
.LBE6095:
.LBE6094:
.LBB6097:
.LBB6092:
	.loc 3 424 0
	lwz 11,0(28)
	.loc 3 425 0
	lwz 9,4(28)
	.loc 3 426 0
	stw 0,208(1)
.LBE6092:
.LBE6097:
	.loc 9 112 0
	li 0,0
.LBB6098:
.LBB6096:
	.loc 3 426 0
	stw 10,196(1)
.LVL789:
	.loc 3 424 0
	stw 7,188(1)
	.loc 3 425 0
	stw 8,192(1)
.LBE6096:
.LBE6098:
.LBB6099:
.LBB6093:
	.loc 3 424 0
	stw 11,200(1)
	.loc 3 425 0
	stw 9,204(1)
.LBE6093:
.LBE6099:
	.loc 9 111 0
	stfs 31,212(1)
	.loc 9 112 0
	stb 0,252(1)
.LVL790:
.LBE6100:
.LBE6144:
.LBB6145:
.LBB6143:
	.loc 9 206 0
	bl _ZNK10idRotation6ToMat3Ev
.LVL791:
.LBB6103:
.LBB6104:
	.loc 3 431 0
	lfs 10,192(1)
.LBE6104:
.LBE6103:
.LBB6110:
.LBB6111:
	.loc 3 426 0
	li 10,0
.LBE6111:
.LBE6110:
.LBB6114:
.LBB6105:
	.loc 3 431 0
	lfs 0,8(31)
	lfs 12,188(1)
	fsubs 0,0,10
	lfs 13,4(31)
.LBE6105:
.LBE6114:
.LBB6115:
.LBB6116:
.LBB6117:
	.loc 5 454 0
	lfs 8,232(1)
.LBE6117:
.LBE6116:
.LBE6115:
.LBB6124:
.LBB6106:
	.loc 3 431 0
	fsubs 13,13,12
.LBE6106:
.LBE6124:
.LBB6125:
.LBB6121:
.LBB6118:
	.loc 5 454 0
	lfs 9,236(1)
	fmuls 8,0,8
.LBE6118:
.LBE6121:
.LBE6125:
.LBB6126:
.LBB6127:
	lfs 6,220(1)
.LBE6127:
.LBE6126:
.LBB6132:
.LBB6122:
.LBB6119:
	fmuls 9,0,9
	lfs 7,228(1)
.LBE6119:
.LBE6122:
.LBE6132:
.LBB6133:
.LBB6107:
	.loc 3 431 0
	lfs 11,196(1)
.LBE6107:
.LBE6133:
.LBB6134:
.LBB6128:
	.loc 5 454 0
	fmadds 8,13,6,8
	lfs 6,224(1)
.LBE6128:
.LBE6134:
.LBB6135:
.LBB6123:
.LBB6120:
	fmuls 7,0,7
.LBE6120:
.LBE6123:
.LBE6135:
.LBB6136:
.LBB6108:
	.loc 3 431 0
	lfs 0,12(31)
.LBE6108:
.LBE6136:
.LBB6137:
.LBB6129:
	.loc 5 454 0
	fmadds 9,13,6,9
	lfs 6,216(1)
.LBE6129:
.LBE6137:
.LBB6138:
.LBB6109:
	.loc 3 431 0
	fsubs 0,0,11
.LVL792:
.LBE6109:
.LBE6138:
.LBB6139:
.LBB6130:
	.loc 5 454 0
	fmadds 13,13,6,7
.LVL793:
	lfs 7,244(1)
	fmadds 8,0,7,8
	lfs 7,248(1)
	fmadds 9,0,7,9
	lfs 7,240(1)
	.loc 3 452 0
	fadds 10,10,8
	.loc 5 454 0
	fmadds 0,0,7,13
.LVL794:
	.loc 3 452 0
	fadds 11,11,9
.LVL795:
.LBE6130:
.LBE6139:
.LBB6140:
.LBB6112:
	.loc 3 425 0
	stfs 10,8(31)
.LBE6112:
.LBE6140:
.LBB6141:
.LBB6131:
	.loc 3 452 0
	fadds 12,12,0
.LBE6131:
.LBE6141:
.LBB6142:
.LBB6113:
	.loc 3 426 0
	stfs 11,12(31)
.LVL796:
	.loc 3 424 0
	stfs 12,4(31)
.L400:
.LBE6113:
.LBE6142:
.LBE6143:
.LBE6145:
.LBB6146:
.LBB6147:
.LBB6148:
.LBB6149:
.LBB6150:
	mr 11,24
	mr 9,30
	lwzux 0,11,10
.LBE6150:
.LBE6149:
	.loc 5 333 0
	cmpwi 7,10,24
.LBB6153:
.LBB6151:
	.loc 3 424 0
	stwux 0,9,10
.LBE6151:
.LBE6153:
	.loc 5 333 0
	addi 10,10,12
.LBB6154:
.LBB6152:
	.loc 3 425 0
	lwz 0,4(11)
	stw 0,4(9)
	.loc 3 426 0
	lwz 0,8(11)
	stw 0,8(9)
.LBE6152:
.LBE6154:
	.loc 5 333 0
	bne+ 7,.L400
.LVL797:
.L593:
.LBE6148:
.LBE6147:
.LBE6146:
	.loc 2 1603 0
	lfs 0,.LC1@l(20)
	lfs 13,0(31)
	fcmpu 7,13,0
	bnl- 7,.L371
	.loc 2 1605 0
	bne- 4,.L511
	lfs 9,56(31)
	lfs 10,60(31)
	lfs 11,64(31)
	lfs 13,68(31)
	lfs 12,72(31)
	lfs 0,76(31)
.L512:
.LVL798:
.LBB6155:
.LBB6156:
	.loc 3 456 0
	lfs 7,0(22)
.LBE6156:
.LBE6155:
	.loc 2 1610 0
	lfs 8,80(31)
.LBB6158:
.LBB6157:
	.loc 3 456 0
	fadds 9,7,9
	stfs 9,56(31)
	.loc 3 457 0
	lfs 9,4(22)
	fadds 10,9,10
	stfs 10,60(31)
	.loc 3 458 0
	lfs 10,8(22)
	fadds 11,10,11
	stfs 11,64(31)
.LVL799:
.LBE6157:
.LBE6158:
.LBB6159:
.LBB6160:
	.loc 3 435 0
	lfs 11,4(22)
.LBE6160:
.LBE6159:
	lfs 10,0(22)
.LBB6162:
.LBB6161:
	fmuls 12,12,11
.LBE6161:
.LBE6162:
	lfs 11,8(22)
	fmadds 13,10,13,12
	fmadds 0,11,0,13
	.loc 2 1610 0
	fadds 0,8,0
	stfs 0,80(31)
.LVL800:
.L371:
.LBE6879:
	.loc 2 1612 0
	lwz 0,500(1)
	lwz 12,348(1)
	mtlr 0
	lwz 14,352(1)
	lwz 15,356(1)
	mtcrf 24,12
	lwz 16,360(1)
	lwz 17,364(1)
	lwz 18,368(1)
	lwz 19,372(1)
	lwz 20,376(1)
	lwz 21,380(1)
	lwz 22,384(1)
	lwz 23,388(1)
	lwz 24,392(1)
	lwz 25,396(1)
	lwz 26,400(1)
	lwz 27,404(1)
.LVL801:
	lwz 28,408(1)
.LVL802:
	lwz 29,412(1)
.LVL803:
	lwz 30,416(1)
	lwz 31,420(1)
.LVL804:
	lfd 23,424(1)
	lfd 24,432(1)
	lfd 25,440(1)
	lfd 26,448(1)
	lfd 27,456(1)
	lfd 28,464(1)
	lfd 29,472(1)
	lfd 30,480(1)
	lfd 31,488(1)
	addi 1,1,496
	.cfi_remember_state
.LCFI46:
	.cfi_def_cfa_offset 0
	.cfi_restore 70
	.cfi_restore 63
	.cfi_restore 62
	.cfi_restore 61
	.cfi_restore 60
	.cfi_restore 59
	.cfi_restore 58
	.cfi_restore 57
	.cfi_restore 56
	.cfi_restore 55
	.cfi_restore 31
	.cfi_restore 30
	.cfi_restore 29
	.cfi_restore 28
	.cfi_restore 27
	.cfi_restore 26
	.cfi_restore 25
	.cfi_restore 24
	.cfi_restore 23
	.cfi_restore 22
	.cfi_restore 21
	.cfi_restore 20
	.cfi_restore 19
	.cfi_restore 18
	.cfi_restore 17
	.cfi_restore 16
	.cfi_restore 15
	.cfi_restore 14
	blr
.LVL805:
.L389:
.LCFI47:
	.cfi_restore_state
.LBB6880:
	.loc 2 1405 0
	li 0,0
	.loc 2 1408 0
	mr 3,30
	mr 4,25
	mr 5,21
	.loc 2 1405 0
	stb 0,9053(25)
	.loc 2 1408 0
	bl _ZN28idCollisionModelManagerLocal8SetupTrmEP14cm_traceWork_sPK12idTraceModel
.LVL806:
.LBB6163:
.LBB6164:
.LBB6165:
.LBB6166:
	.loc 3 497 0
	lfs 0,0(26)
	lfs 13,mat3_identity@l(19)
	fcmpu 7,0,13
	bne- 7,.L404
	lfs 12,4(26)
	lfs 13,4(24)
	fcmpu 7,12,13
	beq- 7,.L597
.L404:
.LVL807:
.LBE6166:
.LBE6165:
.LBE6164:
.LBE6163:
	.loc 2 1414 0
	lwz 0,.LANCHOR0@l(18)
	li 11,0
	cmpwi 7,0,0
	bgt+ 7,.L579
	b .L607
.LVL808:
.L406:
.LBB6177:
.LBB6175:
.LBB6168:
.LBB6169:
	.loc 3 497 0
	lfs 0,0(26)
.LVL809:
.L579:
.LBE6169:
.LBE6168:
.LBE6175:
.LBE6177:
	.loc 2 1416 0
	mulli 10,11,92
.LBB6178:
.LBB6179:
	.loc 5 553 0
	lfs 9,12(26)
	.loc 5 555 0
	lfs 11,20(26)
.LBE6179:
.LBE6178:
	.loc 2 1414 0
	addi 11,11,1
	.loc 2 1416 0
	add 10,25,10
.LVL810:
.LBB6183:
.LBB6180:
	.loc 5 555 0
	lfs 10,8(26)
	.loc 5 553 0
	lfs 12,12(10)
	lfs 13,8(10)
.LVL811:
	fmuls 9,12,9
	lfs 7,24(26)
	.loc 5 555 0
	fmuls 11,12,11
	lfs 8,32(26)
	.loc 5 553 0
	fmadds 9,13,0,9
	lfs 0,16(10)
	.loc 5 555 0
	fmadds 10,13,10,11
	.loc 5 554 0
	lfs 11,16(26)
	.loc 5 553 0
	fmadds 9,7,0,9
.LVL812:
	.loc 5 554 0
	fmuls 12,12,11
	lfs 11,28(26)
	.loc 5 555 0
	fmadds 8,0,8,10
	.loc 5 554 0
	lfs 10,4(26)
	.loc 5 556 0
	stfs 9,8(10)
	.loc 5 554 0
	fmadds 13,13,10,12
.LBE6180:
.LBE6183:
	.loc 2 1414 0
	lwz 0,0(25)
.LBB6184:
.LBB6181:
	.loc 5 555 0
	stfs 8,16(10)
.LBE6181:
.LBE6184:
	.loc 2 1414 0
	cmpw 7,11,0
.LBB6185:
.LBB6182:
	.loc 5 554 0
	fmadds 0,0,11,13
.LVL813:
	.loc 5 557 0
	stfs 0,12(10)
.LBE6182:
.LBE6185:
	.loc 2 1414 0
	blt+ 7,.L406
	.loc 5 625 0
	li 7,1
	.loc 2 1414 0
	stw 17,336(1)
	.loc 5 625 0
	stw 7,328(1)
.LVL814:
.L405:
	.loc 2 1419 0
	cmpwi 7,0,0
	ble- 7,.L407
	li 11,0
.LVL815:
.L408:
	.loc 2 1421 0
	mulli 10,11,92
.LBB6186:
.LBB6187:
	.loc 3 456 0
	lfs 0,8844(25)
.LBE6187:
.LBE6186:
	.loc 2 1419 0
	addi 11,11,1
	.loc 2 1421 0
	add 10,25,10
.LBB6191:
.LBB6188:
	.loc 3 456 0
	lfs 13,8(10)
.LVL816:
	fadds 0,13,0
	.loc 3 457 0
	lfs 13,12(10)
	.loc 3 456 0
	stfs 0,8(10)
	.loc 3 457 0
	lfs 0,8848(25)
.LBE6188:
.LBE6191:
	.loc 2 1419 0
	lwz 0,0(25)
.LBB6192:
.LBB6189:
	.loc 3 457 0
	fadds 0,13,0
	.loc 3 458 0
	lfs 13,16(10)
.LBE6189:
.LBE6192:
	.loc 2 1419 0
	cmpw 7,11,0
.LBB6193:
.LBB6190:
	.loc 3 457 0
	stfs 0,12(10)
	.loc 3 458 0
	lfs 0,8852(25)
	fadds 0,13,0
	stfs 0,16(10)
.LBE6190:
.LBE6193:
	.loc 2 1419 0
	blt+ 7,.L408
	cmpwi 7,0,0
.LVL817:
.L407:
	.loc 2 1423 0
	cmpwi 4,17,0
	beq- 4,.L409
.LVL818:
	.loc 2 1424 0
	ble- 7,.L410
	lfs 1,152(1)
	li 11,0
	lfs 2,164(1)
	lfs 3,176(1)
	lfs 4,156(1)
	lfs 5,168(1)
	lfs 6,180(1)
	lfs 7,160(1)
	lfs 8,172(1)
	lfs 9,184(1)
.LVL819:
.L411:
	.loc 2 1425 0
	mulli 10,11,92
	.loc 2 1424 0
	addi 11,11,1
	.loc 2 1425 0
	add 10,25,10
.LVL820:
.LBB6194:
.LBB6195:
	.loc 5 553 0
	lfs 12,12(10)
	lfs 13,8(10)
.LVL821:
	fmuls 11,12,2
	lfs 0,16(10)
.LVL822:
	.loc 5 555 0
	fmuls 10,12,8
	.loc 5 554 0
	fmuls 12,12,5
	.loc 5 553 0
	fmadds 11,13,1,11
	.loc 5 555 0
	fmadds 10,13,7,10
	.loc 5 554 0
	fmadds 13,13,4,12
	.loc 5 553 0
	fmadds 11,0,3,11
	.loc 5 555 0
	fmadds 10,0,9,10
	.loc 5 554 0
	fmadds 0,0,6,13
	.loc 5 556 0
	stfs 11,8(10)
	.loc 5 555 0
	stfs 10,16(10)
.LBE6195:
.LBE6194:
	.loc 2 1424 0
	lwz 0,0(25)
.LBB6197:
.LBB6196:
	.loc 5 557 0
	stfs 0,12(10)
.LBE6196:
.LBE6197:
	.loc 2 1424 0
	cmpw 7,11,0
	blt+ 7,.L411
	cmpwi 7,0,0
.LVL823:
.L409:
	.loc 2 1428 0
	ble- 7,.L410
	li 9,0
.LVL824:
.L412:
	.loc 2 1429 0
	mulli 11,9,92
	.loc 2 1428 0
	addi 9,9,1
	.loc 2 1429 0
	add 10,25,11
	addi 11,11,16
.LBB6198:
.LBB6199:
	.loc 3 424 0
	lwz 0,8(10)
.LBE6199:
.LBE6198:
	.loc 2 1429 0
	add 11,25,11
.LBB6203:
.LBB6200:
	.loc 3 424 0
	stw 0,4(11)
	.loc 3 425 0
	lwz 8,12(10)
.LBE6200:
.LBE6203:
	.loc 2 1429 0
	addi 10,10,8
	.loc 2 1428 0
	lwz 0,0(25)
.LVL825:
.LBB6204:
.LBB6201:
	.loc 3 425 0
	stw 8,8(11)
.LBE6201:
.LBE6204:
	.loc 2 1428 0
	cmpw 7,9,0
.LBB6205:
.LBB6202:
	.loc 3 426 0
	lwz 10,8(10)
.LVL826:
	stw 10,12(11)
.LBE6202:
.LBE6205:
	.loc 2 1428 0
	blt+ 7,.L412
	cmpwi 7,0,0
.LVL827:
.L410:
	.loc 2 1432 0
	lis 9,.LC2@ha
	lfs 0,.LC2@l(9)
	fcmpu 6,31,0
	beq- 6,.L413
.LVL828:
	.loc 2 1433 0
	ble- 7,.L583
	li 19,0
.LVL829:
.L416:
.LBB6206:
.LBB6207:
	.loc 9 205 0
	lbz 0,320(1)
.LBE6207:
.LBE6206:
	.loc 2 1434 0
	mulli 17,19,92
	.loc 2 1433 0
	addi 19,19,1
.LBB6253:
.LBB6249:
	.loc 9 205 0
	cmpwi 7,0,0
.LBE6249:
.LBE6253:
	.loc 2 1434 0
	add 17,25,17
	addi 24,17,8
.LVL830:
.LBB6254:
.LBB6250:
	.loc 9 205 0
	bne+ 7,.L415
	.loc 9 206 0
	addi 3,1,256
	bl _ZNK10idRotation6ToMat3Ev
.L415:
.LVL831:
.LBB6208:
.LBB6209:
	.loc 3 431 0
	lfs 12,4(24)
	lfs 10,260(1)
	lfs 13,8(17)
	fsubs 12,12,10
	lfs 9,256(1)
.LBE6209:
.LBE6208:
.LBB6213:
.LBB6214:
.LBB6215:
	.loc 5 454 0
	lfs 8,296(1)
.LBE6215:
.LBE6214:
.LBE6213:
.LBB6224:
.LBB6210:
	.loc 3 431 0
	fsubs 13,13,9
	lfs 0,8(24)
.LBE6210:
.LBE6224:
.LBB6225:
.LBB6220:
.LBB6216:
	.loc 5 454 0
	fmuls 8,12,8
.LBE6216:
.LBE6220:
.LBE6225:
.LBB6226:
.LBB6211:
	.loc 3 431 0
	lfs 11,264(1)
.LBE6211:
.LBE6226:
.LBB6227:
.LBB6228:
	.loc 5 454 0
	lfs 7,284(1)
.LBE6228:
.LBE6227:
.LBB6235:
.LBB6212:
	.loc 3 431 0
	fsubs 0,0,11
.LVL832:
.LBE6212:
.LBE6235:
.LBB6236:
.LBB6221:
.LBB6217:
	.loc 5 454 0
	lfs 6,304(1)
.LBE6217:
.LBE6221:
.LBE6236:
.LBB6237:
.LBB6229:
	fmadds 8,13,7,8
	lfs 7,308(1)
	fmadds 7,0,7,8
.LBE6229:
.LBE6237:
.LBB6238:
.LBB6222:
.LBB6218:
	lfs 8,300(1)
	fmuls 8,12,8
.LBE6218:
.LBE6222:
.LBE6238:
.LBB6239:
.LBB6230:
	.loc 3 452 0
	fadds 9,9,7
	.loc 5 454 0
	lfs 7,288(1)
.LBE6230:
.LBE6239:
.LBB6240:
.LBB6223:
.LBB6219:
	fmuls 12,12,6
.LVL833:
.LBE6219:
.LBE6223:
.LBE6240:
.LBB6241:
.LBB6231:
	fmadds 8,13,7,8
	lfs 7,292(1)
.LBE6231:
.LBE6241:
.LBB6242:
.LBB6243:
	.loc 3 424 0
	stfs 9,8(17)
.LBE6243:
.LBE6242:
.LBB6245:
.LBB6232:
	.loc 5 454 0
	fmadds 13,13,7,12
.LVL834:
	lfs 9,312(1)
	lfs 12,316(1)
	fmadds 9,0,9,8
.LVL835:
.LBE6232:
.LBE6245:
.LBE6250:
.LBE6254:
	.loc 2 1433 0
	lwz 0,0(25)
.LBB6255:
.LBB6251:
.LBB6246:
.LBB6233:
	.loc 5 454 0
	fmadds 0,0,12,13
.LVL836:
.LBE6233:
.LBE6246:
.LBE6251:
.LBE6255:
	.loc 2 1433 0
	cmpw 7,19,0
.LBB6256:
.LBB6252:
.LBB6247:
.LBB6234:
	.loc 3 452 0
	fadds 10,10,9
	fadds 11,11,0
.LVL837:
.LBE6234:
.LBE6247:
.LBB6248:
.LBB6244:
	.loc 3 425 0
	stfs 10,4(24)
	.loc 3 426 0
	stfs 11,8(24)
.LBE6244:
.LBE6248:
.LBE6252:
.LBE6256:
	.loc 2 1433 0
	blt+ 7,.L416
	cmpwi 7,0,0
.LVL838:
.L413:
	.loc 2 1437 0
	ble- 7,.L583
	li 17,0
	addi 19,1,188
.LVL839:
.L418:
.LBB6257:
.LBB6258:
	.loc 9 205 0
	lbz 0,252(1)
.LBE6258:
.LBE6257:
	.loc 2 1439 0
	mulli 16,17,92
	.loc 2 1437 0
	addi 17,17,1
.LBB6304:
.LBB6300:
	.loc 9 205 0
	cmpwi 7,0,0
.LBE6300:
.LBE6304:
	.loc 2 1439 0
	addi 16,16,16
	add 16,25,16
	addi 24,16,4
.LVL840:
.LBB6305:
.LBB6301:
	.loc 9 205 0
	bne+ 7,.L417
	.loc 9 206 0
	mr 3,19
	bl _ZNK10idRotation6ToMat3Ev
.L417:
.LVL841:
.LBB6259:
.LBB6260:
	.loc 3 431 0
	lfs 12,4(24)
	lfs 10,192(1)
	lfs 13,4(16)
	fsubs 12,12,10
	lfs 9,188(1)
.LBE6260:
.LBE6259:
.LBB6264:
.LBB6265:
.LBB6266:
	.loc 5 454 0
	lfs 8,228(1)
.LBE6266:
.LBE6265:
.LBE6264:
.LBB6275:
.LBB6261:
	.loc 3 431 0
	fsubs 13,13,9
	lfs 0,8(24)
.LBE6261:
.LBE6275:
.LBB6276:
.LBB6271:
.LBB6267:
	.loc 5 454 0
	fmuls 8,12,8
.LBE6267:
.LBE6271:
.LBE6276:
.LBB6277:
.LBB6262:
	.loc 3 431 0
	lfs 11,196(1)
.LBE6262:
.LBE6277:
.LBB6278:
.LBB6279:
	.loc 5 454 0
	lfs 7,216(1)
.LBE6279:
.LBE6278:
.LBB6286:
.LBB6263:
	.loc 3 431 0
	fsubs 0,0,11
.LVL842:
.LBE6263:
.LBE6286:
.LBB6287:
.LBB6272:
.LBB6268:
	.loc 5 454 0
	lfs 6,236(1)
.LBE6268:
.LBE6272:
.LBE6287:
.LBB6288:
.LBB6280:
	fmadds 8,13,7,8
	lfs 7,240(1)
	fmadds 7,0,7,8
.LBE6280:
.LBE6288:
.LBB6289:
.LBB6273:
.LBB6269:
	lfs 8,232(1)
	fmuls 8,12,8
.LBE6269:
.LBE6273:
.LBE6289:
.LBB6290:
.LBB6281:
	.loc 3 452 0
	fadds 9,9,7
	.loc 5 454 0
	lfs 7,220(1)
.LBE6281:
.LBE6290:
.LBB6291:
.LBB6274:
.LBB6270:
	fmuls 12,12,6
.LVL843:
.LBE6270:
.LBE6274:
.LBE6291:
.LBB6292:
.LBB6282:
	fmadds 8,13,7,8
	lfs 7,224(1)
.LBE6282:
.LBE6292:
.LBB6293:
.LBB6294:
	.loc 3 424 0
	stfs 9,4(16)
.LBE6294:
.LBE6293:
.LBB6296:
.LBB6283:
	.loc 5 454 0
	fmadds 13,13,7,12
.LVL844:
	lfs 9,244(1)
	lfs 12,248(1)
	fmadds 9,0,9,8
.LVL845:
.LBE6283:
.LBE6296:
.LBE6301:
.LBE6305:
	.loc 2 1437 0
	lwz 0,0(25)
.LBB6306:
.LBB6302:
.LBB6297:
.LBB6284:
	.loc 5 454 0
	fmadds 0,0,12,13
.LVL846:
.LBE6284:
.LBE6297:
.LBE6302:
.LBE6306:
	.loc 2 1437 0
	cmpw 7,17,0
.LBB6307:
.LBB6303:
.LBB6298:
.LBB6285:
	.loc 3 452 0
	fadds 10,10,9
	fadds 11,11,0
.LVL847:
.LBE6285:
.LBE6298:
.LBB6299:
.LBB6295:
	.loc 3 425 0
	stfs 10,4(24)
	.loc 3 426 0
	stfs 11,8(24)
.LBE6295:
.LBE6299:
.LBE6303:
.LBE6307:
	.loc 2 1437 0
	blt+ 7,.L418
.LVL848:
.L414:
	.loc 2 1443 0
	lwz 0,328(1)
	cmpwi 3,0,0
	beq- 3,.L419
.LVL849:
.LBB6308:
.LBB6309:
.LBB6310:
	.loc 5 454 0
	lfs 0,2792(21)
	lfs 10,16(26)
	lfs 11,20(26)
	lfs 13,12(26)
	fmuls 10,0,10
	fmuls 11,0,11
	lfs 8,4(26)
	fmuls 13,0,13
	lfs 9,8(26)
	lfs 0,2788(21)
.LBE6310:
.LBE6309:
.LBE6308:
.LBB6319:
.LBB6320:
	lfs 12,0(26)
.LBE6320:
.LBE6319:
.LBB6325:
.LBB6315:
.LBB6311:
	fmadds 10,0,8,10
	lfs 8,28(26)
	fmadds 11,0,9,11
	lfs 9,32(26)
.LBE6311:
.LBE6315:
.LBE6325:
.LBB6326:
.LBB6321:
	fmadds 0,12,0,13
.LBE6321:
.LBE6326:
.LBB6327:
.LBB6316:
.LBB6312:
	lfs 13,2796(21)
.LBE6312:
.LBE6316:
.LBE6327:
.LBB6328:
.LBB6322:
	lfs 12,24(26)
.LBE6322:
.LBE6328:
.LBB6329:
.LBB6317:
.LBB6313:
	fmadds 11,13,9,11
.LVL850:
.LBE6313:
.LBE6317:
.LBE6329:
.LBB6330:
.LBB6323:
	.loc 3 456 0
	lfs 9,8844(25)
.LBE6323:
.LBE6330:
.LBB6331:
.LBB6318:
.LBB6314:
	.loc 5 454 0
	fmadds 10,13,8,10
.LVL851:
.LBE6314:
.LBE6318:
.LBE6331:
.LBB6332:
.LBB6324:
	fmadds 13,12,13,0
	.loc 3 457 0
	lfs 12,8848(25)
	.loc 3 458 0
	lfs 0,8852(25)
	.loc 3 457 0
	fadds 12,10,12
	.loc 3 456 0
	fadds 13,13,9
	.loc 3 458 0
	fadds 0,11,0
	.loc 3 457 0
	stfs 12,8848(25)
	.loc 3 456 0
	stfs 13,8844(25)
	.loc 3 458 0
	stfs 0,8852(25)
.LVL852:
.L420:
.LBE6324:
.LBE6332:
	.loc 2 1449 0
	bne- 4,.L599
.L421:
.LVL853:
	.loc 2 1455 0
	lis 5,.LC2@ha
.LBB6333:
.LBB6334:
	.loc 3 424 0
	stfs 13,8856(25)
.LBE6334:
.LBE6333:
	.loc 2 1455 0
	lfs 11,.LC2@l(5)
.LBB6337:
.LBB6335:
	.loc 3 425 0
	stfs 12,8860(25)
.LBE6335:
.LBE6337:
	.loc 2 1455 0
	fcmpu 7,31,11
.LBB6338:
.LBB6336:
	.loc 3 426 0
	stfs 0,8864(25)
.LBE6336:
.LBE6338:
	.loc 2 1455 0
	bne- 7,.L600
.L422:
.LVL854:
.LBB6339:
.LBB6340:
	.loc 9 205 0
	lbz 0,252(1)
	cmpwi 7,0,0
	bne+ 7,.L424
	.loc 9 206 0
	mr 3,19
	bl _ZNK10idRotation6ToMat3Ev
.L424:
.LVL855:
.LBB6341:
.LBB6342:
	.loc 3 431 0
	lfs 10,192(1)
	lfs 0,8860(25)
	lfs 12,188(1)
	fsubs 0,0,10
	lfs 13,8856(25)
.LBE6342:
.LBE6341:
.LBB6347:
.LBB6348:
.LBB6349:
	.loc 5 454 0
	lfs 8,232(1)
.LBE6349:
.LBE6348:
.LBE6347:
.LBB6356:
.LBB6343:
	.loc 3 431 0
	fsubs 13,13,12
.LBE6343:
.LBE6356:
.LBB6357:
.LBB6353:
.LBB6350:
	.loc 5 454 0
	lfs 9,236(1)
	fmuls 8,0,8
.LBE6350:
.LBE6353:
.LBE6357:
.LBB6358:
.LBB6359:
	lfs 6,220(1)
.LBE6359:
.LBE6358:
.LBB6365:
.LBB6354:
.LBB6351:
	fmuls 9,0,9
	lfs 7,228(1)
.LBE6351:
.LBE6354:
.LBE6365:
.LBB6366:
.LBB6344:
	.loc 3 431 0
	lfs 11,196(1)
.LBE6344:
.LBE6366:
.LBB6367:
.LBB6360:
	.loc 5 454 0
	fmadds 8,13,6,8
	lfs 6,224(1)
.LBE6360:
.LBE6367:
.LBB6368:
.LBB6355:
.LBB6352:
	fmuls 7,0,7
.LBE6352:
.LBE6355:
.LBE6368:
.LBB6369:
.LBB6345:
	.loc 3 431 0
	lfs 0,8864(25)
.LBE6345:
.LBE6369:
.LBB6370:
.LBB6361:
	.loc 5 454 0
	fmadds 9,13,6,9
	lfs 6,216(1)
.LBE6361:
.LBE6370:
.LBB6371:
.LBB6346:
	.loc 3 431 0
	fsubs 0,0,11
.LVL856:
.LBE6346:
.LBE6371:
.LBE6340:
.LBE6339:
	.loc 2 1462 0
	lwz 0,.LANCHOR0@l(18)
.LBB6381:
.LBB6379:
.LBB6372:
.LBB6362:
	.loc 5 454 0
	fmadds 13,13,6,7
.LVL857:
	lfs 7,244(1)
.LBE6362:
.LBE6372:
.LBE6379:
.LBE6381:
	.loc 2 1462 0
	cmpwi 7,0,0
.LBB6382:
.LBB6380:
.LBB6373:
.LBB6363:
	.loc 5 454 0
	fmadds 8,0,7,8
	lfs 7,248(1)
	fmadds 9,0,7,9
	lfs 7,240(1)
	.loc 3 452 0
	fadds 10,10,8
	.loc 5 454 0
	fmadds 0,0,7,13
.LVL858:
	.loc 3 452 0
	fadds 11,11,9
.LVL859:
.LBE6363:
.LBE6373:
.LBB6374:
.LBB6375:
	.loc 3 425 0
	stfs 10,8860(25)
.LBE6375:
.LBE6374:
.LBB6377:
.LBB6364:
	.loc 3 452 0
	fadds 12,12,0
.LBE6364:
.LBE6377:
.LBB6378:
.LBB6376:
	.loc 3 426 0
	stfs 11,8864(25)
.LVL860:
	.loc 3 424 0
	stfs 12,8856(25)
.LBE6376:
.LBE6378:
.LBE6380:
.LBE6382:
	.loc 2 1462 0
	ble- 7,.L425
	lis 17,.LC7@ha
	li 21,0
.LVL861:
	addi 24,25,4
	addi 16,25,9072
	la 17,.LC7@l(17)
.LVL862:
.L428:
.LBB6383:
.LBB6384:
	.loc 3 431 0
	lfs 11,9064(25)
.LBE6384:
.LBE6383:
	.loc 2 1466 0
	addi 4,24,56
.LBB6390:
.LBB6385:
	.loc 3 431 0
	lfs 12,8(24)
.LBE6385:
.LBE6390:
	.loc 2 1466 0
	addi 6,24,4
.LBB6391:
.LBB6392:
	.loc 3 435 0
	lfs 10,9076(25)
.LBE6392:
.LBE6391:
	.loc 2 1466 0
	addi 7,24,16
.LBB6395:
.LBB6386:
	.loc 3 431 0
	fsubs 12,12,11
	lfs 9,9060(25)
	lfs 7,4(24)
.LBE6386:
.LBE6395:
	.loc 2 1466 0
	addi 8,24,68
.LBB6396:
.LBB6387:
	.loc 3 431 0
	lfs 13,9068(25)
.LVL863:
.LBE6387:
.LBE6396:
	.loc 2 1466 0
	mr 3,30
.LBB6397:
.LBB6393:
	.loc 3 435 0
	fmuls 12,12,10
.LVL864:
	lfs 8,9072(25)
.LBE6393:
.LBE6397:
.LBB6398:
.LBB6388:
	.loc 3 431 0
	fsubs 7,7,9
	lfs 0,12(24)
.LBE6388:
.LBE6398:
	.loc 2 1466 0
	mr 5,16
	.loc 2 1462 0
	addi 21,21,1
.LBB6399:
.LBB6389:
	.loc 3 431 0
	fsubs 0,0,13
.LBE6389:
.LBE6399:
.LBB6400:
.LBB6394:
	.loc 3 435 0
	fmadds 7,7,8,12
	lfs 12,9080(25)
	fmadds 0,0,12,7
.LVL865:
.LBE6394:
.LBE6400:
.LBB6401:
.LBB6402:
	.loc 3 452 0
	fmadds 11,10,0,11
	fmadds 9,8,0,9
	fmadds 0,12,0,13
.LVL866:
	.loc 3 425 0
	stfs 11,60(24)
	.loc 3 424 0
	stfs 9,56(24)
	.loc 3 426 0
	stfs 0,64(24)
.LBE6402:
.LBE6401:
	.loc 2 1466 0
	bl _ZN28idCollisionModelManagerLocal17BoundsForRotationERK6idVec3S2_S2_S2_R8idBounds
.LVL867:
.LBB6403:
.LBB6404:
	.loc 3 431 0
	lfs 0,60(24)
	lfs 12,8(24)
	lfs 13,4(24)
	fsubs 12,12,0
	lfs 0,56(24)
	lfs 10,12(24)
	fsubs 13,13,0
	lfs 0,64(24)
.LBE6404:
.LBE6403:
.LBB6406:
.LBB6407:
	.loc 3 636 0
	fmuls 12,12,12
.LBE6407:
.LBE6406:
	.loc 2 1469 0
	lfs 11,0(17)
.LBB6408:
.LBB6405:
	.loc 3 431 0
	fsubs 0,10,0
.LVL868:
.LBE6405:
.LBE6408:
	.loc 3 636 0
	fmadds 13,13,13,12
.LVL869:
	fmadds 0,0,0,13
.LVL870:
	.loc 2 1469 0
	fcmpu 7,0,11
	bng- 7,.L426
	.loc 2 1470 0
	li 7,1
	stw 7,0(24)
.L426:
.LVL871:
	.loc 2 1462 0
	lwz 0,0(25)
	addi 24,24,92
.LVL872:
	cmpw 7,21,0
	blt+ 7,.L428
.LVL873:
.L425:
	.loc 2 1475 0
	lwz 0,2948(25)
	cmpwi 7,0,0
	ble- 7,.L429
	li 8,1
	addi 9,25,3076
	.loc 2 1478 0
	li 3,1
	.loc 2 1492 0
	li 0,0
.LVL874:
.L443:
	.loc 2 1477 0
	lwz 10,28(9)
	lwz 11,32(9)
	mulli 10,10,92
	mulli 11,11,92
	add 7,25,10
	add 6,25,11
	lwz 7,4(7)
	lwz 6,4(6)
	or. 5,6,7
	beq- 0,.L430
	.loc 2 1478 0
	stw 3,0(9)
.L430:
	.loc 2 1481 0
	add 4,25,10
	.loc 2 1482 0
	add 7,25,11
.LBB6409:
.LBB6410:
	.loc 3 424 0
	lfs 11,8(4)
.LVL875:
.LBE6410:
.LBE6409:
	.loc 2 1489 0
	addi 10,10,64
	add 6,25,10
	.loc 2 1490 0
	addi 11,11,64
.LBB6412:
.LBB6411:
	.loc 3 424 0
	stfs 11,4(9)
	.loc 3 425 0
	lfs 9,12(4)
	stfs 9,8(9)
	.loc 3 426 0
	lfs 13,16(4)
	stfs 13,12(9)
.LVL876:
.LBE6411:
.LBE6412:
.LBB6413:
.LBB6414:
	.loc 3 424 0
	lfs 12,8(7)
	stfs 12,16(9)
.LBE6414:
.LBE6413:
.LBB6419:
.LBB6420:
	.loc 4 250 0
	fmuls 3,9,12
	.loc 4 251 0
	fmuls 4,13,12
.LBE6420:
.LBE6419:
.LBB6427:
.LBB6415:
	.loc 3 425 0
	lfs 10,12(7)
.LBE6415:
.LBE6427:
.LBB6428:
.LBB6421:
	.loc 4 252 0
	fsubs 5,11,12
.LBE6421:
.LBE6428:
.LBB6429:
.LBB6416:
	.loc 3 425 0
	stfs 10,20(9)
.LBE6416:
.LBE6429:
.LBB6430:
.LBB6422:
	.loc 4 253 0
	fmuls 6,13,10
	.loc 4 250 0
	fmsubs 3,11,10,3
.LBE6422:
.LBE6430:
.LBB6431:
.LBB6417:
	.loc 3 426 0
	lfs 0,16(7)
.LBE6417:
.LBE6431:
.LBB6432:
.LBB6423:
	.loc 4 255 0
	fsubs 8,10,9
	.loc 4 252 0
	stfs 5,44(9)
.LBE6423:
.LBE6432:
	.loc 2 1490 0
	add 7,25,11
.LBB6433:
.LBB6424:
	.loc 4 251 0
	fmsubs 4,11,0,4
.LBE6424:
.LBE6433:
.LBB6434:
.LBB6418:
	.loc 3 426 0
	stfs 0,24(9)
.LVL877:
.LBE6418:
.LBE6434:
.LBB6435:
.LBB6425:
	.loc 4 253 0
	fmsubs 6,9,0,6
	.loc 4 250 0
	stfs 3,36(9)
.LVL878:
	.loc 4 254 0
	fsubs 7,13,0
	.loc 4 255 0
	stfs 8,56(9)
	.loc 4 251 0
	stfs 4,40(9)
.LVL879:
.LBE6425:
.LBE6435:
	.loc 2 1490 0
	addi 11,7,8
.LBB6436:
.LBB6426:
	.loc 4 253 0
	stfs 6,48(9)
.LVL880:
	.loc 4 254 0
	stfs 7,52(9)
.LVL881:
.LBE6426:
.LBE6436:
.LBB6437:
.LBB6438:
	.loc 3 431 0
	lfs 7,9064(25)
	lfs 8,9060(25)
	fsubs 9,9,7
.LBE6438:
.LBE6437:
.LBB6442:
.LBB6443:
.LBB6444:
	.loc 5 454 0
	lfs 1,9096(25)
.LBE6444:
.LBE6443:
.LBE6442:
.LBB6465:
.LBB6466:
	.loc 3 431 0
	fsubs 10,10,7
.LBE6466:
.LBE6465:
.LBB6474:
.LBB6455:
.LBB6445:
	.loc 5 454 0
	lfs 2,9104(25)
	lfs 7,9100(25)
.LBE6445:
.LBE6455:
.LBE6474:
.LBB6475:
.LBB6439:
	.loc 3 431 0
	fsubs 11,11,8
.LBE6439:
.LBE6475:
.LBB6476:
.LBB6467:
	fsubs 12,12,8
.LBE6467:
.LBE6476:
.LBB6477:
.LBB6440:
	lfs 4,9068(25)
.LBE6440:
.LBE6477:
.LBB6478:
.LBB6456:
.LBB6446:
	.loc 5 454 0
	fmuls 8,9,7
	lfs 28,9084(25)
	fmuls 6,9,2
	lfs 29,9092(25)
.LBE6446:
.LBE6456:
.LBE6478:
.LBB6479:
.LBB6480:
.LBB6481:
	fmuls 5,10,1
	fmuls 26,10,7
.LBE6481:
.LBE6480:
.LBE6479:
.LBB6484:
.LBB6457:
.LBB6447:
	lfs 7,9088(25)
.LBE6447:
.LBE6457:
.LBE6484:
.LBB6485:
.LBB6441:
	.loc 3 431 0
	fsubs 3,13,4
.LVL882:
.LBE6441:
.LBE6485:
.LBB6486:
.LBB6458:
.LBB6448:
	.loc 5 454 0
	fmuls 9,9,1
.LVL883:
	lfs 1,9108(25)
.LBE6448:
.LBE6458:
.LBE6486:
.LBB6487:
.LBB6468:
	.loc 3 431 0
	fsubs 4,0,4
.LBE6468:
.LBE6487:
.LBB6488:
.LBB6459:
.LBB6449:
	.loc 5 454 0
	fmadds 8,11,7,8
.LBE6449:
.LBE6459:
.LBE6488:
.LBB6489:
.LBB6469:
	fmadds 0,12,7,26
.LBE6469:
.LBE6489:
.LBB6490:
.LBB6460:
.LBB6450:
	lfs 7,9112(25)
.LBE6450:
.LBE6460:
.LBE6490:
.LBB6491:
.LBB6483:
.LBB6482:
	fmuls 10,10,2
.LBE6482:
.LBE6483:
.LBE6491:
.LBB6492:
.LBB6461:
.LBB6451:
	lfs 2,9116(25)
	fmadds 6,11,29,6
.LBE6451:
.LBE6461:
.LBE6492:
.LBB6493:
.LBB6470:
	fmadds 5,12,28,5
.LBE6470:
.LBE6493:
.LBB6494:
.LBB6462:
.LBB6452:
	fmadds 8,3,7,8
	fmadds 6,3,2,6
.LVL884:
.LBE6452:
.LBE6462:
.LBE6494:
.LBB6495:
.LBB6471:
	fmadds 7,4,7,0
	fmadds 5,4,1,5
.LBE6471:
.LBE6495:
.LBB6496:
.LBB6463:
.LBB6453:
	fmadds 11,11,28,9
.LVL885:
.LBE6453:
.LBE6463:
.LBE6496:
.LBB6497:
.LBB6472:
	fmadds 12,12,29,10
.LBE6472:
.LBE6497:
.LBB6498:
.LBB6499:
	.loc 4 250 0
	fmuls 10,8,5
.LBE6499:
.LBE6498:
.LBB6501:
.LBB6464:
.LBB6454:
	.loc 5 454 0
	fmadds 13,3,1,11
.LVL886:
.LBE6454:
.LBE6464:
.LBE6501:
.LBB6502:
.LBB6473:
	fmadds 0,4,2,12
.LVL887:
.LBE6473:
.LBE6502:
.LBB6503:
.LBB6500:
	.loc 4 251 0
	fmuls 11,6,5
	.loc 4 253 0
	fmuls 12,6,7
	.loc 4 250 0
	fmsubs 10,13,7,10
	.loc 4 251 0
	fmsubs 11,13,0,11
	.loc 4 253 0
	fmsubs 12,8,0,12
	.loc 4 252 0
	fsubs 13,13,5
	.loc 4 250 0
	stfs 10,96(9)
.LVL888:
	.loc 4 254 0
	fsubs 0,6,0
.LVL889:
	.loc 4 251 0
	stfs 11,100(9)
.LVL890:
	.loc 4 255 0
	fsubs 8,7,8
	.loc 4 252 0
	stfs 13,104(9)
.LVL891:
	.loc 4 253 0
	stfs 12,108(9)
.LVL892:
	.loc 4 254 0
	stfs 0,112(9)
.LVL893:
	.loc 4 255 0
	stfs 8,116(9)
.LVL894:
.LBE6500:
.LBE6503:
.LBB6504:
.LBB6505:
.LBB6506:
	.loc 3 424 0
	lfs 9,8(6)
	stfs 9,72(9)
	.loc 3 425 0
	lfs 10,12(6)
	stfs 10,76(9)
	.loc 3 426 0
	lfs 11,16(6)
	stfs 11,80(9)
.LVL895:
	.loc 3 424 0
	lfs 12,20(6)
	stfs 12,84(9)
	.loc 3 425 0
	lfs 13,24(6)
	stfs 13,88(9)
	.loc 3 426 0
	lfs 0,28(6)
	stfs 0,92(9)
.LVL896:
.LBE6506:
.LBE6505:
.LBE6504:
.LBB6507:
.LBB6508:
.LBB6509:
.LBB6510:
	.loc 3 402 0
	lfs 8,8(7)
.LVL897:
.LBE6510:
.LBE6509:
	.loc 6 257 0
	fcmpu 7,8,9
	bnl- 7,.L431
.LVL898:
	.loc 6 258 0
	stfs 8,72(9)
.LVL899:
.L431:
.LBB6511:
.LBB6512:
	.loc 3 402 0
	lfs 9,4(11)
.LVL900:
.LBE6512:
.LBE6511:
	.loc 6 261 0
	fcmpu 7,9,10
	bnl- 7,.L433
.LVL901:
	.loc 6 262 0
	stfs 9,76(9)
.LVL902:
.L433:
.LBB6513:
.LBB6514:
	.loc 3 402 0
	lfs 10,8(11)
.LVL903:
.LBE6514:
.LBE6513:
	.loc 6 265 0
	fcmpu 7,10,11
	bnl- 7,.L435
.LVL904:
	.loc 6 266 0
	stfs 10,80(9)
.LVL905:
.L435:
.LBB6515:
.LBB6516:
	.loc 3 402 0
	lfs 11,12(11)
.LVL906:
.LBE6516:
.LBE6515:
	.loc 6 269 0
	fcmpu 7,11,12
	bng- 7,.L437
.LVL907:
	.loc 6 270 0
	stfs 11,84(9)
.LVL908:
.L437:
.LBB6517:
.LBB6518:
	.loc 3 402 0
	lfs 12,16(11)
.LVL909:
.LBE6518:
.LBE6517:
	.loc 6 273 0
	fcmpu 7,12,13
	bng- 7,.L439
.LVL910:
	.loc 6 274 0
	stfs 12,88(9)
.LVL911:
.L439:
.LBB6519:
.LBB6520:
	.loc 3 402 0
	lfs 13,20(11)
.LVL912:
.LBE6520:
.LBE6519:
	.loc 6 277 0
	fcmpu 7,13,0
	bng- 7,.L441
.LVL913:
	.loc 6 278 0
	stfs 13,92(9)
.LVL914:
.L441:
.LBE6508:
.LBE6507:
	.loc 2 1492 0
	sth 0,120(9)
	.loc 2 1475 0
	addi 8,8,1
.LVL915:
	addi 9,9,124
.LVL916:
	lwz 11,2948(25)
.LVL917:
	cmpw 7,8,11
	ble+ 7,.L443
.LVL918:
.L429:
.LBB6521:
.LBB6522:
	.loc 6 202 0
	lis 8,_ZN6idMath8INFINITYE@ha
.LBE6522:
.LBE6521:
	.loc 2 1498 0
	lwz 9,336(1)
.LBB6525:
.LBB6523:
	.loc 6 202 0
	lfs 0,_ZN6idMath8INFINITYE@l(8)
.LBE6523:
.LBE6525:
	.loc 2 1498 0
	cmpwi 7,9,0
.LBB6526:
.LBB6524:
	.loc 6 203 0
	fneg 13,0
	.loc 6 202 0
	stfs 0,8888(25)
	stfs 0,8884(25)
	stfs 0,8880(25)
.LVL919:
	.loc 6 203 0
	stfs 13,8900(25)
	stfs 13,8896(25)
	stfs 13,8892(25)
.LBE6524:
.LBE6526:
	.loc 2 1498 0
	beq- 7,.L444
	addi 7,1,40
	.loc 2 1258 0
	addi 6,1,76
	mr 11,26
	addi 0,1,160
.L445:
.LVL920:
.LBB6527:
.LBB6528:
	.loc 5 467 0
	addi 9,1,148
.LBE6528:
.LBE6527:
	.loc 2 1258 0
	mr 10,7
.LVL921:
.L446:
	addi 9,9,4
.LBB6530:
.LBB6529:
	.loc 5 471 0
	lfs 11,4(11)
	lfs 13,12(9)
	.loc 5 468 0
	cmpw 7,9,0
	.loc 5 471 0
	lfs 0,0(9)
	fmuls 11,11,13
	lfs 13,0(11)
	lfs 12,24(9)
	fmadds 13,13,0,11
	lfs 0,8(11)
	fmadds 0,0,12,13
	stfsu 0,4(10)
	.loc 5 468 0
	bne+ 7,.L446
	.loc 5 474 0
	addi 7,7,12
	addi 11,11,12
.LVL922:
	.loc 5 467 0
	cmpw 7,7,6
	bne+ 7,.L445
	li 10,0
	addi 24,1,116
.LVL923:
.L447:
.LBE6529:
.LBE6530:
.LBB6531:
.LBB6532:
.LBB6533:
.LBB6534:
	.loc 3 424 0
	addi 11,1,44
	mr 9,24
	lwzux 0,11,10
.LBE6534:
.LBE6533:
	.loc 5 333 0
	cmpwi 7,10,24
.LBB6537:
.LBB6535:
	.loc 3 424 0
	stwux 0,9,10
.LBE6535:
.LBE6537:
	.loc 5 333 0
	addi 10,10,12
.LBB6538:
.LBB6536:
	.loc 3 425 0
	lwz 0,4(11)
	stw 0,4(9)
	.loc 3 426 0
	lwz 0,8(11)
	stw 0,8(9)
.LBE6536:
.LBE6538:
	.loc 5 333 0
	bne+ 7,.L447
.LVL924:
.LBE6532:
.LBE6531:
	.loc 2 1500 0
	lwz 0,7044(25)
	cmpwi 7,0,0
	ble- 7,.L588
	lfs 2,116(1)
	li 11,0
	lfs 3,128(1)
	addi 9,25,7048
	lfs 4,140(1)
	lfs 5,132(1)
	lfs 6,120(1)
	lfs 7,144(1)
	lfs 8,136(1)
	lfs 9,124(1)
	lfs 10,148(1)
.LVL925:
.L449:
.LBB6539:
.LBB6540:
.LBB6541:
	.loc 5 553 0
	lfs 13,8(9)
.LBE6541:
.LBE6540:
.LBE6539:
	.loc 2 1500 0
	addi 11,11,1
.LBB6544:
.LBB6543:
.LBB6542:
	.loc 5 553 0
	lfs 0,4(9)
.LVL926:
	fmuls 11,13,3
	.loc 5 554 0
	fmuls 12,13,5
	.loc 5 555 0
	fmuls 13,13,8
	.loc 5 553 0
	fmadds 11,0,2,11
	.loc 5 554 0
	fmadds 12,0,6,12
	.loc 5 555 0
	fmadds 13,0,9,13
	.loc 5 553 0
	lfs 0,12(9)
	fmadds 11,4,0,11
.LVL927:
	.loc 5 554 0
	fmadds 12,0,7,12
.LVL928:
	.loc 5 555 0
	fmadds 0,0,10,13
	.loc 5 556 0
	stfs 11,4(9)
	.loc 5 557 0
	stfs 12,8(9)
	.loc 5 555 0
	stfs 0,12(9)
.LBE6542:
.LBE6543:
.LBE6544:
	.loc 2 1500 0
	addi 9,9,112
.LVL929:
	lwz 0,7044(25)
	cmpw 7,11,0
	blt+ 7,.L449
.LVL930:
.L450:
	.loc 2 1514 0
	cmpwi 7,0,0
	ble- 7,.L588
	.loc 2 1508 0
	lfs 7,_ZN6idMath8INFINITYE@l(8)
	.loc 2 1514 0
	addi 9,25,7048
	li 8,0
	.loc 2 1515 0
	li 6,1
	.loc 2 1508 0
	fneg 6,7
.LVL931:
.L483:
	.loc 2 1517 0
	lwz 11,24(9)
	.loc 2 1515 0
	stw 6,0(9)
	.loc 2 1517 0
	srawi 0,11,31
.LBB6545:
.LBB6546:
.LBB6547:
.LBB6548:
	.loc 3 435 0
	lfs 12,8(9)
.LBE6548:
.LBE6547:
.LBE6546:
.LBE6545:
	.loc 2 1517 0
	xor 11,0,11
	subf 11,0,11
	.loc 2 1520 0
	lwz 0,20(9)
	.loc 2 1517 0
	mulli 7,11,124
	.loc 2 1520 0
	cmpwi 7,0,0
	.loc 2 1517 0
	addi 7,7,2944
	add 7,25,7
.LVL932:
.LBB6556:
.LBB6553:
.LBB6551:
.LBB6549:
	.loc 3 435 0
	lfs 13,16(7)
.LBE6549:
.LBE6551:
	lfs 0,12(7)
.LBB6552:
.LBB6550:
	fmuls 12,12,13
.LBE6550:
.LBE6552:
	lfs 13,4(9)
	fmadds 13,13,0,12
	lfs 0,20(7)
	lfs 12,12(9)
.LBE6553:
.LBE6556:
.LBB6557:
.LBB6558:
	.loc 6 202 0
	stfs 7,96(9)
.LBE6558:
.LBE6557:
.LBB6561:
.LBB6554:
	.loc 8 298 0
	fnmadds 0,12,0,13
.LBE6554:
.LBE6561:
.LBB6562:
.LBB6559:
	.loc 6 202 0
	stfs 7,92(9)
	stfs 7,88(9)
	.loc 6 203 0
	stfs 6,108(9)
.LBE6559:
.LBE6562:
.LBB6563:
.LBB6555:
	.loc 8 298 0
	stfs 0,16(9)
.LVL933:
.LBE6555:
.LBE6563:
	.loc 2 1520 0
	fmr 0,7
.LBB6564:
.LBB6560:
	.loc 6 203 0
	stfs 6,104(9)
	stfs 6,100(9)
.LVL934:
.LBE6560:
.LBE6564:
	.loc 2 1520 0
	ble- 7,.L457
	.loc 2 1258 0
	slwi 7,0,2
	addi 10,9,24
	addi 7,7,-4
	fmr 13,6
	srwi 7,7,2
	fmr 8,6
	addi 7,7,1
	fmr 9,6
	fmr 10,7
	mtctr 7
	fmr 11,7
	b .L470
.LVL935:
.L601:
	.loc 2 1520 0
	lwzu 11,4(10)
.LVL936:
	srawi 5,11,31
	xor 11,5,11
	subf 11,5,11
.LVL937:
.L470:
	.loc 2 1522 0
	mulli 11,11,124
	add 11,25,11
	addi 11,11,2952
.LVL938:
.LBB6565:
.LBB6566:
.LBB6567:
.LBB6568:
	.loc 3 402 0
	lfs 12,72(11)
.LVL939:
.LBE6568:
.LBE6567:
	.loc 6 257 0
	fcmpu 7,12,0
	bnl- 7,.L458
	.loc 6 258 0
	fmr 0,12
.L458:
	.loc 6 257 0
	stfs 0,88(9)
.LVL940:
.LBB6569:
.LBB6570:
	.loc 3 402 0
	lfs 12,76(11)
.LVL941:
.LBE6570:
.LBE6569:
	.loc 6 261 0
	fcmpu 7,12,11
	bnl- 7,.L460
	.loc 6 262 0
	fmr 11,12
.L460:
	.loc 6 261 0
	stfs 11,92(9)
.LVL942:
.LBB6571:
.LBB6572:
	.loc 3 402 0
	lfs 12,80(11)
.LVL943:
.LBE6572:
.LBE6571:
	.loc 6 265 0
	fcmpu 7,12,10
	bnl- 7,.L462
	.loc 6 266 0
	fmr 10,12
.L462:
	.loc 6 265 0
	stfs 10,96(9)
.LVL944:
.LBB6573:
.LBB6574:
	.loc 3 402 0
	lfs 12,84(11)
.LVL945:
.LBE6574:
.LBE6573:
	.loc 6 269 0
	fcmpu 7,12,9
	bng- 7,.L464
	.loc 6 270 0
	fmr 9,12
.L464:
	.loc 6 269 0
	stfs 9,100(9)
.LVL946:
.LBB6575:
.LBB6576:
	.loc 3 402 0
	lfs 12,88(11)
.LVL947:
.LBE6576:
.LBE6575:
	.loc 6 273 0
	fcmpu 7,12,8
	bng- 7,.L466
	.loc 6 274 0
	fmr 8,12
.L466:
	.loc 6 273 0
	stfs 8,104(9)
.LVL948:
.LBB6577:
.LBB6578:
	.loc 3 402 0
	lfs 12,92(11)
.LVL949:
.LBE6578:
.LBE6577:
	.loc 6 277 0
	fcmpu 7,12,13
	bng- 7,.L468
	.loc 6 278 0
	fmr 13,12
.L468:
	.loc 6 277 0
	stfs 13,108(9)
.LBE6566:
.LBE6565:
	.loc 2 1520 0
	bdnz .L601
.LVL950:
.L457:
.LBB6579:
.LBB6580:
	.loc 6 257 0
	lfs 13,8880(25)
	fcmpu 7,13,0
	bng- 7,.L471
.LVL951:
	.loc 6 258 0
	stfs 0,8880(25)
.LVL952:
.L471:
.LBB6581:
.LBB6582:
	.loc 3 402 0
	lfs 0,92(9)
.LVL953:
.LBE6582:
.LBE6581:
	.loc 6 261 0
	lfs 13,8884(25)
	fcmpu 7,0,13
	bnl- 7,.L473
.LVL954:
	.loc 6 262 0
	stfs 0,8884(25)
.LVL955:
.L473:
.LBB6583:
.LBB6584:
	.loc 3 402 0
	lfs 0,96(9)
.LVL956:
.LBE6584:
.LBE6583:
	.loc 6 265 0
	lfs 13,8888(25)
	fcmpu 7,0,13
	bnl- 7,.L475
.LVL957:
	.loc 6 266 0
	stfs 0,8888(25)
.LVL958:
.L475:
.LBB6585:
.LBB6586:
	.loc 3 402 0
	lfs 0,100(9)
.LVL959:
.LBE6586:
.LBE6585:
	.loc 6 269 0
	lfs 13,8892(25)
	fcmpu 7,0,13
	bng- 7,.L477
.LVL960:
	.loc 6 270 0
	stfs 0,8892(25)
.LVL961:
.L477:
.LBB6587:
.LBB6588:
	.loc 3 402 0
	lfs 0,104(9)
.LVL962:
.LBE6588:
.LBE6587:
	.loc 6 273 0
	lfs 13,8896(25)
	fcmpu 7,0,13
	bng- 7,.L479
.LVL963:
	.loc 6 274 0
	stfs 0,8896(25)
.LVL964:
.L479:
.LBB6589:
.LBB6590:
	.loc 3 402 0
	lfs 0,108(9)
.LVL965:
.LBE6590:
.LBE6589:
	.loc 6 277 0
	lfs 13,8900(25)
	fcmpu 7,0,13
	bng- 7,.L481
.LVL966:
	.loc 6 278 0
	stfs 0,8900(25)
.LVL967:
.L481:
.LBE6580:
.LBE6579:
	.loc 2 1514 0
	lwz 0,7044(25)
	addi 8,8,1
.LVL968:
	addi 9,9,112
.LVL969:
	cmpw 7,8,0
	blt+ 7,.L483
.LVL970:
.L588:
	lfs 0,8880(25)
.L452:
.LVL971:
	lis 6,.LC1@ha
	.loc 2 1547 0
	addi 7,25,8880
	.loc 2 1520 0
	li 9,0
	addi 8,25,8844
	addi 10,25,8904
	la 6,.LC1@l(6)
.LVL972:
.L517:
	.loc 2 1531 0
	lfsx 13,8,9
	.loc 2 1532 0
	add 11,25,9
	.loc 2 1531 0
	fsubs 0,0,13
	stfsx 0,10,9
.LVL973:
	.loc 2 1532 0
	lfs 0,8892(11)
	fsubs 13,0,13
	stfs 13,340(1)
	lwz 0,340(1)
	stw 0,8916(11)
.LVL974:
.LBB6591:
.LBB6592:
	.loc 7 782 0
	rlwinm 5,0,0,1,31
	stw 5,336(1)
.LBE6592:
.LBE6591:
.LBB6593:
.LBB6594:
	.loc 7 781 0
	lwzx 0,10,9
.LBE6594:
.LBE6593:
	.loc 2 1533 0
	lfs 4,336(1)
.LBB6596:
.LBB6595:
	.loc 7 782 0
	rlwinm 5,0,0,1,31
	stw 5,328(1)
.LVL975:
.LBE6595:
.LBE6596:
	.loc 2 1533 0
	lfs 0,328(1)
	fcmpu 7,0,4
	bng- 7,.L582
.LVL976:
	.loc 2 1534 0
	fadds 13,27,0
.LVL977:
	lfs 0,0(6)
	.loc 2 1530 0
	cmpwi 7,9,8
	addi 9,9,4
.LVL978:
	.loc 2 1534 0
	fadds 0,13,0
	stfs 0,8928(11)
	.loc 2 1530 0
	beq- 7,.L602
.LVL979:
.L487:
	.loc 2 1514 0
	lfsu 0,4(7)
	b .L517
.LVL980:
.L520:
.LBB6597:
.LBB5855:
	.loc 3 732 0
	lfs 9,.LC1@l(20)
	.loc 3 733 0
	fmr 10,8
	b .L387
.LVL981:
.L377:
.LBE5855:
.LBE6597:
.LBB6598:
.LBB5751:
.LBB5738:
.LBB5732:
	.loc 3 497 0
	lfs 3,8(23)
.LVL982:
	lfs 6,8(24)
.LBE5732:
.LBE5738:
.LBB5739:
.LBB5740:
	lfs 26,12(23)
.LBE5740:
.LBE5739:
.LBB5744:
.LBB5733:
	fcmpu 7,3,6
	bne- 7,.L585
.LVL983:
.LBE5733:
.LBE5744:
.LBB5745:
.LBB5741:
	lfs 6,12(24)
	fcmpu 7,26,6
	bne- 7,.L585
	lfs 6,16(23)
	lfs 5,16(24)
	fcmpu 7,6,5
	beq- 7,.L381
	lfs 1,24(23)
	lfs 5,28(23)
	lfs 2,20(23)
	lfs 4,32(23)
	b .L378
.LVL984:
.L585:
	lfs 1,24(23)
	lfs 6,16(23)
	lfs 5,28(23)
	lfs 2,20(23)
	lfs 4,32(23)
	b .L378
.LVL985:
.L597:
.LBE5741:
.LBE5745:
.LBE5751:
.LBE6598:
.LBB6599:
.LBB6176:
.LBB6171:
.LBB6167:
	lfs 12,8(26)
	lfs 13,8(24)
	fcmpu 7,12,13
	bne- 7,.L404
.LVL986:
.LBE6167:
.LBE6171:
.LBB6172:
.LBB6173:
	lfs 12,12(26)
	lfs 13,12(24)
	fcmpu 7,12,13
	bne- 7,.L404
	lfs 12,16(26)
	lfs 13,16(24)
	fcmpu 7,12,13
	bne- 7,.L404
	lfs 12,20(26)
	lfs 13,20(24)
	fcmpu 7,12,13
	bne- 7,.L404
.LVL987:
.LBE6173:
.LBE6172:
.LBB6174:
.LBB6170:
	lfs 12,24(26)
	lfs 13,24(24)
	fcmpu 7,12,13
	bne- 7,.L404
	lfs 12,28(26)
	lfs 13,28(24)
	fcmpu 7,12,13
	bne- 7,.L404
	lfs 12,32(26)
	lfs 13,32(24)
	fcmpu 7,12,13
	bne- 7,.L404
	lis 9,.LANCHOR0@ha
	.loc 5 625 0
	li 5,0
	.loc 3 497 0
	lwz 0,.LANCHOR0@l(9)
	li 9,0
	stw 9,336(1)
	.loc 5 625 0
	stw 5,328(1)
	b .L405
.LVL988:
.L582:
.LBE6170:
.LBE6174:
.LBE6176:
.LBE6599:
	.loc 2 1536 0
	lfs 6,336(1)
	.loc 2 1530 0
	cmpwi 7,9,8
	.loc 2 1536 0
	lfs 0,0(6)
	.loc 2 1530 0
	addi 9,9,4
.LVL989:
	.loc 2 1536 0
	fadds 13,27,6
.LVL990:
	fadds 0,13,0
	stfs 0,8928(11)
	.loc 2 1530 0
	bne+ 7,.L487
.LVL991:
.L602:
	.loc 2 1541 0
	lbz 0,9055(25)
	cmpwi 7,0,0
	bne- 7,.L488
	lfs 11,9072(25)
	lfs 9,9076(25)
	lfs 10,9080(25)
	lfs 0,8844(25)
	lfs 12,8848(25)
	lfs 13,8852(25)
.LVL992:
.L489:
.LBB6600:
.LBB6601:
.LBB6602:
.LBB6603:
	.loc 3 435 0
	fmuls 12,9,12
.LBE6603:
.LBE6602:
.LBE6601:
.LBE6600:
	.loc 2 1576 0
	lwz 0,.LANCHOR0@l(18)
	.loc 2 1575 0
	li 9,0
.LBB6605:
.LBB6606:
	.loc 8 234 0
	stfs 11,9212(25)
.LBE6606:
.LBE6605:
	.loc 2 1576 0
	cmpwi 7,0,0
	stw 9,340(1)
.LBB6609:
.LBB6607:
	.loc 3 435 0
	fmadds 0,11,0,12
	.loc 8 235 0
	stfs 9,9216(25)
	.loc 8 236 0
	stfs 10,9220(25)
.LVL993:
.LBE6607:
.LBE6609:
	.loc 2 1575 0
	stw 9,9228(25)
.LVL994:
.LBB6610:
.LBB6608:
	.loc 3 435 0
	fmadds 7,10,13,0
.LBE6608:
.LBE6610:
	.loc 2 1576 0
	lfs 8,340(1)
.LBB6611:
.LBB6604:
	.loc 8 298 0
	fneg 0,7
	stfs 0,9224(25)
.LBE6604:
.LBE6611:
	.loc 2 1576 0
	ble- 7,.L500
	mtctr 0
	li 9,0
.LVL995:
.L503:
	.loc 2 1577 0
	mulli 10,9,92
	.loc 2 1576 0
	addi 9,9,1
	.loc 2 1577 0
	add 10,25,10
.LVL996:
.LBB6612:
.LBB6613:
	.loc 8 325 0
	lfs 0,12(10)
	lfs 12,8(10)
	fmuls 0,9,0
	lfs 13,16(10)
	fmadds 0,12,11,0
	fmadds 0,13,10,0
	fsubs 0,0,7
	stfs 0,340(1)
	lwz 0,340(1)
.LBE6613:
.LBE6612:
.LBB6614:
.LBB6615:
	.loc 7 782 0
	rlwinm 0,0,0,1,31
.LVL997:
.LBE6615:
.LBE6614:
	.loc 2 1578 0
	stw 0,340(1)
	lfs 0,340(1)
	fcmpu 7,0,8
	bng- 7,.L501
	.loc 2 1579 0
	fmr 8,0
	stw 0,9228(25)
.L501:
.LVL998:
	.loc 2 1576 0
	bdnz .L503
.LVL999:
.L500:
	.loc 2 1582 0
	lfs 13,.LC1@l(20)
	.loc 2 1588 0
	mr 3,30
	.loc 2 1585 0
	lfs 0,9120(25)
	.loc 2 1588 0
	mr 4,25
.LBB6616:
.LBB6617:
.LBB6618:
.LBB6619:
	.loc 3 426 0
	lwz 0,9068(25)
.LBE6619:
.LBE6618:
.LBE6617:
.LBE6616:
	.loc 2 1582 0
	fadds 8,8,13
	.loc 2 1585 0
	fneg 0,0
.LVL1000:
.LBB6631:
.LBB6628:
.LBB6623:
.LBB6620:
	.loc 3 424 0
	lwz 11,9060(25)
	.loc 3 425 0
	lwz 9,9064(25)
.LBE6620:
.LBE6623:
.LBE6628:
.LBE6631:
.LBB6632:
.LBB6633:
.LBB6634:
.LBB6635:
	.loc 5 333 0
	addi 30,31,16
.LVL1001:
.LBE6635:
.LBE6634:
.LBE6633:
.LBE6632:
.LBB6653:
.LBB6629:
.LBB6624:
.LBB6621:
	.loc 3 426 0
	stw 0,9140(25)
.LVL1002:
.LBE6621:
.LBE6624:
	.loc 9 112 0
	li 0,0
.LBB6625:
.LBB6622:
	.loc 3 424 0
	stw 11,9132(25)
	.loc 3 425 0
	stw 9,9136(25)
.LBE6622:
.LBE6625:
	.loc 9 112 0
	stb 0,9196(25)
.LBE6629:
.LBE6653:
	.loc 2 1582 0
	stfs 8,9228(25)
.LBB6654:
.LBB6630:
.LBB6626:
.LBB6627:
	.loc 3 424 0
	stfs 11,9144(25)
	.loc 3 425 0
	stfs 9,9148(25)
	.loc 3 426 0
	stfs 10,9152(25)
.LBE6627:
.LBE6626:
	.loc 9 111 0
	stfs 0,9156(25)
.LBE6630:
.LBE6654:
	.loc 2 1588 0
	bl _ZN28idCollisionModelManagerLocal17TraceThroughModelEP14cm_traceWork_s
.LVL1003:
.LBB6655:
.LBB6652:
	.loc 11 74 0
	lwz 0,8944(25)
.LBB6642:
.LBB6640:
	.loc 5 333 0
	addi 9,25,8960
	mr 11,30
	.loc 2 1258 0
	addi 10,25,8996
.LBE6640:
.LBE6642:
	.loc 11 74 0
	stw 0,0(31)
.LVL1004:
.LBB6643:
.LBB6644:
	.loc 3 424 0
	lwz 0,8948(25)
	stw 0,4(31)
	.loc 3 425 0
	lwz 0,8952(25)
	stw 0,8(31)
	.loc 3 426 0
	lwz 0,8956(25)
	stw 0,12(31)
.LVL1005:
.L504:
.LBE6644:
.LBE6643:
.LBB6645:
.LBB6641:
.LBB6636:
.LBB6637:
	.loc 3 424 0
	lwz 0,0(9)
	stw 0,0(11)
	.loc 3 425 0
	lwz 0,4(9)
	stw 0,4(11)
	.loc 3 426 0
	lwz 0,8(9)
	addi 9,9,12
.LBE6637:
.LBE6636:
	.loc 5 333 0
	cmpw 7,9,10
.LBB6639:
.LBB6638:
	.loc 3 426 0
	stw 0,8(11)
	addi 11,11,12
.LBE6638:
.LBE6639:
	.loc 5 333 0
	bne+ 7,.L504
.LVL1006:
.LBE6641:
.LBE6645:
.LBB6646:
.LBB6647:
	.loc 11 71 0
	lwz 0,8996(25)
	stw 0,52(31)
.LVL1007:
.LBB6648:
.LBB6649:
	.loc 3 424 0
	lwz 0,9000(25)
	stw 0,56(31)
	.loc 3 425 0
	lwz 0,9004(25)
	stw 0,60(31)
	.loc 3 426 0
	lwz 0,9008(25)
	stw 0,64(31)
.LVL1008:
.LBE6649:
.LBE6648:
.LBB6650:
.LBB6651:
	.loc 3 424 0
	lwz 0,9012(25)
	stw 0,68(31)
	.loc 3 425 0
	lwz 0,9016(25)
	stw 0,72(31)
	.loc 3 426 0
	lwz 0,9020(25)
	stw 0,76(31)
.LBE6651:
.LBE6650:
	.loc 11 71 0
	lwz 0,9024(25)
	stw 0,80(31)
	lwz 0,9028(25)
	stw 0,84(31)
	lwz 0,9032(25)
	stw 0,88(31)
	lwz 0,9036(25)
	stw 0,92(31)
	lwz 0,9040(25)
	stw 0,96(31)
	lwz 0,9044(25)
	stw 0,100(31)
	lwz 0,9048(25)
	stw 0,104(31)
.LVL1009:
.LBE6647:
.LBE6646:
.LBE6652:
.LBE6655:
.LBB6656:
.LBB6657:
	.loc 3 424 0
	lwz 0,0(27)
	stw 0,4(31)
	.loc 3 425 0
	lwz 0,4(27)
	stw 0,8(31)
	.loc 3 426 0
	lwz 0,8(27)
	stw 0,12(31)
.LBE6657:
.LBE6656:
	.loc 2 1593 0
	lfs 1,9124(25)
	lfs 4,332(1)
	fcmpu 7,4,1
	bne- 7,.L505
	.loc 2 1594 0
	lwz 0,.LC1@l(20)
	stw 0,0(31)
.L506:
.LVL1010:
.LBB6658:
.LBB6659:
	.loc 2 1599 0
	stw 0,340(1)
.LBE6659:
.LBE6658:
.LBB6675:
.LBB6676:
	.loc 9 206 0
	mr 3,19
.LBE6676:
.LBE6675:
.LBB6717:
.LBB6674:
	.loc 2 1599 0
	lfs 5,340(1)
.LBB6660:
.LBB6661:
	.loc 3 426 0
	lwz 0,8(28)
.LVL1011:
.LBE6661:
.LBE6660:
	.loc 2 1599 0
	fmadds 31,30,5,31
.LVL1012:
.LBB6666:
.LBB6662:
	.loc 3 425 0
	lwz 9,4(28)
.LBE6662:
.LBE6666:
.LBB6667:
.LBB6668:
	.loc 3 424 0
	lwz 7,0(29)
	.loc 3 425 0
	lwz 8,4(29)
	.loc 3 426 0
	lwz 10,8(29)
.LBE6668:
.LBE6667:
.LBB6670:
.LBB6663:
	.loc 3 424 0
	lwz 11,0(28)
	.loc 3 426 0
	stw 0,208(1)
.LBE6663:
.LBE6670:
	.loc 9 112 0
	li 0,0
.LBB6671:
.LBB6664:
	.loc 3 425 0
	stw 9,204(1)
.LBE6664:
.LBE6671:
.LBB6672:
.LBB6669:
	.loc 3 424 0
	stw 7,188(1)
	.loc 3 425 0
	stw 8,192(1)
	.loc 3 426 0
	stw 10,196(1)
.LVL1013:
.LBE6669:
.LBE6672:
.LBB6673:
.LBB6665:
	.loc 3 424 0
	stw 11,200(1)
.LBE6665:
.LBE6673:
	.loc 9 112 0
	stb 0,252(1)
.LVL1014:
	.loc 9 111 0
	stfs 31,212(1)
.LBE6674:
.LBE6717:
.LBB6718:
.LBB6715:
	.loc 9 206 0
	bl _ZNK10idRotation6ToMat3Ev
.LVL1015:
.LBB6677:
.LBB6678:
	.loc 3 431 0
	lfs 10,192(1)
.LBE6678:
.LBE6677:
.LBE6715:
.LBE6718:
	.loc 2 1601 0
	mr 3,19
.LBB6719:
.LBB6716:
.LBB6684:
.LBB6679:
	.loc 3 431 0
	lfs 0,8(31)
	lfs 12,188(1)
	fsubs 0,0,10
	lfs 13,4(31)
.LBE6679:
.LBE6684:
.LBB6685:
.LBB6686:
.LBB6687:
	.loc 5 454 0
	lfs 8,232(1)
.LBE6687:
.LBE6686:
.LBE6685:
.LBB6694:
.LBB6680:
	.loc 3 431 0
	fsubs 13,13,12
.LBE6680:
.LBE6694:
.LBB6695:
.LBB6691:
.LBB6688:
	.loc 5 454 0
	lfs 9,236(1)
	fmuls 8,0,8
.LBE6688:
.LBE6691:
.LBE6695:
.LBB6696:
.LBB6697:
	lfs 6,220(1)
.LBE6697:
.LBE6696:
.LBB6702:
.LBB6692:
.LBB6689:
	fmuls 9,0,9
	lfs 7,228(1)
.LBE6689:
.LBE6692:
.LBE6702:
.LBB6703:
.LBB6681:
	.loc 3 431 0
	lfs 11,196(1)
.LBE6681:
.LBE6703:
.LBB6704:
.LBB6698:
	.loc 5 454 0
	fmadds 8,13,6,8
	lfs 6,224(1)
.LBE6698:
.LBE6704:
.LBB6705:
.LBB6693:
.LBB6690:
	fmuls 7,0,7
.LBE6690:
.LBE6693:
.LBE6705:
.LBB6706:
.LBB6682:
	.loc 3 431 0
	lfs 0,12(31)
.LBE6682:
.LBE6706:
.LBB6707:
.LBB6699:
	.loc 5 454 0
	fmadds 9,13,6,9
	lfs 6,216(1)
.LBE6699:
.LBE6707:
.LBB6708:
.LBB6683:
	.loc 3 431 0
	fsubs 0,0,11
.LVL1016:
.LBE6683:
.LBE6708:
.LBB6709:
.LBB6700:
	.loc 5 454 0
	fmadds 13,13,6,7
.LVL1017:
	lfs 7,244(1)
	fmadds 8,0,7,8
	lfs 7,248(1)
	fmadds 9,0,7,9
	lfs 7,240(1)
	.loc 3 452 0
	fadds 10,10,8
	.loc 5 454 0
	fmadds 0,0,7,13
.LVL1018:
	.loc 3 452 0
	fadds 11,11,9
.LVL1019:
.LBE6700:
.LBE6709:
.LBB6710:
.LBB6711:
	.loc 3 425 0
	stfs 10,8(31)
.LBE6711:
.LBE6710:
.LBB6713:
.LBB6701:
	.loc 3 452 0
	fadds 12,12,0
.LBE6701:
.LBE6713:
.LBB6714:
.LBB6712:
	.loc 3 426 0
	stfs 11,12(31)
	.loc 3 424 0
	stfs 12,4(31)
.LBE6712:
.LBE6714:
.LBE6716:
.LBE6719:
	.loc 2 1601 0
	bl _ZNK10idRotation6ToMat3Ev
.LVL1020:
	.loc 5 465 0
	addi 9,1,80
	addi 3,3,-4
.LVL1021:
.L507:
	lfs 9,4(26)
.LBB6720:
.LBB6721:
	.loc 2 1258 0
	mr 11,3
	lfs 10,0(26)
.LBE6721:
.LBE6720:
	li 10,0
	lfs 11,8(26)
.LVL1022:
.L508:
	addi 11,11,4
.LBB6723:
.LBB6722:
	.loc 5 468 0
	cmpwi 7,10,8
	.loc 5 471 0
	lfs 0,12(11)
	lfs 12,0(11)
	fmuls 0,9,0
	lfs 13,24(11)
	fmadds 0,10,12,0
	fmadds 0,11,13,0
	stfsx 0,9,10
	.loc 5 468 0
	addi 10,10,4
	bne+ 7,.L508
	addi 9,9,12
	.loc 5 474 0
	addi 26,26,12
.LVL1023:
	.loc 5 467 0
	cmpw 7,9,24
	bne+ 7,.L507
	li 10,0
.LVL1024:
.L509:
.LBE6722:
.LBE6723:
.LBB6724:
.LBB6725:
.LBB6726:
.LBB6727:
	.loc 3 424 0
	addi 11,1,80
	mr 9,30
	lwzux 0,11,10
.LBE6727:
.LBE6726:
	.loc 5 333 0
	cmpwi 7,10,24
.LBB6730:
.LBB6728:
	.loc 3 424 0
	stwux 0,9,10
.LBE6728:
.LBE6730:
	.loc 5 333 0
	addi 10,10,12
.LBB6731:
.LBB6729:
	.loc 3 425 0
	lwz 8,4(11)
	.loc 3 426 0
	lwz 0,8(11)
	.loc 3 425 0
	stw 8,4(9)
	.loc 3 426 0
	stw 0,8(9)
.LBE6729:
.LBE6731:
	.loc 5 333 0
	bne+ 7,.L509
	b .L593
.LVL1025:
.L398:
.LBE6725:
.LBE6724:
	.loc 2 1386 0
	bl atan
.LVL1026:
	lfs 13,.LC15@l(14)
	lfs 0,9120(25)
	fdivs 13,13,28
	fmul 13,1,13
	fdiv 0,13,0
	frsp 0,0
	stfs 0,340(1)
	lwz 0,340(1)
.LBB6732:
.LBB6733:
	.loc 7 782 0
	rlwinm 0,0,0,1,31
.LBE6733:
.LBE6732:
	.loc 2 1386 0
	stw 0,0(31)
	b .L399
.LVL1027:
.L511:
.LBB6734:
.LBB6735:
	.loc 5 553 0
	lfs 13,12(23)
	.loc 5 554 0
	lfs 12,16(23)
	.loc 5 555 0
	lfs 11,20(23)
	.loc 5 553 0
	lfs 0,72(31)
	lfs 8,0(23)
	.loc 5 555 0
	fmuls 11,0,11
	.loc 5 554 0
	lfs 9,4(23)
	.loc 5 553 0
	fmuls 13,0,13
	.loc 5 555 0
	lfs 10,8(23)
	.loc 5 554 0
	fmuls 12,0,12
	.loc 5 553 0
	lfs 0,68(31)
.LVL1028:
	lfs 7,24(23)
	fmadds 13,8,0,13
	.loc 5 554 0
	lfs 8,28(23)
	fmadds 12,0,9,12
	.loc 5 555 0
	lfs 9,32(23)
	fmadds 0,0,10,11
	.loc 5 553 0
	lfs 11,76(31)
.LBE6735:
.LBE6734:
.LBB6738:
.LBB6739:
	lfs 10,60(31)
.LBE6739:
.LBE6738:
.LBB6742:
.LBB6736:
	fmadds 13,7,11,13
.LVL1029:
	.loc 5 554 0
	fmadds 12,11,8,12
.LVL1030:
	.loc 5 555 0
	fmadds 0,11,9,0
.LBE6736:
.LBE6742:
.LBB6743:
.LBB6740:
	.loc 5 553 0
	lfs 11,56(31)
.LBE6740:
.LBE6743:
.LBB6744:
.LBB6737:
	.loc 5 556 0
	stfs 13,68(31)
	.loc 5 557 0
	stfs 12,72(31)
.LVL1031:
	.loc 5 555 0
	stfs 0,76(31)
.LBE6737:
.LBE6744:
.LBB6745:
.LBB6741:
	lfs 8,20(23)
	.loc 5 553 0
	lfs 9,12(23)
	.loc 5 554 0
	lfs 7,16(23)
	.loc 5 553 0
	fmuls 9,10,9
	lfs 5,0(23)
	.loc 5 554 0
	fmuls 7,10,7
	lfs 6,4(23)
	.loc 5 555 0
	fmuls 10,10,8
	lfs 8,8(23)
	.loc 5 553 0
	fmadds 9,5,11,9
	lfs 5,24(23)
	.loc 5 554 0
	fmadds 6,11,6,7
	.loc 5 555 0
	lfs 7,32(23)
	fmadds 11,11,8,10
	.loc 5 553 0
	lfs 8,64(31)
	.loc 5 554 0
	lfs 10,28(23)
	.loc 5 553 0
	fmadds 9,5,8,9
.LVL1032:
	.loc 5 554 0
	fmadds 10,8,10,6
.LVL1033:
	.loc 5 555 0
	fmadds 11,8,7,11
	.loc 5 556 0
	stfs 9,56(31)
	.loc 5 557 0
	stfs 10,60(31)
	.loc 5 555 0
	stfs 11,64(31)
	b .L512
.LVL1034:
.L596:
.LBE6741:
.LBE6745:
.LBB6746:
.LBB6747:
	.loc 9 206 0
	addi 3,1,256
	addi 19,1,188
	bl _ZNK10idRotation6ToMat3Ev
.LVL1035:
.LBB6748:
.LBB6749:
	.loc 3 431 0
	lfs 10,260(1)
	lfs 0,8848(25)
	lfs 12,256(1)
	fsubs 0,0,10
	lfs 13,8844(25)
.LBE6749:
.LBE6748:
.LBB6754:
.LBB6755:
.LBB6756:
	.loc 5 454 0
	lfs 8,300(1)
.LBE6756:
.LBE6755:
.LBE6754:
.LBB6763:
.LBB6750:
	.loc 3 431 0
	fsubs 13,13,12
.LBE6750:
.LBE6763:
.LBB6764:
.LBB6760:
.LBB6757:
	.loc 5 454 0
	lfs 9,304(1)
	fmuls 8,0,8
.LBE6757:
.LBE6760:
.LBE6764:
.LBB6765:
.LBB6766:
	lfs 6,288(1)
.LBE6766:
.LBE6765:
.LBB6772:
.LBB6761:
.LBB6758:
	fmuls 9,0,9
	lfs 7,296(1)
.LBE6758:
.LBE6761:
.LBE6772:
.LBB6773:
.LBB6751:
	.loc 3 431 0
	lfs 11,264(1)
.LBE6751:
.LBE6773:
.LBB6774:
.LBB6767:
	.loc 5 454 0
	fmadds 8,13,6,8
	lfs 6,292(1)
.LBE6767:
.LBE6774:
.LBB6775:
.LBB6762:
.LBB6759:
	fmuls 7,0,7
.LBE6759:
.LBE6762:
.LBE6775:
.LBB6776:
.LBB6752:
	.loc 3 431 0
	lfs 0,8852(25)
.LBE6752:
.LBE6776:
.LBB6777:
.LBB6768:
	.loc 5 454 0
	fmadds 9,13,6,9
	lfs 6,284(1)
.LBE6768:
.LBE6777:
.LBB6778:
.LBB6753:
	.loc 3 431 0
	fsubs 0,0,11
.LVL1036:
.LBE6753:
.LBE6778:
.LBE6747:
.LBE6746:
.LBB6788:
.LBB5965:
	.loc 9 205 0
	lbz 0,252(1)
.LBE5965:
.LBE6788:
.LBB6789:
.LBB6786:
.LBB6779:
.LBB6769:
	.loc 5 454 0
	fmadds 13,13,6,7
.LVL1037:
	lfs 7,312(1)
.LBE6769:
.LBE6779:
.LBE6786:
.LBE6789:
.LBB6790:
.LBB5966:
	.loc 9 205 0
	cmpwi 7,0,0
.LBE5966:
.LBE6790:
.LBB6791:
.LBB6787:
.LBB6780:
.LBB6770:
	.loc 5 454 0
	fmadds 8,0,7,8
	lfs 7,316(1)
	fmadds 9,0,7,9
	lfs 7,308(1)
	.loc 3 452 0
	fadds 10,10,8
	.loc 5 454 0
	fmadds 0,0,7,13
.LVL1038:
	.loc 3 452 0
	fadds 11,11,9
.LVL1039:
.LBE6770:
.LBE6780:
.LBB6781:
.LBB6782:
	.loc 3 425 0
	stfs 10,8848(25)
.LBE6782:
.LBE6781:
.LBB6784:
.LBB6771:
	.loc 3 452 0
	fadds 12,12,0
.LBE6771:
.LBE6784:
.LBB6785:
.LBB6783:
	.loc 3 426 0
	stfs 11,8852(25)
.LVL1040:
	.loc 3 424 0
	stfs 12,8844(25)
.LBE6783:
.LBE6785:
.LBE6787:
.LBE6791:
.LBB6792:
.LBB5967:
	.loc 9 205 0
	bne+ 7,.L396
	b .L395
.LVL1041:
.L393:
.LBE5967:
.LBE6792:
.LBB6793:
.LBB6794:
	.loc 5 553 0
	lfs 0,8848(25)
	lfs 11,164(1)
	.loc 5 554 0
	lfs 12,168(1)
.LVL1042:
	.loc 5 555 0
	lfs 13,172(1)
	.loc 5 553 0
	fmuls 11,0,11
	.loc 5 554 0
	fmuls 12,0,12
	.loc 5 553 0
	lfs 10,152(1)
.LVL1043:
	.loc 5 555 0
	fmuls 13,0,13
	.loc 5 553 0
	lfs 0,8844(25)
.LVL1044:
	fmadds 11,10,0,11
	.loc 5 554 0
	lfs 10,156(1)
	fmadds 12,0,10,12
	.loc 5 555 0
	lfs 10,160(1)
	fmadds 13,0,10,13
	.loc 5 553 0
	lfs 0,8852(25)
	lfs 10,176(1)
	fmadds 11,10,0,11
.LVL1045:
	.loc 5 554 0
	lfs 10,180(1)
	fmadds 12,0,10,12
.LVL1046:
	.loc 5 555 0
	lfs 10,184(1)
	.loc 5 556 0
	stfs 11,8844(25)
	.loc 5 555 0
	fmadds 13,0,10,13
	.loc 5 557 0
	stfs 12,8848(25)
	.loc 5 555 0
	stfs 13,8852(25)
	b .L394
.LVL1047:
.L505:
.LBE6794:
.LBE6793:
	.loc 2 1596 0
	bl atan
.LVL1048:
	lfs 12,.LC15@l(14)
	lfs 13,_ZN6idMath2PIE@l(15)
	lfs 0,9120(25)
	fdivs 13,12,13
	fmul 13,1,13
	fdiv 0,13,0
	frsp 0,0
	stfs 0,340(1)
	lwz 0,340(1)
.LBB6795:
.LBB6796:
	.loc 7 782 0
	rlwinm 0,0,0,1,31
.LBE6796:
.LBE6795:
	.loc 2 1596 0
	stw 0,0(31)
	b .L506
.LVL1049:
.L488:
.LBB6797:
.LBB6798:
.LBB6799:
	.loc 3 497 0
	lfs 0,8844(25)
	lfs 9,9060(25)
	fcmpu 7,0,9
	bne- 7,.L490
	lfs 12,8848(25)
	lfs 7,9064(25)
	fcmpu 7,12,7
	beq- 7,.L491
.L587:
.LBE6799:
.LBE6798:
.LBE6797:
	.loc 2 1414 0
	lfs 10,9068(25)
.L492:
.LVL1050:
	.loc 2 1547 0
	lwz 0,7044(25)
.LBB6802:
.LBB6803:
.LBB6804:
.LBB6805:
	.loc 3 402 0
	lfs 11,9072(25)
.LBE6805:
.LBE6804:
.LBB6807:
.LBB6808:
	lfs 8,9076(25)
.LVL1051:
.LBE6808:
.LBE6807:
.LBE6803:
.LBE6802:
	.loc 2 1547 0
	cmpwi 7,0,0
.LBB6815:
.LBB6814:
	.loc 4 259 0
	fmuls 3,11,7
	.loc 4 260 0
	fmuls 4,11,10
	.loc 4 262 0
	fmuls 6,8,10
.LBB6809:
.LBB6810:
	.loc 3 402 0
	lfs 10,9080(25)
.LBE6810:
.LBE6809:
.LBB6812:
.LBB6806:
	.loc 4 259 0
	fmsubs 3,9,8,3
.LVL1052:
.LBE6806:
.LBE6812:
.LBB6813:
.LBB6811:
	.loc 4 260 0
	fmsubs 4,9,10,4
.LVL1053:
.LBE6811:
.LBE6813:
	.loc 4 262 0
	fmsubs 6,10,7,6
	.loc 4 261 0
	fneg 5,11
.LVL1054:
	.loc 4 263 0
	fneg 7,10
.LVL1055:
.LBE6814:
.LBE6815:
	.loc 2 1547 0
	ble- 7,.L603
	.loc 2 1549 0
	lis 5,.LC2@ha
	.loc 2 1547 0
	fmr 9,8
	.loc 2 1549 0
	lfs 2,.LC2@l(5)
	.loc 2 1547 0
	li 6,0
	addi 10,25,7048
.LVL1056:
.L516:
.LBB6816:
.LBB6817:
	.loc 3 435 0
	lfs 0,8(10)
.LBE6817:
.LBE6816:
	lfs 12,4(10)
.LBB6819:
.LBB6818:
	fmuls 0,9,0
.LBE6818:
.LBE6819:
	lfs 13,12(10)
	fmadds 0,12,11,0
	fmadds 0,13,10,0
	.loc 2 1549 0
	fcmpu 7,0,2
	bgt- 7,.L493
.LVL1057:
	.loc 2 1553 0
	lwz 0,20(10)
	cmpwi 7,0,0
	ble- 7,.L518
	.loc 2 1258 0
	addi 8,10,20
	li 11,0
	b .L497
.LVL1058:
.L605:
	.loc 2 1553 0
	lwz 0,20(10)
	addi 11,11,1
.LVL1059:
	cmpw 7,11,0
	bge- 7,.L604
.LVL1060:
.L497:
	.loc 2 1554 0
	lwzu 0,4(8)
.LVL1061:
	.loc 2 1555 0
	srawi 7,0,31
	xor 9,7,0
	subf 9,7,9
	.loc 2 1560 0
	srwi 7,0,31
	.loc 2 1555 0
	mulli 9,9,124
	add 9,25,9
.LVL1062:
	.loc 2 1556 0
	lhz 0,3072(9)
	.loc 2 1555 0
	addi 9,9,2952
.LVL1063:
	.loc 2 1556 0
	andi. 5,0,2
	bne- 0,.L495
.LVL1064:
.LBB6820:
.LBB6821:
	.loc 4 317 0
	lfs 0,56(9)
.LBE6821:
.LBE6820:
	lfs 13,52(9)
.LBB6823:
.LBB6822:
	fmuls 0,4,0
.LBE6822:
.LBE6823:
	lfs 10,48(9)
	lfs 11,36(9)
	lfs 12,40(9)
	fmadds 0,3,13,0
	lfs 13,44(9)
	fmadds 0,5,10,0
	fmadds 0,7,11,0
	fmadds 0,8,12,0
	fmadds 13,6,13,0
	stfs 13,340(1)
	lwz 0,340(1)
	.loc 2 1558 0
	srwi 0,0,31
	ori 0,0,2
	rlwinm 0,0,0,0xffff
	sth 0,120(9)
.LVL1065:
.L495:
	.loc 2 1560 0
	xor 0,0,7
	andi. 7,0,1
	beq+ 0,.L605
	.loc 2 1564 0
	lwz 0,20(10)
	lfs 11,9072(25)
	cmpw 7,0,11
	lfs 9,9076(25)
	lfs 10,9080(25)
	ble- 7,.L518
.LVL1066:
.L493:
	.loc 2 1547 0
	lwz 0,7044(25)
	addi 6,6,1
.LVL1067:
	cmpw 7,6,0
	bge- 7,.L606
	addi 10,10,112
.LVL1068:
	b .L516
.LVL1069:
.L444:
	.loc 2 1504 0
	lwz 0,7044(25)
	addi 24,1,116
	.loc 2 1503 0
	beq- 3,.L451
.LVL1070:
	.loc 2 1504 0
	cmpwi 7,0,0
	ble- 7,.L452
	li 11,0
	addi 9,25,7048
.LVL1071:
.L453:
.LBB6824:
.LBB6825:
.LBB6826:
	.loc 5 553 0
	lfs 0,8(9)
.LBE6826:
.LBE6825:
.LBE6824:
	.loc 2 1504 0
	addi 11,11,1
.LBB6829:
.LBB6828:
.LBB6827:
	.loc 5 553 0
	lfs 12,12(26)
	.loc 5 554 0
	lfs 13,16(26)
	.loc 5 555 0
	lfs 11,20(26)
	.loc 5 553 0
	fmuls 12,0,12
	.loc 5 554 0
	fmuls 13,0,13
	.loc 5 553 0
	lfs 8,0(26)
	.loc 5 555 0
	fmuls 11,0,11
	.loc 5 554 0
	lfs 9,4(26)
	.loc 5 553 0
	lfs 0,4(9)
.LVL1072:
	.loc 5 555 0
	lfs 10,8(26)
	.loc 5 553 0
	fmadds 12,8,0,12
	lfs 8,24(26)
	.loc 5 554 0
	fmadds 13,0,9,13
	lfs 9,28(26)
	.loc 5 555 0
	fmadds 11,0,10,11
	.loc 5 553 0
	lfs 0,12(9)
	.loc 5 555 0
	lfs 10,32(26)
	.loc 5 553 0
	fmadds 12,8,0,12
.LVL1073:
	.loc 5 554 0
	fmadds 13,0,9,13
.LVL1074:
	.loc 5 555 0
	fmadds 0,0,10,11
	.loc 5 556 0
	stfs 12,4(9)
	.loc 5 557 0
	stfs 13,8(9)
	.loc 5 555 0
	stfs 0,12(9)
.LBE6827:
.LBE6828:
.LBE6829:
	.loc 2 1504 0
	addi 9,9,112
.LVL1075:
	lwz 0,7044(25)
	cmpw 7,11,0
	blt+ 7,.L453
	addi 24,1,116
	b .L450
.LVL1076:
.L419:
.LBB6830:
.LBB6831:
	.loc 3 456 0
	lfs 0,2788(21)
	lfs 13,8844(25)
	.loc 3 457 0
	lfs 12,8848(25)
	.loc 3 456 0
	fadds 13,13,0
	.loc 3 458 0
	lfs 11,8852(25)
	.loc 3 456 0
	stfs 13,8844(25)
	.loc 3 457 0
	lfs 0,2792(21)
	fadds 12,12,0
	stfs 12,8848(25)
	.loc 3 458 0
	lfs 0,2796(21)
	fadds 0,11,0
	stfs 0,8852(25)
	b .L420
.LVL1077:
.L604:
.LBE6831:
.LBE6830:
	.loc 2 1553 0
	lfs 11,9072(25)
	lfs 9,9076(25)
	lfs 10,9080(25)
.LVL1078:
.L518:
	.loc 2 1565 0
	li 0,1
	lfs 0,8844(25)
	stb 0,9056(25)
	lfs 12,8848(25)
	lfs 13,8852(25)
	b .L489
.LVL1079:
.L381:
.LBB6832:
.LBB5752:
.LBB5746:
.LBB5742:
	.loc 3 497 0
	lfs 2,20(23)
	lfs 5,20(24)
.LBE5742:
.LBE5746:
.LBB5747:
.LBB5736:
	lfs 1,24(23)
.LBE5736:
.LBE5747:
.LBB5748:
.LBB5743:
	fcmpu 7,2,5
	beq- 7,.L382
	lfs 5,28(23)
	lfs 4,32(23)
	b .L378
.LVL1080:
.L600:
.LBE5743:
.LBE5748:
.LBE5752:
.LBE6832:
.LBB6833:
.LBB6834:
	.loc 9 205 0
	lbz 0,320(1)
	cmpwi 7,0,0
	bne+ 7,.L423
	.loc 9 206 0
	addi 3,1,256
	bl _ZNK10idRotation6ToMat3Ev
	lfs 13,8844(25)
	lfs 12,8848(25)
	lfs 0,8852(25)
.L423:
.LVL1081:
.LBB6835:
.LBB6836:
	.loc 3 431 0
	lfs 9,260(1)
	lfs 11,256(1)
	fsubs 12,12,9
.LBE6836:
.LBE6835:
.LBB6840:
.LBB6841:
.LBB6842:
	.loc 5 454 0
	lfs 8,300(1)
.LBE6842:
.LBE6841:
.LBE6840:
.LBB6847:
.LBB6837:
	.loc 3 431 0
	fsubs 13,13,11
.LBE6837:
.LBE6847:
.LBB6848:
.LBB6845:
.LBB6843:
	.loc 5 454 0
	lfs 7,304(1)
.LBE6843:
.LBE6845:
.LBE6848:
.LBB6849:
.LBB6850:
	lfs 6,288(1)
.LBE6850:
.LBE6849:
.LBB6854:
.LBB6846:
.LBB6844:
	fmuls 8,12,8
	lfs 10,296(1)
	fmuls 7,12,7
	fmuls 12,12,10
.LBE6844:
.LBE6846:
.LBE6854:
.LBB6855:
.LBB6838:
	.loc 3 431 0
	lfs 10,264(1)
.LBE6838:
.LBE6855:
.LBB6856:
.LBB6851:
	.loc 5 454 0
	fmadds 8,13,6,8
	lfs 6,292(1)
.LBE6851:
.LBE6856:
.LBB6857:
.LBB6839:
	.loc 3 431 0
	fsubs 0,0,10
.LVL1082:
.LBE6839:
.LBE6857:
.LBB6858:
.LBB6852:
	.loc 5 454 0
	fmadds 7,13,6,7
	lfs 6,284(1)
	fmadds 13,13,6,12
.LVL1083:
	lfs 12,312(1)
	fmadds 8,0,12,8
	lfs 12,316(1)
	fmadds 12,0,12,7
	lfs 7,308(1)
	.loc 3 452 0
	fadds 9,9,8
	.loc 5 454 0
	fmadds 0,0,7,13
.LVL1084:
	.loc 3 452 0
	fadds 10,10,12
.LVL1085:
.LBE6852:
.LBE6858:
.LBB6859:
.LBB6860:
	.loc 3 425 0
	stfs 9,8848(25)
.LBE6860:
.LBE6859:
.LBB6862:
.LBB6853:
	.loc 3 452 0
	fadds 11,11,0
.LBE6853:
.LBE6862:
.LBB6863:
.LBB6861:
	.loc 3 426 0
	stfs 10,8852(25)
	.loc 3 424 0
	stfs 11,8844(25)
	b .L422
.LVL1086:
.L599:
.LBE6861:
.LBE6863:
.LBE6834:
.LBE6833:
.LBB6864:
.LBB6865:
	.loc 5 553 0
	lfs 2,164(1)
	.loc 5 554 0
	lfs 5,168(1)
	.loc 5 555 0
	lfs 8,172(1)
	.loc 5 553 0
	fmuls 2,12,2
	.loc 5 554 0
	fmuls 5,12,5
.LBE6865:
.LBE6864:
	lfs 4,156(1)
.LBB6868:
.LBB6866:
	.loc 5 555 0
	fmuls 12,12,8
.LBE6866:
.LBE6868:
	lfs 7,160(1)
	.loc 5 553 0
	lfs 11,152(1)
	.loc 5 554 0
	fmadds 4,4,13,5
	.loc 5 553 0
	lfs 3,176(1)
	fmadds 11,11,13,2
.LVL1087:
	.loc 5 554 0
	lfs 6,180(1)
	.loc 5 555 0
	fmadds 13,7,13,12
	lfs 9,184(1)
	.loc 5 554 0
	fmadds 12,6,0,4
	.loc 5 553 0
	fmadds 3,3,0,11
.LVL1088:
	.loc 5 555 0
	fmadds 0,9,0,13
.LBB6869:
.LBB6867:
	.loc 5 557 0
	stfs 12,8848(25)
	.loc 5 556 0
	stfs 3,8844(25)
	.loc 5 557 0
	fmr 13,3
	.loc 5 555 0
	stfs 0,8852(25)
	b .L421
.LVL1089:
.L490:
.LBE6867:
.LBE6869:
	.loc 2 1414 0
	lfs 7,9064(25)
	b .L587
.LVL1090:
.L451:
	.loc 2 1507 0
	beq- 4,.L450
.LVL1091:
	.loc 2 1508 0
	cmpwi 7,0,0
	ble- 7,.L452
	lfs 1,152(1)
	li 11,0
	lfs 2,164(1)
	addi 9,25,7048
	lfs 3,176(1)
	lfs 4,156(1)
	lfs 5,168(1)
	lfs 6,180(1)
	lfs 7,160(1)
	lfs 8,172(1)
	lfs 9,184(1)
.LVL1092:
.L456:
.LBB6870:
.LBB6871:
.LBB6872:
	.loc 5 553 0
	lfs 13,8(9)
.LBE6872:
.LBE6871:
.LBE6870:
	.loc 2 1508 0
	addi 11,11,1
.LBB6875:
.LBB6874:
.LBB6873:
	.loc 5 553 0
	lfs 0,4(9)
.LVL1093:
	fmuls 12,13,2
	.loc 5 555 0
	fmuls 11,13,8
	.loc 5 554 0
	fmuls 10,13,5
	.loc 5 553 0
	fmadds 12,0,1,12
	.loc 5 555 0
	fmadds 11,0,7,11
	.loc 5 554 0
	fmadds 13,0,4,10
	.loc 5 553 0
	lfs 0,12(9)
	fmadds 12,3,0,12
.LVL1094:
	.loc 5 554 0
	fmadds 13,0,6,13
.LVL1095:
	.loc 5 555 0
	fmadds 0,0,9,11
	.loc 5 556 0
	stfs 12,4(9)
	.loc 5 557 0
	stfs 13,8(9)
	.loc 5 555 0
	stfs 0,12(9)
.LBE6873:
.LBE6874:
.LBE6875:
	.loc 2 1508 0
	addi 9,9,112
.LVL1096:
	lwz 0,7044(25)
	cmpw 7,11,0
	blt+ 7,.L456
	addi 24,1,116
	b .L450
.LVL1097:
.L382:
.LBB6876:
.LBB5753:
.LBB5749:
.LBB5737:
	.loc 3 497 0
	lfs 5,24(24)
	fcmpu 7,1,5
	lfs 5,28(23)
	bne- 7,.L586
	lfs 4,28(24)
	fcmpu 7,5,4
	lfs 4,32(23)
	bne- 7,.L378
	lfs 25,32(24)
	.loc 5 625 0
	li 17,0
	.loc 3 497 0
	fcmpu 7,4,25
	beq- 7,.L385
	b .L378
.LVL1098:
.L491:
.LBE5737:
.LBE5749:
.LBE5753:
.LBE6876:
.LBB6877:
.LBB6801:
.LBB6800:
	lfs 13,8852(25)
	lfs 10,9068(25)
	fcmpu 7,13,10
	bne- 7,.L492
.LBE6800:
.LBE6801:
.LBE6877:
	.loc 2 1543 0
	li 0,1
	lfs 11,9072(25)
	stb 0,9056(25)
	lfs 9,9076(25)
	lfs 10,9080(25)
	b .L489
.LVL1099:
.L594:
	.loc 2 1279 0
	lis 9,common@ha
	lis 4,.LC14@ha
	lwz 3,common@l(9)
	la 4,.LC14@l(4)
	lwz 9,0(3)
	lwz 0,68(9)
	mtctr 0
	crxor 6,6,6
	bctrl
.LVL1100:
	b .L371
.LVL1101:
.L583:
	addi 19,1,188
	b .L414
.LVL1102:
.L606:
	.loc 2 1547 0
	lfs 0,8844(25)
	lfs 12,8848(25)
	lfs 13,8852(25)
	b .L489
.LVL1103:
.L607:
	.loc 5 625 0
	li 0,1
	.loc 2 1414 0
	stw 17,336(1)
	.loc 5 625 0
	stw 0,328(1)
	b .L407
.LVL1104:
.L603:
	.loc 2 1547 0
	lfs 12,8848(25)
	fmr 9,8
	lfs 13,8852(25)
	b .L489
.LBE6880:
	.cfi_endproc
.LFE2823:
	.size	_ZN28idCollisionModelManagerLocal11Rotation180EP7trace_sRK6idVec3S4_ffS4_PK12idTraceModelRK6idMat3iiS4_SA_.part.17, .-_ZN28idCollisionModelManagerLocal11Rotation180EP7trace_sRK6idVec3S4_ffS4_PK12idTraceModelRK6idMat3iiS4_SA_.part.17
	.align 2
	.globl _ZN28idCollisionModelManagerLocal11Rotation180EP7trace_sRK6idVec3S4_ffS4_PK12idTraceModelRK6idMat3iiS4_SA_
	.type	_ZN28idCollisionModelManagerLocal11Rotation180EP7trace_sRK6idVec3S4_ffS4_PK12idTraceModelRK6idMat3iiS4_SA_, @function
_ZN28idCollisionModelManagerLocal11Rotation180EP7trace_sRK6idVec3S4_ffS4_PK12idTraceModelRK6idMat3iiS4_SA_:
.LFB2551:
	.loc 2 1261 0
	.cfi_startproc
.LVL1105:
	stwu 1,-72(1)
.LCFI48:
	.cfi_def_cfa_offset 72
	mflr 0
	stw 29,44(1)
.LBB6881:
	.loc 2 1272 0
	lis 29,.LANCHOR0@ha
	.cfi_offset 29, -28
	.cfi_register 65, 0
	la 29,.LANCHOR0@l(29)
.LBE6881:
	.loc 2 1261 0
	stw 30,48(1)
.LBB6882:
	.loc 2 1272 0
	addi 29,29,13096
.LBE6882:
	.loc 2 1261 0
	mr 30,3
	.cfi_offset 30, -24
.LBB6883:
	.loc 2 1272 0
	mr 3,29
.LVL1106:
.LBE6883:
	.loc 2 1261 0
	stfd 30,56(1)
	stfd 31,64(1)
	fmr 30,1
	.cfi_offset 63, -8
	.cfi_offset 62, -16
	stw 20,8(1)
	fmr 31,2
	stw 21,12(1)
	mr 20,4
	.cfi_offset 21, -60
	.cfi_offset 20, -64
	stw 22,16(1)
	mr 21,5
	stw 23,20(1)
	mr 22,6
	.cfi_offset 23, -52
	.cfi_offset 22, -56
	stw 24,24(1)
	mr 23,7
	stw 25,28(1)
	mr 24,8
	.cfi_offset 25, -44
	.cfi_offset 24, -48
	stw 26,32(1)
	mr 25,9
	stw 27,36(1)
	mr 26,10
	.cfi_offset 27, -36
	.cfi_offset 26, -40
	stw 28,40(1)
	stw 31,52(1)
	stw 0,76(1)
	.loc 2 1261 0
	lwz 31,80(1)
	.cfi_offset 65, 4
	.cfi_offset 31, -20
	.cfi_offset 28, -32
	lwz 27,84(1)
	lwz 28,88(1)
.LBB6884:
	.loc 2 1272 0
	bl __cxa_guard_acquire
.LVL1107:
	cmpwi 7,3,0
	bne- 7,.L613
.L609:
	.loc 2 1274 0
	cmplwi 7,31,2048
	bgt- 7,.L610
	.loc 2 1274 0 is_stmt 0 discriminator 1
	lwz 0,48(30)
	cmpw 7,31,0
	bgt- 7,.L610
.LBE6884:
	.loc 2 1612 0 is_stmt 1
	lwz 0,76(1)
.LBB6885:
	.loc 2 1276 0
	fmr 1,30
	stw 31,80(1)
	fmr 2,31
	stw 27,84(1)
	mr 3,30
	stw 28,88(1)
	mr 4,20
.LBE6885:
	.loc 2 1612 0
	lwz 27,36(1)
.LBB6886:
	.loc 2 1276 0
	mr 5,21
.LBE6886:
	.loc 2 1612 0
	lwz 20,8(1)
.LVL1108:
.LBB6887:
	.loc 2 1276 0
	mr 6,22
.LBE6887:
	.loc 2 1612 0
	lwz 21,12(1)
.LVL1109:
.LBB6888:
	.loc 2 1276 0
	mr 7,23
.LBE6888:
	.loc 2 1612 0
	lwz 22,16(1)
.LVL1110:
.LBB6889:
	.loc 2 1276 0
	mr 8,24
.LBE6889:
	.loc 2 1612 0
	lwz 23,20(1)
.LVL1111:
.LBB6890:
	.loc 2 1276 0
	mr 9,25
.LBE6890:
	.loc 2 1612 0
	lwz 24,24(1)
.LVL1112:
.LBB6891:
	.loc 2 1276 0
	mr 10,26
.LBE6891:
	.loc 2 1612 0
	lwz 25,28(1)
.LVL1113:
	mtlr 0
	lwz 26,32(1)
.LVL1114:
	lwz 28,40(1)
	lwz 29,44(1)
	lwz 30,48(1)
.LVL1115:
	lwz 31,52(1)
	lfd 30,56(1)
.LVL1116:
	lfd 31,64(1)
.LVL1117:
	addi 1,1,72
	.cfi_remember_state
.LCFI49:
	.cfi_def_cfa_offset 0
	.cfi_restore 63
	.cfi_restore 62
	.cfi_restore 31
	.cfi_restore 30
	.cfi_restore 29
	.cfi_restore 28
	.cfi_restore 27
	.cfi_restore 26
	.cfi_restore 25
	.cfi_restore 24
	.cfi_restore 23
	.cfi_restore 22
	.cfi_restore 21
	.cfi_restore 20
.LBB6892:
	.loc 2 1276 0
	b _ZN28idCollisionModelManagerLocal11Rotation180EP7trace_sRK6idVec3S4_ffS4_PK12idTraceModelRK6idMat3iiS4_SA_.part.17
.LVL1118:
.L610:
.LCFI50:
	.cfi_restore_state
	.loc 2 1275 0
	lis 9,common@ha
	lis 4,.LC17@ha
	lwz 3,common@l(9)
	la 4,.LC17@l(4)
	lwz 9,0(3)
	lwz 0,68(9)
	mtctr 0
	crxor 6,6,6
	bctrl
.LBE6892:
	.loc 2 1612 0
	lwz 0,76(1)
	lwz 20,8(1)
.LVL1119:
	mtlr 0
	lwz 21,12(1)
.LVL1120:
	lwz 22,16(1)
.LVL1121:
	lwz 23,20(1)
.LVL1122:
	lwz 24,24(1)
.LVL1123:
	lwz 25,28(1)
.LVL1124:
	lwz 26,32(1)
.LVL1125:
	lwz 27,36(1)
	lwz 28,40(1)
	lwz 29,44(1)
	lwz 30,48(1)
.LVL1126:
	lwz 31,52(1)
	lfd 30,56(1)
.LVL1127:
	lfd 31,64(1)
.LVL1128:
	addi 1,1,72
	.cfi_remember_state
.LCFI51:
	.cfi_def_cfa_offset 0
	.cfi_restore 63
	.cfi_restore 62
	.cfi_restore 31
	.cfi_restore 30
	.cfi_restore 29
	.cfi_restore 28
	.cfi_restore 27
	.cfi_restore 26
	.cfi_restore 25
	.cfi_restore 24
	.cfi_restore 23
	.cfi_restore 22
	.cfi_restore 21
	.cfi_restore 20
	blr
.LVL1129:
.L613:
.LCFI52:
	.cfi_restore_state
.LBB6893:
	.loc 2 1272 0 discriminator 1
	mr 3,29
	bl __cxa_guard_release
	b .L609
.LBE6893:
	.cfi_endproc
.LFE2551:
	.size	_ZN28idCollisionModelManagerLocal11Rotation180EP7trace_sRK6idVec3S4_ffS4_PK12idTraceModelRK6idMat3iiS4_SA_, .-_ZN28idCollisionModelManagerLocal11Rotation180EP7trace_sRK6idVec3S4_ffS4_PK12idTraceModelRK6idMat3iiS4_SA_
	.align 2
	.globl _ZN28idCollisionModelManagerLocal8RotationEP7trace_sRK6idVec3RK10idRotationPK12idTraceModelRK6idMat3iiS4_SD_
	.type	_ZN28idCollisionModelManagerLocal8RotationEP7trace_sRK6idVec3RK10idRotationPK12idTraceModelRK6idMat3iiS4_SD_, @function
_ZN28idCollisionModelManagerLocal8RotationEP7trace_sRK6idVec3RK10idRotationPK12idTraceModelRK6idMat3iiS4_SD_:
.LFB2572:
	.loc 2 1625 0
	.cfi_startproc
.LVL1130:
	stwu 1,-120(1)
.LCFI53:
	.cfi_def_cfa_offset 120
	mflr 0
	stw 28,72(1)
	mr 28,5
	.cfi_offset 28, -48
	.cfi_register 65, 0
	stw 29,76(1)
.LBB6894:
	.loc 2 1632 0
	li 5,108
.LVL1131:
.LBE6894:
	.loc 2 1625 0
	stw 31,84(1)
	mr 29,3
	.cfi_offset 31, -36
	.cfi_offset 29, -44
	mr 31,4
.LBB6895:
	.loc 2 1632 0
	mr 3,4
.LVL1132:
	li 4,0
.LVL1133:
.LBE6895:
	.loc 2 1625 0
	stw 22,48(1)
	stw 23,52(1)
	stw 24,56(1)
	mr 24,10
	.cfi_offset 24, -64
	.cfi_offset 23, -68
	.cfi_offset 22, -72
	stw 25,60(1)
	mr 25,9
	.cfi_offset 25, -60
	stw 26,64(1)
	mr 26,8
	.cfi_offset 26, -56
	stw 27,68(1)
	mr 27,7
	.cfi_offset 27, -52
	stw 30,80(1)
	mr 30,6
	.cfi_offset 30, -40
	stw 0,124(1)
	stfd 28,88(1)
	stfd 29,96(1)
	stfd 30,104(1)
	stfd 31,112(1)
	stw 19,36(1)
	stw 20,40(1)
	stw 21,44(1)
	.loc 2 1625 0
	lwz 23,128(1)
	lwz 22,132(1)
.LBB6896:
	.loc 2 1632 0
	.cfi_offset 21, -76
	.cfi_offset 20, -80
	.cfi_offset 19, -84
	.cfi_offset 63, -8
	.cfi_offset 62, -16
	.cfi_offset 61, -24
	.cfi_offset 60, -32
	.cfi_offset 65, 4
	bl memset
.LVL1134:
	.loc 2 1635 0
	lis 9,.LC2@ha
	.loc 2 1700 0
	lfs 2,24(30)
	.loc 2 1635 0
	lfs 1,.LC2@l(9)
	fcmpu 7,2,1
	beq- 7,.L633
	.loc 2 1655 0
	lis 9,.LC22@ha
	lfs 0,.LC22@l(9)
	fcmpu 7,2,0
	cror 30,29,30
	bne- 7,.L634
.L617:
	.loc 2 1656 0 discriminator 4
	lis 9,.LC15@ha
	lfs 0,.LC15@l(9)
	fcmpu 7,2,0
	cror 30,29,30
	bne- 7,.L635
	.loc 2 1658 0
	lis 9,.LC19@ha
	lwz 0,.LC19@l(9)
.L620:
.LVL1135:
	stw 0,24(1)
	.loc 2 1666 0
	lis 9,.LC21@ha
	lfs 28,.LC21@l(9)
	lis 19,.LC1@ha
	.loc 2 1658 0
	lfs 29,24(1)
.LVL1136:
.L621:
.LBE6896:
	.loc 2 1625 0
	lis 9,.LC2@ha
	lis 21,.LC1@ha
	fmr 31,29
	lfs 30,.LC2@l(9)
	addi 20,30,12
	la 21,.LC1@l(21)
	b .L625
.LVL1137:
.L632:
.LBB6897:
	.loc 2 1666 0
	fadds 0,31,29
.LVL1138:
	fmr 30,31
	fabs 13,0
	fmr 31,0
.LVL1139:
	fmr 0,13
.LVL1140:
	fcmpu 7,0,28
	bnl- 7,.L622
.LVL1141:
.L625:
	.loc 2 1668 0
	fmr 1,30
	mr 3,29
	fmr 2,31
	mr 4,31
	mr 5,30
	mr 6,20
	mr 7,28
	mr 8,27
	mr 9,26
	mr 10,25
	stw 24,8(1)
	stw 23,12(1)
	stw 22,16(1)
	bl _ZN28idCollisionModelManagerLocal11Rotation180EP7trace_sRK6idVec3S4_ffS4_PK12idTraceModelRK6idMat3iiS4_SA_
	.loc 2 1670 0
	lfs 0,0(31)
	lfs 13,0(21)
	fcmpu 7,0,13
	bnl+ 7,.L632
	.loc 2 1672 0
	fmadds 0,0,29,30
	lfs 13,24(30)
	fdivs 0,0,13
	stfs 0,0(31)
	.loc 2 1673 0
	b .L614
.LVL1142:
.L634:
	.loc 2 1655 0 discriminator 2
	lis 9,.LC23@ha
	lfs 0,.LC23@l(9)
	fcmpu 7,2,0
	cror 30,28,30
	beq- 7,.L617
.LVL1143:
	.loc 2 1680 0
	mr 5,30
	mr 3,29
	mr 4,31
	addi 6,30,12
	mr 7,28
	mr 8,27
	mr 9,26
	mr 10,25
	stw 24,8(1)
	stw 23,12(1)
	stw 22,16(1)
	bl _ZN28idCollisionModelManagerLocal11Rotation180EP7trace_sRK6idVec3S4_ffS4_PK12idTraceModelRK6idMat3iiS4_SA_
	b .L614
.LVL1144:
.L633:
	.loc 2 1636 0
	mr 3,29
	mr 4,31
	mr 5,28
	mr 6,27
	mr 7,26
	mr 8,25
	mr 9,24
	mr 10,23
	stw 22,8(1)
	bl _ZN28idCollisionModelManagerLocal11ContentsTrmEP7trace_sRK6idVec3PK12idTraceModelRK6idMat3iiS4_SA_
.L614:
.LBE6897:
	.loc 2 1700 0
	lwz 0,124(1)
	lwz 19,36(1)
	mtlr 0
	lwz 20,40(1)
	lwz 21,44(1)
	lwz 22,48(1)
	lwz 23,52(1)
	lwz 24,56(1)
.LVL1145:
	lwz 25,60(1)
.LVL1146:
	lwz 26,64(1)
.LVL1147:
	lwz 27,68(1)
.LVL1148:
	lwz 28,72(1)
.LVL1149:
	lwz 29,76(1)
.LVL1150:
	lwz 30,80(1)
.LVL1151:
	lwz 31,84(1)
.LVL1152:
	lfd 28,88(1)
	lfd 29,96(1)
	lfd 30,104(1)
	lfd 31,112(1)
	addi 1,1,120
	.cfi_remember_state
.LCFI54:
	.cfi_def_cfa_offset 0
	.cfi_restore 63
	.cfi_restore 62
	.cfi_restore 61
	.cfi_restore 60
	.cfi_restore 31
	.cfi_restore 30
	.cfi_restore 29
	.cfi_restore 28
	.cfi_restore 27
	.cfi_restore 26
	.cfi_restore 25
	.cfi_restore 24
	.cfi_restore 23
	.cfi_restore 22
	.cfi_restore 21
	.cfi_restore 20
	.cfi_restore 19
	blr
.LVL1153:
.L635:
.LCFI55:
	.cfi_restore_state
.LBB6898:
	.loc 2 1659 0
	lis 9,.LC24@ha
	lfs 0,.LC24@l(9)
	fcmpu 7,2,0
	cror 30,28,30
	beq- 7,.L627
	.loc 2 1664 0
	lis 9,.LC8@ha
	.loc 2 1666 0
	fabs 28,2
	.loc 2 1664 0
	lfs 29,.LC8@l(9)
	.loc 2 1666 0
	lis 19,.LC1@ha
	lfs 13,.LC1@l(19)
	.loc 2 1664 0
	fmuls 29,2,29
.LVL1154:
	.loc 2 1666 0
	fadd 28,28,13
	fabs 0,29
	fcmpu 7,0,28
	blt+ 7,.L621
.LVL1155:
.L622:
	.loc 2 1676 0
	lwz 0,.LC1@l(19)
	stw 0,0(31)
	.loc 2 1677 0
	b .L614
.LVL1156:
.L627:
	.loc 2 1661 0
	lis 9,.LC18@ha
	lwz 0,.LC18@l(9)
	b .L620
.LBE6898:
	.cfi_endproc
.LFE2572:
	.size	_ZN28idCollisionModelManagerLocal8RotationEP7trace_sRK6idVec3RK10idRotationPK12idTraceModelRK6idMat3iiS4_SD_, .-_ZN28idCollisionModelManagerLocal8RotationEP7trace_sRK6idVec3RK10idRotationPK12idTraceModelRK6idMat3iiS4_SD_
	.weak	_ZTS9idWinding
	.section	.rodata._ZTS9idWinding,"aG",@progbits,_ZTS9idWinding,comdat
	.align 2
	.type	_ZTS9idWinding, @object
	.size	_ZTS9idWinding, 11
_ZTS9idWinding:
	.string	"9idWinding"
	.weak	_ZTI9idWinding
	.section	.sdata._ZTI9idWinding,"awG",@progbits,_ZTI9idWinding,comdat
	.align 2
	.type	_ZTI9idWinding, @object
	.size	_ZTI9idWinding, 8
_ZTI9idWinding:
	.long	_ZTVN10__cxxabiv117__class_type_infoE+8
	.long	_ZTS9idWinding
	.weak	_ZTS14idFixedWinding
	.section	.rodata._ZTS14idFixedWinding,"aG",@progbits,_ZTS14idFixedWinding,comdat
	.align 2
	.type	_ZTS14idFixedWinding, @object
	.size	_ZTS14idFixedWinding, 17
_ZTS14idFixedWinding:
	.string	"14idFixedWinding"
	.weak	_ZTI14idFixedWinding
	.section	.rodata._ZTI14idFixedWinding,"aG",@progbits,_ZTI14idFixedWinding,comdat
	.align 2
	.type	_ZTI14idFixedWinding, @object
	.size	_ZTI14idFixedWinding, 12
_ZTI14idFixedWinding:
	.long	_ZTVN10__cxxabiv120__si_class_type_infoE+8
	.long	_ZTS14idFixedWinding
	.long	_ZTI9idWinding
	.weak	_ZTV9idWinding
	.section	.rodata._ZTV9idWinding,"aG",@progbits,_ZTV9idWinding,comdat
	.align 3
	.type	_ZTV9idWinding, @object
	.size	_ZTV9idWinding, 24
_ZTV9idWinding:
	.long	0
	.long	_ZTI9idWinding
	.long	_ZN9idWindingD1Ev
	.long	_ZN9idWindingD0Ev
	.long	_ZN9idWinding5ClearEv
	.long	_ZN9idWinding10ReAllocateEib
	.weak	_ZTV14idFixedWinding
	.section	.rodata._ZTV14idFixedWinding,"aG",@progbits,_ZTV14idFixedWinding,comdat
	.align 3
	.type	_ZTV14idFixedWinding, @object
	.size	_ZTV14idFixedWinding, 24
_ZTV14idFixedWinding:
	.long	0
	.long	_ZTI14idFixedWinding
	.long	_ZN14idFixedWindingD1Ev
	.long	_ZN14idFixedWindingD0Ev
	.long	_ZN14idFixedWinding5ClearEv
	.long	_ZN14idFixedWinding10ReAllocateEib
	.weak	_ZN9idWindingD1Ev
	.set	_ZN9idWindingD1Ev,_ZN9idWindingD2Ev
	.weak	_ZN14idFixedWindingD1Ev
	.set	_ZN14idFixedWindingD1Ev,_ZN14idFixedWindingD2Ev
	.section	.rodata.cst4,"aM",@progbits,4
	.align 2
.LC1:
	.4byte	1065353216
.LC2:
	.4byte	0
.LC4:
	.4byte	1343554297
.LC6:
	.4byte	1048576000
.LC7:
	.4byte	998244352
.LC8:
	.4byte	1056964608
.LC10:
	.4byte	1069547520
.LC11:
	.4byte	1036831949
.LC12:
	.4byte	1048579355
.LC13:
	.4byte	953267991
.LC15:
	.4byte	1135869952
.LC16:
	.4byte	1149239296
.LC18:
	.4byte	-1024458752
.LC19:
	.4byte	1123024896
.LC21:
	.4byte	1135902720
.LC22:
	.4byte	1127481344
.LC23:
	.4byte	-1020002304
.LC24:
	.4byte	-1011613696
	.section	.rodata.cst8,"aM",@progbits,8
	.align 3
.LC5:
	.4byte	0
	.4byte	0
	.section	.rodata.str1.4,"aMS",@progbits,1
	.align 2
.LC14:
	.string	"idCollisionModelManagerLocal::Rotation180: invalid model\n"
	.zero	2
.LC17:
	.string	"idCollisionModelManagerLocal::Rotation180: invalid model handle\n"
	.section	".bss"
	.align 3
	.set	.LANCHOR0,. + 0
	.type	_ZZN28idCollisionModelManagerLocal11Rotation180EP7trace_sRK6idVec3S4_ffS4_PK12idTraceModelRK6idMat3iiS4_SA_E2tw, @object
	.size	_ZZN28idCollisionModelManagerLocal11Rotation180EP7trace_sRK6idVec3S4_ffS4_PK12idTraceModelRK6idMat3iiS4_SA_E2tw, 13092
_ZZN28idCollisionModelManagerLocal11Rotation180EP7trace_sRK6idVec3S4_ffS4_PK12idTraceModelRK6idMat3iiS4_SA_E2tw:
	.zero	13092
	.zero	4
	.type	_ZGVZN28idCollisionModelManagerLocal11Rotation180EP7trace_sRK6idVec3S4_ffS4_PK12idTraceModelRK6idMat3iiS4_SA_E2tw, @object
	.size	_ZGVZN28idCollisionModelManagerLocal11Rotation180EP7trace_sRK6idVec3S4_ffS4_PK12idTraceModelRK6idMat3iiS4_SA_E2tw, 8
_ZGVZN28idCollisionModelManagerLocal11Rotation180EP7trace_sRK6idVec3S4_ffS4_PK12idTraceModelRK6idMat3iiS4_SA_E2tw:
	.zero	8
	.section	".text"
.Letext0:
	.file 12 "<built-in>"
	.file 13 "c:\\utils\\devkitpro\\devkitppc\\bin\\../lib/gcc/powerpc-eabi/4.6.3/include/stddef.h"
	.file 14 "c:\\utils\\devkitpro\\devkitppc\\bin\\../lib/gcc/powerpc-eabi/4.6.3/../../../../powerpc-eabi/include/sys/types.h"
	.file 15 "d:/Data/Nintendo/DoomGX/src/cm/../idlib/../sys/sys_public.h"
	.file 16 "d:/Data/Nintendo/DoomGX/src/cm/../idlib/../framework/Common.h"
	.file 17 "d:/Data/Nintendo/DoomGX/src/cm/../idlib/../framework/CVarSystem.h"
	.file 18 "d:/Data/Nintendo/DoomGX/src/cm/../idlib/../framework/FileSystem.h"
	.file 19 "d:/Data/Nintendo/DoomGX/src/cm/../idlib/../idlib/CmdArgs.h"
	.file 20 "d:/Data/Nintendo/DoomGX/src/cm/../idlib/../idlib/math/Random.h"
	.file 21 "d:/Data/Nintendo/DoomGX/src/cm/../idlib/../idlib/math/Angles.h"
	.file 22 "d:/Data/Nintendo/DoomGX/src/cm/../idlib/../idlib/math/Quat.h"
	.file 23 "d:/Data/Nintendo/DoomGX/src/cm/../idlib/../idlib/containers/List.h"
	.file 24 "d:/Data/Nintendo/DoomGX/src/cm/../idlib/../idlib/math/Ode.h"
	.file 25 "d:/Data/Nintendo/DoomGX/src/cm/../idlib/../idlib/bv/Sphere.h"
	.file 26 "d:/Data/Nintendo/DoomGX/src/cm/../idlib/../idlib/bv/Box.h"
	.file 27 "d:/Data/Nintendo/DoomGX/src/cm/../idlib/../idlib/bv/Frustum.h"
	.file 28 "d:/Data/Nintendo/DoomGX/src/cm/../idlib/../idlib/geometry/DrawVert.h"
	.file 29 "d:/Data/Nintendo/DoomGX/src/cm/../idlib/../idlib/geometry/JointTransform.h"
	.file 30 "d:/Data/Nintendo/DoomGX/src/cm/../idlib/../idlib/geometry/Surface.h"
	.file 31 "d:/Data/Nintendo/DoomGX/src/cm/../idlib/../idlib/geometry/TraceModel.h"
	.file 32 "d:/Data/Nintendo/DoomGX/src/cm/../idlib/../idlib/Str.h"
	.file 33 "d:/Data/Nintendo/DoomGX/src/cm/../idlib/../idlib/Token.h"
	.file 34 "d:/Data/Nintendo/DoomGX/src/cm/../idlib/../idlib/Lexer.h"
	.file 35 "d:/Data/Nintendo/DoomGX/src/cm/../idlib/../framework/File.h"
	.file 36 "d:/Data/Nintendo/DoomGX/src/cm/../idlib/../idlib/Parser.h"
	.file 37 "d:/Data/Nintendo/DoomGX/src/cm/../idlib/../idlib/containers/HashIndex.h"
	.file 38 "d:/Data/Nintendo/DoomGX/src/cm/../idlib/../idlib/containers/StrList.h"
	.file 39 "d:/Data/Nintendo/DoomGX/src/cm/../idlib/../idlib/containers/StrPool.h"
	.file 40 "d:/Data/Nintendo/DoomGX/src/cm/../idlib/../idlib/containers/PlaneSet.h"
	.file 41 "d:/Data/Nintendo/DoomGX/src/cm/../idlib/../idlib/Dict.h"
	.file 42 "d:/Data/Nintendo/DoomGX/src/cm/../idlib/../idlib/LangDict.h"
	.file 43 "d:/Data/Nintendo/DoomGX/src/cm/../idlib/../idlib/BitMsg.h"
	.file 44 "d:/Data/Nintendo/DoomGX/src/cm/../idlib/../idlib/MapFile.h"
	.file 45 "d:/Data/Nintendo/DoomGX/src/cm/../idlib/../framework/CmdSystem.h"
	.file 46 "d:/Data/Nintendo/DoomGX/src/cm/../idlib/../framework/UsercmdGen.h"
	.file 47 "d:/Data/Nintendo/DoomGX/src/cm/../idlib/../framework/DeclManager.h"
	.file 48 "d:/Data/Nintendo/DoomGX/src/cm/../idlib/../framework/DeclParticle.h"
	.file 49 "d:/Data/Nintendo/DoomGX/src/cm/../idlib/../renderer/RenderWorld.h"
	.file 50 "d:/Data/Nintendo/DoomGX/src/cm/../idlib/../renderer/Cinematic.h"
	.file 51 "d:/Data/Nintendo/DoomGX/src/cm/../idlib/../renderer/Model.h"
	.file 52 "d:/Data/Nintendo/DoomGX/src/cm/../idlib/../renderer/RenderSystem.h"
	.file 53 "d:/Data/Nintendo/DoomGX/src/cm/../idlib/../sound/sound.h"
	.file 54 "d:/Data/Nintendo/DoomGX/src/cm/../idlib/../ui/UserInterface.h"
	.file 55 "d:/Data/Nintendo/DoomGX/src/cm/../idlib/../tools/compilers/aas/AASFile.h"
	.file 56 "d:/Data/Nintendo/DoomGX/src/cm/../idlib/../game/Game.h"
	.file 57 "d:/Data/Nintendo/DoomGX/src/cm/../idlib/../framework/async/NetworkSystem.h"
	.file 58 "d:/Data/Nintendo/DoomGX/src/cm/../idlib/../renderer/ModelManager.h"
	.file 59 "d:/Data/Nintendo/DoomGX/src/cm/../idlib/../tools/compilers/aas/AASFileManager.h"
	.file 60 "d:/Data/Nintendo/DoomGX/src/cm/../idlib/../framework/Session.h"
	.file 61 "d:/Data/Nintendo/DoomGX/src/cm/../idlib/../ui/ListGUI.h"
	.file 62 "d:/Data/Nintendo/DoomGX/src/cm/CollisionModel_local.h"
	.file 63 "d:/Data/Nintendo/DoomGX/src/cm/../idlib/../framework/Console.h"
	.file 64 "d:/Data/Nintendo/DoomGX/src/cm/../idlib/../idlib/math/Curve.h"
	.file 65 "d:/Data/Nintendo/DoomGX/src/cm/../idlib/../idlib/math/Simd.h"
	.file 66 "d:/Data/Nintendo/DoomGX/src/cm/../idlib/../framework/BuildVersion.h"
	.file 67 "d:/Data/Nintendo/DoomGX/src/cm/../idlib/precompiled.h"
	.file 68 "d:/Data/Nintendo/DoomGX/src/cm/../idlib/../renderer/Material.h"
	.file 69 "d:/Data/Nintendo/DoomGX/src/cm/../idlib/../framework/EventLoop.h"
	.file 70 "d:/Data/Nintendo/DoomGX/src/cm/../idlib/../framework/EditField.h"
	.file 71 "d:/Data/Nintendo/DoomGX/src/cm/../idlib/../framework/async/AsyncNetwork.h"
	.file 72 "d:/Data/Nintendo/DoomGX/src/cm/../idlib/../framework/async/AsyncServer.h"