	.file	"DeclAF.cpp"
	.section	".text"
.Ltext0:
	.section	.text._ZN14idFixedWinding5ClearEv,"axG",@progbits,_ZN14idFixedWinding5ClearEv,comdat
	.align 2
	.weak	_ZN14idFixedWinding5ClearEv
	.type	_ZN14idFixedWinding5ClearEv, @function
_ZN14idFixedWinding5ClearEv:
.LFB1502:
	.file 1 "d:/Data/Nintendo/DoomGX/src/framework/../idlib/../idlib/geometry/Winding.h"
	.loc 1 398 0
	.cfi_startproc
.LVL0:
	.loc 1 399 0
	li 0,0
	.loc 1 400 0
	.loc 1 399 0
	stw 0,4(3)
	.loc 1 400 0
	blr
	.cfi_endproc
.LFE1502:
	.size	_ZN14idFixedWinding5ClearEv, .-_ZN14idFixedWinding5ClearEv
	.section	.text._ZN6idDeclD2Ev,"axG",@progbits,_ZN6idDeclD5Ev,comdat
	.align 2
	.weak	_ZN6idDeclD2Ev
	.type	_ZN6idDeclD2Ev, @function
_ZN6idDeclD2Ev:
.LFB2259:
	.file 2 "d:/Data/Nintendo/DoomGX/src/framework/../idlib/../framework/DeclManager.h"
	.loc 2 137 0
	.cfi_startproc
.LVL1:
.LBB1690:
	.loc 2 137 0
	lis 9,_ZTV6idDecl+8@ha
.LBE1690:
.LBB1691:
	la 0,_ZTV6idDecl+8@l(9)
	stw 0,0(3)
.LBE1691:
	blr
	.cfi_endproc
.LFE2259:
	.size	_ZN6idDeclD2Ev, .-_ZN6idDeclD2Ev
	.section	.text._ZN6idDecl14SetDefaultTextEv,"axG",@progbits,_ZN6idDecl14SetDefaultTextEv,comdat
	.align 2
	.weak	_ZN6idDecl14SetDefaultTextEv
	.type	_ZN6idDecl14SetDefaultTextEv, @function
_ZN6idDecl14SetDefaultTextEv:
.LFB2279:
	.loc 2 200 0
	.cfi_startproc
.LVL2:
	mflr 0
	stwu 1,-8(1)
.LCFI0:
	.cfi_def_cfa_offset 8
	.cfi_register 65, 0
	stw 0,12(1)
	.loc 2 200 0
	lwz 3,4(3)
.LVL3:
	lwz 9,0(3)
	lwz 0,80(9)
	.cfi_offset 65, 4
	mtctr 0
	bctrl
	lwz 0,12(1)
	addi 1,1,8
.LCFI1:
	.cfi_def_cfa_offset 0
	mtlr 0
	blr
	.cfi_endproc
.LFE2279:
	.size	_ZN6idDecl14SetDefaultTextEv, .-_ZN6idDecl14SetDefaultTextEv
	.section	.text._ZNK6idDecl17DefaultDefinitionEv,"axG",@progbits,_ZNK6idDecl17DefaultDefinitionEv,comdat
	.align 2
	.weak	_ZNK6idDecl17DefaultDefinitionEv
	.type	_ZNK6idDecl17DefaultDefinitionEv, @function
_ZNK6idDecl17DefaultDefinitionEv:
.LFB2280:
	.loc 2 207 0
	.cfi_startproc
.LVL4:
	mflr 0
	stwu 1,-8(1)
.LCFI2:
	.cfi_def_cfa_offset 8
	.cfi_register 65, 0
	stw 0,12(1)
	.loc 2 207 0
	lwz 3,4(3)
.LVL5:
	lwz 9,0(3)
	lwz 0,84(9)
	.cfi_offset 65, 4
	mtctr 0
	bctrl
	lwz 0,12(1)
	addi 1,1,8
.LCFI3:
	.cfi_def_cfa_offset 0
	mtlr 0
	blr
	.cfi_endproc
.LFE2280:
	.size	_ZNK6idDecl17DefaultDefinitionEv, .-_ZNK6idDecl17DefaultDefinitionEv
	.section	.text._ZN6idDecl5ParseEPKci,"axG",@progbits,_ZN6idDecl5ParseEPKci,comdat
	.align 2
	.weak	_ZN6idDecl5ParseEPKci
	.type	_ZN6idDecl5ParseEPKci, @function
_ZN6idDecl5ParseEPKci:
.LFB2281:
	.loc 2 214 0
	.cfi_startproc
.LVL6:
	mflr 0
	stwu 1,-8(1)
.LCFI4:
	.cfi_def_cfa_offset 8
	.cfi_register 65, 0
	stw 0,12(1)
	.loc 2 214 0
	lwz 3,4(3)
.LVL7:
	lwz 9,0(3)
	lwz 0,88(9)
	.cfi_offset 65, 4
	mtctr 0
	bctrl
.LVL8:
	lwz 0,12(1)
	addi 1,1,8
.LCFI5:
	.cfi_def_cfa_offset 0
	mtlr 0
	blr
	.cfi_endproc
.LFE2281:
	.size	_ZN6idDecl5ParseEPKci, .-_ZN6idDecl5ParseEPKci
	.section	.text._ZN6idDecl8FreeDataEv,"axG",@progbits,_ZN6idDecl8FreeDataEv,comdat
	.align 2
	.weak	_ZN6idDecl8FreeDataEv
	.type	_ZN6idDecl8FreeDataEv, @function
_ZN6idDecl8FreeDataEv:
.LFB2282:
	.loc 2 220 0
	.cfi_startproc
.LVL9:
	mflr 0
	stwu 1,-8(1)
.LCFI6:
	.cfi_def_cfa_offset 8
	.cfi_register 65, 0
	stw 0,12(1)
	.loc 2 220 0
	lwz 3,4(3)
.LVL10:
	lwz 9,0(3)
	lwz 0,92(9)
	.cfi_offset 65, 4
	mtctr 0
	bctrl
	lwz 0,12(1)
	addi 1,1,8
.LCFI7:
	.cfi_def_cfa_offset 0
	mtlr 0
	blr
	.cfi_endproc
.LFE2282:
	.size	_ZN6idDecl8FreeDataEv, .-_ZN6idDecl8FreeDataEv
	.section	.text._ZNK6idDecl4SizeEv,"axG",@progbits,_ZNK6idDecl4SizeEv,comdat
	.align 2
	.weak	_ZNK6idDecl4SizeEv
	.type	_ZNK6idDecl4SizeEv, @function
_ZNK6idDecl4SizeEv:
.LFB2283:
	.loc 2 223 0
	.cfi_startproc
.LVL11:
	mflr 0
	stwu 1,-8(1)
.LCFI8:
	.cfi_def_cfa_offset 8
	.cfi_register 65, 0
	stw 0,12(1)
	.loc 2 223 0
	lwz 3,4(3)
.LVL12:
	lwz 9,0(3)
	lwz 0,96(9)
	.cfi_offset 65, 4
	mtctr 0
	bctrl
	lwz 0,12(1)
	addi 1,1,8
.LCFI9:
	.cfi_def_cfa_offset 0
	mtlr 0
	blr
	.cfi_endproc
.LFE2283:
	.size	_ZNK6idDecl4SizeEv, .-_ZNK6idDecl4SizeEv
	.section	.text._ZNK6idDecl4ListEv,"axG",@progbits,_ZNK6idDecl4ListEv,comdat
	.align 2
	.weak	_ZNK6idDecl4ListEv
	.type	_ZNK6idDecl4ListEv, @function
_ZNK6idDecl4ListEv:
.LFB2284:
	.loc 2 228 0
	.cfi_startproc
.LVL13:
	mflr 0
	stwu 1,-8(1)
.LCFI10:
	.cfi_def_cfa_offset 8
	.cfi_register 65, 0
	stw 0,12(1)
	.loc 2 228 0
	lwz 3,4(3)
.LVL14:
	lwz 9,0(3)
	lwz 0,100(9)
	.cfi_offset 65, 4
	mtctr 0
	bctrl
	lwz 0,12(1)
	addi 1,1,8
.LCFI11:
	.cfi_def_cfa_offset 0
	mtlr 0
	blr
	.cfi_endproc
.LFE2284:
	.size	_ZNK6idDecl4ListEv, .-_ZNK6idDecl4ListEv
	.section	.text._ZNK6idDecl5PrintEv,"axG",@progbits,_ZNK6idDecl5PrintEv,comdat
	.align 2
	.weak	_ZNK6idDecl5PrintEv
	.type	_ZNK6idDecl5PrintEv, @function
_ZNK6idDecl5PrintEv:
.LFB2285:
	.loc 2 233 0
	.cfi_startproc
.LVL15:
	mflr 0
	stwu 1,-8(1)
.LCFI12:
	.cfi_def_cfa_offset 8
	.cfi_register 65, 0
	stw 0,12(1)
	.loc 2 233 0
	lwz 3,4(3)
.LVL16:
	lwz 9,0(3)
	lwz 0,104(9)
	.cfi_offset 65, 4
	mtctr 0
	bctrl
	lwz 0,12(1)
	addi 1,1,8
.LCFI13:
	.cfi_def_cfa_offset 0
	mtlr 0
	blr
	.cfi_endproc
.LFE2285:
	.size	_ZNK6idDecl5PrintEv, .-_ZNK6idDecl5PrintEv
	.section	".text"
	.align 2
	.globl _ZNK8idDeclAF4SizeEv
	.type	_ZNK8idDeclAF4SizeEv, @function
_ZNK8idDeclAF4SizeEv:
.LFB2562:
	.file 3 "d:/Data/Nintendo/DoomGX/src/framework/DeclAF.cpp"
	.loc 3 768 0
	.cfi_startproc
.LVL17:
	.loc 3 770 0
	li 3,176
.LVL18:
	blr
	.cfi_endproc
.LFE2562:
	.size	_ZNK8idDeclAF4SizeEv, .-_ZNK8idDeclAF4SizeEv
	.align 2
	.globl _ZNK8idDeclAF17DefaultDefinitionEv
	.type	_ZNK8idDeclAF17DefaultDefinitionEv, @function
_ZNK8idDeclAF17DefaultDefinitionEv:
.LFB2582:
	.loc 3 1530 0
	.cfi_startproc
.LVL19:
	.loc 3 1560 0
	lis 3,.LC0@ha
.LVL20:
	.loc 3 1561 0
	la 3,.LC0@l(3)
	blr
	.cfi_endproc
.LFE2582:
	.size	_ZNK8idDeclAF17DefaultDefinitionEv, .-_ZNK8idDeclAF17DefaultDefinitionEv
	.section	.text._ZN9idWinding5ClearEv,"axG",@progbits,_ZN9idWinding5ClearEv,comdat
	.align 2
	.weak	_ZN9idWinding5ClearEv
	.type	_ZN9idWinding5ClearEv, @function
_ZN9idWinding5ClearEv:
.LFB1473:
	.loc 1 249 0
	.cfi_startproc
.LVL21:
	mflr 0
	stwu 1,-16(1)
.LCFI14:
	.cfi_def_cfa_offset 16
	.cfi_register 65, 0
	stw 31,12(1)
	mr 31,3
	.cfi_offset 31, -4
	stw 0,20(1)
	.loc 1 250 0
	li 0,0
	.cfi_offset 65, 4
	.loc 1 251 0
	lwz 3,8(3)
.LVL22:
	.loc 1 250 0
	stw 0,4(31)
	.loc 1 251 0
	cmpwi 7,3,0
	beq- 7,.L14
	.loc 1 251 0 is_stmt 0 discriminator 1
	bl _ZdaPv
.L14:
	.loc 1 252 0 is_stmt 1
	li 0,0
	stw 0,8(31)
	.loc 1 253 0
	lwz 0,20(1)
	lwz 31,12(1)
.LVL23:
	mtlr 0
	addi 1,1,16
.LCFI15:
	.cfi_def_cfa_offset 0
	.cfi_restore 31
	blr
	.cfi_endproc
.LFE1473:
	.size	_ZN9idWinding5ClearEv, .-_ZN9idWinding5ClearEv
	.section	.text._ZN9idWindingD2Ev,"axG",@progbits,_ZN9idWindingD5Ev,comdat
	.align 2
	.weak	_ZN9idWindingD2Ev
	.type	_ZN9idWindingD2Ev, @function
_ZN9idWindingD2Ev:
.LFB1461:
	.loc 1 183 0
	.cfi_startproc
.LVL24:
	mflr 0
	stwu 1,-16(1)
.LCFI16:
	.cfi_def_cfa_offset 16
	.cfi_register 65, 0
.LBB1693:
	lis 9,_ZTV9idWinding+8@ha
.LBE1693:
	stw 31,12(1)
	mr 31,3
	.cfi_offset 31, -4
	stw 0,20(1)
.LBB1694:
	.loc 1 183 0
	la 0,_ZTV9idWinding+8@l(9)
	.cfi_offset 65, 4
	.loc 1 184 0
	lwz 3,8(3)
.LVL25:
	.loc 1 183 0
	stw 0,0(31)
	.loc 1 184 0
	cmpwi 7,3,0
	beq- 7,.L17
	.loc 1 184 0 is_stmt 0 discriminator 1
	bl _ZdaPv
.L17:
	.loc 1 185 0 is_stmt 1
	li 0,0
	stw 0,8(31)
.LBE1694:
	.loc 1 186 0
	lwz 0,20(1)
	lwz 31,12(1)
.LVL26:
	mtlr 0
	addi 1,1,16
.LCFI17:
	.cfi_def_cfa_offset 0
	.cfi_restore 31
	blr
	.cfi_endproc
.LFE1461:
	.size	_ZN9idWindingD2Ev, .-_ZN9idWindingD2Ev
	.section	.text._ZN6idDeclD0Ev,"axG",@progbits,_ZN6idDeclD5Ev,comdat
	.align 2
	.weak	_ZN6idDeclD0Ev
	.type	_ZN6idDeclD0Ev, @function
_ZN6idDeclD0Ev:
.LFB2261:
	.loc 2 137 0
	.cfi_startproc
.LVL27:
	mflr 0
	stwu 1,-8(1)
.LCFI18:
	.cfi_def_cfa_offset 8
	.cfi_register 65, 0
.LBB1695:
.LBB1696:
.LBB1697:
	lis 9,_ZTV6idDecl+8@ha
.LBE1697:
.LBE1696:
.LBE1695:
	stw 0,12(1)
.LBB1700:
.LBB1699:
.LBB1698:
	.loc 2 137 0
	la 0,_ZTV6idDecl+8@l(9)
	.cfi_offset 65, 4
	stw 0,0(3)
.LBE1698:
.LBE1699:
.LBE1700:
	bl _ZdlPv
.LVL28:
	lwz 0,12(1)
	addi 1,1,8
.LCFI19:
	.cfi_def_cfa_offset 0
	mtlr 0
	blr
	.cfi_endproc
.LFE2261:
	.size	_ZN6idDeclD0Ev, .-_ZN6idDeclD0Ev
	.section	.text._ZN14idFixedWindingD2Ev,"axG",@progbits,_ZN14idFixedWindingD5Ev,comdat
	.align 2
	.weak	_ZN14idFixedWindingD2Ev
	.type	_ZN14idFixedWindingD2Ev, @function
_ZN14idFixedWindingD2Ev:
.LFB1498:
	.loc 1 380 0
	.cfi_startproc
.LVL29:
.LBB1706:
	.loc 1 381 0
	li 0,0
.LBB1707:
.LBB1708:
.LBB1709:
	.loc 1 183 0
	lis 9,_ZTV9idWinding+8@ha
.LBE1709:
.LBE1708:
.LBE1707:
	.loc 1 381 0
	stw 0,8(3)
.LVL30:
.LBB1712:
.LBB1711:
.LBB1710:
	.loc 1 183 0
	la 0,_ZTV9idWinding+8@l(9)
	stw 0,0(3)
.LBE1710:
.LBE1711:
.LBE1712:
.LBE1706:
	.loc 1 382 0
	blr
	.cfi_endproc
.LFE1498:
	.size	_ZN14idFixedWindingD2Ev, .-_ZN14idFixedWindingD2Ev
	.section	.text._ZN9idWindingD0Ev,"axG",@progbits,_ZN9idWindingD5Ev,comdat
	.align 2
	.weak	_ZN9idWindingD0Ev
	.type	_ZN9idWindingD0Ev, @function
_ZN9idWindingD0Ev:
.LFB1463:
	.loc 1 183 0
	.cfi_startproc
.LVL31:
	mflr 0
	stwu 1,-16(1)
.LCFI20:
	.cfi_def_cfa_offset 16
	.cfi_register 65, 0
.LBB1716:
.LBB1717:
.LBB1718:
	lis 9,_ZTV9idWinding+8@ha
.LBE1718:
.LBE1717:
.LBE1716:
	stw 31,12(1)
	mr 31,3
	.cfi_offset 31, -4
.LVL32:
	stw 0,20(1)
.LBB1723:
.LBB1721:
.LBB1719:
	.loc 1 183 0
	la 0,_ZTV9idWinding+8@l(9)
	.cfi_offset 65, 4
	.loc 1 184 0
	lwz 3,8(3)
.LVL33:
	.loc 1 183 0
	stw 0,0(31)
	.loc 1 184 0
	cmpwi 7,3,0
	beq- 7,.L26
	bl _ZdaPv
.L26:
	.loc 1 185 0
	li 0,0
.LBE1719:
.LBE1721:
.LBE1723:
	.loc 1 186 0
	mr 3,31
.LBB1724:
.LBB1722:
.LBB1720:
	.loc 1 185 0
	stw 0,8(31)
.LBE1720:
.LBE1722:
.LBE1724:
	.loc 1 186 0
	bl _ZdlPv
	lwz 0,20(1)
	lwz 31,12(1)
.LVL34:
	mtlr 0
	addi 1,1,16
.LCFI21:
	.cfi_def_cfa_offset 0
	.cfi_restore 31
	blr
	.cfi_endproc
.LFE1463:
	.size	_ZN9idWindingD0Ev, .-_ZN9idWindingD0Ev
	.section	.text._ZN14idFixedWindingD0Ev,"axG",@progbits,_ZN14idFixedWindingD5Ev,comdat
	.align 2
	.weak	_ZN14idFixedWindingD0Ev
	.type	_ZN14idFixedWindingD0Ev, @function
_ZN14idFixedWindingD0Ev:
.LFB1500:
	.loc 1 380 0
	.cfi_startproc
.LVL35:
	mflr 0
	stwu 1,-8(1)
.LCFI22:
	.cfi_def_cfa_offset 8
	.cfi_register 65, 0
.LBB1731:
.LBB1732:
.LBB1733:
.LBB1734:
.LBB1735:
.LBB1736:
	.loc 1 183 0
	lis 11,_ZTV9idWinding+8@ha
.LBE1736:
.LBE1735:
.LBE1734:
.LBE1733:
.LBE1732:
.LBE1731:
	.loc 1 380 0
	stw 0,12(1)
.LBB1742:
.LBB1741:
.LBB1740:
	.loc 1 381 0
	li 0,0
	.cfi_offset 65, 4
	stw 0,8(3)
.LVL36:
.LBB1739:
.LBB1738:
.LBB1737:
	.loc 1 183 0
	la 0,_ZTV9idWinding+8@l(11)
	stw 0,0(3)
.LBE1737:
.LBE1738:
.LBE1739:
.LBE1740:
.LBE1741:
.LBE1742:
	.loc 1 382 0
	bl _ZdlPv
.LVL37:
	lwz 0,12(1)
	addi 1,1,8
.LCFI23:
	.cfi_def_cfa_offset 0
	mtlr 0
	blr
	.cfi_endproc
.LFE1500:
	.size	_ZN14idFixedWindingD0Ev, .-_ZN14idFixedWindingD0Ev
	.section	".text"
	.align 2
	.globl _ZN10idAFVectorC2Ev
	.type	_ZN10idAFVectorC2Ev, @function
_ZN10idAFVectorC2Ev:
.LFB2539:
	.loc 3 45 0
	.cfi_startproc
	.cfi_personality 0,__gxx_personality_v0
	.cfi_lsda 0,.LLSDA2539
.LVL38:
	mflr 0
	stwu 1,-16(1)
.LCFI24:
	.cfi_def_cfa_offset 16
	.cfi_register 65, 0
.LBB1743:
.LBB1744:
.LBB1745:
.LBB1746:
	.file 4 "d:/Data/Nintendo/DoomGX/src/framework/../idlib/../idlib/Str.h"
	.loc 4 357 0
	li 9,20
	.loc 4 358 0
	addi 10,3,16
.LBE1746:
.LBE1745:
.LBE1744:
.LBB1753:
.LBB1754:
.LBB1755:
	addi 11,3,48
.LBE1755:
.LBE1754:
.LBE1753:
.LBE1743:
	.loc 3 45 0
	stw 31,12(1)
	stw 0,20(1)
.LBB1772:
.LBB1758:
.LBB1750:
.LBB1747:
	.loc 4 356 0
	li 0,0
	.cfi_offset 65, 4
	.cfi_offset 31, -4
.LBE1747:
.LBE1750:
.LBE1758:
.LBE1772:
	.loc 3 45 0
	stw 30,8(1)
	.loc 3 45 0
	mr 31,3
.LVL39:
.LBB1773:
.LBB1759:
.LBB1751:
.LBB1748:
	.loc 4 356 0
	stw 0,4(3)
.LBE1748:
.LBE1751:
.LBE1759:
	.loc 3 47 0
	li 4,84
.LBB1760:
.LBB1752:
.LBB1749:
	.loc 4 357 0
	stw 9,12(3)
	.loc 4 358 0
	stw 10,8(3)
	.loc 4 359 0
	stb 0,16(3)
.LVL40:
.LBE1749:
.LBE1752:
.LBE1760:
.LBB1761:
.LBB1757:
.LBB1756:
	.loc 4 356 0
	stw 0,36(3)
	.loc 4 357 0
	stw 9,44(3)
	.loc 4 358 0
	stw 11,40(3)
	.loc 4 359 0
	stb 0,48(3)
.LBE1756:
.LBE1757:
.LBE1761:
	.loc 3 47 0
	lis 3,.LC1@ha
.LVL41:
	la 3,.LC1@l(3)
.LEHB0:
	.cfi_offset 30, -8
	crxor 6,6,6
	bl _Z15Sys_DebugPrintfPKcz
.LEHE0:
.LVL42:
.LBB1762:
.LBB1763:
	.file 5 "d:/Data/Nintendo/DoomGX/src/framework/../idlib/../idlib/math/Vector.h"
	.loc 5 416 0
	li 0,0
.LBE1763:
.LBE1762:
	.loc 3 50 0
	li 9,0
	stw 9,0(31)
.LVL43:
.LBB1765:
.LBB1764:
	.loc 5 416 0
	stw 0,76(31)
	stw 0,72(31)
	stw 0,68(31)
.LBE1764:
.LBE1765:
	.loc 3 52 0
	stb 9,80(31)
.LBE1773:
	.loc 3 53 0
	lwz 0,20(1)
	lwz 30,8(1)
	mtlr 0
	lwz 31,12(1)
.LVL44:
	addi 1,1,16
	.cfi_remember_state
.LCFI25:
	.cfi_def_cfa_offset 0
	.cfi_restore 31
	.cfi_restore 30
	blr
.LVL45:
.L37:
.LCFI26:
	.cfi_restore_state
	mr 30,3
.LVL46:
.LBB1774:
.LBB1766:
.LBB1767:
.LBB1768:
	.loc 4 501 0
	addi 3,31,36
	bl _ZN5idStr8FreeDataEv
.LVL47:
.LBE1768:
.LBE1767:
.LBE1766:
.LBB1769:
.LBB1770:
.LBB1771:
	addi 3,31,4
	bl _ZN5idStr8FreeDataEv
	mr 3,30
.LEHB1:
	bl _Unwind_Resume
.LEHE1:
.LBE1771:
.LBE1770:
.LBE1769:
.LBE1774:
	.cfi_endproc
.LFE2539:
	.globl __gxx_personality_v0
	.section	.gcc_except_table,"a",@progbits
.LLSDA2539:
	.byte	0xff
	.byte	0xff
	.byte	0x1
	.uleb128 .LLSDACSE2539-.LLSDACSB2539
.LLSDACSB2539:
	.uleb128 .LEHB0-.LFB2539
	.uleb128 .LEHE0-.LEHB0
	.uleb128 .L37-.LFB2539
	.uleb128 0
	.uleb128 .LEHB1-.LFB2539
	.uleb128 .LEHE1-.LEHB1
	.uleb128 0
	.uleb128 0
.LLSDACSE2539:
	.section	".text"
	.size	_ZN10idAFVectorC2Ev, .-_ZN10idAFVectorC2Ev
	.align 2
	.globl _ZN10idAFVector5ParseER7idLexer
	.type	_ZN10idAFVector5ParseER7idLexer, @function
_ZN10idAFVector5ParseER7idLexer:
.LFB2541:
	.loc 3 60 0
	.cfi_startproc
	.cfi_personality 0,__gxx_personality_v0
	.cfi_lsda 0,.LLSDA2541
.LVL48:
	mflr 0
	stwu 1,-104(1)
.LCFI27:
	.cfi_def_cfa_offset 104
	.cfi_register 65, 0
.LVL49:
.LBB1825:
.LBB1826:
.LBB1827:
.LBB1828:
.LBB1829:
	.loc 4 357 0
	li 9,20
.LBE1829:
.LBE1828:
.LBE1827:
.LBE1826:
.LBE1825:
	.loc 3 60 0
	stw 30,96(1)
	mr 30,3
	.cfi_offset 30, -8
	stw 0,108(1)
.LBB1908:
	.loc 3 63 0
	mr 3,4
.LVL50:
.LBB1842:
.LBB1838:
.LBB1834:
.LBB1830:
	.loc 4 356 0
	li 0,0
	.cfi_offset 65, 4
.LBE1830:
.LBE1834:
.LBE1838:
.LBE1842:
.LBE1908:
	.loc 3 60 0
	stw 31,100(1)
.LBB1909:
.LBB1843:
.LBB1839:
.LBB1835:
.LBB1831:
	.loc 4 357 0
	stw 9,16(1)
.LBE1831:
.LBE1835:
.LBE1839:
.LBE1843:
.LBE1909:
	.loc 3 60 0
	mr 31,4
	.cfi_offset 31, -4
.LBB1910:
.LBB1844:
.LBB1840:
.LBB1836:
.LBB1832:
	.loc 4 358 0
	addi 9,1,20
.LBE1832:
.LBE1836:
.LBE1840:
.LBE1844:
	.loc 3 63 0
	addi 4,1,8
.LVL51:
.LBE1910:
	.loc 3 60 0
	stw 29,92(1)
.LBB1911:
.LBB1845:
.LBB1841:
.LBB1837:
.LBB1833:
	.loc 4 356 0
	stw 0,8(1)
	.loc 4 358 0
	stw 9,12(1)
	.loc 4 359 0
	stb 0,20(1)
.LEHB2:
.LBE1833:
.LBE1837:
.LBE1841:
.LBE1845:
	.loc 3 63 0
	.cfi_offset 29, -12
	bl _ZN7idLexer9ReadTokenEP7idToken
.LVL52:
	cmpwi 7,3,0
	.loc 3 64 0
	li 29,0
	.loc 3 63 0
	beq- 7,.L39
.LVL53:
.LBB1846:
.LBB1847:
	.loc 4 653 0
	lis 4,.LC2@ha
	lwz 3,12(1)
	la 4,.LC2@l(4)
	bl _ZN5idStr3CmpEPKcS1_
.LBE1847:
.LBE1846:
	.loc 3 67 0
	cmpwi 7,3,0
	beq- 7,.L81
	.loc 3 74 0
	li 0,0
	stb 0,80(30)
.L41:
.LVL54:
.LBB1848:
.LBB1849:
	.loc 4 653 0
	lis 29,.LC3@ha
	lwz 3,12(1)
	la 29,.LC3@l(29)
	mr 4,29
	bl _ZN5idStr3CmpEPKcS1_
.LBE1849:
.LBE1848:
	.loc 3 77 0
	cmpwi 0,3,0
	bne- 0,.L42
	.loc 3 78 0
	stw 3,0(30)
	.loc 3 79 0
	li 4,0
	mr 3,31
	bl _ZN7idLexer10ParseFloatEPb
	.loc 3 80 0
	lis 29,.LC4@ha
	.loc 3 79 0
	stfs 1,68(30)
	.loc 3 80 0
	la 29,.LC4@l(29)
	mr 3,31
	mr 4,29
	bl _ZN7idLexer17ExpectTokenStringEPKc
	.loc 3 81 0
	mr 3,31
	li 4,0
	bl _ZN7idLexer10ParseFloatEPb
	stfs 1,72(30)
	.loc 3 82 0
	mr 3,31
	mr 4,29
	bl _ZN7idLexer17ExpectTokenStringEPKc
	.loc 3 83 0
	mr 3,31
	li 4,0
	bl _ZN7idLexer10ParseFloatEPb
	.loc 3 84 0
	lis 4,.LC5@ha
	.loc 3 83 0
	stfs 1,76(30)
	.loc 3 84 0
	mr 3,31
	la 4,.LC5@l(4)
	bl _ZN7idLexer17ExpectTokenStringEPKc
.LEHE2:
	.loc 3 118 0
	li 29,1
.LVL55:
.L39:
.LBB1850:
.LBB1851:
.LBB1852:
.LBB1853:
.LBB1854:
	.loc 4 501 0
	addi 3,1,8
.LEHB3:
	bl _ZN5idStr8FreeDataEv
.LEHE3:
.LBE1854:
.LBE1853:
.LBE1852:
.LBE1851:
.LBE1850:
.LBE1911:
	.loc 3 119 0
	lwz 0,108(1)
	mr 3,29
	lwz 30,96(1)
.LVL56:
	mtlr 0
	lwz 29,92(1)
	lwz 31,100(1)
.LVL57:
	addi 1,1,104
	.cfi_remember_state
.LCFI28:
	.cfi_def_cfa_offset 0
	.cfi_restore 31
	.cfi_restore 30
	.cfi_restore 29
	blr
.LVL58:
.L42:
.LCFI29:
	.cfi_restore_state
.LBB1912:
.LBB1855:
.LBB1856:
	.loc 4 653 0
	lis 4,.LC6@ha
	lwz 3,12(1)
	la 4,.LC6@l(4)
.LEHB4:
	bl _ZN5idStr3CmpEPKcS1_
.LBE1856:
.LBE1855:
	.loc 3 86 0
	cmpwi 7,3,0
	beq- 7,.L82
.LVL59:
.LBB1857:
.LBB1858:
	.loc 4 653 0
	lis 4,.LC7@ha
	lwz 3,12(1)
	la 4,.LC7@l(4)
	bl _ZN5idStr3CmpEPKcS1_
.LBE1858:
.LBE1857:
	.loc 3 93 0
	cmpwi 7,3,0
	bne- 7,.L45
	.loc 3 94 0
	li 0,2
	.loc 3 95 0
	mr 3,31
	.loc 3 94 0
	stw 0,0(30)
	.loc 3 95 0
	mr 4,29
	bl _ZN7idLexer17ExpectTokenStringEPKc
.L80:
	.loc 3 106 0
	mr 3,31
	addi 4,1,8
	bl _ZN7idLexer9ReadTokenEP7idToken
.LVL60:
.LBB1859:
	.loc 3 1753 0
	lwz 29,8(1)
.LBB1860:
.LBB1861:
.LBB1862:
	.loc 4 350 0
	lwz 0,12(30)
.LBE1862:
.LBE1861:
	.loc 4 534 0
	addi 4,29,1
.LVL61:
.LBB1865:
.LBB1863:
	.loc 4 350 0
	cmpw 7,4,0
	bgt- 7,.L83
.LVL62:
.L49:
.LBE1863:
.LBE1865:
	.loc 4 535 0
	lwz 4,12(1)
	mr 5,29
	lwz 3,8(30)
	bl memcpy
	.loc 4 536 0
	lwz 9,8(30)
	li 0,0
.LBE1860:
.LBE1859:
	.loc 3 108 0
	lis 4,.LC4@ha
.LBB1870:
.LBB1867:
	.loc 4 536 0
	stbx 0,9,29
.LBE1867:
.LBE1870:
	.loc 3 108 0
	mr 3,31
.LBB1871:
.LBB1868:
	.loc 4 537 0
	stw 29,4(30)
.LBE1868:
.LBE1871:
	.loc 3 108 0
	la 4,.LC4@l(4)
	bl _ZN7idLexer17ExpectTokenStringEPKc
	.loc 3 109 0
	mr 3,31
	addi 4,1,8
	bl _ZN7idLexer9ReadTokenEP7idToken
.LVL63:
.LBB1872:
	.loc 3 1753 0
	lwz 29,8(1)
.LBB1873:
.LBB1874:
.LBB1875:
	.loc 4 350 0
	lwz 0,44(30)
.LBE1875:
.LBE1874:
	.loc 4 534 0
	addi 4,29,1
.LVL64:
.LBB1878:
.LBB1876:
	.loc 4 350 0
	cmpw 7,4,0
	bgt- 7,.L84
.LVL65:
.L50:
.LBE1876:
.LBE1878:
	.loc 4 535 0
	lwz 4,12(1)
	mr 5,29
	lwz 3,40(30)
	bl memcpy
	.loc 4 536 0
	lwz 9,40(30)
	li 0,0
.LBE1873:
.LBE1872:
	.loc 3 111 0
	lis 4,.LC5@ha
.LBB1883:
.LBB1880:
	.loc 4 536 0
	stbx 0,9,29
.LBE1880:
.LBE1883:
	.loc 3 111 0
	mr 3,31
.LBB1884:
.LBB1881:
	.loc 4 537 0
	stw 29,36(30)
.LBE1881:
.LBE1884:
	.loc 3 111 0
	la 4,.LC5@l(4)
	bl _ZN7idLexer17ExpectTokenStringEPKc
	.loc 3 118 0
	li 29,1
	b .L39
.LVL66:
.L81:
	.loc 3 68 0
	li 0,1
	.loc 3 69 0
	mr 3,31
	.loc 3 68 0
	stb 0,80(30)
	.loc 3 69 0
	addi 4,1,8
	bl _ZN7idLexer9ReadTokenEP7idToken
	cmpwi 7,3,0
	beq- 7,.L39
	b .L41
.LVL67:
.L82:
	.loc 3 87 0
	li 0,1
	.loc 3 88 0
	mr 3,31
	.loc 3 87 0
	stw 0,0(30)
	.loc 3 88 0
	mr 4,29
	bl _ZN7idLexer17ExpectTokenStringEPKc
	.loc 3 89 0
	mr 3,31
	addi 4,1,8
	bl _ZN7idLexer9ReadTokenEP7idToken
.LVL68:
.LBB1885:
	.loc 3 1753 0
	lwz 29,8(1)
.LBB1886:
.LBB1887:
.LBB1888:
	.loc 4 350 0
	lwz 0,12(30)
.LBE1888:
.LBE1887:
	.loc 4 534 0
	addi 4,29,1
.LVL69:
.LBB1891:
.LBB1889:
	.loc 4 350 0
	cmpw 7,4,0
	bgt- 7,.L85
.LVL70:
.L44:
.LBE1889:
.LBE1891:
	.loc 4 535 0
	lwz 4,12(1)
	mr 5,29
	lwz 3,8(30)
	bl memcpy
	.loc 4 536 0
	lwz 9,8(30)
	li 0,0
.LBE1886:
.LBE1885:
	.loc 3 91 0
	lis 4,.LC5@ha
.LBB1896:
.LBB1893:
	.loc 4 536 0
	stbx 0,9,29
.LBE1893:
.LBE1896:
	.loc 3 91 0
	mr 3,31
.LBB1897:
.LBB1894:
	.loc 4 537 0
	stw 29,4(30)
.LBE1894:
.LBE1897:
	.loc 3 91 0
	la 4,.LC5@l(4)
	bl _ZN7idLexer17ExpectTokenStringEPKc
	.loc 3 118 0
	li 29,1
	b .L39
.LVL71:
.L45:
.LBB1898:
.LBB1899:
	.loc 4 653 0
	lis 4,.LC8@ha
	lwz 3,12(1)
	la 4,.LC8@l(4)
	bl _ZN5idStr3CmpEPKcS1_
.LBE1899:
.LBE1898:
	.loc 3 103 0
	cmpwi 7,3,0
	beq- 7,.L86
	.loc 3 114 0
	lis 4,.LC9@ha
	lwz 5,12(1)
	mr 3,31
	la 4,.LC9@l(4)
	crxor 6,6,6
	bl _ZN7idLexer5ErrorEPKcz
	.loc 3 115 0
	li 29,0
	b .L39
.LVL72:
.L84:
.LBB1900:
.LBB1882:
.LBB1879:
.LBB1877:
	.loc 4 351 0
	addi 3,30,36
	li 5,0
	bl _ZN5idStr10ReAllocateEib
.LVL73:
	b .L50
.LVL74:
.L83:
.LBE1877:
.LBE1879:
.LBE1882:
.LBE1900:
.LBB1901:
.LBB1869:
.LBB1866:
.LBB1864:
	addi 3,30,4
	li 5,0
	bl _ZN5idStr10ReAllocateEib
.LVL75:
	b .L49
.LVL76:
.L86:
.LBE1864:
.LBE1866:
.LBE1869:
.LBE1901:
	.loc 3 104 0
	li 0,3
	.loc 3 105 0
	mr 3,31
	.loc 3 104 0
	stw 0,0(30)
	.loc 3 105 0
	mr 4,29
	bl _ZN7idLexer17ExpectTokenStringEPKc
	b .L80
.LVL77:
.L85:
.LBB1902:
.LBB1895:
.LBB1892:
.LBB1890:
	.loc 4 351 0
	addi 3,30,4
	li 5,0
	bl _ZN5idStr10ReAllocateEib
.LEHE4:
.LVL78:
	b .L44
.LVL79:
.L62:
	mr 31,3
.LVL80:
.LBE1890:
.LBE1892:
.LBE1895:
.LBE1902:
.LBB1903:
.LBB1904:
.LBB1905:
.LBB1906:
.LBB1907:
	.loc 4 501 0
	addi 3,1,8
	bl _ZN5idStr8FreeDataEv
	mr 3,31
.LEHB5:
	bl _Unwind_Resume
.LEHE5:
.LBE1907:
.LBE1906:
.LBE1905:
.LBE1904:
.LBE1903:
.LBE1912:
	.cfi_endproc
.LFE2541:
	.section	.gcc_except_table
.LLSDA2541:
	.byte	0xff
	.byte	0xff
	.byte	0x1
	.uleb128 .LLSDACSE2541-.LLSDACSB2541
.LLSDACSB2541:
	.uleb128 .LEHB2-.LFB2541
	.uleb128 .LEHE2-.LEHB2
	.uleb128 .L62-.LFB2541
	.uleb128 0
	.uleb128 .LEHB3-.LFB2541
	.uleb128 .LEHE3-.LEHB3
	.uleb128 0
	.uleb128 0
	.uleb128 .LEHB4-.LFB2541
	.uleb128 .LEHE4-.LEHB4
	.uleb128 .L62-.LFB2541
	.uleb128 0
	.uleb128 .LEHB5-.LFB2541
	.uleb128 .LEHE5-.LEHB5
	.uleb128 0
	.uleb128 0
.LLSDACSE2541:
	.section	".text"
	.size	_ZN10idAFVector5ParseER7idLexer, .-_ZN10idAFVector5ParseER7idLexer
	.align 2
	.globl _ZNK10idAFVector6FinishEPKcPFbPvPK10idJointMatS1_R6idVec3R6idMat3ES5_S2_
	.type	_ZNK10idAFVector6FinishEPKcPFbPvPK10idJointMatS1_R6idVec3R6idMat3ES5_S2_, @function
_ZNK10idAFVector6FinishEPKcPFbPvPK10idJointMatS1_R6idVec3R6idMat3ES5_S2_:
.LFB2542:
	.loc 3 126 0
	.cfi_startproc
.LVL81:
	mflr 0
	stwu 1,-96(1)
.LCFI30:
	.cfi_def_cfa_offset 96
	.cfi_register 65, 0
	stw 27,76(1)
	mr 27,4
	.cfi_offset 27, -20
	stw 28,80(1)
	mr 28,7
	.cfi_offset 28, -16
	stw 29,84(1)
	mr 29,6
	.cfi_offset 29, -12
	stw 30,88(1)
	mr 30,5
	.cfi_offset 30, -8
	stw 31,92(1)
	mr 31,3
	.cfi_offset 31, -4
	stw 0,100(1)
	stw 26,72(1)
.LBB1913:
	.loc 3 130 0
	lwz 0,0(3)
	.cfi_offset 26, -24
	.cfi_offset 65, 4
	cmpwi 7,0,1
	beq- 7,.L90
	ble- 7,.L101
	cmpwi 7,0,2
	beq- 7,.L91
	cmpwi 7,0,3
	beq- 7,.L102
.L88:
.LVL82:
.LBB1914:
.LBB1915:
	.loc 5 416 0
	li 0,0
	stw 0,76(31)
	stw 0,72(31)
	stw 0,68(31)
.LVL83:
.L89:
.LBE1915:
.LBE1914:
	.loc 3 171 0
	lbz 0,80(31)
	cmpwi 7,0,0
	beq- 7,.L100
.LVL84:
.LBB1916:
.LBB1917:
	.loc 5 420 0
	lfs 12,72(31)
	lfs 13,76(31)
	lfs 0,68(31)
	fneg 12,12
	fneg 13,13
.LVL85:
	fneg 0,0
.LBE1917:
.LBE1916:
.LBB1918:
.LBB1919:
	.loc 5 425 0
	stfs 12,72(31)
	.loc 5 426 0
	stfs 13,76(31)
	.loc 5 424 0
	stfs 0,68(31)
.LVL86:
.L100:
.LBE1919:
.LBE1918:
.LBE1913:
	.loc 3 176 0
	lwz 0,100(1)
	li 3,1
	lwz 26,72(1)
	mtlr 0
	lwz 27,76(1)
.LVL87:
	lwz 28,80(1)
.LVL88:
	lwz 29,84(1)
.LVL89:
	lwz 30,88(1)
.LVL90:
	lwz 31,92(1)
.LVL91:
	addi 1,1,96
	.cfi_remember_state
.LCFI31:
	.cfi_def_cfa_offset 0
	.cfi_restore 31
	.cfi_restore 30
	.cfi_restore 29
	.cfi_restore 28
	.cfi_restore 27
	.cfi_restore 26
	blr
.LVL92:
.L91:
.LCFI32:
	.cfi_restore_state
.LBB1944:
	.loc 3 142 0
	addi 26,1,32
	mr 3,7
.LVL93:
	mr 4,6
.LVL94:
	lwz 5,8(31)
.LVL95:
	addi 6,1,20
.LVL96:
	mr 7,26
.LVL97:
	mtctr 30
	bctrl
	cmpwi 7,3,0
	beq- 7,.L103
.L94:
.LVL98:
	.loc 3 146 0
	mr 3,28
	mr 4,29
	lwz 5,40(31)
	addi 6,1,8
	mr 7,26
	mtctr 30
	bctrl
	cmpwi 7,3,0
	beq- 7,.L95
	lfs 11,8(1)
	lfs 12,12(1)
	lfs 13,16(1)
.L96:
.LVL99:
.LBB1920:
.LBB1921:
	.loc 5 452 0
	lfs 0,24(1)
.LBE1921:
.LBE1920:
.LBB1923:
.LBB1924:
	.loc 5 439 0
	lis 9,.LC12@ha
.LBE1924:
.LBE1923:
.LBB1926:
.LBB1922:
	.loc 5 452 0
	fadds 12,12,0
.LVL100:
	lfs 0,28(1)
	fadds 13,13,0
.LVL101:
	lfs 0,20(1)
	fadds 11,11,0
.LVL102:
.LBE1922:
.LBE1926:
.LBB1927:
.LBB1925:
	.loc 5 439 0
	lfs 0,.LC12@l(9)
	fmuls 12,12,0
.LVL103:
	fmuls 13,13,0
.LVL104:
	fmuls 0,11,0
.LBE1925:
.LBE1927:
.LBB1928:
.LBB1929:
	.loc 5 425 0
	stfs 12,72(31)
	.loc 5 426 0
	stfs 13,76(31)
	.loc 5 424 0
	stfs 0,68(31)
	b .L89
.LVL105:
.L102:
.LBE1929:
.LBE1928:
	.loc 3 154 0
	addi 26,1,32
	mr 3,7
	mr 4,6
	lwz 5,8(31)
	addi 6,1,20
	mr 7,26
	mtctr 30
	bctrl
	cmpwi 7,3,0
	beq- 7,.L104
.L97:
.LVL106:
	.loc 3 158 0
	mr 3,28
	mr 4,29
	lwz 5,40(31)
	addi 6,1,8
	mr 7,26
	mtctr 30
	bctrl
	cmpwi 7,3,0
	beq- 7,.L98
	lfs 11,8(1)
	lfs 12,12(1)
	lfs 0,16(1)
.L99:
.LVL107:
.LBB1930:
.LBB1931:
	.loc 5 431 0
	lfs 13,24(1)
	fsubs 12,12,13
	lfs 13,28(1)
	fsubs 0,0,13
.LVL108:
	lfs 13,20(1)
.LBE1931:
.LBE1930:
.LBB1933:
.LBB1934:
	.loc 5 425 0
	stfs 12,72(31)
.LBE1934:
.LBE1933:
.LBB1936:
.LBB1932:
	.loc 5 431 0
	fsubs 13,11,13
.LBE1932:
.LBE1936:
.LBB1937:
.LBB1935:
	.loc 5 426 0
	stfs 0,76(31)
	.loc 5 424 0
	stfs 13,68(31)
	b .L89
.LVL109:
.L90:
.LBE1935:
.LBE1937:
	.loc 3 135 0
	mr 3,7
	mr 4,6
	lwz 5,8(31)
	addi 6,31,68
	addi 7,1,32
	mtctr 30
	bctrl
	cmpwi 7,3,0
	bne+ 7,.L89
	.loc 3 136 0
	lis 9,common@ha
	lis 4,.LC10@ha
	lwz 3,common@l(9)
	la 4,.LC10@l(4)
	lwz 5,8(31)
	mr 6,27
	lwz 9,0(3)
	lwz 0,80(9)
	mtctr 0
	crxor 6,6,6
	bctrl
.LBB1938:
.LBB1939:
	.loc 5 416 0
	li 0,0
	stw 0,76(31)
	stw 0,72(31)
	stw 0,68(31)
	b .L89
.LVL110:
.L98:
.LBE1939:
.LBE1938:
	.loc 3 159 0
	lis 9,common@ha
	lis 4,.LC13@ha
	lwz 3,common@l(9)
	la 4,.LC13@l(4)
	lwz 5,40(31)
	mr 6,27
	lwz 9,0(3)
	lwz 0,80(9)
	mtctr 0
	crxor 6,6,6
	bctrl
.LVL111:
	lis 9,.LC14@ha
	lfs 0,.LC14@l(9)
	fmr 12,0
	fmr 11,0
	b .L99
.LVL112:
.L104:
	.loc 3 155 0
	lis 9,common@ha
	lis 4,.LC13@ha
	lwz 3,common@l(9)
	la 4,.LC13@l(4)
	lwz 5,8(31)
	mr 6,27
	lwz 9,0(3)
	lwz 0,80(9)
	mtctr 0
	crxor 6,6,6
	bctrl
.LVL113:
.LBB1940:
.LBB1941:
	.loc 5 416 0
	li 0,0
	stw 0,28(1)
	stw 0,24(1)
	stw 0,20(1)
	b .L97
.LVL114:
.L95:
.LBE1941:
.LBE1940:
	.loc 3 147 0
	lis 9,common@ha
	lis 4,.LC11@ha
	lwz 3,common@l(9)
	la 4,.LC11@l(4)
	lwz 5,40(31)
	mr 6,27
	lwz 9,0(3)
	lwz 0,80(9)
	mtctr 0
	crxor 6,6,6
	bctrl
.LVL115:
	lis 9,.LC14@ha
	lfs 13,.LC14@l(9)
	fmr 12,13
	fmr 11,13
	b .L96
.LVL116:
.L103:
	.loc 3 143 0
	lis 9,common@ha
	lis 4,.LC11@ha
	lwz 3,common@l(9)
	la 4,.LC11@l(4)
	lwz 5,8(31)
	mr 6,27
	lwz 9,0(3)
	lwz 0,80(9)
	mtctr 0
	crxor 6,6,6
	bctrl
.LVL117:
.LBB1942:
.LBB1943:
	.loc 5 416 0
	li 0,0
	stw 0,28(1)
	stw 0,24(1)
	stw 0,20(1)
	b .L94
.LVL118:
.L101:
.LBE1943:
.LBE1942:
	.loc 3 130 0
	cmpwi 7,0,0
	beq- 7,.L89
	b .L88
.LBE1944:
	.cfi_endproc
.LFE2542:
	.size	_ZNK10idAFVector6FinishEPKcPFbPvPK10idJointMatS1_R6idVec3R6idMat3ES5_S2_, .-_ZNK10idAFVector6FinishEPKcPFbPvPK10idJointMatS1_R6idVec3R6idMat3ES5_S2_
	.align 2
	.globl _ZNK8idDeclAF6FinishEPFbPvPK10idJointMatPKcR6idVec3R6idMat3ES3_S0_
	.type	_ZNK8idDeclAF6FinishEPFbPvPK10idJointMatPKcR6idVec3R6idMat3ES3_S0_, @function
_ZNK8idDeclAF6FinishEPFbPvPK10idJointMatPKcR6idVec3R6idMat3ES3_S0_:
.LFB2584:
	.loc 3 1594 0
	.cfi_startproc
.LVL119:
	mflr 0
	stwu 1,-40(1)
.LCFI33:
	.cfi_def_cfa_offset 40
	.cfi_register 65, 0
	stw 26,16(1)
	mr 26,3
	.cfi_offset 26, -24
	stw 28,24(1)
	mr 28,6
	.cfi_offset 28, -16
	stw 29,28(1)
	mr 29,5
	.cfi_offset 29, -12
	stw 30,32(1)
	mr 30,4
	.cfi_offset 30, -8
	stw 31,36(1)
	stw 0,44(1)
	stw 25,12(1)
	stw 27,20(1)
.LBB1945:
.LBB1946:
	.loc 3 1753 0
	lwz 3,4(3)
.LVL120:
.LBE1946:
.LBB1949:
.LBB1950:
	.loc 2 140 0
	lwz 9,0(3)
	lwz 0,8(9)
	.cfi_offset 27, -20
	.cfi_offset 25, -28
	.cfi_offset 65, 4
	.cfi_offset 31, -4
	mtctr 0
	bctrl
.LVL121:
.LBE1950:
.LBE1949:
.LBB1952:
	.loc 3 1598 0
	lwz 0,144(26)
.LBE1952:
.LBB1955:
.LBB1951:
	.loc 2 140 0
	mr 31,3
.LVL122:
.LBE1951:
.LBE1955:
.LBB1956:
	.loc 3 1598 0
	cmpwi 7,0,0
	ble- 7,.L106
	li 25,0
.LVL123:
.L107:
.LBB1953:
	.loc 3 1599 0 discriminator 2
	lwz 9,156(26)
	slwi 0,25,2
	.loc 3 1600 0 discriminator 2
	mr 4,31
	mr 5,30
	.loc 3 1599 0 discriminator 2
	lwzx 27,9,0
.LVL124:
	.loc 3 1600 0 discriminator 2
	mr 6,29
	mr 7,28
.LBE1953:
	.loc 3 1598 0 discriminator 2
	addi 25,25,1
.LVL125:
.LBB1954:
	.loc 3 1600 0 discriminator 2
	addi 3,27,72
	bl _ZNK10idAFVector6FinishEPKcPFbPvPK10idJointMatS1_R6idVec3R6idMat3ES5_S2_
.LVL126:
	.loc 3 1601 0 discriminator 2
	mr 4,31
	mr 5,30
	mr 6,29
	mr 7,28
	addi 3,27,156
	bl _ZNK10idAFVector6FinishEPKcPFbPvPK10idJointMatS1_R6idVec3R6idMat3ES5_S2_
	.loc 3 1602 0 discriminator 2
	mr 4,31
	mr 5,30
	mr 6,29
	mr 7,28
	addi 3,27,252
	bl _ZNK10idAFVector6FinishEPKcPFbPvPK10idJointMatS1_R6idVec3R6idMat3ES5_S2_
	.loc 3 1603 0 discriminator 2
	mr 4,31
	mr 5,30
	mr 6,29
	mr 7,28
	addi 3,27,440
	bl _ZNK10idAFVector6FinishEPKcPFbPvPK10idJointMatS1_R6idVec3R6idMat3ES5_S2_
	.loc 3 1604 0 discriminator 2
	addi 3,27,524
	mr 4,31
	mr 5,30
	mr 6,29
	mr 7,28
	bl _ZNK10idAFVector6FinishEPKcPFbPvPK10idJointMatS1_R6idVec3R6idMat3ES5_S2_
.LVL127:
.LBE1954:
	.loc 3 1598 0 discriminator 2
	lwz 0,144(26)
	cmpw 7,0,25
	bgt+ 7,.L107
.LVL128:
.L106:
.LBE1956:
.LBB1957:
	.loc 3 1606 0 discriminator 1
	lwz 0,160(26)
	cmpwi 7,0,0
	ble- 7,.L105
	.loc 3 1606 0 is_stmt 0
	li 25,0
.LVL129:
.L109:
.LBB1947:
	.loc 3 1607 0 is_stmt 1 discriminator 2
	lwz 9,172(26)
	slwi 0,25,2
	.loc 3 1608 0 discriminator 2
	mr 4,31
	mr 5,30
	.loc 3 1607 0 discriminator 2
	lwzx 27,9,0
.LVL130:
	.loc 3 1608 0 discriminator 2
	mr 6,29
	mr 7,28
.LBE1947:
	.loc 3 1606 0 discriminator 2
	addi 25,25,1
.LVL131:
.LBB1948:
	.loc 3 1608 0 discriminator 2
	addi 3,27,128
	bl _ZNK10idAFVector6FinishEPKcPFbPvPK10idJointMatS1_R6idVec3R6idMat3ES5_S2_
.LVL132:
	.loc 3 1609 0 discriminator 2
	mr 4,31
	mr 5,30
	mr 6,29
	mr 7,28
	addi 3,27,212
	bl _ZNK10idAFVector6FinishEPKcPFbPvPK10idJointMatS1_R6idVec3R6idMat3ES5_S2_
	.loc 3 1610 0 discriminator 2
	mr 4,31
	mr 5,30
	mr 6,29
	mr 7,28
	addi 3,27,296
	bl _ZNK10idAFVector6FinishEPKcPFbPvPK10idJointMatS1_R6idVec3R6idMat3ES5_S2_
	.loc 3 1611 0 discriminator 2
	mr 4,31
	mr 5,30
	mr 6,29
	mr 7,28
	addi 3,27,380
	bl _ZNK10idAFVector6FinishEPKcPFbPvPK10idJointMatS1_R6idVec3R6idMat3ES5_S2_
	.loc 3 1612 0 discriminator 2
	mr 4,31
	mr 5,30
	mr 6,29
	mr 7,28
	addi 3,27,464
	bl _ZNK10idAFVector6FinishEPKcPFbPvPK10idJointMatS1_R6idVec3R6idMat3ES5_S2_
	.loc 3 1613 0 discriminator 2
	addi 3,27,552
	mr 4,31
	mr 5,30
	mr 6,29
	mr 7,28
	bl _ZNK10idAFVector6FinishEPKcPFbPvPK10idJointMatS1_R6idVec3R6idMat3ES5_S2_
.LVL133:
.LBE1948:
	.loc 3 1606 0 discriminator 2
	lwz 0,160(26)
	cmpw 7,0,25
	bgt+ 7,.L109
.LVL134:
.L105:
.LBE1957:
.LBE1945:
	.loc 3 1615 0
	lwz 0,44(1)
	lwz 25,12(1)
	mtlr 0
	lwz 26,16(1)
.LVL135:
	lwz 27,20(1)
	lwz 28,24(1)
.LVL136:
	lwz 29,28(1)
.LVL137:
	lwz 30,32(1)
.LVL138:
	lwz 31,36(1)
.LVL139:
	addi 1,1,40
.LCFI34:
	.cfi_def_cfa_offset 0
	.cfi_restore 31
	.cfi_restore 30
	.cfi_restore 29
	.cfi_restore 28
	.cfi_restore 27
	.cfi_restore 26
	.cfi_restore 25
	blr
	.cfi_endproc
.LFE2584:
	.size	_ZNK8idDeclAF6FinishEPFbPvPK10idJointMatPKcR6idVec3R6idMat3ES3_S0_, .-_ZNK8idDeclAF6FinishEPFbPvPK10idJointMatPKcR6idVec3R6idMat3ES3_S0_
	.align 2
	.globl _ZNK10idAFVector5WriteEP6idFile
	.type	_ZNK10idAFVector5WriteEP6idFile, @function
_ZNK10idAFVector5WriteEP6idFile:
.LFB2543:
	.loc 3 183 0
	.cfi_startproc
.LVL140:
	mflr 0
	stwu 1,-16(1)
.LCFI35:
	.cfi_def_cfa_offset 16
	.cfi_register 65, 0
	stw 30,8(1)
	mr 30,4
	.cfi_offset 30, -8
	stw 31,12(1)
	mr 31,3
	.cfi_offset 31, -4
	stw 0,20(1)
	.loc 3 185 0
	lbz 0,80(3)
	.cfi_offset 65, 4
	cmpwi 7,0,0
	bne- 7,.L120
	.loc 3 188 0
	lwz 0,0(31)
	cmpwi 7,0,1
	beq- 7,.L116
.LVL141:
.L122:
	ble- 7,.L121
	cmpwi 7,0,2
	beq- 7,.L117
	cmpwi 7,0,3
	bne+ 7,.L114
	.loc 3 202 0
	lwz 9,0(30)
	lis 4,.LC18@ha
	mr 3,30
	la 4,.LC18@l(4)
	lwz 0,64(9)
	lwz 5,8(31)
	lwz 6,40(31)
	mtctr 0
	crxor 6,6,6
	bctrl
.L114:
	.loc 3 210 0
	lwz 0,20(1)
	li 3,1
	lwz 30,8(1)
.LVL142:
	mtlr 0
	lwz 31,12(1)
.LVL143:
	addi 1,1,16
	.cfi_remember_state
.LCFI36:
	.cfi_def_cfa_offset 0
	.cfi_restore 31
	.cfi_restore 30
	blr
.LVL144:
.L117:
.LCFI37:
	.cfi_restore_state
	.loc 3 198 0
	lwz 9,0(30)
	lis 4,.LC17@ha
	mr 3,30
	lwz 5,8(31)
	lwz 0,64(9)
	la 4,.LC17@l(4)
	lwz 6,40(31)
	mtctr 0
	crxor 6,6,6
	bctrl
	.loc 3 210 0
	lwz 0,20(1)
	lwz 30,8(1)
.LVL145:
	li 3,1
	mtlr 0
	lwz 31,12(1)
.LVL146:
	addi 1,1,16
	.cfi_remember_state
	.cfi_restore 30
	.cfi_restore 31
.LCFI38:
	.cfi_def_cfa_offset 0
	blr
.LVL147:
.L120:
.LCFI39:
	.cfi_restore_state
	.loc 3 186 0
	lwz 9,0(4)
	mr 3,4
.LVL148:
	lis 4,.LC2@ha
.LVL149:
	lwz 0,64(9)
	la 4,.LC2@l(4)
	mtctr 0
	crxor 6,6,6
	bctrl
	.loc 3 188 0
	lwz 0,0(31)
	cmpwi 7,0,1
	bne+ 7,.L122
.L116:
	.loc 3 194 0
	lwz 9,0(30)
	lis 4,.LC16@ha
	mr 3,30
	lwz 5,8(31)
	lwz 0,64(9)
	la 4,.LC16@l(4)
	mtctr 0
	crxor 6,6,6
	bctrl
	.loc 3 210 0
	lwz 0,20(1)
	lwz 30,8(1)
.LVL150:
	li 3,1
	mtlr 0
	lwz 31,12(1)
.LVL151:
	addi 1,1,16
	.cfi_remember_state
	.cfi_restore 30
	.cfi_restore 31
.LCFI40:
	.cfi_def_cfa_offset 0
	blr
.LVL152:
.L121:
.LCFI41:
	.cfi_restore_state
	.loc 3 188 0
	cmpwi 7,0,0
	bne- 7,.L114
	.loc 3 190 0
	lwz 9,0(30)
	lis 4,.LC15@ha
	mr 3,30
	lfs 1,68(31)
	lwz 0,64(9)
	la 4,.LC15@l(4)
	lfs 2,72(31)
	lfs 3,76(31)
	mtctr 0
	creqv 6,6,6
	bctrl
	.loc 3 210 0
	lwz 0,20(1)
	lwz 30,8(1)
.LVL153:
	li 3,1
	mtlr 0
	lwz 31,12(1)
.LVL154:
	addi 1,1,16
	.cfi_restore 30
	.cfi_restore 31
.LCFI42:
	.cfi_def_cfa_offset 0
	blr
	.cfi_endproc
.LFE2543:
	.size	_ZNK10idAFVector5WriteEP6idFile, .-_ZNK10idAFVector5WriteEP6idFile
	.align 2
	.globl _ZN10idAFVector8ToStringER5idStri
	.type	_ZN10idAFVector8ToStringER5idStri, @function
_ZN10idAFVector8ToStringER5idStri:
.LFB2544:
	.loc 3 217 0
	.cfi_startproc
	.cfi_personality 0,__gxx_personality_v0
	.cfi_lsda 0,.LLSDA2544
.LVL155:
	mflr 0
	stwu 1,-184(1)
.LCFI43:
	.cfi_def_cfa_offset 184
	.cfi_register 65, 0
	mr 6,5
	stw 30,176(1)
	mr 30,3
	.cfi_offset 30, -8
	stw 31,180(1)
	mr 31,4
	.cfi_offset 31, -4
	stw 0,188(1)
	stw 29,172(1)
.LBB2005:
.LBB2006:
	.loc 3 219 0
	lwz 0,0(3)
	.cfi_offset 29, -12
	.cfi_offset 65, 4
	cmpwi 7,0,1
	beq- 7,.L126
	ble- 7,.L144
	cmpwi 7,0,2
	beq- 7,.L127
	cmpwi 7,0,3
	bne+ 7,.L124
.LBB2007:
	.loc 3 235 0
	lwz 5,8(3)
.LVL156:
	lwz 6,40(3)
.LVL157:
	mr 3,4
.LVL158:
	lis 4,.LC18@ha
.LVL159:
	la 4,.LC18@l(4)
.LEHB6:
	crxor 6,6,6
	bl _Z7sprintfR5idStrPKcz
.LVL160:
.L124:
.LBE2007:
.LBE2006:
	.loc 3 242 0
	lbz 0,80(30)
	cmpwi 7,0,0
	beq- 7,.L130
.LVL161:
.LBB2012:
.LBB2013:
.LBB2014:
	.loc 3 1753 0
	lwz 30,0(31)
.LVL162:
.LBE2014:
.LBB2029:
.LBB2030:
.LBB2031:
.LBB2032:
	.loc 4 357 0
	li 0,20
	stw 0,16(1)
	.loc 4 358 0
	addi 0,1,20
.LBE2032:
.LBE2031:
.LBE2030:
.LBE2029:
.LBB2041:
.LBB2015:
	.loc 4 762 0
	addi 4,30,2
.LBE2015:
.LBE2041:
.LBB2042:
.LBB2039:
.LBB2036:
.LBB2033:
	.loc 4 358 0
	stw 0,12(1)
.LVL163:
.LBE2033:
.LBE2036:
.LBE2039:
.LBE2042:
.LBB2043:
.LBB2026:
.LBB2016:
.LBB2017:
	.loc 4 350 0
	cmpwi 7,4,20
.LBE2017:
.LBE2016:
.LBE2026:
.LBE2043:
.LBB2044:
.LBB2040:
.LBB2037:
.LBB2034:
	.loc 4 415 0
	li 0,11520
.LBE2034:
.LBE2037:
	.loc 4 416 0
	mr 29,1
.LBB2038:
.LBB2035:
	.loc 4 415 0
	sth 0,20(1)
.LBE2035:
.LBE2038:
	.loc 4 416 0
	li 0,1
	stwu 0,8(29)
.LVL164:
.LBE2040:
.LBE2044:
.LBB2045:
.LBB2027:
.LBB2020:
.LBB2018:
	.loc 4 350 0
	mr 0,30
	bgt- 7,.L145
.LVL165:
.L131:
.LBE2018:
.LBE2020:
	.loc 4 763 0
	cmpwi 7,0,0
	ble- 7,.L132
	li 9,0
.LVL166:
.L133:
.LBB2021:
.LBB2022:
	.loc 4 522 0
	lwz 11,4(31)
.LBE2022:
.LBE2021:
	.loc 4 764 0
	lwz 10,12(1)
.LBB2024:
.LBB2023:
	.loc 4 522 0
	lbzx 0,11,9
.LBE2023:
.LBE2024:
	.loc 4 764 0
	lwz 11,8(1)
	add 11,10,11
	stbx 0,11,9
	.loc 4 763 0
	addi 9,9,1
.LVL167:
	lwz 0,0(31)
	cmpw 7,9,0
	blt+ 7,.L133
.LVL168:
.L132:
	.loc 4 767 0
	lwz 9,12(1)
	.loc 4 761 0
	addi 30,30,1
.LVL169:
	.loc 4 767 0
	li 0,0
	.loc 4 766 0
	stw 30,8(1)
	.loc 4 767 0
	stbx 0,9,30
.LVL170:
.LBE2027:
.LBE2045:
.LBE2013:
.LBE2012:
.LBB2052:
	.loc 3 1753 0
	lwz 30,8(1)
.LVL171:
.LBB2053:
.LBB2054:
.LBB2055:
	.loc 4 350 0
	lwz 0,8(31)
.LBE2055:
.LBE2054:
	.loc 4 534 0
	addi 4,30,1
.LVL172:
.LBB2058:
.LBB2056:
	.loc 4 350 0
	cmpw 7,4,0
	bgt- 7,.L146
.LVL173:
.L135:
.LBE2056:
.LBE2058:
	.loc 4 535 0
	lwz 3,4(31)
	mr 5,30
	lwz 4,12(1)
	bl memcpy
	.loc 4 536 0
	lwz 9,4(31)
	li 0,0
.LBE2053:
.LBE2052:
.LBB2062:
.LBB2063:
.LBB2064:
	.loc 4 501 0
	mr 3,29
.LBE2064:
.LBE2063:
.LBE2062:
.LBB2067:
.LBB2060:
	.loc 4 536 0
	stbx 0,9,30
	.loc 4 537 0
	stw 30,0(31)
.LVL174:
.LBE2060:
.LBE2067:
.LBB2068:
.LBB2066:
.LBB2065:
	.loc 4 501 0
	bl _ZN5idStr8FreeDataEv
.LVL175:
.L130:
.LBE2065:
.LBE2066:
.LBE2068:
.LBE2005:
	.loc 3 246 0
	lwz 0,188(1)
	lwz 3,4(31)
	mtlr 0
	lwz 29,172(1)
	lwz 30,176(1)
	lwz 31,180(1)
.LVL176:
	addi 1,1,184
	.cfi_remember_state
.LCFI44:
	.cfi_def_cfa_offset 0
	.cfi_restore 31
	.cfi_restore 30
	.cfi_restore 29
	blr
.LVL177:
.L127:
.LCFI45:
	.cfi_restore_state
.LBB2078:
.LBB2069:
.LBB2009:
	.loc 3 231 0
	lwz 5,8(3)
.LVL178:
	lwz 6,40(3)
.LVL179:
	mr 3,4
.LVL180:
	lis 4,.LC17@ha
.LVL181:
	la 4,.LC17@l(4)
	crxor 6,6,6
	bl _Z7sprintfR5idStrPKcz
.LEHE6:
	.loc 3 232 0
	b .L124
.LVL182:
.L146:
.LBE2009:
.LBE2069:
.LBB2070:
.LBB2061:
.LBB2059:
.LBB2057:
	.loc 4 351 0
	mr 3,31
	li 5,0
.LEHB7:
	bl _ZN5idStr10ReAllocateEib
.LEHE7:
.LVL183:
	b .L135
.LVL184:
.L126:
.LBE2057:
.LBE2059:
.LBE2061:
.LBE2070:
.LBB2071:
.LBB2010:
	.loc 3 227 0
	lwz 5,8(3)
.LVL185:
	mr 3,4
.LVL186:
	lis 4,.LC16@ha
	la 4,.LC16@l(4)
.LEHB8:
	crxor 6,6,6
	bl _Z7sprintfR5idStrPKcz
.LEHE8:
.LVL187:
	.loc 3 228 0
	b .L124
.LVL188:
.L145:
.LBE2010:
.LBE2071:
.LBB2072:
.LBB2050:
.LBB2046:
.LBB2028:
.LBB2025:
.LBB2019:
	.loc 4 351 0
	mr 3,29
	li 5,1
.LEHB9:
	bl _ZN5idStr10ReAllocateEib
.LEHE9:
.LVL189:
	lwz 0,0(31)
	b .L131
.LVL190:
.L144:
.LBE2019:
.LBE2025:
.LBE2028:
.LBE2046:
.LBE2050:
.LBE2072:
.LBB2073:
	.loc 3 219 0
	cmpwi 7,0,0
	bne- 7,.L124
.LBB2011:
.LBB2008:
	.loc 3 222 0
	lis 4,.LC19@ha
	addi 3,1,40
.LVL191:
	la 4,.LC19@l(4)
	mr 7,5
	crxor 6,6,6
	bl sprintf
.LVL192:
	.loc 3 223 0
	lfs 1,68(30)
	lfs 2,72(30)
	mr 3,31
	lfs 3,76(30)
	addi 4,1,40
.LEHB10:
	creqv 6,6,6
	bl _Z7sprintfR5idStrPKcz
.LEHE10:
	.loc 3 224 0
	b .L124
.LVL193:
.L142:
	mr 31,3
.LVL194:
.LBE2008:
.LBE2011:
.LBE2073:
.LBB2074:
.LBB2051:
.LBB2047:
.LBB2048:
.LBB2049:
	.loc 4 501 0
	mr 3,29
	bl _ZN5idStr8FreeDataEv
	mr 3,31
.LEHB11:
	bl _Unwind_Resume
.LEHE11:
.LVL195:
.L141:
	mr 31,3
.LVL196:
.LBE2049:
.LBE2048:
.LBE2047:
.LBE2051:
.LBE2074:
.LBB2075:
.LBB2076:
.LBB2077:
	mr 3,29
	bl _ZN5idStr8FreeDataEv
	mr 3,31
.LEHB12:
	bl _Unwind_Resume
.LEHE12:
.LBE2077:
.LBE2076:
.LBE2075:
.LBE2078:
	.cfi_endproc
.LFE2544:
	.section	.gcc_except_table
.LLSDA2544:
	.byte	0xff
	.byte	0xff
	.byte	0x1
	.uleb128 .LLSDACSE2544-.LLSDACSB2544
.LLSDACSB2544:
	.uleb128 .LEHB6-.LFB2544
	.uleb128 .LEHE6-.LEHB6
	.uleb128 0
	.uleb128 0
	.uleb128 .LEHB7-.LFB2544
	.uleb128 .LEHE7-.LEHB7
	.uleb128 .L141-.LFB2544
	.uleb128 0
	.uleb128 .LEHB8-.LFB2544
	.uleb128 .LEHE8-.LEHB8
	.uleb128 0
	.uleb128 0
	.uleb128 .LEHB9-.LFB2544
	.uleb128 .LEHE9-.LEHB9
	.uleb128 .L142-.LFB2544
	.uleb128 0
	.uleb128 .LEHB10-.LFB2544
	.uleb128 .LEHE10-.LEHB10
	.uleb128 0
	.uleb128 0
	.uleb128 .LEHB11-.LFB2544
	.uleb128 .LEHE11-.LEHB11
	.uleb128 0
	.uleb128 0
	.uleb128 .LEHB12-.LFB2544
	.uleb128 .LEHE12-.LEHB12
	.uleb128 0
	.uleb128 0
.LLSDACSE2544:
	.section	".text"
	.size	_ZN10idAFVector8ToStringER5idStri, .-_ZN10idAFVector8ToStringER5idStri
	.align 2
	.globl _ZN13idDeclAF_Body10SetDefaultEPK8idDeclAF
	.type	_ZN13idDeclAF_Body10SetDefaultEPK8idDeclAF, @function
_ZN13idDeclAF_Body10SetDefaultEPK8idDeclAF:
.LFB2545:
	.loc 3 253 0
	.cfi_startproc
.LVL197:
	stwu 1,-16(1)
.LCFI46:
	.cfi_def_cfa_offset 16
	mflr 0
	stw 30,8(1)
	mr 30,4
	.cfi_offset 30, -8
	.cfi_register 65, 0
	.loc 3 254 0
	lis 4,.LC20@ha
.LVL198:
	.loc 3 253 0
	stw 0,20(1)
	.loc 3 254 0
	la 4,.LC20@l(4)
	.loc 3 253 0
	stw 31,12(1)
	.loc 3 253 0
	mr 31,3
	.cfi_offset 31, -4
	.cfi_offset 65, 4
	.loc 3 254 0
	bl _ZN5idStraSEPKc
.LVL199:
	.loc 3 257 0
	lis 9,.LC21@ha
.LBB2079:
.LBB2080:
	.loc 5 416 0
	li 0,0
.LBE2080:
.LBE2079:
	.loc 3 257 0
	lwz 11,.LC21@l(9)
	.loc 3 259 0
	lis 9,.LC22@ha
	lwz 9,.LC22@l(9)
	.loc 3 256 0
	li 10,0
.LBB2083:
.LBB2081:
	.loc 5 416 0
	stw 0,328(31)
.LBE2081:
.LBE2083:
	.loc 3 255 0
	li 8,1
	.loc 3 259 0
	stw 9,232(31)
.LBB2084:
.LBB2085:
.LBB2086:
	.file 6 "d:/Data/Nintendo/DoomGX/src/framework/../idlib/../idlib/math/Matrix.h"
	.loc 6 333 0
	addi 7,31,360
.LBE2086:
.LBE2085:
.LBE2084:
	.loc 3 259 0
	stw 9,228(31)
	stw 9,224(31)
	.loc 3 260 0
	li 9,3
	stw 9,240(31)
	.loc 3 263 0
	lis 9,.LC23@ha
.LBB2095:
.LBB2082:
	.loc 5 416 0
	stw 0,324(31)
	stw 0,320(31)
.LBE2082:
.LBE2095:
.LBB2096:
.LBB2097:
	.file 7 "d:/Data/Nintendo/DoomGX/src/framework/../idlib/../idlib/math/Angles.h"
	.loc 7 127 0
	stw 0,344(31)
	stw 0,340(31)
	stw 0,336(31)
.LBE2097:
.LBE2096:
	.loc 3 263 0
	lwz 0,.LC23@l(9)
	.loc 3 255 0
	stw 8,68(31)
	lis 8,mat3_identity@ha
	.loc 3 256 0
	stw 10,72(31)
.LVL200:
	la 8,mat3_identity@l(8)
	.loc 3 257 0
	stw 11,148(31)
	stw 11,144(31)
	stw 11,140(31)
	.loc 3 258 0
	stw 10,156(31)
.LVL201:
	.loc 3 263 0
	stw 0,248(31)
.LVL202:
.L148:
.LBB2098:
.LBB2094:
.LBB2093:
.LBB2087:
.LBB2088:
	.loc 5 424 0
	mr 11,8
	mr 9,7
	lwzux 0,11,10
.LBE2088:
.LBE2087:
	.loc 6 333 0
	cmpwi 7,10,24
.LBB2091:
.LBB2089:
	.loc 5 424 0
	stwux 0,9,10
.LBE2089:
.LBE2091:
	.loc 6 333 0
	addi 10,10,12
.LBB2092:
.LBB2090:
	.loc 5 425 0
	lwz 0,4(11)
	stw 0,4(9)
	.loc 5 426 0
	lwz 0,8(11)
	stw 0,8(9)
.LBE2090:
.LBE2092:
	.loc 6 333 0
	bne+ 7,.L148
.LBE2093:
.LBE2094:
.LBE2098:
	.loc 3 265 0
	lwz 9,76(30)
.LBB2099:
.LBB2100:
	.loc 5 416 0
	li 0,0
.LBE2100:
.LBE2099:
	.loc 3 273 0
	lis 4,.LC24@ha
	addi 3,31,32
	.loc 3 265 0
	stw 9,396(31)
	.loc 3 273 0
	la 4,.LC24@l(4)
	.loc 3 266 0
	lwz 9,80(30)
	stw 9,400(31)
	.loc 3 267 0
	lwz 9,84(30)
	stw 9,404(31)
	.loc 3 268 0
	lwz 9,132(30)
	stw 9,348(31)
	.loc 3 269 0
	lwz 9,136(30)
	stw 9,352(31)
	.loc 3 270 0
	lbz 9,140(30)
.LBB2103:
.LBB2101:
	.loc 5 416 0
	stw 0,516(31)
.LBE2101:
.LBE2103:
	.loc 3 270 0
	stb 9,356(31)
.LVL203:
.LBB2104:
.LBB2102:
	.loc 5 416 0
	stw 0,512(31)
	stw 0,508(31)
.LVL204:
.LBE2102:
.LBE2104:
.LBB2105:
.LBB2106:
	stw 0,600(31)
	stw 0,596(31)
	stw 0,592(31)
.LBE2106:
.LBE2105:
	.loc 3 273 0
	bl _ZN5idStraSEPKc
.LVL205:
	.loc 3 274 0
	li 0,0
	stw 0,64(31)
	.loc 3 275 0
	lis 4,.LC25@ha
	addi 3,31,408
	la 4,.LC25@l(4)
	bl _ZN5idStraSEPKc
	.loc 3 276 0
	lwz 0,20(1)
	lwz 30,8(1)
.LVL206:
	mtlr 0
	lwz 31,12(1)
.LVL207:
	addi 1,1,16
.LCFI47:
	.cfi_def_cfa_offset 0
	.cfi_restore 31
	.cfi_restore 30
	blr
	.cfi_endproc
.LFE2545:
	.size	_ZN13idDeclAF_Body10SetDefaultEPK8idDeclAF, .-_ZN13idDeclAF_Body10SetDefaultEPK8idDeclAF
	.align 2
	.globl _ZN19idDeclAF_Constraint10SetDefaultEPK8idDeclAF
	.type	_ZN19idDeclAF_Constraint10SetDefaultEPK8idDeclAF, @function
_ZN19idDeclAF_Constraint10SetDefaultEPK8idDeclAF:
.LFB2546:
	.loc 3 283 0
	.cfi_startproc
.LVL208:
	stwu 1,-24(1)
.LCFI48:
	.cfi_def_cfa_offset 24
	mflr 0
	stw 30,16(1)
	mr 30,4
	.cfi_offset 30, -8
	.cfi_register 65, 0
	.loc 3 284 0
	lis 4,.LC20@ha
.LVL209:
	.loc 3 283 0
	stw 0,28(1)
	.loc 3 284 0
	la 4,.LC20@l(4)
	.loc 3 283 0
	stw 31,20(1)
	stw 28,8(1)
	mr 31,3
	.cfi_offset 28, -16
	.cfi_offset 31, -4
	.cfi_offset 65, 4
	stw 29,12(1)
	.loc 3 284 0
	.cfi_offset 29, -12
	bl _ZN5idStraSEPKc
.LVL210:
	.loc 3 285 0
	li 0,3
	stw 0,96(31)
	.loc 3 286 0
	lwz 0,144(30)
	cmpwi 7,0,0
	bne- 7,.L154
	.loc 3 290 0
	lis 28,.LC26@ha
	addi 3,31,32
	la 28,.LC26@l(28)
	mr 4,28
	bl _ZN5idStraSEPKc
.L153:
	.loc 3 292 0
	addi 3,31,64
	mr 4,28
	bl _ZN5idStraSEPKc
.LBB2128:
.LBB2129:
	.loc 5 410 0
	lis 9,.LC27@ha
	lwz 11,.LC27@l(9)
.LBE2129:
.LBE2128:
.LBB2132:
.LBB2133:
	.loc 5 412 0
	lis 9,.LC28@ha
.LBE2133:
.LBE2132:
	.loc 3 293 0
	lwz 10,88(30)
.LBB2136:
.LBB2137:
	.loc 5 416 0
	li 0,0
.LBE2137:
.LBE2136:
.LBB2139:
.LBB2134:
	.loc 5 412 0
	lwz 9,.LC28@l(9)
.LBE2134:
.LBE2139:
.LBB2140:
.LBB2130:
	.loc 5 410 0
	stw 11,532(31)
.LBE2130:
.LBE2140:
.LBB2141:
.LBB2142:
	.loc 5 412 0
	stw 11,456(31)
.LBE2142:
.LBE2141:
	.loc 3 299 0
	li 11,-1
	.loc 3 293 0
	stw 10,100(31)
.LVL211:
.LBB2144:
.LBB2138:
	.loc 5 416 0
	stw 0,204(31)
	stw 0,200(31)
	stw 0,196(31)
.LVL212:
.LBE2138:
.LBE2144:
.LBB2145:
.LBB2146:
	stw 0,288(31)
	stw 0,284(31)
	stw 0,280(31)
.LVL213:
.LBE2146:
.LBE2145:
.LBB2147:
.LBB2131:
	.loc 5 411 0
	stw 0,536(31)
	.loc 5 412 0
	stw 0,540(31)
.LVL214:
.LBE2131:
.LBE2147:
.LBB2148:
.LBB2135:
	.loc 5 410 0
	stw 0,364(31)
	.loc 5 411 0
	stw 0,368(31)
	.loc 5 412 0
	stw 9,372(31)
.LVL215:
.LBE2135:
.LBE2148:
.LBB2149:
.LBB2143:
	.loc 5 410 0
	stw 0,448(31)
	.loc 5 411 0
	stw 0,452(31)
.LBE2143:
.LBE2149:
	.loc 3 299 0
	stw 11,548(31)
	.loc 3 302 0
	stw 0,644(31)
	stw 0,640(31)
	stw 0,636(31)
.LVL216:
.LBB2150:
.LBB2151:
	.loc 5 410 0
	stw 0,620(31)
	.loc 5 411 0
	stw 0,624(31)
	.loc 5 412 0
	stw 9,628(31)
.LBE2151:
.LBE2150:
	.loc 3 304 0
	lwz 0,28(1)
	lwz 28,8(1)
	mtlr 0
	lwz 29,12(1)
	lwz 30,16(1)
.LVL217:
	lwz 31,20(1)
.LVL218:
	addi 1,1,24
	.cfi_remember_state
.LCFI49:
	.cfi_def_cfa_offset 0
	.cfi_restore 31
	.cfi_restore 30
	.cfi_restore 29
	.cfi_restore 28
	blr
.LVL219:
.L154:
.LCFI50:
	.cfi_restore_state
	.loc 3 287 0
	lwz 9,156(30)
.LBB2152:
.LBB2153:
.LBB2154:
.LBB2155:
	.loc 4 350 0
	lwz 0,40(31)
.LBE2155:
.LBE2154:
.LBE2153:
.LBE2152:
	.loc 3 287 0
	lwz 28,0(9)
.LVL220:
.LBB2159:
	.loc 3 1753 0
	lwz 29,0(28)
.LBB2158:
	.loc 4 534 0
	addi 4,29,1
.LVL221:
.LBB2157:
.LBB2156:
	.loc 4 350 0
	cmpw 7,4,0
	ble+ 7,.L152
	.loc 4 351 0
	addi 3,31,32
	li 5,0
	bl _ZN5idStr10ReAllocateEib
.LVL222:
.L152:
.LBE2156:
.LBE2157:
	.loc 4 535 0
	lwz 4,4(28)
	mr 5,29
	lwz 3,36(31)
	lis 28,.LC26@ha
.LVL223:
	la 28,.LC26@l(28)
	bl memcpy
	.loc 4 536 0
	lwz 9,36(31)
	li 0,0
	stbx 0,9,29
	.loc 4 537 0
	stw 29,32(31)
	b .L153
.LBE2158:
.LBE2159:
	.cfi_endproc
.LFE2546:
	.size	_ZN19idDeclAF_Constraint10SetDefaultEPK8idDeclAF, .-_ZN19idDeclAF_Constraint10SetDefaultEPK8idDeclAF
	.align 2
	.globl _ZNK8idDeclAF10WriteFixedEP6idFileRK19idDeclAF_Constraint
	.type	_ZNK8idDeclAF10WriteFixedEP6idFileRK19idDeclAF_Constraint, @function
_ZNK8idDeclAF10WriteFixedEP6idFileRK19idDeclAF_Constraint:
.LFB2548:
	.loc 3 410 0
	.cfi_startproc
.LVL224:
	mflr 0
	stwu 1,-16(1)
.LCFI51:
	.cfi_def_cfa_offset 16
	.cfi_register 65, 0
	stw 30,8(1)
	mr 30,5
	.cfi_offset 30, -8
	stw 31,12(1)
	mr 31,4
	.cfi_offset 31, -4
	stw 0,20(1)
	.loc 3 411 0
	mr 3,31
.LVL225:
	lwz 9,0(4)
	lis 4,.LC29@ha
.LVL226:
	la 4,.LC29@l(4)
	lwz 5,4(5)
.LVL227:
	lwz 0,64(9)
	.cfi_offset 65, 4
	mtctr 0
	crxor 6,6,6
	bctrl
.LVL228:
	.loc 3 412 0
	lwz 9,0(31)
	lis 4,.LC30@ha
	lwz 5,36(30)
	lwz 0,64(9)
	la 4,.LC30@l(4)
	mr 3,31
	mtctr 0
	crxor 6,6,6
	bctrl
	.loc 3 413 0
	lwz 9,0(31)
	lis 4,.LC31@ha
	lwz 5,68(30)
	lwz 0,64(9)
	la 4,.LC31@l(4)
	mr 3,31
	mtctr 0
	crxor 6,6,6
	bctrl
	.loc 3 414 0
	lwz 9,0(31)
	lis 4,.LC32@ha
	mr 3,31
	lwz 0,64(9)
	la 4,.LC32@l(4)
	mtctr 0
	crxor 6,6,6
	bctrl
	.loc 3 416 0
	lwz 0,20(1)
	lwz 30,8(1)
.LVL229:
	li 3,1
	mtlr 0
	lwz 31,12(1)
.LVL230:
	addi 1,1,16
.LCFI52:
	.cfi_def_cfa_offset 0
	.cfi_restore 31
	.cfi_restore 30
	blr
	.cfi_endproc
.LFE2548:
	.size	_ZNK8idDeclAF10WriteFixedEP6idFileRK19idDeclAF_Constraint, .-_ZNK8idDeclAF10WriteFixedEP6idFileRK19idDeclAF_Constraint
	.align 2
	.globl _ZNK8idDeclAF23WriteBallAndSocketJointEP6idFileRK19idDeclAF_Constraint
	.type	_ZNK8idDeclAF23WriteBallAndSocketJointEP6idFileRK19idDeclAF_Constraint, @function
_ZNK8idDeclAF23WriteBallAndSocketJointEP6idFileRK19idDeclAF_Constraint:
.LFB2549:
	.loc 3 423 0
	.cfi_startproc
.LVL231:
	mflr 0
	stwu 1,-24(1)
.LCFI53:
	.cfi_def_cfa_offset 24
	.cfi_register 65, 0
	stw 29,12(1)
	.loc 3 429 0
	lis 29,.LC35@ha
	.cfi_offset 29, -12
	.loc 3 423 0
	stw 30,16(1)
	mr 30,5
	.cfi_offset 30, -8
	stw 31,20(1)
	mr 31,4
	.cfi_offset 31, -4
	stw 0,28(1)
	.loc 3 424 0
	mr 3,31
.LVL232:
	.loc 3 429 0
	la 29,.LC35@l(29)
	.loc 3 424 0
	lwz 9,0(4)
	lis 4,.LC33@ha
.LVL233:
	la 4,.LC33@l(4)
	lwz 5,4(5)
.LVL234:
	lwz 0,64(9)
	.cfi_offset 65, 4
	mtctr 0
	crxor 6,6,6
	bctrl
.LVL235:
	.loc 3 425 0
	lwz 9,0(31)
	lis 4,.LC30@ha
	lwz 5,36(30)
	lwz 0,64(9)
	la 4,.LC30@l(4)
	mr 3,31
	mtctr 0
	crxor 6,6,6
	bctrl
	.loc 3 426 0
	lwz 9,0(31)
	lis 4,.LC31@ha
	lwz 5,68(30)
	lwz 0,64(9)
	la 4,.LC31@l(4)
	mr 3,31
	mtctr 0
	crxor 6,6,6
	bctrl
	.loc 3 427 0
	lwz 9,0(31)
	lis 4,.LC34@ha
	mr 3,31
	lwz 0,64(9)
	la 4,.LC34@l(4)
	mtctr 0
	crxor 6,6,6
	bctrl
	.loc 3 428 0
	mr 4,31
	addi 3,30,128
	bl _ZNK10idAFVector5WriteEP6idFile
	.loc 3 429 0
	lwz 9,0(31)
	mr 4,29
	mr 3,31
	lwz 0,64(9)
	mtctr 0
	crxor 6,6,6
	bctrl
	.loc 3 430 0
	lwz 9,0(31)
	lis 4,.LC36@ha
	mr 3,31
	lwz 0,64(9)
	la 4,.LC36@l(4)
	lfs 1,100(30)
	mtctr 0
	creqv 6,6,6
	bctrl
	.loc 3 431 0
	lwz 0,548(30)
	cmpwi 7,0,0
	beq- 7,.L160
	.loc 3 438 0
	cmpwi 7,0,1
	beq- 7,.L161
	.loc 3 445 0
	lwz 9,0(31)
	lis 4,.LC32@ha
	mr 3,31
	la 4,.LC32@l(4)
	lwz 0,64(9)
	mtctr 0
	crxor 6,6,6
	bctrl
	.loc 3 447 0
	lwz 0,28(1)
	lwz 29,12(1)
	li 3,1
	mtlr 0
	lwz 30,16(1)
.LVL236:
	lwz 31,20(1)
.LVL237:
	addi 1,1,24
	.cfi_remember_state
.LCFI54:
	.cfi_def_cfa_offset 0
	.cfi_restore 31
	.cfi_restore 30
	.cfi_restore 29
	blr
.LVL238:
.L160:
.LCFI55:
	.cfi_restore_state
	.loc 3 432 0
	lwz 9,0(31)
	lis 4,.LC37@ha
	la 4,.LC37@l(4)
	mr 3,31
	lwz 0,64(9)
	mtctr 0
	crxor 6,6,6
	bctrl
	.loc 3 433 0
	mr 4,31
	addi 3,30,552
	bl _ZNK10idAFVector5WriteEP6idFile
	.loc 3 434 0
	lwz 9,0(31)
	lis 4,.LC38@ha
	lfs 1,636(30)
	lwz 0,64(9)
	la 4,.LC38@l(4)
	mr 3,31
	mtctr 0
	creqv 6,6,6
	bctrl
.L159:
	.loc 3 442 0
	mr 4,31
	addi 3,30,296
	bl _ZNK10idAFVector5WriteEP6idFile
	.loc 3 443 0
	lwz 9,0(31)
	mr 4,29
	mr 3,31
	lwz 0,64(9)
	mtctr 0
	crxor 6,6,6
	bctrl
	.loc 3 445 0
	lwz 9,0(31)
	lis 4,.LC32@ha
	mr 3,31
	lwz 0,64(9)
	la 4,.LC32@l(4)
	mtctr 0
	crxor 6,6,6
	bctrl
	.loc 3 447 0
	lwz 0,28(1)
	lwz 29,12(1)
	li 3,1
	mtlr 0
	lwz 30,16(1)
.LVL239:
	lwz 31,20(1)
.LVL240:
	addi 1,1,24
	.cfi_remember_state
	.cfi_restore 29
	.cfi_restore 30
	.cfi_restore 31
.LCFI56:
	.cfi_def_cfa_offset 0
	blr
.LVL241:
.L161:
.LCFI57:
	.cfi_restore_state
	.loc 3 439 0
	lwz 9,0(31)
	lis 4,.LC39@ha
	la 4,.LC39@l(4)
	mr 3,31
	lwz 0,64(9)
	mtctr 0
	crxor 6,6,6
	bctrl
	.loc 3 440 0
	mr 4,31
	addi 3,30,552
	bl _ZNK10idAFVector5WriteEP6idFile
	.loc 3 441 0
	lwz 9,0(31)
	lis 4,.LC40@ha
	lfs 1,636(30)
	lwz 0,64(9)
	la 4,.LC40@l(4)
	lfs 2,640(30)
	mr 3,31
	lfs 3,644(30)
	mtctr 0
	creqv 6,6,6
	bctrl
	b .L159
	.cfi_endproc
.LFE2549:
	.size	_ZNK8idDeclAF23WriteBallAndSocketJointEP6idFileRK19idDeclAF_Constraint, .-_ZNK8idDeclAF23WriteBallAndSocketJointEP6idFileRK19idDeclAF_Constraint
	.align 2
	.globl _ZNK8idDeclAF19WriteUniversalJointEP6idFileRK19idDeclAF_Constraint
	.type	_ZNK8idDeclAF19WriteUniversalJointEP6idFileRK19idDeclAF_Constraint, @function
_ZNK8idDeclAF19WriteUniversalJointEP6idFileRK19idDeclAF_Constraint:
.LFB2550:
	.loc 3 454 0
	.cfi_startproc
.LVL242:
	mflr 0
	stwu 1,-24(1)
.LCFI58:
	.cfi_def_cfa_offset 24
	.cfi_register 65, 0
	stw 29,12(1)
	.loc 3 460 0
	lis 29,.LC35@ha
	.cfi_offset 29, -12
	.loc 3 454 0
	stw 30,16(1)
	mr 30,5
	.cfi_offset 30, -8
	stw 31,20(1)
	mr 31,4
	.cfi_offset 31, -4
	stw 0,28(1)
	.loc 3 455 0
	mr 3,31
.LVL243:
	.loc 3 460 0
	la 29,.LC35@l(29)
	.loc 3 455 0
	lwz 9,0(4)
	lis 4,.LC41@ha
.LVL244:
	la 4,.LC41@l(4)
	lwz 5,4(5)
.LVL245:
	lwz 0,64(9)
	.cfi_offset 65, 4
	mtctr 0
	crxor 6,6,6
	bctrl
.LVL246:
	.loc 3 456 0
	lwz 9,0(31)
	lis 4,.LC30@ha
	lwz 5,36(30)
	lwz 0,64(9)
	la 4,.LC30@l(4)
	mr 3,31
	mtctr 0
	crxor 6,6,6
	bctrl
	.loc 3 457 0
	lwz 9,0(31)
	lis 4,.LC31@ha
	lwz 5,68(30)
	lwz 0,64(9)
	la 4,.LC31@l(4)
	mr 3,31
	mtctr 0
	crxor 6,6,6
	bctrl
	.loc 3 458 0
	lwz 9,0(31)
	lis 4,.LC34@ha
	mr 3,31
	lwz 0,64(9)
	la 4,.LC34@l(4)
	mtctr 0
	crxor 6,6,6
	bctrl
	.loc 3 459 0
	mr 4,31
	addi 3,30,128
	bl _ZNK10idAFVector5WriteEP6idFile
	.loc 3 460 0
	lwz 9,0(31)
	mr 4,29
	mr 3,31
	lwz 0,64(9)
	mtctr 0
	crxor 6,6,6
	bctrl
	.loc 3 461 0
	lwz 9,0(31)
	lis 4,.LC42@ha
	mr 3,31
	lwz 0,64(9)
	la 4,.LC42@l(4)
	mtctr 0
	crxor 6,6,6
	bctrl
	.loc 3 462 0
	mr 4,31
	addi 3,30,296
	bl _ZNK10idAFVector5WriteEP6idFile
	.loc 3 463 0
	lwz 9,0(31)
	lis 4,.LC43@ha
	mr 3,31
	lwz 0,64(9)
	la 4,.LC43@l(4)
	mtctr 0
	crxor 6,6,6
	bctrl
	.loc 3 464 0
	mr 4,31
	addi 3,30,380
	bl _ZNK10idAFVector5WriteEP6idFile
	.loc 3 465 0
	lwz 9,0(31)
	mr 4,29
	mr 3,31
	lwz 0,64(9)
	mtctr 0
	crxor 6,6,6
	bctrl
	.loc 3 466 0
	lwz 9,0(31)
	lis 4,.LC36@ha
	mr 3,31
	lwz 0,64(9)
	la 4,.LC36@l(4)
	lfs 1,100(30)
	mtctr 0
	creqv 6,6,6
	bctrl
	.loc 3 467 0
	lwz 0,548(30)
	cmpwi 7,0,0
	beq- 7,.L165
	.loc 3 472 0
	cmpwi 7,0,1
	beq- 7,.L166
	.loc 3 477 0
	lwz 9,0(31)
	lis 4,.LC32@ha
	mr 3,31
	la 4,.LC32@l(4)
	lwz 0,64(9)
	mtctr 0
	crxor 6,6,6
	bctrl
	.loc 3 479 0
	lwz 0,28(1)
	lwz 29,12(1)
	li 3,1
	mtlr 0
	lwz 30,16(1)
.LVL247:
	lwz 31,20(1)
.LVL248:
	addi 1,1,24
	.cfi_remember_state
.LCFI59:
	.cfi_def_cfa_offset 0
	.cfi_restore 31
	.cfi_restore 30
	.cfi_restore 29
	blr
.LVL249:
.L165:
.LCFI60:
	.cfi_restore_state
	.loc 3 468 0
	lwz 9,0(31)
	lis 4,.LC37@ha
	la 4,.LC37@l(4)
	mr 3,31
	lwz 0,64(9)
	mtctr 0
	crxor 6,6,6
	bctrl
	.loc 3 469 0
	mr 4,31
	addi 3,30,552
	bl _ZNK10idAFVector5WriteEP6idFile
	.loc 3 470 0
	lwz 9,0(31)
	lis 4,.LC44@ha
	lfs 1,636(30)
	lwz 0,64(9)
	mr 3,31
	la 4,.LC44@l(4)
	mtctr 0
	creqv 6,6,6
	bctrl
	.loc 3 477 0
	lwz 9,0(31)
	lis 4,.LC32@ha
	mr 3,31
	lwz 0,64(9)
	la 4,.LC32@l(4)
	mtctr 0
	crxor 6,6,6
	bctrl
	.loc 3 479 0
	lwz 0,28(1)
	lwz 29,12(1)
	li 3,1
	mtlr 0
	lwz 30,16(1)
.LVL250:
	lwz 31,20(1)
.LVL251:
	addi 1,1,24
	.cfi_remember_state
	.cfi_restore 29
	.cfi_restore 30
	.cfi_restore 31
.LCFI61:
	.cfi_def_cfa_offset 0
	blr
.LVL252:
.L166:
.LCFI62:
	.cfi_restore_state
	.loc 3 473 0
	lwz 9,0(31)
	lis 4,.LC39@ha
	la 4,.LC39@l(4)
	mr 3,31
	lwz 0,64(9)
	mtctr 0
	crxor 6,6,6
	bctrl
	.loc 3 474 0
	mr 4,31
	addi 3,30,552
	bl _ZNK10idAFVector5WriteEP6idFile
	.loc 3 475 0
	lwz 9,0(31)
	lis 4,.LC45@ha
	lfs 1,636(30)
	lwz 0,64(9)
	mr 3,31
	lfs 2,640(30)
	la 4,.LC45@l(4)
	lfs 3,644(30)
	mtctr 0
	creqv 6,6,6
	bctrl
	.loc 3 477 0
	lwz 9,0(31)
	lis 4,.LC32@ha
	mr 3,31
	lwz 0,64(9)
	la 4,.LC32@l(4)
	mtctr 0
	crxor 6,6,6
	bctrl
	.loc 3 479 0
	lwz 0,28(1)
	lwz 29,12(1)
	li 3,1
	mtlr 0
	lwz 30,16(1)
.LVL253:
	lwz 31,20(1)
.LVL254:
	addi 1,1,24
	.cfi_restore 29
	.cfi_restore 30
	.cfi_restore 31
.LCFI63:
	.cfi_def_cfa_offset 0
	blr
	.cfi_endproc
.LFE2550:
	.size	_ZNK8idDeclAF19WriteUniversalJointEP6idFileRK19idDeclAF_Constraint, .-_ZNK8idDeclAF19WriteUniversalJointEP6idFileRK19idDeclAF_Constraint
	.align 2
	.globl _ZNK8idDeclAF10WriteHingeEP6idFileRK19idDeclAF_Constraint
	.type	_ZNK8idDeclAF10WriteHingeEP6idFileRK19idDeclAF_Constraint, @function
_ZNK8idDeclAF10WriteHingeEP6idFileRK19idDeclAF_Constraint:
.LFB2551:
	.loc 3 486 0
	.cfi_startproc
.LVL255:
	mflr 0
	stwu 1,-24(1)
.LCFI64:
	.cfi_def_cfa_offset 24
	.cfi_register 65, 0
	stw 29,12(1)
	.loc 3 492 0
	lis 29,.LC35@ha
	.cfi_offset 29, -12
	.loc 3 486 0
	stw 30,16(1)
	mr 30,5
	.cfi_offset 30, -8
	stw 31,20(1)
	mr 31,4
	.cfi_offset 31, -4
	stw 0,28(1)
	.loc 3 487 0
	mr 3,31
.LVL256:
	.loc 3 492 0
	la 29,.LC35@l(29)
	.loc 3 487 0
	lwz 9,0(4)
	lis 4,.LC46@ha
.LVL257:
	la 4,.LC46@l(4)
	lwz 5,4(5)
.LVL258:
	lwz 0,64(9)
	.cfi_offset 65, 4
	mtctr 0
	crxor 6,6,6
	bctrl
.LVL259:
	.loc 3 488 0
	lwz 9,0(31)
	lis 4,.LC30@ha
	lwz 5,36(30)
	lwz 0,64(9)
	la 4,.LC30@l(4)
	mr 3,31
	mtctr 0
	crxor 6,6,6
	bctrl
	.loc 3 489 0
	lwz 9,0(31)
	lis 4,.LC31@ha
	lwz 5,68(30)
	lwz 0,64(9)
	la 4,.LC31@l(4)
	mr 3,31
	mtctr 0
	crxor 6,6,6
	bctrl
	.loc 3 490 0
	lwz 9,0(31)
	lis 4,.LC34@ha
	mr 3,31
	lwz 0,64(9)
	la 4,.LC34@l(4)
	mtctr 0
	crxor 6,6,6
	bctrl
	.loc 3 491 0
	mr 4,31
	addi 3,30,128
	bl _ZNK10idAFVector5WriteEP6idFile
	.loc 3 492 0
	lwz 9,0(31)
	mr 4,29
	mr 3,31
	lwz 0,64(9)
	mtctr 0
	crxor 6,6,6
	bctrl
	.loc 3 493 0
	lwz 9,0(31)
	lis 4,.LC47@ha
	mr 3,31
	lwz 0,64(9)
	la 4,.LC47@l(4)
	mtctr 0
	crxor 6,6,6
	bctrl
	.loc 3 494 0
	mr 4,31
	addi 3,30,464
	bl _ZNK10idAFVector5WriteEP6idFile
	.loc 3 495 0
	lwz 9,0(31)
	mr 4,29
	mr 3,31
	lwz 0,64(9)
	mtctr 0
	crxor 6,6,6
	bctrl
	.loc 3 496 0
	lwz 9,0(31)
	lis 4,.LC36@ha
	mr 3,31
	lwz 0,64(9)
	la 4,.LC36@l(4)
	lfs 1,100(30)
	mtctr 0
	creqv 6,6,6
	bctrl
	.loc 3 497 0
	lwz 0,548(30)
	cmpwi 7,0,0
	bne+ 7,.L168
	.loc 3 498 0
	lwz 9,0(31)
	lis 4,.LC48@ha
	la 4,.LC48@l(4)
	mr 3,31
	lwz 0,64(9)
	mtctr 0
	crxor 6,6,6
	bctrl
	.loc 3 499 0
	lwz 9,0(31)
	lis 4,.LC49@ha
	mr 3,31
	lwz 0,64(9)
	la 4,.LC49@l(4)
	lfs 1,636(30)
	mtctr 0
	lfs 2,640(30)
	lfs 3,644(30)
	creqv 6,6,6
	bctrl
	.loc 3 500 0
	lwz 9,0(31)
	mr 3,31
	mr 4,29
	lwz 0,64(9)
	mtctr 0
	crxor 6,6,6
	bctrl
.L168:
	.loc 3 502 0
	lwz 9,0(31)
	lis 4,.LC32@ha
	mr 3,31
	la 4,.LC32@l(4)
	lwz 0,64(9)
	mtctr 0
	crxor 6,6,6
	bctrl
	.loc 3 504 0
	lwz 0,28(1)
	lwz 29,12(1)
	li 3,1
	mtlr 0
	lwz 30,16(1)
.LVL260:
	lwz 31,20(1)
.LVL261:
	addi 1,1,24
.LCFI65:
	.cfi_def_cfa_offset 0
	.cfi_restore 31
	.cfi_restore 30
	.cfi_restore 29
	blr
	.cfi_endproc
.LFE2551:
	.size	_ZNK8idDeclAF10WriteHingeEP6idFileRK19idDeclAF_Constraint, .-_ZNK8idDeclAF10WriteHingeEP6idFileRK19idDeclAF_Constraint
	.align 2
	.globl _ZNK8idDeclAF11WriteSliderEP6idFileRK19idDeclAF_Constraint
	.type	_ZNK8idDeclAF11WriteSliderEP6idFileRK19idDeclAF_Constraint, @function
_ZNK8idDeclAF11WriteSliderEP6idFileRK19idDeclAF_Constraint:
.LFB2552:
	.loc 3 511 0
	.cfi_startproc
.LVL262:
	mflr 0
	stwu 1,-16(1)
.LCFI66:
	.cfi_def_cfa_offset 16
	.cfi_register 65, 0
	stw 30,8(1)
	mr 30,5
	.cfi_offset 30, -8
	stw 31,12(1)
	mr 31,4
	.cfi_offset 31, -4
	stw 0,20(1)
	.loc 3 512 0
	mr 3,31
.LVL263:
	lwz 9,0(4)
	lis 4,.LC50@ha
.LVL264:
	la 4,.LC50@l(4)
	lwz 5,4(5)
.LVL265:
	lwz 0,64(9)
	.cfi_offset 65, 4
	mtctr 0
	crxor 6,6,6
	bctrl
.LVL266:
	.loc 3 513 0
	lwz 9,0(31)
	lis 4,.LC30@ha
	lwz 5,36(30)
	lwz 0,64(9)
	la 4,.LC30@l(4)
	mr 3,31
	mtctr 0
	crxor 6,6,6
	bctrl
	.loc 3 514 0
	lwz 9,0(31)
	lis 4,.LC31@ha
	lwz 5,68(30)
	lwz 0,64(9)
	la 4,.LC31@l(4)
	mr 3,31
	mtctr 0
	crxor 6,6,6
	bctrl
	.loc 3 515 0
	lwz 9,0(31)
	lis 4,.LC47@ha
	mr 3,31
	lwz 0,64(9)
	la 4,.LC47@l(4)
	mtctr 0
	crxor 6,6,6
	bctrl
	.loc 3 516 0
	mr 4,31
	addi 3,30,464
	bl _ZNK10idAFVector5WriteEP6idFile
	.loc 3 517 0
	lwz 9,0(31)
	lis 4,.LC35@ha
	mr 3,31
	lwz 0,64(9)
	la 4,.LC35@l(4)
	mtctr 0
	crxor 6,6,6
	bctrl
	.loc 3 518 0
	lwz 9,0(31)
	lis 4,.LC36@ha
	lfs 1,100(30)
	lwz 0,64(9)
	la 4,.LC36@l(4)
	mr 3,31
	mtctr 0
	creqv 6,6,6
	bctrl
	.loc 3 519 0
	lwz 9,0(31)
	lis 4,.LC32@ha
	mr 3,31
	lwz 0,64(9)
	la 4,.LC32@l(4)
	mtctr 0
	crxor 6,6,6
	bctrl
	.loc 3 521 0
	lwz 0,20(1)
	lwz 30,8(1)
.LVL267:
	li 3,1
	mtlr 0
	lwz 31,12(1)
.LVL268:
	addi 1,1,16
.LCFI67:
	.cfi_def_cfa_offset 0
	.cfi_restore 31
	.cfi_restore 30
	blr
	.cfi_endproc
.LFE2552:
	.size	_ZNK8idDeclAF11WriteSliderEP6idFileRK19idDeclAF_Constraint, .-_ZNK8idDeclAF11WriteSliderEP6idFileRK19idDeclAF_Constraint
	.align 2
	.globl _ZNK8idDeclAF11WriteSpringEP6idFileRK19idDeclAF_Constraint
	.type	_ZNK8idDeclAF11WriteSpringEP6idFileRK19idDeclAF_Constraint, @function
_ZNK8idDeclAF11WriteSpringEP6idFileRK19idDeclAF_Constraint:
.LFB2553:
	.loc 3 528 0
	.cfi_startproc
.LVL269:
	mflr 0
	stwu 1,-24(1)
.LCFI68:
	.cfi_def_cfa_offset 24
	.cfi_register 65, 0
	stw 29,12(1)
	.loc 3 534 0
	lis 29,.LC35@ha
	.cfi_offset 29, -12
	.loc 3 528 0
	stw 30,16(1)
	mr 30,5
	.cfi_offset 30, -8
	stw 31,20(1)
	mr 31,4
	.cfi_offset 31, -4
	stw 0,28(1)
	.loc 3 529 0
	mr 3,31
.LVL270:
	.loc 3 534 0
	la 29,.LC35@l(29)
	.loc 3 529 0
	lwz 9,0(4)
	lis 4,.LC51@ha
.LVL271:
	la 4,.LC51@l(4)
	lwz 5,4(5)
.LVL272:
	lwz 0,64(9)
	.cfi_offset 65, 4
	mtctr 0
	crxor 6,6,6
	bctrl
.LVL273:
	.loc 3 530 0
	lwz 9,0(31)
	lis 4,.LC30@ha
	lwz 5,36(30)
	lwz 0,64(9)
	la 4,.LC30@l(4)
	mr 3,31
	mtctr 0
	crxor 6,6,6
	bctrl
	.loc 3 531 0
	lwz 9,0(31)
	lis 4,.LC31@ha
	lwz 5,68(30)
	lwz 0,64(9)
	la 4,.LC31@l(4)
	mr 3,31
	mtctr 0
	crxor 6,6,6
	bctrl
	.loc 3 532 0
	lwz 9,0(31)
	lis 4,.LC52@ha
	mr 3,31
	lwz 0,64(9)
	la 4,.LC52@l(4)
	mtctr 0
	crxor 6,6,6
	bctrl
	.loc 3 533 0
	mr 4,31
	addi 3,30,128
	bl _ZNK10idAFVector5WriteEP6idFile
	.loc 3 534 0
	lwz 9,0(31)
	mr 4,29
	mr 3,31
	lwz 0,64(9)
	mtctr 0
	crxor 6,6,6
	bctrl
	.loc 3 535 0
	lwz 9,0(31)
	lis 4,.LC53@ha
	mr 3,31
	lwz 0,64(9)
	la 4,.LC53@l(4)
	mtctr 0
	crxor 6,6,6
	bctrl
	.loc 3 536 0
	mr 4,31
	addi 3,30,212
	bl _ZNK10idAFVector5WriteEP6idFile
	.loc 3 537 0
	lwz 9,0(31)
	mr 4,29
	mr 3,31
	lwz 0,64(9)
	mtctr 0
	crxor 6,6,6
	bctrl
	.loc 3 538 0
	lwz 9,0(31)
	lis 4,.LC36@ha
	lfs 1,100(30)
	lwz 0,64(9)
	la 4,.LC36@l(4)
	mr 3,31
	mtctr 0
	creqv 6,6,6
	bctrl
	.loc 3 539 0
	lwz 9,0(31)
	lis 4,.LC54@ha
	lfs 1,104(30)
	lwz 0,64(9)
	la 4,.LC54@l(4)
	mr 3,31
	mtctr 0
	creqv 6,6,6
	bctrl
	.loc 3 540 0
	lwz 9,0(31)
	lis 4,.LC55@ha
	lfs 1,108(30)
	lwz 0,64(9)
	la 4,.LC55@l(4)
	mr 3,31
	mtctr 0
	creqv 6,6,6
	bctrl
	.loc 3 541 0
	lwz 9,0(31)
	lis 4,.LC56@ha
	lfs 1,112(30)
	lwz 0,64(9)
	la 4,.LC56@l(4)
	mr 3,31
	mtctr 0
	creqv 6,6,6
	bctrl
	.loc 3 542 0
	lwz 9,0(31)
	lis 4,.LC57@ha
	lfs 1,116(30)
	lwz 0,64(9)
	la 4,.LC57@l(4)
	mr 3,31
	mtctr 0
	creqv 6,6,6
	bctrl
	.loc 3 543 0
	lwz 9,0(31)
	lis 4,.LC58@ha
	lfs 1,120(30)
	lwz 0,64(9)
	la 4,.LC58@l(4)
	mr 3,31
	mtctr 0
	creqv 6,6,6
	bctrl
	.loc 3 544 0
	lwz 9,0(31)
	lis 4,.LC59@ha
	lfs 1,124(30)
	lwz 0,64(9)
	la 4,.LC59@l(4)
	mr 3,31
	mtctr 0
	creqv 6,6,6
	bctrl
	.loc 3 545 0
	lwz 9,0(31)
	lis 4,.LC32@ha
	mr 3,31
	lwz 0,64(9)
	la 4,.LC32@l(4)
	mtctr 0
	crxor 6,6,6
	bctrl
	.loc 3 547 0
	lwz 0,28(1)
	lwz 29,12(1)
	li 3,1
	mtlr 0
	lwz 30,16(1)
.LVL274:
	lwz 31,20(1)
.LVL275:
	addi 1,1,24
.LCFI69:
	.cfi_def_cfa_offset 0
	.cfi_restore 31
	.cfi_restore 30
	.cfi_restore 29
	blr
	.cfi_endproc
.LFE2553:
	.size	_ZNK8idDeclAF11WriteSpringEP6idFileRK19idDeclAF_Constraint, .-_ZNK8idDeclAF11WriteSpringEP6idFileRK19idDeclAF_Constraint
	.align 2
	.globl _ZNK8idDeclAF15WriteConstraintEP6idFileRK19idDeclAF_Constraint
	.type	_ZNK8idDeclAF15WriteConstraintEP6idFileRK19idDeclAF_Constraint, @function
_ZNK8idDeclAF15WriteConstraintEP6idFileRK19idDeclAF_Constraint:
.LFB2554:
	.loc 3 554 0
	.cfi_startproc
.LVL276:
	.loc 3 555 0
	lwz 0,96(5)
	cmplwi 7,0,6
	ble- 7,.L180
.L172:
	.loc 3 572 0
	li 3,0
.LVL277:
	blr
.LVL278:
.L180:
	.loc 3 555 0
	lis 9,.L179@ha
	slwi 0,0,2
	la 9,.L179@l(9)
	lwzx 0,9,0
	add 9,0,9
	mtctr 9
	bctr
	.section	.rodata
	.align 2
	.align 2
.L179:
	.long .L172-.L179
	.long .L173-.L179
	.long .L174-.L179
	.long .L175-.L179
	.long .L176-.L179
	.long .L177-.L179
	.long .L178-.L179
	.section	".text"
.L178:
	.loc 3 572 0
	.loc 3 567 0
	b _ZNK8idDeclAF11WriteSpringEP6idFileRK19idDeclAF_Constraint
.LVL279:
.L173:
	.loc 3 572 0
	.loc 3 557 0
	b _ZNK8idDeclAF10WriteFixedEP6idFileRK19idDeclAF_Constraint
.LVL280:
.L174:
	.loc 3 572 0
	.loc 3 559 0
	b _ZNK8idDeclAF23WriteBallAndSocketJointEP6idFileRK19idDeclAF_Constraint
.LVL281:
.L175:
	.loc 3 572 0
	.loc 3 561 0
	b _ZNK8idDeclAF19WriteUniversalJointEP6idFileRK19idDeclAF_Constraint
.LVL282:
.L176:
	.loc 3 572 0
	.loc 3 563 0
	b _ZNK8idDeclAF10WriteHingeEP6idFileRK19idDeclAF_Constraint
.LVL283:
.L177:
	.loc 3 572 0
	.loc 3 565 0
	b _ZNK8idDeclAF11WriteSliderEP6idFileRK19idDeclAF_Constraint
.LVL284:
.LVL285:
.LVL286:
	.cfi_endproc
.LFE2554:
	.size	_ZNK8idDeclAF15WriteConstraintEP6idFileRK19idDeclAF_Constraint, .-_ZNK8idDeclAF15WriteConstraintEP6idFileRK19idDeclAF_Constraint
	.align 2
	.globl _ZN8idDeclAF18ContentsFromStringEPKc
	.type	_ZN8idDeclAF18ContentsFromStringEPKc, @function
_ZN8idDeclAF18ContentsFromStringEPKc:
.LFB2558:
	.loc 3 657 0
	.cfi_startproc
	.cfi_personality 0,__gxx_personality_v0
	.cfi_lsda 0,.LLSDA2558
.LVL287:
	mflr 0
	stwu 1,-336(1)
.LCFI70:
	.cfi_def_cfa_offset 336
	.cfi_register 65, 0
.LVL288:
	mr 4,3
.LBB2191:
.LBB2192:
.LBB2193:
	.loc 4 952 0
	li 5,0
.LBE2193:
.LBE2192:
.LBE2191:
	.loc 3 657 0
	stw 23,300(1)
	stw 0,340(1)
.LBB2266:
.LBB2197:
.LBB2198:
.LBB2199:
.LBB2200:
	.loc 4 356 0
	li 0,0
	.cfi_offset 65, 4
	.cfi_offset 23, -36
.LBE2200:
.LBE2199:
.LBE2198:
.LBE2197:
.LBE2266:
	.loc 3 657 0
	stw 24,304(1)
	stw 25,308(1)
	stw 26,312(1)
	stw 27,316(1)
	stw 28,320(1)
	stw 29,324(1)
	stw 30,328(1)
	stw 31,332(1)
.LBB2267:
.LBB2210:
.LBB2207:
.LBB2204:
.LBB2201:
	.loc 4 356 0
	stw 0,8(1)
.LBE2201:
.LBE2204:
.LBE2207:
.LBE2210:
.LBB2211:
.LBB2194:
	.loc 4 952 0
	lbz 9,0(3)
.LBE2194:
.LBE2211:
.LBB2212:
.LBB2208:
.LBB2205:
.LBB2202:
	.loc 4 359 0
	stb 0,20(1)
.LVL289:
.LBE2202:
.LBE2205:
.LBE2208:
.LBE2212:
.LBB2213:
.LBB2195:
	.loc 4 952 0
	cmpwi 7,9,0
.LBE2195:
.LBE2213:
.LBB2214:
.LBB2209:
.LBB2206:
.LBB2203:
	.loc 4 357 0
	li 9,20
	stw 9,16(1)
	.loc 4 358 0
	addi 9,1,20
	stw 9,12(1)
.LBE2203:
.LBE2206:
.LBE2209:
.LBE2214:
.LBB2215:
.LBB2196:
	.loc 4 952 0
	beq- 7,.L182
	.cfi_offset 31, -4
	.cfi_offset 30, -8
	.cfi_offset 29, -12
	.cfi_offset 28, -16
	.cfi_offset 27, -20
	.cfi_offset 26, -24
	.cfi_offset 25, -28
	.cfi_offset 24, -32
.LVL290:
.L183:
	addi 5,5,1
.LVL291:
	lbzx 0,4,5
	cmpwi 7,0,0
	bne+ 7,.L183
.LVL292:
.L182:
.LBE2196:
.LBE2215:
	.loc 3 660 0
	lis 6,.LC60@ha
	addi 3,1,88
.LVL293:
	la 6,.LC60@l(6)
	li 7,0
	addi 30,1,8
.LEHB13:
	bl _ZN7idLexerC1EPKciS1_i
.LEHE13:
.LVL294:
.LBB2216:
.LBB2217:
	.loc 4 690 0
	lis 29,.LC61@ha
.LBE2217:
.LBE2216:
.LBB2220:
.LBB2221:
	lis 28,.LC62@ha
.LBE2221:
.LBE2220:
.LBB2224:
.LBB2225:
	lis 27,.LC63@ha
.LBE2225:
.LBE2224:
.LBB2228:
.LBB2229:
	lis 26,.LC64@ha
.LBE2229:
.LBE2228:
.LBB2232:
.LBB2233:
	lis 25,.LC65@ha
.LBE2233:
.LBE2232:
.LBB2236:
.LBB2237:
	lis 23,.LC66@ha
.LBE2237:
.LBE2236:
	.loc 3 660 0
	li 31,0
	addi 30,1,8
.LBB2240:
.LBB2218:
	.loc 4 690 0
	la 29,.LC61@l(29)
.LBE2218:
.LBE2240:
.LBB2241:
.LBB2222:
	la 28,.LC62@l(28)
.LBE2222:
.LBE2241:
.LBB2242:
.LBB2226:
	la 27,.LC63@l(27)
.LBE2226:
.LBE2242:
.LBB2243:
.LBB2230:
	la 26,.LC64@l(26)
.LBE2230:
.LBE2243:
.LBB2244:
.LBB2234:
	la 25,.LC65@l(25)
.LBE2234:
.LBE2244:
.LBB2245:
.LBB2238:
	la 23,.LC66@l(23)
.LBE2238:
.LBE2245:
.LBB2246:
.LBB2247:
	.loc 4 653 0
	lis 24,.LC4@ha
	b .L207
.LVL295:
.L202:
.LBE2247:
.LBE2246:
	.loc 3 665 0
	li 31,0
.LVL296:
.L207:
	.loc 3 663 0 discriminator 1
	addi 3,1,88
	mr 4,30
.LEHB14:
	bl _ZN7idLexer9ReadTokenEP7idToken
	cmpwi 7,3,0
	beq- 7,.L192
.LVL297:
.LBB2249:
.LBB2219:
	.loc 4 690 0
	lwz 3,12(1)
	mr 4,29
	bl _ZN5idStr4IcmpEPKcS1_
.LBE2219:
.LBE2249:
	.loc 3 664 0
	cmpwi 7,3,0
	beq+ 7,.L202
.LVL298:
.LBB2250:
.LBB2223:
	.loc 4 690 0
	lwz 3,12(1)
	mr 4,28
	bl _ZN5idStr4IcmpEPKcS1_
.LBE2223:
.LBE2250:
	.loc 3 667 0
	cmpwi 7,3,0
	bne- 7,.L186
	.loc 3 668 0
	ori 31,31,1
.LVL299:
	b .L207
.L186:
.LVL300:
.LBB2251:
.LBB2227:
	.loc 4 690 0
	lwz 3,12(1)
	mr 4,27
	bl _ZN5idStr4IcmpEPKcS1_
.LBE2227:
.LBE2251:
	.loc 3 670 0
	cmpwi 7,3,0
	bne- 7,.L188
	.loc 3 671 0
	ori 31,31,256
.LVL301:
	b .L207
.LVL302:
.L191:
.LBB2252:
.LBB2248:
	.loc 4 653 0
	lwz 3,12(1)
	la 4,.LC4@l(24)
	bl _ZN5idStr3CmpEPKcS1_
.LEHE14:
.LBE2248:
.LBE2252:
	.loc 3 682 0
	cmpwi 7,3,0
	beq- 7,.L207
.LVL303:
.L192:
	.loc 3 689 0
	addi 3,1,88
.LEHB15:
	bl _ZN7idLexerD1Ev
.LEHE15:
.LVL304:
.LBB2253:
.LBB2254:
.LBB2255:
.LBB2256:
.LBB2257:
	.loc 4 501 0
	mr 3,30
.LEHB16:
	bl _ZN5idStr8FreeDataEv
.LEHE16:
.LBE2257:
.LBE2256:
.LBE2255:
.LBE2254:
.LBE2253:
.LBE2267:
	.loc 3 690 0
	lwz 0,340(1)
	mr 3,31
	lwz 23,300(1)
	mtlr 0
	lwz 24,304(1)
	lwz 25,308(1)
	lwz 26,312(1)
	lwz 27,316(1)
	lwz 28,320(1)
	lwz 29,324(1)
	lwz 30,328(1)
	lwz 31,332(1)
.LVL305:
	addi 1,1,336
	.cfi_remember_state
.LCFI71:
	.cfi_def_cfa_offset 0
	.cfi_restore 31
	.cfi_restore 30
	.cfi_restore 29
	.cfi_restore 28
	.cfi_restore 27
	.cfi_restore 26
	.cfi_restore 25
	.cfi_restore 24
	.cfi_restore 23
	blr
.LVL306:
.L188:
.LCFI72:
	.cfi_restore_state
.LBB2268:
.LBB2258:
.LBB2231:
	.loc 4 690 0
	lwz 3,12(1)
	mr 4,26
.LEHB17:
	bl _ZN5idStr4IcmpEPKcS1_
.LBE2231:
.LBE2258:
	.loc 3 673 0
	cmpwi 7,3,0
	bne- 7,.L189
	.loc 3 674 0
	ori 31,31,1024
.LVL307:
	b .L207
.L189:
.LVL308:
.LBB2259:
.LBB2235:
	.loc 4 690 0
	lwz 3,12(1)
	mr 4,25
	bl _ZN5idStr4IcmpEPKcS1_
.LBE2235:
.LBE2259:
	.loc 3 676 0
	cmpwi 7,3,0
	bne- 7,.L190
	.loc 3 677 0
	ori 31,31,8
.LVL309:
	b .L207
.L190:
.LVL310:
.LBB2260:
.LBB2239:
	.loc 4 690 0
	lwz 3,12(1)
	mr 4,23
	bl _ZN5idStr4IcmpEPKcS1_
.LEHE17:
.LBE2239:
.LBE2260:
	.loc 3 679 0
	cmpwi 7,3,0
	bne- 7,.L191
	.loc 3 680 0
	ori 31,31,16
.LVL311:
	b .L207
.LVL312:
.L204:
	mr 31,3
.LVL313:
	.loc 3 689 0
	addi 3,1,88
	bl _ZN7idLexerD1Ev
.L197:
.LVL314:
.LBB2261:
.LBB2262:
.LBB2263:
.LBB2264:
.LBB2265:
	.loc 4 501 0
	mr 3,30
	bl _ZN5idStr8FreeDataEv
	mr 3,31
.LEHB18:
	bl _Unwind_Resume
.LEHE18:
.LVL315:
.L203:
	mr 31,3
	b .L197
.LBE2265:
.LBE2264:
.LBE2263:
.LBE2262:
.LBE2261:
.LBE2268:
	.cfi_endproc
.LFE2558:
	.section	.gcc_except_table
.LLSDA2558:
	.byte	0xff
	.byte	0xff
	.byte	0x1
	.uleb128 .LLSDACSE2558-.LLSDACSB2558
.LLSDACSB2558:
	.uleb128 .LEHB13-.LFB2558
	.uleb128 .LEHE13-.LEHB13
	.uleb128 .L203-.LFB2558
	.uleb128 0
	.uleb128 .LEHB14-.LFB2558
	.uleb128 .LEHE14-.LEHB14
	.uleb128 .L204-.LFB2558
	.uleb128 0
	.uleb128 .LEHB15-.LFB2558
	.uleb128 .LEHE15-.LEHB15
	.uleb128 .L203-.LFB2558
	.uleb128 0
	.uleb128 .LEHB16-.LFB2558
	.uleb128 .LEHE16-.LEHB16
	.uleb128 0
	.uleb128 0
	.uleb128 .LEHB17-.LFB2558
	.uleb128 .LEHE17-.LEHB17
	.uleb128 .L204-.LFB2558
	.uleb128 0
	.uleb128 .LEHB18-.LFB2558
	.uleb128 .LEHE18-.LEHB18
	.uleb128 0
	.uleb128 0
.LLSDACSE2558:
	.section	".text"
	.size	_ZN8idDeclAF18ContentsFromStringEPKc, .-_ZN8idDeclAF18ContentsFromStringEPKc
	.align 2
	.globl _ZN8idDeclAF16ContentsToStringEiR5idStr
	.type	_ZN8idDeclAF16ContentsToStringEiR5idStr, @function
_ZN8idDeclAF16ContentsToStringEiR5idStr:
.LFB2559:
	.loc 3 697 0
	.cfi_startproc
.LVL316:
	stwu 1,-24(1)
.LCFI73:
	.cfi_def_cfa_offset 24
	mflr 0
	stw 31,20(1)
	mr 31,4
	.cfi_offset 31, -4
	.cfi_register 65, 0
	.loc 3 698 0
	lis 4,.LC67@ha
.LVL317:
	.loc 3 697 0
	stw 30,16(1)
	.loc 3 698 0
	la 4,.LC67@l(4)
	.loc 3 697 0
	mr 30,3
	.cfi_offset 30, -8
	.loc 3 698 0
	mr 3,31
.LVL318:
	.loc 3 697 0
	stw 0,28(1)
	stw 29,12(1)
	.loc 3 698 0
	.cfi_offset 29, -12
	.cfi_offset 65, 4
	bl _ZN5idStraSEPKc
	.loc 3 699 0
	andi. 0,30,1
	beq- 0,.L209
	.loc 3 1753 0
	lwz 11,0(31)
	.loc 3 700 0
	cmpwi 7,11,0
	bne- 7,.L260
.LVL319:
.LBB2343:
.LBB2344:
.LBB2345:
.LBB2346:
.LBB2347:
	.loc 4 350 0
	lwz 0,8(31)
.LBE2347:
.LBE2346:
	.loc 4 776 0
	addi 4,11,6
	.loc 4 775 0
	addi 29,11,5
.LVL320:
.LBB2353:
.LBB2348:
	.loc 4 350 0
	cmpw 7,4,0
	bgt- 7,.L215
.LVL321:
.L217:
	lis 10,.LC62@ha
.LBE2348:
.LBE2353:
.LBE2345:
.LBE2344:
.LBE2343:
	.loc 3 697 0
	li 0,115
.LBB2366:
.LBB2362:
.LBB2358:
.LBB2354:
.LBB2349:
	.loc 4 350 0
	la 10,.LC62@l(10)
.LBE2349:
.LBE2354:
.LBE2358:
.LBE2362:
.LBE2366:
	.loc 3 697 0
	li 9,0
	b .L216
.LVL322:
.L261:
.LBB2367:
.LBB2363:
.LBB2359:
	.loc 4 777 0
	lwz 11,0(31)
.LVL323:
.L216:
	.loc 4 778 0
	lwz 8,4(31)
	add 11,8,11
	stbx 0,11,9
	.loc 4 777 0
	addi 9,9,1
.LVL324:
	lbzu 0,1(10)
	cmpwi 7,0,0
	bne+ 7,.L261
	.loc 4 781 0
	lwz 9,4(31)
.LVL325:
	.loc 4 780 0
	stw 29,0(31)
	.loc 4 781 0
	stbx 0,9,29
.LVL326:
.L209:
.LBE2359:
.LBE2363:
.LBE2367:
	.loc 3 703 0
	andi. 0,30,256
	beq- 0,.L219
	.loc 3 1753 0
	lwz 11,0(31)
	.loc 3 704 0
	cmpwi 7,11,0
	bne- 7,.L262
.LVL327:
.LBB2368:
.LBB2369:
.LBB2370:
.LBB2371:
.LBB2372:
	.loc 4 350 0
	lwz 0,8(31)
.LBE2372:
.LBE2371:
	.loc 4 776 0
	addi 4,11,5
	.loc 4 775 0
	addi 29,11,4
.LVL328:
.LBB2377:
.LBB2373:
	.loc 4 350 0
	cmpw 7,4,0
	bgt- 7,.L225
.LVL329:
.L227:
	lis 10,.LC63@ha
.LBE2373:
.LBE2377:
.LBE2370:
.LBE2369:
.LBE2368:
	.loc 3 697 0
	li 0,98
.LBB2387:
.LBB2384:
.LBB2381:
.LBB2378:
.LBB2374:
	.loc 4 350 0
	la 10,.LC63@l(10)
.LBE2374:
.LBE2378:
.LBE2381:
.LBE2384:
.LBE2387:
	.loc 3 697 0
	li 9,0
	b .L226
.LVL330:
.L263:
.LBB2388:
.LBB2385:
.LBB2382:
	.loc 4 777 0
	lwz 11,0(31)
.LVL331:
.L226:
	.loc 4 778 0
	lwz 8,4(31)
	add 11,8,11
	stbx 0,11,9
	.loc 4 777 0
	addi 9,9,1
.LVL332:
	lbzu 0,1(10)
	cmpwi 7,0,0
	bne+ 7,.L263
	.loc 4 781 0
	lwz 9,4(31)
.LVL333:
	.loc 4 780 0
	stw 29,0(31)
	.loc 4 781 0
	stbx 0,9,29
.LVL334:
.L219:
.LBE2382:
.LBE2385:
.LBE2388:
	.loc 3 707 0
	andi. 0,30,1024
	beq- 0,.L229
	.loc 3 1753 0
	lwz 11,0(31)
	.loc 3 708 0
	cmpwi 7,11,0
	bne- 7,.L264
.LVL335:
.LBB2389:
.LBB2390:
.LBB2391:
.LBB2392:
.LBB2393:
	.loc 4 350 0
	lwz 0,8(31)
.LBE2393:
.LBE2392:
	.loc 4 776 0
	addi 4,11,7
	.loc 4 775 0
	addi 29,11,6
.LVL336:
.LBB2399:
.LBB2394:
	.loc 4 350 0
	cmpw 7,4,0
	bgt- 7,.L235
.LVL337:
.L237:
	lis 10,.LC64@ha
.LBE2394:
.LBE2399:
.LBE2391:
.LBE2390:
.LBE2389:
	.loc 3 697 0
	li 0,99
.LBB2412:
.LBB2408:
.LBB2404:
.LBB2400:
.LBB2395:
	.loc 4 350 0
	la 10,.LC64@l(10)
.LBE2395:
.LBE2400:
.LBE2404:
.LBE2408:
.LBE2412:
	.loc 3 697 0
	li 9,0
	b .L236
.LVL338:
.L265:
.LBB2413:
.LBB2409:
.LBB2405:
	.loc 4 777 0
	lwz 11,0(31)
.LVL339:
.L236:
	.loc 4 778 0
	lwz 8,4(31)
	add 11,8,11
	stbx 0,11,9
	.loc 4 777 0
	addi 9,9,1
.LVL340:
	lbzu 0,1(10)
	cmpwi 7,0,0
	bne+ 7,.L265
	.loc 4 781 0
	lwz 9,4(31)
.LVL341:
	.loc 4 780 0
	stw 29,0(31)
	.loc 4 781 0
	stbx 0,9,29
.LVL342:
.L229:
.LBE2405:
.LBE2409:
.LBE2413:
	.loc 3 711 0
	andi. 0,30,8
	beq- 0,.L239
	.loc 3 1753 0
	lwz 11,0(31)
	.loc 3 712 0
	cmpwi 7,11,0
	bne- 7,.L266
.LVL343:
.LBB2414:
.LBB2415:
.LBB2416:
.LBB2417:
.LBB2418:
	.loc 4 350 0
	lwz 0,8(31)
.LBE2418:
.LBE2417:
	.loc 4 776 0
	addi 4,11,11
	.loc 4 775 0
	addi 29,11,10
.LVL344:
.LBB2424:
.LBB2419:
	.loc 4 350 0
	cmpw 7,4,0
	bgt- 7,.L245
.LVL345:
.L247:
	lis 10,.LC65@ha
.LBE2419:
.LBE2424:
.LBE2416:
.LBE2415:
.LBE2414:
	.loc 3 697 0
	li 0,112
.LBB2437:
.LBB2433:
.LBB2429:
.LBB2425:
.LBB2420:
	.loc 4 350 0
	la 10,.LC65@l(10)
.LBE2420:
.LBE2425:
.LBE2429:
.LBE2433:
.LBE2437:
	.loc 3 697 0
	li 9,0
	b .L246
.LVL346:
.L267:
.LBB2438:
.LBB2434:
.LBB2430:
	.loc 4 777 0
	lwz 11,0(31)
.LVL347:
.L246:
	.loc 4 778 0
	lwz 8,4(31)
	add 11,8,11
	stbx 0,11,9
	.loc 4 777 0
	addi 9,9,1
.LVL348:
	lbzu 0,1(10)
	cmpwi 7,0,0
	bne+ 7,.L267
	.loc 4 781 0
	lwz 9,4(31)
.LVL349:
	.loc 4 780 0
	stw 29,0(31)
	.loc 4 781 0
	stbx 0,9,29
.LVL350:
.L239:
.LBE2430:
.LBE2434:
.LBE2438:
	.loc 3 715 0
	andi. 0,30,16
	beq- 0,.L249
	.loc 3 1753 0
	lwz 11,0(31)
	.loc 3 716 0
	cmpwi 7,11,0
	bne- 7,.L268
.LVL351:
.LBB2439:
.LBB2440:
.LBB2441:
.LBB2442:
.LBB2443:
	.loc 4 350 0
	lwz 0,8(31)
.LBE2443:
.LBE2442:
	.loc 4 776 0
	addi 4,11,12
	.loc 4 775 0
	addi 30,11,11
.LVL352:
.LBB2448:
.LBB2444:
	.loc 4 350 0
	cmpw 7,4,0
	bgt- 7,.L255
.LVL353:
.L257:
	lis 10,.LC66@ha
.LBE2444:
.LBE2448:
.LBE2441:
.LBE2440:
.LBE2439:
	.loc 3 697 0
	li 0,109
.LBB2458:
.LBB2455:
.LBB2452:
.LBB2449:
.LBB2445:
	.loc 4 350 0
	la 10,.LC66@l(10)
.LBE2445:
.LBE2449:
.LBE2452:
.LBE2455:
.LBE2458:
	.loc 3 697 0
	li 9,0
	b .L256
.LVL354:
.L269:
.LBB2459:
.LBB2456:
.LBB2453:
	.loc 4 777 0
	lwz 11,0(31)
.LVL355:
.L256:
	.loc 4 778 0
	lwz 8,4(31)
	add 11,8,11
	stbx 0,11,9
	.loc 4 777 0
	addi 9,9,1
.LVL356:
	lbzu 0,1(10)
	cmpwi 7,0,0
	bne+ 7,.L269
	.loc 4 781 0
	lwz 9,4(31)
.LVL357:
	.loc 4 780 0
	stw 30,0(31)
	.loc 4 781 0
	stbx 0,9,30
.LVL358:
.L249:
	.loc 3 1753 0
	lwz 3,4(31)
.LVL359:
.LBE2453:
.LBE2456:
.LBE2459:
	.loc 3 719 0
	lbz 0,0(3)
	cmpwi 7,0,0
	bne+ 7,.L259
	.loc 3 720 0
	lis 4,.LC61@ha
	mr 3,31
	la 4,.LC61@l(4)
	bl _ZN5idStraSEPKc
	lwz 3,4(31)
.L259:
	.loc 3 723 0
	lwz 0,28(1)
	lwz 29,12(1)
	mtlr 0
	lwz 30,16(1)
	lwz 31,20(1)
.LVL360:
	addi 1,1,24
	.cfi_remember_state
.LCFI74:
	.cfi_def_cfa_offset 0
	.cfi_restore 31
	.cfi_restore 30
	.cfi_restore 29
	blr
.LVL361:
.L235:
.LCFI75:
	.cfi_restore_state
.LBB2460:
.LBB2410:
.LBB2406:
.LBB2401:
.LBB2396:
	.loc 4 351 0
	mr 3,31
	li 5,1
	bl _ZN5idStr10ReAllocateEib
.LVL362:
	lwz 11,0(31)
	b .L237
.LVL363:
.L268:
.LBE2396:
.LBE2401:
.LBE2406:
.LBE2410:
.LBE2460:
.LBB2461:
.LBB2462:
.LBB2463:
.LBB2464:
.LBB2465:
	.loc 4 350 0
	lwz 0,8(31)
.LBE2465:
.LBE2464:
	.loc 4 776 0
	addi 4,11,3
	.loc 4 775 0
	addi 30,11,2
.LVL364:
.LBB2469:
.LBB2466:
	.loc 4 350 0
	cmpw 7,4,0
	bgt- 7,.L251
.LVL365:
.L253:
	lis 10,.LC43@ha
.LBE2466:
.LBE2469:
.LBE2463:
.LBE2462:
.LBE2461:
	.loc 3 697 0
	li 0,44
.LBB2478:
.LBB2475:
.LBB2472:
.LBB2470:
.LBB2467:
	.loc 4 350 0
	la 10,.LC43@l(10)
.LBE2467:
.LBE2470:
.LBE2472:
.LBE2475:
.LBE2478:
	.loc 3 697 0
	li 9,0
	b .L252
.LVL366:
.L270:
.LBB2479:
.LBB2476:
.LBB2473:
	.loc 4 777 0
	lwz 11,0(31)
.LVL367:
.L252:
	.loc 4 778 0
	lwz 8,4(31)
	add 11,8,11
	stbx 0,11,9
	.loc 4 777 0
	addi 9,9,1
.LVL368:
	lbzu 0,1(10)
	cmpwi 7,0,0
	bne+ 7,.L270
	.loc 4 781 0
	lwz 9,4(31)
.LVL369:
	.loc 4 780 0
	stw 30,0(31)
	.loc 4 781 0
	stbx 0,9,30
	lwz 11,0(31)
.LVL370:
.LBE2473:
.LBE2476:
.LBE2479:
.LBB2480:
.LBB2457:
.LBB2454:
.LBB2450:
.LBB2446:
	.loc 4 350 0
	lwz 0,8(31)
.LBE2446:
.LBE2450:
	.loc 4 776 0
	addi 4,11,12
	.loc 4 775 0
	addi 30,11,11
.LVL371:
.LBB2451:
.LBB2447:
	.loc 4 350 0
	cmpw 7,4,0
	ble+ 7,.L257
.LVL372:
.L255:
	.loc 4 351 0
	mr 3,31
	li 5,1
	bl _ZN5idStr10ReAllocateEib
.LVL373:
	lwz 11,0(31)
	b .L257
.LVL374:
.L215:
.LBE2447:
.LBE2451:
.LBE2454:
.LBE2457:
.LBE2480:
.LBB2481:
.LBB2364:
.LBB2360:
.LBB2355:
.LBB2350:
	mr 3,31
	li 5,1
	bl _ZN5idStr10ReAllocateEib
.LVL375:
	lwz 11,0(31)
	b .L217
.LVL376:
.L262:
.LBE2350:
.LBE2355:
.LBE2360:
.LBE2364:
.LBE2481:
.LBB2482:
.LBB2483:
.LBB2484:
.LBB2485:
.LBB2486:
	.loc 4 350 0
	lwz 0,8(31)
.LBE2486:
.LBE2485:
	.loc 4 776 0
	addi 4,11,3
	.loc 4 775 0
	addi 29,11,2
.LVL377:
.LBB2490:
.LBB2487:
	.loc 4 350 0
	cmpw 7,4,0
	bgt- 7,.L221
.LVL378:
.L223:
	lis 10,.LC43@ha
.LBE2487:
.LBE2490:
.LBE2484:
.LBE2483:
.LBE2482:
	.loc 3 697 0
	li 0,44
.LBB2499:
.LBB2496:
.LBB2493:
.LBB2491:
.LBB2488:
	.loc 4 350 0
	la 10,.LC43@l(10)
.LBE2488:
.LBE2491:
.LBE2493:
.LBE2496:
.LBE2499:
	.loc 3 697 0
	li 9,0
	b .L222
.LVL379:
.L271:
.LBB2500:
.LBB2497:
.LBB2494:
	.loc 4 777 0
	lwz 11,0(31)
.LVL380:
.L222:
	.loc 4 778 0
	lwz 8,4(31)
	add 11,8,11
	stbx 0,11,9
	.loc 4 777 0
	addi 9,9,1
.LVL381:
	lbzu 0,1(10)
	cmpwi 7,0,0
	bne+ 7,.L271
	.loc 4 781 0
	lwz 9,4(31)
.LVL382:
	.loc 4 780 0
	stw 29,0(31)
	.loc 4 781 0
	stbx 0,9,29
	lwz 11,0(31)
.LVL383:
.LBE2494:
.LBE2497:
.LBE2500:
.LBB2501:
.LBB2386:
.LBB2383:
.LBB2379:
.LBB2375:
	.loc 4 350 0
	lwz 0,8(31)
.LBE2375:
.LBE2379:
	.loc 4 776 0
	addi 4,11,5
	.loc 4 775 0
	addi 29,11,4
.LVL384:
.LBB2380:
.LBB2376:
	.loc 4 350 0
	cmpw 7,4,0
	ble+ 7,.L227
.LVL385:
.L225:
	.loc 4 351 0
	mr 3,31
	li 5,1
	bl _ZN5idStr10ReAllocateEib
.LVL386:
	lwz 11,0(31)
	b .L227
.LVL387:
.L264:
.LBE2376:
.LBE2380:
.LBE2383:
.LBE2386:
.LBE2501:
.LBB2502:
.LBB2503:
.LBB2504:
.LBB2505:
.LBB2506:
	.loc 4 350 0
	lwz 0,8(31)
.LBE2506:
.LBE2505:
	.loc 4 776 0
	addi 4,11,3
	.loc 4 775 0
	addi 29,11,2
.LVL388:
.LBB2510:
.LBB2507:
	.loc 4 350 0
	cmpw 7,4,0
	bgt- 7,.L231
.LVL389:
.L233:
	lis 10,.LC43@ha
.LBE2507:
.LBE2510:
.LBE2504:
.LBE2503:
.LBE2502:
	.loc 3 697 0
	li 0,44
.LBB2519:
.LBB2516:
.LBB2513:
.LBB2511:
.LBB2508:
	.loc 4 350 0
	la 10,.LC43@l(10)
.LBE2508:
.LBE2511:
.LBE2513:
.LBE2516:
.LBE2519:
	.loc 3 697 0
	li 9,0
	b .L232
.LVL390:
.L272:
.LBB2520:
.LBB2517:
.LBB2514:
	.loc 4 777 0
	lwz 11,0(31)
.LVL391:
.L232:
	.loc 4 778 0
	lwz 8,4(31)
	add 11,8,11
	stbx 0,11,9
	.loc 4 777 0
	addi 9,9,1
.LVL392:
	lbzu 0,1(10)
	cmpwi 7,0,0
	bne+ 7,.L272
	.loc 4 781 0
	lwz 9,4(31)
.LVL393:
	.loc 4 780 0
	stw 29,0(31)
	.loc 4 781 0
	stbx 0,9,29
	lwz 11,0(31)
.LVL394:
.LBE2514:
.LBE2517:
.LBE2520:
.LBB2521:
.LBB2411:
.LBB2407:
.LBB2402:
.LBB2397:
	.loc 4 350 0
	lwz 0,8(31)
.LBE2397:
.LBE2402:
	.loc 4 776 0
	addi 4,11,7
	.loc 4 775 0
	addi 29,11,6
.LVL395:
.LBB2403:
.LBB2398:
	.loc 4 350 0
	cmpw 7,4,0
	ble+ 7,.L237
	b .L235
.LVL396:
.L245:
.LBE2398:
.LBE2403:
.LBE2407:
.LBE2411:
.LBE2521:
.LBB2522:
.LBB2435:
.LBB2431:
.LBB2426:
.LBB2421:
	.loc 4 351 0
	mr 3,31
	li 5,1
	bl _ZN5idStr10ReAllocateEib
.LVL397:
	lwz 11,0(31)
	b .L247
.LVL398:
.L266:
.LBE2421:
.LBE2426:
.LBE2431:
.LBE2435:
.LBE2522:
.LBB2523:
.LBB2524:
.LBB2525:
.LBB2526:
.LBB2527:
	.loc 4 350 0
	lwz 0,8(31)
.LBE2527:
.LBE2526:
	.loc 4 776 0
	addi 4,11,3
	.loc 4 775 0
	addi 29,11,2
.LVL399:
.LBB2531:
.LBB2528:
	.loc 4 350 0
	cmpw 7,4,0
	bgt- 7,.L241
.LVL400:
.L243:
	lis 10,.LC43@ha
.LBE2528:
.LBE2531:
.LBE2525:
.LBE2524:
.LBE2523:
	.loc 3 697 0
	li 0,44
.LBB2540:
.LBB2537:
.LBB2534:
.LBB2532:
.LBB2529:
	.loc 4 350 0
	la 10,.LC43@l(10)
.LBE2529:
.LBE2532:
.LBE2534:
.LBE2537:
.LBE2540:
	.loc 3 697 0
	li 9,0
	b .L242
.LVL401:
.L273:
.LBB2541:
.LBB2538:
.LBB2535:
	.loc 4 777 0
	lwz 11,0(31)
.LVL402:
.L242:
	.loc 4 778 0
	lwz 8,4(31)
	add 11,8,11
	stbx 0,11,9
	.loc 4 777 0
	addi 9,9,1
.LVL403:
	lbzu 0,1(10)
	cmpwi 7,0,0
	bne+ 7,.L273
	.loc 4 781 0
	lwz 9,4(31)
.LVL404:
	.loc 4 780 0
	stw 29,0(31)
	.loc 4 781 0
	stbx 0,9,29
	lwz 11,0(31)
.LVL405:
.LBE2535:
.LBE2538:
.LBE2541:
.LBB2542:
.LBB2436:
.LBB2432:
.LBB2427:
.LBB2422:
	.loc 4 350 0
	lwz 0,8(31)
.LBE2422:
.LBE2427:
	.loc 4 776 0
	addi 4,11,11
	.loc 4 775 0
	addi 29,11,10
.LVL406:
.LBB2428:
.LBB2423:
	.loc 4 350 0
	cmpw 7,4,0
	ble+ 7,.L247
	b .L245
.LVL407:
.L260:
.LBE2423:
.LBE2428:
.LBE2432:
.LBE2436:
.LBE2542:
.LBB2543:
.LBB2544:
.LBB2545:
.LBB2546:
.LBB2547:
	lwz 0,8(31)
.LBE2547:
.LBE2546:
	.loc 4 776 0
	addi 4,11,3
	.loc 4 775 0
	addi 29,11,2
.LVL408:
.LBB2551:
.LBB2548:
	.loc 4 350 0
	cmpw 7,4,0
	bgt- 7,.L211
.LVL409:
.L213:
	lis 10,.LC43@ha
.LBE2548:
.LBE2551:
.LBE2545:
.LBE2544:
.LBE2543:
	.loc 3 697 0
	li 0,44
.LBB2560:
.LBB2557:
.LBB2554:
.LBB2552:
.LBB2549:
	.loc 4 350 0
	la 10,.LC43@l(10)
.LBE2549:
.LBE2552:
.LBE2554:
.LBE2557:
.LBE2560:
	.loc 3 697 0
	li 9,0
	b .L212
.LVL410:
.L274:
.LBB2561:
.LBB2558:
.LBB2555:
	.loc 4 777 0
	lwz 11,0(31)
.LVL411:
.L212:
	.loc 4 778 0
	lwz 8,4(31)
	add 11,8,11
	stbx 0,11,9
	.loc 4 777 0
	addi 9,9,1
.LVL412:
	lbzu 0,1(10)
	cmpwi 7,0,0
	bne+ 7,.L274
	.loc 4 781 0
	lwz 9,4(31)
.LVL413:
	.loc 4 780 0
	stw 29,0(31)
	.loc 4 781 0
	stbx 0,9,29
	lwz 11,0(31)
.LVL414:
.LBE2555:
.LBE2558:
.LBE2561:
.LBB2562:
.LBB2365:
.LBB2361:
.LBB2356:
.LBB2351:
	.loc 4 350 0
	lwz 0,8(31)
.LBE2351:
.LBE2356:
	.loc 4 776 0
	addi 4,11,6
	.loc 4 775 0
	addi 29,11,5
.LVL415:
.LBB2357:
.LBB2352:
	.loc 4 350 0
	cmpw 7,4,0
	ble+ 7,.L217
	b .L215
.LVL416:
.L251:
.LBE2352:
.LBE2357:
.LBE2361:
.LBE2365:
.LBE2562:
.LBB2563:
.LBB2477:
.LBB2474:
.LBB2471:
.LBB2468:
	.loc 4 351 0
	mr 3,31
	li 5,1
	bl _ZN5idStr10ReAllocateEib
.LVL417:
	lwz 11,0(31)
	b .L253
.LVL418:
.L211:
.LBE2468:
.LBE2471:
.LBE2474:
.LBE2477:
.LBE2563:
.LBB2564:
.LBB2559:
.LBB2556:
.LBB2553:
.LBB2550:
	mr 3,31
	li 5,1
	bl _ZN5idStr10ReAllocateEib
.LVL419:
	lwz 11,0(31)
	b .L213
.LVL420:
.L241:
.LBE2550:
.LBE2553:
.LBE2556:
.LBE2559:
.LBE2564:
.LBB2565:
.LBB2539:
.LBB2536:
.LBB2533:
.LBB2530:
	mr 3,31
	li 5,1
	bl _ZN5idStr10ReAllocateEib
.LVL421:
	lwz 11,0(31)
	b .L243
.LVL422:
.L231:
.LBE2530:
.LBE2533:
.LBE2536:
.LBE2539:
.LBE2565:
.LBB2566:
.LBB2518:
.LBB2515:
.LBB2512:
.LBB2509:
	mr 3,31
	li 5,1
	bl _ZN5idStr10ReAllocateEib
.LVL423:
	lwz 11,0(31)
	b .L233
.LVL424:
.L221:
.LBE2509:
.LBE2512:
.LBE2515:
.LBE2518:
.LBE2566:
.LBB2567:
.LBB2498:
.LBB2495:
.LBB2492:
.LBB2489:
	mr 3,31
	li 5,1
	bl _ZN5idStr10ReAllocateEib
.LVL425:
	lwz 11,0(31)
	b .L223
.LBE2489:
.LBE2492:
.LBE2495:
.LBE2498:
.LBE2567:
	.cfi_endproc
.LFE2559:
	.size	_ZN8idDeclAF16ContentsToStringEiR5idStr, .-_ZN8idDeclAF16ContentsToStringEiR5idStr
	.align 2
	.globl _ZNK8idDeclAF13WriteSettingsEP6idFile
	.type	_ZNK8idDeclAF13WriteSettingsEP6idFile, @function
_ZNK8idDeclAF13WriteSettingsEP6idFile:
.LFB2555:
	.loc 3 579 0
	.cfi_startproc
	.cfi_personality 0,__gxx_personality_v0
	.cfi_lsda 0,.LLSDA2555
.LVL426:
	mflr 0
	stwu 1,-56(1)
.LCFI76:
	.cfi_def_cfa_offset 56
	.cfi_register 65, 0
.LVL427:
.LBB2568:
.LBB2569:
.LBB2570:
.LBB2571:
	.loc 4 357 0
	li 11,20
.LBE2571:
.LBE2570:
.LBE2569:
.LBE2568:
	.loc 3 579 0
	stw 29,44(1)
	addi 29,1,8
	.cfi_offset 29, -12
	stw 0,60(1)
.LBB2590:
.LBB2580:
.LBB2576:
.LBB2572:
	.loc 4 356 0
	li 0,0
	.cfi_offset 65, 4
.LBE2572:
.LBE2576:
.LBE2580:
.LBE2590:
	.loc 3 579 0
	stw 30,48(1)
	mr 30,3
	.cfi_offset 30, -8
	stw 31,52(1)
.LBB2591:
	.loc 3 582 0
	mr 3,4
.LVL428:
.LBE2591:
	.loc 3 579 0
	stw 28,40(1)
	.loc 3 579 0
	mr 31,4
	.cfi_offset 28, -16
	.cfi_offset 31, -4
.LBB2592:
.LBB2581:
.LBB2577:
.LBB2573:
	.loc 4 356 0
	stw 0,8(1)
.LBE2573:
.LBE2577:
.LBE2581:
	.loc 3 582 0
	lwz 9,0(4)
	lis 4,.LC68@ha
.LVL429:
.LBB2582:
.LBB2578:
.LBB2574:
	.loc 4 359 0
	stb 0,20(1)
.LBE2574:
.LBE2578:
.LBE2582:
	.loc 3 582 0
	la 4,.LC68@l(4)
	lwz 0,64(9)
.LBB2583:
.LBB2579:
.LBB2575:
	.loc 4 357 0
	stw 11,16(1)
	.loc 4 358 0
	addi 11,1,20
	stw 11,12(1)
.LBE2575:
.LBE2579:
.LBE2583:
	.loc 3 582 0
	mtctr 0
.LEHB19:
	crxor 6,6,6
	bctrl
.LVL430:
	.loc 3 583 0
	lwz 9,0(31)
	lis 4,.LC69@ha
	mr 3,31
	la 4,.LC69@l(4)
	lwz 0,64(9)
	addi 29,1,8
	lwz 5,16(30)
	mtctr 0
	crxor 6,6,6
	bctrl
	.loc 3 584 0
	lwz 9,0(31)
	lis 4,.LC70@ha
	mr 3,31
	la 4,.LC70@l(4)
	lwz 0,64(9)
	addi 29,1,8
	lwz 5,48(30)
	mtctr 0
	crxor 6,6,6
	bctrl
	.loc 3 585 0
	lwz 9,0(31)
	lis 4,.LC71@ha
	mr 3,31
	la 4,.LC71@l(4)
	lwz 0,64(9)
	addi 29,1,8
	lfs 1,76(30)
	lfs 2,80(30)
	mtctr 0
	lfs 3,84(30)
	lfs 4,88(30)
	creqv 6,6,6
	bctrl
.LVL431:
	.loc 3 586 0
	lwz 9,0(31)
	lis 4,.LC72@ha
	mr 3,31
	la 4,.LC72@l(4)
	lwz 0,64(9)
	addi 29,1,8
	lfs 1,96(30)
	lfs 2,100(30)
	mtctr 0
	lfs 3,104(30)
	lfs 4,108(30)
	creqv 6,6,6
	bctrl
	.loc 3 587 0
	lwz 9,0(31)
	lis 4,.LC73@ha
	mr 3,31
	la 4,.LC73@l(4)
	lwz 0,64(9)
	addi 29,1,8
	lfs 1,112(30)
	mtctr 0
	creqv 6,6,6
	bctrl
	.loc 3 588 0
	lwz 9,0(31)
	lis 4,.LC74@ha
	mr 3,31
	la 4,.LC74@l(4)
	lwz 0,64(9)
	addi 29,1,8
	lfs 1,116(30)
	mtctr 0
	creqv 6,6,6
	bctrl
	.loc 3 589 0
	lwz 9,0(31)
	lis 4,.LC75@ha
	mr 3,31
	la 4,.LC75@l(4)
	lwz 0,64(9)
	addi 29,1,8
	lfs 1,120(30)
	mtctr 0
	creqv 6,6,6
	bctrl
	.loc 3 590 0
	lwz 9,0(31)
	lis 4,.LC76@ha
	mr 3,31
	la 4,.LC76@l(4)
	lwz 0,64(9)
	addi 29,1,8
	lfs 1,124(30)
	mtctr 0
	creqv 6,6,6
	bctrl
	.loc 3 591 0
	lwz 9,0(31)
	lis 4,.LC77@ha
	mr 3,31
	la 4,.LC77@l(4)
	lwz 0,64(9)
	addi 29,1,8
	lfs 1,128(30)
	mtctr 0
	creqv 6,6,6
	bctrl
	.loc 3 592 0
	lwz 9,0(31)
	lis 4,.LC78@ha
	mr 3,31
	la 4,.LC78@l(4)
	lwz 0,64(9)
	addi 29,1,8
	lfs 1,92(30)
	mtctr 0
	creqv 6,6,6
	bctrl
	.loc 3 593 0
	lwz 9,0(31)
	addi 29,1,8
	lwz 3,132(30)
	mr 4,29
	lwz 28,64(9)
	bl _ZN8idDeclAF16ContentsToStringEiR5idStr
	lis 4,.LC79@ha
	mr 5,3
	la 4,.LC79@l(4)
	mr 3,31
	mtctr 28
	crxor 6,6,6
	bctrl
	.loc 3 594 0
	lwz 9,0(31)
	mr 4,29
	lwz 3,136(30)
	lwz 28,64(9)
	bl _ZN8idDeclAF16ContentsToStringEiR5idStr
	lis 4,.LC80@ha
	mr 5,3
	la 4,.LC80@l(4)
	mr 3,31
	mtctr 28
	crxor 6,6,6
	bctrl
	.loc 3 595 0
	lwz 9,0(31)
	lis 4,.LC81@ha
	mr 3,31
	la 4,.LC81@l(4)
	lwz 0,64(9)
	lbz 5,140(30)
	mtctr 0
	crxor 6,6,6
	bctrl
	.loc 3 596 0
	lwz 9,0(31)
	lis 4,.LC32@ha
	mr 3,31
	la 4,.LC32@l(4)
	lwz 0,64(9)
	mtctr 0
	crxor 6,6,6
	bctrl
.LEHE19:
.LVL432:
.LBB2584:
.LBB2585:
.LBB2586:
	.loc 4 501 0
	mr 3,29
.LEHB20:
	bl _ZN5idStr8FreeDataEv
.LEHE20:
.LBE2586:
.LBE2585:
.LBE2584:
.LBE2592:
	.loc 3 598 0
	lwz 0,60(1)
	lwz 28,40(1)
	li 3,1
	mtlr 0
	lwz 29,44(1)
	lwz 30,48(1)
.LVL433:
	lwz 31,52(1)
.LVL434:
	addi 1,1,56
	.cfi_remember_state
.LCFI77:
	.cfi_def_cfa_offset 0
	.cfi_restore 31
	.cfi_restore 30
	.cfi_restore 29
	.cfi_restore 28
	blr
.LVL435:
.L279:
.LCFI78:
	.cfi_restore_state
	mr 31,3
.LVL436:
.LBB2593:
.LBB2587:
.LBB2588:
.LBB2589:
	.loc 4 501 0
	mr 3,29
	bl _ZN5idStr8FreeDataEv
	mr 3,31
.LEHB21:
	bl _Unwind_Resume
.LEHE21:
.LBE2589:
.LBE2588:
.LBE2587:
.LBE2593:
	.cfi_endproc
.LFE2555:
	.section	.gcc_except_table
.LLSDA2555:
	.byte	0xff
	.byte	0xff
	.byte	0x1
	.uleb128 .LLSDACSE2555-.LLSDACSB2555
.LLSDACSB2555:
	.uleb128 .LEHB19-.LFB2555
	.uleb128 .LEHE19-.LEHB19
	.uleb128 .L279-.LFB2555
	.uleb128 0
	.uleb128 .LEHB20-.LFB2555
	.uleb128 .LEHE20-.LEHB20
	.uleb128 0
	.uleb128 0
	.uleb128 .LEHB21-.LFB2555
	.uleb128 .LEHE21-.LEHB21
	.uleb128 0
	.uleb128 0
.LLSDACSE2555:
	.section	".text"
	.size	_ZNK8idDeclAF13WriteSettingsEP6idFile, .-_ZNK8idDeclAF13WriteSettingsEP6idFile
	.align 2
	.globl _ZNK8idDeclAF9WriteBodyEP6idFileRK13idDeclAF_Body
	.type	_ZNK8idDeclAF9WriteBodyEP6idFileRK13idDeclAF_Body, @function
_ZNK8idDeclAF9WriteBodyEP6idFileRK13idDeclAF_Body:
.LFB2547:
	.loc 3 311 0
	.cfi_startproc
	.cfi_personality 0,__gxx_personality_v0
	.cfi_lsda 0,.LLSDA2547
.LVL437:
	mflr 0
	stwu 1,-72(1)
.LCFI79:
	.cfi_def_cfa_offset 72
	.cfi_register 65, 0
.LVL438:
.LBB2594:
.LBB2595:
.LBB2596:
.LBB2597:
	.loc 4 357 0
	li 11,20
.LBE2597:
.LBE2596:
.LBE2595:
	.loc 3 314 0
	mr 3,4
.LVL439:
.LBE2594:
	.loc 3 311 0
	stw 29,60(1)
	addi 29,1,16
	.cfi_offset 29, -12
	stw 0,76(1)
.LBB2663:
.LBB2606:
.LBB2602:
.LBB2598:
	.loc 4 356 0
	li 0,0
	.cfi_offset 65, 4
.LBE2598:
.LBE2602:
.LBE2606:
.LBE2663:
	.loc 3 311 0
	stw 30,64(1)
	mr 30,5
	.cfi_offset 30, -8
	stw 31,68(1)
	mr 31,4
	.cfi_offset 31, -4
	stw 26,48(1)
	stw 27,52(1)
	stw 28,56(1)
.LBB2664:
.LBB2607:
.LBB2603:
.LBB2599:
	.loc 4 356 0
	stw 0,16(1)
.LBE2599:
.LBE2603:
.LBE2607:
	.loc 3 314 0
	lwz 9,0(4)
	lis 4,.LC83@ha
.LVL440:
.LBB2608:
.LBB2604:
.LBB2600:
	.loc 4 359 0
	stb 0,28(1)
.LBE2600:
.LBE2604:
.LBE2608:
	.loc 3 314 0
	la 4,.LC83@l(4)
	lwz 0,64(9)
.LBB2609:
.LBB2605:
.LBB2601:
	.loc 4 357 0
	stw 11,24(1)
	.loc 4 358 0
	addi 11,1,28
	stw 11,20(1)
.LBE2601:
.LBE2605:
.LBE2609:
	.loc 3 314 0
	mtctr 0
	lwz 5,4(5)
.LVL441:
.LEHB22:
	.cfi_offset 28, -16
	.cfi_offset 27, -20
	.cfi_offset 26, -24
	crxor 6,6,6
	bctrl
.LVL442:
	.loc 3 315 0
	lwz 9,0(31)
	lis 4,.LC84@ha
	mr 3,31
	la 4,.LC84@l(4)
	lwz 0,64(9)
	addi 29,1,16
	lwz 5,36(30)
	mtctr 0
	crxor 6,6,6
	bctrl
	.loc 3 316 0
	lwz 9,64(30)
	lwz 11,0(31)
	addi 9,9,-1
	cmplwi 7,9,1
	lwz 0,64(11)
.LVL443:
	ble- 7,.L341
.LBB2610:
	lis 5,.LC82@ha
	la 5,.LC82@l(5)
.L281:
.LBE2610:
	lis 4,.LC85@ha
	mr 3,31
	la 4,.LC85@l(4)
	mtctr 0
	addi 29,1,16
	crxor 6,6,6
	bctrl
.LVL444:
	.loc 3 317 0
	lwz 0,68(30)
	cmplwi 7,0,6
	bgt- 7,.L282
	lis 9,.L289@ha
	slwi 0,0,2
	la 9,.L289@l(9)
	lwzx 0,9,0
	add 9,0,9
	mtctr 9
	bctr
	.section	.rodata
	.align 2
	.align 2
.L289:
	.long .L282-.L289
	.long .L283-.L289
	.long .L284-.L289
	.long .L285-.L289
	.long .L286-.L289
	.long .L287-.L289
	.long .L288-.L289
	.section	".text"
.L286:
	.loc 3 343 0
	lwz 9,0(31)
	lis 4,.LC90@ha
	mr 3,31
	la 4,.LC90@l(4)
	lwz 0,64(9)
	addi 29,1,16
	mtctr 0
	crxor 6,6,6
	bctrl
.L340:
	.loc 3 352 0
	addi 3,30,72
	mr 4,31
	addi 29,1,16
	bl _ZNK10idAFVector5WriteEP6idFile
	.loc 3 353 0
	lwz 9,0(31)
	lis 4,.LC43@ha
	mr 3,31
	la 4,.LC43@l(4)
	lwz 0,64(9)
	addi 29,1,16
	mtctr 0
	crxor 6,6,6
	bctrl
	.loc 3 354 0
	addi 3,30,156
	mr 4,31
	addi 29,1,16
	bl _ZNK10idAFVector5WriteEP6idFile
	.loc 3 355 0
	lwz 9,0(31)
	lis 4,.LC91@ha
	mr 3,31
	la 4,.LC91@l(4)
	lwz 0,64(9)
	addi 29,1,16
	lwz 5,240(30)
	mtctr 0
	crxor 6,6,6
	bctrl
.L282:
	.loc 3 370 0
	lwz 9,0(31)
	lis 4,.LC95@ha
	mr 3,31
	la 4,.LC95@l(4)
	lwz 0,64(9)
	addi 29,1,16
	mtctr 0
	crxor 6,6,6
	bctrl
	.loc 3 371 0
	addi 3,30,252
	mr 4,31
	addi 29,1,16
	bl _ZNK10idAFVector5WriteEP6idFile
	.loc 3 372 0
	lwz 9,0(31)
	lis 27,.LC35@ha
	la 27,.LC35@l(27)
	mr 3,31
	lwz 0,64(9)
	mr 4,27
	addi 29,1,16
	mtctr 0
	crxor 6,6,6
	bctrl
.LVL445:
.LBB2611:
.LBB2612:
.LBB2613:
	.loc 7 205 0
	lis 9,ang_zero@ha
	lfs 1,336(30)
	lfs 0,ang_zero@l(9)
	la 9,ang_zero@l(9)
	lfs 2,340(30)
	fcmpu 7,0,1
	bne- 7,.L290
	lfs 0,4(9)
	lfs 3,344(30)
	fcmpu 7,0,2
	beq- 7,.L291
.L292:
.LBE2613:
.LBE2612:
.LBE2611:
	.loc 3 374 0
	lwz 9,0(31)
	lis 4,.LC99@ha
	mr 3,31
	la 4,.LC99@l(4)
	lwz 0,64(9)
	addi 29,1,16
	mtctr 0
	creqv 6,6,6
	bctrl
.L310:
	.loc 3 376 0
	lwz 9,0(31)
	lis 4,.LC96@ha
	mr 3,31
	la 4,.LC96@l(4)
	lwz 0,64(9)
	addi 29,1,16
	lfs 1,248(30)
	mtctr 0
	creqv 6,6,6
	bctrl
.LVL446:
.LBB2616:
.LBB2617:
.LBB2618:
.LBB2619:
	.loc 5 497 0
	lis 9,mat3_identity@ha
	lfs 1,360(30)
	lfs 0,mat3_identity@l(9)
	la 9,mat3_identity@l(9)
	lfs 2,364(30)
	fcmpu 7,1,0
	bne- 7,.L293
	lfs 0,4(9)
	lfs 3,368(30)
	fcmpu 7,2,0
	bne- 7,.L342
	lfs 0,8(9)
.LBE2619:
.LBE2618:
.LBB2622:
.LBB2623:
	lfs 4,372(30)
.LBE2623:
.LBE2622:
.LBB2627:
.LBB2620:
	fcmpu 7,3,0
	bne- 7,.L324
.LVL447:
.LBE2620:
.LBE2627:
.LBB2628:
.LBB2624:
	lfs 0,12(9)
	lfs 5,376(30)
	fcmpu 7,4,0
	beq- 7,.L297
	lfs 6,380(30)
	lfs 7,384(30)
	lfs 8,388(30)
	lfs 0,392(30)
	b .L295
.LVL448:
.L290:
.LBE2624:
.LBE2628:
.LBE2617:
.LBE2616:
.LBB2638:
.LBB2639:
.LBB2640:
	.loc 4 501 0
	lfs 3,344(30)
	b .L292
.LVL449:
.L293:
.LBE2640:
.LBE2639:
.LBE2638:
	.loc 3 374 0
	lfs 3,368(30)
	lfs 4,372(30)
.L324:
	lfs 5,376(30)
	lfs 6,380(30)
	lfs 7,384(30)
	lfs 8,388(30)
.L325:
	lfs 0,392(30)
.L295:
.LVL450:
.LBB2643:
	.loc 3 382 0
	lwz 9,0(31)
	lis 4,.LC100@ha
	stfd 0,8(1)
	mr 3,31
	la 4,.LC100@l(4)
	addi 29,1,16
	lwz 0,64(9)
	mtctr 0
	creqv 6,6,6
	bctrl
.LVL451:
.L311:
.LBE2643:
	.loc 3 384 0
	lis 9,.LC28@ha
	lfs 1,396(30)
	lfs 0,.LC28@l(9)
	fcmpu 7,1,0
	beq- 7,.L302
	.loc 3 385 0
	lwz 9,0(31)
	lis 4,.LC97@ha
	mr 3,31
	la 4,.LC97@l(4)
	lwz 0,64(9)
	addi 29,1,16
	lfs 2,400(30)
	lfs 3,404(30)
	mtctr 0
	creqv 6,6,6
	bctrl
.L302:
	.loc 3 387 0
	lwz 9,0(31)
	addi 29,1,16
	lwz 3,348(30)
	mr 4,29
	lwz 28,64(9)
	bl _ZN8idDeclAF16ContentsToStringEiR5idStr
	lis 4,.LC79@ha
	mr 5,3
	la 4,.LC79@l(4)
	mr 3,31
	mtctr 28
	crxor 6,6,6
	bctrl
	.loc 3 388 0
	lwz 9,0(31)
	mr 4,29
	lwz 3,352(30)
	lwz 28,64(9)
	bl _ZN8idDeclAF16ContentsToStringEiR5idStr
	lis 4,.LC80@ha
	mr 5,3
	la 4,.LC80@l(4)
	mr 3,31
	mtctr 28
	crxor 6,6,6
	bctrl
	.loc 3 389 0
	lwz 9,0(31)
	lis 4,.LC81@ha
	mr 3,31
	la 4,.LC81@l(4)
	lwz 0,64(9)
	lbz 5,356(30)
	mtctr 0
	crxor 6,6,6
	bctrl
.LVL452:
.LBB2644:
.LBB2645:
.LBB2646:
	.loc 5 497 0
	lis 28,vec3_origin@ha
	lfs 13,508(30)
	lfs 0,vec3_origin@l(28)
	la 26,vec3_origin@l(28)
	fcmpu 7,13,0
	bne- 7,.L303
	lfs 12,512(30)
	lfs 13,4(26)
	fcmpu 7,12,13
	beq- 7,.L343
.L303:
.LBE2646:
.LBE2645:
.LBE2644:
	.loc 3 391 0
	lwz 9,0(31)
	lis 4,.LC101@ha
	mr 3,31
	la 4,.LC101@l(4)
	lwz 0,64(9)
	mtctr 0
	crxor 6,6,6
	bctrl
	.loc 3 392 0
	addi 3,30,440
	mr 4,31
	bl _ZNK10idAFVector5WriteEP6idFile
	.loc 3 393 0
	lwz 9,0(31)
	mr 3,31
	mr 4,27
	lwz 0,64(9)
	mtctr 0
	crxor 6,6,6
	bctrl
	lfs 0,vec3_origin@l(28)
.L304:
.LVL453:
.LBB2649:
.LBB2650:
.LBB2651:
	.loc 5 497 0
	lfs 13,592(30)
	fcmpu 7,13,0
	bne- 7,.L305
	lfs 13,596(30)
	lfs 0,4(26)
	fcmpu 7,13,0
	beq- 7,.L344
.L305:
.LBE2651:
.LBE2650:
.LBE2649:
	.loc 3 396 0
	lwz 9,0(31)
	lis 4,.LC102@ha
	mr 3,31
	la 4,.LC102@l(4)
	lwz 0,64(9)
	mtctr 0
	crxor 6,6,6
	bctrl
	.loc 3 397 0
	addi 3,30,524
	mr 4,31
	bl _ZNK10idAFVector5WriteEP6idFile
	.loc 3 398 0
	lwz 9,0(31)
	mr 3,31
	mr 4,27
	lwz 0,64(9)
	mtctr 0
	crxor 6,6,6
	bctrl
.L306:
	.loc 3 400 0
	lwz 9,0(31)
	lis 4,.LC98@ha
	mr 3,31
	la 4,.LC98@l(4)
	lwz 0,64(9)
	lwz 5,412(30)
	mtctr 0
	crxor 6,6,6
	bctrl
	.loc 3 401 0
	lwz 9,0(31)
	lis 4,.LC32@ha
	mr 3,31
	la 4,.LC32@l(4)
	lwz 0,64(9)
	mtctr 0
	crxor 6,6,6
	bctrl
.LEHE22:
.LVL454:
.LBB2654:
.LBB2655:
.LBB2656:
	.loc 4 501 0
	mr 3,29
.LEHB23:
	bl _ZN5idStr8FreeDataEv
.LEHE23:
.LBE2656:
.LBE2655:
.LBE2654:
.LBE2664:
	.loc 3 403 0
	lwz 0,76(1)
	lwz 26,48(1)
	li 3,1
	mtlr 0
	lwz 27,52(1)
	lwz 28,56(1)
	lwz 29,60(1)
	lwz 30,64(1)
.LVL455:
	lwz 31,68(1)
.LVL456:
	addi 1,1,72
	.cfi_remember_state
.LCFI80:
	.cfi_def_cfa_offset 0
	.cfi_restore 31
	.cfi_restore 30
	.cfi_restore 29
	.cfi_restore 28
	.cfi_restore 27
	.cfi_restore 26
	blr
.LVL457:
.L344:
.LCFI81:
	.cfi_restore_state
.LBB2665:
.LBB2657:
.LBB2653:
.LBB2652:
	.loc 5 497 0
	lfs 13,600(30)
	lfs 0,8(26)
	fcmpu 7,13,0
	beq- 7,.L306
	b .L305
.LVL458:
.L343:
.LBE2652:
.LBE2653:
.LBE2657:
.LBB2658:
.LBB2648:
.LBB2647:
	lfs 12,516(30)
	lfs 13,8(26)
	fcmpu 7,12,13
	beq- 7,.L304
	b .L303
.LVL459:
.L342:
.LBE2647:
.LBE2648:
.LBE2658:
.LBB2659:
.LBB2636:
.LBB2629:
.LBB2621:
	lfs 4,372(30)
	lfs 5,376(30)
	lfs 6,380(30)
	lfs 7,384(30)
	lfs 8,388(30)
	lfs 0,392(30)
	b .L295
.LVL460:
.L291:
.LBE2621:
.LBE2629:
.LBE2636:
.LBE2659:
.LBB2660:
.LBB2615:
.LBB2614:
	.loc 7 205 0
	lfs 0,8(9)
	fcmpu 7,0,3
	bne- 7,.L292
	b .L310
.LVL461:
.L341:
.LBE2614:
.LBE2615:
.LBE2660:
	.loc 3 316 0
	lis 11,.LANCHOR0@ha
	slwi 9,9,2
	la 11,.LANCHOR0@l(11)
	lwzx 5,11,9
	b .L281
.LVL462:
.L283:
	.loc 3 319 0
	lwz 9,0(31)
	lis 4,.LC86@ha
	mr 3,31
	la 4,.LC86@l(4)
	lwz 0,64(9)
	addi 29,1,16
	mtctr 0
.LEHB24:
	crxor 6,6,6
	bctrl
.L337:
	.loc 3 336 0
	addi 3,30,72
	mr 4,31
	addi 29,1,16
	bl _ZNK10idAFVector5WriteEP6idFile
	.loc 3 337 0
	lwz 9,0(31)
	lis 4,.LC43@ha
	mr 3,31
	la 4,.LC43@l(4)
	lwz 0,64(9)
	addi 29,1,16
	mtctr 0
	crxor 6,6,6
	bctrl
	.loc 3 338 0
	addi 3,30,156
	mr 4,31
	addi 29,1,16
	bl _ZNK10idAFVector5WriteEP6idFile
	.loc 3 339 0
	lwz 9,0(31)
	lis 4,.LC87@ha
	mr 3,31
	la 4,.LC87@l(4)
	lwz 0,64(9)
	addi 29,1,16
	mtctr 0
	crxor 6,6,6
	bctrl
	b .L282
.L284:
	.loc 3 327 0
	lwz 9,0(31)
	lis 4,.LC88@ha
	mr 3,31
	la 4,.LC88@l(4)
	lwz 0,64(9)
	addi 29,1,16
	mtctr 0
	crxor 6,6,6
	bctrl
	b .L337
.L285:
	.loc 3 335 0
	lwz 9,0(31)
	lis 4,.LC89@ha
	mr 3,31
	la 4,.LC89@l(4)
	lwz 0,64(9)
	addi 29,1,16
	mtctr 0
	crxor 6,6,6
	bctrl
	b .L337
.L287:
	.loc 3 351 0
	lwz 9,0(31)
	lis 4,.LC92@ha
	mr 3,31
	la 4,.LC92@l(4)
	lwz 0,64(9)
	addi 29,1,16
	mtctr 0
	crxor 6,6,6
	bctrl
	b .L340
.L288:
	.loc 3 359 0
	lwz 9,0(31)
	lis 4,.LC93@ha
	mr 3,31
	la 4,.LC93@l(4)
	lwz 0,64(9)
	addi 29,1,16
	mtctr 0
	crxor 6,6,6
	bctrl
	.loc 3 360 0
	addi 3,30,72
	mr 4,31
	addi 29,1,16
	bl _ZNK10idAFVector5WriteEP6idFile
	.loc 3 361 0
	lwz 9,0(31)
	lis 4,.LC43@ha
	mr 3,31
	la 4,.LC43@l(4)
	lwz 0,64(9)
	addi 29,1,16
	mtctr 0
	crxor 6,6,6
	bctrl
	.loc 3 362 0
	addi 3,30,156
	mr 4,31
	addi 29,1,16
	bl _ZNK10idAFVector5WriteEP6idFile
	.loc 3 363 0
	lwz 9,0(31)
	lis 4,.LC94@ha
	mr 3,31
	la 4,.LC94@l(4)
	lwz 0,64(9)
	addi 29,1,16
	lfs 1,244(30)
	mtctr 0
	creqv 6,6,6
	bctrl
.LEHE24:
	b .L282
.LVL463:
.L297:
.LBB2661:
.LBB2637:
.LBB2630:
.LBB2625:
	.loc 5 497 0
	lfs 0,16(9)
	lfs 6,380(30)
	fcmpu 7,5,0
	beq- 7,.L298
	lfs 7,384(30)
	lfs 8,388(30)
	lfs 0,392(30)
	b .L295
.L298:
	lfs 0,20(9)
.LBE2625:
.LBE2630:
.LBB2631:
.LBB2632:
	lfs 7,384(30)
.LBE2632:
.LBE2631:
.LBB2634:
.LBB2626:
	fcmpu 7,6,0
	beq- 7,.L299
	lfs 8,388(30)
	lfs 0,392(30)
	b .L295
.L299:
.LVL464:
.LBE2626:
.LBE2634:
.LBB2635:
.LBB2633:
	lfs 0,24(9)
	lfs 8,388(30)
	fcmpu 7,7,0
	bne- 7,.L325
	lfs 0,28(9)
	fcmpu 7,8,0
	lfs 0,392(30)
	bne- 7,.L295
	lfs 13,32(9)
	fcmpu 7,0,13
	bne- 7,.L295
	b .L311
.LVL465:
.L315:
	mr 31,3
.LVL466:
.LBE2633:
.LBE2635:
.LBE2637:
.LBE2661:
.LBB2662:
.LBB2642:
.LBB2641:
	.loc 4 501 0
	mr 3,29
	bl _ZN5idStr8FreeDataEv
	mr 3,31
.LEHB25:
	bl _Unwind_Resume
.LEHE25:
.LBE2641:
.LBE2642:
.LBE2662:
.LBE2665:
	.cfi_endproc
.LFE2547:
	.section	.gcc_except_table
.LLSDA2547:
	.byte	0xff
	.byte	0xff
	.byte	0x1
	.uleb128 .LLSDACSE2547-.LLSDACSB2547
.LLSDACSB2547:
	.uleb128 .LEHB22-.LFB2547
	.uleb128 .LEHE22-.LEHB22
	.uleb128 .L315-.LFB2547
	.uleb128 0
	.uleb128 .LEHB23-.LFB2547
	.uleb128 .LEHE23-.LEHB23
	.uleb128 0
	.uleb128 0
	.uleb128 .LEHB24-.LFB2547
	.uleb128 .LEHE24-.LEHB24
	.uleb128 .L315-.LFB2547
	.uleb128 0
	.uleb128 .LEHB25-.LFB2547
	.uleb128 .LEHE25-.LEHB25
	.uleb128 0
	.uleb128 0
.LLSDACSE2547:
	.section	".text"
	.size	_ZNK8idDeclAF9WriteBodyEP6idFileRK13idDeclAF_Body, .-_ZNK8idDeclAF9WriteBodyEP6idFileRK13idDeclAF_Body
	.align 2
	.globl _ZN8idDeclAF17RebuildTextSourceEv
	.type	_ZN8idDeclAF17RebuildTextSourceEv, @function
_ZN8idDeclAF17RebuildTextSourceEv:
.LFB2556:
	.loc 3 606 0
	.cfi_startproc
	.cfi_personality 0,__gxx_personality_v0
	.cfi_lsda 0,.LLSDA2556
.LVL467:
	stwu 1,-80(1)
.LCFI82:
	.cfi_def_cfa_offset 80
	mflr 0
	stw 31,76(1)
	mr 31,3
	.cfi_offset 31, -4
	.cfi_register 65, 0
.LBB2666:
	.loc 3 608 0
	addi 3,1,8
.LVL468:
.LBE2666:
	.loc 3 606 0
	stw 0,84(1)
	stw 30,72(1)
.LEHB26:
.LBB2675:
	.loc 3 608 0
	.cfi_offset 30, -8
	.cfi_offset 65, 4
	bl _ZN13idFile_MemoryC1Ev
.LEHE26:
	.loc 3 613 0
	lis 4,.LC103@ha
	addi 3,1,8
	la 4,.LC103@l(4)
.LEHB27:
	crxor 6,6,6
	bl _ZN6idFile16WriteFloatStringEPKcz
	.loc 3 1753 0
	lwz 3,4(31)
.LBB2667:
.LBB2668:
	.loc 2 140 0
	lwz 9,0(3)
	lwz 0,8(9)
	mtctr 0
	bctrl
.LBE2668:
.LBE2667:
	.loc 3 615 0
	lis 4,.LC104@ha
.LBB2670:
.LBB2669:
	.loc 2 140 0
	mr 5,3
.LBE2669:
.LBE2670:
	.loc 3 615 0
	la 4,.LC104@l(4)
	addi 3,1,8
	crxor 6,6,6
	bl _ZN6idFile16WriteFloatStringEPKcz
	.loc 3 617 0
	mr 3,31
	addi 4,1,8
	bl _ZNK8idDeclAF13WriteSettingsEP6idFile
	cmpwi 7,3,0
	beq- 7,.L354
.LVL469:
	.loc 3 621 0 discriminator 1
	lwz 0,144(31)
	cmpwi 7,0,0
	ble- 7,.L347
	.loc 3 621 0 is_stmt 0
	li 30,0
	b .L348
.LVL470:
.L358:
	lwz 0,144(31)
	addi 30,30,1
.LVL471:
	cmpw 7,0,30
	ble- 7,.L347
.LVL472:
.L348:
	.loc 3 622 0 is_stmt 1
	lwz 9,156(31)
	slwi 0,30,2
	mr 3,31
	addi 4,1,8
	lwzx 5,9,0
	bl _ZNK8idDeclAF9WriteBodyEP6idFileRK13idDeclAF_Body
.LEHE27:
	cmpwi 7,3,0
	bne+ 7,.L358
.LVL473:
.L354:
	.loc 3 637 0
	addi 3,1,8
	.loc 3 629 0
	li 31,0
.LVL474:
.LEHB28:
	.loc 3 637 0
	bl _ZN13idFile_MemoryD1Ev
.LEHE28:
.LBE2675:
	.loc 3 638 0
	lwz 0,84(1)
	mr 3,31
	lwz 30,72(1)
	mtlr 0
	lwz 31,76(1)
	addi 1,1,80
	.cfi_remember_state
.LCFI83:
	.cfi_def_cfa_offset 0
	.cfi_restore 31
	.cfi_restore 30
	blr
.LVL475:
.L347:
.LCFI84:
	.cfi_restore_state
.LBB2676:
	.loc 3 627 0 discriminator 1
	lwz 0,160(31)
	cmpwi 7,0,0
	ble- 7,.L349
	.loc 3 627 0 is_stmt 0
	li 30,0
	b .L350
.LVL476:
.L359:
	lwz 0,160(31)
	addi 30,30,1
.LVL477:
	cmpw 7,0,30
	ble- 7,.L349
.LVL478:
.L350:
	.loc 3 628 0 is_stmt 1
	lwz 9,172(31)
	slwi 0,30,2
	mr 3,31
	addi 4,1,8
	lwzx 5,9,0
.LEHB29:
	bl _ZNK8idDeclAF15WriteConstraintEP6idFileRK19idDeclAF_Constraint
	cmpwi 7,3,0
	bne+ 7,.L359
	b .L354
.LVL479:
.L349:
	.loc 3 633 0
	lis 4,.LC105@ha
	addi 3,1,8
	la 4,.LC105@l(4)
	crxor 6,6,6
	bl _ZN6idFile16WriteFloatStringEPKcz
	.loc 3 1753 0
	lwz 3,4(31)
.LVL480:
.LBB2671:
.LBB2672:
	.loc 2 180 0
	lwz 4,64(1)
	lwz 9,0(3)
	lwz 0,60(9)
	mtctr 0
	bctrl
.LEHE29:
.LVL481:
.LBE2672:
.LBE2671:
	.loc 3 637 0
	addi 3,1,8
.LBB2674:
.LBB2673:
	li 31,1
.LVL482:
.LEHB30:
.LBE2673:
.LBE2674:
	bl _ZN13idFile_MemoryD1Ev
.LEHE30:
.LBE2676:
	.loc 3 638 0
	lwz 0,84(1)
	mr 3,31
	lwz 30,72(1)
	mtlr 0
	lwz 31,76(1)
	addi 1,1,80
	.cfi_remember_state
	.cfi_restore 30
	.cfi_restore 31
.LCFI85:
	.cfi_def_cfa_offset 0
	blr
.LVL483:
.L355:
.LCFI86:
	.cfi_restore_state
	mr 31,3
.LVL484:
.LBB2677:
	.loc 3 637 0
	addi 3,1,8
	bl _ZN13idFile_MemoryD1Ev
	mr 3,31
.LEHB31:
	bl _Unwind_Resume
.LEHE31:
.LBE2677:
	.cfi_endproc
.LFE2556:
	.section	.gcc_except_table
.LLSDA2556:
	.byte	0xff
	.byte	0xff
	.byte	0x1
	.uleb128 .LLSDACSE2556-.LLSDACSB2556
.LLSDACSB2556:
	.uleb128 .LEHB26-.LFB2556
	.uleb128 .LEHE26-.LEHB26
	.uleb128 0
	.uleb128 0
	.uleb128 .LEHB27-.LFB2556
	.uleb128 .LEHE27-.LEHB27
	.uleb128 .L355-.LFB2556
	.uleb128 0
	.uleb128 .LEHB28-.LFB2556
	.uleb128 .LEHE28-.LEHB28
	.uleb128 0
	.uleb128 0
	.uleb128 .LEHB29-.LFB2556
	.uleb128 .LEHE29-.LEHB29
	.uleb128 .L355-.LFB2556
	.uleb128 0
	.uleb128 .LEHB30-.LFB2556
	.uleb128 .LEHE30-.LEHB30
	.uleb128 0
	.uleb128 0
	.uleb128 .LEHB31-.LFB2556
	.uleb128 .LEHE31-.LEHB31
	.uleb128 0
	.uleb128 0
.LLSDACSE2556:
	.section	".text"
	.size	_ZN8idDeclAF17RebuildTextSourceEv, .-_ZN8idDeclAF17RebuildTextSourceEv
	.align 2
	.globl _ZN8idDeclAF4SaveEv
	.type	_ZN8idDeclAF4SaveEv, @function
_ZN8idDeclAF4SaveEv:
.LFB2557:
	.loc 3 645 0
	.cfi_startproc
.LVL485:
	stwu 1,-16(1)
.LCFI87:
	.cfi_def_cfa_offset 16
	mflr 0
	stw 31,12(1)
	mr 31,3
	.cfi_offset 31, -4
	.cfi_register 65, 0
	stw 0,20(1)
	.loc 3 646 0
	.cfi_offset 65, 4
	bl _ZN8idDeclAF17RebuildTextSourceEv
.LVL486:
	.loc 3 1753 0
	lwz 3,4(31)
.LBB2678:
.LBB2679:
	.loc 2 184 0
	lwz 9,0(3)
	lwz 0,64(9)
	mtctr 0
	bctrl
.LBE2679:
.LBE2678:
	.loc 3 648 0
	li 0,0
	stb 0,8(31)
	.loc 3 650 0
	li 3,1
	lwz 0,20(1)
	lwz 31,12(1)
.LVL487:
	mtlr 0
	addi 1,1,16
.LCFI88:
	.cfi_def_cfa_offset 0
	.cfi_restore 31
	blr
	.cfi_endproc
.LFE2557:
	.size	_ZN8idDeclAF4SaveEv, .-_ZN8idDeclAF4SaveEv
	.align 2
	.globl _ZN8idDeclAF18JointModFromStringEPKc
	.type	_ZN8idDeclAF18JointModFromStringEPKc, @function
_ZN8idDeclAF18JointModFromStringEPKc:
.LFB2560:
	.loc 3 730 0
	.cfi_startproc
.LVL488:
	mflr 0
	stwu 1,-16(1)
.LCFI89:
	.cfi_def_cfa_offset 16
	.cfi_register 65, 0
	.loc 3 731 0
	lis 4,.LC82@ha
	la 4,.LC82@l(4)
	.loc 3 730 0
	stw 31,12(1)
	stw 0,20(1)
	.loc 3 730 0
	mr 31,3
	.cfi_offset 65, 4
	.cfi_offset 31, -4
	.loc 3 731 0
	bl _ZN5idStr4IcmpEPKcS1_
.LVL489:
	cmpwi 7,3,0
	.loc 3 732 0
	li 3,0
	.loc 3 731 0
	bne- 7,.L366
.L362:
	.loc 3 741 0
	lwz 0,20(1)
	lwz 31,12(1)
.LVL490:
	mtlr 0
	addi 1,1,16
	.cfi_remember_state
.LCFI90:
	.cfi_def_cfa_offset 0
	.cfi_restore 31
	blr
.LVL491:
.L366:
.LCFI91:
	.cfi_restore_state
	.loc 3 734 0
	lis 4,.LC106@ha
	mr 3,31
	la 4,.LC106@l(4)
	bl _ZN5idStr4IcmpEPKcS1_
	cmpwi 7,3,0
	.loc 3 735 0
	li 3,1
	.loc 3 734 0
	beq+ 7,.L362
	.loc 3 737 0
	lis 4,.LC107@ha
	mr 3,31
	la 4,.LC107@l(4)
	bl _ZN5idStr4IcmpEPKcS1_
	.loc 3 741 0
	lwz 0,20(1)
	.loc 3 738 0
	cntlzw 3,3
	.loc 3 741 0
	lwz 31,12(1)
.LVL492:
	mtlr 0
	.loc 3 738 0
	srwi 3,3,5
	slwi 3,3,1
	.loc 3 741 0
	addi 1,1,16
	.cfi_restore 31
.LCFI92:
	.cfi_def_cfa_offset 0
	blr
	.cfi_endproc
.LFE2560:
	.size	_ZN8idDeclAF18JointModFromStringEPKc, .-_ZN8idDeclAF18JointModFromStringEPKc
	.align 2
	.globl _ZN8idDeclAF16JointModToStringE16declAFJointMod_t
	.type	_ZN8idDeclAF16JointModToStringE16declAFJointMod_t, @function
_ZN8idDeclAF16JointModToStringE16declAFJointMod_t:
.LFB2561:
	.loc 3 748 0
	.cfi_startproc
.LVL493:
	.loc 3 748 0
	addi 3,3,-1
.LVL494:
	cmplwi 7,3,1
	ble- 7,.L370
	lis 3,.LC82@ha
.LVL495:
	la 3,.LC82@l(3)
	.loc 3 761 0
	blr
.LVL496:
.L370:
	.loc 3 748 0
	lis 9,.LANCHOR0@ha
	slwi 3,3,2
.LVL497:
	la 9,.LANCHOR0@l(9)
	lwzx 3,9,3
	blr
	.cfi_endproc
.LFE2561:
	.size	_ZN8idDeclAF16JointModToStringE16declAFJointMod_t, .-_ZN8idDeclAF16JointModToStringE16declAFJointMod_t
	.align 2
	.globl _ZNK8idDeclAF13ParseContentsER7idLexerRi
	.type	_ZNK8idDeclAF13ParseContentsER7idLexerRi, @function
_ZNK8idDeclAF13ParseContentsER7idLexerRi:
.LFB2563:
	.loc 3 777 0
	.cfi_startproc
	.cfi_personality 0,__gxx_personality_v0
	.cfi_lsda 0,.LLSDA2563
.LVL498:
	mflr 0
	stwu 1,-144(1)
.LCFI93:
	.cfi_def_cfa_offset 144
	.cfi_register 65, 0
.LVL499:
.LBB2722:
.LBB2723:
.LBB2724:
.LBB2725:
.LBB2726:
	.loc 4 357 0
	li 9,20
	stw 9,48(1)
	.loc 4 358 0
	addi 11,1,52
.LBE2726:
.LBE2725:
.LBE2724:
.LBE2723:
.LBE2722:
	.loc 3 777 0
	stw 0,148(1)
.LBB2797:
.LBB2733:
.LBB2731:
.LBB2729:
.LBB2727:
	.loc 4 356 0
	li 0,0
	.cfi_offset 65, 4
.LBE2727:
.LBE2729:
.LBE2731:
.LBE2733:
.LBB2734:
.LBB2735:
.LBB2736:
	.loc 4 357 0
	stw 9,16(1)
	.loc 4 358 0
	addi 9,1,20
.LBE2736:
.LBE2735:
.LBE2734:
.LBE2797:
	.loc 3 777 0
	stw 27,124(1)
.LBB2798:
	.loc 3 783 0
	lis 27,.LC4@ha
	.cfi_offset 27, -20
.LBE2798:
	.loc 3 777 0
	stw 31,140(1)
.LBB2799:
	.loc 3 783 0
	la 27,.LC4@l(27)
.LBB2739:
.LBB2732:
.LBB2730:
.LBB2728:
	.loc 4 356 0
	stw 0,40(1)
	.loc 4 358 0
	stw 11,44(1)
	.loc 4 359 0
	stb 0,52(1)
.LVL500:
.LBE2728:
.LBE2730:
.LBE2732:
.LBE2739:
.LBB2740:
.LBB2738:
.LBB2737:
	.loc 4 356 0
	stw 0,8(1)
	.loc 4 358 0
	stw 9,12(1)
	.loc 4 359 0
	stb 0,20(1)
.LBE2737:
.LBE2738:
.LBE2740:
.LBE2799:
	.loc 3 777 0
	stw 26,120(1)
	mr 26,5
	.cfi_offset 26, -24
	.cfi_offset 31, -4
	stw 28,128(1)
	mr 28,4
	.cfi_offset 28, -16
	stw 29,132(1)
.LBB2800:
.LBB2741:
.LBB2742:
.LBB2743:
	.loc 4 778 0
	li 29,44
	.cfi_offset 29, -12
.LBE2743:
.LBE2742:
.LBE2741:
.LBE2800:
	.loc 3 777 0
	stw 30,136(1)
.LBB2801:
.LBB2754:
.LBB2755:
.LBB2756:
	.loc 4 767 0
	li 30,0
	.cfi_offset 30, -8
.LVL501:
.L372:
.LBE2756:
.LBE2755:
.LBE2754:
	.loc 3 781 0 discriminator 1
	mr 3,28
	addi 4,1,40
.LEHB32:
	bl _ZN7idLexer9ReadTokenEP7idToken
	cmpwi 7,3,0
	beq- 7,.L376
.LVL502:
.LBB2775:
.LBB2771:
	.loc 3 1753 0
	lwz 0,40(1)
.LBB2767:
	.loc 4 761 0
	lwz 31,8(1)
.LBB2757:
.LBB2758:
	.loc 4 350 0
	lwz 9,16(1)
.LBE2758:
.LBE2757:
	.loc 4 761 0
	add 31,0,31
.LVL503:
	.loc 4 762 0
	addi 4,31,1
.LVL504:
.LBB2761:
.LBB2759:
	.loc 4 350 0
	cmpw 7,4,9
	bgt- 7,.L390
.LVL505:
.L373:
.LBE2759:
.LBE2761:
	.loc 4 763 0
	cmpwi 7,0,0
	ble- 7,.L374
	li 9,0
.LVL506:
.L375:
.LBB2762:
.LBB2763:
	.loc 4 522 0
	lwz 11,44(1)
.LBE2763:
.LBE2762:
	.loc 4 764 0
	lwz 10,12(1)
.LBB2765:
.LBB2764:
	.loc 4 522 0
	lbzx 0,11,9
.LBE2764:
.LBE2765:
	.loc 4 764 0
	lwz 11,8(1)
	add 11,10,11
	stbx 0,11,9
	.loc 4 763 0
	addi 9,9,1
.LVL507:
	lwz 0,40(1)
	cmpw 7,9,0
	blt+ 7,.L375
.LVL508:
.L374:
	.loc 4 767 0
	lwz 9,12(1)
.LBE2767:
.LBE2771:
.LBE2775:
	.loc 3 783 0
	mr 3,28
.LBB2776:
.LBB2772:
.LBB2768:
	.loc 4 766 0
	stw 31,8(1)
.LBE2768:
.LBE2772:
.LBE2776:
	.loc 3 783 0
	mr 4,27
.LBB2777:
.LBB2773:
.LBB2769:
	.loc 4 767 0
	stbx 30,9,31
.LBE2769:
.LBE2773:
.LBE2777:
	.loc 3 783 0
	bl _ZN7idLexer16CheckTokenStringEPKc
	cmpwi 7,3,0
	beq- 7,.L376
.LVL509:
.LBB2778:
.LBB2752:
.LBB2750:
	.loc 4 775 0
	lwz 11,8(1)
.LBB2744:
.LBB2745:
	.loc 4 350 0
	lwz 0,16(1)
.LBE2745:
.LBE2744:
	.loc 4 775 0
	addi 31,11,1
.LVL510:
	.loc 4 776 0
	addi 4,31,1
.LVL511:
.LBB2748:
.LBB2746:
	.loc 4 350 0
	cmpw 7,4,0
	bgt- 7,.L391
.LVL512:
.L377:
.LBE2746:
.LBE2748:
	.loc 4 778 0
	lwz 9,12(1)
	stbx 29,9,11
.LVL513:
	.loc 4 780 0
	stw 31,8(1)
	.loc 4 781 0
	lwz 9,12(1)
	stbx 30,9,31
	b .L372
.LVL514:
.L390:
.LBE2750:
.LBE2752:
.LBE2778:
.LBB2779:
.LBB2774:
.LBB2770:
.LBB2766:
.LBB2760:
	.loc 4 351 0
	addi 3,1,8
	li 5,1
	bl _ZN5idStr10ReAllocateEib
.LVL515:
	lwz 0,40(1)
	b .L373
.LVL516:
.L391:
.LBE2760:
.LBE2766:
.LBE2770:
.LBE2774:
.LBE2779:
.LBB2780:
.LBB2753:
.LBB2751:
.LBB2749:
.LBB2747:
	addi 3,1,8
	li 5,1
	bl _ZN5idStr10ReAllocateEib
.LVL517:
	lwz 11,8(1)
	b .L377
.LVL518:
.L376:
.LBE2747:
.LBE2749:
.LBE2751:
.LBE2753:
.LBE2780:
	.loc 3 788 0
	lwz 3,12(1)
	bl _ZN8idDeclAF18ContentsFromStringEPKc
.LEHE32:
	stw 3,0(26)
.LVL519:
.LBB2781:
.LBB2782:
.LBB2783:
	.loc 4 501 0
	addi 3,1,8
.LEHB33:
	bl _ZN5idStr8FreeDataEv
.LEHE33:
.LVL520:
.LBE2783:
.LBE2782:
.LBE2781:
.LBB2784:
.LBB2785:
.LBB2786:
.LBB2787:
.LBB2788:
	addi 3,1,40
.LEHB34:
	bl _ZN5idStr8FreeDataEv
.LEHE34:
.LBE2788:
.LBE2787:
.LBE2786:
.LBE2785:
.LBE2784:
.LBE2801:
	.loc 3 790 0
	lwz 0,148(1)
	lwz 26,120(1)
.LVL521:
	li 3,1
	mtlr 0
	lwz 27,124(1)
	lwz 28,128(1)
.LVL522:
	lwz 29,132(1)
	lwz 30,136(1)
	lwz 31,140(1)
	addi 1,1,144
	.cfi_remember_state
.LCFI94:
	.cfi_def_cfa_offset 0
	.cfi_restore 31
	.cfi_restore 30
	.cfi_restore 29
	.cfi_restore 28
	.cfi_restore 27
	.cfi_restore 26
	blr
.LVL523:
.L387:
.LCFI95:
	.cfi_restore_state
	mr 31,3
.LVL524:
.LBB2802:
.LBB2789:
.LBB2790:
.LBB2791:
	.loc 4 501 0
	addi 3,1,8
	bl _ZN5idStr8FreeDataEv
.LVL525:
.L384:
.LBE2791:
.LBE2790:
.LBE2789:
.LBB2792:
.LBB2793:
.LBB2794:
.LBB2795:
.LBB2796:
	addi 3,1,40
	bl _ZN5idStr8FreeDataEv
	mr 3,31
.LEHB35:
	bl _Unwind_Resume
.LEHE35:
.LVL526:
.L388:
	mr 31,3
	b .L384
.LBE2796:
.LBE2795:
.LBE2794:
.LBE2793:
.LBE2792:
.LBE2802:
	.cfi_endproc
.LFE2563:
	.section	.gcc_except_table
.LLSDA2563:
	.byte	0xff
	.byte	0xff
	.byte	0x1
	.uleb128 .LLSDACSE2563-.LLSDACSB2563
.LLSDACSB2563:
	.uleb128 .LEHB32-.LFB2563
	.uleb128 .LEHE32-.LEHB32
	.uleb128 .L387-.LFB2563
	.uleb128 0
	.uleb128 .LEHB33-.LFB2563
	.uleb128 .LEHE33-.LEHB33
	.uleb128 .L388-.LFB2563
	.uleb128 0
	.uleb128 .LEHB34-.LFB2563
	.uleb128 .LEHE34-.LEHB34
	.uleb128 0
	.uleb128 0
	.uleb128 .LEHB35-.LFB2563
	.uleb128 .LEHE35-.LEHB35
	.uleb128 0
	.uleb128 0
.LLSDACSE2563:
	.section	".text"
	.size	_ZNK8idDeclAF13ParseContentsER7idLexerRi, .-_ZNK8idDeclAF13ParseContentsER7idLexerRi
	.section	.text._ZN10idAFVectorD2Ev,"axG",@progbits,_ZN10idAFVectorD5Ev,comdat
	.align 2
	.weak	_ZN10idAFVectorD2Ev
	.type	_ZN10idAFVectorD2Ev, @function
_ZN10idAFVectorD2Ev:
.LFB2566:
	.file 8 "d:/Data/Nintendo/DoomGX/src/framework/../idlib/../framework/DeclAF.h"
	.loc 8 60 0
	.cfi_startproc
	.cfi_personality 0,__gxx_personality_v0
	.cfi_lsda 0,.LLSDA2566
.LVL527:
	stwu 1,-16(1)
.LCFI96:
	.cfi_def_cfa_offset 16
	mflr 0
	stw 31,12(1)
	mr 31,3
	.cfi_offset 31, -4
	.cfi_register 65, 0
.LVL528:
.LBB2813:
.LBB2814:
.LBB2815:
.LBB2816:
	.loc 4 501 0
	addi 3,3,36
.LVL529:
.LBE2816:
.LBE2815:
.LBE2814:
.LBE2813:
	.loc 8 60 0
	stw 0,20(1)
	stw 30,8(1)
.LEHB36:
.LBB2826:
.LBB2819:
.LBB2818:
.LBB2817:
	.loc 4 501 0
	.cfi_offset 30, -8
	.cfi_offset 65, 4
	bl _ZN5idStr8FreeDataEv
.LEHE36:
.LVL530:
.LBE2817:
.LBE2818:
.LBE2819:
.LBB2820:
.LBB2821:
.LBB2822:
	.loc 4 501 0 is_stmt 0 discriminator 1
	addi 3,31,4
.LEHB37:
	bl _ZN5idStr8FreeDataEv
.LEHE37:
.LBE2822:
.LBE2821:
.LBE2820:
.LBE2826:
	.loc 8 60 0 is_stmt 1 discriminator 1
	lwz 0,20(1)
	lwz 30,8(1)
	mtlr 0
	lwz 31,12(1)
.LVL531:
	addi 1,1,16
	.cfi_remember_state
.LCFI97:
	.cfi_def_cfa_offset 0
	.cfi_restore 31
	.cfi_restore 30
	blr
.LVL532:
.L398:
.LCFI98:
	.cfi_restore_state
	mr 30,3
.LVL533:
.LBB2827:
.LBB2823:
.LBB2824:
.LBB2825:
	.loc 4 501 0
	addi 3,31,4
	bl _ZN5idStr8FreeDataEv
	mr 3,30
.LEHB38:
	bl _Unwind_Resume
.LEHE38:
.LBE2825:
.LBE2824:
.LBE2823:
.LBE2827:
	.cfi_endproc
.LFE2566:
	.section	.gcc_except_table
.LLSDA2566:
	.byte	0xff
	.byte	0xff
	.byte	0x1
	.uleb128 .LLSDACSE2566-.LLSDACSB2566
.LLSDACSB2566:
	.uleb128 .LEHB36-.LFB2566
	.uleb128 .LEHE36-.LEHB36
	.uleb128 .L398-.LFB2566
	.uleb128 0
	.uleb128 .LEHB37-.LFB2566
	.uleb128 .LEHE37-.LEHB37
	.uleb128 0
	.uleb128 0
	.uleb128 .LEHB38-.LFB2566
	.uleb128 .LEHE38-.LEHB38
	.uleb128 0
	.uleb128 0
.LLSDACSE2566:
	.section	.text._ZN10idAFVectorD2Ev,"axG",@progbits,_ZN10idAFVectorD5Ev,comdat
	.size	_ZN10idAFVectorD2Ev, .-_ZN10idAFVectorD2Ev
	.section	".text"
	.align 2
	.globl _ZN8idDeclAF8FreeDataEv
	.type	_ZN8idDeclAF8FreeDataEv, @function
_ZN8idDeclAF8FreeDataEv:
.LFB2583:
	.loc 3 1568 0
	.cfi_startproc
	.cfi_personality 0,__gxx_personality_v0
	.cfi_lsda 0,.LLSDA2583
.LVL534:
	mflr 0
	stwu 1,-40(1)
.LCFI99:
	.cfi_def_cfa_offset 40
	.cfi_register 65, 0
	.loc 3 1574 0
	lis 9,.LC28@ha
	.loc 3 1569 0
	li 10,0
	.loc 3 1568 0
	stw 27,20(1)
	.loc 3 1585 0
	addi 27,3,144
	.cfi_offset 27, -20
	.loc 3 1568 0
	stw 28,24(1)
	mr 28,3
	.cfi_offset 28, -16
	stw 0,44(1)
	stw 24,8(1)
	stw 25,12(1)
	stw 26,16(1)
	stw 29,28(1)
	stw 30,32(1)
	stw 31,36(1)
	.loc 3 1569 0
	stb 10,8(3)
.LBB3010:
.LBB3011:
	.file 9 "d:/Data/Nintendo/DoomGX/src/framework/../idlib/../idlib/containers/List.h"
	.loc 9 218 0
	lwz 0,144(3)
	.cfi_offset 31, -4
	.cfi_offset 30, -8
	.cfi_offset 29, -12
	.cfi_offset 26, -24
	.cfi_offset 25, -28
	.cfi_offset 24, -32
	.cfi_offset 65, 4
	cmpwi 7,0,0
.LBE3011:
.LBE3010:
	.loc 3 1574 0
	lwz 0,.LC28@l(9)
	.loc 3 1570 0
	lis 9,.LC108@ha
	lwz 11,.LC108@l(9)
	.loc 3 1578 0
	lis 9,.LC22@ha
	lwz 9,.LC22@l(9)
	.loc 3 1570 0
	stw 11,76(3)
	.loc 3 1571 0
	stw 11,80(3)
	.loc 3 1572 0
	lis 11,.LC109@ha
	lwz 11,.LC109@l(11)
	.loc 3 1574 0
	stw 0,92(3)
.LVL535:
	.loc 3 1572 0
	stw 11,84(3)
	.loc 3 1573 0
	lis 11,.LC12@ha
	lwz 11,.LC12@l(11)
	.loc 3 1578 0
	stw 9,116(3)
	.loc 3 1573 0
	stw 11,88(3)
.LBB3125:
.LBB3126:
	.loc 5 115 0
	lis 11,.LC110@ha
	lwz 11,.LC110@l(11)
	stw 11,96(3)
	.loc 5 116 0
	lis 11,.LC111@ha
	lwz 11,.LC111@l(11)
	stw 11,100(3)
.LVL536:
.LBE3126:
.LBE3125:
.LBB3127:
.LBB3128:
	.loc 5 115 0
	lis 11,.LC112@ha
	lwz 11,.LC112@l(11)
	stw 11,104(3)
	.loc 5 116 0
	lis 11,.LC113@ha
	lwz 11,.LC113@l(11)
	stw 11,108(3)
.LBE3128:
.LBE3127:
	.loc 3 1577 0
	lis 11,.LC27@ha
	lwz 11,.LC27@l(11)
	stw 11,112(3)
	.loc 3 1579 0
	stw 9,120(3)
.LVL537:
	.loc 3 1580 0
	stw 0,124(3)
	.loc 3 1581 0
	stw 0,128(3)
	.loc 3 1582 0
	li 0,1
	stb 0,140(3)
	.loc 3 1583 0
	li 0,1024
	stw 0,132(3)
	.loc 3 1584 0
	li 0,1025
	stw 0,136(3)
.LBB3129:
.LBB3120:
	.loc 9 218 0
	ble- 7,.L400
.LVL538:
	li 30,0
	.loc 9 220 0
	li 26,0
.LVL539:
.L447:
	.loc 9 219 0
	lwz 9,12(27)
	.loc 3 1568 0
	slwi 29,30,2
	.loc 9 219 0
	lwzx 31,9,29
	add 9,9,29
	cmpwi 7,31,0
	beq- 7,.L401
.LVL540:
.LBB3012:
.LBB3013:
.LBB3014:
.LBB3015:
.LBB3016:
.LBB3017:
.LBB3018:
.LBB3019:
.LBB3020:
	.loc 4 501 0
	addi 3,31,560
.LEHB39:
	bl _ZN5idStr8FreeDataEv
.LEHE39:
.LVL541:
.LBE3020:
.LBE3019:
.LBE3018:
.LBB3021:
.LBB3022:
.LBB3023:
	addi 3,31,528
.LEHB40:
	bl _ZN5idStr8FreeDataEv
.LEHE40:
.LVL542:
.LBE3023:
.LBE3022:
.LBE3021:
.LBE3017:
.LBE3016:
.LBE3015:
.LBB3029:
.LBB3030:
.LBB3031:
.LBB3032:
.LBB3033:
.LBB3034:
	addi 3,31,476
.LEHB41:
	bl _ZN5idStr8FreeDataEv
.LEHE41:
.LVL543:
.LBE3034:
.LBE3033:
.LBE3032:
.LBB3035:
.LBB3036:
.LBB3037:
	addi 3,31,444
.LEHB42:
	bl _ZN5idStr8FreeDataEv
.LEHE42:
.LVL544:
.LBE3037:
.LBE3036:
.LBE3035:
.LBE3031:
.LBE3030:
.LBE3029:
.LBB3043:
.LBB3044:
.LBB3045:
	addi 3,31,408
.LEHB43:
	bl _ZN5idStr8FreeDataEv
.LEHE43:
.LVL545:
.LBE3045:
.LBE3044:
.LBE3043:
.LBB3046:
.LBB3047:
.LBB3048:
.LBB3049:
.LBB3050:
.LBB3051:
	addi 3,31,288
.LEHB44:
	bl _ZN5idStr8FreeDataEv
.LEHE44:
.LVL546:
.LBE3051:
.LBE3050:
.LBE3049:
.LBB3052:
.LBB3053:
.LBB3054:
	addi 3,31,256
.LEHB45:
	bl _ZN5idStr8FreeDataEv
.LEHE45:
.LVL547:
.LBE3054:
.LBE3053:
.LBE3052:
.LBE3048:
.LBE3047:
.LBE3046:
.LBB3060:
.LBB3061:
.LBB3062:
.LBB3063:
.LBB3064:
.LBB3065:
	addi 3,31,192
.LEHB46:
	bl _ZN5idStr8FreeDataEv
.LEHE46:
.LVL548:
.LBE3065:
.LBE3064:
.LBE3063:
.LBB3066:
.LBB3067:
.LBB3068:
	addi 3,31,160
.LEHB47:
	bl _ZN5idStr8FreeDataEv
.LEHE47:
.LVL549:
.LBE3068:
.LBE3067:
.LBE3066:
.LBE3062:
.LBE3061:
.LBE3060:
.LBB3074:
.LBB3075:
.LBB3076:
.LBB3077:
.LBB3078:
.LBB3079:
	addi 3,31,108
.LEHB48:
	bl _ZN5idStr8FreeDataEv
.LEHE48:
.LVL550:
.LBE3079:
.LBE3078:
.LBE3077:
.LBB3080:
.LBB3081:
.LBB3082:
	addi 3,31,76
.LEHB49:
	bl _ZN5idStr8FreeDataEv
.LEHE49:
.LVL551:
.LBE3082:
.LBE3081:
.LBE3080:
.LBE3076:
.LBE3075:
.LBE3074:
.LBB3088:
.LBB3089:
.LBB3090:
	addi 3,31,32
.LEHB50:
	bl _ZN5idStr8FreeDataEv
.LEHE50:
.LVL552:
.LBE3090:
.LBE3089:
.LBE3088:
.LBB3091:
.LBB3092:
.LBB3093:
	mr 3,31
.LEHB51:
	bl _ZN5idStr8FreeDataEv
.LEHE51:
.LBE3093:
.LBE3092:
.LBE3091:
.LBE3014:
.LBE3013:
.LBE3012:
	.loc 9 219 0
	mr 3,31
	bl _ZdlPv
	lwz 9,156(28)
	add 9,9,29
.LVL553:
.L401:
	.loc 9 220 0
	stw 26,0(9)
	.loc 9 218 0
	addi 30,30,1
.LVL554:
	lwz 0,0(27)
	cmpw 7,30,0
	blt+ 7,.L447
.LVL555:
.L400:
.LBB3112:
.LBB3113:
	.loc 9 193 0
	lwz 3,156(28)
	cmpwi 7,3,0
	beq- 7,.L448
	.loc 9 194 0
	bl _ZdaPv
.L448:
.LBE3113:
.LBE3112:
.LBE3120:
.LBE3129:
.LBB3130:
.LBB3131:
	.loc 9 218 0
	lwz 9,160(28)
.LBE3131:
.LBE3130:
.LBB3236:
.LBB3121:
.LBB3116:
.LBB3114:
	.loc 9 197 0
	li 0,0
	stw 0,156(28)
.LBE3114:
.LBE3116:
.LBE3121:
.LBE3236:
	.loc 3 1586 0
	addi 25,28,160
.LVL556:
.LBB3237:
.LBB3233:
	.loc 9 218 0
	cmpwi 7,9,0
.LBE3233:
.LBE3237:
.LBB3238:
.LBB3122:
.LBB3117:
.LBB3115:
	.loc 9 198 0
	stw 0,144(28)
	.loc 9 199 0
	stw 0,148(28)
.LBE3115:
.LBE3117:
.LBE3122:
.LBE3238:
.LBB3239:
.LBB3234:
	.loc 9 218 0
	ble- 7,.L449
	li 27,0
.LVL557:
	.loc 9 220 0
	li 24,0
.LVL558:
.L499:
	.loc 9 219 0
	lwz 9,12(25)
	.loc 3 1568 0
	slwi 26,27,2
	.loc 9 219 0
	lwzx 29,9,26
	add 9,9,26
	cmpwi 7,29,0
	beq- 7,.L450
.LVL559:
.LBB3132:
.LBB3133:
.LBB3134:
.LBB3135:
.LBB3136:
.LBB3137:
.LBB3138:
.LBB3139:
.LBB3140:
	.loc 4 501 0
	addi 3,29,588
.LEHB52:
	bl _ZN5idStr8FreeDataEv
.LEHE52:
.LVL560:
.LBE3140:
.LBE3139:
.LBE3138:
.LBB3141:
.LBB3142:
.LBB3143:
	addi 3,29,556
.LEHB53:
	bl _ZN5idStr8FreeDataEv
.LEHE53:
.LVL561:
.LBE3143:
.LBE3142:
.LBE3141:
.LBE3137:
.LBE3136:
.LBE3135:
.LBB3149:
.LBB3150:
.LBB3151:
.LBB3152:
.LBB3153:
.LBB3154:
	addi 3,29,500
.LEHB54:
	bl _ZN5idStr8FreeDataEv
.LEHE54:
.LVL562:
.LBE3154:
.LBE3153:
.LBE3152:
.LBB3155:
.LBB3156:
.LBB3157:
	addi 3,29,468
.LEHB55:
	bl _ZN5idStr8FreeDataEv
.LEHE55:
.LBE3157:
.LBE3156:
.LBE3155:
.LBE3151:
.LBE3150:
.LBE3149:
	.loc 8 112 0
	addi 30,29,296
	addi 31,29,464
.LVL563:
.L464:
.LBB3163:
.LBB3164:
.LBB3165:
.LBB3166:
.LBB3167:
.LBB3168:
	.loc 4 501 0
	addi 3,31,-48
.LEHB56:
	bl _ZN5idStr8FreeDataEv
.LEHE56:
.LVL564:
.LBE3168:
.LBE3167:
.LBE3166:
.LBB3169:
.LBB3170:
.LBB3171:
	addi 3,31,-80
.LEHB57:
	bl _ZN5idStr8FreeDataEv
.LEHE57:
.LBE3171:
.LBE3170:
.LBE3169:
.LBE3165:
.LBE3164:
.LBE3163:
	.loc 8 112 0
	addi 31,31,-84
.LVL565:
	cmpw 7,30,31
	bne+ 7,.L464
.LVL566:
.LBB3177:
.LBB3178:
.LBB3179:
.LBB3180:
.LBB3181:
.LBB3182:
	.loc 4 501 0
	addi 3,29,248
.LEHB58:
	bl _ZN5idStr8FreeDataEv
.LEHE58:
.LVL567:
.LBE3182:
.LBE3181:
.LBE3180:
.LBB3183:
.LBB3184:
.LBB3185:
	addi 3,29,216
.LEHB59:
	bl _ZN5idStr8FreeDataEv
.LEHE59:
.LVL568:
.LBE3185:
.LBE3184:
.LBE3183:
.LBE3179:
.LBE3178:
.LBE3177:
.LBB3191:
.LBB3192:
.LBB3193:
.LBB3194:
.LBB3195:
.LBB3196:
	addi 3,29,164
.LEHB60:
	bl _ZN5idStr8FreeDataEv
.LEHE60:
.LVL569:
.LBE3196:
.LBE3195:
.LBE3194:
.LBB3197:
.LBB3198:
.LBB3199:
	addi 3,29,132
.LEHB61:
	bl _ZN5idStr8FreeDataEv
.LEHE61:
.LVL570:
.LBE3199:
.LBE3198:
.LBE3197:
.LBE3193:
.LBE3192:
.LBE3191:
.LBB3205:
.LBB3206:
.LBB3207:
	addi 3,29,64
.LEHB62:
	bl _ZN5idStr8FreeDataEv
.LEHE62:
.LVL571:
.LBE3207:
.LBE3206:
.LBE3205:
.LBB3208:
.LBB3209:
.LBB3210:
	addi 3,29,32
.LEHB63:
	bl _ZN5idStr8FreeDataEv
.LEHE63:
.LVL572:
.LBE3210:
.LBE3209:
.LBE3208:
.LBB3211:
.LBB3212:
.LBB3213:
	mr 3,29
.LEHB64:
	bl _ZN5idStr8FreeDataEv
.LEHE64:
.LBE3213:
.LBE3212:
.LBE3211:
.LBE3134:
.LBE3133:
.LBE3132:
	.loc 9 219 0
	mr 3,29
	bl _ZdlPv
	lwz 9,172(28)
	add 9,9,26
.LVL573:
.L450:
	.loc 9 220 0
	stw 24,0(9)
	.loc 9 218 0
	addi 27,27,1
.LVL574:
	lwz 0,0(25)
	cmpw 7,27,0
	blt+ 7,.L499
.LVL575:
.L449:
.LBB3230:
.LBB3231:
	.loc 9 193 0
	lwz 3,172(28)
	cmpwi 7,3,0
	beq- 7,.L500
	.loc 9 194 0
	bl _ZdaPv
.L500:
	.loc 9 197 0
	li 0,0
	stw 0,172(28)
	.loc 9 198 0
	stw 0,160(28)
	.loc 9 199 0
	stw 0,164(28)
.LBE3231:
.LBE3230:
.LBE3234:
.LBE3239:
	.loc 3 1587 0
	lwz 0,44(1)
	lwz 24,8(1)
	mtlr 0
	lwz 25,12(1)
	lwz 26,16(1)
	lwz 27,20(1)
	lwz 28,24(1)
.LVL576:
	lwz 29,28(1)
	lwz 30,32(1)
	lwz 31,36(1)
	addi 1,1,40
	.cfi_remember_state
.LCFI100:
	.cfi_def_cfa_offset 0
	.cfi_restore 31
	.cfi_restore 30
	.cfi_restore 29
	.cfi_restore 28
	.cfi_restore 27
	.cfi_restore 26
	.cfi_restore 25
	.cfi_restore 24
	blr
.LVL577:
.L508:
.LCFI101:
	.cfi_restore_state
	mr 30,3
.LVL578:
.LBB3240:
.LBB3123:
.LBB3118:
.LBB3110:
.LBB3108:
.LBB3094:
.LBB3028:
.LBB3027:
.LBB3024:
.LBB3025:
.LBB3026:
	.loc 4 501 0
	addi 3,31,528
	bl _ZN5idStr8FreeDataEv
.LVL579:
.L406:
.LBE3026:
.LBE3025:
.LBE3024:
.LBE3027:
.LBE3028:
.LBE3094:
	.loc 8 86 0
	addi 3,31,440
	bl _ZN10idAFVectorD1Ev
.LVL580:
.L411:
.LBB3095:
.LBB3096:
.LBB3097:
	.loc 4 501 0
	addi 3,31,408
	bl _ZN5idStr8FreeDataEv
.LVL581:
.L417:
.LBE3097:
.LBE3096:
.LBE3095:
	.loc 8 86 0
	addi 3,31,252
	bl _ZN10idAFVectorD1Ev
.L421:
	addi 3,31,156
	bl _ZN10idAFVectorD1Ev
.L428:
	addi 3,31,72
	bl _ZN10idAFVectorD1Ev
.L435:
.LVL582:
.LBB3098:
.LBB3099:
.LBB3100:
	.loc 4 501 0
	addi 3,31,32
	bl _ZN5idStr8FreeDataEv
.LVL583:
.L444:
.LBE3100:
.LBE3099:
.LBE3098:
.LBB3101:
.LBB3102:
.LBB3103:
	mr 3,31
	bl _ZN5idStr8FreeDataEv
	mr 3,30
.LEHB65:
	bl _Unwind_Resume
.LEHE65:
.LVL584:
.L513:
	mr 31,3
.LVL585:
.L496:
.LBE3103:
.LBE3102:
.LBE3101:
.LBE3108:
.LBE3110:
.LBE3118:
.LBE3123:
.LBE3240:
.LBB3241:
.LBB3235:
.LBB3232:
.LBB3229:
.LBB3228:
.LBB3214:
.LBB3215:
.LBB3216:
	mr 3,29
	bl _ZN5idStr8FreeDataEv
	mr 3,31
.LEHB66:
	bl _Unwind_Resume
.LEHE66:
.LVL586:
.L514:
	mr 31,3
.LVL587:
.L489:
.LBE3216:
.LBE3215:
.LBE3214:
.LBB3217:
.LBB3218:
.LBB3219:
	addi 3,29,32
	bl _ZN5idStr8FreeDataEv
	b .L496
.LVL588:
.L515:
	mr 31,3
.LVL589:
.L483:
.LBE3219:
.LBE3218:
.LBE3217:
.LBB3220:
.LBB3221:
.LBB3222:
	addi 3,29,64
	bl _ZN5idStr8FreeDataEv
	b .L489
.LVL590:
.L524:
	mr 31,3
.LVL591:
.LBE3222:
.LBE3221:
.LBE3220:
.LBB3223:
.LBB3204:
.LBB3203:
.LBB3200:
.LBB3201:
.LBB3202:
	addi 3,29,132
	bl _ZN5idStr8FreeDataEv
	b .L483
.LVL592:
.L516:
	mr 31,3
.LVL593:
.L476:
.LBE3202:
.LBE3201:
.LBE3200:
.LBE3203:
.LBE3204:
.LBE3223:
	.loc 8 112 0
	addi 3,29,128
	bl _ZN10idAFVectorD1Ev
	b .L483
.LVL594:
.L523:
	mr 31,3
.LVL595:
.LBB3224:
.LBB3190:
.LBB3189:
.LBB3186:
.LBB3187:
.LBB3188:
	.loc 4 501 0
	addi 3,29,216
	bl _ZN5idStr8FreeDataEv
	b .L476
.LVL596:
.L517:
	mr 31,3
.LVL597:
.L470:
.LBE3188:
.LBE3187:
.LBE3186:
.LBE3189:
.LBE3190:
.LBE3224:
	.loc 8 112 0
	addi 3,29,212
	bl _ZN10idAFVectorD1Ev
	b .L476
.LVL598:
.L522:
	mr 30,3
.LVL599:
.LBB3225:
.LBB3176:
.LBB3175:
.LBB3172:
.LBB3173:
.LBB3174:
	.loc 4 501 0
	addi 3,31,-80
	bl _ZN5idStr8FreeDataEv
	mr 31,30
.LVL600:
	b .L470
.LVL601:
.L518:
	mr 30,3
	addi 31,29,464
.LVL602:
.L460:
.LBE3174:
.LBE3173:
.LBE3172:
.LBE3175:
.LBE3176:
.LBE3225:
	.loc 8 112 0
	addi 28,29,296
.L493:
	addi 31,31,-84
	mr 3,31
	bl _ZN10idAFVectorD1Ev
	cmpw 7,28,31
	bne+ 7,.L493
	mr 31,30
	b .L470
.LVL603:
.L521:
	mr 30,3
.LVL604:
.LBB3226:
.LBB3162:
.LBB3161:
.LBB3158:
.LBB3159:
.LBB3160:
	.loc 4 501 0
	addi 3,29,468
	bl _ZN5idStr8FreeDataEv
	addi 31,29,464
	b .L460
.LVL605:
.L519:
	mr 30,3
.LVL606:
.L455:
.LBE3160:
.LBE3159:
.LBE3158:
.LBE3161:
.LBE3162:
.LBE3226:
	.loc 8 112 0
	addi 31,29,464
	mr 3,31
	bl _ZN10idAFVectorD1Ev
	b .L460
.L520:
	mr 30,3
.LVL607:
.LBB3227:
.LBB3148:
.LBB3147:
.LBB3144:
.LBB3145:
.LBB3146:
	.loc 4 501 0
	addi 3,29,556
	bl _ZN5idStr8FreeDataEv
	b .L455
.LVL608:
.L501:
	mr 30,3
	b .L444
.LVL609:
.L502:
	mr 30,3
	b .L435
.LVL610:
.L512:
	mr 30,3
.LVL611:
.LBE3146:
.LBE3145:
.LBE3144:
.LBE3147:
.LBE3148:
.LBE3227:
.LBE3228:
.LBE3229:
.LBE3232:
.LBE3235:
.LBE3241:
.LBB3242:
.LBB3124:
.LBB3119:
.LBB3111:
.LBB3109:
.LBB3104:
.LBB3087:
.LBB3086:
.LBB3083:
.LBB3084:
.LBB3085:
	addi 3,31,76
	bl _ZN5idStr8FreeDataEv
	b .L435
.LVL612:
.L503:
	mr 30,3
	b .L428
.LVL613:
.L511:
	mr 30,3
.LVL614:
.LBE3085:
.LBE3084:
.LBE3083:
.LBE3086:
.LBE3087:
.LBE3104:
.LBB3105:
.LBB3073:
.LBB3072:
.LBB3069:
.LBB3070:
.LBB3071:
	addi 3,31,160
	bl _ZN5idStr8FreeDataEv
	b .L428
.LVL615:
.L504:
	mr 30,3
	b .L421
.LVL616:
.L510:
	mr 30,3
.LVL617:
.LBE3071:
.LBE3070:
.LBE3069:
.LBE3072:
.LBE3073:
.LBE3105:
.LBB3106:
.LBB3059:
.LBB3058:
.LBB3055:
.LBB3056:
.LBB3057:
	addi 3,31,256
	bl _ZN5idStr8FreeDataEv
	b .L421
.LVL618:
.L505:
	mr 30,3
	b .L417
.LVL619:
.L506:
	mr 30,3
	b .L411
.LVL620:
.L509:
	mr 30,3
.LVL621:
.LBE3057:
.LBE3056:
.LBE3055:
.LBE3058:
.LBE3059:
.LBE3106:
.LBB3107:
.LBB3042:
.LBB3041:
.LBB3038:
.LBB3039:
.LBB3040:
	addi 3,31,444
	bl _ZN5idStr8FreeDataEv
	b .L411
.LVL622:
.L507:
	mr 30,3
	b .L406
.LBE3040:
.LBE3039:
.LBE3038:
.LBE3041:
.LBE3042:
.LBE3107:
.LBE3109:
.LBE3111:
.LBE3119:
.LBE3124:
.LBE3242:
	.cfi_endproc
.LFE2583:
	.section	.gcc_except_table
.LLSDA2583:
	.byte	0xff
	.byte	0xff
	.byte	0x1
	.uleb128 .LLSDACSE2583-.LLSDACSB2583
.LLSDACSB2583:
	.uleb128 .LEHB39-.LFB2583
	.uleb128 .LEHE39-.LEHB39
	.uleb128 .L508-.LFB2583
	.uleb128 0
	.uleb128 .LEHB40-.LFB2583
	.uleb128 .LEHE40-.LEHB40
	.uleb128 .L507-.LFB2583
	.uleb128 0
	.uleb128 .LEHB41-.LFB2583
	.uleb128 .LEHE41-.LEHB41
	.uleb128 .L509-.LFB2583
	.uleb128 0
	.uleb128 .LEHB42-.LFB2583
	.uleb128 .LEHE42-.LEHB42
	.uleb128 .L506-.LFB2583
	.uleb128 0
	.uleb128 .LEHB43-.LFB2583
	.uleb128 .LEHE43-.LEHB43
	.uleb128 .L505-.LFB2583
	.uleb128 0
	.uleb128 .LEHB44-.LFB2583
	.uleb128 .LEHE44-.LEHB44
	.uleb128 .L510-.LFB2583
	.uleb128 0
	.uleb128 .LEHB45-.LFB2583
	.uleb128 .LEHE45-.LEHB45
	.uleb128 .L504-.LFB2583
	.uleb128 0
	.uleb128 .LEHB46-.LFB2583
	.uleb128 .LEHE46-.LEHB46
	.uleb128 .L511-.LFB2583
	.uleb128 0
	.uleb128 .LEHB47-.LFB2583
	.uleb128 .LEHE47-.LEHB47
	.uleb128 .L503-.LFB2583
	.uleb128 0
	.uleb128 .LEHB48-.LFB2583
	.uleb128 .LEHE48-.LEHB48
	.uleb128 .L512-.LFB2583
	.uleb128 0
	.uleb128 .LEHB49-.LFB2583
	.uleb128 .LEHE49-.LEHB49
	.uleb128 .L502-.LFB2583
	.uleb128 0
	.uleb128 .LEHB50-.LFB2583
	.uleb128 .LEHE50-.LEHB50
	.uleb128 .L501-.LFB2583
	.uleb128 0
	.uleb128 .LEHB51-.LFB2583
	.uleb128 .LEHE51-.LEHB51
	.uleb128 0
	.uleb128 0
	.uleb128 .LEHB52-.LFB2583
	.uleb128 .LEHE52-.LEHB52
	.uleb128 .L520-.LFB2583
	.uleb128 0
	.uleb128 .LEHB53-.LFB2583
	.uleb128 .LEHE53-.LEHB53
	.uleb128 .L519-.LFB2583
	.uleb128 0
	.uleb128 .LEHB54-.LFB2583
	.uleb128 .LEHE54-.LEHB54
	.uleb128 .L521-.LFB2583
	.uleb128 0
	.uleb128 .LEHB55-.LFB2583
	.uleb128 .LEHE55-.LEHB55
	.uleb128 .L518-.LFB2583
	.uleb128 0
	.uleb128 .LEHB56-.LFB2583
	.uleb128 .LEHE56-.LEHB56
	.uleb128 .L522-.LFB2583
	.uleb128 0
	.uleb128 .LEHB57-.LFB2583
	.uleb128 .LEHE57-.LEHB57
	.uleb128 .L517-.LFB2583
	.uleb128 0
	.uleb128 .LEHB58-.LFB2583
	.uleb128 .LEHE58-.LEHB58
	.uleb128 .L523-.LFB2583
	.uleb128 0
	.uleb128 .LEHB59-.LFB2583
	.uleb128 .LEHE59-.LEHB59
	.uleb128 .L516-.LFB2583
	.uleb128 0
	.uleb128 .LEHB60-.LFB2583
	.uleb128 .LEHE60-.LEHB60
	.uleb128 .L524-.LFB2583
	.uleb128 0
	.uleb128 .LEHB61-.LFB2583
	.uleb128 .LEHE61-.LEHB61
	.uleb128 .L515-.LFB2583
	.uleb128 0
	.uleb128 .LEHB62-.LFB2583
	.uleb128 .LEHE62-.LEHB62
	.uleb128 .L514-.LFB2583
	.uleb128 0
	.uleb128 .LEHB63-.LFB2583
	.uleb128 .LEHE63-.LEHB63
	.uleb128 .L513-.LFB2583
	.uleb128 0
	.uleb128 .LEHB64-.LFB2583
	.uleb128 .LEHE64-.LEHB64
	.uleb128 0
	.uleb128 0
	.uleb128 .LEHB65-.LFB2583
	.uleb128 .LEHE65-.LEHB65
	.uleb128 0
	.uleb128 0
	.uleb128 .LEHB66-.LFB2583
	.uleb128 .LEHE66-.LEHB66
	.uleb128 0
	.uleb128 0
.LLSDACSE2583:
	.section	".text"
	.size	_ZN8idDeclAF8FreeDataEv, .-_ZN8idDeclAF8FreeDataEv
	.align 2
	.globl _ZN8idDeclAF9ParseBodyER7idLexer
	.type	_ZN8idDeclAF9ParseBodyER7idLexer, @function
_ZN8idDeclAF9ParseBodyER7idLexer:
.LFB2564:
	.loc 3 797 0
	.cfi_startproc
	.cfi_personality 0,__gxx_personality_v0
	.cfi_lsda 0,.LLSDA2564
.LVL623:
	mflr 0
	stwu 1,-256(1)
.LCFI102:
	.cfi_def_cfa_offset 256
	.cfi_register 65, 0
.LVL624:
.LBB3368:
.LBB3369:
.LBB3370:
.LBB3371:
.LBB3372:
	.loc 4 357 0
	li 9,20
.LBE3372:
.LBE3371:
.LBE3370:
.LBE3369:
.LBE3368:
	.loc 3 797 0
	stw 28,240(1)
	mr 28,3
	.cfi_offset 28, -16
	stw 0,260(1)
.LBB3595:
	.loc 3 800 0
	addi 3,1,88
.LVL625:
.LBB3379:
.LBB3377:
.LBB3375:
.LBB3373:
	.loc 4 356 0
	li 0,0
	.cfi_offset 65, 4
	.loc 4 357 0
	stw 9,16(1)
	.loc 4 358 0
	addi 9,1,20
.LBE3373:
.LBE3375:
.LBE3377:
.LBE3379:
.LBE3595:
	.loc 3 797 0
	stw 29,244(1)
	stw 30,248(1)
	addi 29,1,8
	.cfi_offset 30, -8
	.cfi_offset 29, -12
	stw 14,184(1)
	mr 30,4
	stw 15,188(1)
	stw 16,192(1)
	stw 17,196(1)
	stw 18,200(1)
	stw 19,204(1)
	stw 20,208(1)
	stw 21,212(1)
	stw 22,216(1)
	stw 23,220(1)
	stw 24,224(1)
	stw 25,228(1)
	stw 26,232(1)
	stw 27,236(1)
	stw 31,252(1)
.LBB3596:
.LBB3380:
.LBB3378:
.LBB3376:
.LBB3374:
	.loc 4 356 0
	stw 0,8(1)
	.loc 4 358 0
	stw 9,12(1)
	.loc 4 359 0
	stb 0,20(1)
.LEHB67:
.LBE3374:
.LBE3376:
.LBE3378:
.LBE3380:
	.loc 3 800 0
	.cfi_offset 31, -4
	.cfi_offset 27, -20
	.cfi_offset 26, -24
	.cfi_offset 25, -28
	.cfi_offset 24, -32
	.cfi_offset 23, -36
	.cfi_offset 22, -40
	.cfi_offset 21, -44
	.cfi_offset 20, -48
	.cfi_offset 19, -52
	.cfi_offset 18, -56
	.cfi_offset 17, -60
	.cfi_offset 16, -64
	.cfi_offset 15, -68
	.cfi_offset 14, -72
	bl _ZN10idAFVectorC1Ev
.LEHE67:
.LVL626:
	.loc 3 801 0
	li 3,608
	addi 29,1,8
.LEHB68:
	bl _Znwj
.LEHE68:
.LBB3381:
.LBB3382:
.LBB3383:
.LBB3384:
.LBB3385:
	.loc 4 356 0
	li 0,0
	.loc 4 357 0
	li 9,20
	.loc 4 358 0
	addi 10,3,12
.LBE3385:
.LBE3384:
.LBE3383:
.LBB3390:
.LBB3391:
.LBB3392:
	addi 11,3,44
.LBE3392:
.LBE3391:
.LBE3390:
	.loc 8 86 0
	addi 23,3,72
.LBB3395:
.LBB3388:
.LBB3386:
	.loc 4 356 0
	stw 0,0(3)
	.loc 4 357 0
	stw 9,8(3)
.LBE3386:
.LBE3388:
.LBE3395:
.LBE3382:
.LBE3381:
	.loc 3 801 0
	mr 31,3
.LVL627:
.LBB3418:
.LBB3416:
.LBB3396:
.LBB3389:
.LBB3387:
	.loc 4 358 0
	stw 10,4(3)
	.loc 4 359 0
	stb 0,12(3)
.LVL628:
.LBE3387:
.LBE3389:
.LBE3396:
.LBB3397:
.LBB3394:
.LBB3393:
	.loc 4 356 0
	stw 0,32(3)
	.loc 4 357 0
	stw 9,40(3)
	.loc 4 358 0
	stw 11,36(3)
	.loc 4 359 0
	stb 0,44(3)
.LBE3393:
.LBE3394:
.LBE3397:
	.loc 8 86 0
	mr 3,23
.LVL629:
.LEHB69:
	bl _ZN10idAFVectorC1Ev
.LEHE69:
	addi 22,31,156
	mr 3,22
.LEHB70:
	bl _ZN10idAFVectorC1Ev
.LEHE70:
	addi 24,31,252
	mr 3,24
.LEHB71:
	bl _ZN10idAFVectorC1Ev
.LEHE71:
.LVL630:
.LBB3398:
.LBB3399:
.LBB3400:
	.loc 4 356 0
	li 0,0
	.loc 4 358 0
	addi 9,31,420
	.loc 4 357 0
	li 11,20
.LBE3400:
.LBE3399:
.LBE3398:
	.loc 8 86 0
	addi 21,31,440
.LBB3405:
.LBB3403:
.LBB3401:
	.loc 4 356 0
	stw 0,408(31)
.LBE3401:
.LBE3403:
.LBE3405:
	.loc 8 86 0
	mr 3,21
.LBB3406:
.LBB3404:
.LBB3402:
	.loc 4 357 0
	stw 11,416(31)
	.loc 4 358 0
	stw 9,412(31)
	.loc 4 359 0
	stb 0,420(31)
.LEHB72:
.LBE3402:
.LBE3404:
.LBE3406:
	.loc 8 86 0
	bl _ZN10idAFVectorC1Ev
.LEHE72:
	addi 20,31,524
	mr 3,20
.LEHB73:
	bl _ZN10idAFVectorC1Ev
.LEHE73:
.LVL631:
.LBE3416:
.LBE3418:
.LBB3419:
.LBB3420:
	.loc 9 633 0 discriminator 2
	lwz 27,156(28)
.LBE3420:
.LBE3419:
	.loc 3 803 0 discriminator 2
	addi 26,28,144
.LVL632:
.LBB3453:
.LBB3447:
	.loc 9 633 0 discriminator 2
	cmpwi 7,27,0
	beq- 7,.L551
	.loc 9 633 0 is_stmt 0
	lwz 9,144(28)
	lwz 0,148(28)
.L552:
	.loc 9 637 0 is_stmt 1
	cmpw 7,9,0
	beq- 7,.L722
.L669:
.LBB3421:
.LBB3422:
	.loc 9 399 0
	slwi 0,9,2
	addi 9,9,1
	add 27,27,0
.L559:
.LBE3422:
.LBE3421:
	.loc 9 641 0
	stw 9,144(28)
.LBE3447:
.LBE3453:
	.loc 3 805 0
	mr 3,31
	.loc 3 803 0
	stw 31,0(27)
	.loc 3 805 0
	mr 4,28
	addi 29,1,8
.LEHB74:
	bl _ZN13idDeclAF_Body10SetDefaultEPK8idDeclAF
	.loc 3 807 0
	addi 29,1,8
	mr 3,30
	li 4,1
	li 5,0
	mr 6,29
	bl _ZN7idLexer15ExpectTokenTypeEiiP7idToken
.LEHE74:
	cmpwi 7,3,0
	bne- 7,.L723
.LVL633:
.L664:
	.loc 3 961 0
	li 30,0
.LVL634:
.L569:
.LBB3454:
.LBB3455:
.LBB3456:
.LBB3457:
.LBB3458:
	.loc 4 501 0
	addi 3,1,124
.LEHB75:
	bl _ZN5idStr8FreeDataEv
.LEHE75:
.LVL635:
.LBE3458:
.LBE3457:
.LBE3456:
.LBB3459:
.LBB3460:
.LBB3461:
	addi 3,1,92
.LEHB76:
	bl _ZN5idStr8FreeDataEv
.LEHE76:
.LVL636:
.LBE3461:
.LBE3460:
.LBE3459:
.LBE3455:
.LBE3454:
.LBB3466:
.LBB3467:
.LBB3468:
.LBB3469:
.LBB3470:
	mr 3,29
.LEHB77:
	bl _ZN5idStr8FreeDataEv
.LEHE77:
.LBE3470:
.LBE3469:
.LBE3468:
.LBE3467:
.LBE3466:
.LBE3596:
	.loc 3 967 0
	lwz 0,260(1)
	mr 3,30
	lwz 14,184(1)
	mtlr 0
	lwz 15,188(1)
	lwz 16,192(1)
	lwz 17,196(1)
	lwz 18,200(1)
	lwz 19,204(1)
	lwz 20,208(1)
	lwz 21,212(1)
	lwz 22,216(1)
	lwz 23,220(1)
	lwz 24,224(1)
	lwz 25,228(1)
	lwz 26,232(1)
	lwz 27,236(1)
	lwz 28,240(1)
.LVL637:
	lwz 29,244(1)
	lwz 30,248(1)
	lwz 31,252(1)
.LVL638:
	addi 1,1,256
	.cfi_remember_state
.LCFI103:
	.cfi_def_cfa_offset 0
	.cfi_restore 31
	.cfi_restore 30
	.cfi_restore 29
	.cfi_restore 28
	.cfi_restore 27
	.cfi_restore 26
	.cfi_restore 25
	.cfi_restore 24
	.cfi_restore 23
	.cfi_restore 22
	.cfi_restore 21
	.cfi_restore 20
	.cfi_restore 19
	.cfi_restore 18
	.cfi_restore 17
	.cfi_restore 16
	.cfi_restore 15
	.cfi_restore 14
	blr
.LVL639:
.L723:
.LCFI104:
	.cfi_restore_state
.LBB3597:
	.loc 3 808 0
	lis 4,.LC114@ha
	mr 3,30
	la 4,.LC114@l(4)
.LEHB78:
	bl _ZN7idLexer17ExpectTokenStringEPKc
	.loc 3 807 0
	cmpwi 7,3,0
	beq- 7,.L664
.LVL640:
.LBB3471:
	.loc 3 1753 0
	lwz 27,8(1)
.LBB3472:
.LBB3473:
.LBB3474:
	.loc 4 350 0
	lwz 0,8(31)
.LBE3474:
.LBE3473:
	.loc 4 534 0
	addi 4,27,1
.LVL641:
.LBB3477:
.LBB3475:
	.loc 4 350 0
	cmpw 7,4,0
	bgt- 7,.L724
.LVL642:
.L620:
.LBE3475:
.LBE3477:
	.loc 4 535 0
	lwz 4,12(1)
	mr 5,27
	lwz 3,4(31)
.LBE3472:
.LBE3471:
.LBB3482:
.LBB3483:
	.loc 4 690 0
	lis 26,.LC24@ha
.LVL643:
	la 26,.LC24@l(26)
.LBE3483:
.LBE3482:
.LBB3486:
.LBB3479:
	.loc 4 535 0
	bl memcpy
	.loc 4 536 0
	lwz 9,4(31)
	li 0,0
.LBE3479:
.LBE3486:
.LBB3487:
.LBB3484:
	.loc 4 690 0
	mr 4,26
.LBE3484:
.LBE3487:
.LBB3488:
.LBB3480:
	.loc 4 536 0
	stbx 0,9,27
	.loc 4 537 0
	stw 27,0(31)
.LVL644:
.LBE3480:
.LBE3488:
.LBB3489:
.LBB3485:
	.loc 4 690 0
	lwz 3,4(31)
	bl _ZN5idStr4IcmpEPKcS1_
.LBE3485:
.LBE3489:
	.loc 3 813 0
	cmpwi 7,3,0
	bne- 7,.L725
.L570:
	.loc 3 814 0 discriminator 4
	lis 4,.LC115@ha
	mr 3,30
	la 4,.LC115@l(4)
	crxor 6,6,6
	bl _ZN7idLexer5ErrorEPKcz
	b .L664
.LVL645:
.L722:
	lwz 3,152(28)
.L554:
.LVL646:
.LBB3490:
.LBB3448:
.LBB3429:
.LBB3425:
	.loc 9 375 0
	add. 3,9,3
.LVL647:
	ble- 0,.L726
	.loc 9 380 0
	cmpw 7,9,3
	beq- 7,.L669
.LVL648:
	.loc 9 387 0
	cmpw 7,3,9
	.loc 9 386 0
	stw 3,148(28)
	.loc 9 387 0
	blt- 7,.L727
.L563:
	.loc 9 392 0
	slwi 3,3,2
.LVL649:
	addi 29,1,8
	bl _Znaj
.LVL650:
	.loc 9 393 0
	lwz 0,144(28)
	.loc 9 392 0
	stw 3,156(28)
.LVL651:
	.loc 9 393 0
	cmpwi 7,0,0
	ble- 7,.L564
	.loc 3 797 0
	addi 11,27,-4
.LBE3425:
.LBE3429:
.LBB3430:
.LBB3431:
.LBB3432:
.LBB3433:
	.loc 9 393 0
	li 9,0
	b .L565
.LVL652:
.L728:
.LBE3433:
.LBE3432:
.LBE3431:
.LBE3430:
.LBB3440:
.LBB3426:
	lwz 3,156(28)
.LVL653:
.L565:
	.loc 9 394 0
	lwzu 10,4(11)
	slwi 0,9,2
	.loc 9 393 0
	addi 9,9,1
.LVL654:
	.loc 9 394 0
	stwx 10,3,0
	.loc 9 393 0
	lwz 0,0(26)
	cmpw 7,9,0
	blt+ 7,.L728
.LVL655:
.L564:
	.loc 9 398 0
	cmpwi 7,27,0
	beq- 7,.L729
	.loc 9 399 0
	mr 3,27
	bl _ZdaPv
	lwz 9,144(28)
	lwz 27,156(28)
.LVL656:
	b .L669
.LVL657:
.L727:
	.loc 9 388 0
	stw 3,144(28)
	b .L563
.LVL658:
.L724:
.LBE3426:
.LBE3440:
.LBE3448:
.LBE3490:
.LBB3491:
.LBB3481:
.LBB3478:
.LBB3476:
	.loc 4 351 0
	mr 3,31
	li 5,0
	bl _ZN5idStr10ReAllocateEib
.LVL659:
	b .L620
.LVL660:
.L725:
.LBE3476:
.LBE3478:
.LBE3481:
.LBE3491:
.LBB3492:
.LBB3493:
	.loc 4 690 0 discriminator 2
	lis 4,.LC26@ha
	lwz 3,4(31)
	la 4,.LC26@l(4)
	bl _ZN5idStr4IcmpEPKcS1_
.LBE3493:
.LBE3492:
	.loc 3 813 0 discriminator 2
	cmpwi 7,3,0
	li 17,0
	beq- 7,.L570
.LBB3494:
.LBB3495:
	.loc 4 690 0 discriminator 1
	lis 27,.LC116@ha
.LBE3495:
.LBE3494:
.LBB3498:
.LBB3499:
	lis 19,.LC126@ha
.LBE3499:
.LBE3498:
.LBB3502:
.LBB3503:
	lis 18,.LC6@ha
.LBE3503:
.LBE3502:
.LBB3506:
.LBB3507:
	lis 16,.LC127@ha
.LBE3507:
.LBE3506:
.LBB3510:
.LBB3511:
	lis 15,.LC128@ha
.LBE3511:
.LBE3510:
.LBB3514:
.LBB3515:
	lis 14,.LC129@ha
.LBE3515:
.LBE3514:
.LBB3518:
.LBB3496:
	la 27,.LC116@l(27)
.LBE3496:
.LBE3518:
.LBB3519:
.LBB3500:
	la 19,.LC126@l(19)
.LBE3500:
.LBE3519:
.LBB3520:
.LBB3504:
	la 18,.LC6@l(18)
.LBE3504:
.LBE3520:
.LBB3521:
.LBB3508:
	la 16,.LC127@l(16)
.LBE3508:
.LBE3521:
.LBB3522:
.LBB3512:
	la 15,.LC128@l(15)
.LBE3512:
.LBE3522:
.LBB3523:
.LBB3516:
	la 14,.LC129@l(14)
.LVL661:
.L656:
.LBE3516:
.LBE3523:
	.loc 3 818 0 discriminator 1
	mr 3,30
	mr 4,29
	bl _ZN7idLexer9ReadTokenEP7idToken
	cmpwi 7,3,0
	beq- 7,.L605
.LVL662:
.LBB3524:
.LBB3497:
	.loc 4 690 0
	lwz 3,12(1)
	mr 4,27
	bl _ZN5idStr4IcmpEPKcS1_
.LBE3497:
.LBE3524:
	.loc 3 820 0
	cmpwi 7,3,0
	bne- 7,.L572
	.loc 3 821 0
	mr 3,30
	li 4,4
	li 5,0
	mr 6,29
	bl _ZN7idLexer15ExpectTokenTypeEiiP7idToken
	cmpwi 7,3,0
	beq- 7,.L664
.LVL663:
.LBB3525:
.LBB3526:
	.loc 4 690 0
	lis 4,.LC117@ha
	lwz 3,12(1)
	la 4,.LC117@l(4)
	bl _ZN5idStr4IcmpEPKcS1_
.LBE3526:
.LBE3525:
	.loc 3 824 0
	cmpwi 7,3,0
	.loc 3 825 0
	li 0,1
	.loc 3 824 0
	beq- 7,.L712
.LVL664:
.LBB3527:
.LBB3528:
	.loc 4 690 0
	lis 4,.LC118@ha
	lwz 3,12(1)
	la 4,.LC118@l(4)
	bl _ZN5idStr4IcmpEPKcS1_
.LBE3528:
.LBE3527:
	.loc 3 833 0
	cmpwi 7,3,0
	.loc 3 834 0
	li 0,2
	.loc 3 833 0
	beq- 7,.L712
.LVL665:
.LBB3529:
.LBB3530:
	.loc 4 690 0
	lis 4,.LC119@ha
	lwz 3,12(1)
	la 4,.LC119@l(4)
	bl _ZN5idStr4IcmpEPKcS1_
.LBE3530:
.LBE3529:
	.loc 3 842 0
	cmpwi 7,3,0
	bne- 7,.L578
	.loc 3 843 0
	li 0,3
.LVL666:
.L712:
	.loc 3 844 0
	lis 4,.LC3@ha
	.loc 3 843 0
	stw 0,68(31)
	.loc 3 844 0
	mr 3,30
	la 4,.LC3@l(4)
	bl _ZN7idLexer17ExpectTokenStringEPKc
	cmpwi 7,3,0
	beq+ 7,.L664
	.loc 3 845 0
	mr 3,23
	mr 4,30
	bl _ZN10idAFVector5ParseER7idLexer
	.loc 3 844 0
	cmpwi 7,3,0
	beq+ 7,.L664
	.loc 3 846 0
	lis 4,.LC4@ha
	mr 3,30
	la 4,.LC4@l(4)
	bl _ZN7idLexer17ExpectTokenStringEPKc
	.loc 3 844 0
	cmpwi 7,3,0
	beq+ 7,.L664
	.loc 3 847 0
	mr 3,22
	mr 4,30
	bl _ZN10idAFVector5ParseER7idLexer
	.loc 3 844 0
	cmpwi 7,3,0
	beq+ 7,.L664
	b .L682
.LVL667:
.L572:
.LBB3531:
.LBB3532:
	.loc 4 690 0
	lwz 3,12(1)
	mr 4,26
	bl _ZN5idStr4IcmpEPKcS1_
.LBE3532:
.LBE3531:
	.loc 3 897 0
	cmpwi 7,3,0
	bne- 7,.L590
	.loc 3 898 0
	mr 3,24
	mr 4,30
	bl _ZN10idAFVector5ParseER7idLexer
.LVL668:
.L675:
	.loc 3 943 0
	cmpwi 7,3,0
	bne+ 7,.L656
	b .L664
.LVL669:
.L590:
.LBB3533:
.LBB3501:
	.loc 4 690 0
	lwz 3,12(1)
	mr 4,19
	bl _ZN5idStr4IcmpEPKcS1_
.LBE3501:
.LBE3533:
	.loc 3 901 0
	cmpwi 7,3,0
	bne- 7,.L591
	.loc 3 902 0
	addi 3,1,88
	mr 4,30
	bl _ZN10idAFVector5ParseER7idLexer
	cmpwi 7,3,0
	beq- 7,.L664
.LVL670:
	.loc 3 905 0
	lwz 0,160(1)
.LVL671:
.LBB3534:
.LBB3535:
	.loc 7 147 0
	stw 0,340(31)
	.loc 7 146 0
	lwz 0,156(1)
	stw 0,336(31)
	.loc 7 148 0
	lwz 0,164(1)
	stw 0,344(31)
	b .L656
.LVL672:
.L591:
.LBE3535:
.LBE3534:
.LBB3536:
.LBB3505:
	.loc 4 690 0
	lwz 3,12(1)
	mr 4,18
	bl _ZN5idStr4IcmpEPKcS1_
.LBE3505:
.LBE3536:
	.loc 3 906 0
	cmpwi 7,3,0
	bne- 7,.L592
	.loc 3 907 0
	mr 3,30
	li 4,1
	li 5,0
	mr 6,29
	bl _ZN7idLexer15ExpectTokenTypeEiiP7idToken
	cmpwi 7,3,0
	beq- 7,.L664
.LVL673:
.LBB3537:
	.loc 3 1753 0
	lwz 25,8(1)
.LBB3538:
.LBB3539:
.LBB3540:
	.loc 4 350 0
	lwz 0,40(31)
.LBE3540:
.LBE3539:
	.loc 4 534 0
	addi 4,25,1
.LVL674:
.LBB3543:
.LBB3541:
	.loc 4 350 0
	cmpw 7,4,0
	bgt- 7,.L730
.LVL675:
.L593:
.LBE3541:
.LBE3543:
	.loc 4 535 0
	lwz 3,36(31)
	mr 5,25
	lwz 4,12(1)
	.loc 3 911 0
	li 17,1
	.loc 4 535 0
	bl memcpy
	.loc 4 536 0
	lwz 9,36(31)
	li 0,0
	stbx 0,9,25
	.loc 4 537 0
	stw 25,32(31)
	b .L656
.LVL676:
.L592:
.LBE3538:
.LBE3537:
.LBB3546:
.LBB3509:
	.loc 4 690 0
	lwz 3,12(1)
	mr 4,16
	bl _ZN5idStr4IcmpEPKcS1_
.LBE3509:
.LBE3546:
	.loc 3 912 0
	cmpwi 7,3,0
	bne- 7,.L594
	.loc 3 913 0
	mr 3,30
	mr 4,29
	bl _ZN7idLexer14ExpectAnyTokenEP7idToken
	cmpwi 7,3,0
	beq- 7,.L664
	.loc 3 916 0
	lwz 3,12(1)
	bl _ZN8idDeclAF18JointModFromStringEPKc
	stw 3,64(31)
	b .L656
.LVL677:
.L578:
.LBB3547:
.LBB3548:
	.loc 4 690 0
	lis 4,.LC120@ha
	lwz 3,12(1)
	la 4,.LC120@l(4)
	bl _ZN5idStr4IcmpEPKcS1_
.LBE3548:
.LBE3547:
	.loc 3 851 0
	cmpwi 7,3,0
	.loc 3 852 0
	li 0,4
	.loc 3 851 0
	beq- 7,.L721
.LVL678:
.LBB3549:
.LBB3550:
	.loc 4 690 0
	lis 4,.LC121@ha
	lwz 3,12(1)
	la 4,.LC121@l(4)
	bl _ZN5idStr4IcmpEPKcS1_
.LBE3550:
.LBE3549:
	.loc 3 864 0
	cmpwi 7,3,0
	bne- 7,.L583
	.loc 3 865 0
	li 0,5
.LVL679:
.L721:
	.loc 3 866 0
	lis 4,.LC3@ha
	.loc 3 865 0
	stw 0,68(31)
	.loc 3 866 0
	mr 3,30
	la 4,.LC3@l(4)
	bl _ZN7idLexer17ExpectTokenStringEPKc
	cmpwi 7,3,0
	beq+ 7,.L664
	.loc 3 867 0
	mr 3,23
	mr 4,30
	bl _ZN10idAFVector5ParseER7idLexer
	.loc 3 866 0
	cmpwi 7,3,0
	beq+ 7,.L664
	.loc 3 868 0
	lis 25,.LC4@ha
	mr 3,30
	la 25,.LC4@l(25)
	mr 4,25
	bl _ZN7idLexer17ExpectTokenStringEPKc
	.loc 3 866 0
	cmpwi 7,3,0
	beq+ 7,.L664
	.loc 3 869 0
	mr 3,22
	mr 4,30
	bl _ZN10idAFVector5ParseER7idLexer
	.loc 3 866 0
	cmpwi 7,3,0
	beq+ 7,.L664
	.loc 3 870 0
	mr 3,30
	mr 4,25
	bl _ZN7idLexer17ExpectTokenStringEPKc
	.loc 3 866 0
	cmpwi 7,3,0
	beq- 7,.L664
	.loc 3 873 0
	mr 3,30
	bl _ZN7idLexer8ParseIntEv
	stw 3,240(31)
	.loc 3 874 0
	lis 4,.LC5@ha
	mr 3,30
	la 4,.LC5@l(4)
	bl _ZN7idLexer17ExpectTokenStringEPKc
	b .L675
.LVL680:
.L594:
.LBB3551:
.LBB3513:
	.loc 4 690 0
	lwz 3,12(1)
	mr 4,15
	bl _ZN5idStr4IcmpEPKcS1_
.LBE3513:
.LBE3551:
	.loc 3 917 0
	cmpwi 7,3,0
	bne- 7,.L595
	.loc 3 918 0
	mr 3,30
	li 4,0
	bl _ZN7idLexer10ParseFloatEPb
	stfs 1,248(31)
	b .L656
.LVL681:
.L730:
.LBB3552:
.LBB3545:
.LBB3544:
.LBB3542:
	.loc 4 351 0
	addi 3,31,32
	li 5,0
	bl _ZN5idStr10ReAllocateEib
.LVL682:
	b .L593
.LVL683:
.L605:
.LBE3542:
.LBE3544:
.LBE3545:
.LBE3552:
	.loc 3 954 0
	lwz 0,68(31)
	cmpwi 7,0,0
	beq- 7,.L731
	.loc 3 959 0
	cmpwi 7,17,0
	beq- 7,.L732
	.loc 3 964 0
	lwz 0,352(31)
	.loc 3 966 0
	li 30,1
.LVL684:
	.loc 3 964 0
	ori 0,0,32
	stw 0,352(31)
	b .L569
.LVL685:
.L595:
.LBB3553:
.LBB3517:
	.loc 4 690 0
	lwz 3,12(1)
	mr 4,14
	bl _ZN5idStr4IcmpEPKcS1_
.LBE3517:
.LBE3553:
	.loc 3 919 0
	cmpwi 7,3,0
	bne- 7,.L596
.LVL686:
	.loc 3 920 0
	mr 3,30
	li 4,9
	addi 5,31,360
	bl _ZN7idLexer13Parse1DMatrixEiPf
	b .L656
.LVL687:
.L583:
.LBB3554:
.LBB3555:
	.loc 4 690 0
	lis 4,.LC122@ha
	lwz 3,12(1)
	la 4,.LC122@l(4)
	bl _ZN5idStr4IcmpEPKcS1_
.LBE3555:
.LBE3554:
	.loc 3 877 0
	cmpwi 7,3,0
	bne- 7,.L586
	.loc 3 878 0
	li 0,6
	.loc 3 879 0
	lis 4,.LC3@ha
	.loc 3 878 0
	stw 0,68(31)
	.loc 3 879 0
	mr 3,30
	la 4,.LC3@l(4)
	bl _ZN7idLexer17ExpectTokenStringEPKc
	cmpwi 7,3,0
	beq+ 7,.L664
	.loc 3 880 0
	mr 3,23
	mr 4,30
	bl _ZN10idAFVector5ParseER7idLexer
	.loc 3 879 0
	cmpwi 7,3,0
	beq+ 7,.L664
	.loc 3 881 0
	lis 25,.LC4@ha
	mr 3,30
	la 25,.LC4@l(25)
	mr 4,25
	bl _ZN7idLexer17ExpectTokenStringEPKc
	.loc 3 879 0
	cmpwi 7,3,0
	beq+ 7,.L664
	.loc 3 882 0
	mr 3,22
	mr 4,30
	bl _ZN10idAFVector5ParseER7idLexer
	.loc 3 879 0
	cmpwi 7,3,0
	beq+ 7,.L664
	.loc 3 883 0
	mr 3,30
	mr 4,25
	bl _ZN7idLexer17ExpectTokenStringEPKc
	.loc 3 879 0
	cmpwi 7,3,0
	beq- 7,.L664
	.loc 3 886 0
	mr 3,30
	li 4,0
	bl _ZN7idLexer10ParseFloatEPb
	stfs 1,244(31)
.LVL688:
.L682:
	.loc 3 887 0
	lis 4,.LC5@ha
	mr 3,30
	la 4,.LC5@l(4)
	bl _ZN7idLexer17ExpectTokenStringEPKc
	b .L675
.LVL689:
.L551:
.LBB3556:
.LBB3449:
	.loc 9 634 0
	lwz 3,152(28)
.LBB3441:
.LBB3436:
	.loc 9 375 0
	cmpwi 7,3,0
.LBE3436:
.LBE3441:
	.loc 9 634 0
	mr 0,3
.LVL690:
.LBB3442:
.LBB3437:
	.loc 9 375 0
	ble- 7,.L733
	.loc 9 380 0
	lwz 9,148(28)
	cmpw 7,3,9
	beq- 7,.L734
.LVL691:
	.loc 9 387 0
	lwz 0,144(28)
	.loc 9 386 0
	stw 3,148(28)
	.loc 9 387 0
	cmpw 7,3,0
	bge- 7,.L556
	.loc 9 388 0
	stw 3,144(28)
.L556:
	.loc 9 392 0
	slwi 3,3,2
	addi 29,1,8
	bl _Znaj
.LVL692:
	.loc 9 393 0
	lwz 9,144(28)
	.loc 9 392 0
	mr 27,3
	stw 3,156(28)
.LVL693:
	.loc 9 393 0
	li 11,0
	cmpwi 7,9,0
	li 10,0
	bgt+ 7,.L654
	b .L738
.LVL694:
.L736:
	lwz 27,156(28)
.LVL695:
.L654:
	.loc 9 394 0
	lwz 0,0(11)
	.loc 9 393 0
	addi 10,10,1
.LVL696:
	.loc 9 394 0
	stwx 0,27,11
	.loc 9 393 0
	addi 11,11,4
	lwz 9,0(26)
	cmpw 7,10,9
	blt+ 7,.L736
	lwz 0,148(28)
	lwz 27,156(28)
	b .L552
.LVL697:
.L596:
.LBE3437:
.LBE3442:
.LBE3449:
.LBE3556:
.LBB3557:
.LBB3558:
	.loc 4 690 0
	lis 9,.LC130@ha
	lwz 3,12(1)
	la 4,.LC130@l(9)
	bl _ZN5idStr4IcmpEPKcS1_
.LBE3558:
.LBE3557:
	.loc 3 921 0
	cmpwi 7,3,0
	bne- 7,.L597
	.loc 3 922 0
	mr 3,30
	li 4,0
	bl _ZN7idLexer10ParseFloatEPb
	.loc 3 923 0
	lis 25,.LC4@ha
	.loc 3 922 0
	stfs 1,396(31)
	.loc 3 923 0
	la 25,.LC4@l(25)
	mr 3,30
	mr 4,25
	bl _ZN7idLexer17ExpectTokenStringEPKc
	.loc 3 924 0
	mr 3,30
	li 4,0
	bl _ZN7idLexer10ParseFloatEPb
	stfs 1,400(31)
	.loc 3 925 0
	mr 3,30
	mr 4,25
	bl _ZN7idLexer17ExpectTokenStringEPKc
	.loc 3 926 0
	mr 3,30
	li 4,0
	bl _ZN7idLexer10ParseFloatEPb
	stfs 1,404(31)
	b .L656
.L597:
.LVL698:
.LBB3559:
.LBB3560:
	.loc 4 690 0
	lis 4,.LC131@ha
	lwz 3,12(1)
	la 4,.LC131@l(4)
	bl _ZN5idStr4IcmpEPKcS1_
.LBE3560:
.LBE3559:
	.loc 3 927 0
	cmpwi 7,3,0
	bne- 7,.L598
	.loc 3 928 0
	mr 3,28
	mr 4,30
	addi 5,31,348
	bl _ZNK8idDeclAF13ParseContentsER7idLexerRi
	b .L656
.LVL699:
.L729:
.LBB3561:
.LBB3450:
.LBB3443:
.LBB3427:
	.loc 9 398 0
	lwz 9,144(28)
	lwz 27,156(28)
.LVL700:
	slwi 0,9,2
	addi 9,9,1
	add 27,27,0
	b .L559
.LVL701:
.L734:
.LBE3427:
.LBE3443:
.LBB3444:
.LBB3438:
	.loc 9 380 0
	lwz 9,144(28)
	b .L552
.LVL702:
.L731:
.LBE3438:
.LBE3444:
.LBE3450:
.LBE3561:
	.loc 3 955 0
	lis 4,.LC139@ha
	mr 3,30
	la 4,.LC139@l(4)
	crxor 6,6,6
	bl _ZN7idLexer5ErrorEPKcz
	b .L664
.L732:
	.loc 3 960 0
	lis 4,.LC140@ha
	mr 3,30
	la 4,.LC140@l(4)
	crxor 6,6,6
	bl _ZN7idLexer5ErrorEPKcz
	b .L664
.LVL703:
.L726:
.LBB3562:
.LBB3451:
.LBB3445:
.LBB3428:
.LBB3423:
.LBB3424:
	.loc 9 193 0
	cmpwi 7,27,0
	beq- 7,.L561
	.loc 9 194 0
	mr 3,27
.LVL704:
	bl _ZdaPv
.L561:
	.loc 9 197 0
	li 0,0
	.loc 9 199 0
	li 9,1
	.loc 9 197 0
	stw 0,156(28)
	.loc 9 199 0
	li 27,0
	stw 0,148(28)
	b .L559
.LVL705:
.L598:
.LBE3424:
.LBE3423:
.LBE3428:
.LBE3445:
.LBE3451:
.LBE3562:
.LBB3563:
.LBB3564:
	.loc 4 690 0
	lis 4,.LC132@ha
	lwz 3,12(1)
	la 4,.LC132@l(4)
	bl _ZN5idStr4IcmpEPKcS1_
.LBE3564:
.LBE3563:
	.loc 3 929 0
	cmpwi 7,3,0
	bne- 7,.L599
	.loc 3 930 0
	mr 3,28
	mr 4,30
	addi 5,31,352
	bl _ZNK8idDeclAF13ParseContentsER7idLexerRi
	b .L656
.L599:
.LVL706:
.LBB3565:
.LBB3566:
	.loc 4 690 0
	lis 4,.LC133@ha
	lwz 3,12(1)
	la 4,.LC133@l(4)
	bl _ZN5idStr4IcmpEPKcS1_
.LBE3566:
.LBE3565:
	.loc 3 931 0
	cmpwi 7,3,0
	bne- 7,.L600
	.loc 3 932 0
	mr 3,30
	bl _ZN7idLexer9ParseBoolEv
	stb 3,356(31)
	b .L656
.LVL707:
.L733:
.LBB3567:
.LBB3452:
.LBB3446:
.LBB3439:
.LBB3435:
.LBB3434:
	.loc 9 198 0
	stw 27,144(28)
	.loc 9 199 0
	li 9,0
	stw 27,148(28)
	b .L554
.LVL708:
.L738:
.LBE3434:
.LBE3435:
	.loc 9 393 0
	lwz 0,148(28)
	b .L552
.LVL709:
.L600:
.LBE3439:
.LBE3446:
.LBE3452:
.LBE3567:
.LBB3568:
.LBB3569:
	.loc 4 690 0
	lis 4,.LC134@ha
	lwz 3,12(1)
	la 4,.LC134@l(4)
	bl _ZN5idStr4IcmpEPKcS1_
.LBE3569:
.LBE3568:
	.loc 3 933 0
	cmpwi 7,3,0
	bne- 7,.L601
	.loc 3 934 0
	mr 3,30
	li 4,1
	li 5,0
	mr 6,29
	bl _ZN7idLexer15ExpectTokenTypeEiiP7idToken
	cmpwi 7,3,0
	beq- 7,.L664
.LVL710:
.LBB3570:
	.loc 3 1753 0
	lwz 25,8(1)
.LBB3571:
.LBB3572:
.LBB3573:
	.loc 4 350 0
	lwz 0,416(31)
.LBE3573:
.LBE3572:
	.loc 4 534 0
	addi 4,25,1
.LVL711:
.LBB3576:
.LBB3574:
	.loc 4 350 0
	cmpw 7,4,0
	bgt- 7,.L737
.LVL712:
.L602:
.LBE3574:
.LBE3576:
	.loc 4 535 0
	lwz 3,412(31)
	mr 5,25
	lwz 4,12(1)
	bl memcpy
	.loc 4 536 0
	lwz 9,412(31)
	li 0,0
	stbx 0,9,25
	.loc 4 537 0
	stw 25,408(31)
	b .L656
.LVL713:
.L586:
.LBE3571:
.LBE3570:
.LBB3579:
.LBB3580:
	.loc 4 690 0
	lis 4,.LC123@ha
	lwz 3,12(1)
	la 4,.LC123@l(4)
	bl _ZN5idStr4IcmpEPKcS1_
.LBE3580:
.LBE3579:
	.loc 3 890 0
	cmpwi 7,3,0
	bne- 7,.L589
	.loc 3 891 0
	lis 4,.LC124@ha
	mr 3,30
	la 4,.LC124@l(4)
	crxor 6,6,6
	bl _ZN7idLexer5ErrorEPKcz
	b .L664
.LVL714:
.L601:
.LBB3581:
.LBB3582:
	.loc 4 690 0
	lis 4,.LC135@ha
	lwz 3,12(1)
	la 4,.LC135@l(4)
	bl _ZN5idStr4IcmpEPKcS1_
.LBE3582:
.LBE3581:
	.loc 3 938 0
	cmpwi 7,3,0
	bne- 7,.L603
	.loc 3 939 0
	mr 3,21
	mr 4,30
	bl _ZN10idAFVector5ParseER7idLexer
	b .L675
.LVL715:
.L589:
	.loc 3 894 0
	lis 4,.LC125@ha
	lwz 5,12(1)
	mr 3,30
	la 4,.LC125@l(4)
	crxor 6,6,6
	bl _ZN7idLexer5ErrorEPKcz
	b .L664
.LVL716:
.L737:
.LBB3583:
.LBB3578:
.LBB3577:
.LBB3575:
	.loc 4 351 0
	addi 3,31,408
	li 5,0
	bl _ZN5idStr10ReAllocateEib
.LVL717:
	b .L602
.LVL718:
.L603:
.LBE3575:
.LBE3577:
.LBE3578:
.LBE3583:
.LBB3584:
.LBB3585:
	.loc 4 690 0
	lis 4,.LC136@ha
	lwz 3,12(1)
	la 4,.LC136@l(4)
	bl _ZN5idStr4IcmpEPKcS1_
.LBE3585:
.LBE3584:
	.loc 3 942 0
	cmpwi 7,3,0
	bne- 7,.L604
	.loc 3 943 0
	mr 3,20
	mr 4,30
	bl _ZN10idAFVector5ParseER7idLexer
.LEHE78:
	b .L675
.LVL719:
.L649:
	mr 30,3
.LVL720:
.LBB3586:
.LBB3417:
	.loc 8 86 0
	mr 3,21
	bl _ZN10idAFVectorD1Ev
.L543:
.LVL721:
.LBB3407:
.LBB3408:
.LBB3409:
	.loc 4 501 0
	addi 3,31,408
	bl _ZN5idStr8FreeDataEv
.LBE3409:
.LBE3408:
.LBE3407:
	.loc 8 86 0
	mr 3,24
	bl _ZN10idAFVectorD1Ev
.LVL722:
.L545:
	mr 3,22
	bl _ZN10idAFVectorD1Ev
.L546:
	mr 3,23
	bl _ZN10idAFVectorD1Ev
.L547:
.LVL723:
.LBB3410:
.LBB3411:
.LBB3412:
	.loc 4 501 0
	addi 3,31,32
	addi 29,1,8
	bl _ZN5idStr8FreeDataEv
.LVL724:
.LBE3412:
.LBE3411:
.LBE3410:
.LBB3413:
.LBB3414:
.LBB3415:
	mr 3,31
	bl _ZN5idStr8FreeDataEv
.LBE3415:
.LBE3414:
.LBE3413:
.LBE3417:
.LBE3586:
	.loc 3 801 0
	mr 3,31
	bl _ZdlPv
	mr 31,30
.LVL725:
.L550:
	.loc 3 966 0
	addi 3,1,88
	bl _ZN10idAFVectorD1Ev
.L613:
.LVL726:
.LBB3587:
.LBB3588:
.LBB3589:
.LBB3590:
.LBB3591:
	.loc 4 501 0
	mr 3,29
	bl _ZN5idStr8FreeDataEv
	mr 3,31
.LEHB79:
	bl _Unwind_Resume
.LEHE79:
.LVL727:
.L645:
	mr 30,3
.LVL728:
	b .L547
.LVL729:
.L644:
	mr 31,3
	b .L550
.LVL730:
.L643:
	mr 31,3
	b .L613
.LVL731:
.L650:
	mr 31,3
.LVL732:
.LBE3591:
.LBE3590:
.LBE3589:
.LBE3588:
.LBE3587:
.LBB3592:
.LBB3465:
.LBB3462:
.LBB3463:
.LBB3464:
	addi 3,1,92
.LVL733:
	bl _ZN5idStr8FreeDataEv
.LVL734:
	b .L613
.LVL735:
.L647:
	mr 30,3
.LVL736:
	b .L545
.LVL737:
.L646:
	mr 30,3
.LVL738:
	b .L546
.LVL739:
.L648:
	mr 30,3
.LVL740:
	b .L543
.LVL741:
.L604:
.LBE3464:
.LBE3463:
.LBE3462:
.LBE3465:
.LBE3592:
.LBB3593:
.LBB3594:
	.loc 4 653 0
	lis 4,.LC137@ha
	lwz 3,12(1)
	la 4,.LC137@l(4)
.LEHB80:
	bl _ZN5idStr3CmpEPKcS1_
.LBE3594:
.LBE3593:
	.loc 3 946 0
	cmpwi 7,3,0
	beq+ 7,.L605
	.loc 3 949 0
	lis 4,.LC138@ha
	lwz 5,12(1)
	mr 3,30
	la 4,.LC138@l(4)
	crxor 6,6,6
	bl _ZN7idLexer5ErrorEPKcz
.LEHE80:
	b .L664
.LBE3597:
	.cfi_endproc
.LFE2564:
	.section	.gcc_except_table
.LLSDA2564:
	.byte	0xff
	.byte	0xff
	.byte	0x1
	.uleb128 .LLSDACSE2564-.LLSDACSB2564
.LLSDACSB2564:
	.uleb128 .LEHB67-.LFB2564
	.uleb128 .LEHE67-.LEHB67
	.uleb128 .L643-.LFB2564
	.uleb128 0
	.uleb128 .LEHB68-.LFB2564
	.uleb128 .LEHE68-.LEHB68
	.uleb128 .L644-.LFB2564
	.uleb128 0
	.uleb128 .LEHB69-.LFB2564
	.uleb128 .LEHE69-.LEHB69
	.uleb128 .L645-.LFB2564
	.uleb128 0
	.uleb128 .LEHB70-.LFB2564
	.uleb128 .LEHE70-.LEHB70
	.uleb128 .L646-.LFB2564
	.uleb128 0
	.uleb128 .LEHB71-.LFB2564
	.uleb128 .LEHE71-.LEHB71
	.uleb128 .L647-.LFB2564
	.uleb128 0
	.uleb128 .LEHB72-.LFB2564
	.uleb128 .LEHE72-.LEHB72
	.uleb128 .L648-.LFB2564
	.uleb128 0
	.uleb128 .LEHB73-.LFB2564
	.uleb128 .LEHE73-.LEHB73
	.uleb128 .L649-.LFB2564
	.uleb128 0
	.uleb128 .LEHB74-.LFB2564
	.uleb128 .LEHE74-.LEHB74
	.uleb128 .L644-.LFB2564
	.uleb128 0
	.uleb128 .LEHB75-.LFB2564
	.uleb128 .LEHE75-.LEHB75
	.uleb128 .L650-.LFB2564
	.uleb128 0
	.uleb128 .LEHB76-.LFB2564
	.uleb128 .LEHE76-.LEHB76
	.uleb128 .L643-.LFB2564
	.uleb128 0
	.uleb128 .LEHB77-.LFB2564
	.uleb128 .LEHE77-.LEHB77
	.uleb128 0
	.uleb128 0
	.uleb128 .LEHB78-.LFB2564
	.uleb128 .LEHE78-.LEHB78
	.uleb128 .L644-.LFB2564
	.uleb128 0
	.uleb128 .LEHB79-.LFB2564
	.uleb128 .LEHE79-.LEHB79
	.uleb128 0
	.uleb128 0
	.uleb128 .LEHB80-.LFB2564
	.uleb128 .LEHE80-.LEHB80
	.uleb128 .L644-.LFB2564
	.uleb128 0
.LLSDACSE2564:
	.section	".text"
	.size	_ZN8idDeclAF9ParseBodyER7idLexer, .-_ZN8idDeclAF9ParseBodyER7idLexer
	.align 2
	.globl _ZN8idDeclAF10ParseFixedER7idLexer
	.type	_ZN8idDeclAF10ParseFixedER7idLexer, @function
_ZN8idDeclAF10ParseFixedER7idLexer:
.LFB2571:
	.loc 3 974 0
	.cfi_startproc
	.cfi_personality 0,__gxx_personality_v0
	.cfi_lsda 0,.LLSDA2571
.LVL742:
	mflr 0
	stwu 1,-128(1)
.LCFI105:
	.cfi_def_cfa_offset 128
	.cfi_register 65, 0
.LVL743:
.LBB3667:
.LBB3668:
.LBB3669:
.LBB3670:
.LBB3671:
	.loc 4 357 0
	li 9,20
.LBE3671:
.LBE3670:
.LBE3669:
.LBE3668:
.LBE3667:
	.loc 3 974 0
	stw 30,120(1)
	mr 30,3
	.cfi_offset 30, -8
	stw 0,132(1)
.LBB3826:
	.loc 3 976 0
	li 3,648
.LVL744:
.LBB3678:
.LBB3676:
.LBB3674:
.LBB3672:
	.loc 4 356 0
	li 0,0
	.cfi_offset 65, 4
	.loc 4 357 0
	stw 9,16(1)
	.loc 4 358 0
	addi 9,1,20
.LBE3672:
.LBE3674:
.LBE3676:
.LBE3678:
.LBE3826:
	.loc 3 974 0
	stw 28,112(1)
	stw 29,116(1)
	mr 28,4
	.cfi_offset 29, -12
	.cfi_offset 28, -16
	stw 23,92(1)
	addi 29,1,8
	stw 24,96(1)
	stw 25,100(1)
	stw 26,104(1)
	stw 27,108(1)
	stw 31,124(1)
.LBB3827:
.LBB3679:
.LBB3677:
.LBB3675:
.LBB3673:
	.loc 4 356 0
	stw 0,8(1)
	.loc 4 358 0
	stw 9,12(1)
	.loc 4 359 0
	stb 0,20(1)
.LEHB81:
.LBE3673:
.LBE3675:
.LBE3677:
.LBE3679:
	.loc 3 976 0
	.cfi_offset 31, -4
	.cfi_offset 27, -20
	.cfi_offset 26, -24
	.cfi_offset 25, -28
	.cfi_offset 24, -32
	.cfi_offset 23, -36
	bl _Znwj
.LEHE81:
.LVL745:
.LBB3680:
.LBB3681:
.LBB3682:
.LBB3683:
.LBB3684:
	.loc 4 356 0
	li 0,0
	.loc 4 357 0
	li 9,20
	.loc 4 358 0
	addi 8,3,12
.LBE3684:
.LBE3683:
.LBE3682:
.LBB3689:
.LBB3690:
.LBB3691:
	addi 10,3,44
.LBE3691:
.LBE3690:
.LBE3689:
.LBB3694:
.LBB3695:
.LBB3696:
	addi 11,3,76
.LBE3696:
.LBE3695:
.LBE3694:
	.loc 8 112 0
	addi 26,3,128
.LBB3699:
.LBB3687:
.LBB3685:
	.loc 4 356 0
	stw 0,0(3)
.LBE3685:
.LBE3687:
.LBE3699:
.LBE3681:
.LBE3680:
	.loc 3 976 0
	mr 31,3
.LVL746:
.LBB3715:
.LBB3712:
.LBB3700:
.LBB3688:
.LBB3686:
	.loc 4 357 0
	stw 9,8(3)
	.loc 4 358 0
	stw 8,4(3)
	.loc 4 359 0
	stb 0,12(3)
.LVL747:
.LBE3686:
.LBE3688:
.LBE3700:
.LBB3701:
.LBB3693:
.LBB3692:
	.loc 4 356 0
	stw 0,32(3)
	.loc 4 357 0
	stw 9,40(3)
	.loc 4 358 0
	stw 10,36(3)
	.loc 4 359 0
	stb 0,44(3)
.LVL748:
.LBE3692:
.LBE3693:
.LBE3701:
.LBB3702:
.LBB3698:
.LBB3697:
	.loc 4 356 0
	stw 0,64(3)
	.loc 4 357 0
	stw 9,72(3)
	.loc 4 358 0
	stw 11,68(3)
	.loc 4 359 0
	stb 0,76(3)
.LBE3697:
.LBE3698:
.LBE3702:
	.loc 8 112 0
	mr 3,26
.LVL749:
.LEHB82:
	bl _ZN10idAFVectorC1Ev
.LEHE82:
	addi 25,31,212
	mr 3,25
.LEHB83:
	bl _ZN10idAFVectorC1Ev
.LEHE83:
	addi 29,31,296
	mr 3,29
.LEHB84:
	bl _ZN10idAFVectorC1Ev
.LEHE84:
	addi 3,31,380
.LEHB85:
	bl _ZN10idAFVectorC1Ev
.LEHE85:
	addi 27,31,464
	mr 3,27
.LEHB86:
	bl _ZN10idAFVectorC1Ev
.LEHE86:
	addi 3,31,552
.LEHB87:
	bl _ZN10idAFVectorC1Ev
.LEHE87:
.LVL750:
.LBE3712:
.LBE3715:
	.loc 3 978 0 discriminator 2
	mr 3,31
	mr 4,30
	addi 29,1,8
.LEHB88:
	bl _ZN19idDeclAF_Constraint10SetDefaultEPK8idDeclAF
.LBB3716:
.LBB3717:
	.loc 9 633 0
	lwz 27,172(30)
.LBE3717:
.LBE3716:
	.loc 3 979 0
	addi 26,30,160
.LVL751:
.LBB3743:
.LBB3740:
	.loc 9 633 0
	cmpwi 7,27,0
	beq- 7,.L757
	lwz 9,160(30)
	lwz 11,164(30)
.L758:
	.loc 9 637 0
	cmpw 7,11,9
	beq- 7,.L810
.L809:
.LBB3718:
.LBB3719:
	.loc 9 399 0
	slwi 0,9,2
	addi 9,9,1
	add 27,27,0
.L765:
.LBE3719:
.LBE3718:
	.loc 9 641 0
	stw 9,160(30)
.LBE3740:
.LBE3743:
	.loc 3 981 0
	addi 29,1,8
	.loc 3 979 0
	stw 31,0(27)
	.loc 3 981 0
	mr 3,28
	li 4,1
	li 5,0
	mr 6,29
	bl _ZN7idLexer15ExpectTokenTypeEiiP7idToken
.LEHE88:
	cmpwi 7,3,0
	bne- 7,.L811
.LVL752:
.L808:
	.loc 3 1001 0
	li 31,0
.L775:
.LVL753:
.LBB3744:
.LBB3745:
.LBB3746:
.LBB3747:
.LBB3748:
	.loc 4 501 0
	mr 3,29
.LEHB89:
	bl _ZN5idStr8FreeDataEv
.LEHE89:
.LBE3748:
.LBE3747:
.LBE3746:
.LBE3745:
.LBE3744:
.LBE3827:
	.loc 3 1006 0
	lwz 0,132(1)
	mr 3,31
	lwz 23,92(1)
	mtlr 0
	lwz 24,96(1)
	lwz 25,100(1)
	lwz 26,104(1)
	lwz 27,108(1)
	lwz 28,112(1)
.LVL754:
	lwz 29,116(1)
	lwz 30,120(1)
	lwz 31,124(1)
	addi 1,1,128
	.cfi_remember_state
.LCFI106:
	.cfi_def_cfa_offset 0
	.cfi_restore 31
	.cfi_restore 30
	.cfi_restore 29
	.cfi_restore 28
	.cfi_restore 27
	.cfi_restore 26
	.cfi_restore 25
	.cfi_restore 24
	.cfi_restore 23
	blr
.LVL755:
.L811:
.LCFI107:
	.cfi_restore_state
.LBB3828:
	.loc 3 982 0
	lis 4,.LC114@ha
	mr 3,28
	la 4,.LC114@l(4)
.LEHB90:
	bl _ZN7idLexer17ExpectTokenStringEPKc
	.loc 3 981 0
	cmpwi 7,3,0
	beq- 7,.L808
.LBB3757:
	.loc 3 1753 0
	lwz 30,8(1)
.LVL756:
.LBB3758:
.LBB3759:
.LBB3760:
	.loc 4 350 0
	lwz 0,8(31)
.LBE3760:
.LBE3759:
	.loc 4 534 0
	addi 4,30,1
.LBB3764:
.LBB3761:
	.loc 4 350 0
	cmpw 7,4,0
.LBE3761:
.LBE3764:
.LBE3758:
.LBE3757:
	.loc 3 986 0
	li 0,1
	stw 0,96(31)
.LVL757:
.LBB3772:
.LBB3767:
.LBB3765:
.LBB3762:
	.loc 4 350 0
	bgt- 7,.L812
.LVL758:
.L788:
.LBE3762:
.LBE3765:
	.loc 4 535 0
	lwz 3,4(31)
	mr 5,30
	lwz 4,12(1)
.LBE3767:
.LBE3772:
.LBB3773:
.LBB3774:
	.loc 4 690 0
	lis 27,.LC141@ha
.LBE3774:
.LBE3773:
.LBB3777:
.LBB3778:
	lis 25,.LC142@ha
.LBE3778:
.LBE3777:
.LBB3781:
.LBB3775:
	la 27,.LC141@l(27)
.LBE3775:
.LBE3781:
.LBB3782:
.LBB3768:
	.loc 4 535 0
	bl memcpy
	.loc 4 536 0
	lwz 9,4(31)
	li 0,0
.LBE3768:
.LBE3782:
.LBB3783:
.LBB3779:
	.loc 4 690 0
	la 25,.LC142@l(25)
.LBE3779:
.LBE3783:
.LBB3784:
.LBB3769:
	.loc 4 536 0
	stbx 0,9,30
.LBE3769:
.LBE3784:
.LBB3785:
.LBB3786:
	li 26,0
.LVL759:
.LBE3786:
.LBE3785:
.LBB3795:
.LBB3770:
	.loc 4 537 0
	stw 30,0(31)
.LBE3770:
.LBE3795:
	.loc 3 996 0
	addi 23,31,64
	.loc 3 993 0
	addi 24,31,32
.LVL760:
.L807:
	.loc 3 989 0 discriminator 1
	mr 3,28
	mr 4,29
	bl _ZN7idLexer9ReadTokenEP7idToken
	cmpwi 7,3,0
	beq- 7,.L813
.L782:
.LVL761:
.LBB3796:
.LBB3776:
	.loc 4 690 0
	lwz 3,12(1)
	mr 4,27
	bl _ZN5idStr4IcmpEPKcS1_
.LBE3776:
.LBE3796:
	.loc 3 991 0
	cmpwi 7,3,0
	bne- 7,.L777
	.loc 3 992 0
	mr 3,28
	li 4,1
	li 5,0
	mr 6,29
	bl _ZN7idLexer15ExpectTokenTypeEiiP7idToken
.LVL762:
.LBB3797:
	.loc 3 1753 0
	lwz 30,8(1)
.LBB3798:
.LBB3799:
.LBB3800:
	.loc 4 350 0
	lwz 0,40(31)
.LBE3800:
.LBE3799:
	.loc 4 534 0
	addi 4,30,1
.LVL763:
.LBB3803:
.LBB3801:
	.loc 4 350 0
	cmpw 7,4,0
	bgt- 7,.L814
.LVL764:
.L778:
.LBE3801:
.LBE3803:
	.loc 4 535 0
	lwz 4,12(1)
	mr 5,30
	lwz 3,36(31)
	bl memcpy
	.loc 4 536 0
	lwz 9,36(31)
.LBE3798:
.LBE3797:
	.loc 3 989 0
	mr 3,28
	mr 4,29
.LBB3807:
.LBB3805:
	.loc 4 536 0
	stbx 26,9,30
	.loc 4 537 0
	stw 30,32(31)
.LBE3805:
.LBE3807:
	.loc 3 989 0
	bl _ZN7idLexer9ReadTokenEP7idToken
.LEHE90:
	cmpwi 7,3,0
	bne+ 7,.L782
.LVL765:
.L813:
.LBB3808:
.LBB3755:
.LBB3753:
.LBB3751:
.LBB3749:
	.loc 4 501 0
	mr 3,29
.LBE3749:
.LBE3751:
.LBE3753:
.LBE3755:
.LBE3808:
	.loc 3 1005 0
	li 31,1
.LVL766:
.LEHB91:
.LBB3809:
.LBB3756:
.LBB3754:
.LBB3752:
.LBB3750:
	.loc 4 501 0
	bl _ZN5idStr8FreeDataEv
.LEHE91:
.LBE3750:
.LBE3752:
.LBE3754:
.LBE3756:
.LBE3809:
.LBE3828:
	.loc 3 1006 0
	lwz 0,132(1)
	mr 3,31
	lwz 23,92(1)
.LVL767:
	mtlr 0
	lwz 24,96(1)
.LVL768:
	lwz 25,100(1)
	lwz 26,104(1)
	lwz 27,108(1)
	lwz 28,112(1)
.LVL769:
	lwz 29,116(1)
	lwz 30,120(1)
	lwz 31,124(1)
	addi 1,1,128
	.cfi_remember_state
	.cfi_restore 23
	.cfi_restore 24
	.cfi_restore 25
	.cfi_restore 26
	.cfi_restore 27
	.cfi_restore 28
	.cfi_restore 29
	.cfi_restore 30
	.cfi_restore 31
.LCFI108:
	.cfi_def_cfa_offset 0
	blr
.LVL770:
.L777:
.LCFI109:
	.cfi_restore_state
.LBB3829:
.LBB3810:
.LBB3780:
	.loc 4 690 0
	lwz 3,12(1)
	mr 4,25
.LEHB92:
	bl _ZN5idStr4IcmpEPKcS1_
.LBE3780:
.LBE3810:
	.loc 3 994 0
	cmpwi 7,3,0
	bne- 7,.L780
	.loc 3 995 0
	mr 3,28
	li 4,1
	li 5,0
	mr 6,29
	bl _ZN7idLexer15ExpectTokenTypeEiiP7idToken
.LVL771:
.LBB3811:
	.loc 3 1753 0
	lwz 30,8(1)
.LBB3793:
.LBB3787:
.LBB3788:
	.loc 4 350 0
	lwz 0,72(31)
.LBE3788:
.LBE3787:
	.loc 4 534 0
	addi 4,30,1
.LVL772:
.LBB3791:
.LBB3789:
	.loc 4 350 0
	cmpw 7,4,0
	bgt- 7,.L815
.LVL773:
.L781:
.LBE3789:
.LBE3791:
	.loc 4 535 0
	lwz 3,68(31)
	mr 5,30
	lwz 4,12(1)
	bl memcpy
	.loc 4 536 0
	lwz 9,68(31)
	stbx 26,9,30
	.loc 4 537 0
	stw 30,64(31)
	b .L807
.LVL774:
.L814:
.LBE3793:
.LBE3811:
.LBB3812:
.LBB3806:
.LBB3804:
.LBB3802:
	.loc 4 351 0
	mr 3,24
	li 5,0
	bl _ZN5idStr10ReAllocateEib
.LVL775:
	b .L778
.LVL776:
.L815:
.LBE3802:
.LBE3804:
.LBE3806:
.LBE3812:
.LBB3813:
.LBB3794:
.LBB3792:
.LBB3790:
	mr 3,23
	li 5,0
	bl _ZN5idStr10ReAllocateEib
.LVL777:
	b .L781
.LVL778:
.L812:
.LBE3790:
.LBE3792:
.LBE3794:
.LBE3813:
.LBB3814:
.LBB3771:
.LBB3766:
.LBB3763:
	mr 3,31
	li 5,0
	bl _ZN5idStr10ReAllocateEib
.LVL779:
	b .L788
.LVL780:
.L810:
	lwz 3,168(30)
.L760:
.LVL781:
.LBE3763:
.LBE3766:
.LBE3771:
.LBE3814:
.LBB3815:
.LBB3741:
.LBB3725:
.LBB3722:
	.loc 9 375 0
	add. 3,11,3
.LVL782:
	ble- 0,.L816
	.loc 9 380 0
	cmpw 7,3,11
	beq- 7,.L817
.LVL783:
	.loc 9 386 0
	stw 3,164(30)
	.loc 9 387 0
	bge- 7,.L769
	.loc 9 388 0
	stw 3,160(30)
.L769:
	.loc 9 392 0
	slwi 3,3,2
.LVL784:
	addi 29,1,8
	bl _Znaj
.LVL785:
	.loc 9 393 0
	lwz 0,160(30)
	.loc 9 392 0
	stw 3,172(30)
.LVL786:
	.loc 9 393 0
	cmpwi 7,0,0
	ble- 7,.L770
	.loc 3 974 0
	addi 11,27,-4
.LBE3722:
.LBE3725:
.LBB3726:
.LBB3727:
.LBB3728:
.LBB3729:
	.loc 9 393 0
	li 9,0
	b .L771
.LVL787:
.L818:
.LBE3729:
.LBE3728:
.LBE3727:
.LBE3726:
.LBB3735:
.LBB3723:
	lwz 3,172(30)
.LVL788:
.L771:
	.loc 9 394 0
	lwzu 10,4(11)
	slwi 0,9,2
	.loc 9 393 0
	addi 9,9,1
.LVL789:
	.loc 9 394 0
	stwx 10,3,0
	.loc 9 393 0
	lwz 0,0(26)
	cmpw 7,9,0
	blt+ 7,.L818
.LVL790:
.L770:
	.loc 9 398 0
	cmpwi 7,27,0
	beq- 7,.L819
	.loc 9 399 0
	mr 3,27
	bl _ZdaPv
	lwz 9,160(30)
	lwz 27,172(30)
.LVL791:
	b .L809
.LVL792:
.L780:
.LBE3723:
.LBE3735:
.LBE3741:
.LBE3815:
.LBB3816:
.LBB3817:
	.loc 4 653 0
	lis 4,.LC137@ha
	lwz 3,12(1)
	la 4,.LC137@l(4)
	bl _ZN5idStr3CmpEPKcS1_
.LBE3817:
.LBE3816:
	.loc 3 997 0
	cmpwi 7,3,0
	.loc 3 1005 0
	li 31,1
.LVL793:
	.loc 3 997 0
	beq+ 7,.L775
	.loc 3 1000 0
	lis 4,.LC143@ha
	lwz 5,12(1)
	mr 3,28
	la 4,.LC143@l(4)
	crxor 6,6,6
	bl _ZN7idLexer5ErrorEPKcz
	b .L808
.LVL794:
.L757:
.LBB3818:
.LBB3742:
	.loc 9 634 0
	lwz 11,168(30)
.LBB3736:
.LBB3732:
	.loc 9 375 0
	cmpwi 7,11,0
.LBE3732:
.LBE3736:
	.loc 9 634 0
	mr 3,11
.LVL795:
.LBB3737:
.LBB3733:
	.loc 9 375 0
	ble- 7,.L820
	.loc 9 380 0
	lwz 0,164(30)
	cmpw 7,11,0
	beq- 7,.L821
.LVL796:
	.loc 9 387 0
	lwz 0,160(30)
	.loc 9 386 0
	stw 11,164(30)
	.loc 9 387 0
	cmpw 7,11,0
	blt- 7,.L822
.L762:
	.loc 9 392 0
	slwi 3,3,2
	addi 29,1,8
	bl _Znaj
.LEHE92:
.LVL797:
	.loc 9 393 0
	lwz 9,160(30)
	.loc 9 392 0
	mr 27,3
	stw 3,172(30)
.LVL798:
	.loc 9 393 0
	li 11,0
	cmpwi 7,9,0
	li 10,0
	bgt+ 7,.L803
	lwz 11,164(30)
	b .L758
.LVL799:
.L823:
	lwz 27,172(30)
.LVL800:
.L803:
	.loc 9 394 0
	lwz 0,0(11)
	.loc 9 393 0
	addi 10,10,1
.LVL801:
	.loc 9 394 0
	stwx 0,27,11
	.loc 9 393 0
	addi 11,11,4
	lwz 9,0(26)
	cmpw 7,10,9
	blt+ 7,.L823
	lwz 11,164(30)
	lwz 27,172(30)
	b .L758
.LVL802:
.L822:
	.loc 9 388 0
	stw 11,160(30)
	b .L762
.LVL803:
.L817:
.LBE3733:
.LBE3737:
.LBB3738:
.LBB3724:
	.loc 9 380 0
	slwi 0,11,2
	addi 9,11,1
	add 27,27,0
	b .L765
.L816:
.LBB3720:
.LBB3721:
	.loc 9 193 0
	cmpwi 7,27,0
	beq- 7,.L767
	.loc 9 194 0
	mr 3,27
.LVL804:
	bl _ZdaPv
.L767:
	.loc 9 197 0
	li 0,0
	.loc 9 199 0
	li 9,1
	.loc 9 197 0
	stw 0,172(30)
	.loc 9 199 0
	li 27,0
	stw 0,164(30)
	b .L765
.LVL805:
.L819:
.LBE3721:
.LBE3720:
	.loc 9 398 0
	lwz 9,160(30)
	lwz 27,172(30)
.LVL806:
	slwi 0,9,2
	addi 9,9,1
	add 27,27,0
	b .L765
.LVL807:
.L821:
.LBE3724:
.LBE3738:
.LBB3739:
.LBB3734:
	.loc 9 380 0
	lwz 9,160(30)
	b .L758
.L820:
.LVL808:
.LBB3731:
.LBB3730:
	.loc 9 198 0
	stw 27,160(30)
	.loc 9 199 0
	li 11,0
	stw 27,164(30)
	b .L760
.LVL809:
.L796:
	mr 30,3
.LVL810:
.LBE3730:
.LBE3731:
.LBE3734:
.LBE3739:
.LBE3742:
.LBE3818:
.LBB3819:
.LBB3713:
	.loc 8 112 0
	mr 3,27
	bl _ZN10idAFVectorD1Ev
.L750:
	addi 27,27,-84
	mr 3,27
	bl _ZN10idAFVectorD1Ev
	cmpw 7,29,27
	bne+ 7,.L750
.LVL811:
.L747:
	mr 3,25
	bl _ZN10idAFVectorD1Ev
.L751:
	mr 3,26
	bl _ZN10idAFVectorD1Ev
	b .L752
.LVL812:
.L793:
	mr 30,3
.LVL813:
.L752:
.LBB3703:
.LBB3704:
.LBB3705:
	.loc 4 501 0
	addi 3,31,64
	addi 29,1,8
	bl _ZN5idStr8FreeDataEv
.LVL814:
.LBE3705:
.LBE3704:
.LBE3703:
.LBB3706:
.LBB3707:
.LBB3708:
	addi 3,31,32
	bl _ZN5idStr8FreeDataEv
.LVL815:
.LBE3708:
.LBE3707:
.LBE3706:
.LBB3709:
.LBB3710:
.LBB3711:
	mr 3,31
	bl _ZN5idStr8FreeDataEv
.LBE3711:
.LBE3710:
.LBE3709:
.LBE3713:
.LBE3819:
	.loc 3 976 0
	mr 3,31
	bl _ZdlPv
	mr 31,30
.LVL816:
.L756:
.LBB3820:
.LBB3821:
.LBB3822:
.LBB3823:
.LBB3824:
	.loc 4 501 0
	mr 3,29
	bl _ZN5idStr8FreeDataEv
	mr 3,31
.LEHB93:
	bl _Unwind_Resume
.LEHE93:
.LVL817:
.L792:
	mr 31,3
	b .L756
.LVL818:
.L795:
	mr 30,3
.LVL819:
	b .L750
.LVL820:
.L798:
	mr 28,3
.LVL821:
.LBE3824:
.LBE3823:
.LBE3822:
.LBE3821:
.LBE3820:
.LBB3825:
.LBB3714:
	.loc 8 112 0
	li 0,1
.L742:
	mulli 0,0,84
	add 30,31,0
.LVL822:
	addi 30,30,296
	cmpw 7,29,30
	beq- 7,.L745
.L800:
	addi 30,30,-84
	mr 3,30
	bl _ZN10idAFVectorD1Ev
	cmpw 7,29,30
	bne+ 7,.L800
.L745:
	mr 30,28
	b .L747
.LVL823:
.L797:
	mr 28,3
.LVL824:
	li 0,0
	b .L742
.LVL825:
.L794:
	mr 30,3
.LVL826:
	b .L751
.LBE3714:
.LBE3825:
.LBE3829:
	.cfi_endproc
.LFE2571:
	.section	.gcc_except_table
.LLSDA2571:
	.byte	0xff
	.byte	0xff
	.byte	0x1
	.uleb128 .LLSDACSE2571-.LLSDACSB2571
.LLSDACSB2571:
	.uleb128 .LEHB81-.LFB2571
	.uleb128 .LEHE81-.LEHB81
	.uleb128 .L792-.LFB2571
	.uleb128 0
	.uleb128 .LEHB82-.LFB2571
	.uleb128 .LEHE82-.LEHB82
	.uleb128 .L793-.LFB2571
	.uleb128 0
	.uleb128 .LEHB83-.LFB2571
	.uleb128 .LEHE83-.LEHB83
	.uleb128 .L794-.LFB2571
	.uleb128 0
	.uleb128 .LEHB84-.LFB2571
	.uleb128 .LEHE84-.LEHB84
	.uleb128 .L797-.LFB2571
	.uleb128 0
	.uleb128 .LEHB85-.LFB2571
	.uleb128 .LEHE85-.LEHB85
	.uleb128 .L798-.LFB2571
	.uleb128 0
	.uleb128 .LEHB86-.LFB2571
	.uleb128 .LEHE86-.LEHB86
	.uleb128 .L795-.LFB2571
	.uleb128 0
	.uleb128 .LEHB87-.LFB2571
	.uleb128 .LEHE87-.LEHB87
	.uleb128 .L796-.LFB2571
	.uleb128 0
	.uleb128 .LEHB88-.LFB2571
	.uleb128 .LEHE88-.LEHB88
	.uleb128 .L792-.LFB2571
	.uleb128 0
	.uleb128 .LEHB89-.LFB2571
	.uleb128 .LEHE89-.LEHB89
	.uleb128 0
	.uleb128 0
	.uleb128 .LEHB90-.LFB2571
	.uleb128 .LEHE90-.LEHB90
	.uleb128 .L792-.LFB2571
	.uleb128 0
	.uleb128 .LEHB91-.LFB2571
	.uleb128 .LEHE91-.LEHB91
	.uleb128 0
	.uleb128 0
	.uleb128 .LEHB92-.LFB2571
	.uleb128 .LEHE92-.LEHB92
	.uleb128 .L792-.LFB2571
	.uleb128 0
	.uleb128 .LEHB93-.LFB2571
	.uleb128 .LEHE93-.LEHB93
	.uleb128 0
	.uleb128 0
.LLSDACSE2571:
	.section	".text"
	.size	_ZN8idDeclAF10ParseFixedER7idLexer, .-_ZN8idDeclAF10ParseFixedER7idLexer
	.align 2
	.globl _ZN8idDeclAF23ParseBallAndSocketJointER7idLexer
	.type	_ZN8idDeclAF23ParseBallAndSocketJointER7idLexer, @function
_ZN8idDeclAF23ParseBallAndSocketJointER7idLexer:
.LFB2575:
	.loc 3 1013 0
	.cfi_startproc
	.cfi_personality 0,__gxx_personality_v0
	.cfi_lsda 0,.LLSDA2575
.LVL827:
	mflr 0
	stwu 1,-144(1)
.LCFI110:
	.cfi_def_cfa_offset 144
	.cfi_register 65, 0
.LVL828:
.LBB3911:
.LBB3912:
.LBB3913:
.LBB3914:
.LBB3915:
	.loc 4 357 0
	li 9,20
.LBE3915:
.LBE3914:
.LBE3913:
.LBE3912:
.LBE3911:
	.loc 3 1013 0
	stw 30,136(1)
	mr 30,3
	.cfi_offset 30, -8
	stw 0,148(1)
.LBB4100:
	.loc 3 1015 0
	li 3,648
.LVL829:
.LBB3922:
.LBB3920:
.LBB3918:
.LBB3916:
	.loc 4 356 0
	li 0,0
	.cfi_offset 65, 4
	.loc 4 357 0
	stw 9,16(1)
	.loc 4 358 0
	addi 9,1,20
.LBE3916:
.LBE3918:
.LBE3920:
.LBE3922:
.LBE4100:
	.loc 3 1013 0
	stw 28,128(1)
	stw 29,132(1)
	addi 28,1,8
	.cfi_offset 29, -12
	.cfi_offset 28, -16
	stw 18,88(1)
	mr 29,4
	stw 19,92(1)
	stw 20,96(1)
	stw 21,100(1)
	stw 22,104(1)
	stw 23,108(1)
	stw 24,112(1)
	stw 25,116(1)
	stw 26,120(1)
	stw 27,124(1)
	stw 31,140(1)
.LBB4101:
.LBB3923:
.LBB3921:
.LBB3919:
.LBB3917:
	.loc 4 356 0
	stw 0,8(1)
	.loc 4 358 0
	stw 9,12(1)
	.loc 4 359 0
	stb 0,20(1)
.LEHB94:
.LBE3917:
.LBE3919:
.LBE3921:
.LBE3923:
	.loc 3 1015 0
	.cfi_offset 31, -4
	.cfi_offset 27, -20
	.cfi_offset 26, -24
	.cfi_offset 25, -28
	.cfi_offset 24, -32
	.cfi_offset 23, -36
	.cfi_offset 22, -40
	.cfi_offset 21, -44
	.cfi_offset 20, -48
	.cfi_offset 19, -52
	.cfi_offset 18, -56
	bl _Znwj
.LEHE94:
.LVL830:
.LBB3924:
.LBB3925:
.LBB3926:
.LBB3927:
.LBB3928:
	.loc 4 356 0
	li 0,0
	.loc 4 357 0
	li 9,20
	.loc 4 358 0
	addi 8,3,12
.LBE3928:
.LBE3927:
.LBE3926:
.LBB3933:
.LBB3934:
.LBB3935:
	addi 10,3,44
.LBE3935:
.LBE3934:
.LBE3933:
.LBB3938:
.LBB3939:
.LBB3940:
	addi 11,3,76
.LBE3940:
.LBE3939:
.LBE3938:
	.loc 8 112 0
	addi 24,3,128
.LBB3943:
.LBB3931:
.LBB3929:
	.loc 4 356 0
	stw 0,0(3)
.LBE3929:
.LBE3931:
.LBE3943:
.LBE3925:
.LBE3924:
	.loc 3 1015 0
	mr 31,3
.LVL831:
.LBB3959:
.LBB3956:
.LBB3944:
.LBB3932:
.LBB3930:
	.loc 4 357 0
	stw 9,8(3)
	.loc 4 358 0
	stw 8,4(3)
	.loc 4 359 0
	stb 0,12(3)
.LVL832:
.LBE3930:
.LBE3932:
.LBE3944:
.LBB3945:
.LBB3937:
.LBB3936:
	.loc 4 356 0
	stw 0,32(3)
	.loc 4 357 0
	stw 9,40(3)
	.loc 4 358 0
	stw 10,36(3)
	.loc 4 359 0
	stb 0,44(3)
.LVL833:
.LBE3936:
.LBE3937:
.LBE3945:
.LBB3946:
.LBB3942:
.LBB3941:
	.loc 4 356 0
	stw 0,64(3)
	.loc 4 357 0
	stw 9,72(3)
	.loc 4 358 0
	stw 11,68(3)
	.loc 4 359 0
	stb 0,76(3)
.LBE3941:
.LBE3942:
.LBE3946:
	.loc 8 112 0
	mr 3,24
.LVL834:
.LEHB95:
	bl _ZN10idAFVectorC1Ev
.LEHE95:
	addi 27,31,212
	mr 3,27
.LEHB96:
	bl _ZN10idAFVectorC1Ev
.LEHE96:
	addi 21,31,296
	mr 3,21
.LEHB97:
	bl _ZN10idAFVectorC1Ev
.LEHE97:
	addi 3,31,380
.LEHB98:
	bl _ZN10idAFVectorC1Ev
.LEHE98:
	addi 28,31,464
	mr 3,28
.LEHB99:
	bl _ZN10idAFVectorC1Ev
.LEHE99:
	addi 23,31,552
	mr 3,23
.LEHB100:
	bl _ZN10idAFVectorC1Ev
.LEHE100:
.LVL835:
.LBE3956:
.LBE3959:
	.loc 3 1017 0 discriminator 2
	mr 3,31
	mr 4,30
	addi 28,1,8
.LEHB101:
	bl _ZN19idDeclAF_Constraint10SetDefaultEPK8idDeclAF
.LBB3960:
.LBB3961:
	.loc 9 633 0
	lwz 27,172(30)
.LBE3961:
.LBE3960:
	.loc 3 1018 0
	addi 26,30,160
.LVL836:
.LBB3989:
.LBB3986:
	.loc 9 633 0
	cmpwi 7,27,0
	beq- 7,.L842
	lwz 9,160(30)
	lwz 0,164(30)
.L843:
	.loc 9 637 0
	cmpw 7,9,0
	beq- 7,.L914
.L913:
.LBB3962:
.LBB3963:
	.loc 9 399 0
	slwi 0,9,2
	addi 9,9,1
	add 27,27,0
.L850:
.LBE3963:
.LBE3962:
	.loc 9 641 0
	stw 9,160(30)
.LBE3986:
.LBE3989:
	.loc 3 1020 0
	addi 28,1,8
	.loc 3 1018 0
	stw 31,0(27)
	.loc 3 1020 0
	mr 3,29
	li 4,1
	li 5,0
	mr 6,28
	bl _ZN7idLexer15ExpectTokenTypeEiiP7idToken
.LEHE101:
	cmpwi 7,3,0
	bne- 7,.L915
.LVL837:
.L910:
	.loc 3 1080 0
	li 31,0
.L860:
.LVL838:
.LBB3990:
.LBB3991:
.LBB3992:
.LBB3993:
.LBB3994:
	.loc 4 501 0
	mr 3,28
.LEHB102:
	bl _ZN5idStr8FreeDataEv
.LEHE102:
.LBE3994:
.LBE3993:
.LBE3992:
.LBE3991:
.LBE3990:
.LBE4101:
	.loc 3 1085 0
	lwz 0,148(1)
	mr 3,31
	lwz 18,88(1)
	mtlr 0
	lwz 19,92(1)
	lwz 20,96(1)
	lwz 21,100(1)
	lwz 22,104(1)
	lwz 23,108(1)
	lwz 24,112(1)
.LVL839:
	lwz 25,116(1)
	lwz 26,120(1)
	lwz 27,124(1)
	lwz 28,128(1)
	lwz 29,132(1)
.LVL840:
	lwz 30,136(1)
	lwz 31,140(1)
	addi 1,1,144
	.cfi_remember_state
.LCFI111:
	.cfi_def_cfa_offset 0
	.cfi_restore 31
	.cfi_restore 30
	.cfi_restore 29
	.cfi_restore 28
	.cfi_restore 27
	.cfi_restore 26
	.cfi_restore 25
	.cfi_restore 24
	.cfi_restore 23
	.cfi_restore 22
	.cfi_restore 21
	.cfi_restore 20
	.cfi_restore 19
	.cfi_restore 18
	blr
.LVL841:
.L915:
.LCFI112:
	.cfi_restore_state
.LBB4102:
	.loc 3 1021 0
	lis 4,.LC114@ha
	mr 3,29
	la 4,.LC114@l(4)
.LEHB103:
	bl _ZN7idLexer17ExpectTokenStringEPKc
	.loc 3 1020 0
	cmpwi 7,3,0
	beq- 7,.L910
.LBB3995:
	.loc 3 1753 0
	lwz 30,8(1)
.LVL842:
.LBB3996:
.LBB3997:
.LBB3998:
	.loc 4 350 0
	lwz 0,8(31)
.LBE3998:
.LBE3997:
	.loc 4 534 0
	addi 4,30,1
.LBB4002:
.LBB3999:
	.loc 4 350 0
	cmpw 7,4,0
.LBE3999:
.LBE4002:
.LBE3996:
.LBE3995:
	.loc 3 1025 0
	li 0,2
	stw 0,96(31)
	.loc 3 1026 0
	li 0,-1
	stw 0,548(31)
.LVL843:
.LBB4010:
.LBB4005:
.LBB4003:
.LBB4000:
	.loc 4 350 0
	bgt- 7,.L916
.LVL844:
.L885:
.LBE4000:
.LBE4003:
	.loc 4 535 0
	lwz 3,4(31)
	mr 5,30
	lwz 4,12(1)
.LBE4005:
.LBE4010:
.LBB4011:
.LBB4012:
	.loc 4 690 0
	lis 27,.LC141@ha
.LBE4012:
.LBE4011:
.LBB4015:
.LBB4016:
	lis 26,.LC142@ha
.LVL845:
.LBE4016:
.LBE4015:
.LBB4019:
.LBB4020:
	lis 25,.LC144@ha
.LBE4020:
.LBE4019:
.LBB4023:
.LBB4006:
	.loc 4 535 0
	bl memcpy
	.loc 4 536 0
	lwz 9,4(31)
	li 11,0
.LBE4006:
.LBE4023:
.LBB4024:
.LBB4025:
	.loc 5 416 0
	li 0,0
.LBE4025:
.LBE4024:
.LBB4029:
.LBB4007:
	.loc 4 536 0
	stbx 11,9,30
.LBE4007:
.LBE4029:
	.loc 3 1028 0
	lis 9,.LC12@ha
	lwz 9,.LC12@l(9)
.LBB4030:
.LBB4031:
	.loc 4 690 0
	lis 22,.LC145@ha
.LBE4031:
.LBE4030:
.LBB4034:
.LBB4035:
	lis 20,.LC146@ha
.LBE4035:
.LBE4034:
.LBB4038:
.LBB4039:
	lis 19,.LC130@ha
.LBE4039:
.LBE4038:
.LBB4042:
.LBB4008:
	.loc 4 537 0
	stw 30,0(31)
.LBE4008:
.LBE4042:
.LBB4043:
.LBB4013:
	.loc 4 690 0
	la 27,.LC141@l(27)
.LBE4013:
.LBE4043:
	.loc 3 1028 0
	stw 9,100(31)
.LVL846:
.LBB4044:
.LBB4017:
	.loc 4 690 0
	la 26,.LC142@l(26)
.LBE4017:
.LBE4044:
.LBB4045:
.LBB4026:
	.loc 5 416 0
	stw 0,204(31)
.LBE4026:
.LBE4045:
.LBB4046:
.LBB4021:
	.loc 4 690 0
	la 25,.LC144@l(25)
.LBE4021:
.LBE4046:
.LBB4047:
.LBB4027:
	.loc 5 416 0
	stw 0,200(31)
.LBE4027:
.LBE4047:
.LBB4048:
.LBB4032:
	.loc 4 690 0
	la 22,.LC145@l(22)
.LBE4032:
.LBE4048:
.LBB4049:
.LBB4028:
	.loc 5 416 0
	stw 0,196(31)
.LVL847:
.LBE4028:
.LBE4049:
.LBB4050:
.LBB4036:
	.loc 4 690 0
	la 20,.LC146@l(20)
.LBE4036:
.LBE4050:
.LBB4051:
.LBB4052:
	.loc 5 416 0
	stw 0,372(31)
.LBE4052:
.LBE4051:
.LBB4055:
.LBB4040:
	.loc 4 690 0
	la 19,.LC130@l(19)
.LBE4040:
.LBE4055:
.LBB4056:
.LBB4053:
	.loc 5 416 0
	stw 0,368(31)
.LBE4053:
.LBE4056:
	.loc 3 1057 0
	lis 18,.LC4@ha
.LBB4057:
.LBB4054:
	.loc 5 416 0
	stw 0,364(31)
.LVL848:
.L909:
.LBE4054:
.LBE4057:
	.loc 3 1032 0 discriminator 1
	mr 3,29
	mr 4,28
	bl _ZN7idLexer9ReadTokenEP7idToken
	cmpwi 7,3,0
	beq- 7,.L917
.L879:
.LVL849:
.LBB4058:
.LBB4014:
	.loc 4 690 0
	lwz 3,12(1)
	mr 4,27
	bl _ZN5idStr4IcmpEPKcS1_
.LBE4014:
.LBE4058:
	.loc 3 1034 0
	cmpwi 7,3,0
	bne- 7,.L862
	.loc 3 1035 0
	mr 3,29
	li 4,1
	li 5,0
	mr 6,28
	bl _ZN7idLexer15ExpectTokenTypeEiiP7idToken
.LVL850:
.LBB4059:
	.loc 3 1753 0
	lwz 30,8(1)
.LBB4060:
.LBB4061:
.LBB4062:
	.loc 4 350 0
	lwz 0,40(31)
.LBE4062:
.LBE4061:
	.loc 4 534 0
	addi 4,30,1
.LVL851:
.LBB4065:
.LBB4063:
	.loc 4 350 0
	cmpw 7,4,0
	bgt- 7,.L918
.LVL852:
.L863:
.LBE4063:
.LBE4065:
	.loc 4 535 0
	lwz 4,12(1)
	mr 5,30
	lwz 3,36(31)
	bl memcpy
	.loc 4 536 0
	lwz 9,36(31)
	li 0,0
.LBE4060:
.LBE4059:
	.loc 3 1032 0
	mr 3,29
.LBB4070:
.LBB4067:
	.loc 4 536 0
	stbx 0,9,30
.LBE4067:
.LBE4070:
	.loc 3 1032 0
	mr 4,28
.LBB4071:
.LBB4068:
	.loc 4 537 0
	stw 30,32(31)
.LBE4068:
.LBE4071:
	.loc 3 1032 0
	bl _ZN7idLexer9ReadTokenEP7idToken
	cmpwi 7,3,0
	bne+ 7,.L879
.LVL853:
.L917:
	.loc 3 1084 0
	li 31,1
.LVL854:
	b .L860
.LVL855:
.L862:
.LBB4072:
.LBB4018:
	.loc 4 690 0
	lwz 3,12(1)
	mr 4,26
	bl _ZN5idStr4IcmpEPKcS1_
.LBE4018:
.LBE4072:
	.loc 3 1037 0
	cmpwi 7,3,0
	bne- 7,.L865
	.loc 3 1038 0
	mr 3,29
	li 4,1
	li 5,0
	mr 6,28
	bl _ZN7idLexer15ExpectTokenTypeEiiP7idToken
.LVL856:
.LBB4073:
	.loc 3 1753 0
	lwz 30,8(1)
.LBB4074:
.LBB4075:
.LBB4076:
	.loc 4 350 0
	lwz 0,72(31)
.LBE4076:
.LBE4075:
	.loc 4 534 0
	addi 4,30,1
.LVL857:
.LBB4079:
.LBB4077:
	.loc 4 350 0
	cmpw 7,4,0
	bgt- 7,.L919
.LVL858:
.L866:
.LBE4077:
.LBE4079:
	.loc 4 535 0
	lwz 3,68(31)
	mr 5,30
	lwz 4,12(1)
	bl memcpy
	.loc 4 536 0
	lwz 9,68(31)
	li 0,0
	stbx 0,9,30
	.loc 4 537 0
	stw 30,64(31)
	b .L909
.LVL859:
.L865:
.LBE4074:
.LBE4073:
.LBB4082:
.LBB4022:
	.loc 4 690 0
	lwz 3,12(1)
	mr 4,25
	bl _ZN5idStr4IcmpEPKcS1_
.LBE4022:
.LBE4082:
	.loc 3 1040 0
	cmpwi 7,3,0
	bne- 7,.L867
	.loc 3 1041 0
	mr 3,24
	mr 4,29
	bl _ZN10idAFVector5ParseER7idLexer
	cmpwi 7,3,0
	bne+ 7,.L909
	b .L910
.LVL860:
.L918:
.LBB4083:
.LBB4069:
.LBB4066:
.LBB4064:
	.loc 4 351 0
	addi 3,31,32
	li 5,0
	bl _ZN5idStr10ReAllocateEib
.LVL861:
	b .L863
.LVL862:
.L867:
.LBE4064:
.LBE4066:
.LBE4069:
.LBE4083:
.LBB4084:
.LBB4033:
	.loc 4 690 0
	lwz 3,12(1)
	mr 4,22
	bl _ZN5idStr4IcmpEPKcS1_
.LBE4033:
.LBE4084:
	.loc 3 1044 0
	cmpwi 7,3,0
	bne- 7,.L868
	.loc 3 1045 0
	mr 3,23
	mr 4,29
	bl _ZN10idAFVector5ParseER7idLexer
	cmpwi 7,3,0
	beq+ 7,.L910
	.loc 3 1046 0
	la 30,.LC4@l(18)
	mr 3,29
	mr 4,30
	bl _ZN7idLexer17ExpectTokenStringEPKc
	.loc 3 1045 0
	cmpwi 7,3,0
	beq- 7,.L910
	.loc 3 1049 0
	mr 3,29
	li 4,0
	bl _ZN7idLexer10ParseFloatEPb
	stfs 1,636(31)
	.loc 3 1050 0
	mr 3,29
	mr 4,30
	bl _ZN7idLexer17ExpectTokenStringEPKc
	.loc 3 1050 0 is_stmt 0 discriminator 1
	cmpwi 7,3,0
	beq+ 7,.L910
	.loc 3 1051 0 is_stmt 1
	mr 3,21
	mr 4,29
	bl _ZN10idAFVector5ParseER7idLexer
	.loc 3 1050 0
	cmpwi 7,3,0
	beq- 7,.L910
	.loc 3 1054 0
	li 0,0
	stw 0,548(31)
	b .L909
.LVL863:
.L919:
.LBB4085:
.LBB4081:
.LBB4080:
.LBB4078:
	.loc 4 351 0
	addi 3,31,64
	li 5,0
	bl _ZN5idStr10ReAllocateEib
.LVL864:
	b .L866
.LVL865:
.L868:
.LBE4078:
.LBE4080:
.LBE4081:
.LBE4085:
.LBB4086:
.LBB4037:
	.loc 4 690 0
	lwz 3,12(1)
	mr 4,20
	bl _ZN5idStr4IcmpEPKcS1_
.LBE4037:
.LBE4086:
	.loc 3 1055 0
	cmpwi 7,3,0
	bne- 7,.L873
	.loc 3 1056 0
	mr 3,23
	mr 4,29
	bl _ZN10idAFVector5ParseER7idLexer
	cmpwi 7,3,0
	beq+ 7,.L910
	.loc 3 1057 0
	la 30,.LC4@l(18)
	mr 3,29
	mr 4,30
	bl _ZN7idLexer17ExpectTokenStringEPKc
	.loc 3 1056 0
	cmpwi 7,3,0
	beq- 7,.L910
	.loc 3 1060 0
	mr 3,29
	li 4,0
	bl _ZN7idLexer10ParseFloatEPb
	stfs 1,636(31)
	.loc 3 1061 0
	mr 3,29
	mr 4,30
	bl _ZN7idLexer17ExpectTokenStringEPKc
	.loc 3 1061 0 is_stmt 0 discriminator 1
	cmpwi 7,3,0
	beq- 7,.L910
	.loc 3 1064 0 is_stmt 1
	mr 3,29
	li 4,0
	bl _ZN7idLexer10ParseFloatEPb
	stfs 1,640(31)
	.loc 3 1065 0
	mr 3,29
	mr 4,30
	bl _ZN7idLexer17ExpectTokenStringEPKc
	.loc 3 1065 0 is_stmt 0 discriminator 1
	cmpwi 7,3,0
	beq- 7,.L910
	.loc 3 1068 0 is_stmt 1
	mr 3,29
	li 4,0
	bl _ZN7idLexer10ParseFloatEPb
	stfs 1,644(31)
	.loc 3 1069 0
	mr 3,29
	mr 4,30
	bl _ZN7idLexer17ExpectTokenStringEPKc
	.loc 3 1069 0 is_stmt 0 discriminator 1
	cmpwi 7,3,0
	beq+ 7,.L910
	.loc 3 1070 0 is_stmt 1
	mr 3,21
	mr 4,29
	bl _ZN10idAFVector5ParseER7idLexer
	.loc 3 1069 0
	cmpwi 7,3,0
	beq- 7,.L910
	.loc 3 1073 0
	li 0,1
	stw 0,548(31)
	b .L909
.L873:
.LVL866:
.LBB4087:
.LBB4041:
	.loc 4 690 0
	lwz 3,12(1)
	mr 4,19
	bl _ZN5idStr4IcmpEPKcS1_
.LBE4041:
.LBE4087:
	.loc 3 1074 0
	cmpwi 7,3,0
	bne- 7,.L878
	.loc 3 1075 0
	mr 3,29
	li 4,0
	bl _ZN7idLexer10ParseFloatEPb
	stfs 1,100(31)
	b .L909
.LVL867:
.L916:
.LBB4088:
.LBB4009:
.LBB4004:
.LBB4001:
	.loc 4 351 0
	mr 3,31
	li 5,0
	bl _ZN5idStr10ReAllocateEib
.LVL868:
	b .L885
.LVL869:
.L914:
	lwz 3,168(30)
.L845:
.LVL870:
.LBE4001:
.LBE4004:
.LBE4009:
.LBE4088:
.LBB4089:
.LBB3987:
.LBB3969:
.LBB3966:
	.loc 9 375 0
	add. 3,9,3
.LVL871:
	ble- 0,.L920
	.loc 9 380 0
	cmpw 7,9,3
	beq- 7,.L913
.LVL872:
	.loc 9 387 0
	cmpw 7,3,9
	.loc 9 386 0
	stw 3,164(30)
	.loc 9 387 0
	bge- 7,.L854
	.loc 9 388 0
	stw 3,160(30)
.L854:
	.loc 9 392 0
	slwi 3,3,2
.LVL873:
	addi 28,1,8
	bl _Znaj
.LVL874:
	.loc 9 393 0
	lwz 0,160(30)
	.loc 9 392 0
	stw 3,172(30)
.LVL875:
	.loc 9 393 0
	cmpwi 7,0,0
	ble- 7,.L855
	.loc 3 1013 0
	addi 11,27,-4
.LBE3966:
.LBE3969:
.LBB3970:
.LBB3971:
.LBB3972:
.LBB3973:
	.loc 9 393 0
	li 9,0
	b .L856
.LVL876:
.L921:
.LBE3973:
.LBE3972:
.LBE3971:
.LBE3970:
.LBB3980:
.LBB3967:
	lwz 3,172(30)
.LVL877:
.L856:
	.loc 9 394 0
	lwzu 10,4(11)
	slwi 0,9,2
	.loc 9 393 0
	addi 9,9,1
.LVL878:
	.loc 9 394 0
	stwx 10,3,0
	.loc 9 393 0
	lwz 0,0(26)
	cmpw 7,9,0
	blt+ 7,.L921
.LVL879:
.L855:
	.loc 9 398 0
	cmpwi 7,27,0
	beq- 7,.L922
	.loc 9 399 0
	mr 3,27
	bl _ZdaPv
	lwz 9,160(30)
	lwz 27,172(30)
.LVL880:
	b .L913
.LVL881:
.L842:
.LBE3967:
.LBE3980:
	.loc 9 634 0
	lwz 3,168(30)
.LBB3981:
.LBB3976:
	.loc 9 375 0
	cmpwi 7,3,0
.LBE3976:
.LBE3981:
	.loc 9 634 0
	mr 0,3
.LVL882:
.LBB3982:
.LBB3977:
	.loc 9 375 0
	ble- 7,.L923
	.loc 9 380 0
	lwz 9,164(30)
	cmpw 7,3,9
	beq- 7,.L924
.LVL883:
	.loc 9 387 0
	lwz 0,160(30)
	.loc 9 386 0
	stw 3,164(30)
	.loc 9 387 0
	cmpw 7,3,0
	blt- 7,.L925
.L847:
	.loc 9 392 0
	slwi 3,3,2
	addi 28,1,8
	bl _Znaj
.LVL884:
	.loc 9 393 0
	lwz 9,160(30)
	.loc 9 392 0
	mr 27,3
	stw 3,172(30)
.LVL885:
	.loc 9 393 0
	li 11,0
	cmpwi 7,9,0
	li 10,0
	bgt+ 7,.L905
	lwz 0,164(30)
	b .L843
.LVL886:
.L926:
	lwz 27,172(30)
.LVL887:
.L905:
	.loc 9 394 0
	lwz 0,0(11)
	.loc 9 393 0
	addi 10,10,1
.LVL888:
	.loc 9 394 0
	stwx 0,27,11
	.loc 9 393 0
	addi 11,11,4
	lwz 9,0(26)
	cmpw 7,10,9
	blt+ 7,.L926
	lwz 0,164(30)
	lwz 27,172(30)
	b .L843
.LVL889:
.L925:
	.loc 9 388 0
	stw 3,160(30)
	b .L847
.LVL890:
.L920:
.LBE3977:
.LBE3982:
.LBB3983:
.LBB3968:
.LBB3964:
.LBB3965:
	.loc 9 193 0
	cmpwi 7,27,0
	beq- 7,.L852
	.loc 9 194 0
	mr 3,27
.LVL891:
	bl _ZdaPv
.L852:
	.loc 9 197 0
	li 0,0
	.loc 9 199 0
	li 9,1
	.loc 9 197 0
	stw 0,172(30)
	.loc 9 199 0
	li 27,0
	stw 0,164(30)
	b .L850
.LVL892:
.L922:
.LBE3965:
.LBE3964:
	.loc 9 398 0
	lwz 9,160(30)
	lwz 27,172(30)
.LVL893:
	slwi 0,9,2
	addi 9,9,1
	add 27,27,0
	b .L850
.LVL894:
.L924:
.LBE3968:
.LBE3983:
.LBB3984:
.LBB3978:
	.loc 9 380 0
	lwz 9,160(30)
	b .L843
.LVL895:
.L878:
.LBE3978:
.LBE3984:
.LBE3987:
.LBE4089:
.LBB4090:
.LBB4091:
	.loc 4 653 0
	lis 4,.LC137@ha
	lwz 3,12(1)
	la 4,.LC137@l(4)
	bl _ZN5idStr3CmpEPKcS1_
.LBE4091:
.LBE4090:
	.loc 3 1076 0
	cmpwi 7,3,0
	.loc 3 1084 0
	li 31,1
	.loc 3 1076 0
	beq+ 7,.L860
	.loc 3 1079 0
	lis 4,.LC143@ha
	lwz 5,12(1)
	mr 3,29
	la 4,.LC143@l(4)
	crxor 6,6,6
	bl _ZN7idLexer5ErrorEPKcz
.LEHE103:
	b .L910
.LVL896:
.L923:
.LBB4092:
.LBB3988:
.LBB3985:
.LBB3979:
.LBB3975:
.LBB3974:
	.loc 9 198 0
	stw 27,160(30)
	.loc 9 199 0
	li 9,0
	stw 27,164(30)
	b .L845
.LVL897:
.L900:
	mr 29,3
.LVL898:
.LBE3974:
.LBE3975:
.LBE3979:
.LBE3985:
.LBE3988:
.LBE4092:
.LBB4093:
.LBB3957:
	.loc 8 112 0
	li 0,1
.L827:
	mulli 0,0,84
	add 30,31,0
.LVL899:
	addi 30,30,296
	cmpw 7,21,30
	beq- 7,.L830
.L902:
	addi 30,30,-84
	mr 3,30
	bl _ZN10idAFVectorD1Ev
	cmpw 7,21,30
	bne+ 7,.L902
.L830:
	mr 30,29
.L832:
	mr 3,27
	bl _ZN10idAFVectorD1Ev
	b .L836
.LVL900:
.L899:
	mr 29,3
.LVL901:
	li 0,0
	b .L827
.LVL902:
.L896:
	mr 30,3
.LVL903:
.L836:
	mr 3,24
	bl _ZN10idAFVectorD1Ev
.L837:
.LVL904:
.LBB3947:
.LBB3948:
.LBB3949:
	.loc 4 501 0
	addi 3,31,64
	addi 28,1,8
	bl _ZN5idStr8FreeDataEv
.LVL905:
.LBE3949:
.LBE3948:
.LBE3947:
.LBB3950:
.LBB3951:
.LBB3952:
	addi 3,31,32
	bl _ZN5idStr8FreeDataEv
.LVL906:
.LBE3952:
.LBE3951:
.LBE3950:
.LBB3953:
.LBB3954:
.LBB3955:
	mr 3,31
	bl _ZN5idStr8FreeDataEv
.LBE3955:
.LBE3954:
.LBE3953:
.LBE3957:
.LBE4093:
	.loc 3 1015 0
	mr 3,31
	bl _ZdlPv
	mr 31,30
.LVL907:
.L841:
.LBB4094:
.LBB4095:
.LBB4096:
.LBB4097:
.LBB4098:
	.loc 4 501 0
	mr 3,28
	bl _ZN5idStr8FreeDataEv
	mr 3,31
.LEHB104:
	bl _Unwind_Resume
.LEHE104:
.LVL908:
.L895:
	mr 30,3
.LVL909:
	b .L837
.LVL910:
.L898:
	mr 30,3
.LVL911:
.LBE4098:
.LBE4097:
.LBE4096:
.LBE4095:
.LBE4094:
.LBB4099:
.LBB3958:
	.loc 8 112 0
	mr 3,28
	bl _ZN10idAFVectorD1Ev
.L835:
	addi 28,28,-84
	mr 3,28
	bl _ZN10idAFVectorD1Ev
	cmpw 7,21,28
	bne+ 7,.L835
	b .L832
.LVL912:
.L897:
	mr 30,3
.LVL913:
	b .L835
.LVL914:
.L894:
	mr 31,3
	b .L841
.LBE3958:
.LBE4099:
.LBE4102:
	.cfi_endproc
.LFE2575:
	.section	.gcc_except_table
.LLSDA2575:
	.byte	0xff
	.byte	0xff
	.byte	0x1
	.uleb128 .LLSDACSE2575-.LLSDACSB2575
.LLSDACSB2575:
	.uleb128 .LEHB94-.LFB2575
	.uleb128 .LEHE94-.LEHB94
	.uleb128 .L894-.LFB2575
	.uleb128 0
	.uleb128 .LEHB95-.LFB2575
	.uleb128 .LEHE95-.LEHB95
	.uleb128 .L895-.LFB2575
	.uleb128 0
	.uleb128 .LEHB96-.LFB2575
	.uleb128 .LEHE96-.LEHB96
	.uleb128 .L896-.LFB2575
	.uleb128 0
	.uleb128 .LEHB97-.LFB2575
	.uleb128 .LEHE97-.LEHB97
	.uleb128 .L899-.LFB2575
	.uleb128 0
	.uleb128 .LEHB98-.LFB2575
	.uleb128 .LEHE98-.LEHB98
	.uleb128 .L900-.LFB2575
	.uleb128 0
	.uleb128 .LEHB99-.LFB2575
	.uleb128 .LEHE99-.LEHB99
	.uleb128 .L897-.LFB2575
	.uleb128 0
	.uleb128 .LEHB100-.LFB2575
	.uleb128 .LEHE100-.LEHB100
	.uleb128 .L898-.LFB2575
	.uleb128 0
	.uleb128 .LEHB101-.LFB2575
	.uleb128 .LEHE101-.LEHB101
	.uleb128 .L894-.LFB2575
	.uleb128 0
	.uleb128 .LEHB102-.LFB2575
	.uleb128 .LEHE102-.LEHB102
	.uleb128 0
	.uleb128 0
	.uleb128 .LEHB103-.LFB2575
	.uleb128 .LEHE103-.LEHB103
	.uleb128 .L894-.LFB2575
	.uleb128 0
	.uleb128 .LEHB104-.LFB2575
	.uleb128 .LEHE104-.LEHB104
	.uleb128 0
	.uleb128 0
.LLSDACSE2575:
	.section	".text"
	.size	_ZN8idDeclAF23ParseBallAndSocketJointER7idLexer, .-_ZN8idDeclAF23ParseBallAndSocketJointER7idLexer
	.align 2
	.globl _ZN8idDeclAF19ParseUniversalJointER7idLexer
	.type	_ZN8idDeclAF19ParseUniversalJointER7idLexer, @function
_ZN8idDeclAF19ParseUniversalJointER7idLexer:
.LFB2576:
	.loc 3 1092 0
	.cfi_startproc
	.cfi_personality 0,__gxx_personality_v0
	.cfi_lsda 0,.LLSDA2576
.LVL915:
	mflr 0
	stwu 1,-152(1)
.LCFI113:
	.cfi_def_cfa_offset 152
	.cfi_register 65, 0
.LVL916:
.LBB4188:
.LBB4189:
.LBB4190:
.LBB4191:
.LBB4192:
	.loc 4 357 0
	li 9,20
.LBE4192:
.LBE4191:
.LBE4190:
.LBE4189:
.LBE4188:
	.loc 3 1092 0
	stw 30,144(1)
	mr 30,3
	.cfi_offset 30, -8
	stw 0,156(1)
.LBB4383:
	.loc 3 1094 0
	li 3,648
.LVL917:
.LBB4199:
.LBB4197:
.LBB4195:
.LBB4193:
	.loc 4 356 0
	li 0,0
	.cfi_offset 65, 4
	.loc 4 357 0
	stw 9,16(1)
	.loc 4 358 0
	addi 9,1,20
.LBE4193:
.LBE4195:
.LBE4197:
.LBE4199:
.LBE4383:
	.loc 3 1092 0
	stw 28,136(1)
	stw 29,140(1)
	addi 28,1,8
	.cfi_offset 29, -12
	.cfi_offset 28, -16
	stw 17,92(1)
	mr 29,4
	stw 18,96(1)
	stw 19,100(1)
	stw 20,104(1)
	stw 21,108(1)
	stw 22,112(1)
	stw 23,116(1)
	stw 24,120(1)
	stw 25,124(1)
	stw 26,128(1)
	stw 27,132(1)
	stw 31,148(1)
.LBB4384:
.LBB4200:
.LBB4198:
.LBB4196:
.LBB4194:
	.loc 4 356 0
	stw 0,8(1)
	.loc 4 358 0
	stw 9,12(1)
	.loc 4 359 0
	stb 0,20(1)
.LEHB105:
.LBE4194:
.LBE4196:
.LBE4198:
.LBE4200:
	.loc 3 1094 0
	.cfi_offset 31, -4
	.cfi_offset 27, -20
	.cfi_offset 26, -24
	.cfi_offset 25, -28
	.cfi_offset 24, -32
	.cfi_offset 23, -36
	.cfi_offset 22, -40
	.cfi_offset 21, -44
	.cfi_offset 20, -48
	.cfi_offset 19, -52
	.cfi_offset 18, -56
	.cfi_offset 17, -60
	bl _Znwj
.LEHE105:
.LVL918:
.LBB4201:
.LBB4202:
.LBB4203:
.LBB4204:
.LBB4205:
	.loc 4 356 0
	li 0,0
	.loc 4 357 0
	li 9,20
	.loc 4 358 0
	addi 8,3,12
.LBE4205:
.LBE4204:
.LBE4203:
.LBB4210:
.LBB4211:
.LBB4212:
	addi 10,3,44
.LBE4212:
.LBE4211:
.LBE4210:
.LBB4215:
.LBB4216:
.LBB4217:
	addi 11,3,76
.LBE4217:
.LBE4216:
.LBE4215:
	.loc 8 112 0
	addi 24,3,128
.LBB4220:
.LBB4208:
.LBB4206:
	.loc 4 356 0
	stw 0,0(3)
.LBE4206:
.LBE4208:
.LBE4220:
.LBE4202:
.LBE4201:
	.loc 3 1094 0
	mr 31,3
.LVL919:
.LBB4236:
.LBB4233:
.LBB4221:
.LBB4209:
.LBB4207:
	.loc 4 357 0
	stw 9,8(3)
	.loc 4 358 0
	stw 8,4(3)
	.loc 4 359 0
	stb 0,12(3)
.LVL920:
.LBE4207:
.LBE4209:
.LBE4221:
.LBB4222:
.LBB4214:
.LBB4213:
	.loc 4 356 0
	stw 0,32(3)
	.loc 4 357 0
	stw 9,40(3)
	.loc 4 358 0
	stw 10,36(3)
	.loc 4 359 0
	stb 0,44(3)
.LVL921:
.LBE4213:
.LBE4214:
.LBE4222:
.LBB4223:
.LBB4219:
.LBB4218:
	.loc 4 356 0
	stw 0,64(3)
	.loc 4 357 0
	stw 9,72(3)
	.loc 4 358 0
	stw 11,68(3)
	.loc 4 359 0
	stb 0,76(3)
.LBE4218:
.LBE4219:
.LBE4223:
	.loc 8 112 0
	mr 3,24
.LVL922:
.LEHB106:
	bl _ZN10idAFVectorC1Ev
.LEHE106:
	addi 28,31,212
	mr 3,28
.LEHB107:
	bl _ZN10idAFVectorC1Ev
.LEHE107:
	addi 23,31,296
	mr 3,23
.LEHB108:
	bl _ZN10idAFVectorC1Ev
.LEHE108:
	addi 20,31,380
	mr 3,20
.LEHB109:
	bl _ZN10idAFVectorC1Ev
.LEHE109:
	addi 27,31,464
	mr 3,27
.LEHB110:
	bl _ZN10idAFVectorC1Ev
.LEHE110:
	addi 21,31,552
	mr 3,21
.LEHB111:
	bl _ZN10idAFVectorC1Ev
.LEHE111:
.LVL923:
.LBE4233:
.LBE4236:
	.loc 3 1096 0 discriminator 2
	mr 3,31
	mr 4,30
	addi 28,1,8
.LEHB112:
	bl _ZN19idDeclAF_Constraint10SetDefaultEPK8idDeclAF
.LBB4237:
.LBB4238:
	.loc 9 633 0
	lwz 27,172(30)
.LBE4238:
.LBE4237:
	.loc 3 1097 0
	addi 26,30,160
.LVL924:
.LBB4266:
.LBB4263:
	.loc 9 633 0
	cmpwi 7,27,0
	beq- 7,.L945
	lwz 9,160(30)
	lwz 0,164(30)
.L946:
	.loc 9 637 0
	cmpw 7,9,0
	beq- 7,.L1018
.L1015:
.LBB4239:
.LBB4240:
	.loc 9 399 0
	slwi 0,9,2
	addi 9,9,1
	add 27,27,0
.L953:
.LBE4240:
.LBE4239:
	.loc 9 641 0
	stw 9,160(30)
.LBE4263:
.LBE4266:
	.loc 3 1099 0
	addi 28,1,8
	.loc 3 1097 0
	stw 31,0(27)
	.loc 3 1099 0
	mr 3,29
	li 4,1
	li 5,0
	mr 6,28
	bl _ZN7idLexer15ExpectTokenTypeEiiP7idToken
.LEHE112:
	cmpwi 7,3,0
	bne- 7,.L1019
.LVL925:
.L1013:
	.loc 3 1158 0
	li 31,0
.L963:
.LVL926:
.LBB4267:
.LBB4268:
.LBB4269:
.LBB4270:
.LBB4271:
	.loc 4 501 0
	mr 3,28
.LEHB113:
	bl _ZN5idStr8FreeDataEv
.LEHE113:
.LBE4271:
.LBE4270:
.LBE4269:
.LBE4268:
.LBE4267:
.LBE4384:
	.loc 3 1163 0
	lwz 0,156(1)
	mr 3,31
	lwz 17,92(1)
	mtlr 0
	lwz 18,96(1)
	lwz 19,100(1)
	lwz 20,104(1)
	lwz 21,108(1)
	lwz 22,112(1)
	lwz 23,116(1)
	lwz 24,120(1)
.LVL927:
	lwz 25,124(1)
	lwz 26,128(1)
	lwz 27,132(1)
	lwz 28,136(1)
	lwz 29,140(1)
.LVL928:
	lwz 30,144(1)
	lwz 31,148(1)
	addi 1,1,152
	.cfi_remember_state
.LCFI114:
	.cfi_def_cfa_offset 0
	.cfi_restore 31
	.cfi_restore 30
	.cfi_restore 29
	.cfi_restore 28
	.cfi_restore 27
	.cfi_restore 26
	.cfi_restore 25
	.cfi_restore 24
	.cfi_restore 23
	.cfi_restore 22
	.cfi_restore 21
	.cfi_restore 20
	.cfi_restore 19
	.cfi_restore 18
	.cfi_restore 17
	blr
.LVL929:
.L1019:
.LCFI115:
	.cfi_restore_state
.LBB4385:
	.loc 3 1100 0
	lis 4,.LC114@ha
	mr 3,29
	la 4,.LC114@l(4)
.LEHB114:
	bl _ZN7idLexer17ExpectTokenStringEPKc
	.loc 3 1099 0
	cmpwi 7,3,0
	beq- 7,.L1013
.LBB4272:
	.loc 3 1753 0
	lwz 30,8(1)
.LVL930:
.LBB4273:
.LBB4274:
.LBB4275:
	.loc 4 350 0
	lwz 0,8(31)
.LBE4275:
.LBE4274:
	.loc 4 534 0
	addi 4,30,1
.LBB4279:
.LBB4276:
	.loc 4 350 0
	cmpw 7,4,0
.LBE4276:
.LBE4279:
.LBE4273:
.LBE4272:
	.loc 3 1104 0
	li 0,3
	stw 0,96(31)
	.loc 3 1105 0
	li 0,-1
	stw 0,548(31)
.LVL931:
.LBB4287:
.LBB4282:
.LBB4280:
.LBB4277:
	.loc 4 350 0
	bgt- 7,.L1020
.LVL932:
.L986:
.LBE4277:
.LBE4280:
	.loc 4 535 0
	lwz 3,4(31)
	mr 5,30
	lwz 4,12(1)
.LBE4282:
.LBE4287:
.LBB4288:
.LBB4289:
	.loc 4 690 0
	lis 27,.LC141@ha
.LBE4289:
.LBE4288:
.LBB4292:
.LBB4293:
	lis 26,.LC142@ha
.LVL933:
.LBE4293:
.LBE4292:
.LBB4296:
.LBB4297:
	lis 25,.LC144@ha
.LBE4297:
.LBE4296:
.LBB4300:
.LBB4283:
	.loc 4 535 0
	bl memcpy
	.loc 4 536 0
	lwz 9,4(31)
	li 11,0
.LBE4283:
.LBE4300:
.LBB4301:
.LBB4302:
	.loc 5 416 0
	li 0,0
.LBE4302:
.LBE4301:
.LBB4306:
.LBB4284:
	.loc 4 536 0
	stbx 11,9,30
.LBE4284:
.LBE4306:
	.loc 3 1107 0
	lis 9,.LC12@ha
	lwz 9,.LC12@l(9)
.LBB4307:
.LBB4308:
	.loc 4 690 0
	lis 22,.LC147@ha
.LBE4308:
.LBE4307:
.LBB4311:
.LBB4312:
	lis 19,.LC145@ha
.LBE4312:
.LBE4311:
.LBB4315:
.LBB4316:
	lis 18,.LC146@ha
.LBE4316:
.LBE4315:
.LBB4319:
.LBB4285:
	.loc 4 537 0
	stw 30,0(31)
.LBE4285:
.LBE4319:
.LBB4320:
.LBB4290:
	.loc 4 690 0
	la 27,.LC141@l(27)
.LBE4290:
.LBE4320:
	.loc 3 1107 0
	stw 9,100(31)
.LVL934:
.LBB4321:
.LBB4294:
	.loc 4 690 0
	la 26,.LC142@l(26)
.LBE4294:
.LBE4321:
.LBB4322:
.LBB4303:
	.loc 5 416 0
	stw 0,204(31)
.LBE4303:
.LBE4322:
.LBB4323:
.LBB4298:
	.loc 4 690 0
	la 25,.LC144@l(25)
.LBE4298:
.LBE4323:
.LBB4324:
.LBB4304:
	.loc 5 416 0
	stw 0,200(31)
.LBE4304:
.LBE4324:
.LBB4325:
.LBB4309:
	.loc 4 690 0
	la 22,.LC147@l(22)
.LBE4309:
.LBE4325:
.LBB4326:
.LBB4305:
	.loc 5 416 0
	stw 0,196(31)
.LVL935:
.LBE4305:
.LBE4326:
.LBB4327:
.LBB4313:
	.loc 4 690 0
	la 19,.LC145@l(19)
.LBE4313:
.LBE4327:
.LBB4328:
.LBB4329:
	.loc 5 416 0
	stw 0,372(31)
.LBE4329:
.LBE4328:
.LBB4332:
.LBB4317:
	.loc 4 690 0
	la 18,.LC146@l(18)
.LBE4317:
.LBE4332:
.LBB4333:
.LBB4330:
	.loc 5 416 0
	stw 0,368(31)
.LBE4330:
.LBE4333:
.LBB4334:
.LBB4335:
	.loc 4 690 0
	lis 17,.LC130@ha
.LBE4335:
.LBE4334:
.LBB4337:
.LBB4331:
	.loc 5 416 0
	stw 0,364(31)
.LVL936:
.LBE4331:
.LBE4337:
.LBB4338:
.LBB4339:
	stw 0,456(31)
	stw 0,452(31)
	stw 0,448(31)
.LVL937:
.L1009:
.LBE4339:
.LBE4338:
	.loc 3 1112 0 discriminator 1
	mr 3,29
	mr 4,28
	bl _ZN7idLexer9ReadTokenEP7idToken
	cmpwi 7,3,0
	beq- 7,.L1021
.L980:
.LVL938:
.LBB4340:
.LBB4291:
	.loc 4 690 0
	lwz 3,12(1)
	mr 4,27
	bl _ZN5idStr4IcmpEPKcS1_
.LBE4291:
.LBE4340:
	.loc 3 1114 0
	cmpwi 7,3,0
	bne- 7,.L965
	.loc 3 1115 0
	mr 3,29
	li 4,1
	li 5,0
	mr 6,28
	bl _ZN7idLexer15ExpectTokenTypeEiiP7idToken
.LVL939:
.LBB4341:
	.loc 3 1753 0
	lwz 30,8(1)
.LBB4342:
.LBB4343:
.LBB4344:
	.loc 4 350 0
	lwz 0,40(31)
.LBE4344:
.LBE4343:
	.loc 4 534 0
	addi 4,30,1
.LVL940:
.LBB4347:
.LBB4345:
	.loc 4 350 0
	cmpw 7,4,0
	bgt- 7,.L1022
.LVL941:
.L966:
.LBE4345:
.LBE4347:
	.loc 4 535 0
	lwz 4,12(1)
	mr 5,30
	lwz 3,36(31)
	bl memcpy
	.loc 4 536 0
	lwz 9,36(31)
	li 0,0
.LBE4342:
.LBE4341:
	.loc 3 1112 0
	mr 3,29
.LBB4352:
.LBB4349:
	.loc 4 536 0
	stbx 0,9,30
.LBE4349:
.LBE4352:
	.loc 3 1112 0
	mr 4,28
.LBB4353:
.LBB4350:
	.loc 4 537 0
	stw 30,32(31)
.LBE4350:
.LBE4353:
	.loc 3 1112 0
	bl _ZN7idLexer9ReadTokenEP7idToken
	cmpwi 7,3,0
	bne+ 7,.L980
.LVL942:
.L1021:
	.loc 3 1162 0
	li 31,1
.LVL943:
	b .L963
.LVL944:
.L965:
.LBB4354:
.LBB4295:
	.loc 4 690 0
	lwz 3,12(1)
	mr 4,26
	bl _ZN5idStr4IcmpEPKcS1_
.LBE4295:
.LBE4354:
	.loc 3 1117 0
	cmpwi 7,3,0
	bne- 7,.L968
	.loc 3 1118 0
	mr 3,29
	li 4,1
	li 5,0
	mr 6,28
	bl _ZN7idLexer15ExpectTokenTypeEiiP7idToken
.LVL945:
.LBB4355:
	.loc 3 1753 0
	lwz 30,8(1)
.LBB4356:
.LBB4357:
.LBB4358:
	.loc 4 350 0
	lwz 0,72(31)
.LBE4358:
.LBE4357:
	.loc 4 534 0
	addi 4,30,1
.LVL946:
.LBB4361:
.LBB4359:
	.loc 4 350 0
	cmpw 7,4,0
	bgt- 7,.L1023
.LVL947:
.L969:
.LBE4359:
.LBE4361:
	.loc 4 535 0
	lwz 3,68(31)
	mr 5,30
	lwz 4,12(1)
	bl memcpy
	.loc 4 536 0
	lwz 9,68(31)
	li 0,0
	stbx 0,9,30
	.loc 4 537 0
	stw 30,64(31)
	b .L1009
.LVL948:
.L968:
.LBE4356:
.LBE4355:
.LBB4364:
.LBB4299:
	.loc 4 690 0
	lwz 3,12(1)
	mr 4,25
	bl _ZN5idStr4IcmpEPKcS1_
.LBE4299:
.LBE4364:
	.loc 3 1120 0
	cmpwi 7,3,0
	bne- 7,.L970
	.loc 3 1121 0
	mr 3,24
	mr 4,29
	bl _ZN10idAFVector5ParseER7idLexer
.L1017:
	.loc 3 1125 0
	cmpwi 7,3,0
	bne+ 7,.L1009
	b .L1013
.LVL949:
.L1022:
.LBB4365:
.LBB4351:
.LBB4348:
.LBB4346:
	.loc 4 351 0
	addi 3,31,32
	li 5,0
	bl _ZN5idStr10ReAllocateEib
.LVL950:
	b .L966
.LVL951:
.L970:
.LBE4346:
.LBE4348:
.LBE4351:
.LBE4365:
.LBB4366:
.LBB4310:
	.loc 4 690 0
	lwz 3,12(1)
	mr 4,22
	bl _ZN5idStr4IcmpEPKcS1_
.LBE4310:
.LBE4366:
	.loc 3 1124 0
	cmpwi 7,3,0
	bne- 7,.L971
	.loc 3 1125 0
	mr 3,23
	mr 4,29
	bl _ZN10idAFVector5ParseER7idLexer
	cmpwi 7,3,0
	beq+ 7,.L1013
	.loc 3 1126 0
	lis 4,.LC4@ha
	mr 3,29
	la 4,.LC4@l(4)
	bl _ZN7idLexer17ExpectTokenStringEPKc
	.loc 3 1125 0
	cmpwi 7,3,0
	beq+ 7,.L1013
	.loc 3 1127 0
	mr 3,20
	mr 4,29
	bl _ZN10idAFVector5ParseER7idLexer
	b .L1017
.LVL952:
.L1023:
.LBB4367:
.LBB4363:
.LBB4362:
.LBB4360:
	.loc 4 351 0
	addi 3,31,64
	li 5,0
	bl _ZN5idStr10ReAllocateEib
.LVL953:
	b .L969
.LVL954:
.L971:
.LBE4360:
.LBE4362:
.LBE4363:
.LBE4367:
.LBB4368:
.LBB4314:
	.loc 4 690 0
	lwz 3,12(1)
	mr 4,19
	bl _ZN5idStr4IcmpEPKcS1_
.LBE4314:
.LBE4368:
	.loc 3 1130 0
	cmpwi 7,3,0
	bne- 7,.L973
	.loc 3 1131 0
	mr 3,21
	mr 4,29
	bl _ZN10idAFVector5ParseER7idLexer
	cmpwi 7,3,0
	beq+ 7,.L1013
	.loc 3 1132 0
	lis 4,.LC4@ha
	mr 3,29
	la 4,.LC4@l(4)
	bl _ZN7idLexer17ExpectTokenStringEPKc
	.loc 3 1131 0
	cmpwi 7,3,0
	beq- 7,.L1013
	.loc 3 1135 0
	mr 3,29
	li 4,0
	bl _ZN7idLexer10ParseFloatEPb
	.loc 3 1136 0
	li 0,0
	.loc 3 1135 0
	stfs 1,636(31)
	.loc 3 1136 0
	stw 0,548(31)
	b .L1009
.L973:
.LVL955:
.LBB4369:
.LBB4318:
	.loc 4 690 0
	lwz 3,12(1)
	mr 4,18
	bl _ZN5idStr4IcmpEPKcS1_
.LBE4318:
.LBE4369:
	.loc 3 1137 0
	cmpwi 7,3,0
	bne- 7,.L976
	.loc 3 1138 0
	mr 3,21
	mr 4,29
	bl _ZN10idAFVector5ParseER7idLexer
	cmpwi 7,3,0
	beq+ 7,.L1013
	.loc 3 1139 0
	lis 30,.LC4@ha
	mr 3,29
	la 30,.LC4@l(30)
	mr 4,30
	bl _ZN7idLexer17ExpectTokenStringEPKc
	.loc 3 1138 0
	cmpwi 7,3,0
	beq- 7,.L1013
	.loc 3 1142 0
	mr 3,29
	li 4,0
	bl _ZN7idLexer10ParseFloatEPb
	stfs 1,636(31)
	.loc 3 1143 0
	mr 3,29
	mr 4,30
	bl _ZN7idLexer17ExpectTokenStringEPKc
	.loc 3 1143 0 is_stmt 0 discriminator 1
	cmpwi 7,3,0
	beq- 7,.L1013
	.loc 3 1146 0 is_stmt 1
	mr 3,29
	li 4,0
	bl _ZN7idLexer10ParseFloatEPb
	stfs 1,640(31)
	.loc 3 1147 0
	mr 3,29
	mr 4,30
	bl _ZN7idLexer17ExpectTokenStringEPKc
	.loc 3 1147 0 is_stmt 0 discriminator 1
	cmpwi 7,3,0
	beq- 7,.L1013
	.loc 3 1150 0 is_stmt 1
	mr 3,29
	li 4,0
	bl _ZN7idLexer10ParseFloatEPb
	.loc 3 1151 0
	li 0,1
	.loc 3 1150 0
	stfs 1,644(31)
	.loc 3 1151 0
	stw 0,548(31)
	b .L1009
.L976:
.LVL956:
.LBB4370:
.LBB4336:
	.loc 4 690 0
	lwz 3,12(1)
	la 4,.LC130@l(17)
	bl _ZN5idStr4IcmpEPKcS1_
.LBE4336:
.LBE4370:
	.loc 3 1152 0
	cmpwi 7,3,0
	bne- 7,.L979
	.loc 3 1153 0
	mr 3,29
	li 4,0
	bl _ZN7idLexer10ParseFloatEPb
	stfs 1,100(31)
	b .L1009
.LVL957:
.L1020:
.LBB4371:
.LBB4286:
.LBB4281:
.LBB4278:
	.loc 4 351 0
	mr 3,31
	li 5,0
	bl _ZN5idStr10ReAllocateEib
.LVL958:
	b .L986
.LVL959:
.L1018:
	lwz 3,168(30)
.L948:
.LVL960:
.LBE4278:
.LBE4281:
.LBE4286:
.LBE4371:
.LBB4372:
.LBB4264:
.LBB4246:
.LBB4243:
	.loc 9 375 0
	add. 3,9,3
.LVL961:
	ble- 0,.L1024
	.loc 9 380 0
	cmpw 7,3,9
	beq- 7,.L1015
.LVL962:
	.loc 9 386 0
	stw 3,164(30)
	.loc 9 387 0
	bge- 7,.L957
	.loc 9 388 0
	stw 3,160(30)
.L957:
	.loc 9 392 0
	slwi 3,3,2
.LVL963:
	addi 28,1,8
	bl _Znaj
.LVL964:
	.loc 9 393 0
	lwz 0,160(30)
	.loc 9 392 0
	stw 3,172(30)
.LVL965:
	.loc 9 393 0
	cmpwi 7,0,0
	ble- 7,.L958
	.loc 3 1092 0
	addi 11,27,-4
.LBE4243:
.LBE4246:
.LBB4247:
.LBB4248:
.LBB4249:
.LBB4250:
	.loc 9 393 0
	li 9,0
	b .L959
.LVL966:
.L1025:
.LBE4250:
.LBE4249:
.LBE4248:
.LBE4247:
.LBB4257:
.LBB4244:
	lwz 3,172(30)
.LVL967:
.L959:
	.loc 9 394 0
	lwzu 10,4(11)
	slwi 0,9,2
	.loc 9 393 0
	addi 9,9,1
.LVL968:
	.loc 9 394 0
	stwx 10,3,0
	.loc 9 393 0
	lwz 0,0(26)
	cmpw 7,9,0
	blt+ 7,.L1025
.LVL969:
.L958:
	.loc 9 398 0
	cmpwi 7,27,0
	beq- 7,.L1026
	.loc 9 399 0
	mr 3,27
	bl _ZdaPv
	lwz 9,160(30)
	lwz 27,172(30)
.LVL970:
	b .L1015
.LVL971:
.L945:
.LBE4244:
.LBE4257:
	.loc 9 634 0
	lwz 3,168(30)
.LBB4258:
.LBB4253:
	.loc 9 375 0
	cmpwi 7,3,0
.LBE4253:
.LBE4258:
	.loc 9 634 0
	mr 0,3
.LVL972:
.LBB4259:
.LBB4254:
	.loc 9 375 0
	ble- 7,.L1027
	.loc 9 380 0
	lwz 9,164(30)
	cmpw 7,3,9
	beq- 7,.L1028
.LVL973:
	.loc 9 387 0
	lwz 0,160(30)
	.loc 9 386 0
	stw 3,164(30)
	.loc 9 387 0
	cmpw 7,3,0
	blt- 7,.L1029
.L950:
	.loc 9 392 0
	slwi 3,3,2
	addi 28,1,8
	bl _Znaj
.LVL974:
	.loc 9 393 0
	lwz 9,160(30)
	.loc 9 392 0
	mr 27,3
	stw 3,172(30)
.LVL975:
	.loc 9 393 0
	li 11,0
	cmpwi 7,9,0
	li 10,0
	bgt+ 7,.L1007
	lwz 0,164(30)
	b .L946
.LVL976:
.L1030:
	lwz 27,172(30)
.LVL977:
.L1007:
	.loc 9 394 0
	lwz 0,0(11)
	.loc 9 393 0
	addi 10,10,1
.LVL978:
	.loc 9 394 0
	stwx 0,27,11
	.loc 9 393 0
	addi 11,11,4
	lwz 9,0(26)
	cmpw 7,10,9
	blt+ 7,.L1030
	lwz 0,164(30)
	lwz 27,172(30)
	b .L946
.LVL979:
.L1029:
	.loc 9 388 0
	stw 3,160(30)
	b .L950
.LVL980:
.L1024:
.LBE4254:
.LBE4259:
.LBB4260:
.LBB4245:
.LBB4241:
.LBB4242:
	.loc 9 193 0
	cmpwi 7,27,0
	beq- 7,.L955
	.loc 9 194 0
	mr 3,27
.LVL981:
	bl _ZdaPv
.L955:
	.loc 9 197 0
	li 0,0
	.loc 9 199 0
	li 9,1
	.loc 9 197 0
	stw 0,172(30)
	.loc 9 199 0
	li 27,0
	stw 0,164(30)
	b .L953
.LVL982:
.L1026:
.LBE4242:
.LBE4241:
	.loc 9 398 0
	lwz 9,160(30)
	lwz 27,172(30)
.LVL983:
	slwi 0,9,2
	addi 9,9,1
	add 27,27,0
	b .L953
.LVL984:
.L1028:
.LBE4245:
.LBE4260:
.LBB4261:
.LBB4255:
	.loc 9 380 0
	lwz 9,160(30)
	b .L946
.LVL985:
.L979:
.LBE4255:
.LBE4261:
.LBE4264:
.LBE4372:
.LBB4373:
.LBB4374:
	.loc 4 653 0
	lis 4,.LC137@ha
	lwz 3,12(1)
	la 4,.LC137@l(4)
	bl _ZN5idStr3CmpEPKcS1_
.LBE4374:
.LBE4373:
	.loc 3 1154 0
	cmpwi 7,3,0
	.loc 3 1162 0
	li 31,1
	.loc 3 1154 0
	beq+ 7,.L963
	.loc 3 1157 0
	lis 4,.LC148@ha
	lwz 5,12(1)
	mr 3,29
	la 4,.LC148@l(4)
	crxor 6,6,6
	bl _ZN7idLexer5ErrorEPKcz
.LEHE114:
	b .L1013
.LVL986:
.L1027:
.LBB4375:
.LBB4265:
.LBB4262:
.LBB4256:
.LBB4252:
.LBB4251:
	.loc 9 198 0
	stw 27,160(30)
	.loc 9 199 0
	li 9,0
	stw 27,164(30)
	b .L948
.LVL987:
.L1001:
	mr 29,3
.LVL988:
.LBE4251:
.LBE4252:
.LBE4256:
.LBE4262:
.LBE4265:
.LBE4375:
.LBB4376:
.LBB4234:
	.loc 8 112 0
	li 0,1
.L930:
	mulli 0,0,84
	add 30,31,0
.LVL989:
	addi 30,30,296
	cmpw 7,23,30
	beq- 7,.L933
.L1004:
	addi 30,30,-84
	mr 3,30
	bl _ZN10idAFVectorD1Ev
	cmpw 7,23,30
	bne+ 7,.L1004
.L933:
	mr 30,29
.L935:
	mr 3,28
	bl _ZN10idAFVectorD1Ev
	b .L939
.LVL990:
.L1000:
	mr 29,3
.LVL991:
	li 0,0
	b .L930
.LVL992:
.L997:
	mr 30,3
.LVL993:
.L939:
	mr 3,24
	bl _ZN10idAFVectorD1Ev
.L940:
.LVL994:
.LBB4224:
.LBB4225:
.LBB4226:
	.loc 4 501 0
	addi 3,31,64
	addi 28,1,8
	bl _ZN5idStr8FreeDataEv
.LVL995:
.LBE4226:
.LBE4225:
.LBE4224:
.LBB4227:
.LBB4228:
.LBB4229:
	addi 3,31,32
	bl _ZN5idStr8FreeDataEv
.LVL996:
.LBE4229:
.LBE4228:
.LBE4227:
.LBB4230:
.LBB4231:
.LBB4232:
	mr 3,31
	bl _ZN5idStr8FreeDataEv
.LBE4232:
.LBE4231:
.LBE4230:
.LBE4234:
.LBE4376:
	.loc 3 1094 0
	mr 3,31
	bl _ZdlPv
	mr 31,30
.LVL997:
.L944:
.LBB4377:
.LBB4378:
.LBB4379:
.LBB4380:
.LBB4381:
	.loc 4 501 0
	mr 3,28
	bl _ZN5idStr8FreeDataEv
	mr 3,31
.LEHB115:
	bl _Unwind_Resume
.LEHE115:
.LVL998:
.L996:
	mr 30,3
.LVL999:
	b .L940
.LVL1000:
.L999:
	mr 30,3
.LVL1001:
.LBE4381:
.LBE4380:
.LBE4379:
.LBE4378:
.LBE4377:
.LBB4382:
.LBB4235:
	.loc 8 112 0
	mr 3,27
	bl _ZN10idAFVectorD1Ev
.L938:
	addi 27,27,-84
	mr 3,27
	bl _ZN10idAFVectorD1Ev
	cmpw 7,23,27
	bne+ 7,.L938
	b .L935
.LVL1002:
.L998:
	mr 30,3
.LVL1003:
	b .L938
.LVL1004:
.L995:
	mr 31,3
	b .L944
.LBE4235:
.LBE4382:
.LBE4385:
	.cfi_endproc
.LFE2576:
	.section	.gcc_except_table
.LLSDA2576:
	.byte	0xff
	.byte	0xff
	.byte	0x1
	.uleb128 .LLSDACSE2576-.LLSDACSB2576
.LLSDACSB2576:
	.uleb128 .LEHB105-.LFB2576
	.uleb128 .LEHE105-.LEHB105
	.uleb128 .L995-.LFB2576
	.uleb128 0
	.uleb128 .LEHB106-.LFB2576
	.uleb128 .LEHE106-.LEHB106
	.uleb128 .L996-.LFB2576
	.uleb128 0
	.uleb128 .LEHB107-.LFB2576
	.uleb128 .LEHE107-.LEHB107
	.uleb128 .L997-.LFB2576
	.uleb128 0
	.uleb128 .LEHB108-.LFB2576
	.uleb128 .LEHE108-.LEHB108
	.uleb128 .L1000-.LFB2576
	.uleb128 0
	.uleb128 .LEHB109-.LFB2576
	.uleb128 .LEHE109-.LEHB109
	.uleb128 .L1001-.LFB2576
	.uleb128 0
	.uleb128 .LEHB110-.LFB2576
	.uleb128 .LEHE110-.LEHB110
	.uleb128 .L998-.LFB2576
	.uleb128 0
	.uleb128 .LEHB111-.LFB2576
	.uleb128 .LEHE111-.LEHB111
	.uleb128 .L999-.LFB2576
	.uleb128 0
	.uleb128 .LEHB112-.LFB2576
	.uleb128 .LEHE112-.LEHB112
	.uleb128 .L995-.LFB2576
	.uleb128 0
	.uleb128 .LEHB113-.LFB2576
	.uleb128 .LEHE113-.LEHB113
	.uleb128 0
	.uleb128 0
	.uleb128 .LEHB114-.LFB2576
	.uleb128 .LEHE114-.LEHB114
	.uleb128 .L995-.LFB2576
	.uleb128 0
	.uleb128 .LEHB115-.LFB2576
	.uleb128 .LEHE115-.LEHB115
	.uleb128 0
	.uleb128 0
.LLSDACSE2576:
	.section	".text"
	.size	_ZN8idDeclAF19ParseUniversalJointER7idLexer, .-_ZN8idDeclAF19ParseUniversalJointER7idLexer
	.align 2
	.globl _ZN8idDeclAF10ParseHingeER7idLexer
	.type	_ZN8idDeclAF10ParseHingeER7idLexer, @function
_ZN8idDeclAF10ParseHingeER7idLexer:
.LFB2577:
	.loc 3 1170 0
	.cfi_startproc
	.cfi_personality 0,__gxx_personality_v0
	.cfi_lsda 0,.LLSDA2577
.LVL1005:
	mflr 0
	stwu 1,-144(1)
.LCFI116:
	.cfi_def_cfa_offset 144
	.cfi_register 65, 0
.LVL1006:
.LBB4467:
.LBB4468:
.LBB4469:
.LBB4470:
.LBB4471:
	.loc 4 357 0
	li 9,20
.LBE4471:
.LBE4470:
.LBE4469:
.LBE4468:
.LBE4467:
	.loc 3 1170 0
	stw 30,136(1)
	mr 30,3
	.cfi_offset 30, -8
	stw 0,148(1)
.LBB4656:
	.loc 3 1172 0
	li 3,648
.LVL1007:
.LBB4478:
.LBB4476:
.LBB4474:
.LBB4472:
	.loc 4 356 0
	li 0,0
	.cfi_offset 65, 4
	.loc 4 357 0
	stw 9,16(1)
	.loc 4 358 0
	addi 9,1,20
.LBE4472:
.LBE4474:
.LBE4476:
.LBE4478:
.LBE4656:
	.loc 3 1170 0
	stw 28,128(1)
	stw 29,132(1)
	addi 28,1,8
	.cfi_offset 29, -12
	.cfi_offset 28, -16
	stw 19,92(1)
	mr 29,4
	stw 20,96(1)
	stw 21,100(1)
	stw 22,104(1)
	stw 23,108(1)
	stw 24,112(1)
	stw 25,116(1)
	stw 26,120(1)
	stw 27,124(1)
	stw 31,140(1)
.LBB4657:
.LBB4479:
.LBB4477:
.LBB4475:
.LBB4473:
	.loc 4 356 0
	stw 0,8(1)
	.loc 4 358 0
	stw 9,12(1)
	.loc 4 359 0
	stb 0,20(1)
.LEHB116:
.LBE4473:
.LBE4475:
.LBE4477:
.LBE4479:
	.loc 3 1172 0
	.cfi_offset 31, -4
	.cfi_offset 27, -20
	.cfi_offset 26, -24
	.cfi_offset 25, -28
	.cfi_offset 24, -32
	.cfi_offset 23, -36
	.cfi_offset 22, -40
	.cfi_offset 21, -44
	.cfi_offset 20, -48
	.cfi_offset 19, -52
	bl _Znwj
.LEHE116:
.LVL1008:
.LBB4480:
.LBB4481:
.LBB4482:
.LBB4483:
.LBB4484:
	.loc 4 356 0
	li 0,0
	.loc 4 357 0
	li 9,20
	.loc 4 358 0
	addi 8,3,12
.LBE4484:
.LBE4483:
.LBE4482:
.LBB4489:
.LBB4490:
.LBB4491:
	addi 10,3,44
.LBE4491:
.LBE4490:
.LBE4489:
.LBB4494:
.LBB4495:
.LBB4496:
	addi 11,3,76
.LBE4496:
.LBE4495:
.LBE4494:
	.loc 8 112 0
	addi 24,3,128
.LBB4499:
.LBB4487:
.LBB4485:
	.loc 4 356 0
	stw 0,0(3)
.LBE4485:
.LBE4487:
.LBE4499:
.LBE4481:
.LBE4480:
	.loc 3 1172 0
	mr 31,3
.LVL1009:
.LBB4515:
.LBB4512:
.LBB4500:
.LBB4488:
.LBB4486:
	.loc 4 357 0
	stw 9,8(3)
	.loc 4 358 0
	stw 8,4(3)
	.loc 4 359 0
	stb 0,12(3)
.LVL1010:
.LBE4486:
.LBE4488:
.LBE4500:
.LBB4501:
.LBB4493:
.LBB4492:
	.loc 4 356 0
	stw 0,32(3)
	.loc 4 357 0
	stw 9,40(3)
	.loc 4 358 0
	stw 10,36(3)
	.loc 4 359 0
	stb 0,44(3)
.LVL1011:
.LBE4492:
.LBE4493:
.LBE4501:
.LBB4502:
.LBB4498:
.LBB4497:
	.loc 4 356 0
	stw 0,64(3)
	.loc 4 357 0
	stw 9,72(3)
	.loc 4 358 0
	stw 11,68(3)
	.loc 4 359 0
	stb 0,76(3)
.LBE4497:
.LBE4498:
.LBE4502:
	.loc 8 112 0
	mr 3,24
.LVL1012:
.LEHB117:
	bl _ZN10idAFVectorC1Ev
.LEHE117:
	addi 27,31,212
	mr 3,27
.LEHB118:
	bl _ZN10idAFVectorC1Ev
.LEHE118:
	addi 28,31,296
	mr 3,28
.LEHB119:
	bl _ZN10idAFVectorC1Ev
.LEHE119:
	addi 3,31,380
.LEHB120:
	bl _ZN10idAFVectorC1Ev
.LEHE120:
	addi 23,31,464
	mr 3,23
.LEHB121:
	bl _ZN10idAFVectorC1Ev
.LEHE121:
	addi 3,31,552
.LEHB122:
	bl _ZN10idAFVectorC1Ev
.LEHE122:
.LVL1013:
.LBE4512:
.LBE4515:
	.loc 3 1174 0 discriminator 2
	mr 3,31
	mr 4,30
	addi 28,1,8
.LEHB123:
	bl _ZN19idDeclAF_Constraint10SetDefaultEPK8idDeclAF
.LBB4516:
.LBB4517:
	.loc 9 633 0
	lwz 27,172(30)
.LBE4517:
.LBE4516:
	.loc 3 1175 0
	addi 26,30,160
.LVL1014:
.LBB4545:
.LBB4542:
	.loc 9 633 0
	cmpwi 7,27,0
	beq- 7,.L1049
	lwz 9,160(30)
	lwz 0,164(30)
.L1050:
	.loc 9 637 0
	cmpw 7,9,0
	beq- 7,.L1112
.L1109:
.LBB4518:
.LBB4519:
	.loc 9 399 0
	slwi 0,9,2
	addi 9,9,1
	add 27,27,0
.L1057:
.LBE4519:
.LBE4518:
	.loc 9 641 0
	stw 9,160(30)
.LBE4542:
.LBE4545:
	.loc 3 1177 0
	addi 28,1,8
	.loc 3 1175 0
	stw 31,0(27)
	.loc 3 1177 0
	mr 3,29
	li 4,1
	li 5,0
	mr 6,28
	bl _ZN7idLexer15ExpectTokenTypeEiiP7idToken
.LEHE123:
	cmpwi 7,3,0
	bne- 7,.L1113
.LVL1015:
.L1108:
	.loc 3 1222 0
	li 31,0
.L1067:
.LVL1016:
.LBB4546:
.LBB4547:
.LBB4548:
.LBB4549:
.LBB4550:
	.loc 4 501 0
	mr 3,28
.LEHB124:
	bl _ZN5idStr8FreeDataEv
.LEHE124:
.LBE4550:
.LBE4549:
.LBE4548:
.LBE4547:
.LBE4546:
.LBE4657:
	.loc 3 1227 0
	lwz 0,148(1)
	mr 3,31
	lwz 19,92(1)
	mtlr 0
	lwz 20,96(1)
	lwz 21,100(1)
	lwz 22,104(1)
	lwz 23,108(1)
	lwz 24,112(1)
.LVL1017:
	lwz 25,116(1)
	lwz 26,120(1)
	lwz 27,124(1)
	lwz 28,128(1)
	lwz 29,132(1)
.LVL1018:
	lwz 30,136(1)
	lwz 31,140(1)
	addi 1,1,144
	.cfi_remember_state
.LCFI117:
	.cfi_def_cfa_offset 0
	.cfi_restore 31
	.cfi_restore 30
	.cfi_restore 29
	.cfi_restore 28
	.cfi_restore 27
	.cfi_restore 26
	.cfi_restore 25
	.cfi_restore 24
	.cfi_restore 23
	.cfi_restore 22
	.cfi_restore 21
	.cfi_restore 20
	.cfi_restore 19
	blr
.LVL1019:
.L1113:
.LCFI118:
	.cfi_restore_state
.LBB4658:
	.loc 3 1178 0
	lis 4,.LC114@ha
	mr 3,29
	la 4,.LC114@l(4)
.LEHB125:
	bl _ZN7idLexer17ExpectTokenStringEPKc
	.loc 3 1177 0
	cmpwi 7,3,0
	beq- 7,.L1108
.LBB4551:
	.loc 3 1753 0
	lwz 30,8(1)
.LVL1020:
.LBB4552:
.LBB4553:
.LBB4554:
	.loc 4 350 0
	lwz 0,8(31)
.LBE4554:
.LBE4553:
	.loc 4 534 0
	addi 4,30,1
.LBB4558:
.LBB4555:
	.loc 4 350 0
	cmpw 7,4,0
.LBE4555:
.LBE4558:
.LBE4552:
.LBE4551:
	.loc 3 1182 0
	li 0,4
	stw 0,96(31)
	.loc 3 1183 0
	li 0,-1
	stw 0,548(31)
.LVL1021:
.LBB4566:
.LBB4561:
.LBB4559:
.LBB4556:
	.loc 4 350 0
	bgt- 7,.L1114
.LVL1022:
.L1084:
.LBE4556:
.LBE4559:
	.loc 4 535 0
	lwz 3,4(31)
	mr 5,30
	lwz 4,12(1)
.LBE4561:
.LBE4566:
.LBB4567:
.LBB4568:
	.loc 4 690 0
	lis 27,.LC141@ha
.LBE4568:
.LBE4567:
.LBB4571:
.LBB4572:
	lis 26,.LC142@ha
.LVL1023:
.LBE4572:
.LBE4571:
.LBB4575:
.LBB4576:
	lis 25,.LC144@ha
.LBE4576:
.LBE4575:
.LBB4579:
.LBB4562:
	.loc 4 535 0
	bl memcpy
	.loc 4 536 0
	lwz 9,4(31)
	li 11,0
.LBE4562:
.LBE4579:
.LBB4580:
.LBB4581:
	.loc 5 416 0
	li 0,0
.LBE4581:
.LBE4580:
.LBB4585:
.LBB4563:
	.loc 4 536 0
	stbx 11,9,30
.LBE4563:
.LBE4585:
	.loc 3 1185 0
	lis 9,.LC12@ha
	lwz 9,.LC12@l(9)
.LBB4586:
.LBB4587:
	.loc 4 690 0
	lis 22,.LC149@ha
.LBE4587:
.LBE4586:
.LBB4590:
.LBB4591:
	lis 21,.LC150@ha
.LBE4591:
.LBE4590:
.LBB4594:
.LBB4595:
	lis 19,.LC130@ha
.LBE4595:
.LBE4594:
.LBB4598:
.LBB4564:
	.loc 4 537 0
	stw 30,0(31)
.LBE4564:
.LBE4598:
.LBB4599:
.LBB4569:
	.loc 4 690 0
	la 27,.LC141@l(27)
.LBE4569:
.LBE4599:
	.loc 3 1185 0
	stw 9,100(31)
.LVL1024:
.LBB4600:
.LBB4573:
	.loc 4 690 0
	la 26,.LC142@l(26)
.LBE4573:
.LBE4600:
.LBB4601:
.LBB4582:
	.loc 5 416 0
	stw 0,204(31)
.LBE4582:
.LBE4601:
.LBB4602:
.LBB4577:
	.loc 4 690 0
	la 25,.LC144@l(25)
.LBE4577:
.LBE4602:
.LBB4603:
.LBB4583:
	.loc 5 416 0
	stw 0,200(31)
.LBE4583:
.LBE4603:
.LBB4604:
.LBB4588:
	.loc 4 690 0
	la 22,.LC149@l(22)
.LBE4588:
.LBE4604:
.LBB4605:
.LBB4584:
	.loc 5 416 0
	stw 0,196(31)
.LVL1025:
.LBE4584:
.LBE4605:
.LBB4606:
.LBB4592:
	.loc 4 690 0
	la 21,.LC150@l(21)
.LBE4592:
.LBE4606:
.LBB4607:
.LBB4608:
	.loc 5 416 0
	stw 0,540(31)
.LBE4608:
.LBE4607:
.LBB4611:
.LBB4596:
	.loc 4 690 0
	la 19,.LC130@l(19)
.LBE4596:
.LBE4611:
.LBB4612:
.LBB4609:
	.loc 5 416 0
	stw 0,536(31)
.LBE4609:
.LBE4612:
	.loc 3 1207 0
	lis 20,.LC4@ha
.LBB4613:
.LBB4610:
	.loc 5 416 0
	stw 0,532(31)
.LVL1026:
.L1107:
.LBE4610:
.LBE4613:
	.loc 3 1189 0 discriminator 1
	mr 3,29
	mr 4,28
	bl _ZN7idLexer9ReadTokenEP7idToken
	cmpwi 7,3,0
	beq- 7,.L1115
.L1078:
.LVL1027:
.LBB4614:
.LBB4570:
	.loc 4 690 0
	lwz 3,12(1)
	mr 4,27
	bl _ZN5idStr4IcmpEPKcS1_
.LBE4570:
.LBE4614:
	.loc 3 1191 0
	cmpwi 7,3,0
	bne- 7,.L1069
	.loc 3 1192 0
	mr 3,29
	li 4,1
	li 5,0
	mr 6,28
	bl _ZN7idLexer15ExpectTokenTypeEiiP7idToken
.LVL1028:
.LBB4615:
	.loc 3 1753 0
	lwz 30,8(1)
.LBB4616:
.LBB4617:
.LBB4618:
	.loc 4 350 0
	lwz 0,40(31)
.LBE4618:
.LBE4617:
	.loc 4 534 0
	addi 4,30,1
.LVL1029:
.LBB4621:
.LBB4619:
	.loc 4 350 0
	cmpw 7,4,0
	bgt- 7,.L1116
.LVL1030:
.L1070:
.LBE4619:
.LBE4621:
	.loc 4 535 0
	lwz 4,12(1)
	mr 5,30
	lwz 3,36(31)
	bl memcpy
	.loc 4 536 0
	lwz 9,36(31)
	li 0,0
.LBE4616:
.LBE4615:
	.loc 3 1189 0
	mr 3,29
.LBB4626:
.LBB4623:
	.loc 4 536 0
	stbx 0,9,30
.LBE4623:
.LBE4626:
	.loc 3 1189 0
	mr 4,28
.LBB4627:
.LBB4624:
	.loc 4 537 0
	stw 30,32(31)
.LBE4624:
.LBE4627:
	.loc 3 1189 0
	bl _ZN7idLexer9ReadTokenEP7idToken
	cmpwi 7,3,0
	bne+ 7,.L1078
.LVL1031:
.L1115:
	.loc 3 1226 0
	li 31,1
.LVL1032:
	b .L1067
.LVL1033:
.L1069:
.LBB4628:
.LBB4574:
	.loc 4 690 0
	lwz 3,12(1)
	mr 4,26
	bl _ZN5idStr4IcmpEPKcS1_
.LBE4574:
.LBE4628:
	.loc 3 1194 0
	cmpwi 7,3,0
	bne- 7,.L1072
	.loc 3 1195 0
	mr 3,29
	li 4,1
	li 5,0
	mr 6,28
	bl _ZN7idLexer15ExpectTokenTypeEiiP7idToken
.LVL1034:
.LBB4629:
	.loc 3 1753 0
	lwz 30,8(1)
.LBB4630:
.LBB4631:
.LBB4632:
	.loc 4 350 0
	lwz 0,72(31)
.LBE4632:
.LBE4631:
	.loc 4 534 0
	addi 4,30,1
.LVL1035:
.LBB4635:
.LBB4633:
	.loc 4 350 0
	cmpw 7,4,0
	bgt- 7,.L1117
.LVL1036:
.L1073:
.LBE4633:
.LBE4635:
	.loc 4 535 0
	lwz 3,68(31)
	mr 5,30
	lwz 4,12(1)
	bl memcpy
	.loc 4 536 0
	lwz 9,68(31)
	li 0,0
	stbx 0,9,30
	.loc 4 537 0
	stw 30,64(31)
	b .L1107
.LVL1037:
.L1072:
.LBE4630:
.LBE4629:
.LBB4638:
.LBB4578:
	.loc 4 690 0
	lwz 3,12(1)
	mr 4,25
	bl _ZN5idStr4IcmpEPKcS1_
.LBE4578:
.LBE4638:
	.loc 3 1197 0
	cmpwi 7,3,0
	bne- 7,.L1074
	.loc 3 1198 0
	mr 3,24
	mr 4,29
	bl _ZN10idAFVector5ParseER7idLexer
.L1111:
	.loc 3 1202 0
	cmpwi 7,3,0
	bne+ 7,.L1107
	b .L1108
.LVL1038:
.L1116:
.LBB4639:
.LBB4625:
.LBB4622:
.LBB4620:
	.loc 4 351 0
	addi 3,31,32
	li 5,0
	bl _ZN5idStr10ReAllocateEib
.LVL1039:
	b .L1070
.LVL1040:
.L1074:
.LBE4620:
.LBE4622:
.LBE4625:
.LBE4639:
.LBB4640:
.LBB4589:
	.loc 4 690 0
	lwz 3,12(1)
	mr 4,22
	bl _ZN5idStr4IcmpEPKcS1_
.LBE4589:
.LBE4640:
	.loc 3 1201 0
	cmpwi 7,3,0
	bne- 7,.L1075
	.loc 3 1202 0
	mr 3,23
	mr 4,29
	bl _ZN10idAFVector5ParseER7idLexer
	b .L1111
.LVL1041:
.L1117:
.LBB4641:
.LBB4637:
.LBB4636:
.LBB4634:
	.loc 4 351 0
	addi 3,31,64
	li 5,0
	bl _ZN5idStr10ReAllocateEib
.LVL1042:
	b .L1073
.LVL1043:
.L1075:
.LBE4634:
.LBE4636:
.LBE4637:
.LBE4641:
.LBB4642:
.LBB4593:
	.loc 4 690 0
	lwz 3,12(1)
	mr 4,21
	bl _ZN5idStr4IcmpEPKcS1_
.LBE4593:
.LBE4642:
	.loc 3 1205 0
	cmpwi 7,3,0
	bne- 7,.L1076
	.loc 3 1206 0
	mr 3,29
	li 4,0
	bl _ZN7idLexer10ParseFloatEPb
	.loc 3 1207 0
	la 30,.LC4@l(20)
	.loc 3 1206 0
	stfs 1,636(31)
	.loc 3 1207 0
	mr 3,29
	mr 4,30
	bl _ZN7idLexer17ExpectTokenStringEPKc
	.loc 3 1207 0 is_stmt 0 discriminator 1
	cmpwi 7,3,0
	beq- 7,.L1108
	.loc 3 1210 0 is_stmt 1
	mr 3,29
	li 4,0
	bl _ZN7idLexer10ParseFloatEPb
	stfs 1,640(31)
	.loc 3 1211 0
	mr 3,29
	mr 4,30
	bl _ZN7idLexer17ExpectTokenStringEPKc
	.loc 3 1211 0 is_stmt 0 discriminator 1
	cmpwi 7,3,0
	beq- 7,.L1108
	.loc 3 1214 0 is_stmt 1
	mr 3,29
	li 4,0
	bl _ZN7idLexer10ParseFloatEPb
	.loc 3 1215 0
	li 0,0
	.loc 3 1214 0
	stfs 1,644(31)
	.loc 3 1215 0
	stw 0,548(31)
	b .L1107
.L1076:
.LVL1044:
.LBB4643:
.LBB4597:
	.loc 4 690 0
	lwz 3,12(1)
	mr 4,19
	bl _ZN5idStr4IcmpEPKcS1_
.LBE4597:
.LBE4643:
	.loc 3 1216 0
	cmpwi 7,3,0
	bne- 7,.L1077
	.loc 3 1217 0
	mr 3,29
	li 4,0
	bl _ZN7idLexer10ParseFloatEPb
	stfs 1,100(31)
	b .L1107
.LVL1045:
.L1114:
.LBB4644:
.LBB4565:
.LBB4560:
.LBB4557:
	.loc 4 351 0
	mr 3,31
	li 5,0
	bl _ZN5idStr10ReAllocateEib
.LVL1046:
	b .L1084
.LVL1047:
.L1112:
	lwz 3,168(30)
.L1052:
.LVL1048:
.LBE4557:
.LBE4560:
.LBE4565:
.LBE4644:
.LBB4645:
.LBB4543:
.LBB4525:
.LBB4522:
	.loc 9 375 0
	add. 3,9,3
.LVL1049:
	ble- 0,.L1118
	.loc 9 380 0
	cmpw 7,9,3
	beq- 7,.L1109
.LVL1050:
	.loc 9 387 0
	cmpw 7,3,9
	.loc 9 386 0
	stw 3,164(30)
	.loc 9 387 0
	bge- 7,.L1061
	.loc 9 388 0
	stw 3,160(30)
.L1061:
	.loc 9 392 0
	slwi 3,3,2
.LVL1051:
	addi 28,1,8
	bl _Znaj
.LVL1052:
	.loc 9 393 0
	lwz 0,160(30)
	.loc 9 392 0
	stw 3,172(30)
.LVL1053:
	.loc 9 393 0
	cmpwi 7,0,0
	ble- 7,.L1062
	.loc 3 1170 0
	addi 11,27,-4
.LBE4522:
.LBE4525:
.LBB4526:
.LBB4527:
.LBB4528:
.LBB4529:
	.loc 9 393 0
	li 9,0
	b .L1063
.LVL1054:
.L1119:
.LBE4529:
.LBE4528:
.LBE4527:
.LBE4526:
.LBB4536:
.LBB4523:
	lwz 3,172(30)
.LVL1055:
.L1063:
	.loc 9 394 0
	lwzu 10,4(11)
	slwi 0,9,2
	.loc 9 393 0
	addi 9,9,1
.LVL1056:
	.loc 9 394 0
	stwx 10,3,0
	.loc 9 393 0
	lwz 0,0(26)
	cmpw 7,9,0
	blt+ 7,.L1119
.LVL1057:
.L1062:
	.loc 9 398 0
	cmpwi 7,27,0
	beq- 7,.L1120
	.loc 9 399 0
	mr 3,27
	bl _ZdaPv
	lwz 9,160(30)
	lwz 27,172(30)
.LVL1058:
	b .L1109
.LVL1059:
.L1049:
.LBE4523:
.LBE4536:
	.loc 9 634 0
	lwz 3,168(30)
.LBB4537:
.LBB4532:
	.loc 9 375 0
	cmpwi 7,3,0
.LBE4532:
.LBE4537:
	.loc 9 634 0
	mr 0,3
.LVL1060:
.LBB4538:
.LBB4533:
	.loc 9 375 0
	ble- 7,.L1121
	.loc 9 380 0
	lwz 9,164(30)
	cmpw 7,3,9
	beq- 7,.L1122
.LVL1061:
	.loc 9 387 0
	lwz 0,160(30)
	.loc 9 386 0
	stw 3,164(30)
	.loc 9 387 0
	cmpw 7,3,0
	blt- 7,.L1123
.L1054:
	.loc 9 392 0
	slwi 3,3,2
	addi 28,1,8
	bl _Znaj
.LVL1062:
	.loc 9 393 0
	lwz 9,160(30)
	.loc 9 392 0
	mr 27,3
	stw 3,172(30)
.LVL1063:
	.loc 9 393 0
	li 11,0
	cmpwi 7,9,0
	li 10,0
	bgt+ 7,.L1103
	lwz 0,164(30)
	b .L1050
.LVL1064:
.L1124:
	lwz 27,172(30)
.LVL1065:
.L1103:
	.loc 9 394 0
	lwz 0,0(11)
	.loc 9 393 0
	addi 10,10,1
.LVL1066:
	.loc 9 394 0
	stwx 0,27,11
	.loc 9 393 0
	addi 11,11,4
	lwz 9,0(26)
	cmpw 7,10,9
	blt+ 7,.L1124
	lwz 0,164(30)
	lwz 27,172(30)
	b .L1050
.LVL1067:
.L1123:
	.loc 9 388 0
	stw 3,160(30)
	b .L1054
.LVL1068:
.L1118:
.LBE4533:
.LBE4538:
.LBB4539:
.LBB4524:
.LBB4520:
.LBB4521:
	.loc 9 193 0
	cmpwi 7,27,0
	beq- 7,.L1059
	.loc 9 194 0
	mr 3,27
.LVL1069:
	bl _ZdaPv
.L1059:
	.loc 9 197 0
	li 0,0
	.loc 9 199 0
	li 9,1
	.loc 9 197 0
	stw 0,172(30)
	.loc 9 199 0
	li 27,0
	stw 0,164(30)
	b .L1057
.LVL1070:
.L1120:
.LBE4521:
.LBE4520:
	.loc 9 398 0
	lwz 9,160(30)
	lwz 27,172(30)
.LVL1071:
	slwi 0,9,2
	addi 9,9,1
	add 27,27,0
	b .L1057
.LVL1072:
.L1122:
.LBE4524:
.LBE4539:
.LBB4540:
.LBB4534:
	.loc 9 380 0
	lwz 9,160(30)
	b .L1050
.LVL1073:
.L1077:
.LBE4534:
.LBE4540:
.LBE4543:
.LBE4645:
.LBB4646:
.LBB4647:
	.loc 4 653 0
	lis 4,.LC137@ha
	lwz 3,12(1)
	la 4,.LC137@l(4)
	bl _ZN5idStr3CmpEPKcS1_
.LBE4647:
.LBE4646:
	.loc 3 1218 0
	cmpwi 7,3,0
	.loc 3 1226 0
	li 31,1
	.loc 3 1218 0
	beq+ 7,.L1067
	.loc 3 1221 0
	lis 4,.LC151@ha
	lwz 5,12(1)
	mr 3,29
	la 4,.LC151@l(4)
	crxor 6,6,6
	bl _ZN7idLexer5ErrorEPKcz
.LEHE125:
	b .L1108
.LVL1074:
.L1121:
.LBB4648:
.LBB4544:
.LBB4541:
.LBB4535:
.LBB4531:
.LBB4530:
	.loc 9 198 0
	stw 27,160(30)
	.loc 9 199 0
	li 9,0
	stw 27,164(30)
	b .L1052
.LVL1075:
.L1098:
	mr 29,3
.LVL1076:
.LBE4530:
.LBE4531:
.LBE4535:
.LBE4541:
.LBE4544:
.LBE4648:
.LBB4649:
.LBB4513:
	.loc 8 112 0
	li 0,1
.L1034:
	mulli 0,0,84
	add 30,31,0
.LVL1077:
	addi 30,30,296
	cmpw 7,28,30
	beq- 7,.L1037
.L1100:
	addi 30,30,-84
	mr 3,30
	bl _ZN10idAFVectorD1Ev
	cmpw 7,28,30
	bne+ 7,.L1100
.L1037:
	mr 30,29
.L1039:
	mr 3,27
	bl _ZN10idAFVectorD1Ev
	b .L1043
.LVL1078:
.L1097:
	mr 29,3
.LVL1079:
	li 0,0
	b .L1034
.LVL1080:
.L1094:
	mr 30,3
.LVL1081:
.L1043:
	mr 3,24
	bl _ZN10idAFVectorD1Ev
.L1044:
.LVL1082:
.LBB4503:
.LBB4504:
.LBB4505:
	.loc 4 501 0
	addi 3,31,64
	addi 28,1,8
	bl _ZN5idStr8FreeDataEv
.LVL1083:
.LBE4505:
.LBE4504:
.LBE4503:
.LBB4506:
.LBB4507:
.LBB4508:
	addi 3,31,32
	bl _ZN5idStr8FreeDataEv
.LVL1084:
.LBE4508:
.LBE4507:
.LBE4506:
.LBB4509:
.LBB4510:
.LBB4511:
	mr 3,31
	bl _ZN5idStr8FreeDataEv
.LBE4511:
.LBE4510:
.LBE4509:
.LBE4513:
.LBE4649:
	.loc 3 1172 0
	mr 3,31
	bl _ZdlPv
	mr 31,30
.LVL1085:
.L1048:
.LBB4650:
.LBB4651:
.LBB4652:
.LBB4653:
.LBB4654:
	.loc 4 501 0
	mr 3,28
	bl _ZN5idStr8FreeDataEv
	mr 3,31
.LEHB126:
	bl _Unwind_Resume
.LEHE126:
.LVL1086:
.L1093:
	mr 30,3
.LVL1087:
	b .L1044
.LVL1088:
.L1096:
	mr 30,3
.LVL1089:
.LBE4654:
.LBE4653:
.LBE4652:
.LBE4651:
.LBE4650:
.LBB4655:
.LBB4514:
	.loc 8 112 0
	mr 3,23
	bl _ZN10idAFVectorD1Ev
.L1042:
	addi 23,23,-84
	mr 3,23
	bl _ZN10idAFVectorD1Ev
	cmpw 7,28,23
	bne+ 7,.L1042
	b .L1039
.LVL1090:
.L1095:
	mr 30,3
.LVL1091:
	b .L1042
.LVL1092:
.L1092:
	mr 31,3
	b .L1048
.LBE4514:
.LBE4655:
.LBE4658:
	.cfi_endproc
.LFE2577:
	.section	.gcc_except_table
.LLSDA2577:
	.byte	0xff
	.byte	0xff
	.byte	0x1
	.uleb128 .LLSDACSE2577-.LLSDACSB2577
.LLSDACSB2577:
	.uleb128 .LEHB116-.LFB2577
	.uleb128 .LEHE116-.LEHB116
	.uleb128 .L1092-.LFB2577
	.uleb128 0
	.uleb128 .LEHB117-.LFB2577
	.uleb128 .LEHE117-.LEHB117
	.uleb128 .L1093-.LFB2577
	.uleb128 0
	.uleb128 .LEHB118-.LFB2577
	.uleb128 .LEHE118-.LEHB118
	.uleb128 .L1094-.LFB2577
	.uleb128 0
	.uleb128 .LEHB119-.LFB2577
	.uleb128 .LEHE119-.LEHB119
	.uleb128 .L1097-.LFB2577
	.uleb128 0
	.uleb128 .LEHB120-.LFB2577
	.uleb128 .LEHE120-.LEHB120
	.uleb128 .L1098-.LFB2577
	.uleb128 0
	.uleb128 .LEHB121-.LFB2577
	.uleb128 .LEHE121-.LEHB121
	.uleb128 .L1095-.LFB2577
	.uleb128 0
	.uleb128 .LEHB122-.LFB2577
	.uleb128 .LEHE122-.LEHB122
	.uleb128 .L1096-.LFB2577
	.uleb128 0
	.uleb128 .LEHB123-.LFB2577
	.uleb128 .LEHE123-.LEHB123
	.uleb128 .L1092-.LFB2577
	.uleb128 0
	.uleb128 .LEHB124-.LFB2577
	.uleb128 .LEHE124-.LEHB124
	.uleb128 0
	.uleb128 0
	.uleb128 .LEHB125-.LFB2577
	.uleb128 .LEHE125-.LEHB125
	.uleb128 .L1092-.LFB2577
	.uleb128 0
	.uleb128 .LEHB126-.LFB2577
	.uleb128 .LEHE126-.LEHB126
	.uleb128 0
	.uleb128 0
.LLSDACSE2577:
	.section	".text"
	.size	_ZN8idDeclAF10ParseHingeER7idLexer, .-_ZN8idDeclAF10ParseHingeER7idLexer
	.align 2
	.globl _ZN8idDeclAF11ParseSliderER7idLexer
	.type	_ZN8idDeclAF11ParseSliderER7idLexer, @function
_ZN8idDeclAF11ParseSliderER7idLexer:
.LFB2578:
	.loc 3 1234 0
	.cfi_startproc
	.cfi_personality 0,__gxx_personality_v0
	.cfi_lsda 0,.LLSDA2578
.LVL1093:
	mflr 0
	stwu 1,-136(1)
.LCFI119:
	.cfi_def_cfa_offset 136
	.cfi_register 65, 0
.LVL1094:
.LBB4732:
.LBB4733:
.LBB4734:
.LBB4735:
.LBB4736:
	.loc 4 357 0
	li 9,20
.LBE4736:
.LBE4735:
.LBE4734:
.LBE4733:
.LBE4732:
	.loc 3 1234 0
	stw 30,128(1)
	mr 30,3
	.cfi_offset 30, -8
	stw 0,140(1)
.LBB4895:
	.loc 3 1236 0
	li 3,648
.LVL1095:
.LBB4743:
.LBB4741:
.LBB4739:
.LBB4737:
	.loc 4 356 0
	li 0,0
	.cfi_offset 65, 4
	.loc 4 357 0
	stw 9,16(1)
	.loc 4 358 0
	addi 9,1,20
.LBE4737:
.LBE4739:
.LBE4741:
.LBE4743:
.LBE4895:
	.loc 3 1234 0
	stw 28,120(1)
	stw 29,124(1)
	addi 28,1,8
	.cfi_offset 29, -12
	.cfi_offset 28, -16
	stw 20,88(1)
	mr 29,4
	stw 21,92(1)
	stw 22,96(1)
	stw 23,100(1)
	stw 24,104(1)
	stw 25,108(1)
	stw 26,112(1)
	stw 27,116(1)
	stw 31,132(1)
.LBB4896:
.LBB4744:
.LBB4742:
.LBB4740:
.LBB4738:
	.loc 4 356 0
	stw 0,8(1)
	.loc 4 358 0
	stw 9,12(1)
	.loc 4 359 0
	stb 0,20(1)
.LEHB127:
.LBE4738:
.LBE4740:
.LBE4742:
.LBE4744:
	.loc 3 1236 0
	.cfi_offset 31, -4
	.cfi_offset 27, -20
	.cfi_offset 26, -24
	.cfi_offset 25, -28
	.cfi_offset 24, -32
	.cfi_offset 23, -36
	.cfi_offset 22, -40
	.cfi_offset 21, -44
	.cfi_offset 20, -48
	bl _Znwj
.LEHE127:
.LVL1096:
.LBB4745:
.LBB4746:
.LBB4747:
.LBB4748:
.LBB4749:
	.loc 4 356 0
	li 0,0
	.loc 4 357 0
	li 9,20
	.loc 4 358 0
	addi 8,3,12
.LBE4749:
.LBE4748:
.LBE4747:
.LBB4754:
.LBB4755:
.LBB4756:
	addi 10,3,44
.LBE4756:
.LBE4755:
.LBE4754:
.LBB4759:
.LBB4760:
.LBB4761:
	addi 11,3,76
.LBE4761:
.LBE4760:
.LBE4759:
	.loc 8 112 0
	addi 27,3,128
.LBB4764:
.LBB4752:
.LBB4750:
	.loc 4 356 0
	stw 0,0(3)
.LBE4750:
.LBE4752:
.LBE4764:
.LBE4746:
.LBE4745:
	.loc 3 1236 0
	mr 31,3
.LVL1097:
.LBB4780:
.LBB4777:
.LBB4765:
.LBB4753:
.LBB4751:
	.loc 4 357 0
	stw 9,8(3)
	.loc 4 358 0
	stw 8,4(3)
	.loc 4 359 0
	stb 0,12(3)
.LVL1098:
.LBE4751:
.LBE4753:
.LBE4765:
.LBB4766:
.LBB4758:
.LBB4757:
	.loc 4 356 0
	stw 0,32(3)
	.loc 4 357 0
	stw 9,40(3)
	.loc 4 358 0
	stw 10,36(3)
	.loc 4 359 0
	stb 0,44(3)
.LVL1099:
.LBE4757:
.LBE4758:
.LBE4766:
.LBB4767:
.LBB4763:
.LBB4762:
	.loc 4 356 0
	stw 0,64(3)
	.loc 4 357 0
	stw 9,72(3)
	.loc 4 358 0
	stw 11,68(3)
	.loc 4 359 0
	stb 0,76(3)
.LBE4762:
.LBE4763:
.LBE4767:
	.loc 8 112 0
	mr 3,27
.LVL1100:
.LEHB128:
	bl _ZN10idAFVectorC1Ev
.LEHE128:
	addi 26,31,212
	mr 3,26
.LEHB129:
	bl _ZN10idAFVectorC1Ev
.LEHE129:
	addi 28,31,296
	mr 3,28
.LEHB130:
	bl _ZN10idAFVectorC1Ev
.LEHE130:
	addi 3,31,380
.LEHB131:
	bl _ZN10idAFVectorC1Ev
.LEHE131:
	addi 23,31,464
	mr 3,23
.LEHB132:
	bl _ZN10idAFVectorC1Ev
.LEHE132:
	addi 3,31,552
.LEHB133:
	bl _ZN10idAFVectorC1Ev
.LEHE133:
.LVL1101:
.LBE4777:
.LBE4780:
	.loc 3 1238 0 discriminator 2
	mr 3,31
	mr 4,30
	addi 28,1,8
.LEHB134:
	bl _ZN19idDeclAF_Constraint10SetDefaultEPK8idDeclAF
.LBB4781:
.LBB4782:
	.loc 9 633 0
	lwz 27,172(30)
.LBE4782:
.LBE4781:
	.loc 3 1239 0
	addi 26,30,160
.LVL1102:
.LBB4810:
.LBB4807:
	.loc 9 633 0
	cmpwi 7,27,0
	beq- 7,.L1143
	lwz 9,160(30)
	lwz 0,164(30)
.L1144:
	.loc 9 637 0
	cmpw 7,9,0
	beq- 7,.L1199
.L1198:
.LBB4783:
.LBB4784:
	.loc 9 399 0
	slwi 0,9,2
	addi 9,9,1
	add 27,27,0
.L1151:
.LBE4784:
.LBE4783:
	.loc 9 641 0
	stw 9,160(30)
.LBE4807:
.LBE4810:
	.loc 3 1241 0
	addi 28,1,8
	.loc 3 1239 0
	stw 31,0(27)
	.loc 3 1241 0
	mr 3,29
	li 4,1
	li 5,0
	mr 6,28
	bl _ZN7idLexer15ExpectTokenTypeEiiP7idToken
.LEHE134:
	cmpwi 7,3,0
	bne- 7,.L1200
.LVL1103:
.L1197:
	.loc 3 1269 0
	li 31,0
.L1161:
.LVL1104:
.LBB4811:
.LBB4812:
.LBB4813:
.LBB4814:
.LBB4815:
	.loc 4 501 0
	mr 3,28
.LEHB135:
	bl _ZN5idStr8FreeDataEv
.LEHE135:
.LBE4815:
.LBE4814:
.LBE4813:
.LBE4812:
.LBE4811:
.LBE4896:
	.loc 3 1274 0
	lwz 0,140(1)
	mr 3,31
	lwz 20,88(1)
	mtlr 0
	lwz 21,92(1)
	lwz 22,96(1)
	lwz 23,100(1)
.LVL1105:
	lwz 24,104(1)
	lwz 25,108(1)
	lwz 26,112(1)
	lwz 27,116(1)
	lwz 28,120(1)
	lwz 29,124(1)
.LVL1106:
	lwz 30,128(1)
	lwz 31,132(1)
	addi 1,1,136
	.cfi_remember_state
.LCFI120:
	.cfi_def_cfa_offset 0
	.cfi_restore 31
	.cfi_restore 30
	.cfi_restore 29
	.cfi_restore 28
	.cfi_restore 27
	.cfi_restore 26
	.cfi_restore 25
	.cfi_restore 24
	.cfi_restore 23
	.cfi_restore 22
	.cfi_restore 21
	.cfi_restore 20
	blr
.LVL1107:
.L1200:
.LCFI121:
	.cfi_restore_state
.LBB4897:
	.loc 3 1242 0
	lis 4,.LC114@ha
	mr 3,29
	la 4,.LC114@l(4)
.LEHB136:
	bl _ZN7idLexer17ExpectTokenStringEPKc
	.loc 3 1241 0
	cmpwi 7,3,0
	beq- 7,.L1197
.LBB4816:
	.loc 3 1753 0
	lwz 30,8(1)
.LVL1108:
.LBB4817:
.LBB4818:
.LBB4819:
	.loc 4 350 0
	lwz 0,8(31)
.LBE4819:
.LBE4818:
	.loc 4 534 0
	addi 4,30,1
.LBB4823:
.LBB4820:
	.loc 4 350 0
	cmpw 7,4,0
.LBE4820:
.LBE4823:
.LBE4817:
.LBE4816:
	.loc 3 1246 0
	li 0,5
	stw 0,96(31)
	.loc 3 1247 0
	li 0,-1
	stw 0,548(31)
.LVL1109:
.LBB4831:
.LBB4826:
.LBB4824:
.LBB4821:
	.loc 4 350 0
	bgt- 7,.L1201
.LVL1110:
.L1176:
.LBE4821:
.LBE4824:
	.loc 4 535 0
	lwz 3,4(31)
	mr 5,30
	lwz 4,12(1)
.LBE4826:
.LBE4831:
.LBB4832:
.LBB4833:
	.loc 4 690 0
	lis 27,.LC141@ha
.LBE4833:
.LBE4832:
.LBB4836:
.LBB4837:
	lis 25,.LC142@ha
.LBE4837:
.LBE4836:
.LBB4840:
.LBB4841:
	lis 24,.LC149@ha
.LBE4841:
.LBE4840:
.LBB4844:
.LBB4827:
	.loc 4 535 0
	bl memcpy
	.loc 4 536 0
	lwz 9,4(31)
	li 0,0
.LBE4827:
.LBE4844:
.LBB4845:
.LBB4846:
	.loc 4 690 0
	lis 21,.LC130@ha
.LBE4846:
.LBE4845:
.LBB4849:
.LBB4828:
	.loc 4 536 0
	stbx 0,9,30
.LBE4828:
.LBE4849:
	.loc 3 1249 0
	lis 9,.LC12@ha
	lwz 0,.LC12@l(9)
.LBB4850:
.LBB4834:
	.loc 4 690 0
	la 27,.LC141@l(27)
.LBE4834:
.LBE4850:
.LBB4851:
.LBB4829:
	.loc 4 537 0
	stw 30,0(31)
.LBE4829:
.LBE4851:
.LBB4852:
.LBB4838:
	.loc 4 690 0
	la 25,.LC142@l(25)
.LBE4838:
.LBE4852:
	.loc 3 1249 0
	stw 0,100(31)
.LBB4853:
.LBB4842:
	.loc 4 690 0
	la 24,.LC149@l(24)
.LBE4842:
.LBE4853:
.LBB4854:
.LBB4847:
	la 21,.LC130@l(21)
.LBE4847:
.LBE4854:
.LBB4855:
.LBB4856:
	.loc 4 536 0
	li 26,0
.LVL1111:
.LBE4856:
.LBE4855:
	.loc 3 1258 0
	addi 20,31,64
	.loc 3 1255 0
	addi 22,31,32
.LVL1112:
.L1196:
	.loc 3 1251 0 discriminator 1
	mr 3,29
	mr 4,28
	bl _ZN7idLexer9ReadTokenEP7idToken
	cmpwi 7,3,0
	beq- 7,.L1202
.L1170:
.LVL1113:
.LBB4865:
.LBB4835:
	.loc 4 690 0
	lwz 3,12(1)
	mr 4,27
	bl _ZN5idStr4IcmpEPKcS1_
.LBE4835:
.LBE4865:
	.loc 3 1253 0
	cmpwi 7,3,0
	bne- 7,.L1163
	.loc 3 1254 0
	mr 3,29
	li 4,1
	li 5,0
	mr 6,28
	bl _ZN7idLexer15ExpectTokenTypeEiiP7idToken
.LVL1114:
.LBB4866:
	.loc 3 1753 0
	lwz 30,8(1)
.LBB4867:
.LBB4868:
.LBB4869:
	.loc 4 350 0
	lwz 0,40(31)
.LBE4869:
.LBE4868:
	.loc 4 534 0
	addi 4,30,1
.LVL1115:
.LBB4872:
.LBB4870:
	.loc 4 350 0
	cmpw 7,4,0
	bgt- 7,.L1203
.LVL1116:
.L1164:
.LBE4870:
.LBE4872:
	.loc 4 535 0
	lwz 4,12(1)
	mr 5,30
	lwz 3,36(31)
	bl memcpy
	.loc 4 536 0
	lwz 9,36(31)
.LBE4867:
.LBE4866:
	.loc 3 1251 0
	mr 3,29
	mr 4,28
.LBB4876:
.LBB4874:
	.loc 4 536 0
	stbx 26,9,30
	.loc 4 537 0
	stw 30,32(31)
.LBE4874:
.LBE4876:
	.loc 3 1251 0
	bl _ZN7idLexer9ReadTokenEP7idToken
	cmpwi 7,3,0
	bne+ 7,.L1170
.LVL1117:
.L1202:
	.loc 3 1273 0
	li 31,1
.LVL1118:
	b .L1161
.LVL1119:
.L1163:
.LBB4877:
.LBB4839:
	.loc 4 690 0
	lwz 3,12(1)
	mr 4,25
	bl _ZN5idStr4IcmpEPKcS1_
.LBE4839:
.LBE4877:
	.loc 3 1256 0
	cmpwi 7,3,0
	bne- 7,.L1166
	.loc 3 1257 0
	mr 3,29
	li 4,1
	li 5,0
	mr 6,28
	bl _ZN7idLexer15ExpectTokenTypeEiiP7idToken
.LVL1120:
.LBB4878:
	.loc 3 1753 0
	lwz 30,8(1)
.LBB4863:
.LBB4857:
.LBB4858:
	.loc 4 350 0
	lwz 0,72(31)
.LBE4858:
.LBE4857:
	.loc 4 534 0
	addi 4,30,1
.LVL1121:
.LBB4861:
.LBB4859:
	.loc 4 350 0
	cmpw 7,4,0
	bgt- 7,.L1204
.LVL1122:
.L1167:
.LBE4859:
.LBE4861:
	.loc 4 535 0
	lwz 3,68(31)
	mr 5,30
	lwz 4,12(1)
	bl memcpy
	.loc 4 536 0
	lwz 9,68(31)
	stbx 26,9,30
	.loc 4 537 0
	stw 30,64(31)
	b .L1196
.LVL1123:
.L1166:
.LBE4863:
.LBE4878:
.LBB4879:
.LBB4843:
	.loc 4 690 0
	lwz 3,12(1)
	mr 4,24
	bl _ZN5idStr4IcmpEPKcS1_
.LBE4843:
.LBE4879:
	.loc 3 1259 0
	cmpwi 7,3,0
	bne- 7,.L1168
	.loc 3 1260 0
	mr 3,23
	mr 4,29
	bl _ZN10idAFVector5ParseER7idLexer
	cmpwi 7,3,0
	bne+ 7,.L1196
	b .L1197
.LVL1124:
.L1203:
.LBB4880:
.LBB4875:
.LBB4873:
.LBB4871:
	.loc 4 351 0
	mr 3,22
	li 5,0
	bl _ZN5idStr10ReAllocateEib
.LVL1125:
	b .L1164
.LVL1126:
.L1168:
.LBE4871:
.LBE4873:
.LBE4875:
.LBE4880:
.LBB4881:
.LBB4848:
	.loc 4 690 0
	lwz 3,12(1)
	mr 4,21
	bl _ZN5idStr4IcmpEPKcS1_
.LBE4848:
.LBE4881:
	.loc 3 1263 0
	cmpwi 7,3,0
	bne- 7,.L1169
	.loc 3 1264 0
	mr 3,29
	li 4,0
	bl _ZN7idLexer10ParseFloatEPb
	stfs 1,100(31)
	b .L1196
.LVL1127:
.L1204:
.LBB4882:
.LBB4864:
.LBB4862:
.LBB4860:
	.loc 4 351 0
	mr 3,20
	li 5,0
	bl _ZN5idStr10ReAllocateEib
.LVL1128:
	b .L1167
.LVL1129:
.L1201:
.LBE4860:
.LBE4862:
.LBE4864:
.LBE4882:
.LBB4883:
.LBB4830:
.LBB4825:
.LBB4822:
	mr 3,31
	li 5,0
	bl _ZN5idStr10ReAllocateEib
.LVL1130:
	b .L1176
.LVL1131:
.L1199:
	lwz 3,168(30)
.L1146:
.LVL1132:
.LBE4822:
.LBE4825:
.LBE4830:
.LBE4883:
.LBB4884:
.LBB4808:
.LBB4790:
.LBB4787:
	.loc 9 375 0
	add. 3,9,3
.LVL1133:
	ble- 0,.L1205
	.loc 9 380 0
	cmpw 7,3,9
	beq- 7,.L1198
.LVL1134:
	.loc 9 386 0
	stw 3,164(30)
	.loc 9 387 0
	bge- 7,.L1155
	.loc 9 388 0
	stw 3,160(30)
.L1155:
	.loc 9 392 0
	slwi 3,3,2
.LVL1135:
	addi 28,1,8
	bl _Znaj
.LVL1136:
	.loc 9 393 0
	lwz 0,160(30)
	.loc 9 392 0
	stw 3,172(30)
.LVL1137:
	.loc 9 393 0
	cmpwi 7,0,0
	ble- 7,.L1156
	.loc 3 1234 0
	addi 11,27,-4
.LBE4787:
.LBE4790:
.LBB4791:
.LBB4792:
.LBB4793:
.LBB4794:
	.loc 9 393 0
	li 9,0
	b .L1157
.LVL1138:
.L1206:
.LBE4794:
.LBE4793:
.LBE4792:
.LBE4791:
.LBB4801:
.LBB4788:
	lwz 3,172(30)
.LVL1139:
.L1157:
	.loc 9 394 0
	lwzu 10,4(11)
	slwi 0,9,2
	.loc 9 393 0
	addi 9,9,1
.LVL1140:
	.loc 9 394 0
	stwx 10,3,0
	.loc 9 393 0
	lwz 0,0(26)
	cmpw 7,9,0
	blt+ 7,.L1206
.LVL1141:
.L1156:
	.loc 9 398 0
	cmpwi 7,27,0
	beq- 7,.L1207
	.loc 9 399 0
	mr 3,27
	bl _ZdaPv
	lwz 9,160(30)
	lwz 27,172(30)
.LVL1142:
	b .L1198
.LVL1143:
.L1143:
.LBE4788:
.LBE4801:
	.loc 9 634 0
	lwz 3,168(30)
.LBB4802:
.LBB4797:
	.loc 9 375 0
	cmpwi 7,3,0
.LBE4797:
.LBE4802:
	.loc 9 634 0
	mr 0,3
.LVL1144:
.LBB4803:
.LBB4798:
	.loc 9 375 0
	ble- 7,.L1208
	.loc 9 380 0
	lwz 9,164(30)
	cmpw 7,3,9
	beq- 7,.L1209
.LVL1145:
	.loc 9 387 0
	lwz 0,160(30)
	.loc 9 386 0
	stw 3,164(30)
	.loc 9 387 0
	cmpw 7,3,0
	blt- 7,.L1210
.L1148:
	.loc 9 392 0
	slwi 3,3,2
	addi 28,1,8
	bl _Znaj
.LVL1146:
	.loc 9 393 0
	lwz 9,160(30)
	.loc 9 392 0
	mr 27,3
	stw 3,172(30)
.LVL1147:
	.loc 9 393 0
	li 11,0
	cmpwi 7,9,0
	li 10,0
	bgt+ 7,.L1192
	lwz 0,164(30)
	b .L1144
.LVL1148:
.L1211:
	lwz 27,172(30)
.LVL1149:
.L1192:
	.loc 9 394 0
	lwz 0,0(11)
	.loc 9 393 0
	addi 10,10,1
.LVL1150:
	.loc 9 394 0
	stwx 0,27,11
	.loc 9 393 0
	addi 11,11,4
	lwz 9,0(26)
	cmpw 7,10,9
	blt+ 7,.L1211
	lwz 0,164(30)
	lwz 27,172(30)
	b .L1144
.LVL1151:
.L1169:
.LBE4798:
.LBE4803:
.LBE4808:
.LBE4884:
.LBB4885:
.LBB4886:
	.loc 4 653 0
	lis 4,.LC137@ha
	lwz 3,12(1)
	la 4,.LC137@l(4)
	bl _ZN5idStr3CmpEPKcS1_
.LBE4886:
.LBE4885:
	.loc 3 1265 0
	cmpwi 7,3,0
	.loc 3 1273 0
	li 31,1
	.loc 3 1265 0
	beq+ 7,.L1161
	.loc 3 1268 0
	lis 4,.LC152@ha
	lwz 5,12(1)
	mr 3,29
	la 4,.LC152@l(4)
	crxor 6,6,6
	bl _ZN7idLexer5ErrorEPKcz
.LEHE136:
	b .L1197
.LVL1152:
.L1210:
.LBB4887:
.LBB4809:
.LBB4804:
.LBB4799:
	.loc 9 388 0
	stw 3,160(30)
	b .L1148
.LVL1153:
.L1205:
.LBE4799:
.LBE4804:
.LBB4805:
.LBB4789:
.LBB4785:
.LBB4786:
	.loc 9 193 0
	cmpwi 7,27,0
	beq- 7,.L1153
	.loc 9 194 0
	mr 3,27
.LVL1154:
	bl _ZdaPv
.L1153:
	.loc 9 197 0
	li 0,0
	.loc 9 199 0
	li 9,1
	.loc 9 197 0
	stw 0,172(30)
	.loc 9 199 0
	li 27,0
	stw 0,164(30)
	b .L1151
.LVL1155:
.L1207:
.LBE4786:
.LBE4785:
	.loc 9 398 0
	lwz 9,160(30)
	lwz 27,172(30)
.LVL1156:
	slwi 0,9,2
	addi 9,9,1
	add 27,27,0
	b .L1151
.LVL1157:
.L1209:
.LBE4789:
.LBE4805:
.LBB4806:
.LBB4800:
	.loc 9 380 0
	lwz 9,160(30)
	b .L1144
.L1208:
.LVL1158:
.LBB4796:
.LBB4795:
	.loc 9 198 0
	stw 27,160(30)
	.loc 9 199 0
	li 9,0
	stw 27,164(30)
	b .L1146
.LVL1159:
.L1181:
	mr 31,3
.LVL1160:
.L1142:
.LBE4795:
.LBE4796:
.LBE4800:
.LBE4806:
.LBE4809:
.LBE4887:
.LBB4888:
.LBB4889:
.LBB4890:
.LBB4891:
.LBB4892:
	.loc 4 501 0
	mr 3,28
	bl _ZN5idStr8FreeDataEv
	mr 3,31
.LEHB137:
	bl _Unwind_Resume
.LEHE137:
.LVL1161:
.L1185:
	mr 30,3
.LVL1162:
.LBE4892:
.LBE4891:
.LBE4890:
.LBE4889:
.LBE4888:
.LBB4893:
.LBB4778:
	.loc 8 112 0
	mr 3,23
	bl _ZN10idAFVectorD1Ev
.L1136:
	addi 23,23,-84
	mr 3,23
	bl _ZN10idAFVectorD1Ev
	cmpw 7,28,23
	bne+ 7,.L1136
.LVL1163:
.L1133:
	mr 3,26
	bl _ZN10idAFVectorD1Ev
.L1137:
	mr 3,27
	bl _ZN10idAFVectorD1Ev
.L1138:
.LVL1164:
.LBB4768:
.LBB4769:
.LBB4770:
	.loc 4 501 0
	addi 3,31,64
	addi 28,1,8
	bl _ZN5idStr8FreeDataEv
.LVL1165:
.LBE4770:
.LBE4769:
.LBE4768:
.LBB4771:
.LBB4772:
.LBB4773:
	addi 3,31,32
	bl _ZN5idStr8FreeDataEv
.LVL1166:
.LBE4773:
.LBE4772:
.LBE4771:
.LBB4774:
.LBB4775:
.LBB4776:
	mr 3,31
	bl _ZN5idStr8FreeDataEv
.LBE4776:
.LBE4775:
.LBE4774:
.LBE4778:
.LBE4893:
	.loc 3 1236 0
	mr 3,31
	bl _ZdlPv
	mr 31,30
.LVL1167:
	b .L1142
.LVL1168:
.L1184:
	mr 30,3
.LVL1169:
	b .L1136
.LVL1170:
.L1187:
	mr 29,3
.LVL1171:
.LBB4894:
.LBB4779:
	.loc 8 112 0
	li 0,1
.L1128:
	mulli 0,0,84
	add 30,31,0
.LVL1172:
	addi 30,30,296
	cmpw 7,28,30
	beq- 7,.L1131
.L1189:
	addi 30,30,-84
	mr 3,30
	bl _ZN10idAFVectorD1Ev
	cmpw 7,28,30
	bne+ 7,.L1189
.L1131:
	mr 30,29
	b .L1133
.LVL1173:
.L1186:
	mr 29,3
.LVL1174:
	li 0,0
	b .L1128
.LVL1175:
.L1183:
	mr 30,3
.LVL1176:
	b .L1137
.LVL1177:
.L1182:
	mr 30,3
.LVL1178:
	b .L1138
.LBE4779:
.LBE4894:
.LBE4897:
	.cfi_endproc
.LFE2578:
	.section	.gcc_except_table
.LLSDA2578:
	.byte	0xff
	.byte	0xff
	.byte	0x1
	.uleb128 .LLSDACSE2578-.LLSDACSB2578
.LLSDACSB2578:
	.uleb128 .LEHB127-.LFB2578
	.uleb128 .LEHE127-.LEHB127
	.uleb128 .L1181-.LFB2578
	.uleb128 0
	.uleb128 .LEHB128-.LFB2578
	.uleb128 .LEHE128-.LEHB128
	.uleb128 .L1182-.LFB2578
	.uleb128 0
	.uleb128 .LEHB129-.LFB2578
	.uleb128 .LEHE129-.LEHB129
	.uleb128 .L1183-.LFB2578
	.uleb128 0
	.uleb128 .LEHB130-.LFB2578
	.uleb128 .LEHE130-.LEHB130
	.uleb128 .L1186-.LFB2578
	.uleb128 0
	.uleb128 .LEHB131-.LFB2578
	.uleb128 .LEHE131-.LEHB131
	.uleb128 .L1187-.LFB2578
	.uleb128 0
	.uleb128 .LEHB132-.LFB2578
	.uleb128 .LEHE132-.LEHB132
	.uleb128 .L1184-.LFB2578
	.uleb128 0
	.uleb128 .LEHB133-.LFB2578
	.uleb128 .LEHE133-.LEHB133
	.uleb128 .L1185-.LFB2578
	.uleb128 0
	.uleb128 .LEHB134-.LFB2578
	.uleb128 .LEHE134-.LEHB134
	.uleb128 .L1181-.LFB2578
	.uleb128 0
	.uleb128 .LEHB135-.LFB2578
	.uleb128 .LEHE135-.LEHB135
	.uleb128 0
	.uleb128 0
	.uleb128 .LEHB136-.LFB2578
	.uleb128 .LEHE136-.LEHB136
	.uleb128 .L1181-.LFB2578
	.uleb128 0
	.uleb128 .LEHB137-.LFB2578
	.uleb128 .LEHE137-.LEHB137
	.uleb128 0
	.uleb128 0
.LLSDACSE2578:
	.section	".text"
	.size	_ZN8idDeclAF11ParseSliderER7idLexer, .-_ZN8idDeclAF11ParseSliderER7idLexer
	.align 2
	.globl _ZN8idDeclAF11ParseSpringER7idLexer
	.type	_ZN8idDeclAF11ParseSpringER7idLexer, @function
_ZN8idDeclAF11ParseSpringER7idLexer:
.LFB2579:
	.loc 3 1281 0
	.cfi_startproc
	.cfi_personality 0,__gxx_personality_v0
	.cfi_lsda 0,.LLSDA2579
.LVL1179:
	mflr 0
	stwu 1,-144(1)
.LCFI122:
	.cfi_def_cfa_offset 144
	.cfi_register 65, 0
.LVL1180:
.LBB4985:
.LBB4986:
.LBB4987:
.LBB4988:
.LBB4989:
	.loc 4 357 0
	li 9,20
.LBE4989:
.LBE4988:
.LBE4987:
.LBE4986:
.LBE4985:
	.loc 3 1281 0
	stw 30,136(1)
	mr 30,3
	.cfi_offset 30, -8
	stw 0,148(1)
.LBB5178:
	.loc 3 1283 0
	li 3,648
.LVL1181:
.LBB4996:
.LBB4994:
.LBB4992:
.LBB4990:
	.loc 4 356 0
	li 0,0
	.cfi_offset 65, 4
	.loc 4 357 0
	stw 9,16(1)
	.loc 4 358 0
	addi 9,1,20
.LBE4990:
.LBE4992:
.LBE4994:
.LBE4996:
.LBE5178:
	.loc 3 1281 0
	stw 28,128(1)
	stw 29,132(1)
	addi 28,1,8
	.cfi_offset 29, -12
	.cfi_offset 28, -16
	stw 19,92(1)
	mr 29,4
	stw 20,96(1)
	stw 21,100(1)
	stw 22,104(1)
	stw 23,108(1)
	stw 24,112(1)
	stw 25,116(1)
	stw 26,120(1)
	stw 27,124(1)
	stw 31,140(1)
.LBB5179:
.LBB4997:
.LBB4995:
.LBB4993:
.LBB4991:
	.loc 4 356 0
	stw 0,8(1)
	.loc 4 358 0
	stw 9,12(1)
	.loc 4 359 0
	stb 0,20(1)
.LEHB138:
.LBE4991:
.LBE4993:
.LBE4995:
.LBE4997:
	.loc 3 1283 0
	.cfi_offset 31, -4
	.cfi_offset 27, -20
	.cfi_offset 26, -24
	.cfi_offset 25, -28
	.cfi_offset 24, -32
	.cfi_offset 23, -36
	.cfi_offset 22, -40
	.cfi_offset 21, -44
	.cfi_offset 20, -48
	.cfi_offset 19, -52
	bl _Znwj
.LEHE138:
.LVL1182:
.LBB4998:
.LBB4999:
.LBB5000:
.LBB5001:
.LBB5002:
	.loc 4 356 0
	li 0,0
	.loc 4 357 0
	li 9,20
	.loc 4 358 0
	addi 8,3,12
.LBE5002:
.LBE5001:
.LBE5000:
.LBB5007:
.LBB5008:
.LBB5009:
	addi 10,3,44
.LBE5009:
.LBE5008:
.LBE5007:
.LBB5012:
.LBB5013:
.LBB5014:
	addi 11,3,76
.LBE5014:
.LBE5013:
.LBE5012:
	.loc 8 112 0
	addi 24,3,128
.LBB5017:
.LBB5005:
.LBB5003:
	.loc 4 356 0
	stw 0,0(3)
.LBE5003:
.LBE5005:
.LBE5017:
.LBE4999:
.LBE4998:
	.loc 3 1283 0
	mr 31,3
.LVL1183:
.LBB5033:
.LBB5030:
.LBB5018:
.LBB5006:
.LBB5004:
	.loc 4 357 0
	stw 9,8(3)
	.loc 4 358 0
	stw 8,4(3)
	.loc 4 359 0
	stb 0,12(3)
.LVL1184:
.LBE5004:
.LBE5006:
.LBE5018:
.LBB5019:
.LBB5011:
.LBB5010:
	.loc 4 356 0
	stw 0,32(3)
	.loc 4 357 0
	stw 9,40(3)
	.loc 4 358 0
	stw 10,36(3)
	.loc 4 359 0
	stb 0,44(3)
.LVL1185:
.LBE5010:
.LBE5011:
.LBE5019:
.LBB5020:
.LBB5016:
.LBB5015:
	.loc 4 356 0
	stw 0,64(3)
	.loc 4 357 0
	stw 9,72(3)
	.loc 4 358 0
	stw 11,68(3)
	.loc 4 359 0
	stb 0,76(3)
.LBE5015:
.LBE5016:
.LBE5020:
	.loc 8 112 0
	mr 3,24
.LVL1186:
.LEHB139:
	bl _ZN10idAFVectorC1Ev
.LEHE139:
	addi 22,31,212
	mr 3,22
.LEHB140:
	bl _ZN10idAFVectorC1Ev
.LEHE140:
	addi 28,31,296
	mr 3,28
.LEHB141:
	bl _ZN10idAFVectorC1Ev
.LEHE141:
	addi 3,31,380
.LEHB142:
	bl _ZN10idAFVectorC1Ev
.LEHE142:
	addi 27,31,464
	mr 3,27
.LEHB143:
	bl _ZN10idAFVectorC1Ev
.LEHE143:
	addi 3,31,552
.LEHB144:
	bl _ZN10idAFVectorC1Ev
.LEHE144:
.LVL1187:
.LBE5030:
.LBE5033:
	.loc 3 1285 0 discriminator 2
	mr 3,31
	mr 4,30
	addi 28,1,8
.LEHB145:
	bl _ZN19idDeclAF_Constraint10SetDefaultEPK8idDeclAF
.LBB5034:
.LBB5035:
	.loc 9 633 0
	lwz 27,172(30)
.LBE5035:
.LBE5034:
	.loc 3 1286 0
	addi 26,30,160
.LVL1188:
.LBB5067:
.LBB5062:
	.loc 9 633 0
	cmpwi 7,27,0
	beq- 7,.L1230
	lwz 9,160(30)
	lwz 11,164(30)
.L1231:
	.loc 9 637 0
	cmpw 7,11,9
	beq- 7,.L1296
.L1293:
.LBB5036:
.LBB5037:
	.loc 9 399 0
	slwi 0,9,2
	addi 9,9,1
	add 27,27,0
.L1238:
.LBE5037:
.LBE5036:
	.loc 9 641 0
	stw 9,160(30)
.LBE5062:
.LBE5067:
	.loc 3 1288 0
	addi 28,1,8
	.loc 3 1286 0
	stw 31,0(27)
	.loc 3 1288 0
	mr 3,29
	li 4,1
	li 5,0
	mr 6,28
	bl _ZN7idLexer15ExpectTokenTypeEiiP7idToken
.LEHE145:
	cmpwi 7,3,0
	bne- 7,.L1297
.LVL1189:
.L1292:
	.loc 3 1332 0
	li 31,0
.L1248:
.LVL1190:
.LBB5068:
.LBB5069:
.LBB5070:
.LBB5071:
.LBB5072:
	.loc 4 501 0
	mr 3,28
.LEHB146:
	bl _ZN5idStr8FreeDataEv
.LEHE146:
.LBE5072:
.LBE5071:
.LBE5070:
.LBE5069:
.LBE5068:
.LBE5179:
	.loc 3 1337 0
	lwz 0,148(1)
	mr 3,31
	lwz 19,92(1)
	mtlr 0
	lwz 20,96(1)
	lwz 21,100(1)
	lwz 22,104(1)
	lwz 23,108(1)
	lwz 24,112(1)
.LVL1191:
	lwz 25,116(1)
	lwz 26,120(1)
	lwz 27,124(1)
	lwz 28,128(1)
	lwz 29,132(1)
.LVL1192:
	lwz 30,136(1)
	lwz 31,140(1)
	addi 1,1,144
	.cfi_remember_state
.LCFI123:
	.cfi_def_cfa_offset 0
	.cfi_restore 31
	.cfi_restore 30
	.cfi_restore 29
	.cfi_restore 28
	.cfi_restore 27
	.cfi_restore 26
	.cfi_restore 25
	.cfi_restore 24
	.cfi_restore 23
	.cfi_restore 22
	.cfi_restore 21
	.cfi_restore 20
	.cfi_restore 19
	blr
.LVL1193:
.L1297:
.LCFI124:
	.cfi_restore_state
.LBB5180:
	.loc 3 1289 0
	lis 4,.LC114@ha
	mr 3,29
	la 4,.LC114@l(4)
.LEHB147:
	bl _ZN7idLexer17ExpectTokenStringEPKc
	.loc 3 1288 0
	cmpwi 7,3,0
	beq- 7,.L1292
.LBB5073:
	.loc 3 1753 0
	lwz 30,8(1)
.LVL1194:
.LBB5074:
.LBB5075:
.LBB5076:
	.loc 4 350 0
	lwz 0,8(31)
.LBE5076:
.LBE5075:
	.loc 4 534 0
	addi 4,30,1
.LBB5080:
.LBB5077:
	.loc 4 350 0
	cmpw 7,4,0
.LBE5077:
.LBE5080:
.LBE5074:
.LBE5073:
	.loc 3 1293 0
	li 0,6
	stw 0,96(31)
	.loc 3 1294 0
	li 0,-1
	stw 0,548(31)
.LVL1195:
.LBB5088:
.LBB5083:
.LBB5081:
.LBB5078:
	.loc 4 350 0
	bgt- 7,.L1298
.LVL1196:
.L1270:
.LBE5078:
.LBE5081:
	.loc 4 535 0
	lwz 3,4(31)
	mr 5,30
	lwz 4,12(1)
.LBE5083:
.LBE5088:
.LBB5089:
.LBB5090:
	.loc 4 690 0
	lis 27,.LC141@ha
.LBE5090:
.LBE5089:
.LBB5093:
.LBB5094:
	lis 26,.LC142@ha
.LVL1197:
.LBE5094:
.LBE5093:
.LBB5097:
.LBB5098:
	lis 25,.LC153@ha
.LBE5098:
.LBE5097:
.LBB5101:
.LBB5084:
	.loc 4 535 0
	bl memcpy
	.loc 4 536 0
	lwz 9,4(31)
	li 0,0
.LBE5084:
.LBE5101:
.LBB5102:
.LBB5103:
	.loc 4 690 0
	lis 23,.LC154@ha
.LBE5103:
.LBE5102:
.LBB5106:
.LBB5085:
	.loc 4 536 0
	stbx 0,9,30
.LBE5085:
.LBE5106:
	.loc 3 1296 0
	lis 9,.LC12@ha
	lwz 0,.LC12@l(9)
.LBB5107:
.LBB5108:
	.loc 4 690 0
	lis 21,.LC130@ha
.LBE5108:
.LBE5107:
.LBB5111:
.LBB5112:
	lis 20,.LC155@ha
.LBE5112:
.LBE5111:
.LBB5115:
.LBB5086:
	.loc 4 537 0
	stw 30,0(31)
.LBE5086:
.LBE5115:
	.loc 3 1296 0
	stw 0,100(31)
.LBB5116:
.LBB5091:
	.loc 4 690 0
	la 27,.LC141@l(27)
.LBE5091:
.LBE5116:
.LBB5117:
.LBB5095:
	la 26,.LC142@l(26)
.LBE5095:
.LBE5117:
.LBB5118:
.LBB5099:
	la 25,.LC153@l(25)
.LBE5099:
.LBE5118:
.LBB5119:
.LBB5104:
	la 23,.LC154@l(23)
.LBE5104:
.LBE5119:
.LBB5120:
.LBB5109:
	la 21,.LC130@l(21)
.LBE5109:
.LBE5120:
.LBB5121:
.LBB5113:
	la 20,.LC155@l(20)
.LBE5113:
.LBE5121:
.LBB5122:
.LBB5123:
	lis 19,.LC156@ha
.LVL1198:
.L1291:
.LBE5123:
.LBE5122:
	.loc 3 1298 0 discriminator 1
	mr 3,29
	mr 4,28
	bl _ZN7idLexer9ReadTokenEP7idToken
	cmpwi 7,3,0
	beq- 7,.L1299
.L1264:
.LVL1199:
.LBB5125:
.LBB5092:
	.loc 4 690 0
	lwz 3,12(1)
	mr 4,27
	bl _ZN5idStr4IcmpEPKcS1_
.LBE5092:
.LBE5125:
	.loc 3 1300 0
	cmpwi 7,3,0
	bne- 7,.L1250
	.loc 3 1301 0
	mr 3,29
	li 4,1
	li 5,0
	mr 6,28
	bl _ZN7idLexer15ExpectTokenTypeEiiP7idToken
.LVL1200:
.LBB5126:
	.loc 3 1753 0
	lwz 30,8(1)
.LBB5127:
.LBB5128:
.LBB5129:
	.loc 4 350 0
	lwz 0,40(31)
.LBE5129:
.LBE5128:
	.loc 4 534 0
	addi 4,30,1
.LVL1201:
.LBB5132:
.LBB5130:
	.loc 4 350 0
	cmpw 7,4,0
	bgt- 7,.L1300
.LVL1202:
.L1251:
.LBE5130:
.LBE5132:
	.loc 4 535 0
	lwz 4,12(1)
	mr 5,30
	lwz 3,36(31)
	bl memcpy
	.loc 4 536 0
	lwz 9,36(31)
	li 0,0
.LBE5127:
.LBE5126:
	.loc 3 1298 0
	mr 3,29
.LBB5137:
.LBB5134:
	.loc 4 536 0
	stbx 0,9,30
.LBE5134:
.LBE5137:
	.loc 3 1298 0
	mr 4,28
.LBB5138:
.LBB5135:
	.loc 4 537 0
	stw 30,32(31)
.LBE5135:
.LBE5138:
	.loc 3 1298 0
	bl _ZN7idLexer9ReadTokenEP7idToken
	cmpwi 7,3,0
	bne+ 7,.L1264
.LVL1203:
.L1299:
	.loc 3 1336 0
	li 31,1
.LVL1204:
	b .L1248
.LVL1205:
.L1250:
.LBB5139:
.LBB5096:
	.loc 4 690 0
	lwz 3,12(1)
	mr 4,26
	bl _ZN5idStr4IcmpEPKcS1_
.LBE5096:
.LBE5139:
	.loc 3 1303 0
	cmpwi 7,3,0
	bne- 7,.L1253
	.loc 3 1304 0
	mr 3,29
	li 4,1
	li 5,0
	mr 6,28
	bl _ZN7idLexer15ExpectTokenTypeEiiP7idToken
.LVL1206:
.LBB5140:
	.loc 3 1753 0
	lwz 30,8(1)
.LBB5141:
.LBB5142:
.LBB5143:
	.loc 4 350 0
	lwz 0,72(31)
.LBE5143:
.LBE5142:
	.loc 4 534 0
	addi 4,30,1
.LVL1207:
.LBB5146:
.LBB5144:
	.loc 4 350 0
	cmpw 7,4,0
	bgt- 7,.L1301
.LVL1208:
.L1254:
.LBE5144:
.LBE5146:
	.loc 4 535 0
	lwz 3,68(31)
	mr 5,30
	lwz 4,12(1)
	bl memcpy
	.loc 4 536 0
	lwz 9,68(31)
	li 0,0
	stbx 0,9,30
	.loc 4 537 0
	stw 30,64(31)
	b .L1291
.LVL1209:
.L1253:
.LBE5141:
.LBE5140:
.LBB5149:
.LBB5100:
	.loc 4 690 0
	lwz 3,12(1)
	mr 4,25
	bl _ZN5idStr4IcmpEPKcS1_
.LBE5100:
.LBE5149:
	.loc 3 1306 0
	cmpwi 7,3,0
	bne- 7,.L1255
	.loc 3 1307 0
	mr 3,24
	mr 4,29
	bl _ZN10idAFVector5ParseER7idLexer
.L1295:
	.loc 3 1311 0
	cmpwi 7,3,0
	bne+ 7,.L1291
	b .L1292
.LVL1210:
.L1300:
.LBB5150:
.LBB5136:
.LBB5133:
.LBB5131:
	.loc 4 351 0
	addi 3,31,32
	li 5,0
	bl _ZN5idStr10ReAllocateEib
.LVL1211:
	b .L1251
.LVL1212:
.L1255:
.LBE5131:
.LBE5133:
.LBE5136:
.LBE5150:
.LBB5151:
.LBB5105:
	.loc 4 690 0
	lwz 3,12(1)
	mr 4,23
	bl _ZN5idStr4IcmpEPKcS1_
.LBE5105:
.LBE5151:
	.loc 3 1310 0
	cmpwi 7,3,0
	bne- 7,.L1256
	.loc 3 1311 0
	mr 3,22
	mr 4,29
	bl _ZN10idAFVector5ParseER7idLexer
	b .L1295
.LVL1213:
.L1301:
.LBB5152:
.LBB5148:
.LBB5147:
.LBB5145:
	.loc 4 351 0
	addi 3,31,64
	li 5,0
	bl _ZN5idStr10ReAllocateEib
.LVL1214:
	b .L1254
.LVL1215:
.L1256:
.LBE5145:
.LBE5147:
.LBE5148:
.LBE5152:
.LBB5153:
.LBB5110:
	.loc 4 690 0
	lwz 3,12(1)
	mr 4,21
	bl _ZN5idStr4IcmpEPKcS1_
.LBE5110:
.LBE5153:
	.loc 3 1314 0
	cmpwi 7,3,0
	bne- 7,.L1257
	.loc 3 1315 0
	mr 3,29
	li 4,0
	bl _ZN7idLexer10ParseFloatEPb
	stfs 1,100(31)
	b .L1291
.L1257:
.LVL1216:
.LBB5154:
.LBB5114:
	.loc 4 690 0
	lwz 3,12(1)
	mr 4,20
	bl _ZN5idStr4IcmpEPKcS1_
.LBE5114:
.LBE5154:
	.loc 3 1316 0
	cmpwi 7,3,0
	bne- 7,.L1258
	.loc 3 1317 0
	mr 3,29
	li 4,0
	bl _ZN7idLexer10ParseFloatEPb
	stfs 1,104(31)
	b .L1291
.L1258:
.LVL1217:
.LBB5155:
.LBB5124:
	.loc 4 690 0
	lwz 3,12(1)
	la 4,.LC156@l(19)
	bl _ZN5idStr4IcmpEPKcS1_
.LBE5124:
.LBE5155:
	.loc 3 1318 0
	cmpwi 7,3,0
	bne- 7,.L1259
	.loc 3 1319 0
	mr 3,29
	li 4,0
	bl _ZN7idLexer10ParseFloatEPb
	stfs 1,108(31)
	b .L1291
.LVL1218:
.L1298:
.LBB5156:
.LBB5087:
.LBB5082:
.LBB5079:
	.loc 4 351 0
	mr 3,31
	li 5,0
	bl _ZN5idStr10ReAllocateEib
.LVL1219:
	b .L1270
.LVL1220:
.L1296:
	lwz 3,168(30)
.L1233:
.LVL1221:
.LBE5079:
.LBE5082:
.LBE5087:
.LBE5156:
.LBB5157:
.LBB5063:
.LBB5044:
.LBB5040:
	.loc 9 375 0
	add. 3,11,3
.LVL1222:
	ble- 0,.L1302
	.loc 9 380 0
	cmpw 7,3,11
	beq- 7,.L1303
.LVL1223:
	.loc 9 386 0
	stw 3,164(30)
	.loc 9 387 0
	bge- 7,.L1242
	.loc 9 388 0
	stw 3,160(30)
.L1242:
	.loc 9 392 0
	slwi 3,3,2
.LVL1224:
	addi 28,1,8
	bl _Znaj
.LVL1225:
	.loc 9 393 0
	lwz 0,160(30)
	.loc 9 392 0
	stw 3,172(30)
.LVL1226:
	.loc 9 393 0
	cmpwi 7,0,0
	ble- 7,.L1243
	.loc 3 1281 0
	addi 11,27,-4
.LBE5040:
.LBE5044:
.LBB5045:
.LBB5046:
.LBB5047:
.LBB5048:
	.loc 9 393 0
	li 9,0
	b .L1244
.LVL1227:
.L1304:
.LBE5048:
.LBE5047:
.LBE5046:
.LBE5045:
.LBB5055:
.LBB5041:
	lwz 3,172(30)
.LVL1228:
.L1244:
	.loc 9 394 0
	lwzu 10,4(11)
	slwi 0,9,2
	.loc 9 393 0
	addi 9,9,1
.LVL1229:
	.loc 9 394 0
	stwx 10,3,0
	.loc 9 393 0
	lwz 0,0(26)
	cmpw 7,9,0
	blt+ 7,.L1304
.LVL1230:
.L1243:
	.loc 9 398 0
	cmpwi 7,27,0
	beq- 7,.L1305
	.loc 9 399 0
	mr 3,27
	bl _ZdaPv
	lwz 9,160(30)
	lwz 27,172(30)
.LVL1231:
	b .L1293
.LVL1232:
.L1259:
.LBE5041:
.LBE5055:
.LBE5063:
.LBE5157:
.LBB5158:
.LBB5159:
	.loc 4 690 0
	lis 4,.LC157@ha
	lwz 3,12(1)
	la 4,.LC157@l(4)
	bl _ZN5idStr4IcmpEPKcS1_
.LBE5159:
.LBE5158:
	.loc 3 1320 0
	cmpwi 7,3,0
	bne- 7,.L1260
	.loc 3 1321 0
	mr 3,29
	li 4,0
	bl _ZN7idLexer10ParseFloatEPb
	stfs 1,112(31)
	b .L1291
.L1260:
.LVL1233:
.LBB5160:
.LBB5161:
	.loc 4 690 0
	lis 4,.LC158@ha
	lwz 3,12(1)
	la 4,.LC158@l(4)
	bl _ZN5idStr4IcmpEPKcS1_
.LBE5161:
.LBE5160:
	.loc 3 1322 0
	cmpwi 7,3,0
	beq- 7,.L1306
.LVL1234:
.LBB5162:
.LBB5163:
	.loc 4 690 0
	lis 4,.LC159@ha
	lwz 3,12(1)
	la 4,.LC159@l(4)
	bl _ZN5idStr4IcmpEPKcS1_
.LBE5163:
.LBE5162:
	.loc 3 1324 0
	cmpwi 7,3,0
	bne- 7,.L1262
	.loc 3 1325 0
	mr 3,29
	li 4,0
	bl _ZN7idLexer10ParseFloatEPb
	stfs 1,120(31)
	b .L1291
.LVL1235:
.L1230:
.LBB5164:
.LBB5064:
	.loc 9 634 0
	lwz 11,168(30)
.LBB5056:
.LBB5051:
	.loc 9 375 0
	cmpwi 7,11,0
.LBE5051:
.LBE5056:
	.loc 9 634 0
	mr 3,11
.LVL1236:
.LBB5057:
.LBB5052:
	.loc 9 375 0
	ble- 7,.L1307
	.loc 9 380 0
	lwz 0,164(30)
	cmpw 7,11,0
	beq- 7,.L1308
.LVL1237:
	.loc 9 387 0
	lwz 0,160(30)
	.loc 9 386 0
	stw 11,164(30)
	.loc 9 387 0
	cmpw 7,11,0
	blt- 7,.L1309
.L1235:
	.loc 9 392 0
	slwi 3,3,2
	addi 28,1,8
	bl _Znaj
.LVL1238:
	.loc 9 393 0
	lwz 9,160(30)
	.loc 9 392 0
	mr 27,3
	stw 3,172(30)
.LVL1239:
	.loc 9 393 0
	li 11,0
	cmpwi 7,9,0
	li 10,0
	bgt+ 7,.L1287
	lwz 11,164(30)
	b .L1231
.LVL1240:
.L1310:
	lwz 27,172(30)
.LVL1241:
.L1287:
	.loc 9 394 0
	lwz 0,0(11)
	.loc 9 393 0
	addi 10,10,1
.LVL1242:
	.loc 9 394 0
	stwx 0,27,11
	.loc 9 393 0
	addi 11,11,4
	lwz 9,0(26)
	cmpw 7,10,9
	blt+ 7,.L1310
	lwz 11,164(30)
	lwz 27,172(30)
	b .L1231
.LVL1243:
.L1306:
.LBE5052:
.LBE5057:
.LBE5064:
.LBE5164:
	.loc 3 1323 0
	mr 3,29
	li 4,0
	bl _ZN7idLexer10ParseFloatEPb
	stfs 1,116(31)
	b .L1291
.LVL1244:
.L1309:
.LBB5165:
.LBB5065:
.LBB5058:
.LBB5053:
	.loc 9 388 0
	stw 11,160(30)
	b .L1235
.LVL1245:
.L1303:
.LBE5053:
.LBE5058:
.LBB5059:
.LBB5042:
	.loc 9 380 0
	slwi 0,11,2
	addi 9,11,1
	add 27,27,0
	b .L1238
.LVL1246:
.L1262:
.LBE5042:
.LBE5059:
.LBE5065:
.LBE5165:
.LBB5166:
.LBB5167:
	.loc 4 690 0
	lis 4,.LC160@ha
	lwz 3,12(1)
	la 4,.LC160@l(4)
	bl _ZN5idStr4IcmpEPKcS1_
.LBE5167:
.LBE5166:
	.loc 3 1326 0
	cmpwi 7,3,0
	bne- 7,.L1263
	.loc 3 1327 0
	mr 3,29
	li 4,0
	bl _ZN7idLexer10ParseFloatEPb
.LEHE147:
	stfs 1,124(31)
	b .L1291
.LVL1247:
.L1302:
.LBB5168:
.LBB5066:
.LBB5060:
.LBB5043:
.LBB5038:
.LBB5039:
	.loc 9 193 0
	cmpwi 7,27,0
	beq- 7,.L1240
	.loc 9 194 0
	mr 3,27
.LVL1248:
	bl _ZdaPv
.L1240:
	.loc 9 197 0
	li 0,0
	.loc 9 199 0
	li 9,1
	.loc 9 197 0
	stw 0,172(30)
	.loc 9 199 0
	li 27,0
	stw 0,164(30)
	b .L1238
.LVL1249:
.L1305:
.LBE5039:
.LBE5038:
	.loc 9 398 0
	lwz 9,160(30)
	lwz 27,172(30)
.LVL1250:
	slwi 0,9,2
	addi 9,9,1
	add 27,27,0
	b .L1238
.LVL1251:
.L1308:
.LBE5043:
.LBE5060:
.LBB5061:
.LBB5054:
	.loc 9 380 0
	lwz 9,160(30)
	b .L1231
.L1307:
.LVL1252:
.LBB5050:
.LBB5049:
	.loc 9 198 0
	stw 27,160(30)
	.loc 9 199 0
	li 11,0
	stw 27,164(30)
	b .L1233
.LVL1253:
.L1277:
	mr 30,3
.LVL1254:
.L1225:
.LBE5049:
.LBE5050:
.LBE5054:
.LBE5061:
.LBE5066:
.LBE5168:
.LBB5169:
.LBB5031:
.LBB5021:
.LBB5022:
.LBB5023:
	.loc 4 501 0
	addi 3,31,64
	addi 28,1,8
	bl _ZN5idStr8FreeDataEv
.LVL1255:
.LBE5023:
.LBE5022:
.LBE5021:
.LBB5024:
.LBB5025:
.LBB5026:
	addi 3,31,32
	bl _ZN5idStr8FreeDataEv
.LVL1256:
.LBE5026:
.LBE5025:
.LBE5024:
.LBB5027:
.LBB5028:
.LBB5029:
	mr 3,31
	bl _ZN5idStr8FreeDataEv
.LBE5029:
.LBE5028:
.LBE5027:
.LBE5031:
.LBE5169:
	.loc 3 1283 0
	mr 3,31
	bl _ZdlPv
	mr 31,30
.LVL1257:
.L1229:
.LBB5170:
.LBB5171:
.LBB5172:
.LBB5173:
.LBB5174:
	.loc 4 501 0
	mr 3,28
	bl _ZN5idStr8FreeDataEv
	mr 3,31
.LEHB148:
	bl _Unwind_Resume
.LEHE148:
.LVL1258:
.L1280:
	mr 30,3
.LVL1259:
.LBE5174:
.LBE5173:
.LBE5172:
.LBE5171:
.LBE5170:
.LBB5175:
.LBB5032:
	.loc 8 112 0
	mr 3,27
	bl _ZN10idAFVectorD1Ev
.L1223:
	addi 27,27,-84
	mr 3,27
	bl _ZN10idAFVectorD1Ev
	cmpw 7,28,27
	bne+ 7,.L1223
.LVL1260:
.L1220:
	mr 3,22
	bl _ZN10idAFVectorD1Ev
.L1224:
	mr 3,24
	bl _ZN10idAFVectorD1Ev
	b .L1225
.LVL1261:
.L1279:
	mr 30,3
.LVL1262:
	b .L1223
.LVL1263:
.L1276:
	mr 31,3
	b .L1229
.LVL1264:
.L1281:
	mr 29,3
.LVL1265:
	li 0,0
.L1215:
	mulli 0,0,84
	add 30,31,0
.LVL1266:
	addi 30,30,296
	cmpw 7,28,30
	beq- 7,.L1218
.L1284:
	addi 30,30,-84
	mr 3,30
	bl _ZN10idAFVectorD1Ev
	cmpw 7,28,30
	bne+ 7,.L1284
.L1218:
	mr 30,29
	b .L1220
.LVL1267:
.L1278:
	mr 30,3
.LVL1268:
	b .L1224
.LVL1269:
.L1282:
	mr 29,3
.LVL1270:
	li 0,1
	b .L1215
.LVL1271:
.L1263:
.LBE5032:
.LBE5175:
.LBB5176:
.LBB5177:
	.loc 4 653 0
	lis 4,.LC137@ha
	lwz 3,12(1)
	la 4,.LC137@l(4)
.LEHB149:
	bl _ZN5idStr3CmpEPKcS1_
.LBE5177:
.LBE5176:
	.loc 3 1328 0
	cmpwi 7,3,0
	.loc 3 1336 0
	li 31,1
.LVL1272:
	.loc 3 1328 0
	beq+ 7,.L1248
	.loc 3 1331 0
	lis 4,.LC161@ha
	lwz 5,12(1)
	mr 3,29
	la 4,.LC161@l(4)
	crxor 6,6,6
	bl _ZN7idLexer5ErrorEPKcz
.LEHE149:
	b .L1292
.LBE5180:
	.cfi_endproc
.LFE2579:
	.section	.gcc_except_table
.LLSDA2579:
	.byte	0xff
	.byte	0xff
	.byte	0x1
	.uleb128 .LLSDACSE2579-.LLSDACSB2579
.LLSDACSB2579:
	.uleb128 .LEHB138-.LFB2579
	.uleb128 .LEHE138-.LEHB138
	.uleb128 .L1276-.LFB2579
	.uleb128 0
	.uleb128 .LEHB139-.LFB2579
	.uleb128 .LEHE139-.LEHB139
	.uleb128 .L1277-.LFB2579
	.uleb128 0
	.uleb128 .LEHB140-.LFB2579
	.uleb128 .LEHE140-.LEHB140
	.uleb128 .L1278-.LFB2579
	.uleb128 0
	.uleb128 .LEHB141-.LFB2579
	.uleb128 .LEHE141-.LEHB141
	.uleb128 .L1281-.LFB2579
	.uleb128 0
	.uleb128 .LEHB142-.LFB2579
	.uleb128 .LEHE142-.LEHB142
	.uleb128 .L1282-.LFB2579
	.uleb128 0
	.uleb128 .LEHB143-.LFB2579
	.uleb128 .LEHE143-.LEHB143
	.uleb128 .L1279-.LFB2579
	.uleb128 0
	.uleb128 .LEHB144-.LFB2579
	.uleb128 .LEHE144-.LEHB144
	.uleb128 .L1280-.LFB2579
	.uleb128 0
	.uleb128 .LEHB145-.LFB2579
	.uleb128 .LEHE145-.LEHB145
	.uleb128 .L1276-.LFB2579
	.uleb128 0
	.uleb128 .LEHB146-.LFB2579
	.uleb128 .LEHE146-.LEHB146
	.uleb128 0
	.uleb128 0
	.uleb128 .LEHB147-.LFB2579
	.uleb128 .LEHE147-.LEHB147
	.uleb128 .L1276-.LFB2579
	.uleb128 0
	.uleb128 .LEHB148-.LFB2579
	.uleb128 .LEHE148-.LEHB148
	.uleb128 0
	.uleb128 0
	.uleb128 .LEHB149-.LFB2579
	.uleb128 .LEHE149-.LEHB149
	.uleb128 .L1276-.LFB2579
	.uleb128 0
.LLSDACSE2579:
	.section	".text"
	.size	_ZN8idDeclAF11ParseSpringER7idLexer, .-_ZN8idDeclAF11ParseSpringER7idLexer
	.align 2
	.globl _ZN8idDeclAF13ParseSettingsER7idLexer
	.type	_ZN8idDeclAF13ParseSettingsER7idLexer, @function
_ZN8idDeclAF13ParseSettingsER7idLexer:
.LFB2580:
	.loc 3 1344 0
	.cfi_startproc
	.cfi_personality 0,__gxx_personality_v0
	.cfi_lsda 0,.LLSDA2580
.LVL1273:
	stwu 1,-136(1)
.LCFI125:
	.cfi_def_cfa_offset 136
.LVL1274:
	mflr 0
.LBB5238:
.LBB5239:
.LBB5240:
.LBB5241:
.LBB5242:
	.loc 4 357 0
	li 9,20
.LBE5242:
.LBE5241:
.LBE5240:
.LBE5239:
.LBE5238:
	.loc 3 1344 0
	stw 28,120(1)
	mr 28,3
	.cfi_offset 28, -16
	.cfi_register 65, 0
	stw 31,132(1)
.LBB5343:
	.loc 3 1347 0
	mr 3,4
.LVL1275:
.LBE5343:
	.loc 3 1344 0
	mr 31,4
	.cfi_offset 31, -4
.LBB5344:
	.loc 3 1347 0
	lis 4,.LC114@ha
.LVL1276:
.LBE5344:
	.loc 3 1344 0
	stw 0,140(1)
.LBB5345:
	.loc 3 1347 0
	la 4,.LC114@l(4)
.LBB5249:
.LBB5247:
.LBB5245:
.LBB5243:
	.loc 4 356 0
	li 0,0
	.cfi_offset 65, 4
	.loc 4 357 0
	stw 9,16(1)
	.loc 4 358 0
	addi 9,1,20
.LBE5243:
.LBE5245:
.LBE5247:
.LBE5249:
.LBE5345:
	.loc 3 1344 0
	stw 30,128(1)
	stw 21,92(1)
	addi 30,1,8
	.cfi_offset 21, -44
	.cfi_offset 30, -8
	stw 22,96(1)
	stw 23,100(1)
	stw 24,104(1)
	stw 25,108(1)
	stw 26,112(1)
	stw 27,116(1)
	stw 29,124(1)
.LBB5346:
.LBB5250:
.LBB5248:
.LBB5246:
.LBB5244:
	.loc 4 356 0
	stw 0,8(1)
	.loc 4 358 0
	stw 9,12(1)
	.loc 4 359 0
	stb 0,20(1)
.LEHB150:
.LBE5244:
.LBE5246:
.LBE5248:
.LBE5250:
	.loc 3 1347 0
	.cfi_offset 29, -12
	.cfi_offset 27, -20
	.cfi_offset 26, -24
	.cfi_offset 25, -28
	.cfi_offset 24, -32
	.cfi_offset 23, -36
	.cfi_offset 22, -40
	bl _ZN7idLexer17ExpectTokenStringEPKc
.LVL1277:
	cmpwi 7,3,0
	beq- 7,.L1338
.LBB5251:
.LBB5252:
	.loc 4 690 0
	lis 29,.LC162@ha
.LBE5252:
.LBE5251:
.LBB5255:
.LBB5256:
	lis 26,.LC163@ha
.LBE5256:
.LBE5255:
.LBB5259:
.LBB5260:
	lis 25,.LC116@ha
.LBE5260:
.LBE5259:
.LBB5263:
.LBB5264:
	lis 24,.LC164@ha
.LBE5264:
.LBE5263:
.LBB5267:
.LBB5268:
	lis 23,.LC130@ha
.LBE5268:
.LBE5267:
.LBB5271:
.LBB5272:
	lis 22,.LC165@ha
	addi 30,1,8
.LBE5272:
.LBE5271:
.LBB5275:
.LBB5253:
	la 29,.LC162@l(29)
.LBE5253:
.LBE5275:
.LBB5276:
.LBB5257:
	la 26,.LC163@l(26)
.LBE5257:
.LBE5276:
.LBB5277:
.LBB5261:
	la 25,.LC116@l(25)
.LBE5261:
.LBE5277:
.LBB5278:
.LBB5265:
	la 24,.LC164@l(24)
.LBE5265:
.LBE5278:
.LBB5279:
.LBB5269:
	la 23,.LC130@l(23)
.LBE5269:
.LBE5279:
.LBB5280:
.LBB5273:
	la 22,.LC165@l(22)
.LBE5273:
.LBE5280:
.LBB5281:
.LBB5282:
	lis 21,.LC166@ha
.L1353:
.LBE5282:
.LBE5281:
