	.file	"DeclManager.cpp"
	.section	".text"
.Ltext0:
	.section	.text._ZN14idFixedWinding5ClearEv,"axG",@progbits,_ZN14idFixedWinding5ClearEv,comdat
	.align 2
	.weak	_ZN14idFixedWinding5ClearEv
	.type	_ZN14idFixedWinding5ClearEv, @function
_ZN14idFixedWinding5ClearEv:
.LFB1502:
	.file 1 "d:/Data/Nintendo/DoomGX/src/framework/../idlib/../idlib/geometry/Winding.h"
	.loc 1 398 0
	.cfi_startproc
.LVL0:
	.loc 1 399 0
	li 0,0
	.loc 1 400 0
	.loc 1 399 0
	stw 0,4(3)
	.loc 1 400 0
	blr
	.cfi_endproc
.LFE1502:
	.size	_ZN14idFixedWinding5ClearEv, .-_ZN14idFixedWinding5ClearEv
	.section	.text._ZN6idCVarD2Ev,"axG",@progbits,_ZN6idCVarD5Ev,comdat
	.align 2
	.weak	_ZN6idCVarD2Ev
	.type	_ZN6idCVarD2Ev, @function
_ZN6idCVarD2Ev:
.LFB2175:
	.file 2 "d:/Data/Nintendo/DoomGX/src/framework/../idlib/../framework/CVarSystem.h"
	.loc 2 127 0
	.cfi_startproc
.LVL1:
.LBB1896:
	.loc 2 127 0
	lis 9,_ZTV6idCVar+8@ha
.LBE1896:
.LBB1897:
	la 0,_ZTV6idCVar+8@l(9)
	stw 0,0(3)
.LBE1897:
	blr
	.cfi_endproc
.LFE2175:
	.size	_ZN6idCVarD2Ev, .-_ZN6idCVarD2Ev
	.section	.text._ZN6idCVar17InternalSetStringEPKc,"axG",@progbits,_ZN6idCVar17InternalSetStringEPKc,comdat
	.align 2
	.weak	_ZN6idCVar17InternalSetStringEPKc
	.type	_ZN6idCVar17InternalSetStringEPKc, @function
_ZN6idCVar17InternalSetStringEPKc:
.LFB2197:
	.loc 2 173 0
	.cfi_startproc
.LVL2:
	.loc 2 173 0
	blr
	.cfi_endproc
.LFE2197:
	.size	_ZN6idCVar17InternalSetStringEPKc, .-_ZN6idCVar17InternalSetStringEPKc
	.section	.text._ZN6idCVar15InternalSetBoolEb,"axG",@progbits,_ZN6idCVar15InternalSetBoolEb,comdat
	.align 2
	.weak	_ZN6idCVar15InternalSetBoolEb
	.type	_ZN6idCVar15InternalSetBoolEb, @function
_ZN6idCVar15InternalSetBoolEb:
.LFB2198:
	.loc 2 174 0
	.cfi_startproc
.LVL3:
	.loc 2 174 0
	blr
	.cfi_endproc
.LFE2198:
	.size	_ZN6idCVar15InternalSetBoolEb, .-_ZN6idCVar15InternalSetBoolEb
	.section	.text._ZN6idCVar18InternalSetIntegerEi,"axG",@progbits,_ZN6idCVar18InternalSetIntegerEi,comdat
	.align 2
	.weak	_ZN6idCVar18InternalSetIntegerEi
	.type	_ZN6idCVar18InternalSetIntegerEi, @function
_ZN6idCVar18InternalSetIntegerEi:
.LFB2199:
	.loc 2 175 0
	.cfi_startproc
.LVL4:
	.loc 2 175 0
	blr
	.cfi_endproc
.LFE2199:
	.size	_ZN6idCVar18InternalSetIntegerEi, .-_ZN6idCVar18InternalSetIntegerEi
	.section	.text._ZN6idCVar16InternalSetFloatEf,"axG",@progbits,_ZN6idCVar16InternalSetFloatEf,comdat
	.align 2
	.weak	_ZN6idCVar16InternalSetFloatEf
	.type	_ZN6idCVar16InternalSetFloatEf, @function
_ZN6idCVar16InternalSetFloatEf:
.LFB2200:
	.loc 2 176 0
	.cfi_startproc
.LVL5:
	.loc 2 176 0
	blr
	.cfi_endproc
.LFE2200:
	.size	_ZN6idCVar16InternalSetFloatEf, .-_ZN6idCVar16InternalSetFloatEf
	.section	.text._ZN10idDeclBaseD2Ev,"axG",@progbits,_ZN10idDeclBaseD5Ev,comdat
	.align 2
	.weak	_ZN10idDeclBaseD2Ev
	.type	_ZN10idDeclBaseD2Ev, @function
_ZN10idDeclBaseD2Ev:
.LFB2252:
	.file 3 "d:/Data/Nintendo/DoomGX/src/framework/../idlib/../framework/DeclManager.h"
	.loc 3 103 0
	.cfi_startproc
.LVL6:
.LBB1898:
	.loc 3 103 0
	lis 9,_ZTV10idDeclBase+8@ha
.LBE1898:
.LBB1899:
	la 0,_ZTV10idDeclBase+8@l(9)
	stw 0,0(3)
.LBE1899:
	blr
	.cfi_endproc
.LFE2252:
	.size	_ZN10idDeclBaseD2Ev, .-_ZN10idDeclBaseD2Ev
	.section	.text._ZN6idDeclD2Ev,"axG",@progbits,_ZN6idDeclD5Ev,comdat
	.align 2
	.weak	_ZN6idDeclD2Ev
	.type	_ZN6idDeclD2Ev, @function
_ZN6idDeclD2Ev:
.LFB2259:
	.loc 3 137 0
	.cfi_startproc
.LVL7:
.LBB1900:
	.loc 3 137 0
	lis 9,_ZTV6idDecl+8@ha
.LBE1900:
.LBB1901:
	la 0,_ZTV6idDecl+8@l(9)
	stw 0,0(3)
.LBE1901:
	blr
	.cfi_endproc
.LFE2259:
	.size	_ZN6idDeclD2Ev, .-_ZN6idDeclD2Ev
	.section	.text._ZN6idDecl14SetDefaultTextEv,"axG",@progbits,_ZN6idDecl14SetDefaultTextEv,comdat
	.align 2
	.weak	_ZN6idDecl14SetDefaultTextEv
	.type	_ZN6idDecl14SetDefaultTextEv, @function
_ZN6idDecl14SetDefaultTextEv:
.LFB2279:
	.loc 3 200 0
	.cfi_startproc
.LVL8:
	mflr 0
	stwu 1,-8(1)
.LCFI0:
	.cfi_def_cfa_offset 8
	.cfi_register 65, 0
	stw 0,12(1)
	.loc 3 200 0
	lwz 3,4(3)
.LVL9:
	lwz 9,0(3)
	lwz 0,80(9)
	.cfi_offset 65, 4
	mtctr 0
	bctrl
	lwz 0,12(1)
	addi 1,1,8
.LCFI1:
	.cfi_def_cfa_offset 0
	mtlr 0
	blr
	.cfi_endproc
.LFE2279:
	.size	_ZN6idDecl14SetDefaultTextEv, .-_ZN6idDecl14SetDefaultTextEv
	.section	.text._ZNK6idDecl17DefaultDefinitionEv,"axG",@progbits,_ZNK6idDecl17DefaultDefinitionEv,comdat
	.align 2
	.weak	_ZNK6idDecl17DefaultDefinitionEv
	.type	_ZNK6idDecl17DefaultDefinitionEv, @function
_ZNK6idDecl17DefaultDefinitionEv:
.LFB2280:
	.loc 3 207 0
	.cfi_startproc
.LVL10:
	mflr 0
	stwu 1,-8(1)
.LCFI2:
	.cfi_def_cfa_offset 8
	.cfi_register 65, 0
	stw 0,12(1)
	.loc 3 207 0
	lwz 3,4(3)
.LVL11:
	lwz 9,0(3)
	lwz 0,84(9)
	.cfi_offset 65, 4
	mtctr 0
	bctrl
	lwz 0,12(1)
	addi 1,1,8
.LCFI3:
	.cfi_def_cfa_offset 0
	mtlr 0
	blr
	.cfi_endproc
.LFE2280:
	.size	_ZNK6idDecl17DefaultDefinitionEv, .-_ZNK6idDecl17DefaultDefinitionEv
	.section	.text._ZN6idDecl5ParseEPKci,"axG",@progbits,_ZN6idDecl5ParseEPKci,comdat
	.align 2
	.weak	_ZN6idDecl5ParseEPKci
	.type	_ZN6idDecl5ParseEPKci, @function
_ZN6idDecl5ParseEPKci:
.LFB2281:
	.loc 3 214 0
	.cfi_startproc
.LVL12:
	mflr 0
	stwu 1,-8(1)
.LCFI4:
	.cfi_def_cfa_offset 8
	.cfi_register 65, 0
	stw 0,12(1)
	.loc 3 214 0
	lwz 3,4(3)
.LVL13:
	lwz 9,0(3)
	lwz 0,88(9)
	.cfi_offset 65, 4
	mtctr 0
	bctrl
.LVL14:
	lwz 0,12(1)
	addi 1,1,8
.LCFI5:
	.cfi_def_cfa_offset 0
	mtlr 0
	blr
	.cfi_endproc
.LFE2281:
	.size	_ZN6idDecl5ParseEPKci, .-_ZN6idDecl5ParseEPKci
	.section	.text._ZN6idDecl8FreeDataEv,"axG",@progbits,_ZN6idDecl8FreeDataEv,comdat
	.align 2
	.weak	_ZN6idDecl8FreeDataEv
	.type	_ZN6idDecl8FreeDataEv, @function
_ZN6idDecl8FreeDataEv:
.LFB2282:
	.loc 3 220 0
	.cfi_startproc
.LVL15:
	mflr 0
	stwu 1,-8(1)
.LCFI6:
	.cfi_def_cfa_offset 8
	.cfi_register 65, 0
	stw 0,12(1)
	.loc 3 220 0
	lwz 3,4(3)
.LVL16:
	lwz 9,0(3)
	lwz 0,92(9)
	.cfi_offset 65, 4
	mtctr 0
	bctrl
	lwz 0,12(1)
	addi 1,1,8
.LCFI7:
	.cfi_def_cfa_offset 0
	mtlr 0
	blr
	.cfi_endproc
.LFE2282:
	.size	_ZN6idDecl8FreeDataEv, .-_ZN6idDecl8FreeDataEv
	.section	.text._ZNK6idDecl4SizeEv,"axG",@progbits,_ZNK6idDecl4SizeEv,comdat
	.align 2
	.weak	_ZNK6idDecl4SizeEv
	.type	_ZNK6idDecl4SizeEv, @function
_ZNK6idDecl4SizeEv:
.LFB2283:
	.loc 3 223 0
	.cfi_startproc
.LVL17:
	mflr 0
	stwu 1,-8(1)
.LCFI8:
	.cfi_def_cfa_offset 8
	.cfi_register 65, 0
	stw 0,12(1)
	.loc 3 223 0
	lwz 3,4(3)
.LVL18:
	lwz 9,0(3)
	lwz 0,96(9)
	.cfi_offset 65, 4
	mtctr 0
	bctrl
	lwz 0,12(1)
	addi 1,1,8
.LCFI9:
	.cfi_def_cfa_offset 0
	mtlr 0
	blr
	.cfi_endproc
.LFE2283:
	.size	_ZNK6idDecl4SizeEv, .-_ZNK6idDecl4SizeEv
	.section	.text._ZNK6idDecl4ListEv,"axG",@progbits,_ZNK6idDecl4ListEv,comdat
	.align 2
	.weak	_ZNK6idDecl4ListEv
	.type	_ZNK6idDecl4ListEv, @function
_ZNK6idDecl4ListEv:
.LFB2284:
	.loc 3 228 0
	.cfi_startproc
.LVL19:
	mflr 0
	stwu 1,-8(1)
.LCFI10:
	.cfi_def_cfa_offset 8
	.cfi_register 65, 0
	stw 0,12(1)
	.loc 3 228 0
	lwz 3,4(3)
.LVL20:
	lwz 9,0(3)
	lwz 0,100(9)
	.cfi_offset 65, 4
	mtctr 0
	bctrl
	lwz 0,12(1)
	addi 1,1,8
.LCFI11:
	.cfi_def_cfa_offset 0
	mtlr 0
	blr
	.cfi_endproc
.LFE2284:
	.size	_ZNK6idDecl4ListEv, .-_ZNK6idDecl4ListEv
	.section	.text._ZNK6idDecl5PrintEv,"axG",@progbits,_ZNK6idDecl5PrintEv,comdat
	.align 2
	.weak	_ZNK6idDecl5PrintEv
	.type	_ZNK6idDecl5PrintEv, @function
_ZNK6idDecl5PrintEv:
.LFB2285:
	.loc 3 233 0
	.cfi_startproc
.LVL21:
	mflr 0
	stwu 1,-8(1)
.LCFI12:
	.cfi_def_cfa_offset 8
	.cfi_register 65, 0
	stw 0,12(1)
	.loc 3 233 0
	lwz 3,4(3)
.LVL22:
	lwz 9,0(3)
	lwz 0,104(9)
	.cfi_offset 65, 4
	mtctr 0
	bctrl
	lwz 0,12(1)
	addi 1,1,8
.LCFI13:
	.cfi_def_cfa_offset 0
	mtlr 0
	blr
	.cfi_endproc
.LFE2285:
	.size	_ZNK6idDecl5PrintEv, .-_ZNK6idDecl5PrintEv
	.section	.text._ZN13idDeclManagerD2Ev,"axG",@progbits,_ZN13idDeclManagerD5Ev,comdat
	.align 2
	.weak	_ZN13idDeclManagerD2Ev
	.type	_ZN13idDeclManagerD2Ev, @function
_ZN13idDeclManagerD2Ev:
.LFB2288:
	.loc 3 252 0
	.cfi_startproc
.LVL23:
.LBB1902:
	.loc 3 252 0
	lis 9,_ZTV13idDeclManager+8@ha
.LBE1902:
.LBB1903:
	la 0,_ZTV13idDeclManager+8@l(9)
	stw 0,0(3)
.LBE1903:
	blr
	.cfi_endproc
.LFE2288:
	.size	_ZN13idDeclManagerD2Ev, .-_ZN13idDeclManagerD2Ev
	.section	".text"
	.align 2
	.globl _Z24ListHuffmanFrequencies_fRK9idCmdArgs
	.type	_Z24ListHuffmanFrequencies_fRK9idCmdArgs, @function
_Z24ListHuffmanFrequencies_fRK9idCmdArgs:
.LFB2562:
	.file 4 "d:/Data/Nintendo/DoomGX/src/framework/DeclManager.cpp"
	.loc 4 541 0
	.cfi_startproc
.LVL24:
	mflr 0
	stwu 1,-48(1)
.LCFI14:
	.cfi_def_cfa_offset 48
	.cfi_register 65, 0
.LBB1904:
	.loc 4 544 0
	lis 9,.LANCHOR0@ha
	li 5,100
.LBE1904:
	.loc 4 541 0
	stw 28,32(1)
	stw 0,52(1)
.LBB1905:
	.loc 4 544 0
	lwz 0,.LANCHOR0@l(9)
	.cfi_offset 65, 4
	.cfi_offset 28, -16
	la 9,.LANCHOR0@l(9)
.LBE1905:
	.loc 4 541 0
	stw 29,36(1)
.LBB1906:
	.loc 4 544 0
	cmpwi 7,0,0
.LBE1906:
	.loc 4 541 0
	stw 30,40(1)
	stw 31,44(1)
.LBB1907:
	.loc 4 544 0
	beq- 7,.L22
	.cfi_offset 31, -4
	.cfi_offset 30, -8
	.cfi_offset 29, -12
	.loc 4 544 0 is_stmt 0 discriminator 1
	lwz 9,4(9)
	lis 11,0x4330
	stw 11,16(1)
	mulli 9,9,100
	divw 0,9,0
	lis 9,.LC1@ha
	lfs 0,.LC1@l(9)
	addi 9,1,24
	xoris 0,0,0x8000
	stw 0,20(1)
	lfd 13,16(1)
	fsub 0,13,0
	frsp 0,0
	fctiwz 0,0
	stfiwx 0,0,9
	lwz 5,24(1)
.L22:
	.loc 4 545 0 is_stmt 1 discriminator 3
	lis 31,common@ha
	lis 4,.LC2@ha
	lwz 3,common@l(31)
.LVL25:
	la 4,.LC2@l(4)
	la 30,common@l(31)
	lis 29,.LC4@ha
	lwz 9,0(3)
	la 29,.LC4@l(29)
	lwz 0,68(9)
	mtctr 0
	crxor 6,6,6
	bctrl
	.loc 4 546 0 discriminator 3
	lwz 3,common@l(31)
	lis 4,.LC3@ha
	lis 31,.LANCHOR1@ha
	lwz 9,0(3)
	la 4,.LC3@l(4)
	la 31,.LANCHOR1@l(31)
	lwz 0,68(9)
	.loc 4 541 0 discriminator 3
	addi 28,31,1024
	.loc 4 546 0 discriminator 3
	mtctr 0
	crxor 6,6,6
	bctrl
.LVL26:
.L23:
	.loc 4 552 0 discriminator 2
	lwz 4,24(31)
	lwz 0,28(31)
	lwz 3,0(30)
	lwz 5,0(31)
	lwz 11,0(3)
	lwz 6,4(31)
	lwz 7,8(31)
	lwz 8,12(31)
	lwz 9,16(31)
	lwz 10,20(31)
	addi 31,31,32
	stw 4,8(1)
	mr 4,29
	stw 0,12(1)
	lwz 0,68(11)
	mtctr 0
	crxor 6,6,6
	bctrl
	.loc 4 547 0 discriminator 2
	cmpw 7,31,28
	bne+ 7,.L23
	.loc 4 554 0
	lwz 3,0(30)
	lis 4,.LC5@ha
	la 4,.LC5@l(4)
	lwz 9,0(3)
	lwz 0,68(9)
	mtctr 0
	crxor 6,6,6
	bctrl
.LBE1907:
	.loc 4 555 0
	lwz 0,52(1)
	lwz 28,32(1)
	mtlr 0
	lwz 29,36(1)
	lwz 30,40(1)
	lwz 31,44(1)
	addi 1,1,48
.LCFI15:
	.cfi_def_cfa_offset 0
	.cfi_restore 31
	.cfi_restore 30
	.cfi_restore 29
	.cfi_restore 28
	blr
	.cfi_endproc
.LFE2562:
	.size	_Z24ListHuffmanFrequencies_fRK9idCmdArgs, .-_Z24ListHuffmanFrequencies_fRK9idCmdArgs
	.align 2
	.globl _ZN18idDeclManagerLocal13VirtualizeAllEv
	.type	_ZN18idDeclManagerLocal13VirtualizeAllEv, @function
_ZN18idDeclManagerLocal13VirtualizeAllEv:
.LFB2584:
	.loc 4 999 0
	.cfi_startproc
.LVL27:
	mflr 0
	stwu 1,-24(1)
.LCFI16:
	.cfi_def_cfa_offset 24
	.cfi_register 65, 0
	stw 28,8(1)
	mr 28,3
	.cfi_offset 28, -16
	stw 0,28(1)
	stw 29,12(1)
	stw 30,16(1)
	stw 31,20(1)
.LBB1908:
.LBB1909:
	.loc 4 2449 0
	lwz 29,964(3)
	.cfi_offset 31, -4
	.cfi_offset 30, -8
	.cfi_offset 29, -12
	.cfi_offset 65, 4
.LVL28:
	.loc 4 1002 0
	cmpwi 7,29,0
	ble- 7,.L27
	li 31,0
.LVL29:
.L30:
.LBB1910:
	.loc 4 1003 0
	lwz 9,976(28)
	slwi 0,31,2
.LBE1910:
	.loc 4 1002 0
	addi 31,31,1
.LVL30:
.LBB1911:
	.loc 4 1003 0
	lwzx 30,9,0
.LVL31:
	.loc 4 1004 0
	lwz 9,4(30)
	cmpwi 7,9,0
	.loc 4 1005 0
	mr 3,9
	.loc 4 1004 0
	beq- 7,.L29
	.loc 4 1005 0
	lwz 9,0(9)
	lwz 0,20(9)
.LVL32:
	mtctr 0
	bctrl
	.loc 4 1006 0
	lwz 9,0(30)
	mr 3,30
	lwz 0,28(9)
	mtctr 0
	bctrl
.L29:
.LVL33:
.LBE1911:
	.loc 4 1002 0
	cmpw 7,31,29
	bne+ 7,.L30
.LVL34:
.L27:
.LBE1909:
.LBE1908:
	.loc 4 1009 0
	lwz 0,28(1)
	lwz 28,8(1)
.LVL35:
	mtlr 0
	lwz 29,12(1)
	lwz 30,16(1)
	lwz 31,20(1)
	addi 1,1,24
.LCFI17:
	.cfi_def_cfa_offset 0
	.cfi_restore 31
	.cfi_restore 30
	.cfi_restore 29
	.cfi_restore 28
	blr
	.cfi_endproc
.LFE2584:
	.size	_ZN18idDeclManagerLocal13VirtualizeAllEv, .-_ZN18idDeclManagerLocal13VirtualizeAllEv
	.align 2
	.globl _ZN18idDeclManagerLocal18SetInsideLevelLoadEv
	.type	_ZN18idDeclManagerLocal18SetInsideLevelLoadEv, @function
_ZN18idDeclManagerLocal18SetInsideLevelLoadEv:
.LFB2586:
	.loc 4 1035 0
	.cfi_startproc
.LVL36:
	.loc 4 1036 0
	li 0,1
	stb 0,1524(3)
	.loc 4 1037 0
	blr
	.cfi_endproc
.LFE2586:
	.size	_ZN18idDeclManagerLocal18SetInsideLevelLoadEv, .-_ZN18idDeclManagerLocal18SetInsideLevelLoadEv
	.align 2
	.globl _ZN18idDeclManagerLocal12EndLevelLoadEv
	.type	_ZN18idDeclManagerLocal12EndLevelLoadEv, @function
_ZN18idDeclManagerLocal12EndLevelLoadEv:
.LFB2587:
	.loc 4 1045 0
	.cfi_startproc
.LVL37:
	.loc 4 1050 0
	blr
	.cfi_endproc
.LFE2587:
	.size	_ZN18idDeclManagerLocal12EndLevelLoadEv, .-_ZN18idDeclManagerLocal12EndLevelLoadEv
	.align 2
	.globl _ZNK18idDeclManagerLocal15GetNumDeclTypesEv
	.type	_ZNK18idDeclManagerLocal15GetNumDeclTypesEv, @function
_ZNK18idDeclManagerLocal15GetNumDeclTypesEv:
.LFB2597:
	.loc 4 1179 0
	.cfi_startproc
.LVL38:
	.loc 4 1181 0
	lwz 3,4(3)
.LVL39:
	blr
	.cfi_endproc
.LFE2597:
	.size	_ZNK18idDeclManagerLocal15GetNumDeclTypesEv, .-_ZNK18idDeclManagerLocal15GetNumDeclTypesEv
	.align 2
	.globl _ZNK18idDeclManagerLocal19GetDeclNameFromTypeE10declType_t
	.type	_ZNK18idDeclManagerLocal19GetDeclNameFromTypeE10declType_t, @function
_ZNK18idDeclManagerLocal19GetDeclNameFromTypeE10declType_t:
.LFB2598:
	.loc 4 1188 0
	.cfi_startproc
.LVL40:
.LBB1912:
	.loc 4 1191 0
	mr. 5,4
.LBE1912:
	.loc 4 1188 0
	mflr 0
	stwu 1,-16(1)
.LCFI18:
	.cfi_def_cfa_offset 16
	.cfi_register 65, 0
	stw 31,12(1)
	mr 31,3
	.cfi_offset 31, -4
	stw 0,20(1)
	stw 30,8(1)
.LBB1915:
	.loc 4 1191 0
	blt- 0,.L40
	.cfi_offset 30, -8
	.cfi_offset 65, 4
.LVL41:
	.loc 4 1191 0 is_stmt 0 discriminator 2
	lwz 0,4(3)
	cmpw 7,5,0
	blt- 7,.L38
.LVL42:
.L40:
	.loc 4 1191 0
	slwi 30,5,2
.L37:
	.loc 4 1192 0 is_stmt 1 discriminator 5
	lis 9,common@ha
	lis 4,.LC6@ha
.LVL43:
	lwz 3,common@l(9)
.LVL44:
	la 4,.LC6@l(4)
	lwz 9,0(3)
	lwz 0,100(9)
	mtctr 0
	crxor 6,6,6
	bctrl
.LVL45:
.LBE1915:
	.loc 4 1195 0 discriminator 5
	lwz 0,20(1)
.LBB1916:
	.loc 4 1192 0 discriminator 5
	lwz 9,16(31)
.LBE1916:
	.loc 4 1195 0 discriminator 5
	mtlr 0
	lwz 31,12(1)
.LVL46:
.LBB1917:
	.loc 4 1192 0 discriminator 5
	lwzx 9,9,30
.LVL47:
.LBE1917:
	.loc 4 1195 0 discriminator 5
	lwz 30,8(1)
	lwz 3,4(9)
	addi 1,1,16
	.cfi_remember_state
.LCFI19:
	.cfi_def_cfa_offset 0
	.cfi_restore 31
	.cfi_restore 30
	blr
.LVL48:
.L38:
.LCFI20:
	.cfi_restore_state
.LBB1918:
	.loc 4 1191 0 discriminator 3
	lwz 9,16(3)
.LBB1913:
.LBB1914:
	.file 5 "d:/Data/Nintendo/DoomGX/src/framework/../idlib/../idlib/containers/List.h"
	.loc 5 573 0 discriminator 3
	slwi 30,5,2
.LBE1914:
.LBE1913:
	.loc 4 1191 0 discriminator 3
	lwzx 9,9,30
	cmpwi 7,9,0
	beq- 7,.L37
.LVL49:
.LBE1918:
	.loc 4 1195 0
	lwz 0,20(1)
	lwz 3,4(9)
.LVL50:
	mtlr 0
	lwz 30,8(1)
.LVL51:
	lwz 31,12(1)
.LVL52:
	addi 1,1,16
	.cfi_restore 30
	.cfi_restore 31
.LCFI21:
	.cfi_def_cfa_offset 0
	blr
	.cfi_endproc
.LFE2598:
	.size	_ZNK18idDeclManagerLocal19GetDeclNameFromTypeE10declType_t, .-_ZNK18idDeclManagerLocal19GetDeclNameFromTypeE10declType_t
	.align 2
	.globl _ZN18idDeclManagerLocal11GetNumDeclsE10declType_t
	.type	_ZN18idDeclManagerLocal11GetNumDeclsE10declType_t, @function
_ZN18idDeclManagerLocal11GetNumDeclsE10declType_t:
.LFB2603:
	.loc 4 1293 0
	.cfi_startproc
.LVL53:
	stwu 1,-16(1)
.LCFI22:
	.cfi_def_cfa_offset 16
	mflr 0
	stw 31,12(1)
.LBB1919:
	.loc 4 1296 0
	mr. 31,4
	.cfi_offset 31, -4
	.cfi_register 65, 0
.LBE1919:
	.loc 4 1293 0
	stw 30,8(1)
	mr 30,3
	.cfi_offset 30, -8
	stw 0,20(1)
.LBB1920:
	.loc 4 1296 0
	blt- 0,.L43
	.cfi_offset 65, 4
	.loc 4 1296 0 is_stmt 0 discriminator 2
	lwz 0,4(3)
	cmpw 7,31,0
	bge- 7,.L43
.LVL54:
	.loc 4 1296 0 discriminator 3
	lwz 9,16(3)
	slwi 0,31,2
	lwzx 0,9,0
	cmpwi 7,0,0
	beq- 7,.L43
.LBE1920:
	.loc 4 1300 0 is_stmt 1
	lwz 0,20(1)
.LBB1921:
	.loc 4 1299 0
	addi 31,31,59
	slwi 31,31,4
.LBE1921:
	.loc 4 1300 0
	mtlr 0
.LBB1922:
	.loc 4 2449 0
	add 30,30,31
.LBE1922:
	.loc 4 1300 0
	lwz 3,4(30)
.LVL55:
	lwz 30,8(1)
	lwz 31,12(1)
	addi 1,1,16
	.cfi_remember_state
.LCFI23:
	.cfi_def_cfa_offset 0
	.cfi_restore 31
	.cfi_restore 30
	blr
.LVL56:
.L43:
.LCFI24:
	.cfi_restore_state
.LBB1923:
	.loc 4 1297 0 discriminator 5
	lis 9,common@ha
	lis 4,.LC7@ha
.LVL57:
	lwz 3,common@l(9)
.LVL58:
	mr 5,31
	la 4,.LC7@l(4)
	.loc 4 1299 0 discriminator 5
	addi 31,31,59
.LVL59:
	.loc 4 1297 0 discriminator 5
	lwz 9,0(3)
	.loc 4 1299 0 discriminator 5
	slwi 31,31,4
	.loc 4 2449 0 discriminator 5
	add 30,30,31
.LVL60:
	.loc 4 1297 0 discriminator 5
	lwz 0,100(9)
	mtctr 0
	crxor 6,6,6
	bctrl
.LVL61:
.LBE1923:
	.loc 4 1300 0 discriminator 5
	lwz 0,20(1)
	lwz 3,4(30)
	mtlr 0
	lwz 30,8(1)
	lwz 31,12(1)
	addi 1,1,16
	.cfi_restore 30
	.cfi_restore 31
.LCFI25:
	.cfi_def_cfa_offset 0
	blr
	.cfi_endproc
.LFE2603:
	.size	_ZN18idDeclManagerLocal11GetNumDeclsE10declType_t, .-_ZN18idDeclManagerLocal11GetNumDeclsE10declType_t
	.align 2
	.globl _ZN18idDeclManagerLocal12FindMaterialEPKcbb
	.type	_ZN18idDeclManagerLocal12FindMaterialEPKcbb, @function
_ZN18idDeclManagerLocal12FindMaterialEPKcbb:
.LFB2611:
	.loc 4 1644 0
	.cfi_startproc
.LVL62:
	mflr 0
	stwu 1,-8(1)
.LCFI26:
	.cfi_def_cfa_offset 8
	.cfi_register 65, 0
	mr 11,4
	mr 9,5
	mr 7,6
	.loc 4 1645 0
	li 4,1
.LVL63:
	.loc 4 1644 0
	stw 0,12(1)
	.loc 4 1645 0
	mr 5,11
.LVL64:
	mr 6,9
.LVL65:
	lwz 10,0(3)
	lwz 0,60(10)
	.cfi_offset 65, 4
	mtctr 0
	bctrl
.LVL66:
	.loc 4 1646 0
	lwz 0,12(1)
	addi 1,1,8
.LCFI27:
	.cfi_def_cfa_offset 0
	mtlr 0
	blr
	.cfi_endproc
.LFE2611:
	.size	_ZN18idDeclManagerLocal12FindMaterialEPKcbb, .-_ZN18idDeclManagerLocal12FindMaterialEPKcbb
	.align 2
	.globl _ZN18idDeclManagerLocal15MaterialByIndexEib
	.type	_ZN18idDeclManagerLocal15MaterialByIndexEib, @function
_ZN18idDeclManagerLocal15MaterialByIndexEib:
.LFB2612:
	.loc 4 1648 0
	.cfi_startproc
.LVL67:
	mflr 0
	stwu 1,-8(1)
.LCFI28:
	.cfi_def_cfa_offset 8
	.cfi_register 65, 0
	mr 9,4
	mr 6,5
	.loc 4 1649 0
	li 4,1
.LVL68:
	mr 5,9
.LVL69:
	.loc 4 1648 0
	stw 0,12(1)
	.loc 4 1649 0
	lwz 11,0(3)
	lwz 0,76(11)
	.cfi_offset 65, 4
	mtctr 0
	bctrl
.LVL70:
	.loc 4 1650 0
	lwz 0,12(1)
	addi 1,1,8
.LCFI29:
	.cfi_def_cfa_offset 0
	mtlr 0
	blr
	.cfi_endproc
.LFE2612:
	.size	_ZN18idDeclManagerLocal15MaterialByIndexEib, .-_ZN18idDeclManagerLocal15MaterialByIndexEib
	.align 2
	.globl _ZN18idDeclManagerLocal8FindSkinEPKcb
	.type	_ZN18idDeclManagerLocal8FindSkinEPKcb, @function
_ZN18idDeclManagerLocal8FindSkinEPKcb:
.LFB2613:
	.loc 4 1654 0
	.cfi_startproc
.LVL71:
	mflr 0
	stwu 1,-8(1)
.LCFI30:
	.cfi_def_cfa_offset 8
	.cfi_register 65, 0
	mr 9,4
	mr 6,5
	.loc 4 1655 0
	li 4,2
.LVL72:
	mr 5,9
.LVL73:
	.loc 4 1654 0
	stw 0,12(1)
	.loc 4 1655 0
	li 7,1
	lwz 11,0(3)
	lwz 0,60(11)
	.cfi_offset 65, 4
	mtctr 0
	bctrl
.LVL74:
	.loc 4 1656 0
	lwz 0,12(1)
	addi 1,1,8
.LCFI31:
	.cfi_def_cfa_offset 0
	mtlr 0
	blr
	.cfi_endproc
.LFE2613:
	.size	_ZN18idDeclManagerLocal8FindSkinEPKcb, .-_ZN18idDeclManagerLocal8FindSkinEPKcb
	.align 2
	.globl _ZN18idDeclManagerLocal11SkinByIndexEib
	.type	_ZN18idDeclManagerLocal11SkinByIndexEib, @function
_ZN18idDeclManagerLocal11SkinByIndexEib:
.LFB2614:
	.loc 4 1658 0
	.cfi_startproc
.LVL75:
	mflr 0
	stwu 1,-8(1)
.LCFI32:
	.cfi_def_cfa_offset 8
	.cfi_register 65, 0
	mr 9,4
	mr 6,5
	.loc 4 1659 0
	li 4,2
.LVL76:
	mr 5,9
.LVL77:
	.loc 4 1658 0
	stw 0,12(1)
	.loc 4 1659 0
	lwz 11,0(3)
	lwz 0,76(11)
	.cfi_offset 65, 4
	mtctr 0
	bctrl
.LVL78:
	.loc 4 1660 0
	lwz 0,12(1)
	addi 1,1,8
.LCFI33:
	.cfi_def_cfa_offset 0
	mtlr 0
	blr
	.cfi_endproc
.LFE2614:
	.size	_ZN18idDeclManagerLocal11SkinByIndexEib, .-_ZN18idDeclManagerLocal11SkinByIndexEib
	.align 2
	.globl _ZN18idDeclManagerLocal11ListDecls_fERK9idCmdArgs
	.type	_ZN18idDeclManagerLocal11ListDecls_fERK9idCmdArgs, @function
_ZN18idDeclManagerLocal11ListDecls_fERK9idCmdArgs:
.LFB2616:
	.loc 4 1704 0
	.cfi_startproc
.LVL79:
	stwu 1,-64(1)
.LCFI34:
	.cfi_def_cfa_offset 64
	mflr 0
	stw 29,52(1)
.LBB1924:
.LBB1925:
	.loc 4 1710 0
	lis 29,.LANCHOR0@ha
	.cfi_offset 29, -12
	.cfi_register 65, 0
.LBE1925:
.LBE1924:
	.loc 4 1704 0
	stw 26,40(1)
.LBB1939:
.LBB1931:
	.loc 4 1710 0
	la 29,.LANCHOR0@l(29)
.LBE1931:
.LBE1939:
	.loc 4 1704 0
	stw 27,44(1)
.LBB1940:
.LBB1932:
	.loc 4 1710 0
	addi 29,29,8
.LBE1932:
.LBE1940:
	.loc 4 1704 0
	stw 28,48(1)
.LBB1941:
.LBB1933:
	.loc 4 1710 0
	li 27,0
	.cfi_offset 28, -16
	.cfi_offset 27, -20
	.cfi_offset 26, -24
.LBE1933:
.LBE1941:
	.loc 4 1704 0
	stw 0,68(1)
.LBB1942:
.LBB1934:
	.loc 4 1710 0
	li 28,0
.LBE1934:
.LBE1942:
	.loc 4 1704 0
	stw 19,12(1)
	lis 26,common@ha
	stw 20,16(1)
	stw 21,20(1)
	stw 22,24(1)
	stw 23,28(1)
	stw 24,32(1)
	stw 25,36(1)
	stw 30,56(1)
	stw 31,60(1)
.LBB1943:
.LBB1935:
	.loc 4 1710 0
	lwz 0,4(29)
	.cfi_offset 31, -4
	.cfi_offset 30, -8
	.cfi_offset 25, -28
	.cfi_offset 24, -32
	.cfi_offset 23, -36
	.cfi_offset 22, -40
	.cfi_offset 21, -44
	.cfi_offset 20, -48
	.cfi_offset 19, -52
	.cfi_offset 65, 4
	cmpwi 7,0,0
	ble- 7,.L50
.LBB1926:
	.loc 4 1729 0
	lis 25,.LC8@ha
.LBE1926:
	.loc 4 1710 0
	li 30,0
	lis 26,common@ha
.LBB1929:
.LBB1927:
.LBB1928:
	.loc 4 1713 0
	mr 24,29
.LBE1928:
.LBE1927:
	.loc 4 1729 0
	la 25,.LC8@l(25)
.LVL80:
.L56:
	.loc 4 1713 0
	lwz 9,16(29)
.LBE1929:
	.loc 4 1704 0
	slwi 19,30,2
.LBB1930:
	.loc 4 1713 0
	lwzx 9,9,19
	cmpwi 7,9,0
	beq- 7,.L51
	.loc 4 1717 0
	addi 20,30,59
	.loc 4 1721 0
	li 5,0
	.loc 4 1717 0
	slwi 20,20,4
	.loc 4 1720 0
	li 31,0
	.loc 4 1717 0
	add 20,24,20
	.loc 4 2449 0
	lwz 23,4(20)
	.loc 4 1717 0
	addi 20,20,4
	.loc 4 1721 0
	cmpwi 7,23,0
	.loc 4 1718 0
	add 28,28,23
.LVL81:
	.loc 4 1721 0
	ble- 7,.L52
	li 22,0
.LVL82:
.L55:
	.loc 4 1722 0
	lwz 9,12(20)
	.loc 4 1704 0
	slwi 21,22,2
	.loc 4 1722 0
	lwzx 3,9,21
	lwz 9,0(3)
	lwz 0,96(9)
	mtctr 0
	bctrl
	.loc 4 1723 0
	lwz 9,12(20)
	.loc 4 1722 0
	add 31,31,3
.LVL83:
	.loc 4 1723 0
	lwzx 9,9,21
	lwz 9,4(9)
	cmpwi 7,9,0
	.loc 4 1724 0
	mr 3,9
	.loc 4 1723 0
	beq- 7,.L54
.LVL84:
	.loc 4 1724 0
	lwz 9,0(9)
	lwz 0,24(9)
	mtctr 0
	bctrl
	add 31,3,31
.LVL85:
.L54:
	.loc 4 1721 0
	addi 22,22,1
.LVL86:
	cmpw 7,22,23
	bne+ 7,.L55
	lwz 9,16(29)
	srawi 5,31,10
	lwzx 9,9,19
.LVL87:
.L52:
	.loc 4 1729 0
	lwz 3,common@l(26)
	mr 4,25
	mr 6,23
	lwz 7,4(9)
	lwz 11,0(3)
	.loc 4 1727 0
	add 27,27,31
.LVL88:
	.loc 4 1729 0
	lwz 0,68(11)
	mtctr 0
	crxor 6,6,6
	bctrl
.LVL89:
.L51:
.LBE1930:
	.loc 4 1710 0
	lwz 0,4(29)
	addi 30,30,1
.LVL90:
	cmpw 7,0,30
	bgt+ 7,.L56
	srawi 27,27,10
.LVL91:
.L50:
	.loc 4 1732 0 discriminator 1
	lwz 6,36(29)
.LBE1935:
.LBB1936:
	li 31,0
	cmpwi 7,6,0
	ble- 7,.L57
	.loc 4 1732 0 is_stmt 0
	lwz 10,48(29)
	mtctr 6
	li 9,0
.LVL92:
.L58:
.LBB1937:
	.loc 4 1733 0 is_stmt 1 discriminator 2
	slwi 0,9,2
.LBE1937:
	.loc 4 1732 0 discriminator 2
	addi 9,9,1
.LVL93:
.LBB1938:
	.loc 4 1734 0 discriminator 2
	lwzx 11,10,0
	lwz 0,44(11)
	add 31,31,0
.LVL94:
.LBE1938:
	.loc 4 1732 0 discriminator 2
	bdnz .L58
	.loc 4 1732 0 is_stmt 0
	srawi 31,31,10
.LVL95:
.L57:
.LBE1936:
	.loc 4 1737 0 is_stmt 1
	lwz 3,common@l(26)
	lis 4,.LC9@ha
	mr 5,28
	la 4,.LC9@l(4)
	lwz 9,0(3)
	lwz 0,68(9)
	mtctr 0
	crxor 6,6,6
	bctrl
	.loc 4 1738 0
	lwz 3,common@l(26)
	lis 4,.LC10@ha
	mr 5,31
	lwz 9,0(3)
	mr 6,27
	la 4,.LC10@l(4)
	lwz 0,68(9)
	mtctr 0
	crxor 6,6,6
	bctrl
.LBE1943:
	.loc 4 1739 0
	lwz 0,68(1)
	lwz 19,12(1)
	mtlr 0
	lwz 20,16(1)
	lwz 21,20(1)
	lwz 22,24(1)
	lwz 23,28(1)
	lwz 24,32(1)
	lwz 25,36(1)
	lwz 26,40(1)
	lwz 27,44(1)
	lwz 28,48(1)
	lwz 29,52(1)
	lwz 30,56(1)
	lwz 31,60(1)
	addi 1,1,64
.LCFI35:
	.cfi_def_cfa_offset 0
	.cfi_restore 31
	.cfi_restore 30
	.cfi_restore 29
	.cfi_restore 28
	.cfi_restore 27
	.cfi_restore 26
	.cfi_restore 25
	.cfi_restore 24
	.cfi_restore 23
	.cfi_restore 22
	.cfi_restore 21
	.cfi_restore 20
	.cfi_restore 19
	blr
	.cfi_endproc
.LFE2616:
	.size	_ZN18idDeclManagerLocal11ListDecls_fERK9idCmdArgs, .-_ZN18idDeclManagerLocal11ListDecls_fERK9idCmdArgs
	.align 2
	.globl _ZNK11idDeclLocal7GetNameEv
	.type	_ZNK11idDeclLocal7GetNameEv, @function
_ZNK11idDeclLocal7GetNameEv:
.LFB2630:
	.loc 4 1945 0
	.cfi_startproc
.LVL96:
	.loc 4 1947 0
	lwz 3,12(3)
.LVL97:
	blr
	.cfi_endproc
.LFE2630:
	.size	_ZNK11idDeclLocal7GetNameEv, .-_ZNK11idDeclLocal7GetNameEv
	.align 2
	.globl _ZNK11idDeclLocal7GetTypeEv
	.type	_ZNK11idDeclLocal7GetTypeEv, @function
_ZNK11idDeclLocal7GetTypeEv:
.LFB2631:
	.loc 4 1954 0
	.cfi_startproc
.LVL98:
	.loc 4 1956 0
	lwz 3,76(3)
.LVL99:
	blr
	.cfi_endproc
.LFE2631:
	.size	_ZNK11idDeclLocal7GetTypeEv, .-_ZNK11idDeclLocal7GetTypeEv
	.align 2
	.globl _ZNK11idDeclLocal8GetStateEv
	.type	_ZNK11idDeclLocal8GetStateEv, @function
_ZNK11idDeclLocal8GetStateEv:
.LFB2632:
	.loc 4 1963 0
	.cfi_startproc
.LVL100:
	.loc 4 1965 0
	lwz 3,80(3)
.LVL101:
	blr
	.cfi_endproc
.LFE2632:
	.size	_ZNK11idDeclLocal8GetStateEv, .-_ZNK11idDeclLocal8GetStateEv
	.align 2
	.globl _ZNK11idDeclLocal10IsImplicitEv
	.type	_ZNK11idDeclLocal10IsImplicitEv, @function
_ZNK11idDeclLocal10IsImplicitEv:
.LFB2633:
	.loc 4 1972 0
	.cfi_startproc
.LVL102:
	.loc 4 240 0
	lis 9,.LANCHOR0@ha
	.loc 4 1973 0
	lwz 3,56(3)
.LVL103:
	.loc 4 240 0
	la 9,.LANCHOR0@l(9)
	.loc 4 1974 0
	.loc 4 240 0
	addi 0,9,1468
	.loc 4 1974 0
	xor 3,3,0
	cntlzw 3,3
	srwi 3,3,5
	blr
	.cfi_endproc
.LFE2633:
	.size	_ZNK11idDeclLocal10IsImplicitEv, .-_ZNK11idDeclLocal10IsImplicitEv
	.align 2
	.globl _ZNK11idDeclLocal7IsValidEv
	.type	_ZNK11idDeclLocal7IsValidEv, @function
_ZNK11idDeclLocal7IsValidEv:
.LFB2634:
	.loc 4 1981 0
	.cfi_startproc
.LVL104:
	.loc 4 1982 0
	lwz 3,80(3)
.LVL105:
	.loc 4 1983 0
	.loc 4 1982 0
	cntlzw 3,3
	srwi 3,3,5
	.loc 4 1983 0
	xori 3,3,1
	blr
	.cfi_endproc
.LFE2634:
	.size	_ZNK11idDeclLocal7IsValidEv, .-_ZNK11idDeclLocal7IsValidEv
	.align 2
	.globl _ZN11idDeclLocal10InvalidateEv
	.type	_ZN11idDeclLocal10InvalidateEv, @function
_ZN11idDeclLocal10InvalidateEv:
.LFB2635:
	.loc 4 1990 0
	.cfi_startproc
.LVL106:
	.loc 4 1991 0
	li 0,0
	.loc 4 1992 0
	.loc 4 1991 0
	stw 0,80(3)
	.loc 4 1992 0
	blr
	.cfi_endproc
.LFE2635:
	.size	_ZN11idDeclLocal10InvalidateEv, .-_ZN11idDeclLocal10InvalidateEv
	.align 2
	.globl _ZNK11idDeclLocal5IndexEv
	.type	_ZNK11idDeclLocal5IndexEv, @function
_ZNK11idDeclLocal5IndexEv:
.LFB2637:
	.loc 4 2010 0
	.cfi_startproc
.LVL107:
	.loc 4 2012 0
	lwz 3,84(3)
.LVL108:
	blr
	.cfi_endproc
.LFE2637:
	.size	_ZNK11idDeclLocal5IndexEv, .-_ZNK11idDeclLocal5IndexEv
	.align 2
	.globl _ZNK11idDeclLocal10GetLineNumEv
	.type	_ZNK11idDeclLocal10GetLineNumEv, @function
_ZNK11idDeclLocal10GetLineNumEv:
.LFB2638:
	.loc 4 2019 0
	.cfi_startproc
.LVL109:
	.loc 4 2021 0
	lwz 3,68(3)
.LVL110:
	blr
	.cfi_endproc
.LFE2638:
	.size	_ZNK11idDeclLocal10GetLineNumEv, .-_ZNK11idDeclLocal10GetLineNumEv
	.align 2
	.globl _ZNK11idDeclLocal11GetFileNameEv
	.type	_ZNK11idDeclLocal11GetFileNameEv, @function
_ZNK11idDeclLocal11GetFileNameEv:
.LFB2639:
	.loc 4 2028 0
	.cfi_startproc
.LVL111:
	.loc 4 2029 0
	lwz 9,56(3)
	cmpwi 7,9,0
	beq- 7,.L75
	.loc 4 2449 0 discriminator 1
	lwz 3,4(9)
.LVL112:
	blr
.LVL113:
.L75:
	.loc 4 2029 0
	lis 3,.LC11@ha
.LVL114:
	la 3,.LC11@l(3)
	.loc 4 2030 0
	blr
	.cfi_endproc
.LFE2639:
	.size	_ZNK11idDeclLocal11GetFileNameEv, .-_ZNK11idDeclLocal11GetFileNameEv
	.align 2
	.globl _ZNK11idDeclLocal4SizeEv
	.type	_ZNK11idDeclLocal4SizeEv, @function
_ZNK11idDeclLocal4SizeEv:
.LFB2640:
	.loc 4 2037 0
	.cfi_startproc
.LVL115:
.LBB1944:
.LBB1945:
	.file 6 "d:/Data/Nintendo/DoomGX/src/framework/../idlib/../idlib/Str.h"
	.loc 6 728 0
	lwz 11,12(3)
	addi 0,3,20
.LBE1945:
.LBE1944:
	.loc 4 2037 0
	mr 9,3
.LVL116:
.LBB1947:
.LBB1946:
	.loc 6 728 0
	li 3,8
.LVL117:
	cmpw 7,11,0
	beqlr- 7
	lwz 3,16(9)
	addi 3,3,8
.LBE1946:
.LBE1947:
	.loc 4 2039 0
	blr
	.cfi_endproc
.LFE2640:
	.size	_ZNK11idDeclLocal4SizeEv, .-_ZNK11idDeclLocal4SizeEv
	.align 2
	.globl _ZNK11idDeclLocal13GetTextLengthEv
	.type	_ZNK11idDeclLocal13GetTextLengthEv, @function
_ZNK11idDeclLocal13GetTextLengthEv:
.LFB2642:
	.loc 4 2086 0
	.cfi_startproc
.LVL118:
	.loc 4 2088 0
	lwz 3,48(3)
.LVL119:
	blr
	.cfi_endproc
.LFE2642:
	.size	_ZNK11idDeclLocal13GetTextLengthEv, .-_ZNK11idDeclLocal13GetTextLengthEv
	.align 2
	.globl _ZN11idDeclLocal14SetDefaultTextEv
	.type	_ZN11idDeclLocal14SetDefaultTextEv, @function
_ZN11idDeclLocal14SetDefaultTextEv:
.LFB2648:
	.loc 4 2290 0
	.cfi_startproc
.LVL120:
	.loc 4 2292 0
	li 3,0
.LVL121:
	blr
	.cfi_endproc
.LFE2648:
	.size	_ZN11idDeclLocal14SetDefaultTextEv, .-_ZN11idDeclLocal14SetDefaultTextEv
	.align 2
	.globl _ZNK11idDeclLocal17DefaultDefinitionEv
	.type	_ZNK11idDeclLocal17DefaultDefinitionEv, @function
_ZNK11idDeclLocal17DefaultDefinitionEv:
.LFB2649:
	.loc 4 2299 0
	.cfi_startproc
.LVL122:
	.loc 4 2300 0
	lis 3,.LC12@ha
.LVL123:
	.loc 4 2301 0
	la 3,.LC12@l(3)
	blr
	.cfi_endproc
.LFE2649:
	.size	_ZNK11idDeclLocal17DefaultDefinitionEv, .-_ZNK11idDeclLocal17DefaultDefinitionEv
	.align 2
	.globl _ZN11idDeclLocal8FreeDataEv
	.type	_ZN11idDeclLocal8FreeDataEv, @function
_ZN11idDeclLocal8FreeDataEv:
.LFB2651:
	.loc 4 2323 0
	.cfi_startproc
.LVL124:
	.loc 4 2324 0
	blr
	.cfi_endproc
.LFE2651:
	.size	_ZN11idDeclLocal8FreeDataEv, .-_ZN11idDeclLocal8FreeDataEv
	.align 2
	.globl _ZNK11idDeclLocal4ListEv
	.type	_ZNK11idDeclLocal4ListEv, @function
_ZNK11idDeclLocal4ListEv:
.LFB2652:
	.loc 4 2331 0
	.cfi_startproc
.LVL125:
	mflr 0
	stwu 1,-16(1)
.LCFI36:
	.cfi_def_cfa_offset 16
	.cfi_register 65, 0
	.loc 4 2332 0
	lis 11,common@ha
	.loc 4 2331 0
	stw 30,8(1)
	stw 0,20(1)
	stw 31,12(1)
	.loc 4 2332 0
	lwz 30,common@l(11)
	.cfi_offset 31, -4
	.cfi_offset 65, 4
	.cfi_offset 30, -8
	lwz 9,0(3)
	lwz 0,8(9)
	lwz 9,0(30)
	mtctr 0
	lwz 31,68(9)
	bctrl
.LVL126:
	lis 4,.LC13@ha
	mr 5,3
	mtctr 31
	mr 3,30
	la 4,.LC13@l(4)
	crxor 6,6,6
	bctrl
	.loc 4 2333 0
	lwz 0,20(1)
	lwz 30,8(1)
	mtlr 0
	lwz 31,12(1)
	addi 1,1,16
.LCFI37:
	.cfi_def_cfa_offset 0
	.cfi_restore 31
	.cfi_restore 30
	blr
	.cfi_endproc
.LFE2652:
	.size	_ZNK11idDeclLocal4ListEv, .-_ZNK11idDeclLocal4ListEv
	.align 2
	.globl _ZNK11idDeclLocal5PrintEv
	.type	_ZNK11idDeclLocal5PrintEv, @function
_ZNK11idDeclLocal5PrintEv:
.LFB2653:
	.loc 4 2340 0
	.cfi_startproc
.LVL127:
	.loc 4 2341 0
	blr
	.cfi_endproc
.LFE2653:
	.size	_ZNK11idDeclLocal5PrintEv, .-_ZNK11idDeclLocal5PrintEv
	.align 2
	.globl _ZNK11idDeclLocal14EverReferencedEv
	.type	_ZNK11idDeclLocal14EverReferencedEv, @function
_ZNK11idDeclLocal14EverReferencedEv:
.LFB2658:
	.loc 4 2447 0
	.cfi_startproc
.LVL128:
	.loc 4 2449 0
	lbz 3,89(3)
.LVL129:
	blr
	.cfi_endproc
.LFE2658:
	.size	_ZNK11idDeclLocal14EverReferencedEv, .-_ZNK11idDeclLocal14EverReferencedEv
	.section	.text._Z13idListDecls_fIL10declType_t0EEvRK9idCmdArgs,"axG",@progbits,_Z13idListDecls_fIL10declType_t0EEvRK9idCmdArgs,comdat
	.align 2
	.weak	_Z13idListDecls_fIL10declType_t0EEvRK9idCmdArgs
	.type	_Z13idListDecls_fIL10declType_t0EEvRK9idCmdArgs, @function
_Z13idListDecls_fIL10declType_t0EEvRK9idCmdArgs:
.LFB2881:
	.loc 3 332 0
	.cfi_startproc
.LVL130:
	mflr 0
	stwu 1,-8(1)
.LCFI38:
	.cfi_def_cfa_offset 8
	.cfi_register 65, 0
	.loc 3 333 0
	lis 9,declManager@ha
	.loc 3 332 0
	mr 4,3
	.loc 3 333 0
	lwz 9,declManager@l(9)
	li 5,0
	.loc 3 332 0
	stw 0,12(1)
	.loc 3 333 0
	mr 3,9
.LVL131:
	lwz 11,0(9)
	lwz 0,80(11)
	.cfi_offset 65, 4
	mtctr 0
	bctrl
.LVL132:
	.loc 3 334 0
	lwz 0,12(1)
	addi 1,1,8
.LCFI39:
	.cfi_def_cfa_offset 0
	mtlr 0
	blr
	.cfi_endproc
.LFE2881:
	.size	_Z13idListDecls_fIL10declType_t0EEvRK9idCmdArgs, .-_Z13idListDecls_fIL10declType_t0EEvRK9idCmdArgs
	.section	.text._Z13idListDecls_fIL10declType_t1EEvRK9idCmdArgs,"axG",@progbits,_Z13idListDecls_fIL10declType_t1EEvRK9idCmdArgs,comdat
	.align 2
	.weak	_Z13idListDecls_fIL10declType_t1EEvRK9idCmdArgs
	.type	_Z13idListDecls_fIL10declType_t1EEvRK9idCmdArgs, @function
_Z13idListDecls_fIL10declType_t1EEvRK9idCmdArgs:
.LFB2883:
	.loc 3 332 0
	.cfi_startproc
.LVL133:
	mflr 0
	stwu 1,-8(1)
.LCFI40:
	.cfi_def_cfa_offset 8
	.cfi_register 65, 0
	.loc 3 333 0
	lis 9,declManager@ha
	.loc 3 332 0
	mr 4,3
	.loc 3 333 0
	lwz 9,declManager@l(9)
	li 5,1
	.loc 3 332 0
	stw 0,12(1)
	.loc 3 333 0
	mr 3,9
.LVL134:
	lwz 11,0(9)
	lwz 0,80(11)
	.cfi_offset 65, 4
	mtctr 0
	bctrl
.LVL135:
	.loc 3 334 0
	lwz 0,12(1)
	addi 1,1,8
.LCFI41:
	.cfi_def_cfa_offset 0
	mtlr 0
	blr
	.cfi_endproc
.LFE2883:
	.size	_Z13idListDecls_fIL10declType_t1EEvRK9idCmdArgs, .-_Z13idListDecls_fIL10declType_t1EEvRK9idCmdArgs
	.section	.text._Z13idListDecls_fIL10declType_t2EEvRK9idCmdArgs,"axG",@progbits,_Z13idListDecls_fIL10declType_t2EEvRK9idCmdArgs,comdat
	.align 2
	.weak	_Z13idListDecls_fIL10declType_t2EEvRK9idCmdArgs
	.type	_Z13idListDecls_fIL10declType_t2EEvRK9idCmdArgs, @function
_Z13idListDecls_fIL10declType_t2EEvRK9idCmdArgs:
.LFB2884:
	.loc 3 332 0
	.cfi_startproc
.LVL136:
	mflr 0
	stwu 1,-8(1)
.LCFI42:
	.cfi_def_cfa_offset 8
	.cfi_register 65, 0
	.loc 3 333 0
	lis 9,declManager@ha
	.loc 3 332 0
	mr 4,3
	.loc 3 333 0
	lwz 9,declManager@l(9)
	li 5,2
	.loc 3 332 0
	stw 0,12(1)
	.loc 3 333 0
	mr 3,9
.LVL137:
	lwz 11,0(9)
	lwz 0,80(11)
	.cfi_offset 65, 4
	mtctr 0
	bctrl
.LVL138:
	.loc 3 334 0
	lwz 0,12(1)
	addi 1,1,8
.LCFI43:
	.cfi_def_cfa_offset 0
	mtlr 0
	blr
	.cfi_endproc
.LFE2884:
	.size	_Z13idListDecls_fIL10declType_t2EEvRK9idCmdArgs, .-_Z13idListDecls_fIL10declType_t2EEvRK9idCmdArgs
	.section	.text._Z13idListDecls_fIL10declType_t3EEvRK9idCmdArgs,"axG",@progbits,_Z13idListDecls_fIL10declType_t3EEvRK9idCmdArgs,comdat
	.align 2
	.weak	_Z13idListDecls_fIL10declType_t3EEvRK9idCmdArgs
	.type	_Z13idListDecls_fIL10declType_t3EEvRK9idCmdArgs, @function
_Z13idListDecls_fIL10declType_t3EEvRK9idCmdArgs:
.LFB2885:
	.loc 3 332 0
	.cfi_startproc
.LVL139:
	mflr 0
	stwu 1,-8(1)
.LCFI44:
	.cfi_def_cfa_offset 8
	.cfi_register 65, 0
	.loc 3 333 0
	lis 9,declManager@ha
	.loc 3 332 0
	mr 4,3
	.loc 3 333 0
	lwz 9,declManager@l(9)
	li 5,3
	.loc 3 332 0
	stw 0,12(1)
	.loc 3 333 0
	mr 3,9
.LVL140:
	lwz 11,0(9)
	lwz 0,80(11)
	.cfi_offset 65, 4
	mtctr 0
	bctrl
.LVL141:
	.loc 3 334 0
	lwz 0,12(1)
	addi 1,1,8
.LCFI45:
	.cfi_def_cfa_offset 0
	mtlr 0
	blr
	.cfi_endproc
.LFE2885:
	.size	_Z13idListDecls_fIL10declType_t3EEvRK9idCmdArgs, .-_Z13idListDecls_fIL10declType_t3EEvRK9idCmdArgs
	.section	.text._Z13idListDecls_fIL10declType_t4EEvRK9idCmdArgs,"axG",@progbits,_Z13idListDecls_fIL10declType_t4EEvRK9idCmdArgs,comdat
	.align 2
	.weak	_Z13idListDecls_fIL10declType_t4EEvRK9idCmdArgs
	.type	_Z13idListDecls_fIL10declType_t4EEvRK9idCmdArgs, @function
_Z13idListDecls_fIL10declType_t4EEvRK9idCmdArgs:
.LFB2886:
	.loc 3 332 0
	.cfi_startproc
.LVL142:
	mflr 0
	stwu 1,-8(1)
.LCFI46:
	.cfi_def_cfa_offset 8
	.cfi_register 65, 0
	.loc 3 333 0
	lis 9,declManager@ha
	.loc 3 332 0
	mr 4,3
	.loc 3 333 0
	lwz 9,declManager@l(9)
	li 5,4
	.loc 3 332 0
	stw 0,12(1)
	.loc 3 333 0
	mr 3,9
.LVL143:
	lwz 11,0(9)
	lwz 0,80(11)
	.cfi_offset 65, 4
	mtctr 0
	bctrl
.LVL144:
	.loc 3 334 0
	lwz 0,12(1)
	addi 1,1,8
.LCFI47:
	.cfi_def_cfa_offset 0
	mtlr 0
	blr
	.cfi_endproc
.LFE2886:
	.size	_Z13idListDecls_fIL10declType_t4EEvRK9idCmdArgs, .-_Z13idListDecls_fIL10declType_t4EEvRK9idCmdArgs
	.section	.text._Z13idListDecls_fIL10declType_t6EEvRK9idCmdArgs,"axG",@progbits,_Z13idListDecls_fIL10declType_t6EEvRK9idCmdArgs,comdat
	.align 2
	.weak	_Z13idListDecls_fIL10declType_t6EEvRK9idCmdArgs
	.type	_Z13idListDecls_fIL10declType_t6EEvRK9idCmdArgs, @function
_Z13idListDecls_fIL10declType_t6EEvRK9idCmdArgs:
.LFB2887:
	.loc 3 332 0
	.cfi_startproc
.LVL145:
	mflr 0
	stwu 1,-8(1)
.LCFI48:
	.cfi_def_cfa_offset 8
	.cfi_register 65, 0
	.loc 3 333 0
	lis 9,declManager@ha
	.loc 3 332 0
	mr 4,3
	.loc 3 333 0
	lwz 9,declManager@l(9)
	li 5,6
	.loc 3 332 0
	stw 0,12(1)
	.loc 3 333 0
	mr 3,9
.LVL146:
	lwz 11,0(9)
	lwz 0,80(11)
	.cfi_offset 65, 4
	mtctr 0
	bctrl
.LVL147:
	.loc 3 334 0
	lwz 0,12(1)
	addi 1,1,8
.LCFI49:
	.cfi_def_cfa_offset 0
	mtlr 0
	blr
	.cfi_endproc
.LFE2887:
	.size	_Z13idListDecls_fIL10declType_t6EEvRK9idCmdArgs, .-_Z13idListDecls_fIL10declType_t6EEvRK9idCmdArgs
	.section	.text._Z13idListDecls_fIL10declType_t7EEvRK9idCmdArgs,"axG",@progbits,_Z13idListDecls_fIL10declType_t7EEvRK9idCmdArgs,comdat
	.align 2
	.weak	_Z13idListDecls_fIL10declType_t7EEvRK9idCmdArgs
	.type	_Z13idListDecls_fIL10declType_t7EEvRK9idCmdArgs, @function
_Z13idListDecls_fIL10declType_t7EEvRK9idCmdArgs:
.LFB2888:
	.loc 3 332 0
	.cfi_startproc
.LVL148:
	mflr 0
	stwu 1,-8(1)
.LCFI50:
	.cfi_def_cfa_offset 8
	.cfi_register 65, 0
	.loc 3 333 0
	lis 9,declManager@ha
	.loc 3 332 0
	mr 4,3
	.loc 3 333 0
	lwz 9,declManager@l(9)
	li 5,7
	.loc 3 332 0
	stw 0,12(1)
	.loc 3 333 0
	mr 3,9
.LVL149:
	lwz 11,0(9)
	lwz 0,80(11)
	.cfi_offset 65, 4
	mtctr 0
	bctrl
.LVL150:
	.loc 3 334 0
	lwz 0,12(1)
	addi 1,1,8
.LCFI51:
	.cfi_def_cfa_offset 0
	mtlr 0
	blr
	.cfi_endproc
.LFE2888:
	.size	_Z13idListDecls_fIL10declType_t7EEvRK9idCmdArgs, .-_Z13idListDecls_fIL10declType_t7EEvRK9idCmdArgs
	.section	.text._Z13idListDecls_fIL10declType_t8EEvRK9idCmdArgs,"axG",@progbits,_Z13idListDecls_fIL10declType_t8EEvRK9idCmdArgs,comdat
	.align 2
	.weak	_Z13idListDecls_fIL10declType_t8EEvRK9idCmdArgs
	.type	_Z13idListDecls_fIL10declType_t8EEvRK9idCmdArgs, @function
_Z13idListDecls_fIL10declType_t8EEvRK9idCmdArgs:
.LFB2889:
	.loc 3 332 0
	.cfi_startproc
.LVL151:
	mflr 0
	stwu 1,-8(1)
.LCFI52:
	.cfi_def_cfa_offset 8
	.cfi_register 65, 0
	.loc 3 333 0
	lis 9,declManager@ha
	.loc 3 332 0
	mr 4,3
	.loc 3 333 0
	lwz 9,declManager@l(9)
	li 5,8
	.loc 3 332 0
	stw 0,12(1)
	.loc 3 333 0
	mr 3,9
.LVL152:
	lwz 11,0(9)
	lwz 0,80(11)
	.cfi_offset 65, 4
	mtctr 0
	bctrl
.LVL153:
	.loc 3 334 0
	lwz 0,12(1)
	addi 1,1,8
.LCFI53:
	.cfi_def_cfa_offset 0
	mtlr 0
	blr
	.cfi_endproc
.LFE2889:
	.size	_Z13idListDecls_fIL10declType_t8EEvRK9idCmdArgs, .-_Z13idListDecls_fIL10declType_t8EEvRK9idCmdArgs
	.section	.text._Z13idListDecls_fIL10declType_t9EEvRK9idCmdArgs,"axG",@progbits,_Z13idListDecls_fIL10declType_t9EEvRK9idCmdArgs,comdat
	.align 2
	.weak	_Z13idListDecls_fIL10declType_t9EEvRK9idCmdArgs
	.type	_Z13idListDecls_fIL10declType_t9EEvRK9idCmdArgs, @function
_Z13idListDecls_fIL10declType_t9EEvRK9idCmdArgs:
.LFB2890:
	.loc 3 332 0
	.cfi_startproc
.LVL154:
	mflr 0
	stwu 1,-8(1)
.LCFI54:
	.cfi_def_cfa_offset 8
	.cfi_register 65, 0
	.loc 3 333 0
	lis 9,declManager@ha
	.loc 3 332 0
	mr 4,3
	.loc 3 333 0
	lwz 9,declManager@l(9)
	li 5,9
	.loc 3 332 0
	stw 0,12(1)
	.loc 3 333 0
	mr 3,9
.LVL155:
	lwz 11,0(9)
	lwz 0,80(11)
	.cfi_offset 65, 4
	mtctr 0
	bctrl
.LVL156:
	.loc 3 334 0
	lwz 0,12(1)
	addi 1,1,8
.LCFI55:
	.cfi_def_cfa_offset 0
	mtlr 0
	blr
	.cfi_endproc
.LFE2890:
	.size	_Z13idListDecls_fIL10declType_t9EEvRK9idCmdArgs, .-_Z13idListDecls_fIL10declType_t9EEvRK9idCmdArgs
	.section	.text._Z13idListDecls_fIL10declType_t12EEvRK9idCmdArgs,"axG",@progbits,_Z13idListDecls_fIL10declType_t12EEvRK9idCmdArgs,comdat
	.align 2
	.weak	_Z13idListDecls_fIL10declType_t12EEvRK9idCmdArgs
	.type	_Z13idListDecls_fIL10declType_t12EEvRK9idCmdArgs, @function
_Z13idListDecls_fIL10declType_t12EEvRK9idCmdArgs:
.LFB2891:
	.loc 3 332 0
	.cfi_startproc
.LVL157:
	mflr 0
	stwu 1,-8(1)
.LCFI56:
	.cfi_def_cfa_offset 8
	.cfi_register 65, 0
	.loc 3 333 0
	lis 9,declManager@ha
	.loc 3 332 0
	mr 4,3
	.loc 3 333 0
	lwz 9,declManager@l(9)
	li 5,12
	.loc 3 332 0
	stw 0,12(1)
	.loc 3 333 0
	mr 3,9
.LVL158:
	lwz 11,0(9)
	lwz 0,80(11)
	.cfi_offset 65, 4
	mtctr 0
	bctrl
.LVL159:
	.loc 3 334 0
	lwz 0,12(1)
	addi 1,1,8
.LCFI57:
	.cfi_def_cfa_offset 0
	mtlr 0
	blr
	.cfi_endproc
.LFE2891:
	.size	_Z13idListDecls_fIL10declType_t12EEvRK9idCmdArgs, .-_Z13idListDecls_fIL10declType_t12EEvRK9idCmdArgs
	.section	.text._Z13idListDecls_fIL10declType_t10EEvRK9idCmdArgs,"axG",@progbits,_Z13idListDecls_fIL10declType_t10EEvRK9idCmdArgs,comdat
	.align 2
	.weak	_Z13idListDecls_fIL10declType_t10EEvRK9idCmdArgs
	.type	_Z13idListDecls_fIL10declType_t10EEvRK9idCmdArgs, @function
_Z13idListDecls_fIL10declType_t10EEvRK9idCmdArgs:
.LFB2892:
	.loc 3 332 0
	.cfi_startproc
.LVL160:
	mflr 0
	stwu 1,-8(1)
.LCFI58:
	.cfi_def_cfa_offset 8
	.cfi_register 65, 0
	.loc 3 333 0
	lis 9,declManager@ha
	.loc 3 332 0
	mr 4,3
	.loc 3 333 0
	lwz 9,declManager@l(9)
	li 5,10
	.loc 3 332 0
	stw 0,12(1)
	.loc 3 333 0
	mr 3,9
.LVL161:
	lwz 11,0(9)
	lwz 0,80(11)
	.cfi_offset 65, 4
	mtctr 0
	bctrl
.LVL162:
	.loc 3 334 0
	lwz 0,12(1)
	addi 1,1,8
.LCFI59:
	.cfi_def_cfa_offset 0
	mtlr 0
	blr
	.cfi_endproc
.LFE2892:
	.size	_Z13idListDecls_fIL10declType_t10EEvRK9idCmdArgs, .-_Z13idListDecls_fIL10declType_t10EEvRK9idCmdArgs
	.section	.text._Z13idListDecls_fIL10declType_t11EEvRK9idCmdArgs,"axG",@progbits,_Z13idListDecls_fIL10declType_t11EEvRK9idCmdArgs,comdat
	.align 2
	.weak	_Z13idListDecls_fIL10declType_t11EEvRK9idCmdArgs
	.type	_Z13idListDecls_fIL10declType_t11EEvRK9idCmdArgs, @function
_Z13idListDecls_fIL10declType_t11EEvRK9idCmdArgs:
.LFB2893:
	.loc 3 332 0
	.cfi_startproc
.LVL163:
	mflr 0
	stwu 1,-8(1)
.LCFI60:
	.cfi_def_cfa_offset 8
	.cfi_register 65, 0
	.loc 3 333 0
	lis 9,declManager@ha
	.loc 3 332 0
	mr 4,3
	.loc 3 333 0
	lwz 9,declManager@l(9)
	li 5,11
	.loc 3 332 0
	stw 0,12(1)
	.loc 3 333 0
	mr 3,9
.LVL164:
	lwz 11,0(9)
	lwz 0,80(11)
	.cfi_offset 65, 4
	mtctr 0
	bctrl
.LVL165:
	.loc 3 334 0
	lwz 0,12(1)
	addi 1,1,8
.LCFI61:
	.cfi_def_cfa_offset 0
	mtlr 0
	blr
	.cfi_endproc
.LFE2893:
	.size	_Z13idListDecls_fIL10declType_t11EEvRK9idCmdArgs, .-_Z13idListDecls_fIL10declType_t11EEvRK9idCmdArgs
	.section	.text._Z14idPrintDecls_fIL10declType_t0EEvRK9idCmdArgs,"axG",@progbits,_Z14idPrintDecls_fIL10declType_t0EEvRK9idCmdArgs,comdat
	.align 2
	.weak	_Z14idPrintDecls_fIL10declType_t0EEvRK9idCmdArgs
	.type	_Z14idPrintDecls_fIL10declType_t0EEvRK9idCmdArgs, @function
_Z14idPrintDecls_fIL10declType_t0EEvRK9idCmdArgs:
.LFB2894:
	.loc 3 337 0
	.cfi_startproc
.LVL166:
	mflr 0
	stwu 1,-8(1)
.LCFI62:
	.cfi_def_cfa_offset 8
	.cfi_register 65, 0
	.loc 3 338 0
	lis 9,declManager@ha
	.loc 3 337 0
	mr 4,3
	.loc 3 338 0
	lwz 9,declManager@l(9)
	li 5,0
	.loc 3 337 0
	stw 0,12(1)
	.loc 3 338 0
	mr 3,9
.LVL167:
	lwz 11,0(9)
	lwz 0,84(11)
	.cfi_offset 65, 4
	mtctr 0
	bctrl
.LVL168:
	.loc 3 339 0
	lwz 0,12(1)
	addi 1,1,8
.LCFI63:
	.cfi_def_cfa_offset 0
	mtlr 0
	blr
	.cfi_endproc
.LFE2894:
	.size	_Z14idPrintDecls_fIL10declType_t0EEvRK9idCmdArgs, .-_Z14idPrintDecls_fIL10declType_t0EEvRK9idCmdArgs
	.section	.text._ZN11idCmdSystem18ArgCompletion_DeclILi0EEEvRK9idCmdArgsPFvPKcE,"axG",@progbits,_ZN11idCmdSystem18ArgCompletion_DeclILi0EEEvRK9idCmdArgsPFvPKcE,comdat
	.align 2
	.weak	_ZN11idCmdSystem18ArgCompletion_DeclILi0EEEvRK9idCmdArgsPFvPKcE
	.type	_ZN11idCmdSystem18ArgCompletion_DeclILi0EEEvRK9idCmdArgsPFvPKcE, @function
_ZN11idCmdSystem18ArgCompletion_DeclILi0EEEvRK9idCmdArgsPFvPKcE:
.LFB2895:
	.file 7 "d:/Data/Nintendo/DoomGX/src/framework/../idlib/../framework/CmdSystem.h"
	.loc 7 148 0
	.cfi_startproc
.LVL169:
	mflr 0
	stwu 1,-8(1)
.LCFI64:
	.cfi_def_cfa_offset 8
	.cfi_register 65, 0
	.loc 7 149 0
	lis 9,cmdSystem@ha
	.loc 7 148 0
	mr 11,3
	.loc 7 149 0
	lwz 9,cmdSystem@l(9)
	.loc 7 148 0
	mr 5,4
	stw 0,12(1)
	.loc 7 149 0
	mr 4,11
.LVL170:
	mr 3,9
.LVL171:
	li 6,0
	lwz 10,0(9)
	lwz 0,48(10)
	.cfi_offset 65, 4
	mtctr 0
	bctrl
.LVL172:
	.loc 7 150 0
	lwz 0,12(1)
	addi 1,1,8
.LCFI65:
	.cfi_def_cfa_offset 0
	mtlr 0
	blr
	.cfi_endproc
.LFE2895:
	.size	_ZN11idCmdSystem18ArgCompletion_DeclILi0EEEvRK9idCmdArgsPFvPKcE, .-_ZN11idCmdSystem18ArgCompletion_DeclILi0EEEvRK9idCmdArgsPFvPKcE
	.section	.text._Z14idPrintDecls_fIL10declType_t1EEvRK9idCmdArgs,"axG",@progbits,_Z14idPrintDecls_fIL10declType_t1EEvRK9idCmdArgs,comdat
	.align 2
	.weak	_Z14idPrintDecls_fIL10declType_t1EEvRK9idCmdArgs
	.type	_Z14idPrintDecls_fIL10declType_t1EEvRK9idCmdArgs, @function
_Z14idPrintDecls_fIL10declType_t1EEvRK9idCmdArgs:
.LFB2896:
	.loc 3 337 0
	.cfi_startproc
.LVL173:
	mflr 0
	stwu 1,-8(1)
.LCFI66:
	.cfi_def_cfa_offset 8
	.cfi_register 65, 0
	.loc 3 338 0
	lis 9,declManager@ha
	.loc 3 337 0
	mr 4,3
	.loc 3 338 0
	lwz 9,declManager@l(9)
	li 5,1
	.loc 3 337 0
	stw 0,12(1)
	.loc 3 338 0
	mr 3,9
.LVL174:
	lwz 11,0(9)
	lwz 0,84(11)
	.cfi_offset 65, 4
	mtctr 0
	bctrl
.LVL175:
	.loc 3 339 0
	lwz 0,12(1)
	addi 1,1,8
.LCFI67:
	.cfi_def_cfa_offset 0
	mtlr 0
	blr
	.cfi_endproc
.LFE2896:
	.size	_Z14idPrintDecls_fIL10declType_t1EEvRK9idCmdArgs, .-_Z14idPrintDecls_fIL10declType_t1EEvRK9idCmdArgs
	.section	.text._ZN11idCmdSystem18ArgCompletion_DeclILi1EEEvRK9idCmdArgsPFvPKcE,"axG",@progbits,_ZN11idCmdSystem18ArgCompletion_DeclILi1EEEvRK9idCmdArgsPFvPKcE,comdat
	.align 2
	.weak	_ZN11idCmdSystem18ArgCompletion_DeclILi1EEEvRK9idCmdArgsPFvPKcE
	.type	_ZN11idCmdSystem18ArgCompletion_DeclILi1EEEvRK9idCmdArgsPFvPKcE, @function
_ZN11idCmdSystem18ArgCompletion_DeclILi1EEEvRK9idCmdArgsPFvPKcE:
.LFB2897:
	.loc 7 148 0
	.cfi_startproc
.LVL176:
	mflr 0
	stwu 1,-8(1)
.LCFI68:
	.cfi_def_cfa_offset 8
	.cfi_register 65, 0
	.loc 7 149 0
	lis 9,cmdSystem@ha
	.loc 7 148 0
	mr 11,3
	.loc 7 149 0
	lwz 9,cmdSystem@l(9)
	.loc 7 148 0
	mr 5,4
	stw 0,12(1)
	.loc 7 149 0
	mr 4,11
.LVL177:
	mr 3,9
.LVL178:
	li 6,1
	lwz 10,0(9)
	lwz 0,48(10)
	.cfi_offset 65, 4
	mtctr 0
	bctrl
.LVL179:
	.loc 7 150 0
	lwz 0,12(1)
	addi 1,1,8
.LCFI69:
	.cfi_def_cfa_offset 0
	mtlr 0
	blr
	.cfi_endproc
.LFE2897:
	.size	_ZN11idCmdSystem18ArgCompletion_DeclILi1EEEvRK9idCmdArgsPFvPKcE, .-_ZN11idCmdSystem18ArgCompletion_DeclILi1EEEvRK9idCmdArgsPFvPKcE
	.section	.text._Z14idPrintDecls_fIL10declType_t2EEvRK9idCmdArgs,"axG",@progbits,_Z14idPrintDecls_fIL10declType_t2EEvRK9idCmdArgs,comdat
	.align 2
	.weak	_Z14idPrintDecls_fIL10declType_t2EEvRK9idCmdArgs
	.type	_Z14idPrintDecls_fIL10declType_t2EEvRK9idCmdArgs, @function
_Z14idPrintDecls_fIL10declType_t2EEvRK9idCmdArgs:
.LFB2898:
	.loc 3 337 0
	.cfi_startproc
.LVL180:
	mflr 0
	stwu 1,-8(1)
.LCFI70:
	.cfi_def_cfa_offset 8
	.cfi_register 65, 0
	.loc 3 338 0
	lis 9,declManager@ha
	.loc 3 337 0
	mr 4,3
	.loc 3 338 0
	lwz 9,declManager@l(9)
	li 5,2
	.loc 3 337 0
	stw 0,12(1)
	.loc 3 338 0
	mr 3,9
.LVL181:
	lwz 11,0(9)
	lwz 0,84(11)
	.cfi_offset 65, 4
	mtctr 0
	bctrl
.LVL182:
	.loc 3 339 0
	lwz 0,12(1)
	addi 1,1,8
.LCFI71:
	.cfi_def_cfa_offset 0
	mtlr 0
	blr
	.cfi_endproc
.LFE2898:
	.size	_Z14idPrintDecls_fIL10declType_t2EEvRK9idCmdArgs, .-_Z14idPrintDecls_fIL10declType_t2EEvRK9idCmdArgs
	.section	.text._ZN11idCmdSystem18ArgCompletion_DeclILi2EEEvRK9idCmdArgsPFvPKcE,"axG",@progbits,_ZN11idCmdSystem18ArgCompletion_DeclILi2EEEvRK9idCmdArgsPFvPKcE,comdat
	.align 2
	.weak	_ZN11idCmdSystem18ArgCompletion_DeclILi2EEEvRK9idCmdArgsPFvPKcE
	.type	_ZN11idCmdSystem18ArgCompletion_DeclILi2EEEvRK9idCmdArgsPFvPKcE, @function
_ZN11idCmdSystem18ArgCompletion_DeclILi2EEEvRK9idCmdArgsPFvPKcE:
.LFB2899:
	.loc 7 148 0
	.cfi_startproc
.LVL183:
	mflr 0
	stwu 1,-8(1)
.LCFI72:
	.cfi_def_cfa_offset 8
	.cfi_register 65, 0
	.loc 7 149 0
	lis 9,cmdSystem@ha
	.loc 7 148 0
	mr 11,3
	.loc 7 149 0
	lwz 9,cmdSystem@l(9)
	.loc 7 148 0
	mr 5,4
	stw 0,12(1)
	.loc 7 149 0
	mr 4,11
.LVL184:
	mr 3,9
.LVL185:
	li 6,2
	lwz 10,0(9)
	lwz 0,48(10)
	.cfi_offset 65, 4
	mtctr 0
	bctrl
.LVL186:
	.loc 7 150 0
	lwz 0,12(1)
	addi 1,1,8
.LCFI73:
	.cfi_def_cfa_offset 0
	mtlr 0
	blr
	.cfi_endproc
.LFE2899:
	.size	_ZN11idCmdSystem18ArgCompletion_DeclILi2EEEvRK9idCmdArgsPFvPKcE, .-_ZN11idCmdSystem18ArgCompletion_DeclILi2EEEvRK9idCmdArgsPFvPKcE
	.section	.text._Z14idPrintDecls_fIL10declType_t3EEvRK9idCmdArgs,"axG",@progbits,_Z14idPrintDecls_fIL10declType_t3EEvRK9idCmdArgs,comdat
	.align 2
	.weak	_Z14idPrintDecls_fIL10declType_t3EEvRK9idCmdArgs
	.type	_Z14idPrintDecls_fIL10declType_t3EEvRK9idCmdArgs, @function
_Z14idPrintDecls_fIL10declType_t3EEvRK9idCmdArgs:
.LFB2900:
	.loc 3 337 0
	.cfi_startproc
.LVL187:
	mflr 0
	stwu 1,-8(1)
.LCFI74:
	.cfi_def_cfa_offset 8
	.cfi_register 65, 0
	.loc 3 338 0
	lis 9,declManager@ha
	.loc 3 337 0
	mr 4,3
	.loc 3 338 0
	lwz 9,declManager@l(9)
	li 5,3
	.loc 3 337 0
	stw 0,12(1)
	.loc 3 338 0
	mr 3,9
.LVL188:
	lwz 11,0(9)
	lwz 0,84(11)
	.cfi_offset 65, 4
	mtctr 0
	bctrl
.LVL189:
	.loc 3 339 0
	lwz 0,12(1)
	addi 1,1,8
.LCFI75:
	.cfi_def_cfa_offset 0
	mtlr 0
	blr
	.cfi_endproc
.LFE2900:
	.size	_Z14idPrintDecls_fIL10declType_t3EEvRK9idCmdArgs, .-_Z14idPrintDecls_fIL10declType_t3EEvRK9idCmdArgs
	.section	.text._ZN11idCmdSystem18ArgCompletion_DeclILi3EEEvRK9idCmdArgsPFvPKcE,"axG",@progbits,_ZN11idCmdSystem18ArgCompletion_DeclILi3EEEvRK9idCmdArgsPFvPKcE,comdat
	.align 2
	.weak	_ZN11idCmdSystem18ArgCompletion_DeclILi3EEEvRK9idCmdArgsPFvPKcE
	.type	_ZN11idCmdSystem18ArgCompletion_DeclILi3EEEvRK9idCmdArgsPFvPKcE, @function
_ZN11idCmdSystem18ArgCompletion_DeclILi3EEEvRK9idCmdArgsPFvPKcE:
.LFB2901:
	.loc 7 148 0
	.cfi_startproc
.LVL190:
	mflr 0
	stwu 1,-8(1)
.LCFI76:
	.cfi_def_cfa_offset 8
	.cfi_register 65, 0
	.loc 7 149 0
	lis 9,cmdSystem@ha
	.loc 7 148 0
	mr 11,3
	.loc 7 149 0
	lwz 9,cmdSystem@l(9)
	.loc 7 148 0
	mr 5,4
	stw 0,12(1)
	.loc 7 149 0
	mr 4,11
.LVL191:
	mr 3,9
.LVL192:
	li 6,3
	lwz 10,0(9)
	lwz 0,48(10)
	.cfi_offset 65, 4
	mtctr 0
	bctrl
.LVL193:
	.loc 7 150 0
	lwz 0,12(1)
	addi 1,1,8
.LCFI77:
	.cfi_def_cfa_offset 0
	mtlr 0
	blr
	.cfi_endproc
.LFE2901:
	.size	_ZN11idCmdSystem18ArgCompletion_DeclILi3EEEvRK9idCmdArgsPFvPKcE, .-_ZN11idCmdSystem18ArgCompletion_DeclILi3EEEvRK9idCmdArgsPFvPKcE
	.section	.text._Z14idPrintDecls_fIL10declType_t4EEvRK9idCmdArgs,"axG",@progbits,_Z14idPrintDecls_fIL10declType_t4EEvRK9idCmdArgs,comdat
	.align 2
	.weak	_Z14idPrintDecls_fIL10declType_t4EEvRK9idCmdArgs
	.type	_Z14idPrintDecls_fIL10declType_t4EEvRK9idCmdArgs, @function
_Z14idPrintDecls_fIL10declType_t4EEvRK9idCmdArgs:
.LFB2902:
	.loc 3 337 0
	.cfi_startproc
.LVL194:
	mflr 0
	stwu 1,-8(1)
.LCFI78:
	.cfi_def_cfa_offset 8
	.cfi_register 65, 0
	.loc 3 338 0
	lis 9,declManager@ha
	.loc 3 337 0
	mr 4,3
	.loc 3 338 0
	lwz 9,declManager@l(9)
	li 5,4
	.loc 3 337 0
	stw 0,12(1)
	.loc 3 338 0
	mr 3,9
.LVL195:
	lwz 11,0(9)
	lwz 0,84(11)
	.cfi_offset 65, 4
	mtctr 0
	bctrl
.LVL196:
	.loc 3 339 0
	lwz 0,12(1)
	addi 1,1,8
.LCFI79:
	.cfi_def_cfa_offset 0
	mtlr 0
	blr
	.cfi_endproc
.LFE2902:
	.size	_Z14idPrintDecls_fIL10declType_t4EEvRK9idCmdArgs, .-_Z14idPrintDecls_fIL10declType_t4EEvRK9idCmdArgs
	.section	.text._ZN11idCmdSystem18ArgCompletion_DeclILi4EEEvRK9idCmdArgsPFvPKcE,"axG",@progbits,_ZN11idCmdSystem18ArgCompletion_DeclILi4EEEvRK9idCmdArgsPFvPKcE,comdat
	.align 2
	.weak	_ZN11idCmdSystem18ArgCompletion_DeclILi4EEEvRK9idCmdArgsPFvPKcE
	.type	_ZN11idCmdSystem18ArgCompletion_DeclILi4EEEvRK9idCmdArgsPFvPKcE, @function
_ZN11idCmdSystem18ArgCompletion_DeclILi4EEEvRK9idCmdArgsPFvPKcE:
.LFB2903:
	.loc 7 148 0
	.cfi_startproc
.LVL197:
	mflr 0
	stwu 1,-8(1)
.LCFI80:
	.cfi_def_cfa_offset 8
	.cfi_register 65, 0
	.loc 7 149 0
	lis 9,cmdSystem@ha
	.loc 7 148 0
	mr 11,3
	.loc 7 149 0
	lwz 9,cmdSystem@l(9)
	.loc 7 148 0
	mr 5,4
	stw 0,12(1)
	.loc 7 149 0
	mr 4,11
.LVL198:
	mr 3,9
.LVL199:
	li 6,4
	lwz 10,0(9)
	lwz 0,48(10)
	.cfi_offset 65, 4
	mtctr 0
	bctrl
.LVL200:
	.loc 7 150 0
	lwz 0,12(1)
	addi 1,1,8
.LCFI81:
	.cfi_def_cfa_offset 0
	mtlr 0
	blr
	.cfi_endproc
.LFE2903:
	.size	_ZN11idCmdSystem18ArgCompletion_DeclILi4EEEvRK9idCmdArgsPFvPKcE, .-_ZN11idCmdSystem18ArgCompletion_DeclILi4EEEvRK9idCmdArgsPFvPKcE
	.section	.text._Z14idPrintDecls_fIL10declType_t6EEvRK9idCmdArgs,"axG",@progbits,_Z14idPrintDecls_fIL10declType_t6EEvRK9idCmdArgs,comdat
	.align 2
	.weak	_Z14idPrintDecls_fIL10declType_t6EEvRK9idCmdArgs
	.type	_Z14idPrintDecls_fIL10declType_t6EEvRK9idCmdArgs, @function
_Z14idPrintDecls_fIL10declType_t6EEvRK9idCmdArgs:
.LFB2904:
	.loc 3 337 0
	.cfi_startproc
.LVL201:
	mflr 0
	stwu 1,-8(1)
.LCFI82:
	.cfi_def_cfa_offset 8
	.cfi_register 65, 0
	.loc 3 338 0
	lis 9,declManager@ha
	.loc 3 337 0
	mr 4,3
	.loc 3 338 0
	lwz 9,declManager@l(9)
	li 5,6
	.loc 3 337 0
	stw 0,12(1)
	.loc 3 338 0
	mr 3,9
.LVL202:
	lwz 11,0(9)
	lwz 0,84(11)
	.cfi_offset 65, 4
	mtctr 0
	bctrl
.LVL203:
	.loc 3 339 0
	lwz 0,12(1)
	addi 1,1,8
.LCFI83:
	.cfi_def_cfa_offset 0
	mtlr 0
	blr
	.cfi_endproc
.LFE2904:
	.size	_Z14idPrintDecls_fIL10declType_t6EEvRK9idCmdArgs, .-_Z14idPrintDecls_fIL10declType_t6EEvRK9idCmdArgs
	.section	.text._ZN11idCmdSystem18ArgCompletion_DeclILi6EEEvRK9idCmdArgsPFvPKcE,"axG",@progbits,_ZN11idCmdSystem18ArgCompletion_DeclILi6EEEvRK9idCmdArgsPFvPKcE,comdat
	.align 2
	.weak	_ZN11idCmdSystem18ArgCompletion_DeclILi6EEEvRK9idCmdArgsPFvPKcE
	.type	_ZN11idCmdSystem18ArgCompletion_DeclILi6EEEvRK9idCmdArgsPFvPKcE, @function
_ZN11idCmdSystem18ArgCompletion_DeclILi6EEEvRK9idCmdArgsPFvPKcE:
.LFB2905:
	.loc 7 148 0
	.cfi_startproc
.LVL204:
	mflr 0
	stwu 1,-8(1)
.LCFI84:
	.cfi_def_cfa_offset 8
	.cfi_register 65, 0
	.loc 7 149 0
	lis 9,cmdSystem@ha
	.loc 7 148 0
	mr 11,3
	.loc 7 149 0
	lwz 9,cmdSystem@l(9)
	.loc 7 148 0
	mr 5,4
	stw 0,12(1)
	.loc 7 149 0
	mr 4,11
.LVL205:
	mr 3,9
.LVL206:
	li 6,6
	lwz 10,0(9)
	lwz 0,48(10)
	.cfi_offset 65, 4
	mtctr 0
	bctrl
.LVL207:
	.loc 7 150 0
	lwz 0,12(1)
	addi 1,1,8
.LCFI85:
	.cfi_def_cfa_offset 0
	mtlr 0
	blr
	.cfi_endproc
.LFE2905:
	.size	_ZN11idCmdSystem18ArgCompletion_DeclILi6EEEvRK9idCmdArgsPFvPKcE, .-_ZN11idCmdSystem18ArgCompletion_DeclILi6EEEvRK9idCmdArgsPFvPKcE
	.section	.text._Z14idPrintDecls_fIL10declType_t7EEvRK9idCmdArgs,"axG",@progbits,_Z14idPrintDecls_fIL10declType_t7EEvRK9idCmdArgs,comdat
	.align 2
	.weak	_Z14idPrintDecls_fIL10declType_t7EEvRK9idCmdArgs
	.type	_Z14idPrintDecls_fIL10declType_t7EEvRK9idCmdArgs, @function
_Z14idPrintDecls_fIL10declType_t7EEvRK9idCmdArgs:
.LFB2906:
	.loc 3 337 0
	.cfi_startproc
.LVL208:
	mflr 0
	stwu 1,-8(1)
.LCFI86:
	.cfi_def_cfa_offset 8
	.cfi_register 65, 0
	.loc 3 338 0
	lis 9,declManager@ha
	.loc 3 337 0
	mr 4,3
	.loc 3 338 0
	lwz 9,declManager@l(9)
	li 5,7
	.loc 3 337 0
	stw 0,12(1)
	.loc 3 338 0
	mr 3,9
.LVL209:
	lwz 11,0(9)
	lwz 0,84(11)
	.cfi_offset 65, 4
	mtctr 0
	bctrl
.LVL210:
	.loc 3 339 0
	lwz 0,12(1)
	addi 1,1,8
.LCFI87:
	.cfi_def_cfa_offset 0
	mtlr 0
	blr
	.cfi_endproc
.LFE2906:
	.size	_Z14idPrintDecls_fIL10declType_t7EEvRK9idCmdArgs, .-_Z14idPrintDecls_fIL10declType_t7EEvRK9idCmdArgs
	.section	.text._ZN11idCmdSystem18ArgCompletion_DeclILi7EEEvRK9idCmdArgsPFvPKcE,"axG",@progbits,_ZN11idCmdSystem18ArgCompletion_DeclILi7EEEvRK9idCmdArgsPFvPKcE,comdat
	.align 2
	.weak	_ZN11idCmdSystem18ArgCompletion_DeclILi7EEEvRK9idCmdArgsPFvPKcE
	.type	_ZN11idCmdSystem18ArgCompletion_DeclILi7EEEvRK9idCmdArgsPFvPKcE, @function
_ZN11idCmdSystem18ArgCompletion_DeclILi7EEEvRK9idCmdArgsPFvPKcE:
.LFB2907:
	.loc 7 148 0
	.cfi_startproc
.LVL211:
	mflr 0
	stwu 1,-8(1)
.LCFI88:
	.cfi_def_cfa_offset 8
	.cfi_register 65, 0
	.loc 7 149 0
	lis 9,cmdSystem@ha
	.loc 7 148 0
	mr 11,3
	.loc 7 149 0
	lwz 9,cmdSystem@l(9)
	.loc 7 148 0
	mr 5,4
	stw 0,12(1)
	.loc 7 149 0
	mr 4,11
.LVL212:
	mr 3,9
.LVL213:
	li 6,7
	lwz 10,0(9)
	lwz 0,48(10)
	.cfi_offset 65, 4
	mtctr 0
	bctrl
.LVL214:
	.loc 7 150 0
	lwz 0,12(1)
	addi 1,1,8
.LCFI89:
	.cfi_def_cfa_offset 0
	mtlr 0
	blr
	.cfi_endproc
.LFE2907:
	.size	_ZN11idCmdSystem18ArgCompletion_DeclILi7EEEvRK9idCmdArgsPFvPKcE, .-_ZN11idCmdSystem18ArgCompletion_DeclILi7EEEvRK9idCmdArgsPFvPKcE
	.section	.text._Z14idPrintDecls_fIL10declType_t8EEvRK9idCmdArgs,"axG",@progbits,_Z14idPrintDecls_fIL10declType_t8EEvRK9idCmdArgs,comdat
	.align 2
	.weak	_Z14idPrintDecls_fIL10declType_t8EEvRK9idCmdArgs
	.type	_Z14idPrintDecls_fIL10declType_t8EEvRK9idCmdArgs, @function
_Z14idPrintDecls_fIL10declType_t8EEvRK9idCmdArgs:
.LFB2908:
	.loc 3 337 0
	.cfi_startproc
.LVL215:
	mflr 0
	stwu 1,-8(1)
.LCFI90:
	.cfi_def_cfa_offset 8
	.cfi_register 65, 0
	.loc 3 338 0
	lis 9,declManager@ha
	.loc 3 337 0
	mr 4,3
	.loc 3 338 0
	lwz 9,declManager@l(9)
	li 5,8
	.loc 3 337 0
	stw 0,12(1)
	.loc 3 338 0
	mr 3,9
.LVL216:
	lwz 11,0(9)
	lwz 0,84(11)
	.cfi_offset 65, 4
	mtctr 0
	bctrl
.LVL217:
	.loc 3 339 0
	lwz 0,12(1)
	addi 1,1,8
.LCFI91:
	.cfi_def_cfa_offset 0
	mtlr 0
	blr
	.cfi_endproc
.LFE2908:
	.size	_Z14idPrintDecls_fIL10declType_t8EEvRK9idCmdArgs, .-_Z14idPrintDecls_fIL10declType_t8EEvRK9idCmdArgs
	.section	.text._ZN11idCmdSystem18ArgCompletion_DeclILi8EEEvRK9idCmdArgsPFvPKcE,"axG",@progbits,_ZN11idCmdSystem18ArgCompletion_DeclILi8EEEvRK9idCmdArgsPFvPKcE,comdat
	.align 2
	.weak	_ZN11idCmdSystem18ArgCompletion_DeclILi8EEEvRK9idCmdArgsPFvPKcE
	.type	_ZN11idCmdSystem18ArgCompletion_DeclILi8EEEvRK9idCmdArgsPFvPKcE, @function
_ZN11idCmdSystem18ArgCompletion_DeclILi8EEEvRK9idCmdArgsPFvPKcE:
.LFB2909:
	.loc 7 148 0
	.cfi_startproc
.LVL218:
	mflr 0
	stwu 1,-8(1)
.LCFI92:
	.cfi_def_cfa_offset 8
	.cfi_register 65, 0
	.loc 7 149 0
	lis 9,cmdSystem@ha
	.loc 7 148 0
	mr 11,3
	.loc 7 149 0
	lwz 9,cmdSystem@l(9)
	.loc 7 148 0
	mr 5,4
	stw 0,12(1)
	.loc 7 149 0
	mr 4,11
.LVL219:
	mr 3,9
.LVL220:
	li 6,8
	lwz 10,0(9)
	lwz 0,48(10)
	.cfi_offset 65, 4
	mtctr 0
	bctrl
.LVL221:
	.loc 7 150 0
	lwz 0,12(1)
	addi 1,1,8
.LCFI93:
	.cfi_def_cfa_offset 0
	mtlr 0
	blr
	.cfi_endproc
.LFE2909:
	.size	_ZN11idCmdSystem18ArgCompletion_DeclILi8EEEvRK9idCmdArgsPFvPKcE, .-_ZN11idCmdSystem18ArgCompletion_DeclILi8EEEvRK9idCmdArgsPFvPKcE
	.section	.text._Z14idPrintDecls_fIL10declType_t9EEvRK9idCmdArgs,"axG",@progbits,_Z14idPrintDecls_fIL10declType_t9EEvRK9idCmdArgs,comdat
	.align 2
	.weak	_Z14idPrintDecls_fIL10declType_t9EEvRK9idCmdArgs
	.type	_Z14idPrintDecls_fIL10declType_t9EEvRK9idCmdArgs, @function
_Z14idPrintDecls_fIL10declType_t9EEvRK9idCmdArgs:
.LFB2910:
	.loc 3 337 0
	.cfi_startproc
.LVL222:
	mflr 0
	stwu 1,-8(1)
.LCFI94:
	.cfi_def_cfa_offset 8
	.cfi_register 65, 0
	.loc 3 338 0
	lis 9,declManager@ha
	.loc 3 337 0
	mr 4,3
	.loc 3 338 0
	lwz 9,declManager@l(9)
	li 5,9
	.loc 3 337 0
	stw 0,12(1)
	.loc 3 338 0
	mr 3,9
.LVL223:
	lwz 11,0(9)
	lwz 0,84(11)
	.cfi_offset 65, 4
	mtctr 0
	bctrl
.LVL224:
	.loc 3 339 0
	lwz 0,12(1)
	addi 1,1,8
.LCFI95:
	.cfi_def_cfa_offset 0
	mtlr 0
	blr
	.cfi_endproc
.LFE2910:
	.size	_Z14idPrintDecls_fIL10declType_t9EEvRK9idCmdArgs, .-_Z14idPrintDecls_fIL10declType_t9EEvRK9idCmdArgs
	.section	.text._ZN11idCmdSystem18ArgCompletion_DeclILi9EEEvRK9idCmdArgsPFvPKcE,"axG",@progbits,_ZN11idCmdSystem18ArgCompletion_DeclILi9EEEvRK9idCmdArgsPFvPKcE,comdat
	.align 2
	.weak	_ZN11idCmdSystem18ArgCompletion_DeclILi9EEEvRK9idCmdArgsPFvPKcE
	.type	_ZN11idCmdSystem18ArgCompletion_DeclILi9EEEvRK9idCmdArgsPFvPKcE, @function
_ZN11idCmdSystem18ArgCompletion_DeclILi9EEEvRK9idCmdArgsPFvPKcE:
.LFB2911:
	.loc 7 148 0
	.cfi_startproc
.LVL225:
	mflr 0
	stwu 1,-8(1)
.LCFI96:
	.cfi_def_cfa_offset 8
	.cfi_register 65, 0
	.loc 7 149 0
	lis 9,cmdSystem@ha
	.loc 7 148 0
	mr 11,3
	.loc 7 149 0
	lwz 9,cmdSystem@l(9)
	.loc 7 148 0
	mr 5,4
	stw 0,12(1)
	.loc 7 149 0
	mr 4,11
.LVL226:
	mr 3,9
.LVL227:
	li 6,9
	lwz 10,0(9)
	lwz 0,48(10)
	.cfi_offset 65, 4
	mtctr 0
	bctrl
.LVL228:
	.loc 7 150 0
	lwz 0,12(1)
	addi 1,1,8
.LCFI97:
	.cfi_def_cfa_offset 0
	mtlr 0
	blr
	.cfi_endproc
.LFE2911:
	.size	_ZN11idCmdSystem18ArgCompletion_DeclILi9EEEvRK9idCmdArgsPFvPKcE, .-_ZN11idCmdSystem18ArgCompletion_DeclILi9EEEvRK9idCmdArgsPFvPKcE
	.section	.text._Z14idPrintDecls_fIL10declType_t12EEvRK9idCmdArgs,"axG",@progbits,_Z14idPrintDecls_fIL10declType_t12EEvRK9idCmdArgs,comdat
	.align 2
	.weak	_Z14idPrintDecls_fIL10declType_t12EEvRK9idCmdArgs
	.type	_Z14idPrintDecls_fIL10declType_t12EEvRK9idCmdArgs, @function
_Z14idPrintDecls_fIL10declType_t12EEvRK9idCmdArgs:
.LFB2912:
	.loc 3 337 0
	.cfi_startproc
.LVL229:
	mflr 0
	stwu 1,-8(1)
.LCFI98:
	.cfi_def_cfa_offset 8
	.cfi_register 65, 0
	.loc 3 338 0
	lis 9,declManager@ha
	.loc 3 337 0
	mr 4,3
	.loc 3 338 0
	lwz 9,declManager@l(9)
	li 5,12
	.loc 3 337 0
	stw 0,12(1)
	.loc 3 338 0
	mr 3,9
.LVL230:
	lwz 11,0(9)
	lwz 0,84(11)
	.cfi_offset 65, 4
	mtctr 0
	bctrl
.LVL231:
	.loc 3 339 0
	lwz 0,12(1)
	addi 1,1,8
.LCFI99:
	.cfi_def_cfa_offset 0
	mtlr 0
	blr
	.cfi_endproc
.LFE2912:
	.size	_Z14idPrintDecls_fIL10declType_t12EEvRK9idCmdArgs, .-_Z14idPrintDecls_fIL10declType_t12EEvRK9idCmdArgs
	.section	.text._ZN11idCmdSystem18ArgCompletion_DeclILi12EEEvRK9idCmdArgsPFvPKcE,"axG",@progbits,_ZN11idCmdSystem18ArgCompletion_DeclILi12EEEvRK9idCmdArgsPFvPKcE,comdat
	.align 2
	.weak	_ZN11idCmdSystem18ArgCompletion_DeclILi12EEEvRK9idCmdArgsPFvPKcE
	.type	_ZN11idCmdSystem18ArgCompletion_DeclILi12EEEvRK9idCmdArgsPFvPKcE, @function
_ZN11idCmdSystem18ArgCompletion_DeclILi12EEEvRK9idCmdArgsPFvPKcE:
.LFB2913:
	.loc 7 148 0
	.cfi_startproc
.LVL232:
	mflr 0
	stwu 1,-8(1)
.LCFI100:
	.cfi_def_cfa_offset 8
	.cfi_register 65, 0
	.loc 7 149 0
	lis 9,cmdSystem@ha
	.loc 7 148 0
	mr 11,3
	.loc 7 149 0
	lwz 9,cmdSystem@l(9)
	.loc 7 148 0
	mr 5,4
	stw 0,12(1)
	.loc 7 149 0
	mr 4,11
.LVL233:
	mr 3,9
.LVL234:
	li 6,12
	lwz 10,0(9)
	lwz 0,48(10)
	.cfi_offset 65, 4
	mtctr 0
	bctrl
.LVL235:
	.loc 7 150 0
	lwz 0,12(1)
	addi 1,1,8
.LCFI101:
	.cfi_def_cfa_offset 0
	mtlr 0
	blr
	.cfi_endproc
.LFE2913:
	.size	_ZN11idCmdSystem18ArgCompletion_DeclILi12EEEvRK9idCmdArgsPFvPKcE, .-_ZN11idCmdSystem18ArgCompletion_DeclILi12EEEvRK9idCmdArgsPFvPKcE
	.section	.text._Z14idPrintDecls_fIL10declType_t10EEvRK9idCmdArgs,"axG",@progbits,_Z14idPrintDecls_fIL10declType_t10EEvRK9idCmdArgs,comdat
	.align 2
	.weak	_Z14idPrintDecls_fIL10declType_t10EEvRK9idCmdArgs
	.type	_Z14idPrintDecls_fIL10declType_t10EEvRK9idCmdArgs, @function
_Z14idPrintDecls_fIL10declType_t10EEvRK9idCmdArgs:
.LFB2914:
	.loc 3 337 0
	.cfi_startproc
.LVL236:
	mflr 0
	stwu 1,-8(1)
.LCFI102:
	.cfi_def_cfa_offset 8
	.cfi_register 65, 0
	.loc 3 338 0
	lis 9,declManager@ha
	.loc 3 337 0
	mr 4,3
	.loc 3 338 0
	lwz 9,declManager@l(9)
	li 5,10
	.loc 3 337 0
	stw 0,12(1)
	.loc 3 338 0
	mr 3,9
.LVL237:
	lwz 11,0(9)
	lwz 0,84(11)
	.cfi_offset 65, 4
	mtctr 0
	bctrl
.LVL238:
	.loc 3 339 0
	lwz 0,12(1)
	addi 1,1,8
.LCFI103:
	.cfi_def_cfa_offset 0
	mtlr 0
	blr
	.cfi_endproc
.LFE2914:
	.size	_Z14idPrintDecls_fIL10declType_t10EEvRK9idCmdArgs, .-_Z14idPrintDecls_fIL10declType_t10EEvRK9idCmdArgs
	.section	.text._ZN11idCmdSystem18ArgCompletion_DeclILi10EEEvRK9idCmdArgsPFvPKcE,"axG",@progbits,_ZN11idCmdSystem18ArgCompletion_DeclILi10EEEvRK9idCmdArgsPFvPKcE,comdat
	.align 2
	.weak	_ZN11idCmdSystem18ArgCompletion_DeclILi10EEEvRK9idCmdArgsPFvPKcE
	.type	_ZN11idCmdSystem18ArgCompletion_DeclILi10EEEvRK9idCmdArgsPFvPKcE, @function
_ZN11idCmdSystem18ArgCompletion_DeclILi10EEEvRK9idCmdArgsPFvPKcE:
.LFB2915:
	.loc 7 148 0
	.cfi_startproc
.LVL239:
	mflr 0
	stwu 1,-8(1)
.LCFI104:
	.cfi_def_cfa_offset 8
	.cfi_register 65, 0
	.loc 7 149 0
	lis 9,cmdSystem@ha
	.loc 7 148 0
	mr 11,3
	.loc 7 149 0
	lwz 9,cmdSystem@l(9)
	.loc 7 148 0
	mr 5,4
	stw 0,12(1)
	.loc 7 149 0
	mr 4,11
.LVL240:
	mr 3,9
.LVL241:
	li 6,10
	lwz 10,0(9)
	lwz 0,48(10)
	.cfi_offset 65, 4
	mtctr 0
	bctrl
.LVL242:
	.loc 7 150 0
	lwz 0,12(1)
	addi 1,1,8
.LCFI105:
	.cfi_def_cfa_offset 0
	mtlr 0
	blr
	.cfi_endproc
.LFE2915:
	.size	_ZN11idCmdSystem18ArgCompletion_DeclILi10EEEvRK9idCmdArgsPFvPKcE, .-_ZN11idCmdSystem18ArgCompletion_DeclILi10EEEvRK9idCmdArgsPFvPKcE
	.section	.text._Z14idPrintDecls_fIL10declType_t11EEvRK9idCmdArgs,"axG",@progbits,_Z14idPrintDecls_fIL10declType_t11EEvRK9idCmdArgs,comdat
	.align 2
	.weak	_Z14idPrintDecls_fIL10declType_t11EEvRK9idCmdArgs
	.type	_Z14idPrintDecls_fIL10declType_t11EEvRK9idCmdArgs, @function
_Z14idPrintDecls_fIL10declType_t11EEvRK9idCmdArgs:
.LFB2916:
	.loc 3 337 0
	.cfi_startproc
.LVL243:
	mflr 0
	stwu 1,-8(1)
.LCFI106:
	.cfi_def_cfa_offset 8
	.cfi_register 65, 0
	.loc 3 338 0
	lis 9,declManager@ha
	.loc 3 337 0
	mr 4,3
	.loc 3 338 0
	lwz 9,declManager@l(9)
	li 5,11
	.loc 3 337 0
	stw 0,12(1)
	.loc 3 338 0
	mr 3,9
.LVL244:
	lwz 11,0(9)
	lwz 0,84(11)
	.cfi_offset 65, 4
	mtctr 0
	bctrl
.LVL245:
	.loc 3 339 0
	lwz 0,12(1)
	addi 1,1,8
.LCFI107:
	.cfi_def_cfa_offset 0
	mtlr 0
	blr
	.cfi_endproc
.LFE2916:
	.size	_Z14idPrintDecls_fIL10declType_t11EEvRK9idCmdArgs, .-_Z14idPrintDecls_fIL10declType_t11EEvRK9idCmdArgs
	.section	.text._ZN11idCmdSystem18ArgCompletion_DeclILi11EEEvRK9idCmdArgsPFvPKcE,"axG",@progbits,_ZN11idCmdSystem18ArgCompletion_DeclILi11EEEvRK9idCmdArgsPFvPKcE,comdat
	.align 2
	.weak	_ZN11idCmdSystem18ArgCompletion_DeclILi11EEEvRK9idCmdArgsPFvPKcE
	.type	_ZN11idCmdSystem18ArgCompletion_DeclILi11EEEvRK9idCmdArgsPFvPKcE, @function
_ZN11idCmdSystem18ArgCompletion_DeclILi11EEEvRK9idCmdArgsPFvPKcE:
.LFB2917:
	.loc 7 148 0
	.cfi_startproc
.LVL246:
	mflr 0
	stwu 1,-8(1)
.LCFI108:
	.cfi_def_cfa_offset 8
	.cfi_register 65, 0
	.loc 7 149 0
	lis 9,cmdSystem@ha
	.loc 7 148 0
	mr 11,3
	.loc 7 149 0
	lwz 9,cmdSystem@l(9)
	.loc 7 148 0
	mr 5,4
	stw 0,12(1)
	.loc 7 149 0
	mr 4,11
.LVL247:
	mr 3,9
.LVL248:
	li 6,11
	lwz 10,0(9)
	lwz 0,48(10)
	.cfi_offset 65, 4
	mtctr 0
	bctrl
.LVL249:
	.loc 7 150 0
	lwz 0,12(1)
	addi 1,1,8
.LCFI109:
	.cfi_def_cfa_offset 0
	mtlr 0
	blr
	.cfi_endproc
.LFE2917:
	.size	_ZN11idCmdSystem18ArgCompletion_DeclILi11EEEvRK9idCmdArgsPFvPKcE, .-_ZN11idCmdSystem18ArgCompletion_DeclILi11EEEvRK9idCmdArgsPFvPKcE
	.section	.text._ZN9idWinding5ClearEv,"axG",@progbits,_ZN9idWinding5ClearEv,comdat
	.align 2
	.weak	_ZN9idWinding5ClearEv
	.type	_ZN9idWinding5ClearEv, @function
_ZN9idWinding5ClearEv:
.LFB1473:
	.loc 1 249 0
	.cfi_startproc
.LVL250:
	mflr 0
	stwu 1,-16(1)
.LCFI110:
	.cfi_def_cfa_offset 16
	.cfi_register 65, 0
	stw 31,12(1)
	mr 31,3
	.cfi_offset 31, -4
	stw 0,20(1)
	.loc 1 250 0
	li 0,0
	.cfi_offset 65, 4
	.loc 1 251 0
	lwz 3,8(3)
.LVL251:
	.loc 1 250 0
	stw 0,4(31)
	.loc 1 251 0
	cmpwi 7,3,0
	beq- 7,.L123
	.loc 1 251 0 is_stmt 0 discriminator 1
	bl _ZdaPv
.L123:
	.loc 1 252 0 is_stmt 1
	li 0,0
	stw 0,8(31)
	.loc 1 253 0
	lwz 0,20(1)
	lwz 31,12(1)
.LVL252:
	mtlr 0
	addi 1,1,16
.LCFI111:
	.cfi_def_cfa_offset 0
	.cfi_restore 31
	blr
	.cfi_endproc
.LFE1473:
	.size	_ZN9idWinding5ClearEv, .-_ZN9idWinding5ClearEv
	.section	.text._ZN9idWindingD2Ev,"axG",@progbits,_ZN9idWindingD5Ev,comdat
	.align 2
	.weak	_ZN9idWindingD2Ev
	.type	_ZN9idWindingD2Ev, @function
_ZN9idWindingD2Ev:
.LFB1461:
	.loc 1 183 0
	.cfi_startproc
.LVL253:
	mflr 0
	stwu 1,-16(1)
.LCFI112:
	.cfi_def_cfa_offset 16
	.cfi_register 65, 0
.LBB1949:
	lis 9,_ZTV9idWinding+8@ha
.LBE1949:
	stw 31,12(1)
	mr 31,3
	.cfi_offset 31, -4
	stw 0,20(1)
.LBB1950:
	.loc 1 183 0
	la 0,_ZTV9idWinding+8@l(9)
	.cfi_offset 65, 4
	.loc 1 184 0
	lwz 3,8(3)
.LVL254:
	.loc 1 183 0
	stw 0,0(31)
	.loc 1 184 0
	cmpwi 7,3,0
	beq- 7,.L125
	.loc 1 184 0 is_stmt 0 discriminator 1
	bl _ZdaPv
.L125:
	.loc 1 185 0 is_stmt 1
	li 0,0
	stw 0,8(31)
.LBE1950:
	.loc 1 186 0
	lwz 0,20(1)
	lwz 31,12(1)
.LVL255:
	mtlr 0
	addi 1,1,16
.LCFI113:
	.cfi_def_cfa_offset 0
	.cfi_restore 31
	blr
	.cfi_endproc
.LFE1461:
	.size	_ZN9idWindingD2Ev, .-_ZN9idWindingD2Ev
	.section	.text._ZN13idDeclManagerD0Ev,"axG",@progbits,_ZN13idDeclManagerD5Ev,comdat
	.align 2
	.weak	_ZN13idDeclManagerD0Ev
	.type	_ZN13idDeclManagerD0Ev, @function
_ZN13idDeclManagerD0Ev:
.LFB2290:
	.loc 3 252 0
	.cfi_startproc
.LVL256:
	mflr 0
	stwu 1,-8(1)
.LCFI114:
	.cfi_def_cfa_offset 8
	.cfi_register 65, 0
.LBB1951:
.LBB1952:
.LBB1953:
	lis 9,_ZTV13idDeclManager+8@ha
.LBE1953:
.LBE1952:
.LBE1951:
	stw 0,12(1)
.LBB1956:
.LBB1955:
.LBB1954:
	.loc 3 252 0
	la 0,_ZTV13idDeclManager+8@l(9)
	.cfi_offset 65, 4
	stw 0,0(3)
.LBE1954:
.LBE1955:
.LBE1956:
	bl _ZdlPv
.LVL257:
	lwz 0,12(1)
	addi 1,1,8
.LCFI115:
	.cfi_def_cfa_offset 0
	mtlr 0
	blr
	.cfi_endproc
.LFE2290:
	.size	_ZN13idDeclManagerD0Ev, .-_ZN13idDeclManagerD0Ev
	.section	.text._ZN6idDeclD0Ev,"axG",@progbits,_ZN6idDeclD5Ev,comdat
	.align 2
	.weak	_ZN6idDeclD0Ev
	.type	_ZN6idDeclD0Ev, @function
_ZN6idDeclD0Ev:
.LFB2261:
	.loc 3 137 0
	.cfi_startproc
.LVL258:
	mflr 0
	stwu 1,-8(1)
.LCFI116:
	.cfi_def_cfa_offset 8
	.cfi_register 65, 0
.LBB1957:
.LBB1958:
.LBB1959:
	lis 9,_ZTV6idDecl+8@ha
.LBE1959:
.LBE1958:
.LBE1957:
	stw 0,12(1)
.LBB1962:
.LBB1961:
.LBB1960:
	.loc 3 137 0
	la 0,_ZTV6idDecl+8@l(9)
	.cfi_offset 65, 4
	stw 0,0(3)
.LBE1960:
.LBE1961:
.LBE1962:
	bl _ZdlPv
.LVL259:
	lwz 0,12(1)
	addi 1,1,8
.LCFI117:
	.cfi_def_cfa_offset 0
	mtlr 0
	blr
	.cfi_endproc
.LFE2261:
	.size	_ZN6idDeclD0Ev, .-_ZN6idDeclD0Ev
	.section	.text._ZN10idDeclBaseD0Ev,"axG",@progbits,_ZN10idDeclBaseD5Ev,comdat
	.align 2
	.weak	_ZN10idDeclBaseD0Ev
	.type	_ZN10idDeclBaseD0Ev, @function
_ZN10idDeclBaseD0Ev:
.LFB2254:
	.loc 3 103 0
	.cfi_startproc
.LVL260:
	mflr 0
	stwu 1,-8(1)
.LCFI118:
	.cfi_def_cfa_offset 8
	.cfi_register 65, 0
.LBB1963:
.LBB1964:
.LBB1965:
	lis 9,_ZTV10idDeclBase+8@ha
.LBE1965:
.LBE1964:
.LBE1963:
	stw 0,12(1)
.LBB1968:
.LBB1967:
.LBB1966:
	.loc 3 103 0
	la 0,_ZTV10idDeclBase+8@l(9)
	.cfi_offset 65, 4
	stw 0,0(3)
.LBE1966:
.LBE1967:
.LBE1968:
	bl _ZdlPv
.LVL261:
	lwz 0,12(1)
	addi 1,1,8
.LCFI119:
	.cfi_def_cfa_offset 0
	mtlr 0
	blr
	.cfi_endproc
.LFE2254:
	.size	_ZN10idDeclBaseD0Ev, .-_ZN10idDeclBaseD0Ev
	.section	.text._ZN6idCVarD0Ev,"axG",@progbits,_ZN6idCVarD5Ev,comdat
	.align 2
	.weak	_ZN6idCVarD0Ev
	.type	_ZN6idCVarD0Ev, @function
_ZN6idCVarD0Ev:
.LFB2177:
	.loc 2 127 0
	.cfi_startproc
.LVL262:
	mflr 0
	stwu 1,-8(1)
.LCFI120:
	.cfi_def_cfa_offset 8
	.cfi_register 65, 0
.LBB1969:
.LBB1970:
.LBB1971:
	lis 9,_ZTV6idCVar+8@ha
.LBE1971:
.LBE1970:
.LBE1969:
	stw 0,12(1)
.LBB1974:
.LBB1973:
.LBB1972:
	.loc 2 127 0
	la 0,_ZTV6idCVar+8@l(9)
	.cfi_offset 65, 4
	stw 0,0(3)
.LBE1972:
.LBE1973:
.LBE1974:
	bl _ZdlPv
.LVL263:
	lwz 0,12(1)
	addi 1,1,8
.LCFI121:
	.cfi_def_cfa_offset 0
	mtlr 0
	blr
	.cfi_endproc
.LFE2177:
	.size	_ZN6idCVarD0Ev, .-_ZN6idCVarD0Ev
	.section	.text._ZN11idDeclLocalD2Ev,"axG",@progbits,_ZN11idDeclLocalD5Ev,comdat
	.align 2
	.weak	_ZN11idDeclLocalD2Ev
	.type	_ZN11idDeclLocalD2Ev, @function
_ZN11idDeclLocalD2Ev:
.LFB2539:
	.loc 4 89 0
	.cfi_startproc
	.cfi_personality 0,__gxx_personality_v0
	.cfi_lsda 0,.LLSDA2539
.LVL264:
	mflr 0
	stwu 1,-16(1)
.LCFI122:
	.cfi_def_cfa_offset 16
	.cfi_register 65, 0
.LBB1985:
	lis 9,_ZTV11idDeclLocal+8@ha
.LBE1985:
	stw 31,12(1)
	mr 31,3
	.cfi_offset 31, -4
	stw 0,20(1)
.LBB1995:
	.loc 4 89 0
	la 0,_ZTV11idDeclLocal+8@l(9)
	.cfi_offset 65, 4
	stw 0,0(3)
.LVL265:
.LBB1986:
.LBB1987:
.LBB1988:
	.loc 6 501 0
	addi 3,3,8
.LVL266:
.LEHB0:
	bl _ZN5idStr8FreeDataEv
.LEHE0:
.LVL267:
.LBE1988:
.LBE1987:
.LBE1986:
.LBB1989:
.LBB1990:
.LBB1991:
	.loc 3 103 0 discriminator 1
	lis 9,_ZTV10idDeclBase+8@ha
	la 0,_ZTV10idDeclBase+8@l(9)
	stw 0,0(31)
.LBE1991:
.LBE1990:
.LBE1989:
.LBE1995:
	.loc 4 89 0 discriminator 1
	lwz 0,20(1)
	lwz 31,12(1)
.LVL268:
	mtlr 0
	addi 1,1,16
	.cfi_remember_state
.LCFI123:
	.cfi_def_cfa_offset 0
	.cfi_restore 31
	blr
.LVL269:
.L145:
.LCFI124:
	.cfi_restore_state
.LBB1996:
.LBB1992:
.LBB1993:
.LBB1994:
	.loc 3 103 0
	lis 9,_ZTV10idDeclBase+8@ha
	la 0,_ZTV10idDeclBase+8@l(9)
	stw 0,0(31)
.LEHB1:
	bl _Unwind_Resume
.LEHE1:
.LBE1994:
.LBE1993:
.LBE1992:
.LBE1996:
	.cfi_endproc
.LFE2539:
	.globl __gxx_personality_v0
	.section	.gcc_except_table,"a",@progbits
.LLSDA2539:
	.byte	0xff
	.byte	0xff
	.byte	0x1
	.uleb128 .LLSDACSE2539-.LLSDACSB2539
.LLSDACSB2539:
	.uleb128 .LEHB0-.LFB2539
	.uleb128 .LEHE0-.LEHB0
	.uleb128 .L145-.LFB2539
	.uleb128 0
	.uleb128 .LEHB1-.LFB2539
	.uleb128 .LEHE1-.LEHB1
	.uleb128 0
	.uleb128 0
.LLSDACSE2539:
	.section	.text._ZN11idDeclLocalD2Ev,"axG",@progbits,_ZN11idDeclLocalD5Ev,comdat
	.size	_ZN11idDeclLocalD2Ev, .-_ZN11idDeclLocalD2Ev
	.section	.text._ZN11idCmdSystem21ArgCompletion_IntegerILi0ELi2EEEvRK9idCmdArgsPFvPKcE,"axG",@progbits,_ZN11idCmdSystem21ArgCompletion_IntegerILi0ELi2EEEvRK9idCmdArgsPFvPKcE,comdat
	.align 2
	.weak	_ZN11idCmdSystem21ArgCompletion_IntegerILi0ELi2EEEvRK9idCmdArgsPFvPKcE
	.type	_ZN11idCmdSystem21ArgCompletion_IntegerILi0ELi2EEEvRK9idCmdArgsPFvPKcE, @function
_ZN11idCmdSystem21ArgCompletion_IntegerILi0ELi2EEEvRK9idCmdArgsPFvPKcE:
.LFB2830:
	.loc 7 136 0
	.cfi_startproc
.LVL270:
	mflr 0
	stwu 1,-32(1)
.LCFI125:
	.cfi_def_cfa_offset 32
	.cfi_register 65, 0
	stw 29,20(1)
	lis 29,.LC15@ha
	.cfi_offset 29, -12
	stw 0,36(1)
	la 29,.LC15@l(29)
	stw 4,8(1)
	stw 28,16(1)
.LBB1997:
.LBB1998:
.LBB1999:
	.file 8 "d:/Data/Nintendo/DoomGX/src/framework/../idlib/../idlib/CmdArgs.h"
	.loc 8 50 0
	lis 28,.LC14@ha
	.cfi_offset 28, -16
	.cfi_offset 65, 4
.LBE1999:
.LBE1998:
.LBE1997:
	.loc 7 136 0
	stw 30,24(1)
	mr 30,3
	.cfi_offset 30, -8
	stw 31,28(1)
	.loc 7 137 0
	li 31,0
	.cfi_offset 31, -4
.LVL271:
.L148:
.LBB2004:
.LBB2002:
.LBB2000:
	.loc 8 50 0
	lwz 0,0(30)
	cmpwi 7,0,0
	ble- 7,.L149
	lwz 4,4(30)
.L147:
.LBE2000:
.LBE2002:
	.loc 7 138 0
	mr 5,31
	mr 3,29
	crxor 6,6,6
	bl _Z2vaPKcz
	lwz 0,8(1)
	mtctr 0
	bctrl
.LVL272:
	.loc 7 137 0
	cmpwi 7,31,2
	addi 31,31,1
.LVL273:
	bne+ 7,.L148
.LBE2004:
	.loc 7 140 0
	lwz 0,36(1)
	lwz 28,16(1)
	mtlr 0
	lwz 29,20(1)
	lwz 30,24(1)
.LVL274:
	lwz 31,28(1)
.LVL275:
	addi 1,1,32
	.cfi_remember_state
.LCFI126:
	.cfi_def_cfa_offset 0
	.cfi_restore 31
	.cfi_restore 30
	.cfi_restore 29
	.cfi_restore 28
	blr
.LVL276:
.L149:
.LCFI127:
	.cfi_restore_state
.LBB2005:
.LBB2003:
.LBB2001:
	.loc 8 50 0
	la 4,.LC14@l(28)
	b .L147
.LBE2001:
.LBE2003:
.LBE2005:
	.cfi_endproc
.LFE2830:
	.size	_ZN11idCmdSystem21ArgCompletion_IntegerILi0ELi2EEEvRK9idCmdArgsPFvPKcE, .-_ZN11idCmdSystem21ArgCompletion_IntegerILi0ELi2EEEvRK9idCmdArgsPFvPKcE
	.section	.text._ZN11idCmdSystem20ArgCompletion_StringIXadL_Z15listDeclStringsEEEEvRK9idCmdArgsPFvPKcE,"axG",@progbits,_ZN11idCmdSystem20ArgCompletion_StringIXadL_Z15listDeclStringsEEEEvRK9idCmdArgsPFvPKcE,comdat
	.align 2
	.weak	_ZN11idCmdSystem20ArgCompletion_StringIXadL_Z15listDeclStringsEEEEvRK9idCmdArgsPFvPKcE
	.type	_ZN11idCmdSystem20ArgCompletion_StringIXadL_Z15listDeclStringsEEEEvRK9idCmdArgsPFvPKcE, @function
_ZN11idCmdSystem20ArgCompletion_StringIXadL_Z15listDeclStringsEEEEvRK9idCmdArgsPFvPKcE:
.LFB2882:
	.loc 7 142 0
	.cfi_startproc
.LVL277:
	mflr 0
	stwu 1,-32(1)
.LCFI128:
	.cfi_def_cfa_offset 32
	.cfi_register 65, 0
	stw 30,24(1)
	mr 30,3
	.cfi_offset 30, -8
	stw 31,28(1)
.LBB2006:
	.loc 7 143 0
	lis 31,.LANCHOR1@ha
	.cfi_offset 31, -4
.LBE2006:
	.loc 7 142 0
	stw 0,36(1)
.LBB2011:
	.loc 7 143 0
	la 31,.LANCHOR1@l(31)
.LBE2011:
	.loc 7 142 0
	stw 28,16(1)
	stw 29,20(1)
	.loc 7 142 0
	stw 4,8(1)
.LBB2012:
	.loc 7 143 0
	lwz 5,1024(31)
	cmpwi 7,5,0
	beq- 7,.L151
	.cfi_offset 29, -12
	.cfi_offset 28, -16
	.cfi_offset 65, 4
	lis 29,.LC16@ha
	.loc 7 142 0
	addi 31,31,1024
	la 29,.LC16@l(29)
.LBB2007:
.LBB2008:
	.loc 8 50 0
	lis 28,.LC14@ha
.LVL278:
.L154:
	lwz 0,0(30)
	cmpwi 7,0,0
	ble- 7,.L155
	lwz 4,4(30)
.L153:
.LBE2008:
.LBE2007:
	.loc 7 144 0
	mr 3,29
	crxor 6,6,6
	bl _Z2vaPKcz
	lwz 0,8(1)
	mtctr 0
	bctrl
	.loc 7 143 0
	lwzu 5,4(31)
	cmpwi 7,5,0
	bne+ 7,.L154
.LVL279:
.L151:
.LBE2012:
	.loc 7 146 0
	lwz 0,36(1)
	lwz 28,16(1)
	mtlr 0
	lwz 29,20(1)
	lwz 30,24(1)
.LVL280:
	lwz 31,28(1)
	addi 1,1,32
	.cfi_remember_state
.LCFI129:
	.cfi_def_cfa_offset 0
	.cfi_restore 31
	.cfi_restore 30
	.cfi_restore 29
	.cfi_restore 28
	blr
.LVL281:
.L155:
.LCFI130:
	.cfi_restore_state
.LBB2013:
.LBB2010:
.LBB2009:
	.loc 8 50 0
	la 4,.LC14@l(28)
	b .L153
.LBE2009:
.LBE2010:
.LBE2013:
	.cfi_endproc
.LFE2882:
	.size	_ZN11idCmdSystem20ArgCompletion_StringIXadL_Z15listDeclStringsEEEEvRK9idCmdArgsPFvPKcE, .-_ZN11idCmdSystem20ArgCompletion_StringIXadL_Z15listDeclStringsEEEEvRK9idCmdArgsPFvPKcE
	.section	".text"
	.align 2
	.globl _ZN11idDeclLocal5ParseEPKci
	.type	_ZN11idDeclLocal5ParseEPKci, @function
_ZN11idDeclLocal5ParseEPKci:
.LFB2650:
	.loc 4 2308 0
	.cfi_startproc
	.cfi_personality 0,__gxx_personality_v0
	.cfi_lsda 0,.LLSDA2650
.LVL282:
	stwu 1,-232(1)
.LCFI131:
	.cfi_def_cfa_offset 232
	mflr 0
	stw 31,228(1)
	mr 31,3
	.cfi_offset 31, -4
	.cfi_register 65, 0
.LBB2014:
	.loc 4 2309 0
	addi 3,1,8
.LVL283:
.LBE2014:
	.loc 4 2308 0
	stw 0,236(1)
	stw 28,216(1)
	mr 28,4
	.cfi_offset 28, -16
	.cfi_offset 65, 4
	stw 29,220(1)
	mr 29,5
	.cfi_offset 29, -12
	stw 30,224(1)
.LEHB2:
.LBB2019:
	.loc 4 2309 0
	.cfi_offset 30, -8
	bl _ZN7idLexerC1Ev
.LEHE2:
.LVL284:
	.loc 4 2311 0
	lwz 9,0(31)
	mr 3,31
	lwz 0,48(9)
	mtctr 0
.LEHB3:
	bctrl
	lwz 9,0(31)
	mr 30,3
	mr 3,31
	lwz 0,44(9)
	mtctr 0
	bctrl
	.loc 4 2311 0 is_stmt 0 discriminator 1
	mr 7,3
	mr 4,28
	addi 3,1,8
	mr 5,29
	mr 6,30
	bl _ZN7idLexer10LoadMemoryEPKciS1_i
.LVL285:
	.loc 4 2313 0 is_stmt 1
	lis 4,.LC17@ha
.LBB2015:
.LBB2016:
	.file 9 "d:/Data/Nintendo/DoomGX/src/framework/../idlib/../idlib/Lexer.h"
	.loc 9 367 0
	li 0,6300
.LBE2016:
.LBE2015:
	.loc 4 2313 0
	addi 3,1,8
	la 4,.LC17@l(4)
.LBB2018:
.LBB2017:
	.loc 9 367 0
	stw 0,112(1)
.LBE2017:
.LBE2018:
	.loc 4 2313 0
	bl _ZN7idLexer15SkipUntilStringEPKc
	.loc 4 2314 0
	addi 3,1,8
	li 4,0
	bl _ZN7idLexer17SkipBracedSectionEb
.LEHE3:
	.loc 4 2315 0
	addi 3,1,8
.LEHB4:
	bl _ZN7idLexerD1Ev
.LEHE4:
.LBE2019:
	.loc 4 2316 0
	lwz 0,236(1)
	lwz 28,216(1)
.LVL286:
	li 3,1
	mtlr 0
	lwz 29,220(1)
.LVL287:
	lwz 30,224(1)
	lwz 31,228(1)
.LVL288:
	addi 1,1,232
	.cfi_remember_state
.LCFI132:
	.cfi_def_cfa_offset 0
	.cfi_restore 31
	.cfi_restore 30
	.cfi_restore 29
	.cfi_restore 28
	blr
.LVL289:
.L159:
.LCFI133:
	.cfi_restore_state
	mr 31,3
.LVL290:
.LBB2020:
	.loc 4 2315 0
	addi 3,1,8
	bl _ZN7idLexerD1Ev
	mr 3,31
.LEHB5:
	bl _Unwind_Resume
.LEHE5:
.LBE2020:
	.cfi_endproc
.LFE2650:
	.section	.gcc_except_table
.LLSDA2650:
	.byte	0xff
	.byte	0xff
	.byte	0x1
	.uleb128 .LLSDACSE2650-.LLSDACSB2650
.LLSDACSB2650:
	.uleb128 .LEHB2-.LFB2650
	.uleb128 .LEHE2-.LEHB2
	.uleb128 0
	.uleb128 0
	.uleb128 .LEHB3-.LFB2650
	.uleb128 .LEHE3-.LEHB3
	.uleb128 .L159-.LFB2650
	.uleb128 0
	.uleb128 .LEHB4-.LFB2650
	.uleb128 .LEHE4-.LEHB4
	.uleb128 0
	.uleb128 0
	.uleb128 .LEHB5-.LFB2650
	.uleb128 .LEHE5-.LEHB5
	.uleb128 0
	.uleb128 0
.LLSDACSE2650:
	.section	".text"
	.size	_ZN11idDeclLocal5ParseEPKci, .-_ZN11idDeclLocal5ParseEPKci
	.align 2
	.globl _ZN11idDeclLocal21ReplaceSourceFileTextEv
	.type	_ZN11idDeclLocal21ReplaceSourceFileTextEv, @function
_ZN11idDeclLocal21ReplaceSourceFileTextEv:
.LFB2645:
	.loc 4 2149 0
	.cfi_startproc
.LVL291:
	mflr 0
	stwu 1,-48(1)
.LCFI134:
	.cfi_def_cfa_offset 48
	.cfi_register 65, 0
	stw 26,24(1)
.LBB2021:
	.loc 4 2154 0
	lis 26,common@ha
	.cfi_offset 26, -24
.LBE2021:
	.loc 4 2149 0
	stw 27,28(1)
	stw 28,32(1)
	stw 30,40(1)
	mr 30,3
	.cfi_offset 30, -8
	.cfi_offset 28, -16
	.cfi_offset 27, -20
	stw 31,44(1)
	mr 31,1
	.cfi_offset 31, -4
.LCFI135:
	.cfi_def_cfa_register 31
	stw 0,52(1)
	stw 23,12(1)
	stw 24,16(1)
	stw 25,20(1)
	stw 29,36(1)
.LBB2023:
	.loc 4 2154 0
	lwz 27,common@l(26)
	lwz 9,0(3)
	lwz 0,8(9)
	.cfi_offset 29, -12
	.cfi_offset 25, -28
	.cfi_offset 24, -32
	.cfi_offset 23, -36
	.cfi_offset 65, 4
	lwz 9,0(27)
	mtctr 0
	lwz 29,68(9)
	bctrl
.LVL292:
	lwz 9,0(30)
	mr 28,3
	mr 3,30
	lwz 0,48(9)
	mtctr 0
	bctrl
	lis 4,.LC18@ha
	mr 6,3
	la 4,.LC18@l(4)
	mr 3,27
	mr 5,28
	mtctr 29
	crxor 6,6,6
	bctrl
	.loc 4 2156 0
	lis 11,.LANCHOR0@ha
	lwz 9,56(30)
	la 11,.LANCHOR0@l(11)
	addi 0,11,1468
	cmpw 7,9,0
	beq- 7,.L176
	.loc 4 2162 0
	lwz 27,44(9)
.LVL293:
	.loc 4 2163 0
	lwz 28,64(30)
	lwz 0,48(30)
	subf 28,28,27
	add 28,28,0
.LVL294:
	.loc 4 2164 0
	cmpw 7,28,27
	mr 3,28
	blt- 7,.L177
	bl _Z9Mem_Alloci
.LVL295:
	.loc 4 2167 0
	lwz 9,56(30)
	.loc 4 2164 0
	mr 29,3
.LVL296:
	lis 25,fileSystem@ha
	.loc 4 2167 0
	lwz 0,44(9)
	cmpwi 7,0,0
	bne- 7,.L178
.LVL297:
.L164:
	.loc 4 2193 0
	lwz 11,48(30)
	.loc 4 2194 0
	mr 3,30
	.loc 4 2193 0
	lwz 9,0(1)
	.loc 4 2199 0
	lis 23,fileSystem@ha
	.loc 4 2193 0
	addi 0,11,31
	rlwinm 0,0,0,0,27
	neg 0,0
	stwux 9,1,0
	.loc 4 2194 0
	lwz 9,0(30)
	.loc 4 2193 0
	addi 24,1,23
	rlwinm 24,24,0,0,27
.LVL298:
	.loc 4 2194 0
	lwz 0,52(9)
	mr 4,24
	mtctr 0
	bctrl
	.loc 4 2195 0
	lwz 9,60(30)
	lwz 0,64(30)
	lwz 3,48(30)
	subf 27,9,27
.LVL299:
	add 4,0,9
	subf 5,0,27
	add 3,9,3
	add 4,29,4
	add 3,29,3
	bl memmove
	.loc 4 2196 0
	lwz 3,60(30)
	lwz 5,48(30)
	mr 4,24
	add 3,29,3
	bl memcpy
	.loc 4 2199 0
	lwz 9,0(30)
	lwz 25,fileSystem@l(25)
	mr 3,30
	lwz 0,48(9)
	lwz 9,0(25)
	mtctr 0
	lwz 27,116(9)
	bctrl
	lis 5,.LC22@ha
	mr 4,3
	mtctr 27
	mr 3,25
	la 5,.LC22@l(5)
	bctrl
.LVL300:
	.loc 4 2200 0
	mr. 27,3
	beq- 0,.L179
	.loc 4 2205 0
	lwz 9,0(27)
	mr 5,28
	mr 4,29
	lwz 0,24(9)
	mtctr 0
	bctrl
.LVL301:
	.loc 4 2206 0
	lwz 3,fileSystem@l(23)
	mr 4,27
	lwz 9,0(3)
	lwz 0,136(9)
	mtctr 0
	bctrl
	.loc 4 2209 0
	lwz 9,56(30)
	.loc 4 2210 0
	mr 4,28
	mr 3,29
	.loc 4 2209 0
	stw 28,44(9)
	.loc 4 2210 0
	lwz 28,56(30)
.LVL302:
	bl _Z17MD5_BlockChecksumPKvi
.LVL303:
	stw 3,40(28)
	.loc 4 2211 0
	mr 3,30
	lwz 28,fileSystem@l(23)
	lwz 9,0(30)
	lwz 0,48(9)
	lwz 9,0(28)
	mtctr 0
	lwz 27,96(9)
.LVL304:
	bctrl
	lwz 6,56(30)
	mr 4,3
	li 5,0
	addi 6,6,36
	mtctr 27
	mr 3,28
	bctrl
	.loc 4 2214 0
	mr 3,29
	bl _Z8Mem_FreePv
.LBB2022:
	.loc 4 2217 0
	lwz 9,56(30)
	lwz 9,52(9)
.LVL305:
	cmpwi 7,9,0
	beq- 7,.L169
.LVL306:
.L174:
	.loc 4 2218 0
	lwz 0,60(9)
	lwz 11,60(30)
	cmpw 7,0,11
	ble- 7,.L170
	.loc 4 2219 0
	lwz 10,48(30)
	lwz 11,64(30)
	subf 11,11,10
	add 0,0,11
	stw 0,60(9)
.L170:
	.loc 4 2217 0
	lwz 9,92(9)
.LVL307:
	cmpwi 7,9,0
	bne+ 7,.L174
.L169:
.LBE2022:
	.loc 4 2224 0
	lwz 0,48(30)
	.loc 4 2226 0
	li 3,1
	.loc 4 2224 0
	stw 0,64(30)
.LVL308:
.L162:
.LBE2023:
	.loc 4 2227 0
	addi 11,31,48
	lwz 0,4(11)
	lwz 23,-36(11)
	mtlr 0
	lwz 24,-32(11)
	lwz 25,-28(11)
	lwz 26,-24(11)
	lwz 27,-20(11)
	lwz 28,-16(11)
	lwz 29,-12(11)
	lwz 30,-8(11)
	lwz 31,-4(11)
	.cfi_remember_state
.LCFI136:
	.cfi_def_cfa 11, 0
	mr 1,11
.LCFI137:
	.cfi_def_cfa_register 1
	.cfi_restore 31
	.cfi_restore 30
	.cfi_restore 29
	.cfi_restore 28
	.cfi_restore 27
	.cfi_restore 26
	.cfi_restore 25
	.cfi_restore 24
	.cfi_restore 23
	blr
.LVL309:
.L178:
.LCFI138:
	.cfi_restore_state
.LBB2024:
	.loc 4 2169 0
	lwz 9,0(30)
	mr 3,30
.LVL310:
	lwz 23,fileSystem@l(25)
	lwz 0,48(9)
	lwz 9,0(23)
	mtctr 0
	lwz 24,112(9)
	bctrl
	mtctr 24
	mr 4,3
	li 5,1
	mr 3,23
	li 6,0
	bctrl
.LVL311:
	.loc 4 2170 0
	mr. 24,3
	beq- 0,.L180
	.loc 4 2176 0
	lwz 9,0(24)
	lwz 0,28(9)
	mtctr 0
	bctrl
.LVL312:
	lwz 9,56(30)
	lwz 0,44(9)
	cmpw 7,3,0
	beq- 7,.L181
.L172:
	.loc 4 2186 0
	mr 3,29
	bl _Z8Mem_FreePv
	.loc 4 2187 0
	lwz 9,0(30)
	lwz 29,common@l(26)
.LVL313:
	mr 3,30
	lwz 0,48(9)
	lwz 9,0(29)
	mtctr 0
	lwz 30,80(9)
.LVL314:
	bctrl
.LVL315:
	lis 4,.LC21@ha
	mr 5,3
	mtctr 30
	mr 3,29
	la 4,.LC21@l(4)
	crxor 6,6,6
	bctrl
.LBE2024:
	.loc 4 2227 0
	addi 11,31,48
	lwz 0,4(11)
.LBB2025:
	.loc 4 2188 0
	li 3,0
.LBE2025:
	.loc 4 2227 0
	lwz 23,-36(11)
	mtlr 0
	lwz 24,-32(11)
.LVL316:
	lwz 25,-28(11)
	lwz 26,-24(11)
	lwz 27,-20(11)
.LVL317:
	lwz 28,-16(11)
.LVL318:
	lwz 29,-12(11)
	lwz 30,-8(11)
	lwz 31,-4(11)
	.cfi_remember_state
.LCFI139:
	.cfi_def_cfa 11, 0
	mr 1,11
	.cfi_restore 23
	.cfi_restore 24
	.cfi_restore 25
	.cfi_restore 26
	.cfi_restore 27
	.cfi_restore 28
	.cfi_restore 29
	.cfi_restore 30
	.cfi_restore 31
.LCFI140:
	.cfi_def_cfa_register 1
	blr
.LVL319:
.L177:
.LCFI141:
	.cfi_restore_state
.LBB2026:
	.loc 4 2164 0
	mr 3,27
.LVL320:
	lis 25,fileSystem@ha
	bl _Z9Mem_Alloci
	.loc 4 2167 0
	lwz 9,56(30)
	.loc 4 2164 0
	mr 29,3
.LVL321:
	.loc 4 2167 0
	lwz 0,44(9)
	cmpwi 7,0,0
	beq- 7,.L164
	b .L178
.LVL322:
.L179:
	.loc 4 2201 0
	mr 3,29
.LVL323:
	bl _Z8Mem_FreePv
	.loc 4 2202 0
	lwz 9,0(30)
	lwz 29,common@l(26)
.LVL324:
	mr 3,30
	lwz 0,48(9)
	lwz 9,0(29)
	mtctr 0
	lwz 30,80(9)
.LVL325:
	bctrl
.LVL326:
	lis 4,.LC23@ha
	mr 5,3
	la 4,.LC23@l(4)
	mr 3,29
	mtctr 30
	crxor 6,6,6
	bctrl
	.loc 4 2203 0
	li 3,0
	b .L162
.LVL327:
.L181:
	.loc 4 2176 0 discriminator 2
	lwz 9,0(24)
	mr 3,24
	lwz 0,32(9)
	mtctr 0
	bctrl
	lwz 9,56(30)
	lwz 0,36(9)
	cmpw 7,3,0
	bne+ 7,.L172
	.loc 4 2182 0
	lwz 9,0(24)
	mr 5,27
	mr 4,29
	mr 3,24
	lwz 0,20(9)
	mtctr 0
	bctrl
	.loc 4 2183 0
	lwz 3,fileSystem@l(25)
	mr 4,24
	lwz 9,0(3)
	lwz 0,136(9)
	mtctr 0
	bctrl
	.loc 4 2185 0
	mr 3,29
	mr 4,27
	bl _Z17MD5_BlockChecksumPKvi
	lwz 9,56(30)
	lwz 0,40(9)
	cmpw 7,3,0
	beq+ 7,.L164
	b .L172
.L180:
	.loc 4 2171 0
	mr 3,29
	bl _Z8Mem_FreePv
	.loc 4 2172 0
	lwz 9,0(30)
	lwz 29,common@l(26)
.LVL328:
	mr 3,30
	lwz 0,48(9)
	lwz 9,0(29)
	mtctr 0
	lwz 30,80(9)
.LVL329:
	bctrl
.LVL330:
	lis 4,.LC20@ha
	mr 5,3
	la 4,.LC20@l(4)
	mr 3,29
	mtctr 30
	crxor 6,6,6
	bctrl
	.loc 4 2173 0
	li 3,0
	b .L162
.LVL331:
.L176:
	.loc 4 2157 0
	lwz 9,0(30)
	mr 3,30
	lwz 29,common@l(26)
	lwz 0,8(9)
	lwz 9,0(29)
	mtctr 0
	lwz 30,80(9)
.LVL332:
	bctrl
.LVL333:
	lis 4,.LC19@ha
	mr 5,3
	la 4,.LC19@l(4)
	mr 3,29
	mtctr 30
	crxor 6,6,6
	bctrl
	.loc 4 2158 0
	li 3,0
	b .L162
.LBE2026:
	.cfi_endproc
.LFE2645:
	.size	_ZN11idDeclLocal21ReplaceSourceFileTextEv, .-_ZN11idDeclLocal21ReplaceSourceFileTextEv
	.align 2
	.globl _ZN18idDeclManagerLocal21WritePrecacheCommandsEP6idFile
	.type	_ZN18idDeclManagerLocal21WritePrecacheCommandsEP6idFile, @function
_ZN18idDeclManagerLocal21WritePrecacheCommandsEP6idFile:
.LFB2610:
	.loc 4 1617 0
	.cfi_startproc
.LVL334:
	mflr 0
	stwu 1,-1080(1)
.LCFI142:
	.cfi_def_cfa_offset 1080
	.cfi_register 65, 0
	stw 27,1060(1)
	mr 27,4
	.cfi_offset 27, -20
	stw 28,1064(1)
	mr 28,3
	.cfi_offset 28, -16
	stw 0,1084(1)
	stw 21,1036(1)
	stw 22,1040(1)
	stw 23,1044(1)
	stw 24,1048(1)
	stw 25,1052(1)
	stw 26,1056(1)
	stw 29,1068(1)
	stw 30,1072(1)
	stw 31,1076(1)
.LBB2027:
	.loc 4 1618 0
	lwz 0,4(3)
	.cfi_offset 31, -4
	.cfi_offset 30, -8
	.cfi_offset 29, -12
	.cfi_offset 26, -24
	.cfi_offset 25, -28
	.cfi_offset 24, -32
	.cfi_offset 23, -36
	.cfi_offset 22, -40
	.cfi_offset 21, -44
	.cfi_offset 65, 4
	cmpwi 7,0,0
	ble- 7,.L182
.LBB2028:
.LBB2029:
.LBB2030:
	.loc 4 1635 0
	lis 22,.LC24@ha
	.loc 4 1636 0
	lis 26,.LC25@ha
.LBE2030:
.LBE2029:
.LBE2028:
	.loc 4 1618 0
	li 25,0
.LBB2036:
.LBB2034:
.LBB2031:
	.loc 4 1635 0
	la 22,.LC24@l(22)
	.loc 4 1636 0
	lis 23,common@ha
	la 26,.LC25@l(26)
.LVL335:
.L187:
.LBE2031:
.LBE2034:
	.loc 4 1621 0
	lwz 9,16(28)
.LBE2036:
	.loc 4 1617 0
	slwi 24,25,2
.LBB2037:
	.loc 4 1621 0
	lwzx 9,9,24
	cmpwi 7,9,0
	beq- 7,.L184
	.loc 4 1625 0
	addi 29,25,59
	slwi 29,29,4
	add 29,28,29
	.loc 4 2449 0
	lwz 30,4(29)
.LVL336:
	.loc 4 1625 0
	addi 29,29,4
.LBB2035:
	.loc 4 1627 0
	cmpwi 7,30,0
	ble- 7,.L184
	li 31,0
	b .L186
.LVL337:
.L185:
	cmpw 7,31,30
	beq- 7,.L190
.LVL338:
.L186:
.LBB2032:
	.loc 4 1628 0
	lwz 9,12(29)
	slwi 0,31,2
.LBE2032:
	.loc 4 1627 0
	addi 31,31,1
.LVL339:
.LBB2033:
	.loc 4 1628 0
	lwzx 3,9,0
.LVL340:
	.loc 4 1630 0
	lbz 0,90(3)
.LVL341:
	cmpwi 7,0,0
	beq+ 7,.L185
	.loc 4 1635 0
	lwz 11,0(3)
	lwz 9,16(28)
	lwz 0,8(11)
	.loc 4 2449 0
	lwzx 9,9,24
	.loc 4 1635 0
	mtctr 0
	.loc 4 2449 0
	lwz 21,4(9)
	.loc 4 1635 0
	bctrl
.LVL342:
	mr 4,22
	mr 6,3
	mr 5,21
	addi 3,1,8
	crxor 6,6,6
	bl sprintf
	.loc 4 1636 0
	lwz 3,common@l(23)
	mr 4,26
	addi 5,1,8
	lwz 9,0(3)
	lwz 0,68(9)
	mtctr 0
	crxor 6,6,6
	bctrl
	.loc 4 1637 0
	lwz 9,0(27)
	mr 3,27
	mr 4,26
	lwz 0,56(9)
	addi 5,1,8
	mtctr 0
	crxor 6,6,6
	bctrl
.LVL343:
.LBE2033:
	.loc 4 1627 0
	cmpw 7,31,30
	bne+ 7,.L186
.L190:
	lwz 0,4(28)
.LVL344:
.L184:
.LBE2035:
.LBE2037:
	.loc 4 1618 0
	addi 25,25,1
.LVL345:
	cmpw 7,0,25
	bgt+ 7,.L187
.LVL346:
.L182:
.LBE2027:
	.loc 4 1640 0
	lwz 0,1084(1)
	lwz 21,1036(1)
	mtlr 0
	lwz 22,1040(1)
	lwz 23,1044(1)
	lwz 24,1048(1)
	lwz 25,1052(1)
	lwz 26,1056(1)
	lwz 27,1060(1)
.LVL347:
	lwz 28,1064(1)
.LVL348:
	lwz 29,1068(1)
	lwz 30,1072(1)
	lwz 31,1076(1)
	addi 1,1,1080
.LCFI143:
	.cfi_def_cfa_offset 0
	.cfi_restore 31
	.cfi_restore 30
	.cfi_restore 29
	.cfi_restore 28
	.cfi_restore 27
	.cfi_restore 26
	.cfi_restore 25
	.cfi_restore 24
	.cfi_restore 23
	.cfi_restore 22
	.cfi_restore 21
	blr
	.cfi_endproc
.LFE2610:
	.size	_ZN18idDeclManagerLocal21WritePrecacheCommandsEP6idFile, .-_ZN18idDeclManagerLocal21WritePrecacheCommandsEP6idFile
	.align 2
	.globl _ZNK18idDeclManagerLocal19GetDeclTypeFromNameEPKc
	.type	_ZNK18idDeclManagerLocal19GetDeclTypeFromNameEPKc, @function
_ZNK18idDeclManagerLocal19GetDeclTypeFromNameEPKc:
.LFB2599:
	.loc 4 1202 0
	.cfi_startproc
.LVL349:
	mflr 0
	stwu 1,-24(1)
.LCFI144:
	.cfi_def_cfa_offset 24
	.cfi_register 65, 0
	stw 28,8(1)
	mr 28,4
	.cfi_offset 28, -16
	stw 29,12(1)
	mr 29,3
	.cfi_offset 29, -12
	stw 0,28(1)
	stw 30,16(1)
	stw 31,20(1)
.LBB2038:
	.loc 4 1205 0
	lwz 0,4(3)
	.cfi_offset 31, -4
	.cfi_offset 30, -8
	.cfi_offset 65, 4
	.loc 4 1210 0
	li 3,32
.LVL350:
	.loc 4 1205 0
	cmpwi 7,0,0
	ble- 7,.L192
	li 31,0
.LVL351:
.L194:
	.loc 4 1206 0
	lwz 9,16(29)
	.loc 4 1202 0
	slwi 30,31,2
.LBB2039:
.LBB2040:
	.loc 6 690 0
	mr 4,28
.LBE2040:
.LBE2039:
	.loc 4 1206 0
	lwzx 9,9,30
	cmpwi 7,9,0
	beq- 7,.L193
.LVL352:
.LBB2042:
.LBB2041:
	.loc 6 690 0 discriminator 1
	lwz 3,4(9)
	bl _ZN5idStr4IcmpEPKcS1_
.LBE2041:
.LBE2042:
	.loc 4 1206 0 discriminator 1
	cmpwi 7,3,0
	beq- 7,.L198
	lwz 0,4(29)
.LVL353:
.L193:
	.loc 4 1205 0
	addi 31,31,1
.LVL354:
	cmpw 7,0,31
	bgt+ 7,.L194
.LBE2038:
	.loc 4 1211 0
	lwz 0,28(1)
.LBB2043:
	.loc 4 1210 0
	li 3,32
.LBE2043:
	.loc 4 1211 0
	lwz 28,8(1)
.LVL355:
	mtlr 0
	lwz 29,12(1)
.LVL356:
	lwz 30,16(1)
	lwz 31,20(1)
.LVL357:
	addi 1,1,24
	.cfi_remember_state
	.cfi_restore 28
	.cfi_restore 29
	.cfi_restore 30
	.cfi_restore 31
.LCFI145:
	.cfi_def_cfa_offset 0
	blr
.LVL358:
.L198:
.LCFI146:
	.cfi_restore_state
.LBB2044:
	.loc 4 1207 0
	lwz 9,16(29)
	lwzx 9,9,30
	lwz 3,32(9)
.LVL359:
.L192:
.LBE2044:
	.loc 4 1211 0
	lwz 0,28(1)
	lwz 28,8(1)
.LVL360:
	mtlr 0
	lwz 29,12(1)
.LVL361:
	lwz 30,16(1)
	lwz 31,20(1)
	addi 1,1,24
.LCFI147:
	.cfi_def_cfa_offset 0
	.cfi_restore 31
	.cfi_restore 30
	.cfi_restore 29
	.cfi_restore 28
	blr
	.cfi_endproc
.LFE2599:
	.size	_ZNK18idDeclManagerLocal19GetDeclTypeFromNameEPKc, .-_ZNK18idDeclManagerLocal19GetDeclTypeFromNameEPKc
	.align 2
	.globl _ZN18idDeclManagerLocal8ListTypeERK9idCmdArgs10declType_t
	.type	_ZN18idDeclManagerLocal8ListTypeERK9idCmdArgs10declType_t, @function
_ZN18idDeclManagerLocal8ListTypeERK9idCmdArgs10declType_t:
.LFB2605:
	.loc 4 1343 0
	.cfi_startproc
.LVL362:
	mflr 0
	stwu 1,-80(1)
.LCFI148:
	.cfi_def_cfa_offset 80
	.cfi_register 65, 0
	mfcr 12
	stw 19,28(1)
	mr 19,3
	.cfi_offset 19, -52
	.cfi_register 70, 12
	stw 20,32(1)
	mr 20,5
	.cfi_offset 20, -48
	stw 31,76(1)
	mr 31,4
	.cfi_offset 31, -4
.LVL363:
	stw 0,84(1)
	stw 16,16(1)
	stw 17,20(1)
	stw 18,24(1)
	stw 21,36(1)
	stw 22,40(1)
	stw 23,44(1)
	stw 24,48(1)
	stw 25,52(1)
	stw 26,56(1)
	stw 27,60(1)
	stw 28,64(1)
	stw 29,68(1)
	stw 30,72(1)
	stw 12,12(1)
.LBB2045:
.LBB2046:
.LBB2047:
	.loc 8 50 0
	lwz 0,0(4)
	.cfi_offset 70, -68
	.cfi_offset 30, -8
	.cfi_offset 29, -12
	.cfi_offset 28, -16
	.cfi_offset 27, -20
	.cfi_offset 26, -24
	.cfi_offset 25, -28
	.cfi_offset 24, -32
	.cfi_offset 23, -36
	.cfi_offset 22, -40
	.cfi_offset 21, -44
	.cfi_offset 18, -56
	.cfi_offset 17, -60
	.cfi_offset 16, -64
	.cfi_offset 65, 4
	cmpwi 7,0,1
	ble- 7,.L213
.LVL364:
	lwz 3,8(4)
.LVL365:
.LBE2047:
.LBE2046:
	.loc 4 1346 0
	lis 4,.LC26@ha
.LVL366:
	la 4,.LC26@l(4)
	bl _ZN5idStr4IcmpEPKcS1_
.LVL367:
.LBB2050:
.LBB2051:
	.loc 8 50 0
	lwz 0,0(31)
.LBE2051:
.LBE2050:
	.loc 4 1346 0
	mr 30,3
.LVL368:
.LBB2055:
.LBB2052:
	.loc 8 50 0
	cmpwi 7,0,1
	ble- 7,.L214
.LVL369:
.L221:
	lwz 3,8(31)
.L201:
.LBE2052:
.LBE2055:
	.loc 4 1351 0
	lis 4,.LC27@ha
	.loc 4 1357 0
	lis 28,common@ha
	.loc 4 1351 0
	la 4,.LC27@l(4)
	.loc 4 1357 0
	lis 18,.LC28@ha
	.loc 4 1351 0
	bl _ZN5idStr4IcmpEPKcS1_
	.loc 4 1357 0
	la 18,.LC28@l(18)
	.loc 4 1351 0
	mr 31,3
.LVL370:
	.loc 4 1357 0
	lwz 3,common@l(28)
.LVL371:
	mr 4,18
	.loc 4 1359 0
	addi 25,20,59
	.loc 4 1357 0
	lwz 9,0(3)
	.loc 4 1359 0
	slwi 25,25,4
	add 25,19,25
.LBB2056:
	.loc 4 1358 0
	li 27,0
.LBE2056:
	.loc 4 1357 0
	lwz 0,68(9)
	mtctr 0
	crxor 6,6,6
	bctrl
.LVL372:
	.loc 4 2449 0
	lwz 26,4(25)
.LVL373:
	.loc 4 1359 0
	addi 25,25,4
.LBB2061:
	.loc 4 1360 0
	cmpwi 7,26,0
	ble- 7,.L202
.LBB2057:
	.loc 4 1383 0
	lis 23,.LC33@ha
	.loc 4 1387 0
	lis 22,.LC13@ha
	.loc 4 1381 0
	lis 24,.LC31@ha
	.loc 4 1379 0
	lis 16,.LC32@ha
	.loc 4 1372 0
	lis 17,.LC29@ha
	.loc 4 1374 0
	lis 21,.LC30@ha
	cmpwi 4,30,0
	.loc 4 1367 0
	cmpwi 3,31,0
.LBE2057:
	.loc 4 1360 0
	li 30,0
.LBB2058:
	.loc 4 1383 0
	la 23,.LC33@l(23)
	.loc 4 1387 0
	la 22,.LC13@l(22)
	.loc 4 1381 0
	la 24,.LC31@l(24)
	.loc 4 1379 0
	la 16,.LC32@l(16)
	.loc 4 1372 0
	la 17,.LC29@l(17)
	.loc 4 1374 0
	la 21,.LC30@l(21)
	b .L212
.LVL374:
.L219:
	.loc 4 1363 0 discriminator 1
	lwz 0,80(31)
	cmpwi 7,0,0
	beq- 7,.L204
	.loc 4 1367 0 discriminator 1
	beq- 3,.L203
	.loc 4 1367 0 is_stmt 0 discriminator 2
	lbz 0,90(31)
	cmpwi 7,0,0
	beq- 7,.L204
.L205:
	.loc 4 1372 0 is_stmt 1
	lwz 3,common@l(28)
	mr 4,17
.L217:
	.loc 4 1376 0
	lwz 9,0(3)
	la 29,common@l(28)
	lwz 0,68(9)
	mtctr 0
	crxor 6,6,6
	bctrl
	.loc 4 1378 0
	lwz 0,80(31)
	.loc 4 1379 0
	lwz 3,0(29)
	.loc 4 1378 0
	cmpwi 7,0,1
	beq- 7,.L218
.L209:
	.loc 4 1381 0
	lwz 9,0(3)
	mr 4,24
	.loc 4 1384 0
	addi 27,27,1
	.loc 4 1381 0
	lwz 0,68(9)
	mtctr 0
	crxor 6,6,6
	bctrl
	.loc 4 1383 0
	lwz 3,0(29)
	mr 4,23
	lwz 5,84(31)
	lwz 9,0(3)
	lwz 0,68(9)
	mtctr 0
	crxor 6,6,6
	bctrl
.LVL375:
	.loc 4 1385 0
	lwz 0,80(31)
	cmpwi 7,0,0
	bne- 7,.L211
.L220:
	.loc 4 1387 0
	lwz 9,0(31)
	mr 3,31
	lwz 29,0(29)
	lwz 0,8(9)
	lwz 9,0(29)
	mtctr 0
	lwz 31,68(9)
.LVL376:
	bctrl
.LVL377:
	mr 4,22
	mr 5,3
	mtctr 31
	mr 3,29
	crxor 6,6,6
	bctrl
.LVL378:
.L204:
.LBE2058:
	.loc 4 1360 0
	addi 30,30,1
.LVL379:
	cmpw 7,30,26
	beq- 7,.L202
.LVL380:
.L212:
.LBB2059:
	.loc 4 1361 0
	lwz 9,12(25)
	slwi 0,30,2
	lwzx 31,9,0
.LVL381:
	.loc 4 1363 0
	bne- 4,.L219
.LVL382:
.L203:
	.loc 4 1371 0
	lbz 0,90(31)
	cmpwi 7,0,0
	bne- 7,.L205
	.loc 4 1373 0
	lbz 0,89(31)
	.loc 4 1374 0
	mr 4,21
	lwz 3,common@l(28)
	.loc 4 1373 0
	cmpwi 7,0,0
	bne- 7,.L217
	.loc 4 1376 0
	lwz 9,0(3)
	mr 4,24
	la 29,common@l(28)
	lwz 0,68(9)
	mtctr 0
	crxor 6,6,6
	bctrl
	.loc 4 1378 0
	lwz 0,80(31)
	.loc 4 1379 0
	lwz 3,0(29)
	.loc 4 1378 0
	cmpwi 7,0,1
	bne+ 7,.L209
.L218:
	.loc 4 1379 0
	lwz 9,0(3)
	mr 4,16
	.loc 4 1384 0
	addi 27,27,1
	.loc 4 1379 0
	lwz 0,68(9)
	mtctr 0
	crxor 6,6,6
	bctrl
	.loc 4 1383 0
	lwz 3,0(29)
	mr 4,23
	lwz 5,84(31)
	lwz 9,0(3)
	lwz 0,68(9)
	mtctr 0
	crxor 6,6,6
	bctrl
.LVL383:
	.loc 4 1385 0
	lwz 0,80(31)
	cmpwi 7,0,0
	beq- 7,.L220
.L211:
	.loc 4 1389 0
	lwz 3,4(31)
.LBE2059:
	.loc 4 1360 0
	addi 30,30,1
.LVL384:
.LBB2060:
	.loc 4 1389 0
	lwz 9,0(3)
	lwz 0,28(9)
	mtctr 0
	bctrl
.LVL385:
.LBE2060:
	.loc 4 1360 0
	cmpw 7,30,26
	bne+ 7,.L212
.LVL386:
.L202:
.LBE2061:
	.loc 4 1393 0
	lwz 3,common@l(28)
	mr 4,18
	.loc 4 1394 0
	slwi 20,20,2
.LVL387:
	.loc 4 1393 0
	lwz 9,0(3)
	lwz 0,68(9)
	mtctr 0
	crxor 6,6,6
	bctrl
	.loc 4 1394 0
	lwz 3,common@l(28)
	lwz 9,16(19)
	lis 4,.LC34@ha
	lwz 11,0(3)
	mr 5,27
	.loc 4 2449 0
	lwzx 9,9,20
	.loc 4 1394 0
	mr 6,26
	lwz 0,68(11)
	la 4,.LC34@l(4)
	lwz 7,4(9)
	mtctr 0
	crxor 6,6,6
	bctrl
.LBE2045:
	.loc 4 1395 0
	lwz 0,84(1)
	lwz 12,12(1)
	mtlr 0
	lwz 16,16(1)
	lwz 17,20(1)
	mtcrf 24,12
	lwz 18,24(1)
	lwz 19,28(1)
.LVL388:
	lwz 20,32(1)
	lwz 21,36(1)
	lwz 22,40(1)
	lwz 23,44(1)
	lwz 24,48(1)
	lwz 25,52(1)
	lwz 26,56(1)
	lwz 27,60(1)
	lwz 28,64(1)
	lwz 29,68(1)
	lwz 30,72(1)
	lwz 31,76(1)
	addi 1,1,80
	.cfi_remember_state
.LCFI149:
	.cfi_def_cfa_offset 0
	.cfi_restore 70
	.cfi_restore 31
	.cfi_restore 30
	.cfi_restore 29
	.cfi_restore 28
	.cfi_restore 27
	.cfi_restore 26
	.cfi_restore 25
	.cfi_restore 24
	.cfi_restore 23
	.cfi_restore 22
	.cfi_restore 21
	.cfi_restore 20
	.cfi_restore 19
	.cfi_restore 18
	.cfi_restore 17
	.cfi_restore 16
	blr
.LVL389:
.L213:
.LCFI150:
	.cfi_restore_state
.LBB2066:
.LBB2062:
.LBB2048:
	.loc 8 50 0
	lis 3,.LC14@ha
.LVL390:
.LBE2048:
.LBE2062:
	.loc 4 1346 0
	lis 4,.LC26@ha
.LVL391:
.LBB2063:
.LBB2049:
	.loc 8 50 0
	la 3,.LC14@l(3)
.LBE2049:
.LBE2063:
	.loc 4 1346 0
	la 4,.LC26@l(4)
	bl _ZN5idStr4IcmpEPKcS1_
.LVL392:
.LBB2064:
.LBB2053:
	.loc 8 50 0
	lwz 0,0(31)
.LBE2053:
.LBE2064:
	.loc 4 1346 0
	mr 30,3
.LVL393:
.LBB2065:
.LBB2054:
	.loc 8 50 0
	cmpwi 7,0,1
	bgt+ 7,.L221
.LVL394:
.L214:
	lis 3,.LC14@ha
	la 3,.LC14@l(3)
	b .L201
.LBE2054:
.LBE2065:
.LBE2066:
	.cfi_endproc
.LFE2605:
	.size	_ZN18idDeclManagerLocal8ListTypeERK9idCmdArgs10declType_t, .-_ZN18idDeclManagerLocal8ListTypeERK9idCmdArgs10declType_t
	.align 2
	.globl _ZN18idDeclManagerLocal10MediaPrintEPKcz
	.type	_ZN18idDeclManagerLocal10MediaPrintEPKcz, @function
_ZN18idDeclManagerLocal10MediaPrintEPKcz:
.LFB2609:
	.loc 4 1595 0
	.cfi_startproc
.LVL395:
	mflr 0
	stwu 1,-1160(1)
.LCFI151:
	.cfi_def_cfa_offset 1160
	.cfi_register 65, 0
	stw 31,1156(1)
	mr 31,3
	.cfi_offset 31, -4
	stw 0,1164(1)
	stw 26,1136(1)
	stw 27,1140(1)
	stw 28,1144(1)
	stw 29,1148(1)
	stw 30,1152(1)
	stw 5,1048(1)
	stw 6,1052(1)
	stw 7,1056(1)
	stw 8,1060(1)
	stw 9,1064(1)
	stw 10,1068(1)
	bne- 1,.L223
	.cfi_offset 30, -8
	.cfi_offset 29, -12
	.cfi_offset 28, -16
	.cfi_offset 27, -20
	.cfi_offset 26, -24
	.cfi_offset 65, 4
	.loc 4 1595 0
	stfd 1,1072(1)
	stfd 2,1080(1)
	stfd 3,1088(1)
	stfd 4,1096(1)
	stfd 5,1104(1)
	stfd 6,1112(1)
	stfd 7,1120(1)
	stfd 8,1128(1)
.L223:
.LBB2067:
.LBB2068:
.LBB2069:
	.loc 4 1596 0
	lis 9,.LANCHOR0+1580@ha
.LBE2069:
.LBE2068:
.LBE2067:
	.loc 4 1595 0
	mr 26,4
.LBB2073:
.LBB2071:
.LBB2070:
	.loc 2 143 0
	lwz 9,.LANCHOR0+1580@l(9)
.LBE2070:
.LBE2071:
	.loc 4 1596 0
	lwz 0,36(9)
	cmpwi 7,0,0
	beq- 7,.L222
.LVL396:
.LBB2072:
	.loc 4 1599 0 discriminator 1
	lwz 0,1520(31)
	lis 30,common@ha
	cmpwi 7,0,0
	ble- 7,.L225
	lis 28,.LC35@ha
	.loc 4 1599 0 is_stmt 0
	li 29,0
	la 27,common@l(30)
	la 28,.LC35@l(28)
.LVL397:
.L226:
	.loc 4 1600 0 is_stmt 1 discriminator 2
	lwz 3,0(27)
	mr 4,28
	.loc 4 1599 0 discriminator 2
	addi 29,29,1
	.loc 4 1600 0 discriminator 2
	lwz 9,0(3)
	lwz 0,68(9)
	mtctr 0
	crxor 6,6,6
	bctrl
.LVL398:
	.loc 4 1599 0 discriminator 2
	lwz 0,1520(31)
	cmpw 7,0,29
	bgt+ 7,.L226
.LVL399:
.L225:
.LBE2072:
	.loc 4 1604 0
	li 0,2
	li 31,0
.LVL400:
	stb 0,8(1)
	addi 0,1,1168
	.loc 4 1605 0
	li 4,1024
	mr 5,26
	.loc 4 1604 0
	stw 0,12(1)
	.loc 4 1605 0
	addi 3,1,20
	.loc 4 1604 0
	addi 0,1,1040
	.loc 4 1605 0
	addi 6,1,8
	.loc 4 1604 0
	stw 0,16(1)
	stb 31,9(1)
	.loc 4 1605 0
	bl _ZN5idStr9vsnPrintfEPciPKcP13__va_list_tag
	.loc 4 1607 0
	stb 31,1043(1)
	.loc 4 1609 0
	lis 4,.LC25@ha
	lwz 3,common@l(30)
	la 4,.LC25@l(4)
	addi 5,1,20
	lwz 9,0(3)
	lwz 0,68(9)
	mtctr 0
	crxor 6,6,6
	bctrl
.L222:
.LBE2073:
	.loc 4 1610 0
	lwz 0,1164(1)
	lwz 26,1136(1)
.LVL401:
	mtlr 0
	lwz 27,1140(1)
	lwz 28,1144(1)
	lwz 29,1148(1)
	lwz 30,1152(1)
	lwz 31,1156(1)
	addi 1,1,1160
.LCFI152:
	.cfi_def_cfa_offset 0
	.cfi_restore 31
	.cfi_restore 30
	.cfi_restore 29
	.cfi_restore 28
	.cfi_restore 27
	.cfi_restore 26
	blr
	.cfi_endproc
.LFE2609:
	.size	_ZN18idDeclManagerLocal10MediaPrintEPKcz, .-_ZN18idDeclManagerLocal10MediaPrintEPKcz
	.align 2
	.globl _ZNK18idDeclManagerLocal11GetChecksumEv
	.type	_ZNK18idDeclManagerLocal11GetChecksumEv, @function
_ZNK18idDeclManagerLocal11GetChecksumEv:
.LFB2596:
	.loc 4 1135 0
	.cfi_startproc
.LVL402:
	stwu 1,-24(1)
.LCFI153:
	.cfi_def_cfa_offset 24
	mflr 0
	.loc 4 1141 0
	li 11,32
	li 9,0
	.loc 4 1135 0
	stw 29,12(1)
	.loc 4 1141 0
	mtctr 11
	.loc 4 1135 0
	stw 30,16(1)
	stw 0,28(1)
	.loc 4 1140 0
	li 0,0
	.loc 4 1135 0
	stw 31,20(1)
	mr 31,1
	.cfi_offset 31, -4
	.cfi_offset 30, -8
	.cfi_offset 29, -12
	.cfi_offset 65, 4
.LCFI154:
	.cfi_def_cfa_register 31
.LVL403:
.L230:
.LBB2074:
	.loc 4 1142 0 discriminator 2
	addi 11,9,59
	.loc 4 1141 0 discriminator 2
	addi 9,9,1
	.loc 4 1142 0 discriminator 2
	slwi 11,11,4
	.loc 4 2449 0 discriminator 2
	add 11,3,11
	.loc 4 1142 0 discriminator 2
	lwz 11,4(11)
	add 0,0,11
.LVL404:
	.loc 4 1141 0 discriminator 2
	bdnz .L230
	.loc 4 1145 0
	slwi 9,0,3
.LVL405:
	.loc 4 1147 0
	li 30,0
	.loc 4 1145 0
	addi 0,9,45
.LVL406:
	lwz 9,0(1)
	rlwinm 0,0,0,0,27
	.loc 4 1148 0
	li 5,0
	.loc 4 1145 0
	neg 0,0
	addi 7,3,1460
	stwux 9,1,0
	addi 29,1,23
	rlwinm 29,29,0,0,27
.LVL407:
.L234:
.LBB2075:
.LBB2076:
	.loc 4 1152 0
	addi 0,5,-9
	cmplwi 7,0,3
	ble- 7,.L231
	.loc 4 1156 0
	addi 8,5,59
	slwi 8,8,4
	add 8,3,8
	.loc 4 2449 0
	lwz 0,4(8)
.LVL408:
	.loc 4 1156 0
	addi 8,8,4
.LBB2077:
	.loc 4 1157 0
	cmpwi 7,0,0
	ble- 7,.L231
	mtctr 0
	li 11,0
.LVL409:
.L233:
.LBB2078:
	.loc 4 1158 0
	lwz 9,12(8)
	slwi 0,11,2
	.loc 4 1164 0
	slwi 6,30,3
.LBE2078:
	.loc 4 1157 0
	addi 11,11,1
.LVL410:
.LBB2079:
	.loc 4 1158 0
	lwzx 10,9,0
.LVL411:
	.loc 4 1164 0
	mr 9,29
	.loc 4 1160 0
	lwz 0,56(10)
.LVL412:
	cmpw 7,0,7
	beq- 7,.L232
	.loc 4 1164 0
	stwux 30,9,6
	.loc 4 1166 0
	addi 30,30,1
.LVL413:
	.loc 4 1165 0
	lwz 0,72(10)
	stw 0,4(9)
.L232:
.LVL414:
.LBE2079:
	.loc 4 1157 0
	bdnz .L233
.LVL415:
.L231:
.LBE2077:
.LBE2076:
	.loc 4 1148 0
	cmpwi 7,5,31
	addi 5,5,1
.LVL416:
	bne+ 7,.L234
.LVL417:
.LBE2075:
	.loc 4 1170 0
	mr 3,29
.LVL418:
	slwi 5,30,1
.LVL419:
	li 4,4
	bl _Z14LittleRevBytesPvii
.LVL420:
	.loc 4 1171 0
	mr 3,29
	slwi 4,30,3
	bl _Z17MD5_BlockChecksumPKvi
.LBE2074:
	.loc 4 1172 0
	addi 11,31,24
	lwz 0,4(11)
	lwz 29,-12(11)
.LVL421:
	mtlr 0
	lwz 30,-8(11)
.LVL422:
	lwz 31,-4(11)
.LCFI155:
	.cfi_def_cfa 11, 0
	mr 1,11
.LCFI156:
	.cfi_def_cfa_register 1
	.cfi_restore 31
	.cfi_restore 30
	.cfi_restore 29
	blr
	.cfi_endproc
.LFE2596:
	.size	_ZNK18idDeclManagerLocal11GetChecksumEv, .-_ZNK18idDeclManagerLocal11GetChecksumEv
	.section	.text._Z15idDeclAllocatorI11idDeclEmailEP6idDeclv,"axG",@progbits,_Z15idDeclAllocatorI11idDeclEmailEP6idDeclv,comdat
	.align 2
	.weak	_Z15idDeclAllocatorI11idDeclEmailEP6idDeclv
	.type	_Z15idDeclAllocatorI11idDeclEmailEP6idDeclv, @function
_Z15idDeclAllocatorI11idDeclEmailEP6idDeclv:
.LFB2878:
	.loc 3 241 0
	.cfi_startproc
	mflr 0
	stwu 1,-8(1)
.LCFI157:
	.cfi_def_cfa_offset 8
	.cfi_register 65, 0
	.loc 3 242 0
	li 3,200
	.loc 3 241 0
	stw 0,12(1)
	.loc 3 242 0
	.cfi_offset 65, 4
	bl _Znwj
.LVL423:
.LBB2080:
.LBB2081:
	.file 10 "d:/Data/Nintendo/DoomGX/src/framework/../idlib/../framework/DeclPDA.h"
	.loc 10 43 0
	lis 12,_ZTV11idDeclEmail+8@ha
.LBB2082:
.LBB2083:
	.loc 3 136 0
	li 0,0
.LBE2083:
.LBE2082:
.LBB2085:
.LBB2086:
.LBB2087:
	.loc 6 357 0
	li 11,20
	.loc 6 358 0
	addi 4,3,20
.LBE2087:
.LBE2086:
.LBE2085:
.LBB2090:
.LBB2091:
.LBB2092:
	addi 5,3,52
.LBE2092:
.LBE2091:
.LBE2090:
.LBB2095:
.LBB2096:
.LBB2097:
	addi 6,3,84
.LBE2097:
.LBE2096:
.LBE2095:
.LBB2100:
.LBB2101:
.LBB2102:
	addi 7,3,116
.LBE2102:
.LBE2101:
.LBE2100:
.LBB2105:
.LBB2106:
.LBB2107:
	addi 8,3,148
.LBE2107:
.LBE2106:
.LBE2105:
.LBB2110:
.LBB2111:
.LBB2112:
	addi 10,3,180
.LBE2112:
.LBE2111:
.LBE2110:
	.loc 10 43 0
	la 12,_ZTV11idDeclEmail+8@l(12)
.LBB2115:
.LBB2084:
	.loc 3 136 0
	stw 0,4(3)
.LBE2084:
.LBE2115:
	.loc 10 43 0
	stw 12,0(3)
.LVL424:
.LBB2116:
.LBB2089:
.LBB2088:
	.loc 6 356 0
	stw 0,8(3)
	.loc 6 357 0
	stw 11,16(3)
	.loc 6 358 0
	stw 4,12(3)
	.loc 6 359 0
	stb 0,20(3)
.LVL425:
.LBE2088:
.LBE2089:
.LBE2116:
.LBB2117:
.LBB2094:
.LBB2093:
	.loc 6 356 0
	stw 0,40(3)
	.loc 6 357 0
	stw 11,48(3)
	.loc 6 358 0
	stw 5,44(3)
	.loc 6 359 0
	stb 0,52(3)
.LVL426:
.LBE2093:
.LBE2094:
.LBE2117:
.LBB2118:
.LBB2099:
.LBB2098:
	.loc 6 356 0
	stw 0,72(3)
	.loc 6 357 0
	stw 11,80(3)
	.loc 6 358 0
	stw 6,76(3)
	.loc 6 359 0
	stb 0,84(3)
.LVL427:
.LBE2098:
.LBE2099:
.LBE2118:
.LBB2119:
.LBB2104:
.LBB2103:
	.loc 6 356 0
	stw 0,104(3)
	.loc 6 357 0
	stw 11,112(3)
	.loc 6 358 0
	stw 7,108(3)
	.loc 6 359 0
	stb 0,116(3)
.LVL428:
.LBE2103:
.LBE2104:
.LBE2119:
.LBB2120:
.LBB2109:
.LBB2108:
	.loc 6 356 0
	stw 0,136(3)
	.loc 6 357 0
	stw 11,144(3)
	.loc 6 358 0
	stw 8,140(3)
	.loc 6 359 0
	stb 0,148(3)
.LVL429:
.LBE2108:
.LBE2109:
.LBE2120:
.LBB2121:
.LBB2114:
.LBB2113:
	.loc 6 356 0
	stw 0,168(3)
	.loc 6 357 0
	stw 11,176(3)
	.loc 6 358 0
	stw 10,172(3)
	.loc 6 359 0
	stb 0,180(3)
.LBE2113:
.LBE2114:
.LBE2121:
.LBE2081:
.LBE2080:
	.loc 3 243 0
	lwz 0,12(1)
	addi 1,1,8
.LCFI158:
	.cfi_def_cfa_offset 0
	mtlr 0
	blr
	.cfi_endproc
.LFE2878:
	.size	_Z15idDeclAllocatorI11idDeclEmailEP6idDeclv, .-_Z15idDeclAllocatorI11idDeclEmailEP6idDeclv
	.section	.text._Z15idDeclAllocatorI11idDeclVideoEP6idDeclv,"axG",@progbits,_Z15idDeclAllocatorI11idDeclVideoEP6idDeclv,comdat
	.align 2
	.weak	_Z15idDeclAllocatorI11idDeclVideoEP6idDeclv
	.type	_Z15idDeclAllocatorI11idDeclVideoEP6idDeclv, @function
_Z15idDeclAllocatorI11idDeclVideoEP6idDeclv:
.LFB2879:
	.loc 3 241 0
	.cfi_startproc
	mflr 0
	stwu 1,-8(1)
.LCFI159:
	.cfi_def_cfa_offset 8
	.cfi_register 65, 0
	.loc 3 242 0
	li 3,168
	.loc 3 241 0
	stw 0,12(1)
	.loc 3 242 0
	.cfi_offset 65, 4
	bl _Znwj
.LVL430:
.LBB2122:
.LBB2123:
	.loc 10 71 0
	lis 4,_ZTV11idDeclVideo+8@ha
.LBB2124:
.LBB2125:
	.loc 3 136 0
	li 0,0
.LBE2125:
.LBE2124:
.LBB2127:
.LBB2128:
.LBB2129:
	.loc 6 357 0
	li 11,20
	.loc 6 358 0
	addi 5,3,20
.LBE2129:
.LBE2128:
.LBE2127:
.LBB2132:
.LBB2133:
.LBB2134:
	addi 6,3,52
.LBE2134:
.LBE2133:
.LBE2132:
.LBB2137:
.LBB2138:
.LBB2139:
	addi 7,3,84
.LBE2139:
.LBE2138:
.LBE2137:
.LBB2142:
.LBB2143:
.LBB2144:
	addi 8,3,116
.LBE2144:
.LBE2143:
.LBE2142:
.LBB2147:
.LBB2148:
.LBB2149:
	addi 10,3,148
.LBE2149:
.LBE2148:
.LBE2147:
	.loc 10 71 0
	la 4,_ZTV11idDeclVideo+8@l(4)
.LBB2152:
.LBB2126:
	.loc 3 136 0
	stw 0,4(3)
.LBE2126:
.LBE2152:
	.loc 10 71 0
	stw 4,0(3)
.LVL431:
.LBB2153:
.LBB2131:
.LBB2130:
	.loc 6 356 0
	stw 0,8(3)
	.loc 6 357 0
	stw 11,16(3)
	.loc 6 358 0
	stw 5,12(3)
	.loc 6 359 0
	stb 0,20(3)
.LVL432:
.LBE2130:
.LBE2131:
.LBE2153:
.LBB2154:
.LBB2136:
.LBB2135:
	.loc 6 356 0
	stw 0,40(3)
	.loc 6 357 0
	stw 11,48(3)
	.loc 6 358 0
	stw 6,44(3)
	.loc 6 359 0
	stb 0,52(3)
.LVL433:
.LBE2135:
.LBE2136:
.LBE2154:
.LBB2155:
.LBB2141:
.LBB2140:
	.loc 6 356 0
	stw 0,72(3)
	.loc 6 357 0
	stw 11,80(3)
	.loc 6 358 0
	stw 7,76(3)
	.loc 6 359 0
	stb 0,84(3)
.LVL434:
.LBE2140:
.LBE2141:
.LBE2155:
.LBB2156:
.LBB2146:
.LBB2145:
	.loc 6 356 0
	stw 0,104(3)
	.loc 6 357 0
	stw 11,112(3)
	.loc 6 358 0
	stw 8,108(3)
	.loc 6 359 0
	stb 0,116(3)
.LVL435:
.LBE2145:
.LBE2146:
.LBE2156:
.LBB2157:
.LBB2151:
.LBB2150:
	.loc 6 356 0
	stw 0,136(3)
	.loc 6 357 0
	stw 11,144(3)
	.loc 6 358 0
	stw 10,140(3)
	.loc 6 359 0
	stb 0,148(3)
.LBE2150:
.LBE2151:
.LBE2157:
.LBE2123:
.LBE2122:
	.loc 3 243 0
	lwz 0,12(1)
	addi 1,1,8
.LCFI160:
	.cfi_def_cfa_offset 0
	mtlr 0
	blr
	.cfi_endproc
.LFE2879:
	.size	_Z15idDeclAllocatorI11idDeclVideoEP6idDeclv, .-_Z15idDeclAllocatorI11idDeclVideoEP6idDeclv
	.section	.text._Z15idDeclAllocatorI11idDeclAudioEP6idDeclv,"axG",@progbits,_Z15idDeclAllocatorI11idDeclAudioEP6idDeclv,comdat
	.align 2
	.weak	_Z15idDeclAllocatorI11idDeclAudioEP6idDeclv
	.type	_Z15idDeclAllocatorI11idDeclAudioEP6idDeclv, @function
_Z15idDeclAllocatorI11idDeclAudioEP6idDeclv:
.LFB2880:
	.loc 3 241 0
	.cfi_startproc
	mflr 0
	stwu 1,-8(1)
.LCFI161:
	.cfi_def_cfa_offset 8
	.cfi_register 65, 0
	.loc 3 242 0
	li 3,136
	.loc 3 241 0
	stw 0,12(1)
	.loc 3 242 0
	.cfi_offset 65, 4
	bl _Znwj
.LVL436:
.LBB2158:
.LBB2159:
	.loc 10 97 0
	lis 5,_ZTV11idDeclAudio+8@ha
.LBB2160:
.LBB2161:
	.loc 3 136 0
	li 0,0
.LBE2161:
.LBE2160:
.LBB2163:
.LBB2164:
.LBB2165:
	.loc 6 357 0
	li 11,20
	.loc 6 358 0
	addi 6,3,20
.LBE2165:
.LBE2164:
.LBE2163:
.LBB2168:
.LBB2169:
.LBB2170:
	addi 7,3,52
.LBE2170:
.LBE2169:
.LBE2168:
.LBB2173:
.LBB2174:
.LBB2175:
	addi 8,3,84
.LBE2175:
.LBE2174:
.LBE2173:
.LBB2178:
.LBB2179:
.LBB2180:
	addi 10,3,116
.LBE2180:
.LBE2179:
.LBE2178:
	.loc 10 97 0
	la 5,_ZTV11idDeclAudio+8@l(5)
.LBB2183:
.LBB2162:
	.loc 3 136 0
	stw 0,4(3)
.LBE2162:
.LBE2183:
	.loc 10 97 0
	stw 5,0(3)
.LVL437:
.LBB2184:
.LBB2167:
.LBB2166:
	.loc 6 356 0
	stw 0,8(3)
	.loc 6 357 0
	stw 11,16(3)
	.loc 6 358 0
	stw 6,12(3)
	.loc 6 359 0
	stb 0,20(3)
.LVL438:
.LBE2166:
.LBE2167:
.LBE2184:
.LBB2185:
.LBB2172:
.LBB2171:
	.loc 6 356 0
	stw 0,40(3)
	.loc 6 357 0
	stw 11,48(3)
	.loc 6 358 0
	stw 7,44(3)
	.loc 6 359 0
	stb 0,52(3)
.LVL439:
.LBE2171:
.LBE2172:
.LBE2185:
.LBB2186:
.LBB2177:
.LBB2176:
	.loc 6 356 0
	stw 0,72(3)
	.loc 6 357 0
	stw 11,80(3)
	.loc 6 358 0
	stw 8,76(3)
	.loc 6 359 0
	stb 0,84(3)
.LVL440:
.LBE2176:
.LBE2177:
.LBE2186:
.LBB2187:
.LBB2182:
.LBB2181:
	.loc 6 356 0
	stw 0,104(3)
	.loc 6 357 0
	stw 11,112(3)
	.loc 6 358 0
	stw 10,108(3)
	.loc 6 359 0
	stb 0,116(3)
.LBE2181:
.LBE2182:
.LBE2187:
.LBE2159:
.LBE2158:
	.loc 3 243 0
	lwz 0,12(1)
	addi 1,1,8
.LCFI162:
	.cfi_def_cfa_offset 0
	mtlr 0
	blr
	.cfi_endproc
.LFE2880:
	.size	_Z15idDeclAllocatorI11idDeclAudioEP6idDeclv, .-_Z15idDeclAllocatorI11idDeclAudioEP6idDeclv
	.section	.text._Z15idDeclAllocatorI8idDeclFXEP6idDeclv,"axG",@progbits,_Z15idDeclAllocatorI8idDeclFXEP6idDeclv,comdat
	.align 2
	.weak	_Z15idDeclAllocatorI8idDeclFXEP6idDeclv
	.type	_Z15idDeclAllocatorI8idDeclFXEP6idDeclv, @function
_Z15idDeclAllocatorI8idDeclFXEP6idDeclv:
.LFB2868:
	.loc 3 241 0
	.cfi_startproc
	mflr 0
	stwu 1,-8(1)
.LCFI163:
	.cfi_def_cfa_offset 8
	.cfi_register 65, 0
	.loc 3 242 0
	li 3,56
	.loc 3 241 0
	stw 0,12(1)
	.loc 3 242 0
	.cfi_offset 65, 4
	bl _Znwj
.LVL441:
.LBB2188:
.LBB2189:
	.file 11 "d:/Data/Nintendo/DoomGX/src/framework/../idlib/../framework/DeclFX.h"
	.loc 11 97 0
	lis 10,_ZTV8idDeclFX+8@ha
.LBB2190:
.LBB2191:
	.loc 3 136 0
	li 0,0
.LBE2191:
.LBE2190:
	.loc 11 97 0
	la 10,_ZTV8idDeclFX+8@l(10)
.LBB2193:
.LBB2194:
.LBB2195:
	.loc 6 358 0
	addi 11,3,36
.LBE2195:
.LBE2194:
.LBE2193:
	.loc 11 97 0
	stw 10,0(3)
.LVL442:
.LBB2200:
.LBB2201:
	.loc 5 159 0
	li 10,16
	stw 10,16(3)
.LVL443:
.LBE2201:
.LBE2200:
.LBB2205:
.LBB2198:
.LBB2196:
	.loc 6 357 0
	li 10,20
.LBE2196:
.LBE2198:
.LBE2205:
.LBB2206:
.LBB2192:
	.loc 3 136 0
	stw 0,4(3)
.LBE2192:
.LBE2206:
.LBB2207:
.LBB2204:
.LBB2202:
.LBB2203:
	.loc 5 197 0
	stw 0,20(3)
	.loc 5 198 0
	stw 0,8(3)
	.loc 5 199 0
	stw 0,12(3)
.LVL444:
.LBE2203:
.LBE2202:
.LBE2204:
.LBE2207:
.LBB2208:
.LBB2199:
.LBB2197:
	.loc 6 356 0
	stw 0,24(3)
	.loc 6 357 0
	stw 10,32(3)
	.loc 6 358 0
	stw 11,28(3)
	.loc 6 359 0
	stb 0,36(3)
.LBE2197:
.LBE2199:
.LBE2208:
.LBE2189:
.LBE2188:
	.loc 3 243 0
	lwz 0,12(1)
	addi 1,1,8
.LCFI164:
	.cfi_def_cfa_offset 0
	mtlr 0
	blr
	.cfi_endproc
.LFE2868:
	.size	_Z15idDeclAllocatorI8idDeclFXEP6idDeclv, .-_Z15idDeclAllocatorI8idDeclFXEP6idDeclv
	.section	.text._Z15idDeclAllocatorI14idDeclParticleEP6idDeclv,"axG",@progbits,_Z15idDeclAllocatorI14idDeclParticleEP6idDeclv,comdat
	.align 2
	.weak	_Z15idDeclAllocatorI14idDeclParticleEP6idDeclv
	.type	_Z15idDeclAllocatorI14idDeclParticleEP6idDeclv, @function
_Z15idDeclAllocatorI14idDeclParticleEP6idDeclv:
.LFB2872:
	.loc 3 241 0
	.cfi_startproc
	mflr 0
	stwu 1,-8(1)
.LCFI165:
	.cfi_def_cfa_offset 8
	.cfi_register 65, 0
	.loc 3 242 0
	li 3,52
	.loc 3 241 0
	stw 0,12(1)
	.loc 3 242 0
	.cfi_offset 65, 4
	bl _Znwj
.LVL445:
.LBB2209:
.LBB2210:
	.file 12 "d:/Data/Nintendo/DoomGX/src/framework/../idlib/../framework/DeclParticle.h"
	.loc 12 194 0
	lis 11,_ZTV14idDeclParticle+8@ha
.LBB2211:
.LBB2212:
	.loc 3 136 0
	li 0,0
.LBE2212:
.LBE2211:
	.loc 12 194 0
	la 11,_ZTV14idDeclParticle+8@l(11)
.LBB2214:
.LBB2213:
	.loc 3 136 0
	stw 0,4(3)
.LBE2213:
.LBE2214:
	.loc 12 194 0
	stw 11,0(3)
.LVL446:
.LBB2215:
.LBB2216:
	.loc 5 159 0
	li 11,16
	stw 11,16(3)
.LVL447:
.LBB2217:
.LBB2218:
	.loc 5 197 0
	stw 0,20(3)
	.loc 5 198 0
	stw 0,8(3)
	.loc 5 199 0
	stw 0,12(3)
.LBE2218:
.LBE2217:
.LBE2216:
.LBE2215:
.LBE2210:
.LBE2209:
	.loc 3 243 0
	lwz 0,12(1)
	addi 1,1,8
.LCFI166:
	.cfi_def_cfa_offset 0
	mtlr 0
	blr
	.cfi_endproc
.LFE2872:
	.size	_Z15idDeclAllocatorI14idDeclParticleEP6idDeclv, .-_Z15idDeclAllocatorI14idDeclParticleEP6idDeclv
	.section	.text._Z15idDeclAllocatorI8idDeclAFEP6idDeclv,"axG",@progbits,_Z15idDeclAllocatorI8idDeclAFEP6idDeclv,comdat
	.align 2
	.weak	_Z15idDeclAllocatorI8idDeclAFEP6idDeclv
	.type	_Z15idDeclAllocatorI8idDeclAFEP6idDeclv, @function
_Z15idDeclAllocatorI8idDeclAFEP6idDeclv:
.LFB2876:
	.loc 3 241 0
	.cfi_startproc
	.cfi_personality 0,__gxx_personality_v0
	.cfi_lsda 0,.LLSDA2876
	mflr 0
	stwu 1,-16(1)
.LCFI167:
	.cfi_def_cfa_offset 16
	.cfi_register 65, 0
	.loc 3 242 0
	li 3,176
	.loc 3 241 0
	stw 31,12(1)
	stw 0,20(1)
	stw 30,8(1)
.LEHB6:
	.loc 3 242 0
	.cfi_offset 30, -8
	.cfi_offset 65, 4
	.cfi_offset 31, -4
	bl _Znwj
.LEHE6:
	mr 31,3
.LEHB7:
	bl _ZN8idDeclAFC1Ev
.LEHE7:
	.loc 3 243 0 discriminator 1
	lwz 0,20(1)
	mr 3,31
	lwz 30,8(1)
	mtlr 0
	lwz 31,12(1)
	addi 1,1,16
	.cfi_remember_state
.LCFI168:
	.cfi_def_cfa_offset 0
	.cfi_restore 31
	.cfi_restore 30
	blr
.L245:
.LCFI169:
	.cfi_restore_state
	mr 30,3
	.loc 3 242 0
	mr 3,31
	bl _ZdlPv
	mr 3,30
.LEHB8:
	bl _Unwind_Resume
.LEHE8:
	.cfi_endproc
.LFE2876:
	.section	.gcc_except_table
.LLSDA2876:
	.byte	0xff
	.byte	0xff
	.byte	0x1
	.uleb128 .LLSDACSE2876-.LLSDACSB2876
.LLSDACSB2876:
	.uleb128 .LEHB6-.LFB2876
	.uleb128 .LEHE6-.LEHB6
	.uleb128 0
	.uleb128 0
	.uleb128 .LEHB7-.LFB2876
	.uleb128 .LEHE7-.LEHB7
	.uleb128 .L245-.LFB2876
	.uleb128 0
	.uleb128 .LEHB8-.LFB2876
	.uleb128 .LEHE8-.LEHB8
	.uleb128 0
	.uleb128 0
.LLSDACSE2876:
	.section	.text._Z15idDeclAllocatorI8idDeclAFEP6idDeclv,"axG",@progbits,_Z15idDeclAllocatorI8idDeclAFEP6idDeclv,comdat
	.size	_Z15idDeclAllocatorI8idDeclAFEP6idDeclv, .-_Z15idDeclAllocatorI8idDeclAFEP6idDeclv
	.section	.text._Z15idDeclAllocatorI10idMaterialEP6idDeclv,"axG",@progbits,_Z15idDeclAllocatorI10idMaterialEP6idDeclv,comdat
	.align 2
	.weak	_Z15idDeclAllocatorI10idMaterialEP6idDeclv
	.type	_Z15idDeclAllocatorI10idMaterialEP6idDeclv, @function
_Z15idDeclAllocatorI10idMaterialEP6idDeclv:
.LFB2859:
	.loc 3 241 0
	.cfi_startproc
	.cfi_personality 0,__gxx_personality_v0
	.cfi_lsda 0,.LLSDA2859
	mflr 0
	stwu 1,-16(1)
.LCFI170:
	.cfi_def_cfa_offset 16
	.cfi_register 65, 0
	.loc 3 242 0
	li 3,296
	.loc 3 241 0
	stw 31,12(1)
	stw 0,20(1)
	stw 30,8(1)
.LEHB9:
	.loc 3 242 0
	.cfi_offset 30, -8
	.cfi_offset 65, 4
	.cfi_offset 31, -4
	bl _Znwj
.LEHE9:
	mr 31,3
.LEHB10:
	bl _ZN10idMaterialC1Ev
.LEHE10:
	.loc 3 243 0 discriminator 1
	lwz 0,20(1)
	mr 3,31
	lwz 30,8(1)
	mtlr 0
	lwz 31,12(1)
	addi 1,1,16
	.cfi_remember_state
.LCFI171:
	.cfi_def_cfa_offset 0
	.cfi_restore 31
	.cfi_restore 30
	blr
.L248:
.LCFI172:
	.cfi_restore_state
	mr 30,3
	.loc 3 242 0
	mr 3,31
	bl _ZdlPv
	mr 3,30
.LEHB11:
	bl _Unwind_Resume
.LEHE11:
	.cfi_endproc
.LFE2859:
	.section	.gcc_except_table
.LLSDA2859:
	.byte	0xff
	.byte	0xff
	.byte	0x1
	.uleb128 .LLSDACSE2859-.LLSDACSB2859
.LLSDACSB2859:
	.uleb128 .LEHB9-.LFB2859
	.uleb128 .LEHE9-.LEHB9
	.uleb128 0
	.uleb128 0
	.uleb128 .LEHB10-.LFB2859
	.uleb128 .LEHE10-.LEHB10
	.uleb128 .L248-.LFB2859
	.uleb128 0
	.uleb128 .LEHB11-.LFB2859
	.uleb128 .LEHE11-.LEHB11
	.uleb128 0
	.uleb128 0
.LLSDACSE2859:
	.section	.text._Z15idDeclAllocatorI10idMaterialEP6idDeclv,"axG",@progbits,_Z15idDeclAllocatorI10idMaterialEP6idDeclv,comdat
	.size	_Z15idDeclAllocatorI10idMaterialEP6idDeclv, .-_Z15idDeclAllocatorI10idMaterialEP6idDeclv
	.section	".text"
	.align 2
	.globl _ZNK11idDeclLocal17SourceFileChangedEv
	.type	_ZNK11idDeclLocal17SourceFileChangedEv, @function
_ZNK11idDeclLocal17SourceFileChangedEv:
.LFB2646:
	.loc 4 2234 0
	.cfi_startproc
.LVL448:
	mflr 0
	stwu 1,-40(1)
.LCFI173:
	.cfi_def_cfa_offset 40
	.cfi_register 65, 0
	stw 31,36(1)
	mr 31,3
	.cfi_offset 31, -4
	stw 0,44(1)
.LBB2223:
	.loc 4 2239 0
	li 0,0
	.cfi_offset 65, 4
.LBE2223:
	.loc 4 2234 0
	stw 29,28(1)
	stw 30,32(1)
.LBB2224:
	.loc 4 2238 0
	lwz 9,56(3)
	lwz 9,44(9)
	cmpwi 7,9,0
	ble- 7,.L250
	.cfi_offset 30, -8
	.cfi_offset 29, -12
.LVL449:
.LBE2224:
.LBB2225:
.LBB2226:
	.loc 4 2242 0
	lwz 9,0(3)
	lis 11,fileSystem@ha
	lwz 29,fileSystem@l(11)
	lwz 0,48(9)
	lwz 9,0(29)
	mtctr 0
	lwz 30,96(9)
	bctrl
.LVL450:
	li 5,0
	mr 4,3
	addi 6,1,8
	mr 3,29
	mtctr 30
	bctrl
.LVL451:
	.loc 4 2244 0
	lwz 9,56(31)
	.loc 4 2245 0
	li 0,1
	.loc 4 2244 0
	lwz 11,44(9)
	cmpw 7,3,11
	beq- 7,.L254
.LVL452:
.L250:
.LBE2226:
.LBE2225:
	.loc 4 2249 0
	mr 3,0
	lwz 0,44(1)
	lwz 29,28(1)
	mtlr 0
	lwz 30,32(1)
	lwz 31,36(1)
.LVL453:
	addi 1,1,40
	.cfi_remember_state
.LCFI174:
	.cfi_def_cfa_offset 0
	.cfi_restore 31
	.cfi_restore 30
	.cfi_restore 29
	blr
.LVL454:
.L254:
.LCFI175:
	.cfi_restore_state
.LBB2231:
.LBB2227:
	.loc 4 2234 0
	lwz 0,8(1)
	lwz 9,36(9)
.LBE2227:
.LBE2231:
	.loc 4 2249 0
	lwz 29,28(1)
.LBB2232:
.LBB2228:
	.loc 4 2234 0
	xor 0,9,0
.LBE2228:
.LBE2232:
	.loc 4 2249 0
	lwz 30,32(1)
.LBB2233:
.LBB2229:
	.loc 4 2234 0
	cntlzw 0,0
.LBE2229:
.LBE2233:
	.loc 4 2249 0
	lwz 31,36(1)
.LVL455:
.LBB2234:
.LBB2230:
	.loc 4 2234 0
	srwi 0,0,5
	xori 0,0,1
.LBE2230:
.LBE2234:
	.loc 4 2249 0
	mr 3,0
.LVL456:
	lwz 0,44(1)
	addi 1,1,40
	.cfi_restore 29
	.cfi_restore 30
	.cfi_restore 31
.LCFI176:
	.cfi_def_cfa_offset 0
	mtlr 0
	blr
	.cfi_endproc
.LFE2646:
	.size	_ZNK11idDeclLocal17SourceFileChangedEv, .-_ZNK11idDeclLocal17SourceFileChangedEv
	.section	.text._ZN14idFixedWindingD2Ev,"axG",@progbits,_ZN14idFixedWindingD5Ev,comdat
	.align 2
	.weak	_ZN14idFixedWindingD2Ev
	.type	_ZN14idFixedWindingD2Ev, @function
_ZN14idFixedWindingD2Ev:
.LFB1498:
	.loc 1 380 0
	.cfi_startproc
.LVL457:
.LBB2240:
	.loc 1 381 0
	li 0,0
.LBB2241:
.LBB2242:
.LBB2243:
	.loc 1 183 0
	lis 9,_ZTV9idWinding+8@ha
.LBE2243:
.LBE2242:
.LBE2241:
	.loc 1 381 0
	stw 0,8(3)
.LVL458:
.LBB2246:
.LBB2245:
.LBB2244:
	.loc 1 183 0
	la 0,_ZTV9idWinding+8@l(9)
	stw 0,0(3)
.LBE2244:
.LBE2245:
.LBE2246:
.LBE2240:
	.loc 1 382 0
	blr
	.cfi_endproc
.LFE1498:
	.size	_ZN14idFixedWindingD2Ev, .-_ZN14idFixedWindingD2Ev
	.section	.text._ZN9idWindingD0Ev,"axG",@progbits,_ZN9idWindingD5Ev,comdat
	.align 2
	.weak	_ZN9idWindingD0Ev
	.type	_ZN9idWindingD0Ev, @function
_ZN9idWindingD0Ev:
.LFB1463:
	.loc 1 183 0
	.cfi_startproc
.LVL459:
	mflr 0
	stwu 1,-16(1)
.LCFI177:
	.cfi_def_cfa_offset 16
	.cfi_register 65, 0
.LBB2250:
.LBB2251:
.LBB2252:
	lis 9,_ZTV9idWinding+8@ha
.LBE2252:
.LBE2251:
.LBE2250:
	stw 31,12(1)
	mr 31,3
	.cfi_offset 31, -4
.LVL460:
	stw 0,20(1)
.LBB2257:
.LBB2255:
.LBB2253:
	.loc 1 183 0
	la 0,_ZTV9idWinding+8@l(9)
	.cfi_offset 65, 4
	.loc 1 184 0
	lwz 3,8(3)
.LVL461:
	.loc 1 183 0
	stw 0,0(31)
	.loc 1 184 0
	cmpwi 7,3,0
	beq- 7,.L259
	bl _ZdaPv
.L259:
	.loc 1 185 0
	li 0,0
.LBE2253:
.LBE2255:
.LBE2257:
	.loc 1 186 0
	mr 3,31
.LBB2258:
.LBB2256:
.LBB2254:
	.loc 1 185 0
	stw 0,8(31)
.LBE2254:
.LBE2256:
.LBE2258:
	.loc 1 186 0
	bl _ZdlPv
	lwz 0,20(1)
	lwz 31,12(1)
.LVL462:
	mtlr 0
	addi 1,1,16
.LCFI178:
	.cfi_def_cfa_offset 0
	.cfi_restore 31
	blr
	.cfi_endproc
.LFE1463:
	.size	_ZN9idWindingD0Ev, .-_ZN9idWindingD0Ev
	.section	.text._ZN14idFixedWindingD0Ev,"axG",@progbits,_ZN14idFixedWindingD5Ev,comdat
	.align 2
	.weak	_ZN14idFixedWindingD0Ev
	.type	_ZN14idFixedWindingD0Ev, @function
_ZN14idFixedWindingD0Ev:
.LFB1500:
	.loc 1 380 0
	.cfi_startproc
.LVL463:
	mflr 0
	stwu 1,-8(1)
.LCFI179:
	.cfi_def_cfa_offset 8
	.cfi_register 65, 0
.LBB2265:
.LBB2266:
.LBB2267:
.LBB2268:
.LBB2269:
.LBB2270:
	.loc 1 183 0
	lis 11,_ZTV9idWinding+8@ha
.LBE2270:
.LBE2269:
.LBE2268:
.LBE2267:
.LBE2266:
.LBE2265:
	.loc 1 380 0
	stw 0,12(1)
.LBB2276:
.LBB2275:
.LBB2274:
	.loc 1 381 0
	li 0,0
	.cfi_offset 65, 4
	stw 0,8(3)
.LVL464:
.LBB2273:
.LBB2272:
.LBB2271:
	.loc 1 183 0
	la 0,_ZTV9idWinding+8@l(11)
	stw 0,0(3)
.LBE2271:
.LBE2272:
.LBE2273:
.LBE2274:
.LBE2275:
.LBE2276:
	.loc 1 382 0
	bl _ZdlPv
.LVL465:
	lwz 0,12(1)
	addi 1,1,8
.LCFI180:
	.cfi_def_cfa_offset 0
	mtlr 0
	blr
	.cfi_endproc
.LFE1500:
	.size	_ZN14idFixedWindingD0Ev, .-_ZN14idFixedWindingD0Ev
	.section	.text._Z15idDeclAllocatorI11idDeclTableEP6idDeclv,"axG",@progbits,_Z15idDeclAllocatorI11idDeclTableEP6idDeclv,comdat
	.align 2
	.weak	_Z15idDeclAllocatorI11idDeclTableEP6idDeclv
	.type	_Z15idDeclAllocatorI11idDeclTableEP6idDeclv, @function
_Z15idDeclAllocatorI11idDeclTableEP6idDeclv:
.LFB2855:
	.loc 3 241 0
	.cfi_startproc
	mflr 0
	stwu 1,-8(1)
.LCFI181:
	.cfi_def_cfa_offset 8
	.cfi_register 65, 0
	.loc 3 242 0
	li 3,28
	.loc 3 241 0
	stw 0,12(1)
	.loc 3 242 0
	.cfi_offset 65, 4
	bl _Znwj
.LVL466:
.LBB2285:
.LBB2286:
	.file 13 "d:/Data/Nintendo/DoomGX/src/framework/../idlib/../framework/DeclTable.h"
	.loc 13 41 0
	lis 11,_ZTV11idDeclTable+8@ha
.LBB2287:
.LBB2288:
	.loc 3 136 0
	li 0,0
.LBE2288:
.LBE2287:
	.loc 13 41 0
	la 11,_ZTV11idDeclTable+8@l(11)
.LBB2290:
.LBB2289:
	.loc 3 136 0
	stw 0,4(3)
.LBE2289:
.LBE2290:
	.loc 13 41 0
	stw 11,0(3)
.LVL467:
.LBB2291:
.LBB2292:
	.loc 5 159 0
	li 11,16
	stw 11,20(3)
.LVL468:
.LBB2293:
.LBB2294:
	.loc 5 197 0
	stw 0,24(3)
	.loc 5 198 0
	stw 0,12(3)
	.loc 5 199 0
	stw 0,16(3)
.LBE2294:
.LBE2293:
.LBE2292:
.LBE2291:
.LBE2286:
.LBE2285:
	.loc 3 243 0
	lwz 0,12(1)
	addi 1,1,8
.LCFI182:
	.cfi_def_cfa_offset 0
	mtlr 0
	blr
	.cfi_endproc
.LFE2855:
	.size	_Z15idDeclAllocatorI11idDeclTableEP6idDeclv, .-_Z15idDeclAllocatorI11idDeclTableEP6idDeclv
	.section	.text._Z15idDeclAllocatorI10idDeclSkinEP6idDeclv,"axG",@progbits,_Z15idDeclAllocatorI10idDeclSkinEP6idDeclv,comdat
	.align 2
	.weak	_Z15idDeclAllocatorI10idDeclSkinEP6idDeclv
	.type	_Z15idDeclAllocatorI10idDeclSkinEP6idDeclv, @function
_Z15idDeclAllocatorI10idDeclSkinEP6idDeclv:
.LFB2860:
	.loc 3 241 0
	.cfi_startproc
	mflr 0
	stwu 1,-8(1)
.LCFI183:
	.cfi_def_cfa_offset 8
	.cfi_register 65, 0
	.loc 3 242 0
	li 3,40
	.loc 3 241 0
	stw 0,12(1)
	.loc 3 242 0
	.cfi_offset 65, 4
	bl _Znwj
.LVL469:
.LBB2318:
.LBB2319:
	.file 14 "d:/Data/Nintendo/DoomGX/src/framework/../idlib/../framework/DeclSkin.h"
	.loc 14 45 0
	lis 10,_ZTV10idDeclSkin+8@ha
.LBB2320:
.LBB2321:
	.loc 3 136 0
	li 0,0
.LBE2321:
.LBE2320:
.LBB2323:
.LBB2324:
	.loc 5 159 0
	li 11,16
.LBE2324:
.LBE2323:
	.loc 14 45 0
	la 10,_ZTV10idDeclSkin+8@l(10)
.LBB2328:
.LBB2322:
	.loc 3 136 0
	stw 0,4(3)
.LBE2322:
.LBE2328:
	.loc 14 45 0
	stw 10,0(3)
.LVL470:
.LBB2329:
.LBB2327:
	.loc 5 159 0
	stw 11,16(3)
.LVL471:
.LBB2325:
.LBB2326:
	.loc 5 197 0
	stw 0,20(3)
	.loc 5 198 0
	stw 0,8(3)
	.loc 5 199 0
	stw 0,12(3)
.LVL472:
.LBE2326:
.LBE2325:
.LBE2327:
.LBE2329:
.LBB2330:
.LBB2331:
	.loc 5 159 0
	stw 11,32(3)
.LVL473:
.LBB2332:
.LBB2333:
	.loc 5 197 0
	stw 0,36(3)
	.loc 5 198 0
	stw 0,24(3)
	.loc 5 199 0
	stw 0,28(3)
.LBE2333:
.LBE2332:
.LBE2331:
.LBE2330:
.LBE2319:
.LBE2318:
	.loc 3 243 0
	lwz 0,12(1)
	addi 1,1,8
.LCFI184:
	.cfi_def_cfa_offset 0
	mtlr 0
	blr
	.cfi_endproc
.LFE2860:
	.size	_Z15idDeclAllocatorI10idDeclSkinEP6idDeclv, .-_Z15idDeclAllocatorI10idDeclSkinEP6idDeclv
	.section	".text"
	.align 2
	.globl _ZN18idDeclManagerLocal16RegisterDeclTypeEPKc10declType_tPFP6idDeclvE
	.type	_ZN18idDeclManagerLocal16RegisterDeclTypeEPKc10declType_tPFP6idDeclvE, @function
_ZN18idDeclManagerLocal16RegisterDeclTypeEPKc10declType_tPFP6idDeclvE:
.LFB2588:
	.loc 4 1057 0
	.cfi_startproc
.LVL474:
	mflr 0
	stwu 1,-32(1)
.LCFI185:
	.cfi_def_cfa_offset 32
	.cfi_register 65, 0
	stw 26,8(1)
	mr 26,6
	.cfi_offset 26, -24
	stw 27,12(1)
.LBB2357:
	.loc 4 1062 0
	slwi 27,5,2
	.cfi_offset 27, -20
.LBE2357:
	.loc 4 1057 0
	stw 29,20(1)
	mr 29,4
	.cfi_offset 29, -12
	stw 30,24(1)
	mr 30,5
	.cfi_offset 30, -8
	stw 31,28(1)
	mr 31,3
	.cfi_offset 31, -4
	stw 0,36(1)
	stw 28,16(1)
.LBB2358:
	.loc 4 1060 0
	lwz 0,4(3)
	.cfi_offset 28, -16
	.cfi_offset 65, 4
	cmpw 7,5,0
	bge- 7,.L270
.LVL475:
	.loc 4 1060 0 is_stmt 0 discriminator 1
	lwz 9,16(3)
	lwzx 0,9,27
	cmpwi 7,0,0
	beq- 7,.L270
	.loc 4 1061 0 is_stmt 1 discriminator 4
	lis 9,common@ha
	lis 4,.LC36@ha
.LVL476:
	lwz 3,common@l(9)
.LVL477:
	mr 5,29
.LVL478:
	la 4,.LC36@l(4)
	lwz 9,0(3)
	lwz 0,80(9)
	mtctr 0
	crxor 6,6,6
	bctrl
.LVL479:
.LBE2358:
	.loc 4 1074 0 discriminator 4
	lwz 0,36(1)
	lwz 26,8(1)
.LVL480:
	mtlr 0
	lwz 27,12(1)
	lwz 28,16(1)
	lwz 29,20(1)
.LVL481:
	lwz 30,24(1)
.LVL482:
	lwz 31,28(1)
.LVL483:
	addi 1,1,32
	.cfi_remember_state
.LCFI186:
	.cfi_def_cfa_offset 0
	.cfi_restore 31
	.cfi_restore 30
	.cfi_restore 29
	.cfi_restore 28
	.cfi_restore 27
	.cfi_restore 26
	blr
.LVL484:
.L270:
.LCFI187:
	.cfi_restore_state
.LBB2359:
.LBB2360:
	.loc 4 1065 0
	li 3,40
.LVL485:
	bl _Znwj
.LVL486:
.LBB2361:
.LBB2362:
.LBB2363:
.LBB2364:
	.loc 6 356 0
	li 0,0
	.loc 6 358 0
	addi 9,3,12
	.loc 6 357 0
	li 11,20
	.loc 6 356 0
	stw 0,0(3)
.LBE2364:
.LBE2363:
.LBE2362:
.LBE2361:
	.loc 4 1065 0
	mr 28,3
.LVL487:
.LBB2371:
.LBB2369:
.LBB2367:
.LBB2365:
	.loc 6 359 0
	stb 0,12(3)
.LVL488:
.LBE2365:
.LBE2367:
.LBE2369:
.LBE2371:
	.loc 4 1066 0
	mr 4,29
.LBB2372:
.LBB2370:
.LBB2368:
.LBB2366:
	.loc 6 357 0
	stw 11,8(3)
	.loc 6 358 0
	stw 9,4(3)
.LBE2366:
.LBE2368:
.LBE2370:
.LBE2372:
	.loc 4 1066 0
	bl _ZN5idStraSEPKc
.LVL489:
	.loc 4 1067 0
	stw 30,32(28)
	.loc 4 1068 0
	stw 26,36(28)
	.loc 4 1070 0
	lwz 0,4(31)
	cmpw 7,30,0
	blt- 7,.L293
.LBB2373:
.LBB2374:
.LBB2375:
	.loc 5 481 0
	lwz 0,8(31)
.LBE2375:
.LBE2374:
.LBE2373:
	.loc 4 1071 0
	addi 30,30,1
.LVL490:
.LBB2395:
.LBB2393:
.LBB2390:
	.loc 5 481 0
	cmpw 7,30,0
	ble- 7,.L292
.LBB2376:
	.loc 5 483 0
	lwz 9,12(31)
	cmpwi 7,9,0
	addi 29,9,-1
.LVL491:
	bne- 7,.L274
	.loc 5 484 0
	li 9,16
	li 29,15
	stw 9,12(31)
.L274:
	.loc 5 487 0
	add 29,30,29
.LVL492:
	.loc 5 489 0
	stw 0,4(31)
	.loc 5 488 0
	divw 29,29,9
.LVL493:
.LBB2377:
.LBB2378:
	.loc 5 375 0
	mullw. 29,29,9
.LVL494:
	ble- 0,.L294
	.loc 5 380 0
	cmpw 7,0,29
	beq- 7,.L292
	.loc 5 385 0
	lwz 26,16(31)
.LVL495:
	.loc 5 386 0
	stw 29,8(31)
	.loc 5 387 0
	bgt- 7,.L295
.L277:
	.loc 5 392 0
	slwi 3,29,2
	bl _Znaj
.LVL496:
	.loc 5 393 0
	lwz 0,4(31)
	.loc 5 392 0
	stw 3,16(31)
.LVL497:
	.loc 5 393 0
	cmpwi 7,0,0
	ble- 7,.L278
	.loc 4 1057 0
	addi 11,26,-4
.LBE2378:
.LBE2377:
	.loc 5 393 0
	li 9,0
	b .L279
.LVL498:
.L296:
.LBB2384:
.LBB2381:
	lwz 3,16(31)
.LVL499:
.L279:
	.loc 5 394 0
	lwzu 10,4(11)
	slwi 0,9,2
	.loc 5 393 0
	addi 9,9,1
.LVL500:
	.loc 5 394 0
	stwx 10,3,0
	.loc 5 393 0
	lwz 0,4(31)
	cmpw 7,9,0
	blt+ 7,.L296
.LVL501:
.L278:
	.loc 5 398 0
	cmpwi 7,26,0
	beq- 7,.L297
	.loc 5 399 0
	mr 3,26
	bl _ZdaPv
	lwz 9,16(31)
	lwz 0,4(31)
	mr 11,9
.L281:
.LVL502:
.LBE2381:
.LBE2384:
.LBB2385:
	.loc 5 492 0
	cmpw 7,29,0
	ble- 7,.L272
	slwi 9,0,2
	.loc 5 493 0
	subf 0,0,29
.LVL503:
	li 10,0
	mtctr 0
	b .L282
.L288:
	.loc 5 492 0
	lwz 11,16(31)
.L282:
	.loc 5 493 0
	stwx 10,11,9
	.loc 5 492 0
	addi 9,9,4
	bdnz .L288
.LVL504:
.L292:
	lwz 9,16(31)
.L272:
.LBE2385:
.LBE2376:
.LBE2390:
	.loc 5 497 0
	stw 30,4(31)
.L284:
.LBE2393:
.LBE2395:
	.loc 4 1073 0
	stwx 28,9,27
.LVL505:
.L298:
.LBE2360:
.LBE2359:
	.loc 4 1074 0
	lwz 0,36(1)
	lwz 26,8(1)
	mtlr 0
	lwz 27,12(1)
	lwz 28,16(1)
.LVL506:
	lwz 29,20(1)
	lwz 30,24(1)
	lwz 31,28(1)
.LVL507:
	addi 1,1,32
	.cfi_remember_state
	.cfi_restore 26
	.cfi_restore 27
	.cfi_restore 28
	.cfi_restore 29
	.cfi_restore 30
	.cfi_restore 31
.LCFI188:
	.cfi_def_cfa_offset 0
	blr
.LVL508:
.L293:
.LCFI189:
	.cfi_restore_state
	lwz 9,16(31)
.LBB2398:
.LBB2397:
	.loc 4 1073 0
	stwx 28,9,27
	b .L298
.LVL509:
.L295:
.LBB2396:
.LBB2394:
.LBB2391:
.LBB2388:
.LBB2386:
.LBB2382:
	.loc 5 388 0
	stw 29,4(31)
	b .L277
.LVL510:
.L294:
.LBB2379:
.LBB2380:
	.loc 5 193 0
	lwz 3,16(31)
	cmpwi 7,3,0
	beq- 7,.L276
	.loc 5 194 0
	bl _ZdaPv
.LVL511:
.L276:
	.loc 5 197 0
	li 0,0
	li 9,0
	stw 0,16(31)
	.loc 5 199 0
	stw 0,8(31)
.LVL512:
.LBE2380:
.LBE2379:
.LBE2382:
.LBE2386:
.LBE2388:
.LBE2391:
	.loc 5 497 0
	stw 30,4(31)
	b .L284
.LVL513:
.L297:
.LBB2392:
.LBB2389:
.LBB2387:
.LBB2383:
	.loc 5 398 0
	lwz 9,16(31)
	mr 11,9
	b .L281
.LBE2383:
.LBE2387:
.LBE2389:
.LBE2392:
.LBE2394:
.LBE2396:
.LBE2397:
.LBE2398:
	.cfi_endproc
.LFE2588:
	.size	_ZN18idDeclManagerLocal16RegisterDeclTypeEPKc10declType_tPFP6idDeclvE, .-_ZN18idDeclManagerLocal16RegisterDeclTypeEPKc10declType_tPFP6idDeclvE
	.align 2
	.globl _Z23ClearHuffmanFrequenciesv
	.type	_Z23ClearHuffmanFrequenciesv, @function
_Z23ClearHuffmanFrequenciesv:
.LFB2553:
	.loc 4 341 0
	.cfi_startproc
.LVL514:
	.loc 4 341 0
	lis 9,.LANCHOR1@ha
.LBB2399:
	.loc 4 345 0
	li 11,256
.LBE2399:
	.loc 4 341 0
	la 9,.LANCHOR1@l(9)
.LBB2400:
	.loc 4 345 0
	mtctr 11
.LBE2400:
	.loc 4 341 0
	addi 9,9,-4
.LBB2401:
	.loc 4 345 0
	li 0,1
.LVL515:
.L300:
	.loc 4 345 0 is_stmt 0 discriminator 2
	stwu 0,4(9)
	.loc 4 344 0 is_stmt 1 discriminator 2
	bdnz .L300
.LBE2401:
	.loc 4 347 0
	blr
	.cfi_endproc
.LFE2553:
	.size	_Z23ClearHuffmanFrequenciesv, .-_Z23ClearHuffmanFrequenciesv
	.align 2
	.globl _Z17InsertHuffmanNodeP13huffmanNode_sS0_
	.type	_Z17InsertHuffmanNodeP13huffmanNode_sS0_, @function
_Z17InsertHuffmanNodeP13huffmanNode_sS0_:
.LFB2554:
	.loc 4 354 0
	.cfi_startproc
.LVL516:
.LBB2402:
	.loc 4 358 0
	cmpwi 0,3,0
.LVL517:
	beq- 0,.L303
	.loc 4 359 0
	lwz 10,4(4)
	mr 11,3
	lwz 0,4(3)
	cmpw 7,0,10
	blt+ 7,.L306
	b .L303
.LVL518:
.L307:
	lwz 0,4(9)
	cmpw 7,0,10
	bge- 7,.L305
	mr 11,9
.LVL519:
.L306:
	.loc 4 358 0
	lwz 9,8(11)
.LVL520:
	cmpwi 7,9,0
	bne+ 7,.L307
.L305:
	.loc 4 365 0
	stw 9,8(4)
	.loc 4 366 0
	stw 4,8(11)
	blr
.LVL521:
.L303:
	.loc 4 368 0
	stw 3,8(4)
.LVL522:
	mr 3,4
.LVL523:
.LBE2402:
	.loc 4 372 0
	blr
	.cfi_endproc
.LFE2554:
	.size	_Z17InsertHuffmanNodeP13huffmanNode_sS0_, .-_Z17InsertHuffmanNodeP13huffmanNode_sS0_
	.align 2
	.globl _Z18BuildHuffmanCode_rP13huffmanNode_s13huffmanCode_sPS1_
	.type	_Z18BuildHuffmanCode_rP13huffmanNode_s13huffmanCode_sPS1_, @function
_Z18BuildHuffmanCode_rP13huffmanNode_s13huffmanCode_sPS1_:
.LFB2555:
	.loc 4 379 0
	.cfi_startproc
.LVL524:
	mflr 0
	stwu 1,-136(1)
.LCFI190:
	.cfi_def_cfa_offset 136
	.cfi_register 65, 0
	stw 29,124(1)
	mr 29,5
	.cfi_offset 29, -12
	stw 30,128(1)
	mr 30,3
	.cfi_offset 30, -8
	stw 0,140(1)
	stw 27,116(1)
	stw 28,120(1)
	stw 31,132(1)
.LBB2403:
	.loc 4 380 0
	lwz 0,0(3)
	.cfi_offset 31, -4
	.cfi_offset 28, -16
	.cfi_offset 27, -20
	.cfi_offset 65, 4
.LBE2403:
	.loc 4 379 0
	lwz 31,32(4)
.LBB2405:
	.loc 4 380 0
	cmpwi 7,0,-1
	beq- 7,.L313
	.loc 4 392 0
	mulli 0,0,36
	li 5,36
.LVL525:
	add 29,29,0
.LVL526:
	mr 3,29
.LVL527:
	bl memcpy
	stw 31,32(29)
.LBE2405:
	.loc 4 394 0
	lwz 0,140(1)
	lwz 27,116(1)
	mtlr 0
	lwz 28,120(1)
	lwz 29,124(1)
	lwz 30,128(1)
.LVL528:
	lwz 31,132(1)
	addi 1,1,136
	.cfi_remember_state
.LCFI191:
	.cfi_def_cfa_offset 0
	.cfi_restore 31
	.cfi_restore 30
	.cfi_restore 29
	.cfi_restore 28
	.cfi_restore 27
	blr
.LVL529:
.L313:
.LCFI192:
	.cfi_restore_state
.LBB2406:
.LBB2404:
	.loc 4 381 0
	addi 28,1,8
	li 5,36
.LVL530:
	mr 3,28
.LVL531:
	bl memcpy
	.loc 4 384 0
	lis 9,.LANCHOR0@ha
	la 9,.LANCHOR0@l(9)
	.loc 4 383 0
	addi 0,31,1
	.loc 4 384 0
	lwz 11,1588(9)
	cmpw 7,11,31
	bge- 7,.L311
	.loc 4 385 0
	stw 0,1588(9)
.L311:
	.loc 4 387 0
	lwz 27,12(30)
	mr 4,28
	addi 3,1,64
	li 5,36
	stw 0,40(1)
	bl memcpy
	mr 3,27
	addi 4,1,64
	mr 5,29
	bl _Z18BuildHuffmanCode_rP13huffmanNode_s13huffmanCode_sPS1_
	.loc 4 388 0
	srawi 0,31,5
	slwi 0,0,2
	li 11,1
	lwzx 9,28,0
	rlwinm 31,31,0,27,31
	slw 31,11,31
	.loc 4 389 0
	mr 4,28
	.loc 4 388 0
	or 31,31,9
	.loc 4 389 0
	addi 3,1,64
	li 5,36
	.loc 4 388 0
	stwx 31,28,0
	.loc 4 389 0
	bl memcpy
	lwz 3,16(30)
	addi 4,1,64
	mr 5,29
	bl _Z18BuildHuffmanCode_rP13huffmanNode_s13huffmanCode_sPS1_
.LBE2404:
.LBE2406:
	.loc 4 394 0
	lwz 0,140(1)
	lwz 27,116(1)
	mtlr 0
	lwz 28,120(1)
	lwz 29,124(1)
.LVL532:
	lwz 30,128(1)
.LVL533:
	lwz 31,132(1)
	addi 1,1,136
	.cfi_restore 27
	.cfi_restore 28
	.cfi_restore 29
	.cfi_restore 30
	.cfi_restore 31
.LCFI193:
	.cfi_def_cfa_offset 0
	blr
	.cfi_endproc
.LFE2555:
	.size	_Z18BuildHuffmanCode_rP13huffmanNode_s13huffmanCode_sPS1_, .-_Z18BuildHuffmanCode_rP13huffmanNode_s13huffmanCode_sPS1_
	.align 2
	.globl _Z17FreeHuffmanTree_rP13huffmanNode_s
	.type	_Z17FreeHuffmanTree_rP13huffmanNode_s, @function
_Z17FreeHuffmanTree_rP13huffmanNode_s:
.LFB2556:
	.loc 4 401 0
	.cfi_startproc
.LVL534:
	mflr 0
	stwu 1,-16(1)
.LCFI194:
	.cfi_def_cfa_offset 16
	.cfi_register 65, 0
	stw 31,12(1)
	mr 31,3
	.cfi_offset 31, -4
	stw 0,20(1)
	.loc 4 402 0
	lwz 0,0(3)
	.cfi_offset 65, 4
	cmpwi 7,0,-1
	beq- 7,.L316
	.loc 4 409 0
	mr 3,31
	bl _ZdlPv
.LVL535:
	.loc 4 411 0
	lwz 0,20(1)
	lwz 31,12(1)
.LVL536:
	mtlr 0
	addi 1,1,16
	.cfi_remember_state
.LCFI195:
	.cfi_def_cfa_offset 0
	.cfi_restore 31
	blr
.LVL537:
.L316:
.LCFI196:
	.cfi_restore_state
	.loc 4 403 0
	lwz 3,12(3)
.LVL538:
	bl _Z17FreeHuffmanTree_rP13huffmanNode_s
	.loc 4 404 0
	lwz 3,16(31)
	bl _Z17FreeHuffmanTree_rP13huffmanNode_s
	.loc 4 409 0
	mr 3,31
	bl _ZdlPv
	.loc 4 411 0
	lwz 0,20(1)
	lwz 31,12(1)
.LVL539:
	mtlr 0
	addi 1,1,16
	.cfi_restore 31
.LCFI197:
	.cfi_def_cfa_offset 0
	blr
	.cfi_endproc
.LFE2556:
	.size	_Z17FreeHuffmanTree_rP13huffmanNode_s, .-_Z17FreeHuffmanTree_rP13huffmanNode_s
	.align 2
	.globl _Z15HuffmanHeight_rP13huffmanNode_s
	.type	_Z15HuffmanHeight_rP13huffmanNode_s, @function
_Z15HuffmanHeight_rP13huffmanNode_s:
.LFB2557:
	.loc 4 418 0
	.cfi_startproc
.LVL540:
	stwu 1,-16(1)
.LCFI198:
	.cfi_def_cfa_offset 16
	mflr 0
	stw 31,12(1)
.LBB2407:
	.loc 4 419 0
	mr. 31,3
	.cfi_offset 31, -4
	.cfi_register 65, 0
.LBE2407:
	.loc 4 418 0
	stw 0,20(1)
.LBB2408:
	.loc 4 420 0
	li 3,-1
.LVL541:
.LBE2408:
	.loc 4 418 0
	stw 30,8(1)
.LBB2409:
	.loc 4 419 0
	beq- 0,.L318
	.cfi_offset 30, -8
	.cfi_offset 65, 4
	.loc 4 422 0
	lwz 3,12(31)
	bl _Z15HuffmanHeight_rP13huffmanNode_s
	mr 30,3
.LVL542:
	.loc 4 423 0
	lwz 3,16(31)
.LVL543:
	bl _Z15HuffmanHeight_rP13huffmanNode_s
.LVL544:
	.loc 4 424 0
	cmpw 7,30,3
	.loc 4 427 0
	addi 3,3,1
.LVL545:
	.loc 4 424 0
	ble+ 7,.L318
	.loc 4 425 0
	addi 3,30,1
.LVL546:
.L318:
.LBE2409:
	.loc 4 428 0
	lwz 0,20(1)
	lwz 30,8(1)
	mtlr 0
	lwz 31,12(1)
.LVL547:
	addi 1,1,16
.LCFI199:
	.cfi_def_cfa_offset 0
	.cfi_restore 31
	.cfi_restore 30
	blr
	.cfi_endproc
.LFE2557:
	.size	_Z15HuffmanHeight_rP13huffmanNode_s, .-_Z15HuffmanHeight_rP13huffmanNode_s
	.align 2
	.globl _Z12SetupHuffmanv
	.type	_Z12SetupHuffmanv, @function
_Z12SetupHuffmanv:
.LFB2558:
	.loc 4 435 0
	.cfi_startproc
.LVL548:
	stwu 1,-144(1)
.LCFI200:
	.cfi_def_cfa_offset 144
	mflr 0
	stw 28,128(1)
.LBB2410:
.LBB2411:
.LBB2412:
	.loc 4 368 0
	lis 28,.LANCHOR1@ha
	.cfi_offset 28, -16
	.cfi_register 65, 0
	la 28,.LANCHOR1@l(28)
.LBE2412:
.LBE2411:
.LBE2410:
	.loc 4 435 0
	stw 0,148(1)
	stw 29,132(1)
.LBB2425:
.LBB2416:
.LBB2413:
	.loc 4 368 0
	addi 28,28,-4
.LBE2413:
.LBE2416:
.LBE2425:
	.loc 4 435 0
	stw 30,136(1)
.LBB2426:
	.loc 4 446 0
	li 29,0
	.cfi_offset 30, -8
	.cfi_offset 29, -12
	.cfi_offset 65, 4
.LBE2426:
	.loc 4 435 0
	stw 31,140(1)
	.loc 4 441 0
	li 30,0
	.loc 4 440 0
	li 31,0
	.cfi_offset 31, -4
.LVL549:
.L328:
.LBB2427:
	.loc 4 442 0 discriminator 2
	li 3,20
	bl _Znwj
.LVL550:
.LBB2417:
.LBB2418:
	.loc 4 358 0 discriminator 2
	cmpwi 7,31,0
.LBE2418:
.LBE2417:
	.loc 4 443 0 discriminator 2
	stw 30,0(3)
	.loc 4 445 0 discriminator 2
	lwzu 10,4(28)
	.loc 4 446 0 discriminator 2
	stw 29,8(3)
	.loc 4 445 0 discriminator 2
	stw 10,4(3)
	.loc 4 447 0 discriminator 2
	stw 29,12(3)
	.loc 4 448 0 discriminator 2
	stw 29,16(3)
.LVL551:
.LBB2421:
.LBB2419:
	.loc 4 358 0 discriminator 2
	beq- 7,.L322
	.loc 4 359 0
	lwz 0,4(31)
	mr 11,31
	cmpw 7,10,0
	bgt+ 7,.L325
	b .L322
.LVL552:
.L326:
	lwz 0,4(9)
	cmpw 7,10,0
	ble- 7,.L324
	mr 11,9
.LVL553:
.L325:
	.loc 4 358 0
	lwz 9,8(11)
.LVL554:
	cmpwi 7,9,0
	bne+ 7,.L326
.L324:
	.loc 4 365 0
	stw 9,8(3)
	.loc 4 366 0
	stw 3,8(11)
.LVL555:
.L327:
.LBE2419:
.LBE2421:
	.loc 4 441 0
	cmpwi 7,30,255
	addi 30,30,1
.LVL556:
	bne+ 7,.L328
	.loc 4 441 0 is_stmt 0 discriminator 2
	li 0,255
	.loc 4 454 0 is_stmt 1 discriminator 2
	li 29,-1
	.loc 4 441 0 discriminator 2
	stw 0,112(1)
	.loc 4 456 0 discriminator 2
	li 30,0
.LVL557:
.L335:
	.loc 4 453 0 discriminator 2
	li 3,20
.LVL558:
	bl _Znwj
.LVL559:
	.loc 4 454 0 discriminator 2
	stw 29,0(3)
	.loc 4 455 0 discriminator 2
	lwz 9,8(31)
	lwz 10,4(31)
	lwz 0,4(9)
	.loc 4 456 0 discriminator 2
	stw 30,8(3)
	.loc 4 455 0 discriminator 2
	add 10,10,0
	.loc 4 457 0 discriminator 2
	stw 31,12(3)
	.loc 4 455 0 discriminator 2
	stw 10,4(3)
	.loc 4 458 0 discriminator 2
	lwz 0,8(31)
	stw 0,16(3)
	.loc 4 459 0 discriminator 2
	lwz 9,8(31)
	lwz 31,8(9)
.LVL560:
.LBB2422:
.LBB2414:
	.loc 4 358 0 discriminator 2
	cmpwi 7,31,0
	beq- 7,.L329
	.loc 4 359 0
	lwz 0,4(31)
	mr 11,31
	cmpw 7,10,0
	bgt+ 7,.L332
	b .L329
.LVL561:
.L333:
	lwz 0,4(9)
	cmpw 7,10,0
	ble- 7,.L331
	mr 11,9
.LVL562:
.L332:
	.loc 4 358 0
	lwz 9,8(11)
.LVL563:
	cmpwi 7,9,0
	bne+ 7,.L333
.L331:
	.loc 4 365 0
	stw 9,8(3)
	.loc 4 366 0
	stw 3,8(11)
.LVL564:
.L334:
.LBE2414:
.LBE2422:
	.loc 4 452 0
	lwz 0,112(1)
	addic. 9,0,-1
	stw 9,112(1)
	bne+ 0,.L335
	.loc 4 462 0
	lwz 0,112(1)
	lis 30,.LANCHOR0@ha
	la 30,.LANCHOR0@l(30)
	.loc 4 463 0
	li 4,0
	.loc 4 462 0
	stw 0,1588(30)
	.loc 4 463 0
	li 5,36
	addi 3,1,8
.LVL565:
	bl memset
	.loc 4 464 0
	addi 4,1,8
	li 5,36
	addi 3,1,64
	bl memcpy
	mr 3,31
	addi 4,1,64
	addi 5,30,1592
	bl _Z18BuildHuffmanCode_rP13huffmanNode_s13huffmanCode_sPS1_
	.loc 4 466 0
	stw 31,10808(30)
	.loc 4 468 0
	mr 3,31
.LBE2427:
	.loc 4 470 0
	lwz 0,148(1)
	lwz 28,128(1)
	lwz 29,132(1)
	mtlr 0
	lwz 30,136(1)
	lwz 31,140(1)
.LVL566:
	addi 1,1,144
	.cfi_remember_state
.LCFI201:
	.cfi_def_cfa_offset 0
	.cfi_restore 31
	.cfi_restore 30
	.cfi_restore 29
	.cfi_restore 28
.LBB2428:
	.loc 4 468 0
	b _Z15HuffmanHeight_rP13huffmanNode_s
.LVL567:
.L329:
.LCFI202:
	.cfi_restore_state
.LBB2423:
.LBB2415:
	.loc 4 368 0
	stw 31,8(3)
.LVL568:
	mr 31,3
.LVL569:
	b .L334
.LVL570:
.L322:
.LBE2415:
.LBE2423:
.LBB2424:
.LBB2420:
	stw 31,8(3)
.LVL571:
	mr 31,3
.LVL572:
	b .L327
.LBE2420:
.LBE2424:
.LBE2428:
	.cfi_endproc
.LFE2558:
	.size	_Z12SetupHuffmanv, .-_Z12SetupHuffmanv
	.align 2
	.globl _ZN18idDeclManagerLocal4InitEv
	.type	_ZN18idDeclManagerLocal4InitEv, @function
_ZN18idDeclManagerLocal4InitEv:
.LFB2581:
	.loc 4 867 0
	.cfi_startproc
.LVL573:
	stwu 1,-24(1)
.LCFI203:
	.cfi_def_cfa_offset 24
	mflr 0
	.loc 4 869 0
	lis 4,.LC37@ha
	.loc 4 867 0
	stw 29,12(1)
	.loc 4 869 0
	lis 29,common@ha
	.cfi_offset 29, -12
	.cfi_register 65, 0
	lwz 9,common@l(29)
	la 4,.LC37@l(4)
	.loc 4 867 0
	stw 28,8(1)
	.loc 4 871 0
	li 28,0
	.cfi_offset 28, -16
	.loc 4 867 0
	stw 30,16(1)
	mr 30,3
	.cfi_offset 30, -8
	stw 31,20(1)
	.loc 4 869 0
	mr 3,9
.LVL574:
	.loc 4 867 0
	stw 0,28(1)
	.loc 4 903 0
	lis 31,cmdSystem@ha
	.cfi_offset 65, 4
	.cfi_offset 31, -4
	.loc 4 869 0
	lwz 11,0(9)
	lwz 0,68(11)
	mtctr 0
	crxor 6,6,6
	bctrl
	.loc 4 871 0
	stw 28,1516(30)
	.loc 4 874 0
	bl _Z12SetupHuffmanv
	.loc 4 883 0
	lwz 9,0(30)
	.loc 4 880 0
	stb 28,1524(30)
	.loc 4 883 0
	lis 4,.LC38@ha
	lis 6,_Z15idDeclAllocatorI11idDeclTableEP6idDeclv@ha
	mr 3,30
	lwz 0,36(9)
	la 4,.LC38@l(4)
	li 5,0
	la 6,_Z15idDeclAllocatorI11idDeclTableEP6idDeclv@l(6)
	mtctr 0
	.loc 4 888 0
	lis 28,_Z15idDeclAllocatorI15idDeclEntityDefEP6idDeclv@ha
	la 28,_Z15idDeclAllocatorI15idDeclEntityDefEP6idDeclv@l(28)
	.loc 4 883 0
	bctrl
	.loc 4 884 0
	lwz 9,0(30)
	lis 4,.LC39@ha
	lis 6,_Z15idDeclAllocatorI10idMaterialEP6idDeclv@ha
	lwz 0,36(9)
	mr 3,30
	la 4,.LC39@l(4)
	li 5,1
	mtctr 0
	la 6,_Z15idDeclAllocatorI10idMaterialEP6idDeclv@l(6)
	bctrl
	.loc 4 885 0
	lwz 9,0(30)
	lis 4,.LC40@ha
	lis 6,_Z15idDeclAllocatorI10idDeclSkinEP6idDeclv@ha
	lwz 0,36(9)
	mr 3,30
	la 4,.LC40@l(4)
	li 5,2
	mtctr 0
	la 6,_Z15idDeclAllocatorI10idDeclSkinEP6idDeclv@l(6)
	bctrl
	.loc 4 888 0
	lwz 9,0(30)
	lis 4,.LC41@ha
	mr 3,30
	lwz 0,36(9)
	mr 6,28
	la 4,.LC41@l(4)
	li 5,4
	mtctr 0
	bctrl
	.loc 4 889 0
	lwz 9,0(30)
	lis 4,.LC42@ha
	mr 3,30
	lwz 0,36(9)
	mr 6,28
	la 4,.LC42@l(4)
	li 5,14
	mtctr 0
	bctrl
	.loc 4 890 0
	lwz 9,0(30)
	lis 4,.LC43@ha
	lis 6,_Z15idDeclAllocatorI8idDeclFXEP6idDeclv@ha
	lwz 0,36(9)
	mr 3,30
	la 4,.LC43@l(4)
	li 5,6
	mtctr 0
	la 6,_Z15idDeclAllocatorI8idDeclFXEP6idDeclv@l(6)
	bctrl
	.loc 4 891 0
	lwz 9,0(30)
	lis 4,.LC44@ha
	lis 6,_Z15idDeclAllocatorI14idDeclParticleEP6idDeclv@ha
	lwz 0,36(9)
	mr 3,30
	la 4,.LC44@l(4)
	li 5,7
	mtctr 0
	la 6,_Z15idDeclAllocatorI14idDeclParticleEP6idDeclv@l(6)
	bctrl
	.loc 4 892 0
	lwz 9,0(30)
	lis 4,.LC45@ha
	lis 6,_Z15idDeclAllocatorI8idDeclAFEP6idDeclv@ha
	lwz 0,36(9)
	mr 3,30
	la 4,.LC45@l(4)
	li 5,8
	mtctr 0
	la 6,_Z15idDeclAllocatorI8idDeclAFEP6idDeclv@l(6)
	bctrl
	.loc 4 893 0
	lwz 9,0(30)
	lis 4,.LC46@ha
	lis 6,_Z15idDeclAllocatorI9idDeclPDAEP6idDeclv@ha
	lwz 0,36(9)
	mr 3,30
	la 4,.LC46@l(4)
	li 5,9
	mtctr 0
	la 6,_Z15idDeclAllocatorI9idDeclPDAEP6idDeclv@l(6)
	bctrl
	.loc 4 894 0
	lwz 9,0(30)
	lis 4,.LC47@ha
	lis 6,_Z15idDeclAllocatorI11idDeclEmailEP6idDeclv@ha
	lwz 0,36(9)
	mr 3,30
	la 4,.LC47@l(4)
	li 5,12
	mtctr 0
	la 6,_Z15idDeclAllocatorI11idDeclEmailEP6idDeclv@l(6)
	bctrl
	.loc 4 895 0
	lwz 9,0(30)
	lis 4,.LC48@ha
	lis 6,_Z15idDeclAllocatorI11idDeclVideoEP6idDeclv@ha
	lwz 0,36(9)
	mr 3,30
	la 4,.LC48@l(4)
	li 5,10
	mtctr 0
	la 6,_Z15idDeclAllocatorI11idDeclVideoEP6idDeclv@l(6)
	bctrl
	.loc 4 896 0
	lwz 9,0(30)
	lis 4,.LC49@ha
	lis 6,_Z15idDeclAllocatorI11idDeclAudioEP6idDeclv@ha
	lwz 0,36(9)
	mr 3,30
	la 4,.LC49@l(4)
	li 5,11
	mtctr 0
	la 6,_Z15idDeclAllocatorI11idDeclAudioEP6idDeclv@l(6)
	bctrl
	.loc 4 898 0
	lwz 9,0(30)
	lis 4,.LC50@ha
	lis 5,.LC51@ha
	lwz 0,40(9)
	mr 3,30
	la 4,.LC50@l(4)
	la 5,.LC51@l(5)
	mtctr 0
	li 6,1
	bctrl
	.loc 4 899 0
	lwz 9,0(30)
	lis 4,.LC52@ha
	lis 5,.LC53@ha
	lwz 0,40(9)
	mr 3,30
	la 4,.LC52@l(4)
	la 5,.LC53@l(5)
	mtctr 0
	li 6,2
	bctrl
	.loc 4 900 0
	lwz 9,0(30)
	lis 4,.LC54@ha
	lis 5,.LC55@ha
	lwz 0,40(9)
	mr 3,30
	la 4,.LC54@l(4)
	la 5,.LC55@l(5)
	mtctr 0
	li 6,3
	.loc 4 908 0
	lis 30,_ZN11idCmdSystem20ArgCompletion_StringIXadL_Z15listDeclStringsEEEEvRK9idCmdArgsPFvPKcE@ha
.LVL575:
	la 30,_ZN11idCmdSystem20ArgCompletion_StringIXadL_Z15listDeclStringsEEEEvRK9idCmdArgsPFvPKcE@l(30)
	.loc 4 900 0
	bctrl
.LVL576:
	.loc 4 903 0
	lwz 3,cmdSystem@l(31)
	lis 4,.LC56@ha
	lis 5,_ZN18idDeclManagerLocal11ListDecls_fERK9idCmdArgs@ha
	lwz 9,0(3)
	lis 7,.LC57@ha
	la 4,.LC56@l(4)
	la 5,_ZN18idDeclManagerLocal11ListDecls_fERK9idCmdArgs@l(5)
	lwz 0,16(9)
	li 6,2
	la 7,.LC57@l(7)
	li 8,0
	mtctr 0
	bctrl
	.loc 4 905 0
	lwz 3,cmdSystem@l(31)
	lis 4,.LC58@ha
	lis 5,_ZN18idDeclManagerLocal13ReloadDecls_fERK9idCmdArgs@ha
	lwz 9,0(3)
	lis 7,.LC59@ha
	la 4,.LC58@l(4)
	la 5,_ZN18idDeclManagerLocal13ReloadDecls_fERK9idCmdArgs@l(5)
	lwz 0,16(9)
	li 6,2
	la 7,.LC59@l(7)
	li 8,0
	mtctr 0
	bctrl
	.loc 4 906 0
	lwz 3,cmdSystem@l(31)
	lis 4,.LC60@ha
	lis 5,_ZN18idDeclManagerLocal11TouchDecl_fERK9idCmdArgs@ha
	lwz 9,0(3)
	lis 7,.LC61@ha
	la 4,.LC60@l(4)
	la 5,_ZN18idDeclManagerLocal11TouchDecl_fERK9idCmdArgs@l(5)
	lwz 0,16(9)
	li 6,2
	la 7,.LC61@l(7)
	li 8,0
	mtctr 0
	bctrl
	.loc 4 908 0
	lwz 3,cmdSystem@l(31)
	lis 4,.LC62@ha
	lis 5,_Z13idListDecls_fIL10declType_t0EEvRK9idCmdArgs@ha
	lwz 9,0(3)
	lis 7,.LC63@ha
	mr 8,30
	la 4,.LC62@l(4)
	lwz 0,16(9)
	la 5,_Z13idListDecls_fIL10declType_t0EEvRK9idCmdArgs@l(5)
	li 6,2
	la 7,.LC63@l(7)
	mtctr 0
	bctrl
	.loc 4 909 0
	lwz 3,cmdSystem@l(31)
	lis 4,.LC64@ha
	lis 5,_Z13idListDecls_fIL10declType_t1EEvRK9idCmdArgs@ha
	lwz 9,0(3)
	lis 7,.LC65@ha
	mr 8,30
	la 4,.LC64@l(4)
	lwz 0,16(9)
	la 5,_Z13idListDecls_fIL10declType_t1EEvRK9idCmdArgs@l(5)
	li 6,2
	la 7,.LC65@l(7)
	mtctr 0
	bctrl
	.loc 4 910 0
	lwz 3,cmdSystem@l(31)
	lis 4,.LC66@ha
	lis 5,_Z13idListDecls_fIL10declType_t2EEvRK9idCmdArgs@ha
	lwz 9,0(3)
	lis 7,.LC67@ha
	mr 8,30
	la 4,.LC66@l(4)
	lwz 0,16(9)
	la 5,_Z13idListDecls_fIL10declType_t2EEvRK9idCmdArgs@l(5)
	li 6,2
	la 7,.LC67@l(7)
	mtctr 0
	bctrl
	.loc 4 911 0
	lwz 3,cmdSystem@l(31)
	lis 4,.LC68@ha
	lis 5,_Z13idListDecls_fIL10declType_t3EEvRK9idCmdArgs@ha
	lwz 9,0(3)
	lis 7,.LC69@ha
	mr 8,30
	la 4,.LC68@l(4)
	lwz 0,16(9)
	la 5,_Z13idListDecls_fIL10declType_t3EEvRK9idCmdArgs@l(5)
	li 6,2
	la 7,.LC69@l(7)
	mtctr 0
	bctrl
	.loc 4 913 0
	lwz 3,cmdSystem@l(31)
	lis 4,.LC70@ha
	lis 5,_Z13idListDecls_fIL10declType_t4EEvRK9idCmdArgs@ha
	lwz 9,0(3)
	lis 7,.LC71@ha
	mr 8,30
	la 4,.LC70@l(4)
	lwz 0,16(9)
	la 5,_Z13idListDecls_fIL10declType_t4EEvRK9idCmdArgs@l(5)
	li 6,2
	la 7,.LC71@l(7)
	mtctr 0
	bctrl
	.loc 4 914 0
	lwz 3,cmdSystem@l(31)
	lis 4,.LC72@ha
	lis 5,_Z13idListDecls_fIL10declType_t6EEvRK9idCmdArgs@ha
	lwz 9,0(3)
	lis 7,.LC73@ha
	mr 8,30
	la 4,.LC72@l(4)
	lwz 0,16(9)
	la 5,_Z13idListDecls_fIL10declType_t6EEvRK9idCmdArgs@l(5)
	li 6,2
	la 7,.LC73@l(7)
	mtctr 0
	bctrl
	.loc 4 915 0
	lwz 3,cmdSystem@l(31)
	lis 4,.LC74@ha
	lis 5,_Z13idListDecls_fIL10declType_t7EEvRK9idCmdArgs@ha
	lwz 9,0(3)
	lis 7,.LC75@ha
	mr 8,30
	la 4,.LC74@l(4)
	lwz 0,16(9)
	la 5,_Z13idListDecls_fIL10declType_t7EEvRK9idCmdArgs@l(5)
	li 6,2
	la 7,.LC75@l(7)
	mtctr 0
	bctrl
	.loc 4 916 0
	lwz 3,cmdSystem@l(31)
	lis 4,.LC76@ha
	lis 5,_Z13idListDecls_fIL10declType_t8EEvRK9idCmdArgs@ha
	lwz 9,0(3)
	lis 7,.LC77@ha
	mr 8,30
	la 4,.LC76@l(4)
	lwz 0,16(9)
	la 5,_Z13idListDecls_fIL10declType_t8EEvRK9idCmdArgs@l(5)
	li 6,2
	la 7,.LC77@l(7)
	mtctr 0
	bctrl
	.loc 4 918 0
	lwz 3,cmdSystem@l(31)
	lis 4,.LC78@ha
	lis 5,_Z13idListDecls_fIL10declType_t9EEvRK9idCmdArgs@ha
	lwz 9,0(3)
	lis 7,.LC79@ha
	mr 8,30
	la 4,.LC78@l(4)
	lwz 0,16(9)
	la 5,_Z13idListDecls_fIL10declType_t9EEvRK9idCmdArgs@l(5)
	li 6,2
	la 7,.LC79@l(7)
	mtctr 0
	bctrl
	.loc 4 919 0
	lwz 3,cmdSystem@l(31)
	lis 4,.LC80@ha
	lis 5,_Z13idListDecls_fIL10declType_t12EEvRK9idCmdArgs@ha
	lwz 9,0(3)
	lis 7,.LC81@ha
	mr 8,30
	la 4,.LC80@l(4)
	lwz 0,16(9)
	la 5,_Z13idListDecls_fIL10declType_t12EEvRK9idCmdArgs@l(5)
	li 6,2
	la 7,.LC81@l(7)
	mtctr 0
	bctrl
	.loc 4 920 0
	lwz 3,cmdSystem@l(31)
	lis 4,.LC82@ha
	lis 5,_Z13idListDecls_fIL10declType_t10EEvRK9idCmdArgs@ha
	lwz 9,0(3)
	lis 7,.LC83@ha
	mr 8,30
	la 4,.LC82@l(4)
	lwz 0,16(9)
	la 5,_Z13idListDecls_fIL10declType_t10EEvRK9idCmdArgs@l(5)
	li 6,2
	la 7,.LC83@l(7)
	mtctr 0
	bctrl
	.loc 4 921 0
	lwz 3,cmdSystem@l(31)
	lis 4,.LC84@ha
	lis 5,_Z13idListDecls_fIL10declType_t11EEvRK9idCmdArgs@ha
	lwz 9,0(3)
	lis 7,.LC85@ha
	mr 8,30
	la 4,.LC84@l(4)
	lwz 0,16(9)
	la 5,_Z13idListDecls_fIL10declType_t11EEvRK9idCmdArgs@l(5)
	li 6,2
	la 7,.LC85@l(7)
	mtctr 0
	bctrl
	.loc 4 923 0
	lwz 3,cmdSystem@l(31)
	lis 4,.LC86@ha
	lis 5,_Z14idPrintDecls_fIL10declType_t0EEvRK9idCmdArgs@ha
	lwz 9,0(3)
	lis 7,.LC87@ha
	lis 8,_ZN11idCmdSystem18ArgCompletion_DeclILi0EEEvRK9idCmdArgsPFvPKcE@ha
	la 4,.LC86@l(4)
	lwz 0,16(9)
	la 5,_Z14idPrintDecls_fIL10declType_t0EEvRK9idCmdArgs@l(5)
	li 6,2
	la 7,.LC87@l(7)
	mtctr 0
	la 8,_ZN11idCmdSystem18ArgCompletion_DeclILi0EEEvRK9idCmdArgsPFvPKcE@l(8)
	bctrl
	.loc 4 924 0
	lwz 3,cmdSystem@l(31)
	lis 4,.LC88@ha
	lis 5,_Z14idPrintDecls_fIL10declType_t1EEvRK9idCmdArgs@ha
	lwz 9,0(3)
	lis 7,.LC89@ha
	lis 8,_ZN11idCmdSystem18ArgCompletion_DeclILi1EEEvRK9idCmdArgsPFvPKcE@ha
	la 4,.LC88@l(4)
	lwz 0,16(9)
	la 5,_Z14idPrintDecls_fIL10declType_t1EEvRK9idCmdArgs@l(5)
	li 6,2
	la 7,.LC89@l(7)
	mtctr 0
	la 8,_ZN11idCmdSystem18ArgCompletion_DeclILi1EEEvRK9idCmdArgsPFvPKcE@l(8)
	bctrl
	.loc 4 925 0
	lwz 3,cmdSystem@l(31)
	lis 4,.LC90@ha
	lis 5,_Z14idPrintDecls_fIL10declType_t2EEvRK9idCmdArgs@ha
	lwz 9,0(3)
	lis 7,.LC91@ha
	lis 8,_ZN11idCmdSystem18ArgCompletion_DeclILi2EEEvRK9idCmdArgsPFvPKcE@ha
	la 4,.LC90@l(4)
	lwz 0,16(9)
	la 5,_Z14idPrintDecls_fIL10declType_t2EEvRK9idCmdArgs@l(5)
	li 6,2
	la 7,.LC91@l(7)
	mtctr 0
	la 8,_ZN11idCmdSystem18ArgCompletion_DeclILi2EEEvRK9idCmdArgsPFvPKcE@l(8)
	bctrl
	.loc 4 926 0
	lwz 3,cmdSystem@l(31)
	lis 4,.LC92@ha
	lis 5,_Z14idPrintDecls_fIL10declType_t3EEvRK9idCmdArgs@ha
	lwz 9,0(3)
	lis 7,.LC93@ha
	lis 8,_ZN11idCmdSystem18ArgCompletion_DeclILi3EEEvRK9idCmdArgsPFvPKcE@ha
	la 4,.LC92@l(4)
	lwz 0,16(9)
	la 5,_Z14idPrintDecls_fIL10declType_t3EEvRK9idCmdArgs@l(5)
	li 6,2
	la 7,.LC93@l(7)
	mtctr 0
	la 8,_ZN11idCmdSystem18ArgCompletion_DeclILi3EEEvRK9idCmdArgsPFvPKcE@l(8)
	bctrl
	.loc 4 928 0
	lwz 3,cmdSystem@l(31)
	lis 4,.LC94@ha
	lis 5,_Z14idPrintDecls_fIL10declType_t4EEvRK9idCmdArgs@ha
	lwz 9,0(3)
	lis 7,.LC95@ha
	lis 8,_ZN11idCmdSystem18ArgCompletion_DeclILi4EEEvRK9idCmdArgsPFvPKcE@ha
	la 4,.LC94@l(4)
	lwz 0,16(9)
	la 5,_Z14idPrintDecls_fIL10declType_t4EEvRK9idCmdArgs@l(5)
	li 6,2
	la 7,.LC95@l(7)
	mtctr 0
	la 8,_ZN11idCmdSystem18ArgCompletion_DeclILi4EEEvRK9idCmdArgsPFvPKcE@l(8)
	bctrl
	.loc 4 929 0
	lwz 3,cmdSystem@l(31)
	lis 4,.LC96@ha
	lis 5,_Z14idPrintDecls_fIL10declType_t6EEvRK9idCmdArgs@ha
	lwz 9,0(3)
	lis 7,.LC97@ha
	lis 8,_ZN11idCmdSystem18ArgCompletion_DeclILi6EEEvRK9idCmdArgsPFvPKcE@ha
	la 4,.LC96@l(4)
	lwz 0,16(9)
	la 5,_Z14idPrintDecls_fIL10declType_t6EEvRK9idCmdArgs@l(5)
	li 6,2
	la 7,.LC97@l(7)
	mtctr 0
	la 8,_ZN11idCmdSystem18ArgCompletion_DeclILi6EEEvRK9idCmdArgsPFvPKcE@l(8)
	bctrl
	.loc 4 930 0
	lwz 3,cmdSystem@l(31)
	lis 4,.LC98@ha
	lis 5,_Z14idPrintDecls_fIL10declType_t7EEvRK9idCmdArgs@ha
	lwz 9,0(3)
	lis 7,.LC99@ha
	lis 8,_ZN11idCmdSystem18ArgCompletion_DeclILi7EEEvRK9idCmdArgsPFvPKcE@ha
	la 4,.LC98@l(4)
	lwz 0,16(9)
	la 5,_Z14idPrintDecls_fIL10declType_t7EEvRK9idCmdArgs@l(5)
	li 6,2
	la 7,.LC99@l(7)
	mtctr 0
	la 8,_ZN11idCmdSystem18ArgCompletion_DeclILi7EEEvRK9idCmdArgsPFvPKcE@l(8)
	bctrl
	.loc 4 931 0
	lwz 3,cmdSystem@l(31)
	lis 4,.LC100@ha
	lis 5,_Z14idPrintDecls_fIL10declType_t8EEvRK9idCmdArgs@ha
	lwz 9,0(3)
	lis 7,.LC101@ha
	lis 8,_ZN11idCmdSystem18ArgCompletion_DeclILi8EEEvRK9idCmdArgsPFvPKcE@ha
	la 4,.LC100@l(4)
	lwz 0,16(9)
	la 5,_Z14idPrintDecls_fIL10declType_t8EEvRK9idCmdArgs@l(5)
	li 6,2
	la 7,.LC101@l(7)
	mtctr 0
	la 8,_ZN11idCmdSystem18ArgCompletion_DeclILi8EEEvRK9idCmdArgsPFvPKcE@l(8)
	bctrl
	.loc 4 933 0
	lwz 3,cmdSystem@l(31)
	lis 4,.LC102@ha
	lis 5,_Z14idPrintDecls_fIL10declType_t9EEvRK9idCmdArgs@ha
	lwz 9,0(3)
	lis 7,.LC103@ha
	lis 8,_ZN11idCmdSystem18ArgCompletion_DeclILi9EEEvRK9idCmdArgsPFvPKcE@ha
	la 4,.LC102@l(4)
	lwz 0,16(9)
	la 5,_Z14idPrintDecls_fIL10declType_t9EEvRK9idCmdArgs@l(5)
	li 6,2
	la 7,.LC103@l(7)
	mtctr 0
	la 8,_ZN11idCmdSystem18ArgCompletion_DeclILi9EEEvRK9idCmdArgsPFvPKcE@l(8)
	bctrl
	.loc 4 934 0
	lwz 3,cmdSystem@l(31)
	lis 4,.LC104@ha
	lis 5,_Z14idPrintDecls_fIL10declType_t12EEvRK9idCmdArgs@ha
	lwz 9,0(3)
	lis 7,.LC105@ha
	lis 8,_ZN11idCmdSystem18ArgCompletion_DeclILi12EEEvRK9idCmdArgsPFvPKcE@ha
	la 4,.LC104@l(4)
	lwz 0,16(9)
	la 5,_Z14idPrintDecls_fIL10declType_t12EEvRK9idCmdArgs@l(5)
	li 6,2
	la 7,.LC105@l(7)
	mtctr 0
	la 8,_ZN11idCmdSystem18ArgCompletion_DeclILi12EEEvRK9idCmdArgsPFvPKcE@l(8)
	bctrl
	.loc 4 935 0
	lwz 3,cmdSystem@l(31)
	lis 4,.LC106@ha
	lis 5,_Z14idPrintDecls_fIL10declType_t10EEvRK9idCmdArgs@ha
	lwz 9,0(3)
	lis 7,.LC107@ha
	lis 8,_ZN11idCmdSystem18ArgCompletion_DeclILi10EEEvRK9idCmdArgsPFvPKcE@ha
	la 4,.LC106@l(4)
	lwz 0,16(9)
	la 5,_Z14idPrintDecls_fIL10declType_t10EEvRK9idCmdArgs@l(5)
	li 6,2
	la 7,.LC107@l(7)
	mtctr 0
	la 8,_ZN11idCmdSystem18ArgCompletion_DeclILi10EEEvRK9idCmdArgsPFvPKcE@l(8)
	bctrl
	.loc 4 936 0
	lwz 3,cmdSystem@l(31)
	lis 4,.LC108@ha
	lis 5,_Z14idPrintDecls_fIL10declType_t11EEvRK9idCmdArgs@ha
	lwz 9,0(3)
	lis 7,.LC109@ha
	lis 8,_ZN11idCmdSystem18ArgCompletion_DeclILi11EEEvRK9idCmdArgsPFvPKcE@ha
	la 4,.LC108@l(4)
	lwz 0,16(9)
	la 5,_Z14idPrintDecls_fIL10declType_t11EEvRK9idCmdArgs@l(5)
	li 6,2
	la 7,.LC109@l(7)
	mtctr 0
	la 8,_ZN11idCmdSystem18ArgCompletion_DeclILi11EEEvRK9idCmdArgsPFvPKcE@l(8)
	bctrl
	.loc 4 938 0
	lwz 3,cmdSystem@l(31)
	lis 4,.LC110@ha
	lis 5,_Z24ListHuffmanFrequencies_fRK9idCmdArgs@ha
	lwz 9,0(3)
	lis 7,.LC111@ha
	la 4,.LC110@l(4)
	la 5,_Z24ListHuffmanFrequencies_fRK9idCmdArgs@l(5)
	lwz 0,16(9)
	li 6,2
	la 7,.LC111@l(7)
	li 8,0
	mtctr 0
	bctrl
	.loc 4 940 0
	lwz 3,common@l(29)
	lis 4,.LC112@ha
	lwz 9,0(3)
	la 4,.LC112@l(4)
	lwz 0,68(9)
	mtctr 0
	crxor 6,6,6
	bctrl
	.loc 4 941 0
	lwz 0,28(1)
	lwz 28,8(1)
	mtlr 0
	lwz 29,12(1)
	lwz 30,16(1)
	lwz 31,20(1)
	addi 1,1,24
.LCFI204:
	.cfi_def_cfa_offset 0
	.cfi_restore 31
	.cfi_restore 30
	.cfi_restore 29
	.cfi_restore 28
	blr
	.cfi_endproc
.LFE2581:
	.size	_ZN18idDeclManagerLocal4InitEv, .-_ZN18idDeclManagerLocal4InitEv
	.align 2
	.globl _Z15ShutdownHuffmanv
	.type	_Z15ShutdownHuffmanv, @function
_Z15ShutdownHuffmanv:
.LFB2559:
	.loc 4 477 0
	.cfi_startproc
	.loc 4 478 0
	lis 9,.LANCHOR0+10808@ha
	lwz 3,.LANCHOR0+10808@l(9)
	cmpwi 7,3,0
	beqlr- 7
	.loc 4 481 0
	.loc 4 479 0
	b _Z17FreeHuffmanTree_rP13huffmanNode_s
	.cfi_endproc
.LFE2559:
	.size	_Z15ShutdownHuffmanv, .-_Z15ShutdownHuffmanv
	.align 2
	.globl _Z19HuffmanCompressTextPKciPhi
	.type	_Z19HuffmanCompressTextPKciPhi, @function
_Z19HuffmanCompressTextPKciPhi:
.LFB2560:
	.loc 4 488 0
	.cfi_startproc
.LVL577:
	stwu 1,-72(1)
.LCFI205:
	.cfi_def_cfa_offset 72
	mflr 0
	stw 30,64(1)
	mr 30,3
	.cfi_offset 30, -8
	.cfi_register 65, 0
	stw 31,68(1)
.LBB2429:
	.loc 4 490 0
	addi 3,1,8
.LVL578:
.LBE2429:
	.loc 4 488 0
	mr 31,4
	.cfi_offset 31, -4
	stw 0,76(1)
	stw 24,40(1)
.LBB2445:
	.loc 4 492 0
	lis 24,.LANCHOR0@ha
	.cfi_offset 24, -32
	.cfi_offset 65, 4
.LBE2445:
	.loc 4 488 0
	stw 28,56(1)
	mr 28,6
	.cfi_offset 28, -16
	stw 29,60(1)
	mr 29,5
	.cfi_offset 29, -12
	stw 25,44(1)
	stw 26,48(1)
	stw 27,52(1)
.LBB2446:
	.loc 4 490 0
	.cfi_offset 27, -20
	.cfi_offset 26, -24
	.cfi_offset 25, -28
	bl _ZN8idBitMsgC1Ev
.LVL579:
.LBB2430:
	.loc 4 496 0
	cmpwi 7,31,0
.LBE2430:
	.loc 4 492 0
	lwz 9,.LANCHOR0@l(24)
.LBB2433:
.LBB2434:
	.file 15 "d:/Data/Nintendo/DoomGX/src/framework/../idlib/../idlib/BitMsg.h"
	.loc 15 266 0
	li 0,0
.LBE2434:
.LBE2433:
.LBB2436:
.LBB2437:
	.loc 15 156 0
	stw 29,8(1)
.LBE2437:
.LBE2436:
	.loc 4 492 0
	add 9,9,31
.LBB2440:
.LBB2438:
	.loc 15 157 0
	stw 29,12(1)
.LBE2438:
.LBE2440:
	.loc 4 492 0
	stw 9,.LANCHOR0@l(24)
.LVL580:
.LBB2441:
.LBB2439:
	.loc 15 158 0
	stw 28,16(1)
.LVL581:
.LBE2439:
.LBE2441:
.LBB2442:
.LBB2435:
	.loc 15 266 0
	stw 0,20(1)
	.loc 15 267 0
	stb 0,37(1)
	.loc 15 268 0
	stw 0,24(1)
.LVL582:
.LBE2435:
.LBE2442:
.LBB2443:
	.loc 4 496 0
	ble- 7,.L348
	la 24,.LANCHOR0@l(24)
	li 26,0
	addi 25,24,1592
.LVL583:
.L346:
.LBB2431:
	.loc 4 497 0
	lbzx 27,30,26
	.loc 4 498 0
	li 29,0
	.loc 4 497 0
	mulli 27,27,36
	add 27,25,27
.LVL584:
	.loc 4 498 0
	lwz 5,32(27)
	cmpwi 7,5,31
	ble- 7,.L343
	.loc 4 488 0
	addi 28,27,-4
.LVL585:
.L344:
	.loc 4 499 0
	lwzu 4,4(28)
	li 5,32
	addi 3,1,8
.LVL586:
	.loc 4 498 0
	addi 29,29,1
	.loc 4 499 0
	bl _ZN8idBitMsg9WriteBitsEii
.LVL587:
	.loc 4 498 0
	lwz 5,32(27)
	srawi 0,5,5
	cmpw 7,0,29
	bgt+ 7,.L344
.LVL588:
.L343:
	.loc 4 501 0
	andi. 5,5,31
	bne- 0,.L352
.L345:
.LBE2431:
	.loc 4 496 0
	addi 26,26,1
.LVL589:
	cmpw 7,26,31
	bne+ 7,.L346
	lwz 0,20(1)
.LVL590:
.L342:
.LBE2443:
	.loc 4 506 0
	lwz 9,4(24)
.LBE2446:
	.loc 4 509 0
	mr 3,0
	lwz 25,44(1)
.LBB2447:
	.loc 4 506 0
	add 0,9,0
.LBE2447:
	.loc 4 509 0
	lwz 26,48(1)
.LBB2448:
	.loc 4 506 0
	stw 0,4(24)
.LBE2448:
	.loc 4 509 0
	lwz 0,76(1)
	lwz 24,40(1)
	mtlr 0
	lwz 27,52(1)
	lwz 28,56(1)
	lwz 29,60(1)
	lwz 30,64(1)
.LVL591:
	lwz 31,68(1)
.LVL592:
	addi 1,1,72
	.cfi_remember_state
.LCFI206:
	.cfi_def_cfa_offset 0
	.cfi_restore 31
	.cfi_restore 30
	.cfi_restore 29
	.cfi_restore 28
	.cfi_restore 27
	.cfi_restore 26
	.cfi_restore 25
	.cfi_restore 24
	blr
.LVL593:
.L352:
.LCFI207:
	.cfi_restore_state
.LBB2449:
.LBB2444:
.LBB2432:
	.loc 4 502 0
	slwi 29,29,2
	addi 3,1,8
.LVL594:
	lwzx 4,27,29
	bl _ZN8idBitMsg9WriteBitsEii
.LVL595:
	b .L345
.LVL596:
.L348:
.LBE2432:
	.loc 4 496 0
	li 0,0
	la 24,.LANCHOR0@l(24)
	b .L342
.LBE2444:
.LBE2449:
	.cfi_endproc
.LFE2560:
	.size	_Z19HuffmanCompressTextPKciPhi, .-_Z19HuffmanCompressTextPKciPhi
	.align 2
	.globl _Z21HuffmanDecompressTextPciPKhi
	.type	_Z21HuffmanDecompressTextPciPKhi, @function
_Z21HuffmanDecompressTextPciPKhi:
.LFB2561:
	.loc 4 516 0
	.cfi_startproc
.LVL597:
	stwu 1,-64(1)
.LCFI208:
	.cfi_def_cfa_offset 64
	mflr 0
	stw 30,56(1)
	mr 30,4
	.cfi_offset 30, -8
	.cfi_register 65, 0
	stw 31,60(1)
	mr 31,3
	.cfi_offset 31, -4
.LBB2450:
	.loc 4 518 0
	addi 3,1,8
.LVL598:
.LBE2450:
	.loc 4 516 0
	stw 0,68(1)
	stw 28,48(1)
	mr 28,5
	.cfi_offset 28, -16
	.cfi_offset 65, 4
	stw 29,52(1)
	mr 29,6
	.cfi_offset 29, -12
	stw 27,44(1)
.LBB2461:
	.loc 4 518 0
	.cfi_offset 27, -20
	bl _ZN8idBitMsgC1Ev
.LVL599:
	.loc 4 524 0
	cmpwi 7,30,0
.LBB2451:
.LBB2452:
	.loc 15 162 0
	li 0,0
	.loc 15 163 0
	stw 28,12(1)
.LBE2452:
.LBE2451:
	.loc 4 524 0
	li 3,0
.LBB2455:
.LBB2453:
	.loc 15 162 0
	stw 0,8(1)
.LBE2453:
.LBE2455:
	.loc 4 524 0
	li 28,0
.LVL600:
.LBB2456:
.LBB2454:
	.loc 15 164 0
	stw 29,16(1)
.LVL601:
.LBE2454:
.LBE2456:
.LBB2457:
.LBB2458:
	.loc 15 195 0
	stw 29,20(1)
.LBE2458:
.LBE2457:
.LBB2459:
.LBB2460:
	.loc 15 347 0
	stw 0,28(1)
	.loc 15 348 0
	stw 0,32(1)
.LVL602:
.LBE2460:
.LBE2459:
	.loc 4 524 0
	ble- 7,.L354
	lis 27,.LANCHOR0@ha
	la 27,.LANCHOR0@l(27)
.LVL603:
.L356:
	.loc 4 525 0
	lwz 29,10808(27)
.LVL604:
.L355:
	.loc 4 527 0
	addi 3,1,8
.LVL605:
	li 4,1
	bl _ZNK8idBitMsg8ReadBitsEi
.LVL606:
	.loc 4 528 0
	slwi 3,3,2
.LVL607:
	add 29,29,3
.LVL608:
	lwz 29,12(29)
.LVL609:
	.loc 4 526 0
	lwz 0,0(29)
	cmpwi 7,0,-1
	beq+ 7,.L355
	.loc 4 530 0
	stbx 0,31,28
	.loc 4 524 0
	addi 28,28,1
.LVL610:
	cmpw 7,28,30
	bne+ 7,.L356
	lwz 3,28(1)
.LVL611:
.L354:
	.loc 4 532 0
	li 0,0
	stbx 0,31,28
.LBE2461:
	.loc 4 534 0
	lwz 0,68(1)
	lwz 27,44(1)
	mtlr 0
	lwz 28,48(1)
	lwz 29,52(1)
	lwz 30,56(1)
.LVL612:
	lwz 31,60(1)
.LVL613:
	addi 1,1,64
.LCFI209:
	.cfi_def_cfa_offset 0
	.cfi_restore 31
	.cfi_restore 30
	.cfi_restore 29
	.cfi_restore 28
	.cfi_restore 27
	blr
	.cfi_endproc
.LFE2561:
	.size	_Z21HuffmanDecompressTextPciPKhi, .-_Z21HuffmanDecompressTextPciPKhi
	.align 2
	.globl _ZNK11idDeclLocal7GetTextEPc
	.type	_ZNK11idDeclLocal7GetTextEPc, @function
_ZNK11idDeclLocal7GetTextEPc:
.LFB2641:
	.loc 4 2046 0
	.cfi_startproc
.LVL614:
	mflr 0
	stwu 1,-1064(1)
.LCFI210:
	.cfi_def_cfa_offset 1064
	.cfi_register 65, 0
	stw 30,1056(1)
	mr 30,4
	.cfi_offset 30, -8
	stw 31,1060(1)
	mr 31,3
	.cfi_offset 31, -4
	stw 0,1068(1)
	stw 29,1052(1)
.LBB2462:
.LBB2463:
	.loc 4 2049 0
	lwz 0,44(3)
	.cfi_offset 29, -12
	.cfi_offset 65, 4
	cmpwi 7,0,0
	bne- 7,.L362
.LBB2464:
	.loc 4 2052 0
	lwz 5,12(3)
	lis 4,.LC113@ha
.LVL615:
	la 4,.LC113@l(4)
	addi 3,1,12
.LVL616:
	crxor 6,6,6
	bl sprintf
	.loc 4 2053 0
	lis 9,fileSystem@ha
	lwz 3,fileSystem@l(9)
	addi 4,1,12
	addi 5,1,8
	li 6,0
	lwz 9,0(3)
	lwz 0,96(9)
	mtctr 0
	bctrl
	cmpwi 7,3,0
	blt- 7,.L367
.L363:
	.loc 4 2058 0
	lwz 4,48(31)
	mr 3,30
.LVL617:
	lwz 5,8(1)
	lwz 6,52(31)
	bl _Z21HuffmanDecompressTextPciPKhi
	.loc 4 2064 0
	lwz 3,8(1)
	cmpwi 7,3,0
	beq- 7,.L361
.LVL618:
.L366:
.LBE2464:
.LBB2465:
	.loc 4 2076 0
	bl _Z8Mem_FreePv
.L361:
.LBE2465:
.LBE2463:
.LBE2462:
	.loc 4 2079 0
	lwz 0,1068(1)
	lwz 29,1052(1)
	mtlr 0
	lwz 30,1056(1)
.LVL619:
	lwz 31,1060(1)
.LVL620:
	addi 1,1,1064
	.cfi_remember_state
.LCFI211:
	.cfi_def_cfa_offset 0
	.cfi_restore 31
	.cfi_restore 30
	.cfi_restore 29
	blr
.LVL621:
.L362:
.LCFI212:
	.cfi_restore_state
.LBB2470:
.LBB2469:
.LBB2467:
	.loc 4 2069 0
	lis 9,fileSystem@ha
	addi 5,1,8
	lwz 3,fileSystem@l(9)
.LVL622:
	li 6,0
.LBB2466:
	.loc 4 2449 0
	lwz 9,56(31)
.LBE2466:
	.loc 4 2069 0
	lwz 11,0(3)
	lwz 4,4(9)
.LVL623:
	lwz 0,96(11)
	mtctr 0
	bctrl
.LVL624:
	cmpwi 7,3,0
	blt- 7,.L368
.L365:
.LVL625:
	.loc 4 2072 0
	lwz 29,8(1)
	mr 3,30
	lwz 4,40(31)
	lwz 5,44(31)
	add 4,29,4
	bl memcpy
	.loc 4 2075 0
	cmpwi 7,29,0
	.loc 4 2073 0
	lwz 0,48(31)
	li 9,0
	stbx 9,30,0
	.loc 4 2075 0
	beq- 7,.L361
	.loc 4 2076 0
	mr 3,29
	b .L366
.LVL626:
.L368:
	.loc 4 2070 0
	lis 3,.LC114@ha
	addi 4,1,12
	la 3,.LC114@l(3)
	crxor 6,6,6
	bl _Z9Sys_ErrorPKcz
	b .L365
.L367:
.LBE2467:
.LBB2468:
	.loc 4 2054 0
	lis 3,.LC114@ha
	addi 4,1,12
	la 3,.LC114@l(3)
	crxor 6,6,6
	bl _Z9Sys_ErrorPKcz
	b .L363
.LBE2468:
.LBE2469:
.LBE2470:
	.cfi_endproc
.LFE2641:
	.size	_ZNK11idDeclLocal7GetTextEPc, .-_ZNK11idDeclLocal7GetTextEPc
	.align 2
	.globl _ZN10idDeclFileC2EPKc10declType_t
	.type	_ZN10idDeclFileC2EPKc10declType_t, @function
_ZN10idDeclFileC2EPKc10declType_t:
.LFB2564:
	.loc 4 570 0
	.cfi_startproc
	.cfi_personality 0,__gxx_personality_v0
	.cfi_lsda 0,.LLSDA2564
.LVL627:
	mflr 0
	stwu 1,-16(1)
.LCFI213:
	.cfi_def_cfa_offset 16
	.cfi_register 65, 0
.LBB2471:
.LBB2472:
.LBB2473:
.LBB2474:
	.loc 6 358 0
	addi 9,3,12
	.loc 6 357 0
	li 11,20
.LBE2474:
.LBE2473:
.LBE2472:
.LBE2471:
	.loc 4 570 0
	stw 30,8(1)
	mr 30,5
	.cfi_offset 30, -8
	stw 0,20(1)
.LBB2484:
.LBB2479:
.LBB2477:
.LBB2475:
	.loc 6 356 0
	li 0,0
	.cfi_offset 65, 4
.LBE2475:
.LBE2477:
.LBE2479:
.LBE2484:
	.loc 4 570 0
	stw 31,12(1)
	.loc 4 570 0
	mr 31,3
	.cfi_offset 31, -4
.LVL628:
.LBB2485:
.LBB2480:
.LBB2478:
.LBB2476:
	.loc 6 356 0
	stw 0,0(3)
	.loc 6 357 0
	stw 11,8(3)
	.loc 6 358 0
	stw 9,4(3)
	.loc 6 359 0
	stb 0,12(3)
.LEHB12:
.LBE2476:
.LBE2478:
.LBE2480:
	.loc 4 575 0
	bl _ZN5idStraSEPKc
.LEHE12:
.LVL629:
	.loc 4 577 0
	li 0,0
	.loc 4 576 0
	stw 30,32(31)
	.loc 4 577 0
	stw 0,36(31)
	.loc 4 578 0
	stw 0,40(31)
	.loc 4 579 0
	stw 0,44(31)
	.loc 4 580 0
	stw 0,48(31)
	.loc 4 581 0
	stw 0,52(31)
.LBE2485:
	.loc 4 582 0
	lwz 0,20(1)
	lwz 30,8(1)
.LVL630:
	mtlr 0
	lwz 31,12(1)
.LVL631:
	addi 1,1,16
	.cfi_remember_state
.LCFI214:
	.cfi_def_cfa_offset 0
	.cfi_restore 31
	.cfi_restore 30
	blr
.LVL632:
.L372:
.LCFI215:
	.cfi_restore_state
	mr 30,3
.LVL633:
.LBB2486:
.LBB2481:
.LBB2482:
.LBB2483:
	.loc 6 501 0
	mr 3,31
	bl _ZN5idStr8FreeDataEv
	mr 3,30
.LEHB13:
	bl _Unwind_Resume
.LEHE13:
.LBE2483:
.LBE2482:
.LBE2481:
.LBE2486:
	.cfi_endproc
.LFE2564:
	.section	.gcc_except_table
.LLSDA2564:
	.byte	0xff
	.byte	0xff
	.byte	0x1
	.uleb128 .LLSDACSE2564-.LLSDACSB2564
.LLSDACSB2564:
	.uleb128 .LEHB12-.LFB2564
	.uleb128 .LEHE12-.LEHB12
	.uleb128 .L372-.LFB2564
	.uleb128 0
	.uleb128 .LEHB13-.LFB2564
	.uleb128 .LEHE13-.LEHB13
	.uleb128 0
	.uleb128 0
.LLSDACSE2564:
	.section	".text"
	.size	_ZN10idDeclFileC2EPKc10declType_t, .-_ZN10idDeclFileC2EPKc10declType_t
	.align 2
	.globl _ZN10idDeclFileC2Ev
	.type	_ZN10idDeclFileC2Ev, @function
_ZN10idDeclFileC2Ev:
.LFB2567:
	.loc 4 589 0
	.cfi_startproc
	.cfi_personality 0,__gxx_personality_v0
	.cfi_lsda 0,.LLSDA2567
.LVL634:
	mflr 0
	stwu 1,-16(1)
.LCFI216:
	.cfi_def_cfa_offset 16
	.cfi_register 65, 0
.LBB2487:
.LBB2488:
.LBB2489:
.LBB2490:
	.loc 6 358 0
	addi 9,3,12
	.loc 6 357 0
	li 11,20
.LBE2490:
.LBE2489:
.LBE2488:
.LBE2487:
	.loc 4 589 0
	stw 31,12(1)
.LBB2503:
	.loc 4 594 0
	lis 4,.LC115@ha
.LBE2503:
	.loc 4 589 0
	stw 0,20(1)
.LBB2504:
.LBB2497:
.LBB2494:
.LBB2491:
	.loc 6 356 0
	li 0,0
	.cfi_offset 65, 4
	.cfi_offset 31, -4
.LBE2491:
.LBE2494:
.LBE2497:
.LBE2504:
	.loc 4 589 0
	stw 30,8(1)
.LBB2505:
	.loc 4 594 0
	la 4,.LC115@l(4)
.LBB2498:
.LBB2495:
.LBB2492:
	.loc 6 356 0
	stw 0,0(3)
.LBE2492:
.LBE2495:
.LBE2498:
.LBE2505:
	.loc 4 589 0
	mr 31,3
.LVL635:
.LBB2506:
.LBB2499:
.LBB2496:
.LBB2493:
	.loc 6 357 0
	stw 11,8(3)
	.loc 6 358 0
	stw 9,4(3)
	.loc 6 359 0
	stb 0,12(3)
.LEHB14:
.LBE2493:
.LBE2496:
.LBE2499:
	.loc 4 594 0
	.cfi_offset 30, -8
	bl _ZN5idStraSEPKc
.LEHE14:
.LVL636:
	.loc 4 596 0
	li 0,0
	.loc 4 595 0
	li 9,32
	stw 9,32(31)
	.loc 4 596 0
	stw 0,36(31)
	.loc 4 597 0
	stw 0,40(31)
	.loc 4 598 0
	stw 0,44(31)
	.loc 4 599 0
	stw 0,48(31)
	.loc 4 600 0
	stw 0,52(31)
.LBE2506:
	.loc 4 601 0
	lwz 0,20(1)
	lwz 30,8(1)
	mtlr 0
	lwz 31,12(1)
.LVL637:
	addi 1,1,16
	.cfi_remember_state
.LCFI217:
	.cfi_def_cfa_offset 0
	.cfi_restore 31
	.cfi_restore 30
	blr
.LVL638:
.L376:
.LCFI218:
	.cfi_restore_state
	mr 30,3
.LVL639:
.LBB2507:
.LBB2500:
.LBB2501:
.LBB2502:
	.loc 6 501 0
	mr 3,31
	bl _ZN5idStr8FreeDataEv
	mr 3,30
.LEHB15:
	bl _Unwind_Resume
.LEHE15:
.LBE2502:
.LBE2501:
.LBE2500:
.LBE2507:
	.cfi_endproc
.LFE2567:
	.section	.gcc_except_table
.LLSDA2567:
	.byte	0xff
	.byte	0xff
	.byte	0x1
	.uleb128 .LLSDACSE2567-.LLSDACSB2567
.LLSDACSB2567:
	.uleb128 .LEHB14-.LFB2567
	.uleb128 .LEHE14-.LEHB14
	.uleb128 .L376-.LFB2567
	.uleb128 0
	.uleb128 .LEHB15-.LFB2567
	.uleb128 .LEHE15-.LEHB15
	.uleb128 0
	.uleb128 0
.LLSDACSE2567:
	.section	".text"
	.size	_ZN10idDeclFileC2Ev, .-_ZN10idDeclFileC2Ev
	.align 2
	.globl _ZN10idDeclFilenwEj
	.type	_ZN10idDeclFilenwEj, @function
_ZN10idDeclFilenwEj:
.LFB2570:
	.loc 4 625 0
	.cfi_startproc
	.cfi_personality 0,__gxx_personality_v0
	.cfi_lsda 0,.LLSDA2570
.LVL640:
	mflr 0
	stwu 1,-8(1)
.LCFI219:
	.cfi_def_cfa_offset 8
	.cfi_register 65, 0
	stw 0,12(1)
.LEHB16:
.LBB2508:
	.loc 4 626 0
	.cfi_offset 65, 4
	bl _Z11Mem_Alloc16i
.LVL641:
	.loc 4 627 0
	cmpwi 7,3,0
	beq- 7,.L382
.LBE2508:
	.loc 4 631 0
	lwz 0,12(1)
	addi 1,1,8
	.cfi_remember_state
.LCFI220:
	.cfi_def_cfa_offset 0
	mtlr 0
	blr
.L382:
.LCFI221:
	.cfi_restore_state
.LBB2513:
	.loc 4 628 0
	li 3,4
.LVL642:
	bl __cxa_allocate_exception
.LVL643:
.LBB2509:
.LBB2510:
	.file 16 "c:\\utils\\devkitpro\\devkitppc\\bin\\../lib/gcc/powerpc-eabi/4.6.3/../../../../powerpc-eabi/include/c++/4.6.3/new"
	.loc 16 59 0
	lis 9,_ZTVSt9bad_alloc+8@ha
	la 0,_ZTVSt9bad_alloc+8@l(9)
.LBE2510:
.LBE2509:
	.loc 4 628 0
	lis 4,_ZTISt9bad_alloc@ha
	lis 5,_ZNSt9bad_allocD1Ev@ha
.LBB2512:
.LBB2511:
	.loc 16 59 0
	stw 0,0(3)
.LBE2511:
.LBE2512:
	.loc 4 628 0
	la 4,_ZTISt9bad_alloc@l(4)
	la 5,_ZNSt9bad_allocD1Ev@l(5)
	bl __cxa_throw
.LEHE16:
.LVL644:
.L381:
	.loc 4 630 0
	cmpwi 7,4,-1
	beq- 7,.L380
.LEHB17:
	bl _Unwind_Resume
.L380:
.LBE2513:
	.loc 4 625 0
	bl __cxa_call_unexpected
.LEHE17:
	.cfi_endproc
.LFE2570:
	.section	.gcc_except_table
	.align 2
.LLSDA2570:
	.byte	0xff
	.byte	0
	.uleb128 .LLSDATT2570-.LLSDATTD2570
.LLSDATTD2570:
	.byte	0x1
	.uleb128 .LLSDACSE2570-.LLSDACSB2570
.LLSDACSB2570:
	.uleb128 .LEHB16-.LFB2570
	.uleb128 .LEHE16-.LEHB16
	.uleb128 .L381-.LFB2570
	.uleb128 0x1
	.uleb128 .LEHB17-.LFB2570
	.uleb128 .LEHE17-.LEHB17
	.uleb128 0
	.uleb128 0
.LLSDACSE2570:
	.byte	0x7f
	.byte	0
	.align 2
	.long	_ZTISt9bad_alloc
.LLSDATT2570:
	.byte	0x1
	.byte	0
	.section	".text"
	.size	_ZN10idDeclFilenwEj, .-_ZN10idDeclFilenwEj
	.align 2
	.globl _ZN10idDeclFiledlEPv
	.type	_ZN10idDeclFiledlEPv, @function
_ZN10idDeclFiledlEPv:
.LFB2577:
	.loc 4 633 0
	.cfi_startproc
	.cfi_personality 0,__gxx_personality_v0
	.cfi_lsda 0,.LLSDA2577
.LVL645:
	mflr 0
	stwu 1,-8(1)
.LCFI222:
	.cfi_def_cfa_offset 8
	.cfi_register 65, 0
	stw 0,12(1)
	.loc 4 634 0
	lis 0,0x8fff
	.cfi_offset 65, 4
	ori 0,0,65535
	cmplw 7,3,0
	ble- 7,.L384
.LEHB18:
	.loc 4 635 0
	bl _Z10Mem_Free16Pv
.LEHE18:
.LVL646:
	.loc 4 639 0
	lwz 0,12(1)
	addi 1,1,8
	.cfi_remember_state
.LCFI223:
	.cfi_def_cfa_offset 0
	mtlr 0
	blr
.LVL647:
.L384:
.LCFI224:
	.cfi_restore_state
	.loc 4 637 0
	bl free
.LVL648:
	.loc 4 639 0
	lwz 0,12(1)
	addi 1,1,8
	.cfi_remember_state
.LCFI225:
	.cfi_def_cfa_offset 0
	mtlr 0
	blr
.L388:
.LCFI226:
	.cfi_restore_state
	cmpwi 7,4,-1
	beq- 7,.L387
.LEHB19:
	bl _Unwind_Resume
.L387:
	.loc 4 633 0
	bl __cxa_call_unexpected
.LEHE19:
	.cfi_endproc
.LFE2577:
	.section	.gcc_except_table
	.align 2
.LLSDA2577:
	.byte	0xff
	.byte	0
	.uleb128 .LLSDATT2577-.LLSDATTD2577
.LLSDATTD2577:
	.byte	0x1
	.uleb128 .LLSDACSE2577-.LLSDACSB2577
.LLSDACSB2577:
	.uleb128 .LEHB18-.LFB2577
	.uleb128 .LEHE18-.LEHB18
	.uleb128 .L388-.LFB2577
	.uleb128 0x1
	.uleb128 .LEHB19-.LFB2577
	.uleb128 .LEHE19-.LEHB19
	.uleb128 0
	.uleb128 0
.LLSDACSE2577:
	.byte	0x7f
	.byte	0
	.align 2
.LLSDATT2577:
	.byte	0
	.section	".text"
	.size	_ZN10idDeclFiledlEPv, .-_ZN10idDeclFiledlEPv
	.align 2
	.globl _ZN18idDeclManagerLocal8ShutdownEv
	.type	_ZN18idDeclManagerLocal8ShutdownEv, @function
_ZN18idDeclManagerLocal8ShutdownEv:
.LFB2582:
	.loc 4 949 0
	.cfi_startproc
	.cfi_personality 0,__gxx_personality_v0
	.cfi_lsda 0,.LLSDA2582
.LVL649:
	mflr 0
	stwu 1,-40(1)
.LCFI227:
	.cfi_def_cfa_offset 40
	.cfi_register 65, 0
	stw 25,12(1)
	stw 0,44(1)
	stw 28,24(1)
	stw 29,28(1)
	stw 30,32(1)
	stw 26,16(1)
.LBB2555:
	.loc 4 954 0
	li 26,0
	.cfi_offset 26, -24
	.cfi_offset 30, -8
	.cfi_offset 29, -12
	.cfi_offset 28, -16
	.cfi_offset 65, 4
	.cfi_offset 25, -28
.LBE2555:
	.loc 4 949 0
	stw 27,20(1)
.LBB2629:
	.loc 4 955 0
	li 27,0
	.cfi_offset 27, -20
.LBE2629:
	.loc 4 949 0
	stw 31,36(1)
	.loc 4 949 0
	mr 31,3
	.cfi_offset 31, -4
.LVL650:
.L390:
.LBB2630:
	.loc 4 955 0 discriminator 1
	addi 25,26,59
	li 29,0
	slwi 25,25,4
	add 25,31,25
	lwz 0,4(25)
	addi 28,25,4
	cmpwi 7,0,0
	ble- 7,.L396
.LVL651:
.L420:
	.loc 4 956 0
	lwz 9,12(28)
	slwi 0,29,2
	lwzx 30,9,0
.LVL652:
	.loc 4 957 0
	lwz 3,4(30)
	cmpwi 7,3,0
	beq- 7,.L391
	.loc 4 958 0
	lwz 9,0(3)
	lwz 0,20(9)
.LVL653:
	mtctr 0
.LEHB20:
	bctrl
	.loc 4 959 0
	lwz 3,4(30)
	cmpwi 7,3,0
	beq- 7,.L391
	.loc 4 959 0 is_stmt 0 discriminator 1
	lwz 9,0(3)
	lwz 0,4(9)
	mtctr 0
	bctrl
.L391:
	.loc 4 965 0 is_stmt 1
	stw 27,44(30)
	.loc 4 968 0
	mr 3,30
	.loc 4 966 0
	stw 27,40(30)
	.loc 4 955 0
	addi 29,29,1
.LVL654:
	.loc 4 968 0
	lwz 9,0(30)
	lwz 0,4(9)
	mtctr 0
	bctrl
.LVL655:
	.loc 4 955 0
	lwz 0,0(28)
	cmpw 7,0,29
	bgt+ 7,.L420
.LVL656:
.L396:
.LBB2556:
.LBB2557:
	.loc 5 193 0
	lwz 3,12(28)
	cmpwi 7,3,0
	beq- 7,.L393
	.loc 5 194 0
	bl _ZdaPv
.L393:
.LBE2557:
.LBE2556:
	.loc 4 971 0
	mulli 3,26,28
.LBB2560:
.LBB2558:
	.loc 5 197 0
	stw 27,12(28)
	.loc 5 198 0
	stw 27,4(25)
.LBE2558:
.LBE2560:
	.loc 4 971 0
	add 3,31,3
.LBB2561:
.LBB2559:
	.loc 5 199 0
	stw 27,4(28)
.LBE2559:
.LBE2561:
	.loc 4 971 0
	addi 3,3,52
	bl _ZN11idHashIndex4FreeEv
.LVL657:
	.loc 4 954 0
	cmpwi 7,26,31
	addi 26,26,1
.LVL658:
	bne+ 7,.L390
.LVL659:
.LBB2562:
.LBB2563:
	.loc 5 218 0
	lwz 0,36(31)
	li 30,0
	.loc 5 220 0
	li 27,0
	.loc 5 218 0
	cmpwi 7,0,0
	ble- 7,.L395
.LVL660:
.L419:
	.loc 5 219 0
	lwz 9,48(31)
.LBE2563:
.LBE2562:
	.loc 4 949 0
	slwi 29,30,2
.LBB2579:
.LBB2576:
	.loc 5 219 0
	lwzx 28,9,29
	add 9,9,29
	cmpwi 7,28,0
	beq- 7,.L397
.LVL661:
.LBB2564:
.LBB2565:
.LBB2566:
.LBB2567:
.LBB2568:
.LBB2569:
	.loc 6 501 0
	mr 3,28
	bl _ZN5idStr8FreeDataEv
.LVL662:
.LBE2569:
.LBE2568:
.LBE2567:
.LBE2566:
.LBE2565:
.LBE2564:
	.loc 5 219 0
	mr 3,28
	bl _ZN10idDeclFiledlEPv
	lwz 9,48(31)
	add 9,9,29
.LVL663:
.L397:
	.loc 5 220 0
	stw 27,0(9)
	.loc 5 218 0
	addi 30,30,1
.LVL664:
	lwz 0,36(31)
	cmpw 7,30,0
	blt+ 7,.L419
.LVL665:
.L395:
.LBB2570:
.LBB2571:
	.loc 5 193 0
	lwz 3,48(31)
	cmpwi 7,3,0
	beq- 7,.L400
	.loc 5 194 0
	bl _ZdaPv
.L400:
.LBE2571:
.LBE2570:
.LBE2576:
.LBE2579:
.LBB2580:
.LBB2581:
	.loc 5 218 0
	lwz 9,4(31)
.LBE2581:
.LBE2580:
.LBB2598:
.LBB2577:
.LBB2574:
.LBB2572:
	.loc 5 197 0
	li 0,0
	stw 0,48(31)
.LBE2572:
.LBE2574:
.LBE2577:
.LBE2598:
.LBB2599:
.LBB2594:
	.loc 5 218 0
	cmpwi 7,9,0
.LBE2594:
.LBE2599:
.LBB2600:
.LBB2578:
.LBB2575:
.LBB2573:
	.loc 5 198 0
	stw 0,36(31)
	.loc 5 199 0
	stw 0,40(31)
.LVL666:
.LBE2573:
.LBE2575:
.LBE2578:
.LBE2600:
.LBB2601:
.LBB2595:
	.loc 5 218 0
	ble- 7,.L401
	li 30,0
	.loc 5 220 0
	li 27,0
.LVL667:
.L405:
	.loc 5 219 0
	lwz 9,16(31)
	.loc 4 949 0
	slwi 29,30,2
	.loc 5 219 0
	lwzx 28,9,29
	add 9,9,29
	cmpwi 7,28,0
	beq- 7,.L402
.LVL668:
.LBB2582:
.LBB2583:
.LBB2584:
.LBB2585:
.LBB2586:
.LBB2587:
	.loc 6 501 0
	mr 3,28
	bl _ZN5idStr8FreeDataEv
.LEHE20:
.LVL669:
.LBE2587:
.LBE2586:
.LBE2585:
.LBE2584:
.LBE2583:
.LBE2582:
	.loc 5 219 0
	mr 3,28
	bl _ZdlPv
	lwz 9,16(31)
	add 9,9,29
.LVL670:
.L402:
	.loc 5 220 0
	stw 27,0(9)
	.loc 5 218 0
	addi 30,30,1
.LVL671:
	lwz 0,4(31)
	cmpw 7,30,0
	blt+ 7,.L405
.LVL672:
.L401:
.LBB2588:
.LBB2589:
	.loc 5 193 0
	lwz 3,16(31)
	cmpwi 7,3,0
	beq- 7,.L406
	.loc 5 194 0
	bl _ZdaPv
.L406:
.LBE2589:
.LBE2588:
.LBE2595:
.LBE2601:
.LBB2602:
.LBB2603:
	.loc 5 218 0
	lwz 9,20(31)
.LBE2603:
.LBE2602:
.LBB2624:
.LBB2596:
.LBB2592:
.LBB2590:
	.loc 5 197 0
	li 0,0
	stw 0,16(31)
.LBE2590:
.LBE2592:
.LBE2596:
.LBE2624:
.LBB2625:
.LBB2621:
	.loc 5 218 0
	cmpwi 7,9,0
.LBE2621:
.LBE2625:
.LBB2626:
.LBB2597:
.LBB2593:
.LBB2591:
	.loc 5 198 0
	stw 0,4(31)
	.loc 5 199 0
	stw 0,8(31)
.LVL673:
.LBE2591:
.LBE2593:
.LBE2597:
.LBE2626:
.LBB2627:
.LBB2622:
	.loc 5 218 0
	ble- 7,.L407
	li 29,0
	.loc 5 220 0
	li 27,0
.LVL674:
.L414:
	.loc 5 219 0
	lwz 9,32(31)
	.loc 4 949 0
	slwi 28,29,2
	.loc 5 219 0
	lwzx 30,9,28
	add 9,9,28
	cmpwi 7,30,0
	beq- 7,.L408
.LVL675:
.LBB2604:
.LBB2605:
.LBB2606:
.LBB2607:
.LBB2608:
.LBB2609:
	.loc 6 501 0
	addi 3,30,32
.LEHB21:
	bl _ZN5idStr8FreeDataEv
.LEHE21:
.LVL676:
.LBE2609:
.LBE2608:
.LBE2607:
.LBB2610:
.LBB2611:
.LBB2612:
	mr 3,30
.LEHB22:
	bl _ZN5idStr8FreeDataEv
.LEHE22:
.LBE2612:
.LBE2611:
.LBE2610:
.LBE2606:
.LBE2605:
.LBE2604:
	.loc 5 219 0
	mr 3,30
	bl _ZdlPv
	lwz 9,32(31)
	add 9,9,28
.LVL677:
.L408:
	.loc 5 220 0
	stw 27,0(9)
	.loc 5 218 0
	addi 29,29,1
.LVL678:
	lwz 0,20(31)
	cmpw 7,29,0
	blt+ 7,.L414
.LVL679:
.L407:
.LBB2618:
.LBB2619:
	.loc 5 193 0
	lwz 3,32(31)
	cmpwi 7,3,0
	beq- 7,.L415
	.loc 5 194 0
	bl _ZdaPv
.L415:
	.loc 5 197 0
	li 0,0
	stw 0,32(31)
	.loc 5 198 0
	stw 0,20(31)
	.loc 5 199 0
	stw 0,24(31)
.LBE2619:
.LBE2618:
.LBE2622:
.LBE2627:
.LBE2630:
	.loc 4 984 0
	lwz 0,44(1)
	lwz 25,12(1)
.LVL680:
	lwz 26,16(1)
.LVL681:
	mtlr 0
	lwz 27,20(1)
	lwz 28,24(1)
	lwz 29,28(1)
	lwz 30,32(1)
	lwz 31,36(1)
.LVL682:
	addi 1,1,40
	.cfi_remember_state
.LCFI228:
	.cfi_def_cfa_offset 0
	.cfi_restore 31
	.cfi_restore 30
	.cfi_restore 29
	.cfi_restore 28
	.cfi_restore 27
	.cfi_restore 26
	.cfi_restore 25
.LBB2631:
	.loc 4 982 0
	b _Z15ShutdownHuffmanv
.LVL683:
.L418:
.LCFI229:
	.cfi_restore_state
	mr 31,3
.LVL684:
.LBB2628:
.LBB2623:
.LBB2620:
.LBB2617:
.LBB2616:
.LBB2613:
.LBB2614:
.LBB2615:
	.loc 6 501 0
	mr 3,30
	bl _ZN5idStr8FreeDataEv
	mr 3,31
.LEHB23:
	bl _Unwind_Resume
.LEHE23:
.LBE2615:
.LBE2614:
.LBE2613:
.LBE2616:
.LBE2617:
.LBE2620:
.LBE2623:
.LBE2628:
.LBE2631:
	.cfi_endproc
.LFE2582:
	.section	.gcc_except_table
.LLSDA2582:
	.byte	0xff
	.byte	0xff
	.byte	0x1
	.uleb128 .LLSDACSE2582-.LLSDACSB2582
.LLSDACSB2582:
	.uleb128 .LEHB20-.LFB2582
	.uleb128 .LEHE20-.LEHB20
	.uleb128 0
	.uleb128 0
	.uleb128 .LEHB21-.LFB2582
	.uleb128 .LEHE21-.LEHB21
	.uleb128 .L418-.LFB2582
	.uleb128 0
	.uleb128 .LEHB22-.LFB2582
	.uleb128 .LEHE22-.LEHB22
	.uleb128 0
	.uleb128 0
	.uleb128 .LEHB23-.LFB2582
	.uleb128 .LEHE23-.LEHB23
	.uleb128 0
	.uleb128 0
.LLSDACSE2582:
	.section	".text"
	.size	_ZN18idDeclManagerLocal8ShutdownEv, .-_ZN18idDeclManagerLocal8ShutdownEv
	.align 2
	.globl _ZN10idDeclFilenaEj
	.type	_ZN10idDeclFilenaEj, @function
_ZN10idDeclFilenaEj:
.LFB2578:
	.loc 4 641 0
	.cfi_startproc
	.cfi_personality 0,__gxx_personality_v0
	.cfi_lsda 0,.LLSDA2578
.LVL685:
	mflr 0
	stwu 1,-8(1)
.LCFI230:
	.cfi_def_cfa_offset 8
	.cfi_register 65, 0
	stw 0,12(1)
.LEHB24:
.LBB2632:
	.loc 4 642 0
	.cfi_offset 65, 4
	bl _Z11Mem_Alloc16i
.LVL686:
	.loc 4 643 0
	cmpwi 7,3,0
	beq- 7,.L431
.LBE2632:
	.loc 4 647 0
	lwz 0,12(1)
	addi 1,1,8
	.cfi_remember_state
.LCFI231:
	.cfi_def_cfa_offset 0
	mtlr 0
	blr
.L431:
.LCFI232:
	.cfi_restore_state
.LBB2637:
	.loc 4 644 0
	li 3,4
.LVL687:
	bl __cxa_allocate_exception
.LVL688:
.LBB2633:
.LBB2634:
	.loc 16 59 0
	lis 9,_ZTVSt9bad_alloc+8@ha
	la 0,_ZTVSt9bad_alloc+8@l(9)
.LBE2634:
.LBE2633:
	.loc 4 644 0
	lis 4,_ZTISt9bad_alloc@ha
	lis 5,_ZNSt9bad_allocD1Ev@ha
.LBB2636:
.LBB2635:
	.loc 16 59 0
	stw 0,0(3)
.LBE2635:
.LBE2636:
	.loc 4 644 0
	la 4,_ZTISt9bad_alloc@l(4)
	la 5,_ZNSt9bad_allocD1Ev@l(5)
	bl __cxa_throw
.LEHE24:
.LVL689:
.L430:
	.loc 4 646 0
	cmpwi 7,4,-1
	beq- 7,.L429
.LEHB25:
	bl _Unwind_Resume
.L429:
.LBE2637:
	.loc 4 641 0
	bl __cxa_call_unexpected
.LEHE25:
	.cfi_endproc
.LFE2578:
	.section	.gcc_except_table
	.align 2
.LLSDA2578:
	.byte	0xff
	.byte	0
	.uleb128 .LLSDATT2578-.LLSDATTD2578
.LLSDATTD2578:
	.byte	0x1
	.uleb128 .LLSDACSE2578-.LLSDACSB2578
.LLSDACSB2578:
	.uleb128 .LEHB24-.LFB2578
	.uleb128 .LEHE24-.LEHB24
	.uleb128 .L430-.LFB2578
	.uleb128 0x1
	.uleb128 .LEHB25-.LFB2578
	.uleb128 .LEHE25-.LEHB25
	.uleb128 0
	.uleb128 0
.LLSDACSE2578:
	.byte	0x7f
	.byte	0
	.align 2
	.long	_ZTISt9bad_alloc
.LLSDATT2578:
	.byte	0x1
	.byte	0
	.section	".text"
	.size	_ZN10idDeclFilenaEj, .-_ZN10idDeclFilenaEj
	.align 2
	.globl _ZN10idDeclFiledaEPv
	.type	_ZN10idDeclFiledaEPv, @function
_ZN10idDeclFiledaEPv:
.LFB2579:
	.loc 4 649 0
	.cfi_startproc
	.cfi_personality 0,__gxx_personality_v0
	.cfi_lsda 0,.LLSDA2579
.LVL690:
	mflr 0
	stwu 1,-8(1)
.LCFI233:
	.cfi_def_cfa_offset 8
	.cfi_register 65, 0
	stw 0,12(1)
	.loc 4 650 0
	lis 0,0x8fff
	.cfi_offset 65, 4
	ori 0,0,65535
	cmplw 7,3,0
	ble- 7,.L433
.LEHB26:
	.loc 4 651 0
	bl _Z10Mem_Free16Pv
.LEHE26:
.LVL691:
	.loc 4 655 0
	lwz 0,12(1)
	addi 1,1,8
	.cfi_remember_state
.LCFI234:
	.cfi_def_cfa_offset 0
	mtlr 0
	blr
.LVL692:
.L433:
.LCFI235:
	.cfi_restore_state
	.loc 4 653 0
	bl free
.LVL693:
	.loc 4 655 0
	lwz 0,12(1)
	addi 1,1,8
	.cfi_remember_state
.LCFI236:
	.cfi_def_cfa_offset 0
	mtlr 0
	blr
.L437:
.LCFI237:
	.cfi_restore_state
	cmpwi 7,4,-1
	beq- 7,.L436
.LEHB27:
	bl _Unwind_Resume
.L436:
	.loc 4 649 0
	bl __cxa_call_unexpected
.LEHE27:
	.cfi_endproc
.LFE2579:
	.section	.gcc_except_table
	.align 2
.LLSDA2579:
	.byte	0xff
	.byte	0
	.uleb128 .LLSDATT2579-.LLSDATTD2579
.LLSDATTD2579:
	.byte	0x1
	.uleb128 .LLSDACSE2579-.LLSDACSB2579
.LLSDACSB2579:
	.uleb128 .LEHB26-.LFB2579
	.uleb128 .LEHE26-.LEHB26
	.uleb128 .L437-.LFB2579
	.uleb128 0x1
	.uleb128 .LEHB27-.LFB2579
	.uleb128 .LEHE27-.LEHB27
	.uleb128 0
	.uleb128 0
.LLSDACSE2579:
	.byte	0x7f
	.byte	0
	.align 2
.LLSDATT2579:
	.byte	0
	.section	".text"
	.size	_ZN10idDeclFiledaEPv, .-_ZN10idDeclFiledaEPv
	.align 2
	.globl _ZN18idDeclManagerLocal17MakeNameCanonicalEPKcPci
	.type	_ZN18idDeclManagerLocal17MakeNameCanonicalEPKcPci, @function
_ZN18idDeclManagerLocal17MakeNameCanonicalEPKcPci:
.LFB2615:
	.loc 4 1677 0
	.cfi_startproc
.LVL694:
.LBB2638:
.LBB2639:
	.loc 4 1681 0
	cmpwi 0,5,0
	li 0,0
	bgt- 0,.L454
.LVL695:
.L439:
.LBE2639:
	.loc 4 1695 0
	li 9,0
	stbx 9,4,0
	blr
.LVL696:
.L454:
.LBB2654:
	.loc 4 1681 0
	lbz 11,0(3)
	.loc 4 1680 0
	li 10,-1
	.loc 4 1681 0
	li 9,0
.LBB2640:
	.loc 4 1684 0
	li 8,47
.LBE2640:
	.loc 4 1681 0
	cmpwi 7,11,0
.LBB2651:
	.loc 4 1684 0
	mtctr 5
.LBE2651:
	.loc 4 1681 0
	beq- 7,.L439
.LVL697:
.LBB2652:
	.loc 4 1683 0 discriminator 5
	cmpwi 1,11,92
.LBB2641:
.LBB2642:
	.loc 6 1011 0 discriminator 5
	addi 0,11,-65
	rlwinm 0,0,0,0xff
.LBE2642:
.LBE2641:
	.loc 4 1685 0 discriminator 5
	cmpwi 7,11,46
.LBB2647:
.LBB2643:
	.loc 6 1011 0 discriminator 5
	cmplwi 6,0,25
.LBE2643:
.LBE2647:
	.loc 4 1683 0 discriminator 5
	beq- 1,.L455
.LVL698:
.L453:
	.loc 4 1685 0
	beq- 7,.L456
.LVL699:
.LBB2648:
.LBB2644:
	.loc 6 1012 0
	addi 0,11,32
	.loc 6 1011 0
	bgt- 6,.L443
.LVL700:
	.loc 6 1012 0
	rlwinm 11,0,0,0xff
.LVL701:
.L443:
.LBE2644:
.LBE2648:
	.loc 4 1689 0
	stbx 11,4,9
.LVL702:
.L441:
.LBE2652:
	.loc 4 1681 0
	addi 9,9,1
.LVL703:
	bdnz .L457
.L444:
.LBE2654:
	.loc 4 1692 0
	cmpwi 7,10,-1
	mr 0,9
	beq- 7,.L439
	.loc 4 1693 0
	li 0,0
	stbx 0,4,10
	blr
.L457:
.LBB2655:
	.loc 4 1681 0 discriminator 2
	lbzx 11,3,9
	cmpwi 7,11,0
	beq- 7,.L444
.LVL704:
.LBB2653:
	.loc 4 1683 0
	cmpwi 1,11,92
.LBB2649:
.LBB2645:
	.loc 6 1011 0
	addi 0,11,-65
	rlwinm 0,0,0,0xff
.LBE2645:
.LBE2649:
	.loc 4 1685 0
	cmpwi 7,11,46
.LBB2650:
.LBB2646:
	.loc 6 1011 0
	cmplwi 6,0,25
.LBE2646:
.LBE2650:
	.loc 4 1683 0
	bne+ 1,.L453
.LVL705:
.L455:
	.loc 4 1684 0
	stbx 8,4,9
	b .L441
.L456:
.LVL706:
	.loc 4 1687 0
	stbx 11,4,9
	mr 10,9
	b .L441
.LBE2653:
.LBE2655:
.LBE2638:
	.cfi_endproc
.LFE2615:
	.size	_ZN18idDeclManagerLocal17MakeNameCanonicalEPKcPci, .-_ZN18idDeclManagerLocal17MakeNameCanonicalEPKcPci
	.align 2
	.globl _ZN18idDeclManagerLocal10RenameDeclE10declType_tPKcS2_
	.type	_ZN18idDeclManagerLocal10RenameDeclE10declType_tPKcS2_, @function
_ZN18idDeclManagerLocal10RenameDeclE10declType_tPKcS2_:
.LFB2608:
	.loc 4 1545 0
	.cfi_startproc
.LVL707:
	stwu 1,-2088(1)
.LCFI238:
	.cfi_def_cfa_offset 2088
	mflr 0
	stw 29,2076(1)
	mr 29,6
	.cfi_offset 29, -12
	.cfi_register 65, 0
	stw 30,2080(1)
	mr 30,4
	.cfi_offset 30, -8
	stw 31,2084(1)
.LBB2702:
	.loc 4 1548 0
	addi 4,1,1032
.LVL708:
.LBE2702:
	.loc 4 1545 0
	mr 31,3
	.cfi_offset 31, -4
.LBB2769:
	.loc 4 1548 0
	mr 3,5
.LVL709:
	li 5,1024
.LVL710:
.LBE2769:
	.loc 4 1545 0
	stw 0,2092(1)
	stw 24,2056(1)
.LBB2770:
	.loc 4 1558 0
	mulli 24,30,28
	.cfi_offset 24, -32
	.cfi_offset 65, 4
.LBE2770:
	.loc 4 1545 0
	stw 28,2072(1)
.LBB2771:
.LBB2703:
.LBB2704:
.LBB2705:
.LBB2706:
.LBB2707:
.LBB2708:
	.loc 6 992 0
	li 28,0
	.cfi_offset 28, -16
.LBE2708:
.LBE2707:
.LBE2706:
.LBE2705:
.LBE2704:
.LBE2703:
.LBE2771:
	.loc 4 1545 0
	stw 25,2060(1)
.LBB2772:
	.loc 4 1558 0
	addi 24,24,48
.LBE2772:
	.loc 4 1545 0
	stw 26,2064(1)
.LBB2773:
	.loc 4 1558 0
	add 24,31,24
.LBE2773:
	.loc 4 1545 0
	stw 27,2068(1)
.LBB2774:
	.loc 4 1548 0
	.cfi_offset 27, -20
	.cfi_offset 26, -24
	.cfi_offset 25, -28
	bl _ZN18idDeclManagerLocal17MakeNameCanonicalEPKcPci
.LVL711:
	.loc 4 1551 0
	mr 3,29
	addi 4,1,8
	li 5,1024
	.loc 4 1558 0
	addi 29,24,4
.LVL712:
	.loc 4 1551 0
	bl _ZN18idDeclManagerLocal17MakeNameCanonicalEPKcPci
.LVL713:
.LBB2716:
.LBB2715:
.LBB2714:
.LBB2713:
.LBB2712:
.LBB2711:
	.loc 6 992 0
	lbz 9,1032(1)
	li 0,0
	cmpwi 7,9,0
	beq- 7,.L459
	addi 10,1,1032
.LVL714:
	li 11,119
.LVL715:
.L461:
.LBB2709:
.LBB2710:
	.loc 6 1011 0
	addi 0,9,-65
	rlwinm 0,0,0,0xff
	cmplwi 7,0,25
	.loc 6 1012 0
	addi 0,9,32
	.loc 6 1011 0
	bgt- 7,.L460
	.loc 6 1012 0
	rlwinm 9,0,0,0xff
.LVL716:
.L460:
.LBE2710:
.LBE2709:
	.loc 6 993 0
	mullw 0,9,11
.LVL717:
	.loc 6 992 0
	lbzu 9,1(10)
	addi 11,11,1
	cmpwi 7,9,0
	.loc 6 993 0
	add 28,28,0
.LVL718:
	.loc 6 992 0
	bne+ 7,.L461
	lwz 0,20(29)
	lwz 9,24(29)
	and 28,28,0
.LVL719:
	and 0,0,9
	and 0,0,28
	slwi 0,0,2
.L459:
.LVL720:
.LBE2711:
.LBE2712:
.LBE2713:
.LBE2714:
.LBE2715:
.LBE2716:
.LBB2717:
.LBB2718:
	.file 17 "d:/Data/Nintendo/DoomGX/src/framework/../idlib/../idlib/containers/HashIndex.h"
	.loc 17 239 0
	lwz 9,4(29)
.LBE2718:
.LBE2717:
	.loc 4 1566 0
	li 3,0
.LBB2720:
.LBB2719:
	.loc 17 239 0
	lwzx 27,9,0
.LVL721:
.LBE2719:
.LBE2720:
	.loc 4 1559 0
	cmpwi 7,27,0
	blt- 7,.L462
	addi 30,30,59
.LVL722:
	.loc 4 1560 0
	slwi 30,30,4
.LVL723:
	add 31,31,30
.LVL724:
	b .L465
.LVL725:
.L463:
.LBB2721:
.LBB2722:
	.loc 17 249 0
	lwz 0,24(29)
	lwz 9,12(29)
	and 27,27,0
.LVL726:
	slwi 27,27,2
	lwzx 27,9,27
.LVL727:
.LBE2722:
.LBE2721:
	.loc 4 1559 0
	cmpwi 7,27,0
	blt- 7,.L492
.LVL728:
.L465:
	.loc 4 1560 0
	lwz 9,16(31)
.LBB2723:
.LBB2724:
	.loc 5 589 0
	slwi 26,27,2
.LVL729:
.LBE2724:
.LBE2723:
.LBB2725:
.LBB2726:
	.loc 6 690 0
	addi 4,1,1032
.LVL730:
	.loc 4 2449 0
	lwzx 9,9,26
	.loc 6 690 0
	lwz 3,12(9)
	bl _ZN5idStr4IcmpEPKcS1_
.LVL731:
.LBE2726:
.LBE2725:
	.loc 4 1560 0
	cmpwi 7,3,0
	bne+ 7,.L463
.LVL732:
	.loc 4 1561 0
	lwz 9,16(31)
	lwzx 27,9,26
.LVL733:
	.loc 4 1565 0
	cmpwi 7,27,0
	beq- 7,.L462
	.loc 4 1574 0
	addi 3,27,8
	addi 4,1,8
	bl _ZN5idStraSEPKc
.LVL734:
.LBB2727:
.LBB2728:
.LBB2729:
.LBB2730:
.LBB2731:
.LBB2732:
	.loc 6 992 0
	lbz 9,8(1)
	li 31,0
	cmpwi 7,9,0
	beq- 7,.L466
	addi 10,1,8
.LVL735:
	li 11,119
.LVL736:
.L468:
.LBB2733:
.LBB2734:
	.loc 6 1011 0
	addi 0,9,-65
	rlwinm 0,0,0,0xff
	cmplwi 7,0,25
	.loc 6 1012 0
	addi 0,9,32
	.loc 6 1011 0
	bgt- 7,.L467
	.loc 6 1012 0
	rlwinm 9,0,0,0xff
.LVL737:
.L467:
.LBE2734:
.LBE2733:
	.loc 6 993 0
	mullw 0,9,11
.LVL738:
	.loc 6 992 0
	lbzu 9,1(10)
	addi 11,11,1
	cmpwi 7,9,0
	.loc 6 993 0
	add 31,31,0
.LVL739:
	.loc 6 992 0
	bne+ 7,.L468
.LVL740:
.L466:
.LBE2732:
.LBE2731:
.LBE2730:
.LBE2729:
.LBE2728:
.LBE2727:
.LBB2741:
.LBB2742:
	.loc 17 197 0
	lwz 9,4(29)
	lis 26,_ZN11idHashIndex13INVALID_INDEXE@ha
	la 26,_ZN11idHashIndex13INVALID_INDEXE@l(26)
.LBE2742:
.LBE2741:
.LBB2747:
.LBB2739:
.LBB2737:
.LBB2735:
	.loc 17 383 0
	lwz 25,20(29)
.LBE2735:
.LBE2737:
.LBE2739:
.LBE2747:
.LBB2748:
.LBB2743:
	.loc 17 197 0
	cmpw 7,9,26
.LBE2743:
.LBE2748:
	.loc 4 1580 0
	lwz 30,84(27)
.LVL741:
.LBB2749:
.LBB2744:
	.loc 17 197 0
	beq- 7,.L493
	.loc 17 200 0
	lwz 11,8(29)
	mr 0,25
	cmpw 7,30,11
	blt+ 7,.L471
	.loc 17 201 0
	mr 3,29
	addi 4,30,1
	bl _ZN11idHashIndex11ResizeIndexEi
.LVL742:
	lwz 0,20(29)
	lwz 9,4(29)
.L471:
.LVL743:
.LBE2744:
.LBE2749:
.LBB2750:
.LBB2740:
.LBB2738:
.LBB2736:
	.loc 17 383 0
	and 31,31,25
.LVL744:
.LBE2736:
.LBE2738:
.LBE2740:
.LBE2750:
.LBB2751:
.LBB2752:
	.loc 4 1585 0
	li 3,1
.LBE2752:
.LBE2751:
.LBB2763:
.LBB2745:
	.loc 17 203 0
	and 31,31,0
.LVL745:
	.loc 17 204 0
	slwi 0,30,2
	slwi 31,31,2
.LVL746:
	lwzx 11,9,31
	lwz 9,12(29)
	stwx 11,9,0
	.loc 17 205 0
	lwz 9,4(29)
	stwx 30,9,31
.LBE2745:
.LBE2763:
.LBB2764:
.LBB2759:
	.loc 17 216 0
	lwz 9,4(29)
.LBE2759:
.LBE2764:
	.loc 4 1583 0
	lwz 10,84(27)
.LVL747:
.LBB2765:
.LBB2760:
	.loc 17 216 0
	cmpw 7,9,26
	.loc 17 214 0
	lwz 0,20(29)
.LVL748:
	.loc 17 216 0
	beq- 7,.L462
	.loc 17 214 0
	and 28,28,0
.LVL749:
.LBB2753:
	.loc 17 219 0
	slwi 28,28,2
.LVL750:
	lwzx 8,9,28
	cmpw 7,10,8
	beq- 7,.L494
.LVL751:
.LBB2754:
	.loc 17 223 0
	cmpwi 7,8,-1
	beq- 7,.L495
	.loc 17 224 0
	lwz 11,12(29)
	slwi 8,8,2
	lwzx 0,11,8
	add 8,11,8
	cmpw 7,10,0
	bne+ 7,.L491
	b .L474
.LVL752:
.L476:
	lwzx 0,11,9
.LVL753:
	cmpw 7,10,0
	beq- 7,.L474
.L491:
.LVL754:
	.loc 17 223 0
	cmpwi 7,0,-1
	.loc 17 224 0
	slwi 9,0,2
	add 8,11,9
	.loc 17 223 0
	bne+ 7,.L476
	.loc 17 224 0
	slwi 10,10,2
.LVL755:
.L473:
.LBE2754:
.LBE2753:
	.loc 17 230 0
	li 0,-1
	.loc 4 1585 0
	li 3,1
	.loc 17 230 0
	stwx 0,11,10
.LVL756:
.L462:
.LBE2760:
.LBE2765:
.LBE2774:
	.loc 4 1586 0
	lwz 0,2092(1)
	lwz 24,2056(1)
	mtlr 0
	lwz 25,2060(1)
	lwz 26,2064(1)
	lwz 27,2068(1)
	lwz 28,2072(1)
	lwz 29,2076(1)
.LVL757:
	lwz 30,2080(1)
	lwz 31,2084(1)
	addi 1,1,2088
	.cfi_remember_state
.LCFI239:
	.cfi_def_cfa_offset 0
	.cfi_restore 31
	.cfi_restore 30
	.cfi_restore 29
	.cfi_restore 28
	.cfi_restore 27
	.cfi_restore 26
	.cfi_restore 25
	.cfi_restore 24
	blr
.LVL758:
.L492:
.LCFI240:
	.cfi_restore_state
	lwz 0,2092(1)
.LBB2775:
	.loc 4 1566 0
	li 3,0
.LBE2775:
	.loc 4 1586 0
	lwz 24,2056(1)
	mtlr 0
	lwz 25,2060(1)
	lwz 26,2064(1)
	lwz 27,2068(1)
.LVL759:
	lwz 28,2072(1)
	lwz 29,2076(1)
.LVL760:
	lwz 30,2080(1)
	lwz 31,2084(1)
	addi 1,1,2088
	.cfi_remember_state
	.cfi_restore 24
	.cfi_restore 25
	.cfi_restore 26
	.cfi_restore 27
	.cfi_restore 28
	.cfi_restore 29
	.cfi_restore 30
	.cfi_restore 31
.LCFI241:
	.cfi_def_cfa_offset 0
	blr
.LVL761:
.L474:
.LCFI242:
	.cfi_restore_state
.LBB2776:
.LBB2766:
.LBB2761:
.LBB2757:
.LBB2755:
	.loc 17 225 0
	slwi 10,10,2
.LVL762:
	lwzx 0,11,10
	stw 0,0(8)
	lwz 11,12(29)
	b .L473
.L494:
.LBE2755:
	.loc 17 220 0
	lwz 11,12(29)
	slwi 10,10,2
	lwzx 0,11,10
	stwx 0,9,28
	lwz 11,12(29)
	b .L473
.LVL763:
.L493:
.LBE2757:
.LBE2761:
.LBE2766:
.LBB2767:
.LBB2746:
	.loc 17 198 0
	lwz 5,8(29)
	lwz 4,4(24)
	cmpw 7,30,5
	blt- 7,.L470
	addi 5,30,1
.L470:
	mr 3,29
	bl _ZN11idHashIndex8AllocateEii
	lwz 0,20(29)
	lwz 9,4(29)
	b .L471
.LVL764:
.L495:
.LBE2746:
.LBE2767:
.LBB2768:
.LBB2762:
.LBB2758:
.LBB2756:
	.loc 17 223 0
	slwi 10,10,2
.LVL765:
	lwz 11,12(29)
	b .L473
.LBE2756:
.LBE2758:
.LBE2762:
.LBE2768:
.LBE2776:
	.cfi_endproc
.LFE2608:
	.size	_ZN18idDeclManagerLocal10RenameDeclE10declType_tPKcS2_, .-_ZN18idDeclManagerLocal10RenameDeclE10declType_tPKcS2_
	.align 2
	.globl _ZN11idDeclLocalC2Ev
	.type	_ZN11idDeclLocalC2Ev, @function
_ZN11idDeclLocalC2Ev:
.LFB2624:
	.loc 4 1880 0
	.cfi_startproc
	.cfi_personality 0,__gxx_personality_v0
	.cfi_lsda 0,.LLSDA2624
.LVL766:
	mflr 0
	stwu 1,-24(1)
.LCFI243:
	.cfi_def_cfa_offset 24
	.cfi_register 65, 0
.LBB2777:
	lis 11,_ZTV11idDeclLocal+8@ha
.LBB2778:
.LBB2779:
.LBB2780:
	.loc 6 358 0
	addi 9,3,20
.LBE2780:
.LBE2779:
.LBE2778:
	.loc 4 1880 0
	la 11,_ZTV11idDeclLocal+8@l(11)
.LBE2777:
	stw 30,16(1)
	stw 0,28(1)
.LBB2802:
.LBB2791:
.LBB2786:
.LBB2781:
	.loc 6 356 0
	li 0,0
	.cfi_offset 65, 4
	.cfi_offset 30, -8
.LBE2781:
.LBE2786:
.LBE2791:
.LBE2802:
	.loc 4 1880 0
	stw 31,20(1)
.LBB2803:
.LBB2792:
.LBB2787:
.LBB2782:
	.loc 6 358 0
	addi 30,3,8
.LBE2782:
.LBE2787:
.LBE2792:
.LBE2803:
	.loc 4 1880 0
	stw 29,12(1)
.LBB2804:
	.loc 4 1885 0
	lis 4,.LC116@ha
	.loc 4 1880 0
	stw 11,0(3)
.LBB2793:
.LBB2788:
.LBB2783:
	.loc 6 357 0
	li 11,20
	.loc 6 356 0
	stw 0,8(3)
.LBE2783:
.LBE2788:
.LBE2793:
.LBE2804:
	.loc 4 1880 0
	mr 31,3
	.cfi_offset 29, -12
	.cfi_offset 31, -4
.LVL767:
.LBB2805:
.LBB2794:
.LBB2789:
.LBB2784:
	.loc 6 357 0
	stw 11,16(3)
.LBE2784:
.LBE2789:
.LBE2794:
	.loc 4 1885 0
	la 4,.LC116@l(4)
.LBB2795:
.LBB2790:
.LBB2785:
	.loc 6 358 0
	stw 9,12(3)
	.loc 6 359 0
	stb 0,20(3)
.LBE2785:
.LBE2790:
.LBE2795:
	.loc 4 1885 0
	mr 3,30
.LVL768:
.LEHB28:
	bl _ZN5idStraSEPKc
.LEHE28:
.LVL769:
	.loc 4 1887 0
	li 0,0
	.loc 4 1897 0
	li 9,4
	.loc 4 1887 0
	stw 0,44(31)
	.loc 4 1888 0
	stw 0,40(31)
	.loc 4 1890 0
	stw 0,48(31)
	.loc 4 1891 0
	stw 0,52(31)
	.loc 4 1892 0
	stw 0,56(31)
	.loc 4 1893 0
	stw 0,60(31)
	.loc 4 1894 0
	stw 0,64(31)
	.loc 4 1895 0
	stw 0,68(31)
	.loc 4 1896 0
	stw 0,72(31)
	.loc 4 1897 0
	stw 9,76(31)
	.loc 4 1898 0
	stw 0,84(31)
	.loc 4 1899 0
	stw 0,80(31)
	.loc 4 1900 0
	stb 0,88(31)
	.loc 4 1901 0
	stb 0,90(31)
	.loc 4 1902 0
	stb 0,89(31)
	.loc 4 1903 0
	stb 0,91(31)
	.loc 4 1904 0
	stw 0,92(31)
.LBE2805:
	.loc 4 1905 0
	lwz 0,28(1)
	lwz 29,12(1)
	mtlr 0
	lwz 30,16(1)
.LVL770:
	lwz 31,20(1)
.LVL771:
	addi 1,1,24
	.cfi_remember_state
.LCFI244:
	.cfi_def_cfa_offset 0
	.cfi_restore 31
	.cfi_restore 30
	.cfi_restore 29
	blr
.LVL772:
.L500:
.LCFI245:
	.cfi_restore_state
	mr 29,3
.LVL773:
.LBB2806:
.LBB2796:
.LBB2797:
.LBB2798:
	.loc 6 501 0
	mr 3,30
	bl _ZN5idStr8FreeDataEv
.LVL774:
.LBE2798:
.LBE2797:
.LBE2796:
.LBB2799:
.LBB2800:
.LBB2801:
	.loc 3 103 0
	lis 9,_ZTV10idDeclBase+8@ha
	la 0,_ZTV10idDeclBase+8@l(9)
	mr 3,29
	stw 0,0(31)
.LEHB29:
	bl _Unwind_Resume
.LEHE29:
.LBE2801:
.LBE2800:
.LBE2799:
.LBE2806:
	.cfi_endproc
.LFE2624:
	.section	.gcc_except_table
.LLSDA2624:
	.byte	0xff
	.byte	0xff
	.byte	0x1
	.uleb128 .LLSDACSE2624-.LLSDACSB2624
.LLSDACSB2624:
	.uleb128 .LEHB28-.LFB2624
	.uleb128 .LEHE28-.LEHB28
	.uleb128 .L500-.LFB2624
	.uleb128 0
	.uleb128 .LEHB29-.LFB2624
	.uleb128 .LEHE29-.LEHB29
	.uleb128 0
	.uleb128 0
.LLSDACSE2624:
	.section	".text"
	.size	_ZN11idDeclLocalC2Ev, .-_ZN11idDeclLocalC2Ev
	.align 2
	.globl _ZN11idDeclLocalnwEj
	.type	_ZN11idDeclLocalnwEj, @function
_ZN11idDeclLocalnwEj:
.LFB2626:
	.loc 4 1907 0
	.cfi_startproc
	.cfi_personality 0,__gxx_personality_v0
	.cfi_lsda 0,.LLSDA2626
.LVL775:
	mflr 0
	stwu 1,-8(1)
.LCFI246:
	.cfi_def_cfa_offset 8
	.cfi_register 65, 0
	stw 0,12(1)
.LEHB30:
.LBB2807:
	.loc 4 1908 0
	.cfi_offset 65, 4
	bl _Z11Mem_Alloc16i
.LVL776:
	.loc 4 1909 0
	cmpwi 7,3,0
	beq- 7,.L506
.LBE2807:
	.loc 4 1913 0
	lwz 0,12(1)
	addi 1,1,8
	.cfi_remember_state
.LCFI247:
	.cfi_def_cfa_offset 0
	mtlr 0
	blr
.L506:
.LCFI248:
	.cfi_restore_state
.LBB2812:
	.loc 4 1910 0
	li 3,4
.LVL777:
	bl __cxa_allocate_exception
.LVL778:
.LBB2808:
.LBB2809:
	.loc 16 59 0
	lis 9,_ZTVSt9bad_alloc+8@ha
	la 0,_ZTVSt9bad_alloc+8@l(9)
.LBE2809:
.LBE2808:
	.loc 4 1910 0
	lis 4,_ZTISt9bad_alloc@ha
	lis 5,_ZNSt9bad_allocD1Ev@ha
.LBB2811:
.LBB2810:
	.loc 16 59 0
	stw 0,0(3)
.LBE2810:
.LBE2811:
	.loc 4 1910 0
	la 4,_ZTISt9bad_alloc@l(4)
	la 5,_ZNSt9bad_allocD1Ev@l(5)
	bl __cxa_throw
.LEHE30:
.LVL779:
.L505:
	.loc 4 1912 0
	cmpwi 7,4,-1
	beq- 7,.L504
.LEHB31:
	bl _Unwind_Resume
.L504:
.LBE2812:
	.loc 4 1907 0
	bl __cxa_call_unexpected
.LEHE31:
	.cfi_endproc
.LFE2626:
	.section	.gcc_except_table
	.align 2
.LLSDA2626:
	.byte	0xff
	.byte	0
	.uleb128 .LLSDATT2626-.LLSDATTD2626
.LLSDATTD2626:
	.byte	0x1
	.uleb128 .LLSDACSE2626-.LLSDACSB2626
.LLSDACSB2626:
	.uleb128 .LEHB30-.LFB2626
	.uleb128 .LEHE30-.LEHB30
	.uleb128 .L505-.LFB2626
	.uleb128 0x1
	.uleb128 .LEHB31-.LFB2626
	.uleb128 .LEHE31-.LEHB31
	.uleb128 0
	.uleb128 0
.LLSDACSE2626:
	.byte	0x7f
	.byte	0
	.align 2
	.long	_ZTISt9bad_alloc
.LLSDATT2626:
	.byte	0x1
	.byte	0
	.section	".text"
	.size	_ZN11idDeclLocalnwEj, .-_ZN11idDeclLocalnwEj
	.align 2
	.globl _ZN11idDeclLocaldlEPv
	.type	_ZN11idDeclLocaldlEPv, @function
_ZN11idDeclLocaldlEPv:
.LFB2627:
	.loc 4 1915 0
	.cfi_startproc
	.cfi_personality 0,__gxx_personality_v0
	.cfi_lsda 0,.LLSDA2627
.LVL780:
	mflr 0
	stwu 1,-8(1)
.LCFI249:
	.cfi_def_cfa_offset 8
	.cfi_register 65, 0
	stw 0,12(1)
	.loc 4 1916 0
	lis 0,0x8fff
	.cfi_offset 65, 4
	ori 0,0,65535
	cmplw 7,3,0
	ble- 7,.L508
.LEHB32:
	.loc 4 1917 0
	bl _Z10Mem_Free16Pv
.LEHE32:
.LVL781:
	.loc 4 1921 0
	lwz 0,12(1)
	addi 1,1,8
	.cfi_remember_state
.LCFI250:
	.cfi_def_cfa_offset 0
	mtlr 0
	blr
.LVL782:
.L508:
.LCFI251:
	.cfi_restore_state
	.loc 4 1919 0
	bl free
.LVL783:
	.loc 4 1921 0
	lwz 0,12(1)
	addi 1,1,8
	.cfi_remember_state
.LCFI252:
	.cfi_def_cfa_offset 0
	mtlr 0
	blr
.L512:
.LCFI253:
	.cfi_restore_state
	cmpwi 7,4,-1
	beq- 7,.L511
.LEHB33:
	bl _Unwind_Resume
.L511:
	.loc 4 1915 0
	bl __cxa_call_unexpected
.LEHE33:
	.cfi_endproc
.LFE2627:
	.section	.gcc_except_table
	.align 2
.LLSDA2627:
	.byte	0xff
	.byte	0
	.uleb128 .LLSDATT2627-.LLSDATTD2627
.LLSDATTD2627:
	.byte	0x1
	.uleb128 .LLSDACSE2627-.LLSDACSB2627
.LLSDACSB2627:
	.uleb128 .LEHB32-.LFB2627
	.uleb128 .LEHE32-.LEHB32
	.uleb128 .L512-.LFB2627
	.uleb128 0x1
	.uleb128 .LEHB33-.LFB2627
	.uleb128 .LEHE33-.LEHB33
	.uleb128 0
	.uleb128 0
.LLSDACSE2627:
	.byte	0x7f
	.byte	0
	.align 2
.LLSDATT2627:
	.byte	0
	.section	".text"
	.size	_ZN11idDeclLocaldlEPv, .-_ZN11idDeclLocaldlEPv
	.section	.text._ZN11idDeclLocalD0Ev,"axG",@progbits,_ZN11idDeclLocalD5Ev,comdat
	.align 2
	.weak	_ZN11idDeclLocalD0Ev
	.type	_ZN11idDeclLocalD0Ev, @function
_ZN11idDeclLocalD0Ev:
.LFB2541:
	.loc 4 89 0
	.cfi_startproc
	.cfi_personality 0,__gxx_personality_v0
	.cfi_lsda 0,.LLSDA2541
.LVL784:
	mflr 0
	stwu 1,-16(1)
.LCFI254:
	.cfi_def_cfa_offset 16
	.cfi_register 65, 0
.LBB2825:
.LBB2826:
.LBB2827:
	lis 9,_ZTV11idDeclLocal+8@ha
.LBE2827:
.LBE2826:
.LBE2825:
	stw 31,12(1)
	mr 31,3
	.cfi_offset 31, -4
.LVL785:
	stw 0,20(1)
.LBB2846:
.LBB2843:
.LBB2840:
	.loc 4 89 0
	la 0,_ZTV11idDeclLocal+8@l(9)
	.cfi_offset 65, 4
	stw 0,0(3)
.LVL786:
.LBB2828:
.LBB2829:
.LBB2830:
	.loc 6 501 0
	addi 3,3,8
.LVL787:
.LEHB34:
	bl _ZN5idStr8FreeDataEv
.LEHE34:
.LVL788:
.LBE2830:
.LBE2829:
.LBE2828:
.LBB2831:
.LBB2832:
.LBB2833:
	.loc 3 103 0
	lis 9,_ZTV10idDeclBase+8@ha
.LBE2833:
.LBE2832:
.LBE2831:
.LBE2840:
.LBE2843:
.LBE2846:
	.loc 4 89 0
	mr 3,31
.LBB2847:
.LBB2844:
.LBB2841:
.LBB2836:
.LBB2835:
.LBB2834:
	.loc 3 103 0
	la 0,_ZTV10idDeclBase+8@l(9)
	stw 0,0(31)
.LBE2834:
.LBE2835:
.LBE2836:
.LBE2841:
.LBE2844:
.LBE2847:
	.loc 4 89 0
	lwz 0,20(1)
	lwz 31,12(1)
.LVL789:
	mtlr 0
	addi 1,1,16
	.cfi_remember_state
.LCFI255:
	.cfi_def_cfa_offset 0
	.cfi_restore 31
	b _ZN11idDeclLocaldlEPv
.LVL790:
.L520:
.LCFI256:
	.cfi_restore_state
.LBB2848:
.LBB2845:
.LBB2842:
.LBB2837:
.LBB2838:
.LBB2839:
	.loc 3 103 0
	lis 9,_ZTV10idDeclBase+8@ha
	la 0,_ZTV10idDeclBase+8@l(9)
	stw 0,0(31)
.LEHB35:
	bl _Unwind_Resume
.LEHE35:
.LBE2839:
.LBE2838:
.LBE2837:
.LBE2842:
.LBE2845:
.LBE2848:
	.cfi_endproc
.LFE2541:
	.section	.gcc_except_table
.LLSDA2541:
	.byte	0xff
	.byte	0xff
	.byte	0x1
	.uleb128 .LLSDACSE2541-.LLSDACSB2541
.LLSDACSB2541:
	.uleb128 .LEHB34-.LFB2541
	.uleb128 .LEHE34-.LEHB34
	.uleb128 .L520-.LFB2541
	.uleb128 0
	.uleb128 .LEHB35-.LFB2541
	.uleb128 .LEHE35-.LEHB35
	.uleb128 0
	.uleb128 0
.LLSDACSE2541:
	.section	.text._ZN11idDeclLocalD0Ev,"axG",@progbits,_ZN11idDeclLocalD5Ev,comdat
	.size	_ZN11idDeclLocalD0Ev, .-_ZN11idDeclLocalD0Ev
	.section	".text"
	.align 2
	.globl _ZN18idDeclManagerLocal22FindTypeWithoutParsingE10declType_tPKcb
	.type	_ZN18idDeclManagerLocal22FindTypeWithoutParsingE10declType_tPKcb, @function
_ZN18idDeclManagerLocal22FindTypeWithoutParsingE10declType_tPKcb:
.LFB2619:
	.loc 4 1812 0
	.cfi_startproc
	.cfi_personality 0,__gxx_personality_v0
	.cfi_lsda 0,.LLSDA2619
.LVL791:
	stwu 1,-1080(1)
.LCFI257:
	.cfi_def_cfa_offset 1080
	mflr 0
	stw 29,1068(1)
	mr 29,3
	.cfi_offset 29, -12
	.cfi_register 65, 0
.LBB2898:
	.loc 4 1816 0
	lis 3,.LC117@ha
.LVL792:
.LBE2898:
	.loc 4 1812 0
	stw 28,1064(1)
.LBB2980:
	.loc 4 1816 0
	la 3,.LC117@l(3)
.LBE2980:
	.loc 4 1812 0
	mr 28,4
	.cfi_offset 28, -16
.LVL793:
	stw 23,1044(1)
	mr 23,6
	.cfi_offset 23, -36
	stw 24,1048(1)
	mr 24,5
	.cfi_offset 24, -32
	stw 0,1084(1)
	stw 20,1032(1)
	stw 21,1036(1)
	stw 22,1040(1)
	stw 25,1052(1)
	stw 26,1056(1)
	stw 27,1060(1)
	stw 30,1072(1)
	stw 31,1076(1)
.LEHB36:
.LBB2981:
	.loc 4 1816 0
	.cfi_offset 31, -4
	.cfi_offset 30, -8
	.cfi_offset 27, -20
	.cfi_offset 26, -24
	.cfi_offset 25, -28
	.cfi_offset 22, -40
	.cfi_offset 21, -44
	.cfi_offset 20, -48
	.cfi_offset 65, 4
	crxor 6,6,6
	bl _Z10Sys_PrintfPKcz
.LVL794:
	.loc 4 1818 0
	cmpwi 7,28,0
	lwz 5,4(29)
	blt- 7,.L523
	.loc 4 1818 0 is_stmt 0 discriminator 2
	cmpw 7,28,5
	bge- 7,.L523
.LVL795:
	.loc 4 1818 0 discriminator 3
	lwz 9,16(29)
.LBB2899:
.LBB2900:
	.loc 5 589 0 is_stmt 1 discriminator 3
	slwi 22,28,2
.LBE2900:
.LBE2899:
	.loc 4 1818 0 discriminator 3
	lwzx 0,9,22
	cmpwi 7,0,0
	beq- 7,.L523
	.loc 4 1826 0
	mr 3,24
	addi 4,1,8
	li 5,1024
	.loc 4 1829 0
	mulli 26,28,28
	.loc 4 1826 0
	bl _ZN18idDeclManagerLocal17MakeNameCanonicalEPKcPci
.LBB2901:
.LBB2902:
.LBB2903:
.LBB2904:
.LBB2905:
.LBB2906:
	.loc 6 992 0
	lbz 9,8(1)
.LBE2906:
.LBE2905:
.LBE2904:
.LBE2903:
.LBE2902:
.LBE2901:
	.loc 4 1829 0
	addi 26,26,48
.LBB2924:
.LBB2921:
.LBB2918:
.LBB2915:
.LBB2912:
.LBB2909:
	.loc 6 992 0
	addi 10,1,8
	cmpwi 7,9,0
.LBE2909:
.LBE2912:
.LBE2915:
.LBE2918:
.LBE2921:
.LBE2924:
	.loc 4 1829 0
	add 26,29,26
.LBB2925:
.LBB2922:
.LBB2919:
.LBB2916:
.LBB2913:
.LBB2910:
	.loc 6 992 0
	li 11,119
.LBE2910:
.LBE2913:
.LBE2916:
.LBE2919:
.LBE2922:
.LBE2925:
	.loc 4 1829 0
	addi 31,26,4
.LVL796:
.LBB2926:
.LBB2923:
.LBB2920:
.LBB2917:
.LBB2914:
.LBB2911:
	.loc 6 992 0
	li 27,0
	li 0,0
	beq- 7,.L547
.LVL797:
.L527:
.LBB2907:
.LBB2908:
	.loc 6 1011 0
	addi 0,9,-65
	rlwinm 0,0,0,0xff
	cmplwi 7,0,25
	bgt- 7,.L526
	.loc 6 1012 0
	addi 9,9,32
.LVL798:
	rlwinm 9,9,0,0xff
.LVL799:
.L526:
.LBE2908:
.LBE2907:
	.loc 6 993 0
	mullw 0,9,11
	.loc 6 992 0
	lbzu 9,1(10)
	addi 11,11,1
	cmpwi 7,9,0
	.loc 6 993 0
	add 27,27,0
.LVL800:
	.loc 6 992 0
	bne+ 7,.L527
	lwz 0,20(31)
	lwz 9,24(31)
	and 27,27,0
.LVL801:
	and 0,0,9
	and 0,0,27
	slwi 0,0,2
.L547:
.LVL802:
.LBE2911:
.LBE2914:
.LBE2917:
.LBE2920:
.LBE2923:
.LBE2926:
.LBB2927:
.LBB2928:
	.loc 17 239 0
	lwz 9,4(31)
	lwzx 21,9,0
.LVL803:
.LBE2928:
.LBE2927:
	.loc 4 1830 0
	cmpwi 7,21,0
	blt- 7,.L528
	addi 20,28,59
	.loc 4 1831 0
	slwi 20,20,4
	add 20,29,20
	b .L531
.LVL804:
.L529:
.LBB2929:
.LBB2930:
	.loc 17 249 0
	lwz 0,24(31)
	lwz 9,12(31)
	and 21,21,0
.LVL805:
	slwi 21,21,2
	lwzx 21,9,21
.LVL806:
.LBE2930:
.LBE2929:
	.loc 4 1830 0
	cmpwi 7,21,0
	blt- 7,.L528
.LVL807:
.L531:
	.loc 4 1831 0
	addi 25,20,4
.LVL808:
.LBB2931:
.LBB2932:
	.loc 5 589 0
	slwi 30,21,2
.LVL809:
.LBE2932:
.LBE2931:
	.loc 4 1831 0
	lwz 9,12(25)
.LBB2933:
.LBB2934:
	.loc 6 690 0
	addi 4,1,8
.LVL810:
	.loc 4 2449 0
	lwzx 9,9,30
	.loc 6 690 0
	lwz 3,12(9)
	bl _ZN5idStr4IcmpEPKcS1_
.LVL811:
.LBE2934:
.LBE2933:
	.loc 4 1831 0
	cmpwi 7,3,0
	bne+ 7,.L529
.LBB2935:
.LBB2936:
	.loc 4 1833 0
	lis 9,.LANCHOR0+1580@ha
	.loc 2 143 0
	lwz 9,.LANCHOR0+1580@l(9)
.LBE2936:
.LBE2935:
	.loc 4 1833 0
	lwz 0,36(9)
	cmpwi 7,0,1
	ble- 7,.L530
	.loc 4 1834 0
	lwz 9,16(29)
	lis 4,.LC119@ha
	lwz 11,0(29)
	mr 3,29
	.loc 4 2449 0
	lwzx 9,9,22
	.loc 4 1834 0
	la 4,.LC119@l(4)
	lwz 0,96(11)
	mr 6,24
	lwz 5,4(9)
	mtctr 0
	crxor 6,6,6
	bctrl
.L530:
	.loc 4 1836 0
	lwz 9,12(25)
	lwzx 30,9,30
.LVL812:
.L525:
.LBE2981:
	.loc 4 1864 0
	lwz 0,1084(1)
	mr 3,30
	lwz 20,1032(1)
	mtlr 0
	lwz 21,1036(1)
	lwz 22,1040(1)
	lwz 23,1044(1)
	lwz 24,1048(1)
.LVL813:
	lwz 25,1052(1)
	lwz 26,1056(1)
	lwz 27,1060(1)
	lwz 28,1064(1)
	lwz 29,1068(1)
	lwz 30,1072(1)
	lwz 31,1076(1)
	addi 1,1,1080
	.cfi_remember_state
.LCFI258:
	.cfi_def_cfa_offset 0
	.cfi_restore 31
	.cfi_restore 30
	.cfi_restore 29
	.cfi_restore 28
	.cfi_restore 27
	.cfi_restore 26
	.cfi_restore 25
	.cfi_restore 24
	.cfi_restore 23
	.cfi_restore 22
	.cfi_restore 21
	.cfi_restore 20
	blr
.LVL814:
.L523:
.LCFI259:
	.cfi_restore_state
.LBB2982:
	.loc 4 1820 0 discriminator 5
	lis 3,.LC118@ha
	mr 4,28
	la 3,.LC118@l(3)
	mr 6,24
	mr 7,23
	.loc 4 1821 0 discriminator 5
	li 30,0
	.loc 4 1820 0 discriminator 5
	crxor 6,6,6
	bl _Z10Sys_PrintfPKcz
	.loc 4 1821 0 discriminator 5
	b .L525
.LVL815:
.L528:
	.loc 4 1840 0
	cmpwi 7,23,0
	beq- 7,.L548
	.loc 4 1844 0
	li 3,96
	bl _ZN11idDeclLocalnwEj
.LEHE36:
	mr 30,3
.LEHB37:
	bl _ZN11idDeclLocalC1Ev
.LEHE37:
.LVL816:
	.loc 4 1845 0 discriminator 1
	li 25,0
	.loc 4 1846 0 discriminator 1
	addi 3,30,8
	.loc 4 1845 0 discriminator 1
	stw 25,4(30)
	.loc 4 1846 0 discriminator 1
	addi 4,1,8
.LVL817:
.LEHB38:
	bl _ZN5idStraSEPKc
.LVL818:
	.loc 4 1854 0 discriminator 1
	addi 0,29,1460
	.loc 4 1847 0 discriminator 1
	stw 28,76(30)
	.loc 4 1860 0 discriminator 1
	addi 28,28,59
.LVL819:
	.loc 4 1848 0 discriminator 1
	stw 25,80(30)
	.loc 4 1860 0 discriminator 1
	slwi 28,28,4
	.loc 4 1850 0 discriminator 1
	stw 25,44(30)
	.loc 4 1851 0 discriminator 1
	stw 25,40(30)
	.loc 4 1853 0 discriminator 1
	stw 25,48(30)
	.loc 4 1854 0 discriminator 1
	stw 0,56(30)
	.loc 4 1855 0 discriminator 1
	stb 25,90(30)
	.loc 4 1856 0 discriminator 1
	stb 25,89(30)
	.loc 4 1857 0 discriminator 1
	lbz 0,1524(29)
	.loc 4 1860 0 discriminator 1
	add 29,29,28
.LVL820:
	addi 28,29,4
	.loc 4 1857 0 discriminator 1
	xori 0,0,1
	stb 0,88(30)
	.loc 4 2449 0 discriminator 1
	lwz 0,4(29)
	.loc 4 1860 0 discriminator 1
	stw 0,84(30)
.LVL821:
.LBB2937:
.LBB2938:
	.loc 5 655 0 discriminator 1
	lwz 25,12(28)
	cmpwi 7,25,0
	beq- 7,.L560
	lwz 9,4(28)
	lwz 0,4(29)
.LVL822:
.L532:
.LBB2939:
	.loc 5 659 0
	cmpw 7,0,9
	beq- 7,.L567
.L536:
.LBE2939:
	.loc 5 669 0
	slwi 0,0,2
.LBE2938:
.LBE2937:
.LBB2966:
.LBB2967:
	.loc 17 197 0
	lis 11,_ZN11idHashIndex13INVALID_INDEXE@ha
.LBE2967:
.LBE2966:
.LBB2972:
.LBB2962:
	.loc 5 669 0
	stwx 30,25,0
.LBE2962:
.LBE2972:
.LBB2973:
.LBB2968:
	.loc 17 197 0
	la 0,_ZN11idHashIndex13INVALID_INDEXE@l(11)
.LBE2968:
.LBE2973:
.LBB2974:
.LBB2963:
	.loc 5 670 0
	lwz 28,4(29)
.LVL823:
	addi 5,28,1
	stw 5,4(29)
.LVL824:
.LBE2963:
.LBE2974:
.LBB2975:
.LBB2969:
	.loc 17 197 0
	lwz 9,4(31)
	cmpw 7,9,0
	.loc 17 198 0
	lwz 0,8(31)
	.loc 17 197 0
	beq- 7,.L568
	.loc 17 200 0
	cmpw 7,28,0
	bge- 7,.L569
.LVL825:
.L545:
	.loc 17 203 0
	lwz 0,20(31)
	.loc 17 204 0
	lwz 11,12(31)
	.loc 17 203 0
	and 27,27,0
.LVL826:
	.loc 17 204 0
	slwi 0,28,2
	slwi 27,27,2
.LVL827:
	lwzx 9,9,27
	stwx 9,11,0
	.loc 17 205 0
	lwz 9,4(31)
	stwx 28,9,27
.LBE2969:
.LBE2975:
	.loc 4 1863 0
	b .L525
.LVL828:
.L569:
.LBB2976:
.LBB2970:
	.loc 17 201 0
	mr 3,31
	mr 4,5
	bl _ZN11idHashIndex11ResizeIndexEi
	.loc 17 203 0
	lwz 0,20(31)
	.loc 17 201 0
	lwz 9,4(31)
.LVL829:
	.loc 17 203 0
	and 27,27,0
.LVL830:
	.loc 17 204 0
	lwz 11,12(31)
	slwi 27,27,2
.LVL831:
	slwi 0,28,2
	lwzx 9,9,27
	stwx 9,11,0
	.loc 17 205 0
	lwz 9,4(31)
	stwx 28,9,27
	b .L525
.LVL832:
.L567:
.LBE2970:
.LBE2976:
.LBB2977:
.LBB2964:
.LBB2951:
.LBB2940:
	.loc 5 662 0
	lwz 11,8(28)
	cmpwi 7,11,0
	bne- 7,.L537
	.loc 5 663 0
	li 11,16
	stw 11,8(28)
.L537:
	.loc 5 665 0
	add 10,9,11
.LVL833:
	.loc 5 666 0
	divw 10,10,11
.LVL834:
.LBB2941:
.LBB2942:
	.loc 5 375 0
	mullw. 11,10,11
.LVL835:
	ble- 0,.L570
	.loc 5 380 0
	cmpw 7,9,11
	beq- 7,.L566
.LVL836:
	.loc 5 387 0
	cmpw 7,0,11
	.loc 5 386 0
	stw 11,4(28)
	.loc 5 387 0
	ble- 7,.L540
	.loc 5 388 0
	stw 11,4(29)
.L540:
	.loc 5 392 0
	slwi 3,11,2
	bl _Znaj
.LVL837:
	stw 3,12(28)
.LVL838:
	.loc 5 393 0
	lwz 0,4(29)
	cmpwi 7,0,0
	ble- 7,.L541
	.loc 4 1812 0
	addi 11,25,-4
.LBE2942:
.LBE2941:
.LBE2940:
.LBE2951:
.LBB2952:
.LBB2953:
	.loc 5 393 0
	li 9,0
.LVL839:
.L542:
.LBE2953:
.LBE2952:
.LBB2958:
.LBB2949:
.LBB2947:
.LBB2945:
	.loc 5 394 0
	lwzu 8,4(11)
	slwi 0,9,2
	lwz 10,12(28)
	.loc 5 393 0
	addi 9,9,1
.LVL840:
	.loc 5 394 0
	stwx 8,10,0
	.loc 5 393 0
	lwz 0,0(28)
	cmpw 7,9,0
	blt+ 7,.L542
.LVL841:
.L541:
	.loc 5 398 0
	cmpwi 7,25,0
	beq- 7,.L571
	.loc 5 399 0
	mr 3,25
	bl _ZdaPv
	lwz 25,12(28)
.LVL842:
.L566:
	lwz 0,4(29)
	b .L536
.LVL843:
.L548:
.LBE2945:
.LBE2947:
.LBE2949:
.LBE2958:
.LBE2964:
.LBE2977:
	.loc 4 1841 0
	li 30,0
	b .L525
.LVL844:
.L568:
.LBB2978:
.LBB2971:
	.loc 17 198 0
	cmpw 7,28,0
	lwz 4,4(26)
	blt- 7,.L572
.L544:
	mr 3,31
	bl _ZN11idHashIndex8AllocateEii
	lwz 9,4(31)
	b .L545
.L572:
	mr 5,0
	b .L544
.LVL845:
.L560:
.LBE2971:
.LBE2978:
.LBB2979:
.LBB2965:
	.loc 5 656 0
	lwz 3,8(28)
.LVL846:
.LBB2959:
.LBB2956:
	.loc 5 375 0
	cmpwi 7,3,0
	ble- 7,.L573
	.loc 5 380 0
	lwz 9,4(28)
	cmpw 7,3,9
	beq- 7,.L565
.LVL847:
	.loc 5 386 0
	stw 3,4(28)
	.loc 5 387 0
	lwz 0,4(29)
	cmpw 7,3,0
	bge- 7,.L534
	.loc 5 388 0
	stw 3,4(29)
.L534:
	.loc 5 392 0
	slwi 3,3,2
	bl _Znaj
.LVL848:
	.loc 5 393 0
	li 9,0
	.loc 5 392 0
	stw 3,12(28)
.LVL849:
	.loc 5 393 0
	li 11,0
	lwz 0,4(29)
	cmpwi 7,0,0
	ble- 7,.L574
.LVL850:
.L535:
	.loc 5 394 0
	lwz 0,0(9)
	.loc 5 393 0
	addi 11,11,1
.LVL851:
	.loc 5 394 0
	lwz 10,12(28)
	stwx 0,10,9
	.loc 5 393 0
	addi 9,9,4
	lwz 0,0(28)
	cmpw 7,11,0
	blt+ 7,.L535
	lwz 25,12(28)
	lwz 9,4(28)
.LVL852:
.L565:
	lwz 0,4(29)
	b .L532
.LVL853:
.L570:
.LBE2956:
.LBE2959:
.LBB2960:
.LBB2950:
.LBB2948:
.LBB2946:
.LBB2943:
.LBB2944:
	.loc 5 193 0
	cmpwi 7,25,0
	beq- 7,.L539
	.loc 5 194 0
	mr 3,25
	bl _ZdaPv
.LVL854:
.L539:
	.loc 5 197 0
	li 0,0
	stw 0,12(28)
	.loc 5 198 0
	stw 0,4(29)
	.loc 5 199 0
	stw 0,4(28)
	lwz 25,12(28)
	lwz 0,4(29)
	b .L536
.LVL855:
.L571:
	lwz 25,12(28)
.LVL856:
	lwz 0,4(29)
	b .L536
.LVL857:
.L574:
	mr 25,3
	lwz 9,4(28)
	b .L532
.LVL858:
.L573:
.LBE2944:
.LBE2943:
.LBE2946:
.LBE2948:
.LBE2950:
.LBE2960:
.LBB2961:
.LBB2957:
.LBB2954:
.LBB2955:
	.loc 5 197 0
	stw 25,12(28)
	li 9,0
	.loc 5 198 0
	stw 25,4(29)
	.loc 5 199 0
	stw 25,4(28)
	lwz 25,12(28)
	lwz 0,4(29)
	b .L532
.LVL859:
.L550:
	mr 31,3
.LVL860:
.LBE2955:
.LBE2954:
.LBE2957:
.LBE2961:
.LBE2965:
.LBE2979:
	.loc 4 1844 0
	mr 3,30
	bl _ZN11idDeclLocaldlEPv
	mr 3,31
	bl _Unwind_Resume
.LEHE38:
.LBE2982:
	.cfi_endproc
.LFE2619:
	.section	.gcc_except_table
.LLSDA2619:
	.byte	0xff
	.byte	0xff
	.byte	0x1
	.uleb128 .LLSDACSE2619-.LLSDACSB2619
.LLSDACSB2619:
	.uleb128 .LEHB36-.LFB2619
	.uleb128 .LEHE36-.LEHB36
	.uleb128 0
	.uleb128 0
	.uleb128 .LEHB37-.LFB2619
	.uleb128 .LEHE37-.LEHB37
	.uleb128 .L550-.LFB2619
	.uleb128 0
	.uleb128 .LEHB38-.LFB2619
	.uleb128 .LEHE38-.LEHB38
	.uleb128 0
	.uleb128 0
.LLSDACSE2619:
	.section	".text"
	.size	_ZN18idDeclManagerLocal22FindTypeWithoutParsingE10declType_tPKcb, .-_ZN18idDeclManagerLocal22FindTypeWithoutParsingE10declType_tPKcb
	.align 2
	.globl _ZN18idDeclManagerLocal9PrintTypeERK9idCmdArgs10declType_t
	.type	_ZN18idDeclManagerLocal9PrintTypeERK9idCmdArgs10declType_t, @function
_ZN18idDeclManagerLocal9PrintTypeERK9idCmdArgs10declType_t:
.LFB2606:
	.loc 4 1402 0
	.cfi_startproc
.LVL861:
	mflr 0
	stwu 1,-32(1)
.LCFI260:
	.cfi_def_cfa_offset 32
	.cfi_register 65, 0
	stw 27,12(1)
	mr 27,3
	.cfi_offset 27, -20
	stw 28,16(1)
	mr 28,5
	.cfi_offset 28, -16
	stw 29,20(1)
	mr 29,4
	.cfi_offset 29, -12
	stw 31,28(1)
	mr 31,1
	.cfi_offset 31, -4
.LCFI261:
	.cfi_def_cfa_register 31
	stw 0,36(1)
	stw 30,24(1)
.LBB2983:
	.loc 4 1404 0
	lwz 0,0(4)
	.cfi_offset 30, -8
	.cfi_offset 65, 4
	cmpwi 7,0,1
	ble- 7,.L590
.LVL862:
	.loc 4 1410 0
	lwz 5,8(4)
.LVL863:
	li 6,0
	mr 4,28
.LVL864:
	bl _ZN18idDeclManagerLocal22FindTypeWithoutParsingE10declType_tPKcb
.LVL865:
	.loc 4 1411 0
	mr. 30,3
	beq- 0,.L591
	.loc 4 1417 0
	lis 29,common@ha
.LVL866:
	lwz 9,16(27)
	lwz 3,common@l(29)
.LVL867:
	slwi 28,28,2
.LVL868:
	.loc 4 2449 0
	lwzx 9,9,28
	.loc 4 1417 0
	lis 4,.LC122@ha
	lwz 11,0(3)
	la 4,.LC122@l(4)
	lwz 5,4(9)
	.loc 4 1419 0
	lis 28,.LC124@ha
	.loc 4 1417 0
	lwz 0,68(11)
	.loc 4 1419 0
	la 28,.LC124@l(28)
	.loc 4 1417 0
	lwz 6,12(30)
	mtctr 0
	crxor 6,6,6
	bctrl
	.loc 4 1418 0
	lwz 3,common@l(29)
	.loc 4 2449 0
	lwz 9,56(30)
	.loc 4 1418 0
	lis 4,.LC123@ha
	lwz 11,0(3)
	la 4,.LC123@l(4)
	lwz 5,4(9)
	lwz 0,68(11)
	lwz 6,68(30)
	mtctr 0
	crxor 6,6,6
	bctrl
	.loc 4 1419 0
	lwz 3,common@l(29)
	mr 4,28
	lwz 9,0(3)
	lwz 0,68(9)
	mtctr 0
	crxor 6,6,6
	bctrl
.LBB2984:
	.loc 4 1420 0
	lwz 9,48(30)
	cmpwi 7,9,0
	ble- 7,.L580
.LBB2985:
	.loc 4 1421 0
	addi 9,9,31
	lwz 0,0(1)
	rlwinm 9,9,0,0,27
	.loc 4 1422 0
	mr 3,30
	.loc 4 1421 0
	neg 9,9
	stwux 0,1,9
	.loc 4 1422 0
	lwz 9,0(30)
	.loc 4 1421 0
	addi 27,1,23
.LVL869:
	rlwinm 27,27,0,0,27
.LVL870:
	.loc 4 1422 0
	lwz 0,52(9)
	mr 4,27
	mtctr 0
	bctrl
	.loc 4 1423 0
	lwz 3,common@l(29)
	lis 4,.LC13@ha
	mr 5,27
	lwz 9,0(3)
	la 4,.LC13@l(4)
	lwz 0,68(9)
	mtctr 0
	crxor 6,6,6
	bctrl
.LBE2985:
.LBE2984:
	.loc 4 1427 0
	lwz 3,common@l(29)
	mr 4,28
	lis 28,common@ha
	lwz 9,0(3)
	lwz 0,68(9)
	mtctr 0
	crxor 6,6,6
	bctrl
	.loc 4 1428 0
	lwz 0,80(30)
	cmpwi 7,0,1
	beq- 7,.L584
.LVL871:
.L594:
	cmpwi 7,0,2
	beq- 7,.L585
	cmpwi 7,0,0
	beq- 7,.L592
.L582:
	.loc 4 1440 0
	lbz 0,90(30)
	cmpwi 7,0,0
	bne- 7,.L593
.L586:
	.loc 4 1442 0
	lbz 0,89(30)
	.loc 4 1443 0
	lwz 3,common@l(29)
	.loc 4 1442 0
	cmpwi 7,0,0
	.loc 4 1443 0
	lwz 9,0(3)
	lwz 0,68(9)
	.loc 4 1442 0
	beq- 7,.L588
	.loc 4 1443 0
	lis 4,.LC130@ha
	mtctr 0
	la 4,.LC130@l(4)
	crxor 6,6,6
	bctrl
.L587:
	.loc 4 1449 0
	lwz 3,4(30)
	cmpwi 7,3,0
	beq- 7,.L575
	.loc 4 1450 0
	lwz 9,0(3)
	lwz 0,32(9)
	mtctr 0
	bctrl
.LBE2983:
	.loc 4 1452 0
	addi 11,31,32
	lwz 0,4(11)
	lwz 27,-20(11)
	mtlr 0
	lwz 28,-16(11)
	lwz 29,-12(11)
	lwz 30,-8(11)
.LVL872:
	lwz 31,-4(11)
	.cfi_remember_state
.LCFI262:
	.cfi_def_cfa 11, 0
	mr 1,11
	.cfi_restore 27
	.cfi_restore 28
	.cfi_restore 29
	.cfi_restore 30
	.cfi_restore 31
.LCFI263:
	.cfi_def_cfa_register 1
	blr
.LVL873:
.L591:
.LCFI264:
	.cfi_restore_state
.LBB2995:
.LBB2986:
.LBB2987:
	.loc 8 50 0
	lwz 0,0(29)
.LBE2987:
.LBE2986:
	.loc 4 1412 0
	lis 9,common@ha
	lwz 3,common@l(9)
.LVL874:
	slwi 28,28,2
.LVL875:
	lwz 9,16(27)
.LBB2991:
.LBB2988:
	.loc 8 50 0
	cmpwi 7,0,1
.LBE2988:
.LBE2991:
	.loc 4 1412 0
	lwz 11,0(3)
	.loc 4 2449 0
	lwzx 9,9,28
	.loc 4 1412 0
	lwz 0,68(11)
	.loc 4 2449 0
	lwz 5,4(9)
.LVL876:
.LBB2992:
.LBB2989:
	.loc 8 50 0
	ble- 7,.L589
	lwz 6,8(29)
.L579:
.LBE2989:
.LBE2992:
	.loc 4 1412 0
	lis 4,.LC121@ha
	mtctr 0
	la 4,.LC121@l(4)
	crxor 6,6,6
	bctrl
.LVL877:
.L575:
.LBE2995:
	.loc 4 1452 0
	addi 11,31,32
	lwz 0,4(11)
	lwz 27,-20(11)
	mtlr 0
	lwz 28,-16(11)
	lwz 29,-12(11)
	lwz 30,-8(11)
	lwz 31,-4(11)
	.cfi_remember_state
.LCFI265:
	.cfi_def_cfa 11, 0
	mr 1,11
.LCFI266:
	.cfi_def_cfa_register 1
	.cfi_restore 31
	.cfi_restore 30
	.cfi_restore 29
	.cfi_restore 28
	.cfi_restore 27
	blr
.LVL878:
.L588:
.LCFI267:
	.cfi_restore_state
.LBB2996:
	.loc 4 1445 0
	lis 4,.LC131@ha
	mtctr 0
	la 4,.LC131@l(4)
	crxor 6,6,6
	bctrl
	b .L587
.LVL879:
.L580:
.LBB2993:
	.loc 4 1425 0
	lwz 3,common@l(29)
	lis 4,.LC125@ha
	la 4,.LC125@l(4)
	lwz 9,0(3)
	lwz 0,68(9)
	mtctr 0
	crxor 6,6,6
	bctrl
.LBE2993:
	.loc 4 1427 0
	lwz 3,common@l(29)
	mr 4,28
	lis 28,common@ha
	lwz 9,0(3)
	lwz 0,68(9)
	mtctr 0
	crxor 6,6,6
	bctrl
	.loc 4 1428 0
	lwz 0,80(30)
	cmpwi 7,0,1
	bne+ 7,.L594
.LVL880:
.L584:
	.loc 4 1433 0
	lwz 3,common@l(28)
	lis 4,.LC127@ha
	la 4,.LC127@l(4)
	lwz 9,0(3)
	lwz 0,68(9)
	mtctr 0
	crxor 6,6,6
	bctrl
	.loc 4 1440 0
	lbz 0,90(30)
	cmpwi 7,0,0
	beq+ 7,.L586
.L593:
	.loc 4 1441 0
	lwz 3,common@l(29)
	lis 4,.LC129@ha
	la 4,.LC129@l(4)
	lwz 9,0(3)
	lwz 0,68(9)
	mtctr 0
	crxor 6,6,6
	bctrl
	b .L587
.L592:
	.loc 4 1430 0
	lwz 3,common@l(28)
	lis 4,.LC126@ha
	la 4,.LC126@l(4)
	lwz 9,0(3)
	lwz 0,68(9)
	mtctr 0
	crxor 6,6,6
	bctrl
	.loc 4 1431 0
	b .L582
.L585:
	.loc 4 1436 0
	lwz 3,common@l(28)
	lis 4,.LC128@ha
	la 4,.LC128@l(4)
	lwz 9,0(3)
	lwz 0,68(9)
	mtctr 0
	crxor 6,6,6
	bctrl
	.loc 4 1437 0
	b .L582
.LVL881:
.L590:
	.loc 4 1405 0
	lis 9,common@ha
	lis 4,.LC120@ha
.LVL882:
	lwz 3,common@l(9)
.LVL883:
	la 4,.LC120@l(4)
	lwz 9,0(3)
	lwz 0,68(9)
	mtctr 0
	crxor 6,6,6
	bctrl
.LVL884:
	.loc 4 1406 0
	b .L575
.LVL885:
.L589:
.LBB2994:
.LBB2990:
	.loc 8 50 0
	lis 6,.LC14@ha
	la 6,.LC14@l(6)
	b .L579
.LBE2990:
.LBE2994:
.LBE2996:
	.cfi_endproc
.LFE2606:
	.size	_ZN18idDeclManagerLocal9PrintTypeERK9idCmdArgs10declType_t, .-_ZN18idDeclManagerLocal9PrintTypeERK9idCmdArgs10declType_t
	.align 2
	.globl _ZN18idDeclManagerLocal22FindDeclWithoutParsingE10declType_tPKcb
	.type	_ZN18idDeclManagerLocal22FindDeclWithoutParsingE10declType_tPKcb, @function
_ZN18idDeclManagerLocal22FindDeclWithoutParsingE10declType_tPKcb:
.LFB2601:
	.loc 4 1263 0
	.cfi_startproc
.LVL886:
	mflr 0
	stwu 1,-8(1)
.LCFI268:
	.cfi_def_cfa_offset 8
	.cfi_register 65, 0
	stw 0,12(1)
.LBB2997:
	.loc 4 1266 0
	.cfi_offset 65, 4
	bl _ZN18idDeclManagerLocal22FindTypeWithoutParsingE10declType_tPKcb
.LVL887:
	.loc 4 1267 0
	mr. 9,3
	.loc 4 1270 0
	li 3,0
.LVL888:
	.loc 4 1267 0
	beq- 0,.L596
	.loc 4 1268 0
	lwz 3,4(9)
.L596:
.LBE2997:
	.loc 4 1271 0
	lwz 0,12(1)
	addi 1,1,8
.LCFI269:
	.cfi_def_cfa_offset 0
	mtlr 0
	blr
	.cfi_endproc
.LFE2601:
	.size	_ZN18idDeclManagerLocal22FindDeclWithoutParsingE10declType_tPKcb, .-_ZN18idDeclManagerLocal22FindDeclWithoutParsingE10declType_tPKcb
	.align 2
	.globl _ZN11idDeclLocalnaEj
	.type	_ZN11idDeclLocalnaEj, @function
_ZN11idDeclLocalnaEj:
.LFB2628:
	.loc 4 1923 0
	.cfi_startproc
	.cfi_personality 0,__gxx_personality_v0
	.cfi_lsda 0,.LLSDA2628
.LVL889:
	mflr 0
	stwu 1,-8(1)
.LCFI270:
	.cfi_def_cfa_offset 8
	.cfi_register 65, 0
	stw 0,12(1)
.LEHB39:
.LBB2998:
	.loc 4 1924 0
	.cfi_offset 65, 4
	bl _Z11Mem_Alloc16i
.LVL890:
	.loc 4 1925 0
	cmpwi 7,3,0
	beq- 7,.L603
.LBE2998:
	.loc 4 1929 0
	lwz 0,12(1)
	addi 1,1,8
	.cfi_remember_state
.LCFI271:
	.cfi_def_cfa_offset 0
	mtlr 0
	blr
.L603:
.LCFI272:
	.cfi_restore_state
.LBB3003:
	.loc 4 1926 0
	li 3,4
.LVL891:
	bl __cxa_allocate_exception
.LVL892:
.LBB2999:
.LBB3000:
	.loc 16 59 0
	lis 9,_ZTVSt9bad_alloc+8@ha
	la 0,_ZTVSt9bad_alloc+8@l(9)
.LBE3000:
.LBE2999:
	.loc 4 1926 0
	lis 4,_ZTISt9bad_alloc@ha
	lis 5,_ZNSt9bad_allocD1Ev@ha
.LBB3002:
.LBB3001:
	.loc 16 59 0
	stw 0,0(3)
.LBE3001:
.LBE3002:
	.loc 4 1926 0
	la 4,_ZTISt9bad_alloc@l(4)
	la 5,_ZNSt9bad_allocD1Ev@l(5)
	bl __cxa_throw
.LEHE39:
.LVL893:
.L602:
	.loc 4 1928 0
	cmpwi 7,4,-1
	beq- 7,.L601
.LEHB40:
	bl _Unwind_Resume
.L601:
.LBE3003:
	.loc 4 1923 0
	bl __cxa_call_unexpected
.LEHE40:
	.cfi_endproc
.LFE2628:
	.section	.gcc_except_table
	.align 2
.LLSDA2628:
	.byte	0xff
	.byte	0
	.uleb128 .LLSDATT2628-.LLSDATTD2628
.LLSDATTD2628:
	.byte	0x1
	.uleb128 .LLSDACSE2628-.LLSDACSB2628
.LLSDACSB2628:
	.uleb128 .LEHB39-.LFB2628
	.uleb128 .LEHE39-.LEHB39
	.uleb128 .L602-.LFB2628
	.uleb128 0x1
	.uleb128 .LEHB40-.LFB2628
	.uleb128 .LEHE40-.LEHB40
	.uleb128 0
	.uleb128 0
.LLSDACSE2628:
	.byte	0x7f
	.byte	0
	.align 2
	.long	_ZTISt9bad_alloc
.LLSDATT2628:
	.byte	0x1
	.byte	0
	.section	".text"
	.size	_ZN11idDeclLocalnaEj, .-_ZN11idDeclLocalnaEj
	.align 2
	.globl _ZN11idDeclLocaldaEPv
	.type	_ZN11idDeclLocaldaEPv, @function
_ZN11idDeclLocaldaEPv:
.LFB2629:
	.loc 4 1931 0
	.cfi_startproc
	.cfi_personality 0,__gxx_personality_v0
	.cfi_lsda 0,.LLSDA2629
.LVL894:
	mflr 0
	stwu 1,-8(1)
.LCFI273:
	.cfi_def_cfa_offset 8
	.cfi_register 65, 0
	stw 0,12(1)
	.loc 4 1932 0
	lis 0,0x8fff
	.cfi_offset 65, 4
	ori 0,0,65535
	cmplw 7,3,0
	ble- 7,.L605
.LEHB41:
	.loc 4 1933 0
	bl _Z10Mem_Free16Pv
.LEHE41:
.LVL895:
	.loc 4 1937 0
	lwz 0,12(1)
	addi 1,1,8
	.cfi_remember_state
.LCFI274:
	.cfi_def_cfa_offset 0
	mtlr 0
	blr
.LVL896:
.L605:
.LCFI275:
	.cfi_restore_state
	.loc 4 1935 0
	bl free
.LVL897:
	.loc 4 1937 0
	lwz 0,12(1)
	addi 1,1,8
	.cfi_remember_state
.LCFI276:
	.cfi_def_cfa_offset 0
	mtlr 0
	blr
.L609:
.LCFI277:
	.cfi_restore_state
	cmpwi 7,4,-1
	beq- 7,.L608
.LEHB42:
	bl _Unwind_Resume
.L608:
	.loc 4 1931 0
	bl __cxa_call_unexpected
.LEHE42:
	.cfi_endproc
.LFE2629:
	.section	.gcc_except_table
	.align 2
.LLSDA2629:
	.byte	0xff
	.byte	0
	.uleb128 .LLSDATT2629-.LLSDATTD2629
.LLSDATTD2629:
	.byte	0x1
	.uleb128 .LLSDACSE2629-.LLSDACSB2629
.LLSDACSB2629:
	.uleb128 .LEHB41-.LFB2629
	.uleb128 .LEHE41-.LEHB41
	.uleb128 .L609-.LFB2629
	.uleb128 0x1
	.uleb128 .LEHB42-.LFB2629
	.uleb128 .LEHE42-.LEHB42
	.uleb128 0
	.uleb128 0
.LLSDACSE2629:
	.byte	0x7f
	.byte	0
	.align 2
.LLSDATT2629:
	.byte	0
	.section	".text"
	.size	_ZN11idDeclLocaldaEPv, .-_ZN11idDeclLocaldaEPv
	.align 2
	.globl _ZN11idDeclLocal12SetTextLocalEPKci
	.type	_ZN11idDeclLocal12SetTextLocalEPKci, @function
_ZN11idDeclLocal12SetTextLocalEPKci:
.LFB2644:
	.loc 4 2104 0
	.cfi_startproc
.LVL898:
	mflr 0
	stwu 1,-1048(1)
.LCFI278:
	.cfi_def_cfa_offset 1048
	.cfi_register 65, 0
	stw 28,1032(1)
	mr 28,4
	.cfi_offset 28, -16
	stw 0,1052(1)
.LBB3004:
	.loc 4 2109 0
	lis 4,.LC113@ha
.LVL899:
.LBE3004:
	.loc 4 2104 0
	stw 29,1036(1)
	mr 29,5
	.cfi_offset 29, -12
	.cfi_offset 65, 4
	stw 30,1040(1)
.LBB3005:
	.loc 4 2109 0
	la 4,.LC113@l(4)
.LBE3005:
	.loc 4 2104 0
	stw 31,1044(1)
	mr 31,1
	.cfi_offset 31, -4
	.cfi_offset 30, -8
.LCFI279:
	.cfi_def_cfa_register 31
	.loc 4 2104 0
	mr 30,3
.LBB3006:
	.loc 4 2109 0
	lwz 5,12(3)
.LVL900:
	addi 3,31,8
.LVL901:
	crxor 6,6,6
	bl sprintf
	.loc 4 2111 0
	mr 4,29
	mr 3,28
	bl _Z17MD5_BlockChecksumPKvi
	.loc 4 2120 0
	lis 9,.LANCHOR0+1588@ha
	lwz 6,.LANCHOR0+1588@l(9)
	.loc 4 2122 0
	mr 4,29
	.loc 4 2121 0
	lwz 9,0(1)
	.loc 4 2120 0
	addi 6,6,7
	.loc 4 2111 0
	stw 3,72(30)
.LVL902:
	.loc 4 2120 0
	srawi 6,6,3
	.loc 4 2122 0
	mr 3,28
	.loc 4 2121 0
	mullw 6,29,6
	addi 0,6,30
	rlwinm 0,0,0,0,27
	neg 0,0
	stwux 9,1,0
	addi 28,1,23
.LVL903:
	rlwinm 28,28,0,0,27
.LVL904:
	.loc 4 2122 0
	mr 5,28
	bl _Z19HuffmanCompressTextPKciPhi
.LVL905:
	.loc 4 2126 0
	lis 9,fileSystem@ha
	.loc 4 2122 0
	stw 3,52(30)
	mr 6,3
	.loc 4 2126 0
	lwz 3,fileSystem@l(9)
	lis 7,.LC132@ha
	addi 4,31,8
	mr 5,28
	lwz 9,0(3)
	la 7,.LC132@l(7)
	lwz 0,104(9)
	mtctr 0
	bctrl
	.loc 4 2140 0
	li 0,0
	.loc 4 2137 0
	stw 29,48(30)
.LBE3006:
	.loc 4 2142 0
	addi 11,31,1048
.LBB3007:
	.loc 4 2140 0
	stw 0,40(30)
	.loc 4 2141 0
	stw 0,44(30)
.LBE3007:
	.loc 4 2142 0
	lwz 0,4(11)
	lwz 28,-16(11)
.LVL906:
	mtlr 0
	lwz 29,-12(11)
.LVL907:
	lwz 30,-8(11)
.LVL908:
	lwz 31,-4(11)
.LCFI280:
	.cfi_def_cfa 11, 0
	mr 1,11
.LCFI281:
	.cfi_def_cfa_register 1
	.cfi_restore 31
	.cfi_restore 30
	.cfi_restore 29
	.cfi_restore 28
	blr
	.cfi_endproc
.LFE2644:
	.size	_ZN11idDeclLocal12SetTextLocalEPKci, .-_ZN11idDeclLocal12SetTextLocalEPKci
	.align 2
	.globl _ZN11idDeclLocal7SetTextEPKc
	.type	_ZN11idDeclLocal7SetTextEPKc, @function
_ZN11idDeclLocal7SetTextEPKc:
.LFB2643:
	.loc 4 2095 0
	.cfi_startproc
.LVL909:
.LBB3008:
.LBB3009:
	.loc 6 952 0
	lbz 0,0(4)
	li 5,0
	cmpwi 7,0,0
	beq- 7,.L612
.LVL910:
.L613:
	addi 5,5,1
.LVL911:
	lbzx 0,4,5
	cmpwi 7,0,0
	bne+ 7,.L613
.LVL912:
.L612:
.LBE3009:
.LBE3008:
	.loc 4 2097 0
	.loc 4 2096 0
	b _ZN11idDeclLocal12SetTextLocalEPKci
.LVL913:
.LVL914:
.LVL915:
	.cfi_endproc
.LFE2643:
	.size	_ZN11idDeclLocal7SetTextEPKc, .-_ZN11idDeclLocal7SetTextEPKc
	.align 2
	.globl _ZN11idDeclLocal12AllocateSelfEv
	.type	_ZN11idDeclLocal12AllocateSelfEv, @function
_ZN11idDeclLocal12AllocateSelfEv:
.LFB2655:
	.loc 4 2357 0
	.cfi_startproc
.LVL916:
	mflr 0
	stwu 1,-16(1)
.LCFI282:
	.cfi_def_cfa_offset 16
	.cfi_register 65, 0
	stw 31,12(1)
	mr 31,3
	.cfi_offset 31, -4
	stw 0,20(1)
	.loc 4 2358 0
	lwz 0,4(3)
	.cfi_offset 65, 4
	cmpwi 7,0,0
	beq- 7,.L618
	.loc 4 2362 0
	lwz 0,20(1)
	lwz 31,12(1)
	mtlr 0
	addi 1,1,16
	.cfi_remember_state
.LCFI283:
	.cfi_def_cfa_offset 0
	.cfi_restore 31
	blr
.L618:
.LCFI284:
	.cfi_restore_state
.LVL917:
.LBB3016:
.LBB3017:
.LBB3018:
.LBB3019:
.LBB3020:
.LBB3021:
	.loc 5 573 0
	lwz 0,76(3)
.LBE3021:
.LBE3020:
.LBE3019:
	.loc 4 2359 0
	lis 9,.LANCHOR0+24@ha
.LBB3022:
	.loc 4 239 0
	lwz 9,.LANCHOR0+24@l(9)
	slwi 0,0,2
.LBE3022:
.LBE3018:
	.loc 4 2359 0
	lwzx 9,9,0
	lwz 0,36(9)
	mtctr 0
	bctrl
.LVL918:
	stw 3,4(31)
	.loc 4 2360 0
	stw 31,4(3)
.LBE3017:
.LBE3016:
	.loc 4 2362 0
	lwz 0,20(1)
	lwz 31,12(1)
.LVL919:
	mtlr 0
	addi 1,1,16
	.cfi_restore 31
.LCFI285:
	.cfi_def_cfa_offset 0
	blr
	.cfi_endproc
.LFE2655:
	.size	_ZN11idDeclLocal12AllocateSelfEv, .-_ZN11idDeclLocal12AllocateSelfEv
	.align 2
	.globl _ZN11idDeclLocal11MakeDefaultEv
	.type	_ZN11idDeclLocal11MakeDefaultEv, @function
_ZN11idDeclLocal11MakeDefaultEv:
.LFB2647:
	.loc 4 2256 0
	.cfi_startproc
.LVL920:
	stwu 1,-24(1)
.LCFI286:
	.cfi_def_cfa_offset 24
	mflr 0
.LBB3023:
	.loc 4 2260 0
	lis 4,.LC133@ha
.LBE3023:
	.loc 4 2256 0
	stw 31,20(1)
.LBB3024:
	.loc 4 2260 0
	lis 31,.LANCHOR0@ha
	.cfi_offset 31, -4
	.cfi_register 65, 0
	la 31,.LANCHOR0@l(31)
	la 4,.LC133@l(4)
.LBE3024:
	.loc 4 2256 0
	stw 30,16(1)
	mr 30,3
	.cfi_offset 30, -8
.LBB3025:
	.loc 4 2260 0
	addi 3,31,8
.LVL921:
.LBE3025:
	.loc 4 2256 0
	stw 0,28(1)
	stw 29,12(1)
.LBB3026:
	.loc 4 2260 0
	.cfi_offset 29, -12
	.cfi_offset 65, 4
	crxor 6,6,6
	bl _ZN18idDeclManagerLocal10MediaPrintEPKcz
	.loc 4 2261 0
	li 0,1
	.loc 4 2263 0
	mr 3,30
	.loc 4 2261 0
	stw 0,80(30)
	.loc 4 2263 0
	bl _ZN11idDeclLocal12AllocateSelfEv
	.loc 4 2265 0
	lwz 3,4(30)
	lwz 9,0(3)
	lwz 0,12(9)
	mtctr 0
	bctrl
	.loc 4 2271 0
	lwz 9,10812(31)
	.loc 4 2265 0
	mr 29,3
.LVL922:
	.loc 4 2271 0
	addi 0,9,1
	cmpwi 7,0,100
	stw 0,10812(31)
	ble+ 7,.L620
	.loc 4 2272 0
	lis 9,common@ha
	lis 4,.LC134@ha
	lwz 3,common@l(9)
.LVL923:
	la 4,.LC134@l(4)
	mr 5,29
	lwz 9,0(3)
	lwz 0,100(9)
	mtctr 0
	crxor 6,6,6
	bctrl
.L620:
	.loc 4 2276 0
	lwz 3,4(30)
	lwz 9,0(3)
	lwz 0,20(9)
	mtctr 0
	bctrl
	.loc 4 2279 0
	lwz 30,4(30)
.LVL924:
	mr 3,29
	bl strlen
	lwz 9,0(30)
	mr 5,3
	mr 4,29
	lwz 0,16(9)
	mr 3,30
	mtctr 0
	bctrl
	.loc 4 2282 0
	lwz 9,10812(31)
	addi 0,9,-1
	stw 0,10812(31)
.LBE3026:
	.loc 4 2283 0
	lwz 0,28(1)
	lwz 29,12(1)
.LVL925:
	mtlr 0
	lwz 30,16(1)
	lwz 31,20(1)
	addi 1,1,24
.LCFI287:
	.cfi_def_cfa_offset 0
	.cfi_restore 31
	.cfi_restore 30
	.cfi_restore 29
	blr
	.cfi_endproc
.LFE2647:
	.size	_ZN11idDeclLocal11MakeDefaultEv, .-_ZN11idDeclLocal11MakeDefaultEv
	.align 2
	.globl _ZN11idDeclLocal10ParseLocalEv
	.type	_ZN11idDeclLocal10ParseLocalEv, @function
_ZN11idDeclLocal10ParseLocalEv:
.LFB2656:
	.loc 4 2369 0
	.cfi_startproc
.LVL926:
	stwu 1,-40(1)
.LCFI288:
	.cfi_def_cfa_offset 40
	mflr 0
	stw 30,32(1)
	mr 30,3
	.cfi_offset 30, -8
	.cfi_register 65, 0
	stw 31,36(1)
	mr 31,1
	.cfi_offset 31, -4
.LCFI289:
	.cfi_def_cfa_register 31
	stw 0,44(1)
	stw 27,20(1)
.LBB3027:
	.loc 4 2377 0
	lis 27,.LC135@ha
	.cfi_offset 27, -20
	.cfi_offset 65, 4
.LBE3027:
	.loc 4 2369 0
	stw 28,24(1)
.LBB3032:
	.loc 4 2377 0
	la 27,.LC135@l(27)
.LBE3032:
	.loc 4 2369 0
	stw 29,28(1)
.LBB3033:
	.loc 4 2377 0
	lis 29,.LANCHOR0@ha
	.cfi_offset 29, -12
	.cfi_offset 28, -16
.LBE3033:
	.loc 4 2369 0
	stw 25,12(1)
.LBB3034:
	.loc 4 2377 0
	la 29,.LANCHOR0@l(29)
.LBE3034:
	.loc 4 2369 0
	stw 26,16(1)
.LBB3035:
	.loc 4 2372 0
	.cfi_offset 26, -24
	.cfi_offset 25, -28
	bl _ZN11idDeclLocal12AllocateSelfEv
.LVL927:
	.loc 4 2375 0
	lwz 3,4(30)
	.loc 4 2377 0
	addi 28,29,8
	.loc 4 2375 0
	lwz 9,0(3)
	lwz 0,20(9)
	mtctr 0
	bctrl
.LVL928:
.LBB3028:
.LBB3029:
	.loc 5 589 0
	lwz 0,76(30)
.LBE3029:
.LBE3028:
	.loc 4 2377 0
	lwz 9,24(29)
	mr 3,28
	slwi 0,0,2
	lwz 6,12(30)
	.loc 4 2449 0
	lwzx 9,9,0
	.loc 4 2377 0
	mr 4,27
	.loc 4 2370 0
	li 28,0
	.loc 4 2377 0
	lwz 5,4(9)
	crxor 6,6,6
	bl _ZN18idDeclManagerLocal10MediaPrintEPKcz
.LVL929:
.LBB3030:
.LBB3031:
	.loc 5 589 0
	lwz 0,76(30)
.LBE3031:
.LBE3030:
	.loc 4 2378 0
	lwz 9,24(29)
	mr 3,27
	slwi 0,0,2
	lwz 5,12(30)
	.loc 4 2449 0
	lwzx 9,9,0
	.loc 4 2378 0
	lwz 4,4(9)
	crxor 6,6,6
	bl _Z10Sys_PrintfPKcz
.LVL930:
	.loc 4 2380 0
	lwz 0,48(30)
	cmpwi 7,0,0
	beq- 7,.L627
.LVL931:
.L622:
	.loc 4 2387 0
	lwz 9,1528(29)
	addi 0,9,1
	stw 0,1528(29)
	.loc 4 2390 0
	lwz 0,48(30)
	.loc 4 2391 0
	lwz 9,0(30)
	.loc 4 2390 0
	cmpwi 7,0,0
	beq- 7,.L628
	.loc 4 2396 0
	li 0,2
	.loc 4 2399 0
	mr 3,30
	.loc 4 2396 0
	stw 0,80(30)
	.loc 4 2399 0
	lwz 0,56(9)
	mtctr 0
	bctrl
	lwz 9,0(1)
	addi 0,3,31
	.loc 4 2400 0
	mr 3,30
	.loc 4 2399 0
	rlwinm 0,0,0,0,27
	neg 0,0
	stwux 9,1,0
	.loc 4 2400 0
	lwz 9,0(30)
	.loc 4 2399 0
	addi 26,1,23
	rlwinm 26,26,0,0,27
.LVL932:
	.loc 4 2400 0
	lwz 0,52(9)
	mr 4,26
	mtctr 0
	bctrl
	.loc 4 2401 0
	lwz 9,0(30)
	lwz 25,4(30)
	mr 3,30
	lwz 0,56(9)
	lwz 9,0(25)
	mtctr 0
	lwz 27,16(9)
	bctrl
	mr 4,26
	mr 5,3
	mtctr 27
	mr 3,25
	bctrl
	.loc 4 2404 0
	cmpwi 7,28,0
	bne- 7,.L629
.L625:
	.loc 4 2413 0
	lwz 9,1528(29)
.LBE3035:
	.loc 4 2414 0
	addi 11,31,40
.LBB3036:
	.loc 4 2413 0
	addi 0,9,-1
	stw 0,1528(29)
.LBE3036:
	.loc 4 2414 0
	lwz 0,4(11)
	lwz 25,-28(11)
	mtlr 0
	lwz 26,-24(11)
.LVL933:
	lwz 27,-20(11)
	lwz 28,-16(11)
.LVL934:
	lwz 29,-12(11)
	lwz 30,-8(11)
.LVL935:
	lwz 31,-4(11)
	.cfi_remember_state
.LCFI290:
	.cfi_def_cfa 11, 0
	mr 1,11
.LCFI291:
	.cfi_def_cfa_register 1
	.cfi_restore 31
	.cfi_restore 30
	.cfi_restore 29
	.cfi_restore 28
	.cfi_restore 27
	.cfi_restore 26
	.cfi_restore 25
	blr
.LVL936:
.L629:
.LCFI292:
	.cfi_restore_state
.LBB3037:
	.loc 4 2410 0
	li 0,0
	stw 0,48(30)
	b .L625
.LVL937:
.L628:
	.loc 4 2391 0
	lwz 0,72(9)
	mr 3,30
	mtctr 0
	bctrl
	.loc 4 2392 0
	lwz 9,1528(29)
.LBE3037:
	.loc 4 2414 0
	addi 11,31,40
.LBB3038:
	.loc 4 2392 0
	addi 0,9,-1
	stw 0,1528(29)
.LBE3038:
	.loc 4 2414 0
	lwz 0,4(11)
	lwz 25,-28(11)
	mtlr 0
	lwz 26,-24(11)
	lwz 27,-20(11)
	lwz 28,-16(11)
.LVL938:
	lwz 29,-12(11)
	lwz 30,-8(11)
.LVL939:
	lwz 31,-4(11)
	.cfi_remember_state
.LCFI293:
	.cfi_def_cfa 11, 0
	mr 1,11
	.cfi_restore 25
	.cfi_restore 26
	.cfi_restore 27
	.cfi_restore 28
	.cfi_restore 29
	.cfi_restore 30
	.cfi_restore 31
.LCFI294:
	.cfi_def_cfa_register 1
	blr
.LVL940:
.L627:
.LCFI295:
	.cfi_restore_state
.LBB3039:
	.loc 4 2383 0
	lwz 3,4(30)
	lwz 9,0(3)
	lwz 0,8(9)
	mtctr 0
	bctrl
	mr 28,3
.LVL941:
	b .L622
.LBE3039:
	.cfi_endproc
.LFE2656:
	.size	_ZN11idDeclLocal10ParseLocalEv, .-_ZN11idDeclLocal10ParseLocalEv
	.align 2
	.globl _ZN11idDeclLocal15EnsureNotPurgedEv
	.type	_ZN11idDeclLocal15EnsureNotPurgedEv, @function
_ZN11idDeclLocal15EnsureNotPurgedEv:
.LFB2636:
	.loc 4 1999 0
	.cfi_startproc
.LVL942:
	.loc 4 2000 0
	lwz 0,80(3)
	cmpwi 7,0,0
	bnelr+ 7
	.loc 4 2003 0
	.loc 4 2001 0
	b _ZN11idDeclLocal10ParseLocalEv
.LVL943:
	.cfi_endproc
.LFE2636:
	.size	_ZN11idDeclLocal15EnsureNotPurgedEv, .-_ZN11idDeclLocal15EnsureNotPurgedEv
	.align 2
	.globl _ZN18idDeclManagerLocal11DeclByIndexE10declType_tib
	.type	_ZN18idDeclManagerLocal11DeclByIndexE10declType_tib, @function
_ZN18idDeclManagerLocal11DeclByIndexE10declType_tib:
.LFB2604:
	.loc 4 1307 0
	.cfi_startproc
.LVL944:
	stwu 1,-24(1)
.LCFI296:
	.cfi_def_cfa_offset 24
	mflr 0
	stw 29,12(1)
.LBB3040:
	.loc 4 1310 0
	mr. 29,4
	.cfi_offset 29, -12
	.cfi_register 65, 0
.LBE3040:
	.loc 4 1307 0
	stw 28,8(1)
	mr 28,6
	.cfi_offset 28, -16
	stw 30,16(1)
	mr 30,5
	.cfi_offset 30, -8
	stw 31,20(1)
	mr 31,3
	.cfi_offset 31, -4
	stw 0,28(1)
.LBB3043:
	.loc 4 1310 0
	blt- 0,.L633
	.cfi_offset 65, 4
	.loc 4 1310 0 is_stmt 0 discriminator 2
	lwz 0,4(3)
	cmpw 7,29,0
	bge- 7,.L633
.LVL945:
	.loc 4 1310 0 discriminator 3
	lwz 9,16(3)
	slwi 0,29,2
	lwzx 0,9,0
	cmpwi 7,0,0
	beq- 7,.L633
.LVL946:
.L634:
	.loc 4 1313 0 is_stmt 1
	cmpwi 7,30,0
	addi 29,29,59
.LVL947:
	blt- 7,.L635
	.loc 4 1313 0 is_stmt 0 discriminator 2
	slwi 9,29,4
	.loc 4 2449 0 is_stmt 1 discriminator 2
	add 9,31,9
	.loc 4 1313 0 discriminator 2
	lwz 0,4(9)
	cmpw 7,30,0
	blt- 7,.L636
.L635:
	.loc 4 1314 0 discriminator 4
	lis 9,common@ha
	lis 4,.LC137@ha
	lwz 3,common@l(9)
	la 4,.LC137@l(4)
	lwz 9,0(3)
	lwz 0,96(9)
	mtctr 0
	crxor 6,6,6
	bctrl
.L636:
.LVL948:
	.loc 4 1316 0
	slwi 29,29,4
.LVL949:
	slwi 30,30,2
.LVL950:
.LBB3041:
.LBB3042:
	.loc 4 2449 0
	add 31,31,29
.LVL951:
.LBE3042:
.LBE3041:
	.loc 4 1316 0
	lwz 9,16(31)
	lwzx 31,9,30
.LVL952:
	.loc 4 1318 0
	mr 3,31
	bl _ZN11idDeclLocal12AllocateSelfEv
.LVL953:
	.loc 4 1320 0
	cmpwi 7,28,0
	beq- 7,.L637
	.loc 4 1320 0 is_stmt 0 discriminator 1
	lwz 0,80(31)
	cmpwi 7,0,0
	bne+ 7,.L637
	.loc 4 1321 0 is_stmt 1
	mr 3,31
	bl _ZN11idDeclLocal10ParseLocalEv
.L637:
.LBE3043:
	.loc 4 1325 0
	lwz 0,28(1)
	lwz 3,4(31)
	mtlr 0
	lwz 28,8(1)
	lwz 29,12(1)
	lwz 30,16(1)
	lwz 31,20(1)
.LVL954:
	addi 1,1,24
	.cfi_remember_state
.LCFI297:
	.cfi_def_cfa_offset 0
	.cfi_restore 31
	.cfi_restore 30
	.cfi_restore 29
	.cfi_restore 28
	blr
.LVL955:
.L633:
.LCFI298:
	.cfi_restore_state
.LBB3044:
	.loc 4 1311 0 discriminator 5
	lis 9,common@ha
	lis 4,.LC136@ha
.LVL956:
	lwz 3,common@l(9)
.LVL957:
	la 4,.LC136@l(4)
	mr 5,29
.LVL958:
	lwz 9,0(3)
	lwz 0,100(9)
	mtctr 0
	crxor 6,6,6
	bctrl
.LVL959:
	b .L634
.LBE3044:
	.cfi_endproc
.LFE2604:
	.size	_ZN18idDeclManagerLocal11DeclByIndexE10declType_tib, .-_ZN18idDeclManagerLocal11DeclByIndexE10declType_tib
	.align 2
	.globl _ZN18idDeclManagerLocal8FindTypeE10declType_tPKcbb
	.type	_ZN18idDeclManagerLocal8FindTypeE10declType_tPKcbb, @function
_ZN18idDeclManagerLocal8FindTypeE10declType_tPKcbb:
.LFB2600:
	.loc 4 1221 0
	.cfi_startproc
.LVL960:
.LBB3045:
	.loc 4 1228 0
	cmpwi 0,5,0
.LBE3045:
	.loc 4 1221 0
	mflr 0
	stwu 1,-32(1)
.LCFI299:
	.cfi_def_cfa_offset 32
	.cfi_register 65, 0
	stw 29,20(1)
	mr 29,7
	.cfi_offset 29, -12
	stw 30,24(1)
	mr 30,4
	.cfi_offset 30, -8
	stw 31,28(1)
	mr 31,3
	.cfi_offset 31, -4
	stw 0,36(1)
.LBB3048:
	.loc 4 1228 0
	beq- 0,.L641
	.cfi_offset 65, 4
	.loc 4 1228 0 is_stmt 0 discriminator 1
	lbz 0,0(5)
	cmpwi 7,0,0
	beq- 7,.L641
.LVL961:
.L642:
	.loc 4 1233 0 is_stmt 1
	mr 4,30
	mr 3,31
	bl _ZN18idDeclManagerLocal22FindTypeWithoutParsingE10declType_tPKcb
.LVL962:
	.loc 4 1235 0
	li 0,0
	.loc 4 1234 0
	mr. 30,3
.LVL963:
	beq- 0,.L643
	.loc 4 1238 0
	bl _ZN11idDeclLocal12AllocateSelfEv
.LVL964:
	.loc 4 1241 0
	lwz 0,80(30)
	cmpwi 7,0,0
	beq- 7,.L648
.L644:
	.loc 4 1246 0
	li 0,1
	stb 0,90(30)
	.loc 4 1247 0
	stb 0,89(30)
	.loc 4 1248 0
	lbz 0,1524(31)
	cmpwi 7,0,0
	beq- 7,.L645
	.loc 4 1249 0
	li 0,0
	stb 0,88(30)
.L645:
	.loc 4 1251 0
	cmpwi 7,29,0
	bne- 7,.L649
.L646:
	.loc 4 1255 0
	lwz 0,4(30)
.L643:
.LBE3048:
	.loc 4 1256 0
	mr 3,0
	lwz 0,36(1)
	lwz 29,20(1)
	mtlr 0
	lwz 30,24(1)
.LVL965:
	lwz 31,28(1)
.LVL966:
	addi 1,1,32
	.cfi_remember_state
.LCFI300:
	.cfi_def_cfa_offset 0
	.cfi_restore 31
	.cfi_restore 30
	.cfi_restore 29
	blr
.LVL967:
.L641:
.LCFI301:
	.cfi_restore_state
.LBB3049:
.LBB3046:
.LBB3047:
	.loc 4 239 0
	lwz 9,16(31)
	slwi 0,30,2
.LBE3047:
.LBE3046:
	.loc 4 1230 0
	lis 3,.LC139@ha
.LVL968:
	.loc 4 2449 0
	lwzx 9,9,0
	.loc 4 1230 0
	la 3,.LC139@l(3)
	lwz 4,4(9)
.LVL969:
	stw 6,8(1)
	crxor 6,6,6
	bl _Z10Sys_PrintfPKcz
.LVL970:
	.loc 4 1229 0
	lis 5,.LC138@ha
	la 5,.LC138@l(5)
	lwz 6,8(1)
	b .L642
.LVL971:
.L649:
	.loc 4 1252 0
	li 0,1
	stb 0,88(30)
	b .L646
.L648:
	.loc 4 1242 0
	mr 3,30
	bl _ZN11idDeclLocal10ParseLocalEv
	b .L644
.LBE3049:
	.cfi_endproc
.LFE2600:
	.size	_ZN18idDeclManagerLocal8FindTypeE10declType_tPKcbb, .-_ZN18idDeclManagerLocal8FindTypeE10declType_tPKcbb
	.align 2
	.globl _ZN18idDeclManagerLocal11TouchDecl_fERK9idCmdArgs
	.type	_ZN18idDeclManagerLocal11TouchDecl_fERK9idCmdArgs, @function
_ZN18idDeclManagerLocal11TouchDecl_fERK9idCmdArgs:
.LFB2618:
	.loc 4 1774 0
	.cfi_startproc
.LVL972:
	mflr 0
	stwu 1,-32(1)
.LCFI302:
	.cfi_def_cfa_offset 32
	.cfi_register 65, 0
	stw 29,20(1)
	mr 29,3
	.cfi_offset 29, -12
	stw 0,36(1)
	stw 27,12(1)
	stw 28,16(1)
	stw 30,24(1)
	stw 31,28(1)
.LBB3050:
.LBB3051:
	.loc 4 1777 0
	lwz 0,0(3)
	.cfi_offset 31, -4
	.cfi_offset 30, -8
	.cfi_offset 28, -16
	.cfi_offset 27, -20
	.cfi_offset 65, 4
	cmpwi 7,0,3
	beq- 7,.L674
.LBB3052:
	.loc 4 1778 0
	lis 29,common@ha
	lis 4,.LC140@ha
	lwz 3,common@l(29)
.LVL973:
	la 4,.LC140@l(4)
.LBB3053:
	.loc 4 1780 0
	lis 31,.LANCHOR0@ha
.LBE3053:
	.loc 4 1778 0
	lwz 9,0(3)
.LBB3054:
	.loc 4 1780 0
	la 31,.LANCHOR0@l(31)
	addi 31,31,8
.LBE3054:
	.loc 4 1778 0
	lwz 0,68(9)
	mtctr 0
	crxor 6,6,6
	bctrl
	.loc 4 1779 0
	lwz 3,common@l(29)
	lis 4,.LC141@ha
	lwz 9,0(3)
	la 4,.LC141@l(4)
	lwz 0,68(9)
	mtctr 0
	crxor 6,6,6
	bctrl
.LVL974:
.LBB3055:
	.loc 4 1780 0
	lwz 0,4(31)
	cmpwi 7,0,0
	ble- 7,.L654
	.loc 4 1782 0
	lis 28,.LC142@ha
	.loc 4 1780 0
	li 30,0
	.loc 4 1782 0
	la 28,.LC142@l(28)
.LVL975:
.L656:
	.loc 4 1781 0
	lwz 9,16(31)
	slwi 0,30,2
	.loc 4 1782 0
	mr 4,28
	.loc 4 1780 0
	addi 30,30,1
.LVL976:
	.loc 4 1781 0
	lwzx 9,9,0
	cmpwi 7,9,0
	beq- 7,.L655
	.loc 4 1782 0
	lwz 3,common@l(29)
	lwz 5,4(9)
	lwz 9,0(3)
	lwz 0,68(9)
	mtctr 0
	crxor 6,6,6
	bctrl
.L655:
.LVL977:
	.loc 4 1780 0
	lwz 0,4(31)
	cmpw 7,0,30
	bgt+ 7,.L656
.LVL978:
.L654:
.LBE3055:
	.loc 4 1785 0
	lwz 3,common@l(29)
	lis 4,.LC143@ha
	la 4,.LC143@l(4)
	lwz 9,0(3)
	lwz 0,68(9)
	mtctr 0
	crxor 6,6,6
	bctrl
.L650:
.LBE3052:
.LBE3051:
.LBE3050:
	.loc 4 1803 0
	lwz 0,36(1)
	lwz 27,12(1)
	mtlr 0
	lwz 28,16(1)
	lwz 29,20(1)
	lwz 30,24(1)
	lwz 31,28(1)
	addi 1,1,32
	.cfi_remember_state
.LCFI303:
	.cfi_def_cfa_offset 0
	.cfi_restore 31
	.cfi_restore 30
	.cfi_restore 29
	.cfi_restore 28
	.cfi_restore 27
	blr
.LVL979:
.L674:
.LCFI304:
	.cfi_restore_state
.LBB3086:
	.loc 4 1789 0 discriminator 1
	lis 31,.LANCHOR0@ha
	li 28,0
	la 31,.LANCHOR0@l(31)
.LBB3056:
.LBB3057:
	.loc 8 50 0 discriminator 1
	lis 27,.LC14@ha
.LBE3057:
.LBE3056:
	.loc 4 1789 0 discriminator 1
	addi 31,31,8
	lwz 9,4(31)
	cmpwi 7,9,0
	ble- 7,.L665
.LVL980:
.L671:
	.loc 4 1790 0
	lwz 9,16(31)
.LBB3061:
.LBB3062:
	.loc 4 1774 0
	slwi 30,28,2
.LBE3062:
.LBE3061:
.LBB3063:
.LBB3058:
	.loc 8 50 0
	cmpwi 6,0,1
.LBE3058:
.LBE3063:
	.loc 4 1790 0
	lwzx 9,9,30
	cmpwi 7,9,0
	beq- 7,.L658
.LVL981:
.LBB3064:
.LBB3059:
	.loc 8 50 0 discriminator 1
	ble- 6,.L667
	.loc 8 50 0 is_stmt 0
	lwz 4,8(29)
.L659:
.LVL982:
.LBE3059:
.LBE3064:
.LBB3065:
.LBB3066:
	.loc 6 690 0 is_stmt 1
	lwz 3,4(9)
	bl _ZN5idStr4IcmpEPKcS1_
.LVL983:
.LBE3066:
.LBE3065:
	.loc 4 1790 0
	cmpwi 7,3,0
	beq- 7,.L660
	lwz 0,0(29)
.LVL984:
.L658:
	.loc 4 1789 0
	lwz 9,4(31)
	addi 28,28,1
.LVL985:
	cmpw 7,9,28
	bgt+ 7,.L671
.LVL986:
.L665:
	.loc 4 1795 0
	lis 9,common@ha
.LBB3067:
.LBB3068:
	.loc 8 50 0
	cmpwi 7,0,1
.LBE3068:
.LBE3067:
	.loc 4 1795 0
	lwz 3,common@l(9)
	lwz 9,0(3)
	lwz 0,68(9)
.LVL987:
.LBB3071:
.LBB3069:
	.loc 8 50 0
	ble- 7,.L668
	lwz 5,8(29)
.L662:
.LBE3069:
.LBE3071:
	.loc 4 1795 0
	lis 4,.LC144@ha
	mtctr 0
	la 4,.LC144@l(4)
	crxor 6,6,6
	bctrl
.LBE3086:
	.loc 4 1803 0
	lwz 0,36(1)
	lwz 27,12(1)
	mtlr 0
	lwz 28,16(1)
	lwz 29,20(1)
.LVL988:
	lwz 30,24(1)
	lwz 31,28(1)
	addi 1,1,32
	.cfi_remember_state
	.cfi_restore 27
	.cfi_restore 28
	.cfi_restore 29
	.cfi_restore 30
	.cfi_restore 31
.LCFI305:
	.cfi_def_cfa_offset 0
	blr
.LVL989:
.L660:
.LCFI306:
	.cfi_restore_state
.LBB3087:
	.loc 4 1794 0
	lwz 0,4(31)
	cmpw 7,0,28
	lwz 0,0(29)
	ble- 7,.L665
.LVL990:
.LBB3072:
.LBB3073:
	.loc 8 50 0
	cmpwi 7,0,2
	ble- 7,.L669
	lwz 5,12(29)
.L663:
.LBE3073:
.LBE3072:
	.loc 4 1799 0
	mr 3,31
	mr 4,28
	li 6,0
	li 7,1
	bl _ZN18idDeclManagerLocal8FindTypeE10declType_tPKcbb
.LVL991:
	.loc 4 1800 0
	cmpwi 7,3,0
	bne+ 7,.L650
.LBB3075:
.LBB3076:
	.loc 8 50 0
	lwz 0,0(29)
.LBE3076:
.LBE3075:
	.loc 4 1801 0
	lis 9,common@ha
	lwz 3,common@l(9)
.LVL992:
.LBB3080:
.LBB3077:
	.loc 8 50 0
	cmpwi 7,0,2
.LBE3077:
.LBE3080:
	.loc 4 1801 0
	lwz 9,16(31)
	lwz 11,0(3)
	.loc 4 2449 0
	lwzx 9,9,30
	.loc 4 1801 0
	lwz 0,68(11)
	.loc 4 2449 0
	lwz 5,4(9)
.LVL993:
.LBB3081:
.LBB3078:
	.loc 8 50 0
	bgt- 7,.L675
	lis 6,.LC14@ha
	la 6,.LC14@l(6)
.L664:
.LBE3078:
.LBE3081:
	.loc 4 1801 0
	lis 4,.LC145@ha
	mtctr 0
	la 4,.LC145@l(4)
	crxor 6,6,6
	bctrl
	b .L650
.LVL994:
.L667:
.LBB3082:
.LBB3060:
	.loc 8 50 0
	la 4,.LC14@l(27)
	b .L659
.LVL995:
.L669:
.LBE3060:
.LBE3082:
.LBB3083:
.LBB3074:
	lis 5,.LC14@ha
	la 5,.LC14@l(5)
	b .L663
.LVL996:
.L668:
.LBE3074:
.LBE3083:
.LBB3084:
.LBB3070:
	lis 5,.LC14@ha
	la 5,.LC14@l(5)
	b .L662
.LVL997:
.L675:
.LBE3070:
.LBE3084:
.LBB3085:
.LBB3079:
	lwz 6,12(29)
	b .L664
.LBE3079:
.LBE3085:
.LBE3087:
	.cfi_endproc
.LFE2618:
	.size	_ZN18idDeclManagerLocal11TouchDecl_fERK9idCmdArgs, .-_ZN18idDeclManagerLocal11TouchDecl_fERK9idCmdArgs
	.align 2
	.globl _ZN10idDeclFile12LoadAndParseEv
	.type	_ZN10idDeclFile12LoadAndParseEv, @function
_ZN10idDeclFile12LoadAndParseEv:
.LFB2580:
	.loc 4 667 0
	.cfi_startproc
	.cfi_personality 0,__gxx_personality_v0
	.cfi_lsda 0,.LLSDA2580
.LVL998:
	stwu 1,-400(1)
.LCFI307:
	.cfi_def_cfa_offset 400
	mflr 0
	stw 25,372(1)
	mr 25,3
	.cfi_offset 25, -28
	.cfi_register 65, 0
.LBB3147:
	.loc 4 669 0
	addi 3,1,128
.LVL999:
.LBE3147:
	.loc 4 667 0
	stw 0,404(1)
	stw 22,360(1)
	addi 22,1,12
	.cfi_offset 22, -40
	.cfi_offset 65, 4
	stw 28,384(1)
	addi 28,1,48
	.cfi_offset 28, -16
	stw 18,344(1)
	stw 19,348(1)
	stw 20,352(1)
	stw 21,356(1)
	stw 23,364(1)
	stw 24,368(1)
	stw 26,376(1)
	stw 27,380(1)
	stw 29,388(1)
	stw 30,392(1)
	stw 31,396(1)
.LEHB43:
.LBB3239:
	.loc 4 669 0
	.cfi_offset 31, -4
	.cfi_offset 30, -8
	.cfi_offset 29, -12
	.cfi_offset 27, -20
	.cfi_offset 26, -24
	.cfi_offset 24, -32
	.cfi_offset 23, -36
	.cfi_offset 21, -44
	.cfi_offset 20, -48
	.cfi_offset 19, -52
	.cfi_offset 18, -56
	bl _ZN7idLexerC1Ev
.LEHE43:
.LVL1000:
.LBB3148:
.LBB3149:
.LBB3150:
.LBB3151:
	.loc 6 357 0
	li 9,20
.LBE3151:
.LBE3150:
.LBE3149:
.LBE3148:
	.loc 4 678 0
	lis 3,.LC146@ha
.LBB3158:
.LBB3156:
.LBB3154:
.LBB3152:
	.loc 6 356 0
	li 0,0
	.loc 6 357 0
	stw 9,56(1)
	.loc 6 358 0
	addi 11,1,60
.LBE3152:
.LBE3154:
.LBE3156:
.LBE3158:
.LBB3159:
.LBB3160:
.LBB3161:
	.loc 6 357 0
	stw 9,20(1)
.LBE3161:
.LBE3160:
.LBE3159:
	.loc 4 678 0
	la 3,.LC146@l(3)
.LBB3166:
.LBB3164:
.LBB3162:
	.loc 6 358 0
	addi 9,1,24
.LBE3162:
.LBE3164:
.LBE3166:
.LBB3167:
.LBB3157:
.LBB3155:
.LBB3153:
	.loc 6 356 0
	stw 0,48(1)
	.loc 6 358 0
	stw 11,52(1)
	.loc 6 359 0
	stb 0,60(1)
.LVL1001:
.LBE3153:
.LBE3155:
.LBE3157:
.LBE3167:
.LBB3168:
.LBB3165:
.LBB3163:
	.loc 6 356 0
	stw 0,12(1)
	.loc 6 358 0
	stw 9,16(1)
	.loc 6 359 0
	stb 0,24(1)
.LEHB44:
.LBE3163:
.LBE3165:
.LBE3168:
	.loc 4 678 0
	crxor 6,6,6
	bl _Z10Sys_PrintfPKcz
	.loc 4 680 0
	lis 30,common@ha
	lis 4,.LC147@ha
	lwz 3,common@l(30)
	la 4,.LC147@l(4)
	lwz 5,4(25)
	addi 28,1,48
	lwz 9,0(3)
	addi 22,1,12
	lwz 0,76(9)
	mtctr 0
	crxor 6,6,6
	bctrl
	.loc 4 681 0
	lis 9,fileSystem@ha
	lwz 4,4(25)
	lwz 3,fileSystem@l(9)
.LVL1002:
	addi 5,1,8
	addi 6,25,36
	addi 28,1,48
	lwz 9,0(3)
	addi 22,1,12
	lwz 0,96(9)
	mtctr 0
	bctrl
	.loc 4 682 0
	cmpwi 7,3,-1
	.loc 4 681 0
	mr 31,3
.LVL1003:
	.loc 4 682 0
	beq- 7,.L738
.LVL1004:
	.loc 4 687 0
	lwz 4,8(1)
	addi 3,1,128
.LVL1005:
	lwz 6,4(25)
	mr 5,31
	li 7,1
	addi 28,1,48
	addi 22,1,12
	bl _ZN7idLexer10LoadMemoryEPKciS1_i
	cmpwi 7,3,0
	beq- 7,.L739
.LBB3169:
	.loc 4 694 0
	lwz 9,52(25)
.LVL1006:
	cmpwi 7,9,0
	beq- 7,.L680
	.loc 4 695 0 discriminator 2
	li 0,0
.LVL1007:
.L723:
	stb 0,91(9)
	.loc 4 694 0 discriminator 2
	lwz 9,92(9)
.LVL1008:
	cmpwi 7,9,0
	bne+ 7,.L723
.L680:
.LVL1009:
.LBE3169:
	.loc 4 700 0
	lwz 3,8(1)
.LBB3170:
.LBB3171:
	.loc 9 367 0
	li 0,6300
.LBE3171:
.LBE3170:
	.loc 4 700 0
	mr 4,31
.LBB3173:
.LBB3172:
	.loc 9 367 0
	stw 0,232(1)
	addi 28,1,48
	addi 22,1,12
.LBE3172:
.LBE3173:
	.loc 4 700 0
	bl _Z17MD5_BlockChecksumPKvi
.LVL1010:
.LBB3174:
.LBB3175:
	.loc 4 718 0
	lis 29,.LANCHOR0@ha
.LBE3175:
.LBB3176:
.LBB3177:
	.loc 6 690 0
	lis 26,.LC17@ha
.LBE3177:
.LBE3176:
.LBB3180:
	.loc 4 718 0
	la 29,.LANCHOR0@l(29)
.LBE3180:
	.loc 4 739 0
	lis 18,.LC151@ha
	.loc 4 732 0
	lis 21,.LC150@ha
	.loc 4 791 0
	lis 19,.LC154@ha
	.loc 4 775 0
	lis 20,.LC153@ha
.LBE3174:
	.loc 4 700 0
	stw 3,40(25)
	.loc 4 702 0
	stw 31,44(25)
	addi 28,1,48
	addi 22,1,12
.LBB3219:
.LBB3181:
	.loc 4 718 0
	addi 29,29,8
.LBE3181:
.LBB3182:
.LBB3178:
	.loc 6 690 0
	la 26,.LC17@l(26)
.LBE3178:
.LBE3182:
	.loc 4 739 0
	la 18,.LC151@l(18)
	.loc 4 732 0
	la 21,.LC150@l(21)
	.loc 4 791 0
	la 19,.LC154@l(19)
	.loc 4 775 0
	la 20,.LC153@l(20)
.LVL1011:
.L729:
.LBB3183:
.LBB3184:
	.loc 9 349 0
	addi 3,1,168
	bl _ZN11fileDataPtrcvKiEv
	mr 24,3
.LVL1012:
.LBE3184:
.LBE3183:
	.loc 4 711 0
	mr 4,28
	addi 3,1,128
.LVL1013:
.LBB3186:
.LBB3185:
	.loc 4 708 0
	lwz 23,220(1)
.LBE3185:
.LBE3186:
	.loc 4 711 0
	bl _ZN7idLexer9ReadTokenEP7idToken
.LVL1014:
	cmpwi 7,3,0
	beq- 7,.L683
.LVL1015:
.LBB3187:
	.loc 4 2449 0
	lwz 27,4(29)
.LVL1016:
.LBE3187:
.LBB3188:
	.loc 4 719 0
	cmpwi 7,27,0
	ble- 7,.L684
	li 30,0
.LVL1017:
.L714:
.LBB3189:
.LBB3190:
.LBB3191:
	.loc 4 239 0
	lwz 9,16(29)
	slwi 0,30,2
	lwzx 31,9,0
.LVL1018:
.LBE3191:
.LBE3190:
	.loc 4 721 0
	cmpwi 7,31,0
	beq- 7,.L685
.LVL1019:
.LBB3192:
.LBB3193:
	.loc 6 690 0 discriminator 1
	lwz 3,4(31)
	lwz 4,4(28)
	bl _ZN5idStr4IcmpEPKcS1_
.LVL1020:
.LBE3193:
.LBE3192:
	.loc 4 721 0 discriminator 1
	cmpwi 7,3,0
	bne- 7,.L685
	.loc 4 722 0
	lwz 31,32(31)
.LVL1021:
.L686:
.LBE3189:
.LBE3188:
	.loc 4 749 0
	addi 3,1,128
.LVL1022:
	mr 4,28
	bl _ZN7idLexer9ReadTokenEP7idToken
.LVL1023:
	cmpwi 7,3,0
	beq- 7,.L737
.LVL1024:
.LBB3194:
.LBB3195:
	.loc 6 690 0
	lwz 3,4(28)
	mr 4,26
	bl _ZN5idStr4IcmpEPKcS1_
.LBE3195:
.LBE3194:
	.loc 4 754 0
	cmpwi 7,3,0
	beq- 7,.L735
	.loc 4 762 0
	cmpwi 7,31,13
	beq- 7,.L740
.LVL1025:
.LBB3196:
	.loc 4 2449 0
	lwz 30,0(28)
.LBB3197:
.LBB3198:
.LBB3199:
	.loc 6 350 0
	lwz 0,20(1)
.LBE3199:
.LBE3198:
	.loc 6 534 0
	addi 4,30,1
.LVL1026:
.LBB3202:
.LBB3200:
	.loc 6 350 0
	cmpw 7,4,0
	bgt- 7,.L741
.LVL1027:
.L693:
.LBE3200:
.LBE3202:
	.loc 6 535 0
	lwz 4,52(1)
	mr 5,30
	lwz 3,16(1)
	bl memcpy
	.loc 6 536 0
	lwz 9,16(1)
	li 0,0
.LBE3197:
.LBE3196:
	.loc 4 770 0
	addi 3,1,128
.LVL1028:
.LBB3207:
.LBB3204:
	.loc 6 536 0
	stbx 0,9,30
.LBE3204:
.LBE3207:
	.loc 4 770 0
	mr 4,28
.LBB3208:
.LBB3205:
	.loc 6 537 0
	stw 30,12(1)
.LBE3205:
.LBE3208:
	.loc 4 770 0
	bl _ZN7idLexer9ReadTokenEP7idToken
.LVL1029:
	cmpwi 7,3,0
	beq- 7,.L737
.LVL1030:
.LBB3209:
.LBB3210:
.LBB3211:
	.loc 6 653 0
	lwz 3,4(28)
	mr 4,26
	bl _ZN5idStr3CmpEPKcS1_
.LBE3211:
.LBE3210:
.LBE3209:
	.loc 4 774 0
	cmpwi 7,3,0
	beq- 7,.L695
	.loc 4 775 0
	lwz 5,4(28)
	addi 3,1,128
.LVL1031:
	mr 4,20
	crxor 6,6,6
	bl _ZN7idLexer7WarningEPKcz
.LVL1032:
	b .L729
.LVL1033:
.L685:
.LBB3212:
	.loc 4 719 0
	addi 30,30,1
.LVL1034:
	cmpw 7,30,27
	bne+ 7,.L714
.LVL1035:
.L684:
.LBE3212:
.LBB3213:
.LBB3179:
	.loc 6 690 0
	lwz 3,4(28)
	mr 4,26
	bl _ZN5idStr4IcmpEPKcS1_
.LBE3179:
.LBE3213:
	.loc 4 729 0
	cmpwi 7,3,0
	beq- 7,.L735
	.loc 4 738 0
	lwz 0,32(25)
	.loc 4 739 0
	addi 3,1,128
.LVL1036:
	.loc 4 738 0
	cmpwi 7,0,32
	beq- 7,.L742
	.loc 4 742 0
	mr 4,28
	bl _ZN7idLexer11UnreadTokenEPK7idToken
.LVL1037:
	.loc 4 744 0
	lwz 31,32(25)
.LVL1038:
	b .L686
.LVL1039:
.L735:
	.loc 4 756 0
	addi 3,1,128
.LVL1040:
	mr 4,21
	crxor 6,6,6
	bl _ZN7idLexer7WarningEPKcz
.LVL1041:
	.loc 4 757 0
	addi 3,1,128
.LVL1042:
	li 4,0
	bl _ZN7idLexer17SkipBracedSectionEb
.LVL1043:
	b .L729
.LVL1044:
.L695:
	.loc 4 778 0
	addi 3,1,128
.LVL1045:
	mr 4,28
	bl _ZN7idLexer11UnreadTokenEPK7idToken
.LVL1046:
	.loc 4 781 0
	addi 3,1,128
.LVL1047:
	li 4,1
	bl _ZN7idLexer17SkipBracedSectionEb
.LVL1048:
.LBB3214:
.LBB3215:
	.loc 9 349 0
	addi 3,1,168
	bl _ZN11fileDataPtrcvKiEv
.LBE3215:
.LBE3214:
	.loc 4 786 0
	lwz 5,4(22)
.LBB3217:
.LBB3216:
	.loc 9 349 0
	mr 27,3
.LVL1049:
.LBE3216:
.LBE3217:
	.loc 4 786 0
	mr 4,31
	mr 3,29
.LVL1050:
	li 6,0
	bl _ZN18idDeclManagerLocal22FindTypeWithoutParsingE10declType_tPKcb
	.loc 4 787 0
	mr. 30,3
	.loc 4 782 0
	subf 27,24,27
.LVL1051:
	.loc 4 787 0
	beq- 0,.L696
	.loc 4 789 0
	lwz 0,56(30)
	cmpw 7,0,25
	beq- 7,.L743
.L697:
	.loc 4 791 0
	mr 3,29
.LVL1052:
	mr 4,31
	bl _ZNK18idDeclManagerLocal19GetDeclNameFromTypeE10declType_t
	.loc 4 2449 0
	lwz 9,56(30)
	.loc 4 791 0
	mr 5,3
	lwz 6,4(22)
	addi 3,1,128
.LVL1053:
	lwz 7,4(9)
	mr 4,19
	lwz 8,68(30)
	crxor 6,6,6
	bl _ZN7idLexer7WarningEPKcz
.LVL1054:
	b .L729
.LVL1055:
.L741:
.LBB3218:
.LBB3206:
.LBB3203:
.LBB3201:
	.loc 6 351 0
	mr 3,22
	li 5,0
	bl _ZN5idStr10ReAllocateEib
.LVL1056:
	b .L693
.LVL1057:
.L740:
.LBE3201:
.LBE3203:
.LBE3206:
.LBE3218:
	.loc 4 763 0
	addi 3,1,128
.LVL1058:
	li 4,1
	bl _ZN7idLexer17SkipBracedSectionEb
.LVL1059:
	b .L729
.LVL1060:
.L742:
	.loc 4 739 0
	mr 4,18
	crxor 6,6,6
	bl _ZN7idLexer7WarningEPKcz
.LVL1061:
	b .L729
.LVL1062:
.L743:
	.loc 4 789 0 discriminator 1
	lbz 0,91(30)
	cmpwi 7,0,0
	bne- 7,.L697
	.loc 4 794 0
	lwz 9,80(30)
	cmpwi 7,9,0
	beq- 7,.L700
.LVL1063:
	.loc 4 811 0
	li 9,1
	.loc 4 819 0
	stw 24,40(30)
	.loc 4 811 0
	stb 9,91(30)
	.loc 4 820 0
	stw 27,44(30)
	.loc 4 821 0
	stw 27,48(30)
	.loc 4 823 0
	stw 25,56(30)
	.loc 4 824 0
	stw 24,60(30)
	.loc 4 825 0
	stw 27,64(30)
	.loc 4 826 0
	stw 23,68(30)
	.loc 4 827 0
	stw 0,80(30)
	.loc 4 831 0
	bl _ZN11idDeclLocal10ParseLocalEv
.LVL1064:
	b .L729
.LVL1065:
.L737:
	.loc 4 771 0
	lis 4,.LC152@ha
	addi 3,1,128
.LVL1066:
	la 4,.LC152@l(4)
	crxor 6,6,6
	bl _ZN7idLexer7WarningEPKcz
.LVL1067:
.L683:
.LBE3219:
	.loc 4 835 0
	lwz 0,220(1)
	.loc 4 837 0
	lwz 3,8(1)
	.loc 4 835 0
	stw 0,48(25)
	.loc 4 837 0
	bl _Z8Mem_FreePv
.LBB3220:
	.loc 4 840 0
	lwz 31,52(25)
.LVL1068:
	cmpwi 7,31,0
	beq- 7,.L702
	.loc 4 844 0
	li 30,0
	b .L722
.LVL1069:
.L703:
	.loc 4 840 0
	lwz 31,92(31)
.LVL1070:
	cmpwi 7,31,0
	beq- 7,.L702
.L722:
	.loc 4 841 0
	lbz 0,91(31)
	cmpwi 7,0,0
	bne+ 7,.L703
	.loc 4 842 0
	lwz 9,0(31)
	mr 3,31
	lwz 0,72(9)
	mtctr 0
	bctrl
.LEHE44:
	.loc 4 843 0
	lwz 9,56(31)
	lwz 0,44(9)
	.loc 4 844 0
	stw 30,64(31)
	.loc 4 843 0
	stw 0,60(31)
	.loc 4 845 0
	lwz 0,48(9)
	stw 0,68(31)
	.loc 4 840 0
	lwz 31,92(31)
.LVL1071:
	cmpwi 7,31,0
	bne+ 7,.L722
.L702:
.LBE3220:
	.loc 4 849 0
	lwz 31,40(25)
.LVL1072:
.L678:
.LBB3221:
.LBB3222:
.LBB3223:
	.loc 6 501 0
	mr 3,22
.LEHB45:
	bl _ZN5idStr8FreeDataEv
.LEHE45:
.LVL1073:
.LBE3223:
.LBE3222:
.LBE3221:
.LBB3224:
.LBB3225:
.LBB3226:
.LBB3227:
.LBB3228:
	mr 3,28
.LEHB46:
	bl _ZN5idStr8FreeDataEv
.LEHE46:
.LBE3228:
.LBE3227:
.LBE3226:
.LBE3225:
.LBE3224:
	.loc 4 849 0
	addi 3,1,128
.LEHB47:
	bl _ZN7idLexerD1Ev
.LEHE47:
.LBE3239:
	.loc 4 850 0
	lwz 0,404(1)
	mr 3,31
	lwz 18,344(1)
	mtlr 0
	lwz 19,348(1)
	lwz 20,352(1)
	lwz 21,356(1)
	lwz 22,360(1)
.LVL1074:
	lwz 23,364(1)
	lwz 24,368(1)
	lwz 25,372(1)
.LVL1075:
	lwz 26,376(1)
	lwz 27,380(1)
	lwz 28,384(1)
.LVL1076:
	lwz 29,388(1)
	lwz 30,392(1)
	lwz 31,396(1)
	addi 1,1,400
	.cfi_remember_state
.LCFI308:
	.cfi_def_cfa_offset 0
	.cfi_restore 31
	.cfi_restore 30
	.cfi_restore 29
	.cfi_restore 28
	.cfi_restore 27
	.cfi_restore 26
	.cfi_restore 25
	.cfi_restore 24
	.cfi_restore 23
	.cfi_restore 22
	.cfi_restore 21
	.cfi_restore 20
	.cfi_restore 19
	.cfi_restore 18
	blr
.LVL1077:
.L696:
.LCFI309:
	.cfi_restore_state
.LBB3240:
.LBB3229:
	.loc 4 799 0
	lwz 5,4(22)
	mr 3,29
.LVL1078:
	mr 4,31
	li 6,1
.LEHB48:
	bl _ZN18idDeclManagerLocal22FindTypeWithoutParsingE10declType_tPKcb
.LVL1079:
	.loc 4 802 0
	mr. 30,3
	beq- 0,.L744
	.loc 4 807 0
	lwz 0,52(25)
	stw 0,92(30)
	.loc 4 808 0
	stw 30,52(25)
.LVL1080:
.L700:
	.loc 4 811 0
	li 0,1
	.loc 4 819 0
	stw 24,40(30)
	.loc 4 811 0
	stb 0,91(30)
	.loc 4 827 0
	li 0,0
	.loc 4 820 0
	stw 27,44(30)
	.loc 4 821 0
	stw 27,48(30)
	.loc 4 823 0
	stw 25,56(30)
	.loc 4 824 0
	stw 24,60(30)
	.loc 4 825 0
	stw 27,64(30)
	.loc 4 826 0
	stw 23,68(30)
	.loc 4 827 0
	stw 0,80(30)
	b .L729
.LVL1081:
.L738:
.LBE3229:
	.loc 4 683 0
	lwz 3,common@l(30)
.LVL1082:
	lis 4,.LC148@ha
	la 4,.LC148@l(4)
	lwz 5,4(25)
	lwz 9,0(3)
	addi 28,1,48
	addi 22,1,12
	lwz 0,100(9)
	mtctr 0
	crxor 6,6,6
	bctrl
.LVL1083:
.L728:
	.loc 4 690 0
	li 31,0
.LVL1084:
	addi 28,1,48
	addi 22,1,12
	b .L678
.LVL1085:
.L739:
	.loc 4 688 0
	lwz 3,common@l(30)
	lis 4,.LC149@ha
	la 4,.LC149@l(4)
	lwz 5,4(25)
	lwz 9,0(3)
	addi 28,1,48
	addi 22,1,12
	lwz 0,96(9)
	mtctr 0
	crxor 6,6,6
	bctrl
	.loc 4 689 0
	lwz 3,8(1)
	addi 28,1,48
	addi 22,1,12
	bl _Z8Mem_FreePv
	b .L728
.LVL1086:
.L744:
.LBB3230:
	.loc 4 803 0
	lwz 3,8(1)
.LVL1087:
	bl _Z8Mem_FreePv
.LEHE48:
	.loc 4 804 0
	li 31,0
.LVL1088:
	b .L678
.LVL1089:
.L719:
	mr 31,3
.LVL1090:
.L713:
.LBE3230:
	.loc 4 849 0
	addi 3,1,128
	bl _ZN7idLexerD1Ev
	mr 3,31
.LEHB49:
	bl _Unwind_Resume
.LEHE49:
.LVL1091:
.L721:
	mr 31,3
.LVL1092:
.L710:
.LBB3231:
.LBB3232:
.LBB3233:
.LBB3234:
.LBB3235:
	.loc 6 501 0
	mr 3,28
	bl _ZN5idStr8FreeDataEv
	b .L713
.LVL1093:
.L720:
	mr 31,3
.LVL1094:
.LBE3235:
.LBE3234:
.LBE3233:
.LBE3232:
.LBE3231:
.LBB3236:
.LBB3237:
.LBB3238:
	mr 3,22
	bl _ZN5idStr8FreeDataEv
	b .L710
.LBE3238:
.LBE3237:
.LBE3236:
.LBE3240:
	.cfi_endproc
.LFE2580:
	.section	.gcc_except_table
.LLSDA2580:
	.byte	0xff
	.byte	0xff
	.byte	0x1
	.uleb128 .LLSDACSE2580-.LLSDACSB2580
.LLSDACSB2580:
	.uleb128 .LEHB43-.LFB2580
	.uleb128 .LEHE43-.LEHB43
	.uleb128 0
	.uleb128 0
	.uleb128 .LEHB44-.LFB2580
	.uleb128 .LEHE44-.LEHB44
	.uleb128 .L720-.LFB2580
	.uleb128 0
	.uleb128 .LEHB45-.LFB2580
	.uleb128 .LEHE45-.LEHB45
	.uleb128 .L721-.LFB2580
	.uleb128 0
	.uleb128 .LEHB46-.LFB2580
	.uleb128 .LEHE46-.LEHB46
	.uleb128 .L719-.LFB2580
	.uleb128 0
	.uleb128 .LEHB47-.LFB2580
	.uleb128 .LEHE47-.LEHB47
	.uleb128 0
	.uleb128 0
	.uleb128 .LEHB48-.LFB2580
	.uleb128 .LEHE48-.LEHB48
	.uleb128 .L720-.LFB2580
	.uleb128 0
	.uleb128 .LEHB49-.LFB2580
	.uleb128 .LEHE49-.LEHB49
	.uleb128 0
	.uleb128 0
.LLSDACSE2580:
	.section	".text"
	.size	_ZN10idDeclFile12LoadAndParseEv, .-_ZN10idDeclFile12LoadAndParseEv
	.align 2
	.globl _ZN18idDeclManagerLocal18RegisterDeclFolderEPKcS1_10declType_t
	.type	_ZN18idDeclManagerLocal18RegisterDeclFolderEPKcS1_10declType_t, @function
_ZN18idDeclManagerLocal18RegisterDeclFolderEPKcS1_10declType_t:
.LFB2592:
	.loc 4 1081 0
	.cfi_startproc
	.cfi_personality 0,__gxx_personality_v0
	.cfi_lsda 0,.LLSDA2592
.LVL1095:
	mflr 0
	stwu 1,-176(1)
.LCFI310:
	.cfi_def_cfa_offset 176
	.cfi_register 65, 0
.LVL1096:
	stw 17,116(1)
	mr 17,6
	.cfi_offset 17, -60
	stw 0,180(1)
.LBB3363:
.LBB3364:
.LBB3365:
.LBB3366:
	.loc 6 356 0
	li 0,0
	.cfi_offset 65, 4
.LBE3366:
.LBE3365:
.LBE3364:
.LBE3363:
	.loc 4 1081 0
	stw 28,160(1)
	mr 28,5
	.cfi_offset 28, -16
	stw 29,164(1)
	mr 29,4
	.cfi_offset 29, -12
	stw 31,172(1)
	mr 31,3
	.cfi_offset 31, -4
	stw 15,108(1)
	stw 16,112(1)
	stw 18,120(1)
	stw 19,124(1)
	stw 20,128(1)
	stw 21,132(1)
	stw 22,136(1)
	stw 23,140(1)
	stw 24,144(1)
	stw 25,148(1)
	stw 26,152(1)
	stw 27,156(1)
	stw 30,168(1)
.LBB3629:
.LBB3373:
.LBB3370:
.LBB3367:
	.loc 6 356 0
	stw 0,72(1)
.LBE3367:
.LBE3370:
.LBE3373:
	.loc 4 1089 0
	lwz 9,20(3)
.LBB3374:
.LBB3371:
.LBB3368:
	.loc 6 359 0
	stb 0,84(1)
.LVL1097:
.LBE3368:
.LBE3371:
.LBE3374:
	.loc 4 1089 0
	cmpwi 7,9,0
.LBB3375:
.LBB3372:
.LBB3369:
	.loc 6 357 0
	li 9,20
	stw 9,80(1)
	.loc 6 358 0
	addi 9,1,84
	stw 9,76(1)
.LBE3369:
.LBE3372:
.LBE3375:
	.loc 4 1089 0
	ble- 7,.L748
	.cfi_offset 30, -8
	.cfi_offset 27, -20
	.cfi_offset 26, -24
	.cfi_offset 25, -28
	.cfi_offset 24, -32
	.cfi_offset 23, -36
	.cfi_offset 22, -40
	.cfi_offset 21, -44
	.cfi_offset 20, -48
	.cfi_offset 19, -52
	.cfi_offset 18, -56
	.cfi_offset 16, -64
	.cfi_offset 15, -68
	li 30,0
	b .L814
.LVL1098:
.L747:
	lwz 0,20(31)
	addi 30,30,1
.LVL1099:
	cmpw 7,0,30
	ble- 7,.L748
.LVL1100:
.L814:
	.loc 4 1090 0
	lwz 9,32(31)
	.loc 4 1081 0
	slwi 27,30,2
.LVL1101:
.LBB3376:
.LBB3377:
	.loc 6 690 0
	mr 4,29
	addi 26,1,72
	.loc 4 2449 0
	lwzx 9,9,27
	.loc 6 690 0
	lwz 3,4(9)
.LEHB50:
	bl _ZN5idStr4IcmpEPKcS1_
.LBE3377:
.LBE3376:
	.loc 4 1090 0
	cmpwi 7,3,0
	bne+ 7,.L747
.LVL1102:
	.loc 4 1090 0 is_stmt 0 discriminator 1
	lwz 9,32(31)
.LBB3378:
.LBB3379:
	.loc 6 690 0 is_stmt 1 discriminator 1
	mr 4,28
	addi 26,1,72
	.loc 4 2449 0 discriminator 1
	lwzx 9,9,27
	.loc 6 690 0 discriminator 1
	lwz 3,36(9)
	bl _ZN5idStr4IcmpEPKcS1_
.LBE3379:
.LBE3378:
	.loc 4 1090 0 discriminator 1
	cmpwi 7,3,0
	bne- 7,.L747
	.loc 4 1094 0
	lwz 0,20(31)
	cmpw 7,0,30
	ble- 7,.L748
	.loc 4 1095 0
	lwz 9,32(31)
	lwzx 19,9,27
.LVL1103:
.L749:
	.loc 4 1105 0
	lis 15,fileSystem@ha
	lwz 4,4(19)
	lwz 3,fileSystem@l(15)
.LVL1104:
	li 6,1
	lwz 5,36(19)
	li 7,0
	lwz 9,0(3)
	li 8,0
	addi 26,1,72
	lwz 0,36(9)
	mtctr 0
	bctrl
.LEHE50:
	.loc 4 1108 0
	lwz 0,32(3)
	.loc 4 1105 0
	mr 25,3
.LVL1105:
	addi 26,1,72
	.loc 4 1108 0
	cmpwi 7,0,0
	ble- 7,.L767
	li 23,0
	addi 18,1,52
	addi 26,1,72
.LBB3380:
.LBB3381:
.LBB3382:
.LBB3383:
.LBB3384:
.LBB3385:
	.loc 6 356 0
	li 28,0
.LVL1106:
	.loc 6 357 0
	li 21,20
.LBE3385:
.LBE3384:
.LBE3383:
.LBE3382:
.LBB3403:
.LBB3404:
	.loc 6 778 0
	li 20,47
	.loc 6 781 0
	li 22,0
.LBE3404:
.LBE3403:
.LBE3381:
.LBE3380:
.LBB3434:
.LBB3435:
.LBB3436:
.LBB3437:
.LBB3438:
.LBB3439:
	.loc 6 358 0
	addi 24,1,20
.LBE3439:
.LBE3438:
.LBE3437:
.LBE3436:
.LBE3435:
.LBE3434:
.LBB3486:
.LBB3487:
.LBB3488:
.LBB3489:
	.loc 5 663 0
	li 16,16
.LVL1107:
.L807:
.LBE3489:
.LBE3488:
.LBE3487:
.LBE3486:
.LBB3524:
.LBB3430:
.LBB3418:
.LBB3398:
.LBB3388:
.LBB3386:
	.loc 6 356 0
	stw 28,40(1)
.LBE3386:
.LBE3388:
.LBB3389:
.LBB3390:
	.loc 6 358 0
	mr 3,18
.LBE3390:
.LBE3389:
.LBB3394:
.LBB3387:
	.loc 6 357 0
	stw 21,48(1)
	.loc 6 358 0
	stw 18,44(1)
	.loc 6 359 0
	stb 28,52(1)
.LBE3387:
.LBE3394:
.LBE3398:
	.loc 4 2449 0
	lwz 29,0(19)
.LBB3399:
	.loc 6 374 0
	addi 30,29,1
.LVL1108:
.LBB3395:
.LBB3391:
	.loc 6 350 0
	cmpwi 7,30,20
	bgt- 7,.L836
.LBE3391:
.LBE3395:
	.loc 6 375 0
	lwz 4,4(19)
	bl strcpy
.LBE3399:
.LBE3418:
.LBB3419:
.LBB3413:
.LBB3405:
.LBB3406:
	.loc 6 350 0
	lwz 0,48(1)
.LBE3406:
.LBE3405:
	.loc 6 776 0
	addi 4,30,1
.LBE3413:
.LBE3419:
.LBB3420:
.LBB3400:
	.loc 6 376 0
	stw 29,40(1)
.LVL1109:
.LBE3400:
.LBE3420:
.LBB3421:
.LBB3414:
.LBB3410:
.LBB3407:
	.loc 6 350 0
	cmpw 7,4,0
	bgt- 7,.L837
.LVL1110:
.L769:
.LBE3407:
.LBE3410:
	.loc 6 778 0
	lwz 9,44(1)
.LBE3414:
.LBE3421:
.LBE3430:
.LBE3524:
.LBB3525:
.LBB3526:
	.loc 4 2449 0
	slwi 0,23,5
.LBE3526:
.LBE3525:
.LBB3529:
.LBB3479:
.LBB3458:
.LBB3452:
.LBB3442:
.LBB3443:
	.loc 6 358 0
	mr 3,24
.LBE3443:
.LBE3442:
.LBE3452:
.LBE3458:
.LBE3479:
.LBE3529:
.LBB3530:
.LBB3431:
.LBB3422:
.LBB3415:
	.loc 6 778 0
	stbx 20,9,29
.LVL1111:
	.loc 6 780 0
	stw 30,40(1)
	.loc 6 781 0
	lwz 9,44(1)
	stbx 22,9,30
.LVL1112:
.LBE3415:
.LBE3422:
.LBE3431:
.LBE3530:
.LBB3531:
.LBB3480:
.LBB3459:
.LBB3453:
.LBB3447:
.LBB3440:
	.loc 6 356 0
	stw 28,8(1)
.LBE3440:
.LBE3447:
.LBE3453:
	.loc 4 2449 0
	lwz 30,40(1)
.LVL1113:
.LBE3459:
.LBE3480:
.LBE3531:
.LBB3532:
.LBB3527:
	lwz 9,44(25)
.LBE3527:
.LBE3532:
.LBB3533:
.LBB3481:
.LBB3460:
.LBB3454:
	.loc 6 374 0
	addi 29,30,1
.LBB3448:
.LBB3444:
	.loc 6 350 0
	cmpwi 7,29,20
.LBE3444:
.LBE3448:
.LBE3454:
.LBE3460:
.LBE3481:
.LBE3533:
.LBB3534:
.LBB3528:
	.loc 4 2449 0
	add 9,9,0
	lwz 27,4(9)
.LVL1114:
.LBE3528:
.LBE3534:
.LBB3535:
.LBB3482:
.LBB3461:
.LBB3455:
.LBB3449:
.LBB3441:
	.loc 6 357 0
	stw 21,16(1)
	.loc 6 358 0
	stw 24,12(1)
	.loc 6 359 0
	stb 28,20(1)
.LBE3441:
.LBE3449:
.LBB3450:
.LBB3445:
	.loc 6 350 0
	bgt- 7,.L838
.LVL1115:
.L771:
.LBE3445:
