	.file	"Entity.cpp"
	.section	".text"
.Ltext0:
	.section	.text._ZN14idFixedWinding5ClearEv,"axG",@progbits,_ZN14idFixedWinding5ClearEv,comdat
	.align 2
	.weak	_ZN14idFixedWinding5ClearEv
	.type	_ZN14idFixedWinding5ClearEv, @function
_ZN14idFixedWinding5ClearEv:
.LFB1502:
	.file 1 "d:/Data/Nintendo/DoomGX/src/game/../idlib/../idlib/geometry/Winding.h"
	.loc 1 398 0
	.cfi_startproc
.LVL0:
	.loc 1 399 0
	li 0,0
	.loc 1 400 0
	.loc 1 399 0
	stw 0,4(3)
	.loc 1 400 0
	blr
	.cfi_endproc
.LFE1502:
	.size	_ZN14idFixedWinding5ClearEv, .-_ZN14idFixedWinding5ClearEv
	.section	".text"
	.align 2
	.globl _ZNK8idEntity7GetTypeEv
	.type	_ZNK8idEntity7GetTypeEv, @function
_ZNK8idEntity7GetTypeEv:
.LFB2811:
	.file 2 "d:/Data/Nintendo/DoomGX/src/game/Entity.cpp"
	.loc 2 109 0
	.cfi_startproc
.LVL1:
	.loc 2 109 0
	lis 3,.LANCHOR0@ha
.LVL2:
	la 3,.LANCHOR0@l(3)
	blr
	.cfi_endproc
.LFE2811:
	.size	_ZNK8idEntity7GetTypeEv, .-_ZNK8idEntity7GetTypeEv
	.align 2
	.globl _ZN8idEntity12DormantBeginEv
	.type	_ZN8idEntity12DormantBeginEv, @function
_ZN8idEntity12DormantBeginEv:
.LFB2849:
	.loc 2 905 0
	.cfi_startproc
.LVL3:
	.loc 2 906 0
	blr
	.cfi_endproc
.LFE2849:
	.size	_ZN8idEntity12DormantBeginEv, .-_ZN8idEntity12DormantBeginEv
	.align 2
	.globl _ZN8idEntity10DormantEndEv
	.type	_ZN8idEntity10DormantEndEv, @function
_ZN8idEntity10DormantEndEv:
.LFB2850:
	.loc 2 915 0
	.cfi_startproc
.LVL4:
	.loc 2 916 0
	blr
	.cfi_endproc
.LFE2850:
	.size	_ZN8idEntity10DormantEndEv, .-_ZN8idEntity10DormantEndEv
	.align 2
	.globl _ZNK8idEntity8GetColorER6idVec3
	.type	_ZNK8idEntity8GetColorER6idVec3, @function
_ZNK8idEntity8GetColorER6idVec3:
.LFB2857:
	.loc 2 1041 0
	.cfi_startproc
.LVL5:
	.loc 2 1042 0
	lwz 0,320(3)
.LVL6:
	.loc 2 1045 0
	.loc 2 1042 0
	stw 0,0(4)
.LVL7:
	.loc 2 1043 0
	lwz 0,324(3)
	stw 0,4(4)
.LVL8:
	.loc 2 1044 0
	lwz 0,328(3)
	stw 0,8(4)
	.loc 2 1045 0
	blr
	.cfi_endproc
.LFE2857:
	.size	_ZNK8idEntity8GetColorER6idVec3, .-_ZNK8idEntity8GetColorER6idVec3
	.align 2
	.globl _ZNK8idEntity8GetColorER6idVec4
	.type	_ZNK8idEntity8GetColorER6idVec4, @function
_ZNK8idEntity8GetColorER6idVec4:
.LFB2859:
	.loc 2 1065 0
	.cfi_startproc
.LVL9:
	.loc 2 1066 0
	lwz 0,320(3)
.LVL10:
	.loc 2 1070 0
	.loc 2 1066 0
	stw 0,0(4)
.LVL11:
	.loc 2 1067 0
	lwz 0,324(3)
	stw 0,4(4)
.LVL12:
	.loc 2 1068 0
	lwz 0,328(3)
	stw 0,8(4)
.LVL13:
	.loc 2 1069 0
	lwz 0,332(3)
	stw 0,12(4)
	.loc 2 1070 0
	blr
	.cfi_endproc
.LFE2859:
	.size	_ZNK8idEntity8GetColorER6idVec4, .-_ZNK8idEntity8GetColorER6idVec4
	.align 2
	.globl _ZN8idEntity26UpdateAnimationControllersEv
	.type	_ZN8idEntity26UpdateAnimationControllersEv, @function
_ZN8idEntity26UpdateAnimationControllersEv:
.LFB2860:
	.loc 2 1077 0
	.cfi_startproc
.LVL14:
	.loc 2 1080 0
	li 3,0
.LVL15:
	blr
	.cfi_endproc
.LFE2860:
	.size	_ZN8idEntity26UpdateAnimationControllersEv, .-_ZN8idEntity26UpdateAnimationControllersEv
	.align 2
	.globl _ZN8idEntity12FreeLightDefEv
	.type	_ZN8idEntity12FreeLightDefEv, @function
_ZN8idEntity12FreeLightDefEv:
.LFB2865:
	.loc 2 1146 0
	.cfi_startproc
.LVL16:
	.loc 2 1147 0
	blr
	.cfi_endproc
.LFE2865:
	.size	_ZN8idEntity12FreeLightDefEv, .-_ZN8idEntity12FreeLightDefEv
	.align 2
	.globl _ZN8idEntity15GetRenderEntityEv
	.type	_ZN8idEntity15GetRenderEntityEv, @function
_ZN8idEntity15GetRenderEntityEv:
.LFB2880:
	.loc 2 1424 0
	.cfi_startproc
.LVL17:
	.loc 2 1426 0
	addi 3,3,196
.LVL18:
	blr
	.cfi_endproc
.LFE2880:
	.size	_ZN8idEntity15GetRenderEntityEv, .-_ZN8idEntity15GetRenderEntityEv
	.align 2
	.globl _ZN8idEntity17GetModelDefHandleEv
	.type	_ZN8idEntity17GetModelDefHandleEv, @function
_ZN8idEntity17GetModelDefHandleEv:
.LFB2881:
	.loc 2 1433 0
	.cfi_startproc
.LVL19:
	.loc 2 1435 0
	lwz 3,412(3)
.LVL20:
	blr
	.cfi_endproc
.LFE2881:
	.size	_ZN8idEntity17GetModelDefHandleEv, .-_ZN8idEntity17GetModelDefHandleEv
	.align 2
	.globl _ZN8idEntity11GetAnimatorEv
	.type	_ZN8idEntity11GetAnimatorEv, @function
_ZN8idEntity11GetAnimatorEv:
.LFB2884:
	.loc 2 1480 0
	.cfi_startproc
.LVL21:
	.loc 2 1482 0
	li 3,0
.LVL22:
	blr
	.cfi_endproc
.LFE2884:
	.size	_ZN8idEntity11GetAnimatorEv, .-_ZN8idEntity11GetAnimatorEv
	.align 2
	.globl _ZNK8idEntity20CanPlayChatterSoundsEv
	.type	_ZNK8idEntity20CanPlayChatterSoundsEv, @function
_ZNK8idEntity20CanPlayChatterSoundsEv:
.LFB2889:
	.loc 2 1527 0
	.cfi_startproc
.LVL23:
	.loc 2 1529 0
	li 3,1
.LVL24:
	blr
	.cfi_endproc
.LFE2889:
	.size	_ZNK8idEntity20CanPlayChatterSoundsEv, .-_ZNK8idEntity20CanPlayChatterSoundsEv
	.align 2
	.globl _ZN8idEntity7PreBindEv
	.type	_ZN8idEntity7PreBindEv, @function
_ZN8idEntity7PreBindEv:
.LFB2898:
	.loc 2 1719 0
	.cfi_startproc
.LVL25:
	.loc 2 1720 0
	blr
	.cfi_endproc
.LFE2898:
	.size	_ZN8idEntity7PreBindEv, .-_ZN8idEntity7PreBindEv
	.align 2
	.globl _ZN8idEntity8PostBindEv
	.type	_ZN8idEntity8PostBindEv, @function
_ZN8idEntity8PostBindEv:
.LFB2899:
	.loc 2 1727 0
	.cfi_startproc
.LVL26:
	.loc 2 1728 0
	blr
	.cfi_endproc
.LFE2899:
	.size	_ZN8idEntity8PostBindEv, .-_ZN8idEntity8PostBindEv
	.align 2
	.globl _ZN8idEntity9PreUnbindEv
	.type	_ZN8idEntity9PreUnbindEv, @function
_ZN8idEntity9PreUnbindEv:
.LFB2900:
	.loc 2 1735 0
	.cfi_startproc
.LVL27:
	.loc 2 1736 0
	blr
	.cfi_endproc
.LFE2900:
	.size	_ZN8idEntity9PreUnbindEv, .-_ZN8idEntity9PreUnbindEv
	.align 2
	.globl _ZN8idEntity10PostUnbindEv
	.type	_ZN8idEntity10PostUnbindEv, @function
_ZN8idEntity10PostUnbindEv:
.LFB2901:
	.loc 2 1743 0
	.cfi_startproc
.LVL28:
	.loc 2 1744 0
	blr
	.cfi_endproc
.LFE2901:
	.size	_ZN8idEntity10PostUnbindEv, .-_ZN8idEntity10PostUnbindEv
	.align 2
	.globl _ZN8idEntity27GetPhysicsToVisualTransformER6idVec3R6idMat3
	.type	_ZN8idEntity27GetPhysicsToVisualTransformER6idVec3R6idMat3, @function
_ZN8idEntity27GetPhysicsToVisualTransformER6idVec3R6idMat3:
.LFB2942:
	.loc 2 2758 0
	.cfi_startproc
.LVL29:
	.loc 2 2760 0
	li 3,0
.LVL30:
	blr
	.cfi_endproc
.LFE2942:
	.size	_ZN8idEntity27GetPhysicsToVisualTransformER6idVec3R6idMat3, .-_ZN8idEntity27GetPhysicsToVisualTransformER6idVec3R6idMat3
	.align 2
	.globl _ZN8idEntity7CollideERK7trace_sRK6idVec3
	.type	_ZN8idEntity7CollideERK7trace_sRK6idVec3, @function
_ZN8idEntity7CollideERK7trace_sRK6idVec3:
.LFB2944:
	.loc 2 2782 0
	.cfi_startproc
.LVL31:
	.loc 2 2785 0
	li 3,0
.LVL32:
	blr
	.cfi_endproc
.LFE2944:
	.size	_ZN8idEntity7CollideERK7trace_sRK6idVec3, .-_ZN8idEntity7CollideERK7trace_sRK6idVec3
	.align 2
	.globl _ZN8idEntity13GetImpactInfoEPS_iRK6idVec3P12impactInfo_s
	.type	_ZN8idEntity13GetImpactInfoEPS_iRK6idVec3P12impactInfo_s, @function
_ZN8idEntity13GetImpactInfoEPS_iRK6idVec3P12impactInfo_s:
.LFB2945:
	.loc 2 2792 0
	.cfi_startproc
.LVL33:
	mflr 0
	stwu 1,-8(1)
.LCFI0:
	.cfi_def_cfa_offset 8
	.cfi_register 65, 0
	.loc 2 2793 0
	mr 4,5
.LVL34:
	mr 5,6
.LVL35:
	mr 6,7
.LVL36:
	.loc 2 2792 0
	stw 0,12(1)
.LBB4100:
.LBB4101:
	.loc 2 2522 0
	lwz 3,584(3)
.LVL37:
.LBE4101:
.LBE4100:
	.loc 2 2793 0
	lwz 9,0(3)
	lwz 0,76(9)
	.cfi_offset 65, 4
	mtctr 0
	bctrl
.LVL38:
	.loc 2 2794 0
	lwz 0,12(1)
	addi 1,1,8
.LCFI1:
	.cfi_def_cfa_offset 0
	mtlr 0
	blr
	.cfi_endproc
.LFE2945:
	.size	_ZN8idEntity13GetImpactInfoEPS_iRK6idVec3P12impactInfo_s, .-_ZN8idEntity13GetImpactInfoEPS_iRK6idVec3P12impactInfo_s
	.align 2
	.globl _ZN8idEntity12ApplyImpulseEPS_iRK6idVec3S3_
	.type	_ZN8idEntity12ApplyImpulseEPS_iRK6idVec3S3_, @function
_ZN8idEntity12ApplyImpulseEPS_iRK6idVec3S3_:
.LFB2946:
	.loc 2 2801 0
	.cfi_startproc
.LVL39:
	mflr 0
	stwu 1,-8(1)
.LCFI2:
	.cfi_def_cfa_offset 8
	.cfi_register 65, 0
	.loc 2 2802 0
	mr 4,5
.LVL40:
	mr 5,6
.LVL41:
	mr 6,7
.LVL42:
	.loc 2 2801 0
	stw 0,12(1)
.LBB4102:
.LBB4103:
	.loc 2 2522 0
	lwz 3,584(3)
.LVL43:
.LBE4103:
.LBE4102:
	.loc 2 2802 0
	lwz 9,0(3)
	lwz 0,80(9)
	.cfi_offset 65, 4
	mtctr 0
	bctrl
.LVL44:
	.loc 2 2803 0
	lwz 0,12(1)
	addi 1,1,8
.LCFI3:
	.cfi_def_cfa_offset 0
	mtlr 0
	blr
	.cfi_endproc
.LFE2946:
	.size	_ZN8idEntity12ApplyImpulseEPS_iRK6idVec3S3_, .-_ZN8idEntity12ApplyImpulseEPS_iRK6idVec3S3_
	.align 2
	.globl _ZN8idEntity8AddForceEPS_iRK6idVec3S3_
	.type	_ZN8idEntity8AddForceEPS_iRK6idVec3S3_, @function
_ZN8idEntity8AddForceEPS_iRK6idVec3S3_:
.LFB2947:
	.loc 2 2810 0
	.cfi_startproc
.LVL45:
	mflr 0
	stwu 1,-8(1)
.LCFI4:
	.cfi_def_cfa_offset 8
	.cfi_register 65, 0
	.loc 2 2811 0
	mr 4,5
.LVL46:
	mr 5,6
.LVL47:
	mr 6,7
.LVL48:
	.loc 2 2810 0
	stw 0,12(1)
.LBB4104:
.LBB4105:
	.loc 2 2522 0
	lwz 3,584(3)
.LVL49:
.LBE4105:
.LBE4104:
	.loc 2 2811 0
	lwz 9,0(3)
	lwz 0,84(9)
	.cfi_offset 65, 4
	mtctr 0
	bctrl
.LVL50:
	.loc 2 2812 0
	lwz 0,12(1)
	addi 1,1,8
.LCFI5:
	.cfi_def_cfa_offset 0
	mtlr 0
	blr
	.cfi_endproc
.LFE2947:
	.size	_ZN8idEntity8AddForceEPS_iRK6idVec3S3_, .-_ZN8idEntity8AddForceEPS_iRK6idVec3S3_
	.align 2
	.globl _ZN8idEntity15ActivatePhysicsEPS_
	.type	_ZN8idEntity15ActivatePhysicsEPS_, @function
_ZN8idEntity15ActivatePhysicsEPS_:
.LFB2948:
	.loc 2 2819 0
	.cfi_startproc
.LVL51:
	mflr 0
	stwu 1,-8(1)
.LCFI6:
	.cfi_def_cfa_offset 8
	.cfi_register 65, 0
	stw 0,12(1)
.LBB4106:
.LBB4107:
	.loc 2 2522 0
	lwz 3,584(3)
.LVL52:
.LBE4107:
.LBE4106:
	.loc 2 2820 0
	lwz 9,0(3)
	lwz 0,88(9)
	.cfi_offset 65, 4
	mtctr 0
	bctrl
.LVL53:
	.loc 2 2821 0
	lwz 0,12(1)
	addi 1,1,8
.LCFI7:
	.cfi_def_cfa_offset 0
	mtlr 0
	blr
	.cfi_endproc
.LFE2948:
	.size	_ZN8idEntity15ActivatePhysicsEPS_, .-_ZN8idEntity15ActivatePhysicsEPS_
	.align 2
	.globl _ZNK8idEntity8IsAtRestEv
	.type	_ZNK8idEntity8IsAtRestEv, @function
_ZNK8idEntity8IsAtRestEv:
.LFB2949:
	.loc 2 2828 0
	.cfi_startproc
.LVL54:
	mflr 0
	stwu 1,-8(1)
.LCFI8:
	.cfi_def_cfa_offset 8
	.cfi_register 65, 0
	stw 0,12(1)
.LBB4108:
.LBB4109:
	.loc 2 2522 0
	lwz 3,584(3)
.LVL55:
.LBE4109:
.LBE4108:
	.loc 2 2829 0
	lwz 9,0(3)
	lwz 0,96(9)
	.cfi_offset 65, 4
	mtctr 0
	bctrl
	.loc 2 2830 0
	lwz 0,12(1)
	addi 1,1,8
.LCFI9:
	.cfi_def_cfa_offset 0
	mtlr 0
	blr
	.cfi_endproc
.LFE2949:
	.size	_ZNK8idEntity8IsAtRestEv, .-_ZNK8idEntity8IsAtRestEv
	.align 2
	.globl _ZNK8idEntity16GetRestStartTimeEv
	.type	_ZNK8idEntity16GetRestStartTimeEv, @function
_ZNK8idEntity16GetRestStartTimeEv:
.LFB2950:
	.loc 2 2837 0
	.cfi_startproc
.LVL56:
	mflr 0
	stwu 1,-8(1)
.LCFI10:
	.cfi_def_cfa_offset 8
	.cfi_register 65, 0
	stw 0,12(1)
.LBB4110:
.LBB4111:
	.loc 2 2522 0
	lwz 3,584(3)
.LVL57:
.LBE4111:
.LBE4110:
	.loc 2 2838 0
	lwz 9,0(3)
	lwz 0,100(9)
	.cfi_offset 65, 4
	mtctr 0
	bctrl
	.loc 2 2839 0
	lwz 0,12(1)
	addi 1,1,8
.LCFI11:
	.cfi_def_cfa_offset 0
	mtlr 0
	blr
	.cfi_endproc
.LFE2950:
	.size	_ZNK8idEntity16GetRestStartTimeEv, .-_ZNK8idEntity16GetRestStartTimeEv
	.align 2
	.globl _ZN8idEntity16AddContactEntityEPS_
	.type	_ZN8idEntity16AddContactEntityEPS_, @function
_ZN8idEntity16AddContactEntityEPS_:
.LFB2951:
	.loc 2 2846 0
	.cfi_startproc
.LVL58:
	mflr 0
	stwu 1,-8(1)
.LCFI12:
	.cfi_def_cfa_offset 8
	.cfi_register 65, 0
	stw 0,12(1)
.LBB4112:
.LBB4113:
	.loc 2 2522 0
	lwz 3,584(3)
.LVL59:
.LBE4113:
.LBE4112:
	.loc 2 2847 0
	lwz 9,0(3)
	lwz 0,212(9)
	.cfi_offset 65, 4
	mtctr 0
	bctrl
.LVL60:
	.loc 2 2848 0
	lwz 0,12(1)
	addi 1,1,8
.LCFI13:
	.cfi_def_cfa_offset 0
	mtlr 0
	blr
	.cfi_endproc
.LFE2951:
	.size	_ZN8idEntity16AddContactEntityEPS_, .-_ZN8idEntity16AddContactEntityEPS_
	.align 2
	.globl _ZN8idEntity19RemoveContactEntityEPS_
	.type	_ZN8idEntity19RemoveContactEntityEPS_, @function
_ZN8idEntity19RemoveContactEntityEPS_:
.LFB2952:
	.loc 2 2855 0
	.cfi_startproc
.LVL61:
	mflr 0
	stwu 1,-8(1)
.LCFI14:
	.cfi_def_cfa_offset 8
	.cfi_register 65, 0
	stw 0,12(1)
.LBB4114:
.LBB4115:
	.loc 2 2522 0
	lwz 3,584(3)
.LVL62:
.LBE4115:
.LBE4114:
	.loc 2 2856 0
	lwz 9,0(3)
	lwz 0,216(9)
	.cfi_offset 65, 4
	mtctr 0
	bctrl
.LVL63:
	.loc 2 2857 0
	lwz 0,12(1)
	addi 1,1,8
.LCFI15:
	.cfi_def_cfa_offset 0
	mtlr 0
	blr
	.cfi_endproc
.LFE2952:
	.size	_ZN8idEntity19RemoveContactEntityEPS_, .-_ZN8idEntity19RemoveContactEntityEPS_
	.align 2
	.globl _ZN8idEntity14DamageFeedbackEPS_S0_Ri
	.type	_ZN8idEntity14DamageFeedbackEPS_S0_Ri, @function
_ZN8idEntity14DamageFeedbackEPS_S0_Ri:
.LFB2954:
	.loc 2 2954 0
	.cfi_startproc
.LVL64:
	.loc 2 2956 0
	blr
	.cfi_endproc
.LFE2954:
	.size	_ZN8idEntity14DamageFeedbackEPS_S0_Ri, .-_ZN8idEntity14DamageFeedbackEPS_S0_Ri
	.align 2
	.globl _ZN8idEntity4PainEPS_S0_iRK6idVec3i
	.type	_ZN8idEntity4PainEPS_S0_iRK6idVec3i, @function
_ZN8idEntity4PainEPS_S0_iRK6idVec3i:
.LFB2957:
	.loc 2 3061 0
	.cfi_startproc
.LVL65:
	.loc 2 3063 0
	li 3,0
.LVL66:
	blr
	.cfi_endproc
.LFE2957:
	.size	_ZN8idEntity4PainEPS_S0_iRK6idVec3i, .-_ZN8idEntity4PainEPS_S0_iRK6idVec3i
	.align 2
	.globl _ZN8idEntity6KilledEPS_S0_iRK6idVec3i
	.type	_ZN8idEntity6KilledEPS_S0_iRK6idVec3i, @function
_ZN8idEntity6KilledEPS_S0_iRK6idVec3i:
.LFB2958:
	.loc 2 3073 0
	.cfi_startproc
.LVL67:
	.loc 2 3074 0
	blr
	.cfi_endproc
.LFE2958:
	.size	_ZN8idEntity6KilledEPS_S0_iRK6idVec3i, .-_ZN8idEntity6KilledEPS_S0_iRK6idVec3i
	.align 2
	.globl _ZNK8idEntity34ShouldConstructScriptObjectAtSpawnEv
	.type	_ZNK8idEntity34ShouldConstructScriptObjectAtSpawnEv, @function
_ZNK8idEntity34ShouldConstructScriptObjectAtSpawnEv:
.LFB2959:
	.loc 2 3091 0
	.cfi_startproc
.LVL68:
	.loc 2 3093 0
	li 3,1
.LVL69:
	blr
	.cfi_endproc
.LFE2959:
	.size	_ZNK8idEntity34ShouldConstructScriptObjectAtSpawnEv, .-_ZNK8idEntity34ShouldConstructScriptObjectAtSpawnEv
	.align 2
	.globl _ZN8idEntity22HandleSingleGuiCommandEPS_P7idLexer
	.type	_ZN8idEntity22HandleSingleGuiCommandEPS_P7idLexer, @function
_ZN8idEntity22HandleSingleGuiCommandEPS_P7idLexer:
.LFB2970:
	.loc 2 3496 0
	.cfi_startproc
.LVL70:
	.loc 2 3498 0
	li 3,0
.LVL71:
	blr
	.cfi_endproc
.LFE2970:
	.size	_ZN8idEntity22HandleSingleGuiCommandEPS_P7idLexer, .-_ZN8idEntity22HandleSingleGuiCommandEPS_P7idLexer
	.align 2
	.globl _ZN8idEntity17ShowEditingDialogEv
	.type	_ZN8idEntity17ShowEditingDialogEv, @function
_ZN8idEntity17ShowEditingDialogEv:
.LFB2977:
	.loc 2 3697 0
	.cfi_startproc
.LVL72:
	.loc 2 3698 0
	blr
	.cfi_endproc
.LFE2977:
	.size	_ZN8idEntity17ShowEditingDialogEv, .-_ZN8idEntity17ShowEditingDialogEv
	.align 2
	.globl _ZN8idEntity14Event_SetOwnerEPS_
	.type	_ZN8idEntity14Event_SetOwnerEPS_, @function
_ZN8idEntity14Event_SetOwnerEPS_:
.LFB2991:
	.loc 2 3932 0
	.cfi_startproc
.LVL73:
	mflr 0
	stwu 1,-24(1)
.LCFI16:
	.cfi_def_cfa_offset 24
	.cfi_register 65, 0
	stw 29,12(1)
	mr 29,4
	.cfi_offset 29, -12
	stw 30,16(1)
	mr 30,3
	.cfi_offset 30, -8
	stw 31,20(1)
.LBB4116:
	.loc 2 3935 0
	li 31,0
	.cfi_offset 31, -4
.LBE4116:
	.loc 2 3932 0
	stw 0,28(1)
.LBB4123:
	.loc 2 3935 0
	b .L34
	.cfi_offset 65, 4
.LVL74:
.L35:
.LBB4117:
.LBB4118:
	.loc 2 2522 0
	lwz 3,584(30)
.LBE4118:
.LBE4117:
	.loc 2 3936 0
	lwz 9,0(3)
	lwz 0,24(9)
	mtctr 0
	bctrl
.LVL75:
.LBB4119:
.LBB4120:
	.file 3 "d:/Data/Nintendo/DoomGX/src/game/physics/Clip.h"
	.loc 3 191 0
	stw 29,12(3)
.LVL76:
.L34:
.LBE4120:
.LBE4119:
.LBB4121:
.LBB4122:
	.loc 2 2522 0 discriminator 1
	lwz 3,584(30)
.LBE4122:
.LBE4121:
	.loc 2 3935 0 discriminator 1
	lwz 9,0(3)
	lwz 0,28(9)
	mtctr 0
	bctrl
	.loc 2 3936 0 discriminator 1
	mr 4,31
	.loc 2 3935 0 discriminator 1
	cmpw 7,31,3
	addi 31,31,1
.LVL77:
	blt+ 7,.L35
.LBE4123:
	.loc 2 3938 0
	lwz 0,28(1)
	lwz 29,12(1)
.LVL78:
	mtlr 0
	lwz 30,16(1)
.LVL79:
	lwz 31,20(1)
	addi 1,1,24
.LCFI17:
	.cfi_def_cfa_offset 0
	.cfi_restore 31
	.cfi_restore 30
	.cfi_restore 29
	blr
	.cfi_endproc
.LFE2991:
	.size	_ZN8idEntity14Event_SetOwnerEPS_, .-_ZN8idEntity14Event_SetOwnerEPS_
	.align 2
	.globl _ZN8idEntity14Event_SetModelEPKc
	.type	_ZN8idEntity14Event_SetModelEPKc, @function
_ZN8idEntity14Event_SetModelEPKc:
.LFB2992:
	.loc 2 3945 0
	.cfi_startproc
.LVL80:
	mflr 0
	stwu 1,-8(1)
.LCFI18:
	.cfi_def_cfa_offset 8
	.cfi_register 65, 0
	.loc 2 3946 0
	lwz 9,0(3)
	.loc 2 3945 0
	stw 0,12(1)
	.loc 2 3946 0
	lwz 0,44(9)
	.cfi_offset 65, 4
	mtctr 0
	bctrl
.LVL81:
	.loc 2 3947 0
	lwz 0,12(1)
	addi 1,1,8
.LCFI19:
	.cfi_def_cfa_offset 0
	mtlr 0
	blr
	.cfi_endproc
.LFE2992:
	.size	_ZN8idEntity14Event_SetModelEPKc, .-_ZN8idEntity14Event_SetModelEPKc
	.align 2
	.globl _ZN8idEntity14Event_SetColorEfff
	.type	_ZN8idEntity14Event_SetColorEfff, @function
_ZN8idEntity14Event_SetColorEfff:
.LFB2997:
	.loc 2 4000 0
	.cfi_startproc
.LVL82:
	mflr 0
	stwu 1,-8(1)
.LCFI20:
	.cfi_def_cfa_offset 8
	.cfi_register 65, 0
	.loc 2 4001 0
	lwz 9,0(3)
	.loc 2 4000 0
	stw 0,12(1)
	.loc 2 4001 0
	lwz 0,48(9)
	.cfi_offset 65, 4
	mtctr 0
	bctrl
.LVL83:
	.loc 2 4002 0
	lwz 0,12(1)
	addi 1,1,8
.LCFI21:
	.cfi_def_cfa_offset 0
	mtlr 0
	blr
	.cfi_endproc
.LFE2997:
	.size	_ZN8idEntity14Event_SetColorEfff, .-_ZN8idEntity14Event_SetColorEfff
	.align 2
	.globl _ZN8idEntity10Event_HideEv
	.type	_ZN8idEntity10Event_HideEv, @function
_ZN8idEntity10Event_HideEv:
.LFB3000:
	.loc 2 4030 0
	.cfi_startproc
.LVL84:
	mflr 0
	stwu 1,-8(1)
.LCFI22:
	.cfi_def_cfa_offset 8
	.cfi_register 65, 0
	.loc 2 4031 0
	lwz 9,0(3)
	.loc 2 4030 0
	stw 0,12(1)
	.loc 2 4031 0
	lwz 0,76(9)
	.cfi_offset 65, 4
	mtctr 0
	bctrl
.LVL85:
	.loc 2 4032 0
	lwz 0,12(1)
	addi 1,1,8
.LCFI23:
	.cfi_def_cfa_offset 0
	mtlr 0
	blr
	.cfi_endproc
.LFE3000:
	.size	_ZN8idEntity10Event_HideEv, .-_ZN8idEntity10Event_HideEv
	.align 2
	.globl _ZN8idEntity10Event_ShowEv
	.type	_ZN8idEntity10Event_ShowEv, @function
_ZN8idEntity10Event_ShowEv:
.LFB3001:
	.loc 2 4039 0
	.cfi_startproc
.LVL86:
	mflr 0
	stwu 1,-8(1)
.LCFI24:
	.cfi_def_cfa_offset 8
	.cfi_register 65, 0
	.loc 2 4040 0
	lwz 9,0(3)
	.loc 2 4039 0
	stw 0,12(1)
	.loc 2 4040 0
	lwz 0,80(9)
	.cfi_offset 65, 4
	mtctr 0
	bctrl
.LVL87:
	.loc 2 4041 0
	lwz 0,12(1)
	addi 1,1,8
.LCFI25:
	.cfi_def_cfa_offset 0
	mtlr 0
	blr
	.cfi_endproc
.LFE3001:
	.size	_ZN8idEntity10Event_ShowEv, .-_ZN8idEntity10Event_ShowEv
	.align 2
	.globl _ZN8idEntity22Event_CacheSoundShaderEPKc
	.type	_ZN8idEntity22Event_CacheSoundShaderEPKc, @function
_ZN8idEntity22Event_CacheSoundShaderEPKc:
.LFB3002:
	.loc 2 4048 0
	.cfi_startproc
.LVL88:
	.loc 2 4050 0
	blr
	.cfi_endproc
.LFE3002:
	.size	_ZN8idEntity22Event_CacheSoundShaderEPKc, .-_ZN8idEntity22Event_CacheSoundShaderEPKc
	.align 2
	.globl _ZN8idEntity22Event_StartSoundShaderEPKci
	.type	_ZN8idEntity22Event_StartSoundShaderEPKci, @function
_ZN8idEntity22Event_StartSoundShaderEPKci:
.LFB3003:
	.loc 2 4057 0
	.cfi_startproc
.LVL89:
	.loc 2 4062 0
	blr
	.cfi_endproc
.LFE3003:
	.size	_ZN8idEntity22Event_StartSoundShaderEPKci, .-_ZN8idEntity22Event_StartSoundShaderEPKci
	.align 2
	.globl _ZN8idEntity15Event_FadeSoundEiff
	.type	_ZN8idEntity15Event_FadeSoundEiff, @function
_ZN8idEntity15Event_FadeSoundEiff:
.LFB3006:
	.loc 2 4090 0
	.cfi_startproc
.LVL90:
	.loc 2 4094 0
	blr
	.cfi_endproc
.LFE3006:
	.size	_ZN8idEntity15Event_FadeSoundEiff, .-_ZN8idEntity15Event_FadeSoundEiff
	.align 2
	.globl _ZN8idEntity23Event_SetLinearVelocityERK6idVec3
	.type	_ZN8idEntity23Event_SetLinearVelocityERK6idVec3, @function
_ZN8idEntity23Event_SetLinearVelocityERK6idVec3:
.LFB3013:
	.loc 2 4157 0
	.cfi_startproc
.LVL91:
	mflr 0
	stwu 1,-8(1)
.LCFI26:
	.cfi_def_cfa_offset 8
	.cfi_register 65, 0
	.loc 2 4158 0
	li 5,0
	.loc 2 4157 0
	stw 0,12(1)
.LBB4124:
.LBB4125:
	.loc 2 2522 0
	lwz 3,584(3)
.LVL92:
.LBE4125:
.LBE4124:
	.loc 2 4158 0
	lwz 9,0(3)
	lwz 0,140(9)
	.cfi_offset 65, 4
	mtctr 0
	bctrl
.LVL93:
	.loc 2 4159 0
	lwz 0,12(1)
	addi 1,1,8
.LCFI27:
	.cfi_def_cfa_offset 0
	mtlr 0
	blr
	.cfi_endproc
.LFE3013:
	.size	_ZN8idEntity23Event_SetLinearVelocityERK6idVec3, .-_ZN8idEntity23Event_SetLinearVelocityERK6idVec3
	.align 2
	.globl _ZN8idEntity24Event_SetAngularVelocityERK6idVec3
	.type	_ZN8idEntity24Event_SetAngularVelocityERK6idVec3, @function
_ZN8idEntity24Event_SetAngularVelocityERK6idVec3:
.LFB3015:
	.loc 2 4175 0
	.cfi_startproc
.LVL94:
	mflr 0
	stwu 1,-8(1)
.LCFI28:
	.cfi_def_cfa_offset 8
	.cfi_register 65, 0
	.loc 2 4176 0
	li 5,0
	.loc 2 4175 0
	stw 0,12(1)
.LBB4126:
.LBB4127:
	.loc 2 2522 0
	lwz 3,584(3)
.LVL95:
.LBE4127:
.LBE4126:
	.loc 2 4176 0
	lwz 9,0(3)
	lwz 0,144(9)
	.cfi_offset 65, 4
	mtctr 0
	bctrl
.LVL96:
	.loc 2 4177 0
	lwz 0,12(1)
	addi 1,1,8
.LCFI29:
	.cfi_def_cfa_offset 0
	mtlr 0
	blr
	.cfi_endproc
.LFE3015:
	.size	_ZN8idEntity24Event_SetAngularVelocityERK6idVec3, .-_ZN8idEntity24Event_SetAngularVelocityERK6idVec3
	.align 2
	.globl _ZN8idEntity13Event_SetSizeERK6idVec3S2_
	.type	_ZN8idEntity13Event_SetSizeERK6idVec3S2_, @function
_ZN8idEntity13Event_SetSizeERK6idVec3S2_:
.LFB3017:
	.loc 2 4193 0
	.cfi_startproc
.LVL97:
	mflr 0
	stwu 1,-40(1)
.LCFI30:
	.cfi_def_cfa_offset 40
	.cfi_register 65, 0
.LBB4128:
.LBB4129:
.LBB4130:
	.file 4 "d:/Data/Nintendo/DoomGX/src/game/../idlib/../idlib/math/Vector.h"
	.loc 4 426 0
	lwz 9,8(5)
	.loc 4 424 0
	lwz 10,0(5)
.LBE4130:
.LBE4129:
.LBE4128:
	.loc 2 4193 0
	stw 0,44(1)
.LBB4147:
.LBB4134:
.LBB4131:
	.loc 4 425 0
	lwz 11,4(5)
.LBE4131:
.LBE4134:
.LBE4147:
.LBB4148:
.LBB4149:
	.loc 2 2522 0
	lwz 3,584(3)
.LVL98:
.LBE4149:
.LBE4148:
.LBB4150:
.LBB4135:
.LBB4136:
	.loc 4 424 0
	lwz 6,0(4)
.LBE4136:
.LBE4135:
.LBE4150:
	.loc 2 4194 0
	lwz 12,0(3)
.LBB4151:
.LBB4141:
.LBB4137:
	.loc 4 425 0
	lwz 7,4(4)
.LBE4137:
.LBE4141:
.LBE4151:
	.loc 2 4194 0
	lwz 0,20(12)
	.cfi_offset 65, 4
.LVL99:
.LBB4152:
.LBB4142:
.LBB4138:
	.loc 4 426 0
	lwz 8,8(4)
.LBE4138:
.LBE4142:
.LBE4152:
	.loc 2 4194 0
	addi 4,1,8
.LVL100:
.LBB4153:
.LBB4143:
.LBB4132:
	.loc 4 426 0
	stw 9,28(1)
.LBE4132:
.LBE4143:
.LBE4153:
	.loc 2 4194 0
	lis 9,.LC0@ha
.LBB4154:
.LBB4144:
.LBB4139:
	.loc 4 424 0
	stw 6,8(1)
.LBE4139:
.LBE4144:
.LBE4154:
	.loc 2 4194 0
	mtctr 0
.LBB4155:
.LBB4145:
.LBB4140:
	.loc 4 425 0
	stw 7,12(1)
	.loc 4 426 0
	stw 8,16(1)
.LVL101:
.LBE4140:
.LBE4145:
.LBB4146:
.LBB4133:
	.loc 4 424 0
	stw 10,20(1)
	.loc 4 425 0
	stw 11,24(1)
.LBE4133:
.LBE4146:
.LBE4155:
	.loc 2 4194 0
	lfs 1,.LC0@l(9)
	bctrl
.LVL102:
	.loc 2 4195 0
	lwz 0,44(1)
	addi 1,1,40
.LCFI31:
	.cfi_def_cfa_offset 0
	mtlr 0
	blr
	.cfi_endproc
.LFE3017:
	.size	_ZN8idEntity13Event_SetSizeERK6idVec3S2_, .-_ZN8idEntity13Event_SetSizeERK6idVec3S2_
	.align 2
	.globl _ZN8idEntity21Event_SetNeverDormantEi
	.type	_ZN8idEntity21Event_SetNeverDormantEi, @function
_ZN8idEntity21Event_SetNeverDormantEi:
.LFB3040:
	.loc 2 4562 0
	.cfi_startproc
.LVL103:
	.loc 2 4563 0
	cntlzw 4,4
.LVL104:
	lwz 0,192(3)
	srwi 4,4,5
	.loc 2 4565 0
	.loc 2 4563 0
	xori 4,4,1
	rlwimi 0,4,23,8,8
	stw 0,192(3)
	.loc 2 4564 0
	li 0,0
	stw 0,156(3)
	.loc 2 4565 0
	blr
	.cfi_endproc
.LFE3040:
	.size	_ZN8idEntity21Event_SetNeverDormantEi, .-_ZN8idEntity21Event_SetNeverDormantEi
	.align 2
	.globl _ZNK8idEntity15WriteToSnapshotER13idBitMsgDelta
	.type	_ZNK8idEntity15WriteToSnapshotER13idBitMsgDelta, @function
_ZNK8idEntity15WriteToSnapshotER13idBitMsgDelta:
.LFB3048:
	.loc 2 4710 0
	.cfi_startproc
.LVL105:
	.loc 2 4711 0
	blr
	.cfi_endproc
.LFE3048:
	.size	_ZNK8idEntity15WriteToSnapshotER13idBitMsgDelta, .-_ZNK8idEntity15WriteToSnapshotER13idBitMsgDelta
	.align 2
	.globl _ZN8idEntity16ReadFromSnapshotERK13idBitMsgDelta
	.type	_ZN8idEntity16ReadFromSnapshotERK13idBitMsgDelta, @function
_ZN8idEntity16ReadFromSnapshotERK13idBitMsgDelta:
.LFB3049:
	.loc 2 4718 0
	.cfi_startproc
.LVL106:
	.loc 2 4719 0
	blr
	.cfi_endproc
.LFE3049:
	.size	_ZN8idEntity16ReadFromSnapshotERK13idBitMsgDelta, .-_ZN8idEntity16ReadFromSnapshotERK13idBitMsgDelta
	.align 2
	.globl _ZN8idEntity18ServerReceiveEventEiiRK8idBitMsg
	.type	_ZN8idEntity18ServerReceiveEventEiiRK8idBitMsg, @function
_ZN8idEntity18ServerReceiveEventEiiRK8idBitMsg:
.LFB3052:
	.loc 2 4805 0
	.cfi_startproc
.LVL107:
	.loc 2 4813 0
	li 3,0
.LVL108:
	blr
	.cfi_endproc
.LFE3052:
	.size	_ZN8idEntity18ServerReceiveEventEiiRK8idBitMsg, .-_ZN8idEntity18ServerReceiveEventEiiRK8idBitMsg
	.align 2
	.globl _ZNK16idAnimatedEntity7GetTypeEv
	.type	_ZNK16idAnimatedEntity7GetTypeEv, @function
_ZNK16idAnimatedEntity7GetTypeEv:
.LFB3055:
	.loc 2 4872 0
	.cfi_startproc
.LVL109:
	.loc 2 4872 0
	lis 3,.LANCHOR0@ha
.LVL110:
	la 3,.LANCHOR0@l(3)
	addi 3,3,80
	blr
	.cfi_endproc
.LFE3055:
	.size	_ZNK16idAnimatedEntity7GetTypeEv, .-_ZNK16idAnimatedEntity7GetTypeEv
	.align 2
	.globl _ZN16idAnimatedEntity11GetAnimatorEv
	.type	_ZN16idAnimatedEntity11GetAnimatorEv, @function
_ZN16idAnimatedEntity11GetAnimatorEv:
.LFB3068:
	.loc 2 5015 0
	.cfi_startproc
.LVL111:
	.loc 2 5017 0
	addi 3,3,636
.LVL112:
	blr
	.cfi_endproc
.LFE3068:
	.size	_ZN16idAnimatedEntity11GetAnimatorEv, .-_ZN16idAnimatedEntity11GetAnimatorEv
	.align 2
	.globl _ZNK16idAnimatedEntity21GetDefaultSurfaceTypeEv
	.type	_ZNK16idAnimatedEntity21GetDefaultSurfaceTypeEv, @function
_ZNK16idAnimatedEntity21GetDefaultSurfaceTypeEv:
.LFB3073:
	.loc 2 5151 0
	.cfi_startproc
.LVL113:
	.loc 2 5153 0
	li 3,1
.LVL114:
	blr
	.cfi_endproc
.LFE3073:
	.size	_ZNK16idAnimatedEntity21GetDefaultSurfaceTypeEv, .-_ZNK16idAnimatedEntity21GetDefaultSurfaceTypeEv
	.section	.text._ZN14idCurve_SplineI6idVec3E15SetBoundaryTypeENS1_10boundary_tE,"axG",@progbits,_ZN14idCurve_SplineI6idVec3E15SetBoundaryTypeENS1_10boundary_tE,comdat
	.align 2
	.weak	_ZN14idCurve_SplineI6idVec3E15SetBoundaryTypeENS1_10boundary_tE
	.type	_ZN14idCurve_SplineI6idVec3E15SetBoundaryTypeENS1_10boundary_tE, @function
_ZN14idCurve_SplineI6idVec3E15SetBoundaryTypeENS1_10boundary_tE:
.LFB3353:
	.file 5 "d:/Data/Nintendo/DoomGX/src/game/../idlib/../idlib/math/Curve.h"
	.loc 5 939 0
	.cfi_startproc
.LVL115:
	.loc 5 939 0
	li 0,1
	stw 4,44(3)
	stb 0,40(3)
	blr
	.cfi_endproc
.LFE3353:
	.size	_ZN14idCurve_SplineI6idVec3E15SetBoundaryTypeENS1_10boundary_tE, .-_ZN14idCurve_SplineI6idVec3E15SetBoundaryTypeENS1_10boundary_tE
	.section	.text._ZNK14idCurve_SplineI6idVec3E6IsDoneEf,"axG",@progbits,_ZNK14idCurve_SplineI6idVec3E6IsDoneEf,comdat
	.align 2
	.weak	_ZNK14idCurve_SplineI6idVec3E6IsDoneEf
	.type	_ZNK14idCurve_SplineI6idVec3E6IsDoneEf, @function
_ZNK14idCurve_SplineI6idVec3E6IsDoneEf:
.LFB3452:
	.loc 5 1051 0
	.cfi_startproc
.LVL116:
	.loc 5 1052 0
	lwz 0,44(3)
	.loc 5 1051 0
	mr 9,3
	.loc 5 1052 0
	li 3,0
.LVL117:
	cmpwi 7,0,2
	beqlr- 7
.LVL118:
.LBB4156:
.LBB4157:
	.file 6 "d:/Data/Nintendo/DoomGX/src/game/../idlib/../idlib/containers/List.h"
	.loc 6 573 0 discriminator 1
	lwz 11,4(9)
.LBE4157:
.LBE4156:
	.loc 5 1052 0 discriminator 1
	lwz 9,16(9)
.LVL119:
.LBB4159:
.LBB4158:
	.loc 6 573 0 discriminator 1
	addi 0,11,-1
.LBE4158:
.LBE4159:
	.loc 5 1052 0 discriminator 1
	slwi 0,0,2
	lfsx 0,9,0
	fcmpu 7,0,1
	cror 30,28,30
	mfcr 3
	rlwinm 3,3,31,1
	.loc 5 1053 0 discriminator 1
	blr
	.cfi_endproc
.LFE3452:
	.size	_ZNK14idCurve_SplineI6idVec3E6IsDoneEf, .-_ZNK14idCurve_SplineI6idVec3E6IsDoneEf
	.section	.text._ZNK14idCurve_SplineI6idVec3E15GetBoundaryTypeEv,"axG",@progbits,_ZNK14idCurve_SplineI6idVec3E15GetBoundaryTypeEv,comdat
	.align 2
	.weak	_ZNK14idCurve_SplineI6idVec3E15GetBoundaryTypeEv
	.type	_ZNK14idCurve_SplineI6idVec3E15GetBoundaryTypeEv, @function
_ZNK14idCurve_SplineI6idVec3E15GetBoundaryTypeEv:
.LFB3453:
	.loc 5 940 0
	.cfi_startproc
.LVL120:
	.loc 5 940 0
	lwz 3,44(3)
.LVL121:
	blr
	.cfi_endproc
.LFE3453:
	.size	_ZNK14idCurve_SplineI6idVec3E15GetBoundaryTypeEv, .-_ZNK14idCurve_SplineI6idVec3E15GetBoundaryTypeEv
	.section	.text._ZN14idCurve_SplineI6idVec3E12SetCloseTimeEf,"axG",@progbits,_ZN14idCurve_SplineI6idVec3E12SetCloseTimeEf,comdat
	.align 2
	.weak	_ZN14idCurve_SplineI6idVec3E12SetCloseTimeEf
	.type	_ZN14idCurve_SplineI6idVec3E12SetCloseTimeEf, @function
_ZN14idCurve_SplineI6idVec3E12SetCloseTimeEf:
.LFB3454:
	.loc 5 942 0
	.cfi_startproc
.LVL122:
	.loc 5 942 0
	li 0,1
	stfs 1,48(3)
	stb 0,40(3)
	blr
	.cfi_endproc
.LFE3454:
	.size	_ZN14idCurve_SplineI6idVec3E12SetCloseTimeEf, .-_ZN14idCurve_SplineI6idVec3E12SetCloseTimeEf
	.section	.text._ZN14idCurve_SplineI6idVec3E12GetCloseTimeEv,"axG",@progbits,_ZN14idCurve_SplineI6idVec3E12GetCloseTimeEv,comdat
	.align 2
	.weak	_ZN14idCurve_SplineI6idVec3E12GetCloseTimeEv
	.type	_ZN14idCurve_SplineI6idVec3E12GetCloseTimeEv, @function
_ZN14idCurve_SplineI6idVec3E12GetCloseTimeEv:
.LFB3455:
	.loc 5 943 0
	.cfi_startproc
.LVL123:
	.loc 5 943 0
	lwz 0,44(3)
	lis 9,.LC1@ha
	lfs 1,.LC1@l(9)
	cmpwi 7,0,2
	bnelr+ 7
	.loc 5 943 0 is_stmt 0 discriminator 1
	lfs 1,48(3)
	blr
	.cfi_endproc
.LFE3455:
	.size	_ZN14idCurve_SplineI6idVec3E12GetCloseTimeEv, .-_ZN14idCurve_SplineI6idVec3E12GetCloseTimeEv
	.section	.text._ZNK15idCurve_BSplineI6idVec3E8GetOrderEv,"axG",@progbits,_ZNK15idCurve_BSplineI6idVec3E8GetOrderEv,comdat
	.align 2
	.weak	_ZNK15idCurve_BSplineI6idVec3E8GetOrderEv
	.type	_ZNK15idCurve_BSplineI6idVec3E8GetOrderEv, @function
_ZNK15idCurve_BSplineI6idVec3E8GetOrderEv:
.LFB3456:
	.loc 5 1803 0 is_stmt 1
	.cfi_startproc
.LVL124:
	.loc 5 1803 0
	lwz 3,52(3)
.LVL125:
	blr
	.cfi_endproc
.LFE3456:
	.size	_ZNK15idCurve_BSplineI6idVec3E8GetOrderEv, .-_ZNK15idCurve_BSplineI6idVec3E8GetOrderEv
	.section	.text._ZN15idCurve_BSplineI6idVec3E8SetOrderEi,"axG",@progbits,_ZN15idCurve_BSplineI6idVec3E8SetOrderEi,comdat
	.align 2
	.weak	_ZN15idCurve_BSplineI6idVec3E8SetOrderEi
	.type	_ZN15idCurve_BSplineI6idVec3E8SetOrderEi, @function
_ZN15idCurve_BSplineI6idVec3E8SetOrderEi:
.LFB3457:
	.loc 5 1804 0
	.cfi_startproc
.LVL126:
	.loc 5 1804 0
	stw 4,52(3)
	blr
	.cfi_endproc
.LFE3457:
	.size	_ZN15idCurve_BSplineI6idVec3E8SetOrderEi, .-_ZN15idCurve_BSplineI6idVec3E8SetOrderEi
	.section	.text._ZNK7idCurveI6idVec3E25GetCurrentFirstDerivativeEf,"axG",@progbits,_ZNK7idCurveI6idVec3E25GetCurrentFirstDerivativeEf,comdat
	.align 2
	.weak	_ZNK7idCurveI6idVec3E25GetCurrentFirstDerivativeEf
	.type	_ZNK7idCurveI6idVec3E25GetCurrentFirstDerivativeEf, @function
_ZNK7idCurveI6idVec3E25GetCurrentFirstDerivativeEf:
.LFB3471:
	.loc 5 153 0
	.cfi_startproc
.LVL127:
	.loc 2 5400 0
	lwz 11,32(4)
.LVL128:
.LBB4160:
.LBB4161:
	.loc 4 431 0
	lfs 12,0(11)
	lfs 13,4(11)
	lfs 0,8(11)
.LVL129:
	fsubs 12,12,12
	fsubs 13,13,13
.LBE4161:
.LBE4160:
	.loc 5 155 0
.LBB4165:
.LBB4164:
	.loc 4 431 0
	fsubs 0,0,0
.LBB4162:
.LBB4163:
	.loc 4 396 0
	stfs 12,0(3)
	.loc 4 397 0
	stfs 13,4(3)
	.loc 4 398 0
	stfs 0,8(3)
.LBE4163:
.LBE4162:
.LBE4164:
.LBE4165:
	.loc 5 155 0
	blr
	.cfi_endproc
.LFE3471:
	.size	_ZNK7idCurveI6idVec3E25GetCurrentFirstDerivativeEf, .-_ZNK7idCurveI6idVec3E25GetCurrentFirstDerivativeEf
	.section	.text._ZNK7idCurveI6idVec3E26GetCurrentSecondDerivativeEf,"axG",@progbits,_ZNK7idCurveI6idVec3E26GetCurrentSecondDerivativeEf,comdat
	.align 2
	.weak	_ZNK7idCurveI6idVec3E26GetCurrentSecondDerivativeEf
	.type	_ZNK7idCurveI6idVec3E26GetCurrentSecondDerivativeEf, @function
_ZNK7idCurveI6idVec3E26GetCurrentSecondDerivativeEf:
.LFB3472:
	.loc 5 165 0
	.cfi_startproc
.LVL130:
	.loc 2 5400 0
	lwz 11,32(4)
.LVL131:
.LBB4166:
.LBB4167:
	.loc 4 431 0
	lfs 12,0(11)
	lfs 13,4(11)
	lfs 0,8(11)
.LVL132:
	fsubs 12,12,12
	fsubs 13,13,13
.LBE4167:
.LBE4166:
	.loc 5 167 0
.LBB4171:
.LBB4170:
	.loc 4 431 0
	fsubs 0,0,0
.LBB4168:
.LBB4169:
	.loc 4 396 0
	stfs 12,0(3)
	.loc 4 397 0
	stfs 13,4(3)
	.loc 4 398 0
	stfs 0,8(3)
.LBE4169:
.LBE4168:
.LBE4170:
.LBE4171:
	.loc 5 167 0
	blr
	.cfi_endproc
.LFE3472:
	.size	_ZNK7idCurveI6idVec3E26GetCurrentSecondDerivativeEf, .-_ZNK7idCurveI6idVec3E26GetCurrentSecondDerivativeEf
	.section	.text._ZNK7idCurveI6idVec3E6IsDoneEf,"axG",@progbits,_ZNK7idCurveI6idVec3E6IsDoneEf,comdat
	.align 2
	.weak	_ZNK7idCurveI6idVec3E6IsDoneEf
	.type	_ZNK7idCurveI6idVec3E6IsDoneEf, @function
_ZNK7idCurveI6idVec3E6IsDoneEf:
.LFB3473:
	.loc 5 175 0
	.cfi_startproc
.LVL133:
.LBB4172:
.LBB4173:
	.loc 6 573 0
	lwz 11,4(3)
.LBE4173:
.LBE4172:
	.loc 5 176 0
	lwz 9,16(3)
.LBB4175:
.LBB4174:
	.loc 6 573 0
	addi 0,11,-1
.LBE4174:
.LBE4175:
	.loc 5 176 0
	slwi 0,0,2
	lfsx 0,9,0
	.loc 5 177 0
	.loc 5 176 0
	fcmpu 7,0,1
	cror 30,28,30
	.loc 5 177 0
	mfcr 3
	rlwinm 3,3,31,1
.LVL134:
	blr
	.cfi_endproc
.LFE3473:
	.size	_ZNK7idCurveI6idVec3E6IsDoneEf, .-_ZNK7idCurveI6idVec3E6IsDoneEf
	.section	.text._ZN9idWinding5ClearEv,"axG",@progbits,_ZN9idWinding5ClearEv,comdat
	.align 2
	.weak	_ZN9idWinding5ClearEv
	.type	_ZN9idWinding5ClearEv, @function
_ZN9idWinding5ClearEv:
.LFB1473:
	.loc 1 249 0
	.cfi_startproc
.LVL135:
	mflr 0
	stwu 1,-16(1)
.LCFI32:
	.cfi_def_cfa_offset 16
	.cfi_register 65, 0
	stw 31,12(1)
	mr 31,3
	.cfi_offset 31, -4
	stw 0,20(1)
	.loc 1 250 0
	li 0,0
	.cfi_offset 65, 4
	.loc 1 251 0
	lwz 3,8(3)
.LVL136:
	.loc 1 250 0
	stw 0,4(31)
	.loc 1 251 0
	cmpwi 7,3,0
	beq- 7,.L69
	.loc 1 251 0 is_stmt 0 discriminator 1
	bl _ZdaPv
.L69:
	.loc 1 252 0 is_stmt 1
	li 0,0
	stw 0,8(31)
	.loc 1 253 0
	lwz 0,20(1)
	lwz 31,12(1)
.LVL137:
	mtlr 0
	addi 1,1,16
.LCFI33:
	.cfi_def_cfa_offset 0
	.cfi_restore 31
	blr
	.cfi_endproc
.LFE1473:
	.size	_ZN9idWinding5ClearEv, .-_ZN9idWinding5ClearEv
	.section	.text._ZN9idWindingD2Ev,"axG",@progbits,_ZN9idWindingD5Ev,comdat
	.align 2
	.weak	_ZN9idWindingD2Ev
	.type	_ZN9idWindingD2Ev, @function
_ZN9idWindingD2Ev:
.LFB1461:
	.loc 1 183 0
	.cfi_startproc
.LVL138:
	mflr 0
	stwu 1,-16(1)
.LCFI34:
	.cfi_def_cfa_offset 16
	.cfi_register 65, 0
.LBB4177:
	lis 9,_ZTV9idWinding+8@ha
.LBE4177:
	stw 31,12(1)
	mr 31,3
	.cfi_offset 31, -4
	stw 0,20(1)
.LBB4178:
	.loc 1 183 0
	la 0,_ZTV9idWinding+8@l(9)
	.cfi_offset 65, 4
	.loc 1 184 0
	lwz 3,8(3)
.LVL139:
	.loc 1 183 0
	stw 0,0(31)
	.loc 1 184 0
	cmpwi 7,3,0
	beq- 7,.L71
	.loc 1 184 0 is_stmt 0 discriminator 1
	bl _ZdaPv
.L71:
	.loc 1 185 0 is_stmt 1
	li 0,0
	stw 0,8(31)
.LBE4178:
	.loc 1 186 0
	lwz 0,20(1)
	lwz 31,12(1)
.LVL140:
	mtlr 0
	addi 1,1,16
.LCFI35:
	.cfi_def_cfa_offset 0
	.cfi_restore 31
	blr
	.cfi_endproc
.LFE1461:
	.size	_ZN9idWindingD2Ev, .-_ZN9idWindingD2Ev
	.section	".text"
	.align 2
	.globl _ZN8idEntity14Event_GetColorEv
	.type	_ZN8idEntity14Event_GetColorEv, @function
_ZN8idEntity14Event_GetColorEv:
.LFB2998:
	.loc 2 4009 0
	.cfi_startproc
.LVL141:
	mflr 0
	stwu 1,-24(1)
.LCFI36:
	.cfi_def_cfa_offset 24
	.cfi_register 65, 0
.LBB4179:
	.loc 2 4012 0
	addi 4,1,8
.LBE4179:
	.loc 2 4009 0
	stw 0,28(1)
.LBB4180:
	.loc 2 4012 0
	lwz 9,0(3)
	lwz 0,56(9)
	.cfi_offset 65, 4
	mtctr 0
	bctrl
.LVL142:
	.loc 2 4013 0
	addi 3,1,8
	bl _ZN8idThread12ReturnVectorERK6idVec3
.LBE4180:
	.loc 2 4014 0
	lwz 0,28(1)
	addi 1,1,24
.LCFI37:
	.cfi_def_cfa_offset 0
	mtlr 0
	blr
	.cfi_endproc
.LFE2998:
	.size	_ZN8idEntity14Event_GetColorEv, .-_ZN8idEntity14Event_GetColorEv
	.align 2
	.globl _ZN8idEntity13Event_GetMaxsEv
	.type	_ZN8idEntity13Event_GetMaxsEv, @function
_ZN8idEntity13Event_GetMaxsEv:
.LFB3020:
	.loc 2 4223 0
	.cfi_startproc
.LVL143:
	mflr 0
	stwu 1,-8(1)
.LCFI38:
	.cfi_def_cfa_offset 8
	.cfi_register 65, 0
	.loc 2 4224 0
	li 4,-1
	.loc 2 4223 0
	stw 0,12(1)
.LBB4181:
.LBB4182:
	.loc 2 2522 0
	lwz 3,584(3)
.LVL144:
.LBE4182:
.LBE4181:
	.loc 2 4224 0
	lwz 9,0(3)
	lwz 0,56(9)
	.cfi_offset 65, 4
	mtctr 0
	bctrl
.LVL145:
	addi 3,3,12
.LVL146:
	bl _ZN8idThread12ReturnVectorERK6idVec3
.LVL147:
	.loc 2 4225 0
	lwz 0,12(1)
	addi 1,1,8
.LCFI39:
	.cfi_def_cfa_offset 0
	mtlr 0
	blr
	.cfi_endproc
.LFE3020:
	.size	_ZN8idEntity13Event_GetMaxsEv, .-_ZN8idEntity13Event_GetMaxsEv
	.align 2
	.globl _ZN8idEntity13Event_GetMinsEv
	.type	_ZN8idEntity13Event_GetMinsEv, @function
_ZN8idEntity13Event_GetMinsEv:
.LFB3019:
	.loc 2 4214 0
	.cfi_startproc
.LVL148:
	mflr 0
	stwu 1,-8(1)
.LCFI40:
	.cfi_def_cfa_offset 8
	.cfi_register 65, 0
	.loc 2 4215 0
	li 4,-1
	.loc 2 4214 0
	stw 0,12(1)
.LBB4183:
.LBB4184:
	.loc 2 2522 0
	lwz 3,584(3)
.LVL149:
.LBE4184:
.LBE4183:
	.loc 2 4215 0
	lwz 9,0(3)
	lwz 0,56(9)
	.cfi_offset 65, 4
	mtctr 0
	bctrl
.LVL150:
	bl _ZN8idThread12ReturnVectorERK6idVec3
	.loc 2 4216 0
	lwz 0,12(1)
	addi 1,1,8
.LCFI41:
	.cfi_def_cfa_offset 0
	mtlr 0
	blr
	.cfi_endproc
.LFE3019:
	.size	_ZN8idEntity13Event_GetMinsEv, .-_ZN8idEntity13Event_GetMinsEv
	.align 2
	.globl _ZN8idEntity13Event_GetSizeEv
	.type	_ZN8idEntity13Event_GetSizeEv, @function
_ZN8idEntity13Event_GetSizeEv:
.LFB3018:
	.loc 2 4202 0
	.cfi_startproc
.LVL151:
	mflr 0
	stwu 1,-24(1)
.LCFI42:
	.cfi_def_cfa_offset 24
	.cfi_register 65, 0
.LBB4185:
	.loc 2 4205 0
	li 4,-1
.LBE4185:
	.loc 2 4202 0
	stw 0,28(1)
.LBB4194:
.LBB4186:
.LBB4187:
	.loc 2 2522 0
	lwz 3,584(3)
.LVL152:
.LBE4187:
.LBE4186:
	.loc 2 4205 0
	lwz 9,0(3)
	lwz 0,56(9)
	.cfi_offset 65, 4
	mtctr 0
	bctrl
.LVL153:
.LBB4188:
.LBB4189:
	.loc 4 431 0
	lfs 13,0(3)
	lfs 12,4(3)
	lfs 0,8(3)
	lfs 9,16(3)
	lfs 10,20(3)
	lfs 11,12(3)
	fsubs 12,9,12
	fsubs 0,10,0
.LVL154:
.LBE4189:
.LBE4188:
	.loc 2 4206 0
	addi 3,1,8
.LVL155:
.LBB4193:
.LBB4192:
	.loc 4 431 0
	fsubs 13,11,13
.LBB4190:
.LBB4191:
	.loc 4 397 0
	stfs 12,12(1)
	.loc 4 398 0
	stfs 0,16(1)
	.loc 4 396 0
	stfs 13,8(1)
.LBE4191:
.LBE4190:
.LBE4192:
.LBE4193:
	.loc 2 4206 0
	bl _ZN8idThread12ReturnVectorERK6idVec3
.LVL156:
.LBE4194:
	.loc 2 4207 0
	lwz 0,28(1)
	addi 1,1,24
.LCFI43:
	.cfi_def_cfa_offset 0
	mtlr 0
	blr
	.cfi_endproc
.LFE3018:
	.size	_ZN8idEntity13Event_GetSizeEv, .-_ZN8idEntity13Event_GetSizeEv
	.align 2
	.globl _ZN8idEntity24Event_GetAngularVelocityEv
	.type	_ZN8idEntity24Event_GetAngularVelocityEv, @function
_ZN8idEntity24Event_GetAngularVelocityEv:
.LFB3016:
	.loc 2 4184 0
	.cfi_startproc
.LVL157:
	mflr 0
	stwu 1,-8(1)
.LCFI44:
	.cfi_def_cfa_offset 8
	.cfi_register 65, 0
	.loc 2 4185 0
	li 4,0
	.loc 2 4184 0
	stw 0,12(1)
.LBB4195:
.LBB4196:
	.loc 2 2522 0
	lwz 3,584(3)
.LVL158:
.LBE4196:
.LBE4195:
	.loc 2 4185 0
	lwz 9,0(3)
	lwz 0,152(9)
	.cfi_offset 65, 4
	mtctr 0
	bctrl
	bl _ZN8idThread12ReturnVectorERK6idVec3
	.loc 2 4186 0
	lwz 0,12(1)
	addi 1,1,8
.LCFI45:
	.cfi_def_cfa_offset 0
	mtlr 0
	blr
	.cfi_endproc
.LFE3016:
	.size	_ZN8idEntity24Event_GetAngularVelocityEv, .-_ZN8idEntity24Event_GetAngularVelocityEv
	.align 2
	.globl _ZN8idEntity23Event_GetLinearVelocityEv
	.type	_ZN8idEntity23Event_GetLinearVelocityEv, @function
_ZN8idEntity23Event_GetLinearVelocityEv:
.LFB3014:
	.loc 2 4166 0
	.cfi_startproc
.LVL159:
	mflr 0
	stwu 1,-8(1)
.LCFI46:
	.cfi_def_cfa_offset 8
	.cfi_register 65, 0
	.loc 2 4167 0
	li 4,0
	.loc 2 4166 0
	stw 0,12(1)
.LBB4197:
.LBB4198:
	.loc 2 2522 0
	lwz 3,584(3)
.LVL160:
.LBE4198:
.LBE4197:
	.loc 2 4167 0
	lwz 9,0(3)
	lwz 0,148(9)
	.cfi_offset 65, 4
	mtctr 0
	bctrl
	bl _ZN8idThread12ReturnVectorERK6idVec3
	.loc 2 4168 0
	lwz 0,12(1)
	addi 1,1,8
.LCFI47:
	.cfi_def_cfa_offset 0
	mtlr 0
	blr
	.cfi_endproc
.LFE3014:
	.size	_ZN8idEntity23Event_GetLinearVelocityEv, .-_ZN8idEntity23Event_GetLinearVelocityEv
	.align 2
	.globl _ZN8idEntity15Event_GetAnglesEv
	.type	_ZN8idEntity15Event_GetAnglesEv, @function
_ZN8idEntity15Event_GetAnglesEv:
.LFB3012:
	.loc 2 4147 0
	.cfi_startproc
.LVL161:
	mflr 0
	stwu 1,-40(1)
.LCFI48:
	.cfi_def_cfa_offset 40
	.cfi_register 65, 0
.LBB4199:
	.loc 2 4148 0
	li 4,0
.LBE4199:
	.loc 2 4147 0
	stw 0,44(1)
.LBB4204:
.LBB4200:
.LBB4201:
	.loc 2 2522 0
	lwz 3,584(3)
.LVL162:
.LBE4201:
.LBE4200:
	.loc 2 4148 0
	lwz 9,0(3)
	lwz 0,136(9)
	.cfi_offset 65, 4
	mtctr 0
	bctrl
	mr 4,3
	addi 3,1,20
	bl _ZNK6idMat38ToAnglesEv
.LVL163:
	.loc 2 4149 0
	lwz 0,28(1)
	lwz 9,24(1)
.LVL164:
	addi 3,1,8
.LBB4202:
.LBB4203:
	.loc 4 396 0
	lwz 11,20(1)
	.loc 4 398 0
	stw 0,16(1)
	.loc 4 396 0
	stw 11,8(1)
	.loc 4 397 0
	stw 9,12(1)
.LBE4203:
.LBE4202:
	.loc 2 4149 0
	bl _ZN8idThread12ReturnVectorERK6idVec3
.LBE4204:
	.loc 2 4150 0
	lwz 0,44(1)
	addi 1,1,40
.LCFI49:
	.cfi_def_cfa_offset 0
	mtlr 0
	blr
	.cfi_endproc
.LFE3012:
	.size	_ZN8idEntity15Event_GetAnglesEv, .-_ZN8idEntity15Event_GetAnglesEv
	.align 2
	.globl _ZN8idEntity20Event_GetWorldOriginEv
	.type	_ZN8idEntity20Event_GetWorldOriginEv, @function
_ZN8idEntity20Event_GetWorldOriginEv:
.LFB3007:
	.loc 2 4101 0
	.cfi_startproc
.LVL165:
	mflr 0
	stwu 1,-8(1)
.LCFI50:
	.cfi_def_cfa_offset 8
	.cfi_register 65, 0
	.loc 2 4102 0
	li 4,0
	.loc 2 4101 0
	stw 0,12(1)
.LBB4205:
.LBB4206:
	.loc 2 2522 0
	lwz 3,584(3)
.LVL166:
.LBE4206:
.LBE4205:
	.loc 2 4102 0
	lwz 9,0(3)
	lwz 0,132(9)
	.cfi_offset 65, 4
	mtctr 0
	bctrl
	bl _ZN8idThread12ReturnVectorERK6idVec3
	.loc 2 4103 0
	lwz 0,12(1)
	addi 1,1,8
.LCFI51:
	.cfi_def_cfa_offset 0
	mtlr 0
	blr
	.cfi_endproc
.LFE3007:
	.size	_ZN8idEntity20Event_GetWorldOriginEv, .-_ZN8idEntity20Event_GetWorldOriginEv
	.align 2
	.globl _ZN16idAnimatedEntity19Event_SetJointAngleE13jointHandle_t19jointModTransform_tRK8idAngles
	.type	_ZN16idAnimatedEntity19Event_SetJointAngleE13jointHandle_t19jointModTransform_tRK8idAngles, @function
_ZN16idAnimatedEntity19Event_SetJointAngleE13jointHandle_t19jointModTransform_tRK8idAngles:
.LFB3084:
	.loc 2 5357 0
	.cfi_startproc
.LVL167:
	stwu 1,-104(1)
.LCFI52:
	.cfi_def_cfa_offset 104
	mflr 0
	stw 30,96(1)
	mr 30,3
	.cfi_offset 30, -8
	.cfi_register 65, 0
	stw 31,100(1)
.LBB4207:
	.loc 2 5360 0
	addi 3,1,8
.LVL168:
.LBE4207:
	.loc 2 5357 0
	mr 31,4
	.cfi_offset 31, -4
.LBB4216:
	.loc 2 5360 0
	mr 4,6
.LVL169:
	stw 5,88(1)
.LBE4216:
	.loc 2 5357 0
	stw 0,108(1)
.LBB4217:
	.loc 2 5360 0
	.cfi_offset 65, 4
	bl _ZNK8idAngles6ToMat3Ev
.LVL170:
	lwz 5,88(1)
	li 10,0
.L82:
.LBB4208:
.LBB4209:
.LBB4210:
.LBB4211:
	.loc 4 424 0
	addi 11,1,8
.LVL171:
.LBE4211:
.LBE4210:
	.file 7 "d:/Data/Nintendo/DoomGX/src/game/../idlib/../idlib/math/Matrix.h"
	.loc 7 333 0
	cmpwi 7,10,24
.LBB4214:
.LBB4212:
	.loc 4 424 0
	lwzux 0,11,10
.LVL172:
	addi 9,1,44
	stwux 0,9,10
.LBE4212:
.LBE4214:
	.loc 7 333 0
	addi 10,10,12
.LBB4215:
.LBB4213:
	.loc 4 425 0
	lwz 8,4(11)
	.loc 4 426 0
	lwz 0,8(11)
	.loc 4 425 0
	stw 8,4(9)
	.loc 4 426 0
	stw 0,8(9)
.LBE4213:
.LBE4215:
	.loc 7 333 0
	bne+ 7,.L82
.LBE4209:
.LBE4208:
	.loc 2 5361 0
	addi 3,30,636
	mr 4,31
	addi 6,1,44
	bl _ZN10idAnimator12SetJointAxisE13jointHandle_t19jointModTransform_tRK6idMat3
.LBE4217:
	.loc 2 5362 0
	lwz 0,108(1)
	lwz 30,96(1)
.LVL173:
	mtlr 0
	lwz 31,100(1)
.LVL174:
	addi 1,1,104
.LCFI53:
	.cfi_def_cfa_offset 0
	.cfi_restore 31
	.cfi_restore 30
	blr
	.cfi_endproc
.LFE3084:
	.size	_ZN16idAnimatedEntity19Event_SetJointAngleE13jointHandle_t19jointModTransform_tRK8idAngles, .-_ZN16idAnimatedEntity19Event_SetJointAngleE13jointHandle_t19jointModTransform_tRK8idAngles
	.align 2
	.globl _ZN16idAnimatedEntity17Event_SetJointPosE13jointHandle_t19jointModTransform_tRK6idVec3
	.type	_ZN16idAnimatedEntity17Event_SetJointPosE13jointHandle_t19jointModTransform_tRK6idVec3, @function
_ZN16idAnimatedEntity17Event_SetJointPosE13jointHandle_t19jointModTransform_tRK6idVec3:
.LFB3083:
	.loc 2 5346 0
	.cfi_startproc
.LVL175:
	mflr 0
	stwu 1,-8(1)
.LCFI54:
	.cfi_def_cfa_offset 8
	.cfi_register 65, 0
	.loc 2 5347 0
	addi 3,3,636
.LVL176:
	.loc 2 5346 0
	stw 0,12(1)
	.loc 2 5347 0
	.cfi_offset 65, 4
	bl _ZN10idAnimator11SetJointPosE13jointHandle_t19jointModTransform_tRK6idVec3
.LVL177:
	.loc 2 5348 0
	lwz 0,12(1)
	addi 1,1,8
.LCFI55:
	.cfi_def_cfa_offset 0
	mtlr 0
	blr
	.cfi_endproc
.LFE3083:
	.size	_ZN16idAnimatedEntity17Event_SetJointPosE13jointHandle_t19jointModTransform_tRK6idVec3, .-_ZN16idAnimatedEntity17Event_SetJointPosE13jointHandle_t19jointModTransform_tRK6idVec3
	.align 2
	.globl _ZN16idAnimatedEntity16Event_ClearJointE13jointHandle_t
	.type	_ZN16idAnimatedEntity16Event_ClearJointE13jointHandle_t, @function
_ZN16idAnimatedEntity16Event_ClearJointE13jointHandle_t:
.LFB3082:
	.loc 2 5335 0
	.cfi_startproc
.LVL178:
	mflr 0
	stwu 1,-8(1)
.LCFI56:
	.cfi_def_cfa_offset 8
	.cfi_register 65, 0
	.loc 2 5336 0
	addi 3,3,636
.LVL179:
	.loc 2 5335 0
	stw 0,12(1)
	.loc 2 5336 0
	.cfi_offset 65, 4
	bl _ZN10idAnimator10ClearJointE13jointHandle_t
.LVL180:
	.loc 2 5337 0
	lwz 0,12(1)
	addi 1,1,8
.LCFI57:
	.cfi_def_cfa_offset 0
	mtlr 0
	blr
	.cfi_endproc
.LFE3082:
	.size	_ZN16idAnimatedEntity16Event_ClearJointE13jointHandle_t, .-_ZN16idAnimatedEntity16Event_ClearJointE13jointHandle_t
	.align 2
	.globl _ZN16idAnimatedEntity20Event_ClearAllJointsEv
	.type	_ZN16idAnimatedEntity20Event_ClearAllJointsEv, @function
_ZN16idAnimatedEntity20Event_ClearAllJointsEv:
.LFB3081:
	.loc 2 5324 0
	.cfi_startproc
.LVL181:
	mflr 0
	stwu 1,-8(1)
.LCFI58:
	.cfi_def_cfa_offset 8
	.cfi_register 65, 0
	.loc 2 5325 0
	addi 3,3,636
.LVL182:
	.loc 2 5324 0
	stw 0,12(1)
	.loc 2 5325 0
	.cfi_offset 65, 4
	bl _ZN10idAnimator14ClearAllJointsEv
.LVL183:
	.loc 2 5326 0
	lwz 0,12(1)
	addi 1,1,8
.LCFI59:
	.cfi_def_cfa_offset 0
	mtlr 0
	blr
	.cfi_endproc
.LFE3081:
	.size	_ZN16idAnimatedEntity20Event_ClearAllJointsEv, .-_ZN16idAnimatedEntity20Event_ClearAllJointsEv
	.align 2
	.globl _ZN16idAnimatedEntity20Event_GetJointHandleEPKc
	.type	_ZN16idAnimatedEntity20Event_GetJointHandleEPKc, @function
_ZN16idAnimatedEntity20Event_GetJointHandleEPKc:
.LFB3080:
	.loc 2 5310 0
	.cfi_startproc
.LVL184:
	mflr 0
	stwu 1,-8(1)
.LCFI60:
	.cfi_def_cfa_offset 8
	.cfi_register 65, 0
.LBB4218:
	.loc 2 5313 0
	addi 3,3,636
.LVL185:
.LBE4218:
	.loc 2 5310 0
	stw 0,12(1)
.LBB4219:
	.loc 2 5313 0
	.cfi_offset 65, 4
	bl _ZNK10idAnimator14GetJointHandleEPKc
.LVL186:
	.loc 2 5314 0
	bl _ZN8idThread9ReturnIntEi
.LBE4219:
	.loc 2 5315 0
	lwz 0,12(1)
	addi 1,1,8
.LCFI61:
	.cfi_def_cfa_offset 0
	mtlr 0
	blr
	.cfi_endproc
.LFE3080:
	.size	_ZN16idAnimatedEntity20Event_GetJointHandleEPKc, .-_ZN16idAnimatedEntity20Event_GetJointHandleEPKc
	.align 2
	.globl _ZN8idEntity14Event_IsHiddenEv
	.type	_ZN8idEntity14Event_IsHiddenEv, @function
_ZN8idEntity14Event_IsHiddenEv:
.LFB2999:
	.loc 2 4021 0
	.cfi_startproc
.LVL187:
	mflr 0
	stwu 1,-8(1)
.LCFI62:
	.cfi_def_cfa_offset 8
	.cfi_register 65, 0
	stw 0,12(1)
	.loc 2 4022 0
	lwz 3,192(3)
.LVL188:
	rlwinm 3,3,4,31,31
	.cfi_offset 65, 4
	bl _ZN8idThread9ReturnIntEi
	.loc 2 4023 0
	lwz 0,12(1)
	addi 1,1,8
.LCFI63:
	.cfi_def_cfa_offset 0
	mtlr 0
	blr
	.cfi_endproc
.LFE2999:
	.size	_ZN8idEntity14Event_IsHiddenEv, .-_ZN8idEntity14Event_IsHiddenEv
	.align 2
	.globl _ZN8idEntity13Event_TouchesEPS_
	.type	_ZN8idEntity13Event_TouchesEPS_, @function
_ZN8idEntity13Event_TouchesEPS_:
.LFB3021:
	.loc 2 4232 0
	.cfi_startproc
.LVL189:
	stwu 1,-16(1)
.LCFI64:
	.cfi_def_cfa_offset 16
	mflr 0
	stw 30,8(1)
.LBB4220:
	.loc 2 4233 0
	mr. 30,4
	.cfi_offset 30, -8
	.cfi_register 65, 0
.LBE4220:
	.loc 2 4232 0
	stw 0,20(1)
	stw 31,12(1)
.LBB4231:
	.loc 2 4233 0
	beq- 0,.L98
	.cfi_offset 31, -4
	.cfi_offset 65, 4
.LVL190:
.LBB4221:
.LBB4222:
	.loc 2 2522 0
	lwz 3,584(3)
.LVL191:
.LBE4222:
.LBE4221:
	.loc 2 4238 0
	li 4,-1
.LVL192:
	lwz 9,0(3)
	lwz 0,60(9)
	mtctr 0
	bctrl
	.loc 2 4239 0
	li 4,-1
	.loc 2 4238 0
	mr 31,3
.LVL193:
.LBB4223:
.LBB4224:
	.loc 2 2522 0
	lwz 3,584(30)
.LVL194:
.LBE4224:
.LBE4223:
	.loc 2 4239 0
	lwz 9,0(3)
	lwz 0,60(9)
	mtctr 0
	bctrl
.LBB4225:
.LBB4226:
	.file 8 "d:/Data/Nintendo/DoomGX/src/game/../idlib/../idlib/bv/Bounds.h"
	.loc 8 362 0
	lfs 0,0(31)
	lfs 13,12(3)
.LBE4226:
.LBE4225:
	.loc 2 4239 0
	mr 9,3
.LVL195:
.LBB4229:
.LBB4227:
	.loc 8 362 0
	li 3,0
.LVL196:
	fcmpu 7,13,0
	bnl- 7,.L99
.L92:
.LBE4227:
.LBE4229:
	.loc 2 4241 0
	bl _ZN8idThread9ReturnIntEi
.LVL197:
.LBE4231:
	.loc 2 4242 0
	lwz 0,20(1)
	lwz 30,8(1)
.LVL198:
	mtlr 0
	lwz 31,12(1)
.LVL199:
	addi 1,1,16
	.cfi_remember_state
.LCFI65:
	.cfi_def_cfa_offset 0
	.cfi_restore 31
	.cfi_restore 30
	blr
.LVL200:
.L99:
.LCFI66:
	.cfi_restore_state
.LBB4232:
.LBB4230:
.LBB4228:
	.loc 8 362 0
	lfs 13,16(9)
	lfs 0,4(31)
	fcmpu 7,13,0
	blt- 7,.L92
.LVL201:
	lfs 13,20(9)
	lfs 0,8(31)
	fcmpu 7,13,0
	blt- 7,.L92
.LVL202:
	lfs 13,0(9)
	lfs 0,12(31)
	fcmpu 7,13,0
	bgt- 7,.L92
.LVL203:
	lfs 13,4(9)
	lfs 0,16(31)
	fcmpu 7,13,0
	bgt- 7,.L92
.LVL204:
	lfs 13,8(9)
	lfs 0,20(31)
	fcmpu 7,13,0
	mfcr 3
	rlwinm 3,3,30,1
	xori 3,3,1
	b .L92
.LVL205:
.L98:
.LBE4228:
.LBE4230:
	.loc 2 4234 0
	li 3,0
.LVL206:
	bl _ZN8idThread9ReturnIntEi
.LBE4232:
	.loc 2 4242 0
	lwz 0,20(1)
	lwz 30,8(1)
.LVL207:
	mtlr 0
	lwz 31,12(1)
	addi 1,1,16
	.cfi_restore 30
	.cfi_restore 31
.LCFI67:
	.cfi_def_cfa_offset 0
	blr
	.cfi_endproc
.LFE3021:
	.size	_ZN8idEntity13Event_TouchesEPS_, .-_ZN8idEntity13Event_TouchesEPS_
	.align 2
	.globl _ZN8idEntity17Event_SetGuiFloatEPKcf
	.type	_ZN8idEntity17Event_SetGuiFloatEPKcf, @function
_ZN8idEntity17Event_SetGuiFloatEPKcf:
.LFB3023:
	.loc 2 4266 0
	.cfi_startproc
.LVL208:
	mflr 0
	stwu 1,-48(1)
.LCFI68:
	.cfi_def_cfa_offset 48
	.cfi_register 65, 0
	stfd 31,40(1)
	fmr 31,1
	.cfi_offset 63, -8
	stw 0,52(1)
	li 0,3
	.cfi_offset 65, 4
	stw 28,24(1)
.LBB4233:
	.loc 2 4270 0
	lis 28,gameLocal@ha
	.cfi_offset 28, -24
.LBE4233:
	.loc 2 4266 0
	stw 29,28(1)
.LBB4234:
	.loc 2 4270 0
	la 28,gameLocal@l(28)
	.loc 2 4269 0
	lis 29,.LC2@ha
	.cfi_offset 29, -20
.LBE4234:
	.loc 2 4266 0
	stw 26,16(1)
	stw 30,32(1)
.LBB4235:
	.loc 2 4269 0
	la 29,.LC2@l(29)
.LBE4235:
	.loc 2 4266 0
	stw 0,8(1)
.LBB4236:
	.loc 2 4270 0
	addis 28,28,0x25
.LBE4236:
	.loc 2 4266 0
	stw 27,20(1)
	mr 27,4
	.cfi_offset 27, -28
	.cfi_offset 30, -16
	.cfi_offset 26, -32
	stw 31,36(1)
	.loc 2 4266 0
	addi 31,3,364
	.cfi_offset 31, -12
.LVL209:
.L102:
.LBB4237:
	.loc 2 4268 0
	lwzu 26,4(31)
	.loc 2 4269 0
	mr 3,29
	.loc 2 4268 0
	cmpwi 7,26,0
	beq- 7,.L101
	.loc 2 4269 0
	lwz 9,0(26)
	fmr 1,31
	lwz 30,56(9)
	creqv 6,6,6
	bl _Z2vaPKcz
	mr 4,27
	mr 5,3
	mtctr 30
	mr 3,26
	bctrl
	.loc 2 4270 0
	lwz 3,0(31)
	lwz 4,2004(28)
	li 5,0
	lwz 9,0(3)
	lwz 0,88(9)
	mtctr 0
	bctrl
.L101:
	.loc 2 4267 0
	lwz 0,8(1)
	addic. 9,0,-1
	stw 9,8(1)
	bne+ 0,.L102
.LBE4237:
	.loc 2 4273 0
	lwz 0,52(1)
	lwz 26,16(1)
	mtlr 0
	lwz 27,20(1)
.LVL210:
	lwz 28,24(1)
	lwz 29,28(1)
	lwz 30,32(1)
	lwz 31,36(1)
	lfd 31,40(1)
.LVL211:
	addi 1,1,48
.LCFI69:
	.cfi_def_cfa_offset 0
	.cfi_restore 63
	.cfi_restore 31
	.cfi_restore 30
	.cfi_restore 29
	.cfi_restore 28
	.cfi_restore 27
	.cfi_restore 26
	blr
	.cfi_endproc
.LFE3023:
	.size	_ZN8idEntity17Event_SetGuiFloatEPKcf, .-_ZN8idEntity17Event_SetGuiFloatEPKcf
	.align 2
	.globl _ZNK16idAnimatedEntity4SaveEP10idSaveGame
	.type	_ZNK16idAnimatedEntity4SaveEP10idSaveGame, @function
_ZNK16idAnimatedEntity4SaveEP10idSaveGame:
.LFB3063:
	.loc 2 4917 0
	.cfi_startproc
.LVL212:
	mflr 0
	stwu 1,-8(1)
.LCFI70:
	.cfi_def_cfa_offset 8
	.cfi_register 65, 0
	.loc 2 4918 0
	addi 3,3,636
.LVL213:
	.loc 2 4917 0
	stw 0,12(1)
	.loc 2 4918 0
	.cfi_offset 65, 4
	bl _ZNK10idAnimator4SaveEP10idSaveGame
.LVL214:
	.loc 2 4922 0
	lwz 0,12(1)
	addi 1,1,8
.LCFI71:
	.cfi_def_cfa_offset 0
	mtlr 0
	blr
	.cfi_endproc
.LFE3063:
	.size	_ZNK16idAnimatedEntity4SaveEP10idSaveGame, .-_ZNK16idAnimatedEntity4SaveEP10idSaveGame
	.align 2
	.globl _ZN8idEntity14CreateInstanceEv
	.type	_ZN8idEntity14CreateInstanceEv, @function
_ZN8idEntity14CreateInstanceEv:
.LFB2810:
	.loc 2 109 0
	.cfi_startproc
	mflr 0
	stwu 1,-8(1)
.LCFI72:
	.cfi_def_cfa_offset 8
	.cfi_register 65, 0
	lis 3,gameLocal@ha
	lis 4,.LC3@ha
	lis 5,.LC4@ha
	la 3,gameLocal@l(3)
	la 4,.LC3@l(4)
	la 5,.LC4@l(5)
	stw 0,12(1)
	.loc 2 109 0
	.cfi_offset 65, 4
	crxor 6,6,6
	bl _ZNK11idGameLocal5ErrorEPKcz
	lwz 0,12(1)
	li 3,0
	addi 1,1,8
.LCFI73:
	.cfi_def_cfa_offset 0
	mtlr 0
	blr
	.cfi_endproc
.LFE2810:
	.size	_ZN8idEntity14CreateInstanceEv, .-_ZN8idEntity14CreateInstanceEv
	.align 2
	.globl _ZN8idEntity17Event_HasFunctionEPKc
	.type	_ZN8idEntity17Event_HasFunctionEPKc, @function
_ZN8idEntity17Event_HasFunctionEPKc:
.LFB3038:
	.loc 2 4516 0
	.cfi_startproc
.LVL215:
	mflr 0
	stwu 1,-8(1)
.LCFI74:
	.cfi_def_cfa_offset 8
	.cfi_register 65, 0
.LBB4238:
	.loc 2 4519 0
	addi 3,3,144
.LVL216:
.LBE4238:
	.loc 2 4516 0
	stw 0,12(1)
.LBB4239:
	.loc 2 4519 0
	.cfi_offset 65, 4
	bl _ZNK14idScriptObject11GetFunctionEPKc
.LVL217:
	.loc 2 4520 0
	cmpwi 7,3,0
	beq- 7,.L107
	.loc 2 4521 0
	li 3,1
.LVL218:
	bl _ZN8idThread9ReturnIntEi
.LBE4239:
	.loc 2 4525 0
	lwz 0,12(1)
	addi 1,1,8
	.cfi_remember_state
.LCFI75:
	.cfi_def_cfa_offset 0
	mtlr 0
	blr
.LVL219:
.L107:
.LCFI76:
	.cfi_restore_state
.LBB4240:
	.loc 2 4523 0
	bl _ZN8idThread9ReturnIntEi
.LVL220:
.LBE4240:
	.loc 2 4525 0
	lwz 0,12(1)
	addi 1,1,8
.LCFI77:
	.cfi_def_cfa_offset 0
	mtlr 0
	blr
	.cfi_endproc
.LFE3038:
	.size	_ZN8idEntity17Event_HasFunctionEPKc, .-_ZN8idEntity17Event_HasFunctionEPKc
	.align 2
	.globl _ZN8idEntity18Event_CallFunctionEPKc
	.type	_ZN8idEntity18Event_CallFunctionEPKc, @function
_ZN8idEntity18Event_CallFunctionEPKc:
.LFB3039:
	.loc 2 4532 0
	.cfi_startproc
.LVL221:
	mflr 0
	stwu 1,-32(1)
.LCFI78:
	.cfi_def_cfa_offset 32
	.cfi_register 65, 0
	stw 27,12(1)
	stw 28,16(1)
	mr 28,4
	.cfi_offset 28, -16
	.cfi_offset 27, -20
	stw 29,20(1)
	mr 29,3
	.cfi_offset 29, -12
	stw 0,36(1)
	stw 30,24(1)
	stw 31,28(1)
.LBB4241:
	.loc 2 4536 0
	.cfi_offset 31, -4
	.cfi_offset 30, -8
	.cfi_offset 65, 4
	bl _ZN8idThread13CurrentThreadEv
.LVL222:
	.loc 2 4537 0
	mr. 27,3
	beq- 0,.L114
.LVL223:
.L110:
	.loc 2 4541 0
	addi 30,29,144
	mr 4,28
	mr 3,30
	bl _ZNK14idScriptObject11GetFunctionEPKc
.LVL224:
	.loc 2 4542 0
	mr. 31,3
	beq- 0,.L115
.LVL225:
.L111:
	.loc 2 4546 0
	lwz 3,40(31)
	bl _ZNK9idTypeDef13NumParametersEv
	cmpwi 7,3,1
	beq- 7,.L112
	.loc 2 4547 0
	lis 3,gameLocal@ha
	lis 4,.LC7@ha
	la 3,gameLocal@l(3)
	la 4,.LC7@l(4)
	mr 5,28
	crxor 6,6,6
	bl _ZNK11idGameLocal5ErrorEPKcz
.L112:
	.loc 2 4549 0
	mr 3,30
	bl _ZNK14idScriptObject10GetTypeDefEv
	li 4,0
	mr 30,3
	lwz 3,40(31)
	bl _ZNK9idTypeDef11GetParmTypeEi
	mr 4,3
	mr 3,30
	bl _ZNK9idTypeDef8InheritsEPKS_
	cmpwi 7,3,0
	bne+ 7,.L113
	.loc 2 4550 0
	lis 3,gameLocal@ha
	lis 4,.LC8@ha
	la 3,gameLocal@l(3)
	la 4,.LC8@l(4)
	mr 5,28
	crxor 6,6,6
	bl _ZNK11idGameLocal5ErrorEPKcz
.L113:
	.loc 2 4554 0
	mr 3,27
	mr 4,29
	mr 5,31
	li 6,0
	bl _ZN8idThread12CallFunctionEP8idEntityPK10function_tb
.LBE4241:
	.loc 2 4555 0
	lwz 0,36(1)
	lwz 27,12(1)
.LVL226:
	mtlr 0
	lwz 28,16(1)
.LVL227:
	lwz 29,20(1)
.LVL228:
	lwz 30,24(1)
	lwz 31,28(1)
.LVL229:
	addi 1,1,32
	.cfi_remember_state
.LCFI79:
	.cfi_def_cfa_offset 0
	.cfi_restore 31
	.cfi_restore 30
	.cfi_restore 29
	.cfi_restore 28
	.cfi_restore 27
	blr
.LVL230:
.L115:
.LCFI80:
	.cfi_restore_state
.LBB4242:
	.loc 2 4543 0
	mr 3,30
.LVL231:
	bl _ZNK14idScriptObject11GetTypeNameEv
	lis 4,.LC6@ha
	mr 6,3
	lis 3,gameLocal@ha
	la 3,gameLocal@l(3)
	la 4,.LC6@l(4)
	mr 5,28
	crxor 6,6,6
	bl _ZNK11idGameLocal5ErrorEPKcz
	b .L111
.LVL232:
.L114:
	.loc 2 4538 0
	lis 3,gameLocal@ha
	lis 4,.LC5@ha
	la 3,gameLocal@l(3)
	la 4,.LC5@l(4)
	crxor 6,6,6
	bl _ZNK11idGameLocal5ErrorEPKcz
	b .L110
.LBE4242:
	.cfi_endproc
.LFE3039:
	.size	_ZN8idEntity18Event_CallFunctionEPKc, .-_ZN8idEntity18Event_CallFunctionEPKc
	.align 2
	.globl _ZN8idEntity10Event_WaitEf
	.type	_ZN8idEntity10Event_WaitEf, @function
_ZN8idEntity10Event_WaitEf:
.LFB3037:
	.loc 2 4501 0
	.cfi_startproc
.LVL233:
	mflr 0
	stwu 1,-24(1)
.LCFI81:
	.cfi_def_cfa_offset 24
	.cfi_register 65, 0
	stfd 31,16(1)
	fmr 31,1
	.cfi_offset 63, -8
	stw 31,12(1)
	stw 0,28(1)
.LBB4243:
	.loc 2 4502 0
	.cfi_offset 65, 4
	.cfi_offset 31, -12
	bl _ZN8idThread13CurrentThreadEv
.LVL234:
	.loc 2 4504 0
	mr. 31,3
	beq- 0,.L118
	.loc 2 4508 0
	fmr 1,31
	mr 3,31
	bl _ZN8idThread7WaitSecEf
.LVL235:
.LBE4243:
	.loc 2 4509 0
	lwz 0,28(1)
	lwz 31,12(1)
.LVL236:
	mtlr 0
	lfd 31,16(1)
.LVL237:
	addi 1,1,24
	.cfi_remember_state
.LCFI82:
	.cfi_def_cfa_offset 0
	.cfi_restore 63
	.cfi_restore 31
	blr
.LVL238:
.L118:
.LCFI83:
	.cfi_restore_state
.LBB4244:
	.loc 2 4505 0
	lis 3,gameLocal@ha
.LVL239:
	lis 4,.LC9@ha
	la 3,gameLocal@l(3)
	la 4,.LC9@l(4)
	crxor 6,6,6
	bl _ZNK11idGameLocal5ErrorEPKcz
	.loc 2 4508 0
	fmr 1,31
	mr 3,31
	bl _ZN8idThread7WaitSecEf
.LBE4244:
	.loc 2 4509 0
	lwz 0,28(1)
	lwz 31,12(1)
.LVL240:
	mtlr 0
	lfd 31,16(1)
.LVL241:
	addi 1,1,24
	.cfi_restore 31
	.cfi_restore 63
.LCFI84:
	.cfi_def_cfa_offset 0
	blr
	.cfi_endproc
.LFE3037:
	.size	_ZN8idEntity10Event_WaitEf, .-_ZN8idEntity10Event_WaitEf
	.align 2
	.globl _ZN8idEntity15Event_WaitFrameEv
	.type	_ZN8idEntity15Event_WaitFrameEv, @function
_ZN8idEntity15Event_WaitFrameEv:
.LFB3036:
	.loc 2 4487 0
	.cfi_startproc
.LVL242:
	mflr 0
	stwu 1,-8(1)
.LCFI85:
	.cfi_def_cfa_offset 8
	.cfi_register 65, 0
	stw 0,12(1)
.LBB4245:
	.loc 2 4490 0
	.cfi_offset 65, 4
	bl _ZN8idThread13CurrentThreadEv
.LVL243:
	.loc 2 4491 0
	cmpwi 7,3,0
	beq- 7,.L119
	.loc 2 4492 0
	bl _ZN8idThread9WaitFrameEv
.LVL244:
.L119:
.LBE4245:
	.loc 2 4494 0
	lwz 0,12(1)
	addi 1,1,8
.LCFI86:
	.cfi_def_cfa_offset 0
	mtlr 0
	blr
	.cfi_endproc
.LFE3036:
	.size	_ZN8idEntity15Event_WaitFrameEv, .-_ZN8idEntity15Event_WaitFrameEv
	.align 2
	.globl _ZN8idEntity13Event_StartFxEPKc
	.type	_ZN8idEntity13Event_StartFxEPKc, @function
_ZN8idEntity13Event_StartFxEPKc:
.LFB3035:
	.loc 2 4478 0
	.cfi_startproc
.LVL245:
	mflr 0
	stwu 1,-8(1)
.LCFI87:
	.cfi_def_cfa_offset 8
	.cfi_register 65, 0
	mr 6,3
	.loc 2 4479 0
	li 5,0
	mr 3,4
.LVL246:
	li 7,1
	li 4,0
.LVL247:
	.loc 2 4478 0
	stw 0,12(1)
	.loc 2 4479 0
	.cfi_offset 65, 4
	bl _ZN10idEntityFx7StartFxEPKcPK6idVec3PK6idMat3P8idEntityb
.LVL248:
	.loc 2 4480 0
	lwz 0,12(1)
	addi 1,1,8
.LCFI88:
	.cfi_def_cfa_offset 0
	mtlr 0
	blr
	.cfi_endproc
.LFE3035:
	.size	_ZN8idEntity13Event_StartFxEPKc, .-_ZN8idEntity13Event_StartFxEPKc
	.align 2
	.globl _ZN8idEntity19Event_GetShaderParmEi
	.type	_ZN8idEntity19Event_GetShaderParmEi, @function
_ZN8idEntity19Event_GetShaderParmEi:
.LFB2994:
	.loc 2 3964 0
	.cfi_startproc
.LVL249:
	.loc 2 3965 0
	cmplwi 7,4,11
	.loc 2 3964 0
	mflr 0
	stwu 1,-16(1)
.LCFI89:
	.cfi_def_cfa_offset 16
	.cfi_register 65, 0
	stw 30,8(1)
	mr 30,3
	.cfi_offset 30, -8
	stw 31,12(1)
	mr 31,4
	.cfi_offset 31, -4
	stw 0,20(1)
	.loc 2 3965 0
	ble+ 7,.L123
	.cfi_offset 65, 4
	.loc 2 3966 0
	lis 3,gameLocal@ha
.LVL250:
	lis 4,.LC10@ha
.LVL251:
	la 3,gameLocal@l(3)
	la 4,.LC10@l(4)
	mr 5,31
	crxor 6,6,6
	bl _ZNK11idGameLocal5ErrorEPKcz
.L123:
	.loc 2 3969 0
	addi 31,31,76
.LVL252:
	slwi 31,31,2
.LVL253:
	add 30,30,31
.LVL254:
	lfs 1,16(30)
	bl _ZN8idThread11ReturnFloatEf
	.loc 2 3970 0
	lwz 0,20(1)
	lwz 30,8(1)
	mtlr 0
	lwz 31,12(1)
	addi 1,1,16
.LCFI90:
	.cfi_def_cfa_offset 0
	.cfi_restore 31
	.cfi_restore 30
	blr
	.cfi_endproc
.LFE2994:
	.size	_ZN8idEntity19Event_GetShaderParmEi, .-_ZN8idEntity19Event_GetShaderParmEi
	.align 2
	.globl _ZN8idEntity21Event_DistanceToPointERK6idVec3
	.type	_ZN8idEntity21Event_DistanceToPointERK6idVec3, @function
_ZN8idEntity21Event_DistanceToPointERK6idVec3:
.LFB3034:
	.loc 2 4468 0
	.cfi_startproc
.LVL255:
	mflr 0
	stwu 1,-24(1)
.LCFI91:
	.cfi_def_cfa_offset 24
	.cfi_register 65, 0
	stw 31,20(1)
	mr 31,4
	.cfi_offset 31, -4
	stw 0,28(1)
.LBB4246:
	.loc 2 4469 0
	li 4,0
.LVL256:
.LBB4247:
.LBB4248:
	.loc 2 2522 0
	lwz 3,584(3)
.LVL257:
.LBE4248:
.LBE4247:
	.loc 2 4469 0
	lwz 9,0(3)
	lwz 0,132(9)
	.cfi_offset 65, 4
	mtctr 0
	bctrl
.LVL258:
.LBB4249:
.LBB4250:
	.loc 4 431 0
	lfs 0,4(31)
	lfs 12,4(3)
.LBE4250:
.LBE4249:
.LBB4253:
.LBB4254:
.LBB4255:
.LBB4256:
	.file 9 "d:/Data/Nintendo/DoomGX/src/game/../idlib/../idlib/math/Math.h"
	.loc 9 246 0
	lis 9,.LC11@ha
.LBE4256:
.LBE4255:
.LBE4254:
.LBE4253:
.LBB4266:
.LBB4251:
	.loc 4 431 0
	lfs 13,0(3)
	fsubs 12,12,0
	lfs 0,0(31)
	lfs 11,8(3)
	fsubs 13,13,0
	lfs 0,8(31)
.LBE4251:
.LBE4266:
.LBB4267:
.LBB4263:
	.loc 4 642 0
	fmuls 12,12,12
.LBB4260:
.LBB4257:
	.loc 9 246 0
	lfs 1,.LC11@l(9)
.LBE4257:
.LBE4260:
.LBE4263:
.LBE4267:
.LBB4268:
.LBB4252:
	.loc 4 431 0
	fsubs 0,11,0
.LVL259:
	.loc 4 642 0
	fmadds 13,13,13,12
.LVL260:
	fmadds 13,0,0,13
	stfs 13,8(1)
.LVL261:
.LBE4252:
.LBE4268:
.LBB4269:
.LBB4264:
.LBB4261:
.LBB4258:
	.loc 9 246 0
	fmuls 1,13,1
	.loc 9 248 0
	lwz 9,8(1)
	.loc 2 4468 0
	fneg 1,1
	.loc 9 248 0
	srawi 0,9,1
	.loc 9 249 0
	lis 9,0x5f37
	ori 9,9,23007
	subf 9,0,9
	stw 9,12(1)
.LVL262:
	.loc 9 250 0
	lis 9,.LC12@ha
	lfs 0,12(1)
.LVL263:
	lfs 12,12(1)
	fmuls 13,0,0
.LVL264:
	lfs 0,.LC12@l(9)
	fmadds 1,1,13,0
.LVL265:
.LBE4258:
.LBE4261:
.LBE4264:
.LBE4269:
	.loc 2 4470 0
	lfs 0,8(1)
.LBB4270:
.LBB4265:
.LBB4262:
.LBB4259:
	.loc 9 250 0
	fmuls 1,12,1
.LVL266:
.LBE4259:
.LBE4262:
.LBE4265:
.LBE4270:
	.loc 2 4470 0
	fmuls 1,0,1
.LVL267:
	bl _ZN8idThread11ReturnFloatEf
.LVL268:
.LBE4246:
	.loc 2 4471 0
	lwz 0,28(1)
	lwz 31,20(1)
.LVL269:
	mtlr 0
	addi 1,1,24
.LCFI92:
	.cfi_def_cfa_offset 0
	.cfi_restore 31
	blr
	.cfi_endproc
.LFE3034:
	.size	_ZN8idEntity21Event_DistanceToPointERK6idVec3, .-_ZN8idEntity21Event_DistanceToPointERK6idVec3
	.align 2
	.globl _ZN8idEntity16Event_DistanceToEPS_
	.type	_ZN8idEntity16Event_DistanceToEPS_, @function
_ZN8idEntity16Event_DistanceToEPS_:
.LFB3033:
	.loc 2 4453 0
	.cfi_startproc
.LVL270:
	stwu 1,-24(1)
.LCFI93:
	.cfi_def_cfa_offset 24
	mflr 0
	stw 30,16(1)
.LBB4271:
	.loc 2 4454 0
	mr. 30,4
	.cfi_offset 30, -8
	.cfi_register 65, 0
.LBE4271:
	.loc 2 4453 0
	stw 0,28(1)
	stw 31,20(1)
.LBB4299:
	.loc 2 4454 0
	beq- 0,.L128
	.cfi_offset 31, -4
	.cfi_offset 65, 4
.LVL271:
.LBB4272:
.LBB4273:
.LBB4274:
	.loc 2 2522 0
	lwz 3,584(3)
.LVL272:
.LBE4274:
.LBE4273:
	.loc 2 4458 0
	li 4,0
.LVL273:
	lwz 9,0(3)
	lwz 0,132(9)
	mtctr 0
	bctrl
	li 4,0
	mr 31,3
.LVL274:
.LBB4275:
.LBB4276:
	.loc 2 2522 0
	lwz 3,584(30)
.LBE4276:
.LBE4275:
	.loc 2 4458 0
	lwz 9,0(3)
	lwz 0,132(9)
	mtctr 0
	bctrl
.LVL275:
.LBB4277:
.LBB4278:
	.loc 4 431 0
	lfs 12,4(31)
	lfs 0,4(3)
.LBE4278:
.LBE4277:
.LBB4281:
.LBB4282:
.LBB4283:
.LBB4284:
	.loc 9 246 0
	lis 9,.LC11@ha
.LBE4284:
.LBE4283:
.LBE4282:
.LBE4281:
.LBB4294:
.LBB4279:
	.loc 4 431 0
	lfs 13,0(31)
	fsubs 12,12,0
	lfs 0,0(3)
	lfs 11,8(31)
	fsubs 13,13,0
	lfs 0,8(3)
.LBE4279:
.LBE4294:
.LBB4295:
.LBB4291:
	.loc 4 642 0
	fmuls 12,12,12
.LBB4288:
.LBB4285:
	.loc 9 246 0
	lfs 1,.LC11@l(9)
.LBE4285:
.LBE4288:
.LBE4291:
.LBE4295:
.LBB4296:
.LBB4280:
	.loc 4 431 0
	fsubs 0,11,0
.LVL276:
	.loc 4 642 0
	fmadds 13,13,13,12
.LVL277:
	fmadds 13,0,0,13
	stfs 13,8(1)
.LVL278:
.LBE4280:
.LBE4296:
.LBB4297:
.LBB4292:
.LBB4289:
.LBB4286:
	.loc 9 246 0
	fmuls 1,13,1
	.loc 9 248 0
	lwz 9,8(1)
	.loc 2 4453 0
	fneg 1,1
	.loc 9 248 0
	srawi 0,9,1
	.loc 9 249 0
	lis 9,0x5f37
	ori 9,9,23007
	subf 9,0,9
	stw 9,12(1)
.LVL279:
	.loc 9 250 0
	lis 9,.LC12@ha
	lfs 0,12(1)
.LVL280:
	lfs 12,12(1)
	fmuls 13,0,0
.LVL281:
	lfs 0,.LC12@l(9)
	fmadds 1,1,13,0
.LVL282:
.LBE4286:
.LBE4289:
.LBE4292:
.LBE4297:
	.loc 2 4459 0
	lfs 0,8(1)
.LBB4298:
.LBB4293:
.LBB4290:
.LBB4287:
	.loc 9 250 0
	fmuls 1,12,1
.LVL283:
.LBE4287:
.LBE4290:
.LBE4293:
.LBE4298:
	.loc 2 4459 0
	fmuls 1,0,1
.LVL284:
	bl _ZN8idThread11ReturnFloatEf
.LVL285:
.LBE4272:
.LBE4299:
	.loc 2 4461 0
	lwz 0,28(1)
	lwz 30,16(1)
.LVL286:
	mtlr 0
	lwz 31,20(1)
.LVL287:
	addi 1,1,24
	.cfi_remember_state
.LCFI94:
	.cfi_def_cfa_offset 0
	.cfi_restore 31
	.cfi_restore 30
	blr
.LVL288:
.L128:
.LCFI95:
	.cfi_restore_state
.LBB4300:
	.loc 2 4456 0
	lis 9,.LC13@ha
	lfs 1,.LC13@l(9)
	bl _ZN8idThread11ReturnFloatEf
.LVL289:
.LBE4300:
	.loc 2 4461 0
	lwz 0,28(1)
	lwz 30,16(1)
.LVL290:
	mtlr 0
	lwz 31,20(1)
	addi 1,1,24
	.cfi_restore 30
	.cfi_restore 31
.LCFI96:
	.cfi_def_cfa_offset 0
	blr
	.cfi_endproc
.LFE3033:
	.size	_ZN8idEntity16Event_DistanceToEPS_, .-_ZN8idEntity16Event_DistanceToEPS_
	.align 2
	.globl _ZN8idEntity16Event_NumTargetsEv
	.type	_ZN8idEntity16Event_NumTargetsEv, @function
_ZN8idEntity16Event_NumTargetsEv:
.LFB2982:
	.loc 2 3750 0
	.cfi_startproc
.LVL291:
	mflr 0
	stwu 1,-16(1)
.LCFI97:
	.cfi_def_cfa_offset 16
	.cfi_register 65, 0
	.loc 2 3751 0
	lis 9,.LC15@ha
	lfs 0,.LC15@l(9)
	.loc 2 3750 0
	stw 0,20(1)
	.loc 2 3751 0
	lwz 0,172(3)
	.cfi_offset 65, 4
	xoris 0,0,0x8000
	stw 0,12(1)
	lis 0,0x4330
	stw 0,8(1)
	lfd 1,8(1)
	fsub 1,1,0
	frsp 1,1
	bl _ZN8idThread11ReturnFloatEf
.LVL292:
	.loc 2 3752 0
	lwz 0,20(1)
	addi 1,1,16
.LCFI98:
	.cfi_def_cfa_offset 0
	mtlr 0
	blr
	.cfi_endproc
.LFE2982:
	.size	_ZN8idEntity16Event_NumTargetsEv, .-_ZN8idEntity16Event_NumTargetsEv
	.align 2
	.globl _ZN8idEntity18Event_GetVectorKeyEPKc
	.type	_ZN8idEntity18Event_GetVectorKeyEPKc, @function
_ZN8idEntity18Event_GetVectorKeyEPKc:
.LFB3029:
	.loc 2 4350 0
	.cfi_startproc
.LVL293:
	stwu 1,-24(1)
.LCFI99:
	.cfi_def_cfa_offset 24
	mflr 0
.LBB4301:
	.loc 2 4353 0
	lis 5,.LC16@ha
	addi 3,3,100
.LVL294:
	addi 6,1,8
	la 5,.LC16@l(5)
.LBE4301:
	.loc 2 4350 0
	stw 0,28(1)
.LBB4302:
	.loc 2 4353 0
	.cfi_offset 65, 4
	bl _ZNK6idDict9GetVectorEPKcS1_R6idVec3
.LVL295:
	.loc 2 4354 0
	addi 3,1,8
	bl _ZN8idThread12ReturnVectorERK6idVec3
.LBE4302:
	.loc 2 4355 0
	lwz 0,28(1)
	addi 1,1,24
.LCFI100:
	.cfi_def_cfa_offset 0
	mtlr 0
	blr
	.cfi_endproc
.LFE3029:
	.size	_ZN8idEntity18Event_GetVectorKeyEPKc, .-_ZN8idEntity18Event_GetVectorKeyEPKc
	.align 2
	.globl _ZN8idEntity15Event_GetTargetEf
	.type	_ZN8idEntity15Event_GetTargetEf, @function
_ZN8idEntity15Event_GetTargetEf:
.LFB2983:
	.loc 2 3759 0
	.cfi_startproc
.LVL296:
	stwu 1,-16(1)
.LCFI101:
	.cfi_def_cfa_offset 16
	mflr 0
.LBB4303:
	.loc 2 3762 0
	fctiwz 1,1
.LVL297:
	addi 9,1,8
.LBE4303:
	.loc 2 3759 0
	stw 0,20(1)
.LBB4308:
	.loc 2 3762 0
	stfiwx 1,0,9
	lwz 0,8(1)
.LVL298:
	.loc 2 3763 0
	cmpwi 7,0,0
	blt- 7,.L132
	.cfi_offset 65, 4
	.loc 2 3763 0 is_stmt 0 discriminator 2
	lwz 9,172(3)
.LVL299:
	cmpw 7,0,9
	blt- 7,.L133
.L132:
	.loc 2 3764 0 is_stmt 1 discriminator 4
	li 3,0
.LVL300:
	bl _ZN8idThread12ReturnEntityEP8idEntity
.LVL301:
.LBE4308:
	.loc 2 3768 0 discriminator 4
	lwz 0,20(1)
	addi 1,1,16
	.cfi_remember_state
.LCFI102:
	.cfi_def_cfa_offset 0
	mtlr 0
	blr
.LVL302:
.L133:
.LCFI103:
	.cfi_restore_state
.LBB4309:
.LBB4304:
.LBB4305:
	.file 10 "d:/Data/Nintendo/DoomGX/src/game/Game_local.h"
	.loc 10 634 0
	lwz 9,184(3)
	slwi 0,0,2
.LVL303:
	.loc 10 638 0
	li 3,0
.LVL304:
	.loc 10 634 0
	lwzx 0,9,0
	.loc 10 635 0
	lis 9,gameLocal@ha
.LVL305:
	la 9,gameLocal@l(9)
	.loc 10 634 0
	rlwinm 11,0,0,20,31
.LVL306:
	.loc 10 635 0
	srawi 0,0,12
	addi 10,11,4228
	slwi 10,10,2
	add 10,9,10
	lwz 10,4(10)
	cmpw 7,10,0
	beq- 7,.L137
.LBE4305:
.LBE4304:
	.loc 2 3766 0
	bl _ZN8idThread12ReturnEntityEP8idEntity
.LVL307:
.L138:
.LBE4309:
	.loc 2 3768 0
	lwz 0,20(1)
	addi 1,1,16
	.cfi_remember_state
.LCFI104:
	.cfi_def_cfa_offset 0
	mtlr 0
	blr
.LVL308:
.L137:
.LCFI105:
	.cfi_restore_state
.LBB4310:
.LBB4307:
.LBB4306:
	.loc 10 636 0
	addi 11,11,132
.LVL309:
	slwi 11,11,2
.LVL310:
	add 9,9,11
	lwz 3,4(9)
.LBE4306:
.LBE4307:
	.loc 2 3766 0
	bl _ZN8idThread12ReturnEntityEP8idEntity
.LVL311:
	b .L138
.LBE4310:
	.cfi_endproc
.LFE2983:
	.size	_ZN8idEntity15Event_GetTargetEf, .-_ZN8idEntity15Event_GetTargetEf
	.align 2
	.globl _ZN8idEntity17Event_GetFloatKeyEPKc
	.type	_ZN8idEntity17Event_GetFloatKeyEPKc, @function
_ZN8idEntity17Event_GetFloatKeyEPKc:
.LFB3028:
	.loc 2 4338 0
	.cfi_startproc
.LVL312:
	stwu 1,-24(1)
.LCFI106:
	.cfi_def_cfa_offset 24
	mflr 0
.LBB4311:
	.loc 2 4341 0
	lis 5,.LC17@ha
	addi 3,3,100
.LVL313:
	addi 6,1,8
	la 5,.LC17@l(5)
.LBE4311:
	.loc 2 4338 0
	stw 0,28(1)
.LBB4312:
	.loc 2 4341 0
	.cfi_offset 65, 4
	bl _ZNK6idDict8GetFloatEPKcS1_Rf
.LVL314:
	.loc 2 4342 0
	lfs 1,8(1)
	bl _ZN8idThread11ReturnFloatEf
.LBE4312:
	.loc 2 4343 0
	lwz 0,28(1)
	addi 1,1,24
.LCFI107:
	.cfi_def_cfa_offset 0
	mtlr 0
	blr
	.cfi_endproc
.LFE3028:
	.size	_ZN8idEntity17Event_GetFloatKeyEPKc, .-_ZN8idEntity17Event_GetFloatKeyEPKc
	.align 2
	.globl _ZN8idEntity15Event_GetIntKeyEPKc
	.type	_ZN8idEntity15Event_GetIntKeyEPKc, @function
_ZN8idEntity15Event_GetIntKeyEPKc:
.LFB3027:
	.loc 2 4324 0
	.cfi_startproc
.LVL315:
	stwu 1,-32(1)
.LCFI108:
	.cfi_def_cfa_offset 32
	mflr 0
.LBB4313:
	.loc 2 4327 0
	lis 5,.LC17@ha
	addi 3,3,100
.LVL316:
	addi 6,1,8
	la 5,.LC17@l(5)
.LBE4313:
	.loc 2 4324 0
	stw 0,36(1)
.LBB4314:
	.loc 2 4327 0
	.cfi_offset 65, 4
	bl _ZNK6idDict6GetIntEPKcS1_Ri
.LVL317:
	.loc 2 4330 0
	lwz 0,8(1)
	lis 9,.LC15@ha
	lfs 0,.LC15@l(9)
	xoris 0,0,0x8000
	stw 0,28(1)
	lis 0,0x4330
	stw 0,24(1)
	lfd 1,24(1)
	fsub 1,1,0
	frsp 1,1
	bl _ZN8idThread11ReturnFloatEf
.LBE4314:
	.loc 2 4331 0
	lwz 0,36(1)
	addi 1,1,32
.LCFI109:
	.cfi_def_cfa_offset 0
	mtlr 0
	blr
	.cfi_endproc
.LFE3027:
	.size	_ZN8idEntity15Event_GetIntKeyEPKc, .-_ZN8idEntity15Event_GetIntKeyEPKc
	.align 2
	.globl _ZN8idEntity13Event_GetNameEv
	.type	_ZN8idEntity13Event_GetNameEv, @function
_ZN8idEntity13Event_GetNameEv:
.LFB2978:
	.loc 2 3711 0
	.cfi_startproc
.LVL318:
	mflr 0
	stwu 1,-8(1)
.LCFI110:
	.cfi_def_cfa_offset 8
	.cfi_register 65, 0
	stw 0,12(1)
	.loc 2 3712 0
	lwz 3,72(3)
.LVL319:
	.cfi_offset 65, 4
	bl _ZN8idThread12ReturnStringEPKc
	.loc 2 3713 0
	lwz 0,12(1)
	addi 1,1,8
.LCFI111:
	.cfi_def_cfa_offset 0
	mtlr 0
	blr
	.cfi_endproc
.LFE2978:
	.size	_ZN8idEntity13Event_GetNameEv, .-_ZN8idEntity13Event_GetNameEv
	.align 2
	.globl _ZN8idEntity16Event_GetNextKeyEPKcS1_
	.type	_ZN8idEntity16Event_GetNextKeyEPKcS1_, @function
_ZN8idEntity16Event_GetNextKeyEPKcS1_:
.LFB3024:
	.loc 2 4280 0
	.cfi_startproc
.LVL320:
	mflr 0
	stwu 1,-16(1)
.LCFI112:
	.cfi_def_cfa_offset 16
	.cfi_register 65, 0
	stw 30,8(1)
	mr 30,4
	.cfi_offset 30, -8
	stw 31,12(1)
	addi 31,3,100
	.cfi_offset 31, -4
	stw 0,20(1)
.LBB4315:
	.loc 2 4284 0
	lbz 0,0(5)
	.cfi_offset 65, 4
	cmpwi 7,0,0
	.loc 2 4287 0
	li 0,0
	.loc 2 4284 0
	bne- 7,.L147
.LVL321:
	.loc 2 4290 0
	mr 3,31
.LVL322:
	mr 4,30
	mr 5,0
.LVL323:
	bl _ZNK6idDict11MatchPrefixEPKcPK10idKeyValue
.LVL324:
	.loc 2 4291 0
	cmpwi 0,3,0
	beq- 0,.L148
.LVL325:
.L144:
.LBB4316:
	.loc 2 5400 0
	lwz 9,0(3)
.LBE4316:
	.loc 2 4294 0
	lwz 3,4(9)
.LVL326:
	bl _ZN8idThread12ReturnStringEPKc
.LVL327:
.LBE4315:
	.loc 2 4296 0
	lwz 0,20(1)
	lwz 30,8(1)
.LVL328:
	mtlr 0
	lwz 31,12(1)
.LVL329:
	addi 1,1,16
	.cfi_remember_state
.LCFI113:
	.cfi_def_cfa_offset 0
	.cfi_restore 31
	.cfi_restore 30
	blr
.LVL330:
.L147:
.LCFI114:
	.cfi_restore_state
.LBB4317:
	.loc 2 4285 0
	mr 4,5
.LVL331:
	mr 3,31
.LVL332:
	bl _ZNK6idDict7FindKeyEPKc
.LVL333:
	.loc 2 4290 0
	mr 4,30
	.loc 2 4285 0
	mr 0,3
.LVL334:
	.loc 2 4290 0
	mr 3,31
.LVL335:
	mr 5,0
	bl _ZNK6idDict11MatchPrefixEPKcPK10idKeyValue
.LVL336:
	.loc 2 4291 0
	cmpwi 0,3,0
	bne+ 0,.L144
.L148:
	.loc 2 4292 0
	lis 3,.LC18@ha
.LVL337:
	la 3,.LC18@l(3)
	bl _ZN8idThread12ReturnStringEPKc
.LBE4317:
	.loc 2 4296 0
	lwz 0,20(1)
	lwz 30,8(1)
.LVL338:
	mtlr 0
	lwz 31,12(1)
.LVL339:
	addi 1,1,16
	.cfi_restore 30
	.cfi_restore 31
.LCFI115:
	.cfi_def_cfa_offset 0
	blr
	.cfi_endproc
.LFE3024:
	.size	_ZN8idEntity16Event_GetNextKeyEPKcS1_, .-_ZN8idEntity16Event_GetNextKeyEPKcS1_
	.align 2
	.globl _ZN8idEntity12Event_SetKeyEPKcS1_
	.type	_ZN8idEntity12Event_SetKeyEPKcS1_, @function
_ZN8idEntity12Event_SetKeyEPKcS1_:
.LFB3025:
	.loc 2 4303 0
	.cfi_startproc
.LVL340:
	mflr 0
	stwu 1,-8(1)
.LCFI116:
	.cfi_def_cfa_offset 8
	.cfi_register 65, 0
	.loc 2 4304 0
	addi 3,3,100
.LVL341:
	.loc 2 4303 0
	stw 0,12(1)
	.loc 2 4304 0
	.cfi_offset 65, 4
	bl _ZN6idDict3SetEPKcS1_
.LVL342:
	.loc 2 4305 0
	lwz 0,12(1)
	addi 1,1,8
.LCFI117:
	.cfi_def_cfa_offset 0
	mtlr 0
	blr
	.cfi_endproc
.LFE3025:
	.size	_ZN8idEntity12Event_SetKeyEPKcS1_, .-_ZN8idEntity12Event_SetKeyEPKcS1_
	.align 2
	.globl _ZN8idEntity16Event_SetGuiParmEPKcS1_
	.type	_ZN8idEntity16Event_SetGuiParmEPKcS1_, @function
_ZN8idEntity16Event_SetGuiParmEPKcS1_:
.LFB3022:
	.loc 2 4249 0
	.cfi_startproc
.LVL343:
	stwu 1,-40(1)
.LCFI118:
	.cfi_def_cfa_offset 40
	mflr 0
	stw 26,16(1)
.LBB4318:
	.loc 2 4256 0
	lis 26,gameLocal@ha
	.cfi_offset 26, -24
	.cfi_register 65, 0
.LBE4318:
	.loc 2 4249 0
	stw 29,28(1)
.LBB4319:
	.loc 2 4256 0
	la 26,gameLocal@l(26)
	.loc 2 4252 0
	lis 29,.LC19@ha
	.cfi_offset 29, -12
.LBE4319:
	.loc 2 4249 0
	stw 0,44(1)
	stw 25,12(1)
.LBB4320:
	.loc 2 4252 0
	la 29,.LC19@l(29)
.LBE4320:
	.loc 2 4249 0
	stw 27,20(1)
.LBB4321:
	.loc 2 4256 0
	addis 26,26,0x25
.LBE4321:
	.loc 2 4249 0
	stw 28,24(1)
	mr 27,5
	.cfi_offset 28, -16
	.cfi_offset 27, -20
	.cfi_offset 25, -28
	.cfi_offset 65, 4
	stw 30,32(1)
	addi 28,3,376
	stw 31,36(1)
	.loc 2 4249 0
	mr 30,4
	.cfi_offset 31, -4
	.cfi_offset 30, -8
	addi 31,3,364
.LBB4322:
	.loc 2 4253 0
	addi 25,3,100
.LVL344:
.L153:
	.loc 2 4251 0
	lwzu 0,4(31)
	.loc 2 4252 0
	mr 4,29
	li 5,4
	mr 3,30
	.loc 2 4251 0
	cmpwi 7,0,0
	beq- 7,.L151
	.loc 2 4252 0
	bl _ZN5idStr5IcmpnEPKcS1_i
	cmpwi 7,3,0
	beq- 7,.L155
.L152:
	.loc 2 4255 0
	lwz 3,0(31)
	mr 4,30
	mr 5,27
	lwz 9,0(3)
	lwz 0,56(9)
	mtctr 0
	bctrl
	.loc 2 4256 0
	lwz 3,0(31)
	lwz 4,2004(26)
	li 5,0
	lwz 9,0(3)
	lwz 0,88(9)
	mtctr 0
	bctrl
.L151:
	.loc 2 4250 0
	cmpw 7,31,28
	bne+ 7,.L153
.LBE4322:
	.loc 2 4259 0
	lwz 0,44(1)
	lwz 25,12(1)
	mtlr 0
	lwz 26,16(1)
	lwz 27,20(1)
.LVL345:
	lwz 28,24(1)
.LVL346:
	lwz 29,28(1)
	lwz 30,32(1)
.LVL347:
	lwz 31,36(1)
	addi 1,1,40
	.cfi_remember_state
.LCFI119:
	.cfi_def_cfa_offset 0
	.cfi_restore 31
	.cfi_restore 30
	.cfi_restore 29
	.cfi_restore 28
	.cfi_restore 27
	.cfi_restore 26
	.cfi_restore 25
	blr
.LVL348:
.L155:
.LCFI120:
	.cfi_restore_state
.LBB4323:
	.loc 2 4253 0
	mr 3,25
	mr 4,30
	mr 5,27
	bl _ZN6idDict3SetEPKcS1_
	b .L152
.LBE4323:
	.cfi_endproc
.LFE3022:
	.size	_ZN8idEntity16Event_SetGuiParmEPKcS1_, .-_ZN8idEntity16Event_SetGuiParmEPKcS1_
	.align 2
	.globl _ZN8idEntity23DeconstructScriptObjectEv
	.type	_ZN8idEntity23DeconstructScriptObjectEv, @function
_ZN8idEntity23DeconstructScriptObjectEv:
.LFB2961:
	.loc 2 3137 0
	.cfi_startproc
	.cfi_personality 0,__gxx_personality_v0
	.cfi_lsda 0,.LLSDA2961
.LVL349:
	stwu 1,-24(1)
.LCFI121:
	.cfi_def_cfa_offset 24
	mflr 0
	stw 30,16(1)
	mr 30,3
	.cfi_offset 30, -8
	.cfi_register 65, 0
.LBB4324:
	.loc 2 3142 0
	lis 3,gameLocal@ha
.LVL350:
.LBE4324:
	.loc 2 3137 0
	stw 0,28(1)
.LBB4325:
	.loc 2 3142 0
	la 3,gameLocal@l(3)
.LBE4325:
	.loc 2 3137 0
	stw 29,12(1)
	stw 31,20(1)
.LEHB0:
.LBB4326:
	.loc 2 3142 0
	.cfi_offset 31, -4
	.cfi_offset 29, -12
	.cfi_offset 65, 4
	bl _ZNK11idGameLocal9GameStateEv
	cmpwi 7,3,4
	beq- 7,.L156
	.loc 2 3147 0
	addi 3,30,144
	bl _ZNK14idScriptObject13GetDestructorEv
.LVL351:
	.loc 2 3148 0
	mr. 29,3
	beq- 0,.L156
	.loc 2 3150 0
	li 3,7068
.LVL352:
	bl _ZN7idClassnwEj
.LEHE0:
	mr 31,3
.LEHB1:
	bl _ZN8idThreadC1Ev
.LEHE1:
.LVL353:
	.loc 2 3151 0 discriminator 1
	lwz 4,72(30)
	mr 3,31
.LEHB2:
	bl _ZN8idThread13SetThreadNameEPKc
	.loc 2 3152 0 discriminator 1
	mr 3,31
	mr 4,30
	mr 5,29
	li 6,1
	bl _ZN8idThread12CallFunctionEP8idEntityPK10function_tb
	.loc 2 3153 0 discriminator 1
	mr 3,31
	bl _ZN8idThread7ExecuteEv
	.loc 2 3154 0 discriminator 1
	cmpwi 7,31,0
	beq- 7,.L156
	lwz 9,0(31)
	mr 3,31
	lwz 0,8(9)
	mtctr 0
	bctrl
.LEHE2:
.LVL354:
.L156:
.LBE4326:
	.loc 2 3156 0
	lwz 0,28(1)
	lwz 29,12(1)
	mtlr 0
	lwz 30,16(1)
.LVL355:
	lwz 31,20(1)
	addi 1,1,24
	.cfi_remember_state
.LCFI122:
	.cfi_def_cfa_offset 0
	.cfi_restore 31
	.cfi_restore 30
	.cfi_restore 29
	blr
.LVL356:
.L159:
.LCFI123:
	.cfi_restore_state
	mr 30,3
.LVL357:
.LBB4327:
	.loc 2 3150 0
	mr 3,31
	bl _ZN7idClassdlEPv
	mr 3,30
.LEHB3:
	bl _Unwind_Resume
.LEHE3:
.LBE4327:
	.cfi_endproc
.LFE2961:
	.globl __gxx_personality_v0
	.section	.gcc_except_table,"a",@progbits
.LLSDA2961:
	.byte	0xff
	.byte	0xff
	.byte	0x1
	.uleb128 .LLSDACSE2961-.LLSDACSB2961
.LLSDACSB2961:
	.uleb128 .LEHB0-.LFB2961
	.uleb128 .LEHE0-.LEHB0
	.uleb128 0
	.uleb128 0
	.uleb128 .LEHB1-.LFB2961
	.uleb128 .LEHE1-.LEHB1
	.uleb128 .L159-.LFB2961
	.uleb128 0
	.uleb128 .LEHB2-.LFB2961
	.uleb128 .LEHE2-.LEHB2
	.uleb128 0
	.uleb128 0
	.uleb128 .LEHB3-.LFB2961
	.uleb128 .LEHE3-.LEHB3
	.uleb128 0
	.uleb128 0
.LLSDACSE2961:
	.section	".text"
	.size	_ZN8idEntity23DeconstructScriptObjectEv, .-_ZN8idEntity23DeconstructScriptObjectEv
	.align 2
	.globl _ZN8idEntity21ConstructScriptObjectEv
	.type	_ZN8idEntity21ConstructScriptObjectEv, @function
_ZN8idEntity21ConstructScriptObjectEv:
.LFB2960:
	.loc 2 3103 0
	.cfi_startproc
	.cfi_personality 0,__gxx_personality_v0
	.cfi_lsda 0,.LLSDA2960
.LVL358:
	stwu 1,-24(1)
.LCFI124:
	.cfi_def_cfa_offset 24
	mflr 0
	stw 30,16(1)
.LBB4328:
	.loc 2 3108 0
	addi 30,3,144
	.cfi_offset 30, -8
	.cfi_register 65, 0
.LBE4328:
	.loc 2 3103 0
	stw 29,12(1)
	mr 29,3
	.cfi_offset 29, -12
.LBB4329:
	.loc 2 3108 0
	mr 3,30
.LVL359:
.LBE4329:
	.loc 2 3103 0
	stw 0,28(1)
	stw 28,8(1)
	stw 31,20(1)
.LEHB4:
.LBB4330:
	.loc 2 3108 0
	.cfi_offset 31, -4
	.cfi_offset 28, -16
	.cfi_offset 65, 4
	bl _ZN14idScriptObject11ClearObjectEv
	.loc 2 3111 0
	mr 3,30
	bl _ZNK14idScriptObject14GetConstructorEv
.LVL360:
	.loc 2 3112 0
	mr. 28,3
	beq- 0,.L163
	.loc 2 3114 0
	li 3,7068
.LVL361:
	bl _ZN7idClassnwEj
.LEHE4:
	mr 31,3
.LEHB5:
	bl _ZN8idThreadC1Ev
.LEHE5:
.LVL362:
	.loc 2 3115 0 discriminator 1
	lwz 4,72(29)
	mr 3,31
.LEHB6:
	bl _ZN8idThread13SetThreadNameEPKc
	.loc 2 3116 0 discriminator 1
	mr 3,31
	mr 4,29
	mr 5,28
	li 6,1
	bl _ZN8idThread12CallFunctionEP8idEntityPK10function_tb
	.loc 2 3117 0 discriminator 1
	mr 3,31
	li 4,0
	bl _ZN8idThread12DelayedStartEi
.LVL363:
.L161:
	.loc 2 3123 0
	mr 3,30
	bl _ZN14idScriptObject11ClearObjectEv
.LEHE6:
.LBE4330:
	.loc 2 3126 0
	lwz 0,28(1)
	mr 3,31
	lwz 28,8(1)
.LVL364:
	mtlr 0
	lwz 29,12(1)
.LVL365:
	lwz 30,16(1)
.LVL366:
	lwz 31,20(1)
.LVL367:
	addi 1,1,24
	.cfi_remember_state
.LCFI125:
	.cfi_def_cfa_offset 0
	.cfi_restore 31
	.cfi_restore 30
	.cfi_restore 29
	.cfi_restore 28
	blr
.LVL368:
.L163:
.LCFI126:
	.cfi_restore_state
.LBB4331:
	.loc 2 3119 0
	li 31,0
	b .L161
.LVL369:
.L164:
	mr 30,3
	.loc 2 3114 0
	mr 3,31
	bl _ZN7idClassdlEPv
	mr 3,30
.LEHB7:
	bl _Unwind_Resume
.LEHE7:
.LBE4331:
	.cfi_endproc
.LFE2960:
	.section	.gcc_except_table
.LLSDA2960:
	.byte	0xff
	.byte	0xff
	.byte	0x1
	.uleb128 .LLSDACSE2960-.LLSDACSB2960
.LLSDACSB2960:
	.uleb128 .LEHB4-.LFB2960
	.uleb128 .LEHE4-.LEHB4
	.uleb128 0
	.uleb128 0
	.uleb128 .LEHB5-.LFB2960
	.uleb128 .LEHE5-.LEHB5
	.uleb128 .L164-.LFB2960
	.uleb128 0
	.uleb128 .LEHB6-.LFB2960
	.uleb128 .LEHE6-.LEHB6
	.uleb128 0
	.uleb128 0
	.uleb128 .LEHB7-.LFB2960
	.uleb128 .LEHE7-.LEHB7
	.uleb128 0
	.uleb128 0
.LLSDACSE2960:
	.section	".text"
	.size	_ZN8idEntity21ConstructScriptObjectEv, .-_ZN8idEntity21ConstructScriptObjectEv
	.align 2
	.globl _ZN8idEntity13GetRenderViewEv
	.type	_ZN8idEntity13GetRenderViewEv, @function
_ZN8idEntity13GetRenderViewEv:
.LFB2885:
	.loc 2 1491 0
	.cfi_startproc
.LVL370:
	mflr 0
	stwu 1,-24(1)
.LCFI127:
	.cfi_def_cfa_offset 24
	.cfi_register 65, 0
	stw 31,20(1)
	mr 31,3
	.cfi_offset 31, -4
	stw 0,28(1)
	stw 29,12(1)
	stw 30,16(1)
.LBB4332:
	.loc 2 1492 0
	lwz 3,164(3)
.LVL371:
	cmpwi 7,3,0
	beq- 7,.L171
	.cfi_offset 30, -8
	.cfi_offset 29, -12
	.cfi_offset 65, 4
.L166:
	.loc 2 1495 0
	li 5,136
	li 4,0
	bl memset
.LBB4333:
.LBB4334:
	.loc 2 2522 0
	lwz 3,584(31)
.LBE4334:
.LBE4333:
	.loc 2 1497 0
	li 4,0
	lwz 30,164(31)
.LVL372:
	lwz 9,0(3)
	lwz 0,132(9)
	mtctr 0
	bctrl
.LVL373:
	.loc 2 1498 0
	lis 9,.LC20@ha
.LBB4335:
.LBB4336:
	.loc 4 424 0
	lwz 0,0(3)
.LBE4336:
.LBE4335:
	.loc 2 1500 0
	li 4,0
.LBB4339:
.LBB4337:
	.loc 4 424 0
	stw 0,28(30)
.LBE4337:
.LBE4339:
	.loc 2 1498 0
	lwz 0,.LC20@l(9)
.LBB4340:
.LBB4338:
	.loc 4 425 0
	lwz 9,4(3)
	stw 9,32(30)
	.loc 4 426 0
	lwz 9,8(3)
	stw 9,36(30)
.LBE4338:
.LBE4340:
	.loc 2 1498 0
	lwz 9,164(31)
	stw 0,20(9)
	.loc 2 1499 0
	lwz 9,164(31)
	stw 0,24(9)
.LBB4341:
.LBB4342:
	.loc 2 2522 0
	lwz 3,584(31)
.LVL374:
.LBE4342:
.LBE4341:
	.loc 2 1500 0
	lwz 30,164(31)
.LVL375:
	lwz 9,0(3)
.LBB4343:
.LBB4344:
	.loc 7 333 0
	addi 30,30,40
.LBE4344:
.LBE4343:
	.loc 2 1500 0
	lwz 0,136(9)
	mtctr 0
	bctrl
.LVL376:
.LBB4352:
.LBB4351:
	.loc 7 333 0
	li 10,0
.L167:
.LBB4345:
.LBB4346:
	.loc 4 424 0
	mr 11,3
	mr 9,30
	lwzux 0,11,10
.LBE4346:
.LBE4345:
	.loc 7 333 0
	cmpwi 7,10,24
.LBB4349:
.LBB4347:
	.loc 4 424 0
	stwux 0,9,10
.LBE4347:
.LBE4349:
	.loc 7 333 0
	addi 10,10,12
.LBB4350:
.LBB4348:
	.loc 4 425 0
	lwz 0,4(11)
	stw 0,4(9)
	.loc 4 426 0
	lwz 0,8(11)
	stw 0,8(9)
.LBE4348:
.LBE4350:
	.loc 7 333 0
	bne+ 7,.L167
	li 0,12
	lis 11,gameLocal+33420@ha
	mtctr 0
	la 11,gameLocal+33420@l(11)
	li 9,0
.L168:
.LBE4351:
.LBE4352:
.LBB4353:
	.loc 2 1504 0 discriminator 2
	lwz 8,164(31)
	addi 10,9,20
	lwzu 0,4(11)
	slwi 10,10,2
	add 10,8,10
	.loc 2 1503 0 discriminator 2
	addi 9,9,1
.LVL377:
	.loc 2 1504 0 discriminator 2
	stw 0,4(10)
	.loc 2 1503 0 discriminator 2
	bdnz .L168
.LBE4353:
	.loc 2 1507 0
	lis 30,gameLocal@ha
.LVL378:
	lwz 29,164(31)
	la 30,gameLocal@l(30)
	mr 3,30
.LVL379:
	.loc 2 1509 0
	addis 30,30,0x25
	.loc 2 1507 0
	bl _ZN11idGameLocal17GetGlobalMaterialEv
.LVL380:
	stw 3,132(29)
	.loc 2 1509 0
	lwz 0,2004(30)
	lwz 9,164(31)
	stw 0,80(9)
.LBE4332:
	.loc 2 1512 0
	lwz 0,28(1)
	lwz 3,164(31)
	mtlr 0
	lwz 29,12(1)
	lwz 30,16(1)
	lwz 31,20(1)
.LVL381:
	addi 1,1,24
	.cfi_remember_state
.LCFI128:
	.cfi_def_cfa_offset 0
	.cfi_restore 31
	.cfi_restore 30
	.cfi_restore 29
	blr
.LVL382:
.L171:
.LCFI129:
	.cfi_restore_state
.LBB4354:
	.loc 2 1493 0
	li 3,136
	bl _Znwj
	stw 3,164(31)
	b .L166
.LBE4354:
	.cfi_endproc
.LFE2885:
	.size	_ZN8idEntity13GetRenderViewEv, .-_ZN8idEntity13GetRenderViewEv
	.align 2
	.globl _ZNK8idEntity4SaveEP10idSaveGame
	.type	_ZNK8idEntity4SaveEP10idSaveGame, @function
_ZNK8idEntity4SaveEP10idSaveGame:
.LFB2838:
	.loc 2 623 0
	.cfi_startproc
.LVL383:
	mflr 0
	stwu 1,-48(1)
.LCFI130:
	.cfi_def_cfa_offset 48
	.cfi_register 65, 0
	stw 30,40(1)
	mr 30,4
	.cfi_offset 30, -8
	stw 0,52(1)
	stw 31,44(1)
	mr 31,3
	.cfi_offset 31, -4
	.cfi_offset 65, 4
	stw 26,24(1)
	stw 27,28(1)
	stw 28,32(1)
	stw 29,36(1)
.LBB4355:
	.loc 2 626 0
	lwz 4,4(3)
.LVL384:
	mr 3,30
.LVL385:
	.cfi_offset 29, -12
	.cfi_offset 28, -16
	.cfi_offset 27, -20
	.cfi_offset 26, -24
	bl _ZN10idSaveGame8WriteIntEi
	.loc 2 627 0
	lwz 4,8(31)
	mr 3,30
	bl _ZN10idSaveGame8WriteIntEi
	.loc 2 631 0
	lwz 4,60(31)
	mr 3,30
	bl _ZN10idSaveGame8WriteIntEi
	.loc 2 632 0
	lwz 4,64(31)
	mr 3,30
	bl _ZN10idSaveGame8WriteIntEi
	.loc 2 634 0
	mr 3,30
	addi 4,31,100
	bl _ZN10idSaveGame9WriteDictEPK6idDict
.LVL386:
	.loc 2 635 0
	lwz 4,72(31)
	mr 3,30
	bl _ZN10idSaveGame11WriteStringEPKc
	.loc 2 636 0
	mr 4,30
	addi 3,31,144
	bl _ZNK14idScriptObject4SaveEP10idSaveGame
	.loc 2 638 0
	lwz 4,152(31)
	mr 3,30
	bl _ZN10idSaveGame8WriteIntEi
	.loc 2 639 0
	lwz 4,156(31)
	mr 3,30
	bl _ZN10idSaveGame8WriteIntEi
	.loc 2 640 0
	lbz 4,160(31)
	mr 3,30
	bl _ZN10idSaveGame9WriteBoolEb
	.loc 2 642 0
	lwz 4,168(31)
	mr 3,30
	bl _ZN10idSaveGame11WriteObjectEPK7idClass
	.loc 2 644 0
	lwz 4,188(31)
	mr 3,30
	bl _ZN10idSaveGame8WriteIntEi
	.loc 2 646 0
	lwz 4,172(31)
	mr 3,30
	bl _ZN10idSaveGame8WriteIntEi
.LVL387:
	.loc 2 647 0
	lwz 0,172(31)
	cmpwi 7,0,0
	ble- 7,.L173
	li 29,0
.LVL388:
.L174:
.LBB4356:
.LBB4357:
	.loc 10 595 0 discriminator 2
	lwz 9,184(31)
	slwi 0,29,2
	mr 3,30
.LBE4357:
.LBE4356:
	.loc 2 647 0 discriminator 2
	addi 29,29,1
.LVL389:
.LBB4359:
.LBB4358:
	.loc 10 595 0 discriminator 2
	lwzx 4,9,0
	bl _ZN10idSaveGame8WriteIntEi
.LVL390:
.LBE4358:
.LBE4359:
	.loc 2 647 0 discriminator 2
	lwz 0,172(31)
	cmpw 7,0,29
	bgt+ 7,.L174
.LVL391:
.L173:
	.loc 2 651 0
	lhz 0,192(31)
	mr 29,1
	.loc 2 652 0
	li 4,2
	.loc 2 667 0
	mr 28,31
	.loc 2 651 0
	sthu 0,8(29)
	.loc 2 652 0
	mr 3,29
	bl _Z14LittleBitFieldPvi
	.loc 2 653 0
	li 5,2
	mr 4,29
	mr 3,30
	bl _ZN10idSaveGame5WriteEPKvi
	.loc 2 655 0
	mr 3,30
	addi 4,31,196
	.loc 2 668 0
	li 29,0
	.loc 2 655 0
	bl _ZN10idSaveGame17WriteRenderEntityERK14renderEntity_s
	.loc 2 656 0
	lwz 4,412(31)
	mr 3,30
	bl _ZN10idSaveGame8WriteIntEi
	.loc 2 657 0
	mr 3,30
	addi 4,31,416
	bl _ZN10idSaveGame13WriteRefSoundERK10refSound_t
	.loc 2 659 0
	lwz 4,588(31)
	mr 3,30
	bl _ZN10idSaveGame11WriteObjectEPK7idClass
	.loc 2 660 0
	lwz 4,592(31)
	mr 3,30
	bl _ZN10idSaveGame10WriteJointE13jointHandle_t
	.loc 2 661 0
	lwz 4,596(31)
	mr 3,30
	bl _ZN10idSaveGame8WriteIntEi
	.loc 2 662 0
	lwz 4,600(31)
	mr 3,30
	bl _ZN10idSaveGame11WriteObjectEPK7idClass
	.loc 2 663 0
	lwz 4,604(31)
	mr 3,30
	bl _ZN10idSaveGame11WriteObjectEPK7idClass
	.loc 2 665 0
	mr 3,30
	addi 4,31,472
	bl _ZN10idSaveGame17WriteStaticObjectERK7idClass
	.loc 2 667 0
	lwzu 4,608(28)
	mr 3,30
	bl _ZN10idSaveGame8WriteIntEi
.LVL392:
.L175:
	.loc 2 669 0 discriminator 2
	lwzu 4,4(28)
	mr 3,30
	bl _ZN10idSaveGame8WriteIntEi
.LVL393:
	.loc 2 668 0 discriminator 2
	cmpwi 7,29,3
	addi 29,29,1
.LVL394:
	bne+ 7,.L175
	.loc 2 672 0
	lwz 0,628(31)
	.loc 2 673 0
	mr 3,30
	.loc 2 672 0
	cmpwi 7,0,0
	beq- 7,.L185
	.loc 2 675 0
	li 4,1
	.loc 2 676 0
	li 26,0
	.loc 2 675 0
	bl _ZN10idSaveGame9WriteBoolEb
.LVL395:
	lwz 9,628(31)
.LVL396:
.L180:
	.loc 2 677 0
	slwi 28,26,4
	mr 3,30
	lwzx 4,9,28
	bl _ZN10idSaveGame8WriteIntEi
.LVL397:
	.loc 2 678 0
	lwz 9,628(31)
	lwzx 0,9,28
	cmpwi 7,0,0
	ble- 7,.L178
	li 29,0
.LVL398:
.L179:
.LBB4360:
.LBB4361:
	.loc 2 5400 0 discriminator 2
	add 9,9,28
.LBE4361:
.LBE4360:
	.loc 2 623 0 discriminator 2
	slwi 27,29,3
	.loc 2 679 0 discriminator 2
	lwz 9,12(9)
	mr 3,30
	.loc 2 678 0 discriminator 2
	addi 29,29,1
.LVL399:
	.loc 2 679 0 discriminator 2
	lwzx 4,9,27
	bl _ZN10idSaveGame8WriteIntEi
.LBB4362:
.LBB4363:
	.loc 2 5400 0 discriminator 2
	lwz 9,628(31)
	add 9,9,28
.LBE4363:
.LBE4362:
	.loc 2 680 0 discriminator 2
	lwz 0,12(9)
	add 27,0,27
	lwz 3,4(27)
	bl _ZNK10function_t4NameEv
	mr 4,3
	mr 3,30
	bl _ZN10idSaveGame11WriteStringEPKc
.LVL400:
	.loc 2 678 0 discriminator 2
	lwz 9,628(31)
	lwzx 0,9,28
	cmpw 7,0,29
	bgt+ 7,.L179
.LVL401:
.L178:
	.loc 2 676 0
	cmpwi 7,26,9
	addi 26,26,1
.LVL402:
	bne+ 7,.L180
	.loc 2 685 0
	lwz 4,632(31)
	mr 3,30
	bl _ZN10idSaveGame8WriteIntEi
.LBE4355:
	.loc 2 686 0
	lwz 0,52(1)
	lwz 26,24(1)
.LVL403:
	mtlr 0
	lwz 27,28(1)
	lwz 28,32(1)
	lwz 29,36(1)
	lwz 30,40(1)
.LVL404:
	lwz 31,44(1)
.LVL405:
	addi 1,1,48
	.cfi_remember_state
.LCFI131:
	.cfi_def_cfa_offset 0
	.cfi_restore 31
	.cfi_restore 30
	.cfi_restore 29
	.cfi_restore 28
	.cfi_restore 27
	.cfi_restore 26
	blr
.LVL406:
.L185:
.LCFI132:
	.cfi_restore_state
.LBB4364:
	.loc 2 673 0
	li 4,0
	bl _ZN10idSaveGame9WriteBoolEb
.LVL407:
	.loc 2 685 0
	lwz 4,632(31)
	mr 3,30
	bl _ZN10idSaveGame8WriteIntEi
.LBE4364:
	.loc 2 686 0
	lwz 0,52(1)
	lwz 26,24(1)
	mtlr 0
	lwz 27,28(1)
	lwz 28,32(1)
	lwz 29,36(1)
.LVL408:
	lwz 30,40(1)
.LVL409:
	lwz 31,44(1)
.LVL410:
	addi 1,1,48
	.cfi_restore 26
	.cfi_restore 27
	.cfi_restore 28
	.cfi_restore 29
	.cfi_restore 30
	.cfi_restore 31
.LCFI133:
	.cfi_def_cfa_offset 0
	blr
	.cfi_endproc
.LFE2838:
	.size	_ZNK8idEntity4SaveEP10idSaveGame, .-_ZNK8idEntity4SaveEP10idSaveGame
	.align 2
	.globl _ZN8idEntity12FreeModelDefEv
	.type	_ZN8idEntity12FreeModelDefEv, @function
_ZN8idEntity12FreeModelDefEv:
.LFB2864:
	.loc 2 1134 0
	.cfi_startproc
.LVL411:
	mflr 0
	stwu 1,-16(1)
.LCFI134:
	.cfi_def_cfa_offset 16
	.cfi_register 65, 0
	stw 31,12(1)
	mr 31,3
	.cfi_offset 31, -4
	stw 0,20(1)
	.loc 2 1135 0
	lwz 4,412(3)
	cmpwi 7,4,-1
	beq- 7,.L186
	.cfi_offset 65, 4
.LVL412:
.LBB4367:
.LBB4368:
	.loc 2 1136 0
	lis 9,gameRenderWorld@ha
	lwz 3,gameRenderWorld@l(9)
.LVL413:
	lwz 9,0(3)
	lwz 0,24(9)
	mtctr 0
	bctrl
	.loc 2 1137 0
	li 0,-1
	stw 0,412(31)
.LVL414:
.L186:
.LBE4368:
.LBE4367:
	.loc 2 1139 0
	lwz 0,20(1)
	lwz 31,12(1)
.LVL415:
	mtlr 0
	addi 1,1,16
.LCFI135:
	.cfi_def_cfa_offset 0
	.cfi_restore 31
	blr
	.cfi_endproc
.LFE2864:
	.size	_ZN8idEntity12FreeModelDefEv, .-_ZN8idEntity12FreeModelDefEv
	.align 2
	.globl _ZN16idAnimatedEntity7RestoreEP13idRestoreGame
	.type	_ZN16idAnimatedEntity7RestoreEP13idRestoreGame, @function
_ZN16idAnimatedEntity7RestoreEP13idRestoreGame:
.LFB3064:
	.loc 2 4931 0
	.cfi_startproc
.LVL416:
	stwu 1,-16(1)
.LCFI136:
	.cfi_def_cfa_offset 16
	mflr 0
	stw 30,8(1)
	.loc 2 4932 0
	addi 30,3,636
	.cfi_offset 30, -8
	.cfi_register 65, 0
	.loc 2 4931 0
	stw 31,12(1)
	mr 31,3
	.cfi_offset 31, -4
	.loc 2 4932 0
	mr 3,30
.LVL417:
	.loc 2 4931 0
	stw 0,20(1)
	.loc 2 4932 0
	.cfi_offset 65, 4
	bl _ZN10idAnimator7RestoreEP13idRestoreGame
.LVL418:
	.loc 2 4935 0
	mr 3,30
	bl _ZNK10idAnimator11ModelHandleEv
	cmpwi 7,3,0
	beq- 7,.L188
	.loc 2 4937 0
	lis 9,_ZN8idEntity13ModelCallbackEP14renderEntity_sPK12renderView_s@ha
	.loc 2 4938 0
	mr 3,30
	.loc 2 4937 0
	la 0,_ZN8idEntity13ModelCallbackEP14renderEntity_sPK12renderView_s@l(9)
	.loc 2 4938 0
	addi 4,31,384
	.loc 2 4937 0
	stw 0,232(31)
	.loc 2 4938 0
	addi 5,31,388
	bl _ZN10idAnimator9GetJointsEPiPP10idJointMat
	.loc 2 4939 0
	lis 9,gameLocal+2426836@ha
	lwz 4,gameLocal+2426836@l(9)
	mr 3,30
	addi 5,31,208
	bl _ZN10idAnimator9GetBoundsEiR8idBounds
	.loc 2 4940 0
	lwz 4,412(31)
	cmpwi 7,4,-1
	beq- 7,.L188
.LVL419:
.LBB4371:
.LBB4372:
	.loc 2 4941 0
	lis 9,gameRenderWorld@ha
	addi 5,31,196
	lwz 3,gameRenderWorld@l(9)
	lwz 9,0(3)
	lwz 0,20(9)
	mtctr 0
	bctrl
.LVL420:
.L188:
.LBE4372:
.LBE4371:
	.loc 2 4944 0
	lwz 0,20(1)
	lwz 30,8(1)
	mtlr 0
	lwz 31,12(1)
.LVL421:
	addi 1,1,16
.LCFI137:
	.cfi_def_cfa_offset 0
	.cfi_restore 31
	.cfi_restore 30
	blr
	.cfi_endproc
.LFE3064:
	.size	_ZN16idAnimatedEntity7RestoreEP13idRestoreGame, .-_ZN16idAnimatedEntity7RestoreEP13idRestoreGame
	.align 2
	.globl _ZN8idEntity26GetPhysicsToSoundTransformER6idVec3R6idMat3
	.type	_ZN8idEntity26GetPhysicsToSoundTransformER6idVec3R6idMat3, @function
_ZN8idEntity26GetPhysicsToSoundTransformER6idVec3R6idMat3:
.LFB2943:
	.loc 2 2767 0
	.cfi_startproc
.LVL422:
	mflr 0
	stwu 1,-24(1)
.LCFI138:
	.cfi_def_cfa_offset 24
	.cfi_register 65, 0
	stw 29,12(1)
	mr 29,5
	.cfi_offset 29, -12
	stw 30,16(1)
	mr 30,3
	.cfi_offset 30, -8
.LVL423:
	stw 31,20(1)
	mr 31,4
	.cfi_offset 31, -4
	stw 0,28(1)
.LBB4402:
.LBB4403:
	.loc 2 2522 0
	lwz 3,584(3)
.LVL424:
.LBE4403:
.LBE4402:
	.loc 2 2769 0
	lwz 9,0(3)
	lwz 0,28(9)
	.cfi_offset 65, 4
	mtctr 0
	bctrl
.LVL425:
	cmpwi 7,3,0
	.loc 2 2774 0
	li 3,0
	.loc 2 2769 0
	ble- 7,.L191
.LVL426:
.LBB4404:
.LBB4405:
.LBB4406:
.LBB4407:
	.loc 2 2522 0
	lwz 3,584(30)
.LBE4407:
.LBE4406:
	.loc 2 2770 0
	li 4,-1
	lwz 9,0(3)
	lwz 0,56(9)
	mtctr 0
	bctrl
.LVL427:
.LBB4408:
.LBB4409:
	.loc 8 212 0
	lis 9,.LC11@ha
	lfs 0,0(3)
	lis 8,mat3_identity@ha
	lfs 9,16(3)
.LBE4409:
.LBE4408:
.LBB4411:
.LBB4412:
.LBB4413:
	.loc 7 333 0
	li 10,0
.LBE4413:
.LBE4412:
.LBE4411:
.LBB4422:
.LBB4410:
	.loc 8 212 0
	lfs 12,4(3)
	la 8,mat3_identity@l(8)
	lfs 10,20(3)
	lfs 13,8(3)
	fadds 12,9,12
	lfs 11,12(3)
	fadds 13,10,13
	fadds 11,11,0
	lfs 0,.LC11@l(9)
	fmuls 12,12,0
.LVL428:
	fmuls 13,13,0
.LVL429:
	fmuls 0,11,0
.LBE4410:
.LBE4422:
.LBB4423:
.LBB4424:
	.loc 4 425 0
	stfs 12,4(31)
	.loc 4 426 0
	stfs 13,8(31)
.LVL430:
	.loc 4 424 0
	stfs 0,0(31)
.LVL431:
.L192:
.LBE4424:
.LBE4423:
.LBB4425:
.LBB4421:
.LBB4420:
.LBB4414:
.LBB4415:
	mr 11,8
	mr 9,29
	lwzux 0,11,10
.LBE4415:
.LBE4414:
	.loc 7 333 0
	cmpwi 7,10,24
.LBB4418:
.LBB4416:
	.loc 4 424 0
	stwux 0,9,10
.LBE4416:
.LBE4418:
	.loc 7 333 0
	addi 10,10,12
.LBB4419:
.LBB4417:
	.loc 4 425 0
	lwz 0,4(11)
	stw 0,4(9)
	.loc 4 426 0
	lwz 0,8(11)
	stw 0,8(9)
.LBE4417:
.LBE4419:
	.loc 7 333 0
	bne+ 7,.L192
	li 3,1
.LVL432:
.L191:
.LBE4420:
.LBE4421:
.LBE4425:
.LBE4405:
.LBE4404:
	.loc 2 2775 0
	lwz 0,28(1)
	lwz 29,12(1)
.LVL433:
	mtlr 0
	lwz 30,16(1)
.LVL434:
	lwz 31,20(1)
.LVL435:
	addi 1,1,24
.LCFI139:
	.cfi_def_cfa_offset 0
	.cfi_restore 31
	.cfi_restore 30
	.cfi_restore 29
	blr
	.cfi_endproc
.LFE2943:
	.size	_ZN8idEntity26GetPhysicsToSoundTransformER6idVec3R6idMat3, .-_ZN8idEntity26GetPhysicsToSoundTransformER6idVec3R6idMat3
	.align 2
	.type	_Z41__static_initialization_and_destruction_0ii.constprop.97, @function
_Z41__static_initialization_and_destruction_0ii.constprop.97:
.LFB3606:
	.loc 2 5400 0
	.cfi_startproc
.LVL436:
	cmpwi 7,3,1
	mflr 0
	stwu 1,-64(1)
.LCFI140:
	.cfi_def_cfa_offset 64
	.cfi_register 65, 0
	stw 0,68(1)
	stw 25,36(1)
	stw 26,40(1)
	stw 27,44(1)
	stw 28,48(1)
	stw 29,52(1)
	stw 30,56(1)
	stw 31,60(1)
	.loc 2 5400 0
	beq- 7,.L198
	.cfi_offset 31, -4
	.cfi_offset 30, -8
	.cfi_offset 29, -12
	.cfi_offset 28, -16
	.cfi_offset 27, -20
	.cfi_offset 26, -24
	.cfi_offset 25, -28
	.cfi_offset 65, 4
	.loc 2 4872 0
	cmpwi 7,3,0
	bne- 7,.L195
	lis 31,.LANCHOR0@ha
	la 31,.LANCHOR0@l(31)
	addi 3,31,80
.LVL437:
	bl _ZN10idTypeInfoD1Ev
	.loc 2 109 0
	mr 3,31
	bl _ZN10idTypeInfoD1Ev
.L195:
	.loc 2 5400 0
	lwz 0,68(1)
	lwz 25,36(1)
	mtlr 0
	lwz 26,40(1)
	lwz 27,44(1)
	lwz 28,48(1)
	lwz 29,52(1)
	lwz 30,56(1)
	lwz 31,60(1)
	addi 1,1,64
	.cfi_remember_state
.LCFI141:
	.cfi_def_cfa_offset 0
	.cfi_restore 31
	.cfi_restore 30
	.cfi_restore 29
	.cfi_restore 28
	.cfi_restore 27
	.cfi_restore 26
	.cfi_restore 25
	blr
.LVL438:
.L198:
.LCFI142:
	.cfi_restore_state
	.loc 10 694 0
	lis 9,_ZN6idMath8M_SEC2MSE@ha
	.loc 10 121 0
	lis 31,.LANCHOR0@ha
	.loc 10 694 0
	lfs 0,_ZN6idMath8M_SEC2MSE@l(9)
	.loc 10 121 0
	la 31,.LANCHOR0@l(31)
	li 11,3
.LBB4426:
.LBB4427:
	.loc 4 396 0
	li 0,0
.LBE4427:
.LBE4426:
	.loc 10 694 0
	fadds 0,0,0
	.loc 10 121 0
	stw 11,160(31)
.LVL439:
.LBB4431:
.LBB4428:
	.loc 4 398 0
	lis 11,.LC21@ha
	.loc 4 396 0
	stw 0,164(31)
	.loc 4 397 0
	stw 0,168(31)
.LBE4428:
.LBE4431:
.LBB4432:
.LBB4433:
	.loc 9 825 0
	addi 9,31,176
.LBE4433:
.LBE4432:
.LBB4436:
.LBB4429:
	.loc 4 398 0
	lwz 0,.LC21@l(11)
.LBE4429:
.LBE4436:
.LBB4437:
.LBB4434:
	.loc 9 825 0
	fctiwz 0,0
.LBE4434:
.LBE4437:
	.loc 2 43 0
	lis 4,.LC22@ha
	addi 3,31,184
.LVL440:
.LBB4438:
.LBB4430:
	.loc 4 398 0
	stw 0,172(31)
.LVL441:
.LBE4430:
.LBE4438:
	.file 11 "d:/Data/Nintendo/DoomGX/src/game/Player.h"
	.loc 11 69 0
	li 0,10
	stw 0,180(31)
	.loc 2 43 0
	la 4,.LC22@l(4)
.LBB4439:
.LBB4435:
	.loc 9 825 0
	stfiwx 0,0,9
.LVL442:
.LBE4435:
.LBE4439:
	.loc 2 43 0
	li 5,0
	li 6,0
	.loc 2 47 0
	lis 30,.LC28@ha
	.loc 2 43 0
	bl _ZN10idEventDefC1EPKcS1_c
	.loc 2 44 0
	lis 4,.LC23@ha
	addi 3,31,248
	la 4,.LC23@l(4)
	li 5,0
	li 6,0
	bl _ZN10idEventDefC1EPKcS1_c
	.loc 2 45 0
	lis 4,.LC24@ha
	lis 5,.LC25@ha
	addi 3,31,312
	la 4,.LC24@l(4)
	la 5,.LC25@l(5)
	li 6,0
	.loc 2 47 0
	la 30,.LC28@l(30)
	.loc 2 45 0
	bl _ZN10idEventDefC1EPKcS1_c
	.loc 2 46 0
	lis 4,.LC26@ha
	addi 3,31,376
	la 4,.LC26@l(4)
	li 5,0
	li 6,115
	bl _ZN10idEventDefC1EPKcS1_c
	.loc 2 47 0
	lis 4,.LC27@ha
	addi 3,31,440
	mr 5,30
	la 4,.LC27@l(4)
	li 6,0
	.loc 2 48 0
	lis 29,.LC30@ha
	.loc 2 47 0
	bl _ZN10idEventDefC1EPKcS1_c
	.loc 2 48 0
	la 29,.LC30@l(29)
	lis 4,.LC29@ha
	addi 3,31,504
	mr 5,29
	la 4,.LC29@l(4)
	li 6,0
	bl _ZN10idEventDefC1EPKcS1_c
	.loc 2 49 0
	lis 4,.LC31@ha
	addi 3,31,568
	mr 5,29
	la 4,.LC31@l(4)
	li 6,0
	bl _ZN10idEventDefC1EPKcS1_c
	.loc 2 50 0
	lis 4,.LC32@ha
	addi 3,31,632
	la 4,.LC32@l(4)
	li 5,0
	li 6,102
	bl _ZN10idEventDefC1EPKcS1_c
	.loc 2 51 0
	lis 4,.LC33@ha
	lis 5,.LC34@ha
	addi 3,31,696
	la 4,.LC33@l(4)
	la 5,.LC34@l(5)
	li 6,101
	.loc 2 79 0
	lis 26,.LC66@ha
	.loc 2 51 0
	bl _ZN10idEventDefC1EPKcS1_c
	.loc 2 52 0
	lis 4,.LC35@ha
	addi 3,31,760
	mr 5,30
	la 4,.LC35@l(4)
	li 6,101
	bl _ZN10idEventDefC1EPKcS1_c
	.loc 2 53 0
	lis 4,.LC36@ha
	addi 3,31,824
	mr 5,29
	la 4,.LC36@l(4)
	li 6,0
	bl _ZN10idEventDefC1EPKcS1_c
	.loc 2 54 0
	lis 4,.LC37@ha
	addi 3,31,888
	mr 5,29
	la 4,.LC37@l(4)
	li 6,0
	bl _ZN10idEventDefC1EPKcS1_c
	.loc 2 55 0
	lis 4,.LC38@ha
	lis 5,.LC39@ha
	addi 3,31,952
	la 4,.LC38@l(4)
	la 5,.LC39@l(5)
	li 6,0
	.loc 2 79 0
	la 26,.LC66@l(26)
	.loc 2 55 0
	bl _ZN10idEventDefC1EPKcS1_c
	.loc 2 56 0
	lis 4,.LC40@ha
	addi 3,31,1016
	la 4,.LC40@l(4)
	li 5,0
	li 6,0
	bl _ZN10idEventDefC1EPKcS1_c
	.loc 2 57 0
	lis 4,.LC41@ha
	addi 3,31,1080
	la 4,.LC41@l(4)
	li 5,0
	li 6,0
	bl _ZN10idEventDefC1EPKcS1_c
	.loc 2 58 0
	lis 4,.LC42@ha
	addi 3,31,1144
	la 4,.LC42@l(4)
	li 5,0
	li 6,0
	bl _ZN10idEventDefC1EPKcS1_c
	.loc 2 59 0
	lis 4,.LC43@ha
	addi 3,31,1208
	mr 5,29
	la 4,.LC43@l(4)
	li 6,0
	bl _ZN10idEventDefC1EPKcS1_c
	.loc 2 60 0
	lis 4,.LC44@ha
	addi 3,31,1272
	mr 5,30
	la 4,.LC44@l(4)
	li 6,0
	bl _ZN10idEventDefC1EPKcS1_c
	.loc 2 61 0
	lis 4,.LC45@ha
	addi 3,31,1336
	mr 5,30
	la 4,.LC45@l(4)
	li 6,0
	bl _ZN10idEventDefC1EPKcS1_c
	.loc 2 62 0
	lis 4,.LC46@ha
	addi 3,31,1400
	la 4,.LC46@l(4)
	li 5,0
	li 6,118
	.loc 2 63 0
	lis 29,.LC48@ha
	.loc 2 62 0
	bl _ZN10idEventDefC1EPKcS1_c
	.loc 2 63 0
	la 29,.LC48@l(29)
	lis 4,.LC47@ha
	addi 3,31,1464
	mr 5,29
	la 4,.LC47@l(4)
	li 6,0
	bl _ZN10idEventDefC1EPKcS1_c
	.loc 2 64 0
	lis 4,.LC49@ha
	addi 3,31,1528
	la 4,.LC49@l(4)
	li 5,0
	li 6,118
	bl _ZN10idEventDefC1EPKcS1_c
	.loc 2 65 0
	lis 4,.LC50@ha
	addi 3,31,1592
	mr 5,29
	la 4,.LC50@l(4)
	li 6,0
	bl _ZN10idEventDefC1EPKcS1_c
	.loc 2 66 0
	lis 4,.LC51@ha
	addi 3,31,1656
	la 4,.LC51@l(4)
	li 5,0
	li 6,118
	bl _ZN10idEventDefC1EPKcS1_c
	.loc 2 67 0
	lis 4,.LC52@ha
	addi 3,31,1720
	mr 5,29
	la 4,.LC52@l(4)
	li 6,0
	bl _ZN10idEventDefC1EPKcS1_c
	.loc 2 68 0
	lis 4,.LC53@ha
	addi 3,31,1784
	la 4,.LC53@l(4)
	li 5,0
	li 6,118
	bl _ZN10idEventDefC1EPKcS1_c
	.loc 2 69 0
	lis 4,.LC54@ha
	addi 3,31,1848
	mr 5,29
	la 4,.LC54@l(4)
	li 6,0
	bl _ZN10idEventDefC1EPKcS1_c
	.loc 2 70 0
	lis 4,.LC55@ha
	addi 3,31,1912
	la 4,.LC55@l(4)
	li 5,0
	li 6,118
	bl _ZN10idEventDefC1EPKcS1_c
	.loc 2 71 0
	lis 4,.LC56@ha
	addi 3,31,1976
	mr 5,29
	la 4,.LC56@l(4)
	li 6,0
	bl _ZN10idEventDefC1EPKcS1_c
	.loc 2 72 0
	lis 4,.LC57@ha
	addi 3,31,2040
	la 4,.LC57@l(4)
	li 5,0
	li 6,118
	bl _ZN10idEventDefC1EPKcS1_c
	.loc 2 73 0
	lis 4,.LC58@ha
	lis 5,.LC59@ha
	addi 3,31,2104
	la 4,.LC58@l(4)
	la 5,.LC59@l(5)
	li 6,0
	.loc 2 80 0
	lis 28,.LC68@ha
	.loc 2 73 0
	bl _ZN10idEventDefC1EPKcS1_c
	.loc 2 74 0
	lis 4,.LC60@ha
	addi 3,31,2168
	la 4,.LC60@l(4)
	li 5,0
	li 6,118
	bl _ZN10idEventDefC1EPKcS1_c
	.loc 2 75 0
	lis 4,.LC61@ha
	addi 3,31,2232
	la 4,.LC61@l(4)
	li 5,0
	li 6,118
	bl _ZN10idEventDefC1EPKcS1_c
	.loc 2 76 0
	lis 4,.LC62@ha
	addi 3,31,2296
	la 4,.LC62@l(4)
	li 5,0
	li 6,100
	bl _ZN10idEventDefC1EPKcS1_c
	.loc 2 77 0
	lis 4,.LC63@ha
	addi 3,31,2360
	la 4,.LC63@l(4)
	li 5,0
	li 6,0
	bl _ZN10idEventDefC1EPKcS1_c
	.loc 2 78 0
	lis 4,.LC64@ha
	addi 3,31,2424
	la 4,.LC64@l(4)
	li 5,0
	li 6,0
	bl _ZN10idEventDefC1EPKcS1_c
	.loc 2 79 0
	lis 4,.LC65@ha
	addi 3,31,2488
	mr 5,26
	la 4,.LC65@l(4)
	li 6,100
	bl _ZN10idEventDefC1EPKcS1_c
	.loc 2 80 0
	la 28,.LC68@l(28)
	lis 4,.LC67@ha
	addi 3,31,2552
	mr 5,28
	la 4,.LC67@l(4)
	li 6,0
	.loc 2 91 0
	lis 27,.LC87@ha
	.loc 2 80 0
	bl _ZN10idEventDefC1EPKcS1_c
	.loc 2 81 0
	lis 4,.LC69@ha
	addi 3,31,2616
	mr 5,28
	la 4,.LC69@l(4)
	li 6,102
	bl _ZN10idEventDefC1EPKcS1_c
	.loc 2 82 0
	lis 4,.LC70@ha
	lis 5,.LC71@ha
	addi 3,31,2680
	la 4,.LC70@l(4)
	la 5,.LC71@l(5)
	li 6,0
	.loc 2 91 0
	la 27,.LC87@l(27)
	.loc 2 82 0
	bl _ZN10idEventDefC1EPKcS1_c
	.loc 2 83 0
	lis 4,.LC72@ha
	lis 5,.LC73@ha
	addi 3,31,2744
	la 4,.LC72@l(4)
	la 5,.LC73@l(5)
	li 6,0
	.loc 2 109 0
	lis 25,.LC4@ha
	.loc 2 83 0
	bl _ZN10idEventDefC1EPKcS1_c
	.loc 2 84 0
	lis 4,.LC74@ha
	lis 5,.LC75@ha
	addi 3,31,2808
	la 4,.LC74@l(4)
	la 5,.LC75@l(5)
	li 6,0
	.loc 2 109 0
	la 25,.LC4@l(25)
	.loc 2 84 0
	bl _ZN10idEventDefC1EPKcS1_c
	.loc 2 85 0
	lis 4,.LC76@ha
	addi 3,31,2872
	la 4,.LC76@l(4)
	li 5,0
	li 6,118
	bl _ZN10idEventDefC1EPKcS1_c
	.loc 2 86 0
	lis 4,.LC77@ha
	addi 3,31,2936
	mr 5,30
	la 4,.LC77@l(4)
	li 6,0
	bl _ZN10idEventDefC1EPKcS1_c
	.loc 2 87 0
	lis 4,.LC78@ha
	lis 5,.LC79@ha
	addi 3,31,3000
	la 4,.LC78@l(4)
	la 5,.LC79@l(5)
	li 6,102
	bl _ZN10idEventDefC1EPKcS1_c
	.loc 2 88 0
	lis 4,.LC80@ha
	lis 5,.LC81@ha
	addi 3,31,3064
	la 4,.LC80@l(4)
	la 5,.LC81@l(5)
	li 6,102
	bl _ZN10idEventDefC1EPKcS1_c
	.loc 2 89 0
	lis 4,.LC82@ha
	lis 5,.LC83@ha
	addi 3,31,3128
	la 4,.LC82@l(4)
	la 5,.LC83@l(5)
	li 6,0
	bl _ZN10idEventDefC1EPKcS1_c
	.loc 2 90 0
	lis 4,.LC84@ha
	lis 5,.LC85@ha
	addi 3,31,3192
	la 4,.LC84@l(4)
	la 5,.LC85@l(5)
	li 6,0
	bl _ZN10idEventDefC1EPKcS1_c
	.loc 2 91 0
	lis 4,.LC86@ha
	addi 3,31,3256
	mr 5,27
	la 4,.LC86@l(4)
	li 6,0
	bl _ZN10idEventDefC1EPKcS1_c
	.loc 2 92 0
	lis 4,.LC88@ha
	lis 5,.LC89@ha
	addi 3,31,3320
	la 4,.LC88@l(4)
	la 5,.LC89@l(5)
	li 6,0
	bl _ZN10idEventDefC1EPKcS1_c
	.loc 2 93 0
	lis 4,.LC90@ha
	addi 3,31,3384
	mr 5,27
	la 4,.LC90@l(4)
	li 6,115
	bl _ZN10idEventDefC1EPKcS1_c
	.loc 2 94 0
	lis 4,.LC91@ha
	addi 3,31,3448
	mr 5,27
	la 4,.LC91@l(4)
	li 6,0
	bl _ZN10idEventDefC1EPKcS1_c
	.loc 2 95 0
	lis 4,.LC92@ha
	addi 3,31,3512
	mr 5,30
	la 4,.LC92@l(4)
	li 6,115
	bl _ZN10idEventDefC1EPKcS1_c
	.loc 2 96 0
	lis 4,.LC93@ha
	addi 3,31,3576
	mr 5,30
	la 4,.LC93@l(4)
	li 6,102
	bl _ZN10idEventDefC1EPKcS1_c
	.loc 2 97 0
	lis 4,.LC94@ha
	addi 3,31,3640
	mr 5,30
	la 4,.LC94@l(4)
	li 6,102
	bl _ZN10idEventDefC1EPKcS1_c
	.loc 2 98 0
	lis 4,.LC95@ha
	addi 3,31,3704
	mr 5,30
	la 4,.LC95@l(4)
	li 6,118
	bl _ZN10idEventDefC1EPKcS1_c
	.loc 2 99 0
	lis 4,.LC96@ha
	addi 3,31,3768
	mr 5,30
	la 4,.LC96@l(4)
	li 6,101
	bl _ZN10idEventDefC1EPKcS1_c
	.loc 2 100 0
	lis 4,.LC97@ha
	addi 3,31,3832
	la 4,.LC97@l(4)
	li 5,0
	li 6,0
	bl _ZN10idEventDefC1EPKcS1_c
	.loc 2 101 0
	lis 4,.LC98@ha
	addi 3,31,3896
	la 4,.LC98@l(4)
	li 5,0
	li 6,0
	bl _ZN10idEventDefC1EPKcS1_c
	.loc 2 102 0
	lis 4,.LC99@ha
	addi 3,31,3960
	mr 5,26
	la 4,.LC99@l(4)
	li 6,102
	bl _ZN10idEventDefC1EPKcS1_c
	.loc 2 103 0
	lis 4,.LC100@ha
	addi 3,31,4024
	mr 5,29
	la 4,.LC100@l(4)
	li 6,102
	bl _ZN10idEventDefC1EPKcS1_c
	.loc 2 104 0
	lis 4,.LC101@ha
	addi 3,31,4088
	mr 5,30
	la 4,.LC101@l(4)
	li 6,0
	bl _ZN10idEventDefC1EPKcS1_c
	.loc 2 105 0
	lis 4,.LC102@ha
	addi 3,31,4152
	mr 5,30
	la 4,.LC102@l(4)
	li 6,100
	bl _ZN10idEventDefC1EPKcS1_c
	.loc 2 106 0
	lis 4,.LC103@ha
	addi 3,31,4216
	mr 5,30
	la 4,.LC103@l(4)
	li 6,0
	bl _ZN10idEventDefC1EPKcS1_c
	.loc 2 107 0
	lis 4,.LC104@ha
	addi 3,31,4280
	mr 5,28
	la 4,.LC104@l(4)
	li 6,0
	bl _ZN10idEventDefC1EPKcS1_c
	.loc 2 109 0
	lis 26,.LANCHOR1@ha
	lis 11,_ZNK8idEntity4SaveEP10idSaveGame@ha
	la 26,.LANCHOR1@l(26)
	la 0,_ZNK8idEntity4SaveEP10idSaveGame@l(11)
	lis 7,_ZN8idEntity14CreateInstanceEv@ha
	lis 11,_ZN8idEntity7RestoreEP13idRestoreGame@ha
	lis 27,_ZN8idEntity5SpawnEv@ha
	lis 5,.LC105@ha
	addi 8,1,8
	addi 9,1,16
	addi 10,1,24
	la 7,_ZN8idEntity14CreateInstanceEv@l(7)
	li 29,0
	la 27,_ZN8idEntity5SpawnEv@l(27)
	mr 3,31
	mr 4,25
	mr 6,26
	stw 0,16(1)
	la 5,.LC105@l(5)
	la 0,_ZN8idEntity7RestoreEP13idRestoreGame@l(11)
	stw 27,8(1)
	stw 0,24(1)
	stw 29,12(1)
	stw 29,20(1)
	stw 29,28(1)
	bl _ZN10idTypeInfoC1EPKcS1_P11idEventFuncI7idClassEPFPS3_vEMS3_FvvEMS3_KFvP10idSaveGameEMS3_FvP13idRestoreGameE
	.loc 2 4864 0
	lis 4,.LC106@ha
	addi 3,31,4344
	mr 5,30
	la 4,.LC106@l(4)
	li 6,100
	.loc 2 4867 0
	lis 30,.LC110@ha
	.loc 2 4864 0
	bl _ZN10idEventDefC1EPKcS1_c
	.loc 2 4865 0
	lis 4,.LC107@ha
	addi 3,31,4408
	la 4,.LC107@l(4)
	li 5,0
	li 6,0
	bl _ZN10idEventDefC1EPKcS1_c
	.loc 2 4866 0
	lis 4,.LC108@ha
	addi 3,31,4472
	mr 5,28
	la 4,.LC108@l(4)
	li 6,0
	bl _ZN10idEventDefC1EPKcS1_c
	.loc 2 4867 0
	la 30,.LC110@l(30)
	lis 4,.LC109@ha
	addi 3,31,4536
	mr 5,30
	la 4,.LC109@l(4)
	li 6,0
	bl _ZN10idEventDefC1EPKcS1_c
	.loc 2 4868 0
	lis 4,.LC111@ha
	addi 3,31,4600
	mr 5,30
	la 4,.LC111@l(4)
	li 6,0
	bl _ZN10idEventDefC1EPKcS1_c
	.loc 2 4869 0
	lis 4,.LC112@ha
	addi 3,31,4664
	mr 5,28
	la 4,.LC112@l(4)
	li 6,118
	bl _ZN10idEventDefC1EPKcS1_c
	.loc 2 4870 0
	lis 4,.LC113@ha
	addi 3,31,4728
	mr 5,28
	la 4,.LC113@l(4)
	li 6,118
	bl _ZN10idEventDefC1EPKcS1_c
	.loc 2 4872 0
	lis 11,_ZNK16idAnimatedEntity4SaveEP10idSaveGame@ha
	la 0,_ZNK16idAnimatedEntity4SaveEP10idSaveGame@l(11)
	lis 4,.LC114@ha
	lis 11,_ZN16idAnimatedEntity7RestoreEP13idRestoreGame@ha
	lis 7,_ZN16idAnimatedEntity14CreateInstanceEv@ha
	stw 0,16(1)
	addi 3,31,80
	la 0,_ZN16idAnimatedEntity7RestoreEP13idRestoreGame@l(11)
	la 4,.LC114@l(4)
	mr 5,25
	addi 6,26,768
	la 7,_ZN16idAnimatedEntity14CreateInstanceEv@l(7)
	addi 8,1,8
	addi 9,1,16
	addi 10,1,24
	stw 27,8(1)
	stw 29,12(1)
	stw 29,20(1)
	stw 0,24(1)
	stw 29,28(1)
	bl _ZN10idTypeInfoC1EPKcS1_P11idEventFuncI7idClassEPFPS3_vEMS3_FvvEMS3_KFvP10idSaveGameEMS3_FvP13idRestoreGameE
	b .L195
	.cfi_endproc
.LFE3606:
	.size	_Z41__static_initialization_and_destruction_0ii.constprop.97, .-_Z41__static_initialization_and_destruction_0ii.constprop.97
	.section	.text._ZN14idFixedWindingD2Ev,"axG",@progbits,_ZN14idFixedWindingD5Ev,comdat
	.align 2
	.weak	_ZN14idFixedWindingD2Ev
	.type	_ZN14idFixedWindingD2Ev, @function
_ZN14idFixedWindingD2Ev:
.LFB1498:
	.loc 1 380 0
	.cfi_startproc
.LVL443:
.LBB4445:
	.loc 1 381 0
	li 0,0
.LBB4446:
.LBB4447:
.LBB4448:
	.loc 1 183 0
	lis 9,_ZTV9idWinding+8@ha
.LBE4448:
.LBE4447:
.LBE4446:
	.loc 1 381 0
	stw 0,8(3)
.LVL444:
.LBB4451:
.LBB4450:
.LBB4449:
	.loc 1 183 0
	la 0,_ZTV9idWinding+8@l(9)
	stw 0,0(3)
.LBE4449:
.LBE4450:
.LBE4451:
.LBE4445:
	.loc 1 382 0
	blr
	.cfi_endproc
.LFE1498:
	.size	_ZN14idFixedWindingD2Ev, .-_ZN14idFixedWindingD2Ev
	.section	.text._ZN9idWindingD0Ev,"axG",@progbits,_ZN9idWindingD5Ev,comdat
	.align 2
	.weak	_ZN9idWindingD0Ev
	.type	_ZN9idWindingD0Ev, @function
_ZN9idWindingD0Ev:
.LFB1463:
	.loc 1 183 0
	.cfi_startproc
.LVL445:
	mflr 0
	stwu 1,-16(1)
.LCFI143:
	.cfi_def_cfa_offset 16
	.cfi_register 65, 0
.LBB4455:
.LBB4456:
.LBB4457:
	lis 9,_ZTV9idWinding+8@ha
.LBE4457:
.LBE4456:
.LBE4455:
	stw 31,12(1)
	mr 31,3
	.cfi_offset 31, -4
.LVL446:
	stw 0,20(1)
.LBB4462:
.LBB4460:
.LBB4458:
	.loc 1 183 0
	la 0,_ZTV9idWinding+8@l(9)
	.cfi_offset 65, 4
	.loc 1 184 0
	lwz 3,8(3)
.LVL447:
	.loc 1 183 0
	stw 0,0(31)
	.loc 1 184 0
	cmpwi 7,3,0
	beq- 7,.L203
	bl _ZdaPv
.LVL448:
.L203:
	.loc 1 185 0
	li 0,0
.LBE4458:
.LBE4460:
.LBE4462:
	.loc 1 186 0
	mr 3,31
.LBB4463:
.LBB4461:
.LBB4459:
	.loc 1 185 0
	stw 0,8(31)
.LBE4459:
.LBE4461:
.LBE4463:
	.loc 1 186 0
	bl _ZdlPv
	lwz 0,20(1)
	lwz 31,12(1)
.LVL449:
	mtlr 0
	addi 1,1,16
.LCFI144:
	.cfi_def_cfa_offset 0
	.cfi_restore 31
	blr
	.cfi_endproc
.LFE1463:
	.size	_ZN9idWindingD0Ev, .-_ZN9idWindingD0Ev
	.section	.text._ZN14idFixedWindingD0Ev,"axG",@progbits,_ZN14idFixedWindingD5Ev,comdat
	.align 2
	.weak	_ZN14idFixedWindingD0Ev
	.type	_ZN14idFixedWindingD0Ev, @function
_ZN14idFixedWindingD0Ev:
.LFB1500:
	.loc 1 380 0
	.cfi_startproc
.LVL450:
	mflr 0
	stwu 1,-8(1)
.LCFI145:
	.cfi_def_cfa_offset 8
	.cfi_register 65, 0
.LBB4470:
.LBB4471:
.LBB4472:
.LBB4473:
.LBB4474:
.LBB4475:
	.loc 1 183 0
	lis 11,_ZTV9idWinding+8@ha
.LBE4475:
.LBE4474:
.LBE4473:
.LBE4472:
.LBE4471:
.LBE4470:
	.loc 1 380 0
	stw 0,12(1)
.LBB4481:
.LBB4480:
.LBB4479:
	.loc 1 381 0
	li 0,0
	.cfi_offset 65, 4
	stw 0,8(3)
.LVL451:
.LBB4478:
.LBB4477:
.LBB4476:
	.loc 1 183 0
	la 0,_ZTV9idWinding+8@l(11)
	stw 0,0(3)
.LBE4476:
.LBE4477:
.LBE4478:
.LBE4479:
.LBE4480:
.LBE4481:
	.loc 1 382 0
	bl _ZdlPv
.LVL452:
	lwz 0,12(1)
	addi 1,1,8
.LCFI146:
	.cfi_def_cfa_offset 0
	mtlr 0
	blr
	.cfi_endproc
.LFE1500:
	.size	_ZN14idFixedWindingD0Ev, .-_ZN14idFixedWindingD0Ev
	.section	".text"
	.align 2
	.globl _ZN8idEntity18Event_GetEntityKeyEPKc
	.type	_ZN8idEntity18Event_GetEntityKeyEPKc, @function
_ZN8idEntity18Event_GetEntityKeyEPKc:
.LFB3030:
	.loc 2 4362 0
	.cfi_startproc
.LVL453:
	stwu 1,-32(1)
.LCFI147:
	.cfi_def_cfa_offset 32
	mflr 0
	stw 27,12(1)
	mr 27,3
	.cfi_offset 27, -20
	.cfi_register 65, 0
.LVL454:
.LBB4487:
.LBB4488:
.LBB4489:
	.file 12 "d:/Data/Nintendo/DoomGX/src/game/../idlib/../idlib/Dict.h"
	.loc 12 221 0
	addi 3,3,100
.LVL455:
.LBE4489:
.LBE4488:
.LBE4487:
	.loc 2 4362 0
	stw 30,24(1)
	stw 0,36(1)
	mr 30,4
	.cfi_offset 65, 4
	.cfi_offset 30, -8
.LVL456:
	stw 28,16(1)
	stw 29,20(1)
	stw 31,28(1)
.LBB4496:
.LBB4494:
.LBB4492:
	.loc 12 221 0
	.cfi_offset 31, -4
	.cfi_offset 29, -12
	.cfi_offset 28, -16
	bl _ZNK6idDict7FindKeyEPKc
.LVL457:
	.loc 12 222 0
	mr. 9,3
	beq- 0,.L211
.LVL458:
.LBB4490:
	.loc 2 5400 0
	lwz 9,4(9)
.LBE4490:
.LBE4492:
.LBE4494:
	.loc 2 4371 0
	lis 28,gameLocal@ha
	la 28,gameLocal@l(28)
.LBB4495:
.LBB4493:
.LBB4491:
	.loc 2 5400 0
	lwz 29,4(9)
.LVL459:
.LBE4491:
.LBE4493:
.LBE4495:
	.loc 2 4371 0
	mr 3,28
.LVL460:
	mr 4,29
	bl _ZNK11idGameLocal10FindEntityEPKc
.LVL461:
	.loc 2 4372 0
	mr. 31,3
	beq- 0,.L214
.LVL462:
.L212:
	.loc 2 4376 0
	mr 3,31
	bl _ZN8idThread12ReturnEntityEP8idEntity
.LBE4496:
	.loc 2 4377 0
	lwz 0,36(1)
	lwz 27,12(1)
.LVL463:
	mtlr 0
	lwz 28,16(1)
	lwz 29,20(1)
.LVL464:
	lwz 30,24(1)
.LVL465:
	lwz 31,28(1)
.LVL466:
	addi 1,1,32
	.cfi_remember_state
.LCFI148:
	.cfi_def_cfa_offset 0
	.cfi_restore 31
	.cfi_restore 30
	.cfi_restore 29
	.cfi_restore 28
	.cfi_restore 27
	blr
.LVL467:
.L211:
.LCFI149:
	.cfi_restore_state
.LBB4497:
	.loc 2 4367 0
	bl _ZN8idThread12ReturnEntityEP8idEntity
.LVL468:
.LBE4497:
	.loc 2 4377 0
	lwz 0,36(1)
	lwz 27,12(1)
.LVL469:
	mtlr 0
	lwz 28,16(1)
	lwz 29,20(1)
	lwz 30,24(1)
.LVL470:
	lwz 31,28(1)
	addi 1,1,32
	.cfi_remember_state
	.cfi_restore 27
	.cfi_restore 28
	.cfi_restore 29
	.cfi_restore 30
	.cfi_restore 31
.LCFI150:
	.cfi_def_cfa_offset 0
	blr
.LVL471:
.L214:
.LCFI151:
	.cfi_restore_state
.LBB4498:
	.loc 2 4373 0
	lwz 7,72(27)
	lis 4,.LC115@ha
	mr 3,28
.LVL472:
	la 4,.LC115@l(4)
	mr 5,29
	mr 6,30
	crxor 6,6,6
	bl _ZNK11idGameLocal7WarningEPKcz
	b .L212
.LBE4498:
	.cfi_endproc
.LFE3030:
	.size	_ZN8idEntity18Event_GetEntityKeyEPKc, .-_ZN8idEntity18Event_GetEntityKeyEPKc
	.align 2
	.globl _ZN8idEntity12Event_GetKeyEPKc
	.type	_ZN8idEntity12Event_GetKeyEPKc, @function
_ZN8idEntity12Event_GetKeyEPKc:
.LFB3026:
	.loc 2 4312 0
	.cfi_startproc
.LVL473:
	mflr 0
	stwu 1,-8(1)
.LCFI152:
	.cfi_def_cfa_offset 8
	.cfi_register 65, 0
.LBB4504:
.LBB4505:
.LBB4506:
	.loc 12 221 0
	addi 3,3,100
.LVL474:
.LBE4506:
.LBE4505:
.LBE4504:
	.loc 2 4312 0
	stw 0,12(1)
.LBB4512:
.LBB4510:
.LBB4508:
	.loc 12 221 0
	.cfi_offset 65, 4
	bl _ZNK6idDict7FindKeyEPKc
.LVL475:
	.loc 12 222 0
	cmpwi 0,3,0
	beq- 0,.L217
.LVL476:
.LBB4507:
	.loc 2 5400 0
	lwz 9,4(3)
	lwz 3,4(9)
.LVL477:
.LBE4507:
.LBE4508:
.LBE4510:
	.loc 2 4316 0
	bl _ZN8idThread12ReturnStringEPKc
.LVL478:
.LBE4512:
	.loc 2 4317 0
	lwz 0,12(1)
	addi 1,1,8
	.cfi_remember_state
.LCFI153:
	.cfi_def_cfa_offset 0
	mtlr 0
	blr
.LVL479:
.L217:
.LCFI154:
	.cfi_restore_state
.LBB4513:
.LBB4511:
.LBB4509:
	.loc 12 226 0
	lis 3,.LC18@ha
.LVL480:
	la 3,.LC18@l(3)
.LVL481:
.LBE4509:
.LBE4511:
	.loc 2 4316 0
	bl _ZN8idThread12ReturnStringEPKc
.LVL482:
.LBE4513:
	.loc 2 4317 0
	lwz 0,12(1)
	addi 1,1,8
.LCFI155:
	.cfi_def_cfa_offset 0
	mtlr 0
	blr
	.cfi_endproc
.LFE3026:
	.size	_ZN8idEntity12Event_GetKeyEPKc, .-_ZN8idEntity12Event_GetKeyEPKc
	.section	.text._ZN13idCurve_NURBSI6idVec3E11RemoveIndexEi,"axG",@progbits,_ZN13idCurve_NURBSI6idVec3E11RemoveIndexEi,comdat
	.align 2
	.weak	_ZN13idCurve_NURBSI6idVec3E11RemoveIndexEi
	.type	_ZN13idCurve_NURBSI6idVec3E11RemoveIndexEi, @function
_ZN13idCurve_NURBSI6idVec3E11RemoveIndexEi:
.LFB3447:
	.loc 5 2337 0
	.cfi_startproc
.LVL483:
.LBB4532:
.LBB4533:
	.loc 6 864 0
	cmpwi 0,4,0
.LVL484:
	bltlr- 0
	lwz 9,20(3)
	cmpw 7,4,9
	bge- 7,.L220
.LVL485:
.LBE4533:
.LBB4534:
.LBB4535:
	.loc 6 868 0
	addi 9,9,-1
	.loc 6 869 0
	cmpw 7,4,9
	.loc 6 868 0
	stw 9,20(3)
.LVL486:
	.loc 6 869 0
	bge- 7,.L220
	mulli 9,4,12
.LBE4535:
.LBE4534:
.LBE4532:
	.loc 5 2337 0
	mr 8,4
.LVL487:
.L221:
.LBB4542:
.LBB4541:
.LBB4540:
	.loc 6 870 0
	lwz 10,32(3)
	.loc 6 869 0
	addi 8,8,1
.LVL488:
	.loc 6 870 0
	add 11,10,9
	.loc 5 2337 0
	addi 9,9,12
.LBB4536:
.LBB4537:
	.loc 4 424 0
	lwzx 0,10,9
.LBE4537:
.LBE4536:
	.loc 6 870 0
	add 10,10,9
.LVL489:
.LBB4539:
.LBB4538:
	.loc 4 424 0
	stw 0,0(11)
	.loc 4 425 0
	lwz 0,4(10)
	stw 0,4(11)
	.loc 4 426 0
	lwz 0,8(10)
	stw 0,8(11)
.LBE4538:
.LBE4539:
	.loc 6 869 0
	lwz 0,20(3)
	cmpw 7,8,0
	blt+ 7,.L221
.LVL490:
.L220:
.LBE4540:
.LBE4541:
.LBE4542:
.LBB4543:
.LBB4544:
	.loc 6 864 0
	lwz 9,4(3)
.LBE4544:
.LBE4543:
	.loc 5 2337 0
	addi 6,3,4
	.loc 2 5400 0
	addi 7,3,16
.LVL491:
.LBB4550:
.LBB4545:
	.loc 6 864 0
	cmpw 7,4,9
	bge- 7,.L222
.LVL492:
.LBE4545:
.LBB4546:
.LBB4547:
	.loc 6 868 0
	addi 9,9,-1
	.loc 6 869 0
	cmpw 7,4,9
	.loc 6 868 0
	stw 9,4(3)
.LVL493:
	.loc 6 869 0
	bge- 7,.L222
	slwi 9,4,2
.LBE4547:
.LBE4546:
.LBE4550:
	.loc 5 2337 0
	mr 11,4
.LVL494:
.L223:
.LBB4551:
.LBB4549:
.LBB4548:
	.loc 6 870 0
	lwz 10,0(7)
	.loc 6 869 0
	addi 11,11,1
.LVL495:
	.loc 6 870 0
	add 8,10,9
	.loc 5 2337 0
	addi 9,9,4
	.loc 6 870 0
	lwzx 0,10,9
	stw 0,0(8)
	.loc 6 869 0
	lwz 0,0(6)
	cmpw 7,11,0
	blt+ 7,.L223
.LVL496:
.L222:
.LBE4548:
.LBE4549:
.LBE4551:
.LBB4552:
.LBB4553:
	.loc 6 864 0
	lwz 9,56(3)
.LBE4553:
.LBE4552:
	.loc 5 2337 0
	addi 7,3,56
	.loc 2 5400 0
	addi 8,3,68
.LVL497:
.LBB4557:
.LBB4554:
	.loc 6 864 0
	cmpw 7,4,9
	bgelr- 7
.LVL498:
.LBE4554:
.LBB4555:
.LBB4556:
	.loc 6 868 0
	addi 9,9,-1
	.loc 6 869 0
	cmpw 7,4,9
	.loc 6 868 0
	stw 9,56(3)
.LVL499:
	.loc 6 869 0
	bgelr- 7
	slwi 9,4,2
.LVL500:
.L224:
	.loc 6 870 0
	lwz 11,0(8)
	.loc 6 869 0
	addi 4,4,1
.LVL501:
	.loc 6 870 0
	add 10,11,9
	.loc 5 2337 0
	addi 9,9,4
	.loc 6 870 0
	lwzx 0,11,9
	stw 0,0(10)
	.loc 6 869 0
	lwz 0,0(7)
	cmpw 7,4,0
	blt+ 7,.L224
	blr
.LBE4556:
.LBE4555:
.LBE4557:
	.cfi_endproc
.LFE3447:
	.size	_ZN13idCurve_NURBSI6idVec3E11RemoveIndexEi, .-_ZN13idCurve_NURBSI6idVec3E11RemoveIndexEi
	.section	.text._ZN7idCurveI6idVec3E11RemoveIndexEi,"axG",@progbits,_ZN7idCurveI6idVec3E11RemoveIndexEi,comdat
	.align 2
	.weak	_ZN7idCurveI6idVec3E11RemoveIndexEi
	.type	_ZN7idCurveI6idVec3E11RemoveIndexEi, @function
_ZN7idCurveI6idVec3E11RemoveIndexEi:
.LFB3459:
	.loc 5 47 0
	.cfi_startproc
.LVL502:
.LBB4570:
.LBB4571:
	.loc 6 864 0
	cmpwi 0,4,0
.LVL503:
	blt- 0,.L232
	lwz 9,20(3)
	cmpw 7,4,9
	bge- 7,.L233
.LVL504:
.LBE4571:
.LBB4572:
.LBB4573:
	.loc 6 868 0
	addi 9,9,-1
	.loc 6 869 0
	cmpw 7,4,9
	.loc 6 868 0
	stw 9,20(3)
.LVL505:
	.loc 6 869 0
	bge- 7,.L233
	mulli 9,4,12
.LBE4573:
.LBE4572:
.LBE4570:
	.loc 5 47 0
	mr 8,4
.LVL506:
.L234:
.LBB4580:
.LBB4579:
.LBB4578:
	.loc 6 870 0
	lwz 10,32(3)
	.loc 6 869 0
	addi 8,8,1
.LVL507:
	.loc 6 870 0
	add 11,10,9
	.loc 5 47 0
	addi 9,9,12
.LBB4574:
.LBB4575:
	.loc 4 424 0
	lwzx 0,10,9
.LBE4575:
.LBE4574:
	.loc 6 870 0
	add 10,10,9
.LVL508:
.LBB4577:
.LBB4576:
	.loc 4 424 0
	stw 0,0(11)
	.loc 4 425 0
	lwz 0,4(10)
	stw 0,4(11)
	.loc 4 426 0
	lwz 0,8(10)
	stw 0,8(11)
.LBE4576:
.LBE4577:
	.loc 6 869 0
	lwz 0,20(3)
	cmpw 7,8,0
	blt+ 7,.L234
.LVL509:
.L233:
.LBE4578:
.LBE4579:
.LBE4580:
.LBB4581:
.LBB4582:
	.loc 6 864 0
	lwz 9,4(3)
.LBE4582:
.LBE4581:
	.loc 5 47 0
	addi 7,3,4
	.loc 2 5400 0
	addi 8,3,16
.LVL510:
.LBB4586:
.LBB4583:
	.loc 6 864 0
	cmpw 7,4,9
	bge- 7,.L232
.LVL511:
.LBE4583:
.LBB4584:
.LBB4585:
	.loc 6 868 0
	addi 9,9,-1
	.loc 6 869 0
	cmpw 7,4,9
	.loc 6 868 0
	stw 9,4(3)
.LVL512:
	.loc 6 869 0
	bge- 7,.L232
	slwi 9,4,2
.LVL513:
.L235:
	.loc 6 870 0
	lwz 11,0(8)
	.loc 6 869 0
	addi 4,4,1
.LVL514:
	.loc 6 870 0
	add 10,11,9
	.loc 5 47 0
	addi 9,9,4
	.loc 6 870 0
	lwzx 0,11,9
	stw 0,0(10)
	.loc 6 869 0
	lwz 0,0(7)
	cmpw 7,4,0
	blt+ 7,.L235
.LVL515:
.L232:
.LBE4585:
.LBE4584:
.LBE4586:
	.loc 5 47 0
	li 0,1
	stb 0,40(3)
	blr
	.cfi_endproc
.LFE3459:
	.size	_ZN7idCurveI6idVec3E11RemoveIndexEi, .-_ZN7idCurveI6idVec3E11RemoveIndexEi
	.section	".text"
	.align 2
	.globl _ZN8idEntity6DamageEPS_S0_RK6idVec3PKcfi
	.type	_ZN8idEntity6DamageEPS_S0_RK6idVec3PKcfi, @function
_ZN8idEntity6DamageEPS_S0_RK6idVec3PKcfi:
.LFB2955:
	.loc 2 2976 0
	.cfi_startproc
.LVL516:
	mflr 0
	stwu 1,-56(1)
.LCFI156:
	.cfi_def_cfa_offset 56
	.cfi_register 65, 0
	stw 26,32(1)
	mr 26,7
	.cfi_offset 26, -24
	stw 27,36(1)
	mr 27,8
	.cfi_offset 27, -20
	stw 28,40(1)
	mr 28,6
	.cfi_offset 28, -16
	stw 29,44(1)
	mr 29,4
	.cfi_offset 29, -12
	stw 30,48(1)
	mr 30,5
	.cfi_offset 30, -8
	stw 31,52(1)
	mr 31,3
	.cfi_offset 31, -4
	stw 0,60(1)
	stw 24,24(1)
	stw 25,28(1)
.LBB4597:
	.loc 2 2977 0
	lwz 0,192(3)
	.cfi_offset 25, -28
	.cfi_offset 24, -32
	.cfi_offset 65, 4
	andis. 9,0,8192
	beq- 0,.L240
.LVL517:
.LBE4597:
.LBB4598:
.LBB4599:
.LBB4600:
	.loc 2 2981 0
	cmpwi 7,4,0
	.loc 2 2982 0
	lis 25,gameLocal@ha
	la 25,gameLocal@l(25)
	.loc 2 2981 0
	beq- 7,.L250
.LVL518:
.L242:
	.loc 2 2985 0
	cmpwi 7,30,0
	beq- 7,.L251
.LVL519:
.L243:
	.loc 2 2989 0
	mr 3,25
.LVL520:
	mr 4,26
.LVL521:
	li 5,1
.LVL522:
	bl _ZNK11idGameLocal17FindEntityDefDictEPKcb
.LVL523:
	.loc 2 2990 0
	mr. 24,3
	beq- 0,.L252
.LVL524:
.L244:
.LBB4601:
.LBB4602:
.LBB4603:
.LBB4604:
	.loc 12 241 0
	lis 4,.LC117@ha
	mr 3,24
	la 4,.LC117@l(4)
	bl _ZNK6idDict7FindKeyEPKc
.LVL525:
	.loc 12 242 0
	cmpwi 0,3,0
	beq- 0,.L248
.LVL526:
.LBB4605:
	.loc 2 5400 0
	lwz 9,4(3)
	lwz 3,4(9)
.LVL527:
.L245:
.LBE4605:
.LBE4604:
.LBE4603:
	.loc 12 253 0
	bl atoi
.LBE4602:
.LBE4601:
	.loc 2 2994 0
	mr 6,1
	stwu 3,8(6)
.LVL528:
	.loc 2 2997 0
	mr 4,31
	mr 3,30
	mr 5,29
	lwz 9,0(30)
	lwz 0,172(9)
	mtctr 0
	bctrl
	.loc 2 2998 0
	lwz 6,8(1)
	cmpwi 7,6,0
	beq- 7,.L240
	.loc 2 3000 0
	lwz 0,188(31)
	subf 0,6,0
	.loc 2 3001 0
	cmpwi 7,0,0
	.loc 2 3000 0
	stw 0,188(31)
	.loc 2 3001 0
	ble- 7,.L253
	.loc 2 3008 0
	lwz 9,0(31)
	mr 3,31
	mr 4,29
	mr 5,30
	lwz 0,176(9)
	mr 7,28
	mr 8,27
	mtctr 0
	bctrl
.LVL529:
.L240:
.LBE4600:
.LBE4599:
.LBE4598:
	.loc 2 3011 0
	lwz 0,60(1)
	lwz 24,24(1)
	mtlr 0
	lwz 25,28(1)
	lwz 26,32(1)
.LVL530:
	lwz 27,36(1)
.LVL531:
	lwz 28,40(1)
.LVL532:
	lwz 29,44(1)
	lwz 30,48(1)
	lwz 31,52(1)
.LVL533:
	addi 1,1,56
	.cfi_remember_state
.LCFI157:
	.cfi_def_cfa_offset 0
	.cfi_restore 31
	.cfi_restore 30
	.cfi_restore 29
	.cfi_restore 28
	.cfi_restore 27
	.cfi_restore 26
	.cfi_restore 25
	.cfi_restore 24
	blr
.LVL534:
.L253:
.LCFI158:
	.cfi_restore_state
.LBB4614:
.LBB4612:
.LBB4610:
	.loc 2 3002 0
	cmpwi 7,0,-999
	bge- 7,.L247
	.loc 2 3003 0
	li 0,-999
	stw 0,188(31)
.L247:
	.loc 2 3006 0
	lwz 9,0(31)
	mr 3,31
	mr 4,29
	mr 5,30
	lwz 0,180(9)
	mr 7,28
	mr 8,27
	mtctr 0
	bctrl
.LBE4610:
.LBE4612:
.LBE4614:
	.loc 2 3011 0
	lwz 0,60(1)
	lwz 24,24(1)
.LVL535:
	mtlr 0
	lwz 25,28(1)
	lwz 26,32(1)
.LVL536:
	lwz 27,36(1)
.LVL537:
	lwz 28,40(1)
.LVL538:
	lwz 29,44(1)
.LVL539:
	lwz 30,48(1)
.LVL540:
	lwz 31,52(1)
.LVL541:
	addi 1,1,56
	.cfi_remember_state
	.cfi_restore 24
	.cfi_restore 25
	.cfi_restore 26
	.cfi_restore 27
	.cfi_restore 28
	.cfi_restore 29
	.cfi_restore 30
	.cfi_restore 31
.LCFI159:
	.cfi_def_cfa_offset 0
	blr
.LVL542:
.L250:
.LCFI160:
	.cfi_restore_state
.LBB4615:
.LBB4613:
.LBB4611:
	.loc 2 2982 0
	addis 9,25,0x1
	lwz 29,-32200(9)
.LVL543:
	b .L242
.LVL544:
.L251:
	.loc 2 2986 0
	addis 9,25,0x1
	lwz 30,-32200(9)
.LVL545:
	b .L243
.LVL546:
.L248:
.LBB4609:
.LBB4608:
.LBB4607:
.LBB4606:
	.loc 12 245 0
	lis 3,.LC17@ha
.LVL547:
	la 3,.LC17@l(3)
	b .L245
.LVL548:
.L252:
.LBE4606:
.LBE4607:
.LBE4608:
.LBE4609:
	.loc 2 2991 0
	lis 4,.LC116@ha
	mr 3,25
	la 4,.LC116@l(4)
	mr 5,26
	crxor 6,6,6
	bl _ZNK11idGameLocal5ErrorEPKcz
	b .L244
.LBE4611:
.LBE4613:
.LBE4615:
	.cfi_endproc
.LFE2955:
	.size	_ZN8idEntity6DamageEPS_S0_RK6idVec3PKcfi, .-_ZN8idEntity6DamageEPS_S0_RK6idVec3PKcfi
	.align 2
	.globl _ZN8idEntity21Event_RestorePositionEv
	.type	_ZN8idEntity21Event_RestorePositionEv, @function
_ZN8idEntity21Event_RestorePositionEv:
.LFB3031:
	.loc 2 4384 0
	.cfi_startproc
.LVL549:
	stwu 1,-120(1)
.LCFI161:
	.cfi_def_cfa_offset 120
	mflr 0
.LBB4643:
	.loc 2 4390 0
	lis 4,.LC118@ha
	lis 5,.LC16@ha
.LBE4643:
	.loc 2 4384 0
	stw 31,116(1)
.LBB4687:
	.loc 2 4390 0
	addi 31,3,100
	.cfi_offset 31, -4
	.cfi_register 65, 0
.LBE4687:
	.loc 2 4384 0
	stw 30,112(1)
.LBB4688:
	.loc 2 4390 0
	la 4,.LC118@l(4)
	la 5,.LC16@l(5)
	addi 6,1,32
.LBE4688:
	.loc 2 4384 0
	mr 30,3
	.cfi_offset 30, -8
.LBB4689:
	.loc 2 4390 0
	mr 3,31
.LVL550:
.LBE4689:
	.loc 2 4384 0
	stw 0,124(1)
	stw 25,92(1)
	stw 26,96(1)
	stw 27,100(1)
	stw 28,104(1)
	stw 29,108(1)
.LBB4690:
	.loc 2 4390 0
	.cfi_offset 29, -12
	.cfi_offset 28, -16
	.cfi_offset 27, -20
	.cfi_offset 26, -24
	.cfi_offset 25, -28
	.cfi_offset 65, 4
	bl _ZNK6idDict9GetVectorEPKcS1_R6idVec3
	.loc 2 4393 0
	lis 4,.LC119@ha
	lis 5,.LC120@ha
	mr 3,31
	la 4,.LC119@l(4)
	la 5,.LC120@l(5)
	addi 6,1,44
	bl _ZNK6idDict9GetMatrixEPKcS1_R6idMat3
	cmpwi 7,3,0
	beq- 7,.L255
	.loc 2 4394 0
	addi 3,1,8
	addi 4,1,44
	bl _ZNK6idMat38ToAnglesEv
.LVL551:
.LBB4644:
.LBB4645:
	.file 13 "d:/Data/Nintendo/DoomGX/src/game/../idlib/../idlib/math/Angles.h"
	.loc 13 146 0
	lwz 0,8(1)
	stw 0,20(1)
	.loc 13 147 0
	lwz 0,12(1)
	stw 0,24(1)
	.loc 13 148 0
	lwz 0,16(1)
	stw 0,28(1)
.LVL552:
.L256:
.LBE4645:
.LBE4644:
	.loc 2 4401 0
	lwz 9,0(30)
	mr 3,30
	addi 4,1,32
	addi 5,1,20
	lwz 0,200(9)
	li 6,0
	mtctr 0
	bctrl
	.loc 2 4403 0
	lwz 31,604(30)
.LVL553:
	cmpwi 7,31,0
	beq- 7,.L254
	.loc 2 4412 0
	lis 27,gameLocal@ha
	lis 26,.LC123@ha
	.loc 2 4409 0
	lis 25,.LC122@ha
.LBB4646:
	.loc 2 5400 0
	lis 29,_ZN20idPhysics_Parametric4TypeE@ha
.LBE4646:
.LBB4654:
	lis 28,_ZN12idPhysics_AF4TypeE@ha
.LBE4654:
	.loc 2 4412 0
	la 27,gameLocal@l(27)
	la 26,.LC123@l(26)
	.loc 2 4409 0
	la 25,.LC122@l(25)
.LVL554:
.L264:
	.loc 2 4404 0
	lwz 0,588(31)
	cmpw 7,0,30
	beq- 7,.L266
.L259:
	.loc 2 4403 0
	lwz 31,604(31)
.LVL555:
	cmpwi 7,31,0
	bne+ 7,.L264
.L254:
.LBE4690:
	.loc 2 4415 0
	lwz 0,124(1)
	lwz 25,92(1)
	mtlr 0
	lwz 26,96(1)
	lwz 27,100(1)
	lwz 28,104(1)
	lwz 29,108(1)
	lwz 30,112(1)
.LVL556:
	lwz 31,116(1)
.LVL557:
	addi 1,1,120
	.cfi_remember_state
.LCFI162:
	.cfi_def_cfa_offset 0
	.cfi_restore 31
	.cfi_restore 30
	.cfi_restore 29
	.cfi_restore 28
	.cfi_restore 27
	.cfi_restore 26
	.cfi_restore 25
	blr
.LVL558:
.L266:
.LCFI163:
	.cfi_restore_state
.LBB4691:
.LBB4662:
.LBB4663:
	.loc 2 2522 0
	lwz 3,584(31)
.LVL559:
.LBE4663:
.LBE4662:
.LBB4664:
.LBB4647:
	.file 14 "d:/Data/Nintendo/DoomGX/src/game/gamesys/Class.h"
	.loc 14 340 0
	lwz 9,0(3)
	lwz 0,0(9)
	mtctr 0
	bctrl
.LVL560:
.LBE4647:
	.loc 2 5400 0
	la 9,_ZN20idPhysics_Parametric4TypeE@l(29)
	lwz 0,56(3)
.LBB4652:
.LBB4648:
.LBB4649:
	.loc 14 311 0
	lwz 11,56(9)
.LBE4649:
.LBE4648:
.LBE4652:
.LBE4664:
	.loc 2 4408 0
	lwz 3,584(31)
.LVL561:
.LBB4665:
.LBB4653:
.LBB4651:
.LBB4650:
	.loc 14 311 0
	cmpw 7,0,11
	blt- 7,.L260
	lwz 9,60(9)
	cmpw 7,0,9
	bgt- 7,.L260
.LVL562:
.LBE4650:
.LBE4651:
.LBE4653:
.LBE4665:
	.loc 2 4408 0
	bl _ZNK20idPhysics_Parametric8IsPusherEv
	cmpwi 7,3,0
	beq+ 7,.L259
.LVL563:
	.loc 2 4409 0
	lwz 5,72(30)
	mr 3,27
	lwz 6,72(31)
	mr 4,25
	crxor 6,6,6
	bl _ZNK11idGameLocal7WarningEPKcz
	b .L259
.LVL564:
.L260:
.LBB4666:
.LBB4655:
	.loc 14 340 0
	lwz 9,0(3)
	lwz 0,0(9)
	mtctr 0
	bctrl
.LVL565:
.LBE4655:
	.loc 2 5400 0
	la 9,_ZN12idPhysics_AF4TypeE@l(28)
	lwz 0,56(3)
.LBB4660:
.LBB4656:
.LBB4657:
	.loc 14 311 0
	lwz 11,56(9)
	cmpw 7,0,11
	blt- 7,.L259
	lwz 9,60(9)
.LBE4657:
.LBE4656:
.LBE4660:
.LBE4666:
	.loc 2 4412 0
	mr 3,27
.LVL566:
	mr 4,26
.LBB4667:
.LBB4661:
.LBB4659:
.LBB4658:
	.loc 14 311 0
	cmpw 7,0,9
	bgt- 7,.L259
.LVL567:
.LBE4658:
.LBE4659:
.LBE4661:
.LBE4667:
	.loc 2 4412 0
	lwz 6,72(31)
	lwz 5,72(30)
	crxor 6,6,6
	bl _ZNK11idGameLocal7WarningEPKcz
	b .L259
.LVL568:
.L255:
.LBB4668:
.LBB4669:
.LBB4670:
.LBB4671:
	.loc 12 241 0
	lis 4,.LC121@ha
.LBE4671:
.LBE4670:
.LBE4669:
.LBE4668:
	.loc 2 4396 0
	li 0,0
.LBB4683:
.LBB4679:
.LBB4676:
.LBB4673:
	.loc 12 241 0
	mr 3,31
	la 4,.LC121@l(4)
.LBE4673:
.LBE4676:
.LBE4679:
.LBE4683:
	.loc 2 4396 0
	stw 0,20(1)
.LVL569:
.LBB4684:
.LBB4680:
.LBB4677:
.LBB4674:
	.loc 12 241 0
	bl _ZNK6idDict7FindKeyEPKc
.LVL570:
	.loc 12 242 0
	cmpwi 0,3,0
	beq- 0,.L263
.LVL571:
.LBB4672:
	.loc 2 5400 0
	lwz 9,4(3)
	lwz 3,4(9)
.LVL572:
.L257:
.LBE4672:
.LBE4674:
.LBE4677:
	.loc 12 249 0
	bl atof
.LBE4680:
.LBE4684:
	.loc 2 4398 0
	li 0,0
.LBB4685:
.LBB4681:
	.loc 12 249 0
	frsp 1,1
.LBE4681:
.LBE4685:
	.loc 2 4398 0
	stw 0,28(1)
.LBB4686:
.LBB4682:
	.loc 12 249 0
	stfs 1,24(1)
.LVL573:
	b .L256
.LVL574:
.L263:
.LBB4678:
.LBB4675:
	.loc 12 245 0
	lis 3,.LC17@ha
.LVL575:
	la 3,.LC17@l(3)
	b .L257
.LBE4675:
.LBE4678:
.LBE4682:
.LBE4686:
.LBE4691:
	.cfi_endproc
.LFE3031:
	.size	_ZN8idEntity21Event_RestorePositionEv, .-_ZN8idEntity21Event_RestorePositionEv
	.align 2
	.globl _ZN8idEntity15AddDamageEffectERK7trace_sRK6idVec3PKc
	.type	_ZN8idEntity15AddDamageEffectERK7trace_sRK6idVec3PKc, @function
_ZN8idEntity15AddDamageEffectERK7trace_sRK6idVec3PKc:
.LFB2956:
	.loc 2 3018 0
	.cfi_startproc
.LVL576:
	stwu 1,-64(1)
.LCFI164:
	.cfi_def_cfa_offset 64
	mflr 0
	stw 31,60(1)
	mr 31,3
	.cfi_offset 31, -4
	.cfi_register 65, 0
.LBB4715:
	.loc 2 3021 0
	lis 3,gameLocal@ha
.LVL577:
.LBE4715:
	.loc 2 3018 0
	stw 29,52(1)
	stw 30,56(1)
	mr 29,5
	.cfi_offset 30, -8
	.cfi_offset 29, -12
	mr 30,4
.LBB4758:
	.loc 2 3021 0
	la 3,gameLocal@l(3)
	mr 4,6
.LVL578:
	li 5,0
.LVL579:
	li 6,1
.LVL580:
.LBE4758:
	.loc 2 3018 0
	stw 28,48(1)
	stw 0,68(1)
	stw 25,36(1)
	stw 26,40(1)
	stw 27,44(1)
.LBB4759:
	.loc 2 3021 0
	.cfi_offset 27, -20
	.cfi_offset 26, -24
	.cfi_offset 25, -28
	.cfi_offset 65, 4
	.cfi_offset 28, -16
	bl _ZNK11idGameLocal13FindEntityDefEPKcbb
.LVL581:
	.loc 2 3022 0
	mr. 28,3
	beq- 0,.L267
.LBB4716:
.LBB4717:
	.loc 2 5400 0
	lwz 9,88(30)
.LBE4717:
.LBE4716:
	.loc 2 3029 0
	lis 3,.LC124@ha
.LVL582:
	la 3,.LC124@l(3)
	.loc 2 3030 0
	addi 25,31,100
.LBB4719:
.LBB4718:
	.file 15 "d:/Data/Nintendo/DoomGX/src/game/../idlib/../renderer/Material.h"
	.loc 15 503 0
	lwz 0,100(9)
.LBE4718:
.LBE4719:
	.loc 2 3026 0
	lis 9,_ZN11idGameLocal15sufaceTypeNamesE@ha
	la 9,_ZN11idGameLocal15sufaceTypeNamesE@l(9)
	rlwinm 0,0,2,26,29
	lwzx 27,9,0
.LVL583:
	.loc 2 3029 0
	mr 4,27
	crxor 6,6,6
	bl _Z2vaPKcz
.LVL584:
	mr 26,3
.LVL585:
.LBB4720:
.LBB4721:
	.loc 12 241 0
	mr 3,25
.LVL586:
	mr 4,26
	bl _ZNK6idDict7FindKeyEPKc
.LVL587:
	.loc 12 242 0
	cmpwi 0,3,0
	beq- 0,.L272
.LVL588:
.LBB4722:
	.loc 2 5400 0
	lwz 9,4(3)
	lwz 9,4(9)
.LVL589:
.L269:
.LBE4722:
.LBE4721:
.LBE4720:
	.loc 2 3031 0
	lbz 0,0(9)
	cmpwi 7,0,0
	beq- 7,.L273
.LVL590:
.L270:
.LBB4724:
.LBB4725:
.LBB4726:
	.loc 2 3038 0
	lis 9,g_decals+44@ha
	.file 16 "d:/Data/Nintendo/DoomGX/src/game/../idlib/../framework/CVarSystem.h"
	.loc 16 142 0
	lwz 9,g_decals+44@l(9)
.LBE4726:
.LBE4725:
	.loc 2 3038 0
	lwz 0,36(9)
	cmpwi 7,0,0
	bne- 7,.L274
.LVL591:
.L267:
.LBE4724:
.LBE4759:
	.loc 2 3051 0
	lwz 0,68(1)
	lwz 25,36(1)
	mtlr 0
	lwz 26,40(1)
	lwz 27,44(1)
	lwz 28,48(1)
.LVL592:
	lwz 29,52(1)
.LVL593:
	lwz 30,56(1)
.LVL594:
	lwz 31,60(1)
.LVL595:
	addi 1,1,64
	.cfi_remember_state
.LCFI165:
	.cfi_def_cfa_offset 0
	.cfi_restore 31
	.cfi_restore 30
	.cfi_restore 29
	.cfi_restore 28
	.cfi_restore 27
	.cfi_restore 26
	.cfi_restore 25
	blr
.LVL596:
.L274:
.LCFI166:
	.cfi_restore_state
.LBB4760:
.LBB4753:
.LBB4727:
	.loc 2 3040 0
	lis 3,.LC125@ha
	mr 4,27
	la 3,.LC125@l(3)
	.loc 2 3041 0
	lis 27,gameLocal+33472@ha
.LVL597:
	.loc 2 3040 0
	crxor 6,6,6
	bl _Z2vaPKcz
.LVL598:
	.loc 2 3041 0
	la 27,gameLocal+33472@l(27)
	.loc 2 3040 0
	mr 26,3
.LVL599:
	.loc 2 3041 0
	mr 5,27
	mr 3,25
.LVL600:
	mr 4,26
	bl _ZNK6idDict12RandomPrefixEPKcR8idRandom
	.loc 2 3042 0
	lbz 0,0(3)
	.loc 2 3041 0
	mr 6,3
.LVL601:
	.loc 2 3042 0
	cmpwi 7,0,0
	beq- 7,.L275
.L271:
.LBB4728:
.LBB4729:
	.loc 2 3046 0
	lwz 9,4(29)
	.loc 2 3048 0
	mr 3,31
.LVL602:
	.loc 2 3046 0
	lwz 0,0(29)
	.loc 2 3048 0
	addi 4,30,56
	.loc 2 3046 0
	stw 9,12(1)
	.loc 2 3048 0
	addi 5,1,8
	.loc 2 3046 0
	stw 0,8(1)
.LBB4730:
.LBB4731:
	.loc 4 649 0
	lfs 12,12(1)
.LBE4731:
.LBE4730:
	.loc 2 3046 0
	lwz 0,8(29)
.LBB4745:
.LBB4740:
	.loc 4 649 0
	fmuls 0,12,12
	lfs 11,8(1)
.LBE4740:
.LBE4745:
	.loc 2 3046 0
	stw 0,16(1)
.LVL603:
.LBB4746:
.LBB4741:
	.loc 4 649 0
	fmadds 0,11,11,0
	lfs 13,16(1)
	fmadds 0,13,13,0
	stfs 0,24(1)
.LVL604:
.LBB4732:
.LBB4733:
	.loc 9 270 0
	lwz 0,24(1)
.LVL605:
	.loc 9 276 0
	rlwinm 11,0,9,24,31
	rlwinm 9,0,19,21,29
	subfic 0,11,380
	lis 11,_ZN6idMath5iSqrtE@ha
	la 11,_ZN6idMath5iSqrtE@l(11)
	rlwinm 0,0,22,0,8
	lwzx 9,11,9
	.loc 9 275 0
	lis 11,.LC11@ha
	lfs 8,.LC11@l(11)
	.loc 9 276 0
	or 0,0,9
	.loc 9 278 0
	lis 9,.LC12@ha
	.loc 9 277 0
	stw 0,28(1)
	.loc 9 275 0
	fmuls 8,0,8
.LVL606:
	.loc 9 278 0
	lfs 9,.LC12@l(9)
	.loc 9 277 0
	lfs 10,28(1)
	.loc 2 3018 0
	fneg 8,8
.LVL607:
.LBE4733:
.LBE4732:
.LBE4741:
.LBE4746:
	.loc 2 3048 0
	lwz 9,0(31)
.LBB4747:
.LBB4742:
.LBB4737:
.LBB4734:
	.loc 9 277 0
	fmr 0,10
.LVL608:
.LBE4734:
.LBE4737:
.LBE4742:
.LBE4747:
	.loc 2 3048 0
	lwz 0,84(9)
	lis 9,.LC127@ha
	lfs 1,.LC127@l(9)
.LBB4748:
.LBB4743:
.LBB4738:
.LBB4735:
	.loc 9 278 0
	fmul 10,0,0
.LVL609:
.LBE4735:
.LBE4738:
.LBE4743:
.LBE4748:
	.loc 2 3048 0
	mtctr 0
.LBB4749:
.LBB4744:
.LBB4739:
.LBB4736:
	.loc 9 278 0
	fmadd 10,8,10,9
	fmul 10,0,10
.LVL610:
	.loc 9 279 0
	fmul 0,10,10
	fmadd 0,8,0,9
.LVL611:
	fmul 0,10,0
.LVL612:
	.loc 9 280 0
	frsp 0,0
.LVL613:
.LBE4736:
.LBE4739:
	.loc 4 651 0
	fmuls 11,11,0
	.loc 4 652 0
	fmuls 12,12,0
	.loc 4 653 0
	fmuls 0,13,0
	.loc 4 651 0
	stfs 11,8(1)
	.loc 4 652 0
	stfs 12,12(1)
	.loc 4 653 0
	stfs 0,16(1)
.LBE4744:
.LBE4749:
	.loc 2 3048 0
	bctrl
.LVL614:
.LBE4729:
.LBE4728:
.LBE4727:
.LBE4753:
.LBE4760:
	.loc 2 3051 0
	lwz 0,68(1)
	lwz 25,36(1)
.LVL615:
	mtlr 0
	lwz 26,40(1)
.LVL616:
	lwz 27,44(1)
	lwz 28,48(1)
.LVL617:
	lwz 29,52(1)
.LVL618:
	lwz 30,56(1)
.LVL619:
	lwz 31,60(1)
.LVL620:
	addi 1,1,64
	.cfi_remember_state
	.cfi_restore 25
	.cfi_restore 26
	.cfi_restore 27
	.cfi_restore 28
	.cfi_restore 29
	.cfi_restore 30
	.cfi_restore 31
.LCFI167:
	.cfi_def_cfa_offset 0
	blr
.LVL621:
.L273:
.LCFI168:
	.cfi_restore_state
.LBB4761:
.LBB4754:
.LBB4755:
	.loc 12 241 0
	addi 3,28,8
.LVL622:
	mr 4,26
	bl _ZNK6idDict7FindKeyEPKc
	b .L270
.LVL623:
.L275:
.LBE4755:
.LBE4754:
.LBB4756:
.LBB4752:
	.loc 2 3043 0
	addi 3,28,8
.LVL624:
	mr 4,26
	mr 5,27
	bl _ZNK6idDict12RandomPrefixEPKcR8idRandom
.LVL625:
.LBB4750:
	.loc 2 3045 0
	lbz 0,0(3)
.LBE4750:
	.loc 2 3043 0
	mr 6,3
.LVL626:
.LBB4751:
	.loc 2 3045 0
	cmpwi 7,0,0
	beq+ 7,.L267
	b .L271
.LVL627:
.L272:
.LBE4751:
.LBE4752:
.LBE4756:
.LBB4757:
.LBB4723:
	.loc 12 245 0
	lis 9,.LC18@ha
	la 9,.LC18@l(9)
	b .L269
.LBE4723:
.LBE4757:
.LBE4761:
	.cfi_endproc
.LFE2956:
	.size	_ZN8idEntity15AddDamageEffectERK7trace_sRK6idVec3PKc, .-_ZN8idEntity15AddDamageEffectERK7trace_sRK6idVec3PKc
	.section	.text._ZN7idCurveI6idVec3E5ClearEv,"axG",@progbits,_ZN7idCurveI6idVec3E5ClearEv,comdat
	.align 2
	.weak	_ZN7idCurveI6idVec3E5ClearEv
	.type	_ZN7idCurveI6idVec3E5ClearEv, @function
_ZN7idCurveI6idVec3E5ClearEv:
.LFB3460:
	.loc 5 48 0
	.cfi_startproc
.LVL628:
	mflr 0
	stwu 1,-16(1)
.LCFI169:
	.cfi_def_cfa_offset 16
	.cfi_register 65, 0
	stw 31,12(1)
	mr 31,3
	.cfi_offset 31, -4
.LVL629:
	stw 0,20(1)
.LBB4766:
.LBB4767:
	.loc 6 193 0
	lwz 3,32(3)
.LVL630:
	cmpwi 7,3,0
	beq- 7,.L277
	.cfi_offset 65, 4
	.loc 6 194 0
	bl _ZdaPv
.LVL631:
.L277:
.LBE4767:
.LBE4766:
.LBB4770:
.LBB4771:
	.loc 6 193 0
	lwz 3,16(31)
.LBE4771:
.LBE4770:
.LBB4774:
.LBB4768:
	.loc 6 197 0
	li 0,0
	stw 0,32(31)
.LBE4768:
.LBE4774:
.LBB4775:
.LBB4772:
	.loc 6 193 0
	cmpwi 7,3,0
.LBE4772:
.LBE4775:
.LBB4776:
.LBB4769:
	.loc 6 198 0
	stw 0,20(31)
	.loc 6 199 0
	stw 0,24(31)
.LVL632:
.LBE4769:
.LBE4776:
.LBB4777:
.LBB4773:
	.loc 6 193 0
	beq- 7,.L278
	.loc 6 194 0
	bl _ZdaPv
.L278:
	.loc 6 197 0
	li 0,0
	stw 0,16(31)
	.loc 6 198 0
	stw 0,4(31)
	.loc 6 199 0
	stw 0,8(31)
.LBE4773:
.LBE4777:
	.loc 5 48 0
	li 0,-1
	stw 0,36(31)
	li 0,1
	stb 0,40(31)
	lwz 0,20(1)
	lwz 31,12(1)
.LVL633:
	mtlr 0
	addi 1,1,16
.LCFI170:
	.cfi_def_cfa_offset 0
	.cfi_restore 31
	blr
	.cfi_endproc
.LFE3460:
	.size	_ZN7idCurveI6idVec3E5ClearEv, .-_ZN7idCurveI6idVec3E5ClearEv
	.section	.text._ZN13idCurve_NURBSI6idVec3E5ClearEv,"axG",@progbits,_ZN13idCurve_NURBSI6idVec3E5ClearEv,comdat
	.align 2
	.weak	_ZN13idCurve_NURBSI6idVec3E5ClearEv
	.type	_ZN13idCurve_NURBSI6idVec3E5ClearEv, @function
_ZN13idCurve_NURBSI6idVec3E5ClearEv:
.LFB3448:
	.loc 5 2338 0
	.cfi_startproc
.LVL634:
	mflr 0
	stwu 1,-16(1)
.LCFI171:
	.cfi_def_cfa_offset 16
	.cfi_register 65, 0
	stw 31,12(1)
	mr 31,3
	.cfi_offset 31, -4
.LVL635:
	stw 0,20(1)
.LBB4784:
.LBB4785:
	.loc 6 193 0
	lwz 3,32(3)
.LVL636:
	cmpwi 7,3,0
	beq- 7,.L280
	.cfi_offset 65, 4
	.loc 6 194 0
	bl _ZdaPv
.LVL637:
.L280:
.LBE4785:
.LBE4784:
.LBB4788:
.LBB4789:
	.loc 6 193 0
	lwz 3,16(31)
.LBE4789:
.LBE4788:
.LBB4794:
.LBB4786:
	.loc 6 197 0
	li 0,0
	stw 0,32(31)
.LBE4786:
.LBE4794:
.LBB4795:
.LBB4790:
	.loc 6 193 0
	cmpwi 7,3,0
.LBE4790:
.LBE4795:
.LBB4796:
.LBB4787:
	.loc 6 198 0
	stw 0,20(31)
	.loc 6 199 0
	stw 0,24(31)
.LVL638:
.LBE4787:
.LBE4796:
.LBB4797:
.LBB4791:
	.loc 6 193 0
	beq- 7,.L281
	.loc 6 194 0
	bl _ZdaPv
.L281:
.LBE4791:
.LBE4797:
.LBB4798:
.LBB4799:
	.loc 6 193 0
	lwz 3,68(31)
.LBE4799:
.LBE4798:
.LBB4802:
.LBB4792:
	.loc 6 197 0
	li 0,0
	stw 0,16(31)
.LBE4792:
.LBE4802:
.LBB4803:
.LBB4800:
	.loc 6 193 0
	cmpwi 7,3,0
.LBE4800:
.LBE4803:
.LBB4804:
.LBB4793:
	.loc 6 198 0
	stw 0,4(31)
	.loc 6 199 0
	stw 0,8(31)
.LVL639:
.LBE4793:
.LBE4804:
.LBB4805:
.LBB4801:
	.loc 6 193 0
	beq- 7,.L282
	.loc 6 194 0
	bl _ZdaPv
.L282:
	.loc 6 197 0
	li 0,0
	stw 0,68(31)
	.loc 6 198 0
	stw 0,56(31)
	.loc 6 199 0
	stw 0,60(31)
.LBE4801:
.LBE4805:
	.loc 5 2338 0
	li 0,-1
	stw 0,36(31)
	lwz 0,20(1)
	lwz 31,12(1)
.LVL640:
	mtlr 0
	addi 1,1,16
.LCFI172:
	.cfi_def_cfa_offset 0
	.cfi_restore 31
	blr
	.cfi_endproc
.LFE3448:
	.size	_ZN13idCurve_NURBSI6idVec3E5ClearEv, .-_ZN13idCurve_NURBSI6idVec3E5ClearEv
	.section	.text._ZN7idCurveI6idVec3ED2Ev,"axG",@progbits,_ZN7idCurveI6idVec3ED5Ev,comdat
	.align 2
	.weak	_ZN7idCurveI6idVec3ED2Ev
	.type	_ZN7idCurveI6idVec3ED2Ev, @function
_ZN7idCurveI6idVec3ED2Ev:
.LFB3413:
	.loc 5 104 0
	.cfi_startproc
.LVL641:
	mflr 0
	stwu 1,-16(1)
.LCFI173:
	.cfi_def_cfa_offset 16
	.cfi_register 65, 0
.LBB4824:
	.loc 5 105 0
	lis 9,_ZTV7idCurveI6idVec3E+8@ha
.LBE4824:
	.loc 5 104 0
	stw 31,12(1)
	mr 31,3
	.cfi_offset 31, -4
	stw 0,20(1)
.LBB4853:
	.loc 5 105 0
	la 0,_ZTV7idCurveI6idVec3E+8@l(9)
	.cfi_offset 65, 4
.LBB4825:
.LBB4826:
.LBB4827:
.LBB4828:
	.loc 6 193 0
	lwz 3,32(3)
.LVL642:
.LBE4828:
.LBE4827:
.LBE4826:
.LBE4825:
	.loc 5 105 0
	stw 0,0(31)
.LVL643:
.LBB4838:
.LBB4835:
.LBB4832:
.LBB4829:
	.loc 6 193 0
	cmpwi 7,3,0
	beq- 7,.L284
	.loc 6 194 0
	bl _ZdaPv
.L284:
.LBE4829:
.LBE4832:
.LBE4835:
.LBE4838:
.LBB4839:
.LBB4840:
.LBB4841:
.LBB4842:
	.loc 6 193 0
	lwz 3,16(31)
.LBE4842:
.LBE4841:
.LBE4840:
.LBE4839:
.LBB4849:
.LBB4836:
.LBB4833:
.LBB4830:
	.loc 6 197 0
	li 0,0
	stw 0,32(31)
.LBE4830:
.LBE4833:
.LBE4836:
.LBE4849:
.LBB4850:
.LBB4847:
.LBB4845:
.LBB4843:
	.loc 6 193 0
	cmpwi 7,3,0
.LBE4843:
.LBE4845:
.LBE4847:
.LBE4850:
.LBB4851:
.LBB4837:
.LBB4834:
.LBB4831:
	.loc 6 198 0
	stw 0,20(31)
	.loc 6 199 0
	stw 0,24(31)
.LVL644:
.LBE4831:
.LBE4834:
.LBE4837:
.LBE4851:
.LBB4852:
.LBB4848:
.LBB4846:
.LBB4844:
	.loc 6 193 0
	beq- 7,.L286
	.loc 6 194 0
	bl _ZdaPv
.L286:
	.loc 6 197 0
	li 0,0
	stw 0,16(31)
	.loc 6 198 0
	stw 0,4(31)
	.loc 6 199 0
	stw 0,8(31)
.LBE4844:
.LBE4846:
.LBE4848:
.LBE4852:
.LBE4853:
	.loc 5 105 0
	lwz 0,20(1)
	lwz 31,12(1)
.LVL645:
	mtlr 0
	addi 1,1,16
.LCFI174:
	.cfi_def_cfa_offset 0
	.cfi_restore 31
	blr
	.cfi_endproc
.LFE3413:
	.size	_ZN7idCurveI6idVec3ED2Ev, .-_ZN7idCurveI6idVec3ED2Ev
	.section	.text._ZN13idCurve_NURBSI6idVec3ED0Ev,"axG",@progbits,_ZN13idCurve_NURBSI6idVec3ED5Ev,comdat
	.align 2
	.weak	_ZN13idCurve_NURBSI6idVec3ED0Ev
	.type	_ZN13idCurve_NURBSI6idVec3ED0Ev, @function
_ZN13idCurve_NURBSI6idVec3ED0Ev:
.LFB3440:
	.loc 5 2330 0
	.cfi_startproc
.LVL646:
	mflr 0
	stwu 1,-16(1)
.LCFI175:
	.cfi_def_cfa_offset 16
	.cfi_register 65, 0
.LBB4884:
.LBB4885:
.LBB4886:
	lis 9,_ZTV13idCurve_NURBSI6idVec3E+8@ha
.LBE4886:
.LBE4885:
.LBE4884:
	stw 31,12(1)
	mr 31,3
	.cfi_offset 31, -4
.LVL647:
	stw 0,20(1)
.LBB5007:
.LBB5005:
.LBB5003:
	.loc 5 2330 0
	la 0,_ZTV13idCurve_NURBSI6idVec3E+8@l(9)
	.cfi_offset 65, 4
.LBB4887:
.LBB4888:
.LBB4889:
.LBB4890:
	.loc 6 193 0
	lwz 3,68(3)
.LVL648:
.LBE4890:
.LBE4889:
.LBE4888:
.LBE4887:
	.loc 5 2330 0
	stw 0,0(31)
.LVL649:
.LBB4903:
.LBB4899:
.LBB4895:
.LBB4891:
	.loc 6 193 0
	cmpwi 7,3,0
	beq- 7,.L290
	.loc 6 194 0
	bl _ZdaPv
.LVL650:
.L290:
.LBE4891:
.LBE4895:
.LBE4899:
.LBE4903:
.LBB4904:
.LBB4905:
.LBB4906:
.LBB4907:
.LBB4908:
.LBB4909:
.LBB4910:
.LBB4911:
.LBB4912:
.LBB4913:
.LBB4914:
.LBB4915:
.LBB4916:
.LBB4917:
.LBB4918:
.LBB4919:
	.loc 6 193 0
	lwz 3,32(31)
.LBE4919:
.LBE4918:
.LBE4917:
.LBE4916:
.LBE4915:
.LBE4914:
.LBE4913:
.LBE4912:
.LBE4911:
.LBE4910:
.LBE4909:
.LBE4908:
.LBE4907:
.LBE4906:
.LBE4905:
.LBE4904:
.LBB4996:
.LBB4900:
.LBB4896:
.LBB4892:
	.loc 6 197 0
	li 0,0
.LBE4892:
.LBE4896:
.LBE4900:
.LBE4996:
.LBB4997:
.LBB4992:
.LBB4988:
.LBB4984:
.LBB4980:
.LBB4976:
.LBB4972:
.LBB4968:
.LBB4964:
.LBB4960:
.LBB4956:
.LBB4952:
	.loc 5 105 0
	lis 9,_ZTV7idCurveI6idVec3E+8@ha
.LBE4952:
.LBE4956:
.LBE4960:
.LBE4964:
.LBE4968:
.LBE4972:
.LBE4976:
.LBE4980:
.LBE4984:
.LBE4988:
.LBE4992:
.LBE4997:
.LBB4998:
.LBB4901:
.LBB4897:
.LBB4893:
	.loc 6 197 0
	stw 0,68(31)
.LBE4893:
.LBE4897:
.LBE4901:
.LBE4998:
.LBB4999:
.LBB4993:
.LBB4989:
.LBB4985:
.LBB4981:
.LBB4977:
.LBB4973:
.LBB4969:
.LBB4965:
.LBB4961:
.LBB4957:
.LBB4953:
.LBB4932:
.LBB4928:
.LBB4924:
.LBB4920:
	.loc 6 193 0
	cmpwi 7,3,0
.LBE4920:
.LBE4924:
.LBE4928:
.LBE4932:
.LBE4953:
.LBE4957:
.LBE4961:
.LBE4965:
.LBE4969:
.LBE4973:
.LBE4977:
.LBE4981:
.LBE4985:
.LBE4989:
.LBE4993:
.LBE4999:
.LBB5000:
.LBB4902:
.LBB4898:
.LBB4894:
	.loc 6 198 0
	stw 0,56(31)
	.loc 6 199 0
	stw 0,60(31)
.LVL651:
.LBE4894:
.LBE4898:
.LBE4902:
.LBE5000:
.LBB5001:
.LBB4994:
.LBB4990:
.LBB4986:
.LBB4982:
.LBB4978:
.LBB4974:
.LBB4970:
.LBB4966:
.LBB4962:
.LBB4958:
.LBB4954:
	.loc 5 105 0
	la 0,_ZTV7idCurveI6idVec3E+8@l(9)
	stw 0,0(31)
.LVL652:
.LBB4933:
.LBB4929:
.LBB4925:
.LBB4921:
	.loc 6 193 0
	beq- 7,.L292
	.loc 6 194 0
	bl _ZdaPv
.L292:
.LBE4921:
.LBE4925:
.LBE4929:
.LBE4933:
.LBB4934:
.LBB4935:
.LBB4936:
.LBB4937:
	.loc 6 193 0
	lwz 3,16(31)
.LBE4937:
.LBE4936:
.LBE4935:
.LBE4934:
.LBB4947:
.LBB4930:
.LBB4926:
.LBB4922:
	.loc 6 197 0
	li 0,0
	stw 0,32(31)
.LBE4922:
.LBE4926:
.LBE4930:
.LBE4947:
.LBB4948:
.LBB4944:
.LBB4941:
.LBB4938:
	.loc 6 193 0
	cmpwi 7,3,0
.LBE4938:
.LBE4941:
.LBE4944:
.LBE4948:
.LBB4949:
.LBB4931:
.LBB4927:
.LBB4923:
	.loc 6 198 0
	stw 0,20(31)
	.loc 6 199 0
	stw 0,24(31)
.LVL653:
.LBE4923:
.LBE4927:
.LBE4931:
.LBE4949:
.LBB4950:
.LBB4945:
.LBB4942:
.LBB4939:
	.loc 6 193 0
	beq- 7,.L294
	.loc 6 194 0
	bl _ZdaPv
.L294:
	.loc 6 197 0
	li 0,0
.LBE4939:
.LBE4942:
.LBE4945:
.LBE4950:
.LBE4954:
.LBE4958:
.LBE4962:
.LBE4966:
.LBE4970:
.LBE4974:
.LBE4978:
.LBE4982:
.LBE4986:
.LBE4990:
.LBE4994:
.LBE5001:
.LBE5003:
.LBE5005:
.LBE5007:
	.loc 5 2330 0
	mr 3,31
.LBB5008:
.LBB5006:
.LBB5004:
.LBB5002:
.LBB4995:
.LBB4991:
.LBB4987:
.LBB4983:
.LBB4979:
.LBB4975:
.LBB4971:
.LBB4967:
.LBB4963:
.LBB4959:
.LBB4955:
.LBB4951:
.LBB4946:
.LBB4943:
.LBB4940:
	.loc 6 197 0
	stw 0,16(31)
	.loc 6 198 0
	stw 0,4(31)
	.loc 6 199 0
	stw 0,8(31)
.LBE4940:
.LBE4943:
.LBE4946:
.LBE4951:
.LBE4955:
.LBE4959:
.LBE4963:
.LBE4967:
.LBE4971:
.LBE4975:
.LBE4979:
.LBE4983:
.LBE4987:
.LBE4991:
.LBE4995:
.LBE5002:
.LBE5004:
.LBE5006:
.LBE5008:
	.loc 5 2330 0
	bl _ZdlPv
	lwz 0,20(1)
	lwz 31,12(1)
.LVL654:
	mtlr 0
	addi 1,1,16
.LCFI176:
	.cfi_def_cfa_offset 0
	.cfi_restore 31
	blr
	.cfi_endproc
.LFE3440:
	.size	_ZN13idCurve_NURBSI6idVec3ED0Ev, .-_ZN13idCurve_NURBSI6idVec3ED0Ev
	.section	.text._ZN13idCurve_NURBSI6idVec3ED2Ev,"axG",@progbits,_ZN13idCurve_NURBSI6idVec3ED5Ev,comdat
	.align 2
	.weak	_ZN13idCurve_NURBSI6idVec3ED2Ev
	.type	_ZN13idCurve_NURBSI6idVec3ED2Ev, @function
_ZN13idCurve_NURBSI6idVec3ED2Ev:
.LFB3438:
	.loc 5 2330 0
	.cfi_startproc
.LVL655:
	mflr 0
	stwu 1,-16(1)
.LCFI177:
	.cfi_def_cfa_offset 16
	.cfi_register 65, 0
.LBB5037:
	lis 9,_ZTV13idCurve_NURBSI6idVec3E+8@ha
.LBE5037:
	stw 31,12(1)
	mr 31,3
	.cfi_offset 31, -4
	stw 0,20(1)
.LBB5138:
	.loc 5 2330 0
	la 0,_ZTV13idCurve_NURBSI6idVec3E+8@l(9)
	.cfi_offset 65, 4
.LBB5038:
.LBB5039:
.LBB5040:
.LBB5041:
	.loc 6 193 0
	lwz 3,68(3)
.LVL656:
.LBE5041:
.LBE5040:
.LBE5039:
.LBE5038:
	.loc 5 2330 0
	stw 0,0(31)
.LVL657:
.LBB5054:
.LBB5050:
.LBB5046:
.LBB5042:
	.loc 6 193 0
	cmpwi 7,3,0
	beq- 7,.L303
	.loc 6 194 0
	bl _ZdaPv
.L303:
.LBE5042:
.LBE5046:
.LBE5050:
.LBE5054:
.LBB5055:
.LBB5056:
.LBB5057:
.LBB5058:
.LBB5059:
.LBB5060:
.LBB5061:
.LBB5062:
.LBB5063:
.LBB5064:
.LBB5065:
.LBB5066:
.LBB5067:
.LBB5068:
.LBB5069:
.LBB5070:
	.loc 6 193 0
	lwz 3,32(31)
.LBE5070:
.LBE5069:
.LBE5068:
.LBE5067:
.LBE5066:
.LBE5065:
.LBE5064:
.LBE5063:
.LBE5062:
.LBE5061:
.LBE5060:
.LBE5059:
.LBE5058:
.LBE5057:
.LBE5056:
.LBE5055:
.LBB5132:
.LBB5051:
.LBB5047:
.LBB5043:
	.loc 6 197 0
	li 0,0
.LBE5043:
.LBE5047:
.LBE5051:
.LBE5132:
.LBB5133:
.LBB5129:
.LBB5126:
.LBB5123:
.LBB5120:
.LBB5117:
.LBB5114:
.LBB5111:
.LBB5108:
.LBB5105:
.LBB5102:
.LBB5099:
	.loc 5 105 0
	lis 9,_ZTV7idCurveI6idVec3E+8@ha
.LBE5099:
.LBE5102:
.LBE5105:
.LBE5108:
.LBE5111:
.LBE5114:
.LBE5117:
.LBE5120:
.LBE5123:
.LBE5126:
.LBE5129:
.LBE5133:
.LBB5134:
.LBB5052:
.LBB5048:
.LBB5044:
	.loc 6 197 0
	stw 0,68(31)
.LBE5044:
.LBE5048:
.LBE5052:
.LBE5134:
.LBB5135:
.LBB5130:
.LBB5127:
.LBB5124:
.LBB5121:
.LBB5118:
.LBB5115:
.LBB5112:
.LBB5109:
.LBB5106:
.LBB5103:
.LBB5100:
.LBB5083:
.LBB5079:
.LBB5075:
.LBB5071:
	.loc 6 193 0
	cmpwi 7,3,0
.LBE5071:
.LBE5075:
.LBE5079:
.LBE5083:
.LBE5100:
.LBE5103:
.LBE5106:
.LBE5109:
.LBE5112:
.LBE5115:
.LBE5118:
.LBE5121:
.LBE5124:
.LBE5127:
.LBE5130:
.LBE5135:
.LBB5136:
.LBB5053:
.LBB5049:
.LBB5045:
	.loc 6 198 0
	stw 0,56(31)
	.loc 6 199 0
	stw 0,60(31)
.LVL658:
.LBE5045:
.LBE5049:
.LBE5053:
.LBE5136:
.LBB5137:
.LBB5131:
.LBB5128:
.LBB5125:
.LBB5122:
.LBB5119:
.LBB5116:
.LBB5113:
.LBB5110:
.LBB5107:
.LBB5104:
.LBB5101:
	.loc 5 105 0
	la 0,_ZTV7idCurveI6idVec3E+8@l(9)
	stw 0,0(31)
.LVL659:
.LBB5084:
.LBB5080:
.LBB5076:
.LBB5072:
	.loc 6 193 0
	beq- 7,.L305
	.loc 6 194 0
	bl _ZdaPv
.L305:
.LBE5072:
.LBE5076:
.LBE5080:
.LBE5084:
.LBB5085:
.LBB5086:
.LBB5087:
.LBB5088:
	.loc 6 193 0
	lwz 3,16(31)
.LBE5088:
.LBE5087:
.LBE5086:
.LBE5085:
.LBB5095:
.LBB5081:
.LBB5077:
.LBB5073:
	.loc 6 197 0
	li 0,0
	stw 0,32(31)
.LBE5073:
.LBE5077:
.LBE5081:
.LBE5095:
.LBB5096:
.LBB5093:
.LBB5091:
.LBB5089:
	.loc 6 193 0
	cmpwi 7,3,0
.LBE5089:
.LBE5091:
.LBE5093:
.LBE5096:
.LBB5097:
.LBB5082:
.LBB5078:
.LBB5074:
	.loc 6 198 0
	stw 0,20(31)
	.loc 6 199 0
	stw 0,24(31)
.LVL660:
.LBE5074:
.LBE5078:
.LBE5082:
.LBE5097:
.LBB5098:
.LBB5094:
.LBB5092:
.LBB5090:
	.loc 6 193 0
	beq- 7,.L307
	.loc 6 194 0
	bl _ZdaPv
.L307:
	.loc 6 197 0
	li 0,0
	stw 0,16(31)
	.loc 6 198 0
	stw 0,4(31)
	.loc 6 199 0
	stw 0,8(31)
.LBE5090:
.LBE5092:
.LBE5094:
.LBE5098:
.LBE5101:
.LBE5104:
.LBE5107:
.LBE5110:
.LBE5113:
.LBE5116:
.LBE5119:
.LBE5122:
.LBE5125:
.LBE5128:
.LBE5131:
.LBE5137:
.LBE5138:
	.loc 5 2330 0
	lwz 0,20(1)
	lwz 31,12(1)
.LVL661:
	mtlr 0
	addi 1,1,16
.LCFI178:
	.cfi_def_cfa_offset 0
	.cfi_restore 31
	blr
	.cfi_endproc
.LFE3438:
	.size	_ZN13idCurve_NURBSI6idVec3ED2Ev, .-_ZN13idCurve_NURBSI6idVec3ED2Ev
	.section	.text._ZN14idCurve_SplineI6idVec3ED2Ev,"axG",@progbits,_ZN14idCurve_SplineI6idVec3ED5Ev,comdat
	.align 2
	.weak	_ZN14idCurve_SplineI6idVec3ED2Ev
	.type	_ZN14idCurve_SplineI6idVec3ED2Ev, @function
_ZN14idCurve_SplineI6idVec3ED2Ev:
.LFB3331:
	.loc 5 930 0
	.cfi_startproc
.LVL662:
	mflr 0
	stwu 1,-16(1)
.LCFI179:
	.cfi_def_cfa_offset 16
	.cfi_register 65, 0
.LBB5154:
.LBB5155:
.LBB5156:
.LBB5157:
	.loc 5 105 0
	lis 9,_ZTV7idCurveI6idVec3E+8@ha
.LBE5157:
.LBE5156:
.LBE5155:
.LBE5154:
	.loc 5 930 0
	stw 31,12(1)
	mr 31,3
	.cfi_offset 31, -4
.LVL663:
	stw 0,20(1)
.LBB5189:
.LBB5188:
.LBB5187:
.LBB5186:
	.loc 5 105 0
	la 0,_ZTV7idCurveI6idVec3E+8@l(9)
	.cfi_offset 65, 4
.LBB5158:
.LBB5159:
.LBB5160:
.LBB5161:
	.loc 6 193 0
	lwz 3,32(3)
.LVL664:
.LBE5161:
.LBE5160:
.LBE5159:
.LBE5158:
	.loc 5 105 0
	stw 0,0(31)
.LVL665:
.LBB5171:
.LBB5168:
.LBB5165:
.LBB5162:
	.loc 6 193 0
	cmpwi 7,3,0
	beq- 7,.L315
	.loc 6 194 0
	bl _ZdaPv
.L315:
.LBE5162:
.LBE5165:
.LBE5168:
.LBE5171:
.LBB5172:
.LBB5173:
.LBB5174:
.LBB5175:
	.loc 6 193 0
	lwz 3,16(31)
.LBE5175:
.LBE5174:
.LBE5173:
.LBE5172:
.LBB5182:
.LBB5169:
.LBB5166:
.LBB5163:
	.loc 6 197 0
	li 0,0
	stw 0,32(31)
.LBE5163:
.LBE5166:
.LBE5169:
.LBE5182:
.LBB5183:
.LBB5180:
.LBB5178:
.LBB5176:
	.loc 6 193 0
	cmpwi 7,3,0
.LBE5176:
.LBE5178:
.LBE5180:
.LBE5183:
.LBB5184:
.LBB5170:
.LBB5167:
.LBB5164:
	.loc 6 198 0
	stw 0,20(31)
	.loc 6 199 0
	stw 0,24(31)
.LVL666:
.LBE5164:
.LBE5167:
.LBE5170:
.LBE5184:
.LBB5185:
.LBB5181:
.LBB5179:
.LBB5177:
	.loc 6 193 0
	beq- 7,.L317
	.loc 6 194 0
	bl _ZdaPv
.L317:
	.loc 6 197 0
	li 0,0
	stw 0,16(31)
	.loc 6 198 0
	stw 0,4(31)
	.loc 6 199 0
	stw 0,8(31)
.LBE5177:
.LBE5179:
.LBE5181:
.LBE5185:
.LBE5186:
.LBE5187:
.LBE5188:
.LBE5189:
	.loc 5 930 0
	lwz 0,20(1)
	lwz 31,12(1)
.LVL667:
	mtlr 0
	addi 1,1,16
.LCFI180:
	.cfi_def_cfa_offset 0
	.cfi_restore 31
	blr
	.cfi_endproc
.LFE3331:
	.size	_ZN14idCurve_SplineI6idVec3ED2Ev, .-_ZN14idCurve_SplineI6idVec3ED2Ev
	.section	.text._ZN7idCurveI6idVec3ED0Ev,"axG",@progbits,_ZN7idCurveI6idVec3ED5Ev,comdat
	.align 2
	.weak	_ZN7idCurveI6idVec3ED0Ev
	.type	_ZN7idCurveI6idVec3ED0Ev, @function
_ZN7idCurveI6idVec3ED0Ev:
.LFB3415:
	.loc 5 104 0
	.cfi_startproc
.LVL668:
	mflr 0
	stwu 1,-16(1)
.LCFI181:
	.cfi_def_cfa_offset 16
	.cfi_register 65, 0
.LBB5203:
.LBB5204:
.LBB5205:
	.loc 5 105 0
	lis 9,_ZTV7idCurveI6idVec3E+8@ha
.LBE5205:
.LBE5204:
.LBE5203:
	.loc 5 104 0
	stw 31,12(1)
	mr 31,3
	.cfi_offset 31, -4
.LVL669:
	stw 0,20(1)
.LBB5242:
.LBB5240:
.LBB5238:
	.loc 5 105 0
	la 0,_ZTV7idCurveI6idVec3E+8@l(9)
	.cfi_offset 65, 4
.LBB5206:
.LBB5207:
.LBB5208:
.LBB5209:
	.loc 6 193 0
	lwz 3,32(3)
.LVL670:
.LBE5209:
.LBE5208:
.LBE5207:
.LBE5206:
	.loc 5 105 0
	stw 0,0(31)
.LVL671:
.LBB5219:
.LBB5216:
.LBB5213:
.LBB5210:
	.loc 6 193 0
	cmpwi 7,3,0
	beq- 7,.L322
	.loc 6 194 0
	bl _ZdaPv
.L322:
.LBE5210:
.LBE5213:
.LBE5216:
.LBE5219:
.LBB5220:
.LBB5221:
.LBB5222:
.LBB5223:
	.loc 6 193 0
	lwz 3,16(31)
.LBE5223:
.LBE5222:
.LBE5221:
.LBE5220:
.LBB5233:
.LBB5217:
.LBB5214:
.LBB5211:
	.loc 6 197 0
	li 0,0
	stw 0,32(31)
.LBE5211:
.LBE5214:
.LBE5217:
.LBE5233:
.LBB5234:
.LBB5230:
.LBB5227:
.LBB5224:
	.loc 6 193 0
	cmpwi 7,3,0
.LBE5224:
.LBE5227:
.LBE5230:
.LBE5234:
.LBB5235:
.LBB5218:
.LBB5215:
.LBB5212:
	.loc 6 198 0
	stw 0,20(31)
	.loc 6 199 0
	stw 0,24(31)
.LVL672:
.LBE5212:
.LBE5215:
.LBE5218:
.LBE5235:
.LBB5236:
.LBB5231:
.LBB5228:
.LBB5225:
	.loc 6 193 0
	beq- 7,.L324
	.loc 6 194 0
	bl _ZdaPv
.L324:
	.loc 6 197 0
	li 0,0
.LBE5225:
.LBE5228:
.LBE5231:
.LBE5236:
.LBE5238:
.LBE5240:
.LBE5242:
	.loc 5 105 0
	mr 3,31
.LBB5243:
.LBB5241:
.LBB5239:
.LBB5237:
.LBB5232:
.LBB5229:
.LBB5226:
	.loc 6 197 0
	stw 0,16(31)
	.loc 6 198 0
	stw 0,4(31)
	.loc 6 199 0
	stw 0,8(31)
.LBE5226:
.LBE5229:
.LBE5232:
.LBE5237:
.LBE5239:
.LBE5241:
.LBE5243:
	.loc 5 105 0
	bl _ZdlPv
	lwz 0,20(1)
	lwz 31,12(1)
.LVL673:
	mtlr 0
	addi 1,1,16
.LCFI182:
	.cfi_def_cfa_offset 0
	.cfi_restore 31
	blr
	.cfi_endproc
.LFE3415:
	.size	_ZN7idCurveI6idVec3ED0Ev, .-_ZN7idCurveI6idVec3ED0Ev
	.section	.text._ZN25idCurve_NonUniformBSplineI6idVec3ED2Ev,"axG",@progbits,_ZN25idCurve_NonUniformBSplineI6idVec3ED5Ev,comdat
	.align 2
	.weak	_ZN25idCurve_NonUniformBSplineI6idVec3ED2Ev
	.type	_ZN25idCurve_NonUniformBSplineI6idVec3ED2Ev, @function
_ZN25idCurve_NonUniformBSplineI6idVec3ED2Ev:
.LFB3345:
	.loc 5 2144 0
	.cfi_startproc
.LVL674:
	mflr 0
	stwu 1,-16(1)
.LCFI183:
	.cfi_def_cfa_offset 16
	.cfi_register 65, 0
.LBB5265:
.LBB5266:
.LBB5267:
.LBB5268:
.LBB5269:
.LBB5270:
.LBB5271:
.LBB5272:
.LBB5273:
.LBB5274:
	.loc 5 105 0
	lis 9,_ZTV7idCurveI6idVec3E+8@ha
.LBE5274:
.LBE5273:
.LBE5272:
.LBE5271:
.LBE5270:
.LBE5269:
.LBE5268:
.LBE5267:
.LBE5266:
.LBE5265:
	.loc 5 2144 0
	stw 31,12(1)
	mr 31,3
	.cfi_offset 31, -4
.LVL675:
	stw 0,20(1)
.LBB5312:
.LBB5311:
.LBB5310:
.LBB5309:
.LBB5308:
.LBB5307:
.LBB5306:
.LBB5305:
.LBB5304:
.LBB5303:
	.loc 5 105 0
	la 0,_ZTV7idCurveI6idVec3E+8@l(9)
	.cfi_offset 65, 4
.LBB5275:
.LBB5276:
.LBB5277:
.LBB5278:
	.loc 6 193 0
	lwz 3,32(3)
.LVL676:
.LBE5278:
.LBE5277:
.LBE5276:
.LBE5275:
	.loc 5 105 0
	stw 0,0(31)
.LVL677:
.LBB5288:
.LBB5285:
.LBB5282:
.LBB5279:
	.loc 6 193 0
	cmpwi 7,3,0
	beq- 7,.L329
	.loc 6 194 0
	bl _ZdaPv
.LVL678:
.L329:
.LBE5279:
.LBE5282:
.LBE5285:
.LBE5288:
.LBB5289:
.LBB5290:
.LBB5291:
.LBB5292:
	.loc 6 193 0
	lwz 3,16(31)
.LBE5292:
.LBE5291:
.LBE5290:
.LBE5289:
.LBB5299:
.LBB5286:
.LBB5283:
.LBB5280:
	.loc 6 197 0
	li 0,0
	stw 0,32(31)
.LBE5280:
.LBE5283:
.LBE5286:
.LBE5299:
.LBB5300:
.LBB5297:
.LBB5295:
.LBB5293:
	.loc 6 193 0
	cmpwi 7,3,0
.LBE5293:
.LBE5295:
.LBE5297:
.LBE5300:
.LBB5301:
.LBB5287:
.LBB5284:
.LBB5281:
	.loc 6 198 0
	stw 0,20(31)
	.loc 6 199 0
	stw 0,24(31)
.LVL679:
.LBE5281:
.LBE5284:
.LBE5287:
.LBE5301:
.LBB5302:
.LBB5298:
.LBB5296:
.LBB5294:
	.loc 6 193 0
	beq- 7,.L331
	.loc 6 194 0
	bl _ZdaPv
.L331:
	.loc 6 197 0
	li 0,0
	stw 0,16(31)
	.loc 6 198 0
	stw 0,4(31)
	.loc 6 199 0
	stw 0,8(31)
.LBE5294:
.LBE5296:
.LBE5298:
.LBE5302:
.LBE5303:
.LBE5304:
.LBE5305:
.LBE5306:
.LBE5307:
.LBE5308:
.LBE5309:
.LBE5310:
.LBE5311:
.LBE5312:
	.loc 5 2144 0
	lwz 0,20(1)
	lwz 31,12(1)
.LVL680:
	mtlr 0
	addi 1,1,16
.LCFI184:
	.cfi_def_cfa_offset 0
	.cfi_restore 31
	blr
	.cfi_endproc
.LFE3345:
	.size	_ZN25idCurve_NonUniformBSplineI6idVec3ED2Ev, .-_ZN25idCurve_NonUniformBSplineI6idVec3ED2Ev
	.section	.text._ZN15idCurve_BSplineI6idVec3ED0Ev,"axG",@progbits,_ZN15idCurve_BSplineI6idVec3ED5Ev,comdat
	.align 2
	.weak	_ZN15idCurve_BSplineI6idVec3ED0Ev
	.type	_ZN15idCurve_BSplineI6idVec3ED0Ev, @function
_ZN15idCurve_BSplineI6idVec3ED0Ev:
.LFB3340:
	.loc 5 1798 0
	.cfi_startproc
.LVL681:
	mflr 0
	stwu 1,-16(1)
.LCFI185:
	.cfi_def_cfa_offset 16
	.cfi_register 65, 0
.LBB5332:
.LBB5333:
.LBB5334:
.LBB5335:
.LBB5336:
.LBB5337:
.LBB5338:
.LBB5339:
.LBB5340:
	.loc 5 105 0
	lis 9,_ZTV7idCurveI6idVec3E+8@ha
.LBE5340:
.LBE5339:
.LBE5338:
.LBE5337:
.LBE5336:
.LBE5335:
.LBE5334:
.LBE5333:
.LBE5332:
	.loc 5 1798 0
	stw 31,12(1)
	mr 31,3
	.cfi_offset 31, -4
.LVL682:
	stw 0,20(1)
.LBB5389:
.LBB5387:
.LBB5385:
.LBB5383:
.LBB5381:
.LBB5379:
.LBB5377:
.LBB5375:
.LBB5373:
	.loc 5 105 0
	la 0,_ZTV7idCurveI6idVec3E+8@l(9)
	.cfi_offset 65, 4
.LBB5341:
.LBB5342:
.LBB5343:
.LBB5344:
	.loc 6 193 0
	lwz 3,32(3)
.LVL683:
.LBE5344:
.LBE5343:
.LBE5342:
.LBE5341:
	.loc 5 105 0
	stw 0,0(31)
.LVL684:
.LBB5354:
.LBB5351:
.LBB5348:
.LBB5345:
	.loc 6 193 0
	cmpwi 7,3,0
	beq- 7,.L338
	.loc 6 194 0
	bl _ZdaPv
.LVL685:
.L338:
.LBE5345:
.LBE5348:
.LBE5351:
.LBE5354:
.LBB5355:
.LBB5356:
.LBB5357:
.LBB5358:
	.loc 6 193 0
	lwz 3,16(31)
.LBE5358:
.LBE5357:
.LBE5356:
.LBE5355:
.LBB5368:
.LBB5352:
.LBB5349:
.LBB5346:
	.loc 6 197 0
	li 0,0
	stw 0,32(31)
.LBE5346:
.LBE5349:
.LBE5352:
.LBE5368:
.LBB5369:
.LBB5365:
.LBB5362:
.LBB5359:
	.loc 6 193 0
	cmpwi 7,3,0
.LBE5359:
.LBE5362:
.LBE5365:
.LBE5369:
.LBB5370:
.LBB5353:
.LBB5350:
.LBB5347:
	.loc 6 198 0
	stw 0,20(31)
	.loc 6 199 0
	stw 0,24(31)
.LVL686:
.LBE5347:
.LBE5350:
.LBE5353:
.LBE5370:
.LBB5371:
.LBB5366:
.LBB5363:
.LBB5360:
	.loc 6 193 0
	beq- 7,.L340
	.loc 6 194 0
	bl _ZdaPv
.L340:
	.loc 6 197 0
	li 0,0
.LBE5360:
.LBE5363:
.LBE5366:
.LBE5371:
.LBE5373:
.LBE5375:
.LBE5377:
.LBE5379:
.LBE5381:
.LBE5383:
.LBE5385:
.LBE5387:
.LBE5389:
	.loc 5 1798 0
	mr 3,31
.LBB5390:
.LBB5388:
.LBB5386:
.LBB5384:
.LBB5382:
.LBB5380:
.LBB5378:
.LBB5376:
.LBB5374:
.LBB5372:
.LBB5367:
.LBB5364:
.LBB5361:
	.loc 6 197 0
	stw 0,16(31)
	.loc 6 198 0
	stw 0,4(31)
	.loc 6 199 0
	stw 0,8(31)
.LBE5361:
.LBE5364:
.LBE5367:
.LBE5372:
.LBE5374:
.LBE5376:
.LBE5378:
.LBE5380:
.LBE5382:
.LBE5384:
.LBE5386:
.LBE5388:
.LBE5390:
	.loc 5 1798 0
	bl _ZdlPv
	lwz 0,20(1)
	lwz 31,12(1)
.LVL687:
	mtlr 0
	addi 1,1,16
.LCFI186:
	.cfi_def_cfa_offset 0
	.cfi_restore 31
	blr
	.cfi_endproc
.LFE3340:
	.size	_ZN15idCurve_BSplineI6idVec3ED0Ev, .-_ZN15idCurve_BSplineI6idVec3ED0Ev
	.section	.text._ZN24idCurve_CatmullRomSplineI6idVec3ED2Ev,"axG",@progbits,_ZN24idCurve_CatmullRomSplineI6idVec3ED5Ev,comdat
	.align 2
	.weak	_ZN24idCurve_CatmullRomSplineI6idVec3ED2Ev
	.type	_ZN24idCurve_CatmullRomSplineI6idVec3ED2Ev, @function
_ZN24idCurve_CatmullRomSplineI6idVec3ED2Ev:
.LFB3442:
	.loc 5 1367 0
	.cfi_startproc
.LVL688:
	mflr 0
	stwu 1,-16(1)
.LCFI187:
	.cfi_def_cfa_offset 16
	.cfi_register 65, 0
.LBB5409:
.LBB5410:
.LBB5411:
.LBB5412:
.LBB5413:
.LBB5414:
.LBB5415:
	.loc 5 105 0
	lis 9,_ZTV7idCurveI6idVec3E+8@ha
.LBE5415:
.LBE5414:
.LBE5413:
.LBE5412:
.LBE5411:
.LBE5410:
.LBE5409:
	.loc 5 1367 0
	stw 31,12(1)
	mr 31,3
	.cfi_offset 31, -4
.LVL689:
	stw 0,20(1)
.LBB5450:
.LBB5449:
.LBB5448:
.LBB5447:
.LBB5446:
.LBB5445:
.LBB5444:
	.loc 5 105 0
	la 0,_ZTV7idCurveI6idVec3E+8@l(9)
	.cfi_offset 65, 4
.LBB5416:
.LBB5417:
.LBB5418:
.LBB5419:
	.loc 6 193 0
	lwz 3,32(3)
.LVL690:
.LBE5419:
.LBE5418:
.LBE5417:
.LBE5416:
	.loc 5 105 0
	stw 0,0(31)
.LVL691:
.LBB5429:
.LBB5426:
.LBB5423:
.LBB5420:
	.loc 6 193 0
	cmpwi 7,3,0
	beq- 7,.L347
	.loc 6 194 0
	bl _ZdaPv
.L347:
.LBE5420:
.LBE5423:
.LBE5426:
.LBE5429:
.LBB5430:
.LBB5431:
.LBB5432:
.LBB5433:
	.loc 6 193 0
	lwz 3,16(31)
.LBE5433:
.LBE5432:
.LBE5431:
.LBE5430:
.LBB5440:
.LBB5427:
.LBB5424:
.LBB5421:
	.loc 6 197 0
	li 0,0
	stw 0,32(31)
.LBE5421:
.LBE5424:
.LBE5427:
.LBE5440:
.LBB5441:
.LBB5438:
.LBB5436:
.LBB5434:
	.loc 6 193 0
	cmpwi 7,3,0
.LBE5434:
.LBE5436:
.LBE5438:
.LBE5441:
.LBB5442:
.LBB5428:
.LBB5425:
.LBB5422:
	.loc 6 198 0
	stw 0,20(31)
	.loc 6 199 0
	stw 0,24(31)
.LVL692:
.LBE5422:
.LBE5425:
.LBE5428:
.LBE5442:
.LBB5443:
.LBB5439:
.LBB5437:
.LBB5435:
	.loc 6 193 0
	beq- 7,.L349
	.loc 6 194 0
	bl _ZdaPv
.L349:
	.loc 6 197 0
	li 0,0
	stw 0,16(31)
	.loc 6 198 0
	stw 0,4(31)
	.loc 6 199 0
	stw 0,8(31)
.LBE5435:
.LBE5437:
.LBE5439:
.LBE5443:
.LBE5444:
.LBE5445:
.LBE5446:
.LBE5447:
.LBE5448:
.LBE5449:
.LBE5450:
	.loc 5 1367 0
	lwz 0,20(1)
	lwz 31,12(1)
.LVL693:
	mtlr 0
	addi 1,1,16
.LCFI188:
	.cfi_def_cfa_offset 0
	.cfi_restore 31
	blr
	.cfi_endproc
.LFE3442:
	.size	_ZN24idCurve_CatmullRomSplineI6idVec3ED2Ev, .-_ZN24idCurve_CatmullRomSplineI6idVec3ED2Ev
	.section	.text._ZN15idCurve_BSplineI6idVec3ED2Ev,"axG",@progbits,_ZN15idCurve_BSplineI6idVec3ED5Ev,comdat
	.align 2
	.weak	_ZN15idCurve_BSplineI6idVec3ED2Ev
	.type	_ZN15idCurve_BSplineI6idVec3ED2Ev, @function
_ZN15idCurve_BSplineI6idVec3ED2Ev:
.LFB3338:
	.loc 5 1798 0
	.cfi_startproc
.LVL694:
	mflr 0
	stwu 1,-16(1)
.LCFI189:
	.cfi_def_cfa_offset 16
	.cfi_register 65, 0
.LBB5469:
.LBB5470:
.LBB5471:
.LBB5472:
.LBB5473:
.LBB5474:
.LBB5475:
	.loc 5 105 0
	lis 9,_ZTV7idCurveI6idVec3E+8@ha
.LBE5475:
.LBE5474:
.LBE5473:
.LBE5472:
.LBE5471:
.LBE5470:
.LBE5469:
	.loc 5 1798 0
	stw 31,12(1)
	mr 31,3
	.cfi_offset 31, -4
.LVL695:
	stw 0,20(1)
.LBB5510:
.LBB5509:
.LBB5508:
.LBB5507:
.LBB5506:
.LBB5505:
.LBB5504:
	.loc 5 105 0
	la 0,_ZTV7idCurveI6idVec3E+8@l(9)
	.cfi_offset 65, 4
.LBB5476:
.LBB5477:
.LBB5478:
.LBB5479:
	.loc 6 193 0
	lwz 3,32(3)
.LVL696:
.LBE5479:
.LBE5478:
.LBE5477:
.LBE5476:
	.loc 5 105 0
	stw 0,0(31)
.LVL697:
.LBB5489:
.LBB5486:
.LBB5483:
.LBB5480:
	.loc 6 193 0
	cmpwi 7,3,0
	beq- 7,.L355
	.loc 6 194 0
	bl _ZdaPv
.LVL698:
.L355:
.LBE5480:
.LBE5483:
.LBE5486:
.LBE5489:
.LBB5490:
.LBB5491:
.LBB5492:
.LBB5493:
	.loc 6 193 0
	lwz 3,16(31)
.LBE5493:
.LBE5492:
.LBE5491:
.LBE5490:
.LBB5500:
.LBB5487:
.LBB5484:
.LBB5481:
	.loc 6 197 0
	li 0,0
	stw 0,32(31)
.LBE5481:
.LBE5484:
.LBE5487:
.LBE5500:
.LBB5501:
.LBB5498:
.LBB5496:
.LBB5494:
	.loc 6 193 0
	cmpwi 7,3,0
.LBE5494:
.LBE5496:
.LBE5498:
.LBE5501:
.LBB5502:
.LBB5488:
.LBB5485:
.LBB5482:
	.loc 6 198 0
	stw 0,20(31)
	.loc 6 199 0
	stw 0,24(31)
.LVL699:
.LBE5482:
.LBE5485:
.LBE5488:
.LBE5502:
.LBB5503:
.LBB5499:
.LBB5497:
.LBB5495:
	.loc 6 193 0
	beq- 7,.L357
	.loc 6 194 0
	bl _ZdaPv
.L357:
	.loc 6 197 0
	li 0,0
	stw 0,16(31)
	.loc 6 198 0
	stw 0,4(31)
	.loc 6 199 0
	stw 0,8(31)
.LBE5495:
.LBE5497:
.LBE5499:
.LBE5503:
.LBE5504:
.LBE5505:
.LBE5506:
.LBE5507:
.LBE5508:
.LBE5509:
.LBE5510:
	.loc 5 1798 0
	lwz 0,20(1)
	lwz 31,12(1)
.LVL700:
	mtlr 0
	addi 1,1,16
.LCFI190:
	.cfi_def_cfa_offset 0
	.cfi_restore 31
	blr
	.cfi_endproc
.LFE3338:
	.size	_ZN15idCurve_BSplineI6idVec3ED2Ev, .-_ZN15idCurve_BSplineI6idVec3ED2Ev
	.section	.text._ZN14idCurve_SplineI6idVec3ED0Ev,"axG",@progbits,_ZN14idCurve_SplineI6idVec3ED5Ev,comdat
	.align 2
	.weak	_ZN14idCurve_SplineI6idVec3ED0Ev
	.type	_ZN14idCurve_SplineI6idVec3ED0Ev, @function
_ZN14idCurve_SplineI6idVec3ED0Ev:
.LFB3333:
	.loc 5 930 0
	.cfi_startproc
.LVL701:
	mflr 0
	stwu 1,-16(1)
.LCFI191:
	.cfi_def_cfa_offset 16
	.cfi_register 65, 0
.LBB5527:
.LBB5528:
.LBB5529:
.LBB5530:
.LBB5531:
.LBB5532:
	.loc 5 105 0
	lis 9,_ZTV7idCurveI6idVec3E+8@ha
.LBE5532:
.LBE5531:
.LBE5530:
.LBE5529:
.LBE5528:
.LBE5527:
	.loc 5 930 0
	stw 31,12(1)
	mr 31,3
	.cfi_offset 31, -4
.LVL702:
	stw 0,20(1)
.LBB5575:
.LBB5573:
.LBB5571:
.LBB5569:
.LBB5567:
.LBB5565:
	.loc 5 105 0
	la 0,_ZTV7idCurveI6idVec3E+8@l(9)
	.cfi_offset 65, 4
.LBB5533:
.LBB5534:
.LBB5535:
.LBB5536:
	.loc 6 193 0
	lwz 3,32(3)
.LVL703:
.LBE5536:
.LBE5535:
.LBE5534:
.LBE5533:
	.loc 5 105 0
	stw 0,0(31)
.LVL704:
.LBB5546:
.LBB5543:
.LBB5540:
.LBB5537:
	.loc 6 193 0
	cmpwi 7,3,0
	beq- 7,.L363
	.loc 6 194 0
	bl _ZdaPv
.LVL705:
.L363:
.LBE5537:
.LBE5540:
.LBE5543:
.LBE5546:
.LBB5547:
.LBB5548:
.LBB5549:
.LBB5550:
	.loc 6 193 0
	lwz 3,16(31)
.LBE5550:
.LBE5549:
.LBE5548:
.LBE5547:
.LBB5560:
.LBB5544:
.LBB5541:
.LBB5538:
	.loc 6 197 0
	li 0,0
	stw 0,32(31)
.LBE5538:
.LBE5541:
.LBE5544:
.LBE5560:
.LBB5561:
.LBB5557:
.LBB5554:
.LBB5551:
	.loc 6 193 0
	cmpwi 7,3,0
.LBE5551:
.LBE5554:
.LBE5557:
.LBE5561:
.LBB5562:
.LBB5545:
.LBB5542:
.LBB5539:
	.loc 6 198 0
	stw 0,20(31)
	.loc 6 199 0
	stw 0,24(31)
.LVL706:
.LBE5539:
.LBE5542:
.LBE5545:
.LBE5562:
.LBB5563:
.LBB5558:
.LBB5555:
.LBB5552:
	.loc 6 193 0
	beq- 7,.L365
	.loc 6 194 0
	bl _ZdaPv
.L365:
	.loc 6 197 0
	li 0,0
.LBE5552:
.LBE5555:
.LBE5558:
.LBE5563:
.LBE5565:
.LBE5567:
.LBE5569:
.LBE5571:
.LBE5573:
.LBE5575:
	.loc 5 930 0
	mr 3,31
.LBB5576:
.LBB5574:
.LBB5572:
.LBB5570:
.LBB5568:
.LBB5566:
.LBB5564:
.LBB5559:
.LBB5556:
.LBB5553:
	.loc 6 197 0
	stw 0,16(31)
	.loc 6 198 0
	stw 0,4(31)
	.loc 6 199 0
	stw 0,8(31)
.LBE5553:
.LBE5556:
.LBE5559:
.LBE5564:
.LBE5566:
.LBE5568:
.LBE5570:
.LBE5572:
.LBE5574:
.LBE5576:
	.loc 5 930 0
	bl _ZdlPv
	lwz 0,20(1)
	lwz 31,12(1)
.LVL707:
	mtlr 0
	addi 1,1,16
.LCFI192:
	.cfi_def_cfa_offset 0
	.cfi_restore 31
	blr
	.cfi_endproc
.LFE3333:
	.size	_ZN14idCurve_SplineI6idVec3ED0Ev, .-_ZN14idCurve_SplineI6idVec3ED0Ev
	.section	.text._ZN24idCurve_CatmullRomSplineI6idVec3ED0Ev,"axG",@progbits,_ZN24idCurve_CatmullRomSplineI6idVec3ED5Ev,comdat
	.align 2
	.weak	_ZN24idCurve_CatmullRomSplineI6idVec3ED0Ev
	.type	_ZN24idCurve_CatmullRomSplineI6idVec3ED0Ev, @function
_ZN24idCurve_CatmullRomSplineI6idVec3ED0Ev:
.LFB3444:
	.loc 5 1367 0
	.cfi_startproc
.LVL708:
	mflr 0
	stwu 1,-16(1)
.LCFI193:
	.cfi_def_cfa_offset 16
	.cfi_register 65, 0
.LBB5596:
.LBB5597:
.LBB5598:
.LBB5599:
.LBB5600:
.LBB5601:
.LBB5602:
.LBB5603:
.LBB5604:
	.loc 5 105 0
	lis 9,_ZTV7idCurveI6idVec3E+8@ha
.LBE5604:
.LBE5603:
.LBE5602:
.LBE5601:
.LBE5600:
.LBE5599:
.LBE5598:
.LBE5597:
.LBE5596:
	.loc 5 1367 0
	stw 31,12(1)
	mr 31,3
	.cfi_offset 31, -4
.LVL709:
	stw 0,20(1)
.LBB5653:
.LBB5651:
.LBB5649:
.LBB5647:
.LBB5645:
.LBB5643:
.LBB5641:
.LBB5639:
.LBB5637:
	.loc 5 105 0
	la 0,_ZTV7idCurveI6idVec3E+8@l(9)
	.cfi_offset 65, 4
.LBB5605:
.LBB5606:
.LBB5607:
.LBB5608:
	.loc 6 193 0
	lwz 3,32(3)
.LVL710:
.LBE5608:
.LBE5607:
.LBE5606:
.LBE5605:
	.loc 5 105 0
	stw 0,0(31)
.LVL711:
.LBB5618:
.LBB5615:
.LBB5612:
.LBB5609:
	.loc 6 193 0
	cmpwi 7,3,0
	beq- 7,.L371
	.loc 6 194 0
	bl _ZdaPv
.LVL712:
.L371:
.LBE5609:
.LBE5612:
.LBE5615:
.LBE5618:
.LBB5619:
.LBB5620:
.LBB5621:
.LBB5622:
	.loc 6 193 0
	lwz 3,16(31)
.LBE5622:
.LBE5621:
.LBE5620:
.LBE5619:
.LBB5632:
.LBB5616:
.LBB5613:
.LBB5610:
	.loc 6 197 0
	li 0,0
	stw 0,32(31)
.LBE5610:
.LBE5613:
.LBE5616:
.LBE5632:
.LBB5633:
.LBB5629:
.LBB5626:
.LBB5623:
	.loc 6 193 0
	cmpwi 7,3,0
.LBE5623:
.LBE5626:
.LBE5629:
.LBE5633:
.LBB5634:
.LBB5617:
.LBB5614:
.LBB5611:
	.loc 6 198 0
	stw 0,20(31)
	.loc 6 199 0
	stw 0,24(31)
.LVL713:
.LBE5611:
.LBE5614:
.LBE5617:
.LBE5634:
.LBB5635:
.LBB5630:
.LBB5627:
.LBB5624:
	.loc 6 193 0
	beq- 7,.L373
	.loc 6 194 0
	bl _ZdaPv
.L373:
	.loc 6 197 0
	li 0,0
.LBE5624:
.LBE5627:
.LBE5630:
.LBE5635:
.LBE5637:
.LBE5639:
.LBE5641:
.LBE5643:
.LBE5645:
.LBE5647:
.LBE5649:
.LBE5651:
.LBE5653:
	.loc 5 1367 0
	mr 3,31
.LBB5654:
.LBB5652:
.LBB5650:
.LBB5648:
.LBB5646:
.LBB5644:
.LBB5642:
.LBB5640:
.LBB5638:
.LBB5636:
.LBB5631:
.LBB5628:
.LBB5625:
	.loc 6 197 0
	stw 0,16(31)
	.loc 6 198 0
	stw 0,4(31)
	.loc 6 199 0
	stw 0,8(31)
.LBE5625:
.LBE5628:
.LBE5631:
.LBE5636:
.LBE5638:
.LBE5640:
.LBE5642:
.LBE5644:
.LBE5646:
.LBE5648:
.LBE5650:
.LBE5652:
.LBE5654:
	.loc 5 1367 0
	bl _ZdlPv
	lwz 0,20(1)
	lwz 31,12(1)
.LVL714:
	mtlr 0
	addi 1,1,16
.LCFI194:
	.cfi_def_cfa_offset 0
	.cfi_restore 31
	blr
	.cfi_endproc
.LFE3444:
	.size	_ZN24idCurve_CatmullRomSplineI6idVec3ED0Ev, .-_ZN24idCurve_CatmullRomSplineI6idVec3ED0Ev
	.section	.text._ZN25idCurve_NonUniformBSplineI6idVec3ED0Ev,"axG",@progbits,_ZN25idCurve_NonUniformBSplineI6idVec3ED5Ev,comdat
	.align 2
	.weak	_ZN25idCurve_NonUniformBSplineI6idVec3ED0Ev
	.type	_ZN25idCurve_NonUniformBSplineI6idVec3ED0Ev, @function
_ZN25idCurve_NonUniformBSplineI6idVec3ED0Ev:
.LFB3347:
	.loc 5 2144 0
	.cfi_startproc
.LVL715:
	mflr 0
	stwu 1,-16(1)
.LCFI195:
	.cfi_def_cfa_offset 16
	.cfi_register 65, 0
.LBB5677:
.LBB5678:
.LBB5679:
.LBB5680:
.LBB5681:
.LBB5682:
.LBB5683:
.LBB5684:
.LBB5685:
.LBB5686:
.LBB5687:
.LBB5688:
	.loc 5 105 0
	lis 9,_ZTV7idCurveI6idVec3E+8@ha
.LBE5688:
.LBE5687:
.LBE5686:
.LBE5685:
.LBE5684:
.LBE5683:
.LBE5682:
.LBE5681:
.LBE5680:
.LBE5679:
.LBE5678:
.LBE5677:
	.loc 5 2144 0
	stw 31,12(1)
	mr 31,3
	.cfi_offset 31, -4
.LVL716:
	stw 0,20(1)
.LBB5743:
.LBB5741:
.LBB5739:
.LBB5737:
.LBB5735:
.LBB5733:
.LBB5731:
.LBB5729:
.LBB5727:
.LBB5725:
.LBB5723:
.LBB5721:
	.loc 5 105 0
	la 0,_ZTV7idCurveI6idVec3E+8@l(9)
	.cfi_offset 65, 4
.LBB5689:
.LBB5690:
.LBB5691:
.LBB5692:
	.loc 6 193 0
	lwz 3,32(3)
.LVL717:
.LBE5692:
.LBE5691:
.LBE5690:
.LBE5689:
	.loc 5 105 0
	stw 0,0(31)
.LVL718:
.LBB5702:
.LBB5699:
.LBB5696:
.LBB5693:
	.loc 6 193 0
	cmpwi 7,3,0
	beq- 7,.L380
	.loc 6 194 0
	bl _ZdaPv
.LVL719:
.L380:
.LBE5693:
.LBE5696:
.LBE5699:
.LBE5702:
.LBB5703:
.LBB5704:
.LBB5705:
.LBB5706:
	.loc 6 193 0
	lwz 3,16(31)
.LBE5706:
.LBE5705:
.LBE5704:
.LBE5703:
.LBB5716:
.LBB5700:
.LBB5697:
.LBB5694:
	.loc 6 197 0
	li 0,0
	stw 0,32(31)
.LBE5694:
.LBE5697:
.LBE5700:
.LBE5716:
.LBB5717:
.LBB5713:
.LBB5710:
.LBB5707:
	.loc 6 193 0
	cmpwi 7,3,0
.LBE5707:
.LBE5710:
.LBE5713:
.LBE5717:
.LBB5718:
.LBB5701:
.LBB5698:
.LBB5695:
	.loc 6 198 0
	stw 0,20(31)
	.loc 6 199 0
	stw 0,24(31)
.LVL720:
.LBE5695:
.LBE5698:
.LBE5701:
.LBE5718:
.LBB5719:
.LBB5714:
.LBB5711:
.LBB5708:
	.loc 6 193 0
	beq- 7,.L382
	.loc 6 194 0
	bl _ZdaPv
.L382:
	.loc 6 197 0
	li 0,0
.LBE5708:
.LBE5711:
.LBE5714:
.LBE5719:
.LBE5721:
.LBE5723:
.LBE5725:
.LBE5727:
.LBE5729:
.LBE5731:
.LBE5733:
.LBE5735:
.LBE5737:
.LBE5739:
.LBE5741:
.LBE5743:
	.loc 5 2144 0
	mr 3,31
.LBB5744:
.LBB5742:
.LBB5740:
.LBB5738:
.LBB5736:
.LBB5734:
.LBB5732:
.LBB5730:
.LBB5728:
.LBB5726:
.LBB5724:
.LBB5722:
.LBB5720:
.LBB5715:
.LBB5712:
.LBB5709:
	.loc 6 197 0
	stw 0,16(31)
	.loc 6 198 0
	stw 0,4(31)
	.loc 6 199 0
	stw 0,8(31)
.LBE5709:
.LBE5712:
.LBE5715:
.LBE5720:
.LBE5722:
.LBE5724:
.LBE5726:
.LBE5728:
.LBE5730:
.LBE5732:
.LBE5734:
.LBE5736:
.LBE5738:
.LBE5740:
.LBE5742:
.LBE5744:
	.loc 5 2144 0
	bl _ZdlPv
	lwz 0,20(1)
	lwz 31,12(1)
.LVL721:
	mtlr 0
	addi 1,1,16
.LCFI196:
	.cfi_def_cfa_offset 0
	.cfi_restore 31
	blr
	.cfi_endproc
.LFE3347:
	.size	_ZN25idCurve_NonUniformBSplineI6idVec3ED0Ev, .-_ZN25idCurve_NonUniformBSplineI6idVec3ED0Ev
	.section	".text"
	.align 2
	.globl _ZNK8idEntity9CanDamageERK6idVec3RS0_
	.type	_ZNK8idEntity9CanDamageERK6idVec3RS0_, @function
_ZNK8idEntity9CanDamageERK6idVec3RS0_:
.LFB2953:
	.loc 2 2875 0
	.cfi_startproc
.LVL722:
	mflr 0
	stwu 1,-232(1)
.LCFI197:
	.cfi_def_cfa_offset 232
	.cfi_register 65, 0
	stfd 28,200(1)
	stfd 29,208(1)
	stfd 30,216(1)
	stfd 31,224(1)
	stw 26,144(1)
	mr 26,5
	.cfi_offset 26, -88
	.cfi_offset 63, -8
	.cfi_offset 62, -16
	.cfi_offset 61, -24
	.cfi_offset 60, -32
	stw 27,148(1)
.LBB5796:
	.loc 2 2886 0
	lis 27,.LC0@ha
	.cfi_offset 27, -84
.LBE5796:
	.loc 2 2875 0
	stw 28,152(1)
.LBB5893:
.LBB5797:
.LBB5798:
	.loc 3 334 0
	lis 28,gameLocal+2311032@ha
	.cfi_offset 28, -80
.LBE5798:
.LBE5797:
.LBE5893:
	.loc 2 2875 0
	stw 29,156(1)
	mr 29,4
	.cfi_offset 29, -76
	stw 30,160(1)
.LBB5894:
	.loc 2 2882 0
	li 4,-1
.LVL723:
.LBE5894:
	.loc 2 2875 0
	stw 31,164(1)
	mr 31,3
	.cfi_offset 31, -68
	.cfi_offset 30, -72
.LVL724:
	stw 0,236(1)
.LBB5895:
.LBB5808:
.LBB5799:
	.loc 3 334 0
	la 28,gameLocal+2311032@l(28)
.LBE5799:
.LBE5808:
.LBE5895:
	.loc 2 2875 0
	stfd 24,168(1)
	stfd 25,176(1)
	stfd 26,184(1)
	stfd 27,192(1)
	stw 24,136(1)
	stw 25,140(1)
.LBB5896:
.LBB5809:
.LBB5810:
	.loc 2 2522 0
	lwz 3,584(3)
.LVL725:
.LBE5810:
.LBE5809:
	.loc 2 2882 0
	lwz 9,0(3)
	lwz 0,60(9)
	.cfi_offset 25, -92
	.cfi_offset 24, -96
	.cfi_offset 59, -40
	.cfi_offset 58, -48
	.cfi_offset 57, -56
	.cfi_offset 56, -64
	.cfi_offset 65, 4
	mtctr 0
	bctrl
.LVL726:
	li 4,-1
	mr 30,3
.LVL727:
.LBB5811:
.LBB5812:
	.loc 2 2522 0
	lwz 3,584(31)
.LVL728:
.LBE5812:
.LBE5811:
	.loc 2 2882 0
	lwz 9,0(3)
	lwz 0,60(9)
	mtctr 0
	bctrl
.LVL729:
.LBB5813:
.LBB5814:
	.loc 4 452 0
	lfs 28,0(30)
	lfs 29,4(30)
.LBE5814:
.LBE5813:
.LBB5820:
.LBB5821:
	.loc 4 439 0
	lis 9,.LC11@ha
.LBE5821:
.LBE5820:
.LBB5826:
.LBB5815:
	.loc 4 452 0
	lfs 31,8(30)
.LBE5815:
.LBE5826:
.LBB5827:
.LBB5800:
	.loc 3 334 0
	lis 30,mat3_identity@ha
.LVL730:
.LBE5800:
.LBE5827:
.LBB5828:
.LBB5816:
	.loc 4 452 0
	lfs 0,20(3)
.LBE5816:
.LBE5828:
.LBB5829:
.LBB5801:
	.loc 3 334 0
	la 30,mat3_identity@l(30)
.LBE5801:
.LBE5829:
.LBB5830:
.LBB5817:
	.loc 4 452 0
	lfs 12,12(3)
.LBE5817:
.LBE5830:
.LBB5831:
.LBB5802:
	.loc 3 334 0
	addi 4,1,20
.LBE5802:
.LBE5831:
.LBB5832:
.LBB5818:
	.loc 4 452 0
	lfs 13,16(3)
	fadds 31,31,0
.LVL731:
	fadds 28,28,12
.LVL732:
.LBE5818:
.LBE5832:
.LBB5833:
.LBB5822:
	.loc 4 439 0
	lfs 0,.LC11@l(9)
.LBE5822:
.LBE5833:
.LBB5834:
.LBB5819:
	.loc 4 452 0
	fadds 29,29,13
.LVL733:
.LBE5819:
.LBE5834:
.LBB5835:
.LBB5803:
	.loc 3 334 0
	mr 3,28
.LVL734:
.LBE5803:
.LBE5835:
.LBB5836:
.LBB5823:
	.loc 4 439 0
	fmuls 31,31,0
.LVL735:
.LBE5823:
.LBE5836:
.LBB5837:
.LBB5804:
	.loc 3 334 0
	mr 5,29
.LBE5804:
.LBE5837:
.LBB5838:
.LBB5824:
	.loc 4 439 0
	fmuls 28,28,0
.LVL736:
.LBE5824:
.LBE5838:
.LBB5839:
.LBB5805:
	.loc 3 334 0
	addi 6,1,8
.LBE5805:
.LBE5839:
.LBB5840:
.LBB5825:
	.loc 4 439 0
	fmuls 29,29,0
.LVL737:
.LBE5825:
.LBE5840:
.LBB5841:
.LBB5806:
	.loc 3 334 0
	li 7,0
	mr 8,30
	li 9,1
	li 10,0
.LBE5806:
.LBE5841:
.LBB5842:
.LBB5843:
	.loc 4 424 0
	stfs 28,8(1)
	.loc 4 425 0
	stfs 29,12(1)
	.loc 4 426 0
	stfs 31,16(1)
.LVL738:
.LBE5843:
.LBE5842:
.LBB5844:
.LBB5807:
	.loc 3 334 0
	bl _ZN6idClip11TranslationER7trace_sRK6idVec3S4_PK11idClipModelRK6idMat3iPK8idEntity
.LVL739:
.LBE5807:
.LBE5844:
	.loc 2 2886 0
	lfs 30,.LC0@l(27)
	lfs 0,20(1)
	fcmpu 7,0,30
	bne- 7,.L417
.LVL740:
.L408:
.LBB5845:
.LBB5846:
	.loc 4 424 0 discriminator 4
	lwz 0,24(1)
.LBE5846:
.LBE5845:
	.loc 2 2941 0 discriminator 4
	li 3,1
.LBB5848:
.LBB5847:
	.loc 4 424 0 discriminator 4
	stw 0,0(26)
	.loc 4 425 0 discriminator 4
	lwz 0,28(1)
	stw 0,4(26)
	.loc 4 426 0 discriminator 4
	lwz 0,32(1)
	stw 0,8(26)
.LVL741:
.L392:
.LBE5847:
.LBE5848:
.LBE5896:
	.loc 2 2945 0
	lwz 0,236(1)
	lwz 24,136(1)
	mtlr 0
	lwz 25,140(1)
	lwz 26,144(1)
.LVL742:
	lwz 27,148(1)
	lwz 28,152(1)
	lwz 29,156(1)
.LVL743:
	lwz 30,160(1)
	lwz 31,164(1)
.LVL744:
	lfd 24,168(1)
	lfd 25,176(1)
	lfd 26,184(1)
	lfd 27,192(1)
	lfd 28,200(1)
.LVL745:
	lfd 29,208(1)
.LVL746:
	lfd 30,216(1)
	lfd 31,224(1)
	addi 1,1,232
	.cfi_remember_state
.LCFI198:
	.cfi_def_cfa_offset 0
	.cfi_restore 63
	.cfi_restore 62
	.cfi_restore 61
	.cfi_restore 60
	.cfi_restore 59
	.cfi_restore 58
	.cfi_restore 57
	.cfi_restore 56
	.cfi_restore 31
	.cfi_restore 30
	.cfi_restore 29
	.cfi_restore 28
	.cfi_restore 27
	.cfi_restore 26
	.cfi_restore 25
	.cfi_restore 24
	blr
.LVL747:
.L417:
.LCFI199:
	.cfi_restore_state
.LBB5897:
	.loc 2 2886 0 discriminator 2
	lis 25,gameLocal@ha
	addi 4,1,20
.LVL748:
	la 25,gameLocal@l(25)
	mr 3,25
	bl _ZNK11idGameLocal14GetTraceEntityERK7trace_s
.LVL749:
	cmpw 7,31,3
	beq- 7,.L408
.LVL750:
	.loc 2 2893 0
	lis 24,.LC128@ha
.LBB5849:
.LBB5850:
	.loc 3 334 0
	mr 3,28
.LBE5850:
.LBE5849:
	.loc 2 2893 0
	lfs 27,.LC128@l(24)
.LBB5855:
.LBB5851:
	.loc 3 334 0
	addi 4,1,20
.LVL751:
	mr 5,29
	addi 6,1,8
.LVL752:
.LBE5851:
.LBE5855:
	.loc 2 2893 0
	fadds 26,28,27
.LBB5856:
.LBB5852:
	.loc 3 334 0
	li 7,0
.LBE5852:
.LBE5856:
	.loc 2 2894 0
	fadds 25,29,27
.LBB5857:
.LBB5853:
	.loc 3 334 0
	mr 8,30
	li 9,1
	li 10,0
.LBE5853:
.LBE5857:
.LBB5858:
.LBB5859:
	.loc 4 426 0
	stfs 31,16(1)
.LVL753:
.LBE5859:
.LBE5858:
	.loc 2 2893 0
	stfs 26,8(1)
.LVL754:
	.loc 2 2894 0
	stfs 25,12(1)
.LVL755:
.LBB5860:
.LBB5854:
	.loc 3 334 0
	bl _ZN6idClip11TranslationER7trace_sRK6idVec3S4_PK11idClipModelRK6idMat3iPK8idEntity
.LVL756:
.LBE5854:
.LBE5860:
	.loc 2 2896 0
	lfs 0,20(1)
	fcmpu 7,0,30
	beq+ 7,.L408
	.loc 2 2896 0 is_stmt 0 discriminator 2
	mr 3,25
	addi 4,1,20
.LVL757:
	bl _ZNK11idGameLocal14GetTraceEntityERK7trace_s
.LVL758:
	cmpw 7,31,3
	beq- 7,.L408
.LVL759:
	.loc 2 2903 0 is_stmt 1
	fsubs 24,29,27
.LBB5861:
.LBB5862:
	.loc 3 334 0
	mr 3,28
	addi 4,1,20
.LVL760:
	mr 5,29
	addi 6,1,8
.LVL761:
	li 7,0
	mr 8,30
	li 9,1
	li 10,0
.LBE5862:
.LBE5861:
.LBB5864:
.LBB5865:
	.loc 4 426 0
	stfs 31,16(1)
.LVL762:
.LBE5865:
.LBE5864:
	.loc 2 2902 0
	stfs 26,8(1)
.LVL763:
	.loc 2 2903 0
	stfs 24,12(1)
.LVL764:
.LBB5866:
.LBB5863:
	.loc 3 334 0
	bl _ZN6idClip11TranslationER7trace_sRK6idVec3S4_PK11idClipModelRK6idMat3iPK8idEntity
.LVL765:
.LBE5863:
.LBE5866:
	.loc 2 2905 0
	lfs 0,20(1)
	fcmpu 7,0,30
	beq+ 7,.L408
	.loc 2 2905 0 is_stmt 0 discriminator 2
	mr 3,25
	addi 4,1,20
.LVL766:
	bl _ZNK11idGameLocal14GetTraceEntityERK7trace_s
.LVL767:
	cmpw 7,31,3
	beq- 7,.L408
.LVL768:
	.loc 2 2911 0 is_stmt 1
	fsubs 27,28,27
.LBB5867:
.LBB5868:
	.loc 3 334 0
	mr 3,28
	addi 4,1,20
.LVL769:
	mr 5,29
	addi 6,1,8
.LVL770:
	li 7,0
	mr 8,30
	li 9,1
	li 10,0
.LBE5868:
.LBE5867:
.LBB5870:
.LBB5871:
	.loc 4 426 0
	stfs 31,16(1)
.LVL771:
.LBE5871:
.LBE5870:
	.loc 2 2911 0
	stfs 27,8(1)
.LVL772:
	.loc 2 2912 0
	stfs 25,12(1)
.LVL773:
.LBB5872:
.LBB5869:
	.loc 3 334 0
	bl _ZN6idClip11TranslationER7trace_sRK6idVec3S4_PK11idClipModelRK6idMat3iPK8idEntity
.LVL774:
.LBE5869:
.LBE5872:
	.loc 2 2914 0
	lfs 0,20(1)
	fcmpu 7,0,30
	beq+ 7,.L408
	.loc 2 2914 0 is_stmt 0 discriminator 2
	mr 3,25
	addi 4,1,20
.LVL775:
	bl _ZNK11idGameLocal14GetTraceEntityERK7trace_s
.LVL776:
	cmpw 7,31,3
	beq- 7,.L408
.LVL777:
.LBB5873:
.LBB5874:
	.loc 3 334 0 is_stmt 1
	mr 3,28
	addi 4,1,20
.LVL778:
	mr 5,29
	addi 6,1,8
.LVL779:
	li 7,0
	mr 8,30
	li 9,1
	li 10,0
.LBE5874:
.LBE5873:
.LBB5876:
.LBB5877:
	.loc 4 426 0
	stfs 31,16(1)
.LVL780:
.LBE5877:
.LBE5876:
	.loc 2 2920 0
	stfs 27,8(1)
.LVL781:
	.loc 2 2921 0
	stfs 24,12(1)
.LVL782:
.LBB5878:
.LBB5875:
	.loc 3 334 0
	bl _ZN6idClip11TranslationER7trace_sRK6idVec3S4_PK11idClipModelRK6idMat3iPK8idEntity
.LVL783:
.LBE5875:
.LBE5878:
	.loc 2 2923 0
	lfs 0,20(1)
	fcmpu 7,0,30
	beq+ 7,.L408
	.loc 2 2923 0 is_stmt 0 discriminator 2
	mr 3,25
	addi 4,1,20
.LVL784:
	bl _ZNK11idGameLocal14GetTraceEntityERK7trace_s
.LVL785:
	cmpw 7,31,3
	beq- 7,.L408
.LVL786:
	.loc 2 2929 0 is_stmt 1
	lfs 27,.LC128@l(24)
.LBB5879:
.LBB5880:
	.loc 3 334 0
	mr 3,28
	addi 4,1,20
.LVL787:
	mr 5,29
.LBE5880:
.LBE5879:
	.loc 2 2929 0
	fadds 0,31,27
.LBB5883:
.LBB5881:
	.loc 3 334 0
	addi 6,1,8
.LVL788:
	li 7,0
	mr 8,30
	li 9,1
	li 10,0
.LBE5881:
.LBE5883:
	.loc 2 2929 0
	stfs 0,16(1)
.LBB5884:
.LBB5885:
	.loc 4 424 0
	stfs 28,8(1)
	.loc 4 425 0
	stfs 29,12(1)
.LVL789:
.LBE5885:
.LBE5884:
.LBB5886:
.LBB5882:
	.loc 3 334 0
	bl _ZN6idClip11TranslationER7trace_sRK6idVec3S4_PK11idClipModelRK6idMat3iPK8idEntity
.LVL790:
.LBE5882:
.LBE5886:
	.loc 2 2931 0
	lfs 30,.LC0@l(27)
	lfs 0,20(1)
	fcmpu 7,0,30
	beq+ 7,.L408
	.loc 2 2931 0 is_stmt 0 discriminator 2
	mr 3,25
	addi 4,1,20
.LVL791:
	bl _ZNK11idGameLocal14GetTraceEntityERK7trace_s
.LVL792:
	cmpw 7,31,3
	beq- 7,.L408
.LVL793:
	.loc 2 2937 0 is_stmt 1
	fsubs 31,31,27
.LVL794:
.LBB5887:
.LBB5888:
	.loc 3 334 0
	mr 3,28
	addi 4,1,20
.LVL795:
	mr 5,29
	addi 6,1,8
.LVL796:
	li 7,0
	mr 8,30
	li 9,1
	li 10,0
.LBE5888:
.LBE5887:
.LBB5890:
.LBB5891:
	.loc 4 424 0
	stfs 28,8(1)
	.loc 4 425 0
	stfs 29,12(1)
.LVL797:
.LBE5891:
.LBE5890:
	.loc 2 2937 0
	stfs 31,16(1)
.LVL798:
.LBB5892:
.LBB5889:
	.loc 3 334 0
	bl _ZN6idClip11TranslationER7trace_sRK6idVec3S4_PK11idClipModelRK6idMat3iPK8idEntity
.LVL799:
.LBE5889:
.LBE5892:
	.loc 2 2939 0
	lfs 0,20(1)
	fcmpu 7,0,30
	beq+ 7,.L408
	.loc 2 2939 0 is_stmt 0 discriminator 2
	mr 3,25
	addi 4,1,20
.LVL800:
	bl _ZNK11idGameLocal14GetTraceEntityERK7trace_s
.LVL801:
	cmpw 7,31,3
	.loc 2 2944 0 is_stmt 1 discriminator 2
	li 3,0
	.loc 2 2939 0 discriminator 2
	bne+ 7,.L392
	b .L408
.LBE5897:
	.cfi_endproc
.LFE2953:
	.size	_ZNK8idEntity9CanDamageERK6idVec3RS0_, .-_ZNK8idEntity9CanDamageERK6idVec3RS0_
	.section	.text._ZNK7idCurveI6idVec3E15GetCurrentValueEf,"axG",@progbits,_ZNK7idCurveI6idVec3E15GetCurrentValueEf,comdat
	.align 2
	.weak	_ZNK7idCurveI6idVec3E15GetCurrentValueEf
	.type	_ZNK7idCurveI6idVec3E15GetCurrentValueEf, @function
_ZNK7idCurveI6idVec3E15GetCurrentValueEf:
.LFB3470:
	.loc 5 134 0
	.cfi_startproc
.LVL802:
.LBB5946:
.LBB5947:
.LBB5948:
	.loc 5 391 0
	lwz 9,36(4)
.LBE5948:
	.loc 2 5400 0
	lwz 11,4(4)
.LBB5955:
	.loc 5 391 0
	cmpwi 7,9,0
.LVL803:
	blt- 7,.L420
.LVL804:
	cmpw 6,9,11
	ble- 6,.L446
.LVL805:
.L420:
	.loc 5 415 0
	cmpwi 7,11,0
	ble- 7,.L439
	.loc 5 416 0
	srawi 0,11,1
.LVL806:
.LBE5955:
	.loc 2 5400 0
	lwz 6,16(4)
.LVL807:
.LBB5956:
	.loc 5 417 0
	slwi 9,0,2
	li 8,0
	lfsx 0,6,9
	mr 9,0
	fcmpu 7,1,0
	bne+ 7,.L431
	b .L422
.LVL808:
.L448:
	.loc 5 415 0
	cmpwi 7,0,0
	.loc 5 421 0
	mr 8,9
.LVL809:
	.loc 5 416 0
	srawi 0,11,1
.LVL810:
	.loc 5 417 0
	add 9,0,8
.LVL811:
	slwi 10,9,2
	.loc 5 415 0
	ble- 7,.L447
.L435:
.LVL812:
	.loc 5 417 0
	lfsx 0,6,10
	fcmpu 7,1,0
	beq- 7,.L422
.LVL813:
.L431:
	.loc 5 419 0
	fcmpu 7,1,0
	.loc 5 421 0
	subf 11,0,11
.LVL814:
	.loc 5 422 0
	li 7,1
	.loc 5 419 0
	bgt- 7,.L448
.LVL815:
	.loc 5 415 0
	cmpwi 7,0,0
	.loc 5 416 0
	srawi 0,11,1
.LVL816:
	.loc 5 417 0
	add 9,0,8
.LVL817:
	.loc 5 425 0
	li 7,0
.LVL818:
	.loc 5 417 0
	slwi 10,9,2
	.loc 5 415 0
	bgt+ 7,.L435
.L447:
	add 9,8,7
.LVL819:
.L429:
	.loc 5 428 0
	stw 9,36(4)
.L422:
	.loc 2 5400 0
	lwz 11,20(4)
.LBE5956:
.LBE5947:
	.loc 5 138 0
	cmpw 7,11,9
	ble- 7,.L449
	.loc 5 141 0
	mulli 9,9,12
	lwz 10,32(4)
	add 11,10,9
	lwzx 10,10,9
	lwz 0,8(11)
	lwz 9,4(11)
	stw 10,0(3)
	stw 9,4(3)
	stw 0,8(3)
	blr
.L446:
.LBB5960:
.LBB5957:
	.loc 5 393 0
	bne- 7,.L421
.LVL820:
	.loc 5 394 0
	lwz 10,16(4)
	lfs 0,0(10)
	fcmpu 7,1,0
	cror 30,28,30
	bne+ 7,.L420
	b .L422
.LVL821:
.L421:
	.loc 5 397 0
	beq- 6,.L450
.LBE5957:
	.loc 2 5400 0
	lwz 10,16(4)
.LVL822:
.LBB5958:
.LBB5949:
.LBB5950:
	.loc 6 573 0
	addi 0,9,-1
.LBE5950:
.LBE5949:
	.loc 5 401 0
	slwi 0,0,2
	lfsx 0,10,0
.LBB5951:
.LBB5952:
	.loc 6 573 0
	slwi 0,9,2
.LBE5952:
.LBE5951:
	.loc 5 401 0
	fcmpu 7,1,0
	bng- 7,.L426
.LVL823:
	lfsx 0,10,0
	fcmpu 7,1,0
	cror 30,28,30
	beq- 7,.L422
.LVL824:
.L426:
	.loc 5 403 0
	lfsx 0,10,0
	fcmpu 7,1,0
	bng- 7,.L420
	addi 9,9,1
	cmpw 7,11,9
	beq- 7,.L429
.LVL825:
	slwi 0,9,2
	lfsx 0,10,0
	fcmpu 7,1,0
	cror 30,28,30
	bne- 7,.L420
	.loc 5 428 0
	stw 9,36(4)
	b .L422
.LVL826:
.L449:
.LBE5958:
.LBE5960:
.LBE5946:
.LBB5962:
.LBB5963:
.LBB5964:
.LBB5965:
.LBB5966:
	.loc 6 573 0
	addi 11,11,-1
.LVL827:
.LBE5966:
.LBE5965:
	.loc 5 139 0
	lwz 10,32(4)
	mulli 11,11,12
	add 9,10,11
	lwzx 10,10,11
	lwz 0,8(9)
	lwz 11,4(9)
	stw 10,0(3)
	stw 11,4(3)
	stw 0,8(3)
	blr
.LVL828:
.L450:
.LBE5964:
.LBE5963:
.LBE5962:
.LBB5967:
.LBB5961:
.LBB5959:
.LBB5953:
.LBB5954:
	.loc 6 573 0
	addi 0,9,-1
.LBE5954:
.LBE5953:
	.loc 5 398 0
	lwz 10,16(4)
	slwi 0,0,2
	lfsx 0,10,0
	fcmpu 7,1,0
	bng+ 7,.L420
	b .L422
.LVL829:
.L439:
	.loc 5 415 0
	li 9,0
	.loc 5 428 0
	stw 9,36(4)
	b .L422
.LBE5959:
.LBE5961:
.LBE5967:
	.cfi_endproc
.LFE3470:
	.size	_ZNK7idCurveI6idVec3E15GetCurrentValueEf, .-_ZNK7idCurveI6idVec3E15GetCurrentValueEf
	.section	".text"
	.align 2
	.globl _Z14UpdateGuiParmsP15idUserInterfacePK6idDict
	.type	_Z14UpdateGuiParmsP15idUserInterfacePK6idDict, @function
_Z14UpdateGuiParmsP15idUserInterfacePK6idDict:
.LFB2812:
	.loc 2 180 0
	.cfi_startproc
.LVL830:
	stwu 1,-24(1)
.LCFI200:
	.cfi_def_cfa_offset 24
	mflr 0
	stw 30,16(1)
.LBB5977:
	.loc 2 181 0
	mr. 30,3
	.cfi_offset 30, -8
	.cfi_register 65, 0
.LBE5977:
	.loc 2 180 0
	stw 29,12(1)
	mr 29,4
	.cfi_offset 29, -12
	stw 0,28(1)
	stw 28,8(1)
	stw 31,20(1)
.LBB5997:
	.loc 2 181 0
	beq- 0,.L451
	.cfi_offset 31, -4
	.cfi_offset 28, -16
	.cfi_offset 65, 4
	.loc 2 181 0 is_stmt 0 discriminator 1
	cmpwi 7,4,0
	beq- 7,.L451
	.loc 2 184 0 is_stmt 1
	lis 28,.LC129@ha
	mr 3,4
.LVL831:
	la 28,.LC129@l(28)
	li 5,0
	mr 4,28
.LVL832:
	bl _ZNK6idDict11MatchPrefixEPKcPK10idKeyValue
.LVL833:
	.loc 2 185 0
	mr. 31,3
	beq- 0,.L453
.L457:
.LVL834:
	.loc 2 186 0
	lwz 10,0(30)
	mr 3,30
.LVL835:
.LBB5978:
	.loc 2 5400 0
	lwz 11,0(31)
.LBE5978:
.LBB5979:
	lwz 9,4(31)
.LBE5979:
	.loc 2 186 0
	lwz 0,56(10)
	lwz 4,4(11)
	lwz 5,4(9)
	mtctr 0
	bctrl
.LVL836:
	.loc 2 187 0
	mr 5,31
	mr 3,29
	mr 4,28
	bl _ZNK6idDict11MatchPrefixEPKcPK10idKeyValue
.LVL837:
	.loc 2 185 0
	mr. 31,3
	bne+ 0,.L457
.L453:
	.loc 2 189 0
	lwz 9,0(30)
.LBB5980:
.LBB5981:
.LBB5982:
.LBB5983:
	.loc 12 241 0
	lis 4,.LC130@ha
	mr 3,29
.LVL838:
	la 4,.LC130@l(4)
.LBE5983:
.LBE5982:
.LBE5981:
.LBE5980:
	.loc 2 189 0
	lwz 31,60(9)
.LVL839:
.LBB5993:
.LBB5989:
.LBB5987:
.LBB5985:
	.loc 12 241 0
	bl _ZNK6idDict7FindKeyEPKc
.LVL840:
	.loc 12 242 0
	cmpwi 0,3,0
	beq- 0,.L456
.LVL841:
.LBB5984:
	.loc 2 5400 0
	lwz 9,4(3)
	lwz 3,4(9)
.LVL842:
.L455:
.LBE5984:
.LBE5985:
.LBE5987:
	.loc 12 257 0
	bl atoi
.LBE5989:
.LBE5993:
	.loc 2 189 0
	lis 4,.LC131@ha
.LBB5994:
.LBB5990:
	.loc 12 257 0
	cntlzw 5,3
.LBE5990:
.LBE5994:
	.loc 2 189 0
	la 4,.LC131@l(4)
.LBB5995:
.LBB5991:
	.loc 12 257 0
	srwi 5,5,5
.LBE5991:
.LBE5995:
	.loc 2 189 0
	mr 3,30
	xori 5,5,1
	mtctr 31
	bctrl
	.loc 2 190 0
	lwz 9,0(30)
	mr 3,30
	li 5,0
	lwz 0,88(9)
	lis 9,gameLocal+2426836@ha
	lwz 4,gameLocal+2426836@l(9)
	mtctr 0
	bctrl
.LVL843:
.L451:
.LBE5997:
	.loc 2 191 0
	lwz 0,28(1)
	lwz 28,8(1)
	mtlr 0
	lwz 29,12(1)
.LVL844:
	lwz 30,16(1)
.LVL845:
	lwz 31,20(1)
	addi 1,1,24
	.cfi_remember_state
.LCFI201:
	.cfi_def_cfa_offset 0
	.cfi_restore 31
	.cfi_restore 30
	.cfi_restore 29
	.cfi_restore 28
	blr
.LVL846:
.L456:
.LCFI202:
	.cfi_restore_state
.LBB5998:
.LBB5996:
.LBB5992:
.LBB5988:
.LBB5986:
	.loc 12 245 0
	lis 3,.LC17@ha
.LVL847:
	la 3,.LC17@l(3)
	b .L455
.LBE5986:
.LBE5988:
.LBE5992:
.LBE5996:
.LBE5998:
	.cfi_endproc
.LFE2812:
	.size	_Z14UpdateGuiParmsP15idUserInterfacePK6idDict, .-_Z14UpdateGuiParmsP15idUserInterfacePK6idDict
	.align 2
	.globl _ZN8idEntity25UpdateChangeableSpawnArgsEPK6idDict
	.type	_ZN8idEntity25UpdateChangeableSpawnArgsEPK6idDict, @function
_ZN8idEntity25UpdateChangeableSpawnArgsEPK6idDict:
.LFB2816:
	.loc 2 361 0
	.cfi_startproc
.LVL848:
	stwu 1,-16(1)
.LCFI203:
	.cfi_def_cfa_offset 16
	mflr 0
	stw 30,8(1)
.LBB6004:
	.loc 2 365 0
	mr. 30,4
	.cfi_offset 30, -8
	.cfi_register 65, 0
.LBE6004:
	.loc 2 361 0
	stw 31,12(1)
	mr 31,3
	.cfi_offset 31, -4
	stw 0,20(1)
.LBB6012:
	.loc 2 365 0
	beq- 0,.L464
	.cfi_offset 65, 4
	.loc 2 368 0
	li 0,0
.LBB6005:
.LBB6006:
	.loc 12 241 0
	lis 4,.LC132@ha
.LVL849:
.LBE6006:
.LBE6005:
	.loc 2 368 0
	stw 0,168(31)
.LVL850:
.LBB6010:
.LBB6008:
	.loc 12 241 0
	mr 3,30
.LVL851:
	la 4,.LC132@l(4)
	bl _ZNK6idDict7FindKeyEPKc
.LVL852:
	.loc 12 242 0
	cmpwi 0,3,0
	beq- 0,.L463
.L466:
.LVL853:
.LBB6007:
	.loc 2 5400 0
	lwz 9,4(3)
	lwz 9,4(9)
.LBE6007:
.LBE6008:
.LBE6010:
	.loc 2 370 0
	cmpwi 7,9,0
	beq- 7,.L462
.LVL854:
.L461:
	.loc 2 370 0 is_stmt 0 discriminator 1
	lbz 0,0(9)
	cmpwi 7,0,0
	bne- 7,.L465
.L462:
.LVL855:
	.loc 2 376 0 is_stmt 1 discriminator 1
	lwz 3,368(31)
.LVL856:
	mr 4,30
	bl _Z14UpdateGuiParmsP15idUserInterfacePK6idDict
.LVL857:
	lwz 3,372(31)
	mr 4,30
	bl _Z14UpdateGuiParmsP15idUserInterfacePK6idDict
.LVL858:
.LBE6012:
	.loc 2 378 0 discriminator 1
	lwz 0,20(1)
.LBB6013:
	.loc 2 376 0 discriminator 1
	lwz 3,376(31)
	mr 4,30
.LBE6013:
	.loc 2 378 0 discriminator 1
	lwz 31,12(1)
.LVL859:
	mtlr 0
	lwz 30,8(1)
.LVL860:
	addi 1,1,16
	.cfi_remember_state
.LCFI204:
	.cfi_def_cfa_offset 0
	.cfi_restore 31
	.cfi_restore 30
.LBB6014:
	.loc 2 376 0 discriminator 1
	b _Z14UpdateGuiParmsP15idUserInterfacePK6idDict
.LVL861:
.L465:
.LCFI205:
	.cfi_restore_state
	.loc 2 372 0
	lis 4,.LANCHOR0@ha
	li 5,0
	la 4,.LANCHOR0@l(4)
	mr 3,31
.LVL862:
	addi 4,4,3896
	bl _ZN7idClass11PostEventMSEPK10idEventDefi
.LVL863:
	.loc 2 376 0
	lwz 3,368(31)
	mr 4,30
	bl _Z14UpdateGuiParmsP15idUserInterfacePK6idDict
.LVL864:
	lwz 3,372(31)
	mr 4,30
	bl _Z14UpdateGuiParmsP15idUserInterfacePK6idDict
.LVL865:
.LBE6014:
	.loc 2 378 0
	lwz 0,20(1)
.LBB6015:
	.loc 2 376 0
	lwz 3,376(31)
	mr 4,30
.LBE6015:
	.loc 2 378 0
	lwz 31,12(1)
.LVL866:
	mtlr 0
	lwz 30,8(1)
.LVL867:
	addi 1,1,16
	.cfi_remember_state
	.cfi_restore 30
	.cfi_restore 31
.LCFI206:
	.cfi_def_cfa_offset 0
.LBB6016:
	.loc 2 376 0
	b _Z14UpdateGuiParmsP15idUserInterfacePK6idDict
.LVL868:
.L464:
.LCFI207:
	.cfi_restore_state
	.loc 2 368 0
	li 0,0
	.loc 2 366 0
	addi 30,3,100
.LVL869:
	.loc 2 368 0
	stw 0,168(31)
.LVL870:
.LBB6011:
.LBB6009:
	.loc 12 241 0
	lis 4,.LC132@ha
	mr 3,30
.LVL871:
	la 4,.LC132@l(4)
	bl _ZNK6idDict7FindKeyEPKc
.LVL872:
	.loc 12 242 0
	cmpwi 0,3,0
	bne+ 0,.L466
.L463:
	.loc 12 245 0
	lis 9,.LC18@ha
	la 9,.LC18@l(9)
	b .L461
.LBE6009:
.LBE6011:
.LBE6016:
	.cfi_endproc
.LFE2816:
	.size	_ZN8idEntity25UpdateChangeableSpawnArgsEPK6idDict, .-_ZN8idEntity25UpdateChangeableSpawnArgsEPK6idDict
	.align 2
	.globl _Z12AddRenderGuiPKcPP15idUserInterfacePK6idDict
	.type	_Z12AddRenderGuiPKcPP15idUserInterfacePK6idDict, @function
_Z12AddRenderGuiPKcPP15idUserInterfacePK6idDict:
.LFB2813:
	.loc 2 198 0
	.cfi_startproc
.LVL873:
	stwu 1,-24(1)
.LCFI208:
	.cfi_def_cfa_offset 24
	mflr 0
	stw 30,16(1)
	mr 30,4
	.cfi_offset 30, -8
	.cfi_register 65, 0
	stw 31,20(1)
.LBB6017:
	.loc 2 199 0
	lis 4,.LC129@ha
.LVL874:
.LBE6017:
	.loc 2 198 0
	mr 31,5
	.cfi_offset 31, -4
	stw 29,12(1)
.LBB6018:
	.loc 2 199 0
	li 5,0
.LVL875:
.LBE6018:
	.loc 2 198 0
	mr 29,3
	.cfi_offset 29, -12
.LBB6019:
	.loc 2 199 0
	la 4,.LC129@l(4)
	mr 3,31
.LVL876:
.LBE6019:
	.loc 2 198 0
	stw 0,28(1)
.LBB6020:
	.loc 2 199 0
	.cfi_offset 65, 4
	bl _ZNK6idDict11MatchPrefixEPKcPK10idKeyValue
.LVL877:
	.loc 2 200 0
	lis 9,uiManager@ha
	cntlzw 6,3
	lwz 9,uiManager@l(9)
	srwi 6,6,5
	mr 4,29
	li 5,1
	lwz 11,0(9)
	mr 3,9
.LVL878:
	xori 6,6,1
	li 7,0
	lwz 0,60(11)
	mtctr 0
	bctrl
	.loc 2 201 0
	mr 4,31
	.loc 2 200 0
	stw 3,0(30)
.LBE6020:
	.loc 2 202 0
	lwz 0,28(1)
	lwz 29,12(1)
.LVL879:
	lwz 30,16(1)
.LVL880:
	mtlr 0
	lwz 31,20(1)
.LVL881:
	addi 1,1,24
.LCFI209:
	.cfi_def_cfa_offset 0
	.cfi_restore 31
	.cfi_restore 30
	.cfi_restore 29
.LBB6021:
	.loc 2 201 0
	b _Z14UpdateGuiParmsP15idUserInterfacePK6idDict
.LVL882:
.LBE6021:
	.cfi_endproc
.LFE2813:
	.size	_Z12AddRenderGuiPKcPP15idUserInterfacePK6idDict, .-_Z12AddRenderGuiPKcPP15idUserInterfacePK6idDict
	.align 2
	.globl _ZN10idGameEdit28ParseSpawnArgsToRenderEntityEPK6idDictP14renderEntity_s
	.type	_ZN10idGameEdit28ParseSpawnArgsToRenderEntityEPK6idDictP14renderEntity_s, @function
_ZN10idGameEdit28ParseSpawnArgsToRenderEntityEPK6idDictP14renderEntity_s:
.LFB2814:
	.loc 2 213 0
	.cfi_startproc
.LVL883:
	stwu 1,-128(1)
.LCFI210:
	.cfi_def_cfa_offset 128
	mflr 0
	stw 31,124(1)
	mr 31,5
	.cfi_offset 31, -4
	.cfi_register 65, 0
	stw 30,120(1)
.LBB6134:
	.loc 2 220 0
	li 5,216
.LVL884:
.LBE6134:
	.loc 2 213 0
	mr 30,4
	.cfi_offset 30, -8
.LBB6582:
	.loc 2 220 0
	mr 3,31
.LVL885:
	li 4,0
.LVL886:
.LBE6582:
	.loc 2 213 0
	stw 0,132(1)
	stw 26,104(1)
	stw 27,108(1)
	stw 28,112(1)
	stw 29,116(1)
.LBB6583:
	.loc 2 220 0
	.cfi_offset 29, -12
	.cfi_offset 28, -16
	.cfi_offset 27, -20
	.cfi_offset 26, -24
	.cfi_offset 65, 4
	bl memset
.LVL887:
.LBB6135:
.LBB6136:
	.loc 12 241 0
	lis 4,.LC135@ha
	mr 3,30
	la 4,.LC135@l(4)
	bl _ZNK6idDict7FindKeyEPKc
.LVL888:
	.loc 12 242 0
	cmpwi 0,3,0
	beq- 0,.L503
.LVL889:
.LBB6137:
	.loc 2 5400 0
	lwz 9,4(3)
	lwz 29,4(9)
.LVL890:
.L469:
.LBE6137:
.LBE6136:
.LBE6135:
	.loc 2 225 0
	lbz 0,0(29)
	cmpwi 7,0,0
	bne- 7,.L470
	lwz 4,0(31)
	.loc 2 224 0
	li 28,0
.LVL891:
.L471:
	.loc 2 234 0
	cmpwi 7,4,0
	beq- 7,.L475
.L474:
	.loc 2 235 0
	lwz 9,0(4)
	addi 3,1,32
	mr 5,31
	lwz 0,128(9)
	mtctr 0
	bctrl
.LVL892:
.LBB6139:
.LBB6140:
.LBB6141:
	.loc 4 424 0
	lwz 0,32(1)
.LBE6141:
.LBE6140:
.LBE6139:
.LBB6146:
.LBB6147:
	.loc 12 241 0
	lis 4,.LC136@ha
	mr 3,30
.LBE6147:
.LBE6146:
.LBB6155:
.LBB6144:
.LBB6142:
	.loc 4 424 0
	stw 0,12(31)
.LBE6142:
.LBE6144:
.LBE6155:
.LBB6156:
.LBB6149:
	.loc 12 241 0
	la 4,.LC136@l(4)
.LBE6149:
.LBE6156:
.LBB6157:
.LBB6145:
.LBB6143:
	.loc 4 425 0
	lwz 0,36(1)
	stw 0,16(31)
	.loc 4 426 0
	lwz 0,40(1)
	stw 0,20(31)
.LVL893:
	.loc 4 424 0
	lwz 0,44(1)
	stw 0,24(31)
	.loc 4 425 0
	lwz 0,48(1)
	stw 0,28(31)
	.loc 4 426 0
	lwz 0,52(1)
	stw 0,32(31)
.LBE6143:
.LBE6145:
.LBE6157:
.LBB6158:
.LBB6150:
	.loc 12 241 0
	bl _ZNK6idDict7FindKeyEPKc
.LVL894:
	.loc 12 242 0
	cmpwi 0,3,0
	beq- 0,.L504
.LVL895:
.L528:
.LBB6148:
	.loc 2 5400 0
	lwz 9,4(3)
	lwz 4,4(9)
.LBE6148:
.LBE6150:
.LBE6158:
	.loc 2 241 0
	lbz 0,0(4)
	cmpwi 7,0,0
	bne- 7,.L522
.LVL896:
.L478:
	.loc 2 243 0
	cmpwi 7,28,0
	beq- 7,.L479
	.loc 2 244 0
	mr 3,28
.LVL897:
	bl _ZNK14idDeclModelDef14GetDefaultSkinEv
	stw 3,116(31)
.L479:
.LVL898:
.LBB6159:
.LBB6160:
	.loc 12 241 0
	lis 4,.LC137@ha
	mr 3,30
	la 4,.LC137@l(4)
	bl _ZNK6idDict7FindKeyEPKc
.LVL899:
	.loc 12 242 0
	cmpwi 0,3,0
	beq- 0,.L505
.L529:
.LVL900:
.LBB6161:
	.loc 2 5400 0
	lwz 9,4(3)
	lwz 4,4(9)
.LBE6161:
.LBE6160:
.LBE6159:
	.loc 2 248 0
	lbz 0,0(4)
	cmpwi 7,0,0
	bne- 7,.L523
.LVL901:
.L481:
	.loc 2 252 0
	lis 4,.LC118@ha
	lis 5,.LC16@ha
	la 4,.LC118@l(4)
	la 5,.LC16@l(5)
	addi 6,31,60
	mr 3,30
	bl _ZNK6idDict9GetVectorEPKcS1_R6idVec3
	.loc 2 255 0
	addi 29,31,72
	lis 4,.LC119@ha
	lis 5,.LC120@ha
	mr 3,30
	la 4,.LC119@l(4)
	la 5,.LC120@l(5)
	mr 6,29
	bl _ZNK6idDict9GetMatrixEPKcS1_R6idMat3
	cmpwi 7,3,0
	beq- 7,.L524
.L482:
	.loc 2 264 0
	li 0,0
	.loc 2 267 0
	lis 4,.LC138@ha
	.loc 2 264 0
	stw 0,120(31)
	.loc 2 267 0
	lis 5,.LC139@ha
	la 4,.LC138@l(4)
	la 5,.LC139@l(5)
	addi 6,1,20
	mr 3,30
	bl _ZNK6idDict9GetVectorEPKcS1_R6idVec3
.LVL902:
	.loc 2 269 0
	lwz 9,24(1)
	.loc 2 270 0
	lwz 0,28(1)
.LBB6164:
.LBB6165:
.LBB6166:
.LBB6167:
	.loc 12 241 0
	lis 4,.LC140@ha
.LBE6167:
.LBE6166:
.LBE6165:
.LBE6164:
	.loc 2 268 0
	lwz 11,20(1)
.LBB6183:
.LBB6177:
.LBB6173:
.LBB6169:
	.loc 12 241 0
	mr 3,30
.LBE6169:
.LBE6173:
.LBE6177:
.LBE6183:
	.loc 2 269 0
	stw 9,128(31)
.LBB6184:
.LBB6178:
.LBB6174:
.LBB6170:
	.loc 12 241 0
	la 4,.LC140@l(4)
.LBE6170:
.LBE6174:
.LBE6178:
.LBE6184:
	.loc 2 268 0
	stw 11,124(31)
.LVL903:
	.loc 2 270 0
	stw 0,132(31)
.LVL904:
.LBB6185:
.LBB6179:
.LBB6175:
.LBB6171:
	.loc 12 241 0
	bl _ZNK6idDict7FindKeyEPKc
.LVL905:
	.loc 12 242 0
	cmpwi 0,3,0
	beq- 0,.L507
.LVL906:
.LBB6168:
	.loc 2 5400 0
	lwz 9,4(3)
	lwz 3,4(9)
.LVL907:
.L487:
.LBE6168:
.LBE6171:
.LBE6175:
	.loc 12 249 0
	bl atof
.LBE6179:
.LBE6185:
.LBB6186:
.LBB6187:
.LBB6188:
.LBB6189:
	.loc 12 241 0
	lis 4,.LC141@ha
.LBE6189:
.LBE6188:
.LBE6187:
.LBE6186:
.LBB6204:
.LBB6180:
	.loc 12 249 0
	frsp 1,1
.LBE6180:
.LBE6204:
.LBB6205:
.LBB6197:
.LBB6194:
.LBB6191:
	.loc 12 241 0
	mr 3,30
	la 4,.LC141@l(4)
.LBE6191:
.LBE6194:
.LBE6197:
.LBE6205:
.LBB6206:
.LBB6181:
	.loc 12 249 0
	stfs 1,136(31)
.LVL908:
.LBE6181:
.LBE6206:
.LBB6207:
.LBB6198:
.LBB6195:
.LBB6192:
	.loc 12 241 0
	bl _ZNK6idDict7FindKeyEPKc
.LVL909:
	.loc 12 242 0
	cmpwi 0,3,0
	beq- 0,.L508
.LVL910:
.LBB6190:
	.loc 2 5400 0
	lwz 9,4(3)
	lwz 3,4(9)
.LVL911:
.LBE6190:
.LBE6192:
.LBE6195:
	.loc 12 249 0
	bl atof
.LVL912:
.LBE6198:
.LBE6207:
.LBB6208:
.LBB6209:
.LBB6210:
.LBB6211:
	.loc 12 241 0
	lis 4,.LC142@ha
.LBE6211:
.LBE6210:
.LBE6209:
.LBE6208:
.LBB6232:
.LBB6199:
	.loc 12 249 0
	frsp 1,1
.LBE6199:
.LBE6232:
.LBB6233:
.LBB6223:
.LBB6218:
.LBB6213:
	.loc 12 241 0
	mr 3,30
	la 4,.LC142@l(4)
.LBE6213:
.LBE6218:
.LBE6223:
.LBE6233:
.LBB6234:
.LBB6200:
	.loc 12 249 0
	stfs 1,140(31)
.LVL913:
.LBE6200:
.LBE6234:
.LBB6235:
.LBB6224:
.LBB6219:
.LBB6214:
	.loc 12 241 0
	bl _ZNK6idDict7FindKeyEPKc
.LVL914:
	.loc 12 242 0
	cmpwi 0,3,0
	beq- 0,.L509
.L538:
.LVL915:
.LBB6212:
	.loc 2 5400 0
	lwz 9,4(3)
	lwz 3,4(9)
.LVL916:
.LBE6212:
.LBE6214:
.LBE6219:
	.loc 12 249 0
	bl atof
.LVL917:
.LBE6224:
.LBE6235:
.LBB6236:
.LBB6237:
.LBB6238:
.LBB6239:
	.loc 12 241 0
	lis 4,.LC143@ha
.LBE6239:
.LBE6238:
.LBE6237:
.LBE6236:
.LBB6260:
.LBB6225:
	.loc 12 249 0
	frsp 1,1
.LBE6225:
.LBE6260:
.LBB6261:
.LBB6251:
.LBB6246:
.LBB6241:
	.loc 12 241 0
	mr 3,30
	la 4,.LC143@l(4)
.LBE6241:
.LBE6246:
.LBE6251:
.LBE6261:
.LBB6262:
.LBB6226:
	.loc 12 249 0
	stfs 1,144(31)
.LVL918:
.LBE6226:
.LBE6262:
.LBB6263:
.LBB6252:
.LBB6247:
.LBB6242:
	.loc 12 241 0
	bl _ZNK6idDict7FindKeyEPKc
.LVL919:
	.loc 12 242 0
	cmpwi 0,3,0
	beq- 0,.L510
.L539:
.LVL920:
.LBB6240:
	.loc 2 5400 0
	lwz 9,4(3)
	lwz 3,4(9)
.LVL921:
.LBE6240:
.LBE6242:
.LBE6247:
	.loc 12 249 0
	bl atof
.LVL922:
.LBE6252:
.LBE6263:
.LBB6264:
.LBB6265:
.LBB6266:
.LBB6267:
	.loc 12 241 0
	lis 4,.LC144@ha
.LBE6267:
.LBE6266:
.LBE6265:
.LBE6264:
.LBB6286:
.LBB6253:
	.loc 12 249 0
	frsp 1,1
.LBE6253:
.LBE6286:
.LBB6287:
.LBB6279:
.LBB6274:
.LBB6269:
	.loc 12 241 0
	mr 3,30
	la 4,.LC144@l(4)
.LBE6269:
.LBE6274:
.LBE6279:
.LBE6287:
.LBB6288:
.LBB6254:
	.loc 12 249 0
	stfs 1,148(31)
.LVL923:
.LBE6254:
.LBE6288:
.LBB6289:
.LBB6280:
.LBB6275:
.LBB6270:
	.loc 12 241 0
	bl _ZNK6idDict7FindKeyEPKc
.LVL924:
	.loc 12 242 0
	cmpwi 0,3,0
	beq- 0,.L511
.L540:
.LVL925:
.LBB6268:
	.loc 2 5400 0
	lwz 9,4(3)
	lwz 3,4(9)
.LVL926:
.L491:
.LBE6268:
.LBE6270:
.LBE6275:
	.loc 12 249 0
	bl atof
.LBE6280:
.LBE6289:
.LBB6290:
.LBB6291:
.LBB6292:
.LBB6293:
	.loc 12 241 0
	lis 4,.LC145@ha
.LBE6293:
.LBE6292:
.LBE6291:
.LBE6290:
.LBB6308:
.LBB6281:
	.loc 12 249 0
	frsp 1,1
.LBE6281:
.LBE6308:
.LBB6309:
.LBB6301:
.LBB6298:
.LBB6295:
	.loc 12 241 0
	mr 3,30
	la 4,.LC145@l(4)
.LBE6295:
.LBE6298:
.LBE6301:
.LBE6309:
.LBB6310:
.LBB6282:
	.loc 12 249 0
	stfs 1,152(31)
.LVL927:
.LBE6282:
.LBE6310:
.LBB6311:
.LBB6302:
.LBB6299:
.LBB6296:
	.loc 12 241 0
	bl _ZNK6idDict7FindKeyEPKc
.LVL928:
	.loc 12 242 0
	cmpwi 0,3,0
	beq- 0,.L512
.LVL929:
.LBB6294:
	.loc 2 5400 0
	lwz 9,4(3)
	lwz 3,4(9)
.LVL930:
.LBE6294:
.LBE6296:
.LBE6299:
	.loc 12 249 0
	bl atof
.LVL931:
.LBE6302:
.LBE6311:
.LBB6312:
.LBB6313:
.LBB6314:
.LBB6315:
	.loc 12 241 0
	lis 4,.LC146@ha
.LBE6315:
.LBE6314:
.LBE6313:
.LBE6312:
.LBB6336:
.LBB6303:
	.loc 12 249 0
	frsp 1,1
.LBE6303:
.LBE6336:
.LBB6337:
.LBB6327:
.LBB6322:
.LBB6317:
	.loc 12 241 0
	mr 3,30
	la 4,.LC146@l(4)
.LBE6317:
.LBE6322:
.LBE6327:
.LBE6337:
.LBB6338:
.LBB6304:
	.loc 12 249 0
	stfs 1,156(31)
.LVL932:
.LBE6304:
.LBE6338:
.LBB6339:
.LBB6328:
.LBB6323:
.LBB6318:
	.loc 12 241 0
	bl _ZNK6idDict7FindKeyEPKc
.LVL933:
	.loc 12 242 0
	cmpwi 0,3,0
	beq- 0,.L513
.L532:
.LVL934:
.LBB6316:
	.loc 2 5400 0
	lwz 9,4(3)
	lwz 3,4(9)
.LVL935:
.LBE6316:
.LBE6318:
.LBE6323:
	.loc 12 249 0
	bl atof
.LVL936:
.LBE6328:
.LBE6339:
.LBB6340:
.LBB6341:
.LBB6342:
.LBB6343:
	.loc 12 241 0
	lis 4,.LC147@ha
.LBE6343:
.LBE6342:
.LBE6341:
.LBE6340:
.LBB6364:
.LBB6329:
	.loc 12 249 0
	frsp 1,1
.LBE6329:
.LBE6364:
.LBB6365:
.LBB6355:
.LBB6350:
.LBB6345:
	.loc 12 241 0
	mr 3,30
	la 4,.LC147@l(4)
.LBE6345:
.LBE6350:
.LBE6355:
.LBE6365:
.LBB6366:
.LBB6330:
	.loc 12 249 0
	stfs 1,160(31)
.LVL937:
.LBE6330:
.LBE6366:
.LBB6367:
.LBB6356:
.LBB6351:
.LBB6346:
	.loc 12 241 0
	bl _ZNK6idDict7FindKeyEPKc
.LVL938:
	.loc 12 242 0
	cmpwi 0,3,0
	beq- 0,.L514
.L533:
.LVL939:
.LBB6344:
	.loc 2 5400 0
	lwz 9,4(3)
	lwz 3,4(9)
.LVL940:
.LBE6344:
.LBE6346:
.LBE6351:
	.loc 12 249 0
	bl atof
.LVL941:
.LBE6356:
.LBE6367:
.LBB6368:
.LBB6369:
.LBB6370:
.LBB6371:
	.loc 12 241 0
	lis 4,.LC148@ha
.LBE6371:
.LBE6370:
.LBE6369:
.LBE6368:
.LBB6392:
.LBB6357:
	.loc 12 249 0
	frsp 1,1
.LBE6357:
.LBE6392:
.LBB6393:
.LBB6383:
.LBB6378:
.LBB6373:
	.loc 12 241 0
	mr 3,30
	la 4,.LC148@l(4)
.LBE6373:
.LBE6378:
.LBE6383:
.LBE6393:
.LBB6394:
.LBB6358:
	.loc 12 249 0
	stfs 1,164(31)
.LVL942:
.LBE6358:
.LBE6394:
.LBB6395:
.LBB6384:
.LBB6379:
.LBB6374:
	.loc 12 241 0
	bl _ZNK6idDict7FindKeyEPKc
.LVL943:
	.loc 12 242 0
	cmpwi 0,3,0
	beq- 0,.L515
.L534:
.LVL944:
.LBB6372:
	.loc 2 5400 0
	lwz 9,4(3)
	lwz 3,4(9)
.LVL945:
.LBE6372:
.LBE6374:
.LBE6379:
	.loc 12 249 0
	bl atof
.LVL946:
.LBE6384:
.LBE6395:
.LBB6396:
.LBB6397:
.LBB6398:
.LBB6399:
	.loc 12 241 0
	lis 4,.LC149@ha
.LBE6399:
.LBE6398:
.LBE6397:
.LBE6396:
.LBB6420:
.LBB6385:
	.loc 12 249 0
	frsp 1,1
.LBE6385:
.LBE6420:
.LBB6421:
.LBB6411:
.LBB6406:
.LBB6401:
	.loc 12 241 0
	mr 3,30
	la 4,.LC149@l(4)
.LBE6401:
.LBE6406:
.LBE6411:
.LBE6421:
.LBB6422:
.LBB6386:
	.loc 12 249 0
	stfs 1,168(31)
.LVL947:
.LBE6386:
.LBE6422:
.LBB6423:
.LBB6412:
.LBB6407:
.LBB6402:
	.loc 12 241 0
	bl _ZNK6idDict7FindKeyEPKc
.LVL948:
	.loc 12 242 0
	cmpwi 0,3,0
	beq- 0,.L516
.L535:
.LVL949:
.LBB6400:
	.loc 2 5400 0
	lwz 9,4(3)
	lwz 3,4(9)
.LVL950:
.LBE6400:
.LBE6402:
.LBE6407:
	.loc 12 257 0
	bl atoi
.LVL951:
.LBE6412:
.LBE6423:
.LBB6424:
.LBB6425:
.LBB6426:
.LBB6427:
	.loc 12 241 0
	lis 4,.LC150@ha
.LBE6427:
.LBE6426:
.LBE6425:
.LBE6424:
.LBB6448:
.LBB6413:
	.loc 12 257 0
	cntlzw 3,3
.LBE6413:
.LBE6448:
.LBB6449:
.LBB6439:
.LBB6434:
.LBB6429:
	.loc 12 241 0
	la 4,.LC150@l(4)
.LBE6429:
.LBE6434:
.LBE6439:
.LBE6449:
.LBB6450:
.LBB6414:
	.loc 12 257 0
	srwi 3,3,5
	xori 3,3,1
.LBE6414:
.LBE6450:
	.loc 2 282 0
	stb 3,202(31)
.LVL952:
.LBB6451:
.LBB6440:
.LBB6435:
.LBB6430:
	.loc 12 241 0
	mr 3,30
	bl _ZNK6idDict7FindKeyEPKc
.LVL953:
	.loc 12 242 0
	cmpwi 0,3,0
	beq- 0,.L517
.L536:
.LVL954:
.LBB6428:
	.loc 2 5400 0
	lwz 9,4(3)
	lwz 3,4(9)
.LVL955:
.LBE6428:
.LBE6430:
.LBE6435:
	.loc 12 257 0
	bl atoi
.LVL956:
.LBE6440:
.LBE6451:
.LBB6452:
.LBB6453:
.LBB6454:
.LBB6455:
	.loc 12 241 0
	lis 4,.LC151@ha
.LBE6455:
.LBE6454:
.LBE6453:
.LBE6452:
.LBB6475:
.LBB6441:
	.loc 12 257 0
	cntlzw 3,3
.LBE6441:
.LBE6475:
.LBB6476:
.LBB6467:
.LBB6462:
.LBB6457:
	.loc 12 241 0
	la 4,.LC151@l(4)
.LBE6457:
.LBE6462:
.LBE6467:
.LBE6476:
.LBB6477:
.LBB6442:
	.loc 12 257 0
	srwi 3,3,5
	xori 3,3,1
.LBE6442:
.LBE6477:
	.loc 2 285 0
	stb 3,201(31)
.LVL957:
.LBB6478:
.LBB6468:
.LBB6463:
.LBB6458:
	.loc 12 241 0
	mr 3,30
	bl _ZNK6idDict7FindKeyEPKc
.LVL958:
	.loc 12 242 0
	cmpwi 0,3,0
	beq- 0,.L518
.L537:
.LVL959:
.LBB6456:
	.loc 2 5400 0
	lwz 9,4(3)
	lwz 3,4(9)
.LVL960:
.L498:
.LBE6456:
.LBE6458:
.LBE6463:
	.loc 12 257 0
	bl atoi
.LBE6468:
.LBE6478:
	.loc 2 292 0
	lis 4,.LC134@ha
.LBB6479:
.LBB6469:
	.loc 12 257 0
	cntlzw 3,3
.LBE6469:
.LBE6479:
	.loc 2 292 0
	la 4,.LC134@l(4)
.LBB6480:
.LBB6470:
	.loc 12 257 0
	srwi 3,3,5
.LBE6470:
.LBE6480:
	.loc 2 292 0
	lis 28,.LC152@ha
.LVL961:
.LBB6481:
.LBB6471:
	.loc 12 257 0
	xori 3,3,1
.LBE6471:
.LBE6481:
	.loc 2 291 0
	li 26,0
	.loc 2 288 0
	stb 3,200(31)
.LVL962:
.LBB6482:
.LBB6483:
	.loc 12 241 0
	mr 3,30
	li 29,1
	.loc 12 245 0
	lis 27,.LC18@ha
	.loc 12 241 0
	bl _ZNK6idDict7FindKeyEPKc
.LVL963:
.LBE6483:
.LBE6482:
	.loc 2 292 0
	la 28,.LC152@l(28)
.LBB6487:
.LBB6485:
	.loc 12 242 0
	cmpwi 0,3,0
	beq- 0,.L519
.LVL964:
.L527:
.LBB6484:
	.loc 2 5400 0
	lwz 9,4(3)
	lwz 3,4(9)
.LVL965:
.LBE6484:
.LBE6485:
.LBE6487:
	.loc 2 293 0
	lbz 0,0(3)
	cmpwi 7,0,0
	bne- 7,.L525
.LVL966:
.L501:
	.loc 2 291 0
	cmpwi 7,29,3
	mr 26,29
.LVL967:
	.loc 2 213 0
	addi 29,29,1
.LVL968:
	.loc 2 292 0
	mr 3,28
	mr 4,29
	.loc 2 291 0
	beq- 7,.L526
.L502:
	.loc 2 292 0 discriminator 1
	crxor 6,6,6
	bl _Z2vaPKcz
	mr 4,3
.LVL969:
.LBB6488:
.LBB6486:
	.loc 12 241 0 discriminator 1
	mr 3,30
.LVL970:
	bl _ZNK6idDict7FindKeyEPKc
.LVL971:
	.loc 12 242 0 discriminator 1
	cmpwi 0,3,0
	bne+ 0,.L527
.LVL972:
.L519:
	.loc 12 245 0
	la 3,.LC18@l(27)
.LVL973:
.LBE6486:
.LBE6488:
	.loc 2 293 0
	lbz 0,0(3)
	cmpwi 7,0,0
	beq+ 7,.L501
.L525:
	.loc 2 294 0
	addi 4,26,40
	mr 5,30
	slwi 4,4,2
	.loc 2 291 0
	mr 26,29
	.loc 2 294 0
	add 4,31,4
	addi 4,4,12
	bl _Z12AddRenderGuiPKcPP15idUserInterfacePK6idDict
.LVL974:
	.loc 2 291 0
	cmpwi 7,29,3
	.loc 2 213 0
	addi 29,29,1
.LVL975:
	.loc 2 292 0
	mr 3,28
	mr 4,29
	.loc 2 291 0
	bne+ 7,.L502
.L526:
.LBE6583:
	.loc 2 297 0
	lwz 0,132(1)
	lwz 26,104(1)
.LVL976:
	mtlr 0
	lwz 27,108(1)
	lwz 28,112(1)
	lwz 29,116(1)
	lwz 30,120(1)
.LVL977:
	lwz 31,124(1)
.LVL978:
	addi 1,1,128
	.cfi_remember_state
.LCFI211:
	.cfi_def_cfa_offset 0
	.cfi_restore 31
	.cfi_restore 30
	.cfi_restore 29
	.cfi_restore 28
	.cfi_restore 27
	.cfi_restore 26
	blr
.LVL979:
.L475:
.LCFI212:
	.cfi_restore_state
.LBB6584:
.LBB6489:
.LBB6490:
	.loc 8 208 0
	li 0,0
.LBE6490:
.LBE6489:
.LBB6494:
.LBB6151:
	.loc 12 241 0
	lis 4,.LC136@ha
.LBE6151:
.LBE6494:
.LBB6495:
.LBB6491:
	.loc 8 208 0
	stw 0,32(31)
.LBE6491:
.LBE6495:
.LBB6496:
.LBB6152:
	.loc 12 241 0
	mr 3,30
.LBE6152:
.LBE6496:
.LBB6497:
.LBB6492:
	.loc 8 208 0
	stw 0,28(31)
.LBE6492:
.LBE6497:
.LBB6498:
.LBB6153:
	.loc 12 241 0
	la 4,.LC136@l(4)
.LBE6153:
.LBE6498:
.LBB6499:
.LBB6493:
	.loc 8 208 0
	stw 0,24(31)
	stw 0,20(31)
	stw 0,16(31)
	stw 0,12(31)
.LVL980:
.LBE6493:
.LBE6499:
.LBB6500:
.LBB6154:
	.loc 12 241 0
	bl _ZNK6idDict7FindKeyEPKc
.LVL981:
	.loc 12 242 0
	cmpwi 0,3,0
	bne+ 0,.L528
.LVL982:
.L504:
	.loc 12 245 0
	lis 4,.LC18@ha
	la 4,.LC18@l(4)
.LBE6154:
.LBE6500:
	.loc 2 241 0
	lbz 0,0(4)
	cmpwi 7,0,0
	beq+ 7,.L478
.L522:
	.loc 2 242 0
	lis 9,declManager@ha
	li 5,1
	lwz 3,declManager@l(9)
.LVL983:
	lwz 9,0(3)
	lwz 0,108(9)
	mtctr 0
	bctrl
.LBB6501:
.LBB6162:
	.loc 12 241 0
	lis 4,.LC137@ha
.LBE6162:
.LBE6501:
	.loc 2 242 0
	stw 3,116(31)
.LVL984:
.LBB6502:
.LBB6163:
	.loc 12 241 0
	la 4,.LC137@l(4)
	mr 3,30
	bl _ZNK6idDict7FindKeyEPKc
.LVL985:
	.loc 12 242 0
	cmpwi 0,3,0
	bne+ 0,.L529
.L505:
	.loc 12 245 0
	lis 4,.LC18@ha
	la 4,.LC18@l(4)
.LBE6163:
.LBE6502:
	.loc 2 248 0
	lbz 0,0(4)
	cmpwi 7,0,0
	beq+ 7,.L481
.L523:
	.loc 2 249 0
	lis 9,declManager@ha
	li 5,1
	lwz 3,declManager@l(9)
.LVL986:
	li 6,0
	lwz 9,0(3)
	lwz 0,104(9)
	mtctr 0
	bctrl
	stw 3,108(31)
	b .L481
.LVL987:
.L470:
	.loc 2 226 0
	lis 9,declManager@ha
	li 4,5
	lwz 3,declManager@l(9)
.LVL988:
	mr 5,29
	li 6,0
	li 7,0
	lwz 9,0(3)
	lwz 0,60(9)
	mtctr 0
	bctrl
.LVL989:
	.loc 2 227 0
	mr. 28,3
	beq- 0,.L530
	.loc 2 228 0
	bl _ZNK14idDeclModelDef11ModelHandleEv
.LVL990:
	stw 3,0(31)
	mr 4,3
.L473:
	.loc 2 230 0
	cmpwi 7,4,0
	bne+ 7,.L474
	.loc 2 231 0
	lis 9,renderModelManager@ha
	mr 4,29
	lwz 3,renderModelManager@l(9)
	lwz 9,0(3)
	lwz 0,32(9)
	mtctr 0
	bctrl
	mr 4,3
	stw 3,0(31)
	b .L471
.LVL991:
.L524:
.LBB6503:
.LBB6504:
.LBB6505:
.LBB6506:
	.loc 12 241 0
	lis 4,.LC121@ha
	mr 3,30
	la 4,.LC121@l(4)
	bl _ZNK6idDict7FindKeyEPKc
.LVL992:
	.loc 12 242 0
	cmpwi 0,3,0
	beq- 0,.L506
.LVL993:
.LBB6507:
	.loc 2 5400 0
	lwz 9,4(3)
	lwz 3,4(9)
.LVL994:
.L483:
.LBE6507:
.LBE6506:
.LBE6505:
	.loc 12 249 0
	bl atof
.LBE6504:
.LBE6503:
	.loc 2 257 0
	lis 9,.LC1@ha
.LBB6512:
.LBB6510:
	.loc 12 249 0
	frsp 1,1
.LBE6510:
.LBE6512:
	.loc 2 257 0
	lfs 0,.LC1@l(9)
	fcmpu 7,1,0
	bne- 7,.L531
.LVL995:
	lis 8,mat3_identity@ha
.LBB6513:
.LBB6514:
.LBB6515:
	.loc 7 333 0
	li 10,0
	la 8,mat3_identity@l(8)
.L486:
.LBB6516:
.LBB6517:
	.loc 4 424 0
	mr 11,8
	mr 9,29
	lwzux 0,11,10
.LBE6517:
.LBE6516:
	.loc 7 333 0
	cmpwi 7,10,24
.LBB6520:
.LBB6518:
	.loc 4 424 0
	stwux 0,9,10
.LBE6518:
.LBE6520:
	.loc 7 333 0
	addi 10,10,12
.LBB6521:
.LBB6519:
	.loc 4 425 0
	lwz 0,4(11)
	stw 0,4(9)
	.loc 4 426 0
	lwz 0,8(11)
	stw 0,8(9)
.LBE6519:
.LBE6521:
	.loc 7 333 0
	bne+ 7,.L486
	b .L482
.LVL996:
.L512:
.LBE6515:
.LBE6514:
.LBE6513:
.LBB6522:
.LBB6305:
.LBB6300:
.LBB6297:
	.loc 12 245 0
	lis 3,.LC17@ha
.LVL997:
	la 3,.LC17@l(3)
.LBE6297:
.LBE6300:
	.loc 12 249 0
	bl atof
.LBE6305:
.LBE6522:
.LBB6523:
.LBB6331:
.LBB6324:
.LBB6319:
	.loc 12 241 0
	lis 4,.LC146@ha
.LBE6319:
.LBE6324:
.LBE6331:
.LBE6523:
.LBB6524:
.LBB6306:
	.loc 12 249 0
	frsp 1,1
.LBE6306:
.LBE6524:
.LBB6525:
.LBB6332:
.LBB6325:
.LBB6320:
	.loc 12 241 0
	mr 3,30
	la 4,.LC146@l(4)
.LBE6320:
.LBE6325:
.LBE6332:
.LBE6525:
.LBB6526:
.LBB6307:
	.loc 12 249 0
	stfs 1,156(31)
.LVL998:
.LBE6307:
.LBE6526:
.LBB6527:
.LBB6333:
.LBB6326:
.LBB6321:
	.loc 12 241 0
	bl _ZNK6idDict7FindKeyEPKc
.LVL999:
	.loc 12 242 0
	cmpwi 0,3,0
	bne+ 0,.L532
.L513:
	.loc 12 245 0
	lis 3,.LC17@ha
.LVL1000:
	la 3,.LC17@l(3)
.LBE6321:
.LBE6326:
	.loc 12 249 0
	bl atof
.LBE6333:
.LBE6527:
.LBB6528:
.LBB6359:
.LBB6352:
.LBB6347:
	.loc 12 241 0
	lis 4,.LC147@ha
.LBE6347:
.LBE6352:
.LBE6359:
.LBE6528:
.LBB6529:
.LBB6334:
	.loc 12 249 0
	frsp 1,1
.LBE6334:
.LBE6529:
.LBB6530:
.LBB6360:
.LBB6353:
.LBB6348:
	.loc 12 241 0
	mr 3,30
	la 4,.LC147@l(4)
.LBE6348:
.LBE6353:
.LBE6360:
.LBE6530:
.LBB6531:
.LBB6335:
	.loc 12 249 0
	stfs 1,160(31)
.LVL1001:
.LBE6335:
.LBE6531:
.LBB6532:
.LBB6361:
.LBB6354:
.LBB6349:
	.loc 12 241 0
	bl _ZNK6idDict7FindKeyEPKc
.LVL1002:
	.loc 12 242 0
	cmpwi 0,3,0
	bne+ 0,.L533
.L514:
	.loc 12 245 0
	lis 3,.LC17@ha
.LVL1003:
	la 3,.LC17@l(3)
.LBE6349:
.LBE6354:
	.loc 12 249 0
	bl atof
.LBE6361:
.LBE6532:
.LBB6533:
.LBB6387:
.LBB6380:
.LBB6375:
	.loc 12 241 0
	lis 4,.LC148@ha
.LBE6375:
.LBE6380:
.LBE6387:
.LBE6533:
.LBB6534:
.LBB6362:
	.loc 12 249 0
	frsp 1,1
.LBE6362:
.LBE6534:
.LBB6535:
.LBB6388:
.LBB6381:
.LBB6376:
	.loc 12 241 0
	mr 3,30
	la 4,.LC148@l(4)
.LBE6376:
.LBE6381:
.LBE6388:
.LBE6535:
.LBB6536:
.LBB6363:
	.loc 12 249 0
	stfs 1,164(31)
.LVL1004:
.LBE6363:
.LBE6536:
.LBB6537:
.LBB6389:
.LBB6382:
.LBB6377:
	.loc 12 241 0
	bl _ZNK6idDict7FindKeyEPKc
.LVL1005:
	.loc 12 242 0
	cmpwi 0,3,0
	bne+ 0,.L534
.L515:
	.loc 12 245 0
	lis 3,.LC17@ha
.LVL1006:
	la 3,.LC17@l(3)
.LBE6377:
.LBE6382:
	.loc 12 249 0
	bl atof
.LBE6389:
.LBE6537:
.LBB6538:
.LBB6415:
.LBB6408:
.LBB6403:
	.loc 12 241 0
	lis 4,.LC149@ha
.LBE6403:
.LBE6408:
.LBE6415:
.LBE6538:
.LBB6539:
.LBB6390:
	.loc 12 249 0
	frsp 1,1
.LBE6390:
.LBE6539:
.LBB6540:
.LBB6416:
.LBB6409:
.LBB6404:
	.loc 12 241 0
	mr 3,30
	la 4,.LC149@l(4)
.LBE6404:
.LBE6409:
.LBE6416:
.LBE6540:
.LBB6541:
.LBB6391:
	.loc 12 249 0
	stfs 1,168(31)
.LVL1007:
.LBE6391:
.LBE6541:
.LBB6542:
.LBB6417:
.LBB6410:
.LBB6405:
	.loc 12 241 0
	bl _ZNK6idDict7FindKeyEPKc
.LVL1008:
	.loc 12 242 0
	cmpwi 0,3,0
	bne+ 0,.L535
.L516:
	.loc 12 245 0
	lis 3,.LC17@ha
.LVL1009:
	la 3,.LC17@l(3)
.LBE6405:
.LBE6410:
	.loc 12 257 0
	bl atoi
.LBE6417:
.LBE6542:
.LBB6543:
.LBB6443:
.LBB6436:
.LBB6431:
	.loc 12 241 0
	lis 4,.LC150@ha
.LBE6431:
.LBE6436:
.LBE6443:
.LBE6543:
.LBB6544:
.LBB6418:
	.loc 12 257 0
	cntlzw 3,3
.LBE6418:
.LBE6544:
.LBB6545:
.LBB6444:
.LBB6437:
.LBB6432:
	.loc 12 241 0
	la 4,.LC150@l(4)
.LBE6432:
.LBE6437:
.LBE6444:
.LBE6545:
.LBB6546:
.LBB6419:
	.loc 12 257 0
	srwi 3,3,5
	xori 3,3,1
.LBE6419:
.LBE6546:
	.loc 2 282 0
	stb 3,202(31)
.LVL1010:
.LBB6547:
.LBB6445:
.LBB6438:
.LBB6433:
	.loc 12 241 0
	mr 3,30
	bl _ZNK6idDict7FindKeyEPKc
.LVL1011:
	.loc 12 242 0
	cmpwi 0,3,0
	bne+ 0,.L536
.L517:
	.loc 12 245 0
	lis 3,.LC17@ha
.LVL1012:
	la 3,.LC17@l(3)
.LBE6433:
.LBE6438:
	.loc 12 257 0
	bl atoi
.LBE6445:
.LBE6547:
.LBB6548:
.LBB6472:
.LBB6464:
.LBB6459:
	.loc 12 241 0
	lis 4,.LC151@ha
.LBE6459:
.LBE6464:
.LBE6472:
.LBE6548:
.LBB6549:
.LBB6446:
	.loc 12 257 0
	cntlzw 3,3
.LBE6446:
.LBE6549:
.LBB6550:
.LBB6473:
.LBB6465:
.LBB6460:
	.loc 12 241 0
	la 4,.LC151@l(4)
.LBE6460:
.LBE6465:
.LBE6473:
.LBE6550:
.LBB6551:
.LBB6447:
	.loc 12 257 0
	srwi 3,3,5
	xori 3,3,1
.LBE6447:
.LBE6551:
	.loc 2 285 0
	stb 3,201(31)
.LVL1013:
.LBB6552:
.LBB6474:
.LBB6466:
.LBB6461:
	.loc 12 241 0
	mr 3,30
	bl _ZNK6idDict7FindKeyEPKc
.LVL1014:
	.loc 12 242 0
	cmpwi 0,3,0
	bne+ 0,.L537
.L518:
	.loc 12 245 0
	lis 3,.LC17@ha
.LVL1015:
	la 3,.LC17@l(3)
	b .L498
.LVL1016:
.L508:
.LBE6461:
.LBE6466:
.LBE6474:
.LBE6552:
.LBB6553:
.LBB6201:
.LBB6196:
.LBB6193:
	lis 3,.LC17@ha
.LVL1017:
	la 3,.LC17@l(3)
.LBE6193:
.LBE6196:
	.loc 12 249 0
	bl atof
.LBE6201:
.LBE6553:
.LBB6554:
.LBB6227:
.LBB6220:
.LBB6215:
	.loc 12 241 0
	lis 4,.LC142@ha
.LBE6215:
.LBE6220:
.LBE6227:
.LBE6554:
.LBB6555:
.LBB6202:
	.loc 12 249 0
	frsp 1,1
.LBE6202:
.LBE6555:
.LBB6556:
.LBB6228:
.LBB6221:
.LBB6216:
	.loc 12 241 0
	mr 3,30
	la 4,.LC142@l(4)
.LBE6216:
.LBE6221:
.LBE6228:
.LBE6556:
.LBB6557:
.LBB6203:
	.loc 12 249 0
	stfs 1,140(31)
.LVL1018:
.LBE6203:
.LBE6557:
.LBB6558:
.LBB6229:
.LBB6222:
.LBB6217:
	.loc 12 241 0
	bl _ZNK6idDict7FindKeyEPKc
.LVL1019:
	.loc 12 242 0
	cmpwi 0,3,0
	bne+ 0,.L538
.L509:
	.loc 12 245 0
	lis 3,.LC17@ha
.LVL1020:
	la 3,.LC17@l(3)
.LBE6217:
.LBE6222:
	.loc 12 249 0
	bl atof
.LBE6229:
.LBE6558:
.LBB6559:
.LBB6255:
.LBB6248:
.LBB6243:
	.loc 12 241 0
	lis 4,.LC143@ha
.LBE6243:
.LBE6248:
.LBE6255:
.LBE6559:
.LBB6560:
.LBB6230:
	.loc 12 249 0
	frsp 1,1
.LBE6230:
.LBE6560:
.LBB6561:
.LBB6256:
.LBB6249:
.LBB6244:
	.loc 12 241 0
	mr 3,30
	la 4,.LC143@l(4)
.LBE6244:
.LBE6249:
.LBE6256:
.LBE6561:
.LBB6562:
.LBB6231:
	.loc 12 249 0
	stfs 1,144(31)
.LVL1021:
.LBE6231:
.LBE6562:
.LBB6563:
.LBB6257:
.LBB6250:
.LBB6245:
	.loc 12 241 0
	bl _ZNK6idDict7FindKeyEPKc
.LVL1022:
	.loc 12 242 0
	cmpwi 0,3,0
	bne+ 0,.L539
.L510:
	.loc 12 245 0
	lis 3,.LC17@ha
.LVL1023:
	la 3,.LC17@l(3)
.LBE6245:
.LBE6250:
	.loc 12 249 0
	bl atof
.LBE6257:
.LBE6563:
.LBB6564:
.LBB6283:
.LBB6276:
.LBB6271:
	.loc 12 241 0
	lis 4,.LC144@ha
.LBE6271:
.LBE6276:
.LBE6283:
.LBE6564:
.LBB6565:
.LBB6258:
	.loc 12 249 0
	frsp 1,1
.LBE6258:
.LBE6565:
.LBB6566:
.LBB6284:
.LBB6277:
.LBB6272:
	.loc 12 241 0
	mr 3,30
	la 4,.LC144@l(4)
.LBE6272:
.LBE6277:
.LBE6284:
.LBE6566:
.LBB6567:
.LBB6259:
	.loc 12 249 0
	stfs 1,148(31)
.LVL1024:
.LBE6259:
.LBE6567:
.LBB6568:
.LBB6285:
.LBB6278:
.LBB6273:
	.loc 12 241 0
	bl _ZNK6idDict7FindKeyEPKc
.LVL1025:
	.loc 12 242 0
	cmpwi 0,3,0
	bne+ 0,.L540
.L511:
	.loc 12 245 0
	lis 3,.LC17@ha
.LVL1026:
	la 3,.LC17@l(3)
	b .L491
.LVL1027:
.L507:
.LBE6273:
.LBE6278:
.LBE6285:
.LBE6568:
.LBB6569:
.LBB6182:
.LBB6176:
.LBB6172:
	lis 3,.LC133@ha
.LVL1028:
	la 3,.LC133@l(3)
	b .L487
.LVL1029:
.L503:
.LBE6172:
.LBE6176:
.LBE6182:
.LBE6569:
.LBB6570:
.LBB6138:
	lis 29,.LC18@ha
	la 29,.LC18@l(29)
	b .L469
.LVL1030:
.L530:
.LBE6138:
.LBE6570:
	.loc 2 227 0
	lwz 4,0(31)
	b .L473
.LVL1031:
.L531:
	.loc 2 258 0
	addi 3,1,56
	addi 4,1,8
.LBB6571:
.LBB6572:
	.loc 13 109 0
	stfs 0,8(1)
	.loc 13 110 0
	stfs 1,12(1)
	.loc 13 111 0
	stfs 0,16(1)
.LBE6572:
.LBE6571:
	.loc 2 258 0
	bl _ZNK8idAngles6ToMat3Ev
.LVL1032:
.LBB6573:
.LBB6574:
	.loc 7 333 0
	li 10,0
.L485:
.LBB6575:
.LBB6576:
	.loc 4 424 0
	addi 11,1,56
.LVL1033:
.LBE6576:
.LBE6575:
	.loc 7 333 0
	cmpwi 7,10,24
.LBB6579:
.LBB6577:
	.loc 4 424 0
	lwzux 0,11,10
.LVL1034:
	mr 9,29
	stwux 0,9,10
.LBE6577:
.LBE6579:
	.loc 7 333 0
	addi 10,10,12
.LBB6580:
.LBB6578:
	.loc 4 425 0
	lwz 8,4(11)
	.loc 4 426 0
	lwz 0,8(11)
	.loc 4 425 0
	stw 8,4(9)
	.loc 4 426 0
	stw 0,8(9)
.LBE6578:
.LBE6580:
	.loc 7 333 0
	bne+ 7,.L485
	b .L482
.LVL1035:
.L506:
.LBE6574:
.LBE6573:
.LBB6581:
.LBB6511:
.LBB6509:
.LBB6508:
	.loc 12 245 0
	lis 3,.LC17@ha
.LVL1036:
	la 3,.LC17@l(3)
	b .L483
.LBE6508:
.LBE6509:
.LBE6511:
.LBE6581:
.LBE6584:
	.cfi_endproc
.LFE2814:
	.size	_ZN10idGameEdit28ParseSpawnArgsToRenderEntityEPK6idDictP14renderEntity_s, .-_ZN10idGameEdit28ParseSpawnArgsToRenderEntityEPK6idDictP14renderEntity_s
	.align 2
	.globl _ZN10idGameEdit24ParseSpawnArgsToRefSoundEPK6idDictP10refSound_t
	.type	_ZN10idGameEdit24ParseSpawnArgsToRefSoundEPK6idDictP10refSound_t, @function
_ZN10idGameEdit24ParseSpawnArgsToRefSoundEPK6idDictP10refSound_t:
.LFB2815:
	.loc 2 308 0
	.cfi_startproc
.LVL1037:
	stwu 1,-16(1)
.LCFI213:
	.cfi_def_cfa_offset 16
	mflr 0
	stw 31,12(1)
	mr 31,5
	.cfi_offset 31, -4
	.cfi_register 65, 0
	stw 30,8(1)
.LBB6662:
	.loc 2 311 0
	li 5,56
.LVL1038:
.LBE6662:
	.loc 2 308 0
	mr 30,4
	.cfi_offset 30, -8
.LBB6903:
	.loc 2 311 0
	mr 3,31
.LVL1039:
	li 4,0
.LVL1040:
.LBE6903:
	.loc 2 308 0
	stw 0,20(1)
.LBB6904:
	.loc 2 311 0
	.cfi_offset 65, 4
	bl memset
.LVL1041:
.LBB6663:
.LBB6664:
.LBB6665:
.LBB6666:
	.loc 12 241 0
	lis 4,.LC154@ha
	mr 3,30
	la 4,.LC154@l(4)
	bl _ZNK6idDict7FindKeyEPKc
.LVL1042:
	.loc 12 242 0
	cmpwi 0,3,0
	beq- 0,.L559
.LVL1043:
.LBB6667:
	.loc 2 5400 0
	lwz 9,4(3)
	lwz 3,4(9)
.LVL1044:
.LBE6667:
.LBE6666:
.LBE6665:
	.loc 12 249 0
	bl atof
.LVL1045:
.LBE6664:
.LBE6663:
.LBB6675:
.LBB6676:
.LBB6677:
.LBB6678:
	.loc 12 241 0
	lis 4,.LC155@ha
.LBE6678:
.LBE6677:
.LBE6676:
.LBE6675:
.LBB6699:
.LBB6670:
	.loc 12 249 0
	frsp 1,1
.LBE6670:
.LBE6699:
.LBB6700:
.LBB6690:
.LBB6685:
.LBB6680:
	.loc 12 241 0
	mr 3,30
	la 4,.LC155@l(4)
.LBE6680:
.LBE6685:
.LBE6690:
.LBE6700:
.LBB6701:
.LBB6671:
	.loc 12 249 0
	stfs 1,32(31)
.LVL1046:
.LBE6671:
.LBE6701:
.LBB6702:
.LBB6691:
.LBB6686:
.LBB6681:
	.loc 12 241 0
	bl _ZNK6idDict7FindKeyEPKc
.LVL1047:
	.loc 12 242 0
	cmpwi 0,3,0
	beq- 0,.L560
.L571:
.LVL1048:
.LBB6679:
	.loc 2 5400 0
	lwz 9,4(3)
	lwz 3,4(9)
.LVL1049:
.LBE6679:
.LBE6681:
.LBE6686:
	.loc 12 249 0
	bl atof
.LVL1050:
.LBE6691:
.LBE6702:
.LBB6703:
.LBB6704:
.LBB6705:
.LBB6706:
	.loc 12 241 0
	lis 4,.LC156@ha
.LBE6706:
.LBE6705:
.LBE6704:
.LBE6703:
.LBB6727:
.LBB6692:
	.loc 12 249 0
	frsp 1,1
.LBE6692:
.LBE6727:
.LBB6728:
.LBB6718:
.LBB6713:
.LBB6708:
	.loc 12 241 0
	mr 3,30
	la 4,.LC156@l(4)
.LBE6708:
.LBE6713:
.LBE6718:
.LBE6728:
.LBB6729:
.LBB6693:
	.loc 12 249 0
	stfs 1,36(31)
.LVL1051:
.LBE6693:
.LBE6729:
.LBB6730:
.LBB6719:
.LBB6714:
.LBB6709:
	.loc 12 241 0
	bl _ZNK6idDict7FindKeyEPKc
.LVL1052:
	.loc 12 242 0
	cmpwi 0,3,0
	beq- 0,.L561
.L572:
.LVL1053:
.LBB6707:
	.loc 2 5400 0
	lwz 9,4(3)
	lwz 3,4(9)
.LVL1054:
.LBE6707:
.LBE6709:
.LBE6714:
	.loc 12 249 0
	bl atof
.LVL1055:
.LBE6719:
.LBE6730:
.LBB6731:
.LBB6732:
.LBB6733:
.LBB6734:
	.loc 12 241 0
	lis 4,.LC157@ha
.LBE6734:
.LBE6733:
.LBE6732:
.LBE6731:
.LBB6753:
.LBB6720:
	.loc 12 249 0
	frsp 1,1
.LBE6720:
.LBE6753:
.LBB6754:
.LBB6746:
.LBB6741:
.LBB6736:
	.loc 12 241 0
	mr 3,30
	la 4,.LC157@l(4)
.LBE6736:
.LBE6741:
.LBE6746:
.LBE6754:
.LBB6755:
.LBB6721:
	.loc 12 249 0
	stfs 1,40(31)
.LVL1056:
.LBE6721:
.LBE6755:
.LBB6756:
.LBB6747:
.LBB6742:
.LBB6737:
	.loc 12 241 0
	bl _ZNK6idDict7FindKeyEPKc
.LVL1057:
	.loc 12 242 0
	cmpwi 0,3,0
	beq- 0,.L562
.L573:
.LVL1058:
.LBB6735:
	.loc 2 5400 0
	lwz 9,4(3)
	lwz 3,4(9)
.LVL1059:
.L545:
.LBE6735:
.LBE6737:
.LBE6742:
	.loc 12 249 0
	bl atof
.LBE6747:
.LBE6756:
	.loc 2 318 0
	lis 4,.LC118@ha
.LBB6757:
.LBB6748:
	.loc 12 249 0
	frsp 1,1
.LBE6748:
.LBE6757:
	.loc 2 318 0
	lis 5,.LC16@ha
	la 4,.LC118@l(4)
	la 5,.LC16@l(5)
	addi 6,31,4
	mr 3,30
.LBB6758:
.LBB6749:
	.loc 12 249 0
	stfs 1,44(31)
.LBE6749:
.LBE6758:
	.loc 2 318 0
	bl _ZNK6idDict9GetVectorEPKcS1_R6idVec3
	.loc 2 320 0
	li 0,0
	stw 0,0(31)
.LVL1060:
.LBB6759:
.LBB6760:
.LBB6761:
.LBB6762:
	.loc 12 241 0
	lis 4,.LC158@ha
	mr 3,30
	la 4,.LC158@l(4)
	bl _ZNK6idDict7FindKeyEPKc
.LVL1061:
	.loc 12 242 0
	cmpwi 0,3,0
	beq- 0,.L563
.LVL1062:
.LBB6763:
	.loc 2 5400 0
	lwz 9,4(3)
	lwz 3,4(9)
.LVL1063:
.LBE6763:
.LBE6762:
.LBE6761:
	.loc 12 249 0
	bl atof
.LVL1064:
.LBE6760:
.LBE6759:
.LBB6771:
.LBB6772:
.LBB6773:
.LBB6774:
	.loc 12 241 0
	lis 4,.LC159@ha
.LBE6774:
.LBE6773:
.LBE6772:
.LBE6771:
.LBB6795:
.LBB6766:
	.loc 12 249 0
	frsp 1,1
.LBE6766:
.LBE6795:
.LBB6796:
.LBB6786:
.LBB6781:
.LBB6776:
	.loc 12 241 0
	mr 3,30
	la 4,.LC159@l(4)
.LBE6776:
.LBE6781:
.LBE6786:
.LBE6796:
.LBB6797:
.LBB6767:
	.loc 12 249 0
	stfs 1,24(31)
.LVL1065:
.LBE6767:
.LBE6797:
.LBB6798:
.LBB6787:
.LBB6782:
.LBB6777:
	.loc 12 241 0
	bl _ZNK6idDict7FindKeyEPKc
.LVL1066:
	.loc 12 242 0
	cmpwi 0,3,0
	beq- 0,.L564
.L574:
.LVL1067:
.LBB6775:
	.loc 2 5400 0
	lwz 9,4(3)
	lwz 3,4(9)
.LVL1068:
.LBE6775:
.LBE6777:
.LBE6782:
	.loc 12 257 0
	bl atoi
.LVL1069:
.LBE6787:
.LBE6798:
.LBB6799:
.LBB6800:
.LBB6801:
.LBB6802:
	.loc 12 241 0
	lis 4,.LC160@ha
.LBE6802:
.LBE6801:
.LBE6800:
.LBE6799:
.LBB6819:
.LBB6788:
	.loc 12 257 0
	cntlzw 3,3
.LBE6788:
.LBE6819:
.LBB6820:
.LBB6814:
.LBB6809:
.LBB6804:
	.loc 12 241 0
	la 4,.LC160@l(4)
.LBE6804:
.LBE6809:
.LBE6814:
.LBE6820:
.LBB6821:
.LBB6789:
	.loc 12 257 0
	srwi 3,3,5
	xori 3,3,1
.LBE6789:
.LBE6821:
	.loc 2 326 0
	stb 3,28(31)
.LVL1070:
.LBB6822:
.LBB6815:
.LBB6810:
.LBB6805:
	.loc 12 241 0
	mr 3,30
	bl _ZNK6idDict7FindKeyEPKc
.LVL1071:
	.loc 12 242 0
	cmpwi 0,3,0
	beq- 0,.L565
.L575:
.LVL1072:
.LBB6803:
	.loc 2 5400 0
	lwz 9,4(3)
	lwz 3,4(9)
.LVL1073:
.L548:
.LBE6803:
.LBE6805:
.LBE6810:
	.loc 12 257 0
	bl atoi
.LBE6815:
.LBE6822:
	.loc 2 328 0
	cmpwi 7,3,0
	beq- 7,.L549
	.loc 2 329 0
	lwz 0,48(31)
	ori 0,0,16
	stw 0,48(31)
.L549:
.LVL1074:
.LBB6823:
.LBB6824:
.LBB6825:
.LBB6826:
	.loc 12 241 0
	lis 4,.LC161@ha
	mr 3,30
	la 4,.LC161@l(4)
	bl _ZNK6idDict7FindKeyEPKc
.LVL1075:
	.loc 12 242 0
	cmpwi 0,3,0
	beq- 0,.L566
.LVL1076:
.LBB6827:
	.loc 2 5400 0
	lwz 9,4(3)
	lwz 3,4(9)
.LVL1077:
.L550:
.LBE6827:
.LBE6826:
.LBE6825:
	.loc 12 257 0
	bl atoi
.LBE6824:
.LBE6823:
	.loc 2 331 0
	cmpwi 7,3,0
	beq- 7,.L551
	.loc 2 332 0
	lwz 0,48(31)
	ori 0,0,32
	stw 0,48(31)
.L551:
.LVL1078:
.LBB6831:
.LBB6832:
.LBB6833:
.LBB6834:
	.loc 12 241 0
	lis 4,.LC162@ha
	mr 3,30
	la 4,.LC162@l(4)
	bl _ZNK6idDict7FindKeyEPKc
.LVL1079:
	.loc 12 242 0
	cmpwi 0,3,0
	beq- 0,.L567
.LVL1080:
.LBB6835:
	.loc 2 5400 0
	lwz 9,4(3)
	lwz 3,4(9)
.LVL1081:
.L552:
.LBE6835:
.LBE6834:
.LBE6833:
	.loc 12 257 0
	bl atoi
.LBE6832:
.LBE6831:
	.loc 2 334 0
	cmpwi 7,3,0
	beq- 7,.L553
	.loc 2 335 0
	lwz 0,48(31)
	ori 0,0,4
	stw 0,48(31)
.L553:
.LVL1082:
.LBB6839:
.LBB6840:
.LBB6841:
.LBB6842:
	.loc 12 241 0
	lis 4,.LC163@ha
	mr 3,30
	la 4,.LC163@l(4)
	bl _ZNK6idDict7FindKeyEPKc
.LVL1083:
	.loc 12 242 0
	cmpwi 0,3,0
	beq- 0,.L568
.LVL1084:
.LBB6843:
	.loc 2 5400 0
	lwz 9,4(3)
	lwz 3,4(9)
.LVL1085:
.L554:
.LBE6843:
.LBE6842:
.LBE6841:
	.loc 12 257 0
	bl atoi
.LBE6840:
.LBE6839:
	.loc 2 337 0
	cmpwi 7,3,0
	beq- 7,.L555
	.loc 2 338 0
	lwz 0,48(31)
	ori 0,0,8
	stw 0,48(31)
.L555:
.LVL1086:
.LBB6847:
.LBB6848:
.LBB6849:
.LBB6850:
	.loc 12 241 0
	lis 4,.LC164@ha
	mr 3,30
	la 4,.LC164@l(4)
	bl _ZNK6idDict7FindKeyEPKc
.LVL1087:
	.loc 12 242 0
	cmpwi 0,3,0
	beq- 0,.L569
.LVL1088:
.LBB6851:
	.loc 2 5400 0
	lwz 9,4(3)
	lwz 3,4(9)
.LVL1089:
.L556:
.LBE6851:
.LBE6850:
.LBE6849:
	.loc 12 257 0
	bl atoi
.LBE6848:
.LBE6847:
	.loc 2 340 0
	cmpwi 7,3,0
	beq- 7,.L557
	.loc 2 341 0
	lwz 0,48(31)
	ori 0,0,128
	stw 0,48(31)
.L557:
.LVL1090:
.LBB6855:
.LBB6856:
.LBB6857:
.LBB6858:
	.loc 12 241 0
	lis 4,.LC165@ha
	mr 3,30
	la 4,.LC165@l(4)
	bl _ZNK6idDict7FindKeyEPKc
.LVL1091:
	.loc 12 242 0
	cmpwi 0,3,0
	beq- 0,.L570
.LVL1092:
.LBB6859:
	.loc 2 5400 0
	lwz 9,4(3)
	lwz 3,4(9)
.LVL1093:
.LBE6859:
.LBE6858:
.LBE6857:
	.loc 12 253 0
	bl atoi
.LVL1094:
.LBE6856:
.LBE6855:
.LBB6863:
.LBB6864:
	.loc 12 241 0
	lis 4,.LC166@ha
.LBE6864:
.LBE6863:
	.loc 2 343 0
	stw 3,52(31)
.LVL1095:
.LBB6868:
.LBB6865:
	.loc 12 241 0
	la 4,.LC166@l(4)
	mr 3,30
	bl _ZNK6idDict7FindKeyEPKc
.LBE6865:
.LBE6868:
.LBE6904:
	.loc 2 349 0
	lwz 0,20(1)
	lwz 30,8(1)
.LVL1096:
	mtlr 0
	lwz 31,12(1)
.LVL1097:
	addi 1,1,16
	.cfi_remember_state
.LCFI214:
	.cfi_def_cfa_offset 0
	.cfi_restore 31
	.cfi_restore 30
	blr
.LVL1098:
.L559:
.LCFI215:
	.cfi_restore_state
.LBB6905:
.LBB6869:
.LBB6672:
.LBB6669:
.LBB6668:
	.loc 12 245 0
	lis 3,.LC17@ha
.LVL1099:
	la 3,.LC17@l(3)
.LBE6668:
.LBE6669:
	.loc 12 249 0
	bl atof
.LBE6672:
.LBE6869:
.LBB6870:
.LBB6694:
.LBB6687:
.LBB6682:
	.loc 12 241 0
	lis 4,.LC155@ha
.LBE6682:
.LBE6687:
.LBE6694:
.LBE6870:
.LBB6871:
.LBB6673:
	.loc 12 249 0
	frsp 1,1
.LBE6673:
.LBE6871:
.LBB6872:
.LBB6695:
.LBB6688:
.LBB6683:
	.loc 12 241 0
	mr 3,30
	la 4,.LC155@l(4)
.LBE6683:
.LBE6688:
.LBE6695:
.LBE6872:
.LBB6873:
.LBB6674:
	.loc 12 249 0
	stfs 1,32(31)
.LVL1100:
.LBE6674:
.LBE6873:
.LBB6874:
.LBB6696:
.LBB6689:
.LBB6684:
	.loc 12 241 0
	bl _ZNK6idDict7FindKeyEPKc
.LVL1101:
	.loc 12 242 0
	cmpwi 0,3,0
	bne+ 0,.L571
.L560:
	.loc 12 245 0
	lis 3,.LC17@ha
.LVL1102:
	la 3,.LC17@l(3)
.LBE6684:
.LBE6689:
	.loc 12 249 0
	bl atof
.LBE6696:
.LBE6874:
.LBB6875:
.LBB6722:
.LBB6715:
.LBB6710:
	.loc 12 241 0
	lis 4,.LC156@ha
.LBE6710:
.LBE6715:
.LBE6722:
.LBE6875:
.LBB6876:
.LBB6697:
	.loc 12 249 0
	frsp 1,1
.LBE6697:
.LBE6876:
.LBB6877:
.LBB6723:
.LBB6716:
.LBB6711:
	.loc 12 241 0
	mr 3,30
	la 4,.LC156@l(4)
.LBE6711:
.LBE6716:
.LBE6723:
.LBE6877:
.LBB6878:
.LBB6698:
	.loc 12 249 0
	stfs 1,36(31)
.LVL1103:
.LBE6698:
.LBE6878:
.LBB6879:
.LBB6724:
.LBB6717:
.LBB6712:
	.loc 12 241 0
	bl _ZNK6idDict7FindKeyEPKc
.LVL1104:
	.loc 12 242 0
	cmpwi 0,3,0
	bne+ 0,.L572
.L561:
	.loc 12 245 0
	lis 3,.LC17@ha
.LVL1105:
	la 3,.LC17@l(3)
.LBE6712:
.LBE6717:
	.loc 12 249 0
	bl atof
.LBE6724:
.LBE6879:
.LBB6880:
.LBB6750:
.LBB6743:
.LBB6738:
	.loc 12 241 0
	lis 4,.LC157@ha
.LBE6738:
.LBE6743:
.LBE6750:
.LBE6880:
.LBB6881:
.LBB6725:
	.loc 12 249 0
	frsp 1,1
.LBE6725:
.LBE6881:
.LBB6882:
.LBB6751:
.LBB6744:
.LBB6739:
	.loc 12 241 0
	mr 3,30
	la 4,.LC157@l(4)
.LBE6739:
.LBE6744:
.LBE6751:
.LBE6882:
.LBB6883:
.LBB6726:
	.loc 12 249 0
	stfs 1,40(31)
.LVL1106:
.LBE6726:
.LBE6883:
.LBB6884:
.LBB6752:
.LBB6745:
.LBB6740:
	.loc 12 241 0
	bl _ZNK6idDict7FindKeyEPKc
.LVL1107:
	.loc 12 242 0
	cmpwi 0,3,0
	bne+ 0,.L573
.L562:
	.loc 12 245 0
	lis 3,.LC17@ha
.LVL1108:
	la 3,.LC17@l(3)
	b .L545
.LVL1109:
.L563:
.LBE6740:
.LBE6745:
.LBE6752:
.LBE6884:
.LBB6885:
.LBB6768:
.LBB6765:
.LBB6764:
	lis 3,.LC153@ha
.LVL1110:
	la 3,.LC153@l(3)
.LBE6764:
.LBE6765:
	.loc 12 249 0
	bl atof
.LBE6768:
.LBE6885:
.LBB6886:
.LBB6790:
.LBB6783:
.LBB6778:
	.loc 12 241 0
	lis 4,.LC159@ha
.LBE6778:
.LBE6783:
.LBE6790:
.LBE6886:
.LBB6887:
.LBB6769:
	.loc 12 249 0
	frsp 1,1
.LBE6769:
.LBE6887:
.LBB6888:
.LBB6791:
.LBB6784:
.LBB6779:
	.loc 12 241 0
	mr 3,30
	la 4,.LC159@l(4)
.LBE6779:
.LBE6784:
.LBE6791:
.LBE6888:
.LBB6889:
.LBB6770:
	.loc 12 249 0
	stfs 1,24(31)
.LVL1111:
.LBE6770:
.LBE6889:
.LBB6890:
.LBB6792:
.LBB6785:
.LBB6780:
	.loc 12 241 0
	bl _ZNK6idDict7FindKeyEPKc
.LVL1112:
	.loc 12 242 0
	cmpwi 0,3,0
	bne+ 0,.L574
.L564:
	.loc 12 245 0
	lis 3,.LC17@ha
.LVL1113:
	la 3,.LC17@l(3)
.LBE6780:
.LBE6785:
	.loc 12 257 0
	bl atoi
.LBE6792:
.LBE6890:
.LBB6891:
.LBB6816:
.LBB6811:
.LBB6806:
	.loc 12 241 0
	lis 4,.LC160@ha
.LBE6806:
.LBE6811:
.LBE6816:
.LBE6891:
.LBB6892:
.LBB6793:
	.loc 12 257 0
	cntlzw 3,3
.LBE6793:
.LBE6892:
.LBB6893:
.LBB6817:
.LBB6812:
.LBB6807:
	.loc 12 241 0
	la 4,.LC160@l(4)
.LBE6807:
.LBE6812:
.LBE6817:
.LBE6893:
.LBB6894:
.LBB6794:
	.loc 12 257 0
	srwi 3,3,5
	xori 3,3,1
.LBE6794:
.LBE6894:
	.loc 2 326 0
	stb 3,28(31)
.LVL1114:
.LBB6895:
.LBB6818:
.LBB6813:
.LBB6808:
	.loc 12 241 0
	mr 3,30
	bl _ZNK6idDict7FindKeyEPKc
.LVL1115:
	.loc 12 242 0
	cmpwi 0,3,0
	bne+ 0,.L575
.L565:
	.loc 12 245 0
	lis 3,.LC17@ha
.LVL1116:
	la 3,.LC17@l(3)
	b .L548
.LVL1117:
.L566:
.LBE6808:
.LBE6813:
.LBE6818:
.LBE6895:
.LBB6896:
.LBB6830:
.LBB6829:
.LBB6828:
	lis 3,.LC17@ha
.LVL1118:
	la 3,.LC17@l(3)
	b .L550
.LVL1119:
.L567:
.LBE6828:
.LBE6829:
.LBE6830:
.LBE6896:
.LBB6897:
.LBB6838:
.LBB6837:
.LBB6836:
	lis 3,.LC17@ha
.LVL1120:
	la 3,.LC17@l(3)
	b .L552
.LVL1121:
.L568:
.LBE6836:
.LBE6837:
.LBE6838:
.LBE6897:
.LBB6898:
.LBB6846:
.LBB6845:
.LBB6844:
	lis 3,.LC17@ha
.LVL1122:
	la 3,.LC17@l(3)
	b .L554
.LVL1123:
.L569:
.LBE6844:
.LBE6845:
.LBE6846:
.LBE6898:
.LBB6899:
.LBB6854:
.LBB6853:
.LBB6852:
	lis 3,.LC17@ha
.LVL1124:
	la 3,.LC17@l(3)
	b .L556
.LVL1125:
.L570:
.LBE6852:
.LBE6853:
.LBE6854:
.LBE6899:
.LBB6900:
.LBB6862:
.LBB6861:
.LBB6860:
	lis 3,.LC17@ha
.LVL1126:
	la 3,.LC17@l(3)
.LBE6860:
.LBE6861:
	.loc 12 253 0
	bl atoi
.LBE6862:
.LBE6900:
.LBB6901:
.LBB6866:
	.loc 12 241 0
	lis 4,.LC166@ha
.LBE6866:
.LBE6901:
	.loc 2 343 0
	stw 3,52(31)
.LVL1127:
.LBB6902:
.LBB6867:
	.loc 12 241 0
	la 4,.LC166@l(4)
	mr 3,30
	bl _ZNK6idDict7FindKeyEPKc
.LBE6867:
.LBE6902:
.LBE6905:
	.loc 2 349 0
	lwz 0,20(1)
	lwz 30,8(1)
.LVL1128:
	mtlr 0
	lwz 31,12(1)
.LVL1129:
	addi 1,1,16
	.cfi_restore 30
	.cfi_restore 31
.LCFI216:
	.cfi_def_cfa_offset 0
	blr
	.cfi_endproc
.LFE2815:
	.size	_ZN10idGameEdit24ParseSpawnArgsToRefSoundEPK6idDictP10refSound_t, .-_ZN10idGameEdit24ParseSpawnArgsToRefSoundEPK6idDictP10refSound_t
	.align 2
	.globl _ZN8idEntity21FixupLocalizedStringsEv
	.type	_ZN8idEntity21FixupLocalizedStringsEv, @function
_ZN8idEntity21FixupLocalizedStringsEv:
.LFB2829:
	.loc 2 434 0
	.cfi_startproc
.LVL1130:
	mflr 0
	stwu 1,-40(1)
.LCFI217:
	.cfi_def_cfa_offset 40
	.cfi_register 65, 0
	stw 27,20(1)
	mr 27,3
	.cfi_offset 27, -20
.LVL1131:
	stw 0,44(1)
	stw 24,8(1)
	stw 25,12(1)
	stw 26,16(1)
	stw 28,24(1)
	stw 29,28(1)
	stw 30,32(1)
	stw 31,36(1)
.LBB6906:
	.loc 2 435 0
	lwz 0,100(3)
	.cfi_offset 31, -4
	.cfi_offset 30, -8
	.cfi_offset 29, -12
	.cfi_offset 28, -16
	.cfi_offset 26, -24
	.cfi_offset 25, -28
	.cfi_offset 24, -32
	.cfi_offset 65, 4
	cmpwi 7,0,0
	ble- 7,.L576
	lis 26,.LC167@ha
	li 31,0
	la 26,.LC167@l(26)
.LBB6907:
	.loc 2 438 0
	lis 24,common@ha
	addi 25,3,100
	b .L579
.LVL1132:
.L578:
.LBE6907:
	.loc 2 435 0
	lwz 0,100(27)
	cmpw 7,31,0
	bge- 7,.L576
.LVL1133:
.L579:
.LBB6918:
.LBB6908:
.LBB6909:
.LBB6910:
	.loc 6 573 0
	lwz 28,112(27)
	.loc 2 434 0
	slwi 29,31,3
.LBE6910:
.LBE6909:
.LBE6908:
	.loc 2 437 0
	mr 4,26
	li 5,5
.LBB6913:
.LBB6912:
.LBB6911:
	.loc 6 573 0
	add 30,28,29
.LVL1134:
.LBE6911:
.LBE6912:
.LBE6913:
.LBE6918:
	.loc 2 435 0
	addi 31,31,1
.LVL1135:
.LBB6919:
.LBB6914:
	.loc 2 5400 0
	lwz 9,4(30)
.LBE6914:
	.loc 2 437 0
	lwz 3,4(9)
	bl _ZN5idStr4CmpnEPKcS1_i
.LVL1136:
	cmpwi 7,3,0
	bne+ 7,.L578
.LVL1137:
	.loc 2 438 0
	lwz 3,common@l(24)
.LBB6915:
	.loc 2 5400 0
	lwzx 9,28,29
.LBE6915:
	.loc 2 438 0
	lwz 11,0(3)
.LBB6916:
	.loc 2 5400 0
	lwz 29,4(9)
.LBE6916:
	.loc 2 438 0
	lwz 0,104(11)
	mtctr 0
	bctrl
.LVL1138:
.LBB6917:
	.loc 2 5400 0
	lwz 9,4(30)
.LBE6917:
	.loc 2 438 0
	lwz 4,4(9)
	bl _ZNK10idLangDict9GetStringEPKc
.LVL1139:
	mr 4,29
	mr 5,3
	mr 3,25
	bl _ZN6idDict3SetEPKcS1_
.LVL1140:
.LBE6919:
	.loc 2 435 0
	lwz 0,100(27)
	cmpw 7,31,0
	blt+ 7,.L579
.LVL1141:
.L576:
.LBE6906:
	.loc 2 441 0
	lwz 0,44(1)
	lwz 24,8(1)
	mtlr 0
	lwz 25,12(1)
	lwz 26,16(1)
	lwz 27,20(1)
.LVL1142:
	lwz 28,24(1)
	lwz 29,28(1)
	lwz 30,32(1)
	lwz 31,36(1)
	addi 1,1,40
.LCFI218:
	.cfi_def_cfa_offset 0
	.cfi_restore 31
	.cfi_restore 30
	.cfi_restore 29
	.cfi_restore 28
	.cfi_restore 27
	.cfi_restore 26
	.cfi_restore 25
	.cfi_restore 24
	blr
	.cfi_endproc
.LFE2829:
	.size	_ZN8idEntity21FixupLocalizedStringsEv, .-_ZN8idEntity21FixupLocalizedStringsEv
	.section	.text._ZN12signalList_tC2Ev,"axG",@progbits,_ZN12signalList_tC5Ev,comdat
	.align 2
	.weak	_ZN12signalList_tC2Ev
	.type	_ZN12signalList_tC2Ev, @function
_ZN12signalList_tC2Ev:
.LFB2841:
	.file 17 "d:/Data/Nintendo/DoomGX/src/game/Entity.h"
	.loc 17 101 0
	.cfi_startproc
.LVL1143:
.LBB6928:
.LBB6929:
.LBB6930:
.LBB6931:
.LBB6932:
	.loc 6 197 0
	li 11,10
.LBE6932:
.LBE6931:
	.loc 6 159 0
	li 9,16
.LBB6935:
.LBB6933:
	.loc 6 197 0
	mtctr 11
	li 0,0
.LVL1144:
.L582:
.LBE6933:
.LBE6935:
	.loc 6 159 0
	stw 9,8(3)
.LBB6936:
.LBB6934:
	.loc 6 197 0
	stw 0,12(3)
	.loc 6 198 0
	stw 0,0(3)
	.loc 6 199 0
	stw 0,4(3)
	addi 3,3,16
.LBE6934:
.LBE6936:
.LBE6930:
.LBE6929:
	.loc 17 101 0
	bdnz .L582
.LBE6928:
	blr
	.cfi_endproc
.LFE2841:
	.size	_ZN12signalList_tC2Ev, .-_ZN12signalList_tC2Ev
	.section	".text"
	.align 2
	.globl _ZNK8idEntity16GetEntityDefNameEv
	.type	_ZNK8idEntity16GetEntityDefNameEv, @function
_ZNK8idEntity16GetEntityDefNameEv:
.LFB2843:
	.loc 2 779 0
	.cfi_startproc
.LVL1145:
	mflr 0
	stwu 1,-8(1)
.LCFI219:
	.cfi_def_cfa_offset 8
	.cfi_register 65, 0
	stw 0,12(1)
	.loc 2 780 0
	lwz 5,8(3)
	cmpwi 7,5,0
	blt- 7,.L586
	.cfi_offset 65, 4
	.loc 2 783 0
	lis 9,declManager@ha
	li 4,4
	lwz 3,declManager@l(9)
.LVL1146:
	li 6,0
	lwz 9,0(3)
	lwz 0,76(9)
	mtctr 0
	bctrl
	.loc 2 5400 0
	lwz 3,4(3)
.LBB6937:
.LBB6938:
	.file 18 "d:/Data/Nintendo/DoomGX/src/game/../idlib/../framework/DeclManager.h"
	.loc 18 140 0
	lwz 9,0(3)
	lwz 0,8(9)
	mtctr 0
	bctrl
.LBE6938:
.LBE6937:
	.loc 2 784 0
	lwz 0,12(1)
	addi 1,1,8
	.cfi_remember_state
.LCFI220:
	.cfi_def_cfa_offset 0
	mtlr 0
	blr
.LVL1147:
.L586:
.LCFI221:
	.cfi_restore_state
	lwz 0,12(1)
	.loc 2 781 0
	lis 3,.LC168@ha
.LVL1148:
	la 3,.LC168@l(3)
	.loc 2 784 0
	mtlr 0
	addi 1,1,8
.LCFI222:
	.cfi_def_cfa_offset 0
	blr
	.cfi_endproc
.LFE2843:
	.size	_ZNK8idEntity16GetEntityDefNameEv, .-_ZNK8idEntity16GetEntityDefNameEv
	.align 2
	.globl _ZN8idEntity7SetNameEPKc
	.type	_ZN8idEntity7SetNameEPKc, @function
_ZN8idEntity7SetNameEPKc:
.LFB2844:
	.loc 2 791 0
	.cfi_startproc
.LVL1149:
	mflr 0
	stwu 1,-24(1)
.LCFI223:
	.cfi_def_cfa_offset 24
	.cfi_register 65, 0
	stw 29,12(1)
	mr 29,4
	.cfi_offset 29, -12
	stw 31,20(1)
	mr 31,3
	.cfi_offset 31, -4
	stw 0,28(1)
	stw 30,16(1)
	.loc 2 792 0
	lwz 0,68(3)
	.cfi_offset 30, -8
	.cfi_offset 65, 4
	cmpwi 7,0,0
	bne- 7,.L593
.LVL1150:
.L588:
	.loc 2 797 0
	addi 3,31,68
	mr 4,29
	bl _ZN5idStraSEPKc
	.loc 2 798 0
	lwz 0,68(31)
	cmpwi 7,0,0
	bne- 7,.L594
	.loc 2 805 0
	lwz 0,28(1)
	lwz 29,12(1)
.LVL1151:
	mtlr 0
	lwz 30,16(1)
	lwz 31,20(1)
.LVL1152:
	addi 1,1,24
	.cfi_remember_state
.LCFI224:
	.cfi_def_cfa_offset 0
	.cfi_restore 31
	.cfi_restore 30
	.cfi_restore 29
	blr
.LVL1153:
.L594:
.LCFI225:
	.cfi_restore_state
.LBB6948:
.LBB6949:
.LBB6950:
.LBB6951:
	.file 19 "d:/Data/Nintendo/DoomGX/src/game/../idlib/../idlib/Str.h"
	.loc 19 653 0
	lwz 3,72(31)
	lis 4,.LC169@ha
	la 4,.LC169@l(4)
	bl _ZN5idStr3CmpEPKcS1_
.LBE6951:
.LBE6950:
	.loc 2 799 0
	cmpwi 7,3,0
	bne- 7,.L595
.L590:
	.loc 2 800 0
	lis 3,gameLocal@ha
.LBE6949:
	.loc 2 5400 0
	lwz 5,72(31)
.LBB6954:
	.loc 2 800 0
	la 30,gameLocal@l(3)
	lis 4,.LC171@ha
	mr 3,30
	la 4,.LC171@l(4)
	mr 6,5
	crxor 6,6,6
	bl _ZNK11idGameLocal5ErrorEPKcz
.L591:
	.loc 2 802 0
	lwz 4,72(31)
	mr 3,30
	mr 5,31
	bl _ZN11idGameLocal15AddEntityToHashEPKcP8idEntity
.LVL1154:
	.loc 2 803 0
	lwz 4,72(31)
	lis 3,gameLocal+33476@ha
	mr 5,31
	la 3,gameLocal+33476@l(3)
	bl _ZN9idProgram9SetEntityEPKcP8idEntity
.LBE6954:
.LBE6948:
	.loc 2 805 0
	lwz 0,28(1)
	lwz 29,12(1)
.LVL1155:
	mtlr 0
	lwz 30,16(1)
	lwz 31,20(1)
.LVL1156:
	addi 1,1,24
	.cfi_remember_state
	.cfi_restore 29
	.cfi_restore 30
	.cfi_restore 31
.LCFI226:
	.cfi_def_cfa_offset 0
	blr
.LVL1157:
.L593:
.LCFI227:
	.cfi_restore_state
	.loc 2 793 0
	lwz 4,72(3)
.LVL1158:
	lis 3,gameLocal@ha
.LVL1159:
	mr 5,31
	la 3,gameLocal@l(3)
	bl _ZN11idGameLocal20RemoveEntityFromHashEPKcP8idEntity
.LVL1160:
	.loc 2 794 0
	lwz 4,72(31)
	lis 3,gameLocal+33476@ha
	li 5,0
	la 3,gameLocal+33476@l(3)
	bl _ZN9idProgram9SetEntityEPKcP8idEntity
	b .L588
.LVL1161:
.L595:
.LBB6956:
.LBB6955:
.LBB6952:
.LBB6953:
	.loc 19 653 0
	lwz 3,72(31)
	lis 4,.LC170@ha
	la 4,.LC170@l(4)
	bl _ZN5idStr3CmpEPKcS1_
.LBE6953:
.LBE6952:
	.loc 2 799 0
	cmpwi 7,3,0
	beq- 7,.L590
	lis 30,gameLocal@ha
	la 30,gameLocal@l(30)
	b .L591
.LBE6955:
.LBE6956:
	.cfi_endproc
.LFE2844:
	.size	_ZN8idEntity7SetNameEPKc, .-_ZN8idEntity7SetNameEPKc
	.align 2
	.globl _ZN8idEntity13Event_SetNameEPKc
	.type	_ZN8idEntity13Event_SetNameEPKc, @function
_ZN8idEntity13Event_SetNameEPKc:
.LFB2979:
	.loc 2 3720 0
	.cfi_startproc
.LVL1162:
	.loc 2 3722 0
	.loc 2 3721 0
	b _ZN8idEntity7SetNameEPKc
.LVL1163:
.LVL1164:
	.cfi_endproc
.LFE2979:
	.size	_ZN8idEntity13Event_SetNameEPKc, .-_ZN8idEntity13Event_SetNameEPKc
	.align 2
	.globl _ZN8idEntity7RestoreEP13idRestoreGame
	.type	_ZN8idEntity7RestoreEP13idRestoreGame, @function
_ZN8idEntity7RestoreEP13idRestoreGame:
.LFB2839:
	.loc 2 693 0
	.cfi_startproc
	.cfi_personality 0,__gxx_personality_v0
	.cfi_lsda 0,.LLSDA2839
.LVL1165:
	stwu 1,-112(1)
.LCFI228:
	.cfi_def_cfa_offset 112
.LVL1166:
	mflr 0
.LBB7005:
.LBB7006:
.LBB7007:
.LBB7008:
	.loc 19 357 0
	li 9,20
.LBE7008:
.LBE7007:
.LBE7006:
.LBE7005:
	.loc 2 693 0
	mfcr 12
	stw 30,104(1)
	mr 30,3
	.cfi_offset 30, -8
	.cfi_register 70, 12
	.cfi_register 65, 0
	stw 0,116(1)
.LBB7107:
	.loc 2 698 0
	mr 3,4
.LVL1167:
.LBB7017:
.LBB7013:
.LBB7009:
	.loc 19 356 0
	li 0,0
	.cfi_offset 65, 4
.LBE7009:
.LBE7013:
.LBE7017:
.LBE7107:
	.loc 2 693 0
	stw 28,96(1)
.LBB7108:
.LBB7018:
.LBB7014:
.LBB7010:
	.loc 19 357 0
	stw 9,24(1)
.LBE7010:
.LBE7014:
.LBE7018:
.LBE7108:
	.loc 2 693 0
	mr 28,4
	.cfi_offset 28, -16
.LBB7109:
.LBB7019:
.LBB7015:
.LBB7011:
	.loc 19 358 0
	addi 9,1,28
.LBE7011:
.LBE7015:
.LBE7019:
	.loc 2 698 0
	addi 4,30,4
.LVL1168:
.LBE7109:
	.loc 2 693 0
	stw 27,92(1)
	addi 27,1,16
	.cfi_offset 27, -20
	stw 19,60(1)
	stw 20,64(1)
	stw 21,68(1)
	stw 22,72(1)
	stw 23,76(1)
	stw 24,80(1)
	stw 25,84(1)
	stw 26,88(1)
	stw 29,100(1)
	stw 31,108(1)
	stw 12,56(1)
.LBB7110:
.LBB7020:
.LBB7016:
.LBB7012:
	.loc 19 356 0
	stw 0,16(1)
	.loc 19 358 0
	stw 9,20(1)
	.loc 19 359 0
	stb 0,28(1)
.LEHB8:
.LBE7012:
.LBE7016:
.LBE7020:
	.loc 2 698 0
	.cfi_offset 70, -56
	.cfi_offset 31, -4
	.cfi_offset 29, -12
	.cfi_offset 26, -24
	.cfi_offset 25, -28
	.cfi_offset 24, -32
	.cfi_offset 23, -36
	.cfi_offset 22, -40
	.cfi_offset 21, -44
	.cfi_offset 20, -48
	.cfi_offset 19, -52
	bl _ZN13idRestoreGame7ReadIntERi
.LVL1169:
	.loc 2 699 0
	mr 3,28
	addi 4,30,8
	addi 27,1,16
	bl _ZN13idRestoreGame7ReadIntERi
	.loc 2 703 0
	mr 3,28
	addi 4,30,60
	addi 27,1,16
	bl _ZN13idRestoreGame7ReadIntERi
	.loc 2 704 0
	mr 3,28
	addi 4,30,64
	addi 27,1,16
	bl _ZN13idRestoreGame7ReadIntERi
	.loc 2 706 0
	mr 3,28
	addi 4,30,100
	addi 27,1,16
	bl _ZN13idRestoreGame8ReadDictEP6idDict
	.loc 2 707 0
	mr 3,28
	addi 4,30,68
	addi 27,1,16
	bl _ZN13idRestoreGame10ReadStringER5idStr
	.loc 2 708 0
	lwz 4,72(30)
	mr 3,30
	addi 27,1,16
	bl _ZN8idEntity7SetNameEPKc
	.loc 2 710 0
	addi 3,30,144
	mr 4,28
	addi 27,1,16
	bl _ZN14idScriptObject7RestoreEP13idRestoreGame
	.loc 2 712 0
	mr 3,28
	addi 4,30,152
	addi 27,1,16
	bl _ZN13idRestoreGame7ReadIntERi
	.loc 2 713 0
	mr 3,28
	addi 4,30,156
	addi 27,1,16
	bl _ZN13idRestoreGame7ReadIntERi
	.loc 2 714 0
	mr 3,28
	addi 4,30,160
	addi 27,1,16
	bl _ZN13idRestoreGame8ReadBoolERb
	.loc 2 716 0
	mr 3,28
	addi 4,30,168
	addi 27,1,16
	bl _ZN13idRestoreGame10ReadObjectERP7idClass
	.loc 2 718 0
	mr 3,28
	addi 4,30,188
	addi 27,1,16
	bl _ZN13idRestoreGame7ReadIntERi
.LVL1170:
.LBB7021:
.LBB7022:
	.loc 6 193 0
	lwz 3,184(30)
	cmpwi 7,3,0
	beq- 7,.L598
	.loc 6 194 0
	bl _ZdaPv
.L598:
	.loc 6 197 0
	li 0,0
.LBE7022:
.LBE7021:
	.loc 2 721 0
	mr 3,28
.LBB7025:
.LBB7023:
	.loc 6 197 0
	stw 0,184(30)
.LBE7023:
.LBE7025:
	.loc 2 721 0
	addi 4,1,12
.LBB7026:
.LBB7024:
	.loc 6 198 0
	stw 0,172(30)
	addi 27,1,16
	.loc 6 199 0
	stw 0,176(30)
.LBE7024:
.LBE7026:
	.loc 2 721 0
	bl _ZN13idRestoreGame7ReadIntERi
.LVL1171:
	.loc 2 722 0
	lwz 31,12(1)
.LVL1172:
.LBB7027:
.LBB7028:
.LBB7029:
.LBB7030:
	.loc 6 375 0
	cmpwi 4,31,0
	ble- 4,.L639
	.loc 6 380 0
	lwz 0,176(30)
	cmpw 7,31,0
	beq- 7,.L602
	.loc 6 387 0
	lwz 0,172(30)
	.loc 6 385 0
	lwz 29,184(30)
.LVL1173:
	.loc 6 387 0
	cmpw 7,31,0
	.loc 6 386 0
	stw 31,176(30)
	.loc 6 387 0
	blt- 7,.L640
.L603:
	.loc 6 392 0
	slwi 3,31,2
	addi 27,1,16
	bl _Znaj
.LVL1174:
	beq- 4,.L604
.LBB7031:
.LBB7032:
	.loc 10 590 0
	mtctr 31
.LBE7032:
.LBE7031:
	.loc 2 693 0
	addi 9,3,-4
.LBB7034:
.LBB7033:
	.loc 10 590 0
	li 0,0
.L605:
	stwu 0,4(9)
.LBE7033:
.LBE7034:
	.loc 6 392 0
	bdnz .L605
.L604:
	.loc 6 393 0
	lwz 0,172(30)
	.loc 6 392 0
	stw 3,184(30)
.LVL1175:
	.loc 6 393 0
	cmpwi 7,0,0
	ble- 7,.L606
	.loc 2 693 0
	addi 11,29,-4
.LBB7035:
.LBB7036:
	.loc 6 393 0
	li 9,0
	b .L607
.LVL1176:
.L641:
.LBE7036:
.LBE7035:
	lwz 3,184(30)
.LVL1177:
.L607:
	.loc 6 394 0
	lwzu 10,4(11)
	slwi 0,9,2
	.loc 6 393 0
	addi 9,9,1
.LVL1178:
	.loc 6 394 0
	stwx 10,3,0
	.loc 6 393 0
	lwz 0,172(30)
	cmpw 7,9,0
	blt+ 7,.L641
.LVL1179:
.L606:
	.loc 6 398 0
	cmpwi 7,29,0
	beq- 7,.L638
	.loc 6 399 0
	mr 3,29
	bl _ZdaPv
.L638:
	lwz 0,12(1)
.LVL1180:
.L601:
.LBE7030:
.LBE7029:
.LBE7028:
.LBE7027:
	.loc 2 723 0
	cmpwi 7,0,0
.LBB7051:
.LBB7047:
	.loc 6 302 0
	stw 31,172(30)
.LVL1181:
.LBE7047:
.LBE7051:
	.loc 2 723 0
	ble- 7,.L609
.L628:
.LBB7052:
.LBB7048:
.LBB7044:
.LBB7041:
.LBB7039:
.LBB7037:
	.loc 6 393 0
	li 31,0
.LVL1182:
.L610:
.LBE7037:
.LBE7039:
.LBE7041:
.LBE7044:
.LBE7048:
.LBE7052:
.LBB7053:
.LBB7054:
	.loc 6 589 0
	lwz 4,184(30)
	.loc 2 693 0
	slwi 0,31,2
.LBE7054:
.LBE7053:
.LBB7055:
.LBB7056:
	.loc 10 600 0
	mr 3,28
	addi 27,1,16
	add 4,4,0
	bl _ZN13idRestoreGame7ReadIntERi
.LVL1183:
.LBE7056:
.LBE7055:
	.loc 2 723 0
	lwz 0,12(1)
	addi 31,31,1
.LVL1184:
	cmpw 7,0,31
	bgt+ 7,.L610
.LVL1185:
.L609:
	.loc 2 727 0
	addi 31,30,192
	mr 3,28
	mr 4,31
	li 5,2
	addi 27,1,16
	bl _ZN13idRestoreGame4ReadEPvi
	.loc 2 728 0
	mr 3,31
	li 4,2
	addi 27,1,16
	bl _Z14LittleBitFieldPvi
	.loc 2 730 0
	addi 20,30,196
	mr 3,28
	mr 4,20
	addi 27,1,16
	bl _ZN13idRestoreGame16ReadRenderEntityER14renderEntity_s
	.loc 2 731 0
	mr 3,28
	addi 4,30,412
	addi 27,1,16
	bl _ZN13idRestoreGame7ReadIntERi
	.loc 2 732 0
	mr 3,28
	addi 4,30,416
	addi 27,1,16
	bl _ZN13idRestoreGame12ReadRefSoundER10refSound_t
	.loc 2 734 0
	mr 3,28
	addi 4,30,588
	addi 27,1,16
	bl _ZN13idRestoreGame10ReadObjectERP7idClass
	.loc 2 735 0
	mr 3,28
	addi 4,30,592
	addi 27,1,16
	bl _ZN13idRestoreGame9ReadJointER13jointHandle_t
	.loc 2 736 0
	mr 3,28
	addi 4,30,596
	addi 27,1,16
	bl _ZN13idRestoreGame7ReadIntERi
	.loc 2 737 0
	mr 3,28
	addi 4,30,600
	addi 27,1,16
	bl _ZN13idRestoreGame10ReadObjectERP7idClass
	.loc 2 738 0
	mr 3,28
	addi 4,30,604
	addi 27,1,16
	bl _ZN13idRestoreGame10ReadObjectERP7idClass
	.loc 2 740 0
	addi 31,30,472
	mr 3,28
	mr 4,31
	addi 27,1,16
	bl _ZN13idRestoreGame16ReadStaticObjectER7idClass
.LVL1186:
.LBB7057:
.LBB7058:
	.loc 2 2513 0
	stw 31,584(30)
.LBE7058:
.LBE7057:
	.loc 2 743 0
	mr 3,28
	addi 4,30,608
	addi 27,1,16
	bl _ZN13idRestoreGame7ReadIntERi
	li 31,0
.LVL1187:
.L611:
	.loc 2 745 0
	addi 4,31,152
	mr 3,28
	slwi 4,4,2
	addi 27,1,16
	add 4,30,4
	addi 4,4,4
	bl _ZN13idRestoreGame7ReadIntERi
.LVL1188:
	.loc 2 744 0
	cmpwi 7,31,3
	addi 31,31,1
.LVL1189:
	bne+ 7,.L611
	.loc 2 749 0
	mr 3,28
	addi 4,1,8
	addi 27,1,16
	bl _ZN13idRestoreGame8ReadBoolERb
.LVL1190:
	.loc 2 750 0
	lbz 0,8(1)
.LVL1191:
	addi 27,1,16
	cmpwi 7,0,0
.LVL1192:
	beq- 7,.L612
	.loc 2 751 0
	li 3,160
	bl _Znwj
.LVL1193:
.LBB7059:
.LBB7060:
.LBB7061:
.LBB7062:
.LBB7063:
.LBB7064:
	.loc 6 197 0
	li 10,10
.LBE7064:
.LBE7063:
.LBE7062:
.LBE7061:
.LBE7060:
.LBE7059:
	.loc 2 751 0
	mr 9,3
.LBB7074:
.LBB7073:
.LBB7072:
.LBB7071:
.LBB7068:
.LBB7065:
	.loc 6 197 0
	mtctr 10
.LBE7065:
.LBE7068:
	.loc 6 159 0
	li 11,16
.LBB7069:
.LBB7066:
	.loc 6 197 0
	li 0,0
.L613:
.LVL1194:
.LBE7066:
.LBE7069:
	.loc 6 159 0
	stw 11,8(9)
.LBB7070:
.LBB7067:
	.loc 6 197 0
	stw 0,12(9)
	.loc 6 198 0
	stw 0,0(9)
	.loc 6 199 0
	stw 0,4(9)
	addi 9,9,16
.LBE7067:
.LBE7070:
.LBE7071:
.LBE7072:
	.loc 17 101 0
	bdnz .L613
.LBE7073:
.LBE7074:
	.loc 2 758 0 discriminator 1
	lis 24,gameLocal+33476@ha
	.loc 2 760 0 discriminator 1
	lis 22,.LC172@ha
	.loc 2 751 0 discriminator 1
	stw 3,628(30)
.LVL1195:
	.loc 2 752 0 discriminator 1
	li 23,0
	addi 27,1,16
	.loc 6 393 0 discriminator 1
	li 19,0
	.loc 2 758 0 discriminator 1
	la 24,gameLocal+33476@l(24)
	.loc 2 760 0 discriminator 1
	la 22,.LC172@l(22)
.LVL1196:
.L623:
	.loc 2 753 0
	mr 3,28
	addi 4,1,12
	bl _ZN13idRestoreGame7ReadIntERi
	.loc 2 754 0
	lwz 26,12(1)
	slwi 29,23,4
	lwz 25,628(30)
.LBB7075:
.LBB7076:
.LBB7077:
.LBB7078:
	.loc 6 375 0
	cmpwi 7,26,0
.LBE7078:
.LBE7077:
.LBE7076:
.LBE7075:
	.loc 2 754 0
	add 31,25,29
.LVL1197:
.LBB7090:
.LBB7087:
.LBB7084:
.LBB7081:
	.loc 6 375 0
	ble- 7,.L642
	.loc 6 380 0
	lwz 0,4(31)
	cmpw 7,26,0
	beq- 7,.L616
	.loc 6 386 0
	stw 26,4(31)
	.loc 6 385 0
	lwz 21,12(31)
.LVL1198:
	.loc 6 387 0
	lwzx 0,25,29
	cmpw 7,26,0
	bge- 7,.L617
	.loc 6 388 0
	stwx 26,25,29
.L617:
	.loc 6 392 0
	slwi 3,26,3
	bl _Znaj
.LVL1199:
	stw 3,12(31)
.LVL1200:
	.loc 6 393 0
	lwzx 0,25,29
	cmpwi 7,0,0
	ble- 7,.L618
	.loc 2 693 0
	addi 8,21,-8
.LBE7081:
.LBE7084:
.LBE7087:
.LBE7090:
	.loc 6 393 0
	li 9,0
	b .L619
.LVL1201:
.L643:
.LBB7091:
.LBB7088:
.LBB7085:
.LBB7082:
	lwz 3,12(31)
.LVL1202:
.L619:
	.loc 6 394 0
	addi 8,8,8
	slwi 0,9,3
	lwz 10,0(8)
	add 3,3,0
	lwz 11,4(8)
	.loc 6 393 0
	addi 9,9,1
.LVL1203:
	.loc 6 394 0
	stw 10,0(3)
	stw 11,4(3)
	.loc 6 393 0
	lwz 0,0(31)
	cmpw 7,9,0
	blt+ 7,.L643
.LVL1204:
.L618:
	.loc 6 398 0
	cmpwi 7,21,0
	beq- 7,.L616
	.loc 6 399 0
	mr 3,21
	bl _ZdaPv
.LVL1205:
.L616:
.LBE7082:
.LBE7085:
	.loc 6 302 0
	stwx 26,25,29
.LVL1206:
.LBE7088:
.LBE7091:
	.loc 2 755 0
	lwz 0,12(1)
	cmpwi 7,0,0
	ble- 7,.L620
	li 31,0
.LVL1207:
	b .L622
.LVL1208:
.L621:
	lwz 0,12(1)
	addi 31,31,1
.LVL1209:
	cmpw 7,0,31
	ble- 7,.L620
.LVL1210:
.L622:
.LBB7092:
.LBB7093:
	.loc 2 5400 0
	lwz 9,628(30)
.LBE7093:
.LBE7092:
	.loc 2 693 0
	slwi 26,31,3
	.loc 2 756 0
	mr 3,28
.LBB7095:
.LBB7094:
	.loc 2 5400 0
	add 9,9,29
	.loc 6 589 0
	lwz 4,12(9)
.LBE7094:
.LBE7095:
	.loc 2 756 0
	add 4,4,26
	bl _ZN13idRestoreGame7ReadIntERi
	.loc 2 757 0
	mr 3,28
	mr 4,27
	bl _ZN13idRestoreGame10ReadStringER5idStr
	.loc 2 5400 0
	lwz 9,628(30)
	.loc 2 758 0
	mr 3,24
	lwz 4,4(27)
	.loc 2 5400 0
	add 9,9,29
	lwz 25,12(9)
.LVL1211:
	.loc 2 758 0
	bl _ZNK9idProgram12FindFunctionEPKc
	add 25,25,26
	stw 3,4(25)
.LVL1212:
.LBB7096:
.LBB7097:
	.loc 2 5400 0
	lwz 9,628(30)
	add 9,9,29
.LBE7097:
.LBE7096:
	.loc 2 759 0
	lwz 0,12(9)
	add 26,0,26
	lwz 0,4(26)
	cmpwi 7,0,0
	bne+ 7,.L621
	.loc 2 760 0
	lwz 5,4(27)
	mr 3,28
	mr 4,22
	crxor 6,6,6
	bl _ZN13idRestoreGame5ErrorEPKcz
	.loc 2 755 0
	lwz 0,12(1)
	addi 31,31,1
.LVL1213:
	cmpw 7,0,31
	bgt+ 7,.L622
.LVL1214:
.L620:
	.loc 2 752 0
	cmpwi 7,23,9
	addi 23,23,1
.LVL1215:
	bne+ 7,.L623
.LVL1216:
.L612:
	.loc 2 766 0
	mr 3,28
	addi 4,30,632
	bl _ZN13idRestoreGame7ReadIntERi
.LVL1217:
	.loc 2 769 0
	lwz 0,412(30)
	cmpwi 7,0,-1
	beq- 7,.L624
	.loc 2 770 0
	lis 9,gameRenderWorld@ha
	mr 4,20
	lwz 3,gameRenderWorld@l(9)
	lwz 9,0(3)
	lwz 0,16(9)
	mtctr 0
	bctrl
.LEHE8:
	stw 3,412(30)
.L624:
.LVL1218:
.LBB7098:
.LBB7099:
.LBB7100:
	.loc 19 501 0
	mr 3,27
.LEHB9:
	bl _ZN5idStr8FreeDataEv
.LEHE9:
.LBE7100:
.LBE7099:
.LBE7098:
.LBE7110:
	.loc 2 772 0
	lwz 0,116(1)
	lwz 12,56(1)
	mtlr 0
	lwz 19,60(1)
	lwz 20,64(1)
	mtcrf 8,12
	lwz 21,68(1)
	lwz 22,72(1)
	lwz 23,76(1)
	lwz 24,80(1)
	lwz 25,84(1)
	lwz 26,88(1)
	lwz 27,92(1)
	lwz 28,96(1)
.LVL1219:
	lwz 29,100(1)
	lwz 30,104(1)
.LVL1220:
	lwz 31,108(1)
	addi 1,1,112
	.cfi_remember_state
.LCFI229:
	.cfi_def_cfa_offset 0
	.cfi_restore 70
	.cfi_restore 31
	.cfi_restore 30
	.cfi_restore 29
	.cfi_restore 28
	.cfi_restore 27
	.cfi_restore 26
	.cfi_restore 25
	.cfi_restore 24
	.cfi_restore 23
	.cfi_restore 22
	.cfi_restore 21
	.cfi_restore 20
	.cfi_restore 19
	blr
.LVL1221:
.L640:
.LCFI230:
	.cfi_restore_state
.LBB7111:
.LBB7101:
.LBB7049:
.LBB7045:
.LBB7042:
	.loc 6 388 0
	stw 31,172(30)
	b .L603
.LVL1222:
.L642:
.LBE7042:
.LBE7045:
.LBE7049:
.LBE7101:
.LBB7102:
.LBB7089:
.LBB7086:
.LBB7083:
.LBB7079:
.LBB7080:
	.loc 6 193 0
	lwz 3,12(31)
	cmpwi 7,3,0
	beq- 7,.L615
	.loc 6 194 0
	bl _ZdaPv
.L615:
	.loc 6 197 0
	stw 19,12(31)
	.loc 6 199 0
	stw 19,4(31)
	b .L616
.LVL1223:
.L602:
.LBE7080:
.LBE7079:
.LBE7083:
.LBE7086:
.LBE7089:
.LBE7102:
.LBB7103:
.LBB7050:
	.loc 6 302 0
	stw 31,172(30)
.LVL1224:
	b .L628
.LVL1225:
.L639:
.LBB7046:
.LBB7043:
.LBB7040:
.LBB7038:
	.loc 6 193 0
	lwz 3,184(30)
	mr 0,31
	cmpwi 7,3,0
	beq- 7,.L600
	.loc 6 194 0
	bl _ZdaPv
	lwz 0,12(1)
.L600:
	.loc 6 197 0
	li 9,0
	stw 9,184(30)
	.loc 6 199 0
	stw 9,176(30)
	b .L601
.LVL1226:
.L630:
	mr 31,3
.LVL1227:
.LBE7038:
.LBE7040:
.LBE7043:
.LBE7046:
.LBE7050:
.LBE7103:
.LBB7104:
.LBB7105:
.LBB7106:
	.loc 19 501 0
	mr 3,27
	bl _ZN5idStr8FreeDataEv
	mr 3,31
.LEHB10:
	bl _Unwind_Resume
.LEHE10:
.LBE7106:
.LBE7105:
.LBE7104:
.LBE7111:
	.cfi_endproc
.LFE2839:
	.section	.gcc_except_table
.LLSDA2839:
	.byte	0xff
	.byte	0xff
	.byte	0x1
	.uleb128 .LLSDACSE2839-.LLSDACSB2839
.LLSDACSB2839:
	.uleb128 .LEHB8-.LFB2839
	.uleb128 .LEHE8-.LEHB8
	.uleb128 .L630-.LFB2839
	.uleb128 0
	.uleb128 .LEHB9-.LFB2839
	.uleb128 .LEHE9-.LEHB9
	.uleb128 0
	.uleb128 0
	.uleb128 .LEHB10-.LFB2839
	.uleb128 .LEHE10-.LEHB10
	.uleb128 0
	.uleb128 0
.LLSDACSE2839:
	.section	".text"
	.size	_ZN8idEntity7RestoreEP13idRestoreGame, .-_ZN8idEntity7RestoreEP13idRestoreGame
	.align 2
	.globl _ZNK8idEntity7GetNameEv
	.type	_ZNK8idEntity7GetNameEv, @function
_ZNK8idEntity7GetNameEv:
.LFB2845:
	.loc 2 812 0
	.cfi_startproc
.LVL1228:
	.loc 2 814 0
	lwz 3,72(3)
.LVL1229:
	blr
	.cfi_endproc
.LFE2845:
	.size	_ZNK8idEntity7GetNameEv, .-_ZNK8idEntity7GetNameEv
	.align 2
	.globl _ZN8idEntity14DoDormantTestsEv
	.type	_ZN8idEntity14DoDormantTestsEv, @function
_ZN8idEntity14DoDormantTestsEv:
.LFB2847:
	.loc 2 841 0
	.cfi_startproc
.LVL1230:
	mflr 0
	stwu 1,-16(1)
.LCFI231:
	.cfi_def_cfa_offset 16
	.cfi_register 65, 0
	stw 31,12(1)
	mr 31,3
	.cfi_offset 31, -4
	stw 0,20(1)
	stw 30,8(1)
	.loc 2 843 0
	lwz 0,192(3)
	.cfi_offset 30, -8
	.cfi_offset 65, 4
	.loc 2 844 0
	li 3,0
.LVL1231:
	.loc 2 843 0
	andis. 9,0,128
	beq- 0,.L653
.L646:
	.loc 2 873 0
	lwz 0,20(1)
	lwz 30,8(1)
	mtlr 0
	lwz 31,12(1)
.LVL1232:
	addi 1,1,16
	.cfi_remember_state
.LCFI232:
	.cfi_def_cfa_offset 0
	.cfi_restore 31
	.cfi_restore 30
	blr
.LVL1233:
.L653:
.LCFI233:
	.cfi_restore_state
	.loc 2 848 0
	lis 30,gameLocal@ha
	mr 4,31
	la 30,gameLocal@l(30)
	mr 3,30
	bl _ZNK11idGameLocal21InPlayerConnectedAreaEP8idEntity
	cmpwi 7,3,0
	bne- 7,.L647
	.loc 2 849 0
	lwz 0,156(31)
	addis 9,30,0x25
	cmpwi 7,0,0
	bne- 7,.L648
	.loc 2 850 0
	lwz 0,2004(9)
	stw 0,156(31)
.L648:
	.loc 2 852 0
	lwz 9,2004(9)
	.loc 2 873 0
	lwz 30,8(1)
	.loc 2 852 0
	subf 0,0,9
	.loc 2 873 0
	lwz 31,12(1)
.LVL1234:
	.loc 2 841 0
	cmpwi 7,0,2999
	.loc 2 873 0
	lwz 0,20(1)
	addi 1,1,16
	.cfi_remember_state
	.cfi_restore 30
	.cfi_restore 31
.LCFI234:
	.cfi_def_cfa_offset 0
	mtlr 0
	.loc 2 841 0
	mfcr 3
	rlwinm 3,3,30,1
	.loc 2 873 0
	blr
.LVL1235:
.L647:
.LCFI235:
	.cfi_restore_state
	.loc 2 860 0
	lwz 0,192(31)
	andis. 9,0,32
	beq- 0,.L654
.L649:
	.loc 2 868 0
	li 9,1
	.loc 2 869 0
	li 3,0
	.loc 2 868 0
	rlwimi 0,9,21,10,10
	.loc 2 867 0
	li 9,0
	stw 9,156(31)
	.loc 2 868 0
	stw 0,192(31)
	.loc 2 873 0
	lwz 0,20(1)
	lwz 30,8(1)
	mtlr 0
	lwz 31,12(1)
.LVL1236:
	addi 1,1,16
	.cfi_remember_state
	.cfi_restore 30
	.cfi_restore 31
.LCFI236:
	.cfi_def_cfa_offset 0
	blr
.LVL1237:
.L654:
.LCFI237:
	.cfi_restore_state
	.loc 2 861 0
	mr 3,30
	mr 4,31
	bl _ZNK11idGameLocal11InPlayerPVSEP8idEntity
	cmpwi 7,3,0
	.loc 2 862 0
	li 3,1
	.loc 2 861 0
	beq- 7,.L646
	lwz 0,192(31)
	b .L649
	.cfi_endproc
.LFE2847:
	.size	_ZN8idEntity14DoDormantTestsEv, .-_ZN8idEntity14DoDormantTestsEv
	.align 2
	.globl _ZN8idEntity12CheckDormantEv
	.type	_ZN8idEntity12CheckDormantEv, @function
_ZN8idEntity12CheckDormantEv:
.LFB2848:
	.loc 2 883 0
	.cfi_startproc
.LVL1238:
	mflr 0
	stwu 1,-16(1)
.LCFI238:
	.cfi_def_cfa_offset 16
	.cfi_register 65, 0
	stw 30,8(1)
	stw 0,20(1)
	stw 31,12(1)
	.loc 2 883 0
	mr 31,3
	.cfi_offset 31, -4
	.cfi_offset 65, 4
	.cfi_offset 30, -8
.LBB7112:
	.loc 2 886 0
	bl _ZN8idEntity14DoDormantTestsEv
.LVL1239:
	.loc 2 887 0
	lwz 0,192(31)
	mr. 30,3
	beq- 0,.L656
	.loc 2 887 0 is_stmt 0 discriminator 1
	andis. 9,0,64
	beq- 0,.L658
.L657:
.LBE7112:
	.loc 2 896 0 is_stmt 1
	lwz 0,20(1)
	mr 3,30
.LVL1240:
	lwz 31,12(1)
.LVL1241:
	mtlr 0
	lwz 30,8(1)
	addi 1,1,16
	.cfi_remember_state
.LCFI239:
	.cfi_def_cfa_offset 0
	.cfi_restore 31
	.cfi_restore 30
	blr
.LVL1242:
.L656:
.LCFI240:
	.cfi_restore_state
.LBB7113:
	.loc 2 890 0 discriminator 1
	andis. 9,0,64
	beq+ 0,.L657
	.loc 2 891 0
	rlwimi 0,30,22,9,9
	.loc 2 892 0
	lwz 9,0(31)
	.loc 2 891 0
	stw 0,192(31)
	.loc 2 892 0
	mr 3,31
.LVL1243:
	lwz 0,28(9)
	mtctr 0
	bctrl
.LBE7113:
	.loc 2 896 0
	lwz 0,20(1)
	mr 3,30
	lwz 31,12(1)
.LVL1244:
	mtlr 0
	lwz 30,8(1)
	addi 1,1,16
	.cfi_remember_state
	.cfi_restore 30
	.cfi_restore 31
.LCFI241:
	.cfi_def_cfa_offset 0
	blr
.LVL1245:
.L658:
.LCFI242:
	.cfi_restore_state
.LBB7114:
	.loc 2 888 0
	li 9,1
	.loc 2 889 0
	mr 3,31
.LVL1246:
	.loc 2 888 0
	rlwimi 0,9,22,9,9
	.loc 2 889 0
	lwz 9,0(31)
	.loc 2 888 0
	stw 0,192(31)
	.loc 2 889 0
	lwz 0,24(9)
	mtctr 0
	bctrl
.LBE7114:
	.loc 2 896 0
	lwz 0,20(1)
	mr 3,30
	lwz 31,12(1)
.LVL1247:
	mtlr 0
	lwz 30,8(1)
	addi 1,1,16
	.cfi_restore 30
	.cfi_restore 31
.LCFI243:
	.cfi_def_cfa_offset 0
	blr
	.cfi_endproc
.LFE2848:
	.size	_ZN8idEntity12CheckDormantEv, .-_ZN8idEntity12CheckDormantEv
	.align 2
	.globl _ZNK8idEntity8IsActiveEv
	.type	_ZNK8idEntity8IsActiveEv, @function
_ZNK8idEntity8IsActiveEv:
.LFB2851:
	.loc 2 923 0
	.cfi_startproc
.LVL1248:
.LBB7115:
.LBB7116:
	.file 20 "d:/Data/Nintendo/DoomGX/src/game/../idlib/../idlib/containers/LinkList.h"
	.loc 20 126 0
	lwz 0,28(3)
.LBE7116:
.LBE7115:
	.loc 2 924 0
	addi 3,3,28
.LVL1249:
	.loc 2 925 0
.LBB7118:
.LBB7117:
	.loc 20 126 0
	xor 3,0,3
.LVL1250:
	cntlzw 3,3
	srwi 3,3,5
.LBE7117:
.LBE7118:
	.loc 2 925 0
	xori 3,3,1
	blr
	.cfi_endproc
.LFE2851:
	.size	_ZNK8idEntity8IsActiveEv, .-_ZNK8idEntity8IsActiveEv
	.align 2
	.globl _ZN8idEntity12BecomeActiveEi
	.type	_ZN8idEntity12BecomeActiveEi, @function
_ZN8idEntity12BecomeActiveEi:
.LFB2852:
	.loc 2 932 0
	.cfi_startproc
.LVL1251:
	mflr 0
	stwu 1,-16(1)
.LCFI244:
	.cfi_def_cfa_offset 16
	.cfi_register 65, 0
	stw 30,8(1)
	mr 30,4
	.cfi_offset 30, -8
	stw 0,20(1)
.LBB7119:
	.loc 2 933 0
	andi. 0,4,2
	.cfi_offset 65, 4
.LBE7119:
	.loc 2 932 0
	stw 31,12(1)
	.loc 2 932 0
	mr 31,3
	.cfi_offset 31, -4
.LBB7151:
	.loc 2 933 0
	beq- 0,.L669
	.loc 2 935 0
	lwz 3,600(3)
.LVL1252:
	cmpwi 7,3,0
	beq- 7,.L663
	.loc 2 935 0 is_stmt 0 discriminator 1
	cmpw 7,31,3
	beq- 7,.L663
	.loc 2 936 0 is_stmt 1
	li 4,2
.LVL1253:
	bl _ZN8idEntity12BecomeActiveEi
	lwz 0,152(31)
.LVL1254:
	.loc 2 946 0
	or 30,0,30
.LVL1255:
	.loc 2 947 0
	cmpwi 7,30,0
	.loc 2 946 0
	stw 30,152(31)
	.loc 2 947 0
	bne+ 7,.L670
.LVL1256:
.L660:
.LBE7151:
	.loc 2 955 0
	lwz 0,20(1)
	lwz 30,8(1)
	mtlr 0
	lwz 31,12(1)
.LVL1257:
	addi 1,1,16
	.cfi_remember_state
.LCFI245:
	.cfi_def_cfa_offset 0
	.cfi_restore 31
	.cfi_restore 30
	blr
.LVL1258:
.L663:
.LCFI246:
	.cfi_restore_state
.LBB7152:
	.loc 2 937 0
	lwz 0,152(31)
	andi. 9,0,2
	bne+ 0,.L662
	.loc 2 939 0
	lwz 3,584(31)
.LVL1259:
.LBB7120:
.LBB7121:
	.loc 14 340 0
	lwz 9,0(3)
	lwz 0,0(9)
	mtctr 0
	bctrl
.LVL1260:
.LBE7121:
	.loc 2 5400 0
	lis 9,_ZN20idPhysics_Parametric4TypeE@ha
	la 9,_ZN20idPhysics_Parametric4TypeE@l(9)
	lwz 0,56(3)
.LBB7126:
.LBB7122:
.LBB7123:
	.loc 14 311 0
	lwz 11,56(9)
	cmpw 7,0,11
	bge- 7,.L671
.L664:
.LBE7123:
.LBE7122:
.LBE7126:
.LBE7120:
	.loc 2 939 0
	lwz 3,584(31)
.LVL1261:
.LBB7128:
.LBB7129:
	.loc 14 340 0
	lwz 9,0(3)
	lwz 0,0(9)
	mtctr 0
	bctrl
.LVL1262:
.LBE7129:
	.loc 2 5400 0
	lis 9,_ZN15idPhysics_Actor4TypeE@ha
	la 9,_ZN15idPhysics_Actor4TypeE@l(9)
	lwz 0,56(3)
.LBB7132:
.LBB7130:
.LBB7131:
	.loc 14 311 0
	lwz 11,56(9)
	cmpw 7,0,11
	blt- 7,.L669
	lwz 9,60(9)
	cmpw 7,0,9
	bgt- 7,.L669
.LVL1263:
.L665:
.LBE7131:
.LBE7130:
.LBE7132:
.LBE7128:
	.loc 2 940 0 discriminator 4
	li 0,1
	lis 9,gameLocal+33376@ha
	stb 0,gameLocal+33376@l(9)
.LVL1264:
.L669:
	lwz 0,152(31)
.L662:
.LVL1265:
	.loc 2 946 0
	or 30,0,30
.LVL1266:
	.loc 2 947 0
	cmpwi 7,30,0
	.loc 2 946 0
	stw 30,152(31)
	.loc 2 947 0
	beq- 7,.L660
.L670:
.LVL1267:
	.loc 2 948 0
	lwz 9,28(31)
.LBB7133:
.LBB7134:
	.loc 2 924 0
	addi 11,31,28
.LBE7134:
.LBE7133:
	.loc 2 948 0
	cmpw 7,9,11
	beq- 7,.L672
	.loc 2 950 0
	cmpwi 7,0,0
	bne- 7,.L660
	.loc 2 952 0
	lis 9,gameLocal@ha
	la 9,gameLocal@l(9)
	addis 9,9,0x1
	lwz 11,-32164(9)
	addi 0,11,-1
.LVL1268:
	stw 0,-32164(9)
.LBE7152:
	.loc 2 955 0
	lwz 0,20(1)
	lwz 30,8(1)
	mtlr 0
	lwz 31,12(1)
.LVL1269:
	addi 1,1,16
	.cfi_remember_state
	.cfi_restore 30
	.cfi_restore 31
.LCFI247:
	.cfi_def_cfa_offset 0
	blr
.LVL1270:
.L672:
.LCFI248:
	.cfi_restore_state
.LBB7153:
.LBB7135:
.LBB7136:
.LBB7137:
.LBB7138:
.LBB7139:
	.loc 20 176 0
	lwz 10,36(31)
.LBE7139:
.LBE7138:
.LBE7137:
.LBE7136:
.LBE7135:
	.loc 2 5400 0
	lis 11,gameLocal+33356@ha
.LVL1271:
.LBB7148:
.LBB7146:
.LBB7144:
.LBB7142:
.LBB7140:
	.loc 20 176 0
	lwz 0,32(31)
.LVL1272:
.LBE7140:
.LBE7142:
.LBE7144:
.LBE7146:
.LBE7148:
	.loc 2 5400 0
	lwz 11,gameLocal+33356@l(11)
.LVL1273:
.LBB7149:
.LBB7147:
.LBB7145:
.LBB7143:
.LBB7141:
	.loc 20 176 0
	stw 0,4(10)
	.loc 20 177 0
	lwz 0,36(31)
	lwz 10,32(31)
	stw 0,8(10)
	.loc 20 180 0
	stw 9,36(31)
	.loc 20 181 0
	stw 9,28(31)
.LBE7141:
.LBE7143:
	.loc 20 196 0
	stw 11,32(31)
	.loc 20 197 0
	lwz 0,8(11)
	stw 0,36(31)
	.loc 20 198 0
	stw 9,8(11)
	.loc 20 199 0
	lwz 10,36(31)
	stw 9,4(10)
	.loc 20 200 0
	lwz 0,0(11)
	stw 0,28(31)
	b .L660
.LVL1274:
.L671:
.LBE7145:
.LBE7147:
.LBE7149:
.LBB7150:
.LBB7127:
.LBB7125:
.LBB7124:
	.loc 14 311 0
	lwz 9,60(9)
	cmpw 7,0,9
	ble- 7,.L665
	b .L664
.LBE7124:
.LBE7125:
.LBE7127:
.LBE7150:
.LBE7153:
	.cfi_endproc
.LFE2852:
	.size	_ZN8idEntity12BecomeActiveEi, .-_ZN8idEntity12BecomeActiveEi
	.align 2
	.globl _ZN8idEntity14BecomeInactiveEi
	.type	_ZN8idEntity14BecomeInactiveEi, @function
_ZN8idEntity14BecomeInactiveEi:
.LFB2853:
	.loc 2 962 0
	.cfi_startproc
.LVL1275:
	stwu 1,-16(1)
.LCFI249:
	.cfi_def_cfa_offset 16
	mflr 0
	stw 30,8(1)
.LBB7154:
	.loc 2 978 0
	lis 30,gameLocal@ha
	.cfi_offset 30, -8
	.cfi_register 65, 0
	la 30,gameLocal@l(30)
.LBE7154:
	.loc 2 962 0
	stw 0,20(1)
	stw 31,12(1)
.LBB7162:
	.loc 2 978 0
	addis 30,30,0x1
.LBE7162:
	.loc 2 962 0
	mr 31,3
	.cfi_offset 31, -4
	.cfi_offset 65, 4
.LVL1276:
.L682:
.LBB7163:
.LBB7155:
	.loc 2 963 0
	andi. 0,4,2
	beq- 0,.L674
.LBB7156:
	.loc 2 965 0
	lwz 11,600(31)
	cmpw 7,11,31
	beq- 7,.L684
.L674:
.LVL1277:
.LBE7156:
.LBE7155:
	.loc 2 975 0
	lwz 0,152(31)
	cmpwi 7,0,0
	beq- 7,.L680
	.loc 2 976 0
	andc 4,0,4
.LVL1278:
	.loc 2 977 0
	cmpwi 7,4,0
	.loc 2 976 0
	stw 4,152(31)
	.loc 2 977 0
	bne- 7,.L680
.LVL1279:
	lwz 9,28(31)
.LBB7159:
.LBB7160:
	.loc 2 924 0
	addi 0,31,28
.LBE7160:
.LBE7159:
	.loc 2 977 0
	cmpw 7,9,0
	beq- 7,.L680
	.loc 2 978 0 discriminator 4
	lwz 9,-32164(30)
	addi 0,9,1
	stw 0,-32164(30)
.LVL1280:
.L680:
	.loc 2 982 0
	beq- 0,.L673
	.loc 2 984 0
	lwz 3,600(31)
	cmpwi 7,3,0
	beq- 7,.L673
	.loc 2 984 0 is_stmt 0 discriminator 1
	cmpw 7,31,3
	beq- 7,.L673
	.loc 2 986 0 is_stmt 1
	lwz 9,0(3)
	lwz 0,144(9)
	mtctr 0
	bctrl
	cmpwi 7,3,0
	beq- 7,.L673
	.loc 2 987 0
	lwz 31,600(31)
	li 4,2
	b .L682
.L673:
.LBE7163:
	.loc 2 991 0
	lwz 0,20(1)
	lwz 30,8(1)
	mtlr 0
	lwz 31,12(1)
	addi 1,1,16
	.cfi_remember_state
.LCFI250:
	.cfi_def_cfa_offset 0
	.cfi_restore 31
	.cfi_restore 30
	blr
.L684:
.LCFI251:
	.cfi_restore_state
.LBB7164:
.LBB7161:
.LBB7158:
.LBB7157:
	.loc 2 966 0
	lwz 9,604(31)
.LVL1281:
	cmpwi 7,9,0
	bne+ 7,.L679
	b .L674
.LVL1282:
.L678:
	lwz 9,604(9)
.LVL1283:
	cmpwi 7,9,0
	beq- 7,.L674
.L679:
	.loc 2 967 0
	lwz 0,152(9)
	rlwinm 10,0,31,31,31
	cmpwi 7,10,0
	bne- 7,.L675
	.loc 2 967 0 is_stmt 0 discriminator 1
	lwz 0,588(9)
	cmpw 7,11,0
	bne+ 7,.L678
	.loc 2 967 0 discriminator 2
	lwz 0,592(9)
	cmpwi 7,0,-1
	beq+ 7,.L678
.L675:
	.loc 2 968 0 is_stmt 1
	rlwinm 4,4,0,31,29
.LVL1284:
	rlwinm 0,4,0,30,30
	cmpwi 0,0,0
	.loc 2 969 0
	b .L674
.LBE7157:
.LBE7158:
.LBE7161:
.LBE7164:
	.cfi_endproc
.LFE2853:
	.size	_ZN8idEntity14BecomeInactiveEi, .-_ZN8idEntity14BecomeInactiveEi
	.align 2
	.globl _ZN8idEntity7PresentEv
	.type	_ZN8idEntity7PresentEv, @function
_ZN8idEntity7PresentEv:
.LFB2879:
	.loc 2 1389 0
	.cfi_startproc
.LVL1285:
	stwu 1,-16(1)
.LCFI252:
	.cfi_def_cfa_offset 16
	mflr 0
	stw 30,8(1)
	.loc 2 1391 0
	lis 30,gameLocal@ha
	.cfi_offset 30, -8
	.cfi_register 65, 0
	.loc 2 1389 0
	stw 31,12(1)
	.loc 2 1391 0
	la 30,gameLocal@l(30)
	.loc 2 1389 0
	stw 0,20(1)
	.loc 2 1391 0
	addis 9,30,0x25
	.loc 2 1389 0
	mr 31,3
	.cfi_offset 65, 4
	.cfi_offset 31, -4
	.loc 2 1391 0
	lbz 0,2044(9)
	cmpwi 7,0,0
	beq- 7,.L685
	.loc 2 1396 0
	lwz 0,152(3)
	andi. 9,0,8
	bne- 0,.L695
.LVL1286:
.L685:
	.loc 2 1417 0
	lwz 0,20(1)
	lwz 30,8(1)
	mtlr 0
	lwz 31,12(1)
.LVL1287:
	addi 1,1,16
	.cfi_remember_state
.LCFI253:
	.cfi_def_cfa_offset 0
	.cfi_restore 31
	.cfi_restore 30
	blr
.LVL1288:
.L695:
.LCFI254:
	.cfi_restore_state
.LBB7169:
.LBB7170:
	.loc 2 1399 0
	li 4,8
	bl _ZN8idEntity14BecomeInactiveEi
.LVL1289:
	.loc 2 1402 0
	lwz 0,168(31)
	cmpwi 7,0,0
	beq- 7,.L690
	mr 3,30
	mr 4,31
	bl _ZNK11idGameLocal11InPlayerPVSEP8idEntity
	cmpwi 7,3,0
	beq- 7,.L690
	.loc 2 1403 0
	lwz 3,168(31)
	lwz 9,0(3)
	lwz 0,16(9)
	mtctr 0
	bctrl
	stw 3,380(31)
.L690:
	.loc 2 1407 0
	lwz 0,196(31)
	cmpwi 7,0,0
	beq- 7,.L685
.LVL1290:
.LBB7171:
.LBB7172:
	.loc 2 1155 0
	lwz 0,192(31)
.LBE7172:
.LBE7171:
	.loc 2 1407 0
	andis. 9,0,4096
	bne- 0,.L685
	.loc 2 1412 0
	lwz 4,412(31)
	cmpwi 7,4,-1
	beq- 7,.L696
	.loc 2 1415 0
	lis 9,gameRenderWorld@ha
	addi 5,31,196
	lwz 3,gameRenderWorld@l(9)
	lwz 9,0(3)
	lwz 0,20(9)
	mtctr 0
	bctrl
.LBE7170:
.LBE7169:
	.loc 2 1417 0
	lwz 0,20(1)
	lwz 30,8(1)
	mtlr 0
	lwz 31,12(1)
.LVL1291:
	addi 1,1,16
	.cfi_remember_state
	.cfi_restore 30
	.cfi_restore 31
.LCFI255:
	.cfi_def_cfa_offset 0
	blr
.LVL1292:
.L696:
.LCFI256:
	.cfi_restore_state
.LBB7174:
.LBB7173:
	.loc 2 1413 0
	lis 9,gameRenderWorld@ha
	addi 4,31,196
	lwz 3,gameRenderWorld@l(9)
	lwz 9,0(3)
	lwz 0,16(9)
	mtctr 0
	bctrl
	stw 3,412(31)
	b .L685
.LBE7173:
.LBE7174:
	.cfi_endproc
.LFE2879:
	.size	_ZN8idEntity7PresentEv, .-_ZN8idEntity7PresentEv
	.align 2
	.globl _ZNK8idEntity7GetSkinEv
	.type	_ZNK8idEntity7GetSkinEv, @function
_ZNK8idEntity7GetSkinEv:
.LFB2863:
	.loc 2 1125 0
	.cfi_startproc
.LVL1293:
	.loc 2 1127 0
	lwz 3,312(3)
.LVL1294:
	blr
	.cfi_endproc
.LFE2863:
	.size	_ZNK8idEntity7GetSkinEv, .-_ZNK8idEntity7GetSkinEv
	.align 2
	.globl _ZNK8idEntity8IsHiddenEv
	.type	_ZNK8idEntity8IsHiddenEv, @function
_ZNK8idEntity8IsHiddenEv:
.LFB2866:
	.loc 2 1154 0
	.cfi_startproc
.LVL1295:
	.loc 2 1155 0
	lwz 3,192(3)
.LVL1296:
	.loc 2 1156 0
