	.file	"FieldWindow.cpp"
	.section	".text"
.Ltext0:
	.section	.text._ZN14idFixedWinding5ClearEv,"axG",@progbits,_ZN14idFixedWinding5ClearEv,comdat
	.align 2
	.weak	_ZN14idFixedWinding5ClearEv
	.type	_ZN14idFixedWinding5ClearEv, @function
_ZN14idFixedWinding5ClearEv:
.LFB1502:
	.file 1 "d:/Data/Nintendo/DoomGX/src/ui/../idlib/../idlib/geometry/Winding.h"
	.loc 1 398 0
	.cfi_startproc
.LVL0:
	.loc 1 399 0
	li 0,0
	.loc 1 400 0
	.loc 1 399 0
	stw 0,4(3)
	.loc 1 400 0
	blr
	.cfi_endproc
.LFE1502:
	.size	_ZN14idFixedWinding5ClearEv, .-_ZN14idFixedWinding5ClearEv
	.section	.text._ZN8idWindow8SetBuddyEPS_,"axG",@progbits,_ZN8idWindow8SetBuddyEPS_,comdat
	.align 2
	.weak	_ZN8idWindow8SetBuddyEPS_
	.type	_ZN8idWindow8SetBuddyEPS_, @function
_ZN8idWindow8SetBuddyEPS_:
.LFB2819:
	.file 2 "d:/Data/Nintendo/DoomGX/src/ui/Window.h"
	.loc 2 279 0
	.cfi_startproc
.LVL1:
	.loc 2 279 0
	blr
	.cfi_endproc
.LFE2819:
	.size	_ZN8idWindow8SetBuddyEPS_, .-_ZN8idWindow8SetBuddyEPS_
	.section	.text._ZN8idWindow17HandleBuddyUpdateEPS_,"axG",@progbits,_ZN8idWindow17HandleBuddyUpdateEPS_,comdat
	.align 2
	.weak	_ZN8idWindow17HandleBuddyUpdateEPS_
	.type	_ZN8idWindow17HandleBuddyUpdateEPS_, @function
_ZN8idWindow17HandleBuddyUpdateEPS_:
.LFB2820:
	.loc 2 280 0
	.cfi_startproc
.LVL2:
	.loc 2 280 0
	blr
	.cfi_endproc
.LFE2820:
	.size	_ZN8idWindow17HandleBuddyUpdateEPS_, .-_ZN8idWindow17HandleBuddyUpdateEPS_
	.section	.text._ZN8idWindow9HasActionEv,"axG",@progbits,_ZN8idWindow9HasActionEv,comdat
	.align 2
	.weak	_ZN8idWindow9HasActionEv
	.type	_ZN8idWindow9HasActionEv, @function
_ZN8idWindow9HasActionEv:
.LFB2821:
	.loc 2 293 0
	.cfi_startproc
.LVL3:
	.loc 2 293 0
	blr
	.cfi_endproc
.LFE2821:
	.size	_ZN8idWindow9HasActionEv, .-_ZN8idWindow9HasActionEv
	.section	.text._ZN8idWindow10HasScriptsEv,"axG",@progbits,_ZN8idWindow10HasScriptsEv,comdat
	.align 2
	.weak	_ZN8idWindow10HasScriptsEv
	.type	_ZN8idWindow10HasScriptsEv, @function
_ZN8idWindow10HasScriptsEv:
.LFB2822:
	.loc 2 294 0
	.cfi_startproc
.LVL4:
	.loc 2 294 0
	blr
	.cfi_endproc
.LFE2822:
	.size	_ZN8idWindow10HasScriptsEv, .-_ZN8idWindow10HasScriptsEv
	.section	.text._ZN9idWinding5ClearEv,"axG",@progbits,_ZN9idWinding5ClearEv,comdat
	.align 2
	.weak	_ZN9idWinding5ClearEv
	.type	_ZN9idWinding5ClearEv, @function
_ZN9idWinding5ClearEv:
.LFB1473:
	.loc 1 249 0
	.cfi_startproc
.LVL5:
	mflr 0
	stwu 1,-16(1)
.LCFI0:
	.cfi_def_cfa_offset 16
	.cfi_register 65, 0
	stw 31,12(1)
	mr 31,3
	.cfi_offset 31, -4
	stw 0,20(1)
	.loc 1 250 0
	li 0,0
	.cfi_offset 65, 4
	.loc 1 251 0
	lwz 3,8(3)
.LVL6:
	.loc 1 250 0
	stw 0,4(31)
	.loc 1 251 0
	cmpwi 7,3,0
	beq- 7,.L7
	.loc 1 251 0 is_stmt 0 discriminator 1
	bl _ZdaPv
.L7:
	.loc 1 252 0 is_stmt 1
	li 0,0
	stw 0,8(31)
	.loc 1 253 0
	lwz 0,20(1)
	lwz 31,12(1)
.LVL7:
	mtlr 0
	addi 1,1,16
.LCFI1:
	.cfi_def_cfa_offset 0
	.cfi_restore 31
	blr
	.cfi_endproc
.LFE1473:
	.size	_ZN9idWinding5ClearEv, .-_ZN9idWinding5ClearEv
	.section	.text._ZN9idWindingD2Ev,"axG",@progbits,_ZN9idWindingD5Ev,comdat
	.align 2
	.weak	_ZN9idWindingD2Ev
	.type	_ZN9idWindingD2Ev, @function
_ZN9idWindingD2Ev:
.LFB1461:
	.loc 1 183 0
	.cfi_startproc
.LVL8:
	mflr 0
	stwu 1,-16(1)
.LCFI2:
	.cfi_def_cfa_offset 16
	.cfi_register 65, 0
.LBB579:
	lis 9,_ZTV9idWinding+8@ha
.LBE579:
	stw 31,12(1)
	mr 31,3
	.cfi_offset 31, -4
	stw 0,20(1)
.LBB580:
	.loc 1 183 0
	la 0,_ZTV9idWinding+8@l(9)
	.cfi_offset 65, 4
	.loc 1 184 0
	lwz 3,8(3)
.LVL9:
	.loc 1 183 0
	stw 0,0(31)
	.loc 1 184 0
	cmpwi 7,3,0
	beq- 7,.L10
	.loc 1 184 0 is_stmt 0 discriminator 1
	bl _ZdaPv
.L10:
	.loc 1 185 0 is_stmt 1
	li 0,0
	stw 0,8(31)
.LBE580:
	.loc 1 186 0
	lwz 0,20(1)
	lwz 31,12(1)
.LVL10:
	mtlr 0
	addi 1,1,16
.LCFI3:
	.cfi_def_cfa_offset 0
	.cfi_restore 31
	blr
	.cfi_endproc
.LFE1461:
	.size	_ZN9idWindingD2Ev, .-_ZN9idWindingD2Ev
	.section	".text"
	.align 2
	.globl _ZN13idFieldWindowD2Ev
	.type	_ZN13idFieldWindowD2Ev, @function
_ZN13idFieldWindowD2Ev:
.LFB2853:
	.file 3 "d:/Data/Nintendo/DoomGX/src/ui/FieldWindow.cpp"
	.loc 3 60 0
	.cfi_startproc
	.cfi_personality 0,__gxx_personality_v0
	.cfi_lsda 0,.LLSDA2853
.LVL11:
	mflr 0
	stwu 1,-16(1)
.LCFI4:
	.cfi_def_cfa_offset 16
	.cfi_register 65, 0
.LBB581:
	lis 9,_ZTV13idFieldWindow+8@ha
.LBE581:
	stw 31,12(1)
	mr 31,3
	.cfi_offset 31, -4
	stw 0,20(1)
.LBB585:
	la 0,_ZTV13idFieldWindow+8@l(9)
	.cfi_offset 65, 4
.LBE585:
	stw 30,8(1)
.LBB586:
	.loc 3 60 0
	stw 0,0(3)
.LVL12:
.LBB582:
.LBB583:
.LBB584:
	.file 4 "d:/Data/Nintendo/DoomGX/src/ui/../idlib/../idlib/Str.h"
	.loc 4 501 0
	addi 3,3,952
.LVL13:
.LEHB0:
	.cfi_offset 30, -8
	bl _ZN5idStr8FreeDataEv
.LEHE0:
.LBE584:
.LBE583:
.LBE582:
	.loc 3 60 0 discriminator 1
	mr 3,31
.LEHB1:
	bl _ZN8idWindowD2Ev
.LEHE1:
.LBE586:
	.loc 3 62 0 discriminator 1
	lwz 0,20(1)
	lwz 30,8(1)
	mtlr 0
	lwz 31,12(1)
.LVL14:
	addi 1,1,16
	.cfi_remember_state
.LCFI5:
	.cfi_def_cfa_offset 0
	.cfi_restore 31
	.cfi_restore 30
	blr
.LVL15:
.L16:
.LCFI6:
	.cfi_restore_state
	mr 30,3
.LBB587:
	.loc 3 60 0
	mr 3,31
	bl _ZN8idWindowD2Ev
	mr 3,30
.LEHB2:
	bl _Unwind_Resume
.LEHE2:
.LBE587:
	.cfi_endproc
.LFE2853:
	.globl __gxx_personality_v0
	.section	.gcc_except_table,"a",@progbits
.LLSDA2853:
	.byte	0xff
	.byte	0xff
	.byte	0x1
	.uleb128 .LLSDACSE2853-.LLSDACSB2853
.LLSDACSB2853:
	.uleb128 .LEHB0-.LFB2853
	.uleb128 .LEHE0-.LEHB0
	.uleb128 .L16-.LFB2853
	.uleb128 0
	.uleb128 .LEHB1-.LFB2853
	.uleb128 .LEHE1-.LEHB1
	.uleb128 0
	.uleb128 0
	.uleb128 .LEHB2-.LFB2853
	.uleb128 .LEHE2-.LEHB2
	.uleb128 0
	.uleb128 0
.LLSDACSE2853:
	.section	".text"
	.size	_ZN13idFieldWindowD2Ev, .-_ZN13idFieldWindowD2Ev
	.align 2
	.globl _ZN13idFieldWindowD0Ev
	.type	_ZN13idFieldWindowD0Ev, @function
_ZN13idFieldWindowD0Ev:
.LFB2855:
	.loc 3 60 0
	.cfi_startproc
.LVL16:
	stwu 1,-16(1)
.LCFI7:
	.cfi_def_cfa_offset 16
	mflr 0
	stw 31,12(1)
	mr 31,3
	.cfi_offset 31, -4
	.cfi_register 65, 0
	stw 0,20(1)
	.loc 3 62 0
	.cfi_offset 65, 4
	bl _ZN13idFieldWindowD1Ev
.LVL17:
	mr 3,31
	bl _ZN8idWindowdlEPv
	lwz 0,20(1)
	lwz 31,12(1)
.LVL18:
	mtlr 0
	addi 1,1,16
.LCFI8:
	.cfi_def_cfa_offset 0
	.cfi_restore 31
	blr
	.cfi_endproc
.LFE2855:
	.size	_ZN13idFieldWindowD0Ev, .-_ZN13idFieldWindowD0Ev
	.align 2
	.globl _ZN13idFieldWindow16ParseInternalVarEPKcP8idParser
	.type	_ZN13idFieldWindow16ParseInternalVarEPKcP8idParser, @function
_ZN13idFieldWindow16ParseInternalVarEPKcP8idParser:
.LFB2856:
	.loc 3 64 0
	.cfi_startproc
.LVL19:
	stwu 1,-24(1)
.LCFI9:
	.cfi_def_cfa_offset 24
	mflr 0
	stw 31,20(1)
	mr 31,4
	.cfi_offset 31, -4
	.cfi_register 65, 0
	.loc 3 65 0
	lis 4,.LC0@ha
.LVL20:
	.loc 3 64 0
	stw 30,16(1)
	.loc 3 65 0
	la 4,.LC0@l(4)
	.loc 3 64 0
	mr 30,3
	.cfi_offset 30, -8
	.loc 3 65 0
	mr 3,31
.LVL21:
	.loc 3 64 0
	stw 29,12(1)
	stw 0,28(1)
	.loc 3 64 0
	mr 29,5
	.cfi_offset 65, 4
	.cfi_offset 29, -12
	.loc 3 65 0
	bl _ZN5idStr4IcmpEPKcS1_
.LVL22:
	cmpwi 7,3,0
	beq- 7,.L23
	.loc 3 69 0
	lis 4,.LC1@ha
	mr 3,31
	la 4,.LC1@l(4)
	bl _ZN5idStr4IcmpEPKcS1_
	cmpwi 7,3,0
	beq- 7,.L24
.LVL23:
.LBB590:
.LBB591:
	.loc 3 73 0
	mr 3,30
	mr 4,31
	mr 5,29
	bl _ZN8idWindow16ParseInternalVarEPKcP8idParser
.LBE591:
.LBE590:
	.loc 3 74 0
	lwz 0,28(1)
	lwz 29,12(1)
.LVL24:
	mtlr 0
	lwz 30,16(1)
.LVL25:
	lwz 31,20(1)
.LVL26:
	addi 1,1,24
	.cfi_remember_state
.LCFI10:
	.cfi_def_cfa_offset 0
	.cfi_restore 31
	.cfi_restore 30
	.cfi_restore 29
	blr
.LVL27:
.L24:
.LCFI11:
	.cfi_restore_state
	.loc 3 70 0
	mr 3,29
	bl _ZN8idParser9ParseBoolEv
	stb 3,948(30)
	.loc 3 71 0
	li 3,1
	.loc 3 74 0
	lwz 0,28(1)
	lwz 29,12(1)
.LVL28:
	mtlr 0
	lwz 30,16(1)
.LVL29:
	lwz 31,20(1)
.LVL30:
	addi 1,1,24
	.cfi_remember_state
	.cfi_restore 29
	.cfi_restore 30
	.cfi_restore 31
.LCFI12:
	.cfi_def_cfa_offset 0
	blr
.LVL31:
.L23:
.LCFI13:
	.cfi_restore_state
	.loc 3 66 0
	mr 3,30
	mr 4,29
	addi 5,30,952
	bl _ZN8idWindow11ParseStringEP8idParserR5idStr
	.loc 3 74 0
	lwz 0,28(1)
	lwz 29,12(1)
.LVL32:
	.loc 3 67 0
	li 3,1
	.loc 3 74 0
	mtlr 0
	lwz 30,16(1)
.LVL33:
	lwz 31,20(1)
.LVL34:
	addi 1,1,24
	.cfi_restore 29
	.cfi_restore 30
	.cfi_restore 31
.LCFI14:
	.cfi_def_cfa_offset 0
	blr
	.cfi_endproc
.LFE2856:
	.size	_ZN13idFieldWindow16ParseInternalVarEPKcP8idParser, .-_ZN13idFieldWindow16ParseInternalVarEPKcP8idParser
	.section	.text._ZN14idFixedWindingD2Ev,"axG",@progbits,_ZN14idFixedWindingD5Ev,comdat
	.align 2
	.weak	_ZN14idFixedWindingD2Ev
	.type	_ZN14idFixedWindingD2Ev, @function
_ZN14idFixedWindingD2Ev:
.LFB1498:
	.loc 1 380 0
	.cfi_startproc
.LVL35:
.LBB597:
	.loc 1 381 0
	li 0,0
.LBB598:
.LBB599:
.LBB600:
	.loc 1 183 0
	lis 9,_ZTV9idWinding+8@ha
.LBE600:
.LBE599:
.LBE598:
	.loc 1 381 0
	stw 0,8(3)
.LVL36:
.LBB603:
.LBB602:
.LBB601:
	.loc 1 183 0
	la 0,_ZTV9idWinding+8@l(9)
	stw 0,0(3)
.LBE601:
.LBE602:
.LBE603:
.LBE597:
	.loc 1 382 0
	blr
	.cfi_endproc
.LFE1498:
	.size	_ZN14idFixedWindingD2Ev, .-_ZN14idFixedWindingD2Ev
	.section	.text._ZN9idWindingD0Ev,"axG",@progbits,_ZN9idWindingD5Ev,comdat
	.align 2
	.weak	_ZN9idWindingD0Ev
	.type	_ZN9idWindingD0Ev, @function
_ZN9idWindingD0Ev:
.LFB1463:
	.loc 1 183 0
	.cfi_startproc
.LVL37:
	mflr 0
	stwu 1,-16(1)
.LCFI15:
	.cfi_def_cfa_offset 16
	.cfi_register 65, 0
.LBB607:
.LBB608:
.LBB609:
	lis 9,_ZTV9idWinding+8@ha
.LBE609:
.LBE608:
.LBE607:
	stw 31,12(1)
	mr 31,3
	.cfi_offset 31, -4
.LVL38:
	stw 0,20(1)
.LBB614:
.LBB612:
.LBB610:
	.loc 1 183 0
	la 0,_ZTV9idWinding+8@l(9)
	.cfi_offset 65, 4
	.loc 1 184 0
	lwz 3,8(3)
.LVL39:
	.loc 1 183 0
	stw 0,0(31)
	.loc 1 184 0
	cmpwi 7,3,0
	beq- 7,.L29
	bl _ZdaPv
.LVL40:
.L29:
	.loc 1 185 0
	li 0,0
.LBE610:
.LBE612:
.LBE614:
	.loc 1 186 0
	mr 3,31
.LBB615:
.LBB613:
.LBB611:
	.loc 1 185 0
	stw 0,8(31)
.LBE611:
.LBE613:
.LBE615:
	.loc 1 186 0
	bl _ZdlPv
	lwz 0,20(1)
	lwz 31,12(1)
.LVL41:
	mtlr 0
	addi 1,1,16
.LCFI16:
	.cfi_def_cfa_offset 0
	.cfi_restore 31
	blr
	.cfi_endproc
.LFE1463:
	.size	_ZN9idWindingD0Ev, .-_ZN9idWindingD0Ev
	.section	.text._ZN14idFixedWindingD0Ev,"axG",@progbits,_ZN14idFixedWindingD5Ev,comdat
	.align 2
	.weak	_ZN14idFixedWindingD0Ev
	.type	_ZN14idFixedWindingD0Ev, @function
_ZN14idFixedWindingD0Ev:
.LFB1500:
	.loc 1 380 0
	.cfi_startproc
.LVL42:
	mflr 0
	stwu 1,-8(1)
.LCFI17:
	.cfi_def_cfa_offset 8
	.cfi_register 65, 0
.LBB622:
.LBB623:
.LBB624:
.LBB625:
.LBB626:
.LBB627:
	.loc 1 183 0
	lis 11,_ZTV9idWinding+8@ha
.LBE627:
.LBE626:
.LBE625:
.LBE624:
.LBE623:
.LBE622:
	.loc 1 380 0
	stw 0,12(1)
.LBB633:
.LBB632:
.LBB631:
	.loc 1 381 0
	li 0,0
	.cfi_offset 65, 4
	stw 0,8(3)
.LVL43:
.LBB630:
.LBB629:
.LBB628:
	.loc 1 183 0
	la 0,_ZTV9idWinding+8@l(11)
	stw 0,0(3)
.LBE628:
.LBE629:
.LBE630:
.LBE631:
.LBE632:
.LBE633:
	.loc 1 382 0
	bl _ZdlPv
.LVL44:
	lwz 0,12(1)
	addi 1,1,8
.LCFI18:
	.cfi_def_cfa_offset 0
	mtlr 0
	blr
	.cfi_endproc
.LFE1500:
	.size	_ZN14idFixedWindingD0Ev, .-_ZN14idFixedWindingD0Ev
	.section	".text"
	.align 2
	.globl _ZN13idFieldWindow10CommonInitEv
	.type	_ZN13idFieldWindow10CommonInitEv, @function
_ZN13idFieldWindow10CommonInitEv:
.LFB2845:
	.loc 3 38 0
	.cfi_startproc
.LVL45:
	.loc 3 39 0
	li 0,0
	.loc 3 44 0
	.loc 3 39 0
	stw 0,932(3)
	.loc 3 40 0
	stw 0,936(3)
	.loc 3 41 0
	stw 0,940(3)
	.loc 3 42 0
	stw 0,944(3)
	.loc 3 43 0
	stb 0,948(3)
	.loc 3 44 0
	blr
	.cfi_endproc
.LFE2845:
	.size	_ZN13idFieldWindow10CommonInitEv, .-_ZN13idFieldWindow10CommonInitEv
	.align 2
	.globl _ZN13idFieldWindowC2EP15idDeviceContextP20idUserInterfaceLocal
	.type	_ZN13idFieldWindowC2EP15idDeviceContextP20idUserInterfaceLocal, @function
_ZN13idFieldWindowC2EP15idDeviceContextP20idUserInterfaceLocal:
.LFB2847:
	.loc 3 46 0
	.cfi_startproc
	.cfi_personality 0,__gxx_personality_v0
	.cfi_lsda 0,.LLSDA2847
.LVL46:
	mflr 0
	stwu 1,-24(1)
.LCFI19:
	.cfi_def_cfa_offset 24
	.cfi_register 65, 0
	stw 29,12(1)
	mr 29,4
	.cfi_offset 29, -12
	stw 0,28(1)
	stw 30,16(1)
	mr 30,5
	.cfi_offset 30, -8
	.cfi_offset 65, 4
	stw 31,20(1)
	.loc 3 46 0
	mr 31,3
	.cfi_offset 31, -4
.LEHB3:
.LBB634:
	bl _ZN8idWindowC2EP15idDeviceContextP20idUserInterfaceLocal
.LEHE3:
.LVL47:
	lis 11,_ZTV13idFieldWindow+8@ha
	la 11,_ZTV13idFieldWindow+8@l(11)
.LBB635:
.LBB636:
.LBB637:
	.loc 4 356 0
	li 0,0
	.loc 4 358 0
	addi 9,31,964
.LBE637:
.LBE636:
.LBE635:
	.loc 3 46 0
	stw 11,0(31)
.LVL48:
.LBB646:
.LBB642:
.LBB638:
	.loc 4 357 0
	li 11,20
.LBE638:
.LBE642:
.LBE646:
	.loc 3 48 0
	lis 3,.LC2@ha
.LBB647:
.LBB643:
.LBB639:
	.loc 4 356 0
	stw 0,952(31)
.LBE639:
.LBE643:
.LBE647:
	.loc 3 48 0
	la 3,.LC2@l(3)
.LBB648:
.LBB644:
.LBB640:
	.loc 4 357 0
	stw 11,960(31)
.LBE640:
.LBE644:
.LBE648:
	.loc 3 48 0
	li 4,984
.LBB649:
.LBB645:
.LBB641:
	.loc 4 358 0
	stw 9,956(31)
	.loc 4 359 0
	stb 0,964(31)
.LEHB4:
.LBE641:
.LBE645:
.LBE649:
	.loc 3 48 0
	crxor 6,6,6
	bl _Z15Sys_DebugPrintfPKcz
.LEHE4:
.LBB650:
.LBB651:
	.loc 3 39 0
	li 0,0
.LBE651:
.LBE650:
	.loc 3 50 0
	stw 29,728(31)
	.loc 3 51 0
	stw 30,732(31)
.LVL49:
.LBB653:
.LBB652:
	.loc 3 39 0
	stw 0,932(31)
	.loc 3 40 0
	stw 0,936(31)
	.loc 3 41 0
	stw 0,940(31)
	.loc 3 42 0
	stw 0,944(31)
	.loc 3 43 0
	stb 0,948(31)
.LBE652:
.LBE653:
.LBE634:
	.loc 3 53 0
	lwz 0,28(1)
	lwz 29,12(1)
.LVL50:
	mtlr 0
	lwz 30,16(1)
.LVL51:
	lwz 31,20(1)
.LVL52:
	addi 1,1,24
	.cfi_remember_state
.LCFI20:
	.cfi_def_cfa_offset 0
	.cfi_restore 31
	.cfi_restore 30
	.cfi_restore 29
	blr
.LVL53:
.L40:
.LCFI21:
	.cfi_restore_state
	mr 30,3
.LVL54:
.LBB657:
.LBB654:
.LBB655:
.LBB656:
	.loc 4 501 0
	addi 3,31,952
	bl _ZN5idStr8FreeDataEv
.LBE656:
.LBE655:
.LBE654:
	.loc 3 46 0
	mr 3,31
	bl _ZN8idWindowD2Ev
	mr 3,30
.LEHB5:
	bl _Unwind_Resume
.LEHE5:
.LBE657:
	.cfi_endproc
.LFE2847:
	.section	.gcc_except_table
.LLSDA2847:
	.byte	0xff
	.byte	0xff
	.byte	0x1
	.uleb128 .LLSDACSE2847-.LLSDACSB2847
.LLSDACSB2847:
	.uleb128 .LEHB3-.LFB2847
	.uleb128 .LEHE3-.LEHB3
	.uleb128 0
	.uleb128 0
	.uleb128 .LEHB4-.LFB2847
	.uleb128 .LEHE4-.LEHB4
	.uleb128 .L40-.LFB2847
	.uleb128 0
	.uleb128 .LEHB5-.LFB2847
	.uleb128 .LEHE5-.LEHB5
	.uleb128 0
	.uleb128 0
.LLSDACSE2847:
	.section	".text"
	.size	_ZN13idFieldWindowC2EP15idDeviceContextP20idUserInterfaceLocal, .-_ZN13idFieldWindowC2EP15idDeviceContextP20idUserInterfaceLocal
	.align 2
	.globl _ZN13idFieldWindowC2EP20idUserInterfaceLocal
	.type	_ZN13idFieldWindowC2EP20idUserInterfaceLocal, @function
_ZN13idFieldWindowC2EP20idUserInterfaceLocal:
.LFB2850:
	.loc 3 55 0
	.cfi_startproc
.LVL55:
	mflr 0
	stwu 1,-16(1)
.LCFI22:
	.cfi_def_cfa_offset 16
	.cfi_register 65, 0
	stw 30,8(1)
	mr 30,4
	.cfi_offset 30, -8
	stw 0,20(1)
	stw 31,12(1)
	.loc 3 55 0
	mr 31,3
	.cfi_offset 31, -4
	.cfi_offset 65, 4
.LBB658:
	bl _ZN8idWindowC2EP20idUserInterfaceLocal
.LVL56:
	lis 11,_ZTV13idFieldWindow+8@ha
	la 11,_ZTV13idFieldWindow+8@l(11)
.LBB659:
.LBB660:
.LBB661:
	.loc 4 356 0
	li 0,0
.LBE661:
.LBE660:
.LBE659:
	.loc 3 55 0
	stw 11,0(31)
.LVL57:
.LBB664:
.LBB663:
.LBB662:
	.loc 4 358 0
	addi 9,31,964
	.loc 4 357 0
	li 11,20
	.loc 4 356 0
	stw 0,952(31)
	.loc 4 357 0
	stw 11,960(31)
	.loc 4 358 0
	stw 9,956(31)
	.loc 4 359 0
	stb 0,964(31)
.LBE662:
.LBE663:
.LBE664:
	.loc 3 56 0
	stw 30,732(31)
.LVL58:
.LBB665:
.LBB666:
	.loc 3 39 0
	stw 0,932(31)
	.loc 3 40 0
	stw 0,936(31)
	.loc 3 41 0
	stw 0,940(31)
	.loc 3 42 0
	stw 0,944(31)
	.loc 3 43 0
	stb 0,948(31)
.LBE666:
.LBE665:
.LBE658:
	.loc 3 58 0
	lwz 0,20(1)
	lwz 30,8(1)
.LVL59:
	mtlr 0
	lwz 31,12(1)
.LVL60:
	addi 1,1,16
.LCFI23:
	.cfi_def_cfa_offset 0
	.cfi_restore 31
	.cfi_restore 30
	blr
	.cfi_endproc
.LFE2850:
	.size	_ZN13idFieldWindowC2EP20idUserInterfaceLocal, .-_ZN13idFieldWindowC2EP20idUserInterfaceLocal
	.align 2
	.globl _ZN13idFieldWindow15CalcPaintOffsetEi
	.type	_ZN13idFieldWindow15CalcPaintOffsetEi, @function
_ZN13idFieldWindow15CalcPaintOffsetEi:
.LFB2857:
	.loc 3 77 0
	.cfi_startproc
.LVL61:
	mflr 0
	stwu 1,-40(1)
.LCFI24:
	.cfi_def_cfa_offset 40
	.cfi_register 65, 0
.LBB667:
	.loc 3 81 0
	li 5,-1
.LBE667:
	.loc 3 77 0
	stw 28,24(1)
.LBB668:
	.loc 3 82 0
	lis 28,.LC4@ha
	.cfi_offset 28, -16
.LBE668:
	.loc 3 77 0
	stw 30,32(1)
	mr 30,4
	.cfi_offset 30, -8
	stw 31,36(1)
	mr 31,3
	.cfi_offset 31, -4
	stw 0,44(1)
	stw 29,28(1)
.LBB669:
	.loc 3 78 0
	lwz 0,932(3)
	.cfi_offset 29, -12
	.cfi_offset 65, 4
	stw 0,940(3)
	.loc 3 80 0
	li 0,0
	.loc 3 79 0
	stw 4,936(31)
	.loc 3 80 0
	stw 0,944(3)
.LVL62:
	.loc 3 81 0
	lwz 3,728(3)
.LVL63:
	lwz 4,512(31)
.LVL64:
	lfs 1,468(31)
	bl _ZN15idDeviceContext9TextWidthEPKcfi
.LVL65:
	.loc 3 82 0
	lis 0,0x4330
	xoris 3,3,0x8000
.LVL66:
	stw 0,8(1)
	stw 3,12(1)
	lfs 13,.LC4@l(28)
	lfd 12,8(1)
	lfs 0,664(31)
	fsub 13,12,13
	frsp 13,13
	fcmpu 7,13,0
	blt- 7,.L42
.LVL67:
	.loc 3 85 0 discriminator 1
	bgt- 7,.L52
.L42:
.LBE669:
	.loc 3 89 0
	lwz 0,44(1)
	lwz 28,24(1)
	mtlr 0
	lwz 29,28(1)
	lwz 30,32(1)
.LVL68:
	lwz 31,36(1)
.LVL69:
	addi 1,1,40
	.cfi_remember_state
.LCFI25:
	.cfi_def_cfa_offset 0
	.cfi_restore 31
	.cfi_restore 30
	.cfi_restore 29
	.cfi_restore 28
	blr
.LVL70:
.L52:
.LCFI26:
	.cfi_restore_state
.LBB670:
	.loc 3 85 0
	cmpwi 7,30,0
	ble- 7,.L42
	la 28,.LC4@l(28)
	lis 29,0x4330
.L46:
.LVL71:
	.loc 3 86 0 discriminator 5
	addi 30,30,-1
.LVL72:
	lwz 3,728(31)
	lwz 4,512(31)
	mr 5,30
	lfs 1,468(31)
	bl _ZN15idDeviceContext9TextWidthEPKcfi
.LVL73:
	.loc 3 85 0 discriminator 5
	stw 29,16(1)
	xoris 3,3,0x8000
.LVL74:
	lfs 13,0(28)
	stw 3,20(1)
	cmpwi 6,30,0
	lfd 12,16(1)
	lfs 0,664(31)
	fsub 13,12,13
	.loc 3 87 0 discriminator 5
	lwz 9,944(31)
	addi 0,9,1
	.loc 3 85 0 discriminator 5
	frsp 13,13
	.loc 3 87 0 discriminator 5
	stw 0,944(31)
	.loc 3 85 0 discriminator 5
	fcmpu 7,13,0
	bng- 7,.L42
	.loc 3 85 0 is_stmt 0 discriminator 2
	bne+ 6,.L46
.LBE670:
	.loc 3 89 0 is_stmt 1
	lwz 0,44(1)
	lwz 28,24(1)
	mtlr 0
	lwz 29,28(1)
	lwz 30,32(1)
.LVL75:
	lwz 31,36(1)
.LVL76:
	addi 1,1,40
	.cfi_restore 28
	.cfi_restore 29
	.cfi_restore 30
	.cfi_restore 31
.LCFI27:
	.cfi_def_cfa_offset 0
	blr
	.cfi_endproc
.LFE2857:
	.size	_ZN13idFieldWindow15CalcPaintOffsetEi, .-_ZN13idFieldWindow15CalcPaintOffsetEi
	.align 2
	.globl _ZN13idFieldWindow4DrawEiff
	.type	_ZN13idFieldWindow4DrawEiff, @function
_ZN13idFieldWindow4DrawEiff:
.LFB2858:
	.loc 3 92 0
	.cfi_startproc
.LVL77:
	mflr 0
	stwu 1,-104(1)
.LCFI28:
	.cfi_def_cfa_offset 104
	.cfi_register 65, 0
	stw 31,92(1)
	mr 31,3
	.cfi_offset 31, -12
	stw 0,108(1)
	stfd 31,96(1)
	stw 29,84(1)
	stw 30,88(1)
.LBB694:
.LBB695:
.LBB696:
	.file 5 "d:/Data/Nintendo/DoomGX/src/ui/Winvar.h"
	.loc 5 201 0
	lwz 30,496(3)
	.cfi_offset 30, -16
	.cfi_offset 29, -20
	.cfi_offset 63, -8
	.cfi_offset 65, 4
.LBE696:
.LBE695:
	.loc 3 107 0
	lfs 31,468(3)
.LVL78:
.LBB716:
.LBB713:
	.loc 5 201 0
	cmpwi 7,30,0
	beq- 7,.L54
.LVL79:
	lwz 4,500(3)
.LVL80:
	cmpwi 7,4,0
	beq- 7,.L54
	lbz 0,0(4)
	cmpwi 7,0,0
	bne- 7,.L70
.LVL81:
.L54:
.LBE713:
.LBE716:
	.loc 3 95 0
	lwz 3,732(31)
.LVL82:
.LBB717:
	.loc 3 107 0
	lwz 30,508(31)
.LVL83:
.LBE717:
	.loc 3 95 0
	lwz 9,0(3)
	lwz 0,48(9)
	mtctr 0
	bctrl
.LVL84:
.LBB718:
.LBB719:
.LBB720:
.LBB721:
	.file 6 "d:/Data/Nintendo/DoomGX/src/ui/../idlib/../idlib/Dict.h"
	.loc 6 241 0
	lwz 4,956(31)
	bl _ZNK6idDict7FindKeyEPKc
.LVL85:
	.loc 6 242 0
	cmpwi 0,3,0
	beq- 0,.L68
.LVL86:
.L73:
.LBB722:
	.loc 3 107 0
	lwz 9,4(3)
	lwz 3,4(9)
.LVL87:
.L58:
.LBE722:
.LBE721:
.LBE720:
	.loc 6 253 0
	bl atoi
.LBE719:
.LBE718:
	.loc 3 96 0
	lwz 0,936(31)
	.loc 3 95 0
	stw 3,932(31)
	.loc 3 96 0
	cmpw 7,0,30
	beq- 7,.L71
.L59:
	.loc 3 97 0
	mr 3,31
	mr 4,30
	bl _ZN13idFieldWindow15CalcPaintOffsetEi
	lwz 3,932(31)
.L60:
	.loc 3 100 0
	lwz 0,944(31)
	.loc 3 99 0
	lwz 8,656(31)
	.loc 3 100 0
	cmpw 7,0,30
	.loc 3 99 0
	lwz 10,660(31)
	lwz 11,664(31)
	lwz 9,668(31)
	stw 8,16(1)
	stw 10,20(1)
	stw 11,24(1)
	stw 9,28(1)
	.loc 3 100 0
	bge- 7,.L61
	mr 9,0
.L62:
	.loc 3 103 0
	cmpw 7,30,3
	bge- 7,.L63
	.loc 3 104 0
	stw 30,932(31)
.L63:
	.loc 3 106 0
	lwz 11,48(31)
	lwz 4,512(31)
	andi. 10,11,32
	lwz 3,728(31)
.LVL88:
	add 4,4,9
.LVL89:
	addi 11,31,372
	bne- 0,.L64
	.loc 3 106 0 is_stmt 0 discriminator 2
	lbz 10,948(31)
	li 9,-1
	cmpwi 7,10,0
	beq- 7,.L65
.L64:
	.loc 3 106 0 discriminator 1
	lwz 9,932(31)
	subf 9,0,9
.L65:
	.loc 3 106 0 discriminator 4
	lwz 30,372(31)
.LVL90:
	fmr 1,31
	lwz 31,4(11)
.LVL91:
	li 0,0
	lwz 12,8(11)
	addi 6,1,40
	lwz 11,12(11)
.LVL92:
	addi 7,1,56
	li 5,0
	li 8,0
	stw 11,52(1)
	li 10,0
	lwz 11,16(1)
	stw 30,40(1)
	stw 11,56(1)
	lwz 11,20(1)
	stw 31,44(1)
	stw 11,60(1)
	lwz 11,24(1)
	stw 0,8(1)
	stw 11,64(1)
	lwz 11,28(1)
	stw 0,12(1)
	stw 12,48(1)
	stw 11,68(1)
	bl _ZN15idDeviceContext8DrawTextEPKcfi6idVec411idRectanglebibP6idListIiEi
.LBE694:
	.loc 3 107 0 is_stmt 1 discriminator 4
	lwz 0,108(1)
	lwz 29,84(1)
	mtlr 0
	lwz 30,88(1)
	lwz 31,92(1)
	lfd 31,96(1)
	addi 1,1,104
	.cfi_remember_state
.LCFI29:
	.cfi_def_cfa_offset 0
	.cfi_restore 63
	.cfi_restore 31
	.cfi_restore 30
	.cfi_restore 29
	blr
.LVL93:
.L61:
.LCFI30:
	.cfi_restore_state
.LBB730:
	.loc 3 101 0
	li 0,0
	li 9,0
	stw 0,944(31)
	b .L62
.L71:
	.loc 3 96 0 discriminator 1
	lwz 0,940(31)
	cmpw 7,0,3
	bne+ 7,.L59
	b .L60
.LVL94:
.L70:
.LBB726:
.LBB714:
.LBB697:
.LBB698:
	.loc 5 54 0
	cmpwi 7,0,42
.LBE698:
.LBE697:
	.loc 5 202 0
	addi 29,3,508
.LBB706:
.LBB704:
	.loc 5 54 0
	beq- 7,.L72
.LVL95:
.L55:
.LBE704:
.LBE706:
.LBB707:
.LBB708:
	.loc 6 241 0
	mr 3,30
	bl _ZNK6idDict7FindKeyEPKc
.LVL96:
	.loc 6 242 0
	cmpwi 0,3,0
	beq- 0,.L67
.LVL97:
.LBB709:
	.loc 3 107 0
	lwz 9,4(3)
	lwz 4,4(9)
.LVL98:
.L57:
.LBE709:
.LBE708:
.LBE707:
	.loc 5 202 0
	mr 3,29
.LVL99:
	bl _ZN5idStraSEPKc
.LBE714:
.LBE726:
	.loc 3 95 0
	lwz 3,732(31)
.LBB727:
	.loc 3 107 0
	lwz 30,508(31)
.LVL100:
.LBE727:
	.loc 3 95 0
	lwz 9,0(3)
	lwz 0,48(9)
	mtctr 0
	bctrl
.LVL101:
.LBB728:
.LBB725:
.LBB724:
.LBB723:
	.loc 6 241 0
	lwz 4,956(31)
	bl _ZNK6idDict7FindKeyEPKc
.LVL102:
	.loc 6 242 0
	cmpwi 0,3,0
	bne+ 0,.L73
.LVL103:
.L68:
	.loc 6 245 0
	lis 3,.LC6@ha
.LVL104:
	la 3,.LC6@l(3)
	b .L58
.LVL105:
.L67:
.LBE723:
.LBE724:
.LBE725:
.LBE728:
.LBB729:
.LBB715:
.LBB711:
.LBB710:
	lis 4,.LC5@ha
	la 4,.LC5@l(4)
	b .L57
.LVL106:
.L72:
.LBE710:
.LBE711:
.LBB712:
.LBB705:
.LBB699:
.LBB700:
.LBB701:
.LBB702:
	.loc 6 241 0
	mr 3,30
	addi 4,4,1
.LVL107:
	bl _ZNK6idDict7FindKeyEPKc
.LVL108:
	.loc 6 242 0
	cmpwi 0,3,0
	beq- 0,.L66
.LVL109:
.LBB703:
	.loc 3 107 0
	lwz 9,4(3)
	lwz 4,4(9)
	b .L55
.LVL110:
.L66:
.LBE703:
	.loc 6 245 0
	lis 4,.LC5@ha
	la 4,.LC5@l(4)
	b .L55
.LBE702:
.LBE701:
.LBE700:
.LBE699:
.LBE705:
.LBE712:
.LBE715:
.LBE729:
.LBE730:
	.cfi_endproc
.LFE2858:
	.size	_ZN13idFieldWindow4DrawEiff, .-_ZN13idFieldWindow4DrawEiff
	.section	.text.startup,"ax",@progbits
	.align 2
	.type	_GLOBAL__sub_I__ZN13idFieldWindow10CommonInitEv, @function
_GLOBAL__sub_I__ZN13idFieldWindow10CommonInitEv:
.LFB3132:
	.loc 3 107 0
	.cfi_startproc
.LVL111:
.LBB731:
.LBB732:
	.loc 5 36 0
	li 0,5
	lis 9,.LANCHOR0@ha
	stw 0,.LANCHOR0@l(9)
.LBE732:
.LBE731:
	.loc 3 107 0
	blr
	.cfi_endproc
.LFE3132:
	.size	_GLOBAL__sub_I__ZN13idFieldWindow10CommonInitEv, .-_GLOBAL__sub_I__ZN13idFieldWindow10CommonInitEv
	.section	.ctors,"aw",@progbits
	.align 2
	.long	_GLOBAL__sub_I__ZN13idFieldWindow10CommonInitEv
	.weak	_ZTS9idWinding
	.section	.rodata._ZTS9idWinding,"aG",@progbits,_ZTS9idWinding,comdat
	.align 2
	.type	_ZTS9idWinding, @object
	.size	_ZTS9idWinding, 11
_ZTS9idWinding:
	.string	"9idWinding"
	.weak	_ZTI9idWinding
	.section	.sdata._ZTI9idWinding,"awG",@progbits,_ZTI9idWinding,comdat
	.align 2
	.type	_ZTI9idWinding, @object
	.size	_ZTI9idWinding, 8
_ZTI9idWinding:
	.long	_ZTVN10__cxxabiv117__class_type_infoE+8
	.long	_ZTS9idWinding
	.weak	_ZTS14idFixedWinding
	.section	.rodata._ZTS14idFixedWinding,"aG",@progbits,_ZTS14idFixedWinding,comdat
	.align 2
	.type	_ZTS14idFixedWinding, @object
	.size	_ZTS14idFixedWinding, 17
_ZTS14idFixedWinding:
	.string	"14idFixedWinding"
	.weak	_ZTI14idFixedWinding
	.section	.rodata._ZTI14idFixedWinding,"aG",@progbits,_ZTI14idFixedWinding,comdat
	.align 2
	.type	_ZTI14idFixedWinding, @object
	.size	_ZTI14idFixedWinding, 12
_ZTI14idFixedWinding:
	.long	_ZTVN10__cxxabiv120__si_class_type_infoE+8
	.long	_ZTS14idFixedWinding
	.long	_ZTI9idWinding
	.weak	_ZTS13idFieldWindow
	.section	.rodata._ZTS13idFieldWindow,"aG",@progbits,_ZTS13idFieldWindow,comdat
	.align 2
	.type	_ZTS13idFieldWindow, @object
	.size	_ZTS13idFieldWindow, 16
_ZTS13idFieldWindow:
	.string	"13idFieldWindow"
	.weak	_ZTI13idFieldWindow
	.section	.rodata._ZTI13idFieldWindow,"aG",@progbits,_ZTI13idFieldWindow,comdat
	.align 2
	.type	_ZTI13idFieldWindow, @object
	.size	_ZTI13idFieldWindow, 12
_ZTI13idFieldWindow:
	.long	_ZTVN10__cxxabiv120__si_class_type_infoE+8
	.long	_ZTS13idFieldWindow
	.long	_ZTI8idWindow
	.weak	_ZTV9idWinding
	.section	.rodata._ZTV9idWinding,"aG",@progbits,_ZTV9idWinding,comdat
	.align 3
	.type	_ZTV9idWinding, @object
	.size	_ZTV9idWinding, 24
_ZTV9idWinding:
	.long	0
	.long	_ZTI9idWinding
	.long	_ZN9idWindingD1Ev
	.long	_ZN9idWindingD0Ev
	.long	_ZN9idWinding5ClearEv
	.long	_ZN9idWinding10ReAllocateEib
	.weak	_ZTV14idFixedWinding
	.section	.rodata._ZTV14idFixedWinding,"aG",@progbits,_ZTV14idFixedWinding,comdat
	.align 3
	.type	_ZTV14idFixedWinding, @object
	.size	_ZTV14idFixedWinding, 24
_ZTV14idFixedWinding:
	.long	0
	.long	_ZTI14idFixedWinding
	.long	_ZN14idFixedWindingD1Ev
	.long	_ZN14idFixedWindingD0Ev
	.long	_ZN14idFixedWinding5ClearEv
	.long	_ZN14idFixedWinding10ReAllocateEib
	.weak	_ZTV13idFieldWindow
	.section	.rodata._ZTV13idFieldWindow,"aG",@progbits,_ZTV13idFieldWindow,comdat
	.align 3
	.type	_ZTV13idFieldWindow, @object
	.size	_ZTV13idFieldWindow, 144
_ZTV13idFieldWindow:
	.long	0
	.long	_ZTI13idFieldWindow
	.long	_ZN13idFieldWindowD1Ev
	.long	_ZN13idFieldWindowD0Ev
	.long	_ZN8idWindow9AllocatedEv
	.long	_ZN8idWindow15GetWinVarByNameEPKcbPP9drawWin_t
	.long	_ZN8idWindow5ParseEP8idParserb
	.long	_ZN8idWindow11HandleEventEPK10sysEvent_tPb
	.long	_ZN8idWindow6RedrawEff
	.long	_ZN8idWindow19ArchiveToDictionaryEP6idDictb
	.long	_ZN8idWindow18InitFromDictionaryEP6idDictb
	.long	_ZN8idWindow9PostParseEv
	.long	_ZN8idWindow8ActivateEbR5idStr
	.long	_ZN8idWindow7TriggerEv
	.long	_ZN8idWindow9GainFocusEv
	.long	_ZN8idWindow9LoseFocusEv
	.long	_ZN8idWindow11GainCaptureEv
	.long	_ZN8idWindow11LoseCaptureEv
	.long	_ZN8idWindow5SizedEv
	.long	_ZN8idWindow5MovedEv
	.long	_ZN13idFieldWindow4DrawEiff
	.long	_ZN8idWindow9MouseExitEv
	.long	_ZN8idWindow10MouseEnterEv
	.long	_ZN8idWindow14DrawBackgroundERK11idRectangle
	.long	_ZN8idWindow16RouteMouseCoordsEff
	.long	_ZN8idWindow8SetBuddyEPS_
	.long	_ZN8idWindow17HandleBuddyUpdateEPS_
	.long	_ZN8idWindow12StateChangedEb
	.long	_ZN8idWindow16ReadFromDemoFileEP10idDemoFileb
	.long	_ZN8idWindow15WriteToDemoFileEP10idDemoFile
	.long	_ZN8idWindow15WriteToSaveGameEP6idFile
	.long	_ZN8idWindow16ReadFromSaveGameEP6idFile
	.long	_ZN8idWindow9HasActionEv
	.long	_ZN8idWindow10HasScriptsEv
	.long	_ZN8idWindow13RunNamedEventEPKc
	.long	_ZN13idFieldWindow16ParseInternalVarEPKcP8idParser
	.weak	_ZN9idWindingD1Ev
	.set	_ZN9idWindingD1Ev,_ZN9idWindingD2Ev
	.globl _ZN13idFieldWindowD1Ev
	.set	_ZN13idFieldWindowD1Ev,_ZN13idFieldWindowD2Ev
	.weak	_ZN14idFixedWindingD1Ev
	.set	_ZN14idFixedWindingD1Ev,_ZN14idFixedWindingD2Ev
	.globl _ZN13idFieldWindowC1EP15idDeviceContextP20idUserInterfaceLocal
	.set	_ZN13idFieldWindowC1EP15idDeviceContextP20idUserInterfaceLocal,_ZN13idFieldWindowC2EP15idDeviceContextP20idUserInterfaceLocal
	.globl _ZN13idFieldWindowC1EP20idUserInterfaceLocal
	.set	_ZN13idFieldWindowC1EP20idUserInterfaceLocal,_ZN13idFieldWindowC2EP20idUserInterfaceLocal
	.section	.rodata.cst4,"aM",@progbits,4
	.align 2
.LC4:
	.4byte	1501560836
	.section	.rodata.str1.4,"aMS",@progbits,1
	.align 2
.LC0:
	.string	"cursorvar"
	.zero	2
.LC1:
	.string	"showcursor"
	.zero	1
.LC2:
	.string	"idFieldWindow::idFieldWindow size %d\r\n"
	.zero	1
.LC5:
	.string	""
	.zero	3
.LC6:
	.string	"0"
	.section	".bss"
	.align 2
	.set	.LANCHOR0,. + 0
	.type	_ZL17VAR_GUIPREFIX_LEN, @object
	.size	_ZL17VAR_GUIPREFIX_LEN, 4
_ZL17VAR_GUIPREFIX_LEN:
	.zero	4
	.section	".text"
.Letext0:
	.file 7 "<built-in>"
	.file 8 "c:\\utils\\devkitpro\\devkitppc\\bin\\../lib/gcc/powerpc-eabi/4.6.3/include/stddef.h"
	.file 9 "c:\\utils\\devkitpro\\devkitppc\\bin\\../lib/gcc/powerpc-eabi/4.6.3/../../../../powerpc-eabi/include/sys/types.h"
	.file 10 "d:/Data/Nintendo/DoomGX/src/ui/../idlib/../sys/sys_public.h"
	.file 11 "d:/Data/Nintendo/DoomGX/src/ui/../idlib/../framework/Common.h"
	.file 12 "d:/Data/Nintendo/DoomGX/src/ui/../idlib/../framework/CVarSystem.h"
	.file 13 "d:/Data/Nintendo/DoomGX/src/ui/../idlib/../framework/FileSystem.h"
	.file 14 "d:/Data/Nintendo/DoomGX/src/ui/../idlib/../idlib/Lib.h"
	.file 15 "d:/Data/Nintendo/DoomGX/src/ui/../idlib/../idlib/CmdArgs.h"
	.file 16 "d:/Data/Nintendo/DoomGX/src/ui/../idlib/../idlib/math/Random.h"
	.file 17 "d:/Data/Nintendo/DoomGX/src/ui/../idlib/../idlib/math/Vector.h"
	.file 18 "d:/Data/Nintendo/DoomGX/src/ui/../idlib/../idlib/math/Angles.h"
	.file 19 "d:/Data/Nintendo/DoomGX/src/ui/../idlib/../idlib/math/Matrix.h"
	.file 20 "d:/Data/Nintendo/DoomGX/src/ui/../idlib/../idlib/math/Quat.h"
	.file 21 "d:/Data/Nintendo/DoomGX/src/ui/../idlib/../idlib/math/Rotation.h"
	.file 22 "d:/Data/Nintendo/DoomGX/src/ui/../idlib/../idlib/math/Plane.h"
	.file 23 "d:/Data/Nintendo/DoomGX/src/ui/../idlib/../idlib/containers/List.h"
	.file 24 "d:/Data/Nintendo/DoomGX/src/ui/../idlib/../idlib/math/Ode.h"
	.file 25 "d:/Data/Nintendo/DoomGX/src/ui/../idlib/../idlib/bv/Sphere.h"
	.file 26 "d:/Data/Nintendo/DoomGX/src/ui/../idlib/../idlib/bv/Bounds.h"
	.file 27 "d:/Data/Nintendo/DoomGX/src/ui/../idlib/../idlib/bv/Box.h"
	.file 28 "d:/Data/Nintendo/DoomGX/src/ui/../idlib/../idlib/bv/Frustum.h"
	.file 29 "d:/Data/Nintendo/DoomGX/src/ui/../idlib/../idlib/geometry/DrawVert.h"
	.file 30 "d:/Data/Nintendo/DoomGX/src/ui/../idlib/../idlib/geometry/JointTransform.h"
	.file 31 "d:/Data/Nintendo/DoomGX/src/ui/../idlib/../idlib/geometry/Surface.h"
	.file 32 "d:/Data/Nintendo/DoomGX/src/ui/../idlib/../idlib/geometry/TraceModel.h"
	.file 33 "d:/Data/Nintendo/DoomGX/src/ui/../idlib/../idlib/Token.h"
	.file 34 "d:/Data/Nintendo/DoomGX/src/ui/../idlib/../idlib/Lexer.h"
	.file 35 "d:/Data/Nintendo/DoomGX/src/ui/../idlib/../framework/File.h"
	.file 36 "d:/Data/Nintendo/DoomGX/src/ui/../idlib/../idlib/Parser.h"
	.file 37 "d:/Data/Nintendo/DoomGX/src/ui/../idlib/../idlib/containers/HashIndex.h"
	.file 38 "d:/Data/Nintendo/DoomGX/src/ui/../idlib/../idlib/containers/StrList.h"
	.file 39 "d:/Data/Nintendo/DoomGX/src/ui/../idlib/../idlib/containers/StrPool.h"
	.file 40 "d:/Data/Nintendo/DoomGX/src/ui/../idlib/../idlib/containers/PlaneSet.h"
	.file 41 "d:/Data/Nintendo/DoomGX/src/ui/../idlib/../idlib/LangDict.h"
	.file 42 "d:/Data/Nintendo/DoomGX/src/ui/../idlib/../idlib/BitMsg.h"
	.file 43 "d:/Data/Nintendo/DoomGX/src/ui/../idlib/../idlib/MapFile.h"
	.file 44 "d:/Data/Nintendo/DoomGX/src/ui/../idlib/../framework/CmdSystem.h"
	.file 45 "d:/Data/Nintendo/DoomGX/src/ui/../idlib/../framework/UsercmdGen.h"
	.file 46 "d:/Data/Nintendo/DoomGX/src/ui/../idlib/../framework/DeclManager.h"
	.file 47 "d:/Data/Nintendo/DoomGX/src/ui/../idlib/../framework/DeclParticle.h"
	.file 48 "d:/Data/Nintendo/DoomGX/src/ui/../idlib/../renderer/RenderWorld.h"
	.file 49 "d:/Data/Nintendo/DoomGX/src/ui/../idlib/../renderer/Cinematic.h"
	.file 50 "d:/Data/Nintendo/DoomGX/src/ui/../idlib/../renderer/Model.h"
	.file 51 "d:/Data/Nintendo/DoomGX/src/ui/../idlib/../renderer/RenderSystem.h"
	.file 52 "d:/Data/Nintendo/DoomGX/src/ui/../idlib/../sound/sound.h"
	.file 53 "d:/Data/Nintendo/DoomGX/src/ui/../idlib/../ui/UserInterface.h"
	.file 54 "d:/Data/Nintendo/DoomGX/src/ui/../idlib/../cm/CollisionModel.h"
	.file 55 "d:/Data/Nintendo/DoomGX/src/ui/../idlib/../tools/compilers/aas/AASFile.h"
	.file 56 "d:/Data/Nintendo/DoomGX/src/ui/../idlib/../game/Game.h"
	.file 57 "d:/Data/Nintendo/DoomGX/src/ui/../idlib/../framework/async/NetworkSystem.h"
	.file 58 "d:/Data/Nintendo/DoomGX/src/ui/../idlib/../renderer/ModelManager.h"
	.file 59 "d:/Data/Nintendo/DoomGX/src/ui/../idlib/../tools/compilers/aas/AASFileManager.h"
	.file 60 "d:/Data/Nintendo/DoomGX/src/ui/../idlib/../framework/Session.h"
	.file 61 "d:/Data/Nintendo/DoomGX/src/ui/../idlib/../ui/ListGUI.h"
	.file 62 "d:/Data/Nintendo/DoomGX/src/ui/Rectangle.h"
	.file 63 "d:/Data/Nintendo/DoomGX/src/ui/DeviceContext.h"
	.file 64 "d:/Data/Nintendo/DoomGX/src/ui/GuiScript.h"
	.file 65 "d:/Data/Nintendo/DoomGX/src/ui/SimpleWindow.h"
	.file 66 "d:/Data/Nintendo/DoomGX/src/ui/FieldWindow.h"
	.file 67 "d:/Data/Nintendo/DoomGX/src/ui/../idlib/../framework/Console.h"
	.file 68 "d:/Data/Nintendo/DoomGX/src/ui/../idlib/../idlib/math/Curve.h"
	.file 69 "d:/Data/Nintendo/DoomGX/src/ui/../idlib/../idlib/math/Simd.h"
	.file 70 "d:/Data/Nintendo/DoomGX/src/ui/../idlib/../framework/BuildVersion.h"
	.file 71 "d:/Data/Nintendo/DoomGX/src/ui/../idlib/precompiled.h"
	.file 72 "d:/Data/Nintendo/DoomGX/src/ui/../idlib/../renderer/Material.h"
	.file 73 "d:/Data/Nintendo/DoomGX/src/ui/../idlib/../framework/EventLoop.h"
	.file 74 "d:/Data/Nintendo/DoomGX/src/ui/../idlib/../framework/EditField.h"
	.file 75 "d:/Data/Nintendo/DoomGX/src/ui/../idlib/../framework/async/AsyncNetwork.h"
	.file 76 "d:/Data/Nintendo/DoomGX/src/ui/../idlib/../framework/async/AsyncServer.h"