	.file	"File.cpp"
	.section	".text"
.Ltext0:
	.section	.text._ZN14idFixedWinding5ClearEv,"axG",@progbits,_ZN14idFixedWinding5ClearEv,comdat
	.align 2
	.weak	_ZN14idFixedWinding5ClearEv
	.type	_ZN14idFixedWinding5ClearEv, @function
_ZN14idFixedWinding5ClearEv:
.LFB1502:
	.file 1 "d:/Data/Nintendo/DoomGX/src/framework/../idlib/../idlib/geometry/Winding.h"
	.loc 1 398 0
	.cfi_startproc
.LVL0:
	.loc 1 399 0
	li 0,0
	.loc 1 400 0
	.loc 1 399 0
	stw 0,4(3)
	.loc 1 400 0
	blr
	.cfi_endproc
.LFE1502:
	.size	_ZN14idFixedWinding5ClearEv, .-_ZN14idFixedWinding5ClearEv
	.section	.text._ZN6idFileD2Ev,"axG",@progbits,_ZN6idFileD5Ev,comdat
	.align 2
	.weak	_ZN6idFileD2Ev
	.type	_ZN6idFileD2Ev, @function
_ZN6idFileD2Ev:
.LFB2221:
	.file 2 "d:/Data/Nintendo/DoomGX/src/framework/../idlib/../framework/File.h"
	.loc 2 60 0
	.cfi_startproc
.LVL1:
.LBB662:
	.loc 2 60 0
	lis 9,_ZTV6idFile+8@ha
.LBE662:
.LBB663:
	la 0,_ZTV6idFile+8@l(9)
	stw 0,0(3)
.LBE663:
	blr
	.cfi_endproc
.LFE2221:
	.size	_ZN6idFileD2Ev, .-_ZN6idFileD2Ev
	.section	.text._ZN6idFile11GetFileTypeEv,"axG",@progbits,_ZN6idFile11GetFileTypeEv,comdat
	.align 2
	.weak	_ZN6idFile11GetFileTypeEv
	.type	_ZN6idFile11GetFileTypeEv, @function
_ZN6idFile11GetFileTypeEv:
.LFB2224:
	.loc 2 63 0
	.cfi_startproc
.LVL2:
	.loc 2 63 0
	li 3,4
.LVL3:
	blr
	.cfi_endproc
.LFE2224:
	.size	_ZN6idFile11GetFileTypeEv, .-_ZN6idFile11GetFileTypeEv
	.section	.text._ZN13idFile_Memory7GetNameEv,"axG",@progbits,_ZN13idFile_Memory7GetNameEv,comdat
	.align 2
	.weak	_ZN13idFile_Memory7GetNameEv
	.type	_ZN13idFile_Memory7GetNameEv, @function
_ZN13idFile_Memory7GetNameEv:
.LFB2225:
	.loc 2 137 0
	.cfi_startproc
.LVL4:
	.loc 2 137 0
	lwz 3,8(3)
.LVL5:
	blr
	.cfi_endproc
.LFE2225:
	.size	_ZN13idFile_Memory7GetNameEv, .-_ZN13idFile_Memory7GetNameEv
	.section	.text._ZN13idFile_Memory11GetFullPathEv,"axG",@progbits,_ZN13idFile_Memory11GetFullPathEv,comdat
	.align 2
	.weak	_ZN13idFile_Memory11GetFullPathEv
	.type	_ZN13idFile_Memory11GetFullPathEv, @function
_ZN13idFile_Memory11GetFullPathEv:
.LFB2226:
	.loc 2 138 0
	.cfi_startproc
.LVL6:
	.loc 2 138 0
	lwz 3,8(3)
.LVL7:
	blr
	.cfi_endproc
.LFE2226:
	.size	_ZN13idFile_Memory11GetFullPathEv, .-_ZN13idFile_Memory11GetFullPathEv
	.section	.text._ZN13idFile_BitMsg7GetNameEv,"axG",@progbits,_ZN13idFile_BitMsg7GetNameEv,comdat
	.align 2
	.weak	_ZN13idFile_BitMsg7GetNameEv
	.type	_ZN13idFile_BitMsg7GetNameEv, @function
_ZN13idFile_BitMsg7GetNameEv:
.LFB2229:
	.loc 2 181 0
	.cfi_startproc
.LVL8:
	.loc 2 181 0
	lwz 3,8(3)
.LVL9:
	blr
	.cfi_endproc
.LFE2229:
	.size	_ZN13idFile_BitMsg7GetNameEv, .-_ZN13idFile_BitMsg7GetNameEv
	.section	.text._ZN13idFile_BitMsg11GetFullPathEv,"axG",@progbits,_ZN13idFile_BitMsg11GetFullPathEv,comdat
	.align 2
	.weak	_ZN13idFile_BitMsg11GetFullPathEv
	.type	_ZN13idFile_BitMsg11GetFullPathEv, @function
_ZN13idFile_BitMsg11GetFullPathEv:
.LFB2230:
	.loc 2 182 0
	.cfi_startproc
.LVL10:
	.loc 2 182 0
	lwz 3,8(3)
.LVL11:
	blr
	.cfi_endproc
.LFE2230:
	.size	_ZN13idFile_BitMsg11GetFullPathEv, .-_ZN13idFile_BitMsg11GetFullPathEv
	.section	.text._ZN16idFile_Permanent7GetNameEv,"axG",@progbits,_ZN16idFile_Permanent7GetNameEv,comdat
	.align 2
	.weak	_ZN16idFile_Permanent7GetNameEv
	.type	_ZN16idFile_Permanent7GetNameEv, @function
_ZN16idFile_Permanent7GetNameEv:
.LFB2231:
	.loc 2 207 0
	.cfi_startproc
.LVL12:
	.loc 2 207 0
	lwz 3,8(3)
.LVL13:
	blr
	.cfi_endproc
.LFE2231:
	.size	_ZN16idFile_Permanent7GetNameEv, .-_ZN16idFile_Permanent7GetNameEv
	.section	.text._ZN16idFile_Permanent11GetFullPathEv,"axG",@progbits,_ZN16idFile_Permanent11GetFullPathEv,comdat
	.align 2
	.weak	_ZN16idFile_Permanent11GetFullPathEv
	.type	_ZN16idFile_Permanent11GetFullPathEv, @function
_ZN16idFile_Permanent11GetFullPathEv:
.LFB2232:
	.loc 2 208 0
	.cfi_startproc
.LVL14:
	.loc 2 208 0
	lwz 3,40(3)
.LVL15:
	blr
	.cfi_endproc
.LFE2232:
	.size	_ZN16idFile_Permanent11GetFullPathEv, .-_ZN16idFile_Permanent11GetFullPathEv
	.section	.text._ZN12idFile_InZip7GetNameEv,"axG",@progbits,_ZN12idFile_InZip7GetNameEv,comdat
	.align 2
	.weak	_ZN12idFile_InZip7GetNameEv
	.type	_ZN12idFile_InZip7GetNameEv, @function
_ZN12idFile_InZip7GetNameEv:
.LFB2234:
	.loc 2 239 0
	.cfi_startproc
.LVL16:
	.loc 2 239 0
	lwz 3,8(3)
.LVL17:
	blr
	.cfi_endproc
.LFE2234:
	.size	_ZN12idFile_InZip7GetNameEv, .-_ZN12idFile_InZip7GetNameEv
	.section	.text._ZN12idFile_InZip11GetFullPathEv,"axG",@progbits,_ZN12idFile_InZip11GetFullPathEv,comdat
	.align 2
	.weak	_ZN12idFile_InZip11GetFullPathEv
	.type	_ZN12idFile_InZip11GetFullPathEv, @function
_ZN12idFile_InZip11GetFullPathEv:
.LFB2235:
	.loc 2 240 0
	.cfi_startproc
.LVL18:
	.loc 2 240 0
	lwz 3,40(3)
.LVL19:
	blr
	.cfi_endproc
.LFE2235:
	.size	_ZN12idFile_InZip11GetFullPathEv, .-_ZN12idFile_InZip11GetFullPathEv
	.section	".text"
	.align 2
	.globl _ZN6idFile7GetNameEv
	.type	_ZN6idFile7GetNameEv, @function
_ZN6idFile7GetNameEv:
.LFB2539:
	.file 3 "d:/Data/Nintendo/DoomGX/src/framework/File.cpp"
	.loc 3 161 0
	.cfi_startproc
.LVL20:
	.loc 3 162 0
	lis 3,.LC0@ha
.LVL21:
	.loc 3 163 0
	la 3,.LC0@l(3)
	blr
	.cfi_endproc
.LFE2539:
	.size	_ZN6idFile7GetNameEv, .-_ZN6idFile7GetNameEv
	.align 2
	.globl _ZN6idFile11GetFullPathEv
	.type	_ZN6idFile11GetFullPathEv, @function
_ZN6idFile11GetFullPathEv:
.LFB2540:
	.loc 3 170 0
	.cfi_startproc
.LVL22:
	.loc 3 171 0
	lis 3,.LC0@ha
.LVL23:
	.loc 3 172 0
	la 3,.LC0@l(3)
	blr
	.cfi_endproc
.LFE2540:
	.size	_ZN6idFile11GetFullPathEv, .-_ZN6idFile11GetFullPathEv
	.align 2
	.globl _ZN6idFile4ReadEPvi
	.type	_ZN6idFile4ReadEPvi, @function
_ZN6idFile4ReadEPvi:
.LFB2541:
	.loc 3 179 0
	.cfi_startproc
.LVL24:
	mflr 0
	stwu 1,-8(1)
.LCFI0:
	.cfi_def_cfa_offset 8
	.cfi_register 65, 0
	.loc 3 180 0
	lis 9,common@ha
	lis 4,.LC1@ha
.LVL25:
	lwz 3,common@l(9)
.LVL26:
	la 4,.LC1@l(4)
	.loc 3 179 0
	stw 0,12(1)
	.loc 3 180 0
	lwz 9,0(3)
	lwz 0,100(9)
	.cfi_offset 65, 4
	mtctr 0
	crxor 6,6,6
	bctrl
.LVL27:
	.loc 3 182 0
	lwz 0,12(1)
	li 3,0
	mtlr 0
	addi 1,1,8
.LCFI1:
	.cfi_def_cfa_offset 0
	blr
	.cfi_endproc
.LFE2541:
	.size	_ZN6idFile4ReadEPvi, .-_ZN6idFile4ReadEPvi
	.align 2
	.globl _ZN6idFile5WriteEPKvi
	.type	_ZN6idFile5WriteEPKvi, @function
_ZN6idFile5WriteEPKvi:
.LFB2542:
	.loc 3 189 0
	.cfi_startproc
.LVL28:
	mflr 0
	stwu 1,-8(1)
.LCFI2:
	.cfi_def_cfa_offset 8
	.cfi_register 65, 0
	.loc 3 190 0
	lis 9,common@ha
	lis 4,.LC2@ha
.LVL29:
	lwz 3,common@l(9)
.LVL30:
	la 4,.LC2@l(4)
	.loc 3 189 0
	stw 0,12(1)
	.loc 3 190 0
	lwz 9,0(3)
	lwz 0,100(9)
	.cfi_offset 65, 4
	mtctr 0
	crxor 6,6,6
	bctrl
.LVL31:
	.loc 3 192 0
	lwz 0,12(1)
	li 3,0
	mtlr 0
	addi 1,1,8
.LCFI3:
	.cfi_def_cfa_offset 0
	blr
	.cfi_endproc
.LFE2542:
	.size	_ZN6idFile5WriteEPKvi, .-_ZN6idFile5WriteEPKvi
	.align 2
	.globl _ZN6idFile6LengthEv
	.type	_ZN6idFile6LengthEv, @function
_ZN6idFile6LengthEv:
.LFB2543:
	.loc 3 199 0
	.cfi_startproc
.LVL32:
	.loc 3 201 0
	li 3,0
.LVL33:
	blr
	.cfi_endproc
.LFE2543:
	.size	_ZN6idFile6LengthEv, .-_ZN6idFile6LengthEv
	.align 2
	.globl _ZN6idFile9TimestampEv
	.type	_ZN6idFile9TimestampEv, @function
_ZN6idFile9TimestampEv:
.LFB2544:
	.loc 3 208 0
	.cfi_startproc
.LVL34:
	.loc 3 210 0
	li 3,0
.LVL35:
	blr
	.cfi_endproc
.LFE2544:
	.size	_ZN6idFile9TimestampEv, .-_ZN6idFile9TimestampEv
	.align 2
	.globl _ZN6idFile4TellEv
	.type	_ZN6idFile4TellEv, @function
_ZN6idFile4TellEv:
.LFB2545:
	.loc 3 217 0
	.cfi_startproc
.LVL36:
	.loc 3 219 0
	li 3,0
.LVL37:
	blr
	.cfi_endproc
.LFE2545:
	.size	_ZN6idFile4TellEv, .-_ZN6idFile4TellEv
	.align 2
	.globl _ZN6idFile10ForceFlushEv
	.type	_ZN6idFile10ForceFlushEv, @function
_ZN6idFile10ForceFlushEv:
.LFB2546:
	.loc 3 226 0
	.cfi_startproc
.LVL38:
	.loc 3 227 0
	blr
	.cfi_endproc
.LFE2546:
	.size	_ZN6idFile10ForceFlushEv, .-_ZN6idFile10ForceFlushEv
	.align 2
	.globl _ZN6idFile5FlushEv
	.type	_ZN6idFile5FlushEv, @function
_ZN6idFile5FlushEv:
.LFB2547:
	.loc 3 234 0
	.cfi_startproc
.LVL39:
	.loc 3 235 0
	blr
	.cfi_endproc
.LFE2547:
	.size	_ZN6idFile5FlushEv, .-_ZN6idFile5FlushEv
	.align 2
	.globl _ZN6idFile4SeekEl10fsOrigin_t
	.type	_ZN6idFile4SeekEl10fsOrigin_t, @function
_ZN6idFile4SeekEl10fsOrigin_t:
.LFB2548:
	.loc 3 242 0
	.cfi_startproc
.LVL40:
	.loc 3 244 0
	li 3,-1
.LVL41:
	blr
	.cfi_endproc
.LFE2548:
	.size	_ZN6idFile4SeekEl10fsOrigin_t, .-_ZN6idFile4SeekEl10fsOrigin_t
	.align 2
	.globl _ZN6idFile6RewindEv
	.type	_ZN6idFile6RewindEv, @function
_ZN6idFile6RewindEv:
.LFB2549:
	.loc 3 251 0
	.cfi_startproc
.LVL42:
	mflr 0
	stwu 1,-8(1)
.LCFI4:
	.cfi_def_cfa_offset 8
	.cfi_register 65, 0
	.loc 3 252 0
	li 4,0
	li 5,2
	.loc 3 251 0
	stw 0,12(1)
	.loc 3 252 0
	lwz 9,0(3)
	lwz 0,48(9)
	.cfi_offset 65, 4
	mtctr 0
	bctrl
.LVL43:
	.loc 3 253 0
	lwz 0,12(1)
	addi 1,1,8
.LCFI5:
	.cfi_def_cfa_offset 0
	mtlr 0
	blr
	.cfi_endproc
.LFE2549:
	.size	_ZN6idFile6RewindEv, .-_ZN6idFile6RewindEv
	.align 2
	.globl _ZN6idFile8ReadCharERc
	.type	_ZN6idFile8ReadCharERc, @function
_ZN6idFile8ReadCharERc:
.LFB2557:
	.loc 3 355 0
	.cfi_startproc
.LVL44:
	mflr 0
	stwu 1,-8(1)
.LCFI6:
	.cfi_def_cfa_offset 8
	.cfi_register 65, 0
	.loc 3 356 0
	li 5,1
	.loc 3 355 0
	stw 0,12(1)
	.loc 3 356 0
	lwz 9,0(3)
	lwz 0,20(9)
	.cfi_offset 65, 4
	mtctr 0
	bctrl
.LVL45:
	.loc 3 357 0
	lwz 0,12(1)
	addi 1,1,8
.LCFI7:
	.cfi_def_cfa_offset 0
	mtlr 0
	blr
	.cfi_endproc
.LFE2557:
	.size	_ZN6idFile8ReadCharERc, .-_ZN6idFile8ReadCharERc
	.align 2
	.globl _ZN6idFile16ReadUnsignedCharERh
	.type	_ZN6idFile16ReadUnsignedCharERh, @function
_ZN6idFile16ReadUnsignedCharERh:
.LFB2558:
	.loc 3 364 0
	.cfi_startproc
.LVL46:
	mflr 0
	stwu 1,-8(1)
.LCFI8:
	.cfi_def_cfa_offset 8
	.cfi_register 65, 0
	.loc 3 365 0
	li 5,1
	.loc 3 364 0
	stw 0,12(1)
	.loc 3 365 0
	lwz 9,0(3)
	lwz 0,20(9)
	.cfi_offset 65, 4
	mtctr 0
	bctrl
.LVL47:
	.loc 3 366 0
	lwz 0,12(1)
	addi 1,1,8
.LCFI9:
	.cfi_def_cfa_offset 0
	mtlr 0
	blr
	.cfi_endproc
.LFE2558:
	.size	_ZN6idFile16ReadUnsignedCharERh, .-_ZN6idFile16ReadUnsignedCharERh
	.align 2
	.globl _ZN6idFile8ReadBoolERb
	.type	_ZN6idFile8ReadBoolERb, @function
_ZN6idFile8ReadBoolERb:
.LFB2560:
	.loc 3 384 0
	.cfi_startproc
.LVL48:
	mflr 0
	stwu 1,-32(1)
.LCFI10:
	.cfi_def_cfa_offset 32
	.cfi_register 65, 0
	stw 31,28(1)
	mr 31,4
	.cfi_offset 31, -4
	stw 0,36(1)
.LBB664:
	.loc 3 386 0
	addi 4,1,8
.LVL49:
	lwz 9,0(3)
	lwz 0,88(9)
	.cfi_offset 65, 4
	mtctr 0
	bctrl
.LVL50:
	.loc 3 387 0
	lbz 0,8(1)
.LVL51:
	neg 0,0
.LVL52:
	srwi 0,0,31
	stb 0,0(31)
.LBE664:
	.loc 3 389 0
	lwz 0,36(1)
	lwz 31,28(1)
.LVL53:
	mtlr 0
	addi 1,1,32
.LCFI11:
	.cfi_def_cfa_offset 0
	.cfi_restore 31
	blr
	.cfi_endproc
.LFE2560:
	.size	_ZN6idFile8ReadBoolERb, .-_ZN6idFile8ReadBoolERb
	.align 2
	.globl _ZN6idFile9WriteCharEc
	.type	_ZN6idFile9WriteCharEc, @function
_ZN6idFile9WriteCharEc:
.LFB2571:
	.loc 3 508 0
	.cfi_startproc
.LVL54:
	mflr 0
	stwu 1,-16(1)
.LCFI12:
	.cfi_def_cfa_offset 16
	.cfi_register 65, 0
	.loc 3 509 0
	li 5,1
	.loc 3 508 0
	mr 9,1
	stw 0,20(1)
	.loc 3 508 0
	stbu 4,8(9)
	.loc 3 509 0
	lwz 11,0(3)
	mr 4,9
.LVL55:
	lwz 0,24(11)
	.cfi_offset 65, 4
	mtctr 0
	bctrl
.LVL56:
	.loc 3 510 0
	lwz 0,20(1)
	addi 1,1,16
.LCFI13:
	.cfi_def_cfa_offset 0
	mtlr 0
	blr
	.cfi_endproc
.LFE2571:
	.size	_ZN6idFile9WriteCharEc, .-_ZN6idFile9WriteCharEc
	.align 2
	.globl _ZN6idFile17WriteUnsignedCharEh
	.type	_ZN6idFile17WriteUnsignedCharEh, @function
_ZN6idFile17WriteUnsignedCharEh:
.LFB2572:
	.loc 3 517 0
	.cfi_startproc
.LVL57:
	mflr 0
	stwu 1,-16(1)
.LCFI14:
	.cfi_def_cfa_offset 16
	.cfi_register 65, 0
	.loc 3 518 0
	li 5,1
	.loc 3 517 0
	mr 9,1
	stw 0,20(1)
	.loc 3 517 0
	stbu 4,8(9)
	.loc 3 518 0
	lwz 11,0(3)
	mr 4,9
.LVL58:
	lwz 0,24(11)
	.cfi_offset 65, 4
	mtctr 0
	bctrl
.LVL59:
	.loc 3 519 0
	lwz 0,20(1)
	addi 1,1,16
.LCFI15:
	.cfi_def_cfa_offset 0
	mtlr 0
	blr
	.cfi_endproc
.LFE2572:
	.size	_ZN6idFile17WriteUnsignedCharEh, .-_ZN6idFile17WriteUnsignedCharEh
	.align 2
	.globl _ZN6idFile9WriteBoolEb
	.type	_ZN6idFile9WriteBoolEb, @function
_ZN6idFile9WriteBoolEb:
.LFB2574:
	.loc 3 536 0
	.cfi_startproc
.LVL60:
	mflr 0
	stwu 1,-8(1)
.LCFI16:
	.cfi_def_cfa_offset 8
	.cfi_register 65, 0
	stw 0,12(1)
.LBB665:
	.loc 3 538 0
	lwz 9,0(3)
	lwz 0,144(9)
	.cfi_offset 65, 4
	mtctr 0
	bctrl
.LVL61:
.LBE665:
	.loc 3 539 0
	lwz 0,12(1)
	addi 1,1,8
.LCFI17:
	.cfi_def_cfa_offset 0
	mtlr 0
	blr
	.cfi_endproc
.LFE2574:
	.size	_ZN6idFile9WriteBoolEb, .-_ZN6idFile9WriteBoolEb
	.align 2
	.globl _ZN13idFile_Memory11GetFileTypeEv
	.type	_ZN13idFile_Memory11GetFileTypeEv, @function
_ZN13idFile_Memory11GetFileTypeEv:
.LFB2600:
	.loc 3 713 0
	.cfi_startproc
.LVL62:
	.loc 3 715 0
	li 3,2
.LVL63:
	blr
	.cfi_endproc
.LFE2600:
	.size	_ZN13idFile_Memory11GetFileTypeEv, .-_ZN13idFile_Memory11GetFileTypeEv
	.align 2
	.globl _ZN13idFile_Memory6LengthEv
	.type	_ZN13idFile_Memory6LengthEv, @function
_ZN13idFile_Memory6LengthEv:
.LFB2603:
	.loc 3 779 0
	.cfi_startproc
.LVL64:
	.loc 3 781 0
	lwz 3,44(3)
.LVL65:
	blr
	.cfi_endproc
.LFE2603:
	.size	_ZN13idFile_Memory6LengthEv, .-_ZN13idFile_Memory6LengthEv
	.align 2
	.globl _ZN13idFile_Memory9TimestampEv
	.type	_ZN13idFile_Memory9TimestampEv, @function
_ZN13idFile_Memory9TimestampEv:
.LFB2604:
	.loc 3 788 0
	.cfi_startproc
.LVL66:
	.loc 3 790 0
	li 3,0
.LVL67:
	blr
	.cfi_endproc
.LFE2604:
	.size	_ZN13idFile_Memory9TimestampEv, .-_ZN13idFile_Memory9TimestampEv
	.align 2
	.globl _ZN13idFile_Memory4TellEv
	.type	_ZN13idFile_Memory4TellEv, @function
_ZN13idFile_Memory4TellEv:
.LFB2605:
	.loc 3 797 0
	.cfi_startproc
.LVL68:
	.loc 3 798 0
	lwz 9,60(3)
	lwz 0,56(3)
	.loc 3 799 0
	subf 3,0,9
.LVL69:
	blr
	.cfi_endproc
.LFE2605:
	.size	_ZN13idFile_Memory4TellEv, .-_ZN13idFile_Memory4TellEv
	.align 2
	.globl _ZN13idFile_Memory10ForceFlushEv
	.type	_ZN13idFile_Memory10ForceFlushEv, @function
_ZN13idFile_Memory10ForceFlushEv:
.LFB2606:
	.loc 3 806 0
	.cfi_startproc
.LVL70:
	.loc 3 807 0
	blr
	.cfi_endproc
.LFE2606:
	.size	_ZN13idFile_Memory10ForceFlushEv, .-_ZN13idFile_Memory10ForceFlushEv
	.align 2
	.globl _ZN13idFile_Memory5FlushEv
	.type	_ZN13idFile_Memory5FlushEv, @function
_ZN13idFile_Memory5FlushEv:
.LFB2607:
	.loc 3 814 0
	.cfi_startproc
.LVL71:
	.loc 3 815 0
	blr
	.cfi_endproc
.LFE2607:
	.size	_ZN13idFile_Memory5FlushEv, .-_ZN13idFile_Memory5FlushEv
	.align 2
	.globl _ZN13idFile_Memory12MakeReadOnlyEv
	.type	_ZN13idFile_Memory12MakeReadOnlyEv, @function
_ZN13idFile_Memory12MakeReadOnlyEv:
.LFB2609:
	.loc 3 860 0
	.cfi_startproc
.LVL72:
	mflr 0
	stwu 1,-8(1)
.LCFI18:
	.cfi_def_cfa_offset 8
	.cfi_register 65, 0
	.loc 3 862 0
	lwz 9,0(3)
	.loc 3 860 0
	stw 0,12(1)
	.loc 3 861 0
	li 0,1
	.cfi_offset 65, 4
	stw 0,36(3)
	.loc 3 862 0
	lwz 0,52(9)
	mtctr 0
	bctrl
.LVL73:
	.loc 3 863 0
	lwz 0,12(1)
	addi 1,1,8
.LCFI19:
	.cfi_def_cfa_offset 0
	mtlr 0
	blr
	.cfi_endproc
.LFE2609:
	.size	_ZN13idFile_Memory12MakeReadOnlyEv, .-_ZN13idFile_Memory12MakeReadOnlyEv
	.align 2
	.globl _ZN13idFile_BitMsg11GetFileTypeEv
	.type	_ZN13idFile_BitMsg11GetFileTypeEv, @function
_ZN13idFile_BitMsg11GetFileTypeEv:
.LFB2622:
	.loc 3 946 0
	.cfi_startproc
.LVL74:
	.loc 3 948 0
	li 3,1
.LVL75:
	blr
	.cfi_endproc
.LFE2622:
	.size	_ZN13idFile_BitMsg11GetFileTypeEv, .-_ZN13idFile_BitMsg11GetFileTypeEv
	.align 2
	.globl _ZN13idFile_BitMsg6LengthEv
	.type	_ZN13idFile_BitMsg6LengthEv, @function
_ZN13idFile_BitMsg6LengthEv:
.LFB2625:
	.loc 3 986 0
	.cfi_startproc
.LVL76:
	.loc 3 1414 0
	lwz 9,40(3)
	.loc 3 988 0
	lwz 3,12(9)
.LVL77:
	blr
	.cfi_endproc
.LFE2625:
	.size	_ZN13idFile_BitMsg6LengthEv, .-_ZN13idFile_BitMsg6LengthEv
	.align 2
	.globl _ZN13idFile_BitMsg9TimestampEv
	.type	_ZN13idFile_BitMsg9TimestampEv, @function
_ZN13idFile_BitMsg9TimestampEv:
.LFB2626:
	.loc 3 995 0
	.cfi_startproc
.LVL78:
	.loc 3 997 0
	li 3,0
.LVL79:
	blr
	.cfi_endproc
.LFE2626:
	.size	_ZN13idFile_BitMsg9TimestampEv, .-_ZN13idFile_BitMsg9TimestampEv
	.align 2
	.globl _ZN13idFile_BitMsg4TellEv
	.type	_ZN13idFile_BitMsg4TellEv, @function
_ZN13idFile_BitMsg4TellEv:
.LFB2627:
	.loc 3 1004 0
	.cfi_startproc
.LVL80:
	.loc 3 1414 0
	lwz 9,40(3)
	.loc 3 1010 0
	lwz 3,12(9)
.LVL81:
	blr
	.cfi_endproc
.LFE2627:
	.size	_ZN13idFile_BitMsg4TellEv, .-_ZN13idFile_BitMsg4TellEv
	.align 2
	.globl _ZN13idFile_BitMsg10ForceFlushEv
	.type	_ZN13idFile_BitMsg10ForceFlushEv, @function
_ZN13idFile_BitMsg10ForceFlushEv:
.LFB2628:
	.loc 3 1017 0
	.cfi_startproc
.LVL82:
	.loc 3 1018 0
	blr
	.cfi_endproc
.LFE2628:
	.size	_ZN13idFile_BitMsg10ForceFlushEv, .-_ZN13idFile_BitMsg10ForceFlushEv
	.align 2
	.globl _ZN13idFile_BitMsg5FlushEv
	.type	_ZN13idFile_BitMsg5FlushEv, @function
_ZN13idFile_BitMsg5FlushEv:
.LFB2629:
	.loc 3 1025 0
	.cfi_startproc
.LVL83:
	.loc 3 1026 0
	blr
	.cfi_endproc
.LFE2629:
	.size	_ZN13idFile_BitMsg5FlushEv, .-_ZN13idFile_BitMsg5FlushEv
	.align 2
	.globl _ZN13idFile_BitMsg4SeekEl10fsOrigin_t
	.type	_ZN13idFile_BitMsg4SeekEl10fsOrigin_t, @function
_ZN13idFile_BitMsg4SeekEl10fsOrigin_t:
.LFB2630:
	.loc 3 1035 0
	.cfi_startproc
.LVL84:
	.loc 3 1037 0
	li 3,-1
.LVL85:
	blr
	.cfi_endproc
.LFE2630:
	.size	_ZN13idFile_BitMsg4SeekEl10fsOrigin_t, .-_ZN13idFile_BitMsg4SeekEl10fsOrigin_t
	.align 2
	.globl _ZN16idFile_Permanent11GetFileTypeEv
	.type	_ZN16idFile_Permanent11GetFileTypeEv, @function
_ZN16idFile_Permanent11GetFileTypeEv:
.LFB2638:
	.loc 3 1076 0
	.cfi_startproc
.LVL86:
	.loc 3 1078 0
	li 3,3
.LVL87:
	blr
	.cfi_endproc
.LFE2638:
	.size	_ZN16idFile_Permanent11GetFileTypeEv, .-_ZN16idFile_Permanent11GetFileTypeEv
	.align 2
	.globl _ZN16idFile_Permanent6LengthEv
	.type	_ZN16idFile_Permanent6LengthEv, @function
_ZN16idFile_Permanent6LengthEv:
.LFB2644:
	.loc 3 1219 0
	.cfi_startproc
.LVL88:
	.loc 3 1221 0
	lwz 3,72(3)
.LVL89:
	blr
	.cfi_endproc
.LFE2644:
	.size	_ZN16idFile_Permanent6LengthEv, .-_ZN16idFile_Permanent6LengthEv
	.align 2
	.globl _ZN12idFile_InZip11GetFileTypeEv
	.type	_ZN12idFile_InZip11GetFileTypeEv, @function
_ZN12idFile_InZip11GetFileTypeEv:
.LFB2654:
	.loc 3 1300 0
	.cfi_startproc
.LVL90:
	.loc 3 1302 0
	li 3,0
.LVL91:
	blr
	.cfi_endproc
.LFE2654:
	.size	_ZN12idFile_InZip11GetFileTypeEv, .-_ZN12idFile_InZip11GetFileTypeEv
	.align 2
	.globl _ZN12idFile_InZip5WriteEPKvi
	.type	_ZN12idFile_InZip5WriteEPKvi, @function
_ZN12idFile_InZip5WriteEPKvi:
.LFB2656:
	.loc 3 1322 0
	.cfi_startproc
.LVL92:
	mflr 0
	stwu 1,-8(1)
.LCFI20:
	.cfi_def_cfa_offset 8
	.cfi_register 65, 0
	.loc 3 1323 0
	lis 9,common@ha
	lis 4,.LC3@ha
.LVL93:
	lwz 9,common@l(9)
	la 4,.LC3@l(4)
	.loc 3 1322 0
	stw 0,12(1)
	.loc 3 1323 0
	lwz 11,0(9)
	lwz 5,8(3)
.LVL94:
	mr 3,9
.LVL95:
	lwz 0,100(11)
	.cfi_offset 65, 4
	mtctr 0
	crxor 6,6,6
	bctrl
	.loc 3 1325 0
	lwz 0,12(1)
	li 3,0
	mtlr 0
	addi 1,1,8
.LCFI21:
	.cfi_def_cfa_offset 0
	blr
	.cfi_endproc
.LFE2656:
	.size	_ZN12idFile_InZip5WriteEPKvi, .-_ZN12idFile_InZip5WriteEPKvi
	.align 2
	.globl _ZN12idFile_InZip10ForceFlushEv
	.type	_ZN12idFile_InZip10ForceFlushEv, @function
_ZN12idFile_InZip10ForceFlushEv:
.LFB2657:
	.loc 3 1332 0
	.cfi_startproc
.LVL96:
	mflr 0
	stwu 1,-8(1)
.LCFI22:
	.cfi_def_cfa_offset 8
	.cfi_register 65, 0
	.loc 3 1333 0
	lis 9,common@ha
	lis 4,.LC4@ha
	lwz 9,common@l(9)
	la 4,.LC4@l(4)
	.loc 3 1332 0
	stw 0,12(1)
	.loc 3 1333 0
	lwz 11,0(9)
	lwz 5,8(3)
	mr 3,9
.LVL97:
	lwz 0,100(11)
	.cfi_offset 65, 4
	mtctr 0
	crxor 6,6,6
	bctrl
	.loc 3 1334 0
	lwz 0,12(1)
	addi 1,1,8
.LCFI23:
	.cfi_def_cfa_offset 0
	mtlr 0
	blr
	.cfi_endproc
.LFE2657:
	.size	_ZN12idFile_InZip10ForceFlushEv, .-_ZN12idFile_InZip10ForceFlushEv
	.align 2
	.globl _ZN12idFile_InZip5FlushEv
	.type	_ZN12idFile_InZip5FlushEv, @function
_ZN12idFile_InZip5FlushEv:
.LFB2658:
	.loc 3 1341 0
	.cfi_startproc
.LVL98:
	mflr 0
	stwu 1,-8(1)
.LCFI24:
	.cfi_def_cfa_offset 8
	.cfi_register 65, 0
	.loc 3 1342 0
	lis 9,common@ha
	lis 4,.LC5@ha
	lwz 9,common@l(9)
	la 4,.LC5@l(4)
	.loc 3 1341 0
	stw 0,12(1)
	.loc 3 1342 0
	lwz 11,0(9)
	lwz 5,8(3)
	mr 3,9
.LVL99:
	lwz 0,100(11)
	.cfi_offset 65, 4
	mtctr 0
	crxor 6,6,6
	bctrl
	.loc 3 1343 0
	lwz 0,12(1)
	addi 1,1,8
.LCFI25:
	.cfi_def_cfa_offset 0
	mtlr 0
	blr
	.cfi_endproc
.LFE2658:
	.size	_ZN12idFile_InZip5FlushEv, .-_ZN12idFile_InZip5FlushEv
	.align 2
	.globl _ZN12idFile_InZip6LengthEv
	.type	_ZN12idFile_InZip6LengthEv, @function
_ZN12idFile_InZip6LengthEv:
.LFB2660:
	.loc 3 1359 0
	.cfi_startproc
.LVL100:
	.loc 3 1361 0
	lwz 3,72(3)
.LVL101:
	blr
	.cfi_endproc
.LFE2660:
	.size	_ZN12idFile_InZip6LengthEv, .-_ZN12idFile_InZip6LengthEv
	.align 2
	.globl _ZN12idFile_InZip9TimestampEv
	.type	_ZN12idFile_InZip9TimestampEv, @function
_ZN12idFile_InZip9TimestampEv:
.LFB2661:
	.loc 3 1368 0
	.cfi_startproc
.LVL102:
	.loc 3 1370 0
	li 3,0
.LVL103:
	blr
	.cfi_endproc
.LFE2661:
	.size	_ZN12idFile_InZip9TimestampEv, .-_ZN12idFile_InZip9TimestampEv
	.section	.text._ZN9idWinding5ClearEv,"axG",@progbits,_ZN9idWinding5ClearEv,comdat
	.align 2
	.weak	_ZN9idWinding5ClearEv
	.type	_ZN9idWinding5ClearEv, @function
_ZN9idWinding5ClearEv:
.LFB1473:
	.loc 1 249 0
	.cfi_startproc
.LVL104:
	mflr 0
	stwu 1,-16(1)
.LCFI26:
	.cfi_def_cfa_offset 16
	.cfi_register 65, 0
	stw 31,12(1)
	mr 31,3
	.cfi_offset 31, -4
	stw 0,20(1)
	.loc 1 250 0
	li 0,0
	.cfi_offset 65, 4
	.loc 1 251 0
	lwz 3,8(3)
.LVL105:
	.loc 1 250 0
	stw 0,4(31)
	.loc 1 251 0
	cmpwi 7,3,0
	beq- 7,.L53
	.loc 1 251 0 is_stmt 0 discriminator 1
	bl _ZdaPv
.L53:
	.loc 1 252 0 is_stmt 1
	li 0,0
	stw 0,8(31)
	.loc 1 253 0
	lwz 0,20(1)
	lwz 31,12(1)
.LVL106:
	mtlr 0
	addi 1,1,16
.LCFI27:
	.cfi_def_cfa_offset 0
	.cfi_restore 31
	blr
	.cfi_endproc
.LFE1473:
	.size	_ZN9idWinding5ClearEv, .-_ZN9idWinding5ClearEv
	.section	.text._ZN9idWindingD2Ev,"axG",@progbits,_ZN9idWindingD5Ev,comdat
	.align 2
	.weak	_ZN9idWindingD2Ev
	.type	_ZN9idWindingD2Ev, @function
_ZN9idWindingD2Ev:
.LFB1461:
	.loc 1 183 0
	.cfi_startproc
.LVL107:
	mflr 0
	stwu 1,-16(1)
.LCFI28:
	.cfi_def_cfa_offset 16
	.cfi_register 65, 0
.LBB667:
	lis 9,_ZTV9idWinding+8@ha
.LBE667:
	stw 31,12(1)
	mr 31,3
	.cfi_offset 31, -4
	stw 0,20(1)
.LBB668:
	.loc 1 183 0
	la 0,_ZTV9idWinding+8@l(9)
	.cfi_offset 65, 4
	.loc 1 184 0
	lwz 3,8(3)
.LVL108:
	.loc 1 183 0
	stw 0,0(31)
	.loc 1 184 0
	cmpwi 7,3,0
	beq- 7,.L56
	.loc 1 184 0 is_stmt 0 discriminator 1
	bl _ZdaPv
.L56:
	.loc 1 185 0 is_stmt 1
	li 0,0
	stw 0,8(31)
.LBE668:
	.loc 1 186 0
	lwz 0,20(1)
	lwz 31,12(1)
.LVL109:
	mtlr 0
	addi 1,1,16
.LCFI29:
	.cfi_def_cfa_offset 0
	.cfi_restore 31
	blr
	.cfi_endproc
.LFE1461:
	.size	_ZN9idWindingD2Ev, .-_ZN9idWindingD2Ev
	.section	.text._ZN6idFileD0Ev,"axG",@progbits,_ZN6idFileD5Ev,comdat
	.align 2
	.weak	_ZN6idFileD0Ev
	.type	_ZN6idFileD0Ev, @function
_ZN6idFileD0Ev:
.LFB2223:
	.loc 2 60 0
	.cfi_startproc
.LVL110:
	mflr 0
	stwu 1,-8(1)
.LCFI30:
	.cfi_def_cfa_offset 8
	.cfi_register 65, 0
.LBB669:
.LBB670:
.LBB671:
	lis 9,_ZTV6idFile+8@ha
.LBE671:
.LBE670:
.LBE669:
	stw 0,12(1)
.LBB674:
.LBB673:
.LBB672:
	.loc 2 60 0
	la 0,_ZTV6idFile+8@l(9)
	.cfi_offset 65, 4
	stw 0,0(3)
.LBE672:
.LBE673:
.LBE674:
	bl _ZdlPv
.LVL111:
	lwz 0,12(1)
	addi 1,1,8
.LCFI31:
	.cfi_def_cfa_offset 0
	mtlr 0
	blr
	.cfi_endproc
.LFE2223:
	.size	_ZN6idFileD0Ev, .-_ZN6idFileD0Ev
	.section	".text"
	.align 2
	.globl _ZN12idFile_InZip4ReadEPvi
	.type	_ZN12idFile_InZip4ReadEPvi, @function
_ZN12idFile_InZip4ReadEPvi:
.LFB2655:
	.loc 3 1311 0
	.cfi_startproc
.LVL112:
	mflr 0
	stwu 1,-16(1)
.LCFI32:
	.cfi_def_cfa_offset 16
	.cfi_register 65, 0
	stw 31,12(1)
	stw 0,20(1)
.LBB675:
	.loc 3 1312 0
	lwz 3,76(3)
.LVL113:
	.cfi_offset 65, 4
	.cfi_offset 31, -4
	bl _Z18unzReadCurrentFilePvS_j
.LVL114:
	.loc 3 1313 0
	lis 9,fileSystem@ha
	.loc 3 1312 0
	mr 31,3
.LVL115:
	.loc 3 1313 0
	lwz 3,fileSystem@l(9)
.LVL116:
	mr 4,31
	lwz 9,0(3)
	lwz 0,152(9)
	mtctr 0
	bctrl
.LBE675:
	.loc 3 1315 0
	lwz 0,20(1)
	mr 3,31
	lwz 31,12(1)
.LVL117:
	mtlr 0
	addi 1,1,16
.LCFI33:
	.cfi_def_cfa_offset 0
	.cfi_restore 31
	blr
	.cfi_endproc
.LFE2655:
	.size	_ZN12idFile_InZip4ReadEPvi, .-_ZN12idFile_InZip4ReadEPvi
	.align 2
	.globl _ZN12idFile_InZip4SeekEl10fsOrigin_t
	.type	_ZN12idFile_InZip4SeekEl10fsOrigin_t, @function
_ZN12idFile_InZip4SeekEl10fsOrigin_t:
.LFB2662:
	.loc 3 1381 0
	.cfi_startproc
.LVL118:
.LBB676:
	.loc 3 1385 0
	cmpwi 7,5,1
.LBE676:
	.loc 3 1381 0
	mflr 0
	stwu 1,-32(1)
.LCFI34:
	.cfi_def_cfa_offset 32
	.cfi_register 65, 0
	stw 26,8(1)
	mr 26,4
	.cfi_offset 26, -24
	stw 29,20(1)
	mr 29,3
	.cfi_offset 29, -12
	stw 31,28(1)
	mr 31,1
	.cfi_offset 31, -4
.LCFI35:
	.cfi_def_cfa_register 31
	stw 0,36(1)
	stw 27,12(1)
	stw 28,16(1)
	stw 30,24(1)
.LBB677:
	.loc 3 1385 0
	beq- 7,.L65
	.cfi_offset 30, -8
	.cfi_offset 28, -16
	.cfi_offset 27, -20
	.cfi_offset 65, 4
	cmpwi 7,5,2
	beq- 7,.L66
	cmpwi 7,5,0
	bne- 7,.L76
.LVL119:
.L64:
	.loc 3 1398 0
	lwz 9,0(1)
	lis 0,0xffff
	ori 0,0,32736
	.loc 3 1399 0
	addic. 27,26,-32768
	.loc 3 1398 0
	stwux 9,1,0
	.loc 3 1399 0
	li 30,0
	.loc 3 1398 0
	addi 28,1,23
	rlwinm 28,28,0,0,27
.LVL120:
	.loc 3 1399 0
	bgt+ 0,.L69
	b .L68
.LVL121:
.L77:
	bge- 6,.L68
.LVL122:
.L69:
	.loc 3 1400 0
	lwz 3,76(29)
	li 5,0
	mr 4,28
	ori 5,5,32768
	bl _Z18unzReadCurrentFilePvS_j
.LVL123:
	.loc 3 1399 0
	addis 30,30,0x1
	.loc 3 1401 0
	cmpwi 7,3,32767
	.loc 3 1399 0
	addi 30,30,-32768
	cmpw 6,30,27
	.loc 3 1401 0
	bgt+ 7,.L77
	.loc 3 1402 0
	li 3,-1
.LVL124:
.L67:
.LBE677:
	.loc 3 1414 0
	addi 11,31,32
	lwz 0,4(11)
	lwz 26,-24(11)
.LVL125:
	mtlr 0
	lwz 27,-20(11)
	lwz 28,-16(11)
	lwz 29,-12(11)
.LVL126:
	lwz 30,-8(11)
	lwz 31,-4(11)
	.cfi_remember_state
.LCFI36:
	.cfi_def_cfa 11, 0
	mr 1,11
.LCFI37:
	.cfi_def_cfa_register 1
	.cfi_restore 31
	.cfi_restore 30
	.cfi_restore 29
	.cfi_restore 28
	.cfi_restore 27
	.cfi_restore 26
	blr
.LVL127:
.L65:
.LCFI38:
	.cfi_restore_state
.LBB678:
	.loc 3 1387 0
	lwz 0,72(3)
	subf 26,4,0
.LVL128:
.L66:
	.loc 3 1391 0
	lwz 4,68(29)
	lwz 3,76(29)
.LVL129:
	bl _Z29unzSetCurrentFileInfoPositionPvm
.LVL130:
	.loc 3 1392 0
	lwz 3,76(29)
	bl _Z18unzOpenCurrentFilePv
	.loc 3 1393 0
	cmpwi 7,26,0
	.loc 3 1394 0
	li 3,0
	.loc 3 1393 0
	bgt+ 7,.L64
	b .L67
.LVL131:
.L76:
	.loc 3 1409 0
	lis 9,common@ha
	lis 4,.LC6@ha
.LVL132:
	lwz 3,common@l(9)
	la 4,.LC6@l(4)
	lwz 5,8(29)
.LVL133:
	lwz 9,0(3)
	lwz 0,100(9)
	mtctr 0
	crxor 6,6,6
	bctrl
.LBE678:
	.loc 3 1414 0
	addi 11,31,32
	lwz 0,4(11)
.LBB679:
	.loc 3 1413 0
	li 3,-1
.LBE679:
	.loc 3 1414 0
	lwz 26,-24(11)
.LVL134:
	mtlr 0
	lwz 27,-20(11)
	lwz 28,-16(11)
	lwz 29,-12(11)
.LVL135:
	lwz 30,-8(11)
	lwz 31,-4(11)
	.cfi_remember_state
.LCFI39:
	.cfi_def_cfa 11, 0
	mr 1,11
	.cfi_restore 26
	.cfi_restore 27
	.cfi_restore 28
	.cfi_restore 29
	.cfi_restore 30
	.cfi_restore 31
.LCFI40:
	.cfi_def_cfa_register 1
	blr
.LVL136:
.L68:
.LCFI41:
	.cfi_restore_state
.LBB680:
	.loc 3 1405 0
	lwz 3,76(29)
	mr 4,28
	subf 5,30,26
	bl _Z18unzReadCurrentFilePvS_j
.LVL137:
	add 3,30,3
.LVL138:
	.loc 3 1406 0
	cmpw 7,3,26
	li 3,-1
.LVL139:
	bne+ 7,.L67
	li 3,0
	b .L67
.LBE680:
	.cfi_endproc
.LFE2662:
	.size	_ZN12idFile_InZip4SeekEl10fsOrigin_t, .-_ZN12idFile_InZip4SeekEl10fsOrigin_t
	.align 2
	.globl _ZN12idFile_InZip4TellEv
	.type	_ZN12idFile_InZip4TellEv, @function
_ZN12idFile_InZip4TellEv:
.LFB2659:
	.loc 3 1350 0
	.cfi_startproc
.LVL140:
	mflr 0
	stwu 1,-8(1)
.LCFI42:
	.cfi_def_cfa_offset 8
	.cfi_register 65, 0
	stw 0,12(1)
	.loc 3 1351 0
	lwz 3,76(3)
.LVL141:
	.cfi_offset 65, 4
	bl _Z7unztellPv
	.loc 3 1352 0
	lwz 0,12(1)
	addi 1,1,8
.LCFI43:
	.cfi_def_cfa_offset 0
	mtlr 0
	blr
	.cfi_endproc
.LFE2659:
	.size	_ZN12idFile_InZip4TellEv, .-_ZN12idFile_InZip4TellEv
	.align 2
	.globl _ZN12idFile_InZipD2Ev
	.type	_ZN12idFile_InZipD2Ev, @function
_ZN12idFile_InZipD2Ev:
.LFB2651:
	.loc 3 1295 0
	.cfi_startproc
	.cfi_personality 0,__gxx_personality_v0
	.cfi_lsda 0,.LLSDA2651
.LVL142:
	mflr 0
	stwu 1,-16(1)
.LCFI44:
	.cfi_def_cfa_offset 16
	.cfi_register 65, 0
.LBB681:
	lis 9,_ZTV12idFile_InZip+8@ha
.LBE681:
	stw 31,12(1)
	mr 31,3
	.cfi_offset 31, -4
	stw 0,20(1)
.LBB700:
	la 0,_ZTV12idFile_InZip+8@l(9)
	.cfi_offset 65, 4
.LBE700:
	stw 30,8(1)
.LBB701:
	.loc 3 1295 0
	stw 0,0(3)
	.loc 3 1296 0
	lwz 3,76(3)
.LVL143:
.LEHB0:
	.cfi_offset 30, -8
	bl _Z19unzCloseCurrentFilePv
	.loc 3 1297 0
	lwz 3,76(31)
	bl _Z8unzClosePv
.LEHE0:
.LVL144:
.LBB682:
.LBB683:
.LBB684:
	.file 4 "d:/Data/Nintendo/DoomGX/src/framework/../idlib/../idlib/Str.h"
	.loc 4 501 0
	addi 3,31,36
.LEHB1:
	bl _ZN5idStr8FreeDataEv
.LEHE1:
.LVL145:
.LBE684:
.LBE683:
.LBE682:
.LBB685:
.LBB686:
.LBB687:
	.loc 4 501 0 is_stmt 0 discriminator 1
	addi 3,31,4
.LEHB2:
	bl _ZN5idStr8FreeDataEv
.LEHE2:
.LVL146:
.LBE687:
.LBE686:
.LBE685:
.LBB688:
.LBB689:
.LBB690:
	.loc 2 60 0 is_stmt 1 discriminator 2
	lis 9,_ZTV6idFile+8@ha
	la 0,_ZTV6idFile+8@l(9)
	stw 0,0(31)
.LBE690:
.LBE689:
.LBE688:
.LBE701:
	.loc 3 1298 0 discriminator 2
	lwz 0,20(1)
	lwz 30,8(1)
	mtlr 0
	lwz 31,12(1)
.LVL147:
	addi 1,1,16
	.cfi_remember_state
.LCFI45:
	.cfi_def_cfa_offset 0
	.cfi_restore 31
	.cfi_restore 30
	blr
.LVL148:
.L90:
.LCFI46:
	.cfi_restore_state
	mr 30,3
.LVL149:
.LBB702:
.LBB691:
.LBB692:
.LBB693:
	.loc 4 501 0
	addi 3,31,36
	bl _ZN5idStr8FreeDataEv
.LVL150:
.L86:
.LBE693:
.LBE692:
.LBE691:
.LBB694:
.LBB695:
.LBB696:
	addi 3,31,4
	bl _ZN5idStr8FreeDataEv
	mr 3,30
.LVL151:
.L88:
.LBE696:
.LBE695:
.LBE694:
.LBB697:
.LBB698:
.LBB699:
	.loc 2 60 0
	lis 9,_ZTV6idFile+8@ha
	la 0,_ZTV6idFile+8@l(9)
	stw 0,0(31)
.LEHB3:
	bl _Unwind_Resume
.LEHE3:
.LVL152:
.L92:
	b .L88
.LVL153:
.L91:
	mr 30,3
	b .L86
.LBE699:
.LBE698:
.LBE697:
.LBE702:
	.cfi_endproc
.LFE2651:
	.globl __gxx_personality_v0
	.section	.gcc_except_table,"a",@progbits
.LLSDA2651:
	.byte	0xff
	.byte	0xff
	.byte	0x1
	.uleb128 .LLSDACSE2651-.LLSDACSB2651
.LLSDACSB2651:
	.uleb128 .LEHB0-.LFB2651
	.uleb128 .LEHE0-.LEHB0
	.uleb128 .L90-.LFB2651
	.uleb128 0
	.uleb128 .LEHB1-.LFB2651
	.uleb128 .LEHE1-.LEHB1
	.uleb128 .L91-.LFB2651
	.uleb128 0
	.uleb128 .LEHB2-.LFB2651
	.uleb128 .LEHE2-.LEHB2
	.uleb128 .L92-.LFB2651
	.uleb128 0
	.uleb128 .LEHB3-.LFB2651
	.uleb128 .LEHE3-.LEHB3
	.uleb128 0
	.uleb128 0
.LLSDACSE2651:
	.section	".text"
	.size	_ZN12idFile_InZipD2Ev, .-_ZN12idFile_InZipD2Ev
	.align 2
	.globl _ZN12idFile_InZipD0Ev
	.type	_ZN12idFile_InZipD0Ev, @function
_ZN12idFile_InZipD0Ev:
.LFB2653:
	.loc 3 1295 0
	.cfi_startproc
.LVL154:
	stwu 1,-16(1)
.LCFI47:
	.cfi_def_cfa_offset 16
	mflr 0
	stw 31,12(1)
	mr 31,3
	.cfi_offset 31, -4
	.cfi_register 65, 0
	stw 0,20(1)
	.loc 3 1298 0
	.cfi_offset 65, 4
	bl _ZN12idFile_InZipD1Ev
.LVL155:
	mr 3,31
	bl _ZdlPv
	lwz 0,20(1)
	lwz 31,12(1)
.LVL156:
	mtlr 0
	addi 1,1,16
.LCFI48:
	.cfi_def_cfa_offset 0
	.cfi_restore 31
	blr
	.cfi_endproc
.LFE2653:
	.size	_ZN12idFile_InZipD0Ev, .-_ZN12idFile_InZipD0Ev
	.align 2
	.globl _ZN13idFile_BitMsgD2Ev
	.type	_ZN13idFile_BitMsgD2Ev, @function
_ZN13idFile_BitMsgD2Ev:
.LFB2619:
	.loc 3 943 0
	.cfi_startproc
	.cfi_personality 0,__gxx_personality_v0
	.cfi_lsda 0,.LLSDA2619
.LVL157:
	mflr 0
	stwu 1,-16(1)
.LCFI49:
	.cfi_def_cfa_offset 16
	.cfi_register 65, 0
.LBB703:
	lis 9,_ZTV13idFile_BitMsg+8@ha
.LBE703:
	stw 31,12(1)
	mr 31,3
	.cfi_offset 31, -4
	stw 0,20(1)
.LBB713:
	.loc 3 943 0
	la 0,_ZTV13idFile_BitMsg+8@l(9)
	.cfi_offset 65, 4
	stw 0,0(3)
.LVL158:
.LBB704:
.LBB705:
.LBB706:
	.loc 4 501 0
	addi 3,3,4
.LVL159:
.LEHB4:
	bl _ZN5idStr8FreeDataEv
.LEHE4:
.LVL160:
.LBE706:
.LBE705:
.LBE704:
.LBB707:
.LBB708:
.LBB709:
	.loc 2 60 0 discriminator 1
	lis 9,_ZTV6idFile+8@ha
	la 0,_ZTV6idFile+8@l(9)
	stw 0,0(31)
.LBE709:
.LBE708:
.LBE707:
.LBE713:
	.loc 3 944 0 discriminator 1
	lwz 0,20(1)
	lwz 31,12(1)
.LVL161:
	mtlr 0
	addi 1,1,16
	.cfi_remember_state
.LCFI50:
	.cfi_def_cfa_offset 0
	.cfi_restore 31
	blr
.LVL162:
.L101:
.LCFI51:
	.cfi_restore_state
.LBB714:
.LBB710:
.LBB711:
.LBB712:
	.loc 2 60 0
	lis 9,_ZTV6idFile+8@ha
	la 0,_ZTV6idFile+8@l(9)
	stw 0,0(31)
.LEHB5:
	bl _Unwind_Resume
.LEHE5:
.LBE712:
.LBE711:
.LBE710:
.LBE714:
	.cfi_endproc
.LFE2619:
	.section	.gcc_except_table
.LLSDA2619:
	.byte	0xff
	.byte	0xff
	.byte	0x1
	.uleb128 .LLSDACSE2619-.LLSDACSB2619
.LLSDACSB2619:
	.uleb128 .LEHB4-.LFB2619
	.uleb128 .LEHE4-.LEHB4
	.uleb128 .L101-.LFB2619
	.uleb128 0
	.uleb128 .LEHB5-.LFB2619
	.uleb128 .LEHE5-.LEHB5
	.uleb128 0
	.uleb128 0
.LLSDACSE2619:
	.section	".text"
	.size	_ZN13idFile_BitMsgD2Ev, .-_ZN13idFile_BitMsgD2Ev
	.align 2
	.globl _ZN13idFile_BitMsgD0Ev
	.type	_ZN13idFile_BitMsgD0Ev, @function
_ZN13idFile_BitMsgD0Ev:
.LFB2621:
	.loc 3 943 0
	.cfi_startproc
.LVL163:
	stwu 1,-16(1)
.LCFI52:
	.cfi_def_cfa_offset 16
	mflr 0
	stw 31,12(1)
	mr 31,3
	.cfi_offset 31, -4
	.cfi_register 65, 0
	stw 0,20(1)
	.loc 3 944 0
	.cfi_offset 65, 4
	bl _ZN13idFile_BitMsgD1Ev
.LVL164:
	mr 3,31
	bl _ZdlPv
	lwz 0,20(1)
	lwz 31,12(1)
.LVL165:
	mtlr 0
	addi 1,1,16
.LCFI53:
	.cfi_def_cfa_offset 0
	.cfi_restore 31
	blr
	.cfi_endproc
.LFE2621:
	.size	_ZN13idFile_BitMsgD0Ev, .-_ZN13idFile_BitMsgD0Ev
	.align 2
	.globl _ZN16idFile_Permanent4SeekEl10fsOrigin_t
	.type	_ZN16idFile_Permanent4SeekEl10fsOrigin_t, @function
_ZN16idFile_Permanent4SeekEl10fsOrigin_t:
.LFB2646:
	.loc 3 1239 0
	.cfi_startproc
.LVL166:
.LBB715:
	.loc 3 1242 0
	cmpwi 7,5,1
.LBE715:
	.loc 3 1239 0
	mflr 0
	stwu 1,-24(1)
.LCFI54:
	.cfi_def_cfa_offset 24
	.cfi_register 65, 0
	mr 6,4
.LBB716:
	.loc 3 1248 0
	li 7,2
.LBE716:
	.loc 3 1239 0
	stw 31,20(1)
	mr 31,3
	.cfi_offset 31, -4
	stw 0,28(1)
.LBB717:
	.loc 3 1242 0
	beq- 7,.L107
	.cfi_offset 65, 4
	cmpwi 7,5,2
	.loc 3 1252 0
	li 7,0
	.loc 3 1242 0
	beq- 7,.L107
	cmpwi 7,5,0
	.loc 3 1244 0
	li 7,1
	.loc 3 1242 0
	bne- 7,.L110
.L107:
.LVL167:
	.loc 3 1262 0
	lwz 3,76(31)
.LVL168:
	srawi 5,6,31
.LVL169:
	bl fseek
.LVL170:
.LBE717:
	.loc 3 1263 0
	lwz 0,28(1)
	lwz 31,20(1)
.LVL171:
	mtlr 0
	addi 1,1,24
	.cfi_remember_state
.LCFI55:
	.cfi_def_cfa_offset 0
	.cfi_restore 31
	blr
.LVL172:
.L110:
.LCFI56:
	.cfi_restore_state
.LBB718:
	.loc 3 1257 0
	lis 9,common@ha
	lis 4,.LC7@ha
.LVL173:
	lwz 3,common@l(9)
.LVL174:
	la 4,.LC7@l(4)
	lwz 5,8(31)
.LVL175:
	lwz 9,0(3)
	lwz 0,100(9)
	stw 6,12(1)
	stw 7,8(1)
	mtctr 0
	crxor 6,6,6
	bctrl
.LVL176:
	lwz 6,12(1)
	lwz 7,8(1)
.LVL177:
	.loc 3 1262 0
	lwz 3,76(31)
	srawi 5,6,31
	bl fseek
.LVL178:
.LBE718:
	.loc 3 1263 0
	lwz 0,28(1)
	lwz 31,20(1)
.LVL179:
	mtlr 0
	addi 1,1,24
	.cfi_restore 31
.LCFI57:
	.cfi_def_cfa_offset 0
	blr
	.cfi_endproc
.LFE2646:
	.size	_ZN16idFile_Permanent4SeekEl10fsOrigin_t, .-_ZN16idFile_Permanent4SeekEl10fsOrigin_t
	.align 2
	.globl _ZN16idFile_Permanent9TimestampEv
	.type	_ZN16idFile_Permanent9TimestampEv, @function
_ZN16idFile_Permanent9TimestampEv:
.LFB2645:
	.loc 3 1228 0
	.cfi_startproc
.LVL180:
	mflr 0
	stwu 1,-8(1)
.LCFI58:
	.cfi_def_cfa_offset 8
	.cfi_register 65, 0
	stw 0,12(1)
	.loc 3 1229 0
	lwz 3,76(3)
.LVL181:
	.cfi_offset 65, 4
	bl _Z17Sys_FileTimeStampP7__sFILE
	.loc 3 1230 0
	lwz 0,12(1)
	addi 1,1,8
.LCFI59:
	.cfi_def_cfa_offset 0
	mtlr 0
	blr
	.cfi_endproc
.LFE2645:
	.size	_ZN16idFile_Permanent9TimestampEv, .-_ZN16idFile_Permanent9TimestampEv
	.align 2
	.globl _ZN16idFile_Permanent4TellEv
	.type	_ZN16idFile_Permanent4TellEv, @function
_ZN16idFile_Permanent4TellEv:
.LFB2643:
	.loc 3 1210 0
	.cfi_startproc
.LVL182:
	mflr 0
	stwu 1,-8(1)
.LCFI60:
	.cfi_def_cfa_offset 8
	.cfi_register 65, 0
	stw 0,12(1)
	.loc 3 1211 0
	lwz 3,76(3)
.LVL183:
	.cfi_offset 65, 4
	bl ftell
	.loc 3 1212 0
	lwz 0,12(1)
	addi 1,1,8
.LCFI61:
	.cfi_def_cfa_offset 0
	mtlr 0
	blr
	.cfi_endproc
.LFE2643:
	.size	_ZN16idFile_Permanent4TellEv, .-_ZN16idFile_Permanent4TellEv
	.align 2
	.globl _ZN16idFile_Permanent5FlushEv
	.type	_ZN16idFile_Permanent5FlushEv, @function
_ZN16idFile_Permanent5FlushEv:
.LFB2642:
	.loc 3 1201 0
	.cfi_startproc
.LVL184:
	mflr 0
	stwu 1,-8(1)
.LCFI62:
	.cfi_def_cfa_offset 8
	.cfi_register 65, 0
	stw 0,12(1)
	.loc 3 1202 0
	lwz 3,76(3)
.LVL185:
	.cfi_offset 65, 4
	bl fflush
	.loc 3 1203 0
	lwz 0,12(1)
	addi 1,1,8
.LCFI63:
	.cfi_def_cfa_offset 0
	mtlr 0
	blr
	.cfi_endproc
.LFE2642:
	.size	_ZN16idFile_Permanent5FlushEv, .-_ZN16idFile_Permanent5FlushEv
	.align 2
	.globl _ZN16idFile_Permanent10ForceFlushEv
	.type	_ZN16idFile_Permanent10ForceFlushEv, @function
_ZN16idFile_Permanent10ForceFlushEv:
.LFB2641:
	.loc 3 1192 0
	.cfi_startproc
.LVL186:
	mflr 0
	stwu 1,-8(1)
.LCFI64:
	.cfi_def_cfa_offset 8
	.cfi_register 65, 0
	.loc 3 1193 0
	li 4,0
	li 5,2
	li 6,0
	.loc 3 1192 0
	stw 0,12(1)
	.loc 3 1193 0
	lwz 3,76(3)
.LVL187:
	.cfi_offset 65, 4
	bl setvbuf
	.loc 3 1194 0
	lwz 0,12(1)
	addi 1,1,8
.LCFI65:
	.cfi_def_cfa_offset 0
	mtlr 0
	blr
	.cfi_endproc
.LFE2641:
	.size	_ZN16idFile_Permanent10ForceFlushEv, .-_ZN16idFile_Permanent10ForceFlushEv
	.align 2
	.globl _ZN16idFile_Permanent5WriteEPKvi
	.type	_ZN16idFile_Permanent5WriteEPKvi, @function
_ZN16idFile_Permanent5WriteEPKvi:
.LFB2640:
	.loc 3 1140 0
	.cfi_startproc
.LVL188:
	mflr 0
	stwu 1,-32(1)
.LCFI66:
	.cfi_def_cfa_offset 32
	.cfi_register 65, 0
	stw 27,12(1)
	mr 27,5
	.cfi_offset 27, -20
	stw 30,24(1)
	mr 30,3
	.cfi_offset 30, -8
	stw 0,36(1)
	stw 28,16(1)
	stw 29,20(1)
	stw 31,28(1)
.LBB719:
	.loc 3 1146 0
	lwz 0,68(3)
	.cfi_offset 31, -4
	.cfi_offset 29, -12
	.cfi_offset 28, -16
	.cfi_offset 65, 4
	andi. 9,0,2
	beq- 0,.L124
	.loc 3 1151 0
	lwz 6,76(3)
	cmpwi 7,6,0
	beq- 7,.L122
.LVL189:
	.loc 3 1159 0 discriminator 1
	cmpwi 7,5,0
	beq- 7,.L118
.LVL190:
	.loc 3 1159 0 is_stmt 0
	mr 29,4
	mr 31,5
	li 28,0
	b .L121
.LVL191:
.L126:
	.loc 3 1163 0 is_stmt 1
	bne- 6,.L125
	.loc 3 1164 0
	li 28,1
.L120:
.LVL192:
	.loc 3 1179 0
	lwz 0,72(30)
	.loc 3 1178 0
	add 29,29,3
.LVL193:
	.loc 3 1179 0
	add 3,0,3
.LVL194:
	stw 3,72(30)
.LVL195:
	.loc 3 1159 0
	beq- 7,.L118
	.loc 3 1178 0
	lwz 6,76(30)
.LVL196:
.L121:
	.loc 3 1161 0
	mr 5,31
	mr 3,29
	li 4,1
	bl fwrite
.LVL197:
	.loc 3 1163 0
	cmpwi 6,28,0
	.loc 3 1162 0
	cmpwi 0,3,0
	.loc 3 1159 0
	subf 31,3,31
.LVL198:
	.loc 3 1172 0
	cmpwi 1,3,-1
	.loc 3 1159 0
	cmpwi 7,31,0
	.loc 3 1162 0
	beq- 0,.L126
.LVL199:
	.loc 3 1172 0
	bne+ 1,.L120
	.loc 3 1173 0
	lis 9,common@ha
	lis 4,.LC10@ha
	lwz 3,common@l(9)
.LVL200:
	la 4,.LC10@l(4)
	lwz 5,8(30)
	.loc 3 1174 0
	li 27,0
.LVL201:
	.loc 3 1173 0
	lwz 9,0(3)
	lwz 0,68(9)
	mtctr 0
	crxor 6,6,6
	bctrl
.LVL202:
.L117:
.LBE719:
	.loc 3 1185 0
	lwz 0,36(1)
	mr 3,27
	lwz 28,16(1)
	mtlr 0
	lwz 27,12(1)
	lwz 29,20(1)
	lwz 30,24(1)
.LVL203:
	lwz 31,28(1)
	addi 1,1,32
	.cfi_remember_state
.LCFI67:
	.cfi_def_cfa_offset 0
	.cfi_restore 31
	.cfi_restore 30
	.cfi_restore 29
	.cfi_restore 28
	.cfi_restore 27
	blr
.LVL204:
.L118:
.LCFI68:
	.cfi_restore_state
.LBB720:
	.loc 3 1181 0
	lbz 0,80(30)
	cmpwi 7,0,0
	beq+ 7,.L117
	.loc 3 1182 0
	lwz 3,76(30)
	bl fflush
.LBE720:
	.loc 3 1185 0
	lwz 0,36(1)
	mr 3,27
	lwz 28,16(1)
	mtlr 0
	lwz 27,12(1)
.LVL205:
	lwz 29,20(1)
	lwz 30,24(1)
.LVL206:
	lwz 31,28(1)
	addi 1,1,32
	.cfi_remember_state
	.cfi_restore 27
	.cfi_restore 28
	.cfi_restore 29
	.cfi_restore 30
	.cfi_restore 31
.LCFI69:
	.cfi_def_cfa_offset 0
	blr
.LVL207:
.L124:
.LCFI70:
	.cfi_restore_state
.LBB721:
	.loc 3 1147 0
	lis 9,common@ha
	lis 4,.LC8@ha
.LVL208:
	lwz 3,common@l(9)
.LVL209:
	la 4,.LC8@l(4)
	lwz 5,8(30)
.LVL210:
	.loc 3 1148 0
	li 27,0
.LVL211:
	.loc 3 1147 0
	lwz 9,0(3)
	lwz 0,100(9)
	mtctr 0
	crxor 6,6,6
	bctrl
.LBE721:
	.loc 3 1185 0
	lwz 0,36(1)
	mr 3,27
	lwz 28,16(1)
	mtlr 0
	lwz 27,12(1)
	lwz 29,20(1)
	lwz 30,24(1)
.LVL212:
	lwz 31,28(1)
	addi 1,1,32
	.cfi_remember_state
	.cfi_restore 27
	.cfi_restore 28
	.cfi_restore 29
	.cfi_restore 30
	.cfi_restore 31
.LCFI71:
	.cfi_def_cfa_offset 0
	blr
.LVL213:
.L125:
.LCFI72:
	.cfi_restore_state
.LBB722:
	.loc 3 1167 0
	lis 9,common@ha
	lis 4,.LC9@ha
	lwz 3,common@l(9)
.LVL214:
	la 4,.LC9@l(4)
	lwz 5,8(30)
	.loc 3 1168 0
	li 27,0
.LVL215:
	.loc 3 1167 0
	lwz 9,0(3)
	lwz 0,68(9)
	mtctr 0
	crxor 6,6,6
	bctrl
.LBE722:
	.loc 3 1185 0
	lwz 0,36(1)
	mr 3,27
	lwz 28,16(1)
	mtlr 0
	lwz 27,12(1)
	lwz 29,20(1)
	lwz 30,24(1)
.LVL216:
	lwz 31,28(1)
	addi 1,1,32
	.cfi_remember_state
	.cfi_restore 27
	.cfi_restore 28
	.cfi_restore 29
	.cfi_restore 30
	.cfi_restore 31
.LCFI73:
	.cfi_def_cfa_offset 0
	blr
.LVL217:
.L122:
.LCFI74:
	.cfi_restore_state
.LBB723:
	.loc 3 1152 0
	li 27,0
	b .L117
.LBE723:
	.cfi_endproc
.LFE2640:
	.size	_ZN16idFile_Permanent5WriteEPKvi, .-_ZN16idFile_Permanent5WriteEPKvi
	.align 2
	.globl _ZN16idFile_Permanent4ReadEPvi
	.type	_ZN16idFile_Permanent4ReadEPvi, @function
_ZN16idFile_Permanent4ReadEPvi:
.LFB2639:
	.loc 3 1088 0
	.cfi_startproc
.LVL218:
	mflr 0
	stwu 1,-40(1)
.LCFI75:
	.cfi_def_cfa_offset 40
	.cfi_register 65, 0
	stw 27,20(1)
	mr 27,5
	.cfi_offset 27, -20
	stw 28,24(1)
	mr 28,3
	.cfi_offset 28, -16
	stw 0,44(1)
	stw 24,8(1)
	stw 25,12(1)
	stw 26,16(1)
	stw 29,28(1)
	stw 30,32(1)
	stw 31,36(1)
.LBB724:
	.loc 3 1094 0
	lwz 0,68(3)
	.cfi_offset 31, -4
	.cfi_offset 30, -8
	.cfi_offset 29, -12
	.cfi_offset 26, -24
	.cfi_offset 25, -28
	.cfi_offset 24, -32
	.cfi_offset 65, 4
	andi. 9,0,1
	beq- 0,.L136
	.loc 3 1099 0
	lwz 6,76(3)
	cmpwi 7,6,0
	beq- 7,.L134
.LVL219:
	.loc 3 1107 0 discriminator 1
	cmpwi 7,5,0
	beq- 7,.L130
.LVL220:
	.loc 3 1123 0
	lis 26,.LC12@ha
	.loc 3 1107 0
	mr 30,4
	mr 31,5
	li 29,0
	.loc 3 1123 0
	lis 25,common@ha
	la 26,.LC12@l(26)
	b .L133
.LVL221:
.L138:
	.loc 3 1113 0
	bne- 6,.L137
	.loc 3 1114 0
	li 29,1
.L132:
.LVL222:
	.loc 3 1107 0
	subf. 31,24,31
.LVL223:
	.loc 3 1127 0
	add 30,30,24
.LVL224:
	.loc 3 1107 0
	beq- 0,.L130
.LVL225:
.L139:
	.loc 3 1127 0
	lwz 6,76(28)
.LVL226:
.L133:
	.loc 3 1109 0
	mr 5,31
	mr 3,30
	li 4,1
	bl fread
.LVL227:
	.loc 3 1113 0
	cmpwi 6,29,0
	.loc 3 1110 0
	mr. 24,3
	.loc 3 1122 0
	cmpwi 7,24,-1
	.loc 3 1110 0
	beq- 0,.L138
.LVL228:
	.loc 3 1122 0
	bne+ 7,.L132
	.loc 3 1123 0
	lwz 3,common@l(25)
.LVL229:
	mr 4,26
	lwz 5,8(28)
	.loc 3 1127 0
	add 30,30,24
	.loc 3 1123 0
	lwz 9,0(3)
	lwz 0,100(9)
	mtctr 0
	crxor 6,6,6
	bctrl
.LVL230:
	.loc 3 1107 0
	subf. 31,24,31
.LVL231:
	bne+ 0,.L139
.LVL232:
.L130:
	.loc 3 1129 0
	lis 9,fileSystem@ha
	mr 4,27
	lwz 3,fileSystem@l(9)
	lwz 9,0(3)
	lwz 0,152(9)
	mtctr 0
	bctrl
.LVL233:
.L129:
.LBE724:
	.loc 3 1131 0
	lwz 0,44(1)
	mr 3,27
	lwz 24,8(1)
	mtlr 0
	lwz 25,12(1)
	lwz 26,16(1)
	lwz 27,20(1)
	lwz 28,24(1)
.LVL234:
	lwz 29,28(1)
	lwz 30,32(1)
	lwz 31,36(1)
	addi 1,1,40
	.cfi_remember_state
.LCFI76:
	.cfi_def_cfa_offset 0
	.cfi_restore 31
	.cfi_restore 30
	.cfi_restore 29
	.cfi_restore 28
	.cfi_restore 27
	.cfi_restore 26
	.cfi_restore 25
	.cfi_restore 24
	blr
.LVL235:
.L137:
.LCFI77:
	.cfi_restore_state
.LBB725:
	.loc 3 1117 0
	lis 9,fileSystem@ha
	subf 27,31,27
.LVL236:
	lwz 3,fileSystem@l(9)
.LVL237:
	mr 4,27
	lwz 9,0(3)
	lwz 0,152(9)
	mtctr 0
	bctrl
.LBE725:
	.loc 3 1131 0
	lwz 0,44(1)
	mr 3,27
	lwz 24,8(1)
.LVL238:
	mtlr 0
	lwz 25,12(1)
	lwz 26,16(1)
	lwz 27,20(1)
	lwz 28,24(1)
.LVL239:
	lwz 29,28(1)
	lwz 30,32(1)
	lwz 31,36(1)
.LVL240:
	addi 1,1,40
	.cfi_remember_state
	.cfi_restore 24
	.cfi_restore 25
	.cfi_restore 26
	.cfi_restore 27
	.cfi_restore 28
	.cfi_restore 29
	.cfi_restore 30
	.cfi_restore 31
.LCFI78:
	.cfi_def_cfa_offset 0
	blr
.LVL241:
.L136:
.LCFI79:
	.cfi_restore_state
.LBB726:
	.loc 3 1095 0
	lis 9,common@ha
	lis 4,.LC11@ha
.LVL242:
	lwz 3,common@l(9)
.LVL243:
	la 4,.LC11@l(4)
	lwz 5,8(28)
.LVL244:
	.loc 3 1096 0
	li 27,0
.LVL245:
	.loc 3 1095 0
	lwz 9,0(3)
	lwz 0,100(9)
	mtctr 0
	crxor 6,6,6
	bctrl
.LBE726:
	.loc 3 1131 0
	lwz 0,44(1)
	mr 3,27
	lwz 24,8(1)
	mtlr 0
	lwz 25,12(1)
	lwz 26,16(1)
	lwz 27,20(1)
	lwz 28,24(1)
.LVL246:
	lwz 29,28(1)
	lwz 30,32(1)
	lwz 31,36(1)
	addi 1,1,40
	.cfi_remember_state
	.cfi_restore 24
	.cfi_restore 25
	.cfi_restore 26
	.cfi_restore 27
	.cfi_restore 28
	.cfi_restore 29
	.cfi_restore 30
	.cfi_restore 31
.LCFI80:
	.cfi_def_cfa_offset 0
	blr
.LVL247:
.L134:
.LCFI81:
	.cfi_restore_state
.LBB727:
	.loc 3 1100 0
	li 27,0
	b .L129
.LBE727:
	.cfi_endproc
.LFE2639:
	.size	_ZN16idFile_Permanent4ReadEPvi, .-_ZN16idFile_Permanent4ReadEPvi
	.align 2
	.globl _ZN16idFile_PermanentD2Ev
	.type	_ZN16idFile_PermanentD2Ev, @function
_ZN16idFile_PermanentD2Ev:
.LFB2635:
	.loc 3 1070 0
	.cfi_startproc
	.cfi_personality 0,__gxx_personality_v0
	.cfi_lsda 0,.LLSDA2635
.LVL248:
	mflr 0
	stwu 1,-16(1)
.LCFI82:
	.cfi_def_cfa_offset 16
	.cfi_register 65, 0
.LBB728:
	lis 9,_ZTV16idFile_Permanent+8@ha
.LBE728:
	stw 31,12(1)
	mr 31,3
	.cfi_offset 31, -4
	stw 0,20(1)
.LBB747:
	la 0,_ZTV16idFile_Permanent+8@l(9)
	.cfi_offset 65, 4
.LBE747:
	stw 30,8(1)
.LBB748:
	.loc 3 1071 0
	lwz 3,76(3)
.LVL249:
	.loc 3 1070 0
	stw 0,0(31)
	.loc 3 1071 0
	cmpwi 7,3,0
	beq- 7,.L141
	.cfi_offset 30, -8
.LEHB6:
	.loc 3 1072 0
	bl fclose
.LEHE6:
.L141:
.LVL250:
.LBB729:
.LBB730:
.LBB731:
	.loc 4 501 0
	addi 3,31,36
.LEHB7:
	bl _ZN5idStr8FreeDataEv
.LEHE7:
.LVL251:
.LBE731:
.LBE730:
.LBE729:
.LBB732:
.LBB733:
.LBB734:
	.loc 4 501 0 is_stmt 0 discriminator 1
	addi 3,31,4
.LEHB8:
	bl _ZN5idStr8FreeDataEv
.LEHE8:
.LVL252:
.LBE734:
.LBE733:
.LBE732:
.LBB735:
.LBB736:
.LBB737:
	.loc 2 60 0 is_stmt 1 discriminator 2
	lis 9,_ZTV6idFile+8@ha
	la 0,_ZTV6idFile+8@l(9)
	stw 0,0(31)
.LBE737:
.LBE736:
.LBE735:
.LBE748:
	.loc 3 1074 0 discriminator 2
	lwz 0,20(1)
	lwz 30,8(1)
	mtlr 0
	lwz 31,12(1)
.LVL253:
	addi 1,1,16
	.cfi_remember_state
.LCFI83:
	.cfi_def_cfa_offset 0
	.cfi_restore 31
	.cfi_restore 30
	blr
.LVL254:
.L152:
.LCFI84:
	.cfi_restore_state
	mr 30,3
.LVL255:
.LBB749:
.LBB738:
.LBB739:
.LBB740:
	.loc 4 501 0
	addi 3,31,36
	bl _ZN5idStr8FreeDataEv
.LVL256:
.L148:
.LBE740:
.LBE739:
.LBE738:
.LBB741:
.LBB742:
.LBB743:
	addi 3,31,4
	bl _ZN5idStr8FreeDataEv
	mr 3,30
.LVL257:
.L150:
.LBE743:
.LBE742:
.LBE741:
.LBB744:
.LBB745:
.LBB746:
	.loc 2 60 0
	lis 9,_ZTV6idFile+8@ha
	la 0,_ZTV6idFile+8@l(9)
	stw 0,0(31)
.LEHB9:
	bl _Unwind_Resume
.LEHE9:
.LVL258:
.L154:
	b .L150
.LVL259:
.L153:
	mr 30,3
	b .L148
.LBE746:
.LBE745:
.LBE744:
.LBE749:
	.cfi_endproc
.LFE2635:
	.section	.gcc_except_table
.LLSDA2635:
	.byte	0xff
	.byte	0xff
	.byte	0x1
	.uleb128 .LLSDACSE2635-.LLSDACSB2635
.LLSDACSB2635:
	.uleb128 .LEHB6-.LFB2635
	.uleb128 .LEHE6-.LEHB6
	.uleb128 .L152-.LFB2635
	.uleb128 0
	.uleb128 .LEHB7-.LFB2635
	.uleb128 .LEHE7-.LEHB7
	.uleb128 .L153-.LFB2635
	.uleb128 0
	.uleb128 .LEHB8-.LFB2635
	.uleb128 .LEHE8-.LEHB8
	.uleb128 .L154-.LFB2635
	.uleb128 0
	.uleb128 .LEHB9-.LFB2635
	.uleb128 .LEHE9-.LEHB9
	.uleb128 0
	.uleb128 0
.LLSDACSE2635:
	.section	".text"
	.size	_ZN16idFile_PermanentD2Ev, .-_ZN16idFile_PermanentD2Ev
	.align 2
	.globl _ZN16idFile_PermanentD0Ev
	.type	_ZN16idFile_PermanentD0Ev, @function
_ZN16idFile_PermanentD0Ev:
.LFB2637:
	.loc 3 1070 0
	.cfi_startproc
.LVL260:
	stwu 1,-16(1)
.LCFI85:
	.cfi_def_cfa_offset 16
	mflr 0
	stw 31,12(1)
	mr 31,3
	.cfi_offset 31, -4
	.cfi_register 65, 0
	stw 0,20(1)
	.loc 3 1074 0
	.cfi_offset 65, 4
	bl _ZN16idFile_PermanentD1Ev
.LVL261:
	mr 3,31
	bl _ZdlPv
	lwz 0,20(1)
	lwz 31,12(1)
.LVL262:
	mtlr 0
	addi 1,1,16
.LCFI86:
	.cfi_def_cfa_offset 0
	.cfi_restore 31
	blr
	.cfi_endproc
.LFE2637:
	.size	_ZN16idFile_PermanentD0Ev, .-_ZN16idFile_PermanentD0Ev
	.align 2
	.globl _ZN13idFile_MemoryD2Ev
	.type	_ZN13idFile_MemoryD2Ev, @function
_ZN13idFile_MemoryD2Ev:
.LFB2597:
	.loc 3 707 0
	.cfi_startproc
	.cfi_personality 0,__gxx_personality_v0
	.cfi_lsda 0,.LLSDA2597
.LVL263:
	mflr 0
	stwu 1,-16(1)
.LCFI87:
	.cfi_def_cfa_offset 16
	.cfi_register 65, 0
.LBB750:
	lis 9,_ZTV13idFile_Memory+8@ha
.LBE750:
	stw 31,12(1)
	mr 31,3
	.cfi_offset 31, -4
	stw 0,20(1)
.LBB763:
	la 0,_ZTV13idFile_Memory+8@l(9)
	.cfi_offset 65, 4
.LBE763:
	stw 30,8(1)
.LBB764:
	.loc 3 708 0
	lwz 3,56(3)
.LVL264:
	.loc 3 707 0
	stw 0,0(31)
	.loc 3 708 0
	cmpwi 7,3,0
	beq- 7,.L158
	.cfi_offset 30, -8
	.loc 3 708 0 is_stmt 0 discriminator 1
	lwz 0,48(31)
	cmpwi 7,0,0
	ble- 7,.L158
	.loc 3 708 0 discriminator 2
	lwz 0,40(31)
	cmpwi 7,0,0
	beq- 7,.L168
.L158:
.LVL265:
.LBB751:
.LBB752:
.LBB753:
	.loc 4 501 0 is_stmt 1
	addi 3,31,4
.LEHB10:
	bl _ZN5idStr8FreeDataEv
.LEHE10:
.LVL266:
.LBE753:
.LBE752:
.LBE751:
.LBB754:
.LBB755:
.LBB756:
	.loc 2 60 0 discriminator 1
	lis 9,_ZTV6idFile+8@ha
	la 0,_ZTV6idFile+8@l(9)
	stw 0,0(31)
.LBE756:
.LBE755:
.LBE754:
.LBE764:
	.loc 3 711 0 discriminator 1
	lwz 0,20(1)
	lwz 30,8(1)
	mtlr 0
	lwz 31,12(1)
.LVL267:
	addi 1,1,16
	.cfi_remember_state
.LCFI88:
	.cfi_def_cfa_offset 0
	.cfi_restore 31
	.cfi_restore 30
	blr
.LVL268:
.L168:
.LCFI89:
	.cfi_restore_state
.LEHB11:
.LBB765:
	.loc 3 709 0
	bl _Z8Mem_FreePv
.LEHE11:
	b .L158
.L166:
	mr 30,3
.LVL269:
.LBB757:
.LBB758:
.LBB759:
	.loc 4 501 0
	addi 3,31,4
	bl _ZN5idStr8FreeDataEv
	mr 3,30
.LVL270:
.L164:
.LBE759:
.LBE758:
.LBE757:
.LBB760:
.LBB761:
.LBB762:
	.loc 2 60 0
	lis 9,_ZTV6idFile+8@ha
	la 0,_ZTV6idFile+8@l(9)
	stw 0,0(31)
.LEHB12:
	bl _Unwind_Resume
.LEHE12:
.LVL271:
.L167:
	b .L164
.LBE762:
.LBE761:
.LBE760:
.LBE765:
	.cfi_endproc
.LFE2597:
	.section	.gcc_except_table
.LLSDA2597:
	.byte	0xff
	.byte	0xff
	.byte	0x1
	.uleb128 .LLSDACSE2597-.LLSDACSB2597
.LLSDACSB2597:
	.uleb128 .LEHB10-.LFB2597
	.uleb128 .LEHE10-.LEHB10
	.uleb128 .L167-.LFB2597
	.uleb128 0
	.uleb128 .LEHB11-.LFB2597
	.uleb128 .LEHE11-.LEHB11
	.uleb128 .L166-.LFB2597
	.uleb128 0
	.uleb128 .LEHB12-.LFB2597
	.uleb128 .LEHE12-.LEHB12
	.uleb128 0
	.uleb128 0
.LLSDACSE2597:
	.section	".text"
	.size	_ZN13idFile_MemoryD2Ev, .-_ZN13idFile_MemoryD2Ev
	.align 2
	.globl _ZN13idFile_MemoryD0Ev
	.type	_ZN13idFile_MemoryD0Ev, @function
_ZN13idFile_MemoryD0Ev:
.LFB2599:
	.loc 3 707 0
	.cfi_startproc
.LVL272:
	stwu 1,-16(1)
.LCFI90:
	.cfi_def_cfa_offset 16
	mflr 0
	stw 31,12(1)
	mr 31,3
	.cfi_offset 31, -4
	.cfi_register 65, 0
	stw 0,20(1)
	.loc 3 711 0
	.cfi_offset 65, 4
	bl _ZN13idFile_MemoryD1Ev
.LVL273:
	mr 3,31
	bl _ZdlPv
	lwz 0,20(1)
	lwz 31,12(1)
.LVL274:
	mtlr 0
	addi 1,1,16
.LCFI91:
	.cfi_def_cfa_offset 0
	.cfi_restore 31
	blr
	.cfi_endproc
.LFE2599:
	.size	_ZN13idFile_MemoryD0Ev, .-_ZN13idFile_MemoryD0Ev
	.align 2
	.globl _ZN13idFile_Memory5WriteEPKvi
	.type	_ZN13idFile_Memory5WriteEPKvi, @function
_ZN13idFile_Memory5WriteEPKvi:
.LFB2602:
	.loc 3 742 0
	.cfi_startproc
.LVL275:
	mflr 0
	stwu 1,-32(1)
.LCFI92:
	.cfi_def_cfa_offset 32
	.cfi_register 65, 0
	stw 29,20(1)
	mr 29,4
	.cfi_offset 29, -12
	stw 30,24(1)
	mr 30,5
	.cfi_offset 30, -8
	stw 31,28(1)
	mr 31,3
	.cfi_offset 31, -4
	stw 0,36(1)
	stw 27,12(1)
	stw 28,16(1)
.LBB766:
	.loc 3 744 0
	lwz 0,36(3)
	.cfi_offset 28, -16
	.cfi_offset 27, -20
	.cfi_offset 65, 4
	andi. 9,0,2
	beq- 0,.L179
	.loc 3 749 0
	lwz 3,60(3)
.LVL276:
	addi 27,5,1
	lwz 9,56(31)
	lwz 0,48(31)
	add 27,3,27
	subf 27,9,27
.LVL277:
.LBB767:
	.loc 3 750 0
	subf. 27,0,27
.LVL278:
	ble- 0,.L174
.LBB768:
	.loc 3 751 0
	lwz 5,40(31)
.LVL279:
	cmpwi 7,5,0
	bne- 7,.L180
	.loc 3 755 0
	lwz 9,52(31)
	divw 27,27,9
.LVL280:
	addi 27,27,1
	mullw 27,9,27
.LVL281:
	.loc 3 756 0
	add 3,0,27
	bl _Z9Mem_Alloci
.LVL282:
	.loc 3 757 0
	lwz 5,48(31)
	.loc 3 756 0
	mr 28,3
.LVL283:
	.loc 3 757 0
	li 0,0
	cmpwi 7,5,0
	bne- 7,.L181
.LVL284:
.L176:
	.loc 3 761 0
	lwz 9,56(31)
	.loc 3 760 0
	add 27,27,0
.LVL285:
	.loc 3 761 0
	lwz 3,60(31)
	.loc 3 762 0
	cmpwi 7,9,0
	.loc 3 760 0
	stw 27,48(31)
	.loc 3 761 0
	subf 3,9,3
	add 3,28,3
	stw 3,60(31)
	.loc 3 762 0
	beq- 7,.L177
	.loc 3 763 0
	mr 3,9
	bl _Z8Mem_FreePv
	lwz 3,60(31)
.L177:
	.loc 3 765 0
	stw 28,56(31)
.LVL286:
.L174:
.LBE768:
.LBE767:
	.loc 3 767 0
	mr 4,29
	mr 5,30
	bl memcpy
	.loc 3 768 0
	lwz 11,60(31)
	.loc 3 769 0
	lwz 0,44(31)
.LBE766:
	.loc 3 772 0
	mr 3,30
.LBB773:
	.loc 3 770 0
	lwz 9,56(31)
	.loc 3 768 0
	add 11,11,30
	stw 11,60(31)
	.loc 3 769 0
	add 0,30,0
	.loc 3 770 0
	li 11,0
	.loc 3 769 0
	stw 0,44(31)
	.loc 3 770 0
	stbx 11,9,0
.LBE773:
	.loc 3 772 0
	lwz 0,36(1)
	lwz 27,12(1)
	mtlr 0
	lwz 28,16(1)
	lwz 29,20(1)
.LVL287:
	lwz 30,24(1)
.LVL288:
	lwz 31,28(1)
.LVL289:
	addi 1,1,32
	.cfi_remember_state
.LCFI93:
	.cfi_def_cfa_offset 0
	.cfi_restore 31
	.cfi_restore 30
	.cfi_restore 29
	.cfi_restore 28
	.cfi_restore 27
	blr
.LVL290:
.L180:
.LCFI94:
	.cfi_restore_state
.LBB774:
.LBB771:
.LBB769:
	.loc 3 752 0
	lis 9,common@ha
	lis 4,.LC14@ha
.LVL291:
	lwz 3,common@l(9)
	la 4,.LC14@l(4)
	.loc 3 753 0
	li 30,0
.LVL292:
	.loc 3 752 0
	lwz 9,0(3)
	lwz 0,96(9)
	mtctr 0
	crxor 6,6,6
	bctrl
.LBE769:
.LBE771:
.LBE774:
	.loc 3 772 0
	lwz 0,36(1)
	mr 3,30
	lwz 27,12(1)
.LVL293:
	mtlr 0
	lwz 28,16(1)
	lwz 29,20(1)
.LVL294:
	lwz 30,24(1)
	lwz 31,28(1)
.LVL295:
	addi 1,1,32
	.cfi_remember_state
	.cfi_restore 27
	.cfi_restore 28
	.cfi_restore 29
	.cfi_restore 30
	.cfi_restore 31
.LCFI95:
	.cfi_def_cfa_offset 0
	blr
.LVL296:
.L179:
.LCFI96:
	.cfi_restore_state
.LBB775:
	.loc 3 745 0
	lis 9,common@ha
	lis 4,.LC13@ha
.LVL297:
	lwz 3,common@l(9)
.LVL298:
	la 4,.LC13@l(4)
	lwz 5,8(31)
.LVL299:
	.loc 3 746 0
	li 30,0
.LVL300:
	.loc 3 745 0
	lwz 9,0(3)
	lwz 0,100(9)
	mtctr 0
	crxor 6,6,6
	bctrl
.LBE775:
	.loc 3 772 0
	lwz 0,36(1)
	mr 3,30
	lwz 27,12(1)
	mtlr 0
	lwz 28,16(1)
	lwz 29,20(1)
.LVL301:
	lwz 30,24(1)
	lwz 31,28(1)
.LVL302:
	addi 1,1,32
	.cfi_remember_state
	.cfi_restore 27
	.cfi_restore 28
	.cfi_restore 29
	.cfi_restore 30
	.cfi_restore 31
.LCFI97:
	.cfi_def_cfa_offset 0
	blr
.LVL303:
.L181:
.LCFI98:
	.cfi_restore_state
.LBB776:
.LBB772:
.LBB770:
	.loc 3 758 0
	lwz 4,56(31)
	bl memcpy
.LVL304:
	lwz 0,48(31)
	b .L176
.LBE770:
.LBE772:
.LBE776:
	.cfi_endproc
.LFE2602:
	.size	_ZN13idFile_Memory5WriteEPKvi, .-_ZN13idFile_Memory5WriteEPKvi
	.align 2
	.globl _ZN6idFile9WriteMat3ERK6idMat3
	.type	_ZN6idFile9WriteMat3ERK6idMat3, @function
_ZN6idFile9WriteMat3ERK6idMat3:
.LFB2580:
	.loc 3 603 0
	.cfi_startproc
.LVL305:
	stwu 1,-64(1)
.LCFI99:
	.cfi_def_cfa_offset 64
	mflr 0
.LBB777:
	.loc 3 604 0
	li 5,36
.LBE777:
	.loc 3 603 0
	stw 31,60(1)
	mr 31,3
	.cfi_offset 31, -4
	.cfi_register 65, 0
.LBB778:
	.loc 3 604 0
	addi 3,1,8
.LVL306:
.LBE778:
	.loc 3 603 0
	stw 0,68(1)
.LBB779:
	.loc 3 604 0
	.cfi_offset 65, 4
	bl memcpy
.LVL307:
	.loc 3 605 0
	addi 3,1,8
	li 4,4
	li 5,9
	bl _Z14LittleRevBytesPvii
	.loc 3 606 0
	lwz 9,0(31)
	mr 3,31
	addi 4,1,8
	lwz 0,24(9)
	li 5,36
	mtctr 0
	bctrl
.LBE779:
	.loc 3 607 0
	lwz 0,68(1)
	lwz 31,60(1)
.LVL308:
	mtlr 0
	addi 1,1,64
.LCFI100:
	.cfi_def_cfa_offset 0
	.cfi_restore 31
	blr
	.cfi_endproc
.LFE2580:
	.size	_ZN6idFile9WriteMat3ERK6idMat3, .-_ZN6idFile9WriteMat3ERK6idMat3
	.align 2
	.globl _ZN6idFile9WriteVec6ERK6idVec6
	.type	_ZN6idFile9WriteVec6ERK6idVec6, @function
_ZN6idFile9WriteVec6ERK6idVec6:
.LFB2579:
	.loc 3 592 0
	.cfi_startproc
.LVL309:
	mflr 0
	stwu 1,-48(1)
.LCFI101:
	.cfi_def_cfa_offset 48
	.cfi_register 65, 0
.LBB780:
	.loc 3 594 0
	li 5,6
.LBE780:
	.loc 3 592 0
	stw 31,44(1)
	mr 31,3
	.cfi_offset 31, -4
	stw 0,52(1)
.LBB781:
	.loc 3 594 0
	addi 3,1,8
.LVL310:
	.loc 3 593 0
	lwz 7,0(4)
	lwz 8,4(4)
	lwz 10,8(4)
	lwz 11,12(4)
	lwz 9,16(4)
	lwz 0,20(4)
	.cfi_offset 65, 4
	.loc 3 594 0
	li 4,4
.LVL311:
	.loc 3 593 0
	stw 7,8(1)
	stw 8,12(1)
	stw 10,16(1)
	stw 11,20(1)
	stw 9,24(1)
	stw 0,28(1)
	.loc 3 594 0
	bl _Z14LittleRevBytesPvii
	.loc 3 595 0
	lwz 9,0(31)
	mr 3,31
	addi 4,1,8
	li 5,24
	lwz 0,24(9)
	mtctr 0
	bctrl
.LBE781:
	.loc 3 596 0
	lwz 0,52(1)
	lwz 31,44(1)
.LVL312:
	mtlr 0
	addi 1,1,48
.LCFI102:
	.cfi_def_cfa_offset 0
	.cfi_restore 31
	blr
	.cfi_endproc
.LFE2579:
	.size	_ZN6idFile9WriteVec6ERK6idVec6, .-_ZN6idFile9WriteVec6ERK6idVec6
	.align 2
	.globl _ZN6idFile9WriteVec4ERK6idVec4
	.type	_ZN6idFile9WriteVec4ERK6idVec4, @function
_ZN6idFile9WriteVec4ERK6idVec4:
.LFB2578:
	.loc 3 581 0
	.cfi_startproc
.LVL313:
	mflr 0
	stwu 1,-32(1)
.LCFI103:
	.cfi_def_cfa_offset 32
	.cfi_register 65, 0
.LBB782:
	.loc 3 583 0
	li 5,4
.LBE782:
	.loc 3 581 0
	stw 31,28(1)
	mr 31,3
	.cfi_offset 31, -4
	stw 0,36(1)
.LBB783:
	.loc 3 583 0
	addi 3,1,8
.LVL314:
	.loc 3 582 0
	lwz 10,0(4)
	lwz 11,4(4)
	lwz 9,8(4)
	lwz 0,12(4)
	.cfi_offset 65, 4
	.loc 3 583 0
	li 4,4
.LVL315:
	.loc 3 582 0
	stw 10,8(1)
	stw 11,12(1)
	stw 9,16(1)
	stw 0,20(1)
	.loc 3 583 0
	bl _Z14LittleRevBytesPvii
	.loc 3 584 0
	lwz 9,0(31)
	mr 3,31
	addi 4,1,8
	li 5,16
	lwz 0,24(9)
	mtctr 0
	bctrl
.LBE783:
	.loc 3 585 0
	lwz 0,36(1)
	lwz 31,28(1)
.LVL316:
	mtlr 0
	addi 1,1,32
.LCFI104:
	.cfi_def_cfa_offset 0
	.cfi_restore 31
	blr
	.cfi_endproc
.LFE2578:
	.size	_ZN6idFile9WriteVec4ERK6idVec4, .-_ZN6idFile9WriteVec4ERK6idVec4
	.align 2
	.globl _ZN6idFile9WriteVec3ERK6idVec3
	.type	_ZN6idFile9WriteVec3ERK6idVec3, @function
_ZN6idFile9WriteVec3ERK6idVec3:
.LFB2577:
	.loc 3 570 0
	.cfi_startproc
.LVL317:
	mflr 0
	stwu 1,-32(1)
.LCFI105:
	.cfi_def_cfa_offset 32
	.cfi_register 65, 0
.LBB784:
	.loc 3 572 0
	li 5,3
.LBE784:
	.loc 3 570 0
	stw 31,28(1)
	mr 31,3
	.cfi_offset 31, -4
	stw 0,36(1)
.LBB785:
	.loc 3 572 0
	addi 3,1,8
.LVL318:
	.loc 3 571 0
	lwz 11,0(4)
	lwz 9,4(4)
	lwz 0,8(4)
	.cfi_offset 65, 4
	.loc 3 572 0
	li 4,4
.LVL319:
	.loc 3 571 0
	stw 11,8(1)
	stw 9,12(1)
	stw 0,16(1)
	.loc 3 572 0
	bl _Z14LittleRevBytesPvii
	.loc 3 573 0
	lwz 9,0(31)
	mr 3,31
	addi 4,1,8
	li 5,12
	lwz 0,24(9)
	mtctr 0
	bctrl
.LBE785:
	.loc 3 574 0
	lwz 0,36(1)
	lwz 31,28(1)
.LVL320:
	mtlr 0
	addi 1,1,32
.LCFI106:
	.cfi_def_cfa_offset 0
	.cfi_restore 31
	blr
	.cfi_endproc
.LFE2577:
	.size	_ZN6idFile9WriteVec3ERK6idVec3, .-_ZN6idFile9WriteVec3ERK6idVec3
	.align 2
	.globl _ZN6idFile9WriteVec2ERK6idVec2
	.type	_ZN6idFile9WriteVec2ERK6idVec2, @function
_ZN6idFile9WriteVec2ERK6idVec2:
.LFB2576:
	.loc 3 559 0
	.cfi_startproc
.LVL321:
	mflr 0
	stwu 1,-32(1)
.LCFI107:
	.cfi_def_cfa_offset 32
	.cfi_register 65, 0
.LBB786:
	.loc 3 561 0
	li 5,2
.LBE786:
	.loc 3 559 0
	stw 30,24(1)
	mr 30,3
	.cfi_offset 30, -8
	stw 0,36(1)
	stw 31,28(1)
.LBB787:
	.loc 3 560 0
	mr 31,1
	.cfi_offset 31, -4
	.cfi_offset 65, 4
	lwz 10,0(4)
	lwz 11,4(4)
	.loc 3 561 0
	li 4,4
.LVL322:
	.loc 3 560 0
	stwu 10,8(31)
	stw 11,4(31)
	.loc 3 561 0
	mr 3,31
.LVL323:
	bl _Z14LittleRevBytesPvii
	.loc 3 562 0
	lwz 9,0(30)
	mr 3,30
	mr 4,31
	lwz 0,24(9)
	li 5,8
	mtctr 0
	bctrl
.LBE787:
	.loc 3 563 0
	lwz 0,36(1)
	lwz 30,24(1)
.LVL324:
	mtlr 0
	lwz 31,28(1)
	addi 1,1,32
.LCFI108:
	.cfi_def_cfa_offset 0
	.cfi_restore 31
	.cfi_restore 30
	blr
	.cfi_endproc
.LFE2576:
	.size	_ZN6idFile9WriteVec2ERK6idVec2, .-_ZN6idFile9WriteVec2ERK6idVec2
	.align 2
	.globl _ZN6idFile8ReadMat3ER6idMat3
	.type	_ZN6idFile8ReadMat3ER6idMat3, @function
_ZN6idFile8ReadMat3ER6idMat3:
.LFB2566:
	.loc 3 457 0
	.cfi_startproc
.LVL325:
	mflr 0
	stwu 1,-16(1)
.LCFI109:
	.cfi_def_cfa_offset 16
	.cfi_register 65, 0
.LBB788:
	.loc 3 458 0
	li 5,36
.LBE788:
	.loc 3 457 0
	stw 30,8(1)
	mr 30,4
	.cfi_offset 30, -8
	stw 31,12(1)
	stw 0,20(1)
.LBB789:
	.loc 3 458 0
	lwz 9,0(3)
	lwz 0,20(9)
	.cfi_offset 65, 4
	.cfi_offset 31, -4
	mtctr 0
	bctrl
.LVL326:
	.loc 3 459 0
	li 4,4
	.loc 3 458 0
	mr 31,3
.LVL327:
	.loc 3 459 0
	li 5,9
	mr 3,30
.LVL328:
	bl _Z14LittleRevBytesPvii
.LBE789:
	.loc 3 461 0
	lwz 0,20(1)
	mr 3,31
	lwz 30,8(1)
.LVL329:
	mtlr 0
	lwz 31,12(1)
.LVL330:
	addi 1,1,16
.LCFI110:
	.cfi_def_cfa_offset 0
	.cfi_restore 31
	.cfi_restore 30
	blr
	.cfi_endproc
.LFE2566:
	.size	_ZN6idFile8ReadMat3ER6idMat3, .-_ZN6idFile8ReadMat3ER6idMat3
	.align 2
	.globl _ZN6idFile8ReadVec6ER6idVec6
	.type	_ZN6idFile8ReadVec6ER6idVec6, @function
_ZN6idFile8ReadVec6ER6idVec6:
.LFB2565:
	.loc 3 446 0
	.cfi_startproc
.LVL331:
	mflr 0
	stwu 1,-16(1)
.LCFI111:
	.cfi_def_cfa_offset 16
	.cfi_register 65, 0
.LBB790:
	.loc 3 447 0
	li 5,24
.LBE790:
	.loc 3 446 0
	stw 30,8(1)
	mr 30,4
	.cfi_offset 30, -8
	stw 31,12(1)
	stw 0,20(1)
.LBB791:
	.loc 3 447 0
	lwz 9,0(3)
	lwz 0,20(9)
	.cfi_offset 65, 4
	.cfi_offset 31, -4
	mtctr 0
	bctrl
.LVL332:
	.loc 3 448 0
	li 4,4
	.loc 3 447 0
	mr 31,3
.LVL333:
	.loc 3 448 0
	li 5,6
	mr 3,30
.LVL334:
	bl _Z14LittleRevBytesPvii
.LBE791:
	.loc 3 450 0
	lwz 0,20(1)
	mr 3,31
	lwz 30,8(1)
.LVL335:
	mtlr 0
	lwz 31,12(1)
.LVL336:
	addi 1,1,16
.LCFI112:
	.cfi_def_cfa_offset 0
	.cfi_restore 31
	.cfi_restore 30
	blr
	.cfi_endproc
.LFE2565:
	.size	_ZN6idFile8ReadVec6ER6idVec6, .-_ZN6idFile8ReadVec6ER6idVec6
	.align 2
	.globl _ZN6idFile8ReadVec4ER6idVec4
	.type	_ZN6idFile8ReadVec4ER6idVec4, @function
_ZN6idFile8ReadVec4ER6idVec4:
.LFB2564:
	.loc 3 435 0
	.cfi_startproc
.LVL337:
	mflr 0
	stwu 1,-16(1)
.LCFI113:
	.cfi_def_cfa_offset 16
	.cfi_register 65, 0
.LBB792:
	.loc 3 436 0
	li 5,16
.LBE792:
	.loc 3 435 0
	stw 30,8(1)
	mr 30,4
	.cfi_offset 30, -8
	stw 31,12(1)
	stw 0,20(1)
.LBB793:
	.loc 3 436 0
	lwz 9,0(3)
	lwz 0,20(9)
	.cfi_offset 65, 4
	.cfi_offset 31, -4
	mtctr 0
	bctrl
.LVL338:
	.loc 3 437 0
	li 4,4
	.loc 3 436 0
	mr 31,3
.LVL339:
	.loc 3 437 0
	li 5,4
	mr 3,30
.LVL340:
	bl _Z14LittleRevBytesPvii
.LBE793:
	.loc 3 439 0
	lwz 0,20(1)
	mr 3,31
	lwz 30,8(1)
.LVL341:
	mtlr 0
	lwz 31,12(1)
.LVL342:
	addi 1,1,16
.LCFI114:
	.cfi_def_cfa_offset 0
	.cfi_restore 31
	.cfi_restore 30
	blr
	.cfi_endproc
.LFE2564:
	.size	_ZN6idFile8ReadVec4ER6idVec4, .-_ZN6idFile8ReadVec4ER6idVec4
	.align 2
	.globl _ZN6idFile8ReadVec3ER6idVec3
	.type	_ZN6idFile8ReadVec3ER6idVec3, @function
_ZN6idFile8ReadVec3ER6idVec3:
.LFB2563:
	.loc 3 424 0
	.cfi_startproc
.LVL343:
	mflr 0
	stwu 1,-16(1)
.LCFI115:
	.cfi_def_cfa_offset 16
	.cfi_register 65, 0
.LBB794:
	.loc 3 425 0
	li 5,12
.LBE794:
	.loc 3 424 0
	stw 30,8(1)
	mr 30,4
	.cfi_offset 30, -8
	stw 31,12(1)
	stw 0,20(1)
.LBB795:
	.loc 3 425 0
	lwz 9,0(3)
	lwz 0,20(9)
	.cfi_offset 65, 4
	.cfi_offset 31, -4
	mtctr 0
	bctrl
.LVL344:
	.loc 3 426 0
	li 4,4
	.loc 3 425 0
	mr 31,3
.LVL345:
	.loc 3 426 0
	li 5,3
	mr 3,30
.LVL346:
	bl _Z14LittleRevBytesPvii
.LBE795:
	.loc 3 428 0
	lwz 0,20(1)
	mr 3,31
	lwz 30,8(1)
.LVL347:
	mtlr 0
	lwz 31,12(1)
.LVL348:
	addi 1,1,16
.LCFI116:
	.cfi_def_cfa_offset 0
	.cfi_restore 31
	.cfi_restore 30
	blr
	.cfi_endproc
.LFE2563:
	.size	_ZN6idFile8ReadVec3ER6idVec3, .-_ZN6idFile8ReadVec3ER6idVec3
	.align 2
	.globl _ZN6idFile8ReadVec2ER6idVec2
	.type	_ZN6idFile8ReadVec2ER6idVec2, @function
_ZN6idFile8ReadVec2ER6idVec2:
.LFB2562:
	.loc 3 413 0
	.cfi_startproc
.LVL349:
	mflr 0
	stwu 1,-16(1)
.LCFI117:
	.cfi_def_cfa_offset 16
	.cfi_register 65, 0
.LBB796:
	.loc 3 414 0
	li 5,8
.LBE796:
	.loc 3 413 0
	stw 30,8(1)
	mr 30,4
	.cfi_offset 30, -8
	stw 31,12(1)
	stw 0,20(1)
.LBB797:
	.loc 3 414 0
	lwz 9,0(3)
	lwz 0,20(9)
	.cfi_offset 65, 4
	.cfi_offset 31, -4
	mtctr 0
	bctrl
.LVL350:
	.loc 3 415 0
	li 4,4
	.loc 3 414 0
	mr 31,3
.LVL351:
	.loc 3 415 0
	li 5,2
	mr 3,30
.LVL352:
	bl _Z14LittleRevBytesPvii
.LBE797:
	.loc 3 417 0
	lwz 0,20(1)
	mr 3,31
	lwz 30,8(1)
.LVL353:
	mtlr 0
	lwz 31,12(1)
.LVL354:
	addi 1,1,16
.LCFI118:
	.cfi_def_cfa_offset 0
	.cfi_restore 31
	.cfi_restore 30
	blr
	.cfi_endproc
.LFE2562:
	.size	_ZN6idFile8ReadVec2ER6idVec2, .-_ZN6idFile8ReadVec2ER6idVec2
	.align 2
	.globl _ZN6idFile11WriteStringEPKc
	.type	_ZN6idFile11WriteStringEPKc, @function
_ZN6idFile11WriteStringEPKc:
.LFB2575:
	.loc 3 546 0
	.cfi_startproc
.LVL355:
	stwu 1,-24(1)
.LCFI119:
	.cfi_def_cfa_offset 24
	mflr 0
	stw 31,20(1)
	mr 31,3
	.cfi_offset 31, -4
	.cfi_register 65, 0
.LBB798:
	.loc 3 549 0
	mr 3,4
.LVL356:
.LBE798:
	.loc 3 546 0
	stw 0,28(1)
	stw 29,12(1)
	mr 29,4
	.cfi_offset 29, -12
	.cfi_offset 65, 4
	stw 30,16(1)
.LBB799:
	.loc 3 549 0
	.cfi_offset 30, -8
	bl strlen
.LVL357:
	.loc 3 550 0
	lwz 9,0(31)
	.loc 3 549 0
	mr 30,3
.LVL358:
	.loc 3 550 0
	mr 4,3
	mr 3,31
.LVL359:
	lwz 0,124(9)
	mtctr 0
	bctrl
.LVL360:
	.loc 3 551 0
	lwz 9,0(31)
	mr 3,31
	mr 4,29
	lwz 0,24(9)
	mr 5,30
	mtctr 0
	bctrl
.LBE799:
	.loc 3 552 0
	lwz 0,28(1)
	lwz 29,12(1)
.LVL361:
	mtlr 0
	lwz 30,16(1)
.LVL362:
	lwz 31,20(1)
.LVL363:
	addi 1,1,24
.LCFI120:
	.cfi_def_cfa_offset 0
	.cfi_restore 31
	.cfi_restore 30
	.cfi_restore 29
	blr
	.cfi_endproc
.LFE2575:
	.size	_ZN6idFile11WriteStringEPKc, .-_ZN6idFile11WriteStringEPKc
	.align 2
	.globl _ZN6idFile10WriteFloatEf
	.type	_ZN6idFile10WriteFloatEf, @function
_ZN6idFile10WriteFloatEf:
.LFB2573:
	.loc 3 526 0
	.cfi_startproc
.LVL364:
	mflr 0
	stwu 1,-32(1)
.LCFI121:
	.cfi_def_cfa_offset 32
	.cfi_register 65, 0
.LBB800:
	.loc 3 527 0
	stw 3,24(1)
.LBE800:
	.loc 3 526 0
	stw 0,36(1)
.LBB801:
	.loc 3 527 0
	.cfi_offset 65, 4
	bl _Z11LittleFloatf
.LVL365:
	mr 4,1
	.loc 3 528 0
	li 5,4
	.loc 3 527 0
	stfsu 1,8(4)
.LVL366:
	.loc 3 528 0
	lwz 3,24(1)
	lwz 9,0(3)
	lwz 0,24(9)
	mtctr 0
	bctrl
.LBE801:
	.loc 3 529 0
	lwz 0,36(1)
	addi 1,1,32
.LCFI122:
	.cfi_def_cfa_offset 0
	mtlr 0
	blr
	.cfi_endproc
.LFE2573:
	.size	_ZN6idFile10WriteFloatEf, .-_ZN6idFile10WriteFloatEf
	.align 2
	.globl _ZN6idFile9ReadFloatERf
	.type	_ZN6idFile9ReadFloatERf, @function
_ZN6idFile9ReadFloatERf:
.LFB2559:
	.loc 3 373 0
	.cfi_startproc
.LVL367:
	mflr 0
	stwu 1,-24(1)
.LCFI123:
	.cfi_def_cfa_offset 24
	.cfi_register 65, 0
.LBB802:
	.loc 3 374 0
	li 5,4
.LBE802:
	.loc 3 373 0
	stw 31,20(1)
	mr 31,4
	.cfi_offset 31, -4
	stw 0,28(1)
.LBB803:
	.loc 3 374 0
	lwz 9,0(3)
	lwz 0,20(9)
	.cfi_offset 65, 4
	mtctr 0
	bctrl
.LVL368:
	.loc 3 375 0
	lfs 1,0(31)
	stw 3,8(1)
	bl _Z11LittleFloatf
.LVL369:
	stfs 1,0(31)
.LBE803:
	.loc 3 377 0
	lwz 0,28(1)
	lwz 3,8(1)
	mtlr 0
	lwz 31,20(1)
.LVL370:
	addi 1,1,24
.LCFI124:
	.cfi_def_cfa_offset 0
	.cfi_restore 31
	blr
	.cfi_endproc
.LFE2559:
	.size	_ZN6idFile9ReadFloatERf, .-_ZN6idFile9ReadFloatERf
	.align 2
	.globl _ZN6idFile18WriteUnsignedShortEt
	.type	_ZN6idFile18WriteUnsignedShortEt, @function
_ZN6idFile18WriteUnsignedShortEt:
.LFB2570:
	.loc 3 498 0
	.cfi_startproc
.LVL371:
	stwu 1,-32(1)
.LCFI125:
	.cfi_def_cfa_offset 32
	mflr 0
	stw 31,28(1)
	mr 31,3
	.cfi_offset 31, -4
	.cfi_register 65, 0
.LBB804:
	.loc 3 499 0
	extsh 3,4
.LVL372:
.LBE804:
	.loc 3 498 0
	stw 0,36(1)
.LBB805:
	.loc 3 499 0
	.cfi_offset 65, 4
	bl _Z11LittleShorts
.LVL373:
	.loc 3 500 0
	lwz 9,0(31)
	.loc 3 499 0
	mr 4,1
	.loc 3 500 0
	li 5,2
	lwz 0,24(9)
	.loc 3 499 0
	sthu 3,8(4)
.LVL374:
	.loc 3 500 0
	mr 3,31
	mtctr 0
	bctrl
.LBE805:
	.loc 3 501 0
	lwz 0,36(1)
	lwz 31,28(1)
.LVL375:
	mtlr 0
	addi 1,1,32
.LCFI126:
	.cfi_def_cfa_offset 0
	.cfi_restore 31
	blr
	.cfi_endproc
.LFE2570:
	.size	_ZN6idFile18WriteUnsignedShortEt, .-_ZN6idFile18WriteUnsignedShortEt
	.align 2
	.globl _ZN6idFile10WriteShortEs
	.type	_ZN6idFile10WriteShortEs, @function
_ZN6idFile10WriteShortEs:
.LFB2569:
	.loc 3 488 0
	.cfi_startproc
.LVL376:
	stwu 1,-32(1)
.LCFI127:
	.cfi_def_cfa_offset 32
	mflr 0
	stw 31,28(1)
	mr 31,3
	.cfi_offset 31, -4
	.cfi_register 65, 0
.LBB806:
	.loc 3 489 0
	mr 3,4
.LVL377:
.LBE806:
	.loc 3 488 0
	stw 0,36(1)
.LBB807:
	.loc 3 489 0
	.cfi_offset 65, 4
	bl _Z11LittleShorts
.LVL378:
	.loc 3 490 0
	lwz 9,0(31)
	.loc 3 489 0
	mr 4,1
	.loc 3 490 0
	li 5,2
	lwz 0,24(9)
	.loc 3 489 0
	sthu 3,8(4)
.LVL379:
	.loc 3 490 0
	mr 3,31
	mtctr 0
	bctrl
.LBE807:
	.loc 3 491 0
	lwz 0,36(1)
	lwz 31,28(1)
.LVL380:
	mtlr 0
	addi 1,1,32
.LCFI128:
	.cfi_def_cfa_offset 0
	.cfi_restore 31
	blr
	.cfi_endproc
.LFE2569:
	.size	_ZN6idFile10WriteShortEs, .-_ZN6idFile10WriteShortEs
	.align 2
	.globl _ZN6idFile17ReadUnsignedShortERt
	.type	_ZN6idFile17ReadUnsignedShortERt, @function
_ZN6idFile17ReadUnsignedShortERt:
.LFB2556:
	.loc 3 344 0
	.cfi_startproc
.LVL381:
	mflr 0
	stwu 1,-16(1)
.LCFI129:
	.cfi_def_cfa_offset 16
	.cfi_register 65, 0
.LBB808:
	.loc 3 345 0
	li 5,2
.LBE808:
	.loc 3 344 0
	stw 30,8(1)
	stw 31,12(1)
	mr 31,4
	.cfi_offset 31, -4
	.cfi_offset 30, -8
	stw 0,20(1)
.LBB809:
	.loc 3 345 0
	lwz 9,0(3)
	lwz 0,20(9)
	.cfi_offset 65, 4
	mtctr 0
	bctrl
.LVL382:
	mr 30,3
.LVL383:
	.loc 3 346 0
	lha 3,0(31)
.LVL384:
	bl _Z11LittleShorts
	sth 3,0(31)
.LBE809:
	.loc 3 348 0
	mr 3,30
	lwz 0,20(1)
	lwz 30,8(1)
.LVL385:
	mtlr 0
	lwz 31,12(1)
.LVL386:
	addi 1,1,16
.LCFI130:
	.cfi_def_cfa_offset 0
	.cfi_restore 31
	.cfi_restore 30
	blr
	.cfi_endproc
.LFE2556:
	.size	_ZN6idFile17ReadUnsignedShortERt, .-_ZN6idFile17ReadUnsignedShortERt
	.align 2
	.globl _ZN6idFile9ReadShortERs
	.type	_ZN6idFile9ReadShortERs, @function
_ZN6idFile9ReadShortERs:
.LFB2555:
	.loc 3 333 0
	.cfi_startproc
.LVL387:
	mflr 0
	stwu 1,-16(1)
.LCFI131:
	.cfi_def_cfa_offset 16
	.cfi_register 65, 0
.LBB810:
	.loc 3 334 0
	li 5,2
.LBE810:
	.loc 3 333 0
	stw 30,8(1)
	stw 31,12(1)
	mr 31,4
	.cfi_offset 31, -4
	.cfi_offset 30, -8
	stw 0,20(1)
.LBB811:
	.loc 3 334 0
	lwz 9,0(3)
	lwz 0,20(9)
	.cfi_offset 65, 4
	mtctr 0
	bctrl
.LVL388:
	mr 30,3
.LVL389:
	.loc 3 335 0
	lha 3,0(31)
.LVL390:
	bl _Z11LittleShorts
	sth 3,0(31)
.LBE811:
	.loc 3 337 0
	mr 3,30
	lwz 0,20(1)
	lwz 30,8(1)
.LVL391:
	mtlr 0
	lwz 31,12(1)
.LVL392:
	addi 1,1,16
.LCFI132:
	.cfi_def_cfa_offset 0
	.cfi_restore 31
	.cfi_restore 30
	blr
	.cfi_endproc
.LFE2555:
	.size	_ZN6idFile9ReadShortERs, .-_ZN6idFile9ReadShortERs
	.align 2
	.globl _ZN6idFile16WriteUnsignedIntEj
	.type	_ZN6idFile16WriteUnsignedIntEj, @function
_ZN6idFile16WriteUnsignedIntEj:
.LFB2568:
	.loc 3 478 0
	.cfi_startproc
.LVL393:
	stwu 1,-32(1)
.LCFI133:
	.cfi_def_cfa_offset 32
	mflr 0
	stw 31,28(1)
	mr 31,3
	.cfi_offset 31, -4
	.cfi_register 65, 0
.LBB812:
	.loc 3 479 0
	mr 3,4
.LVL394:
.LBE812:
	.loc 3 478 0
	stw 0,36(1)
.LBB813:
	.loc 3 479 0
	.cfi_offset 65, 4
	bl _Z10LittleLongi
.LVL395:
	.loc 3 480 0
	lwz 9,0(31)
	.loc 3 479 0
	mr 4,1
	.loc 3 480 0
	li 5,4
	lwz 0,24(9)
	.loc 3 479 0
	stwu 3,8(4)
.LVL396:
	.loc 3 480 0
	mr 3,31
	mtctr 0
	bctrl
.LBE813:
	.loc 3 481 0
	lwz 0,36(1)
	lwz 31,28(1)
.LVL397:
	mtlr 0
	addi 1,1,32
.LCFI134:
	.cfi_def_cfa_offset 0
	.cfi_restore 31
	blr
	.cfi_endproc
.LFE2568:
	.size	_ZN6idFile16WriteUnsignedIntEj, .-_ZN6idFile16WriteUnsignedIntEj
	.align 2
	.globl _ZN6idFile8WriteIntEi
	.type	_ZN6idFile8WriteIntEi, @function
_ZN6idFile8WriteIntEi:
.LFB2567:
	.loc 3 468 0
	.cfi_startproc
.LVL398:
	stwu 1,-32(1)
.LCFI135:
	.cfi_def_cfa_offset 32
	mflr 0
	stw 31,28(1)
	mr 31,3
	.cfi_offset 31, -4
	.cfi_register 65, 0
.LBB814:
	.loc 3 469 0
	mr 3,4
.LVL399:
.LBE814:
	.loc 3 468 0
	stw 0,36(1)
.LBB815:
	.loc 3 469 0
	.cfi_offset 65, 4
	bl _Z10LittleLongi
.LVL400:
	.loc 3 470 0
	lwz 9,0(31)
	.loc 3 469 0
	mr 4,1
	.loc 3 470 0
	li 5,4
	lwz 0,24(9)
	.loc 3 469 0
	stwu 3,8(4)
.LVL401:
	.loc 3 470 0
	mr 3,31
	mtctr 0
	bctrl
.LBE815:
	.loc 3 471 0
	lwz 0,36(1)
	lwz 31,28(1)
.LVL402:
	mtlr 0
	addi 1,1,32
.LCFI136:
	.cfi_def_cfa_offset 0
	.cfi_restore 31
	blr
	.cfi_endproc
.LFE2567:
	.size	_ZN6idFile8WriteIntEi, .-_ZN6idFile8WriteIntEi
	.align 2
	.globl _ZN6idFile15ReadUnsignedIntERj
	.type	_ZN6idFile15ReadUnsignedIntERj, @function
_ZN6idFile15ReadUnsignedIntERj:
.LFB2554:
	.loc 3 322 0
	.cfi_startproc
.LVL403:
	mflr 0
	stwu 1,-16(1)
.LCFI137:
	.cfi_def_cfa_offset 16
	.cfi_register 65, 0
.LBB816:
	.loc 3 323 0
	li 5,4
.LBE816:
	.loc 3 322 0
	stw 30,8(1)
	stw 31,12(1)
	mr 31,4
	.cfi_offset 31, -4
	.cfi_offset 30, -8
	stw 0,20(1)
.LBB817:
	.loc 3 323 0
	lwz 9,0(3)
	lwz 0,20(9)
	.cfi_offset 65, 4
	mtctr 0
	bctrl
.LVL404:
	mr 30,3
.LVL405:
	.loc 3 324 0
	lwz 3,0(31)
.LVL406:
	bl _Z10LittleLongi
	stw 3,0(31)
.LBE817:
	.loc 3 326 0
	mr 3,30
	lwz 0,20(1)
	lwz 30,8(1)
.LVL407:
	mtlr 0
	lwz 31,12(1)
.LVL408:
	addi 1,1,16
.LCFI138:
	.cfi_def_cfa_offset 0
	.cfi_restore 31
	.cfi_restore 30
	blr
	.cfi_endproc
.LFE2554:
	.size	_ZN6idFile15ReadUnsignedIntERj, .-_ZN6idFile15ReadUnsignedIntERj
	.align 2
	.globl _ZN6idFile7ReadIntERi
	.type	_ZN6idFile7ReadIntERi, @function
_ZN6idFile7ReadIntERi:
.LFB2553:
	.loc 3 311 0
	.cfi_startproc
.LVL409:
	mflr 0
	stwu 1,-16(1)
.LCFI139:
	.cfi_def_cfa_offset 16
	.cfi_register 65, 0
.LBB818:
	.loc 3 312 0
	li 5,4
.LBE818:
	.loc 3 311 0
	stw 30,8(1)
	stw 31,12(1)
	mr 31,4
	.cfi_offset 31, -4
	.cfi_offset 30, -8
	stw 0,20(1)
.LBB819:
	.loc 3 312 0
	lwz 9,0(3)
	lwz 0,20(9)
	.cfi_offset 65, 4
	mtctr 0
	bctrl
.LVL410:
	mr 30,3
.LVL411:
	.loc 3 313 0
	lwz 3,0(31)
.LVL412:
	bl _Z10LittleLongi
	stw 3,0(31)
.LBE819:
	.loc 3 315 0
	mr 3,30
	lwz 0,20(1)
	lwz 30,8(1)
.LVL413:
	mtlr 0
	lwz 31,12(1)
.LVL414:
	addi 1,1,16
.LCFI140:
	.cfi_def_cfa_offset 0
	.cfi_restore 31
	.cfi_restore 30
	blr
	.cfi_endproc
.LFE2553:
	.size	_ZN6idFile7ReadIntERi, .-_ZN6idFile7ReadIntERi
	.align 2
	.globl _ZN6idFile10ReadStringER5idStr
	.type	_ZN6idFile10ReadStringER5idStr, @function
_ZN6idFile10ReadStringER5idStr:
.LFB2561:
	.loc 3 396 0
	.cfi_startproc
.LVL415:
	mflr 0
	stwu 1,-40(1)
.LCFI141:
	.cfi_def_cfa_offset 40
	.cfi_register 65, 0
	stw 29,28(1)
	mr 29,3
	.cfi_offset 29, -12
	stw 30,32(1)
	stw 31,36(1)
	mr 31,4
	.cfi_offset 31, -4
	.cfi_offset 30, -8
	stw 0,44(1)
.LBB820:
	.loc 3 400 0
	addi 4,1,8
.LVL416:
	lwz 9,0(3)
	lwz 0,68(9)
	.cfi_offset 65, 4
	mtctr 0
	bctrl
.LVL417:
	.loc 3 401 0
	lwz 30,8(1)
	.loc 3 398 0
	li 3,0
	.loc 3 401 0
	cmpwi 7,30,0
	blt- 7,.L204
.LVL418:
.LBB821:
.LBB822:
.LBB823:
.LBB824:
	.loc 4 350 0
	lwz 0,8(31)
.LBE824:
.LBE823:
	.loc 4 889 0
	addi 4,30,1
.LVL419:
.LBB827:
.LBB825:
	.loc 4 350 0
	cmpw 7,4,0
	bgt- 7,.L207
.LVL420:
.L205:
.LBE825:
.LBE827:
	.loc 4 890 0
	stw 30,0(31)
	.loc 4 891 0
	li 4,32
	lwz 3,4(31)
	mr 5,30
	bl memset
	.loc 4 892 0
	lwz 9,4(31)
	lwz 0,0(31)
	li 11,0
.LBE822:
.LBE821:
	.loc 3 403 0
	mr 3,29
.LBB831:
.LBB829:
	.loc 4 892 0
	stbx 11,9,0
.LVL421:
.LBE829:
.LBE831:
	.loc 3 403 0
	lwz 9,0(29)
	lwz 4,4(31)
	lwz 0,20(9)
	lwz 5,8(1)
	mtctr 0
	bctrl
.LVL422:
.L204:
.LBE820:
	.loc 3 406 0
	lwz 0,44(1)
	lwz 29,28(1)
.LVL423:
	mtlr 0
	lwz 30,32(1)
	lwz 31,36(1)
.LVL424:
	addi 1,1,40
	.cfi_remember_state
.LCFI142:
	.cfi_def_cfa_offset 0
	.cfi_restore 31
	.cfi_restore 30
	.cfi_restore 29
	blr
.LVL425:
.L207:
.LCFI143:
	.cfi_restore_state
.LBB833:
.LBB832:
.LBB830:
.LBB828:
.LBB826:
	.loc 4 351 0
	mr 3,31
	li 5,1
	bl _ZN5idStr10ReAllocateEib
.LVL426:
	b .L205
.LBE826:
.LBE828:
.LBE830:
.LBE832:
.LBE833:
	.cfi_endproc
.LFE2561:
	.size	_ZN6idFile10ReadStringER5idStr, .-_ZN6idFile10ReadStringER5idStr
	.align 2
	.globl _ZN6idFile7VPrintfEPKcP13__va_list_tag
	.type	_ZN6idFile7VPrintfEPKcP13__va_list_tag, @function
_ZN6idFile7VPrintfEPKcP13__va_list_tag:
.LFB2551:
	.loc 3 281 0
	.cfi_startproc
.LVL427:
	mflr 0
	stwu 1,-4112(1)
.LCFI144:
	.cfi_def_cfa_offset 4112
	.cfi_register 65, 0
	mr 6,5
	stw 31,4108(1)
	mr 31,3
	.cfi_offset 31, -4
	stw 0,4116(1)
	.loc 3 281 0
	mr 0,4
	.cfi_offset 65, 4
.LBB834:
	.loc 3 285 0
	mr 5,0
.LVL428:
	li 4,4095
.LVL429:
	addi 3,1,8
.LVL430:
	bl _ZN5idStr9vsnPrintfEPciPKcP13__va_list_tag
.LVL431:
	.loc 3 286 0
	lwz 9,0(31)
	.loc 3 285 0
	mr 5,3
.LVL432:
	.loc 3 286 0
	addi 4,1,8
	lwz 0,24(9)
	mr 3,31
.LVL433:
	mtctr 0
	bctrl
.LVL434:
.LBE834:
	.loc 3 287 0
	lwz 0,4116(1)
	lwz 31,4108(1)
.LVL435:
	mtlr 0
	addi 1,1,4112
.LCFI145:
	.cfi_def_cfa_offset 0
	.cfi_restore 31
	blr
	.cfi_endproc
.LFE2551:
	.size	_ZN6idFile7VPrintfEPKcP13__va_list_tag, .-_ZN6idFile7VPrintfEPKcP13__va_list_tag
	.align 2
	.globl _ZN6idFile6PrintfEPKcz
	.type	_ZN6idFile6PrintfEPKcz, @function
_ZN6idFile6PrintfEPKcz:
.LFB2550:
	.loc 3 260 0
	.cfi_startproc
	.cfi_personality 0,__gxx_personality_v0
	.cfi_lsda 0,.LLSDA2550
.LVL436:
	mflr 0
	stwu 1,-4256(1)
.LCFI146:
	.cfi_def_cfa_offset 4256
	.cfi_register 65, 0
	stw 31,4252(1)
	mr 31,3
	.cfi_offset 31, -4
	stw 0,4260(1)
	stw 29,4244(1)
	stw 30,4248(1)
	stw 5,4152(1)
	stw 6,4156(1)
	stw 7,4160(1)
	stw 8,4164(1)
	stw 9,4168(1)
	stw 10,4172(1)
	bne- 1,.L210
	.cfi_offset 30, -8
	.cfi_offset 29, -12
	.cfi_offset 65, 4
	.loc 3 260 0
	stfd 1,4176(1)
	stfd 2,4184(1)
	stfd 3,4192(1)
	stfd 4,4200(1)
	stfd 5,4208(1)
	stfd 6,4216(1)
	stfd 7,4224(1)
	stfd 8,4232(1)
.L210:
.LBB835:
	.loc 3 265 0
	li 0,2
.LBE835:
	.loc 3 260 0
	mr 5,4
.LBB860:
	.loc 3 265 0
	stb 0,8(1)
	li 0,0
	stb 0,9(1)
	addi 0,1,4264
	.loc 3 266 0
	li 4,4095
.LVL437:
	addi 6,1,8
	.loc 3 265 0
	stw 0,12(1)
	.loc 3 266 0
	addi 3,1,52
.LVL438:
	.loc 3 265 0
	addi 0,1,4144
.LBB836:
.LBB837:
.LBB838:
.LBB839:
	.loc 4 358 0
	addi 30,1,32
.LBE839:
.LBE838:
.LBE837:
.LBE836:
	.loc 3 265 0
	stw 0,16(1)
.LEHB13:
	.loc 3 266 0
	bl _ZN5idStr9vsnPrintfEPciPKcP13__va_list_tag
.LEHE13:
.LVL439:
.LBB851:
.LBB848:
.LBB842:
.LBB840:
	.loc 4 356 0
	li 0,0
	.loc 4 357 0
	li 9,20
.LBE840:
.LBE842:
	.loc 4 413 0
	addi 3,1,52
.LVL440:
.LBB843:
.LBB841:
	.loc 4 356 0
	stw 0,20(1)
	.loc 4 357 0
	stw 9,28(1)
	.loc 4 358 0
	stw 30,24(1)
	.loc 4 359 0
	stb 0,32(1)
.LBE841:
.LBE843:
	.loc 4 413 0
	bl strlen
.LVL441:
	.loc 4 414 0
	addi 4,3,1
	.loc 4 413 0
	mr 29,3
.LVL442:
.LBB844:
.LBB845:
	.loc 4 350 0
	cmpwi 7,4,20
	.loc 4 358 0
	mr 3,30
.LVL443:
	.loc 4 350 0
	bgt- 7,.L217
.LVL444:
.L211:
.LBE845:
.LBE844:
	.loc 4 415 0
	addi 4,1,52
.LVL445:
	bl strcpy
.LVL446:
.LBE848:
.LBE851:
	.loc 3 271 0
	lis 4,.LC15@ha
	lis 5,.LC16@ha
	addi 3,1,20
	la 4,.LC15@l(4)
	la 5,.LC16@l(5)
.LBB852:
.LBB849:
	.loc 4 416 0
	stw 29,20(1)
.LEHB14:
.LBE849:
.LBE852:
	.loc 3 271 0
	bl _ZN5idStr7ReplaceEPKcS1_
	.loc 3 273 0
	lwz 9,0(31)
	mr 3,31
	lwz 4,24(1)
	lwz 0,24(9)
	lwz 5,20(1)
	mtctr 0
	bctrl
.LEHE14:
	mr 31,3
.LVL447:
.LBB853:
.LBB854:
.LBB855:
	.loc 4 501 0
	addi 3,1,20
.LEHB15:
	bl _ZN5idStr8FreeDataEv
.LBE855:
.LBE854:
.LBE853:
.LBE860:
	.loc 3 274 0
	lwz 0,4260(1)
	mr 3,31
	lwz 29,4244(1)
.LVL448:
	mtlr 0
	lwz 30,4248(1)
	lwz 31,4252(1)
	addi 1,1,4256
	.cfi_remember_state
.LCFI147:
	.cfi_def_cfa_offset 0
	.cfi_restore 31
	.cfi_restore 30
	.cfi_restore 29
	blr
.LVL449:
.L217:
.LCFI148:
	.cfi_restore_state
.LBB861:
.LBB856:
.LBB850:
.LBB847:
.LBB846:
	.loc 4 351 0
	addi 3,1,20
	li 5,1
	bl _ZN5idStr10ReAllocateEib
.LEHE15:
.LVL450:
	lwz 3,24(1)
	b .L211
.L216:
	mr 31,3
.LVL451:
.LBE846:
.LBE847:
.LBE850:
.LBE856:
.LBB857:
.LBB858:
.LBB859:
	.loc 4 501 0
	addi 3,1,20
	bl _ZN5idStr8FreeDataEv
	mr 3,31
.LEHB16:
	bl _Unwind_Resume
.LEHE16:
.LBE859:
.LBE858:
.LBE857:
.LBE861:
	.cfi_endproc
.LFE2550:
	.section	.gcc_except_table
.LLSDA2550:
	.byte	0xff
	.byte	0xff
	.byte	0x1
	.uleb128 .LLSDACSE2550-.LLSDACSB2550
.LLSDACSB2550:
	.uleb128 .LEHB13-.LFB2550
	.uleb128 .LEHE13-.LEHB13
	.uleb128 0
	.uleb128 0
	.uleb128 .LEHB14-.LFB2550
	.uleb128 .LEHE14-.LEHB14
	.uleb128 .L216-.LFB2550
	.uleb128 0
	.uleb128 .LEHB15-.LFB2550
	.uleb128 .LEHE15-.LEHB15
	.uleb128 0
	.uleb128 0
	.uleb128 .LEHB16-.LFB2550
	.uleb128 .LEHE16-.LEHB16
	.uleb128 0
	.uleb128 0
.LLSDACSE2550:
	.section	".text"
	.size	_ZN6idFile6PrintfEPKcz, .-_ZN6idFile6PrintfEPKcz
	.align 2
	.globl _ZN13idFile_Memory5ClearEb
	.type	_ZN13idFile_Memory5ClearEb, @function
_ZN13idFile_Memory5ClearEb:
.LFB2610:
	.loc 3 870 0
	.cfi_startproc
.LVL452:
	mflr 0
	.loc 3 873 0
	cmpwi 7,4,0
	.loc 3 870 0
	stwu 1,-16(1)
.LCFI149:
	.cfi_def_cfa_offset 16
	.cfi_register 65, 0
	stw 0,20(1)
	.loc 3 872 0
	li 0,16384
	.cfi_offset 65, 4
	.loc 3 870 0
	stw 30,8(1)
	.loc 3 871 0
	li 30,0
	.cfi_offset 30, -8
	.loc 3 870 0
	stw 31,12(1)
	.loc 3 870 0
	mr 31,3
	.cfi_offset 31, -4
	.loc 3 871 0
	stw 30,44(3)
	.loc 3 872 0
	stw 0,52(3)
	.loc 3 873 0
	bne- 7,.L221
	.loc 3 879 0
	lwz 0,56(3)
	stw 0,60(3)
	.loc 3 881 0
	lwz 0,20(1)
	lwz 30,8(1)
	mtlr 0
	lwz 31,12(1)
	addi 1,1,16
	.cfi_remember_state
.LCFI150:
	.cfi_def_cfa_offset 0
	.cfi_restore 31
	.cfi_restore 30
	blr
.L221:
.LCFI151:
	.cfi_restore_state
.LVL453:
.LBB864:
.LBB865:
	.loc 3 874 0
	stw 30,48(3)
	.loc 3 875 0
	lwz 3,56(3)
.LVL454:
	bl _Z8Mem_FreePv
.LVL455:
	.loc 3 876 0
	stw 30,56(31)
	.loc 3 877 0
	stw 30,60(31)
.LBE865:
.LBE864:
	.loc 3 881 0
	lwz 0,20(1)
	lwz 30,8(1)
	mtlr 0
	lwz 31,12(1)
.LVL456:
	addi 1,1,16
	.cfi_restore 30
	.cfi_restore 31
.LCFI152:
	.cfi_def_cfa_offset 0
	blr
	.cfi_endproc
.LFE2610:
	.size	_ZN13idFile_Memory5ClearEb, .-_ZN13idFile_Memory5ClearEb
	.align 2
	.globl _ZN13idFile_BitMsg5WriteEPKvi
	.type	_ZN13idFile_BitMsg5WriteEPKvi, @function
_ZN13idFile_BitMsg5WriteEPKvi:
.LFB2624:
	.loc 3 970 0
	.cfi_startproc
.LVL457:
	mflr 0
	stwu 1,-16(1)
.LCFI153:
	.cfi_def_cfa_offset 16
	.cfi_register 65, 0
	mr 9,3
	stw 31,12(1)
	mr 31,5
	.cfi_offset 31, -4
	stw 0,20(1)
	.loc 3 972 0
	lwz 0,36(3)
	.cfi_offset 65, 4
	andi. 11,0,2
	beq- 0,.L225
	.loc 3 977 0
	lwz 3,40(3)
.LVL458:
	bl _ZN8idBitMsg9WriteDataEPKvi
.LVL459:
	.loc 3 979 0
	lwz 0,20(1)
	mr 3,31
	lwz 31,12(1)
.LVL460:
	mtlr 0
	addi 1,1,16
	.cfi_remember_state
.LCFI154:
	.cfi_def_cfa_offset 0
	.cfi_restore 31
	blr
.LVL461:
.L225:
.LCFI155:
	.cfi_restore_state
.LBB868:
.LBB869:
	.loc 3 973 0
	lis 11,common@ha
	lis 4,.LC13@ha
.LVL462:
	lwz 3,common@l(11)
.LVL463:
	la 4,.LC13@l(4)
	lwz 5,8(9)
.LVL464:
	li 31,0
.LVL465:
	lwz 11,0(3)
	lwz 0,100(11)
	mtctr 0
	crxor 6,6,6
	bctrl
.LVL466:
.LBE869:
.LBE868:
	.loc 3 979 0
	lwz 0,20(1)
	mr 3,31
	lwz 31,12(1)
	mtlr 0
	addi 1,1,16
	.cfi_restore 31
.LCFI156:
	.cfi_def_cfa_offset 0
	blr
	.cfi_endproc
.LFE2624:
	.size	_ZN13idFile_BitMsg5WriteEPKvi, .-_ZN13idFile_BitMsg5WriteEPKvi
	.align 2
	.globl _ZN13idFile_BitMsg4ReadEPvi
	.type	_ZN13idFile_BitMsg4ReadEPvi, @function
_ZN13idFile_BitMsg4ReadEPvi:
.LFB2623:
	.loc 3 955 0
	.cfi_startproc
.LVL467:
	mflr 0
	stwu 1,-8(1)
.LCFI157:
	.cfi_def_cfa_offset 8
	.cfi_register 65, 0
	mr 9,3
	stw 0,12(1)
	.loc 3 957 0
	lwz 0,36(3)
	.cfi_offset 65, 4
	andi. 11,0,1
	beq- 0,.L229
	.loc 3 962 0
	lwz 3,40(3)
.LVL468:
	bl _ZNK8idBitMsg8ReadDataEPvi
.LVL469:
	.loc 3 963 0
	lwz 0,12(1)
	addi 1,1,8
	.cfi_remember_state
.LCFI158:
	.cfi_def_cfa_offset 0
	mtlr 0
	blr
.LVL470:
.L229:
.LCFI159:
	.cfi_restore_state
.LBB872:
.LBB873:
	.loc 3 958 0
	lis 11,common@ha
	lis 4,.LC17@ha
.LVL471:
	lwz 3,common@l(11)
.LVL472:
	la 4,.LC17@l(4)
	lwz 5,8(9)
.LVL473:
	lwz 11,0(3)
	lwz 0,100(11)
	mtctr 0
	crxor 6,6,6
	bctrl
.LVL474:
.LBE873:
.LBE872:
	.loc 3 963 0
	lwz 0,12(1)
.LBB875:
.LBB874:
	.loc 3 958 0
	li 3,0
.LBE874:
.LBE875:
	.loc 3 963 0
	mtlr 0
	addi 1,1,8
.LCFI160:
	.cfi_def_cfa_offset 0
	blr
	.cfi_endproc
.LFE2623:
	.size	_ZN13idFile_BitMsg4ReadEPvi, .-_ZN13idFile_BitMsg4ReadEPvi
	.align 2
	.globl _ZN13idFile_Memory4SeekEl10fsOrigin_t
	.type	_ZN13idFile_Memory4SeekEl10fsOrigin_t, @function
_ZN13idFile_Memory4SeekEl10fsOrigin_t:
.LFB2608:
	.loc 3 824 0
	.cfi_startproc
.LVL475:
	.loc 3 826 0
	cmpwi 7,5,1
	.loc 3 824 0
	mflr 0
	stwu 1,-8(1)
.LCFI161:
	.cfi_def_cfa_offset 8
	.cfi_register 65, 0
	mr 9,3
	stw 0,12(1)
	.loc 3 826 0
	beq- 7,.L233
	.cfi_offset 65, 4
	cmpwi 7,5,2
	beq- 7,.L234
	cmpwi 7,5,0
	bne- 7,.L239
	.loc 3 828 0
	lwz 11,60(3)
	lwz 0,56(3)
	add 4,11,4
.LVL476:
	stw 4,60(3)
.L235:
	.loc 3 844 0
	cmplw 7,0,4
	bgt- 7,.L240
	.loc 3 848 0
	lwz 11,44(9)
	.loc 3 852 0
	li 3,0
.LVL477:
	.loc 3 848 0
	add 0,0,11
	cmplw 7,0,4
	bge+ 7,.L236
.L240:
	.loc 3 849 0
	stw 0,60(9)
	.loc 3 850 0
	li 3,-1
	b .L236
.LVL478:
.L239:
.LBB878:
.LBB879:
	.loc 3 840 0
	lis 11,common@ha
	lis 4,.LC18@ha
.LVL479:
	lwz 3,common@l(11)
	la 4,.LC18@l(4)
	lwz 5,8(9)
.LVL480:
	lwz 11,0(3)
	lwz 0,100(11)
	mtctr 0
	crxor 6,6,6
	bctrl
.LVL481:
	li 3,-1
.L236:
.LBE879:
.LBE878:
	.loc 3 853 0
	lwz 0,12(1)
	addi 1,1,8
	.cfi_remember_state
.LCFI162:
	.cfi_def_cfa_offset 0
	mtlr 0
	blr
.LVL482:
.L234:
.LCFI163:
	.cfi_restore_state
	.loc 3 836 0
	lwz 0,56(3)
	add 4,0,4
.LVL483:
	stw 4,60(3)
	.loc 3 837 0
	b .L235
.LVL484:
.L233:
	.loc 3 832 0
	lwz 11,44(3)
	lwz 0,56(3)
	subf 4,4,11
.LVL485:
	add 4,0,4
	stw 4,60(3)
	.loc 3 833 0
	b .L235
	.cfi_endproc
.LFE2608:
	.size	_ZN13idFile_Memory4SeekEl10fsOrigin_t, .-_ZN13idFile_Memory4SeekEl10fsOrigin_t
	.align 2
	.globl _ZN13idFile_Memory4ReadEPvi
	.type	_ZN13idFile_Memory4ReadEPvi, @function
_ZN13idFile_Memory4ReadEPvi:
.LFB2601:
	.loc 3 722 0
	.cfi_startproc
.LVL486:
	mflr 0
	stwu 1,-16(1)
.LCFI164:
	.cfi_def_cfa_offset 16
	.cfi_register 65, 0
	stw 30,8(1)
	mr 30,5
	.cfi_offset 30, -8
	stw 31,12(1)
	mr 31,3
	.cfi_offset 31, -4
	stw 0,20(1)
	.loc 3 724 0
	lwz 0,36(3)
	.cfi_offset 65, 4
	andi. 9,0,1
	beq- 0,.L245
	.loc 3 729 0
	lwz 0,60(3)
	lwz 10,56(3)
	lwz 9,44(3)
	add 11,0,5
	add 9,10,9
	cmplw 7,9,11
	blt- 7,.L246
.LVL487:
.L244:
	.loc 3 732 0
	mr 3,4
.LVL488:
	mr 5,30
	mr 4,0
.LVL489:
	bl memcpy
.LVL490:
	.loc 3 733 0
	lwz 0,60(31)
	.loc 3 735 0
	mr 3,30
	.loc 3 733 0
	add 0,0,30
	stw 0,60(31)
	.loc 3 735 0
	lwz 0,20(1)
	lwz 30,8(1)
.LVL491:
	mtlr 0
	lwz 31,12(1)
.LVL492:
	addi 1,1,16
	.cfi_remember_state
.LCFI165:
	.cfi_def_cfa_offset 0
	.cfi_restore 31
	.cfi_restore 30
	blr
.LVL493:
.L246:
.LCFI166:
	.cfi_restore_state
	.loc 3 730 0
	subf 30,0,9
.LVL494:
	b .L244
.LVL495:
.L245:
.LBB882:
.LBB883:
	.loc 3 725 0
	lis 9,common@ha
	lis 4,.LC19@ha
.LVL496:
	lwz 3,common@l(9)
.LVL497:
	la 4,.LC19@l(4)
	lwz 5,8(31)
.LVL498:
	li 30,0
.LVL499:
	lwz 9,0(3)
	lwz 0,100(9)
	mtctr 0
	crxor 6,6,6
	bctrl
.LBE883:
.LBE882:
	.loc 3 735 0
	lwz 0,20(1)
	mr 3,30
	lwz 31,12(1)
.LVL500:
	mtlr 0
	lwz 30,8(1)
	addi 1,1,16
	.cfi_restore 30
	.cfi_restore 31
.LCFI167:
	.cfi_def_cfa_offset 0
	blr
	.cfi_endproc
.LFE2601:
	.size	_ZN13idFile_Memory4ReadEPvi, .-_ZN13idFile_Memory4ReadEPvi
	.section	.text._ZN9idWindingD0Ev,"axG",@progbits,_ZN9idWindingD5Ev,comdat
	.align 2
	.weak	_ZN9idWindingD0Ev
	.type	_ZN9idWindingD0Ev, @function
_ZN9idWindingD0Ev:
.LFB1463:
	.loc 1 183 0
	.cfi_startproc
.LVL501:
	mflr 0
	stwu 1,-16(1)
.LCFI168:
	.cfi_def_cfa_offset 16
	.cfi_register 65, 0
.LBB887:
.LBB888:
.LBB889:
	lis 9,_ZTV9idWinding+8@ha
.LBE889:
.LBE888:
.LBE887:
	stw 31,12(1)
	mr 31,3
	.cfi_offset 31, -4
.LVL502:
	stw 0,20(1)
.LBB894:
.LBB892:
.LBB890:
	.loc 1 183 0
	la 0,_ZTV9idWinding+8@l(9)
	.cfi_offset 65, 4
	.loc 1 184 0
	lwz 3,8(3)
.LVL503:
	.loc 1 183 0
	stw 0,0(31)
	.loc 1 184 0
	cmpwi 7,3,0
	beq- 7,.L248
	bl _ZdaPv
.LVL504:
.L248:
	.loc 1 185 0
	li 0,0
.LBE890:
.LBE892:
.LBE894:
	.loc 1 186 0
	mr 3,31
.LBB895:
.LBB893:
.LBB891:
	.loc 1 185 0
	stw 0,8(31)
.LBE891:
.LBE893:
.LBE895:
	.loc 1 186 0
	bl _ZdlPv
	lwz 0,20(1)
	lwz 31,12(1)
.LVL505:
	mtlr 0
	addi 1,1,16
.LCFI169:
	.cfi_def_cfa_offset 0
	.cfi_restore 31
	blr
	.cfi_endproc
.LFE1463:
	.size	_ZN9idWindingD0Ev, .-_ZN9idWindingD0Ev
	.section	.text._ZN14idFixedWindingD2Ev,"axG",@progbits,_ZN14idFixedWindingD5Ev,comdat
	.align 2
	.weak	_ZN14idFixedWindingD2Ev
	.type	_ZN14idFixedWindingD2Ev, @function
_ZN14idFixedWindingD2Ev:
.LFB1498:
	.loc 1 380 0
	.cfi_startproc
.LVL506:
.LBB901:
	.loc 1 381 0
	li 0,0
.LBB902:
.LBB903:
.LBB904:
	.loc 1 183 0
	lis 9,_ZTV9idWinding+8@ha
.LBE904:
.LBE903:
.LBE902:
	.loc 1 381 0
	stw 0,8(3)
.LVL507:
.LBB907:
.LBB906:
.LBB905:
	.loc 1 183 0
	la 0,_ZTV9idWinding+8@l(9)
	stw 0,0(3)
.LBE905:
.LBE906:
.LBE907:
.LBE901:
	.loc 1 382 0
	blr
	.cfi_endproc
.LFE1498:
	.size	_ZN14idFixedWindingD2Ev, .-_ZN14idFixedWindingD2Ev
	.section	.text._ZN14idFixedWindingD0Ev,"axG",@progbits,_ZN14idFixedWindingD5Ev,comdat
	.align 2
	.weak	_ZN14idFixedWindingD0Ev
	.type	_ZN14idFixedWindingD0Ev, @function
_ZN14idFixedWindingD0Ev:
.LFB1500:
	.loc 1 380 0
	.cfi_startproc
.LVL508:
	mflr 0
	stwu 1,-8(1)
.LCFI170:
	.cfi_def_cfa_offset 8
	.cfi_register 65, 0
.LBB914:
.LBB915:
.LBB916:
.LBB917:
.LBB918:
.LBB919:
	.loc 1 183 0
	lis 11,_ZTV9idWinding+8@ha
.LBE919:
.LBE918:
.LBE917:
.LBE916:
.LBE915:
.LBE914:
	.loc 1 380 0
	stw 0,12(1)
.LBB925:
.LBB924:
.LBB923:
	.loc 1 381 0
	li 0,0
	.cfi_offset 65, 4
	stw 0,8(3)
.LVL509:
.LBB922:
.LBB921:
.LBB920:
	.loc 1 183 0
	la 0,_ZTV9idWinding+8@l(11)
	stw 0,0(3)
.LBE920:
.LBE921:
.LBE922:
.LBE923:
.LBE924:
.LBE925:
	.loc 1 382 0
	bl _ZdlPv
.LVL510:
	lwz 0,12(1)
	addi 1,1,8
.LCFI171:
	.cfi_def_cfa_offset 0
	mtlr 0
	blr
	.cfi_endproc
.LFE1500:
	.size	_ZN14idFixedWindingD0Ev, .-_ZN14idFixedWindingD0Ev
	.section	".text"
	.align 2
	.globl _Z19FS_WriteFloatStringPcPKcP13__va_list_tag
	.type	_Z19FS_WriteFloatStringPcPKcP13__va_list_tag, @function
_Z19FS_WriteFloatStringPcPKcP13__va_list_tag:
.LFB2538:
	.loc 3 41 0
	.cfi_startproc
	.cfi_personality 0,__gxx_personality_v0
	.cfi_lsda 0,.LLSDA2538
.LVL511:
	mflr 0
	stwu 1,-128(1)
.LCFI172:
	.cfi_def_cfa_offset 128
	.cfi_register 65, 0
.LVL512:
.LBB963:
.LBB964:
.LBB965:
.LBB966:
	.loc 4 357 0
	li 9,20
	stw 9,48(1)
	.loc 4 358 0
	addi 11,1,52
.LBE966:
.LBE965:
.LBE964:
.LBE963:
	.loc 3 41 0
	stw 0,132(1)
.LBB1048:
.LBB975:
.LBB971:
.LBB967:
	.loc 4 356 0
	li 0,0
	.cfi_offset 65, 4
.LBE967:
.LBE971:
.LBE975:
.LBB976:
.LBB977:
.LBB978:
	.loc 4 357 0
	stw 9,16(1)
	.loc 4 358 0
	addi 9,1,20
.LBE978:
.LBE977:
.LBE976:
.LBE1048:
	.loc 3 41 0
	stw 19,76(1)
.LBB1049:
	.loc 3 70 0
	lis 19,.LC20@ha
	.cfi_offset 19, -52
.LBE1049:
	.loc 3 41 0
	stw 20,80(1)
.LBB1050:
	.loc 3 73 0
	lis 20,.LC21@ha
	.cfi_offset 20, -48
.LBE1050:
	.loc 3 41 0
	stw 21,84(1)
.LBB1051:
	.loc 3 112 0
	lis 21,.LC22@ha
	.cfi_offset 21, -44
.LBE1051:
	.loc 3 41 0
	stw 22,88(1)
.LBB1052:
	.loc 3 133 0
	lis 22,.LC23@ha
	.cfi_offset 22, -40
.LBE1052:
	.loc 3 41 0
	stw 24,96(1)
.LBB1053:
	.loc 3 54 0
	lis 24,.LC0@ha
	.cfi_offset 24, -32
.LBE1053:
	.loc 3 41 0
	stw 25,100(1)
.LBB1054:
	.loc 3 139 0
	lis 25,.LC24@ha
	.cfi_offset 25, -28
.LBE1054:
	.loc 3 41 0
	stw 29,116(1)
.LBB1055:
	.loc 3 54 0
	la 24,.LC0@l(24)
.LBE1055:
	.loc 3 41 0
	stw 31,124(1)
.LBB1056:
	.loc 3 112 0
	la 21,.LC22@l(21)
.LBB983:
.LBB972:
.LBB968:
	.loc 4 356 0
	stw 0,40(1)
.LBE968:
.LBE972:
.LBE983:
	.loc 3 70 0
	la 19,.LC20@l(19)
.LBB984:
.LBB973:
.LBB969:
	.loc 4 358 0
	stw 11,44(1)
.LBE969:
.LBE973:
.LBE984:
	.loc 3 73 0
	la 20,.LC21@l(20)
.LBB985:
.LBB974:
.LBB970:
	.loc 4 359 0
	stb 0,52(1)
.LVL513:
.LBE970:
.LBE974:
.LBE985:
	.loc 3 139 0
	la 25,.LC24@l(25)
.LBB986:
.LBB981:
.LBB979:
	.loc 4 356 0
	stw 0,8(1)
.LBE979:
.LBE981:
.LBE986:
	.loc 3 133 0
	la 22,.LC23@l(22)
.LBB987:
.LBB982:
.LBB980:
	.loc 4 358 0
	stw 9,12(1)
	.loc 4 359 0
	stb 0,20(1)
.LVL514:
.LBE980:
.LBE982:
.LBE987:
.LBE1056:
	.loc 3 41 0
	stw 23,92(1)
.LBB1057:
	.loc 3 112 0
	lis 23,common@ha
	.cfi_offset 23, -36
	.cfi_offset 31, -4
	.cfi_offset 29, -12
.LBE1057:
	.loc 3 41 0
	stw 26,104(1)
	mr 26,5
	.cfi_offset 26, -24
	stw 27,108(1)
	mr 27,3
	.cfi_offset 27, -20
	stw 28,112(1)
.LBB1058:
	.loc 3 49 0
	li 28,0
	.cfi_offset 28, -16
.LBE1058:
	.loc 3 41 0
	stw 30,120(1)
	.loc 3 41 0
	mr 30,4
	.cfi_offset 30, -8
.LVL515:
.L316:
.LBB1059:
	.loc 3 51 0 discriminator 1
	lbz 5,0(30)
	cmpwi 7,5,0
	beq- 7,.L325
.L307:
	.loc 3 52 0
	cmpwi 7,5,37
	beq- 7,.L261
	cmpwi 7,5,92
	beq- 7,.L326
	.loc 3 139 0
	add 3,27,28
	mr 4,25
	crxor 6,6,6
	bl sprintf
	.loc 3 140 0
	addi 30,30,1
.LVL516:
	.loc 3 139 0
	add 28,28,3
.LVL517:
.L332:
	.loc 3 51 0
	lbz 5,0(30)
	cmpwi 7,5,0
	bne+ 7,.L307
.L325:
.LVL518:
.LBB988:
.LBB989:
.LBB990:
	.loc 4 501 0
	addi 3,1,8
.LEHB17:
	bl _ZN5idStr8FreeDataEv
.LEHE17:
.LVL519:
.LBE990:
.LBE989:
.LBE988:
.LBB991:
.LBB992:
.LBB993:
	addi 3,1,40
.LEHB18:
	bl _ZN5idStr8FreeDataEv
.LEHE18:
.LBE993:
.LBE992:
.LBE991:
.LBE1059:
	.loc 3 146 0
	lwz 0,132(1)
	mr 3,28
	lwz 19,76(1)
	mtlr 0
	lwz 20,80(1)
	lwz 21,84(1)
	lwz 22,88(1)
	lwz 23,92(1)
	lwz 24,96(1)
	lwz 25,100(1)
	lwz 26,104(1)
.LVL520:
	lwz 27,108(1)
.LVL521:
	lwz 28,112(1)
.LVL522:
	lwz 29,116(1)
	lwz 30,120(1)
.LVL523:
	lwz 31,124(1)
	addi 1,1,128
	.cfi_remember_state
.LCFI173:
	.cfi_def_cfa_offset 0
	.cfi_restore 31
	.cfi_restore 30
	.cfi_restore 29
	.cfi_restore 28
	.cfi_restore 27
	.cfi_restore 26
	.cfi_restore 25
	.cfi_restore 24
	.cfi_restore 23
	.cfi_restore 22
	.cfi_restore 21
	.cfi_restore 20
	.cfi_restore 19
	blr
.LVL524:
.L326:
.LCFI174:
	.cfi_restore_state
.LBB1060:
	.loc 3 119 0
	lbz 5,1(30)
	cmpwi 7,5,116
	beq- 7,.L303
	cmplwi 7,5,116
	bgt- 7,.L305
	cmpwi 7,5,92
	beq- 7,.L301
	cmpwi 7,5,110
	beq- 7,.L327
.L300:
	.loc 3 133 0
	lwz 3,common@l(23)
	mr 4,22
	lwz 9,0(3)
	lwz 0,96(9)
	mtctr 0
.LEHB19:
	crxor 6,6,6
	bctrl
	.loc 3 136 0
	addi 30,30,2
.LVL525:
	.loc 3 137 0
	b .L316
.L261:
	.loc 3 54 0
	addi 3,1,8
	mr 4,24
	bl _ZN5idStraSEPKc
.LBB994:
.LBB995:
.LBB996:
	.loc 4 751 0
	lwz 9,8(1)
.LBB997:
.LBB998:
	.loc 4 350 0
	lwz 0,16(1)
.LBE998:
.LBE997:
	.loc 4 751 0
	addi 4,9,2
.LBE996:
.LBE995:
.LBE994:
	.loc 3 55 0
	lbz 31,0(30)
.LVL526:
.LBB1009:
.LBB1006:
.LBB1003:
.LBB1001:
.LBB999:
	.loc 4 350 0
	cmpw 7,4,0
	bgt- 7,.L328
.LVL527:
.L263:
.LBE999:
.LBE1001:
	.loc 4 752 0
	lwz 11,12(1)
.LBE1003:
.LBE1006:
.LBE1009:
	.loc 3 55 0
	addi 30,30,1
.LVL528:
.LBB1010:
.LBB1011:
.LBB1012:
	.loc 4 754 0
	li 29,0
.LBE1012:
.LBE1011:
.LBE1010:
.LBB1025:
.LBB1007:
.LBB1004:
	.loc 4 752 0
	stbx 31,11,9
	.loc 4 754 0
	li 11,0
	.loc 4 753 0
	lwz 9,8(1)
	addi 0,9,1
	.loc 4 754 0
	lwz 9,12(1)
	.loc 4 753 0
	stw 0,8(1)
	.loc 4 754 0
	stbx 11,9,0
	b .L264
.LVL529:
.L265:
.LBE1004:
.LBE1007:
.LBE1025:
.LBB1026:
.LBB1022:
.LBB1019:
	.loc 4 751 0 discriminator 8
	lwz 11,8(1)
.LBB1013:
.LBB1014:
	.loc 4 350 0 discriminator 8
	lwz 0,16(1)
.LBE1014:
.LBE1013:
	.loc 4 751 0 discriminator 8
	addi 4,11,2
.LVL530:
.LBB1017:
.LBB1015:
	.loc 4 350 0 discriminator 8
	cmpw 7,4,0
	bgt- 7,.L329
.LVL531:
.L268:
.LBE1015:
.LBE1017:
	.loc 4 752 0
	lwz 9,12(1)
.LBE1019:
.LBE1022:
.LBE1026:
	.loc 3 58 0
	addi 30,30,1
.LVL532:
.LBB1027:
.LBB1023:
.LBB1020:
	.loc 4 752 0
	stbx 31,9,11
	.loc 4 753 0
	lwz 9,8(1)
	addi 0,9,1
	.loc 4 754 0
	lwz 9,12(1)
	.loc 4 753 0
	stw 0,8(1)
	.loc 4 754 0
	stbx 29,9,0
.LVL533:
.L264:
.LBE1020:
.LBE1023:
.LBE1027:
	.loc 3 56 0 discriminator 1
	lbz 31,0(30)
	addi 0,31,-48
	rlwinm 0,0,0,0xff
	cmplwi 7,0,9
	ble- 7,.L265
	.loc 3 56 0 is_stmt 0 discriminator 3
	cmpwi 7,31,46
	beq- 7,.L265
	.loc 3 56 0 discriminator 4
	cmpwi 7,31,45
	beq- 7,.L265
	.loc 3 56 0 discriminator 5
	cmpwi 7,31,43
	beq- 7,.L265
	.loc 3 56 0 discriminator 6
	cmpwi 7,31,35
	beq- 7,.L265
.LVL534:
.LBB1028:
.LBB1029:
.LBB1030:
	.loc 4 751 0 is_stmt 1
	lwz 9,8(1)
.LBB1031:
.LBB1032:
	.loc 4 350 0
	lwz 0,16(1)
.LBE1032:
.LBE1031:
	.loc 4 751 0
	addi 4,9,2
.LVL535:
.LBB1035:
.LBB1033:
	.loc 4 350 0
	cmpw 7,4,0
	bgt- 7,.L330
.LVL536:
.L269:
.LBE1033:
.LBE1035:
	.loc 4 752 0
	lwz 11,12(1)
	stbx 31,11,9
	.loc 4 754 0
	li 11,0
	.loc 4 753 0
	lwz 9,8(1)
	addi 0,9,1
	.loc 4 754 0
	lwz 9,12(1)
	.loc 4 753 0
	stw 0,8(1)
	.loc 4 754 0
	stbx 11,9,0
.LBE1030:
.LBE1029:
.LBE1028:
	.loc 3 61 0
	lbz 9,0(30)
	addi 0,9,-37
	rlwinm 0,0,0,0xff
	cmplwi 7,0,83
	ble- 7,.L331
.L270:
	.loc 3 112 0
	lwz 3,common@l(23)
	mr 4,21
	lwz 5,12(1)
	lwz 9,0(3)
	lwz 0,96(9)
	mtctr 0
	crxor 6,6,6
	bctrl
	.loc 3 140 0
	addi 30,30,1
.LVL537:
	b .L332
.LVL538:
.L329:
.LBB1039:
.LBB1024:
.LBB1021:
.LBB1018:
.LBB1016:
	.loc 4 351 0
	addi 3,1,8
	li 5,1
	bl _ZN5idStr10ReAllocateEib
.LVL539:
	lwz 11,8(1)
	b .L268
.LVL540:
.L331:
.LBE1016:
.LBE1018:
.LBE1021:
.LBE1024:
.LBE1039:
	.loc 3 61 0
	lis 9,.L280@ha
	slwi 0,0,2
	la 9,.L280@l(9)
	lwzx 0,9,0
	add 9,0,9
	mtctr 9
	bctr
	.section	.rodata
	.align 2
	.align 2
.L280:
	.long .L271-.L280
	.long .L270-.L280
	.long .L270-.L280
	.long .L270-.L280
	.long .L270-.L280
	.long .L270-.L280
	.long .L270-.L280
	.long .L270-.L280
	.long .L270-.L280
	.long .L270-.L280
	.long .L270-.L280
	.long .L270-.L280
	.long .L270-.L280
	.long .L270-.L280
	.long .L270-.L280
	.long .L270-.L280
	.long .L270-.L280
	.long .L270-.L280
	.long .L270-.L280
	.long .L270-.L280
	.long .L270-.L280
	.long .L270-.L280
	.long .L270-.L280
	.long .L270-.L280
	.long .L270-.L280
	.long .L270-.L280
	.long .L270-.L280
	.long .L270-.L280
	.long .L270-.L280
	.long .L270-.L280
	.long .L270-.L280
	.long .L270-.L280
	.long .L272-.L280
	.long .L270-.L280
	.long .L272-.L280
	.long .L270-.L280
	.long .L270-.L280
	.long .L270-.L280
	.long .L270-.L280
	.long .L270-.L280
	.long .L270-.L280
	.long .L270-.L280
	.long .L270-.L280
	.long .L270-.L280
	.long .L270-.L280
	.long .L270-.L280
	.long .L270-.L280
	.long .L270-.L280
	.long .L270-.L280
	.long .L270-.L280
	.long .L270-.L280
	.long .L277-.L280
	.long .L270-.L280
	.long .L270-.L280
	.long .L270-.L280
	.long .L270-.L280
	.long .L270-.L280
	.long .L270-.L280
	.long .L270-.L280
	.long .L270-.L280
	.long .L270-.L280
	.long .L270-.L280
	.long .L274-.L280
	.long .L277-.L280
	.long .L272-.L280
	.long .L272-.L280
	.long .L272-.L280
	.long .L270-.L280
	.long .L277-.L280
	.long .L270-.L280
	.long .L270-.L280
	.long .L270-.L280
	.long .L270-.L280
	.long .L270-.L280
	.long .L277-.L280
	.long .L270-.L280
	.long .L270-.L280
	.long .L270-.L280
	.long .L277-.L280
	.long .L270-.L280
	.long .L277-.L280
	.long .L270-.L280
	.long .L270-.L280
	.long .L277-.L280
	.section	".text"
.L277:
	.loc 3 105 0
	lbz 11,0(26)
	cmplwi 7,11,8
	bge- 7,.L297
	.loc 3 105 0 is_stmt 0 discriminator 2
	slwi 0,11,2
	lwz 9,8(26)
	addi 11,11,1
	stb 11,0(26)
	add 9,9,0
.L298:
.LVL541:
	.loc 3 106 0 is_stmt 1 discriminator 1
	lwz 4,12(1)
	add 3,27,28
	lwz 5,0(9)
	.loc 3 140 0 discriminator 1
	addi 30,30,1
.LVL542:
	.loc 3 106 0 discriminator 1
	crxor 6,6,6
	bl sprintf
.LVL543:
	add 28,28,3
.LVL544:
	b .L332
.LVL545:
.L272:
	.loc 3 67 0
	lbz 9,1(26)
	cmplwi 7,9,8
	bge- 7,.L281
	.loc 3 67 0 is_stmt 0 discriminator 2
	lwz 11,8(26)
	slwi 0,9,3
	addi 9,9,1
	addi 11,11,32
	stb 9,1(26)
	add 11,11,0
.L282:
	.loc 3 68 0 is_stmt 1 discriminator 1
	lwz 0,8(1)
	.loc 3 67 0 discriminator 1
	lfd 1,0(11)
.LVL546:
	.loc 3 68 0 discriminator 1
	cmpwi 7,0,2
	bgt- 7,.L283
	.loc 3 70 0
	addi 3,1,40
	mr 4,19
	creqv 6,6,6
	bl _Z7sprintfR5idStrPKcz
.LVL547:
	.loc 3 71 0
	addi 3,1,40
	li 4,48
	bl _ZN5idStr13StripTrailingEc
	.loc 3 72 0
	addi 3,1,40
	li 4,46
	bl _ZN5idStr13StripTrailingEc
	.loc 3 73 0
	lwz 5,44(1)
	add 3,27,28
	mr 4,20
	.loc 3 140 0
	addi 30,30,1
.LVL548:
	.loc 3 73 0
	crxor 6,6,6
	bl sprintf
	add 28,28,3
.LVL549:
	b .L332
.LVL550:
.L271:
	.loc 3 109 0
	lwz 4,12(1)
	add 3,27,28
	.loc 3 140 0
	addi 30,30,1
.LVL551:
	.loc 3 109 0
	crxor 6,6,6
	bl sprintf
	add 28,28,3
.LVL552:
	b .L332
.LVL553:
.L274:
	.loc 3 101 0
	lbz 11,0(26)
	cmplwi 7,11,8
	bge- 7,.L295
	.loc 3 101 0 is_stmt 0 discriminator 2
	slwi 0,11,2
	lwz 9,8(26)
	addi 11,11,1
	stb 11,0(26)
	add 9,9,0
.L296:
.LVL554:
	.loc 3 102 0 is_stmt 1 discriminator 1
	lwz 4,12(1)
	add 3,27,28
	lbz 5,3(9)
	.loc 3 140 0 discriminator 1
	addi 30,30,1
.LVL555:
	.loc 3 102 0 discriminator 1
	crxor 6,6,6
	bl sprintf
.LVL556:
	add 28,28,3
.LVL557:
	b .L332
.LVL558:
.L330:
.LBB1040:
.LBB1038:
.LBB1037:
.LBB1036:
.LBB1034:
	.loc 4 351 0
	addi 3,1,8
	li 5,1
	bl _ZN5idStr10ReAllocateEib
.LVL559:
	lwz 9,8(1)
	b .L269
.LVL560:
.L328:
.LBE1034:
.LBE1036:
.LBE1037:
.LBE1038:
.LBE1040:
.LBB1041:
.LBB1008:
.LBB1005:
.LBB1002:
.LBB1000:
	addi 3,1,8
	li 5,1
	bl _ZN5idStr10ReAllocateEib
.LEHE19:
.LVL561:
	lwz 9,8(1)
	b .L263
.LVL562:
.L305:
.LBE1000:
.LBE1002:
.LBE1005:
.LBE1008:
.LBE1041:
	.loc 3 119 0
	cmpwi 7,5,118
	bne+ 7,.L300
	.loc 3 124 0
	li 0,2816
	.loc 3 136 0
	addi 30,30,2
.LVL563:
	.loc 3 124 0
	sthx 0,27,28
	addi 28,28,1
.LVL564:
	b .L316
.LVL565:
.L297:
	.loc 3 105 0 discriminator 1
	lwz 9,4(26)
	addi 0,9,4
	stw 0,4(26)
	b .L298
.LVL566:
.L303:
	.loc 3 121 0
	li 0,2304
	.loc 3 136 0
	addi 30,30,2
.LVL567:
	.loc 3 121 0
	sthx 0,27,28
	addi 28,28,1
.LVL568:
	b .L316
.LVL569:
.L327:
	.loc 3 127 0
	li 0,2560
	.loc 3 136 0
	addi 30,30,2
.LVL570:
	.loc 3 127 0
	sthx 0,27,28
	addi 28,28,1
.LVL571:
	b .L316
.LVL572:
.L301:
	.loc 3 130 0
	li 0,23552
	.loc 3 136 0
	addi 30,30,2
.LVL573:
	.loc 3 130 0
	sthx 0,27,28
	addi 28,28,1
.LVL574:
	b .L316
.LVL575:
.L295:
	.loc 3 101 0 discriminator 1
	lwz 9,4(26)
	addi 0,9,4
	stw 0,4(26)
	b .L296
.LVL576:
.L283:
	.loc 3 76 0
	lwz 4,12(1)
	add 3,27,28
	.loc 3 140 0
	addi 30,30,1
.LVL577:
	.loc 3 76 0
	creqv 6,6,6
	bl sprintf
.LVL578:
	add 28,28,3
.LVL579:
	b .L332
.LVL580:
.L281:
	.loc 3 67 0 discriminator 1
	lwz 11,4(26)
	addi 11,11,7
	rlwinm 11,11,0,0,28
	addi 0,11,8
	stw 0,4(26)
	b .L282
.LVL581:
.L314:
	mr 31,3
.LVL582:
.LBB1042:
.LBB1043:
.LBB1044:
	.loc 4 501 0
	addi 3,1,8
	bl _ZN5idStr8FreeDataEv
.LVL583:
.L312:
.LBE1044:
.LBE1043:
.LBE1042:
.LBB1045:
.LBB1046:
.LBB1047:
	addi 3,1,40
	bl _ZN5idStr8FreeDataEv
	mr 3,31
.LEHB20:
	bl _Unwind_Resume
.LEHE20:
.LVL584:
.L315:
	mr 31,3
	b .L312
.LBE1047:
.LBE1046:
.LBE1045:
.LBE1060:
	.cfi_endproc
.LFE2538:
	.section	.gcc_except_table
.LLSDA2538:
	.byte	0xff
	.byte	0xff
	.byte	0x1
	.uleb128 .LLSDACSE2538-.LLSDACSB2538
.LLSDACSB2538:
	.uleb128 .LEHB17-.LFB2538
	.uleb128 .LEHE17-.LEHB17
	.uleb128 .L315-.LFB2538
	.uleb128 0
	.uleb128 .LEHB18-.LFB2538
	.uleb128 .LEHE18-.LEHB18
	.uleb128 0
	.uleb128 0
	.uleb128 .LEHB19-.LFB2538
	.uleb128 .LEHE19-.LEHB19
	.uleb128 .L314-.LFB2538
	.uleb128 0
	.uleb128 .LEHB20-.LFB2538
	.uleb128 .LEHE20-.LEHB20
	.uleb128 0
	.uleb128 0
.LLSDACSE2538:
	.section	".text"
	.size	_Z19FS_WriteFloatStringPcPKcP13__va_list_tag, .-_Z19FS_WriteFloatStringPcPKcP13__va_list_tag
	.align 2
	.globl _ZN6idFile16WriteFloatStringEPKcz
	.type	_ZN6idFile16WriteFloatStringEPKcz, @function
_ZN6idFile16WriteFloatStringEPKcz:
.LFB2552:
	.loc 3 294 0
	.cfi_startproc
.LVL585:
	mflr 0
	stwu 1,-4216(1)
.LCFI175:
	.cfi_def_cfa_offset 4216
	.cfi_register 65, 0
	stw 31,4212(1)
	mr 31,3
	.cfi_offset 31, -4
	stw 0,4220(1)
	stw 5,4120(1)
	stw 6,4124(1)
	stw 7,4128(1)
	stw 8,4132(1)
	stw 9,4136(1)
	stw 10,4140(1)
	bne- 1,.L334
	.cfi_offset 65, 4
	.loc 3 294 0
	stfd 1,4144(1)
	stfd 2,4152(1)
	stfd 3,4160(1)
	stfd 4,4168(1)
	stfd 5,4176(1)
	stfd 6,4184(1)
	stfd 7,4192(1)
	stfd 8,4200(1)
.L334:
.LBB1061:
	.loc 3 299 0
	li 0,2
	.loc 3 300 0
	addi 5,1,8
	.loc 3 299 0
	stb 0,8(1)
	li 0,0
	stb 0,9(1)
	addi 0,1,4224
	stw 0,12(1)
	.loc 3 300 0
	addi 3,1,20
.LVL586:
	.loc 3 299 0
	addi 0,1,4112
	stw 0,16(1)
	.loc 3 300 0
	bl _Z19FS_WriteFloatStringPcPKcP13__va_list_tag
.LVL587:
	.loc 3 303 0
	lwz 9,0(31)
	.loc 3 300 0
	mr 5,3
.LVL588:
	.loc 3 303 0
	addi 4,1,20
	mr 3,31
.LVL589:
	lwz 0,24(9)
	mtctr 0
	bctrl
.LVL590:
.LBE1061:
	.loc 3 304 0
	lwz 0,4220(1)
	lwz 31,4212(1)
.LVL591:
	mtlr 0
	addi 1,1,4216
.LCFI176:
	.cfi_def_cfa_offset 0
	.cfi_restore 31
	blr
	.cfi_endproc
.LFE2552:
	.size	_ZN6idFile16WriteFloatStringEPKcz, .-_ZN6idFile16WriteFloatStringEPKcz
	.align 2
	.globl _ZN13idFile_MemoryC2Ev
	.type	_ZN13idFile_MemoryC2Ev, @function
_ZN13idFile_MemoryC2Ev:
.LFB2585:
	.loc 3 623 0
	.cfi_startproc
	.cfi_personality 0,__gxx_personality_v0
	.cfi_lsda 0,.LLSDA2585
.LVL592:
	mflr 0
	stwu 1,-24(1)
.LCFI177:
	.cfi_def_cfa_offset 24
	.cfi_register 65, 0
.LBB1062:
	lis 11,_ZTV13idFile_Memory+8@ha
.LBB1063:
.LBB1064:
.LBB1065:
	.loc 4 358 0
	addi 9,3,16
.LBE1065:
.LBE1064:
.LBE1063:
	.loc 3 623 0
	la 11,_ZTV13idFile_Memory+8@l(11)
.LBE1062:
	stw 30,16(1)
	stw 0,28(1)
.LBB1078:
.LBB1070:
.LBB1068:
.LBB1066:
	.loc 4 356 0
	li 0,0
	.cfi_offset 65, 4
	.cfi_offset 30, -8
.LBE1066:
.LBE1068:
.LBE1070:
.LBE1078:
	.loc 3 623 0
	stw 31,20(1)
	mr 31,3
	.cfi_offset 31, -4
.LVL593:
	stw 29,12(1)
.LBB1079:
	.loc 3 625 0
	li 4,64
	.loc 3 623 0
	stw 11,0(3)
.LVL594:
.LBB1071:
.LBB1069:
.LBB1067:
	.loc 4 357 0
	li 11,20
	.loc 4 356 0
	stw 0,4(3)
	addi 30,31,4
	.loc 4 357 0
	stw 11,12(3)
	.loc 4 358 0
	stw 9,8(3)
	.loc 4 359 0
	stb 0,16(3)
.LBE1067:
.LBE1069:
.LBE1071:
	.loc 3 625 0
	lis 3,.LC25@ha
.LVL595:
	la 3,.LC25@l(3)
.LEHB21:
	.cfi_offset 29, -12
	crxor 6,6,6
	bl _Z15Sys_DebugPrintfPKcz
.LVL596:
	.loc 3 628 0
	lis 4,.LC26@ha
	mr 3,30
	la 4,.LC26@l(4)
	bl _ZN5idStraSEPKc
.LEHE21:
	.loc 3 632 0
	li 9,16384
	.loc 3 629 0
	li 0,0
	.loc 3 632 0
	stw 9,52(31)
	.loc 3 634 0
	li 9,2
	.loc 3 629 0
	stw 0,40(31)
	.loc 3 630 0
	stw 0,44(31)
	.loc 3 631 0
	stw 0,48(31)
	.loc 3 634 0
	stw 9,36(31)
	.loc 3 635 0
	stw 0,56(31)
	.loc 3 636 0
	stw 0,60(31)
.LBE1079:
	.loc 3 637 0
	lwz 0,28(1)
	lwz 29,12(1)
	mtlr 0
	lwz 30,16(1)
	lwz 31,20(1)
.LVL597:
	addi 1,1,24
	.cfi_remember_state
.LCFI178:
	.cfi_def_cfa_offset 0
	.cfi_restore 31
	.cfi_restore 30
	.cfi_restore 29
	blr
.LVL598:
.L339:
.LCFI179:
	.cfi_restore_state
	mr 29,3
.LVL599:
.LBB1080:
.LBB1072:
.LBB1073:
.LBB1074:
	.loc 4 501 0
	mr 3,30
	bl _ZN5idStr8FreeDataEv
.LVL600:
.LBE1074:
.LBE1073:
.LBE1072:
.LBB1075:
.LBB1076:
.LBB1077:
	.loc 2 60 0
	lis 9,_ZTV6idFile+8@ha
	la 0,_ZTV6idFile+8@l(9)
	mr 3,29
	stw 0,0(31)
.LEHB22:
	bl _Unwind_Resume
.LEHE22:
.LBE1077:
.LBE1076:
.LBE1075:
.LBE1080:
	.cfi_endproc
.LFE2585:
	.section	.gcc_except_table
.LLSDA2585:
	.byte	0xff
	.byte	0xff
	.byte	0x1
	.uleb128 .LLSDACSE2585-.LLSDACSB2585
.LLSDACSB2585:
	.uleb128 .LEHB21-.LFB2585
	.uleb128 .LEHE21-.LEHB21
	.uleb128 .L339-.LFB2585
	.uleb128 0
	.uleb128 .LEHB22-.LFB2585
	.uleb128 .LEHE22-.LEHB22
	.uleb128 0
	.uleb128 0
.LLSDACSE2585:
	.section	".text"
	.size	_ZN13idFile_MemoryC2Ev, .-_ZN13idFile_MemoryC2Ev
	.align 2
	.globl _ZN13idFile_MemoryC2EPKc
	.type	_ZN13idFile_MemoryC2EPKc, @function
_ZN13idFile_MemoryC2EPKc:
.LFB2588:
	.loc 3 644 0
	.cfi_startproc
	.cfi_personality 0,__gxx_personality_v0
	.cfi_lsda 0,.LLSDA2588
.LVL601:
	mflr 0
	stwu 1,-24(1)
.LCFI180:
	.cfi_def_cfa_offset 24
	.cfi_register 65, 0
.LBB1081:
	lis 11,_ZTV13idFile_Memory+8@ha
.LBB1082:
.LBB1083:
.LBB1084:
	.loc 4 358 0
	addi 9,3,16
.LBE1084:
.LBE1083:
.LBE1082:
	.loc 3 644 0
	la 11,_ZTV13idFile_Memory+8@l(11)
.LBE1081:
	stw 29,12(1)
	stw 0,28(1)
.LBB1100:
.LBB1091:
.LBB1088:
.LBB1085:
	.loc 4 356 0
	li 0,0
	.cfi_offset 65, 4
	.cfi_offset 29, -12
.LBE1085:
.LBE1088:
.LBE1091:
.LBE1100:
	.loc 3 644 0
	stw 30,16(1)
	mr 29,4
	stw 31,20(1)
	.loc 3 644 0
	mr 31,3
	.cfi_offset 31, -4
	.cfi_offset 30, -8
.LVL602:
.LBB1101:
	stw 11,0(3)
.LVL603:
.LBB1092:
.LBB1089:
.LBB1086:
	.loc 4 357 0
	li 11,20
	.loc 4 356 0
	stw 0,4(3)
.LBE1086:
.LBE1089:
.LBE1092:
	.loc 3 646 0
	li 4,64
.LVL604:
.LBB1093:
.LBB1090:
.LBB1087:
	.loc 4 357 0
	stw 11,12(3)
	addi 30,31,4
	.loc 4 358 0
	stw 9,8(3)
	.loc 4 359 0
	stb 0,16(3)
.LBE1087:
.LBE1090:
.LBE1093:
	.loc 3 646 0
	lis 3,.LC27@ha
.LVL605:
	la 3,.LC27@l(3)
.LEHB23:
	crxor 6,6,6
	bl _Z15Sys_DebugPrintfPKcz
.LVL606:
	.loc 3 649 0
	mr 3,30
	mr 4,29
	bl _ZN5idStraSEPKc
.LEHE23:
	.loc 3 653 0
	li 9,16384
	.loc 3 650 0
	li 0,0
	.loc 3 653 0
	stw 9,52(31)
	.loc 3 655 0
	li 9,2
	.loc 3 650 0
	stw 0,40(31)
	.loc 3 651 0
	stw 0,44(31)
	.loc 3 652 0
	stw 0,48(31)
	.loc 3 655 0
	stw 9,36(31)
	.loc 3 656 0
	stw 0,56(31)
	.loc 3 657 0
	stw 0,60(31)
.LBE1101:
	.loc 3 658 0
	lwz 0,28(1)
	lwz 29,12(1)
.LVL607:
	mtlr 0
	lwz 30,16(1)
	lwz 31,20(1)
.LVL608:
	addi 1,1,24
	.cfi_remember_state
.LCFI181:
	.cfi_def_cfa_offset 0
	.cfi_restore 31
	.cfi_restore 30
	.cfi_restore 29
	blr
.LVL609:
.L344:
.LCFI182:
	.cfi_restore_state
	mr 29,3
.LVL610:
.LBB1102:
.LBB1094:
.LBB1095:
.LBB1096:
	.loc 4 501 0
	mr 3,30
	bl _ZN5idStr8FreeDataEv
.LVL611:
.LBE1096:
.LBE1095:
.LBE1094:
.LBB1097:
.LBB1098:
.LBB1099:
	.loc 2 60 0
	lis 9,_ZTV6idFile+8@ha
	la 0,_ZTV6idFile+8@l(9)
	mr 3,29
	stw 0,0(31)
.LEHB24:
	bl _Unwind_Resume
.LEHE24:
.LBE1099:
.LBE1098:
.LBE1097:
.LBE1102:
	.cfi_endproc
.LFE2588:
	.section	.gcc_except_table
.LLSDA2588:
	.byte	0xff
	.byte	0xff
	.byte	0x1
	.uleb128 .LLSDACSE2588-.LLSDACSB2588
.LLSDACSB2588:
	.uleb128 .LEHB23-.LFB2588
	.uleb128 .LEHE23-.LEHB23
	.uleb128 .L344-.LFB2588
	.uleb128 0
	.uleb128 .LEHB24-.LFB2588
	.uleb128 .LEHE24-.LEHB24
	.uleb128 0
	.uleb128 0
.LLSDACSE2588:
	.section	".text"
	.size	_ZN13idFile_MemoryC2EPKc, .-_ZN13idFile_MemoryC2EPKc
	.align 2
	.globl _ZN13idFile_MemoryC2EPKcPci
	.type	_ZN13idFile_MemoryC2EPKcPci, @function
_ZN13idFile_MemoryC2EPKcPci:
.LFB2591:
	.loc 3 665 0
	.cfi_startproc
	.cfi_personality 0,__gxx_personality_v0
	.cfi_lsda 0,.LLSDA2591
.LVL612:
	mflr 0
	stwu 1,-32(1)
.LCFI183:
	.cfi_def_cfa_offset 32
	.cfi_register 65, 0
.LBB1103:
	lis 11,_ZTV13idFile_Memory+8@ha
.LBB1104:
.LBB1105:
.LBB1106:
	.loc 4 358 0
	addi 9,3,16
.LBE1106:
.LBE1105:
.LBE1104:
	.loc 3 665 0
	la 11,_ZTV13idFile_Memory+8@l(11)
.LBE1103:
	stw 27,12(1)
	stw 0,36(1)
.LBB1122:
.LBB1113:
.LBB1110:
.LBB1107:
	.loc 4 356 0
	li 0,0
	.cfi_offset 65, 4
	.cfi_offset 27, -20
.LBE1107:
.LBE1110:
.LBE1113:
.LBE1122:
	.loc 3 665 0
	stw 28,16(1)
	mr 27,4
	stw 29,20(1)
.LBB1123:
	.loc 3 667 0
	li 4,64
.LVL613:
.LBE1123:
	.loc 3 665 0
	stw 30,24(1)
	mr 29,5
	.cfi_offset 30, -8
	.cfi_offset 29, -12
	.cfi_offset 28, -16
	stw 31,28(1)
	.loc 3 665 0
	mr 31,3
	.cfi_offset 31, -4
.LVL614:
.LBB1124:
	stw 11,0(3)
.LVL615:
.LBB1114:
.LBB1111:
.LBB1108:
	.loc 4 357 0
	li 11,20
	.loc 4 356 0
	stw 0,4(3)
.LBE1108:
.LBE1111:
.LBE1114:
.LBE1124:
	.loc 3 665 0
	mr 28,6
.LBB1125:
.LBB1115:
.LBB1112:
.LBB1109:
	.loc 4 357 0
	stw 11,12(3)
	addi 30,31,4
	.loc 4 358 0
	stw 9,8(3)
	.loc 4 359 0
	stb 0,16(3)
.LBE1109:
.LBE1112:
.LBE1115:
	.loc 3 667 0
	lis 3,.LC28@ha
.LVL616:
	la 3,.LC28@l(3)
.LEHB25:
	crxor 6,6,6
	bl _Z15Sys_DebugPrintfPKcz
.LVL617:
	.loc 3 670 0
	mr 3,30
	mr 4,27
	bl _ZN5idStraSEPKc
.LEHE25:
	.loc 3 672 0
	li 0,0
	.loc 3 671 0
	stw 28,40(31)
	.loc 3 672 0
	stw 0,44(31)
	.loc 3 674 0
	li 0,16384
	stw 0,52(31)
	.loc 3 676 0
	li 0,2
	.loc 3 673 0
	stw 28,48(31)
	.loc 3 676 0
	stw 0,36(31)
	.loc 3 677 0
	stw 29,56(31)
	.loc 3 678 0
	stw 29,60(31)
.LBE1125:
	.loc 3 679 0
	lwz 0,36(1)
	lwz 27,12(1)
.LVL618:
	mtlr 0
	lwz 28,16(1)
.LVL619:
	lwz 29,20(1)
.LVL620:
	lwz 30,24(1)
	lwz 31,28(1)
.LVL621:
	addi 1,1,32
	.cfi_remember_state
.LCFI184:
	.cfi_def_cfa_offset 0
	.cfi_restore 31
	.cfi_restore 30
	.cfi_restore 29
	.cfi_restore 28
	.cfi_restore 27
	blr
.LVL622:
.L349:
.LCFI185:
	.cfi_restore_state
	mr 29,3
.LVL623:
.LBB1126:
.LBB1116:
.LBB1117:
.LBB1118:
	.loc 4 501 0
	mr 3,30
	bl _ZN5idStr8FreeDataEv
.LVL624:
.LBE1118:
.LBE1117:
.LBE1116:
.LBB1119:
.LBB1120:
.LBB1121:
	.loc 2 60 0
	lis 9,_ZTV6idFile+8@ha
	la 0,_ZTV6idFile+8@l(9)
	mr 3,29
	stw 0,0(31)
.LEHB26:
	bl _Unwind_Resume
.LEHE26:
.LBE1121:
.LBE1120:
.LBE1119:
.LBE1126:
	.cfi_endproc
.LFE2591:
	.section	.gcc_except_table
.LLSDA2591:
	.byte	0xff
	.byte	0xff
	.byte	0x1
	.uleb128 .LLSDACSE2591-.LLSDACSB2591
.LLSDACSB2591:
	.uleb128 .LEHB25-.LFB2591
	.uleb128 .LEHE25-.LEHB25
	.uleb128 .L349-.LFB2591
	.uleb128 0
	.uleb128 .LEHB26-.LFB2591
	.uleb128 .LEHE26-.LEHB26
	.uleb128 0
	.uleb128 0
.LLSDACSE2591:
	.section	".text"
	.size	_ZN13idFile_MemoryC2EPKcPci, .-_ZN13idFile_MemoryC2EPKcPci
	.align 2
	.globl _ZN13idFile_MemoryC2EPKcS1_i
	.type	_ZN13idFile_MemoryC2EPKcS1_i, @function
_ZN13idFile_MemoryC2EPKcS1_i:
.LFB2594:
	.loc 3 686 0
	.cfi_startproc
	.cfi_personality 0,__gxx_personality_v0
	.cfi_lsda 0,.LLSDA2594
.LVL625:
	mflr 0
	stwu 1,-32(1)
.LCFI186:
	.cfi_def_cfa_offset 32
	.cfi_register 65, 0
.LBB1127:
	lis 11,_ZTV13idFile_Memory+8@ha
.LBB1128:
.LBB1129:
.LBB1130:
	.loc 4 358 0
	addi 9,3,16
.LBE1130:
.LBE1129:
.LBE1128:
	.loc 3 686 0
	la 11,_ZTV13idFile_Memory+8@l(11)
.LBE1127:
	stw 27,12(1)
	stw 0,36(1)
.LBB1146:
.LBB1137:
.LBB1134:
.LBB1131:
	.loc 4 356 0
	li 0,0
	.cfi_offset 65, 4
	.cfi_offset 27, -20
.LBE1131:
.LBE1134:
.LBE1137:
.LBE1146:
	.loc 3 686 0
	stw 28,16(1)
	mr 27,4
	stw 29,20(1)
.LBB1147:
	.loc 3 688 0
	li 4,64
.LVL626:
.LBE1147:
	.loc 3 686 0
	stw 30,24(1)
	mr 29,5
	.cfi_offset 30, -8
	.cfi_offset 29, -12
	.cfi_offset 28, -16
	stw 31,28(1)
	.loc 3 686 0
	mr 31,3
	.cfi_offset 31, -4
.LVL627:
.LBB1148:
	stw 11,0(3)
.LVL628:
.LBB1138:
.LBB1135:
.LBB1132:
	.loc 4 357 0
	li 11,20
	.loc 4 356 0
	stw 0,4(3)
.LBE1132:
.LBE1135:
.LBE1138:
.LBE1148:
	.loc 3 686 0
	mr 28,6
.LBB1149:
.LBB1139:
.LBB1136:
.LBB1133:
	.loc 4 357 0
	stw 11,12(3)
	addi 30,31,4
	.loc 4 358 0
	stw 9,8(3)
	.loc 4 359 0
	stb 0,16(3)
.LBE1133:
.LBE1136:
.LBE1139:
	.loc 3 688 0
	lis 3,.LC29@ha
.LVL629:
	la 3,.LC29@l(3)
.LEHB27:
	crxor 6,6,6
	bl _Z15Sys_DebugPrintfPKcz
.LVL630:
	.loc 3 691 0
	mr 3,30
	mr 4,27
	bl _ZN5idStraSEPKc
.LEHE27:
	.loc 3 692 0
	li 0,0
	.loc 3 693 0
	stw 28,44(31)
	.loc 3 692 0
	stw 0,40(31)
	.loc 3 694 0
	stw 0,48(31)
	.loc 3 695 0
	li 0,16384
	stw 0,52(31)
	.loc 3 697 0
	li 0,1
	stw 0,36(31)
	.loc 3 698 0
	stw 29,56(31)
	.loc 3 699 0
	stw 29,60(31)
.LBE1149:
	.loc 3 700 0
	lwz 0,36(1)
	lwz 27,12(1)
.LVL631:
	mtlr 0
	lwz 28,16(1)
.LVL632:
	lwz 29,20(1)
.LVL633:
	lwz 30,24(1)
	lwz 31,28(1)
.LVL634:
	addi 1,1,32
	.cfi_remember_state
.LCFI187:
	.cfi_def_cfa_offset 0
	.cfi_restore 31
	.cfi_restore 30
	.cfi_restore 29
	.cfi_restore 28
	.cfi_restore 27
	blr
.LVL635:
.L354:
.LCFI188:
	.cfi_restore_state
	mr 29,3
.LVL636:
.LBB1150:
.LBB1140:
.LBB1141:
.LBB1142:
	.loc 4 501 0
	mr 3,30
	bl _ZN5idStr8FreeDataEv
.LVL637:
.LBE1142:
.LBE1141:
.LBE1140:
.LBB1143:
.LBB1144:
.LBB1145:
	.loc 2 60 0
	lis 9,_ZTV6idFile+8@ha
	la 0,_ZTV6idFile+8@l(9)
	mr 3,29
	stw 0,0(31)
.LEHB28:
	bl _Unwind_Resume
.LEHE28:
.LBE1145:
.LBE1144:
.LBE1143:
.LBE1150:
	.cfi_endproc
.LFE2594:
	.section	.gcc_except_table
.LLSDA2594:
	.byte	0xff
	.byte	0xff
	.byte	0x1
	.uleb128 .LLSDACSE2594-.LLSDACSB2594
.LLSDACSB2594:
	.uleb128 .LEHB27-.LFB2594
	.uleb128 .LEHE27-.LEHB27
	.uleb128 .L354-.LFB2594
	.uleb128 0
	.uleb128 .LEHB28-.LFB2594
	.uleb128 .LEHE28-.LEHB28
	.uleb128 0
	.uleb128 0
.LLSDACSE2594:
	.section	".text"
	.size	_ZN13idFile_MemoryC2EPKcS1_i, .-_ZN13idFile_MemoryC2EPKcS1_i
	.align 2
	.globl _ZN13idFile_Memory7SetDataEPKci
	.type	_ZN13idFile_Memory7SetDataEPKci, @function
_ZN13idFile_Memory7SetDataEPKci:
.LFB2611:
	.loc 3 888 0
	.cfi_startproc
.LVL638:
	.loc 3 889 0
	li 0,0
	.loc 3 890 0
	stw 5,44(3)
	.loc 3 889 0
	stw 0,40(3)
	.loc 3 897 0
	.loc 3 891 0
	stw 0,48(3)
	.loc 3 892 0
	li 0,16384
	stw 0,52(3)
	.loc 3 894 0
	li 0,1
	stw 0,36(3)
	.loc 3 895 0
	stw 4,56(3)
	.loc 3 896 0
	stw 4,60(3)
	.loc 3 897 0
	blr
	.cfi_endproc
.LFE2611:
	.size	_ZN13idFile_Memory7SetDataEPKci, .-_ZN13idFile_Memory7SetDataEPKci
	.align 2
	.globl _ZN13idFile_BitMsgC2ER8idBitMsg
	.type	_ZN13idFile_BitMsgC2ER8idBitMsg, @function
_ZN13idFile_BitMsgC2ER8idBitMsg:
.LFB2613:
	.loc 3 913 0
	.cfi_startproc
	.cfi_personality 0,__gxx_personality_v0
	.cfi_lsda 0,.LLSDA2613
.LVL639:
	mflr 0
	stwu 1,-24(1)
.LCFI189:
	.cfi_def_cfa_offset 24
	.cfi_register 65, 0
.LBB1151:
	lis 11,_ZTV13idFile_BitMsg+8@ha
.LBB1152:
.LBB1153:
.LBB1154:
	.loc 4 358 0
	addi 9,3,16
.LBE1154:
.LBE1153:
.LBE1152:
	.loc 3 913 0
	la 11,_ZTV13idFile_BitMsg+8@l(11)
.LBE1151:
	stw 29,12(1)
	stw 0,28(1)
.LBB1170:
.LBB1161:
.LBB1158:
.LBB1155:
	.loc 4 356 0
	li 0,0
	.cfi_offset 65, 4
	.cfi_offset 29, -12
.LBE1155:
.LBE1158:
.LBE1161:
.LBE1170:
	.loc 3 913 0
	stw 30,16(1)
	mr 29,4
	stw 31,20(1)
	.loc 3 913 0
	mr 31,3
	.cfi_offset 31, -4
	.cfi_offset 30, -8
.LVL640:
.LBB1171:
	stw 11,0(3)
.LVL641:
.LBB1162:
.LBB1159:
.LBB1156:
	.loc 4 357 0
	li 11,20
	.loc 4 356 0
	stw 0,4(3)
.LBE1156:
.LBE1159:
.LBE1162:
	.loc 3 915 0
	li 4,44
.LVL642:
.LBB1163:
.LBB1160:
.LBB1157:
	.loc 4 357 0
	stw 11,12(3)
	addi 30,31,4
	.loc 4 358 0
	stw 9,8(3)
	.loc 4 359 0
	stb 0,16(3)
.LBE1157:
.LBE1160:
.LBE1163:
	.loc 3 915 0
	lis 3,.LC30@ha
.LVL643:
	la 3,.LC30@l(3)
.LEHB29:
	crxor 6,6,6
	bl _Z15Sys_DebugPrintfPKcz
.LVL644:
	.loc 3 918 0
	lis 4,.LC26@ha
	mr 3,30
	la 4,.LC26@l(4)
	bl _ZN5idStraSEPKc
.LEHE29:
	.loc 3 919 0
	li 0,2
	.loc 3 920 0
	stw 29,40(31)
	.loc 3 919 0
	stw 0,36(31)
.LBE1171:
	.loc 3 921 0
	lwz 0,28(1)
	lwz 29,12(1)
.LVL645:
	mtlr 0
	lwz 30,16(1)
	lwz 31,20(1)
.LVL646:
	addi 1,1,24
	.cfi_remember_state
.LCFI190:
	.cfi_def_cfa_offset 0
	.cfi_restore 31
	.cfi_restore 30
	.cfi_restore 29
	blr
.LVL647:
.L360:
.LCFI191:
	.cfi_restore_state
	mr 29,3
.LVL648:
.LBB1172:
.LBB1164:
.LBB1165:
.LBB1166:
	.loc 4 501 0
	mr 3,30
	bl _ZN5idStr8FreeDataEv
.LVL649:
.LBE1166:
.LBE1165:
.LBE1164:
.LBB1167:
.LBB1168:
.LBB1169:
	.loc 2 60 0
	lis 9,_ZTV6idFile+8@ha
	la 0,_ZTV6idFile+8@l(9)
	mr 3,29
	stw 0,0(31)
.LEHB30:
	bl _Unwind_Resume
.LEHE30:
.LBE1169:
.LBE1168:
.LBE1167:
.LBE1172:
	.cfi_endproc
.LFE2613:
	.section	.gcc_except_table
.LLSDA2613:
	.byte	0xff
	.byte	0xff
	.byte	0x1
	.uleb128 .LLSDACSE2613-.LLSDACSB2613
.LLSDACSB2613:
	.uleb128 .LEHB29-.LFB2613
	.uleb128 .LEHE29-.LEHB29
	.uleb128 .L360-.LFB2613
	.uleb128 0
	.uleb128 .LEHB30-.LFB2613
	.uleb128 .LEHE30-.LEHB30
	.uleb128 0
	.uleb128 0
.LLSDACSE2613:
	.section	".text"
	.size	_ZN13idFile_BitMsgC2ER8idBitMsg, .-_ZN13idFile_BitMsgC2ER8idBitMsg
	.align 2
	.globl _ZN13idFile_BitMsgC2ERK8idBitMsg
	.type	_ZN13idFile_BitMsgC2ERK8idBitMsg, @function
_ZN13idFile_BitMsgC2ERK8idBitMsg:
.LFB2616:
	.loc 3 928 0
	.cfi_startproc
	.cfi_personality 0,__gxx_personality_v0
	.cfi_lsda 0,.LLSDA2616
.LVL650:
	mflr 0
	stwu 1,-24(1)
.LCFI192:
	.cfi_def_cfa_offset 24
	.cfi_register 65, 0
.LBB1173:
	lis 11,_ZTV13idFile_BitMsg+8@ha
.LBB1174:
.LBB1175:
.LBB1176:
	.loc 4 358 0
	addi 9,3,16
.LBE1176:
.LBE1175:
.LBE1174:
	.loc 3 928 0
	la 11,_ZTV13idFile_BitMsg+8@l(11)
.LBE1173:
	stw 29,12(1)
	stw 0,28(1)
.LBB1192:
.LBB1183:
.LBB1180:
.LBB1177:
	.loc 4 356 0
	li 0,0
	.cfi_offset 65, 4
	.cfi_offset 29, -12
.LBE1177:
.LBE1180:
.LBE1183:
.LBE1192:
	.loc 3 928 0
	stw 30,16(1)
	mr 29,4
	stw 31,20(1)
	.loc 3 928 0
	mr 31,3
	.cfi_offset 31, -4
	.cfi_offset 30, -8
.LVL651:
.LBB1193:
	stw 11,0(3)
.LVL652:
.LBB1184:
.LBB1181:
.LBB1178:
	.loc 4 357 0
	li 11,20
	.loc 4 356 0
	stw 0,4(3)
.LBE1178:
.LBE1181:
.LBE1184:
	.loc 3 930 0
	li 4,44
.LVL653:
.LBB1185:
.LBB1182:
.LBB1179:
	.loc 4 357 0
	stw 11,12(3)
	addi 30,31,4
	.loc 4 358 0
	stw 9,8(3)
	.loc 4 359 0
	stb 0,16(3)
.LBE1179:
.LBE1182:
.LBE1185:
	.loc 3 930 0
	lis 3,.LC31@ha
.LVL654:
	la 3,.LC31@l(3)
.LEHB31:
	crxor 6,6,6
	bl _Z15Sys_DebugPrintfPKcz
.LVL655:
	.loc 3 933 0
	lis 4,.LC26@ha
	mr 3,30
	la 4,.LC26@l(4)
	bl _ZN5idStraSEPKc
.LEHE31:
	.loc 3 934 0
	li 0,1
	.loc 3 935 0
	stw 29,40(31)
	.loc 3 934 0
	stw 0,36(31)
.LBE1193:
	.loc 3 936 0
	lwz 0,28(1)
	lwz 29,12(1)
.LVL656:
	mtlr 0
	lwz 30,16(1)
	lwz 31,20(1)
.LVL657:
	addi 1,1,24
	.cfi_remember_state
.LCFI193:
	.cfi_def_cfa_offset 0
	.cfi_restore 31
	.cfi_restore 30
	.cfi_restore 29
	blr
.LVL658:
.L365:
.LCFI194:
	.cfi_restore_state
	mr 29,3
.LVL659:
.LBB1194:
.LBB1186:
.LBB1187:
.LBB1188:
	.loc 4 501 0
	mr 3,30
	bl _ZN5idStr8FreeDataEv
.LVL660:
.LBE1188:
.LBE1187:
.LBE1186:
.LBB1189:
.LBB1190:
.LBB1191:
	.loc 2 60 0
	lis 9,_ZTV6idFile+8@ha
	la 0,_ZTV6idFile+8@l(9)
	mr 3,29
	stw 0,0(31)
.LEHB32:
	bl _Unwind_Resume
.LEHE32:
.LBE1191:
.LBE1190:
.LBE1189:
.LBE1194:
	.cfi_endproc
.LFE2616:
	.section	.gcc_except_table
.LLSDA2616:
	.byte	0xff
	.byte	0xff
	.byte	0x1
	.uleb128 .LLSDACSE2616-.LLSDACSB2616
.LLSDACSB2616:
	.uleb128 .LEHB31-.LFB2616
	.uleb128 .LEHE31-.LEHB31
	.uleb128 .L365-.LFB2616
	.uleb128 0
	.uleb128 .LEHB32-.LFB2616
	.uleb128 .LEHE32-.LEHB32
	.uleb128 0
	.uleb128 0
.LLSDACSE2616:
	.section	".text"
	.size	_ZN13idFile_BitMsgC2ERK8idBitMsg, .-_ZN13idFile_BitMsgC2ERK8idBitMsg
	.align 2
	.globl _ZN16idFile_PermanentC2Ev
	.type	_ZN16idFile_PermanentC2Ev, @function
_ZN16idFile_PermanentC2Ev:
.LFB2632:
	.loc 3 1053 0
	.cfi_startproc
	.cfi_personality 0,__gxx_personality_v0
	.cfi_lsda 0,.LLSDA2632
.LVL661:
	mflr 0
	stwu 1,-24(1)
.LCFI195:
	.cfi_def_cfa_offset 24
	.cfi_register 65, 0
.LBB1195:
	lis 8,_ZTV16idFile_Permanent+8@ha
.LBB1196:
.LBB1197:
.LBB1198:
	.loc 4 357 0
	li 9,20
	.loc 4 358 0
	addi 10,3,16
.LBE1198:
.LBE1197:
.LBE1196:
.LBB1203:
.LBB1204:
.LBB1205:
	addi 11,3,48
.LBE1205:
.LBE1204:
.LBE1203:
.LBE1195:
	.loc 3 1053 0
	stw 0,28(1)
.LBB1220:
	la 8,_ZTV16idFile_Permanent+8@l(8)
.LBB1208:
.LBB1201:
.LBB1199:
	.loc 4 356 0
	li 0,0
	.cfi_offset 65, 4
.LBE1199:
.LBE1201:
.LBE1208:
.LBE1220:
	.loc 3 1053 0
	stw 30,16(1)
	stw 31,20(1)
	mr 31,3
	.cfi_offset 31, -4
	.cfi_offset 30, -8
.LVL662:
	stw 29,12(1)
.LBB1221:
	.loc 3 1055 0
	li 4,84
	.loc 3 1053 0
	stw 8,0(3)
.LVL663:
	addi 30,31,4
.LBB1209:
.LBB1202:
.LBB1200:
	.loc 4 356 0
	stw 0,4(3)
	.loc 4 357 0
	stw 9,12(3)
	.loc 4 358 0
	stw 10,8(3)
	.loc 4 359 0
	stb 0,16(3)
.LVL664:
.LBE1200:
.LBE1202:
.LBE1209:
.LBB1210:
.LBB1207:
.LBB1206:
	.loc 4 356 0
	stw 0,36(3)
	.loc 4 357 0
	stw 9,44(3)
	.loc 4 358 0
	stw 11,40(3)
	.loc 4 359 0
	stb 0,48(3)
.LBE1206:
.LBE1207:
.LBE1210:
	.loc 3 1055 0
	lis 3,.LC32@ha
.LVL665:
	la 3,.LC32@l(3)
.LEHB33:
	.cfi_offset 29, -12
	crxor 6,6,6
	bl _Z15Sys_DebugPrintfPKcz
	.loc 3 1058 0
	lis 4,.LC33@ha
	mr 3,30
	la 4,.LC33@l(4)
	bl _ZN5idStraSEPKc
.LEHE33:
	.loc 3 1059 0
	li 0,0
	stw 0,76(31)
	.loc 3 1060 0
	stw 0,68(31)
	.loc 3 1061 0
	stw 0,72(31)
	.loc 3 1062 0
	stb 0,80(31)
.LBE1221:
	.loc 3 1063 0
	lwz 0,28(1)
	lwz 29,12(1)
	mtlr 0
	lwz 30,16(1)
	lwz 31,20(1)
.LVL666:
	addi 1,1,24
	.cfi_remember_state
.LCFI196:
	.cfi_def_cfa_offset 0
	.cfi_restore 31
	.cfi_restore 30
	.cfi_restore 29
	blr
.LVL667:
.L371:
.LCFI197:
	.cfi_restore_state
	mr 29,3
.LVL668:
.LBB1222:
.LBB1211:
.LBB1212:
.LBB1213:
	.loc 4 501 0
	addi 3,31,36
	bl _ZN5idStr8FreeDataEv
.LVL669:
.LBE1213:
.LBE1212:
.LBE1211:
.LBB1214:
.LBB1215:
.LBB1216:
	mr 3,30
	bl _ZN5idStr8FreeDataEv
.LVL670:
.LBE1216:
.LBE1215:
.LBE1214:
.LBB1217:
.LBB1218:
.LBB1219:
	.loc 2 60 0
	lis 9,_ZTV6idFile+8@ha
	la 0,_ZTV6idFile+8@l(9)
	mr 3,29
	stw 0,0(31)
.LEHB34:
	bl _Unwind_Resume
.LEHE34:
.LBE1219:
.LBE1218:
.LBE1217:
.LBE1222:
	.cfi_endproc
.LFE2632:
	.section	.gcc_except_table
.LLSDA2632:
	.byte	0xff
	.byte	0xff
	.byte	0x1
	.uleb128 .LLSDACSE2632-.LLSDACSB2632
.LLSDACSB2632:
	.uleb128 .LEHB33-.LFB2632
	.uleb128 .LEHE33-.LEHB33
	.uleb128 .L371-.LFB2632
	.uleb128 0
	.uleb128 .LEHB34-.LFB2632
	.uleb128 .LEHE34-.LEHB34
	.uleb128 0
	.uleb128 0
.LLSDACSE2632:
	.section	".text"
	.size	_ZN16idFile_PermanentC2Ev, .-_ZN16idFile_PermanentC2Ev
	.align 2
	.globl _ZN12idFile_InZipC2Ev
	.type	_ZN12idFile_InZipC2Ev, @function
_ZN12idFile_InZipC2Ev:
.LFB2648:
	.loc 3 1279 0
	.cfi_startproc
	.cfi_personality 0,__gxx_personality_v0
	.cfi_lsda 0,.LLSDA2648
.LVL671:
	mflr 0
	stwu 1,-24(1)
.LCFI198:
	.cfi_def_cfa_offset 24
	.cfi_register 65, 0
.LBB1223:
	lis 8,_ZTV12idFile_InZip+8@ha
.LBB1224:
.LBB1225:
.LBB1226:
	.loc 4 357 0
	li 9,20
	.loc 4 358 0
	addi 10,3,16
.LBE1226:
.LBE1225:
.LBE1224:
.LBB1235:
.LBB1236:
.LBB1237:
	addi 11,3,48
.LBE1237:
.LBE1236:
.LBE1235:
.LBE1223:
	.loc 3 1279 0
	stw 0,28(1)
.LBB1254:
	la 8,_ZTV12idFile_InZip+8@l(8)
.LBB1240:
.LBB1231:
.LBB1227:
	.loc 4 356 0
	li 0,0
	.cfi_offset 65, 4
.LBE1227:
.LBE1231:
.LBE1240:
.LBE1254:
	.loc 3 1279 0
	stw 30,16(1)
	stw 31,20(1)
.LBB1255:
.LBB1241:
.LBB1232:
.LBB1228:
	.loc 4 358 0
	addi 30,3,4
	.cfi_offset 31, -4
	.cfi_offset 30, -8
.LBE1228:
.LBE1232:
.LBE1241:
.LBE1255:
	.loc 3 1279 0
	stw 29,12(1)
.LBB1256:
	.loc 3 1284 0
	lis 4,.LC33@ha
	.loc 3 1279 0
	stw 8,0(3)
.LBE1256:
	mr 31,3
.LVL672:
.LBB1257:
.LBB1242:
.LBB1233:
.LBB1229:
	.loc 4 356 0
	stw 0,4(3)
.LBE1229:
.LBE1233:
.LBE1242:
	.loc 3 1284 0
	la 4,.LC33@l(4)
.LBB1243:
.LBB1234:
.LBB1230:
	.loc 4 357 0
	stw 9,12(3)
	.loc 4 358 0
	stw 10,8(3)
	.loc 4 359 0
	stb 0,16(3)
.LVL673:
.LBE1230:
.LBE1234:
.LBE1243:
.LBB1244:
.LBB1239:
.LBB1238:
	.loc 4 356 0
	stw 0,36(3)
	.loc 4 357 0
	stw 9,44(3)
	.loc 4 358 0
	stw 11,40(3)
	.loc 4 359 0
	stb 0,48(3)
.LBE1238:
.LBE1239:
.LBE1244:
	.loc 3 1284 0
	mr 3,30
.LVL674:
.LEHB35:
	.cfi_offset 29, -12
	bl _ZN5idStraSEPKc
.LEHE35:
.LVL675:
	.loc 3 1285 0
	li 0,0
	stw 0,68(31)
	.loc 3 1286 0
	stw 0,72(31)
	.loc 3 1287 0
	stw 0,76(31)
.LBE1257:
	.loc 3 1288 0
	lwz 0,28(1)
	lwz 29,12(1)
	mtlr 0
	lwz 30,16(1)
.LVL676:
	lwz 31,20(1)
.LVL677:
	addi 1,1,24
	.cfi_remember_state
.LCFI199:
	.cfi_def_cfa_offset 0
	.cfi_restore 31
	.cfi_restore 30
	.cfi_restore 29
	blr
.LVL678:
.L377:
.LCFI200:
	.cfi_restore_state
	mr 29,3
.LVL679:
.LBB1258:
.LBB1245:
.LBB1246:
.LBB1247:
	.loc 4 501 0
	addi 3,31,36
	bl _ZN5idStr8FreeDataEv
.LVL680:
.LBE1247:
.LBE1246:
.LBE1245:
.LBB1248:
.LBB1249:
.LBB1250:
	mr 3,30
	bl _ZN5idStr8FreeDataEv
.LVL681:
.LBE1250:
.LBE1249:
.LBE1248:
.LBB1251:
.LBB1252:
.LBB1253:
	.loc 2 60 0
	lis 9,_ZTV6idFile+8@ha
	la 0,_ZTV6idFile+8@l(9)
	mr 3,29
	stw 0,0(31)
.LEHB36:
	bl _Unwind_Resume
.LEHE36:
.LBE1253:
.LBE1252:
.LBE1251:
.LBE1258:
	.cfi_endproc
.LFE2648:
	.section	.gcc_except_table
.LLSDA2648:
	.byte	0xff
	.byte	0xff
	.byte	0x1
	.uleb128 .LLSDACSE2648-.LLSDACSB2648
.LLSDACSB2648:
	.uleb128 .LEHB35-.LFB2648
	.uleb128 .LEHE35-.LEHB35
	.uleb128 .L377-.LFB2648
	.uleb128 0
	.uleb128 .LEHB36-.LFB2648
	.uleb128 .LEHE36-.LEHB36
	.uleb128 0
	.uleb128 0
.LLSDACSE2648:
	.section	".text"
	.size	_ZN12idFile_InZipC2Ev, .-_ZN12idFile_InZipC2Ev
	.weak	_ZTS9idWinding
	.section	.rodata._ZTS9idWinding,"aG",@progbits,_ZTS9idWinding,comdat
	.align 2
	.type	_ZTS9idWinding, @object
	.size	_ZTS9idWinding, 11
_ZTS9idWinding:
	.string	"9idWinding"
	.weak	_ZTI9idWinding
	.section	.sdata._ZTI9idWinding,"awG",@progbits,_ZTI9idWinding,comdat
	.align 2
	.type	_ZTI9idWinding, @object
	.size	_ZTI9idWinding, 8
_ZTI9idWinding:
	.long	_ZTVN10__cxxabiv117__class_type_infoE+8
	.long	_ZTS9idWinding
	.weak	_ZTS14idFixedWinding
	.section	.rodata._ZTS14idFixedWinding,"aG",@progbits,_ZTS14idFixedWinding,comdat
	.align 2
	.type	_ZTS14idFixedWinding, @object
	.size	_ZTS14idFixedWinding, 17
_ZTS14idFixedWinding:
	.string	"14idFixedWinding"
	.weak	_ZTI14idFixedWinding
	.section	.rodata._ZTI14idFixedWinding,"aG",@progbits,_ZTI14idFixedWinding,comdat
	.align 2
	.type	_ZTI14idFixedWinding, @object
	.size	_ZTI14idFixedWinding, 12
_ZTI14idFixedWinding:
	.long	_ZTVN10__cxxabiv120__si_class_type_infoE+8
	.long	_ZTS14idFixedWinding
	.long	_ZTI9idWinding
	.weak	_ZTS6idFile
	.section	.sdata._ZTS6idFile,"awG",@progbits,_ZTS6idFile,comdat
	.align 2
	.type	_ZTS6idFile, @object
	.size	_ZTS6idFile, 8
_ZTS6idFile:
	.string	"6idFile"
	.weak	_ZTI6idFile
	.section	.sdata._ZTI6idFile,"awG",@progbits,_ZTI6idFile,comdat
	.align 2
	.type	_ZTI6idFile, @object
	.size	_ZTI6idFile, 8
_ZTI6idFile:
	.long	_ZTVN10__cxxabiv117__class_type_infoE+8
	.long	_ZTS6idFile
	.weak	_ZTS13idFile_Memory
	.section	.rodata._ZTS13idFile_Memory,"aG",@progbits,_ZTS13idFile_Memory,comdat
	.align 2
	.type	_ZTS13idFile_Memory, @object
	.size	_ZTS13idFile_Memory, 16
_ZTS13idFile_Memory:
	.string	"13idFile_Memory"
	.weak	_ZTI13idFile_Memory
	.section	.rodata._ZTI13idFile_Memory,"aG",@progbits,_ZTI13idFile_Memory,comdat
	.align 2
	.type	_ZTI13idFile_Memory, @object
	.size	_ZTI13idFile_Memory, 12
_ZTI13idFile_Memory:
	.long	_ZTVN10__cxxabiv120__si_class_type_infoE+8
	.long	_ZTS13idFile_Memory
	.long	_ZTI6idFile
	.weak	_ZTS13idFile_BitMsg
	.section	.rodata._ZTS13idFile_BitMsg,"aG",@progbits,_ZTS13idFile_BitMsg,comdat
	.align 2
	.type	_ZTS13idFile_BitMsg, @object
	.size	_ZTS13idFile_BitMsg, 16
_ZTS13idFile_BitMsg:
	.string	"13idFile_BitMsg"
	.weak	_ZTI13idFile_BitMsg
	.section	.rodata._ZTI13idFile_BitMsg,"aG",@progbits,_ZTI13idFile_BitMsg,comdat
	.align 2
	.type	_ZTI13idFile_BitMsg, @object
	.size	_ZTI13idFile_BitMsg, 12
_ZTI13idFile_BitMsg:
	.long	_ZTVN10__cxxabiv120__si_class_type_infoE+8
	.long	_ZTS13idFile_BitMsg
	.long	_ZTI6idFile
	.weak	_ZTS16idFile_Permanent
	.section	.rodata._ZTS16idFile_Permanent,"aG",@progbits,_ZTS16idFile_Permanent,comdat
	.align 2
	.type	_ZTS16idFile_Permanent, @object
	.size	_ZTS16idFile_Permanent, 19
_ZTS16idFile_Permanent:
	.string	"16idFile_Permanent"
	.weak	_ZTI16idFile_Permanent
	.section	.rodata._ZTI16idFile_Permanent,"aG",@progbits,_ZTI16idFile_Permanent,comdat
	.align 2
	.type	_ZTI16idFile_Permanent, @object
	.size	_ZTI16idFile_Permanent, 12
_ZTI16idFile_Permanent:
	.long	_ZTVN10__cxxabiv120__si_class_type_infoE+8
	.long	_ZTS16idFile_Permanent
	.long	_ZTI6idFile
	.weak	_ZTS12idFile_InZip
	.section	.rodata._ZTS12idFile_InZip,"aG",@progbits,_ZTS12idFile_InZip,comdat
	.align 2
	.type	_ZTS12idFile_InZip, @object
	.size	_ZTS12idFile_InZip, 15
_ZTS12idFile_InZip:
	.string	"12idFile_InZip"
	.weak	_ZTI12idFile_InZip
	.section	.rodata._ZTI12idFile_InZip,"aG",@progbits,_ZTI12idFile_InZip,comdat
	.align 2
	.type	_ZTI12idFile_InZip, @object
	.size	_ZTI12idFile_InZip, 12
_ZTI12idFile_InZip:
	.long	_ZTVN10__cxxabiv120__si_class_type_infoE+8
	.long	_ZTS12idFile_InZip
	.long	_ZTI6idFile
	.weak	_ZTV9idWinding
	.section	.rodata._ZTV9idWinding,"aG",@progbits,_ZTV9idWinding,comdat
	.align 3
	.type	_ZTV9idWinding, @object
	.size	_ZTV9idWinding, 24
_ZTV9idWinding:
	.long	0
	.long	_ZTI9idWinding
	.long	_ZN9idWindingD1Ev
	.long	_ZN9idWindingD0Ev
	.long	_ZN9idWinding5ClearEv
	.long	_ZN9idWinding10ReAllocateEib
	.weak	_ZTV14idFixedWinding
	.section	.rodata._ZTV14idFixedWinding,"aG",@progbits,_ZTV14idFixedWinding,comdat
	.align 3
	.type	_ZTV14idFixedWinding, @object
	.size	_ZTV14idFixedWinding, 24
_ZTV14idFixedWinding:
	.long	0
	.long	_ZTI14idFixedWinding
	.long	_ZN14idFixedWindingD1Ev
	.long	_ZN14idFixedWindingD0Ev
	.long	_ZN14idFixedWinding5ClearEv
	.long	_ZN14idFixedWinding10ReAllocateEib
	.weak	_ZTV6idFile
	.section	.rodata._ZTV6idFile,"aG",@progbits,_ZTV6idFile,comdat
	.align 3
	.type	_ZTV6idFile, @object
	.size	_ZTV6idFile, 188
_ZTV6idFile:
	.long	0
	.long	_ZTI6idFile
	.long	_ZN6idFileD1Ev
	.long	_ZN6idFileD0Ev
	.long	_ZN6idFile11GetFileTypeEv
	.long	_ZN6idFile7GetNameEv
	.long	_ZN6idFile11GetFullPathEv
	.long	_ZN6idFile4ReadEPvi
	.long	_ZN6idFile5WriteEPKvi
	.long	_ZN6idFile6LengthEv
	.long	_ZN6idFile9TimestampEv
	.long	_ZN6idFile4TellEv
	.long	_ZN6idFile10ForceFlushEv
	.long	_ZN6idFile5FlushEv
	.long	_ZN6idFile4SeekEl10fsOrigin_t
	.long	_ZN6idFile6RewindEv
	.long	_ZN6idFile6PrintfEPKcz
	.long	_ZN6idFile7VPrintfEPKcP13__va_list_tag
	.long	_ZN6idFile16WriteFloatStringEPKcz
	.long	_ZN6idFile7ReadIntERi
	.long	_ZN6idFile15ReadUnsignedIntERj
	.long	_ZN6idFile9ReadShortERs
	.long	_ZN6idFile17ReadUnsignedShortERt
	.long	_ZN6idFile8ReadCharERc
	.long	_ZN6idFile16ReadUnsignedCharERh
	.long	_ZN6idFile9ReadFloatERf
	.long	_ZN6idFile8ReadBoolERb
	.long	_ZN6idFile10ReadStringER5idStr
	.long	_ZN6idFile8ReadVec2ER6idVec2
	.long	_ZN6idFile8ReadVec3ER6idVec3
	.long	_ZN6idFile8ReadVec4ER6idVec4
	.long	_ZN6idFile8ReadVec6ER6idVec6
	.long	_ZN6idFile8ReadMat3ER6idMat3
	.long	_ZN6idFile8WriteIntEi
	.long	_ZN6idFile16WriteUnsignedIntEj
	.long	_ZN6idFile10WriteShortEs
	.long	_ZN6idFile18WriteUnsignedShortEt
	.long	_ZN6idFile9WriteCharEc
	.long	_ZN6idFile17WriteUnsignedCharEh
	.long	_ZN6idFile10WriteFloatEf
	.long	_ZN6idFile9WriteBoolEb
	.long	_ZN6idFile11WriteStringEPKc
	.long	_ZN6idFile9WriteVec2ERK6idVec2
	.long	_ZN6idFile9WriteVec3ERK6idVec3
	.long	_ZN6idFile9WriteVec4ERK6idVec4
	.long	_ZN6idFile9WriteVec6ERK6idVec6
	.long	_ZN6idFile9WriteMat3ERK6idMat3
	.weak	_ZTV13idFile_Memory
	.section	.rodata._ZTV13idFile_Memory,"aG",@progbits,_ZTV13idFile_Memory,comdat
	.align 3
	.type	_ZTV13idFile_Memory, @object
	.size	_ZTV13idFile_Memory, 196
_ZTV13idFile_Memory:
	.long	0
	.long	_ZTI13idFile_Memory
	.long	_ZN13idFile_MemoryD1Ev
	.long	_ZN13idFile_MemoryD0Ev
	.long	_ZN13idFile_Memory11GetFileTypeEv
	.long	_ZN13idFile_Memory7GetNameEv
	.long	_ZN13idFile_Memory11GetFullPathEv
	.long	_ZN13idFile_Memory4ReadEPvi
	.long	_ZN13idFile_Memory5WriteEPKvi
	.long	_ZN13idFile_Memory6LengthEv
	.long	_ZN13idFile_Memory9TimestampEv
	.long	_ZN13idFile_Memory4TellEv
	.long	_ZN13idFile_Memory10ForceFlushEv
	.long	_ZN13idFile_Memory5FlushEv
	.long	_ZN13idFile_Memory4SeekEl10fsOrigin_t
	.long	_ZN6idFile6RewindEv
	.long	_ZN6idFile6PrintfEPKcz
	.long	_ZN6idFile7VPrintfEPKcP13__va_list_tag
	.long	_ZN6idFile16WriteFloatStringEPKcz
	.long	_ZN6idFile7ReadIntERi
	.long	_ZN6idFile15ReadUnsignedIntERj
	.long	_ZN6idFile9ReadShortERs
	.long	_ZN6idFile17ReadUnsignedShortERt
	.long	_ZN6idFile8ReadCharERc
	.long	_ZN6idFile16ReadUnsignedCharERh
	.long	_ZN6idFile9ReadFloatERf
	.long	_ZN6idFile8ReadBoolERb
	.long	_ZN6idFile10ReadStringER5idStr
	.long	_ZN6idFile8ReadVec2ER6idVec2
	.long	_ZN6idFile8ReadVec3ER6idVec3
	.long	_ZN6idFile8ReadVec4ER6idVec4
	.long	_ZN6idFile8ReadVec6ER6idVec6
	.long	_ZN6idFile8ReadMat3ER6idMat3
	.long	_ZN6idFile8WriteIntEi
	.long	_ZN6idFile16WriteUnsignedIntEj
	.long	_ZN6idFile10WriteShortEs
	.long	_ZN6idFile18WriteUnsignedShortEt
	.long	_ZN6idFile9WriteCharEc
	.long	_ZN6idFile17WriteUnsignedCharEh
	.long	_ZN6idFile10WriteFloatEf
	.long	_ZN6idFile9WriteBoolEb
	.long	_ZN6idFile11WriteStringEPKc
	.long	_ZN6idFile9WriteVec2ERK6idVec2
	.long	_ZN6idFile9WriteVec3ERK6idVec3
	.long	_ZN6idFile9WriteVec4ERK6idVec4
	.long	_ZN6idFile9WriteVec6ERK6idVec6
	.long	_ZN6idFile9WriteMat3ERK6idMat3
	.long	_ZN13idFile_Memory12MakeReadOnlyEv
	.long	_ZN13idFile_Memory5ClearEb
	.weak	_ZTV13idFile_BitMsg
	.section	.rodata._ZTV13idFile_BitMsg,"aG",@progbits,_ZTV13idFile_BitMsg,comdat
	.align 3
	.type	_ZTV13idFile_BitMsg, @object
	.size	_ZTV13idFile_BitMsg, 188
_ZTV13idFile_BitMsg:
	.long	0
	.long	_ZTI13idFile_BitMsg
	.long	_ZN13idFile_BitMsgD1Ev
	.long	_ZN13idFile_BitMsgD0Ev
	.long	_ZN13idFile_BitMsg11GetFileTypeEv
	.long	_ZN13idFile_BitMsg7GetNameEv
	.long	_ZN13idFile_BitMsg11GetFullPathEv
	.long	_ZN13idFile_BitMsg4ReadEPvi
	.long	_ZN13idFile_BitMsg5WriteEPKvi
	.long	_ZN13idFile_BitMsg6LengthEv
	.long	_ZN13idFile_BitMsg9TimestampEv
	.long	_ZN13idFile_BitMsg4TellEv
	.long	_ZN13idFile_BitMsg10ForceFlushEv
	.long	_ZN13idFile_BitMsg5FlushEv
	.long	_ZN13idFile_BitMsg4SeekEl10fsOrigin_t
	.long	_ZN6idFile6RewindEv
	.long	_ZN6idFile6PrintfEPKcz
	.long	_ZN6idFile7VPrintfEPKcP13__va_list_tag
	.long	_ZN6idFile16WriteFloatStringEPKcz
	.long	_ZN6idFile7ReadIntERi
	.long	_ZN6idFile15ReadUnsignedIntERj
	.long	_ZN6idFile9ReadShortERs
	.long	_ZN6idFile17ReadUnsignedShortERt
	.long	_ZN6idFile8ReadCharERc
	.long	_ZN6idFile16ReadUnsignedCharERh
	.long	_ZN6idFile9ReadFloatERf
	.long	_ZN6idFile8ReadBoolERb
	.long	_ZN6idFile10ReadStringER5idStr
	.long	_ZN6idFile8ReadVec2ER6idVec2
	.long	_ZN6idFile8ReadVec3ER6idVec3
	.long	_ZN6idFile8ReadVec4ER6idVec4
	.long	_ZN6idFile8ReadVec6ER6idVec6
	.long	_ZN6idFile8ReadMat3ER6idMat3
	.long	_ZN6idFile8WriteIntEi
	.long	_ZN6idFile16WriteUnsignedIntEj
	.long	_ZN6idFile10WriteShortEs
	.long	_ZN6idFile18WriteUnsignedShortEt
	.long	_ZN6idFile9WriteCharEc
	.long	_ZN6idFile17WriteUnsignedCharEh
	.long	_ZN6idFile10WriteFloatEf
	.long	_ZN6idFile9WriteBoolEb
	.long	_ZN6idFile11WriteStringEPKc
	.long	_ZN6idFile9WriteVec2ERK6idVec2
	.long	_ZN6idFile9WriteVec3ERK6idVec3
	.long	_ZN6idFile9WriteVec4ERK6idVec4
	.long	_ZN6idFile9WriteVec6ERK6idVec6
	.long	_ZN6idFile9WriteMat3ERK6idMat3
	.weak	_ZTV16idFile_Permanent
	.section	.rodata._ZTV16idFile_Permanent,"aG",@progbits,_ZTV16idFile_Permanent,comdat
	.align 3
	.type	_ZTV16idFile_Permanent, @object
	.size	_ZTV16idFile_Permanent, 188
_ZTV16idFile_Permanent:
	.long	0
	.long	_ZTI16idFile_Permanent
	.long	_ZN16idFile_PermanentD1Ev
	.long	_ZN16idFile_PermanentD0Ev
	.long	_ZN16idFile_Permanent11GetFileTypeEv
	.long	_ZN16idFile_Permanent7GetNameEv
	.long	_ZN16idFile_Permanent11GetFullPathEv
	.long	_ZN16idFile_Permanent4ReadEPvi
	.long	_ZN16idFile_Permanent5WriteEPKvi
	.long	_ZN16idFile_Permanent6LengthEv
	.long	_ZN16idFile_Permanent9TimestampEv
	.long	_ZN16idFile_Permanent4TellEv
	.long	_ZN16idFile_Permanent10ForceFlushEv
	.long	_ZN16idFile_Permanent5FlushEv
	.long	_ZN16idFile_Permanent4SeekEl10fsOrigin_t
	.long	_ZN6idFile6RewindEv
	.long	_ZN6idFile6PrintfEPKcz
	.long	_ZN6idFile7VPrintfEPKcP13__va_list_tag
	.long	_ZN6idFile16WriteFloatStringEPKcz
	.long	_ZN6idFile7ReadIntERi
	.long	_ZN6idFile15ReadUnsignedIntERj
	.long	_ZN6idFile9ReadShortERs
	.long	_ZN6idFile17ReadUnsignedShortERt
	.long	_ZN6idFile8ReadCharERc
	.long	_ZN6idFile16ReadUnsignedCharERh
	.long	_ZN6idFile9ReadFloatERf
	.long	_ZN6idFile8ReadBoolERb
	.long	_ZN6idFile10ReadStringER5idStr
	.long	_ZN6idFile8ReadVec2ER6idVec2
	.long	_ZN6idFile8ReadVec3ER6idVec3
	.long	_ZN6idFile8ReadVec4ER6idVec4
	.long	_ZN6idFile8ReadVec6ER6idVec6
	.long	_ZN6idFile8ReadMat3ER6idMat3
	.long	_ZN6idFile8WriteIntEi
	.long	_ZN6idFile16WriteUnsignedIntEj
	.long	_ZN6idFile10WriteShortEs
	.long	_ZN6idFile18WriteUnsignedShortEt
	.long	_ZN6idFile9WriteCharEc
	.long	_ZN6idFile17WriteUnsignedCharEh
	.long	_ZN6idFile10WriteFloatEf
	.long	_ZN6idFile9WriteBoolEb
	.long	_ZN6idFile11WriteStringEPKc
	.long	_ZN6idFile9WriteVec2ERK6idVec2
	.long	_ZN6idFile9WriteVec3ERK6idVec3
	.long	_ZN6idFile9WriteVec4ERK6idVec4
	.long	_ZN6idFile9WriteVec6ERK6idVec6
	.long	_ZN6idFile9WriteMat3ERK6idMat3
	.weak	_ZTV12idFile_InZip
	.section	.rodata._ZTV12idFile_InZip,"aG",@progbits,_ZTV12idFile_InZip,comdat
	.align 3
	.type	_ZTV12idFile_InZip, @object
	.size	_ZTV12idFile_InZip, 188
_ZTV12idFile_InZip:
	.long	0
	.long	_ZTI12idFile_InZip
	.long	_ZN12idFile_InZipD1Ev
	.long	_ZN12idFile_InZipD0Ev
	.long	_ZN12idFile_InZip11GetFileTypeEv
	.long	_ZN12idFile_InZip7GetNameEv
	.long	_ZN12idFile_InZip11GetFullPathEv
	.long	_ZN12idFile_InZip4ReadEPvi
	.long	_ZN12idFile_InZip5WriteEPKvi
	.long	_ZN12idFile_InZip6LengthEv
	.long	_ZN12idFile_InZip9TimestampEv
	.long	_ZN12idFile_InZip4TellEv
	.long	_ZN12idFile_InZip10ForceFlushEv
	.long	_ZN12idFile_InZip5FlushEv
	.long	_ZN12idFile_InZip4SeekEl10fsOrigin_t
	.long	_ZN6idFile6RewindEv
	.long	_ZN6idFile6PrintfEPKcz
	.long	_ZN6idFile7VPrintfEPKcP13__va_list_tag
	.long	_ZN6idFile16WriteFloatStringEPKcz
	.long	_ZN6idFile7ReadIntERi
	.long	_ZN6idFile15ReadUnsignedIntERj
	.long	_ZN6idFile9ReadShortERs
	.long	_ZN6idFile17ReadUnsignedShortERt
	.long	_ZN6idFile8ReadCharERc
	.long	_ZN6idFile16ReadUnsignedCharERh
	.long	_ZN6idFile9ReadFloatERf
	.long	_ZN6idFile8ReadBoolERb
	.long	_ZN6idFile10ReadStringER5idStr
	.long	_ZN6idFile8ReadVec2ER6idVec2
	.long	_ZN6idFile8ReadVec3ER6idVec3
	.long	_ZN6idFile8ReadVec4ER6idVec4
	.long	_ZN6idFile8ReadVec6ER6idVec6
	.long	_ZN6idFile8ReadMat3ER6idMat3
	.long	_ZN6idFile8WriteIntEi
	.long	_ZN6idFile16WriteUnsignedIntEj
	.long	_ZN6idFile10WriteShortEs
	.long	_ZN6idFile18WriteUnsignedShortEt
	.long	_ZN6idFile9WriteCharEc
	.long	_ZN6idFile17WriteUnsignedCharEh
	.long	_ZN6idFile10WriteFloatEf
	.long	_ZN6idFile9WriteBoolEb
	.long	_ZN6idFile11WriteStringEPKc
	.long	_ZN6idFile9WriteVec2ERK6idVec2
	.long	_ZN6idFile9WriteVec3ERK6idVec3
	.long	_ZN6idFile9WriteVec4ERK6idVec4
	.long	_ZN6idFile9WriteVec6ERK6idVec6
	.long	_ZN6idFile9WriteMat3ERK6idMat3
	.weak	_ZN6idFileD1Ev
	.set	_ZN6idFileD1Ev,_ZN6idFileD2Ev
	.weak	_ZN9idWindingD1Ev
	.set	_ZN9idWindingD1Ev,_ZN9idWindingD2Ev
	.globl _ZN12idFile_InZipD1Ev
	.set	_ZN12idFile_InZipD1Ev,_ZN12idFile_InZipD2Ev
	.globl _ZN13idFile_BitMsgD1Ev
	.set	_ZN13idFile_BitMsgD1Ev,_ZN13idFile_BitMsgD2Ev
	.globl _ZN16idFile_PermanentD1Ev
	.set	_ZN16idFile_PermanentD1Ev,_ZN16idFile_PermanentD2Ev
	.globl _ZN13idFile_MemoryD1Ev
	.set	_ZN13idFile_MemoryD1Ev,_ZN13idFile_MemoryD2Ev
	.weak	_ZN14idFixedWindingD1Ev
	.set	_ZN14idFixedWindingD1Ev,_ZN14idFixedWindingD2Ev
	.globl _ZN13idFile_MemoryC1Ev
	.set	_ZN13idFile_MemoryC1Ev,_ZN13idFile_MemoryC2Ev
	.globl _ZN13idFile_MemoryC1EPKc
	.set	_ZN13idFile_MemoryC1EPKc,_ZN13idFile_MemoryC2EPKc
	.globl _ZN13idFile_MemoryC1EPKcPci
	.set	_ZN13idFile_MemoryC1EPKcPci,_ZN13idFile_MemoryC2EPKcPci
	.globl _ZN13idFile_MemoryC1EPKcS1_i
	.set	_ZN13idFile_MemoryC1EPKcS1_i,_ZN13idFile_MemoryC2EPKcS1_i
	.globl _ZN13idFile_BitMsgC1ER8idBitMsg
	.set	_ZN13idFile_BitMsgC1ER8idBitMsg,_ZN13idFile_BitMsgC2ER8idBitMsg
	.globl _ZN13idFile_BitMsgC1ERK8idBitMsg
	.set	_ZN13idFile_BitMsgC1ERK8idBitMsg,_ZN13idFile_BitMsgC2ERK8idBitMsg
	.globl _ZN16idFile_PermanentC1Ev
	.set	_ZN16idFile_PermanentC1Ev,_ZN16idFile_PermanentC2Ev
	.globl _ZN12idFile_InZipC1Ev
	.set	_ZN12idFile_InZipC1Ev,_ZN12idFile_InZipC2Ev
	.section	.rodata.str1.4,"aMS",@progbits,1
	.align 2
.LC0:
	.string	""
	.zero	3
.LC1:
	.string	"idFile::Read: cannot read from idFile"
	.zero	2
.LC2:
	.string	"idFile::Write: cannot write to idFile"
	.zero	2
.LC3:
	.string	"idFile_InZip::Write: cannot write to the zipped file %s"
.LC4:
	.string	"idFile_InZip::ForceFlush: cannot flush the zipped file %s"
	.zero	2
.LC5:
	.string	"idFile_InZip::Flush: cannot flush the zipped file %s"
	.zero	3
.LC6:
	.string	"idFile_InZip::Seek: bad origin for %s\n"
	.zero	1
.LC7:
	.string	"idFile_Permanent::Seek: bad origin for %s\n"
	.zero	1
.LC8:
	.string	"idFile_Permanent::Write: %s not opened in write mode"
	.zero	3
.LC9:
	.string	"idFile_Permanent::Write: 0 bytes written to %s\n"
.LC10:
	.string	"idFile_Permanent::Write: -1 bytes written to %s\n"
	.zero	3
.LC11:
	.string	"idFile_Permanent::Read: %s not opened in read mode"
	.zero	1
.LC12:
	.string	"idFile_Permanent::Read: -1 bytes read from %s"
	.zero	2
.LC13:
	.string	"idFile_Memory::Write: %s not opened in write mode"
	.zero	2
.LC14:
	.string	"idFile_Memory::Write: exceeded maximum size %d"
	.zero	1
.LC15:
	.string	"\n"
	.zero	2
.LC16:
	.string	"\r\n"
	.zero	1
.LC17:
	.string	"idFile_BitMsg::Read: %s not opened in read mode"
.LC18:
	.string	"idFile_Memory::Seek: bad origin for %s\n"
.LC19:
	.string	"idFile_Memory::Read: %s not opened in read mode"
.LC20:
	.string	"%1.10f"
	.zero	1
.LC21:
	.string	"%s"
	.zero	1
.LC22:
	.string	"FS_WriteFloatString: invalid format %s"
	.zero	1
.LC23:
	.string	"FS_WriteFloatString: unknown escape character '%c'"
	.zero	1
.LC24:
	.string	"%c"
	.zero	1
.LC25:
	.string	"idFile_Memory::idFile_Memory( void ) size %d\r\n"
	.zero	1
.LC26:
	.string	"*unknown*"
	.zero	2
.LC27:
	.string	"idFile_Memory::idFile_Memory( const char *name ) size %d\r\n"
	.zero	1
.LC28:
	.string	"idFile_Memory::idFile_Memory( const char *name, char *data, int length ) size %d\r\n"
	.zero	1
.LC29:
	.string	"idFile_Memory::idFile_Memory( const char *name, const char *data, int length ) size %d\r\n"
	.zero	3
.LC30:
	.string	"idFile_BitMsg::idFile_BitMsg( idBitMsg &msg ) size %d\r\n"
.LC31:
	.string	"idFile_BitMsg::idFile_BitMsg( const idBitMsg &msg ) size %d\r\n"
	.zero	2
.LC32:
	.string	"idFile_Permanent::idFile_Permanent( void ) size %d\r\n"
	.zero	3
.LC33:
	.string	"invalid"
	.section	".text"
.Letext0:
	.file 5 "c:\\utils\\devkitpro\\devkitppc\\bin\\../lib/gcc/powerpc-eabi/4.6.3/include/stddef.h"
	.file 6 "c:\\utils\\devkitpro\\devkitppc\\bin\\../lib/gcc/powerpc-eabi/4.6.3/include/stdarg.h"
	.file 7 "<built-in>"
	.file 8 "c:\\utils\\devkitpro\\devkitppc\\bin\\../lib/gcc/powerpc-eabi/4.6.3/../../../../powerpc-eabi/include/machine/_types.h"
	.file 9 "c:\\utils\\devkitpro\\devkitppc\\bin\\../lib/gcc/powerpc-eabi/4.6.3/../../../../powerpc-eabi/include/sys/lock.h"
	.file 10 "c:\\utils\\devkitpro\\devkitppc\\bin\\../lib/gcc/powerpc-eabi/4.6.3/../../../../powerpc-eabi/include/sys/_types.h"
	.file 11 "c:\\utils\\devkitpro\\devkitppc\\bin\\../lib/gcc/powerpc-eabi/4.6.3/../../../../powerpc-eabi/include/sys/reent.h"
	.file 12 "c:\\utils\\devkitpro\\devkitppc\\bin\\../lib/gcc/powerpc-eabi/4.6.3/../../../../powerpc-eabi/include/sys/types.h"
	.file 13 "c:\\utils\\devkitpro\\devkitppc\\bin\\../lib/gcc/powerpc-eabi/4.6.3/../../../../powerpc-eabi/include/stdio.h"
	.file 14 "d:/Data/Nintendo/DoomGX/src/framework/../idlib/../sys/sys_public.h"
	.file 15 "d:/Data/Nintendo/DoomGX/src/framework/../idlib/../framework/Common.h"
	.file 16 "d:/Data/Nintendo/DoomGX/src/framework/../idlib/../framework/CVarSystem.h"
	.file 17 "d:/Data/Nintendo/DoomGX/src/framework/../idlib/../framework/FileSystem.h"
	.file 18 "d:/Data/Nintendo/DoomGX/src/framework/../idlib/../idlib/Lib.h"
	.file 19 "d:/Data/Nintendo/DoomGX/src/framework/../idlib/../idlib/CmdArgs.h"
	.file 20 "d:/Data/Nintendo/DoomGX/src/framework/../idlib/../idlib/math/Random.h"
	.file 21 "d:/Data/Nintendo/DoomGX/src/framework/../idlib/../idlib/math/Vector.h"
	.file 22 "d:/Data/Nintendo/DoomGX/src/framework/../idlib/../idlib/math/Angles.h"
	.file 23 "d:/Data/Nintendo/DoomGX/src/framework/../idlib/../idlib/math/Matrix.h"
	.file 24 "d:/Data/Nintendo/DoomGX/src/framework/../idlib/../idlib/math/Quat.h"
	.file 25 "d:/Data/Nintendo/DoomGX/src/framework/../idlib/../idlib/math/Rotation.h"
	.file 26 "d:/Data/Nintendo/DoomGX/src/framework/../idlib/../idlib/math/Plane.h"
	.file 27 "d:/Data/Nintendo/DoomGX/src/framework/../idlib/../idlib/containers/List.h"
	.file 28 "d:/Data/Nintendo/DoomGX/src/framework/../idlib/../idlib/math/Ode.h"
	.file 29 "d:/Data/Nintendo/DoomGX/src/framework/../idlib/../idlib/bv/Sphere.h"
	.file 30 "d:/Data/Nintendo/DoomGX/src/framework/../idlib/../idlib/bv/Bounds.h"
	.file 31 "d:/Data/Nintendo/DoomGX/src/framework/../idlib/../idlib/bv/Box.h"
	.file 32 "d:/Data/Nintendo/DoomGX/src/framework/../idlib/../idlib/bv/Frustum.h"
	.file 33 "d:/Data/Nintendo/DoomGX/src/framework/../idlib/../idlib/geometry/DrawVert.h"
	.file 34 "d:/Data/Nintendo/DoomGX/src/framework/../idlib/../idlib/geometry/JointTransform.h"
	.file 35 "d:/Data/Nintendo/DoomGX/src/framework/../idlib/../idlib/geometry/Surface.h"
	.file 36 "d:/Data/Nintendo/DoomGX/src/framework/../idlib/../idlib/geometry/TraceModel.h"
	.file 37 "d:/Data/Nintendo/DoomGX/src/framework/../idlib/../idlib/Token.h"
	.file 38 "d:/Data/Nintendo/DoomGX/src/framework/../idlib/../idlib/Lexer.h"
	.file 39 "d:/Data/Nintendo/DoomGX/src/framework/../idlib/../idlib/Parser.h"
	.file 40 "d:/Data/Nintendo/DoomGX/src/framework/../idlib/../idlib/containers/HashIndex.h"
	.file 41 "d:/Data/Nintendo/DoomGX/src/framework/../idlib/../idlib/containers/StrList.h"
	.file 42 "d:/Data/Nintendo/DoomGX/src/framework/../idlib/../idlib/containers/StrPool.h"
	.file 43 "d:/Data/Nintendo/DoomGX/src/framework/../idlib/../idlib/containers/PlaneSet.h"
	.file 44 "d:/Data/Nintendo/DoomGX/src/framework/../idlib/../idlib/Dict.h"
	.file 45 "d:/Data/Nintendo/DoomGX/src/framework/../idlib/../idlib/LangDict.h"
	.file 46 "d:/Data/Nintendo/DoomGX/src/framework/../idlib/../idlib/BitMsg.h"
	.file 47 "d:/Data/Nintendo/DoomGX/src/framework/../idlib/../idlib/MapFile.h"
	.file 48 "d:/Data/Nintendo/DoomGX/src/framework/../idlib/../framework/CmdSystem.h"
	.file 49 "d:/Data/Nintendo/DoomGX/src/framework/../idlib/../framework/UsercmdGen.h"
	.file 50 "d:/Data/Nintendo/DoomGX/src/framework/../idlib/../framework/DeclManager.h"
	.file 51 "d:/Data/Nintendo/DoomGX/src/framework/../idlib/../framework/DeclParticle.h"
	.file 52 "d:/Data/Nintendo/DoomGX/src/framework/../idlib/../renderer/RenderWorld.h"
	.file 53 "d:/Data/Nintendo/DoomGX/src/framework/../idlib/../renderer/Cinematic.h"
	.file 54 "d:/Data/Nintendo/DoomGX/src/framework/../idlib/../renderer/Model.h"
	.file 55 "d:/Data/Nintendo/DoomGX/src/framework/../idlib/../renderer/RenderSystem.h"
	.file 56 "d:/Data/Nintendo/DoomGX/src/framework/../idlib/../sound/sound.h"
	.file 57 "d:/Data/Nintendo/DoomGX/src/framework/../idlib/../ui/UserInterface.h"
	.file 58 "d:/Data/Nintendo/DoomGX/src/framework/../idlib/../cm/CollisionModel.h"
	.file 59 "d:/Data/Nintendo/DoomGX/src/framework/../idlib/../tools/compilers/aas/AASFile.h"
	.file 60 "d:/Data/Nintendo/DoomGX/src/framework/../idlib/../game/Game.h"
	.file 61 "d:/Data/Nintendo/DoomGX/src/framework/../idlib/../framework/async/NetworkSystem.h"
	.file 62 "d:/Data/Nintendo/DoomGX/src/framework/../idlib/../renderer/ModelManager.h"
	.file 63 "d:/Data/Nintendo/DoomGX/src/framework/../idlib/../tools/compilers/aas/AASFileManager.h"
	.file 64 "d:/Data/Nintendo/DoomGX/src/framework/../idlib/../framework/Session.h"
	.file 65 "d:/Data/Nintendo/DoomGX/src/framework/../idlib/../ui/ListGUI.h"
	.file 66 "d:/Data/Nintendo/DoomGX/src/framework/../idlib/../framework/Console.h"
	.file 67 "d:/Data/Nintendo/DoomGX/src/framework/../idlib/../idlib/math/Curve.h"
	.file 68 "d:/Data/Nintendo/DoomGX/src/framework/../idlib/../idlib/math/Simd.h"
	.file 69 "d:/Data/Nintendo/DoomGX/src/framework/../idlib/../framework/BuildVersion.h"
	.file 70 "d:/Data/Nintendo/DoomGX/src/framework/../idlib/precompiled.h"
	.file 71 "d:/Data/Nintendo/DoomGX/src/framework/../idlib/../renderer/Material.h"
	.file 72 "d:/Data/Nintendo/DoomGX/src/framework/../idlib/../framework/EventLoop.h"
	.file 73 "d:/Data/Nintendo/DoomGX/src/framework/../idlib/../framework/EditField.h"
	.file 74 "d:/Data/Nintendo/DoomGX/src/framework/../idlib/../framework/async/AsyncNetwork.h"
	.file 75 "d:/Data/Nintendo/DoomGX/src/framework/../idlib/../framework/async/AsyncServer.h"