	.file	"Force_Drag.cpp"
	.section	".text"
.Ltext0:
	.section	.text._ZN14idFixedWinding5ClearEv,"axG",@progbits,_ZN14idFixedWinding5ClearEv,comdat
	.align 2
	.weak	_ZN14idFixedWinding5ClearEv
	.type	_ZN14idFixedWinding5ClearEv, @function
_ZN14idFixedWinding5ClearEv:
.LFB1502:
	.file 1 "d:/Data/Nintendo/DoomGX/src/game/physics/../../idlib/../idlib/geometry/Winding.h"
	.loc 1 398 0
	.cfi_startproc
.LVL0:
	.loc 1 399 0
	li 0,0
	.loc 1 400 0
	.loc 1 399 0
	stw 0,4(3)
	.loc 1 400 0
	blr
	.cfi_endproc
.LFE1502:
	.size	_ZN14idFixedWinding5ClearEv, .-_ZN14idFixedWinding5ClearEv
	.section	.text._ZNK7idClass4SaveEP10idSaveGame,"axG",@progbits,_ZNK7idClass4SaveEP10idSaveGame,comdat
	.align 2
	.weak	_ZNK7idClass4SaveEP10idSaveGame
	.type	_ZNK7idClass4SaveEP10idSaveGame, @function
_ZNK7idClass4SaveEP10idSaveGame:
.LFB2574:
	.file 2 "d:/Data/Nintendo/DoomGX/src/game/physics/../gamesys/Class.h"
	.loc 2 198 0
	.cfi_startproc
.LVL1:
	.loc 2 198 0
	blr
	.cfi_endproc
.LFE2574:
	.size	_ZNK7idClass4SaveEP10idSaveGame, .-_ZNK7idClass4SaveEP10idSaveGame
	.section	.text._ZN7idClass7RestoreEP13idRestoreGame,"axG",@progbits,_ZN7idClass7RestoreEP13idRestoreGame,comdat
	.align 2
	.weak	_ZN7idClass7RestoreEP13idRestoreGame
	.type	_ZN7idClass7RestoreEP13idRestoreGame, @function
_ZN7idClass7RestoreEP13idRestoreGame:
.LFB2575:
	.loc 2 199 0
	.cfi_startproc
.LVL2:
	.loc 2 199 0
	blr
	.cfi_endproc
.LFE2575:
	.size	_ZN7idClass7RestoreEP13idRestoreGame, .-_ZN7idClass7RestoreEP13idRestoreGame
	.section	".text"
	.align 2
	.globl _ZNK12idForce_Drag7GetTypeEv
	.type	_ZNK12idForce_Drag7GetTypeEv, @function
_ZNK12idForce_Drag7GetTypeEv:
.LFB2811:
	.file 3 "d:/Data/Nintendo/DoomGX/src/game/physics/Force_Drag.cpp"
	.loc 3 34 0
	.cfi_startproc
.LVL3:
	.loc 3 34 0
	lis 3,.LANCHOR0@ha
.LVL4:
	la 3,.LANCHOR0@l(3)
	blr
	.cfi_endproc
.LFE2811:
	.size	_ZNK12idForce_Drag7GetTypeEv, .-_ZNK12idForce_Drag7GetTypeEv
	.align 2
	.globl _ZN12idForce_Drag13RemovePhysicsEPK9idPhysics
	.type	_ZN12idForce_Drag13RemovePhysicsEPK9idPhysics, @function
_ZN12idForce_Drag13RemovePhysicsEPK9idPhysics:
.LFB2825:
	.loc 3 155 0
	.cfi_startproc
.LVL5:
	.loc 3 156 0
	lwz 0,8(3)
	cmpw 7,0,4
	bnelr+ 7
	.loc 3 157 0
	li 0,0
	stw 0,8(3)
	blr
	.cfi_endproc
.LFE2825:
	.size	_ZN12idForce_Drag13RemovePhysicsEPK9idPhysics, .-_ZN12idForce_Drag13RemovePhysicsEPK9idPhysics
	.section	.text._ZN9idWinding5ClearEv,"axG",@progbits,_ZN9idWinding5ClearEv,comdat
	.align 2
	.weak	_ZN9idWinding5ClearEv
	.type	_ZN9idWinding5ClearEv, @function
_ZN9idWinding5ClearEv:
.LFB1473:
	.loc 1 249 0
	.cfi_startproc
.LVL6:
	mflr 0
	stwu 1,-16(1)
.LCFI0:
	.cfi_def_cfa_offset 16
	.cfi_register 65, 0
	stw 31,12(1)
	mr 31,3
	.cfi_offset 31, -4
	stw 0,20(1)
	.loc 1 250 0
	li 0,0
	.cfi_offset 65, 4
	.loc 1 251 0
	lwz 3,8(3)
.LVL7:
	.loc 1 250 0
	stw 0,4(31)
	.loc 1 251 0
	cmpwi 7,3,0
	beq- 7,.L9
	.loc 1 251 0 is_stmt 0 discriminator 1
	bl _ZdaPv
.L9:
	.loc 1 252 0 is_stmt 1
	li 0,0
	stw 0,8(31)
	.loc 1 253 0
	lwz 0,20(1)
	lwz 31,12(1)
.LVL8:
	mtlr 0
	addi 1,1,16
.LCFI1:
	.cfi_def_cfa_offset 0
	.cfi_restore 31
	blr
	.cfi_endproc
.LFE1473:
	.size	_ZN9idWinding5ClearEv, .-_ZN9idWinding5ClearEv
	.section	.text._ZN9idWindingD2Ev,"axG",@progbits,_ZN9idWindingD5Ev,comdat
	.align 2
	.weak	_ZN9idWindingD2Ev
	.type	_ZN9idWindingD2Ev, @function
_ZN9idWindingD2Ev:
.LFB1461:
	.loc 1 183 0
	.cfi_startproc
.LVL9:
	mflr 0
	stwu 1,-16(1)
.LCFI2:
	.cfi_def_cfa_offset 16
	.cfi_register 65, 0
.LBB517:
	lis 9,_ZTV9idWinding+8@ha
.LBE517:
	stw 31,12(1)
	mr 31,3
	.cfi_offset 31, -4
	stw 0,20(1)
.LBB518:
	.loc 1 183 0
	la 0,_ZTV9idWinding+8@l(9)
	.cfi_offset 65, 4
	.loc 1 184 0
	lwz 3,8(3)
.LVL10:
	.loc 1 183 0
	stw 0,0(31)
	.loc 1 184 0
	cmpwi 7,3,0
	beq- 7,.L11
	.loc 1 184 0 is_stmt 0 discriminator 1
	bl _ZdaPv
.L11:
	.loc 1 185 0 is_stmt 1
	li 0,0
	stw 0,8(31)
.LBE518:
	.loc 1 186 0
	lwz 0,20(1)
	lwz 31,12(1)
.LVL11:
	mtlr 0
	addi 1,1,16
.LCFI3:
	.cfi_def_cfa_offset 0
	.cfi_restore 31
	blr
	.cfi_endproc
.LFE1461:
	.size	_ZN9idWindingD2Ev, .-_ZN9idWindingD2Ev
	.section	".text"
	.align 2
	.globl _ZN12idForce_DragD2Ev
	.type	_ZN12idForce_DragD2Ev, @function
_ZN12idForce_DragD2Ev:
.LFB2816:
	.loc 3 60 0
	.cfi_startproc
.LVL12:
	mflr 0
	stwu 1,-8(1)
.LCFI4:
	.cfi_def_cfa_offset 8
	.cfi_register 65, 0
.LBB519:
	lis 9,_ZTV12idForce_Drag+8@ha
.LBE519:
	stw 0,12(1)
.LBB520:
	.loc 3 60 0
	la 0,_ZTV12idForce_Drag+8@l(9)
	.cfi_offset 65, 4
	stw 0,0(3)
	bl _ZN7idForceD2Ev
.LVL13:
.LBE520:
	.loc 3 61 0
	lwz 0,12(1)
	addi 1,1,8
.LCFI5:
	.cfi_def_cfa_offset 0
	mtlr 0
	blr
	.cfi_endproc
.LFE2816:
	.size	_ZN12idForce_DragD2Ev, .-_ZN12idForce_DragD2Ev
	.align 2
	.globl _ZN12idForce_DragD0Ev
	.type	_ZN12idForce_DragD0Ev, @function
_ZN12idForce_DragD0Ev:
.LFB2818:
	.loc 3 60 0
	.cfi_startproc
.LVL14:
	stwu 1,-16(1)
.LCFI6:
	.cfi_def_cfa_offset 16
	mflr 0
	stw 31,12(1)
	mr 31,3
	.cfi_offset 31, -4
	.cfi_register 65, 0
	stw 0,20(1)
	.loc 3 61 0
	.cfi_offset 65, 4
	bl _ZN12idForce_DragD1Ev
.LVL15:
	mr 3,31
	bl _ZN7idClassdlEPv
	lwz 0,20(1)
	lwz 31,12(1)
.LVL16:
	mtlr 0
	addi 1,1,16
.LCFI7:
	.cfi_def_cfa_offset 0
	.cfi_restore 31
	blr
	.cfi_endproc
.LFE2818:
	.size	_ZN12idForce_DragD0Ev, .-_ZN12idForce_DragD0Ev
	.align 2
	.type	_Z41__static_initialization_and_destruction_0ii.constprop.16, @function
_Z41__static_initialization_and_destruction_0ii.constprop.16:
.LFB3125:
	.loc 3 159 0
	.cfi_startproc
.LVL17:
	cmpwi 7,3,1
	mflr 0
	stwu 1,-40(1)
.LCFI8:
	.cfi_def_cfa_offset 40
	.cfi_register 65, 0
	stw 0,44(1)
	stw 30,32(1)
	stw 31,36(1)
	.loc 3 159 0
	beq- 7,.L20
	.cfi_offset 31, -4
	.cfi_offset 30, -8
	.cfi_offset 65, 4
	.loc 3 34 0
	cmpwi 7,3,0
	bne- 7,.L17
.LVL18:
.LBB531:
.LBB532:
	lis 3,.LANCHOR0@ha
.LVL19:
	la 3,.LANCHOR0@l(3)
	bl _ZN10idTypeInfoD1Ev
.LVL20:
.L17:
.LBE532:
.LBE531:
	.loc 3 159 0
	lwz 0,44(1)
	lwz 30,32(1)
	mtlr 0
	lwz 31,36(1)
	addi 1,1,40
	.cfi_remember_state
.LCFI9:
	.cfi_def_cfa_offset 0
	.cfi_restore 31
	.cfi_restore 30
	blr
.LVL21:
.L20:
.LCFI10:
	.cfi_restore_state
	.file 4 "d:/Data/Nintendo/DoomGX/src/game/physics/../Game_local.h"
	.loc 4 694 0
	lis 9,_ZN6idMath8M_SEC2MSE@ha
	.loc 4 121 0
	lis 11,.LANCHOR0@ha
	.loc 4 694 0
	lfs 0,_ZN6idMath8M_SEC2MSE@l(9)
	.loc 4 121 0
	la 11,.LANCHOR0@l(11)
.LBB533:
.LBB534:
	.file 5 "d:/Data/Nintendo/DoomGX/src/game/physics/../../idlib/../idlib/math/Vector.h"
	.loc 5 396 0
	li 12,0
.LBE534:
.LBE533:
	.loc 4 121 0
	li 30,3
.LBB538:
.LBB535:
	.loc 5 396 0
	stw 12,84(11)
.LBE535:
.LBE538:
	.loc 4 694 0
	fadds 0,0,0
.LBB539:
.LBB536:
	.loc 5 397 0
	stw 12,88(11)
	.loc 5 398 0
	lis 12,.LC0@ha
	lwz 12,.LC0@l(12)
.LBE536:
.LBE539:
.LBB540:
.LBB541:
	.file 6 "d:/Data/Nintendo/DoomGX/src/game/physics/../../idlib/../idlib/math/Math.h"
	.loc 6 825 0
	addi 31,11,96
	fctiwz 0,0
.LBE541:
.LBE540:
	.loc 4 121 0
	stw 30,80(11)
.LVL22:
.LBB543:
.LBB537:
	.loc 5 398 0
	stw 12,92(11)
.LVL23:
.LBE537:
.LBE543:
	.file 7 "d:/Data/Nintendo/DoomGX/src/game/physics/../Player.h"
	.loc 7 69 0
	li 12,10
	stw 12,100(11)
	.loc 3 34 0
	mr 3,11
.LVL24:
	addi 6,11,104
	lis 11,_ZN7idClass5SpawnEv@ha
	la 11,_ZN7idClass5SpawnEv@l(11)
.LBB544:
.LBB542:
	.loc 6 825 0
	stfiwx 0,0,31
.LVL25:
.LBE542:
.LBE544:
	.loc 3 34 0
	stw 11,8(1)
	lis 11,_ZNK7idClass4SaveEP10idSaveGame@ha
	la 11,_ZNK7idClass4SaveEP10idSaveGame@l(11)
	lis 4,.LC1@ha
	stw 11,16(1)
	lis 5,.LC2@ha
	lis 7,_ZN12idForce_Drag14CreateInstanceEv@ha
	lis 11,_ZN7idClass7RestoreEP13idRestoreGame@ha
	li 0,0
	la 11,_ZN7idClass7RestoreEP13idRestoreGame@l(11)
	la 4,.LC1@l(4)
	la 5,.LC2@l(5)
	la 7,_ZN12idForce_Drag14CreateInstanceEv@l(7)
	addi 8,1,8
	addi 9,1,16
	addi 10,1,24
	stw 0,12(1)
	stw 0,20(1)
	stw 11,24(1)
	stw 0,28(1)
	bl _ZN10idTypeInfoC1EPKcS1_P11idEventFuncI7idClassEPFPS3_vEMS3_FvvEMS3_KFvP10idSaveGameEMS3_FvP13idRestoreGameE
	b .L17
	.cfi_endproc
.LFE3125:
	.size	_Z41__static_initialization_and_destruction_0ii.constprop.16, .-_Z41__static_initialization_and_destruction_0ii.constprop.16
	.section	.text._ZN9idWindingD0Ev,"axG",@progbits,_ZN9idWindingD5Ev,comdat
	.align 2
	.weak	_ZN9idWindingD0Ev
	.type	_ZN9idWindingD0Ev, @function
_ZN9idWindingD0Ev:
.LFB1463:
	.loc 1 183 0
	.cfi_startproc
.LVL26:
	mflr 0
	stwu 1,-16(1)
.LCFI11:
	.cfi_def_cfa_offset 16
	.cfi_register 65, 0
.LBB548:
.LBB549:
.LBB550:
	lis 9,_ZTV9idWinding+8@ha
.LBE550:
.LBE549:
.LBE548:
	stw 31,12(1)
	mr 31,3
	.cfi_offset 31, -4
.LVL27:
	stw 0,20(1)
.LBB555:
.LBB553:
.LBB551:
	.loc 1 183 0
	la 0,_ZTV9idWinding+8@l(9)
	.cfi_offset 65, 4
	.loc 1 184 0
	lwz 3,8(3)
.LVL28:
	.loc 1 183 0
	stw 0,0(31)
	.loc 1 184 0
	cmpwi 7,3,0
	beq- 7,.L22
	bl _ZdaPv
.L22:
	.loc 1 185 0
	li 0,0
.LBE551:
.LBE553:
.LBE555:
	.loc 1 186 0
	mr 3,31
.LBB556:
.LBB554:
.LBB552:
	.loc 1 185 0
	stw 0,8(31)
.LBE552:
.LBE554:
.LBE556:
	.loc 1 186 0
	bl _ZdlPv
	lwz 0,20(1)
	lwz 31,12(1)
.LVL29:
	mtlr 0
	addi 1,1,16
.LCFI12:
	.cfi_def_cfa_offset 0
	.cfi_restore 31
	blr
	.cfi_endproc
.LFE1463:
	.size	_ZN9idWindingD0Ev, .-_ZN9idWindingD0Ev
	.section	.text._ZN14idFixedWindingD0Ev,"axG",@progbits,_ZN14idFixedWindingD5Ev,comdat
	.align 2
	.weak	_ZN14idFixedWindingD0Ev
	.type	_ZN14idFixedWindingD0Ev, @function
_ZN14idFixedWindingD0Ev:
.LFB1500:
	.loc 1 380 0
	.cfi_startproc
.LVL30:
	mflr 0
	stwu 1,-8(1)
.LCFI13:
	.cfi_def_cfa_offset 8
	.cfi_register 65, 0
.LBB563:
.LBB564:
.LBB565:
.LBB566:
.LBB567:
.LBB568:
	.loc 1 183 0
	lis 11,_ZTV9idWinding+8@ha
.LBE568:
.LBE567:
.LBE566:
.LBE565:
.LBE564:
.LBE563:
	.loc 1 380 0
	stw 0,12(1)
.LBB574:
.LBB573:
.LBB572:
	.loc 1 381 0
	li 0,0
	.cfi_offset 65, 4
	stw 0,8(3)
.LVL31:
.LBB571:
.LBB570:
.LBB569:
	.loc 1 183 0
	la 0,_ZTV9idWinding+8@l(11)
	stw 0,0(3)
.LBE569:
.LBE570:
.LBE571:
.LBE572:
.LBE573:
.LBE574:
	.loc 1 382 0
	bl _ZdlPv
.LVL32:
	lwz 0,12(1)
	addi 1,1,8
.LCFI14:
	.cfi_def_cfa_offset 0
	mtlr 0
	blr
	.cfi_endproc
.LFE1500:
	.size	_ZN14idFixedWindingD0Ev, .-_ZN14idFixedWindingD0Ev
	.section	.text._ZN14idFixedWindingD2Ev,"axG",@progbits,_ZN14idFixedWindingD5Ev,comdat
	.align 2
	.weak	_ZN14idFixedWindingD2Ev
	.type	_ZN14idFixedWindingD2Ev, @function
_ZN14idFixedWindingD2Ev:
.LFB1498:
	.loc 1 380 0
	.cfi_startproc
.LVL33:
.LBB579:
	.loc 1 381 0
	li 0,0
.LBB580:
.LBB581:
.LBB582:
	.loc 1 183 0
	lis 9,_ZTV9idWinding+8@ha
.LBE582:
.LBE581:
.LBE580:
	.loc 1 381 0
	stw 0,8(3)
.LVL34:
.LBB585:
.LBB584:
.LBB583:
	.loc 1 183 0
	la 0,_ZTV9idWinding+8@l(9)
	stw 0,0(3)
.LBE583:
.LBE584:
.LBE585:
.LBE579:
	.loc 1 382 0
	blr
	.cfi_endproc
.LFE1498:
	.size	_ZN14idFixedWindingD2Ev, .-_ZN14idFixedWindingD2Ev
	.section	".text"
	.align 2
	.globl _ZN12idForce_Drag8EvaluateEi
	.type	_ZN12idForce_Drag8EvaluateEi, @function
_ZN12idForce_Drag8EvaluateEi:
.LFB2824:
	.loc 3 117 0
	.cfi_startproc
.LVL35:
	mflr 0
	stwu 1,-264(1)
.LCFI15:
	.cfi_def_cfa_offset 264
	.cfi_register 65, 0
	stw 31,196(1)
	mr 31,3
	.cfi_offset 31, -68
	stw 0,268(1)
	stfd 24,200(1)
	stfd 25,208(1)
	stfd 26,216(1)
	stfd 27,224(1)
	stfd 28,232(1)
	stfd 29,240(1)
	stfd 30,248(1)
	stfd 31,256(1)
	stw 28,184(1)
	stw 29,188(1)
	stw 30,192(1)
.LBB649:
	.loc 3 124 0
	lwz 3,8(3)
.LVL36:
	cmpwi 7,3,0
	beq- 7,.L32
	.cfi_offset 30, -72
	.cfi_offset 29, -76
	.cfi_offset 28, -80
	.cfi_offset 63, -8
	.cfi_offset 62, -16
	.cfi_offset 61, -24
	.cfi_offset 60, -32
	.cfi_offset 59, -40
	.cfi_offset 58, -48
	.cfi_offset 57, -56
	.cfi_offset 56, -64
	.cfi_offset 65, 4
	.loc 3 128 0
	lwz 9,0(3)
	lwz 4,12(31)
.LVL37:
	lwz 0,24(9)
	mtctr 0
	bctrl
.LVL38:
	.loc 3 129 0
	mr. 9,3
	beq- 0,.L34
	.loc 3 129 0 is_stmt 0 discriminator 1
	lwz 0,124(9)
	cmpwi 7,0,-1
	beq- 7,.L34
	.loc 3 130 0 is_stmt 1 discriminator 4
	lis 30,.LC3@ha
	addi 4,1,8
	lfs 1,.LC3@l(30)
	addi 5,1,36
	addi 6,1,60
	bl _ZNK11idClipModel17GetMassPropertiesEfRfR6idVec3R6idMat3
.LVL39:
.L38:
	.loc 3 135 0
	lwz 3,8(31)
	lwz 4,12(31)
	lwz 9,0(3)
	lwz 0,132(9)
	mtctr 0
	bctrl
	lwz 4,12(31)
	mr 29,3
	lwz 3,8(31)
	lwz 9,0(3)
	lwz 0,136(9)
	mtctr 0
	bctrl
.LVL40:
.LBB650:
.LBB651:
.LBB652:
	.file 8 "d:/Data/Nintendo/DoomGX/src/game/physics/../../idlib/../idlib/math/Matrix.h"
	.loc 8 454 0
	lfs 0,40(1)
	lfs 13,12(3)
	lfs 11,16(3)
	lfs 12,20(3)
	fmuls 11,0,11
.LBE652:
.LBE651:
.LBE650:
.LBB661:
.LBB662:
	lfs 10,0(3)
.LBE662:
.LBE661:
.LBB668:
.LBB657:
.LBB653:
	fmuls 12,0,12
.LBE653:
.LBE657:
.LBE668:
.LBB669:
.LBB663:
	lfs 8,4(3)
.LBE663:
.LBE669:
.LBB670:
.LBB658:
.LBB654:
	fmuls 0,0,13
.LBE654:
.LBE658:
.LBE670:
.LBB671:
.LBB664:
	lfs 9,8(3)
.LBE664:
.LBE671:
.LBB672:
.LBB659:
.LBB655:
	lfs 13,36(1)
.LBE655:
.LBE659:
.LBE672:
	.loc 3 136 0
	lwz 4,12(31)
.LBB673:
.LBB665:
	.loc 8 454 0
	fmadds 11,13,8,11
	lfs 8,28(3)
	fmadds 12,13,9,12
	lfs 9,32(3)
	fmadds 13,10,13,0
.LBE665:
.LBE673:
.LBB674:
.LBB660:
.LBB656:
	lfs 0,44(1)
.LVL41:
.LBE656:
.LBE660:
.LBE674:
.LBB675:
.LBB666:
	lfs 10,24(3)
	fmadds 11,0,8,11
.LBE666:
.LBE675:
	.loc 3 136 0
	lwz 3,8(31)
.LVL42:
.LBB676:
.LBB667:
	.loc 8 454 0
	fmadds 12,0,9,12
	.loc 5 452 0
	lfs 9,4(29)
	.loc 8 454 0
	fmadds 0,10,0,13
	.loc 5 452 0
	lfs 13,0(29)
	lfs 10,8(29)
	fadds 11,11,9
	fadds 12,12,10
.LVL43:
	fadds 0,13,0
.LBE667:
.LBE676:
.LBB677:
.LBB678:
	.loc 5 425 0
	stfs 11,40(1)
	.loc 5 426 0
	stfs 12,44(1)
	.loc 5 424 0
	stfs 0,36(1)
.LBE678:
.LBE677:
	.loc 3 136 0
	lwz 9,0(3)
	lwz 0,132(9)
	mtctr 0
	bctrl
.LVL44:
	lwz 4,12(31)
	mr 29,3
.LVL45:
	lwz 3,8(31)
	lwz 9,0(3)
	lwz 0,136(9)
	mtctr 0
	bctrl
.LVL46:
.LBB679:
.LBB680:
.LBB681:
	.loc 8 454 0
	lfs 12,20(31)
	lfs 24,16(3)
.LBE681:
.LBE680:
.LBE679:
.LBB690:
.LBB691:
.LBB692:
.LBB693:
	.loc 6 275 0
	lis 9,.LC4@ha
.LBE693:
.LBE692:
.LBE691:
.LBE690:
.LBB753:
.LBB686:
.LBB682:
	.loc 8 454 0
	lfs 13,16(31)
	fmuls 24,12,24
.LBE682:
.LBE686:
.LBE753:
.LBB754:
.LBB755:
	lfs 0,4(3)
.LBE755:
.LBE754:
.LBB764:
.LBB687:
.LBB683:
	lfs 26,12(3)
	lfs 25,20(3)
.LBE683:
.LBE687:
.LBE764:
.LBB765:
.LBB756:
	fmadds 24,13,0,24
	lfs 10,0(3)
.LBE756:
.LBE765:
.LBB766:
.LBB688:
.LBB684:
	fmuls 26,12,26
	lfs 0,24(31)
.LVL47:
.LBE684:
.LBE688:
.LBE766:
.LBB767:
.LBB757:
	lfs 11,28(3)
.LBE757:
.LBE767:
.LBB768:
.LBB689:
.LBB685:
	fmuls 12,12,25
.LBE685:
.LBE689:
.LBE768:
.LBB769:
.LBB758:
	lfs 25,8(3)
	fmadds 26,10,13,26
	lfs 10,24(3)
	fmadds 24,0,11,24
	.loc 5 452 0
	lfs 11,4(29)
	.loc 8 454 0
	fmadds 13,13,25,12
.LBE758:
.LBE769:
.LBB770:
.LBB771:
	.loc 5 431 0
	lfs 29,32(31)
.LBE771:
.LBE770:
.LBB778:
.LBB759:
	.loc 8 454 0
	fmadds 26,10,0,26
	lfs 25,32(3)
	.loc 5 452 0
	fadds 24,24,11
.LBE759:
.LBE778:
.LBB779:
.LBB772:
	.loc 5 431 0
	lfs 12,40(1)
.LBE772:
.LBE779:
.LBB780:
.LBB760:
	.loc 5 452 0
	lfs 11,0(29)
	.loc 8 454 0
	fmadds 25,0,25,13
.LBE760:
.LBE780:
.LBB781:
.LBB773:
	.loc 5 431 0
	fsubs 29,29,12
.LBE773:
.LBE781:
.LBB782:
.LBB761:
	.loc 5 452 0
	lfs 10,8(29)
.LBE761:
.LBE782:
.LBB783:
.LBB774:
	.loc 5 431 0
	lfs 31,28(31)
.LBE774:
.LBE783:
.LBB784:
.LBB785:
	fsubs 24,24,12
.LBE785:
.LBE784:
.LBB790:
.LBB762:
	.loc 5 452 0
	fadds 26,26,11
.LBE762:
.LBE790:
.LBB791:
.LBB775:
	.loc 5 431 0
	lfs 11,36(1)
.LBE775:
.LBE791:
.LBB792:
.LBB763:
	.loc 5 452 0
	fadds 25,25,10
.LBE763:
.LBE792:
.LBB793:
.LBB776:
	.loc 5 431 0
	lfs 30,36(31)
	fsubs 31,31,11
	lfs 13,44(1)
.LBE776:
.LBE793:
.LBB794:
.LBB730:
	.loc 5 649 0
	fmuls 10,29,29
.LBB712:
.LBB694:
	.loc 6 275 0
	lfs 6,.LC4@l(9)
.LBE694:
.LBE712:
.LBE730:
.LBE794:
.LBB795:
.LBB786:
	.loc 5 431 0
	fsubs 26,26,11
.LBE786:
.LBE795:
.LBB796:
.LBB731:
.LBB713:
.LBB695:
	.loc 6 276 0
	lis 9,_ZN6idMath5iSqrtE@ha
.LBE695:
.LBE713:
.LBE731:
.LBE796:
.LBB797:
.LBB798:
	.loc 5 649 0
	fmuls 0,24,24
.LBE798:
.LBE797:
.LBB850:
.LBB732:
.LBB714:
.LBB696:
	.loc 6 276 0
	la 9,_ZN6idMath5iSqrtE@l(9)
.LBE696:
.LBE714:
.LBE732:
.LBE850:
.LBB851:
.LBB777:
	.loc 5 431 0
	fsubs 30,30,13
.LVL48:
.LBE777:
.LBE851:
.LBB852:
.LBB787:
	.loc 5 649 0
	fmadds 10,31,31,10
	.loc 5 431 0
	fsubs 25,25,13
.LVL49:
.LBE787:
.LBE852:
.LBB853:
.LBB733:
	.loc 5 649 0
	fmadds 0,26,26,0
.LBE733:
.LBE853:
.LBB854:
.LBB788:
	fmadds 10,30,30,10
.LBE788:
.LBE854:
.LBB855:
.LBB734:
	fmadds 0,25,25,0
.LBE734:
.LBE855:
.LBB856:
.LBB789:
	stfs 10,168(1)
.LVL50:
.LBE789:
.LBE856:
.LBB857:
.LBB735:
.LBB715:
.LBB697:
	.loc 6 275 0
	fmuls 5,10,6
.LBE697:
.LBE715:
	.loc 5 649 0
	stfs 0,172(1)
.LBE735:
.LBE857:
.LBB858:
.LBB829:
.LBB799:
.LBB800:
	.loc 6 275 0
	fmuls 6,0,6
.LBE800:
.LBE799:
.LBE829:
.LBE858:
.LBB859:
.LBB736:
.LBB716:
.LBB698:
	.loc 6 270 0
	lwz 11,168(1)
.LVL51:
	.loc 3 117 0
	fneg 5,5
.LBE698:
.LBE716:
.LBE736:
.LBE859:
.LBB860:
.LBB830:
.LBB815:
.LBB801:
	.loc 6 270 0
	lwz 0,172(1)
.LBE801:
.LBE815:
.LBE830:
.LBE860:
.LBB861:
.LBB737:
.LBB717:
.LBB699:
	.loc 6 276 0
	rlwinm 8,11,9,24,31
	rlwinm 11,11,19,21,29
	lwzx 10,9,11
.LBE699:
.LBE717:
.LBE737:
.LBE861:
.LBB862:
.LBB831:
.LBB816:
.LBB802:
	rlwinm 7,0,19,21,29
.LBE802:
.LBE816:
.LBE831:
.LBE862:
.LBB863:
.LBB738:
.LBB718:
.LBB700:
	subfic 8,8,380
.LBE700:
.LBE718:
.LBE738:
.LBE863:
.LBB864:
.LBB832:
.LBB817:
.LBB803:
	lwzx 11,9,7
	rlwinm 6,0,9,24,31
.LBE803:
.LBE817:
.LBE832:
.LBE864:
.LBB865:
.LBB739:
.LBB719:
.LBB701:
	rlwinm 9,8,22,0,8
	or 9,9,10
.LBE701:
.LBE719:
.LBE739:
.LBE865:
.LBB866:
.LBB833:
.LBB818:
.LBB804:
	subfic 0,6,380
.LBE804:
.LBE818:
.LBE833:
.LBE866:
.LBB867:
.LBB740:
.LBB720:
.LBB702:
	.loc 6 277 0
	stw 9,176(1)
.LBE702:
.LBE720:
.LBE740:
.LBE867:
.LBB868:
.LBB834:
.LBB819:
.LBB805:
	.loc 6 276 0
	rlwinm 0,0,22,0,8
	or 0,0,11
.LBE805:
.LBE819:
.LBE834:
.LBE868:
.LBB869:
.LBB741:
.LBB721:
.LBB703:
	.loc 6 278 0
	lis 9,.LC6@ha
	.loc 6 277 0
	lfs 0,176(1)
.LBE703:
.LBE721:
.LBE741:
.LBE869:
.LBB870:
.LBB835:
.LBB820:
.LBB806:
	.loc 3 117 0
	fneg 6,6
	.loc 6 277 0
	stw 0,176(1)
.LBE806:
.LBE820:
.LBE835:
.LBE870:
.LBB871:
.LBB742:
.LBB722:
.LBB704:
	fmr 7,0
.LVL52:
.LBE704:
.LBE722:
.LBE742:
.LBE871:
.LBB872:
.LBB836:
.LBB821:
.LBB807:
	lfs 0,176(1)
.LVL53:
	fmr 8,0
.LBE807:
.LBE821:
.LBE836:
.LBE872:
.LBB873:
.LBB743:
.LBB723:
.LBB705:
	.loc 6 278 0
	lfs 0,.LC6@l(9)
	fmul 9,7,7
.LBE705:
.LBE723:
.LBE743:
.LBE873:
.LBB874:
.LBB875:
	.loc 6 545 0
	lis 9,.LC7@ha
.LBE875:
.LBE874:
.LBB881:
.LBB837:
.LBB822:
.LBB808:
	.loc 6 278 0
	fmul 10,8,8
.LVL54:
.LBE808:
.LBE822:
.LBE837:
.LBE881:
.LBB882:
.LBB744:
.LBB724:
.LBB706:
	fmadd 9,5,9,0
.LBE706:
.LBE724:
.LBE744:
.LBE882:
.LBB883:
.LBB838:
.LBB823:
.LBB809:
	fmadd 10,6,10,0
.LBE809:
.LBE823:
.LBE838:
.LBE883:
.LBB884:
.LBB745:
.LBB725:
.LBB707:
	fmul 9,7,9
.LVL55:
.LBE707:
.LBE725:
	.loc 5 654 0
	lfs 7,168(1)
.LBE745:
.LBE884:
.LBB885:
.LBB839:
.LBB824:
.LBB810:
	.loc 6 278 0
	fmul 10,8,10
.LBE810:
.LBE824:
.LBE839:
.LBE885:
.LBB886:
.LBB746:
.LBB726:
.LBB708:
	.loc 6 279 0
	fmul 27,9,9
.LBE708:
.LBE726:
.LBE746:
.LBE886:
.LBB887:
.LBB840:
.LBB825:
.LBB811:
	fmul 28,10,10
.LBE811:
.LBE825:
.LBE840:
.LBE887:
.LBB888:
.LBB747:
.LBB727:
.LBB709:
	fmadd 27,5,27,0
.LVL56:
.LBE709:
.LBE727:
.LBE747:
.LBE888:
.LBB889:
.LBB841:
.LBB826:
.LBB812:
	fmadd 28,6,28,0
.LBE812:
.LBE826:
.LBE841:
.LBE889:
.LBB890:
.LBB748:
.LBB728:
.LBB710:
	fmul 27,9,27
.LVL57:
.LBE710:
.LBE728:
.LBE748:
.LBE890:
.LBB891:
.LBB842:
.LBB827:
.LBB813:
	fmul 28,10,28
.LBE813:
.LBE827:
.LBE842:
.LBE891:
.LBB892:
.LBB749:
.LBB729:
.LBB711:
	.loc 6 280 0
	frsp 27,27
.LBE711:
.LBE729:
.LBE749:
.LBE892:
.LBB893:
.LBB843:
.LBB828:
.LBB814:
	frsp 28,28
.LBE814:
.LBE828:
.LBE843:
.LBE893:
.LBB894:
.LBB750:
	.loc 5 652 0
	fmuls 29,29,27
	.loc 5 651 0
	fmuls 31,31,27
.LVL58:
.LBE750:
.LBE894:
.LBB895:
.LBB844:
	.loc 5 652 0
	fmuls 24,24,28
.LVL59:
	.loc 5 651 0
	fmuls 26,26,28
.LVL60:
.LBE844:
.LBE895:
.LBB896:
.LBB751:
	.loc 5 653 0
	fmuls 30,30,27
.LVL61:
.LBE751:
.LBE896:
.LBB897:
.LBB898:
	.loc 5 435 0
	fmuls 0,29,24
.LVL62:
.LBE898:
.LBE897:
.LBB899:
.LBB845:
	.loc 5 653 0
	fmuls 25,25,28
.LVL63:
.LBE845:
.LBE899:
.LBB900:
.LBB752:
	.loc 5 654 0
	fmuls 27,7,27
.LVL64:
.LBE752:
.LBE900:
.LBB901:
.LBB846:
	lfs 7,172(1)
	.loc 5 435 0
	fmadds 0,31,26,0
	.loc 5 654 0
	fmuls 28,7,28
.LVL65:
.LBE846:
.LBE901:
.LBB902:
.LBB876:
	.loc 6 545 0
	lfs 7,.LC7@l(9)
.LBE876:
.LBE902:
.LBB903:
.LBB904:
	.loc 5 620 0
	fmuls 9,30,26
.LVL66:
.LBE904:
.LBE903:
.LBB906:
.LBB847:
	.loc 5 435 0
	fmadds 0,30,25,0
.LBE847:
.LBE906:
.LBB907:
.LBB905:
	.loc 5 620 0
	fmuls 8,29,25
	fmuls 10,31,24
.LBE905:
.LBE907:
.LBB908:
.LBB877:
	.loc 6 545 0
	fcmpu 7,0,7
.LBE877:
.LBE908:
.LBB909:
.LBB848:
	.loc 5 620 0
	fmsubs 24,30,24,8
.LBE848:
.LBE909:
.LBB910:
.LBB878:
	.loc 6 545 0
	cror 30,28,30
.LBE878:
.LBE910:
.LBB911:
.LBB849:
	.loc 5 620 0
	fmsubs 25,31,25,9
	fmsubs 26,29,26,10
.LVL67:
.LBE849:
.LBE911:
.LBB912:
.LBB879:
	.loc 6 545 0
	bne- 7,.L41
	.loc 6 546 0
	lis 9,_ZN6idMath2PIE@ha
	lfs 1,_ZN6idMath2PIE@l(9)
.LVL68:
.L37:
.LBE879:
.LBE912:
	.loc 3 143 0
	lis 9,_ZN6idMath9M_RAD2DEGE@ha
.LBB913:
.LBB914:
	.file 9 "d:/Data/Nintendo/DoomGX/src/game/physics/../../idlib/../idlib/math/Rotation.h"
	.loc 9 112 0
	li 0,0
.LBE914:
.LBE913:
	.loc 3 143 0
	lfs 0,_ZN6idMath9M_RAD2DEGE@l(9)
	.loc 3 144 0
	addi 3,1,24
.LBB923:
.LBB921:
	.loc 9 112 0
	stb 0,160(1)
.LBE921:
.LBE923:
	.loc 3 144 0
	addi 4,1,96
	.loc 3 143 0
	fmuls 1,1,0
.LVL69:
	.loc 3 144 0
	lwz 29,8(31)
.LVL70:
.LBB924:
.LBB922:
.LBB915:
.LBB916:
	.loc 5 424 0
	stfs 11,96(1)
	.loc 5 425 0
	stfs 12,100(1)
.LBE916:
.LBE915:
	.loc 9 111 0
	stfs 1,120(1)
.LBB918:
.LBB917:
	.loc 5 426 0
	stfs 13,104(1)
.LVL71:
.LBE917:
.LBE918:
.LBB919:
.LBB920:
	.loc 5 425 0
	stfs 25,112(1)
	.loc 5 426 0
	stfs 26,116(1)
	.loc 5 424 0
	stfs 24,108(1)
.LBE920:
.LBE919:
.LBE922:
.LBE924:
	.loc 3 144 0
	lwz 9,0(29)
	lwz 28,144(9)
	bl _ZNK10idRotation17ToAngularVelocityEv
.LVL72:
	lis 9,.LC8@ha
.LBB925:
.LBB926:
	.loc 5 443 0
	lfs 25,.LC3@l(30)
.LVL73:
.LBE926:
.LBE925:
	.loc 3 144 0
	lfs 0,.LC8@l(9)
	lis 9,_ZN6idMath8M_MS2SECE@ha
	lfs 26,_ZN6idMath8M_MS2SECE@l(9)
.LVL74:
	mr 3,29
.LBB932:
.LBB929:
	.loc 5 444 0
	lfs 11,24(1)
.LBE929:
.LBE932:
	.loc 3 144 0
	addi 4,1,12
	fmuls 26,26,0
.LVL75:
.LBB933:
.LBB930:
	.loc 5 444 0
	lfs 12,28(1)
	lfs 0,32(1)
.LBE930:
.LBE933:
	.loc 3 144 0
	mtctr 28
	lwz 5,12(31)
.LBB934:
.LBB931:
	.loc 5 443 0
	fdivs 13,25,26
.LVL76:
	.loc 5 444 0
	fmuls 12,13,12
	fmuls 0,13,0
.LVL77:
	fmuls 13,13,11
.LVL78:
.LBB927:
.LBB928:
	.loc 5 397 0
	stfs 12,16(1)
	.loc 5 398 0
	stfs 0,20(1)
	.loc 5 396 0
	stfs 13,12(1)
.LBE928:
.LBE927:
.LBE931:
.LBE934:
	.loc 3 144 0
	bctrl
.LVL79:
	.loc 3 146 0
	lwz 3,8(31)
	lwz 4,12(31)
	lwz 9,0(3)
	lwz 0,148(9)
	mtctr 0
	bctrl
	lfs 0,4(31)
.LVL80:
	fsubs 28,27,28
.LBB935:
.LBB936:
	.loc 5 452 0
	lfs 13,0(3)
.LBE936:
.LBE935:
	.loc 3 146 0
	fsubs 25,25,0
.LVL81:
	.loc 5 452 0
	lfs 11,4(3)
	lfs 12,8(3)
	.loc 3 147 0
	addi 4,1,48
	lwz 9,8(31)
	.loc 3 146 0
	fmuls 28,28,25
	.loc 3 147 0
	lwz 5,12(31)
	mr 3,9
.LVL82:
	.loc 3 146 0
	fdivs 28,28,26
.LVL83:
.LBB938:
.LBB939:
	.loc 5 439 0
	fmuls 29,28,29
.LVL84:
	fmuls 30,28,30
.LVL85:
	fmuls 31,28,31
.LVL86:
.LBE939:
.LBE938:
	.loc 5 452 0
	fmadds 29,0,11,29
.LVL87:
	fmadds 30,0,12,30
.LVL88:
.LBB940:
.LBB937:
	fmadds 0,0,13,31
	.loc 5 425 0
	stfs 29,52(1)
	.loc 5 426 0
	stfs 30,56(1)
	.loc 5 424 0
	stfs 0,48(1)
.LBE937:
.LBE940:
	.loc 3 147 0
	lwz 9,0(9)
	lwz 0,140(9)
	mtctr 0
	bctrl
.LVL89:
.L32:
.LBE649:
	.loc 3 148 0
	lwz 0,268(1)
	lwz 28,184(1)
	mtlr 0
	lwz 29,188(1)
	lwz 30,192(1)
	lwz 31,196(1)
.LVL90:
	lfd 24,200(1)
	lfd 25,208(1)
	lfd 26,216(1)
	lfd 27,224(1)
	lfd 28,232(1)
	lfd 29,240(1)
	lfd 30,248(1)
	lfd 31,256(1)
	addi 1,1,264
	.cfi_remember_state
.LCFI16:
	.cfi_def_cfa_offset 0
	.cfi_restore 63
	.cfi_restore 62
	.cfi_restore 61
	.cfi_restore 60
	.cfi_restore 59
	.cfi_restore 58
	.cfi_restore 57
	.cfi_restore 56
	.cfi_restore 31
	.cfi_restore 30
	.cfi_restore 29
	.cfi_restore 28
	blr
.LVL91:
.L34:
.LCFI17:
	.cfi_restore_state
.LBB944:
.LBB941:
.LBB942:
	.loc 5 416 0
	li 0,0
	lis 30,.LC3@ha
	stw 0,44(1)
	stw 0,40(1)
	stw 0,36(1)
	b .L38
.LVL92:
.L41:
.LBE942:
.LBE941:
.LBB943:
.LBB880:
	.loc 6 548 0
	lfs 10,.LC3@l(30)
	.loc 6 549 0
	lis 9,.LC9@ha
	lfs 1,.LC9@l(9)
	.loc 6 548 0
	fcmpu 7,0,10
	cror 30,29,30
	beq+ 7,.L37
	.loc 6 551 0
	fmr 1,0
	bl acosf
.LVL93:
	lfs 11,36(1)
	lfs 12,40(1)
	lfs 13,44(1)
	b .L37
.LBE880:
.LBE943:
.LBE944:
	.cfi_endproc
.LFE2824:
	.size	_ZN12idForce_Drag8EvaluateEi, .-_ZN12idForce_Drag8EvaluateEi
	.align 2
	.globl _ZN12idForce_DragC2Ev
	.type	_ZN12idForce_DragC2Ev, @function
_ZN12idForce_DragC2Ev:
.LFB2813:
	.loc 3 42 0
	.cfi_startproc
	.cfi_personality 0,__gxx_personality_v0
	.cfi_lsda 0,.LLSDA2813
.LVL94:
	mflr 0
	stwu 1,-16(1)
.LCFI18:
	.cfi_def_cfa_offset 16
	.cfi_register 65, 0
	stw 31,12(1)
	mr 31,3
	.cfi_offset 31, -4
	stw 0,20(1)
	stw 30,8(1)
.LEHB0:
.LBB945:
	.loc 3 42 0
	.cfi_offset 30, -8
	.cfi_offset 65, 4
	bl _ZN7idForceC2Ev
.LEHE0:
.LVL95:
	lis 9,_ZTV12idForce_Drag+8@ha
	.loc 3 44 0
	lis 3,.LC10@ha
	.loc 3 42 0
	la 0,_ZTV12idForce_Drag+8@l(9)
	.loc 3 44 0
	la 3,.LC10@l(3)
	.loc 3 42 0
	stw 0,0(31)
	.loc 3 44 0
	li 4,40
.LEHB1:
	crxor 6,6,6
	bl _Z15Sys_DebugPrintfPKcz
.LEHE1:
	.loc 3 47 0
	lis 9,.LC4@ha
	.loc 3 49 0
	li 10,0
	.loc 3 47 0
	lwz 0,.LC4@l(9)
.LBB946:
.LBB947:
	.loc 5 424 0
	lis 9,vec3_origin@ha
.LBE947:
.LBE946:
	.loc 3 49 0
	stw 10,8(31)
.LBB951:
.LBB948:
	.loc 5 424 0
	la 8,vec3_origin@l(9)
.LBE948:
.LBE951:
	.loc 3 47 0
	stw 0,4(31)
.LVL96:
.LBB952:
.LBB949:
	.loc 5 424 0
	lwz 11,vec3_origin@l(9)
.LBE949:
.LBE952:
.LBB953:
.LBB954:
	.loc 5 426 0
	lwz 0,8(8)
.LBE954:
.LBE953:
.LBB956:
.LBB950:
	.loc 5 425 0
	lwz 9,4(8)
	.loc 5 424 0
	stw 11,28(31)
	.loc 5 425 0
	stw 9,32(31)
.LBE950:
.LBE956:
	.loc 3 50 0
	stw 10,12(31)
.LVL97:
.LBB957:
.LBB955:
	.loc 5 424 0
	stw 11,16(31)
	.loc 5 425 0
	stw 9,20(31)
	.loc 5 426 0
	stw 0,24(31)
.LVL98:
.LBE955:
.LBE957:
.LBB958:
.LBB959:
	stw 0,36(31)
.LBE959:
.LBE958:
.LBE945:
	.loc 3 53 0
	lwz 0,20(1)
	lwz 30,8(1)
	mtlr 0
	lwz 31,12(1)
.LVL99:
	addi 1,1,16
	.cfi_remember_state
.LCFI19:
	.cfi_def_cfa_offset 0
	.cfi_restore 31
	.cfi_restore 30
	blr
.LVL100:
.L44:
.LCFI20:
	.cfi_restore_state
	mr 30,3
.LBB960:
	.loc 3 42 0
	mr 3,31
	bl _ZN7idForceD2Ev
	mr 3,30
.LEHB2:
	bl _Unwind_Resume
.LEHE2:
.LBE960:
	.cfi_endproc
.LFE2813:
	.globl __gxx_personality_v0
	.section	.gcc_except_table,"a",@progbits
.LLSDA2813:
	.byte	0xff
	.byte	0xff
	.byte	0x1
	.uleb128 .LLSDACSE2813-.LLSDACSB2813
.LLSDACSB2813:
	.uleb128 .LEHB0-.LFB2813
	.uleb128 .LEHE0-.LEHB0
	.uleb128 0
	.uleb128 0
	.uleb128 .LEHB1-.LFB2813
	.uleb128 .LEHE1-.LEHB1
	.uleb128 .L44-.LFB2813
	.uleb128 0
	.uleb128 .LEHB2-.LFB2813
	.uleb128 .LEHE2-.LEHB2
	.uleb128 0
	.uleb128 0
.LLSDACSE2813:
	.section	".text"
	.size	_ZN12idForce_DragC2Ev, .-_ZN12idForce_DragC2Ev
	.align 2
	.globl _ZN12idForce_Drag14CreateInstanceEv
	.type	_ZN12idForce_Drag14CreateInstanceEv, @function
_ZN12idForce_Drag14CreateInstanceEv:
.LFB2810:
	.loc 3 34 0
	.cfi_startproc
	.cfi_personality 0,__gxx_personality_v0
	.cfi_lsda 0,.LLSDA2810
	mflr 0
	stwu 1,-24(1)
.LCFI21:
	.cfi_def_cfa_offset 24
	.cfi_register 65, 0
.LBB961:
	li 3,40
.LBE961:
	stw 30,16(1)
	stw 0,28(1)
	stw 31,20(1)
.LEHB3:
.LBB962:
	.loc 3 34 0
	.cfi_offset 31, -4
	.cfi_offset 65, 4
	.cfi_offset 30, -8
	bl _ZN7idClassnwEj
.LEHE3:
	mr 31,3
.LEHB4:
	bl _ZN12idForce_DragC1Ev
.LEHE4:
.LVL101:
	.loc 3 34 0 is_stmt 0 discriminator 2
	mr 3,31
.LEHB5:
	bl _ZN7idClass23FindUninitializedMemoryEv
.LEHE5:
.LVL102:
.L50:
.LBE962:
	.loc 3 34 0
	lwz 0,28(1)
	mr 3,31
	lwz 30,16(1)
	mtlr 0
	lwz 31,20(1)
	addi 1,1,24
	.cfi_remember_state
.LCFI22:
	.cfi_def_cfa_offset 0
	.cfi_restore 31
	.cfi_restore 30
	blr
.L51:
.L47:
.LCFI23:
	.cfi_restore_state
.LBB963:
	cmpwi 7,4,1
	beq- 7,.L49
.LEHB6:
	bl _Unwind_Resume
.LEHE6:
.L52:
	mr 30,3
	mr 3,31
	stw 4,8(1)
	bl _ZN7idClassdlEPv
	mr 3,30
	lwz 4,8(1)
	b .L47
.L49:
.LBE963:
.LBB964:
	bl __cxa_begin_catch
	li 31,0
	bl __cxa_end_catch
	b .L50
.LBE964:
	.cfi_endproc
.LFE2810:
	.section	.gcc_except_table
	.align 2
.LLSDA2810:
	.byte	0xff
	.byte	0
	.uleb128 .LLSDATT2810-.LLSDATTD2810
.LLSDATTD2810:
	.byte	0x1
	.uleb128 .LLSDACSE2810-.LLSDACSB2810
.LLSDACSB2810:
	.uleb128 .LEHB3-.LFB2810
	.uleb128 .LEHE3-.LEHB3
	.uleb128 .L51-.LFB2810
	.uleb128 0x1
	.uleb128 .LEHB4-.LFB2810
	.uleb128 .LEHE4-.LEHB4
	.uleb128 .L52-.LFB2810
	.uleb128 0x3
	.uleb128 .LEHB5-.LFB2810
	.uleb128 .LEHE5-.LEHB5
	.uleb128 .L51-.LFB2810
	.uleb128 0x1
	.uleb128 .LEHB6-.LFB2810
	.uleb128 .LEHE6-.LEHB6
	.uleb128 0
	.uleb128 0
.LLSDACSE2810:
	.byte	0x1
	.byte	0
	.byte	0
	.byte	0x7d
	.align 2
	.long	_ZTI12idAllocError
.LLSDATT2810:
	.section	".text"
	.size	_ZN12idForce_Drag14CreateInstanceEv, .-_ZN12idForce_Drag14CreateInstanceEv
	.align 2
	.globl _ZN12idForce_Drag4InitEf
	.type	_ZN12idForce_Drag4InitEf, @function
_ZN12idForce_Drag4InitEf:
.LFB2819:
	.loc 3 68 0 is_stmt 1
	.cfi_startproc
.LVL103:
	.loc 3 69 0
	lis 9,.LC9@ha
	lfs 0,.LC9@l(9)
	fcmpu 7,1,0
	cror 30,29,30
	bnelr- 7
	.loc 3 69 0 is_stmt 0 discriminator 1
	lis 9,.LC3@ha
	lfs 0,.LC3@l(9)
	fcmpu 7,1,0
	bnllr- 7
	.loc 3 70 0 is_stmt 1
	stfs 1,4(3)
	blr
	.cfi_endproc
.LFE2819:
	.size	_ZN12idForce_Drag4InitEf, .-_ZN12idForce_Drag4InitEf
	.align 2
	.globl _ZN12idForce_Drag10SetPhysicsEP9idPhysicsiRK6idVec3
	.type	_ZN12idForce_Drag10SetPhysicsEP9idPhysicsiRK6idVec3, @function
_ZN12idForce_Drag10SetPhysicsEP9idPhysicsiRK6idVec3:
.LFB2820:
	.loc 3 79 0
	.cfi_startproc
.LVL104:
	.loc 3 80 0
	stw 4,8(3)
	.loc 3 83 0
	.loc 3 81 0
	stw 5,12(3)
.LVL105:
.LBB965:
.LBB966:
	.loc 5 424 0
	lwz 0,0(6)
	stw 0,16(3)
	.loc 5 425 0
	lwz 0,4(6)
	stw 0,20(3)
	.loc 5 426 0
	lwz 0,8(6)
	stw 0,24(3)
.LBE966:
.LBE965:
	.loc 3 83 0
	blr
	.cfi_endproc
.LFE2820:
	.size	_ZN12idForce_Drag10SetPhysicsEP9idPhysicsiRK6idVec3, .-_ZN12idForce_Drag10SetPhysicsEP9idPhysicsiRK6idVec3
	.align 2
	.globl _ZN12idForce_Drag15SetDragPositionERK6idVec3
	.type	_ZN12idForce_Drag15SetDragPositionERK6idVec3, @function
_ZN12idForce_Drag15SetDragPositionERK6idVec3:
.LFB2821:
	.loc 3 90 0
	.cfi_startproc
.LVL106:
.LBB967:
.LBB968:
	.loc 5 424 0
	lwz 0,0(4)
.LVL107:
.LBE968:
.LBE967:
	.loc 3 92 0
.LBB970:
.LBB969:
	.loc 5 424 0
	stw 0,28(3)
	.loc 5 425 0
	lwz 0,4(4)
	stw 0,32(3)
	.loc 5 426 0
	lwz 0,8(4)
	stw 0,36(3)
.LBE969:
.LBE970:
	.loc 3 92 0
	blr
	.cfi_endproc
.LFE2821:
	.size	_ZN12idForce_Drag15SetDragPositionERK6idVec3, .-_ZN12idForce_Drag15SetDragPositionERK6idVec3
	.align 2
	.globl _ZNK12idForce_Drag15GetDragPositionEv
	.type	_ZNK12idForce_Drag15GetDragPositionEv, @function
_ZNK12idForce_Drag15GetDragPositionEv:
.LFB2822:
	.loc 3 99 0
	.cfi_startproc
.LVL108:
	.loc 3 101 0
	addi 3,3,28
.LVL109:
	blr
	.cfi_endproc
.LFE2822:
	.size	_ZNK12idForce_Drag15GetDragPositionEv, .-_ZNK12idForce_Drag15GetDragPositionEv
	.align 2
	.globl _ZNK12idForce_Drag18GetDraggedPositionEv
	.type	_ZNK12idForce_Drag18GetDraggedPositionEv, @function
_ZNK12idForce_Drag18GetDraggedPositionEv:
.LFB2823:
	.loc 3 108 0
	.cfi_startproc
.LVL110:
	mflr 0
	stwu 1,-24(1)
.LCFI24:
	.cfi_def_cfa_offset 24
	.cfi_register 65, 0
	stw 29,12(1)
	stw 30,16(1)
	mr 30,3
	.cfi_offset 30, -8
	.cfi_offset 29, -12
	stw 31,20(1)
	mr 31,4
	.cfi_offset 31, -4
	stw 0,28(1)
	.loc 3 109 0
	lwz 9,8(4)
	lwz 4,12(4)
.LVL111:
	lwz 11,0(9)
	mr 3,9
.LVL112:
	lwz 0,132(11)
	.cfi_offset 65, 4
	mtctr 0
	bctrl
	lwz 4,12(31)
	mr 29,3
	lwz 3,8(31)
	lwz 9,0(3)
	lwz 0,136(9)
	mtctr 0
	bctrl
.LVL113:
.LBB981:
.LBB982:
.LBB983:
	.loc 8 454 0
	lfs 0,20(31)
	lfs 13,12(3)
	lfs 11,16(3)
	lfs 12,20(3)
	fmuls 11,0,11
.LBE983:
.LBE982:
.LBE981:
.LBB992:
.LBB993:
	lfs 8,4(3)
.LBE993:
.LBE992:
.LBB1001:
.LBB988:
.LBB984:
	fmuls 12,0,12
.LBE984:
.LBE988:
.LBE1001:
.LBB1002:
.LBB996:
	lfs 9,8(3)
.LBE996:
.LBE1002:
.LBB1003:
.LBB989:
.LBB985:
	fmuls 0,0,13
.LBE985:
.LBE989:
.LBE1003:
.LBB1004:
.LBB997:
	lfs 10,0(3)
.LBE997:
.LBE1004:
.LBB1005:
.LBB990:
.LBB986:
	lfs 13,16(31)
.LBE986:
.LBE990:
.LBE1005:
.LBB1006:
.LBB998:
	fmadds 11,13,8,11
	lfs 8,28(3)
	fmadds 12,13,9,12
	lfs 9,32(3)
	fmadds 13,10,13,0
.LBE998:
.LBE1006:
.LBB1007:
.LBB991:
.LBB987:
	lfs 0,24(31)
.LVL114:
.LBE987:
.LBE991:
.LBE1007:
.LBB1008:
.LBB999:
	lfs 10,24(3)
.LBE999:
.LBE1008:
	.loc 3 110 0
	mr 3,30
.LVL115:
.LBB1009:
.LBB1000:
	.loc 8 454 0
	fmadds 12,0,9,12
	.loc 5 452 0
	lfs 9,4(29)
	.loc 8 454 0
	fmadds 11,0,8,11
	fmadds 0,10,0,13
	.loc 5 452 0
	lfs 10,8(29)
	lfs 13,0(29)
	fadds 11,11,9
	fadds 12,12,10
.LVL116:
	fadds 0,13,0
.LBB994:
.LBB995:
	.loc 5 397 0
	stfs 11,4(30)
	.loc 5 398 0
	stfs 12,8(30)
	.loc 5 396 0
	stfs 0,0(30)
.LBE995:
.LBE994:
.LBE1000:
.LBE1009:
	.loc 3 110 0
	lwz 0,28(1)
	lwz 29,12(1)
.LVL117:
	mtlr 0
	lwz 30,16(1)
.LVL118:
	lwz 31,20(1)
.LVL119:
	addi 1,1,24
.LCFI25:
	.cfi_def_cfa_offset 0
	.cfi_restore 31
	.cfi_restore 30
	.cfi_restore 29
	blr
	.cfi_endproc
.LFE2823:
	.size	_ZNK12idForce_Drag18GetDraggedPositionEv, .-_ZNK12idForce_Drag18GetDraggedPositionEv
	.section	.text.startup,"ax",@progbits
	.align 2
	.type	_GLOBAL__sub_I__ZN12idForce_Drag4TypeE, @function
_GLOBAL__sub_I__ZN12idForce_Drag4TypeE:
.LFB3108:
	.loc 3 159 0
	.cfi_startproc
	.loc 3 159 0
	li 3,1
	b _Z41__static_initialization_and_destruction_0ii.constprop.16
	.cfi_endproc
.LFE3108:
	.size	_GLOBAL__sub_I__ZN12idForce_Drag4TypeE, .-_GLOBAL__sub_I__ZN12idForce_Drag4TypeE
	.section	.ctors,"aw",@progbits
	.align 2
	.long	_GLOBAL__sub_I__ZN12idForce_Drag4TypeE
	.section	.text.exit,"ax",@progbits
	.align 2
	.type	_GLOBAL__sub_D__ZN12idForce_Drag4TypeE, @function
_GLOBAL__sub_D__ZN12idForce_Drag4TypeE:
.LFB3109:
	.loc 3 159 0
	.cfi_startproc
	.loc 3 159 0
	li 3,0
	b _Z41__static_initialization_and_destruction_0ii.constprop.16
	.cfi_endproc
.LFE3109:
	.size	_GLOBAL__sub_D__ZN12idForce_Drag4TypeE, .-_GLOBAL__sub_D__ZN12idForce_Drag4TypeE
	.section	.dtors,"aw",@progbits
	.align 2
	.long	_GLOBAL__sub_D__ZN12idForce_Drag4TypeE
	.weak	_ZTS9idWinding
	.section	.rodata._ZTS9idWinding,"aG",@progbits,_ZTS9idWinding,comdat
	.align 2
	.type	_ZTS9idWinding, @object
	.size	_ZTS9idWinding, 11
_ZTS9idWinding:
	.string	"9idWinding"
	.weak	_ZTI9idWinding
	.section	.sdata._ZTI9idWinding,"awG",@progbits,_ZTI9idWinding,comdat
	.align 2
	.type	_ZTI9idWinding, @object
	.size	_ZTI9idWinding, 8
_ZTI9idWinding:
	.long	_ZTVN10__cxxabiv117__class_type_infoE+8
	.long	_ZTS9idWinding
	.weak	_ZTS14idFixedWinding
	.section	.rodata._ZTS14idFixedWinding,"aG",@progbits,_ZTS14idFixedWinding,comdat
	.align 2
	.type	_ZTS14idFixedWinding, @object
	.size	_ZTS14idFixedWinding, 17
_ZTS14idFixedWinding:
	.string	"14idFixedWinding"
	.weak	_ZTI14idFixedWinding
	.section	.rodata._ZTI14idFixedWinding,"aG",@progbits,_ZTI14idFixedWinding,comdat
	.align 2
	.type	_ZTI14idFixedWinding, @object
	.size	_ZTI14idFixedWinding, 12
_ZTI14idFixedWinding:
	.long	_ZTVN10__cxxabiv120__si_class_type_infoE+8
	.long	_ZTS14idFixedWinding
	.long	_ZTI9idWinding
	.weak	_ZTS12idForce_Drag
	.section	.rodata._ZTS12idForce_Drag,"aG",@progbits,_ZTS12idForce_Drag,comdat
	.align 2
	.type	_ZTS12idForce_Drag, @object
	.size	_ZTS12idForce_Drag, 15
_ZTS12idForce_Drag:
	.string	"12idForce_Drag"
	.weak	_ZTI12idForce_Drag
	.section	.rodata._ZTI12idForce_Drag,"aG",@progbits,_ZTI12idForce_Drag,comdat
	.align 2
	.type	_ZTI12idForce_Drag, @object
	.size	_ZTI12idForce_Drag, 12
_ZTI12idForce_Drag:
	.long	_ZTVN10__cxxabiv120__si_class_type_infoE+8
	.long	_ZTS12idForce_Drag
	.long	_ZTI7idForce
	.weak	_ZTV9idWinding
	.section	.rodata._ZTV9idWinding,"aG",@progbits,_ZTV9idWinding,comdat
	.align 3
	.type	_ZTV9idWinding, @object
	.size	_ZTV9idWinding, 24
_ZTV9idWinding:
	.long	0
	.long	_ZTI9idWinding
	.long	_ZN9idWindingD1Ev
	.long	_ZN9idWindingD0Ev
	.long	_ZN9idWinding5ClearEv
	.long	_ZN9idWinding10ReAllocateEib
	.weak	_ZTV14idFixedWinding
	.section	.rodata._ZTV14idFixedWinding,"aG",@progbits,_ZTV14idFixedWinding,comdat
	.align 3
	.type	_ZTV14idFixedWinding, @object
	.size	_ZTV14idFixedWinding, 24
_ZTV14idFixedWinding:
	.long	0
	.long	_ZTI14idFixedWinding
	.long	_ZN14idFixedWindingD1Ev
	.long	_ZN14idFixedWindingD0Ev
	.long	_ZN14idFixedWinding5ClearEv
	.long	_ZN14idFixedWinding10ReAllocateEib
	.weak	_ZTV12idForce_Drag
	.section	.rodata._ZTV12idForce_Drag,"aG",@progbits,_ZTV12idForce_Drag,comdat
	.align 3
	.type	_ZTV12idForce_Drag, @object
	.size	_ZTV12idForce_Drag, 28
_ZTV12idForce_Drag:
	.long	0
	.long	_ZTI12idForce_Drag
	.long	_ZNK12idForce_Drag7GetTypeEv
	.long	_ZN12idForce_DragD1Ev
	.long	_ZN12idForce_DragD0Ev
	.long	_ZN12idForce_Drag8EvaluateEi
	.long	_ZN12idForce_Drag13RemovePhysicsEPK9idPhysics
	.globl _ZN12idForce_Drag14eventCallbacksE
	.globl _ZN12idForce_Drag4TypeE
	.weak	_ZTI12idAllocError
	.section	.rodata._ZTI12idAllocError,"aG",@progbits,_ZTI12idAllocError,comdat
	.align 2
	.type	_ZTI12idAllocError, @object
	.size	_ZTI12idAllocError, 12
_ZTI12idAllocError:
	.long	_ZTVN10__cxxabiv120__si_class_type_infoE+8
	.long	_ZTS12idAllocError
	.long	_ZTI11idException
	.weak	_ZTS12idAllocError
	.section	.rodata._ZTS12idAllocError,"aG",@progbits,_ZTS12idAllocError,comdat
	.align 2
	.type	_ZTS12idAllocError, @object
	.size	_ZTS12idAllocError, 15
_ZTS12idAllocError:
	.string	"12idAllocError"
	.weak	_ZTI11idException
	.section	.sdata._ZTI11idException,"awG",@progbits,_ZTI11idException,comdat
	.align 2
	.type	_ZTI11idException, @object
	.size	_ZTI11idException, 8
_ZTI11idException:
	.long	_ZTVN10__cxxabiv117__class_type_infoE+8
	.long	_ZTS11idException
	.weak	_ZTS11idException
	.section	.rodata._ZTS11idException,"aG",@progbits,_ZTS11idException,comdat
	.align 2
	.type	_ZTS11idException, @object
	.size	_ZTS11idException, 14
_ZTS11idException:
	.string	"11idException"
	.weak	_ZN9idWindingD1Ev
	.set	_ZN9idWindingD1Ev,_ZN9idWindingD2Ev
	.globl _ZN12idForce_DragD1Ev
	.set	_ZN12idForce_DragD1Ev,_ZN12idForce_DragD2Ev
	.weak	_ZN14idFixedWindingD1Ev
	.set	_ZN14idFixedWindingD1Ev,_ZN14idFixedWindingD2Ev
	.globl _ZN12idForce_DragC1Ev
	.set	_ZN12idForce_DragC1Ev,_ZN12idForce_DragC2Ev
	.section	.rodata.cst4,"aM",@progbits,4
	.align 2
.LC0:
	.4byte	-997900288
.LC3:
	.4byte	1065353216
.LC4:
	.4byte	1056964608
.LC6:
	.4byte	1069547520
.LC7:
	.4byte	-1082130432
.LC8:
	.4byte	1098907648
.LC9:
	.4byte	0
	.section	.rodata.str1.4,"aMS",@progbits,1
	.align 2
.LC1:
	.string	"idForce_Drag"
	.zero	3
.LC2:
	.string	"idForce"
.LC10:
	.string	"idForce_Drag::idForce_Drag( void ) size %d\r\n"
	.section	".bss"
	.align 2
	.set	.LANCHOR0,. + 0
	.type	_ZN12idForce_Drag4TypeE, @object
	.size	_ZN12idForce_Drag4TypeE, 80
_ZN12idForce_Drag4TypeE:
	.zero	80
	.type	_ZL22NUM_RENDER_PORTAL_BITS, @object
	.size	_ZL22NUM_RENDER_PORTAL_BITS, 4
_ZL22NUM_RENDER_PORTAL_BITS:
	.zero	4
	.type	_ZL20DEFAULT_GRAVITY_VEC3, @object
	.size	_ZL20DEFAULT_GRAVITY_VEC3, 12
_ZL20DEFAULT_GRAVITY_VEC3:
	.zero	12
	.type	_ZL20CINEMATIC_SKIP_DELAY, @object
	.size	_ZL20CINEMATIC_SKIP_DELAY, 4
_ZL20CINEMATIC_SKIP_DELAY:
	.zero	4
	.type	_ZL26ASYNC_PLAYER_INV_AMMO_BITS, @object
	.size	_ZL26ASYNC_PLAYER_INV_AMMO_BITS, 4
_ZL26ASYNC_PLAYER_INV_AMMO_BITS:
	.zero	4
	.type	_ZN12idForce_Drag14eventCallbacksE, @object
	.size	_ZN12idForce_Drag14eventCallbacksE, 12
_ZN12idForce_Drag14eventCallbacksE:
	.zero	12
	.section	".text"
.Letext0:
	.file 10 "<built-in>"
	.file 11 "c:\\utils\\devkitpro\\devkitppc\\bin\\../lib/gcc/powerpc-eabi/4.6.3/include/stddef.h"
	.file 12 "c:\\utils\\devkitpro\\devkitppc\\bin\\../lib/gcc/powerpc-eabi/4.6.3/../../../../powerpc-eabi/include/sys/types.h"
	.file 13 "d:/Data/Nintendo/DoomGX/src/game/physics/../../idlib/../sys/sys_public.h"
	.file 14 "d:/Data/Nintendo/DoomGX/src/game/physics/../../idlib/../framework/Common.h"
	.file 15 "d:/Data/Nintendo/DoomGX/src/game/physics/../../idlib/../framework/CVarSystem.h"
	.file 16 "d:/Data/Nintendo/DoomGX/src/game/physics/../../idlib/../framework/FileSystem.h"
	.file 17 "d:/Data/Nintendo/DoomGX/src/game/physics/../../idlib/../idlib/Lib.h"
	.file 18 "d:/Data/Nintendo/DoomGX/src/game/physics/../../idlib/../idlib/CmdArgs.h"
	.file 19 "d:/Data/Nintendo/DoomGX/src/game/physics/../../idlib/../idlib/math/Random.h"
	.file 20 "d:/Data/Nintendo/DoomGX/src/game/physics/../../idlib/../idlib/math/Angles.h"
	.file 21 "d:/Data/Nintendo/DoomGX/src/game/physics/../../idlib/../idlib/math/Quat.h"
	.file 22 "d:/Data/Nintendo/DoomGX/src/game/physics/../../idlib/../idlib/math/Plane.h"
	.file 23 "d:/Data/Nintendo/DoomGX/src/game/physics/../../idlib/../idlib/containers/List.h"
	.file 24 "d:/Data/Nintendo/DoomGX/src/game/physics/../../idlib/../idlib/math/Ode.h"
	.file 25 "d:/Data/Nintendo/DoomGX/src/game/physics/../../idlib/../idlib/bv/Sphere.h"
	.file 26 "d:/Data/Nintendo/DoomGX/src/game/physics/../../idlib/../idlib/bv/Bounds.h"
	.file 27 "d:/Data/Nintendo/DoomGX/src/game/physics/../../idlib/../idlib/bv/Box.h"
	.file 28 "d:/Data/Nintendo/DoomGX/src/game/physics/../../idlib/../idlib/bv/Frustum.h"
	.file 29 "d:/Data/Nintendo/DoomGX/src/game/physics/../../idlib/../idlib/geometry/DrawVert.h"
	.file 30 "d:/Data/Nintendo/DoomGX/src/game/physics/../../idlib/../idlib/geometry/JointTransform.h"
	.file 31 "d:/Data/Nintendo/DoomGX/src/game/physics/../../idlib/../idlib/geometry/Surface.h"
	.file 32 "d:/Data/Nintendo/DoomGX/src/game/physics/../../idlib/../idlib/geometry/TraceModel.h"
	.file 33 "d:/Data/Nintendo/DoomGX/src/game/physics/../../idlib/../idlib/Str.h"
	.file 34 "d:/Data/Nintendo/DoomGX/src/game/physics/../../idlib/../idlib/Token.h"
	.file 35 "d:/Data/Nintendo/DoomGX/src/game/physics/../../idlib/../idlib/Lexer.h"
	.file 36 "d:/Data/Nintendo/DoomGX/src/game/physics/../../idlib/../framework/File.h"
	.file 37 "d:/Data/Nintendo/DoomGX/src/game/physics/../../idlib/../idlib/Parser.h"
	.file 38 "d:/Data/Nintendo/DoomGX/src/game/physics/../../idlib/../idlib/containers/HashIndex.h"
	.file 39 "d:/Data/Nintendo/DoomGX/src/game/physics/../../idlib/../idlib/containers/StrList.h"
	.file 40 "d:/Data/Nintendo/DoomGX/src/game/physics/../../idlib/../idlib/containers/StrPool.h"
	.file 41 "d:/Data/Nintendo/DoomGX/src/game/physics/../../idlib/../idlib/containers/PlaneSet.h"
	.file 42 "d:/Data/Nintendo/DoomGX/src/game/physics/../../idlib/../idlib/Dict.h"
	.file 43 "d:/Data/Nintendo/DoomGX/src/game/physics/../../idlib/../idlib/LangDict.h"
	.file 44 "d:/Data/Nintendo/DoomGX/src/game/physics/../../idlib/../idlib/BitMsg.h"
	.file 45 "d:/Data/Nintendo/DoomGX/src/game/physics/../../idlib/../idlib/MapFile.h"
	.file 46 "d:/Data/Nintendo/DoomGX/src/game/physics/../../idlib/../framework/CmdSystem.h"
	.file 47 "d:/Data/Nintendo/DoomGX/src/game/physics/../../idlib/../framework/UsercmdGen.h"
	.file 48 "d:/Data/Nintendo/DoomGX/src/game/physics/../../idlib/../framework/DeclManager.h"
	.file 49 "d:/Data/Nintendo/DoomGX/src/game/physics/../../idlib/../framework/DeclParticle.h"
	.file 50 "d:/Data/Nintendo/DoomGX/src/game/physics/../../idlib/../renderer/RenderWorld.h"
	.file 51 "d:/Data/Nintendo/DoomGX/src/game/physics/../../idlib/../renderer/Cinematic.h"
	.file 52 "d:/Data/Nintendo/DoomGX/src/game/physics/../../idlib/../renderer/Model.h"
	.file 53 "d:/Data/Nintendo/DoomGX/src/game/physics/../../idlib/../renderer/RenderSystem.h"
	.file 54 "d:/Data/Nintendo/DoomGX/src/game/physics/../../idlib/../sound/sound.h"
	.file 55 "d:/Data/Nintendo/DoomGX/src/game/physics/../../idlib/../ui/UserInterface.h"
	.file 56 "d:/Data/Nintendo/DoomGX/src/game/physics/../../idlib/../cm/CollisionModel.h"
	.file 57 "d:/Data/Nintendo/DoomGX/src/game/physics/../../idlib/../tools/compilers/aas/AASFile.h"
	.file 58 "d:/Data/Nintendo/DoomGX/src/game/physics/../../idlib/../game/Game.h"
	.file 59 "d:/Data/Nintendo/DoomGX/src/game/physics/../../idlib/../framework/async/NetworkSystem.h"
	.file 60 "d:/Data/Nintendo/DoomGX/src/game/physics/../../idlib/../renderer/ModelManager.h"
	.file 61 "d:/Data/Nintendo/DoomGX/src/game/physics/../../idlib/../tools/compilers/aas/AASFileManager.h"
	.file 62 "d:/Data/Nintendo/DoomGX/src/game/physics/../../idlib/../framework/Session.h"
	.file 63 "d:/Data/Nintendo/DoomGX/src/game/physics/../../idlib/../ui/ListGUI.h"
	.file 64 "d:/Data/Nintendo/DoomGX/src/game/physics/../gamesys/Event.h"
	.file 65 "d:/Data/Nintendo/DoomGX/src/game/physics/../gamesys/SaveGame.h"
	.file 66 "d:/Data/Nintendo/DoomGX/src/game/physics/../Entity.h"
	.file 67 "d:/Data/Nintendo/DoomGX/src/game/physics/../../idlib/../idlib/containers/Hierarchy.h"
	.file 68 "d:/Data/Nintendo/DoomGX/src/game/physics/../physics/Clip.h"
	.file 69 "d:/Data/Nintendo/DoomGX/src/game/physics/../physics/Force_Drag.h"
	.file 70 "d:/Data/Nintendo/DoomGX/src/game/physics/../ai/AAS.h"
	.file 71 "d:/Data/Nintendo/DoomGX/src/game/physics/../../idlib/../framework/Console.h"
	.file 72 "d:/Data/Nintendo/DoomGX/src/game/physics/../../idlib/../idlib/math/Curve.h"
	.file 73 "d:/Data/Nintendo/DoomGX/src/game/physics/../../idlib/../idlib/math/Simd.h"
	.file 74 "d:/Data/Nintendo/DoomGX/src/game/physics/../../idlib/../framework/BuildVersion.h"
	.file 75 "d:/Data/Nintendo/DoomGX/src/game/physics/../../idlib/precompiled.h"
	.file 76 "d:/Data/Nintendo/DoomGX/src/game/physics/../../idlib/../renderer/Material.h"
	.file 77 "d:/Data/Nintendo/DoomGX/src/game/physics/../../idlib/../framework/EventLoop.h"
	.file 78 "d:/Data/Nintendo/DoomGX/src/game/physics/../../idlib/../framework/EditField.h"
	.file 79 "d:/Data/Nintendo/DoomGX/src/game/physics/../../idlib/../framework/async/AsyncNetwork.h"
	.file 80 "d:/Data/Nintendo/DoomGX/src/game/physics/../../idlib/../framework/async/AsyncServer.h"
	.file 81 "d:/Data/Nintendo/DoomGX/src/game/physics/../anim/Anim.h"
	.file 82 "d:/Data/Nintendo/DoomGX/src/game/physics/../MultiplayerGame.h"
	.file 83 "d:/Data/Nintendo/DoomGX/src/game/physics/../AFEntity.h"
	.file 84 "d:/Data/Nintendo/DoomGX/src/game/physics/../Weapon.h"
	.file 85 "d:/Data/Nintendo/DoomGX/src/game/physics/../ai/AI.h"
	.file 86 "d:/Data/Nintendo/DoomGX/src/game/physics/../script/Script_Compiler.h"
	.file 87 "d:/Data/Nintendo/DoomGX/src/game/physics/../script/Script_Thread.h"