	.file	"Frustum.cpp"
	.section	".text"
.Ltext0:
	.section	.text._ZN14idFixedWinding5ClearEv,"axG",@progbits,_ZN14idFixedWinding5ClearEv,comdat
	.align 2
	.weak	_ZN14idFixedWinding5ClearEv
	.type	_ZN14idFixedWinding5ClearEv, @function
_ZN14idFixedWinding5ClearEv:
.LFB1502:
	.file 1 "d:/Data/Nintendo/DoomGX/src/idlib/bv/../../idlib/geometry/Winding.h"
	.loc 1 398 0
	.cfi_startproc
.LVL0:
	.loc 1 399 0
	li 0,0
	.loc 1 400 0
	.loc 1 399 0
	stw 0,4(3)
	.loc 1 400 0
	blr
	.cfi_endproc
.LFE1502:
	.size	_ZN14idFixedWinding5ClearEv, .-_ZN14idFixedWinding5ClearEv
	.section	.text._ZN9idWinding5ClearEv,"axG",@progbits,_ZN9idWinding5ClearEv,comdat
	.align 2
	.weak	_ZN9idWinding5ClearEv
	.type	_ZN9idWinding5ClearEv, @function
_ZN9idWinding5ClearEv:
.LFB1473:
	.loc 1 249 0
	.cfi_startproc
.LVL1:
	mflr 0
	stwu 1,-16(1)
.LCFI0:
	.cfi_def_cfa_offset 16
	.cfi_register 65, 0
	stw 31,12(1)
	mr 31,3
	.cfi_offset 31, -4
	stw 0,20(1)
	.loc 1 250 0
	li 0,0
	.cfi_offset 65, 4
	.loc 1 251 0
	lwz 3,8(3)
.LVL2:
	.loc 1 250 0
	stw 0,4(31)
	.loc 1 251 0
	cmpwi 7,3,0
	beq- 7,.L3
	.loc 1 251 0 is_stmt 0 discriminator 1
	bl _ZdaPv
.L3:
	.loc 1 252 0 is_stmt 1
	li 0,0
	stw 0,8(31)
	.loc 1 253 0
	lwz 0,20(1)
	lwz 31,12(1)
.LVL3:
	mtlr 0
	addi 1,1,16
.LCFI1:
	.cfi_def_cfa_offset 0
	.cfi_restore 31
	blr
	.cfi_endproc
.LFE1473:
	.size	_ZN9idWinding5ClearEv, .-_ZN9idWinding5ClearEv
	.section	.text._ZN9idWindingD2Ev,"axG",@progbits,_ZN9idWindingD5Ev,comdat
	.align 2
	.weak	_ZN9idWindingD2Ev
	.type	_ZN9idWindingD2Ev, @function
_ZN9idWindingD2Ev:
.LFB1461:
	.loc 1 183 0
	.cfi_startproc
.LVL4:
	mflr 0
	stwu 1,-16(1)
.LCFI2:
	.cfi_def_cfa_offset 16
	.cfi_register 65, 0
.LBB4701:
	lis 9,_ZTV9idWinding+8@ha
.LBE4701:
	stw 31,12(1)
	mr 31,3
	.cfi_offset 31, -4
	stw 0,20(1)
.LBB4702:
	.loc 1 183 0
	la 0,_ZTV9idWinding+8@l(9)
	.cfi_offset 65, 4
	.loc 1 184 0
	lwz 3,8(3)
.LVL5:
	.loc 1 183 0
	stw 0,0(31)
	.loc 1 184 0
	cmpwi 7,3,0
	beq- 7,.L6
	.loc 1 184 0 is_stmt 0 discriminator 1
	bl _ZdaPv
.L6:
	.loc 1 185 0 is_stmt 1
	li 0,0
	stw 0,8(31)
.LBE4702:
	.loc 1 186 0
	lwz 0,20(1)
	lwz 31,12(1)
.LVL6:
	mtlr 0
	addi 1,1,16
.LCFI3:
	.cfi_def_cfa_offset 0
	.cfi_restore 31
	blr
	.cfi_endproc
.LFE1461:
	.size	_ZN9idWindingD2Ev, .-_ZN9idWindingD2Ev
	.section	.text._ZN14idFixedWindingD2Ev,"axG",@progbits,_ZN14idFixedWindingD5Ev,comdat
	.align 2
	.weak	_ZN14idFixedWindingD2Ev
	.type	_ZN14idFixedWindingD2Ev, @function
_ZN14idFixedWindingD2Ev:
.LFB1498:
	.loc 1 380 0
	.cfi_startproc
.LVL7:
.LBB4708:
	.loc 1 381 0
	li 0,0
.LBB4709:
.LBB4710:
.LBB4711:
	.loc 1 183 0
	lis 9,_ZTV9idWinding+8@ha
.LBE4711:
.LBE4710:
.LBE4709:
	.loc 1 381 0
	stw 0,8(3)
.LVL8:
.LBB4714:
.LBB4713:
.LBB4712:
	.loc 1 183 0
	la 0,_ZTV9idWinding+8@l(9)
	stw 0,0(3)
.LBE4712:
.LBE4713:
.LBE4714:
.LBE4708:
	.loc 1 382 0
	blr
	.cfi_endproc
.LFE1498:
	.size	_ZN14idFixedWindingD2Ev, .-_ZN14idFixedWindingD2Ev
	.section	.text._ZN14idFixedWindingD0Ev,"axG",@progbits,_ZN14idFixedWindingD5Ev,comdat
	.align 2
	.weak	_ZN14idFixedWindingD0Ev
	.type	_ZN14idFixedWindingD0Ev, @function
_ZN14idFixedWindingD0Ev:
.LFB1500:
	.loc 1 380 0
	.cfi_startproc
.LVL9:
	mflr 0
	stwu 1,-8(1)
.LCFI4:
	.cfi_def_cfa_offset 8
	.cfi_register 65, 0
.LBB4721:
.LBB4722:
.LBB4723:
.LBB4724:
.LBB4725:
.LBB4726:
	.loc 1 183 0
	lis 11,_ZTV9idWinding+8@ha
.LBE4726:
.LBE4725:
.LBE4724:
.LBE4723:
.LBE4722:
.LBE4721:
	.loc 1 380 0
	stw 0,12(1)
.LBB4732:
.LBB4731:
.LBB4730:
	.loc 1 381 0
	li 0,0
	.cfi_offset 65, 4
	stw 0,8(3)
.LVL10:
.LBB4729:
.LBB4728:
.LBB4727:
	.loc 1 183 0
	la 0,_ZTV9idWinding+8@l(11)
	stw 0,0(3)
.LBE4727:
.LBE4728:
.LBE4729:
.LBE4730:
.LBE4731:
.LBE4732:
	.loc 1 382 0
	bl _ZdlPv
.LVL11:
	lwz 0,12(1)
	addi 1,1,8
.LCFI5:
	.cfi_def_cfa_offset 0
	mtlr 0
	blr
	.cfi_endproc
.LFE1500:
	.size	_ZN14idFixedWindingD0Ev, .-_ZN14idFixedWindingD0Ev
	.section	.text._ZN9idWindingD0Ev,"axG",@progbits,_ZN9idWindingD5Ev,comdat
	.align 2
	.weak	_ZN9idWindingD0Ev
	.type	_ZN9idWindingD0Ev, @function
_ZN9idWindingD0Ev:
.LFB1463:
	.loc 1 183 0
	.cfi_startproc
.LVL12:
	mflr 0
	stwu 1,-16(1)
.LCFI6:
	.cfi_def_cfa_offset 16
	.cfi_register 65, 0
.LBB4736:
.LBB4737:
.LBB4738:
	lis 9,_ZTV9idWinding+8@ha
.LBE4738:
.LBE4737:
.LBE4736:
	stw 31,12(1)
	mr 31,3
	.cfi_offset 31, -4
.LVL13:
	stw 0,20(1)
.LBB4743:
.LBB4741:
.LBB4739:
	.loc 1 183 0
	la 0,_ZTV9idWinding+8@l(9)
	.cfi_offset 65, 4
	.loc 1 184 0
	lwz 3,8(3)
.LVL14:
	.loc 1 183 0
	stw 0,0(31)
	.loc 1 184 0
	cmpwi 7,3,0
	beq- 7,.L16
	bl _ZdaPv
.LVL15:
.L16:
	.loc 1 185 0
	li 0,0
.LBE4739:
.LBE4741:
.LBE4743:
	.loc 1 186 0
	mr 3,31
.LBB4744:
.LBB4742:
.LBB4740:
	.loc 1 185 0
	stw 0,8(31)
.LBE4740:
.LBE4742:
.LBE4744:
	.loc 1 186 0
	bl _ZdlPv
	lwz 0,20(1)
	lwz 31,12(1)
.LVL16:
	mtlr 0
	addi 1,1,16
.LCFI7:
	.cfi_def_cfa_offset 0
	.cfi_restore 31
	blr
	.cfi_endproc
.LFE1463:
	.size	_ZN9idWindingD0Ev, .-_ZN9idWindingD0Ev
	.section	.text._ZN8idBounds8AddPointERK6idVec3,"axG",@progbits,_ZN8idBounds8AddPointERK6idVec3,comdat
	.align 2
	.weak	_ZN8idBounds8AddPointERK6idVec3
	.type	_ZN8idBounds8AddPointERK6idVec3, @function
_ZN8idBounds8AddPointERK6idVec3:
.LFB1338:
	.file 2 "d:/Data/Nintendo/DoomGX/src/idlib/bv/../../idlib/bv/Bounds.h"
	.loc 2 226 0
	.cfi_startproc
.LVL17:
.LBB4770:
	.loc 2 228 0
	lfs 13,0(3)
.LBE4770:
	.loc 2 226 0
	mr 9,3
.LVL18:
.LBB4777:
.LBB4771:
.LBB4772:
	.file 3 "d:/Data/Nintendo/DoomGX/src/idlib/bv/../../idlib/math/Vector.h"
	.loc 3 402 0
	lfs 0,0(4)
.LVL19:
.LBE4772:
.LBE4771:
	.loc 2 227 0
	li 3,0
.LVL20:
	.loc 2 228 0
	fcmpu 7,13,0
	bng- 7,.L20
.LVL21:
	.loc 2 229 0
	stfs 0,0(9)
.LVL22:
	.loc 2 230 0
	li 3,1
	.loc 2 229 0
	lfs 0,0(4)
.LVL23:
.L20:
	.loc 2 232 0
	lfs 13,12(9)
	fcmpu 7,13,0
	bnl- 7,.L22
.LVL24:
	.loc 2 233 0
	stfs 0,12(9)
.LVL25:
	.loc 2 234 0
	li 3,1
.LVL26:
.L22:
.LBB4773:
.LBB4774:
	.loc 3 402 0
	lfs 0,4(4)
.LVL27:
.LBE4774:
.LBE4773:
	.loc 2 236 0
	lfs 13,4(9)
	fcmpu 7,13,0
	bng- 7,.L24
.LVL28:
	.loc 2 237 0
	stfs 0,4(9)
.LVL29:
	.loc 2 238 0
	li 3,1
	.loc 2 237 0
	lfs 0,4(4)
.LVL30:
.L24:
	.loc 2 240 0
	lfs 13,16(9)
	fcmpu 7,13,0
	bnl- 7,.L26
.LVL31:
	.loc 2 241 0
	stfs 0,16(9)
.LVL32:
	.loc 2 242 0
	li 3,1
.LVL33:
.L26:
.LBB4775:
.LBB4776:
	.loc 3 402 0
	lfs 0,8(4)
.LVL34:
.LBE4776:
.LBE4775:
	.loc 2 244 0
	lfs 13,8(9)
	fcmpu 7,13,0
	bng- 7,.L28
.LVL35:
	.loc 2 245 0
	stfs 0,8(9)
.LVL36:
	.loc 2 246 0
	li 3,1
	.loc 2 245 0
	lfs 0,8(4)
.LVL37:
.L28:
	.loc 2 248 0
	lfs 13,20(9)
	fcmpu 7,13,0
	bnllr- 7
.LVL38:
	.loc 2 249 0
	stfs 0,20(9)
.LVL39:
	.loc 2 250 0
	li 3,1
.LVL40:
.LBE4777:
	.loc 2 253 0
	blr
	.cfi_endproc
.LFE1338:
	.size	_ZN8idBounds8AddPointERK6idVec3, .-_ZN8idBounds8AddPointERK6idVec3
	.section	".text"
	.align 2
	.globl _Z11BoxToPointsRK6idVec3S1_RK6idMat3PS_
	.type	_Z11BoxToPointsRK6idVec3S1_RK6idMat3PS_, @function
_Z11BoxToPointsRK6idVec3S1_RK6idMat3PS_:
.LFB2538:
	.file 4 "d:/Data/Nintendo/DoomGX/src/idlib/bv/Frustum.cpp"
	.loc 4 58 0
	.cfi_startproc
.LVL41:
.LBB4778:
.LBB4779:
.LBB4780:
	.loc 3 402 0
	lfs 5,0(4)
.LVL42:
.LBE4780:
.LBE4779:
.LBB4784:
.LBB4785:
	lfs 0,8(4)
.LBE4785:
.LBE4784:
.LBB4786:
.LBB4787:
	.loc 3 448 0
	lfs 10,24(5)
.LBE4787:
.LBE4786:
.LBB4790:
.LBB4791:
	.loc 4 58 0
	fneg 13,5
.LBE4791:
.LBE4790:
.LBB4804:
.LBB4788:
	.loc 3 448 0
	lfs 12,28(5)
	lfs 2,32(5)
	fmuls 10,0,10
.LBE4788:
.LBE4804:
.LBE4778:
	.loc 4 58 0
	stwu 1,-112(1)
.LCFI8:
	.cfi_def_cfa_offset 112
.LBB4903:
.LBB4805:
.LBB4789:
	.loc 3 448 0
	fmuls 12,0,12
	fmuls 2,0,2
.LBE4789:
.LBE4805:
.LBB4806:
.LBB4781:
	.loc 3 402 0
	lfs 3,4(5)
.LBE4781:
.LBE4806:
.LBB4807:
.LBB4808:
	lfs 0,4(4)
.LBE4808:
.LBE4807:
.LBB4812:
.LBB4782:
	lfs 4,8(5)
.LBE4782:
.LBE4812:
.LBB4813:
.LBB4809:
	lfs 1,20(5)
.LBE4809:
.LBE4813:
.LBB4814:
.LBB4792:
	.loc 3 431 0
	lfs 6,0(3)
	lfs 7,4(3)
	lfs 8,8(3)
.LBE4792:
.LBE4814:
.LBE4903:
	.loc 4 58 0
	stfd 29,88(1)
.LBB4904:
.LBB4815:
.LBB4793:
	.loc 3 431 0
	fmadds 11,13,3,7
.LBE4793:
.LBE4815:
.LBB4816:
.LBB4783:
	.loc 3 402 0
	lfs 29,0(5)
	.cfi_offset 61, -24
.LVL43:
.LBE4783:
.LBE4816:
.LBB4817:
.LBB4794:
	.loc 3 452 0
	fmadds 7,5,3,7
.LBE4794:
.LBE4817:
.LBE4904:
	.loc 4 58 0
	stfd 30,96(1)
	stfd 31,104(1)
.LBB4905:
.LBB4818:
.LBB4795:
	.loc 3 431 0
	fmadds 9,13,29,6
.LBE4795:
.LBE4818:
.LBB4819:
.LBB4810:
	.loc 3 402 0
	lfs 30,12(5)
	.cfi_offset 63, -8
	.cfi_offset 62, -16
.LVL44:
.LBE4810:
.LBE4819:
.LBB4820:
.LBB4796:
	.loc 3 431 0
	fmadds 13,13,4,8
.LBE4796:
.LBE4820:
.LBB4821:
.LBB4811:
	.loc 3 402 0
	lfs 31,16(5)
.LVL45:
.LBE4811:
.LBE4821:
.LBB4822:
.LBB4797:
	.loc 3 452 0
	fmadds 6,5,29,6
	.loc 3 431 0
	fmsubs 3,0,30,10
.LBE4797:
.LBE4822:
.LBE4905:
	.loc 4 58 0
	stfd 19,8(1)
.LBB4906:
.LBB4823:
.LBB4798:
	.loc 3 452 0
	fmadds 8,5,4,8
.LVL46:
.LBE4798:
.LBE4823:
.LBE4906:
	.loc 4 58 0
	stfd 20,16(1)
.LBB4907:
.LBB4824:
.LBB4799:
	.loc 3 431 0
	fmsubs 4,0,31,12
.LBE4799:
.LBE4824:
.LBE4907:
	.loc 4 58 0
	stfd 21,24(1)
.LBB4908:
.LBB4825:
.LBB4800:
	.loc 3 431 0
	fmsubs 5,0,1,2
.LVL47:
.LBE4800:
.LBE4825:
.LBE4908:
	.loc 4 58 0
	stfd 22,32(1)
.LBB4909:
.LBB4826:
.LBB4801:
	.loc 3 452 0
	fmadds 10,0,30,10
.LVL48:
.LBE4801:
.LBE4826:
.LBE4909:
	.loc 4 58 0
	stfd 23,40(1)
.LBB4910:
.LBB4827:
.LBB4802:
	.loc 3 452 0
	fmadds 12,0,31,12
.LVL49:
.LBE4802:
.LBE4827:
.LBE4910:
	.loc 4 58 0
	stfd 24,48(1)
.LBB4911:
.LBB4828:
.LBB4803:
	.loc 3 452 0
	fmadds 0,0,1,2
.LVL50:
.LBE4803:
.LBE4828:
.LBE4911:
	.loc 4 58 0
	stfd 25,56(1)
.LBB4912:
.LBB4829:
.LBB4830:
	.loc 3 431 0
	fsubs 22,6,10
	.cfi_offset 57, -56
	.cfi_offset 56, -64
	.cfi_offset 55, -72
	.cfi_offset 54, -80
	.cfi_offset 53, -88
	.cfi_offset 52, -96
	.cfi_offset 51, -104
.LBE4830:
.LBE4829:
.LBE4912:
	.loc 4 58 0
	stfd 26,64(1)
.LBB4913:
.LBB4833:
.LBB4831:
	.loc 3 431 0
	fsubs 23,7,12
.LBE4831:
.LBE4833:
.LBE4913:
	.loc 4 58 0
	stfd 27,72(1)
.LBB4914:
.LBB4834:
.LBB4832:
	.loc 3 431 0
	fsubs 24,8,0
.LBE4832:
.LBE4834:
.LBE4914:
	.loc 4 58 0
	stfd 28,80(1)
.LBB4915:
.LBB4835:
.LBB4836:
	.loc 3 452 0
	fadds 25,6,3
.LBE4836:
.LBE4835:
.LBB4838:
.LBB4839:
	.loc 3 424 0
	stfs 22,12(6)
.LBE4839:
.LBE4838:
.LBB4842:
.LBB4837:
	.loc 3 452 0
	fadds 26,7,4
	.cfi_offset 60, -32
	.cfi_offset 59, -40
	.cfi_offset 58, -48
	fadds 27,8,5
.LBE4837:
.LBE4842:
.LBB4843:
.LBB4844:
	.loc 3 431 0
	fsubs 19,9,10
	fsubs 20,11,12
	fsubs 21,13,0
.LBE4844:
.LBE4843:
.LBB4845:
.LBB4846:
	.loc 3 452 0
	fadds 28,9,3
.LBE4846:
.LBE4845:
.LBB4849:
.LBB4850:
	.loc 3 424 0
	stfs 19,0(6)
.LBE4850:
.LBE4849:
.LBB4853:
.LBB4847:
	.loc 3 452 0
	fadds 29,11,4
.LBE4847:
.LBE4853:
.LBB4854:
.LBB4851:
	.loc 3 425 0
	stfs 20,4(6)
.LBE4851:
.LBE4854:
.LBB4855:
.LBB4848:
	.loc 3 452 0
	fadds 30,13,5
.LBE4848:
.LBE4855:
.LBB4856:
.LBB4852:
	.loc 3 426 0
	stfs 21,8(6)
.LBE4852:
.LBE4856:
.LBB4857:
.LBB4858:
	.loc 3 431 0
	fsubs 31,9,3
.LBE4858:
.LBE4857:
.LBB4861:
.LBB4840:
	.loc 3 425 0
	stfs 23,16(6)
.LBE4840:
.LBE4861:
.LBB4862:
.LBB4859:
	.loc 3 431 0
	fsubs 1,11,4
.LBE4859:
.LBE4862:
.LBE4915:
	.loc 4 77 0
	lfd 19,8(1)
.LBB4916:
.LBB4863:
.LBB4860:
	.loc 3 431 0
	fsubs 2,13,5
.LVL51:
.LBE4860:
.LBE4863:
.LBE4916:
	.loc 4 77 0
	lfd 20,16(1)
.LBB4917:
.LBB4864:
.LBB4865:
	.loc 3 431 0
	fsubs 3,6,3
.LBE4865:
.LBE4864:
.LBE4917:
	.loc 4 77 0
	lfd 21,24(1)
.LBB4918:
.LBB4868:
.LBB4866:
	.loc 3 431 0
	fsubs 4,7,4
.LBE4866:
.LBE4868:
.LBE4918:
	.loc 4 77 0
	lfd 22,32(1)
.LBB4919:
.LBB4869:
.LBB4867:
	.loc 3 431 0
	fsubs 5,8,5
.LVL52:
.LBE4867:
.LBE4869:
.LBE4919:
	.loc 4 77 0
	lfd 23,40(1)
.LBB4920:
.LBB4870:
.LBB4871:
	.loc 3 452 0
	fadds 6,6,10
.LBE4871:
.LBE4870:
.LBB4874:
.LBB4841:
	.loc 3 426 0
	stfs 24,20(6)
.LBE4841:
.LBE4874:
.LBB4875:
.LBB4872:
	.loc 3 452 0
	fadds 7,7,12
.LBE4872:
.LBE4875:
.LBE4920:
	.loc 4 77 0
	lfd 24,48(1)
.LBB4921:
.LBB4876:
.LBB4873:
	.loc 3 452 0
	fadds 8,8,0
.LVL53:
.LBE4873:
.LBE4876:
.LBB4877:
.LBB4878:
	.loc 3 424 0
	stfs 25,24(6)
.LBE4878:
.LBE4877:
.LBB4881:
.LBB4882:
	.loc 3 452 0
	fadds 10,9,10
.LVL54:
.LBE4882:
.LBE4881:
.LBE4921:
	.loc 4 77 0
	lfd 25,56(1)
.LBB4922:
.LBB4885:
.LBB4883:
	.loc 3 452 0
	fadds 12,11,12
.LVL55:
.LBE4883:
.LBE4885:
.LBB4886:
.LBB4879:
	.loc 3 425 0
	stfs 26,28(6)
.LBE4879:
.LBE4886:
.LBB4887:
.LBB4884:
	.loc 3 452 0
	fadds 0,13,0
.LVL56:
.LBE4884:
.LBE4887:
.LBE4922:
	.loc 4 77 0
	lfd 26,64(1)
.LBB4923:
.LBB4888:
.LBB4880:
	.loc 3 426 0
	stfs 27,32(6)
.LVL57:
.LBE4880:
.LBE4888:
.LBB4889:
.LBB4890:
	.loc 3 424 0
	stfs 28,36(6)
.LBE4890:
.LBE4889:
.LBE4923:
	.loc 4 77 0
	lfd 27,72(1)
	lfd 28,80(1)
.LBB4924:
.LBB4892:
.LBB4891:
	.loc 3 425 0
	stfs 29,40(6)
	.loc 3 426 0
	stfs 30,44(6)
.LVL58:
.LBE4891:
.LBE4892:
.LBE4924:
	.loc 4 77 0
	lfd 29,88(1)
	lfd 30,96(1)
.LBB4925:
.LBB4893:
.LBB4894:
	.loc 3 424 0
	stfs 31,48(6)
	.loc 3 425 0
	stfs 1,52(6)
.LBE4894:
.LBE4893:
.LBE4925:
	.loc 4 77 0
	lfd 31,104(1)
.LBB4926:
.LBB4896:
.LBB4895:
	.loc 3 426 0
	stfs 2,56(6)
.LVL59:
.LBE4895:
.LBE4896:
.LBE4926:
	.loc 4 77 0
	addi 1,1,112
.LCFI9:
	.cfi_def_cfa_offset 0
	.cfi_restore 63
	.cfi_restore 62
	.cfi_restore 61
	.cfi_restore 60
	.cfi_restore 59
	.cfi_restore 58
	.cfi_restore 57
	.cfi_restore 56
	.cfi_restore 55
	.cfi_restore 54
	.cfi_restore 53
	.cfi_restore 52
	.cfi_restore 51
.LBB4927:
.LBB4897:
.LBB4898:
	.loc 3 424 0
	stfs 3,60(6)
	.loc 3 425 0
	stfs 4,64(6)
	.loc 3 426 0
	stfs 5,68(6)
.LVL60:
.LBE4898:
.LBE4897:
.LBB4899:
.LBB4900:
	.loc 3 424 0
	stfs 6,72(6)
	.loc 3 425 0
	stfs 7,76(6)
	.loc 3 426 0
	stfs 8,80(6)
.LVL61:
.LBE4900:
.LBE4899:
.LBB4901:
.LBB4902:
	.loc 3 424 0
	stfs 10,84(6)
	.loc 3 425 0
	stfs 12,88(6)
	.loc 3 426 0
	stfs 0,92(6)
.LBE4902:
.LBE4901:
.LBE4927:
	.loc 4 77 0
	blr
	.cfi_endproc
.LFE2538:
	.size	_Z11BoxToPointsRK6idVec3S1_RK6idMat3PS_, .-_Z11BoxToPointsRK6idVec3S1_RK6idMat3PS_
	.align 2
	.globl _ZNK9idFrustum9CullPointERK6idVec3
	.type	_ZNK9idFrustum9CullPointERK6idVec3, @function
_ZNK9idFrustum9CullPointERK6idVec3:
.LFB2541:
	.loc 4 120 0
	.cfi_startproc
.LVL62:
	stwu 1,-16(1)
.LCFI10:
	.cfi_def_cfa_offset 16
	.loc 4 120 0
	mr 9,3
.LVL63:
.LBB4966:
.LBB4967:
.LBB4968:
	.loc 3 431 0
	lfs 12,4(4)
	lfs 0,4(3)
	lfs 13,0(3)
	fsubs 12,12,0
	lfs 11,0(4)
.LBE4968:
.LBE4967:
.LBB4972:
.LBB4973:
.LBB4974:
	.file 5 "d:/Data/Nintendo/DoomGX/src/idlib/bv/../../idlib/math/Matrix.h"
	.loc 5 454 0
	lfs 0,16(3)
.LBE4974:
.LBE4973:
.LBE4972:
.LBB4981:
.LBB4969:
	.loc 3 431 0
	fsubs 11,11,13
.LBE4969:
.LBE4981:
.LBB4982:
.LBB4983:
.LBB4984:
	.loc 5 454 0
	lfs 10,12(3)
.LBE4984:
.LBE4983:
.LBE4982:
.LBB4999:
.LBB4978:
.LBB4975:
	fmuls 0,12,0
.LBE4975:
.LBE4978:
.LBE4999:
.LBB5000:
.LBB4970:
	.loc 3 431 0
	lfs 9,8(4)
	lfs 13,8(3)
.LBE4970:
.LBE5000:
.LBB5001:
.LBB4987:
.LBB4988:
	.loc 3 402 0
	lfs 8,24(3)
.LBE4988:
.LBE4987:
.LBE5001:
.LBB5002:
.LBB4971:
	.loc 3 431 0
	fsubs 13,9,13
.LVL64:
.LBE4971:
.LBE5002:
.LBB5003:
.LBB4989:
.LBB4985:
	.loc 5 454 0
	lfs 9,20(3)
	fmadds 0,11,10,0
.LBE4985:
.LBE4989:
.LBE5003:
	.loc 4 127 0
	lfs 10,48(3)
.LBB5004:
.LBB4990:
.LBB4991:
	.loc 3 402 0
	lfs 5,36(3)
.LVL65:
.LBE4991:
.LBE4990:
.LBB4992:
.LBB4993:
	lfs 6,40(3)
.LBE4993:
.LBE4992:
.LBB4994:
.LBB4986:
	.loc 5 454 0
	fmadds 0,13,9,0
	.loc 3 402 0
	lfs 7,44(3)
.LBE4986:
.LBE4994:
.LBB4995:
.LBB4996:
	lfs 9,28(3)
.LVL66:
.LBE4996:
.LBE4995:
.LBE5004:
	.loc 4 127 0
	fcmpu 7,10,0
.LBB5005:
.LBB4997:
.LBB4998:
	.loc 3 402 0
	lfs 10,32(3)
.LVL67:
.LBE4998:
.LBE4997:
.LBE5005:
	.loc 4 128 0
	li 3,1
.LVL68:
	.loc 4 127 0
	bgt- 7,.L42
	.loc 4 127 0 is_stmt 0 discriminator 1
	lfs 4,52(9)
	fcmpu 7,4,0
	blt- 7,.L42
.LBB5006:
.LBB4979:
.LBB4976:
	.loc 5 454 0 is_stmt 1
	fmuls 8,11,8
.LBE4976:
.LBE4979:
.LBE5006:
	.loc 4 130 0
	lfs 3,64(9)
	.loc 4 131 0
	lfs 4,56(9)
	.loc 4 130 0
	fmuls 0,0,3
.LVL69:
.LBB5007:
.LBB5008:
	.loc 5 454 0
	fmadds 9,12,9,8
	fmadds 9,13,10,9
.LBE5008:
.LBE5007:
	.loc 4 131 0
	fmuls 10,0,4
.LBB5010:
.LBB5009:
	.loc 5 454 0
	stfs 9,8(1)
	lwz 0,8(1)
	.file 6 "d:/Data/Nintendo/DoomGX/src/idlib/bv/../../idlib/math/Math.h"
	.loc 6 781 0
	rlwinm 0,0,0,1,31
.LBE5009:
.LBE5010:
	.loc 4 131 0
	stw 0,8(1)
	lfs 9,8(1)
	fcmpu 7,10,9
	blt- 7,.L42
.LVL70:
.LBB5011:
.LBB4980:
.LBB4977:
	.loc 5 454 0
	fmuls 11,11,5
.LVL71:
.LBE4977:
.LBE4980:
.LBE5011:
	.loc 4 134 0
	lfs 10,60(9)
	fmuls 0,0,10
.LVL72:
.LBB5012:
.LBB5013:
	.loc 5 454 0
	fmadds 12,12,6,11
.LVL73:
	fmadds 12,13,7,12
	stfs 12,8(1)
	lwz 0,8(1)
	.loc 6 781 0
	rlwinm 0,0,0,1,31
.LBE5013:
.LBE5012:
	.loc 4 134 0
	stw 0,8(1)
	lfs 13,8(1)
.LVL74:
	fcmpu 7,0,13
	mfcr 3
	rlwinm 3,3,29,1
.LVL75:
.L42:
.LBE4966:
	.loc 4 138 0
	addi 1,1,16
.LCFI11:
	.cfi_def_cfa_offset 0
	blr
	.cfi_endproc
.LFE2541:
	.size	_ZNK9idFrustum9CullPointERK6idVec3, .-_ZNK9idFrustum9CullPointERK6idVec3
	.align 2
	.globl _ZNK9idFrustum12CullLocalBoxERK6idVec3S2_RK6idMat3
	.type	_ZNK9idFrustum12CullLocalBoxERK6idVec3S2_RK6idMat3, @function
_ZNK9idFrustum12CullLocalBoxERK6idVec3S2_RK6idMat3:
.LFB2542:
	.loc 4 150 0
	.cfi_startproc
.LVL76:
.LBB5014:
.LBB5015:
.LBB5016:
	.loc 3 402 0
	lfs 7,0(5)
.LBE5016:
.LBE5015:
.LBE5014:
	.loc 4 150 0
	mr 10,3
.LBB5057:
.LBB5017:
.LBB5018:
	.loc 3 402 0
	lfs 0,0(6)
.LBE5018:
.LBE5017:
.LBB5019:
.LBB5020:
	lfs 8,4(5)
.LBE5020:
.LBE5019:
	.loc 4 157 0
	fmuls 1,7,0
	.loc 4 158 0
	lfs 13,12(6)
.LBE5057:
	.loc 4 150 0
	stwu 1,-80(1)
.LCFI12:
	.cfi_def_cfa_offset 80
.LBB5058:
	.loc 4 158 0
	fmuls 13,8,13
.LBB5021:
.LBB5022:
	.loc 3 402 0
	lfs 9,8(5)
.LBE5022:
.LBE5021:
	.loc 4 157 0
	stfs 1,56(1)
.LBE5058:
	.loc 4 150 0
	stfd 30,64(1)
.LBB5059:
	.loc 4 157 0
	lwz 11,56(1)
	.loc 4 158 0
	stfs 13,56(1)
	.loc 4 159 0
	lfs 13,24(6)
.LBB5023:
.LBB5024:
	.loc 6 781 0
	rlwinm 11,11,0,1,31
.LBE5024:
.LBE5023:
	.loc 4 158 0
	lwz 9,56(1)
	.loc 4 159 0
	fmuls 13,9,13
.LBE5059:
	.loc 4 150 0
	stfd 31,72(1)
.LBB5060:
.LBB5025:
.LBB5026:
	.loc 6 781 0
	rlwinm 9,9,0,1,31
.LBE5026:
.LBE5025:
	.loc 4 156 0
	lfs 12,0(4)
.LVL77:
	.loc 4 159 0
	stfs 13,56(1)
	lwz 0,56(1)
	stw 11,56(1)
.LBB5027:
.LBB5028:
	.loc 6 781 0
	rlwinm 0,0,0,1,31
.LBE5028:
.LBE5027:
	.loc 4 159 0
	lfs 3,56(1)
	stw 9,56(1)
	.loc 4 160 0
	lis 9,.LC0@ha
	.loc 4 159 0
	lfs 11,56(1)
	.loc 4 156 0
	lfs 13,48(3)
	.loc 4 161 0
	li 3,1
.LVL78:
	.loc 4 159 0
	stw 0,56(1)
	fadds 10,3,11
	.loc 4 156 0
	fsubs 13,13,12
	.loc 4 160 0
	lfs 11,.LC0@l(9)
	.loc 4 159 0
	lfs 1,56(1)
.LVL79:
	fadds 10,10,1
.LVL80:
	.loc 4 160 0
	fsubs 13,13,10
	fcmpu 7,13,11
	bgt- 7,.L47
	.cfi_offset 63, -8
	.cfi_offset 62, -16
.LVL81:
	.loc 4 165 0
	lfs 13,52(10)
.LVL82:
	fsubs 6,12,13
	.loc 4 166 0
	fsubs 10,6,10
.LVL83:
	fcmpu 7,10,11
	bgt- 7,.L47
.LVL84:
.LBB5029:
.LBB5030:
	.loc 5 333 0
	li 11,0
.LBB5031:
.LBB5032:
	.loc 3 424 0
	addi 9,1,8
.LBE5032:
.LBE5031:
	.loc 5 333 0
	cmpwi 7,11,24
.LBB5037:
.LBB5033:
	.loc 3 424 0
	stfsux 0,9,11
	.loc 3 425 0
	lwz 8,4(6)
	.loc 3 426 0
	lwz 0,8(6)
.LBE5033:
.LBE5037:
.LBE5030:
.LBE5029:
.LBB5042:
.LBB5043:
	.loc 3 425 0
	lfs 11,4(4)
.LVL85:
	.loc 3 426 0
	lfs 10,8(4)
.LVL86:
.LBE5043:
.LBE5042:
.LBB5044:
.LBB5041:
.LBB5038:
.LBB5034:
	.loc 3 425 0
	stw 8,4(9)
	.loc 3 426 0
	stw 0,8(9)
.LBE5034:
.LBE5038:
	.loc 5 333 0
	beq- 7,.L48
.LVL87:
.L57:
	addi 11,11,12
	lfs 0,12(6)
	cmpwi 7,11,24
.LBB5039:
.LBB5035:
	.loc 3 424 0
	addi 9,1,8
.LVL88:
.LBE5035:
.LBE5039:
	.loc 5 333 0
	addi 6,6,12
.LBB5040:
.LBB5036:
	.loc 3 424 0
	stfsux 0,9,11
.LVL89:
	.loc 3 425 0
	lwz 8,4(6)
	.loc 3 426 0
	lwz 0,8(6)
	.loc 3 425 0
	stw 8,4(9)
	.loc 3 426 0
	stw 0,8(9)
.LBE5036:
.LBE5040:
	.loc 5 333 0
	bne+ 7,.L57
.L48:
.LBE5041:
.LBE5044:
	.loc 4 173 0
	lis 9,.LC0@ha
	lfs 0,.LC0@l(9)
	fcmpu 7,11,0
	blt- 7,.L50
	lfs 30,12(1)
	lfs 1,24(1)
	lfs 3,36(1)
.LVL90:
.L51:
	.loc 4 181 0
	lfs 0,56(10)
.LVL91:
	.loc 4 186 0
	li 3,1
	.loc 4 182 0
	lfs 4,8(1)
.LVL92:
	.loc 4 183 0
	lfs 5,20(1)
.LVL93:
	.loc 4 182 0
	fmuls 31,0,4
	.loc 4 184 0
	lfs 6,32(1)
.LVL94:
	.loc 4 183 0
	fmuls 2,0,5
	.loc 4 182 0
	fmsubs 31,13,30,31
	.loc 4 183 0
	fmsubs 1,13,1,2
.LVL95:
	.loc 4 184 0
	fmuls 2,0,6
	.loc 4 182 0
	fmuls 31,31,7
	.loc 4 183 0
	fmuls 1,1,8
.LVL96:
	.loc 4 184 0
	fmsubs 3,13,3,2
.LVL97:
	.loc 4 182 0
	stfs 31,56(1)
	.loc 4 181 0
	fmuls 0,12,0
	.loc 4 184 0
	fmuls 3,3,9
.LVL98:
	.loc 4 182 0
	lwz 11,56(1)
	.loc 4 183 0
	stfs 1,56(1)
	.loc 4 181 0
	fmsubs 11,13,11,0
.LVL99:
.LBB5045:
.LBB5046:
	.loc 6 781 0
	rlwinm 11,11,0,1,31
.LBE5046:
.LBE5045:
	.loc 4 183 0
	lwz 9,56(1)
	.loc 4 184 0
	stfs 3,56(1)
.LBB5047:
.LBB5048:
	.loc 6 781 0
	rlwinm 9,9,0,1,31
.LBE5048:
.LBE5047:
	.loc 4 184 0
	lwz 0,56(1)
	stw 11,56(1)
.LBB5049:
.LBB5050:
	.loc 6 781 0
	rlwinm 0,0,0,1,31
.LBE5050:
.LBE5049:
	.loc 4 184 0
	lfs 1,56(1)
.LVL100:
	stw 9,56(1)
	.loc 4 185 0
	lis 9,.LC0@ha
	.loc 4 184 0
	lfs 3,56(1)
.LVL101:
	stw 0,56(1)
	fadds 2,1,3
	.loc 4 185 0
	lfs 3,.LC0@l(9)
	.loc 4 184 0
	lfs 0,56(1)
	fadds 2,2,0
	.loc 4 185 0
	fsubs 11,11,2
.LVL102:
	fcmpu 7,11,3
	bgt- 7,.L47
	.loc 4 189 0
	fcmpu 7,10,3
	blt- 7,.L52
	lfs 2,16(1)
	lfs 3,28(1)
	lfs 11,40(1)
.LVL103:
.L53:
	.loc 4 197 0
	lfs 0,60(10)
.LVL104:
	.loc 4 198 0
	fmuls 4,4,0
	.loc 4 199 0
	fmuls 5,5,0
	.loc 4 200 0
	fmuls 6,6,0
	.loc 4 198 0
	fmsubs 4,13,2,4
	.loc 4 199 0
	fmsubs 5,13,3,5
	.loc 4 200 0
	fmsubs 6,13,11,6
	.loc 4 198 0
	fmuls 4,4,7
	.loc 4 199 0
	fmuls 5,5,8
	.loc 4 200 0
	fmuls 6,6,9
	.loc 4 198 0
	stfs 4,56(1)
	.loc 4 197 0
	fmuls 12,12,0
	.loc 4 198 0
	lwz 11,56(1)
	.loc 4 199 0
	stfs 5,56(1)
	.loc 4 197 0
	fmsubs 13,13,10,12
.LBB5051:
.LBB5052:
	.loc 6 781 0
	rlwinm 11,11,0,1,31
.LBE5052:
.LBE5051:
	.loc 4 199 0
	lwz 9,56(1)
	.loc 4 200 0
	stfs 6,56(1)
.LBB5053:
.LBB5054:
	.loc 6 781 0
	rlwinm 9,9,0,1,31
.LBE5054:
.LBE5053:
	.loc 4 200 0
	lwz 0,56(1)
	stw 11,56(1)
.LBB5055:
.LBB5056:
	.loc 6 781 0
	rlwinm 0,0,0,1,31
.LBE5056:
.LBE5055:
	.loc 4 200 0
	lfs 0,56(1)
	stw 9,56(1)
	.loc 4 201 0
	lis 9,.LC0@ha
	.loc 4 200 0
	lfs 1,56(1)
	stw 0,56(1)
	fadds 11,0,1
.LVL105:
	lfs 3,56(1)
.LVL106:
	fadds 11,11,3
	.loc 4 201 0
	fsubs 13,13,11
	lfs 11,.LC0@l(9)
	fcmpu 7,13,11
	mfcr 3
	rlwinm 3,3,30,1
.LVL107:
.L47:
.LBE5060:
	.loc 4 206 0
	lfd 30,64(1)
	lfd 31,72(1)
	addi 1,1,80
	.cfi_remember_state
.LCFI13:
	.cfi_def_cfa_offset 0
	.cfi_restore 63
	.cfi_restore 62
	blr
.LVL108:
.L50:
.LCFI14:
	.cfi_restore_state
.LBB5061:
	.loc 4 175 0
	lfs 30,12(1)
	.loc 4 174 0
	fneg 11,11
.LVL109:
	.loc 4 176 0
	lfs 1,24(1)
	.loc 4 177 0
	lfs 3,36(1)
	.loc 4 175 0
	fneg 30,30
.LVL110:
	.loc 4 176 0
	fneg 1,1
.LVL111:
	.loc 4 177 0
	fneg 3,3
	b .L51
.LVL112:
.L52:
	.loc 4 191 0
	lfs 2,16(1)
	.loc 4 190 0
	fneg 10,10
.LVL113:
	.loc 4 192 0
	lfs 3,28(1)
	.loc 4 193 0
	lfs 11,40(1)
	.loc 4 191 0
	fneg 2,2
.LVL114:
	.loc 4 192 0
	fneg 3,3
.LVL115:
	.loc 4 193 0
	fneg 11,11
	b .L53
.LBE5061:
	.cfi_endproc
.LFE2542:
	.size	_ZNK9idFrustum12CullLocalBoxERK6idVec3S2_RK6idMat3, .-_ZNK9idFrustum12CullLocalBoxERK6idVec3S2_RK6idMat3
	.align 2
	.globl _ZNK9idFrustum10CullBoundsERK8idBounds
	.type	_ZNK9idFrustum10CullBoundsERK8idBounds, @function
_ZNK9idFrustum10CullBoundsERK8idBounds:
.LFB2543:
	.loc 4 218 0
	.cfi_startproc
.LVL116:
	mflr 0
	stwu 1,-160(1)
.LCFI15:
	.cfi_def_cfa_offset 160
	.cfi_register 65, 0
.LBB5137:
.LBB5138:
.LBB5139:
	.loc 3 431 0
	lis 9,.LC1@ha
.LBE5139:
.LBE5138:
.LBB5152:
.LBB5153:
.LBB5154:
	.loc 5 427 0
	li 10,0
.LBE5154:
.LBE5153:
.LBE5152:
.LBE5137:
	.loc 4 218 0
	stfd 25,104(1)
.LBB5245:
.LBB5157:
.LBB5158:
	.loc 5 333 0
	cmpwi 7,10,24
.LBE5158:
.LBE5157:
.LBE5245:
	.loc 4 218 0
	stfd 26,112(1)
.LBB5246:
.LBB5173:
.LBB5169:
	.loc 5 333 0
	addi 11,1,32
.LBE5169:
.LBE5173:
.LBE5246:
	.loc 4 218 0
	stfd 27,120(1)
	stfd 28,128(1)
	stfd 29,136(1)
	stfd 30,144(1)
	stw 0,164(1)
	stfd 31,152(1)
.LBB5247:
.LBB5174:
.LBB5140:
	.loc 3 431 0
	lfs 11,.LC1@l(9)
.LBE5140:
.LBE5174:
.LBB5175:
.LBB5170:
.LBB5159:
.LBB5160:
	.loc 3 424 0
	addi 9,1,68
.LBE5160:
.LBE5159:
.LBE5170:
.LBE5175:
.LBB5176:
.LBB5177:
	.loc 3 452 0
	lfs 1,16(4)
	lfs 7,4(4)
	lfs 31,12(4)
	.cfi_offset 63, -8
	.cfi_offset 65, 4
	.cfi_offset 62, -16
	.cfi_offset 61, -24
	.cfi_offset 60, -32
	.cfi_offset 59, -40
	.cfi_offset 58, -48
	.cfi_offset 57, -56
	fadds 7,1,7
	lfs 6,0(4)
.LBE5177:
.LBE5176:
.LBB5181:
.LBB5141:
	.loc 3 431 0
	lfs 0,4(3)
.LBE5141:
.LBE5181:
.LBB5182:
.LBB5178:
	.loc 3 452 0
	fadds 6,31,6
	lfs 2,20(4)
.LBE5178:
.LBE5182:
.LBB5183:
.LBB5142:
	.loc 3 431 0
	fmsubs 0,7,11,0
.LBE5142:
.LBE5183:
.LBB5184:
.LBB5185:
.LBB5186:
	.loc 3 402 0
	lfs 3,16(3)
.LBE5186:
.LBE5185:
.LBB5187:
.LBB5188:
	lfs 4,28(3)
.LBE5188:
.LBE5187:
.LBE5184:
.LBB5203:
.LBB5143:
	.loc 4 218 0
	fneg 27,7
.LBE5143:
.LBE5203:
.LBB5204:
.LBB5189:
.LBB5190:
	.loc 3 402 0
	lfs 5,40(3)
.LBE5190:
.LBE5189:
.LBE5204:
.LBB5205:
.LBB5144:
	.loc 4 218 0
	fneg 26,6
.LBE5144:
.LBE5205:
.LBB5206:
.LBB5179:
	.loc 3 452 0
	lfs 8,8(4)
.LBE5179:
.LBE5206:
.LBB5207:
.LBB5208:
.LBB5209:
	.loc 5 454 0
	fmuls 29,0,3
.LBE5209:
.LBE5208:
.LBE5207:
.LBB5214:
.LBB5145:
	.loc 3 431 0
	lfs 9,0(3)
.LBE5145:
.LBE5214:
.LBB5215:
.LBB5212:
.LBB5210:
	.loc 5 454 0
	fmuls 30,0,4
.LBE5210:
.LBE5212:
.LBE5215:
.LBB5216:
.LBB5180:
	.loc 3 452 0
	fadds 8,2,8
.LVL117:
.LBE5180:
.LBE5216:
.LBB5217:
.LBB5191:
.LBB5192:
	.loc 3 402 0
	lfs 12,12(3)
.LBE5192:
.LBE5191:
.LBE5217:
.LBB5218:
.LBB5146:
	.loc 3 431 0
	fmsubs 9,6,11,9
.LBE5146:
.LBE5218:
.LBB5219:
.LBB5193:
.LBB5194:
	.loc 3 402 0
	lfs 13,24(3)
.LBE5194:
.LBE5193:
.LBE5219:
.LBB5220:
.LBB5213:
.LBB5211:
	.loc 5 454 0
	fmuls 25,0,5
.LBE5211:
.LBE5213:
.LBE5220:
.LBB5221:
.LBB5147:
	.loc 3 431 0
	lfs 10,8(3)
.LBE5147:
.LBE5221:
.LBB5222:
.LBB5195:
.LBB5196:
	.loc 3 402 0
	lfs 0,36(3)
.LBE5196:
.LBE5195:
.LBE5222:
.LBB5223:
.LBB5148:
	.loc 4 218 0
	fneg 28,8
	.loc 3 431 0
	fmsubs 10,8,11,10
.LBE5148:
.LBE5223:
.LBB5224:
.LBB5197:
.LBB5198:
	.loc 3 402 0
	lfs 6,20(3)
.LVL118:
.LBE5198:
.LBE5197:
.LBE5224:
.LBB5225:
.LBB5226:
	.loc 5 454 0
	fmadds 29,9,12,29
.LBE5226:
.LBE5225:
.LBB5232:
.LBB5199:
.LBB5200:
	.loc 3 402 0
	lfs 7,32(3)
.LVL119:
.LBE5200:
.LBE5199:
.LBE5232:
.LBB5233:
.LBB5227:
	.loc 5 454 0
	fmadds 30,9,13,30
.LBE5227:
.LBE5233:
.LBB5234:
.LBB5201:
.LBB5202:
	.loc 3 402 0
	lfs 8,44(3)
.LVL120:
.LBE5202:
.LBE5201:
.LBE5234:
.LBB5235:
.LBB5228:
	.loc 5 454 0
	fmadds 9,9,0,25
.LBE5228:
.LBE5235:
.LBB5236:
.LBB5149:
	.loc 3 431 0
	fmadds 31,26,11,31
.LVL121:
	fmadds 1,27,11,1
.LVL122:
.LBE5149:
.LBE5236:
.LBB5237:
.LBB5229:
	.loc 5 454 0
	fmadds 29,10,6,29
	fmadds 30,10,7,30
.LBE5229:
.LBE5237:
.LBB5238:
.LBB5150:
	.loc 3 424 0
	stfs 31,8(1)
	.loc 3 431 0
	fmadds 11,28,11,2
.LVL123:
	.loc 3 425 0
	stfs 1,12(1)
.LBE5150:
.LBE5238:
.LBB5239:
.LBB5230:
	.loc 5 454 0
	fmadds 10,10,8,9
	.loc 3 424 0
	stfs 29,20(1)
	.loc 3 425 0
	stfs 30,24(1)
.LBE5230:
.LBE5239:
.LBB5240:
.LBB5151:
	.loc 3 426 0
	stfs 11,16(1)
.LVL124:
.LBE5151:
.LBE5240:
.LBB5241:
.LBB5231:
	stfs 10,28(1)
.LVL125:
.LBE5231:
.LBE5241:
.LBB5242:
.LBB5171:
.LBB5165:
.LBB5161:
	.loc 3 424 0
	stfsux 12,9,10
.LBE5161:
.LBE5165:
	.loc 5 333 0
	addi 10,10,12
.LBE5171:
.LBE5242:
.LBB5243:
.LBB5156:
.LBB5155:
	.loc 5 425 0
	stfs 12,32(1)
	stfs 13,36(1)
	stfs 0,40(1)
	.loc 5 426 0
	stfs 3,44(1)
	stfs 4,48(1)
	stfs 5,52(1)
	.loc 5 427 0
	stfs 6,56(1)
	stfs 7,60(1)
	stfs 8,64(1)
.LVL126:
.LBE5155:
.LBE5156:
.LBE5243:
.LBB5244:
.LBB5172:
.LBB5166:
.LBB5162:
	.loc 3 425 0
	stfs 13,4(9)
	.loc 3 426 0
	stfs 0,8(9)
.LBE5162:
.LBE5166:
	.loc 5 333 0
	beq- 7,.L59
.LVL127:
.L61:
	lfsux 12,11,10
.LVL128:
	cmpwi 7,10,24
.LBB5167:
.LBB5163:
	.loc 3 424 0
	addi 9,1,68
.LVL129:
	stfsux 12,9,10
.LVL130:
.LBE5163:
.LBE5167:
	.loc 5 333 0
	addi 10,10,12
	.loc 4 218 0
	lfs 13,4(11)
	lfs 0,8(11)
	.loc 5 333 0
	addi 11,1,32
.LVL131:
.LBB5168:
.LBB5164:
	.loc 3 425 0
	stfs 13,4(9)
	.loc 3 426 0
	stfs 0,8(9)
.LBE5164:
.LBE5168:
	.loc 5 333 0
	bne+ 7,.L61
.L59:
.LBE5172:
.LBE5244:
	.loc 4 229 0
	addi 4,1,20
.LVL132:
	addi 5,1,8
	addi 6,1,68
.LVL133:
	bl _ZNK9idFrustum12CullLocalBoxERK6idVec3S2_RK6idMat3
.LVL134:
.LBE5247:
	.loc 4 230 0
	lwz 0,164(1)
	lfd 25,104(1)
	mtlr 0
	lfd 26,112(1)
	lfd 27,120(1)
	lfd 28,128(1)
	lfd 29,136(1)
	lfd 30,144(1)
	lfd 31,152(1)
	addi 1,1,160
.LCFI16:
	.cfi_def_cfa_offset 0
	.cfi_restore 63
	.cfi_restore 62
	.cfi_restore 61
	.cfi_restore 60
	.cfi_restore 59
	.cfi_restore 58
	.cfi_restore 57
	blr
	.cfi_endproc
.LFE2543:
	.size	_ZNK9idFrustum10CullBoundsERK8idBounds, .-_ZNK9idFrustum10CullBoundsERK8idBounds
	.align 2
	.globl _ZNK9idFrustum7CullBoxERK5idBox
	.type	_ZNK9idFrustum7CullBoxERK5idBox, @function
_ZNK9idFrustum7CullBoxERK5idBox:
.LFB2544:
	.loc 4 242 0
	.cfi_startproc
.LVL135:
	mflr 0
	stwu 1,-136(1)
.LCFI17:
	.cfi_def_cfa_offset 136
	.cfi_register 65, 0
	mr 5,4
.LVL136:
.LBB5310:
.LBB5311:
.LBB5312:
	.loc 4 248 0
	addi 9,4,24
.LBE5312:
.LBE5311:
.LBE5310:
	.loc 5 465 0
	addi 11,1,20
	.loc 4 242 0
	stw 0,140(1)
.LBB5407:
.LBB5319:
.LBB5320:
.LBB5321:
	.loc 4 242 0
	addi 0,4,60
	.cfi_offset 65, 4
.LBE5321:
.LBE5320:
.LBE5319:
.LBB5336:
.LBB5337:
	.loc 3 431 0
	lfs 13,4(4)
	lfs 0,4(3)
.LBE5337:
.LBE5336:
.LBB5343:
.LBB5344:
.LBB5345:
	.loc 3 402 0
	lfs 6,16(3)
.LBE5345:
.LBE5344:
.LBE5343:
.LBB5362:
.LBB5338:
	.loc 3 431 0
	fsubs 0,13,0
.LBE5338:
.LBE5362:
.LBB5363:
.LBB5346:
.LBB5347:
	.loc 3 402 0
	lfs 8,28(3)
.LBE5347:
.LBE5346:
.LBB5348:
.LBB5349:
	lfs 9,40(3)
.LBE5349:
.LBE5348:
.LBE5363:
.LBB5364:
.LBB5339:
	.loc 3 431 0
	lfs 12,0(4)
	lfs 13,0(3)
.LBE5339:
.LBE5364:
.LBB5365:
.LBB5366:
.LBB5367:
	.loc 5 454 0
	fmuls 2,0,6
	fmuls 3,0,8
.LBE5367:
.LBE5366:
.LBE5365:
.LBB5370:
.LBB5350:
.LBB5351:
	.loc 3 402 0
	lfs 7,12(3)
.LBE5351:
.LBE5350:
.LBE5370:
.LBB5371:
.LBB5340:
	.loc 3 431 0
	fsubs 13,12,13
.LBE5340:
.LBE5371:
.LBB5372:
.LBB5352:
.LBB5353:
	.loc 3 402 0
	lfs 4,24(3)
.LBE5353:
.LBE5352:
.LBE5372:
.LBB5373:
.LBB5369:
.LBB5368:
	.loc 5 454 0
	fmuls 12,0,9
.LBE5368:
.LBE5369:
.LBE5373:
.LBB5374:
.LBB5354:
.LBB5355:
	.loc 3 402 0
	lfs 5,36(3)
.LBE5355:
.LBE5354:
.LBE5374:
.LBB5375:
.LBB5341:
	.loc 3 431 0
	lfs 11,8(4)
	lfs 0,8(3)
.LBE5341:
.LBE5375:
.LBB5376:
.LBB5313:
	.loc 5 454 0
	fmadds 2,13,7,2
	fmadds 3,13,4,3
.LBE5313:
.LBE5376:
.LBB5377:
.LBB5356:
.LBB5357:
	.loc 3 402 0
	lfs 10,20(3)
.LBE5357:
.LBE5356:
.LBE5377:
.LBB5378:
.LBB5342:
	.loc 3 431 0
	fsubs 0,11,0
.LVL137:
.LBE5342:
.LBE5378:
.LBB5379:
.LBB5358:
.LBB5359:
	.loc 3 402 0
	lfs 11,32(3)
.LVL138:
.LBE5359:
.LBE5358:
.LBE5379:
.LBB5380:
.LBB5314:
	.loc 5 454 0
	fmadds 13,13,5,12
.LVL139:
.LBE5314:
.LBE5380:
.LBB5381:
.LBB5360:
.LBB5361:
	.loc 3 402 0
	lfs 12,44(3)
.LVL140:
.LBE5361:
.LBE5360:
.LBE5381:
.LBB5382:
.LBB5329:
.LBB5322:
	.loc 5 425 0
	stfs 7,56(1)
.LBE5322:
.LBE5329:
.LBE5382:
.LBB5383:
.LBB5315:
	.loc 5 454 0
	fmadds 2,0,10,2
.LBE5315:
.LBE5383:
.LBB5384:
.LBB5330:
.LBB5323:
	.loc 5 425 0
	stfs 4,60(1)
.LBE5323:
.LBE5330:
.LBE5384:
.LBB5385:
.LBB5316:
	.loc 5 454 0
	fmadds 3,0,11,3
.LBE5316:
.LBE5385:
.LBB5386:
.LBB5331:
.LBB5324:
	.loc 5 425 0
	stfs 5,64(1)
.LBE5324:
.LBE5331:
.LBE5386:
.LBB5387:
.LBB5317:
	.loc 5 454 0
	fmadds 0,0,12,13
.LVL141:
.LBE5317:
.LBE5387:
.LBB5388:
.LBB5332:
.LBB5325:
	.loc 5 426 0
	stfs 6,68(1)
.LBE5325:
.LBE5332:
.LBE5388:
.LBB5389:
.LBB5318:
	.loc 3 424 0
	stfs 2,8(1)
	.loc 3 425 0
	stfs 3,12(1)
	.loc 3 426 0
	stfs 0,16(1)
.LVL142:
.LBE5318:
.LBE5389:
.LBB5390:
.LBB5333:
.LBB5326:
	.loc 5 426 0
	stfs 8,72(1)
	stfs 9,76(1)
	.loc 5 427 0
	stfs 10,80(1)
	stfs 11,84(1)
.LVL143:
	stfs 12,88(1)
.LVL144:
.L63:
	.loc 4 242 0
	lfs 0,4(9)
.LBE5326:
.LBE5333:
.LBE5390:
.LBB5391:
.LBB5392:
	.loc 5 471 0
	lfs 13,76(1)
	lfs 11,68(1)
	lfs 12,72(1)
	fmuls 11,0,11
	lfs 9,60(1)
	fmuls 12,0,12
	lfs 10,64(1)
	fmuls 0,0,13
.LBE5392:
.LBE5391:
.LBB5395:
.LBB5334:
.LBB5327:
	.loc 4 242 0
	lfs 13,0(9)
.LBE5327:
.LBE5334:
.LBE5395:
.LBB5396:
.LBB5393:
	.loc 5 471 0
	lfs 8,80(1)
	fmadds 12,13,9,12
	lfs 9,84(1)
	fmadds 11,7,13,11
	fmadds 13,13,10,0
.LBE5393:
.LBE5396:
.LBB5397:
.LBB5335:
.LBB5328:
	.loc 4 242 0
	lfs 0,8(9)
.LBE5328:
.LBE5335:
.LBE5397:
.LBB5398:
.LBB5394:
	.loc 5 471 0
	lfs 10,88(1)
	.loc 5 474 0
	addi 9,9,12
.LVL145:
	.loc 5 467 0
	cmpw 7,9,0
	.loc 5 471 0
	fmadds 11,8,0,11
	fmadds 12,9,0,12
	fmadds 0,10,0,13
	stfs 11,0(11)
.LVL146:
	stfs 12,4(11)
.LVL147:
	stfs 0,8(11)
.LVL148:
	addi 11,11,12
.LVL149:
	.loc 5 467 0
	bne+ 7,.L63
	li 10,0
.LVL150:
.L64:
.LBE5394:
.LBE5398:
.LBB5399:
.LBB5400:
.LBB5401:
.LBB5402:
	.loc 3 424 0
	addi 11,1,20
.LBE5402:
.LBE5401:
	.loc 5 333 0
	cmpwi 7,10,24
.LBB5405:
.LBB5403:
	.loc 3 424 0
	lwzux 0,11,10
	addi 9,1,92
	stwux 0,9,10
.LBE5403:
.LBE5405:
	.loc 5 333 0
	addi 10,10,12
.LBB5406:
.LBB5404:
	.loc 3 425 0
	lwz 8,4(11)
	.loc 3 426 0
	lwz 0,8(11)
	.loc 3 425 0
	stw 8,4(9)
	.loc 3 426 0
	stw 0,8(9)
.LBE5404:
.LBE5406:
	.loc 5 333 0
	bne+ 7,.L64
.LVL151:
.LBE5400:
.LBE5399:
	.loc 4 250 0
	addi 4,1,8
.LVL152:
	addi 6,1,92
	addi 5,5,12
.LVL153:
	bl _ZNK9idFrustum12CullLocalBoxERK6idVec3S2_RK6idMat3
.LVL154:
.LBE5407:
	.loc 4 251 0
	lwz 0,140(1)
	addi 1,1,136
.LCFI18:
	.cfi_def_cfa_offset 0
	mtlr 0
	blr
	.cfi_endproc
.LFE2544:
	.size	_ZNK9idFrustum7CullBoxERK5idBox, .-_ZNK9idFrustum7CullBoxERK5idBox
	.align 2
	.globl _ZNK9idFrustum10CullSphereERK8idSphere
	.type	_ZNK9idFrustum10CullSphereERK8idSphere, @function
_ZNK9idFrustum10CullSphereERK8idSphere:
.LFB2545:
	.loc 4 263 0
	.cfi_startproc
.LVL155:
	stwu 1,-16(1)
.LCFI19:
	.cfi_def_cfa_offset 16
	.loc 4 263 0
	mr 9,3
.LVL156:
.LBB5446:
.LBB5447:
.LBB5448:
	.loc 3 431 0
	lfs 11,4(4)
	lfs 0,4(3)
.LBE5448:
.LBE5447:
.LBB5451:
.LBB5452:
.LBB5453:
	.loc 5 454 0
	lfs 13,16(3)
.LBE5453:
.LBE5452:
.LBE5451:
.LBB5460:
.LBB5449:
	.loc 3 431 0
	fsubs 11,11,0
	lfs 10,0(4)
	lfs 0,0(3)
	lfs 9,8(4)
	fsubs 10,10,0
	lfs 12,8(3)
.LBE5449:
.LBE5460:
.LBB5461:
.LBB5457:
.LBB5454:
	.loc 5 454 0
	fmuls 13,11,13
.LBE5454:
.LBE5457:
.LBE5461:
.LBB5462:
.LBB5463:
.LBB5464:
	lfs 0,12(3)
.LBE5464:
.LBE5463:
.LBE5462:
.LBB5481:
.LBB5450:
	.loc 3 431 0
	fsubs 12,9,12
.LVL157:
.LBE5450:
.LBE5481:
	.loc 4 271 0
	lfs 9,48(3)
.LBB5482:
.LBB5468:
.LBB5469:
	.loc 3 402 0
	lfs 8,24(3)
.LVL158:
.LBE5469:
.LBE5468:
.LBB5470:
.LBB5465:
	.loc 5 454 0
	fmadds 13,10,0,13
	lfs 0,20(3)
.LBE5465:
.LBE5470:
.LBB5471:
.LBB5472:
	.loc 3 402 0
	lfs 3,36(3)
.LVL159:
.LBE5472:
.LBE5471:
.LBB5473:
.LBB5474:
	lfs 6,28(3)
.LVL160:
.LBE5474:
.LBE5473:
.LBB5475:
.LBB5466:
	.loc 5 454 0
	fmadds 13,12,0,13
	.loc 4 2843 0
	lfs 0,12(4)
.LBE5466:
.LBE5475:
.LBB5476:
.LBB5477:
	.loc 3 402 0
	lfs 4,40(3)
.LVL161:
.LBE5477:
.LBE5476:
.LBB5478:
.LBB5479:
	lfs 7,32(3)
.LVL162:
.LBE5479:
.LBE5478:
.LBE5482:
	.loc 4 271 0
	fsubs 9,9,13
.LBB5483:
.LBB5480:
.LBB5467:
	.loc 3 402 0
	lfs 5,44(3)
.LVL163:
.LBE5467:
.LBE5480:
.LBE5483:
	.loc 4 272 0
	li 3,1
.LVL164:
	.loc 4 271 0
	fcmpu 7,0,9
	blt- 7,.L68
.LVL165:
	.loc 4 276 0
	lfs 9,52(9)
	fsubs 2,13,9
	fcmpu 7,0,2
	blt- 7,.L68
.LBB5484:
.LBB5458:
.LBB5455:
	.loc 5 454 0
	fmuls 1,10,8
.LBE5455:
.LBE5458:
.LBE5484:
	.loc 4 284 0
	lfs 8,56(9)
	.loc 4 281 0
	fmuls 2,9,9
	.loc 4 280 0
	fmuls 0,0,0
.LVL166:
.LBB5485:
.LBB5486:
	.loc 5 454 0
	fmadds 6,11,6,1
.LBE5486:
.LBE5485:
	.loc 4 284 0
	fmuls 1,8,13
	.loc 4 285 0
	fmadds 8,8,8,2
.LBB5489:
.LBB5487:
	.loc 5 454 0
	fmadds 6,12,7,6
.LBE5487:
.LBE5489:
	.loc 4 285 0
	fmuls 8,8,0
.LBB5490:
.LBB5488:
	.loc 5 454 0
	stfs 6,8(1)
	lwz 0,8(1)
	.loc 6 781 0
	rlwinm 0,0,0,1,31
.LBE5488:
.LBE5490:
	.loc 4 284 0
	stw 0,8(1)
	lfs 6,8(1)
	fmsubs 7,9,6,1
.LVL167:
	.loc 4 285 0
	fmuls 7,7,7
.LVL168:
	fcmpu 7,7,8
	bgt- 7,.L68
.LVL169:
.LBB5491:
.LBB5459:
.LBB5456:
	.loc 5 454 0
	fmuls 10,10,3
.LVL170:
.LBE5456:
.LBE5459:
.LBE5491:
	.loc 4 290 0
	lfs 8,60(9)
	fmuls 13,8,13
.LVL171:
.LBB5492:
.LBB5493:
	.loc 5 454 0
	fmadds 11,11,4,10
.LVL172:
.LBE5493:
.LBE5492:
	.loc 4 291 0
	fmadds 8,8,8,2
.LBB5496:
.LBB5494:
	.loc 5 454 0
	fmadds 11,12,5,11
.LBE5494:
.LBE5496:
	.loc 4 291 0
	fmuls 0,8,0
.LVL173:
.LBB5497:
.LBB5495:
	.loc 5 454 0
	stfs 11,8(1)
	lwz 0,8(1)
	.loc 6 781 0
	rlwinm 0,0,0,1,31
.LBE5495:
.LBE5497:
	.loc 4 290 0
	stw 0,8(1)
	lfs 12,8(1)
.LVL174:
	fmsubs 9,9,12,13
.LVL175:
	.loc 4 291 0
	fmuls 9,9,9
.LVL176:
	fcmpu 7,9,0
	mfcr 3
	rlwinm 3,3,30,1
.LVL177:
.L68:
.LBE5446:
	.loc 4 296 0
	addi 1,1,16
.LCFI20:
	.cfi_def_cfa_offset 0
	blr
	.cfi_endproc
.LFE2545:
	.size	_ZNK9idFrustum10CullSphereERK8idSphere, .-_ZNK9idFrustum10CullSphereERK8idSphere
	.align 2
	.globl _ZNK9idFrustum16CullLocalFrustumERKS_PK6idVec3S4_
	.type	_ZNK9idFrustum16CullLocalFrustumERKS_PK6idVec3S4_, @function
_ZNK9idFrustum16CullLocalFrustumERKS_PK6idVec3S4_:
.LFB2546:
	.loc 4 308 0
	.cfi_startproc
.LVL178:
	stwu 1,-16(1)
.LCFI21:
	.cfi_def_cfa_offset 16
	.loc 4 308 0
	mr 8,3
.LBB5502:
	.loc 4 313 0
	lwz 9,24(4)
.LVL179:
	.loc 4 314 0
	lwz 0,36(4)
.LVL180:
	.loc 4 313 0
	stw 9,8(1)
	lfs 0,8(1)
	fneg 0,0
	stfs 0,8(1)
	lwz 10,8(1)
	.loc 4 314 0
	stw 0,8(1)
	.loc 4 315 0
	rlwinm 10,10,2,30,30
	.loc 4 314 0
	lfs 7,8(1)
	fneg 7,7
	stfs 7,8(1)
	lwz 11,8(1)
	.loc 4 315 0
	srwi 11,11,31
	or 11,10,11
.LVL181:
	.loc 4 316 0
	mulli 10,11,12
	lfsx 0,6,10
	fneg 0,0
	stfs 0,8(1)
	lwz 10,8(1)
	.loc 4 319 0
	lfs 0,48(3)
	.loc 4 320 0
	li 3,1
.LVL182:
	.loc 4 317 0
	rlwinm 10,10,3,29,29
	or 11,11,10
.LVL183:
	.loc 4 319 0
	mulli 11,11,12
.LVL184:
	lfsx 13,5,11
	fcmpu 7,13,0
	blt- 7,.L73
.LVL185:
.LBE5502:
.LBB5503:
.LBB5504:
	.loc 4 326 0
	rlwinm 10,9,2,30,30
	srwi 11,0,31
	or 11,10,11
.LVL186:
	.loc 4 330 0
	lfs 0,52(8)
	.loc 4 327 0
	mulli 10,11,12
	.loc 4 328 0
	lwzx 10,6,10
	rlwinm 10,10,3,29,29
	or 11,11,10
.LVL187:
	.loc 4 330 0
	mulli 11,11,12
.LVL188:
	lfsx 13,5,11
	fcmpu 7,13,0
	bgt- 7,.L73
	.loc 4 334 0
	lfs 13,56(8)
	.loc 4 337 0
	stw 9,8(1)
	lfs 7,28(4)
	lfs 10,8(1)
	.loc 4 338 0
	stw 0,8(1)
	.loc 4 337 0
	fmuls 8,10,13
	.loc 4 338 0
	lfs 9,40(4)
	lfs 11,8(1)
	fmuls 10,11,13
	.loc 4 337 0
	fmsubs 12,0,7,8
	.loc 4 338 0
	fmsubs 11,0,9,10
	.loc 4 337 0
	stfs 12,8(1)
	lwz 10,8(1)
	.loc 4 338 0
	stfs 11,8(1)
	.loc 4 339 0
	rlwinm 10,10,2,30,30
	.loc 4 338 0
	lwz 11,8(1)
	.loc 4 334 0
	lfs 6,64(8)
	.loc 4 339 0
	srwi 11,11,31
	or 10,10,11
	.loc 4 334 0
	fmuls 11,13,6
.LVL189:
	.loc 4 340 0
	mulli 11,10,12
	lfsx 12,6,11
.LVL190:
	add 11,6,11
.LVL191:
	lfs 5,4(11)
	fmuls 12,13,12
	fmsubs 5,0,5,12
	stfs 5,8(1)
	lwz 11,8(1)
	.loc 4 341 0
	rlwinm 11,11,3,29,29
	or 11,10,11
	.loc 4 343 0
	mulli 11,11,12
	lfsx 12,5,11
	add 11,5,11
	lfs 5,4(11)
	fmuls 12,11,12
	fcmpu 7,5,12
	bgt- 7,.L73
	.loc 4 348 0
	fneg 12,0
.LVL192:
	fmsubs 8,7,12,8
.LVL193:
	.loc 4 349 0
	fmsubs 10,9,12,10
.LVL194:
	.loc 4 348 0
	stfs 8,8(1)
	lwz 10,8(1)
.LVL195:
	.loc 4 349 0
	stfs 10,8(1)
	.loc 4 350 0
	rlwinm 10,10,2,30,30
	.loc 4 349 0
	lwz 11,8(1)
	.loc 4 350 0
	srwi 11,11,31
	or 10,10,11
.LVL196:
	.loc 4 351 0
	mulli 11,10,12
	lfsx 10,6,11
.LVL197:
	add 11,6,11
.LVL198:
	fmuls 13,13,10
	lfs 10,4(11)
	fmsubs 10,12,10,13
	stfs 10,8(1)
	lwz 11,8(1)
	.loc 4 352 0
	rlwinm 11,11,3,29,29
	or 11,10,11
	.loc 4 354 0
	mulli 11,11,12
	lfsx 10,5,11
	add 11,5,11
	lfs 13,4(11)
	fneg 10,10
	fmuls 11,11,10
.LVL199:
	fcmpu 7,13,11
	blt- 7,.L73
	.loc 4 358 0
	lfs 13,60(8)
	.loc 4 361 0
	stw 9,8(1)
	lfs 8,32(4)
.LVL200:
	.loc 4 358 0
	fmuls 6,6,13
	.loc 4 361 0
	lfs 7,8(1)
	.loc 4 362 0
	stw 0,8(1)
	.loc 4 361 0
	fmuls 9,7,13
	.loc 4 362 0
	lfs 10,8(1)
	.loc 4 361 0
	fmsubs 7,0,8,9
	.loc 4 362 0
	fmuls 11,10,13
.LVL201:
	lfs 10,44(4)
.LVL202:
	.loc 4 361 0
	stfs 7,8(1)
	.loc 4 362 0
	fmsubs 7,0,10,11
.LVL203:
	.loc 4 361 0
	lwz 9,8(1)
	.loc 4 362 0
	stfs 7,8(1)
	.loc 4 363 0
	rlwinm 9,9,2,30,30
	.loc 4 362 0
	lwz 0,8(1)
	.loc 4 363 0
	srwi 0,0,31
	or 9,9,0
.LVL204:
	.loc 4 364 0
	mulli 0,9,12
	lfsx 7,6,0
	add 11,6,0
.LVL205:
	lfs 5,8(11)
	fmuls 7,13,7
	fmsubs 5,0,5,7
	stfs 5,8(1)
	lwz 0,8(1)
.LVL206:
	.loc 4 365 0
	rlwinm 0,0,3,29,29
	or 0,9,0
	.loc 4 367 0
	mulli 0,0,12
	lfsx 0,5,0
	add 9,5,0
	lfs 7,8(9)
	fmuls 0,6,0
	fcmpu 7,7,0
	bgt- 7,.L73
.LVL207:
	.loc 4 372 0
	fmsubs 9,12,8,9
.LVL208:
	.loc 4 373 0
	fmsubs 11,12,10,11
.LVL209:
	.loc 4 372 0
	stfs 9,8(1)
	lwz 9,8(1)
	.loc 4 373 0
	stfs 11,8(1)
	.loc 4 374 0
	rlwinm 9,9,2,30,30
	.loc 4 373 0
	lwz 0,8(1)
	.loc 4 374 0
	srwi 0,0,31
	or 9,9,0
.LVL210:
	.loc 4 375 0
	mulli 0,9,12
	lfsx 0,6,0
	add 6,6,0
.LVL211:
	fmuls 13,13,0
	lfs 0,8(6)
	fmsubs 0,12,0,13
	stfs 0,8(1)
	lwz 0,8(1)
	.loc 4 376 0
	rlwinm 0,0,3,29,29
	or 0,9,0
	.loc 4 378 0
	mulli 0,0,12
	lfsx 13,5,0
	add 5,5,0
.LVL212:
	lfs 0,8(5)
	fneg 13,13
	fmuls 6,6,13
.LVL213:
	fcmpu 7,0,6
	mfcr 3
	rlwinm 3,3,29,1
.LVL214:
.L73:
.LBE5504:
.LBE5503:
	.loc 4 383 0
	addi 1,1,16
.LCFI22:
	.cfi_def_cfa_offset 0
	blr
	.cfi_endproc
.LFE2546:
	.size	_ZNK9idFrustum16CullLocalFrustumERKS_PK6idVec3S4_, .-_ZNK9idFrustum16CullLocalFrustumERKS_PK6idVec3S4_
	.align 2
	.globl _ZNK9idFrustum16CullLocalWindingEPK6idVec3iPi
	.type	_ZNK9idFrustum16CullLocalWindingEPK6idVec3iPi, @function
_ZNK9idFrustum16CullLocalWindingEPK6idVec3iPi:
.LFB2549:
	.loc 4 414 0
	.cfi_startproc
.LVL215:
	stwu 1,-16(1)
.LCFI23:
	.cfi_def_cfa_offset 16
.LBB5505:
.LBB5506:
	.loc 4 422 0
	cmpwi 0,5,0
.LBE5506:
.LBE5505:
	.loc 4 414 0
	mr 9,3
.LBB5517:
	.loc 4 418 0
	lfs 0,64(3)
	lfs 10,56(3)
	.loc 4 419 0
	lfs 9,60(3)
.LBB5514:
	.loc 4 422 0
	li 3,1
.LVL216:
.LBE5514:
	.loc 4 418 0
	fmuls 10,0,10
.LVL217:
	.loc 4 419 0
	fmuls 9,0,9
.LVL218:
.LBB5515:
	.loc 4 422 0
	ble- 0,.L81
.LBB5507:
	.loc 4 435 0
	mtctr 5
.LBE5507:
	.loc 4 414 0
	addi 6,6,-4
.LVL219:
.LBE5515:
.LBE5517:
	li 11,0
	.loc 4 421 0
	li 7,-1
.LBB5518:
.LBB5516:
.LBB5512:
	.loc 4 432 0
	li 12,4
	.loc 4 435 0
	li 3,16
.LVL220:
.L87:
	.loc 4 425 0
	lfsx 0,4,11
	.loc 4 423 0
	add 10,4,11
.LVL221:
	.loc 4 425 0
	lfs 11,48(9)
	.loc 4 426 0
	li 0,1
	.loc 4 431 0
	fmuls 12,10,0
.LBE5512:
	.loc 4 422 0
	addi 11,11,12
.LVL222:
.LBB5513:
	.loc 4 425 0
	fcmpu 7,0,11
	.loc 4 434 0
	fmuls 13,9,0
	.loc 4 425 0
	blt- 7,.L82
.LVL223:
	.loc 4 428 0
	lfs 11,52(9)
	.loc 4 424 0
	fcmpu 7,0,11
	mfcr 0
	rlwinm 0,0,30,1
	slwi 0,0,1
.LVL224:
.L82:
.LBB5508:
.LBB5509:
	.loc 6 781 0
	lwz 8,4(10)
	rlwinm 5,8,0,1,31
.LBE5509:
.LBE5508:
	.loc 4 432 0
	srwi 8,8,31
	.loc 4 431 0
	stw 5,8(1)
	.loc 4 432 0
	slw 8,12,8
	.loc 4 431 0
	lfs 0,8(1)
	fcmpu 7,12,0
	bnl- 7,.L83
	.loc 4 432 0
	or 0,0,8
.LVL225:
.L83:
.LBB5510:
.LBB5511:
	.loc 6 781 0
	lwz 10,8(10)
	rlwinm 8,10,0,1,31
.LBE5511:
.LBE5510:
	.loc 4 435 0
	srwi 10,10,31
	.loc 4 434 0
	stw 8,8(1)
	.loc 4 435 0
	slw 10,3,10
	.loc 4 434 0
	lfs 0,8(1)
	fcmpu 7,13,0
	bnl- 7,.L85
	.loc 4 435 0
	or 0,0,10
.LVL226:
.L85:
	.loc 4 437 0
	and 7,7,0
.LVL227:
	.loc 4 438 0
	stwu 0,4(6)
.LBE5513:
	.loc 4 422 0
	bdnz .L87
	cntlzw 7,7
.LVL228:
	srwi 7,7,5
	xori 3,7,1
.LVL229:
.L81:
.LBE5516:
.LBE5518:
	.loc 4 442 0
	addi 1,1,16
.LCFI24:
	.cfi_def_cfa_offset 0
	blr
	.cfi_endproc
.LFE2549:
	.size	_ZNK9idFrustum16CullLocalWindingEPK6idVec3iPi, .-_ZNK9idFrustum16CullLocalWindingEPK6idVec3iPi
	.align 2
	.globl _ZNK9idFrustum11CullWindingERK9idWinding
	.type	_ZNK9idFrustum11CullWindingERK9idWinding, @function
_ZNK9idFrustum11CullWindingERK9idWinding:
.LFB2550:
	.loc 4 449 0
	.cfi_startproc
.LVL230:
	mflr 0
	stwu 1,-112(1)
.LCFI25:
	.cfi_def_cfa_offset 112
	.cfi_register 65, 0
	mr 9,4
	stw 31,100(1)
	mr 31,1
	.cfi_offset 31, -12
.LCFI26:
	.cfi_def_cfa_register 31
	stw 0,116(1)
	stfd 31,104(1)
	stw 28,88(1)
	stw 29,92(1)
	stw 30,96(1)
.LBB5559:
	.loc 4 454 0
	lwz 10,0(1)
	lwz 5,4(4)
	mulli 8,5,12
	.loc 4 455 0
	slwi 11,5,2
	addi 11,11,45
	.loc 4 454 0
	addi 0,8,45
	.cfi_offset 30, -16
	.cfi_offset 29, -20
	.cfi_offset 28, -24
	.cfi_offset 63, -8
	.cfi_offset 65, 4
	.loc 4 455 0
	rlwinm 11,11,0,0,27
	.loc 4 454 0
	rlwinm 0,0,0,0,27
	.loc 4 455 0
	neg 11,11
	.loc 4 454 0
	neg 0,0
	stwux 10,1,0
.LBB5560:
.LBB5561:
.LBB5562:
	.loc 3 402 0
	lwz 12,12(3)
.LBE5562:
.LBE5561:
.LBE5560:
	.loc 4 454 0
	addi 4,1,23
.LVL231:
	.loc 4 455 0
	stwux 10,1,11
	.loc 4 454 0
	rlwinm 4,4,0,0,27
.LBB5589:
.LBB5563:
.LBB5564:
	.loc 5 425 0
	stw 12,8(31)
.LBE5564:
.LBE5563:
.LBB5569:
.LBB5570:
	.loc 3 402 0
	lwz 8,20(3)
.LBE5570:
.LBE5569:
.LBE5589:
	.loc 4 455 0
	addi 6,1,23
.LBB5590:
.LBB5571:
.LBB5572:
	.loc 3 402 0
	lwz 11,44(3)
.LBE5572:
.LBE5571:
.LBE5590:
	.loc 4 455 0
	rlwinm 6,6,0,0,27
.LBB5591:
.LBB5573:
.LBB5565:
	.loc 5 427 0
	stw 8,32(31)
	li 8,0
.LBE5565:
.LBE5573:
.LBE5591:
.LBB5592:
.LBB5593:
	.loc 5 333 0
	cmpwi 7,8,24
.LBE5593:
.LBE5592:
.LBB5608:
.LBB5574:
.LBB5566:
	.loc 5 427 0
	stw 11,40(31)
.LBE5566:
.LBE5574:
.LBE5608:
.LBB5609:
.LBB5604:
.LBB5594:
.LBB5595:
	.loc 3 424 0
	addi 11,31,44
.LBE5595:
.LBE5594:
.LBE5604:
.LBE5609:
.LBB5610:
.LBB5575:
.LBB5576:
	.loc 3 402 0
	lwz 7,24(3)
.LBE5576:
.LBE5575:
.LBE5610:
.LBB5611:
.LBB5605:
.LBB5600:
.LBB5596:
	.loc 3 424 0
	stwux 12,11,8
.LBE5596:
.LBE5600:
	.loc 5 333 0
	addi 8,8,12
.LBE5605:
.LBE5611:
.LBB5612:
.LBB5577:
.LBB5578:
	.loc 3 402 0
	lwz 0,36(3)
.LBE5578:
.LBE5577:
.LBB5579:
.LBB5580:
	lwz 10,32(3)
.LBE5580:
.LBE5579:
.LBB5581:
.LBB5582:
	lwz 28,16(3)
.LBE5582:
.LBE5581:
.LBB5583:
.LBB5584:
	lwz 29,28(3)
.LBE5584:
.LBE5583:
.LBB5585:
.LBB5586:
	lwz 30,40(3)
.LBE5586:
.LBE5585:
.LBB5587:
.LBB5567:
	.loc 5 427 0
	stw 10,36(31)
.LBE5567:
.LBE5587:
.LBE5612:
.LBB5613:
.LBB5606:
	.loc 5 333 0
	addi 10,31,8
.LBE5606:
.LBE5613:
.LBB5614:
.LBB5588:
.LBB5568:
	.loc 5 425 0
	stw 7,12(31)
	stw 0,16(31)
	.loc 5 426 0
	stw 28,20(31)
	stw 29,24(31)
	stw 30,28(31)
.LVL232:
.LBE5568:
.LBE5588:
.LBE5614:
.LBB5615:
.LBB5607:
.LBB5601:
.LBB5597:
	.loc 3 425 0
	stw 7,4(11)
	.loc 3 426 0
	stw 0,8(11)
.LBE5597:
.LBE5601:
	.loc 5 333 0
	beq- 7,.L95
.LVL233:
.L100:
	lwzux 12,10,8
.LVL234:
	cmpwi 7,8,24
.LBB5602:
.LBB5598:
	.loc 3 424 0
	addi 11,31,44
.LVL235:
	stwux 12,11,8
.LVL236:
.LBE5598:
.LBE5602:
	.loc 5 333 0
	addi 8,8,12
	.loc 4 449 0
	lwz 7,4(10)
	lwz 0,8(10)
	.loc 5 333 0
	addi 10,31,8
.LVL237:
.LBB5603:
.LBB5599:
	.loc 3 425 0
	stw 7,4(11)
	.loc 3 426 0
	stw 0,8(11)
.LBE5599:
.LBE5603:
	.loc 5 333 0
	bne+ 7,.L100
.L95:
.LVL238:
.LBE5607:
.LBE5615:
	.loc 4 458 0 discriminator 1
	cmpwi 7,5,0
	ble- 7,.L97
	.loc 4 458 0 is_stmt 0
	lfs 31,44(31)
	mr 11,4
	lfs 1,56(31)
	li 10,0
.LVL239:
	lfs 2,68(31)
	li 8,0
	lfs 3,48(31)
	lfs 4,60(31)
	lfs 5,72(31)
	lfs 6,52(31)
	lfs 7,64(31)
	lfs 8,76(31)
.LVL240:
.L98:
.LBB5616:
.LBB5617:
	.loc 1 204 0 is_stmt 1 discriminator 2
	lwz 5,8(9)
.LBE5617:
.LBE5616:
	.loc 4 458 0 discriminator 2
	addi 8,8,1
.LVL241:
.LBB5619:
.LBB5620:
	.loc 3 431 0 discriminator 2
	lfs 0,4(3)
.LBE5620:
.LBE5619:
.LBB5625:
.LBB5618:
	.loc 1 204 0 discriminator 2
	add 7,5,10
.LVL242:
.LBE5618:
.LBE5625:
.LBB5626:
.LBB5621:
	.loc 3 431 0 discriminator 2
	lfsx 13,5,10
	lfs 12,4(7)
.LBE5621:
.LBE5626:
	.loc 4 2843 0 discriminator 2
	addi 10,10,20
.LBB5627:
.LBB5622:
	.loc 3 431 0 discriminator 2
	lfs 9,8(7)
	fsubs 12,12,0
	lfs 0,0(3)
.LBE5622:
.LBE5627:
	.loc 4 2843 0 discriminator 2
	lwz 5,4(9)
.LBB5628:
.LBB5623:
	.loc 3 431 0 discriminator 2
	fsubs 13,13,0
	lfs 0,8(3)
.LBE5623:
.LBE5628:
.LBB5629:
.LBB5630:
.LBB5631:
	.loc 5 454 0 discriminator 2
	fmuls 10,12,1
.LBE5631:
.LBE5630:
.LBE5629:
	.loc 4 458 0 discriminator 2
	cmpw 7,5,8
.LBB5634:
.LBB5633:
.LBB5632:
	.loc 5 454 0 discriminator 2
	fmuls 11,12,4
	fmuls 12,12,7
.LBE5632:
.LBE5633:
.LBE5634:
.LBB5635:
.LBB5624:
	.loc 3 431 0 discriminator 2
	fsubs 0,9,0
.LVL243:
.LBE5624:
.LBE5635:
.LBB5636:
.LBB5637:
	.loc 5 454 0 discriminator 2
	fmadds 10,13,31,10
	fmadds 11,13,3,11
	fmadds 13,13,6,12
.LVL244:
	fmadds 10,0,2,10
	fmadds 11,0,5,11
	fmadds 0,0,8,13
.LVL245:
	.loc 3 424 0 discriminator 2
	stfs 10,0(11)
	.loc 3 425 0 discriminator 2
	stfs 11,4(11)
	.loc 3 426 0 discriminator 2
	stfs 0,8(11)
.LBE5637:
.LBE5636:
	.loc 4 2843 0 discriminator 2
	addi 11,11,12
	.loc 4 458 0 discriminator 2
	bgt+ 7,.L98
.LVL246:
.L97:
	.loc 4 462 0
	bl _ZNK9idFrustum16CullLocalWindingEPK6idVec3iPi
.LVL247:
.LBE5559:
	.loc 4 463 0
	addi 11,31,112
	lwz 0,4(11)
	lwz 28,-24(11)
.LVL248:
	mtlr 0
	lwz 29,-20(11)
.LVL249:
	lwz 30,-16(11)
.LVL250:
	lwz 31,-12(11)
.LCFI27:
	.cfi_def_cfa 11, 0
	lfd 31,-8(11)
	mr 1,11
.LCFI28:
	.cfi_def_cfa_register 1
	.cfi_restore 63
	.cfi_restore 31
	.cfi_restore 30
	.cfi_restore 29
	.cfi_restore 28
	blr
	.cfi_endproc
.LFE2550:
	.size	_ZNK9idFrustum11CullWindingERK9idWinding, .-_ZNK9idFrustum11CullWindingERK9idWinding
	.align 2
	.globl _ZNK9idFrustum22BoundsCullLocalFrustumERK8idBoundsRKS_PK6idVec3S7_
	.type	_ZNK9idFrustum22BoundsCullLocalFrustumERK8idBoundsRKS_PK6idVec3S7_, @function
_ZNK9idFrustum22BoundsCullLocalFrustumERK8idBoundsRKS_PK6idVec3S7_:
.LFB2551:
	.loc 4 472 0
	.cfi_startproc
.LVL251:
	stwu 1,-16(1)
.LCFI29:
	.cfi_def_cfa_offset 16
.LBB5642:
	.loc 4 483 0
	li 3,1
.LVL252:
	.loc 4 476 0
	lwz 9,24(5)
.LVL253:
	.loc 4 477 0
	lwz 0,36(5)
.LVL254:
	.loc 4 476 0
	stw 9,8(1)
	lfs 0,8(1)
	fneg 0,0
	stfs 0,8(1)
	lwz 10,8(1)
	.loc 4 477 0
	stw 0,8(1)
	.loc 4 478 0
	rlwinm 10,10,2,30,30
	.loc 4 477 0
	lfs 0,8(1)
	fneg 0,0
	stfs 0,8(1)
	lwz 11,8(1)
	.loc 4 478 0
	srwi 11,11,31
	or 11,10,11
.LVL255:
	.loc 4 479 0
	mulli 10,11,12
	lfsx 0,7,10
	fneg 0,0
	stfs 0,8(1)
	.loc 4 482 0
	lfs 0,0(4)
	.loc 4 479 0
	lwz 10,8(1)
	.loc 4 480 0
	rlwinm 10,10,3,29,29
	or 11,11,10
.LVL256:
	.loc 4 482 0
	mulli 11,11,12
.LVL257:
	lfsx 13,6,11
	fcmpu 7,13,0
	blt- 7,.L102
.LVL258:
.LBE5642:
.LBB5643:
.LBB5644:
.LBB5645:
	.loc 4 488 0
	rlwinm 9,9,2,30,30
	srwi 0,0,31
	or 0,9,0
.LVL259:
	.loc 4 492 0
	lfs 0,12(4)
	.loc 4 489 0
	mulli 9,0,12
	.loc 4 490 0
	lwzx 9,7,9
	rlwinm 9,9,3,29,29
	or 0,0,9
.LVL260:
	.loc 4 492 0
	mulli 0,0,12
.LVL261:
	lfsx 13,6,0
	fcmpu 7,13,0
	bgt- 7,.L102
.LVL262:
	.loc 4 496 0
	lwz 11,28(5)
.LVL263:
	.loc 4 497 0
	lwz 9,40(5)
.LVL264:
	.loc 4 496 0
	stw 11,8(1)
	lfs 0,8(1)
	fneg 0,0
	stfs 0,8(1)
	lwz 10,8(1)
	.loc 4 497 0
	stw 9,8(1)
	.loc 4 498 0
	rlwinm 10,10,2,30,30
	.loc 4 497 0
	lfs 0,8(1)
	fneg 0,0
	stfs 0,8(1)
	.loc 4 502 0
	lfs 0,4(4)
	.loc 4 497 0
	lwz 0,8(1)
	.loc 4 498 0
	srwi 0,0,31
	or 0,10,0
.LVL265:
	.loc 4 499 0
	mulli 10,0,12
	add 10,7,10
	lfs 13,4(10)
	fneg 13,13
	stfs 13,8(1)
	lwz 10,8(1)
	.loc 4 500 0
	rlwinm 10,10,3,29,29
	or 10,0,10
.LVL266:
	.loc 4 502 0
	mulli 10,10,12
.LVL267:
	add 10,6,10
	lfs 13,4(10)
	fcmpu 7,13,0
	blt- 7,.L102
.LVL268:
	.loc 4 508 0
	rlwinm 11,11,2,30,30
	srwi 9,9,31
	or 9,11,9
.LVL269:
	.loc 4 512 0
	lfs 0,16(4)
	.loc 4 509 0
	mulli 11,9,12
	add 11,7,11
	.loc 4 510 0
	lwz 0,4(11)
	rlwinm 0,0,3,29,29
	or 9,9,0
.LVL270:
	.loc 4 512 0
	mulli 9,9,12
.LVL271:
	add 9,6,9
	lfs 13,4(9)
	fcmpu 7,13,0
	bgt- 7,.L102
.LVL272:
	.loc 4 516 0
	lwz 11,32(5)
.LVL273:
	.loc 4 517 0
	lwz 9,44(5)
.LVL274:
	.loc 4 516 0
	stw 11,8(1)
	lfs 0,8(1)
	fneg 0,0
	stfs 0,8(1)
	lwz 10,8(1)
	.loc 4 517 0
	stw 9,8(1)
	.loc 4 518 0
	rlwinm 10,10,2,30,30
	.loc 4 517 0
	lfs 0,8(1)
	fneg 0,0
	stfs 0,8(1)
	.loc 4 522 0
	lfs 0,8(4)
	.loc 4 517 0
	lwz 0,8(1)
	.loc 4 518 0
	srwi 0,0,31
	or 0,10,0
.LVL275:
	.loc 4 519 0
	mulli 10,0,12
	add 10,7,10
	lfs 13,8(10)
	fneg 13,13
	stfs 13,8(1)
	lwz 10,8(1)
	.loc 4 520 0
	rlwinm 10,10,3,29,29
	or 10,0,10
.LVL276:
	.loc 4 522 0
	mulli 10,10,12
.LVL277:
	add 10,6,10
	lfs 13,8(10)
	fcmpu 7,13,0
	blt- 7,.L102
.LVL278:
	.loc 4 528 0
	rlwinm 11,11,2,30,30
	srwi 9,9,31
	or 9,11,9
.LVL279:
	.loc 4 532 0
	lfs 0,20(4)
	.loc 4 529 0
	mulli 0,9,12
	add 7,7,0
.LVL280:
	.loc 4 530 0
	lwz 0,8(7)
	rlwinm 0,0,3,29,29
	or 9,9,0
.LVL281:
	.loc 4 532 0
	mulli 9,9,12
.LVL282:
	add 6,6,9
.LVL283:
	lfs 13,8(6)
	fcmpu 7,13,0
	mfcr 3
	rlwinm 3,3,30,1
.LVL284:
.L102:
.LBE5645:
.LBE5644:
.LBE5643:
	.loc 4 537 0
	addi 1,1,16
.LCFI30:
	.cfi_def_cfa_offset 0
	blr
	.cfi_endproc
.LFE2551:
	.size	_ZNK9idFrustum22BoundsCullLocalFrustumERK8idBoundsRKS_PK6idVec3S7_, .-_ZNK9idFrustum22BoundsCullLocalFrustumERK8idBoundsRKS_PK6idVec3S7_
	.align 2
	.globl _ZNK9idFrustum21LocalLineIntersectionERK6idVec3S2_
	.type	_ZNK9idFrustum21LocalLineIntersectionERK6idVec3S2_, @function
_ZNK9idFrustum21LocalLineIntersectionERK6idVec3S2_:
.LFB2552:
	.loc 4 547 0
	.cfi_startproc
.LVL285:
	stwu 1,-72(1)
.LCFI31:
	.cfi_def_cfa_offset 72
.LBB5646:
	.loc 4 558 0
	lis 6,.LC0@ha
	lfs 0,.LC0@l(6)
.LBE5646:
	.loc 4 547 0
	mr 9,3
	stfd 29,48(1)
	stfd 30,56(1)
	stfd 31,64(1)
	stfd 26,24(1)
	stfd 27,32(1)
	stfd 28,40(1)
.LBB5689:
.LBB5647:
.LBB5648:
	.loc 3 431 0
	lfs 8,4(4)
.LBE5648:
.LBE5647:
	.loc 4 558 0
	lfs 11,48(3)
	.loc 4 553 0
	lfs 10,56(3)
	.loc 4 558 0
	fcmpu 7,11,0
	.loc 4 554 0
	lfs 9,60(3)
	.loc 4 553 0
	lfs 0,64(3)
.LBB5653:
.LBB5649:
	.loc 3 431 0
	lfs 6,4(5)
	lfs 5,8(5)
.LBE5649:
.LBE5653:
	.loc 4 553 0
	fmuls 1,10,0
.LVL286:
.LBB5654:
.LBB5650:
	.loc 3 431 0
	lfs 7,8(4)
.LBE5650:
.LBE5654:
	.loc 4 554 0
	fmuls 30,0,9
	.cfi_offset 60, -32
	.cfi_offset 59, -40
	.cfi_offset 58, -48
	.cfi_offset 63, -8
	.cfi_offset 62, -16
	.cfi_offset 61, -24
.LVL287:
.LBB5655:
.LBB5651:
	.loc 3 431 0
	lfs 12,0(5)
	fsubs 31,6,8
	lfs 13,0(4)
	fsubs 29,5,7
.LVL288:
.LBE5651:
.LBE5655:
	.loc 4 558 0
	bng- 7,.L147
.LVL289:
	.loc 4 559 0
	fsubs 0,11,13
	stfs 0,8(1)
.LVL290:
	.loc 4 560 0
	lwz 7,8(1)
	.loc 4 561 0
	rlwinm. 0,7,0,1,31
	.loc 4 560 0
	srwi 7,7,31
.LVL291:
	.loc 4 561 0
	beq- 0,.L110
	.loc 4 562 0
	fsubs 0,11,12
.LVL292:
	stfs 0,12(1)
.LVL293:
	.loc 4 563 0
	lwz 5,12(1)
.LVL294:
	srwi 0,5,31
	cmpw 7,7,0
	beq- 7,.L110
	.loc 4 564 0
	lfs 2,8(1)
	.loc 4 565 0
	fmuls 4,1,11
	.loc 4 564 0
	fsubs 0,2,0
.LVL295:
	fdivs 0,2,0
.LVL296:
.LBB5656:
.LBB5657:
	.loc 4 565 0
	fmadds 26,0,31,8
	stfs 26,16(1)
	lwz 0,16(1)
	.loc 6 781 0
	rlwinm 0,0,0,1,31
.LBE5657:
.LBE5656:
	.loc 4 565 0
	stw 0,16(1)
	lfs 27,16(1)
	fcmpu 7,4,27
	cror 30,29,30
	bne- 7,.L110
.LVL297:
.LBB5658:
.LBB5659:
	.loc 4 566 0
	fmadds 0,0,29,7
.LVL298:
.LBE5659:
.LBE5658:
	.loc 4 567 0
	li 3,1
.LVL299:
.LBB5662:
.LBB5660:
	.loc 4 566 0
	stfs 0,16(1)
.LBE5660:
.LBE5662:
	fmuls 0,30,11
.LVL300:
.LBB5663:
.LBB5661:
	lwz 0,16(1)
	.loc 6 781 0
	rlwinm 0,0,0,1,31
.LBE5661:
.LBE5663:
	.loc 4 566 0
	stw 0,16(1)
	lfs 28,16(1)
	fcmpu 7,0,28
	cror 30,29,30
	beq- 7,.L115
.LVL301:
.L110:
	.loc 4 575 0
	lfs 0,52(9)
	fsubs 2,13,0
	stfs 2,8(1)
.LVL302:
	.loc 4 576 0
	lwz 0,8(1)
	.loc 4 577 0
	rlwinm. 5,0,0,1,31
	.loc 4 576 0
	srwi 0,0,31
.LVL303:
	.loc 4 577 0
	beq- 0,.L116
.LVL304:
.L148:
	.loc 4 578 0
	fsubs 2,12,0
.LVL305:
	stfs 2,12(1)
.LVL306:
	.loc 4 579 0
	lwz 5,12(1)
	srwi 9,5,31
.LVL307:
	cmpw 7,0,9
	beq- 7,.L116
	.loc 4 580 0
	lfs 3,8(1)
	lfs 26,8(1)
	fsubs 4,3,2
	.loc 4 581 0
	fmuls 3,1,0
	.loc 4 580 0
	fdivs 4,26,4
.LVL308:
.LBB5664:
.LBB5665:
	.loc 4 581 0
	fmadds 27,4,31,8
	stfs 27,16(1)
	lwz 9,16(1)
	.loc 6 781 0
	rlwinm 9,9,0,1,31
.LBE5665:
.LBE5664:
	.loc 4 581 0
	stw 9,16(1)
	lfs 28,16(1)
	fcmpu 7,3,28
	cror 30,29,30
	bne- 7,.L116
.LVL309:
.LBB5666:
.LBB5667:
	.loc 4 582 0
	fmadds 4,4,29,7
.LVL310:
.LBE5667:
.LBE5666:
	.loc 4 583 0
	li 3,1
.LBB5670:
.LBB5668:
	.loc 4 582 0
	stfs 4,16(1)
.LBE5668:
.LBE5670:
	fmuls 4,30,0
.LVL311:
.LBB5671:
.LBB5669:
	lwz 9,16(1)
	.loc 6 781 0
	rlwinm 9,9,0,1,31
.LBE5669:
.LBE5671:
	.loc 4 582 0
	stw 9,16(1)
	lfs 2,16(1)
.LVL312:
	fcmpu 7,4,2
	cror 30,29,30
	beq- 7,.L115
.LVL313:
.L116:
	.loc 4 591 0
	fmuls 4,10,13
	.loc 4 589 0
	fmuls 3,0,8
.LVL314:
.LBB5672:
.LBB5652:
	.loc 3 431 0
	fsubs 2,12,13
.LBE5652:
.LBE5672:
	.loc 4 590 0
	fmuls 6,0,6
.LVL315:
	.loc 4 595 0
	fsubs 26,3,4
	.loc 4 592 0
	fmuls 10,10,12
.LVL316:
	.loc 4 595 0
	stfs 26,8(1)
	.loc 4 596 0
	lwz 9,8(1)
	.loc 4 597 0
	rlwinm. 5,9,0,1,31
	.loc 4 596 0
	srwi 9,9,31
	.loc 4 597 0
	beq- 0,.L118
	.loc 4 598 0
	fsubs 26,6,10
	stfs 26,12(1)
.LVL317:
	.loc 4 599 0
	lwz 5,12(1)
	srwi 11,5,31
	cmpw 7,9,11
	beq- 7,.L118
	.loc 4 600 0
	lfs 28,8(1)
	fsubs 27,28,26
	fdivs 27,28,27
.LVL318:
	.loc 4 601 0
	fmadds 28,27,2,13
.LVL319:
	.loc 4 602 0
	fcmpu 7,11,28
	cror 30,28,30
	bne- 7,.L118
	.loc 4 602 0 is_stmt 0 discriminator 1
	fcmpu 7,0,28
	cror 30,29,30
	bne- 7,.L118
.LVL320:
.LBB5673:
.LBB5674:
	.loc 4 603 0 is_stmt 1
	fmadds 27,27,29,7
.LVL321:
.LBE5674:
.LBE5673:
	.loc 4 604 0
	li 3,1
	.loc 4 603 0
	fmuls 28,28,30
.LVL322:
.LBB5676:
.LBB5675:
	stfs 27,16(1)
	lwz 11,16(1)
	.loc 6 781 0
	rlwinm 11,11,0,1,31
.LBE5675:
.LBE5676:
	.loc 4 603 0
	stw 11,16(1)
	lfs 26,16(1)
.LVL323:
	fcmpu 7,28,26
	cror 30,29,30
	beq- 7,.L115
.LVL324:
.L118:
	.loc 4 611 0
	fneg 3,3
.LVL325:
	fsubs 3,3,4
	stfs 3,8(1)
.LVL326:
	.loc 4 612 0
	lwz 11,8(1)
	.loc 4 613 0
	rlwinm. 5,11,0,1,31
	.loc 4 612 0
	srwi 11,11,31
	.loc 4 613 0
	beq- 0,.L121
	.loc 4 614 0
	fneg 6,6
.LVL327:
	fsubs 6,6,10
	stfs 6,12(1)
.LVL328:
	.loc 4 615 0
	lwz 6,12(1)
	srwi 10,6,31
	cmpw 7,11,10
	beq- 7,.L121
	.loc 4 616 0
	fsubs 6,3,6
.LVL329:
	fdivs 6,3,6
.LVL330:
	.loc 4 617 0
	fmadds 10,6,2,13
.LVL331:
	.loc 4 618 0
	fcmpu 7,11,10
	cror 30,28,30
	bne- 7,.L121
	.loc 4 618 0 is_stmt 0 discriminator 1
	fcmpu 7,0,10
	cror 30,29,30
	bne- 7,.L121
.LVL332:
.LBB5677:
.LBB5678:
	.loc 4 619 0 is_stmt 1
	fmadds 29,6,29,7
.LVL333:
.LBE5678:
.LBE5677:
	.loc 4 620 0
	li 3,1
	.loc 4 619 0
	fmuls 30,10,30
.LVL334:
.LBB5680:
.LBB5679:
	stfs 29,16(1)
	lwz 10,16(1)
	.loc 6 781 0
	rlwinm 10,10,0,1,31
.LBE5679:
.LBE5680:
	.loc 4 619 0
	stw 10,16(1)
	lfs 3,16(1)
.LVL335:
	fcmpu 7,30,3
	cror 30,29,30
	beq- 7,.L115
.LVL336:
.L121:
	.loc 4 626 0
	fmuls 7,0,7
.LVL337:
	.loc 4 628 0
	fmuls 10,9,13
	.loc 4 627 0
	fmuls 5,0,5
.LVL338:
	.loc 4 629 0
	fmuls 12,9,12
.LVL339:
	.loc 4 632 0
	fsubs 4,7,10
	stfs 4,8(1)
.LVL340:
	.loc 4 633 0
	lwz 10,8(1)
	.loc 4 634 0
	rlwinm. 5,10,0,1,31
	.loc 4 633 0
	srwi 10,10,31
	.loc 4 634 0
	beq- 0,.L124
	.loc 4 635 0
	fsubs 3,5,12
	stfs 3,12(1)
.LVL341:
	.loc 4 636 0
	lwz 5,12(1)
	srwi 8,5,31
	cmpw 7,10,8
	beq- 7,.L124
	.loc 4 637 0
	fsubs 6,4,3
	fdivs 6,4,6
.LVL342:
	.loc 4 638 0
	fmadds 9,6,2,13
.LVL343:
	.loc 4 639 0
	fcmpu 7,11,9
	cror 30,28,30
	bne- 7,.L124
	.loc 4 639 0 is_stmt 0 discriminator 1
	fcmpu 7,0,9
	cror 30,29,30
	bne- 7,.L124
.LVL344:
.LBB5681:
.LBB5682:
	.loc 4 640 0 is_stmt 1
	fmadds 6,6,31,8
.LVL345:
.LBE5682:
.LBE5681:
	.loc 4 641 0
	li 3,1
	.loc 4 640 0
	fmuls 9,9,1
.LVL346:
.LBB5684:
.LBB5683:
	stfs 6,16(1)
	lwz 8,16(1)
	.loc 6 781 0
	rlwinm 8,8,0,1,31
.LBE5683:
.LBE5684:
	.loc 4 640 0
	stw 8,16(1)
	lfs 3,16(1)
.LVL347:
	fcmpu 7,9,3
	cror 30,29,30
	beq- 7,.L115
.LVL348:
.L124:
	.loc 4 648 0
	fneg 7,7
.LVL349:
	fsubs 7,7,10
	stfs 7,8(1)
.LVL350:
	.loc 4 649 0
	lwz 8,8(1)
	.loc 4 650 0
	rlwinm. 5,8,0,1,31
	.loc 4 649 0
	srwi 8,8,31
.LVL351:
	.loc 4 650 0
	beq- 0,.L127
	.loc 4 651 0
	fneg 5,5
.LVL352:
	fsubs 5,5,12
	stfs 5,12(1)
.LVL353:
	.loc 4 652 0
	lwz 5,12(1)
	srwi 6,5,31
	cmpw 7,8,6
	beq- 7,.L127
	.loc 4 653 0
	fsubs 12,7,5
.LVL354:
	fdivs 12,7,12
.LVL355:
	.loc 4 654 0
	fmadds 13,12,2,13
.LVL356:
	.loc 4 655 0
	fcmpu 7,11,13
	cror 30,28,30
	bne- 7,.L127
	.loc 4 655 0 is_stmt 0 discriminator 1
	fcmpu 7,0,13
	cror 30,29,30
	bne- 7,.L127
.LVL357:
.LBB5685:
.LBB5686:
	.loc 4 656 0 is_stmt 1
	fmadds 31,12,31,8
.LVL358:
.LBE5686:
.LBE5685:
	.loc 4 657 0
	li 3,1
	.loc 4 656 0
	fmuls 13,13,1
.LVL359:
.LBB5688:
.LBB5687:
	stfs 31,16(1)
	lwz 6,16(1)
	.loc 6 781 0
	rlwinm 6,6,0,1,31
.LBE5687:
.LBE5688:
	.loc 4 656 0
	stw 6,16(1)
	lfs 0,16(1)
	fcmpu 7,13,0
	cror 30,29,30
	beq- 7,.L115
.LVL360:
.L127:
	.loc 4 576 0
	and 9,9,10
.LVL361:
	.loc 4 596 0
	and 0,9,0
	.loc 4 612 0
	and 11,0,11
	.loc 4 633 0
	and 8,11,8
	.loc 4 663 0
	and 3,8,7
.LVL362:
.L115:
.LBE5689:
	.loc 4 664 0
	lfd 26,24(1)
	lfd 27,32(1)
	lfd 28,40(1)
	lfd 29,48(1)
	lfd 30,56(1)
	lfd 31,64(1)
	addi 1,1,72
	.cfi_remember_state
.LCFI32:
	.cfi_def_cfa_offset 0
	.cfi_restore 63
	.cfi_restore 62
	.cfi_restore 61
	.cfi_restore 60
	.cfi_restore 59
	.cfi_restore 58
	blr
.LVL363:
.L147:
.LCFI33:
	.cfi_restore_state
.LBB5690:
	.loc 4 575 0
	lfs 0,52(9)
	.loc 4 558 0
	li 7,1
.LVL364:
	.loc 4 575 0
	fsubs 2,13,0
	stfs 2,8(1)
.LVL365:
	.loc 4 576 0
	lwz 0,8(1)
	.loc 4 577 0
	rlwinm. 5,0,0,1,31
.LVL366:
	.loc 4 576 0
	srwi 0,0,31
.LVL367:
	.loc 4 577 0
	beq- 0,.L116
	b .L148
.LBE5690:
	.cfi_endproc
.LFE2552:
	.size	_ZNK9idFrustum21LocalLineIntersectionERK6idVec3S2_, .-_ZNK9idFrustum21LocalLineIntersectionERK6idVec3S2_
	.align 2
	.globl _ZNK9idFrustum20LocalRayIntersectionERK6idVec3S2_RfS3_
	.type	_ZNK9idFrustum20LocalRayIntersectionERK6idVec3S2_RfS3_, @function
_ZNK9idFrustum20LocalRayIntersectionERK6idVec3S2_RfS3_:
.LFB2553:
	.loc 4 674 0
	.cfi_startproc
.LVL368:
.LBB5691:
	.loc 4 684 0
	lis 9,_ZN6idMath8INFINITYE@ha
.LBE5691:
	.loc 4 674 0
	stwu 1,-32(1)
.LCFI34:
	.cfi_def_cfa_offset 32
.LBB5736:
	.loc 4 684 0
	lfs 0,_ZN6idMath8INFINITYE@l(9)
	.loc 4 688 0
	lis 11,.LC0@ha
.LBE5736:
	.loc 4 674 0
	stfd 31,24(1)
	mr 9,3
.LBB5737:
	.loc 4 685 0
	fneg 5,0
.LBE5737:
	.loc 4 674 0
	stw 31,20(1)
.LBB5738:
.LBB5692:
.LBB5693:
	.loc 3 452 0
	lfs 8,0(4)
.LBE5693:
.LBE5692:
	.loc 4 680 0
	lfs 13,64(3)
	lfs 4,56(3)
	.loc 4 681 0
	lfs 6,60(3)
.LBB5698:
.LBB5694:
	.loc 3 452 0
	lfs 12,0(5)
.LBE5694:
.LBE5698:
	.loc 4 680 0
	fmuls 4,13,4
.LVL369:
.LBB5699:
.LBB5695:
	.loc 3 452 0
	lfs 7,4(4)
.LBE5695:
.LBE5699:
	.loc 4 681 0
	fmuls 3,13,6
.LVL370:
.LBB5700:
.LBB5696:
	.loc 3 452 0
	lfs 9,4(5)
	fadds 12,8,12
	lfs 10,8(4)
	lfs 11,8(5)
	fadds 7,7,9
.LBE5696:
.LBE5700:
	.loc 4 684 0
	stfs 0,0(6)
	.loc 4 685 0
	stfs 5,0(7)
.LBB5701:
.LBB5697:
	.loc 3 452 0
	fadds 10,10,11
.LVL371:
.LBE5697:
.LBE5701:
	.loc 4 688 0
	lfs 5,.LC0@l(11)
	lfs 0,48(3)
	.loc 4 689 0
	lfs 13,0(4)
	.loc 4 688 0
	fcmpu 7,0,5
	bgt- 7,.L150
	.cfi_offset 31, -12
	.cfi_offset 63, -8
.LVL372:
	lfs 6,4(4)
	li 3,1
.LVL373:
	lfs 9,8(4)
.LVL374:
.L151:
	.loc 4 704 0
	lfs 0,52(9)
	fsubs 8,13,0
	stfs 8,8(1)
.LVL375:
	.loc 4 706 0
	fsubs 8,12,0
.LVL376:
	.loc 4 707 0
	lfs 1,8(1)
	.loc 4 705 0
	lwz 0,8(1)
	.loc 4 707 0
	fcmpu 7,1,8
	.loc 4 705 0
	srwi 8,0,31
.LVL377:
	.loc 4 707 0
	beq- 7,.L158
	.loc 4 708 0
	fsubs 8,1,8
.LVL378:
.LBB5702:
.LBB5703:
	.loc 4 709 0
	lfs 5,4(5)
.LBE5703:
.LBE5702:
	fmuls 11,4,0
	.loc 4 708 0
	fdivs 8,1,8
.LVL379:
.LBB5705:
.LBB5704:
	.loc 4 709 0
	fmadds 5,5,8,6
	stfs 5,12(1)
	lwz 0,12(1)
	.loc 6 781 0
	rlwinm 0,0,0,1,31
.LBE5704:
.LBE5705:
	.loc 4 709 0
	stw 0,12(1)
	lfs 2,12(1)
	fcmpu 7,11,2
	cror 30,29,30
	beq- 7,.L218
.LVL380:
.L158:
	.loc 4 719 0
	lfs 11,56(9)
	.loc 4 717 0
	fmuls 6,0,6
.LVL381:
	.loc 4 718 0
	fmuls 7,7,0
.LVL382:
	.loc 4 719 0
	fmuls 8,11,13
.LVL383:
	.loc 4 720 0
	fmuls 11,11,12
.LVL384:
	.loc 4 723 0
	fsubs 31,6,8
	.loc 4 725 0
	fsubs 5,7,11
	.loc 4 723 0
	stfs 31,8(1)
.LVL385:
	.loc 4 726 0
	fcmpu 7,31,5
	.loc 4 724 0
	lwz 0,8(1)
	srwi 10,0,31
.LVL386:
	.loc 4 726 0
	beq- 7,.L164
	.loc 4 727 0
	fsubs 5,31,5
.LVL387:
	.loc 4 728 0
	lfs 2,0(5)
	.loc 4 729 0
	lfs 1,48(9)
	.loc 4 727 0
	fdivs 5,31,5
.LVL388:
	.loc 4 728 0
	fmadds 2,2,5,13
.LVL389:
	.loc 4 729 0
	fcmpu 7,1,2
	cror 30,28,30
	beq- 7,.L219
.LVL390:
.L164:
	.loc 4 738 0
	fneg 6,6
.LVL391:
	.loc 4 740 0
	fneg 7,7
.LVL392:
	.loc 4 738 0
	fsubs 6,6,8
	.loc 4 740 0
	fsubs 11,7,11
.LVL393:
	.loc 4 738 0
	stfs 6,8(1)
.LVL394:
	.loc 4 741 0
	fcmpu 7,6,11
	.loc 4 739 0
	lwz 0,8(1)
	srwi 11,0,31
.LVL395:
	.loc 4 741 0
	beq- 7,.L171
	.loc 4 742 0
	fsubs 11,6,11
.LVL396:
	lfs 1,8(1)
	.loc 4 743 0
	lfs 6,0(5)
.LVL397:
	.loc 4 744 0
	lfs 8,48(9)
.LVL398:
	.loc 4 742 0
	fdivs 11,1,11
.LVL399:
	.loc 4 743 0
	fmadds 6,6,11,13
.LVL400:
	.loc 4 744 0
	fcmpu 7,8,6
	cror 30,28,30
	beq- 7,.L220
.LVL401:
.L171:
	.loc 4 754 0
	lfs 8,60(9)
	.loc 4 752 0
	fmuls 9,0,9
.LVL402:
	.loc 4 753 0
	fmuls 10,10,0
.LVL403:
	.loc 4 754 0
	fmuls 11,8,13
.LVL404:
	.loc 4 755 0
	fmuls 12,8,12
.LVL405:
	.loc 4 758 0
	fsubs 5,9,11
	.loc 4 760 0
	fsubs 8,10,12
	.loc 4 758 0
	stfs 5,8(1)
.LVL406:
	.loc 4 761 0
	fcmpu 7,5,8
	.loc 4 759 0
	lwz 31,8(1)
	srwi 0,31,31
.LVL407:
	.loc 4 761 0
	beq- 7,.L178
	.loc 4 762 0
	fsubs 8,5,8
.LVL408:
	.loc 4 763 0
	lfs 6,0(5)
	.loc 4 764 0
	lfs 7,48(9)
	.loc 4 762 0
	fdivs 8,5,8
.LVL409:
	.loc 4 763 0
	fmadds 13,6,8,13
.LVL410:
	.loc 4 764 0
	fcmpu 7,7,13
	cror 30,28,30
	beq- 7,.L221
.LVL411:
.L178:
	.loc 4 773 0
	fneg 9,9
.LVL412:
	.loc 4 705 0
	and 3,8,3
.LVL413:
	.loc 4 775 0
	fneg 10,10
.LVL414:
	.loc 4 724 0
	and 3,3,10
	.loc 4 739 0
	and 3,3,11
	.loc 4 773 0
	fsubs 9,9,11
	.loc 4 759 0
	and 3,3,0
	.loc 4 775 0
	fsubs 12,10,12
.LVL415:
	.loc 4 773 0
	stfs 9,8(1)
.LVL416:
	.loc 4 776 0
	fcmpu 7,9,12
	.loc 4 774 0
	lwz 11,8(1)
	srwi 0,11,31
	and 3,3,0
.LVL417:
	.loc 4 776 0
	beq- 7,.L185
	.loc 4 777 0
	fsubs 12,9,12
.LVL418:
	.loc 4 778 0
	lfs 11,0(5)
.LVL419:
	lfs 0,0(4)
	.loc 4 779 0
	lfs 13,48(9)
	.loc 4 777 0
	fdivs 12,9,12
.LVL420:
	.loc 4 778 0
	fmadds 0,11,12,0
.LVL421:
	.loc 4 779 0
	fcmpu 7,13,0
	cror 30,28,30
	bne- 7,.L185
	.loc 4 779 0 is_stmt 0 discriminator 1
	lfs 13,52(9)
	fcmpu 7,13,0
	cror 30,29,30
	bne- 7,.L185
.LVL422:
.LBB5706:
.LBB5707:
	.loc 4 780 0 is_stmt 1
	lfs 11,4(5)
.LBE5707:
.LBE5706:
	fmuls 4,0,4
.LVL423:
.LBB5709:
.LBB5708:
	lfs 13,4(4)
	fmadds 13,11,12,13
	stfs 13,12(1)
	lwz 0,12(1)
	.loc 6 781 0
	rlwinm 0,0,0,1,31
.LBE5708:
.LBE5709:
	.loc 4 780 0
	stw 0,12(1)
	lfs 0,12(1)
.LVL424:
	fcmpu 7,4,0
	cror 30,29,30
	bne- 7,.L185
	.loc 4 781 0
	lfs 0,0(6)
	fcmpu 7,0,12
	bng- 7,.L189
	fmr 0,12
.L189:
	stfs 0,0(6)
	.loc 4 782 0
	lfs 0,0(7)
	fcmpu 7,0,12
	bnl- 7,.L185
	.loc 4 782 0 is_stmt 0 discriminator 1
	stfs 12,0(7)
.LVL425:
.L185:
.LBE5738:
	.loc 4 788 0 is_stmt 1
	lwz 31,20(1)
	lfd 31,24(1)
	addi 1,1,32
	.cfi_remember_state
.LCFI35:
	.cfi_def_cfa_offset 0
	.cfi_restore 63
	.cfi_restore 31
	blr
.LVL426:
.L150:
.LCFI36:
	.cfi_restore_state
.LBB5739:
	.loc 4 689 0
	fsubs 1,0,13
	.loc 4 691 0
	fsubs 11,0,12
	.loc 4 689 0
	stfs 1,8(1)
.LVL427:
	.loc 4 692 0
	fcmpu 7,1,11
	.loc 4 690 0
	lwz 0,8(1)
	srwi 3,0,31
.LVL428:
	.loc 4 692 0
	beq- 7,.L214
	.loc 4 693 0
	lfs 1,8(1)
	.loc 4 694 0
	lfs 6,4(4)
	.loc 4 693 0
	fsubs 11,1,11
.LVL429:
.LBB5710:
.LBB5711:
	.loc 4 694 0
	lfs 9,4(5)
.LBE5711:
.LBE5710:
	.loc 4 693 0
	fdivs 11,1,11
.LVL430:
.LBB5714:
.LBB5712:
	.loc 4 694 0
	fmadds 9,9,11,6
	stfs 9,12(1)
.LBE5712:
.LBE5714:
	fmuls 9,4,0
.LBB5715:
.LBB5713:
	lwz 0,12(1)
	.loc 6 781 0
	rlwinm 0,0,0,1,31
.LBE5713:
.LBE5715:
	.loc 4 694 0
	stw 0,12(1)
	lfs 2,12(1)
	fcmpu 7,9,2
	.loc 4 695 0
	lfs 9,8(4)
	.loc 4 694 0
	cror 30,29,30
	bne- 7,.L151
.LVL431:
.LBB5716:
.LBB5717:
	.loc 4 695 0
	lfs 8,8(5)
.LBE5717:
.LBE5716:
	fmuls 0,3,0
.LBB5719:
.LBB5718:
	fmadds 8,8,11,9
	stfs 8,12(1)
	lwz 0,12(1)
	.loc 6 781 0
	rlwinm 0,0,0,1,31
.LBE5718:
.LBE5719:
	.loc 4 695 0
	stw 0,12(1)
	lfs 5,12(1)
	fcmpu 7,0,5
	cror 30,29,30
	bne- 7,.L151
	.loc 4 696 0
	lfs 0,0(6)
	fcmpu 7,0,11
	bng- 7,.L155
	fmr 0,11
.L155:
	stfs 0,0(6)
	.loc 4 697 0
	lfs 0,0(7)
	fcmpu 7,0,11
	bnl- 7,.L222
	.loc 4 697 0 is_stmt 0 discriminator 1
	stfs 11,0(7)
	lfs 13,0(4)
.LVL432:
.L214:
	lfs 6,4(4)
	lfs 9,8(4)
	b .L151
.LVL433:
.L221:
	.loc 4 764 0 is_stmt 1 discriminator 1
	fcmpu 7,13,0
	cror 30,28,30
	bne- 7,.L178
.LVL434:
.LBB5720:
.LBB5721:
	.loc 4 765 0
	lfs 7,4(5)
.LBE5721:
.LBE5720:
	fmuls 13,13,4
.LVL435:
.LBB5723:
.LBB5722:
	lfs 0,4(4)
	fmadds 0,7,8,0
	stfs 0,12(1)
	lwz 12,12(1)
	.loc 6 781 0
	rlwinm 12,12,0,1,31
.LBE5722:
.LBE5723:
	.loc 4 765 0
	stw 12,12(1)
	lfs 0,12(1)
	fcmpu 7,13,0
	cror 30,29,30
	bne- 7,.L178
	.loc 4 766 0
	lfs 0,0(6)
	fcmpu 7,0,8
	bng- 7,.L182
	fmr 0,8
.L182:
	stfs 0,0(6)
	.loc 4 767 0
	lfs 0,0(7)
	fcmpu 7,0,8
	bnl- 7,.L178
	.loc 4 767 0 is_stmt 0 discriminator 1
	stfs 8,0(7)
	b .L178
.LVL436:
.L220:
	.loc 4 744 0 is_stmt 1 discriminator 1
	fcmpu 7,6,0
	cror 30,28,30
	bne- 7,.L171
.LVL437:
.LBB5724:
.LBB5725:
	.loc 4 745 0
	lfs 8,8(5)
.LBE5725:
.LBE5724:
	fmuls 6,6,3
.LVL438:
.LBB5727:
.LBB5726:
	fmadds 8,8,11,9
	stfs 8,12(1)
	lwz 0,12(1)
	.loc 6 781 0
	rlwinm 0,0,0,1,31
.LBE5726:
.LBE5727:
	.loc 4 745 0
	stw 0,12(1)
	lfs 2,12(1)
	fcmpu 7,6,2
	cror 30,29,30
	bne- 7,.L171
	.loc 4 746 0
	lfs 0,0(6)
	fcmpu 7,0,11
	bng- 7,.L175
	fmr 0,11
.L175:
	stfs 0,0(6)
	.loc 4 747 0
	lfs 0,0(7)
	fcmpu 7,0,11
	bnl- 7,.L217
	.loc 4 747 0 is_stmt 0 discriminator 1
	stfs 11,0(7)
.L217:
	lfs 0,52(9)
	lfs 9,8(4)
.LVL439:
	lfs 13,0(4)
	b .L171
.LVL440:
.L219:
	.loc 4 729 0 is_stmt 1 discriminator 1
	fcmpu 7,2,0
	cror 30,28,30
	bne- 7,.L164
.LVL441:
.LBB5728:
.LBB5729:
	.loc 4 730 0
	lfs 1,8(5)
.LBE5729:
.LBE5728:
	fmuls 2,2,3
.LVL442:
.LBB5731:
.LBB5730:
	fmadds 1,1,5,9
	stfs 1,12(1)
	lwz 0,12(1)
	.loc 6 781 0
	rlwinm 0,0,0,1,31
.LBE5730:
.LBE5731:
	.loc 4 730 0
	stw 0,12(1)
	lfs 1,12(1)
	fcmpu 7,2,1
	cror 30,29,30
	bne- 7,.L164
	.loc 4 731 0
	lfs 0,0(6)
	fcmpu 7,0,5
	bng- 7,.L168
	fmr 0,5
.L168:
	stfs 0,0(6)
	.loc 4 732 0
	lfs 0,0(7)
	fcmpu 7,0,5
	bnl- 7,.L216
	.loc 4 732 0 is_stmt 0 discriminator 1
	stfs 5,0(7)
.L216:
	lfs 13,0(4)
	lfs 0,52(9)
	lfs 9,8(4)
.LVL443:
	b .L164
.LVL444:
.L218:
.LBB5732:
.LBB5733:
	.loc 4 710 0 is_stmt 1
	lfs 5,8(5)
.LVL445:
.LBE5733:
.LBE5732:
	fmuls 11,3,0
.LBB5735:
.LBB5734:
	fmadds 5,5,8,9
	stfs 5,12(1)
	lwz 0,12(1)
	.loc 6 781 0
	rlwinm 0,0,0,1,31
.LBE5734:
.LBE5735:
	.loc 4 710 0
	stw 0,12(1)
	lfs 5,12(1)
	fcmpu 7,11,5
	cror 30,29,30
	bne- 7,.L158
	.loc 4 711 0
	lfs 0,0(6)
	fcmpu 7,0,8
	bng- 7,.L161
	fmr 0,8
.L161:
	stfs 0,0(6)
	.loc 4 712 0
	lfs 0,0(7)
	fcmpu 7,0,8
	bnl- 7,.L215
	.loc 4 712 0 is_stmt 0 discriminator 1
	stfs 8,0(7)
.L215:
	lfs 0,52(9)
	lfs 6,4(4)
.LVL446:
	lfs 13,0(4)
	lfs 9,8(4)
.LVL447:
	b .L158
.LVL448:
.L222:
	.loc 4 697 0 is_stmt 1
	lfs 13,0(4)
	lfs 6,4(4)
.LVL449:
	lfs 9,8(4)
.LVL450:
	b .L151
.LBE5739:
	.cfi_endproc
.LFE2553:
	.size	_ZNK9idFrustum20LocalRayIntersectionERK6idVec3S2_RfS3_, .-_ZNK9idFrustum20LocalRayIntersectionERK6idVec3S2_RfS3_
	.align 2
	.globl _ZNK9idFrustum13ContainsPointERK6idVec3
	.type	_ZNK9idFrustum13ContainsPointERK6idVec3, @function
_ZNK9idFrustum13ContainsPointERK6idVec3:
.LFB2554:
	.loc 4 795 0
	.cfi_startproc
.LVL451:
	mflr 0
	stwu 1,-8(1)
.LCFI37:
	.cfi_def_cfa_offset 8
	.cfi_register 65, 0
	stw 0,12(1)
	.loc 4 796 0
	.cfi_offset 65, 4
	bl _ZNK9idFrustum9CullPointERK6idVec3
.LVL452:
	.loc 4 797 0
	lwz 0,12(1)
	.loc 4 796 0
	xori 3,3,1
	.loc 4 797 0
	rlwinm 3,3,0,0xff
	mtlr 0
	addi 1,1,8
.LCFI38:
	.cfi_def_cfa_offset 0
	blr
	.cfi_endproc
.LFE2554:
	.size	_ZNK9idFrustum13ContainsPointERK6idVec3, .-_ZNK9idFrustum13ContainsPointERK6idVec3
	.align 2
	.globl _ZNK9idFrustum29LocalFrustumIntersectsFrustumEPK6idVec3b
	.type	_ZNK9idFrustum29LocalFrustumIntersectsFrustumEPK6idVec3b, @function
_ZNK9idFrustum29LocalFrustumIntersectsFrustumEPK6idVec3b:
.LFB2555:
	.loc 4 804 0
	.cfi_startproc
.LVL453:
	mflr 0
	stwu 1,-32(1)
.LCFI39:
	.cfi_def_cfa_offset 32
	.cfi_register 65, 0
	stw 26,8(1)
	mr 26,5
	.cfi_offset 26, -24
	stw 0,36(1)
	stw 27,12(1)
.LBB5740:
	.loc 4 826 0
	mr 27,4
	.cfi_offset 27, -20
	.cfi_offset 65, 4
.LBE5740:
	.loc 4 804 0
	stw 28,16(1)
	mr 28,4
	.cfi_offset 28, -16
	stw 29,20(1)
	mr 29,3
	.cfi_offset 29, -12
	stw 30,24(1)
	.loc 4 808 0
	li 30,0
	.cfi_offset 30, -8
	.loc 4 804 0
	stw 31,28(1)
	.loc 4 804 0
	mr 31,4
	.cfi_offset 31, -4
.LVL454:
.L226:
.LBB5741:
	.loc 4 809 0
	mr 4,31
	addi 5,31,48
	mr 3,29
	.loc 4 808 0
	addi 31,31,12
	.loc 4 809 0
	bl _ZNK9idFrustum21LocalLineIntersectionERK6idVec3S2_
	.loc 4 808 0
	cmpwi 6,30,3
	.loc 4 809 0
	cmpwi 7,3,0
	.loc 4 808 0
	addi 30,30,1
	.loc 4 809 0
	bne- 7,.L232
	.loc 4 808 0
	bne+ 6,.L226
	.loc 4 813 0
	cmpwi 7,26,0
	beq- 7,.L227
	li 31,0
.LVL455:
.L228:
	.loc 4 815 0
	addi 31,31,1
	mr 4,27
	rlwinm 5,31,0,30,31
	mr 3,29
	mulli 5,5,12
	addi 27,27,12
	add 5,28,5
	bl _ZNK9idFrustum21LocalLineIntersectionERK6idVec3S2_
	.loc 4 814 0
	cmpwi 6,31,4
	.loc 4 815 0
	cmpwi 7,3,0
	bne- 7,.L232
.LVL456:
	.loc 4 814 0 discriminator 1
	bne+ 6,.L228
.LVL457:
.L227:
	.loc 4 804 0
	addi 30,28,48
	li 31,0
.L229:
	.loc 4 821 0
	addi 31,31,1
	mr 4,30
	rlwinm 5,31,0,30,31
	mr 3,29
	mulli 5,5,12
	addi 30,30,12
	addi 5,5,48
	add 5,28,5
	bl _ZNK9idFrustum21LocalLineIntersectionERK6idVec3S2_
	.loc 4 820 0
	cmpwi 6,31,4
	.loc 4 821 0
	cmpwi 7,3,0
	bne- 7,.L232
.LVL458:
	.loc 4 820 0 discriminator 1
	bne+ 6,.L229
.LBE5741:
	.loc 4 827 0
	lwz 0,36(1)
	lwz 26,8(1)
	mtlr 0
	lwz 27,12(1)
	lwz 28,16(1)
.LVL459:
	lwz 29,20(1)
.LVL460:
	lwz 30,24(1)
	lwz 31,28(1)
.LVL461:
	addi 1,1,32
	.cfi_remember_state
.LCFI40:
	.cfi_def_cfa_offset 0
	.cfi_restore 31
	.cfi_restore 30
	.cfi_restore 29
	.cfi_restore 28
	.cfi_restore 27
	.cfi_restore 26
	blr
.LVL462:
.L232:
.LCFI41:
	.cfi_restore_state
	lwz 0,36(1)
.LBB5742:
	.loc 4 822 0
	li 3,1
.LBE5742:
	.loc 4 827 0
	lwz 26,8(1)
	mtlr 0
	lwz 27,12(1)
	lwz 28,16(1)
.LVL463:
	lwz 29,20(1)
.LVL464:
	lwz 30,24(1)
	lwz 31,28(1)
	addi 1,1,32
	.cfi_restore 26
	.cfi_restore 27
	.cfi_restore 28
	.cfi_restore 29
	.cfi_restore 30
	.cfi_restore 31
.LCFI42:
	.cfi_def_cfa_offset 0
	blr
	.cfi_endproc
.LFE2555:
	.size	_ZNK9idFrustum29LocalFrustumIntersectsFrustumEPK6idVec3b, .-_ZNK9idFrustum29LocalFrustumIntersectsFrustumEPK6idVec3b
	.align 2
	.globl _ZNK9idFrustum28LocalFrustumIntersectsBoundsEPK6idVec3RK8idBounds
	.type	_ZNK9idFrustum28LocalFrustumIntersectsBoundsEPK6idVec3RK8idBounds, @function
_ZNK9idFrustum28LocalFrustumIntersectsBoundsEPK6idVec3RK8idBounds:
.LFB2556:
	.loc 4 834 0
	.cfi_startproc
.LVL465:
	mflr 0
	stwu 1,-32(1)
.LCFI43:
	.cfi_def_cfa_offset 32
	.cfi_register 65, 0
	stw 26,8(1)
	mr 26,3
	.cfi_offset 26, -24
	stw 0,36(1)
	stw 27,12(1)
.LBB5743:
	.loc 4 856 0
	mr 27,4
	.cfi_offset 27, -20
	.cfi_offset 65, 4
.LBE5743:
	.loc 4 834 0
	stw 28,16(1)
	mr 28,4
	.cfi_offset 28, -16
	stw 29,20(1)
	mr 29,5
	.cfi_offset 29, -12
	stw 30,24(1)
	.loc 4 838 0
	li 30,0
	.cfi_offset 30, -8
	.loc 4 834 0
	stw 31,28(1)
	.loc 4 834 0
	mr 31,4
	.cfi_offset 31, -4
.LVL466:
.L238:
.LBB5744:
	.loc 4 839 0
	mr 4,31
	addi 5,31,48
	mr 3,29
	.loc 4 838 0
	addi 31,31,12
	.loc 4 839 0
	bl _ZNK8idBounds16LineIntersectionERK6idVec3S2_
	.loc 4 838 0
	cmpwi 6,30,3
	.loc 4 839 0
	cmpwi 7,3,0
	.loc 4 838 0
	addi 30,30,1
	.loc 4 839 0
	bne- 7,.L245
	.loc 4 838 0
	bne+ 6,.L238
	.loc 4 843 0
	lis 9,.LC0@ha
	lfs 13,48(26)
	lfs 0,.LC0@l(9)
	li 31,0
	fcmpu 7,13,0
	bgt- 7,.L246
.LVL467:
.L241:
	.loc 4 834 0 discriminator 1
	addi 30,28,48
	li 31,0
.LVL468:
.L240:
	.loc 4 851 0
	addi 31,31,1
	mr 4,30
	rlwinm 5,31,0,30,31
	mr 3,29
	mulli 5,5,12
	addi 30,30,12
	addi 5,5,48
	add 5,28,5
	bl _ZNK8idBounds16LineIntersectionERK6idVec3S2_
	.loc 4 850 0
	cmpwi 6,31,4
	.loc 4 851 0
	cmpwi 7,3,0
	bne- 7,.L245
.LVL469:
	.loc 4 850 0 discriminator 1
	bne+ 6,.L240
.LBE5744:
	.loc 4 857 0
	lwz 0,36(1)
	lwz 26,8(1)
.LVL470:
	mtlr 0
	lwz 27,12(1)
	lwz 28,16(1)
.LVL471:
	lwz 29,20(1)
.LVL472:
	lwz 30,24(1)
	lwz 31,28(1)
.LVL473:
	addi 1,1,32
	.cfi_remember_state
.LCFI44:
	.cfi_def_cfa_offset 0
	.cfi_restore 31
	.cfi_restore 30
	.cfi_restore 29
	.cfi_restore 28
	.cfi_restore 27
	.cfi_restore 26
	blr
.LVL474:
.L246:
.LCFI45:
	.cfi_restore_state
.LBB5745:
	.loc 4 845 0
	addi 31,31,1
	mr 4,27
	rlwinm 5,31,0,30,31
	mr 3,29
	mulli 5,5,12
	addi 27,27,12
	add 5,28,5
	bl _ZNK8idBounds16LineIntersectionERK6idVec3S2_
	.loc 4 844 0
	cmpwi 6,31,4
	.loc 4 845 0
	cmpwi 7,3,0
	bne- 7,.L245
.LVL475:
	.loc 4 844 0 discriminator 1
	bne+ 6,.L246
	b .L241
.LVL476:
.L245:
.LBE5745:
	.loc 4 857 0
	lwz 0,36(1)
.LBB5746:
	.loc 4 852 0
	li 3,1
.LBE5746:
	.loc 4 857 0
	lwz 26,8(1)
.LVL477:
	mtlr 0
	lwz 27,12(1)
	lwz 28,16(1)
.LVL478:
	lwz 29,20(1)
.LVL479:
	lwz 30,24(1)
	lwz 31,28(1)
	addi 1,1,32
	.cfi_restore 26
	.cfi_restore 27
	.cfi_restore 28
	.cfi_restore 29
	.cfi_restore 30
	.cfi_restore 31
.LCFI46:
	.cfi_def_cfa_offset 0
	blr
	.cfi_endproc
.LFE2556:
	.size	_ZNK9idFrustum28LocalFrustumIntersectsBoundsEPK6idVec3RK8idBounds, .-_ZNK9idFrustum28LocalFrustumIntersectsBoundsEPK6idVec3RK8idBounds
	.align 2
	.globl _ZNK9idFrustum16LineIntersectionERK6idVec3S2_
	.type	_ZNK9idFrustum16LineIntersectionERK6idVec3S2_, @function
_ZNK9idFrustum16LineIntersectionERK6idVec3S2_:
.LFB2562:
	.loc 4 1174 0
	.cfi_startproc
.LVL480:
	mflr 0
	stwu 1,-40(1)
.LCFI47:
	.cfi_def_cfa_offset 40
	.cfi_register 65, 0
	stw 0,44(1)
.LBB5809:
.LBB5810:
	.loc 3 431 0
	lfs 0,4(3)
	lfs 13,4(4)
.LBE5810:
.LBE5809:
.LBB5817:
.LBB5818:
	lfs 10,4(5)
.LBE5818:
.LBE5817:
.LBB5824:
.LBB5811:
	fsubs 13,13,0
.LBE5811:
.LBE5824:
.LBB5825:
.LBB5826:
.LBB5827:
	.loc 3 402 0
	lfs 7,16(3)
.LBE5827:
.LBE5826:
.LBE5825:
.LBB5844:
.LBB5819:
	.loc 3 431 0
	fsubs 10,10,0
.LBE5819:
.LBE5844:
.LBB5845:
.LBB5828:
.LBB5829:
	.loc 3 402 0
	lfs 8,28(3)
.LBE5829:
.LBE5828:
.LBE5845:
.LBB5846:
.LBB5812:
	.loc 3 431 0
	lfs 0,0(3)
.LBE5812:
.LBE5846:
.LBB5847:
.LBB5830:
.LBB5831:
	.loc 3 402 0
	lfs 9,40(3)
.LBE5831:
.LBE5830:
.LBE5847:
.LBB5848:
.LBB5849:
.LBB5850:
	.loc 5 454 0
	fmuls 1,13,8
.LBE5850:
.LBE5849:
.LBE5848:
.LBB5883:
.LBB5813:
	.loc 3 431 0
	lfs 11,0(4)
.LBE5813:
.LBE5883:
.LBB5884:
.LBB5874:
.LBB5865:
	.loc 5 454 0
	fmuls 5,13,7
.LBE5865:
.LBE5874:
.LBE5884:
.LBB5885:
.LBB5820:
	.loc 3 431 0
	lfs 12,0(5)
.LBE5820:
.LBE5885:
.LBB5886:
.LBB5875:
.LBB5866:
	.loc 5 454 0
	fmuls 2,13,9
.LBE5866:
.LBE5875:
.LBE5886:
.LBB5887:
.LBB5814:
	.loc 3 431 0
	fsubs 11,11,0
	lfs 6,8(3)
.LBE5814:
.LBE5887:
.LBB5888:
.LBB5821:
	fsubs 12,12,0
.LBE5821:
.LBE5888:
.LBB5889:
.LBB5815:
	lfs 13,8(4)
.LBE5815:
.LBE5889:
.LBB5890:
.LBB5891:
.LBB5892:
	.loc 5 454 0
	fmuls 3,7,10
.LBE5892:
.LBE5891:
.LBE5890:
.LBB5921:
.LBB5822:
	.loc 3 431 0
	lfs 0,8(5)
.LBE5822:
.LBE5921:
.LBB5922:
.LBB5913:
.LBB5905:
	.loc 5 454 0
	fmuls 4,8,10
.LBE5905:
.LBE5913:
.LBE5922:
.LBB5923:
.LBB5832:
.LBB5833:
	.loc 3 402 0
	lfs 7,12(3)
.LBE5833:
.LBE5832:
.LBE5923:
.LBB5924:
.LBB5914:
.LBB5906:
	.loc 5 454 0
	fmuls 10,9,10
.LBE5906:
.LBE5914:
.LBE5924:
.LBB5925:
.LBB5834:
.LBB5835:
	.loc 3 402 0
	lfs 8,24(3)
.LBE5835:
.LBE5834:
.LBB5836:
.LBB5837:
	lfs 9,36(3)
.LBE5837:
.LBE5836:
.LBE5925:
.LBB5926:
.LBB5823:
	.loc 3 431 0
	fsubs 0,0,6
.LBE5823:
.LBE5926:
.LBB5927:
.LBB5816:
	fsubs 13,13,6
.LVL481:
.LBE5816:
.LBE5927:
	.loc 4 1175 0
	addi 4,1,20
.LVL482:
.LBB5928:
.LBB5876:
.LBB5867:
.LBB5851:
.LBB5852:
	.loc 5 454 0
	fmadds 6,11,8,1
.LBE5852:
.LBE5851:
.LBE5867:
.LBE5876:
.LBE5928:
	.loc 4 1175 0
	addi 5,1,8
.LVL483:
.LBB5929:
.LBB5915:
.LBB5907:
.LBB5893:
.LBB5894:
	.loc 5 454 0
	fmadds 3,7,12,3
	fmadds 4,8,12,4
.LBE5894:
.LBE5893:
.LBE5907:
.LBE5915:
.LBE5929:
.LBB5930:
.LBB5838:
.LBB5839:
	.loc 3 402 0
	lfs 8,32(3)
.LBE5839:
.LBE5838:
.LBE5930:
.LBB5931:
.LBB5877:
.LBB5868:
.LBB5859:
.LBB5853:
	.loc 5 454 0
	fmadds 5,11,7,5
.LBE5853:
.LBE5859:
.LBE5868:
.LBE5877:
.LBE5931:
.LBB5932:
.LBB5840:
.LBB5841:
	.loc 3 402 0
	lfs 7,20(3)
.LBE5841:
.LBE5840:
.LBE5932:
.LBB5933:
.LBB5878:
.LBB5869:
.LBB5860:
.LBB5854:
	.loc 5 454 0
	fmadds 11,11,9,2
.LVL484:
.LBE5854:
.LBE5860:
.LBE5869:
.LBE5878:
.LBE5933:
.LBB5934:
.LBB5916:
.LBB5908:
.LBB5900:
.LBB5895:
	fmadds 12,9,12,10
.LBE5895:
.LBE5900:
.LBE5908:
.LBE5916:
.LBE5934:
.LBB5935:
.LBB5842:
.LBB5843:
	.loc 3 402 0
	lfs 9,44(3)
.LVL485:
.LBE5843:
.LBE5842:
.LBE5935:
.LBB5936:
.LBB5879:
.LBB5870:
.LBB5861:
.LBB5855:
	.loc 5 454 0
	fmadds 5,13,7,5
	fmadds 6,13,8,6
.LBE5855:
.LBE5861:
.LBE5870:
.LBE5879:
.LBE5936:
.LBB5937:
.LBB5917:
.LBB5909:
.LBB5901:
.LBB5896:
	fmadds 7,7,0,3
.LBE5896:
.LBE5901:
.LBE5909:
.LBE5917:
.LBE5937:
.LBB5938:
.LBB5880:
.LBB5871:
.LBB5862:
.LBB5856:
	fmadds 13,13,9,11
.LVL486:
	.loc 3 396 0
	stfs 5,20(1)
.LBE5856:
.LBE5862:
.LBE5871:
.LBE5880:
.LBE5938:
.LBB5939:
.LBB5918:
.LBB5910:
.LBB5902:
.LBB5897:
	.loc 5 454 0
	fmadds 8,8,0,4
.LBE5897:
.LBE5902:
.LBE5910:
.LBE5918:
.LBE5939:
.LBB5940:
.LBB5881:
.LBB5872:
.LBB5863:
.LBB5857:
	.loc 3 397 0
	stfs 6,24(1)
.LBE5857:
.LBE5863:
.LBE5872:
.LBE5881:
.LBE5940:
.LBB5941:
.LBB5919:
.LBB5911:
.LBB5903:
.LBB5898:
	.loc 5 454 0
	fmadds 9,9,0,12
	.loc 3 396 0
	stfs 7,8(1)
.LBE5898:
.LBE5903:
.LBE5911:
.LBE5919:
.LBE5941:
.LBB5942:
.LBB5882:
.LBB5873:
.LBB5864:
.LBB5858:
	.loc 3 398 0
	stfs 13,28(1)
.LVL487:
.LBE5858:
.LBE5864:
.LBE5873:
.LBE5882:
.LBE5942:
.LBB5943:
.LBB5920:
.LBB5912:
.LBB5904:
.LBB5899:
	.loc 3 397 0
	stfs 8,12(1)
	.loc 3 398 0
	stfs 9,16(1)
.LBE5899:
.LBE5904:
.LBE5912:
.LBE5920:
.LBE5943:
	.loc 4 1175 0
	.cfi_offset 65, 4
	bl _ZNK9idFrustum21LocalLineIntersectionERK6idVec3S2_
.LVL488:
	.loc 4 1176 0
	lwz 0,44(1)
	addi 1,1,40
.LCFI48:
	.cfi_def_cfa_offset 0
	mtlr 0
	blr
	.cfi_endproc
.LFE2562:
	.size	_ZNK9idFrustum16LineIntersectionERK6idVec3S2_, .-_ZNK9idFrustum16LineIntersectionERK6idVec3S2_
	.align 2
	.globl _ZNK9idFrustum15RayIntersectionERK6idVec3S2_RfS3_
	.type	_ZNK9idFrustum15RayIntersectionERK6idVec3S2_RfS3_, @function
_ZNK9idFrustum15RayIntersectionERK6idVec3S2_RfS3_:
.LFB2563:
	.loc 4 1187 0
	.cfi_startproc
.LVL489:
	mflr 0
	stwu 1,-48(1)
.LCFI49:
	.cfi_def_cfa_offset 48
	.cfi_register 65, 0
	stw 30,40(1)
	mr 30,6
	.cfi_offset 30, -8
	stw 31,44(1)
	mr 31,7
	.cfi_offset 31, -4
	stw 0,52(1)
.LBB6002:
.LBB6003:
	.loc 3 431 0
	lfs 10,4(4)
	lfs 0,4(3)
.LBE6003:
.LBE6002:
.LBB6011:
.LBB6012:
.LBB6013:
	.loc 3 402 0
	lfs 7,16(3)
.LBE6013:
.LBE6012:
.LBE6011:
.LBB6030:
.LBB6004:
	.loc 3 431 0
	fsubs 10,10,0
.LBE6004:
.LBE6030:
.LBB6031:
.LBB6014:
.LBB6015:
	.loc 3 402 0
	lfs 8,28(3)
.LBE6015:
.LBE6014:
.LBE6031:
.LBB6032:
.LBB6033:
.LBB6034:
	.loc 5 454 0
	lfs 0,4(5)
.LBE6034:
.LBE6033:
.LBE6032:
.LBB6069:
.LBB6016:
.LBB6017:
	.loc 3 402 0
	lfs 9,40(3)
.LBE6017:
.LBE6016:
.LBE6069:
.LBB6070:
.LBB6005:
	.loc 3 431 0
	lfs 11,0(4)
.LBE6005:
.LBE6070:
.LBB6071:
.LBB6072:
.LBB6073:
	.loc 5 454 0
	fmuls 5,10,7
.LBE6073:
.LBE6072:
.LBE6071:
.LBB6110:
.LBB6006:
	.loc 3 431 0
	lfs 13,0(3)
.LBE6006:
.LBE6110:
.LBB6111:
.LBB6100:
.LBB6090:
	.loc 5 454 0
	fmuls 6,10,8
.LBE6090:
.LBE6100:
.LBE6111:
.LBB6112:
.LBB6059:
.LBB6049:
	fmuls 3,7,0
	lfs 12,0(5)
.LBE6049:
.LBE6059:
.LBE6112:
.LBB6113:
.LBB6007:
	.loc 3 431 0
	fsubs 11,11,13
.LBE6007:
.LBE6113:
.LBB6114:
.LBB6018:
.LBB6019:
	.loc 3 402 0
	lfs 7,12(3)
.LBE6019:
.LBE6018:
.LBE6114:
.LBB6115:
.LBB6101:
.LBB6091:
	.loc 5 454 0
	fmuls 10,10,9
.LBE6091:
.LBE6101:
.LBE6115:
.LBB6116:
.LBB6008:
	.loc 3 431 0
	lfs 2,8(4)
.LBE6008:
.LBE6116:
.LBB6117:
.LBB6060:
.LBB6050:
	.loc 5 454 0
	fmuls 4,8,0
.LBE6050:
.LBE6060:
.LBE6117:
.LBB6118:
.LBB6009:
	.loc 3 431 0
	lfs 13,8(3)
.LBE6009:
.LBE6118:
.LBB6119:
.LBB6061:
.LBB6051:
	.loc 5 454 0
	fmuls 0,9,0
.LBE6051:
.LBE6061:
.LBE6119:
.LBB6120:
.LBB6020:
.LBB6021:
	.loc 3 402 0
	lfs 8,24(3)
.LBE6021:
.LBE6020:
.LBB6022:
.LBB6023:
	lfs 9,36(3)
.LBE6023:
.LBE6022:
.LBE6120:
.LBB6121:
.LBB6010:
	.loc 3 431 0
	fsubs 13,2,13
.LVL490:
.LBE6010:
.LBE6121:
.LBB6122:
.LBB6062:
.LBB6052:
.LBB6035:
.LBB6036:
	.loc 5 454 0
	fmadds 3,7,12,3
.LBE6036:
.LBE6035:
.LBE6052:
.LBE6062:
.LBE6122:
	.loc 4 1188 0
	addi 4,1,20
.LVL491:
.LBB6123:
.LBB6063:
.LBB6053:
.LBB6043:
.LBB6037:
	.loc 5 454 0
	fmadds 4,8,12,4
.LBE6037:
.LBE6043:
.LBE6053:
.LBE6063:
.LBE6123:
.LBB6124:
.LBB6102:
.LBB6092:
.LBB6074:
.LBB6075:
	fmadds 5,11,7,5
.LBE6075:
.LBE6074:
.LBE6092:
.LBE6102:
.LBE6124:
.LBB6125:
.LBB6024:
.LBB6025:
	.loc 3 402 0
	lfs 7,20(3)
.LBE6025:
.LBE6024:
.LBE6125:
.LBB6126:
.LBB6064:
.LBB6054:
.LBB6044:
.LBB6038:
	.loc 5 454 0
	fmadds 12,9,12,0
.LBE6038:
.LBE6044:
	lfs 0,8(5)
.LBE6054:
.LBE6064:
.LBE6126:
.LBB6127:
.LBB6103:
.LBB6093:
.LBB6083:
.LBB6076:
	fmadds 6,11,8,6
.LBE6076:
.LBE6083:
.LBE6093:
.LBE6103:
.LBE6127:
.LBB6128:
.LBB6026:
.LBB6027:
	.loc 3 402 0
	lfs 8,32(3)
.LBE6027:
.LBE6026:
.LBE6128:
.LBB6129:
.LBB6104:
.LBB6094:
.LBB6084:
.LBB6077:
	.loc 5 454 0
	fmadds 11,11,9,10
.LVL492:
.LBE6077:
.LBE6084:
.LBE6094:
.LBE6104:
.LBE6129:
.LBB6130:
.LBB6028:
.LBB6029:
	.loc 3 402 0
	lfs 9,44(3)
.LVL493:
.LBE6029:
.LBE6028:
.LBE6130:
.LBB6131:
.LBB6105:
.LBB6095:
.LBB6085:
.LBB6078:
	.loc 5 454 0
	fmadds 5,13,7,5
.LBE6078:
.LBE6085:
.LBE6095:
.LBE6105:
.LBE6131:
	.loc 4 1188 0
	addi 5,1,8
.LVL494:
.LBB6132:
.LBB6106:
.LBB6096:
.LBB6086:
.LBB6079:
	.loc 5 454 0
	fmadds 6,13,8,6
.LBE6079:
.LBE6086:
.LBE6096:
.LBE6106:
.LBE6132:
.LBB6133:
.LBB6065:
.LBB6055:
.LBB6045:
.LBB6039:
	fmadds 7,7,0,3
.LBE6039:
.LBE6045:
.LBE6055:
.LBE6065:
.LBE6133:
.LBB6134:
.LBB6107:
.LBB6097:
.LBB6087:
.LBB6080:
	fmadds 13,13,9,11
.LVL495:
	.loc 3 396 0
	stfs 5,20(1)
.LBE6080:
.LBE6087:
.LBE6097:
.LBE6107:
.LBE6134:
.LBB6135:
.LBB6066:
.LBB6056:
.LBB6046:
.LBB6040:
	.loc 5 454 0
	fmadds 8,8,0,4
.LBE6040:
.LBE6046:
.LBE6056:
.LBE6066:
.LBE6135:
.LBB6136:
.LBB6108:
.LBB6098:
.LBB6088:
.LBB6081:
	.loc 3 397 0
	stfs 6,24(1)
.LBE6081:
.LBE6088:
.LBE6098:
.LBE6108:
.LBE6136:
.LBB6137:
.LBB6067:
.LBB6057:
.LBB6047:
.LBB6041:
	.loc 5 454 0
	fmadds 9,9,0,12
	.loc 3 396 0
	stfs 7,8(1)
.LBE6041:
.LBE6047:
.LBE6057:
.LBE6067:
.LBE6137:
.LBB6138:
.LBB6109:
.LBB6099:
.LBB6089:
.LBB6082:
	.loc 3 398 0
	stfs 13,28(1)
.LVL496:
.LBE6082:
.LBE6089:
.LBE6099:
.LBE6109:
.LBE6138:
.LBB6139:
.LBB6068:
.LBB6058:
.LBB6048:
.LBB6042:
	.loc 3 397 0
	stfs 8,12(1)
	.loc 3 398 0
	stfs 9,16(1)
.LBE6042:
.LBE6048:
.LBE6058:
.LBE6068:
.LBE6139:
	.loc 4 1188 0
	.cfi_offset 65, 4
	bl _ZNK9idFrustum20LocalRayIntersectionERK6idVec3S2_RfS3_
.LVL497:
	cmpwi 7,3,0
	.loc 4 1189 0
	li 3,1
	.loc 4 1188 0
	bne- 7,.L252
	.loc 4 1191 0
	lfs 13,0(30)
	lfs 0,0(31)
	fcmpu 7,13,0
	cror 30,28,30
	mfcr 3
	rlwinm 3,3,31,1
.L252:
	.loc 4 1195 0
	lwz 0,52(1)
	lwz 30,40(1)
.LVL498:
	mtlr 0
	lwz 31,44(1)
.LVL499:
	addi 1,1,48
.LCFI50:
	.cfi_def_cfa_offset 0
	.cfi_restore 31
	.cfi_restore 30
	blr
	.cfi_endproc
.LFE2563:
	.size	_ZNK9idFrustum15RayIntersectionERK6idVec3S2_RfS3_, .-_ZNK9idFrustum15RayIntersectionERK6idVec3S2_RfS3_
	.align 2
	.globl _ZN9idFrustum14FromProjectionERK5idBoxRK6idVec3f
	.type	_ZN9idFrustum14FromProjectionERK5idBoxRK6idVec3f, @function
_ZN9idFrustum14FromProjectionERK5idBoxRK6idVec3f:
.LFB2565:
	.loc 4 1215 0
	.cfi_startproc
.LVL500:
	mflr 0
.LBB6298:
	.loc 4 1222 0
	lis 9,.LC0@ha
.LBE6298:
	.loc 4 1215 0
	stwu 1,-432(1)
.LCFI51:
	.cfi_def_cfa_offset 432
	.cfi_register 65, 0
.LBB6547:
	.loc 4 1222 0
	lfs 0,.LC0@l(9)
.LBE6547:
	.loc 4 1215 0
	stw 0,436(1)
	stfd 28,400(1)
	fmr 28,1
	.cfi_offset 60, -32
	.cfi_offset 65, 4
	stfd 29,408(1)
	stfd 30,416(1)
	stfd 31,424(1)
	stw 25,316(1)
.LBB6548:
.LBB6299:
.LBB6300:
.LBB6301:
.LBB6302:
	.loc 6 276 0
	lis 25,_ZN6idMath5iSqrtE@ha
	.cfi_offset 25, -116
	.cfi_offset 63, -8
	.cfi_offset 62, -16
	.cfi_offset 61, -24
.LBE6302:
.LBE6301:
.LBE6300:
.LBE6299:
.LBE6548:
	.loc 4 1215 0
	stw 29,332(1)
.LBB6549:
.LBB6315:
.LBB6309:
.LBB6306:
.LBB6303:
	.loc 6 276 0
	la 25,_ZN6idMath5iSqrtE@l(25)
.LBE6303:
.LBE6306:
.LBE6309:
.LBE6315:
.LBE6549:
	.loc 4 1215 0
	stw 30,336(1)
	mr 29,5
	.cfi_offset 30, -96
	.cfi_offset 29, -100
	stw 31,340(1)
	mr 30,4
	stfd 21,344(1)
	mr 31,3
	.cfi_offset 53, -88
	.cfi_offset 31, -92
	stfd 22,352(1)
	stfd 23,360(1)
	stfd 24,368(1)
	stfd 25,376(1)
	stfd 26,384(1)
	stfd 27,392(1)
	stw 14,272(1)
	stw 15,276(1)
	stw 16,280(1)
	stw 17,284(1)
	stw 18,288(1)
	stw 19,292(1)
	stw 20,296(1)
	stw 21,300(1)
	stw 22,304(1)
	stw 23,308(1)
	stw 24,312(1)
	stw 26,320(1)
	stw 27,324(1)
	stw 28,328(1)
.LBB6550:
	.loc 4 1222 0
	stfs 0,64(3)
	stfs 0,52(3)
.LVL501:
	stfs 0,48(3)
	.loc 4 1226 0
	li 3,0
.LVL502:
.LBB6316:
.LBB6317:
	.loc 3 431 0
	lfs 13,4(5)
	lfs 29,4(4)
	lfs 31,0(4)
	fsubs 29,29,13
	lfs 13,0(5)
	lfs 30,8(4)
	fsubs 31,31,13
	lfs 12,8(5)
.LBE6317:
.LBE6316:
.LBB6319:
.LBB6310:
	.loc 3 649 0
	fmuls 13,29,29
.LBE6310:
.LBE6319:
.LBB6320:
.LBB6318:
	.loc 3 431 0
	fsubs 12,30,12
.LVL503:
	.loc 3 649 0
	fmadds 13,31,31,13
	fmadds 13,12,12,13
	stfs 13,200(1)
.LVL504:
.LBE6318:
.LBE6320:
.LBB6321:
.LBB6311:
.LBB6307:
.LBB6304:
	.loc 6 270 0
	lwz 0,200(1)
.LVL505:
.LBE6304:
.LBE6307:
	.loc 3 654 0
	lfs 4,200(1)
.LBB6308:
.LBB6305:
	.loc 6 276 0
	rlwinm 11,0,9,24,31
	rlwinm 9,0,19,21,29
	lwzx 9,25,9
	subfic 0,11,380
	rlwinm 0,0,22,0,8
	.loc 6 275 0
	lis 11,.LC1@ha
	.loc 6 276 0
	or 0,0,9
	.loc 6 275 0
	lfs 10,.LC1@l(11)
	.loc 6 277 0
	stw 0,256(1)
	.loc 6 278 0
	lis 9,.LC3@ha
	.loc 6 275 0
	fmuls 10,13,10
.LVL506:
	.loc 6 278 0
	lfs 11,.LC3@l(9)
	.loc 6 277 0
	lfs 3,256(1)
	fmr 13,3
.LVL507:
	.loc 4 1215 0
	fneg 10,10
.LVL508:
	.loc 6 278 0
	fmul 9,13,13
	fmadd 9,10,9,11
	fmul 13,13,9
.LVL509:
	.loc 6 279 0
	fmul 30,13,13
	fmadd 11,10,30,11
.LVL510:
	fmul 13,13,11
.LVL511:
	.loc 6 280 0
	frsp 30,13
.LVL512:
.LBE6305:
.LBE6308:
	.loc 3 654 0
	fmuls 13,4,30
.LVL513:
.LBE6311:
.LBE6321:
	.loc 4 1225 0
	fcmpu 7,13,0
	beq- 7,.L255
	.cfi_offset 28, -104
	.cfi_offset 27, -108
	.cfi_offset 26, -112
	.cfi_offset 24, -120
	.cfi_offset 23, -124
	.cfi_offset 22, -128
	.cfi_offset 21, -132
	.cfi_offset 20, -136
	.cfi_offset 19, -140
	.cfi_offset 18, -144
	.cfi_offset 17, -148
	.cfi_offset 16, -152
	.cfi_offset 15, -156
	.cfi_offset 14, -160
	.cfi_offset 59, -40
	.cfi_offset 58, -48
	.cfi_offset 57, -56
	.cfi_offset 56, -64
	.cfi_offset 55, -72
	.cfi_offset 54, -80
.LVL514:
.LBB6322:
.LBB6312:
	.loc 3 652 0
	fmuls 29,29,30
.LVL515:
.LBE6312:
.LBE6322:
.LBB6323:
.LBB6324:
	.loc 3 435 0
	lfs 0,28(4)
.LBE6324:
.LBE6323:
.LBB6326:
.LBB6313:
	.loc 3 651 0
	fmuls 31,31,30
.LVL516:
.LBE6313:
.LBE6326:
.LBB6327:
.LBB6328:
	.loc 3 435 0
	lfs 13,24(4)
.LBE6328:
.LBE6327:
.LBB6332:
.LBB6314:
	.loc 3 653 0
	fmuls 30,12,30
.LVL517:
.LBE6314:
.LBE6332:
.LBB6333:
.LBB6329:
	.loc 4 1229 0
	li 22,0
.LBE6329:
.LBE6333:
.LBB6334:
.LBB6325:
	.loc 3 435 0
	fmuls 0,29,0
.LBE6325:
.LBE6334:
.LBB6335:
.LBB6330:
	.loc 4 1231 0
	li 9,1
	addi 28,4,24
	addi 27,4,12
.LVL518:
	.loc 3 435 0
	fmadds 0,13,31,0
	lfs 13,32(4)
	fmadds 13,13,30,0
	stfs 13,256(1)
	lwz 0,256(1)
	.loc 6 782 0
	rlwinm 3,0,0,1,31
	stw 3,200(1)
.LVL519:
.L257:
	.loc 4 1232 0
	mulli 0,9,12
.LBE6330:
.LBE6335:
.LBB6336:
.LBB6337:
	.loc 3 402 0
	slwi 10,22,2
.LBE6337:
.LBE6336:
	.loc 4 1233 0
	lfs 3,200(1)
	.loc 4 1231 0
	cmpwi 7,9,2
.LBB6339:
.LBB6331:
	.loc 4 1232 0
	add 11,28,0
.LVL520:
.LBE6331:
.LBE6339:
.LBB6340:
.LBB6341:
	.loc 3 435 0
	lfsx 0,28,0
.LBE6341:
.LBE6340:
.LBB6347:
.LBB6348:
	lfs 12,4(11)
.LBE6348:
.LBE6347:
.LBB6350:
.LBB6351:
	.loc 3 402 0
	slwi 0,9,2
.LBE6351:
.LBE6350:
.LBB6353:
.LBB6342:
	.loc 3 435 0
	lfs 11,8(11)
.LBE6342:
.LBE6353:
.LBB6354:
.LBB6349:
	fmuls 12,29,12
.LBE6349:
.LBE6354:
.LBB6355:
.LBB6352:
	.loc 3 402 0
	lfsx 13,27,0
.LBE6352:
.LBE6355:
.LBB6356:
.LBB6343:
	.loc 3 435 0
	fmadds 12,0,31,12
.LBE6343:
.LBE6356:
.LBB6357:
.LBB6338:
	.loc 3 402 0
	lfsx 0,27,10
.LBE6338:
.LBE6357:
.LBB6358:
.LBB6344:
	.loc 3 435 0
	fmadds 11,11,30,12
	stfs 11,256(1)
.LBE6344:
.LBE6358:
	.loc 4 1233 0
	fmuls 11,3,13
.LBB6359:
.LBB6345:
	.loc 3 435 0
	lwz 0,256(1)
.LBE6345:
.LBE6359:
	.loc 4 1233 0
	fmuls 13,11,13
.LBB6360:
.LBB6346:
	.loc 6 782 0
	rlwinm 0,0,0,1,31
.LVL521:
.LBE6346:
.LBE6360:
	.loc 4 1233 0
	stw 0,256(1)
	lfs 4,256(1)
	fmuls 12,4,0
	fmuls 0,12,0
	fcmpu 6,0,13
	bnl- 6,.L256
	.loc 4 1234 0
	stw 0,200(1)
	.loc 4 1233 0
	mr 22,9
.LVL522:
.L256:
	.loc 4 1231 0
	addi 9,9,1
.LVL523:
	bne- 7,.L257
.LVL524:
	lis 21,.LC1@ha
	lis 19,.LC3@ha
	la 21,.LC1@l(21)
	la 19,.LC3@l(19)
.LBB6361:
.LBB6362:
	.loc 6 467 0
	lis 3,.LC0@ha
	lis 20,.LC4@ha
	mulli 22,22,12
.LVL525:
.LBE6362:
.LBE6361:
.LBB6375:
.LBB6376:
.LBB6377:
.LBB6378:
	.loc 6 275 0
	lfs 25,0(21)
	.loc 6 278 0
	lfs 27,0(19)
.LBE6378:
.LBE6377:
.LBE6376:
.LBE6375:
	.loc 4 1231 0
	li 24,0
.LBB6387:
.LBB6363:
	.loc 6 467 0
	lfs 22,.LC0@l(3)
	addi 26,30,48
	la 23,.LC4@l(20)
	.loc 6 497 0
	lis 14,.LC14@ha
	lis 15,.LC15@ha
	lis 16,.LC16@ha
	lis 17,.LC17@ha
	lis 18,.LC18@ha
.LVL526:
.L307:
.LBE6363:
.LBE6387:
.LBB6388:
.LBB6389:
	.loc 3 424 0
	stfs 31,12(31)
	.loc 4 1249 0
	add 9,28,22
	.loc 3 425 0
	stfs 29,16(31)
.LBE6389:
.LBE6388:
	.loc 4 1215 0
	fmr 9,31
.LBB6391:
.LBB6390:
	.loc 3 426 0
	stfs 30,20(31)
.LVL527:
.LBE6390:
.LBE6391:
	.loc 5 465 0
	addi 11,1,20
.LBB6392:
.LBB6393:
	.loc 3 435 0
	lfs 13,4(9)
.LVL528:
	lfsx 12,28,22
	fmuls 11,13,29
	lfs 0,8(9)
.LBE6393:
.LBE6392:
.LBB6396:
.LBB6397:
.LBB6398:
	.loc 5 425 0
	stfs 31,56(1)
.LBE6398:
.LBE6397:
.LBE6396:
.LBB6407:
.LBB6408:
.LBB6409:
.LBB6410:
.LBB6411:
	.loc 4 1253 0
	mr 9,28
.LVL529:
.LBE6411:
.LBE6410:
.LBE6409:
.LBE6408:
.LBE6407:
.LBB6418:
.LBB6403:
.LBB6399:
	.loc 5 426 0
	stfs 29,68(1)
.LBE6399:
.LBE6403:
.LBE6418:
.LBB6419:
.LBB6394:
	.loc 3 435 0
	fmadds 11,12,31,11
.LVL530:
.LBE6394:
.LBE6419:
.LBB6420:
.LBB6404:
.LBB6400:
	.loc 5 427 0
	stfs 30,80(1)
.LBE6400:
.LBE6404:
.LBE6420:
.LBB6421:
.LBB6395:
	.loc 4 1215 0
	fnmadds 11,0,30,11
.LVL531:
	.loc 3 431 0
	fmadds 13,11,29,13
	fmadds 12,11,31,12
	fmadds 11,11,30,0
.LVL532:
.LBE6395:
.LBE6421:
.LBB6422:
.LBB6381:
	.loc 3 649 0
	fmuls 0,13,13
.LBE6381:
.LBE6422:
.LBB6423:
.LBB6424:
	.loc 3 425 0
	stfs 13,28(31)
	.loc 3 424 0
	stfs 12,24(31)
	.loc 3 426 0
	stfs 11,32(31)
.LVL533:
	.loc 3 649 0
	fmadds 0,12,12,0
	fmadds 0,11,11,0
	stfs 0,200(1)
.LVL534:
.LBE6424:
.LBE6423:
.LBB6425:
.LBB6382:
.LBB6380:
.LBB6379:
	.loc 6 275 0
	fmuls 7,0,25
	.loc 6 270 0
	lwz 0,200(1)
.LVL535:
	.loc 4 1215 0
	fneg 7,7
	.loc 6 276 0
	rlwinm 8,0,9,24,31
	rlwinm 0,0,19,21,29
	lwzx 10,25,0
	subfic 0,8,380
	rlwinm 0,0,22,0,8
	or 0,0,10
	.loc 6 277 0
	stw 0,256(1)
	lfs 0,256(1)
.LVL536:
	fmr 8,0
.LVL537:
	.loc 6 278 0
	fmul 10,8,8
	fmadd 10,7,10,27
	fmul 10,8,10
.LVL538:
	.loc 6 279 0
	fmul 0,10,10
	fmadd 0,7,0,27
.LVL539:
	fmul 0,10,0
.LVL540:
	.loc 6 280 0
	frsp 0,0
.LVL541:
.LBE6379:
.LBE6380:
	.loc 3 651 0
	fmuls 12,12,0
.LVL542:
	.loc 3 652 0
	fmuls 13,13,0
.LVL543:
	.loc 3 653 0
	fmuls 0,11,0
.LBE6382:
.LBE6425:
.LBB6426:
.LBB6427:
	.loc 3 626 0
	fmuls 11,12,29
.LVL544:
.LBE6427:
.LBE6426:
.LBB6432:
.LBB6383:
	.loc 3 651 0
	stfs 12,24(31)
.LBE6383:
.LBE6432:
.LBB6433:
.LBB6428:
	.loc 3 624 0
	fmuls 8,13,30
.LBE6428:
.LBE6433:
.LBB6434:
.LBB6384:
	.loc 3 652 0
	stfs 13,28(31)
.LBE6384:
.LBE6434:
.LBB6435:
.LBB6429:
	.loc 3 625 0
	fmuls 10,0,31
.LBE6429:
.LBE6435:
.LBB6436:
.LBB6385:
	.loc 3 653 0
	stfs 0,32(31)
.LVL545:
.LBE6385:
.LBE6436:
.LBB6437:
.LBB6430:
	.loc 3 626 0
	fmsubs 11,13,31,11
.LBE6430:
.LBE6437:
.LBB6438:
.LBB6405:
.LBB6401:
	.loc 5 425 0
	stfs 12,60(1)
.LBE6401:
.LBE6405:
.LBE6438:
.LBB6439:
.LBB6386:
	.loc 3 624 0
	fmsubs 8,0,29,8
.LBE6386:
.LBE6439:
.LBB6440:
.LBB6431:
	.loc 3 625 0
	fmsubs 10,12,30,10
	.loc 3 626 0
	stfs 11,44(31)
.LVL546:
	.loc 3 624 0
	stfs 8,36(31)
	.loc 3 625 0
	stfs 10,40(31)
.LBE6431:
.LBE6440:
.LBB6441:
.LBB6442:
	.loc 3 431 0
	lfs 7,4(29)
	lfs 5,4(30)
	lfs 6,0(30)
	fsubs 5,5,7
	lfs 7,0(29)
	lfs 2,8(30)
	fsubs 6,6,7
	lfs 7,8(29)
.LBE6442:
.LBE6441:
.LBB6444:
.LBB6416:
.LBB6414:
	.loc 5 454 0
	fmuls 4,5,29
	fmuls 3,5,13
	fmuls 5,10,5
.LBE6414:
.LBE6416:
.LBE6444:
.LBB6445:
.LBB6443:
	.loc 3 431 0
	fsubs 7,2,7
.LVL547:
.LBE6443:
.LBE6445:
.LBB6446:
.LBB6417:
.LBB6415:
.LBB6413:
.LBB6412:
	.loc 5 454 0
	fmadds 4,6,31,4
	fmadds 12,6,12,3
.LVL548:
	fmadds 6,8,6,5
.LVL549:
	fmadds 4,7,30,4
	fmadds 12,7,0,12
	fmadds 7,11,7,6
.LVL550:
	.loc 3 396 0
	stfs 4,8(1)
	.loc 3 397 0
	stfs 12,12(1)
	.loc 3 398 0
	stfs 7,16(1)
.LVL551:
.LBE6412:
.LBE6413:
.LBE6415:
.LBE6417:
.LBE6446:
.LBB6447:
.LBB6406:
.LBB6402:
	.loc 5 425 0
	stfs 8,64(1)
	.loc 5 426 0
	stfs 13,72(1)
	stfs 10,76(1)
	.loc 5 427 0
	stfs 0,84(1)
	stfs 11,88(1)
.LVL552:
.L258:
.LBE6402:
.LBE6406:
.LBE6447:
.LBB6448:
.LBB6449:
	.loc 5 471 0
	lfs 12,4(9)
	.loc 5 467 0
	cmpw 7,9,26
	.loc 5 471 0
	lfs 11,68(1)
	lfs 13,0(9)
	fmuls 11,12,11
	lfs 0,8(9)
	lfs 10,80(1)
	.loc 5 474 0
	addi 9,9,12
	.loc 5 471 0
	fmadds 11,13,9,11
	fmadds 11,0,10,11
	stfs 11,0(11)
.LVL553:
	lfs 11,72(1)
	lfs 9,60(1)
	fmuls 11,12,11
	lfs 10,84(1)
	fmadds 11,9,13,11
	fmadds 11,0,10,11
	stfs 11,4(11)
.LVL554:
	lfs 11,76(1)
	lfs 10,64(1)
	fmuls 12,12,11
	lfs 11,88(1)
	fmadds 13,13,10,12
	fmadds 0,0,11,13
	stfs 0,8(11)
.LVL555:
	addi 11,11,12
.LVL556:
	.loc 5 467 0
	beq- 7,.L349
	.loc 5 474 0
	lfs 9,56(1)
	b .L258
.LVL557:
.L341:
.LBE6449:
.LBE6448:
.LBB6450:
.LBB6364:
	.loc 6 479 0
	fadds 0,21,24
	fcmpu 7,26,0
	bgt- 7,.L350
	.loc 6 484 0
	li 3,1
	.loc 6 483 0
	fsubs 26,24,26
.LVL558:
	.loc 6 484 0
	stw 3,208(1)
.LVL559:
.L282:
	.loc 6 496 0
	fmuls 0,26,26
.LVL560:
	.loc 6 497 0
	lis 3,.LC13@ha
	lfs 11,.LC13@l(3)
	lfs 12,.LC14@l(14)
	lfs 13,.LC15@l(15)
	fmadds 12,0,11,12
	lfs 9,.LC16@l(16)
	lfs 10,.LC17@l(17)
	lfs 11,.LC18@l(18)
	fmadds 12,0,12,13
	.loc 6 498 0
	lwz 12,208(1)
	.loc 6 497 0
	lfs 13,0(23)
	.loc 6 498 0
	cmpwi 7,12,0
	.loc 6 497 0
	fmadds 12,0,12,9
	fmadds 12,0,12,10
	fmadds 12,0,12,11
	fmadds 0,0,12,13
.LVL561:
	fmuls 0,26,0
.LVL562:
	.loc 6 498 0
	beq- 7,.L286
	.loc 6 499 0
	fdivs 0,13,0
.LVL563:
.L286:
.LBE6364:
.LBE6450:
	.loc 4 1281 0
	mulli 3,0,12
	addi 12,1,8
.LBB6451:
.LBB6365:
	.loc 3 456 0
	lfs 26,24(31)
.LVL564:
.LBE6365:
.LBE6451:
	.loc 4 1281 0
	add 12,12,3
.LBB6452:
.LBB6366:
	.loc 3 457 0
	lfs 10,28(31)
.LBE6366:
.LBE6452:
	.loc 4 1281 0
	lfs 12,92(12)
.LBB6453:
.LBB6367:
	.loc 3 456 0
	fmadds 26,26,0,31
.LBE6367:
.LBE6453:
	.loc 4 1281 0
	lfs 13,84(12)
.LVL565:
.LBB6454:
.LBB6368:
	.loc 3 457 0
	fmadds 29,10,0,29
.LVL566:
.LBE6368:
.LBE6454:
.LBB6455:
.LBB6456:
	.loc 6 614 0
	fabs 8,12
.LBE6456:
.LBE6455:
.LBB6464:
.LBB6369:
	.loc 3 458 0
	lfs 11,32(31)
.LBE6369:
.LBE6464:
.LBB6465:
.LBB6457:
	.loc 6 614 0
	fabs 9,13
.LBE6457:
.LBE6465:
.LBB6466:
.LBB6370:
	.loc 3 458 0
	fmadds 30,11,0,30
.LVL567:
.LBE6370:
.LBE6466:
.LBB6467:
.LBB6458:
	.loc 6 614 0
	fcmpu 7,8,9
	bng- 7,.L344
.LVL568:
.LBE6458:
.LBB6459:
.LBB6460:
	.loc 6 615 0
	fdivs 13,13,12
	.loc 6 618 0
	lwz 3,260(1)
	lfs 6,0(4)
	lfs 5,0(3)
	lfs 7,0(10)
	lfs 8,0(11)
	lfs 9,0(9)
	lwz 12,200(1)
.LVL569:
	lwz 3,204(1)
	lfs 10,0(12)
	lfs 11,0(3)
	lwz 12,212(1)
	lfs 12,0(12)
.LVL570:
	.loc 6 615 0
	stfs 13,208(1)
.LVL571:
	.loc 6 618 0
	lfs 13,0(23)
.LVL572:
	.loc 6 616 0
	lfs 3,208(1)
	.loc 6 619 0
	lwz 3,208(1)
	.loc 6 616 0
	fmuls 0,3,3
.LVL573:
	.loc 6 619 0
	cmpwi 7,3,0
	.loc 6 618 0
	fmsubs 6,0,5,6
	fmadds 7,0,6,7
	fmsubs 8,0,7,8
	fmadds 9,0,8,9
	fmsubs 10,0,9,10
	fmadds 11,0,10,11
	fmsubs 12,0,11,12
	fnmadds 0,0,12,13
.LVL574:
	fmuls 31,3,0
.LVL575:
	.loc 6 619 0
	blt- 7,.L351
	.loc 6 622 0
	fadds 31,31,24
.LVL576:
.L291:
.LBE6460:
.LBE6459:
.LBE6467:
	.loc 4 1281 0
	mulli 12,6,12
	addi 3,1,8
	add 3,3,12
	lfs 13,92(3)
	lfs 0,84(3)
.LVL577:
.LBB6468:
.LBB6469:
	.loc 6 614 0
	fabs 11,13
	fabs 12,0
	fcmpu 7,11,12
	bng- 7,.L345
.LVL578:
.LBE6469:
.LBB6470:
.LBB6471:
	.loc 6 615 0
	fdivs 0,0,13
	.loc 6 618 0
	lwz 12,260(1)
	lfs 6,0(4)
	lfs 5,0(12)
	lfs 7,0(10)
	lfs 8,0(11)
	lfs 9,0(9)
	lwz 3,200(1)
.LVL579:
	lwz 4,204(1)
	lfs 10,0(3)
	lfs 11,0(4)
	lwz 9,212(1)
	lfs 13,0(23)
.LVL580:
	lfs 12,0(9)
	.loc 6 615 0
	stfs 0,208(1)
.LVL581:
	.loc 6 616 0
	fmr 3,0
	fmuls 0,0,0
.LVL582:
	.loc 6 619 0
	lwz 3,208(1)
	.loc 6 618 0
	fmsubs 6,0,5,6
	.loc 6 619 0
	cmpwi 7,3,0
	.loc 6 618 0
	fmadds 7,0,6,7
	fmsubs 8,0,7,8
	fmadds 9,0,8,9
	fmsubs 10,0,9,10
	fmadds 11,0,10,11
	fmsubs 12,0,11,12
	fnmadds 0,0,12,13
.LVL583:
	fmuls 0,3,0
.LVL584:
	.loc 6 619 0
	blt- 7,.L352
	.loc 6 622 0
	fadds 0,0,24
.LVL585:
.L296:
.LBE6471:
.LBE6470:
.LBE6468:
	.loc 4 1281 0
	fadds 31,31,0
	lfs 0,0(21)
	fmuls 31,31,0
.LVL586:
.LBB6475:
.LBB6476:
	.loc 6 467 0
	fcmpu 7,31,22
	blt- 7,.L297
	fcmpu 7,31,23
	cror 30,29,30
	bne- 7,.L298
.L297:
	.loc 6 468 0
	fdivs 1,31,23
	stw 0,244(1)
	stw 5,240(1)
	stw 6,248(1)
	stw 7,232(1)
	stw 8,236(1)
	bl floorf
.LVL587:
	lwz 8,236(1)
.LVL588:
	.loc 4 1215 0
	fneg 1,1
	.loc 6 468 0
	lwz 7,232(1)
.LVL589:
	lwz 6,248(1)
.LVL590:
	lwz 5,240(1)
.LVL591:
	fmadds 31,1,23,31
.LVL592:
	lwz 0,244(1)
.LVL593:
.L298:
	.loc 6 471 0
	fcmpu 7,31,24
	bnl- 7,.L346
	.loc 6 472 0
	fcmpu 7,31,21
	.loc 6 476 0
	li 9,0
	.loc 6 472 0
	bng- 7,.L302
.L348:
	.loc 6 483 0
	fsubs 31,24,31
.LVL594:
	.loc 6 484 0
	li 9,1
.LVL595:
.L302:
	.loc 6 496 0
	fmuls 0,31,31
.LVL596:
	.loc 6 497 0
	lis 10,.LC13@ha
	lfs 11,.LC13@l(10)
	.loc 6 498 0
	cmpwi 7,9,0
	.loc 6 497 0
	lfs 12,.LC14@l(14)
	lfs 13,.LC15@l(15)
	fmadds 12,0,11,12
	lfs 9,.LC16@l(16)
	lfs 10,.LC17@l(17)
	lfs 11,.LC18@l(18)
	fmadds 12,0,12,13
	lfs 13,0(23)
	fmadds 12,0,12,9
	fmadds 12,0,12,10
	fmadds 12,0,12,11
	fmadds 0,0,12,13
.LVL597:
	fmuls 0,31,0
.LVL598:
	.loc 6 498 0
	beq- 7,.L306
	.loc 6 499 0
	fdivs 0,13,0
.LVL599:
.L306:
	.loc 3 457 0
	lfs 13,40(31)
	.loc 3 456 0
	lfs 31,36(31)
.LVL600:
	.loc 3 457 0
	fmadds 29,13,0,29
	.loc 3 458 0
	lfs 12,44(31)
	.loc 3 456 0
	fmadds 31,31,0,26
.LBE6476:
.LBE6475:
.LBB6480:
.LBB6481:
.LBB6482:
.LBB6483:
	.loc 6 275 0
	lfs 11,0(21)
.LBE6483:
.LBE6482:
.LBE6481:
.LBE6480:
.LBB6490:
.LBB6477:
	.loc 3 458 0
	fmadds 30,12,0,30
.LVL601:
.LBE6477:
.LBE6490:
.LBB6491:
.LBB6488:
.LBB6486:
.LBB6484:
	.loc 6 278 0
	lfs 12,0(19)
.LBE6484:
.LBE6486:
	.loc 3 649 0
	fmuls 13,29,29
.LBE6488:
.LBE6491:
.LBB6492:
.LBB6478:
	fmadds 0,31,31,13
.LVL602:
	fmadds 0,30,30,0
	stfs 0,200(1)
.LVL603:
.LBE6478:
.LBE6492:
.LBB6493:
.LBB6489:
.LBB6487:
.LBB6485:
	.loc 6 275 0
	fmuls 11,0,11
	.loc 6 270 0
	lwz 9,200(1)
.LVL604:
	.loc 4 1215 0
	fneg 11,11
	.loc 6 276 0
	rlwinm 11,9,19,21,29
	rlwinm 10,9,9,24,31
	subfic 9,10,380
	lwzx 11,25,11
	rlwinm 9,9,22,0,8
	or 9,9,11
	.loc 6 277 0
	stw 9,256(1)
	lfs 0,256(1)
.LVL605:
	fmr 13,0
.LVL606:
	.loc 6 278 0
	fmul 0,13,13
.LVL607:
	fmadd 0,11,0,12
	fmul 0,13,0
.LVL608:
	.loc 6 279 0
	fmul 13,0,0
	fmadd 12,11,13,12
.LVL609:
	fmul 0,0,12
.LVL610:
	.loc 6 280 0
	frsp 13,0
.LBE6485:
.LBE6487:
	.loc 3 651 0
	fmuls 31,31,13
.LVL611:
	.loc 3 652 0
	fmuls 29,29,13
.LVL612:
	.loc 3 653 0
	fmuls 30,30,13
.LVL613:
.L264:
.LBE6489:
.LBE6493:
	.loc 4 1246 0
	cmpwi 7,24,1
	addi 24,24,1
.LVL614:
	bne- 7,.L307
.LVL615:
	.loc 4 1289 0
	mulli 8,8,12
	addi 3,1,8
	mulli 5,5,12
	add 8,3,8
	.loc 4 1287 0
	mulli 7,7,12
	.loc 4 1289 0
	lfs 11,88(8)
	add 5,3,5
	lfs 12,84(8)
	.loc 4 1287 0
	add 7,3,7
	.loc 4 1289 0
	lfs 13,88(5)
	fdivs 12,11,12
	lfs 0,84(5)
	fdivs 0,13,0
	stfs 12,256(1)
.LBB6494:
.LBB6495:
	.loc 3 424 0
	lwz 11,0(29)
.LBE6495:
.LBE6494:
	.loc 4 1289 0
	lwz 9,256(1)
.LBB6499:
.LBB6496:
	.loc 3 424 0
	stw 11,0(31)
.LBE6496:
.LBE6499:
	.loc 4 1287 0
	lwz 10,84(7)
.LBB6500:
.LBB6501:
	.loc 6 782 0
	rlwinm 9,9,0,1,31
.LBE6501:
.LBE6500:
.LBB6502:
.LBB6497:
	.loc 3 425 0
	lwz 11,4(29)
	stw 11,4(31)
	.loc 3 426 0
	lwz 11,8(29)
.LBE6497:
.LBE6502:
	.loc 4 1287 0
	stw 10,48(31)
.LBB6503:
.LBB6498:
	.loc 3 426 0
	stw 11,8(31)
.LBE6498:
.LBE6503:
	.loc 4 1288 0
	stfs 28,52(31)
	.loc 4 1289 0
	stfs 0,256(1)
	lwz 11,256(1)
.LBB6504:
.LBB6505:
	.file 7 "d:/Data/Nintendo/DoomGX/src/idlib/bv/../../idlib/Lib.h"
	.loc 7 158 0
	stw 9,256(1)
.LBE6505:
.LBE6504:
.LBB6507:
.LBB6508:
	.loc 6 782 0
	rlwinm 4,11,0,1,31
	stw 4,200(1)
.LVL616:
.LBE6508:
.LBE6507:
.LBB6509:
.LBB6506:
	.loc 7 158 0
	lfs 0,256(1)
	lfs 3,200(1)
	fcmpu 7,0,3
	bng- 7,.L308
	stw 9,200(1)
.L308:
.LBE6506:
.LBE6509:
	.loc 4 1290 0
	mulli 0,0,12
	addi 3,1,8
	mulli 6,6,12
	.loc 4 1289 0
	lfs 4,200(1)
	.loc 4 1290 0
	add 9,3,0
.LVL617:
	lfs 11,92(9)
	add 6,3,6
	lfs 12,84(9)
	lfs 13,92(6)
	lfs 0,84(6)
.LVL618:
	fdivs 12,11,12
	fdivs 0,13,0
	stfs 12,256(1)
	lwz 0,256(1)
.LBB6510:
.LBB6511:
	.loc 6 782 0
	rlwinm 0,0,0,1,31
.LBE6511:
.LBE6510:
	.loc 4 1290 0
	stfs 0,256(1)
	lwz 9,256(1)
.LBB6512:
.LBB6513:
	.loc 7 158 0
	stw 0,256(1)
.LBE6513:
.LBE6512:
.LBB6516:
.LBB6517:
	.loc 6 782 0
	rlwinm 4,9,0,1,31
	stw 4,204(1)
.LBE6517:
.LBE6516:
.LBB6518:
.LBB6514:
	.loc 7 158 0
	lfs 0,256(1)
	lfs 3,204(1)
	fcmpu 7,0,3
.LBE6514:
.LBE6518:
	.loc 4 1289 0
	fmuls 0,28,4
	stfs 0,56(31)
.LVL619:
.LBB6519:
.LBB6515:
	.loc 7 158 0
	bng- 7,.L310
	stw 0,204(1)
.L310:
.LBE6515:
.LBE6519:
	.loc 4 1291 0
	lfs 13,.LC4@l(20)
	.loc 4 1366 0
	li 3,1
	.loc 4 1290 0
	lfs 10,204(1)
	fmuls 0,28,10
	.loc 4 1291 0
	fdivs 28,13,28
.LVL620:
	.loc 4 1290 0
	stfs 0,60(31)
	.loc 4 1291 0
	stfs 28,64(31)
.LVL621:
.L255:
.LBE6550:
	.loc 4 1367 0
	lwz 0,436(1)
	lwz 14,272(1)
	mtlr 0
	lwz 15,276(1)
	lwz 16,280(1)
	lwz 17,284(1)
	lwz 18,288(1)
	lwz 19,292(1)
	lwz 20,296(1)
	lwz 21,300(1)
	lwz 22,304(1)
	lwz 23,308(1)
	lwz 24,312(1)
	lwz 25,316(1)
	lwz 26,320(1)
	lwz 27,324(1)
	lwz 28,328(1)
	lwz 29,332(1)
.LVL622:
	lwz 30,336(1)
.LVL623:
	lwz 31,340(1)
.LVL624:
	lfd 21,344(1)
	lfd 22,352(1)
	lfd 23,360(1)
	lfd 24,368(1)
	lfd 25,376(1)
	lfd 26,384(1)
	lfd 27,392(1)
	lfd 28,400(1)
	lfd 29,408(1)
	lfd 30,416(1)
	lfd 31,424(1)
	addi 1,1,432
	.cfi_remember_state
.LCFI52:
	.cfi_def_cfa_offset 0
	.cfi_restore 63
	.cfi_restore 62
	.cfi_restore 61
	.cfi_restore 60
	.cfi_restore 59
	.cfi_restore 58
	.cfi_restore 57
	.cfi_restore 56
	.cfi_restore 55
	.cfi_restore 54
	.cfi_restore 53
	.cfi_restore 31
	.cfi_restore 30
	.cfi_restore 29
	.cfi_restore 28
	.cfi_restore 27
	.cfi_restore 26
	.cfi_restore 25
	.cfi_restore 24
	.cfi_restore 23
	.cfi_restore 22
	.cfi_restore 21
	.cfi_restore 20
	.cfi_restore 19
	.cfi_restore 18
	.cfi_restore 17
	.cfi_restore 16
	.cfi_restore 15
	.cfi_restore 14
	blr
.LVL625:
.L349:
.LCFI53:
	.cfi_restore_state
.LBB6551:
	.loc 4 1253 0
	addi 3,1,8
	mr 4,27
	addi 5,1,20
	addi 6,1,92
	bl _Z11BoxToPointsRK6idVec3S1_RK6idMat3PS_
.LVL626:
	.loc 4 1255 0
	lfs 10,0(23)
	lfs 0,92(1)
	fcmpu 7,0,10
	cror 30,28,30
	beq- 7,.L315
	.loc 4 1261 0
	li 3,7
	.loc 4 1255 0
	addi 9,1,104
	li 6,0
	li 0,0
	li 5,0
	li 8,0
	li 7,0
	li 11,1
	.loc 4 1261 0
	mtctr 3
	b .L263
.LVL627:
.L354:
	.loc 4 1269 0
	mulli 10,5,12
	add 10,12,10
	lfs 11,84(10)
	lfs 12,88(10)
	fmuls 13,13,11
	fmuls 12,0,12
	fcmpu 7,13,12
	bng- 7,.L261
	mr 5,11
.L261:
.LVL628:
	.loc 4 1272 0
	mulli 10,0,12
	addi 3,1,8
	lfs 13,8(9)
	add 10,3,10
	lfs 11,84(10)
	lfs 12,92(10)
	fmuls 11,13,11
	fmuls 12,0,12
	fcmpu 7,11,12
	blt- 7,.L319
.L355:
	.loc 4 1274 0
	mulli 10,6,12
	add 10,3,10
	lfs 11,84(10)
	lfs 12,92(10)
	fmuls 13,13,11
	fmuls 0,0,12
	fcmpu 7,13,0
	bng- 7,.L262
	mr 6,11
.L262:
.LVL629:
	.loc 4 1260 0
	addi 11,11,1
.LVL630:
	addi 9,9,12
	bdz .L353
.LVL631:
.L263:
	.loc 4 1261 0
	lfs 0,0(9)
	fcmpu 7,0,10
	cror 30,28,30
	beq- 7,.L315
	.loc 4 1264 0
	mulli 10,7,12
	addi 4,1,8
	add 10,4,10
	lfs 13,84(10)
	fcmpu 7,0,13
	bnl- 7,.L260
	mr 7,11
.L260:
.LVL632:
	.loc 4 1267 0
	mulli 10,8,12
	addi 12,1,8
	lfs 13,4(9)
	add 10,12,10
	lfs 11,84(10)
	lfs 12,88(10)
	fmuls 11,13,11
	fmuls 12,0,12
	fcmpu 7,11,12
	bnl- 7,.L354
	.loc 4 1272 0
	mulli 10,0,12
	addi 3,1,8
	lfs 13,8(9)
	.loc 4 1267 0
	mr 8,11
.LVL633:
	.loc 4 1272 0
	add 10,3,10
	lfs 11,84(10)
	lfs 12,92(10)
	fmuls 11,13,11
	fmuls 12,0,12
	fcmpu 7,11,12
	bnl- 7,.L355
.LVL634:
.L319:
	mr 0,11
.LVL635:
	.loc 4 1260 0
	addi 9,9,12
	addi 11,11,1
.LVL636:
	bdnz .L263
.L353:
	.loc 4 1279 0
	cmpwi 7,24,0
	bne+ 7,.L264
	.loc 4 1280 0
	mulli 9,8,12
	addi 4,1,8
	add 9,4,9
	lfs 13,88(9)
	lfs 0,84(9)
.LVL637:
.LBB6520:
.LBB6521:
	.loc 6 614 0
	fabs 11,13
	fabs 12,0
	fcmpu 7,11,12
	bng- 7,.L339
.LVL638:
.LBE6521:
.LBB6522:
.LBB6523:
	.loc 6 615 0
	fdivs 0,0,13
	.loc 6 618 0
	lis 9,.LC5@ha
.LVL639:
	lis 10,.LC6@ha
	lfs 5,.LC5@l(9)
	lfs 6,.LC6@l(10)
	lis 10,.LC7@ha
	lfs 7,.LC7@l(10)
	lis 3,.LC8@ha
	lfs 8,.LC8@l(3)
	lis 11,.LC9@ha
.LVL640:
	lfs 9,.LC9@l(11)
	lis 12,.LC10@ha
	lfs 10,.LC10@l(12)
	lis 4,.LC11@ha
	lfs 11,.LC11@l(4)
	lis 9,.LC12@ha
	lfs 12,.LC12@l(9)
	la 12,.LC10@l(12)
	stw 11,264(1)
	lis 11,.LC5@ha
	stw 4,204(1)
	la 11,.LC5@l(11)
	stw 9,212(1)
	lis 9,.LC6@ha
	lfs 13,0(23)
.LVL641:
	la 10,.LC7@l(10)
	stw 11,260(1)
	la 11,.LC8@l(3)
	lwz 3,264(1)
	stw 12,200(1)
	lwz 12,204(1)
	.loc 6 615 0
	stfs 0,208(1)
.LVL642:
	.loc 6 616 0
	fmr 3,0
	fmuls 0,0,0
.LVL643:
	.loc 6 618 0
	la 12,.LC11@l(12)
	.loc 6 619 0
	lwz 4,208(1)
	.loc 6 618 0
	stw 12,204(1)
	.loc 6 620 0
	lis 12,_ZN6idMath7HALF_PIE@ha
	.loc 6 618 0
	fmsubs 6,0,5,6
	.loc 6 619 0
	cmpwi 7,4,0
	.loc 6 618 0
	la 4,.LC6@l(9)
	la 9,.LC9@l(3)
	lwz 3,212(1)
	fmadds 7,0,6,7
	.loc 6 620 0
	lfs 24,_ZN6idMath7HALF_PIE@l(12)
	.loc 6 618 0
	la 3,.LC12@l(3)
	stw 3,212(1)
	fmsubs 8,0,7,8
	fmadds 9,0,8,9
	fmsubs 10,0,9,10
	fmadds 11,0,10,11
	fmsubs 12,0,11,12
	fnmadds 0,0,12,13
.LVL644:
	fmuls 26,3,0
.LVL645:
	.loc 6 619 0
	blt- 7,.L356
	.loc 6 622 0
	fadds 26,26,24
.LVL646:
.L269:
.LBE6523:
.LBE6522:
.LBE6520:
	.loc 4 1280 0
	mulli 12,5,12
	addi 3,1,8
	add 3,3,12
	lfs 13,88(3)
	lfs 0,84(3)
.LVL647:
.LBB6527:
.LBB6528:
	.loc 6 614 0
	fabs 11,13
	fabs 12,0
	fcmpu 7,11,12
	bng- 7,.L340
.LVL648:
.LBE6528:
.LBB6529:
.LBB6530:
	.loc 6 615 0
	fdivs 0,0,13
	.loc 6 618 0
	lwz 12,260(1)
	lfs 6,0(4)
	lfs 5,0(12)
	lfs 7,0(10)
	lfs 8,0(11)
	lfs 9,0(9)
	lwz 3,200(1)
.LVL649:
	lwz 12,204(1)
	lfs 10,0(3)
	lfs 11,0(12)
	lwz 3,212(1)
	lfs 13,0(23)
.LVL650:
	lfs 12,0(3)
	.loc 6 615 0
	stfs 0,208(1)
.LVL651:
	.loc 6 616 0
	fmr 3,0
	fmuls 0,0,0
.LVL652:
	.loc 6 619 0
	lwz 3,208(1)
	.loc 6 618 0
	fmsubs 6,0,5,6
	.loc 6 619 0
	cmpwi 7,3,0
	.loc 6 618 0
	fmadds 7,0,6,7
	fmsubs 8,0,7,8
	fmadds 9,0,8,9
	fmsubs 10,0,9,10
	fmadds 11,0,10,11
	fmsubs 12,0,11,12
	fnmadds 0,0,12,13
.LVL653:
	fmuls 0,3,0
.LVL654:
	.loc 6 619 0
	blt- 7,.L357
	.loc 6 622 0
	fadds 0,0,24
.LVL655:
.L274:
.LBE6530:
.LBE6529:
.LBE6527:
	.loc 4 1280 0
	fadds 26,26,0
	lfs 0,0(21)
.LBB6534:
.LBB6371:
	.loc 6 467 0
	lis 12,_ZN6idMath2PIE@ha
	lfs 23,_ZN6idMath2PIE@l(12)
.LBE6371:
.LBE6534:
	.loc 4 1280 0
	fmuls 26,26,0
.LVL656:
.LBB6535:
.LBB6372:
	.loc 6 467 0
	fcmpu 7,26,22
	blt- 7,.L277
	fcmpu 7,26,23
	cror 30,29,30
	beq- 7,.L277
.L278:
	.loc 6 471 0
	fcmpu 7,26,24
	.loc 6 472 0
	lis 3,_ZN6idMath12ONEFOURTH_PIE@ha
	lfs 21,_ZN6idMath12ONEFOURTH_PIE@l(3)
	.loc 6 471 0
	bnl- 7,.L341
	.loc 6 472 0
	fcmpu 7,26,21
	bng- 7,.L342
	.loc 6 474 0
	li 12,1
	.loc 6 473 0
	fsubs 26,24,26
.LVL657:
	.loc 6 474 0
	stw 12,208(1)
	b .L282
.LVL658:
.L315:
.LBE6372:
.LBE6535:
	.loc 4 1262 0
	li 3,0
	b .L255
.LVL659:
.L277:
.LBB6536:
.LBB6373:
	.loc 6 468 0
	fdivs 1,26,23
	stw 0,244(1)
	stw 4,216(1)
	stw 5,240(1)
	stw 6,248(1)
	stw 7,232(1)
	stw 8,236(1)
	stw 9,228(1)
	stw 10,220(1)
	stw 11,224(1)
	bl floorf
.LVL660:
	lwz 11,224(1)
	.loc 4 1215 0
	fneg 1,1
	.loc 6 468 0
	lwz 10,220(1)
	lwz 9,228(1)
	lwz 8,236(1)
.LVL661:
	fmadds 26,1,23,26
.LVL662:
	lwz 7,232(1)
.LVL663:
	lwz 6,248(1)
.LVL664:
	lwz 5,240(1)
.LVL665:
	lwz 4,216(1)
	lwz 0,244(1)
.LVL666:
	b .L278
.LVL667:
.L340:
.LBE6373:
.LBE6536:
.LBB6537:
.LBB6532:
	.loc 6 625 0
	fdivs 13,13,0
.LVL668:
	.loc 6 628 0
	lwz 12,260(1)
	lfs 5,0(4)
	lfs 4,0(12)
	lfs 6,0(10)
	lfs 7,0(11)
	lfs 8,0(9)
	lwz 3,200(1)
.LVL669:
	lwz 12,204(1)
	lfs 9,0(3)
	lfs 10,0(12)
	lwz 3,212(1)
	lfs 12,0(23)
	lfs 11,0(3)
	.loc 6 626 0
	fmuls 0,13,13
.LVL670:
	.loc 6 628 0
	fmsubs 5,0,4,5
	fmadds 6,0,5,6
	fmsubs 7,0,6,7
	fmadds 8,0,7,8
	fmsubs 9,0,8,9
	fmadds 10,0,9,10
	fmsubs 11,0,10,11
	fmadds 0,0,11,12
.LVL671:
	fmuls 0,13,0
	b .L274
.LVL672:
.L339:
.LBE6532:
.LBE6537:
.LBB6538:
.LBB6525:
	.loc 6 625 0
	fdivs 13,13,0
.LVL673:
	.loc 6 628 0
	lis 4,.LC5@ha
	lis 9,.LC6@ha
.LVL674:
	lfs 4,.LC5@l(4)
	lfs 5,.LC6@l(9)
	lis 10,.LC7@ha
	lfs 6,.LC7@l(10)
	lis 3,.LC8@ha
	lfs 7,.LC8@l(3)
	lis 11,.LC9@ha
.LVL675:
	lfs 8,.LC9@l(11)
	lis 12,.LC10@ha
	lfs 9,.LC10@l(12)
	lis 4,.LC11@ha
	lfs 10,.LC11@l(4)
	lis 9,.LC12@ha
	lfs 11,.LC12@l(9)
	la 12,.LC10@l(12)
	stw 11,264(1)
	lis 11,.LC5@ha
	la 11,.LC5@l(11)
	stw 4,204(1)
	stw 9,212(1)
	lis 4,_ZN6idMath7HALF_PIE@ha
	lfs 12,0(23)
	lis 9,.LC6@ha
	stw 11,260(1)
	la 11,.LC8@l(3)
	lwz 3,264(1)
	la 10,.LC7@l(10)
	lfs 24,_ZN6idMath7HALF_PIE@l(4)
	la 4,.LC6@l(9)
	stw 12,200(1)
	la 9,.LC9@l(3)
	.loc 6 626 0
	fmuls 0,13,13
.LVL676:
	.loc 6 628 0
	lwz 12,204(1)
	lwz 3,212(1)
	la 12,.LC11@l(12)
	fmsubs 5,0,4,5
	la 3,.LC12@l(3)
	stw 12,204(1)
	stw 3,212(1)
	fmadds 6,0,5,6
	fmsubs 7,0,6,7
	fmadds 8,0,7,8
	fmsubs 9,0,8,9
	fmadds 10,0,9,10
	fmsubs 11,0,10,11
	fmadds 0,0,11,12
.LVL677:
	fmuls 26,13,0
	b .L269
.LVL678:
.L350:
.LBE6525:
.LBE6538:
.LBB6539:
.LBB6374:
	.loc 6 481 0
	li 12,0
	.loc 6 480 0
	fsubs 26,26,23
.LVL679:
	.loc 6 481 0
	stw 12,208(1)
	b .L282
.LVL680:
.L342:
	.loc 6 476 0
	li 12,0
	stw 12,208(1)
	b .L282
.LVL681:
.L346:
.LBE6374:
.LBE6539:
.LBB6540:
.LBB6479:
	.loc 6 479 0
	fadds 21,21,24
	fcmpu 7,31,21
	bng- 7,.L348
	.loc 6 480 0
	fsubs 31,31,23
.LVL682:
	.loc 6 481 0
	li 9,0
	b .L302
.LVL683:
.L345:
.LBE6479:
.LBE6540:
.LBB6541:
.LBB6473:
	.loc 6 625 0
	fdivs 13,13,0
.LVL684:
	.loc 6 628 0
	lwz 12,260(1)
	lfs 5,0(4)
	lfs 4,0(12)
	lfs 6,0(10)
	lfs 7,0(11)
	lfs 8,0(9)
	lwz 3,200(1)
.LVL685:
	lwz 4,204(1)
	lfs 9,0(3)
	lfs 10,0(4)
	lwz 9,212(1)
	lfs 12,0(23)
	lfs 11,0(9)
	.loc 6 626 0
	fmuls 0,13,13
.LVL686:
	.loc 6 628 0
	fmsubs 5,0,4,5
	fmadds 6,0,5,6
	fmsubs 7,0,6,7
	fmadds 8,0,7,8
	fmsubs 9,0,8,9
	fmadds 10,0,9,10
	fmsubs 11,0,10,11
	fmadds 0,0,11,12
.LVL687:
	fmuls 0,13,0
	b .L296
.LVL688:
.L344:
.LBE6473:
.LBE6541:
.LBB6542:
.LBB6462:
	.loc 6 625 0
	fdivs 13,12,13
.LVL689:
	.loc 6 628 0
	lwz 12,260(1)
.LVL690:
	lfs 5,0(4)
	lfs 4,0(12)
	lfs 6,0(10)
	lfs 7,0(11)
	lfs 8,0(9)
	lwz 3,200(1)
.LVL691:
	lwz 12,204(1)
	lfs 9,0(3)
	lfs 10,0(12)
	lwz 3,212(1)
	lfs 12,0(23)
.LVL692:
	lfs 11,0(3)
	.loc 6 626 0
	fmuls 0,13,13
.LVL693:
	.loc 6 628 0
	fmsubs 5,0,4,5
	fmadds 6,0,5,6
	fmsubs 7,0,6,7
	fmadds 8,0,7,8
	fmsubs 9,0,8,9
	fmadds 10,0,9,10
	fmsubs 11,0,10,11
	fmadds 0,0,11,12
.LVL694:
	fmuls 31,13,0
.LVL695:
	b .L291
.LVL696:
.L352:
.LBE6462:
.LBE6542:
.LBB6543:
.LBB6474:
.LBB6472:
	.loc 6 620 0
	fsubs 0,0,24
.LVL697:
	b .L296
.LVL698:
.L351:
.LBE6472:
.LBE6474:
.LBE6543:
.LBB6544:
.LBB6463:
.LBB6461:
	fsubs 31,31,24
.LVL699:
	b .L291
.LVL700:
.L357:
.LBE6461:
.LBE6463:
.LBE6544:
.LBB6545:
.LBB6533:
.LBB6531:
	fsubs 0,0,24
.LVL701:
	b .L274
.LVL702:
.L356:
.LBE6531:
.LBE6533:
.LBE6545:
.LBB6546:
.LBB6526:
.LBB6524:
	fsubs 26,26,24
.LVL703:
	b .L269
.LBE6524:
.LBE6526:
.LBE6546:
.LBE6551:
	.cfi_endproc
.LFE2565:
	.size	_ZN9idFrustum14FromProjectionERK5idBoxRK6idVec3f, .-_ZN9idFrustum14FromProjectionERK5idBoxRK6idVec3f
	.align 2
	.globl _ZN9idFrustum14FromProjectionERK8idBoundsRK6idVec3f
	.type	_ZN9idFrustum14FromProjectionERK8idBoundsRK6idVec3f, @function
_ZN9idFrustum14FromProjectionERK8idBoundsRK6idVec3f:
.LFB2564:
	.loc 4 1204 0
	.cfi_startproc
.LVL704:
	mflr 0
	stwu 1,-88(1)
.LCFI54:
	.cfi_def_cfa_offset 88
	.cfi_register 65, 0
.LVL705:
.LBB6587:
.LBB6588:
.LBB6589:
	.loc 3 439 0
	lis 9,.LC1@ha
.LBE6589:
.LBE6588:
.LBB6594:
.LBB6595:
.LBB6596:
	.loc 5 454 0
	lis 11,mat3_identity@ha
.LBE6596:
.LBE6595:
.LBE6594:
.LBE6587:
	.loc 4 1204 0
	stfd 30,72(1)
	stw 0,92(1)
.LBB6657:
.LBB6605:
.LBB6606:
	addi 0,1,68
	.cfi_offset 65, 4
	.cfi_offset 62, -16
.LBE6606:
.LBE6605:
.LBE6657:
	stfd 31,80(1)
.LBB6658:
.LBB6609:
.LBB6590:
	.loc 3 439 0
	lfs 8,.LC1@l(9)
.LBE6590:
.LBE6609:
.LBB6610:
.LBB6601:
.LBB6597:
	.loc 5 454 0
	la 9,mat3_identity@l(11)
.LBE6597:
.LBE6601:
.LBE6610:
.LBB6611:
.LBB6612:
	.loc 3 452 0
	lfs 6,16(4)
	lfs 10,4(4)
	lfs 5,12(4)
	fadds 10,6,10
	lfs 9,0(4)
	lfs 7,20(4)
.LVL706:
	fadds 9,5,9
.LBE6612:
.LBE6611:
.LBB6615:
.LBB6602:
.LBB6598:
	.loc 5 454 0
	lfs 30,16(9)
.LBE6598:
.LBE6602:
.LBE6615:
.LBB6616:
.LBB6591:
	.loc 3 439 0
	fmuls 10,10,8
.LVL707:
.LBE6591:
.LBE6616:
.LBB6617:
.LBB6603:
.LBB6599:
	.loc 5 454 0
	lfs 31,20(9)
	.cfi_offset 63, -8
	lfs 3,12(9)
.LBE6599:
.LBE6603:
.LBE6617:
.LBB6618:
.LBB6613:
	.loc 3 452 0
	lfs 11,8(4)
.LBE6613:
.LBE6618:
.LBB6619:
.LBB6592:
	.loc 3 439 0
	fmuls 9,9,8
.LBE6592:
.LBE6619:
.LBB6620:
.LBB6604:
.LBB6600:
	.loc 5 454 0
	fmuls 30,10,30
	lfs 0,mat3_identity@l(11)
	fmuls 31,10,31
	lfs 12,4(9)
	fmuls 3,10,3
	lfs 13,8(9)
.LBE6600:
.LBE6604:
.LBE6620:
.LBB6621:
.LBB6614:
	.loc 3 452 0
	fadds 11,7,11
.LBE6614:
.LBE6621:
.LBB6622:
.LBB6623:
	.loc 5 454 0
	lfs 4,28(9)
	fmadds 30,9,12,30
	lfs 2,24(9)
	fmadds 31,9,13,31
	.loc 3 452 0
	lis 11,vec3_origin@ha
.LBE6623:
.LBE6622:
.LBB6628:
.LBB6593:
	.loc 3 439 0
	fmuls 11,11,8
.LVL708:
.LBE6593:
.LBE6628:
.LBB6629:
.LBB6624:
	.loc 5 454 0
	lfs 8,32(9)
	fmadds 3,9,0,3
	.loc 3 452 0
	la 10,vec3_origin@l(11)
.LBE6624:
.LBE6629:
.LBB6630:
.LBB6631:
	.loc 3 431 0
	fsubs 9,5,9
.LVL709:
.LBE6631:
.LBE6630:
.LBB6634:
.LBB6635:
.LBB6636:
.LBB6637:
	.loc 3 426 0
	addi 9,9,12
.LBE6637:
.LBE6636:
.LBE6635:
.LBE6634:
.LBB6643:
.LBB6625:
	.loc 5 454 0
	fmadds 30,11,4,30
	.loc 3 452 0
	lfs 4,4(10)
	.loc 5 454 0
	fmadds 31,11,8,31
	.loc 3 452 0
	lfs 8,8(10)
	.loc 5 454 0
	fmadds 3,11,2,3
	.loc 3 452 0
	lfs 2,vec3_origin@l(11)
.LBE6625:
.LBE6643:
.LBB6644:
.LBB6632:
	.loc 3 431 0
	fsubs 10,6,10
.LVL710:
.LBE6632:
.LBE6644:
.LBB6645:
.LBB6607:
	.loc 3 426 0
	addi 11,1,32
.LBE6607:
.LBE6645:
.LBB6646:
.LBB6633:
	.loc 3 431 0
	fsubs 11,7,11
.LVL711:
.LBE6633:
.LBE6646:
.LBB6647:
.LBB6648:
	.loc 3 424 0
	stfs 9,20(1)
.LBE6648:
.LBE6647:
.LBB6651:
.LBB6626:
	.loc 3 452 0
	fadds 4,30,4
	fadds 8,31,8
.LBE6626:
.LBE6651:
.LBB6652:
.LBB6649:
	.loc 3 425 0
	stfs 10,24(1)
.LBE6649:
.LBE6652:
.LBB6653:
.LBB6627:
	.loc 3 452 0
	fadds 3,2,3
.LBE6627:
.LBE6653:
.LBB6654:
.LBB6650:
	.loc 3 426 0
	stfs 11,28(1)
.LVL712:
.LBE6650:
.LBE6654:
.LBB6655:
.LBB6608:
	.loc 3 425 0
	stfs 4,12(1)
	.loc 3 426 0
	stfs 8,16(1)
.LVL713:
	.loc 3 424 0
	stfs 3,8(1)
.LBE6608:
.LBE6655:
.LBB6656:
.LBB6642:
.LBB6640:
.LBB6638:
	stfs 0,0(11)
	.loc 3 425 0
	stfs 12,4(11)
	.loc 3 426 0
	stfs 13,8(11)
	addi 11,11,12
.LVL714:
.LBE6638:
.LBE6640:
	.loc 5 333 0
	cmpw 7,11,0
	beq- 7,.L359
.LVL715:
.L361:
	.loc 4 1204 0
	lfs 0,0(9)
	lfs 12,4(9)
	lfs 13,8(9)
.LBB6641:
.LBB6639:
	.loc 3 426 0
	addi 9,9,12
	.loc 3 424 0
	stfs 0,0(11)
	.loc 3 425 0
	stfs 12,4(11)
	.loc 3 426 0
	stfs 13,8(11)
	addi 11,11,12
.LBE6639:
.LBE6641:
	.loc 5 333 0
	cmpw 7,11,0
	bne+ 7,.L361
.L359:
.LBE6642:
.LBE6656:
.LBE6658:
	.loc 4 1205 0
	addi 4,1,8
.LVL716:
	bl _ZN9idFrustum14FromProjectionERK5idBoxRK6idVec3f
.LVL717:
	.loc 4 1206 0
	lwz 0,92(1)
	lfd 30,72(1)
	mtlr 0
	lfd 31,80(1)
	addi 1,1,88
.LCFI55:
	.cfi_def_cfa_offset 0
	.cfi_restore 63
	.cfi_restore 62
	blr
	.cfi_endproc
.LFE2564:
	.size	_ZN9idFrustum14FromProjectionERK8idBoundsRK6idVec3f, .-_ZN9idFrustum14FromProjectionERK8idBoundsRK6idVec3f
	.align 2
	.globl _ZN9idFrustum14FromProjectionERK8idSphereRK6idVec3f
	.type	_ZN9idFrustum14FromProjectionERK8idSphereRK6idVec3f, @function
_ZN9idFrustum14FromProjectionERK8idSphereRK6idVec3f:
.LFB2566:
	.loc 4 1376 0
	.cfi_startproc
.LVL718:
	mflr 0
	stwu 1,-120(1)
.LCFI56:
	.cfi_def_cfa_offset 120
	.cfi_register 65, 0
.LBB6686:
.LBB6687:
.LBB6688:
	.loc 3 431 0
	lfs 0,4(5)
.LBE6688:
.LBE6687:
.LBE6686:
	.loc 4 1376 0
	stfd 30,104(1)
	stw 0,124(1)
	stw 27,84(1)
.LBB6781:
.LBB6692:
.LBB6693:
.LBB6694:
.LBB6695:
	.loc 6 275 0
	lis 27,.LC1@ha
	.cfi_offset 27, -36
	.cfi_offset 65, 4
	.cfi_offset 62, -16
.LBE6695:
.LBE6694:
.LBE6693:
.LBE6692:
.LBE6781:
	.loc 4 1376 0
	stw 28,88(1)
.LBB6782:
.LBB6722:
.LBB6714:
.LBB6705:
.LBB6696:
	.loc 6 278 0
	lis 28,.LC3@ha
	.cfi_offset 28, -32
.LBE6696:
.LBE6705:
.LBE6714:
.LBE6722:
.LBE6782:
	.loc 4 1376 0
	stw 29,92(1)
.LBB6783:
	.loc 4 1386 0
	lis 29,.LC4@ha
	.cfi_offset 29, -28
.LBE6783:
	.loc 4 1376 0
	stw 30,96(1)
.LBB6784:
.LBB6723:
.LBB6715:
.LBB6706:
.LBB6697:
	.loc 6 276 0
	lis 30,_ZN6idMath5iSqrtE@ha
	.cfi_offset 30, -24
.LBE6697:
.LBE6706:
.LBE6715:
.LBE6723:
.LBE6784:
	.loc 4 1376 0
	stw 31,100(1)
.LBB6785:
.LBB6724:
.LBB6716:
.LBB6707:
.LBB6698:
	.loc 6 276 0
	la 30,_ZN6idMath5iSqrtE@l(30)
.LBE6698:
.LBE6707:
.LBE6716:
.LBE6724:
.LBE6785:
	.loc 4 1376 0
	stfd 31,112(1)
	.loc 4 1376 0
	mr 31,3
	.cfi_offset 63, -8
	.cfi_offset 31, -20
.LBB6786:
.LBB6725:
.LBB6689:
	.loc 3 431 0
	lfs 7,0(5)
	lfs 13,4(4)
	lfs 12,0(4)
	fsubs 13,13,0
	lfs 10,8(4)
	fsubs 12,12,7
	lfs 0,8(5)
.LBE6689:
.LBE6725:
.LBB6726:
.LBB6717:
.LBB6708:
.LBB6699:
	.loc 6 275 0
	lfs 8,.LC1@l(27)
.LBE6699:
.LBE6708:
	.loc 3 649 0
	fmuls 11,13,13
.LBB6709:
.LBB6700:
	.loc 6 278 0
	lfs 9,.LC3@l(28)
.LBE6700:
.LBE6709:
.LBE6717:
.LBE6726:
.LBB6727:
.LBB6690:
	.loc 3 431 0
	fsubs 0,10,0
.LVL719:
.LBE6690:
.LBE6727:
	.loc 4 1386 0
	lfs 6,.LC4@l(29)
.LBB6728:
.LBB6691:
	.loc 3 649 0
	fmadds 11,12,12,11
	fmadds 11,0,0,11
	stfs 11,56(1)
.LVL720:
.LBE6691:
.LBE6728:
.LBB6729:
.LBB6718:
.LBB6710:
.LBB6701:
	.loc 6 275 0
	fmuls 8,11,8
	.loc 6 270 0
	lwz 0,56(1)
.LVL721:
	.loc 4 1376 0
	fneg 8,8
	.loc 6 276 0
	rlwinm 9,0,19,21,29
	rlwinm 11,0,9,24,31
	subfic 0,11,380
	lwzx 9,30,9
	rlwinm 0,0,22,0,8
	or 0,0,9
	.loc 6 277 0
	stw 0,72(1)
	lfs 11,72(1)
.LVL722:
.LBE6701:
.LBE6710:
	.loc 4 2843 0
	lfs 31,12(4)
.LBB6711:
.LBB6702:
	.loc 6 277 0
	fmr 10,11
.LVL723:
.LBE6702:
.LBE6711:
.LBE6718:
.LBE6729:
	.loc 4 1386 0
	fadds 6,31,6
.LBB6730:
.LBB6719:
.LBB6712:
.LBB6703:
	.loc 6 278 0
	fmul 11,10,10
.LVL724:
	fmadd 11,8,11,9
	fmul 11,10,11
.LVL725:
	.loc 6 279 0
	fmul 10,11,11
	fmadd 9,8,10,9
.LVL726:
.LBE6703:
.LBE6712:
	.loc 3 654 0
	lfs 10,56(1)
.LBB6713:
.LBB6704:
	.loc 6 279 0
	fmul 11,11,9
.LVL727:
	.loc 6 280 0
	frsp 11,11
.LVL728:
.LBE6704:
.LBE6713:
	.loc 3 654 0
	fmuls 30,10,11
	.loc 3 651 0
	fmuls 12,12,11
.LVL729:
	.loc 3 652 0
	fmuls 13,13,11
.LVL730:
.LBE6719:
.LBE6730:
	.loc 4 1386 0
	fcmpu 7,6,30
.LBB6731:
.LBB6720:
	.loc 3 653 0
	fmuls 0,0,11
.LVL731:
	.loc 3 651 0
	stfs 12,8(1)
.LBE6720:
.LBE6731:
	.loc 4 1386 0
	cror 30,29,30
.LBB6732:
.LBB6721:
	.loc 3 652 0
	stfs 13,12(1)
	.loc 3 653 0
	stfs 0,16(1)
.LBE6721:
.LBE6732:
	.loc 4 1386 0
	bne- 7,.L369
.LVL732:
	.loc 4 1387 0
	li 0,0
	stw 0,64(3)
	stw 0,52(3)
	stw 0,48(3)
	.loc 4 1388 0
	li 3,0
.LVL733:
.LBE6786:
	.loc 4 1405 0
	lwz 0,124(1)
	lwz 27,84(1)
	mtlr 0
	lwz 28,88(1)
	lwz 29,92(1)
	lwz 30,96(1)
	lwz 31,100(1)
.LVL734:
	lfd 30,104(1)
	lfd 31,112(1)
	addi 1,1,120
	.cfi_remember_state
.LCFI57:
	.cfi_def_cfa_offset 0
	.cfi_restore 63
	.cfi_restore 62
	.cfi_restore 31
	.cfi_restore 30
	.cfi_restore 29
	.cfi_restore 28
	.cfi_restore 27
	blr
.LVL735:
.L369:
.LCFI58:
	.cfi_restore_state
.LBB6787:
.LBB6733:
.LBB6734:
	.loc 3 424 0
	stfs 7,0(3)
.LBE6734:
.LBE6733:
	.loc 4 1392 0
	addi 4,1,8
.LVL736:
	addi 3,1,20
.LVL737:
.LBB6736:
.LBB6735:
	.loc 3 425 0
	lwz 0,4(5)
	stw 0,4(31)
	.loc 3 426 0
	lwz 0,8(5)
	stw 0,8(31)
.LBE6735:
.LBE6736:
	.loc 4 1392 0
	stfd 1,64(1)
	bl _ZNK6idVec36ToMat3Ev
.LVL738:
.LBB6737:
.LBB6738:
	.loc 5 333 0
	lfd 1,64(1)
	addi 7,31,12
	li 10,0
.L366:
.LBB6739:
.LBB6740:
	.loc 3 424 0
	addi 11,1,20
.LVL739:
	mr 9,7
	lwzux 0,11,10
.LVL740:
.LBE6740:
.LBE6739:
	.loc 5 333 0
	cmpwi 7,10,24
.LBB6743:
.LBB6741:
	.loc 3 424 0
	stwux 0,9,10
.LBE6741:
.LBE6743:
	.loc 5 333 0
	addi 10,10,12
.LBB6744:
.LBB6742:
	.loc 3 425 0
	lwz 8,4(11)
	.loc 3 426 0
	lwz 0,8(11)
	.loc 3 425 0
	stw 8,4(9)
	.loc 3 426 0
	stw 0,8(9)
.LBE6742:
.LBE6744:
	.loc 5 333 0
	bne+ 7,.L366
.LBE6738:
.LBE6737:
	.loc 4 1394 0
	fmuls 13,31,31
.LBB6747:
.LBB6748:
.LBB6749:
.LBB6750:
	.loc 6 275 0
	lfs 10,.LC1@l(27)
	.loc 6 278 0
	lfs 0,.LC3@l(28)
.LBE6750:
.LBE6749:
.LBE6748:
.LBE6747:
	.loc 4 1404 0
	li 3,1
	.loc 4 1402 0
	lfs 8,.LC4@l(29)
.LBB6762:
.LBB6745:
	.loc 4 1394 0
	fmsubs 13,30,30,13
.LBE6745:
.LBE6762:
	.loc 4 1402 0
	fdivs 8,8,1
.LBB6763:
.LBB6746:
	.loc 4 1394 0
	stfs 13,56(1)
.LVL741:
.LBE6746:
.LBE6763:
.LBB6764:
.LBB6759:
.LBB6755:
.LBB6751:
	.loc 6 270 0
	lwz 0,56(1)
.LVL742:
	.loc 6 275 0
	lfs 11,56(1)
	.loc 6 276 0
	rlwinm 11,0,9,24,31
	rlwinm 0,0,19,21,29
	lwzx 9,30,0
	subfic 0,11,380
	rlwinm 0,0,22,0,8
	or 0,0,9
	.loc 6 277 0
	stw 0,72(1)
	lfs 12,72(1)
	.loc 6 275 0
	fmuls 9,11,10
.LVL743:
	.loc 6 277 0
	fmr 11,12
.LVL744:
.LBE6751:
.LBE6755:
.LBE6759:
.LBE6764:
	.loc 4 1395 0
	fdivs 13,31,30
.LVL745:
.LBB6765:
.LBB6760:
.LBB6756:
.LBB6752:
	.loc 6 278 0
	fmul 12,11,11
.LVL746:
	.loc 4 1376 0
	fneg 9,9
.LVL747:
.LBE6752:
.LBE6756:
.LBE6760:
.LBE6765:
	.loc 4 1398 0
	fsubs 31,30,31
.LBB6766:
.LBB6761:
.LBB6757:
.LBB6753:
	.loc 6 278 0
	fmadd 12,9,12,0
	fmul 12,11,12
.LVL748:
	.loc 6 279 0
	fmul 11,12,12
	fmadd 9,9,11,0
.LVL749:
.LBE6753:
.LBE6757:
	.loc 6 303 0
	lfs 11,56(1)
.LBB6758:
.LBB6754:
	.loc 6 279 0
	fmul 12,12,9
.LVL750:
	.loc 6 280 0
	frsp 12,12
.LVL751:
.LBE6754:
.LBE6758:
	.loc 6 303 0
	fmuls 12,11,12
.LBE6761:
.LBE6766:
	.loc 4 1395 0
	fmuls 13,13,12
.LVL752:
	.loc 4 1396 0
	fmuls 11,13,13
	fmsubs 11,12,12,11
	stfs 11,56(1)
.LVL753:
.LBB6767:
.LBB6768:
.LBB6769:
.LBB6770:
	.loc 6 275 0
	fmuls 10,11,10
	.loc 6 270 0
	lwz 0,56(1)
.LVL754:
	.loc 4 1376 0
	fneg 10,10
	.loc 6 276 0
	rlwinm 11,0,9,24,31
	rlwinm 0,0,19,21,29
	lwzx 9,30,0
	subfic 0,11,380
	rlwinm 0,0,22,0,8
	or 0,0,9
	.loc 6 277 0
	stw 0,72(1)
	lfs 12,72(1)
.LBE6770:
.LBE6769:
.LBE6768:
.LBE6767:
	.loc 4 1399 0
	stfs 1,52(31)
.LBB6779:
.LBB6777:
.LBB6774:
.LBB6771:
	.loc 6 277 0
	fmr 11,12
.LVL755:
.LBE6771:
.LBE6774:
.LBE6777:
.LBE6779:
	.loc 4 1398 0
	stfs 31,48(31)
	.loc 4 1402 0
	stfs 8,64(31)
.LBB6780:
.LBB6778:
.LBB6775:
.LBB6772:
	.loc 6 278 0
	fmul 12,11,11
.LVL756:
	fmadd 12,10,12,0
	fmul 12,11,12
.LVL757:
	.loc 6 279 0
	fmul 11,12,12
	fmadd 0,10,11,0
.LVL758:
	fmul 12,12,0
.LVL759:
.LBE6772:
.LBE6775:
	.loc 6 303 0
	lfs 0,56(1)
.LBB6776:
.LBB6773:
	.loc 6 280 0
	frsp 12,12
.LVL760:
.LBE6773:
.LBE6776:
	.loc 6 303 0
	fmuls 12,0,12
.LBE6778:
.LBE6780:
	.loc 4 1400 0
	fdivs 13,13,12
.LVL761:
	fmuls 1,13,1
	stfs 1,56(31)
	.loc 4 1401 0
	stfs 1,60(31)
.LBE6787:
	.loc 4 1405 0
	lwz 0,124(1)
	lwz 27,84(1)
	mtlr 0
	lwz 28,88(1)
	lwz 29,92(1)
	lwz 30,96(1)
	lwz 31,100(1)
.LVL762:
	lfd 30,104(1)
	lfd 31,112(1)
	addi 1,1,120
	.cfi_restore 27
	.cfi_restore 28
	.cfi_restore 29
	.cfi_restore 30
	.cfi_restore 31
	.cfi_restore 62
	.cfi_restore 63
.LCFI59:
	.cfi_def_cfa_offset 0
	blr
	.cfi_endproc
.LFE2566:
	.size	_ZN9idFrustum14FromProjectionERK8idSphereRK6idVec3f, .-_ZN9idFrustum14FromProjectionERK8idSphereRK6idVec3f
	.align 2
	.globl _ZN9idFrustum17ConstrainToBoundsERK8idBounds
	.type	_ZN9idFrustum17ConstrainToBoundsERK8idBounds, @function
_ZN9idFrustum17ConstrainToBoundsERK8idBounds:
.LFB2567:
	.loc 4 1414 0
	.cfi_startproc
.LVL763:
.LBB6788:
.LBB6789:
.LBB6790:
.LBB6791:
.LBB6792:
	.loc 3 452 0
	lfs 12,12(4)
.LBE6792:
.LBE6791:
.LBB6796:
.LBB6797:
	.loc 3 439 0
	lis 9,.LC1@ha
.LBE6797:
.LBE6796:
.LBB6802:
.LBB6793:
	.loc 3 452 0
	lfs 10,0(4)
	lfs 13,16(4)
	lfs 9,4(4)
	fadds 10,12,10
.LBE6793:
.LBE6802:
.LBB6803:
.LBB6798:
	.loc 3 439 0
	lfs 0,.LC1@l(9)
.LBE6798:
.LBE6803:
.LBE6790:
.LBE6789:
.LBE6788:
	.loc 4 1414 0
	mr 9,3
.LBB6859:
.LBB6835:
.LBB6827:
.LBB6804:
.LBB6794:
	.loc 3 452 0
	fadds 9,13,9
	lfs 8,20(4)
.LVL764:
	lfs 11,8(4)
.LBE6794:
.LBE6804:
.LBB6805:
.LBB6799:
	.loc 3 439 0
	fmuls 10,10,0
.LBE6799:
.LBE6805:
.LBE6827:
.LBE6835:
.LBE6859:
	.loc 4 1414 0
	stwu 1,-16(1)
.LCFI60:
	.cfi_def_cfa_offset 16
.LBB6860:
.LBB6836:
.LBB6828:
.LBB6806:
.LBB6800:
	.loc 3 439 0
	fmuls 9,9,0
.LBE6800:
.LBE6806:
.LBB6807:
.LBB6795:
	.loc 3 452 0
	fadds 11,8,11
.LBE6795:
.LBE6807:
.LBB6808:
.LBB6809:
	.loc 3 431 0
	fsubs 7,12,10
.LBE6809:
.LBE6808:
.LBB6812:
.LBB6813:
	.loc 3 435 0
	lfs 12,16(3)
.LBE6813:
.LBE6812:
.LBB6816:
.LBB6801:
	.loc 3 439 0
	fmuls 11,11,0
.LVL765:
.LBE6801:
.LBE6816:
.LBB6817:
.LBB6810:
	.loc 3 431 0
	fsubs 0,13,9
.LBE6810:
.LBE6817:
.LBB6818:
.LBB6814:
	.loc 3 435 0
	lfs 13,12(3)
	fmuls 9,9,12
.LVL766:
.LBE6814:
.LBE6818:
	.loc 2 384 0
	fmuls 7,7,13
	.loc 2 385 0
	fmuls 0,0,12
.LVL767:
.LBB6819:
.LBB6811:
	.loc 3 431 0
	fsubs 8,8,11
.LBE6811:
.LBE6819:
	.loc 2 384 0
	stfs 7,8(1)
	.loc 3 435 0
	fmadds 10,10,13,9
.LVL768:
	.loc 2 384 0
	lwz 10,8(1)
	.loc 2 385 0
	stfs 0,8(1)
.LBB6820:
.LBB6821:
	.loc 6 781 0
	rlwinm 10,10,0,1,31
.LBE6821:
.LBE6820:
.LBB6822:
.LBB6815:
	.loc 3 435 0
	lfs 0,20(3)
.LBE6815:
.LBE6822:
.LBE6828:
.LBE6836:
.LBB6837:
.LBB6838:
	lfs 7,4(3)
.LBE6838:
.LBE6837:
.LBB6840:
.LBB6829:
	.loc 2 386 0
	fmuls 8,8,0
	.loc 2 385 0
	lwz 11,8(1)
.LVL769:
.LBE6829:
.LBE6840:
.LBB6841:
.LBB6839:
	.loc 3 435 0
	fmuls 12,12,7
.LBE6839:
.LBE6841:
.LBB6842:
.LBB6830:
.LBB6823:
.LBB6824:
	.loc 6 781 0
	rlwinm 11,11,0,1,31
.LBE6824:
.LBE6823:
	.loc 3 435 0
	fmadds 11,11,0,10
.LVL770:
	.loc 2 386 0
	stfs 8,8(1)
	lwz 0,8(1)
	stw 10,8(1)
.LBB6825:
.LBB6826:
	.loc 6 781 0
	rlwinm 0,0,0,1,31
.LBE6826:
.LBE6825:
	.loc 2 386 0
	lfs 6,8(1)
	stw 11,8(1)
	lfs 9,8(1)
.LBE6830:
.LBE6842:
	.loc 3 435 0
	lfs 7,0(3)
.LBB6843:
.LBB6831:
	.loc 2 386 0
	stw 0,8(1)
	fadds 8,6,9
.LBE6831:
.LBE6843:
	.loc 3 435 0
	fmadds 13,13,7,12
.LBB6844:
.LBB6832:
	.loc 2 386 0
	lfs 10,8(1)
.LBE6832:
.LBE6844:
	.loc 3 435 0
	lfs 12,8(3)
.LBB6845:
.LBB6833:
	.loc 2 386 0
	fadds 8,8,10
.LBE6833:
.LBE6845:
	.loc 3 435 0
	fmadds 0,0,12,13
.LBB6846:
.LBB6834:
	.loc 2 389 0
	fadds 11,11,8
.LBE6834:
.LBE6846:
	.loc 4 1419 0
	lfs 8,48(3)
	.loc 4 1418 0
	fsubs 0,11,0
.LVL771:
	.loc 4 1419 0
	fcmpu 7,8,0
	cror 30,29,30
	beq- 7,.L376
.LVL772:
.LBB6847:
.LBB6848:
	.file 8 "d:/Data/Nintendo/DoomGX/src/idlib/bv/../../idlib/bv/Frustum.h"
	.loc 8 185 0
	lfs 12,52(3)
	.loc 8 189 0
	lis 11,.LC4@ha
	lfs 10,.LC4@l(11)
	.loc 8 185 0
	fdivs 12,0,12
.LVL773:
	.loc 8 186 0
	stfs 0,52(3)
	.loc 8 187 0
	lfs 11,56(3)
	.loc 8 188 0
	lfs 13,60(3)
.LBE6848:
.LBE6847:
	.loc 4 1424 0
	li 3,1
.LVL774:
.LBB6850:
.LBB6849:
	.loc 8 189 0
	fdivs 0,10,0
.LVL775:
	.loc 8 187 0
	fmuls 11,11,12
	.loc 8 189 0
	stfs 0,64(9)
	.loc 8 188 0
	fmuls 12,13,12
.LVL776:
	.loc 8 187 0
	stfs 11,56(9)
	.loc 8 188 0
	stfs 12,60(9)
.LBE6849:
.LBE6850:
.LBE6860:
	.loc 4 1425 0
	addi 1,1,16
	.cfi_remember_state
.LCFI61:
	.cfi_def_cfa_offset 0
	blr
.LVL777:
.L376:
.LCFI62:
	.cfi_restore_state
.LBB6861:
	.loc 4 1420 0
	lis 11,.LC4@ha
.LBB6851:
.LBB6852:
	.loc 8 185 0
	lfs 0,52(3)
.LVL778:
.LBE6852:
.LBE6851:
	.loc 4 1420 0
	lfs 13,.LC4@l(11)
.LBB6856:
.LBB6853:
	.loc 8 187 0
	lfs 12,56(3)
.LBE6853:
.LBE6856:
	.loc 4 1420 0
	fadds 8,8,13
.LVL779:
.LBB6857:
.LBB6854:
	.loc 8 188 0
	lfs 11,60(3)
	.loc 8 185 0
	fdivs 0,8,0
.LVL780:
	.loc 8 186 0
	stfs 8,52(3)
.LBE6854:
.LBE6857:
	.loc 4 1421 0
	li 3,0
.LBB6858:
.LBB6855:
	.loc 8 189 0
	fdivs 8,13,8
.LVL781:
	.loc 8 187 0
	fmuls 12,12,0
	.loc 8 189 0
	stfs 8,64(9)
	.loc 8 188 0
	fmuls 0,11,0
.LVL782:
	.loc 8 187 0
	stfs 12,56(9)
	.loc 8 188 0
	stfs 0,60(9)
.LBE6855:
.LBE6858:
.LBE6861:
	.loc 4 1425 0
	addi 1,1,16
.LCFI63:
	.cfi_def_cfa_offset 0
	blr
	.cfi_endproc
.LFE2567:
	.size	_ZN9idFrustum17ConstrainToBoundsERK8idBounds, .-_ZN9idFrustum17ConstrainToBoundsERK8idBounds
	.align 2
	.globl _ZN9idFrustum14ConstrainToBoxERK5idBox
	.type	_ZN9idFrustum14ConstrainToBoxERK5idBox, @function
_ZN9idFrustum14ConstrainToBoxERK5idBox:
.LFB2568:
	.loc 4 1434 0
	.cfi_startproc
.LVL783:
	stwu 1,-16(1)
.LCFI64:
	.cfi_def_cfa_offset 16
	.loc 4 1434 0
	mr 9,3
.LVL784:
.LBB6892:
.LBB6893:
.LBB6894:
.LBB6895:
.LBB6896:
	.loc 3 435 0
	lfs 5,28(4)
.LBE6896:
.LBE6895:
.LBB6898:
.LBB6899:
	lfs 12,16(3)
.LBE6899:
.LBE6898:
.LBB6904:
.LBB6905:
	lfs 8,40(4)
.LBE6905:
.LBE6904:
.LBB6907:
.LBB6897:
	fmuls 5,12,5
.LBE6897:
.LBE6907:
.LBB6908:
.LBB6900:
	lfs 13,12(3)
.LBE6900:
.LBE6908:
.LBB6909:
.LBB6906:
	fmuls 8,12,8
.LBE6906:
.LBE6909:
	lfs 11,24(4)
	lfs 0,36(4)
.LBB6910:
.LBB6911:
	lfs 7,52(4)
.LBE6911:
.LBE6910:
	fmadds 5,13,11,5
	fmadds 8,13,0,8
	lfs 9,32(4)
.LBB6913:
.LBB6901:
	lfs 0,20(3)
.LVL785:
.LBE6901:
.LBE6913:
.LBB6914:
.LBB6912:
	fmuls 7,12,7
.LBE6912:
.LBE6914:
	lfs 11,48(4)
	fmadds 5,0,9,5
	lfs 10,44(4)
	fmadds 7,13,11,7
	.file 9 "d:/Data/Nintendo/DoomGX/src/idlib/bv/../../idlib/bv/Box.h"
	.loc 9 279 0
	lfs 6,12(4)
	.loc 3 435 0
	fmadds 8,0,10,8
	lfs 11,56(4)
	.loc 9 280 0
	lfs 9,16(4)
	.loc 9 279 0
	fmuls 6,5,6
	.loc 3 435 0
	fmadds 7,0,11,7
.LBB6915:
.LBB6902:
	lfs 10,4(4)
.LBE6902:
.LBE6915:
	.loc 9 280 0
	fmuls 9,8,9
	.loc 9 281 0
	lfs 8,20(4)
	.loc 9 279 0
	stfs 6,8(1)
.LBB6916:
.LBB6903:
	.loc 3 435 0
	fmuls 10,12,10
.LBE6903:
.LBE6916:
	.loc 9 281 0
	fmuls 8,7,8
	.loc 3 435 0
	lfs 11,0(4)
	.loc 9 279 0
	lwz 10,8(1)
	.loc 9 280 0
	stfs 9,8(1)
	.loc 3 435 0
	fmadds 10,13,11,10
.LBB6917:
.LBB6918:
	.loc 6 781 0
	rlwinm 10,10,0,1,31
.LBE6918:
.LBE6917:
.LBE6894:
.LBE6893:
.LBB6929:
.LBB6930:
	.loc 3 435 0
	lfs 9,4(3)
.LBE6930:
.LBE6929:
.LBB6932:
.LBB6923:
	.loc 9 280 0
	lwz 11,8(1)
	.loc 9 281 0
	stfs 8,8(1)
.LBE6923:
.LBE6932:
.LBB6933:
.LBB6931:
	.loc 3 435 0
	fmuls 12,12,9
.LBE6931:
.LBE6933:
.LBB6934:
.LBB6924:
.LBB6919:
.LBB6920:
	.loc 6 781 0
	rlwinm 11,11,0,1,31
.LBE6920:
.LBE6919:
	.loc 9 281 0
	lwz 0,8(1)
	stw 10,8(1)
.LBB6921:
.LBB6922:
	.loc 6 781 0
	rlwinm 0,0,0,1,31
.LBE6922:
.LBE6921:
	.loc 9 281 0
	lfs 7,8(1)
	stw 11,8(1)
	lfs 8,8(1)
.LBE6924:
.LBE6934:
	.loc 3 435 0
	lfs 9,0(3)
.LBB6935:
.LBB6925:
	.loc 9 281 0
	stw 0,8(1)
	fadds 11,7,8
	.loc 3 435 0
	lfs 8,8(4)
.LBE6925:
.LBE6935:
	fmadds 13,9,13,12
.LBB6936:
.LBB6926:
	.loc 9 281 0
	lfs 7,8(1)
	.loc 3 435 0
	fmadds 10,0,8,10
.LBE6926:
.LBE6936:
	lfs 12,8(3)
.LBB6937:
.LBB6927:
	.loc 9 281 0
	fadds 11,11,7
.LBE6927:
.LBE6937:
	.loc 3 435 0
	fmadds 0,12,0,13
.LBB6938:
.LBB6928:
	.loc 9 283 0
	fadds 10,10,11
.LBE6928:
.LBE6938:
	.loc 4 1439 0
	lfs 11,48(3)
	.loc 4 1438 0
	fsubs 0,10,0
.LVL786:
	.loc 4 1439 0
	fcmpu 7,11,0
	cror 30,29,30
	beq- 7,.L383
.LVL787:
.LBB6939:
.LBB6940:
	.loc 8 185 0
	lfs 12,52(3)
	.loc 8 189 0
	lis 11,.LC4@ha
	lfs 10,.LC4@l(11)
	.loc 8 185 0
	fdivs 12,0,12
.LVL788:
	.loc 8 186 0
	stfs 0,52(3)
	.loc 8 187 0
	lfs 11,56(3)
	.loc 8 188 0
	lfs 13,60(3)
.LBE6940:
.LBE6939:
	.loc 4 1444 0
	li 3,1
.LVL789:
.LBB6942:
.LBB6941:
	.loc 8 189 0
	fdivs 0,10,0
.LVL790:
	.loc 8 187 0
	fmuls 11,11,12
	.loc 8 189 0
	stfs 0,64(9)
	.loc 8 188 0
	fmuls 12,13,12
.LVL791:
	.loc 8 187 0
	stfs 11,56(9)
	.loc 8 188 0
	stfs 12,60(9)
.LBE6941:
.LBE6942:
.LBE6892:
	.loc 4 1445 0
	addi 1,1,16
	.cfi_remember_state
.LCFI65:
	.cfi_def_cfa_offset 0
	blr
.LVL792:
.L383:
.LCFI66:
	.cfi_restore_state
.LBB6951:
	.loc 4 1440 0
	lis 11,.LC4@ha
.LBB6943:
.LBB6944:
	.loc 8 185 0
	lfs 0,52(3)
.LVL793:
.LBE6944:
.LBE6943:
	.loc 4 1440 0
	lfs 13,.LC4@l(11)
.LBB6948:
.LBB6945:
	.loc 8 187 0
	lfs 12,56(3)
.LBE6945:
.LBE6948:
	.loc 4 1440 0
	fadds 11,11,13
.LVL794:
.LBB6949:
.LBB6946:
	.loc 8 188 0
	lfs 10,60(3)
	.loc 8 185 0
	fdivs 0,11,0
.LVL795:
	.loc 8 186 0
	stfs 11,52(3)
.LBE6946:
.LBE6949:
	.loc 4 1441 0
	li 3,0
.LBB6950:
.LBB6947:
	.loc 8 189 0
	fdivs 11,13,11
.LVL796:
	.loc 8 187 0
	fmuls 12,12,0
	.loc 8 189 0
	stfs 11,64(9)
	.loc 8 188 0
	fmuls 0,10,0
.LVL797:
	.loc 8 187 0
	stfs 12,56(9)
	.loc 8 188 0
	stfs 0,60(9)
.LBE6947:
.LBE6950:
.LBE6951:
	.loc 4 1445 0
	addi 1,1,16
.LCFI67:
	.cfi_def_cfa_offset 0
	blr
	.cfi_endproc
.LFE2568:
	.size	_ZN9idFrustum14ConstrainToBoxERK5idBox, .-_ZN9idFrustum14ConstrainToBoxERK5idBox
	.align 2
	.globl _ZN9idFrustum17ConstrainToSphereERK8idSphere
	.type	_ZN9idFrustum17ConstrainToSphereERK8idSphere, @function
_ZN9idFrustum17ConstrainToSphereERK8idSphere:
.LFB2569:
	.loc 4 1454 0
	.cfi_startproc
.LVL798:
.LBB6952:
.LBB6953:
.LBB6954:
.LBB6955:
.LBB6956:
	.loc 3 435 0
	lfs 13,16(3)
.LBE6956:
.LBE6955:
.LBE6954:
.LBE6953:
.LBE6952:
	.loc 4 1454 0
	mr 9,3
.LVL799:
.LBB6987:
.LBB6966:
.LBB6961:
.LBB6959:
.LBB6957:
	.loc 3 435 0
	lfs 0,4(4)
	lfs 12,12(3)
	fmuls 0,13,0
.LBE6957:
.LBE6959:
	lfs 10,0(4)
.LBE6961:
.LBE6966:
.LBB6967:
.LBB6968:
	lfs 11,4(3)
.LBE6968:
.LBE6967:
.LBB6970:
.LBB6962:
	lfs 9,8(4)
	fmadds 0,12,10,0
.LBE6962:
.LBE6970:
	lfs 10,0(3)
.LBB6971:
.LBB6969:
	fmuls 11,13,11
.LBE6969:
.LBE6971:
.LBB6972:
.LBB6963:
.LBB6960:
.LBB6958:
	lfs 13,20(3)
.LVL800:
.LBE6958:
.LBE6960:
	fmadds 0,13,9,0
.LBE6963:
.LBE6972:
	fmadds 12,12,10,11
	lfs 11,8(3)
.LBB6973:
.LBB6964:
	.file 10 "d:/Data/Nintendo/DoomGX/src/idlib/bv/../../idlib/bv/Sphere.h"
	.loc 10 272 0
	lfs 10,12(4)
.LBE6964:
.LBE6973:
	.loc 3 435 0
	fmadds 13,13,11,12
	.loc 4 1459 0
	lfs 11,48(3)
.LBB6974:
.LBB6965:
	.loc 10 272 0
	fadds 0,0,10
.LBE6965:
.LBE6974:
	.loc 4 1458 0
	fsubs 0,0,13
.LVL801:
	.loc 4 1459 0
	fcmpu 7,11,0
	cror 30,29,30
	beq- 7,.L390
.LVL802:
.LBB6975:
.LBB6976:
	.loc 8 185 0
	lfs 13,52(3)
	.loc 8 189 0
	lis 11,.LC4@ha
	lfs 10,.LC4@l(11)
	.loc 8 185 0
	fdivs 13,0,13
.LVL803:
	.loc 8 186 0
	stfs 0,52(3)
	.loc 8 187 0
	lfs 12,56(3)
	.loc 8 188 0
	lfs 11,60(3)
.LBE6976:
.LBE6975:
	.loc 4 1464 0
	li 3,1
.LVL804:
.LBB6978:
.LBB6977:
	.loc 8 189 0
	fdivs 0,10,0
.LVL805:
	.loc 8 187 0
	fmuls 12,12,13
	.loc 8 189 0
	stfs 0,64(9)
	.loc 8 188 0
	fmuls 13,11,13
.LVL806:
	.loc 8 187 0
	stfs 12,56(9)
	.loc 8 188 0
	stfs 13,60(9)
.LBE6977:
.LBE6978:
.LBE6987:
	.loc 4 1465 0
	blr
.LVL807:
.L390:
.LBB6988:
	.loc 4 1460 0
	lis 11,.LC4@ha
.LBB6979:
.LBB6980:
	.loc 8 185 0
	lfs 0,52(3)
.LVL808:
.LBE6980:
.LBE6979:
	.loc 4 1460 0
	lfs 13,.LC4@l(11)
.LBB6984:
.LBB6981:
	.loc 8 187 0
	lfs 12,56(3)
.LBE6981:
.LBE6984:
	.loc 4 1460 0
	fadds 11,11,13
.LVL809:
.LBB6985:
.LBB6982:
	.loc 8 188 0
	lfs 10,60(3)
	.loc 8 185 0
	fdivs 0,11,0
.LVL810:
	.loc 8 186 0
	stfs 11,52(3)
.LBE6982:
.LBE6985:
	.loc 4 1461 0
	li 3,0
.LBB6986:
.LBB6983:
	.loc 8 189 0
	fdivs 11,13,11
.LVL811:
	.loc 8 187 0
	fmuls 12,12,0
	.loc 8 189 0
	stfs 11,64(9)
	.loc 8 188 0
	fmuls 0,10,0
.LVL812:
	.loc 8 187 0
	stfs 12,56(9)
	.loc 8 188 0
	stfs 0,60(9)
.LBE6983:
.LBE6986:
	.loc 4 1461 0
	blr
.LBE6988:
	.cfi_endproc
.LFE2569:
	.size	_ZN9idFrustum17ConstrainToSphereERK8idSphere, .-_ZN9idFrustum17ConstrainToSphereERK8idSphere
	.align 2
	.globl _ZNK9idFrustum8ToPlanesEP7idPlane
	.type	_ZNK9idFrustum8ToPlanesEP7idPlane, @function
_ZNK9idFrustum8ToPlanesEP7idPlane:
.LFB2571:
	.loc 4 1494 0
	.cfi_startproc
.LVL813:
.LBB7055:
.LBB7056:
.LBB7057:
	.loc 3 420 0
	lfs 12,16(3)
.LBE7057:
.LBE7056:
.LBB7061:
.LBB7062:
.LBB7063:
.LBB7064:
.LBB7065:
	.loc 3 572 0
	li 8,4
.LBE7065:
.LBE7064:
.LBE7063:
.LBE7062:
.LBE7061:
.LBB7138:
.LBB7058:
	.loc 3 420 0
	lfs 0,20(3)
.LBE7058:
.LBE7138:
.LBB7139:
.LBB7125:
.LBB7092:
.LBB7083:
.LBB7074:
	.loc 3 536 0
	lis 7,.LC0@ha
.LBE7074:
.LBE7083:
.LBE7092:
.LBE7125:
.LBE7139:
.LBB7140:
.LBB7059:
	.loc 3 420 0
	lfs 13,12(3)
	fneg 12,12
	fneg 0,0
.LBE7059:
.LBE7140:
.LBE7055:
	.loc 4 1494 0
	stwu 1,-104(1)
.LCFI68:
	.cfi_def_cfa_offset 104
.LBB7248:
.LBB7141:
.LBB7060:
	.loc 3 420 0
	fneg 13,13
.LVL814:
.LBE7060:
.LBE7141:
.LBB7142:
.LBB7126:
.LBB7093:
.LBB7084:
.LBB7075:
	.loc 3 572 0
	mtctr 8
.LBE7075:
.LBE7084:
.LBE7093:
.LBE7126:
.LBE7142:
.LBB7143:
.LBB7144:
	.loc 3 425 0
	stfs 12,4(4)
.LBE7144:
.LBE7143:
.LBB7146:
.LBB7127:
.LBB7094:
.LBB7095:
.LBB7096:
.LBB7097:
	.loc 6 275 0
	lis 8,.LC1@ha
.LBE7097:
.LBE7096:
.LBE7095:
.LBE7094:
.LBE7127:
.LBE7146:
.LBB7147:
.LBB7145:
	.loc 3 426 0
	stfs 0,8(4)
	lis 12,_ZN6idMath5iSqrtE@ha
	.loc 3 424 0
	stfs 13,0(4)
.LBE7145:
.LBE7147:
.LBB7148:
.LBB7149:
	.loc 3 426 0
	mr 9,4
.LBE7149:
.LBE7148:
.LBE7248:
	.loc 4 1494 0
	stfd 29,80(1)
.LBB7249:
.LBB7155:
.LBB7150:
	.loc 4 1511 0
	li 10,0
.LBE7150:
.LBE7155:
	.loc 4 1500 0
	lwz 0,48(3)
.LVL815:
	addi 11,1,8
.LBE7249:
	.loc 4 1494 0
	stfd 30,88(1)
	la 12,_ZN6idMath5iSqrtE@l(12)
.LBB7250:
.LBB7156:
.LBB7157:
	.file 11 "d:/Data/Nintendo/DoomGX/src/idlib/bv/../../idlib/math/Plane.h"
	.loc 11 276 0
	stw 0,12(4)
.LVL816:
.LBE7157:
.LBE7156:
.LBE7250:
	.loc 4 1494 0
	stfd 31,96(1)
.LBB7251:
.LBB7158:
.LBB7159:
	.loc 3 424 0
	lwz 0,12(3)
.LBE7159:
.LBE7158:
.LBE7251:
	.loc 4 1494 0
	stw 30,72(1)
.LBB7252:
.LBB7163:
.LBB7128:
.LBB7112:
.LBB7085:
.LBB7076:
	.loc 3 572 0
	lis 30,.LC19@ha
	.cfi_offset 30, -32
	.cfi_offset 63, -8
	.cfi_offset 62, -16
	.cfi_offset 61, -24
.LBE7076:
.LBE7085:
.LBE7112:
.LBE7128:
.LBE7163:
.LBB7164:
.LBB7160:
	.loc 3 424 0
	stw 0,16(4)
.LBE7160:
.LBE7164:
.LBE7252:
	.loc 4 1494 0
	stw 31,76(1)
.LBB7253:
.LBB7165:
.LBB7129:
.LBB7113:
.LBB7086:
.LBB7077:
	.loc 3 580 0
	lis 31,.LC4@ha
	.cfi_offset 31, -28
.LBE7077:
.LBE7086:
.LBE7113:
.LBE7129:
.LBE7165:
.LBB7166:
.LBB7161:
	.loc 3 425 0
	lwz 0,16(3)
.LBE7161:
.LBE7166:
.LBB7167:
.LBB7130:
.LBB7114:
.LBB7087:
.LBB7078:
	.loc 3 536 0
	lfs 11,.LC0@l(7)
.LBE7078:
.LBE7087:
.LBE7114:
.LBE7130:
.LBE7167:
.LBB7168:
.LBB7162:
	.loc 3 425 0
	stw 0,20(4)
	.loc 3 426 0
	lwz 0,20(3)
	stw 0,24(4)
.LVL817:
.LBE7162:
.LBE7168:
.LBB7169:
.LBB7170:
	.loc 11 276 0
	lfs 0,52(3)
.LVL818:
	fneg 0,0
	stfs 0,28(4)
.LVL819:
.LBE7170:
.LBE7169:
	.loc 4 1504 0
	lfs 0,56(3)
.LVL820:
	.loc 4 1505 0
	lfs 12,60(3)
.LVL821:
.LBB7171:
.LBB7172:
	.loc 3 439 0
	lfs 10,44(3)
.LBE7172:
.LBE7171:
.LBB7176:
.LBB7177:
	.loc 4 1494 0
	fneg 13,0
.LBE7177:
.LBE7176:
.LBB7183:
.LBB7173:
	.loc 3 439 0
	lfs 7,36(3)
	lfs 9,40(3)
	fmuls 7,12,7
.LBE7173:
.LBE7183:
.LBB7184:
.LBB7185:
	lfs 6,24(3)
.LBE7185:
.LBE7184:
.LBB7188:
.LBB7174:
	fmuls 9,12,9
.LBE7174:
.LBE7188:
.LBB7189:
.LBB7186:
	lfs 8,28(3)
.LBE7186:
.LBE7189:
.LBB7190:
.LBB7175:
	fmuls 12,12,10
.LBE7175:
.LBE7190:
.LBB7191:
.LBB7187:
	lfs 10,32(3)
.LVL822:
.LBE7187:
.LBE7191:
.LBB7192:
.LBB7193:
	.loc 3 452 0
	fmadds 29,0,6,7
.LBE7193:
.LBE7192:
.LBB7197:
.LBB7198:
	.loc 3 431 0
	fmsubs 5,13,8,9
.LBE7198:
.LBE7197:
.LBB7203:
.LBB7194:
	.loc 3 452 0
	fmadds 30,0,8,9
	fmadds 31,0,10,12
	.loc 3 424 0
	stfs 29,8(1)
.LBE7194:
.LBE7203:
.LBB7204:
.LBB7178:
	.loc 3 452 0
	fmadds 1,13,6,7
.LBE7178:
.LBE7204:
.LBB7205:
.LBB7199:
	.loc 3 431 0
	fmsubs 4,13,6,7
.LBE7199:
.LBE7205:
.LBB7206:
.LBB7195:
	.loc 3 425 0
	stfs 30,12(1)
.LBE7195:
.LBE7206:
.LBB7207:
.LBB7179:
	.loc 3 452 0
	fmadds 2,13,8,9
.LBE7179:
.LBE7207:
.LBB7208:
.LBB7196:
	.loc 3 426 0
	stfs 31,16(1)
.LBE7196:
.LBE7208:
.LBB7209:
.LBB7151:
	.loc 3 431 0
	fmsubs 7,0,6,7
.LVL823:
.LBE7151:
.LBE7209:
.LBB7210:
.LBB7200:
	.loc 3 425 0
	stfs 5,36(1)
.LBE7200:
.LBE7210:
.LBB7211:
.LBB7180:
	.loc 3 452 0
	fmadds 3,13,10,12
.LBE7180:
.LBE7211:
.LBB7212:
.LBB7131:
.LBB7115:
.LBB7106:
.LBB7102:
.LBB7098:
	.loc 6 275 0
	lfs 5,.LC1@l(8)
.LBE7098:
.LBE7102:
.LBE7106:
.LBE7115:
.LBE7131:
.LBE7212:
.LBB7213:
.LBB7152:
	.loc 3 431 0
	fmsubs 9,0,8,9
.LVL824:
.LBE7152:
.LBE7213:
.LBB7214:
.LBB7132:
.LBB7116:
.LBB7107:
.LBB7103:
.LBB7099:
	.loc 6 278 0
	lis 8,.LC3@ha
.LBE7099:
.LBE7103:
.LBE7107:
.LBE7116:
.LBE7132:
.LBE7214:
.LBB7215:
.LBB7201:
	.loc 3 431 0
	fmsubs 13,13,10,12
.LVL825:
.LBE7201:
.LBE7215:
.LBB7216:
.LBB7181:
	.loc 3 424 0
	stfs 1,20(1)
.LBE7181:
.LBE7216:
.LBB7217:
.LBB7153:
	.loc 3 431 0
	fmsubs 0,0,10,12
.LBE7153:
.LBE7217:
.LBB7218:
.LBB7182:
	.loc 3 425 0
	stfs 2,24(1)
	.loc 3 426 0
	stfs 3,28(1)
.LVL826:
.LBE7182:
.LBE7218:
.LBB7219:
.LBB7202:
	.loc 3 424 0
	stfs 4,32(1)
	.loc 3 426 0
	stfs 13,40(1)
.LVL827:
.LBE7202:
.LBE7219:
.LBB7220:
.LBB7154:
	.loc 3 424 0
	stfs 7,44(1)
	.loc 3 425 0
	stfs 9,48(1)
	.loc 3 426 0
	stfs 0,52(1)
.LVL828:
.LBE7154:
.LBE7220:
.LBB7221:
.LBB7133:
.LBB7117:
.LBB7108:
.LBB7104:
.LBB7100:
	.loc 6 278 0
	lfs 6,.LC3@l(8)
.LVL829:
.L407:
.LBE7100:
.LBE7104:
.LBE7108:
.LBE7117:
.LBE7133:
.LBE7221:
	.loc 4 1512 0 discriminator 2
	addi 6,10,1
	mulli 0,10,12
	rlwinm 7,6,0,30,31
	mulli 7,7,12
	add 10,11,0
.LBB7222:
.LBB7223:
	.loc 3 431 0 discriminator 2
	lfs 8,8(10)
.LBE7223:
.LBE7222:
	.loc 4 1512 0 discriminator 2
	add 8,11,7
.LVL830:
.LBB7226:
.LBB7224:
	.loc 3 431 0 discriminator 2
	lfsx 9,11,0
	lfs 12,8(8)
	lfs 10,4(10)
	fsubs 12,12,8
.LVL831:
	lfsx 13,11,7
	lfs 0,4(8)
	fsubs 13,13,9
.LVL832:
	fsubs 0,0,10
.LVL833:
.LBE7224:
.LBE7226:
.LBB7227:
.LBB7228:
	.loc 3 620 0 discriminator 2
	fmuls 3,9,12
	fmuls 4,13,10
	fmuls 7,0,8
.LBE7228:
.LBE7227:
.LBB7229:
.LBB7225:
	fmsubs 13,13,8,3
.LVL834:
	fmsubs 0,9,0,4
.LVL835:
	fmsubs 12,10,12,7
.LVL836:
.LBE7225:
.LBE7229:
.LBB7230:
.LBB7134:
.LBB7118:
.LBB7109:
	.loc 3 649 0 discriminator 2
	fmuls 10,13,13
.LBE7109:
.LBE7118:
.LBE7134:
.LBE7230:
.LBB7231:
.LBB7232:
	.loc 3 425 0 discriminator 2
	stfs 13,36(9)
	.loc 3 426 0 discriminator 2
	stfs 0,40(9)
.LVL837:
	.loc 3 424 0 discriminator 2
	stfs 12,32(9)
	.loc 3 649 0 discriminator 2
	fmadds 10,12,12,10
	fmadds 10,0,0,10
	stfs 10,56(1)
.LVL838:
.LBE7232:
.LBE7231:
.LBB7233:
.LBB7135:
.LBB7119:
.LBB7110:
.LBB7105:
.LBB7101:
	.loc 6 275 0 discriminator 2
	fmuls 7,10,5
	.loc 6 270 0 discriminator 2
	lwz 8,56(1)
.LVL839:
	.loc 4 1494 0 discriminator 2
	fneg 7,7
	.loc 6 276 0 discriminator 2
	rlwinm 5,8,9,24,31
	rlwinm 8,8,19,21,29
	lwzx 7,12,8
	subfic 8,5,380
	rlwinm 8,8,22,0,8
	or 8,8,7
	.loc 6 277 0 discriminator 2
	stw 8,68(1)
	lfs 10,68(1)
.LVL840:
	fmr 8,10
.LVL841:
	.loc 6 278 0 discriminator 2
	fmul 9,8,8
	fmadd 9,7,9,6
	fmul 9,8,9
.LVL842:
	.loc 6 279 0 discriminator 2
	fmul 10,9,9
	fmadd 10,7,10,6
.LVL843:
	fmul 10,9,10
.LVL844:
	.loc 6 280 0 discriminator 2
	frsp 10,10
.LVL845:
.LBE7101:
.LBE7105:
	.loc 3 651 0 discriminator 2
	fmuls 12,12,10
.LVL846:
	.loc 3 652 0 discriminator 2
	fmuls 13,13,10
.LVL847:
	.loc 3 653 0 discriminator 2
	fmuls 10,0,10
	.loc 3 651 0 discriminator 2
	stfs 12,56(1)
.LBE7110:
.LBE7119:
.LBB7120:
.LBB7088:
.LBB7079:
	.loc 3 536 0 discriminator 2
	fcmpu 7,12,11
.LBE7079:
.LBE7088:
.LBE7120:
.LBB7121:
.LBB7111:
	.loc 3 652 0 discriminator 2
	stfs 13,64(1)
	.loc 3 651 0 discriminator 2
	lwz 7,56(1)
	.loc 3 653 0 discriminator 2
	stfs 10,60(1)
	.loc 3 651 0 discriminator 2
	stw 7,32(9)
	.loc 3 652 0 discriminator 2
	lwz 8,64(1)
	.loc 3 653 0 discriminator 2
	lwz 7,60(1)
	.loc 3 652 0 discriminator 2
	stw 8,36(9)
	.loc 3 653 0 discriminator 2
	stw 7,40(9)
.LBE7111:
.LBE7121:
.LBB7122:
.LBB7089:
.LBB7080:
	.loc 3 536 0 discriminator 2
	bne- 7,.L392
	.loc 3 537 0
	fcmpu 7,13,11
	bne- 7,.L393
	.loc 3 538 0
	fcmpu 7,10,11
	bng- 7,.L412
	.loc 3 539 0
	lfs 0,.LC4@l(31)
.LVL848:
	fcmpu 7,10,0
	bne- 7,.L415
.L396:
.LVL849:
.LBE7080:
.LBE7089:
.LBE7122:
.LBE7135:
.LBE7233:
.LBB7234:
.LBB7235:
.LBB7236:
.LBB7237:
	.loc 3 435 0
	lfs 0,4(10)
	lfs 10,64(1)
.LBE7237:
.LBE7236:
	lfsx 12,11,0
.LBB7241:
.LBB7238:
	fmuls 0,10,0
.LBE7238:
.LBE7241:
	lfs 10,56(1)
	lfs 13,8(10)
	fmadds 0,12,10,0
	.loc 11 298 0
	lfs 12,60(1)
	fnmadds 0,13,12,0
	stfs 0,44(9)
.LVL850:
	addi 9,9,16
.LVL851:
.LBE7235:
.LBE7234:
	.loc 4 1511 0
	bdz .L418
.LVL852:
.L408:
	mr 10,6
.LVL853:
	b .L407
.LVL854:
.L412:
.LBB7245:
.LBB7136:
.LBB7123:
.LBB7090:
.LBB7081:
	.loc 3 544 0
	lfs 0,.LC19@l(30)
.LVL855:
	lfs 13,60(1)
	fcmpu 7,13,0
	beq- 7,.L396
.L415:
	.loc 3 545 0
	stfs 0,40(9)
	stfs 0,60(1)
.LVL856:
.LBE7081:
.LBE7090:
.LBE7123:
.LBE7136:
.LBE7245:
.LBB7246:
.LBB7244:
.LBB7242:
.LBB7239:
	.loc 3 435 0
	lfs 10,64(1)
	lfs 0,4(10)
.LBE7239:
.LBE7242:
	lfsx 12,11,0
.LBB7243:
.LBB7240:
	fmuls 0,10,0
.LBE7240:
.LBE7243:
	lfs 10,56(1)
	lfs 13,8(10)
	fmadds 0,12,10,0
	.loc 11 298 0
	lfs 12,60(1)
	fnmadds 0,13,12,0
	stfs 0,44(9)
.LVL857:
	addi 9,9,16
.LVL858:
.LBE7244:
.LBE7246:
	.loc 4 1511 0
	bdnz .L408
.LVL859:
.L418:
.LBE7253:
	.loc 4 1516 0
	lwz 30,72(1)
	lwz 31,76(1)
	lfd 29,80(1)
	lfd 30,88(1)
	lfd 31,96(1)
.LVL860:
	addi 1,1,104
	.cfi_remember_state
.LCFI69:
	.cfi_def_cfa_offset 0
	.cfi_restore 63
	.cfi_restore 62
	.cfi_restore 61
	.cfi_restore 31
	.cfi_restore 30
	blr
.LVL861:
.L392:
.LCFI70:
	.cfi_restore_state
.LBB7254:
.LBB7247:
.LBB7137:
.LBB7124:
.LBB7091:
.LBB7082:
	.loc 3 564 0
	lfs 13,64(1)
	fcmpu 6,13,11
	bne- 6,.L397
	.loc 3 565 0
	lfs 0,60(1)
.LVL862:
	fcmpu 6,0,11
	bne- 6,.L397
	.loc 3 566 0
	bng- 7,.L414
	.loc 3 567 0
	lfs 0,.LC4@l(31)
	lfs 10,56(1)
	fcmpu 7,10,0
	beq- 7,.L396
	.loc 3 573 0
	stfs 0,32(9)
	stfs 0,56(1)
	b .L396
.L397:
.LVL863:
.LBB7066:
.LBB7067:
	.loc 6 781 0
	lwz 7,56(1)
.LBE7067:
.LBE7066:
	.loc 3 580 0
	lfs 0,.LC4@l(31)
.LBB7069:
.LBB7068:
	.loc 6 781 0
	rlwinm 8,7,0,1,31
.LBE7068:
.LBE7069:
	.loc 3 580 0
	stw 8,68(1)
	lfs 10,68(1)
	fcmpu 7,10,0
	bne- 7,.L402
	.loc 3 581 0
	lfs 12,64(1)
	fcmpu 7,12,11
	bne- 7,.L403
	lfs 13,60(1)
	fcmpu 7,13,11
	beq- 7,.L396
.L403:
	.loc 3 582 0
	li 7,0
	stfs 11,40(9)
	stw 7,60(1)
	stfs 11,36(9)
	stw 7,64(1)
	b .L396
.L402:
.LVL864:
.LBB7070:
.LBB7071:
	.loc 6 781 0
	lwz 7,64(1)
	rlwinm 8,7,0,1,31
.LBE7071:
.LBE7070:
	.loc 3 586 0
	stw 8,68(1)
	lfs 10,68(1)
	fcmpu 7,10,0
	bne- 7,.L404
	.loc 3 587 0
	lfs 12,56(1)
	fcmpu 7,12,11
	beq- 7,.L419
	.loc 3 588 0
	li 7,0
	stfs 11,40(9)
	stw 7,60(1)
	stfs 11,32(9)
	stw 7,56(1)
	b .L396
.LVL865:
.L393:
	.loc 3 550 0
	lfs 0,60(1)
	fcmpu 6,0,11
	bne- 6,.L397
	.loc 3 551 0
	bng- 7,.L413
	.loc 3 552 0
	lfs 0,.LC4@l(31)
	lfs 10,64(1)
	fcmpu 7,10,0
	beq- 7,.L396
	.loc 3 558 0
	stfs 0,36(9)
	stfs 0,64(1)
	b .L396
.LVL866:
.L404:
.LBB7072:
.LBB7073:
	.loc 6 781 0
	lwz 7,60(1)
	rlwinm 8,7,0,1,31
.LVL867:
.LBE7073:
.LBE7072:
	.loc 3 592 0
	stw 8,68(1)
	lfs 10,68(1)
	fcmpu 7,10,0
	bne- 7,.L396
	.loc 3 593 0
	lfs 12,56(1)
	fcmpu 7,12,11
	beq- 7,.L420
.L406:
	.loc 3 594 0
	li 7,0
	stfs 11,36(9)
	stw 7,64(1)
	stfs 11,32(9)
	stw 7,56(1)
	b .L396
.LVL868:
.L414:
	.loc 3 572 0
	lfs 0,.LC19@l(30)
	lfs 12,56(1)
	fcmpu 7,12,0
	beq- 7,.L396
	.loc 3 573 0
	stfs 0,32(9)
	stfs 0,56(1)
	b .L396
.L413:
	.loc 3 557 0
	lfs 0,.LC19@l(30)
	lfs 12,64(1)
	fcmpu 7,12,0
	beq- 7,.L396
	.loc 3 558 0
	stfs 0,36(9)
	stfs 0,64(1)
	b .L396
.LVL869:
.L419:
	.loc 3 587 0
	lfs 13,60(1)
	fcmpu 7,13,11
	beq- 7,.L396
	.loc 3 588 0
	li 7,0
	stfs 11,40(9)
	stw 7,60(1)
	stfs 11,32(9)
	stw 7,56(1)
	b .L396
.LVL870:
.L420:
	.loc 3 593 0
	lfs 13,64(1)
	fcmpu 7,13,11
	beq- 7,.L396
	b .L406
.LBE7082:
.LBE7091:
.LBE7124:
.LBE7137:
.LBE7247:
.LBE7254:
	.cfi_endproc
.LFE2571:
	.size	_ZNK9idFrustum8ToPlanesEP7idPlane, .-_ZNK9idFrustum8ToPlanesEP7idPlane
	.align 2
	.globl _ZNK9idFrustum8ToPointsEP6idVec3
	.type	_ZNK9idFrustum8ToPointsEP6idVec3, @function
_ZNK9idFrustum8ToPointsEP6idVec3:
.LFB2572:
	.loc 4 1523 0
	.cfi_startproc
.LVL871:
.LBB7255:
	.loc 4 1526 0
	lfs 13,48(3)
.LVL872:
	.loc 4 1527 0
	lfs 9,56(3)
	lfs 5,64(3)
	fmuls 9,13,9
	.loc 4 1528 0
	lfs 0,60(3)
	.loc 3 452 0
	lfs 10,0(3)
	.loc 4 1528 0
	fmuls 0,13,0
	.loc 3 452 0
	lfs 11,4(3)
	.loc 4 1527 0
	fmuls 9,9,5
	.loc 3 452 0
	lfs 4,20(3)
	lfs 6,12(3)
	lfs 7,16(3)
	.loc 4 1528 0
	fmuls 0,5,0
	.loc 3 452 0
	lfs 12,8(3)
.LBB7256:
.LBB7257:
	.loc 4 1523 0
	fneg 8,9
.LBE7257:
.LBE7256:
	.loc 3 452 0
	fmadds 6,13,6,10
.LBB7261:
.LBB7262:
	.loc 3 439 0
	lfs 3,32(3)
.LBE7262:
.LBE7261:
	.loc 3 452 0
	fmadds 12,13,4,12
.LVL873:
.LBB7265:
.LBB7263:
	.loc 3 439 0
	lfs 10,24(3)
.LBE7263:
.LBE7265:
	.loc 3 452 0
	fmadds 7,13,7,11
.LVL874:
.LBB7266:
.LBB7264:
	.loc 3 439 0
	lfs 11,28(3)
.LVL875:
.LBE7264:
.LBE7266:
.LBB7267:
.LBB7268:
	.loc 4 1523 0
	fneg 13,0
.LBE7268:
.LBE7267:
.LBE7255:
	stwu 1,-24(1)
.LCFI71:
	.cfi_def_cfa_offset 24
.LBB7364:
.LBB7273:
.LBB7258:
	.loc 3 452 0
	fmadds 4,9,10,6
	fmadds 5,9,11,7
.LBE7258:
.LBE7273:
.LBE7364:
	.loc 4 1523 0
	stfd 30,8(1)
.LBB7365:
.LBB7274:
.LBB7259:
	.loc 3 431 0
	fmadds 6,8,10,6
.LVL876:
	.loc 3 439 0
	lfs 10,36(3)
	.loc 3 431 0
	fmadds 7,8,11,7
.LVL877:
	.loc 3 439 0
	lfs 11,40(3)
	.loc 3 452 0
	fmadds 9,9,3,12
.LVL878:
.LBE7259:
.LBE7274:
.LBE7365:
	.loc 4 1523 0
	stfd 31,16(1)
.LBB7366:
.LBB7275:
.LBB7260:
	.loc 3 431 0
	fmadds 8,8,3,12
	.loc 3 439 0
	lfs 12,44(3)
.LVL879:
.LBE7260:
.LBE7275:
.LBB7276:
.LBB7269:
	.loc 3 431 0
	fmadds 30,13,10,6
	.cfi_offset 63, -8
	.cfi_offset 62, -16
	fmadds 31,13,11,7
	fmadds 1,13,12,8
.LBE7269:
.LBE7276:
.LBB7277:
.LBB7278:
	fmadds 2,13,10,4
.LBE7278:
.LBE7277:
.LBB7284:
.LBB7270:
	.loc 3 424 0
	stfs 30,24(4)
.LBE7270:
.LBE7284:
.LBB7285:
.LBB7279:
	.loc 3 431 0
	fmadds 3,13,11,5
.LBE7279:
.LBE7285:
.LBB7286:
.LBB7271:
	.loc 3 425 0
	stfs 31,28(4)
.LBE7271:
.LBE7286:
.LBB7287:
.LBB7280:
	.loc 3 431 0
	fmadds 13,13,12,9
.LBE7280:
.LBE7287:
.LBB7288:
.LBB7272:
	.loc 3 426 0
	stfs 1,32(4)
.LBE7272:
.LBE7288:
.LBB7289:
.LBB7290:
	.loc 3 456 0
	fmadds 4,0,10,4
.LVL880:
.LBE7290:
.LBE7289:
.LBB7296:
.LBB7281:
	.loc 3 424 0
	stfs 2,36(4)
.LBE7281:
.LBE7296:
.LBB7297:
.LBB7291:
	.loc 3 457 0
	fmadds 5,0,11,5
.LVL881:
.LBE7291:
.LBE7297:
.LBB7298:
.LBB7282:
	.loc 3 425 0
	stfs 3,40(4)
.LBE7282:
.LBE7298:
.LBB7299:
.LBB7292:
	.loc 3 458 0
	fmadds 9,0,12,9
.LVL882:
.LBE7292:
.LBE7299:
.LBB7300:
.LBB7283:
	.loc 3 426 0
	stfs 13,44(4)
.LBE7283:
.LBE7300:
.LBB7301:
.LBB7302:
	.loc 3 456 0
	fmadds 10,0,10,6
.LBE7302:
.LBE7301:
.LBB7306:
.LBB7293:
	stfs 4,0(4)
.LBE7293:
.LBE7306:
.LBB7307:
.LBB7303:
	.loc 3 457 0
	fmadds 11,0,11,7
.LBE7303:
.LBE7307:
.LBB7308:
.LBB7294:
	stfs 5,4(4)
.LBE7294:
.LBE7308:
.LBB7309:
.LBB7304:
	.loc 3 458 0
	fmadds 8,0,12,8
.LVL883:
.LBE7304:
.LBE7309:
.LBB7310:
.LBB7295:
	stfs 9,8(4)
.LVL884:
.LBE7295:
.LBE7310:
.LBB7311:
.LBB7305:
	.loc 3 456 0
	stfs 10,12(4)
	.loc 3 457 0
	stfs 11,16(4)
	.loc 3 458 0
	stfs 8,20(4)
.LVL885:
.LBE7305:
.LBE7311:
	.loc 4 1538 0
	lfs 9,56(3)
	.loc 4 1537 0
	lfs 13,52(3)
.LVL886:
	.loc 3 452 0
	lfs 10,0(3)
.LBB7312:
.LBB7313:
	.loc 4 1523 0
	fneg 8,9
.LBE7313:
.LBE7312:
	.loc 3 452 0
	lfs 11,4(3)
	lfs 0,8(3)
.LVL887:
	lfs 6,12(3)
	lfs 7,16(3)
	lfs 12,20(3)
	fmadds 6,13,6,10
	fmadds 7,13,7,11
.LBB7317:
.LBB7318:
	.loc 3 439 0
	lfs 10,24(3)
.LBE7318:
.LBE7317:
	.loc 3 452 0
	fmadds 12,13,12,0
.LVL888:
.LBB7321:
.LBB7319:
	.loc 3 439 0
	lfs 11,28(3)
.LBE7319:
.LBE7321:
	.loc 4 1539 0
	lfs 0,60(3)
.LBB7322:
.LBB7314:
	.loc 3 452 0
	fmadds 4,9,10,6
.LBE7314:
.LBE7322:
.LBB7323:
.LBB7320:
	.loc 3 439 0
	lfs 3,32(3)
.LVL889:
.LBE7320:
.LBE7323:
.LBB7324:
.LBB7315:
	.loc 3 452 0
	fmadds 5,9,11,7
.LBE7315:
.LBE7324:
.LBB7325:
.LBB7326:
	.loc 4 1523 0
	fneg 13,0
.LBE7326:
.LBE7325:
.LBB7331:
.LBB7316:
	.loc 3 452 0
	fmadds 9,9,3,12
	.loc 3 431 0
	fmadds 6,8,10,6
.LVL890:
	.loc 3 439 0
	lfs 10,36(3)
	.loc 3 431 0
	fmadds 7,8,11,7
.LVL891:
	.loc 3 439 0
	lfs 11,40(3)
	.loc 3 431 0
	fmadds 8,8,3,12
	.loc 3 439 0
	lfs 12,44(3)
.LVL892:
.LBE7316:
.LBE7331:
.LBB7332:
.LBB7327:
	.loc 3 431 0
	fmadds 30,13,10,6
	fmadds 31,13,11,7
.LBE7327:
.LBE7332:
.LBB7333:
.LBB7334:
	fmadds 2,13,10,4
	fmadds 3,13,11,5
.LBE7334:
.LBE7333:
.LBB7339:
.LBB7328:
	.loc 3 424 0
	stfs 30,72(4)
	.loc 3 431 0
	fmadds 1,13,12,8
.LBE7328:
.LBE7339:
.LBE7366:
	.loc 4 1547 0
	lfd 30,8(1)
.LBB7367:
.LBB7340:
.LBB7335:
	.loc 3 431 0
	fmadds 13,13,12,9
.LBE7335:
.LBE7340:
.LBB7341:
.LBB7329:
	.loc 3 425 0
	stfs 31,76(4)
.LBE7329:
.LBE7341:
.LBB7342:
.LBB7343:
	.loc 3 456 0
	fmadds 4,0,10,4
.LVL893:
.LBE7343:
.LBE7342:
.LBE7367:
	.loc 4 1547 0
	lfd 31,16(1)
.LBB7368:
.LBB7348:
.LBB7344:
	.loc 3 457 0
	fmadds 5,0,11,5
.LVL894:
.LBE7344:
.LBE7348:
.LBE7368:
	.loc 4 1547 0
.LBB7369:
.LBB7349:
.LBB7345:
	.loc 3 458 0
	fmadds 9,0,12,9
.LVL895:
.LBE7345:
.LBE7349:
.LBB7350:
.LBB7330:
	.loc 3 426 0
	stfs 1,80(4)
.LBE7330:
.LBE7350:
.LBB7351:
.LBB7352:
	.loc 3 456 0
	fmadds 10,0,10,6
.LBE7352:
.LBE7351:
.LBB7356:
.LBB7336:
	.loc 3 424 0
	stfs 2,84(4)
.LBE7336:
.LBE7356:
.LBB7357:
.LBB7353:
	.loc 3 457 0
	fmadds 11,0,11,7
.LVL896:
.LBE7353:
.LBE7357:
.LBB7358:
.LBB7337:
	.loc 3 425 0
	stfs 3,88(4)
.LBE7337:
.LBE7358:
.LBB7359:
.LBB7354:
	.loc 3 458 0
	fmadds 8,0,12,8
.LVL897:
.LBE7354:
.LBE7359:
.LBB7360:
.LBB7338:
	.loc 3 426 0
	stfs 13,92(4)
.LVL898:
.LBE7338:
.LBE7360:
.LBB7361:
.LBB7346:
	.loc 3 456 0
	stfs 4,48(4)
.LBE7346:
.LBE7361:
.LBE7369:
	.loc 4 1547 0
	addi 1,1,24
.LCFI72:
	.cfi_def_cfa_offset 0
	.cfi_restore 63
	.cfi_restore 62
.LBB7370:
.LBB7362:
.LBB7347:
	.loc 3 457 0
	stfs 5,52(4)
	.loc 3 458 0
	stfs 9,56(4)
.LVL899:
.LBE7347:
.LBE7362:
.LBB7363:
.LBB7355:
	.loc 3 456 0
	stfs 10,60(4)
	.loc 3 457 0
	stfs 11,64(4)
	.loc 3 458 0
	stfs 8,68(4)
.LBE7355:
.LBE7363:
.LBE7370:
	.loc 4 1547 0
	blr
	.cfi_endproc
.LFE2572:
	.size	_ZNK9idFrustum8ToPointsEP6idVec3, .-_ZNK9idFrustum8ToPointsEP6idVec3
	.align 2
	.globl _ZNK9idFrustum15ToClippedPointsEPKfP6idVec3
	.type	_ZNK9idFrustum15ToClippedPointsEPKfP6idVec3, @function
_ZNK9idFrustum15ToClippedPointsEPKfP6idVec3:
.LFB2573:
	.loc 4 1554 0
	.cfi_startproc
.LVL900:
.LBB7371:
	.loc 4 1557 0
	lfs 13,48(3)
.LVL901:
	.loc 4 1558 0
	lfs 9,56(3)
	lfs 5,64(3)
	fmuls 9,13,9
	.loc 4 1559 0
	lfs 0,60(3)
	.loc 3 452 0
	lfs 10,0(3)
	.loc 4 1559 0
	fmuls 0,13,0
	.loc 3 452 0
	lfs 11,4(3)
	.loc 4 1558 0
	fmuls 9,9,5
	.loc 3 452 0
	lfs 4,20(3)
	lfs 6,12(3)
	lfs 7,16(3)
	.loc 4 1559 0
	fmuls 0,5,0
	.loc 3 452 0
	lfs 12,8(3)
.LBB7372:
.LBB7373:
	.loc 4 1554 0
	fneg 8,9
.LBE7373:
.LBE7372:
	.loc 3 452 0
	fmadds 6,13,6,10
.LBB7377:
.LBB7378:
	.loc 3 439 0
	lfs 3,32(3)
.LBE7378:
.LBE7377:
	.loc 3 452 0
	fmadds 12,13,4,12
.LVL902:
.LBB7381:
.LBB7379:
	.loc 3 439 0
	lfs 10,24(3)
.LBE7379:
.LBE7381:
	.loc 3 452 0
	fmadds 7,13,7,11
.LVL903:
.LBB7382:
.LBB7380:
	.loc 3 439 0
	lfs 11,28(3)
.LVL904:
.LBE7380:
.LBE7382:
.LBB7383:
.LBB7384:
	.loc 4 1554 0
	fneg 13,0
.LBE7384:
.LBE7383:
.LBE7371:
	stwu 1,-32(1)
.LCFI73:
	.cfi_def_cfa_offset 32
.LBB7488:
.LBB7390:
.LBB7374:
	.loc 3 452 0
	fmadds 4,9,10,6
	fmadds 5,9,11,7
.LBE7374:
.LBE7390:
.LBE7488:
	.loc 4 1554 0
	stfd 30,16(1)
.LBB7489:
.LBB7391:
.LBB7375:
	.loc 3 431 0
	fmadds 6,8,10,6
.LVL905:
	.loc 3 439 0
	lfs 10,36(3)
	.loc 3 431 0
	fmadds 7,8,11,7
.LVL906:
	.loc 3 439 0
	lfs 11,40(3)
	.loc 3 452 0
	fmadds 9,9,3,12
.LVL907:
.LBE7375:
.LBE7391:
.LBE7489:
	.loc 4 1554 0
	stfd 31,24(1)
.LBB7490:
.LBB7392:
.LBB7376:
	.loc 3 431 0
	fmadds 8,8,3,12
	.loc 3 439 0
	lfs 12,44(3)
.LVL908:
.LBE7376:
.LBE7392:
.LBB7393:
.LBB7385:
	.loc 3 431 0
	fmadds 30,13,10,6
	.cfi_offset 63, -8
	.cfi_offset 62, -16
.LBE7385:
.LBE7393:
.LBE7490:
	.loc 4 1554 0
	stfd 29,8(1)
.LBB7491:
.LBB7394:
.LBB7386:
	.loc 3 431 0
	fmadds 31,13,11,7
	fmadds 1,13,12,8
.LBE7386:
.LBE7394:
.LBB7395:
.LBB7396:
	fmadds 2,13,10,4
.LBE7396:
.LBE7395:
.LBB7402:
.LBB7387:
	.loc 3 424 0
	stfs 30,24(5)
.LBE7387:
.LBE7402:
.LBB7403:
.LBB7397:
	.loc 3 431 0
	fmadds 3,13,11,5
.LBE7397:
.LBE7403:
.LBB7404:
.LBB7388:
	.loc 3 425 0
	stfs 31,28(5)
.LBE7388:
.LBE7404:
.LBB7405:
.LBB7398:
	.loc 3 431 0
	fmadds 13,13,12,9
.LBE7398:
.LBE7405:
.LBB7406:
.LBB7389:
	.loc 3 426 0
	stfs 1,32(5)
.LBE7389:
.LBE7406:
.LBB7407:
.LBB7408:
	.loc 3 456 0
	fmadds 4,0,10,4
.LVL909:
.LBE7408:
.LBE7407:
.LBB7414:
.LBB7399:
	.loc 3 424 0
	stfs 2,36(5)
.LBE7399:
.LBE7414:
.LBB7415:
.LBB7409:
	.loc 3 457 0
	fmadds 5,0,11,5
.LVL910:
.LBE7409:
.LBE7415:
.LBB7416:
.LBB7400:
	.loc 3 425 0
	stfs 3,40(5)
.LBE7400:
.LBE7416:
.LBB7417:
.LBB7410:
	.loc 3 458 0
	fmadds 9,0,12,9
.LVL911:
.LBE7410:
.LBE7417:
.LBB7418:
.LBB7401:
	.loc 3 426 0
	stfs 13,44(5)
.LBE7401:
.LBE7418:
.LBB7419:
.LBB7420:
	.loc 3 456 0
	fmadds 10,0,10,6
.LBE7420:
.LBE7419:
.LBB7424:
.LBB7411:
	stfs 4,0(5)
.LBE7411:
.LBE7424:
.LBB7425:
.LBB7421:
	.loc 3 457 0
	fmadds 11,0,11,7
.LBE7421:
.LBE7425:
.LBB7426:
.LBB7412:
	stfs 5,4(5)
.LBE7412:
.LBE7426:
.LBB7427:
.LBB7422:
	.loc 3 458 0
	fmadds 8,0,12,8
.LVL912:
.LBE7422:
.LBE7427:
.LBB7428:
.LBB7413:
	stfs 9,8(5)
.LVL913:
.LBE7413:
.LBE7428:
.LBB7429:
.LBB7423:
	.loc 3 456 0
	stfs 10,12(5)
	.loc 3 457 0
	stfs 11,16(5)
	.loc 3 458 0
	stfs 8,20(5)
.LVL914:
.LBE7423:
.LBE7429:
	.loc 4 1569 0
	lfs 0,56(3)
.LVL915:
.LBB7430:
.LBB7431:
	.loc 3 439 0
	lfs 8,24(3)
	lfs 29,28(3)
	.cfi_offset 61, -24
	lfs 11,32(3)
	fmuls 8,0,8
	fmuls 29,0,29
.LBE7431:
.LBE7430:
	.loc 4 1568 0
	lfs 12,52(3)
.LVL916:
.LBB7433:
.LBB7432:
	.loc 3 439 0
	fmuls 11,0,11
.LBE7432:
.LBE7433:
.LBB7434:
.LBB7435:
	lfs 9,12(3)
.LBE7435:
.LBE7434:
	.loc 4 1570 0
	lfs 0,60(3)
.LBB7438:
.LBB7436:
	.loc 3 439 0
	lfs 10,16(3)
.LBE7436:
.LBE7438:
.LBB7439:
.LBB7440:
	.loc 3 452 0
	fmadds 1,12,9,8
.LBE7440:
.LBE7439:
.LBB7442:
.LBB7437:
	.loc 3 439 0
	lfs 7,20(3)
.LVL917:
.LBE7437:
.LBE7442:
.LBB7443:
.LBB7441:
	.loc 4 1554 0
	fneg 13,0
	.loc 3 452 0
	fmadds 30,12,10,29
	fmadds 31,12,7,11
	.loc 3 431 0
	fmsubs 8,12,9,8
.LVL918:
	.loc 3 439 0
	lfs 9,36(3)
	.loc 3 431 0
	fmsubs 29,12,10,29
.LVL919:
	.loc 3 439 0
	lfs 10,40(3)
	.loc 3 431 0
	fmsubs 12,12,7,11
	.loc 3 439 0
	lfs 11,44(3)
.LVL920:
	.loc 3 431 0
	fmadds 4,13,9,8
	fmadds 2,13,10,29
	fmadds 3,13,11,12
.LVL921:
.LBE7441:
.LBE7443:
.LBB7444:
.LBB7445:
	fmadds 6,13,9,1
	.loc 3 424 0
	stfs 4,72(5)
	.loc 3 431 0
	fmadds 5,13,10,30
	.loc 3 425 0
	stfs 2,76(5)
	.loc 3 431 0
	fmadds 13,13,11,31
	.loc 3 426 0
	stfs 3,80(5)
.LVL922:
.LBE7445:
.LBE7444:
.LBB7446:
.LBB7447:
	.loc 3 456 0
	fmadds 1,0,9,1
.LVL923:
	.loc 3 424 0
	stfs 6,84(5)
.LBE7447:
.LBE7446:
.LBB7450:
.LBB7451:
	.loc 3 457 0
	fmadds 30,0,10,30
.LVL924:
.LBE7451:
.LBE7450:
.LBB7456:
.LBB7448:
	.loc 3 425 0
	stfs 5,88(5)
.LBE7448:
.LBE7456:
.LBB7457:
.LBB7452:
	.loc 3 458 0
	fmadds 31,0,11,31
.LVL925:
.LBE7452:
.LBE7457:
.LBB7458:
.LBB7449:
	.loc 3 426 0
	stfs 13,92(5)
.LVL926:
.LBE7449:
.LBE7458:
.LBB7459:
.LBB7453:
	.loc 3 456 0
	fmadds 9,0,9,8
	stfs 1,48(5)
.LBE7453:
.LBE7459:
.LBB7460:
.LBB7461:
	.loc 3 457 0
	fmadds 10,0,10,29
.LBE7461:
.LBE7460:
.LBB7464:
.LBB7454:
	stfs 30,52(5)
.LBE7454:
.LBE7464:
.LBB7465:
.LBB7462:
	.loc 3 458 0
	fmadds 0,0,11,12
.LBE7462:
.LBE7465:
.LBB7466:
.LBB7455:
	stfs 31,56(5)
.LBE7455:
.LBE7466:
.LBB7467:
.LBB7463:
	.loc 3 456 0
	stfs 9,60(5)
	.loc 3 457 0
	stfs 10,64(5)
	.loc 3 458 0
	stfs 0,68(5)
.LBE7463:
.LBE7467:
	.loc 4 1579 0
	lfs 7,0(4)
.LVL927:
	.loc 3 452 0
	lfs 8,4(3)
	lfs 11,8(3)
.LBB7468:
.LBB7469:
	lfs 12,0(3)
.LVL928:
.LBE7469:
.LBE7468:
	fmadds 30,7,30,8
.LVL929:
	fmadds 31,7,31,11
.LVL930:
.LBB7471:
.LBB7470:
	fmadds 7,7,1,12
	.loc 3 425 0
	stfs 30,52(5)
	.loc 3 426 0
	stfs 31,56(5)
	.loc 3 424 0
	stfs 7,48(5)
.LBE7470:
.LBE7471:
	.loc 4 1580 0
	lfs 8,4(4)
.LVL931:
	.loc 3 452 0
	lfs 12,4(3)
	lfs 11,8(3)
.LBB7472:
.LBB7473:
	lfs 7,0(3)
.LBE7473:
.LBE7472:
	fmadds 10,8,10,12
.LVL932:
	fmadds 0,8,0,11
.LVL933:
.LBB7475:
.LBB7474:
	fmadds 9,8,9,7
.LVL934:
	.loc 3 425 0
	stfs 10,64(5)
	.loc 3 426 0
	stfs 0,68(5)
	.loc 3 424 0
	stfs 9,60(5)
.LBE7474:
.LBE7475:
	.loc 4 1581 0
	lfs 12,8(4)
.LVL935:
	.loc 3 452 0
	lfs 10,4(3)
.LVL936:
	lfs 11,8(3)
.LBB7476:
.LBB7477:
	lfs 0,0(3)
.LVL937:
.LBE7477:
.LBE7476:
	fmadds 2,12,2,10
.LVL938:
	fmadds 3,12,3,11
.LVL939:
.LBB7479:
.LBB7478:
	fmadds 12,12,4,0
	.loc 3 425 0
	stfs 2,76(5)
	.loc 3 426 0
	stfs 3,80(5)
	.loc 3 424 0
	stfs 12,72(5)
.LBE7478:
.LBE7479:
	.loc 4 1582 0
	lfs 0,12(4)
.LVL940:
	.loc 3 452 0
	lfs 10,4(3)
	lfs 11,8(3)
.LBB7480:
.LBB7481:
	lfs 12,0(3)
.LBE7481:
.LBE7480:
	fmadds 5,0,5,10
.LVL941:
	fmadds 13,0,13,11
.LVL942:
.LBB7485:
.LBB7482:
	fmadds 0,0,6,12
	.loc 3 424 0
	stfs 0,84(5)
.LBE7482:
.LBE7485:
.LBE7491:
	.loc 4 1583 0
	lfd 29,8(1)
	lfd 30,16(1)
	lfd 31,24(1)
.LVL943:
.LBB7492:
.LBB7486:
.LBB7483:
	.loc 3 425 0
	stfs 5,88(5)
.LBE7483:
.LBE7486:
.LBE7492:
	.loc 4 1583 0
	addi 1,1,32
.LCFI74:
	.cfi_def_cfa_offset 0
	.cfi_restore 63
	.cfi_restore 62
	.cfi_restore 61
.LBB7493:
.LBB7487:
.LBB7484:
	.loc 3 426 0
	stfs 13,92(5)
.LBE7484:
.LBE7487:
.LBE7493:
	.loc 4 1583 0
	blr
	.cfi_endproc
.LFE2573:
	.size	_ZNK9idFrustum15ToClippedPointsEPKfP6idVec3, .-_ZNK9idFrustum15ToClippedPointsEPKfP6idVec3
	.align 2
	.globl _ZNK9idFrustum13ToIndexPointsEP6idVec3
	.type	_ZNK9idFrustum13ToIndexPointsEP6idVec3, @function
_ZNK9idFrustum13ToIndexPointsEP6idVec3:
.LFB2574:
	.loc 4 1590 0
	.cfi_startproc
.LVL944:
.LBB7494:
	.loc 4 1593 0
	lfs 12,48(3)
.LVL945:
	.loc 4 1594 0
	lfs 8,56(3)
	lfs 7,64(3)
	fmuls 8,12,8
	.loc 4 1595 0
	lfs 0,60(3)
	.loc 3 452 0
	lfs 9,0(3)
	.loc 4 1595 0
	fmuls 0,12,0
	.loc 3 452 0
	lfs 10,4(3)
	.loc 4 1594 0
	fmuls 8,8,7
	.loc 3 452 0
	lfs 11,20(3)
	lfs 13,8(3)
	lfs 5,12(3)
	.loc 4 1595 0
	fmuls 0,7,0
	.loc 3 452 0
	lfs 6,16(3)
.LBB7495:
.LBB7496:
	.loc 4 1590 0
	fneg 7,8
.LBE7496:
.LBE7495:
	.loc 3 452 0
	fmadds 5,12,5,9
.LBB7500:
.LBB7501:
	.loc 3 439 0
	lfs 9,24(3)
.LBE7501:
.LBE7500:
	.loc 3 452 0
	fmadds 6,12,6,10
.LBB7504:
.LBB7502:
	.loc 3 439 0
	lfs 10,28(3)
.LBE7502:
.LBE7504:
	.loc 3 452 0
	fmadds 12,12,11,13
.LVL946:
.LBB7505:
.LBB7503:
	.loc 3 439 0
	lfs 11,32(3)
.LVL947:
.LBE7503:
.LBE7505:
.LBB7506:
.LBB7507:
	.loc 4 1590 0
	fneg 13,0
.LBE7507:
.LBE7506:
.LBE7494:
	stwu 1,-24(1)
.LCFI75:
	.cfi_def_cfa_offset 24
.LBB7605:
.LBB7514:
.LBB7497:
	.loc 3 431 0
	fmadds 3,7,9,5
	fmadds 4,7,10,6
.LBE7497:
.LBE7514:
.LBE7605:
	.loc 4 1590 0
	stfd 30,8(1)
.LBB7606:
.LBB7515:
.LBB7498:
	.loc 3 452 0
	fmadds 5,8,9,5
.LVL948:
	.loc 3 439 0
	lfs 9,36(3)
	.loc 3 452 0
	fmadds 6,8,10,6
.LVL949:
	.loc 3 439 0
	lfs 10,40(3)
	.loc 3 431 0
	fmadds 7,7,11,12
.LBE7498:
.LBE7515:
.LBE7606:
	.loc 4 1590 0
	stfd 31,16(1)
.LBB7607:
.LBB7516:
.LBB7499:
	.loc 3 452 0
	fmadds 8,8,11,12
.LVL950:
	.loc 3 439 0
	lfs 11,44(3)
.LVL951:
.LBE7499:
.LBE7516:
.LBB7517:
.LBB7518:
	.loc 3 452 0
	fmadds 30,0,9,3
	.cfi_offset 63, -8
	.cfi_offset 62, -16
	fmadds 31,0,10,4
	fmadds 1,0,11,7
.LBE7518:
.LBE7517:
.LBB7522:
.LBB7523:
	fmadds 2,0,9,5
.LBE7523:
.LBE7522:
.LBB7529:
.LBB7519:
	.loc 3 424 0
	stfs 30,12(4)
.LBE7519:
.LBE7529:
.LBB7530:
.LBB7524:
	.loc 3 452 0
	fmadds 12,0,10,6
.LVL952:
.LBE7524:
.LBE7530:
.LBB7531:
.LBB7520:
	.loc 3 425 0
	stfs 31,16(4)
.LBE7520:
.LBE7531:
.LBB7532:
.LBB7525:
	.loc 3 452 0
	fmadds 0,0,11,8
.LVL953:
.LBE7525:
.LBE7532:
.LBB7533:
.LBB7521:
	.loc 3 426 0
	stfs 1,20(4)
.LBE7521:
.LBE7533:
.LBB7534:
.LBB7508:
	.loc 3 481 0
	fmadds 3,13,9,3
.LVL954:
.LBE7508:
.LBE7534:
.LBB7535:
.LBB7526:
	.loc 3 424 0
	stfs 2,36(4)
.LBE7526:
.LBE7535:
.LBB7536:
.LBB7509:
	.loc 3 482 0
	fmadds 4,13,10,4
.LVL955:
.LBE7509:
.LBE7536:
.LBB7537:
.LBB7527:
	.loc 3 425 0
	stfs 12,40(4)
.LBE7527:
.LBE7537:
.LBB7538:
.LBB7510:
	.loc 3 483 0
	fmadds 7,13,11,7
.LVL956:
.LBE7510:
.LBE7538:
.LBB7539:
.LBB7528:
	.loc 3 426 0
	stfs 0,44(4)
.LBE7528:
.LBE7539:
.LBB7540:
.LBB7541:
	.loc 3 481 0
	fmadds 9,13,9,5
.LBE7541:
.LBE7540:
.LBB7545:
.LBB7511:
	stfs 3,0(4)
.LBE7511:
.LBE7545:
.LBB7546:
.LBB7542:
	.loc 3 482 0
	fmadds 10,13,10,6
.LBE7542:
.LBE7546:
.LBB7547:
.LBB7512:
	stfs 4,4(4)
.LBE7512:
.LBE7547:
.LBB7548:
.LBB7543:
	.loc 3 483 0
	fmadds 8,13,11,8
.LVL957:
.LBE7543:
.LBE7548:
.LBB7549:
.LBB7513:
	stfs 7,8(4)
.LVL958:
.LBE7513:
.LBE7549:
.LBB7550:
.LBB7544:
	.loc 3 481 0
	stfs 9,24(4)
	.loc 3 482 0
	stfs 10,28(4)
	.loc 3 483 0
	stfs 8,32(4)
.LVL959:
.LBE7544:
.LBE7550:
	.loc 4 1605 0
	lfs 9,56(3)
	.loc 4 1604 0
	lfs 0,52(3)
.LVL960:
	.loc 3 452 0
	lfs 10,0(3)
.LBB7551:
.LBB7552:
	.loc 4 1590 0
	fneg 8,9
.LBE7552:
.LBE7551:
	.loc 3 452 0
	lfs 11,4(3)
	lfs 13,8(3)
	lfs 6,12(3)
	lfs 7,16(3)
	lfs 12,20(3)
	fmadds 6,0,6,10
	fmadds 7,0,7,11
.LBB7556:
.LBB7557:
	.loc 3 439 0
	lfs 10,24(3)
.LBE7557:
.LBE7556:
	.loc 3 452 0
	fmadds 12,0,12,13
.LVL961:
.LBB7560:
.LBB7558:
	.loc 3 439 0
	lfs 11,28(3)
.LBE7558:
.LBE7560:
	.loc 4 1606 0
	lfs 0,60(3)
.LBB7561:
.LBB7553:
	.loc 3 431 0
	fmadds 4,8,10,6
.LBE7553:
.LBE7561:
.LBB7562:
.LBB7559:
	.loc 3 439 0
	lfs 3,32(3)
.LVL962:
.LBE7559:
.LBE7562:
.LBB7563:
.LBB7554:
	.loc 3 431 0
	fmadds 5,8,11,7
.LBE7554:
.LBE7563:
.LBB7564:
.LBB7565:
	.loc 4 1590 0
	fneg 13,0
.LBE7565:
.LBE7564:
.LBB7571:
.LBB7555:
	.loc 3 431 0
	fmadds 8,8,3,12
	.loc 3 452 0
	fmadds 6,9,10,6
.LVL963:
	.loc 3 439 0
	lfs 10,36(3)
	.loc 3 452 0
	fmadds 7,9,11,7
.LVL964:
	.loc 3 439 0
	lfs 11,40(3)
	.loc 3 452 0
	fmadds 9,9,3,12
	.loc 3 439 0
	lfs 12,44(3)
.LVL965:
.LBE7555:
.LBE7571:
.LBB7572:
.LBB7573:
	.loc 3 452 0
	fmadds 30,0,10,4
	fmadds 31,0,11,5
	fmadds 1,0,12,8
.LBE7573:
.LBE7572:
.LBB7577:
.LBB7578:
	fmadds 2,0,10,6
.LBE7578:
.LBE7577:
.LBB7584:
.LBB7574:
	.loc 3 424 0
	stfs 30,60(4)
.LBE7574:
.LBE7584:
.LBB7585:
.LBB7579:
	.loc 3 452 0
	fmadds 3,0,11,7
.LBE7579:
.LBE7585:
.LBE7607:
	.loc 4 1614 0
	lfd 30,8(1)
.LBB7608:
.LBB7586:
.LBB7580:
	.loc 3 452 0
	fmadds 0,0,12,9
.LBE7580:
.LBE7586:
.LBB7587:
.LBB7575:
	.loc 3 425 0
	stfs 31,64(4)
.LBE7575:
.LBE7587:
.LBB7588:
.LBB7566:
	.loc 3 481 0
	fmadds 4,13,10,4
.LVL966:
.LBE7566:
.LBE7588:
.LBE7608:
	.loc 4 1614 0
	lfd 31,16(1)
.LBB7609:
.LBB7589:
.LBB7567:
	.loc 3 482 0
	fmadds 5,13,11,5
.LVL967:
.LBE7567:
.LBE7589:
.LBE7609:
	.loc 4 1614 0
.LBB7610:
.LBB7590:
.LBB7568:
	.loc 3 483 0
	fmadds 8,13,12,8
.LVL968:
.LBE7568:
.LBE7590:
.LBB7591:
.LBB7576:
	.loc 3 426 0
	stfs 1,68(4)
.LBE7576:
.LBE7591:
.LBB7592:
.LBB7593:
	.loc 3 481 0
	fmadds 10,13,10,6
.LBE7593:
.LBE7592:
.LBB7597:
.LBB7581:
	.loc 3 424 0
	stfs 2,84(4)
.LBE7581:
.LBE7597:
.LBB7598:
.LBB7594:
	.loc 3 482 0
	fmadds 11,13,11,7
.LVL969:
.LBE7594:
.LBE7598:
.LBB7599:
.LBB7582:
	.loc 3 425 0
	stfs 3,88(4)
.LBE7582:
.LBE7599:
.LBB7600:
.LBB7595:
	.loc 3 483 0
	fmadds 9,13,12,9
.LVL970:
.LBE7595:
.LBE7600:
.LBB7601:
.LBB7583:
	.loc 3 426 0
	stfs 0,92(4)
.LVL971:
.LBE7583:
.LBE7601:
.LBB7602:
.LBB7569:
	.loc 3 481 0
	stfs 4,48(4)
.LBE7569:
.LBE7602:
.LBE7610:
	.loc 4 1614 0
	addi 1,1,24
.LCFI76:
	.cfi_def_cfa_offset 0
	.cfi_restore 63
	.cfi_restore 62
.LBB7611:
.LBB7603:
.LBB7570:
	.loc 3 482 0
	stfs 5,52(4)
	.loc 3 483 0
	stfs 8,56(4)
.LVL972:
.LBE7570:
.LBE7603:
.LBB7604:
.LBB7596:
	.loc 3 481 0
	stfs 10,72(4)
	.loc 3 482 0
	stfs 11,76(4)
	.loc 3 483 0
	stfs 9,80(4)
.LBE7596:
.LBE7604:
.LBE7611:
	.loc 4 1614 0
	blr
	.cfi_endproc
.LFE2574:
	.size	_ZNK9idFrustum13ToIndexPointsEP6idVec3, .-_ZNK9idFrustum13ToIndexPointsEP6idVec3
	.align 2
	.globl _ZNK9idFrustum16IntersectsSphereERK8idSphere
	.type	_ZNK9idFrustum16IntersectsSphereERK8idSphere, @function
_ZNK9idFrustum16IntersectsSphereERK8idSphere:
.LFB2559:
	.loc 4 955 0
	.cfi_startproc
.LVL973:
	mflr 0
	stwu 1,-136(1)
.LCFI77:
	.cfi_def_cfa_offset 136
	.cfi_register 65, 0
	stw 30,128(1)
	mr 30,4
	.cfi_offset 30, -8
	stw 31,132(1)
	mr 31,3
	.cfi_offset 31, -4
	stw 0,140(1)
	stw 29,124(1)
.LBB7706:
	.loc 4 960 0
	.cfi_offset 29, -12
	.cfi_offset 65, 4
	bl _ZNK9idFrustum10CullSphereERK8idSphere
.LVL974:
	cmpwi 7,3,0
	.loc 4 961 0
	li 3,0
	.loc 4 960 0
	bne- 7,.L425
.LVL975:
.LBB7707:
.LBB7708:
	.loc 3 431 0
	lfs 0,4(31)
	lfs 10,4(30)
	lfs 13,0(31)
	fsubs 10,10,0
	lfs 11,0(30)
.LBE7708:
.LBE7707:
.LBB7716:
.LBB7717:
.LBB7718:
	.loc 5 454 0
	lfs 0,16(31)
.LBE7718:
.LBE7717:
.LBE7716:
.LBB7725:
.LBB7709:
	.loc 3 431 0
	fsubs 11,11,13
	lfs 9,8(30)
.LBE7709:
.LBE7725:
.LBB7726:
.LBB7722:
.LBB7719:
	.loc 5 454 0
	fmuls 0,10,0
.LBE7719:
.LBE7722:
.LBE7726:
.LBB7727:
.LBB7710:
	lfs 13,12(31)
	.loc 3 431 0
	lfs 12,8(31)
.LBE7710:
.LBE7727:
.LBB7728:
.LBB7723:
.LBB7720:
	.loc 5 454 0
	lfs 8,40(31)
.LBE7720:
.LBE7723:
.LBE7728:
.LBB7729:
.LBB7711:
	.loc 3 431 0
	fsubs 12,9,12
.LVL976:
	.loc 5 454 0
	lfs 9,20(31)
	fmadds 0,11,13,0
.LBE7711:
.LBE7729:
	.loc 4 969 0
	lfs 13,48(31)
.LBB7730:
.LBB7712:
	.loc 5 454 0
	lfs 7,24(31)
	fmadds 0,12,9,0
.LBE7712:
.LBE7730:
.LBB7731:
.LBB7724:
.LBB7721:
	lfs 9,28(31)
	fmuls 9,10,9
	fmuls 10,10,8
.LVL977:
.LBE7721:
.LBE7724:
.LBE7731:
.LBB7732:
.LBB7713:
	lfs 8,36(31)
.LBE7713:
.LBE7732:
	.loc 4 969 0
	fcmpu 7,13,0
.LBB7733:
.LBB7714:
	.loc 5 454 0
	fmadds 9,11,7,9
	fmadds 11,11,8,10
.LVL978:
.LBE7714:
.LBE7733:
	.loc 4 969 0
	cror 30,29,30
.LBB7734:
.LBB7715:
	.loc 5 454 0
	lfs 8,32(31)
	lfs 10,44(31)
	fmadds 8,12,8,9
	fmadds 10,12,10,11
	stfs 8,104(1)
	stfs 10,108(1)
.LVL979:
.LBE7715:
.LBE7734:
	.loc 4 969 0
	bne- 7,.L483
	.loc 4 970 0
	lfs 9,64(31)
	.loc 4 955 0
	lfs 12,56(31)
.LVL980:
	.loc 4 970 0
	fmuls 9,13,9
.LVL981:
	.loc 4 955 0
	lfs 11,60(31)
.LVL982:
.L489:
.LBB7735:
.LBB7736:
	.loc 6 781 0
	lwz 0,104(1)
.LBE7736:
.LBE7735:
	.loc 4 955 0
	fneg 8,12
.LVL983:
.LBB7738:
.LBB7739:
	.loc 6 781 0
	lwz 11,108(1)
.LBE7739:
.LBE7738:
	.loc 4 955 0
	fneg 10,11
.LVL984:
.LBB7741:
.LBB7737:
	.loc 6 781 0
	rlwinm 9,0,0,1,31
.LBE7737:
.LBE7741:
	.loc 4 980 0
	stw 9,112(1)
.LBB7742:
.LBB7740:
	.loc 6 781 0
	rlwinm 0,11,0,1,31
.LBE7740:
.LBE7742:
	.loc 4 980 0
	lfs 7,112(1)
	.loc 4 981 0
	stw 0,112(1)
	.loc 4 980 0
	fmadds 8,8,9,7
.LVL985:
	.loc 4 981 0
	lfs 7,112(1)
	fmadds 9,10,9,7
.LVL986:
.L428:
	.loc 4 983 0
	lis 9,.LC0@ha
	lfs 10,.LC0@l(9)
	li 9,0
	fcmpu 7,8,10
	bng- 7,.L431
.LVL987:
	.loc 4 984 0
	lwz 11,104(1)
	nor 9,11,11
	srwi 9,9,31
	addi 9,9,1
	.loc 4 983 0
	mulli 9,9,3
.LVL988:
.L431:
	.loc 4 986 0
	lis 11,.LC0@ha
	li 29,0
	lfs 10,.LC0@l(11)
	fcmpu 7,9,10
	bng- 7,.L433
.LVL989:
	.loc 4 987 0
	lwz 0,108(1)
	nor 29,0,0
	srwi 29,29,31
	addi 29,29,1
	.loc 4 986 0
	mulli 29,29,9
.LVL990:
.L433:
	.loc 4 989 0
	fcmpu 7,13,0
	bng- 7,.L487
	.loc 4 990 0
	fmuls 9,13,12
.LVL991:
	lfs 10,64(31)
	.loc 4 991 0
	lfs 7,104(1)
	.loc 4 964 0
	li 0,0
	.loc 4 990 0
	fmuls 9,9,10
.LVL992:
	.loc 4 991 0
	fsubs 8,9,7
.LVL993:
	fmuls 9,8,9
.LVL994:
	fmadds 9,10,9,13
	fcmpu 7,9,0
	bgt- 7,.L493
.L437:
.LVL995:
	.loc 4 1011 0
	add 29,29,9
	.loc 4 2843 0
	lfs 10,12(30)
	.loc 4 1011 0
	add 29,29,0
.LVL996:
	.loc 4 1012 0
	cmplwi 7,29,18
	ble- 7,.L494
.LVL997:
.L439:
	.loc 4 1021 0
	mr 3,31
	addi 4,1,8
	.loc 4 1022 0
	addi 29,29,-4
.LVL998:
	.loc 4 1021 0
	bl _ZNK9idFrustum13ToIndexPointsEP6idVec3
.LVL999:
	.loc 4 1022 0
	cmplwi 7,29,22
	ble- 7,.L495
.LVL1000:
.L476:
	.loc 4 1047 0
	li 3,0
.LVL1001:
.L425:
.LBE7706:
	.loc 4 1048 0
	lwz 0,140(1)
	lwz 29,124(1)
	mtlr 0
	lwz 30,128(1)
.LVL1002:
	lwz 31,132(1)
.LVL1003:
	addi 1,1,136
	.cfi_remember_state
.LCFI78:
	.cfi_def_cfa_offset 0
	.cfi_restore 31
	.cfi_restore 30
	.cfi_restore 29
	blr
.LVL1004:
.L483:
.LCFI79:
	.cfi_restore_state
.LBB7819:
	.loc 4 974 0
	lfs 12,52(31)
.LVL1005:
	fcmpu 7,12,0
	cror 30,28,30
	bne- 7,.L484
.LVL1006:
.LBB7743:
.LBB7744:
	.loc 6 781 0
	lwz 0,104(1)
.LBE7744:
.LBE7743:
.LBB7746:
.LBB7747:
	lwz 11,108(1)
.LBE7747:
.LBE7746:
.LBB7749:
.LBB7745:
	rlwinm 9,0,0,1,31
.LBE7745:
.LBE7749:
	.loc 4 975 0
	lfs 12,56(31)
	.loc 4 976 0
	lfs 11,60(31)
.LBB7750:
.LBB7748:
	.loc 6 781 0
	rlwinm 0,11,0,1,31
.LBE7748:
.LBE7750:
	.loc 4 975 0
	stw 9,112(1)
	lfs 7,112(1)
.LVL1007:
	.loc 4 976 0
	stw 0,112(1)
	.loc 4 975 0
	fsubs 8,7,12
.LVL1008:
	.loc 4 976 0
	lfs 10,112(1)
.LVL1009:
	fsubs 9,10,11
.LVL1010:
	b .L428
.LVL1011:
.L487:
	.loc 4 999 0
	lfs 10,52(31)
	.loc 4 1000 0
	li 0,2
	.loc 4 999 0
	fcmpu 7,10,0
	blt- 7,.L437
	.loc 4 1002 0
	lfs 9,104(1)
.LVL1012:
	fsubs 8,12,9
.LVL1013:
	lfs 9,64(31)
	fmuls 8,12,8
	fmadds 8,8,9,10
	fcmpu 7,8,0
	blt- 7,.L437
	.loc 4 1005 0
	lfs 7,108(1)
	fsubs 8,11,7
	fmuls 8,11,8
	fmadds 10,9,8,10
	fcmpu 7,10,0
	.loc 4 964 0
	mfcr 0
	rlwinm 0,0,29,1
	slwi 0,0,1
	b .L437
.LVL1014:
.L494:
	.loc 4 1012 0
	lis 9,.L446@ha
	slwi 0,29,2
.LVL1015:
	la 9,.L446@l(9)
	lwzx 0,9,0
	add 9,0,9
	mtctr 9
	bctr
	.section	.rodata
	.align 2
	.align 2
.L446:
	.long .L475-.L446
	.long .L440-.L446
	.long .L441-.L446
	.long .L442-.L446
	.long .L439-.L446
	.long .L439-.L446
	.long .L443-.L446
	.long .L439-.L446
	.long .L439-.L446
	.long .L444-.L446
	.long .L439-.L446
	.long .L439-.L446
	.long .L439-.L446
	.long .L439-.L446
	.long .L439-.L446
	.long .L439-.L446
	.long .L439-.L446
	.long .L439-.L446
	.long .L445-.L446
	.section	".text"
.LVL1016:
.L493:
	.loc 4 992 0
	fmuls 9,13,11
	.loc 4 993 0
	lfs 7,108(1)
	.loc 4 992 0
	fmuls 9,10,9
.LVL1017:
	.loc 4 993 0
	fsubs 8,9,7
	fmuls 9,8,9
.LVL1018:
	fmadds 10,10,9,13
	.loc 4 994 0
	fcmpu 7,10,0
	mfcr 0
	rlwinm 0,0,30,1
	b .L437
.LVL1019:
.L484:
	.loc 4 979 0
	lfs 9,64(31)
	.loc 4 955 0
	lfs 12,56(31)
	lfs 11,60(31)
	.loc 4 979 0
	fmuls 9,0,9
	b .L489
.LVL1020:
.L475:
	.loc 4 1013 0
	li 3,1
	b .L425
.L445:
	.loc 4 1019 0
	lfs 13,52(31)
	fmuls 0,11,0
.LVL1021:
	lfs 7,108(1)
	fmuls 11,11,11
	fneg 12,13
	fmuls 10,10,10
	fmsubs 0,12,7,0
.L491:
.LVL1022:
	fmadds 13,13,13,11
.LBE7819:
	.loc 4 1048 0
	lwz 0,140(1)
.LBB7820:
	.loc 4 1019 0
	fmuls 0,0,0
.LVL1023:
.LBE7820:
	.loc 4 1048 0
	lwz 29,124(1)
.LVL1024:
	mtlr 0
	lwz 30,128(1)
.LVL1025:
.LBB7821:
	.loc 4 1019 0
	fmuls 13,10,13
.LBE7821:
	.loc 4 1048 0
	lwz 31,132(1)
.LVL1026:
	addi 1,1,136
	.cfi_remember_state
	.cfi_restore 29
	.cfi_restore 30
	.cfi_restore 31
.LCFI80:
	.cfi_def_cfa_offset 0
.LBB7822:
	.loc 4 1019 0
	fcmpu 7,0,13
	mfcr 3
	rlwinm 3,3,29,1
.LBE7822:
	.loc 4 1048 0
	blr
.LVL1027:
.L440:
.LCFI81:
	.cfi_restore_state
.LBB7823:
	.loc 4 1014 0
	fsubs 0,13,0
.LVL1028:
	fcmpu 7,10,0
	mfcr 3
	rlwinm 3,3,30,1
	b .L425
.LVL1029:
.L442:
	.loc 4 1016 0
	fmuls 0,12,0
.LVL1030:
	lfs 13,52(31)
	lfs 7,104(1)
	fmuls 12,12,12
	fmuls 10,10,10
	fmsubs 0,13,7,0
.LVL1031:
.L490:
	.loc 4 1017 0
	fmadds 13,13,13,12
.LBE7823:
	.loc 4 1048 0
	lwz 0,140(1)
.LBB7824:
	.loc 4 1017 0
	fmuls 0,0,0
.LVL1032:
.LBE7824:
	.loc 4 1048 0
	lwz 29,124(1)
.LVL1033:
	mtlr 0
	lwz 30,128(1)
.LVL1034:
.LBB7825:
	.loc 4 1017 0
	fmuls 13,10,13
.LBE7825:
	.loc 4 1048 0
	lwz 31,132(1)
.LVL1035:
	addi 1,1,136
	.cfi_remember_state
	.cfi_restore 29
	.cfi_restore 30
	.cfi_restore 31
.LCFI82:
	.cfi_def_cfa_offset 0
.LBB7826:
	.loc 4 1017 0
	fcmpu 7,0,13
	mfcr 3
	rlwinm 3,3,29,1
.LBE7826:
	.loc 4 1048 0
	blr
.LVL1036:
.L441:
.LCFI83:
	.cfi_restore_state
.LBB7827:
	.loc 4 1015 0
	lfs 13,52(31)
	fsubs 0,0,13
.LVL1037:
	fcmpu 7,10,0
	mfcr 3
	rlwinm 3,3,30,1
	b .L425
.LVL1038:
.L444:
	.loc 4 1018 0
	fmuls 0,11,0
.LVL1039:
	lfs 13,52(31)
	lfs 12,108(1)
	fmuls 11,11,11
	fmuls 10,10,10
	fmsubs 0,13,12,0
.LVL1040:
	b .L491
.LVL1041:
.L443:
	.loc 4 1017 0
	lfs 13,52(31)
	fmuls 0,12,0
.LVL1042:
	lfs 9,108(1)
	fmuls 12,12,12
	fneg 11,13
	fmuls 10,10,10
	fmsubs 0,11,9,0
	b .L490
.LVL1043:
.L495:
	.loc 4 1022 0
	lis 9,.L467@ha
	slwi 29,29,2
.LVL1044:
	la 9,.L467@l(9)
	lwzx 0,9,29
	add 9,0,9
	mtctr 9
	bctr
	.section	.rodata
	.align 2
	.align 2
.L467:
	.long .L447-.L467
	.long .L448-.L467
	.long .L476-.L467
	.long .L449-.L467
	.long .L450-.L467
	.long .L476-.L467
	.long .L451-.L467
	.long .L452-.L467
	.long .L453-.L467
	.long .L454-.L467
	.long .L455-.L467
	.long .L456-.L467
	.long .L457-.L467
	.long .L458-.L467
	.long .L476-.L467
	.long .L459-.L467
	.long .L460-.L467
	.long .L461-.L467
	.long .L462-.L467
	.long .L463-.L467
	.long .L464-.L467
	.long .L465-.L467
	.long .L466-.L467
	.section	".text"
.L466:
.LVL1045:
.LBB7751:
.LBB7752:
.LBB7753:
.LBB7754:
	.loc 3 431 0
	lfs 13,96(1)
	lfs 0,4(30)
	lfs 12,92(1)
	fsubs 0,13,0
	lfs 13,0(30)
	lfs 10,100(1)
	fsubs 12,12,13
.LBE7754:
.LBE7753:
	.loc 10 232 0
	lfs 13,12(30)
.LBB7756:
.LBB7757:
	.loc 3 636 0
	fmuls 11,0,0
.LBE7757:
.LBE7756:
.LBB7758:
.LBB7755:
	.loc 3 431 0
	lfs 0,8(30)
.LVL1046:
.L492:
.LBE7755:
.LBE7758:
.LBE7752:
.LBE7751:
.LBB7759:
.LBB7760:
.LBB7761:
.LBB7762:
	fsubs 0,10,0
.LVL1047:
.LBE7762:
.LBE7761:
	.loc 3 636 0
	fmadds 12,12,12,11
.LVL1048:
	.loc 10 232 0
	fmuls 13,13,13
	.loc 3 636 0
	fmadds 0,0,0,12
.LVL1049:
	.loc 10 232 0
	fcmpu 7,0,13
	mfcr 3
	rlwinm 3,3,30,1
	.loc 4 955 0
	xori 3,3,1
.LBE7760:
.LBE7759:
	.loc 4 1024 0
	b .L425
.L465:
.LVL1050:
.LBB7770:
.LBB7771:
.LBB7772:
.LBB7773:
	.loc 3 431 0
	lfs 13,48(1)
	lfs 0,4(30)
	lfs 12,44(1)
	fsubs 0,13,0
	lfs 13,0(30)
	lfs 10,52(1)
	fsubs 12,12,13
.LBE7773:
.LBE7772:
	.loc 10 232 0
	lfs 13,12(30)
.LBB7775:
.LBB7776:
	.loc 3 636 0
	fmuls 11,0,0
.LBE7776:
.LBE7775:
.LBB7777:
.LBB7774:
	.loc 3 431 0
	lfs 0,8(30)
	b .L492
.LVL1051:
.L464:
.LBE7774:
.LBE7777:
.LBE7771:
.LBE7770:
	.loc 4 1042 0
	mr 3,30
	addi 4,1,44
	addi 5,1,92
	bl _ZNK8idSphere16LineIntersectionERK6idVec3S2_
	b .L425
.L463:
.LVL1052:
.LBB7778:
.LBB7779:
.LBB7780:
.LBB7781:
	.loc 3 431 0
	lfs 13,84(1)
	lfs 0,4(30)
	lfs 12,80(1)
	fsubs 0,13,0
	lfs 13,0(30)
	lfs 10,88(1)
	fsubs 12,12,13
.LBE7781:
.LBE7780:
	.loc 10 232 0
	lfs 13,12(30)
.LBB7783:
.LBB7784:
	.loc 3 636 0
	fmuls 11,0,0
.LBE7784:
.LBE7783:
.LBB7785:
.LBB7782:
	.loc 3 431 0
	lfs 0,8(30)
	b .L492
.LVL1053:
.L462:
.LBE7782:
.LBE7785:
.LBE7779:
.LBE7778:
.LBB7786:
.LBB7787:
.LBB7788:
.LBB7789:
	lfs 13,36(1)
	lfs 0,4(30)
	lfs 12,32(1)
	fsubs 0,13,0
	lfs 13,0(30)
	lfs 10,40(1)
	fsubs 12,12,13
.LBE7789:
.LBE7788:
	.loc 10 232 0
	lfs 13,12(30)
.LBB7791:
.LBB7792:
	.loc 3 636 0
	fmuls 11,0,0
.LBE7792:
.LBE7791:
.LBB7793:
.LBB7790:
	.loc 3 431 0
	lfs 0,8(30)
	b .L492
.LVL1054:
.L461:
.LBE7790:
.LBE7793:
.LBE7787:
.LBE7786:
	.loc 4 1041 0
	mr 3,30
	addi 4,1,32
	addi 5,1,80
	bl _ZNK8idSphere16LineIntersectionERK6idVec3S2_
	b .L425
.L460:
	.loc 4 1040 0
	mr 3,30
	addi 4,1,80
	addi 5,1,92
	bl _ZNK8idSphere16LineIntersectionERK6idVec3S2_
	b .L425
.L459:
	.loc 4 1039 0
	mr 3,30
	addi 4,1,32
	addi 5,1,44
	bl _ZNK8idSphere16LineIntersectionERK6idVec3S2_
	b .L425
.L458:
.LVL1055:
.LBB7794:
.LBB7795:
.LBB7796:
.LBB7797:
	.loc 3 431 0
	lfs 13,72(1)
	lfs 0,4(30)
	lfs 12,68(1)
	fsubs 0,13,0
	lfs 13,0(30)
	lfs 10,76(1)
	fsubs 12,12,13
.LBE7797:
.LBE7796:
	.loc 10 232 0
	lfs 13,12(30)
.LBB7799:
.LBB7800:
	.loc 3 636 0
	fmuls 11,0,0
.LBE7800:
.LBE7799:
.LBB7801:
.LBB7798:
	.loc 3 431 0
	lfs 0,8(30)
	b .L492
.LVL1056:
.L457:
.LBE7798:
.LBE7801:
.LBE7795:
.LBE7794:
.LBB7802:
.LBB7803:
.LBB7804:
.LBB7805:
	lfs 13,24(1)
	lfs 0,4(30)
	lfs 12,20(1)
	fsubs 0,13,0
	lfs 13,0(30)
	lfs 10,28(1)
	fsubs 12,12,13
.LBE7805:
.LBE7804:
	.loc 10 232 0
	lfs 13,12(30)
.LBB7807:
.LBB7808:
	.loc 3 636 0
	fmuls 11,0,0
.LBE7808:
.LBE7807:
.LBB7809:
.LBB7806:
	.loc 3 431 0
	lfs 0,8(30)
	b .L492
.LVL1057:
.L456:
.LBE7806:
.LBE7809:
.LBE7803:
.LBE7802:
	.loc 4 1038 0
	mr 3,30
	addi 4,1,20
	addi 5,1,68
	bl _ZNK8idSphere16LineIntersectionERK6idVec3S2_
	b .L425
.L455:
.LVL1058:
.LBB7810:
.LBB7769:
.LBB7765:
.LBB7763:
	.loc 3 431 0
	lfs 13,60(1)
	lfs 0,4(30)
	lfs 12,56(1)
	fsubs 0,13,0
	lfs 13,0(30)
	lfs 10,64(1)
	fsubs 12,12,13
.LBE7763:
.LBE7765:
	.loc 10 232 0
	lfs 13,12(30)
.LBB7766:
.LBB7767:
	.loc 3 636 0
	fmuls 11,0,0
.LBE7767:
.LBE7766:
.LBB7768:
.LBB7764:
	.loc 3 431 0
	lfs 0,8(30)
	b .L492
.LVL1059:
.L454:
.LBE7764:
.LBE7768:
.LBE7769:
.LBE7810:
.LBB7811:
.LBB7812:
.LBB7813:
.LBB7814:
	lfs 13,12(1)
	lfs 0,4(30)
	lfs 12,8(1)
	fsubs 0,13,0
	lfs 13,0(30)
	lfs 10,16(1)
	fsubs 12,12,13
.LBE7814:
.LBE7813:
	.loc 10 232 0
	lfs 13,12(30)
.LBB7816:
.LBB7817:
	.loc 3 636 0
	fmuls 11,0,0
.LBE7817:
.LBE7816:
.LBB7818:
.LBB7815:
	.loc 3 431 0
	lfs 0,8(30)
	b .L492
.LVL1060:
.L453:
.LBE7815:
.LBE7818:
.LBE7812:
.LBE7811:
	.loc 4 1037 0
	mr 3,30
	addi 4,1,8
	addi 5,1,56
	bl _ZNK8idSphere16LineIntersectionERK6idVec3S2_
	b .L425
.L452:
	.loc 4 1036 0
	mr 3,30
	addi 4,1,56
	addi 5,1,68
	bl _ZNK8idSphere16LineIntersectionERK6idVec3S2_
	b .L425
.L451:
	.loc 4 1035 0
	mr 3,30
	addi 4,1,8
	addi 5,1,20
	bl _ZNK8idSphere16LineIntersectionERK6idVec3S2_
	b .L425
.L450:
	.loc 4 1034 0
	mr 3,30
	addi 4,1,68
	addi 5,1,92
	bl _ZNK8idSphere16LineIntersectionERK6idVec3S2_
	b .L425
.L449:
	.loc 4 1033 0
	mr 3,30
	addi 4,1,20
	addi 5,1,44
	bl _ZNK8idSphere16LineIntersectionERK6idVec3S2_
	b .L425
.L448:
	.loc 4 1032 0
	mr 3,30
	addi 4,1,56
	addi 5,1,80
	bl _ZNK8idSphere16LineIntersectionERK6idVec3S2_
	b .L425
.L447:
	.loc 4 1031 0
	mr 3,30
	addi 4,1,8
	addi 5,1,32
	bl _ZNK8idSphere16LineIntersectionERK6idVec3S2_
	b .L425
.LBE7827:
	.cfi_endproc
.LFE2559:
	.size	_ZNK9idFrustum16IntersectsSphereERK8idSphere, .-_ZNK9idFrustum16IntersectsSphereERK8idSphere
	.align 2
	.globl _ZNK9idFrustum26ToIndexPointsAndCornerVecsEP6idVec3S1_
	.type	_ZNK9idFrustum26ToIndexPointsAndCornerVecsEP6idVec3S1_, @function
_ZNK9idFrustum26ToIndexPointsAndCornerVecsEP6idVec3S1_:
.LFB2575:
	.loc 4 1623 0
	.cfi_startproc
.LVL1061:
.LBB7828:
	.loc 4 1626 0
	lfs 12,48(3)
.LVL1062:
	.loc 4 1627 0
	lfs 8,56(3)
	lfs 7,64(3)
	fmuls 8,12,8
	.loc 4 1628 0
	lfs 0,60(3)
	.loc 3 452 0
	lfs 9,0(3)
	.loc 4 1628 0
	fmuls 0,12,0
	.loc 3 452 0
	lfs 10,4(3)
	.loc 4 1627 0
	fmuls 8,8,7
	.loc 3 452 0
	lfs 11,20(3)
	lfs 13,8(3)
	lfs 5,12(3)
	.loc 4 1628 0
	fmuls 0,7,0
	.loc 3 452 0
	lfs 6,16(3)
.LBB7829:
.LBB7830:
	.loc 4 1623 0
	fneg 7,8
.LBE7830:
.LBE7829:
	.loc 3 452 0
	fmadds 5,12,5,9
.LBB7834:
.LBB7835:
	.loc 3 439 0
	lfs 9,24(3)
.LBE7835:
.LBE7834:
	.loc 3 452 0
	fmadds 6,12,6,10
.LBB7838:
.LBB7836:
	.loc 3 439 0
	lfs 10,28(3)
.LBE7836:
.LBE7838:
	.loc 3 452 0
	fmadds 12,12,11,13
.LVL1063:
.LBB7839:
.LBB7837:
	.loc 3 439 0
	lfs 11,32(3)
.LVL1064:
.LBE7837:
.LBE7839:
.LBB7840:
.LBB7841:
	.loc 4 1623 0
	fneg 13,0
.LBE7841:
.LBE7840:
.LBE7828:
	stwu 1,-24(1)
.LCFI84:
	.cfi_def_cfa_offset 24
.LBB7953:
.LBB7848:
.LBB7831:
	.loc 3 431 0
	fmadds 3,7,9,5
	fmadds 4,7,10,6
.LBE7831:
.LBE7848:
.LBE7953:
	.loc 4 1623 0
	stfd 30,8(1)
.LBB7954:
.LBB7849:
.LBB7832:
	.loc 3 452 0
	fmadds 5,8,9,5
.LVL1065:
	.loc 3 439 0
	lfs 9,36(3)
	.loc 3 452 0
	fmadds 6,8,10,6
.LVL1066:
	.loc 3 439 0
	lfs 10,40(3)
	.loc 3 431 0
	fmadds 7,7,11,12
.LBE7832:
.LBE7849:
.LBE7954:
	.loc 4 1623 0
	stfd 31,16(1)
.LBB7955:
.LBB7850:
.LBB7833:
	.loc 3 452 0
	fmadds 8,8,11,12
.LVL1067:
	.loc 3 439 0
	lfs 11,44(3)
.LVL1068:
.LBE7833:
.LBE7850:
.LBB7851:
.LBB7852:
	.loc 3 452 0
	fmadds 30,0,9,3
	.cfi_offset 63, -8
	.cfi_offset 62, -16
	fmadds 31,0,10,4
	fmadds 1,0,11,7
.LBE7852:
.LBE7851:
.LBB7856:
.LBB7857:
	fmadds 2,0,9,5
.LBE7857:
.LBE7856:
.LBB7863:
.LBB7853:
	.loc 3 424 0
	stfs 30,12(4)
.LBE7853:
.LBE7863:
.LBB7864:
.LBB7858:
	.loc 3 452 0
	fmadds 12,0,10,6
.LVL1069:
.LBE7858:
.LBE7864:
.LBB7865:
.LBB7854:
	.loc 3 425 0
	stfs 31,16(4)
.LBE7854:
.LBE7865:
.LBB7866:
.LBB7859:
	.loc 3 452 0
	fmadds 0,0,11,8
.LVL1070:
.LBE7859:
.LBE7866:
.LBB7867:
.LBB7855:
	.loc 3 426 0
	stfs 1,20(4)
.LBE7855:
.LBE7867:
.LBB7868:
.LBB7842:
	.loc 3 481 0
	fmadds 3,13,9,3
.LVL1071:
.LBE7842:
.LBE7868:
.LBB7869:
.LBB7860:
	.loc 3 424 0
	stfs 2,36(4)
.LBE7860:
.LBE7869:
.LBB7870:
.LBB7843:
	.loc 3 482 0
	fmadds 4,13,10,4
.LVL1072:
.LBE7843:
.LBE7870:
.LBB7871:
.LBB7861:
	.loc 3 425 0
	stfs 12,40(4)
.LBE7861:
.LBE7871:
.LBB7872:
.LBB7844:
	.loc 3 483 0
	fmadds 7,13,11,7
.LVL1073:
.LBE7844:
.LBE7872:
.LBB7873:
.LBB7862:
	.loc 3 426 0
	stfs 0,44(4)
.LBE7862:
.LBE7873:
.LBB7874:
.LBB7875:
	.loc 3 481 0
	fmadds 9,13,9,5
.LBE7875:
.LBE7874:
.LBB7879:
.LBB7845:
	stfs 3,0(4)
.LBE7845:
.LBE7879:
.LBB7880:
.LBB7876:
	.loc 3 482 0
	fmadds 10,13,10,6
.LBE7876:
.LBE7880:
.LBB7881:
.LBB7846:
	stfs 4,4(4)
.LBE7846:
.LBE7881:
.LBB7882:
.LBB7877:
	.loc 3 483 0
	fmadds 8,13,11,8
.LVL1074:
.LBE7877:
.LBE7882:
.LBB7883:
.LBB7847:
	stfs 7,8(4)
.LVL1075:
.LBE7847:
.LBE7883:
.LBB7884:
.LBB7878:
	.loc 3 481 0
	stfs 9,24(4)
	.loc 3 482 0
	stfs 10,28(4)
	.loc 3 483 0
	stfs 8,32(4)
.LVL1076:
.LBE7878:
.LBE7884:
	.loc 4 1638 0
	lfs 0,56(3)
.LBB7885:
.LBB7886:
	.loc 3 439 0
	lfs 4,24(3)
	lfs 5,28(3)
	lfs 11,32(3)
	fmuls 4,0,4
	fmuls 5,0,5
.LBE7886:
.LBE7885:
	.loc 4 1637 0
	lfs 12,52(3)
.LVL1077:
.LBB7888:
.LBB7887:
	.loc 3 439 0
	fmuls 11,0,11
.LBE7887:
.LBE7888:
.LBB7889:
.LBB7890:
	lfs 9,12(3)
.LBE7890:
.LBE7889:
	.loc 4 1639 0
	lfs 0,60(3)
.LBB7893:
.LBB7891:
	.loc 3 439 0
	lfs 10,16(3)
.LBE7891:
.LBE7893:
.LBB7894:
.LBB7895:
	.loc 3 431 0
	fmsubs 1,12,9,4
.LBE7895:
.LBE7894:
.LBB7897:
.LBB7892:
	.loc 3 439 0
	lfs 8,20(3)
.LVL1078:
.LBE7892:
.LBE7897:
.LBB7898:
.LBB7899:
	.loc 4 1623 0
	fneg 13,0
.LBE7899:
.LBE7898:
.LBB7906:
.LBB7896:
	.loc 3 431 0
	fmsubs 2,12,10,5
	fmsubs 3,12,8,11
	.loc 3 452 0
	fmadds 4,12,9,4
.LVL1079:
	.loc 3 439 0
	lfs 9,36(3)
	.loc 3 452 0
	fmadds 5,12,10,5
.LVL1080:
	.loc 3 439 0
	lfs 10,40(3)
	.loc 3 452 0
	fmadds 12,12,8,11
	.loc 3 439 0
	lfs 11,44(3)
.LVL1081:
.LBE7896:
.LBE7906:
.LBB7907:
.LBB7900:
	.loc 3 481 0
	fmadds 8,13,9,1
.LBE7900:
.LBE7907:
.LBB7908:
.LBB7909:
	.loc 3 482 0
	fmadds 6,13,10,2
	.loc 3 483 0
	fmadds 7,13,11,3
.LBE7909:
.LBE7908:
.LBB7911:
.LBB7901:
	.loc 3 452 0
	fmadds 30,0,9,4
	fmadds 31,0,10,5
.LBE7901:
.LBE7911:
.LBB7912:
.LBB7913:
	fmadds 1,0,9,1
.LVL1082:
	fmadds 2,0,10,2
.LVL1083:
	fmadds 3,0,11,3
.LVL1084:
.LBE7913:
.LBE7912:
.LBB7917:
.LBB7918:
	.loc 3 481 0
	fmadds 9,13,9,4
.LBE7918:
.LBE7917:
.LBB7922:
.LBB7914:
	.loc 3 424 0
	stfs 1,12(5)
.LBE7914:
.LBE7922:
.LBB7923:
.LBB7902:
	.loc 3 452 0
	fmadds 0,0,11,12
.LBE7902:
.LBE7923:
.LBB7924:
.LBB7915:
	.loc 3 425 0
	stfs 2,16(5)
.LBE7915:
.LBE7924:
.LBB7925:
.LBB7919:
	.loc 3 483 0
	fmadds 12,13,11,12
.LVL1085:
.LBE7919:
.LBE7925:
.LBB7926:
.LBB7916:
	.loc 3 426 0
	stfs 3,20(5)
.LBE7916:
.LBE7926:
.LBB7927:
.LBB7920:
	.loc 3 482 0
	fmadds 10,13,10,5
.LVL1086:
	.loc 3 481 0
	stfs 9,24(5)
.LBE7920:
.LBE7927:
.LBB7928:
.LBB7903:
	.loc 3 424 0
	stfs 30,36(5)
.LBE7903:
.LBE7928:
.LBB7929:
.LBB7921:
	.loc 3 483 0
	stfs 12,32(5)
	.loc 3 482 0
	stfs 10,28(5)
.LBE7921:
.LBE7929:
.LBB7930:
.LBB7904:
	.loc 3 425 0
	stfs 31,40(5)
.LBE7904:
.LBE7930:
.LBB7931:
.LBB7910:
	.loc 3 481 0
	stfs 8,0(5)
	.loc 3 482 0
	stfs 6,4(5)
	.loc 3 483 0
	stfs 7,8(5)
.LBE7910:
.LBE7931:
.LBB7932:
.LBB7905:
	.loc 3 426 0
	stfs 0,44(5)
.LVL1087:
.LBE7905:
.LBE7932:
.LBB7933:
.LBB7934:
	.loc 3 452 0
	lfs 12,4(3)
	lfs 13,8(3)
	lfs 0,0(3)
	fadds 6,6,12
	fadds 7,7,13
.LVL1088:
	fadds 8,8,0
.LVL1089:
.LBE7934:
.LBE7933:
.LBB7935:
.LBB7936:
	.loc 3 425 0
	stfs 6,52(4)
	.loc 3 426 0
	stfs 7,56(4)
.LVL1090:
	.loc 3 424 0
	stfs 8,48(4)
.LBE7936:
.LBE7935:
.LBB7937:
.LBB7938:
	.loc 3 452 0
	lfs 9,16(5)
	lfs 10,20(5)
	lfs 11,12(5)
	lfs 12,4(3)
	lfs 13,8(3)
	lfs 0,0(3)
	fadds 12,9,12
	fadds 13,10,13
.LVL1091:
	fadds 0,11,0
.LBE7938:
.LBE7937:
.LBB7939:
.LBB7940:
	.loc 3 425 0
	stfs 12,64(4)
	.loc 3 426 0
	stfs 13,68(4)
.LVL1092:
	.loc 3 424 0
	stfs 0,60(4)
.LBE7940:
.LBE7939:
.LBB7941:
.LBB7942:
	.loc 3 452 0
	lfs 9,28(5)
	lfs 10,32(5)
	lfs 11,24(5)
	lfs 13,4(3)
.LVL1093:
	lfs 0,8(3)
	lfs 12,0(3)
.LVL1094:
	fadds 13,9,13
	fadds 0,10,0
.LVL1095:
	fadds 12,11,12
.LBE7942:
.LBE7941:
.LBB7943:
.LBB7944:
	.loc 3 424 0
	stfs 12,72(4)
	.loc 3 425 0
	stfs 13,76(4)
	.loc 3 426 0
	stfs 0,80(4)
.LVL1096:
.LBE7944:
.LBE7943:
.LBE7955:
	.loc 4 1652 0
	lfd 30,8(1)
.LBB7956:
.LBB7945:
.LBB7946:
	.loc 3 452 0
	lfs 9,40(5)
	lfs 12,4(3)
	lfs 10,44(5)
	lfs 13,8(3)
.LVL1097:
	fadds 12,9,12
	lfs 11,36(5)
	lfs 0,0(3)
.LVL1098:
	fadds 13,10,13
.LVL1099:
.LBE7946:
.LBE7945:
.LBE7956:
	.loc 4 1652 0
	lfd 31,16(1)
.LBB7957:
.LBB7948:
.LBB7947:
	.loc 3 452 0
	fadds 0,11,0
.LBE7947:
.LBE7948:
.LBB7949:
.LBB7950:
	.loc 3 425 0
	stfs 12,88(4)
	.loc 3 426 0
	stfs 13,92(4)
.LBE7950:
.LBE7949:
.LBE7957:
	.loc 4 1652 0
	addi 1,1,24
.LCFI85:
	.cfi_def_cfa_offset 0
	.cfi_restore 63
	.cfi_restore 62
.LBB7958:
.LBB7952:
.LBB7951:
	.loc 3 424 0
	stfs 0,84(4)
.LBE7951:
.LBE7952:
.LBE7958:
	.loc 4 1652 0
	blr
	.cfi_endproc
.LFE2575:
	.size	_ZNK9idFrustum26ToIndexPointsAndCornerVecsEP6idVec3S1_, .-_ZNK9idFrustum26ToIndexPointsAndCornerVecsEP6idVec3S1_
	.align 2
	.globl _ZNK9idFrustum11CullFrustumERKS_
	.type	_ZNK9idFrustum11CullFrustumERKS_, @function
_ZNK9idFrustum11CullFrustumERKS_:
.LFB2547:
	.loc 4 395 0
	.cfi_startproc
.LVL1100:
	mflr 0
	stwu 1,-304(1)
.LCFI86:
	.cfi_def_cfa_offset 304
	.cfi_register 65, 0
.LBB8031:
.LBB8032:
.LBB8033:
	.loc 8 149 0
	li 9,0
.LBE8033:
.LBE8032:
.LBE8031:
	.loc 4 395 0
	stw 31,300(1)
.LBB8163:
.LBB8036:
.LBB8037:
.LBB8038:
.LBB8039:
	addi 6,1,176
.LBE8039:
.LBE8038:
.LBE8037:
.LBE8036:
.LBE8163:
	stw 0,308(1)
.LBB8164:
.LBB8064:
.LBB8054:
.LBB8042:
.LBB8043:
	.loc 5 333 0
	addi 0,4,12
	.cfi_offset 65, 4
	.cfi_offset 31, -4
.LBE8043:
.LBE8042:
.LBE8054:
.LBE8064:
.LBB8065:
.LBB8034:
	.loc 8 149 0
	stw 9,180(1)
.LBE8034:
.LBE8065:
.LBE8164:
	.loc 4 395 0
	mr 31,3
.LBB8165:
.LBB8066:
.LBB8055:
.LBB8050:
.LBB8040:
	.loc 3 424 0
	lfs 0,0(4)
.LBE8040:
.LBE8050:
.LBB8051:
.LBB8048:
	.loc 5 333 0
	mr 11,0
.LBE8048:
.LBE8051:
.LBB8052:
.LBB8041:
	.loc 3 425 0
	lfs 13,4(4)
	.loc 3 426 0
	lfs 11,8(4)
	.loc 3 424 0
	stfs 0,128(1)
	.loc 3 425 0
	stfs 13,132(1)
	.loc 3 426 0
	stfs 11,136(1)
.LBE8041:
.LBE8052:
.LBE8055:
.LBE8066:
.LBB8067:
.LBB8035:
	.loc 8 149 0
	stw 9,176(1)
.LVL1101:
.LBE8035:
.LBE8067:
.LBE8165:
	.loc 5 333 0
	addi 9,1,140
.L498:
.LVL1102:
.LBB8166:
.LBB8068:
.LBB8056:
.LBB8053:
.LBB8049:
.LBB8044:
.LBB8045:
	.loc 3 424 0
	lwz 7,0(11)
	.loc 3 425 0
	lwz 8,4(11)
	.loc 3 426 0
	lwz 10,8(11)
.LBE8045:
.LBE8044:
	.loc 5 333 0
	addi 11,11,12
.LBB8047:
.LBB8046:
	.loc 3 424 0
	stw 7,0(9)
	.loc 3 425 0
	stw 8,4(9)
	.loc 3 426 0
	stw 10,8(9)
.LBE8046:
.LBE8047:
	.loc 5 333 0
	addi 9,9,12
.LVL1103:
	cmpw 7,9,6
	bne+ 7,.L498
.LBE8049:
.LBE8053:
.LBE8056:
.LBE8068:
.LBB8069:
.LBB8070:
	.loc 3 431 0
	lfs 12,4(31)
.LBE8070:
.LBE8069:
.LBB8076:
.LBB8077:
.LBB8078:
	.loc 3 402 0
	lfs 5,16(31)
.LBE8078:
.LBE8077:
.LBE8076:
.LBB8095:
.LBB8071:
	.loc 3 431 0
	fsubs 12,13,12
.LBE8071:
.LBE8095:
.LBB8096:
.LBB8079:
.LBB8080:
	.loc 3 402 0
	lfs 6,28(31)
.LBE8080:
.LBE8079:
.LBB8081:
.LBB8082:
	lfs 8,40(31)
.LBE8082:
.LBE8081:
.LBE8096:
.LBB8097:
.LBB8072:
	.loc 3 431 0
	lfs 13,0(31)
.LBE8072:
.LBE8097:
.LBB8098:
.LBB8099:
.LBB8100:
	.loc 5 454 0
	fmuls 1,12,5
.LBE8100:
.LBE8099:
.LBE8098:
.LBB8105:
.LBB8083:
.LBB8084:
	.loc 3 402 0
	lfs 7,12(31)
.LBE8084:
.LBE8083:
.LBE8105:
.LBB8106:
.LBB8073:
	.loc 3 431 0
	fsubs 13,0,13
.LBE8073:
.LBE8106:
.LBB8107:
.LBB8085:
.LBB8086:
	.loc 3 402 0
	lfs 3,24(31)
.LBE8086:
.LBE8085:
.LBE8107:
.LBB8108:
.LBB8103:
.LBB8101:
	.loc 5 454 0
	fmuls 2,12,6
.LBE8101:
.LBE8103:
.LBE8108:
.LBB8109:
.LBB8087:
.LBB8088:
	.loc 3 402 0
	lfs 4,36(31)
.LBE8088:
.LBE8087:
.LBE8109:
.LBB8110:
.LBB8104:
.LBB8102:
	.loc 5 454 0
	fmuls 12,12,8
.LBE8102:
.LBE8104:
.LBE8110:
.LBB8111:
.LBB8074:
	.loc 3 431 0
	lfs 0,8(31)
.LBE8074:
.LBE8111:
.LBB8112:
.LBB8113:
	.loc 5 454 0
	fmadds 1,13,7,1
.LBE8113:
.LBE8112:
.LBB8120:
.LBB8089:
.LBB8090:
	.loc 3 402 0
	lfs 9,20(31)
.LBE8090:
.LBE8089:
.LBE8120:
.LBB8121:
.LBB8075:
	.loc 3 431 0
	fsubs 0,11,0
.LBE8075:
.LBE8121:
.LBB8122:
.LBB8091:
.LBB8092:
	.loc 3 402 0
	lfs 10,32(31)
.LBE8092:
.LBE8091:
.LBE8122:
.LBB8123:
.LBB8114:
	.loc 5 454 0
	fmadds 2,13,3,2
.LBE8114:
.LBE8123:
.LBB8124:
.LBB8093:
.LBB8094:
	.loc 3 402 0
	lfs 11,44(31)
.LBE8094:
.LBE8093:
.LBE8124:
.LBB8125:
.LBB8115:
	.loc 5 454 0
	fmadds 13,13,4,12
.LBE8115:
.LBE8125:
.LBB8126:
.LBB8057:
	.loc 8 40 0
	lwz 10,56(4)
.LBE8057:
.LBE8126:
.LBB8127:
.LBB8116:
	.loc 5 454 0
	fmadds 1,0,9,1
.LBE8116:
.LBE8127:
.LBB8128:
.LBB8058:
	.loc 8 40 0
	lwz 11,60(4)
.LBE8058:
.LBE8128:
.LBB8129:
.LBB8117:
	.loc 5 454 0
	fmadds 2,0,10,2
.LBE8117:
.LBE8129:
.LBB8130:
.LBB8059:
	.loc 8 40 0
	lwz 9,64(4)
.LVL1104:
.LBE8059:
.LBE8130:
.LBB8131:
.LBB8118:
	.loc 5 454 0
	fmadds 0,0,11,13
.LBE8118:
.LBE8131:
.LBB8132:
.LBB8060:
	.loc 8 40 0
	lwz 7,48(4)
	lwz 8,52(4)
	stw 10,184(1)
.LBE8060:
.LBE8132:
	.loc 4 402 0
	mr 10,0
.LBB8133:
.LBB8061:
	.loc 8 40 0
	stw 11,188(1)
.LBE8061:
.LBE8133:
.LBE8166:
	.loc 5 465 0
	addi 11,1,8
.LBB8167:
.LBB8134:
.LBB8062:
	.loc 8 40 0
	stw 9,192(1)
.LVL1105:
.LBE8062:
.LBE8134:
.LBB8135:
.LBB8136:
.LBB8137:
	.loc 4 395 0
	addi 9,1,44
.LBE8137:
.LBE8136:
.LBE8135:
.LBB8144:
.LBB8063:
	.loc 8 40 0
	stw 7,176(1)
	stw 8,180(1)
.LBE8063:
.LBE8144:
.LBB8145:
.LBB8119:
	.loc 3 424 0
	stfs 1,128(1)
	.loc 3 425 0
	stfs 2,132(1)
	.loc 3 426 0
	stfs 0,136(1)
.LBE8119:
.LBE8145:
.LBB8146:
.LBB8141:
.LBB8138:
	.loc 5 425 0
	stfs 7,44(1)
	stfs 3,48(1)
	stfs 4,52(1)
	.loc 5 426 0
	stfs 5,56(1)
	stfs 6,60(1)
	stfs 8,64(1)
	.loc 5 427 0
	stfs 9,68(1)
	stfs 10,72(1)
	stfs 11,76(1)
.LVL1106:
.L499:
	.loc 4 395 0
	lfs 0,4(10)
.LBE8138:
.LBE8141:
.LBE8146:
.LBB8147:
.LBB8148:
	.loc 5 471 0
	lfs 13,20(9)
	lfs 11,12(9)
	lfs 12,16(9)
	fmuls 11,0,11
	lfs 9,4(9)
	fmuls 12,0,12
	lfs 10,8(9)
	fmuls 0,0,13
.LBE8148:
.LBE8147:
.LBB8151:
.LBB8142:
.LBB8139:
	.loc 4 395 0
	lfs 13,0(10)
.LBE8139:
.LBE8142:
.LBE8151:
.LBB8152:
.LBB8149:
	.loc 5 471 0
	lfs 8,24(9)
	fmadds 12,13,9,12
	lfs 9,28(9)
	fmadds 11,7,13,11
	fmadds 13,13,10,0
.LBE8149:
.LBE8152:
.LBB8153:
.LBB8143:
.LBB8140:
	.loc 4 395 0
	lfs 0,8(10)
.LBE8140:
.LBE8143:
.LBE8153:
.LBB8154:
.LBB8150:
	.loc 5 471 0
	lfs 10,32(9)
	.loc 5 474 0
	addi 10,10,12
.LVL1107:
	.loc 5 471 0
	fmadds 11,8,0,11
	fmadds 12,9,0,12
	fmadds 0,10,0,13
	stfs 11,0(11)
.LVL1108:
	stfs 12,4(11)
.LVL1109:
	stfs 0,8(11)
.LVL1110:
	addi 11,11,12
.LVL1111:
	.loc 5 467 0
	cmpw 7,11,9
	bne+ 7,.L499
	addi 9,1,140
.LVL1112:
	li 10,0
.LVL1113:
.L500:
.LBE8150:
.LBE8154:
.LBB8155:
.LBB8156:
.LBB8157:
.LBB8158:
	.loc 3 424 0
	addi 11,1,8
.LBE8158:
.LBE8157:
	.loc 5 333 0
	cmpwi 7,10,24
.LBB8161:
.LBB8159:
	.loc 3 424 0
	lwzux 7,11,10
.LBE8159:
.LBE8161:
	.loc 5 333 0
	addi 10,10,12
.LBB8162:
.LBB8160:
	.loc 3 425 0
	lwz 8,4(11)
	.loc 3 426 0
	lwz 0,8(11)
	.loc 3 424 0
	stw 7,0(9)
	.loc 3 425 0
	stw 8,4(9)
	.loc 3 426 0
	stw 0,8(9)
	addi 9,9,12
.LBE8160:
.LBE8162:
	.loc 5 333 0
	bne+ 7,.L500
.LBE8156:
.LBE8155:
	.loc 4 404 0
	addi 3,1,128
.LVL1114:
	addi 4,1,196
.LVL1115:
	addi 5,1,80
	bl _ZNK9idFrustum26ToIndexPointsAndCornerVecsEP6idVec3S1_
.LVL1116:
	.loc 4 406 0
	mr 3,31
	addi 4,1,128
	addi 5,1,196
	addi 6,1,80
	bl _ZNK9idFrustum16CullLocalFrustumERKS_PK6idVec3S4_
.LBE8167:
	.loc 4 407 0
	lwz 0,308(1)
	lwz 31,300(1)
.LVL1117:
	mtlr 0
	addi 1,1,304
.LCFI87:
	.cfi_def_cfa_offset 0
	.cfi_restore 31
	blr
	.cfi_endproc
.LFE2547:
	.size	_ZNK9idFrustum11CullFrustumERKS_, .-_ZNK9idFrustum11CullFrustumERKS_
	.align 2
	.globl _ZNK9idFrustum17IntersectsFrustumERKS_
	.type	_ZNK9idFrustum17IntersectsFrustumERKS_, @function
_ZNK9idFrustum17IntersectsFrustumERKS_:
.LFB2560:
	.loc 4 1055 0
	.cfi_startproc
.LVL1118:
	mflr 0
	stwu 1,-600(1)
.LCFI88:
	.cfi_def_cfa_offset 600
	.cfi_register 65, 0
.LBB8335:
.LBB8336:
.LBB8337:
	.loc 8 149 0
	li 9,0
.LBE8337:
.LBE8336:
.LBE8335:
	.loc 4 1055 0
	stw 30,584(1)
.LBB8689:
.LBB8340:
.LBB8341:
.LBB8342:
.LBB8343:
	addi 6,1,364
.LBE8343:
.LBE8342:
.LBE8341:
.LBE8340:
.LBE8689:
	stw 0,604(1)
.LBB8690:
.LBB8366:
.LBB8356:
.LBB8345:
.LBB8346:
	.loc 5 333 0
	addi 0,4,12
	.cfi_offset 65, 4
	.cfi_offset 30, -16
.LBE8346:
.LBE8345:
.LBE8356:
.LBE8366:
.LBE8690:
	.loc 4 1055 0
	stw 31,588(1)
	mr 30,4
	stfd 31,592(1)
	.loc 4 1055 0
	mr 31,3
	.cfi_offset 63, -8
	.cfi_offset 31, -12
.LBB8691:
.LBB8367:
.LBB8338:
	.loc 8 149 0
	stw 9,368(1)
.LBE8338:
.LBE8367:
.LBB8368:
.LBB8357:
.LBB8353:
.LBB8351:
	.loc 5 333 0
	mr 11,0
.LBE8351:
.LBE8353:
.LBB8354:
.LBB8344:
	.loc 3 424 0
	lfs 0,0(4)
	.loc 3 425 0
	lfs 13,4(4)
	.loc 3 426 0
	lfs 11,8(4)
	.loc 3 424 0
	stfs 0,316(1)
	.loc 3 425 0
	stfs 13,320(1)
	.loc 3 426 0
	stfs 11,324(1)
.LBE8344:
.LBE8354:
.LBE8357:
.LBE8368:
.LBB8369:
.LBB8339:
	.loc 8 149 0
	stw 9,364(1)
.LVL1119:
.LBE8339:
.LBE8369:
.LBE8691:
	.loc 5 333 0
	addi 9,1,328
.L505:
.LVL1120:
.LBB8692:
.LBB8370:
.LBB8358:
.LBB8355:
.LBB8352:
.LBB8347:
.LBB8348:
	.loc 3 424 0
	lwz 7,0(11)
	.loc 3 425 0
	lwz 8,4(11)
	.loc 3 426 0
	lwz 10,8(11)
.LBE8348:
.LBE8347:
	.loc 5 333 0
	addi 11,11,12
.LBB8350:
.LBB8349:
	.loc 3 424 0
	stw 7,0(9)
	.loc 3 425 0
	stw 8,4(9)
	.loc 3 426 0
	stw 10,8(9)
.LBE8349:
.LBE8350:
	.loc 5 333 0
	addi 9,9,12
.LVL1121:
	cmpw 7,9,6
	bne+ 7,.L505
.LBE8352:
.LBE8355:
.LBE8358:
.LBE8370:
.LBB8371:
.LBB8372:
	.loc 3 431 0
	lfs 12,4(31)
.LBE8372:
.LBE8371:
.LBB8378:
.LBB8379:
.LBB8380:
	.loc 3 402 0
	lfs 5,16(31)
.LBE8380:
.LBE8379:
.LBE8378:
.LBB8397:
.LBB8373:
	.loc 3 431 0
	fsubs 12,13,12
.LBE8373:
.LBE8397:
.LBB8398:
.LBB8381:
.LBB8382:
	.loc 3 402 0
	lfs 6,28(31)
.LBE8382:
.LBE8381:
.LBB8383:
.LBB8384:
	lfs 8,40(31)
.LBE8384:
.LBE8383:
.LBE8398:
.LBB8399:
.LBB8374:
	.loc 3 431 0
	lfs 13,0(31)
.LBE8374:
.LBE8399:
.LBB8400:
.LBB8401:
.LBB8402:
	.loc 5 454 0
	fmuls 1,12,5
.LBE8402:
.LBE8401:
.LBE8400:
.LBB8407:
.LBB8385:
.LBB8386:
	.loc 3 402 0
	lfs 7,12(31)
.LBE8386:
.LBE8385:
.LBE8407:
.LBB8408:
.LBB8375:
	.loc 3 431 0
	fsubs 13,0,13
.LBE8375:
.LBE8408:
.LBB8409:
.LBB8387:
.LBB8388:
	.loc 3 402 0
	lfs 3,24(31)
.LBE8388:
.LBE8387:
.LBE8409:
.LBB8410:
.LBB8405:
.LBB8403:
	.loc 5 454 0
	fmuls 2,12,6
.LBE8403:
.LBE8405:
.LBE8410:
.LBB8411:
.LBB8389:
.LBB8390:
	.loc 3 402 0
	lfs 4,36(31)
.LBE8390:
.LBE8389:
.LBE8411:
.LBB8412:
.LBB8406:
.LBB8404:
	.loc 5 454 0
	fmuls 12,12,8
.LBE8404:
.LBE8406:
.LBE8412:
.LBB8413:
.LBB8376:
	.loc 3 431 0
	lfs 0,8(31)
.LBE8376:
.LBE8413:
.LBB8414:
.LBB8415:
	.loc 5 454 0
	fmadds 1,13,7,1
.LBE8415:
.LBE8414:
.LBB8422:
.LBB8391:
.LBB8392:
	.loc 3 402 0
	lfs 9,20(31)
.LBE8392:
.LBE8391:
.LBE8422:
.LBB8423:
.LBB8377:
	.loc 3 431 0
	fsubs 0,11,0
.LBE8377:
.LBE8423:
.LBB8424:
.LBB8393:
.LBB8394:
	.loc 3 402 0
	lfs 10,32(31)
.LBE8394:
.LBE8393:
.LBE8424:
.LBB8425:
.LBB8416:
	.loc 5 454 0
	fmadds 2,13,3,2
.LBE8416:
.LBE8425:
.LBB8426:
.LBB8395:
.LBB8396:
	.loc 3 402 0
	lfs 11,44(31)
.LBE8396:
.LBE8395:
.LBE8426:
.LBB8427:
.LBB8417:
	.loc 5 454 0
	fmadds 13,13,4,12
.LBE8417:
.LBE8427:
.LBB8428:
.LBB8359:
	.loc 8 40 0
	lwz 11,60(30)
.LBE8359:
.LBE8428:
.LBB8429:
.LBB8418:
	.loc 5 454 0
	fmadds 1,0,9,1
.LBE8418:
.LBE8429:
.LBB8430:
.LBB8360:
	.loc 8 40 0
	lwz 9,64(30)
.LVL1122:
.LBE8360:
.LBE8430:
.LBB8431:
.LBB8419:
	.loc 5 454 0
	fmadds 2,0,10,2
.LBE8419:
.LBE8431:
.LBB8432:
.LBB8361:
	.loc 8 40 0
	lwz 7,48(30)
.LBE8361:
.LBE8432:
.LBB8433:
.LBB8420:
	.loc 5 454 0
	fmadds 0,0,11,13
.LBE8420:
.LBE8433:
.LBB8434:
.LBB8362:
	.loc 8 40 0
	lwz 8,52(30)
	lwz 10,56(30)
	stw 11,376(1)
.LBE8362:
.LBE8434:
.LBE8692:
	.loc 5 465 0
	addi 11,1,80
.LBB8693:
.LBB8435:
.LBB8363:
	.loc 8 40 0
	stw 9,380(1)
.LVL1123:
.LBE8363:
.LBE8435:
	.loc 4 1061 0
	mr 9,0
.LBB8436:
.LBB8364:
	.loc 8 40 0
	stw 7,364(1)
.LBE8364:
.LBE8436:
.LBB8437:
.LBB8438:
.LBB8439:
	.loc 4 1055 0
	addi 0,30,48
.LVL1124:
.LBE8439:
.LBE8438:
.LBE8437:
.LBB8446:
.LBB8365:
	.loc 8 40 0
	stw 8,368(1)
	stw 10,372(1)
.LBE8365:
.LBE8446:
.LBB8447:
.LBB8421:
	.loc 3 424 0
	stfs 1,316(1)
	.loc 3 425 0
	stfs 2,320(1)
	.loc 3 426 0
	stfs 0,324(1)
.LBE8421:
.LBE8447:
.LBB8448:
.LBB8443:
.LBB8440:
	.loc 5 425 0
	stfs 7,116(1)
	stfs 3,120(1)
	stfs 4,124(1)
	.loc 5 426 0
	stfs 5,128(1)
	stfs 6,132(1)
	stfs 8,136(1)
	.loc 5 427 0
	stfs 9,140(1)
	stfs 10,144(1)
	stfs 11,148(1)
.LVL1125:
.L506:
	.loc 4 1055 0
	lfs 0,4(9)
.LBE8440:
.LBE8443:
.LBE8448:
.LBB8449:
.LBB8450:
	.loc 5 471 0
	lfs 13,136(1)
	lfs 11,128(1)
	lfs 12,132(1)
	fmuls 11,0,11
	lfs 9,120(1)
	fmuls 12,0,12
	lfs 10,124(1)
	fmuls 0,0,13
.LBE8450:
.LBE8449:
.LBB8455:
.LBB8444:
.LBB8441:
	.loc 4 1055 0
	lfs 13,0(9)
.LBE8441:
.LBE8444:
.LBE8455:
.LBB8456:
.LBB8451:
	.loc 5 471 0
	lfs 8,140(1)
	fmadds 12,13,9,12
	lfs 9,144(1)
	fmadds 11,7,13,11
	fmadds 13,13,10,0
.LBE8451:
.LBE8456:
.LBB8457:
.LBB8445:
.LBB8442:
	.loc 4 1055 0
	lfs 0,8(9)
.LBE8442:
.LBE8445:
.LBE8457:
.LBB8458:
.LBB8452:
	.loc 5 471 0
	lfs 10,148(1)
	.loc 5 474 0
	addi 9,9,12
.LVL1126:
	.loc 5 467 0
	cmpw 7,9,0
	.loc 5 471 0
	fmadds 11,0,8,11
	fmadds 12,0,9,12
	fmadds 0,0,10,13
	stfs 11,0(11)
.LVL1127:
	stfs 12,4(11)
.LVL1128:
	stfs 0,8(11)
.LVL1129:
	addi 11,11,12
.LVL1130:
	.loc 5 467 0
	bne+ 7,.L506
	addi 9,1,328
.LVL1131:
	li 10,0
.LVL1132:
.L507:
.LBE8452:
.LBE8458:
.LBB8459:
.LBB8460:
.LBB8461:
.LBB8462:
	.loc 3 424 0
	addi 11,1,80
.LBE8462:
.LBE8461:
	.loc 5 333 0
	cmpwi 7,10,24
.LBB8465:
.LBB8463:
	.loc 3 424 0
	lwzux 7,11,10
.LBE8463:
.LBE8465:
	.loc 5 333 0
	addi 10,10,12
.LBB8466:
.LBB8464:
	.loc 3 425 0
	lwz 8,4(11)
	.loc 3 426 0
	lwz 0,8(11)
	.loc 3 424 0
	stw 7,0(9)
	.loc 3 425 0
	stw 8,4(9)
	.loc 3 426 0
	stw 0,8(9)
	addi 9,9,12
.LBE8464:
.LBE8466:
	.loc 5 333 0
	bne+ 7,.L507
.LBE8460:
.LBE8459:
	.loc 4 1062 0
	addi 3,1,316
.LVL1133:
	addi 4,1,480
.LVL1134:
	addi 5,1,200
	bl _ZNK9idFrustum26ToIndexPointsAndCornerVecsEP6idVec3S1_
.LVL1135:
	.loc 4 1064 0
	mr 3,31
	addi 4,1,316
	addi 5,1,480
	addi 6,1,200
	bl _ZNK9idFrustum16CullLocalFrustumERKS_PK6idVec3S4_
	cmpwi 7,3,0
	.loc 4 1065 0
	li 3,0
	.loc 4 1064 0
	beq- 7,.L521
.LVL1136:
.L508:
.LBE8693:
	.loc 4 1095 0
	lwz 0,604(1)
	lwz 30,584(1)
.LVL1137:
	mtlr 0
	lwz 31,588(1)
.LVL1138:
	lfd 31,592(1)
	addi 1,1,600
	.cfi_remember_state
.LCFI89:
	.cfi_def_cfa_offset 0
	.cfi_restore 63
	.cfi_restore 31
	.cfi_restore 30
	blr
.LVL1139:
.L521:
.LCFI90:
	.cfi_restore_state
.LBB8694:
.LBB8467:
.LBB8468:
.LBB8469:
.LBB8470:
	.loc 3 424 0 discriminator 3
	lfs 13,0(31)
.LBE8470:
.LBE8469:
.LBE8468:
.LBE8467:
.LBB8498:
.LBB8499:
	.loc 8 149 0 discriminator 3
	li 0,0
.LBE8499:
.LBE8498:
.LBB8502:
.LBB8489:
.LBB8475:
.LBB8471:
	.loc 3 425 0 discriminator 3
	lfs 12,4(31)
.LBE8471:
.LBE8475:
.LBB8476:
.LBB8477:
	.loc 5 333 0 discriminator 3
	addi 9,31,12
.LBE8477:
.LBE8476:
.LBB8484:
.LBB8472:
	.loc 3 426 0 discriminator 3
	lfs 0,8(31)
.LBE8472:
.LBE8484:
.LBB8485:
.LBB8482:
	.loc 5 333 0 discriminator 3
	mr 10,9
.LBE8482:
.LBE8485:
.LBE8489:
.LBE8502:
.LBB8503:
.LBB8500:
	.loc 8 149 0 discriminator 3
	stw 0,300(1)
.LBE8500:
.LBE8503:
.LBB8504:
.LBB8490:
.LBB8486:
.LBB8473:
	.loc 4 1055 0 discriminator 3
	addi 6,1,296
.LBE8473:
.LBE8486:
.LBE8490:
.LBE8504:
.LBB8505:
.LBB8501:
	.loc 8 149 0 discriminator 3
	stw 0,296(1)
.LVL1140:
.LBE8501:
.LBE8505:
.LBB8506:
.LBB8453:
	.loc 5 333 0 discriminator 3
	addi 11,1,260
.LBE8453:
.LBE8506:
.LBB8507:
.LBB8491:
.LBB8487:
.LBB8474:
	.loc 3 424 0 discriminator 3
	stfs 13,248(1)
	.loc 3 425 0 discriminator 3
	stfs 12,252(1)
	.loc 3 426 0 discriminator 3
	stfs 0,256(1)
.LVL1141:
.L509:
.LBE8474:
.LBE8487:
.LBB8488:
.LBB8483:
.LBB8478:
.LBB8479:
	.loc 3 424 0
	lwz 7,0(10)
	.loc 3 425 0
	lwz 8,4(10)
	.loc 3 426 0
	lwz 0,8(10)
.LBE8479:
.LBE8478:
	.loc 5 333 0
	addi 10,10,12
.LBB8481:
.LBB8480:
	.loc 3 424 0
	stw 7,0(11)
	.loc 3 425 0
	stw 8,4(11)
	.loc 3 426 0
	stw 0,8(11)
.LBE8480:
.LBE8481:
	.loc 5 333 0
	addi 11,11,12
.LVL1142:
	cmpw 7,11,6
	bne+ 7,.L509
.LBE8483:
.LBE8488:
.LBE8491:
.LBE8507:
.LBB8508:
.LBB8509:
	.loc 3 431 0
	lfs 11,4(30)
.LBE8509:
.LBE8508:
.LBB8515:
.LBB8516:
.LBB8517:
	.loc 3 402 0
	lfs 5,16(30)
.LBE8517:
.LBE8516:
.LBE8515:
.LBB8534:
.LBB8510:
	.loc 3 431 0
	fsubs 12,12,11
.LBE8510:
.LBE8534:
.LBB8535:
.LBB8518:
.LBB8519:
	.loc 3 402 0
	lfs 6,28(30)
.LBE8519:
.LBE8518:
.LBB8520:
.LBB8521:
	lfs 8,40(30)
.LBE8521:
.LBE8520:
.LBE8535:
.LBB8536:
.LBB8511:
	.loc 3 431 0
	lfs 11,0(30)
.LBE8511:
.LBE8536:
.LBB8537:
.LBB8538:
.LBB8539:
	.loc 5 454 0
	fmuls 1,12,5
.LBE8539:
.LBE8538:
.LBE8537:
.LBB8544:
.LBB8522:
.LBB8523:
	.loc 3 402 0
	lfs 7,12(30)
.LBE8523:
.LBE8522:
.LBE8544:
.LBB8545:
.LBB8512:
	.loc 3 431 0
	fsubs 13,13,11
.LBE8512:
.LBE8545:
.LBB8546:
.LBB8524:
.LBB8525:
	.loc 3 402 0
	lfs 3,24(30)
.LBE8525:
.LBE8524:
.LBE8546:
.LBB8547:
.LBB8542:
.LBB8540:
	.loc 5 454 0
	fmuls 2,12,6
.LBE8540:
.LBE8542:
.LBE8547:
.LBB8548:
.LBB8526:
.LBB8527:
	.loc 3 402 0
	lfs 4,36(30)
.LBE8527:
.LBE8526:
.LBE8548:
.LBB8549:
.LBB8543:
.LBB8541:
	.loc 5 454 0
	fmuls 12,12,8
.LBE8541:
.LBE8543:
.LBE8549:
.LBB8550:
.LBB8513:
	.loc 3 431 0
	lfs 11,8(30)
.LBE8513:
.LBE8550:
.LBB8551:
.LBB8552:
	.loc 5 454 0
	fmadds 1,13,7,1
.LBE8552:
.LBE8551:
.LBB8559:
.LBB8528:
.LBB8529:
	.loc 3 402 0
	lfs 9,20(30)
.LBE8529:
.LBE8528:
.LBE8559:
.LBB8560:
.LBB8514:
	.loc 3 431 0
	fsubs 0,0,11
.LBE8514:
.LBE8560:
.LBB8561:
.LBB8530:
.LBB8531:
	.loc 3 402 0
	lfs 10,32(30)
.LBE8531:
.LBE8530:
.LBE8561:
.LBB8562:
.LBB8553:
	.loc 5 454 0
	fmadds 2,13,3,2
.LBE8553:
.LBE8562:
.LBB8563:
.LBB8532:
.LBB8533:
	.loc 3 402 0
	lfs 11,44(30)
.LBE8533:
.LBE8532:
.LBE8563:
.LBB8564:
.LBB8554:
	.loc 5 454 0
	fmadds 13,13,4,12
.LBE8554:
.LBE8564:
.LBB8565:
.LBB8492:
	.loc 8 40 0
	lwz 11,60(31)
.LVL1143:
.LBE8492:
.LBE8565:
.LBB8566:
.LBB8555:
	.loc 5 454 0
	fmadds 1,0,9,1
.LBE8555:
.LBE8566:
.LBB8567:
.LBB8493:
	.loc 8 40 0
	lwz 0,64(31)
.LBE8493:
.LBE8567:
.LBB8568:
.LBB8556:
	.loc 5 454 0
	fmadds 2,0,10,2
.LBE8556:
.LBE8568:
.LBB8569:
.LBB8494:
	.loc 8 40 0
	lwz 7,48(31)
.LBE8494:
.LBE8569:
.LBB8570:
.LBB8557:
	.loc 5 454 0
	fmadds 0,0,11,13
.LBE8557:
.LBE8570:
.LBB8571:
.LBB8495:
	.loc 8 40 0
	lwz 8,52(31)
	lwz 10,56(31)
	stw 11,308(1)
.LBE8495:
.LBE8571:
.LBB8572:
.LBB8454:
	.loc 5 465 0
	addi 11,1,8
.LBE8454:
.LBE8572:
.LBB8573:
.LBB8496:
	.loc 8 40 0
	stw 0,312(1)
.LVL1144:
.LBE8496:
.LBE8573:
.LBB8574:
.LBB8575:
.LBB8576:
	.loc 4 1055 0
	addi 0,31,48
.LBE8576:
.LBE8575:
.LBE8574:
.LBB8583:
.LBB8497:
	.loc 8 40 0
	stw 7,296(1)
	stw 8,300(1)
	stw 10,304(1)
.LBE8497:
.LBE8583:
.LBB8584:
.LBB8558:
	.loc 3 424 0
	stfs 1,248(1)
	.loc 3 425 0
	stfs 2,252(1)
	.loc 3 426 0
	stfs 0,256(1)
.LBE8558:
.LBE8584:
.LBB8585:
.LBB8580:
.LBB8577:
	.loc 5 425 0
	stfs 7,44(1)
	stfs 3,48(1)
	stfs 4,52(1)
	.loc 5 426 0
	stfs 5,56(1)
	stfs 6,60(1)
	stfs 8,64(1)
	.loc 5 427 0
	stfs 9,68(1)
	stfs 10,72(1)
	stfs 11,76(1)
.LVL1145:
.L510:
	.loc 4 1055 0
	lfs 0,4(9)
.LBE8577:
.LBE8580:
.LBE8585:
.LBB8586:
.LBB8587:
	.loc 5 471 0
	lfs 13,64(1)
	lfs 11,56(1)
	lfs 12,60(1)
	fmuls 11,0,11
	lfs 9,48(1)
	fmuls 12,0,12
	lfs 10,52(1)
	fmuls 0,0,13
.LBE8587:
.LBE8586:
.LBB8590:
.LBB8581:
.LBB8578:
	.loc 4 1055 0
	lfs 13,0(9)
.LBE8578:
.LBE8581:
.LBE8590:
.LBB8591:
.LBB8588:
	.loc 5 471 0
	lfs 8,68(1)
	fmadds 12,13,9,12
	lfs 9,72(1)
	fmadds 11,7,13,11
	fmadds 13,13,10,0
.LBE8588:
.LBE8591:
.LBB8592:
.LBB8582:
.LBB8579:
	.loc 4 1055 0
	lfs 0,8(9)
.LBE8579:
.LBE8582:
.LBE8592:
.LBB8593:
.LBB8589:
	.loc 5 471 0
	lfs 10,76(1)
	.loc 5 474 0
	addi 9,9,12
.LVL1146:
	.loc 5 467 0
	cmpw 7,9,0
	.loc 5 471 0
	fmadds 11,8,0,11
	fmadds 12,9,0,12
	fmadds 0,10,0,13
	stfs 11,0(11)
.LVL1147:
	stfs 12,4(11)
.LVL1148:
	stfs 0,8(11)
.LVL1149:
	addi 11,11,12
.LVL1150:
	.loc 5 467 0
	bne+ 7,.L510
	addi 9,1,260
.LVL1151:
	li 10,0
.LVL1152:
.L511:
.LBE8589:
.LBE8593:
.LBB8594:
.LBB8595:
.LBB8596:
.LBB8597:
	.loc 3 424 0
	addi 11,1,8
.LBE8597:
.LBE8596:
	.loc 5 333 0
	cmpwi 7,10,24
.LBB8600:
.LBB8598:
	.loc 3 424 0
	lwzux 7,11,10
.LBE8598:
.LBE8600:
	.loc 5 333 0
	addi 10,10,12
.LBB8601:
.LBB8599:
	.loc 3 425 0
	lwz 8,4(11)
	.loc 3 426 0
	lwz 0,8(11)
	.loc 3 424 0
	stw 7,0(9)
	.loc 3 425 0
	stw 8,4(9)
	.loc 3 426 0
	stw 0,8(9)
	addi 9,9,12
.LBE8599:
.LBE8601:
	.loc 5 333 0
	bne+ 7,.L511
.LBE8595:
.LBE8594:
	.loc 4 1074 0
	addi 3,1,248
	addi 4,1,384
	addi 5,1,152
	bl _ZNK9idFrustum26ToIndexPointsAndCornerVecsEP6idVec3S1_
.LVL1153:
	.loc 4 1076 0
	mr 3,30
	addi 4,1,248
	addi 5,1,384
	addi 6,1,152
	bl _ZNK9idFrustum16CullLocalFrustumERKS_PK6idVec3S4_
	cmpwi 7,3,0
	.loc 4 1077 0
	li 3,0
	.loc 4 1076 0
	bne- 7,.L508
.LVL1154:
.LBB8602:
.LBB8603:
.LBB8604:
.LBB8605:
	.loc 3 424 0
	lwz 6,516(1)
.LBE8605:
.LBE8604:
.LBE8603:
.LBE8602:
	.loc 4 1083 0
	lis 9,.LC0@ha
.LBB8620:
	.file 12 "d:/Data/Nintendo/DoomGX/src/idlib/bv/../../idlib/containers/List.h"
	.loc 12 86 0
	lwz 7,504(1)
.LVL1155:
.LBE8620:
	.loc 4 1083 0
	mr 3,31
.LBB8621:
	.loc 12 86 0
	lwz 10,512(1)
.LBE8621:
	.loc 4 1083 0
	addi 4,1,480
.LBB8622:
.LBB8616:
.LBB8609:
.LBB8606:
	.loc 3 424 0
	stw 6,504(1)
	.loc 3 425 0
	lwz 6,520(1)
.LBE8606:
.LBE8609:
.LBE8616:
	.loc 12 86 0
	lwz 8,508(1)
.LVL1156:
.LBE8622:
	.loc 4 1083 0
	lfs 31,.LC0@l(9)
	lfs 0,364(1)
.LBB8623:
.LBB8617:
.LBB8610:
.LBB8607:
	.loc 3 425 0
	stw 6,508(1)
	.loc 3 426 0
	lwz 6,524(1)
.LBE8607:
.LBE8610:
.LBE8617:
.LBE8623:
	.loc 4 1083 0
	fcmpu 7,0,31
.LBB8624:
.LBB8618:
.LBB8611:
.LBB8612:
	.loc 3 426 0
	stw 10,524(1)
.LBE8612:
.LBE8611:
.LBE8618:
.LBE8624:
.LBB8625:
.LBB8626:
.LBB8627:
.LBB8628:
	.loc 3 424 0
	lwz 10,564(1)
.LBE8628:
.LBE8627:
.LBE8626:
.LBE8625:
	.loc 4 1083 0
	mfcr 5
	rlwinm 5,5,30,1
.LBB8640:
	.loc 12 86 0
	lwz 11,552(1)
.LBB8637:
.LBB8632:
.LBB8629:
	.loc 3 424 0
	stw 10,552(1)
	.loc 3 425 0
	lwz 10,568(1)
.LBE8629:
.LBE8632:
.LBE8637:
	.loc 12 86 0
	lwz 9,556(1)
	lwz 0,560(1)
.LBB8638:
.LBB8633:
.LBB8630:
	.loc 3 425 0
	stw 10,556(1)
	.loc 3 426 0
	lwz 10,572(1)
.LBE8630:
.LBE8633:
.LBE8638:
.LBE8640:
.LBB8641:
.LBB8619:
.LBB8614:
.LBB8608:
	stw 6,512(1)
.LVL1157:
.LBE8608:
.LBE8614:
.LBB8615:
.LBB8613:
	.loc 3 424 0
	stw 7,516(1)
	.loc 3 425 0
	stw 8,520(1)
.LBE8613:
.LBE8615:
.LBE8619:
.LBE8641:
.LBB8642:
.LBB8639:
.LBB8634:
.LBB8631:
	.loc 3 426 0
	stw 10,560(1)
.LVL1158:
.LBE8631:
.LBE8634:
.LBB8635:
.LBB8636:
	.loc 3 424 0
	stw 11,564(1)
	.loc 3 425 0
	stw 9,568(1)
	.loc 3 426 0
	stw 0,572(1)
.LBE8636:
.LBE8635:
.LBE8639:
.LBE8642:
	.loc 4 1083 0
	bl _ZNK9idFrustum29LocalFrustumIntersectsFrustumEPK6idVec3b
.LVL1159:
	cmpwi 7,3,0
	.loc 4 1084 0
	li 3,1
	.loc 4 1083 0
	bne- 7,.L508
.LVL1160:
.LBB8643:
.LBB8644:
.LBB8645:
.LBB8646:
	.loc 3 424 0
	lwz 6,420(1)
.LBE8646:
.LBE8645:
.LBE8644:
.LBE8643:
	.loc 4 1090 0
	mr 3,30
.LBB8662:
	.loc 12 86 0
	lwz 7,408(1)
.LVL1161:
.LBE8662:
	.loc 4 1090 0
	addi 4,1,384
.LBB8663:
	.loc 12 86 0
	lwz 10,416(1)
.LBB8657:
.LBB8650:
.LBB8647:
	.loc 3 424 0
	stw 6,408(1)
	.loc 3 425 0
	lwz 6,424(1)
.LBE8647:
.LBE8650:
.LBE8657:
	.loc 12 86 0
	lwz 8,412(1)
.LVL1162:
.LBE8663:
	.loc 4 1090 0
	lfs 0,296(1)
.LBB8664:
.LBB8658:
.LBB8651:
.LBB8648:
	.loc 3 425 0
	stw 6,412(1)
	.loc 3 426 0
	lwz 6,428(1)
.LBE8648:
.LBE8651:
.LBE8658:
.LBE8664:
	.loc 4 1090 0
	fcmpu 7,0,31
.LBB8665:
.LBB8659:
.LBB8652:
.LBB8653:
	.loc 3 426 0
	stw 10,428(1)
.LBE8653:
.LBE8652:
.LBE8659:
.LBE8665:
.LBB8666:
.LBB8667:
.LBB8668:
.LBB8669:
	.loc 3 424 0
	lwz 10,468(1)
.LBE8669:
.LBE8668:
.LBE8667:
.LBE8666:
	.loc 4 1090 0
	mfcr 5
	rlwinm 5,5,30,1
.LBB8684:
	.loc 12 86 0
	lwz 11,456(1)
.LBB8680:
.LBB8673:
.LBB8670:
	.loc 3 424 0
	stw 10,456(1)
	.loc 3 425 0
	lwz 10,472(1)
.LBE8670:
.LBE8673:
.LBE8680:
	.loc 12 86 0
	lwz 0,464(1)
	lwz 9,460(1)
.LBB8681:
.LBB8674:
.LBB8671:
	.loc 3 425 0
	stw 10,460(1)
	.loc 3 426 0
	lwz 10,476(1)
.LBE8671:
.LBE8674:
.LBE8681:
.LBE8684:
.LBB8685:
.LBB8660:
.LBB8655:
.LBB8649:
	stw 6,416(1)
.LVL1163:
.LBE8649:
.LBE8655:
.LBE8660:
.LBE8685:
.LBB8686:
.LBB8682:
.LBB8675:
.LBB8676:
	stw 0,476(1)
.LBE8676:
.LBE8675:
.LBE8682:
.LBE8686:
.LBB8687:
.LBB8661:
.LBB8656:
.LBB8654:
	.loc 3 424 0
	stw 7,420(1)
	.loc 3 425 0
	stw 8,424(1)
.LBE8654:
.LBE8656:
.LBE8661:
.LBE8687:
.LBB8688:
.LBB8683:
.LBB8678:
.LBB8672:
	.loc 3 426 0
	stw 10,464(1)
.LVL1164:
.LBE8672:
.LBE8678:
.LBB8679:
.LBB8677:
	.loc 3 424 0
	stw 11,468(1)
	.loc 3 425 0
	stw 9,472(1)
.LBE8677:
.LBE8679:
.LBE8683:
.LBE8688:
	.loc 4 1090 0
	bl _ZNK9idFrustum29LocalFrustumIntersectsFrustumEPK6idVec3b
.LVL1165:
.LBE8694:
	.loc 4 1095 0
	lwz 0,604(1)
	lwz 30,584(1)
.LVL1166:
	mtlr 0
	lwz 31,588(1)
.LVL1167:
	lfd 31,592(1)
	addi 1,1,600
	.cfi_restore 30
	.cfi_restore 31
	.cfi_restore 63
.LCFI91:
	.cfi_def_cfa_offset 0
	blr
	.cfi_endproc
.LFE2560:
	.size	_ZNK9idFrustum17IntersectsFrustumERKS_, .-_ZNK9idFrustum17IntersectsFrustumERKS_
	.align 2
	.globl _ZNK9idFrustum13IntersectsBoxERK5idBox
	.type	_ZNK9idFrustum13IntersectsBoxERK5idBox, @function
_ZNK9idFrustum13IntersectsBoxERK5idBox:
.LFB2558:
	.loc 4 907 0
	.cfi_startproc
.LVL1168:
	mflr 0
	stwu 1,-536(1)
.LCFI92:
	.cfi_def_cfa_offset 536
	.cfi_register 65, 0
.LBB8854:
.LBB8855:
.LBB8856:
	.loc 4 912 0
	addi 9,4,24
.LBE8856:
.LBE8855:
.LBE8854:
	.loc 4 907 0
	stw 29,476(1)
	.loc 5 465 0
	addi 11,1,140
	.loc 4 907 0
	stw 0,540(1)
	mr 29,4
	.cfi_offset 65, 4
	.cfi_offset 29, -60
.LVL1169:
	stw 31,484(1)
.LBB9144:
.LBB8863:
.LBB8864:
.LBB8865:
	addi 0,4,60
.LBE8865:
.LBE8864:
.LBE8863:
.LBE9144:
	stfd 26,488(1)
	mr 31,3
	.cfi_offset 58, -48
	.cfi_offset 31, -52
	stfd 27,496(1)
	stfd 28,504(1)
	stfd 29,512(1)
	stfd 30,520(1)
	stfd 31,528(1)
	stw 30,480(1)
.LBB9145:
.LBB8880:
.LBB8881:
	.loc 3 431 0
	lfs 13,4(4)
	lfs 0,4(3)
.LBE8881:
.LBE8880:
.LBB8888:
.LBB8889:
.LBB8890:
	.loc 3 402 0
	lfs 6,16(3)
.LBE8890:
.LBE8889:
.LBE8888:
.LBB8907:
.LBB8882:
	.loc 3 431 0
	fsubs 0,13,0
.LBE8882:
.LBE8907:
.LBB8908:
.LBB8891:
.LBB8892:
	.loc 3 402 0
	lfs 9,40(3)
.LBE8892:
.LBE8891:
.LBE8908:
.LBB8909:
.LBB8883:
	.loc 3 431 0
	lfs 12,0(4)
.LBE8883:
.LBE8909:
.LBB8910:
.LBB8893:
.LBB8894:
	.loc 3 402 0
	lfs 8,28(3)
.LBE8894:
.LBE8893:
.LBE8910:
.LBB8911:
.LBB8884:
	.loc 3 431 0
	lfs 13,0(3)
.LBE8884:
.LBE8911:
.LBB8912:
.LBB8913:
.LBB8914:
	.loc 5 454 0
	fmuls 2,0,6
	fmuls 3,0,8
.LBE8914:
.LBE8913:
.LBE8912:
.LBB8917:
.LBB8895:
.LBB8896:
	.loc 3 402 0
	lfs 7,12(3)
.LBE8896:
.LBE8895:
.LBE8917:
.LBB8918:
.LBB8885:
	.loc 3 431 0
	fsubs 13,12,13
.LBE8885:
.LBE8918:
.LBB8919:
.LBB8897:
.LBB8898:
	.loc 3 402 0
	lfs 4,24(3)
.LBE8898:
.LBE8897:
.LBE8919:
.LBB8920:
.LBB8916:
.LBB8915:
	.loc 5 454 0
	fmuls 12,0,9
.LBE8915:
.LBE8916:
.LBE8920:
.LBB8921:
.LBB8899:
.LBB8900:
	.loc 3 402 0
	lfs 5,36(3)
.LBE8900:
.LBE8899:
.LBE8921:
.LBB8922:
.LBB8886:
	.loc 3 431 0
	lfs 11,8(4)
	lfs 0,8(3)
.LBE8886:
.LBE8922:
.LBB8923:
.LBB8857:
	.loc 5 454 0
	fmadds 2,13,7,2
	fmadds 3,13,4,3
.LBE8857:
.LBE8923:
.LBB8924:
.LBB8901:
.LBB8902:
	.loc 3 402 0
	lfs 10,20(3)
.LBE8902:
.LBE8901:
.LBE8924:
.LBB8925:
.LBB8887:
	.loc 3 431 0
	fsubs 0,11,0
.LVL1170:
.LBE8887:
.LBE8925:
.LBB8926:
.LBB8903:
.LBB8904:
	.loc 3 402 0
	lfs 11,32(3)
.LVL1171:
.LBE8904:
.LBE8903:
.LBE8926:
.LBB8927:
.LBB8858:
	.loc 5 454 0
	fmadds 13,13,5,12
.LVL1172:
.LBE8858:
.LBE8927:
.LBB8928:
.LBB8905:
.LBB8906:
	.loc 3 402 0
	lfs 12,44(3)
.LVL1173:
.LBE8906:
.LBE8905:
.LBE8928:
.LBB8929:
.LBB8873:
.LBB8866:
	.loc 5 425 0
	stfs 7,176(1)
.LBE8866:
.LBE8873:
.LBE8929:
.LBB8930:
.LBB8859:
	.loc 5 454 0
	fmadds 2,0,10,2
.LBE8859:
.LBE8930:
.LBB8931:
.LBB8874:
.LBB8867:
	.loc 5 425 0
	stfs 4,180(1)
.LBE8867:
.LBE8874:
.LBE8931:
.LBB8932:
.LBB8860:
	.loc 5 454 0
	fmadds 3,0,11,3
.LBE8860:
.LBE8932:
.LBB8933:
.LBB8875:
.LBB8868:
	.loc 5 425 0
	stfs 5,184(1)
.LBE8868:
.LBE8875:
.LBE8933:
.LBB8934:
.LBB8861:
	.loc 5 454 0
	fmadds 0,0,12,13
.LVL1174:
.LBE8861:
.LBE8934:
.LBB8935:
.LBB8876:
.LBB8869:
	.loc 5 426 0
	stfs 6,188(1)
.LBE8869:
.LBE8876:
.LBE8935:
.LBB8936:
.LBB8862:
	.loc 3 424 0
	stfs 2,8(1)
	.loc 3 425 0
	stfs 3,12(1)
	.loc 3 426 0
	stfs 0,16(1)
.LVL1175:
.LBE8862:
.LBE8936:
.LBB8937:
.LBB8877:
.LBB8870:
	.loc 5 426 0
	stfs 8,192(1)
	stfs 9,196(1)
	.loc 5 427 0
	stfs 10,200(1)
	stfs 11,204(1)
.LVL1176:
	stfs 12,208(1)
.LVL1177:
.L523:
	.loc 4 907 0
	lfs 0,4(9)
.LBE8870:
.LBE8877:
.LBE8937:
.LBB8938:
.LBB8939:
	.loc 5 471 0
	lfs 13,196(1)
	lfs 11,188(1)
	lfs 12,192(1)
	fmuls 11,0,11
	lfs 9,180(1)
	fmuls 12,0,12
	lfs 10,184(1)
	fmuls 0,0,13
.LBE8939:
.LBE8938:
.LBB8944:
.LBB8878:
.LBB8871:
	.loc 4 907 0
	lfs 13,0(9)
.LBE8871:
.LBE8878:
.LBE8944:
.LBB8945:
.LBB8940:
	.loc 5 471 0
	lfs 8,200(1)
	fmadds 12,13,9,12
	lfs 9,204(1)
	fmadds 11,7,13,11
	fmadds 13,13,10,0
.LBE8940:
.LBE8945:
.LBB8946:
.LBB8879:
.LBB8872:
	.loc 4 907 0
	lfs 0,8(9)
.LBE8872:
.LBE8879:
.LBE8946:
.LBB8947:
.LBB8941:
	.loc 5 471 0
	lfs 10,208(1)
	.loc 5 474 0
	addi 9,9,12
.LVL1178:
	.loc 5 467 0
	cmpw 7,9,0
	.loc 5 471 0
	fmadds 11,8,0,11
	fmadds 12,9,0,12
	fmadds 0,10,0,13
	stfs 11,0(11)
.LVL1179:
	stfs 12,4(11)
.LVL1180:
	stfs 0,8(11)
.LVL1181:
	addi 11,11,12
.LVL1182:
	.loc 5 467 0
	bne+ 7,.L523
	.cfi_offset 30, -56
	.cfi_offset 63, -8
	.cfi_offset 62, -16
	.cfi_offset 61, -24
	.cfi_offset 60, -32
	.cfi_offset 59, -40
	li 10,0
.LVL1183:
.L524:
.LBE8941:
.LBE8947:
.LBB8948:
.LBB8949:
.LBB8950:
.LBB8951:
	.loc 3 424 0
	addi 11,1,140
.LBE8951:
.LBE8950:
	.loc 5 333 0
	cmpwi 7,10,24
.LBB8954:
.LBB8952:
	.loc 3 424 0
	lwzux 0,11,10
	addi 9,1,212
	stwux 0,9,10
.LBE8952:
.LBE8954:
	.loc 5 333 0
	addi 10,10,12
.LBB8955:
.LBB8953:
	.loc 3 425 0
	lwz 8,4(11)
	.loc 3 426 0
	lwz 0,8(11)
	.loc 3 425 0
	stw 8,4(9)
	.loc 3 426 0
	stw 0,8(9)
.LBE8953:
.LBE8955:
	.loc 5 333 0
	bne+ 7,.L524
.LVL1184:
	.loc 4 914 0
	addi 30,29,12
.LBE8949:
.LBE8948:
	mr 3,31
.LVL1185:
	addi 4,1,8
.LVL1186:
	mr 5,30
	addi 6,1,212
	bl _ZNK9idFrustum12CullLocalBoxERK6idVec3S2_RK6idMat3
.LVL1187:
	cmpwi 7,3,0
	.loc 4 915 0
	li 3,0
	.loc 4 914 0
	beq- 7,.L537
.LVL1188:
.L525:
.LBE9145:
	.loc 4 944 0
	lwz 0,540(1)
	lwz 29,476(1)
.LVL1189:
	mtlr 0
	lwz 30,480(1)
.LVL1190:
	lwz 31,484(1)
.LVL1191:
	lfd 26,488(1)
	lfd 27,496(1)
	lfd 28,504(1)
	lfd 29,512(1)
	lfd 30,520(1)
	lfd 31,528(1)
	addi 1,1,536
	.cfi_remember_state
.LCFI93:
	.cfi_def_cfa_offset 0
	.cfi_restore 63
	.cfi_restore 62
	.cfi_restore 61
	.cfi_restore 60
	.cfi_restore 59
	.cfi_restore 58
	.cfi_restore 31
	.cfi_restore 30
	.cfi_restore 29
	blr
.LVL1192:
.L537:
.LCFI94:
	.cfi_restore_state
.LBB9146:
.LBB8956:
.LBB8957:
.LBB8958:
.LBB8959:
	.loc 3 424 0 discriminator 3
	lfs 13,0(31)
.LBE8959:
.LBE8958:
.LBE8957:
.LBE8956:
.LBB8987:
.LBB8988:
	.loc 8 149 0 discriminator 3
	li 0,0
.LBE8988:
.LBE8987:
.LBB8991:
.LBB8978:
.LBB8964:
.LBB8960:
	.loc 3 425 0 discriminator 3
	lfs 12,4(31)
.LBE8960:
.LBE8964:
.LBB8965:
.LBB8966:
	.loc 5 333 0 discriminator 3
	addi 10,31,12
.LBE8966:
.LBE8965:
.LBB8973:
.LBB8961:
	.loc 3 426 0 discriminator 3
	lfs 0,8(31)
.LBE8961:
.LBE8973:
.LBB8974:
.LBB8971:
	.loc 5 333 0 discriminator 3
	mr 11,10
.LBE8971:
.LBE8974:
.LBE8978:
.LBE8991:
.LBB8992:
.LBB8989:
	.loc 8 149 0 discriminator 3
	stw 0,348(1)
.LBE8989:
.LBE8992:
.LBB8993:
.LBB8979:
.LBB8975:
.LBB8962:
	.loc 4 907 0 discriminator 3
	addi 6,1,344
.LBE8962:
.LBE8975:
.LBE8979:
.LBE8993:
.LBB8994:
.LBB8990:
	.loc 8 149 0 discriminator 3
	stw 0,344(1)
.LVL1193:
.LBE8990:
.LBE8994:
.LBB8995:
.LBB8942:
	.loc 5 333 0 discriminator 3
	addi 9,1,308
.LBE8942:
.LBE8995:
.LBB8996:
.LBB8980:
.LBB8976:
.LBB8963:
	.loc 3 424 0 discriminator 3
	stfs 13,296(1)
	.loc 3 425 0 discriminator 3
	stfs 12,300(1)
	.loc 3 426 0 discriminator 3
	stfs 0,304(1)
.LVL1194:
.L526:
.LBE8963:
.LBE8976:
.LBB8977:
.LBB8972:
.LBB8967:
.LBB8968:
	.loc 3 424 0
	lwz 7,0(11)
	.loc 3 425 0
	lwz 8,4(11)
	.loc 3 426 0
	lwz 0,8(11)
.LBE8968:
.LBE8967:
	.loc 5 333 0
	addi 11,11,12
.LBB8970:
.LBB8969:
	.loc 3 424 0
	stw 7,0(9)
	.loc 3 425 0
	stw 8,4(9)
	.loc 3 426 0
	stw 0,8(9)
.LBE8969:
.LBE8970:
	.loc 5 333 0
	addi 9,9,12
.LVL1195:
	cmpw 7,9,6
	bne+ 7,.L526
.LBE8972:
.LBE8977:
.LBE8980:
.LBE8996:
.LBB8997:
.LBB8998:
	.loc 3 431 0
	lfs 11,4(29)
.LBE8998:
.LBE8997:
.LBB9004:
.LBB9005:
.LBB9006:
	.loc 3 402 0
	lfs 5,28(29)
.LBE9006:
.LBE9005:
.LBE9004:
.LBB9023:
.LBB8999:
	.loc 3 431 0
	fsubs 12,12,11
.LBE8999:
.LBE9023:
.LBB9024:
.LBB9007:
.LBB9008:
	.loc 3 402 0
	lfs 6,40(29)
.LBE9008:
.LBE9007:
.LBB9009:
.LBB9010:
	lfs 8,52(29)
.LBE9010:
.LBE9009:
.LBE9024:
.LBB9025:
.LBB9000:
	.loc 3 431 0
	lfs 11,0(29)
.LBE9000:
.LBE9025:
.LBB9026:
.LBB9027:
.LBB9028:
	.loc 5 454 0
	fmuls 1,12,5
.LBE9028:
.LBE9027:
.LBE9026:
.LBB9033:
.LBB9011:
.LBB9012:
	.loc 3 402 0
	lfs 7,24(29)
.LBE9012:
.LBE9011:
.LBE9033:
.LBB9034:
.LBB9001:
	.loc 3 431 0
	fsubs 13,13,11
.LBE9001:
.LBE9034:
.LBB9035:
.LBB9013:
.LBB9014:
	.loc 3 402 0
	lfs 3,36(29)
.LBE9014:
.LBE9013:
.LBE9035:
.LBB9036:
.LBB9031:
.LBB9029:
	.loc 5 454 0
	fmuls 2,12,6
.LBE9029:
.LBE9031:
.LBE9036:
.LBB9037:
.LBB9015:
.LBB9016:
	.loc 3 402 0
	lfs 4,48(29)
.LBE9016:
.LBE9015:
.LBE9037:
.LBB9038:
.LBB9032:
.LBB9030:
	.loc 5 454 0
	fmuls 12,12,8
.LBE9030:
.LBE9032:
.LBE9038:
.LBB9039:
.LBB9002:
	.loc 3 431 0
	lfs 11,8(29)
.LBE9002:
.LBE9039:
.LBB9040:
.LBB9041:
	.loc 5 454 0
	fmadds 1,13,7,1
.LBE9041:
.LBE9040:
.LBB9048:
.LBB9017:
.LBB9018:
	.loc 3 402 0
	lfs 9,32(29)
.LBE9018:
.LBE9017:
.LBE9048:
.LBB9049:
.LBB9003:
	.loc 3 431 0
	fsubs 0,0,11
.LBE9003:
.LBE9049:
.LBB9050:
.LBB9019:
.LBB9020:
	.loc 3 402 0
	lfs 10,44(29)
.LBE9020:
.LBE9019:
.LBE9050:
.LBB9051:
.LBB9042:
	.loc 5 454 0
	fmadds 2,13,3,2
.LBE9042:
.LBE9051:
.LBB9052:
.LBB9021:
.LBB9022:
	.loc 3 402 0
	lfs 11,56(29)
.LBE9022:
.LBE9021:
.LBE9052:
.LBB9053:
.LBB9043:
	.loc 5 454 0
	fmadds 13,13,4,12
.LBE9043:
.LBE9053:
.LBB9054:
.LBB8981:
	.loc 8 40 0
	lwz 11,56(31)
.LBE8981:
.LBE9054:
.LBB9055:
.LBB9044:
	.loc 5 454 0
	fmadds 1,0,9,1
.LBE9044:
.LBE9055:
.LBB9056:
.LBB8982:
	.loc 8 40 0
	lwz 9,60(31)
.LVL1196:
.LBE8982:
.LBE9056:
.LBB9057:
.LBB9045:
	.loc 5 454 0
	fmadds 2,0,10,2
.LBE9045:
.LBE9057:
.LBB9058:
.LBB8983:
	.loc 8 40 0
	lwz 7,48(31)
.LBE8983:
.LBE9058:
.LBB9059:
.LBB9046:
	.loc 5 454 0
	fmadds 0,0,11,13
.LBE9046:
.LBE9059:
.LBB9060:
.LBB8984:
	.loc 8 40 0
	lwz 8,52(31)
	lwz 0,64(31)
	stw 11,352(1)
.LBE8984:
.LBE9060:
.LBB9061:
.LBB8943:
	.loc 5 465 0
	addi 11,1,68
.LBE8943:
.LBE9061:
.LBB9062:
.LBB8985:
	.loc 8 40 0
	stw 9,356(1)
.LBE8985:
.LBE9062:
.LBB9063:
.LBB9064:
.LBB9065:
	.loc 4 907 0
	addi 9,1,104
.LBE9065:
.LBE9064:
.LBE9063:
.LBB9072:
.LBB8986:
	.loc 8 40 0
	stw 7,344(1)
	stw 8,348(1)
	stw 0,360(1)
.LVL1197:
.LBE8986:
.LBE9072:
.LBB9073:
.LBB9047:
	.loc 3 424 0
	stfs 1,296(1)
	.loc 3 425 0
	stfs 2,300(1)
	.loc 3 426 0
	stfs 0,304(1)
.LBE9047:
.LBE9073:
.LBB9074:
.LBB9069:
.LBB9066:
	.loc 5 425 0
	stfs 7,104(1)
	stfs 3,108(1)
	stfs 4,112(1)
	.loc 5 426 0
	stfs 5,116(1)
	stfs 6,120(1)
	stfs 8,124(1)
	.loc 5 427 0
	stfs 9,128(1)
	stfs 10,132(1)
	stfs 11,136(1)
.LVL1198:
.L527:
	.loc 4 907 0
	lfs 0,4(10)
.LBE9066:
.LBE9069:
.LBE9074:
.LBB9075:
.LBB9076:
	.loc 5 471 0
	lfs 13,20(9)
	lfs 11,12(9)
	lfs 12,16(9)
	fmuls 11,0,11
	lfs 9,4(9)
	fmuls 12,0,12
	lfs 10,8(9)
	fmuls 0,0,13
.LBE9076:
.LBE9075:
.LBB9079:
.LBB9070:
.LBB9067:
	.loc 4 907 0
	lfs 13,0(10)
.LBE9067:
.LBE9070:
.LBE9079:
.LBB9080:
.LBB9077:
	.loc 5 471 0
	lfs 8,24(9)
	fmadds 12,13,9,12
	lfs 9,28(9)
	fmadds 11,7,13,11
	fmadds 13,13,10,0
.LBE9077:
.LBE9080:
.LBB9081:
.LBB9071:
.LBB9068:
	.loc 4 907 0
	lfs 0,8(10)
.LBE9068:
.LBE9071:
.LBE9081:
.LBB9082:
.LBB9078:
	.loc 5 471 0
	lfs 10,32(9)
	.loc 5 474 0
	addi 10,10,12
.LVL1199:
	.loc 5 471 0
	fmadds 11,0,8,11
	fmadds 12,0,9,12
	fmadds 0,0,10,13
	stfs 11,0(11)
.LVL1200:
	stfs 12,4(11)
.LVL1201:
	stfs 0,8(11)
.LVL1202:
	addi 11,11,12
.LVL1203:
	.loc 5 467 0
	cmpw 7,11,9
	bne+ 7,.L527
	addi 9,1,308
.LVL1204:
	li 10,0
.LVL1205:
.L528:
.LBE9078:
.LBE9082:
.LBB9083:
.LBB9084:
.LBB9085:
.LBB9086:
	.loc 3 424 0
	addi 11,1,68
.LBE9086:
.LBE9085:
	.loc 5 333 0
	cmpwi 7,10,24
.LBB9089:
.LBB9087:
	.loc 3 424 0
	lwzux 7,11,10
.LBE9087:
.LBE9089:
	.loc 5 333 0
	addi 10,10,12
.LBB9090:
.LBB9088:
	.loc 3 425 0
	lwz 8,4(11)
	.loc 3 426 0
	lwz 0,8(11)
	.loc 3 424 0
	stw 7,0(9)
	.loc 3 425 0
	stw 8,4(9)
	.loc 3 426 0
	stw 0,8(9)
	addi 9,9,12
.LBE9088:
.LBE9090:
	.loc 5 333 0
	bne+ 7,.L528
.LBE9084:
.LBE9083:
	.loc 4 924 0
	addi 3,1,296
	addi 4,1,364
	addi 5,1,248
	bl _ZNK9idFrustum26ToIndexPointsAndCornerVecsEP6idVec3S1_
.LVL1206:
.LBB9091:
.LBB9092:
	.loc 3 420 0
	lfs 29,12(29)
	lfs 30,16(29)
.LBE9092:
.LBE9091:
	.loc 4 926 0
	mr 3,31
.LBB9095:
.LBB9093:
	.loc 3 420 0
	lfs 31,20(29)
	fneg 26,29
	fneg 27,30
.LBE9093:
.LBE9095:
	.loc 4 926 0
	addi 4,1,44
.LBB9096:
.LBB9094:
	.loc 3 420 0
	fneg 28,31
.LVL1207:
.LBE9094:
.LBE9096:
	.loc 4 926 0
	addi 5,1,296
	addi 6,1,364
	addi 7,1,248
.LBB9097:
.LBB9098:
.LBB9099:
	.loc 3 424 0
	stfs 26,44(1)
	.loc 3 425 0
	stfs 27,48(1)
	.loc 3 426 0
	stfs 28,52(1)
.LVL1208:
.LBE9099:
.LBE9098:
.LBB9100:
.LBB9101:
	.loc 3 424 0
	stfs 29,56(1)
	.loc 3 425 0
	stfs 30,60(1)
	.loc 3 426 0
	stfs 31,64(1)
.LBE9101:
.LBE9100:
.LBE9097:
	.loc 4 926 0
	bl _ZNK9idFrustum22BoundsCullLocalFrustumERK8idBoundsRKS_PK6idVec3S7_
.LVL1209:
	cmpwi 7,3,0
	.loc 4 927 0
	li 3,0
	.loc 4 926 0
	bne+ 7,.L525
.LVL1210:
.LBB9102:
.LBB9103:
.LBB9104:
.LBB9105:
	.loc 3 424 0
	lwz 6,400(1)
.LBE9105:
.LBE9104:
.LBE9103:
.LBE9102:
	.loc 4 933 0
	mr 3,31
.LBB9119:
	.loc 12 86 0
	lwz 10,396(1)
.LBE9119:
	.loc 4 933 0
	addi 4,1,364
.LBB9120:
	.loc 12 86 0
	lwz 7,388(1)
.LVL1211:
.LBE9120:
	.loc 4 933 0
	addi 5,1,20
.LBB9121:
.LBB9116:
.LBB9109:
.LBB9106:
	.loc 3 424 0
	stw 6,388(1)
	.loc 3 425 0
	lwz 6,404(1)
.LBE9106:
.LBE9109:
.LBE9116:
	.loc 12 86 0
	lwz 8,392(1)
.LVL1212:
.LBB9117:
.LBB9110:
.LBB9107:
	.loc 3 425 0
	stw 6,392(1)
	.loc 3 426 0
	lwz 6,408(1)
.LBE9107:
.LBE9110:
.LBB9111:
.LBB9112:
	stw 10,408(1)
.LBE9112:
.LBE9111:
.LBE9117:
.LBE9121:
.LBB9122:
.LBB9123:
.LBB9124:
.LBB9125:
	.loc 3 424 0
	lwz 10,448(1)
.LBE9125:
.LBE9124:
.LBE9123:
	.loc 12 86 0
	lwz 11,436(1)
.LBB9134:
.LBB9129:
.LBB9126:
	.loc 3 424 0
	stw 10,436(1)
	.loc 3 425 0
	lwz 10,452(1)
.LBE9126:
.LBE9129:
.LBE9134:
	.loc 12 86 0
	lwz 9,440(1)
	lwz 0,444(1)
.LBB9135:
.LBB9130:
.LBB9127:
	.loc 3 425 0
	stw 10,440(1)
	.loc 3 426 0
	lwz 10,456(1)
.LBE9127:
.LBE9130:
.LBE9135:
.LBE9122:
.LBB9137:
.LBB9118:
.LBB9114:
.LBB9108:
	stw 6,396(1)
.LVL1213:
.LBE9108:
.LBE9114:
.LBB9115:
.LBB9113:
	.loc 3 424 0
	stw 7,400(1)
	.loc 3 425 0
	stw 8,404(1)
.LBE9113:
.LBE9115:
.LBE9118:
.LBE9137:
.LBB9138:
.LBB9136:
.LBB9131:
.LBB9128:
	.loc 3 426 0
	stw 10,444(1)
.LVL1214:
.LBE9128:
.LBE9131:
.LBB9132:
.LBB9133:
	.loc 3 424 0
	stw 11,448(1)
	.loc 3 425 0
	stw 9,452(1)
	.loc 3 426 0
	stw 0,456(1)
.LVL1215:
.LBE9133:
.LBE9132:
.LBE9136:
.LBE9138:
.LBB9139:
.LBB9140:
.LBB9141:
	.loc 3 424 0
	stfs 26,20(1)
	.loc 3 425 0
	stfs 27,24(1)
	.loc 3 426 0
	stfs 28,28(1)
.LVL1216:
.LBE9141:
.LBE9140:
.LBB9142:
.LBB9143:
	.loc 3 424 0
	stfs 29,32(1)
	.loc 3 425 0
	stfs 30,36(1)
	.loc 3 426 0
	stfs 31,40(1)
.LBE9143:
.LBE9142:
.LBE9139:
	.loc 4 933 0
	bl _ZNK9idFrustum28LocalFrustumIntersectsBoundsEPK6idVec3RK8idBounds
.LVL1217:
	cmpwi 7,3,0
	.loc 4 934 0
	li 3,1
	.loc 4 933 0
	bne+ 7,.L525
	.loc 4 937 0
	addi 5,1,212
	addi 3,1,8
	mr 4,30
	addi 6,1,364
	bl _Z11BoxToPointsRK6idVec3S1_RK6idMat3PS_
	.loc 4 939 0
	mr 3,31
	addi 4,1,364
	li 5,1
	bl _ZNK9idFrustum29LocalFrustumIntersectsFrustumEPK6idVec3b
	b .L525
.LBE9146:
	.cfi_endproc
.LFE2558:
	.size	_ZNK9idFrustum13IntersectsBoxERK5idBox, .-_ZNK9idFrustum13IntersectsBoxERK5idBox
	.align 2
	.globl _ZNK9idFrustum16IntersectsBoundsERK8idBounds
	.type	_ZNK9idFrustum16IntersectsBoundsERK8idBounds, @function
_ZNK9idFrustum16IntersectsBoundsERK8idBounds:
.LFB2557:
	.loc 4 864 0
	.cfi_startproc
.LVL1218:
	mflr 0
	stwu 1,-320(1)
.LCFI95:
	.cfi_def_cfa_offset 320
	.cfi_register 65, 0
.LBB9226:
.LBB9227:
.LBB9228:
	.loc 3 431 0
	lis 9,.LC1@ha
.LBE9228:
.LBE9227:
.LBB9241:
.LBB9242:
.LBB9243:
	.loc 5 427 0
	li 10,0
.LBE9243:
.LBE9242:
.LBE9241:
.LBE9226:
	.loc 4 864 0
	stfd 25,264(1)
.LBB9372:
.LBB9246:
.LBB9247:
	.loc 5 333 0
	cmpwi 7,10,24
.LBE9247:
.LBE9246:
.LBE9372:
	.loc 4 864 0
	stfd 26,272(1)
.LBB9373:
.LBB9262:
.LBB9258:
	.loc 5 333 0
	addi 11,1,32
.LBE9258:
.LBE9262:
.LBE9373:
	.loc 4 864 0
	stfd 27,280(1)
	stfd 28,288(1)
	stfd 29,296(1)
	stfd 30,304(1)
	stw 30,256(1)
	mr 30,4
	.cfi_offset 30, -64
	.cfi_offset 62, -16
	.cfi_offset 61, -24
	.cfi_offset 60, -32
	.cfi_offset 59, -40
	.cfi_offset 58, -48
	.cfi_offset 57, -56
.LVL1219:
	stw 31,260(1)
	mr 31,3
	.cfi_offset 31, -60
	stw 0,324(1)
	stfd 31,312(1)
	stw 29,252(1)
.LBB9374:
.LBB9263:
.LBB9229:
	.loc 3 431 0
	lfs 11,.LC1@l(9)
.LBE9229:
.LBE9263:
.LBB9264:
.LBB9259:
.LBB9248:
.LBB9249:
	.loc 3 424 0
	addi 9,1,68
.LBE9249:
.LBE9248:
.LBE9259:
.LBE9264:
.LBB9265:
.LBB9266:
	.loc 3 452 0
	lfs 1,16(4)
	lfs 7,4(4)
	lfs 31,12(4)
	.cfi_offset 29, -68
	.cfi_offset 63, -8
	.cfi_offset 65, 4
	fadds 7,1,7
	lfs 6,0(4)
.LBE9266:
.LBE9265:
.LBB9269:
.LBB9230:
	.loc 3 431 0
	lfs 0,4(3)
.LBE9230:
.LBE9269:
.LBB9270:
.LBB9267:
	.loc 3 452 0
	lfs 2,20(4)
	fadds 6,31,6
	lfs 8,8(4)
.LBE9267:
.LBE9270:
.LBB9271:
.LBB9231:
	.loc 3 431 0
	fmsubs 0,7,11,0
.LBE9231:
.LBE9271:
.LBB9272:
.LBB9273:
.LBB9274:
	.loc 3 402 0
	lfs 3,16(3)
.LBE9274:
.LBE9273:
.LBE9272:
.LBB9291:
.LBB9232:
	.loc 4 864 0
	fneg 27,7
.LBE9232:
.LBE9291:
.LBB9292:
.LBB9275:
.LBB9276:
	.loc 3 402 0
	lfs 4,28(3)
.LBE9276:
.LBE9275:
.LBE9292:
.LBB9293:
.LBB9268:
	.loc 3 452 0
	fadds 8,2,8
.LVL1220:
.LBE9268:
.LBE9293:
.LBB9294:
.LBB9277:
.LBB9278:
	.loc 3 402 0
	lfs 5,40(3)
.LBE9278:
.LBE9277:
.LBE9294:
.LBB9295:
.LBB9296:
.LBB9297:
	.loc 5 454 0
	fmuls 29,0,3
.LBE9297:
.LBE9296:
.LBE9295:
.LBB9300:
.LBB9233:
	.loc 3 431 0
	lfs 9,0(3)
.LBE9233:
.LBE9300:
.LBB9301:
.LBB9299:
.LBB9298:
	.loc 5 454 0
	fmuls 30,0,4
	fmuls 25,0,5
.LBE9298:
.LBE9299:
.LBE9301:
.LBB9302:
.LBB9279:
.LBB9280:
	.loc 3 402 0
	lfs 12,12(3)
.LBE9280:
.LBE9279:
.LBE9302:
.LBB9303:
.LBB9234:
	.loc 3 431 0
	fmsubs 9,6,11,9
.LBE9234:
.LBE9303:
.LBB9304:
.LBB9281:
.LBB9282:
	.loc 3 402 0
	lfs 13,24(3)
.LBE9282:
.LBE9281:
.LBB9283:
.LBB9284:
	lfs 0,36(3)
.LBE9284:
.LBE9283:
.LBE9304:
.LBB9305:
.LBB9235:
	.loc 4 864 0
	fneg 26,6
	.loc 3 431 0
	lfs 10,8(3)
	.loc 4 864 0
	fneg 28,8
.LBE9235:
.LBE9305:
.LBB9306:
.LBB9307:
	.loc 5 454 0
	fmadds 29,9,12,29
.LBE9307:
.LBE9306:
.LBB9314:
.LBB9285:
.LBB9286:
	.loc 3 402 0
	lfs 6,20(3)
.LVL1221:
.LBE9286:
.LBE9285:
.LBE9314:
.LBB9315:
.LBB9236:
	.loc 3 431 0
	fmsubs 10,8,11,10
.LBE9236:
.LBE9315:
.LBB9316:
.LBB9287:
.LBB9288:
	.loc 3 402 0
	lfs 7,32(3)
.LVL1222:
.LBE9288:
.LBE9287:
.LBE9316:
.LBB9317:
.LBB9308:
	.loc 5 454 0
	fmadds 30,9,13,30
.LBE9308:
.LBE9317:
.LBB9318:
.LBB9289:
.LBB9290:
	.loc 3 402 0
	lfs 8,44(3)
.LVL1223:
.LBE9290:
.LBE9289:
.LBE9318:
.LBB9319:
.LBB9309:
	.loc 5 454 0
	fmadds 9,9,0,25
.LBE9309:
.LBE9319:
.LBB9320:
.LBB9237:
	.loc 3 431 0
	fmadds 31,26,11,31
.LVL1224:
	fmadds 1,27,11,1
.LVL1225:
	fmadds 11,28,11,2
.LVL1226:
.LBE9237:
.LBE9320:
.LBB9321:
.LBB9310:
	.loc 5 454 0
	fmadds 29,10,6,29
.LBE9310:
.LBE9321:
.LBB9322:
.LBB9238:
	.loc 3 424 0
	stfs 31,8(1)
.LBE9238:
.LBE9322:
.LBB9323:
.LBB9311:
	.loc 5 454 0
	fmadds 30,10,7,30
.LBE9311:
.LBE9323:
.LBB9324:
.LBB9239:
	.loc 3 425 0
	stfs 1,12(1)
.LBE9239:
.LBE9324:
.LBB9325:
.LBB9312:
	.loc 5 454 0
	fmadds 10,10,8,9
.LBE9312:
.LBE9325:
.LBB9326:
.LBB9240:
	.loc 3 426 0
	stfs 11,16(1)
.LVL1227:
.LBE9240:
.LBE9326:
.LBB9327:
.LBB9260:
.LBB9254:
.LBB9250:
	.loc 3 424 0
	stfsux 12,9,10
.LBE9250:
.LBE9254:
	.loc 5 333 0
	addi 10,10,12
.LBE9260:
.LBE9327:
.LBB9328:
.LBB9313:
	.loc 3 424 0
	stfs 29,20(1)
	.loc 3 425 0
	stfs 30,24(1)
	.loc 3 426 0
	stfs 10,28(1)
.LVL1228:
.LBE9313:
.LBE9328:
.LBB9329:
.LBB9245:
.LBB9244:
	.loc 5 425 0
	stfs 12,32(1)
	stfs 13,36(1)
	stfs 0,40(1)
	.loc 5 426 0
	stfs 3,44(1)
	stfs 4,48(1)
	stfs 5,52(1)
	.loc 5 427 0
	stfs 6,56(1)
	stfs 7,60(1)
	stfs 8,64(1)
.LVL1229:
.LBE9244:
.LBE9245:
.LBE9329:
.LBB9330:
.LBB9261:
.LBB9255:
.LBB9251:
	.loc 3 425 0
	stfs 13,4(9)
	.loc 3 426 0
	stfs 0,8(9)
.LBE9251:
.LBE9255:
	.loc 5 333 0
	beq- 7,.L539
.LVL1230:
.L545:
	lfsux 12,11,10
.LVL1231:
	cmpwi 7,10,24
.LBB9256:
.LBB9252:
	.loc 3 424 0
	addi 9,1,68
.LVL1232:
	stfsux 12,9,10
.LVL1233:
.LBE9252:
.LBE9256:
	.loc 5 333 0
	addi 10,10,12
	.loc 4 864 0
	lfs 13,4(11)
	lfs 0,8(11)
	.loc 5 333 0
	addi 11,1,32
.LVL1234:
.LBB9257:
.LBB9253:
	.loc 3 425 0
	stfs 13,4(9)
	.loc 3 426 0
	stfs 0,8(9)
.LBE9253:
.LBE9257:
	.loc 5 333 0
	bne+ 7,.L545
.L539:
.LBE9261:
.LBE9330:
	.loc 4 874 0
	mr 3,31
.LVL1235:
	addi 4,1,20
.LVL1236:
	addi 5,1,8
	addi 6,1,68
.LVL1237:
	bl _ZNK9idFrustum12CullLocalBoxERK6idVec3S2_RK6idMat3
.LVL1238:
	.loc 4 875 0
	li 29,0
	.loc 4 874 0
	cmpwi 7,3,0
	beq- 7,.L546
.L541:
.LBE9374:
	.loc 4 900 0
	lwz 0,324(1)
	mr 3,29
	lwz 30,256(1)
.LVL1239:
	mtlr 0
	lwz 29,252(1)
	lwz 31,260(1)
.LVL1240:
	lfd 25,264(1)
	lfd 26,272(1)
	lfd 27,280(1)
	lfd 28,288(1)
	lfd 29,296(1)
	lfd 30,304(1)
	lfd 31,312(1)
	addi 1,1,320
	.cfi_remember_state
.LCFI96:
	.cfi_def_cfa_offset 0
	.cfi_restore 63
	.cfi_restore 62
	.cfi_restore 61
	.cfi_restore 60
	.cfi_restore 59
	.cfi_restore 58
	.cfi_restore 57
	.cfi_restore 31
	.cfi_restore 30
	.cfi_restore 29
	blr
.LVL1241:
.L546:
.LCFI97:
	.cfi_restore_state
.LBB9375:
	.loc 4 880 0 discriminator 3
	mr 3,31
	addi 4,1,152
	addi 5,1,104
	bl _ZNK9idFrustum26ToIndexPointsAndCornerVecsEP6idVec3S1_
	.loc 4 882 0 discriminator 3
	mr 3,31
	mr 4,30
	mr 5,31
	addi 6,1,152
	addi 7,1,104
	bl _ZNK9idFrustum22BoundsCullLocalFrustumERK8idBoundsRKS_PK6idVec3S7_
	cmpwi 7,3,0
	bne+ 7,.L541
.LVL1242:
.LBB9331:
.LBB9332:
.LBB9333:
.LBB9334:
	.loc 3 424 0
	lwz 6,188(1)
.LBE9334:
.LBE9333:
.LBE9332:
.LBE9331:
	.loc 4 889 0
	mr 3,31
.LBB9351:
	.loc 12 86 0
	lwz 10,184(1)
.LBE9351:
	.loc 4 889 0
	addi 4,1,152
.LBB9352:
	.loc 12 86 0
	lwz 7,176(1)
.LVL1243:
.LBE9352:
	.loc 4 889 0
	mr 5,30
.LBB9353:
.LBB9347:
.LBB9339:
.LBB9335:
	.loc 3 424 0
	stw 6,176(1)
.LBE9335:
.LBE9339:
.LBE9347:
.LBE9353:
	.loc 4 890 0
	li 29,1
.LBB9354:
.LBB9348:
.LBB9340:
.LBB9336:
	.loc 3 425 0
	lwz 6,192(1)
.LBE9336:
.LBE9340:
.LBE9348:
	.loc 12 86 0
	lwz 8,180(1)
.LVL1244:
.LBB9349:
.LBB9341:
.LBB9337:
	.loc 3 425 0
	stw 6,180(1)
	.loc 3 426 0
	lwz 6,196(1)
.LBE9337:
.LBE9341:
.LBB9342:
.LBB9343:
	stw 10,196(1)
.LBE9343:
.LBE9342:
.LBE9349:
.LBE9354:
.LBB9355:
.LBB9356:
.LBB9357:
.LBB9358:
	.loc 3 424 0
	lwz 10,236(1)
.LBE9358:
.LBE9357:
.LBE9356:
	.loc 12 86 0
	lwz 11,224(1)
.LBB9367:
.LBB9362:
.LBB9359:
	.loc 3 424 0
	stw 10,224(1)
	.loc 3 425 0
	lwz 10,240(1)
.LBE9359:
.LBE9362:
.LBE9367:
	.loc 12 86 0
	lwz 9,228(1)
	lwz 0,232(1)
.LBB9368:
.LBB9363:
.LBB9360:
	.loc 3 425 0
	stw 10,228(1)
	.loc 3 426 0
	lwz 10,244(1)
.LBE9360:
.LBE9363:
.LBE9368:
.LBE9355:
.LBB9370:
.LBB9350:
.LBB9345:
.LBB9338:
	stw 6,184(1)
.LVL1245:
.LBE9338:
.LBE9345:
.LBB9346:
.LBB9344:
	.loc 3 424 0
	stw 7,188(1)
	.loc 3 425 0
	stw 8,192(1)
.LBE9344:
.LBE9346:
.LBE9350:
.LBE9370:
.LBB9371:
.LBB9369:
.LBB9364:
.LBB9361:
	.loc 3 426 0
	stw 10,232(1)
.LVL1246:
.LBE9361:
.LBE9364:
.LBB9365:
.LBB9366:
	.loc 3 424 0
	stw 11,236(1)
	.loc 3 425 0
	stw 9,240(1)
	.loc 3 426 0
	stw 0,244(1)
.LBE9366:
.LBE9365:
.LBE9369:
.LBE9371:
	.loc 4 889 0
	bl _ZNK9idFrustum28LocalFrustumIntersectsBoundsEPK6idVec3RK8idBounds
.LVL1247:
	cmpwi 7,3,0
	bne+ 7,.L541
	.loc 4 893 0
	addi 5,1,68
.LVL1248:
	addi 6,1,152
	addi 3,1,20
	addi 4,1,8
	bl _Z11BoxToPointsRK6idVec3S1_RK6idMat3PS_
.LVL1249:
	.loc 4 895 0
	mr 3,31
	addi 4,1,152
	li 5,1
	bl _ZNK9idFrustum29LocalFrustumIntersectsFrustumEPK6idVec3b
	mr 29,3
	b .L541
.LBE9375:
	.cfi_endproc
.LFE2557:
	.size	_ZNK9idFrustum16IntersectsBoundsERK8idBounds, .-_ZNK9idFrustum16IntersectsBoundsERK8idBounds
	.align 2
	.globl _ZNK9idFrustum14AxisProjectionEPK6idVec3S2_RS1_RfS4_
	.type	_ZNK9idFrustum14AxisProjectionEPK6idVec3S2_RS1_RfS4_, @function
_ZNK9idFrustum14AxisProjectionEPK6idVec3S2_RS1_RfS4_:
.LFB2576:
	.loc 4 1661 0
	.cfi_startproc
.LVL1250:
.LBB9376:
	.loc 4 1665 0
	lfs 12,4(6)
	lfs 9,28(3)
	.loc 4 1666 0
	lfs 11,40(3)
	.loc 4 1665 0
	fmuls 9,12,9
	lfs 13,0(6)
.LVL1251:
	lfs 10,24(3)
	.loc 4 1666 0
	fmuls 11,12,11
	lfs 0,36(3)
	.loc 4 1665 0
	fmadds 9,13,10,9
	lfs 8,32(3)
	.loc 4 1666 0
	fmadds 11,13,0,11
	.loc 4 1665 0
	lfs 0,8(6)
.LVL1252:
	.loc 4 1666 0
	lfs 10,44(3)
	.loc 4 1665 0
	fmadds 8,0,8,9
.LBE9376:
	.loc 4 1661 0
	stwu 1,-16(1)
.LCFI98:
	.cfi_def_cfa_offset 16
.LBB9381:
	.loc 4 1666 0
	fmadds 10,0,10,11
	.loc 4 1665 0
	stfs 8,8(1)
	lwz 9,8(1)
	.loc 4 1666 0
	stfs 10,8(1)
	.loc 4 1667 0
	rlwinm 9,9,2,30,30
	.loc 4 1666 0
	lwz 0,8(1)
	.loc 4 1667 0
	srwi 0,0,31
	or 0,9,0
.LVL1253:
	.loc 4 1668 0
	mulli 9,0,12
	add 11,5,9
.LVL1254:
	lfsx 9,5,9
	lfs 11,4(11)
	lfs 10,8(11)
	fmuls 11,12,11
	fmadds 11,13,9,11
	fmadds 10,0,10,11
	stfs 10,8(1)
	lwz 9,8(1)
	.loc 4 1669 0
	rlwinm 9,9,3,29,29
	or 0,0,9
.LVL1255:
	.loc 4 1670 0
	mulli 10,0,12
	.loc 4 1671 0
	nor 0,0,0
.LVL1256:
	rlwinm 0,0,0,30,31
.LVL1257:
	.loc 4 1670 0
	add 11,4,10
.LVL1258:
	.loc 3 435 0
	lfsx 10,4,10
.LVL1259:
.LBB9377:
.LBB9378:
	lfs 11,4(11)
	fmuls 12,12,11
.LBE9378:
.LBE9377:
	lfs 11,8(11)
	.loc 4 1672 0
	mulli 11,0,12
.LVL1260:
	.loc 3 435 0
	fmadds 13,13,10,12
	.loc 4 1672 0
	add 9,5,11
	.loc 3 435 0
	fmadds 0,0,11,13
	.loc 4 1670 0
	stfs 0,0(7)
	.loc 4 1672 0
	lfs 10,4(9)
	lfs 13,0(6)
	lfs 12,4(6)
	fneg 8,13
	lfs 0,8(6)
.LVL1261:
	fmuls 10,12,10
	lfsx 11,5,11
	.loc 4 1661 0
	fneg 9,0
	.loc 4 1672 0
	fmsubs 11,8,11,10
	lfs 10,8(9)
	fmadds 10,9,10,11
	stfs 10,8(1)
	lwz 9,8(1)
.LVL1262:
	.loc 4 1673 0
	rlwinm 9,9,3,29,29
.LVL1263:
	or 0,0,9
	.loc 4 1674 0
	mulli 0,0,12
	add 9,4,0
.LVL1264:
	.loc 3 435 0
	lfsx 10,4,0
.LVL1265:
.LBB9379:
.LBB9380:
	lfs 11,4(9)
	fmuls 12,12,11
.LBE9380:
.LBE9379:
	lfs 11,8(9)
	fmadds 13,13,10,12
	fmadds 0,0,11,13
	.loc 4 1674 0
	stfs 0,0(8)
.LBE9381:
	.loc 4 1675 0
	addi 1,1,16
.LCFI99:
	.cfi_def_cfa_offset 0
	blr
	.cfi_endproc
.LFE2576:
	.size	_ZNK9idFrustum14AxisProjectionEPK6idVec3S2_RS1_RfS4_, .-_ZNK9idFrustum14AxisProjectionEPK6idVec3S2_RS1_RfS4_
	.align 2
	.globl _ZNK9idFrustum17IntersectsWindingERK9idWinding
	.type	_ZNK9idFrustum17IntersectsWindingERK9idWinding, @function
_ZNK9idFrustum17IntersectsWindingERK9idWinding:
.LFB2561:
	.loc 4 1102 0
	.cfi_startproc
.LVL1266:
	mflr 0
	stwu 1,-296(1)
.LCFI100:
	.cfi_def_cfa_offset 296
	.cfi_register 65, 0
	stw 27,268(1)
	stw 0,300(1)
	stw 28,272(1)
	stw 29,276(1)
	mr 29,4
	.cfi_offset 29, -20
	.cfi_offset 28, -24
	.cfi_offset 65, 4
	.cfi_offset 27, -28
	stw 30,280(1)
	mr 30,3
	.cfi_offset 30, -16
	stw 31,284(1)
	mr 31,1
	.cfi_offset 31, -12
.LCFI101:
	.cfi_def_cfa_register 31
	stfd 31,288(1)
	stw 23,252(1)
	stw 24,256(1)
	stw 25,260(1)
	stw 26,264(1)
.LBB9434:
	.loc 4 1109 0
	lwz 11,0(1)
	lwz 5,4(4)
	mulli 10,5,12
	.loc 4 1110 0
	slwi 9,5,2
	addi 9,9,45
	.loc 4 1109 0
	addi 0,10,45
	.loc 4 1110 0
	rlwinm 9,9,0,0,27
	.loc 4 1109 0
	rlwinm 0,0,0,0,27
	.loc 4 1110 0
	neg 9,9
	.loc 4 1109 0
	neg 0,0
	stwux 11,1,0
.LBB9435:
.LBB9436:
.LBB9437:
	.loc 3 402 0
	lwz 7,12(3)
.LBE9437:
.LBE9436:
.LBE9435:
	.loc 4 1109 0
	addi 28,1,23
	.loc 4 1110 0
	stwux 11,1,9
	.loc 4 1109 0
	rlwinm 28,28,0,0,27
.LBB9462:
.LBB9438:
.LBB9439:
	.loc 5 425 0
	stw 7,32(31)
.LBE9439:
.LBE9438:
.LBB9443:
.LBB9444:
	.loc 3 402 0
	lwz 10,20(30)
.LBE9444:
.LBE9443:
.LBE9462:
	.loc 4 1110 0
	addi 27,1,23
.LBB9463:
.LBB9445:
.LBB9446:
	.loc 3 402 0
	lwz 8,24(3)
.LBE9446:
.LBE9445:
.LBE9463:
	.loc 4 1110 0
	rlwinm 27,27,0,0,27
.LBB9464:
.LBB9447:
.LBB9448:
	.loc 3 402 0
	lwz 0,36(3)
.LBE9448:
.LBE9447:
.LBB9449:
.LBB9450:
	lwz 11,32(30)
.LBE9450:
.LBE9449:
.LBB9451:
.LBB9452:
	lwz 3,16(3)
.LVL1267:
.LBE9452:
.LBE9451:
.LBB9453:
.LBB9454:
	lwz 4,28(30)
.LVL1268:
.LBE9454:
.LBE9453:
.LBB9455:
.LBB9456:
	lwz 6,40(30)
.LBE9456:
.LBE9455:
.LBB9457:
.LBB9458:
	lwz 9,44(30)
.LBE9458:
.LBE9457:
.LBB9459:
.LBB9440:
	.loc 5 427 0
	stw 10,56(31)
	li 10,0
.LBE9440:
.LBE9459:
.LBE9464:
.LBB9465:
.LBB9466:
	.loc 5 333 0
	cmpwi 7,10,24
.LBE9466:
.LBE9465:
.LBB9477:
.LBB9460:
.LBB9441:
	.loc 5 427 0
	stw 11,60(31)
	.loc 5 425 0
	stw 8,36(31)
.LBE9441:
.LBE9460:
.LBE9477:
.LBB9478:
.LBB9475:
	.loc 5 333 0
	addi 11,31,32
.LBE9475:
.LBE9478:
.LBB9479:
.LBB9461:
.LBB9442:
	.loc 5 425 0
	stw 0,40(31)
	.loc 5 426 0
	stw 3,44(31)
	stw 4,48(31)
	stw 6,52(31)
	.loc 5 427 0
	stw 9,64(31)
.LVL1269:
.LBE9442:
.LBE9461:
.LBE9479:
.LBB9480:
.LBB9476:
.LBB9467:
.LBB9468:
	.loc 3 424 0
	addi 9,31,68
	stwux 7,9,10
.LBE9468:
.LBE9467:
	.loc 5 333 0
	addi 10,10,12
.LBB9472:
.LBB9469:
	.loc 3 425 0
	stw 8,4(9)
	.loc 3 426 0
	stw 0,8(9)
.LBE9469:
.LBE9472:
	.loc 5 333 0
	beq- 7,.L549
	.cfi_offset 26, -32
	.cfi_offset 25, -36
	.cfi_offset 24, -40
	.cfi_offset 23, -44
	.cfi_offset 63, -8
.L574:
	lwzux 7,11,10
.LVL1270:
	cmpwi 7,10,24
.LBB9473:
.LBB9470:
	.loc 3 424 0
	addi 9,31,68
	stwux 7,9,10
.LBE9470:
.LBE9473:
	.loc 5 333 0
	addi 10,10,12
	.loc 4 1102 0
	lwz 8,4(11)
	lwz 0,8(11)
	.loc 5 333 0
	addi 11,31,32
.LVL1271:
.LBB9474:
.LBB9471:
	.loc 3 425 0
	stw 8,4(9)
	.loc 3 426 0
	stw 0,8(9)
.LBE9471:
.LBE9474:
	.loc 5 333 0
	bne+ 7,.L574
.L549:
.LVL1272:
.LBE9476:
.LBE9480:
	.loc 4 1113 0 discriminator 1
	cmpwi 7,5,0
	ble- 7,.L551
	.loc 4 1113 0 is_stmt 0
	lfs 31,68(31)
	mr 9,28
	lfs 1,80(31)
	li 11,0
.LVL1273:
	lfs 2,92(31)
	li 10,0
	lfs 3,72(31)
	lfs 4,84(31)
	lfs 5,96(31)
	lfs 6,76(31)
	lfs 7,88(31)
	lfs 8,100(31)
.LVL1274:
.L552:
.LBB9481:
.LBB9482:
	.loc 1 204 0 is_stmt 1 discriminator 2
	lwz 7,8(29)
.LBE9482:
.LBE9481:
	.loc 4 1113 0 discriminator 2
	addi 10,10,1
.LVL1275:
.LBB9484:
.LBB9485:
	.loc 3 431 0 discriminator 2
	lfs 0,4(30)
.LBE9485:
.LBE9484:
.LBB9490:
.LBB9483:
	.loc 1 204 0 discriminator 2
	add 8,7,11
.LVL1276:
.LBE9483:
.LBE9490:
.LBB9491:
.LBB9486:
	.loc 3 431 0 discriminator 2
	lfsx 13,7,11
	lfs 12,4(8)
.LBE9486:
.LBE9491:
	.loc 4 2843 0 discriminator 2
	addi 11,11,20
.LBB9492:
.LBB9487:
	.loc 3 431 0 discriminator 2
	lfs 9,8(8)
	fsubs 12,12,0
	lfs 0,0(30)
.LBE9487:
.LBE9492:
	.loc 4 2843 0 discriminator 2
	lwz 5,4(29)
.LBB9493:
.LBB9488:
	.loc 3 431 0 discriminator 2
	fsubs 13,13,0
	lfs 0,8(30)
.LBE9488:
.LBE9493:
.LBB9494:
.LBB9495:
.LBB9496:
	.loc 5 454 0 discriminator 2
	fmuls 10,12,1
.LBE9496:
.LBE9495:
.LBE9494:
	.loc 4 1113 0 discriminator 2
	cmpw 7,5,10
.LBB9499:
.LBB9498:
.LBB9497:
	.loc 5 454 0 discriminator 2
	fmuls 11,12,4
	fmuls 12,12,7
.LBE9497:
.LBE9498:
.LBE9499:
.LBB9500:
.LBB9489:
	.loc 3 431 0 discriminator 2
	fsubs 0,9,0
.LVL1277:
.LBE9489:
.LBE9500:
.LBB9501:
.LBB9502:
	.loc 5 454 0 discriminator 2
	fmadds 10,13,31,10
	fmadds 11,13,3,11
	fmadds 13,13,6,12
.LVL1278:
	fmadds 10,0,2,10
	fmadds 11,0,5,11
	fmadds 0,0,8,13
.LVL1279:
	.loc 3 424 0 discriminator 2
	stfs 10,0(9)
	.loc 3 425 0 discriminator 2
	stfs 11,4(9)
	.loc 3 426 0 discriminator 2
	stfs 0,8(9)
.LBE9502:
.LBE9501:
	.loc 4 2843 0 discriminator 2
	addi 9,9,12
	.loc 4 1113 0 discriminator 2
	bgt+ 7,.L552
.LVL1280:
.L551:
	.loc 4 1118 0
	mr 3,30
	mr 4,28
	mr 6,27
	bl _ZNK9idFrustum16CullLocalWindingEPK6idVec3iPi
.LVL1281:
	mr. 26,3
	.loc 4 1119 0
	li 3,0
	.loc 4 1118 0
	beq- 0,.L575
.LVL1282:
.L553:
.LBE9434:
	.loc 4 1165 0
	addi 11,31,296
	lwz 0,4(11)
	lwz 23,-44(11)
	mtlr 0
	lwz 24,-40(11)
	lwz 25,-36(11)
	lwz 26,-32(11)
	lwz 27,-28(11)
.LVL1283:
	lwz 28,-24(11)
.LVL1284:
	lwz 29,-20(11)
.LVL1285:
	lwz 30,-16(11)
.LVL1286:
	lwz 31,-12(11)
	.cfi_remember_state
.LCFI102:
	.cfi_def_cfa 11, 0
	lfd 31,-8(11)
	mr 1,11
.LCFI103:
	.cfi_def_cfa_register 1
	.cfi_restore 63
	.cfi_restore 31
	.cfi_restore 30
	.cfi_restore 29
	.cfi_restore 28
	.cfi_restore 27
	.cfi_restore 26
	.cfi_restore 25
	.cfi_restore 24
	.cfi_restore 23
.LVL1287:
	blr
.LVL1288:
.L575:
.LCFI104:
	.cfi_restore_state
.LBB9542:
	.loc 4 1122 0
	mr 3,29
	addi 4,31,16
	bl _ZNK9idWinding8GetPlaneER7idPlane
	.loc 4 1124 0
	mr 3,30
	addi 4,31,152
	addi 5,31,104
	bl _ZNK9idFrustum26ToIndexPointsAndCornerVecsEP6idVec3S1_
.LVL1289:
	.loc 4 1125 0
	mr 3,30
	addi 4,31,152
	addi 5,31,104
	addi 6,31,16
.LVL1290:
	addi 7,31,12
	addi 8,31,8
	bl _ZNK9idFrustum14AxisProjectionEPK6idVec3S2_RS1_RfS4_
.LVL1291:
	.loc 4 1128 0
	lfs 13,28(31)
.LVL1292:
	lfs 12,12(31)
	lis 9,.LC0@ha
	lfs 0,.LC0@l(9)
	.loc 4 1129 0
	mr 3,26
	.loc 4 1128 0
	fadds 12,13,12
	fcmpu 7,12,0
	bgt- 7,.L553
.LVL1293:
	lfs 12,8(31)
	fadds 13,13,12
	fcmpu 7,13,0
	blt- 7,.L553
	lwz 24,4(29)
	addi 23,27,-4
	mr 25,28
	.loc 4 1102 0
	li 26,0
.L554:
.LVL1294:
	.loc 4 1133 0 discriminator 1
	cmpw 7,26,24
	.loc 4 1136 0 discriminator 1
	mr 4,25
	mr 3,30
	.loc 4 1134 0 discriminator 1
	addi 26,26,1
.LVL1295:
	.loc 4 1136 0 discriminator 1
	addi 25,25,12
	.loc 4 1133 0 discriminator 1
	bge- 7,.L576
.LVL1296:
	.loc 4 1134 0
	divw 9,26,24
	.loc 4 1135 0
	lwzu 0,4(23)
	.loc 4 1134 0
	mullw 9,9,24
	subf 9,9,26
	.loc 4 1136 0
	mulli 5,9,12
	.loc 4 1135 0
	slwi 9,9,2
	lwzx 9,27,9
	.loc 4 1136 0
	add 5,28,5
	.loc 4 1135 0
	and. 11,9,0
	bne- 0,.L554
	.loc 4 1136 0
	bl _ZNK9idFrustum21LocalLineIntersectionERK6idVec3S2_
	cmpwi 7,3,0
	beq+ 7,.L554
.LVL1297:
.L568:
.LBE9542:
	.loc 4 1165 0
	addi 11,31,296
.LBB9543:
	.loc 4 1160 0
	li 3,1
.LBE9543:
	.loc 4 1165 0
	lwz 0,4(11)
	lwz 23,-44(11)
	mtlr 0
	lwz 24,-40(11)
	lwz 25,-36(11)
	lwz 26,-32(11)
	lwz 27,-28(11)
.LVL1298:
	lwz 28,-24(11)
	lwz 29,-20(11)
.LVL1299:
	lwz 30,-16(11)
	lwz 31,-12(11)
	.cfi_remember_state
.LCFI105:
	.cfi_def_cfa 11, 0
	lfd 31,-8(11)
	mr 1,11
	.cfi_restore 23
	.cfi_restore 24
	.cfi_restore 25
	.cfi_restore 26
	.cfi_restore 27
	.cfi_restore 28
	.cfi_restore 29
	.cfi_restore 30
	.cfi_restore 31
	.cfi_restore 63
.LCFI106:
	.cfi_def_cfa_register 1
.LVL1300:
	blr
.LVL1301:
.L576:
.LCFI107:
	.cfi_restore_state
.LBB9544:
.LBB9503:
.LBB9504:
.LBB9505:
.LBB9506:
	.loc 3 424 0
	lwz 6,188(31)
.LBE9506:
.LBE9505:
.LBE9504:
.LBE9503:
.LBB9520:
.LBB9521:
.LBB9522:
.LBB9523:
	.loc 4 1146 0
	li 28,0
.LVL1302:
.LBE9523:
.LBE9522:
.LBE9521:
.LBE9520:
.LBB9538:
	.loc 12 86 0
	lwz 10,184(31)
	lwz 7,176(31)
.LVL1303:
.LBB9517:
.LBB9510:
.LBB9507:
	.loc 3 424 0
	stw 6,176(31)
	.loc 3 425 0
	lwz 6,192(31)
.LBE9507:
.LBE9510:
.LBE9517:
	.loc 12 86 0
	lwz 8,180(31)
.LVL1304:
.LBB9518:
.LBB9511:
.LBB9508:
	.loc 3 425 0
	stw 6,180(31)
	.loc 3 426 0
	lwz 6,196(31)
.LBE9508:
.LBE9511:
.LBB9512:
.LBB9513:
	stw 10,196(31)
.LBE9513:
.LBE9512:
.LBE9518:
.LBE9538:
.LBB9539:
.LBB9534:
.LBB9525:
.LBB9526:
	.loc 3 424 0
	lwz 10,236(31)
.LBE9526:
.LBE9525:
.LBE9534:
	.loc 12 86 0
	lwz 11,224(31)
.LBB9535:
.LBB9530:
.LBB9527:
	.loc 3 424 0
	stw 10,224(31)
	.loc 3 425 0
	lwz 10,240(31)
.LBE9527:
.LBE9530:
.LBE9535:
	.loc 12 86 0
	lwz 9,228(31)
	lwz 0,232(31)
.LBB9536:
.LBB9531:
.LBB9528:
	.loc 3 425 0
	stw 10,228(31)
	.loc 3 426 0
	lwz 10,244(31)
.LBE9528:
.LBE9531:
.LBE9536:
.LBE9539:
.LBB9540:
.LBB9519:
.LBB9515:
.LBB9509:
	stw 6,184(31)
.LVL1305:
.LBE9509:
.LBE9515:
.LBB9516:
.LBB9514:
	.loc 3 424 0
	stw 7,188(31)
	.loc 3 425 0
	stw 8,192(31)
.LBE9514:
.LBE9516:
.LBE9519:
.LBE9540:
.LBB9541:
.LBB9537:
.LBB9532:
.LBB9529:
	.loc 3 426 0
	stw 10,232(31)
.LVL1306:
.LBE9529:
.LBE9532:
.LBB9533:
.LBB9524:
	.loc 3 424 0
	stw 11,236(31)
	.loc 3 425 0
	stw 9,240(31)
	.loc 3 426 0
	stw 0,244(31)
.LVL1307:
.L557:
.LBE9524:
.LBE9533:
.LBE9537:
.LBE9541:
	.loc 4 1102 0
	addi 6,28,4
	.loc 4 1147 0
	mulli 5,28,12
	mulli 6,6,12
	addi 0,31,152
	mr 3,29
	addi 4,31,16
.LVL1308:
	add 5,0,5
	add 6,0,6
	li 7,0
	bl _ZNK9idWinding16LineIntersectionERK7idPlaneRK6idVec3S5_b
.LVL1309:
	.loc 4 1146 0
	cmpwi 6,28,3
	.loc 4 1147 0
	cmpwi 7,3,0
	.loc 4 1146 0
	addi 28,28,1
	.loc 4 1147 0
	bne- 7,.L568
	.loc 4 1146 0
	bne+ 6,.L557
	.loc 4 1151 0
	lis 11,.LC0@ha
	lfs 13,48(30)
	lfs 0,.LC0@l(11)
	li 30,0
.LVL1310:
	fcmpu 7,13,0
	bgt- 7,.L569
.L560:
.LVL1311:
	.loc 4 1151 0 is_stmt 0 discriminator 1
	li 30,0
.LVL1312:
.L559:
	.loc 4 1102 0 is_stmt 1
	addi 5,30,4
	.loc 4 1159 0
	addi 30,30,1
	rlwinm 6,30,0,30,31
	mulli 5,5,12
	addi 6,6,4
	addi 11,31,152
	mulli 6,6,12
	mr 3,29
	addi 4,31,16
.LVL1313:
	add 5,11,5
	add 6,11,6
	li 7,0
	bl _ZNK9idWinding16LineIntersectionERK7idPlaneRK6idVec3S5_b
.LVL1314:
	.loc 4 1158 0
	cmpwi 6,30,4
	.loc 4 1159 0
	cmpwi 7,3,0
	bne- 7,.L568
.LVL1315:
	.loc 4 1158 0 discriminator 1
	bne+ 6,.L559
.LBE9544:
	.loc 4 1165 0
	addi 11,31,296
	lwz 0,4(11)
	lwz 23,-44(11)
	mtlr 0
	lwz 24,-40(11)
	lwz 25,-36(11)
	lwz 26,-32(11)
	lwz 27,-28(11)
.LVL1316:
	lwz 28,-24(11)
	lwz 29,-20(11)
.LVL1317:
	lwz 30,-16(11)
.LVL1318:
	lwz 31,-12(11)
	.cfi_remember_state
.LCFI108:
	.cfi_def_cfa 11, 0
	lfd 31,-8(11)
	mr 1,11
	.cfi_restore 23
	.cfi_restore 24
	.cfi_restore 25
	.cfi_restore 26
	.cfi_restore 27
	.cfi_restore 28
	.cfi_restore 29
	.cfi_restore 30
	.cfi_restore 31
	.cfi_restore 63
.LCFI109:
	.cfi_def_cfa_register 1
.LVL1319:
	blr
.LVL1320:
.L569:
.LCFI110:
	.cfi_restore_state
.LBB9545:
	.loc 4 1153 0
	mulli 5,30,12
	addi 30,30,1
	rlwinm 6,30,0,30,31
	addi 0,31,152
	mulli 6,6,12
	mr 3,29
	addi 4,31,16
.LVL1321:
	add 5,0,5
	add 6,0,6
	li 7,0
	bl _ZNK9idWinding16LineIntersectionERK7idPlaneRK6idVec3S5_b
.LVL1322:
	.loc 4 1152 0
	cmpwi 6,30,4
	.loc 4 1153 0
	cmpwi 7,3,0
	bne- 7,.L568
.LVL1323:
	.loc 4 1152 0 discriminator 1
	bne+ 6,.L569
	b .L560
.LBE9545:
	.cfi_endproc
.LFE2561:
	.size	_ZNK9idFrustum17IntersectsWindingERK9idWinding, .-_ZNK9idFrustum17IntersectsWindingERK9idWinding
	.align 2
	.globl _ZNK9idFrustum14AxisProjectionERK6idVec3RfS3_
	.type	_ZNK9idFrustum14AxisProjectionERK6idVec3RfS3_, @function
_ZNK9idFrustum14AxisProjectionERK6idVec3RfS3_:
.LFB2577:
	.loc 4 1684 0
	.cfi_startproc
.LVL1324:
	stwu 1,-168(1)
.LCFI111:
	.cfi_def_cfa_offset 168
	mflr 0
	stw 28,152(1)
	mr 28,3
	.cfi_offset 28, -16
	.cfi_register 65, 0
	stw 29,156(1)
	mr 29,4
	.cfi_offset 29, -12
	stw 30,160(1)
.LBB9546:
	.loc 4 1687 0
	addi 4,1,56
.LVL1325:
.LBE9546:
	.loc 4 1684 0
	stw 31,164(1)
	mr 30,5
	.cfi_offset 31, -4
	.cfi_offset 30, -8
	mr 31,6
.LBB9547:
	.loc 4 1687 0
	addi 5,1,8
.LVL1326:
.LBE9547:
	.loc 4 1684 0
	stw 0,172(1)
.LBB9548:
	.loc 4 1687 0
	.cfi_offset 65, 4
	bl _ZNK9idFrustum26ToIndexPointsAndCornerVecsEP6idVec3S1_
.LVL1327:
	.loc 4 1688 0
	mr 3,28
	addi 4,1,56
	addi 5,1,8
	mr 6,29
	mr 7,30
	mr 8,31
	bl _ZNK9idFrustum14AxisProjectionEPK6idVec3S2_RS1_RfS4_
.LBE9548:
	.loc 4 1689 0
	lwz 0,172(1)
	lwz 28,152(1)
.LVL1328:
	mtlr 0
	lwz 29,156(1)
.LVL1329:
	lwz 30,160(1)
.LVL1330:
	lwz 31,164(1)
.LVL1331:
	addi 1,1,168
.LCFI112:
	.cfi_def_cfa_offset 0
	.cfi_restore 31
	.cfi_restore 30
	.cfi_restore 29
	.cfi_restore 28
	blr
	.cfi_endproc
.LFE2577:
	.size	_ZNK9idFrustum14AxisProjectionERK6idVec3RfS3_, .-_ZNK9idFrustum14AxisProjectionERK6idVec3RfS3_
	.align 2
	.globl _ZN9idFrustum18ConstrainToFrustumERKS_
	.type	_ZN9idFrustum18ConstrainToFrustumERKS_, @function
_ZN9idFrustum18ConstrainToFrustumERKS_:
.LFB2570:
	.loc 4 1474 0
	.cfi_startproc
.LVL1332:
	stwu 1,-32(1)
.LCFI113:
	.cfi_def_cfa_offset 32
	mflr 0
	stw 31,28(1)
	mr 31,3
	.cfi_offset 31, -4
	.cfi_register 65, 0
.LVL1333:
.LBB9549:
	.loc 4 1477 0
	addi 5,1,12
	mr 3,4
.LVL1334:
	addi 6,1,8
	addi 4,31,12
.LVL1335:
.LBE9549:
	.loc 4 1474 0
	stw 0,36(1)
.LBB9564:
	.loc 4 1477 0
	.cfi_offset 65, 4
	bl _ZNK9idFrustum14AxisProjectionERK6idVec3RfS3_
.LVL1336:
.LBB9550:
.LBB9551:
	.loc 3 435 0
	lfs 0,4(31)
	lfs 11,16(31)
.LBE9551:
.LBE9550:
	lfs 13,12(31)
.LBB9553:
.LBB9552:
	fmuls 11,11,0
.LBE9552:
.LBE9553:
	lfs 0,0(31)
	lfs 12,20(31)
	fmadds 13,13,0,11
	lfs 0,8(31)
	fmadds 0,12,0,13
.LVL1337:
	.loc 4 1478 0
	lfs 12,8(1)
	.loc 4 1479 0
	lfs 13,48(31)
	.loc 4 1478 0
	fsubs 0,12,0
.LVL1338:
	.loc 4 1479 0
	fcmpu 7,13,0
	cror 30,29,30
	beq- 7,.L584
.LVL1339:
.LBB9554:
.LBB9555:
	.loc 8 185 0
	lfs 13,52(31)
	.loc 8 189 0
	lis 9,.LC4@ha
	lfs 10,.LC4@l(9)
.LBE9555:
.LBE9554:
	.loc 4 1484 0
	li 3,1
.LBB9557:
.LBB9556:
	.loc 8 185 0
	fdivs 13,0,13
.LVL1340:
	.loc 8 186 0
	stfs 0,52(31)
	.loc 8 187 0
	lfs 12,56(31)
	.loc 8 188 0
	lfs 11,60(31)
	.loc 8 189 0
	fdivs 0,10,0
.LVL1341:
	.loc 8 187 0
	fmuls 12,12,13
	.loc 8 189 0
	stfs 0,64(31)
	.loc 8 188 0
	fmuls 13,11,13
.LVL1342:
	.loc 8 187 0
	stfs 12,56(31)
	.loc 8 188 0
	stfs 13,60(31)
.LBE9556:
.LBE9557:
.LBE9564:
	.loc 4 1485 0
	lwz 0,36(1)
	lwz 31,28(1)
.LVL1343:
	mtlr 0
	addi 1,1,32
	.cfi_remember_state
.LCFI114:
	.cfi_def_cfa_offset 0
	.cfi_restore 31
	blr
.LVL1344:
.L584:
.LCFI115:
	.cfi_restore_state
.LBB9565:
	.loc 4 1480 0
	lis 9,.LC4@ha
.LBB9558:
.LBB9559:
	.loc 8 185 0
	lfs 0,52(31)
.LVL1345:
.LBE9559:
.LBE9558:
	.loc 4 1480 0
	lfs 12,.LC4@l(9)
	.loc 4 1481 0
	li 3,0
.LBB9562:
.LBB9560:
	.loc 8 187 0
	lfs 11,56(31)
.LBE9560:
.LBE9562:
	.loc 4 1480 0
	fadds 13,13,12
.LVL1346:
.LBB9563:
.LBB9561:
	.loc 8 188 0
	lfs 10,60(31)
	.loc 8 185 0
	fdivs 0,13,0
.LVL1347:
	.loc 8 186 0
	stfs 13,52(31)
	.loc 8 189 0
	fdivs 13,12,13
.LVL1348:
	.loc 8 187 0
	fmuls 11,11,0
	.loc 8 189 0
	stfs 13,64(31)
	.loc 8 188 0
	fmuls 0,10,0
.LVL1349:
	.loc 8 187 0
	stfs 11,56(31)
	.loc 8 188 0
	stfs 0,60(31)
.LBE9561:
.LBE9563:
.LBE9565:
	.loc 4 1485 0
	lwz 0,36(1)
	lwz 31,28(1)
.LVL1350:
	mtlr 0
	addi 1,1,32
	.cfi_restore 31
.LCFI116:
	.cfi_def_cfa_offset 0
	blr
	.cfi_endproc
.LFE2570:
	.size	_ZN9idFrustum18ConstrainToFrustumERKS_, .-_ZN9idFrustum18ConstrainToFrustumERKS_
	.align 2
	.globl _ZNK9idFrustum9PlaneSideERK7idPlanef
	.type	_ZNK9idFrustum9PlaneSideERK7idPlanef, @function
_ZNK9idFrustum9PlaneSideERK7idPlanef:
.LFB2540:
	.loc 4 102 0
	.cfi_startproc
.LVL1351:
	stwu 1,-40(1)
.LCFI117:
	.cfi_def_cfa_offset 40
	mflr 0
	stw 31,28(1)
.LBB9566:
	.loc 4 105 0
	addi 5,1,12
.LBE9566:
	.loc 4 102 0
	mr 31,4
	.cfi_offset 31, -12
	.cfi_register 65, 0
.LVL1352:
.LBB9569:
	.loc 4 105 0
	addi 6,1,8
.LBE9569:
	.loc 4 102 0
	stfd 31,32(1)
	fmr 31,1
	.cfi_offset 63, -8
	stw 0,44(1)
.LBB9570:
	.loc 4 105 0
	.cfi_offset 65, 4
	bl _ZNK9idFrustum14AxisProjectionERK6idVec3RfS3_
.LVL1353:
.LBB9567:
.LBB9568:
	.loc 11 155 0
	lfs 0,12(31)
.LBE9568:
.LBE9567:
	.loc 4 107 0
	li 3,0
