	.file	"Fx.cpp"
	.section	".text"
.Ltext0:
	.section	.text._ZN14idFixedWinding5ClearEv,"axG",@progbits,_ZN14idFixedWinding5ClearEv,comdat
	.align 2
	.weak	_ZN14idFixedWinding5ClearEv
	.type	_ZN14idFixedWinding5ClearEv, @function
_ZN14idFixedWinding5ClearEv:
.LFB1502:
	.file 1 "d:/Data/Nintendo/DoomGX/src/game/../idlib/../idlib/geometry/Winding.h"
	.loc 1 398 0
	.cfi_startproc
.LVL0:
	.loc 1 399 0
	li 0,0
	.loc 1 400 0
	.loc 1 399 0
	stw 0,4(3)
	.loc 1 400 0
	blr
	.cfi_endproc
.LFE1502:
	.size	_ZN14idFixedWinding5ClearEv, .-_ZN14idFixedWinding5ClearEv
	.section	".text"
	.align 2
	.globl _ZNK10idEntityFx7GetTypeEv
	.type	_ZNK10idEntityFx7GetTypeEv, @function
_ZNK10idEntityFx7GetTypeEv:
.LFB2811:
	.file 2 "d:/Data/Nintendo/DoomGX/src/game/Fx.cpp"
	.loc 2 45 0
	.cfi_startproc
.LVL1:
	.loc 2 45 0
	lis 3,.LANCHOR0@ha
.LVL2:
	la 3,.LANCHOR0@l(3)
	blr
	.cfi_endproc
.LFE2811:
	.size	_ZNK10idEntityFx7GetTypeEv, .-_ZNK10idEntityFx7GetTypeEv
	.align 2
	.globl _ZNK12idTeleporter7GetTypeEv
	.type	_ZNK12idTeleporter7GetTypeEv, @function
_ZNK12idTeleporter7GetTypeEv:
.LFB2853:
	.loc 2 781 0
	.cfi_startproc
.LVL3:
	.loc 2 781 0
	lis 3,.LANCHOR0@ha
.LVL4:
	la 3,.LANCHOR0@l(3)
	addi 3,3,80
	blr
	.cfi_endproc
.LFE2853:
	.size	_ZNK12idTeleporter7GetTypeEv, .-_ZNK12idTeleporter7GetTypeEv
	.section	.text._ZN9idWinding5ClearEv,"axG",@progbits,_ZN9idWinding5ClearEv,comdat
	.align 2
	.weak	_ZN9idWinding5ClearEv
	.type	_ZN9idWinding5ClearEv, @function
_ZN9idWinding5ClearEv:
.LFB1473:
	.loc 1 249 0
	.cfi_startproc
.LVL5:
	mflr 0
	stwu 1,-16(1)
.LCFI0:
	.cfi_def_cfa_offset 16
	.cfi_register 65, 0
	stw 31,12(1)
	mr 31,3
	.cfi_offset 31, -4
	stw 0,20(1)
	.loc 1 250 0
	li 0,0
	.cfi_offset 65, 4
	.loc 1 251 0
	lwz 3,8(3)
.LVL6:
	.loc 1 250 0
	stw 0,4(31)
	.loc 1 251 0
	cmpwi 7,3,0
	beq- 7,.L5
	.loc 1 251 0 is_stmt 0 discriminator 1
	bl _ZdaPv
.L5:
	.loc 1 252 0 is_stmt 1
	li 0,0
	stw 0,8(31)
	.loc 1 253 0
	lwz 0,20(1)
	lwz 31,12(1)
.LVL7:
	mtlr 0
	addi 1,1,16
.LCFI1:
	.cfi_def_cfa_offset 0
	.cfi_restore 31
	blr
	.cfi_endproc
.LFE1473:
	.size	_ZN9idWinding5ClearEv, .-_ZN9idWinding5ClearEv
	.section	.text._ZN9idWindingD2Ev,"axG",@progbits,_ZN9idWindingD5Ev,comdat
	.align 2
	.weak	_ZN9idWindingD2Ev
	.type	_ZN9idWindingD2Ev, @function
_ZN9idWindingD2Ev:
.LFB1461:
	.loc 1 183 0
	.cfi_startproc
.LVL8:
	mflr 0
	stwu 1,-16(1)
.LCFI2:
	.cfi_def_cfa_offset 16
	.cfi_register 65, 0
.LBB949:
	lis 9,_ZTV9idWinding+8@ha
.LBE949:
	stw 31,12(1)
	mr 31,3
	.cfi_offset 31, -4
	stw 0,20(1)
.LBB950:
	.loc 1 183 0
	la 0,_ZTV9idWinding+8@l(9)
	.cfi_offset 65, 4
	.loc 1 184 0
	lwz 3,8(3)
.LVL9:
	.loc 1 183 0
	stw 0,0(31)
	.loc 1 184 0
	cmpwi 7,3,0
	beq- 7,.L8
	.loc 1 184 0 is_stmt 0 discriminator 1
	bl _ZdaPv
.L8:
	.loc 1 185 0 is_stmt 1
	li 0,0
	stw 0,8(31)
.LBE950:
	.loc 1 186 0
	lwz 0,20(1)
	lwz 31,12(1)
.LVL10:
	mtlr 0
	addi 1,1,16
.LCFI3:
	.cfi_def_cfa_offset 0
	.cfi_restore 31
	blr
	.cfi_endproc
.LFE1461:
	.size	_ZN9idWindingD2Ev, .-_ZN9idWindingD2Ev
	.section	".text"
	.align 2
	.globl _ZNK10idEntityFx15WriteToSnapshotER13idBitMsgDelta
	.type	_ZNK10idEntityFx15WriteToSnapshotER13idBitMsgDelta, @function
_ZNK10idEntityFx15WriteToSnapshotER13idBitMsgDelta:
.LFB2846:
	.loc 2 723 0
	.cfi_startproc
.LVL11:
	mflr 0
	stwu 1,-16(1)
.LCFI4:
	.cfi_def_cfa_offset 16
	.cfi_register 65, 0
	stw 30,8(1)
	mr 30,3
	.cfi_offset 30, -8
	stw 0,20(1)
	stw 31,12(1)
	.loc 2 723 0
	mr 31,4
	.cfi_offset 31, -4
	.cfi_offset 65, 4
	.loc 2 724 0
	bl _ZNK8idEntity10GetPhysicsEv
.LVL12:
	mr 4,31
	lwz 9,0(3)
	lwz 0,264(9)
	mtctr 0
	bctrl
	.loc 2 725 0
	mr 4,31
	mr 3,30
	bl _ZNK8idEntity19WriteBindToSnapshotER13idBitMsgDelta
	.loc 2 726 0
	lwz 9,644(30)
	li 4,-1
	cmpwi 7,9,0
	beq- 7,.L11
	.loc 2 796 0 discriminator 1
	lwz 3,4(9)
.LBB951:
.LBB952:
	.file 3 "d:/Data/Nintendo/DoomGX/src/game/../idlib/../framework/DeclManager.h"
	.loc 3 165 0 discriminator 1
	lwz 9,0(3)
	lwz 0,40(9)
	mtctr 0
	bctrl
.LBE952:
.LBE951:
	.loc 2 726 0 discriminator 1
	li 4,-1
.LBB954:
.LBB953:
	.loc 3 165 0 discriminator 1
	mr 6,3
.LBE953:
.LBE954:
	.loc 2 726 0 discriminator 1
	lis 3,gameLocal@ha
	la 3,gameLocal@l(3)
	li 5,6
	bl _ZN11idGameLocal15ServerRemapDeclEi10declType_ti
	mr 4,3
.L11:
.LVL13:
.LBB955:
.LBB956:
	.file 4 "d:/Data/Nintendo/DoomGX/src/game/../idlib/../idlib/BitMsg.h"
	.loc 4 555 0 discriminator 3
	mr 3,31
	li 5,32
	bl _ZN13idBitMsgDelta9WriteBitsEii
.LVL14:
.LBE956:
.LBE955:
.LBB957:
.LBB958:
	lwz 4,636(30)
	mr 3,31
	li 5,32
	bl _ZN13idBitMsgDelta9WriteBitsEii
.LVL15:
.LBE958:
.LBE957:
	.loc 2 728 0 discriminator 3
	lwz 0,20(1)
	lwz 30,8(1)
.LVL16:
	mtlr 0
	lwz 31,12(1)
.LVL17:
	addi 1,1,16
.LCFI5:
	.cfi_def_cfa_offset 0
	.cfi_restore 31
	.cfi_restore 30
	blr
	.cfi_endproc
.LFE2846:
	.size	_ZNK10idEntityFx15WriteToSnapshotER13idBitMsgDelta, .-_ZNK10idEntityFx15WriteToSnapshotER13idBitMsgDelta
	.align 2
	.globl _ZNK10idEntityFx4SaveEP10idSaveGame
	.type	_ZNK10idEntityFx4SaveEP10idSaveGame, @function
_ZNK10idEntityFx4SaveEP10idSaveGame:
.LFB2812:
	.loc 2 56 0
	.cfi_startproc
.LVL18:
	mflr 0
	stwu 1,-24(1)
.LCFI6:
	.cfi_def_cfa_offset 24
	.cfi_register 65, 0
	stw 29,12(1)
	mr 29,4
	.cfi_offset 29, -12
	stw 0,28(1)
	stw 30,16(1)
	mr 30,3
	.cfi_offset 30, -8
	.cfi_offset 65, 4
	stw 28,8(1)
	stw 31,20(1)
.LBB959:
	.loc 2 59 0
	lwz 4,636(3)
.LVL19:
	mr 3,29
.LVL20:
	.cfi_offset 31, -4
	.cfi_offset 28, -16
	bl _ZN10idSaveGame8WriteIntEi
	.loc 2 60 0
	lwz 4,640(30)
	mr 3,29
	bl _ZN10idSaveGame8WriteIntEi
	.loc 2 61 0
	lwz 4,644(30)
	mr 3,29
	bl _ZN10idSaveGame7WriteFXEPK8idDeclFX
.LVL21:
	.loc 2 62 0
	lwz 4,668(30)
	mr 3,29
	bl _ZN10idSaveGame11WriteStringEPKc
	.loc 2 64 0
	lwz 4,648(30)
	mr 3,29
	bl _ZN10idSaveGame8WriteIntEi
.LVL22:
	.loc 2 66 0
	lwz 0,648(30)
	cmpwi 7,0,0
	ble- 7,.L13
	li 31,0
	li 28,0
	b .L19
.LVL23:
.L21:
	.loc 2 69 0
	bl _ZN10idSaveGame9WriteBoolEb
.LVL24:
.LBB960:
.LBB961:
	.file 5 "d:/Data/Nintendo/DoomGX/src/game/../idlib/../idlib/containers/List.h"
	.loc 5 573 0
	lwz 4,660(30)
.LBE961:
.LBE960:
	.loc 2 70 0
	mr 3,29
	add 4,4,31
	bl _ZN10idSaveGame16WriteRenderLightERK13renderLight_s
.LVL25:
	.loc 2 75 0
	lwz 9,660(30)
	.loc 2 76 0
	mr 3,29
	li 4,1
	.loc 2 75 0
	add 9,9,31
	lwz 0,428(9)
	cmpwi 7,0,0
	blt- 7,.L17
.LVL26:
.L22:
	.loc 2 76 0
	bl _ZN10idSaveGame9WriteBoolEb
.LVL27:
.LBB962:
.LBB963:
	.loc 5 573 0
	lwz 4,660(30)
.LBE963:
.LBE962:
	.loc 2 77 0
	mr 3,29
.LBB965:
.LBB964:
	.loc 5 573 0
	add 4,4,31
.LBE964:
.LBE965:
	.loc 2 77 0
	addi 4,4,212
	bl _ZN10idSaveGame17WriteRenderEntityERK14renderEntity_s
.LVL28:
.L18:
	.loc 2 82 0
	lwz 9,660(30)
	mr 3,29
	.loc 2 66 0
	addi 28,28,1
.LVL29:
	.loc 2 82 0
	add 9,9,31
	lfs 1,432(9)
	bl _ZN10idSaveGame10WriteFloatEf
	.loc 2 83 0
	lwz 9,660(30)
	mr 3,29
	add 9,9,31
	lwz 4,440(9)
	bl _ZN10idSaveGame8WriteIntEi
	.loc 2 84 0
	lwz 9,660(30)
	mr 3,29
	add 9,9,31
	lbz 4,444(9)
	bl _ZN10idSaveGame9WriteBoolEb
	.loc 2 85 0
	lwz 9,660(30)
	mr 3,29
	add 9,9,31
	lbz 4,445(9)
	bl _ZN10idSaveGame9WriteBoolEb
	.loc 2 86 0
	lwz 9,660(30)
	mr 3,29
	add 9,9,31
	lbz 4,446(9)
	bl _ZN10idSaveGame9WriteBoolEb
	.loc 2 87 0
	lwz 9,660(30)
	mr 3,29
	add 9,9,31
	.loc 2 66 0
	addi 31,31,448
	.loc 2 87 0
	lbz 4,447(9)
	bl _ZN10idSaveGame9WriteBoolEb
.LVL30:
	.loc 2 66 0
	lwz 0,648(30)
	cmpw 7,0,28
	ble- 7,.L13
.LVL31:
.L19:
	.loc 2 68 0
	lwz 9,660(30)
	.loc 2 69 0
	mr 3,29
	li 4,1
	.loc 2 68 0
	add 9,9,31
	lwz 0,208(9)
	cmpwi 7,0,0
	bge+ 7,.L21
	.loc 2 72 0
	mr 3,29
	li 4,0
	bl _ZN10idSaveGame9WriteBoolEb
.LVL32:
	.loc 2 75 0
	lwz 9,660(30)
	.loc 2 76 0
	mr 3,29
	li 4,1
	.loc 2 75 0
	add 9,9,31
	lwz 0,428(9)
	cmpwi 7,0,0
	bge+ 7,.L22
.L17:
	.loc 2 79 0
	li 4,0
	mr 3,29
	bl _ZN10idSaveGame9WriteBoolEb
	b .L18
.LVL33:
.L13:
.LBE959:
	.loc 2 89 0
	lwz 0,28(1)
	lwz 28,8(1)
	mtlr 0
	lwz 29,12(1)
.LVL34:
	lwz 30,16(1)
.LVL35:
	lwz 31,20(1)
	addi 1,1,24
.LCFI7:
	.cfi_def_cfa_offset 0
	.cfi_restore 31
	.cfi_restore 30
	.cfi_restore 29
	.cfi_restore 28
	blr
	.cfi_endproc
.LFE2812:
	.size	_ZNK10idEntityFx4SaveEP10idSaveGame, .-_ZNK10idEntityFx4SaveEP10idSaveGame
	.align 2
	.type	_Z41__static_initialization_and_destruction_0ii.constprop.34, @function
_Z41__static_initialization_and_destruction_0ii.constprop.34:
.LFB3196:
	.loc 2 796 0
	.cfi_startproc
.LVL36:
	cmpwi 7,3,1
	mflr 0
	stwu 1,-64(1)
.LCFI8:
	.cfi_def_cfa_offset 64
	.cfi_register 65, 0
	stw 0,68(1)
	stw 25,36(1)
	stw 26,40(1)
	stw 27,44(1)
	stw 28,48(1)
	stw 29,52(1)
	stw 30,56(1)
	stw 31,60(1)
	.loc 2 796 0
	beq- 7,.L26
	.cfi_offset 31, -4
	.cfi_offset 30, -8
	.cfi_offset 29, -12
	.cfi_offset 28, -16
	.cfi_offset 27, -20
	.cfi_offset 26, -24
	.cfi_offset 25, -28
	.cfi_offset 65, 4
	.loc 2 781 0
	cmpwi 7,3,0
	bne- 7,.L23
	lis 31,.LANCHOR0@ha
	la 31,.LANCHOR0@l(31)
	addi 3,31,80
.LVL37:
	bl _ZN10idTypeInfoD1Ev
	.loc 2 45 0
	mr 3,31
	bl _ZN10idTypeInfoD1Ev
.L23:
	.loc 2 796 0
	lwz 0,68(1)
	lwz 25,36(1)
	mtlr 0
	lwz 26,40(1)
	lwz 27,44(1)
	lwz 28,48(1)
	lwz 29,52(1)
	lwz 30,56(1)
	lwz 31,60(1)
	addi 1,1,64
	.cfi_remember_state
.LCFI9:
	.cfi_def_cfa_offset 0
	.cfi_restore 31
	.cfi_restore 30
	.cfi_restore 29
	.cfi_restore 28
	.cfi_restore 27
	.cfi_restore 26
	.cfi_restore 25
	blr
.LVL38:
.L26:
.LCFI10:
	.cfi_restore_state
	.file 6 "d:/Data/Nintendo/DoomGX/src/game/Game_local.h"
	.loc 6 694 0
	lis 9,_ZN6idMath8M_SEC2MSE@ha
	.loc 6 121 0
	lis 31,.LANCHOR0@ha
	.loc 6 694 0
	lfs 0,_ZN6idMath8M_SEC2MSE@l(9)
	.loc 6 121 0
	la 31,.LANCHOR0@l(31)
	li 11,3
.LBB966:
.LBB967:
	.file 7 "d:/Data/Nintendo/DoomGX/src/game/../idlib/../idlib/math/Vector.h"
	.loc 7 396 0
	li 0,0
.LBE967:
.LBE966:
	.loc 6 694 0
	fadds 0,0,0
	.loc 6 121 0
	stw 11,160(31)
.LVL39:
.LBB971:
.LBB968:
	.loc 7 398 0
	lis 11,.LC0@ha
	.loc 7 396 0
	stw 0,164(31)
	.loc 7 397 0
	stw 0,168(31)
.LBE968:
.LBE971:
.LBB972:
.LBB973:
	.file 8 "d:/Data/Nintendo/DoomGX/src/game/../idlib/../idlib/math/Math.h"
	.loc 8 825 0
	addi 9,31,176
.LBE973:
.LBE972:
.LBB976:
.LBB969:
	.loc 7 398 0
	lwz 0,.LC0@l(11)
.LBE969:
.LBE976:
.LBB977:
.LBB974:
	.loc 8 825 0
	fctiwz 0,0
.LBE974:
.LBE977:
	.loc 2 42 0
	lis 4,.LC1@ha
	addi 3,31,184
.LVL40:
.LBB978:
.LBB970:
	.loc 7 398 0
	stw 0,172(31)
.LVL41:
.LBE970:
.LBE978:
	.file 9 "d:/Data/Nintendo/DoomGX/src/game/Player.h"
	.loc 9 69 0
	li 0,10
.LBB979:
.LBB975:
	.loc 8 825 0
	stfiwx 0,0,9
.LVL42:
.LBE975:
.LBE979:
	.loc 2 42 0
	la 4,.LC1@l(4)
	.loc 9 69 0
	stw 0,180(31)
	.loc 2 42 0
	li 5,0
	li 6,0
	.loc 2 45 0
	lis 25,.LC4@ha
	.loc 2 42 0
	bl _ZN10idEventDefC1EPKcS1_c
	.loc 2 43 0
	lis 4,.LC2@ha
	lis 5,.LC3@ha
	addi 3,31,248
	la 4,.LC2@l(4)
	la 5,.LC3@l(5)
	li 6,0
	.loc 2 45 0
	lis 26,.LANCHOR1@ha
	.loc 2 43 0
	bl _ZN10idEventDefC1EPKcS1_c
	.loc 2 45 0
	la 25,.LC4@l(25)
	la 26,.LANCHOR1@l(26)
	lis 27,_ZN10idEntityFx5SpawnEv@ha
	lis 28,_ZNK10idEntityFx4SaveEP10idSaveGame@ha
	lis 29,_ZN10idEntityFx7RestoreEP13idRestoreGame@ha
	lis 5,.LC5@ha
	lis 7,_ZN10idEntityFx14CreateInstanceEv@ha
	li 30,0
	la 27,_ZN10idEntityFx5SpawnEv@l(27)
	la 28,_ZNK10idEntityFx4SaveEP10idSaveGame@l(28)
	la 29,_ZN10idEntityFx7RestoreEP13idRestoreGame@l(29)
	mr 3,31
	mr 4,25
	mr 6,26
	addi 8,1,8
	addi 9,1,16
	addi 10,1,24
	la 5,.LC5@l(5)
	la 7,_ZN10idEntityFx14CreateInstanceEv@l(7)
	stw 27,8(1)
	stw 30,12(1)
	stw 28,16(1)
	stw 30,20(1)
	stw 29,24(1)
	stw 30,28(1)
	bl _ZN10idTypeInfoC1EPKcS1_P11idEventFuncI7idClassEPFPS3_vEMS3_FvvEMS3_KFvP10idSaveGameEMS3_FvP13idRestoreGameE
	.loc 2 781 0
	lis 4,.LC6@ha
	lis 7,_ZN12idTeleporter14CreateInstanceEv@ha
	addi 3,31,80
	la 4,.LC6@l(4)
	mr 5,25
	addi 6,26,36
	la 7,_ZN12idTeleporter14CreateInstanceEv@l(7)
	addi 8,1,8
	addi 9,1,16
	addi 10,1,24
	stw 27,8(1)
	stw 30,12(1)
	stw 28,16(1)
	stw 30,20(1)
	stw 29,24(1)
	stw 30,28(1)
	bl _ZN10idTypeInfoC1EPKcS1_P11idEventFuncI7idClassEPFPS3_vEMS3_FvvEMS3_KFvP10idSaveGameEMS3_FvP13idRestoreGameE
	b .L23
	.cfi_endproc
.LFE3196:
	.size	_Z41__static_initialization_and_destruction_0ii.constprop.34, .-_Z41__static_initialization_and_destruction_0ii.constprop.34
	.section	.text._ZN14idFixedWindingD0Ev,"axG",@progbits,_ZN14idFixedWindingD5Ev,comdat
	.align 2
	.weak	_ZN14idFixedWindingD0Ev
	.type	_ZN14idFixedWindingD0Ev, @function
_ZN14idFixedWindingD0Ev:
.LFB1500:
	.loc 1 380 0
	.cfi_startproc
.LVL43:
	mflr 0
	stwu 1,-8(1)
.LCFI11:
	.cfi_def_cfa_offset 8
	.cfi_register 65, 0
.LBB986:
.LBB987:
.LBB988:
.LBB989:
.LBB990:
.LBB991:
	.loc 1 183 0
	lis 11,_ZTV9idWinding+8@ha
.LBE991:
.LBE990:
.LBE989:
.LBE988:
.LBE987:
.LBE986:
	.loc 1 380 0
	stw 0,12(1)
.LBB997:
.LBB996:
.LBB995:
	.loc 1 381 0
	li 0,0
	.cfi_offset 65, 4
	stw 0,8(3)
.LVL44:
.LBB994:
.LBB993:
.LBB992:
	.loc 1 183 0
	la 0,_ZTV9idWinding+8@l(11)
	stw 0,0(3)
.LBE992:
.LBE993:
.LBE994:
.LBE995:
.LBE996:
.LBE997:
	.loc 1 382 0
	bl _ZdlPv
.LVL45:
	lwz 0,12(1)
	addi 1,1,8
.LCFI12:
	.cfi_def_cfa_offset 0
	mtlr 0
	blr
	.cfi_endproc
.LFE1500:
	.size	_ZN14idFixedWindingD0Ev, .-_ZN14idFixedWindingD0Ev
	.section	.text._ZN14idFixedWindingD2Ev,"axG",@progbits,_ZN14idFixedWindingD5Ev,comdat
	.align 2
	.weak	_ZN14idFixedWindingD2Ev
	.type	_ZN14idFixedWindingD2Ev, @function
_ZN14idFixedWindingD2Ev:
.LFB1498:
	.loc 1 380 0
	.cfi_startproc
.LVL46:
.LBB1002:
	.loc 1 381 0
	li 0,0
.LBB1003:
.LBB1004:
.LBB1005:
	.loc 1 183 0
	lis 9,_ZTV9idWinding+8@ha
.LBE1005:
.LBE1004:
.LBE1003:
	.loc 1 381 0
	stw 0,8(3)
.LVL47:
.LBB1008:
.LBB1007:
.LBB1006:
	.loc 1 183 0
	la 0,_ZTV9idWinding+8@l(9)
	stw 0,0(3)
.LBE1006:
.LBE1007:
.LBE1008:
.LBE1002:
	.loc 1 382 0
	blr
	.cfi_endproc
.LFE1498:
	.size	_ZN14idFixedWindingD2Ev, .-_ZN14idFixedWindingD2Ev
	.section	.text._ZN9idWindingD0Ev,"axG",@progbits,_ZN9idWindingD5Ev,comdat
	.align 2
	.weak	_ZN9idWindingD0Ev
	.type	_ZN9idWindingD0Ev, @function
_ZN9idWindingD0Ev:
.LFB1463:
	.loc 1 183 0
	.cfi_startproc
.LVL48:
	mflr 0
	stwu 1,-16(1)
.LCFI13:
	.cfi_def_cfa_offset 16
	.cfi_register 65, 0
.LBB1012:
.LBB1013:
.LBB1014:
	lis 9,_ZTV9idWinding+8@ha
.LBE1014:
.LBE1013:
.LBE1012:
	stw 31,12(1)
	mr 31,3
	.cfi_offset 31, -4
.LVL49:
	stw 0,20(1)
.LBB1019:
.LBB1017:
.LBB1015:
	.loc 1 183 0
	la 0,_ZTV9idWinding+8@l(9)
	.cfi_offset 65, 4
	.loc 1 184 0
	lwz 3,8(3)
.LVL50:
	.loc 1 183 0
	stw 0,0(31)
	.loc 1 184 0
	cmpwi 7,3,0
	beq- 7,.L35
	bl _ZdaPv
.L35:
	.loc 1 185 0
	li 0,0
.LBE1015:
.LBE1017:
.LBE1019:
	.loc 1 186 0
	mr 3,31
.LBB1020:
.LBB1018:
.LBB1016:
	.loc 1 185 0
	stw 0,8(31)
.LBE1016:
.LBE1018:
.LBE1020:
	.loc 1 186 0
	bl _ZdlPv
	lwz 0,20(1)
	lwz 31,12(1)
.LVL51:
	mtlr 0
	addi 1,1,16
.LCFI14:
	.cfi_def_cfa_offset 0
	.cfi_restore 31
	blr
	.cfi_endproc
.LFE1463:
	.size	_ZN9idWindingD0Ev, .-_ZN9idWindingD0Ev
	.section	".text"
	.align 2
	.globl _ZN12idTeleporter14Event_DoActionEP8idEntity
	.type	_ZN12idTeleporter14Event_DoActionEP8idEntity, @function
_ZN12idTeleporter14Event_DoActionEP8idEntity:
.LFB2854:
	.loc 2 790 0
	.cfi_startproc
.LVL52:
	stwu 1,-40(1)
.LCFI15:
	.cfi_def_cfa_offset 40
	mflr 0
	stw 29,28(1)
.LBB1034:
.LBB1035:
.LBB1036:
.LBB1037:
.LBB1038:
	.file 10 "d:/Data/Nintendo/DoomGX/src/game/../idlib/../idlib/Dict.h"
	.loc 10 241 0
	lis 29,.LC8@ha
	.cfi_offset 29, -12
	.cfi_register 65, 0
.LBE1038:
.LBE1037:
.LBE1036:
.LBE1035:
.LBE1034:
	.loc 2 790 0
	stw 28,24(1)
.LBB1075:
.LBB1052:
.LBB1048:
.LBB1044:
.LBB1040:
	.loc 10 241 0
	la 29,.LC8@l(29)
.LBE1040:
.LBE1044:
.LBE1048:
.LBE1052:
	.loc 2 793 0
	addi 28,3,100
	.cfi_offset 28, -16
.LVL53:
.LBE1075:
	.loc 2 790 0
	stw 30,32(1)
	stw 31,36(1)
	mr 30,4
	.cfi_offset 31, -4
	.cfi_offset 30, -8
	mr 31,3
.LBB1076:
.LBB1053:
.LBB1049:
.LBB1045:
.LBB1041:
	.loc 10 241 0
	mr 4,29
.LVL54:
	mr 3,28
.LVL55:
.LBE1041:
.LBE1045:
.LBE1049:
.LBE1053:
.LBE1076:
	.loc 2 790 0
	stw 0,44(1)
.LBB1077:
.LBB1054:
.LBB1050:
.LBB1046:
.LBB1042:
	.loc 10 241 0
	.cfi_offset 65, 4
	bl _ZNK6idDict7FindKeyEPKc
.LVL56:
	.loc 10 242 0
	cmpwi 0,3,0
	beq- 0,.L41
.LVL57:
.LBB1039:
	.loc 2 796 0
	lwz 9,4(3)
	lwz 3,4(9)
.LVL58:
.LBE1039:
.LBE1042:
.LBE1046:
	.loc 10 249 0
	bl atof
.LVL59:
.LBE1050:
.LBE1054:
.LBB1055:
.LBB1056:
.LBB1057:
.LBB1058:
	.loc 10 241 0
	mr 3,28
	mr 4,29
	bl _ZNK6idDict7FindKeyEPKc
.LVL60:
	.loc 10 242 0
	cmpwi 0,3,0
	beq- 0,.L42
.L43:
.LVL61:
.LBB1059:
	.loc 2 796 0
	lwz 9,4(3)
	lwz 3,4(9)
.LVL62:
.L40:
.LBE1059:
.LBE1058:
.LBE1057:
	.loc 10 249 0
	bl atof
.LVL63:
.LBE1056:
.LBE1055:
	.loc 2 795 0
	lwz 9,0(30)
.LBB1065:
.LBB1062:
	.loc 10 249 0
	frsp 1,1
.LBE1062:
.LBE1065:
.LBB1066:
.LBB1067:
	.file 11 "d:/Data/Nintendo/DoomGX/src/game/../idlib/../idlib/math/Angles.h"
	.loc 11 109 0
	li 0,0
.LBE1067:
.LBE1066:
	.loc 2 795 0
	mr 3,31
.LBB1070:
.LBB1068:
	.loc 11 109 0
	stw 0,8(1)
.LBE1068:
.LBE1070:
	.loc 2 795 0
	lwz 31,200(9)
.LVL64:
.LBB1071:
.LBB1063:
	.loc 10 249 0
	stfs 1,12(1)
.LBE1063:
.LBE1071:
.LBB1072:
.LBB1069:
	.loc 11 111 0
	stw 0,16(1)
.LBE1069:
.LBE1072:
	.loc 2 795 0
	bl _ZNK8idEntity10GetPhysicsEv
.LVL65:
	lwz 9,0(3)
	li 4,0
	lwz 0,132(9)
	mtctr 0
	bctrl
	addi 5,1,8
	mr 4,3
	mtctr 31
	mr 3,30
	li 6,0
	bctrl
.LBE1077:
	.loc 2 796 0
	lwz 0,44(1)
	lwz 28,24(1)
.LVL66:
	mtlr 0
	lwz 29,28(1)
	lwz 30,32(1)
.LVL67:
	lwz 31,36(1)
	addi 1,1,40
	.cfi_remember_state
.LCFI16:
	.cfi_def_cfa_offset 0
	.cfi_restore 31
	.cfi_restore 30
	.cfi_restore 29
	.cfi_restore 28
	blr
.LVL68:
.L41:
.LCFI17:
	.cfi_restore_state
.LBB1078:
.LBB1073:
.LBB1051:
.LBB1047:
.LBB1043:
	.loc 10 245 0
	lis 3,.LC7@ha
.LVL69:
	la 3,.LC7@l(3)
.LBE1043:
.LBE1047:
	.loc 10 249 0
	bl atof
.LVL70:
.LBE1051:
.LBE1073:
.LBB1074:
.LBB1064:
.LBB1061:
.LBB1060:
	.loc 10 241 0
	mr 3,28
	mr 4,29
	bl _ZNK6idDict7FindKeyEPKc
.LVL71:
	.loc 10 242 0
	cmpwi 0,3,0
	bne+ 0,.L43
.L42:
	.loc 10 245 0
	lis 3,.LC7@ha
.LVL72:
	la 3,.LC7@l(3)
	b .L40
.LBE1060:
.LBE1061:
.LBE1064:
.LBE1074:
.LBE1078:
	.cfi_endproc
.LFE2854:
	.size	_ZN12idTeleporter14Event_DoActionEP8idEntity, .-_ZN12idTeleporter14Event_DoActionEP8idEntity
	.align 2
	.type	_ZN10idEntityFx5SetupEPKc.part.23, @function
_ZN10idEntityFx5SetupEPKc.part.23:
.LFB3185:
	.loc 2 147 0
	.cfi_startproc
.LVL73:
	stwu 1,-800(1)
.LCFI18:
	.cfi_def_cfa_offset 800
	mflr 0
.LBB1174:
.LBB1175:
	.loc 2 166 0
	li 4,0
	li 5,448
.LBE1175:
.LBE1174:
	.loc 2 147 0
	stw 30,792(1)
	mr 30,3
	.cfi_offset 30, -8
	.cfi_register 65, 0
.LBB1486:
.LBB1482:
	.loc 2 166 0
	addi 3,1,8
.LVL74:
.LBE1482:
.LBE1486:
	.loc 2 147 0
	stw 0,804(1)
	stw 20,752(1)
.LBB1487:
.LBB1483:
	.loc 2 168 0
	addi 20,30,648
	.cfi_offset 20, -48
	.cfi_offset 65, 4
.LBE1483:
.LBE1487:
	.loc 2 147 0
	stw 14,728(1)
	stw 15,732(1)
	stw 16,736(1)
	stw 17,740(1)
	stw 18,744(1)
	stw 19,748(1)
	stw 21,756(1)
	stw 22,760(1)
	stw 23,764(1)
	stw 24,768(1)
	stw 25,772(1)
	stw 26,776(1)
	stw 27,780(1)
	stw 28,784(1)
	stw 29,788(1)
	stw 31,796(1)
.LBB1488:
.LBB1484:
	.loc 2 166 0
	.cfi_offset 31, -4
	.cfi_offset 29, -12
	.cfi_offset 28, -16
	.cfi_offset 27, -20
	.cfi_offset 26, -24
	.cfi_offset 25, -28
	.cfi_offset 24, -32
	.cfi_offset 23, -36
	.cfi_offset 22, -40
	.cfi_offset 21, -44
	.cfi_offset 19, -52
	.cfi_offset 18, -56
	.cfi_offset 17, -60
	.cfi_offset 16, -64
	.cfi_offset 15, -68
	.cfi_offset 14, -72
	bl memset
.LVL75:
	.loc 2 168 0
	lwz 11,644(30)
.LBB1176:
.LBB1177:
.LBB1178:
	.loc 5 481 0
	lwz 0,652(30)
.LBE1178:
.LBE1177:
.LBE1176:
	.loc 2 796 0
	lwz 7,8(11)
	.loc 2 168 0
	mr 9,11
.LBB1427:
.LBB1424:
.LBB1421:
	.loc 5 481 0
	cmpw 7,7,0
.LBE1421:
.LBE1424:
.LBE1427:
	.loc 2 796 0
	stw 7,720(1)
.LBB1428:
.LBB1425:
.LBB1422:
	.loc 5 481 0
	ble- 7,.L45
.LBB1179:
	.loc 5 483 0
	lwz 10,656(30)
	cmpwi 7,10,0
	addi 8,10,-1
	beq- 7,.L75
	.loc 5 487 0
	lwz 7,720(1)
	.loc 5 489 0
	stw 0,648(30)
	.loc 5 487 0
	add 8,7,8
.LVL76:
	.loc 5 488 0
	divw 8,8,10
.LVL77:
.LBB1180:
.LBB1181:
	.loc 5 375 0
	mullw. 7,8,10
	stw 7,484(1)
	ble- 0,.L76
.LVL78:
.L48:
	.loc 5 380 0
	lwz 11,484(1)
	cmpw 7,0,11
	beq- 7,.L45
	.loc 5 385 0
	lwz 22,660(30)
.LVL79:
	.loc 5 386 0
	stw 11,652(30)
	.loc 5 387 0
	bgt- 7,.L77
.L51:
	.loc 5 392 0
	lwz 7,484(1)
.LVL80:
	slwi 0,7,6
	slwi 3,7,9
	subf 3,0,3
	bl _Znaj
.LVL81:
	.loc 5 393 0
	lwz 0,648(30)
	.loc 5 392 0
	stw 3,660(30)
.LVL82:
	.loc 5 393 0
	cmpwi 7,0,0
	ble- 7,.L52
	addi 9,22,120
	addi 11,22,132
	stw 9,476(1)
	addi 0,22,224
	addi 7,22,236
	addi 9,22,272
	.loc 2 147 0
	addi 21,22,212
	stw 11,480(1)
	stw 0,464(1)
.LBE1181:
.LBE1180:
	mr 24,21
	stw 7,468(1)
	mr 28,22
	stw 9,472(1)
	li 25,0
	.loc 5 393 0
	li 26,0
	addi 16,22,36
	addi 17,22,60
	addi 18,22,72
	addi 19,22,84
	addi 15,22,96
	addi 14,22,108
	mr 31,3
.LVL83:
.L55:
.LBB1288:
.LBB1285:
	.loc 5 394 0
	add 31,31,25
.LVL84:
.LBB1182:
.LBB1183:
.LBB1184:
.LBB1185:
.LBB1186:
.LBB1187:
	.file 12 "d:/Data/Nintendo/DoomGX/src/game/../idlib/../idlib/math/Matrix.h"
	.loc 12 333 0
	li 10,0
.L53:
.LBB1188:
.LBB1189:
	.loc 7 424 0
	mr 11,28
	mr 9,31
	lwzux 0,11,10
.LBE1189:
.LBE1188:
	.loc 12 333 0
	cmpwi 7,10,24
.LBB1192:
.LBB1190:
	.loc 7 424 0
	stwux 0,9,10
.LBE1190:
.LBE1192:
	.loc 12 333 0
	addi 10,10,12
.LBB1193:
.LBB1191:
	.loc 7 425 0
	lwz 0,4(11)
	stw 0,4(9)
	.loc 7 426 0
	lwz 0,8(11)
	stw 0,8(9)
.LBE1191:
.LBE1193:
	.loc 12 333 0
	bne+ 7,.L53
.LVL85:
.LBE1187:
.LBE1186:
.LBB1194:
.LBB1195:
	.loc 7 424 0
	mr 9,16
.LBE1195:
.LBE1194:
.LBB1202:
.LBB1203:
	mr 27,17
.LBE1203:
.LBE1202:
.LBB1205:
.LBB1196:
	lwzux 0,9,25
.LBE1196:
.LBE1205:
.LBB1206:
.LBB1207:
	mr 6,18
.LBE1207:
.LBE1206:
.LBB1209:
.LBB1210:
	mr 7,19
.LBE1210:
.LBE1209:
.LBB1212:
.LBB1213:
	lwz 11,476(1)
.LBE1213:
.LBE1212:
.LBB1215:
.LBB1197:
	stw 0,36(31)
.LBE1197:
.LBE1215:
.LBB1216:
.LBB1217:
	mr 8,15
.LBE1217:
.LBE1216:
.LBB1219:
.LBB1220:
	mr 10,14
.LBE1220:
.LBE1219:
	.file 13 "d:/Data/Nintendo/DoomGX/src/game/../idlib/../renderer/RenderWorld.h"
	.loc 13 157 0
	addi 3,31,156
.LBB1222:
.LBB1198:
	.loc 7 425 0
	lwz 0,4(9)
.LBE1198:
.LBE1222:
	.loc 13 157 0
	addi 4,28,156
	li 5,48
.LBE1185:
.LBE1184:
	.loc 2 147 0
	subf 23,22,24
.LBB1239:
.LBB1236:
.LBB1223:
.LBB1199:
	.loc 7 425 0
	stw 0,40(31)
.LBE1199:
.LBE1223:
.LBE1236:
.LBE1239:
	.loc 2 147 0
	add 29,23,21
.LBB1240:
.LBB1237:
.LBB1224:
.LBB1200:
	.loc 7 426 0
	lwz 0,8(9)
.LBE1200:
.LBE1224:
.LBB1225:
.LBB1226:
	.loc 7 424 0
	lwz 9,480(1)
.LBE1226:
.LBE1225:
.LBB1228:
.LBB1201:
	.loc 7 426 0
	stw 0,44(31)
.LBE1201:
.LBE1228:
	.loc 13 157 0
	lwz 0,48(28)
	stw 0,48(31)
	lwz 0,52(28)
	stw 0,52(31)
	lbz 0,56(28)
	stb 0,56(31)
	lbz 0,57(28)
	stb 0,57(31)
	lbz 0,58(28)
	stb 0,58(31)
	lbz 0,59(28)
	stb 0,59(31)
.LVL86:
.LBB1229:
.LBB1204:
	.loc 7 424 0
	lwzux 0,27,25
	stw 0,60(31)
	.loc 7 425 0
	lwz 0,4(27)
	stw 0,64(31)
	.loc 7 426 0
	lwz 0,8(27)
	stw 0,68(31)
.LVL87:
.LBE1204:
.LBE1229:
.LBB1230:
.LBB1208:
	.loc 7 424 0
	lwzux 0,6,25
	stw 0,72(31)
	.loc 7 425 0
	lwz 0,4(6)
	stw 0,76(31)
	.loc 7 426 0
	lwz 0,8(6)
	stw 0,80(31)
.LVL88:
.LBE1208:
.LBE1230:
.LBB1231:
.LBB1211:
	.loc 7 424 0
	lwzux 0,7,25
	stw 0,84(31)
	.loc 7 425 0
	lwz 0,4(7)
	stw 0,88(31)
	.loc 7 426 0
	lwz 0,8(7)
	stw 0,92(31)
.LVL89:
.LBE1211:
.LBE1231:
.LBB1232:
.LBB1218:
	.loc 7 424 0
	lwzux 0,8,25
	stw 0,96(31)
	.loc 7 425 0
	lwz 0,4(8)
	stw 0,100(31)
	.loc 7 426 0
	lwz 0,8(8)
	stw 0,104(31)
.LVL90:
.LBE1218:
.LBE1232:
.LBB1233:
.LBB1221:
	.loc 7 424 0
	lwzux 0,10,25
	stw 0,108(31)
	.loc 7 425 0
	lwz 0,4(10)
	stw 0,112(31)
	.loc 7 426 0
	lwz 0,8(10)
	stw 0,116(31)
.LVL91:
.LBE1221:
.LBE1233:
.LBB1234:
.LBB1214:
	.loc 7 424 0
	lwzux 0,11,25
	stw 0,120(31)
	.loc 7 425 0
	lwz 0,4(11)
	stw 0,124(31)
	.loc 7 426 0
	lwz 0,8(11)
	stw 0,128(31)
.LVL92:
.LBE1214:
.LBE1234:
.LBB1235:
.LBB1227:
	.loc 7 424 0
	lwzux 0,9,25
	stw 0,132(31)
	.loc 7 425 0
	lwz 0,4(9)
	stw 0,136(31)
	.loc 7 426 0
	lwz 0,8(9)
	stw 0,140(31)
.LBE1227:
.LBE1235:
	.loc 13 157 0
	lwz 0,144(28)
	stw 0,144(31)
	lwz 0,148(28)
	stw 0,148(31)
	lwz 0,152(28)
	stw 0,152(31)
	bl memcpy
	lwz 0,204(28)
.LBE1237:
.LBE1240:
.LBB1241:
.LBB1242:
.LBB1243:
.LBB1244:
	.loc 12 333 0
	addi 7,31,284
.LBE1244:
.LBE1243:
.LBB1254:
.LBB1255:
.LBB1256:
	.loc 7 424 0
	lwz 8,464(1)
.LBE1256:
.LBE1255:
.LBE1254:
.LBE1242:
.LBE1241:
.LBB1274:
.LBB1238:
	.loc 13 157 0
	stw 0,204(31)
.LBE1238:
.LBE1274:
.LBB1275:
.LBB1270:
.LBB1261:
.LBB1259:
.LBB1257:
	.loc 7 424 0
	lwz 10,468(1)
.LBE1257:
.LBE1259:
.LBE1261:
.LBE1270:
.LBE1275:
	.file 14 "d:/Data/Nintendo/DoomGX/src/game/Fx.h"
	.loc 14 52 0
	lwz 0,208(28)
.LBB1276:
.LBB1271:
.LBB1262:
.LBB1263:
	.loc 7 424 0
	lwz 11,472(1)
.LBE1263:
.LBE1262:
.LBE1271:
.LBE1276:
	.loc 14 52 0
	stw 0,208(31)
.LVL93:
.LBB1277:
.LBB1272:
.LBB1265:
.LBB1251:
	.loc 12 333 0
	addi 0,28,284
.LBE1251:
.LBE1265:
	.loc 13 80 0
	lwz 9,-212(29)
	stw 9,212(31)
.LBB1266:
.LBB1252:
	.loc 12 333 0
	li 9,0
.LBE1252:
.LBE1266:
	.loc 13 80 0
	lwz 6,-208(29)
	stw 6,216(31)
	lwz 6,-204(29)
	stw 6,220(31)
.LVL94:
.LBB1267:
.LBB1260:
.LBB1258:
	.loc 7 424 0
	lwzux 6,8,25
	stw 6,224(31)
	.loc 7 425 0
	lwz 6,4(8)
	stw 6,228(31)
	.loc 7 426 0
	lwz 8,8(8)
	stw 8,232(31)
.LVL95:
	.loc 7 424 0
	lwzux 8,10,25
	stw 8,236(31)
	.loc 7 425 0
	lwz 8,4(10)
	stw 8,240(31)
	.loc 7 426 0
	lwz 10,8(10)
	stw 10,244(31)
.LBE1258:
.LBE1260:
.LBE1267:
	.loc 13 80 0
	lwz 10,-176(29)
	stw 10,248(31)
	lwz 10,-172(29)
	stw 10,252(31)
	lwz 10,-168(29)
	stw 10,256(31)
	lwz 10,-164(29)
	stw 10,260(31)
	lwz 10,-160(29)
	stw 10,264(31)
	lwz 10,-156(29)
	stw 10,268(31)
.LVL96:
.LBB1268:
.LBB1264:
	.loc 7 424 0
	lwzux 10,11,25
	stw 10,272(31)
	.loc 7 425 0
	lwz 10,4(11)
	stw 10,276(31)
	.loc 7 426 0
	lwz 11,8(11)
	stw 11,280(31)
.LVL97:
.L54:
.LBE1264:
.LBE1268:
.LBB1269:
.LBB1253:
.LBB1245:
.LBB1246:
	.loc 7 424 0
	mr 10,0
	mr 11,7
	lwzux 8,10,9
.LBE1246:
.LBE1245:
	.loc 12 333 0
	cmpwi 7,9,24
.LBB1249:
.LBB1247:
	.loc 7 424 0
	stwux 8,11,9
.LBE1247:
.LBE1249:
	.loc 12 333 0
	addi 9,9,12
.LBB1250:
.LBB1248:
	.loc 7 425 0
	lwz 8,4(10)
	stw 8,4(11)
	.loc 7 426 0
	lwz 10,8(10)
	stw 10,8(11)
.LBE1248:
.LBE1250:
	.loc 12 333 0
	bne+ 7,.L54
.LBE1253:
.LBE1269:
	.loc 13 80 0
	lwz 0,-104(29)
	addi 3,31,336
	addi 4,29,-88
	li 5,48
	stw 0,320(31)
.LBE1272:
.LBE1277:
.LBE1183:
.LBE1182:
	.loc 5 393 0
	addi 26,26,1
	addi 25,25,448
	addi 24,24,448
.LBB1281:
.LBB1279:
.LBB1278:
.LBB1273:
	.loc 13 80 0
	lwz 0,-100(29)
	stw 0,324(31)
	lwz 0,-96(29)
	stw 0,328(31)
	lwz 0,-92(29)
	stw 0,332(31)
	bl memcpy
	lwz 0,-32(29)
	lwz 11,-40(29)
	lwz 9,-36(29)
	stw 11,384(31)
	stw 9,388(31)
	stw 0,392(31)
	lwz 0,-28(29)
	stw 0,396(31)
	lwz 0,-24(29)
	stw 0,400(31)
	lwz 0,-20(29)
	stw 0,404(31)
	lwz 0,-16(29)
	stw 0,408(31)
	lbz 0,-12(29)
	stb 0,412(31)
	lbz 0,-11(29)
	stb 0,413(31)
	lbz 0,-10(29)
	stb 0,414(31)
	lbz 0,-9(29)
	stb 0,415(31)
	lwz 0,-8(29)
	stw 0,416(31)
	lwz 0,-4(29)
	stw 0,420(31)
	lwzx 0,23,21
	stw 0,424(31)
.LBE1273:
.LBE1278:
	.loc 14 52 0
	lwz 0,428(28)
	stw 0,428(31)
	lwz 0,432(28)
	stw 0,432(31)
	lwz 0,436(28)
	stw 0,436(31)
.LVL98:
	lwz 0,440(28)
	stw 0,440(31)
	lbz 0,444(28)
	stb 0,444(31)
	lbz 0,445(28)
	stb 0,445(31)
	lbz 0,446(28)
	stb 0,446(31)
	lbz 0,447(28)
.LBE1279:
.LBE1281:
	.loc 5 393 0
	addi 28,28,448
.LVL99:
.LBB1282:
.LBB1280:
	.loc 14 52 0
	stb 0,447(31)
.LBE1280:
.LBE1282:
	.loc 5 393 0
	lwz 0,0(20)
	cmpw 7,26,0
	bge- 7,.L52
.LVL100:
	lwz 31,660(30)
.LVL101:
	b .L55
.LVL102:
.L76:
.LBB1283:
.LBB1284:
	.loc 5 193 0
	lwz 3,660(30)
	cmpwi 7,3,0
	beq- 7,.L49
	.loc 5 194 0
	bl _ZdaPv
.LVL103:
	lwz 11,644(30)
.L49:
	.loc 5 197 0
	li 0,0
	stw 0,660(30)
	.loc 5 199 0
	stw 0,652(30)
.LVL104:
.L50:
.LBE1284:
.LBE1283:
.LBE1285:
.LBE1288:
.LBB1289:
	.loc 5 492 0
	mr 9,11
.LVL105:
.L45:
.LBE1289:
.LBE1179:
.LBE1422:
	.loc 5 497 0
	lwz 11,720(1)
	stw 11,648(30)
.LVL106:
.LBE1425:
.LBE1428:
.LBB1429:
	.loc 2 170 0
	lwz 0,8(9)
	cmpwi 7,0,0
	ble- 7,.L44
.LBB1430:
.LBB1431:
.LBB1432:
.LBB1433:
.LBB1434:
	.file 15 "d:/Data/Nintendo/DoomGX/src/game/../idlib/../idlib/math/Random.h"
	.loc 15 71 0
	lis 4,gameLocal@ha
.LBE1434:
.LBE1433:
.LBE1432:
.LBE1431:
	.loc 2 174 0
	lis 11,.LC12@ha
.LBB1455:
.LBB1445:
.LBB1440:
.LBB1435:
	.loc 15 71 0
	la 4,gameLocal@l(4)
	lis 28,0x1
.LBE1435:
.LBE1440:
.LBE1445:
.LBE1455:
.LBE1430:
	.loc 2 170 0
	li 6,0
	li 7,0
	li 8,0
.LBB1473:
	.loc 2 174 0
	lfs 13,.LC12@l(11)
.LBB1456:
.LBB1446:
.LBB1441:
.LBB1436:
	.loc 15 71 0
	addis 4,4,0x1
	ori 28,28,3533
.LBE1436:
.LBE1441:
	.loc 15 83 0
	lis 29,0x4330
	lis 31,.LC10@ha
	lis 3,.LC11@ha
.LBE1446:
.LBE1456:
	.loc 2 179 0
	li 0,-1
	.loc 2 183 0
	li 10,0
	b .L66
.LVL107:
.L78:
	.loc 2 174 0
	lfs 0,156(11)
	fcmpu 7,0,13
	bne- 7,.L63
	.loc 2 177 0
	lwz 11,104(11)
.LBE1473:
	.loc 2 170 0
	addi 8,8,1
.LVL108:
.LBB1474:
	.loc 2 179 0
	stw 0,440(9)
.LBE1474:
	.loc 2 170 0
	addi 7,7,232
.LBB1475:
	.loc 2 177 0
	stw 11,432(9)
.LBE1475:
	.loc 2 170 0
	addi 6,6,448
.LBB1476:
	.loc 2 180 0
	stw 0,208(9)
	.loc 2 181 0
	stw 0,428(9)
	.loc 2 182 0
	stw 0,436(9)
	.loc 2 183 0
	stb 10,445(9)
	.loc 2 184 0
	stb 10,446(9)
	.loc 2 185 0
	stb 10,447(9)
.LBE1476:
	.loc 2 170 0
	lwz 9,644(30)
	lwz 11,8(9)
	cmpw 7,8,11
	bge- 7,.L44
.LVL109:
.L66:
.LBB1477:
.LBB1457:
.LBB1458:
	.loc 5 573 0
	lwz 11,20(9)
.LBE1458:
.LBE1457:
.LBB1460:
.LBB1461:
	.loc 5 589 0
	lwz 9,660(30)
.LBE1461:
.LBE1460:
.LBB1463:
.LBB1459:
	.loc 5 573 0
	add 11,11,7
.LVL110:
.LBE1459:
.LBE1463:
	.loc 2 174 0
	lfs 0,152(11)
.LBB1464:
.LBB1462:
	.loc 5 589 0
	add 9,9,6
.LBE1462:
.LBE1464:
	.loc 2 174 0
	fcmpu 7,0,13
	beq- 7,.L78
.L63:
.LVL111:
.LBB1465:
.LBB1447:
.LBB1442:
.LBB1437:
	.loc 15 71 0
	lwz 5,-32064(4)
.LBE1437:
.LBE1442:
.LBE1447:
.LBE1465:
.LBE1477:
	.loc 2 170 0
	addi 8,8,1
.LVL112:
.LBB1478:
.LBB1466:
.LBB1448:
	.loc 15 83 0
	lfs 11,.LC10@l(31)
.LBE1448:
.LBE1466:
.LBE1478:
	.loc 2 170 0
	addi 7,7,232
.LBB1479:
.LBB1467:
.LBB1449:
.LBB1443:
.LBB1438:
	.loc 15 71 0
	mullw 5,28,5
.LBE1438:
.LBE1443:
	.loc 15 83 0
	lfs 10,.LC11@l(3)
.LBE1449:
.LBE1467:
.LBE1479:
	.loc 2 170 0
	addi 6,6,448
.LBB1480:
.LBB1468:
.LBB1450:
.LBB1444:
.LBB1439:
	.loc 15 71 0
	addi 5,5,1
	stw 5,-32064(4)
	.loc 15 72 0
	rlwinm 5,5,0,17,31
.LBE1439:
.LBE1444:
	.loc 15 83 0
	xoris 5,5,0x8000
.LBE1450:
.LBE1468:
	.loc 2 175 0
	lfs 0,152(11)
.LBB1469:
.LBB1451:
	.loc 15 83 0
	stw 5,460(1)
	stw 29,456(1)
	lfd 9,456(1)
.LBE1451:
.LBE1469:
	.loc 2 175 0
	lfs 12,156(11)
.LBB1470:
.LBB1452:
	.loc 15 83 0
	fsub 11,9,11
.LBE1452:
.LBE1470:
	.loc 2 179 0
	stw 0,440(9)
	.loc 2 175 0
	fsubs 12,12,0
	.loc 2 180 0
	stw 0,208(9)
	.loc 2 181 0
	stw 0,428(9)
.LBB1471:
.LBB1453:
	.loc 15 83 0
	frsp 11,11
.LBE1453:
.LBE1471:
	.loc 2 182 0
	stw 0,436(9)
	.loc 2 183 0
	stb 10,445(9)
	.loc 2 184 0
	stb 10,446(9)
.LBB1472:
.LBB1454:
	.loc 15 83 0
	fmuls 11,11,10
.LBE1454:
.LBE1472:
	.loc 2 185 0
	stb 10,447(9)
	.loc 2 175 0
	fmadds 0,11,12,0
	stfs 0,432(9)
.LBE1480:
	.loc 2 170 0
	lwz 9,644(30)
	lwz 11,8(9)
	cmpw 7,8,11
	blt+ 7,.L66
.LVL113:
.L44:
.LBE1429:
.LBE1484:
.LBE1488:
	.loc 2 188 0
	lwz 0,804(1)
	lwz 14,728(1)
	mtlr 0
	lwz 15,732(1)
	lwz 16,736(1)
	lwz 17,740(1)
	lwz 18,744(1)
	lwz 19,748(1)
	lwz 20,752(1)
	lwz 21,756(1)
	lwz 22,760(1)
	lwz 23,764(1)
	lwz 24,768(1)
	lwz 25,772(1)
	lwz 26,776(1)
	lwz 27,780(1)
	lwz 28,784(1)
	lwz 29,788(1)
	lwz 30,792(1)
	lwz 31,796(1)
	addi 1,1,800
	.cfi_remember_state
.LCFI19:
	.cfi_def_cfa_offset 0
	.cfi_restore 31
	.cfi_restore 30
	.cfi_restore 29
	.cfi_restore 28
	.cfi_restore 27
	.cfi_restore 26
	.cfi_restore 25
	.cfi_restore 24
	.cfi_restore 23
	.cfi_restore 22
	.cfi_restore 21
	.cfi_restore 20
	.cfi_restore 19
	.cfi_restore 18
	.cfi_restore 17
	.cfi_restore 16
	.cfi_restore 15
	.cfi_restore 14
	blr
.LVL114:
.L75:
.LCFI20:
	.cfi_restore_state
.LBB1489:
.LBB1485:
.LBB1481:
.LBB1426:
.LBB1423:
.LBB1420:
	.loc 5 487 0
	lwz 7,720(1)
	.loc 5 484 0
	li 8,15
	li 10,16
	.loc 5 489 0
	stw 0,648(30)
	.loc 5 487 0
	add 8,7,8
.LVL115:
	.loc 5 484 0
	stw 10,656(30)
	.loc 5 488 0
	divw 8,8,10
.LVL116:
.LBB1417:
.LBB1286:
	.loc 5 375 0
	mullw. 7,8,10
	stw 7,484(1)
	bgt+ 0,.L48
	b .L76
.LVL117:
.L52:
	.loc 5 398 0
	cmpwi 7,22,0
	beq- 7,.L74
	.loc 5 399 0
	mr 3,22
	bl _ZdaPv
.L74:
	lwz 29,648(30)
.LVL118:
.LBE1286:
.LBE1417:
.LBB1418:
	.loc 5 492 0
	lwz 11,484(1)
	cmpw 7,11,29
	ble- 7,.L79
	lwz 7,44(1)
	slwi 0,29,6
	lwz 9,48(1)
	slwi 27,29,9
	lwz 11,52(1)
	subf 27,0,27
	stw 7,468(1)
	addi 28,1,328
	lwz 7,56(1)
	stw 9,472(1)
	lwz 9,60(1)
	stw 11,488(1)
	stw 7,480(1)
	lwz 11,104(1)
	lwz 7,108(1)
	stw 9,476(1)
	lwz 9,112(1)
	stw 11,492(1)
	stw 7,496(1)
	lwz 11,116(1)
	lwz 7,120(1)
	stw 9,500(1)
	lwz 9,124(1)
	stw 11,504(1)
	stw 7,508(1)
	lbz 14,64(1)
	lbz 15,65(1)
	lbz 16,66(1)
	lbz 17,67(1)
	lwz 18,68(1)
	lwz 19,72(1)
	lwz 20,76(1)
.LVL119:
	lwz 21,80(1)
	lwz 22,84(1)
.LVL120:
	lwz 23,88(1)
	lwz 24,92(1)
	lwz 25,96(1)
	lwz 26,100(1)
	stw 9,512(1)
	lwz 11,128(1)
	lwz 7,132(1)
	lwz 9,136(1)
	stw 11,516(1)
	stw 7,520(1)
	lwz 11,140(1)
	lwz 7,144(1)
	stw 9,524(1)
	stw 11,528(1)
	lwz 9,148(1)
	lwz 11,152(1)
	stw 7,532(1)
	lwz 7,156(1)
	stw 9,536(1)
	stw 11,540(1)
	lwz 9,160(1)
	lwz 11,212(1)
	stw 7,544(1)
	lwz 7,216(1)
	stw 9,548(1)
	stw 11,552(1)
	lwz 9,220(1)
	lwz 11,224(1)
	stw 7,556(1)
	lwz 7,228(1)
	stw 9,560(1)
	stw 11,564(1)
	lwz 9,256(1)
	lwz 11,260(1)
	stw 7,568(1)
	lwz 7,264(1)
	stw 9,572(1)
	stw 11,576(1)
	stw 7,580(1)
	lwz 9,268(1)
	lwz 11,272(1)
	lwz 7,276(1)
	stw 9,584(1)
	stw 11,588(1)
	lwz 9,280(1)
	lwz 11,284(1)
	stw 7,592(1)
	stw 9,596(1)
	lwz 7,288(1)
	lwz 9,328(1)
	stw 11,600(1)
	lwz 11,332(1)
	stw 7,604(1)
	stw 9,608(1)
	lwz 7,336(1)
	lwz 9,340(1)
	stw 11,612(1)
	lwz 11,404(1)
	stw 7,616(1)
	stw 9,620(1)
	lwz 7,408(1)
	lwz 9,412(1)
	stw 11,624(1)
	lwz 11,416(1)
	stw 7,628(1)
	stw 9,632(1)
	lbz 7,420(1)
	lbz 9,421(1)
	stw 11,636(1)
	lbz 11,422(1)
	stw 7,640(1)
	stw 9,644(1)
	stw 11,648(1)
	lbz 7,423(1)
	lwz 11,428(1)
	stw 7,652(1)
	lwz 7,432(1)
	lwz 9,424(1)
	stw 11,660(1)
	stw 7,664(1)
	lwz 11,440(1)
	lwz 7,444(1)
	stw 9,656(1)
	stw 11,672(1)
	lwz 9,436(1)
	lbz 11,452(1)
	stw 7,676(1)
	lbz 7,453(1)
	stw 9,668(1)
	stw 11,684(1)
	lwz 9,448(1)
	lbz 11,455(1)
	stw 7,688(1)
	lwz 7,232(1)
	stw 9,680(1)
	stw 11,696(1)
	lbz 9,454(1)
	lwz 11,240(1)
	stw 7,700(1)
	lwz 7,244(1)
	stw 9,692(1)
	stw 11,704(1)
	lwz 9,236(1)
	stw 7,708(1)
	lwz 11,248(1)
	lwz 7,252(1)
	stw 11,712(1)
	stw 7,716(1)
	stw 30,464(1)
	mr 30,9
.LVL121:
.L61:
	.loc 5 493 0
	lwz 9,464(1)
.LBB1290:
.LBB1291:
.LBB1292:
.LBB1293:
.LBB1294:
.LBB1295:
	.loc 12 333 0
	li 10,0
.LBE1295:
.LBE1294:
.LBE1293:
.LBE1292:
.LBE1291:
.LBE1290:
	.loc 5 493 0
	lwz 31,660(9)
	add 31,31,27
.LVL122:
.L59:
.LBB1412:
.LBB1407:
.LBB1356:
.LBB1354:
.LBB1303:
.LBB1302:
.LBB1296:
.LBB1297:
	.loc 7 424 0
	addi 11,1,8
.LVL123:
.LBE1297:
.LBE1296:
	.loc 12 333 0
	cmpwi 7,10,24
.LBB1300:
.LBB1298:
	.loc 7 424 0
	lwzux 0,11,10
.LVL124:
	mr 9,31
	stwux 0,9,10
.LBE1298:
.LBE1300:
	.loc 12 333 0
	addi 10,10,12
.LBB1301:
.LBB1299:
	.loc 7 425 0
	lwz 0,4(11)
	.loc 7 426 0
	lwz 11,8(11)
	.loc 7 425 0
	stw 0,4(9)
	.loc 7 426 0
	stw 11,8(9)
.LBE1299:
.LBE1301:
	.loc 12 333 0
	bne+ 7,.L59
.LVL125:
.LBE1302:
.LBE1303:
.LBB1304:
.LBB1305:
	.loc 7 424 0
	lwz 11,468(1)
.LBE1305:
.LBE1304:
	.loc 13 157 0
	addi 3,31,156
.LBB1310:
.LBB1306:
	.loc 7 425 0
	lwz 0,472(1)
.LBE1306:
.LBE1310:
	.loc 13 157 0
	addi 4,1,164
.LBB1311:
.LBB1307:
	.loc 7 426 0
	lwz 7,488(1)
.LBE1307:
.LBE1311:
	.loc 13 157 0
	li 5,48
	lwz 9,480(1)
.LBB1312:
.LBB1308:
	.loc 7 424 0
	stw 11,36(31)
	.loc 7 425 0
	stw 0,40(31)
.LBE1308:
.LBE1312:
	.loc 13 157 0
	lwz 11,476(1)
.LBB1313:
.LBB1314:
	.loc 7 424 0
	lwz 0,492(1)
.LBE1314:
.LBE1313:
.LBB1319:
.LBB1309:
	.loc 7 426 0
	stw 7,44(31)
.LBE1309:
.LBE1319:
.LBB1320:
.LBB1315:
	.loc 7 425 0
	lwz 7,496(1)
.LBE1315:
.LBE1320:
	.loc 13 157 0
	stw 9,48(31)
	stw 11,52(31)
.LBB1321:
.LBB1316:
	.loc 7 426 0
	lwz 9,500(1)
.LBE1316:
.LBE1321:
.LBB1322:
.LBB1323:
	.loc 7 424 0
	lwz 11,504(1)
.LBE1323:
.LBE1322:
.LBB1327:
.LBB1317:
	stw 0,96(31)
	.loc 7 425 0
	stw 7,100(31)
.LBE1317:
.LBE1327:
.LBB1328:
.LBB1324:
	lwz 0,508(1)
	.loc 7 426 0
	lwz 7,512(1)
.LBE1324:
.LBE1328:
.LBB1329:
.LBB1318:
	stw 9,104(31)
.LBE1318:
.LBE1329:
.LBB1330:
.LBB1325:
	.loc 7 424 0
	stw 11,108(31)
	.loc 7 425 0
	stw 0,112(31)
.LBE1325:
.LBE1330:
	.loc 13 157 0
	stb 14,56(31)
	stb 15,57(31)
	stb 16,58(31)
	stb 17,59(31)
.LVL126:
.LBB1331:
.LBB1332:
	.loc 7 424 0
	stw 18,60(31)
	.loc 7 425 0
	stw 19,64(31)
	.loc 7 426 0
	stw 20,68(31)
.LVL127:
.LBE1332:
.LBE1331:
.LBB1333:
.LBB1334:
	.loc 7 424 0
	stw 21,72(31)
	.loc 7 425 0
	stw 22,76(31)
	.loc 7 426 0
	stw 23,80(31)
.LVL128:
.LBE1334:
.LBE1333:
.LBB1335:
.LBB1336:
	.loc 7 424 0
	stw 24,84(31)
	.loc 7 425 0
	stw 25,88(31)
	.loc 7 426 0
	stw 26,92(31)
.LVL129:
.LBE1336:
.LBE1335:
.LBB1337:
.LBB1326:
	stw 7,116(31)
.LVL130:
.LBE1326:
.LBE1337:
.LBB1338:
.LBB1339:
	.loc 7 424 0
	lwz 9,516(1)
	.loc 7 425 0
	lwz 11,520(1)
	.loc 7 426 0
	lwz 0,524(1)
.LBE1339:
.LBE1338:
.LBB1342:
.LBB1343:
	.loc 7 424 0
	lwz 7,528(1)
.LBE1343:
.LBE1342:
.LBB1348:
.LBB1340:
	stw 9,120(31)
.LBE1340:
.LBE1348:
.LBB1349:
.LBB1344:
	.loc 7 425 0
	lwz 9,532(1)
.LBE1344:
.LBE1349:
.LBB1350:
.LBB1341:
	stw 11,124(31)
	.loc 7 426 0
	stw 0,128(31)
.LVL131:
.LBE1341:
.LBE1350:
.LBB1351:
.LBB1345:
	lwz 11,536(1)
.LBE1345:
.LBE1351:
	.loc 13 157 0
	lwz 0,540(1)
.LBB1352:
.LBB1346:
	.loc 7 424 0
	stw 7,132(31)
	.loc 7 425 0
	stw 9,136(31)
.LBE1346:
.LBE1352:
	.loc 13 157 0
	lwz 7,544(1)
	lwz 9,548(1)
.LBB1353:
.LBB1347:
	.loc 7 426 0
	stw 11,140(31)
.LBE1347:
.LBE1353:
	.loc 13 157 0
	stw 0,144(31)
	stw 7,148(31)
	stw 9,152(31)
	bl memcpy
	lwz 11,552(1)
.LBE1354:
.LBE1356:
	.loc 14 52 0
	lwz 0,556(1)
.LBB1357:
.LBB1358:
	.loc 13 80 0
	lwz 7,560(1)
	lwz 9,564(1)
.LBE1358:
.LBE1357:
.LBB1398:
.LBB1355:
	.loc 13 157 0
	stw 11,204(31)
.LBE1355:
.LBE1398:
.LBB1399:
.LBB1390:
	.loc 13 80 0
	lwz 11,568(1)
.LBE1390:
.LBE1399:
	.loc 14 52 0
	stw 0,208(31)
.LVL132:
.LBB1400:
.LBB1391:
	.loc 13 80 0
	stw 7,212(31)
.LBB1359:
.LBB1360:
.LBB1361:
	.loc 7 424 0
	lwz 0,700(1)
	.loc 7 426 0
	lwz 7,704(1)
.LBE1361:
.LBE1360:
.LBE1359:
	.loc 13 80 0
	stw 9,216(31)
	stw 11,220(31)
.LVL133:
.LBB1370:
.LBB1366:
.LBB1362:
	.loc 7 424 0
	lwz 9,708(1)
	.loc 7 425 0
	lwz 11,712(1)
	.loc 7 424 0
	stw 0,224(31)
	.loc 7 426 0
	stw 7,232(31)
.LVL134:
	lwz 0,716(1)
.LBE1362:
.LBE1366:
.LBE1370:
	.loc 13 80 0
	lwz 7,572(1)
.LBB1371:
.LBB1367:
.LBB1363:
	.loc 7 424 0
	stw 9,236(31)
	.loc 7 425 0
	stw 11,240(31)
.LBE1363:
.LBE1367:
.LBE1371:
	.loc 13 80 0
	lwz 9,576(1)
	lwz 11,580(1)
.LBB1372:
.LBB1368:
.LBB1364:
	.loc 7 426 0
	stw 0,244(31)
.LBE1364:
.LBE1368:
.LBE1372:
	.loc 13 80 0
	stw 7,248(31)
	lwz 0,584(1)
	lwz 7,588(1)
	stw 9,252(31)
	stw 11,256(31)
	lwz 9,592(1)
.LBB1373:
.LBB1374:
	.loc 7 424 0
	lwz 11,596(1)
.LBE1374:
.LBE1373:
	.loc 13 80 0
	stw 0,260(31)
	stw 7,264(31)
	stw 9,268(31)
.LVL135:
.LBB1378:
.LBB1375:
	.loc 7 426 0
	addi 9,1,292
.LBE1375:
.LBE1378:
.LBB1379:
.LBB1369:
.LBB1365:
	.loc 7 425 0
	stw 30,228(31)
.LBE1365:
.LBE1369:
.LBE1379:
.LBB1380:
.LBB1376:
	.loc 7 424 0
	stw 11,272(31)
.LBE1376:
.LBE1380:
.LBB1381:
.LBB1382:
	.loc 12 333 0
	addi 11,31,284
.LBE1382:
.LBE1381:
.LBB1388:
.LBB1377:
	.loc 7 425 0
	lwz 0,600(1)
	.loc 7 426 0
	lwz 7,604(1)
	.loc 7 425 0
	stw 0,276(31)
	.loc 7 426 0
	stw 7,280(31)
.LVL136:
.L60:
.LBE1377:
.LBE1388:
.LBB1389:
.LBB1387:
.LBB1383:
.LBB1384:
	.loc 7 424 0
	lwz 8,0(9)
	.loc 7 425 0
	lwz 10,4(9)
	.loc 7 426 0
	lwz 0,8(9)
	addi 9,9,12
.LBE1384:
.LBE1383:
	.loc 12 333 0
	cmpw 7,9,28
.LBB1386:
.LBB1385:
	.loc 7 424 0
	stw 8,0(11)
	.loc 7 425 0
	stw 10,4(11)
	.loc 7 426 0
	stw 0,8(11)
	addi 11,11,12
.LBE1385:
.LBE1386:
	.loc 12 333 0
	bne+ 7,.L60
.LBE1387:
.LBE1389:
	.loc 13 80 0
	lwz 9,608(1)
	addi 3,31,336
	lwz 11,612(1)
	addi 4,1,344
	lwz 0,616(1)
	li 5,48
	lwz 7,620(1)
.LBE1391:
.LBE1400:
.LBE1407:
.LBE1412:
	.loc 5 492 0
	addi 29,29,1
.LVL137:
.LBB1413:
.LBB1408:
.LBB1401:
.LBB1392:
	.loc 13 80 0
	stw 9,320(31)
.LBE1392:
.LBE1401:
.LBE1408:
.LBE1413:
	.loc 5 492 0
	addi 27,27,448
.LBB1414:
.LBB1409:
.LBB1402:
.LBB1393:
	.loc 13 80 0
	stw 11,324(31)
	stw 0,328(31)
	stw 7,332(31)
	bl memcpy
.LVL138:
	lwz 0,392(1)
.LBE1393:
.LBE1402:
.LBE1409:
.LBE1414:
	.loc 5 492 0
	lwz 9,484(1)
.LBB1415:
.LBB1410:
.LBB1403:
.LBB1394:
	.loc 13 80 0
	stw 0,384(31)
	lwz 0,396(1)
.LBE1394:
.LBE1403:
.LBE1410:
.LBE1415:
	.loc 5 492 0
	cmpw 7,29,9
.LBB1416:
.LBB1411:
.LBB1404:
.LBB1395:
	.loc 13 80 0
	lwz 11,624(1)
	stw 0,388(31)
	lwz 0,400(1)
	lwz 7,632(1)
	stw 0,392(31)
	lwz 0,628(1)
	lwz 9,636(1)
	stw 11,396(31)
	stw 0,400(31)
	lwz 11,640(1)
	lwz 0,644(1)
	stw 7,404(31)
	stw 9,408(31)
	lwz 7,648(1)
	lwz 9,652(1)
	stb 11,412(31)
	stb 0,413(31)
	lwz 11,656(1)
	lwz 0,660(1)
	stb 7,414(31)
	stb 9,415(31)
	lwz 7,664(1)
.LBE1395:
.LBE1404:
	.loc 14 52 0
	lwz 9,668(1)
.LBB1405:
.LBB1396:
	.loc 13 80 0
	stw 11,416(31)
	stw 0,420(31)
.LBE1396:
.LBE1405:
	.loc 14 52 0
	lwz 11,672(1)
	lwz 0,676(1)
.LBB1406:
.LBB1397:
	.loc 13 80 0
	stw 7,424(31)
.LBE1397:
.LBE1406:
	.loc 14 52 0
	stw 9,428(31)
	stw 11,432(31)
	stw 0,436(31)
	lwz 7,680(1)
	lwz 9,684(1)
	stw 7,440(31)
	lwz 11,688(1)
	lwz 0,692(1)
	lwz 7,696(1)
	stb 9,444(31)
	stb 11,445(31)
	stb 0,446(31)
	stb 7,447(31)
.LBE1411:
.LBE1416:
	.loc 5 492 0
	bne+ 7,.L61
	lwz 30,464(1)
	lwz 9,644(30)
	b .L45
.LVL139:
.L77:
.LBE1418:
.LBB1419:
.LBB1287:
	.loc 5 388 0
	stw 11,648(30)
	b .L51
.LVL140:
.L79:
	lwz 11,644(30)
	b .L50
.LBE1287:
.LBE1419:
.LBE1420:
.LBE1423:
.LBE1426:
.LBE1481:
.LBE1485:
.LBE1489:
	.cfi_endproc
.LFE3185:
	.size	_ZN10idEntityFx5SetupEPKc.part.23, .-_ZN10idEntityFx5SetupEPKc.part.23
	.align 2
	.globl _ZN10idEntityFx7RestoreEP13idRestoreGame
	.type	_ZN10idEntityFx7RestoreEP13idRestoreGame, @function
_ZN10idEntityFx7RestoreEP13idRestoreGame:
.LFB2813:
	.loc 2 96 0
	.cfi_startproc
.LVL141:
	stwu 1,-128(1)
.LCFI21:
	.cfi_def_cfa_offset 128
	mflr 0
	stw 28,112(1)
	mr 28,3
	.cfi_offset 28, -16
	.cfi_register 65, 0
	stw 27,108(1)
.LBB1568:
	.loc 2 101 0
	mr 3,4
.LVL142:
.LBE1568:
	.loc 2 96 0
	mr 27,4
	.cfi_offset 27, -20
.LBB1738:
	.loc 2 101 0
	addi 4,28,636
.LVL143:
.LBE1738:
	.loc 2 96 0
	stw 0,132(1)
	stw 20,80(1)
.LBB1739:
	.loc 2 108 0
	addi 20,28,648
	.cfi_offset 20, -48
	.cfi_offset 65, 4
.LBE1739:
	.loc 2 96 0
	stw 14,56(1)
	stw 15,60(1)
	stw 16,64(1)
	stw 17,68(1)
	stw 18,72(1)
	stw 19,76(1)
	stw 21,84(1)
	stw 22,88(1)
	stw 23,92(1)
	stw 24,96(1)
	stw 25,100(1)
	stw 26,104(1)
	stw 29,116(1)
	stw 30,120(1)
	stw 31,124(1)
.LBB1740:
	.loc 2 101 0
	.cfi_offset 31, -4
	.cfi_offset 30, -8
	.cfi_offset 29, -12
	.cfi_offset 26, -24
	.cfi_offset 25, -28
	.cfi_offset 24, -32
	.cfi_offset 23, -36
	.cfi_offset 22, -40
	.cfi_offset 21, -44
	.cfi_offset 19, -52
	.cfi_offset 18, -56
	.cfi_offset 17, -60
	.cfi_offset 16, -64
	.cfi_offset 15, -68
	.cfi_offset 14, -72
	bl _ZN13idRestoreGame7ReadIntERi
.LVL144:
	.loc 2 102 0
	mr 3,27
	addi 4,28,640
	bl _ZN13idRestoreGame7ReadIntERi
	.loc 2 103 0
	mr 3,27
	addi 4,28,644
	bl _ZN13idRestoreGame6ReadFXERPK8idDeclFX
	.loc 2 104 0
	mr 3,27
	addi 4,28,664
	bl _ZN13idRestoreGame10ReadStringER5idStr
	.loc 2 106 0
	mr 3,27
	addi 4,1,12
	bl _ZN13idRestoreGame7ReadIntERi
.LVL145:
	.loc 2 108 0
	lwz 0,12(1)
.LBB1569:
.LBB1570:
.LBB1571:
.LBB1572:
	.loc 5 375 0
	cmpwi 7,0,0
.LBE1572:
.LBE1571:
.LBE1570:
.LBE1569:
	.loc 2 108 0
	stw 0,44(1)
.LBB1696:
.LBB1692:
.LBB1688:
.LBB1684:
	.loc 5 375 0
	ble- 7,.L104
	.loc 5 380 0
	lwz 0,652(28)
	lwz 9,44(1)
	cmpw 7,9,0
	beq- 7,.L84
	.loc 5 387 0
	lwz 0,648(28)
	.loc 5 385 0
	lwz 22,660(28)
.LVL146:
	.loc 5 387 0
	cmpw 7,9,0
	.loc 5 386 0
	stw 9,652(28)
	.loc 5 387 0
	blt- 7,.L105
.L85:
	.loc 5 392 0
	lwz 9,44(1)
	slwi 0,9,6
	slwi 3,9,9
	subf 3,0,3
	bl _Znaj
.LVL147:
	.loc 5 393 0
	lwz 0,648(28)
	.loc 5 392 0
	stw 3,660(28)
.LVL148:
	.loc 5 393 0
	cmpwi 7,0,0
	ble- 7,.L86
	addi 0,22,120
	addi 9,22,132
	stw 0,32(1)
	addi 0,22,224
	stw 9,36(1)
	addi 9,22,236
	stw 0,24(1)
	addi 0,22,272
	.loc 2 96 0
	addi 21,22,212
	stw 9,28(1)
	stw 0,40(1)
.LBB1573:
.LBB1574:
	mr 24,21
	stw 27,48(1)
	mr 29,22
	li 25,0
	.loc 5 393 0
	li 26,0
	addi 17,22,36
	addi 18,22,60
	addi 19,22,72
	addi 16,22,84
	addi 15,22,96
	addi 14,22,108
	mr 31,3
.LVL149:
.L89:
.LBE1574:
.LBE1573:
	.loc 5 394 0
	add 31,31,25
.LVL150:
.LBB1576:
.LBB1577:
.LBB1578:
.LBB1579:
.LBB1580:
.LBB1581:
	.loc 12 333 0
	li 10,0
.L87:
.LBB1582:
.LBB1583:
	.loc 7 424 0
	mr 11,29
	mr 9,31
	lwzux 0,11,10
.LBE1583:
.LBE1582:
	.loc 12 333 0
	cmpwi 7,10,24
.LBB1586:
.LBB1584:
	.loc 7 424 0
	stwux 0,9,10
.LBE1584:
.LBE1586:
	.loc 12 333 0
	addi 10,10,12
.LBB1587:
.LBB1585:
	.loc 7 425 0
	lwz 0,4(11)
	stw 0,4(9)
	.loc 7 426 0
	lwz 0,8(11)
	stw 0,8(9)
.LBE1585:
.LBE1587:
	.loc 12 333 0
	bne+ 7,.L87
.LVL151:
.LBE1581:
.LBE1580:
.LBB1588:
.LBB1589:
	.loc 7 424 0
	mr 9,17
.LBE1589:
.LBE1588:
.LBB1596:
.LBB1597:
	mr 27,18
.LBE1597:
.LBE1596:
.LBB1599:
.LBB1590:
	lwzux 0,9,25
.LBE1590:
.LBE1599:
.LBB1600:
.LBB1601:
	mr 6,19
.LBE1601:
.LBE1600:
.LBB1603:
.LBB1604:
	mr 7,16
.LBE1604:
.LBE1603:
.LBB1606:
.LBB1607:
	lwz 11,32(1)
.LBE1607:
.LBE1606:
.LBB1609:
.LBB1591:
	stw 0,36(31)
.LBE1591:
.LBE1609:
.LBB1610:
.LBB1611:
	mr 8,15
.LBE1611:
.LBE1610:
.LBB1613:
.LBB1614:
	mr 10,14
.LBE1614:
.LBE1613:
	.loc 13 157 0
	addi 3,31,156
.LBB1616:
.LBB1592:
	.loc 7 425 0
	lwz 0,4(9)
.LBE1592:
.LBE1616:
	.loc 13 157 0
	addi 4,29,156
	li 5,48
.LBE1579:
.LBE1578:
	.loc 2 96 0
	subf 23,22,24
.LBB1633:
.LBB1630:
.LBB1617:
.LBB1593:
	.loc 7 425 0
	stw 0,40(31)
.LBE1593:
.LBE1617:
.LBE1630:
.LBE1633:
	.loc 2 96 0
	add 30,23,21
.LBB1634:
.LBB1631:
.LBB1618:
.LBB1594:
	.loc 7 426 0
	lwz 0,8(9)
.LBE1594:
.LBE1618:
.LBB1619:
.LBB1620:
	.loc 7 424 0
	lwz 9,36(1)
.LBE1620:
.LBE1619:
.LBB1622:
.LBB1595:
	.loc 7 426 0
	stw 0,44(31)
.LBE1595:
.LBE1622:
	.loc 13 157 0
	lwz 0,48(29)
	stw 0,48(31)
	lwz 0,52(29)
	stw 0,52(31)
	lbz 0,56(29)
	stb 0,56(31)
	lbz 0,57(29)
	stb 0,57(31)
	lbz 0,58(29)
	stb 0,58(31)
	lbz 0,59(29)
	stb 0,59(31)
.LVL152:
.LBB1623:
.LBB1598:
	.loc 7 424 0
	lwzux 0,27,25
	stw 0,60(31)
	.loc 7 425 0
	lwz 0,4(27)
	stw 0,64(31)
	.loc 7 426 0
	lwz 0,8(27)
	stw 0,68(31)
.LVL153:
.LBE1598:
.LBE1623:
.LBB1624:
.LBB1602:
	.loc 7 424 0
	lwzux 0,6,25
	stw 0,72(31)
	.loc 7 425 0
	lwz 0,4(6)
	stw 0,76(31)
	.loc 7 426 0
	lwz 0,8(6)
	stw 0,80(31)
.LVL154:
.LBE1602:
.LBE1624:
.LBB1625:
.LBB1605:
	.loc 7 424 0
	lwzux 0,7,25
	stw 0,84(31)
	.loc 7 425 0
	lwz 0,4(7)
	stw 0,88(31)
	.loc 7 426 0
	lwz 0,8(7)
	stw 0,92(31)
.LVL155:
.LBE1605:
.LBE1625:
.LBB1626:
.LBB1612:
	.loc 7 424 0
	lwzux 0,8,25
	stw 0,96(31)
	.loc 7 425 0
	lwz 0,4(8)
	stw 0,100(31)
	.loc 7 426 0
	lwz 0,8(8)
	stw 0,104(31)
.LVL156:
.LBE1612:
.LBE1626:
.LBB1627:
.LBB1615:
	.loc 7 424 0
	lwzux 0,10,25
	stw 0,108(31)
	.loc 7 425 0
	lwz 0,4(10)
	stw 0,112(31)
	.loc 7 426 0
	lwz 0,8(10)
	stw 0,116(31)
.LVL157:
.LBE1615:
.LBE1627:
.LBB1628:
.LBB1608:
	.loc 7 424 0
	lwzux 0,11,25
	stw 0,120(31)
	.loc 7 425 0
	lwz 0,4(11)
	stw 0,124(31)
	.loc 7 426 0
	lwz 0,8(11)
	stw 0,128(31)
.LVL158:
.LBE1608:
.LBE1628:
.LBB1629:
.LBB1621:
	.loc 7 424 0
	lwzux 0,9,25
	stw 0,132(31)
	.loc 7 425 0
	lwz 0,4(9)
	stw 0,136(31)
	.loc 7 426 0
	lwz 0,8(9)
	stw 0,140(31)
.LBE1621:
.LBE1629:
	.loc 13 157 0
	lwz 0,144(29)
	stw 0,144(31)
	lwz 0,148(29)
	stw 0,148(31)
	lwz 0,152(29)
	stw 0,152(31)
	bl memcpy
	lwz 0,204(29)
.LBE1631:
.LBE1634:
.LBB1635:
.LBB1636:
.LBB1637:
.LBB1638:
	.loc 12 333 0
	addi 7,31,284
.LBE1638:
.LBE1637:
.LBB1649:
.LBB1650:
.LBB1651:
	.loc 7 424 0
	lwz 8,24(1)
.LBE1651:
.LBE1650:
.LBE1649:
.LBE1636:
.LBE1635:
.LBB1671:
.LBB1632:
	.loc 13 157 0
	stw 0,204(31)
.LBE1632:
.LBE1671:
.LBB1672:
.LBB1666:
.LBB1656:
.LBB1654:
.LBB1652:
	.loc 7 424 0
	lwz 10,28(1)
.LBE1652:
.LBE1654:
.LBE1656:
.LBE1666:
.LBE1672:
	.loc 14 52 0
	lwz 0,208(29)
.LBB1673:
.LBB1667:
.LBB1657:
.LBB1658:
	.loc 7 424 0
	lwz 11,40(1)
.LBE1658:
.LBE1657:
.LBE1667:
.LBE1673:
	.loc 14 52 0
	stw 0,208(31)
.LVL159:
.LBB1674:
.LBB1668:
.LBB1660:
.LBB1645:
	.loc 12 333 0
	addi 0,29,284
.LBE1645:
.LBE1660:
	.loc 13 80 0
	lwz 9,-212(30)
	stw 9,212(31)
.LBB1661:
.LBB1646:
	.loc 12 333 0
	li 9,0
.LBE1646:
.LBE1661:
	.loc 13 80 0
	lwz 6,-208(30)
	stw 6,216(31)
	lwz 6,-204(30)
	stw 6,220(31)
.LVL160:
.LBB1662:
.LBB1655:
.LBB1653:
	.loc 7 424 0
	lwzux 6,8,25
	stw 6,224(31)
	.loc 7 425 0
	lwz 6,4(8)
	stw 6,228(31)
	.loc 7 426 0
	lwz 8,8(8)
	stw 8,232(31)
.LVL161:
	.loc 7 424 0
	lwzux 8,10,25
	stw 8,236(31)
	.loc 7 425 0
	lwz 8,4(10)
	stw 8,240(31)
	.loc 7 426 0
	lwz 10,8(10)
	stw 10,244(31)
.LBE1653:
.LBE1655:
.LBE1662:
	.loc 13 80 0
	lwz 10,-176(30)
	stw 10,248(31)
	lwz 10,-172(30)
	stw 10,252(31)
	lwz 10,-168(30)
	stw 10,256(31)
	lwz 10,-164(30)
	stw 10,260(31)
	lwz 10,-160(30)
	stw 10,264(31)
	lwz 10,-156(30)
	stw 10,268(31)
.LVL162:
.LBB1663:
.LBB1659:
	.loc 7 424 0
	lwzux 10,11,25
	stw 10,272(31)
	.loc 7 425 0
	lwz 10,4(11)
	stw 10,276(31)
	.loc 7 426 0
	lwz 11,8(11)
	stw 11,280(31)
.LVL163:
.L88:
.LBE1659:
.LBE1663:
.LBB1664:
.LBB1647:
.LBB1639:
.LBB1640:
	.loc 7 424 0
	mr 10,0
	mr 11,7
	lwzux 8,10,9
.LBE1640:
.LBE1639:
	.loc 12 333 0
	cmpwi 7,9,24
.LBB1643:
.LBB1641:
	.loc 7 424 0
	stwux 8,11,9
.LBE1641:
.LBE1643:
	.loc 12 333 0
	addi 9,9,12
.LBB1644:
.LBB1642:
	.loc 7 425 0
	lwz 8,4(10)
	stw 8,4(11)
	.loc 7 426 0
	lwz 10,8(10)
	stw 10,8(11)
.LBE1642:
.LBE1644:
	.loc 12 333 0
	bne+ 7,.L88
.LBE1647:
.LBE1664:
	.loc 13 80 0
	lwz 0,-104(30)
	addi 3,31,336
	addi 4,30,-88
	li 5,48
	stw 0,320(31)
.LBE1668:
.LBE1674:
.LBE1577:
.LBE1576:
	.loc 5 393 0
	addi 26,26,1
	addi 25,25,448
	addi 24,24,448
.LBB1680:
.LBB1677:
.LBB1675:
.LBB1669:
	.loc 13 80 0
	lwz 0,-100(30)
	stw 0,324(31)
	lwz 0,-96(30)
	stw 0,328(31)
	lwz 0,-92(30)
	stw 0,332(31)
	bl memcpy
	lwz 0,-32(30)
	lwz 11,-40(30)
	lwz 9,-36(30)
	stw 11,384(31)
	stw 9,388(31)
	stw 0,392(31)
	lwz 0,-28(30)
	stw 0,396(31)
	lwz 0,-24(30)
	stw 0,400(31)
	lwz 0,-20(30)
	stw 0,404(31)
	lwz 0,-16(30)
	stw 0,408(31)
	lbz 0,-12(30)
	stb 0,412(31)
	lbz 0,-11(30)
	stb 0,413(31)
	lbz 0,-10(30)
	stb 0,414(31)
	lbz 0,-9(30)
	stb 0,415(31)
	lwz 0,-8(30)
	stw 0,416(31)
	lwz 0,-4(30)
	stw 0,420(31)
	lwzx 0,23,21
	stw 0,424(31)
.LBE1669:
.LBE1675:
	.loc 14 52 0
	lwz 0,428(29)
	stw 0,428(31)
	lwz 0,432(29)
	stw 0,432(31)
	lwz 0,436(29)
	stw 0,436(31)
.LVL164:
	lwz 0,440(29)
	stw 0,440(31)
	lbz 0,444(29)
	stb 0,444(31)
	lbz 0,445(29)
	stb 0,445(31)
	lbz 0,446(29)
	stb 0,446(31)
	lbz 0,447(29)
.LBE1677:
.LBE1680:
	.loc 5 393 0
	addi 29,29,448
.LVL165:
.LBB1681:
.LBB1678:
	.loc 14 52 0
	stb 0,447(31)
.LBE1678:
.LBE1681:
	.loc 5 393 0
	lwz 0,0(20)
	cmpw 7,26,0
	bge- 7,.L102
	lwz 31,660(28)
.LVL166:
	b .L89
.LVL167:
.L102:
	lwz 27,48(1)
.LVL168:
.L86:
	.loc 5 398 0
	cmpwi 7,22,0
	beq- 7,.L103
	.loc 5 399 0
	mr 3,22
	bl _ZdaPv
.L103:
	lwz 0,12(1)
.LVL169:
.L83:
.LBE1684:
.LBE1688:
.LBE1692:
.LBE1696:
	.loc 2 109 0
	cmpwi 7,0,0
.LBB1697:
.LBB1693:
	.loc 5 302 0
	lwz 9,44(1)
	stw 9,648(28)
.LVL170:
.LBE1693:
.LBE1697:
	.loc 2 109 0
	ble- 7,.L80
.L97:
.LBB1698:
.LBB1694:
.LBB1689:
.LBB1685:
.LBB1682:
.LBB1679:
.LBB1676:
.LBB1670:
.LBB1665:
.LBB1648:
	.loc 12 333 0
	li 31,0
	li 30,0
.LBE1648:
.LBE1665:
.LBE1670:
.LBE1676:
.LBE1679:
.LBE1682:
.LBE1685:
.LBE1689:
.LBE1694:
.LBE1698:
	.loc 2 117 0
	li 29,-1
	.loc 2 114 0
	lis 26,gameRenderWorld@ha
	b .L96
.LVL171:
.L106:
.LBB1699:
.LBB1700:
	.loc 5 589 0
	lwz 4,660(28)
.LBE1700:
.LBE1699:
	.loc 2 113 0
	add 4,4,31
	bl _ZN13idRestoreGame15ReadRenderLightER13renderLight_s
.LVL172:
	.loc 2 114 0
	lwz 3,gameRenderWorld@l(26)
.LVL173:
.LBB1701:
.LBB1702:
	.loc 5 589 0
	lwz 25,660(28)
.LBE1702:
.LBE1701:
	.loc 2 114 0
	lwz 9,0(3)
.LBB1704:
.LBB1703:
	.loc 5 589 0
	add 25,25,31
.LBE1703:
.LBE1704:
	.loc 2 114 0
	lwz 0,32(9)
	mr 4,25
	mtctr 0
	bctrl
	.loc 2 120 0
	addi 4,1,8
	.loc 2 114 0
	stw 3,208(25)
	.loc 2 120 0
	mr 3,27
	bl _ZN13idRestoreGame8ReadBoolERb
.LVL174:
	.loc 2 121 0
	lbz 0,8(1)
.LVL175:
	.loc 2 122 0
	mr 3,27
	.loc 2 125 0
	li 5,216
	.loc 2 121 0
	cmpwi 7,0,0
.LVL176:
	.loc 2 125 0
	li 4,0
	.loc 2 121 0
	beq- 7,.L94
.LVL177:
.L107:
.LBB1705:
.LBB1706:
	.loc 5 589 0
	lwz 4,660(28)
	add 4,4,31
.LBE1706:
.LBE1705:
	.loc 2 122 0
	addi 4,4,212
	bl _ZN13idRestoreGame16ReadRenderEntityER14renderEntity_s
.LVL178:
	.loc 2 123 0
	lwz 3,gameRenderWorld@l(26)
.LVL179:
.LBB1707:
.LBB1708:
	.loc 5 589 0
	lwz 25,660(28)
.LBE1708:
.LBE1707:
	.loc 2 123 0
	lwz 9,0(3)
.LBB1710:
.LBB1709:
	.loc 5 589 0
	add 25,25,31
.LBE1709:
.LBE1710:
	.loc 2 123 0
	lwz 0,16(9)
	addi 4,25,212
	mtctr 0
	bctrl
	stw 3,428(25)
.LVL180:
.L95:
.LBB1711:
.LBB1712:
	.loc 5 589 0
	lwz 4,660(28)
.LBE1712:
.LBE1711:
	.loc 2 129 0
	mr 3,27
	.loc 2 109 0
	addi 30,30,1
.LVL181:
.LBB1714:
.LBB1713:
	.loc 5 589 0
	add 4,4,31
.LBE1713:
.LBE1714:
	.loc 2 129 0
	addi 4,4,432
	bl _ZN13idRestoreGame9ReadFloatERf
	.loc 2 132 0
	lwz 9,660(28)
	.loc 2 134 0
	mr 3,27
	.loc 2 132 0
	add 9,9,31
	stw 29,436(9)
.LBB1715:
.LBB1716:
	.loc 5 589 0
	lwz 4,660(28)
	add 4,4,31
.LBE1716:
.LBE1715:
	.loc 2 134 0
	addi 4,4,440
	bl _ZN13idRestoreGame7ReadIntERi
.LBB1717:
.LBB1718:
	.loc 5 589 0
	lwz 4,660(28)
.LBE1718:
.LBE1717:
	.loc 2 135 0
	mr 3,27
.LBB1720:
.LBB1719:
	.loc 5 589 0
	add 4,4,31
.LBE1719:
.LBE1720:
	.loc 2 135 0
	addi 4,4,444
	bl _ZN13idRestoreGame8ReadBoolERb
.LBB1721:
.LBB1722:
	.loc 5 589 0
	lwz 4,660(28)
.LBE1722:
.LBE1721:
	.loc 2 136 0
	mr 3,27
.LBB1724:
.LBB1723:
	.loc 5 589 0
	add 4,4,31
.LBE1723:
.LBE1724:
	.loc 2 136 0
	addi 4,4,445
	bl _ZN13idRestoreGame8ReadBoolERb
.LBB1725:
.LBB1726:
	.loc 5 589 0
	lwz 4,660(28)
.LBE1726:
.LBE1725:
	.loc 2 137 0
	mr 3,27
.LBB1728:
.LBB1727:
	.loc 5 589 0
	add 4,4,31
.LBE1727:
.LBE1728:
	.loc 2 137 0
	addi 4,4,446
	bl _ZN13idRestoreGame8ReadBoolERb
.LBB1729:
.LBB1730:
	.loc 5 589 0
	lwz 4,660(28)
.LBE1730:
.LBE1729:
	.loc 2 138 0
	mr 3,27
.LBB1732:
.LBB1731:
	.loc 5 589 0
	add 4,4,31
.LBE1731:
.LBE1732:
	.loc 2 109 0
	addi 31,31,448
	.loc 2 138 0
	addi 4,4,447
	bl _ZN13idRestoreGame8ReadBoolERb
.LVL182:
	.loc 2 109 0
	lwz 0,12(1)
	cmpw 7,0,30
	ble- 7,.L80
.LVL183:
.L96:
	.loc 2 111 0
	mr 3,27
	addi 4,1,8
	bl _ZN13idRestoreGame8ReadBoolERb
.LVL184:
	.loc 2 112 0
	lbz 0,8(1)
.LVL185:
	.loc 2 113 0
	mr 3,27
	.loc 2 116 0
	li 5,208
	.loc 2 112 0
	cmpwi 7,0,0
.LVL186:
	.loc 2 116 0
	li 4,0
	.loc 2 112 0
	bne- 7,.L106
.LVL187:
.LBB1733:
.LBB1734:
	.loc 5 589 0
	lwz 3,660(28)
.LBE1734:
.LBE1733:
	.loc 2 116 0
	add 3,3,31
	bl memset
.LVL188:
	.loc 2 117 0
	lwz 9,660(28)
	.loc 2 120 0
	mr 3,27
	addi 4,1,8
	.loc 2 117 0
	add 9,9,31
	stw 29,208(9)
	.loc 2 120 0
	bl _ZN13idRestoreGame8ReadBoolERb
.LVL189:
	.loc 2 121 0
	lbz 0,8(1)
.LVL190:
	.loc 2 122 0
	mr 3,27
	.loc 2 125 0
	li 5,216
	.loc 2 121 0
	cmpwi 7,0,0
.LVL191:
	.loc 2 125 0
	li 4,0
	.loc 2 121 0
	bne- 7,.L107
.LVL192:
.L94:
.LBB1735:
.LBB1736:
	.loc 5 589 0
	lwz 3,660(28)
	add 3,3,31
.LBE1736:
.LBE1735:
	.loc 2 125 0
	addi 3,3,212
	bl memset
.LVL193:
	.loc 2 126 0
	lwz 9,660(28)
	add 9,9,31
	stw 29,428(9)
	b .L95
.LVL194:
.L80:
.LBE1740:
	.loc 2 140 0
	lwz 0,132(1)
	lwz 14,56(1)
	mtlr 0
	lwz 15,60(1)
	lwz 16,64(1)
	lwz 17,68(1)
	lwz 18,72(1)
	lwz 19,76(1)
	lwz 20,80(1)
.LVL195:
	lwz 21,84(1)
	lwz 22,88(1)
	lwz 23,92(1)
	lwz 24,96(1)
	lwz 25,100(1)
	lwz 26,104(1)
	lwz 27,108(1)
	lwz 28,112(1)
.LVL196:
	lwz 29,116(1)
	lwz 30,120(1)
	lwz 31,124(1)
	addi 1,1,128
	.cfi_remember_state
.LCFI22:
	.cfi_def_cfa_offset 0
	.cfi_restore 31
	.cfi_restore 30
	.cfi_restore 29
	.cfi_restore 28
	.cfi_restore 27
	.cfi_restore 26
	.cfi_restore 25
	.cfi_restore 24
	.cfi_restore 23
	.cfi_restore 22
	.cfi_restore 21
	.cfi_restore 20
	.cfi_restore 19
	.cfi_restore 18
	.cfi_restore 17
	.cfi_restore 16
	.cfi_restore 15
	.cfi_restore 14
	blr
.LVL197:
.L105:
.LCFI23:
	.cfi_restore_state
.LBB1741:
.LBB1737:
.LBB1695:
.LBB1690:
.LBB1686:
	.loc 5 388 0
	stw 9,648(28)
	b .L85
.LVL198:
.L84:
.LBE1686:
.LBE1690:
	.loc 5 302 0
	lwz 0,44(1)
	stw 0,648(28)
.LVL199:
	b .L97
.LVL200:
.L104:
.LBB1691:
.LBB1687:
.LBB1683:
.LBB1575:
	.loc 5 193 0
	lwz 3,660(28)
	cmpwi 7,3,0
	beq- 7,.L82
	.loc 5 194 0
	bl _ZdaPv
	lwz 0,12(1)
.L82:
	.loc 5 197 0
	li 9,0
	stw 9,660(28)
	.loc 5 199 0
	stw 9,652(28)
	b .L83
.LBE1575:
.LBE1683:
.LBE1687:
.LBE1691:
.LBE1695:
.LBE1737:
.LBE1741:
	.cfi_endproc
.LFE2813:
	.size	_ZN10idEntityFx7RestoreEP13idRestoreGame, .-_ZN10idEntityFx7RestoreEP13idRestoreGame
	.align 2
	.globl _ZN10idEntityFx5SetupEPKc
	.type	_ZN10idEntityFx5SetupEPKc, @function
_ZN10idEntityFx5SetupEPKc:
.LFB2814:
	.loc 2 147 0
	.cfi_startproc
.LVL201:
	mflr 0
	stwu 1,-16(1)
.LCFI24:
	.cfi_def_cfa_offset 16
	.cfi_register 65, 0
	stw 31,12(1)
	mr 31,3
	.cfi_offset 31, -4
	stw 0,20(1)
.LBB1742:
	.loc 2 149 0
	lwz 0,636(3)
	.cfi_offset 65, 4
	cmpwi 7,0,0
	blt- 7,.L111
.LVL202:
.L108:
.LBE1742:
	.loc 2 188 0
	lwz 0,20(1)
	lwz 31,12(1)
.LVL203:
	mtlr 0
	addi 1,1,16
	.cfi_remember_state
.LCFI25:
	.cfi_def_cfa_offset 0
	.cfi_restore 31
	blr
.LVL204:
.L111:
.LCFI26:
	.cfi_restore_state
.LBB1747:
	.loc 2 154 0
	lis 9,gameLocal+2426850@ha
	lbz 0,gameLocal+2426850@l(9)
	cmpwi 7,0,0
	beq- 7,.L110
	.loc 2 154 0 is_stmt 0 discriminator 1
	cmpwi 7,4,0
	beq- 7,.L108
	.loc 2 154 0 discriminator 2
	lbz 0,0(4)
	cmpwi 7,0,0
	beq- 7,.L108
.L110:
	.loc 2 158 0 is_stmt 1
	addi 3,31,664
.LVL205:
	bl _ZN5idStraSEPKc
.LVL206:
	.loc 2 159 0
	li 0,0
	.loc 2 161 0
	lis 9,declManager@ha
	.loc 2 159 0
	stw 0,636(31)
	.loc 2 161 0
	lwz 3,declManager@l(9)
	li 4,6
	lwz 5,668(31)
	li 6,1
	lwz 9,0(3)
	li 7,0
	lwz 0,60(9)
	mtctr 0
	bctrl
.LBB1743:
	.loc 2 163 0
	cmpwi 7,3,0
.LBE1743:
	.loc 2 161 0
	stw 3,644(31)
.LBB1744:
	.loc 2 163 0
	beq- 7,.L108
.LBE1744:
.LBE1747:
	.loc 2 188 0
	lwz 0,20(1)
.LBB1748:
.LBB1745:
	.loc 2 163 0
	mr 3,31
.LBE1745:
.LBE1748:
	.loc 2 188 0
	lwz 31,12(1)
.LVL207:
	mtlr 0
	addi 1,1,16
.LCFI27:
	.cfi_def_cfa_offset 0
	.cfi_restore 31
.LBB1749:
.LBB1746:
	.loc 2 163 0
	b _ZN10idEntityFx5SetupEPKc.part.23
.LVL208:
.LBE1746:
.LBE1749:
	.cfi_endproc
.LFE2814:
	.size	_ZN10idEntityFx5SetupEPKc, .-_ZN10idEntityFx5SetupEPKc
	.align 2
	.globl _ZN10idEntityFx5SpawnEv
	.type	_ZN10idEntityFx5SpawnEv, @function
_ZN10idEntityFx5SpawnEv:
.LFB2841:
	.loc 2 577 0
	.cfi_startproc
.LVL209:
	mflr 0
	stwu 1,-32(1)
.LCFI28:
	.cfi_def_cfa_offset 32
	.cfi_register 65, 0
.LBB1783:
.LBB1784:
.LBB1785:
	.loc 2 579 0
	lis 9,g_skipFX+44@ha
.LBE1785:
.LBE1784:
.LBE1783:
	.loc 2 577 0
	stw 31,28(1)
	mr 31,3
	.cfi_offset 31, -4
	stw 0,36(1)
	stw 29,20(1)
	stw 30,24(1)
.LBB1788:
.LBB1787:
.LBB1786:
	.file 16 "d:/Data/Nintendo/DoomGX/src/game/../idlib/../framework/CVarSystem.h"
	.loc 16 142 0
	lwz 9,g_skipFX+44@l(9)
.LBE1786:
.LBE1787:
	.loc 2 579 0
	lwz 0,36(9)
	.cfi_offset 30, -8
	.cfi_offset 29, -12
	.cfi_offset 65, 4
	cmpwi 7,0,0
	beq- 7,.L125
.LVL210:
.L112:
.LBE1788:
	.loc 2 595 0
	lwz 0,36(1)
	lwz 29,20(1)
	mtlr 0
	lwz 30,24(1)
	lwz 31,28(1)
.LVL211:
	addi 1,1,32
	.cfi_remember_state
.LCFI29:
	.cfi_def_cfa_offset 0
	.cfi_restore 31
	.cfi_restore 30
	.cfi_restore 29
	blr
.LVL212:
.L125:
.LCFI30:
	.cfi_restore_state
.LBB1789:
.LBB1790:
	.loc 2 584 0
	stw 0,640(3)
	.loc 2 586 0
	addi 30,3,100
.LVL213:
	.loc 2 585 0
	stw 0,644(3)
.LBB1791:
.LBB1792:
	.loc 10 221 0
	lis 4,.LC14@ha
	mr 3,30
.LVL214:
	la 4,.LC14@l(4)
	bl _ZNK6idDict7FindKeyEPKc
.LVL215:
	.loc 10 222 0
	cmpwi 0,3,0
	beq- 0,.L120
.LVL216:
.LBB1793:
	.loc 2 796 0
	lwz 9,4(3)
.LBE1793:
.LBE1792:
.LBE1791:
	.loc 2 587 0
	addi 3,31,664
.LVL217:
.LBB1797:
.LBB1795:
.LBB1794:
	.loc 2 796 0
	lwz 29,4(9)
.LVL218:
.LBE1794:
.LBE1795:
.LBE1797:
	.loc 2 587 0
	mr 4,29
	bl _ZN5idStraSEPKc
.LVL219:
.L114:
.LBB1798:
.LBB1799:
.LBB1800:
.LBB1801:
	.loc 10 241 0
	lis 4,.LC15@ha
	mr 3,30
	la 4,.LC15@l(4)
	bl _ZNK6idDict7FindKeyEPKc
.LVL220:
	.loc 10 242 0
	cmpwi 0,3,0
	beq- 0,.L121
.LVL221:
.LBB1802:
	.loc 2 796 0
	lwz 9,4(3)
	lwz 3,4(9)
.LVL222:
.L115:
.LBE1802:
.LBE1801:
.LBE1800:
	.loc 10 257 0
	bl atoi
.LBE1799:
.LBE1798:
	.loc 2 589 0
	cmpwi 7,3,0
	bne+ 7,.L112
	.loc 2 590 0
	mr 3,31
	mr 4,29
	bl _ZN10idEntityFx5SetupEPKc
.LVL223:
.LBB1806:
.LBB1807:
.LBB1808:
.LBB1809:
	.loc 10 241 0
	lis 4,.LC16@ha
	mr 3,30
	la 4,.LC16@l(4)
	bl _ZNK6idDict7FindKeyEPKc
.LVL224:
	.loc 10 242 0
	cmpwi 0,3,0
	beq- 0,.L122
.LVL225:
.LBB1810:
	.loc 2 796 0
	lwz 9,4(3)
	lwz 3,4(9)
.LVL226:
.L116:
.LBE1810:
.LBE1809:
.LBE1808:
	.loc 10 257 0
	bl atoi
.LBE1807:
.LBE1806:
	.loc 2 591 0
	cmpwi 7,3,0
	beq- 7,.L126
.LVL227:
.L117:
	.loc 2 592 0
	lis 4,EV_Activate@ha
	li 0,101
	mr 3,31
	addi 6,1,8
	la 4,EV_Activate@l(4)
	li 5,0
	stw 0,8(1)
	stw 31,12(1)
	bl _ZN7idClass11PostEventMSEPK10idEventDefi10idEventArg
.LBE1790:
.LBE1789:
	.loc 2 595 0
	lwz 0,36(1)
	lwz 29,20(1)
	mtlr 0
	lwz 30,24(1)
.LVL228:
	lwz 31,28(1)
.LVL229:
	addi 1,1,32
	.cfi_remember_state
	.cfi_restore 29
	.cfi_restore 30
	.cfi_restore 31
.LCFI31:
	.cfi_def_cfa_offset 0
	blr
.LVL230:
.L120:
.LCFI32:
	.cfi_restore_state
.LBB1838:
.LBB1837:
.LBB1814:
.LBB1796:
	.loc 10 226 0
	lis 29,.LC13@ha
	la 29,.LC13@l(29)
	b .L114
.LVL231:
.L126:
.LBE1796:
.LBE1814:
.LBB1815:
.LBB1816:
.LBB1817:
.LBB1818:
	.loc 10 241 0
	lis 4,.LC17@ha
	mr 3,30
	la 4,.LC17@l(4)
	bl _ZNK6idDict7FindKeyEPKc
.LVL232:
	.loc 10 242 0
	cmpwi 0,3,0
	beq- 0,.L123
.LVL233:
.LBB1819:
	.loc 2 796 0
	lwz 9,4(3)
	lwz 3,4(9)
.LVL234:
.L118:
.LBE1819:
.LBE1818:
.LBE1817:
	.loc 10 257 0
	bl atoi
.LBE1816:
.LBE1815:
	.loc 2 591 0
	cmpwi 7,3,0
	bne+ 7,.L117
.LVL235:
.LBB1823:
.LBB1824:
.LBB1825:
.LBB1826:
	.loc 10 241 0
	lis 4,.LC18@ha
	mr 3,30
	la 4,.LC18@l(4)
	bl _ZNK6idDict7FindKeyEPKc
.LVL236:
	.loc 10 242 0
	cmpwi 0,3,0
	beq- 0,.L124
.LVL237:
.LBB1827:
	.loc 2 796 0
	lwz 9,4(3)
	lwz 3,4(9)
.LVL238:
.L119:
.LBE1827:
.LBE1826:
.LBE1825:
	.loc 10 249 0
	bl atof
.LBE1824:
.LBE1823:
	.loc 2 591 0
	lis 9,.LC12@ha
.LBB1832:
.LBB1830:
	.loc 10 249 0
	frsp 1,1
.LBE1830:
.LBE1832:
	.loc 2 591 0
	lfs 0,.LC12@l(9)
	fcmpu 7,1,0
	beq- 7,.L112
	b .L117
.LVL239:
.L121:
.LBB1833:
.LBB1805:
.LBB1804:
.LBB1803:
	.loc 10 245 0
	lis 3,.LC7@ha
.LVL240:
	la 3,.LC7@l(3)
	b .L115
.LVL241:
.L122:
.LBE1803:
.LBE1804:
.LBE1805:
.LBE1833:
.LBB1834:
.LBB1813:
.LBB1812:
.LBB1811:
	lis 3,.LC7@ha
.LVL242:
	la 3,.LC7@l(3)
	b .L116
.LVL243:
.L123:
.LBE1811:
.LBE1812:
.LBE1813:
.LBE1834:
.LBB1835:
.LBB1822:
.LBB1821:
.LBB1820:
	lis 3,.LC7@ha
.LVL244:
	la 3,.LC7@l(3)
	b .L118
.LVL245:
.L124:
.LBE1820:
.LBE1821:
.LBE1822:
.LBE1835:
.LBB1836:
.LBB1831:
.LBB1829:
.LBB1828:
	lis 3,.LC7@ha
.LVL246:
	la 3,.LC7@l(3)
	b .L119
.LBE1828:
.LBE1829:
.LBE1831:
.LBE1836:
.LBE1837:
.LBE1838:
	.cfi_endproc
.LFE2841:
	.size	_ZN10idEntityFx5SpawnEv, .-_ZN10idEntityFx5SpawnEv
	.align 2
	.globl _ZN10idEntityFx10EffectNameEv
	.type	_ZN10idEntityFx10EffectNameEv, @function
_ZN10idEntityFx10EffectNameEv:
.LFB2824:
	.loc 2 195 0
	.cfi_startproc
.LVL247:
	mflr 0
	stwu 1,-8(1)
.LCFI33:
	.cfi_def_cfa_offset 8
	.cfi_register 65, 0
	stw 0,12(1)
	.loc 2 196 0
	lwz 9,644(3)
	li 3,0
.LVL248:
	cmpwi 7,9,0
	beq- 7,.L128
	.cfi_offset 65, 4
	.loc 2 796 0 discriminator 1
	lwz 3,4(9)
.LBB1839:
.LBB1840:
	.loc 3 140 0 discriminator 1
	lwz 9,0(3)
	lwz 0,8(9)
	mtctr 0
	bctrl
.L128:
.LBE1840:
.LBE1839:
	.loc 2 197 0 discriminator 3
	lwz 0,12(1)
	addi 1,1,8
.LCFI34:
	.cfi_def_cfa_offset 0
	mtlr 0
	blr
	.cfi_endproc
.LFE2824:
	.size	_ZN10idEntityFx10EffectNameEv, .-_ZN10idEntityFx10EffectNameEv
	.align 2
	.globl _ZN10idEntityFx5JointEv
	.type	_ZN10idEntityFx5JointEv, @function
_ZN10idEntityFx5JointEv:
.LFB2825:
	.loc 2 204 0
	.cfi_startproc
.LVL249:
	.loc 2 205 0
	lwz 9,644(3)
	li 3,0
.LVL250:
	cmpwi 7,9,0
	beqlr- 7
	.loc 2 796 0 discriminator 1
	lwz 3,28(9)
	.loc 2 206 0 discriminator 1
	blr
	.cfi_endproc
.LFE2825:
	.size	_ZN10idEntityFx5JointEv, .-_ZN10idEntityFx5JointEv
	.align 2
	.globl _ZN10idEntityFx19CleanUpSingleActionERK16idFXSingleActionR15idFXLocalAction
	.type	_ZN10idEntityFx19CleanUpSingleActionERK16idFXSingleActionR15idFXLocalAction, @function
_ZN10idEntityFx19CleanUpSingleActionERK16idFXSingleActionR15idFXLocalAction:
.LFB2827:
	.loc 2 229 0
	.cfi_startproc
.LVL251:
	mflr 0
	stwu 1,-24(1)
.LCFI35:
	.cfi_def_cfa_offset 24
	.cfi_register 65, 0
	stw 31,20(1)
	mr 31,4
	.cfi_offset 31, -4
	stw 0,28(1)
	stw 30,16(1)
	.loc 2 230 0
	lwz 0,208(5)
	.cfi_offset 30, -8
	.cfi_offset 65, 4
	cmpwi 7,0,-1
	beq- 7,.L134
	.loc 2 230 0 is_stmt 0 discriminator 1
	lwz 30,4(4)
	cmpwi 7,30,-1
	beq- 7,.L136
.LVL252:
.L134:
	.loc 2 234 0 is_stmt 1
	lwz 4,428(5)
	cmpwi 7,4,-1
	beq- 7,.L135
	.loc 2 234 0 is_stmt 0 discriminator 1
	lwz 30,4(31)
	cmpwi 7,30,-1
	beq- 7,.L137
.L135:
	.loc 2 238 0 is_stmt 1
	li 0,-1
	stw 0,440(5)
	.loc 2 239 0
	lwz 0,28(1)
	lwz 30,16(1)
	mtlr 0
	lwz 31,20(1)
.LVL253:
	addi 1,1,24
	.cfi_remember_state
.LCFI36:
	.cfi_def_cfa_offset 0
	.cfi_restore 31
	.cfi_restore 30
	blr
.LVL254:
.L137:
.LCFI37:
	.cfi_restore_state
	.loc 2 234 0 discriminator 2
	lwz 0,0(31)
	cmpwi 7,0,7
	beq- 7,.L135
	.loc 2 235 0
	lis 9,gameRenderWorld@ha
	lwz 3,gameRenderWorld@l(9)
	lwz 9,0(3)
	lwz 0,24(9)
	stw 5,8(1)
	mtctr 0
	bctrl
	.loc 2 236 0
	lwz 5,8(1)
	.loc 2 238 0
	li 0,-1
	.loc 2 236 0
	stw 30,428(5)
	.loc 2 238 0
	stw 0,440(5)
	.loc 2 239 0
	lwz 0,28(1)
	lwz 30,16(1)
	mtlr 0
	lwz 31,20(1)
.LVL255:
	addi 1,1,24
	.cfi_remember_state
	.cfi_restore 30
	.cfi_restore 31
.LCFI38:
	.cfi_def_cfa_offset 0
	blr
.LVL256:
.L136:
.LCFI39:
	.cfi_restore_state
	.loc 2 230 0 discriminator 2
	lwz 9,0(4)
	cmpwi 7,9,6
	beq- 7,.L134
	.loc 2 231 0
	lis 9,gameRenderWorld@ha
	mr 4,0
.LVL257:
	lwz 3,gameRenderWorld@l(9)
.LVL258:
	lwz 9,0(3)
	lwz 0,40(9)
	stw 5,8(1)
	mtctr 0
	bctrl
.LVL259:
	.loc 2 232 0
	lwz 5,8(1)
	stw 30,208(5)
	b .L134
	.cfi_endproc
.LFE2827:
	.size	_ZN10idEntityFx19CleanUpSingleActionERK16idFXSingleActionR15idFXLocalAction, .-_ZN10idEntityFx19CleanUpSingleActionERK16idFXSingleActionR15idFXLocalAction
	.align 2
	.globl _ZN10idEntityFx7CleanUpEv
	.type	_ZN10idEntityFx7CleanUpEv, @function
_ZN10idEntityFx7CleanUpEv:
.LFB2826:
	.loc 2 213 0
	.cfi_startproc
.LVL260:
	mflr 0
	stwu 1,-24(1)
.LCFI40:
	.cfi_def_cfa_offset 24
	.cfi_register 65, 0
	stw 31,20(1)
	mr 31,3
	.cfi_offset 31, -4
	stw 0,28(1)
	stw 28,8(1)
	stw 29,12(1)
	stw 30,16(1)
.LBB1841:
	.loc 2 214 0
	lwz 9,644(3)
	cmpwi 7,9,0
	beq- 7,.L138
	.cfi_offset 30, -8
	.cfi_offset 29, -12
	.cfi_offset 28, -16
	.cfi_offset 65, 4
.LVL261:
.LBB1842:
	.loc 2 217 0 discriminator 1
	lwz 0,8(9)
	cmpwi 7,0,0
	ble- 7,.L138
	.loc 2 217 0 is_stmt 0
	li 28,0
	li 29,0
	li 30,0
.LVL262:
.L140:
.LBB1843:
.LBB1844:
.LBB1845:
	.loc 5 573 0 is_stmt 1 discriminator 2
	lwz 4,20(9)
.LBE1845:
.LBE1844:
	.loc 2 220 0 discriminator 2
	mr 3,31
.LBB1846:
.LBB1847:
	.loc 5 589 0 discriminator 2
	lwz 5,660(31)
.LBE1847:
.LBE1846:
.LBE1843:
	.loc 2 217 0 discriminator 2
	addi 30,30,1
.LVL263:
.LBB1848:
	.loc 2 220 0 discriminator 2
	add 4,4,29
.LBE1848:
	.loc 2 217 0 discriminator 2
	addi 29,29,232
.LBB1849:
	.loc 2 220 0 discriminator 2
	add 5,5,28
.LBE1849:
	.loc 2 217 0 discriminator 2
	addi 28,28,448
.LBB1850:
	.loc 2 220 0 discriminator 2
	bl _ZN10idEntityFx19CleanUpSingleActionERK16idFXSingleActionR15idFXLocalAction
.LVL264:
.LBE1850:
	.loc 2 217 0 discriminator 2
	lwz 9,644(31)
	lwz 0,8(9)
	cmpw 7,0,30
	bgt+ 7,.L140
.LVL265:
.L138:
.LBE1842:
.LBE1841:
	.loc 2 222 0
	lwz 0,28(1)
	lwz 28,8(1)
	mtlr 0
	lwz 29,12(1)
	lwz 30,16(1)
	lwz 31,20(1)
.LVL266:
	addi 1,1,24
.LCFI41:
	.cfi_def_cfa_offset 0
	.cfi_restore 31
	.cfi_restore 30
	.cfi_restore 29
	.cfi_restore 28
	blr
	.cfi_endproc
.LFE2826:
	.size	_ZN10idEntityFx7CleanUpEv, .-_ZN10idEntityFx7CleanUpEv
	.align 2
	.globl _ZN10idEntityFx13Event_ClearFxEv
	.type	_ZN10idEntityFx13Event_ClearFxEv, @function
_ZN10idEntityFx13Event_ClearFxEv:
.LFB2843:
	.loc 2 624 0
	.cfi_startproc
.LVL267:
	mflr 0
	stwu 1,-40(1)
.LCFI42:
	.cfi_def_cfa_offset 40
	.cfi_register 65, 0
.LBB1897:
.LBB1898:
.LBB1899:
	.loc 2 626 0
	lis 9,g_skipFX+44@ha
.LBE1899:
.LBE1898:
.LBE1897:
	.loc 2 624 0
	stw 31,36(1)
	mr 31,3
	.cfi_offset 31, -4
	stw 0,44(1)
	stw 29,28(1)
	stw 30,32(1)
.LBB1917:
.LBB1901:
.LBB1900:
	.loc 16 142 0
	lwz 9,g_skipFX+44@l(9)
.LBE1900:
.LBE1901:
	.loc 2 626 0
	lwz 0,36(9)
	.cfi_offset 30, -8
	.cfi_offset 29, -12
	.cfi_offset 65, 4
	cmpwi 7,0,0
	beq- 7,.L155
.LVL268:
.L142:
.LBE1917:
	.loc 2 647 0
	lwz 0,44(1)
	lwz 29,28(1)
	mtlr 0
	lwz 30,32(1)
	lwz 31,36(1)
.LVL269:
	addi 1,1,40
	.cfi_remember_state
.LCFI43:
	.cfi_def_cfa_offset 0
	.cfi_restore 31
	.cfi_restore 30
	.cfi_restore 29
	blr
.LVL270:
.L155:
.LCFI44:
	.cfi_restore_state
.LBB1918:
.LBB1902:
.LBB1903:
	.loc 2 268 0
	bl _ZN10idEntityFx7CleanUpEv
.LVL271:
	.loc 2 269 0
	li 0,-1
	stw 0,636(31)
.LBE1903:
.LBE1902:
	.loc 2 631 0
	mr 3,31
.LBB1904:
	.loc 2 634 0
	addi 30,31,100
.LBE1904:
	.loc 2 631 0
	bl _ZN10idEntityFx7CleanUpEv
	.loc 2 632 0
	mr 3,31
	li 4,1
	bl _ZN8idEntity14BecomeInactiveEi
.LVL272:
.LBB1914:
.LBB1905:
.LBB1906:
.LBB1907:
.LBB1908:
	.loc 10 241 0
	lis 4,.LC16@ha
	mr 3,30
	la 4,.LC16@l(4)
	bl _ZNK6idDict7FindKeyEPKc
.LVL273:
	.loc 10 242 0
	cmpwi 0,3,0
	beq- 0,.L151
.LVL274:
.LBB1909:
	.loc 2 796 0
	lwz 9,4(3)
	lwz 3,4(9)
.LVL275:
.L144:
.LBE1909:
.LBE1908:
.LBE1907:
	.loc 10 257 0
	bl atoi
.LBE1906:
.LBE1905:
	.loc 2 634 0
	cmpwi 7,3,0
	bne- 7,.L156
.LVL276:
.LBE1914:
.LBE1918:
.LBB1919:
.LBB1920:
.LBB1921:
.LBB1922:
.LBB1923:
.LBB1924:
	.loc 10 241 0
	lis 29,.LC18@ha
	mr 3,30
	la 29,.LC18@l(29)
	mr 4,29
	bl _ZNK6idDict7FindKeyEPKc
.LVL277:
	.loc 10 242 0
	cmpwi 0,3,0
	beq- 0,.L152
.LVL278:
.LBB1925:
	.loc 2 796 0
	lwz 9,4(3)
	lwz 3,4(9)
.LVL279:
.L146:
.LBE1925:
.LBE1924:
.LBE1923:
	.loc 10 249 0
	bl atof
.LBE1922:
.LBE1921:
	.loc 2 637 0
	lis 9,.LC12@ha
.LBB1930:
.LBB1928:
	.loc 10 249 0
	frsp 1,1
.LBE1928:
.LBE1930:
	.loc 2 637 0
	lfs 0,.LC12@l(9)
	fcmpu 7,1,0
	beq- 7,.L157
.LVL280:
.L147:
.LBB1931:
.LBB1932:
.LBB1933:
.LBB1934:
.LBB1935:
	.loc 10 241 0
	mr 3,30
	mr 4,29
	bl _ZNK6idDict7FindKeyEPKc
.LVL281:
	.loc 10 242 0
	cmpwi 0,3,0
	beq- 0,.L154
.LVL282:
.LBB1936:
	.loc 2 796 0
	lwz 9,4(3)
	lwz 3,4(9)
.LVL283:
.L149:
.LBE1936:
.LBE1935:
.LBE1934:
	.loc 10 249 0
	bl atof
.LBE1933:
.LBE1932:
	.loc 2 639 0
	lis 9,.LC12@ha
.LBB1941:
.LBB1939:
	.loc 10 249 0
	frsp 1,1
.LBE1939:
.LBE1941:
	.loc 2 639 0
	lfs 0,.LC12@l(9)
	fcmpu 7,1,0
	beq- 7,.L158
.LVL284:
.LBB1942:
.LBB1943:
.LBB1944:
.LBB1945:
	.loc 15 71 0
	lis 9,gameLocal@ha
	lis 11,0x1
	la 9,gameLocal@l(9)
	ori 11,11,3533
	addis 9,9,0x1
.LBE1945:
.LBE1944:
.LBE1943:
.LBE1942:
	.loc 2 643 0
	lis 4,EV_Activate@ha
.LBB1958:
.LBB1954:
.LBB1950:
.LBB1946:
	.loc 15 71 0
	lwz 0,-32064(9)
.LBE1946:
.LBE1950:
.LBE1954:
.LBE1958:
	.loc 2 643 0
	mr 3,31
	la 4,EV_Activate@l(4)
	addi 5,1,8
.LBB1959:
.LBB1955:
.LBB1951:
.LBB1947:
	.loc 15 71 0
	mullw 11,11,0
.LBE1947:
.LBE1951:
	.loc 15 83 0
	lis 0,0x4330
	stw 0,16(1)
.LBB1952:
.LBB1948:
	.loc 15 71 0
	addi 0,11,1
	.loc 15 72 0
	rlwinm 11,0,0,17,31
.LBE1948:
.LBE1952:
	.loc 15 83 0
	xoris 11,11,0x8000
	stw 11,20(1)
	lis 11,.LC10@ha
	lfs 0,.LC10@l(11)
	lis 11,.LC11@ha
	lfd 13,16(1)
.LBB1953:
.LBB1949:
	.loc 15 71 0
	stw 0,-32064(9)
.LBE1949:
.LBE1953:
.LBE1955:
.LBE1959:
	.loc 2 643 0
	li 0,101
.LBB1960:
.LBB1956:
	.loc 15 83 0
	fsub 13,13,0
	lfs 0,.LC11@l(11)
.LBE1956:
.LBE1960:
	.loc 2 643 0
	stw 0,8(1)
	stw 31,12(1)
.LBB1961:
.LBB1957:
	.loc 15 83 0
	frsp 13,13
	fmuls 0,13,0
.LBE1957:
.LBE1961:
	.loc 2 643 0
	fmuls 1,0,1
.LVL285:
	bl _ZN7idClass12PostEventSecEPK10idEventDeff10idEventArg
	b .L142
.LVL286:
.L157:
.LBE1931:
.LBB1963:
.LBB1964:
.LBB1965:
.LBB1966:
	.loc 10 241 0
	lis 4,.LC15@ha
	mr 3,30
	la 4,.LC15@l(4)
	bl _ZNK6idDict7FindKeyEPKc
.LVL287:
	.loc 10 242 0
	cmpwi 0,3,0
	beq- 0,.L153
.LVL288:
.LBB1967:
	.loc 2 796 0
	lwz 9,4(3)
	lwz 3,4(9)
.LVL289:
.L148:
.LBE1967:
.LBE1966:
.LBE1965:
	.loc 10 257 0
	bl atoi
.LBE1964:
.LBE1963:
	.loc 2 637 0
	cmpwi 7,3,0
	bne- 7,.L142
	b .L147
.LVL290:
.L156:
.LBE1920:
.LBE1919:
.LBB1976:
.LBB1915:
	.loc 2 635 0
	lis 4,EV_Activate@ha
	li 0,101
	mr 3,31
	addi 6,1,8
	la 4,EV_Activate@l(4)
	li 5,0
	stw 0,8(1)
	stw 31,12(1)
	bl _ZN7idClass11PostEventMSEPK10idEventDefi10idEventArg
.LBE1915:
.LBE1976:
	.loc 2 647 0
	lwz 0,44(1)
	lwz 29,28(1)
	mtlr 0
	lwz 30,32(1)
.LVL291:
	lwz 31,36(1)
.LVL292:
	addi 1,1,40
	.cfi_remember_state
	.cfi_restore 29
	.cfi_restore 30
	.cfi_restore 31
.LCFI45:
	.cfi_def_cfa_offset 0
	blr
.LVL293:
.L151:
.LCFI46:
	.cfi_restore_state
.LBB1977:
.LBB1916:
.LBB1913:
.LBB1912:
.LBB1911:
.LBB1910:
	.loc 10 245 0
	lis 3,.LC7@ha
.LVL294:
	la 3,.LC7@l(3)
	b .L144
.LVL295:
.L158:
.LBE1910:
.LBE1911:
.LBE1912:
.LBE1913:
.LBE1916:
.LBE1977:
.LBB1978:
.LBB1975:
.LBB1971:
	.loc 2 640 0
	lis 9,.LC19@ha
	lis 4,EV_Remove@ha
	lfs 1,.LC19@l(9)
	mr 3,31
	la 4,EV_Remove@l(4)
	bl _ZN7idClass12PostEventSecEPK10idEventDeff
	b .L142
.LVL296:
.L152:
.LBE1971:
.LBB1972:
.LBB1929:
.LBB1927:
.LBB1926:
	.loc 10 245 0
	lis 3,.LC7@ha
.LVL297:
	la 3,.LC7@l(3)
	b .L146
.LVL298:
.L154:
.LBE1926:
.LBE1927:
.LBE1929:
.LBE1972:
.LBB1973:
.LBB1962:
.LBB1940:
.LBB1938:
.LBB1937:
	lis 3,.LC7@ha
.LVL299:
	la 3,.LC7@l(3)
	b .L149
.LVL300:
.L153:
.LBE1937:
.LBE1938:
.LBE1940:
.LBE1962:
.LBE1973:
.LBB1974:
.LBB1970:
.LBB1969:
.LBB1968:
	lis 3,.LC7@ha
.LVL301:
	la 3,.LC7@l(3)
	b .L148
.LBE1968:
.LBE1969:
.LBE1970:
.LBE1974:
.LBE1975:
.LBE1978:
	.cfi_endproc
.LFE2843:
	.size	_ZN10idEntityFx13Event_ClearFxEv, .-_ZN10idEntityFx13Event_ClearFxEv
	.align 2
	.globl _ZN10idEntityFx5StartEi
	.type	_ZN10idEntityFx5StartEi, @function
_ZN10idEntityFx5StartEi:
.LFB2828:
	.loc 2 246 0
	.cfi_startproc
.LVL302:
.LBB1979:
	.loc 2 247 0
	lwz 9,644(3)
	cmpwi 7,9,0
	beqlr- 7
	.loc 2 250 0
	stw 4,636(3)
.LVL303:
.LBB1980:
	.loc 2 251 0
	lwz 0,8(9)
	cmpwi 7,0,0
	blelr- 7
	li 10,0
	li 11,0
.LBB1981:
	.loc 2 254 0
	li 0,0
	.loc 2 256 0
	li 8,-1
.LVL304:
.L161:
.LBB1982:
.LBB1983:
	.loc 5 589 0 discriminator 2
	lwz 9,660(3)
.LBE1983:
.LBE1982:
.LBE1981:
	.loc 2 251 0 discriminator 2
	addi 11,11,1
.LVL305:
.LBB1986:
.LBB1985:
.LBB1984:
	.loc 5 589 0 discriminator 2
	add 9,9,10
.LVL306:
.LBE1984:
.LBE1985:
.LBE1986:
	.loc 2 251 0 discriminator 2
	addi 10,10,448
.LBB1987:
	.loc 2 253 0 discriminator 2
	stw 4,440(9)
	.loc 2 254 0 discriminator 2
	stb 0,444(9)
	.loc 2 255 0 discriminator 2
	stb 0,445(9)
	.loc 2 256 0 discriminator 2
	stw 8,436(9)
	.loc 2 257 0 discriminator 2
	stb 0,446(9)
	.loc 2 258 0 discriminator 2
	stb 0,447(9)
.LBE1987:
	.loc 2 796 0 discriminator 2
	lwz 9,644(3)
	.loc 2 251 0 discriminator 2
	lwz 9,8(9)
	cmpw 7,9,11
	bgt+ 7,.L161
	blr
.LBE1980:
.LBE1979:
	.cfi_endproc
.LFE2828:
	.size	_ZN10idEntityFx5StartEi, .-_ZN10idEntityFx5StartEi
	.align 2
	.globl _ZN10idEntityFx16ReadFromSnapshotERK13idBitMsgDelta
	.type	_ZN10idEntityFx16ReadFromSnapshotERK13idBitMsgDelta, @function
_ZN10idEntityFx16ReadFromSnapshotERK13idBitMsgDelta:
.LFB2847:
	.loc 2 735 0
	.cfi_startproc
.LVL307:
	mflr 0
	stwu 1,-48(1)
.LCFI47:
	.cfi_def_cfa_offset 48
	.cfi_register 65, 0
	stw 28,32(1)
	mr 28,4
	.cfi_offset 28, -16
	stw 0,52(1)
	stw 29,36(1)
	stw 30,40(1)
.LBB1988:
	.loc 2 740 0
	lis 30,gameLocal@ha
	.cfi_offset 30, -8
	.cfi_offset 29, -12
	.cfi_offset 65, 4
.LBE1988:
	.loc 2 735 0
	stw 31,44(1)
	mr 31,3
	.cfi_offset 31, -4
	stw 27,28(1)
.LBB2005:
	.loc 2 738 0
	.cfi_offset 27, -20
	bl _ZNK8idEntity10GetPhysicsEv
.LVL308:
	lwz 9,0(3)
	mr 4,28
	.loc 2 740 0
	la 30,gameLocal@l(30)
	.loc 2 738 0
	lwz 0,268(9)
	mtctr 0
	bctrl
	.loc 2 739 0
	mr 4,28
	mr 3,31
	bl _ZN8idEntity20ReadBindFromSnapshotERK13idBitMsgDelta
.LVL309:
.LBB1989:
.LBB1990:
	.loc 4 622 0
	mr 3,28
	li 4,32
	bl _ZNK13idBitMsgDelta8ReadBitsEi
.LBE1990:
.LBE1989:
	.loc 2 740 0
	li 4,6
.LBB1992:
.LBB1991:
	.loc 4 622 0
	mr 5,3
.LBE1991:
.LBE1992:
	.loc 2 740 0
	mr 3,30
	bl _ZN11idGameLocal15ClientRemapDeclE10declType_ti
.LBB1993:
.LBB1994:
	.loc 4 622 0
	li 4,32
.LBE1994:
.LBE1993:
	.loc 2 740 0
	mr 29,3
.LVL310:
.LBB1997:
.LBB1995:
	.loc 4 622 0
	mr 3,28
.LVL311:
	bl _ZNK13idBitMsgDelta8ReadBitsEi
.LBE1995:
.LBE1997:
.LBB1998:
	.loc 2 743 0
	cmpwi 7,29,-1
.LBE1998:
.LBB2002:
.LBB1996:
	.loc 4 622 0
	mr 28,3
.LVL312:
.LBE1996:
.LBE2002:
.LBB2003:
	.loc 2 743 0
	beq- 7,.L163
	.loc 2 743 0 is_stmt 0 discriminator 1
	cmpwi 7,3,0
	ble- 7,.L163
	.loc 2 743 0 discriminator 2
	lwz 27,644(31)
	cmpwi 7,27,0
	beq- 7,.L167
.LVL313:
.L163:
.LBE2003:
.LBE2005:
	.loc 2 758 0 is_stmt 1
	lwz 0,52(1)
	lwz 27,28(1)
	mtlr 0
	lwz 28,32(1)
.LVL314:
	lwz 29,36(1)
.LVL315:
	lwz 30,40(1)
	lwz 31,44(1)
.LVL316:
	addi 1,1,48
	.cfi_remember_state
.LCFI48:
	.cfi_def_cfa_offset 0
	.cfi_restore 31
	.cfi_restore 30
	.cfi_restore 29
	.cfi_restore 28
	.cfi_restore 27
	blr
.LVL317:
.L167:
.LCFI49:
	.cfi_restore_state
.LBB2006:
.LBB2004:
	.loc 2 743 0 discriminator 3
	lwz 0,636(31)
	cmpwi 7,0,0
	bge+ 7,.L163
.LBB1999:
	.loc 2 744 0
	lis 4,.LC20@ha
	lis 5,.LC21@ha
	addi 3,31,100
.LVL318:
	la 4,.LC20@l(4)
	la 5,.LC21@l(5)
	addi 6,1,8
	bl _ZNK6idDict6GetIntEPKcS1_Ri
	.loc 2 745 0
	addis 9,30,0x25
	lwz 9,2004(9)
.LVL319:
	lwz 0,8(1)
	subf 9,28,9
	cmpw 7,9,0
	ble- 7,.L165
	.loc 2 747 0
	stw 27,636(31)
	.loc 2 748 0
	b .L163
.L165:
	.loc 2 750 0
	lis 9,declManager@ha
	li 4,6
	lwz 3,declManager@l(9)
	mr 5,29
	li 6,1
	lwz 9,0(3)
	lwz 0,76(9)
	mtctr 0
	bctrl
.LVL320:
	.loc 2 751 0
	mr. 27,3
	beq- 0,.L168
.LVL321:
.L166:
	.loc 2 754 0
	stw 27,644(31)
	.loc 2 796 0
	lwz 3,4(27)
.LBB2000:
.LBB2001:
	.loc 3 140 0
	lwz 9,0(3)
	lwz 0,8(9)
	mtctr 0
	bctrl
	mr 4,3
.LBE2001:
.LBE2000:
	.loc 2 755 0
	mr 3,31
	bl _ZN10idEntityFx5SetupEPKc
	.loc 2 756 0
	mr 3,31
	mr 4,28
	bl _ZN10idEntityFx5StartEi
	b .L163
.L168:
	.loc 2 752 0
	lis 4,.LC22@ha
	mr 3,30
	la 4,.LC22@l(4)
	mr 5,29
	crxor 6,6,6
	bl _ZNK11idGameLocal5ErrorEPKcz
	b .L166
.LBE1999:
.LBE2004:
.LBE2006:
	.cfi_endproc
.LFE2847:
	.size	_ZN10idEntityFx16ReadFromSnapshotERK13idBitMsgDelta, .-_ZN10idEntityFx16ReadFromSnapshotERK13idBitMsgDelta
	.align 2
	.globl _ZN10idEntityFx4StopEv
	.type	_ZN10idEntityFx4StopEv, @function
_ZN10idEntityFx4StopEv:
.LFB2829:
	.loc 2 267 0
	.cfi_startproc
.LVL322:
	mflr 0
	stwu 1,-16(1)
.LCFI50:
	.cfi_def_cfa_offset 16
	.cfi_register 65, 0
	stw 31,12(1)
	mr 31,3
	.cfi_offset 31, -4
	stw 0,20(1)
	.loc 2 268 0
	.cfi_offset 65, 4
	bl _ZN10idEntityFx7CleanUpEv
.LVL323:
	.loc 2 269 0
	li 0,-1
	stw 0,636(31)
	.loc 2 270 0
	lwz 0,20(1)
	lwz 31,12(1)
.LVL324:
	mtlr 0
	addi 1,1,16
.LCFI51:
	.cfi_def_cfa_offset 0
	.cfi_restore 31
	blr
	.cfi_endproc
.LFE2829:
	.size	_ZN10idEntityFx4StopEv, .-_ZN10idEntityFx4StopEv
	.align 2
	.globl _ZN10idEntityFx8DurationEv
	.type	_ZN10idEntityFx8DurationEv, @function
_ZN10idEntityFx8DurationEv:
.LFB2830:
	.loc 2 277 0
	.cfi_startproc
.LVL325:
	stwu 1,-16(1)
.LCFI52:
	.cfi_def_cfa_offset 16
.LBB2007:
	.loc 2 280 0
	lwz 9,644(3)
	.loc 2 281 0
	li 3,0
.LVL326:
	.loc 2 280 0
	cmpwi 7,9,0
	beq- 7,.L171
.LVL327:
	.loc 2 796 0 discriminator 1
	lwz 0,8(9)
.LBB2008:
	.loc 2 283 0 discriminator 1
	cmpwi 7,0,0
	ble- 7,.L171
	.loc 2 283 0 is_stmt 0
	lwz 10,20(9)
.LBB2009:
	.loc 2 285 0 is_stmt 1
	mtctr 0
	lis 9,.LC23@ha
	lfs 12,.LC23@l(9)
.LBE2009:
	.loc 2 283 0
	li 9,0
.LVL328:
.L173:
.LBB2014:
.LBB2010:
.LBB2011:
	.loc 5 573 0
	add 11,10,9
.LVL329:
.LBE2011:
.LBE2010:
.LBE2014:
	.loc 2 283 0
	addi 9,9,232
.LBB2015:
	.loc 2 285 0
	lfs 13,104(11)
	lfs 0,108(11)
	addi 11,1,8
.LVL330:
	fadds 0,13,0
.LVL331:
	fmuls 0,0,12
	fctiwz 0,0
	stfiwx 0,0,11
	lwz 0,8(1)
.LBB2013:
.LBB2012:
	.loc 5 573 0
	cmpw 7,3,0
	bge- 7,.L172
	mr 3,0
.L172:
.LVL332:
.LBE2012:
.LBE2013:
.LBE2015:
	.loc 2 283 0
	bdnz .L173
.LVL333:
.L171:
.LBE2008:
.LBE2007:
	.loc 2 292 0
	addi 1,1,16
.LCFI53:
	.cfi_def_cfa_offset 0
	blr
	.cfi_endproc
.LFE2830:
	.size	_ZN10idEntityFx8DurationEv, .-_ZN10idEntityFx8DurationEv
	.align 2
	.globl _ZN10idEntityFx13Event_TriggerEP8idEntity
	.type	_ZN10idEntityFx13Event_TriggerEP8idEntity, @function
_ZN10idEntityFx13Event_TriggerEP8idEntity:
.LFB2844:
	.loc 2 654 0
	.cfi_startproc
.LVL334:
	mflr 0
	stwu 1,-48(1)
.LCFI54:
	.cfi_def_cfa_offset 48
	.cfi_register 65, 0
.LBB2036:
.LBB2037:
.LBB2038:
	.loc 2 656 0
	lis 9,g_skipFX+44@ha
.LBE2038:
.LBE2037:
.LBE2036:
	.loc 2 654 0
	stw 29,36(1)
	mr 29,4
	.cfi_offset 29, -12
	stw 31,44(1)
	mr 31,3
	.cfi_offset 31, -4
	stw 0,52(1)
	stw 27,28(1)
	stw 28,32(1)
	stw 30,40(1)
.LBB2041:
.LBB2040:
.LBB2039:
	.loc 16 142 0
	lwz 9,g_skipFX+44@l(9)
.LBE2039:
.LBE2040:
	.loc 2 656 0
	lwz 0,36(9)
	.cfi_offset 30, -8
	.cfi_offset 28, -16
	.cfi_offset 27, -20
	.cfi_offset 65, 4
	cmpwi 7,0,0
	bne- 7,.L177
	.loc 2 663 0
	lis 30,gameLocal@ha
	lwz 0,640(3)
	la 30,gameLocal@l(30)
	addis 30,30,0x25
	lwz 9,2004(30)
	cmpw 7,9,0
	bge- 7,.L186
.L177:
.LBE2041:
	.loc 2 682 0
	lwz 0,52(1)
	lwz 27,28(1)
	mtlr 0
	lwz 28,32(1)
	lwz 29,36(1)
	lwz 30,40(1)
	lwz 31,44(1)
	addi 1,1,48
	.cfi_remember_state
.LCFI55:
	.cfi_def_cfa_offset 0
	.cfi_restore 31
	.cfi_restore 30
	.cfi_restore 29
	.cfi_restore 28
	.cfi_restore 27
	blr
.L186:
.LCFI56:
	.cfi_restore_state
.LVL335:
.LBB2042:
.LBB2043:
	.loc 2 667 0
	addi 28,3,100
.LVL336:
.LBB2044:
.LBB2045:
	.loc 10 221 0
	lis 4,.LC14@ha
.LVL337:
	mr 3,28
.LVL338:
	la 4,.LC14@l(4)
	bl _ZNK6idDict7FindKeyEPKc
.LVL339:
	.loc 10 222 0
	cmpwi 0,3,0
	beq- 0,.L187
.LVL340:
.LBB2046:
	.loc 2 796 0
	lwz 9,4(3)
.LBE2046:
.LBE2045:
.LBE2044:
	.loc 2 668 0
	mr 3,31
.LVL341:
	.loc 2 670 0
	lis 27,.LANCHOR0@ha
	.loc 2 668 0
	lwz 4,4(9)
	.loc 2 670 0
	la 27,.LANCHOR0@l(27)
	.loc 2 668 0
	bl _ZN10idEntityFx5SetupEPKc
.LVL342:
	.loc 2 669 0
	lwz 4,2004(30)
	mr 3,31
	bl _ZN10idEntityFx5StartEi
	.loc 2 670 0
	mr 3,31
	bl _ZN10idEntityFx8DurationEv
	addi 4,27,184
	mr 5,3
	mr 3,31
	bl _ZN7idClass11PostEventMSEPK10idEventDefi
	.loc 2 671 0
	mr 3,31
	li 4,1
	bl _ZN8idEntity12BecomeActiveEi
.L179:
.LVL343:
.LBB2047:
.LBB2048:
.LBB2049:
.LBB2050:
	.loc 10 241 0
	lis 4,.LC24@ha
	mr 3,28
	la 4,.LC24@l(4)
	bl _ZNK6idDict7FindKeyEPKc
.LVL344:
	.loc 10 242 0
	cmpwi 0,3,0
	beq- 0,.L183
.LVL345:
.LBB2051:
	.loc 2 796 0
	lwz 9,4(3)
	lwz 3,4(9)
.LVL346:
.L180:
.LBE2051:
.LBE2050:
.LBE2049:
	.loc 10 249 0
	bl atof
.LBE2048:
.LBE2047:
	.loc 2 675 0
	lis 9,.LC12@ha
.LBB2056:
.LBB2054:
	.loc 10 249 0
	frsp 1,1
.LBE2054:
.LBE2056:
	.loc 2 675 0
	lfs 0,.LC12@l(9)
	fcmpu 7,1,0
	bne- 7,.L188
	.loc 2 679 0
	lwz 9,2004(30)
	addi 0,9,1
	stw 0,640(31)
.L182:
.LVL347:
	.loc 2 681 0
	li 0,101
	mr 3,31
	addi 4,27,248
	addi 5,1,8
	stw 0,8(1)
	stw 29,12(1)
	bl _ZN7idClass12PostEventSecEPK10idEventDeff10idEventArg
.LBE2043:
.LBE2042:
	.loc 2 682 0
	lwz 0,52(1)
	lwz 27,28(1)
	mtlr 0
	lwz 28,32(1)
.LVL348:
	lwz 29,36(1)
.LVL349:
	lwz 30,40(1)
	lwz 31,44(1)
.LVL350:
	addi 1,1,48
	.cfi_remember_state
	.cfi_restore 27
	.cfi_restore 28
	.cfi_restore 29
	.cfi_restore 30
	.cfi_restore 31
.LCFI57:
	.cfi_def_cfa_offset 0
	blr
.LVL351:
.L188:
.LCFI58:
	.cfi_restore_state
.LBB2063:
.LBB2062:
	.loc 2 676 0
	lis 9,_ZN6idMath8M_SEC2MSE@ha
.LBB2057:
.LBB2058:
	.loc 8 825 0
	addi 11,1,16
.LBE2058:
.LBE2057:
	.loc 2 676 0
	lfs 0,_ZN6idMath8M_SEC2MSE@l(9)
	lwz 9,2004(30)
	fmuls 0,1,0
.LBB2060:
.LBB2059:
	.loc 8 825 0
	fctiwz 0,0
	stfiwx 0,0,11
	lwz 0,16(1)
.LBE2059:
.LBE2060:
	.loc 2 676 0
	add 0,9,0
	stw 0,640(31)
	b .L182
.LVL352:
.L187:
	lis 27,.LANCHOR0@ha
	la 27,.LANCHOR0@l(27)
	b .L179
.LVL353:
.L183:
.LBB2061:
.LBB2055:
.LBB2053:
.LBB2052:
	.loc 10 245 0
	lis 3,.LC7@ha
.LVL354:
	la 3,.LC7@l(3)
	b .L180
.LBE2052:
.LBE2053:
.LBE2055:
.LBE2061:
.LBE2062:
.LBE2063:
	.cfi_endproc
.LFE2844:
	.size	_ZN10idEntityFx13Event_TriggerEP8idEntity, .-_ZN10idEntityFx13Event_TriggerEP8idEntity
	.align 2
	.globl _ZN10idEntityFx4DoneEv
	.type	_ZN10idEntityFx4DoneEv, @function
_ZN10idEntityFx4DoneEv:
.LFB2831:
	.loc 2 300 0
	.cfi_startproc
.LVL355:
	mflr 0
	stwu 1,-16(1)
.LCFI59:
	.cfi_def_cfa_offset 16
	.cfi_register 65, 0
	stw 30,8(1)
	stw 0,20(1)
	.loc 2 304 0
	li 0,0
	.cfi_offset 65, 4
	.cfi_offset 30, -8
	.loc 2 300 0
	stw 31,12(1)
	.loc 2 301 0
	lwz 31,636(3)
	.cfi_offset 31, -4
	cmpwi 7,31,0
	ble- 7,.L190
	.loc 2 301 0 is_stmt 0 discriminator 1
	lis 9,gameLocal+2426836@ha
	lwz 30,gameLocal+2426836@l(9)
	bl _ZN10idEntityFx8DurationEv
.LVL356:
	add 3,31,3
	.loc 2 300 0 is_stmt 1 discriminator 1
	cmpw 7,30,3
	mfcr 0
	rlwinm 0,0,30,1
.L190:
	.loc 2 305 0
	mr 3,0
	lwz 0,20(1)
	lwz 30,8(1)
	mtlr 0
	lwz 31,12(1)
	addi 1,1,16
.LCFI60:
	.cfi_def_cfa_offset 0
	.cfi_restore 31
	.cfi_restore 30
	blr
	.cfi_endproc
.LFE2831:
	.size	_ZN10idEntityFx4DoneEv, .-_ZN10idEntityFx4DoneEv
	.align 2
	.globl _ZN10idEntityFx9ApplyFadeERK16idFXSingleActionR15idFXLocalActionii
	.type	_ZN10idEntityFx9ApplyFadeERK16idFXSingleActionR15idFXLocalActionii, @function
_ZN10idEntityFx9ApplyFadeERK16idFXSingleActionR15idFXLocalActionii:
.LFB2832:
	.loc 2 312 0
	.cfi_startproc
.LVL357:
	mflr 0
	stwu 1,-48(1)
.LCFI61:
	.cfi_def_cfa_offset 48
	.cfi_register 65, 0
.LBB2064:
	.loc 2 313 0
	lis 9,.LC12@ha
.LBE2064:
	.loc 2 312 0
	stw 30,32(1)
	mr 30,5
	.cfi_offset 30, -16
	stw 31,36(1)
	mr 31,4
	.cfi_offset 31, -12
	stw 0,52(1)
	stfd 31,40(1)
	stw 29,28(1)
.LBB2067:
	.loc 2 313 0
	lfs 13,.LC12@l(9)
	lfs 0,120(4)
	fcmpu 7,0,13
	bne- 7,.L193
	.cfi_offset 29, -20
	.cfi_offset 63, -8
	.cfi_offset 65, 4
	.loc 2 313 0 is_stmt 0 discriminator 1
	lfs 12,124(4)
	fcmpu 7,12,13
	beq- 7,.L192
.LBB2065:
	.loc 2 314 0 is_stmt 1
	subf 7,7,6
.LVL358:
	lis 0,0x4330
	xoris 7,7,0x8000
	stw 0,8(1)
	stw 7,12(1)
	lis 9,.LC10@ha
	lfs 13,.LC10@l(9)
	lis 9,.LC23@ha
	lfd 31,8(1)
	.loc 2 315 0
	lis 29,.LC25@ha
	.loc 2 314 0
	fsub 13,31,13
	lfs 31,.LC23@l(9)
	fmuls 31,12,31
	frsp 13,13
	fdivs 31,13,31
.LVL359:
	.loc 2 315 0
	lfs 13,.LC25@l(29)
	fcmpu 7,31,13
	bgt- 7,.L212
.LVL360:
.L197:
	.loc 2 318 0
	lwz 4,428(30)
.LVL361:
	cmpwi 7,4,-1
	beq- 7,.L198
	.loc 2 319 0
	lis 9,.LC12@ha
	lfs 13,.LC12@l(9)
	fcmpu 7,0,13
	fmr 0,31
	beq- 7,.L213
	.loc 2 319 0 is_stmt 0 discriminator 3
	stfs 0,336(30)
	.loc 2 320 0 is_stmt 1 discriminator 3
	lis 9,.LC12@ha
	lfs 13,.LC12@l(9)
	fmr 0,31
	lfs 12,120(31)
	fcmpu 7,12,13
	beq- 7,.L214
.L200:
	stfs 0,340(30)
	.loc 2 321 0 discriminator 3
	lis 9,.LC12@ha
	lfs 13,.LC12@l(9)
	fmr 0,31
	lfs 12,120(31)
	fcmpu 7,12,13
	beq- 7,.L215
.L201:
	.loc 2 323 0 discriminator 3
	lis 9,gameRenderWorld@ha
	.loc 2 321 0 discriminator 3
	stfs 0,344(30)
	.loc 2 323 0 discriminator 3
	lwz 3,gameRenderWorld@l(9)
.LVL362:
	addi 5,30,212
.LVL363:
	lwz 9,0(3)
	lwz 0,20(9)
	mtctr 0
	bctrl
.LVL364:
.L198:
	.loc 2 325 0
	lwz 4,208(30)
	cmpwi 7,4,-1
	beq- 7,.L192
	.loc 2 326 0
	lis 9,.LC12@ha
	lfs 13,120(31)
	lfs 0,.LC12@l(9)
	fcmpu 7,13,0
	lfs 13,160(31)
	fmr 0,31
	beq- 7,.L216
	.loc 2 326 0 is_stmt 0 discriminator 3
	fmuls 13,13,0
	.loc 2 327 0 is_stmt 1 discriminator 3
	lis 9,.LC12@ha
	lfs 12,.LC12@l(9)
	fmr 0,31
	.loc 2 326 0 discriminator 3
	stfs 13,156(30)
	.loc 2 327 0 discriminator 3
	lfs 11,120(31)
	lfs 13,164(31)
	fcmpu 7,11,12
	beq- 7,.L217
.L203:
	fmuls 0,13,0
	.loc 2 328 0 discriminator 3
	lis 9,.LC12@ha
	lfs 13,.LC12@l(9)
	.loc 2 327 0 discriminator 3
	stfs 0,160(30)
	.loc 2 328 0 discriminator 3
	lfs 12,120(31)
	lfs 0,168(31)
	fcmpu 7,12,13
	beq- 7,.L218
.L204:
	fmuls 31,0,31
.LVL365:
	.loc 2 330 0 discriminator 3
	lis 9,gameRenderWorld@ha
	lwz 9,gameRenderWorld@l(9)
	mr 5,30
	.loc 2 328 0 discriminator 3
	stfs 31,164(30)
	.loc 2 330 0 discriminator 3
	mr 3,9
	lwz 9,0(9)
	lwz 0,36(9)
	mtctr 0
	bctrl
.L192:
.LBE2065:
.LBE2067:
	.loc 2 333 0
	lwz 0,52(1)
	lwz 29,28(1)
	mtlr 0
	lwz 30,32(1)
.LVL366:
	lwz 31,36(1)
.LVL367:
	lfd 31,40(1)
	addi 1,1,48
	.cfi_remember_state
.LCFI62:
	.cfi_def_cfa_offset 0
	.cfi_restore 63
	.cfi_restore 31
	.cfi_restore 30
	.cfi_restore 29
	blr
.LVL368:
.L193:
.LCFI63:
	.cfi_restore_state
.LBB2068:
.LBB2066:
	.loc 2 314 0
	subf 7,7,6
.LVL369:
	lis 0,0x4330
	xoris 7,7,0x8000
	stw 0,16(1)
	stw 7,20(1)
	lis 9,.LC10@ha
	lfs 13,.LC10@l(9)
	lis 9,.LC23@ha
	lfd 31,16(1)
	.loc 2 315 0
	lis 29,.LC25@ha
	.loc 2 314 0
	fsub 13,31,13
	lfs 31,.LC23@l(9)
	fmuls 31,0,31
	frsp 13,13
	fdivs 31,13,31
.LVL370:
	.loc 2 315 0
	lfs 13,.LC25@l(29)
	fcmpu 7,31,13
	bng- 7,.L197
.L212:
	.loc 2 316 0
	fmr 31,13
.LVL371:
	b .L197
.LVL372:
.L218:
	.loc 2 328 0 discriminator 2
	lfs 13,.LC25@l(29)
	.loc 2 330 0 discriminator 2
	lis 9,gameRenderWorld@ha
	lwz 9,gameRenderWorld@l(9)
	mr 5,30
	.loc 2 328 0 discriminator 2
	fsubs 31,13,31
.LVL373:
	.loc 2 330 0 discriminator 2
	mr 3,9
	.loc 2 328 0 discriminator 2
	fmuls 31,0,31
	stfs 31,164(30)
	.loc 2 330 0 discriminator 2
	lwz 9,0(9)
	lwz 0,36(9)
	mtctr 0
	bctrl
	b .L192
.LVL374:
.L217:
	.loc 2 327 0 discriminator 2
	lfs 0,.LC25@l(29)
.LVL375:
	.loc 2 328 0 discriminator 2
	lis 9,.LC12@ha
	.loc 2 327 0 discriminator 2
	fsubs 0,0,31
	fmuls 0,13,0
	.loc 2 328 0 discriminator 2
	lfs 13,.LC12@l(9)
	.loc 2 327 0 discriminator 2
	stfs 0,160(30)
	.loc 2 328 0 discriminator 2
	lfs 12,120(31)
	lfs 0,168(31)
	fcmpu 7,12,13
	bne- 7,.L204
	b .L218
.L216:
	.loc 2 326 0 discriminator 2
	lfs 0,.LC25@l(29)
	.loc 2 327 0 discriminator 2
	lis 9,.LC12@ha
	lfs 12,.LC12@l(9)
	.loc 2 326 0 discriminator 2
	fsubs 0,0,31
	fmuls 13,13,0
	.loc 2 327 0 discriminator 2
	fmr 0,31
	.loc 2 326 0 discriminator 2
	stfs 13,156(30)
	.loc 2 327 0 discriminator 2
	lfs 11,120(31)
	lfs 13,164(31)
	fcmpu 7,11,12
	bne- 7,.L203
	b .L217
.LVL376:
.L215:
	.loc 2 321 0 discriminator 2
	lfs 0,.LC25@l(29)
	fsubs 0,0,31
	b .L201
.L214:
	.loc 2 320 0 discriminator 2
	lfs 0,.LC25@l(29)
	.loc 2 321 0 discriminator 2
	lis 9,.LC12@ha
	lfs 13,.LC12@l(9)
	.loc 2 320 0 discriminator 2
	fsubs 0,0,31
	stfs 0,340(30)
	.loc 2 321 0 discriminator 2
	fmr 0,31
	lfs 12,120(31)
	fcmpu 7,12,13
	bne- 7,.L201
	b .L215
.L213:
	.loc 2 319 0 discriminator 2
	lfs 0,.LC25@l(29)
	.loc 2 320 0 discriminator 2
	lis 9,.LC12@ha
	lfs 13,.LC12@l(9)
	.loc 2 319 0 discriminator 2
	fsubs 0,0,31
	stfs 0,336(30)
	.loc 2 320 0 discriminator 2
	fmr 0,31
	lfs 12,120(31)
	fcmpu 7,12,13
	bne- 7,.L200
	b .L214
.LBE2066:
.LBE2068:
	.cfi_endproc
.LFE2832:
	.size	_ZN10idEntityFx9ApplyFadeERK16idFXSingleActionR15idFXLocalActionii, .-_ZN10idEntityFx9ApplyFadeERK16idFXSingleActionR15idFXLocalActionii
	.section	.text._ZN6idListI10idKeyValueE5ClearEv,"axG",@progbits,_ZN6idListI10idKeyValueE5ClearEv,comdat
	.align 2
	.weak	_ZN6idListI10idKeyValueE5ClearEv
	.type	_ZN6idListI10idKeyValueE5ClearEv, @function
_ZN6idListI10idKeyValueE5ClearEv:
.LFB3100:
	.loc 5 192 0
	.cfi_startproc
.LVL377:
	mflr 0
	stwu 1,-16(1)
.LCFI64:
	.cfi_def_cfa_offset 16
	.cfi_register 65, 0
	stw 31,12(1)
	mr 31,3
	.cfi_offset 31, -4
	stw 0,20(1)
	.loc 5 193 0
	lwz 3,12(3)
.LVL378:
	cmpwi 7,3,0
	beq- 7,.L220
	.cfi_offset 65, 4
	.loc 5 194 0 discriminator 1
	bl _ZdaPv
.L220:
	.loc 5 197 0
	li 0,0
	stw 0,12(31)
	.loc 5 198 0
	stw 0,0(31)
	.loc 5 199 0
	stw 0,4(31)
	.loc 5 200 0
	lwz 0,20(1)
	lwz 31,12(1)
.LVL379:
	mtlr 0
	addi 1,1,16
.LCFI65:
	.cfi_def_cfa_offset 0
	.cfi_restore 31
	blr
	.cfi_endproc
.LFE3100:
	.size	_ZN6idListI10idKeyValueE5ClearEv, .-_ZN6idListI10idKeyValueE5ClearEv
	.section	.text._ZN6idDictD2Ev,"axG",@progbits,_ZN6idDictD5Ev,comdat
	.align 2
	.weak	_ZN6idDictD2Ev
	.type	_ZN6idDictD2Ev, @function
_ZN6idDictD2Ev:
.LFB1936:
	.loc 10 173 0
	.cfi_startproc
	.cfi_personality 0,__gxx_personality_v0
	.cfi_lsda 0,.LLSDA1936
.LVL380:
	mflr 0
	stwu 1,-16(1)
.LCFI66:
	.cfi_def_cfa_offset 16
	.cfi_register 65, 0
	stw 31,12(1)
	mr 31,3
	.cfi_offset 31, -4
	stw 0,20(1)
	stw 30,8(1)
.LEHB0:
.LBB2097:
	.loc 10 174 0
	.cfi_offset 30, -8
	.cfi_offset 65, 4
	bl _ZN6idDict5ClearEv
.LEHE0:
.LVL381:
.LBB2098:
.LBB2099:
.LBB2100:
	.file 17 "d:/Data/Nintendo/DoomGX/src/game/../idlib/../idlib/containers/HashIndex.h"
	.loc 17 130 0
	addi 3,31,16
.LEHB1:
	bl _ZN11idHashIndex4FreeEv
.LEHE1:
.LVL382:
.LBE2100:
.LBE2099:
.LBE2098:
.LBB2101:
.LBB2102:
.LBB2103:
.LBB2104:
	.loc 5 193 0 discriminator 1
	lwz 3,12(31)
	cmpwi 7,3,0
	beq- 7,.L223
	.loc 5 194 0
	bl _ZdaPv
.L223:
	.loc 5 197 0
	li 0,0
	stw 0,12(31)
	.loc 5 198 0
	stw 0,0(31)
	.loc 5 199 0
	stw 0,4(31)
.LBE2104:
.LBE2103:
.LBE2102:
.LBE2101:
.LBE2097:
	.loc 10 175 0
	lwz 0,20(1)
	lwz 30,8(1)
	mtlr 0
	lwz 31,12(1)
.LVL383:
	addi 1,1,16
	.cfi_remember_state
.LCFI67:
	.cfi_def_cfa_offset 0
	.cfi_restore 31
	.cfi_restore 30
	blr
.LVL384:
.L230:
.LCFI68:
	.cfi_restore_state
	mr 30,3
.LVL385:
.LBB2111:
.LBB2105:
.LBB2106:
.LBB2107:
	.loc 17 130 0
	addi 3,31,16
	bl _ZN11idHashIndex4FreeEv
.LVL386:
.L228:
.LBE2107:
.LBE2106:
.LBE2105:
.LBB2108:
.LBB2109:
.LBB2110:
	.loc 5 181 0
	mr 3,31
	bl _ZN6idListI10idKeyValueE5ClearEv
	mr 3,30
.LEHB2:
	bl _Unwind_Resume
.LEHE2:
.LVL387:
.L231:
	mr 30,3
	b .L228
.LBE2110:
.LBE2109:
.LBE2108:
.LBE2111:
	.cfi_endproc
.LFE1936:
	.globl __gxx_personality_v0
	.section	.gcc_except_table,"a",@progbits
.LLSDA1936:
	.byte	0xff
	.byte	0xff
	.byte	0x1
	.uleb128 .LLSDACSE1936-.LLSDACSB1936
.LLSDACSB1936:
	.uleb128 .LEHB0-.LFB1936
	.uleb128 .LEHE0-.LEHB0
	.uleb128 .L230-.LFB1936
	.uleb128 0
	.uleb128 .LEHB1-.LFB1936
	.uleb128 .LEHE1-.LEHB1
	.uleb128 .L231-.LFB1936
	.uleb128 0
	.uleb128 .LEHB2-.LFB1936
	.uleb128 .LEHE2-.LEHB2
	.uleb128 0
	.uleb128 0
.LLSDACSE1936:
	.section	.text._ZN6idDictD2Ev,"axG",@progbits,_ZN6idDictD5Ev,comdat
	.size	_ZN6idDictD2Ev, .-_ZN6idDictD2Ev
	.section	".text"
	.align 2
	.globl _ZN10idEntityFx3RunEi
	.type	_ZN10idEntityFx3RunEi, @function
_ZN10idEntityFx3RunEi:
.LFB2833:
	.loc 2 340 0
	.cfi_startproc
	.cfi_personality 0,__gxx_personality_v0
	.cfi_lsda 0,.LLSDA2833
.LVL388:
	mflr 0
	stwu 1,-248(1)
.LCFI69:
	.cfi_def_cfa_offset 248
	.cfi_register 65, 0
	stw 22,208(1)
	mr 22,4
	.cfi_offset 22, -40
	stw 0,252(1)
.LBB2238:
	.loc 2 342 0
	li 0,0
	.cfi_offset 65, 4
.LBE2238:
	.loc 2 340 0
	stw 30,240(1)
	mr 30,3
	.cfi_offset 30, -8
	stw 14,176(1)
	stw 15,180(1)
	stw 16,184(1)
	stw 17,188(1)
	stw 18,192(1)
	stw 19,196(1)
	stw 20,200(1)
	stw 21,204(1)
	stw 23,212(1)
	stw 24,216(1)
	stw 25,220(1)
	stw 26,224(1)
	stw 27,228(1)
	stw 28,232(1)
	stw 29,236(1)
	stw 31,244(1)
.LBB2496:
	.loc 2 342 0
	stw 0,8(1)
.LVL389:
	.loc 2 346 0
	lwz 10,644(3)
	cmpwi 7,10,0
	beq- 7,.L232
	.cfi_offset 31, -4
	.cfi_offset 29, -12
	.cfi_offset 28, -16
	.cfi_offset 27, -20
	.cfi_offset 26, -24
	.cfi_offset 25, -28
	.cfi_offset 24, -32
	.cfi_offset 23, -36
	.cfi_offset 21, -44
	.cfi_offset 20, -48
	.cfi_offset 19, -52
	.cfi_offset 18, -56
	.cfi_offset 17, -60
	.cfi_offset 16, -64
	.cfi_offset 15, -68
	.cfi_offset 14, -72
.LVL390:
.LBB2239:
	.loc 2 350 0 discriminator 1
	lwz 0,8(10)
	cmpwi 7,0,0
	ble- 7,.L232
.LBB2240:
.LBB2241:
.LBB2242:
	.loc 2 519 0
	lis 23,gameLocal@ha
	.loc 2 536 0
	lis 14,vec3_origin@ha
	.loc 2 519 0
	la 23,gameLocal@l(23)
	.loc 2 530 0
	lis 15,.LC30@ha
.LBB2243:
.LBB2244:
.LBB2245:
.LBB2246:
	.loc 10 189 0
	lis 18,.LC27@ha
	lis 16,.LC28@ha
.LBE2246:
.LBE2245:
.LBB2249:
.LBB2250:
	lis 17,.LC29@ha
.LBE2250:
.LBE2249:
.LBE2244:
.LBE2243:
.LBE2242:
.LBE2241:
.LBE2240:
	.loc 2 350 0
	li 26,0
	li 28,0
	li 27,0
.LBB2489:
.LBB2457:
.LBB2451:
	.loc 2 519 0
	addis 19,23,0x25
	.loc 2 536 0
	la 14,vec3_origin@l(14)
	.loc 2 530 0
	la 15,.LC30@l(15)
.LBB2364:
.LBB2356:
.LBB2253:
.LBB2247:
	.loc 10 189 0
	la 18,.LC27@l(18)
	la 16,.LC28@l(16)
.LBE2247:
.LBE2253:
.LBB2254:
.LBB2251:
	la 17,.LC29@l(17)
	b .L296
.LVL391:
.L328:
	lis 24,.LC10@ha
	lis 9,.LC23@ha
	la 9,.LC23@l(9)
	la 24,.LC10@l(24)
.L237:
.LBE2251:
.LBE2254:
.LBE2356:
.LBE2364:
.LBE2451:
.LBE2457:
	.loc 2 374 0 discriminator 3
	subf 0,25,22
	lfs 0,0(24)
	xoris 0,0,0x8000
.LBB2458:
.LBB2459:
	.loc 5 573 0 discriminator 3
	add 31,31,26
.LVL392:
.LBE2459:
.LBE2458:
	.loc 2 374 0 discriminator 3
	stw 0,108(1)
	lis 0,0x4330
	stw 0,104(1)
.LBB2460:
	.loc 2 375 0 discriminator 3
	lis 21,.LC25@ha
.LBE2460:
	.loc 2 374 0 discriminator 3
	lfd 12,104(1)
	lfs 13,108(31)
	fsub 12,12,0
	lfs 0,0(9)
	fmuls 13,13,0
.LBB2473:
	.loc 2 375 0 discriminator 3
	lfs 0,.LC25@l(21)
.LBE2473:
	.loc 2 374 0 discriminator 3
	frsp 12,12
	fdivs 13,12,13
.LBB2474:
	.loc 2 375 0 discriminator 3
	fcmpu 7,13,0
	cror 30,29,30
	bne- 7,.L319
.LBB2461:
	.loc 2 376 0
	li 0,-1
	.loc 2 378 0
	lis 9,.LC12@ha
	.loc 2 376 0
	stw 0,440(29)
.LVL393:
	.loc 2 378 0
	lfs 0,.LC12@l(9)
	lfs 13,112(31)
	fcmpu 7,13,0
	beq- 7,.L325
	.loc 2 379 0
	lfs 13,152(31)
	fcmpu 7,13,0
	bne- 7,.L240
	.loc 2 379 0 is_stmt 0 discriminator 1
	lfs 13,156(31)
	fcmpu 7,13,0
	bne- 7,.L240
	.loc 2 382 0 is_stmt 1
	lfs 0,104(31)
.LVL394:
.L242:
	.loc 2 384 0
	stfs 0,432(29)
	.loc 2 385 0
	stw 22,440(29)
	lwz 10,644(30)
.LVL395:
.L295:
.LBE2461:
.LBE2474:
.LBE2489:
	.loc 2 350 0
	lwz 0,8(10)
	addi 27,27,1
.LVL396:
	addi 28,28,448
	addi 26,26,232
	cmpw 7,0,27
	ble- 7,.L232
.LVL397:
.L296:
.LBB2490:
.LBB2475:
.LBB2476:
	.loc 5 589 0
	lwz 29,660(30)
.LBE2476:
.LBE2475:
.LBE2490:
	.loc 2 796 0
	lwz 31,20(10)
.LVL398:
.LBB2491:
.LBB2478:
.LBB2477:
	.loc 5 589 0
	add 29,29,28
.LBE2477:
.LBE2478:
	.loc 2 357 0
	lwz 25,440(29)
	cmpwi 7,25,-1
	beq- 7,.L295
	.loc 2 364 0
	lis 9,.LC12@ha
	lfs 0,432(29)
	lfs 13,.LC12@l(9)
	fcmpu 7,0,13
	beq- 7,.L328
	.loc 2 365 0
	lis 0,0x4330
	xoris 9,25,0x8000
	stw 9,100(1)
	lis 24,.LC10@ha
	stw 0,96(1)
	xoris 9,22,0x8000
	lfs 13,.LC10@l(24)
	la 24,.LC10@l(24)
	stw 9,92(1)
	lis 9,.LC23@ha
	lfd 12,96(1)
	lfs 11,.LC23@l(9)
	la 9,.LC23@l(9)
	stw 0,88(1)
	fsub 12,12,13
	fmuls 0,0,11
	lfd 11,88(1)
	frsp 12,12
	fsub 13,11,13
	fadds 12,12,0
	frsp 13,13
	fcmpu 7,13,12
	blt- 7,.L295
	.loc 2 373 0 discriminator 1
	fctiwz 0,0
	addi 11,1,152
	stfiwx 0,0,11
	lwz 0,152(1)
	add 25,25,0
	b .L237
.LVL399:
.L319:
	.loc 2 390 0
	lwz 0,72(31)
	cmpwi 7,0,0
	beq- 7,.L243
.LVL400:
	.loc 2 391 0 discriminator 1
	lwz 0,8(10)
	cmpwi 7,0,0
	ble- 7,.L243
	.loc 2 391 0 is_stmt 0
	li 11,0
	li 9,0
	li 20,0
.LVL401:
.L245:
.LBB2479:
.LBB2480:
	.loc 2 796 0 is_stmt 1
	lwz 10,20(10)
	.file 18 "d:/Data/Nintendo/DoomGX/src/game/../idlib/../idlib/Str.h"
	.loc 18 690 0
	lwz 4,76(31)
	.loc 2 796 0
	add 10,10,9
	.loc 18 690 0
	lwz 3,44(10)
	stw 9,160(1)
	stw 11,156(1)
.LEHB3:
	bl _ZN5idStr4IcmpEPKcS1_
.LEHE3:
.LVL402:
.LBE2480:
.LBE2479:
	.loc 2 392 0
	cmpwi 7,3,0
	lwz 9,160(1)
	lwz 11,156(1)
	bne- 7,.L244
.LVL403:
	.loc 2 393 0
	lwz 10,660(30)
	li 0,0
	add 10,10,11
	stw 0,432(10)
.LVL404:
.L244:
	.loc 2 391 0
	lwz 10,644(30)
	addi 20,20,1
.LVL405:
	addi 9,9,232
	addi 11,11,448
	lwz 0,8(10)
	cmpw 7,0,20
	bgt+ 7,.L245
.LVL406:
.L243:
	.loc 2 399 0
	lwz 0,4(31)
	cmpwi 7,0,-1
	beq- 7,.L246
.LVL407:
.LBB2481:
.LBB2482:
	.loc 5 589 0
	slwi 9,0,6
	lwz 29,660(30)
	slwi 0,0,9
	subf 0,9,0
	add 29,29,0
.LVL408:
.L246:
.LBE2482:
.LBE2481:
.LBB2483:
	.loc 2 406 0
	lwz 0,0(31)
	cmplwi 7,0,8
	bgt- 7,.L295
	lis 9,.L252@ha
	slwi 11,0,2
	la 9,.L252@l(9)
	lwzx 11,9,11
	add 9,11,9
	mtctr 9
	bctr
	.section	.rodata
	.align 2
	.align 2
.L252:
	.long .L247-.L252
	.long .L248-.L252
	.long .L249-.L252
	.long .L248-.L252
	.long .L295-.L252
	.long .L250-.L252
	.long .L247-.L252
	.long .L248-.L252
	.long .L251-.L252
	.section	".text"
.L250:
.LBB2452:
.LBB2365:
	.loc 2 465 0
	lbz 0,445(29)
	cmpwi 7,0,0
	bne+ 7,.L295
.LVL409:
.LBB2357:
.LBB2255:
.LBB2256:
.LBB2257:
	.loc 5 159 0
	li 9,16
.LBE2257:
.LBE2256:
.LBB2261:
.LBB2262:
	.loc 17 112 0
	addi 3,1,52
	li 4,1024
	li 5,1024
.LBE2262:
.LBE2261:
.LBB2264:
.LBB2260:
	.loc 5 159 0
	stw 9,44(1)
.LVL410:
.LBB2258:
.LBB2259:
	.loc 5 197 0
	stw 0,48(1)
	.loc 5 198 0
	stw 0,36(1)
	.loc 5 199 0
	stw 0,40(1)
.LVL411:
.LEHB4:
.LBE2259:
.LBE2258:
.LBE2260:
.LBE2264:
.LBB2265:
.LBB2263:
	.loc 17 112 0
	bl _ZN11idHashIndex4InitEii
.LEHE4:
.LVL412:
.LBE2263:
.LBE2265:
.LBB2266:
.LBB2267:
	.loc 5 319 0
	lwz 25,48(1)
.LVL413:
	.loc 5 317 0
	li 0,16
	stw 0,44(1)
	.loc 5 319 0
	cmpwi 7,25,0
	beq- 7,.L259
	.loc 5 321 0
	lwz 9,36(1)
	.loc 5 323 0
	lwz 0,40(1)
	.loc 5 321 0
	addi 3,9,15
.LVL414:
	.loc 5 322 0
	srawi 3,3,4
	addze 3,3
.LVL415:
	slwi 3,3,4
.LVL416:
	.loc 5 323 0
	cmpw 7,3,0
	beq- 7,.L259
.LVL417:
.LBB2268:
.LBB2269:
	.loc 5 375 0
	cmpwi 7,3,0
	ble- 7,.L329
.LVL418:
	.loc 5 387 0
	cmpw 7,9,3
	.loc 5 386 0
	stw 3,40(1)
	.loc 5 387 0
	bgt- 7,.L330
.L261:
	.loc 5 392 0
	slwi 3,3,3
.LVL419:
.LEHB5:
	bl _Znaj
.LVL420:
	.loc 5 393 0
	lwz 0,36(1)
	.loc 5 392 0
	stw 3,48(1)
.LVL421:
	.loc 5 393 0
	cmpwi 7,0,0
	ble- 7,.L262
	.loc 2 340 0
	addi 8,25,-8
.LBE2269:
.LBE2268:
.LBE2267:
.LBE2266:
.LBE2255:
.LBE2357:
.LBE2365:
.LBB2366:
.LBB2367:
.LBB2368:
.LBB2369:
.LBB2370:
	.loc 5 393 0
	li 9,0
	b .L263
.LVL422:
.L331:
.LBE2370:
.LBE2369:
.LBE2368:
.LBE2367:
.LBE2366:
.LBB2399:
.LBB2358:
.LBB2297:
.LBB2281:
.LBB2278:
.LBB2275:
.LBB2272:
	lwz 3,48(1)
.LVL423:
.L263:
	.loc 5 394 0
	addi 8,8,8
	slwi 0,9,3
	lwz 10,0(8)
	add 3,3,0
	lwz 11,4(8)
	.loc 5 393 0
	addi 9,9,1
.LVL424:
	.loc 5 394 0
	stw 10,0(3)
	stw 11,4(3)
	.loc 5 393 0
	lwz 0,36(1)
	cmpw 7,9,0
	blt+ 7,.L331
.LVL425:
.L262:
	.loc 5 399 0
	mr 3,25
	bl _ZdaPv
.LVL426:
.L259:
.LBE2272:
.LBE2275:
.LBE2278:
.LBE2281:
.LBB2282:
.LBB2283:
	.loc 17 371 0
	li 0,16
.LBE2283:
.LBE2282:
.LBB2285:
.LBB2286:
	.loc 17 341 0
	addi 3,1,52
.LVL427:
.LBE2286:
.LBE2285:
.LBB2289:
.LBB2284:
	.loc 17 371 0
	stw 0,68(1)
.LVL428:
.LBE2284:
.LBE2289:
.LBB2290:
.LBB2287:
	.loc 17 341 0
	bl _ZN11idHashIndex4FreeEv
.LEHE5:
.LVL429:
	.loc 17 342 0
	li 0,128
.LBE2287:
.LBE2290:
.LBE2297:
	.loc 2 467 0
	addi 3,1,36
.LBB2298:
.LBB2291:
.LBB2288:
	.loc 17 342 0
	stw 0,52(1)
	.loc 17 343 0
	li 0,16
	stw 0,60(1)
.LEHB6:
.LBE2288:
.LBE2291:
.LBE2298:
	.loc 2 467 0
	bl _ZN6idDict5ClearEv
.LVL430:
.LBB2299:
.LBB2248:
	.loc 10 189 0
	lfs 1,128(31)
	mr 3,18
	creqv 6,6,6
	bl _Z2vaPKcz
.LVL431:
	mr 5,3
	mr 4,16
	addi 3,1,36
	bl _ZN6idDict3SetEPKcS1_
.LVL432:
.LBE2248:
.LBE2299:
.LBB2300:
.LBB2252:
	lfs 1,132(31)
	mr 3,18
	creqv 6,6,6
	bl _Z2vaPKcz
.LVL433:
	mr 5,3
	mr 4,17
	addi 3,1,36
	bl _ZN6idDict3SetEPKcS1_
.LVL434:
.LBE2252:
.LBE2300:
.LBB2301:
	.loc 2 470 0 discriminator 1
	lwz 0,48(23)
	cmpwi 7,0,0
	ble- 7,.L269
	.loc 2 470 0 is_stmt 0
	li 25,0
	b .L274
.LVL435:
.L272:
.LBB2302:
	.loc 2 474 0 is_stmt 1 discriminator 5
	lwz 11,172(31)
	addi 3,20,3976
	lwz 9,176(31)
	addi 4,1,128
	lwz 0,180(31)
	addi 5,1,36
	stw 11,128(1)
	stw 9,132(1)
	stw 0,136(1)
	bl _ZN12idPlayerView13DamageImpulseE6idVec3PK6idDict
.LVL436:
.L273:
.LBE2302:
	.loc 2 470 0
	lwz 0,48(23)
	addi 25,25,1
.LVL437:
	cmpw 7,0,25
	ble- 7,.L269
.LVL438:
.L274:
.LBB2311:
	.loc 2 471 0
	mr 3,23
	mr 4,25
	bl _ZNK11idGameLocal14GetClientByNumEi
.LVL439:
	.loc 2 472 0
	mr. 20,3
	beq- 0,.L273
	.loc 2 472 0 is_stmt 0 discriminator 1
	bl _ZNK8idEntity10GetPhysicsEv
.LVL440:
	lwz 9,0(3)
	li 4,0
	lwz 0,132(9)
	mtctr 0
	bctrl
	mr 24,3
	mr 3,30
	bl _ZNK8idEntity10GetPhysicsEv
	lwz 9,0(3)
	li 4,0
	lwz 0,132(9)
	mtctr 0
	bctrl
.LVL441:
.LBB2303:
.LBB2304:
	.loc 7 431 0 is_stmt 1 discriminator 1
	lfs 0,4(3)
	lfs 13,4(24)
	lfs 12,0(24)
	fsubs 13,13,0
	lfs 0,0(3)
	lfs 10,8(24)
	fsubs 12,12,0
	lfs 0,8(3)
.LBE2304:
.LBE2303:
.LBB2306:
.LBB2307:
	.loc 7 636 0 discriminator 1
	fmuls 11,13,13
.LBE2307:
.LBE2306:
	.loc 2 472 0 discriminator 1
	lfs 13,136(31)
.LBB2308:
.LBB2305:
	.loc 7 431 0 discriminator 1
	fsubs 0,10,0
.LVL442:
.LBE2305:
.LBE2308:
.LBB2309:
.LBB2310:
	.loc 8 104 0 discriminator 1
	fmuls 13,13,13
.LBE2310:
.LBE2309:
	.loc 7 636 0 discriminator 1
	fmadds 12,12,12,11
.LVL443:
	fmadds 0,0,0,12
.LVL444:
	.loc 2 472 0 discriminator 1
	fcmpu 7,0,13
	bnl- 7,.L273
	.loc 2 473 0 discriminator 4
	lbz 0,2016(19)
	cmpwi 7,0,0
	beq- 7,.L272
	.loc 2 473 0 is_stmt 0 discriminator 2
	lbz 0,223(31)
	cmpwi 7,0,0
	beq+ 7,.L272
	.loc 2 473 0 discriminator 3
	mr 3,30
.LVL445:
	bl _ZNK8idEntity13GetBindMasterEv
.LVL446:
	cmpw 7,20,3
	bne+ 7,.L272
.LBE2311:
	.loc 2 470 0 is_stmt 1
	lwz 0,48(23)
	addi 25,25,1
.LVL447:
	cmpw 7,0,25
	bgt+ 7,.L274
.LVL448:
.L269:
.LBE2301:
.LBB2312:
	.loc 2 478 0
	lis 9,.LC12@ha
	lfs 13,140(31)
	lfs 0,.LC12@l(9)
	fcmpu 7,13,0
	beq- 7,.L275
	.loc 2 478 0 is_stmt 0 discriminator 1
	lfs 13,136(31)
	fcmpu 7,13,0
	beq- 7,.L275
.LVL449:
.LBB2313:
	.loc 2 480 0 is_stmt 1
	lbz 0,2016(19)
	cmpwi 7,0,0
	beq- 7,.L298
	.loc 2 482 0
	lbz 0,223(31)
	.loc 2 481 0
	mr 25,30
.LVL450:
	.loc 2 482 0
	cmpwi 7,0,0
	bne- 7,.L332
.LVL451:
.L276:
	.loc 2 487 0
	mr 3,30
	bl _ZNK8idEntity10GetPhysicsEv
	lwz 9,0(3)
	li 4,0
	lwz 0,132(9)
	mtctr 0
	bctrl
	.loc 2 487 0 is_stmt 0 discriminator 1
	lfs 1,136(31)
	mr 4,3
	lfs 2,140(31)
	mr 3,23
	lfs 3,.LC25@l(21)
	mr 5,30
	mr 6,25
	li 7,1
	bl _ZN11idGameLocal10RadiusPushERK6idVec3ffPK8idEntityS5_fb
.LEHE6:
.LVL452:
.L275:
.LBE2313:
.LBE2312:
	.loc 2 489 0 is_stmt 1
	li 0,1
.LBB2316:
.LBB2317:
.LBB2318:
	.loc 10 174 0
	addi 3,1,36
.LBE2318:
.LBE2317:
.LBE2316:
	.loc 2 489 0
	stb 0,445(29)
.LVL453:
.LEHB7:
.LBB2348:
.LBB2344:
.LBB2340:
	.loc 10 174 0
	bl _ZN6idDict5ClearEv
.LEHE7:
.LVL454:
.LBB2319:
.LBB2320:
.LBB2321:
	.loc 17 130 0
	addi 3,1,52
.LVL455:
.LEHB8:
	bl _ZN11idHashIndex4FreeEv
.LEHE8:
.LVL456:
.LBE2321:
.LBE2320:
.LBE2319:
.LBB2322:
.LBB2323:
.LBB2324:
.LBB2325:
	.loc 5 193 0
	lwz 3,48(1)
	cmpwi 7,3,0
	beq- 7,.L278
	.loc 5 194 0
	bl _ZdaPv
.L278:
	.loc 5 197 0
	li 0,0
	lwz 10,644(30)
	stw 0,48(1)
.LBE2325:
.LBE2324:
.LBE2323:
.LBE2322:
.LBE2340:
.LBE2344:
.LBE2348:
.LBE2358:
.LBE2399:
.LBE2452:
.LBE2483:
.LBE2491:
	.loc 2 350 0
	addi 27,27,1
.LVL457:
.LBB2492:
.LBB2484:
.LBB2453:
.LBB2400:
.LBB2359:
.LBB2349:
.LBB2345:
.LBB2341:
.LBB2332:
.LBB2330:
.LBB2328:
.LBB2326:
	.loc 5 198 0
	stw 0,36(1)
.LBE2326:
.LBE2328:
.LBE2330:
.LBE2332:
.LBE2341:
.LBE2345:
.LBE2349:
.LBE2359:
.LBE2400:
.LBE2453:
.LBE2484:
.LBE2492:
	.loc 2 350 0
	addi 28,28,448
.LBB2493:
.LBB2485:
.LBB2454:
.LBB2401:
.LBB2360:
.LBB2350:
.LBB2346:
.LBB2342:
.LBB2333:
.LBB2331:
.LBB2329:
.LBB2327:
	.loc 5 199 0
	stw 0,40(1)
.LBE2327:
.LBE2329:
.LBE2331:
.LBE2333:
.LBE2342:
.LBE2346:
.LBE2350:
.LBE2360:
.LBE2401:
.LBE2454:
.LBE2485:
.LBE2493:
	.loc 2 350 0
	addi 26,26,232
	lwz 0,8(10)
	cmpw 7,0,27
	bgt+ 7,.L296
.LVL458:
.L232:
.LBE2239:
.LBE2496:
	.loc 2 544 0
	lwz 0,252(1)
	lwz 14,176(1)
	mtlr 0
	lwz 15,180(1)
	lwz 16,184(1)
	lwz 17,188(1)
	lwz 18,192(1)
	lwz 19,196(1)
	lwz 20,200(1)
	lwz 21,204(1)
	lwz 22,208(1)
.LVL459:
	lwz 23,212(1)
	lwz 24,216(1)
	lwz 25,220(1)
	lwz 26,224(1)
	lwz 27,228(1)
	lwz 28,232(1)
	lwz 29,236(1)
	lwz 30,240(1)
.LVL460:
	lwz 31,244(1)
	addi 1,1,248
	.cfi_remember_state
.LCFI70:
	.cfi_def_cfa_offset 0
	.cfi_restore 31
	.cfi_restore 30
	.cfi_restore 29
	.cfi_restore 28
	.cfi_restore 27
	.cfi_restore 26
	.cfi_restore 25
	.cfi_restore 24
	.cfi_restore 23
	.cfi_restore 22
	.cfi_restore 21
	.cfi_restore 20
	.cfi_restore 19
	.cfi_restore 18
	.cfi_restore 17
	.cfi_restore 16
	.cfi_restore 15
	.cfi_restore 14
	blr
.LVL461:
.L251:
.LCFI71:
	.cfi_restore_state
.LBB2497:
.LBB2495:
.LBB2494:
.LBB2486:
.LBB2455:
	.loc 2 519 0
	lbz 0,2018(19)
	cmpwi 7,0,0
	beq- 7,.L292
	.loc 2 521 0
	li 0,1
	stb 0,447(29)
	lwz 10,644(30)
	.loc 2 522 0
	b .L295
.L249:
	.loc 2 458 0
	lbz 0,446(29)
	cmpwi 7,0,0
	bne+ 7,.L295
	.loc 2 459 0
	li 0,1
	.loc 2 460 0
	mr 3,30
	.loc 2 459 0
	stb 0,446(29)
.LEHB9:
	.loc 2 460 0
	bl _ZNK8idEntity10GetPhysicsEv
	li 4,0
	lwz 9,0(3)
	lwz 0,132(9)
	mtctr 0
	bctrl
	mr 29,3
.LVL462:
	mr 3,30
	bl _ZNK8idEntity10GetPhysicsEv
	lwz 9,0(3)
	lwz 0,160(9)
	mtctr 0
	bctrl
	lis 9,.LC26@ha
	lfs 1,.LC26@l(9)
	lis 9,.LC12@ha
	lfs 2,116(31)
	mr 5,3
	lwz 7,12(31)
	mr 3,23
	lfs 3,.LC12@l(9)
	mr 4,29
	li 6,1
	bl _ZN11idGameLocal12ProjectDecalERK6idVec3S2_fbfPKcf
	lwz 10,644(30)
	b .L295
.LVL463:
.L248:
	.loc 2 496 0
	lwz 0,428(29)
	cmpwi 7,0,-1
	beq- 7,.L333
	.loc 2 511 0
	lbz 0,228(31)
	cmpwi 7,0,0
	bne- 7,.L334
.L288:
	.loc 2 515 0
	mr 3,30
	mr 4,31
	mr 5,29
	mr 6,22
	mr 7,25
	bl _ZN10idEntityFx9ApplyFadeERK16idFXSingleActionR15idFXLocalActionii
	lwz 10,644(30)
	.loc 2 516 0
	b .L295
.L247:
.LBB2402:
.LBB2397:
	.loc 2 409 0
	lwz 9,208(29)
	cmpwi 7,9,-1
	bne+ 7,.L288
.LBB2395:
	.loc 2 410 0
	cmpwi 7,0,0
	beq- 7,.L335
.LBB2375:
	.loc 2 430 0
	lbz 0,226(31)
	cmpwi 7,0,0
	beq- 7,.L288
.L339:
.LVL464:
.LBB2374:
	.loc 2 796 0 discriminator 1
	lwz 10,644(30)
	.loc 2 431 0 discriminator 1
	lwz 0,8(10)
	cmpwi 7,0,0
	ble- 7,.L288
	.loc 2 431 0 is_stmt 0
	li 11,0
	li 9,0
.LBB2371:
	.loc 2 434 0 is_stmt 1
	li 7,1
.LVL465:
.L258:
.LBB2372:
.LBB2373:
	.loc 5 589 0
	lwz 8,660(30)
	add 8,8,11
.LBE2373:
.LBE2372:
	.loc 2 433 0
	lwz 0,428(8)
	cmpwi 7,0,-1
	beq- 7,.L257
	.loc 2 434 0
	stb 7,413(8)
	lwz 10,644(30)
.L257:
.LBE2371:
	.loc 2 431 0
	lwz 0,8(10)
	addi 9,9,1
.LVL466:
	addi 11,11,448
	cmpw 7,0,9
	bgt+ 7,.L258
	b .L288
.LVL467:
.L292:
.LBE2374:
.LBE2375:
.LBE2395:
.LBE2397:
.LBE2402:
	.loc 2 524 0
	lbz 0,447(29)
	cmpwi 7,0,0
	bne+ 7,.L295
	.loc 2 525 0
	li 0,1
	.loc 2 528 0
	mr 3,23
	.loc 2 525 0
	stb 0,447(29)
.LVL468:
	.loc 2 528 0
	li 5,0
	lwz 4,12(31)
	bl _ZNK11idGameLocal17FindEntityDefDictEPKcb
.LVL469:
	.loc 2 529 0
	mr. 4,3
	beq- 0,.L336
	.loc 2 532 0
	mr 3,23
.LVL470:
	addi 5,1,8
	li 6,0
	bl _ZN11idGameLocal14SpawnEntityDefERK6idDictPP8idEntityb
.LVL471:
	.loc 2 533 0
	lwz 3,8(1)
	cmpwi 7,3,0
	beq- 7,.L325
.LVL472:
.LBB2403:
.LBB2404:
	.file 19 "d:/Data/Nintendo/DoomGX/src/game/gamesys/Class.h"
	.loc 19 340 0 discriminator 1
	lwz 9,0(3)
	lwz 0,0(9)
	mtctr 0
	bctrl
.LVL473:
.LBE2404:
	.loc 2 796 0 discriminator 1
	lis 9,_ZN12idProjectile4TypeE@ha
	la 9,_ZN12idProjectile4TypeE@l(9)
	lwz 0,56(3)
.LBB2407:
.LBB2405:
.LBB2406:
	.loc 19 311 0 discriminator 1
	lwz 11,56(9)
	cmpw 7,0,11
	blt- 7,.L325
	.loc 19 311 0 is_stmt 0
	lwz 9,60(9)
	cmpw 7,0,9
	bgt- 7,.L325
.LBE2406:
.LBE2405:
.LBE2407:
.LBE2403:
	.loc 2 535 0 is_stmt 1 discriminator 4
	mr 3,30
.LVL474:
	.loc 2 534 0 discriminator 4
	lwz 31,8(1)
.LVL475:
	.loc 2 535 0 discriminator 4
	bl _ZNK8idEntity10GetPhysicsEv
.LVL476:
	li 4,0
	lwz 9,0(3)
	lwz 0,132(9)
	mtctr 0
	bctrl
	mr 29,3
.LVL477:
	mr 3,30
	bl _ZNK8idEntity10GetPhysicsEv
	li 4,0
	lwz 9,0(3)
	lwz 0,136(9)
	mtctr 0
	bctrl
	mr 5,29
	mr 6,3
.LVL478:
	mr 4,30
	mr 3,31
.LVL479:
	bl _ZN12idProjectile6CreateEP8idEntityRK6idVec3S4_
.LVL480:
	.loc 2 536 0 discriminator 4
	lwz 9,0(31)
	mr 3,30
	lwz 29,228(9)
	bl _ZNK8idEntity10GetPhysicsEv
	lwz 9,0(3)
	li 4,0
	lwz 0,132(9)
	mtctr 0
	bctrl
	mr 25,3
.LVL481:
	mr 3,30
	bl _ZNK8idEntity10GetPhysicsEv
	li 4,0
	lwz 9,0(3)
	lwz 0,136(9)
	mtctr 0
	bctrl
	lfs 2,.LC25@l(21)
	lis 9,.LC12@ha
	mr 5,3
.LVL482:
	mr 4,25
	mr 3,31
.LVL483:
	mr 6,14
	lfs 1,.LC12@l(9)
	fmr 3,2
	mtctr 29
	bctrl
.LVL484:
.L325:
	lwz 10,644(30)
	b .L295
.LVL485:
.L240:
.LBE2455:
.LBE2486:
.LBB2487:
.LBB2472:
.LBB2462:
.LBB2463:
.LBB2464:
.LBB2465:
	.loc 15 71 0
	addis 9,23,0x1
	lis 11,0x1
	lwz 10,-32064(9)
	ori 11,11,3533
.LBE2465:
.LBE2464:
	.loc 15 83 0
	lfs 13,0(24)
.LBB2467:
.LBB2466:
	.loc 15 71 0
	mullw 11,11,10
	addi 0,11,1
	stw 0,-32064(9)
	.loc 15 72 0
	rlwinm 0,0,0,17,31
.LBE2466:
.LBE2467:
	.loc 15 83 0
	xoris 0,0,0x8000
	lis 9,.LC11@ha
.LBE2463:
.LBE2462:
	.loc 2 380 0
	lfs 0,152(31)
	lfs 12,156(31)
.LBB2470:
.LBB2468:
	.loc 15 83 0
	stw 0,116(1)
	lis 0,0x4330
	stw 0,112(1)
.LBE2468:
.LBE2470:
	.loc 2 380 0
	fsubs 12,12,0
.LBB2471:
.LBB2469:
	.loc 15 83 0
	lfd 11,112(1)
	fsub 13,11,13
	lfs 11,.LC11@l(9)
	frsp 13,13
	fmuls 13,13,11
.LBE2469:
.LBE2471:
	.loc 2 380 0
	fmadds 0,12,13,0
.LVL486:
	b .L242
.LVL487:
.L334:
.LBE2472:
.LBE2487:
.LBB2488:
.LBB2456:
	.loc 2 512 0
	mr 3,30
	bl _ZNK8idEntity10GetPhysicsEv
	li 4,0
	lwz 9,0(3)
	lwz 0,132(9)
	mtctr 0
	bctrl
.LVL488:
.LBB2408:
.LBB2409:
	.loc 7 452 0
	lfs 12,176(31)
	lfs 9,4(3)
	lfs 10,8(3)
	lfs 11,0(3)
	fadds 12,9,12
	lfs 13,180(31)
.LBE2409:
.LBE2408:
	.loc 2 513 0
	addi 3,31,184
.LVL489:
.LBB2412:
.LBB2410:
	.loc 7 452 0
	lfs 0,172(31)
	fadds 13,10,13
.LVL490:
.LBE2410:
.LBE2412:
.LBB2413:
.LBB2414:
	.loc 7 425 0
	stfs 12,276(29)
.LBE2414:
.LBE2413:
.LBB2416:
.LBB2411:
	.loc 7 452 0
	fadds 0,11,0
.LBE2411:
.LBE2416:
.LBB2417:
.LBB2415:
	.loc 7 426 0
	stfs 13,280(29)
	.loc 7 424 0
	stfs 0,272(29)
.LBE2415:
.LBE2417:
	.loc 2 513 0
	lbz 0,225(31)
	cmpwi 7,0,0
	beq- 7,.L337
.LVL491:
.L290:
.LBB2418:
.LBB2419:
	.loc 12 333 0 discriminator 3
	addi 8,29,284
	li 10,0
.L291:
.LBB2420:
.LBB2421:
	.loc 7 424 0
	mr 11,3
	mr 9,8
	lwzux 0,11,10
.LBE2421:
.LBE2420:
	.loc 12 333 0
	cmpwi 7,10,24
.LBB2424:
.LBB2422:
	.loc 7 424 0
	stwux 0,9,10
.LBE2422:
.LBE2424:
	.loc 12 333 0
	addi 10,10,12
.LBB2425:
.LBB2423:
	.loc 7 425 0
	lwz 0,4(11)
	stw 0,4(9)
	.loc 7 426 0
	lwz 0,8(11)
	stw 0,8(9)
.LBE2423:
.LBE2425:
	.loc 12 333 0
	bne+ 7,.L291
	b .L288
.LVL492:
.L333:
.LBE2419:
.LBE2418:
	.loc 2 497 0
	addi 20,29,212
	li 4,0
	li 5,216
	mr 3,20
	bl memset
	.loc 2 498 0
	mr 3,30
	bl _ZNK8idEntity10GetPhysicsEv
	li 4,0
	lwz 9,0(3)
	lwz 0,132(9)
	mtctr 0
	bctrl
.LVL493:
.LBB2426:
.LBB2427:
	.loc 7 452 0
	lfs 12,176(31)
	lfs 9,4(3)
	lfs 10,8(3)
	lfs 11,0(3)
	fadds 12,9,12
	lfs 13,180(31)
.LBE2427:
.LBE2426:
	.loc 2 499 0
	addi 3,31,184
.LVL494:
.LBB2430:
.LBB2428:
	.loc 7 452 0
	lfs 0,172(31)
	fadds 13,10,13
.LVL495:
.LBE2428:
.LBE2430:
.LBB2431:
.LBB2432:
	.loc 7 425 0
	stfs 12,276(29)
.LBE2432:
.LBE2431:
.LBB2434:
.LBB2429:
	.loc 7 452 0
	fadds 0,11,0
.LBE2429:
.LBE2434:
.LBB2435:
.LBB2433:
	.loc 7 426 0
	stfs 13,280(29)
	.loc 7 424 0
	stfs 0,272(29)
.LBE2433:
.LBE2435:
	.loc 2 499 0
	lbz 0,225(31)
	cmpwi 7,0,0
	beq- 7,.L338
.LVL496:
.L285:
.LBB2436:
.LBB2437:
	.loc 12 333 0 discriminator 3
	addi 8,29,284
	li 10,0
.L286:
.LBB2438:
.LBB2439:
	.loc 7 424 0
	mr 11,3
	mr 9,8
	lwzux 0,11,10
.LBE2439:
.LBE2438:
	.loc 12 333 0
	cmpwi 7,10,24
.LBB2442:
.LBB2440:
	.loc 7 424 0
	stwux 0,9,10
.LBE2440:
.LBE2442:
	.loc 12 333 0
	addi 10,10,12
.LBB2443:
.LBB2441:
	.loc 7 425 0
	lwz 0,4(11)
	stw 0,4(9)
	.loc 7 426 0
	lwz 0,8(11)
	stw 0,8(9)
.LBE2441:
.LBE2443:
	.loc 12 333 0
	bne+ 7,.L286
.LBE2437:
.LBE2436:
	.loc 2 500 0
	lis 9,renderModelManager@ha
	lwz 4,12(31)
	lwz 3,renderModelManager@l(9)
.LVL497:
	lwz 9,0(3)
	lwz 0,32(9)
	mtctr 0
	bctrl
	.loc 2 501 0
	lwz 0,.LC25@l(21)
	.loc 2 504 0
	xoris 9,22,0x8000
	.loc 2 500 0
	stw 3,212(29)
	.loc 2 501 0
	stw 0,336(29)
	.loc 2 507 0
	cmpwi 7,3,0
	.loc 2 502 0
	stw 0,340(29)
	.loc 2 500 0
	mr 4,3
	.loc 2 503 0
	stw 0,344(29)
	.loc 2 504 0
	stw 9,148(1)
	lis 9,0x4330
	stw 9,144(1)
	lis 9,_ZN6idMath8M_MS2SECE@ha
	lfs 0,0(24)
	lfd 13,144(1)
	.loc 2 505 0
	stw 0,348(29)
	.loc 2 506 0
	li 0,0
	.loc 2 504 0
	fsub 13,13,0
	lfs 0,_ZN6idMath8M_MS2SECE@l(9)
	.loc 2 506 0
	stw 0,356(29)
	.loc 2 504 0
	frsp 13,13
	fmuls 0,13,0
	fneg 0,0
	stfs 0,352(29)
	.loc 2 507 0
	beq- 7,.L287
	.loc 2 508 0
	lwz 9,0(3)
	mr 5,20
	addi 3,1,12
	lwz 0,128(9)
	mtctr 0
	bctrl
.LVL498:
.LBB2444:
.LBB2445:
.LBB2446:
	.loc 7 424 0
	lwz 0,12(1)
	stw 0,224(29)
	.loc 7 425 0
	lwz 0,16(1)
	stw 0,228(29)
	.loc 7 426 0
	lwz 0,20(1)
	stw 0,232(29)
.LVL499:
	.loc 7 424 0
	lwz 0,24(1)
	stw 0,236(29)
	.loc 7 425 0
	lwz 0,28(1)
	stw 0,240(29)
	.loc 7 426 0
	lwz 0,32(1)
	stw 0,244(29)
.LVL500:
.L287:
.LBE2446:
.LBE2445:
.LBE2444:
	.loc 2 510 0
	lis 9,gameRenderWorld@ha
	mr 4,20
	lwz 3,gameRenderWorld@l(9)
	lwz 9,0(3)
	lwz 0,16(9)
	mtctr 0
	bctrl
	stw 3,428(29)
	b .L288
.LVL501:
.L335:
.LBB2447:
.LBB2398:
.LBB2396:
	.loc 2 411 0
	li 5,208
	li 4,0
	mr 3,29
	bl memset
	.loc 2 412 0
	mr 3,30
	bl _ZNK8idEntity10GetPhysicsEv
	li 4,0
	lwz 9,0(3)
	lwz 0,132(9)
	mtctr 0
	bctrl
.LVL502:
.LBB2376:
.LBB2377:
	.loc 7 452 0
	lfs 12,176(31)
	lfs 9,4(3)
	lfs 10,8(3)
	lfs 11,0(3)
	fadds 12,9,12
	lfs 13,180(31)
.LBE2377:
.LBE2376:
	.loc 2 413 0
	mr 3,30
.LVL503:
.LBB2380:
.LBB2378:
	.loc 7 452 0
	lfs 0,172(31)
	fadds 13,10,13
.LVL504:
.LBE2378:
.LBE2380:
.LBB2381:
.LBB2382:
	.loc 7 425 0
	stfs 12,40(29)
.LBE2382:
.LBE2381:
.LBB2384:
.LBB2379:
	.loc 7 452 0
	fadds 0,11,0
.LBE2379:
.LBE2384:
.LBB2385:
.LBB2383:
	.loc 7 426 0
	stfs 13,44(29)
	.loc 7 424 0
	stfs 0,36(29)
.LBE2383:
.LBE2385:
	.loc 2 413 0
	bl _ZNK8idEntity10GetPhysicsEv
.LVL505:
	li 4,0
	lwz 9,0(3)
	lwz 0,136(9)
	mtctr 0
	bctrl
.LVL506:
.LBB2386:
.LBB2387:
	.loc 12 333 0
	li 10,0
.L255:
.LBB2388:
.LBB2389:
	.loc 7 424 0
	mr 11,3
	mr 9,29
	lwzux 0,11,10
.LBE2389:
.LBE2388:
	.loc 12 333 0
	cmpwi 7,10,24
.LBB2392:
.LBB2390:
	.loc 7 424 0
	stwux 0,9,10
.LBE2390:
.LBE2392:
	.loc 12 333 0
	addi 10,10,12
.LBB2393:
.LBB2391:
	.loc 7 425 0
	lwz 0,4(11)
	stw 0,4(9)
	.loc 7 426 0
	lwz 0,8(11)
	stw 0,8(9)
.LBE2391:
.LBE2393:
	.loc 12 333 0
	bne+ 7,.L255
.LVL507:
.LBE2387:
.LBE2386:
	.loc 2 414 0
	lwz 0,144(31)
	.loc 2 417 0
	lis 9,declManager@ha
	lwz 9,declManager@l(9)
	li 5,0
	.loc 2 414 0
	stw 0,60(29)
.LVL508:
	.loc 2 417 0
	li 6,0
	mr 3,9
.LVL509:
	.loc 2 415 0
	lwz 0,144(31)
	stw 0,64(29)
.LVL510:
	.loc 2 416 0
	lwz 0,144(31)
	stw 0,68(29)
	.loc 2 417 0
	lwz 9,0(9)
	lwz 4,12(31)
	lwz 0,104(9)
	mtctr 0
	bctrl
	.loc 2 421 0
	lwz 11,.LC25@l(21)
	.loc 2 417 0
	stw 3,152(29)
	.loc 2 422 0
	lfs 13,0(24)
	.loc 2 418 0
	lwz 0,160(31)
	stw 0,156(29)
	.loc 2 422 0
	xoris 0,22,0x8000
	.loc 2 419 0
	lwz 9,164(31)
	stw 9,160(29)
	.loc 2 420 0
	lwz 9,168(31)
	.loc 2 421 0
	stw 11,168(29)
	.loc 2 420 0
	stw 9,164(29)
	.loc 2 422 0
	lis 9,_ZN6idMath8M_MS2SECE@ha
	stw 0,124(1)
	lis 0,0x4330
	stw 0,120(1)
	.loc 2 424 0
	li 0,1
	.loc 2 422 0
	lfs 0,_ZN6idMath8M_MS2SECE@l(9)
	lfd 12,120(1)
	fsub 13,12,13
	frsp 13,13
	fmuls 0,13,0
	fneg 0,0
	stfs 0,172(29)
	.loc 2 423 0
	lwz 9,416(30)
	.loc 2 424 0
	stb 0,58(29)
	.loc 2 423 0
	stw 9,204(29)
	.loc 2 425 0
	lbz 9,226(31)
	cmpwi 7,9,0
	beq- 7,.L256
	.loc 2 426 0
	stb 0,56(29)
.L256:
	.loc 2 428 0
	lis 9,gameRenderWorld@ha
	mr 4,29
	lwz 3,gameRenderWorld@l(9)
	lwz 9,0(3)
	lwz 0,32(9)
	mtctr 0
	bctrl
	stw 3,208(29)
.LBB2394:
	.loc 2 430 0
	lbz 0,226(31)
	cmpwi 7,0,0
	beq- 7,.L288
	b .L339
.LVL511:
.L337:
.LBE2394:
.LBE2396:
.LBE2398:
.LBE2447:
	.loc 2 513 0 discriminator 2
	mr 3,30
	bl _ZNK8idEntity10GetPhysicsEv
.LVL512:
	li 4,0
	lwz 9,0(3)
	lwz 0,136(9)
	mtctr 0
	bctrl
	b .L290
.LVL513:
.L330:
.LBB2448:
.LBB2361:
.LBB2351:
.LBB2292:
.LBB2279:
.LBB2276:
.LBB2273:
	.loc 5 388 0
	stw 3,36(1)
	b .L261
.LVL514:
.L338:
.LBE2273:
.LBE2276:
.LBE2279:
.LBE2292:
.LBE2351:
.LBE2361:
.LBE2448:
	.loc 2 499 0 discriminator 2
	mr 3,30
	bl _ZNK8idEntity10GetPhysicsEv
.LVL515:
	li 4,0
	lwz 9,0(3)
	lwz 0,136(9)
	mtctr 0
	bctrl
	b .L285
.LVL516:
.L298:
.LBB2449:
.LBB2362:
.LBB2352:
.LBB2314:
	.loc 2 479 0
	li 25,0
	b .L276
.LVL517:
.L336:
.LBE2314:
.LBE2352:
.LBE2362:
.LBE2449:
	.loc 2 530 0
	lwz 5,12(31)
	mr 3,23
.LVL518:
	mr 4,15
.LVL519:
	crxor 6,6,6
	bl _ZNK11idGameLocal7WarningEPKcz
.LEHE9:
	lwz 10,644(30)
	b .L295
.LVL520:
.L332:
.LBB2450:
.LBB2363:
.LBB2353:
.LBB2315:
	.loc 2 483 0
	mr 3,30
.LEHB10:
	bl _ZNK8idEntity13GetBindMasterEv
.LEHE10:
	mr 25,3
	b .L276
.LVL521:
.L329:
.LBE2315:
.LBE2353:
.LBB2354:
.LBB2293:
.LBB2280:
.LBB2277:
.LBB2274:
.LBB2270:
.LBB2271:
	.loc 5 194 0
	mr 3,25
.LVL522:
	bl _ZdaPv
	.loc 5 197 0
	li 0,0
	stw 0,48(1)
	.loc 5 198 0
	stw 0,36(1)
	.loc 5 199 0
	stw 0,40(1)
	b .L259
.LVL523:
.L301:
	mr 31,3
.LVL524:
.LBE2271:
.LBE2270:
.LBE2274:
.LBE2277:
.LBE2280:
.LBE2293:
.LBB2294:
.LBB2295:
.LBB2296:
	.loc 17 130 0
	addi 3,1,52
.LVL525:
	bl _ZN11idHashIndex4FreeEv
.LVL526:
.L281:
.LBE2296:
.LBE2295:
.LBE2294:
.LBE2354:
.LBB2355:
.LBB2347:
.LBB2343:
.LBB2334:
.LBB2335:
.LBB2336:
	.loc 5 181 0
	addi 3,1,36
	bl _ZN6idListI10idKeyValueE5ClearEv
	mr 3,31
.LEHB11:
	bl _Unwind_Resume
.LEHE11:
.LVL527:
.L303:
	mr 31,3
.LVL528:
.LBE2336:
.LBE2335:
.LBE2334:
.LBB2337:
.LBB2338:
.LBB2339:
	.loc 17 130 0
	addi 3,1,52
.LVL529:
	bl _ZN11idHashIndex4FreeEv
.LVL530:
	b .L281
.LVL531:
.L299:
	mr 31,3
.LBE2339:
.LBE2338:
.LBE2337:
.LBE2343:
.LBE2347:
.LBE2355:
	.loc 2 489 0
	addi 3,1,36
	bl _ZN6idDictD1Ev
	mr 3,31
.LEHB12:
	bl _Unwind_Resume
.LEHE12:
.LVL532:
.L300:
.L326:
	mr 31,3
	b .L281
.LVL533:
.L302:
	b .L326
.LBE2363:
.LBE2450:
.LBE2456:
.LBE2488:
.LBE2494:
.LBE2495:
.LBE2497:
	.cfi_endproc
.LFE2833:
	.section	.gcc_except_table
.LLSDA2833:
	.byte	0xff
	.byte	0xff
	.byte	0x1
	.uleb128 .LLSDACSE2833-.LLSDACSB2833
.LLSDACSB2833:
	.uleb128 .LEHB3-.LFB2833
	.uleb128 .LEHE3-.LEHB3
	.uleb128 0
	.uleb128 0
	.uleb128 .LEHB4-.LFB2833
	.uleb128 .LEHE4-.LEHB4
	.uleb128 .L300-.LFB2833
	.uleb128 0
	.uleb128 .LEHB5-.LFB2833
	.uleb128 .LEHE5-.LEHB5
	.uleb128 .L301-.LFB2833
	.uleb128 0
	.uleb128 .LEHB6-.LFB2833
	.uleb128 .LEHE6-.LEHB6
	.uleb128 .L299-.LFB2833
	.uleb128 0
	.uleb128 .LEHB7-.LFB2833
	.uleb128 .LEHE7-.LEHB7
	.uleb128 .L303-.LFB2833
	.uleb128 0
	.uleb128 .LEHB8-.LFB2833
	.uleb128 .LEHE8-.LEHB8
	.uleb128 .L302-.LFB2833
	.uleb128 0
	.uleb128 .LEHB9-.LFB2833
	.uleb128 .LEHE9-.LEHB9
	.uleb128 0
	.uleb128 0
	.uleb128 .LEHB10-.LFB2833
	.uleb128 .LEHE10-.LEHB10
	.uleb128 .L299-.LFB2833
	.uleb128 0
	.uleb128 .LEHB11-.LFB2833
	.uleb128 .LEHE11-.LEHB11
	.uleb128 0
	.uleb128 0
	.uleb128 .LEHB12-.LFB2833
	.uleb128 .LEHE12-.LEHB12
	.uleb128 0
	.uleb128 0
.LLSDACSE2833:
	.section	".text"
	.size	_ZN10idEntityFx3RunEi, .-_ZN10idEntityFx3RunEi
	.align 2
	.globl _ZN10idEntityFx21ClientPredictionThinkEv
	.type	_ZN10idEntityFx21ClientPredictionThinkEv, @function
_ZN10idEntityFx21ClientPredictionThinkEv:
.LFB2848:
	.loc 2 765 0
	.cfi_startproc
.LVL534:
	mflr 0
	stwu 1,-16(1)
.LCFI72:
	.cfi_def_cfa_offset 16
	.cfi_register 65, 0
	.loc 2 766 0
	lis 9,gameLocal@ha
	.loc 2 765 0
	stw 31,12(1)
	.loc 2 766 0
	la 9,gameLocal@l(9)
	.loc 2 765 0
	stw 0,20(1)
	.loc 2 766 0
	addis 9,9,0x25
	.loc 2 765 0
	mr 31,3
	.cfi_offset 65, 4
	.cfi_offset 31, -4
	.loc 2 766 0
	lbz 0,2044(9)
	cmpwi 7,0,0
	beq+ 7,.L341
	.loc 2 767 0
	lwz 4,2004(9)
	bl _ZN10idEntityFx3RunEi
.LVL535:
.L341:
	.loc 2 769 0
	mr 3,31
	bl _ZN8idEntity10RunPhysicsEv
	.loc 2 770 0
	lwz 9,0(31)
	mr 3,31
	lwz 0,32(9)
	mtctr 0
	bctrl
	.loc 2 771 0
	lwz 0,20(1)
	lwz 31,12(1)
.LVL536:
	mtlr 0
	addi 1,1,16
.LCFI73:
	.cfi_def_cfa_offset 0
	.cfi_restore 31
	blr
	.cfi_endproc
.LFE2848:
	.size	_ZN10idEntityFx21ClientPredictionThinkEv, .-_ZN10idEntityFx21ClientPredictionThinkEv
	.align 2
	.globl _ZN10idEntityFx5ThinkEv
	.type	_ZN10idEntityFx5ThinkEv, @function
_ZN10idEntityFx5ThinkEv:
.LFB2842:
	.loc 2 604 0
	.cfi_startproc
.LVL537:
	mflr 0
	stwu 1,-16(1)
.LCFI74:
	.cfi_def_cfa_offset 16
	.cfi_register 65, 0
.LBB2504:
.LBB2505:
	.loc 2 605 0
	lis 9,g_skipFX+44@ha
.LBE2505:
.LBE2504:
	.loc 2 604 0
	stw 31,12(1)
	mr 31,3
	.cfi_offset 31, -4
	stw 0,20(1)
.LBB2507:
.LBB2506:
	.loc 16 142 0
	lwz 9,g_skipFX+44@l(9)
.LBE2506:
.LBE2507:
	.loc 2 605 0
	lwz 0,36(9)
	.cfi_offset 65, 4
	cmpwi 7,0,0
	bne- 7,.L342
.LVL538:
.LBB2508:
.LBB2509:
	.loc 2 609 0
	lwz 0,152(3)
	andi. 9,0,1
	bne- 0,.L345
.LVL539:
.L344:
	.loc 2 613 0
	mr 3,31
	bl _ZN8idEntity10RunPhysicsEv
	.loc 2 614 0
	lwz 9,0(31)
	mr 3,31
	lwz 0,32(9)
	mtctr 0
	bctrl
.LVL540:
.L342:
.LBE2509:
.LBE2508:
	.loc 2 615 0
	lwz 0,20(1)
	lwz 31,12(1)
.LVL541:
	mtlr 0
	addi 1,1,16
	.cfi_remember_state
.LCFI75:
	.cfi_def_cfa_offset 0
	.cfi_restore 31
	blr
.LVL542:
.L345:
.LCFI76:
	.cfi_restore_state
.LBB2511:
.LBB2510:
	.loc 2 610 0
	lis 9,gameLocal+2426836@ha
	lwz 4,gameLocal+2426836@l(9)
	bl _ZN10idEntityFx3RunEi
.LVL543:
	b .L344
.LBE2510:
.LBE2511:
	.cfi_endproc
.LFE2842:
	.size	_ZN10idEntityFx5ThinkEv, .-_ZN10idEntityFx5ThinkEv
	.align 2
	.globl _ZN10idEntityFx7StartFxEPKcPK6idVec3PK6idMat3P8idEntityb
	.type	_ZN10idEntityFx7StartFxEPKcPK6idVec3PK6idMat3P8idEntityb, @function
_ZN10idEntityFx7StartFxEPKcPK6idVec3PK6idMat3P8idEntityb:
.LFB2845:
	.loc 2 690 0
	.cfi_startproc
	.cfi_personality 0,__gxx_personality_v0
	.cfi_lsda 0,.LLSDA2845
.LVL544:
	mflr 0
	stwu 1,-88(1)
.LCFI77:
	.cfi_def_cfa_offset 88
	.cfi_register 65, 0
.LBB2565:
.LBB2566:
.LBB2567:
	.loc 2 692 0
	lis 9,g_skipFX+44@ha
.LBE2567:
.LBE2566:
.LBE2565:
	.loc 2 690 0
	stw 26,64(1)
	mr 26,7
	.cfi_offset 26, -24
	stw 27,68(1)
	mr 27,5
	.cfi_offset 27, -20
	stw 28,72(1)
	mr 28,4
	.cfi_offset 28, -16
	stw 29,76(1)
.LBB2657:
	.loc 2 693 0
	li 29,0
	.cfi_offset 29, -12
.LBE2657:
	.loc 2 690 0
	stw 30,80(1)
	mr 30,6
	.cfi_offset 30, -8
	stw 31,84(1)
	mr 31,3
	.cfi_offset 31, -4
	stw 0,92(1)
	stw 25,60(1)
.LBB2658:
.LBB2569:
.LBB2568:
	.loc 16 142 0
	lwz 9,g_skipFX+44@l(9)
.LBE2568:
.LBE2569:
	.loc 2 692 0
	lwz 0,36(9)
	.cfi_offset 25, -28
	.cfi_offset 65, 4
	cmpwi 7,0,0
	bne- 7,.L368
	.loc 2 692 0 is_stmt 0 discriminator 2
	cmpwi 7,3,0
	beq- 7,.L368
	.loc 2 692 0 discriminator 3
	lbz 9,0(3)
	.loc 2 693 0 is_stmt 1 discriminator 3
	mr 29,0
	.loc 2 692 0 discriminator 3
	cmpwi 7,9,0
	beq- 7,.L368
.LVL545:
.LBB2570:
.LBB2571:
.LBB2572:
	.loc 5 159 0
	li 9,16
.LBE2572:
.LBE2571:
.LBB2576:
.LBB2577:
	.loc 17 112 0
	addi 3,1,24
.LVL546:
	li 4,1024
.LVL547:
	li 5,1024
.LVL548:
.LBE2577:
.LBE2576:
.LBB2579:
.LBB2575:
	.loc 5 159 0
	stw 9,16(1)
.LVL549:
.LBB2573:
.LBB2574:
	.loc 5 197 0
	stw 0,20(1)
	.loc 5 198 0
	stw 0,8(1)
	.loc 5 199 0
	stw 0,12(1)
.LVL550:
.LEHB13:
.LBE2574:
.LBE2573:
.LBE2575:
.LBE2579:
.LBB2580:
.LBB2578:
	.loc 17 112 0
	bl _ZN11idHashIndex4InitEii
.LEHE13:
.LVL551:
.LBE2578:
.LBE2580:
.LBB2581:
.LBB2582:
	.loc 5 319 0
	lwz 29,20(1)
	.loc 5 317 0
	li 0,16
	stw 0,16(1)
	.loc 5 319 0
	cmpwi 7,29,0
	beq- 7,.L349
	.loc 5 321 0
	lwz 9,8(1)
	.loc 5 323 0
	lwz 0,12(1)
	.loc 5 321 0
	addi 3,9,15
.LVL552:
	.loc 5 322 0
	srawi 3,3,4
	addze 3,3
.LVL553:
	slwi 3,3,4
.LVL554:
	.loc 5 323 0
	cmpw 7,3,0
	beq- 7,.L349
.LVL555:
.LBB2583:
.LBB2584:
	.loc 5 375 0
	cmpwi 7,3,0
	ble- 7,.L384
.LVL556:
	.loc 5 387 0
	cmpw 7,9,3
	.loc 5 386 0
	stw 3,12(1)
	.loc 5 387 0
	bgt- 7,.L385
.L351:
	.loc 5 392 0
	slwi 3,3,3
.LVL557:
.LEHB14:
	bl _Znaj
.LVL558:
	.loc 5 393 0
	lwz 0,8(1)
	.loc 5 392 0
	stw 3,20(1)
.LVL559:
	.loc 5 393 0
	cmpwi 7,0,0
	ble- 7,.L352
	.loc 2 690 0
	addi 8,29,-8
.LBE2584:
.LBE2583:
.LBE2582:
.LBE2581:
.LBE2570:
.LBE2658:
	.loc 5 393 0
	li 9,0
	b .L353
.LVL560:
.L386:
.LBB2659:
.LBB2619:
.LBB2596:
.LBB2593:
.LBB2590:
.LBB2587:
	lwz 3,20(1)
.LVL561:
.L353:
	.loc 5 394 0
	addi 8,8,8
	slwi 0,9,3
	lwz 10,0(8)
	add 3,3,0
	lwz 11,4(8)
	.loc 5 393 0
	addi 9,9,1
.LVL562:
	.loc 5 394 0
	stw 10,0(3)
	stw 11,4(3)
	.loc 5 393 0
	lwz 0,8(1)
	cmpw 7,9,0
	blt+ 7,.L386
.LVL563:
.L352:
	.loc 5 399 0
	mr 3,29
	bl _ZdaPv
.LVL564:
.L349:
.LBE2587:
.LBE2590:
.LBE2593:
.LBE2596:
.LBB2597:
.LBB2598:
	.loc 17 371 0
	li 0,16
.LBE2598:
.LBE2597:
.LBB2600:
.LBB2601:
	.loc 17 341 0
	addi 3,1,24
.LVL565:
.LBE2601:
.LBE2600:
.LBB2606:
.LBB2599:
	.loc 17 371 0
	stw 0,40(1)
.LVL566:
.LBE2599:
.LBE2606:
.LBB2607:
.LBB2602:
	.loc 17 341 0
	bl _ZN11idHashIndex4FreeEv
.LEHE14:
.LVL567:
	.loc 17 342 0
	li 0,128
.LBE2602:
.LBE2607:
.LBE2619:
.LBB2620:
.LBB2621:
	.loc 10 197 0
	lis 3,.LC31@ha
.LBE2621:
.LBE2620:
.LBB2625:
.LBB2608:
.LBB2603:
	.loc 17 342 0
	stw 0,24(1)
.LBE2603:
.LBE2608:
.LBE2625:
.LBB2626:
.LBB2622:
	.loc 10 197 0
	la 3,.LC31@l(3)
.LBE2622:
.LBE2626:
.LBB2627:
.LBB2609:
.LBB2604:
	.loc 17 343 0
	li 0,16
.LBE2604:
.LBE2609:
.LBE2627:
.LBB2628:
.LBB2623:
	.loc 10 197 0
	li 4,1
.LBE2623:
.LBE2628:
.LBB2629:
.LBB2610:
.LBB2605:
	.loc 17 343 0
	stw 0,32(1)
.LVL568:
	addi 25,1,8
.LEHB15:
.LBE2605:
.LBE2610:
.LBE2629:
.LBB2630:
.LBB2624:
	.loc 10 197 0
	crxor 6,6,6
	bl _Z2vaPKcz
	addi 25,1,8
	lis 4,.LC17@ha
	mr 5,3
	la 4,.LC17@l(4)
	mr 3,25
	bl _ZN6idDict3SetEPKcS1_
.LBE2624:
.LBE2630:
	.loc 2 698 0
	lis 4,.LC14@ha
	mr 3,25
	la 4,.LC14@l(4)
	mr 5,31
	bl _ZN6idDict3SetEPKcS1_
	.loc 2 699 0
	lis 31,gameLocal@ha
.LVL569:
	lis 4,.LANCHOR0@ha
	la 31,gameLocal@l(31)
	la 4,.LANCHOR0@l(4)
	mr 3,31
	mr 5,25
	li 6,0
	bl _ZN11idGameLocal15SpawnEntityTypeERK10idTypeInfoPK6idDictb
.LBB2631:
.LBB2632:
	.loc 2 205 0
	lwz 9,644(3)
.LBE2632:
.LBE2631:
	.loc 2 699 0
	mr 29,3
.LVL570:
.LBB2634:
.LBB2633:
	.loc 2 205 0
	cmpwi 7,9,0
	beq- 7,.L359
.LBE2633:
	.loc 2 796 0
	lwz 5,28(9)
.LBE2634:
	.loc 2 700 0
	cmpwi 7,5,0
	beq- 7,.L359
.LVL571:
	lbz 0,0(5)
	cmpwi 7,0,0
	beq- 7,.L359
.LVL572:
	.loc 2 701 0 discriminator 4
	mr 4,30
	li 6,1
	bl _ZN8idEntity11BindToJointEPS_PKcb
.LVL573:
	.loc 2 702 0
	lis 4,vec3_origin@ha
	mr 3,29
	la 4,vec3_origin@l(4)
	bl _ZN8idEntity9SetOriginERK6idVec3
.LVL574:
.L360:
	.loc 2 708 0
	cmpwi 7,26,0
	beq- 7,.L362
	.loc 2 710 0
	addis 31,31,0x1
	lwz 0,-32200(31)
	cmpw 7,0,30
	beq- 7,.L362
	.loc 2 711 0
	mr 3,29
	mr 4,30
	li 5,1
	bl _ZN8idEntity4BindEPS_b
.L362:
	.loc 2 714 0
	lwz 9,0(29)
	mr 3,29
	lwz 0,80(9)
	mtctr 0
	bctrl
.LEHE15:
.LVL575:
.LBB2635:
.LBB2636:
.LBB2637:
	.loc 10 174 0
	mr 3,25
.LEHB16:
	bl _ZN6idDict5ClearEv
.LEHE16:
.LVL576:
.LBB2638:
.LBB2639:
.LBB2640:
	.loc 17 130 0
	addi 3,1,24
.LVL577:
.LEHB17:
	bl _ZN11idHashIndex4FreeEv
.LEHE17:
.LVL578:
.LBE2640:
.LBE2639:
.LBE2638:
.LBB2641:
.LBB2642:
.LBB2643:
.LBB2644:
	.loc 5 193 0
	lwz 3,20(1)
	cmpwi 7,3,0
	beq- 7,.L368
	.loc 5 194 0
	bl _ZdaPv
.LVL579:
.L368:
.LBE2644:
.LBE2643:
.LBE2642:
.LBE2641:
.LBE2637:
.LBE2636:
.LBE2635:
.LBE2659:
	.loc 2 716 0
	lwz 0,92(1)
	mr 3,29
	lwz 25,60(1)
	mtlr 0
	lwz 26,64(1)
	lwz 27,68(1)
	lwz 28,72(1)
	lwz 29,76(1)
	lwz 30,80(1)
.LVL580:
	lwz 31,84(1)
	addi 1,1,88
	.cfi_remember_state
.LCFI78:
	.cfi_def_cfa_offset 0
	.cfi_restore 31
	.cfi_restore 30
	.cfi_restore 29
	.cfi_restore 28
	.cfi_restore 27
	.cfi_restore 26
	.cfi_restore 25
	blr
.LVL581:
.L359:
.LCFI79:
	.cfi_restore_state
.LBB2660:
	.loc 2 704 0
	cmpwi 7,28,0
	beq- 7,.L387
.LVL582:
.L372:
	.loc 2 704 0 is_stmt 0 discriminator 4
	mr 3,29
	mr 4,28
.LEHB18:
	bl _ZN8idEntity9SetOriginERK6idVec3
	.loc 2 705 0 is_stmt 1
	cmpwi 7,27,0
	beq- 7,.L388
.LVL583:
.L361:
	.loc 2 705 0 is_stmt 0 discriminator 4
	mr 3,29
	mr 4,27
	bl _ZN8idEntity7SetAxisERK6idMat3
	b .L360
.LVL584:
.L385:
.LBB2653:
.LBB2611:
.LBB2594:
.LBB2591:
.LBB2588:
	.loc 5 388 0 is_stmt 1
	stw 3,8(1)
	b .L351
.LVL585:
.L388:
.LBE2588:
.LBE2591:
.LBE2594:
.LBE2611:
.LBE2653:
	.loc 2 705 0 discriminator 1
	mr 3,30
	bl _ZNK8idEntity10GetPhysicsEv
	lwz 9,0(3)
	li 4,0
	lwz 0,136(9)
	mtctr 0
	bctrl
	mr 27,3
.LVL586:
	b .L361
.LVL587:
.L387:
	.loc 2 704 0 discriminator 1
	mr 3,30
	bl _ZNK8idEntity10GetPhysicsEv
	lwz 9,0(3)
	li 4,0
	lwz 0,132(9)
	mtctr 0
	bctrl
.LEHE18:
	mr 28,3
.LVL588:
	b .L372
.LVL589:
.L384:
.LBB2654:
.LBB2612:
.LBB2595:
.LBB2592:
.LBB2589:
.LBB2585:
.LBB2586:
	.loc 5 194 0
	mr 3,29
.LVL590:
	bl _ZdaPv
	.loc 5 197 0
	li 0,0
	stw 0,20(1)
	.loc 5 198 0
	stw 0,8(1)
	.loc 5 199 0
	stw 0,12(1)
	b .L349
.LVL591:
.L376:
	mr 31,3
.LBE2586:
.LBE2585:
.LBE2589:
.LBE2592:
.LBE2595:
.LBE2612:
.LBE2654:
	.loc 2 715 0
	mr 3,25
	bl _ZN6idDictD1Ev
	mr 3,31
.LEHB19:
	bl _Unwind_Resume
.LEHE19:
.LVL592:
.L380:
	mr 31,3
.LVL593:
.LBB2655:
.LBB2652:
.LBB2651:
.LBB2645:
.LBB2646:
.LBB2647:
	.loc 17 130 0
	addi 3,1,24
.LVL594:
	bl _ZN11idHashIndex4FreeEv
.LVL595:
.L366:
.LBE2647:
.LBE2646:
.LBE2645:
.LBB2648:
.LBB2649:
.LBB2650:
	.loc 5 181 0
	mr 3,25
	bl _ZN6idListI10idKeyValueE5ClearEv
	mr 3,31
.LEHB20:
	bl _Unwind_Resume
.LVL596:
.L379:
	mr 31,3
	b .L366
.LVL597:
.L377:
	mr 31,3
.LVL598:
.L357:
.LBE2650:
.LBE2649:
.LBE2648:
.LBE2651:
.LBE2652:
.LBE2655:
.LBB2656:
.LBB2613:
.LBB2614:
.LBB2615:
	addi 3,1,8
	bl _ZN6idListI10idKeyValueE5ClearEv
	mr 3,31
	bl _Unwind_Resume
.LEHE20:
.LVL599:
.L378:
	mr 31,3
.LVL600:
.LBE2615:
.LBE2614:
.LBE2613:
.LBB2616:
.LBB2617:
.LBB2618:
	.loc 17 130 0
	addi 3,1,24
.LVL601:
	bl _ZN11idHashIndex4FreeEv
.LVL602:
	b .L357
.LBE2618:
.LBE2617:
.LBE2616:
.LBE2656:
.LBE2660:
	.cfi_endproc
.LFE2845:
	.section	.gcc_except_table
.LLSDA2845:
	.byte	0xff
	.byte	0xff
	.byte	0x1
	.uleb128 .LLSDACSE2845-.LLSDACSB2845
.LLSDACSB2845:
	.uleb128 .LEHB13-.LFB2845
	.uleb128 .LEHE13-.LEHB13
	.uleb128 .L377-.LFB2845
	.uleb128 0
	.uleb128 .LEHB14-.LFB2845
	.uleb128 .LEHE14-.LEHB14
	.uleb128 .L378-.LFB2845
	.uleb128 0
	.uleb128 .LEHB15-.LFB2845
	.uleb128 .LEHE15-.LEHB15
	.uleb128 .L376-.LFB2845
	.uleb128 0
	.uleb128 .LEHB16-.LFB2845
	.uleb128 .LEHE16-.LEHB16
	.uleb128 .L380-.LFB2845
	.uleb128 0
	.uleb128 .LEHB17-.LFB2845
	.uleb128 .LEHE17-.LEHB17
	.uleb128 .L379-.LFB2845
	.uleb128 0
	.uleb128 .LEHB18-.LFB2845
	.uleb128 .LEHE18-.LEHB18
	.uleb128 .L376-.LFB2845
	.uleb128 0
	.uleb128 .LEHB19-.LFB2845
	.uleb128 .LEHE19-.LEHB19
	.uleb128 0
	.uleb128 0
	.uleb128 .LEHB20-.LFB2845
	.uleb128 .LEHE20-.LEHB20
	.uleb128 0
	.uleb128 0
.LLSDACSE2845:
	.section	".text"
	.size	_ZN10idEntityFx7StartFxEPKcPK6idVec3PK6idMat3P8idEntityb, .-_ZN10idEntityFx7StartFxEPKcPK6idVec3PK6idMat3P8idEntityb
	.section	.text._ZN6idListI15idFXLocalActionE5ClearEv,"axG",@progbits,_ZN6idListI15idFXLocalActionE5ClearEv,comdat
	.align 2
	.weak	_ZN6idListI15idFXLocalActionE5ClearEv
	.type	_ZN6idListI15idFXLocalActionE5ClearEv, @function
_ZN6idListI15idFXLocalActionE5ClearEv:
.LFB3129:
	.loc 5 192 0
	.cfi_startproc
.LVL603:
	mflr 0
	stwu 1,-16(1)
.LCFI80:
	.cfi_def_cfa_offset 16
	.cfi_register 65, 0
	stw 31,12(1)
	mr 31,3
	.cfi_offset 31, -4
	stw 0,20(1)
	.loc 5 193 0
	lwz 3,12(3)
.LVL604:
	cmpwi 7,3,0
	beq- 7,.L390
	.cfi_offset 65, 4
	.loc 5 194 0 discriminator 1
	bl _ZdaPv
.L390:
	.loc 5 197 0
	li 0,0
	stw 0,12(31)
	.loc 5 198 0
	stw 0,0(31)
	.loc 5 199 0
	stw 0,4(31)
	.loc 5 200 0
	lwz 0,20(1)
	lwz 31,12(1)
.LVL605:
	mtlr 0
	addi 1,1,16
.LCFI81:
	.cfi_def_cfa_offset 0
	.cfi_restore 31
	blr
	.cfi_endproc
.LFE3129:
	.size	_ZN6idListI15idFXLocalActionE5ClearEv, .-_ZN6idListI15idFXLocalActionE5ClearEv
	.section	".text"
	.align 2
	.globl _ZN10idEntityFxD2Ev
	.type	_ZN10idEntityFxD2Ev, @function
_ZN10idEntityFxD2Ev:
.LFB2838:
	.loc 2 567 0
	.cfi_startproc
	.cfi_personality 0,__gxx_personality_v0
	.cfi_lsda 0,.LLSDA2838
.LVL606:
	mflr 0
	stwu 1,-16(1)
.LCFI82:
	.cfi_def_cfa_offset 16
	.cfi_register 65, 0
.LBB2676:
	lis 9,_ZTV10idEntityFx+8@ha
.LBE2676:
	stw 31,12(1)
	mr 31,3
	.cfi_offset 31, -4
	stw 0,20(1)
.LBB2697:
	la 0,_ZTV10idEntityFx+8@l(9)
	.cfi_offset 65, 4
.LBE2697:
	stw 30,8(1)
.LBB2698:
	.loc 2 567 0
	stw 0,0(3)
.LEHB21:
	.loc 2 568 0
	.cfi_offset 30, -8
	bl _ZN10idEntityFx7CleanUpEv
.LEHE21:
.LVL607:
	.loc 2 569 0
	li 0,0
.LBB2677:
.LBB2678:
.LBB2679:
	.loc 18 501 0
	addi 3,31,664
.LBE2679:
.LBE2678:
.LBE2677:
	.loc 2 569 0
	stw 0,644(31)
.LVL608:
.LEHB22:
.LBB2682:
.LBB2681:
.LBB2680:
	.loc 18 501 0
	bl _ZN5idStr8FreeDataEv
.LEHE22:
.LVL609:
.LBE2680:
.LBE2681:
.LBE2682:
.LBB2683:
.LBB2684:
.LBB2685:
.LBB2686:
	.loc 5 193 0 discriminator 1
	lwz 3,660(31)
	cmpwi 7,3,0
	beq- 7,.L393
	.loc 5 194 0
	bl _ZdaPv
.L393:
	.loc 5 197 0
	li 0,0
.LBE2686:
.LBE2685:
.LBE2684:
.LBE2683:
	.loc 2 567 0
	mr 3,31
.LBB2690:
.LBB2689:
.LBB2688:
.LBB2687:
	.loc 5 197 0
	stw 0,660(31)
	.loc 5 198 0
	stw 0,648(31)
	.loc 5 199 0
	stw 0,652(31)
.LEHB23:
.LBE2687:
.LBE2688:
.LBE2689:
.LBE2690:
	.loc 2 567 0
	bl _ZN8idEntityD2Ev
.LEHE23:
.LBE2698:
	.loc 2 570 0
	lwz 0,20(1)
	lwz 30,8(1)
	mtlr 0
	lwz 31,12(1)
.LVL610:
	addi 1,1,16
	.cfi_remember_state
.LCFI83:
	.cfi_def_cfa_offset 0
	.cfi_restore 31
	.cfi_restore 30
	blr
.LVL611:
.L400:
.LCFI84:
	.cfi_restore_state
	mr 30,3
.LVL612:
.LBB2699:
.LBB2691:
.LBB2692:
.LBB2693:
	.loc 18 501 0
	addi 3,31,664
	bl _ZN5idStr8FreeDataEv
.LVL613:
.L398:
.LBE2693:
.LBE2692:
.LBE2691:
.LBB2694:
.LBB2695:
.LBB2696:
	.loc 5 181 0
	addi 3,31,648
	bl _ZN6idListI15idFXLocalActionE5ClearEv
.LBE2696:
.LBE2695:
.LBE2694:
	.loc 2 567 0
	mr 3,31
	bl _ZN8idEntityD2Ev
	mr 3,30
.LEHB24:
	bl _Unwind_Resume
.LEHE24:
.LVL614:
.L401:
	mr 30,3
	b .L398
.LBE2699:
	.cfi_endproc
.LFE2838:
	.section	.gcc_except_table
.LLSDA2838:
	.byte	0xff
	.byte	0xff
	.byte	0x1
	.uleb128 .LLSDACSE2838-.LLSDACSB2838
.LLSDACSB2838:
	.uleb128 .LEHB21-.LFB2838
	.uleb128 .LEHE21-.LEHB21
	.uleb128 .L400-.LFB2838
	.uleb128 0
	.uleb128 .LEHB22-.LFB2838
	.uleb128 .LEHE22-.LEHB22
	.uleb128 .L401-.LFB2838
	.uleb128 0
	.uleb128 .LEHB23-.LFB2838
	.uleb128 .LEHE23-.LEHB23
	.uleb128 0
	.uleb128 0
	.uleb128 .LEHB24-.LFB2838
	.uleb128 .LEHE24-.LEHB24
	.uleb128 0
	.uleb128 0
.LLSDACSE2838:
	.section	".text"
	.size	_ZN10idEntityFxD2Ev, .-_ZN10idEntityFxD2Ev
	.section	.text._ZN12idTeleporterD2Ev,"axG",@progbits,_ZN12idTeleporterD5Ev,comdat
	.align 2
	.weak	_ZN12idTeleporterD2Ev
	.type	_ZN12idTeleporterD2Ev, @function
_ZN12idTeleporterD2Ev:
.LFB3133:
	.loc 14 97 0
	.cfi_startproc
.LVL615:
.LBB2701:
	.loc 14 97 0
	lis 9,_ZTV12idTeleporter+8@ha
.LBE2701:
.LBB2702:
	la 0,_ZTV12idTeleporter+8@l(9)
	stw 0,0(3)
	b _ZN10idEntityFxD2Ev
.LVL616:
.LBE2702:
	.cfi_endproc
.LFE3133:
	.size	_ZN12idTeleporterD2Ev, .-_ZN12idTeleporterD2Ev
	.section	".text"
	.align 2
	.globl _ZN10idEntityFxD0Ev
	.type	_ZN10idEntityFxD0Ev, @function
_ZN10idEntityFxD0Ev:
.LFB2840:
	.loc 2 567 0
	.cfi_startproc
.LVL617:
	stwu 1,-16(1)
.LCFI85:
	.cfi_def_cfa_offset 16
	mflr 0
	stw 31,12(1)
	mr 31,3
	.cfi_offset 31, -4
	.cfi_register 65, 0
	stw 0,20(1)
	.loc 2 570 0
	.cfi_offset 65, 4
	bl _ZN10idEntityFxD1Ev
.LVL618:
	mr 3,31
	bl _ZN7idClassdlEPv
	lwz 0,20(1)
	lwz 31,12(1)
.LVL619:
	mtlr 0
	addi 1,1,16
.LCFI86:
	.cfi_def_cfa_offset 0
	.cfi_restore 31
	blr
	.cfi_endproc
.LFE2840:
	.size	_ZN10idEntityFxD0Ev, .-_ZN10idEntityFxD0Ev
	.section	.text._ZN12idTeleporterD0Ev,"axG",@progbits,_ZN12idTeleporterD5Ev,comdat
	.align 2
	.weak	_ZN12idTeleporterD0Ev
	.type	_ZN12idTeleporterD0Ev, @function
_ZN12idTeleporterD0Ev:
.LFB3135:
	.loc 14 97 0
	.cfi_startproc
.LVL620:
	mflr 0
	stwu 1,-16(1)
.LCFI87:
	.cfi_def_cfa_offset 16
	.cfi_register 65, 0
.LBB2706:
.LBB2707:
.LBB2708:
	lis 9,_ZTV12idTeleporter+8@ha
.LBE2708:
.LBE2707:
.LBE2706:
	stw 31,12(1)
	mr 31,3
	.cfi_offset 31, -4
.LVL621:
	stw 0,20(1)
.LBB2711:
.LBB2710:
.LBB2709:
	.loc 14 97 0
	la 0,_ZTV12idTeleporter+8@l(9)
	.cfi_offset 65, 4
	stw 0,0(3)
	bl _ZN10idEntityFxD2Ev
.LVL622:
.LBE2709:
.LBE2710:
.LBE2711:
	mr 3,31
	bl _ZN7idClassdlEPv
	lwz 0,20(1)
	lwz 31,12(1)
.LVL623:
	mtlr 0
	addi 1,1,16
.LCFI88:
	.cfi_def_cfa_offset 0
	.cfi_restore 31
	blr
	.cfi_endproc
.LFE3135:
	.size	_ZN12idTeleporterD0Ev, .-_ZN12idTeleporterD0Ev
	.section	".text"
	.align 2
	.globl _ZN10idEntityFxC2Ev
	.type	_ZN10idEntityFxC2Ev, @function
_ZN10idEntityFxC2Ev:
.LFB2835:
	.loc 2 551 0
	.cfi_startproc
	.cfi_personality 0,__gxx_personality_v0
	.cfi_lsda 0,.LLSDA2835
.LVL624:
	mflr 0
	stwu 1,-16(1)
.LCFI89:
	.cfi_def_cfa_offset 16
	.cfi_register 65, 0
	stw 31,12(1)
	mr 31,3
	.cfi_offset 31, -4
	stw 0,20(1)
	stw 30,8(1)
.LEHB25:
.LBB2726:
	.loc 2 551 0
	.cfi_offset 30, -8
	.cfi_offset 65, 4
	bl _ZN8idEntityC2Ev
.LEHE25:
.LVL625:
	lis 11,_ZTV10idEntityFx+8@ha
.LBB2727:
.LBB2728:
.LBB2729:
.LBB2730:
	.loc 5 197 0
	li 0,0
.LBE2730:
.LBE2729:
.LBE2728:
.LBE2727:
	.loc 2 551 0
	la 11,_ZTV10idEntityFx+8@l(11)
.LBB2738:
.LBB2739:
.LBB2740:
	.loc 18 358 0
	addi 9,31,676
.LBE2740:
.LBE2739:
.LBE2738:
	.loc 2 551 0
	stw 11,0(31)
.LVL626:
.LBB2745:
.LBB2735:
	.loc 5 159 0
	li 11,16
	stw 11,656(31)
.LVL627:
.LBE2735:
.LBE2745:
.LBB2746:
.LBB2743:
.LBB2741:
	.loc 18 357 0
	li 11,20
.LBE2741:
.LBE2743:
.LBE2746:
	.loc 2 553 0
	lis 3,.LC32@ha
.LBB2747:
.LBB2736:
.LBB2733:
.LBB2731:
	.loc 5 197 0
	stw 0,660(31)
	.loc 5 198 0
	stw 0,648(31)
.LBE2731:
.LBE2733:
.LBE2736:
.LBE2747:
	.loc 2 553 0
	la 3,.LC32@l(3)
.LBB2748:
.LBB2737:
.LBB2734:
.LBB2732:
	.loc 5 199 0
	stw 0,652(31)
.LVL628:
.LBE2732:
.LBE2734:
.LBE2737:
.LBE2748:
	.loc 2 553 0
	li 4,696
.LBB2749:
.LBB2744:
.LBB2742:
	.loc 18 356 0
	stw 0,664(31)
	.loc 18 357 0
	stw 11,672(31)
	.loc 18 358 0
	stw 9,668(31)
	.loc 18 359 0
	stb 0,676(31)
.LEHB26:
.LBE2742:
.LBE2744:
.LBE2749:
	.loc 2 553 0
	crxor 6,6,6
	bl _Z15Sys_DebugPrintfPKcz
.LEHE26:
	.loc 2 559 0
	lwz 0,192(31)
	li 11,1
	.loc 2 557 0
	li 9,-1
	.loc 2 559 0
	rlwimi 0,11,20,11,11
	.loc 2 556 0
	li 11,0
	stw 11,644(31)
	.loc 2 557 0
	stw 9,636(31)
	.loc 2 558 0
	stw 9,640(31)
	.loc 2 559 0
	stw 0,192(31)
.LBE2726:
	.loc 2 560 0
	lwz 0,20(1)
	lwz 30,8(1)
	mtlr 0
	lwz 31,12(1)
.LVL629:
	addi 1,1,16
	.cfi_remember_state
.LCFI90:
	.cfi_def_cfa_offset 0
	.cfi_restore 31
	.cfi_restore 30
	blr
.LVL630:
.L413:
.LCFI91:
	.cfi_restore_state
	mr 30,3
.LVL631:
.LBB2756:
.LBB2750:
.LBB2751:
.LBB2752:
	.loc 18 501 0
	addi 3,31,664
	bl _ZN5idStr8FreeDataEv
.LVL632:
.LBE2752:
.LBE2751:
.LBE2750:
.LBB2753:
.LBB2754:
.LBB2755:
	.loc 5 181 0
	addi 3,31,648
	bl _ZN6idListI15idFXLocalActionE5ClearEv
.LBE2755:
.LBE2754:
.LBE2753:
	.loc 2 551 0
	mr 3,31
	bl _ZN8idEntityD2Ev
	mr 3,30
.LEHB27:
	bl _Unwind_Resume
.LEHE27:
.LBE2756:
	.cfi_endproc
.LFE2835:
	.section	.gcc_except_table
.LLSDA2835:
	.byte	0xff
	.byte	0xff
	.byte	0x1
	.uleb128 .LLSDACSE2835-.LLSDACSB2835
.LLSDACSB2835:
	.uleb128 .LEHB25-.LFB2835
	.uleb128 .LEHE25-.LEHB25
	.uleb128 0
	.uleb128 0
	.uleb128 .LEHB26-.LFB2835
	.uleb128 .LEHE26-.LEHB26
	.uleb128 .L413-.LFB2835
	.uleb128 0
	.uleb128 .LEHB27-.LFB2835
	.uleb128 .LEHE27-.LEHB27
	.uleb128 0
	.uleb128 0
.LLSDACSE2835:
	.section	".text"
	.size	_ZN10idEntityFxC2Ev, .-_ZN10idEntityFxC2Ev
	.align 2
	.globl _ZN12idTeleporter14CreateInstanceEv
	.type	_ZN12idTeleporter14CreateInstanceEv, @function
_ZN12idTeleporter14CreateInstanceEv:
.LFB2849:
	.loc 2 781 0
	.cfi_startproc
	.cfi_personality 0,__gxx_personality_v0
	.cfi_lsda 0,.LLSDA2849
	mflr 0
	stwu 1,-24(1)
.LCFI92:
	.cfi_def_cfa_offset 24
	.cfi_register 65, 0
.LBB2757:
	li 3,696
.LBE2757:
	stw 30,16(1)
	stw 0,28(1)
	stw 31,20(1)
.LEHB28:
.LBB2762:
	.loc 2 781 0
	.cfi_offset 31, -4
	.cfi_offset 65, 4
	.cfi_offset 30, -8
	bl _ZN7idClassnwEj
.LEHE28:
	mr 31,3
.LVL633:
.LEHB29:
.LBB2758:
.LBB2759:
	.loc 14 97 0
	bl _ZN10idEntityFxC2Ev
.LEHE29:
.LVL634:
	lis 9,_ZTV12idTeleporter+8@ha
.LBE2759:
.LBE2758:
	.loc 2 781 0
	mr 3,31
.LBB2761:
.LBB2760:
	.loc 14 97 0
	la 0,_ZTV12idTeleporter+8@l(9)
	stw 0,0(31)
.LVL635:
.LEHB30:
.LBE2760:
.LBE2761:
	.loc 2 781 0
	bl _ZN7idClass23FindUninitializedMemoryEv
.LEHE30:
.LVL636:
.L419:
.LBE2762:
	lwz 0,28(1)
	mr 3,31
	lwz 30,16(1)
	mtlr 0
	lwz 31,20(1)
	addi 1,1,24
	.cfi_remember_state
.LCFI93:
	.cfi_def_cfa_offset 0
	.cfi_restore 31
	.cfi_restore 30
	blr
.L420:
.L416:
.LCFI94:
	.cfi_restore_state
.LBB2763:
	cmpwi 7,4,1
	beq- 7,.L418
.LEHB31:
	bl _Unwind_Resume
.LEHE31:
.LVL637:
.L421:
	mr 30,3
	mr 3,31
	stw 4,8(1)
	bl _ZN7idClassdlEPv
	mr 3,30
	lwz 4,8(1)
	b .L416
.LVL638:
.L418:
.LBE2763:
.LBB2764:
	bl __cxa_begin_catch
	li 31,0
	bl __cxa_end_catch
	b .L419
.LBE2764:
	.cfi_endproc
.LFE2849:
	.section	.gcc_except_table
	.align 2
.LLSDA2849:
	.byte	0xff
	.byte	0
	.uleb128 .LLSDATT2849-.LLSDATTD2849
.LLSDATTD2849:
	.byte	0x1
	.uleb128 .LLSDACSE2849-.LLSDACSB2849
.LLSDACSB2849:
	.uleb128 .LEHB28-.LFB2849
	.uleb128 .LEHE28-.LEHB28
	.uleb128 .L420-.LFB2849
	.uleb128 0x1
	.uleb128 .LEHB29-.LFB2849
	.uleb128 .LEHE29-.LEHB29
	.uleb128 .L421-.LFB2849
	.uleb128 0x3
	.uleb128 .LEHB30-.LFB2849
	.uleb128 .LEHE30-.LEHB30
	.uleb128 .L420-.LFB2849
	.uleb128 0x1
	.uleb128 .LEHB31-.LFB2849
	.uleb128 .LEHE31-.LEHB31
	.uleb128 0
	.uleb128 0
.LLSDACSE2849:
	.byte	0x1
	.byte	0
	.byte	0
	.byte	0x7d
	.align 2
	.long	_ZTI12idAllocError
.LLSDATT2849:
	.section	".text"
	.size	_ZN12idTeleporter14CreateInstanceEv, .-_ZN12idTeleporter14CreateInstanceEv
	.align 2
	.globl _ZN10idEntityFx14CreateInstanceEv
	.type	_ZN10idEntityFx14CreateInstanceEv, @function
_ZN10idEntityFx14CreateInstanceEv:
.LFB2810:
	.loc 2 45 0
	.cfi_startproc
	.cfi_personality 0,__gxx_personality_v0
	.cfi_lsda 0,.LLSDA2810
	mflr 0
	stwu 1,-24(1)
.LCFI95:
	.cfi_def_cfa_offset 24
	.cfi_register 65, 0
.LBB2765:
	li 3,696
.LBE2765:
	stw 30,16(1)
	stw 0,28(1)
	stw 31,20(1)
.LEHB32:
.LBB2766:
	.loc 2 45 0
	.cfi_offset 31, -4
	.cfi_offset 65, 4
	.cfi_offset 30, -8
	bl _ZN7idClassnwEj
.LEHE32:
	mr 31,3
.LEHB33:
	bl _ZN10idEntityFxC1Ev
.LEHE33:
.LVL639:
	.loc 2 45 0 is_stmt 0 discriminator 2
	mr 3,31
.LEHB34:
	bl _ZN7idClass23FindUninitializedMemoryEv
.LEHE34:
.LVL640:
.L427:
.LBE2766:
	.loc 2 45 0
	lwz 0,28(1)
	mr 3,31
	lwz 30,16(1)
	mtlr 0
	lwz 31,20(1)
	addi 1,1,24
	.cfi_remember_state
.LCFI96:
	.cfi_def_cfa_offset 0
	.cfi_restore 31
	.cfi_restore 30
	blr
.L428:
.L424:
.LCFI97:
	.cfi_restore_state
.LBB2767:
	cmpwi 7,4,1
	beq- 7,.L426
.LEHB35:
	bl _Unwind_Resume
.LEHE35:
.L429:
	mr 30,3
	mr 3,31
	stw 4,8(1)
	bl _ZN7idClassdlEPv
	mr 3,30
	lwz 4,8(1)
	b .L424
.L426:
.LBE2767:
.LBB2768:
	bl __cxa_begin_catch
	li 31,0
	bl __cxa_end_catch
	b .L427
.LBE2768:
	.cfi_endproc
.LFE2810:
	.section	.gcc_except_table
	.align 2
.LLSDA2810:
	.byte	0xff
	.byte	0
	.uleb128 .LLSDATT2810-.LLSDATTD2810
.LLSDATTD2810:
	.byte	0x1
	.uleb128 .LLSDACSE2810-.LLSDACSB2810
.LLSDACSB2810:
	.uleb128 .LEHB32-.LFB2810
	.uleb128 .LEHE32-.LEHB32
	.uleb128 .L428-.LFB2810
	.uleb128 0x1
	.uleb128 .LEHB33-.LFB2810
	.uleb128 .LEHE33-.LEHB33
	.uleb128 .L429-.LFB2810
	.uleb128 0x3
	.uleb128 .LEHB34-.LFB2810
	.uleb128 .LEHE34-.LEHB34
	.uleb128 .L428-.LFB2810
	.uleb128 0x1
	.uleb128 .LEHB35-.LFB2810
	.uleb128 .LEHE35-.LEHB35
	.uleb128 0
	.uleb128 0
.LLSDACSE2810:
	.byte	0x1
	.byte	0
	.byte	0
	.byte	0x7d
	.align 2
	.long	_ZTI12idAllocError
.LLSDATT2810:
	.section	".text"
	.size	_ZN10idEntityFx14CreateInstanceEv, .-_ZN10idEntityFx14CreateInstanceEv
	.section	.text.startup,"ax",@progbits
	.align 2
	.type	_GLOBAL__sub_I__ZN10idEntityFx4TypeE, @function
_GLOBAL__sub_I__ZN10idEntityFx4TypeE:
.LFB3160:
	.loc 2 796 0 is_stmt 1
	.cfi_startproc
	.loc 2 796 0
	li 3,1
	b _Z41__static_initialization_and_destruction_0ii.constprop.34
	.cfi_endproc
.LFE3160:
	.size	_GLOBAL__sub_I__ZN10idEntityFx4TypeE, .-_GLOBAL__sub_I__ZN10idEntityFx4TypeE
	.section	.ctors,"aw",@progbits
	.align 2
	.long	_GLOBAL__sub_I__ZN10idEntityFx4TypeE
	.section	.text.exit,"ax",@progbits
	.align 2
	.type	_GLOBAL__sub_D__ZN10idEntityFx4TypeE, @function
_GLOBAL__sub_D__ZN10idEntityFx4TypeE:
.LFB3161:
	.loc 2 796 0
	.cfi_startproc
	.loc 2 796 0
	li 3,0
	b _Z41__static_initialization_and_destruction_0ii.constprop.34
	.cfi_endproc
.LFE3161:
	.size	_GLOBAL__sub_D__ZN10idEntityFx4TypeE, .-_GLOBAL__sub_D__ZN10idEntityFx4TypeE
	.section	.dtors,"aw",@progbits
	.align 2
	.long	_GLOBAL__sub_D__ZN10idEntityFx4TypeE
	.weak	_ZTS9idWinding
	.section	.rodata._ZTS9idWinding,"aG",@progbits,_ZTS9idWinding,comdat
	.align 2
	.type	_ZTS9idWinding, @object
	.size	_ZTS9idWinding, 11
_ZTS9idWinding:
	.string	"9idWinding"
	.weak	_ZTI9idWinding
	.section	.sdata._ZTI9idWinding,"awG",@progbits,_ZTI9idWinding,comdat
	.align 2
	.type	_ZTI9idWinding, @object
	.size	_ZTI9idWinding, 8
_ZTI9idWinding:
	.long	_ZTVN10__cxxabiv117__class_type_infoE+8
	.long	_ZTS9idWinding
	.weak	_ZTS14idFixedWinding
	.section	.rodata._ZTS14idFixedWinding,"aG",@progbits,_ZTS14idFixedWinding,comdat
	.align 2
	.type	_ZTS14idFixedWinding, @object
	.size	_ZTS14idFixedWinding, 17
_ZTS14idFixedWinding:
	.string	"14idFixedWinding"
	.weak	_ZTI14idFixedWinding
	.section	.rodata._ZTI14idFixedWinding,"aG",@progbits,_ZTI14idFixedWinding,comdat
	.align 2
	.type	_ZTI14idFixedWinding, @object
	.size	_ZTI14idFixedWinding, 12
_ZTI14idFixedWinding:
	.long	_ZTVN10__cxxabiv120__si_class_type_infoE+8
	.long	_ZTS14idFixedWinding
	.long	_ZTI9idWinding
	.weak	_ZTS10idEntityFx
	.section	.rodata._ZTS10idEntityFx,"aG",@progbits,_ZTS10idEntityFx,comdat
	.align 2
	.type	_ZTS10idEntityFx, @object
	.size	_ZTS10idEntityFx, 13
_ZTS10idEntityFx:
	.string	"10idEntityFx"
	.weak	_ZTI10idEntityFx
	.section	.rodata._ZTI10idEntityFx,"aG",@progbits,_ZTI10idEntityFx,comdat
	.align 2
	.type	_ZTI10idEntityFx, @object
	.size	_ZTI10idEntityFx, 12
_ZTI10idEntityFx:
	.long	_ZTVN10__cxxabiv120__si_class_type_infoE+8
	.long	_ZTS10idEntityFx
	.long	_ZTI8idEntity
	.weak	_ZTS12idTeleporter
	.section	.rodata._ZTS12idTeleporter,"aG",@progbits,_ZTS12idTeleporter,comdat
	.align 2
	.type	_ZTS12idTeleporter, @object
	.size	_ZTS12idTeleporter, 15
_ZTS12idTeleporter:
	.string	"12idTeleporter"
	.weak	_ZTI12idTeleporter
	.section	.rodata._ZTI12idTeleporter,"aG",@progbits,_ZTI12idTeleporter,comdat
	.align 2
	.type	_ZTI12idTeleporter, @object
	.size	_ZTI12idTeleporter, 12
_ZTI12idTeleporter:
	.long	_ZTVN10__cxxabiv120__si_class_type_infoE+8
	.long	_ZTS12idTeleporter
	.long	_ZTI10idEntityFx
	.weak	_ZTV9idWinding
	.section	.rodata._ZTV9idWinding,"aG",@progbits,_ZTV9idWinding,comdat
	.align 3
	.type	_ZTV9idWinding, @object
	.size	_ZTV9idWinding, 24
_ZTV9idWinding:
	.long	0
	.long	_ZTI9idWinding
	.long	_ZN9idWindingD1Ev
	.long	_ZN9idWindingD0Ev
	.long	_ZN9idWinding5ClearEv
	.long	_ZN9idWinding10ReAllocateEib
	.weak	_ZTV14idFixedWinding
	.section	.rodata._ZTV14idFixedWinding,"aG",@progbits,_ZTV14idFixedWinding,comdat
	.align 3
	.type	_ZTV14idFixedWinding, @object
	.size	_ZTV14idFixedWinding, 24
_ZTV14idFixedWinding:
	.long	0
	.long	_ZTI14idFixedWinding
	.long	_ZN14idFixedWindingD1Ev
	.long	_ZN14idFixedWindingD0Ev
	.long	_ZN14idFixedWinding5ClearEv
	.long	_ZN14idFixedWinding10ReAllocateEib
	.weak	_ZTV10idEntityFx
	.section	.rodata._ZTV10idEntityFx,"aG",@progbits,_ZTV10idEntityFx,comdat
	.align 3
	.type	_ZTV10idEntityFx, @object
	.size	_ZTV10idEntityFx, 236
_ZTV10idEntityFx:
	.long	0
	.long	_ZTI10idEntityFx
	.long	_ZNK10idEntityFx7GetTypeEv
	.long	_ZN10idEntityFxD1Ev
	.long	_ZN10idEntityFxD0Ev
	.long	_ZN8idEntity25UpdateChangeableSpawnArgsEPK6idDict
	.long	_ZN8idEntity13GetRenderViewEv
	.long	_ZN10idEntityFx5ThinkEv
	.long	_ZN8idEntity12DormantBeginEv
	.long	_ZN8idEntity10DormantEndEv
	.long	_ZN8idEntity7PresentEv
	.long	_ZN8idEntity15GetRenderEntityEv
	.long	_ZN8idEntity17GetModelDefHandleEv
	.long	_ZN8idEntity8SetModelEPKc
	.long	_ZN8idEntity8SetColorEfff
	.long	_ZN8idEntity8SetColorERK6idVec3
	.long	_ZNK8idEntity8GetColorER6idVec3
	.long	_ZN8idEntity8SetColorERK6idVec4
	.long	_ZNK8idEntity8GetColorER6idVec4
	.long	_ZN8idEntity12FreeModelDefEv
	.long	_ZN8idEntity12FreeLightDefEv
	.long	_ZN8idEntity4HideEv
	.long	_ZN8idEntity4ShowEv
	.long	_ZN8idEntity14ProjectOverlayERK6idVec3S2_fPKc
	.long	_ZN8idEntity26UpdateAnimationControllersEv
	.long	_ZN8idEntity11GetAnimatorEv
	.long	_ZNK8idEntity20CanPlayChatterSoundsEv
	.long	_ZN8idEntity7PreBindEv
	.long	_ZN8idEntity8PostBindEv
	.long	_ZN8idEntity9PreUnbindEv
	.long	_ZN8idEntity10PostUnbindEv
	.long	_ZN8idEntity27GetPhysicsToVisualTransformER6idVec3R6idMat3
	.long	_ZN8idEntity26GetPhysicsToSoundTransformER6idVec3R6idMat3
	.long	_ZN8idEntity7CollideERK7trace_sRK6idVec3
	.long	_ZN8idEntity13GetImpactInfoEPS_iRK6idVec3P12impactInfo_s
	.long	_ZN8idEntity12ApplyImpulseEPS_iRK6idVec3S3_
	.long	_ZN8idEntity8AddForceEPS_iRK6idVec3S3_
	.long	_ZN8idEntity15ActivatePhysicsEPS_
	.long	_ZNK8idEntity8IsAtRestEv
	.long	_ZNK8idEntity16GetRestStartTimeEv
	.long	_ZN8idEntity16AddContactEntityEPS_
	.long	_ZN8idEntity19RemoveContactEntityEPS_
	.long	_ZNK8idEntity9CanDamageERK6idVec3RS0_
	.long	_ZN8idEntity6DamageEPS_S0_RK6idVec3PKcfi
	.long	_ZN8idEntity15AddDamageEffectERK7trace_sRK6idVec3PKc
	.long	_ZN8idEntity14DamageFeedbackEPS_S0_Ri
	.long	_ZN8idEntity4PainEPS_S0_iRK6idVec3i
	.long	_ZN8idEntity6KilledEPS_S0_iRK6idVec3i
	.long	_ZNK8idEntity34ShouldConstructScriptObjectAtSpawnEv
	.long	_ZN8idEntity21ConstructScriptObjectEv
	.long	_ZN8idEntity23DeconstructScriptObjectEv
	.long	_ZN8idEntity22HandleSingleGuiCommandEPS_P7idLexer
	.long	_ZN8idEntity8TeleportERK6idVec3RK8idAnglesPS_
	.long	_ZN8idEntity17ShowEditingDialogEv
	.long	_ZN10idEntityFx21ClientPredictionThinkEv
	.long	_ZNK10idEntityFx15WriteToSnapshotER13idBitMsgDelta
	.long	_ZN10idEntityFx16ReadFromSnapshotERK13idBitMsgDelta
	.long	_ZN8idEntity18ServerReceiveEventEiiRK8idBitMsg
	.long	_ZN8idEntity18ClientReceiveEventEiiRK8idBitMsg
	.weak	_ZTV12idTeleporter
	.section	.rodata._ZTV12idTeleporter,"aG",@progbits,_ZTV12idTeleporter,comdat
	.align 3
	.type	_ZTV12idTeleporter, @object
	.size	_ZTV12idTeleporter, 236
_ZTV12idTeleporter:
	.long	0
	.long	_ZTI12idTeleporter
	.long	_ZNK12idTeleporter7GetTypeEv
	.long	_ZN12idTeleporterD1Ev
	.long	_ZN12idTeleporterD0Ev
	.long	_ZN8idEntity25UpdateChangeableSpawnArgsEPK6idDict
	.long	_ZN8idEntity13GetRenderViewEv
	.long	_ZN10idEntityFx5ThinkEv
	.long	_ZN8idEntity12DormantBeginEv
	.long	_ZN8idEntity10DormantEndEv
	.long	_ZN8idEntity7PresentEv
	.long	_ZN8idEntity15GetRenderEntityEv
	.long	_ZN8idEntity17GetModelDefHandleEv
	.long	_ZN8idEntity8SetModelEPKc
	.long	_ZN8idEntity8SetColorEfff
	.long	_ZN8idEntity8SetColorERK6idVec3
	.long	_ZNK8idEntity8GetColorER6idVec3
	.long	_ZN8idEntity8SetColorERK6idVec4
	.long	_ZNK8idEntity8GetColorER6idVec4
	.long	_ZN8idEntity12FreeModelDefEv
	.long	_ZN8idEntity12FreeLightDefEv
	.long	_ZN8idEntity4HideEv
	.long	_ZN8idEntity4ShowEv
	.long	_ZN8idEntity14ProjectOverlayERK6idVec3S2_fPKc
	.long	_ZN8idEntity26UpdateAnimationControllersEv
	.long	_ZN8idEntity11GetAnimatorEv
	.long	_ZNK8idEntity20CanPlayChatterSoundsEv
	.long	_ZN8idEntity7PreBindEv
	.long	_ZN8idEntity8PostBindEv
	.long	_ZN8idEntity9PreUnbindEv
	.long	_ZN8idEntity10PostUnbindEv
	.long	_ZN8idEntity27GetPhysicsToVisualTransformER6idVec3R6idMat3
	.long	_ZN8idEntity26GetPhysicsToSoundTransformER6idVec3R6idMat3
	.long	_ZN8idEntity7CollideERK7trace_sRK6idVec3
	.long	_ZN8idEntity13GetImpactInfoEPS_iRK6idVec3P12impactInfo_s
	.long	_ZN8idEntity12ApplyImpulseEPS_iRK6idVec3S3_
	.long	_ZN8idEntity8AddForceEPS_iRK6idVec3S3_
	.long	_ZN8idEntity15ActivatePhysicsEPS_
	.long	_ZNK8idEntity8IsAtRestEv
	.long	_ZNK8idEntity16GetRestStartTimeEv
	.long	_ZN8idEntity16AddContactEntityEPS_
	.long	_ZN8idEntity19RemoveContactEntityEPS_
	.long	_ZNK8idEntity9CanDamageERK6idVec3RS0_
	.long	_ZN8idEntity6DamageEPS_S0_RK6idVec3PKcfi
	.long	_ZN8idEntity15AddDamageEffectERK7trace_sRK6idVec3PKc
	.long	_ZN8idEntity14DamageFeedbackEPS_S0_Ri
	.long	_ZN8idEntity4PainEPS_S0_iRK6idVec3i
	.long	_ZN8idEntity6KilledEPS_S0_iRK6idVec3i
	.long	_ZNK8idEntity34ShouldConstructScriptObjectAtSpawnEv
	.long	_ZN8idEntity21ConstructScriptObjectEv
	.long	_ZN8idEntity23DeconstructScriptObjectEv
	.long	_ZN8idEntity22HandleSingleGuiCommandEPS_P7idLexer
	.long	_ZN8idEntity8TeleportERK6idVec3RK8idAnglesPS_
	.long	_ZN8idEntity17ShowEditingDialogEv
	.long	_ZN10idEntityFx21ClientPredictionThinkEv
	.long	_ZNK10idEntityFx15WriteToSnapshotER13idBitMsgDelta
	.long	_ZN10idEntityFx16ReadFromSnapshotERK13idBitMsgDelta
	.long	_ZN8idEntity18ServerReceiveEventEiiRK8idBitMsg
	.long	_ZN8idEntity18ClientReceiveEventEiiRK8idBitMsg
	.globl _ZN12idTeleporter14eventCallbacksE
	.globl _ZN12idTeleporter4TypeE
	.globl _ZN10idEntityFx14eventCallbacksE
	.globl _ZN10idEntityFx4TypeE
	.weak	_ZTI12idAllocError
	.section	.rodata._ZTI12idAllocError,"aG",@progbits,_ZTI12idAllocError,comdat
	.align 2
	.type	_ZTI12idAllocError, @object
	.size	_ZTI12idAllocError, 12
_ZTI12idAllocError:
	.long	_ZTVN10__cxxabiv120__si_class_type_infoE+8
	.long	_ZTS12idAllocError
	.long	_ZTI11idException
	.weak	_ZTS12idAllocError
	.section	.rodata._ZTS12idAllocError,"aG",@progbits,_ZTS12idAllocError,comdat
	.align 2
	.type	_ZTS12idAllocError, @object
	.size	_ZTS12idAllocError, 15
_ZTS12idAllocError:
	.string	"12idAllocError"
	.weak	_ZTI11idException
	.section	.sdata._ZTI11idException,"awG",@progbits,_ZTI11idException,comdat
	.align 2
	.type	_ZTI11idException, @object
	.size	_ZTI11idException, 8
_ZTI11idException:
	.long	_ZTVN10__cxxabiv117__class_type_infoE+8
	.long	_ZTS11idException
	.weak	_ZTS11idException
	.section	.rodata._ZTS11idException,"aG",@progbits,_ZTS11idException,comdat
	.align 2
	.type	_ZTS11idException, @object
	.size	_ZTS11idException, 14
_ZTS11idException:
	.string	"11idException"
	.weak	_ZN9idWindingD1Ev
	.set	_ZN9idWindingD1Ev,_ZN9idWindingD2Ev
	.weak	_ZN14idFixedWindingD1Ev
	.set	_ZN14idFixedWindingD1Ev,_ZN14idFixedWindingD2Ev
	.weak	_ZN6idDictD1Ev
	.set	_ZN6idDictD1Ev,_ZN6idDictD2Ev
	.globl _ZN10idEntityFxD1Ev
	.set	_ZN10idEntityFxD1Ev,_ZN10idEntityFxD2Ev
	.weak	_ZN12idTeleporterD1Ev
	.set	_ZN12idTeleporterD1Ev,_ZN12idTeleporterD2Ev
	.globl _ZN10idEntityFxC1Ev
	.set	_ZN10idEntityFxC1Ev,_ZN10idEntityFxC2Ev
	.section	.rodata.cst4,"aM",@progbits,4
	.align 2
.LC0:
	.4byte	-997900288
.LC10:
	.4byte	1501560836
.LC11:
	.4byte	939524096
.LC12:
	.4byte	0
.LC19:
	.4byte	1036831949
.LC23:
	.4byte	1148846080
.LC25:
	.4byte	1065353216
.LC26:
	.4byte	1090519040
	.section	".data"
	.align 2
	.set	.LANCHOR1,. + 0
	.type	_ZN10idEntityFx14eventCallbacksE, @object
	.size	_ZN10idEntityFx14eventCallbacksE, 36
_ZN10idEntityFx14eventCallbacksE:
	.long	EV_Activate
	.long	_ZN10idEntityFx13Event_TriggerEP8idEntity
	.long	0
	.long	_ZL12EV_Fx_KillFx
	.long	_ZN10idEntityFx13Event_ClearFxEv
	.long	0
	.long	0
	.long	0
	.long	0
	.type	_ZN12idTeleporter14eventCallbacksE, @object
	.size	_ZN12idTeleporter14eventCallbacksE, 24
_ZN12idTeleporter14eventCallbacksE:
	.long	_ZL12EV_Fx_Action
	.long	_ZN12idTeleporter14Event_DoActionEP8idEntity
	.long	0
	.long	0
	.long	0
	.long	0
	.section	.rodata.str1.4,"aMS",@progbits,1
	.align 2
.LC1:
	.string	"_killfx"
.LC2:
	.string	"_fxAction"
	.zero	2
.LC3:
	.string	"e"
	.zero	2
.LC4:
	.string	"idEntityFx"
	.zero	1
.LC5:
	.string	"idEntity"
	.zero	3
.LC6:
	.string	"idTeleporter"
	.zero	3
.LC7:
	.string	"0"
	.zero	2
.LC8:
	.string	"angle"
	.zero	2
.LC13:
	.string	""
	.zero	3
.LC14:
	.string	"fx"
	.zero	1
.LC15:
	.string	"triggered"
	.zero	2
.LC16:
	.string	"test"
	.zero	3
.LC17:
	.string	"start"
	.zero	2
.LC18:
	.string	"restart"
.LC20:
	.string	"effect_lapse"
	.zero	3
.LC21:
	.string	"1000"
	.zero	3
.LC22:
	.string	"FX at index %d not found"
	.zero	3
.LC24:
	.string	"fxActionDelay"
	.zero	2
.LC27:
	.string	"%f"
	.zero	1
.LC28:
	.string	"kick_time"
	.zero	2
.LC29:
	.string	"kick_amplitude"
	.zero	1
.LC30:
	.string	"projectile '%s' not found"
	.zero	2
.LC31:
	.string	"%i"
	.zero	1
.LC32:
	.string	"idEntityFx::idEntityFx() size %d\r\n"
	.section	".bss"
	.align 2
	.set	.LANCHOR0,. + 0
	.type	_ZN10idEntityFx4TypeE, @object
	.size	_ZN10idEntityFx4TypeE, 80
_ZN10idEntityFx4TypeE:
	.zero	80
	.type	_ZN12idTeleporter4TypeE, @object
	.size	_ZN12idTeleporter4TypeE, 80
_ZN12idTeleporter4TypeE:
	.zero	80
	.type	_ZL22NUM_RENDER_PORTAL_BITS, @object
	.size	_ZL22NUM_RENDER_PORTAL_BITS, 4
_ZL22NUM_RENDER_PORTAL_BITS:
	.zero	4
	.type	_ZL20DEFAULT_GRAVITY_VEC3, @object
	.size	_ZL20DEFAULT_GRAVITY_VEC3, 12
_ZL20DEFAULT_GRAVITY_VEC3:
	.zero	12
	.type	_ZL20CINEMATIC_SKIP_DELAY, @object
	.size	_ZL20CINEMATIC_SKIP_DELAY, 4
_ZL20CINEMATIC_SKIP_DELAY:
	.zero	4
	.type	_ZL26ASYNC_PLAYER_INV_AMMO_BITS, @object
	.size	_ZL26ASYNC_PLAYER_INV_AMMO_BITS, 4
_ZL26ASYNC_PLAYER_INV_AMMO_BITS:
	.zero	4
	.type	_ZL12EV_Fx_KillFx, @object
	.size	_ZL12EV_Fx_KillFx, 64
_ZL12EV_Fx_KillFx:
	.zero	64
	.type	_ZL12EV_Fx_Action, @object
	.size	_ZL12EV_Fx_Action, 64
_ZL12EV_Fx_Action:
	.zero	64
	.section	".text"
.Letext0:
	.file 20 "<built-in>"
	.file 21 "c:\\utils\\devkitpro\\devkitppc\\bin\\../lib/gcc/powerpc-eabi/4.6.3/include/stddef.h"
	.file 22 "c:\\utils\\devkitpro\\devkitppc\\bin\\../lib/gcc/powerpc-eabi/4.6.3/../../../../powerpc-eabi/include/sys/types.h"
	.file 23 "d:/Data/Nintendo/DoomGX/src/game/../idlib/../sys/sys_public.h"
	.file 24 "d:/Data/Nintendo/DoomGX/src/game/../idlib/../framework/Common.h"
	.file 25 "d:/Data/Nintendo/DoomGX/src/game/../idlib/../framework/FileSystem.h"
	.file 26 "d:/Data/Nintendo/DoomGX/src/game/../idlib/../idlib/Lib.h"
	.file 27 "d:/Data/Nintendo/DoomGX/src/game/../idlib/../idlib/CmdArgs.h"
	.file 28 "d:/Data/Nintendo/DoomGX/src/game/../idlib/../idlib/math/Quat.h"
	.file 29 "d:/Data/Nintendo/DoomGX/src/game/../idlib/../idlib/math/Rotation.h"
	.file 30 "d:/Data/Nintendo/DoomGX/src/game/../idlib/../idlib/math/Plane.h"
	.file 31 "d:/Data/Nintendo/DoomGX/src/game/../idlib/../idlib/math/Ode.h"
	.file 32 "d:/Data/Nintendo/DoomGX/src/game/../idlib/../idlib/bv/Sphere.h"
	.file 33 "d:/Data/Nintendo/DoomGX/src/game/../idlib/../idlib/bv/Bounds.h"
	.file 34 "d:/Data/Nintendo/DoomGX/src/game/../idlib/../idlib/bv/Box.h"
	.file 35 "d:/Data/Nintendo/DoomGX/src/game/../idlib/../idlib/bv/Frustum.h"
	.file 36 "d:/Data/Nintendo/DoomGX/src/game/../idlib/../idlib/geometry/DrawVert.h"
	.file 37 "d:/Data/Nintendo/DoomGX/src/game/../idlib/../idlib/geometry/JointTransform.h"
	.file 38 "d:/Data/Nintendo/DoomGX/src/game/../idlib/../idlib/geometry/Surface.h"
	.file 39 "d:/Data/Nintendo/DoomGX/src/game/../idlib/../idlib/geometry/TraceModel.h"
	.file 40 "d:/Data/Nintendo/DoomGX/src/game/../idlib/../idlib/Token.h"
	.file 41 "d:/Data/Nintendo/DoomGX/src/game/../idlib/../idlib/Lexer.h"
	.file 42 "d:/Data/Nintendo/DoomGX/src/game/../idlib/../framework/File.h"
	.file 43 "d:/Data/Nintendo/DoomGX/src/game/../idlib/../idlib/Parser.h"
	.file 44 "d:/Data/Nintendo/DoomGX/src/game/../idlib/../idlib/containers/StrList.h"
	.file 45 "d:/Data/Nintendo/DoomGX/src/game/../idlib/../idlib/containers/StrPool.h"
	.file 46 "d:/Data/Nintendo/DoomGX/src/game/../idlib/../idlib/containers/PlaneSet.h"
	.file 47 "d:/Data/Nintendo/DoomGX/src/game/../idlib/../idlib/LangDict.h"
	.file 48 "d:/Data/Nintendo/DoomGX/src/game/../idlib/../idlib/MapFile.h"
	.file 49 "d:/Data/Nintendo/DoomGX/src/game/../idlib/../framework/CmdSystem.h"
	.file 50 "d:/Data/Nintendo/DoomGX/src/game/../idlib/../framework/UsercmdGen.h"
	.file 51 "d:/Data/Nintendo/DoomGX/src/game/../idlib/../framework/DeclFX.h"
	.file 52 "d:/Data/Nintendo/DoomGX/src/game/../idlib/../framework/DeclParticle.h"
	.file 53 "d:/Data/Nintendo/DoomGX/src/game/../idlib/../renderer/Cinematic.h"
	.file 54 "d:/Data/Nintendo/DoomGX/src/game/../idlib/../renderer/Model.h"
	.file 55 "d:/Data/Nintendo/DoomGX/src/game/../idlib/../renderer/RenderSystem.h"
	.file 56 "d:/Data/Nintendo/DoomGX/src/game/../idlib/../sound/sound.h"
	.file 57 "d:/Data/Nintendo/DoomGX/src/game/../idlib/../ui/UserInterface.h"
	.file 58 "d:/Data/Nintendo/DoomGX/src/game/../idlib/../cm/CollisionModel.h"
	.file 59 "d:/Data/Nintendo/DoomGX/src/game/../idlib/../tools/compilers/aas/AASFile.h"
	.file 60 "d:/Data/Nintendo/DoomGX/src/game/../idlib/../game/Game.h"
	.file 61 "d:/Data/Nintendo/DoomGX/src/game/../idlib/../framework/async/NetworkSystem.h"
	.file 62 "d:/Data/Nintendo/DoomGX/src/game/../idlib/../renderer/ModelManager.h"
	.file 63 "d:/Data/Nintendo/DoomGX/src/game/../idlib/../tools/compilers/aas/AASFileManager.h"
	.file 64 "d:/Data/Nintendo/DoomGX/src/game/../idlib/../framework/Session.h"
	.file 65 "d:/Data/Nintendo/DoomGX/src/game/../idlib/../ui/ListGUI.h"
	.file 66 "d:/Data/Nintendo/DoomGX/src/game/gamesys/Event.h"
	.file 67 "d:/Data/Nintendo/DoomGX/src/game/gamesys/SaveGame.h"
	.file 68 "d:/Data/Nintendo/DoomGX/src/game/Entity.h"
	.file 69 "d:/Data/Nintendo/DoomGX/src/game/../idlib/../idlib/containers/Hierarchy.h"
	.file 70 "d:/Data/Nintendo/DoomGX/src/game/physics/Clip.h"
	.file 71 "d:/Data/Nintendo/DoomGX/src/game/Projectile.h"
	.file 72 "d:/Data/Nintendo/DoomGX/src/game/ai/AAS.h"
	.file 73 "d:/Data/Nintendo/DoomGX/src/game/../idlib/../framework/Console.h"
	.file 74 "d:/Data/Nintendo/DoomGX/src/game/../idlib/../idlib/math/Curve.h"
	.file 75 "d:/Data/Nintendo/DoomGX/src/game/../idlib/../idlib/math/Simd.h"
	.file 76 "d:/Data/Nintendo/DoomGX/src/game/../idlib/../framework/BuildVersion.h"
	.file 77 "d:/Data/Nintendo/DoomGX/src/game/../idlib/precompiled.h"
	.file 78 "d:/Data/Nintendo/DoomGX/src/game/../idlib/../renderer/Material.h"
	.file 79 "d:/Data/Nintendo/DoomGX/src/game/../idlib/../framework/EventLoop.h"
	.file 80 "d:/Data/Nintendo/DoomGX/src/game/../idlib/../framework/EditField.h"
	.file 81 "d:/Data/Nintendo/DoomGX/src/game/../idlib/../framework/async/AsyncNetwork.h"
	.file 82 "d:/Data/Nintendo/DoomGX/src/game/../idlib/../framework/async/AsyncServer.h"
	.file 83 "d:/Data/Nintendo/DoomGX/src/game/gamesys/SysCvar.h"
	.file 84 "d:/Data/Nintendo/DoomGX/src/game/anim/Anim.h"
	.file 85 "d:/Data/Nintendo/DoomGX/src/game/MultiplayerGame.h"
	.file 86 "d:/Data/Nintendo/DoomGX/src/game/AFEntity.h"
	.file 87 "d:/Data/Nintendo/DoomGX/src/game/Weapon.h"
	.file 88 "d:/Data/Nintendo/DoomGX/src/game/ai/AI.h"
	.file 89 "d:/Data/Nintendo/DoomGX/src/game/script/Script_Compiler.h"
	.file 90 "d:/Data/Nintendo/DoomGX/src/game/script/Script_Thread.h"