	.file	"GameBearShootWindow.cpp"
	.section	".text"
.Ltext0:
	.section	.text._ZN14idFixedWinding5ClearEv,"axG",@progbits,_ZN14idFixedWinding5ClearEv,comdat
	.align 2
	.weak	_ZN14idFixedWinding5ClearEv
	.type	_ZN14idFixedWinding5ClearEv, @function
_ZN14idFixedWinding5ClearEv:
.LFB1502:
	.file 1 "d:/Data/Nintendo/DoomGX/src/ui/../idlib/../idlib/geometry/Winding.h"
	.loc 1 398 0
	.cfi_startproc
.LVL0:
	.loc 1 399 0
	li 0,0
	.loc 1 400 0
	.loc 1 399 0
	stw 0,4(3)
	.loc 1 400 0
	blr
	.cfi_endproc
.LFE1502:
	.size	_ZN14idFixedWinding5ClearEv, .-_ZN14idFixedWinding5ClearEv
	.section	.text._ZN6idCVarD2Ev,"axG",@progbits,_ZN6idCVarD5Ev,comdat
	.align 2
	.weak	_ZN6idCVarD2Ev
	.type	_ZN6idCVarD2Ev, @function
_ZN6idCVarD2Ev:
.LFB2175:
	.file 2 "d:/Data/Nintendo/DoomGX/src/ui/../idlib/../framework/CVarSystem.h"
	.loc 2 127 0
	.cfi_startproc
.LVL1:
.LBB837:
	.loc 2 127 0
	lis 9,_ZTV6idCVar+8@ha
.LBE837:
.LBB838:
	la 0,_ZTV6idCVar+8@l(9)
	stw 0,0(3)
.LBE838:
	blr
	.cfi_endproc
.LFE2175:
	.size	_ZN6idCVarD2Ev, .-_ZN6idCVarD2Ev
	.section	.text._ZN6idCVar17InternalSetStringEPKc,"axG",@progbits,_ZN6idCVar17InternalSetStringEPKc,comdat
	.align 2
	.weak	_ZN6idCVar17InternalSetStringEPKc
	.type	_ZN6idCVar17InternalSetStringEPKc, @function
_ZN6idCVar17InternalSetStringEPKc:
.LFB2197:
	.loc 2 173 0
	.cfi_startproc
.LVL2:
	.loc 2 173 0
	blr
	.cfi_endproc
.LFE2197:
	.size	_ZN6idCVar17InternalSetStringEPKc, .-_ZN6idCVar17InternalSetStringEPKc
	.section	.text._ZN6idCVar15InternalSetBoolEb,"axG",@progbits,_ZN6idCVar15InternalSetBoolEb,comdat
	.align 2
	.weak	_ZN6idCVar15InternalSetBoolEb
	.type	_ZN6idCVar15InternalSetBoolEb, @function
_ZN6idCVar15InternalSetBoolEb:
.LFB2198:
	.loc 2 174 0
	.cfi_startproc
.LVL3:
	.loc 2 174 0
	blr
	.cfi_endproc
.LFE2198:
	.size	_ZN6idCVar15InternalSetBoolEb, .-_ZN6idCVar15InternalSetBoolEb
	.section	.text._ZN6idCVar18InternalSetIntegerEi,"axG",@progbits,_ZN6idCVar18InternalSetIntegerEi,comdat
	.align 2
	.weak	_ZN6idCVar18InternalSetIntegerEi
	.type	_ZN6idCVar18InternalSetIntegerEi, @function
_ZN6idCVar18InternalSetIntegerEi:
.LFB2199:
	.loc 2 175 0
	.cfi_startproc
.LVL4:
	.loc 2 175 0
	blr
	.cfi_endproc
.LFE2199:
	.size	_ZN6idCVar18InternalSetIntegerEi, .-_ZN6idCVar18InternalSetIntegerEi
	.section	.text._ZN6idCVar16InternalSetFloatEf,"axG",@progbits,_ZN6idCVar16InternalSetFloatEf,comdat
	.align 2
	.weak	_ZN6idCVar16InternalSetFloatEf
	.type	_ZN6idCVar16InternalSetFloatEf, @function
_ZN6idCVar16InternalSetFloatEf:
.LFB2200:
	.loc 2 176 0
	.cfi_startproc
.LVL5:
	.loc 2 176 0
	blr
	.cfi_endproc
.LFE2200:
	.size	_ZN6idCVar16InternalSetFloatEf, .-_ZN6idCVar16InternalSetFloatEf
	.section	.text._ZN9idWinBool15WriteToSaveGameEP6idFile,"axG",@progbits,_ZN9idWinBool15WriteToSaveGameEP6idFile,comdat
	.align 2
	.weak	_ZN9idWinBool15WriteToSaveGameEP6idFile
	.type	_ZN9idWinBool15WriteToSaveGameEP6idFile, @function
_ZN9idWinBool15WriteToSaveGameEP6idFile:
.LFB2613:
	.file 3 "d:/Data/Nintendo/DoomGX/src/ui/Winvar.h"
	.loc 3 145 0
	.cfi_startproc
.LVL6:
	mflr 0
	stwu 1,-16(1)
.LCFI0:
	.cfi_def_cfa_offset 16
	.cfi_register 65, 0
	.loc 3 146 0
	li 5,1
	.loc 3 145 0
	stw 30,8(1)
	mr 30,3
	.cfi_offset 30, -8
	stw 31,12(1)
	mr 31,4
	.cfi_offset 31, -4
	stw 0,20(1)
	.loc 3 146 0
	lwz 9,0(4)
	addi 4,3,12
.LVL7:
	mr 3,31
.LVL8:
	lwz 0,24(9)
	.cfi_offset 65, 4
	mtctr 0
	bctrl
	.loc 3 147 0
	lwz 9,0(31)
	mr 3,31
	addi 4,30,13
	lwz 0,24(9)
	li 5,1
	mtctr 0
	bctrl
	.loc 3 148 0
	lwz 0,20(1)
	lwz 30,8(1)
.LVL9:
	mtlr 0
	lwz 31,12(1)
.LVL10:
	addi 1,1,16
.LCFI1:
	.cfi_def_cfa_offset 0
	.cfi_restore 31
	.cfi_restore 30
	blr
	.cfi_endproc
.LFE2613:
	.size	_ZN9idWinBool15WriteToSaveGameEP6idFile, .-_ZN9idWinBool15WriteToSaveGameEP6idFile
	.section	.text._ZN9idWinBool16ReadFromSaveGameEP6idFile,"axG",@progbits,_ZN9idWinBool16ReadFromSaveGameEP6idFile,comdat
	.align 2
	.weak	_ZN9idWinBool16ReadFromSaveGameEP6idFile
	.type	_ZN9idWinBool16ReadFromSaveGameEP6idFile, @function
_ZN9idWinBool16ReadFromSaveGameEP6idFile:
.LFB2614:
	.loc 3 149 0
	.cfi_startproc
.LVL11:
	mflr 0
	stwu 1,-16(1)
.LCFI2:
	.cfi_def_cfa_offset 16
	.cfi_register 65, 0
	.loc 3 150 0
	li 5,1
	.loc 3 149 0
	stw 30,8(1)
	mr 30,3
	.cfi_offset 30, -8
	stw 31,12(1)
	mr 31,4
	.cfi_offset 31, -4
	stw 0,20(1)
	.loc 3 150 0
	lwz 9,0(4)
	addi 4,3,12
.LVL12:
	mr 3,31
.LVL13:
	lwz 0,20(9)
	.cfi_offset 65, 4
	mtctr 0
	bctrl
	.loc 3 151 0
	lwz 9,0(31)
	mr 3,31
	addi 4,30,13
	lwz 0,20(9)
	li 5,1
	mtctr 0
	bctrl
	.loc 3 152 0
	lwz 0,20(1)
	lwz 30,8(1)
.LVL14:
	mtlr 0
	lwz 31,12(1)
.LVL15:
	addi 1,1,16
.LCFI3:
	.cfi_def_cfa_offset 0
	.cfi_restore 31
	.cfi_restore 30
	blr
	.cfi_endproc
.LFE2614:
	.size	_ZN9idWinBool16ReadFromSaveGameEP6idFile, .-_ZN9idWinBool16ReadFromSaveGameEP6idFile
	.section	.text._ZNK9idWinBool1xEv,"axG",@progbits,_ZNK9idWinBool1xEv,comdat
	.align 2
	.weak	_ZNK9idWinBool1xEv
	.type	_ZNK9idWinBool1xEv, @function
_ZNK9idWinBool1xEv:
.LFB2615:
	.loc 3 154 0
	.cfi_startproc
.LVL16:
	.loc 3 154 0
	lbz 0,13(3)
	lis 9,.LC1@ha
	lfs 1,.LC1@l(9)
	cmpwi 7,0,0
	beqlr+ 7
	lis 9,.LC0@ha
	lfs 1,.LC0@l(9)
	blr
	.cfi_endproc
.LFE2615:
	.size	_ZNK9idWinBool1xEv, .-_ZNK9idWinBool1xEv
	.section	.text._ZN8idWindow8SetBuddyEPS_,"axG",@progbits,_ZN8idWindow8SetBuddyEPS_,comdat
	.align 2
	.weak	_ZN8idWindow8SetBuddyEPS_
	.type	_ZN8idWindow8SetBuddyEPS_, @function
_ZN8idWindow8SetBuddyEPS_:
.LFB2820:
	.file 4 "d:/Data/Nintendo/DoomGX/src/ui/Window.h"
	.loc 4 279 0
	.cfi_startproc
.LVL17:
	.loc 4 279 0
	blr
	.cfi_endproc
.LFE2820:
	.size	_ZN8idWindow8SetBuddyEPS_, .-_ZN8idWindow8SetBuddyEPS_
	.section	.text._ZN8idWindow17HandleBuddyUpdateEPS_,"axG",@progbits,_ZN8idWindow17HandleBuddyUpdateEPS_,comdat
	.align 2
	.weak	_ZN8idWindow17HandleBuddyUpdateEPS_
	.type	_ZN8idWindow17HandleBuddyUpdateEPS_, @function
_ZN8idWindow17HandleBuddyUpdateEPS_:
.LFB2821:
	.loc 4 280 0
	.cfi_startproc
.LVL18:
	.loc 4 280 0
	blr
	.cfi_endproc
.LFE2821:
	.size	_ZN8idWindow17HandleBuddyUpdateEPS_, .-_ZN8idWindow17HandleBuddyUpdateEPS_
	.section	.text._ZN8idWindow9HasActionEv,"axG",@progbits,_ZN8idWindow9HasActionEv,comdat
	.align 2
	.weak	_ZN8idWindow9HasActionEv
	.type	_ZN8idWindow9HasActionEv, @function
_ZN8idWindow9HasActionEv:
.LFB2822:
	.loc 4 293 0
	.cfi_startproc
.LVL19:
	.loc 4 293 0
	blr
	.cfi_endproc
.LFE2822:
	.size	_ZN8idWindow9HasActionEv, .-_ZN8idWindow9HasActionEv
	.section	.text._ZN8idWindow10HasScriptsEv,"axG",@progbits,_ZN8idWindow10HasScriptsEv,comdat
	.align 2
	.weak	_ZN8idWindow10HasScriptsEv
	.type	_ZN8idWindow10HasScriptsEv, @function
_ZN8idWindow10HasScriptsEv:
.LFB2823:
	.loc 4 294 0
	.cfi_startproc
.LVL20:
	.loc 4 294 0
	blr
	.cfi_endproc
.LFE2823:
	.size	_ZN8idWindow10HasScriptsEv, .-_ZN8idWindow10HasScriptsEv
	.section	".text"
	.align 2
	.globl _ZN21idGameBearShootWindow8ActivateEb
	.type	_ZN21idGameBearShootWindow8ActivateEb, @function
_ZN21idGameBearShootWindow8ActivateEb:
.LFB2887:
	.file 5 "d:/Data/Nintendo/DoomGX/src/ui/GameBearShootWindow.cpp"
	.loc 5 570 0
	.cfi_startproc
.LVL21:
	.loc 5 571 0
	lis 3,.LC2@ha
.LVL22:
	.loc 5 572 0
	la 3,.LC2@l(3)
	blr
	.cfi_endproc
.LFE2887:
	.size	_ZN21idGameBearShootWindow8ActivateEb, .-_ZN21idGameBearShootWindow8ActivateEb
	.section	.text._ZN9idWinding5ClearEv,"axG",@progbits,_ZN9idWinding5ClearEv,comdat
	.align 2
	.weak	_ZN9idWinding5ClearEv
	.type	_ZN9idWinding5ClearEv, @function
_ZN9idWinding5ClearEv:
.LFB1473:
	.loc 1 249 0
	.cfi_startproc
.LVL23:
	mflr 0
	stwu 1,-16(1)
.LCFI4:
	.cfi_def_cfa_offset 16
	.cfi_register 65, 0
	stw 31,12(1)
	mr 31,3
	.cfi_offset 31, -4
	stw 0,20(1)
	.loc 1 250 0
	li 0,0
	.cfi_offset 65, 4
	.loc 1 251 0
	lwz 3,8(3)
.LVL24:
	.loc 1 250 0
	stw 0,4(31)
	.loc 1 251 0
	cmpwi 7,3,0
	beq- 7,.L20
	.loc 1 251 0 is_stmt 0 discriminator 1
	bl _ZdaPv
.L20:
	.loc 1 252 0 is_stmt 1
	li 0,0
	stw 0,8(31)
	.loc 1 253 0
	lwz 0,20(1)
	lwz 31,12(1)
.LVL25:
	mtlr 0
	addi 1,1,16
.LCFI5:
	.cfi_def_cfa_offset 0
	.cfi_restore 31
	blr
	.cfi_endproc
.LFE1473:
	.size	_ZN9idWinding5ClearEv, .-_ZN9idWinding5ClearEv
	.section	.text._ZN9idWindingD2Ev,"axG",@progbits,_ZN9idWindingD5Ev,comdat
	.align 2
	.weak	_ZN9idWindingD2Ev
	.type	_ZN9idWindingD2Ev, @function
_ZN9idWindingD2Ev:
.LFB1461:
	.loc 1 183 0
	.cfi_startproc
.LVL26:
	mflr 0
	stwu 1,-16(1)
.LCFI6:
	.cfi_def_cfa_offset 16
	.cfi_register 65, 0
.LBB840:
	lis 9,_ZTV9idWinding+8@ha
.LBE840:
	stw 31,12(1)
	mr 31,3
	.cfi_offset 31, -4
	stw 0,20(1)
.LBB841:
	.loc 1 183 0
	la 0,_ZTV9idWinding+8@l(9)
	.cfi_offset 65, 4
	.loc 1 184 0
	lwz 3,8(3)
.LVL27:
	.loc 1 183 0
	stw 0,0(31)
	.loc 1 184 0
	cmpwi 7,3,0
	beq- 7,.L22
	.loc 1 184 0 is_stmt 0 discriminator 1
	bl _ZdaPv
.L22:
	.loc 1 185 0 is_stmt 1
	li 0,0
	stw 0,8(31)
.LBE841:
	.loc 1 186 0
	lwz 0,20(1)
	lwz 31,12(1)
.LVL28:
	mtlr 0
	addi 1,1,16
.LCFI7:
	.cfi_def_cfa_offset 0
	.cfi_restore 31
	blr
	.cfi_endproc
.LFE1461:
	.size	_ZN9idWindingD2Ev, .-_ZN9idWindingD2Ev
	.section	.text._ZN6idCVarD0Ev,"axG",@progbits,_ZN6idCVarD5Ev,comdat
	.align 2
	.weak	_ZN6idCVarD0Ev
	.type	_ZN6idCVarD0Ev, @function
_ZN6idCVarD0Ev:
.LFB2177:
	.loc 2 127 0
	.cfi_startproc
.LVL29:
	mflr 0
	stwu 1,-8(1)
.LCFI8:
	.cfi_def_cfa_offset 8
	.cfi_register 65, 0
.LBB842:
.LBB843:
.LBB844:
	lis 9,_ZTV6idCVar+8@ha
.LBE844:
.LBE843:
.LBE842:
	stw 0,12(1)
.LBB847:
.LBB846:
.LBB845:
	.loc 2 127 0
	la 0,_ZTV6idCVar+8@l(9)
	.cfi_offset 65, 4
	stw 0,0(3)
.LBE845:
.LBE846:
.LBE847:
	bl _ZdlPv
.LVL30:
	lwz 0,12(1)
	addi 1,1,8
.LCFI9:
	.cfi_def_cfa_offset 0
	mtlr 0
	blr
	.cfi_endproc
.LFE2177:
	.size	_ZN6idCVarD0Ev, .-_ZN6idCVarD0Ev
	.section	.text._ZN8idWinVar4SizeEv,"axG",@progbits,_ZN8idWinVar4SizeEv,comdat
	.align 2
	.weak	_ZN8idWinVar4SizeEv
	.type	_ZN8idWinVar4SizeEv, @function
_ZN8idWinVar4SizeEv:
.LFB2595:
	.loc 3 83 0
	.cfi_startproc
.LVL31:
	mflr 0
	stwu 1,-8(1)
.LCFI10:
	.cfi_def_cfa_offset 8
	.cfi_register 65, 0
	stw 0,12(1)
.LBB848:
	.loc 3 83 0
	lwz 0,8(3)
	.cfi_offset 65, 4
	li 3,16
.LVL32:
	cmpwi 7,0,0
	beq- 7,.L28
	.loc 3 83 0 is_stmt 0 discriminator 1
	mr 3,0
	bl strlen
	addi 3,3,16
.L28:
.LBE848:
	.loc 3 83 0 discriminator 3
	lwz 0,12(1)
	addi 1,1,8
.LCFI11:
	.cfi_def_cfa_offset 0
	mtlr 0
	blr
	.cfi_endproc
.LFE2595:
	.size	_ZN8idWinVar4SizeEv, .-_ZN8idWinVar4SizeEv
	.section	.text._ZNK9idWinBool5c_strEv,"axG",@progbits,_ZNK9idWinBool5c_strEv,comdat
	.align 2
	.weak	_ZNK9idWinBool5c_strEv
	.type	_ZNK9idWinBool5c_strEv, @function
_ZNK9idWinBool5c_strEv:
.LFB2612:
	.loc 3 142 0 is_stmt 1
	.cfi_startproc
.LVL33:
	mflr 0
	stwu 1,-8(1)
.LCFI12:
	.cfi_def_cfa_offset 8
	.cfi_register 65, 0
	stw 0,12(1)
	.loc 3 142 0
	lbz 4,13(3)
	lis 3,.LC3@ha
.LVL34:
	la 3,.LC3@l(3)
	.cfi_offset 65, 4
	crxor 6,6,6
	bl _Z2vaPKcz
	lwz 0,12(1)
	addi 1,1,8
.LCFI13:
	.cfi_def_cfa_offset 0
	mtlr 0
	blr
	.cfi_endproc
.LFE2612:
	.size	_ZNK9idWinBool5c_strEv, .-_ZNK9idWinBool5c_strEv
	.section	.text._ZN11idCmdSystem21ArgCompletion_BooleanERK9idCmdArgsPFvPKcE,"axG",@progbits,_ZN11idCmdSystem21ArgCompletion_BooleanERK9idCmdArgsPFvPKcE,comdat
	.align 2
	.weak	_ZN11idCmdSystem21ArgCompletion_BooleanERK9idCmdArgsPFvPKcE
	.type	_ZN11idCmdSystem21ArgCompletion_BooleanERK9idCmdArgsPFvPKcE, @function
_ZN11idCmdSystem21ArgCompletion_BooleanERK9idCmdArgsPFvPKcE:
.LFB2158:
	.file 6 "d:/Data/Nintendo/DoomGX/src/ui/../idlib/../framework/CmdSystem.h"
	.loc 6 131 0
	.cfi_startproc
.LVL35:
	mflr 0
	stwu 1,-24(1)
.LCFI14:
	.cfi_def_cfa_offset 24
	.cfi_register 65, 0
	stw 31,20(1)
	mr 31,3
	.cfi_offset 31, -4
.LVL36:
	stw 0,28(1)
	.loc 6 131 0
	stw 4,8(1)
.LBB849:
.LBB850:
	.file 7 "d:/Data/Nintendo/DoomGX/src/ui/../idlib/../idlib/CmdArgs.h"
	.loc 7 50 0
	lwz 0,0(3)
	.cfi_offset 65, 4
	cmpwi 7,0,0
	ble- 7,.L34
.LVL37:
	lwz 4,4(3)
.LVL38:
.LBE850:
.LBE849:
	.loc 6 132 0
	lis 3,.LC4@ha
.LVL39:
	la 3,.LC4@l(3)
	crxor 6,6,6
	bl _Z2vaPKcz
	lwz 0,8(1)
	mtctr 0
	bctrl
.LVL40:
.LBB853:
.LBB854:
	.loc 7 50 0
	lwz 0,0(31)
	cmpwi 7,0,0
	ble- 7,.L35
.L36:
	lwz 4,4(31)
.LBE854:
.LBE853:
	.loc 6 133 0
	lis 3,.LC5@ha
	la 3,.LC5@l(3)
	crxor 6,6,6
	bl _Z2vaPKcz
	lwz 0,8(1)
	mtctr 0
	bctrl
	.loc 6 134 0
	lwz 0,28(1)
	lwz 31,20(1)
.LVL41:
	mtlr 0
	addi 1,1,24
	.cfi_remember_state
.LCFI15:
	.cfi_def_cfa_offset 0
	.cfi_restore 31
	blr
.LVL42:
.L34:
.LCFI16:
	.cfi_restore_state
.LBB857:
.LBB851:
	.loc 7 50 0
	lis 4,.LC2@ha
.LBE851:
.LBE857:
	.loc 6 132 0
	lis 3,.LC4@ha
.LVL43:
.LBB858:
.LBB852:
	.loc 7 50 0
	la 4,.LC2@l(4)
.LBE852:
.LBE858:
	.loc 6 132 0
	la 3,.LC4@l(3)
	crxor 6,6,6
	bl _Z2vaPKcz
	lwz 0,8(1)
	mtctr 0
	bctrl
.LVL44:
.LBB859:
.LBB855:
	.loc 7 50 0
	lwz 0,0(31)
	cmpwi 7,0,0
	bgt+ 7,.L36
.L35:
	lis 4,.LC2@ha
.LBE855:
.LBE859:
	.loc 6 133 0
	lis 3,.LC5@ha
.LBB860:
.LBB856:
	.loc 7 50 0
	la 4,.LC2@l(4)
.LBE856:
.LBE860:
	.loc 6 133 0
	la 3,.LC5@l(3)
	crxor 6,6,6
	bl _Z2vaPKcz
	lwz 0,8(1)
	mtctr 0
	bctrl
	.loc 6 134 0
	lwz 0,28(1)
	lwz 31,20(1)
.LVL45:
	mtlr 0
	addi 1,1,24
	.cfi_restore 31
.LCFI17:
	.cfi_def_cfa_offset 0
	blr
	.cfi_endproc
.LFE2158:
	.size	_ZN11idCmdSystem21ArgCompletion_BooleanERK9idCmdArgsPFvPKcE, .-_ZN11idCmdSystem21ArgCompletion_BooleanERK9idCmdArgsPFvPKcE
	.section	".text"
	.align 2
	.globl _ZN21idGameBearShootWindow9PostParseEv
	.type	_ZN21idGameBearShootWindow9PostParseEv, @function
_ZN21idGameBearShootWindow9PostParseEv:
.LFB2885:
	.loc 5 545 0
	.cfi_startproc
.LVL46:
	mflr 0
	stwu 1,-8(1)
.LCFI18:
	.cfi_def_cfa_offset 8
	.cfi_register 65, 0
	stw 0,12(1)
	.loc 5 546 0
	.cfi_offset 65, 4
	bl _ZN8idWindow9PostParseEv
.LVL47:
	.loc 5 547 0
	lwz 0,12(1)
	addi 1,1,8
.LCFI19:
	.cfi_def_cfa_offset 0
	mtlr 0
	blr
	.cfi_endproc
.LFE2885:
	.size	_ZN21idGameBearShootWindow9PostParseEv, .-_ZN21idGameBearShootWindow9PostParseEv
	.align 2
	.globl _ZN21idGameBearShootWindow11HandleEventEPK10sysEvent_tPb
	.type	_ZN21idGameBearShootWindow11HandleEventEPK10sysEvent_tPb, @function
_ZN21idGameBearShootWindow11HandleEventEPK10sysEvent_tPb:
.LFB2882:
	.loc 5 468 0
	.cfi_startproc
.LVL48:
	mflr 0
	stwu 1,-8(1)
.LCFI20:
	.cfi_def_cfa_offset 8
	.cfi_register 65, 0
	stw 0,12(1)
.LBB861:
	.loc 5 472 0
	.cfi_offset 65, 4
	bl _ZN8idWindow11HandleEventEPK10sysEvent_tPb
.LVL49:
.LBE861:
	.loc 5 487 0
	lwz 0,12(1)
	addi 1,1,8
.LCFI21:
	.cfi_def_cfa_offset 0
	mtlr 0
	blr
	.cfi_endproc
.LFE2882:
	.size	_ZN21idGameBearShootWindow11HandleEventEPK10sysEvent_tPb, .-_ZN21idGameBearShootWindow11HandleEventEPK10sysEvent_tPb
	.section	.text._ZN9idWinBoolD2Ev,"axG",@progbits,_ZN9idWinBoolD5Ev,comdat
	.align 2
	.weak	_ZN9idWinBoolD2Ev
	.type	_ZN9idWinBoolD2Ev, @function
_ZN9idWinBoolD2Ev:
.LFB2602:
	.loc 3 106 0
	.cfi_startproc
.LVL50:
	mflr 0
	stwu 1,-8(1)
.LCFI22:
	.cfi_def_cfa_offset 8
	.cfi_register 65, 0
.LBB863:
	lis 9,_ZTV9idWinBool+8@ha
.LBE863:
	stw 0,12(1)
.LBB864:
	.loc 3 106 0
	la 0,_ZTV9idWinBool+8@l(9)
	.cfi_offset 65, 4
	stw 0,0(3)
	bl _ZN8idWinVarD2Ev
.LVL51:
.LBE864:
	lwz 0,12(1)
	addi 1,1,8
.LCFI23:
	.cfi_def_cfa_offset 0
	mtlr 0
	blr
	.cfi_endproc
.LFE2602:
	.size	_ZN9idWinBoolD2Ev, .-_ZN9idWinBoolD2Ev
	.section	".text"
	.align 2
	.globl _ZN8BSEntity15WriteToSaveGameEP6idFile
	.type	_ZN8BSEntity15WriteToSaveGameEP6idFile, @function
_ZN8BSEntity15WriteToSaveGameEP6idFile:
.LFB2861:
	.loc 5 100 0
	.cfi_startproc
.LVL52:
	mflr 0
	stwu 1,-16(1)
.LCFI24:
	.cfi_def_cfa_offset 16
	.cfi_register 65, 0
	stw 30,8(1)
	mr 30,3
	.cfi_offset 30, -8
.LVL53:
	stw 0,20(1)
	stw 31,12(1)
	.loc 5 100 0
	mr 31,4
	.cfi_offset 31, -4
	.cfi_offset 65, 4
	.loc 5 102 0
	mr 5,31
	lwz 4,12(30)
.LVL54:
	lwz 3,96(3)
.LVL55:
	bl _ZN8idWindow19WriteSaveGameStringEPKcP6idFile
.LVL56:
	.loc 5 104 0
	lwz 9,0(31)
	addi 4,30,40
.LVL57:
	li 5,4
	lwz 0,24(9)
	mr 3,31
	mtctr 0
	bctrl
	.loc 5 105 0
	lwz 9,0(31)
	addi 4,30,44
	li 5,4
	lwz 0,24(9)
	mr 3,31
	mtctr 0
	bctrl
	.loc 5 106 0
	lwz 9,0(31)
	addi 4,30,48
	li 5,1
	lwz 0,24(9)
	mr 3,31
	mtctr 0
	bctrl
	.loc 5 108 0
	lwz 9,0(31)
	addi 4,30,52
	li 5,16
	lwz 0,24(9)
	mr 3,31
	mtctr 0
	bctrl
	.loc 5 109 0
	lwz 9,0(31)
	addi 4,30,68
	li 5,8
	lwz 0,24(9)
	mr 3,31
	mtctr 0
	bctrl
	.loc 5 110 0
	lwz 9,0(31)
	addi 4,30,76
	li 5,4
	lwz 0,24(9)
	mr 3,31
	mtctr 0
	bctrl
	.loc 5 111 0
	lwz 9,0(31)
	addi 4,30,80
	li 5,4
	lwz 0,24(9)
	mr 3,31
	mtctr 0
	bctrl
	.loc 5 112 0
	lwz 9,0(31)
	addi 4,30,84
	li 5,8
	lwz 0,24(9)
	mr 3,31
	mtctr 0
	bctrl
	.loc 5 114 0
	lwz 9,0(31)
	addi 4,30,92
	li 5,1
	lwz 0,24(9)
	mr 3,31
	mtctr 0
	bctrl
	.loc 5 115 0
	lwz 9,0(31)
	mr 3,31
	addi 4,30,93
	lwz 0,24(9)
	li 5,1
	mtctr 0
	bctrl
	.loc 5 116 0
	lwz 0,20(1)
	lwz 30,8(1)
.LVL58:
	mtlr 0
	lwz 31,12(1)
.LVL59:
	addi 1,1,16
.LCFI25:
	.cfi_def_cfa_offset 0
	.cfi_restore 31
	.cfi_restore 30
	blr
	.cfi_endproc
.LFE2861:
	.size	_ZN8BSEntity15WriteToSaveGameEP6idFile, .-_ZN8BSEntity15WriteToSaveGameEP6idFile
	.align 2
	.globl _ZN8BSEntityD2Ev
	.type	_ZN8BSEntityD2Ev, @function
_ZN8BSEntityD2Ev:
.LFB2850:
	.loc 5 74 0
	.cfi_startproc
.LVL60:
	mflr 0
	stwu 1,-8(1)
.LCFI26:
	.cfi_def_cfa_offset 8
	.cfi_register 65, 0
.LBB865:
	lis 9,_ZTV8BSEntity+8@ha
.LBE865:
	stw 0,12(1)
.LBB869:
	.loc 5 74 0
	la 0,_ZTV8BSEntity+8@l(9)
	.cfi_offset 65, 4
	stw 0,0(3)
.LVL61:
.LBB866:
.LBB867:
.LBB868:
	.file 8 "d:/Data/Nintendo/DoomGX/src/ui/../idlib/../idlib/Str.h"
	.loc 8 501 0
	addi 3,3,8
.LVL62:
	bl _ZN5idStr8FreeDataEv
.LVL63:
.LBE868:
.LBE867:
.LBE866:
.LBE869:
	.loc 5 75 0
	lwz 0,12(1)
	addi 1,1,8
.LCFI27:
	.cfi_def_cfa_offset 0
	mtlr 0
	blr
	.cfi_endproc
.LFE2850:
	.size	_ZN8BSEntityD2Ev, .-_ZN8BSEntityD2Ev
	.align 2
	.globl _ZN21idGameBearShootWindow15GetWinVarByNameEPKcbPP9drawWin_t
	.type	_ZN21idGameBearShootWindow15GetWinVarByNameEPKcbPP9drawWin_t, @function
_ZN21idGameBearShootWindow15GetWinVarByNameEPKcbPP9drawWin_t:
.LFB2884:
	.loc 5 520 0
	.cfi_startproc
.LVL64:
	stwu 1,-24(1)
.LCFI28:
	.cfi_def_cfa_offset 24
	mflr 0
	stw 31,20(1)
	mr 31,4
	.cfi_offset 31, -4
	.cfi_register 65, 0
.LBB874:
	.loc 5 523 0
	lis 4,.LC6@ha
.LVL65:
.LBE874:
	.loc 5 520 0
	stw 30,16(1)
.LBB875:
	.loc 5 523 0
	la 4,.LC6@l(4)
.LBE875:
	.loc 5 520 0
	mr 30,3
	.cfi_offset 30, -8
.LBB876:
	.loc 5 523 0
	mr 3,31
.LVL66:
.LBE876:
	.loc 5 520 0
	stw 28,8(1)
	stw 29,12(1)
	mr 28,5
	.cfi_offset 29, -12
	.cfi_offset 28, -16
	stw 0,28(1)
	.loc 5 520 0
	mr 29,6
.LBB877:
	.loc 5 523 0
	.cfi_offset 65, 4
	bl _ZN5idStr4IcmpEPKcS1_
.LVL67:
	cmpwi 7,3,0
	bne- 7,.L46
	.loc 5 524 0
	addi 3,30,932
.LVL68:
.L47:
	.loc 5 533 0
	cmpwi 7,3,0
	beq- 7,.L50
.LBE877:
	.loc 5 538 0
	lwz 0,28(1)
	lwz 28,8(1)
	mtlr 0
	lwz 29,12(1)
.LVL69:
	lwz 30,16(1)
.LVL70:
	lwz 31,20(1)
.LVL71:
	addi 1,1,24
	.cfi_remember_state
.LCFI29:
	.cfi_def_cfa_offset 0
	.cfi_restore 31
	.cfi_restore 30
	.cfi_restore 29
	.cfi_restore 28
	blr
.LVL72:
.L46:
.LCFI30:
	.cfi_restore_state
.LBB878:
	.loc 5 525 0
	lis 4,.LC7@ha
	mr 3,31
	la 4,.LC7@l(4)
	bl _ZN5idStr4IcmpEPKcS1_
	cmpwi 7,3,0
	bne- 7,.L48
	.loc 5 526 0
	addi 3,30,948
.LVL73:
	b .L47
.LVL74:
.L50:
.LBE878:
.LBB879:
.LBB880:
	.loc 5 537 0
	mr 3,30
	mr 4,31
	mr 5,28
	mr 6,29
	bl _ZN8idWindow15GetWinVarByNameEPKcbPP9drawWin_t
.LBE880:
.LBE879:
	.loc 5 538 0
	lwz 0,28(1)
	lwz 28,8(1)
.LVL75:
	mtlr 0
	lwz 29,12(1)
.LVL76:
	lwz 30,16(1)
.LVL77:
	lwz 31,20(1)
.LVL78:
	addi 1,1,24
	.cfi_remember_state
	.cfi_restore 28
	.cfi_restore 29
	.cfi_restore 30
	.cfi_restore 31
.LCFI31:
	.cfi_def_cfa_offset 0
	blr
.LVL79:
.L48:
.LCFI32:
	.cfi_restore_state
.LBB881:
	.loc 5 527 0
	lis 4,.LC8@ha
	mr 3,31
	la 4,.LC8@l(4)
	bl _ZN5idStr4IcmpEPKcS1_
	cmpwi 7,3,0
	bne- 7,.L49
	.loc 5 528 0
	addi 3,30,964
.LVL80:
	b .L47
.LVL81:
.L49:
	.loc 5 529 0
	lis 4,.LC9@ha
	mr 3,31
	la 4,.LC9@l(4)
	bl _ZN5idStr4IcmpEPKcS1_
	cmpwi 7,3,0
	bne- 7,.L50
	.loc 5 530 0
	addi 3,30,980
.LVL82:
	b .L47
.LBE881:
	.cfi_endproc
.LFE2884:
	.size	_ZN21idGameBearShootWindow15GetWinVarByNameEPKcbPP9drawWin_t, .-_ZN21idGameBearShootWindow15GetWinVarByNameEPKcbPP9drawWin_t
	.align 2
	.globl _ZN8BSEntity4DrawEP15idDeviceContext
	.type	_ZN8BSEntity4DrawEP15idDeviceContext, @function
_ZN8BSEntity4DrawEP15idDeviceContext:
.LFB2867:
	.loc 5 212 0
	.cfi_startproc
.LVL83:
	mflr 0
	stwu 1,-8(1)
.LCFI33:
	.cfi_def_cfa_offset 8
	.cfi_register 65, 0
	mr 5,3
	stw 0,12(1)
	.loc 5 213 0
	lbz 0,48(3)
	.cfi_offset 65, 4
	.loc 5 212 0
	mr 3,4
.LVL84:
	.loc 5 213 0
	cmpwi 7,0,0
	beq+ 7,.L52
.LVL85:
.LBB884:
.LBB885:
	.loc 5 214 0
	lis 9,.LC0@ha
	lfs 7,76(5)
	lfs 5,.LC0@l(9)
	lis 9,_ZN6idMath9M_DEG2RADE@ha
	lfs 0,_ZN6idMath9M_DEG2RADE@l(9)
	fmr 6,5
	lfs 1,68(5)
	fmuls 7,7,0
	lfs 2,72(5)
	lfs 3,40(5)
	lfs 4,44(5)
	lwz 4,4(5)
	addi 5,5,52
.LVL86:
	bl _ZN15idDeviceContext19DrawMaterialRotatedEffffPK10idMaterialRK6idVec4fff
.LVL87:
.L52:
.LBE885:
.LBE884:
	.loc 5 216 0
	lwz 0,12(1)
	addi 1,1,8
.LCFI34:
	.cfi_def_cfa_offset 0
	mtlr 0
	blr
	.cfi_endproc
.LFE2867:
	.size	_ZN8BSEntity4DrawEP15idDeviceContext, .-_ZN8BSEntity4DrawEP15idDeviceContext
	.align 2
	.globl _ZN8BSEntity6UpdateEf
	.type	_ZN8BSEntity6UpdateEf, @function
_ZN8BSEntity6UpdateEf:
.LFB2866:
	.loc 5 178 0
	.cfi_startproc
.LVL88:
	.loc 5 180 0
	lbz 0,48(3)
	cmpwi 7,0,0
	beqlr- 7
.LVL89:
.LBB892:
.LBB893:
	.loc 5 185 0
	lbz 0,92(3)
	cmpwi 7,0,0
	beq- 7,.L56
.LVL90:
	lis 9,.LC0@ha
	lfs 13,64(3)
	lfs 0,.LC0@l(9)
	fcmpu 7,13,0
	bnl- 7,.L56
	.loc 5 186 0
	fadds 13,1,13
	.loc 5 187 0
	fcmpu 7,13,0
	.loc 5 186 0
	stfs 13,64(3)
	.loc 5 187 0
	cror 30,29,30
	bne- 7,.L56
	.loc 5 189 0
	li 0,0
	.loc 5 188 0
	stfs 0,64(3)
	.loc 5 189 0
	stb 0,92(3)
.LVL91:
.L56:
	.loc 5 192 0
	lbz 0,93(3)
	cmpwi 7,0,0
	beq- 7,.L59
	lis 9,.LC1@ha
	lfs 13,64(3)
	lfs 0,.LC1@l(9)
	fcmpu 7,13,0
	bng- 7,.L59
	.loc 5 193 0
	fsubs 13,13,1
	.loc 5 194 0
	fcmpu 7,13,0
	.loc 5 193 0
	stfs 13,64(3)
	.loc 5 194 0
	cror 30,28,30
	bne- 7,.L59
	.loc 5 196 0
	li 0,0
	.loc 5 195 0
	stfs 0,64(3)
	.loc 5 196 0
	stb 0,93(3)
.L59:
.LVL92:
.LBB894:
.LBB895:
	.file 9 "d:/Data/Nintendo/DoomGX/src/ui/../idlib/../idlib/math/Vector.h"
	.loc 9 262 0
	lfs 13,68(3)
	.loc 9 263 0
	lfs 0,72(3)
.LBE895:
.LBE894:
	.loc 5 204 0
	lfs 12,76(3)
.LBB899:
.LBB900:
	.loc 9 245 0
	lfs 10,88(3)
.LVL93:
.LBE900:
.LBE899:
.LBB901:
.LBB896:
	.loc 9 262 0
	lfs 9,84(3)
.LBE896:
.LBE901:
	.loc 5 204 0
	lfs 11,80(3)
.LBB902:
.LBB897:
	.loc 9 263 0
	fmadds 0,1,10,0
	.loc 9 262 0
	fmadds 13,1,9,13
.LBE897:
.LBE902:
	.loc 5 204 0
	fmadds 1,1,11,12
.LVL94:
.LBB903:
.LBB898:
	.loc 9 263 0
	stfs 0,72(3)
	.loc 9 262 0
	stfs 13,68(3)
.LBE898:
.LBE903:
	.loc 5 204 0
	stfs 1,76(3)
	blr
.LBE893:
.LBE892:
	.cfi_endproc
.LFE2866:
	.size	_ZN8BSEntity6UpdateEf, .-_ZN8BSEntity6UpdateEf
	.section	.text._ZN14idFixedWindingD2Ev,"axG",@progbits,_ZN14idFixedWindingD5Ev,comdat
	.align 2
	.weak	_ZN14idFixedWindingD2Ev
	.type	_ZN14idFixedWindingD2Ev, @function
_ZN14idFixedWindingD2Ev:
.LFB1498:
	.loc 1 380 0
	.cfi_startproc
.LVL95:
.LBB909:
	.loc 1 381 0
	li 0,0
.LBB910:
.LBB911:
.LBB912:
	.loc 1 183 0
	lis 9,_ZTV9idWinding+8@ha
.LBE912:
.LBE911:
.LBE910:
	.loc 1 381 0
	stw 0,8(3)
.LVL96:
.LBB915:
.LBB914:
.LBB913:
	.loc 1 183 0
	la 0,_ZTV9idWinding+8@l(9)
	stw 0,0(3)
.LBE913:
.LBE914:
.LBE915:
.LBE909:
	.loc 1 382 0
	blr
	.cfi_endproc
.LFE1498:
	.size	_ZN14idFixedWindingD2Ev, .-_ZN14idFixedWindingD2Ev
	.section	.text._ZN9idWindingD0Ev,"axG",@progbits,_ZN9idWindingD5Ev,comdat
	.align 2
	.weak	_ZN9idWindingD0Ev
	.type	_ZN9idWindingD0Ev, @function
_ZN9idWindingD0Ev:
.LFB1463:
	.loc 1 183 0
	.cfi_startproc
.LVL97:
	mflr 0
	stwu 1,-16(1)
.LCFI35:
	.cfi_def_cfa_offset 16
	.cfi_register 65, 0
.LBB919:
.LBB920:
.LBB921:
	lis 9,_ZTV9idWinding+8@ha
.LBE921:
.LBE920:
.LBE919:
	stw 31,12(1)
	mr 31,3
	.cfi_offset 31, -4
.LVL98:
	stw 0,20(1)
.LBB926:
.LBB924:
.LBB922:
	.loc 1 183 0
	la 0,_ZTV9idWinding+8@l(9)
	.cfi_offset 65, 4
	.loc 1 184 0
	lwz 3,8(3)
.LVL99:
	.loc 1 183 0
	stw 0,0(31)
	.loc 1 184 0
	cmpwi 7,3,0
	beq- 7,.L70
	bl _ZdaPv
.L70:
	.loc 1 185 0
	li 0,0
.LBE922:
.LBE924:
.LBE926:
	.loc 1 186 0
	mr 3,31
.LBB927:
.LBB925:
.LBB923:
	.loc 1 185 0
	stw 0,8(31)
.LBE923:
.LBE925:
.LBE927:
	.loc 1 186 0
	bl _ZdlPv
	lwz 0,20(1)
	lwz 31,12(1)
.LVL100:
	mtlr 0
	addi 1,1,16
.LCFI36:
	.cfi_def_cfa_offset 0
	.cfi_restore 31
	blr
	.cfi_endproc
.LFE1463:
	.size	_ZN9idWindingD0Ev, .-_ZN9idWindingD0Ev
	.section	.text._ZN14idFixedWindingD0Ev,"axG",@progbits,_ZN14idFixedWindingD5Ev,comdat
	.align 2
	.weak	_ZN14idFixedWindingD0Ev
	.type	_ZN14idFixedWindingD0Ev, @function
_ZN14idFixedWindingD0Ev:
.LFB1500:
	.loc 1 380 0
	.cfi_startproc
.LVL101:
	mflr 0
	stwu 1,-8(1)
.LCFI37:
	.cfi_def_cfa_offset 8
	.cfi_register 65, 0
.LBB934:
.LBB935:
.LBB936:
.LBB937:
.LBB938:
.LBB939:
	.loc 1 183 0
	lis 11,_ZTV9idWinding+8@ha
.LBE939:
.LBE938:
.LBE937:
.LBE936:
.LBE935:
.LBE934:
	.loc 1 380 0
	stw 0,12(1)
.LBB945:
.LBB944:
.LBB943:
	.loc 1 381 0
	li 0,0
	.cfi_offset 65, 4
	stw 0,8(3)
.LVL102:
.LBB942:
.LBB941:
.LBB940:
	.loc 1 183 0
	la 0,_ZTV9idWinding+8@l(11)
	stw 0,0(3)
.LBE940:
.LBE941:
.LBE942:
.LBE943:
.LBE944:
.LBE945:
	.loc 1 382 0
	bl _ZdlPv
.LVL103:
	lwz 0,12(1)
	addi 1,1,8
.LCFI38:
	.cfi_def_cfa_offset 0
	mtlr 0
	blr
	.cfi_endproc
.LFE1500:
	.size	_ZN14idFixedWindingD0Ev, .-_ZN14idFixedWindingD0Ev
	.section	.text._ZN9idWinBoolD0Ev,"axG",@progbits,_ZN9idWinBoolD5Ev,comdat
	.align 2
	.weak	_ZN9idWinBoolD0Ev
	.type	_ZN9idWinBoolD0Ev, @function
_ZN9idWinBoolD0Ev:
.LFB2604:
	.loc 3 106 0
	.cfi_startproc
.LVL104:
	mflr 0
	stwu 1,-16(1)
.LCFI39:
	.cfi_def_cfa_offset 16
	.cfi_register 65, 0
.LBB949:
.LBB950:
.LBB951:
	lis 9,_ZTV9idWinBool+8@ha
.LBE951:
.LBE950:
.LBE949:
	stw 31,12(1)
	mr 31,3
	.cfi_offset 31, -4
.LVL105:
	stw 0,20(1)
.LBB954:
.LBB953:
.LBB952:
	.loc 3 106 0
	la 0,_ZTV9idWinBool+8@l(9)
	.cfi_offset 65, 4
	stw 0,0(3)
	bl _ZN8idWinVarD2Ev
.LVL106:
.LBE952:
.LBE953:
.LBE954:
	mr 3,31
	bl _ZN8idWinVardlEPv
	lwz 0,20(1)
	lwz 31,12(1)
.LVL107:
	mtlr 0
	addi 1,1,16
.LCFI40:
	.cfi_def_cfa_offset 0
	.cfi_restore 31
	blr
	.cfi_endproc
.LFE2604:
	.size	_ZN9idWinBoolD0Ev, .-_ZN9idWinBoolD0Ev
	.section	".text"
	.align 2
	.globl _ZN21idGameBearShootWindow15WriteToSaveGameEP6idFile
	.type	_ZN21idGameBearShootWindow15WriteToSaveGameEP6idFile, @function
_ZN21idGameBearShootWindow15WriteToSaveGameEP6idFile:
.LFB2878:
	.loc 5 246 0
	.cfi_startproc
.LVL108:
	stwu 1,-40(1)
.LCFI41:
	.cfi_def_cfa_offset 40
	mflr 0
	stw 31,36(1)
	mr 31,4
	.cfi_offset 31, -4
	.cfi_register 65, 0
	stw 0,44(1)
	stw 30,32(1)
	mr 30,3
	.cfi_offset 30, -8
	.cfi_offset 65, 4
	stw 29,28(1)
.LBB981:
	.loc 5 247 0
	.cfi_offset 29, -12
	bl _ZN8idWindow15WriteToSaveGameEP6idFile
.LVL109:
.LBB982:
.LBB983:
	.loc 3 146 0
	lwz 9,0(31)
	addi 4,30,944
	li 5,1
	mr 3,31
	lwz 0,24(9)
	mtctr 0
	bctrl
	.loc 3 147 0
	lwz 9,0(31)
	addi 4,30,945
	li 5,1
	lwz 0,24(9)
	mr 3,31
	mtctr 0
	bctrl
.LVL110:
.LBE983:
.LBE982:
.LBB984:
.LBB985:
	.loc 3 146 0
	lwz 9,0(31)
	addi 4,30,960
	li 5,1
	lwz 0,24(9)
	mr 3,31
	mtctr 0
	bctrl
	.loc 3 147 0
	lwz 9,0(31)
	addi 4,30,961
	li 5,1
	lwz 0,24(9)
	mr 3,31
	mtctr 0
	bctrl
.LVL111:
.LBE985:
.LBE984:
.LBB986:
.LBB987:
	.loc 3 146 0
	lwz 9,0(31)
	addi 4,30,976
	li 5,1
	lwz 0,24(9)
	mr 3,31
	mtctr 0
	bctrl
	.loc 3 147 0
	lwz 9,0(31)
	addi 4,30,977
	li 5,1
	lwz 0,24(9)
	mr 3,31
	mtctr 0
	bctrl
.LVL112:
.LBE987:
.LBE986:
.LBB988:
.LBB989:
	.loc 3 146 0
	lwz 9,0(31)
	addi 4,30,992
	li 5,1
	lwz 0,24(9)
	mr 3,31
	mtctr 0
	bctrl
	.loc 3 147 0
	lwz 9,0(31)
	addi 4,30,993
	li 5,1
	lwz 0,24(9)
	mr 3,31
	mtctr 0
	bctrl
.LBE989:
.LBE988:
	.loc 5 254 0
	lwz 9,0(31)
	addi 4,30,996
	li 5,4
	lwz 0,24(9)
	mr 3,31
	mtctr 0
	bctrl
	.loc 5 255 0
	lwz 9,0(31)
	addi 4,30,1000
	li 5,4
	lwz 0,24(9)
	mr 3,31
	mtctr 0
	bctrl
	.loc 5 256 0
	lwz 9,0(31)
	addi 4,30,1004
	li 5,1
	lwz 0,24(9)
	mr 3,31
	mtctr 0
	bctrl
	.loc 5 258 0
	lwz 9,0(31)
	addi 4,30,1008
	li 5,4
	lwz 0,24(9)
	mr 3,31
	mtctr 0
	bctrl
	.loc 5 259 0
	lwz 9,0(31)
	addi 4,30,1012
	li 5,4
	lwz 0,24(9)
	mr 3,31
	mtctr 0
	bctrl
	.loc 5 260 0
	lwz 9,0(31)
	addi 4,30,1016
	li 5,1
	lwz 0,24(9)
	mr 3,31
	mtctr 0
	bctrl
	.loc 5 261 0
	lwz 9,0(31)
	addi 4,30,1017
	li 5,1
	lwz 0,24(9)
	mr 3,31
	mtctr 0
	bctrl
	.loc 5 263 0
	lwz 9,0(31)
	addi 4,30,1020
	li 5,4
	lwz 0,24(9)
	mr 3,31
	mtctr 0
	bctrl
	.loc 5 264 0
	lwz 9,0(31)
	addi 4,30,1024
	li 5,1
	lwz 0,24(9)
	mr 3,31
	mtctr 0
	bctrl
	.loc 5 265 0
	lwz 9,0(31)
	addi 4,30,1028
	li 5,4
	lwz 0,24(9)
	mr 3,31
	mtctr 0
	bctrl
	.loc 5 267 0
	lwz 9,0(31)
	addi 4,30,1032
	li 5,4
	lwz 0,24(9)
	mr 3,31
	mtctr 0
	bctrl
	.loc 5 268 0
	lwz 9,0(31)
	addi 4,30,1036
	li 5,4
	lwz 0,24(9)
	mr 3,31
	mtctr 0
	bctrl
	.loc 5 270 0
	lwz 9,0(31)
	addi 4,30,1040
	li 5,4
	lwz 0,24(9)
	mr 3,31
	mtctr 0
	bctrl
	.loc 5 271 0
	lwz 9,0(31)
	addi 4,30,1044
	li 5,4
	lwz 0,24(9)
	mr 3,31
	mtctr 0
	bctrl
	.loc 5 273 0
	lwz 0,1048(30)
	.loc 5 274 0
	lwz 9,0(31)
	.loc 5 273 0
	mr 4,1
	stwu 0,12(4)
.LVL113:
	.loc 5 274 0
	mr 3,31
	lwz 0,24(9)
	li 5,4
	mtctr 0
	bctrl
.LVL114:
.LBB990:
	.loc 5 276 0
	lwz 0,12(1)
	cmpwi 7,0,0
	ble- 7,.L81
	li 29,0
.LVL115:
.L82:
	.loc 5 277 0 discriminator 2
	lwz 9,1060(30)
	slwi 0,29,2
	mr 4,31
	.loc 5 276 0 discriminator 2
	addi 29,29,1
.LVL116:
	.loc 5 277 0 discriminator 2
	lwzx 3,9,0
	lwz 9,0(3)
	lwz 0,8(9)
	mtctr 0
	bctrl
.LVL117:
	.loc 5 276 0 discriminator 2
	lwz 0,12(1)
	cmpw 7,0,29
	bgt+ 7,.L82
.LVL118:
.L81:
	.loc 5 921 0
	lwz 0,1048(30)
.LVL119:
.LBE990:
.LBB991:
.LBB992:
	.file 10 "d:/Data/Nintendo/DoomGX/src/ui/../idlib/../idlib/containers/List.h"
	.loc 10 779 0
	li 9,-1
	.loc 10 772 0
	cmpwi 7,0,0
	ble- 7,.L83
	.loc 10 773 0
	lwz 11,1060(30)
	.loc 10 772 0
	li 9,0
	.loc 10 773 0
	lwz 10,1064(30)
	.loc 10 772 0
	mtctr 0
	.loc 10 773 0
	lwz 8,0(11)
	cmpw 7,8,10
	bne+ 7,.L84
	b .L83
.LVL120:
.L85:
	lwzu 0,4(11)
	cmpw 7,0,10
	beq- 7,.L83
.LVL121:
.L84:
	.loc 10 772 0
	addi 9,9,1
.LVL122:
	bdnz .L85
	.loc 10 779 0
	li 9,-1
.LVL123:
.L83:
.LBE992:
.LBE991:
	.loc 5 281 0
	mr 29,1
	.loc 5 282 0
	mr 3,31
	.loc 5 281 0
	stwu 9,8(29)
.LVL124:
	.loc 5 282 0
	li 5,4
	lwz 9,0(31)
	mr 4,29
	lwz 0,24(9)
	mtctr 0
	bctrl
	.loc 5 921 0
	lwz 0,1048(30)
.LVL125:
.LBB993:
.LBB994:
	.loc 10 779 0
	li 9,-1
	.loc 10 772 0
	cmpwi 7,0,0
	ble- 7,.L86
	.loc 10 773 0
	lwz 11,1060(30)
	.loc 10 772 0
	li 9,0
	.loc 10 773 0
	lwz 10,1068(30)
	.loc 10 772 0
	mtctr 0
	.loc 10 773 0
	lwz 8,0(11)
	cmpw 7,8,10
	bne+ 7,.L87
	b .L86
.LVL126:
.L88:
	lwzu 0,4(11)
	cmpw 7,0,10
	beq- 7,.L86
.LVL127:
.L87:
	.loc 10 772 0
	addi 9,9,1
.LVL128:
	bdnz .L88
	.loc 10 779 0
	li 9,-1
.LVL129:
.L86:
.LBE994:
.LBE993:
	.loc 5 284 0
	lwz 11,0(31)
	mr 3,31
	.loc 5 283 0
	stw 9,8(1)
.LVL130:
	.loc 5 284 0
	mr 4,29
	lwz 0,24(11)
	li 5,4
	mtctr 0
	bctrl
	.loc 5 921 0
	lwz 0,1048(30)
.LVL131:
.LBB995:
.LBB996:
	.loc 10 779 0
	li 9,-1
	.loc 10 772 0
	cmpwi 7,0,0
	ble- 7,.L89
	.loc 10 773 0
	lwz 11,1060(30)
	.loc 10 772 0
	li 9,0
	.loc 10 773 0
	lwz 10,1072(30)
	.loc 10 772 0
	mtctr 0
	.loc 10 773 0
	lwz 8,0(11)
	cmpw 7,8,10
	bne+ 7,.L90
	b .L89
.LVL132:
.L91:
	lwzu 0,4(11)
	cmpw 7,0,10
	beq- 7,.L89
.LVL133:
.L90:
	.loc 10 772 0
	addi 9,9,1
.LVL134:
	bdnz .L91
	.loc 10 779 0
	li 9,-1
.LVL135:
.L89:
.LBE996:
.LBE995:
	.loc 5 286 0
	lwz 11,0(31)
	mr 3,31
	.loc 5 285 0
	stw 9,8(1)
	.loc 5 286 0
	mr 4,29
	lwz 0,24(11)
	li 5,4
	mtctr 0
	bctrl
	.loc 5 921 0
	lwz 0,1048(30)
.LVL136:
.LBB997:
.LBB998:
	.loc 10 779 0
	li 9,-1
	.loc 10 772 0
	cmpwi 7,0,0
	ble- 7,.L92
	.loc 10 773 0
	lwz 11,1060(30)
	.loc 10 772 0
	li 9,0
	.loc 10 773 0
	lwz 10,1076(30)
	.loc 10 772 0
	mtctr 0
	.loc 10 773 0
	lwz 8,0(11)
	cmpw 7,8,10
	bne+ 7,.L93
	b .L92
.LVL137:
.L94:
	lwzu 0,4(11)
	cmpw 7,0,10
	beq- 7,.L92
.LVL138:
.L93:
	.loc 10 772 0
	addi 9,9,1
.LVL139:
	bdnz .L94
	.loc 10 779 0
	li 9,-1
.LVL140:
.L92:
.LBE998:
.LBE997:
	.loc 5 288 0
	lwz 11,0(31)
	mr 3,31
	.loc 5 287 0
	stw 9,8(1)
	.loc 5 288 0
	mr 4,29
	lwz 0,24(11)
	li 5,4
	mtctr 0
	bctrl
	.loc 5 921 0
	lwz 0,1048(30)
.LVL141:
.LBB999:
.LBB1000:
	.loc 10 779 0
	li 9,-1
	.loc 10 772 0
	cmpwi 7,0,0
	ble- 7,.L95
	.loc 10 773 0
	lwz 11,1060(30)
	.loc 10 772 0
	li 9,0
	.loc 10 773 0
	lwz 10,1080(30)
	.loc 10 772 0
	mtctr 0
	.loc 10 773 0
	lwz 8,0(11)
	cmpw 7,8,10
	bne+ 7,.L96
	b .L95
.LVL142:
.L97:
	lwzu 0,4(11)
	cmpw 7,0,10
	beq- 7,.L95
.LVL143:
.L96:
	.loc 10 772 0
	addi 9,9,1
.LVL144:
	bdnz .L97
	.loc 10 779 0
	li 9,-1
.LVL145:
.L95:
.LBE1000:
.LBE999:
	.loc 5 290 0
	lwz 11,0(31)
	mr 3,31
	.loc 5 289 0
	stw 9,8(1)
	.loc 5 290 0
	mr 4,29
	lwz 0,24(11)
	li 5,4
	mtctr 0
	bctrl
	.loc 5 921 0
	lwz 0,1048(30)
.LVL146:
.LBB1001:
.LBB1002:
	.loc 10 779 0
	li 9,-1
	.loc 10 772 0
	cmpwi 7,0,0
	ble- 7,.L98
	.loc 10 773 0
	lwz 11,1060(30)
	.loc 10 772 0
	li 9,0
	.loc 10 773 0
	lwz 10,1084(30)
	.loc 10 772 0
	mtctr 0
	.loc 10 773 0
	lwz 8,0(11)
	cmpw 7,8,10
	bne+ 7,.L99
	b .L98
.LVL147:
.L100:
	lwzu 0,4(11)
	cmpw 7,0,10
	beq- 7,.L98
.LVL148:
.L99:
	.loc 10 772 0
	addi 9,9,1
.LVL149:
	bdnz .L100
	.loc 10 779 0
	li 9,-1
.LVL150:
.L98:
.LBE1002:
.LBE1001:
	.loc 5 292 0
	lwz 11,0(31)
	mr 3,31
	.loc 5 291 0
	stw 9,8(1)
	.loc 5 292 0
	mr 4,29
	lwz 0,24(11)
	li 5,4
	mtctr 0
	bctrl
.LBE981:
	.loc 5 293 0
	lwz 0,44(1)
	lwz 29,28(1)
	mtlr 0
	lwz 30,32(1)
.LVL151:
	lwz 31,36(1)
.LVL152:
	addi 1,1,40
.LCFI42:
	.cfi_def_cfa_offset 0
	.cfi_restore 31
	.cfi_restore 30
	.cfi_restore 29
	blr
	.cfi_endproc
.LFE2878:
	.size	_ZN21idGameBearShootWindow15WriteToSaveGameEP6idFile, .-_ZN21idGameBearShootWindow15WriteToSaveGameEP6idFile
	.section	.text._ZN9idWinBool6UpdateEv,"axG",@progbits,_ZN9idWinBool6UpdateEv,comdat
	.align 2
	.weak	_ZN9idWinBool6UpdateEv
	.type	_ZN9idWinBool6UpdateEv, @function
_ZN9idWinBool6UpdateEv:
.LFB2611:
	.loc 3 135 0
	.cfi_startproc
.LVL153:
	mflr 0
	stwu 1,-16(1)
.LCFI43:
	.cfi_def_cfa_offset 16
	.cfi_register 65, 0
	stw 31,12(1)
	mr 31,3
	.cfi_offset 31, -4
	stw 0,20(1)
.LBB1018:
.LBB1019:
.LBB1020:
.LBB1021:
.LBB1022:
	.loc 5 921 0
	lwz 4,8(3)
	lwz 3,4(3)
.LVL154:
.LBE1022:
.LBE1021:
.LBE1020:
.LBE1019:
.LBB1030:
.LBB1031:
	.loc 3 53 0
	cmpwi 7,4,0
	beq- 7,.L120
	.cfi_offset 65, 4
	.loc 3 54 0
	cmpwi 7,3,0
	beq- 7,.L114
	lbz 0,0(4)
	cmpwi 7,0,42
	beq- 7,.L123
.L117:
.LBE1031:
.LBE1030:
	.loc 3 137 0 discriminator 1
	lbz 0,0(4)
	cmpwi 7,0,0
	bne- 7,.L124
.L114:
.LBE1018:
	.loc 3 140 0
	lwz 0,20(1)
	lwz 31,12(1)
.LVL155:
	mtlr 0
	addi 1,1,16
	.cfi_remember_state
.LCFI44:
	.cfi_def_cfa_offset 0
	.cfi_restore 31
	blr
.LVL156:
.L124:
.LCFI45:
	.cfi_restore_state
.LBB1050:
.LBB1045:
.LBB1028:
.LBB1026:
.LBB1024:
	.file 11 "d:/Data/Nintendo/DoomGX/src/ui/../idlib/../idlib/Dict.h"
	.loc 11 241 0
	bl _ZNK6idDict7FindKeyEPKc
.LVL157:
	.loc 11 242 0
	cmpwi 0,3,0
	beq- 0,.L122
.LVL158:
.LBB1023:
	.loc 5 921 0
	lwz 9,4(3)
	lwz 3,4(9)
.LVL159:
.L119:
.LBE1023:
.LBE1024:
.LBE1026:
	.loc 11 257 0
	bl atoi
	cntlzw 3,3
	srwi 3,3,5
	xori 3,3,1
.LBE1028:
.LBE1045:
	.loc 3 138 0
	stb 3,13(31)
.LBE1050:
	.loc 3 140 0
	lwz 0,20(1)
	lwz 31,12(1)
.LVL160:
	mtlr 0
	addi 1,1,16
	.cfi_remember_state
	.cfi_restore 31
.LCFI46:
	.cfi_def_cfa_offset 0
	blr
.LVL161:
.L120:
.LCFI47:
	.cfi_restore_state
.LBB1051:
.LBB1046:
.LBB1042:
	.loc 3 59 0
	lis 4,.LC2@ha
	la 4,.LC2@l(4)
.L115:
.LBE1042:
.LBE1046:
	.loc 3 137 0
	cmpwi 7,3,0
	bne+ 7,.L117
	b .L114
.L123:
.LVL162:
.LBB1047:
.LBB1043:
.LBB1032:
.LBB1033:
.LBB1034:
.LBB1035:
	.loc 11 241 0
	addi 4,4,1
.LVL163:
	bl _ZNK6idDict7FindKeyEPKc
.LVL164:
	.loc 11 242 0
	cmpwi 0,3,0
	beq- 0,.L121
.LVL165:
.LBB1036:
	.loc 5 921 0
	lwz 9,4(3)
	lwz 3,4(31)
.LVL166:
	lwz 4,4(9)
	b .L115
.LVL167:
.L122:
.LBE1036:
.LBE1035:
.LBE1034:
.LBE1033:
.LBE1032:
.LBE1043:
.LBE1047:
.LBB1048:
.LBB1029:
.LBB1027:
.LBB1025:
	.loc 11 245 0
	lis 3,.LC10@ha
.LVL168:
	la 3,.LC10@l(3)
	b .L119
.LVL169:
.L121:
.LBE1025:
.LBE1027:
.LBE1029:
.LBE1048:
.LBB1049:
.LBB1044:
.LBB1041:
.LBB1040:
.LBB1039:
.LBB1038:
	lis 4,.LC2@ha
.LBB1037:
	.loc 5 921 0
	lwz 3,4(31)
.LVL170:
.LBE1037:
	.loc 11 245 0
	la 4,.LC2@l(4)
	b .L115
.LBE1038:
.LBE1039:
.LBE1040:
.LBE1041:
.LBE1044:
.LBE1049:
.LBE1051:
	.cfi_endproc
.LFE2611:
	.size	_ZN9idWinBool6UpdateEv, .-_ZN9idWinBool6UpdateEv
	.section	.text._ZN9idWinBool3SetEPKc,"axG",@progbits,_ZN9idWinBool3SetEPKc,comdat
	.align 2
	.weak	_ZN9idWinBool3SetEPKc
	.type	_ZN9idWinBool3SetEPKc, @function
_ZN9idWinBool3SetEPKc:
.LFB2610:
	.loc 3 128 0
	.cfi_startproc
.LVL171:
	stwu 1,-24(1)
.LCFI48:
	.cfi_def_cfa_offset 24
	mflr 0
	stw 31,20(1)
	mr 31,3
	.cfi_offset 31, -4
	.cfi_register 65, 0
	.loc 3 129 0
	mr 3,4
.LVL172:
	.loc 3 128 0
	stw 29,12(1)
	stw 0,28(1)
	stw 30,16(1)
	.loc 3 129 0
	.cfi_offset 30, -8
	.cfi_offset 65, 4
	.cfi_offset 29, -12
	bl atoi
.LVL173:
	.loc 3 130 0
	lwz 29,4(31)
	.loc 3 129 0
	cntlzw 4,3
	srwi 4,4,5
	.loc 3 130 0
	cmpwi 7,29,0
	.loc 3 129 0
	xori 4,4,1
	stb 4,13(31)
	.loc 3 130 0
	beq- 7,.L125
	.loc 5 921 0
	lwz 30,8(31)
.LBB1062:
.LBB1063:
	.loc 3 53 0
	cmpwi 7,30,0
	beq- 7,.L129
	.loc 3 54 0
	lbz 0,0(30)
	cmpwi 7,0,42
	beq- 7,.L131
.L127:
.LVL174:
.LBE1063:
.LBE1062:
.LBB1071:
.LBB1072:
	.loc 11 197 0
	lis 3,.LC3@ha
	la 3,.LC3@l(3)
	crxor 6,6,6
	bl _Z2vaPKcz
.LVL175:
	mr 4,30
	mr 5,3
	mr 3,29
	bl _ZN6idDict3SetEPKcS1_
.LVL176:
.L125:
.LBE1072:
.LBE1071:
	.loc 3 133 0
	lwz 0,28(1)
	lwz 29,12(1)
	mtlr 0
	lwz 30,16(1)
	lwz 31,20(1)
.LVL177:
	addi 1,1,24
	.cfi_remember_state
.LCFI49:
	.cfi_def_cfa_offset 0
	.cfi_restore 31
	.cfi_restore 30
	.cfi_restore 29
	blr
.LVL178:
.L129:
.LCFI50:
	.cfi_restore_state
.LBB1073:
.LBB1070:
	.loc 3 59 0
	lis 30,.LC2@ha
	la 30,.LC2@l(30)
	b .L127
.L131:
.LVL179:
.LBB1064:
.LBB1065:
.LBB1066:
.LBB1067:
	.loc 11 241 0
	mr 3,29
	addi 4,30,1
	bl _ZNK6idDict7FindKeyEPKc
.LVL180:
	.loc 11 242 0
	cmpwi 0,3,0
	beq- 0,.L130
.LVL181:
.LBB1068:
	.loc 5 921 0
	lwz 9,4(3)
	lbz 4,13(31)
	lwz 30,4(9)
.LVL182:
	b .L127
.LVL183:
.L130:
.LBE1068:
	.loc 11 245 0
	lis 30,.LC2@ha
.LVL184:
.LBB1069:
	.loc 5 921 0
	lbz 4,13(31)
.LBE1069:
	.loc 11 245 0
	la 30,.LC2@l(30)
	b .L127
.LBE1067:
.LBE1066:
.LBE1065:
.LBE1064:
.LBE1070:
.LBE1073:
	.cfi_endproc
.LFE2610:
	.size	_ZN9idWinBool3SetEPKc, .-_ZN9idWinBool3SetEPKc
	.section	.text._ZN9idWinBool4InitEPKcP8idWindow,"axG",@progbits,_ZN9idWinBool4InitEPKcP8idWindow,comdat
	.align 2
	.weak	_ZN9idWinBool4InitEPKcP8idWindow
	.type	_ZN9idWinBool4InitEPKcP8idWindow, @function
_ZN9idWinBool4InitEPKcP8idWindow:
.LFB2605:
	.loc 3 107 0
	.cfi_startproc
.LVL185:
	stwu 1,-16(1)
.LCFI51:
	.cfi_def_cfa_offset 16
	mflr 0
	stw 31,12(1)
	mr 31,3
	.cfi_offset 31, -4
	.cfi_register 65, 0
	stw 30,8(1)
	stw 0,20(1)
	.loc 3 107 0
	.cfi_offset 65, 4
	.cfi_offset 30, -8
	bl _ZN8idWinVar4InitEPKcP8idWindow
.LVL186:
	.loc 3 108 0
	lwz 30,4(31)
	cmpwi 7,30,0
	beq- 7,.L132
	.loc 5 921 0
	lwz 4,8(31)
.LBB1088:
.LBB1089:
	.loc 3 53 0
	cmpwi 7,4,0
	beq- 7,.L137
	.loc 3 54 0
	lbz 0,0(4)
	cmpwi 7,0,42
	beq- 7,.L140
.L134:
.LVL187:
.LBE1089:
.LBE1088:
.LBB1101:
.LBB1102:
.LBB1103:
.LBB1104:
	.loc 11 241 0
	mr 3,30
	bl _ZNK6idDict7FindKeyEPKc
.LVL188:
	.loc 11 242 0
	cmpwi 0,3,0
	beq- 0,.L139
.LVL189:
.LBB1105:
	.loc 5 921 0
	lwz 9,4(3)
	lwz 3,4(9)
.LVL190:
.L136:
.LBE1105:
.LBE1104:
.LBE1103:
	.loc 11 257 0
	bl atoi
	cntlzw 3,3
	srwi 3,3,5
	xori 3,3,1
.LBE1102:
.LBE1101:
	.loc 3 109 0
	stb 3,13(31)
.LVL191:
.L132:
	.loc 3 111 0
	lwz 0,20(1)
	lwz 30,8(1)
	mtlr 0
	lwz 31,12(1)
.LVL192:
	addi 1,1,16
	.cfi_remember_state
.LCFI52:
	.cfi_def_cfa_offset 0
	.cfi_restore 31
	.cfi_restore 30
	blr
.LVL193:
.L140:
.LCFI53:
	.cfi_restore_state
.LBB1109:
.LBB1099:
.LBB1090:
.LBB1091:
.LBB1092:
.LBB1093:
	.loc 11 241 0
	mr 3,30
	addi 4,4,1
.LVL194:
	bl _ZNK6idDict7FindKeyEPKc
.LVL195:
	.loc 11 242 0
	cmpwi 0,3,0
	bne+ 0,.L141
.LVL196:
.L137:
.LBE1093:
.LBE1092:
.LBE1091:
.LBE1090:
	.loc 3 59 0
	lis 4,.LC2@ha
	la 4,.LC2@l(4)
	b .L134
.LVL197:
.L139:
.LBE1099:
.LBE1109:
.LBB1110:
.LBB1108:
.LBB1107:
.LBB1106:
	.loc 11 245 0
	lis 3,.LC10@ha
.LVL198:
	la 3,.LC10@l(3)
	b .L136
.LVL199:
.L141:
.LBE1106:
.LBE1107:
.LBE1108:
.LBE1110:
.LBB1111:
.LBB1100:
.LBB1098:
.LBB1097:
.LBB1096:
.LBB1095:
.LBB1094:
	.loc 5 921 0
	lwz 9,4(3)
	lwz 4,4(9)
	b .L134
.LBE1094:
.LBE1095:
.LBE1096:
.LBE1097:
.LBE1098:
.LBE1100:
.LBE1111:
	.cfi_endproc
.LFE2605:
	.size	_ZN9idWinBool4InitEPKcP8idWindow, .-_ZN9idWinBool4InitEPKcP8idWindow
	.section	".text"
	.align 2
	.globl _ZN21idGameBearShootWindow16ParseInternalVarEPKcP8idParser
	.type	_ZN21idGameBearShootWindow16ParseInternalVarEPKcP8idParser, @function
_ZN21idGameBearShootWindow16ParseInternalVarEPKcP8idParser:
.LFB2883:
	.loc 5 494 0
	.cfi_startproc
.LVL200:
	stwu 1,-24(1)
.LCFI54:
	.cfi_def_cfa_offset 24
	mflr 0
	stw 30,16(1)
	mr 30,4
	.cfi_offset 30, -8
	.cfi_register 65, 0
	.loc 5 495 0
	lis 4,.LC6@ha
.LVL201:
	.loc 5 494 0
	stw 31,20(1)
	.loc 5 495 0
	la 4,.LC6@l(4)
	.loc 5 494 0
	mr 31,3
	.cfi_offset 31, -4
	.loc 5 495 0
	mr 3,30
.LVL202:
	.loc 5 494 0
	stw 29,12(1)
	stw 0,28(1)
	.loc 5 494 0
	mr 29,5
	.cfi_offset 65, 4
	.cfi_offset 29, -12
	.loc 5 495 0
	bl _ZN5idStr4IcmpEPKcS1_
.LVL203:
	cmpwi 7,3,0
	beq- 7,.L169
	.loc 5 499 0
	lis 4,.LC7@ha
	mr 3,30
	la 4,.LC7@l(4)
	bl _ZN5idStr4IcmpEPKcS1_
	cmpwi 7,3,0
	beq- 7,.L170
.LVL204:
.LBB1162:
.LBB1163:
	.loc 5 503 0
	lis 4,.LC8@ha
	mr 3,30
	la 4,.LC8@l(4)
	bl _ZN5idStr4IcmpEPKcS1_
	cmpwi 7,3,0
	beq- 7,.L171
	.loc 5 507 0
	lis 4,.LC9@ha
	mr 3,30
	la 4,.LC9@l(4)
	bl _ZN5idStr4IcmpEPKcS1_
	cmpwi 7,3,0
	beq- 7,.L172
	.loc 5 512 0
	mr 3,31
	mr 4,30
	mr 5,29
	bl _ZN8idWindow16ParseInternalVarEPKcP8idParser
.LVL205:
.L144:
.LBE1163:
.LBE1162:
	.loc 5 513 0
	lwz 0,28(1)
	lwz 29,12(1)
	mtlr 0
	lwz 30,16(1)
.LVL206:
	lwz 31,20(1)
.LVL207:
	addi 1,1,24
	.cfi_remember_state
.LCFI55:
	.cfi_def_cfa_offset 0
	.cfi_restore 31
	.cfi_restore 30
	.cfi_restore 29
	blr
.LVL208:
.L170:
.LCFI56:
	.cfi_restore_state
	.loc 5 500 0
	mr 3,29
	bl _ZN8idParser9ParseBoolEv
.LBB1222:
.LBB1223:
	.loc 3 115 0
	lwz 29,952(31)
.LVL209:
.LBE1223:
.LBE1222:
	.loc 5 500 0
	mr 4,3
.LVL210:
.LBB1241:
.LBB1238:
	.loc 3 114 0
	stb 3,961(31)
	.loc 3 115 0
	cmpwi 7,29,0
	.loc 5 501 0
	li 3,1
	.loc 3 115 0
	beq- 7,.L144
.LBE1238:
	.loc 5 921 0
	lwz 30,956(31)
.LVL211:
.LBB1239:
.LBB1224:
.LBB1225:
	.loc 3 53 0
	cmpwi 7,30,0
	beq- 7,.L167
	.loc 3 54 0
	lbz 0,0(30)
	cmpwi 7,0,42
	bne+ 7,.L155
.LVL212:
.LBB1226:
.LBB1227:
.LBB1228:
.LBB1229:
	.loc 11 241 0
	mr 3,29
	addi 4,30,1
	bl _ZNK6idDict7FindKeyEPKc
.LVL213:
	.loc 11 242 0
	cmpwi 0,3,0
	beq- 0,.L162
.LVL214:
.LBB1230:
	.loc 5 921 0
	lwz 9,4(3)
	lbz 4,961(31)
	lwz 30,4(9)
.LVL215:
	b .L155
.LVL216:
.L169:
.LBE1230:
.LBE1229:
.LBE1228:
.LBE1227:
.LBE1226:
.LBE1225:
.LBE1224:
.LBE1239:
.LBE1241:
	.loc 5 496 0
	mr 3,29
	bl _ZN8idParser9ParseBoolEv
.LBB1242:
.LBB1243:
	.loc 3 115 0
	lwz 29,936(31)
.LVL217:
.LBE1243:
.LBE1242:
	.loc 5 496 0
	mr 4,3
.LVL218:
.LBB1257:
.LBB1254:
	.loc 3 114 0
	stb 3,945(31)
	.loc 3 115 0
	cmpwi 7,29,0
	.loc 5 497 0
	li 3,1
	.loc 3 115 0
	beq- 7,.L144
.LBE1254:
	.loc 5 921 0
	lwz 30,940(31)
.LVL219:
.LBB1255:
.LBB1244:
.LBB1245:
	.loc 3 53 0
	cmpwi 7,30,0
	beq- 7,.L167
	.loc 3 54 0
	lbz 0,0(30)
	cmpwi 7,0,42
	beq- 7,.L173
.LVL220:
.L155:
.LBE1245:
.LBE1244:
.LBE1255:
.LBE1257:
.LBB1258:
.LBB1218:
.LBB1164:
.LBB1165:
.LBB1166:
.LBB1167:
	.loc 11 197 0
	lis 3,.LC3@ha
	la 3,.LC3@l(3)
	crxor 6,6,6
	bl _Z2vaPKcz
.LVL221:
	mr 4,30
	mr 5,3
	mr 3,29
	bl _ZN6idDict3SetEPKcS1_
.LBE1167:
.LBE1166:
.LBE1165:
.LBE1164:
.LBE1218:
.LBE1258:
	.loc 5 513 0
	lwz 0,28(1)
	lwz 29,12(1)
.LVL222:
.LBB1259:
.LBB1219:
.LBB1192:
.LBB1186:
.LBB1169:
.LBB1168:
	.loc 5 509 0
	li 3,1
.LBE1168:
.LBE1169:
.LBE1186:
.LBE1192:
.LBE1219:
.LBE1259:
	.loc 5 513 0
	mtlr 0
	lwz 30,16(1)
	lwz 31,20(1)
.LVL223:
	addi 1,1,24
	.cfi_remember_state
	.cfi_restore 29
	.cfi_restore 30
	.cfi_restore 31
.LCFI57:
	.cfi_def_cfa_offset 0
	blr
.LVL224:
.L172:
.LCFI58:
	.cfi_restore_state
.LBB1260:
.LBB1220:
	.loc 5 508 0
	mr 3,29
	bl _ZN8idParser9ParseBoolEv
.LBB1193:
.LBB1187:
	.loc 3 115 0
	lwz 29,984(31)
.LVL225:
.LBE1187:
.LBE1193:
	.loc 5 508 0
	mr 4,3
.LVL226:
.LBB1194:
.LBB1188:
	.loc 3 114 0
	stb 3,993(31)
	.loc 3 115 0
	cmpwi 7,29,0
	.loc 5 509 0
	li 3,1
	.loc 3 115 0
	beq- 7,.L144
.LBE1188:
	.loc 5 921 0
	lwz 30,988(31)
.LVL227:
.LBB1189:
.LBB1170:
.LBB1171:
	.loc 3 53 0
	cmpwi 7,30,0
	beq- 7,.L167
	.loc 3 54 0
	lbz 0,0(30)
	cmpwi 7,0,42
	bne+ 7,.L155
.LVL228:
.LBB1172:
.LBB1173:
.LBB1174:
.LBB1175:
	.loc 11 241 0
	mr 3,29
	addi 4,30,1
	bl _ZNK6idDict7FindKeyEPKc
.LVL229:
	.loc 11 242 0
	cmpwi 0,3,0
	beq- 0,.L168
.LVL230:
.LBB1176:
	.loc 5 921 0
	lwz 9,4(3)
	lbz 4,993(31)
	lwz 30,4(9)
.LVL231:
	b .L155
.LVL232:
.L171:
.LBE1176:
.LBE1175:
.LBE1174:
.LBE1173:
.LBE1172:
.LBE1171:
.LBE1170:
.LBE1189:
.LBE1194:
	.loc 5 504 0
	mr 3,29
	bl _ZN8idParser9ParseBoolEv
.LBB1195:
.LBB1196:
	.loc 3 115 0
	lwz 29,968(31)
.LVL233:
.LBE1196:
.LBE1195:
	.loc 5 504 0
	mr 4,3
.LVL234:
.LBB1214:
.LBB1211:
	.loc 3 114 0
	stb 3,977(31)
	.loc 3 115 0
	cmpwi 7,29,0
	.loc 5 505 0
	li 3,1
	.loc 3 115 0
	beq- 7,.L144
.LBE1211:
	.loc 5 921 0
	lwz 30,972(31)
.LVL235:
.LBB1212:
.LBB1197:
.LBB1198:
	.loc 3 53 0
	cmpwi 7,30,0
	beq- 7,.L167
	.loc 3 54 0
	lbz 0,0(30)
	cmpwi 7,0,42
	bne+ 7,.L155
.LVL236:
.LBB1199:
.LBB1200:
.LBB1201:
.LBB1202:
	.loc 11 241 0
	mr 3,29
	addi 4,30,1
	bl _ZNK6idDict7FindKeyEPKc
.LVL237:
	.loc 11 242 0
	cmpwi 0,3,0
	beq- 0,.L165
.LVL238:
.LBB1203:
	.loc 5 921 0
	lwz 9,4(3)
	lbz 4,977(31)
	lwz 30,4(9)
.LVL239:
	b .L155
.LVL240:
.L167:
.LBE1203:
.LBE1202:
.LBE1201:
.LBE1200:
.LBE1199:
.LBE1198:
.LBE1197:
.LBE1212:
.LBE1214:
.LBB1215:
.LBB1190:
.LBB1184:
.LBB1182:
	.loc 3 59 0
	lis 30,.LC2@ha
	la 30,.LC2@l(30)
	b .L155
.LVL241:
.L173:
.LBE1182:
.LBE1184:
.LBE1190:
.LBE1215:
.LBE1220:
.LBE1260:
.LBB1261:
.LBB1256:
.LBB1253:
.LBB1252:
.LBB1246:
.LBB1247:
.LBB1248:
.LBB1249:
	.loc 11 241 0
	mr 3,29
	addi 4,30,1
	bl _ZNK6idDict7FindKeyEPKc
.LVL242:
	.loc 11 242 0
	cmpwi 0,3,0
	beq- 0,.L159
.LVL243:
.LBB1250:
	.loc 5 921 0
	lwz 9,4(3)
	lbz 4,945(31)
	lwz 30,4(9)
.LVL244:
	b .L155
.LVL245:
.L159:
.LBE1250:
	.loc 11 245 0
	lis 30,.LC2@ha
.LVL246:
.LBB1251:
	.loc 5 921 0
	lbz 4,945(31)
.LBE1251:
	.loc 11 245 0
	la 30,.LC2@l(30)
	b .L155
.LVL247:
.L162:
.LBE1249:
.LBE1248:
.LBE1247:
.LBE1246:
.LBE1252:
.LBE1253:
.LBE1256:
.LBE1261:
.LBB1262:
.LBB1240:
.LBB1237:
.LBB1236:
.LBB1235:
.LBB1234:
.LBB1233:
.LBB1232:
	lis 30,.LC2@ha
.LVL248:
.LBB1231:
	.loc 5 921 0
	lbz 4,961(31)
.LBE1231:
	.loc 11 245 0
	la 30,.LC2@l(30)
	b .L155
.LVL249:
.L165:
.LBE1232:
.LBE1233:
.LBE1234:
.LBE1235:
.LBE1236:
.LBE1237:
.LBE1240:
.LBE1262:
.LBB1263:
.LBB1221:
.LBB1216:
.LBB1213:
.LBB1210:
.LBB1209:
.LBB1208:
.LBB1207:
.LBB1206:
.LBB1205:
	lis 30,.LC2@ha
.LVL250:
.LBB1204:
	.loc 5 921 0
	lbz 4,977(31)
.LBE1204:
	.loc 11 245 0
	la 30,.LC2@l(30)
	b .L155
.LVL251:
.L168:
.LBE1205:
.LBE1206:
.LBE1207:
.LBE1208:
.LBE1209:
.LBE1210:
.LBE1213:
.LBE1216:
.LBB1217:
.LBB1191:
.LBB1185:
.LBB1183:
.LBB1181:
.LBB1180:
.LBB1179:
.LBB1178:
	lis 30,.LC2@ha
.LVL252:
.LBB1177:
	.loc 5 921 0
	lbz 4,993(31)
.LBE1177:
	.loc 11 245 0
	la 30,.LC2@l(30)
	b .L155
.LBE1178:
.LBE1179:
.LBE1180:
.LBE1181:
.LBE1183:
.LBE1185:
.LBE1191:
.LBE1217:
.LBE1221:
.LBE1263:
	.cfi_endproc
.LFE2883:
	.size	_ZN21idGameBearShootWindow16ParseInternalVarEPKcP8idParser, .-_ZN21idGameBearShootWindow16ParseInternalVarEPKcP8idParser
	.section	.text._ZN6idCVarC2EPKcS1_iS1_PFvRK9idCmdArgsPFvS1_EE,"axG",@progbits,_ZN6idCVarC5EPKcS1_iS1_PFvRK9idCmdArgsPFvS1_EE,comdat
	.align 2
	.weak	_ZN6idCVarC2EPKcS1_iS1_PFvRK9idCmdArgsPFvS1_EE
	.type	_ZN6idCVarC2EPKcS1_iS1_PFvRK9idCmdArgsPFvS1_EE, @function
_ZN6idCVarC2EPKcS1_iS1_PFvRK9idCmdArgsPFvS1_EE:
.LFB2202:
	.loc 2 181 0
	.cfi_startproc
.LVL253:
	mflr 0
.LBB1272:
	.loc 2 183 0
	cmpwi 0,8,0
.LBE1272:
	.loc 2 181 0
	stwu 1,-8(1)
.LCFI59:
	.cfi_def_cfa_offset 8
	.cfi_register 65, 0
.LBB1275:
	.loc 2 182 0
	lis 9,_ZTV6idCVar+8@ha
.LBE1275:
	.loc 2 181 0
	stw 0,12(1)
.LBB1276:
	.loc 2 182 0
	la 0,_ZTV6idCVar+8@l(9)
	.cfi_offset 65, 4
	stw 0,0(3)
	.loc 2 183 0
	beq- 0,.L178
.LVL254:
.L175:
.LBB1273:
.LBB1274:
	.loc 2 292 0
	lis 9,_ZN6idCVar10staticVarsE@ha
	.loc 2 285 0
	lis 10,.LC0@ha
	.loc 2 292 0
	lwz 11,_ZN6idCVar10staticVarsE@l(9)
	.loc 2 287 0
	li 0,0
	.loc 2 285 0
	lwz 10,.LC0@l(10)
	.loc 2 284 0
	ori 6,6,4096
.LVL255:
	.loc 2 292 0
	cmpwi 7,11,-1
	.loc 2 287 0
	stw 0,28(3)
	.loc 2 285 0
	stw 10,20(3)
	.loc 2 286 0
	lis 10,.LC11@ha
	lwz 10,.LC11@l(10)
	.loc 2 289 0
	stw 0,36(3)
	.loc 2 290 0
	li 0,0
	.loc 2 280 0
	stw 4,4(3)
	.loc 2 281 0
	stw 5,8(3)
	.loc 2 283 0
	stw 7,12(3)
	.loc 2 284 0
	stw 6,16(3)
	.loc 2 286 0
	stw 10,24(3)
	.loc 2 288 0
	stw 8,32(3)
	.loc 2 290 0
	stw 0,40(3)
	.loc 2 291 0
	stw 3,44(3)
	.loc 2 292 0
	beq- 7,.L176
.LVL256:
	.loc 2 293 0
	stw 11,48(3)
	.loc 2 294 0
	stw 3,_ZN6idCVar10staticVarsE@l(9)
.LBE1274:
.LBE1273:
.LBE1276:
	.loc 2 187 0
	lwz 0,12(1)
	addi 1,1,8
	.cfi_remember_state
.LCFI60:
	.cfi_def_cfa_offset 0
	mtlr 0
	blr
.LVL257:
.L178:
.LCFI61:
	.cfi_restore_state
.LBB1277:
	.loc 2 183 0 discriminator 1
	andi. 0,6,1
	beq- 0,.L175
	.loc 2 184 0
	lis 8,_ZN11idCmdSystem21ArgCompletion_BooleanERK9idCmdArgsPFvPKcE@ha
.LVL258:
	la 8,_ZN11idCmdSystem21ArgCompletion_BooleanERK9idCmdArgsPFvPKcE@l(8)
	b .L175
.LVL259:
.L176:
.LBE1277:
.LBB1278:
.LBB1279:
.LBB1280:
.LBB1281:
	.loc 2 296 0
	lis 9,cvarSystem@ha
	mr 4,3
.LVL260:
	lwz 11,cvarSystem@l(9)
	lwz 9,0(11)
	mr 3,11
.LVL261:
	lwz 0,20(9)
	mtctr 0
	bctrl
.LVL262:
.LBE1281:
.LBE1280:
.LBE1279:
.LBE1278:
	.loc 2 187 0
	lwz 0,12(1)
	addi 1,1,8
.LCFI62:
	.cfi_def_cfa_offset 0
	mtlr 0
	blr
	.cfi_endproc
.LFE2202:
	.size	_ZN6idCVarC2EPKcS1_iS1_PFvRK9idCmdArgsPFvS1_EE, .-_ZN6idCVarC2EPKcS1_iS1_PFvRK9idCmdArgsPFvS1_EE
	.section	".text"
	.align 2
	.type	_Z41__static_initialization_and_destruction_0ii.constprop.39, @function
_Z41__static_initialization_and_destruction_0ii.constprop.39:
.LFB3222:
	.loc 5 921 0
	.cfi_startproc
.LVL263:
	cmpwi 7,3,1
	mflr 0
	stwu 1,-16(1)
.LCFI63:
	.cfi_def_cfa_offset 16
	.cfi_register 65, 0
	stw 0,20(1)
	stw 30,8(1)
	stw 31,12(1)
	.loc 5 921 0
	beq- 7,.L184
	.cfi_offset 31, -4
	.cfi_offset 30, -8
	.cfi_offset 65, 4
	.loc 5 46 0
	cmpwi 7,3,0
	bne- 7,.L179
.LVL264:
.LBB1292:
.LBB1293:
.LBB1294:
.LBB1295:
.LBB1296:
	.loc 2 127 0
	lis 9,.LANCHOR0@ha
	lis 11,_ZTV6idCVar+8@ha
	la 9,.LANCHOR0@l(9)
	la 0,_ZTV6idCVar+8@l(11)
	stw 0,56(9)
.LVL265:
.LBE1296:
.LBE1295:
.LBE1294:
.LBB1297:
.LBB1298:
.LBB1299:
	stw 0,4(9)
.LVL266:
.L179:
.LBE1299:
.LBE1298:
.LBE1297:
.LBE1293:
.LBE1292:
	.loc 5 921 0
	lwz 0,20(1)
	lwz 30,8(1)
	mtlr 0
	lwz 31,12(1)
	addi 1,1,16
	.cfi_remember_state
.LCFI64:
	.cfi_def_cfa_offset 0
	.cfi_restore 31
	.cfi_restore 30
	blr
.LVL267:
.L184:
.LCFI65:
	.cfi_restore_state
	.loc 3 36 0
	lis 9,.LANCHOR0@ha
	.loc 5 45 0
	lis 31,.LC2@ha
	.loc 3 36 0
	la 30,.LANCHOR0@l(9)
	.loc 5 45 0
	la 31,.LC2@l(31)
	lis 4,.LC12@ha
	lis 5,.LC10@ha
	addi 3,30,4
.LVL268:
	mr 7,31
	.loc 3 36 0
	li 0,5
	.loc 5 45 0
	la 4,.LC12@l(4)
	la 5,.LC10@l(5)
	li 6,4
	li 8,0
	.loc 3 36 0
	stw 0,.LANCHOR0@l(9)
	.loc 5 45 0
	bl _ZN6idCVarC1EPKcS1_iS1_PFvRK9idCmdArgsPFvS1_EE
	.loc 5 46 0
	lis 4,.LC13@ha
	lis 5,.LC14@ha
	addi 3,30,56
	la 4,.LC13@l(4)
	la 5,.LC14@l(5)
	li 6,4
	mr 7,31
	li 8,0
	bl _ZN6idCVarC1EPKcS1_iS1_PFvRK9idCmdArgsPFvS1_EE
	b .L179
	.cfi_endproc
.LFE3222:
	.size	_Z41__static_initialization_and_destruction_0ii.constprop.39, .-_Z41__static_initialization_and_destruction_0ii.constprop.39
	.align 2
	.globl _ZN8BSEntityC2EP21idGameBearShootWindow
	.type	_ZN8BSEntityC2EP21idGameBearShootWindow, @function
_ZN8BSEntityC2EP21idGameBearShootWindow:
.LFB2847:
	.loc 5 53 0
	.cfi_startproc
	.cfi_personality 0,__gxx_personality_v0
	.cfi_lsda 0,.LLSDA2847
.LVL269:
	mflr 0
	stwu 1,-24(1)
.LCFI66:
	.cfi_def_cfa_offset 24
	.cfi_register 65, 0
.LBB1300:
	lis 11,_ZTV8BSEntity+8@ha
.LBB1301:
.LBB1302:
.LBB1303:
	.loc 8 358 0
	addi 9,3,20
.LBE1303:
.LBE1302:
.LBE1301:
	.loc 5 53 0
	la 11,_ZTV8BSEntity+8@l(11)
.LBE1300:
	stw 29,12(1)
	stw 0,28(1)
.LBB1320:
.LBB1310:
.LBB1307:
.LBB1304:
	.loc 8 356 0
	li 0,0
	.cfi_offset 65, 4
	.cfi_offset 29, -12
.LBE1304:
.LBE1307:
.LBE1310:
.LBE1320:
	.loc 5 53 0
	stw 30,16(1)
	mr 29,4
	stw 31,20(1)
	.loc 5 53 0
	mr 31,3
	.cfi_offset 31, -4
	.cfi_offset 30, -8
.LBB1321:
	stw 11,0(3)
.LVL270:
.LBB1311:
.LBB1308:
.LBB1305:
	.loc 8 357 0
	li 11,20
	.loc 8 356 0
	stw 0,8(3)
.LBE1305:
.LBE1308:
.LBE1311:
	.loc 5 55 0
	li 4,100
.LVL271:
.LBB1312:
.LBB1309:
.LBB1306:
	.loc 8 357 0
	stw 11,16(3)
	addi 30,31,8
	.loc 8 358 0
	stw 9,12(3)
	.loc 8 359 0
	stb 0,20(3)
.LBE1306:
.LBE1309:
.LBE1312:
	.loc 5 55 0
	lis 3,.LC15@ha
.LVL272:
	la 3,.LC15@l(3)
.LEHB0:
	crxor 6,6,6
	bl _Z15Sys_DebugPrintfPKcz
.LVL273:
	.loc 5 61 0
	lis 11,colorWhite@ha
	.loc 5 62 0
	lis 4,.LC2@ha
	.loc 5 61 0
	la 9,colorWhite@l(11)
	lwz 8,colorWhite@l(11)
	lwz 10,4(9)
	.loc 5 62 0
	mr 3,30
	.loc 5 61 0
	lwz 11,8(9)
	.loc 5 62 0
	la 4,.LC2@l(4)
	.loc 5 61 0
	lwz 0,12(9)
	.loc 5 59 0
	li 9,1
	.loc 5 58 0
	stw 29,96(31)
	.loc 5 59 0
	stb 9,48(31)
	.loc 5 61 0
	stw 8,52(31)
	stw 10,56(31)
	stw 11,60(31)
	stw 0,64(31)
	.loc 5 62 0
	bl _ZN5idStraSEPKc
.LEHE0:
	.loc 5 64 0
	lis 9,.LC16@ha
	.loc 5 65 0
	li 0,0
	.loc 5 64 0
	lwz 11,.LC16@l(9)
	.loc 5 63 0
	li 9,0
	stw 9,4(31)
	.loc 5 64 0
	stw 11,44(31)
	stw 11,40(31)
	.loc 5 65 0
	stw 0,76(31)
	.loc 5 66 0
	stw 0,80(31)
	.loc 5 67 0
	stb 9,92(31)
	.loc 5 68 0
	stb 9,93(31)
.LVL274:
.LBB1313:
.LBB1314:
	.loc 9 120 0
	stw 0,72(31)
	stw 0,68(31)
.LVL275:
.LBE1314:
.LBE1313:
.LBB1315:
.LBB1316:
	stw 0,88(31)
	stw 0,84(31)
.LBE1316:
.LBE1315:
.LBE1321:
	.loc 5 72 0
	lwz 0,28(1)
	lwz 29,12(1)
.LVL276:
	mtlr 0
	lwz 30,16(1)
	lwz 31,20(1)
.LVL277:
	addi 1,1,24
	.cfi_remember_state
.LCFI67:
	.cfi_def_cfa_offset 0
	.cfi_restore 31
	.cfi_restore 30
	.cfi_restore 29
	blr
.LVL278:
.L188:
.LCFI68:
	.cfi_restore_state
	mr 31,3
.LVL279:
.LBB1322:
.LBB1317:
.LBB1318:
.LBB1319:
	.loc 8 501 0
	mr 3,30
	bl _ZN5idStr8FreeDataEv
	mr 3,31
.LEHB1:
	bl _Unwind_Resume
.LEHE1:
.LBE1319:
.LBE1318:
.LBE1317:
.LBE1322:
	.cfi_endproc
.LFE2847:
	.globl __gxx_personality_v0
	.section	.gcc_except_table,"a",@progbits
.LLSDA2847:
	.byte	0xff
	.byte	0xff
	.byte	0x1
	.uleb128 .LLSDACSE2847-.LLSDACSB2847
.LLSDACSB2847:
	.uleb128 .LEHB0-.LFB2847
	.uleb128 .LEHE0-.LEHB0
	.uleb128 .L188-.LFB2847
	.uleb128 0
	.uleb128 .LEHB1-.LFB2847
	.uleb128 .LEHE1-.LEHB1
	.uleb128 0
	.uleb128 0
.LLSDACSE2847:
	.section	".text"
	.size	_ZN8BSEntityC2EP21idGameBearShootWindow, .-_ZN8BSEntityC2EP21idGameBearShootWindow
	.align 2
	.globl _ZN8BSEntitynwEj
	.type	_ZN8BSEntitynwEj, @function
_ZN8BSEntitynwEj:
.LFB2853:
	.loc 5 78 0
	.cfi_startproc
	.cfi_personality 0,__gxx_personality_v0
	.cfi_lsda 0,.LLSDA2853
.LVL280:
	mflr 0
	stwu 1,-8(1)
.LCFI69:
	.cfi_def_cfa_offset 8
	.cfi_register 65, 0
	stw 0,12(1)
.LEHB2:
.LBB1323:
	.loc 5 79 0
	.cfi_offset 65, 4
	bl _Z11Mem_Alloc16i
.LVL281:
	.loc 5 80 0
	cmpwi 7,3,0
	beq- 7,.L194
.LBE1323:
	.loc 5 84 0
	lwz 0,12(1)
	addi 1,1,8
	.cfi_remember_state
.LCFI70:
	.cfi_def_cfa_offset 0
	mtlr 0
	blr
.L194:
.LCFI71:
	.cfi_restore_state
.LBB1328:
	.loc 5 81 0
	li 3,4
.LVL282:
	bl __cxa_allocate_exception
.LVL283:
.LBB1324:
.LBB1325:
	.file 12 "c:\\utils\\devkitpro\\devkitppc\\bin\\../lib/gcc/powerpc-eabi/4.6.3/../../../../powerpc-eabi/include/c++/4.6.3/new"
	.loc 12 59 0
	lis 9,_ZTVSt9bad_alloc+8@ha
	la 0,_ZTVSt9bad_alloc+8@l(9)
.LBE1325:
.LBE1324:
	.loc 5 81 0
	lis 4,_ZTISt9bad_alloc@ha
	lis 5,_ZNSt9bad_allocD1Ev@ha
.LBB1327:
.LBB1326:
	.loc 12 59 0
	stw 0,0(3)
.LBE1326:
.LBE1327:
	.loc 5 81 0
	la 4,_ZTISt9bad_alloc@l(4)
	la 5,_ZNSt9bad_allocD1Ev@l(5)
	bl __cxa_throw
.LEHE2:
.LVL284:
.L193:
	.loc 5 83 0
	cmpwi 7,4,-1
	beq- 7,.L192
.LEHB3:
	bl _Unwind_Resume
.L192:
.LBE1328:
	.loc 5 78 0
	bl __cxa_call_unexpected
.LEHE3:
	.cfi_endproc
.LFE2853:
	.section	.gcc_except_table
	.align 2
.LLSDA2853:
	.byte	0xff
	.byte	0
	.uleb128 .LLSDATT2853-.LLSDATTD2853
.LLSDATTD2853:
	.byte	0x1
	.uleb128 .LLSDACSE2853-.LLSDACSB2853
.LLSDACSB2853:
	.uleb128 .LEHB2-.LFB2853
	.uleb128 .LEHE2-.LEHB2
	.uleb128 .L193-.LFB2853
	.uleb128 0x1
	.uleb128 .LEHB3-.LFB2853
	.uleb128 .LEHE3-.LEHB3
	.uleb128 0
	.uleb128 0
.LLSDACSE2853:
	.byte	0x7f
	.byte	0
	.align 2
	.long	_ZTISt9bad_alloc
.LLSDATT2853:
	.byte	0x1
	.byte	0
	.section	".text"
	.size	_ZN8BSEntitynwEj, .-_ZN8BSEntitynwEj
	.align 2
	.globl _ZN8BSEntitydlEPv
	.type	_ZN8BSEntitydlEPv, @function
_ZN8BSEntitydlEPv:
.LFB2860:
	.loc 5 86 0
	.cfi_startproc
	.cfi_personality 0,__gxx_personality_v0
	.cfi_lsda 0,.LLSDA2860
.LVL285:
	mflr 0
	stwu 1,-8(1)
.LCFI72:
	.cfi_def_cfa_offset 8
	.cfi_register 65, 0
	stw 0,12(1)
	.loc 5 87 0
	lis 0,0x8fff
	.cfi_offset 65, 4
	ori 0,0,65535
	cmplw 7,3,0
	ble- 7,.L196
.LEHB4:
	.loc 5 88 0
	bl _Z10Mem_Free16Pv
.LEHE4:
.LVL286:
	.loc 5 92 0
	lwz 0,12(1)
	addi 1,1,8
	.cfi_remember_state
.LCFI73:
	.cfi_def_cfa_offset 0
	mtlr 0
	blr
.LVL287:
.L196:
.LCFI74:
	.cfi_restore_state
	.loc 5 90 0
	bl free
.LVL288:
	.loc 5 92 0
	lwz 0,12(1)
	addi 1,1,8
	.cfi_remember_state
.LCFI75:
	.cfi_def_cfa_offset 0
	mtlr 0
	blr
.L200:
.LCFI76:
	.cfi_restore_state
	cmpwi 7,4,-1
	beq- 7,.L199
.LEHB5:
	bl _Unwind_Resume
.L199:
	.loc 5 86 0
	bl __cxa_call_unexpected
.LEHE5:
	.cfi_endproc
.LFE2860:
	.section	.gcc_except_table
	.align 2
.LLSDA2860:
	.byte	0xff
	.byte	0
	.uleb128 .LLSDATT2860-.LLSDATTD2860
.LLSDATTD2860:
	.byte	0x1
	.uleb128 .LLSDACSE2860-.LLSDACSB2860
.LLSDACSB2860:
	.uleb128 .LEHB4-.LFB2860
	.uleb128 .LEHE4-.LEHB4
	.uleb128 .L200-.LFB2860
	.uleb128 0x1
	.uleb128 .LEHB5-.LFB2860
	.uleb128 .LEHE5-.LEHB5
	.uleb128 0
	.uleb128 0
.LLSDACSE2860:
	.byte	0x7f
	.byte	0
	.align 2
.LLSDATT2860:
	.byte	0
	.section	".text"
	.size	_ZN8BSEntitydlEPv, .-_ZN8BSEntitydlEPv
	.align 2
	.globl _ZN8BSEntityD0Ev
	.type	_ZN8BSEntityD0Ev, @function
_ZN8BSEntityD0Ev:
.LFB2852:
	.loc 5 74 0
	.cfi_startproc
.LVL289:
	mflr 0
	stwu 1,-16(1)
.LCFI77:
	.cfi_def_cfa_offset 16
	.cfi_register 65, 0
	stw 31,12(1)
	mr 31,3
	.cfi_offset 31, -4
	stw 0,20(1)
	.loc 5 75 0
	.cfi_offset 65, 4
	bl _ZN8BSEntityD1Ev
.LVL290:
	lwz 0,20(1)
	mr 3,31
	lwz 31,12(1)
.LVL291:
	mtlr 0
	addi 1,1,16
.LCFI78:
	.cfi_def_cfa_offset 0
	.cfi_restore 31
	b _ZN8BSEntitydlEPv
.LVL292:
	.cfi_endproc
.LFE2852:
	.size	_ZN8BSEntityD0Ev, .-_ZN8BSEntityD0Ev
	.align 2
	.globl _ZN21idGameBearShootWindow16ReadFromSaveGameEP6idFile
	.type	_ZN21idGameBearShootWindow16ReadFromSaveGameEP6idFile, @function
_ZN21idGameBearShootWindow16ReadFromSaveGameEP6idFile:
.LFB2879:
	.loc 5 300 0
	.cfi_startproc
	.cfi_personality 0,__gxx_personality_v0
	.cfi_lsda 0,.LLSDA2879
.LVL293:
	stwu 1,-56(1)
.LCFI79:
	.cfi_def_cfa_offset 56
	mflr 0
	stw 31,52(1)
	mr 31,3
	.cfi_offset 31, -4
	.cfi_register 65, 0
	stw 0,60(1)
	stw 28,40(1)
	mr 28,4
	.cfi_offset 28, -16
	.cfi_offset 65, 4
	stw 30,48(1)
.LBB1375:
	.loc 5 304 0
	addi 30,31,1048
	.cfi_offset 30, -8
.LBE1375:
	.loc 5 300 0
	stw 24,24(1)
	stw 25,28(1)
	stw 26,32(1)
	stw 27,36(1)
	stw 29,44(1)
.LEHB6:
.LBB1447:
	.loc 5 301 0
	.cfi_offset 29, -12
	.cfi_offset 27, -20
	.cfi_offset 26, -24
	.cfi_offset 25, -28
	.cfi_offset 24, -32
	bl _ZN8idWindow16ReadFromSaveGameEP6idFile
.LVL294:
.LBB1376:
.LBB1377:
	.loc 10 218 0
	lwz 0,1048(31)
	cmpwi 7,0,0
	ble- 7,.L204
	li 29,0
	.loc 10 220 0
	li 26,0
.LVL295:
.L206:
	.loc 10 219 0
	lwz 9,12(30)
	.loc 5 300 0
	slwi 27,29,2
	.loc 10 219 0
	lwzx 3,9,27
	add 9,9,27
	cmpwi 7,3,0
	beq- 7,.L205
	lwz 9,0(3)
	lwz 0,4(9)
	mtctr 0
	bctrl
	lwz 9,1060(31)
	add 9,9,27
.L205:
	.loc 10 220 0
	stw 26,0(9)
	.loc 10 218 0
	addi 29,29,1
.LVL296:
	lwz 0,0(30)
	cmpw 7,29,0
	blt+ 7,.L206
.LVL297:
.L204:
.LBB1378:
.LBB1379:
	.loc 10 193 0
	lwz 3,1060(31)
	cmpwi 7,3,0
	beq- 7,.L207
	.loc 10 194 0
	bl _ZdaPv
.L207:
	.loc 10 197 0
	li 0,0
.LBE1379:
.LBE1378:
.LBE1377:
.LBE1376:
.LBB1389:
.LBB1390:
	.loc 3 150 0
	addi 4,31,944
.LBE1390:
.LBE1389:
.LBB1394:
.LBB1386:
.LBB1383:
.LBB1380:
	.loc 10 197 0
	stw 0,1060(31)
.LBE1380:
.LBE1383:
.LBE1386:
.LBE1394:
.LBB1395:
.LBB1391:
	.loc 3 150 0
	li 5,1
.LBE1391:
.LBE1395:
.LBB1396:
.LBB1387:
.LBB1384:
.LBB1381:
	.loc 10 198 0
	stw 0,1048(31)
.LBE1381:
.LBE1384:
.LBE1387:
.LBE1396:
.LBB1397:
.LBB1392:
	.loc 3 150 0
	mr 3,28
.LBE1392:
.LBE1397:
.LBB1398:
.LBB1388:
.LBB1385:
.LBB1382:
	.loc 10 199 0
	stw 0,1052(31)
.LVL298:
.LBE1382:
.LBE1385:
.LBE1388:
.LBE1398:
.LBB1399:
.LBB1393:
	.loc 3 150 0
	lwz 9,0(28)
	lwz 0,20(9)
	mtctr 0
	bctrl
	.loc 3 151 0
	lwz 9,0(28)
	addi 4,31,945
	li 5,1
	lwz 0,20(9)
	mr 3,28
	mtctr 0
	bctrl
.LVL299:
.LBE1393:
.LBE1399:
.LBB1400:
.LBB1401:
	.loc 3 150 0
	lwz 9,0(28)
	addi 4,31,960
	li 5,1
	lwz 0,20(9)
	mr 3,28
	mtctr 0
	bctrl
	.loc 3 151 0
	lwz 9,0(28)
	addi 4,31,961
	li 5,1
	lwz 0,20(9)
	mr 3,28
	mtctr 0
	bctrl
.LVL300:
.LBE1401:
.LBE1400:
.LBB1402:
.LBB1403:
	.loc 3 150 0
	lwz 9,0(28)
	addi 4,31,976
	li 5,1
	lwz 0,20(9)
	mr 3,28
	mtctr 0
	bctrl
	.loc 3 151 0
	lwz 9,0(28)
	addi 4,31,977
	li 5,1
	lwz 0,20(9)
	mr 3,28
	mtctr 0
	bctrl
.LVL301:
.LBE1403:
.LBE1402:
.LBB1404:
.LBB1405:
	.loc 3 150 0
	lwz 9,0(28)
	addi 4,31,992
	li 5,1
	lwz 0,20(9)
	mr 3,28
	mtctr 0
	bctrl
	.loc 3 151 0
	lwz 9,0(28)
	addi 4,31,993
	li 5,1
	lwz 0,20(9)
	mr 3,28
	mtctr 0
	bctrl
.LBE1405:
.LBE1404:
	.loc 5 311 0
	lwz 9,0(28)
	addi 4,31,996
	li 5,4
	lwz 0,20(9)
	mr 3,28
	mtctr 0
	bctrl
	.loc 5 312 0
	lwz 9,0(28)
	addi 4,31,1000
	li 5,4
	lwz 0,20(9)
	mr 3,28
	mtctr 0
	bctrl
	.loc 5 313 0
	lwz 9,0(28)
	addi 4,31,1004
	li 5,1
	lwz 0,20(9)
	mr 3,28
	mtctr 0
	bctrl
	.loc 5 315 0
	lwz 9,0(28)
	addi 4,31,1008
	li 5,4
	lwz 0,20(9)
	mr 3,28
	mtctr 0
	bctrl
	.loc 5 316 0
	lwz 9,0(28)
	addi 4,31,1012
	li 5,4
	lwz 0,20(9)
	mr 3,28
	mtctr 0
	bctrl
	.loc 5 317 0
	lwz 9,0(28)
	addi 4,31,1016
	li 5,1
	lwz 0,20(9)
	mr 3,28
	mtctr 0
	bctrl
	.loc 5 318 0
	lwz 9,0(28)
	addi 4,31,1017
	li 5,1
	lwz 0,20(9)
	mr 3,28
	mtctr 0
	bctrl
	.loc 5 320 0
	lwz 9,0(28)
	addi 4,31,1020
	li 5,4
	lwz 0,20(9)
	mr 3,28
	mtctr 0
	bctrl
	.loc 5 321 0
	lwz 9,0(28)
	addi 4,31,1024
	li 5,1
	lwz 0,20(9)
	mr 3,28
	mtctr 0
	bctrl
	.loc 5 322 0
	lwz 9,0(28)
	addi 4,31,1028
	li 5,4
	lwz 0,20(9)
	mr 3,28
	mtctr 0
	bctrl
	.loc 5 324 0
	lwz 9,0(28)
	addi 4,31,1032
	li 5,4
	lwz 0,20(9)
	mr 3,28
	mtctr 0
	bctrl
	.loc 5 325 0
	lwz 9,0(28)
	addi 4,31,1036
	li 5,4
	lwz 0,20(9)
	mr 3,28
	mtctr 0
	bctrl
	.loc 5 327 0
	lwz 9,0(28)
	addi 4,31,1040
	li 5,4
	lwz 0,20(9)
	mr 3,28
	mtctr 0
	bctrl
	.loc 5 328 0
	lwz 9,0(28)
	addi 4,31,1044
	li 5,4
	lwz 0,20(9)
	mr 3,28
	mtctr 0
	bctrl
	.loc 5 331 0
	lwz 9,0(28)
	mr 3,28
	addi 4,1,12
	lwz 0,20(9)
	li 5,4
	mtctr 0
	bctrl
.LVL302:
.LBB1406:
	.loc 5 333 0
	lwz 0,12(1)
	cmpwi 7,0,0
	ble- 7,.L208
	li 27,0
.LBB1407:
.LBB1408:
.LBB1409:
.LBB1410:
.LBB1411:
	.loc 10 393 0
	li 25,0
	.loc 10 663 0
	li 26,16
	b .L226
.LVL303:
.L234:
.LBB1412:
.LBB1413:
	.loc 10 399 0
	slwi 0,0,2
	add 24,24,0
.L217:
.LBE1413:
.LBE1412:
.LBE1411:
.LBE1410:
	.loc 10 669 0
	stw 29,0(24)
.LBE1409:
.LBE1408:
.LBE1407:
	.loc 5 333 0
	addi 27,27,1
.LVL304:
	lwz 0,12(1)
.LBB1442:
.LBB1438:
.LBB1434:
	.loc 10 670 0
	lwz 9,1048(31)
.LBE1434:
.LBE1438:
.LBE1442:
	.loc 5 333 0
	cmpw 7,0,27
.LBB1443:
.LBB1439:
.LBB1435:
	.loc 10 670 0
	addi 0,9,1
	stw 0,1048(31)
.LBE1435:
.LBE1439:
.LBE1443:
	.loc 5 333 0
	ble- 7,.L208
.LVL305:
.L226:
.LBB1444:
	.loc 5 336 0
	li 3,100
	bl _ZN8BSEntitynwEj
.LEHE6:
	mr 4,31
	mr 29,3
.LEHB7:
	bl _ZN8BSEntityC1EP21idGameBearShootWindow
.LEHE7:
.LVL306:
	.loc 5 337 0 discriminator 1
	lwz 9,0(29)
	mr 3,29
	mr 4,28
	mr 5,31
	lwz 0,12(9)
	mtctr 0
.LEHB8:
	bctrl
.LVL307:
.LBB1440:
.LBB1436:
	.loc 10 655 0 discriminator 1
	lwz 24,1060(31)
	cmpwi 7,24,0
	beq- 7,.L209
	.loc 10 655 0 is_stmt 0
	lwz 0,1048(31)
	lwz 9,1052(31)
.L210:
.LBB1424:
	.loc 10 659 0 is_stmt 1
	cmpw 7,0,9
	bne+ 7,.L234
	lwz 3,1056(31)
	mr 10,0
.L212:
.LBB1422:
	.loc 10 662 0
	cmpwi 7,3,0
	mr 9,3
	bne- 7,.L218
	.loc 10 663 0
	stw 26,1056(31)
	li 9,16
.L218:
	.loc 10 665 0
	add 11,10,9
.LVL308:
	.loc 10 666 0
	divw 11,11,9
.LVL309:
.LBB1419:
.LBB1416:
	.loc 10 375 0
	mullw. 9,11,9
.LVL310:
	ble- 0,.L235
	.loc 10 380 0
	cmpw 7,9,10
	beq- 7,.L234
.LVL311:
	.loc 10 387 0
	cmpw 7,9,0
	.loc 10 386 0
	stw 9,1052(31)
	.loc 10 387 0
	bge- 7,.L222
	.loc 10 388 0
	stw 9,1048(31)
.L222:
	.loc 10 392 0
	slwi 3,9,2
	bl _Znaj
.LVL312:
	stw 3,1060(31)
.LVL313:
	.loc 10 393 0
	lwz 0,0(30)
	cmpwi 7,0,0
	ble- 7,.L223
	.loc 5 300 0
	addi 11,24,-4
.LBE1416:
.LBE1419:
	.loc 10 393 0
	li 9,0
	b .L224
.LVL314:
.L236:
.LBB1420:
.LBB1417:
	lwz 3,1060(31)
.LVL315:
.L224:
	.loc 10 394 0
	lwzu 10,4(11)
	slwi 0,9,2
	.loc 10 393 0
	addi 9,9,1
.LVL316:
	.loc 10 394 0
	stwx 10,3,0
	.loc 10 393 0
	lwz 0,0(30)
	cmpw 7,9,0
	blt+ 7,.L236
.LVL317:
.L223:
	.loc 10 398 0
	cmpwi 7,24,0
	beq- 7,.L237
	.loc 10 399 0
	mr 3,24
	bl _ZdaPv
	lwz 0,1048(31)
	lwz 24,1060(31)
.LVL318:
	b .L234
.L209:
.LBE1417:
.LBE1420:
.LBE1422:
.LBE1424:
	.loc 10 656 0
	lwz 3,1056(31)
.LBB1425:
.LBB1426:
	.loc 10 375 0
	cmpwi 7,3,0
.LBE1426:
.LBE1425:
	.loc 10 656 0
	mr 9,3
.LVL319:
.LBB1431:
.LBB1429:
	.loc 10 375 0
	ble- 7,.L238
	.loc 10 380 0
	lwz 0,1052(31)
	cmpw 7,3,0
	lwz 0,1048(31)
	beq- 7,.L210
.LVL320:
	.loc 10 387 0
	cmpw 7,3,0
	.loc 10 386 0
	stw 3,1052(31)
	.loc 10 387 0
	bge- 7,.L214
	.loc 10 388 0
	stw 3,1048(31)
.L214:
	.loc 10 392 0
	slwi 3,3,2
	bl _Znaj
.LVL321:
	.loc 10 393 0
	li 9,0
	.loc 10 392 0
	stw 3,1060(31)
.LVL322:
	mr 24,3
	.loc 10 393 0
	li 11,0
	lwz 0,0(30)
	cmpwi 7,0,0
	bgt+ 7,.L233
	b .L241
.LVL323:
.L240:
	lwz 24,1060(31)
.LVL324:
.L233:
	.loc 10 394 0
	lwz 0,0(9)
	.loc 10 393 0
	addi 11,11,1
.LVL325:
	.loc 10 394 0
	stwx 0,24,9
	.loc 10 393 0
	addi 9,9,4
	lwz 0,0(30)
	cmpw 7,11,0
	blt+ 7,.L240
	lwz 9,1052(31)
	lwz 24,1060(31)
	b .L210
.LVL326:
.L208:
.LBE1429:
.LBE1431:
.LBE1436:
.LBE1440:
.LBE1444:
.LBE1406:
	.loc 5 342 0
	lwz 9,0(28)
	addi 4,1,8
	li 5,4
	mr 3,28
	lwz 0,20(9)
	mtctr 0
	bctrl
.LVL327:
	.loc 5 343 0
	lwz 0,8(1)
	lwz 9,1060(31)
	.loc 5 344 0
	addi 4,1,8
.LVL328:
	.loc 5 343 0
	slwi 0,0,2
	.loc 5 344 0
	li 5,4
	.loc 5 343 0
	lwzx 0,9,0
	.loc 5 344 0
	mr 3,28
	.loc 5 343 0
	stw 0,1064(31)
	.loc 5 344 0
	lwz 9,0(28)
	lwz 0,20(9)
	mtctr 0
	bctrl
.LVL329:
	.loc 5 345 0
	lwz 0,8(1)
	lwz 9,1060(31)
	.loc 5 346 0
	addi 4,1,8
.LVL330:
	.loc 5 345 0
	slwi 0,0,2
	.loc 5 346 0
	li 5,4
	.loc 5 345 0
	lwzx 0,9,0
	.loc 5 346 0
	mr 3,28
	.loc 5 345 0
	stw 0,1068(31)
	.loc 5 346 0
	lwz 9,0(28)
	lwz 0,20(9)
	mtctr 0
	bctrl
.LVL331:
	.loc 5 347 0
	lwz 0,8(1)
	lwz 9,1060(31)
	.loc 5 348 0
	addi 4,1,8
.LVL332:
	.loc 5 347 0
	slwi 0,0,2
	.loc 5 348 0
	li 5,4
	.loc 5 347 0
	lwzx 0,9,0
	.loc 5 348 0
	mr 3,28
	.loc 5 347 0
	stw 0,1072(31)
	.loc 5 348 0
	lwz 9,0(28)
	lwz 0,20(9)
	mtctr 0
	bctrl
.LVL333:
	.loc 5 349 0
	lwz 0,8(1)
	lwz 9,1060(31)
	.loc 5 350 0
	addi 4,1,8
.LVL334:
	.loc 5 349 0
	slwi 0,0,2
	.loc 5 350 0
	li 5,4
	.loc 5 349 0
	lwzx 0,9,0
	.loc 5 350 0
	mr 3,28
	.loc 5 349 0
	stw 0,1076(31)
	.loc 5 350 0
	lwz 9,0(28)
	lwz 0,20(9)
	mtctr 0
	bctrl
.LVL335:
	.loc 5 351 0
	lwz 0,8(1)
	lwz 9,1060(31)
	.loc 5 352 0
	mr 3,28
	.loc 5 351 0
	slwi 0,0,2
	.loc 5 352 0
	addi 4,1,8
.LVL336:
	.loc 5 351 0
	lwzx 0,9,0
	.loc 5 352 0
	li 5,4
	.loc 5 351 0
	stw 0,1080(31)
	.loc 5 352 0
	lwz 9,0(28)
	lwz 0,20(9)
	mtctr 0
	bctrl
.LVL337:
	.loc 5 353 0
	lwz 0,8(1)
	lwz 9,1060(31)
	slwi 0,0,2
	lwzx 0,9,0
	stw 0,1084(31)
.LBE1447:
	.loc 5 354 0
	lwz 0,60(1)
	lwz 24,24(1)
	mtlr 0
	lwz 25,28(1)
	lwz 26,32(1)
	lwz 27,36(1)
	lwz 28,40(1)
.LVL338:
	lwz 29,44(1)
	lwz 30,48(1)
.LVL339:
	lwz 31,52(1)
.LVL340:
	addi 1,1,56
	.cfi_remember_state
.LCFI80:
	.cfi_def_cfa_offset 0
	.cfi_restore 31
	.cfi_restore 30
	.cfi_restore 29
	.cfi_restore 28
	.cfi_restore 27
	.cfi_restore 26
	.cfi_restore 25
	.cfi_restore 24
	blr
.LVL341:
.L235:
.LCFI81:
	.cfi_restore_state
.LBB1448:
.LBB1446:
.LBB1445:
.LBB1441:
.LBB1437:
.LBB1432:
.LBB1423:
.LBB1421:
.LBB1418:
.LBB1414:
.LBB1415:
	.loc 10 193 0
	cmpwi 7,24,0
	beq- 7,.L220
	.loc 10 194 0
	mr 3,24
	bl _ZdaPv
.LVL342:
.L220:
	.loc 10 197 0
	stw 25,1060(31)
	.loc 10 199 0
	li 24,0
	.loc 10 198 0
	stw 25,1048(31)
	.loc 10 199 0
	stw 25,1052(31)
	b .L217
.LVL343:
.L237:
.LBE1415:
.LBE1414:
	.loc 10 398 0
	lwz 0,1048(31)
	lwz 24,1060(31)
.LVL344:
	slwi 0,0,2
	add 24,24,0
	b .L217
.LVL345:
.L238:
.LBE1418:
.LBE1421:
.LBE1423:
.LBE1432:
.LBB1433:
.LBB1430:
.LBB1427:
.LBB1428:
	.loc 10 198 0
	stw 24,1048(31)
	.loc 10 199 0
	li 10,0
	stw 24,1052(31)
	li 0,0
	b .L212
.LVL346:
.L241:
.LBE1428:
.LBE1427:
	.loc 10 393 0
	lwz 9,1052(31)
	b .L210
.LVL347:
.L230:
	mr 31,3
.LVL348:
.LBE1430:
.LBE1433:
.LBE1437:
.LBE1441:
	.loc 5 336 0
	mr 3,29
	bl _ZN8BSEntitydlEPv
	mr 3,31
	bl _Unwind_Resume
.LEHE8:
.LBE1445:
.LBE1446:
.LBE1448:
	.cfi_endproc
.LFE2879:
	.section	.gcc_except_table
.LLSDA2879:
	.byte	0xff
	.byte	0xff
	.byte	0x1
	.uleb128 .LLSDACSE2879-.LLSDACSB2879
.LLSDACSB2879:
	.uleb128 .LEHB6-.LFB2879
	.uleb128 .LEHE6-.LEHB6
	.uleb128 0
	.uleb128 0
	.uleb128 .LEHB7-.LFB2879
	.uleb128 .LEHE7-.LEHB7
	.uleb128 .L230-.LFB2879
	.uleb128 0
	.uleb128 .LEHB8-.LFB2879
	.uleb128 .LEHE8-.LEHB8
	.uleb128 0
	.uleb128 0
.LLSDACSE2879:
	.section	".text"
	.size	_ZN21idGameBearShootWindow16ReadFromSaveGameEP6idFile, .-_ZN21idGameBearShootWindow16ReadFromSaveGameEP6idFile
	.align 2
	.globl _ZN8BSEntity11SetMaterialEPKc
	.type	_ZN8BSEntity11SetMaterialEPKc, @function
_ZN8BSEntity11SetMaterialEPKc:
.LFB2863:
	.loc 5 148 0
	.cfi_startproc
.LVL349:
	stwu 1,-16(1)
.LCFI82:
	.cfi_def_cfa_offset 16
	mflr 0
	stw 31,12(1)
	mr 31,3
	.cfi_offset 31, -4
	.cfi_register 65, 0
	.loc 5 149 0
	addi 3,3,8
.LVL350:
	.loc 5 148 0
	stw 0,20(1)
	stw 30,8(1)
	.loc 5 148 0
	mr 30,4
	.cfi_offset 30, -8
	.cfi_offset 65, 4
	.loc 5 149 0
	bl _ZN5idStraSEPKc
.LVL351:
	.loc 5 150 0
	lis 9,declManager@ha
	lwz 3,declManager@l(9)
	mr 4,30
	li 5,1
	li 6,0
	lwz 9,0(3)
	lwz 0,104(9)
	mtctr 0
	bctrl
.LBB1449:
.LBB1450:
	.file 13 "d:/Data/Nintendo/DoomGX/src/ui/../idlib/../renderer/Material.h"
	.loc 13 513 0
	lis 9,.LC17@ha
	lwz 0,.LC17@l(9)
.LBE1450:
.LBE1449:
	.loc 5 150 0
	stw 3,4(31)
.LVL352:
.LBB1452:
.LBB1451:
	.loc 13 513 0
	stw 0,148(3)
.LBE1451:
.LBE1452:
	.loc 5 152 0
	lwz 0,20(1)
	lwz 30,8(1)
.LVL353:
	mtlr 0
	lwz 31,12(1)
.LVL354:
	addi 1,1,16
.LCFI83:
	.cfi_def_cfa_offset 0
	.cfi_restore 31
	.cfi_restore 30
	blr
	.cfi_endproc
.LFE2863:
	.size	_ZN8BSEntity11SetMaterialEPKc, .-_ZN8BSEntity11SetMaterialEPKc
	.align 2
	.globl _ZN8BSEntity16ReadFromSaveGameEP6idFileP21idGameBearShootWindow
	.type	_ZN8BSEntity16ReadFromSaveGameEP6idFileP21idGameBearShootWindow, @function
_ZN8BSEntity16ReadFromSaveGameEP6idFileP21idGameBearShootWindow:
.LFB2862:
	.loc 5 123 0
	.cfi_startproc
.LVL355:
	stwu 1,-16(1)
.LCFI84:
	.cfi_def_cfa_offset 16
	mflr 0
	stw 30,8(1)
	mr 30,3
	.cfi_offset 30, -8
	.cfi_register 65, 0
	stw 0,20(1)
	mr 3,5
.LVL356:
	stw 31,12(1)
	.loc 5 123 0
	mr 31,4
	.cfi_offset 31, -4
	.cfi_offset 65, 4
	.loc 5 124 0
	stw 5,96(30)
	.loc 5 126 0
	mr 5,4
.LVL357:
	addi 4,30,8
.LVL358:
	bl _ZN8idWindow18ReadSaveGameStringER5idStrP6idFile
.LVL359:
	.loc 5 127 0
	lwz 4,12(30)
	mr 3,30
	bl _ZN8BSEntity11SetMaterialEPKc
	.loc 5 129 0
	lwz 9,0(31)
	addi 4,30,40
	li 5,4
	lwz 0,20(9)
	mr 3,31
	mtctr 0
	bctrl
	.loc 5 130 0
	lwz 9,0(31)
	addi 4,30,44
	li 5,4
	lwz 0,20(9)
	mr 3,31
	mtctr 0
	bctrl
	.loc 5 131 0
	lwz 9,0(31)
	addi 4,30,48
	li 5,1
	lwz 0,20(9)
	mr 3,31
	mtctr 0
	bctrl
	.loc 5 133 0
	lwz 9,0(31)
	addi 4,30,52
	li 5,16
	lwz 0,20(9)
	mr 3,31
	mtctr 0
	bctrl
	.loc 5 134 0
	lwz 9,0(31)
	addi 4,30,68
	li 5,8
	lwz 0,20(9)
	mr 3,31
	mtctr 0
	bctrl
	.loc 5 135 0
	lwz 9,0(31)
	addi 4,30,76
	li 5,4
	lwz 0,20(9)
	mr 3,31
	mtctr 0
	bctrl
	.loc 5 136 0
	lwz 9,0(31)
	addi 4,30,80
	li 5,4
	lwz 0,20(9)
	mr 3,31
	mtctr 0
	bctrl
	.loc 5 137 0
	lwz 9,0(31)
	addi 4,30,84
	li 5,8
	lwz 0,20(9)
	mr 3,31
	mtctr 0
	bctrl
	.loc 5 139 0
	lwz 9,0(31)
	addi 4,30,92
	li 5,1
	lwz 0,20(9)
	mr 3,31
	mtctr 0
	bctrl
	.loc 5 140 0
	lwz 9,0(31)
	mr 3,31
	addi 4,30,93
	lwz 0,20(9)
	li 5,1
	mtctr 0
	bctrl
	.loc 5 141 0
	lwz 0,20(1)
	lwz 30,8(1)
.LVL360:
	mtlr 0
	lwz 31,12(1)
.LVL361:
	addi 1,1,16
.LCFI85:
	.cfi_def_cfa_offset 0
	.cfi_restore 31
	.cfi_restore 30
	blr
	.cfi_endproc
.LFE2862:
	.size	_ZN8BSEntity16ReadFromSaveGameEP6idFileP21idGameBearShootWindow, .-_ZN8BSEntity16ReadFromSaveGameEP6idFileP21idGameBearShootWindow
	.align 2
	.globl _ZN8BSEntity7SetSizeEff
	.type	_ZN8BSEntity7SetSizeEff, @function
_ZN8BSEntity7SetSizeEff:
.LFB2864:
	.loc 5 159 0
	.cfi_startproc
.LVL362:
	.loc 5 160 0
	stfs 1,40(3)
	.loc 5 162 0
	.loc 5 161 0
	stfs 2,44(3)
	.loc 5 162 0
	blr
	.cfi_endproc
.LFE2864:
	.size	_ZN8BSEntity7SetSizeEff, .-_ZN8BSEntity7SetSizeEff
	.align 2
	.globl _ZN8BSEntity10SetVisibleEb
	.type	_ZN8BSEntity10SetVisibleEb, @function
_ZN8BSEntity10SetVisibleEb:
.LFB2865:
	.loc 5 169 0
	.cfi_startproc
.LVL363:
	.loc 5 170 0
	stb 4,48(3)
	.loc 5 171 0
	blr
	.cfi_endproc
.LFE2865:
	.size	_ZN8BSEntity10SetVisibleEb, .-_ZN8BSEntity10SetVisibleEb
	.align 2
	.globl _ZN21idGameBearShootWindow14ResetGameStateEv
	.type	_ZN21idGameBearShootWindow14ResetGameStateEv, @function
_ZN21idGameBearShootWindow14ResetGameStateEv:
.LFB2880:
	.loc 5 361 0
	.cfi_startproc
.LVL364:
	mflr 0
	stwu 1,-24(1)
.LCFI86:
	.cfi_def_cfa_offset 24
	.cfi_register 65, 0
	stw 31,20(1)
	mr 31,3
	.cfi_offset 31, -4
.LVL365:
	stw 0,28(1)
.LBB1501:
.LBB1502:
	.loc 3 114 0
	li 0,0
	.cfi_offset 65, 4
.LBE1502:
.LBE1501:
	.loc 5 361 0
	stw 29,12(1)
	stw 30,16(1)
.LBB1528:
.LBB1523:
	.loc 3 114 0
	stb 0,945(3)
	.loc 3 115 0
	lwz 29,936(3)
	.cfi_offset 30, -8
	.cfi_offset 29, -12
	cmpwi 7,29,0
	beq- 7,.L247
.LBE1523:
	.loc 5 921 0
	lwz 30,940(3)
.LBB1524:
.LBB1503:
.LBB1504:
	.loc 3 53 0
	cmpwi 7,30,0
	beq- 7,.L259
	.loc 3 54 0
	lbz 0,0(30)
	li 4,0
	cmpwi 7,0,42
	beq- 7,.L271
.LVL366:
.L248:
.LBE1504:
.LBE1503:
.LBB1518:
.LBB1519:
	.loc 11 197 0
	lis 3,.LC3@ha
	la 3,.LC3@l(3)
	crxor 6,6,6
	bl _Z2vaPKcz
	mr 4,30
	mr 5,3
	mr 3,29
	bl _ZN6idDict3SetEPKcS1_
.LVL367:
.L247:
.LBE1519:
.LBE1518:
.LBE1524:
.LBE1528:
.LBB1529:
.LBB1530:
	.loc 3 115 0
	lwz 29,952(31)
.LBE1530:
.LBE1529:
	.loc 5 363 0
	li 0,0
	stb 0,1004(31)
.LVL368:
.LBB1556:
.LBB1551:
	.loc 3 115 0
	cmpwi 7,29,0
	.loc 3 114 0
	stb 0,961(31)
	.loc 3 115 0
	beq- 7,.L250
.LBE1551:
	.loc 5 921 0
	lwz 30,956(31)
.LBB1552:
.LBB1531:
.LBB1532:
	.loc 3 53 0
	cmpwi 7,30,0
	beq- 7,.L262
	.loc 3 54 0
	lbz 0,0(30)
	li 4,0
	cmpwi 7,0,42
	beq- 7,.L272
.L251:
.LVL369:
.LBE1532:
.LBE1531:
.LBB1546:
.LBB1547:
	.loc 11 197 0
	lis 3,.LC3@ha
	la 3,.LC3@l(3)
	crxor 6,6,6
	bl _Z2vaPKcz
	mr 4,30
	mr 5,3
	mr 3,29
	bl _ZN6idDict3SetEPKcS1_
.LVL370:
.L250:
.LBE1547:
.LBE1546:
.LBE1552:
.LBE1556:
.LBB1557:
.LBB1558:
	.loc 3 115 0
	lwz 29,968(31)
	.loc 3 114 0
	li 0,0
	stb 0,977(31)
	.loc 3 115 0
	cmpwi 7,29,0
	beq- 7,.L253
.LBE1558:
	.loc 5 921 0
	lwz 30,972(31)
.LBB1579:
.LBB1559:
.LBB1560:
	.loc 3 53 0
	cmpwi 7,30,0
	beq- 7,.L265
	.loc 3 54 0
	lbz 0,0(30)
	li 4,0
	cmpwi 7,0,42
	beq- 7,.L273
.L254:
.LVL371:
.LBE1560:
.LBE1559:
.LBB1574:
.LBB1575:
	.loc 11 197 0
	lis 3,.LC3@ha
	la 3,.LC3@l(3)
	crxor 6,6,6
	bl _Z2vaPKcz
	mr 4,30
	mr 5,3
	mr 3,29
	bl _ZN6idDict3SetEPKcS1_
.LVL372:
.L253:
.LBE1575:
.LBE1574:
.LBE1579:
.LBE1557:
.LBB1583:
.LBB1584:
	.loc 3 115 0
	lwz 29,984(31)
	.loc 3 114 0
	li 0,0
	stb 0,993(31)
	.loc 3 115 0
	cmpwi 7,29,0
	beq- 7,.L256
.LBE1584:
	.loc 5 921 0
	lwz 30,988(31)
.LBB1603:
.LBB1585:
.LBB1586:
	.loc 3 53 0
	cmpwi 7,30,0
	beq- 7,.L268
	.loc 3 54 0
	lbz 0,0(30)
	li 4,0
	cmpwi 7,0,42
	beq- 7,.L274
.L257:
.LVL373:
.LBE1586:
.LBE1585:
.LBB1599:
.LBB1600:
	.loc 11 197 0
	lis 3,.LC3@ha
	la 3,.LC3@l(3)
	crxor 6,6,6
	bl _Z2vaPKcz
	mr 4,30
	mr 5,3
	mr 3,29
	bl _ZN6idDict3SetEPKcS1_
.LVL374:
.L256:
.LBE1600:
.LBE1599:
.LBE1603:
.LBE1583:
	.loc 5 369 0
	lis 11,.LC18@ha
	.loc 5 375 0
	li 9,0
	.loc 5 369 0
	lwz 11,.LC18@l(11)
	.loc 5 371 0
	li 0,0
	.loc 5 375 0
	stw 9,1032(31)
	.loc 5 369 0
	stw 11,996(31)
	.loc 5 370 0
	lis 11,.LC19@ha
	lwz 11,.LC19@l(11)
	.loc 5 377 0
	stw 9,1040(31)
	.loc 5 382 0
	lis 9,.LC0@ha
	.loc 5 370 0
	stw 11,1000(31)
	.loc 5 374 0
	li 11,1
	stw 11,1008(31)
	.loc 5 376 0
	lis 11,.LC20@ha
	.loc 5 371 0
	stw 0,1012(31)
	.loc 5 372 0
	stb 0,1016(31)
	.loc 5 373 0
	stb 0,1017(31)
	.loc 5 378 0
	stw 0,1044(31)
	.loc 5 380 0
	stb 0,1024(31)
	.loc 5 381 0
	stw 0,1028(31)
	.loc 5 376 0
	lwz 11,.LC20@l(11)
	.loc 5 382 0
	lwz 0,.LC0@l(9)
	.loc 5 376 0
	stw 11,1036(31)
	.loc 5 382 0
	stw 0,1020(31)
	.loc 5 383 0
	lwz 0,28(1)
	lwz 29,12(1)
	mtlr 0
	lwz 30,16(1)
	lwz 31,20(1)
.LVL375:
	addi 1,1,24
	.cfi_remember_state
.LCFI87:
	.cfi_def_cfa_offset 0
	.cfi_restore 31
	.cfi_restore 30
	.cfi_restore 29
	blr
.LVL376:
.L259:
.LCFI88:
	.cfi_restore_state
.LBB1606:
.LBB1525:
.LBB1520:
.LBB1515:
	.loc 3 59 0
	lis 30,.LC2@ha
	.loc 3 53 0
	li 4,0
	.loc 3 59 0
	la 30,.LC2@l(30)
	b .L248
.LVL377:
.L262:
.LBE1515:
.LBE1520:
.LBE1525:
.LBE1606:
.LBB1607:
.LBB1553:
.LBB1548:
.LBB1543:
	lis 30,.LC2@ha
	.loc 3 53 0
	li 4,0
	.loc 3 59 0
	la 30,.LC2@l(30)
	b .L251
.LVL378:
.L265:
.LBE1543:
.LBE1548:
.LBE1553:
.LBE1607:
.LBB1608:
.LBB1580:
.LBB1576:
.LBB1571:
	lis 30,.LC2@ha
	.loc 3 53 0
	li 4,0
	.loc 3 59 0
	la 30,.LC2@l(30)
	b .L254
.LVL379:
.L268:
.LBE1571:
.LBE1576:
.LBE1580:
.LBE1608:
.LBB1609:
.LBB1604:
.LBB1601:
.LBB1597:
	lis 30,.LC2@ha
	.loc 3 53 0
	li 4,0
	.loc 3 59 0
	la 30,.LC2@l(30)
	b .L257
.L274:
.LVL380:
.LBB1587:
.LBB1588:
.LBB1589:
.LBB1590:
	.loc 11 241 0
	mr 3,29
	addi 4,30,1
	bl _ZNK6idDict7FindKeyEPKc
.LVL381:
	.loc 11 242 0
	cmpwi 0,3,0
	beq- 0,.L270
.LVL382:
.LBB1591:
	.loc 5 921 0
	lwz 9,4(3)
	lbz 4,993(31)
	lwz 30,4(9)
.LVL383:
	b .L257
.LVL384:
.L271:
.LBE1591:
.LBE1590:
.LBE1589:
.LBE1588:
.LBE1587:
.LBE1597:
.LBE1601:
.LBE1604:
.LBE1609:
.LBB1610:
.LBB1526:
.LBB1521:
.LBB1516:
.LBB1505:
.LBB1506:
.LBB1507:
.LBB1508:
	.loc 11 241 0
	mr 3,29
	addi 4,30,1
	bl _ZNK6idDict7FindKeyEPKc
.LVL385:
	.loc 11 242 0
	cmpwi 0,3,0
	beq- 0,.L261
.LVL386:
.LBB1509:
	.loc 5 921 0
	lwz 9,4(3)
	lbz 4,945(31)
	lwz 30,4(9)
.LVL387:
	b .L248
.LVL388:
.L273:
.LBE1509:
.LBE1508:
.LBE1507:
.LBE1506:
.LBE1505:
.LBE1516:
.LBE1521:
.LBE1526:
.LBE1610:
.LBB1611:
.LBB1581:
.LBB1577:
.LBB1572:
.LBB1561:
.LBB1562:
.LBB1563:
.LBB1564:
	.loc 11 241 0
	mr 3,29
	addi 4,30,1
	bl _ZNK6idDict7FindKeyEPKc
.LVL389:
	.loc 11 242 0
	cmpwi 0,3,0
	beq- 0,.L267
.LVL390:
.LBB1565:
	.loc 5 921 0
	lwz 9,4(3)
	lbz 4,977(31)
	lwz 30,4(9)
.LVL391:
	b .L254
.LVL392:
.L272:
.LBE1565:
.LBE1564:
.LBE1563:
.LBE1562:
.LBE1561:
.LBE1572:
.LBE1577:
.LBE1581:
.LBE1611:
.LBB1612:
.LBB1554:
.LBB1549:
.LBB1544:
.LBB1533:
.LBB1534:
.LBB1535:
.LBB1536:
	.loc 11 241 0
	mr 3,29
	addi 4,30,1
	bl _ZNK6idDict7FindKeyEPKc
.LVL393:
	.loc 11 242 0
	cmpwi 0,3,0
	beq- 0,.L264
.LVL394:
.LBB1537:
	.loc 5 921 0
	lwz 9,4(3)
	lbz 4,961(31)
	lwz 30,4(9)
.LVL395:
	b .L251
.LVL396:
.L270:
.LBE1537:
.LBE1536:
.LBE1535:
.LBE1534:
.LBE1533:
.LBE1544:
.LBE1549:
.LBE1554:
.LBE1612:
.LBB1613:
.LBB1605:
.LBB1602:
.LBB1598:
.LBB1596:
.LBB1595:
.LBB1594:
.LBB1593:
	.loc 11 245 0
	lis 30,.LC2@ha
.LVL397:
.LBB1592:
	.loc 5 921 0
	lbz 4,993(31)
.LBE1592:
	.loc 11 245 0
	la 30,.LC2@l(30)
	b .L257
.LVL398:
.L264:
.LBE1593:
.LBE1594:
.LBE1595:
.LBE1596:
.LBE1598:
.LBE1602:
.LBE1605:
.LBE1613:
.LBB1614:
.LBB1555:
.LBB1550:
.LBB1545:
.LBB1542:
.LBB1541:
.LBB1540:
.LBB1539:
	lis 30,.LC2@ha
.LVL399:
.LBB1538:
	.loc 5 921 0
	lbz 4,961(31)
.LBE1538:
	.loc 11 245 0
	la 30,.LC2@l(30)
	b .L251
.LVL400:
.L267:
.LBE1539:
.LBE1540:
.LBE1541:
.LBE1542:
.LBE1545:
.LBE1550:
.LBE1555:
.LBE1614:
.LBB1615:
.LBB1582:
.LBB1578:
.LBB1573:
.LBB1570:
.LBB1569:
.LBB1568:
.LBB1567:
	lis 30,.LC2@ha
.LVL401:
.LBB1566:
	.loc 5 921 0
	lbz 4,977(31)
.LBE1566:
	.loc 11 245 0
	la 30,.LC2@l(30)
	b .L254
.LVL402:
.L261:
.LBE1567:
.LBE1568:
.LBE1569:
.LBE1570:
.LBE1573:
.LBE1578:
.LBE1582:
.LBE1615:
.LBB1616:
.LBB1527:
.LBB1522:
.LBB1517:
.LBB1514:
.LBB1513:
.LBB1512:
.LBB1511:
	lis 30,.LC2@ha
.LVL403:
.LBB1510:
	.loc 5 921 0
	lbz 4,945(31)
.LBE1510:
	.loc 11 245 0
	la 30,.LC2@l(30)
	b .L248
.LBE1511:
.LBE1512:
.LBE1513:
.LBE1514:
.LBE1517:
.LBE1522:
.LBE1527:
.LBE1616:
	.cfi_endproc
.LFE2880:
	.size	_ZN21idGameBearShootWindow14ResetGameStateEv, .-_ZN21idGameBearShootWindow14ResetGameStateEv
	.align 2
	.globl _ZN21idGameBearShootWindow10CommonInitEv
	.type	_ZN21idGameBearShootWindow10CommonInitEv, @function
_ZN21idGameBearShootWindow10CommonInitEv:
.LFB2881:
	.loc 5 390 0
	.cfi_startproc
	.cfi_personality 0,__gxx_personality_v0
	.cfi_lsda 0,.LLSDA2881
.LVL404:
	stwu 1,-40(1)
.LCFI89:
	.cfi_def_cfa_offset 40
	mflr 0
.LBB1741:
	.loc 5 401 0
	lis 4,.LC21@ha
	li 5,1
.LBE1741:
	.loc 5 390 0
	stw 30,32(1)
.LBB2186:
	.loc 5 401 0
	lis 30,declManager@ha
	.cfi_offset 30, -8
	.cfi_register 65, 0
.LBE2186:
	.loc 5 390 0
	stw 27,20(1)
.LBB2187:
	.loc 5 401 0
	la 4,.LC21@l(4)
.LBE2187:
	.loc 5 390 0
	stw 29,28(1)
.LBB2188:
	.loc 5 401 0
	li 6,0
.LBE2188:
	.loc 5 390 0
	stw 31,36(1)
	mr 31,3
	.cfi_offset 31, -4
	.cfi_offset 29, -12
	.cfi_offset 27, -20
.LBB2189:
	.loc 5 401 0
	lwz 9,declManager@l(30)
	.loc 5 403 0
	lis 27,.LC23@ha
.LBE2189:
	.loc 5 390 0
	stw 0,44(1)
.LBB2190:
	.loc 5 403 0
	la 27,.LC23@l(27)
.LBE2190:
	.loc 5 390 0
	stw 24,8(1)
.LBB2191:
	.loc 5 401 0
	mr 3,9
.LVL405:
.LBE2191:
	.loc 5 390 0
	stw 25,12(1)
	stw 26,16(1)
	stw 28,24(1)
.LBB2192:
	.loc 5 401 0
	lwz 11,0(9)
	lwz 0,104(11)
	.cfi_offset 28, -16
	.cfi_offset 26, -24
	.cfi_offset 25, -28
	.cfi_offset 24, -32
	.cfi_offset 65, 4
	mtctr 0
.LEHB9:
	bctrl
	.loc 5 402 0
	lwz 3,declManager@l(30)
	lis 4,.LC22@ha
	li 5,1
	lwz 9,0(3)
	la 4,.LC22@l(4)
	li 6,0
	lwz 0,104(9)
	mtctr 0
	bctrl
	.loc 5 403 0
	lwz 3,declManager@l(30)
	mr 4,27
	li 5,1
	lwz 9,0(3)
	li 6,0
	lwz 0,104(9)
	mtctr 0
	bctrl
	.loc 5 405 0
	mr 3,31
	bl _ZN21idGameBearShootWindow14ResetGameStateEv
	.loc 5 407 0
	li 3,100
	bl _ZN8BSEntitynwEj
.LEHE9:
	mr 4,31
	mr 29,3
.LEHB10:
	bl _ZN8BSEntityC1EP21idGameBearShootWindow
.LEHE10:
.LVL406:
	.loc 5 408 0 discriminator 1
	stw 29,1064(31)
	.loc 5 409 0 discriminator 1
	lis 4,.LC24@ha
	mr 3,29
	la 4,.LC24@l(4)
.LEHB11:
	bl _ZN8BSEntity11SetMaterialEPKc
.LVL407:
.LBB1742:
.LBB1743:
	.loc 5 160 0 discriminator 1
	lis 9,.LC25@ha
	lwz 9,.LC25@l(9)
	.loc 5 161 0 discriminator 1
	lis 28,.LC26@ha
	lwz 0,.LC26@l(28)
.LBE1743:
.LBE1742:
	.loc 5 413 0 discriminator 1
	addi 30,31,1048
.LVL408:
.LBB1746:
.LBB1744:
	.loc 5 160 0 discriminator 1
	stw 9,40(29)
.LBE1744:
.LBE1746:
	.loc 5 411 0 discriminator 1
	lis 9,.LC27@ha
.LBB1747:
.LBB1745:
	.loc 5 161 0 discriminator 1
	stw 0,44(29)
.LBE1745:
.LBE1747:
	.loc 5 411 0 discriminator 1
	lwz 0,.LC27@l(9)
	.loc 5 412 0 discriminator 1
	lis 9,.LC28@ha
	.loc 5 411 0 discriminator 1
	stw 0,68(29)
	.loc 5 412 0 discriminator 1
	lwz 0,.LC28@l(9)
	stw 0,72(29)
.LBB1748:
.LBB1749:
	.loc 10 655 0 discriminator 1
	lwz 26,1060(31)
	cmpwi 7,26,0
	beq- 7,.L276
	.loc 10 655 0 is_stmt 0
	lwz 0,1048(31)
	lwz 9,1052(31)
.L277:
.LBB1750:
	.loc 10 659 0 is_stmt 1
	cmpw 7,9,0
	beq- 7,.L403
.L430:
.LBB1751:
.LBB1752:
.LBB1753:
	.loc 10 399 0
	slwi 0,0,2
	add 26,26,0
.L284:
.LBE1753:
.LBE1752:
.LBE1751:
.LBE1750:
	.loc 10 669 0
	stw 29,0(26)
.LBE1749:
.LBE1748:
	.loc 5 415 0
	li 3,100
.LBB1800:
.LBB1790:
	.loc 10 670 0
	lwz 9,1048(31)
	addi 0,9,1
	stw 0,1048(31)
.LBE1790:
.LBE1800:
	.loc 5 415 0
	bl _ZN8BSEntitynwEj
.LEHE11:
	mr 4,31
	mr 29,3
.LVL409:
.LEHB12:
	bl _ZN8BSEntityC1EP21idGameBearShootWindow
.LEHE12:
.LVL410:
	.loc 5 416 0 discriminator 1
	lis 4,.LC29@ha
	mr 3,29
	la 4,.LC29@l(4)
.LEHB13:
	bl _ZN8BSEntity11SetMaterialEPKc
.LVL411:
.LBB1801:
.LBB1802:
	.loc 5 160 0 discriminator 1
	lwz 0,.LC26@l(28)
	.loc 5 161 0 discriminator 1
	lis 9,.LC30@ha
	.loc 5 160 0 discriminator 1
	stw 0,40(29)
	.loc 5 161 0 discriminator 1
	lwz 0,.LC30@l(9)
.LBE1802:
.LBE1801:
	.loc 5 418 0 discriminator 1
	lis 9,.LC31@ha
.LBB1804:
.LBB1803:
	.loc 5 161 0 discriminator 1
	stw 0,44(29)
.LBE1803:
.LBE1804:
	.loc 5 418 0 discriminator 1
	lwz 0,.LC31@l(9)
	.loc 5 419 0 discriminator 1
	lis 9,.LC32@ha
	.loc 5 418 0 discriminator 1
	stw 0,68(29)
	.loc 5 419 0 discriminator 1
	lwz 0,.LC32@l(9)
	stw 0,72(29)
.LVL412:
.LBB1805:
.LBB1806:
	.loc 10 655 0 discriminator 1
	lwz 28,1060(31)
	cmpwi 7,28,0
	beq- 7,.L293
	.loc 10 655 0 is_stmt 0
	lwz 0,1048(31)
	lwz 9,1052(31)
.L294:
.LBB1807:
	.loc 10 659 0 is_stmt 1
	cmpw 7,9,0
	beq- 7,.L405
.L431:
.LBB1808:
.LBB1809:
.LBB1810:
	.loc 10 399 0
	slwi 0,0,2
	add 28,28,0
.L301:
.LBE1810:
.LBE1809:
.LBE1808:
.LBE1807:
	.loc 10 669 0
	stw 29,0(28)
.LBE1806:
.LBE1805:
	.loc 5 422 0
	li 3,100
.LBB1849:
.LBB1841:
	.loc 10 670 0
	lwz 9,1048(31)
	addi 0,9,1
	stw 0,1048(31)
.LBE1841:
.LBE1849:
	.loc 5 422 0
	bl _ZN8BSEntitynwEj
.LEHE13:
	mr 4,31
	mr 29,3
.LVL413:
.LEHB14:
	bl _ZN8BSEntityC1EP21idGameBearShootWindow
.LEHE14:
.LVL414:
	.loc 5 423 0 discriminator 1
	stw 29,1068(31)
	.loc 5 424 0 discriminator 1
	lis 4,.LC33@ha
	mr 3,29
	la 4,.LC33@l(4)
.LEHB15:
	bl _ZN8BSEntity11SetMaterialEPKc
.LVL415:
.LBB1850:
.LBB1851:
	.loc 5 160 0 discriminator 1
	lis 9,.LC34@ha
	lwz 9,.LC34@l(9)
.LBE1851:
.LBE1850:
	.loc 5 427 0 discriminator 1
	li 0,0
	stw 0,68(29)
.LBB1853:
.LBB1852:
	.loc 5 160 0 discriminator 1
	stw 9,40(29)
	.loc 5 161 0 discriminator 1
	stw 9,44(29)
.LVL416:
.LBE1852:
.LBE1853:
.LBB1854:
.LBB1855:
	.loc 5 170 0 discriminator 1
	li 9,0
	stb 9,48(29)
.LBE1855:
.LBE1854:
	.loc 5 428 0 discriminator 1
	stw 0,72(29)
.LVL417:
.LBB1856:
.LBB1857:
	.loc 10 655 0 discriminator 1
	lwz 28,1060(31)
	cmpwi 7,28,0
	beq- 7,.L310
	.loc 10 655 0 is_stmt 0
	lwz 0,1048(31)
	lwz 9,1052(31)
.L311:
.LBB1858:
	.loc 10 659 0 is_stmt 1
	cmpw 7,0,9
	beq- 7,.L407
.L432:
.LBB1859:
.LBB1860:
.LBB1861:
	.loc 10 399 0
	slwi 0,0,2
	add 28,28,0
.L318:
.LBE1861:
.LBE1860:
.LBE1859:
.LBE1858:
	.loc 10 669 0
	stw 29,0(28)
.LBE1857:
.LBE1856:
	.loc 5 431 0
	li 3,100
.LBB1908:
.LBB1898:
	.loc 10 670 0
	lwz 9,1048(31)
	addi 0,9,1
	stw 0,1048(31)
.LBE1898:
.LBE1908:
	.loc 5 431 0
	bl _ZN8BSEntitynwEj
.LEHE15:
	mr 4,31
	mr 29,3
.LVL418:
.LEHB16:
	bl _ZN8BSEntityC1EP21idGameBearShootWindow
.LEHE16:
.LVL419:
	.loc 5 432 0 discriminator 1
	stw 29,1072(31)
	.loc 5 433 0 discriminator 1
	lis 4,.LC35@ha
	mr 3,29
	la 4,.LC35@l(4)
.LBB1909:
.LBB1910:
	.loc 5 160 0 discriminator 1
	lis 28,.LC36@ha
.LBE1910:
.LBE1909:
	.loc 5 435 0 discriminator 1
	lis 25,.LC37@ha
	.loc 5 436 0 discriminator 1
	lis 26,.LC38@ha
.LEHB17:
	.loc 5 433 0 discriminator 1
	bl _ZN8BSEntity11SetMaterialEPKc
.LVL420:
.LBB1913:
.LBB1911:
	.loc 5 160 0 discriminator 1
	lwz 0,.LC36@l(28)
.LBE1911:
.LBE1913:
	.loc 5 435 0 discriminator 1
	lwz 11,.LC37@l(25)
	.loc 5 436 0 discriminator 1
	lwz 9,.LC38@l(26)
.LBB1914:
.LBB1912:
	.loc 5 160 0 discriminator 1
	stw 0,40(29)
	.loc 5 161 0 discriminator 1
	stw 0,44(29)
.LBE1912:
.LBE1914:
	.loc 5 435 0 discriminator 1
	stw 11,68(29)
	.loc 5 436 0 discriminator 1
	stw 9,72(29)
.LVL421:
.LBB1915:
.LBB1916:
	.loc 10 655 0 discriminator 1
	lwz 24,1060(31)
	cmpwi 7,24,0
	beq- 7,.L327
	.loc 10 655 0 is_stmt 0
	lwz 0,1048(31)
	lwz 9,1052(31)
.L328:
.LBB1917:
	.loc 10 659 0 is_stmt 1
	cmpw 7,0,9
	beq- 7,.L409
.L433:
.LBB1918:
.LBB1919:
.LBB1920:
	.loc 10 399 0
	slwi 0,0,2
	add 24,24,0
.L335:
.LBE1920:
.LBE1919:
.LBE1918:
.LBE1917:
	.loc 10 669 0
	stw 29,0(24)
.LBE1916:
.LBE1915:
	.loc 5 439 0
	li 3,100
.LBB1967:
.LBB1957:
	.loc 10 670 0
	lwz 9,1048(31)
	addi 0,9,1
	stw 0,1048(31)
.LBE1957:
.LBE1967:
	.loc 5 439 0
	bl _ZN8BSEntitynwEj
.LEHE17:
	mr 4,31
	mr 29,3
.LVL422:
.LEHB18:
	bl _ZN8BSEntityC1EP21idGameBearShootWindow
.LEHE18:
.LVL423:
	.loc 5 440 0 discriminator 1
	stw 29,1076(31)
	.loc 5 441 0 discriminator 1
	lis 4,.LC39@ha
	mr 3,29
	la 4,.LC39@l(4)
.LEHB19:
	bl _ZN8BSEntity11SetMaterialEPKc
.LVL424:
	.loc 5 443 0 discriminator 1
	lwz 9,.LC37@l(25)
.LBB1968:
.LBB1969:
	.loc 5 160 0 discriminator 1
	lwz 0,.LC36@l(28)
.LBE1969:
.LBE1968:
	.loc 5 443 0 discriminator 1
	stw 9,68(29)
	.loc 5 444 0 discriminator 1
	lis 9,.LC40@ha
.LBB1971:
.LBB1970:
	.loc 5 160 0 discriminator 1
	stw 0,40(29)
	.loc 5 161 0 discriminator 1
	stw 0,44(29)
.LBE1970:
.LBE1971:
	.loc 5 444 0 discriminator 1
	lwz 0,.LC40@l(9)
	stw 0,72(29)
.LVL425:
.LBB1972:
.LBB1973:
	.loc 10 655 0 discriminator 1
	lwz 25,1060(31)
	cmpwi 7,25,0
	beq- 7,.L344
	.loc 10 655 0 is_stmt 0
	lwz 0,1048(31)
	lwz 9,1052(31)
.L345:
.LBB1974:
	.loc 10 659 0 is_stmt 1
	cmpw 7,0,9
	beq- 7,.L411
.L434:
.LBB1975:
.LBB1976:
.LBB1977:
	.loc 10 399 0
	slwi 0,0,2
	add 25,25,0
.L352:
.LBE1977:
.LBE1976:
.LBE1975:
.LBE1974:
	.loc 10 669 0
	stw 29,0(25)
.LBE1973:
.LBE1972:
	.loc 5 447 0
	li 3,100
.LBB2019:
.LBB2010:
	.loc 10 670 0
	lwz 9,1048(31)
	addi 0,9,1
	stw 0,1048(31)
.LBE2010:
.LBE2019:
	.loc 5 447 0
	bl _ZN8BSEntitynwEj
.LEHE19:
	mr 4,31
	mr 29,3
.LVL426:
.LEHB20:
	bl _ZN8BSEntityC1EP21idGameBearShootWindow
.LEHE20:
.LVL427:
	.loc 5 448 0 discriminator 1
	stw 29,1080(31)
	.loc 5 449 0 discriminator 1
	lis 4,.LC41@ha
	mr 3,29
	la 4,.LC41@l(4)
.LEHB21:
	bl _ZN8BSEntity11SetMaterialEPKc
.LVL428:
.LBB2020:
.LBB2021:
	.loc 5 160 0 discriminator 1
	lwz 0,.LC38@l(26)
	.loc 5 161 0 discriminator 1
	lis 9,.LC42@ha
	.loc 5 160 0 discriminator 1
	stw 0,40(29)
	.loc 5 161 0 discriminator 1
	lwz 0,.LC42@l(9)
.LBE2021:
.LBE2020:
	.loc 5 451 0 discriminator 1
	lis 9,.LC43@ha
.LBB2023:
.LBB2022:
	.loc 5 161 0 discriminator 1
	stw 0,44(29)
.LBE2022:
.LBE2023:
	.loc 5 451 0 discriminator 1
	lwz 0,.LC43@l(9)
	.loc 5 452 0 discriminator 1
	lis 9,.LC44@ha
	.loc 5 451 0 discriminator 1
	stw 0,68(29)
	.loc 5 452 0 discriminator 1
	lwz 0,.LC44@l(9)
	stw 0,72(29)
.LVL429:
.LBB2024:
.LBB2025:
	.loc 10 655 0 discriminator 1
	lwz 26,1060(31)
	cmpwi 7,26,0
	beq- 7,.L361
	.loc 10 655 0 is_stmt 0
	lwz 0,1048(31)
	lwz 9,1052(31)
.L362:
.LBB2026:
	.loc 10 659 0 is_stmt 1
	cmpw 7,0,9
	beq- 7,.L413
.L435:
.LBB2027:
.LBB2028:
.LBB2029:
	.loc 10 399 0
	slwi 0,0,2
	add 26,26,0
.L369:
.LBE2029:
.LBE2028:
.LBE2027:
.LBE2026:
	.loc 10 669 0
	stw 29,0(26)
.LBE2025:
.LBE2024:
	.loc 5 455 0
	li 3,100
.LBB2071:
.LBB2062:
	.loc 10 670 0
	lwz 9,1048(31)
	addi 0,9,1
	stw 0,1048(31)
.LBE2062:
.LBE2071:
	.loc 5 455 0
	bl _ZN8BSEntitynwEj
.LEHE21:
	mr 4,31
	mr 29,3
.LVL430:
.LEHB22:
	bl _ZN8BSEntityC1EP21idGameBearShootWindow
.LEHE22:
.LVL431:
	.loc 5 456 0 discriminator 1
	stw 29,1084(31)
	.loc 5 457 0 discriminator 1
	mr 3,29
	mr 4,27
.LEHB23:
	bl _ZN8BSEntity11SetMaterialEPKc
.LVL432:
.LBB2072:
.LBB2073:
	.loc 5 160 0 discriminator 1
	lwz 0,.LC36@l(28)
	stw 0,40(29)
	.loc 5 161 0 discriminator 1
	stw 0,44(29)
.LVL433:
.LBE2073:
.LBE2072:
.LBB2074:
.LBB2075:
	.loc 5 170 0 discriminator 1
	li 0,0
	stb 0,48(29)
.LVL434:
.LBE2075:
.LBE2074:
.LBB2076:
.LBB2077:
	.loc 10 655 0 discriminator 1
	lwz 28,1060(31)
	cmpwi 7,28,0
	beq- 7,.L378
	.loc 10 655 0 is_stmt 0
	lwz 0,1048(31)
	lwz 9,1052(31)
.L379:
.LBB2078:
	.loc 10 659 0 is_stmt 1
	cmpw 7,0,9
	beq- 7,.L415
.L436:
.LBB2079:
.LBB2080:
.LBB2081:
	.loc 10 399 0
	slwi 0,0,2
	add 28,28,0
.L386:
.LBE2081:
.LBE2080:
.LBE2079:
.LBE2078:
	.loc 10 669 0
	stw 29,0(28)
	.loc 10 670 0
	lwz 9,1048(31)
	addi 0,9,1
	stw 0,1048(31)
.LBE2077:
.LBE2076:
.LBE2192:
	.loc 5 461 0
	lwz 0,44(1)
	lwz 24,8(1)
	mtlr 0
	lwz 25,12(1)
	lwz 26,16(1)
	lwz 27,20(1)
	lwz 28,24(1)
	lwz 29,28(1)
.LVL435:
	lwz 30,32(1)
.LVL436:
	lwz 31,36(1)
.LVL437:
	addi 1,1,40
	.cfi_remember_state
.LCFI90:
	.cfi_def_cfa_offset 0
	.cfi_restore 31
	.cfi_restore 30
	.cfi_restore 29
	.cfi_restore 28
	.cfi_restore 27
	.cfi_restore 26
	.cfi_restore 25
	.cfi_restore 24
	blr
.LVL438:
.L403:
.LCFI91:
	.cfi_restore_state
	lwz 3,1056(31)
.LBB2193:
.LBB2127:
.LBB1791:
.LBB1774:
	.loc 10 659 0
	mr 11,9
.L279:
.LBB1768:
	.loc 10 662 0
	cmpwi 7,3,0
	beq- 7,.L438
.L285:
	.loc 10 665 0
	add 0,11,3
.LVL439:
	.loc 10 666 0
	divw 0,0,3
.LVL440:
.LBB1762:
.LBB1756:
	.loc 10 375 0
	mullw. 3,0,3
.LVL441:
	ble- 0,.L439
	.loc 10 380 0
	cmpw 7,11,3
	beq- 7,.L440
.LVL442:
	.loc 10 387 0
	cmpw 7,3,9
	.loc 10 386 0
	stw 3,1052(31)
	.loc 10 387 0
	blt- 7,.L441
.L289:
	.loc 10 392 0
	slwi 3,3,2
.LVL443:
	bl _Znaj
.LVL444:
	.loc 10 393 0
	lwz 0,1048(31)
	.loc 10 392 0
	stw 3,1060(31)
.LVL445:
	.loc 10 393 0
	cmpwi 7,0,0
	ble- 7,.L290
	.loc 5 390 0
	addi 11,26,-4
.LBE1756:
.LBE1762:
	.loc 10 393 0
	li 9,0
	b .L291
.LVL446:
.L442:
.LBB1763:
.LBB1757:
	lwz 3,1060(31)
.LVL447:
.L291:
	.loc 10 394 0
	lwzu 10,4(11)
	slwi 0,9,2
	.loc 10 393 0
	addi 9,9,1
.LVL448:
	.loc 10 394 0
	stwx 10,3,0
	.loc 10 393 0
	lwz 0,0(30)
	cmpw 7,9,0
	blt+ 7,.L442
.LVL449:
.L290:
	.loc 10 398 0
	cmpwi 7,26,0
	beq- 7,.L443
	.loc 10 399 0
	mr 3,26
	bl _ZdaPv
	lwz 0,1048(31)
	lwz 26,1060(31)
.LVL450:
	b .L430
.LVL451:
.L415:
	lwz 3,1056(31)
.LBE1757:
.LBE1763:
.LBE1768:
.LBE1774:
.LBE1791:
.LBE2127:
.LBB2128:
.LBB2118:
.LBB2102:
	.loc 10 659 0
	mr 11,0
.L381:
.LBB2096:
	.loc 10 662 0
	cmpwi 7,3,0
	beq- 7,.L444
.L387:
	.loc 10 665 0
	add 9,0,3
.LVL452:
	.loc 10 666 0
	divw 9,9,3
.LVL453:
.LBB2090:
.LBB2084:
	.loc 10 375 0
	mullw. 3,9,3
.LVL454:
	ble- 0,.L445
	.loc 10 380 0
	cmpw 7,3,0
	beq- 7,.L446
.LVL455:
	.loc 10 387 0
	cmpw 7,3,11
	.loc 10 386 0
	stw 3,1052(31)
	.loc 10 387 0
	blt- 7,.L447
.L391:
	.loc 10 392 0
	slwi 3,3,2
.LVL456:
	bl _Znaj
.LVL457:
	.loc 10 393 0
	lwz 0,1048(31)
	.loc 10 392 0
	stw 3,1060(31)
.LVL458:
	.loc 10 393 0
	cmpwi 7,0,0
	ble- 7,.L392
	.loc 5 390 0
	addi 11,28,-4
.LBE2084:
.LBE2090:
	.loc 10 393 0
	li 9,0
	b .L393
.LVL459:
.L448:
.LBB2091:
.LBB2085:
	lwz 3,1060(31)
.LVL460:
.L393:
	.loc 10 394 0
	lwzu 10,4(11)
	slwi 0,9,2
	.loc 10 393 0
	addi 9,9,1
.LVL461:
	.loc 10 394 0
	stwx 10,3,0
	.loc 10 393 0
	lwz 0,0(30)
	cmpw 7,9,0
	blt+ 7,.L448
.LVL462:
.L392:
	.loc 10 398 0
	cmpwi 7,28,0
	beq- 7,.L449
	.loc 10 399 0
	mr 3,28
	bl _ZdaPv
	lwz 0,1048(31)
	lwz 28,1060(31)
.LVL463:
	b .L436
.LVL464:
.L413:
	lwz 3,1056(31)
.LBE2085:
.LBE2091:
.LBE2096:
.LBE2102:
.LBE2118:
.LBE2128:
.LBB2129:
.LBB2063:
.LBB2047:
	.loc 10 659 0
	mr 11,0
.L364:
.LBB2042:
	.loc 10 662 0
	cmpwi 7,3,0
	beq- 7,.L450
.L370:
	.loc 10 665 0
	add 9,11,3
.LVL465:
	.loc 10 666 0
	divw 9,9,3
.LVL466:
.LBB2037:
.LBB2032:
	.loc 10 375 0
	mullw. 3,9,3
.LVL467:
	ble- 0,.L451
	.loc 10 380 0
	cmpw 7,3,11
	beq- 7,.L435
.LVL468:
	.loc 10 387 0
	cmpw 7,3,0
	.loc 10 386 0
	stw 3,1052(31)
	.loc 10 387 0
	blt- 7,.L452
.L374:
	.loc 10 392 0
	slwi 3,3,2
.LVL469:
	bl _Znaj
.LVL470:
	.loc 10 393 0
	lwz 0,1048(31)
	.loc 10 392 0
	stw 3,1060(31)
.LVL471:
	.loc 10 393 0
	cmpwi 7,0,0
	ble- 7,.L375
	.loc 5 390 0
	addi 11,26,-4
.LBE2032:
.LBE2037:
	.loc 10 393 0
	li 9,0
	b .L376
.LVL472:
.L453:
.LBB2038:
.LBB2033:
	lwz 3,1060(31)
.LVL473:
.L376:
	.loc 10 394 0
	lwzu 10,4(11)
	slwi 0,9,2
	.loc 10 393 0
	addi 9,9,1
.LVL474:
	.loc 10 394 0
	stwx 10,3,0
	.loc 10 393 0
	lwz 0,0(30)
	cmpw 7,9,0
	blt+ 7,.L453
.LVL475:
.L375:
	.loc 10 398 0
	cmpwi 7,26,0
	beq- 7,.L454
	.loc 10 399 0
	mr 3,26
	bl _ZdaPv
	lwz 0,1048(31)
	lwz 26,1060(31)
.LVL476:
	b .L435
.LVL477:
.L411:
	lwz 3,1056(31)
.LBE2033:
.LBE2038:
.LBE2042:
.LBE2047:
.LBE2063:
.LBE2129:
.LBB2130:
.LBB2011:
.LBB1995:
	.loc 10 659 0
	mr 11,0
.L347:
.LBB1990:
	.loc 10 662 0
	cmpwi 7,3,0
	beq- 7,.L455
.L353:
	.loc 10 665 0
	add 9,11,3
.LVL478:
	.loc 10 666 0
	divw 9,9,3
.LVL479:
.LBB1985:
.LBB1980:
	.loc 10 375 0
	mullw. 3,9,3
.LVL480:
	ble- 0,.L456
	.loc 10 380 0
	cmpw 7,3,11
	beq- 7,.L434
.LVL481:
	.loc 10 387 0
	cmpw 7,3,0
	.loc 10 386 0
	stw 3,1052(31)
	.loc 10 387 0
	blt- 7,.L457
.L357:
	.loc 10 392 0
	slwi 3,3,2
.LVL482:
	bl _Znaj
.LVL483:
	.loc 10 393 0
	lwz 0,1048(31)
	.loc 10 392 0
	stw 3,1060(31)
.LVL484:
	.loc 10 393 0
	cmpwi 7,0,0
	ble- 7,.L358
	.loc 5 390 0
	addi 11,25,-4
.LBE1980:
.LBE1985:
	.loc 10 393 0
	li 9,0
	b .L359
.LVL485:
.L458:
.LBB1986:
.LBB1981:
	lwz 3,1060(31)
.LVL486:
.L359:
	.loc 10 394 0
	lwzu 10,4(11)
	slwi 0,9,2
	.loc 10 393 0
	addi 9,9,1
.LVL487:
	.loc 10 394 0
	stwx 10,3,0
	.loc 10 393 0
	lwz 0,0(30)
	cmpw 7,9,0
	blt+ 7,.L458
.LVL488:
.L358:
	.loc 10 398 0
	cmpwi 7,25,0
	beq- 7,.L459
	.loc 10 399 0
	mr 3,25
	bl _ZdaPv
	lwz 0,1048(31)
	lwz 25,1060(31)
.LVL489:
	b .L434
.LVL490:
.L409:
	lwz 3,1056(31)
.LBE1981:
.LBE1986:
.LBE1990:
.LBE1995:
.LBE2011:
.LBE2130:
.LBB2131:
.LBB1958:
.LBB1941:
	.loc 10 659 0
	mr 11,0
.L330:
.LBB1935:
	.loc 10 662 0
	cmpwi 7,3,0
	beq- 7,.L460
.L336:
	.loc 10 665 0
	add 9,0,3
.LVL491:
	.loc 10 666 0
	divw 9,9,3
.LVL492:
.LBB1929:
.LBB1923:
	.loc 10 375 0
	mullw. 3,9,3
.LVL493:
	ble- 0,.L461
	.loc 10 380 0
	cmpw 7,3,0
	beq- 7,.L462
.LVL494:
	.loc 10 387 0
	cmpw 7,3,11
	.loc 10 386 0
	stw 3,1052(31)
	.loc 10 387 0
	blt- 7,.L463
.L340:
	.loc 10 392 0
	slwi 3,3,2
.LVL495:
	bl _Znaj
.LVL496:
	.loc 10 393 0
	lwz 0,1048(31)
	.loc 10 392 0
	stw 3,1060(31)
.LVL497:
	.loc 10 393 0
	cmpwi 7,0,0
	ble- 7,.L341
	.loc 5 390 0
	addi 11,24,-4
.LBE1923:
.LBE1929:
	.loc 10 393 0
	li 9,0
	b .L342
.LVL498:
.L464:
.LBB1930:
.LBB1924:
	lwz 3,1060(31)
.LVL499:
.L342:
	.loc 10 394 0
	lwzu 10,4(11)
	slwi 0,9,2
	.loc 10 393 0
	addi 9,9,1
.LVL500:
	.loc 10 394 0
	stwx 10,3,0
	.loc 10 393 0
	lwz 0,0(30)
	cmpw 7,9,0
	blt+ 7,.L464
.LVL501:
.L341:
	.loc 10 398 0
	cmpwi 7,24,0
	beq- 7,.L465
	.loc 10 399 0
	mr 3,24
	bl _ZdaPv
	lwz 0,1048(31)
	lwz 24,1060(31)
.LVL502:
	b .L433
.LVL503:
.L407:
	lwz 3,1056(31)
.LBE1924:
.LBE1930:
.LBE1935:
.LBE1941:
.LBE1958:
.LBE2131:
.LBB2132:
.LBB1899:
.LBB1882:
	.loc 10 659 0
	mr 11,0
.L313:
.LBB1876:
	.loc 10 662 0
	cmpwi 7,3,0
	beq- 7,.L466
.L319:
	.loc 10 665 0
	add 9,0,3
.LVL504:
	.loc 10 666 0
	divw 9,9,3
.LVL505:
.LBB1870:
.LBB1864:
	.loc 10 375 0
	mullw. 3,9,3
.LVL506:
	ble- 0,.L467
	.loc 10 380 0
	cmpw 7,3,0
	beq- 7,.L468
.LVL507:
	.loc 10 387 0
	cmpw 7,3,11
	.loc 10 386 0
	stw 3,1052(31)
	.loc 10 387 0
	blt- 7,.L469
.L323:
	.loc 10 392 0
	slwi 3,3,2
.LVL508:
	bl _Znaj
.LVL509:
	.loc 10 393 0
	lwz 0,1048(31)
	.loc 10 392 0
	stw 3,1060(31)
.LVL510:
	.loc 10 393 0
	cmpwi 7,0,0
	ble- 7,.L324
	.loc 5 390 0
	addi 11,28,-4
.LBE1864:
.LBE1870:
	.loc 10 393 0
	li 9,0
	b .L325
.LVL511:
.L470:
.LBB1871:
.LBB1865:
	lwz 3,1060(31)
.LVL512:
.L325:
	.loc 10 394 0
	lwzu 10,4(11)
	slwi 0,9,2
	.loc 10 393 0
	addi 9,9,1
.LVL513:
	.loc 10 394 0
	stwx 10,3,0
	.loc 10 393 0
	lwz 0,0(30)
	cmpw 7,9,0
	blt+ 7,.L470
.LVL514:
.L324:
	.loc 10 398 0
	cmpwi 7,28,0
	beq- 7,.L471
	.loc 10 399 0
	mr 3,28
	bl _ZdaPv
	lwz 0,1048(31)
	lwz 28,1060(31)
.LVL515:
	b .L432
.LVL516:
.L405:
	lwz 3,1056(31)
.LBE1865:
.LBE1871:
.LBE1876:
.LBE1882:
.LBE1899:
.LBE2132:
.LBB2133:
.LBB1842:
.LBB1827:
	.loc 10 659 0
	mr 11,9
.L296:
.LBB1823:
	.loc 10 662 0
	cmpwi 7,3,0
	beq- 7,.L472
.L302:
	.loc 10 665 0
	add 0,9,3
.LVL517:
	.loc 10 666 0
	divw 0,0,3
.LVL518:
.LBB1818:
.LBB1813:
	.loc 10 375 0
	mullw. 3,0,3
.LVL519:
	ble- 0,.L473
	.loc 10 380 0
	cmpw 7,9,3
	beq- 7,.L474
.LVL520:
	.loc 10 387 0
	cmpw 7,3,11
	.loc 10 386 0
	stw 3,1052(31)
	.loc 10 387 0
	blt- 7,.L475
.L306:
	.loc 10 392 0
	slwi 3,3,2
.LVL521:
	bl _Znaj
.LVL522:
	.loc 10 393 0
	lwz 0,1048(31)
	.loc 10 392 0
	stw 3,1060(31)
.LVL523:
	.loc 10 393 0
	cmpwi 7,0,0
	ble- 7,.L307
	.loc 5 390 0
	addi 11,28,-4
.LBE1813:
.LBE1818:
	.loc 10 393 0
	li 9,0
	b .L308
.LVL524:
.L476:
.LBB1819:
.LBB1814:
	lwz 3,1060(31)
.LVL525:
.L308:
	.loc 10 394 0
	lwzu 10,4(11)
	slwi 0,9,2
	.loc 10 393 0
	addi 9,9,1
.LVL526:
	.loc 10 394 0
	stwx 10,3,0
	.loc 10 393 0
	lwz 0,0(30)
	cmpw 7,9,0
	blt+ 7,.L476
.LVL527:
.L307:
	.loc 10 398 0
	cmpwi 7,28,0
	beq- 7,.L477
	.loc 10 399 0
	mr 3,28
	bl _ZdaPv
	lwz 0,1048(31)
	lwz 28,1060(31)
.LVL528:
	b .L431
.LVL529:
.L472:
.LBE1814:
.LBE1819:
	.loc 10 663 0
	li 0,16
	li 3,16
	stw 0,1056(31)
	b .L302
.LVL530:
.L466:
.LBE1823:
.LBE1827:
.LBE1842:
.LBE2133:
.LBB2134:
.LBB1900:
.LBB1883:
.LBB1877:
	li 9,16
	li 3,16
	stw 9,1056(31)
	b .L319
.LVL531:
.L460:
.LBE1877:
.LBE1883:
.LBE1900:
.LBE2134:
.LBB2135:
.LBB1959:
.LBB1942:
.LBB1936:
	li 9,16
	li 3,16
	stw 9,1056(31)
	b .L336
.LVL532:
.L455:
.LBE1936:
.LBE1942:
.LBE1959:
.LBE2135:
.LBB2136:
.LBB2012:
.LBB1996:
.LBB1991:
	li 9,16
	li 3,16
	stw 9,1056(31)
	b .L353
.LVL533:
.L450:
.LBE1991:
.LBE1996:
.LBE2012:
.LBE2136:
.LBB2137:
.LBB2064:
.LBB2048:
.LBB2043:
	li 9,16
	li 3,16
	stw 9,1056(31)
	b .L370
.LVL534:
.L444:
.LBE2043:
.LBE2048:
.LBE2064:
.LBE2137:
.LBB2138:
.LBB2119:
.LBB2103:
.LBB2097:
	li 9,16
	li 3,16
	stw 9,1056(31)
	b .L387
.LVL535:
.L438:
.LBE2097:
.LBE2103:
.LBE2119:
.LBE2138:
.LBB2139:
.LBB1792:
.LBB1775:
.LBB1769:
	li 0,16
	li 3,16
	stw 0,1056(31)
	b .L285
.LVL536:
.L469:
.LBE1769:
.LBE1775:
.LBE1792:
.LBE2139:
.LBB2140:
.LBB1901:
.LBB1884:
.LBB1878:
.LBB1872:
.LBB1866:
	.loc 10 388 0
	stw 3,1048(31)
	b .L323
.LVL537:
.L463:
.LBE1866:
.LBE1872:
.LBE1878:
.LBE1884:
.LBE1901:
.LBE2140:
.LBB2141:
.LBB1960:
.LBB1943:
.LBB1937:
.LBB1931:
.LBB1925:
	stw 3,1048(31)
	b .L340
.LVL538:
.L457:
.LBE1925:
.LBE1931:
.LBE1937:
.LBE1943:
.LBE1960:
.LBE2141:
.LBB2142:
.LBB2013:
.LBB1997:
.LBB1992:
.LBB1987:
.LBB1982:
	stw 3,1048(31)
	b .L357
.LVL539:
.L441:
.LBE1982:
.LBE1987:
.LBE1992:
.LBE1997:
.LBE2013:
.LBE2142:
.LBB2143:
.LBB1793:
.LBB1776:
.LBB1770:
.LBB1764:
.LBB1758:
	stw 3,1048(31)
	b .L289
.LVL540:
.L452:
.LBE1758:
.LBE1764:
.LBE1770:
.LBE1776:
.LBE1793:
.LBE2143:
.LBB2144:
.LBB2065:
.LBB2049:
.LBB2044:
.LBB2039:
.LBB2034:
	stw 3,1048(31)
	b .L374
.LVL541:
.L447:
.LBE2034:
.LBE2039:
.LBE2044:
.LBE2049:
.LBE2065:
.LBE2144:
.LBB2145:
.LBB2120:
.LBB2104:
.LBB2098:
.LBB2092:
.LBB2086:
	stw 3,1048(31)
	b .L391
.LVL542:
.L475:
.LBE2086:
.LBE2092:
.LBE2098:
.LBE2104:
.LBE2120:
.LBE2145:
.LBB2146:
.LBB1843:
.LBB1828:
.LBB1824:
.LBB1820:
.LBB1815:
	stw 3,1048(31)
	b .L306
.LVL543:
.L474:
	.loc 10 380 0
	slwi 11,11,2
	add 28,28,11
	b .L301
.LVL544:
.L446:
.LBE1815:
.LBE1820:
.LBE1824:
.LBE1828:
.LBE1843:
.LBE2146:
.LBB2147:
.LBB2121:
.LBB2105:
.LBB2099:
.LBB2093:
.LBB2087:
	slwi 11,11,2
	add 28,28,11
	b .L386
.LVL545:
.L462:
.LBE2087:
.LBE2093:
.LBE2099:
.LBE2105:
.LBE2121:
.LBE2147:
.LBB2148:
.LBB1961:
.LBB1944:
.LBB1938:
.LBB1932:
.LBB1926:
	slwi 11,11,2
	add 24,24,11
	b .L335
.LVL546:
.L440:
.LBE1926:
.LBE1932:
.LBE1938:
.LBE1944:
.LBE1961:
.LBE2148:
.LBB2149:
.LBB1794:
.LBB1777:
.LBB1771:
.LBB1765:
.LBB1759:
	slwi 9,9,2
	add 26,26,9
	b .L284
.LVL547:
.L468:
.LBE1759:
.LBE1765:
.LBE1771:
.LBE1777:
.LBE1794:
.LBE2149:
.LBB2150:
.LBB1902:
.LBB1885:
.LBB1879:
.LBB1873:
.LBB1867:
	slwi 11,11,2
	add 28,28,11
	b .L318
.LVL548:
.L344:
.LBE1867:
.LBE1873:
.LBE1879:
.LBE1885:
.LBE1902:
.LBE2150:
.LBB2151:
.LBB2014:
	.loc 10 656 0
	lwz 3,1056(31)
.LBB1998:
.LBB1999:
	.loc 10 375 0
	cmpwi 7,3,0
.LBE1999:
.LBE1998:
	.loc 10 656 0
	mr 9,3
.LVL549:
.LBB2005:
.LBB2002:
	.loc 10 375 0
	ble- 7,.L478
	.loc 10 380 0
	lwz 0,1052(31)
	cmpw 7,3,0
	lwz 0,1048(31)
	beq- 7,.L345
.LVL550:
	.loc 10 387 0
	cmpw 7,3,0
	.loc 10 386 0
	stw 3,1052(31)
	.loc 10 387 0
	bge- 7,.L349
	.loc 10 388 0
	stw 3,1048(31)
.L349:
	.loc 10 392 0
	slwi 3,3,2
	bl _Znaj
.LVL551:
	.loc 10 393 0
	lwz 0,1048(31)
	.loc 10 392 0
	mr 25,3
	stw 3,1060(31)
.LVL552:
	.loc 10 393 0
	cmpwi 7,0,0
	li 9,0
	li 11,0
	bgt+ 7,.L427
	b .L499
.LVL553:
.L480:
	lwz 25,1060(31)
.LVL554:
.L427:
	.loc 10 394 0
	lwz 0,0(9)
	.loc 10 393 0
	addi 11,11,1
.LVL555:
	.loc 10 394 0
	stwx 0,25,9
	.loc 10 393 0
	addi 9,9,4
	lwz 0,0(30)
	cmpw 7,11,0
	blt+ 7,.L480
	lwz 9,1052(31)
	lwz 25,1060(31)
	b .L345
.LVL556:
.L293:
.LBE2002:
.LBE2005:
.LBE2014:
.LBE2151:
.LBB2152:
.LBB1844:
	.loc 10 656 0
	lwz 9,1056(31)
.LBB1829:
.LBB1830:
	.loc 10 375 0
	cmpwi 7,9,0
.LBE1830:
.LBE1829:
	.loc 10 656 0
	mr 3,9
.LVL557:
.LBB1836:
.LBB1833:
	.loc 10 375 0
	ble- 7,.L481
	.loc 10 380 0
	lwz 0,1052(31)
	cmpw 7,9,0
	lwz 0,1048(31)
	beq- 7,.L294
.LVL558:
	.loc 10 387 0
	cmpw 7,9,0
	.loc 10 386 0
	stw 9,1052(31)
	.loc 10 387 0
	bge- 7,.L298
	.loc 10 388 0
	stw 9,1048(31)
.L298:
	.loc 10 392 0
	slwi 3,3,2
	bl _Znaj
.LVL559:
	.loc 10 393 0
	lwz 0,1048(31)
	.loc 10 392 0
	mr 28,3
	stw 3,1060(31)
.LVL560:
	.loc 10 393 0
	cmpwi 7,0,0
	li 9,0
	li 11,0
	bgt+ 7,.L424
	b .L500
.LVL561:
.L483:
	lwz 28,1060(31)
.LVL562:
.L424:
	.loc 10 394 0
	lwz 0,0(9)
	.loc 10 393 0
	addi 11,11,1
.LVL563:
	.loc 10 394 0
	stwx 0,28,9
	.loc 10 393 0
	addi 9,9,4
	lwz 0,0(30)
	cmpw 7,11,0
	blt+ 7,.L483
	lwz 9,1052(31)
	lwz 28,1060(31)
	b .L294
.LVL564:
.L310:
.LBE1833:
.LBE1836:
.LBE1844:
.LBE2152:
.LBB2153:
.LBB1903:
	.loc 10 656 0
	lwz 3,1056(31)
.LBB1886:
.LBB1887:
	.loc 10 375 0
	cmpwi 7,3,0
.LBE1887:
.LBE1886:
	.loc 10 656 0
	mr 9,3
.LVL565:
.LBB1893:
.LBB1890:
	.loc 10 375 0
	ble- 7,.L484
	.loc 10 380 0
	lwz 0,1052(31)
	cmpw 7,3,0
	lwz 0,1048(31)
	beq- 7,.L311
.LVL566:
	.loc 10 387 0
	cmpw 7,3,0
	.loc 10 386 0
	stw 3,1052(31)
	.loc 10 387 0
	bge- 7,.L315
	.loc 10 388 0
	stw 3,1048(31)
.L315:
	.loc 10 392 0
	slwi 3,3,2
	bl _Znaj
.LVL567:
	.loc 10 393 0
	lwz 0,1048(31)
	.loc 10 392 0
	mr 28,3
	stw 3,1060(31)
.LVL568:
	.loc 10 393 0
	cmpwi 7,0,0
	li 9,0
	li 11,0
	bgt+ 7,.L425
	b .L501
.LVL569:
.L486:
	lwz 28,1060(31)
.LVL570:
.L425:
	.loc 10 394 0
	lwz 0,0(9)
	.loc 10 393 0
	addi 11,11,1
.LVL571:
	.loc 10 394 0
	stwx 0,28,9
	.loc 10 393 0
	addi 9,9,4
	lwz 0,0(30)
	cmpw 7,11,0
	blt+ 7,.L486
	lwz 9,1052(31)
	lwz 28,1060(31)
	b .L311
.LVL572:
.L327:
.LBE1890:
.LBE1893:
.LBE1903:
.LBE2153:
.LBB2154:
.LBB1962:
	.loc 10 656 0
	lwz 3,1056(31)
.LBB1945:
.LBB1946:
	.loc 10 375 0
	cmpwi 7,3,0
.LBE1946:
.LBE1945:
	.loc 10 656 0
	mr 9,3
.LVL573:
.LBB1952:
.LBB1949:
	.loc 10 375 0
	ble- 7,.L487
	.loc 10 380 0
	lwz 0,1052(31)
	cmpw 7,3,0
	lwz 0,1048(31)
	beq- 7,.L328
.LVL574:
	.loc 10 387 0
	cmpw 7,3,0
	.loc 10 386 0
	stw 3,1052(31)
	.loc 10 387 0
	bge- 7,.L332
	.loc 10 388 0
	stw 3,1048(31)
.L332:
	.loc 10 392 0
	slwi 3,3,2
	bl _Znaj
.LVL575:
	.loc 10 393 0
	lwz 0,1048(31)
	.loc 10 392 0
	mr 24,3
	stw 3,1060(31)
.LVL576:
	.loc 10 393 0
	cmpwi 7,0,0
	li 9,0
	li 11,0
	bgt+ 7,.L426
	b .L502
.LVL577:
.L489:
	lwz 24,1060(31)
.LVL578:
.L426:
	.loc 10 394 0
	lwz 0,0(9)
	.loc 10 393 0
	addi 11,11,1
.LVL579:
	.loc 10 394 0
	stwx 0,24,9
	.loc 10 393 0
	addi 9,9,4
	lwz 0,0(30)
	cmpw 7,11,0
	blt+ 7,.L489
	lwz 9,1052(31)
	lwz 24,1060(31)
	b .L328
.LVL580:
.L361:
.LBE1949:
.LBE1952:
.LBE1962:
.LBE2154:
.LBB2155:
.LBB2066:
	.loc 10 656 0
	lwz 3,1056(31)
.LBB2050:
.LBB2051:
	.loc 10 375 0
	cmpwi 7,3,0
.LBE2051:
.LBE2050:
	.loc 10 656 0
	mr 9,3
.LVL581:
.LBB2057:
.LBB2054:
	.loc 10 375 0
	ble- 7,.L490
	.loc 10 380 0
	lwz 0,1052(31)
	cmpw 7,3,0
	lwz 0,1048(31)
	beq- 7,.L362
.LVL582:
	.loc 10 387 0
	cmpw 7,3,0
	.loc 10 386 0
	stw 3,1052(31)
	.loc 10 387 0
	bge- 7,.L366
	.loc 10 388 0
	stw 3,1048(31)
.L366:
	.loc 10 392 0
	slwi 3,3,2
	bl _Znaj
.LVL583:
	.loc 10 393 0
	lwz 0,1048(31)
	.loc 10 392 0
	mr 26,3
	stw 3,1060(31)
.LVL584:
	.loc 10 393 0
	cmpwi 7,0,0
	li 9,0
	li 11,0
	bgt+ 7,.L428
	b .L503
.LVL585:
.L492:
	lwz 26,1060(31)
.LVL586:
.L428:
	.loc 10 394 0
	lwz 0,0(9)
	.loc 10 393 0
	addi 11,11,1
.LVL587:
	.loc 10 394 0
	stwx 0,26,9
	.loc 10 393 0
	addi 9,9,4
	lwz 0,0(30)
	cmpw 7,11,0
	blt+ 7,.L492
	lwz 9,1052(31)
	lwz 26,1060(31)
	b .L362
.LVL588:
.L378:
.LBE2054:
.LBE2057:
.LBE2066:
.LBE2155:
.LBB2156:
.LBB2122:
	.loc 10 656 0
	lwz 3,1056(31)
.LBB2106:
.LBB2107:
	.loc 10 375 0
	cmpwi 7,3,0
.LBE2107:
.LBE2106:
	.loc 10 656 0
	mr 9,3
.LVL589:
.LBB2113:
.LBB2110:
	.loc 10 375 0
	ble- 7,.L493
	.loc 10 380 0
	lwz 0,1052(31)
	cmpw 7,3,0
	lwz 0,1048(31)
	beq- 7,.L379
.LVL590:
	.loc 10 387 0
	cmpw 7,3,0
	.loc 10 386 0
	stw 3,1052(31)
	.loc 10 387 0
	bge- 7,.L383
	.loc 10 388 0
	stw 3,1048(31)
.L383:
	.loc 10 392 0
	slwi 3,3,2
	bl _Znaj
.LVL591:
	.loc 10 393 0
	lwz 0,1048(31)
	.loc 10 392 0
	mr 28,3
	stw 3,1060(31)
.LVL592:
	.loc 10 393 0
	cmpwi 7,0,0
	li 9,0
	li 11,0
	bgt+ 7,.L429
	b .L504
.LVL593:
.L495:
	lwz 28,1060(31)
.LVL594:
.L429:
	.loc 10 394 0
	lwz 0,0(9)
	.loc 10 393 0
	addi 11,11,1
.LVL595:
	.loc 10 394 0
	stwx 0,28,9
	.loc 10 393 0
	addi 9,9,4
	lwz 0,0(30)
	cmpw 7,11,0
	blt+ 7,.L495
	lwz 9,1052(31)
	lwz 28,1060(31)
	b .L379
.LVL596:
.L276:
.LBE2110:
.LBE2113:
.LBE2122:
.LBE2156:
.LBB2157:
.LBB1795:
	.loc 10 656 0
	lwz 9,1056(31)
.LBB1778:
.LBB1779:
	.loc 10 375 0
	cmpwi 7,9,0
.LBE1779:
.LBE1778:
	.loc 10 656 0
	mr 3,9
.LVL597:
.LBB1785:
.LBB1782:
	.loc 10 375 0
	ble- 7,.L496
	.loc 10 380 0
	lwz 0,1052(31)
	cmpw 7,9,0
	lwz 0,1048(31)
	beq- 7,.L277
.LVL598:
	.loc 10 387 0
	cmpw 7,9,0
	.loc 10 386 0
	stw 9,1052(31)
	.loc 10 387 0
	bge- 7,.L281
	.loc 10 388 0
	stw 9,1048(31)
.L281:
	.loc 10 392 0
	slwi 3,3,2
	bl _Znaj
.LVL599:
	.loc 10 393 0
	lwz 0,1048(31)
	.loc 10 392 0
	mr 26,3
	stw 3,1060(31)
.LVL600:
	.loc 10 393 0
	cmpwi 7,0,0
	li 9,0
	li 11,0
	bgt+ 7,.L423
	b .L505
.LVL601:
.L498:
	lwz 26,1060(31)
.LVL602:
.L423:
	.loc 10 394 0
	lwz 0,0(9)
	.loc 10 393 0
	addi 11,11,1
.LVL603:
	.loc 10 394 0
	stwx 0,26,9
	.loc 10 393 0
	addi 9,9,4
	lwz 0,0(30)
	cmpw 7,11,0
	blt+ 7,.L498
	lwz 9,1052(31)
	lwz 26,1060(31)
	b .L277
.LVL604:
.L451:
.LBE1782:
.LBE1785:
.LBE1795:
.LBE2157:
.LBB2158:
.LBB2067:
.LBB2058:
.LBB2045:
.LBB2040:
.LBB2035:
.LBB2030:
.LBB2031:
	.loc 10 193 0
	cmpwi 7,26,0
	beq- 7,.L372
	.loc 10 194 0
	mr 3,26
.LVL605:
	bl _ZdaPv
.L372:
	.loc 10 197 0
	li 0,0
	.loc 10 199 0
	li 26,0
	.loc 10 197 0
	stw 0,1060(31)
	.loc 10 198 0
	stw 0,1048(31)
	.loc 10 199 0
	stw 0,1052(31)
	b .L369
.LVL606:
.L456:
.LBE2031:
.LBE2030:
.LBE2035:
.LBE2040:
.LBE2045:
.LBE2058:
.LBE2067:
.LBE2158:
.LBB2159:
.LBB2015:
.LBB2006:
.LBB1993:
.LBB1988:
.LBB1983:
.LBB1978:
.LBB1979:
	.loc 10 193 0
	cmpwi 7,25,0
	beq- 7,.L355
	.loc 10 194 0
	mr 3,25
.LVL607:
	bl _ZdaPv
.L355:
	.loc 10 197 0
	li 0,0
	.loc 10 199 0
	li 25,0
	.loc 10 197 0
	stw 0,1060(31)
	.loc 10 198 0
	stw 0,1048(31)
	.loc 10 199 0
	stw 0,1052(31)
	b .L352
.LVL608:
.L473:
.LBE1979:
.LBE1978:
.LBE1983:
.LBE1988:
.LBE1993:
.LBE2006:
.LBE2015:
.LBE2159:
.LBB2160:
.LBB1845:
.LBB1837:
.LBB1825:
.LBB1821:
.LBB1816:
.LBB1811:
.LBB1812:
	.loc 10 193 0
	cmpwi 7,28,0
	beq- 7,.L304
	.loc 10 194 0
	mr 3,28
.LVL609:
	bl _ZdaPv
.L304:
	.loc 10 197 0
	li 0,0
	.loc 10 199 0
	li 28,0
	.loc 10 197 0
	stw 0,1060(31)
	.loc 10 198 0
	stw 0,1048(31)
	.loc 10 199 0
	stw 0,1052(31)
	b .L301
.LVL610:
.L461:
.LBE1812:
.LBE1811:
.LBE1816:
.LBE1821:
.LBE1825:
.LBE1837:
.LBE1845:
.LBE2160:
.LBB2161:
.LBB1963:
.LBB1953:
.LBB1939:
.LBB1933:
.LBB1927:
.LBB1921:
.LBB1922:
	.loc 10 193 0
	cmpwi 7,24,0
	beq- 7,.L338
	.loc 10 194 0
	mr 3,24
.LVL611:
	bl _ZdaPv
.L338:
	.loc 10 197 0
	li 0,0
	.loc 10 199 0
	li 24,0
	.loc 10 197 0
	stw 0,1060(31)
	.loc 10 198 0
	stw 0,1048(31)
	.loc 10 199 0
	stw 0,1052(31)
	b .L335
.LVL612:
.L445:
.LBE1922:
.LBE1921:
.LBE1927:
.LBE1933:
.LBE1939:
.LBE1953:
.LBE1963:
.LBE2161:
.LBB2162:
.LBB2123:
.LBB2114:
.LBB2100:
.LBB2094:
.LBB2088:
.LBB2082:
.LBB2083:
	.loc 10 193 0
	cmpwi 7,28,0
	beq- 7,.L389
	.loc 10 194 0
	mr 3,28
.LVL613:
	bl _ZdaPv
.L389:
	.loc 10 197 0
	li 0,0
	.loc 10 199 0
	li 28,0
	.loc 10 197 0
	stw 0,1060(31)
	.loc 10 198 0
	stw 0,1048(31)
	.loc 10 199 0
	stw 0,1052(31)
	b .L386
.LVL614:
.L439:
.LBE2083:
.LBE2082:
.LBE2088:
.LBE2094:
.LBE2100:
.LBE2114:
.LBE2123:
.LBE2162:
.LBB2163:
.LBB1796:
.LBB1786:
.LBB1772:
.LBB1766:
.LBB1760:
.LBB1754:
.LBB1755:
	.loc 10 193 0
	cmpwi 7,26,0
	beq- 7,.L287
	.loc 10 194 0
	mr 3,26
.LVL615:
	bl _ZdaPv
.L287:
	.loc 10 197 0
	li 0,0
	.loc 10 199 0
	li 26,0
	.loc 10 197 0
	stw 0,1060(31)
	.loc 10 198 0
	stw 0,1048(31)
	.loc 10 199 0
	stw 0,1052(31)
	b .L284
.LVL616:
.L467:
.LBE1755:
.LBE1754:
.LBE1760:
.LBE1766:
.LBE1772:
.LBE1786:
.LBE1796:
.LBE2163:
.LBB2164:
.LBB1904:
.LBB1894:
.LBB1880:
.LBB1874:
.LBB1868:
.LBB1862:
.LBB1863:
	.loc 10 193 0
	cmpwi 7,28,0
	beq- 7,.L321
	.loc 10 194 0
	mr 3,28
.LVL617:
	bl _ZdaPv
.L321:
	.loc 10 197 0
	li 0,0
	.loc 10 199 0
	li 28,0
	.loc 10 197 0
	stw 0,1060(31)
	.loc 10 198 0
	stw 0,1048(31)
	.loc 10 199 0
	stw 0,1052(31)
	b .L318
.LVL618:
.L465:
.LBE1863:
.LBE1862:
.LBE1868:
.LBE1874:
.LBE1880:
.LBE1894:
.LBE1904:
.LBE2164:
.LBB2165:
.LBB1964:
.LBB1954:
.LBB1940:
.LBB1934:
.LBB1928:
	.loc 10 398 0
	lwz 0,1048(31)
	lwz 24,1060(31)
.LVL619:
	slwi 0,0,2
	add 24,24,0
	b .L335
.LVL620:
.L449:
.LBE1928:
.LBE1934:
.LBE1940:
.LBE1954:
.LBE1964:
.LBE2165:
.LBB2166:
.LBB2124:
.LBB2115:
.LBB2101:
.LBB2095:
.LBB2089:
	lwz 0,1048(31)
	lwz 28,1060(31)
.LVL621:
	slwi 0,0,2
	add 28,28,0
	b .L386
.LVL622:
.L454:
.LBE2089:
.LBE2095:
.LBE2101:
.LBE2115:
.LBE2124:
.LBE2166:
.LBB2167:
.LBB2068:
.LBB2059:
.LBB2046:
.LBB2041:
.LBB2036:
	lwz 0,1048(31)
	lwz 26,1060(31)
.LVL623:
	slwi 0,0,2
	add 26,26,0
	b .L369
.LVL624:
.L459:
.LBE2036:
.LBE2041:
.LBE2046:
.LBE2059:
.LBE2068:
.LBE2167:
.LBB2168:
.LBB2016:
.LBB2007:
.LBB1994:
.LBB1989:
.LBB1984:
	lwz 0,1048(31)
	lwz 25,1060(31)
.LVL625:
	slwi 0,0,2
	add 25,25,0
	b .L352
.LVL626:
.L471:
.LBE1984:
.LBE1989:
.LBE1994:
.LBE2007:
.LBE2016:
.LBE2168:
.LBB2169:
.LBB1905:
.LBB1895:
.LBB1881:
.LBB1875:
.LBB1869:
	lwz 0,1048(31)
	lwz 28,1060(31)
.LVL627:
	slwi 0,0,2
	add 28,28,0
	b .L318
.LVL628:
.L443:
.LBE1869:
.LBE1875:
.LBE1881:
.LBE1895:
.LBE1905:
.LBE2169:
.LBB2170:
.LBB1797:
.LBB1787:
.LBB1773:
.LBB1767:
.LBB1761:
	lwz 0,1048(31)
	lwz 26,1060(31)
.LVL629:
	slwi 0,0,2
	add 26,26,0
	b .L284
.LVL630:
.L477:
.LBE1761:
.LBE1767:
.LBE1773:
.LBE1787:
.LBE1797:
.LBE2170:
.LBB2171:
.LBB1846:
.LBB1838:
.LBB1826:
.LBB1822:
.LBB1817:
	lwz 0,1048(31)
	lwz 28,1060(31)
.LVL631:
	slwi 0,0,2
	add 28,28,0
	b .L301
.LVL632:
.L478:
.LBE1817:
.LBE1822:
.LBE1826:
.LBE1838:
.LBE1846:
.LBE2171:
.LBB2172:
.LBB2017:
.LBB2008:
.LBB2003:
.LBB2000:
.LBB2001:
	.loc 10 198 0
	stw 25,1048(31)
	.loc 10 199 0
	li 11,0
	stw 25,1052(31)
	li 0,0
	b .L347
.LVL633:
.L496:
.LBE2001:
.LBE2000:
.LBE2003:
.LBE2008:
.LBE2017:
.LBE2172:
.LBB2173:
.LBB1798:
.LBB1788:
.LBB1783:
.LBB1780:
.LBB1781:
	.loc 10 198 0
	stw 26,1048(31)
	.loc 10 199 0
	li 9,0
	stw 26,1052(31)
	li 11,0
	b .L279
.LVL634:
.L493:
.LBE1781:
.LBE1780:
.LBE1783:
.LBE1788:
.LBE1798:
.LBE2173:
.LBB2174:
.LBB2125:
.LBB2116:
.LBB2111:
.LBB2108:
.LBB2109:
	.loc 10 198 0
	stw 28,1048(31)
	.loc 10 199 0
	li 0,0
	stw 28,1052(31)
	li 11,0
	b .L381
.LVL635:
.L481:
.LBE2109:
.LBE2108:
.LBE2111:
.LBE2116:
.LBE2125:
.LBE2174:
.LBB2175:
.LBB1847:
.LBB1839:
.LBB1834:
.LBB1831:
.LBB1832:
	.loc 10 198 0
	stw 28,1048(31)
	.loc 10 199 0
	li 11,0
	stw 28,1052(31)
	li 9,0
	b .L296
.LVL636:
.L487:
.LBE1832:
.LBE1831:
.LBE1834:
.LBE1839:
.LBE1847:
.LBE2175:
.LBB2176:
.LBB1965:
.LBB1955:
.LBB1950:
.LBB1947:
.LBB1948:
	.loc 10 198 0
	stw 24,1048(31)
	.loc 10 199 0
	li 0,0
	stw 24,1052(31)
	li 11,0
	b .L330
.LVL637:
.L490:
.LBE1948:
.LBE1947:
.LBE1950:
.LBE1955:
.LBE1965:
.LBE2176:
.LBB2177:
.LBB2069:
.LBB2060:
.LBB2055:
.LBB2052:
.LBB2053:
	.loc 10 198 0
	stw 26,1048(31)
	.loc 10 199 0
	li 11,0
	stw 26,1052(31)
	li 0,0
	b .L364
.LVL638:
.L484:
.LBE2053:
.LBE2052:
.LBE2055:
.LBE2060:
.LBE2069:
.LBE2177:
.LBB2178:
.LBB1906:
.LBB1896:
.LBB1891:
.LBB1888:
.LBB1889:
	.loc 10 198 0
	stw 28,1048(31)
	.loc 10 199 0
	li 0,0
	stw 28,1052(31)
	li 11,0
	b .L313
.LVL639:
.L500:
.LBE1889:
.LBE1888:
.LBE1891:
.LBE1896:
.LBE1906:
.LBE2178:
.LBB2179:
.LBB1848:
.LBB1840:
.LBB1835:
	.loc 10 393 0
	lwz 9,1052(31)
	b .L294
.LVL640:
.L505:
.LBE1835:
.LBE1840:
.LBE1848:
.LBE2179:
.LBB2180:
.LBB1799:
.LBB1789:
.LBB1784:
	lwz 9,1052(31)
	b .L277
.LVL641:
.L501:
.LBE1784:
.LBE1789:
.LBE1799:
.LBE2180:
.LBB2181:
.LBB1907:
.LBB1897:
.LBB1892:
	lwz 9,1052(31)
	b .L311
.LVL642:
.L499:
.LBE1892:
.LBE1897:
.LBE1907:
.LBE2181:
.LBB2182:
.LBB2018:
.LBB2009:
.LBB2004:
	lwz 9,1052(31)
	b .L345
.LVL643:
.L502:
.LBE2004:
.LBE2009:
.LBE2018:
.LBE2182:
.LBB2183:
.LBB1966:
.LBB1956:
.LBB1951:
	lwz 9,1052(31)
	b .L328
.LVL644:
.L503:
.LBE1951:
.LBE1956:
.LBE1966:
.LBE2183:
.LBB2184:
.LBB2070:
.LBB2061:
.LBB2056:
	lwz 9,1052(31)
	b .L362
.LVL645:
.L504:
.LBE2056:
.LBE2061:
.LBE2070:
.LBE2184:
.LBB2185:
.LBB2126:
.LBB2117:
.LBB2112:
	lwz 9,1052(31)
	b .L379
.LVL646:
.L416:
.L437:
	mr 31,3
.LVL647:
.LBE2112:
.LBE2117:
.LBE2126:
.LBE2185:
	.loc 5 415 0
	mr 3,29
	bl _ZN8BSEntitydlEPv
	mr 3,31
	bl _Unwind_Resume
.LEHE23:
.LVL648:
.L420:
	b .L437
.LVL649:
.L421:
	b .L437
.LVL650:
.L422:
	b .L437
.LVL651:
.L419:
	b .L437
.LVL652:
.L418:
	b .L437
.LVL653:
.L417:
	b .L437
.LBE2193:
	.cfi_endproc
.LFE2881:
	.section	.gcc_except_table
.LLSDA2881:
	.byte	0xff
	.byte	0xff
	.byte	0x1
	.uleb128 .LLSDACSE2881-.LLSDACSB2881
.LLSDACSB2881:
	.uleb128 .LEHB9-.LFB2881
	.uleb128 .LEHE9-.LEHB9
	.uleb128 0
	.uleb128 0
	.uleb128 .LEHB10-.LFB2881
	.uleb128 .LEHE10-.LEHB10
	.uleb128 .L416-.LFB2881
	.uleb128 0
	.uleb128 .LEHB11-.LFB2881
	.uleb128 .LEHE11-.LEHB11
	.uleb128 0
	.uleb128 0
	.uleb128 .LEHB12-.LFB2881
	.uleb128 .LEHE12-.LEHB12
	.uleb128 .L417-.LFB2881
	.uleb128 0
	.uleb128 .LEHB13-.LFB2881
	.uleb128 .LEHE13-.LEHB13
	.uleb128 0
	.uleb128 0
	.uleb128 .LEHB14-.LFB2881
	.uleb128 .LEHE14-.LEHB14
	.uleb128 .L418-.LFB2881
	.uleb128 0
	.uleb128 .LEHB15-.LFB2881
	.uleb128 .LEHE15-.LEHB15
	.uleb128 0
	.uleb128 0
	.uleb128 .LEHB16-.LFB2881
	.uleb128 .LEHE16-.LEHB16
	.uleb128 .L419-.LFB2881
	.uleb128 0
	.uleb128 .LEHB17-.LFB2881
	.uleb128 .LEHE17-.LEHB17
	.uleb128 0
	.uleb128 0
	.uleb128 .LEHB18-.LFB2881
	.uleb128 .LEHE18-.LEHB18
	.uleb128 .L420-.LFB2881
	.uleb128 0
	.uleb128 .LEHB19-.LFB2881
	.uleb128 .LEHE19-.LEHB19
	.uleb128 0
	.uleb128 0
	.uleb128 .LEHB20-.LFB2881
	.uleb128 .LEHE20-.LEHB20
	.uleb128 .L421-.LFB2881
	.uleb128 0
	.uleb128 .LEHB21-.LFB2881
	.uleb128 .LEHE21-.LEHB21
	.uleb128 0
	.uleb128 0
	.uleb128 .LEHB22-.LFB2881
	.uleb128 .LEHE22-.LEHB22
	.uleb128 .L422-.LFB2881
	.uleb128 0
	.uleb128 .LEHB23-.LFB2881
	.uleb128 .LEHE23-.LEHB23
	.uleb128 0
	.uleb128 0
.LLSDACSE2881:
	.section	".text"
	.size	_ZN21idGameBearShootWindow10CommonInitEv, .-_ZN21idGameBearShootWindow10CommonInitEv
	.align 2
	.globl _ZN21idGameBearShootWindow12UpdateTurretEv
	.type	_ZN21idGameBearShootWindow12UpdateTurretEv, @function
_ZN21idGameBearShootWindow12UpdateTurretEv:
.LFB2888:
	.loc 5 579 0
	.cfi_startproc
.LVL654:
	mflr 0
	stwu 1,-32(1)
.LCFI92:
	.cfi_def_cfa_offset 32
	.cfi_register 65, 0
	stfd 31,24(1)
	stw 31,20(1)
	mr 31,3
	.cfi_offset 31, -12
	.cfi_offset 63, -8
	stw 0,36(1)
.LBB2208:
	.loc 5 585 0
	lwz 3,732(3)
.LVL655:
	lwz 9,0(3)
	lwz 0,124(9)
	.cfi_offset 65, 4
	mtctr 0
	bctrl
	.loc 5 586 0
	lwz 3,732(31)
	.loc 5 585 0
	fmr 31,1
	.loc 5 586 0
	lwz 9,0(3)
	lwz 0,128(9)
	mtctr 0
	bctrl
.LVL656:
.LBB2209:
.LBB2210:
	.loc 9 237 0
	lis 9,.LC47@ha
	lfs 0,.LC47@l(9)
	lis 9,.LC46@ha
	lfs 13,.LC46@l(9)
.LBE2210:
.LBE2209:
.LBB2213:
.LBB2214:
.LBB2215:
.LBB2216:
	.file 14 "d:/Data/Nintendo/DoomGX/src/ui/../idlib/../idlib/math/Math.h"
	.loc 14 246 0
	lis 9,.LC48@ha
.LBE2216:
.LBE2215:
.LBE2214:
.LBE2213:
.LBB2224:
.LBB2211:
	.loc 9 237 0
	fsubs 0,1,0
.LVL657:
	fsubs 13,31,13
.LVL658:
.LBE2211:
.LBE2224:
.LBB2225:
.LBB2221:
	.loc 9 183 0
	fmuls 12,0,0
.LBE2221:
.LBE2225:
.LBB2226:
.LBB2212:
	fmadds 12,13,13,12
	stfs 12,8(1)
.LVL659:
.LBE2212:
.LBE2226:
.LBB2227:
.LBB2222:
.LBB2219:
.LBB2217:
	.loc 14 246 0
	lfs 12,.LC48@l(9)
.LVL660:
	.loc 14 248 0
	lwz 9,8(1)
	.loc 14 246 0
	lfs 9,8(1)
	.loc 14 248 0
	srawi 0,9,1
	.loc 14 249 0
	lis 9,0x5f37
	ori 9,9,23007
	.loc 14 246 0
	fmuls 12,9,12
	.loc 14 249 0
	subf 9,0,9
	stw 9,8(1)
.LVL661:
.LBE2217:
.LBE2219:
.LBE2222:
.LBE2227:
.LBB2228:
.LBB2229:
	.loc 9 241 0
	lis 9,.LC1@ha
	lfs 31,.LC1@l(9)
.LBE2229:
.LBE2228:
.LBB2231:
.LBB2223:
.LBB2220:
.LBB2218:
	.loc 5 579 0
	fneg 12,12
	.loc 14 250 0
	lfs 9,8(1)
	lis 9,.LC49@ha
	lfs 11,.LC49@l(9)
	fmuls 10,9,9
	fmadds 12,12,10,11
	fmuls 12,9,12
.LVL662:
.LBE2218:
.LBE2220:
	.loc 9 186 0
	fmuls 0,0,12
.LVL663:
.LBE2223:
.LBE2231:
.LBB2232:
.LBB2230:
	.loc 9 241 0
	fmuls 1,0,31
.LBE2230:
.LBE2232:
	.loc 5 597 0
	fmadds 1,13,12,1
	bl acosf
.LVL664:
	lis 9,_ZN6idMath9M_RAD2DEGE@ha
	lfs 0,_ZN6idMath9M_RAD2DEGE@l(9)
	fmuls 0,1,0
.LVL665:
.LBB2233:
.LBB2234:
	.loc 14 894 0
	fcmpu 7,0,31
	blt- 7,.L509
	.loc 14 897 0
	lis 9,.LC45@ha
	lfs 13,.LC45@l(9)
	fcmpu 7,0,13
	bgt- 7,.L511
.LBE2234:
.LBE2233:
	.loc 5 599 0
	stfs 0,1032(31)
.LBE2208:
	.loc 5 600 0
	lwz 0,36(1)
	lwz 31,20(1)
.LVL666:
	mtlr 0
	lfd 31,24(1)
	addi 1,1,32
	.cfi_remember_state
.LCFI93:
	.cfi_def_cfa_offset 0
	.cfi_restore 63
	.cfi_restore 31
	blr
.LVL667:
.L511:
.LCFI94:
	.cfi_restore_state
.LBB2239:
.LBB2237:
.LBB2235:
	.loc 14 898 0
	fmr 0,13
.LVL668:
.LBE2235:
.LBE2237:
	.loc 5 599 0
	stfs 0,1032(31)
.LBE2239:
	.loc 5 600 0
	lwz 0,36(1)
	lwz 31,20(1)
.LVL669:
	mtlr 0
	lfd 31,24(1)
	addi 1,1,32
	.cfi_remember_state
	.cfi_restore 31
	.cfi_restore 63
.LCFI95:
	.cfi_def_cfa_offset 0
	blr
.LVL670:
.L509:
.LCFI96:
	.cfi_restore_state
.LBB2240:
.LBB2238:
.LBB2236:
	.loc 14 895 0
	fmr 0,31
.LVL671:
.LBE2236:
.LBE2238:
	.loc 5 599 0
	stfs 0,1032(31)
.LBE2240:
	.loc 5 600 0
	lwz 0,36(1)
	lwz 31,20(1)
.LVL672:
	mtlr 0
	lfd 31,24(1)
	addi 1,1,32
	.cfi_restore 31
	.cfi_restore 63
.LCFI97:
	.cfi_def_cfa_offset 0
	blr
	.cfi_endproc
.LFE2888:
	.size	_ZN21idGameBearShootWindow12UpdateTurretEv, .-_ZN21idGameBearShootWindow12UpdateTurretEv
	.align 2
	.globl _ZN21idGameBearShootWindow10UpdateBearEv
	.type	_ZN21idGameBearShootWindow10UpdateBearEv, @function
_ZN21idGameBearShootWindow10UpdateBearEv:
.LFB2889:
	.loc 5 607 0
	.cfi_startproc
.LVL673:
	mflr 0
	stwu 1,-56(1)
.LCFI98:
	.cfi_def_cfa_offset 56
	.cfi_register 65, 0
.LBB2271:
	.loc 5 612 0
	lis 10,.LC50@ha
.LBE2271:
	.loc 5 607 0
	stw 31,44(1)
	mr 31,3
	.cfi_offset 31, -12
	stw 0,60(1)
	stfd 31,48(1)
	stw 28,32(1)
	stw 29,36(1)
	stw 30,40(1)
.LBB2346:
	.loc 5 612 0
	lfs 0,.LC50@l(10)
	lwz 9,1068(3)
	lfs 12,996(3)
	lfs 13,88(9)
	.loc 5 921 0
	lwz 11,732(3)
	.loc 5 612 0
	fmadds 0,12,0,13
	.loc 5 921 0
	lwz 29,200(11)
	.cfi_offset 30, -16
	.cfi_offset 29, -20
	.cfi_offset 28, -24
	.cfi_offset 63, -8
	.cfi_offset 65, 4
.LVL674:
	.loc 5 612 0
	stfs 0,88(9)
	.loc 5 615 0
	lwz 9,1068(3)
	lfs 12,1040(3)
	lfs 0,996(3)
	lfs 13,84(9)
	fmadds 0,12,0,13
	stfs 0,84(9)
.LBB2272:
	.loc 5 618 0
	lbz 0,1017(3)
	cmpwi 7,0,0
	beq- 7,.L513
	lwz 9,1068(3)
	.loc 5 609 0
	li 28,0
	lis 30,.LC48@ha
	.loc 5 618 0
	lfs 13,72(9)
.LVL675:
.L514:
.LBE2272:
	.loc 5 650 0
	lis 11,.LC55@ha
	lfs 0,.LC55@l(11)
	lis 11,.LC49@ha
	fcmpu 7,13,0
	bng- 7,.L520
	.loc 5 651 0
	stfs 0,72(9)
.LBB2285:
.LBB2286:
.LBB2287:
.LBB2288:
.LBB2289:
.LBB2290:
	.loc 14 278 0
	lis 11,.LC49@ha
	.loc 14 275 0
	lfs 11,.LC48@l(30)
.LBE2290:
.LBE2289:
.LBE2288:
.LBE2287:
.LBE2286:
.LBE2285:
	.loc 5 653 0
	lwz 9,1068(31)
.LVL676:
.LBB2312:
.LBB2309:
.LBB2305:
.LBB2301:
.LBB2296:
.LBB2291:
	.loc 14 278 0
	lfs 10,.LC49@l(11)
.LBE2291:
.LBE2296:
.LBE2301:
.LBE2305:
	.loc 9 156 0
	lfs 12,88(9)
	lfs 0,84(9)
	fmuls 13,12,12
	fmadds 13,0,0,13
	stfs 13,24(1)
.LVL677:
.LBB2306:
.LBB2302:
.LBB2297:
.LBB2292:
	.loc 14 275 0
	fmuls 9,13,11
	.loc 14 270 0
	lwz 0,24(1)
.LVL678:
	.loc 5 607 0
	fneg 9,9
	.loc 14 276 0
	rlwinm 8,0,9,24,31
	rlwinm 10,0,19,21,29
	subfic 0,8,380
	lis 8,_ZN6idMath5iSqrtE@ha
	la 8,_ZN6idMath5iSqrtE@l(8)
	rlwinm 0,0,22,0,8
	lwzx 10,8,10
	or 0,0,10
.LBE2292:
.LBE2297:
.LBE2302:
.LBE2306:
.LBE2309:
.LBE2312:
	.loc 5 653 0
	lis 10,.LC57@ha
.LBB2313:
.LBB2310:
.LBB2307:
.LBB2303:
.LBB2298:
.LBB2293:
	.loc 14 277 0
	stw 0,28(1)
	lfs 0,28(1)
	fmr 13,0
.LVL679:
	.loc 14 278 0
	fmul 0,13,13
.LVL680:
	fmadd 0,9,0,10
	fmul 0,13,0
.LVL681:
	.loc 14 279 0
	fmul 13,0,0
	fmadd 10,9,13,10
.LVL682:
.LBE2293:
.LBE2298:
.LBE2303:
.LBE2307:
.LBE2310:
.LBE2313:
	.loc 5 653 0
	lfs 13,.LC57@l(10)
.LBB2314:
.LBB2311:
.LBB2308:
.LBB2304:
.LBB2299:
.LBB2294:
	.loc 14 279 0
	fmul 0,0,10
.LVL683:
.LBE2294:
.LBE2299:
	.loc 14 303 0
	lfs 10,24(1)
.LBB2300:
.LBB2295:
	.loc 14 280 0
	frsp 0,0
.LVL684:
.LBE2295:
.LBE2300:
	.loc 14 303 0
	fmuls 0,10,0
.LBE2304:
.LBE2308:
.LBE2311:
.LBE2314:
	.loc 5 653 0
	fcmpu 7,0,13
	bnl- 7,.L547
.LVL685:
.LBB2315:
.LBB2316:
	.loc 9 120 0
	li 0,0
	stw 0,88(9)
	stw 0,84(9)
	lwz 9,1068(31)
.LVL686:
.L520:
.LBE2316:
.LBE2315:
.LBB2317:
.LBB2318:
	.loc 5 671 0
	lfs 0,88(9)
	lfs 1,84(9)
.LVL687:
.LBE2318:
.LBE2317:
.LBB2322:
.LBB2323:
	.loc 9 183 0
	fmuls 13,0,0
.LBB2324:
.LBB2325:
	.loc 14 246 0
	lfs 2,.LC48@l(30)
.LBE2325:
.LBE2324:
.LBE2323:
.LBE2322:
.LBB2329:
.LBB2319:
	.loc 9 183 0
	fmadds 13,1,1,13
	stfs 13,24(1)
.LVL688:
.LBE2319:
.LBE2329:
.LBB2330:
.LBB2328:
.LBB2327:
.LBB2326:
	.loc 14 250 0
	lfs 13,.LC49@l(11)
.LVL689:
	.loc 14 248 0
	lwz 9,24(1)
.LVL690:
	.loc 14 246 0
	lfs 11,24(1)
	.loc 14 248 0
	srawi 0,9,1
	.loc 14 249 0
	lis 9,0x5f37
	ori 9,9,23007
	.loc 14 246 0
	fmuls 2,11,2
	.loc 14 249 0
	subf 9,0,9
	stw 9,24(1)
.LVL691:
	.loc 5 607 0
	fneg 2,2
	.loc 14 250 0
	lfs 10,24(1)
	fmuls 12,10,10
	fmadds 2,2,12,13
	fmuls 2,10,2
.LVL692:
.LBE2326:
.LBE2327:
	.loc 9 185 0
	fmuls 1,1,2
.LVL693:
	.loc 9 186 0
	fmuls 2,0,2
.LVL694:
.LBE2328:
.LBE2330:
	.loc 5 674 0
	bl atan2
.LVL695:
	lis 9,_ZN6idMath9M_RAD2DEGE@ha
	lfs 0,_ZN6idMath9M_RAD2DEGE@l(9)
	.loc 5 675 0
	lis 11,.LC45@ha
	lfs 13,.LC45@l(11)
	.loc 5 678 0
	lis 11,.LC58@ha
	.loc 5 674 0
	fmul 0,1,0
	.loc 5 675 0
	lwz 9,1068(31)
	.loc 5 674 0
	frsp 0,0
	.loc 5 675 0
	fsubs 0,0,13
	stfs 0,76(9)
	.loc 5 678 0
	lfs 0,.LC58@l(11)
	lwz 9,1068(31)
	lfs 13,68(9)
	fcmpu 7,13,0
	bng- 7,.L524
	.loc 5 679 0
	li 28,1
.LVL696:
.L524:
	.loc 5 682 0
	lbz 0,1024(31)
	cmpwi 7,0,0
	bne- 7,.L525
	.loc 5 682 0 is_stmt 0 discriminator 1
	lis 11,.LC1@ha
	lfs 13,1020(31)
	lfs 0,.LC1@l(11)
	fcmpu 7,13,0
	beq- 7,.L512
	.loc 5 682 0 discriminator 2
	cmpwi 7,28,0
	beq- 7,.L512
	.loc 5 684 0 is_stmt 1
	li 0,1
	.loc 5 683 0
	stw 29,1028(31)
	.loc 5 684 0
	stb 0,1024(31)
	.loc 5 688 0
	lbz 0,1017(31)
	cmpwi 7,0,0
	bne- 7,.L532
.L550:
	.loc 5 691 0
	lis 11,.LC60@ha
	lfs 13,.LC60@l(11)
	lis 11,.LC0@ha
	fdivs 0,0,13
	lfs 13,.LC0@l(11)
	fsubs 0,13,0
.L528:
	.loc 5 696 0
	lis 11,.LC1@ha
	lfs 31,.LC1@l(11)
	.loc 5 693 0
	lis 11,.LC34@ha
	lfs 13,.LC34@l(11)
	fmuls 0,0,13
	stfs 0,1020(31)
.LVL697:
.LBB2331:
.LBB2332:
	.loc 5 160 0
	stfs 0,40(9)
	.loc 5 161 0
	stfs 0,44(9)
.LBE2332:
.LBE2331:
	.loc 5 696 0
	lfs 0,1020(31)
.LVL698:
	fcmpu 7,0,31
	bnl+ 7,.L512
	.loc 5 697 0
	lwz 3,732(31)
	lis 4,.LC61@ha
	la 4,.LC61@l(4)
	.loc 5 698 0
	li 30,0
	.loc 5 697 0
	lwz 9,0(3)
	lwz 0,36(9)
	mtctr 0
	bctrl
.LVL699:
	.loc 5 701 0
	lbz 0,1017(31)
	.loc 5 698 0
	stb 30,1024(31)
	.loc 5 701 0
	cmpwi 7,0,0
	.loc 5 699 0
	stfs 31,1020(31)
	.loc 5 701 0
	bne- 7,.L549
.LVL700:
.L512:
.LBE2346:
	.loc 5 723 0
	lwz 0,60(1)
	lwz 28,32(1)
	mtlr 0
	lwz 29,36(1)
	lwz 30,40(1)
	lwz 31,44(1)
.LVL701:
	lfd 31,48(1)
	addi 1,1,56
	.cfi_remember_state
.LCFI99:
	.cfi_def_cfa_offset 0
	.cfi_restore 63
	.cfi_restore 31
	.cfi_restore 30
	.cfi_restore 29
	.cfi_restore 28
	blr
.LVL702:
.L525:
.LCFI100:
	.cfi_restore_state
.LBB2347:
.LBB2333:
.LBB2273:
	.loc 5 639 0
	lwz 0,1028(31)
	lis 11,.LC63@ha
	lfs 0,.LC63@l(11)
	subf 29,0,29
	lis 0,0x4330
	xoris 29,29,0x8000
	stw 0,16(1)
	stw 29,20(1)
.LBE2273:
.LBE2333:
	.loc 5 688 0
	lbz 0,1017(31)
.LBB2334:
.LBB2280:
	.loc 5 639 0
	lfd 13,16(1)
.LBE2280:
.LBE2334:
	.loc 5 688 0
	cmpwi 7,0,0
.LBB2335:
.LBB2281:
	.loc 5 639 0
	fsub 0,13,0
	frsp 0,0
.LBE2281:
.LBE2335:
	.loc 5 688 0
	beq- 7,.L550
.L532:
	.loc 5 689 0
	lis 11,.LC59@ha
	lfs 13,.LC59@l(11)
	lis 11,.LC0@ha
	fdivs 0,0,13
	lfs 13,.LC0@l(11)
	fsubs 0,13,0
	b .L528
.LVL703:
.L513:
.LBB2336:
	.loc 5 618 0 discriminator 1
	lbz 28,1004(3)
.LBB2282:
	.loc 5 622 0 discriminator 1
	lwz 9,1068(3)
.LBE2282:
	.loc 5 618 0 discriminator 1
	cmpwi 7,28,0
	bne- 7,.L551
.LVL704:
.LBB2283:
	.loc 5 625 0
	lwz 3,1072(3)
	.loc 5 622 0
	lis 30,.LC48@ha
	.loc 5 625 0
	lis 11,.LC31@ha
	.loc 5 622 0
	lfs 13,40(9)
	lfs 11,.LC48@l(30)
	lfs 0,68(9)
	.loc 5 625 0
	lfs 12,68(3)
	lfs 10,.LC31@l(11)
	.loc 5 622 0
	fmadds 0,13,11,0
.LVL705:
	.loc 5 623 0
	lfs 9,44(9)
	.loc 5 625 0
	fadds 10,12,10
	.loc 5 623 0
	lfs 13,72(9)
.LVL706:
	.loc 5 625 0
	fcmpu 7,0,10
	bng- 7,.L546
	.loc 5 625 0 is_stmt 0 discriminator 1
	lfs 10,40(3)
	lis 11,.LC51@ha
	fadds 12,12,10
	lfs 10,.LC51@l(11)
	fsubs 12,12,10
	fcmpu 7,0,12
	bnl- 7,.L546
	.loc 5 626 0 is_stmt 1
	lis 11,.LC52@ha
	lfs 0,72(3)
.LVL707:
	lfs 12,.LC52@l(11)
	.loc 5 623 0
	fmadds 11,9,11,13
	.loc 5 626 0
	fadds 12,0,12
	fcmpu 7,11,12
	bng- 7,.L546
	.loc 5 626 0 is_stmt 0 discriminator 1
	lfs 12,44(3)
	lis 11,.LC53@ha
	fadds 0,0,12
	lfs 12,.LC53@l(11)
	fsubs 0,0,12
	fcmpu 7,11,0
	bnl- 7,.L546
.LVL708:
	.loc 5 633 0 is_stmt 1
	lis 4,.LC21@ha
	la 4,.LC21@l(4)
	bl _ZN8BSEntity11SetMaterialEPKc
.LVL709:
	.loc 5 634 0
	lis 11,.LC64@ha
	lwz 0,.LC64@l(11)
	.loc 5 636 0
	lis 4,.LC65@ha
	.loc 5 634 0
	lwz 9,1072(31)
	.loc 5 636 0
	la 4,.LC65@l(4)
	li 5,-1
	.loc 5 634 0
	stw 0,88(9)
	.loc 5 636 0
	lis 9,session@ha
	lwz 9,session@l(9)
	.loc 5 635 0
	lwz 11,1076(31)
	stw 0,88(11)
	.loc 5 636 0
	lwz 3,8(9)
	lwz 9,0(3)
	lwz 0,36(9)
	mtctr 0
	bctrl
	.loc 5 638 0
	lwz 9,1068(31)
.LVL710:
	.loc 5 639 0
	lis 11,.LC1@ha
.LBB2274:
.LBB2275:
	.loc 5 170 0
	stb 28,48(9)
.LBE2275:
.LBE2274:
	.loc 5 639 0
	lfs 0,.LC1@l(11)
	lwz 9,1068(31)
	lfs 13,84(9)
	fcmpu 7,13,0
	bng- 7,.L531
	.loc 5 640 0
	fneg 13,13
	stfs 13,84(9)
	lwz 9,1068(31)
	lfs 13,84(9)
.L531:
.LVL711:
.LBB2276:
.LBB2277:
	.loc 9 291 0
	lis 11,.LC54@ha
	.loc 9 292 0
	lfs 12,88(9)
	.loc 9 291 0
	lfs 0,.LC54@l(11)
.LBE2277:
.LBE2276:
	.loc 5 643 0
	li 0,1
	.loc 5 645 0
	li 28,1
.LBB2279:
.LBB2278:
	.loc 9 291 0
	fmuls 13,13,0
	.loc 9 292 0
	fmuls 0,12,0
	.loc 9 291 0
	stfs 13,84(9)
	.loc 9 292 0
	stfs 0,88(9)
.LBE2278:
.LBE2279:
	.loc 5 643 0
	stb 0,1017(31)
	.loc 5 644 0
	stb 0,1016(31)
.LVL712:
	lwz 9,1068(31)
.LVL713:
	lfs 13,72(9)
	b .L514
.LVL714:
.L547:
.LBE2283:
.LBE2336:
	.loc 5 658 0
	fneg 12,12
.LBB2337:
.LBB2320:
	.loc 5 656 0
	li 28,1
.LBE2320:
.LBE2337:
	.loc 5 658 0
	stfs 12,88(9)
	.loc 5 659 0
	lwz 9,1068(31)
.LVL715:
.LBB2338:
.LBB2321:
	.loc 9 291 0
	lfs 0,84(9)
	.loc 9 292 0
	lfs 13,88(9)
	.loc 9 291 0
	fmuls 0,0,11
	.loc 9 292 0
	fmuls 11,13,11
	.loc 9 291 0
	stfs 0,84(9)
	.loc 9 292 0
	stfs 11,88(9)
	lwz 9,1068(31)
	b .L520
.LVL716:
.L551:
.LBE2321:
.LBE2338:
.LBB2339:
	.loc 5 609 0
	li 28,0
	.loc 5 618 0
	lfs 13,72(9)
	lis 30,.LC48@ha
	b .L514
.LVL717:
.L546:
.LBB2284:
	.loc 5 609 0
	li 28,0
	b .L514
.LVL718:
.L549:
.LBE2284:
.LBE2339:
	.loc 5 702 0
	lwz 3,1076(31)
	lis 4,.LC39@ha
	la 4,.LC39@l(4)
	.loc 5 708 0
	li 29,1
	.loc 5 702 0
	bl _ZN8BSEntity11SetMaterialEPKc
	.loc 5 703 0
	lis 11,.LC37@ha
	lwz 9,1076(31)
	.loc 5 712 0
	lis 4,.LC35@ha
	.loc 5 703 0
	lwz 28,.LC37@l(11)
.LVL719:
	.loc 5 704 0
	lis 11,.LC40@ha
	lwz 0,.LC40@l(11)
	.loc 5 712 0
	la 4,.LC35@l(4)
	.loc 5 703 0
	stw 28,68(9)
	.loc 5 704 0
	lwz 9,1076(31)
	stw 0,72(9)
	.loc 5 706 0
	lis 0,0x4330
	.loc 5 705 0
	lwz 9,1076(31)
.LVL720:
.LBB2340:
.LBB2341:
	.loc 9 120 0
	stfs 31,88(9)
	stfs 31,84(9)
.LBE2341:
.LBE2340:
	.loc 5 706 0
	stw 0,8(1)
	lwz 11,1008(31)
	lwz 9,1076(31)
	addi 0,11,-1
	lis 11,.LC63@ha
	mulli 0,0,30
	lfs 0,.LC63@l(11)
	xoris 0,0,0x8000
	stw 0,12(1)
	lfd 13,8(1)
	fsub 0,13,0
	frsp 0,0
	stfs 0,88(9)
	.loc 5 707 0
	lwz 9,1076(31)
	stfs 31,64(9)
	.loc 5 708 0
	lwz 9,1076(31)
	stb 29,92(9)
	.loc 5 709 0
	lwz 9,1076(31)
	stb 30,93(9)
	.loc 5 711 0
	lwz 9,1072(31)
.LVL721:
.LBB2342:
.LBB2343:
	.loc 5 170 0
	stb 29,48(9)
.LBE2343:
.LBE2342:
	.loc 5 712 0
	lwz 3,1072(31)
	bl _ZN8BSEntity11SetMaterialEPKc
.LVL722:
	.loc 5 713 0
	lwz 9,1072(31)
	.loc 5 714 0
	lis 11,.LC38@ha
	.loc 5 713 0
	stw 28,68(9)
	.loc 5 714 0
	lwz 0,.LC38@l(11)
	lwz 9,1072(31)
	stw 0,72(9)
	.loc 5 715 0
	lwz 9,1072(31)
.LVL723:
.LBB2344:
.LBB2345:
	.loc 9 120 0
	stfs 31,88(9)
	stfs 31,84(9)
.LBE2345:
.LBE2344:
	.loc 5 716 0
	lwz 11,1076(31)
	lwz 9,1072(31)
	lwz 0,88(11)
	stw 0,88(9)
	.loc 5 717 0
	lwz 9,1072(31)
	stfs 31,64(9)
	.loc 5 718 0
	lwz 9,1072(31)
	stb 29,92(9)
	.loc 5 719 0
	lwz 9,1072(31)
	stb 30,93(9)
	b .L512
.LBE2347:
	.cfi_endproc
.LFE2889:
	.size	_ZN21idGameBearShootWindow10UpdateBearEv, .-_ZN21idGameBearShootWindow10UpdateBearEv
	.align 2
	.globl _ZN21idGameBearShootWindow16UpdateHelicopterEv
	.type	_ZN21idGameBearShootWindow16UpdateHelicopterEv, @function
_ZN21idGameBearShootWindow16UpdateHelicopterEv:
.LFB2890:
	.loc 5 730 0
	.cfi_startproc
.LVL724:
	mflr 0
	stwu 1,-32(1)
.LCFI101:
	.cfi_def_cfa_offset 32
	.cfi_register 65, 0
	stw 31,28(1)
	mr 31,3
	.cfi_offset 31, -4
	stw 0,36(1)
.LBB2348:
	.loc 5 732 0
	lbz 0,1017(3)
	.cfi_offset 65, 4
	cmpwi 7,0,0
	beq- 7,.L553
	.loc 5 732 0 is_stmt 0 discriminator 1
	lbz 0,1024(3)
	cmpwi 7,0,0
	bne- 7,.L558
.L553:
.LBB2349:
	.loc 5 744 0 is_stmt 1
	lwz 9,1008(31)
	cmpwi 7,9,1
	ble- 7,.L552
.LBB2350:
	.loc 5 745 0
	lwz 11,1072(31)
	.loc 5 746 0
	addi 9,9,-1
	mulli 9,9,30
	.loc 5 745 0
	addi 10,1,16
	lfs 0,72(11)
	.loc 5 746 0
	lis 0,0x4330
	xoris 9,9,0x8000
	.loc 5 745 0
	fctiwz 0,0
	stfiwx 0,0,10
	.loc 5 746 0
	stw 9,12(1)
	lis 9,.LC63@ha
	stw 0,8(1)
	.loc 5 745 0
	lwz 0,16(1)
.LVL725:
	.loc 5 746 0
	lfd 13,8(1)
	lfs 0,.LC63@l(9)
	.loc 5 748 0
	cmpwi 7,0,240
	.loc 5 746 0
	fsub 0,13,0
	frsp 0,0
.LVL726:
	.loc 5 748 0
	bgt- 7,.L559
	.loc 5 751 0
	cmpwi 7,0,29
	bgt- 7,.L552
	.loc 5 752 0
	stfs 0,88(11)
	.loc 5 753 0
	lwz 9,1076(31)
	stfs 0,88(9)
.LVL727:
.L552:
.LBE2350:
.LBE2349:
.LBE2348:
	.loc 5 756 0
	lwz 0,36(1)
	lwz 31,28(1)
.LVL728:
	mtlr 0
	addi 1,1,32
	.cfi_remember_state
.LCFI102:
	.cfi_def_cfa_offset 0
	.cfi_restore 31
	blr
.LVL729:
.L558:
.LCFI103:
	.cfi_restore_state
.LBB2357:
	.loc 5 733 0
	lwz 9,1072(3)
	lis 10,.LC1@ha
	lfs 0,.LC1@l(10)
	lfs 13,88(9)
	fcmpu 7,13,0
	beq- 7,.L552
	.loc 5 733 0 is_stmt 0 discriminator 1
	lis 11,.LC66@ha
	lfs 12,72(9)
	lfs 13,.LC66@l(11)
	fcmpu 7,12,13
	bng+ 7,.L552
	.loc 5 734 0 is_stmt 1
	stfs 0,88(9)
.LBB2352:
.LBB2353:
	.loc 5 170 0
	li 0,0
.LBE2353:
.LBE2352:
	.loc 5 738 0
	lis 4,.LC22@ha
	.loc 5 735 0
	lwz 9,1076(3)
	.loc 5 738 0
	la 4,.LC22@l(4)
	.loc 5 735 0
	stfs 0,88(9)
	.loc 5 737 0
	lwz 9,1072(3)
.LVL730:
.LBB2355:
.LBB2354:
	.loc 5 170 0
	stb 0,48(9)
.LBE2354:
.LBE2355:
	.loc 5 738 0
	lwz 3,1076(3)
.LVL731:
	bl _ZN8BSEntity11SetMaterialEPKc
.LVL732:
	.loc 5 739 0
	lis 9,session@ha
	lwz 9,session@l(9)
	lis 4,.LC67@ha
	la 4,.LC67@l(4)
	li 5,1
	lwz 3,8(9)
	lwz 9,0(3)
	lwz 0,36(9)
	mtctr 0
	bctrl
	.loc 5 741 0
	lwz 9,1072(31)
	li 0,1
	stb 0,93(9)
	.loc 5 742 0
	lwz 9,1076(31)
	stb 0,93(9)
	b .L552
.LVL733:
.L559:
.LBB2356:
.LBB2351:
	.loc 5 749 0
	fneg 0,0
.LVL734:
	stfs 0,88(11)
	.loc 5 750 0
	lwz 9,1076(31)
	stfs 0,88(9)
.LBE2351:
.LBE2356:
.LBE2357:
	.loc 5 756 0
	lwz 0,36(1)
.LVL735:
	lwz 31,28(1)
.LVL736:
	mtlr 0
	addi 1,1,32
	.cfi_restore 31
.LCFI104:
	.cfi_def_cfa_offset 0
	blr
	.cfi_endproc
.LFE2890:
	.size	_ZN21idGameBearShootWindow16UpdateHelicopterEv, .-_ZN21idGameBearShootWindow16UpdateHelicopterEv
	.align 2
	.globl _ZN21idGameBearShootWindow13UpdateButtonsEv
	.type	_ZN21idGameBearShootWindow13UpdateButtonsEv, @function
_ZN21idGameBearShootWindow13UpdateButtonsEv:
.LFB2891:
	.loc 5 763 0
	.cfi_startproc
.LVL737:
	mflr 0
	stwu 1,-48(1)
.LCFI105:
	.cfi_def_cfa_offset 48
	.cfi_register 65, 0
	stw 31,20(1)
	mr 31,3
	.cfi_offset 31, -28
	stw 0,52(1)
	stfd 29,24(1)
	stfd 30,32(1)
	stfd 31,40(1)
	stw 29,12(1)
	stw 30,16(1)
.LBB2386:
	.loc 5 765 0
	lbz 0,961(3)
	.cfi_offset 30, -32
	.cfi_offset 29, -36
	.cfi_offset 63, -8
	.cfi_offset 62, -16
	.cfi_offset 61, -24
	.cfi_offset 65, 4
	cmpwi 7,0,0
	bne- 7,.L567
.LVL738:
.L560:
.LBE2386:
	.loc 5 797 0
	lwz 0,52(1)
	lwz 29,12(1)
	mtlr 0
	lwz 30,16(1)
	lwz 31,20(1)
.LVL739:
	lfd 29,24(1)
	lfd 30,32(1)
	lfd 31,40(1)
	addi 1,1,48
	.cfi_remember_state
.LCFI106:
	.cfi_def_cfa_offset 0
	.cfi_restore 63
	.cfi_restore 62
	.cfi_restore 61
	.cfi_restore 31
	.cfi_restore 30
	.cfi_restore 29
	blr
.LVL740:
.L567:
.LCFI107:
	.cfi_restore_state
.LBB2428:
.LBB2387:
	.loc 5 768 0
	lwz 3,732(3)
.LVL741:
	lis 4,.LC68@ha
	la 4,.LC68@l(4)
.LBB2388:
.LBB2389:
	.loc 5 170 0
	li 30,1
.LBE2389:
.LBE2388:
	.loc 5 768 0
	lwz 9,0(3)
	lwz 0,36(9)
	mtctr 0
	bctrl
	.loc 5 769 0
	lis 9,session@ha
	lwz 9,session@l(9)
	lis 4,.LC69@ha
	la 4,.LC69@l(4)
	li 5,-1
	lwz 3,8(9)
	lwz 9,0(3)
	lwz 0,36(9)
	mtctr 0
	bctrl
	.loc 5 771 0
	lwz 9,1068(31)
.LVL742:
	.loc 5 772 0
	lis 11,.LC0@ha
.LBB2391:
.LBB2390:
	.loc 5 170 0
	stb 30,48(9)
.LBE2390:
.LBE2391:
	.loc 5 772 0
	lfs 31,.LC0@l(11)
.LBB2392:
.LBB2393:
	.loc 5 160 0
	lis 11,.LC34@ha
.LBE2393:
.LBE2392:
	.loc 5 773 0
	lwz 9,1068(31)
.LVL743:
.LBB2396:
.LBB2394:
	.loc 5 160 0
	lwz 0,.LC34@l(11)
.LBE2394:
.LBE2396:
	.loc 5 772 0
	stfs 31,1020(31)
.LBB2397:
.LBB2395:
	.loc 5 160 0
	stw 0,40(9)
	.loc 5 161 0
	stw 0,44(9)
.LBE2395:
.LBE2397:
	.loc 5 775 0
	lis 9,_ZN6idMath9M_DEG2RADE@ha
	lfs 0,_ZN6idMath9M_DEG2RADE@l(9)
	lfs 29,1032(31)
	fmuls 29,29,0
.LVL744:
.LBB2398:
.LBB2399:
	.loc 14 347 0
	fmr 1,29
	bl cosf
.LVL745:
	.loc 5 776 0
	lis 9,.LC70@ha
.LBE2399:
.LBE2398:
	fsubs 30,31,1
.LBB2401:
.LBB2400:
	lfs 0,.LC70@l(9)
	fmadds 30,30,0,1
.LVL746:
.LBE2400:
.LBE2401:
.LBB2402:
.LBB2403:
	.loc 14 311 0
	fmr 1,29
	bl sinf
.LBE2403:
.LBE2402:
	.loc 5 781 0
	lis 9,.LC71@ha
	lis 11,.LC46@ha
	lfs 0,.LC71@l(9)
	lfs 13,.LC46@l(11)
.LBB2404:
.LBB2405:
	.loc 5 779 0
	lis 9,.LANCHOR0+100@ha
	.loc 2 144 0
	lwz 9,.LANCHOR0+100@l(9)
.LBE2405:
.LBE2404:
	.loc 5 777 0
	fneg 1,1
.LVL747:
	.loc 5 781 0
	fmadds 13,30,0,13
	.loc 5 786 0
	lis 11,.LC73@ha
.LBB2407:
.LBB2406:
	.loc 2 144 0
	lwz 0,40(9)
.LBE2406:
.LBE2407:
	.loc 5 781 0
	lwz 9,1068(31)
	.loc 5 779 0
	stw 0,1036(31)
	.loc 5 793 0
	li 0,0
	.loc 5 781 0
	stfs 13,68(9)
	.loc 5 782 0
	lis 9,.LC72@ha
	lfs 13,.LC72@l(9)
	lwz 9,1068(31)
	fmadds 13,1,0,13
	.loc 5 786 0
	lfs 12,.LC73@l(11)
	fmadds 0,30,0,12
	.loc 5 782 0
	stfs 13,72(9)
	.loc 5 783 0
	lfs 13,1036(31)
	lwz 9,1068(31)
	fmuls 13,30,13
	stfs 13,84(9)
	.loc 5 784 0
	lfs 13,1036(31)
	lwz 9,1068(31)
	fmuls 13,1,13
	stfs 13,88(9)
	.loc 5 787 0
	lis 9,.LC74@ha
	lfs 13,.LC74@l(9)
	lis 9,.LC38@ha
	lfs 12,.LC38@l(9)
	.loc 5 786 0
	lwz 9,1084(31)
	.loc 5 787 0
	fmadds 1,1,12,13
.LVL748:
	.loc 5 786 0
	stfs 0,68(9)
	.loc 5 787 0
	lwz 9,1084(31)
	stfs 1,72(9)
	.loc 5 788 0
	lwz 9,1084(31)
.LVL749:
.LBB2408:
.LBB2409:
	.loc 5 170 0
	stb 30,48(9)
.LBE2409:
.LBE2408:
	.loc 5 789 0
	lwz 9,1084(31)
	stfs 31,64(9)
	.loc 5 790 0
	lwz 9,1084(31)
	lwz 11,1032(31)
	stw 11,76(9)
	.loc 5 791 0
	lwz 9,1084(31)
	stb 30,93(9)
	.loc 5 793 0
	stb 0,1017(31)
.LVL750:
.LBB2410:
.LBB2411:
	.loc 3 115 0
	lwz 29,952(31)
	.loc 3 114 0
	stb 0,961(31)
	.loc 3 115 0
	cmpwi 7,29,0
	beq- 7,.L560
.LBE2411:
	.loc 5 921 0
	lwz 30,956(31)
.LBB2424:
.LBB2412:
.LBB2413:
	.loc 3 53 0
	cmpwi 7,30,0
	beq- 7,.L564
	.loc 3 54 0
	lbz 0,0(30)
	li 4,0
	cmpwi 7,0,42
	beq- 7,.L568
.LVL751:
.L562:
.LBE2413:
.LBE2412:
.LBB2421:
.LBB2422:
	.loc 11 197 0
	lis 3,.LC3@ha
	la 3,.LC3@l(3)
	crxor 6,6,6
	bl _Z2vaPKcz
	mr 4,30
	mr 5,3
	mr 3,29
	bl _ZN6idDict3SetEPKcS1_
.LBE2422:
.LBE2421:
.LBE2424:
.LBE2410:
.LBE2387:
.LBE2428:
	.loc 5 797 0
	lwz 0,52(1)
	lwz 29,12(1)
.LVL752:
	mtlr 0
	lwz 30,16(1)
	lwz 31,20(1)
.LVL753:
	lfd 29,24(1)
.LVL754:
	lfd 30,32(1)
.LVL755:
	lfd 31,40(1)
	addi 1,1,48
	.cfi_remember_state
	.cfi_restore 29
	.cfi_restore 30
	.cfi_restore 31
	.cfi_restore 61
	.cfi_restore 62
	.cfi_restore 63
.LCFI108:
	.cfi_def_cfa_offset 0
	blr
.LVL756:
.L564:
.LCFI109:
	.cfi_restore_state
.LBB2429:
.LBB2427:
.LBB2426:
.LBB2425:
.LBB2423:
.LBB2420:
	.loc 3 59 0
	lis 30,.LC2@ha
	.loc 3 53 0
	li 4,0
	.loc 3 59 0
	la 30,.LC2@l(30)
	b .L562
.L568:
.LVL757:
.LBB2414:
.LBB2415:
.LBB2416:
.LBB2417:
	.loc 11 241 0
	mr 3,29
	addi 4,30,1
	bl _ZNK6idDict7FindKeyEPKc
.LVL758:
	.loc 11 242 0
	cmpwi 0,3,0
	beq- 0,.L566
.LVL759:
.LBB2418:
	.loc 5 921 0
	lwz 9,4(3)
	lbz 4,961(31)
	lwz 30,4(9)
.LVL760:
	b .L562
.LVL761:
.L566:
.LBE2418:
	.loc 11 245 0
	lis 30,.LC2@ha
.LVL762:
.LBB2419:
	.loc 5 921 0
	lbz 4,961(31)
.LBE2419:
	.loc 11 245 0
	la 30,.LC2@l(30)
	b .L562
.LBE2417:
.LBE2416:
.LBE2415:
.LBE2414:
.LBE2420:
.LBE2423:
.LBE2425:
.LBE2426:
.LBE2427:
.LBE2429:
	.cfi_endproc
.LFE2891:
	.size	_ZN21idGameBearShootWindow13UpdateButtonsEv, .-_ZN21idGameBearShootWindow13UpdateButtonsEv
	.align 2
	.globl _ZN21idGameBearShootWindow11UpdateScoreEv
	.type	_ZN21idGameBearShootWindow11UpdateScoreEv, @function
_ZN21idGameBearShootWindow11UpdateScoreEv:
.LFB2892:
	.loc 5 804 0
	.cfi_startproc
.LVL763:
	mflr 0
	stwu 1,-24(1)
.LCFI110:
	.cfi_def_cfa_offset 24
	.cfi_register 65, 0
	stw 31,20(1)
	mr 31,3
	.cfi_offset 31, -4
	stw 0,28(1)
	stw 28,8(1)
	stw 29,12(1)
	stw 30,16(1)
	.loc 5 806 0
	lbz 0,1004(3)
	.cfi_offset 30, -8
	.cfi_offset 29, -12
	.cfi_offset 28, -16
	.cfi_offset 65, 4
	cmpwi 7,0,0
	bne- 7,.L572
	.loc 5 811 0
	lwz 4,1012(3)
	.loc 5 812 0
	lis 30,.LC3@ha
	lwz 28,732(3)
	la 30,.LC3@l(30)
	.loc 5 811 0
	addi 4,4,1
	stw 4,1012(3)
	.loc 5 812 0
	mr 3,30
.LVL764:
	lwz 9,0(28)
	lwz 29,56(9)
	crxor 6,6,6
	bl _Z2vaPKcz
	lis 4,.LC76@ha
	mr 5,3
	la 4,.LC76@l(4)
	mr 3,28
	mtctr 29
	bctrl
	.loc 5 815 0
	lwz 0,1012(31)
	lis 9,0x6666
	ori 9,9,26215
	srawi 11,0,31
	mulhw 9,0,9
	srawi 9,9,1
	subf 9,11,9
	mulli 9,9,5
	cmpw 7,0,9
	beq- 7,.L573
	.loc 5 822 0
	lwz 0,28(1)
	lwz 28,8(1)
	mtlr 0
	lwz 29,12(1)
	lwz 30,16(1)
	lwz 31,20(1)
.LVL765:
	addi 1,1,24
	.cfi_remember_state
.LCFI111:
	.cfi_def_cfa_offset 0
	.cfi_restore 31
	.cfi_restore 30
	.cfi_restore 29
	.cfi_restore 28
	blr
.LVL766:
.L573:
.LCFI112:
	.cfi_restore_state
	.loc 5 816 0
	lwz 4,1008(31)
	.loc 5 817 0
	mr 3,30
	lwz 29,732(31)
	.loc 5 816 0
	addi 4,4,1
	stw 4,1008(31)
	.loc 5 817 0
	lwz 9,0(29)
	lwz 30,56(9)
	crxor 6,6,6
	bl _Z2vaPKcz
	lis 4,.LC77@ha
	mr 5,3
	mtctr 30
	mr 3,29
	la 4,.LC77@l(4)
	bctrl
	.loc 5 818 0
	lis 9,session@ha
	lwz 9,session@l(9)
	lis 4,.LC78@ha
	la 4,.LC78@l(4)
	li 5,3
	lwz 3,8(9)
	lwz 9,0(3)
	lwz 0,36(9)
	mtctr 0
	bctrl
	.loc 5 820 0
	lis 9,.LC79@ha
	lfs 13,1000(31)
	lfs 0,.LC79@l(9)
	fadds 0,13,0
	stfs 0,1000(31)
	.loc 5 822 0
	lwz 0,28(1)
	lwz 28,8(1)
	mtlr 0
	lwz 29,12(1)
	lwz 30,16(1)
	lwz 31,20(1)
.LVL767:
	addi 1,1,24
	.cfi_remember_state
	.cfi_restore 28
	.cfi_restore 29
	.cfi_restore 30
	.cfi_restore 31
.LCFI113:
	.cfi_def_cfa_offset 0
	blr
.LVL768:
.L572:
.LCFI114:
	.cfi_restore_state
	.loc 5 807 0
	lwz 3,732(3)
.LVL769:
	lis 4,.LC75@ha
	la 4,.LC75@l(4)
	lwz 9,0(3)
	lwz 0,36(9)
	mtctr 0
	bctrl
	.loc 5 822 0
	lwz 0,28(1)
	lwz 28,8(1)
	mtlr 0
	lwz 29,12(1)
	lwz 30,16(1)
	lwz 31,20(1)
.LVL770:
	addi 1,1,24
	.cfi_restore 28
	.cfi_restore 29
	.cfi_restore 30
	.cfi_restore 31
.LCFI115:
	.cfi_def_cfa_offset 0
	blr
	.cfi_endproc
.LFE2892:
	.size	_ZN21idGameBearShootWindow11UpdateScoreEv, .-_ZN21idGameBearShootWindow11UpdateScoreEv
	.align 2
	.globl _ZN21idGameBearShootWindow10UpdateGameEv
	.type	_ZN21idGameBearShootWindow10UpdateGameEv, @function
_ZN21idGameBearShootWindow10UpdateGameEv:
.LFB2893:
	.loc 5 829 0
	.cfi_startproc
.LVL771:
	mflr 0
	stwu 1,-56(1)
.LCFI116:
	.cfi_def_cfa_offset 56
	.cfi_register 65, 0
	stw 31,52(1)
	mr 31,3
	.cfi_offset 31, -4
	stw 0,60(1)
	stw 29,44(1)
	stw 30,48(1)
.LBB2489:
	.loc 5 832 0
	lbz 0,993(3)
	.cfi_offset 30, -8
	.cfi_offset 29, -12
	.cfi_offset 65, 4
	cmpwi 7,0,0
	bne- 7,.L614
.LVL772:
.L575:
	.loc 5 848 0
	lbz 0,977(31)
	cmpwi 7,0,0
	bne- 7,.L615
.L578:
.LBB2490:
	.loc 5 855 0
	lbz 0,945(31)
	cmpwi 7,0,0
	bne- 7,.L616
.LBE2490:
.LBE2489:
	.loc 5 921 0
	lwz 0,60(1)
	lwz 29,44(1)
	mtlr 0
	lwz 30,48(1)
	lwz 31,52(1)
.LVL773:
	addi 1,1,56
	.cfi_remember_state
.LCFI117:
	.cfi_def_cfa_offset 0
	.cfi_restore 31
	.cfi_restore 30
	.cfi_restore 29
	blr
.LVL774:
.L616:
.LCFI118:
	.cfi_restore_state
.LBB2654:
.LBB2567:
	lwz 9,732(31)
.LBB2491:
	.loc 5 860 0
	mr 3,31
.LBE2491:
	.loc 5 921 0
	lwz 30,200(9)
.LVL775:
.LBB2564:
	.loc 5 860 0
	bl _ZN21idGameBearShootWindow13UpdateButtonsEv
.LVL776:
	.loc 5 862 0
	lwz 0,1068(31)
	cmpwi 7,0,0
	beq- 7,.L582
	.loc 5 863 0
	mr 3,31
	bl _ZN21idGameBearShootWindow10UpdateBearEv
.L582:
	.loc 5 865 0
	lwz 0,1072(31)
	cmpwi 7,0,0
	beq- 7,.L583
	.loc 5 865 0 is_stmt 0 discriminator 1
	lwz 0,1076(31)
	cmpwi 7,0,0
	beq- 7,.L583
	.loc 5 866 0 is_stmt 1
	mr 3,31
	bl _ZN21idGameBearShootWindow16UpdateHelicopterEv
.L583:
.LBB2492:
	.loc 5 870 0
	lwz 0,1044(31)
	cmpw 7,30,0
	ble- 7,.L584
.LVL777:
.LBB2493:
.LBB2494:
.LBB2495:
.LBB2496:
.LBB2497:
.LBB2498:
.LBB2499:
	.file 15 "d:/Data/Nintendo/DoomGX/src/ui/../idlib/../idlib/math/Random.h"
	.loc 15 71 0
	lis 11,0x1
.LBE2499:
.LBE2498:
	.loc 15 83 0
	lis 0,0x4330
.LBB2503:
.LBB2500:
	.loc 15 71 0
	ori 11,11,3533
.LBE2500:
.LBE2503:
	.loc 15 83 0
	stw 0,8(1)
.LBB2504:
.LBB2501:
	.loc 15 71 0
	mullw 11,30,11
.LBE2501:
.LBE2504:
	.loc 15 83 0
	lis 9,.LC63@ha
	lfs 0,.LC63@l(9)
.LBE2497:
.LBE2496:
.LBE2495:
.LBE2494:
	.loc 5 875 0
	lis 10,.LC1@ha
.LBB2515:
.LBB2512:
.LBB2509:
.LBB2506:
.LBB2505:
.LBB2502:
	.loc 15 71 0
	addi 0,11,1
.LVL778:
	.loc 15 72 0
	rlwinm 11,0,0,17,31
.LBE2502:
.LBE2505:
	.loc 15 83 0
	xoris 11,11,0x8000
	stw 11,12(1)
.LBE2506:
.LBE2509:
	.loc 15 87 0
	lis 11,.LC48@ha
	lfs 13,.LC48@l(11)
	lis 11,.LC81@ha
.LBB2510:
.LBB2507:
	.loc 15 83 0
	lfd 12,8(1)
	fsub 12,12,0
.LBE2507:
.LBE2510:
	.loc 15 87 0
	lfs 0,.LC81@l(11)
.LBE2512:
.LBE2515:
	.loc 5 874 0
	lis 11,.LC82@ha
.LBB2516:
.LBB2513:
.LBB2511:
.LBB2508:
	.loc 15 83 0
	frsp 12,12
.LBE2508:
.LBE2511:
	.loc 15 87 0
	fmsubs 0,12,0,13
.LBE2513:
.LBE2516:
	.loc 5 874 0
	lfs 12,.LC82@l(11)
	.loc 5 875 0
	lfs 13,.LC1@l(10)
.LBB2517:
.LBB2514:
	.loc 15 87 0
	fadds 0,0,0
.LBE2514:
.LBE2517:
	.loc 5 874 0
	fmuls 0,0,12
	.loc 5 875 0
	fcmpu 7,0,13
	.loc 5 874 0
	stfs 0,1040(31)
	.loc 5 875 0
	bng- 7,.L611
	.loc 5 876 0
	lis 10,.LC57@ha
	.loc 5 877 0
	lwz 11,1080(31)
	.loc 5 876 0
	lfs 12,.LC57@l(10)
	fadds 0,0,12
	stfs 0,1040(31)
	.loc 5 877 0
	stfs 13,76(11)
.L587:
	.loc 5 883 0
	lwz 11,1040(31)
.LVL779:
	lis 10,.LC38@ha
	lfs 0,.LC38@l(10)
.LBB2518:
.LBB2519:
	.loc 14 781 0
	rlwinm 10,11,0,1,31
.LBE2519:
.LBE2518:
	.loc 5 883 0
	stw 10,36(1)
	lis 10,.LC0@ha
	lfs 12,.LC0@l(10)
	.loc 5 886 0
	lis 10,.LC1@ha
	.loc 5 883 0
	lfs 11,36(1)
	.loc 5 886 0
	stw 11,36(1)
	.loc 5 883 0
	fsubs 13,0,11
	.loc 5 886 0
	lfs 11,36(1)
	.loc 5 883 0
	fdivs 13,13,0
	fsubs 13,12,13
	.loc 5 886 0
	lfs 12,.LC1@l(10)
	.loc 5 884 0
	addi 10,1,32
	.loc 5 886 0
	fcmpu 7,11,12
	.loc 5 884 0
	fmuls 0,13,0
	fctiwz 0,0
	stfiwx 0,0,10
	lwz 11,32(1)
.LVL780:
	.loc 5 886 0
	bnl- 7,.L612
	.loc 5 887 0
	subfic 10,11,501
.LVL781:
	lfs 0,.LC63@l(9)
	xoris 10,10,0x8000
	stw 10,20(1)
	lis 10,0x4330
	stw 10,16(1)
	lfd 13,16(1)
	lwz 10,1080(31)
	fsub 0,13,0
	frsp 0,0
	stfs 0,68(10)
.L590:
.LBB2520:
.LBB2521:
.LBB2522:
.LBB2523:
	.loc 15 71 0
	lis 10,0x1
.LBE2523:
.LBE2522:
.LBE2521:
.LBE2520:
	.loc 5 891 0
	xoris 11,11,0x8000
.LBB2540:
.LBB2532:
.LBB2528:
.LBB2524:
	.loc 15 71 0
	ori 10,10,3533
.LBE2524:
.LBE2528:
.LBE2532:
.LBE2540:
	.loc 5 891 0
	stw 11,28(1)
.LBB2541:
.LBB2533:
.LBB2529:
.LBB2525:
	.loc 15 71 0
	mullw 10,0,10
.LBE2525:
.LBE2529:
.LBE2533:
.LBE2541:
	.loc 5 891 0
	lis 11,0x4330
	stw 11,24(1)
.LBB2542:
.LBB2534:
	.loc 15 79 0
	lis 11,0x68db
	ori 11,11,35757
.LBE2534:
.LBE2542:
	.loc 5 891 0
	lfs 0,.LC63@l(9)
	lfd 13,24(1)
	.loc 5 893 0
	addi 30,30,7000
.LVL782:
.LBB2543:
.LBB2535:
.LBB2530:
.LBB2526:
	.loc 15 71 0
	addi 0,10,1
.LVL783:
.LBE2526:
.LBE2530:
.LBE2535:
.LBE2543:
	.loc 5 891 0
	lwz 9,1080(31)
.LVL784:
.LBB2544:
.LBB2536:
.LBB2531:
.LBB2527:
	.loc 15 72 0
	rlwinm 0,0,0,17,31
.LBE2527:
.LBE2531:
.LBE2536:
.LBE2544:
	.loc 5 891 0
	fsub 0,13,0
.LBB2545:
.LBB2537:
	.loc 15 79 0
	mulhw 11,0,11
.LBE2537:
.LBE2545:
	.loc 5 891 0
	frsp 0,0
.LBB2546:
.LBB2538:
	.loc 15 79 0
	srwi 11,11,11
	mulli 11,11,5000
.LBE2538:
.LBE2546:
	.loc 5 891 0
	stfs 0,40(9)
.LBB2547:
.LBB2539:
	.loc 15 79 0
	subf 0,11,0
.LBE2539:
.LBE2547:
.LBB2548:
.LBB2549:
	.loc 5 161 0
	lis 11,.LC42@ha
	lwz 11,.LC42@l(11)
.LBE2549:
.LBE2548:
	.loc 5 893 0
	add 0,30,0
.LBB2551:
.LBB2550:
	.loc 5 161 0
	stw 11,44(9)
.LVL785:
.LBE2550:
.LBE2551:
	.loc 5 893 0
	stw 0,1044(31)
.LVL786:
.L584:
.LBE2493:
.LBE2492:
	.loc 5 897 0
	lwz 9,1064(31)
	cmpwi 7,9,0
	beq- 7,.L591
.LBB2553:
.LBB2554:
	.loc 5 898 0
	lis 11,.LANCHOR0+48@ha
	.loc 2 144 0
	lwz 11,.LANCHOR0+48@l(11)
	lwz 0,40(11)
.LBE2554:
.LBE2553:
	.loc 5 898 0
	stw 0,1032(31)
	.loc 5 899 0
	stw 0,76(9)
.L591:
.LVL787:
	.loc 5 902 0 discriminator 1
	lwz 0,1048(31)
	cmpwi 7,0,0
	ble- 7,.L592
	.loc 5 902 0 is_stmt 0
	li 30,0
.LVL788:
.L593:
	.loc 5 903 0 is_stmt 1 discriminator 2
	lwz 9,1060(31)
	slwi 0,30,2
	lfs 1,996(31)
	.loc 5 902 0 discriminator 2
	addi 30,30,1
.LVL789:
	.loc 5 903 0 discriminator 2
	lwzx 3,9,0
	lwz 9,0(3)
	lwz 0,16(9)
	mtctr 0
	bctrl
.LVL790:
	.loc 5 902 0 discriminator 2
	lwz 0,1048(31)
	cmpw 7,0,30
	bgt+ 7,.L593
.LVL791:
.L592:
	.loc 5 907 0
	lfs 1,1000(31)
.LBB2555:
.LBB2556:
	.loc 14 894 0
	lis 9,.LC1@ha
.LBE2556:
.LBE2555:
	.loc 5 907 0
	lfs 13,996(31)
.LBB2560:
.LBB2557:
	.loc 14 894 0
	lfs 0,.LC1@l(9)
.LBE2557:
.LBE2560:
	.loc 5 907 0
	fsubs 1,1,13
.LVL792:
.LBB2561:
.LBB2558:
	.loc 14 894 0
	fcmpu 7,1,0
	bnl- 7,.L617
.L605:
	.loc 14 895 0
	fmr 1,0
.LVL793:
.L594:
.LBE2558:
.LBE2561:
	.loc 5 908 0
	stfs 1,1000(31)
	.loc 5 909 0
	lis 3,.LC84@ha
	lwz 29,732(31)
	la 3,.LC84@l(3)
	lwz 9,0(29)
	lwz 30,56(9)
	creqv 6,6,6
	bl _Z2vaPKcz
	lis 4,.LC85@ha
	mr 5,3
	la 4,.LC85@l(4)
	mr 3,29
	mtctr 30
	bctrl
	.loc 5 911 0
	lis 9,.LC1@ha
	lfs 13,1000(31)
	lfs 0,.LC1@l(9)
	fcmpu 7,13,0
	cror 30,28,30
	bne- 7,.L596
	.loc 5 911 0 is_stmt 0 discriminator 1
	lbz 0,1004(31)
	cmpwi 7,0,0
	bne- 7,.L596
	.loc 5 912 0 is_stmt 1
	li 0,1
	stb 0,1004(31)
	.loc 5 913 0
	stb 0,1016(31)
.L598:
	.loc 5 917 0
	mr 3,31
	bl _ZN21idGameBearShootWindow11UpdateScoreEv
	.loc 5 918 0
	li 0,0
	stb 0,1016(31)
.LBE2564:
.LBE2567:
.LBE2654:
	.loc 5 921 0
	lwz 0,60(1)
	lwz 29,44(1)
	mtlr 0
	lwz 30,48(1)
	lwz 31,52(1)
.LVL794:
	addi 1,1,56
	.cfi_remember_state
	.cfi_restore 29
	.cfi_restore 30
	.cfi_restore 31
.LCFI119:
	.cfi_def_cfa_offset 0
	blr
.LVL795:
.L596:
.LCFI120:
	.cfi_restore_state
.LBB2655:
.LBB2568:
.LBB2565:
	.loc 5 916 0
	lbz 0,1016(31)
	cmpwi 7,0,0
	bne- 7,.L598
.LBE2565:
.LBE2568:
.LBE2655:
	.loc 5 921 0
	lwz 0,60(1)
	lwz 29,44(1)
	mtlr 0
	lwz 30,48(1)
	lwz 31,52(1)
.LVL796:
	addi 1,1,56
	.cfi_remember_state
	.cfi_restore 29
	.cfi_restore 30
	.cfi_restore 31
.LCFI121:
	.cfi_def_cfa_offset 0
	blr
.LVL797:
.L615:
.LCFI122:
	.cfi_restore_state
.LBB2656:
.LBB2569:
.LBB2570:
	.loc 3 115 0
	lwz 29,968(31)
.LBE2570:
.LBE2569:
	.loc 5 850 0
	lis 9,.LC19@ha
	lwz 9,.LC19@l(9)
	.loc 5 849 0
	li 0,0
.LBB2594:
.LBB2589:
	.loc 3 115 0
	cmpwi 7,29,0
.LBE2589:
.LBE2594:
	.loc 5 849 0
	stb 0,1004(31)
	.loc 5 850 0
	stw 9,1000(31)
.LVL798:
.LBB2595:
.LBB2590:
	.loc 3 114 0
	stb 0,977(31)
	.loc 3 115 0
	beq- 7,.L578
.LBE2590:
	.loc 5 921 0
	lwz 30,972(31)
.LBB2591:
.LBB2571:
.LBB2572:
	.loc 3 53 0
	cmpwi 7,30,0
	beq- 7,.L602
	.loc 3 54 0
	lbz 0,0(30)
	li 4,0
	cmpwi 7,0,42
	beq- 7,.L618
.L579:
.LVL799:
.LBE2572:
.LBE2571:
.LBB2585:
.LBB2586:
	.loc 11 197 0
	lis 3,.LC3@ha
	la 3,.LC3@l(3)
	crxor 6,6,6
	bl _Z2vaPKcz
	mr 4,30
	mr 5,3
	mr 3,29
	bl _ZN6idDict3SetEPKcS1_
	b .L578
.LVL800:
.L614:
.LBE2586:
.LBE2585:
.LBE2591:
.LBE2595:
	.loc 5 833 0
	bl _ZN21idGameBearShootWindow14ResetGameStateEv
	.loc 5 835 0
	lis 11,.LC37@ha
	lwz 9,1076(31)
.LBB2596:
.LBB2597:
	.loc 9 120 0
	lis 10,.LC1@ha
.LBE2597:
.LBE2596:
	.loc 5 835 0
	lwz 0,.LC37@l(11)
	.loc 5 836 0
	lis 11,.LC40@ha
	lwz 11,.LC40@l(11)
.LBB2600:
.LBB2601:
	.loc 5 843 0
	lis 30,.LANCHOR0@ha
.LBE2601:
.LBE2600:
	.loc 5 835 0
	stw 0,68(9)
.LBB2606:
.LBB2602:
	.loc 5 843 0
	la 30,.LANCHOR0@l(30)
.LBE2602:
.LBE2606:
.LBB2607:
.LBB2598:
	.loc 9 120 0
	lfs 0,.LC1@l(10)
.LBE2598:
.LBE2607:
	.loc 5 839 0
	lis 10,.LC38@ha
	.loc 5 836 0
	lwz 9,1076(31)
.LBB2608:
.LBB2609:
	.loc 2 149 0
	fmr 1,0
.LBE2609:
.LBE2608:
	.loc 5 836 0
	stw 11,72(9)
	.loc 5 837 0
	lwz 9,1076(31)
.LVL801:
.LBB2612:
.LBB2599:
	.loc 9 120 0
	stfs 0,88(9)
	stfs 0,84(9)
.LBE2599:
.LBE2612:
	.loc 5 838 0
	lwz 9,1072(31)
	stw 0,68(9)
	.loc 5 839 0
	lwz 0,.LC38@l(10)
	lwz 11,1072(31)
.LBB2613:
.LBB2603:
	.loc 5 843 0
	lwz 9,48(30)
.LBE2603:
.LBE2613:
	.loc 5 839 0
	stw 0,72(11)
.LBB2614:
.LBB2604:
	.loc 5 170 0
	li 0,0
.LBE2604:
.LBE2614:
.LBB2615:
.LBB2610:
	.loc 2 149 0
	mr 3,9
.LBE2610:
.LBE2615:
	.loc 5 840 0
	lwz 11,1072(31)
.LVL802:
.LBB2616:
.LBB2617:
	.loc 9 120 0
	stfs 0,88(11)
	stfs 0,84(11)
.LBE2617:
.LBE2616:
	.loc 5 841 0
	lwz 11,1068(31)
.LVL803:
.LBB2618:
.LBB2605:
	.loc 5 170 0
	stb 0,48(11)
.LBE2605:
.LBE2618:
.LBB2619:
.LBB2611:
	.loc 2 149 0
	lwz 9,0(9)
	lwz 0,20(9)
	mtctr 0
	bctrl
.LVL804:
	.loc 5 844 0
	lwz 3,100(30)
.LVL805:
.LBE2611:
.LBE2619:
.LBB2620:
.LBB2621:
	.loc 2 149 0
	lwz 9,0(3)
	lwz 0,20(9)
	lis 9,.LC20@ha
	lfs 1,.LC20@l(9)
	mtctr 0
	bctrl
.LVL806:
.LBE2621:
.LBE2620:
.LBB2622:
.LBB2623:
	.loc 3 115 0
	lwz 29,936(31)
	.loc 3 114 0
	li 0,1
	.loc 3 115 0
	cmpwi 7,29,0
	.loc 3 114 0
	stb 0,945(31)
	.loc 3 115 0
	beq- 7,.L575
.LBE2623:
	.loc 5 921 0
	lwz 30,940(31)
.LBB2644:
.LBB2624:
.LBB2625:
	.loc 3 53 0
	cmpwi 7,30,0
	beq- 7,.L599
	.loc 3 54 0
	lbz 0,0(30)
	li 4,1
	cmpwi 7,0,42
	beq- 7,.L619
.L576:
.LVL807:
.LBE2625:
.LBE2624:
.LBB2639:
.LBB2640:
	.loc 11 197 0
	lis 3,.LC3@ha
	la 3,.LC3@l(3)
	crxor 6,6,6
	bl _Z2vaPKcz
	mr 4,30
	mr 5,3
	mr 3,29
	bl _ZN6idDict3SetEPKcS1_
	b .L575
.LVL808:
.L617:
.LBE2640:
.LBE2639:
.LBE2644:
.LBE2622:
.LBB2648:
.LBB2566:
.LBB2562:
.LBB2559:
	.loc 14 897 0
	lis 9,.LC80@ha
	lfs 0,.LC80@l(9)
	fcmpu 7,1,0
	bng- 7,.L594
	b .L605
.LVL809:
.L612:
.LBE2559:
.LBE2562:
.LBB2563:
.LBB2552:
	.loc 5 889 0
	lis 8,.LC43@ha
	lwz 10,1080(31)
	lwz 8,.LC43@l(8)
	stw 8,68(10)
	b .L590
.LVL810:
.L611:
	.loc 5 879 0
	lis 11,.LC57@ha
	.loc 5 880 0
	lis 10,.LC83@ha
	.loc 5 879 0
	lfs 13,.LC57@l(11)
	.loc 5 880 0
	lwz 10,.LC83@l(10)
	.loc 5 879 0
	fsubs 0,0,13
	.loc 5 880 0
	lwz 11,1080(31)
	.loc 5 879 0
	stfs 0,1040(31)
	.loc 5 880 0
	stw 10,76(11)
	b .L587
.LVL811:
.L619:
.LBE2552:
.LBE2563:
.LBE2566:
.LBE2648:
.LBB2649:
.LBB2645:
.LBB2641:
.LBB2636:
.LBB2626:
.LBB2627:
.LBB2628:
.LBB2629:
	.loc 11 241 0
	mr 3,29
	addi 4,30,1
	bl _ZNK6idDict7FindKeyEPKc
.LVL812:
	.loc 11 242 0
	cmpwi 0,3,0
	beq- 0,.L601
.LVL813:
.LBB2630:
	.loc 5 921 0
	lwz 9,4(3)
	lbz 4,945(31)
	lwz 30,4(9)
.LVL814:
	b .L576
.LVL815:
.L618:
.LBE2630:
.LBE2629:
.LBE2628:
.LBE2627:
.LBE2626:
.LBE2636:
.LBE2641:
.LBE2645:
.LBE2649:
.LBB2650:
.LBB2592:
.LBB2587:
.LBB2583:
.LBB2573:
.LBB2574:
.LBB2575:
.LBB2576:
	.loc 11 241 0
	mr 3,29
	addi 4,30,1
	bl _ZNK6idDict7FindKeyEPKc
.LVL816:
	.loc 11 242 0
	cmpwi 0,3,0
	beq- 0,.L604
.LVL817:
.LBB2577:
	.loc 5 921 0
	lwz 9,4(3)
	lbz 4,977(31)
	lwz 30,4(9)
.LVL818:
	b .L579
.LVL819:
.L599:
.LBE2577:
.LBE2576:
.LBE2575:
.LBE2574:
.LBE2573:
.LBE2583:
.LBE2587:
.LBE2592:
.LBE2650:
.LBB2651:
.LBB2646:
.LBB2642:
.LBB2637:
	.loc 3 59 0
	lis 30,.LC2@ha
	.loc 3 53 0
	li 4,1
	.loc 3 59 0
	la 30,.LC2@l(30)
	b .L576
.LVL820:
.L602:
.LBE2637:
.LBE2642:
.LBE2646:
.LBE2651:
.LBB2652:
.LBB2593:
.LBB2588:
.LBB2584:
	lis 30,.LC2@ha
	.loc 3 53 0
	li 4,0
	.loc 3 59 0
	la 30,.LC2@l(30)
	b .L579
.LVL821:
.L604:
.LBB2582:
.LBB2581:
.LBB2580:
.LBB2579:
	.loc 11 245 0
	lis 30,.LC2@ha
.LVL822:
.LBB2578:
	.loc 5 921 0
	lbz 4,977(31)
.LBE2578:
	.loc 11 245 0
	la 30,.LC2@l(30)
	b .L579
.LVL823:
.L601:
.LBE2579:
.LBE2580:
.LBE2581:
.LBE2582:
.LBE2584:
.LBE2588:
.LBE2593:
.LBE2652:
.LBB2653:
.LBB2647:
.LBB2643:
.LBB2638:
.LBB2635:
.LBB2634:
.LBB2633:
.LBB2632:
	lis 30,.LC2@ha
.LVL824:
.LBB2631:
	.loc 5 921 0
	lbz 4,945(31)
.LBE2631:
	.loc 11 245 0
	la 30,.LC2@l(30)
	b .L576
.LBE2632:
.LBE2633:
.LBE2634:
.LBE2635:
.LBE2638:
.LBE2643:
.LBE2647:
.LBE2653:
.LBE2656:
	.cfi_endproc
.LFE2893:
	.size	_ZN21idGameBearShootWindow10UpdateGameEv, .-_ZN21idGameBearShootWindow10UpdateGameEv
	.align 2
	.globl _ZN21idGameBearShootWindow4DrawEiff
	.type	_ZN21idGameBearShootWindow4DrawEiff, @function
_ZN21idGameBearShootWindow4DrawEiff:
.LFB2886:
	.loc 5 554 0
	.cfi_startproc
.LVL825:
	stwu 1,-24(1)
.LCFI123:
	.cfi_def_cfa_offset 24
	mflr 0
	stw 29,12(1)
	mr 29,3
	.cfi_offset 29, -12
	.cfi_register 65, 0
	stw 31,20(1)
	stw 0,28(1)
	stw 30,16(1)
.LBB2657:
	.loc 5 558 0
	.cfi_offset 30, -8
	.cfi_offset 65, 4
	.cfi_offset 31, -4
	bl _ZN21idGameBearShootWindow10UpdateGameEv
.LVL826:
	.loc 5 560 0
	lwz 31,1048(29)
.LVL827:
	addic. 31,31,-1
	blt- 0,.L620
	slwi 30,31,2
.LVL828:
.L622:
	.loc 5 561 0 discriminator 2
	lwz 9,1060(29)
	lwz 4,728(29)
	lwzx 3,9,30
	.loc 5 560 0 discriminator 2
	addi 30,30,-4
	.loc 5 561 0 discriminator 2
	lwz 9,0(3)
	lwz 0,20(9)
	mtctr 0
	bctrl
.LVL829:
	.loc 5 560 0 discriminator 2
	cmpwi 7,31,0
	addi 31,31,-1
.LVL830:
	bne+ 7,.L622
.L620:
.LBE2657:
	.loc 5 563 0
	lwz 0,28(1)
	lwz 29,12(1)
.LVL831:
	mtlr 0
	lwz 30,16(1)
	lwz 31,20(1)
.LVL832:
	addi 1,1,24
.LCFI124:
	.cfi_def_cfa_offset 0
	.cfi_restore 31
	.cfi_restore 30
	.cfi_restore 29
	blr
	.cfi_endproc
.LFE2886:
	.size	_ZN21idGameBearShootWindow4DrawEiff, .-_ZN21idGameBearShootWindow4DrawEiff
	.section	.text._ZN6idListIP8BSEntityE5ClearEv,"axG",@progbits,_ZN6idListIP8BSEntityE5ClearEv,comdat
	.align 2
	.weak	_ZN6idListIP8BSEntityE5ClearEv
	.type	_ZN6idListIP8BSEntityE5ClearEv, @function
_ZN6idListIP8BSEntityE5ClearEv:
.LFB3150:
	.loc 10 192 0
	.cfi_startproc
.LVL833:
	mflr 0
	stwu 1,-16(1)
.LCFI125:
	.cfi_def_cfa_offset 16
	.cfi_register 65, 0
	stw 31,12(1)
	mr 31,3
	.cfi_offset 31, -4
	stw 0,20(1)
	.loc 10 193 0
	lwz 3,12(3)
.LVL834:
	cmpwi 7,3,0
	beq- 7,.L625
	.cfi_offset 65, 4
	.loc 10 194 0 discriminator 1
	bl _ZdaPv
.L625:
	.loc 10 197 0
	li 0,0
	stw 0,12(31)
	.loc 10 198 0
	stw 0,0(31)
	.loc 10 199 0
	stw 0,4(31)
	.loc 10 200 0
	lwz 0,20(1)
	lwz 31,12(1)
.LVL835:
	mtlr 0
	addi 1,1,16
.LCFI126:
	.cfi_def_cfa_offset 0
	.cfi_restore 31
	blr
	.cfi_endproc
.LFE3150:
	.size	_ZN6idListIP8BSEntityE5ClearEv, .-_ZN6idListIP8BSEntityE5ClearEv
	.section	".text"
	.align 2
	.globl _ZN21idGameBearShootWindowD2Ev
	.type	_ZN21idGameBearShootWindowD2Ev, @function
_ZN21idGameBearShootWindowD2Ev:
.LFB2875:
	.loc 5 237 0
	.cfi_startproc
	.cfi_personality 0,__gxx_personality_v0
	.cfi_lsda 0,.LLSDA2875
.LVL836:
	mflr 0
	stwu 1,-32(1)
.LCFI127:
	.cfi_def_cfa_offset 32
	.cfi_register 65, 0
.LBB2687:
	lis 9,_ZTV21idGameBearShootWindow+8@ha
.LBE2687:
	stw 28,16(1)
	mr 28,3
	.cfi_offset 28, -16
	stw 29,20(1)
.LBB2723:
	.loc 5 238 0
	addi 29,3,1048
	.cfi_offset 29, -12
.LVL837:
.LBE2723:
	.loc 5 237 0
	stw 0,36(1)
	stw 27,12(1)
	stw 30,24(1)
	stw 31,28(1)
.LBB2724:
.LBB2688:
.LBB2689:
	.loc 10 218 0
	lwz 0,1048(3)
	.cfi_offset 31, -4
	.cfi_offset 30, -8
	.cfi_offset 27, -20
	.cfi_offset 65, 4
	cmpwi 7,0,0
.LBE2689:
.LBE2688:
	.loc 5 237 0
	la 0,_ZTV21idGameBearShootWindow+8@l(9)
	stw 0,0(3)
.LBB2693:
.LBB2692:
	.loc 10 218 0
	ble- 7,.L627
	li 31,0
	.loc 10 220 0
	li 27,0
.LVL838:
.L629:
	.loc 10 219 0
	lwz 9,12(29)
	.loc 5 237 0
	slwi 30,31,2
	.loc 10 219 0
	lwzx 3,9,30
	add 9,9,30
	cmpwi 7,3,0
	beq- 7,.L628
	lwz 9,0(3)
	lwz 0,4(9)
	mtctr 0
.LEHB24:
	bctrl
.LEHE24:
	lwz 9,1060(28)
	add 9,9,30
.L628:
	.loc 10 220 0
	stw 27,0(9)
	.loc 10 218 0
	addi 31,31,1
.LVL839:
	lwz 0,0(29)
	cmpw 7,31,0
	blt+ 7,.L629
.LVL840:
.L627:
.LBB2690:
.LBB2691:
	.loc 10 193 0
	lwz 3,1060(28)
	cmpwi 7,3,0
	beq- 7,.L630
	.loc 10 194 0
	bl _ZdaPv
.L630:
.LVL841:
.LBE2691:
.LBE2690:
.LBE2692:
.LBE2693:
.LBB2694:
.LBB2695:
.LBB2696:
	.loc 3 106 0
	lis 31,_ZTV9idWinBool+8@ha
.LBE2696:
.LBE2695:
.LBE2694:
.LBB2701:
.LBB2702:
.LBB2703:
.LBB2704:
	.loc 10 197 0
	li 0,0
.LBE2704:
.LBE2703:
.LBE2702:
.LBE2701:
.LBB2708:
.LBB2699:
.LBB2697:
	.loc 3 106 0
	mr 3,28
	la 31,_ZTV9idWinBool+8@l(31)
.LBE2697:
.LBE2699:
.LBE2708:
.LBB2709:
.LBB2707:
.LBB2706:
.LBB2705:
	.loc 10 197 0
	stw 0,1060(28)
	.loc 10 198 0
	stw 0,1048(28)
	.loc 10 199 0
	stw 0,1052(28)
.LVL842:
.LBE2705:
.LBE2706:
.LBE2707:
.LBE2709:
.LBB2710:
.LBB2700:
.LBB2698:
	.loc 3 106 0
	stwu 31,980(3)
.LEHB25:
	bl _ZN8idWinVarD2Ev
.LEHE25:
.LVL843:
.LBE2698:
.LBE2700:
.LBE2710:
.LBB2711:
.LBB2712:
.LBB2713:
	.loc 3 106 0 is_stmt 0 discriminator 2
	mr 3,28
	stwu 31,964(3)
.LEHB26:
	bl _ZN8idWinVarD2Ev
.LEHE26:
.LVL844:
.LBE2713:
.LBE2712:
.LBE2711:
.LBB2714:
.LBB2715:
.LBB2716:
	.loc 3 106 0 discriminator 3
	mr 3,28
	stwu 31,948(3)
.LEHB27:
	bl _ZN8idWinVarD2Ev
.LEHE27:
.LVL845:
.LBE2716:
.LBE2715:
.LBE2714:
.LBB2717:
.LBB2718:
.LBB2719:
	.loc 3 106 0 discriminator 4
	mr 3,28
	stwu 31,932(3)
.LEHB28:
	bl _ZN8idWinVarD2Ev
.LEHE28:
.LBE2719:
.LBE2718:
.LBE2717:
	.loc 5 237 0 is_stmt 1 discriminator 5
	mr 3,28
.LEHB29:
	bl _ZN8idWindowD2Ev
.LEHE29:
.LBE2724:
	.loc 5 239 0 discriminator 5
	lwz 0,36(1)
	lwz 27,12(1)
	mtlr 0
	lwz 28,16(1)
.LVL846:
	lwz 29,20(1)
.LVL847:
	lwz 30,24(1)
	lwz 31,28(1)
	addi 1,1,32
	.cfi_remember_state
.LCFI128:
	.cfi_def_cfa_offset 0
	.cfi_restore 31
	.cfi_restore 30
	.cfi_restore 29
	.cfi_restore 28
	.cfi_restore 27
	blr
.LVL848:
.L643:
.LCFI129:
	.cfi_restore_state
	mr 31,3
.LVL849:
.LBB2725:
.LBB2720:
.LBB2721:
.LBB2722:
	.loc 10 181 0
	mr 3,29
	bl _ZN6idListIP8BSEntityE5ClearEv
.LBE2722:
.LBE2721:
.LBE2720:
	.loc 5 237 0
	addi 3,28,980
	bl _ZN9idWinBoolD1Ev
.LVL850:
.L639:
	addi 3,28,964
	bl _ZN9idWinBoolD1Ev
.L640:
	addi 3,28,948
	bl _ZN9idWinBoolD1Ev
.L641:
	addi 3,28,932
	bl _ZN9idWinBoolD1Ev
.L642:
	mr 3,28
	bl _ZN8idWindowD2Ev
	mr 3,31
.LEHB30:
	bl _Unwind_Resume
.LEHE30:
.LVL851:
.L647:
	mr 31,3
	b .L642
.LVL852:
.L646:
	mr 31,3
	b .L641
.LVL853:
.L645:
	mr 31,3
	b .L640
.LVL854:
.L644:
	mr 31,3
	b .L639
.LBE2725:
	.cfi_endproc
.LFE2875:
	.section	.gcc_except_table
.LLSDA2875:
	.byte	0xff
	.byte	0xff
	.byte	0x1
	.uleb128 .LLSDACSE2875-.LLSDACSB2875
.LLSDACSB2875:
	.uleb128 .LEHB24-.LFB2875
	.uleb128 .LEHE24-.LEHB24
	.uleb128 .L643-.LFB2875
	.uleb128 0
	.uleb128 .LEHB25-.LFB2875
	.uleb128 .LEHE25-.LEHB25
	.uleb128 .L644-.LFB2875
	.uleb128 0
	.uleb128 .LEHB26-.LFB2875
	.uleb128 .LEHE26-.LEHB26
	.uleb128 .L645-.LFB2875
	.uleb128 0
	.uleb128 .LEHB27-.LFB2875
	.uleb128 .LEHE27-.LEHB27
	.uleb128 .L646-.LFB2875
	.uleb128 0
	.uleb128 .LEHB28-.LFB2875
	.uleb128 .LEHE28-.LEHB28
	.uleb128 .L647-.LFB2875
	.uleb128 0
	.uleb128 .LEHB29-.LFB2875
	.uleb128 .LEHE29-.LEHB29
	.uleb128 0
	.uleb128 0
	.uleb128 .LEHB30-.LFB2875
	.uleb128 .LEHE30-.LEHB30
	.uleb128 0
	.uleb128 0
.LLSDACSE2875:
	.section	".text"
	.size	_ZN21idGameBearShootWindowD2Ev, .-_ZN21idGameBearShootWindowD2Ev
	.align 2
	.globl _ZN21idGameBearShootWindowD0Ev
	.type	_ZN21idGameBearShootWindowD0Ev, @function
_ZN21idGameBearShootWindowD0Ev:
.LFB2877:
	.loc 5 237 0
	.cfi_startproc
.LVL855:
	stwu 1,-16(1)
.LCFI130:
	.cfi_def_cfa_offset 16
	mflr 0
	stw 31,12(1)
	mr 31,3
	.cfi_offset 31, -4
	.cfi_register 65, 0
	stw 0,20(1)
	.loc 5 239 0
	.cfi_offset 65, 4
	bl _ZN21idGameBearShootWindowD1Ev
.LVL856:
	mr 3,31
	bl _ZN8idWindowdlEPv
	lwz 0,20(1)
	lwz 31,12(1)
.LVL857:
	mtlr 0
	addi 1,1,16
.LCFI131:
	.cfi_def_cfa_offset 0
	.cfi_restore 31
	blr
	.cfi_endproc
.LFE2877:
	.size	_ZN21idGameBearShootWindowD0Ev, .-_ZN21idGameBearShootWindowD0Ev
	.align 2
	.globl _ZN21idGameBearShootWindowC2EP20idUserInterfaceLocal
	.type	_ZN21idGameBearShootWindowC2EP20idUserInterfaceLocal, @function
_ZN21idGameBearShootWindowC2EP20idUserInterfaceLocal:
.LFB2872:
	.loc 5 232 0
	.cfi_startproc
	.cfi_personality 0,__gxx_personality_v0
	.cfi_lsda 0,.LLSDA2872
.LVL858:
	mflr 0
	stwu 1,-40(1)
.LCFI132:
	.cfi_def_cfa_offset 40
	.cfi_register 65, 0
	stw 25,12(1)
	mr 25,4
	.cfi_offset 25, -28
	stw 0,44(1)
	stw 29,28(1)
	stw 31,36(1)
	mr 31,3
	.cfi_offset 31, -4
	.cfi_offset 29, -12
	.cfi_offset 65, 4
	stw 26,16(1)
.LBB2746:
.LBB2747:
.LBB2748:
	.loc 3 105 0
	addi 29,31,932
.LBE2748:
.LBE2747:
.LBE2746:
	.loc 5 232 0
	stw 27,20(1)
	stw 28,24(1)
	stw 30,32(1)
.LEHB31:
.LBB2788:
	.loc 5 232 0
	.cfi_offset 30, -8
	.cfi_offset 28, -16
	.cfi_offset 27, -20
	.cfi_offset 26, -24
	bl _ZN8idWindowC2EP20idUserInterfaceLocal
.LEHE31:
.LVL859:
	lis 9,_ZTV21idGameBearShootWindow+8@ha
.LBB2753:
.LBB2749:
	.loc 3 105 0
	mr 3,29
.LBE2749:
.LBE2753:
	.loc 5 232 0
	la 0,_ZTV21idGameBearShootWindow+8@l(9)
	stw 0,0(31)
.LVL860:
.LEHB32:
.LBB2754:
.LBB2750:
	.loc 3 105 0
	bl _ZN8idWinVarC2Ev
.LEHE32:
	lis 30,_ZTV9idWinBool+8@ha
.LBE2750:
.LBE2754:
.LBB2755:
.LBB2756:
	addi 28,31,948
.LBE2756:
.LBE2755:
.LBB2760:
.LBB2751:
	la 30,_ZTV9idWinBool+8@l(30)
.LBE2751:
.LBE2760:
.LBB2761:
.LBB2757:
	mr 3,28
.LBE2757:
.LBE2761:
.LBB2762:
.LBB2752:
	stw 30,932(31)
.LVL861:
.LEHB33:
.LBE2752:
.LBE2762:
.LBB2763:
.LBB2758:
	bl _ZN8idWinVarC2Ev
.LEHE33:
.LBE2758:
.LBE2763:
.LBB2764:
.LBB2765:
	addi 27,31,964
.LBE2765:
.LBE2764:
.LBB2768:
.LBB2759:
	stw 30,948(31)
.LVL862:
.LBE2759:
.LBE2768:
.LBB2769:
.LBB2766:
	mr 3,27
.LEHB34:
	bl _ZN8idWinVarC2Ev
.LEHE34:
.LBE2766:
.LBE2769:
.LBB2770:
.LBB2771:
	addi 26,31,980
.LBE2771:
.LBE2770:
.LBB2774:
.LBB2767:
	stw 30,964(31)
.LVL863:
.LBE2767:
.LBE2774:
.LBB2775:
.LBB2772:
	mr 3,26
.LEHB35:
	bl _ZN8idWinVarC2Ev
.LEHE35:
.LBE2772:
.LBE2775:
.LBB2776:
.LBB2777:
.LBB2778:
.LBB2779:
	.loc 10 197 0
	li 0,0
.LBE2779:
.LBE2778:
	.loc 10 159 0
	li 9,16
.LBE2777:
.LBE2776:
.LBB2783:
.LBB2773:
	.loc 3 105 0
	stw 30,980(31)
.LVL864:
.LBE2773:
.LBE2783:
	.loc 5 234 0
	mr 3,31
.LBB2784:
.LBB2782:
	.loc 10 159 0
	stw 9,1056(31)
.LVL865:
.LBB2781:
.LBB2780:
	.loc 10 197 0
	stw 0,1060(31)
	.loc 10 198 0
	stw 0,1048(31)
	.loc 10 199 0
	stw 0,1052(31)
.LBE2780:
.LBE2781:
.LBE2782:
.LBE2784:
	.loc 5 233 0
	stw 25,732(31)
.LEHB36:
	.loc 5 234 0
	bl _ZN21idGameBearShootWindow10CommonInitEv
.LEHE36:
.LBE2788:
	.loc 5 235 0
	lwz 0,44(1)
	lwz 25,12(1)
.LVL866:
	mtlr 0
	lwz 26,16(1)
.LVL867:
	lwz 27,20(1)
.LVL868:
	lwz 28,24(1)
.LVL869:
	lwz 29,28(1)
.LVL870:
	lwz 30,32(1)
	lwz 31,36(1)
.LVL871:
	addi 1,1,40
	.cfi_remember_state
.LCFI133:
	.cfi_def_cfa_offset 0
	.cfi_restore 31
	.cfi_restore 30
	.cfi_restore 29
	.cfi_restore 28
	.cfi_restore 27
	.cfi_restore 26
	.cfi_restore 25
	blr
.LVL872:
.L658:
.LCFI134:
	.cfi_restore_state
	mr 30,3
.L657:
.LBB2789:
	.loc 5 232 0
	mr 3,31
	bl _ZN8idWindowD2Ev
	mr 3,30
.LEHB37:
	bl _Unwind_Resume
.LEHE37:
.LVL873:
.L662:
	mr 30,3
.LVL874:
.LBB2785:
.LBB2786:
.LBB2787:
	.loc 10 181 0
	addi 3,31,1048
	bl _ZN6idListIP8BSEntityE5ClearEv
.LBE2787:
.LBE2786:
.LBE2785:
	.loc 5 232 0
	mr 3,26
	bl _ZN9idWinBoolD1Ev
.LVL875:
.L654:
	mr 3,27
	bl _ZN9idWinBoolD1Ev
.LVL876:
.L655:
	mr 3,28
	bl _ZN9idWinBoolD1Ev
.LVL877:
.L656:
	mr 3,29
	bl _ZN9idWinBoolD1Ev
	b .L657
.LVL878:
.L661:
	mr 30,3
	b .L654
.LVL879:
.L660:
	mr 30,3
	b .L655
.LVL880:
.L659:
	mr 30,3
	b .L656
.LBE2789:
	.cfi_endproc
.LFE2872:
	.section	.gcc_except_table
.LLSDA2872:
	.byte	0xff
	.byte	0xff
	.byte	0x1
	.uleb128 .LLSDACSE2872-.LLSDACSB2872
.LLSDACSB2872:
	.uleb128 .LEHB31-.LFB2872
	.uleb128 .LEHE31-.LEHB31
	.uleb128 0
	.uleb128 0
	.uleb128 .LEHB32-.LFB2872
	.uleb128 .LEHE32-.LEHB32
	.uleb128 .L658-.LFB2872
	.uleb128 0
	.uleb128 .LEHB33-.LFB2872
	.uleb128 .LEHE33-.LEHB33
	.uleb128 .L659-.LFB2872
	.uleb128 0
	.uleb128 .LEHB34-.LFB2872
	.uleb128 .LEHE34-.LEHB34
	.uleb128 .L660-.LFB2872
	.uleb128 0
	.uleb128 .LEHB35-.LFB2872
	.uleb128 .LEHE35-.LEHB35
	.uleb128 .L661-.LFB2872
	.uleb128 0
	.uleb128 .LEHB36-.LFB2872
	.uleb128 .LEHE36-.LEHB36
	.uleb128 .L662-.LFB2872
	.uleb128 0
	.uleb128 .LEHB37-.LFB2872
	.uleb128 .LEHE37-.LEHB37
	.uleb128 0
	.uleb128 0
.LLSDACSE2872:
	.section	".text"
	.size	_ZN21idGameBearShootWindowC2EP20idUserInterfaceLocal, .-_ZN21idGameBearShootWindowC2EP20idUserInterfaceLocal
	.align 2
	.globl _ZN21idGameBearShootWindowC2EP15idDeviceContextP20idUserInterfaceLocal
	.type	_ZN21idGameBearShootWindowC2EP15idDeviceContextP20idUserInterfaceLocal, @function
_ZN21idGameBearShootWindowC2EP15idDeviceContextP20idUserInterfaceLocal:
.LFB2869:
	.loc 5 223 0
	.cfi_startproc
	.cfi_personality 0,__gxx_personality_v0
	.cfi_lsda 0,.LLSDA2869
.LVL881:
	mflr 0
	stwu 1,-40(1)
.LCFI135:
	.cfi_def_cfa_offset 40
	.cfi_register 65, 0
	stw 24,8(1)
	mr 24,5
	.cfi_offset 24, -32
	stw 0,44(1)
	stw 25,12(1)
	mr 25,4
	.cfi_offset 25, -28
	.cfi_offset 65, 4
	stw 29,28(1)
	stw 31,36(1)
	mr 31,3
	.cfi_offset 31, -4
	.cfi_offset 29, -12
	stw 26,16(1)
.LBB2810:
.LBB2811:
.LBB2812:
	.loc 3 105 0
	addi 29,31,932
.LBE2812:
.LBE2811:
.LBE2810:
	.loc 5 223 0
	stw 27,20(1)
	stw 28,24(1)
	stw 30,32(1)
.LEHB38:
.LBB2858:
	.loc 5 223 0
	.cfi_offset 30, -8
	.cfi_offset 28, -16
	.cfi_offset 27, -20
	.cfi_offset 26, -24
	bl _ZN8idWindowC2EP15idDeviceContextP20idUserInterfaceLocal
.LEHE38:
.LVL882:
	lis 9,_ZTV21idGameBearShootWindow+8@ha
.LBB2817:
.LBB2813:
	.loc 3 105 0
	mr 3,29
.LBE2813:
.LBE2817:
	.loc 5 223 0
	la 0,_ZTV21idGameBearShootWindow+8@l(9)
	stw 0,0(31)
.LVL883:
.LEHB39:
.LBB2818:
.LBB2814:
	.loc 3 105 0
	bl _ZN8idWinVarC2Ev
.LEHE39:
	lis 30,_ZTV9idWinBool+8@ha
.LBE2814:
.LBE2818:
.LBB2819:
.LBB2820:
	addi 28,31,948
.LBE2820:
.LBE2819:
.LBB2824:
.LBB2815:
	la 30,_ZTV9idWinBool+8@l(30)
.LBE2815:
.LBE2824:
.LBB2825:
.LBB2821:
	mr 3,28
.LBE2821:
.LBE2825:
.LBB2826:
.LBB2816:
	stw 30,932(31)
.LVL884:
.LEHB40:
.LBE2816:
.LBE2826:
.LBB2827:
.LBB2822:
	bl _ZN8idWinVarC2Ev
.LEHE40:
.LBE2822:
.LBE2827:
.LBB2828:
.LBB2829:
	addi 27,31,964
.LBE2829:
.LBE2828:
.LBB2832:
.LBB2823:
	stw 30,948(31)
.LVL885:
.LBE2823:
.LBE2832:
.LBB2833:
.LBB2830:
	mr 3,27
.LEHB41:
	bl _ZN8idWinVarC2Ev
.LEHE41:
.LBE2830:
.LBE2833:
.LBB2834:
.LBB2835:
	addi 26,31,980
.LBE2835:
.LBE2834:
.LBB2838:
.LBB2831:
	stw 30,964(31)
.LVL886:
.LBE2831:
.LBE2838:
.LBB2839:
.LBB2836:
	mr 3,26
.LEHB42:
	bl _ZN8idWinVarC2Ev
.LEHE42:
.LBE2836:
.LBE2839:
.LBB2840:
.LBB2841:
.LBB2842:
.LBB2843:
	.loc 10 197 0
	li 0,0
.LBE2843:
.LBE2842:
	.loc 10 159 0
	li 9,16
.LBE2841:
.LBE2840:
	.loc 5 225 0
	lis 3,.LC86@ha
.LBB2851:
.LBB2837:
	.loc 3 105 0
	stw 30,980(31)
.LVL887:
.LBE2837:
.LBE2851:
.LBB2852:
.LBB2848:
	.loc 10 159 0
	stw 9,1056(31)
.LVL888:
.LBE2848:
.LBE2852:
	.loc 5 225 0
	la 3,.LC86@l(3)
.LBB2853:
.LBB2849:
.LBB2846:
.LBB2844:
	.loc 10 197 0
	stw 0,1060(31)
.LBE2844:
.LBE2846:
.LBE2849:
.LBE2853:
	.loc 5 225 0
	li 4,1088
.LBB2854:
.LBB2850:
.LBB2847:
.LBB2845:
	.loc 10 198 0
	stw 0,1048(31)
	.loc 10 199 0
	stw 0,1052(31)
.LEHB43:
.LBE2845:
.LBE2847:
.LBE2850:
.LBE2854:
	.loc 5 225 0
	crxor 6,6,6
	bl _Z15Sys_DebugPrintfPKcz
	.loc 5 227 0
	stw 25,728(31)
	.loc 5 229 0
	mr 3,31
	.loc 5 228 0
	stw 24,732(31)
	.loc 5 229 0
	bl _ZN21idGameBearShootWindow10CommonInitEv
.LEHE43:
.LBE2858:
	.loc 5 230 0
	lwz 0,44(1)
	lwz 24,8(1)
.LVL889:
	mtlr 0
	lwz 25,12(1)
.LVL890:
	lwz 26,16(1)
.LVL891:
	lwz 27,20(1)
.LVL892:
	lwz 28,24(1)
.LVL893:
	lwz 29,28(1)
.LVL894:
	lwz 30,32(1)
	lwz 31,36(1)
.LVL895:
	addi 1,1,40
	.cfi_remember_state
.LCFI136:
	.cfi_def_cfa_offset 0
	.cfi_restore 31
	.cfi_restore 30
	.cfi_restore 29
	.cfi_restore 28
	.cfi_restore 27
	.cfi_restore 26
	.cfi_restore 25
	.cfi_restore 24
	blr
.LVL896:
.L671:
.LCFI137:
	.cfi_restore_state
	mr 30,3
.L670:
.LBB2859:
	.loc 5 223 0
	mr 3,31
	bl _ZN8idWindowD2Ev
	mr 3,30
.LEHB44:
	bl _Unwind_Resume
.LEHE44:
.LVL897:
.L675:
	mr 30,3
.LVL898:
.LBB2855:
.LBB2856:
.LBB2857:
	.loc 10 181 0
	addi 3,31,1048
	bl _ZN6idListIP8BSEntityE5ClearEv
.LBE2857:
.LBE2856:
.LBE2855:
	.loc 5 223 0
	mr 3,26
	bl _ZN9idWinBoolD1Ev
.LVL899:
.L667:
	mr 3,27
	bl _ZN9idWinBoolD1Ev
.LVL900:
.L668:
	mr 3,28
	bl _ZN9idWinBoolD1Ev
.LVL901:
.L669:
	mr 3,29
	bl _ZN9idWinBoolD1Ev
	b .L670
.LVL902:
.L674:
	mr 30,3
	b .L667
.LVL903:
.L673:
	mr 30,3
	b .L668
.LVL904:
.L672:
	mr 30,3
	b .L669
.LBE2859:
	.cfi_endproc
.LFE2869:
	.section	.gcc_except_table
.LLSDA2869:
	.byte	0xff
	.byte	0xff
	.byte	0x1
	.uleb128 .LLSDACSE2869-.LLSDACSB2869
.LLSDACSB2869:
	.uleb128 .LEHB38-.LFB2869
	.uleb128 .LEHE38-.LEHB38
	.uleb128 0
	.uleb128 0
	.uleb128 .LEHB39-.LFB2869
	.uleb128 .LEHE39-.LEHB39
	.uleb128 .L671-.LFB2869
	.uleb128 0
	.uleb128 .LEHB40-.LFB2869
	.uleb128 .LEHE40-.LEHB40
	.uleb128 .L672-.LFB2869
	.uleb128 0
	.uleb128 .LEHB41-.LFB2869
	.uleb128 .LEHE41-.LEHB41
	.uleb128 .L673-.LFB2869
	.uleb128 0
	.uleb128 .LEHB42-.LFB2869
	.uleb128 .LEHE42-.LEHB42
	.uleb128 .L674-.LFB2869
	.uleb128 0
	.uleb128 .LEHB43-.LFB2869
	.uleb128 .LEHE43-.LEHB43
	.uleb128 .L675-.LFB2869
	.uleb128 0
	.uleb128 .LEHB44-.LFB2869
	.uleb128 .LEHE44-.LEHB44
	.uleb128 0
	.uleb128 0
.LLSDACSE2869:
	.section	".text"
	.size	_ZN21idGameBearShootWindowC2EP15idDeviceContextP20idUserInterfaceLocal, .-_ZN21idGameBearShootWindowC2EP15idDeviceContextP20idUserInterfaceLocal
	.section	.text.startup,"ax",@progbits
	.align 2
	.type	_GLOBAL__sub_I_bearTurretAngle, @function
_GLOBAL__sub_I_bearTurretAngle:
.LFB3180:
	.loc 5 921 0
	.cfi_startproc
	.loc 5 921 0
	li 3,1
	b _Z41__static_initialization_and_destruction_0ii.constprop.39
	.cfi_endproc
.LFE3180:
	.size	_GLOBAL__sub_I_bearTurretAngle, .-_GLOBAL__sub_I_bearTurretAngle
	.section	.ctors,"aw",@progbits
	.align 2
	.long	_GLOBAL__sub_I_bearTurretAngle
	.section	.text.exit,"ax",@progbits
	.align 2
	.type	_GLOBAL__sub_D_bearTurretAngle, @function
_GLOBAL__sub_D_bearTurretAngle:
.LFB3181:
	.loc 5 921 0
	.cfi_startproc
	.loc 5 921 0
	li 3,0
	b _Z41__static_initialization_and_destruction_0ii.constprop.39
	.cfi_endproc
.LFE3181:
	.size	_GLOBAL__sub_D_bearTurretAngle, .-_GLOBAL__sub_D_bearTurretAngle
	.section	.dtors,"aw",@progbits
	.align 2
	.long	_GLOBAL__sub_D_bearTurretAngle
	.weak	_ZTS9idWinding
	.section	.rodata._ZTS9idWinding,"aG",@progbits,_ZTS9idWinding,comdat
	.align 2
	.type	_ZTS9idWinding, @object
	.size	_ZTS9idWinding, 11
_ZTS9idWinding:
	.string	"9idWinding"
	.weak	_ZTI9idWinding
	.section	.sdata._ZTI9idWinding,"awG",@progbits,_ZTI9idWinding,comdat
	.align 2
	.type	_ZTI9idWinding, @object
	.size	_ZTI9idWinding, 8
_ZTI9idWinding:
	.long	_ZTVN10__cxxabiv117__class_type_infoE+8
	.long	_ZTS9idWinding
	.weak	_ZTS14idFixedWinding
	.section	.rodata._ZTS14idFixedWinding,"aG",@progbits,_ZTS14idFixedWinding,comdat
	.align 2
	.type	_ZTS14idFixedWinding, @object
	.size	_ZTS14idFixedWinding, 17
_ZTS14idFixedWinding:
	.string	"14idFixedWinding"
	.weak	_ZTI14idFixedWinding
	.section	.rodata._ZTI14idFixedWinding,"aG",@progbits,_ZTI14idFixedWinding,comdat
	.align 2
	.type	_ZTI14idFixedWinding, @object
	.size	_ZTI14idFixedWinding, 12
_ZTI14idFixedWinding:
	.long	_ZTVN10__cxxabiv120__si_class_type_infoE+8
	.long	_ZTS14idFixedWinding
	.long	_ZTI9idWinding
	.weak	_ZTS8BSEntity
	.section	.rodata._ZTS8BSEntity,"aG",@progbits,_ZTS8BSEntity,comdat
	.align 2
	.type	_ZTS8BSEntity, @object
	.size	_ZTS8BSEntity, 10
_ZTS8BSEntity:
	.string	"8BSEntity"
	.weak	_ZTI8BSEntity
	.section	.sdata._ZTI8BSEntity,"awG",@progbits,_ZTI8BSEntity,comdat
	.align 2
	.type	_ZTI8BSEntity, @object
	.size	_ZTI8BSEntity, 8
_ZTI8BSEntity:
	.long	_ZTVN10__cxxabiv117__class_type_infoE+8
	.long	_ZTS8BSEntity
	.weak	_ZTS21idGameBearShootWindow
	.section	.rodata._ZTS21idGameBearShootWindow,"aG",@progbits,_ZTS21idGameBearShootWindow,comdat
	.align 2
	.type	_ZTS21idGameBearShootWindow, @object
	.size	_ZTS21idGameBearShootWindow, 24
_ZTS21idGameBearShootWindow:
	.string	"21idGameBearShootWindow"
	.weak	_ZTI21idGameBearShootWindow
	.section	.rodata._ZTI21idGameBearShootWindow,"aG",@progbits,_ZTI21idGameBearShootWindow,comdat
	.align 2
	.type	_ZTI21idGameBearShootWindow, @object
	.size	_ZTI21idGameBearShootWindow, 12
_ZTI21idGameBearShootWindow:
	.long	_ZTVN10__cxxabiv120__si_class_type_infoE+8
	.long	_ZTS21idGameBearShootWindow
	.long	_ZTI8idWindow
	.weak	_ZTV9idWinding
	.section	.rodata._ZTV9idWinding,"aG",@progbits,_ZTV9idWinding,comdat
	.align 3
	.type	_ZTV9idWinding, @object
	.size	_ZTV9idWinding, 24
_ZTV9idWinding:
	.long	0
	.long	_ZTI9idWinding
	.long	_ZN9idWindingD1Ev
	.long	_ZN9idWindingD0Ev
	.long	_ZN9idWinding5ClearEv
	.long	_ZN9idWinding10ReAllocateEib
	.weak	_ZTV14idFixedWinding
	.section	.rodata._ZTV14idFixedWinding,"aG",@progbits,_ZTV14idFixedWinding,comdat
	.align 3
	.type	_ZTV14idFixedWinding, @object
	.size	_ZTV14idFixedWinding, 24
_ZTV14idFixedWinding:
	.long	0
	.long	_ZTI14idFixedWinding
	.long	_ZN14idFixedWindingD1Ev
	.long	_ZN14idFixedWindingD0Ev
	.long	_ZN14idFixedWinding5ClearEv
	.long	_ZN14idFixedWinding10ReAllocateEib
	.weak	_ZTV8BSEntity
	.section	.rodata._ZTV8BSEntity,"aG",@progbits,_ZTV8BSEntity,comdat
	.align 3
	.type	_ZTV8BSEntity, @object
	.size	_ZTV8BSEntity, 32
_ZTV8BSEntity:
	.long	0
	.long	_ZTI8BSEntity
	.long	_ZN8BSEntityD1Ev
	.long	_ZN8BSEntityD0Ev
	.long	_ZN8BSEntity15WriteToSaveGameEP6idFile
	.long	_ZN8BSEntity16ReadFromSaveGameEP6idFileP21idGameBearShootWindow
	.long	_ZN8BSEntity6UpdateEf
	.long	_ZN8BSEntity4DrawEP15idDeviceContext
	.weak	_ZTV21idGameBearShootWindow
	.section	.rodata._ZTV21idGameBearShootWindow,"aG",@progbits,_ZTV21idGameBearShootWindow,comdat
	.align 3
	.type	_ZTV21idGameBearShootWindow, @object
	.size	_ZTV21idGameBearShootWindow, 148
_ZTV21idGameBearShootWindow:
	.long	0
	.long	_ZTI21idGameBearShootWindow
	.long	_ZN21idGameBearShootWindowD1Ev
	.long	_ZN21idGameBearShootWindowD0Ev
	.long	_ZN8idWindow9AllocatedEv
	.long	_ZN21idGameBearShootWindow15GetWinVarByNameEPKcbPP9drawWin_t
	.long	_ZN8idWindow5ParseEP8idParserb
	.long	_ZN21idGameBearShootWindow11HandleEventEPK10sysEvent_tPb
	.long	_ZN8idWindow6RedrawEff
	.long	_ZN8idWindow19ArchiveToDictionaryEP6idDictb
	.long	_ZN8idWindow18InitFromDictionaryEP6idDictb
	.long	_ZN21idGameBearShootWindow9PostParseEv
	.long	_ZN8idWindow8ActivateEbR5idStr
	.long	_ZN8idWindow7TriggerEv
	.long	_ZN8idWindow9GainFocusEv
	.long	_ZN8idWindow9LoseFocusEv
	.long	_ZN8idWindow11GainCaptureEv
	.long	_ZN8idWindow11LoseCaptureEv
	.long	_ZN8idWindow5SizedEv
	.long	_ZN8idWindow5MovedEv
	.long	_ZN21idGameBearShootWindow4DrawEiff
	.long	_ZN8idWindow9MouseExitEv
	.long	_ZN8idWindow10MouseEnterEv
	.long	_ZN8idWindow14DrawBackgroundERK11idRectangle
	.long	_ZN8idWindow16RouteMouseCoordsEff
	.long	_ZN8idWindow8SetBuddyEPS_
	.long	_ZN8idWindow17HandleBuddyUpdateEPS_
	.long	_ZN8idWindow12StateChangedEb
	.long	_ZN8idWindow16ReadFromDemoFileEP10idDemoFileb
	.long	_ZN8idWindow15WriteToDemoFileEP10idDemoFile
	.long	_ZN21idGameBearShootWindow15WriteToSaveGameEP6idFile
	.long	_ZN21idGameBearShootWindow16ReadFromSaveGameEP6idFile
	.long	_ZN8idWindow9HasActionEv
	.long	_ZN8idWindow10HasScriptsEv
	.long	_ZN8idWindow13RunNamedEventEPKc
	.long	_ZN21idGameBearShootWindow16ParseInternalVarEPKcP8idParser
	.long	_ZN21idGameBearShootWindow8ActivateEb
	.globl bearTurretForce
	.globl bearTurretAngle
	.weak	_ZTV9idWinBool
	.section	.rodata._ZTV9idWinBool,"aG",@progbits,_ZTV9idWinBool,comdat
	.align 3
	.type	_ZTV9idWinBool, @object
	.size	_ZTV9idWinBool, 48
_ZTV9idWinBool:
	.long	0
	.long	_ZTI9idWinBool
	.long	_ZN9idWinBoolD1Ev
	.long	_ZN9idWinBoolD0Ev
	.long	_ZN9idWinBool4InitEPKcP8idWindow
	.long	_ZN9idWinBool3SetEPKc
	.long	_ZN9idWinBool6UpdateEv
	.long	_ZNK9idWinBool5c_strEv
	.long	_ZN8idWinVar4SizeEv
	.long	_ZN9idWinBool15WriteToSaveGameEP6idFile
	.long	_ZN9idWinBool16ReadFromSaveGameEP6idFile
	.long	_ZNK9idWinBool1xEv
	.weak	_ZTV6idCVar
	.section	.rodata._ZTV6idCVar,"aG",@progbits,_ZTV6idCVar,comdat
	.align 3
	.type	_ZTV6idCVar, @object
	.size	_ZTV6idCVar, 32
_ZTV6idCVar:
	.long	0
	.long	_ZTI6idCVar
	.long	_ZN6idCVarD1Ev
	.long	_ZN6idCVarD0Ev
	.long	_ZN6idCVar17InternalSetStringEPKc
	.long	_ZN6idCVar15InternalSetBoolEb
	.long	_ZN6idCVar18InternalSetIntegerEi
	.long	_ZN6idCVar16InternalSetFloatEf
	.weak	_ZTI9idWinBool
	.section	.rodata._ZTI9idWinBool,"aG",@progbits,_ZTI9idWinBool,comdat
	.align 2
	.type	_ZTI9idWinBool, @object
	.size	_ZTI9idWinBool, 12
_ZTI9idWinBool:
	.long	_ZTVN10__cxxabiv120__si_class_type_infoE+8
	.long	_ZTS9idWinBool
	.long	_ZTI8idWinVar
	.weak	_ZTI6idCVar
	.section	.sdata._ZTI6idCVar,"awG",@progbits,_ZTI6idCVar,comdat
	.align 2
	.type	_ZTI6idCVar, @object
	.size	_ZTI6idCVar, 8
_ZTI6idCVar:
	.long	_ZTVN10__cxxabiv117__class_type_infoE+8
	.long	_ZTS6idCVar
	.weak	_ZTS9idWinBool
	.section	.rodata._ZTS9idWinBool,"aG",@progbits,_ZTS9idWinBool,comdat
	.align 2
	.type	_ZTS9idWinBool, @object
	.size	_ZTS9idWinBool, 11
_ZTS9idWinBool:
	.string	"9idWinBool"
	.weak	_ZTS6idCVar
	.section	.sdata._ZTS6idCVar,"awG",@progbits,_ZTS6idCVar,comdat
	.align 2
	.type	_ZTS6idCVar, @object
	.size	_ZTS6idCVar, 8
_ZTS6idCVar:
	.string	"6idCVar"
	.weak	_ZN6idCVarD1Ev
	.set	_ZN6idCVarD1Ev,_ZN6idCVarD2Ev
	.weak	_ZN9idWindingD1Ev
	.set	_ZN9idWindingD1Ev,_ZN9idWindingD2Ev
	.weak	_ZN9idWinBoolD1Ev
	.set	_ZN9idWinBoolD1Ev,_ZN9idWinBoolD2Ev
	.globl _ZN8BSEntityD1Ev
	.set	_ZN8BSEntityD1Ev,_ZN8BSEntityD2Ev
	.weak	_ZN14idFixedWindingD1Ev
	.set	_ZN14idFixedWindingD1Ev,_ZN14idFixedWindingD2Ev
	.weak	_ZN6idCVarC1EPKcS1_iS1_PFvRK9idCmdArgsPFvS1_EE
	.set	_ZN6idCVarC1EPKcS1_iS1_PFvRK9idCmdArgsPFvS1_EE,_ZN6idCVarC2EPKcS1_iS1_PFvRK9idCmdArgsPFvS1_EE
	.globl _ZN8BSEntityC1EP21idGameBearShootWindow
	.set	_ZN8BSEntityC1EP21idGameBearShootWindow,_ZN8BSEntityC2EP21idGameBearShootWindow
	.globl _ZN21idGameBearShootWindowD1Ev
	.set	_ZN21idGameBearShootWindowD1Ev,_ZN21idGameBearShootWindowD2Ev
	.globl _ZN21idGameBearShootWindowC1EP20idUserInterfaceLocal
	.set	_ZN21idGameBearShootWindowC1EP20idUserInterfaceLocal,_ZN21idGameBearShootWindowC2EP20idUserInterfaceLocal
	.globl _ZN21idGameBearShootWindowC1EP15idDeviceContextP20idUserInterfaceLocal
	.set	_ZN21idGameBearShootWindowC1EP15idDeviceContextP20idUserInterfaceLocal,_ZN21idGameBearShootWindowC2EP15idDeviceContextP20idUserInterfaceLocal
	.section	.rodata.cst4,"aM",@progbits,4
	.align 2
.LC0:
	.4byte	1065353216
.LC1:
	.4byte	0
.LC11:
	.4byte	-1082130432
.LC16:
	.4byte	1090519040
.LC17:
	.4byte	-1073741824
.LC18:
	.4byte	1015222895
.LC19:
	.4byte	1114636288
.LC20:
	.4byte	1128792064
.LC25:
	.4byte	1132986368
.LC26:
	.4byte	1125122048
.LC27:
	.4byte	-1037041664
.LC28:
	.4byte	1132593152
.LC30:
	.4byte	1126170624
.LC31:
	.4byte	1098907648
.LC32:
	.4byte	1133248512
.LC34:
	.4byte	1103101952
.LC36:
	.4byte	1115684864
.LC37:
	.4byte	1141473280
.LC38:
	.4byte	1120403456
.LC40:
	.4byte	1126432768
.LC42:
	.4byte	1109393408
.LC43:
	.4byte	1140457472
.LC44:
	.4byte	1138163712
.LC45:
	.4byte	1119092736
.LC46:
	.4byte	1117782016
.LC47:
	.4byte	1135476736
.LC48:
	.4byte	1056964608
.LC49:
	.4byte	1069547520
.LC50:
	.4byte	1131413504
.LC51:
	.4byte	1105723392
.LC52:
	.4byte	1094713344
.LC53:
	.4byte	1088421888
.LC54:
	.4byte	1059749626
.LC55:
	.4byte	1136525312
.LC57:
	.4byte	1103626240
.LC58:
	.4byte	1143111680
.LC59:
	.4byte	1157234688
.LC60:
	.4byte	1144750080
.LC63:
	.4byte	1501560836
.LC64:
	.4byte	1130758144
.LC66:
	.4byte	1132724224
.LC70:
	.4byte	1043878380
.LC71:
	.4byte	1119879168
.LC72:
	.4byte	1135017984
.LC73:
	.4byte	1113325568
.LC74:
	.4byte	1134231552
.LC79:
	.4byte	1106247680
.LC80:
	.4byte	1203982208
.LC81:
	.4byte	939524096
.LC82:
	.4byte	1117126656
.LC83:
	.4byte	1127481344
	.section	.rodata.str1.4,"aMS",@progbits,1
	.align 2
.LC2:
	.string	""
	.zero	3
.LC3:
	.string	"%i"
	.zero	1
.LC4:
	.string	"%s 0"
	.zero	3
.LC5:
	.string	"%s 1"
	.zero	3
.LC6:
	.string	"gamerunning"
.LC7:
	.string	"onFire"
	.zero	1
.LC8:
	.string	"onContinue"
	.zero	1
.LC9:
	.string	"onNewGame"
	.zero	2
.LC10:
	.string	"0"
	.zero	2
.LC12:
	.string	"bearTurretAngle"
.LC13:
	.string	"bearTurretForce"
.LC14:
	.string	"200"
.LC15:
	.string	"BSEntity::BSEntity(idGameBearShootWindow* _game) size %d\r\n"
	.zero	1
.LC21:
	.string	"game/bearshoot/helicopter_broken"
	.zero	3
.LC22:
	.string	"game/bearshoot/goal_dead"
	.zero	3
.LC23:
	.string	"game/bearshoot/gun_blast"
	.zero	3
.LC24:
	.string	"game/bearshoot/turret"
	.zero	2
.LC29:
	.string	"game/bearshoot/turret_base"
	.zero	1
.LC33:
	.string	"game/bearshoot/bear"
.LC35:
	.string	"game/bearshoot/helicopter"
	.zero	2
.LC39:
	.string	"game/bearshoot/goal"
.LC41:
	.string	"game/bearshoot/wind"
.LC61:
	.string	"EnableFireButton"
	.zero	3
.LC65:
	.string	"arcade_balloonpop"
	.zero	2
.LC67:
	.string	"arcade_beargroan"
	.zero	3
.LC68:
	.string	"DisableFireButton"
	.zero	2
.LC69:
	.string	"arcade_sargeshoot"
	.zero	2
.LC75:
	.string	"GameOver"
	.zero	3
.LC76:
	.string	"player_score"
	.zero	3
.LC77:
	.string	"current_level"
	.zero	2
.LC78:
	.string	"arcade_levelcomplete1"
	.zero	2
.LC84:
	.string	"%2.1f"
	.zero	2
.LC85:
	.string	"time_remaining"
	.zero	1
.LC86:
	.string	"idGameBearShootWindow::idGameBearShootWindow size %d\r\n"
	.section	".bss"
	.align 2
	.set	.LANCHOR0,. + 0
	.type	_ZL17VAR_GUIPREFIX_LEN, @object
	.size	_ZL17VAR_GUIPREFIX_LEN, 4
_ZL17VAR_GUIPREFIX_LEN:
	.zero	4
	.type	bearTurretAngle, @object
	.size	bearTurretAngle, 52
bearTurretAngle:
	.zero	52
	.type	bearTurretForce, @object
	.size	bearTurretForce, 52
bearTurretForce:
	.zero	52
	.section	".text"
.Letext0:
	.file 16 "<built-in>"
	.file 17 "c:\\utils\\devkitpro\\devkitppc\\bin\\../lib/gcc/powerpc-eabi/4.6.3/include/stddef.h"
	.file 18 "c:\\utils\\devkitpro\\devkitppc\\bin\\../lib/gcc/powerpc-eabi/4.6.3/../../../../powerpc-eabi/include/sys/types.h"
	.file 19 "d:/Data/Nintendo/DoomGX/src/ui/../idlib/../sys/sys_public.h"
	.file 20 "d:/Data/Nintendo/DoomGX/src/ui/../idlib/../framework/Common.h"
	.file 21 "d:/Data/Nintendo/DoomGX/src/ui/../idlib/../framework/FileSystem.h"
	.file 22 "d:/Data/Nintendo/DoomGX/src/ui/../idlib/../idlib/Lib.h"
	.file 23 "d:/Data/Nintendo/DoomGX/src/ui/../idlib/../idlib/math/Angles.h"
	.file 24 "d:/Data/Nintendo/DoomGX/src/ui/../idlib/../idlib/math/Matrix.h"
	.file 25 "d:/Data/Nintendo/DoomGX/src/ui/../idlib/../idlib/math/Quat.h"
	.file 26 "d:/Data/Nintendo/DoomGX/src/ui/../idlib/../idlib/math/Rotation.h"
	.file 27 "d:/Data/Nintendo/DoomGX/src/ui/../idlib/../idlib/math/Plane.h"
	.file 28 "d:/Data/Nintendo/DoomGX/src/ui/../idlib/../idlib/math/Ode.h"
	.file 29 "d:/Data/Nintendo/DoomGX/src/ui/../idlib/../idlib/bv/Sphere.h"
	.file 30 "d:/Data/Nintendo/DoomGX/src/ui/../idlib/../idlib/bv/Bounds.h"
	.file 31 "d:/Data/Nintendo/DoomGX/src/ui/../idlib/../idlib/bv/Box.h"
	.file 32 "d:/Data/Nintendo/DoomGX/src/ui/../idlib/../idlib/bv/Frustum.h"
	.file 33 "d:/Data/Nintendo/DoomGX/src/ui/../idlib/../idlib/geometry/DrawVert.h"
	.file 34 "d:/Data/Nintendo/DoomGX/src/ui/../idlib/../idlib/geometry/JointTransform.h"
	.file 35 "d:/Data/Nintendo/DoomGX/src/ui/../idlib/../idlib/geometry/Surface.h"
	.file 36 "d:/Data/Nintendo/DoomGX/src/ui/../idlib/../idlib/geometry/TraceModel.h"
	.file 37 "d:/Data/Nintendo/DoomGX/src/ui/../idlib/../idlib/Token.h"
	.file 38 "d:/Data/Nintendo/DoomGX/src/ui/../idlib/../idlib/Lexer.h"
	.file 39 "d:/Data/Nintendo/DoomGX/src/ui/../idlib/../framework/File.h"
	.file 40 "d:/Data/Nintendo/DoomGX/src/ui/../idlib/../idlib/Parser.h"
	.file 41 "d:/Data/Nintendo/DoomGX/src/ui/../idlib/../idlib/containers/HashIndex.h"
	.file 42 "d:/Data/Nintendo/DoomGX/src/ui/../idlib/../idlib/containers/StrList.h"
	.file 43 "d:/Data/Nintendo/DoomGX/src/ui/../idlib/../idlib/containers/StrPool.h"
	.file 44 "d:/Data/Nintendo/DoomGX/src/ui/../idlib/../idlib/containers/PlaneSet.h"
	.file 45 "d:/Data/Nintendo/DoomGX/src/ui/../idlib/../idlib/LangDict.h"
	.file 46 "d:/Data/Nintendo/DoomGX/src/ui/../idlib/../idlib/BitMsg.h"
	.file 47 "d:/Data/Nintendo/DoomGX/src/ui/../idlib/../idlib/MapFile.h"
	.file 48 "d:/Data/Nintendo/DoomGX/src/ui/../idlib/../framework/UsercmdGen.h"
	.file 49 "d:/Data/Nintendo/DoomGX/src/ui/../idlib/../framework/DeclManager.h"
	.file 50 "d:/Data/Nintendo/DoomGX/src/ui/../idlib/../framework/DeclParticle.h"
	.file 51 "d:/Data/Nintendo/DoomGX/src/ui/../idlib/../renderer/RenderWorld.h"
	.file 52 "d:/Data/Nintendo/DoomGX/src/ui/../idlib/../renderer/Cinematic.h"
	.file 53 "d:/Data/Nintendo/DoomGX/src/ui/../idlib/../renderer/Model.h"
	.file 54 "c:\\utils\\devkitpro\\devkitppc\\bin\\../lib/gcc/powerpc-eabi/4.6.3/../../../../powerpc-eabi/include/c++/4.6.3/powerpc-eabi/bits/c++config.h"
	.file 55 "c:\\utils\\devkitpro\\devkitppc\\bin\\../lib/gcc/powerpc-eabi/4.6.3/../../../../powerpc-eabi/include/c++/4.6.3/exception"
	.file 56 "d:/Data/Nintendo/DoomGX/src/ui/../idlib/../renderer/RenderSystem.h"
	.file 57 "d:/Data/Nintendo/DoomGX/src/ui/../idlib/../sound/sound.h"
	.file 58 "d:/Data/Nintendo/DoomGX/src/ui/../idlib/../ui/UserInterface.h"
	.file 59 "d:/Data/Nintendo/DoomGX/src/ui/../idlib/../cm/CollisionModel.h"
	.file 60 "d:/Data/Nintendo/DoomGX/src/ui/../idlib/../tools/compilers/aas/AASFile.h"
	.file 61 "d:/Data/Nintendo/DoomGX/src/ui/../idlib/../game/Game.h"
	.file 62 "d:/Data/Nintendo/DoomGX/src/ui/../idlib/../framework/async/NetworkSystem.h"
	.file 63 "d:/Data/Nintendo/DoomGX/src/ui/../idlib/../renderer/ModelManager.h"
	.file 64 "d:/Data/Nintendo/DoomGX/src/ui/../idlib/../tools/compilers/aas/AASFileManager.h"
	.file 65 "d:/Data/Nintendo/DoomGX/src/ui/../idlib/../framework/KeyInput.h"
	.file 66 "d:/Data/Nintendo/DoomGX/src/ui/../idlib/../framework/Session.h"
	.file 67 "d:/Data/Nintendo/DoomGX/src/ui/../idlib/../ui/ListGUI.h"
	.file 68 "d:/Data/Nintendo/DoomGX/src/ui/Rectangle.h"
	.file 69 "d:/Data/Nintendo/DoomGX/src/ui/DeviceContext.h"
	.file 70 "d:/Data/Nintendo/DoomGX/src/ui/GuiScript.h"
	.file 71 "d:/Data/Nintendo/DoomGX/src/ui/SimpleWindow.h"
	.file 72 "d:/Data/Nintendo/DoomGX/src/ui/UserInterfaceLocal.h"
	.file 73 "d:/Data/Nintendo/DoomGX/src/ui/GameBearShootWindow.h"
	.file 74 "d:/Data/Nintendo/DoomGX/src/ui/../idlib/../framework/Console.h"
	.file 75 "d:/Data/Nintendo/DoomGX/src/ui/../idlib/../idlib/math/Curve.h"
	.file 76 "d:/Data/Nintendo/DoomGX/src/ui/../idlib/../idlib/math/Simd.h"
	.file 77 "d:/Data/Nintendo/DoomGX/src/ui/../idlib/../framework/BuildVersion.h"
	.file 78 "d:/Data/Nintendo/DoomGX/src/ui/../idlib/precompiled.h"
	.file 79 "d:/Data/Nintendo/DoomGX/src/ui/../idlib/../framework/EventLoop.h"
	.file 80 "d:/Data/Nintendo/DoomGX/src/ui/../idlib/../framework/EditField.h"
	.file 81 "d:/Data/Nintendo/DoomGX/src/ui/../idlib/../framework/async/AsyncNetwork.h"
	.file 82 "d:/Data/Nintendo/DoomGX/src/ui/../idlib/../framework/async/AsyncServer.h"
	.file 83 "d:/Data/Nintendo/DoomGX/src/ui/../framework/Session_local.h"