	.file	"GameSSDWindow.cpp"
	.section	".text"
.Ltext0:
	.section	.text._ZN14idFixedWinding5ClearEv,"axG",@progbits,_ZN14idFixedWinding5ClearEv,comdat
	.align 2
	.weak	_ZN14idFixedWinding5ClearEv
	.type	_ZN14idFixedWinding5ClearEv, @function
_ZN14idFixedWinding5ClearEv:
.LFB1502:
	.file 1 "d:/Data/Nintendo/DoomGX/src/ui/../idlib/../idlib/geometry/Winding.h"
	.loc 1 398 0
	.cfi_startproc
.LVL0:
	.loc 1 399 0
	li 0,0
	.loc 1 400 0
	.loc 1 399 0
	stw 0,4(3)
	.loc 1 400 0
	blr
	.cfi_endproc
.LFE1502:
	.size	_ZN14idFixedWinding5ClearEv, .-_ZN14idFixedWinding5ClearEv
	.section	.text._ZN9idWinBool15WriteToSaveGameEP6idFile,"axG",@progbits,_ZN9idWinBool15WriteToSaveGameEP6idFile,comdat
	.align 2
	.weak	_ZN9idWinBool15WriteToSaveGameEP6idFile
	.type	_ZN9idWinBool15WriteToSaveGameEP6idFile, @function
_ZN9idWinBool15WriteToSaveGameEP6idFile:
.LFB2613:
	.file 2 "d:/Data/Nintendo/DoomGX/src/ui/Winvar.h"
	.loc 2 145 0
	.cfi_startproc
.LVL1:
	mflr 0
	stwu 1,-16(1)
.LCFI0:
	.cfi_def_cfa_offset 16
	.cfi_register 65, 0
	.loc 2 146 0
	li 5,1
	.loc 2 145 0
	stw 30,8(1)
	mr 30,3
	.cfi_offset 30, -8
	stw 31,12(1)
	mr 31,4
	.cfi_offset 31, -4
	stw 0,20(1)
	.loc 2 146 0
	lwz 9,0(4)
	addi 4,3,12
.LVL2:
	mr 3,31
.LVL3:
	lwz 0,24(9)
	.cfi_offset 65, 4
	mtctr 0
	bctrl
	.loc 2 147 0
	lwz 9,0(31)
	mr 3,31
	addi 4,30,13
	lwz 0,24(9)
	li 5,1
	mtctr 0
	bctrl
	.loc 2 148 0
	lwz 0,20(1)
	lwz 30,8(1)
.LVL4:
	mtlr 0
	lwz 31,12(1)
.LVL5:
	addi 1,1,16
.LCFI1:
	.cfi_def_cfa_offset 0
	.cfi_restore 31
	.cfi_restore 30
	blr
	.cfi_endproc
.LFE2613:
	.size	_ZN9idWinBool15WriteToSaveGameEP6idFile, .-_ZN9idWinBool15WriteToSaveGameEP6idFile
	.section	.text._ZN9idWinBool16ReadFromSaveGameEP6idFile,"axG",@progbits,_ZN9idWinBool16ReadFromSaveGameEP6idFile,comdat
	.align 2
	.weak	_ZN9idWinBool16ReadFromSaveGameEP6idFile
	.type	_ZN9idWinBool16ReadFromSaveGameEP6idFile, @function
_ZN9idWinBool16ReadFromSaveGameEP6idFile:
.LFB2614:
	.loc 2 149 0
	.cfi_startproc
.LVL6:
	mflr 0
	stwu 1,-16(1)
.LCFI2:
	.cfi_def_cfa_offset 16
	.cfi_register 65, 0
	.loc 2 150 0
	li 5,1
	.loc 2 149 0
	stw 30,8(1)
	mr 30,3
	.cfi_offset 30, -8
	stw 31,12(1)
	mr 31,4
	.cfi_offset 31, -4
	stw 0,20(1)
	.loc 2 150 0
	lwz 9,0(4)
	addi 4,3,12
.LVL7:
	mr 3,31
.LVL8:
	lwz 0,20(9)
	.cfi_offset 65, 4
	mtctr 0
	bctrl
	.loc 2 151 0
	lwz 9,0(31)
	mr 3,31
	addi 4,30,13
	lwz 0,20(9)
	li 5,1
	mtctr 0
	bctrl
	.loc 2 152 0
	lwz 0,20(1)
	lwz 30,8(1)
.LVL9:
	mtlr 0
	lwz 31,12(1)
.LVL10:
	addi 1,1,16
.LCFI3:
	.cfi_def_cfa_offset 0
	.cfi_restore 31
	.cfi_restore 30
	blr
	.cfi_endproc
.LFE2614:
	.size	_ZN9idWinBool16ReadFromSaveGameEP6idFile, .-_ZN9idWinBool16ReadFromSaveGameEP6idFile
	.section	.text._ZNK9idWinBool1xEv,"axG",@progbits,_ZNK9idWinBool1xEv,comdat
	.align 2
	.weak	_ZNK9idWinBool1xEv
	.type	_ZNK9idWinBool1xEv, @function
_ZNK9idWinBool1xEv:
.LFB2615:
	.loc 2 154 0
	.cfi_startproc
.LVL11:
	.loc 2 154 0
	lbz 0,13(3)
	lis 9,.LC1@ha
	lfs 1,.LC1@l(9)
	cmpwi 7,0,0
	beqlr+ 7
	lis 9,.LC0@ha
	lfs 1,.LC0@l(9)
	blr
	.cfi_endproc
.LFE2615:
	.size	_ZNK9idWinBool1xEv, .-_ZNK9idWinBool1xEv
	.section	.text._ZN8idWindow8SetBuddyEPS_,"axG",@progbits,_ZN8idWindow8SetBuddyEPS_,comdat
	.align 2
	.weak	_ZN8idWindow8SetBuddyEPS_
	.type	_ZN8idWindow8SetBuddyEPS_, @function
_ZN8idWindow8SetBuddyEPS_:
.LFB2820:
	.file 3 "d:/Data/Nintendo/DoomGX/src/ui/Window.h"
	.loc 3 279 0
	.cfi_startproc
.LVL12:
	.loc 3 279 0
	blr
	.cfi_endproc
.LFE2820:
	.size	_ZN8idWindow8SetBuddyEPS_, .-_ZN8idWindow8SetBuddyEPS_
	.section	.text._ZN8idWindow17HandleBuddyUpdateEPS_,"axG",@progbits,_ZN8idWindow17HandleBuddyUpdateEPS_,comdat
	.align 2
	.weak	_ZN8idWindow17HandleBuddyUpdateEPS_
	.type	_ZN8idWindow17HandleBuddyUpdateEPS_, @function
_ZN8idWindow17HandleBuddyUpdateEPS_:
.LFB2821:
	.loc 3 280 0
	.cfi_startproc
.LVL13:
	.loc 3 280 0
	blr
	.cfi_endproc
.LFE2821:
	.size	_ZN8idWindow17HandleBuddyUpdateEPS_, .-_ZN8idWindow17HandleBuddyUpdateEPS_
	.section	.text._ZN8idWindow9HasActionEv,"axG",@progbits,_ZN8idWindow9HasActionEv,comdat
	.align 2
	.weak	_ZN8idWindow9HasActionEv
	.type	_ZN8idWindow9HasActionEv, @function
_ZN8idWindow9HasActionEv:
.LFB2822:
	.loc 3 293 0
	.cfi_startproc
.LVL14:
	.loc 3 293 0
	blr
	.cfi_endproc
.LFE2822:
	.size	_ZN8idWindow9HasActionEv, .-_ZN8idWindow9HasActionEv
	.section	.text._ZN8idWindow10HasScriptsEv,"axG",@progbits,_ZN8idWindow10HasScriptsEv,comdat
	.align 2
	.weak	_ZN8idWindow10HasScriptsEv
	.type	_ZN8idWindow10HasScriptsEv, @function
_ZN8idWindow10HasScriptsEv:
.LFB2823:
	.loc 3 294 0
	.cfi_startproc
.LVL15:
	.loc 3 294 0
	blr
	.cfi_endproc
.LFE2823:
	.size	_ZN8idWindow10HasScriptsEv, .-_ZN8idWindow10HasScriptsEv
	.section	.text._ZN9SSDEntity12EntityUpdateEv,"axG",@progbits,_ZN9SSDEntity12EntityUpdateEv,comdat
	.align 2
	.weak	_ZN9SSDEntity12EntityUpdateEv
	.type	_ZN9SSDEntity12EntityUpdateEv, @function
_ZN9SSDEntity12EntityUpdateEv:
.LFB2846:
	.file 4 "d:/Data/Nintendo/DoomGX/src/ui/GameSSDWindow.h"
	.loc 4 118 0
	.cfi_startproc
.LVL16:
	.loc 4 118 0
	blr
	.cfi_endproc
.LFE2846:
	.size	_ZN9SSDEntity12EntityUpdateEv, .-_ZN9SSDEntity12EntityUpdateEv
	.section	.text._ZN9SSDEntity5OnHitEi,"axG",@progbits,_ZN9SSDEntity5OnHitEi,comdat
	.align 2
	.weak	_ZN9SSDEntity5OnHitEi
	.type	_ZN9SSDEntity5OnHitEi, @function
_ZN9SSDEntity5OnHitEi:
.LFB2847:
	.loc 4 122 0
	.cfi_startproc
.LVL17:
	.loc 4 122 0
	blr
	.cfi_endproc
.LFE2847:
	.size	_ZN9SSDEntity5OnHitEi, .-_ZN9SSDEntity5OnHitEi
	.section	.text._ZN9SSDEntity14OnStrikePlayerEv,"axG",@progbits,_ZN9SSDEntity14OnStrikePlayerEv,comdat
	.align 2
	.weak	_ZN9SSDEntity14OnStrikePlayerEv
	.type	_ZN9SSDEntity14OnStrikePlayerEv, @function
_ZN9SSDEntity14OnStrikePlayerEv:
.LFB2848:
	.loc 4 123 0
	.cfi_startproc
.LVL18:
	.loc 4 123 0
	blr
	.cfi_endproc
.LFE2848:
	.size	_ZN9SSDEntity14OnStrikePlayerEv, .-_ZN9SSDEntity14OnStrikePlayerEv
	.section	".text"
	.align 2
	.globl _ZN12SSDCrossHair15WriteToSaveGameEP6idFile
	.type	_ZN12SSDCrossHair15WriteToSaveGameEP6idFile, @function
_ZN12SSDCrossHair15WriteToSaveGameEP6idFile:
.LFB2855:
	.file 5 "d:/Data/Nintendo/DoomGX/src/ui/GameSSDWindow.cpp"
	.loc 5 65 0
	.cfi_startproc
.LVL19:
	mflr 0
	stwu 1,-16(1)
.LCFI4:
	.cfi_def_cfa_offset 16
	.cfi_register 65, 0
	.loc 5 67 0
	li 5,4
	.loc 5 65 0
	stw 30,8(1)
	mr 30,3
	.cfi_offset 30, -8
	stw 31,12(1)
	mr 31,4
	.cfi_offset 31, -4
	stw 0,20(1)
	.loc 5 67 0
	lwz 9,0(4)
	addi 4,3,12
.LVL20:
	mr 3,31
.LVL21:
	lwz 0,24(9)
	.cfi_offset 65, 4
	mtctr 0
	bctrl
	.loc 5 68 0
	lwz 9,0(31)
	addi 4,30,16
	li 5,4
	lwz 0,24(9)
	mr 3,31
	mtctr 0
	bctrl
	.loc 5 69 0
	lwz 9,0(31)
	mr 3,31
	addi 4,30,20
	lwz 0,24(9)
	li 5,4
	mtctr 0
	bctrl
	.loc 5 71 0
	lwz 0,20(1)
	lwz 30,8(1)
.LVL22:
	mtlr 0
	lwz 31,12(1)
.LVL23:
	addi 1,1,16
.LCFI5:
	.cfi_def_cfa_offset 0
	.cfi_restore 31
	.cfi_restore 30
	blr
	.cfi_endproc
.LFE2855:
	.size	_ZN12SSDCrossHair15WriteToSaveGameEP6idFile, .-_ZN12SSDCrossHair15WriteToSaveGameEP6idFile
	.align 2
	.globl _ZN9SSDEntity13DestroyEntityEv
	.type	_ZN9SSDEntity13DestroyEntityEv, @function
_ZN9SSDEntity13DestroyEntityEv:
.LFB2878:
	.loc 5 304 0
	.cfi_startproc
.LVL24:
	.loc 5 305 0
	li 0,0
	.loc 5 306 0
	.loc 5 305 0
	stb 0,167(3)
	.loc 5 306 0
	blr
	.cfi_endproc
.LFE2878:
	.size	_ZN9SSDEntity13DestroyEntityEv, .-_ZN9SSDEntity13DestroyEntityEv
	.align 2
	.globl _ZN8SSDMover12EntityUpdateEv
	.type	_ZN8SSDMover12EntityUpdateEv, @function
_ZN8SSDMover12EntityUpdateEv:
.LFB2892:
	.loc 5 382 0
	.cfi_startproc
.LVL25:
.LBB1937:
	.loc 5 387 0
	lwz 0,160(3)
	lis 9,.LC3@ha
.LBE1937:
	.loc 5 382 0
	stwu 1,-16(1)
.LCFI6:
	.cfi_def_cfa_offset 16
.LBB1952:
	.loc 5 387 0
	lis 11,.LC4@ha
	xoris 0,0,0x8000
	lfs 0,.LC3@l(9)
	stw 0,12(1)
	lis 0,0x4330
	stw 0,8(1)
.LBB1938:
.LBB1939:
	.loc 5 391 0
	lis 9,.LC5@ha
.LBE1939:
.LBE1938:
	.loc 5 387 0
	lfs 11,.LC4@l(11)
	lfd 13,8(1)
.LBB1946:
.LBB1940:
	.loc 5 391 0
	lfs 12,.LC5@l(9)
.LBE1940:
.LBE1946:
	.loc 5 387 0
	fsub 13,13,0
	.loc 5 390 0
	lfs 0,180(3)
.LBB1947:
.LBB1941:
	.loc 5 391 0
	lfs 7,76(3)
	.file 6 "d:/Data/Nintendo/DoomGX/src/ui/../idlib/../idlib/math/Vector.h"
	.loc 6 456 0
	lfs 10,48(3)
.LBE1941:
.LBE1947:
	.loc 5 387 0
	frsp 13,13
.LBB1948:
.LBB1942:
	.loc 6 458 0
	lfs 9,56(3)
.LBE1942:
.LBE1948:
	.loc 5 387 0
	lfs 6,172(3)
	lfs 8,176(3)
	fdivs 13,13,11
.LVL26:
.LBB1949:
.LBB1943:
	.loc 6 456 0
	lfs 5,168(3)
	.loc 6 457 0
	lfs 11,52(3)
.LBE1943:
.LBE1949:
	.loc 5 390 0
	fmuls 0,13,0
.LBB1950:
.LBB1944:
	.loc 6 456 0
	fmadds 10,13,5,10
	.loc 6 457 0
	fmadds 11,13,6,11
	.loc 5 391 0
	fmadds 0,0,12,7
	.loc 6 458 0
	fmadds 13,13,8,9
.LVL27:
	.loc 6 456 0
	stfs 10,48(3)
	.loc 6 457 0
	stfs 11,52(3)
.LBE1944:
.LBE1950:
	.loc 5 392 0
	fcmpu 7,0,12
	.loc 5 391 0
	stfs 0,76(3)
.LBB1951:
.LBB1945:
	.loc 6 458 0
	stfs 13,56(3)
.LBE1945:
.LBE1951:
	.loc 5 392 0
	cror 30,29,30
	bne- 7,.L18
.LVL28:
	.loc 5 393 0
	fsubs 0,0,12
	stfs 0,76(3)
.LVL29:
.L18:
	.loc 5 395 0
	lis 11,.LC1@ha
	lfs 13,.LC1@l(11)
	fcmpu 7,0,13
	bnl- 7,.L17
	.loc 5 396 0
	lfs 13,.LC5@l(9)
	fadds 0,0,13
	stfs 0,76(3)
.L17:
.LBE1952:
	.loc 5 398 0
	addi 1,1,16
.LCFI7:
	.cfi_def_cfa_offset 0
	blr
	.cfi_endproc
.LFE2892:
	.size	_ZN8SSDMover12EntityUpdateEv, .-_ZN8SSDMover12EntityUpdateEv
	.align 2
	.globl _ZN11SSDAsteroid12EntityUpdateEv
	.type	_ZN11SSDAsteroid12EntityUpdateEv, @function
_ZN11SSDAsteroid12EntityUpdateEv:
.LFB2903:
	.loc 5 453 0
	.cfi_startproc
.LVL30:
	.loc 5 456 0
	.loc 5 455 0
	b _ZN8SSDMover12EntityUpdateEv
.LVL31:
	.cfi_endproc
.LFE2903:
	.size	_ZN11SSDAsteroid12EntityUpdateEv, .-_ZN11SSDAsteroid12EntityUpdateEv
	.align 2
	.globl _ZN13SSDProjectile12EntityUpdateEv
	.type	_ZN13SSDProjectile12EntityUpdateEv, @function
_ZN13SSDProjectile12EntityUpdateEv:
.LFB2962:
	.loc 5 979 0
	.cfi_startproc
.LVL32:
.LBB1953:
	.loc 5 984 0
	lwz 0,160(3)
	lis 9,.LC3@ha
.LBE1953:
	.loc 5 979 0
	stwu 1,-16(1)
.LCFI8:
	.cfi_def_cfa_offset 16
.LBB1968:
	.loc 5 984 0
	xoris 0,0,0x8000
	lfs 0,.LC3@l(9)
	stw 0,12(1)
	lis 0,0x4330
	stw 0,8(1)
	lis 9,.LC4@ha
	lfs 11,.LC4@l(9)
	lfd 13,8(1)
.LBB1954:
.LBB1955:
	.loc 6 439 0
	lfs 12,176(3)
.LBE1955:
.LBE1954:
	.loc 5 984 0
	fsub 13,13,0
.LBB1958:
.LBB1959:
	.loc 6 458 0
	lfs 7,56(3)
.LBE1959:
.LBE1958:
	.loc 5 984 0
	lfs 0,188(3)
.LBB1963:
.LBB1956:
	.loc 6 439 0
	lfs 6,168(3)
.LBE1956:
.LBE1963:
	.loc 5 984 0
	frsp 13,13
	.loc 5 987 0
	lfs 10,208(3)
.LBB1964:
.LBB1960:
	.loc 6 456 0
	lfs 9,48(3)
	.loc 6 457 0
	lfs 8,52(3)
.LBE1960:
.LBE1964:
	.loc 5 984 0
	fdivs 13,13,11
.LVL33:
.LBB1965:
.LBB1957:
	.loc 6 439 0
	lfs 11,172(3)
	fmuls 12,13,12
.LVL34:
	fmuls 11,13,11
.LVL35:
	fmuls 13,13,6
.LVL36:
.LBE1957:
.LBE1965:
.LBB1966:
.LBB1961:
	.loc 6 458 0
	fmadds 12,0,12,7
.LVL37:
	.loc 6 457 0
	fmadds 11,0,11,8
.LVL38:
	.loc 6 456 0
	fmadds 0,0,13,9
.LBE1961:
.LBE1966:
	.loc 5 987 0
	fcmpu 7,10,12
.LBB1967:
.LBB1962:
	.loc 6 458 0
	stfs 12,56(3)
	.loc 6 457 0
	stfs 11,52(3)
	.loc 6 456 0
	stfs 0,48(3)
.LBE1962:
.LBE1967:
	.loc 5 987 0
	bnl- 7,.L25
.LVL39:
	.loc 5 989 0
	li 0,1
	stb 0,164(3)
.LVL40:
.L25:
.LBE1968:
	.loc 5 991 0
	addi 1,1,16
.LCFI9:
	.cfi_def_cfa_offset 0
	blr
	.cfi_endproc
.LFE2962:
	.size	_ZN13SSDProjectile12EntityUpdateEv, .-_ZN13SSDProjectile12EntityUpdateEv
	.section	.text._ZN9idWinding5ClearEv,"axG",@progbits,_ZN9idWinding5ClearEv,comdat
	.align 2
	.weak	_ZN9idWinding5ClearEv
	.type	_ZN9idWinding5ClearEv, @function
_ZN9idWinding5ClearEv:
.LFB1473:
	.loc 1 249 0
	.cfi_startproc
.LVL41:
	mflr 0
	stwu 1,-16(1)
.LCFI10:
	.cfi_def_cfa_offset 16
	.cfi_register 65, 0
	stw 31,12(1)
	mr 31,3
	.cfi_offset 31, -4
	stw 0,20(1)
	.loc 1 250 0
	li 0,0
	.cfi_offset 65, 4
	.loc 1 251 0
	lwz 3,8(3)
.LVL42:
	.loc 1 250 0
	stw 0,4(31)
	.loc 1 251 0
	cmpwi 7,3,0
	beq- 7,.L30
	.loc 1 251 0 is_stmt 0 discriminator 1
	bl _ZdaPv
.L30:
	.loc 1 252 0 is_stmt 1
	li 0,0
	stw 0,8(31)
	.loc 1 253 0
	lwz 0,20(1)
	lwz 31,12(1)
.LVL43:
	mtlr 0
	addi 1,1,16
.LCFI11:
	.cfi_def_cfa_offset 0
	.cfi_restore 31
	blr
	.cfi_endproc
.LFE1473:
	.size	_ZN9idWinding5ClearEv, .-_ZN9idWinding5ClearEv
	.section	.text._ZN9idWindingD2Ev,"axG",@progbits,_ZN9idWindingD5Ev,comdat
	.align 2
	.weak	_ZN9idWindingD2Ev
	.type	_ZN9idWindingD2Ev, @function
_ZN9idWindingD2Ev:
.LFB1461:
	.loc 1 183 0
	.cfi_startproc
.LVL44:
	mflr 0
	stwu 1,-16(1)
.LCFI12:
	.cfi_def_cfa_offset 16
	.cfi_register 65, 0
.LBB1970:
	lis 9,_ZTV9idWinding+8@ha
.LBE1970:
	stw 31,12(1)
	mr 31,3
	.cfi_offset 31, -4
	stw 0,20(1)
.LBB1971:
	.loc 1 183 0
	la 0,_ZTV9idWinding+8@l(9)
	.cfi_offset 65, 4
	.loc 1 184 0
	lwz 3,8(3)
.LVL45:
	.loc 1 183 0
	stw 0,0(31)
	.loc 1 184 0
	cmpwi 7,3,0
	beq- 7,.L32
	.loc 1 184 0 is_stmt 0 discriminator 1
	bl _ZdaPv
.L32:
	.loc 1 185 0 is_stmt 1
	li 0,0
	stw 0,8(31)
.LBE1971:
	.loc 1 186 0
	lwz 0,20(1)
	lwz 31,12(1)
.LVL46:
	mtlr 0
	addi 1,1,16
.LCFI13:
	.cfi_def_cfa_offset 0
	.cfi_restore 31
	blr
	.cfi_endproc
.LFE1461:
	.size	_ZN9idWindingD2Ev, .-_ZN9idWindingD2Ev
	.section	.text._ZN8idWinVar4SizeEv,"axG",@progbits,_ZN8idWinVar4SizeEv,comdat
	.align 2
	.weak	_ZN8idWinVar4SizeEv
	.type	_ZN8idWinVar4SizeEv, @function
_ZN8idWinVar4SizeEv:
.LFB2595:
	.loc 2 83 0
	.cfi_startproc
.LVL47:
	mflr 0
	stwu 1,-8(1)
.LCFI14:
	.cfi_def_cfa_offset 8
	.cfi_register 65, 0
	stw 0,12(1)
.LBB1972:
	.loc 2 83 0
	lwz 0,8(3)
	.cfi_offset 65, 4
	li 3,16
.LVL48:
	cmpwi 7,0,0
	beq- 7,.L35
	.loc 2 83 0 is_stmt 0 discriminator 1
	mr 3,0
	bl strlen
	addi 3,3,16
.L35:
.LBE1972:
	.loc 2 83 0 discriminator 3
	lwz 0,12(1)
	addi 1,1,8
.LCFI15:
	.cfi_def_cfa_offset 0
	mtlr 0
	blr
	.cfi_endproc
.LFE2595:
	.size	_ZN8idWinVar4SizeEv, .-_ZN8idWinVar4SizeEv
	.section	.text._ZNK9idWinBool5c_strEv,"axG",@progbits,_ZNK9idWinBool5c_strEv,comdat
	.align 2
	.weak	_ZNK9idWinBool5c_strEv
	.type	_ZNK9idWinBool5c_strEv, @function
_ZNK9idWinBool5c_strEv:
.LFB2612:
	.loc 2 142 0 is_stmt 1
	.cfi_startproc
.LVL49:
	mflr 0
	stwu 1,-8(1)
.LCFI16:
	.cfi_def_cfa_offset 8
	.cfi_register 65, 0
	stw 0,12(1)
	.loc 2 142 0
	lbz 4,13(3)
	lis 3,.LC6@ha
.LVL50:
	la 3,.LC6@l(3)
	.cfi_offset 65, 4
	crxor 6,6,6
	bl _Z2vaPKcz
	lwz 0,12(1)
	addi 1,1,8
.LCFI17:
	.cfi_def_cfa_offset 0
	mtlr 0
	blr
	.cfi_endproc
.LFE2612:
	.size	_ZNK9idWinBool5c_strEv, .-_ZNK9idWinBool5c_strEv
	.section	".text"
	.align 2
	.globl _ZN9SSDEntityD2Ev
	.type	_ZN9SSDEntityD2Ev, @function
_ZN9SSDEntityD2Ev:
.LFB2863:
	.loc 5 118 0
	.cfi_startproc
	.cfi_personality 0,__gxx_personality_v0
	.cfi_lsda 0,.LLSDA2863
.LVL51:
	mflr 0
	stwu 1,-16(1)
.LCFI18:
	.cfi_def_cfa_offset 16
	.cfi_register 65, 0
.LBB1973:
	lis 9,_ZTV9SSDEntity+8@ha
.LBE1973:
	stw 31,12(1)
	mr 31,3
	.cfi_offset 31, -4
	stw 0,20(1)
.LBB1983:
	la 0,_ZTV9SSDEntity+8@l(9)
	.cfi_offset 65, 4
.LBE1983:
	stw 30,8(1)
.LBB1984:
	.loc 5 118 0
	stw 0,0(3)
.LVL52:
.LBB1974:
.LBB1975:
.LBB1976:
	.file 7 "d:/Data/Nintendo/DoomGX/src/ui/../idlib/../idlib/Str.h"
	.loc 7 501 0
	addi 3,3,96
.LVL53:
.LEHB0:
	.cfi_offset 30, -8
	bl _ZN5idStr8FreeDataEv
.LEHE0:
.LVL54:
.LBE1976:
.LBE1975:
.LBE1974:
.LBB1977:
.LBB1978:
.LBB1979:
	.loc 7 501 0 is_stmt 0 discriminator 1
	addi 3,31,12
.LEHB1:
	bl _ZN5idStr8FreeDataEv
.LEHE1:
.LBE1979:
.LBE1978:
.LBE1977:
.LBE1984:
	.loc 5 119 0 is_stmt 1 discriminator 1
	lwz 0,20(1)
	lwz 30,8(1)
	mtlr 0
	lwz 31,12(1)
.LVL55:
	addi 1,1,16
	.cfi_remember_state
.LCFI19:
	.cfi_def_cfa_offset 0
	.cfi_restore 31
	.cfi_restore 30
	blr
.LVL56:
.L44:
.LCFI20:
	.cfi_restore_state
	mr 30,3
.LVL57:
.LBB1985:
.LBB1980:
.LBB1981:
.LBB1982:
	.loc 7 501 0
	addi 3,31,12
	bl _ZN5idStr8FreeDataEv
	mr 3,30
.LEHB2:
	bl _Unwind_Resume
.LEHE2:
.LBE1982:
.LBE1981:
.LBE1980:
.LBE1985:
	.cfi_endproc
.LFE2863:
	.globl __gxx_personality_v0
	.section	.gcc_except_table,"a",@progbits
.LLSDA2863:
	.byte	0xff
	.byte	0xff
	.byte	0x1
	.uleb128 .LLSDACSE2863-.LLSDACSB2863
.LLSDACSB2863:
	.uleb128 .LEHB0-.LFB2863
	.uleb128 .LEHE0-.LEHB0
	.uleb128 .L44-.LFB2863
	.uleb128 0
	.uleb128 .LEHB1-.LFB2863
	.uleb128 .LEHE1-.LEHB1
	.uleb128 0
	.uleb128 0
	.uleb128 .LEHB2-.LFB2863
	.uleb128 .LEHE2-.LEHB2
	.uleb128 0
	.uleb128 0
.LLSDACSE2863:
	.section	".text"
	.size	_ZN9SSDEntityD2Ev, .-_ZN9SSDEntityD2Ev
	.align 2
	.globl _ZN13SSDProjectileD2Ev
	.type	_ZN13SSDProjectileD2Ev, @function
_ZN13SSDProjectileD2Ev:
.LFB2956:
	.loc 5 933 0
	.cfi_startproc
.LVL58:
.LBB1986:
	.loc 5 933 0
	lis 9,_ZTV13SSDProjectile+8@ha
.LBE1986:
	.loc 5 934 0
.LBB1987:
	.loc 5 933 0
	la 0,_ZTV13SSDProjectile+8@l(9)
	stw 0,0(3)
	b _ZN9SSDEntityD2Ev
.LVL59:
.LBE1987:
	.cfi_endproc
.LFE2956:
	.size	_ZN13SSDProjectileD2Ev, .-_ZN13SSDProjectileD2Ev
	.align 2
	.globl _ZN13SSDProjectileD0Ev
	.type	_ZN13SSDProjectileD0Ev, @function
_ZN13SSDProjectileD0Ev:
.LFB2958:
	.loc 5 933 0
	.cfi_startproc
.LVL60:
	stwu 1,-16(1)
.LCFI21:
	.cfi_def_cfa_offset 16
	mflr 0
	stw 31,12(1)
	mr 31,3
	.cfi_offset 31, -4
	.cfi_register 65, 0
	stw 0,20(1)
	.loc 5 934 0
	.cfi_offset 65, 4
	bl _ZN13SSDProjectileD1Ev
.LVL61:
	mr 3,31
	bl _ZdlPv
	lwz 0,20(1)
	lwz 31,12(1)
.LVL62:
	mtlr 0
	addi 1,1,16
.LCFI22:
	.cfi_def_cfa_offset 0
	.cfi_restore 31
	blr
	.cfi_endproc
.LFE2958:
	.size	_ZN13SSDProjectileD0Ev, .-_ZN13SSDProjectileD0Ev
	.align 2
	.globl _ZN9SSDPointsD2Ev
	.type	_ZN9SSDPointsD2Ev, @function
_ZN9SSDPointsD2Ev:
.LFB2941:
	.loc 5 780 0
	.cfi_startproc
.LVL63:
.LBB1988:
	.loc 5 780 0
	lis 9,_ZTV9SSDPoints+8@ha
.LBE1988:
	.loc 5 781 0
.LBB1989:
	.loc 5 780 0
	la 0,_ZTV9SSDPoints+8@l(9)
	stw 0,0(3)
	b _ZN9SSDEntityD2Ev
.LVL64:
.LBE1989:
	.cfi_endproc
.LFE2941:
	.size	_ZN9SSDPointsD2Ev, .-_ZN9SSDPointsD2Ev
	.align 2
	.globl _ZN9SSDPointsD0Ev
	.type	_ZN9SSDPointsD0Ev, @function
_ZN9SSDPointsD0Ev:
.LFB2943:
	.loc 5 780 0
	.cfi_startproc
.LVL65:
	stwu 1,-16(1)
.LCFI23:
	.cfi_def_cfa_offset 16
	mflr 0
	stw 31,12(1)
	mr 31,3
	.cfi_offset 31, -4
	.cfi_register 65, 0
	stw 0,20(1)
	.loc 5 781 0
	.cfi_offset 65, 4
	bl _ZN9SSDPointsD1Ev
.LVL66:
	mr 3,31
	bl _ZdlPv
	lwz 0,20(1)
	lwz 31,12(1)
.LVL67:
	mtlr 0
	addi 1,1,16
.LCFI24:
	.cfi_def_cfa_offset 0
	.cfi_restore 31
	blr
	.cfi_endproc
.LFE2943:
	.size	_ZN9SSDPointsD0Ev, .-_ZN9SSDPointsD0Ev
	.align 2
	.globl _ZN12SSDExplosionD2Ev
	.type	_ZN12SSDExplosionD2Ev, @function
_ZN12SSDExplosionD2Ev:
.LFB2926:
	.loc 5 625 0
	.cfi_startproc
.LVL68:
.LBB1990:
	.loc 5 625 0
	lis 9,_ZTV12SSDExplosion+8@ha
.LBE1990:
	.loc 5 626 0
.LBB1991:
	.loc 5 625 0
	la 0,_ZTV12SSDExplosion+8@l(9)
	stw 0,0(3)
	b _ZN9SSDEntityD2Ev
.LVL69:
.LBE1991:
	.cfi_endproc
.LFE2926:
	.size	_ZN12SSDExplosionD2Ev, .-_ZN12SSDExplosionD2Ev
	.align 2
	.globl _ZN12SSDExplosionD0Ev
	.type	_ZN12SSDExplosionD0Ev, @function
_ZN12SSDExplosionD0Ev:
.LFB2928:
	.loc 5 625 0
	.cfi_startproc
.LVL70:
	stwu 1,-16(1)
.LCFI25:
	.cfi_def_cfa_offset 16
	mflr 0
	stw 31,12(1)
	mr 31,3
	.cfi_offset 31, -4
	.cfi_register 65, 0
	stw 0,20(1)
	.loc 5 626 0
	.cfi_offset 65, 4
	bl _ZN12SSDExplosionD1Ev
.LVL71:
	mr 3,31
	bl _ZdlPv
	lwz 0,20(1)
	lwz 31,12(1)
.LVL72:
	mtlr 0
	addi 1,1,16
.LCFI26:
	.cfi_def_cfa_offset 0
	.cfi_restore 31
	blr
	.cfi_endproc
.LFE2928:
	.size	_ZN12SSDExplosionD0Ev, .-_ZN12SSDExplosionD0Ev
	.align 2
	.globl _ZN8SSDMoverD2Ev
	.type	_ZN8SSDMoverD2Ev, @function
_ZN8SSDMoverD2Ev:
.LFB2886:
	.loc 5 359 0
	.cfi_startproc
.LVL73:
.LBB1992:
	.loc 5 359 0
	lis 9,_ZTV8SSDMover+8@ha
.LBE1992:
	.loc 5 360 0
.LBB1993:
	.loc 5 359 0
	la 0,_ZTV8SSDMover+8@l(9)
	stw 0,0(3)
	b _ZN9SSDEntityD2Ev
.LVL74:
.LBE1993:
	.cfi_endproc
.LFE2886:
	.size	_ZN8SSDMoverD2Ev, .-_ZN8SSDMoverD2Ev
	.align 2
	.globl _ZN10SSDPowerupD2Ev
	.type	_ZN10SSDPowerupD2Ev, @function
_ZN10SSDPowerupD2Ev:
.LFB2971:
	.loc 5 1063 0
	.cfi_startproc
.LVL75:
.LBB1994:
	.loc 5 1063 0
	lis 9,_ZTV10SSDPowerup+8@ha
.LBE1994:
	.loc 5 1064 0
.LBB1995:
	.loc 5 1063 0
	la 0,_ZTV10SSDPowerup+8@l(9)
	stw 0,0(3)
	b _ZN8SSDMoverD2Ev
.LVL76:
.LBE1995:
	.cfi_endproc
.LFE2971:
	.size	_ZN10SSDPowerupD2Ev, .-_ZN10SSDPowerupD2Ev
	.align 2
	.globl _ZN10SSDPowerupD0Ev
	.type	_ZN10SSDPowerupD0Ev, @function
_ZN10SSDPowerupD0Ev:
.LFB2973:
	.loc 5 1063 0
	.cfi_startproc
.LVL77:
	stwu 1,-16(1)
.LCFI27:
	.cfi_def_cfa_offset 16
	mflr 0
	stw 31,12(1)
	mr 31,3
	.cfi_offset 31, -4
	.cfi_register 65, 0
	stw 0,20(1)
	.loc 5 1064 0
	.cfi_offset 65, 4
	bl _ZN10SSDPowerupD1Ev
.LVL78:
	mr 3,31
	bl _ZdlPv
	lwz 0,20(1)
	lwz 31,12(1)
.LVL79:
	mtlr 0
	addi 1,1,16
.LCFI28:
	.cfi_def_cfa_offset 0
	.cfi_restore 31
	blr
	.cfi_endproc
.LFE2973:
	.size	_ZN10SSDPowerupD0Ev, .-_ZN10SSDPowerupD0Ev
	.align 2
	.globl _ZN12SSDAstronautD2Ev
	.type	_ZN12SSDAstronautD2Ev, @function
_ZN12SSDAstronautD2Ev:
.LFB2912:
	.loc 5 520 0
	.cfi_startproc
.LVL80:
.LBB1996:
	.loc 5 520 0
	lis 9,_ZTV12SSDAstronaut+8@ha
.LBE1996:
	.loc 5 521 0
.LBB1997:
	.loc 5 520 0
	la 0,_ZTV12SSDAstronaut+8@l(9)
	stw 0,0(3)
	b _ZN8SSDMoverD2Ev
.LVL81:
.LBE1997:
	.cfi_endproc
.LFE2912:
	.size	_ZN12SSDAstronautD2Ev, .-_ZN12SSDAstronautD2Ev
	.align 2
	.globl _ZN12SSDAstronautD0Ev
	.type	_ZN12SSDAstronautD0Ev, @function
_ZN12SSDAstronautD0Ev:
.LFB2914:
	.loc 5 520 0
	.cfi_startproc
.LVL82:
	stwu 1,-16(1)
.LCFI29:
	.cfi_def_cfa_offset 16
	mflr 0
	stw 31,12(1)
	mr 31,3
	.cfi_offset 31, -4
	.cfi_register 65, 0
	stw 0,20(1)
	.loc 5 521 0
	.cfi_offset 65, 4
	bl _ZN12SSDAstronautD1Ev
.LVL83:
	mr 3,31
	bl _ZdlPv
	lwz 0,20(1)
	lwz 31,12(1)
.LVL84:
	mtlr 0
	addi 1,1,16
.LCFI30:
	.cfi_def_cfa_offset 0
	.cfi_restore 31
	blr
	.cfi_endproc
.LFE2914:
	.size	_ZN12SSDAstronautD0Ev, .-_ZN12SSDAstronautD0Ev
	.align 2
	.globl _ZN11SSDAsteroidD2Ev
	.type	_ZN11SSDAsteroidD2Ev, @function
_ZN11SSDAsteroidD2Ev:
.LFB2897:
	.loc 5 418 0
	.cfi_startproc
.LVL85:
.LBB1998:
	.loc 5 418 0
	lis 9,_ZTV11SSDAsteroid+8@ha
.LBE1998:
	.loc 5 419 0
.LBB1999:
	.loc 5 418 0
	la 0,_ZTV11SSDAsteroid+8@l(9)
	stw 0,0(3)
	b _ZN8SSDMoverD2Ev
.LVL86:
.LBE1999:
	.cfi_endproc
.LFE2897:
	.size	_ZN11SSDAsteroidD2Ev, .-_ZN11SSDAsteroidD2Ev
	.align 2
	.globl _ZN11SSDAsteroidD0Ev
	.type	_ZN11SSDAsteroidD0Ev, @function
_ZN11SSDAsteroidD0Ev:
.LFB2899:
	.loc 5 418 0
	.cfi_startproc
.LVL87:
	stwu 1,-16(1)
.LCFI31:
	.cfi_def_cfa_offset 16
	mflr 0
	stw 31,12(1)
	mr 31,3
	.cfi_offset 31, -4
	.cfi_register 65, 0
	stw 0,20(1)
	.loc 5 419 0
	.cfi_offset 65, 4
	bl _ZN11SSDAsteroidD1Ev
.LVL88:
	mr 3,31
	bl _ZdlPv
	lwz 0,20(1)
	lwz 31,12(1)
.LVL89:
	mtlr 0
	addi 1,1,16
.LCFI32:
	.cfi_def_cfa_offset 0
	.cfi_restore 31
	blr
	.cfi_endproc
.LFE2899:
	.size	_ZN11SSDAsteroidD0Ev, .-_ZN11SSDAsteroidD0Ev
	.align 2
	.globl _ZN8SSDMoverD0Ev
	.type	_ZN8SSDMoverD0Ev, @function
_ZN8SSDMoverD0Ev:
.LFB2888:
	.loc 5 359 0
	.cfi_startproc
.LVL90:
	stwu 1,-16(1)
.LCFI33:
	.cfi_def_cfa_offset 16
	mflr 0
	stw 31,12(1)
	mr 31,3
	.cfi_offset 31, -4
	.cfi_register 65, 0
	stw 0,20(1)
	.loc 5 360 0
	.cfi_offset 65, 4
	bl _ZN8SSDMoverD1Ev
.LVL91:
	mr 3,31
	bl _ZdlPv
	lwz 0,20(1)
	lwz 31,12(1)
.LVL92:
	mtlr 0
	addi 1,1,16
.LCFI34:
	.cfi_def_cfa_offset 0
	.cfi_restore 31
	blr
	.cfi_endproc
.LFE2888:
	.size	_ZN8SSDMoverD0Ev, .-_ZN8SSDMoverD0Ev
	.align 2
	.globl _ZN9SSDEntityD0Ev
	.type	_ZN9SSDEntityD0Ev, @function
_ZN9SSDEntityD0Ev:
.LFB2865:
	.loc 5 118 0
	.cfi_startproc
.LVL93:
	stwu 1,-16(1)
.LCFI35:
	.cfi_def_cfa_offset 16
	mflr 0
	stw 31,12(1)
	mr 31,3
	.cfi_offset 31, -4
	.cfi_register 65, 0
	stw 0,20(1)
	.loc 5 119 0
	.cfi_offset 65, 4
	bl _ZN9SSDEntityD1Ev
.LVL94:
	mr 3,31
	bl _ZdlPv
	lwz 0,20(1)
	lwz 31,12(1)
.LVL95:
	mtlr 0
	addi 1,1,16
.LCFI36:
	.cfi_def_cfa_offset 0
	.cfi_restore 31
	blr
	.cfi_endproc
.LFE2865:
	.size	_ZN9SSDEntityD0Ev, .-_ZN9SSDEntityD0Ev
	.section	.text._ZN9idWinBoolD2Ev,"axG",@progbits,_ZN9idWinBoolD5Ev,comdat
	.align 2
	.weak	_ZN9idWinBoolD2Ev
	.type	_ZN9idWinBoolD2Ev, @function
_ZN9idWinBoolD2Ev:
.LFB2602:
	.loc 2 106 0
	.cfi_startproc
.LVL96:
	mflr 0
	stwu 1,-8(1)
.LCFI37:
	.cfi_def_cfa_offset 8
	.cfi_register 65, 0
.LBB2001:
	lis 9,_ZTV9idWinBool+8@ha
.LBE2001:
	stw 0,12(1)
.LBB2002:
	.loc 2 106 0
	la 0,_ZTV9idWinBool+8@l(9)
	.cfi_offset 65, 4
	stw 0,0(3)
	bl _ZN8idWinVarD2Ev
.LVL97:
.LBE2002:
	lwz 0,12(1)
	addi 1,1,8
.LCFI38:
	.cfi_def_cfa_offset 0
	mtlr 0
	blr
	.cfi_endproc
.LFE2602:
	.size	_ZN9idWinBoolD2Ev, .-_ZN9idWinBoolD2Ev
	.section	".text"
	.align 2
	.globl _ZN9SSDPoints12EntityUpdateEv
	.type	_ZN9SSDPoints12EntityUpdateEv, @function
_ZN9SSDPoints12EntityUpdateEv:
.LFB2947:
	.loc 5 857 0
	.cfi_startproc
.LVL98:
	mflr 0
	stwu 1,-40(1)
.LCFI39:
	.cfi_def_cfa_offset 40
	.cfi_register 65, 0
	stfd 31,32(1)
	stw 31,28(1)
	mr 31,3
	.cfi_offset 31, -12
	.cfi_offset 63, -8
	stw 0,44(1)
.LBB2003:
	.loc 5 862 0
	addi 4,31,184
	addi 5,31,196
	.loc 5 859 0
	lwz 0,176(3)
	.cfi_offset 65, 4
	lwz 11,152(3)
	lwz 9,168(3)
	.loc 5 862 0
	addi 3,3,48
.LVL99:
	.loc 5 859 0
	subf 11,0,11
	lis 0,0x4330
	xoris 11,11,0x8000
	xoris 9,9,0x8000
	stw 0,8(1)
	stw 0,16(1)
	stw 11,12(1)
	stw 9,20(1)
	lis 9,.LC3@ha
	lfs 0,.LC3@l(9)
	lfd 13,16(1)
	lfd 31,8(1)
	fsub 31,31,0
	fsub 0,13,0
	frsp 31,31
	frsp 0,0
	fdivs 31,31,0
.LVL100:
	.loc 5 862 0
	fmr 1,31
	bl _ZN6idVec34LerpERKS_S1_f
	.loc 5 865 0
	fmr 1,31
	addi 3,31,132
	addi 4,31,208
	addi 5,31,224
	bl _ZN6idVec44LerpERKS_S1_f
	.loc 5 867 0
	lwz 9,152(31)
	lwz 0,180(31)
	cmpw 7,9,0
	ble- 7,.L77
	.loc 5 868 0
	li 0,1
	stb 0,164(31)
.L77:
.LBE2003:
	.loc 5 870 0
	lwz 0,44(1)
	lwz 31,28(1)
.LVL101:
	mtlr 0
	lfd 31,32(1)
.LVL102:
	addi 1,1,40
.LCFI40:
	.cfi_def_cfa_offset 0
	.cfi_restore 63
	.cfi_restore 31
	blr
	.cfi_endproc
.LFE2947:
	.size	_ZN9SSDPoints12EntityUpdateEv, .-_ZN9SSDPoints12EntityUpdateEv
	.align 2
	.globl _ZN9SSDEntity15WriteToSaveGameEP6idFile
	.type	_ZN9SSDEntity15WriteToSaveGameEP6idFile, @function
_ZN9SSDEntity15WriteToSaveGameEP6idFile:
.LFB2866:
	.loc 5 121 0
	.cfi_startproc
.LVL103:
	mflr 0
	stwu 1,-16(1)
.LCFI41:
	.cfi_def_cfa_offset 16
	.cfi_register 65, 0
	.loc 5 123 0
	li 5,4
	.loc 5 121 0
	stw 30,8(1)
	mr 30,3
	.cfi_offset 30, -8
	stw 31,12(1)
	mr 31,4
	.cfi_offset 31, -4
	stw 0,20(1)
	.loc 5 123 0
	lwz 9,0(4)
	addi 4,3,4
.LVL104:
	mr 3,31
.LVL105:
	lwz 0,24(9)
	.cfi_offset 65, 4
	mtctr 0
	bctrl
.LVL106:
	.loc 5 124 0
	lwz 3,148(30)
	lwz 4,16(30)
	mr 5,31
	bl _ZN8idWindow19WriteSaveGameStringEPKcP6idFile
	.loc 5 125 0
	lwz 9,0(31)
	addi 4,30,48
	li 5,12
	lwz 0,24(9)
	mr 3,31
	mtctr 0
	bctrl
	.loc 5 126 0
	lwz 9,0(31)
	addi 4,30,60
	li 5,8
	lwz 0,24(9)
	mr 3,31
	mtctr 0
	bctrl
	.loc 5 127 0
	lwz 9,0(31)
	addi 4,30,68
	li 5,4
	lwz 0,24(9)
	mr 3,31
	mtctr 0
	bctrl
	.loc 5 128 0
	lwz 9,0(31)
	addi 4,30,72
	li 5,4
	lwz 0,24(9)
	mr 3,31
	mtctr 0
	bctrl
	.loc 5 129 0
	lwz 9,0(31)
	addi 4,30,76
	li 5,4
	lwz 0,24(9)
	mr 3,31
	mtctr 0
	bctrl
	.loc 5 131 0
	lwz 9,0(31)
	addi 4,30,80
	li 5,16
	lwz 0,24(9)
	mr 3,31
	mtctr 0
	bctrl
.LVL107:
	.loc 5 133 0
	lwz 3,148(30)
	lwz 4,100(30)
	mr 5,31
	bl _ZN8idWindow19WriteSaveGameStringEPKcP6idFile
	.loc 5 134 0
	lwz 9,0(31)
	addi 4,30,128
	li 5,4
	lwz 0,24(9)
	mr 3,31
	mtctr 0
	bctrl
	.loc 5 135 0
	lwz 9,0(31)
	addi 4,30,132
	li 5,16
	lwz 0,24(9)
	mr 3,31
	mtctr 0
	bctrl
	.loc 5 137 0
	lwz 9,0(31)
	addi 4,30,152
	li 5,4
	lwz 0,24(9)
	mr 3,31
	mtctr 0
	bctrl
	.loc 5 138 0
	lwz 9,0(31)
	addi 4,30,156
	li 5,4
	lwz 0,24(9)
	mr 3,31
	mtctr 0
	bctrl
	.loc 5 139 0
	lwz 9,0(31)
	addi 4,30,160
	li 5,4
	lwz 0,24(9)
	mr 3,31
	mtctr 0
	bctrl
	.loc 5 141 0
	lwz 9,0(31)
	addi 4,30,164
	li 5,1
	lwz 0,24(9)
	mr 3,31
	mtctr 0
	bctrl
	.loc 5 142 0
	lwz 9,0(31)
	addi 4,30,165
	li 5,1
	lwz 0,24(9)
	mr 3,31
	mtctr 0
	bctrl
	.loc 5 143 0
	lwz 9,0(31)
	addi 4,30,166
	li 5,1
	lwz 0,24(9)
	mr 3,31
	mtctr 0
	bctrl
	.loc 5 145 0
	lwz 9,0(31)
	mr 3,31
	addi 4,30,167
	lwz 0,24(9)
	li 5,1
	mtctr 0
	bctrl
	.loc 5 147 0
	lwz 0,20(1)
	lwz 30,8(1)
.LVL108:
	mtlr 0
	lwz 31,12(1)
.LVL109:
	addi 1,1,16
.LCFI42:
	.cfi_def_cfa_offset 0
	.cfi_restore 31
	.cfi_restore 30
	blr
	.cfi_endproc
.LFE2866:
	.size	_ZN9SSDEntity15WriteToSaveGameEP6idFile, .-_ZN9SSDEntity15WriteToSaveGameEP6idFile
	.align 2
	.globl _ZN13SSDProjectile15WriteToSaveGameEP6idFile
	.type	_ZN13SSDProjectile15WriteToSaveGameEP6idFile, @function
_ZN13SSDProjectile15WriteToSaveGameEP6idFile:
.LFB2959:
	.loc 5 936 0
	.cfi_startproc
.LVL110:
	stwu 1,-16(1)
.LCFI43:
	.cfi_def_cfa_offset 16
	mflr 0
	stw 31,12(1)
	mr 31,4
	.cfi_offset 31, -4
	.cfi_register 65, 0
	stw 0,20(1)
	stw 30,8(1)
	.loc 5 936 0
	mr 30,3
	.cfi_offset 30, -8
	.cfi_offset 65, 4
	.loc 5 937 0
	bl _ZN9SSDEntity15WriteToSaveGameEP6idFile
.LVL111:
	.loc 5 939 0
	lwz 9,0(31)
	addi 4,30,168
	li 5,12
	lwz 0,24(9)
	mr 3,31
	mtctr 0
	bctrl
	.loc 5 940 0
	lwz 9,0(31)
	addi 4,30,180
	li 5,12
	lwz 0,24(9)
	mr 3,31
	mtctr 0
	bctrl
	.loc 5 941 0
	lwz 9,0(31)
	addi 4,30,192
	li 5,4
	lwz 0,24(9)
	mr 3,31
	mtctr 0
	bctrl
	.loc 5 942 0
	lwz 9,0(31)
	addi 4,30,196
	li 5,4
	lwz 0,24(9)
	mr 3,31
	mtctr 0
	bctrl
	.loc 5 944 0
	lwz 9,0(31)
	mr 3,31
	addi 4,30,200
	lwz 0,24(9)
	li 5,12
	mtctr 0
	bctrl
	.loc 5 945 0
	lwz 0,20(1)
	lwz 30,8(1)
.LVL112:
	mtlr 0
	lwz 31,12(1)
.LVL113:
	addi 1,1,16
.LCFI44:
	.cfi_def_cfa_offset 0
	.cfi_restore 31
	.cfi_restore 30
	blr
	.cfi_endproc
.LFE2959:
	.size	_ZN13SSDProjectile15WriteToSaveGameEP6idFile, .-_ZN13SSDProjectile15WriteToSaveGameEP6idFile
	.align 2
	.globl _ZN9SSDPoints15WriteToSaveGameEP6idFile
	.type	_ZN9SSDPoints15WriteToSaveGameEP6idFile, @function
_ZN9SSDPoints15WriteToSaveGameEP6idFile:
.LFB2944:
	.loc 5 783 0
	.cfi_startproc
.LVL114:
	stwu 1,-16(1)
.LCFI45:
	.cfi_def_cfa_offset 16
	mflr 0
	stw 31,12(1)
	mr 31,4
	.cfi_offset 31, -4
	.cfi_register 65, 0
	stw 0,20(1)
	stw 30,8(1)
	.loc 5 783 0
	mr 30,3
	.cfi_offset 30, -8
	.cfi_offset 65, 4
	.loc 5 784 0
	bl _ZN9SSDEntity15WriteToSaveGameEP6idFile
.LVL115:
	.loc 5 786 0
	lwz 9,0(31)
	addi 4,30,168
	li 5,4
	lwz 0,24(9)
	mr 3,31
	mtctr 0
	bctrl
	.loc 5 787 0
	lwz 9,0(31)
	addi 4,30,172
	li 5,4
	lwz 0,24(9)
	mr 3,31
	mtctr 0
	bctrl
	.loc 5 788 0
	lwz 9,0(31)
	addi 4,30,176
	li 5,4
	lwz 0,24(9)
	mr 3,31
	mtctr 0
	bctrl
	.loc 5 789 0
	lwz 9,0(31)
	addi 4,30,180
	li 5,4
	lwz 0,24(9)
	mr 3,31
	mtctr 0
	bctrl
	.loc 5 791 0
	lwz 9,0(31)
	addi 4,30,184
	li 5,12
	lwz 0,24(9)
	mr 3,31
	mtctr 0
	bctrl
	.loc 5 792 0
	lwz 9,0(31)
	addi 4,30,196
	li 5,12
	lwz 0,24(9)
	mr 3,31
	mtctr 0
	bctrl
	.loc 5 794 0
	lwz 9,0(31)
	addi 4,30,208
	li 5,16
	lwz 0,24(9)
	mr 3,31
	mtctr 0
	bctrl
	.loc 5 795 0
	lwz 9,0(31)
	mr 3,31
	addi 4,30,224
	lwz 0,24(9)
	li 5,16
	mtctr 0
	bctrl
	.loc 5 797 0
	lwz 0,20(1)
	lwz 30,8(1)
.LVL116:
	mtlr 0
	lwz 31,12(1)
.LVL117:
	addi 1,1,16
.LCFI46:
	.cfi_def_cfa_offset 0
	.cfi_restore 31
	.cfi_restore 30
	blr
	.cfi_endproc
.LFE2944:
	.size	_ZN9SSDPoints15WriteToSaveGameEP6idFile, .-_ZN9SSDPoints15WriteToSaveGameEP6idFile
	.align 2
	.globl _ZN12SSDExplosion15WriteToSaveGameEP6idFile
	.type	_ZN12SSDExplosion15WriteToSaveGameEP6idFile, @function
_ZN12SSDExplosion15WriteToSaveGameEP6idFile:
.LFB2929:
	.loc 5 628 0
	.cfi_startproc
.LVL118:
	stwu 1,-16(1)
.LCFI47:
	.cfi_def_cfa_offset 16
	mflr 0
	stw 31,12(1)
	mr 31,4
	.cfi_offset 31, -4
	.cfi_register 65, 0
	stw 0,20(1)
	stw 30,8(1)
	.loc 5 628 0
	mr 30,3
	.cfi_offset 30, -8
	.cfi_offset 65, 4
	.loc 5 629 0
	bl _ZN9SSDEntity15WriteToSaveGameEP6idFile
.LVL119:
	.loc 5 631 0
	lwz 9,0(31)
	addi 4,30,168
	li 5,8
	lwz 0,24(9)
	mr 3,31
	mtctr 0
	bctrl
	.loc 5 632 0
	lwz 9,0(31)
	addi 4,30,176
	li 5,4
	lwz 0,24(9)
	mr 3,31
	mtctr 0
	bctrl
	.loc 5 633 0
	lwz 9,0(31)
	addi 4,30,180
	li 5,4
	lwz 0,24(9)
	mr 3,31
	mtctr 0
	bctrl
	.loc 5 634 0
	lwz 9,0(31)
	addi 4,30,184
	li 5,4
	lwz 0,24(9)
	mr 3,31
	mtctr 0
	bctrl
	.loc 5 635 0
	lwz 9,0(31)
	addi 4,30,188
	li 5,4
	lwz 0,24(9)
	mr 3,31
	mtctr 0
	bctrl
	.loc 5 638 0
	lwz 9,0(31)
	lwz 4,192(30)
	li 5,4
	lwz 0,24(9)
	mr 3,31
	addi 4,4,4
	mtctr 0
	bctrl
	.loc 5 639 0
	lwz 9,0(31)
	lwz 4,192(30)
	li 5,4
	lwz 0,24(9)
	mr 3,31
	addi 4,4,8
	mtctr 0
	bctrl
	.loc 5 641 0
	lwz 9,0(31)
	addi 4,30,196
	li 5,1
	lwz 0,24(9)
	mr 3,31
	mtctr 0
	bctrl
	.loc 5 642 0
	lwz 9,0(31)
	mr 3,31
	addi 4,30,197
	lwz 0,24(9)
	li 5,1
	mtctr 0
	bctrl
	.loc 5 643 0
	lwz 0,20(1)
	lwz 30,8(1)
.LVL120:
	mtlr 0
	lwz 31,12(1)
.LVL121:
	addi 1,1,16
.LCFI48:
	.cfi_def_cfa_offset 0
	.cfi_restore 31
	.cfi_restore 30
	blr
	.cfi_endproc
.LFE2929:
	.size	_ZN12SSDExplosion15WriteToSaveGameEP6idFile, .-_ZN12SSDExplosion15WriteToSaveGameEP6idFile
	.align 2
	.globl _ZN8SSDMover15WriteToSaveGameEP6idFile
	.type	_ZN8SSDMover15WriteToSaveGameEP6idFile, @function
_ZN8SSDMover15WriteToSaveGameEP6idFile:
.LFB2889:
	.loc 5 362 0
	.cfi_startproc
.LVL122:
	stwu 1,-16(1)
.LCFI49:
	.cfi_def_cfa_offset 16
	mflr 0
	stw 31,12(1)
	mr 31,4
	.cfi_offset 31, -4
	.cfi_register 65, 0
	stw 0,20(1)
	stw 30,8(1)
	.loc 5 362 0
	mr 30,3
	.cfi_offset 30, -8
	.cfi_offset 65, 4
	.loc 5 363 0
	bl _ZN9SSDEntity15WriteToSaveGameEP6idFile
.LVL123:
	.loc 5 365 0
	lwz 9,0(31)
	addi 4,30,168
	li 5,12
	lwz 0,24(9)
	mr 3,31
	mtctr 0
	bctrl
	.loc 5 366 0
	lwz 9,0(31)
	mr 3,31
	addi 4,30,180
	lwz 0,24(9)
	li 5,4
	mtctr 0
	bctrl
	.loc 5 367 0
	lwz 0,20(1)
	lwz 30,8(1)
.LVL124:
	mtlr 0
	lwz 31,12(1)
.LVL125:
	addi 1,1,16
.LCFI50:
	.cfi_def_cfa_offset 0
	.cfi_restore 31
	.cfi_restore 30
	blr
	.cfi_endproc
.LFE2889:
	.size	_ZN8SSDMover15WriteToSaveGameEP6idFile, .-_ZN8SSDMover15WriteToSaveGameEP6idFile
	.align 2
	.globl _ZN10SSDPowerup15WriteToSaveGameEP6idFile
	.type	_ZN10SSDPowerup15WriteToSaveGameEP6idFile, @function
_ZN10SSDPowerup15WriteToSaveGameEP6idFile:
.LFB2974:
	.loc 5 1066 0
	.cfi_startproc
.LVL126:
	stwu 1,-16(1)
.LCFI51:
	.cfi_def_cfa_offset 16
	mflr 0
	stw 31,12(1)
	mr 31,4
	.cfi_offset 31, -4
	.cfi_register 65, 0
	stw 0,20(1)
	stw 30,8(1)
	.loc 5 1066 0
	mr 30,3
	.cfi_offset 30, -8
	.cfi_offset 65, 4
	.loc 5 1067 0
	bl _ZN8SSDMover15WriteToSaveGameEP6idFile
.LVL127:
	.loc 5 1069 0
	lwz 9,0(31)
	addi 4,30,184
	li 5,4
	lwz 0,24(9)
	mr 3,31
	mtctr 0
	bctrl
	.loc 5 1070 0
	lwz 9,0(31)
	mr 3,31
	addi 4,30,188
	lwz 0,24(9)
	li 5,4
	mtctr 0
	bctrl
	.loc 5 1071 0
	lwz 0,20(1)
	lwz 30,8(1)
.LVL128:
	mtlr 0
	lwz 31,12(1)
.LVL129:
	addi 1,1,16
.LCFI52:
	.cfi_def_cfa_offset 0
	.cfi_restore 31
	.cfi_restore 30
	blr
	.cfi_endproc
.LFE2974:
	.size	_ZN10SSDPowerup15WriteToSaveGameEP6idFile, .-_ZN10SSDPowerup15WriteToSaveGameEP6idFile
	.align 2
	.globl _ZN12SSDAstronaut15WriteToSaveGameEP6idFile
	.type	_ZN12SSDAstronaut15WriteToSaveGameEP6idFile, @function
_ZN12SSDAstronaut15WriteToSaveGameEP6idFile:
.LFB2915:
	.loc 5 523 0
	.cfi_startproc
.LVL130:
	stwu 1,-16(1)
.LCFI53:
	.cfi_def_cfa_offset 16
	mflr 0
	stw 31,12(1)
	mr 31,4
	.cfi_offset 31, -4
	.cfi_register 65, 0
	stw 0,20(1)
	stw 30,8(1)
	.loc 5 523 0
	mr 30,3
	.cfi_offset 30, -8
	.cfi_offset 65, 4
	.loc 5 524 0
	bl _ZN8SSDMover15WriteToSaveGameEP6idFile
.LVL131:
	.loc 5 526 0
	lwz 9,0(31)
	mr 3,31
	addi 4,30,184
	lwz 0,24(9)
	li 5,4
	mtctr 0
	bctrl
	.loc 5 527 0
	lwz 0,20(1)
	lwz 30,8(1)
.LVL132:
	mtlr 0
	lwz 31,12(1)
.LVL133:
	addi 1,1,16
.LCFI54:
	.cfi_def_cfa_offset 0
	.cfi_restore 31
	.cfi_restore 30
	blr
	.cfi_endproc
.LFE2915:
	.size	_ZN12SSDAstronaut15WriteToSaveGameEP6idFile, .-_ZN12SSDAstronaut15WriteToSaveGameEP6idFile
	.align 2
	.globl _ZN11SSDAsteroid15WriteToSaveGameEP6idFile
	.type	_ZN11SSDAsteroid15WriteToSaveGameEP6idFile, @function
_ZN11SSDAsteroid15WriteToSaveGameEP6idFile:
.LFB2900:
	.loc 5 421 0
	.cfi_startproc
.LVL134:
	stwu 1,-16(1)
.LCFI55:
	.cfi_def_cfa_offset 16
	mflr 0
	stw 31,12(1)
	mr 31,4
	.cfi_offset 31, -4
	.cfi_register 65, 0
	stw 0,20(1)
	stw 30,8(1)
	.loc 5 421 0
	mr 30,3
	.cfi_offset 30, -8
	.cfi_offset 65, 4
	.loc 5 422 0
	bl _ZN8SSDMover15WriteToSaveGameEP6idFile
.LVL135:
	.loc 5 424 0
	lwz 9,0(31)
	mr 3,31
	addi 4,30,184
	lwz 0,24(9)
	li 5,4
	mtctr 0
	bctrl
	.loc 5 425 0
	lwz 0,20(1)
	lwz 30,8(1)
.LVL136:
	mtlr 0
	lwz 31,12(1)
.LVL137:
	addi 1,1,16
.LCFI56:
	.cfi_def_cfa_offset 0
	.cfi_restore 31
	.cfi_restore 30
	blr
	.cfi_endproc
.LFE2900:
	.size	_ZN11SSDAsteroid15WriteToSaveGameEP6idFile, .-_ZN11SSDAsteroid15WriteToSaveGameEP6idFile
	.align 2
	.globl _ZN15idGameSSDWindow15GetWinVarByNameEPKcbPP9drawWin_t
	.type	_ZN15idGameSSDWindow15GetWinVarByNameEPKcbPP9drawWin_t, @function
_ZN15idGameSSDWindow15GetWinVarByNameEPKcbPP9drawWin_t:
.LFB2998:
	.loc 5 1397 0
	.cfi_startproc
.LVL138:
	stwu 1,-32(1)
.LCFI57:
	.cfi_def_cfa_offset 32
	mflr 0
	stw 31,28(1)
	mr 31,4
	.cfi_offset 31, -4
	.cfi_register 65, 0
.LBB2008:
	.loc 5 1401 0
	lis 4,.LC7@ha
.LVL139:
.LBE2008:
	.loc 5 1397 0
	stw 30,24(1)
.LBB2009:
	.loc 5 1401 0
	la 4,.LC7@l(4)
.LBE2009:
	.loc 5 1397 0
	mr 30,3
	.cfi_offset 30, -8
.LBB2010:
	.loc 5 1401 0
	mr 3,31
.LVL140:
.LBE2010:
	.loc 5 1397 0
	stw 27,12(1)
	stw 28,16(1)
	mr 28,5
	.cfi_offset 28, -16
	.cfi_offset 27, -20
	stw 29,20(1)
	mr 29,6
	.cfi_offset 29, -12
	stw 0,36(1)
.LBB2011:
	.loc 5 1401 0
	.cfi_offset 65, 4
	bl _ZN5idStr4IcmpEPKcS1_
.LVL141:
	cmpwi 7,3,0
	.loc 5 1399 0
	li 27,0
	.loc 5 1401 0
	bne- 7,.L88
	.loc 5 1402 0
	addi 27,30,936
.LVL142:
.L88:
	.loc 5 1405 0
	lis 4,.LC8@ha
	mr 3,31
	la 4,.LC8@l(4)
	bl _ZN5idStr4IcmpEPKcS1_
	cmpwi 7,3,0
	bne- 7,.L89
	.loc 5 1406 0
	addi 27,30,952
.LVL143:
.L89:
	.loc 5 1409 0
	lis 4,.LC9@ha
	mr 3,31
	la 4,.LC9@l(4)
	bl _ZN5idStr4IcmpEPKcS1_
	cmpwi 7,3,0
	bne- 7,.L90
	.loc 5 1410 0
	addi 27,30,968
.LVL144:
.L90:
	.loc 5 1412 0
	lis 4,.LC10@ha
	mr 3,31
	la 4,.LC10@l(4)
	bl _ZN5idStr4IcmpEPKcS1_
	cmpwi 7,3,0
	bne- 7,.L91
	.loc 5 1413 0
	addi 27,30,984
.LVL145:
.L91:
	.loc 5 1417 0
	cmpwi 7,27,0
	beq- 7,.L94
.LBE2011:
	.loc 5 1422 0
	lwz 0,36(1)
	mr 3,27
	lwz 28,16(1)
	mtlr 0
	lwz 27,12(1)
.LVL146:
	lwz 29,20(1)
.LVL147:
	lwz 30,24(1)
.LVL148:
	lwz 31,28(1)
.LVL149:
	addi 1,1,32
	.cfi_remember_state
.LCFI58:
	.cfi_def_cfa_offset 0
	.cfi_restore 31
	.cfi_restore 30
	.cfi_restore 29
	.cfi_restore 28
	.cfi_restore 27
	blr
.LVL150:
.L94:
.LCFI59:
	.cfi_restore_state
.LBB2012:
.LBB2013:
	.loc 5 1421 0
	mr 3,30
	mr 4,31
	mr 5,28
	mr 6,29
	bl _ZN8idWindow15GetWinVarByNameEPKcbPP9drawWin_t
.LBE2013:
.LBE2012:
	.loc 5 1422 0
	lwz 0,36(1)
.LBB2015:
.LBB2014:
	.loc 5 1421 0
	mr 27,3
.LVL151:
.LBE2014:
.LBE2015:
	.loc 5 1422 0
	lwz 28,16(1)
.LVL152:
	mtlr 0
	mr 3,27
	lwz 29,20(1)
.LVL153:
	lwz 27,12(1)
	lwz 30,24(1)
.LVL154:
	lwz 31,28(1)
.LVL155:
	addi 1,1,32
	.cfi_restore 27
	.cfi_restore 28
	.cfi_restore 29
	.cfi_restore 30
	.cfi_restore 31
.LCFI60:
	.cfi_def_cfa_offset 0
	blr
	.cfi_endproc
.LFE2998:
	.size	_ZN15idGameSSDWindow15GetWinVarByNameEPKcbPP9drawWin_t, .-_ZN15idGameSSDWindow15GetWinVarByNameEPKcbPP9drawWin_t
	.align 2
	.globl _ZN12SSDExplosion12EntityUpdateEv
	.type	_ZN12SSDExplosion12EntityUpdateEv, @function
_ZN12SSDExplosion12EntityUpdateEv:
.LFB2932:
	.loc 5 694 0
	.cfi_startproc
.LVL156:
	.loc 5 699 0
	lbz 0,197(3)
	.loc 5 694 0
	stwu 1,-24(1)
.LCFI61:
	.cfi_def_cfa_offset 24
	.loc 5 699 0
	cmpwi 7,0,0
	.loc 5 700 0
	lwz 9,192(3)
	.loc 5 699 0
	beq- 7,.L96
.LVL157:
.LBB2026:
.LBB2027:
	.loc 6 424 0
	lwz 0,48(9)
	stw 0,48(3)
	.loc 6 425 0
	lwz 0,52(9)
	stw 0,52(3)
.LVL158:
.L96:
.LBE2027:
.LBE2026:
	.loc 5 704 0
	lis 11,.LC11@ha
	.loc 5 708 0
	lwz 0,152(3)
	lwz 8,180(3)
	.loc 5 704 0
	lfs 13,56(9)
	lfs 0,.LC11@l(11)
	.loc 5 708 0
	subf 8,8,0
	lwz 10,176(3)
	lis 11,0x4330
	.loc 5 704 0
	fsubs 0,13,0
	.loc 5 708 0
	xoris 8,8,0x8000
	xoris 10,10,0x8000
	stw 11,8(1)
	stw 11,16(1)
	lis 11,.LC3@ha
	stw 8,12(1)
	stw 10,20(1)
	lfs 13,.LC3@l(11)
	.loc 5 704 0
	stfs 0,56(3)
	.loc 5 708 0
	lfd 11,8(1)
	lfd 0,16(1)
	fsub 11,11,13
	.loc 5 711 0
	lwz 11,184(3)
	.loc 5 708 0
	fsub 13,0,13
.LBB2028:
.LBB2029:
	.loc 6 245 0
	lfs 12,168(3)
.LBE2029:
.LBE2028:
	.loc 5 711 0
	cmpw 7,0,11
	.loc 5 708 0
	frsp 11,11
	frsp 0,13
.LBB2032:
.LBB2030:
	.loc 6 245 0
	lfs 13,172(3)
.LBE2030:
.LBE2032:
	.loc 5 708 0
	fdivs 0,11,0
.LVL159:
.LBB2033:
.LBB2031:
	.loc 6 245 0
	fmuls 13,0,13
.LVL160:
	fmuls 0,0,12
.LVL161:
	.loc 5 708 0
	stfs 13,64(3)
	stfs 0,60(3)
.LBE2031:
.LBE2033:
	.loc 5 711 0
	ble- 7,.L95
.LVL162:
.LBB2034:
.LBB2035:
	.loc 5 714 0
	lbz 11,196(3)
	.loc 5 712 0
	li 0,1
	stb 0,164(3)
	.loc 5 714 0
	cmpwi 7,11,0
	beq- 7,.L95
	.loc 5 716 0
	stb 0,164(9)
.LVL163:
.L95:
.LBE2035:
.LBE2034:
	.loc 5 719 0
	addi 1,1,24
.LCFI62:
	.cfi_def_cfa_offset 0
	blr
	.cfi_endproc
.LFE2932:
	.size	_ZN12SSDExplosion12EntityUpdateEv, .-_ZN12SSDExplosion12EntityUpdateEv
	.section	.text._ZN14idFixedWindingD0Ev,"axG",@progbits,_ZN14idFixedWindingD5Ev,comdat
	.align 2
	.weak	_ZN14idFixedWindingD0Ev
	.type	_ZN14idFixedWindingD0Ev, @function
_ZN14idFixedWindingD0Ev:
.LFB1500:
	.loc 1 380 0
	.cfi_startproc
.LVL164:
	mflr 0
	stwu 1,-8(1)
.LCFI63:
	.cfi_def_cfa_offset 8
	.cfi_register 65, 0
.LBB2042:
.LBB2043:
.LBB2044:
.LBB2045:
.LBB2046:
.LBB2047:
	.loc 1 183 0
	lis 11,_ZTV9idWinding+8@ha
.LBE2047:
.LBE2046:
.LBE2045:
.LBE2044:
.LBE2043:
.LBE2042:
	.loc 1 380 0
	stw 0,12(1)
.LBB2053:
.LBB2052:
.LBB2051:
	.loc 1 381 0
	li 0,0
	.cfi_offset 65, 4
	stw 0,8(3)
.LVL165:
.LBB2050:
.LBB2049:
.LBB2048:
	.loc 1 183 0
	la 0,_ZTV9idWinding+8@l(11)
	stw 0,0(3)
.LBE2048:
.LBE2049:
.LBE2050:
.LBE2051:
.LBE2052:
.LBE2053:
	.loc 1 382 0
	bl _ZdlPv
.LVL166:
	lwz 0,12(1)
	addi 1,1,8
.LCFI64:
	.cfi_def_cfa_offset 0
	mtlr 0
	blr
	.cfi_endproc
.LFE1500:
	.size	_ZN14idFixedWindingD0Ev, .-_ZN14idFixedWindingD0Ev
	.section	.text._ZN14idFixedWindingD2Ev,"axG",@progbits,_ZN14idFixedWindingD5Ev,comdat
	.align 2
	.weak	_ZN14idFixedWindingD2Ev
	.type	_ZN14idFixedWindingD2Ev, @function
_ZN14idFixedWindingD2Ev:
.LFB1498:
	.loc 1 380 0
	.cfi_startproc
.LVL167:
.LBB2058:
	.loc 1 381 0
	li 0,0
.LBB2059:
.LBB2060:
.LBB2061:
	.loc 1 183 0
	lis 9,_ZTV9idWinding+8@ha
.LBE2061:
.LBE2060:
.LBE2059:
	.loc 1 381 0
	stw 0,8(3)
.LVL168:
.LBB2064:
.LBB2063:
.LBB2062:
	.loc 1 183 0
	la 0,_ZTV9idWinding+8@l(9)
	stw 0,0(3)
.LBE2062:
.LBE2063:
.LBE2064:
.LBE2058:
	.loc 1 382 0
	blr
	.cfi_endproc
.LFE1498:
	.size	_ZN14idFixedWindingD2Ev, .-_ZN14idFixedWindingD2Ev
	.section	.text._ZN9idWindingD0Ev,"axG",@progbits,_ZN9idWindingD5Ev,comdat
	.align 2
	.weak	_ZN9idWindingD0Ev
	.type	_ZN9idWindingD0Ev, @function
_ZN9idWindingD0Ev:
.LFB1463:
	.loc 1 183 0
	.cfi_startproc
.LVL169:
	mflr 0
	stwu 1,-16(1)
.LCFI65:
	.cfi_def_cfa_offset 16
	.cfi_register 65, 0
.LBB2068:
.LBB2069:
.LBB2070:
	lis 9,_ZTV9idWinding+8@ha
.LBE2070:
.LBE2069:
.LBE2068:
	stw 31,12(1)
	mr 31,3
	.cfi_offset 31, -4
.LVL170:
	stw 0,20(1)
.LBB2075:
.LBB2073:
.LBB2071:
	.loc 1 183 0
	la 0,_ZTV9idWinding+8@l(9)
	.cfi_offset 65, 4
	.loc 1 184 0
	lwz 3,8(3)
.LVL171:
	.loc 1 183 0
	stw 0,0(31)
	.loc 1 184 0
	cmpwi 7,3,0
	beq- 7,.L107
	bl _ZdaPv
.LVL172:
.L107:
	.loc 1 185 0
	li 0,0
.LBE2071:
.LBE2073:
.LBE2075:
	.loc 1 186 0
	mr 3,31
.LBB2076:
.LBB2074:
.LBB2072:
	.loc 1 185 0
	stw 0,8(31)
.LBE2072:
.LBE2074:
.LBE2076:
	.loc 1 186 0
	bl _ZdlPv
	lwz 0,20(1)
	lwz 31,12(1)
.LVL173:
	mtlr 0
	addi 1,1,16
.LCFI66:
	.cfi_def_cfa_offset 0
	.cfi_restore 31
	blr
	.cfi_endproc
.LFE1463:
	.size	_ZN9idWindingD0Ev, .-_ZN9idWindingD0Ev
	.section	.text._ZN9idWinBoolD0Ev,"axG",@progbits,_ZN9idWinBoolD5Ev,comdat
	.align 2
	.weak	_ZN9idWinBoolD0Ev
	.type	_ZN9idWinBoolD0Ev, @function
_ZN9idWinBoolD0Ev:
.LFB2604:
	.loc 2 106 0
	.cfi_startproc
.LVL174:
	mflr 0
	stwu 1,-16(1)
.LCFI67:
	.cfi_def_cfa_offset 16
	.cfi_register 65, 0
.LBB2080:
.LBB2081:
.LBB2082:
	lis 9,_ZTV9idWinBool+8@ha
.LBE2082:
.LBE2081:
.LBE2080:
	stw 31,12(1)
	mr 31,3
	.cfi_offset 31, -4
.LVL175:
	stw 0,20(1)
.LBB2085:
.LBB2084:
.LBB2083:
	.loc 2 106 0
	la 0,_ZTV9idWinBool+8@l(9)
	.cfi_offset 65, 4
	stw 0,0(3)
	bl _ZN8idWinVarD2Ev
.LVL176:
.LBE2083:
.LBE2084:
.LBE2085:
	mr 3,31
	bl _ZN8idWinVardlEPv
	lwz 0,20(1)
	lwz 31,12(1)
.LVL177:
	mtlr 0
	addi 1,1,16
.LCFI68:
	.cfi_def_cfa_offset 0
	.cfi_restore 31
	blr
	.cfi_endproc
.LFE2604:
	.size	_ZN9idWinBoolD0Ev, .-_ZN9idWinBoolD0Ev
	.section	.text._ZN9idWinBool6UpdateEv,"axG",@progbits,_ZN9idWinBool6UpdateEv,comdat
	.align 2
	.weak	_ZN9idWinBool6UpdateEv
	.type	_ZN9idWinBool6UpdateEv, @function
_ZN9idWinBool6UpdateEv:
.LFB2611:
	.loc 2 135 0
	.cfi_startproc
.LVL178:
	mflr 0
	stwu 1,-16(1)
.LCFI69:
	.cfi_def_cfa_offset 16
	.cfi_register 65, 0
	stw 31,12(1)
	mr 31,3
	.cfi_offset 31, -4
	stw 0,20(1)
.LBB2101:
.LBB2102:
.LBB2103:
.LBB2104:
.LBB2105:
	.loc 5 2339 0
	lwz 4,8(3)
	lwz 3,4(3)
.LVL179:
.LBE2105:
.LBE2104:
.LBE2103:
.LBE2102:
.LBB2113:
.LBB2114:
	.loc 2 53 0
	cmpwi 7,4,0
	beq- 7,.L119
	.cfi_offset 65, 4
	.loc 2 54 0
	cmpwi 7,3,0
	beq- 7,.L113
	lbz 0,0(4)
	cmpwi 7,0,42
	beq- 7,.L122
.L116:
.LBE2114:
.LBE2113:
	.loc 2 137 0 discriminator 1
	lbz 0,0(4)
	cmpwi 7,0,0
	bne- 7,.L123
.L113:
.LBE2101:
	.loc 2 140 0
	lwz 0,20(1)
	lwz 31,12(1)
.LVL180:
	mtlr 0
	addi 1,1,16
	.cfi_remember_state
.LCFI70:
	.cfi_def_cfa_offset 0
	.cfi_restore 31
	blr
.LVL181:
.L123:
.LCFI71:
	.cfi_restore_state
.LBB2133:
.LBB2128:
.LBB2111:
.LBB2109:
.LBB2107:
	.file 8 "d:/Data/Nintendo/DoomGX/src/ui/../idlib/../idlib/Dict.h"
	.loc 8 241 0
	bl _ZNK6idDict7FindKeyEPKc
.LVL182:
	.loc 8 242 0
	cmpwi 0,3,0
	beq- 0,.L121
.LVL183:
.LBB2106:
	.loc 5 2339 0
	lwz 9,4(3)
	lwz 3,4(9)
.LVL184:
.L118:
.LBE2106:
.LBE2107:
.LBE2109:
	.loc 8 257 0
	bl atoi
	cntlzw 3,3
	srwi 3,3,5
	xori 3,3,1
.LBE2111:
.LBE2128:
	.loc 2 138 0
	stb 3,13(31)
.LBE2133:
	.loc 2 140 0
	lwz 0,20(1)
	lwz 31,12(1)
.LVL185:
	mtlr 0
	addi 1,1,16
	.cfi_remember_state
	.cfi_restore 31
.LCFI72:
	.cfi_def_cfa_offset 0
	blr
.LVL186:
.L119:
.LCFI73:
	.cfi_restore_state
.LBB2134:
.LBB2129:
.LBB2125:
	.loc 2 59 0
	lis 4,.LC12@ha
	la 4,.LC12@l(4)
.L114:
.LBE2125:
.LBE2129:
	.loc 2 137 0
	cmpwi 7,3,0
	bne+ 7,.L116
	b .L113
.L122:
.LVL187:
.LBB2130:
.LBB2126:
.LBB2115:
.LBB2116:
.LBB2117:
.LBB2118:
	.loc 8 241 0
	addi 4,4,1
.LVL188:
	bl _ZNK6idDict7FindKeyEPKc
.LVL189:
	.loc 8 242 0
	cmpwi 0,3,0
	beq- 0,.L120
.LVL190:
.LBB2119:
	.loc 5 2339 0
	lwz 9,4(3)
	lwz 3,4(31)
.LVL191:
	lwz 4,4(9)
	b .L114
.LVL192:
.L121:
.LBE2119:
.LBE2118:
.LBE2117:
.LBE2116:
.LBE2115:
.LBE2126:
.LBE2130:
.LBB2131:
.LBB2112:
.LBB2110:
.LBB2108:
	.loc 8 245 0
	lis 3,.LC13@ha
.LVL193:
	la 3,.LC13@l(3)
	b .L118
.LVL194:
.L120:
.LBE2108:
.LBE2110:
.LBE2112:
.LBE2131:
.LBB2132:
.LBB2127:
.LBB2124:
.LBB2123:
.LBB2122:
.LBB2121:
	lis 4,.LC12@ha
.LBB2120:
	.loc 5 2339 0
	lwz 3,4(31)
.LVL195:
.LBE2120:
	.loc 8 245 0
	la 4,.LC12@l(4)
	b .L114
.LBE2121:
.LBE2122:
.LBE2123:
.LBE2124:
.LBE2127:
.LBE2132:
.LBE2134:
	.cfi_endproc
.LFE2611:
	.size	_ZN9idWinBool6UpdateEv, .-_ZN9idWinBool6UpdateEv
	.section	.text._ZN9idWinBool3SetEPKc,"axG",@progbits,_ZN9idWinBool3SetEPKc,comdat
	.align 2
	.weak	_ZN9idWinBool3SetEPKc
	.type	_ZN9idWinBool3SetEPKc, @function
_ZN9idWinBool3SetEPKc:
.LFB2610:
	.loc 2 128 0
	.cfi_startproc
.LVL196:
	stwu 1,-24(1)
.LCFI74:
	.cfi_def_cfa_offset 24
	mflr 0
	stw 31,20(1)
	mr 31,3
	.cfi_offset 31, -4
	.cfi_register 65, 0
	.loc 2 129 0
	mr 3,4
.LVL197:
	.loc 2 128 0
	stw 29,12(1)
	stw 0,28(1)
	stw 30,16(1)
	.loc 2 129 0
	.cfi_offset 30, -8
	.cfi_offset 65, 4
	.cfi_offset 29, -12
	bl atoi
.LVL198:
	.loc 2 130 0
	lwz 29,4(31)
	.loc 2 129 0
	cntlzw 4,3
	srwi 4,4,5
	.loc 2 130 0
	cmpwi 7,29,0
	.loc 2 129 0
	xori 4,4,1
	stb 4,13(31)
	.loc 2 130 0
	beq- 7,.L124
	.loc 5 2339 0
	lwz 30,8(31)
.LBB2145:
.LBB2146:
	.loc 2 53 0
	cmpwi 7,30,0
	beq- 7,.L128
	.loc 2 54 0
	lbz 0,0(30)
	cmpwi 7,0,42
	beq- 7,.L130
.L126:
.LVL199:
.LBE2146:
.LBE2145:
.LBB2154:
.LBB2155:
	.loc 8 197 0
	lis 3,.LC6@ha
	la 3,.LC6@l(3)
	crxor 6,6,6
	bl _Z2vaPKcz
.LVL200:
	mr 4,30
	mr 5,3
	mr 3,29
	bl _ZN6idDict3SetEPKcS1_
.LVL201:
.L124:
.LBE2155:
.LBE2154:
	.loc 2 133 0
	lwz 0,28(1)
	lwz 29,12(1)
	mtlr 0
	lwz 30,16(1)
	lwz 31,20(1)
.LVL202:
	addi 1,1,24
	.cfi_remember_state
.LCFI75:
	.cfi_def_cfa_offset 0
	.cfi_restore 31
	.cfi_restore 30
	.cfi_restore 29
	blr
.LVL203:
.L128:
.LCFI76:
	.cfi_restore_state
.LBB2156:
.LBB2153:
	.loc 2 59 0
	lis 30,.LC12@ha
	la 30,.LC12@l(30)
	b .L126
.L130:
.LVL204:
.LBB2147:
.LBB2148:
.LBB2149:
.LBB2150:
	.loc 8 241 0
	mr 3,29
	addi 4,30,1
	bl _ZNK6idDict7FindKeyEPKc
.LVL205:
	.loc 8 242 0
	cmpwi 0,3,0
	beq- 0,.L129
.LVL206:
.LBB2151:
	.loc 5 2339 0
	lwz 9,4(3)
	lbz 4,13(31)
	lwz 30,4(9)
.LVL207:
	b .L126
.LVL208:
.L129:
.LBE2151:
	.loc 8 245 0
	lis 30,.LC12@ha
.LVL209:
.LBB2152:
	.loc 5 2339 0
	lbz 4,13(31)
.LBE2152:
	.loc 8 245 0
	la 30,.LC12@l(30)
	b .L126
.LBE2150:
.LBE2149:
.LBE2148:
.LBE2147:
.LBE2153:
.LBE2156:
	.cfi_endproc
.LFE2610:
	.size	_ZN9idWinBool3SetEPKc, .-_ZN9idWinBool3SetEPKc
	.section	.text._ZN9idWinBool4InitEPKcP8idWindow,"axG",@progbits,_ZN9idWinBool4InitEPKcP8idWindow,comdat
	.align 2
	.weak	_ZN9idWinBool4InitEPKcP8idWindow
	.type	_ZN9idWinBool4InitEPKcP8idWindow, @function
_ZN9idWinBool4InitEPKcP8idWindow:
.LFB2605:
	.loc 2 107 0
	.cfi_startproc
.LVL210:
	stwu 1,-16(1)
.LCFI77:
	.cfi_def_cfa_offset 16
	mflr 0
	stw 31,12(1)
	mr 31,3
	.cfi_offset 31, -4
	.cfi_register 65, 0
	stw 30,8(1)
	stw 0,20(1)
	.loc 2 107 0
	.cfi_offset 65, 4
	.cfi_offset 30, -8
	bl _ZN8idWinVar4InitEPKcP8idWindow
.LVL211:
	.loc 2 108 0
	lwz 30,4(31)
	cmpwi 7,30,0
	beq- 7,.L131
	.loc 5 2339 0
	lwz 4,8(31)
.LBB2171:
.LBB2172:
	.loc 2 53 0
	cmpwi 7,4,0
	beq- 7,.L136
	.loc 2 54 0
	lbz 0,0(4)
	cmpwi 7,0,42
	beq- 7,.L139
.L133:
.LVL212:
.LBE2172:
.LBE2171:
.LBB2184:
.LBB2185:
.LBB2186:
.LBB2187:
	.loc 8 241 0
	mr 3,30
	bl _ZNK6idDict7FindKeyEPKc
.LVL213:
	.loc 8 242 0
	cmpwi 0,3,0
	beq- 0,.L138
.LVL214:
.LBB2188:
	.loc 5 2339 0
	lwz 9,4(3)
	lwz 3,4(9)
.LVL215:
.L135:
.LBE2188:
.LBE2187:
.LBE2186:
	.loc 8 257 0
	bl atoi
	cntlzw 3,3
	srwi 3,3,5
	xori 3,3,1
.LBE2185:
.LBE2184:
	.loc 2 109 0
	stb 3,13(31)
.LVL216:
.L131:
	.loc 2 111 0
	lwz 0,20(1)
	lwz 30,8(1)
	mtlr 0
	lwz 31,12(1)
.LVL217:
	addi 1,1,16
	.cfi_remember_state
.LCFI78:
	.cfi_def_cfa_offset 0
	.cfi_restore 31
	.cfi_restore 30
	blr
.LVL218:
.L139:
.LCFI79:
	.cfi_restore_state
.LBB2192:
.LBB2182:
.LBB2173:
.LBB2174:
.LBB2175:
.LBB2176:
	.loc 8 241 0
	mr 3,30
	addi 4,4,1
.LVL219:
	bl _ZNK6idDict7FindKeyEPKc
.LVL220:
	.loc 8 242 0
	cmpwi 0,3,0
	bne+ 0,.L140
.LVL221:
.L136:
.LBE2176:
.LBE2175:
.LBE2174:
.LBE2173:
	.loc 2 59 0
	lis 4,.LC12@ha
	la 4,.LC12@l(4)
	b .L133
.LVL222:
.L138:
.LBE2182:
.LBE2192:
.LBB2193:
.LBB2191:
.LBB2190:
.LBB2189:
	.loc 8 245 0
	lis 3,.LC13@ha
.LVL223:
	la 3,.LC13@l(3)
	b .L135
.LVL224:
.L140:
.LBE2189:
.LBE2190:
.LBE2191:
.LBE2193:
.LBB2194:
.LBB2183:
.LBB2181:
.LBB2180:
.LBB2179:
.LBB2178:
.LBB2177:
	.loc 5 2339 0
	lwz 9,4(3)
	lwz 4,4(9)
	b .L133
.LBE2177:
.LBE2178:
.LBE2179:
.LBE2180:
.LBE2181:
.LBE2183:
.LBE2194:
	.cfi_endproc
.LFE2605:
	.size	_ZN9idWinBool4InitEPKcP8idWindow, .-_ZN9idWinBool4InitEPKcP8idWindow
	.section	.text._ZN5idStrC2EPKc,"axG",@progbits,_ZN5idStrC5EPKc,comdat
	.align 2
	.weak	_ZN5idStrC2EPKc
	.type	_ZN5idStrC2EPKc, @function
_ZN5idStrC2EPKc:
.LFB1602:
	.loc 7 408 0
	.cfi_startproc
.LVL225:
	stwu 1,-24(1)
.LCFI80:
	.cfi_def_cfa_offset 24
	mflr 0
.LBB2200:
.LBB2201:
.LBB2202:
	.loc 7 357 0
	li 9,20
.LBE2202:
.LBE2201:
.LBE2200:
	.loc 7 408 0
	stw 30,16(1)
.LBB2213:
	.loc 7 412 0
	mr. 30,4
	.cfi_offset 30, -8
	.cfi_register 65, 0
.LBE2213:
	.loc 7 408 0
	stw 0,28(1)
.LBB2214:
.LBB2206:
.LBB2203:
	.loc 7 356 0
	li 0,0
	.cfi_offset 65, 4
.LBE2203:
.LBE2206:
.LBE2214:
	.loc 7 408 0
	stw 28,8(1)
.LBB2215:
.LBB2207:
.LBB2204:
	.loc 7 358 0
	addi 28,3,12
	.cfi_offset 28, -16
.LBE2204:
.LBE2207:
.LBE2215:
	.loc 7 408 0
	stw 31,20(1)
	mr 31,3
	.cfi_offset 31, -4
.LVL226:
	stw 29,12(1)
.LBB2216:
.LBB2208:
.LBB2205:
	.loc 7 356 0
	stw 0,0(3)
	.loc 7 357 0
	stw 9,8(3)
	.loc 7 358 0
	stw 28,4(3)
	.loc 7 359 0
	stb 0,12(3)
.LBE2205:
.LBE2208:
	.loc 7 412 0
	beq- 0,.L141
	.cfi_offset 29, -12
	.loc 7 413 0
	mr 3,30
.LVL227:
	bl strlen
.LVL228:
	.loc 7 414 0
	addi 4,3,1
	.loc 7 413 0
	mr 29,3
.LVL229:
.LBB2209:
.LBB2210:
	.loc 7 350 0
	cmpwi 7,4,20
	bgt- 7,.L144
.LVL230:
.L143:
.LBE2210:
.LBE2209:
	.loc 7 415 0
	mr 3,28
	mr 4,30
	bl strcpy
	.loc 7 416 0
	stw 29,0(31)
.LVL231:
.L141:
.LBE2216:
	.loc 7 418 0
	lwz 0,28(1)
	lwz 28,8(1)
	mtlr 0
	lwz 29,12(1)
	lwz 30,16(1)
.LVL232:
	lwz 31,20(1)
.LVL233:
	addi 1,1,24
	.cfi_remember_state
.LCFI81:
	.cfi_def_cfa_offset 0
	.cfi_restore 31
	.cfi_restore 30
	.cfi_restore 29
	.cfi_restore 28
	blr
.LVL234:
.L144:
.LCFI82:
	.cfi_restore_state
.LBB2217:
.LBB2212:
.LBB2211:
	.loc 7 351 0
	mr 3,31
.LVL235:
	li 5,1
	bl _ZN5idStr10ReAllocateEib
.LVL236:
	lwz 28,4(31)
	b .L143
.LBE2211:
.LBE2212:
.LBE2217:
	.cfi_endproc
.LFE1602:
	.size	_ZN5idStrC2EPKc, .-_ZN5idStrC2EPKc
	.section	.text._ZNK5idStr5RightEi,"axG",@progbits,_ZNK5idStr5RightEi,comdat
	.align 2
	.weak	_ZNK5idStr5RightEi
	.type	_ZNK5idStr5RightEi, @function
_ZNK5idStr5RightEi:
.LFB1690:
	.loc 7 929 0
	.cfi_startproc
.LVL237:
	mflr 0
	stwu 1,-24(1)
.LCFI83:
	.cfi_def_cfa_offset 24
	.cfi_register 65, 0
	mr 6,5
	stw 30,16(1)
	mr 30,4
	.cfi_offset 30, -8
	stw 31,20(1)
	mr 31,3
	.cfi_offset 31, -4
	stw 0,28(1)
	stw 29,12(1)
	.loc 5 2339 0
	lwz 0,0(4)
	.cfi_offset 29, -12
	.cfi_offset 65, 4
	.loc 7 930 0
	cmpw 7,0,5
	bgt- 7,.L146
.LVL238:
.LBB2228:
.LBB2229:
.LBB2230:
.LBB2231:
	.loc 7 356 0
	li 9,0
	.loc 7 358 0
	addi 0,3,12
	.loc 7 357 0
	li 11,20
	.loc 7 356 0
	stw 9,0(3)
	.loc 7 357 0
	stw 11,8(3)
	.loc 7 358 0
	stw 0,4(3)
	.loc 7 359 0
	stb 9,12(3)
.LBE2231:
.LBE2230:
.LBE2229:
	.loc 5 2339 0
	lwz 29,0(4)
.LBB2236:
	.loc 7 374 0
	addi 4,29,1
.LVL239:
.LBB2232:
.LBB2233:
	.loc 7 350 0
	cmpwi 7,4,20
	bgt- 7,.L149
.LVL240:
.L147:
.LBE2233:
.LBE2232:
	.loc 7 375 0
	lwz 4,4(30)
	mr 3,0
	bl strcpy
	.loc 7 376 0
	stw 29,0(31)
.LBE2236:
.LBE2228:
	.loc 7 934 0
	mr 3,31
	lwz 0,28(1)
	lwz 29,12(1)
	mtlr 0
	lwz 30,16(1)
.LVL241:
	lwz 31,20(1)
.LVL242:
	addi 1,1,24
	.cfi_remember_state
.LCFI84:
	.cfi_def_cfa_offset 0
	.cfi_restore 31
	.cfi_restore 30
	.cfi_restore 29
	blr
.LVL243:
.L149:
.LCFI85:
	.cfi_restore_state
.LBB2238:
.LBB2237:
.LBB2235:
.LBB2234:
	.loc 7 351 0
	li 5,1
.LVL244:
	bl _ZN5idStr10ReAllocateEib
.LVL245:
	lwz 0,4(31)
	b .L147
.LVL246:
.L146:
.LBE2234:
.LBE2235:
.LBE2237:
.LBE2238:
	.loc 7 933 0
	subf 5,5,0
.LVL247:
	bl _ZNK5idStr3MidEii
.LVL248:
	.loc 7 934 0
	lwz 0,28(1)
	mr 3,31
	lwz 29,12(1)
	mtlr 0
	lwz 30,16(1)
.LVL249:
	lwz 31,20(1)
.LVL250:
	addi 1,1,24
	.cfi_restore 29
	.cfi_restore 30
	.cfi_restore 31
.LCFI86:
	.cfi_def_cfa_offset 0
	blr
	.cfi_endproc
.LFE1690:
	.size	_ZNK5idStr5RightEi, .-_ZNK5idStr5RightEi
	.section	".text"
	.align 2
	.globl _ZN12SSDCrossHairC2Ev
	.type	_ZN12SSDCrossHairC2Ev, @function
_ZN12SSDCrossHairC2Ev:
.LFB2850:
	.loc 5 55 0
	.cfi_startproc
.LVL251:
	mflr 0
	stwu 1,-8(1)
.LCFI87:
	.cfi_def_cfa_offset 8
	.cfi_register 65, 0
.LBB2239:
	lis 9,_ZTV12SSDCrossHair+8@ha
	.loc 5 57 0
	li 4,24
.LBE2239:
	.loc 5 55 0
	stw 0,12(1)
.LBB2240:
	.loc 5 55 0
	la 0,_ZTV12SSDCrossHair+8@l(9)
	.cfi_offset 65, 4
	stw 0,0(3)
	.loc 5 57 0
	lis 3,.LC14@ha
.LVL252:
	la 3,.LC14@l(3)
	crxor 6,6,6
	bl _Z15Sys_DebugPrintfPKcz
.LBE2240:
	.loc 5 60 0
	lwz 0,12(1)
	addi 1,1,8
.LCFI88:
	.cfi_def_cfa_offset 0
	mtlr 0
	blr
	.cfi_endproc
.LFE2850:
	.size	_ZN12SSDCrossHairC2Ev, .-_ZN12SSDCrossHairC2Ev
	.align 2
	.globl _ZN12SSDCrossHairD2Ev
	.type	_ZN12SSDCrossHairD2Ev, @function
_ZN12SSDCrossHairD2Ev:
.LFB2853:
	.loc 5 62 0
	.cfi_startproc
.LVL253:
.LBB2241:
	.loc 5 62 0
	lis 9,_ZTV12SSDCrossHair+8@ha
.LBE2241:
	.loc 5 63 0
.LBB2242:
	.loc 5 62 0
	la 0,_ZTV12SSDCrossHair+8@l(9)
	stw 0,0(3)
.LBE2242:
	.loc 5 63 0
	blr
	.cfi_endproc
.LFE2853:
	.size	_ZN12SSDCrossHairD2Ev, .-_ZN12SSDCrossHairD2Ev
	.align 2
	.globl _ZN12SSDCrossHair14InitCrosshairsEv
	.type	_ZN12SSDCrossHair14InitCrosshairsEv, @function
_ZN12SSDCrossHair14InitCrosshairsEv:
.LFB2857:
	.loc 5 83 0
	.cfi_startproc
.LVL254:
	stwu 1,-16(1)
.LCFI89:
	.cfi_def_cfa_offset 16
	mflr 0
	.loc 5 85 0
	lis 4,.LC15@ha
	li 5,1
	.loc 5 83 0
	stw 30,8(1)
	.loc 5 85 0
	lis 30,declManager@ha
	.cfi_offset 30, -8
	.cfi_register 65, 0
	.loc 5 83 0
	stw 31,12(1)
	.loc 5 85 0
	la 4,.LC15@l(4)
	lwz 9,declManager@l(30)
	.loc 5 83 0
	mr 31,3
	.cfi_offset 31, -4
	stw 0,20(1)
	.loc 5 85 0
	li 6,0
	mr 3,9
.LVL255:
	lwz 11,0(9)
	lwz 0,104(11)
	.cfi_offset 65, 4
	mtctr 0
	bctrl
	.loc 5 86 0
	lis 4,.LC16@ha
	.loc 5 85 0
	stw 3,4(31)
	.loc 5 86 0
	la 4,.LC16@l(4)
	lwz 3,declManager@l(30)
	li 5,1
	li 6,0
	lwz 9,0(3)
	lwz 0,104(9)
	mtctr 0
	bctrl
	.loc 5 88 0
	lis 9,.LC17@ha
	lwz 0,.LC17@l(9)
	.loc 5 86 0
	stw 3,8(31)
	.loc 5 88 0
	stw 0,16(31)
	.loc 5 89 0
	stw 0,20(31)
	.loc 5 91 0
	li 0,0
	stw 0,12(31)
	.loc 5 93 0
	lwz 0,20(1)
	lwz 30,8(1)
	mtlr 0
	lwz 31,12(1)
.LVL256:
	addi 1,1,16
.LCFI90:
	.cfi_def_cfa_offset 0
	.cfi_restore 31
	.cfi_restore 30
	blr
	.cfi_endproc
.LFE2857:
	.size	_ZN12SSDCrossHair14InitCrosshairsEv, .-_ZN12SSDCrossHair14InitCrosshairsEv
	.align 2
	.globl _ZN12SSDCrossHair16ReadFromSaveGameEP6idFile
	.type	_ZN12SSDCrossHair16ReadFromSaveGameEP6idFile, @function
_ZN12SSDCrossHair16ReadFromSaveGameEP6idFile:
.LFB2856:
	.loc 5 73 0
	.cfi_startproc
.LVL257:
	stwu 1,-16(1)
.LCFI91:
	.cfi_def_cfa_offset 16
	mflr 0
	stw 31,12(1)
	mr 31,4
	.cfi_offset 31, -4
	.cfi_register 65, 0
	stw 0,20(1)
	stw 30,8(1)
	.loc 5 73 0
	mr 30,3
	.cfi_offset 30, -8
	.cfi_offset 65, 4
	.loc 5 75 0
	bl _ZN12SSDCrossHair14InitCrosshairsEv
.LVL258:
	.loc 5 77 0
	lwz 9,0(31)
	addi 4,30,12
	li 5,4
	lwz 0,20(9)
	mr 3,31
	mtctr 0
	bctrl
	.loc 5 78 0
	lwz 9,0(31)
	addi 4,30,16
	li 5,4
	lwz 0,20(9)
	mr 3,31
	mtctr 0
	bctrl
	.loc 5 79 0
	lwz 9,0(31)
	mr 3,31
	addi 4,30,20
	lwz 0,20(9)
	li 5,4
	mtctr 0
	bctrl
	.loc 5 81 0
	lwz 0,20(1)
	lwz 30,8(1)
.LVL259:
	mtlr 0
	lwz 31,12(1)
.LVL260:
	addi 1,1,16
.LCFI92:
	.cfi_def_cfa_offset 0
	.cfi_restore 31
	.cfi_restore 30
	blr
	.cfi_endproc
.LFE2856:
	.size	_ZN12SSDCrossHair16ReadFromSaveGameEP6idFile, .-_ZN12SSDCrossHair16ReadFromSaveGameEP6idFile
	.align 2
	.globl _ZN12SSDCrossHair4DrawEP15idDeviceContextRK6idVec2
	.type	_ZN12SSDCrossHair4DrawEP15idDeviceContextRK6idVec2, @function
_ZN12SSDCrossHair4DrawEP15idDeviceContextRK6idVec2:
.LFB2858:
	.loc 5 95 0
	.cfi_startproc
.LVL261:
	mflr 0
	stwu 1,-8(1)
.LCFI93:
	.cfi_def_cfa_offset 8
	.cfi_register 65, 0
.LBB2243:
	.loc 5 100 0
	lis 11,.LC0@ha
	lfs 5,.LC0@l(11)
	.loc 5 98 0
	lis 11,.LC18@ha
.LBE2243:
	.loc 5 95 0
	stw 0,12(1)
.LBB2244:
	.loc 5 98 0
	lfs 0,.LC18@l(11)
	.loc 5 100 0
	fmr 6,5
	.loc 5 98 0
	lfs 3,16(3)
	.loc 5 99 0
	lfs 4,20(3)
.LVL262:
	.loc 5 100 0
	lwz 9,12(3)
	.loc 5 95 0
	fneg 1,3
	fneg 2,4
	.loc 5 98 0
	lfs 12,0(5)
	.loc 5 99 0
	lfs 13,4(5)
	.loc 5 100 0
	slwi 9,9,2
	add 9,3,9
	fmadds 1,1,0,12
	fmadds 2,2,0,13
	mr 3,4
.LVL263:
	lis 5,colorWhite@ha
.LVL264:
	lwz 4,4(9)
.LVL265:
	la 5,colorWhite@l(5)
	.cfi_offset 65, 4
	bl _ZN15idDeviceContext12DrawMaterialEffffPK10idMaterialRK6idVec4ff
.LVL266:
.LBE2244:
	.loc 5 102 0
	lwz 0,12(1)
	addi 1,1,8
.LCFI94:
	.cfi_def_cfa_offset 0
	mtlr 0
	blr
	.cfi_endproc
.LFE2858:
	.size	_ZN12SSDCrossHair4DrawEP15idDeviceContextRK6idVec2, .-_ZN12SSDCrossHair4DrawEP15idDeviceContextRK6idVec2
	.align 2
	.globl _ZN9SSDEntity10EntityInitEv
	.type	_ZN9SSDEntity10EntityInitEv, @function
_ZN9SSDEntity10EntityInitEv:
.LFB2868:
	.loc 5 178 0
	.cfi_startproc
.LVL267:
	mflr 0
	stwu 1,-24(1)
.LCFI95:
	.cfi_def_cfa_offset 24
	.cfi_register 65, 0
	stw 28,8(1)
	.loc 5 185 0
	lis 28,.LC12@ha
	.cfi_offset 28, -16
	.loc 5 178 0
	stw 0,28(1)
	.loc 5 180 0
	li 0,0
	.cfi_offset 65, 4
	.loc 5 178 0
	stw 29,12(1)
	.loc 5 183 0
	li 29,0
	.cfi_offset 29, -12
	.loc 5 178 0
	stw 30,16(1)
	.loc 5 185 0
	la 28,.LC12@l(28)
	.loc 5 178 0
	stw 31,20(1)
	.loc 5 185 0
	mr 4,28
	.loc 5 180 0
	stb 0,167(3)
	.loc 5 178 0
	mr 31,3
	.cfi_offset 31, -4
	.cfi_offset 30, -8
	.loc 5 183 0
	stw 29,4(3)
	.loc 5 185 0
	addi 3,3,12
.LVL268:
	bl _ZN5idStraSEPKc
.LBB2245:
.LBB2246:
	.loc 6 874 0
	lis 9,.LC0@ha
	lwz 30,.LC0@l(9)
.LBE2246:
.LBE2245:
.LBB2248:
.LBB2249:
	.loc 6 416 0
	li 0,0
.LBE2249:
.LBE2248:
	.loc 5 186 0
	stw 29,44(31)
.LVL269:
	.loc 5 203 0
	addi 3,31,96
.LBB2252:
.LBB2250:
	.loc 6 416 0
	stw 0,56(31)
.LBE2250:
.LBE2252:
	.loc 5 203 0
	mr 4,28
.LBB2253:
.LBB2251:
	.loc 6 416 0
	stw 0,52(31)
	stw 0,48(31)
.LVL270:
.LBE2251:
.LBE2253:
.LBB2254:
.LBB2255:
	.loc 6 120 0
	stw 0,64(31)
	stw 0,60(31)
.LBE2255:
.LBE2254:
	.loc 5 189 0
	stw 0,68(31)
	.loc 5 190 0
	stw 0,72(31)
	.loc 5 191 0
	stw 0,76(31)
	.loc 5 194 0
	stw 29,152(31)
	.loc 5 195 0
	stw 29,156(31)
	.loc 5 197 0
	stb 29,164(31)
	.loc 5 198 0
	stb 29,165(31)
	.loc 5 199 0
	stb 29,166(31)
.LVL271:
.LBB2256:
.LBB2247:
	.loc 6 874 0
	stw 30,80(31)
	.loc 6 875 0
	stw 30,84(31)
	.loc 6 876 0
	stw 30,88(31)
	.loc 6 877 0
	stw 30,92(31)
.LBE2247:
.LBE2256:
	.loc 5 203 0
	bl _ZN5idStraSEPKc
	.loc 5 204 0
	stw 30,128(31)
.LVL272:
.LBB2257:
.LBB2258:
	.loc 6 874 0
	stw 30,132(31)
	.loc 6 875 0
	stw 30,136(31)
	.loc 6 876 0
	stw 30,140(31)
	.loc 6 877 0
	stw 30,144(31)
.LBE2258:
.LBE2257:
	.loc 5 206 0
	lwz 0,28(1)
	lwz 28,8(1)
	mtlr 0
	lwz 29,12(1)
	lwz 30,16(1)
	lwz 31,20(1)
.LVL273:
	addi 1,1,24
.LCFI96:
	.cfi_def_cfa_offset 0
	.cfi_restore 31
	.cfi_restore 30
	.cfi_restore 29
	.cfi_restore 28
	blr
	.cfi_endproc
.LFE2868:
	.size	_ZN9SSDEntity10EntityInitEv, .-_ZN9SSDEntity10EntityInitEv
	.align 2
	.globl _ZN9SSDEntityC2Ev
	.type	_ZN9SSDEntityC2Ev, @function
_ZN9SSDEntityC2Ev:
.LFB2860:
	.loc 5 110 0
	.cfi_startproc
	.cfi_personality 0,__gxx_personality_v0
	.cfi_lsda 0,.LLSDA2860
.LVL274:
	mflr 0
	stwu 1,-16(1)
.LCFI97:
	.cfi_def_cfa_offset 16
	.cfi_register 65, 0
.LBB2259:
	lis 8,_ZTV9SSDEntity+8@ha
.LBB2260:
.LBB2261:
.LBB2262:
	.loc 7 357 0
	li 9,20
	.loc 7 358 0
	addi 10,3,24
.LBE2262:
.LBE2261:
.LBE2260:
.LBB2267:
.LBB2268:
.LBB2269:
	addi 11,3,108
.LBE2269:
.LBE2268:
.LBE2267:
.LBE2259:
	.loc 5 110 0
	stw 0,20(1)
.LBB2281:
	la 8,_ZTV9SSDEntity+8@l(8)
.LBB2272:
.LBB2265:
.LBB2263:
	.loc 7 356 0
	li 0,0
	.cfi_offset 65, 4
.LBE2263:
.LBE2265:
.LBE2272:
.LBE2281:
	.loc 5 110 0
	stw 31,12(1)
	stw 30,8(1)
	.loc 5 110 0
	mr 31,3
	.cfi_offset 30, -8
	.cfi_offset 31, -4
.LBB2282:
	stw 8,0(3)
.LVL275:
	.loc 5 112 0
	li 4,168
.LBB2273:
.LBB2266:
.LBB2264:
	.loc 7 356 0
	stw 0,12(3)
	.loc 7 357 0
	stw 9,20(3)
	.loc 7 358 0
	stw 10,16(3)
	.loc 7 359 0
	stb 0,24(3)
.LVL276:
.LBE2264:
.LBE2266:
.LBE2273:
.LBB2274:
.LBB2271:
.LBB2270:
	.loc 7 356 0
	stw 0,96(3)
	.loc 7 357 0
	stw 9,104(3)
	.loc 7 358 0
	stw 11,100(3)
	.loc 7 359 0
	stb 0,108(3)
.LBE2270:
.LBE2271:
.LBE2274:
	.loc 5 112 0
	lis 3,.LC19@ha
.LVL277:
	la 3,.LC19@l(3)
.LEHB3:
	crxor 6,6,6
	bl _Z15Sys_DebugPrintfPKcz
.LVL278:
	.loc 5 115 0
	mr 3,31
	bl _ZN9SSDEntity10EntityInitEv
.LEHE3:
.LBE2282:
	.loc 5 116 0
	lwz 0,20(1)
	lwz 30,8(1)
	mtlr 0
	lwz 31,12(1)
.LVL279:
	addi 1,1,16
	.cfi_remember_state
.LCFI98:
	.cfi_def_cfa_offset 0
	.cfi_restore 31
	.cfi_restore 30
	blr
.LVL280:
.L161:
.LCFI99:
	.cfi_restore_state
	mr 30,3
.LVL281:
.LBB2283:
.LBB2275:
.LBB2276:
.LBB2277:
	.loc 7 501 0
	addi 3,31,96
	bl _ZN5idStr8FreeDataEv
.LVL282:
.LBE2277:
.LBE2276:
.LBE2275:
.LBB2278:
.LBB2279:
.LBB2280:
	addi 3,31,12
	bl _ZN5idStr8FreeDataEv
	mr 3,30
.LEHB4:
	bl _Unwind_Resume
.LEHE4:
.LBE2280:
.LBE2279:
.LBE2278:
.LBE2283:
	.cfi_endproc
.LFE2860:
	.section	.gcc_except_table
.LLSDA2860:
	.byte	0xff
	.byte	0xff
	.byte	0x1
	.uleb128 .LLSDACSE2860-.LLSDACSB2860
.LLSDACSB2860:
	.uleb128 .LEHB3-.LFB2860
	.uleb128 .LEHE3-.LEHB3
	.uleb128 .L161-.LFB2860
	.uleb128 0
	.uleb128 .LEHB4-.LFB2860
	.uleb128 .LEHE4-.LEHB4
	.uleb128 0
	.uleb128 0
.LLSDACSE2860:
	.section	".text"
	.size	_ZN9SSDEntityC2Ev, .-_ZN9SSDEntityC2Ev
	.align 2
	.globl _ZN9SSDEntity7SetGameEP15idGameSSDWindow
	.type	_ZN9SSDEntity7SetGameEP15idGameSSDWindow, @function
_ZN9SSDEntity7SetGameEP15idGameSSDWindow:
.LFB2869:
	.loc 5 208 0
	.cfi_startproc
.LVL283:
	.loc 5 209 0
	stw 4,148(3)
	.loc 5 210 0
	blr
	.cfi_endproc
.LFE2869:
	.size	_ZN9SSDEntity7SetGameEP15idGameSSDWindow, .-_ZN9SSDEntity7SetGameEP15idGameSSDWindow
	.align 2
	.globl _ZN9SSDEntity11SetMaterialEPKc
	.type	_ZN9SSDEntity11SetMaterialEPKc, @function
_ZN9SSDEntity11SetMaterialEPKc:
.LFB2870:
	.loc 5 212 0
	.cfi_startproc
.LVL284:
	stwu 1,-16(1)
.LCFI100:
	.cfi_def_cfa_offset 16
	mflr 0
	stw 31,12(1)
	mr 31,3
	.cfi_offset 31, -4
	.cfi_register 65, 0
	.loc 5 213 0
	addi 3,3,12
.LVL285:
	.loc 5 212 0
	stw 0,20(1)
	stw 30,8(1)
	.loc 5 212 0
	mr 30,4
	.cfi_offset 30, -8
	.cfi_offset 65, 4
	.loc 5 213 0
	bl _ZN5idStraSEPKc
.LVL286:
	.loc 5 214 0
	lis 9,declManager@ha
	lwz 3,declManager@l(9)
	mr 4,30
	li 5,1
	li 6,0
	lwz 9,0(3)
	lwz 0,104(9)
	mtctr 0
	bctrl
.LBB2284:
.LBB2285:
	.file 9 "d:/Data/Nintendo/DoomGX/src/ui/../idlib/../renderer/Material.h"
	.loc 9 513 0
	lis 9,.LC20@ha
	lwz 0,.LC20@l(9)
.LBE2285:
.LBE2284:
	.loc 5 214 0
	stw 3,44(31)
.LVL287:
.LBB2287:
.LBB2286:
	.loc 9 513 0
	stw 0,148(3)
.LBE2286:
.LBE2287:
	.loc 5 216 0
	lwz 0,20(1)
	lwz 30,8(1)
.LVL288:
	mtlr 0
	lwz 31,12(1)
.LVL289:
	addi 1,1,16
.LCFI101:
	.cfi_def_cfa_offset 0
	.cfi_restore 31
	.cfi_restore 30
	blr
	.cfi_endproc
.LFE2870:
	.size	_ZN9SSDEntity11SetMaterialEPKc, .-_ZN9SSDEntity11SetMaterialEPKc
	.align 2
	.globl _ZN9SSDEntity16ReadFromSaveGameEP6idFileP15idGameSSDWindow
	.type	_ZN9SSDEntity16ReadFromSaveGameEP6idFileP15idGameSSDWindow, @function
_ZN9SSDEntity16ReadFromSaveGameEP6idFileP15idGameSSDWindow:
.LFB2867:
	.loc 5 149 0
	.cfi_startproc
.LVL290:
	mflr 0
	stwu 1,-24(1)
.LCFI102:
	.cfi_def_cfa_offset 24
	.cfi_register 65, 0
	stw 29,12(1)
	mr 29,5
	.cfi_offset 29, -12
	stw 30,16(1)
	.loc 5 151 0
	li 5,4
.LVL291:
	.loc 5 149 0
	stw 31,20(1)
	mr 31,4
	.cfi_offset 31, -4
	.cfi_offset 30, -8
	stw 0,28(1)
	.loc 5 149 0
	mr 30,3
	.loc 5 151 0
	lwz 9,0(4)
	addi 4,3,4
.LVL292:
	mr 3,31
.LVL293:
	lwz 0,20(9)
	.cfi_offset 65, 4
	mtctr 0
	bctrl
	.loc 5 152 0
	lwz 3,148(30)
	mr 5,31
	addi 4,30,12
	bl _ZN8idWindow18ReadSaveGameStringER5idStrP6idFile
	.loc 5 153 0
	lwz 4,16(30)
	mr 3,30
	bl _ZN9SSDEntity11SetMaterialEPKc
	.loc 5 154 0
	lwz 9,0(31)
	addi 4,30,48
	li 5,12
	lwz 0,20(9)
	mr 3,31
	mtctr 0
	bctrl
	.loc 5 155 0
	lwz 9,0(31)
	addi 4,30,60
	li 5,8
	lwz 0,20(9)
	mr 3,31
	mtctr 0
	bctrl
	.loc 5 156 0
	lwz 9,0(31)
	addi 4,30,68
	li 5,4
	lwz 0,20(9)
	mr 3,31
	mtctr 0
	bctrl
	.loc 5 157 0
	lwz 9,0(31)
	addi 4,30,72
	li 5,4
	lwz 0,20(9)
	mr 3,31
	mtctr 0
	bctrl
	.loc 5 158 0
	lwz 9,0(31)
	addi 4,30,76
	li 5,4
	lwz 0,20(9)
	mr 3,31
	mtctr 0
	bctrl
	.loc 5 160 0
	lwz 9,0(31)
	addi 4,30,80
	li 5,16
	lwz 0,20(9)
	mr 3,31
	mtctr 0
	bctrl
	.loc 5 162 0
	lwz 3,148(30)
	addi 4,30,96
	mr 5,31
	bl _ZN8idWindow18ReadSaveGameStringER5idStrP6idFile
	.loc 5 163 0
	lwz 9,0(31)
	addi 4,30,128
	li 5,4
	lwz 0,20(9)
	mr 3,31
	mtctr 0
	bctrl
	.loc 5 164 0
	lwz 9,0(31)
	addi 4,30,132
	li 5,16
	lwz 0,20(9)
	mr 3,31
	mtctr 0
	bctrl
	.loc 5 166 0
	stw 29,148(30)
	.loc 5 167 0
	addi 4,30,152
	li 5,4
	lwz 9,0(31)
	mr 3,31
	lwz 0,20(9)
	mtctr 0
	bctrl
	.loc 5 168 0
	lwz 9,0(31)
	addi 4,30,156
	li 5,4
	lwz 0,20(9)
	mr 3,31
	mtctr 0
	bctrl
	.loc 5 169 0
	lwz 9,0(31)
	addi 4,30,160
	li 5,4
	lwz 0,20(9)
	mr 3,31
	mtctr 0
	bctrl
	.loc 5 171 0
	lwz 9,0(31)
	addi 4,30,164
	li 5,1
	lwz 0,20(9)
	mr 3,31
	mtctr 0
	bctrl
	.loc 5 172 0
	lwz 9,0(31)
	addi 4,30,165
	li 5,1
	lwz 0,20(9)
	mr 3,31
	mtctr 0
	bctrl
	.loc 5 173 0
	lwz 9,0(31)
	addi 4,30,166
	li 5,1
	lwz 0,20(9)
	mr 3,31
	mtctr 0
	bctrl
	.loc 5 175 0
	lwz 9,0(31)
	mr 3,31
	addi 4,30,167
	lwz 0,20(9)
	li 5,1
	mtctr 0
	bctrl
	.loc 5 176 0
	lwz 0,28(1)
	lwz 29,12(1)
.LVL294:
	mtlr 0
	lwz 30,16(1)
.LVL295:
	lwz 31,20(1)
.LVL296:
	addi 1,1,24
.LCFI103:
	.cfi_def_cfa_offset 0
	.cfi_restore 31
	.cfi_restore 30
	.cfi_restore 29
	blr
	.cfi_endproc
.LFE2867:
	.size	_ZN9SSDEntity16ReadFromSaveGameEP6idFileP15idGameSSDWindow, .-_ZN9SSDEntity16ReadFromSaveGameEP6idFileP15idGameSSDWindow
	.align 2
	.globl _ZN13SSDProjectile16ReadFromSaveGameEP6idFileP15idGameSSDWindow
	.type	_ZN13SSDProjectile16ReadFromSaveGameEP6idFileP15idGameSSDWindow, @function
_ZN13SSDProjectile16ReadFromSaveGameEP6idFileP15idGameSSDWindow:
.LFB2960:
	.loc 5 947 0
	.cfi_startproc
.LVL297:
	stwu 1,-16(1)
.LCFI104:
	.cfi_def_cfa_offset 16
	mflr 0
	stw 31,12(1)
	mr 31,4
	.cfi_offset 31, -4
	.cfi_register 65, 0
	stw 0,20(1)
	stw 30,8(1)
	.loc 5 947 0
	mr 30,3
	.cfi_offset 30, -8
	.cfi_offset 65, 4
	.loc 5 948 0
	bl _ZN9SSDEntity16ReadFromSaveGameEP6idFileP15idGameSSDWindow
.LVL298:
	.loc 5 950 0
	lwz 9,0(31)
	addi 4,30,168
	li 5,12
	lwz 0,20(9)
	mr 3,31
	mtctr 0
	bctrl
	.loc 5 951 0
	lwz 9,0(31)
	addi 4,30,180
	li 5,12
	lwz 0,20(9)
	mr 3,31
	mtctr 0
	bctrl
	.loc 5 952 0
	lwz 9,0(31)
	addi 4,30,192
	li 5,4
	lwz 0,20(9)
	mr 3,31
	mtctr 0
	bctrl
	.loc 5 953 0
	lwz 9,0(31)
	addi 4,30,196
	li 5,4
	lwz 0,20(9)
	mr 3,31
	mtctr 0
	bctrl
	.loc 5 955 0
	lwz 9,0(31)
	mr 3,31
	addi 4,30,200
	lwz 0,20(9)
	li 5,12
	mtctr 0
	bctrl
	.loc 5 956 0
	lwz 0,20(1)
	lwz 30,8(1)
.LVL299:
	mtlr 0
	lwz 31,12(1)
.LVL300:
	addi 1,1,16
.LCFI105:
	.cfi_def_cfa_offset 0
	.cfi_restore 31
	.cfi_restore 30
	blr
	.cfi_endproc
.LFE2960:
	.size	_ZN13SSDProjectile16ReadFromSaveGameEP6idFileP15idGameSSDWindow, .-_ZN13SSDProjectile16ReadFromSaveGameEP6idFileP15idGameSSDWindow
	.align 2
	.globl _ZN9SSDPoints16ReadFromSaveGameEP6idFileP15idGameSSDWindow
	.type	_ZN9SSDPoints16ReadFromSaveGameEP6idFileP15idGameSSDWindow, @function
_ZN9SSDPoints16ReadFromSaveGameEP6idFileP15idGameSSDWindow:
.LFB2945:
	.loc 5 799 0
	.cfi_startproc
.LVL301:
	stwu 1,-16(1)
.LCFI106:
	.cfi_def_cfa_offset 16
	mflr 0
	stw 31,12(1)
	mr 31,4
	.cfi_offset 31, -4
	.cfi_register 65, 0
	stw 0,20(1)
	stw 30,8(1)
	.loc 5 799 0
	mr 30,3
	.cfi_offset 30, -8
	.cfi_offset 65, 4
	.loc 5 800 0
	bl _ZN9SSDEntity16ReadFromSaveGameEP6idFileP15idGameSSDWindow
.LVL302:
	.loc 5 802 0
	lwz 9,0(31)
	addi 4,30,168
	li 5,4
	lwz 0,20(9)
	mr 3,31
	mtctr 0
	bctrl
	.loc 5 803 0
	lwz 9,0(31)
	addi 4,30,172
	li 5,4
	lwz 0,20(9)
	mr 3,31
	mtctr 0
	bctrl
	.loc 5 804 0
	lwz 9,0(31)
	addi 4,30,176
	li 5,4
	lwz 0,20(9)
	mr 3,31
	mtctr 0
	bctrl
	.loc 5 805 0
	lwz 9,0(31)
	addi 4,30,180
	li 5,4
	lwz 0,20(9)
	mr 3,31
	mtctr 0
	bctrl
	.loc 5 807 0
	lwz 9,0(31)
	addi 4,30,184
	li 5,12
	lwz 0,20(9)
	mr 3,31
	mtctr 0
	bctrl
	.loc 5 808 0
	lwz 9,0(31)
	addi 4,30,196
	li 5,12
	lwz 0,20(9)
	mr 3,31
	mtctr 0
	bctrl
	.loc 5 810 0
	lwz 9,0(31)
	addi 4,30,208
	li 5,16
	lwz 0,20(9)
	mr 3,31
	mtctr 0
	bctrl
	.loc 5 811 0
	lwz 9,0(31)
	mr 3,31
	addi 4,30,224
	lwz 0,20(9)
	li 5,16
	mtctr 0
	bctrl
	.loc 5 812 0
	lwz 0,20(1)
	lwz 30,8(1)
.LVL303:
	mtlr 0
	lwz 31,12(1)
.LVL304:
	addi 1,1,16
.LCFI107:
	.cfi_def_cfa_offset 0
	.cfi_restore 31
	.cfi_restore 30
	blr
	.cfi_endproc
.LFE2945:
	.size	_ZN9SSDPoints16ReadFromSaveGameEP6idFileP15idGameSSDWindow, .-_ZN9SSDPoints16ReadFromSaveGameEP6idFileP15idGameSSDWindow
	.align 2
	.globl _ZN8SSDMover16ReadFromSaveGameEP6idFileP15idGameSSDWindow
	.type	_ZN8SSDMover16ReadFromSaveGameEP6idFileP15idGameSSDWindow, @function
_ZN8SSDMover16ReadFromSaveGameEP6idFileP15idGameSSDWindow:
.LFB2890:
	.loc 5 369 0
	.cfi_startproc
.LVL305:
	stwu 1,-16(1)
.LCFI108:
	.cfi_def_cfa_offset 16
	mflr 0
	stw 31,12(1)
	mr 31,4
	.cfi_offset 31, -4
	.cfi_register 65, 0
	stw 0,20(1)
	stw 30,8(1)
	.loc 5 369 0
	mr 30,3
	.cfi_offset 30, -8
	.cfi_offset 65, 4
	.loc 5 370 0
	bl _ZN9SSDEntity16ReadFromSaveGameEP6idFileP15idGameSSDWindow
.LVL306:
	.loc 5 372 0
	lwz 9,0(31)
	addi 4,30,168
	li 5,12
	lwz 0,20(9)
	mr 3,31
	mtctr 0
	bctrl
	.loc 5 373 0
	lwz 9,0(31)
	mr 3,31
	addi 4,30,180
	lwz 0,20(9)
	li 5,4
	mtctr 0
	bctrl
	.loc 5 374 0
	lwz 0,20(1)
	lwz 30,8(1)
.LVL307:
	mtlr 0
	lwz 31,12(1)
.LVL308:
	addi 1,1,16
.LCFI109:
	.cfi_def_cfa_offset 0
	.cfi_restore 31
	.cfi_restore 30
	blr
	.cfi_endproc
.LFE2890:
	.size	_ZN8SSDMover16ReadFromSaveGameEP6idFileP15idGameSSDWindow, .-_ZN8SSDMover16ReadFromSaveGameEP6idFileP15idGameSSDWindow
	.align 2
	.globl _ZN10SSDPowerup16ReadFromSaveGameEP6idFileP15idGameSSDWindow
	.type	_ZN10SSDPowerup16ReadFromSaveGameEP6idFileP15idGameSSDWindow, @function
_ZN10SSDPowerup16ReadFromSaveGameEP6idFileP15idGameSSDWindow:
.LFB2975:
	.loc 5 1073 0
	.cfi_startproc
.LVL309:
	stwu 1,-16(1)
.LCFI110:
	.cfi_def_cfa_offset 16
	mflr 0
	stw 31,12(1)
	mr 31,4
	.cfi_offset 31, -4
	.cfi_register 65, 0
	stw 0,20(1)
	stw 30,8(1)
	.loc 5 1073 0
	mr 30,3
	.cfi_offset 30, -8
	.cfi_offset 65, 4
	.loc 5 1074 0
	bl _ZN8SSDMover16ReadFromSaveGameEP6idFileP15idGameSSDWindow
.LVL310:
	.loc 5 1076 0
	lwz 9,0(31)
	addi 4,30,184
	li 5,4
	lwz 0,20(9)
	mr 3,31
	mtctr 0
	bctrl
	.loc 5 1077 0
	lwz 9,0(31)
	mr 3,31
	addi 4,30,188
	lwz 0,20(9)
	li 5,4
	mtctr 0
	bctrl
	.loc 5 1078 0
	lwz 0,20(1)
	lwz 30,8(1)
.LVL311:
	mtlr 0
	lwz 31,12(1)
.LVL312:
	addi 1,1,16
.LCFI111:
	.cfi_def_cfa_offset 0
	.cfi_restore 31
	.cfi_restore 30
	blr
	.cfi_endproc
.LFE2975:
	.size	_ZN10SSDPowerup16ReadFromSaveGameEP6idFileP15idGameSSDWindow, .-_ZN10SSDPowerup16ReadFromSaveGameEP6idFileP15idGameSSDWindow
	.align 2
	.globl _ZN12SSDAstronaut16ReadFromSaveGameEP6idFileP15idGameSSDWindow
	.type	_ZN12SSDAstronaut16ReadFromSaveGameEP6idFileP15idGameSSDWindow, @function
_ZN12SSDAstronaut16ReadFromSaveGameEP6idFileP15idGameSSDWindow:
.LFB2916:
	.loc 5 529 0
	.cfi_startproc
.LVL313:
	stwu 1,-16(1)
.LCFI112:
	.cfi_def_cfa_offset 16
	mflr 0
	stw 31,12(1)
	mr 31,4
	.cfi_offset 31, -4
	.cfi_register 65, 0
	stw 0,20(1)
	stw 30,8(1)
	.loc 5 529 0
	mr 30,3
	.cfi_offset 30, -8
	.cfi_offset 65, 4
	.loc 5 530 0
	bl _ZN8SSDMover16ReadFromSaveGameEP6idFileP15idGameSSDWindow
.LVL314:
	.loc 5 532 0
	lwz 9,0(31)
	mr 3,31
	addi 4,30,184
	lwz 0,20(9)
	li 5,4
	mtctr 0
	bctrl
	.loc 5 533 0
	lwz 0,20(1)
	lwz 30,8(1)
.LVL315:
	mtlr 0
	lwz 31,12(1)
.LVL316:
	addi 1,1,16
.LCFI113:
	.cfi_def_cfa_offset 0
	.cfi_restore 31
	.cfi_restore 30
	blr
	.cfi_endproc
.LFE2916:
	.size	_ZN12SSDAstronaut16ReadFromSaveGameEP6idFileP15idGameSSDWindow, .-_ZN12SSDAstronaut16ReadFromSaveGameEP6idFileP15idGameSSDWindow
	.align 2
	.globl _ZN11SSDAsteroid16ReadFromSaveGameEP6idFileP15idGameSSDWindow
	.type	_ZN11SSDAsteroid16ReadFromSaveGameEP6idFileP15idGameSSDWindow, @function
_ZN11SSDAsteroid16ReadFromSaveGameEP6idFileP15idGameSSDWindow:
.LFB2901:
	.loc 5 427 0
	.cfi_startproc
.LVL317:
	stwu 1,-16(1)
.LCFI114:
	.cfi_def_cfa_offset 16
	mflr 0
	stw 31,12(1)
	mr 31,4
	.cfi_offset 31, -4
	.cfi_register 65, 0
	stw 0,20(1)
	stw 30,8(1)
	.loc 5 427 0
	mr 30,3
	.cfi_offset 30, -8
	.cfi_offset 65, 4
	.loc 5 428 0
	bl _ZN8SSDMover16ReadFromSaveGameEP6idFileP15idGameSSDWindow
.LVL318:
	.loc 5 430 0
	lwz 9,0(31)
	mr 3,31
	addi 4,30,184
	lwz 0,20(9)
	li 5,4
	mtctr 0
	bctrl
	.loc 5 431 0
	lwz 0,20(1)
	lwz 30,8(1)
.LVL319:
	mtlr 0
	lwz 31,12(1)
.LVL320:
	addi 1,1,16
.LCFI115:
	.cfi_def_cfa_offset 0
	.cfi_restore 31
	.cfi_restore 30
	blr
	.cfi_endproc
.LFE2901:
	.size	_ZN11SSDAsteroid16ReadFromSaveGameEP6idFileP15idGameSSDWindow, .-_ZN11SSDAsteroid16ReadFromSaveGameEP6idFileP15idGameSSDWindow
	.align 2
	.globl _ZN9SSDEntity11SetPositionERK6idVec3
	.type	_ZN9SSDEntity11SetPositionERK6idVec3, @function
_ZN9SSDEntity11SetPositionERK6idVec3:
.LFB2871:
	.loc 5 218 0
	.cfi_startproc
.LVL321:
.LBB2288:
.LBB2289:
	.loc 6 424 0
	lwz 0,0(4)
.LVL322:
.LBE2289:
.LBE2288:
	.loc 5 220 0
.LBB2291:
.LBB2290:
	.loc 6 424 0
	stw 0,48(3)
	.loc 6 425 0
	lwz 0,4(4)
	stw 0,52(3)
	.loc 6 426 0
	lwz 0,8(4)
	stw 0,56(3)
.LBE2290:
.LBE2291:
	.loc 5 220 0
	blr
	.cfi_endproc
.LFE2871:
	.size	_ZN9SSDEntity11SetPositionERK6idVec3, .-_ZN9SSDEntity11SetPositionERK6idVec3
	.align 2
	.globl _ZN9SSDEntity7SetSizeERK6idVec2
	.type	_ZN9SSDEntity7SetSizeERK6idVec2, @function
_ZN9SSDEntity7SetSizeERK6idVec2:
.LFB2872:
	.loc 5 222 0
	.cfi_startproc
.LVL323:
	.loc 5 223 0
	lwz 11,4(4)
	lwz 10,0(4)
	stw 11,64(3)
	stw 10,60(3)
	.loc 5 224 0
	blr
	.cfi_endproc
.LFE2872:
	.size	_ZN9SSDEntity7SetSizeERK6idVec2, .-_ZN9SSDEntity7SetSizeERK6idVec2
	.align 2
	.globl _ZN9SSDEntity9SetRadiusEff
	.type	_ZN9SSDEntity9SetRadiusEff, @function
_ZN9SSDEntity9SetRadiusEff:
.LFB2873:
	.loc 5 226 0
	.cfi_startproc
.LVL324:
	.loc 5 228 0
	fmuls 2,1,2
.LVL325:
	.loc 5 227 0
	stfs 1,68(3)
	.loc 5 229 0
	.loc 5 228 0
	stfs 2,72(3)
	.loc 5 229 0
	blr
	.cfi_endproc
.LFE2873:
	.size	_ZN9SSDEntity9SetRadiusEff, .-_ZN9SSDEntity9SetRadiusEff
	.align 2
	.globl _ZN9SSDEntity11SetRotationEf
	.type	_ZN9SSDEntity11SetRotationEf, @function
_ZN9SSDEntity11SetRotationEf:
.LFB2874:
	.loc 5 231 0
	.cfi_startproc
.LVL326:
	.loc 5 232 0
	stfs 1,76(3)
	.loc 5 233 0
	blr
	.cfi_endproc
.LFE2874:
	.size	_ZN9SSDEntity11SetRotationEf, .-_ZN9SSDEntity11SetRotationEf
	.align 2
	.globl _ZN9SSDEntity6UpdateEv
	.type	_ZN9SSDEntity6UpdateEv, @function
_ZN9SSDEntity6UpdateEv:
.LFB2875:
	.loc 5 235 0
	.cfi_startproc
.LVL327:
	mflr 0
	stwu 1,-16(1)
.LCFI116:
	.cfi_def_cfa_offset 16
	.cfi_register 65, 0
	.loc 5 240 0
	lwz 9,156(3)
	.loc 5 235 0
	stw 31,12(1)
	mr 31,3
	.cfi_offset 31, -4
	stw 0,20(1)
	.loc 5 240 0
	cmpwi 7,9,0
	.loc 5 237 0
	lwz 11,148(3)
	lwz 0,932(11)
	.cfi_offset 65, 4
	stw 0,152(3)
	.loc 5 240 0
	beq+ 7,.L179
	.loc 5 245 0
	subf 0,9,0
	.loc 5 247 0
	lwz 9,0(3)
	.loc 5 245 0
	stw 0,160(3)
	.loc 5 247 0
	lwz 0,16(9)
	mtctr 0
	bctrl
.LVL328:
	.loc 5 249 0
	lwz 0,152(31)
.L179:
	stw 0,156(31)
	.loc 5 250 0
	lwz 0,20(1)
	lwz 31,12(1)
.LVL329:
	mtlr 0
	addi 1,1,16
.LCFI117:
	.cfi_def_cfa_offset 0
	.cfi_restore 31
	blr
	.cfi_endproc
.LFE2875:
	.size	_ZN9SSDEntity6UpdateEv, .-_ZN9SSDEntity6UpdateEv
	.align 2
	.globl _ZN9SSDEntity13WorldToScreenERK6idVec3
	.type	_ZN9SSDEntity13WorldToScreenERK6idVec3, @function
_ZN9SSDEntity13WorldToScreenERK6idVec3:
.LFB2880:
	.loc 5 317 0
	.cfi_startproc
.LVL330:
.LBB2292:
	.loc 5 319 0
	lis 9,_ZN6idMath9M_DEG2RADE@ha
.LBE2292:
	.loc 5 317 0
	mflr 0
.LBB2309:
	.loc 5 319 0
	lfs 1,_ZN6idMath9M_DEG2RADE@l(9)
	lis 9,.LC21@ha
	lfs 0,.LC21@l(9)
.LBB2293:
.LBB2294:
	.file 10 "d:/Data/Nintendo/DoomGX/src/ui/../idlib/../idlib/math/Math.h"
	.loc 10 460 0
	lis 9,.LC18@ha
.LBE2294:
.LBE2293:
.LBE2309:
	.loc 5 317 0
	stwu 1,-16(1)
.LCFI118:
	.cfi_def_cfa_offset 16
	.cfi_register 65, 0
.LBB2310:
	.loc 5 319 0
	fmuls 1,1,0
.LBB2298:
.LBB2295:
	.loc 10 460 0
	lfs 0,.LC18@l(9)
.LBE2295:
.LBE2298:
.LBE2310:
	.loc 5 317 0
	stw 0,20(1)
	stw 30,8(1)
	mr 30,5
	.cfi_offset 30, -8
	.cfi_offset 65, 4
.LBB2311:
.LBB2299:
.LBB2296:
	.loc 10 460 0
	fmuls 1,1,0
.LBE2296:
.LBE2299:
.LBE2311:
	.loc 5 317 0
	stw 31,12(1)
	.loc 5 317 0
	mr 31,3
	.cfi_offset 31, -4
.LBB2312:
.LBB2300:
.LBB2297:
	.loc 10 460 0
	bl tanf
.LVL331:
.LBE2297:
.LBE2300:
	.loc 5 319 0
	lis 9,.LC22@ha
	lfs 13,.LC22@l(9)
.LBB2301:
.LBB2302:
	.loc 6 452 0
	lis 9,.LC1@ha
	lfs 0,4(30)
.LBE2302:
.LBE2301:
.LBE2312:
	.loc 5 333 0
	mr 3,31
.LBB2313:
	.loc 5 319 0
	fmuls 1,1,13
.LVL332:
.LBB2306:
.LBB2303:
	.loc 6 452 0
	lfs 12,.LC1@l(9)
	lfs 13,0(30)
.LBE2303:
.LBE2306:
	.loc 5 328 0
	lis 9,.LC23@ha
.LBB2307:
.LBB2304:
	.loc 6 452 0
	fadds 0,0,12
	fadds 12,13,12
	lfs 13,8(30)
.LBE2304:
.LBE2307:
	.loc 5 329 0
	fneg 11,1
.LBB2308:
.LBB2305:
	.loc 6 452 0
	fadds 13,1,13
.LVL333:
.LBE2305:
.LBE2308:
	.loc 5 328 0
	fmuls 12,1,12
	.loc 5 329 0
	fmuls 0,11,0
.LVL334:
	.loc 5 330 0
	stfs 13,8(31)
	.loc 5 328 0
	fdivs 12,12,13
	.loc 5 329 0
	fdivs 13,0,13
.LVL335:
	.loc 5 328 0
	lfs 0,.LC23@l(9)
	.loc 5 329 0
	lis 9,.LC24@ha
	lfs 11,.LC24@l(9)
	.loc 5 328 0
	fadds 12,12,0
	.loc 5 329 0
	fadds 13,13,11
	.loc 5 328 0
	stfs 12,0(31)
	.loc 5 329 0
	stfs 13,4(31)
.LBE2313:
	.loc 5 333 0
	lwz 0,20(1)
	lwz 30,8(1)
.LVL336:
	mtlr 0
	lwz 31,12(1)
.LVL337:
	addi 1,1,16
.LCFI119:
	.cfi_def_cfa_offset 0
	.cfi_restore 31
	.cfi_restore 30
	blr
	.cfi_endproc
.LFE2880:
	.size	_ZN9SSDEntity13WorldToScreenERK6idVec3, .-_ZN9SSDEntity13WorldToScreenERK6idVec3
	.align 2
	.globl _ZN9SSDEntity13WorldToScreenE8idBounds
	.type	_ZN9SSDEntity13WorldToScreenE8idBounds, @function
_ZN9SSDEntity13WorldToScreenE8idBounds:
.LFB2879:
	.loc 5 308 0
	.cfi_startproc
.LVL338:
	stwu 1,-56(1)
.LCFI120:
	.cfi_def_cfa_offset 56
	mflr 0
	stw 29,44(1)
	mr 29,4
	.cfi_offset 29, -12
	.cfi_register 65, 0
	stw 30,48(1)
	mr 30,5
	.cfi_offset 30, -8
.LVL339:
	stw 31,52(1)
	mr 31,3
	.cfi_offset 31, -4
.LBB2314:
	.loc 5 310 0
	addi 3,1,20
.LVL340:
.LBE2314:
	.loc 5 308 0
	stw 0,60(1)
.LBB2323:
	.loc 5 310 0
	.cfi_offset 65, 4
	bl _ZN9SSDEntity13WorldToScreenERK6idVec3
.LVL341:
	.loc 5 311 0
	addi 3,1,8
	mr 4,29
	addi 5,30,12
	bl _ZN9SSDEntity13WorldToScreenERK6idVec3
.LVL342:
.LBB2315:
.LBB2316:
.LBB2317:
	.loc 6 424 0
	lwz 0,20(1)
.LBE2317:
.LBE2316:
.LBE2315:
.LBE2323:
	.loc 5 315 0
	mr 3,31
.LBB2324:
.LBB2322:
.LBB2319:
.LBB2318:
	.loc 6 424 0
	stw 0,0(31)
	.loc 6 425 0
	lwz 0,24(1)
	stw 0,4(31)
	.loc 6 426 0
	lwz 0,28(1)
	stw 0,8(31)
.LVL343:
.LBE2318:
.LBE2319:
.LBB2320:
.LBB2321:
	.loc 6 424 0
	lwz 0,8(1)
	stw 0,12(31)
	.loc 6 425 0
	lwz 0,12(1)
	stw 0,16(31)
	.loc 6 426 0
	lwz 0,16(1)
	stw 0,20(31)
.LBE2321:
.LBE2320:
.LBE2322:
.LBE2324:
	.loc 5 315 0
	lwz 0,60(1)
	lwz 29,44(1)
.LVL344:
	mtlr 0
	lwz 30,48(1)
.LVL345:
	lwz 31,52(1)
.LVL346:
	addi 1,1,56
.LCFI121:
	.cfi_def_cfa_offset 0
	.cfi_restore 31
	.cfi_restore 30
	.cfi_restore 29
	blr
	.cfi_endproc
.LFE2879:
	.size	_ZN9SSDEntity13WorldToScreenE8idBounds, .-_ZN9SSDEntity13WorldToScreenE8idBounds
	.align 2
	.globl _ZN9SSDEntity4DrawEP15idDeviceContext
	.type	_ZN9SSDEntity4DrawEP15idDeviceContext, @function
_ZN9SSDEntity4DrawEP15idDeviceContext:
.LFB2877:
	.loc 5 277 0
	.cfi_startproc
.LVL347:
	mflr 0
	stwu 1,-176(1)
.LCFI122:
	.cfi_def_cfa_offset 176
	.cfi_register 65, 0
.LVL348:
.LBB2325:
.LBB2326:
.LBB2327:
	.loc 5 284 0
	lis 9,.LC18@ha
.LBE2327:
.LBE2326:
.LBE2325:
	.loc 5 277 0
	stfd 30,160(1)
.LBB2360:
	.loc 5 287 0
	addi 5,1,88
.LBE2360:
	.loc 5 277 0
	stfd 31,168(1)
	stw 28,144(1)
	mr 28,4
	.cfi_offset 28, -32
	.cfi_offset 63, -8
	.cfi_offset 62, -16
	stw 29,148(1)
	mr 29,3
	.cfi_offset 29, -28
	stw 0,180(1)
.LBB2361:
	.loc 5 287 0
	mr 4,29
.LVL349:
.LBE2361:
	.loc 5 277 0
	stw 30,152(1)
	stw 31,156(1)
.LBB2362:
.LBB2334:
.LBB2328:
	.loc 5 284 0
	lfs 0,.LC18@l(9)
.LBE2328:
.LBE2334:
	lfs 10,60(3)
	lfs 12,64(3)
.LBB2335:
.LBB2329:
	.loc 5 277 0
	fneg 8,10
.LBE2329:
.LBE2335:
	.loc 5 284 0
	lfs 11,48(3)
.LBB2336:
.LBB2330:
	.loc 5 277 0
	fneg 9,12
.LBE2330:
.LBE2336:
	.loc 5 284 0
	lfs 13,52(3)
	lwz 0,56(3)
	.cfi_offset 31, -20
	.cfi_offset 30, -24
	.cfi_offset 65, 4
	.loc 5 287 0
	addi 3,1,32
.LVL350:
.LBB2337:
.LBB2331:
	.loc 5 284 0
	fmadds 8,8,0,11
	fmadds 9,9,0,13
	.loc 6 426 0
	stw 0,64(1)
.LBE2331:
.LBE2337:
.LBB2338:
.LBB2339:
	stw 0,76(1)
	.loc 5 285 0
	fmadds 11,10,0,11
.LVL351:
.LBE2339:
.LBE2338:
.LBB2343:
.LBB2332:
	.loc 6 424 0
	stfs 8,56(1)
.LBE2332:
.LBE2343:
.LBB2344:
.LBB2340:
	.loc 5 285 0
	fmadds 0,12,0,13
.LBE2340:
.LBE2344:
.LBB2345:
.LBB2333:
	.loc 6 425 0
	stfs 9,60(1)
.LBE2333:
.LBE2345:
	.loc 5 287 0
	lwz 0,56(1)
.LBB2346:
.LBB2341:
	.loc 6 424 0
	stfs 11,68(1)
.LBE2341:
.LBE2346:
	.loc 5 287 0
	stw 0,88(1)
	lwz 0,60(1)
.LBB2347:
.LBB2342:
	.loc 6 425 0
	stfs 0,72(1)
.LBE2342:
.LBE2347:
	.loc 5 287 0
	stw 0,92(1)
	lwz 0,64(1)
	stw 0,96(1)
	lwz 0,68(1)
	stw 0,100(1)
	lwz 0,72(1)
	stw 0,104(1)
	lwz 0,76(1)
	stw 0,108(1)
	bl _ZN9SSDEntity13WorldToScreenE8idBounds
.LVL352:
	lfs 30,32(1)
.LVL353:
	.loc 5 295 0
	lis 9,.LC0@ha
	.loc 5 288 0
	lfs 3,44(1)
	.loc 5 295 0
	mr 3,28
	lfs 7,76(29)
	fmr 1,30
	.loc 5 288 0
	fsubs 3,3,30
	.loc 5 295 0
	lwz 4,44(29)
	.loc 5 287 0
	lfs 31,48(1)
.LVL354:
	.loc 5 295 0
	addi 5,29,80
	.loc 5 289 0
	lfs 4,36(1)
	.loc 5 295 0
	stfs 3,136(1)
	fmr 2,31
	.loc 5 289 0
	fsubs 4,31,4
	.loc 5 295 0
	lfs 5,.LC0@l(9)
	lwz 0,136(1)
	lis 9,_ZN6idMath9M_DEG2RADE@ha
	lfs 0,_ZN6idMath9M_DEG2RADE@l(9)
	fmr 6,5
	rlwinm 0,0,0,1,31
	stw 0,136(1)
	fmuls 7,7,0
	lfs 3,136(1)
.LVL355:
	stfs 4,136(1)
	lwz 0,136(1)
	rlwinm 0,0,0,1,31
	stw 0,136(1)
	lfs 4,136(1)
	bl _ZN15idDeviceContext19DrawMaterialRotatedEffffPK10idMaterialRK6idVec4fff
.LVL356:
.LBB2348:
	.loc 5 297 0
	lwz 0,96(29)
	cmpwi 7,0,0
	ble- 7,.L182
.LVL357:
.LBB2349:
	.loc 5 299 0
	lwz 11,144(29)
	li 0,0
.LBB2350:
.LBB2351:
	.file 11 "d:/Data/Nintendo/DoomGX/src/ui/Rectangle.h"
	.loc 11 41 0
	stfs 30,16(1)
.LBE2351:
.LBE2350:
	.loc 5 299 0
	mr 3,28
	lfs 1,128(29)
	li 5,0
	lwz 4,100(29)
	addi 6,1,88
	lwz 30,132(29)
	addi 7,1,120
	lwz 31,136(29)
	li 8,0
	lwz 12,140(29)
.LBB2356:
.LBB2352:
	.loc 11 41 0
	lis 29,.LC25@ha
.LVL358:
	stfs 31,20(1)
.LBE2352:
.LBE2356:
	.loc 5 299 0
	li 9,-1
	stw 11,100(1)
	li 10,0
	lwz 11,16(1)
.LBB2357:
.LBB2353:
	.loc 11 41 0
	lwz 29,.LC25@l(29)
.LBE2353:
.LBE2357:
	.loc 5 299 0
	stw 11,120(1)
	lwz 11,20(1)
.LBB2358:
.LBB2354:
	.loc 11 41 0
	stw 29,24(1)
	lis 29,.LC26@ha
	lwz 29,.LC26@l(29)
.LBE2354:
.LBE2358:
	.loc 5 299 0
	stw 11,124(1)
	lis 11,0x4420
	stw 11,128(1)
	lis 11,0x43f0
.LBB2359:
.LBB2355:
	.loc 11 41 0
	stw 29,28(1)
.LBE2355:
.LBE2359:
	.loc 5 299 0
	stw 30,88(1)
	stw 31,92(1)
	stw 12,96(1)
	stw 11,132(1)
	stw 0,8(1)
	stw 0,12(1)
	bl _ZN15idDeviceContext8DrawTextEPKcfi6idVec411idRectanglebibP6idListIiEi
.LVL359:
.L182:
.LBE2349:
.LBE2348:
.LBE2362:
	.loc 5 302 0
	lwz 0,180(1)
	lwz 28,144(1)
.LVL360:
	mtlr 0
	lwz 29,148(1)
	lwz 30,152(1)
	lwz 31,156(1)
	lfd 30,160(1)
	lfd 31,168(1)
	addi 1,1,176
.LCFI123:
	.cfi_def_cfa_offset 0
	.cfi_restore 63
	.cfi_restore 62
	.cfi_restore 31
	.cfi_restore 30
	.cfi_restore 29
	.cfi_restore 28
	blr
	.cfi_endproc
.LFE2877:
	.size	_ZN9SSDEntity4DrawEP15idDeviceContext, .-_ZN9SSDEntity4DrawEP15idDeviceContext
	.align 2
	.globl _ZN9SSDEntity7HitTestERK6idVec2
	.type	_ZN9SSDEntity7HitTestERK6idVec2, @function
_ZN9SSDEntity7HitTestERK6idVec2:
.LFB2876:
	.loc 5 252 0
	.cfi_startproc
.LVL361:
	mflr 0
	stwu 1,-40(1)
.LCFI124:
	.cfi_def_cfa_offset 40
	.cfi_register 65, 0
	stw 30,32(1)
	mr 30,4
	.cfi_offset 30, -8
	stw 31,36(1)
	mr 31,3
	.cfi_offset 31, -4
	stw 0,44(1)
.LBB2363:
	.loc 5 254 0
	lbz 0,165(3)
	.cfi_offset 65, 4
	.loc 5 255 0
	li 3,0
.LVL362:
	.loc 5 254 0
	cmpwi 7,0,0
	bne- 7,.L185
	.loc 5 258 0
	addi 3,1,8
	mr 4,31
.LVL363:
	addi 5,31,48
	bl _ZN9SSDEntity13WorldToScreenERK6idVec3
.LVL364:
	.loc 5 262 0
	lis 9,.LC27@ha
	lfs 0,.LC27@l(9)
	lis 9,.LC28@ha
	lfs 13,16(1)
.LBB2364:
.LBB2365:
	.loc 6 237 0
	lfs 12,4(30)
.LBE2365:
.LBE2364:
	.loc 5 262 0
	fsubs 0,13,0
	lfs 13,.LC28@l(9)
.LBB2370:
.LBB2366:
	.loc 6 237 0
	lfs 10,12(1)
.LBE2366:
.LBE2370:
	.loc 5 262 0
	lis 9,.LC0@ha
	.loc 5 263 0
	lfs 11,72(31)
	.loc 5 262 0
	fdivs 0,0,13
.LBB2371:
.LBB2367:
	.loc 6 237 0
	lfs 13,0(30)
	fsubs 12,10,12
.LBE2367:
.LBE2371:
	.loc 5 262 0
	lfs 10,.LC0@l(9)
	fsubs 0,10,0
.LBB2372:
.LBB2368:
	.loc 6 237 0
	lfs 10,8(1)
.LBE2368:
.LBE2372:
.LBB2373:
.LBB2374:
	.loc 6 167 0
	fmuls 12,12,12
.LBE2374:
.LBE2373:
.LBB2375:
.LBB2369:
	.loc 6 237 0
	fsubs 13,10,13
.LBE2369:
.LBE2375:
	.loc 5 263 0
	fmuls 0,0,11
.LVL365:
.LBB2376:
.LBB2377:
	.loc 6 167 0
	fmadds 12,13,13,12
.LBE2377:
.LBE2376:
	.loc 5 266 0
	fmuls 0,0,0
.LVL366:
.LBB2379:
.LBB2378:
	.loc 6 167 0
	stfs 12,24(1)
	lwz 0,24(1)
	.loc 10 781 0
	rlwinm 0,0,0,1,31
.LBE2378:
.LBE2379:
	.loc 5 271 0
	stw 0,24(1)
	lfs 13,24(1)
.LVL367:
	fcmpu 7,0,13
	mfcr 3
	rlwinm 3,3,30,1
.LVL368:
.L185:
.LBE2363:
	.loc 5 275 0
	lwz 0,44(1)
	lwz 30,32(1)
.LVL369:
	mtlr 0
	lwz 31,36(1)
.LVL370:
	addi 1,1,40
.LCFI125:
	.cfi_def_cfa_offset 0
	.cfi_restore 31
	.cfi_restore 30
	blr
	.cfi_endproc
.LFE2876:
	.size	_ZN9SSDEntity7HitTestERK6idVec2, .-_ZN9SSDEntity7HitTestERK6idVec2
	.align 2
	.globl _ZN9SSDEntity13ScreenToWorldERK6idVec3
	.type	_ZN9SSDEntity13ScreenToWorldERK6idVec3, @function
_ZN9SSDEntity13ScreenToWorldERK6idVec3:
.LFB2881:
	.loc 5 335 0
	.cfi_startproc
.LVL371:
.LBB2380:
	.loc 5 340 0
	lis 9,.LC29@ha
	lfs 13,4(5)
	lfs 0,.LC29@l(9)
	.loc 5 339 0
	lis 9,.LC22@ha
	lfs 12,0(5)
.LBE2380:
	.loc 5 344 0
.LBB2381:
	.loc 5 340 0
	fsubs 0,13,0
	.loc 5 339 0
	lfs 13,.LC22@l(9)
	.loc 5 341 0
	lwz 0,8(5)
	.loc 5 339 0
	fsubs 13,12,13
	.loc 5 340 0
	fneg 0,0
	.loc 5 341 0
	stw 0,8(3)
	.loc 5 339 0
	stfs 13,0(3)
	.loc 5 340 0
	stfs 0,4(3)
.LBE2381:
	.loc 5 344 0
	blr
	.cfi_endproc
.LFE2881:
	.size	_ZN9SSDEntity13ScreenToWorldERK6idVec3, .-_ZN9SSDEntity13ScreenToWorldERK6idVec3
	.align 2
	.globl _ZN8SSDMoverC2Ev
	.type	_ZN8SSDMoverC2Ev, @function
_ZN8SSDMoverC2Ev:
.LFB2883:
	.loc 5 352 0
	.cfi_startproc
	.cfi_personality 0,__gxx_personality_v0
	.cfi_lsda 0,.LLSDA2883
.LVL372:
	mflr 0
	stwu 1,-16(1)
.LCFI126:
	.cfi_def_cfa_offset 16
	.cfi_register 65, 0
	stw 31,12(1)
	mr 31,3
	.cfi_offset 31, -4
	stw 0,20(1)
	stw 30,8(1)
.LEHB5:
.LBB2382:
	.loc 5 352 0
	.cfi_offset 30, -8
	.cfi_offset 65, 4
	bl _ZN9SSDEntityC2Ev
.LEHE5:
.LVL373:
	lis 9,_ZTV8SSDMover+8@ha
	.loc 5 354 0
	lis 3,.LC30@ha
	.loc 5 352 0
	la 0,_ZTV8SSDMover+8@l(9)
	.loc 5 354 0
	la 3,.LC30@l(3)
	.loc 5 352 0
	stw 0,0(31)
	.loc 5 354 0
	li 4,184
.LEHB6:
	crxor 6,6,6
	bl _Z15Sys_DebugPrintfPKcz
.LEHE6:
.LBE2382:
	.loc 5 357 0
	lwz 0,20(1)
	lwz 30,8(1)
	mtlr 0
	lwz 31,12(1)
.LVL374:
	addi 1,1,16
	.cfi_remember_state
.LCFI127:
	.cfi_def_cfa_offset 0
	.cfi_restore 31
	.cfi_restore 30
	blr
.LVL375:
.L190:
.LCFI128:
	.cfi_restore_state
	mr 30,3
.LBB2383:
	.loc 5 352 0
	mr 3,31
	bl _ZN9SSDEntityD2Ev
	mr 3,30
.LEHB7:
	bl _Unwind_Resume
.LEHE7:
.LBE2383:
	.cfi_endproc
.LFE2883:
	.section	.gcc_except_table
.LLSDA2883:
	.byte	0xff
	.byte	0xff
	.byte	0x1
	.uleb128 .LLSDACSE2883-.LLSDACSB2883
.LLSDACSB2883:
	.uleb128 .LEHB5-.LFB2883
	.uleb128 .LEHE5-.LEHB5
	.uleb128 0
	.uleb128 0
	.uleb128 .LEHB6-.LFB2883
	.uleb128 .LEHE6-.LEHB6
	.uleb128 .L190-.LFB2883
	.uleb128 0
	.uleb128 .LEHB7-.LFB2883
	.uleb128 .LEHE7-.LEHB7
	.uleb128 0
	.uleb128 0
.LLSDACSE2883:
	.section	".text"
	.size	_ZN8SSDMoverC2Ev, .-_ZN8SSDMoverC2Ev
	.align 2
	.globl _ZN8SSDMover9MoverInitERK6idVec3f
	.type	_ZN8SSDMover9MoverInitERK6idVec3f, @function
_ZN8SSDMover9MoverInitERK6idVec3f:
.LFB2891:
	.loc 5 376 0
	.cfi_startproc
.LVL376:
.LBB2384:
.LBB2385:
	.loc 6 424 0
	lwz 0,0(4)
.LVL377:
.LBE2385:
.LBE2384:
	.loc 5 380 0
.LBB2388:
.LBB2386:
	.loc 6 424 0
	stw 0,168(3)
	.loc 6 425 0
	lwz 0,4(4)
	stw 0,172(3)
	.loc 6 426 0
	lwz 0,8(4)
.LBE2386:
.LBE2388:
	.loc 5 379 0
	stfs 1,180(3)
.LBB2389:
.LBB2387:
	.loc 6 426 0
	stw 0,176(3)
.LBE2387:
.LBE2389:
	.loc 5 380 0
	blr
	.cfi_endproc
.LFE2891:
	.size	_ZN8SSDMover9MoverInitERK6idVec3f, .-_ZN8SSDMover9MoverInitERK6idVec3f
	.align 2
	.globl _ZN11SSDAsteroidC2Ev
	.type	_ZN11SSDAsteroidC2Ev, @function
_ZN11SSDAsteroidC2Ev:
.LFB2894:
	.loc 5 411 0
	.cfi_startproc
	.cfi_personality 0,__gxx_personality_v0
	.cfi_lsda 0,.LLSDA2894
.LVL378:
	mflr 0
	stwu 1,-16(1)
.LCFI129:
	.cfi_def_cfa_offset 16
	.cfi_register 65, 0
	stw 31,12(1)
	mr 31,3
	.cfi_offset 31, -4
	stw 0,20(1)
	stw 30,8(1)
.LEHB8:
.LBB2390:
	.loc 5 411 0
	.cfi_offset 30, -8
	.cfi_offset 65, 4
	bl _ZN8SSDMoverC2Ev
.LEHE8:
.LVL379:
	lis 9,_ZTV11SSDAsteroid+8@ha
	.loc 5 413 0
	lis 3,.LC31@ha
	.loc 5 411 0
	la 0,_ZTV11SSDAsteroid+8@l(9)
	.loc 5 413 0
	la 3,.LC31@l(3)
	.loc 5 411 0
	stw 0,0(31)
	.loc 5 413 0
	li 4,188
.LEHB9:
	crxor 6,6,6
	bl _Z15Sys_DebugPrintfPKcz
.LEHE9:
.LBE2390:
	.loc 5 416 0
	lwz 0,20(1)
	lwz 30,8(1)
	mtlr 0
	lwz 31,12(1)
.LVL380:
	addi 1,1,16
	.cfi_remember_state
.LCFI130:
	.cfi_def_cfa_offset 0
	.cfi_restore 31
	.cfi_restore 30
	blr
.LVL381:
.L195:
.LCFI131:
	.cfi_restore_state
	mr 30,3
.LBB2391:
	.loc 5 411 0
	mr 3,31
	bl _ZN8SSDMoverD2Ev
	mr 3,30
.LEHB10:
	bl _Unwind_Resume
.LEHE10:
.LBE2391:
	.cfi_endproc
.LFE2894:
	.section	.gcc_except_table
.LLSDA2894:
	.byte	0xff
	.byte	0xff
	.byte	0x1
	.uleb128 .LLSDACSE2894-.LLSDACSB2894
.LLSDACSB2894:
	.uleb128 .LEHB8-.LFB2894
	.uleb128 .LEHE8-.LEHB8
	.uleb128 0
	.uleb128 0
	.uleb128 .LEHB9-.LFB2894
	.uleb128 .LEHE9-.LEHB9
	.uleb128 .L195-.LFB2894
	.uleb128 0
	.uleb128 .LEHB10-.LFB2894
	.uleb128 .LEHE10-.LEHB10
	.uleb128 0
	.uleb128 0
.LLSDACSE2894:
	.section	".text"
	.size	_ZN11SSDAsteroidC2Ev, .-_ZN11SSDAsteroidC2Ev
	.align 2
	.globl _ZN11SSDAsteroid4InitEP15idGameSSDWindowRK6idVec3RK6idVec2ffi
	.type	_ZN11SSDAsteroid4InitEP15idGameSSDWindowRK6idVec3RK6idVec2ffi, @function
_ZN11SSDAsteroid4InitEP15idGameSSDWindowRK6idVec3RK6idVec2ffi:
.LFB2902:
	.loc 5 433 0
	.cfi_startproc
.LVL382:
	stwu 1,-56(1)
.LCFI132:
	.cfi_def_cfa_offset 56
	mflr 0
	stfd 31,48(1)
	fmr 31,1
	.cfi_offset 63, -8
	.cfi_register 65, 0
	stfd 30,40(1)
	fmr 30,2
	.cfi_offset 62, -16
	stw 0,60(1)
	.loc 5 436 0
	fneg 31,31
	.loc 5 433 0
	stw 27,20(1)
	stw 28,24(1)
	mr 27,7
	.cfi_offset 28, -32
	.cfi_offset 27, -36
	.cfi_offset 65, 4
	stw 29,28(1)
	mr 28,5
	mr 29,4
	.cfi_offset 29, -28
	stw 30,32(1)
	stw 31,36(1)
	.loc 5 433 0
	mr 30,6
	.cfi_offset 31, -20
	.cfi_offset 30, -24
	mr 31,3
	.loc 5 435 0
	bl _ZN9SSDEntity10EntityInitEv
.LVL383:
.LBB2416:
.LBB2417:
.LBB2418:
.LBB2419:
	.loc 6 424 0
	li 0,0
	.loc 6 426 0
	stfs 31,176(31)
	.loc 6 424 0
	stw 0,168(31)
.LBE2419:
.LBE2418:
.LBE2417:
.LBE2416:
	.loc 5 442 0
	lis 4,.LC32@ha
.LBB2424:
.LBB2422:
.LBB2421:
.LBB2420:
	.loc 6 425 0
	stw 0,172(31)
.LBE2420:
.LBE2421:
.LBE2422:
.LBE2424:
	.loc 5 440 0
	li 0,1
.LBB2425:
.LBB2423:
	.loc 5 379 0
	stfs 30,180(31)
.LVL384:
.LBE2423:
.LBE2425:
	.loc 5 442 0
	mr 3,31
.LBB2426:
.LBB2427:
	.loc 5 209 0
	stw 29,148(31)
.LBE2427:
.LBE2426:
	.loc 5 442 0
	la 4,.LC32@l(4)
	.loc 5 440 0
	stw 0,4(31)
	.loc 5 442 0
	bl _ZN9SSDEntity11SetMaterialEPKc
.LVL385:
.LBB2428:
.LBB2429:
	.loc 5 223 0
	lwz 10,0(30)
	lwz 11,4(30)
	stw 10,60(31)
	stw 11,64(31)
.LBE2429:
.LBE2428:
	.loc 5 444 0
	lfs 13,60(31)
	lfs 0,64(31)
.LVL386:
.LBB2430:
.LBB2431:
	.file 12 "d:/Data/Nintendo/DoomGX/src/ui/../idlib/../idlib/Lib.h"
	.loc 12 158 0
	fcmpu 7,13,0
	bng+ 7,.L198
	fmr 0,13
.L198:
.LVL387:
.LBE2431:
.LBE2430:
.LBB2432:
.LBB2433:
.LBB2434:
.LBB2435:
.LBB2436:
.LBB2437:
	.file 13 "d:/Data/Nintendo/DoomGX/src/ui/../idlib/../idlib/math/Random.h"
	.loc 13 71 0
	lis 9,_ZN15idGameSSDWindow6randomE@ha
	lis 11,0x1
	lwz 0,_ZN15idGameSSDWindow6randomE@l(9)
	ori 11,11,3533
.LBE2437:
.LBE2436:
	.loc 13 79 0
	lis 10,0xb60b
.LBE2435:
.LBE2434:
.LBE2433:
.LBE2432:
	.loc 5 445 0
	lis 8,0x4330
.LBB2448:
.LBB2446:
.LBB2444:
.LBB2442:
.LBB2440:
.LBB2438:
	.loc 13 71 0
	mullw 11,11,0
.LBE2438:
.LBE2440:
	.loc 13 79 0
	ori 10,10,24759
.LBE2442:
.LBE2444:
.LBE2446:
.LBE2448:
	.loc 5 445 0
	stw 8,8(1)
.LBB2449:
.LBB2447:
.LBB2445:
.LBB2443:
.LBB2441:
.LBB2439:
	.loc 13 71 0
	addi 11,11,1
	.loc 13 72 0
	rlwinm 0,11,0,17,31
	.loc 13 71 0
	stw 11,_ZN15idGameSSDWindow6randomE@l(9)
.LBE2439:
.LBE2441:
	.loc 13 79 0
	mulhw 10,0,10
	add 10,10,0
	srawi 10,10,8
	mulli 10,10,360
	subf 0,10,0
.LBE2443:
.LBE2445:
.LBE2447:
.LBE2449:
.LBB2450:
.LBB2451:
	.loc 5 228 0
	lis 10,.LC33@ha
.LBE2451:
.LBE2450:
	.loc 5 445 0
	xoris 0,0,0x8000
.LBB2456:
.LBB2452:
	.loc 5 228 0
	lfs 13,.LC33@l(10)
.LBE2452:
.LBE2456:
	.loc 5 445 0
	stw 0,12(1)
	lis 10,.LC3@ha
.LBB2457:
.LBB2453:
	.loc 5 228 0
	fmuls 13,0,13
.LBE2453:
.LBE2457:
	.loc 5 445 0
	lfd 12,8(1)
.LBB2458:
.LBB2454:
	.loc 5 227 0
	stfs 0,68(31)
.LBE2454:
.LBE2458:
	.loc 5 445 0
	lfs 0,.LC3@l(10)
.LVL388:
.LBB2459:
.LBB2455:
	.loc 5 228 0
	stfs 13,72(31)
.LVL389:
.LBE2455:
.LBE2459:
	.loc 5 445 0
	fsub 0,12,0
	frsp 0,0
	stfs 0,76(31)
.LVL390:
.LBB2460:
.LBB2461:
	.loc 6 424 0
	lwz 0,0(28)
	stw 0,48(31)
	.loc 6 425 0
	lwz 0,4(28)
	stw 0,52(31)
	.loc 6 426 0
	lwz 0,8(28)
.LBE2461:
.LBE2460:
	.loc 5 450 0
	stw 27,184(31)
.LBB2463:
.LBB2462:
	.loc 6 426 0
	stw 0,56(31)
.LBE2462:
.LBE2463:
	.loc 5 451 0
	lwz 0,60(1)
	lwz 27,20(1)
.LVL391:
	mtlr 0
	lwz 28,24(1)
.LVL392:
	lwz 29,28(1)
.LVL393:
	lwz 30,32(1)
.LVL394:
	lwz 31,36(1)
.LVL395:
	lfd 30,40(1)
.LVL396:
	lfd 31,48(1)
	addi 1,1,56
.LCFI133:
	.cfi_def_cfa_offset 0
	.cfi_restore 63
	.cfi_restore 62
	.cfi_restore 31
	.cfi_restore 30
	.cfi_restore 29
	.cfi_restore 28
	.cfi_restore 27
	blr
	.cfi_endproc
.LFE2902:
	.size	_ZN11SSDAsteroid4InitEP15idGameSSDWindowRK6idVec3RK6idVec2ffi, .-_ZN11SSDAsteroid4InitEP15idGameSSDWindowRK6idVec3RK6idVec2ffi
	.align 2
	.globl _ZN11SSDAsteroid14GetNewAsteroidEP15idGameSSDWindowRK6idVec3RK6idVec2ffi
	.type	_ZN11SSDAsteroid14GetNewAsteroidEP15idGameSSDWindowRK6idVec3RK6idVec2ffi, @function
_ZN11SSDAsteroid14GetNewAsteroidEP15idGameSSDWindowRK6idVec3RK6idVec2ffi:
.LFB2904:
	.loc 5 458 0
	.cfi_startproc
.LVL397:
	mflr 0
	stwu 1,-16(1)
.LCFI134:
	.cfi_def_cfa_offset 16
	.cfi_register 65, 0
.LBB2464:
	.loc 5 468 0
	lis 9,.LANCHOR0@ha
.LBE2464:
	.loc 5 458 0
	mr 7,6
.LBB2465:
	.loc 5 468 0
	la 9,.LANCHOR0@l(9)
.LBE2465:
	.loc 5 459 0
	li 6,64
.LVL398:
	.loc 5 458 0
	stw 0,20(1)
	mr 10,3
	stw 31,12(1)
	mr 11,4
	stw 30,8(1)
	.loc 5 458 0
	mr 0,5
	.cfi_offset 30, -8
	.cfi_offset 31, -4
	.cfi_offset 65, 4
.LBB2466:
	.loc 5 468 0
	addi 8,9,167
.LBE2466:
	.loc 5 459 0
	li 31,0
	mtctr 6
	b .L204
.LVL399:
.L202:
.LBB2467:
	addi 31,31,1
.LVL400:
	bdz .L206
.LVL401:
.L204:
	.loc 5 460 0
	lbz 6,0(8)
	.loc 5 459 0
	addi 8,8,188
	.loc 5 460 0
	cmpwi 7,6,0
	bne+ 7,.L202
	.loc 5 461 0
	mulli 30,31,188
	mr 6,0
	mr 4,10
.LVL402:
	mr 5,11
	add 30,9,30
	mr 3,30
.LVL403:
	bl _ZN11SSDAsteroid4InitEP15idGameSSDWindowRK6idVec3RK6idVec2ffi
.LVL404:
	.loc 5 462 0
	li 0,1
	stb 0,167(30)
.LBE2467:
	.loc 5 469 0
	mr 3,30
.LBB2468:
	.loc 5 463 0
	stw 31,8(30)
.LBE2468:
	.loc 5 469 0
	lwz 0,20(1)
	lwz 30,8(1)
	mtlr 0
	lwz 31,12(1)
	addi 1,1,16
	.cfi_remember_state
.LCFI135:
	.cfi_def_cfa_offset 0
	.cfi_restore 31
	.cfi_restore 30
	blr
.LVL405:
.L206:
.LCFI136:
	.cfi_restore_state
	lwz 0,20(1)
.LVL406:
.LBB2469:
	.loc 5 468 0
	li 30,0
.LBE2469:
	.loc 5 469 0
	mr 3,30
.LVL407:
	lwz 31,12(1)
.LVL408:
	mtlr 0
	lwz 30,8(1)
	addi 1,1,16
	.cfi_restore 30
	.cfi_restore 31
.LCFI137:
	.cfi_def_cfa_offset 0
	blr
	.cfi_endproc
.LFE2904:
	.size	_ZN11SSDAsteroid14GetNewAsteroidEP15idGameSSDWindowRK6idVec3RK6idVec2ffi, .-_ZN11SSDAsteroid14GetNewAsteroidEP15idGameSSDWindowRK6idVec3RK6idVec2ffi
	.align 2
	.globl _ZN11SSDAsteroid19GetSpecificAsteroidEi
	.type	_ZN11SSDAsteroid19GetSpecificAsteroidEi, @function
_ZN11SSDAsteroid19GetSpecificAsteroidEi:
.LFB2905:
	.loc 5 471 0
	.cfi_startproc
.LVL409:
	.loc 5 472 0
	mulli 3,3,188
.LVL410:
	lis 9,.LANCHOR0@ha
	la 0,.LANCHOR0@l(9)
	.loc 5 473 0
	add 3,0,3
	blr
	.cfi_endproc
.LFE2905:
	.size	_ZN11SSDAsteroid19GetSpecificAsteroidEi, .-_ZN11SSDAsteroid19GetSpecificAsteroidEi
	.align 2
	.globl _ZN11SSDAsteroid14WriteAsteroidsEP6idFile
	.type	_ZN11SSDAsteroid14WriteAsteroidsEP6idFile, @function
_ZN11SSDAsteroid14WriteAsteroidsEP6idFile:
.LFB2906:
	.loc 5 475 0
	.cfi_startproc
.LVL411:
	stwu 1,-48(1)
.LCFI138:
	.cfi_def_cfa_offset 48
	mflr 0
	li 11,0
	stw 27,28(1)
.LBB2470:
	.loc 5 483 0
	lis 27,.LANCHOR0@ha
	.cfi_offset 27, -20
	.cfi_register 65, 0
.LBE2470:
	.loc 5 475 0
	stw 0,52(1)
.LBB2474:
	.loc 5 483 0
	la 27,.LANCHOR0@l(27)
.LBE2474:
	.loc 5 475 0
	li 0,64
	.cfi_offset 65, 4
	stw 31,44(1)
	stw 28,32(1)
.LBB2475:
	.loc 5 483 0
	addi 31,27,167
	.cfi_offset 28, -16
	.cfi_offset 31, -4
.LBE2475:
	.loc 5 475 0
	stw 30,40(1)
	mtctr 0
	stw 29,36(1)
	.loc 5 475 0
	mr 9,31
	mr 29,3
	.cfi_offset 29, -12
	.cfi_offset 30, -8
.LVL412:
.L210:
.LBB2476:
.LBB2471:
	.loc 5 478 0
	lbz 0,0(9)
	.loc 5 479 0
	addi 9,9,188
	.loc 5 478 0
	cmpwi 7,0,0
	beq- 7,.L209
	.loc 5 479 0
	addi 11,11,1
.L209:
	.loc 5 477 0
	bdnz .L210
.LBE2471:
	.loc 5 482 0
	lwz 9,0(29)
.LBB2472:
	.loc 5 477 0
	mr 4,1
	stwu 11,8(4)
.LVL413:
.LBE2472:
	.loc 5 482 0
	mr 3,29
.LVL414:
	lwz 0,24(9)
	li 5,4
	.loc 5 483 0
	li 30,0
	.loc 5 482 0
	mtctr 0
	bctrl
.LVL415:
	b .L212
.LVL416:
.L211:
.LBB2473:
	.loc 5 483 0
	cmpwi 7,30,63
	addi 31,31,188
	addi 30,30,1
.LVL417:
	beq- 7,.L215
.LVL418:
.L212:
	.loc 5 484 0
	lbz 0,0(31)
	cmpwi 7,0,0
	beq+ 7,.L211
	.loc 5 485 0
	lwz 9,0(29)
	mulli 28,30,188
	li 5,4
	lwz 0,24(9)
	mr 3,29
	add 28,27,28
	mtctr 0
	addi 4,28,8
	bctrl
	.loc 5 486 0
	lwz 9,-167(31)
	mr 3,28
	mr 4,29
	lwz 0,8(9)
	.loc 5 483 0
	addi 31,31,188
	.loc 5 486 0
	mtctr 0
	bctrl
.LVL419:
	.loc 5 483 0
	cmpwi 7,30,63
	addi 30,30,1
.LVL420:
	bne+ 7,.L212
.L215:
.LBE2473:
.LBE2476:
	.loc 5 489 0
	lwz 0,52(1)
	lwz 27,28(1)
	mtlr 0
	lwz 28,32(1)
	lwz 29,36(1)
.LVL421:
	lwz 30,40(1)
.LVL422:
	lwz 31,44(1)
	addi 1,1,48
.LCFI139:
	.cfi_def_cfa_offset 0
	.cfi_restore 31
	.cfi_restore 30
	.cfi_restore 29
	.cfi_restore 28
	.cfi_restore 27
	blr
	.cfi_endproc
.LFE2906:
	.size	_ZN11SSDAsteroid14WriteAsteroidsEP6idFile, .-_ZN11SSDAsteroid14WriteAsteroidsEP6idFile
	.align 2
	.globl _ZN11SSDAsteroid13ReadAsteroidsEP6idFileP15idGameSSDWindow
	.type	_ZN11SSDAsteroid13ReadAsteroidsEP6idFileP15idGameSSDWindow, @function
_ZN11SSDAsteroid13ReadAsteroidsEP6idFileP15idGameSSDWindow:
.LFB2907:
	.loc 5 491 0
	.cfi_startproc
.LVL423:
	mflr 0
	stwu 1,-40(1)
.LCFI140:
	.cfi_def_cfa_offset 40
	.cfi_register 65, 0
.LBB2477:
	.loc 5 494 0
	li 5,4
.LBE2477:
	.loc 5 491 0
	stw 28,24(1)
	mr 28,4
	.cfi_offset 28, -16
	stw 31,36(1)
.LBB2481:
	.loc 5 494 0
	addi 4,1,12
.LVL424:
.LBE2481:
	.loc 5 491 0
	stw 0,44(1)
	mr 31,3
	.cfi_offset 65, 4
	.cfi_offset 31, -4
	stw 29,28(1)
	stw 30,32(1)
.LBB2482:
	.loc 5 494 0
	lwz 9,0(3)
	lwz 0,20(9)
	mtctr 0
	.cfi_offset 30, -8
	.cfi_offset 29, -12
	bctrl
.LVL425:
.LBB2478:
	.loc 5 495 0
	lwz 0,12(1)
	cmpwi 7,0,0
	ble- 7,.L216
	lis 29,.LANCHOR0@ha
	li 30,0
	la 29,.LANCHOR0@l(29)
.LVL426:
.L218:
.LBB2479:
	.loc 5 497 0 discriminator 2
	lwz 9,0(31)
	addi 4,1,8
	li 5,4
	mr 3,31
	lwz 0,20(9)
.LBE2479:
	.loc 5 495 0 discriminator 2
	addi 30,30,1
.LBB2480:
	.loc 5 497 0 discriminator 2
	mtctr 0
	bctrl
.LVL427:
	.loc 5 498 0 discriminator 2
	lwz 3,8(1)
	.loc 5 499 0 discriminator 2
	mr 4,31
	mr 5,28
	.loc 5 498 0 discriminator 2
	mulli 3,3,188
	.loc 5 499 0 discriminator 2
	lwzx 9,29,3
	add 3,29,3
	lwz 0,12(9)
	mtctr 0
	bctrl
.LVL428:
.LBE2480:
	.loc 5 495 0 discriminator 2
	lwz 0,12(1)
	cmpw 7,0,30
	bgt+ 7,.L218
.LVL429:
.L216:
.LBE2478:
.LBE2482:
	.loc 5 501 0
	lwz 0,44(1)
	lwz 28,24(1)
.LVL430:
	mtlr 0
	lwz 29,28(1)
	lwz 30,32(1)
	lwz 31,36(1)
.LVL431:
	addi 1,1,40
.LCFI141:
	.cfi_def_cfa_offset 0
	.cfi_restore 31
	.cfi_restore 30
	.cfi_restore 29
	.cfi_restore 28
	blr
	.cfi_endproc
.LFE2907:
	.size	_ZN11SSDAsteroid13ReadAsteroidsEP6idFileP15idGameSSDWindow, .-_ZN11SSDAsteroid13ReadAsteroidsEP6idFileP15idGameSSDWindow
	.align 2
	.globl _ZN12SSDAstronautC2Ev
	.type	_ZN12SSDAstronautC2Ev, @function
_ZN12SSDAstronautC2Ev:
.LFB2909:
	.loc 5 513 0
	.cfi_startproc
	.cfi_personality 0,__gxx_personality_v0
	.cfi_lsda 0,.LLSDA2909
.LVL432:
	mflr 0
	stwu 1,-16(1)
.LCFI142:
	.cfi_def_cfa_offset 16
	.cfi_register 65, 0
	stw 31,12(1)
	mr 31,3
	.cfi_offset 31, -4
	stw 0,20(1)
	stw 30,8(1)
.LEHB11:
.LBB2483:
	.loc 5 513 0
	.cfi_offset 30, -8
	.cfi_offset 65, 4
	bl _ZN8SSDMoverC2Ev
.LEHE11:
.LVL433:
	lis 9,_ZTV12SSDAstronaut+8@ha
	.loc 5 515 0
	lis 3,.LC34@ha
	.loc 5 513 0
	la 0,_ZTV12SSDAstronaut+8@l(9)
	.loc 5 515 0
	la 3,.LC34@l(3)
	.loc 5 513 0
	stw 0,0(31)
	.loc 5 515 0
	li 4,188
.LEHB12:
	crxor 6,6,6
	bl _Z15Sys_DebugPrintfPKcz
.LEHE12:
.LBE2483:
	.loc 5 518 0
	lwz 0,20(1)
	lwz 30,8(1)
	mtlr 0
	lwz 31,12(1)
.LVL434:
	addi 1,1,16
	.cfi_remember_state
.LCFI143:
	.cfi_def_cfa_offset 0
	.cfi_restore 31
	.cfi_restore 30
	blr
.LVL435:
.L222:
.LCFI144:
	.cfi_restore_state
	mr 30,3
.LBB2484:
	.loc 5 513 0
	mr 3,31
	bl _ZN8SSDMoverD2Ev
	mr 3,30
.LEHB13:
	bl _Unwind_Resume
.LEHE13:
.LBE2484:
	.cfi_endproc
.LFE2909:
	.section	.gcc_except_table
.LLSDA2909:
	.byte	0xff
	.byte	0xff
	.byte	0x1
	.uleb128 .LLSDACSE2909-.LLSDACSB2909
.LLSDACSB2909:
	.uleb128 .LEHB11-.LFB2909
	.uleb128 .LEHE11-.LEHB11
	.uleb128 0
	.uleb128 0
	.uleb128 .LEHB12-.LFB2909
	.uleb128 .LEHE12-.LEHB12
	.uleb128 .L222-.LFB2909
	.uleb128 0
	.uleb128 .LEHB13-.LFB2909
	.uleb128 .LEHE13-.LEHB13
	.uleb128 0
	.uleb128 0
.LLSDACSE2909:
	.section	".text"
	.size	_ZN12SSDAstronautC2Ev, .-_ZN12SSDAstronautC2Ev
	.align 2
	.globl _ZN12SSDAstronaut4InitEP15idGameSSDWindowRK6idVec3ffi
	.type	_ZN12SSDAstronaut4InitEP15idGameSSDWindowRK6idVec3ffi, @function
_ZN12SSDAstronaut4InitEP15idGameSSDWindowRK6idVec3ffi:
.LFB2917:
	.loc 5 535 0
	.cfi_startproc
.LVL436:
	stwu 1,-48(1)
.LCFI145:
	.cfi_def_cfa_offset 48
	mflr 0
	stfd 31,40(1)
	fmr 31,1
	.cfi_offset 63, -8
	.cfi_register 65, 0
	stfd 30,32(1)
	fmr 30,2
	.cfi_offset 62, -16
	stw 0,52(1)
	.loc 5 538 0
	fneg 31,31
	.loc 5 535 0
	stw 28,16(1)
	stw 29,20(1)
	mr 28,4
	.cfi_offset 29, -28
	.cfi_offset 28, -32
	.cfi_offset 65, 4
	mr 29,6
	stw 30,24(1)
	stw 31,28(1)
	.loc 5 535 0
	mr 30,5
	.cfi_offset 31, -20
	.cfi_offset 30, -24
	mr 31,3
	.loc 5 537 0
	bl _ZN9SSDEntity10EntityInitEv
.LVL437:
.LBB2511:
.LBB2512:
.LBB2513:
.LBB2514:
	.loc 6 424 0
	li 0,0
	.loc 6 426 0
	stfs 31,176(31)
	.loc 6 424 0
	stw 0,168(31)
.LBE2514:
.LBE2513:
.LBE2512:
.LBE2511:
	.loc 5 544 0
	lis 4,.LC35@ha
.LBB2519:
.LBB2517:
.LBB2516:
.LBB2515:
	.loc 6 425 0
	stw 0,172(31)
.LBE2515:
.LBE2516:
.LBE2517:
.LBE2519:
	.loc 5 542 0
	li 0,2
.LBB2520:
.LBB2518:
	.loc 5 379 0
	stfs 30,180(31)
.LVL438:
.LBE2518:
.LBE2520:
	.loc 5 544 0
	mr 3,31
.LBB2521:
.LBB2522:
	.loc 5 209 0
	stw 28,148(31)
.LBE2522:
.LBE2521:
	.loc 5 544 0
	la 4,.LC35@l(4)
	.loc 5 542 0
	stw 0,4(31)
	.loc 5 544 0
	bl _ZN9SSDEntity11SetMaterialEPKc
.LVL439:
.LBB2523:
.LBB2524:
.LBB2525:
.LBB2526:
.LBB2527:
.LBB2528:
	.loc 13 71 0
	lis 9,_ZN15idGameSSDWindow6randomE@ha
	lwz 0,_ZN15idGameSSDWindow6randomE@l(9)
	lis 11,0x1
	ori 11,11,3533
.LBE2528:
.LBE2527:
	.loc 13 79 0
	lis 10,0xb60b
.LBB2531:
.LBB2529:
	.loc 13 71 0
	mullw 11,11,0
.LBE2529:
.LBE2531:
	.loc 13 79 0
	ori 10,10,24759
.LBE2526:
.LBE2525:
.LBE2524:
.LBE2523:
	.loc 5 547 0
	lis 8,0x4330
	stw 8,8(1)
.LBB2536:
.LBB2535:
.LBB2534:
.LBB2533:
.LBB2532:
.LBB2530:
	.loc 13 71 0
	addi 11,11,1
	.loc 13 72 0
	rlwinm 0,11,0,17,31
	.loc 13 71 0
	stw 11,_ZN15idGameSSDWindow6randomE@l(9)
.LBE2530:
.LBE2532:
	.loc 13 79 0
	mulhw 10,0,10
	add 10,10,0
	srawi 10,10,8
	mulli 10,10,360
	subf 0,10,0
.LBE2533:
.LBE2534:
.LBE2535:
.LBE2536:
	.loc 5 223 0
	lis 10,.LC36@ha
	.loc 5 547 0
	xoris 0,0,0x8000
	stw 0,12(1)
	.loc 5 223 0
	lwz 0,.LC36@l(10)
	.loc 5 547 0
	lis 10,.LC3@ha
	lfd 13,8(1)
	lfs 0,.LC3@l(10)
.LBB2537:
.LBB2538:
	.loc 5 228 0
	lis 10,.LC37@ha
.LBE2538:
.LBE2537:
	.loc 5 223 0
	stw 0,60(31)
	.loc 5 547 0
	fsub 0,13,0
	.loc 5 223 0
	stw 0,64(31)
.LVL440:
.LBB2541:
.LBB2539:
	.loc 5 227 0
	stw 0,68(31)
	.loc 5 228 0
	lwz 0,.LC37@l(10)
.LBE2539:
.LBE2541:
	.loc 5 547 0
	frsp 0,0
.LBB2542:
.LBB2540:
	.loc 5 228 0
	stw 0,72(31)
.LVL441:
.LBE2540:
.LBE2542:
	.loc 5 547 0
	stfs 0,76(31)
.LVL442:
.LBB2543:
.LBB2544:
	.loc 6 424 0
	lwz 0,0(30)
	stw 0,48(31)
	.loc 6 425 0
	lwz 0,4(30)
	stw 0,52(31)
	.loc 6 426 0
	lwz 0,8(30)
.LBE2544:
.LBE2543:
	.loc 5 550 0
	stw 29,184(31)
.LBB2546:
.LBB2545:
	.loc 6 426 0
	stw 0,56(31)
.LBE2545:
.LBE2546:
	.loc 5 551 0
	lwz 0,52(1)
	lwz 28,16(1)
.LVL443:
	mtlr 0
	lwz 29,20(1)
.LVL444:
	lwz 30,24(1)
.LVL445:
	lwz 31,28(1)
.LVL446:
	lfd 30,32(1)
.LVL447:
	lfd 31,40(1)
	addi 1,1,48
.LCFI146:
	.cfi_def_cfa_offset 0
	.cfi_restore 63
	.cfi_restore 62
	.cfi_restore 31
	.cfi_restore 30
	.cfi_restore 29
	.cfi_restore 28
	blr
	.cfi_endproc
.LFE2917:
	.size	_ZN12SSDAstronaut4InitEP15idGameSSDWindowRK6idVec3ffi, .-_ZN12SSDAstronaut4InitEP15idGameSSDWindowRK6idVec3ffi
	.align 2
	.globl _ZN12SSDAstronaut15GetNewAstronautEP15idGameSSDWindowRK6idVec3ffi
	.type	_ZN12SSDAstronaut15GetNewAstronautEP15idGameSSDWindowRK6idVec3ffi, @function
_ZN12SSDAstronaut15GetNewAstronautEP15idGameSSDWindowRK6idVec3ffi:
.LFB2918:
	.loc 5 553 0
	.cfi_startproc
.LVL448:
	stwu 1,-24(1)
.LCFI147:
	.cfi_def_cfa_offset 24
	mflr 0
	.loc 5 554 0
	li 10,8
	.loc 5 553 0
	mr 9,3
	stw 30,16(1)
.LBB2547:
	.loc 5 562 0
	lis 30,.LANCHOR0@ha
	.cfi_offset 30, -8
	.cfi_register 65, 0
	la 30,.LANCHOR0@l(30)
.LBE2547:
	.loc 5 553 0
	stw 28,8(1)
	stw 29,12(1)
	.loc 5 554 0
	mtctr 10
	.loc 5 553 0
	stw 0,28(1)
	mr 6,5
	stw 31,20(1)
	.loc 5 553 0
	mr 0,4
	.cfi_offset 31, -4
	.cfi_offset 65, 4
	.cfi_offset 29, -12
	.cfi_offset 28, -16
.LBB2548:
	.loc 5 562 0
	addi 11,30,12199
.LBE2548:
	.loc 5 554 0
	li 31,0
.LVL449:
.L228:
.LBB2549:
	.loc 5 555 0
	lbz 10,0(11)
	.loc 5 554 0
	addi 11,11,188
	.loc 5 555 0
	cmpwi 7,10,0
	beq- 7,.L230
	.loc 5 554 0
	addi 31,31,1
.LVL450:
	bdnz .L228
.LBE2549:
	.loc 5 563 0
	lwz 0,28(1)
.LVL451:
.LBB2550:
	.loc 5 562 0
	li 29,0
.LBE2550:
	.loc 5 563 0
	mr 3,29
.LVL452:
	lwz 28,8(1)
	mtlr 0
	lwz 29,12(1)
	lwz 30,16(1)
	lwz 31,20(1)
.LVL453:
	addi 1,1,24
	.cfi_remember_state
.LCFI148:
	.cfi_def_cfa_offset 0
	.cfi_restore 31
	.cfi_restore 30
	.cfi_restore 29
	.cfi_restore 28
	blr
.L230:
.LCFI149:
	.cfi_restore_state
.LBB2551:
	.loc 5 556 0
	mulli 28,31,188
	addi 29,30,12032
	mr 5,0
.LVL454:
	mr 4,9
.LVL455:
	add 29,29,28
	.loc 5 557 0
	add 30,30,28
	.loc 5 556 0
	mr 3,29
	bl _ZN12SSDAstronaut4InitEP15idGameSSDWindowRK6idVec3ffi
.LVL456:
	.loc 5 557 0
	li 0,1
	stb 0,12199(30)
.LBE2551:
	.loc 5 563 0
	mr 3,29
.LBB2552:
	.loc 5 558 0
	stw 31,12040(30)
.LBE2552:
	.loc 5 563 0
	lwz 0,28(1)
	lwz 28,8(1)
	mtlr 0
	lwz 29,12(1)
	lwz 30,16(1)
	lwz 31,20(1)
	addi 1,1,24
	.cfi_restore 28
	.cfi_restore 29
	.cfi_restore 30
	.cfi_restore 31
.LCFI150:
	.cfi_def_cfa_offset 0
	blr
	.cfi_endproc
.LFE2918:
	.size	_ZN12SSDAstronaut15GetNewAstronautEP15idGameSSDWindowRK6idVec3ffi, .-_ZN12SSDAstronaut15GetNewAstronautEP15idGameSSDWindowRK6idVec3ffi
	.align 2
	.globl _ZN12SSDAstronaut20GetSpecificAstronautEi
	.type	_ZN12SSDAstronaut20GetSpecificAstronautEi, @function
_ZN12SSDAstronaut20GetSpecificAstronautEi:
.LFB2919:
	.loc 5 565 0
	.cfi_startproc
.LVL457:
	.loc 5 566 0
	mulli 3,3,188
.LVL458:
	lis 9,.LANCHOR0@ha
	la 9,.LANCHOR0@l(9)
	addi 0,9,12032
	.loc 5 568 0
	add 3,0,3
	blr
	.cfi_endproc
.LFE2919:
	.size	_ZN12SSDAstronaut20GetSpecificAstronautEi, .-_ZN12SSDAstronaut20GetSpecificAstronautEi
	.align 2
	.globl _ZN12SSDAstronaut15WriteAstronautsEP6idFile
	.type	_ZN12SSDAstronaut15WriteAstronautsEP6idFile, @function
_ZN12SSDAstronaut15WriteAstronautsEP6idFile:
.LFB2920:
	.loc 5 570 0
	.cfi_startproc
.LVL459:
	stwu 1,-48(1)
.LCFI151:
	.cfi_def_cfa_offset 48
	mflr 0
	li 11,0
	stw 27,28(1)
.LBB2553:
	.loc 5 578 0
	lis 27,.LANCHOR0@ha
	.cfi_offset 27, -20
	.cfi_register 65, 0
.LBE2553:
	.loc 5 570 0
	stw 0,52(1)
.LBB2558:
	.loc 5 578 0
	la 27,.LANCHOR0@l(27)
.LBE2558:
	.loc 5 570 0
	li 0,8
	.cfi_offset 65, 4
	stw 31,44(1)
	stw 28,32(1)
.LBB2559:
	.loc 5 578 0
	addi 31,27,12199
	.cfi_offset 28, -16
	.cfi_offset 31, -4
.LBE2559:
	.loc 5 570 0
	stw 30,40(1)
	mtctr 0
	stw 29,36(1)
	.loc 5 570 0
	mr 9,31
	mr 29,3
	.cfi_offset 29, -12
	.cfi_offset 30, -8
.LVL460:
.L234:
.LBB2560:
.LBB2554:
	.loc 5 573 0
	lbz 0,0(9)
	.loc 5 574 0
	addi 9,9,188
	.loc 5 573 0
	cmpwi 7,0,0
	beq- 7,.L233
	.loc 5 574 0
	addi 11,11,1
.L233:
	.loc 5 572 0
	bdnz .L234
.LBE2554:
	.loc 5 577 0
	lwz 9,0(29)
.LBB2555:
	.loc 5 572 0
	mr 4,1
	stwu 11,8(4)
.LVL461:
.LBE2555:
	.loc 5 577 0
	mr 3,29
.LVL462:
	lwz 0,24(9)
	li 5,4
.LBB2556:
	.loc 5 580 0
	addi 27,27,12032
.LBE2556:
	.loc 5 578 0
	li 30,0
	.loc 5 577 0
	mtctr 0
	bctrl
.LVL463:
	b .L236
.LVL464:
.L235:
.LBB2557:
	.loc 5 578 0
	cmpwi 7,30,7
	addi 31,31,188
	addi 30,30,1
.LVL465:
	beq- 7,.L239
.LVL466:
.L236:
	.loc 5 579 0
	lbz 0,0(31)
	cmpwi 7,0,0
	beq+ 7,.L235
	.loc 5 580 0
	lwz 9,0(29)
	mulli 28,30,188
	li 5,4
	lwz 0,24(9)
	mr 3,29
	add 28,27,28
	mtctr 0
	addi 4,28,8
	bctrl
	.loc 5 581 0
	lwz 9,-167(31)
	mr 3,28
	mr 4,29
	lwz 0,8(9)
	.loc 5 578 0
	addi 31,31,188
	.loc 5 581 0
	mtctr 0
	bctrl
.LVL467:
	.loc 5 578 0
	cmpwi 7,30,7
	addi 30,30,1
.LVL468:
	bne+ 7,.L236
.L239:
.LBE2557:
.LBE2560:
	.loc 5 584 0
	lwz 0,52(1)
	lwz 27,28(1)
	mtlr 0
	lwz 28,32(1)
	lwz 29,36(1)
.LVL469:
	lwz 30,40(1)
.LVL470:
	lwz 31,44(1)
	addi 1,1,48
.LCFI152:
	.cfi_def_cfa_offset 0
	.cfi_restore 31
	.cfi_restore 30
	.cfi_restore 29
	.cfi_restore 28
	.cfi_restore 27
	blr
	.cfi_endproc
.LFE2920:
	.size	_ZN12SSDAstronaut15WriteAstronautsEP6idFile, .-_ZN12SSDAstronaut15WriteAstronautsEP6idFile
	.align 2
	.globl _ZN12SSDAstronaut14ReadAstronautsEP6idFileP15idGameSSDWindow
	.type	_ZN12SSDAstronaut14ReadAstronautsEP6idFileP15idGameSSDWindow, @function
_ZN12SSDAstronaut14ReadAstronautsEP6idFileP15idGameSSDWindow:
.LFB2921:
	.loc 5 586 0
	.cfi_startproc
.LVL471:
	mflr 0
	stwu 1,-40(1)
.LCFI153:
	.cfi_def_cfa_offset 40
	.cfi_register 65, 0
.LBB2561:
	.loc 5 589 0
	li 5,4
.LBE2561:
	.loc 5 586 0
	stw 28,24(1)
	mr 28,4
	.cfi_offset 28, -16
	stw 31,36(1)
.LBB2565:
	.loc 5 589 0
	addi 4,1,12
.LVL472:
.LBE2565:
	.loc 5 586 0
	stw 0,44(1)
	mr 31,3
	.cfi_offset 65, 4
	.cfi_offset 31, -4
	stw 29,28(1)
	stw 30,32(1)
.LBB2566:
	.loc 5 589 0
	lwz 9,0(3)
	lwz 0,20(9)
	mtctr 0
	.cfi_offset 30, -8
	.cfi_offset 29, -12
	bctrl
.LVL473:
.LBB2562:
	.loc 5 590 0
	lwz 0,12(1)
	cmpwi 7,0,0
	ble- 7,.L240
	lis 29,.LANCHOR0+12032@ha
	li 30,0
	la 29,.LANCHOR0+12032@l(29)
.LVL474:
.L242:
.LBB2563:
	.loc 5 592 0 discriminator 2
	lwz 9,0(31)
	addi 4,1,8
	li 5,4
	mr 3,31
	lwz 0,20(9)
.LBE2563:
	.loc 5 590 0 discriminator 2
	addi 30,30,1
.LBB2564:
	.loc 5 592 0 discriminator 2
	mtctr 0
	bctrl
.LVL475:
	.loc 5 593 0 discriminator 2
	lwz 3,8(1)
	.loc 5 594 0 discriminator 2
	mr 4,31
	mr 5,28
	.loc 5 593 0 discriminator 2
	mulli 3,3,188
	.loc 5 594 0 discriminator 2
	lwzx 9,29,3
	add 3,29,3
	lwz 0,12(9)
	mtctr 0
	bctrl
.LVL476:
.LBE2564:
	.loc 5 590 0 discriminator 2
	lwz 0,12(1)
	cmpw 7,0,30
	bgt+ 7,.L242
.LVL477:
.L240:
.LBE2562:
.LBE2566:
	.loc 5 596 0
	lwz 0,44(1)
	lwz 28,24(1)
.LVL478:
	mtlr 0
	lwz 29,28(1)
	lwz 30,32(1)
	lwz 31,36(1)
.LVL479:
	addi 1,1,40
.LCFI154:
	.cfi_def_cfa_offset 0
	.cfi_restore 31
	.cfi_restore 30
	.cfi_restore 29
	.cfi_restore 28
	blr
	.cfi_endproc
.LFE2921:
	.size	_ZN12SSDAstronaut14ReadAstronautsEP6idFileP15idGameSSDWindow, .-_ZN12SSDAstronaut14ReadAstronautsEP6idFileP15idGameSSDWindow
	.align 2
	.globl _ZN12SSDExplosionC2Ev
	.type	_ZN12SSDExplosionC2Ev, @function
_ZN12SSDExplosionC2Ev:
.LFB2923:
	.loc 5 617 0
	.cfi_startproc
	.cfi_personality 0,__gxx_personality_v0
	.cfi_lsda 0,.LLSDA2923
.LVL480:
	mflr 0
	stwu 1,-16(1)
.LCFI155:
	.cfi_def_cfa_offset 16
	.cfi_register 65, 0
	stw 31,12(1)
	mr 31,3
	.cfi_offset 31, -4
	stw 0,20(1)
	stw 30,8(1)
.LEHB14:
.LBB2567:
	.loc 5 617 0
	.cfi_offset 30, -8
	.cfi_offset 65, 4
	bl _ZN9SSDEntityC2Ev
.LEHE14:
.LVL481:
	lis 9,_ZTV12SSDExplosion+8@ha
	.loc 5 619 0
	lis 3,.LC38@ha
	.loc 5 617 0
	la 0,_ZTV12SSDExplosion+8@l(9)
	.loc 5 619 0
	la 3,.LC38@l(3)
	.loc 5 617 0
	stw 0,0(31)
	.loc 5 619 0
	li 4,200
.LEHB15:
	crxor 6,6,6
	bl _Z15Sys_DebugPrintfPKcz
.LEHE15:
	.loc 5 622 0
	li 0,3
	stw 0,4(31)
.LBE2567:
	.loc 5 623 0
	lwz 0,20(1)
	lwz 30,8(1)
	mtlr 0
	lwz 31,12(1)
.LVL482:
	addi 1,1,16
	.cfi_remember_state
.LCFI156:
	.cfi_def_cfa_offset 0
	.cfi_restore 31
	.cfi_restore 30
	blr
.LVL483:
.L246:
.LCFI157:
	.cfi_restore_state
	mr 30,3
.LBB2568:
	.loc 5 617 0
	mr 3,31
	bl _ZN9SSDEntityD2Ev
	mr 3,30
.LEHB16:
	bl _Unwind_Resume
.LEHE16:
.LBE2568:
	.cfi_endproc
.LFE2923:
	.section	.gcc_except_table
.LLSDA2923:
	.byte	0xff
	.byte	0xff
	.byte	0x1
	.uleb128 .LLSDACSE2923-.LLSDACSB2923
.LLSDACSB2923:
	.uleb128 .LEHB14-.LFB2923
	.uleb128 .LEHE14-.LEHB14
	.uleb128 0
	.uleb128 0
	.uleb128 .LEHB15-.LFB2923
	.uleb128 .LEHE15-.LEHB15
	.uleb128 .L246-.LFB2923
	.uleb128 0
	.uleb128 .LEHB16-.LFB2923
	.uleb128 .LEHE16-.LEHB16
	.uleb128 0
	.uleb128 0
.LLSDACSE2923:
	.section	".text"
	.size	_ZN12SSDExplosionC2Ev, .-_ZN12SSDExplosionC2Ev
	.align 2
	.globl _ZN12SSDExplosion4InitEP15idGameSSDWindowRK6idVec3RK6idVec2iiP9SSDEntitybb
	.type	_ZN12SSDExplosion4InitEP15idGameSSDWindowRK6idVec3RK6idVec2iiP9SSDEntitybb, @function
_ZN12SSDExplosion4InitEP15idGameSSDWindowRK6idVec3RK6idVec2iiP9SSDEntitybb:
.LFB2931:
	.loc 5 665 0
	.cfi_startproc
.LVL484:
	mflr 0
	stwu 1,-48(1)
.LCFI158:
	.cfi_def_cfa_offset 48
	.cfi_register 65, 0
	stw 23,12(1)
	mr 23,10
	.cfi_offset 23, -36
	stw 0,52(1)
	stw 24,16(1)
	stw 25,20(1)
	mr 25,9
	.cfi_offset 25, -28
	.cfi_offset 24, -32
	.cfi_offset 65, 4
	lbz 24,59(1)
	stw 26,24(1)
	mr 26,6
	.cfi_offset 26, -24
	stw 27,28(1)
	mr 27,8
	.cfi_offset 27, -20
	stw 28,32(1)
	mr 28,4
	.cfi_offset 28, -16
	stw 29,36(1)
	mr 29,7
	.cfi_offset 29, -12
	stw 30,40(1)
	mr 30,5
	.cfi_offset 30, -8
	stw 31,44(1)
	.loc 5 665 0
	mr 31,3
	.cfi_offset 31, -4
	.loc 5 667 0
	bl _ZN9SSDEntity10EntityInitEv
.LVL485:
	.loc 5 671 0
	li 0,3
.LBB2569:
.LBB2570:
	.loc 5 209 0
	stw 28,148(31)
.LBE2570:
.LBE2569:
	.loc 5 674 0
	lis 9,explosionMaterials@ha
	.loc 5 671 0
	stw 0,4(31)
	.loc 5 674 0
	la 9,explosionMaterials@l(9)
	.loc 5 672 0
	stw 27,188(31)
	.loc 5 674 0
	slwi 27,27,2
.LVL486:
	mr 3,31
	lwzx 4,9,27
	bl _ZN9SSDEntity11SetMaterialEPKc
.LVL487:
.LBB2571:
.LBB2572:
.LBB2573:
	.loc 6 424 0
	lwz 0,0(30)
.LBE2573:
.LBE2572:
.LBE2571:
	.loc 5 676 0
	lis 11,.LC11@ha
	.loc 5 680 0
	lwz 8,148(31)
.LBB2580:
.LBB2577:
.LBB2574:
	.loc 6 424 0
	stw 0,48(31)
.LBE2574:
.LBE2577:
.LBE2580:
.LBB2581:
.LBB2582:
	.loc 6 120 0
	li 9,0
.LBE2582:
.LBE2581:
	.loc 5 676 0
	lfs 0,.LC11@l(11)
.LBB2584:
.LBB2578:
.LBB2575:
	.loc 6 425 0
	lwz 0,4(30)
	stw 0,52(31)
.LBE2575:
.LBE2578:
.LBE2584:
	.loc 5 690 0
	li 0,1
.LBB2585:
.LBB2579:
.LBB2576:
	.loc 6 426 0
	lfs 13,8(30)
.LBE2576:
.LBE2579:
.LBE2585:
	.loc 5 676 0
	fsubs 0,13,0
	stfs 0,56(31)
	.loc 5 678 0
	lwz 11,4(26)
	lwz 10,0(26)
	.loc 5 679 0
	stw 29,176(31)
	.loc 5 678 0
	stw 10,168(31)
	stw 11,172(31)
	.loc 5 680 0
	lwz 11,932(8)
	.loc 5 683 0
	stw 25,192(31)
	.loc 5 681 0
	add 29,29,11
.LVL488:
	.loc 5 680 0
	stw 11,180(31)
	.loc 5 681 0
	stw 29,184(31)
	.loc 5 684 0
	stb 23,196(31)
	.loc 5 685 0
	stb 24,197(31)
.LVL489:
.LBB2586:
.LBB2583:
	.loc 6 120 0
	stw 9,64(31)
	stw 9,60(31)
.LBE2583:
.LBE2586:
	.loc 5 690 0
	stb 0,166(31)
	.loc 5 691 0
	stb 0,165(31)
	.loc 5 692 0
	lwz 0,52(1)
	lwz 23,12(1)
	mtlr 0
	lwz 24,16(1)
	lwz 25,20(1)
.LVL490:
	lwz 26,24(1)
.LVL491:
	lwz 27,28(1)
	lwz 28,32(1)
.LVL492:
	lwz 29,36(1)
	lwz 30,40(1)
.LVL493:
	lwz 31,44(1)
.LVL494:
	addi 1,1,48
.LCFI159:
	.cfi_def_cfa_offset 0
	.cfi_restore 31
	.cfi_restore 30
	.cfi_restore 29
	.cfi_restore 28
	.cfi_restore 27
	.cfi_restore 26
	.cfi_restore 25
	.cfi_restore 24
	.cfi_restore 23
	blr
	.cfi_endproc
.LFE2931:
	.size	_ZN12SSDExplosion4InitEP15idGameSSDWindowRK6idVec3RK6idVec2iiP9SSDEntitybb, .-_ZN12SSDExplosion4InitEP15idGameSSDWindowRK6idVec3RK6idVec2iiP9SSDEntitybb
	.align 2
	.globl _ZN12SSDExplosion15GetNewExplosionEP15idGameSSDWindowRK6idVec3RK6idVec2iiP9SSDEntitybb
	.type	_ZN12SSDExplosion15GetNewExplosionEP15idGameSSDWindowRK6idVec3RK6idVec2iiP9SSDEntitybb, @function
_ZN12SSDExplosion15GetNewExplosionEP15idGameSSDWindowRK6idVec3RK6idVec2iiP9SSDEntitybb:
.LFB2933:
	.loc 5 721 0
	.cfi_startproc
.LVL495:
	stwu 1,-48(1)
.LCFI160:
	.cfi_def_cfa_offset 48
	mflr 0
	mr 11,9
	mr 12,8
	stw 31,44(1)
.LBB2587:
	.loc 5 729 0
	lis 31,.LANCHOR0@ha
	.cfi_offset 31, -4
	.cfi_register 65, 0
.LBE2587:
	.loc 5 721 0
	stw 0,52(1)
.LBB2588:
	.loc 5 729 0
	la 31,.LANCHOR0@l(31)
.LBE2588:
	.loc 5 721 0
	mr 0,10
	.cfi_offset 65, 4
	.loc 5 722 0
	li 10,64
.LVL496:
	.loc 5 721 0
	stw 25,20(1)
.LBB2589:
	.loc 5 729 0
	addi 9,31,13703
.LVL497:
.LBE2589:
	.loc 5 721 0
	stw 26,24(1)
	mr 25,4
	.cfi_offset 26, -24
	.cfi_offset 25, -28
	stw 27,28(1)
	mr 26,5
	stw 28,32(1)
	mr 27,6
	.cfi_offset 28, -16
	.cfi_offset 27, -20
	stw 29,36(1)
	mr 28,7
	stw 30,40(1)
	.loc 5 722 0
	li 29,0
	.cfi_offset 30, -8
	.cfi_offset 29, -12
	mtctr 10
	b .L251
.LVL498:
.L249:
.LBB2590:
	addi 29,29,1
.LVL499:
	bdz .L253
.LVL500:
.L251:
	.loc 5 723 0
	lbz 10,0(9)
	.loc 5 722 0
	addi 9,9,200
	.loc 5 723 0
	cmpwi 7,10,0
	bne+ 7,.L249
	.loc 5 724 0
	mulli 29,29,200
	addi 30,31,13536
	mr 4,3
.LVL501:
	stw 0,8(1)
	mr 5,25
.LVL502:
	mr 6,26
.LVL503:
	add 30,30,29
	mr 7,27
.LVL504:
	mr 3,30
.LVL505:
	mr 8,28
.LVL506:
	mr 9,12
	mr 10,11
	bl _ZN12SSDExplosion4InitEP15idGameSSDWindowRK6idVec3RK6idVec2iiP9SSDEntitybb
.LVL507:
	.loc 5 725 0
	add 31,31,29
	li 0,1
.LBE2590:
	.loc 5 730 0
	mr 3,30
.LBB2591:
	.loc 5 725 0
	stb 0,13703(31)
.LBE2591:
	.loc 5 730 0
	lwz 0,52(1)
	lwz 25,20(1)
.LVL508:
	mtlr 0
	lwz 26,24(1)
.LVL509:
	lwz 27,28(1)
.LVL510:
	lwz 28,32(1)
.LVL511:
	lwz 29,36(1)
	lwz 30,40(1)
	lwz 31,44(1)
	addi 1,1,48
	.cfi_remember_state
.LCFI161:
	.cfi_def_cfa_offset 0
	.cfi_restore 31
	.cfi_restore 30
	.cfi_restore 29
	.cfi_restore 28
	.cfi_restore 27
	.cfi_restore 26
	.cfi_restore 25
	blr
.LVL512:
.L253:
.LCFI162:
	.cfi_restore_state
	lwz 0,52(1)
.LBB2592:
	.loc 5 729 0
	li 30,0
.LBE2592:
	.loc 5 730 0
	mr 3,30
.LVL513:
	lwz 25,20(1)
	mtlr 0
	lwz 26,24(1)
	lwz 27,28(1)
	lwz 28,32(1)
	lwz 29,36(1)
.LVL514:
	lwz 30,40(1)
	lwz 31,44(1)
	addi 1,1,48
	.cfi_restore 25
	.cfi_restore 26
	.cfi_restore 27
	.cfi_restore 28
	.cfi_restore 29
	.cfi_restore 30
	.cfi_restore 31
.LCFI163:
	.cfi_def_cfa_offset 0
	blr
	.cfi_endproc
.LFE2933:
	.size	_ZN12SSDExplosion15GetNewExplosionEP15idGameSSDWindowRK6idVec3RK6idVec2iiP9SSDEntitybb, .-_ZN12SSDExplosion15GetNewExplosionEP15idGameSSDWindowRK6idVec3RK6idVec2iiP9SSDEntitybb
	.align 2
	.globl _ZN12SSDExplosion20GetSpecificExplosionEi
	.type	_ZN12SSDExplosion20GetSpecificExplosionEi, @function
_ZN12SSDExplosion20GetSpecificExplosionEi:
.LFB2934:
	.loc 5 732 0
	.cfi_startproc
.LVL515:
	.loc 5 733 0
	mulli 3,3,200
.LVL516:
	lis 9,.LANCHOR0@ha
	la 9,.LANCHOR0@l(9)
	addi 0,9,13536
	.loc 5 734 0
	add 3,0,3
	blr
	.cfi_endproc
.LFE2934:
	.size	_ZN12SSDExplosion20GetSpecificExplosionEi, .-_ZN12SSDExplosion20GetSpecificExplosionEi
	.align 2
	.globl _ZN12SSDExplosion15WriteExplosionsEP6idFile
	.type	_ZN12SSDExplosion15WriteExplosionsEP6idFile, @function
_ZN12SSDExplosion15WriteExplosionsEP6idFile:
.LFB2935:
	.loc 5 736 0
	.cfi_startproc
.LVL517:
	stwu 1,-48(1)
.LCFI164:
	.cfi_def_cfa_offset 48
	mflr 0
	li 11,0
	stw 27,28(1)
.LBB2593:
	.loc 5 744 0
	lis 27,.LANCHOR0@ha
	.cfi_offset 27, -20
	.cfi_register 65, 0
.LBE2593:
	.loc 5 736 0
	stw 0,52(1)
.LBB2598:
	.loc 5 744 0
	la 27,.LANCHOR0@l(27)
.LBE2598:
	.loc 5 736 0
	li 0,64
	.cfi_offset 65, 4
	stw 31,44(1)
	stw 28,32(1)
.LBB2599:
	.loc 5 744 0
	addi 31,27,13703
	.cfi_offset 28, -16
	.cfi_offset 31, -4
.LBE2599:
	.loc 5 736 0
	stw 30,40(1)
	mtctr 0
	stw 29,36(1)
	.loc 5 736 0
	mr 9,31
	mr 29,3
	.cfi_offset 29, -12
	.cfi_offset 30, -8
.LVL518:
.L257:
.LBB2600:
.LBB2594:
	.loc 5 739 0
	lbz 0,0(9)
	.loc 5 740 0
	addi 9,9,200
	.loc 5 739 0
	cmpwi 7,0,0
	beq- 7,.L256
	.loc 5 740 0
	addi 11,11,1
.L256:
	.loc 5 738 0
	bdnz .L257
.LBE2594:
	.loc 5 743 0
	lwz 9,0(29)
.LBB2595:
	.loc 5 738 0
	mr 4,1
	stwu 11,8(4)
.LVL519:
.LBE2595:
	.loc 5 743 0
	mr 3,29
.LVL520:
	lwz 0,24(9)
	li 5,4
.LBB2596:
	.loc 5 746 0
	addi 27,27,13536
.LBE2596:
	.loc 5 744 0
	li 30,0
	.loc 5 743 0
	mtctr 0
	bctrl
.LVL521:
	b .L259
.LVL522:
.L258:
.LBB2597:
	.loc 5 744 0
	cmpwi 7,30,63
	addi 31,31,200
	addi 30,30,1
.LVL523:
	beq- 7,.L262
.LVL524:
.L259:
	.loc 5 745 0
	lbz 0,0(31)
	cmpwi 7,0,0
	beq+ 7,.L258
	.loc 5 746 0
	lwz 9,0(29)
	mulli 28,30,200
	li 5,4
	lwz 0,24(9)
	mr 3,29
	add 28,27,28
	mtctr 0
	addi 4,28,8
	bctrl
	.loc 5 747 0
	lwz 9,-167(31)
	mr 3,28
	mr 4,29
	lwz 0,8(9)
	.loc 5 744 0
	addi 31,31,200
	.loc 5 747 0
	mtctr 0
	bctrl
.LVL525:
	.loc 5 744 0
	cmpwi 7,30,63
	addi 30,30,1
.LVL526:
	bne+ 7,.L259
.L262:
.LBE2597:
.LBE2600:
	.loc 5 750 0
	lwz 0,52(1)
	lwz 27,28(1)
	mtlr 0
	lwz 28,32(1)
	lwz 29,36(1)
.LVL527:
	lwz 30,40(1)
.LVL528:
	lwz 31,44(1)
	addi 1,1,48
.LCFI165:
	.cfi_def_cfa_offset 0
	.cfi_restore 31
	.cfi_restore 30
	.cfi_restore 29
	.cfi_restore 28
	.cfi_restore 27
	blr
	.cfi_endproc
.LFE2935:
	.size	_ZN12SSDExplosion15WriteExplosionsEP6idFile, .-_ZN12SSDExplosion15WriteExplosionsEP6idFile
	.align 2
	.globl _ZN12SSDExplosion14ReadExplosionsEP6idFileP15idGameSSDWindow
	.type	_ZN12SSDExplosion14ReadExplosionsEP6idFileP15idGameSSDWindow, @function
_ZN12SSDExplosion14ReadExplosionsEP6idFileP15idGameSSDWindow:
.LFB2936:
	.loc 5 752 0
	.cfi_startproc
.LVL529:
	mflr 0
	stwu 1,-40(1)
.LCFI166:
	.cfi_def_cfa_offset 40
	.cfi_register 65, 0
.LBB2601:
	.loc 5 755 0
	li 5,4
.LBE2601:
	.loc 5 752 0
	stw 28,24(1)
	mr 28,4
	.cfi_offset 28, -16
	stw 31,36(1)
.LBB2605:
	.loc 5 755 0
	addi 4,1,12
.LVL530:
.LBE2605:
	.loc 5 752 0
	stw 0,44(1)
	mr 31,3
	.cfi_offset 65, 4
	.cfi_offset 31, -4
	stw 29,28(1)
	stw 30,32(1)
.LBB2606:
	.loc 5 755 0
	lwz 9,0(3)
	lwz 0,20(9)
	mtctr 0
	.cfi_offset 30, -8
	.cfi_offset 29, -12
	bctrl
.LVL531:
.LBB2602:
	.loc 5 756 0
	lwz 0,12(1)
	cmpwi 7,0,0
	ble- 7,.L263
	lis 29,.LANCHOR0+13536@ha
	li 30,0
	la 29,.LANCHOR0+13536@l(29)
.LVL532:
.L265:
.LBB2603:
	.loc 5 758 0 discriminator 2
	lwz 9,0(31)
	addi 4,1,8
	li 5,4
	mr 3,31
	lwz 0,20(9)
.LBE2603:
	.loc 5 756 0 discriminator 2
	addi 30,30,1
.LBB2604:
	.loc 5 758 0 discriminator 2
	mtctr 0
	bctrl
.LVL533:
	.loc 5 759 0 discriminator 2
	lwz 3,8(1)
	.loc 5 760 0 discriminator 2
	mr 4,31
	mr 5,28
	.loc 5 759 0 discriminator 2
	mulli 3,3,200
	.loc 5 760 0 discriminator 2
	lwzx 9,29,3
	add 3,29,3
	lwz 0,12(9)
	mtctr 0
	bctrl
.LVL534:
.LBE2604:
	.loc 5 756 0 discriminator 2
	lwz 0,12(1)
	cmpw 7,0,30
	bgt+ 7,.L265
.LVL535:
.L263:
.LBE2602:
.LBE2606:
	.loc 5 762 0
	lwz 0,44(1)
	lwz 28,24(1)
.LVL536:
	mtlr 0
	lwz 29,28(1)
	lwz 30,32(1)
	lwz 31,36(1)
.LVL537:
	addi 1,1,40
.LCFI167:
	.cfi_def_cfa_offset 0
	.cfi_restore 31
	.cfi_restore 30
	.cfi_restore 29
	.cfi_restore 28
	blr
	.cfi_endproc
.LFE2936:
	.size	_ZN12SSDExplosion14ReadExplosionsEP6idFileP15idGameSSDWindow, .-_ZN12SSDExplosion14ReadExplosionsEP6idFileP15idGameSSDWindow
	.align 2
	.globl _ZN9SSDPointsC2Ev
	.type	_ZN9SSDPointsC2Ev, @function
_ZN9SSDPointsC2Ev:
.LFB2938:
	.loc 5 772 0
	.cfi_startproc
	.cfi_personality 0,__gxx_personality_v0
	.cfi_lsda 0,.LLSDA2938
.LVL538:
	mflr 0
	stwu 1,-16(1)
.LCFI168:
	.cfi_def_cfa_offset 16
	.cfi_register 65, 0
	stw 31,12(1)
	mr 31,3
	.cfi_offset 31, -4
	stw 0,20(1)
	stw 30,8(1)
.LEHB17:
.LBB2607:
	.loc 5 772 0
	.cfi_offset 30, -8
	.cfi_offset 65, 4
	bl _ZN9SSDEntityC2Ev
.LEHE17:
.LVL539:
	lis 9,_ZTV9SSDPoints+8@ha
	.loc 5 774 0
	lis 3,.LC39@ha
	.loc 5 772 0
	la 0,_ZTV9SSDPoints+8@l(9)
	.loc 5 774 0
	la 3,.LC39@l(3)
	.loc 5 772 0
	stw 0,0(31)
	.loc 5 774 0
	li 4,240
.LEHB18:
	crxor 6,6,6
	bl _Z15Sys_DebugPrintfPKcz
.LEHE18:
	.loc 5 777 0
	li 0,4
	stw 0,4(31)
.LBE2607:
	.loc 5 778 0
	lwz 0,20(1)
	lwz 30,8(1)
	mtlr 0
	lwz 31,12(1)
.LVL540:
	addi 1,1,16
	.cfi_remember_state
.LCFI169:
	.cfi_def_cfa_offset 0
	.cfi_restore 31
	.cfi_restore 30
	blr
.LVL541:
.L269:
.LCFI170:
	.cfi_restore_state
	mr 30,3
.LBB2608:
	.loc 5 772 0
	mr 3,31
	bl _ZN9SSDEntityD2Ev
	mr 3,30
.LEHB19:
	bl _Unwind_Resume
.LEHE19:
.LBE2608:
	.cfi_endproc
.LFE2938:
	.section	.gcc_except_table
.LLSDA2938:
	.byte	0xff
	.byte	0xff
	.byte	0x1
	.uleb128 .LLSDACSE2938-.LLSDACSB2938
.LLSDACSB2938:
	.uleb128 .LEHB17-.LFB2938
	.uleb128 .LEHE17-.LEHB17
	.uleb128 0
	.uleb128 0
	.uleb128 .LEHB18-.LFB2938
	.uleb128 .LEHE18-.LEHB18
	.uleb128 .L269-.LFB2938
	.uleb128 0
	.uleb128 .LEHB19-.LFB2938
	.uleb128 .LEHE19-.LEHB19
	.uleb128 0
	.uleb128 0
.LLSDACSE2938:
	.section	".text"
	.size	_ZN9SSDPointsC2Ev, .-_ZN9SSDPointsC2Ev
	.align 2
	.globl _ZN9SSDPoints4InitEP15idGameSSDWindowP9SSDEntityiiiRK6idVec4
	.type	_ZN9SSDPoints4InitEP15idGameSSDWindowP9SSDEntityiiiRK6idVec4, @function
_ZN9SSDPoints4InitEP15idGameSSDWindowP9SSDEntityiiiRK6idVec4:
.LFB2946:
	.loc 5 814 0
	.cfi_startproc
.LVL542:
	stwu 1,-80(1)
.LCFI171:
	.cfi_def_cfa_offset 80
	mflr 0
	stw 28,56(1)
	mr 28,7
	.cfi_offset 28, -24
	.cfi_register 65, 0
	stw 29,60(1)
	mr 29,8
	.cfi_offset 29, -20
	stw 30,64(1)
	mr 30,4
	.cfi_offset 30, -16
	stw 31,68(1)
	mr 31,3
	.cfi_offset 31, -12
	stw 0,84(1)
	stw 25,44(1)
	mr 25,6
	.cfi_offset 25, -36
	.cfi_offset 65, 4
	stw 26,48(1)
	mr 26,5
	.cfi_offset 26, -32
	stw 27,52(1)
	mr 27,9
	.cfi_offset 27, -28
	stfd 31,72(1)
	stw 24,40(1)
.LBB2609:
	.loc 5 816 0
	.cfi_offset 24, -40
	.cfi_offset 63, -8
	bl _ZN9SSDEntity10EntityInitEv
.LVL543:
	.loc 5 820 0
	stw 28,168(31)
	.loc 5 825 0
	lis 9,.LC40@ha
.LBB2610:
.LBB2611:
	.loc 5 209 0
	stw 30,148(31)
.LBE2611:
.LBE2610:
	.loc 5 826 0
	lis 3,.LC41@ha
	.loc 5 821 0
	stw 29,172(31)
	.loc 5 826 0
	mr 4,25
	la 3,.LC41@l(3)
	.loc 5 822 0
	lwz 0,932(30)
	.loc 5 823 0
	add 28,28,0
.LVL544:
	.loc 5 822 0
	stw 0,176(31)
	.loc 5 825 0
	lwz 0,.LC40@l(9)
	.loc 5 823 0
	stw 28,180(31)
	.loc 5 825 0
	stw 0,128(31)
	.loc 5 826 0
	crxor 6,6,6
	bl _Z2vaPKcz
.LVL545:
	mr 4,3
	addi 3,31,96
	bl _ZN5idStraSEPKc
.LVL546:
.LBB2612:
	.loc 5 829 0
	lwz 0,96(31)
	cmpwi 7,0,0
	ble- 7,.L273
	lis 9,.LC1@ha
	lis 28,.LC3@ha
	lfs 31,.LC1@l(9)
	li 30,0
.LVL547:
	la 24,.LC3@l(28)
	.loc 5 830 0
	lis 25,0x4330
.LVL548:
.L272:
	.loc 5 2339 0 discriminator 2
	lwz 11,148(31)
	.loc 5 830 0 discriminator 2
	lwz 9,100(31)
	lwz 3,728(11)
	lbzx 4,9,30
	.loc 5 829 0 discriminator 2
	addi 30,30,1
.LVL549:
	.loc 5 830 0 discriminator 2
	lfs 1,128(31)
	bl _ZN15idDeviceContext9CharWidthEcf
	stw 25,24(1)
	xoris 3,3,0x8000
	lfs 0,0(24)
	stw 3,28(1)
	lfd 13,24(1)
	.loc 5 829 0 discriminator 2
	lwz 0,96(31)
	.loc 5 830 0 discriminator 2
	fsub 0,13,0
	.loc 5 829 0 discriminator 2
	cmpw 7,0,30
	.loc 5 830 0 discriminator 2
	frsp 0,0
	fadds 31,31,0
.LVL550:
	.loc 5 829 0 discriminator 2
	bgt+ 7,.L272
.LVL551:
.L271:
.LBE2612:
.LBB2613:
.LBB2614:
	.loc 6 115 0
	li 30,0
.LBE2614:
.LBE2613:
	.loc 5 836 0
	addi 3,1,8
.LBB2617:
.LBB2615:
	.loc 6 115 0
	stw 30,60(31)
.LBE2615:
.LBE2617:
	.loc 5 836 0
	mr 4,31
.LBB2618:
.LBB2616:
	.loc 6 116 0
	stw 30,64(31)
.LBE2616:
.LBE2618:
	.loc 5 836 0
	addi 5,26,48
	.loc 5 845 0
	xoris 29,29,0x8000
.LVL552:
	.loc 5 814 0
	fneg 31,31
	.loc 5 836 0
	bl _ZN9SSDEntity13WorldToScreenERK6idVec3
.LVL553:
	.loc 5 845 0
	lis 0,0x4330
	stw 29,36(1)
.LBB2619:
.LBB2620:
	.loc 5 339 0
	lis 9,.LC22@ha
.LBE2620:
.LBE2619:
	.loc 5 845 0
	stw 0,32(1)
	lfs 0,.LC3@l(28)
	lfd 12,32(1)
.LBB2625:
.LBB2621:
	.loc 5 339 0
	lfs 11,8(1)
.LBE2621:
.LBE2625:
	.loc 5 845 0
	fsub 12,12,0
.LVL554:
.LBB2626:
.LBB2622:
	.loc 5 339 0
	lfs 0,.LC22@l(9)
	.loc 5 340 0
	lis 9,.LC29@ha
	lfs 13,12(1)
	.loc 5 339 0
	fsubs 11,11,0
	.loc 5 340 0
	lfs 0,.LC29@l(9)
.LBE2622:
.LBE2626:
	.loc 5 845 0
	frsp 12,12
	.loc 5 840 0
	lis 9,.LC18@ha
.LBB2627:
.LBB2623:
	.loc 5 340 0
	fsubs 13,13,0
.LBE2623:
.LBE2627:
	.loc 5 840 0
	lfs 10,.LC18@l(9)
.LBB2628:
.LBB2629:
	.loc 6 874 0
	lis 9,.LC0@ha
.LBE2629:
.LBE2628:
	.loc 5 839 0
	stw 30,56(31)
	.loc 5 840 0
	fmadds 31,31,10,11
.LBB2632:
.LBB2630:
	.loc 6 874 0
	lwz 0,.LC0@l(9)
.LBE2630:
.LBE2632:
.LBB2633:
.LBB2624:
	.loc 5 340 0
	fneg 0,13
.LVL555:
.LBE2624:
.LBE2633:
.LBB2634:
.LBB2635:
	.loc 6 426 0
	stw 30,192(31)
.LBE2635:
.LBE2634:
	.loc 5 845 0
	fsubs 13,12,13
.LBB2637:
.LBB2638:
	.loc 6 426 0
	stw 30,204(31)
.LBE2638:
.LBE2637:
	.loc 5 840 0
	stfs 31,48(31)
.LVL556:
	.loc 5 853 0
	li 9,1
.LBB2640:
.LBB2641:
	.loc 6 425 0
	stfs 0,52(31)
.LBE2641:
.LBE2640:
.LBB2642:
.LBB2636:
	.loc 6 424 0
	stfs 31,184(31)
	.loc 6 425 0
	stfs 0,188(31)
.LBE2636:
.LBE2642:
.LBB2643:
.LBB2639:
	.loc 6 424 0
	stfs 31,196(31)
.LBE2639:
.LBE2643:
	.loc 5 845 0
	stfs 13,200(31)
.LVL557:
.LBB2644:
.LBB2631:
	.loc 6 874 0
	stw 0,224(31)
	.loc 6 875 0
	stw 0,228(31)
	.loc 6 876 0
	stw 0,232(31)
	.loc 6 877 0
	stw 30,236(31)
.LBE2631:
.LBE2644:
	.loc 5 850 0
	lwz 8,0(27)
	lwz 10,4(27)
	lwz 11,8(27)
	stw 8,208(31)
	stw 10,212(31)
	stw 11,216(31)
	.loc 5 851 0
	stw 0,220(31)
	.loc 5 853 0
	stb 9,166(31)
	.loc 5 854 0
	stb 9,165(31)
.LBE2609:
	.loc 5 855 0
	lwz 0,84(1)
	lwz 24,40(1)
	mtlr 0
	lwz 25,44(1)
	lwz 26,48(1)
.LVL558:
	lwz 27,52(1)
.LVL559:
	lwz 28,56(1)
	lwz 29,60(1)
.LVL560:
	lwz 30,64(1)
	lwz 31,68(1)
.LVL561:
	lfd 31,72(1)
	addi 1,1,80
	.cfi_remember_state
.LCFI172:
	.cfi_def_cfa_offset 0
	.cfi_restore 63
	.cfi_restore 31
	.cfi_restore 30
	.cfi_restore 29
	.cfi_restore 28
	.cfi_restore 27
	.cfi_restore 26
	.cfi_restore 25
	.cfi_restore 24
	blr
.LVL562:
.L273:
.LCFI173:
	.cfi_restore_state
.LBB2646:
.LBB2645:
	.loc 5 828 0
	lis 9,.LC1@ha
	lis 28,.LC3@ha
	lfs 31,.LC1@l(9)
	b .L271
.LBE2645:
.LBE2646:
	.cfi_endproc
.LFE2946:
	.size	_ZN9SSDPoints4InitEP15idGameSSDWindowP9SSDEntityiiiRK6idVec4, .-_ZN9SSDPoints4InitEP15idGameSSDWindowP9SSDEntityiiiRK6idVec4
	.align 2
	.globl _ZN9SSDPoints12GetNewPointsEP15idGameSSDWindowP9SSDEntityiiiRK6idVec4
	.type	_ZN9SSDPoints12GetNewPointsEP15idGameSSDWindowP9SSDEntityiiiRK6idVec4, @function
_ZN9SSDPoints12GetNewPointsEP15idGameSSDWindowP9SSDEntityiiiRK6idVec4:
.LFB2948:
	.loc 5 872 0
	.cfi_startproc
.LVL563:
	mflr 0
	stwu 1,-24(1)
.LCFI174:
	.cfi_def_cfa_offset 24
	.cfi_register 65, 0
	mr 9,8
	mr 12,4
	stw 31,20(1)
.LBB2647:
	.loc 5 880 0
	lis 31,.LANCHOR0@ha
	.cfi_offset 31, -4
.LBE2647:
	.loc 5 872 0
	stw 0,28(1)
	mr 0,7
	.cfi_offset 65, 4
	.loc 5 873 0
	li 7,16
.LVL564:
.LBB2648:
	.loc 5 880 0
	la 31,.LANCHOR0@l(31)
.LBE2648:
	.loc 5 872 0
	stw 30,16(1)
	.loc 5 873 0
	mtctr 7
	.loc 5 872 0
	stw 29,12(1)
	.loc 5 872 0
	mr 10,5
	mr 11,6
.LBB2649:
	.loc 5 880 0
	addi 8,31,26503
.LVL565:
.LBE2649:
	.loc 5 873 0
	li 29,0
	.cfi_offset 29, -12
	.cfi_offset 30, -8
.LVL566:
.L278:
.LBB2650:
	.loc 5 874 0
	lbz 7,0(8)
	.loc 5 873 0
	addi 8,8,240
	.loc 5 874 0
	cmpwi 7,7,0
	beq- 7,.L280
	.loc 5 873 0
	addi 29,29,1
.LVL567:
	bdnz .L278
.LBE2650:
	.loc 5 881 0
	lwz 0,28(1)
.LVL568:
.LBB2651:
	.loc 5 880 0
	li 30,0
.LBE2651:
	.loc 5 881 0
	mr 3,30
.LVL569:
	lwz 29,12(1)
.LVL570:
	mtlr 0
	lwz 30,16(1)
	lwz 31,20(1)
	addi 1,1,24
	.cfi_remember_state
.LCFI175:
	.cfi_def_cfa_offset 0
	.cfi_restore 31
	.cfi_restore 30
	.cfi_restore 29
	blr
.LVL571:
.L280:
.LCFI176:
	.cfi_restore_state
.LBB2652:
	.loc 5 875 0
	mulli 29,29,240
	addi 30,31,26336
	mr 4,3
.LVL572:
	mr 8,0
	mr 5,12
.LVL573:
	add 30,30,29
	mr 6,10
.LVL574:
	mr 3,30
.LVL575:
	mr 7,11
	bl _ZN9SSDPoints4InitEP15idGameSSDWindowP9SSDEntityiiiRK6idVec4
.LVL576:
	.loc 5 876 0
	add 31,31,29
	li 0,1
.LBE2652:
	.loc 5 881 0
	mr 3,30
.LBB2653:
	.loc 5 876 0
	stb 0,26503(31)
.LBE2653:
	.loc 5 881 0
	lwz 0,28(1)
	lwz 29,12(1)
	mtlr 0
	lwz 30,16(1)
	lwz 31,20(1)
	addi 1,1,24
	.cfi_restore 29
	.cfi_restore 30
	.cfi_restore 31
.LCFI177:
	.cfi_def_cfa_offset 0
	blr
	.cfi_endproc
.LFE2948:
	.size	_ZN9SSDPoints12GetNewPointsEP15idGameSSDWindowP9SSDEntityiiiRK6idVec4, .-_ZN9SSDPoints12GetNewPointsEP15idGameSSDWindowP9SSDEntityiiiRK6idVec4
	.align 2
	.globl _ZN9SSDPoints17GetSpecificPointsEi
	.type	_ZN9SSDPoints17GetSpecificPointsEi, @function
_ZN9SSDPoints17GetSpecificPointsEi:
.LFB2949:
	.loc 5 883 0
	.cfi_startproc
.LVL577:
	.loc 5 884 0
	mulli 3,3,240
.LVL578:
	lis 9,.LANCHOR0@ha
	la 9,.LANCHOR0@l(9)
	addi 0,9,26336
	.loc 5 885 0
	add 3,0,3
	blr
	.cfi_endproc
.LFE2949:
	.size	_ZN9SSDPoints17GetSpecificPointsEi, .-_ZN9SSDPoints17GetSpecificPointsEi
	.align 2
	.globl _ZN9SSDPoints11WritePointsEP6idFile
	.type	_ZN9SSDPoints11WritePointsEP6idFile, @function
_ZN9SSDPoints11WritePointsEP6idFile:
.LFB2950:
	.loc 5 887 0
	.cfi_startproc
.LVL579:
	stwu 1,-48(1)
.LCFI178:
	.cfi_def_cfa_offset 48
	mflr 0
	li 11,0
	stw 27,28(1)
.LBB2654:
	.loc 5 895 0
	lis 27,.LANCHOR0@ha
	.cfi_offset 27, -20
	.cfi_register 65, 0
.LBE2654:
	.loc 5 887 0
	stw 0,52(1)
.LBB2659:
	.loc 5 895 0
	la 27,.LANCHOR0@l(27)
.LBE2659:
	.loc 5 887 0
	li 0,16
	.cfi_offset 65, 4
	stw 31,44(1)
	stw 28,32(1)
.LBB2660:
	.loc 5 895 0
	addi 31,27,26503
	.cfi_offset 28, -16
	.cfi_offset 31, -4
.LBE2660:
	.loc 5 887 0
	stw 30,40(1)
	mtctr 0
	stw 29,36(1)
	.loc 5 887 0
	mr 9,31
	mr 29,3
	.cfi_offset 29, -12
	.cfi_offset 30, -8
.LVL580:
.L284:
.LBB2661:
.LBB2655:
	.loc 5 890 0
	lbz 0,0(9)
	.loc 5 891 0
	addi 9,9,240
	.loc 5 890 0
	cmpwi 7,0,0
	beq- 7,.L283
	.loc 5 891 0
	addi 11,11,1
.L283:
	.loc 5 889 0
	bdnz .L284
.LBE2655:
	.loc 5 894 0
	lwz 9,0(29)
.LBB2656:
	.loc 5 889 0
	mr 4,1
	stwu 11,8(4)
.LVL581:
.LBE2656:
	.loc 5 894 0
	mr 3,29
.LVL582:
	lwz 0,24(9)
	li 5,4
.LBB2657:
	.loc 5 897 0
	addi 27,27,26336
.LBE2657:
	.loc 5 895 0
	li 30,0
	.loc 5 894 0
	mtctr 0
	bctrl
.LVL583:
	b .L286
.LVL584:
.L285:
.LBB2658:
	.loc 5 895 0
	cmpwi 7,30,15
	addi 31,31,240
	addi 30,30,1
.LVL585:
	beq- 7,.L289
.LVL586:
.L286:
	.loc 5 896 0
	lbz 0,0(31)
	cmpwi 7,0,0
	beq+ 7,.L285
	.loc 5 897 0
	lwz 9,0(29)
	mulli 28,30,240
	li 5,4
	lwz 0,24(9)
	mr 3,29
	add 28,27,28
	mtctr 0
	addi 4,28,8
	bctrl
	.loc 5 898 0
	lwz 9,-167(31)
	mr 3,28
	mr 4,29
	lwz 0,8(9)
	.loc 5 895 0
	addi 31,31,240
	.loc 5 898 0
	mtctr 0
	bctrl
.LVL587:
	.loc 5 895 0
	cmpwi 7,30,15
	addi 30,30,1
.LVL588:
	bne+ 7,.L286
.L289:
.LBE2658:
.LBE2661:
	.loc 5 901 0
	lwz 0,52(1)
	lwz 27,28(1)
	mtlr 0
	lwz 28,32(1)
	lwz 29,36(1)
.LVL589:
	lwz 30,40(1)
.LVL590:
	lwz 31,44(1)
	addi 1,1,48
.LCFI179:
	.cfi_def_cfa_offset 0
	.cfi_restore 31
	.cfi_restore 30
	.cfi_restore 29
	.cfi_restore 28
	.cfi_restore 27
	blr
	.cfi_endproc
.LFE2950:
	.size	_ZN9SSDPoints11WritePointsEP6idFile, .-_ZN9SSDPoints11WritePointsEP6idFile
	.align 2
	.globl _ZN9SSDPoints10ReadPointsEP6idFileP15idGameSSDWindow
	.type	_ZN9SSDPoints10ReadPointsEP6idFileP15idGameSSDWindow, @function
_ZN9SSDPoints10ReadPointsEP6idFileP15idGameSSDWindow:
.LFB2951:
	.loc 5 903 0
	.cfi_startproc
.LVL591:
	mflr 0
	stwu 1,-40(1)
.LCFI180:
	.cfi_def_cfa_offset 40
	.cfi_register 65, 0
.LBB2662:
	.loc 5 906 0
	li 5,4
.LBE2662:
	.loc 5 903 0
	stw 28,24(1)
	mr 28,4
	.cfi_offset 28, -16
	stw 31,36(1)
.LBB2666:
	.loc 5 906 0
	addi 4,1,12
.LVL592:
.LBE2666:
	.loc 5 903 0
	stw 0,44(1)
	mr 31,3
	.cfi_offset 65, 4
	.cfi_offset 31, -4
	stw 29,28(1)
	stw 30,32(1)
.LBB2667:
	.loc 5 906 0
	lwz 9,0(3)
	lwz 0,20(9)
	mtctr 0
	.cfi_offset 30, -8
	.cfi_offset 29, -12
	bctrl
.LVL593:
.LBB2663:
	.loc 5 907 0
	lwz 0,12(1)
	cmpwi 7,0,0
	ble- 7,.L290
	lis 29,.LANCHOR0+26336@ha
	li 30,0
	la 29,.LANCHOR0+26336@l(29)
.LVL594:
.L292:
.LBB2664:
	.loc 5 909 0 discriminator 2
	lwz 9,0(31)
	addi 4,1,8
	li 5,4
	mr 3,31
	lwz 0,20(9)
.LBE2664:
	.loc 5 907 0 discriminator 2
	addi 30,30,1
.LBB2665:
	.loc 5 909 0 discriminator 2
	mtctr 0
	bctrl
.LVL595:
	.loc 5 910 0 discriminator 2
	lwz 3,8(1)
	.loc 5 911 0 discriminator 2
	mr 4,31
	mr 5,28
	.loc 5 910 0 discriminator 2
	mulli 3,3,240
	.loc 5 911 0 discriminator 2
	lwzx 9,29,3
	add 3,29,3
	lwz 0,12(9)
	mtctr 0
	bctrl
.LVL596:
.LBE2665:
	.loc 5 907 0 discriminator 2
	lwz 0,12(1)
	cmpw 7,0,30
	bgt+ 7,.L292
.LVL597:
.L290:
.LBE2663:
.LBE2667:
	.loc 5 913 0
	lwz 0,44(1)
	lwz 28,24(1)
.LVL598:
	mtlr 0
	lwz 29,28(1)
	lwz 30,32(1)
	lwz 31,36(1)
.LVL599:
	addi 1,1,40
.LCFI181:
	.cfi_def_cfa_offset 0
	.cfi_restore 31
	.cfi_restore 30
	.cfi_restore 29
	.cfi_restore 28
	blr
	.cfi_endproc
.LFE2951:
	.size	_ZN9SSDPoints10ReadPointsEP6idFileP15idGameSSDWindow, .-_ZN9SSDPoints10ReadPointsEP6idFileP15idGameSSDWindow
	.align 2
	.globl _ZN13SSDProjectileC2Ev
	.type	_ZN13SSDProjectileC2Ev, @function
_ZN13SSDProjectileC2Ev:
.LFB2953:
	.loc 5 925 0
	.cfi_startproc
	.cfi_personality 0,__gxx_personality_v0
	.cfi_lsda 0,.LLSDA2953
.LVL600:
	mflr 0
	stwu 1,-16(1)
.LCFI182:
	.cfi_def_cfa_offset 16
	.cfi_register 65, 0
	stw 31,12(1)
	mr 31,3
	.cfi_offset 31, -4
	stw 0,20(1)
	stw 30,8(1)
.LEHB20:
.LBB2668:
	.loc 5 925 0
	.cfi_offset 30, -8
	.cfi_offset 65, 4
	bl _ZN9SSDEntityC2Ev
.LEHE20:
.LVL601:
	lis 9,_ZTV13SSDProjectile+8@ha
	.loc 5 927 0
	lis 3,.LC42@ha
	.loc 5 925 0
	la 0,_ZTV13SSDProjectile+8@l(9)
	.loc 5 927 0
	la 3,.LC42@l(3)
	.loc 5 925 0
	stw 0,0(31)
	.loc 5 927 0
	li 4,212
.LEHB21:
	crxor 6,6,6
	bl _Z15Sys_DebugPrintfPKcz
.LEHE21:
	.loc 5 930 0
	li 0,5
	stw 0,4(31)
.LBE2668:
	.loc 5 931 0
	lwz 0,20(1)
	lwz 30,8(1)
	mtlr 0
	lwz 31,12(1)
.LVL602:
	addi 1,1,16
	.cfi_remember_state
.LCFI183:
	.cfi_def_cfa_offset 0
	.cfi_restore 31
	.cfi_restore 30
	blr
.LVL603:
.L296:
.LCFI184:
	.cfi_restore_state
	mr 30,3
.LBB2669:
	.loc 5 925 0
	mr 3,31
	bl _ZN9SSDEntityD2Ev
	mr 3,30
.LEHB22:
	bl _Unwind_Resume
.LEHE22:
.LBE2669:
	.cfi_endproc
.LFE2953:
	.section	.gcc_except_table
.LLSDA2953:
	.byte	0xff
	.byte	0xff
	.byte	0x1
	.uleb128 .LLSDACSE2953-.LLSDACSB2953
.LLSDACSB2953:
	.uleb128 .LEHB20-.LFB2953
	.uleb128 .LEHE20-.LEHB20
	.uleb128 0
	.uleb128 0
	.uleb128 .LEHB21-.LFB2953
	.uleb128 .LEHE21-.LEHB21
	.uleb128 .L296-.LFB2953
	.uleb128 0
	.uleb128 .LEHB22-.LFB2953
	.uleb128 .LEHE22-.LEHB22
	.uleb128 0
	.uleb128 0
.LLSDACSE2953:
	.section	".text"
	.size	_ZN13SSDProjectileC2Ev, .-_ZN13SSDProjectileC2Ev
	.align 2
	.globl _ZN13SSDProjectile4InitEP15idGameSSDWindowRK6idVec3S4_ff
	.type	_ZN13SSDProjectile4InitEP15idGameSSDWindowRK6idVec3S4_ff, @function
_ZN13SSDProjectile4InitEP15idGameSSDWindowRK6idVec3S4_ff:
.LFB2961:
	.loc 5 958 0
	.cfi_startproc
.LVL604:
	stwu 1,-48(1)
.LCFI185:
	.cfi_def_cfa_offset 48
	mflr 0
	stfd 31,40(1)
	fmr 31,2
	.cfi_offset 63, -8
	.cfi_register 65, 0
	stw 29,20(1)
	mr 29,4
	.cfi_offset 29, -28
	stw 31,28(1)
	mr 31,3
	.cfi_offset 31, -20
	stw 0,52(1)
	stfd 30,32(1)
	fmr 30,1
	.cfi_offset 62, -16
	.cfi_offset 65, 4
	stw 28,16(1)
	mr 28,5
	.cfi_offset 28, -32
	stw 30,24(1)
	.loc 5 958 0
	mr 30,6
	.cfi_offset 30, -24
	.loc 5 960 0
	bl _ZN9SSDEntity10EntityInitEv
.LVL605:
.LBB2670:
.LBB2671:
	.loc 5 209 0
	stw 29,148(31)
.LBE2671:
.LBE2670:
	.loc 5 964 0
	lis 4,.LC43@ha
	mr 3,31
	la 4,.LC43@l(4)
	bl _ZN9SSDEntity11SetMaterialEPKc
.LVL606:
.LBB2672:
.LBB2673:
	.loc 6 115 0
	stfs 31,60(31)
	.loc 6 116 0
	stfs 31,64(31)
.LVL607:
.LBE2673:
.LBE2672:
.LBB2674:
.LBB2675:
.LBB2676:
.LBB2677:
	.loc 10 278 0
	lis 9,.LC45@ha
	lfs 8,.LC45@l(9)
	.loc 10 276 0
	lis 9,_ZN6idMath5iSqrtE@ha
.LBE2677:
.LBE2676:
.LBE2675:
.LBE2674:
.LBB2697:
.LBB2698:
	.loc 6 424 0
	lfs 12,0(28)
.LBE2698:
.LBE2697:
.LBB2700:
.LBB2690:
.LBB2684:
.LBB2678:
	.loc 10 276 0
	la 9,_ZN6idMath5iSqrtE@l(9)
.LBE2678:
.LBE2684:
.LBE2690:
.LBE2700:
.LBB2701:
.LBB2699:
	.loc 6 424 0
	stfs 12,48(31)
	.loc 6 425 0
	lfs 13,4(28)
	stfs 13,52(31)
	.loc 6 426 0
	lfs 0,8(28)
	stfs 0,56(31)
.LVL608:
.LBE2699:
.LBE2701:
.LBB2702:
.LBB2703:
	.loc 6 424 0
	lwz 0,0(30)
	stw 0,200(31)
	.loc 6 425 0
	lwz 0,4(30)
	stw 0,204(31)
	.loc 6 426 0
	lwz 0,8(30)
	stw 0,208(31)
.LVL609:
.LBE2703:
.LBE2702:
.LBB2704:
.LBB2705:
	.loc 6 431 0
	lfs 10,4(30)
	lfs 11,0(30)
	fsubs 13,10,13
	lfs 10,8(30)
	fsubs 12,11,12
	fsubs 0,10,0
.LVL610:
.LBE2705:
.LBE2704:
.LBB2706:
.LBB2691:
	.loc 6 649 0
	fmuls 11,13,13
.LBE2691:
.LBE2706:
.LBB2707:
.LBB2708:
	.loc 6 425 0
	stfs 13,172(31)
	.loc 6 424 0
	stfs 12,168(31)
	.loc 6 426 0
	stfs 0,176(31)
.LVL611:
	.loc 6 649 0
	fmadds 11,12,12,11
	fmadds 11,0,0,11
	stfs 11,8(1)
.LVL612:
.LBE2708:
.LBE2707:
.LBB2709:
.LBB2692:
.LBB2685:
.LBB2679:
	.loc 10 270 0
	lwz 0,8(1)
.LVL613:
	.loc 10 276 0
	rlwinm 11,0,9,24,31
	rlwinm 0,0,19,21,29
	lwzx 9,9,0
	subfic 0,11,380
	rlwinm 0,0,22,0,8
	.loc 10 275 0
	lis 11,.LC18@ha
	.loc 10 276 0
	or 0,0,9
	.loc 10 275 0
	lfs 7,.LC18@l(11)
	.loc 10 277 0
	stw 0,12(1)
.LBE2679:
.LBE2685:
.LBE2692:
.LBE2709:
	.loc 5 976 0
	li 0,1
.LBB2710:
.LBB2693:
.LBB2686:
.LBB2680:
	.loc 10 275 0
	fmuls 7,11,7
.LVL614:
	.loc 10 277 0
	lfs 11,12(1)
.LVL615:
.LBE2680:
.LBE2686:
.LBE2693:
.LBE2710:
	.loc 5 974 0
	stfs 30,188(31)
.LBB2711:
.LBB2694:
.LBB2687:
.LBB2681:
	.loc 10 277 0
	fmr 9,11
.LVL616:
.LBE2681:
.LBE2687:
.LBE2694:
.LBE2711:
	.loc 5 974 0
	stfs 30,184(31)
.LBB2712:
.LBB2695:
.LBB2688:
.LBB2682:
	.loc 5 958 0
	fneg 7,7
.LVL617:
.LBE2682:
.LBE2688:
.LBE2695:
.LBE2712:
	.loc 5 974 0
	stfs 30,180(31)
	.loc 5 976 0
	stb 0,165(31)
.LBB2713:
.LBB2696:
.LBB2689:
.LBB2683:
	.loc 10 278 0
	fmul 10,9,9
	fmadd 10,7,10,8
	fmul 10,9,10
.LVL618:
	.loc 10 279 0
	fmul 11,10,10
	fmadd 11,7,11,8
.LVL619:
	fmul 11,10,11
.LVL620:
	.loc 10 280 0
	frsp 11,11
.LBE2683:
.LBE2689:
	.loc 6 651 0
	fmuls 12,12,11
.LVL621:
	.loc 6 652 0
	fmuls 13,13,11
.LVL622:
	.loc 6 653 0
	fmuls 0,0,11
.LVL623:
	.loc 6 651 0
	stfs 12,168(31)
	.loc 6 652 0
	stfs 13,172(31)
	.loc 6 653 0
	stfs 0,176(31)
.LBE2696:
.LBE2713:
	.loc 5 977 0
	lwz 0,52(1)
	lwz 28,16(1)
.LVL624:
	mtlr 0
	lwz 29,20(1)
.LVL625:
	lwz 30,24(1)
.LVL626:
	lwz 31,28(1)
.LVL627:
	lfd 30,32(1)
.LVL628:
	lfd 31,40(1)
.LVL629:
	addi 1,1,48
.LCFI186:
	.cfi_def_cfa_offset 0
	.cfi_restore 63
	.cfi_restore 62
	.cfi_restore 31
	.cfi_restore 30
	.cfi_restore 29
	.cfi_restore 28
	blr
	.cfi_endproc
.LFE2961:
	.size	_ZN13SSDProjectile4InitEP15idGameSSDWindowRK6idVec3S4_ff, .-_ZN13SSDProjectile4InitEP15idGameSSDWindowRK6idVec3S4_ff
	.align 2
	.globl _ZN13SSDProjectile16GetNewProjectileEP15idGameSSDWindowRK6idVec3S4_ff
	.type	_ZN13SSDProjectile16GetNewProjectileEP15idGameSSDWindowRK6idVec3S4_ff, @function
_ZN13SSDProjectile16GetNewProjectileEP15idGameSSDWindowRK6idVec3S4_ff:
.LFB2963:
	.loc 5 993 0
	.cfi_startproc
.LVL630:
	stwu 1,-24(1)
.LCFI187:
	.cfi_def_cfa_offset 24
	mflr 0
	.loc 5 994 0
	li 10,64
	.loc 5 993 0
	mr 9,3
	stw 31,20(1)
.LBB2714:
	.loc 5 1001 0
	lis 31,.LANCHOR0@ha
	.cfi_offset 31, -4
	.cfi_register 65, 0
	la 31,.LANCHOR0@l(31)
.LBE2714:
	.loc 5 993 0
	stw 0,28(1)
	stw 29,12(1)
	mr 0,4
	.cfi_offset 29, -12
	.cfi_offset 65, 4
	stw 30,16(1)
	.loc 5 993 0
	mr 6,5
.LBB2715:
	.loc 5 1001 0
	addi 11,31,30343
.LBE2715:
	.loc 5 994 0
	li 29,0
	mtctr 10
	b .L301
	.cfi_offset 30, -8
.LVL631:
.L299:
.LBB2716:
	addi 29,29,1
.LVL632:
	bdz .L303
.LVL633:
.L301:
	.loc 5 995 0
	lbz 10,0(11)
	.loc 5 994 0
	addi 11,11,212
	.loc 5 995 0
	cmpwi 7,10,0
	bne+ 7,.L299
	.loc 5 996 0
	mulli 29,29,212
	addi 30,31,30176
	mr 5,0
.LVL634:
	mr 4,9
	add 30,30,29
	.loc 5 997 0
	add 31,31,29
	.loc 5 996 0
	mr 3,30
.LVL635:
	bl _ZN13SSDProjectile4InitEP15idGameSSDWindowRK6idVec3S4_ff
.LVL636:
	.loc 5 997 0
	li 0,1
	stb 0,30343(31)
.LBE2716:
	.loc 5 1002 0
	mr 3,30
	lwz 0,28(1)
	lwz 29,12(1)
	mtlr 0
	lwz 30,16(1)
	lwz 31,20(1)
	addi 1,1,24
	.cfi_remember_state
.LCFI188:
	.cfi_def_cfa_offset 0
	.cfi_restore 31
	.cfi_restore 30
	.cfi_restore 29
	blr
.LVL637:
.L303:
.LCFI189:
	.cfi_restore_state
	lwz 0,28(1)
.LVL638:
.LBB2717:
	.loc 5 1001 0
	li 30,0
.LBE2717:
	.loc 5 1002 0
	mr 3,30
.LVL639:
	lwz 29,12(1)
.LVL640:
	mtlr 0
	lwz 30,16(1)
	lwz 31,20(1)
	addi 1,1,24
	.cfi_restore 29
	.cfi_restore 30
	.cfi_restore 31
.LCFI190:
	.cfi_def_cfa_offset 0
	blr
	.cfi_endproc
.LFE2963:
	.size	_ZN13SSDProjectile16GetNewProjectileEP15idGameSSDWindowRK6idVec3S4_ff, .-_ZN13SSDProjectile16GetNewProjectileEP15idGameSSDWindowRK6idVec3S4_ff
	.align 2
	.globl _ZN13SSDProjectile21GetSpecificProjectileEi
	.type	_ZN13SSDProjectile21GetSpecificProjectileEi, @function
_ZN13SSDProjectile21GetSpecificProjectileEi:
.LFB2964:
	.loc 5 1004 0
	.cfi_startproc
.LVL641:
	.loc 5 1005 0
	mulli 3,3,212
.LVL642:
	lis 9,.LANCHOR0@ha
	la 9,.LANCHOR0@l(9)
	addi 0,9,30176
	.loc 5 1006 0
	add 3,0,3
	blr
	.cfi_endproc
.LFE2964:
	.size	_ZN13SSDProjectile21GetSpecificProjectileEi, .-_ZN13SSDProjectile21GetSpecificProjectileEi
	.align 2
	.globl _ZN13SSDProjectile16WriteProjectilesEP6idFile
	.type	_ZN13SSDProjectile16WriteProjectilesEP6idFile, @function
_ZN13SSDProjectile16WriteProjectilesEP6idFile:
.LFB2965:
	.loc 5 1008 0
	.cfi_startproc
.LVL643:
	stwu 1,-48(1)
.LCFI191:
	.cfi_def_cfa_offset 48
	mflr 0
	li 11,0
	stw 27,28(1)
.LBB2718:
	.loc 5 1016 0
	lis 27,.LANCHOR0@ha
	.cfi_offset 27, -20
	.cfi_register 65, 0
	la 27,.LANCHOR0@l(27)
.LBE2718:
	.loc 5 1008 0
	stw 0,52(1)
	li 0,64
	.cfi_offset 65, 4
	stw 31,44(1)
	stw 28,32(1)
.LBB2722:
	.loc 5 1016 0
	addi 31,27,30343
	.cfi_offset 28, -16
	.cfi_offset 31, -4
.LBE2722:
	.loc 5 1008 0
	stw 30,40(1)
	mtctr 0
	stw 29,36(1)
.LBB2723:
	.loc 5 1016 0
	addi 27,27,30176
.LBE2723:
	.loc 5 1008 0
	mr 29,3
	.cfi_offset 29, -12
	.cfi_offset 30, -8
	mr 9,31
.LVL644:
.L307:
.LBB2724:
.LBB2719:
	.loc 5 1011 0
	lbz 0,0(9)
	.loc 5 1012 0
	addi 9,9,212
	.loc 5 1011 0
	cmpwi 7,0,0
	beq- 7,.L306
	.loc 5 1012 0
	addi 11,11,1
.L306:
	.loc 5 1010 0
	bdnz .L307
.LBE2719:
	.loc 5 1015 0
	lwz 9,0(29)
.LBB2720:
	.loc 5 1010 0
	mr 4,1
	stwu 11,8(4)
.LVL645:
.LBE2720:
	.loc 5 1015 0
	mr 3,29
.LVL646:
	lwz 0,24(9)
	li 5,4
	.loc 5 1016 0
	li 30,0
	.loc 5 1015 0
	mtctr 0
	bctrl
.LVL647:
	b .L309
.LVL648:
.L308:
.LBB2721:
	.loc 5 1016 0
	cmpwi 7,30,63
	addi 31,31,212
	addi 30,30,1
.LVL649:
	beq- 7,.L312
.LVL650:
.L309:
	.loc 5 1017 0
	lbz 0,0(31)
	cmpwi 7,0,0
	beq+ 7,.L308
	.loc 5 1018 0
	lwz 9,0(29)
	mulli 28,30,212
	li 5,4
	lwz 0,24(9)
	mr 3,29
	add 28,27,28
	mtctr 0
	addi 4,28,8
	bctrl
	.loc 5 1019 0
	lwz 9,-167(31)
	mr 3,28
	mr 4,29
	lwz 0,8(9)
	.loc 5 1016 0
	addi 31,31,212
	.loc 5 1019 0
	mtctr 0
	bctrl
.LVL651:
	.loc 5 1016 0
	cmpwi 7,30,63
	addi 30,30,1
.LVL652:
	bne+ 7,.L309
.L312:
.LBE2721:
.LBE2724:
	.loc 5 1022 0
	lwz 0,52(1)
	lwz 27,28(1)
	mtlr 0
	lwz 28,32(1)
	lwz 29,36(1)
.LVL653:
	lwz 30,40(1)
.LVL654:
	lwz 31,44(1)
	addi 1,1,48
.LCFI192:
	.cfi_def_cfa_offset 0
	.cfi_restore 31
	.cfi_restore 30
	.cfi_restore 29
	.cfi_restore 28
	.cfi_restore 27
	blr
	.cfi_endproc
.LFE2965:
	.size	_ZN13SSDProjectile16WriteProjectilesEP6idFile, .-_ZN13SSDProjectile16WriteProjectilesEP6idFile
	.align 2
	.globl _ZN13SSDProjectile15ReadProjectilesEP6idFileP15idGameSSDWindow
	.type	_ZN13SSDProjectile15ReadProjectilesEP6idFileP15idGameSSDWindow, @function
_ZN13SSDProjectile15ReadProjectilesEP6idFileP15idGameSSDWindow:
.LFB2966:
	.loc 5 1024 0
	.cfi_startproc
.LVL655:
	mflr 0
	stwu 1,-40(1)
.LCFI193:
	.cfi_def_cfa_offset 40
	.cfi_register 65, 0
.LBB2725:
	.loc 5 1027 0
	li 5,4
.LBE2725:
	.loc 5 1024 0
	stw 28,24(1)
	mr 28,4
	.cfi_offset 28, -16
	stw 31,36(1)
.LBB2729:
	.loc 5 1027 0
	addi 4,1,12
.LVL656:
.LBE2729:
	.loc 5 1024 0
	stw 0,44(1)
	mr 31,3
	.cfi_offset 65, 4
	.cfi_offset 31, -4
	stw 29,28(1)
	stw 30,32(1)
.LBB2730:
	.loc 5 1027 0
	lwz 9,0(3)
	lwz 0,20(9)
	mtctr 0
	.cfi_offset 30, -8
	.cfi_offset 29, -12
	bctrl
.LVL657:
.LBB2726:
	.loc 5 1028 0
	lwz 0,12(1)
	cmpwi 7,0,0
	ble- 7,.L313
	lis 29,.LANCHOR0+30176@ha
	li 30,0
	la 29,.LANCHOR0+30176@l(29)
.LVL658:
.L315:
.LBB2727:
	.loc 5 1030 0 discriminator 2
	lwz 9,0(31)
	addi 4,1,8
	li 5,4
	mr 3,31
	lwz 0,20(9)
.LBE2727:
	.loc 5 1028 0 discriminator 2
	addi 30,30,1
.LBB2728:
	.loc 5 1030 0 discriminator 2
	mtctr 0
	bctrl
.LVL659:
	.loc 5 1031 0 discriminator 2
	lwz 3,8(1)
	.loc 5 1032 0 discriminator 2
	mr 4,31
	mr 5,28
	.loc 5 1031 0 discriminator 2
	mulli 3,3,212
	.loc 5 1032 0 discriminator 2
	lwzx 9,29,3
	add 3,29,3
	lwz 0,12(9)
	mtctr 0
	bctrl
.LVL660:
.LBE2728:
	.loc 5 1028 0 discriminator 2
	lwz 0,12(1)
	cmpw 7,0,30
	bgt+ 7,.L315
.LVL661:
.L313:
.LBE2726:
.LBE2730:
	.loc 5 1034 0
	lwz 0,44(1)
	lwz 28,24(1)
.LVL662:
	mtlr 0
	lwz 29,28(1)
	lwz 30,32(1)
	lwz 31,36(1)
.LVL663:
	addi 1,1,40
.LCFI194:
	.cfi_def_cfa_offset 0
	.cfi_restore 31
	.cfi_restore 30
	.cfi_restore 29
	.cfi_restore 28
	blr
	.cfi_endproc
.LFE2966:
	.size	_ZN13SSDProjectile15ReadProjectilesEP6idFileP15idGameSSDWindow, .-_ZN13SSDProjectile15ReadProjectilesEP6idFileP15idGameSSDWindow
	.align 2
	.globl _ZN10SSDPowerupC2Ev
	.type	_ZN10SSDPowerupC2Ev, @function
_ZN10SSDPowerupC2Ev:
.LFB2968:
	.loc 5 1055 0
	.cfi_startproc
	.cfi_personality 0,__gxx_personality_v0
	.cfi_lsda 0,.LLSDA2968
.LVL664:
	mflr 0
	stwu 1,-16(1)
.LCFI195:
	.cfi_def_cfa_offset 16
	.cfi_register 65, 0
	stw 31,12(1)
	mr 31,3
	.cfi_offset 31, -4
	stw 0,20(1)
	stw 30,8(1)
.LEHB23:
.LBB2731:
	.loc 5 1055 0
	.cfi_offset 30, -8
	.cfi_offset 65, 4
	bl _ZN8SSDMoverC2Ev
.LEHE23:
.LVL665:
	lis 9,_ZTV10SSDPowerup+8@ha
	.loc 5 1057 0
	lis 3,.LC46@ha
	.loc 5 1055 0
	la 0,_ZTV10SSDPowerup+8@l(9)
	.loc 5 1057 0
	la 3,.LC46@l(3)
	.loc 5 1055 0
	stw 0,0(31)
	.loc 5 1057 0
	li 4,192
.LEHB24:
	crxor 6,6,6
	bl _Z15Sys_DebugPrintfPKcz
.LEHE24:
.LBE2731:
	.loc 5 1061 0
	lwz 0,20(1)
	lwz 30,8(1)
	mtlr 0
	lwz 31,12(1)
.LVL666:
	addi 1,1,16
	.cfi_remember_state
.LCFI196:
	.cfi_def_cfa_offset 0
	.cfi_restore 31
	.cfi_restore 30
	blr
.LVL667:
.L319:
.LCFI197:
	.cfi_restore_state
	mr 30,3
.LBB2732:
	.loc 5 1055 0
	mr 3,31
	bl _ZN8SSDMoverD2Ev
	mr 3,30
.LEHB25:
	bl _Unwind_Resume
.LEHE25:
.LBE2732:
	.cfi_endproc
.LFE2968:
	.section	.gcc_except_table
.LLSDA2968:
	.byte	0xff
	.byte	0xff
	.byte	0x1
	.uleb128 .LLSDACSE2968-.LLSDACSB2968
.LLSDACSB2968:
	.uleb128 .LEHB23-.LFB2968
	.uleb128 .LEHE23-.LEHB23
	.uleb128 0
	.uleb128 0
	.uleb128 .LEHB24-.LFB2968
	.uleb128 .LEHE24-.LEHB24
	.uleb128 .L319-.LFB2968
	.uleb128 0
	.uleb128 .LEHB25-.LFB2968
	.uleb128 .LEHE25-.LEHB25
	.uleb128 0
	.uleb128 0
.LLSDACSE2968:
	.section	".text"
	.size	_ZN10SSDPowerupC2Ev, .-_ZN10SSDPowerupC2Ev
	.align 2
	.type	_Z41__static_initialization_and_destruction_0ii.constprop.42, @function
_Z41__static_initialization_and_destruction_0ii.constprop.42:
.LFB3425:
	.loc 5 2339 0
	.cfi_startproc
	.cfi_personality 0,__gxx_personality_v0
	.cfi_lsda 0,.LLSDA3425
.LVL668:
	cmpwi 7,3,1
	mflr 0
	stwu 1,-32(1)
.LCFI198:
	.cfi_def_cfa_offset 32
	.cfi_register 65, 0
	stw 0,36(1)
	stw 27,12(1)
	stw 28,16(1)
	stw 29,20(1)
	stw 30,24(1)
	stw 31,28(1)
	.loc 5 2339 0
	beq- 7,.L372
	.cfi_offset 31, -4
	.cfi_offset 30, -8
	.cfi_offset 29, -12
	.cfi_offset 28, -16
	.cfi_offset 27, -20
	.cfi_offset 65, 4
	.loc 5 1238 0
	cmpwi 7,3,0
	bne- 7,.L321
	lis 28,.LANCHOR0@ha
	la 28,.LANCHOR0@l(28)
	addis 30,28,0x1
	addi 31,30,-9696
	.loc 5 2339 0
	addi 30,30,-21984
.LVL669:
.L330:
	.loc 5 1053 0
	lwz 9,0(31)
	mr 3,31
	addi 31,31,-192
	lwz 0,0(9)
	mtctr 0
.LEHB26:
	bctrl
	cmpw 7,31,30
	bne+ 7,.L330
	addi 31,28,30176
	.loc 5 2339 0
	addi 30,28,29964
	.loc 5 1053 0
	addi 31,31,13356
.L331:
	.loc 5 921 0
	lwz 9,0(31)
	mr 3,31
	addi 31,31,-212
	lwz 0,0(9)
	mtctr 0
	bctrl
	cmpw 7,31,30
	bne+ 7,.L331
	addi 31,28,29936
	.loc 5 2339 0
	addi 30,28,26096
.L332:
	.loc 5 770 0
	lwz 9,0(31)
	mr 3,31
	addi 31,31,-240
	lwz 0,0(9)
	mtctr 0
	bctrl
	cmpw 7,31,30
	bne+ 7,.L332
	addi 31,28,26136
	.loc 5 2339 0
	addi 30,28,13336
.L333:
	.loc 5 604 0
	lwz 9,0(31)
	mr 3,31
	addi 31,31,-200
	lwz 0,0(9)
	mtctr 0
	bctrl
	cmpw 7,31,30
	bne+ 7,.L333
	.loc 5 509 0
	addi 30,28,13536
	addi 31,28,12032
.L334:
	lwzu 9,-188(30)
	lwz 0,0(9)
	mr 3,30
	mtctr 0
	bctrl
	cmpw 7,30,31
	bne+ 7,.L334
	addi 31,28,11844
	.loc 5 2339 0
	addi 28,28,-188
.L335:
	.loc 5 407 0
	lwz 9,0(31)
	mr 3,31
	addi 31,31,-188
	lwz 0,0(9)
	mtctr 0
	bctrl
.LEHE26:
	cmpw 7,31,28
	bne+ 7,.L335
.L321:
	.loc 5 2339 0
	lwz 0,36(1)
	lwz 27,12(1)
	mtlr 0
	lwz 28,16(1)
	lwz 29,20(1)
	lwz 30,24(1)
	lwz 31,28(1)
	addi 1,1,32
	.cfi_remember_state
.LCFI199:
	.cfi_def_cfa_offset 0
	.cfi_restore 31
	.cfi_restore 30
	.cfi_restore 29
	.cfi_restore 28
	.cfi_restore 27
	blr
.LVL670:
.L372:
.LCFI200:
	.cfi_restore_state
	.loc 2 36 0
	lis 28,.LANCHOR0@ha
	li 0,5
	la 28,.LANCHOR0@l(28)
	li 31,63
	addis 29,28,0x1
	.loc 5 407 0
	mr 30,28
	.loc 2 36 0
	stw 0,-9504(29)
.LVL671:
.L323:
	.loc 5 407 0
	mr 3,30
.LEHB27:
	bl _ZN11SSDAsteroidC1Ev
.LEHE27:
	cmpwi 7,31,0
	addi 30,30,188
	addi 31,31,-1
	bne+ 7,.L323
	addi 31,28,12032
	li 30,7
	mr 27,31
.L324:
	.loc 5 509 0
	mr 3,27
.LEHB28:
	bl _ZN12SSDAstronautC1Ev
.LEHE28:
	cmpwi 7,30,0
	addi 27,27,188
	addi 30,30,-1
	bne+ 7,.L324
	addi 27,28,13536
	li 31,63
	mr 30,27
.L325:
	.loc 5 604 0
	mr 3,30
.LEHB29:
	bl _ZN12SSDExplosionC1Ev
.LEHE29:
	cmpwi 7,31,0
	addi 30,30,200
	addi 31,31,-1
	bne+ 7,.L325
	addi 27,28,26336
	li 31,15
	mr 30,27
.L326:
	.loc 5 770 0
	mr 3,30
.LEHB30:
	bl _ZN9SSDPointsC1Ev
.LEHE30:
	cmpwi 7,31,0
	addi 30,30,240
	addi 31,31,-1
	bne+ 7,.L326
	addi 28,28,30176
	li 31,63
	mr 30,28
.L327:
	.loc 5 921 0
	mr 3,30
.LEHB31:
	bl _ZN13SSDProjectileC1Ev
.LEHE31:
	cmpwi 7,31,0
	addi 30,30,212
	addi 31,31,-1
	bne+ 7,.L327
	li 31,63
	addi 30,29,-21792
.L328:
	.loc 5 1053 0
	mr 3,30
.LEHB32:
	bl _ZN10SSDPowerupC1Ev
.LEHE32:
	cmpwi 7,31,0
	addi 30,30,192
	addi 31,31,-1
	bne+ 7,.L328
.LVL672:
.LBB2733:
.LBB2734:
	.loc 13 59 0
	li 0,0
	lis 9,_ZN15idGameSSDWindow6randomE@ha
	stw 0,_ZN15idGameSSDWindow6randomE@l(9)
	b .L321
.LVL673:
.L359:
.LBE2734:
.LBE2733:
	.loc 5 407 0
	subfic 31,31,63
	mr 29,3
	mulli 30,31,188
	add 30,28,30
	mr 31,30
	.loc 5 2339 0
	addi 27,30,-188
.L338:
	.loc 5 407 0
	cmpw 7,31,28
	beq- 7,.L349
	addi 31,31,-188
	.loc 5 2339 0
	subf 9,30,31
	.loc 5 407 0
	mr 3,31
	.loc 5 2339 0
	add 9,9,27
	.loc 5 407 0
	lwz 9,188(9)
	lwz 0,0(9)
	mtctr 0
	bctrl
	b .L338
.L354:
	.loc 5 1053 0
	subfic 31,31,63
	addi 29,29,-21792
	mulli 30,31,192
	mr 28,3
	add 30,29,30
	mr 31,30
	.loc 5 2339 0
	addi 27,30,-192
.L353:
	.loc 5 1053 0
	cmpw 7,31,29
	beq- 7,.L352
	addi 31,31,-192
	.loc 5 2339 0
	subf 9,30,31
	.loc 5 1053 0
	mr 3,31
	.loc 5 2339 0
	add 9,9,27
	.loc 5 1053 0
	lwz 9,192(9)
	lwz 0,0(9)
	mtctr 0
	bctrl
	b .L353
.L349:
	.loc 5 921 0
	mr 3,29
.LEHB33:
	bl _Unwind_Resume
.L352:
	.loc 5 1053 0
	mr 3,28
	bl _Unwind_Resume
.LEHE33:
.L355:
	.loc 5 921 0
	subfic 31,31,63
	mr 29,3
	mulli 30,31,212
	add 30,28,30
	mr 31,30
	.loc 5 2339 0
	addi 27,30,-212
.L350:
	.loc 5 921 0
	cmpw 7,31,28
	beq- 7,.L349
	addi 31,31,-212
	.loc 5 2339 0
	subf 9,30,31
	.loc 5 921 0
	mr 3,31
	.loc 5 2339 0
	add 9,9,27
	.loc 5 921 0
	lwz 9,212(9)
	lwz 0,0(9)
	mtctr 0
	bctrl
	b .L350
.L356:
	.loc 5 770 0
	subfic 31,31,15
	mr 29,3
	mulli 30,31,240
	add 30,27,30
	mr 31,30
	.loc 5 2339 0
	addi 28,30,-240
.L347:
	.loc 5 770 0
	cmpw 7,31,27
	beq- 7,.L349
	addi 31,31,-240
	.loc 5 2339 0
	subf 9,30,31
	.loc 5 770 0
	mr 3,31
	.loc 5 2339 0
	add 9,9,28
	.loc 5 770 0
	lwz 9,240(9)
	lwz 0,0(9)
	mtctr 0
	bctrl
	b .L347
.L357:
	.loc 5 604 0
	subfic 31,31,63
	mr 29,3
	mulli 30,31,200
	add 30,27,30
	mr 31,30
	.loc 5 2339 0
	addi 28,30,-200
.L344:
	.loc 5 604 0
	cmpw 7,31,27
	beq- 7,.L349
	addi 31,31,-200
	.loc 5 2339 0
	subf 9,30,31
	.loc 5 604 0
	mr 3,31
	.loc 5 2339 0
	add 9,9,28
	.loc 5 604 0
	lwz 9,200(9)
	lwz 0,0(9)
	mtctr 0
	bctrl
	b .L344
.L358:
	.loc 5 509 0
	subfic 30,30,7
	mr 28,3
	mulli 29,30,188
	add 29,31,29
	mr 30,29
	.loc 5 2339 0
	addi 27,29,-188
.L341:
	.loc 5 509 0
	cmpw 7,30,31
	beq- 7,.L352
	addi 30,30,-188
	.loc 5 2339 0
	subf 9,29,30
	.loc 5 509 0
	mr 3,30
	.loc 5 2339 0
	add 9,9,27
	.loc 5 509 0
	lwz 9,188(9)
	lwz 0,0(9)
	mtctr 0
	bctrl
	b .L341
	.cfi_endproc
.LFE3425:
	.section	.gcc_except_table
.LLSDA3425:
	.byte	0xff
	.byte	0xff
	.byte	0x1
	.uleb128 .LLSDACSE3425-.LLSDACSB3425
.LLSDACSB3425:
	.uleb128 .LEHB26-.LFB3425
	.uleb128 .LEHE26-.LEHB26
	.uleb128 0
	.uleb128 0
	.uleb128 .LEHB27-.LFB3425
	.uleb128 .LEHE27-.LEHB27
	.uleb128 .L359-.LFB3425
	.uleb128 0
	.uleb128 .LEHB28-.LFB3425
	.uleb128 .LEHE28-.LEHB28
	.uleb128 .L358-.LFB3425
	.uleb128 0
	.uleb128 .LEHB29-.LFB3425
	.uleb128 .LEHE29-.LEHB29
	.uleb128 .L357-.LFB3425
	.uleb128 0
	.uleb128 .LEHB30-.LFB3425
	.uleb128 .LEHE30-.LEHB30
	.uleb128 .L356-.LFB3425
	.uleb128 0
	.uleb128 .LEHB31-.LFB3425
	.uleb128 .LEHE31-.LEHB31
	.uleb128 .L355-.LFB3425
	.uleb128 0
	.uleb128 .LEHB32-.LFB3425
	.uleb128 .LEHE32-.LEHB32
	.uleb128 .L354-.LFB3425
	.uleb128 0
	.uleb128 .LEHB33-.LFB3425
	.uleb128 .LEHE33-.LEHB33
	.uleb128 0
	.uleb128 0
.LLSDACSE3425:
	.section	".text"
	.size	_Z41__static_initialization_and_destruction_0ii.constprop.42, .-_Z41__static_initialization_and_destruction_0ii.constprop.42
	.align 2
	.globl _ZN10SSDPowerup13OnOpenPowerupEv
	.type	_ZN10SSDPowerup13OnOpenPowerupEv, @function
_ZN10SSDPowerup13OnOpenPowerupEv:
.LFB2978:
	.loc 5 1113 0
	.cfi_startproc
.LVL674:
	.loc 5 1114 0
	blr
	.cfi_endproc
.LFE2978:
	.size	_ZN10SSDPowerup13OnOpenPowerupEv, .-_ZN10SSDPowerup13OnOpenPowerupEv
	.align 2
	.globl _ZN10SSDPowerup4InitEP15idGameSSDWindowff
	.type	_ZN10SSDPowerup4InitEP15idGameSSDWindowff, @function
_ZN10SSDPowerup4InitEP15idGameSSDWindowff:
.LFB2980:
	.loc 5 1155 0
	.cfi_startproc
.LVL675:
	mflr 0
	stwu 1,-48(1)
.LCFI201:
	.cfi_def_cfa_offset 48
	.cfi_register 65, 0
	stfd 30,32(1)
	fmr 30,2
	.cfi_offset 62, -16
	stw 0,52(1)
	stfd 31,40(1)
	fmr 31,1
	.cfi_offset 63, -8
	.cfi_offset 65, 4
	stw 30,24(1)
	mr 30,4
	.cfi_offset 30, -24
	stw 31,28(1)
	.loc 5 1155 0
	mr 31,3
	.cfi_offset 31, -20
.LBB2772:
	.loc 5 1157 0
	bl _ZN9SSDEntity10EntityInitEv
.LVL676:
.LBB2773:
.LBB2774:
.LBB2775:
.LBB2776:
.LBB2777:
.LBB2778:
	.loc 13 71 0
	lis 11,_ZN15idGameSSDWindow6randomE@ha
	lwz 7,_ZN15idGameSSDWindow6randomE@l(11)
	lis 9,0x1
	ori 9,9,3533
.LBE2778:
.LBE2777:
.LBE2776:
.LBE2775:
.LBE2774:
.LBE2773:
.LBB2818:
.LBB2819:
.LBB2820:
.LBB2821:
	.loc 13 79 0
	lis 6,0x8888
.LBE2821:
.LBE2820:
.LBE2819:
.LBE2818:
.LBB2849:
.LBB2807:
.LBB2796:
.LBB2785:
.LBB2782:
.LBB2779:
	.loc 13 71 0
	mullw 7,9,7
.LBE2779:
.LBE2782:
.LBE2785:
.LBE2796:
.LBE2807:
.LBE2849:
.LBB2850:
.LBB2842:
.LBB2835:
.LBB2828:
	.loc 13 79 0
	ori 6,6,34953
.LBE2828:
.LBE2835:
.LBE2842:
.LBE2850:
.LBB2851:
.LBB2808:
.LBB2797:
.LBB2786:
	lis 5,0x6666
.LBE2786:
.LBE2797:
.LBE2808:
.LBE2851:
	.loc 5 1158 0
	fneg 31,31
.LVL677:
.LBB2852:
.LBB2809:
.LBB2798:
.LBB2787:
	.loc 13 79 0
	ori 5,5,26215
.LBE2787:
.LBE2798:
.LBE2809:
.LBE2852:
	.loc 5 1167 0
	lis 8,0x4330
.LBB2853:
.LBB2810:
.LBB2799:
.LBB2788:
.LBB2783:
.LBB2780:
	.loc 13 71 0
	addi 7,7,1
.LBE2780:
.LBE2783:
.LBE2788:
.LBE2799:
.LBE2810:
.LBE2853:
	.loc 5 1167 0
	stw 8,8(1)
.LBB2854:
.LBB2843:
.LBB2836:
.LBB2829:
.LBB2822:
.LBB2823:
	.loc 13 71 0
	mullw 10,7,9
.LBE2823:
.LBE2822:
.LBE2829:
.LBE2836:
.LBE2843:
.LBE2854:
.LBB2855:
.LBB2811:
.LBB2800:
.LBB2789:
.LBB2784:
.LBB2781:
	.loc 13 72 0
	rlwinm 7,7,0,17,31
.LBE2781:
.LBE2784:
.LBE2789:
.LBE2800:
.LBE2811:
.LBE2855:
	.loc 5 1168 0
	stw 8,16(1)
	.loc 5 1167 0
	lis 8,.LC3@ha
	lfs 0,.LC3@l(8)
.LBB2856:
.LBB2857:
.LBB2858:
.LBB2859:
	.loc 6 424 0
	li 8,0
.LBE2859:
.LBE2858:
.LBE2857:
.LBE2856:
.LBB2870:
.LBB2844:
.LBB2837:
.LBB2830:
.LBB2826:
.LBB2824:
	.loc 13 71 0
	addi 10,10,1
.LBE2824:
.LBE2826:
.LBE2830:
.LBE2837:
.LBE2844:
.LBE2870:
.LBB2871:
.LBB2812:
.LBB2801:
.LBB2790:
	.loc 13 79 0
	mulhw 5,7,5
.LBE2790:
.LBE2801:
.LBE2812:
.LBE2871:
.LBB2872:
.LBB2845:
.LBB2838:
.LBB2831:
.LBB2827:
.LBB2825:
	.loc 13 72 0
	rlwinm 0,10,0,17,31
.LBE2825:
.LBE2827:
	.loc 13 79 0
	mulhw 6,0,6
.LBE2831:
.LBE2838:
.LBE2845:
.LBE2872:
.LBB2873:
.LBB2813:
.LBB2802:
.LBB2791:
	srwi 5,5,8
.LBE2791:
.LBE2802:
.LBE2813:
.LBE2873:
.LBB2874:
.LBB2846:
.LBB2839:
.LBB2832:
	add 6,6,0
.LBE2832:
.LBE2839:
.LBE2846:
.LBE2874:
.LBB2875:
.LBB2876:
.LBB2877:
.LBB2878:
.LBB2879:
.LBB2880:
	.loc 13 71 0
	mullw 10,10,9
.LBE2880:
.LBE2879:
.LBE2878:
.LBE2877:
.LBE2876:
.LBE2875:
.LBB2908:
.LBB2847:
.LBB2840:
.LBB2833:
	.loc 13 79 0
	srawi 6,6,8
	slwi 4,6,5
	slwi 6,6,9
	subf 6,4,6
.LBE2833:
.LBE2840:
.LBE2847:
.LBE2908:
.LBB2909:
.LBB2814:
.LBB2803:
.LBB2792:
	slwi 9,5,7
.LBE2792:
.LBE2803:
.LBE2814:
.LBE2909:
.LBB2910:
.LBB2848:
.LBB2841:
.LBB2834:
	subf 0,6,0
.LBE2834:
.LBE2841:
.LBE2848:
.LBE2910:
.LBB2911:
.LBB2815:
.LBB2804:
.LBB2793:
	slwi 5,5,9
.LBE2793:
.LBE2804:
.LBE2815:
.LBE2911:
	.loc 5 1168 0
	xoris 0,0,0x8000
.LBB2912:
.LBB2816:
.LBB2805:
.LBB2794:
	.loc 13 79 0
	add 5,9,5
.LBE2794:
.LBE2805:
.LBE2816:
.LBE2912:
	.loc 5 1168 0
	stw 0,20(1)
.LBB2913:
.LBB2901:
.LBB2894:
.LBB2887:
.LBB2884:
.LBB2881:
	.loc 13 71 0
	addi 10,10,1
.LBE2881:
.LBE2884:
	.loc 13 79 0
	lis 0,0x9249
.LBB2885:
.LBB2882:
	.loc 13 72 0
	rlwinm 9,10,0,17,31
.LBE2882:
.LBE2885:
.LBE2887:
.LBE2894:
.LBE2901:
.LBE2913:
.LBB2914:
.LBB2817:
.LBB2806:
.LBB2795:
	.loc 13 79 0
	subf 7,5,7
.LBE2795:
.LBE2806:
.LBE2817:
.LBE2914:
.LBB2915:
.LBB2902:
.LBB2895:
.LBB2888:
	ori 0,0,9363
.LBE2888:
.LBE2895:
.LBE2902:
.LBE2915:
	.loc 5 1167 0
	xoris 7,7,0x8000
.LBB2916:
.LBB2903:
.LBB2896:
.LBB2889:
	.loc 13 79 0
	mulhw 0,9,0
.LBE2889:
.LBE2896:
.LBE2903:
.LBE2916:
	.loc 5 1167 0
	stw 7,12(1)
	.loc 5 1174 0
	li 7,0
	.loc 5 1168 0
	lfd 12,16(1)
	.loc 5 1167 0
	lfd 13,8(1)
.LBB2917:
.LBB2904:
.LBB2897:
.LBB2890:
	.loc 13 79 0
	add 0,0,9
.LBE2890:
.LBE2897:
.LBE2904:
.LBE2917:
.LBB2918:
.LBB2866:
.LBB2863:
.LBB2860:
	.loc 6 424 0
	stw 8,168(31)
.LBE2860:
.LBE2863:
.LBE2866:
.LBE2918:
	.loc 5 1167 0
	fsub 13,13,0
.LBB2919:
.LBB2905:
.LBB2898:
.LBB2891:
	.loc 13 79 0
	srawi 0,0,2
	mulli 0,0,7
.LBE2891:
.LBE2898:
.LBE2905:
.LBE2919:
	.loc 5 1168 0
	fsub 0,12,0
.LBB2920:
.LBB2867:
.LBB2864:
.LBB2861:
	.loc 6 425 0
	stw 8,172(31)
.LBE2861:
.LBE2864:
.LBE2867:
.LBE2920:
.LBB2921:
.LBB2906:
.LBB2899:
.LBB2892:
	.loc 13 79 0
	subf 0,0,9
.LBE2892:
.LBE2899:
.LBE2906:
.LBE2921:
	.loc 5 1167 0
	frsp 13,13
	lis 9,.LC22@ha
	.loc 5 1168 0
	frsp 0,0
	.loc 5 1167 0
	lfs 12,.LC22@l(9)
	.loc 5 1168 0
	lis 9,.LC29@ha
	.loc 5 1176 0
	cmpwi 7,0,6
.LBB2922:
.LBB2868:
.LBB2865:
.LBB2862:
	.loc 6 426 0
	stfs 31,176(31)
.LBE2862:
.LBE2865:
.LBE2868:
.LBE2922:
	.loc 5 1167 0
	fsubs 13,13,12
	.loc 5 1168 0
	lfs 12,.LC29@l(9)
.LBB2923:
.LBB2924:
	.loc 5 223 0
	lis 9,.LC47@ha
.LBE2924:
.LBE2923:
.LBB2927:
.LBB2869:
	.loc 5 379 0
	stfs 30,180(31)
.LVL678:
.LBE2869:
.LBE2927:
.LBB2928:
.LBB2925:
	.loc 5 223 0
	lwz 9,.LC47@l(9)
.LBE2925:
.LBE2928:
	.loc 5 1168 0
	fsubs 0,0,12
.LBB2929:
.LBB2926:
	.loc 5 209 0
	stw 30,148(31)
.LVL679:
	.loc 5 223 0
	stw 9,60(31)
	stw 9,64(31)
.LVL680:
.LBE2926:
.LBE2929:
.LBB2930:
.LBB2931:
	.loc 5 227 0
	stw 9,68(31)
	.loc 5 228 0
	lis 9,.LC48@ha
	lwz 9,.LC48@l(9)
.LBE2931:
.LBE2930:
.LBB2933:
.LBB2934:
	.loc 6 424 0
	stfs 13,48(31)
.LBE2934:
.LBE2933:
.LBB2936:
.LBB2932:
	.loc 5 228 0
	stw 9,72(31)
.LBE2932:
.LBE2936:
	.loc 5 1164 0
	li 9,6
	stw 9,4(31)
.LVL681:
.LBB2937:
.LBB2935:
	.loc 6 426 0
	lis 9,.LC49@ha
	lwz 9,.LC49@l(9)
	.loc 6 425 0
	stfs 0,52(31)
	.loc 6 426 0
	stw 9,56(31)
.LBE2935:
.LBE2937:
	.loc 5 1174 0
	stw 7,184(31)
.LVL682:
.LBB2938:
.LBB2907:
.LBB2900:
.LBB2893:
.LBB2886:
.LBB2883:
	.loc 13 71 0
	stw 10,_ZN15idGameSSDWindow6randomE@l(11)
.LBE2883:
.LBE2886:
.LBE2893:
.LBE2900:
.LBE2907:
.LBE2938:
	.loc 5 1175 0
	stw 0,188(31)
	.loc 5 1176 0
	bne- 7,.L375
	.loc 5 1177 0
	stw 7,188(31)
	li 0,0
.L375:
	.loc 5 1185 0
	lis 9,.LANCHOR1@ha
	slwi 0,0,3
	la 9,.LANCHOR1@l(9)
.LBE2772:
	.loc 5 1186 0
	lwz 30,24(1)
.LVL683:
.LBB2939:
	.loc 5 1185 0
	lwzx 4,9,0
	mr 3,31
.LBE2939:
	.loc 5 1186 0
	lwz 0,52(1)
	lwz 31,28(1)
.LVL684:
	lfd 30,32(1)
.LVL685:
	mtlr 0
	lfd 31,40(1)
.LVL686:
	addi 1,1,48
.LCFI202:
	.cfi_def_cfa_offset 0
	.cfi_restore 63
	.cfi_restore 62
	.cfi_restore 31
	.cfi_restore 30
.LBB2940:
	.loc 5 1185 0
	b _ZN9SSDEntity11SetMaterialEPKc
.LVL687:
.LVL688:
.LVL689:
.LVL690:
.LVL691:
.LVL692:
.LVL693:
.LVL694:
.LVL695:
.LVL696:
.LVL697:
.LVL698:
.LBE2940:
	.cfi_endproc
.LFE2980:
	.size	_ZN10SSDPowerup4InitEP15idGameSSDWindowff, .-_ZN10SSDPowerup4InitEP15idGameSSDWindowff
	.align 2
	.globl _ZN10SSDPowerup13GetNewPowerupEP15idGameSSDWindowff
	.type	_ZN10SSDPowerup13GetNewPowerupEP15idGameSSDWindowff, @function
_ZN10SSDPowerup13GetNewPowerupEP15idGameSSDWindowff:
.LFB2981:
	.loc 5 1188 0
	.cfi_startproc
.LVL699:
	stwu 1,-24(1)
.LCFI203:
	.cfi_def_cfa_offset 24
	mflr 0
	mr 4,3
	stw 31,20(1)
.LBB2941:
	.loc 5 1197 0
	lis 31,.LANCHOR0@ha
	.cfi_offset 31, -4
	.cfi_register 65, 0
	la 31,.LANCHOR0@l(31)
.LBE2941:
	.loc 5 1188 0
	stw 0,28(1)
.LBB2942:
	.loc 5 1197 0
	addis 31,31,0x1
.LBE2942:
	.loc 5 1190 0
	li 0,64
	.cfi_offset 65, 4
	.loc 5 1188 0
	stw 29,12(1)
.LBB2943:
	.loc 5 1197 0
	addi 9,31,-21625
.LBE2943:
	.loc 5 1188 0
	stw 30,16(1)
	.loc 5 1190 0
	li 29,0
	.cfi_offset 30, -8
	.cfi_offset 29, -12
	mtctr 0
	b .L379
.LVL700:
.L377:
.LBB2944:
	addi 29,29,1
.LVL701:
	bdz .L381
.LVL702:
.L379:
	.loc 5 1191 0
	lbz 0,0(9)
	.loc 5 1190 0
	addi 9,9,192
	.loc 5 1191 0
	cmpwi 7,0,0
	bne+ 7,.L377
	.loc 5 1192 0
	mulli 29,29,192
	addi 30,31,-21792
	add 30,30,29
	.loc 5 1193 0
	add 31,31,29
	.loc 5 1192 0
	mr 3,30
.LVL703:
	bl _ZN10SSDPowerup4InitEP15idGameSSDWindowff
.LVL704:
	.loc 5 1193 0
	li 0,1
	stb 0,-21625(31)
.LBE2944:
	.loc 5 1198 0
	mr 3,30
	lwz 0,28(1)
	lwz 29,12(1)
	mtlr 0
	lwz 30,16(1)
	lwz 31,20(1)
	addi 1,1,24
	.cfi_remember_state
.LCFI204:
	.cfi_def_cfa_offset 0
	.cfi_restore 31
	.cfi_restore 30
	.cfi_restore 29
	blr
.LVL705:
.L381:
.LCFI205:
	.cfi_restore_state
	lwz 0,28(1)
.LBB2945:
	.loc 5 1197 0
	li 30,0
.LBE2945:
	.loc 5 1198 0
	mr 3,30
.LVL706:
	lwz 29,12(1)
.LVL707:
	mtlr 0
	lwz 30,16(1)
	lwz 31,20(1)
	addi 1,1,24
	.cfi_restore 29
	.cfi_restore 30
	.cfi_restore 31
.LCFI206:
	.cfi_def_cfa_offset 0
	blr
	.cfi_endproc
.LFE2981:
	.size	_ZN10SSDPowerup13GetNewPowerupEP15idGameSSDWindowff, .-_ZN10SSDPowerup13GetNewPowerupEP15idGameSSDWindowff
	.align 2
	.globl _ZN10SSDPowerup18GetSpecificPowerupEi
	.type	_ZN10SSDPowerup18GetSpecificPowerupEi, @function
_ZN10SSDPowerup18GetSpecificPowerupEi:
.LFB2982:
	.loc 5 1200 0
	.cfi_startproc
.LVL708:
	.loc 5 1201 0
	lis 9,.LANCHOR0@ha
	mulli 3,3,192
.LVL709:
	la 9,.LANCHOR0@l(9)
	addis 9,9,0x1
	.loc 5 1202 0
	.loc 5 1201 0
	addi 0,9,-21792
	.loc 5 1202 0
	add 3,0,3
	blr
	.cfi_endproc
.LFE2982:
	.size	_ZN10SSDPowerup18GetSpecificPowerupEi, .-_ZN10SSDPowerup18GetSpecificPowerupEi
	.align 2
	.globl _ZN10SSDPowerup13WritePowerupsEP6idFile
	.type	_ZN10SSDPowerup13WritePowerupsEP6idFile, @function
_ZN10SSDPowerup13WritePowerupsEP6idFile:
.LFB2983:
	.loc 5 1204 0
	.cfi_startproc
.LVL710:
	stwu 1,-48(1)
.LCFI207:
	.cfi_def_cfa_offset 48
	mflr 0
	li 11,0
	stw 27,28(1)
.LBB2946:
	.loc 5 1212 0
	lis 27,.LANCHOR0@ha
	.cfi_offset 27, -20
	.cfi_register 65, 0
	la 27,.LANCHOR0@l(27)
.LBE2946:
	.loc 5 1204 0
	stw 0,52(1)
.LBB2951:
	.loc 5 1212 0
	addis 27,27,0x1
.LBE2951:
	.loc 5 1204 0
	li 0,64
	.cfi_offset 65, 4
	stw 31,44(1)
	mtctr 0
.LBB2952:
	.loc 5 1212 0
	addi 31,27,-21625
	.cfi_offset 31, -4
.LBE2952:
	.loc 5 1204 0
	stw 28,32(1)
	stw 30,40(1)
	mr 9,31
	stw 29,36(1)
	.loc 5 1204 0
	mr 29,3
	.cfi_offset 29, -12
	.cfi_offset 30, -8
	.cfi_offset 28, -16
.LVL711:
.L385:
.LBB2953:
.LBB2947:
	.loc 5 1207 0
	lbz 0,0(9)
	.loc 5 1208 0
	addi 9,9,192
	.loc 5 1207 0
	cmpwi 7,0,0
	beq- 7,.L384
	.loc 5 1208 0
	addi 11,11,1
.L384:
	.loc 5 1206 0
	bdnz .L385
.LBE2947:
	.loc 5 1211 0
	lwz 9,0(29)
.LBB2948:
	.loc 5 1206 0
	mr 4,1
	stwu 11,8(4)
.LVL712:
.LBE2948:
	.loc 5 1211 0
	mr 3,29
.LVL713:
	lwz 0,24(9)
	li 5,4
.LBB2949:
	.loc 5 1214 0
	addi 27,27,-21792
.LBE2949:
	.loc 5 1212 0
	li 30,0
	.loc 5 1211 0
	mtctr 0
	bctrl
.LVL714:
	b .L387
.LVL715:
.L386:
.LBB2950:
	.loc 5 1212 0
	cmpwi 7,30,63
	addi 31,31,192
	addi 30,30,1
.LVL716:
	beq- 7,.L390
.LVL717:
.L387:
	.loc 5 1213 0
	lbz 0,0(31)
	cmpwi 7,0,0
	beq+ 7,.L386
	.loc 5 1214 0
	lwz 9,0(29)
	mulli 28,30,192
	li 5,4
	lwz 0,24(9)
	mr 3,29
	add 28,27,28
	mtctr 0
	addi 4,28,8
	bctrl
	.loc 5 1215 0
	lwz 9,-167(31)
	mr 3,28
	mr 4,29
	lwz 0,8(9)
	.loc 5 1212 0
	addi 31,31,192
	.loc 5 1215 0
	mtctr 0
	bctrl
.LVL718:
	.loc 5 1212 0
	cmpwi 7,30,63
	addi 30,30,1
.LVL719:
	bne+ 7,.L387
.L390:
.LBE2950:
.LBE2953:
	.loc 5 1218 0
	lwz 0,52(1)
	lwz 27,28(1)
	mtlr 0
	lwz 28,32(1)
	lwz 29,36(1)
.LVL720:
	lwz 30,40(1)
.LVL721:
	lwz 31,44(1)
	addi 1,1,48
.LCFI208:
	.cfi_def_cfa_offset 0
	.cfi_restore 31
	.cfi_restore 30
	.cfi_restore 29
	.cfi_restore 28
	.cfi_restore 27
	blr
	.cfi_endproc
.LFE2983:
	.size	_ZN10SSDPowerup13WritePowerupsEP6idFile, .-_ZN10SSDPowerup13WritePowerupsEP6idFile
	.align 2
	.globl _ZN15idGameSSDWindow15WriteToSaveGameEP6idFile
	.type	_ZN15idGameSSDWindow15WriteToSaveGameEP6idFile, @function
_ZN15idGameSSDWindow15WriteToSaveGameEP6idFile:
.LFB2995:
	.loc 5 1258 0
	.cfi_startproc
.LVL722:
	stwu 1,-48(1)
.LCFI209:
	.cfi_def_cfa_offset 48
	mflr 0
	stw 31,44(1)
	mr 31,4
	.cfi_offset 31, -4
	.cfi_register 65, 0
	stw 0,52(1)
	stw 30,40(1)
	mr 30,3
	.cfi_offset 30, -8
	.cfi_offset 65, 4
	stw 26,24(1)
	stw 27,28(1)
	stw 28,32(1)
	stw 29,36(1)
.LBB2982:
	.loc 5 1259 0
	.cfi_offset 29, -12
	.cfi_offset 28, -16
	.cfi_offset 27, -20
	.cfi_offset 26, -24
	bl _ZN8idWindow15WriteToSaveGameEP6idFile
.LVL723:
	.loc 5 1261 0
	lwz 9,0(31)
	addi 4,30,932
	li 5,4
	mr 3,31
	lwz 0,24(9)
	mtctr 0
	bctrl
.LVL724:
.LBB2983:
.LBB2984:
	.loc 2 146 0
	lwz 9,0(31)
	addi 4,30,948
	li 5,1
	lwz 0,24(9)
	mr 3,31
	mtctr 0
	bctrl
	.loc 2 147 0
	lwz 9,0(31)
	addi 4,30,949
	li 5,1
	lwz 0,24(9)
	mr 3,31
	mtctr 0
	bctrl
.LVL725:
.LBE2984:
.LBE2983:
.LBB2985:
.LBB2986:
	.loc 2 146 0
	lwz 9,0(31)
	addi 4,30,964
	li 5,1
	lwz 0,24(9)
	mr 3,31
	mtctr 0
	bctrl
	.loc 2 147 0
	lwz 9,0(31)
	addi 4,30,965
	li 5,1
	lwz 0,24(9)
	mr 3,31
	mtctr 0
	bctrl
.LVL726:
.LBE2986:
.LBE2985:
.LBB2987:
.LBB2988:
	.loc 2 146 0
	lwz 9,0(31)
	addi 4,30,980
	li 5,1
	lwz 0,24(9)
	mr 3,31
	mtctr 0
	bctrl
	.loc 2 147 0
	lwz 9,0(31)
	addi 4,30,981
	li 5,1
	lwz 0,24(9)
	mr 3,31
	mtctr 0
	bctrl
.LVL727:
.LBE2988:
.LBE2987:
.LBB2989:
.LBB2990:
	.loc 2 146 0
	lwz 9,0(31)
	addi 4,30,996
	li 5,1
	lwz 0,24(9)
	mr 3,31
	mtctr 0
	bctrl
	.loc 2 147 0
	lwz 9,0(31)
	li 5,1
	addi 4,30,997
	lwz 0,24(9)
	mr 3,31
	mtctr 0
	bctrl
.LBE2990:
.LBE2989:
	.loc 5 1268 0
	addi 3,30,1000
	mr 4,31
	bl _ZN12SSDCrossHair15WriteToSaveGameEP6idFile
	.loc 5 1269 0
	lwz 9,0(31)
	addi 4,30,1024
	li 5,24
	lwz 0,24(9)
	mr 3,31
	mtctr 0
	bctrl
	.loc 5 1271 0
	lwz 9,0(31)
	mr 3,31
	addi 4,30,1048
	lwz 0,24(9)
	li 5,4
	mtctr 0
	bctrl
.LVL728:
.LBB2991:
	.loc 5 1272 0
	lwz 0,1048(30)
	cmpwi 7,0,0
	ble- 7,.L392
	li 26,0
	li 27,0
	li 28,0
	li 29,0
.LVL729:
.L393:
	.loc 5 1273 0 discriminator 2
	lwz 11,0(31)
.LBB2992:
.LBB2993:
	.loc 5 1258 0 discriminator 2
	slwi 9,29,3
	.file 14 "d:/Data/Nintendo/DoomGX/src/ui/../idlib/../idlib/containers/List.h"
	.loc 14 589 0 discriminator 2
	lwz 4,1064(30)
.LBE2993:
.LBE2992:
	.loc 5 1273 0 discriminator 2
	li 5,8
	lwz 0,24(11)
	mr 3,31
	add 4,4,9
	.loc 5 1272 0 discriminator 2
	addi 29,29,1
.LVL730:
	.loc 5 1273 0 discriminator 2
	mtctr 0
	bctrl
	.loc 5 1274 0 discriminator 2
	lwz 9,0(31)
.LBB2994:
.LBB2995:
	.loc 14 589 0 discriminator 2
	lwz 4,1080(30)
.LBE2995:
.LBE2994:
	.loc 5 1274 0 discriminator 2
	li 5,44
	lwz 0,24(9)
	mr 3,31
	add 4,4,28
	.loc 5 1272 0 discriminator 2
	addi 28,28,44
	.loc 5 1274 0 discriminator 2
	mtctr 0
	bctrl
	.loc 5 1275 0 discriminator 2
	lwz 9,0(31)
.LBB2996:
.LBB2997:
	.loc 14 589 0 discriminator 2
	lwz 4,1096(30)
.LBE2997:
.LBE2996:
	.loc 5 1275 0 discriminator 2
	li 5,36
	lwz 0,24(9)
	mr 3,31
	add 4,4,27
	.loc 5 1272 0 discriminator 2
	addi 27,27,36
	.loc 5 1275 0 discriminator 2
	mtctr 0
	bctrl
	.loc 5 1276 0 discriminator 2
	lwz 9,0(31)
.LBB2998:
.LBB2999:
	.loc 14 589 0 discriminator 2
	lwz 4,1112(30)
.LBE2999:
.LBE2998:
	.loc 5 1276 0 discriminator 2
	mr 3,31
	lwz 0,24(9)
	li 5,24
	add 4,4,26
	.loc 5 1272 0 discriminator 2
	addi 26,26,24
	.loc 5 1276 0 discriminator 2
	mtctr 0
	bctrl
.LVL731:
	.loc 5 1272 0 discriminator 2
	lwz 0,1048(30)
	cmpw 7,0,29
	bgt+ 7,.L393
.LVL732:
.L392:
.LBE2991:
	.loc 5 1279 0
	lwz 9,0(31)
	mr 3,31
	addi 4,30,1116
	li 5,4
	lwz 0,24(9)
	mtctr 0
	bctrl
.LVL733:
.LBB3000:
	.loc 5 1280 0
	lwz 0,1116(30)
	cmpwi 7,0,0
	ble- 7,.L394
	li 28,0
	li 29,0
.LVL734:
.L395:
	.loc 5 1281 0 discriminator 2
	lwz 9,0(31)
	mr 3,31
.LBB3001:
.LBB3002:
	.loc 14 589 0 discriminator 2
	lwz 4,1132(30)
.LBE3002:
.LBE3001:
	.loc 5 1281 0 discriminator 2
	li 5,12
	lwz 0,24(9)
	.loc 5 1280 0 discriminator 2
	addi 29,29,1
.LVL735:
	.loc 5 1281 0 discriminator 2
	add 4,4,28
	.loc 5 1280 0 discriminator 2
	addi 28,28,12
	.loc 5 1281 0 discriminator 2
	mtctr 0
	bctrl
.LVL736:
	.loc 5 1280 0 discriminator 2
	lwz 0,1116(30)
	cmpw 7,0,29
	bgt+ 7,.L395
.LVL737:
.L394:
.LBE3000:
	.loc 5 1284 0
	lwz 9,0(31)
	addi 4,30,1136
	li 5,4
	mr 3,31
	lwz 0,24(9)
	mtctr 0
	bctrl
	.loc 5 1285 0
	lwz 9,0(31)
	addi 4,30,1140
	li 5,64
	lwz 0,24(9)
	mr 3,31
	mtctr 0
	bctrl
	.loc 5 1288 0
	mr 3,31
	bl _ZN11SSDAsteroid14WriteAsteroidsEP6idFile
	.loc 5 1289 0
	mr 3,31
	bl _ZN12SSDAstronaut15WriteAstronautsEP6idFile
	.loc 5 1290 0
	mr 3,31
	bl _ZN12SSDExplosion15WriteExplosionsEP6idFile
	.loc 5 1291 0
	mr 3,31
	bl _ZN9SSDPoints11WritePointsEP6idFile
	.loc 5 1292 0
	mr 3,31
	bl _ZN13SSDProjectile16WriteProjectilesEP6idFile
	.loc 5 1293 0
	mr 3,31
	bl _ZN10SSDPowerup13WritePowerupsEP6idFile
	.loc 5 1295 0
	lwz 0,1204(30)
	.loc 5 1296 0
	lwz 9,0(31)
	.loc 5 1295 0
	mr 4,1
	stwu 0,8(4)
.LVL738:
	.loc 5 1296 0
	mr 3,31
	lwz 0,24(9)
	li 5,4
	mtctr 0
	bctrl
.LVL739:
.LBB3003:
	.loc 5 1297 0
	lwz 0,8(1)
	cmpwi 7,0,0
	ble- 7,.L391
	li 29,0
.LVL740:
.L397:
	.loc 5 1298 0 discriminator 2
	lwz 11,1216(30)
	.loc 5 1258 0 discriminator 2
	slwi 28,29,2
	.loc 5 1298 0 discriminator 2
	lwz 9,0(31)
	li 5,4
	lwzx 4,11,28
	mr 3,31
	lwz 0,24(9)
	.loc 5 1297 0 discriminator 2
	addi 29,29,1
.LVL741:
	.loc 5 1298 0 discriminator 2
	addi 4,4,4
	mtctr 0
	bctrl
	.loc 5 1299 0 discriminator 2
	lwz 11,1216(30)
	lwz 9,0(31)
	mr 3,31
	lwzx 4,11,28
	li 5,4
	lwz 0,24(9)
	addi 4,4,8
	mtctr 0
	bctrl
.LVL742:
	.loc 5 1297 0 discriminator 2
	lwz 0,8(1)
	cmpw 7,0,29
	bgt+ 7,.L397
.LVL743:
.L391:
.LBE3003:
.LBE2982:
	.loc 5 1301 0
	lwz 0,52(1)
	lwz 26,24(1)
	mtlr 0
	lwz 27,28(1)
	lwz 28,32(1)
	lwz 29,36(1)
	lwz 30,40(1)
.LVL744:
	lwz 31,44(1)
.LVL745:
	addi 1,1,48
.LCFI210:
	.cfi_def_cfa_offset 0
	.cfi_restore 31
	.cfi_restore 30
	.cfi_restore 29
	.cfi_restore 28
	.cfi_restore 27
	.cfi_restore 26
	blr
	.cfi_endproc
.LFE2995:
	.size	_ZN15idGameSSDWindow15WriteToSaveGameEP6idFile, .-_ZN15idGameSSDWindow15WriteToSaveGameEP6idFile
	.align 2
	.globl _ZN10SSDPowerup12ReadPowerupsEP6idFileP15idGameSSDWindow
	.type	_ZN10SSDPowerup12ReadPowerupsEP6idFileP15idGameSSDWindow, @function
_ZN10SSDPowerup12ReadPowerupsEP6idFileP15idGameSSDWindow:
.LFB2984:
	.loc 5 1220 0
	.cfi_startproc
.LVL746:
	mflr 0
	stwu 1,-40(1)
.LCFI211:
	.cfi_def_cfa_offset 40
	.cfi_register 65, 0
.LBB3004:
	.loc 5 1223 0
	li 5,4
.LBE3004:
	.loc 5 1220 0
	stw 28,24(1)
	mr 28,4
	.cfi_offset 28, -16
	stw 31,36(1)
.LBB3009:
	.loc 5 1223 0
	addi 4,1,12
.LVL747:
.LBE3009:
	.loc 5 1220 0
	stw 0,44(1)
	mr 31,3
	.cfi_offset 65, 4
	.cfi_offset 31, -4
	stw 29,28(1)
	stw 30,32(1)
.LBB3010:
	.loc 5 1223 0
	lwz 9,0(3)
	lwz 0,20(9)
	mtctr 0
	.cfi_offset 30, -8
	.cfi_offset 29, -12
	bctrl
.LVL748:
.LBB3005:
	.loc 5 1224 0
	lwz 0,12(1)
	cmpwi 7,0,0
	ble- 7,.L401
.LBB3006:
	.loc 5 1227 0
	lis 29,.LANCHOR0+65536@ha
.LBE3006:
	.loc 5 1224 0
	li 30,0
.LBB3007:
	.loc 5 1227 0
	la 29,.LANCHOR0+65536@l(29)
	addi 29,29,-21792
.LVL749:
.L403:
	.loc 5 1226 0 discriminator 2
	lwz 9,0(31)
	addi 4,1,8
	li 5,4
	mr 3,31
	lwz 0,20(9)
.LBE3007:
	.loc 5 1224 0 discriminator 2
	addi 30,30,1
.LBB3008:
	.loc 5 1226 0 discriminator 2
	mtctr 0
	bctrl
.LVL750:
	.loc 5 1227 0 discriminator 2
	lwz 3,8(1)
	.loc 5 1228 0 discriminator 2
	mr 4,31
	mr 5,28
	.loc 5 1227 0 discriminator 2
	mulli 3,3,192
	.loc 5 1228 0 discriminator 2
	lwzx 9,29,3
	add 3,29,3
	lwz 0,12(9)
	mtctr 0
	bctrl
.LVL751:
.LBE3008:
	.loc 5 1224 0 discriminator 2
	lwz 0,12(1)
	cmpw 7,0,30
	bgt+ 7,.L403
.LVL752:
.L401:
.LBE3005:
.LBE3010:
	.loc 5 1230 0
	lwz 0,44(1)
	lwz 28,24(1)
.LVL753:
	mtlr 0
	lwz 29,28(1)
	lwz 30,32(1)
	lwz 31,36(1)
.LVL754:
	addi 1,1,40
.LCFI212:
	.cfi_def_cfa_offset 0
	.cfi_restore 31
	.cfi_restore 30
	.cfi_restore 29
	.cfi_restore 28
	blr
	.cfi_endproc
.LFE2984:
	.size	_ZN10SSDPowerup12ReadPowerupsEP6idFileP15idGameSSDWindow, .-_ZN10SSDPowerup12ReadPowerupsEP6idFileP15idGameSSDWindow
	.align 2
	.globl _ZN15idGameSSDWindow14ParseLevelDataEiRK5idStr
	.type	_ZN15idGameSSDWindow14ParseLevelDataEiRK5idStr, @function
_ZN15idGameSSDWindow14ParseLevelDataEiRK5idStr:
.LFB3001:
	.loc 5 1557 0
	.cfi_startproc
	.cfi_personality 0,__gxx_personality_v0
	.cfi_lsda 0,.LLSDA3001
.LVL755:
	stwu 1,-216(1)
.LCFI213:
	.cfi_def_cfa_offset 216
	mflr 0
	stw 29,204(1)
	mr 29,5
	.cfi_offset 29, -12
	.cfi_register 65, 0
	stw 30,208(1)
	mr 30,3
	.cfi_offset 30, -8
.LBB3011:
	.loc 5 1559 0
	addi 3,1,88
.LVL756:
.LBE3011:
	.loc 5 1557 0
	stw 0,220(1)
	stw 31,212(1)
	.loc 5 1557 0
	mr 31,4
	.cfi_offset 31, -4
	.cfi_offset 65, 4
.LEHB34:
.LBB3040:
	.loc 5 1559 0
	bl _ZN8idParserC1Ev
.LEHE34:
.LVL757:
.LBB3012:
.LBB3013:
.LBB3014:
.LBB3015:
	.loc 7 357 0
	li 9,20
.LBE3015:
.LBE3014:
.LBE3013:
.LBE3012:
	.loc 5 1561 0
	lis 6,.LC50@ha
	lwz 4,4(29)
	lwz 5,0(29)
.LBB3025:
.LBB3022:
.LBB3019:
.LBB3016:
	.loc 7 356 0
	li 0,0
	.loc 7 357 0
	stw 9,16(1)
.LBE3016:
.LBE3019:
.LBE3022:
.LBE3025:
	.loc 5 1561 0
	addi 3,1,88
.LBB3026:
.LBB3023:
.LBB3020:
.LBB3017:
	.loc 7 358 0
	addi 9,1,20
.LBE3017:
.LBE3020:
.LBE3023:
.LBE3026:
	.loc 5 1561 0
	la 6,.LC50@l(6)
.LBB3027:
.LBB3024:
.LBB3021:
.LBB3018:
	.loc 7 356 0
	stw 0,8(1)
	.loc 7 358 0
	stw 9,12(1)
	.loc 7 359 0
	stb 0,20(1)
.LEHB35:
.LBE3018:
.LBE3021:
.LBE3024:
.LBE3027:
	.loc 5 1561 0
	bl _ZN8idParser10LoadMemoryEPKciS1_
	.loc 5 1563 0
	addi 3,1,88
	.loc 5 2339 0
	lwz 29,1064(30)
.LVL758:
	.loc 5 1563 0
	bl _ZN8idParser10ParseFloatEv
.LBB3028:
.LBB3029:
	.loc 14 589 0
	slwi 31,31,3
.LVL759:
.LBE3029:
.LBE3028:
	.loc 5 1564 0
	addi 3,1,88
	.loc 5 1563 0
	stfsx 1,29,31
	.loc 5 2339 0
	lwz 30,1064(30)
.LVL760:
	.loc 5 1564 0
	bl _ZN8idParser8ParseIntEv
.LEHE35:
	.loc 5 1564 0 is_stmt 0 discriminator 1
	add 31,30,31
	stw 3,4(31)
.LVL761:
.LBB3030:
.LBB3031:
.LBB3032:
.LBB3033:
.LBB3034:
	.loc 7 501 0 is_stmt 1 discriminator 1
	addi 3,1,8
.LEHB36:
	bl _ZN5idStr8FreeDataEv
.LEHE36:
.LBE3034:
.LBE3033:
.LBE3032:
.LBE3031:
.LBE3030:
	.loc 5 1564 0 discriminator 1
	addi 3,1,88
.LEHB37:
	bl _ZN8idParserD1Ev
.LEHE37:
.LBE3040:
	.loc 5 1566 0 discriminator 1
	lwz 0,220(1)
	lwz 29,204(1)
	mtlr 0
	lwz 30,208(1)
	lwz 31,212(1)
	addi 1,1,216
	.cfi_remember_state
.LCFI214:
	.cfi_def_cfa_offset 0
	.cfi_restore 31
	.cfi_restore 30
	.cfi_restore 29
	blr
.LVL762:
.L413:
.LCFI215:
	.cfi_restore_state
	mr 31,3
.LVL763:
.LBB3041:
.LBB3035:
.LBB3036:
.LBB3037:
.LBB3038:
.LBB3039:
	.loc 7 501 0
	addi 3,1,8
	bl _ZN5idStr8FreeDataEv
.LVL764:
.L411:
.LBE3039:
.LBE3038:
.LBE3037:
.LBE3036:
.LBE3035:
	.loc 5 1564 0
	addi 3,1,88
	bl _ZN8idParserD1Ev
	mr 3,31
.LEHB38:
	bl _Unwind_Resume
.LEHE38:
.LVL765:
.L412:
	mr 31,3
	b .L411
.LBE3041:
	.cfi_endproc
.LFE3001:
	.section	.gcc_except_table
.LLSDA3001:
	.byte	0xff
	.byte	0xff
	.byte	0x1
	.uleb128 .LLSDACSE3001-.LLSDACSB3001
.LLSDACSB3001:
	.uleb128 .LEHB34-.LFB3001
	.uleb128 .LEHE34-.LEHB34
	.uleb128 0
	.uleb128 0
	.uleb128 .LEHB35-.LFB3001
	.uleb128 .LEHE35-.LEHB35
	.uleb128 .L413-.LFB3001
	.uleb128 0
	.uleb128 .LEHB36-.LFB3001
	.uleb128 .LEHE36-.LEHB36
	.uleb128 .L412-.LFB3001
	.uleb128 0
	.uleb128 .LEHB37-.LFB3001
	.uleb128 .LEHE37-.LEHB37
	.uleb128 0
	.uleb128 0
	.uleb128 .LEHB38-.LFB3001
	.uleb128 .LEHE38-.LEHB38
	.uleb128 0
	.uleb128 0
.LLSDACSE3001:
	.section	".text"
	.size	_ZN15idGameSSDWindow14ParseLevelDataEiRK5idStr, .-_ZN15idGameSSDWindow14ParseLevelDataEiRK5idStr
	.align 2
	.globl _ZN15idGameSSDWindow17ParseAsteroidDataEiRK5idStr
	.type	_ZN15idGameSSDWindow17ParseAsteroidDataEiRK5idStr, @function
_ZN15idGameSSDWindow17ParseAsteroidDataEiRK5idStr:
.LFB3002:
	.loc 5 1568 0
	.cfi_startproc
	.cfi_personality 0,__gxx_personality_v0
	.cfi_lsda 0,.LLSDA3002
.LVL766:
	stwu 1,-216(1)
.LCFI216:
	.cfi_def_cfa_offset 216
	mflr 0
	stw 29,204(1)
	mr 29,5
	.cfi_offset 29, -12
	.cfi_register 65, 0
	stw 30,208(1)
	mr 30,3
	.cfi_offset 30, -8
.LBB3042:
	.loc 5 1570 0
	addi 3,1,88
.LVL767:
.LBE3042:
	.loc 5 1568 0
	stw 0,220(1)
	stw 31,212(1)
	.loc 5 1568 0
	mr 31,4
	.cfi_offset 31, -4
	.cfi_offset 65, 4
.LEHB39:
.LBB3071:
	.loc 5 1570 0
	bl _ZN8idParserC1Ev
.LEHE39:
.LVL768:
.LBB3043:
.LBB3044:
.LBB3045:
.LBB3046:
	.loc 7 357 0
	li 9,20
.LBE3046:
.LBE3045:
.LBE3044:
.LBE3043:
	.loc 5 1572 0
	lis 6,.LC51@ha
	lwz 4,4(29)
	lwz 5,0(29)
.LBB3056:
.LBB3053:
.LBB3050:
.LBB3047:
	.loc 7 356 0
	li 0,0
	.loc 7 357 0
	stw 9,16(1)
.LBE3047:
.LBE3050:
.LBE3053:
.LBE3056:
	.loc 5 1572 0
	addi 3,1,88
.LBB3057:
.LBB3054:
.LBB3051:
.LBB3048:
	.loc 7 358 0
	addi 9,1,20
.LBE3048:
.LBE3051:
.LBE3054:
.LBE3057:
	.loc 5 1572 0
	la 6,.LC51@l(6)
.LBB3058:
.LBB3055:
.LBB3052:
.LBB3049:
	.loc 7 356 0
	stw 0,8(1)
	.loc 7 358 0
	stw 9,12(1)
	.loc 7 359 0
	stb 0,20(1)
.LEHB40:
.LBE3049:
.LBE3052:
.LBE3055:
.LBE3058:
	.loc 5 1572 0
	bl _ZN8idParser10LoadMemoryEPKciS1_
	.loc 5 1574 0
	addi 3,1,88
	.loc 5 2339 0
	lwz 29,1080(30)
.LVL769:
	.loc 5 1574 0
	bl _ZN8idParser10ParseFloatEv
.LBB3059:
.LBB3060:
	.loc 14 589 0
	mulli 31,31,44
.LVL770:
.LBE3060:
.LBE3059:
	.loc 5 1575 0
	addi 3,1,88
	.loc 5 1574 0
	stfsx 1,29,31
	.loc 5 2339 0
	lwz 29,1080(30)
	.loc 5 1575 0
	bl _ZN8idParser10ParseFloatEv
	.loc 5 1575 0 is_stmt 0 discriminator 1
	add 29,29,31
	.loc 5 1577 0 is_stmt 1 discriminator 1
	addi 3,1,88
	.loc 5 1575 0 discriminator 1
	stfs 1,4(29)
	.loc 5 2339 0 discriminator 1
	lwz 29,1080(30)
	.loc 5 1577 0 discriminator 1
	bl _ZN8idParser10ParseFloatEv
	add 29,29,31
	.loc 5 1578 0 discriminator 1
	addi 3,1,88
	.loc 5 1577 0 discriminator 1
	stfs 1,8(29)
	.loc 5 2339 0 discriminator 1
	lwz 29,1080(30)
	.loc 5 1578 0 discriminator 1
	bl _ZN8idParser10ParseFloatEv
	add 29,29,31
	.loc 5 1580 0 discriminator 1
	addi 3,1,88
	.loc 5 1578 0 discriminator 1
	stfs 1,12(29)
	.loc 5 2339 0 discriminator 1
	lwz 29,1080(30)
	.loc 5 1580 0 discriminator 1
	bl _ZN8idParser10ParseFloatEv
	add 29,29,31
	.loc 5 1581 0 discriminator 1
	addi 3,1,88
	.loc 5 1580 0 discriminator 1
	stfs 1,16(29)
	.loc 5 2339 0 discriminator 1
	lwz 29,1080(30)
	.loc 5 1581 0 discriminator 1
	bl _ZN8idParser10ParseFloatEv
	add 29,29,31
	.loc 5 1583 0 discriminator 1
	addi 3,1,88
	.loc 5 1581 0 discriminator 1
	stfs 1,20(29)
	.loc 5 2339 0 discriminator 1
	lwz 29,1080(30)
	.loc 5 1583 0 discriminator 1
	bl _ZN8idParser8ParseIntEv
	add 29,29,31
	stw 3,24(29)
	.loc 5 1584 0 discriminator 1
	addi 3,1,88
	.loc 5 2339 0 discriminator 1
	lwz 29,1080(30)
	.loc 5 1584 0 discriminator 1
	bl _ZN8idParser8ParseIntEv
	add 29,29,31
	stw 3,28(29)
	.loc 5 1586 0 discriminator 1
	addi 3,1,88
	.loc 5 2339 0 discriminator 1
	lwz 29,1080(30)
	.loc 5 1586 0 discriminator 1
	bl _ZN8idParser8ParseIntEv
	add 29,29,31
	stw 3,32(29)
	.loc 5 1587 0 discriminator 1
	addi 3,1,88
	.loc 5 2339 0 discriminator 1
	lwz 29,1080(30)
	.loc 5 1587 0 discriminator 1
	bl _ZN8idParser8ParseIntEv
	add 29,29,31
	stw 3,40(29)
	.loc 5 1588 0 discriminator 1
	addi 3,1,88
	.loc 5 2339 0 discriminator 1
	lwz 30,1080(30)
.LVL771:
	.loc 5 1588 0 discriminator 1
	bl _ZN8idParser8ParseIntEv
.LEHE40:
	add 31,30,31
	stw 3,36(31)
.LVL772:
.LBB3061:
.LBB3062:
.LBB3063:
.LBB3064:
.LBB3065:
	.loc 7 501 0 discriminator 1
	addi 3,1,8
.LEHB41:
	bl _ZN5idStr8FreeDataEv
.LEHE41:
.LBE3065:
.LBE3064:
.LBE3063:
.LBE3062:
.LBE3061:
	.loc 5 1588 0 discriminator 1
	addi 3,1,88
.LEHB42:
	bl _ZN8idParserD1Ev
.LEHE42:
.LBE3071:
	.loc 5 1589 0 discriminator 1
	lwz 0,220(1)
	lwz 29,204(1)
	mtlr 0
	lwz 30,208(1)
	lwz 31,212(1)
	addi 1,1,216
	.cfi_remember_state
.LCFI217:
	.cfi_def_cfa_offset 0
	.cfi_restore 31
	.cfi_restore 30
	.cfi_restore 29
	blr
.LVL773:
.L422:
.LCFI218:
	.cfi_restore_state
	mr 31,3
.LVL774:
.LBB3072:
.LBB3066:
.LBB3067:
.LBB3068:
.LBB3069:
.LBB3070:
	.loc 7 501 0
	addi 3,1,8
	bl _ZN5idStr8FreeDataEv
.LVL775:
.L420:
.LBE3070:
.LBE3069:
.LBE3068:
.LBE3067:
.LBE3066:
	.loc 5 1588 0
	addi 3,1,88
	bl _ZN8idParserD1Ev
	mr 3,31
.LEHB43:
	bl _Unwind_Resume
.LEHE43:
.LVL776:
.L421:
	mr 31,3
	b .L420
.LBE3072:
	.cfi_endproc
.LFE3002:
	.section	.gcc_except_table
.LLSDA3002:
	.byte	0xff
	.byte	0xff
	.byte	0x1
	.uleb128 .LLSDACSE3002-.LLSDACSB3002
.LLSDACSB3002:
	.uleb128 .LEHB39-.LFB3002
	.uleb128 .LEHE39-.LEHB39
	.uleb128 0
	.uleb128 0
	.uleb128 .LEHB40-.LFB3002
	.uleb128 .LEHE40-.LEHB40
	.uleb128 .L422-.LFB3002
	.uleb128 0
	.uleb128 .LEHB41-.LFB3002
	.uleb128 .LEHE41-.LEHB41
	.uleb128 .L421-.LFB3002
	.uleb128 0
	.uleb128 .LEHB42-.LFB3002
	.uleb128 .LEHE42-.LEHB42
	.uleb128 0
	.uleb128 0
	.uleb128 .LEHB43-.LFB3002
	.uleb128 .LEHE43-.LEHB43
	.uleb128 0
	.uleb128 0
.LLSDACSE3002:
	.section	".text"
	.size	_ZN15idGameSSDWindow17ParseAsteroidDataEiRK5idStr, .-_ZN15idGameSSDWindow17ParseAsteroidDataEiRK5idStr
	.align 2
	.globl _ZN15idGameSSDWindow16ParsePowerupDataEiRK5idStr
	.type	_ZN15idGameSSDWindow16ParsePowerupDataEiRK5idStr, @function
_ZN15idGameSSDWindow16ParsePowerupDataEiRK5idStr:
.LFB3003:
	.loc 5 1591 0
	.cfi_startproc
	.cfi_personality 0,__gxx_personality_v0
	.cfi_lsda 0,.LLSDA3003
.LVL777:
	stwu 1,-216(1)
.LCFI219:
	.cfi_def_cfa_offset 216
	mflr 0
	stw 29,204(1)
	mr 29,5
	.cfi_offset 29, -12
	.cfi_register 65, 0
	stw 30,208(1)
	mr 30,3
	.cfi_offset 30, -8
.LBB3073:
	.loc 5 1593 0
	addi 3,1,88
.LVL778:
.LBE3073:
	.loc 5 1591 0
	stw 0,220(1)
	stw 31,212(1)
	.loc 5 1591 0
	mr 31,4
	.cfi_offset 31, -4
	.cfi_offset 65, 4
.LEHB44:
.LBB3102:
	.loc 5 1593 0
	bl _ZN8idParserC1Ev
.LEHE44:
.LVL779:
.LBB3074:
.LBB3075:
.LBB3076:
.LBB3077:
	.loc 7 357 0
	li 9,20
.LBE3077:
.LBE3076:
.LBE3075:
.LBE3074:
	.loc 5 1595 0
	lis 6,.LC52@ha
	lwz 4,4(29)
	lwz 5,0(29)
.LBB3087:
.LBB3084:
.LBB3081:
.LBB3078:
	.loc 7 356 0
	li 0,0
	.loc 7 357 0
	stw 9,16(1)
.LBE3078:
.LBE3081:
.LBE3084:
.LBE3087:
	.loc 5 1595 0
	addi 3,1,88
.LBB3088:
.LBB3085:
.LBB3082:
.LBB3079:
	.loc 7 358 0
	addi 9,1,20
.LBE3079:
.LBE3082:
.LBE3085:
.LBE3088:
	.loc 5 1595 0
	la 6,.LC52@l(6)
.LBB3089:
.LBB3086:
.LBB3083:
.LBB3080:
	.loc 7 356 0
	stw 0,8(1)
	.loc 7 358 0
	stw 9,12(1)
	.loc 7 359 0
	stb 0,20(1)
.LEHB45:
.LBE3080:
.LBE3083:
.LBE3086:
.LBE3089:
	.loc 5 1595 0
	bl _ZN8idParser10LoadMemoryEPKciS1_
	.loc 5 1597 0
	addi 3,1,88
	.loc 5 2339 0
	lwz 29,1112(30)
.LVL780:
	.loc 5 1597 0
	bl _ZN8idParser10ParseFloatEv
.LBB3090:
.LBB3091:
	.loc 14 589 0
	mulli 31,31,24
.LVL781:
.LBE3091:
.LBE3090:
	.loc 5 1598 0
	addi 3,1,88
	.loc 5 1597 0
	stfsx 1,29,31
	.loc 5 2339 0
	lwz 29,1112(30)
	.loc 5 1598 0
	bl _ZN8idParser10ParseFloatEv
	.loc 5 1598 0 is_stmt 0 discriminator 1
	add 29,29,31
	.loc 5 1600 0 is_stmt 1 discriminator 1
	addi 3,1,88
	.loc 5 1598 0 discriminator 1
	stfs 1,4(29)
	.loc 5 2339 0 discriminator 1
	lwz 29,1112(30)
	.loc 5 1600 0 discriminator 1
	bl _ZN8idParser10ParseFloatEv
	add 29,29,31
	.loc 5 1601 0 discriminator 1
	addi 3,1,88
	.loc 5 1600 0 discriminator 1
	stfs 1,8(29)
	.loc 5 2339 0 discriminator 1
	lwz 29,1112(30)
	.loc 5 1601 0 discriminator 1
	bl _ZN8idParser10ParseFloatEv
	add 29,29,31
	.loc 5 1603 0 discriminator 1
	addi 3,1,88
	.loc 5 1601 0 discriminator 1
	stfs 1,12(29)
	.loc 5 2339 0 discriminator 1
	lwz 29,1112(30)
	.loc 5 1603 0 discriminator 1
	bl _ZN8idParser8ParseIntEv
	add 29,29,31
	stw 3,16(29)
	.loc 5 1604 0 discriminator 1
	addi 3,1,88
	.loc 5 2339 0 discriminator 1
	lwz 30,1112(30)
.LVL782:
	.loc 5 1604 0 discriminator 1
	bl _ZN8idParser8ParseIntEv
.LEHE45:
	add 31,30,31
	stw 3,20(31)
.LVL783:
.LBB3092:
.LBB3093:
.LBB3094:
.LBB3095:
.LBB3096:
	.loc 7 501 0 discriminator 1
	addi 3,1,8
.LEHB46:
	bl _ZN5idStr8FreeDataEv
.LEHE46:
.LBE3096:
.LBE3095:
.LBE3094:
.LBE3093:
.LBE3092:
	.loc 5 1604 0 discriminator 1
	addi 3,1,88
.LEHB47:
	bl _ZN8idParserD1Ev
.LEHE47:
.LBE3102:
	.loc 5 1606 0 discriminator 1
	lwz 0,220(1)
	lwz 29,204(1)
	mtlr 0
	lwz 30,208(1)
	lwz 31,212(1)
	addi 1,1,216
	.cfi_remember_state
.LCFI220:
	.cfi_def_cfa_offset 0
	.cfi_restore 31
	.cfi_restore 30
	.cfi_restore 29
	blr
.LVL784:
.L431:
.LCFI221:
	.cfi_restore_state
	mr 31,3
.LVL785:
.LBB3103:
.LBB3097:
.LBB3098:
.LBB3099:
.LBB3100:
.LBB3101:
	.loc 7 501 0
	addi 3,1,8
	bl _ZN5idStr8FreeDataEv
.LVL786:
.L429:
.LBE3101:
.LBE3100:
.LBE3099:
.LBE3098:
.LBE3097:
	.loc 5 1604 0
	addi 3,1,88
	bl _ZN8idParserD1Ev
	mr 3,31
.LEHB48:
	bl _Unwind_Resume
.LEHE48:
.LVL787:
.L430:
	mr 31,3
	b .L429
.LBE3103:
	.cfi_endproc
.LFE3003:
	.section	.gcc_except_table
.LLSDA3003:
	.byte	0xff
	.byte	0xff
	.byte	0x1
	.uleb128 .LLSDACSE3003-.LLSDACSB3003
.LLSDACSB3003:
	.uleb128 .LEHB44-.LFB3003
	.uleb128 .LEHE44-.LEHB44
	.uleb128 0
	.uleb128 0
	.uleb128 .LEHB45-.LFB3003
	.uleb128 .LEHE45-.LEHB45
	.uleb128 .L431-.LFB3003
	.uleb128 0
	.uleb128 .LEHB46-.LFB3003
	.uleb128 .LEHE46-.LEHB46
	.uleb128 .L430-.LFB3003
	.uleb128 0
	.uleb128 .LEHB47-.LFB3003
	.uleb128 .LEHE47-.LEHB47
	.uleb128 0
	.uleb128 0
	.uleb128 .LEHB48-.LFB3003
	.uleb128 .LEHE48-.LEHB48
	.uleb128 0
	.uleb128 0
.LLSDACSE3003:
	.section	".text"
	.size	_ZN15idGameSSDWindow16ParsePowerupDataEiRK5idStr, .-_ZN15idGameSSDWindow16ParsePowerupDataEiRK5idStr
	.align 2
	.globl _ZN15idGameSSDWindow15ParseWeaponDataEiRK5idStr
	.type	_ZN15idGameSSDWindow15ParseWeaponDataEiRK5idStr, @function
_ZN15idGameSSDWindow15ParseWeaponDataEiRK5idStr:
.LFB3004:
	.loc 5 1608 0
	.cfi_startproc
	.cfi_personality 0,__gxx_personality_v0
	.cfi_lsda 0,.LLSDA3004
.LVL788:
	stwu 1,-216(1)
.LCFI222:
	.cfi_def_cfa_offset 216
	mflr 0
	stw 29,204(1)
	mr 29,5
	.cfi_offset 29, -12
	.cfi_register 65, 0
	stw 30,208(1)
	mr 30,3
	.cfi_offset 30, -8
.LBB3104:
	.loc 5 1610 0
	addi 3,1,88
.LVL789:
.LBE3104:
	.loc 5 1608 0
	stw 0,220(1)
	stw 31,212(1)
	.loc 5 1608 0
	mr 31,4
	.cfi_offset 31, -4
	.cfi_offset 65, 4
.LEHB49:
.LBB3138:
	.loc 5 1610 0
	bl _ZN8idParserC1Ev
.LEHE49:
.LVL790:
.LBB3105:
.LBB3106:
.LBB3107:
.LBB3108:
	.loc 7 357 0
	li 9,20
.LBE3108:
.LBE3107:
.LBE3106:
.LBE3105:
	.loc 5 1612 0
	lis 6,.LC53@ha
	lwz 4,4(29)
	lwz 5,0(29)
.LBB3118:
.LBB3115:
.LBB3112:
.LBB3109:
	.loc 7 356 0
	li 0,0
	.loc 7 357 0
	stw 9,16(1)
.LBE3109:
.LBE3112:
.LBE3115:
.LBE3118:
	.loc 5 1612 0
	addi 3,1,88
.LBB3119:
.LBB3116:
.LBB3113:
.LBB3110:
	.loc 7 358 0
	addi 9,1,20
.LBE3110:
.LBE3113:
.LBE3116:
.LBE3119:
	.loc 5 1612 0
	la 6,.LC53@l(6)
.LBB3120:
.LBB3117:
.LBB3114:
.LBB3111:
	.loc 7 356 0
	stw 0,8(1)
	.loc 7 358 0
	stw 9,12(1)
	.loc 7 359 0
	stb 0,20(1)
.LEHB50:
.LBE3111:
.LBE3114:
.LBE3117:
.LBE3120:
	.loc 5 1612 0
	bl _ZN8idParser10LoadMemoryEPKciS1_
	.loc 5 1614 0
	addi 3,1,88
	.loc 5 2339 0
	lwz 29,1132(30)
.LVL791:
	.loc 5 1614 0
	bl _ZN8idParser10ParseFloatEv
.LBB3121:
.LBB3122:
	.loc 14 589 0
	mulli 31,31,12
.LVL792:
.LBE3122:
.LBE3121:
	.loc 5 1615 0
	addi 3,1,88
	.loc 5 1614 0
	stfsx 1,29,31
	.loc 5 2339 0
	lwz 29,1132(30)
	.loc 5 1615 0
	bl _ZN8idParser10ParseFloatEv
	.loc 5 1615 0 is_stmt 0 discriminator 1
	fctiwz 1,1
	add 29,29,31
	addi 29,29,4
	.loc 5 1616 0 is_stmt 1 discriminator 1
	addi 3,1,88
	.loc 5 1615 0 discriminator 1
	stfiwx 1,0,29
	.loc 5 2339 0 discriminator 1
	lwz 30,1132(30)
.LVL793:
	.loc 5 1616 0 discriminator 1
	bl _ZN8idParser10ParseFloatEv
.LEHE50:
	fctiwz 1,1
	add 31,30,31
	addi 31,31,8
.LBB3123:
.LBB3124:
.LBB3125:
.LBB3126:
.LBB3127:
	.loc 7 501 0 discriminator 1
	addi 3,1,8
.LBE3127:
.LBE3126:
.LBE3125:
.LBE3124:
.LBE3123:
	.loc 5 1616 0 discriminator 1
	stfiwx 1,0,31
.LVL794:
.LEHB51:
.LBB3132:
.LBB3131:
.LBB3130:
.LBB3129:
.LBB3128:
	.loc 7 501 0 discriminator 1
	bl _ZN5idStr8FreeDataEv
.LEHE51:
.LBE3128:
.LBE3129:
.LBE3130:
.LBE3131:
.LBE3132:
	.loc 5 1616 0 discriminator 1
	addi 3,1,88
.LEHB52:
	bl _ZN8idParserD1Ev
.LEHE52:
.LBE3138:
	.loc 5 1617 0 discriminator 1
	lwz 0,220(1)
	lwz 29,204(1)
	mtlr 0
	lwz 30,208(1)
	lwz 31,212(1)
	addi 1,1,216
	.cfi_remember_state
.LCFI223:
	.cfi_def_cfa_offset 0
	.cfi_restore 31
	.cfi_restore 30
	.cfi_restore 29
	blr
.LVL795:
.L440:
.LCFI224:
	.cfi_restore_state
	mr 31,3
.LVL796:
.LBB3139:
.LBB3133:
.LBB3134:
.LBB3135:
.LBB3136:
.LBB3137:
	.loc 7 501 0
	addi 3,1,8
	bl _ZN5idStr8FreeDataEv
.LVL797:
.L438:
.LBE3137:
.LBE3136:
.LBE3135:
.LBE3134:
.LBE3133:
	.loc 5 1616 0
	addi 3,1,88
	bl _ZN8idParserD1Ev
	mr 3,31
.LEHB53:
	bl _Unwind_Resume
.LEHE53:
.LVL798:
.L439:
	mr 31,3
	b .L438
.LBE3139:
	.cfi_endproc
.LFE3004:
	.section	.gcc_except_table
.LLSDA3004:
	.byte	0xff
	.byte	0xff
	.byte	0x1
	.uleb128 .LLSDACSE3004-.LLSDACSB3004
.LLSDACSB3004:
	.uleb128 .LEHB49-.LFB3004
	.uleb128 .LEHE49-.LEHB49
	.uleb128 0
	.uleb128 0
	.uleb128 .LEHB50-.LFB3004
	.uleb128 .LEHE50-.LEHB50
	.uleb128 .L440-.LFB3004
	.uleb128 0
	.uleb128 .LEHB51-.LFB3004
	.uleb128 .LEHE51-.LEHB51
	.uleb128 .L439-.LFB3004
	.uleb128 0
	.uleb128 .LEHB52-.LFB3004
	.uleb128 .LEHE52-.LEHB52
	.uleb128 0
	.uleb128 0
	.uleb128 .LEHB53-.LFB3004
	.uleb128 .LEHE53-.LEHB53
	.uleb128 0
	.uleb128 0
.LLSDACSE3004:
	.section	".text"
	.size	_ZN15idGameSSDWindow15ParseWeaponDataEiRK5idStr, .-_ZN15idGameSSDWindow15ParseWeaponDataEiRK5idStr
	.align 2
	.globl _ZN15idGameSSDWindow18ParseAstronautDataEiRK5idStr
	.type	_ZN15idGameSSDWindow18ParseAstronautDataEiRK5idStr, @function
_ZN15idGameSSDWindow18ParseAstronautDataEiRK5idStr:
.LFB3005:
	.loc 5 1619 0
	.cfi_startproc
	.cfi_personality 0,__gxx_personality_v0
	.cfi_lsda 0,.LLSDA3005
.LVL799:
	stwu 1,-216(1)
.LCFI225:
	.cfi_def_cfa_offset 216
	mflr 0
	stw 29,204(1)
	mr 29,5
	.cfi_offset 29, -12
	.cfi_register 65, 0
	stw 30,208(1)
	mr 30,3
	.cfi_offset 30, -8
.LBB3140:
	.loc 5 1621 0
	addi 3,1,88
.LVL800:
.LBE3140:
	.loc 5 1619 0
	stw 0,220(1)
	stw 31,212(1)
	.loc 5 1619 0
	mr 31,4
	.cfi_offset 31, -4
	.cfi_offset 65, 4
.LEHB54:
.LBB3169:
	.loc 5 1621 0
	bl _ZN8idParserC1Ev
.LEHE54:
.LVL801:
.LBB3141:
.LBB3142:
.LBB3143:
.LBB3144:
	.loc 7 357 0
	li 9,20
.LBE3144:
.LBE3143:
.LBE3142:
.LBE3141:
	.loc 5 1623 0
	lis 6,.LC54@ha
	lwz 4,4(29)
	lwz 5,0(29)
.LBB3154:
.LBB3151:
.LBB3148:
.LBB3145:
	.loc 7 356 0
	li 0,0
	.loc 7 357 0
	stw 9,16(1)
.LBE3145:
.LBE3148:
.LBE3151:
.LBE3154:
	.loc 5 1623 0
	addi 3,1,88
.LBB3155:
.LBB3152:
.LBB3149:
.LBB3146:
	.loc 7 358 0
	addi 9,1,20
.LBE3146:
.LBE3149:
.LBE3152:
.LBE3155:
	.loc 5 1623 0
	la 6,.LC54@l(6)
.LBB3156:
.LBB3153:
.LBB3150:
.LBB3147:
	.loc 7 356 0
	stw 0,8(1)
	.loc 7 358 0
	stw 9,12(1)
	.loc 7 359 0
	stb 0,20(1)
.LEHB55:
.LBE3147:
.LBE3150:
.LBE3153:
.LBE3156:
	.loc 5 1623 0
	bl _ZN8idParser10LoadMemoryEPKciS1_
	.loc 5 1625 0
	addi 3,1,88
	.loc 5 2339 0
	lwz 29,1096(30)
.LVL802:
	.loc 5 1625 0
	bl _ZN8idParser10ParseFloatEv
.LBB3157:
.LBB3158:
	.loc 14 589 0
	mulli 31,31,36
.LVL803:
.LBE3158:
.LBE3157:
	.loc 5 1626 0
	addi 3,1,88
	.loc 5 1625 0
	stfsx 1,29,31
	.loc 5 2339 0
	lwz 29,1096(30)
	.loc 5 1626 0
	bl _ZN8idParser10ParseFloatEv
	.loc 5 1626 0 is_stmt 0 discriminator 1
	add 29,29,31
	.loc 5 1628 0 is_stmt 1 discriminator 1
	addi 3,1,88
	.loc 5 1626 0 discriminator 1
	stfs 1,4(29)
	.loc 5 2339 0 discriminator 1
	lwz 29,1096(30)
	.loc 5 1628 0 discriminator 1
	bl _ZN8idParser10ParseFloatEv
	add 29,29,31
	.loc 5 1629 0 discriminator 1
	addi 3,1,88
	.loc 5 1628 0 discriminator 1
	stfs 1,8(29)
	.loc 5 2339 0 discriminator 1
	lwz 29,1096(30)
	.loc 5 1629 0 discriminator 1
	bl _ZN8idParser10ParseFloatEv
	add 29,29,31
	.loc 5 1631 0 discriminator 1
	addi 3,1,88
	.loc 5 1629 0 discriminator 1
	stfs 1,12(29)
	.loc 5 2339 0 discriminator 1
	lwz 29,1096(30)
	.loc 5 1631 0 discriminator 1
	bl _ZN8idParser8ParseIntEv
	add 29,29,31
	stw 3,16(29)
	.loc 5 1632 0 discriminator 1
	addi 3,1,88
	.loc 5 2339 0 discriminator 1
	lwz 29,1096(30)
	.loc 5 1632 0 discriminator 1
	bl _ZN8idParser8ParseIntEv
	add 29,29,31
	stw 3,20(29)
	.loc 5 1634 0 discriminator 1
	addi 3,1,88
	.loc 5 2339 0 discriminator 1
	lwz 29,1096(30)
	.loc 5 1634 0 discriminator 1
	bl _ZN8idParser8ParseIntEv
	add 29,29,31
	stw 3,24(29)
	.loc 5 1635 0 discriminator 1
	addi 3,1,88
	.loc 5 2339 0 discriminator 1
	lwz 29,1096(30)
	.loc 5 1635 0 discriminator 1
	bl _ZN8idParser8ParseIntEv
	add 29,29,31
	stw 3,28(29)
	.loc 5 1636 0 discriminator 1
	addi 3,1,88
	.loc 5 2339 0 discriminator 1
	lwz 30,1096(30)
.LVL804:
	.loc 5 1636 0 discriminator 1
	bl _ZN8idParser8ParseIntEv
.LEHE55:
	add 31,30,31
	stw 3,32(31)
.LVL805:
.LBB3159:
.LBB3160:
.LBB3161:
.LBB3162:
.LBB3163:
	.loc 7 501 0 discriminator 1
	addi 3,1,8
.LEHB56:
	bl _ZN5idStr8FreeDataEv
.LEHE56:
.LBE3163:
.LBE3162:
.LBE3161:
.LBE3160:
.LBE3159:
	.loc 5 1636 0 discriminator 1
	addi 3,1,88
.LEHB57:
	bl _ZN8idParserD1Ev
.LEHE57:
.LBE3169:
	.loc 5 1637 0 discriminator 1
	lwz 0,220(1)
	lwz 29,204(1)
	mtlr 0
	lwz 30,208(1)
	lwz 31,212(1)
	addi 1,1,216
	.cfi_remember_state
.LCFI226:
	.cfi_def_cfa_offset 0
	.cfi_restore 31
	.cfi_restore 30
	.cfi_restore 29
	blr
.LVL806:
.L449:
.LCFI227:
	.cfi_restore_state
	mr 31,3
.LVL807:
.LBB3170:
.LBB3164:
.LBB3165:
.LBB3166:
.LBB3167:
.LBB3168:
	.loc 7 501 0
	addi 3,1,8
	bl _ZN5idStr8FreeDataEv
.LVL808:
.L447:
.LBE3168:
.LBE3167:
.LBE3166:
.LBE3165:
.LBE3164:
	.loc 5 1636 0
	addi 3,1,88
	bl _ZN8idParserD1Ev
	mr 3,31
.LEHB58:
	bl _Unwind_Resume
.LEHE58:
.LVL809:
.L448:
	mr 31,3
	b .L447
.LBE3170:
	.cfi_endproc
.LFE3005:
	.section	.gcc_except_table
.LLSDA3005:
	.byte	0xff
	.byte	0xff
	.byte	0x1
	.uleb128 .LLSDACSE3005-.LLSDACSB3005
.LLSDACSB3005:
	.uleb128 .LEHB54-.LFB3005
	.uleb128 .LEHE54-.LEHB54
	.uleb128 0
	.uleb128 0
	.uleb128 .LEHB55-.LFB3005
	.uleb128 .LEHE55-.LEHB55
	.uleb128 .L449-.LFB3005
	.uleb128 0
	.uleb128 .LEHB56-.LFB3005
	.uleb128 .LEHE56-.LEHB56
	.uleb128 .L448-.LFB3005
	.uleb128 0
	.uleb128 .LEHB57-.LFB3005
	.uleb128 .LEHE57-.LEHB57
	.uleb128 0
	.uleb128 0
	.uleb128 .LEHB58-.LFB3005
	.uleb128 .LEHE58-.LEHB58
	.uleb128 0
	.uleb128 0
.LLSDACSE3005:
	.section	".text"
	.size	_ZN15idGameSSDWindow18ParseAstronautDataEiRK5idStr, .-_ZN15idGameSSDWindow18ParseAstronautDataEiRK5idStr
	.align 2
	.globl _ZN15idGameSSDWindow13ResetEntitiesEv
	.type	_ZN15idGameSSDWindow13ResetEntitiesEv, @function
_ZN15idGameSSDWindow13ResetEntitiesEv:
.LFB3009:
	.loc 5 1700 0
	.cfi_startproc
.LVL810:
	mflr 0
	stwu 1,-16(1)
.LCFI228:
	.cfi_def_cfa_offset 16
	.cfi_register 65, 0
	stw 30,8(1)
	mr 30,3
	.cfi_offset 30, -8
	stw 0,20(1)
	stw 31,12(1)
.LBB3179:
	.loc 5 1702 0
	lwz 0,1204(3)
	.cfi_offset 31, -4
	.cfi_offset 65, 4
	cmpwi 7,0,0
	ble- 7,.L451
	li 31,0
.LVL811:
.L452:
	.loc 5 1703 0 discriminator 2
	lwz 9,1216(30)
	slwi 0,31,2
	.loc 5 1702 0 discriminator 2
	addi 31,31,1
.LVL812:
	.loc 5 1703 0 discriminator 2
	lwzx 3,9,0
	lwz 9,0(3)
	lwz 0,24(9)
	mtctr 0
	bctrl
.LVL813:
	.loc 5 1702 0 discriminator 2
	lwz 0,1204(30)
	cmpw 7,0,31
	bgt+ 7,.L452
.LVL814:
.L451:
.LBE3179:
.LBB3180:
.LBB3181:
	.loc 14 193 0
	lwz 3,1216(30)
	cmpwi 7,3,0
	beq- 7,.L453
	.loc 14 194 0
	bl _ZdaPv
.L453:
	.loc 14 197 0
	li 0,0
	stw 0,1216(30)
	.loc 14 198 0
	stw 0,1204(30)
	.loc 14 199 0
	stw 0,1208(30)
.LBE3181:
.LBE3180:
	.loc 5 1706 0
	lwz 0,20(1)
	lwz 30,8(1)
.LVL815:
	mtlr 0
	lwz 31,12(1)
	addi 1,1,16
.LCFI229:
	.cfi_def_cfa_offset 0
	.cfi_restore 31
	.cfi_restore 30
	blr
	.cfi_endproc
.LFE3009:
	.size	_ZN15idGameSSDWindow13ResetEntitiesEv, .-_ZN15idGameSSDWindow13ResetEntitiesEv
	.align 2
	.globl _ZN15idGameSSDWindow15ResetLevelStatsEv
	.type	_ZN15idGameSSDWindow15ResetLevelStatsEv, @function
_ZN15idGameSSDWindow15ResetLevelStatsEv:
.LFB3008:
	.loc 5 1690 0
	.cfi_startproc
.LVL816:
	stwu 1,-16(1)
.LCFI230:
	.cfi_def_cfa_offset 16
	mflr 0
	stw 31,12(1)
	mr 31,3
	.cfi_offset 31, -4
	.cfi_register 65, 0
	stw 0,20(1)
	.loc 5 1692 0
	.cfi_offset 65, 4
	bl _ZN15idGameSSDWindow13ResetEntitiesEv
.LVL817:
	.loc 5 1695 0
	addi 3,31,1168
	li 4,0
	li 5,36
	bl memset
	.loc 5 1698 0
	lwz 0,20(1)
	lwz 31,12(1)
.LVL818:
	mtlr 0
	addi 1,1,16
.LCFI231:
	.cfi_def_cfa_offset 0
	.cfi_restore 31
	blr
	.cfi_endproc
.LFE3008:
	.size	_ZN15idGameSSDWindow15ResetLevelStatsEv, .-_ZN15idGameSSDWindow15ResetLevelStatsEv
	.align 2
	.globl _ZN15idGameSSDWindow14ResetGameStatsEv
	.type	_ZN15idGameSSDWindow14ResetGameStatsEv, @function
_ZN15idGameSSDWindow14ResetGameStatsEv:
.LFB3007:
	.loc 5 1679 0
	.cfi_startproc
.LVL819:
	stwu 1,-16(1)
.LCFI232:
	.cfi_def_cfa_offset 16
	mflr 0
	stw 31,12(1)
	mr 31,3
	.cfi_offset 31, -4
	.cfi_register 65, 0
	stw 0,20(1)
	.loc 5 1681 0
	.cfi_offset 65, 4
	bl _ZN15idGameSSDWindow13ResetEntitiesEv
.LVL820:
	.loc 5 1684 0
	addi 3,31,1140
	li 4,0
	li 5,64
	bl memset
	.loc 5 1686 0
	li 0,100
	stw 0,1152(31)
	.loc 5 1688 0
	lwz 0,20(1)
	lwz 31,12(1)
.LVL821:
	mtlr 0
	addi 1,1,16
.LCFI233:
	.cfi_def_cfa_offset 0
	.cfi_restore 31
	blr
	.cfi_endproc
.LFE3007:
	.size	_ZN15idGameSSDWindow14ResetGameStatsEv, .-_ZN15idGameSSDWindow14ResetGameStatsEv
	.align 2
	.globl _ZN15idGameSSDWindow10CommonInitEv
	.type	_ZN15idGameSSDWindow10CommonInitEv, @function
_ZN15idGameSSDWindow10CommonInitEv:
.LFB3006:
	.loc 5 1639 0
	.cfi_startproc
.LVL822:
	stwu 1,-24(1)
.LCFI234:
	.cfi_def_cfa_offset 24
	mflr 0
	stw 30,16(1)
	mr 30,3
	.cfi_offset 30, -8
	.cfi_register 65, 0
.LBB3246:
	.loc 5 1640 0
	addi 3,3,1000
.LVL823:
.LBE3246:
	.loc 5 1639 0
	stw 0,28(1)
	stw 29,12(1)
	stw 28,8(1)
	stw 31,20(1)
.LBB3382:
	.loc 5 1640 0
	.cfi_offset 31, -4
	.cfi_offset 28, -16
	.cfi_offset 29, -12
	.cfi_offset 65, 4
	bl _ZN12SSDCrossHair14InitCrosshairsEv
.LVL824:
.LBB3247:
.LBB3248:
	.loc 2 115 0
	lwz 29,940(30)
	.loc 2 114 0
	li 0,0
	stb 0,949(30)
	.loc 2 115 0
	cmpwi 7,29,0
	beq- 7,.L458
.LBE3248:
	.loc 5 2339 0
	lwz 31,944(30)
.LBB3269:
.LBB3249:
.LBB3250:
	.loc 2 53 0
	cmpwi 7,31,0
	beq- 7,.L471
	.loc 2 54 0
	lbz 0,0(31)
	li 4,0
	cmpwi 7,0,42
	beq- 7,.L484
.L459:
.LVL825:
.LBE3250:
.LBE3249:
.LBB3264:
.LBB3265:
	.loc 8 197 0
	lis 3,.LC6@ha
	la 3,.LC6@l(3)
	crxor 6,6,6
	bl _Z2vaPKcz
	mr 4,31
	mr 5,3
	mr 3,29
	bl _ZN6idDict3SetEPKcS1_
.LVL826:
.L458:
.LBE3265:
.LBE3264:
.LBE3269:
.LBE3247:
.LBB3273:
.LBB3274:
	.loc 2 115 0
	lwz 29,956(30)
	.loc 2 114 0
	li 0,0
	stb 0,965(30)
	.loc 2 115 0
	cmpwi 7,29,0
	beq- 7,.L461
.LBE3274:
	.loc 5 2339 0
	lwz 31,960(30)
.LBB3295:
.LBB3275:
.LBB3276:
	.loc 2 53 0
	cmpwi 7,31,0
	beq- 7,.L474
	.loc 2 54 0
	lbz 0,0(31)
	li 4,0
	cmpwi 7,0,42
	beq- 7,.L485
.L462:
.LVL827:
.LBE3276:
.LBE3275:
.LBB3290:
.LBB3291:
	.loc 8 197 0
	lis 3,.LC6@ha
	la 3,.LC6@l(3)
	crxor 6,6,6
	bl _Z2vaPKcz
	mr 4,31
	mr 5,3
	mr 3,29
	bl _ZN6idDict3SetEPKcS1_
.LVL828:
.L461:
.LBE3291:
.LBE3290:
.LBE3295:
.LBE3273:
.LBB3299:
.LBB3300:
	.loc 2 115 0
	lwz 29,972(30)
	.loc 2 114 0
	li 0,0
	stb 0,981(30)
	.loc 2 115 0
	cmpwi 7,29,0
	beq- 7,.L464
.LBE3300:
	.loc 5 2339 0
	lwz 31,976(30)
.LBB3321:
.LBB3301:
.LBB3302:
	.loc 2 53 0
	cmpwi 7,31,0
	beq- 7,.L477
	.loc 2 54 0
	lbz 0,0(31)
	li 4,0
	cmpwi 7,0,42
	beq- 7,.L486
.L465:
.LVL829:
.LBE3302:
.LBE3301:
.LBB3316:
.LBB3317:
	.loc 8 197 0
	lis 3,.LC6@ha
	la 3,.LC6@l(3)
	crxor 6,6,6
	bl _Z2vaPKcz
	mr 4,31
	mr 5,3
	mr 3,29
	bl _ZN6idDict3SetEPKcS1_
.LVL830:
.L464:
.LBE3317:
.LBE3316:
.LBE3321:
.LBE3299:
.LBB3325:
.LBB3326:
	.loc 2 115 0
	lwz 29,988(30)
	.loc 2 114 0
	li 0,0
	stb 0,997(30)
	.loc 2 115 0
	cmpwi 7,29,0
	beq- 7,.L467
.LBE3326:
	.loc 5 2339 0
	lwz 31,992(30)
.LBB3345:
.LBB3327:
.LBB3328:
	.loc 2 53 0
	cmpwi 7,31,0
	beq- 7,.L480
	.loc 2 54 0
	lbz 0,0(31)
	li 4,0
	cmpwi 7,0,42
	beq- 7,.L487
.L468:
.LVL831:
.LBE3328:
.LBE3327:
.LBB3341:
.LBB3342:
	.loc 8 197 0
	lis 3,.LC6@ha
	la 3,.LC6@l(3)
	crxor 6,6,6
	bl _Z2vaPKcz
	mr 4,31
	mr 5,3
	mr 3,29
	bl _ZN6idDict3SetEPKcS1_
.LVL832:
.L467:
.LBE3342:
.LBE3341:
.LBE3345:
.LBE3325:
.LBB3348:
.LBB3349:
.LBB3350:
	.loc 6 424 0
	lis 11,.LC55@ha
.LBE3350:
.LBE3349:
.LBE3348:
	.loc 5 1658 0
	lis 31,declManager@ha
.LBB3363:
.LBB3357:
.LBB3351:
	.loc 6 424 0
	lwz 11,.LC55@l(11)
.LBE3351:
.LBE3357:
.LBE3363:
	.loc 5 1648 0
	li 0,0
.LBB3364:
.LBB3358:
.LBB3352:
	.loc 6 426 0
	li 9,0
.LBE3352:
.LBE3358:
.LBE3364:
	.loc 5 1658 0
	lwz 3,declManager@l(31)
.LBB3365:
.LBB3359:
.LBB3353:
	.loc 6 424 0
	stw 11,1024(30)
	.loc 6 425 0
	lis 11,.LC56@ha
	lwz 11,.LC56@l(11)
.LBE3353:
.LBE3359:
.LBE3365:
	.loc 5 1658 0
	lis 4,.LC32@ha
	.loc 5 1648 0
	stw 0,932(30)
	.loc 5 1658 0
	la 4,.LC32@l(4)
.LBB3366:
.LBB3360:
.LBB3354:
	.loc 6 425 0
	stw 11,1028(30)
	.loc 6 424 0
	lis 11,.LC22@ha
	lwz 11,.LC22@l(11)
.LBE3354:
.LBE3360:
.LBE3366:
	.loc 5 1658 0
	li 5,1
	.loc 5 1649 0
	stw 0,1048(30)
	.loc 5 1658 0
	li 6,0
.LBB3367:
.LBB3361:
.LBB3355:
	.loc 6 424 0
	stw 11,1036(30)
	.loc 6 425 0
	lis 11,.LC29@ha
	lwz 11,.LC29@l(11)
	la 29,declManager@l(31)
.LBE3355:
.LBE3361:
.LBE3367:
	.loc 5 1650 0
	stw 0,1116(30)
.LVL833:
.LBB3368:
.LBB3362:
.LBB3356:
	.loc 6 425 0
	stw 11,1040(30)
	.loc 6 426 0
	stw 9,1032(30)
.LVL834:
	stw 9,1044(30)
.LBE3356:
.LBE3362:
.LBE3368:
	.loc 5 1653 0
	stw 0,1136(30)
	.loc 5 1655 0
	stw 0,1220(30)
	.loc 5 1658 0
	lwz 9,0(3)
	lwz 0,104(9)
	mtctr 0
	bctrl
	.loc 5 1659 0
	lwz 3,declManager@l(31)
	lis 4,.LC35@ha
	li 5,1
	lwz 9,0(3)
	la 4,.LC35@l(4)
	li 6,0
	lwz 0,104(9)
	mtctr 0
	bctrl
.LVL835:
.LBB3369:
	.loc 5 1662 0
	lwz 3,declManager@l(31)
	lis 9,explosionMaterials@ha
	li 5,1
	lwz 11,0(3)
	li 6,0
	lwz 4,explosionMaterials@l(9)
	la 28,explosionMaterials@l(9)
	lwz 0,104(11)
	mtctr 0
	bctrl
.LVL836:
	lwz 3,declManager@l(31)
	lwz 4,4(28)
	li 5,1
	lwz 9,0(3)
	li 6,0
	lwz 0,104(9)
	mtctr 0
	bctrl
.LVL837:
.LBE3369:
	.loc 5 1664 0
	lwz 3,declManager@l(31)
	lis 4,.LC43@ha
	li 5,1
	lwz 9,0(3)
	la 4,.LC43@l(4)
	li 6,0
	lis 31,.LANCHOR1@ha
	lwz 0,104(9)
	la 31,.LANCHOR1@l(31)
	.loc 5 1639 0
	addi 28,31,48
	.loc 5 1664 0
	mtctr 0
	bctrl
.LVL838:
.L470:
.LBB3370:
	.loc 5 1666 0 discriminator 2
	lwz 3,0(29)
	li 5,1
	lwz 4,0(31)
	li 6,0
	lwz 9,0(3)
	lwz 0,104(9)
	mtctr 0
	bctrl
	.loc 5 1667 0 discriminator 2
	lwz 3,0(29)
	lwz 4,4(31)
	li 5,1
	lwz 9,0(3)
	li 6,0
	addi 31,31,8
	lwz 0,104(9)
	mtctr 0
	bctrl
	.loc 5 1665 0 discriminator 2
	cmpw 7,31,28
	bne+ 7,.L470
.LBE3370:
.LBE3382:
	.loc 5 1677 0
	lwz 0,28(1)
.LBB3383:
	.loc 5 1676 0
	mr 3,30
.LBE3383:
	.loc 5 1677 0
	lwz 28,8(1)
	lwz 29,12(1)
	mtlr 0
	lwz 30,16(1)
.LVL839:
	lwz 31,20(1)
	addi 1,1,24
	.cfi_remember_state
.LCFI235:
	.cfi_def_cfa_offset 0
	.cfi_restore 31
	.cfi_restore 30
	.cfi_restore 29
	.cfi_restore 28
.LBB3384:
	.loc 5 1676 0
	b _ZN15idGameSSDWindow14ResetGameStatsEv
.LVL840:
.L471:
.LCFI236:
	.cfi_restore_state
.LBB3371:
.LBB3270:
.LBB3266:
.LBB3261:
	.loc 2 59 0
	lis 31,.LC12@ha
	.loc 2 53 0
	li 4,0
	.loc 2 59 0
	la 31,.LC12@l(31)
	b .L459
.LVL841:
.L474:
.LBE3261:
.LBE3266:
.LBE3270:
.LBE3371:
.LBB3372:
.LBB3296:
.LBB3292:
.LBB3287:
	lis 31,.LC12@ha
	.loc 2 53 0
	li 4,0
	.loc 2 59 0
	la 31,.LC12@l(31)
	b .L462
.LVL842:
.L477:
.LBE3287:
.LBE3292:
.LBE3296:
.LBE3372:
.LBB3373:
.LBB3322:
.LBB3318:
.LBB3313:
	lis 31,.LC12@ha
	.loc 2 53 0
	li 4,0
	.loc 2 59 0
	la 31,.LC12@l(31)
	b .L465
.LVL843:
.L480:
.LBE3313:
.LBE3318:
.LBE3322:
.LBE3373:
.LBB3374:
.LBB3346:
.LBB3343:
.LBB3339:
	lis 31,.LC12@ha
	.loc 2 53 0
	li 4,0
	.loc 2 59 0
	la 31,.LC12@l(31)
	b .L468
.L487:
.LVL844:
.LBB3329:
.LBB3330:
.LBB3331:
.LBB3332:
	.loc 8 241 0
	mr 3,29
	addi 4,31,1
	bl _ZNK6idDict7FindKeyEPKc
.LVL845:
	.loc 8 242 0
	cmpwi 0,3,0
	beq- 0,.L482
.LVL846:
.LBB3333:
	.loc 5 2339 0
	lwz 9,4(3)
	lbz 4,997(30)
	lwz 31,4(9)
.LVL847:
	b .L468
.LVL848:
.L484:
.LBE3333:
.LBE3332:
.LBE3331:
.LBE3330:
.LBE3329:
.LBE3339:
.LBE3343:
.LBE3346:
.LBE3374:
.LBB3375:
.LBB3271:
.LBB3267:
.LBB3262:
.LBB3251:
.LBB3252:
.LBB3253:
.LBB3254:
	.loc 8 241 0
	mr 3,29
	addi 4,31,1
	bl _ZNK6idDict7FindKeyEPKc
.LVL849:
	.loc 8 242 0
	cmpwi 0,3,0
	beq- 0,.L473
.LVL850:
.LBB3255:
	.loc 5 2339 0
	lwz 9,4(3)
	lbz 4,949(30)
	lwz 31,4(9)
.LVL851:
	b .L459
.LVL852:
.L486:
.LBE3255:
.LBE3254:
.LBE3253:
.LBE3252:
.LBE3251:
.LBE3262:
.LBE3267:
.LBE3271:
.LBE3375:
.LBB3376:
.LBB3323:
.LBB3319:
.LBB3314:
.LBB3303:
.LBB3304:
.LBB3305:
.LBB3306:
	.loc 8 241 0
	mr 3,29
	addi 4,31,1
	bl _ZNK6idDict7FindKeyEPKc
.LVL853:
	.loc 8 242 0
	cmpwi 0,3,0
	beq- 0,.L479
.LVL854:
.LBB3307:
	.loc 5 2339 0
	lwz 9,4(3)
	lbz 4,981(30)
	lwz 31,4(9)
.LVL855:
	b .L465
.LVL856:
.L485:
.LBE3307:
.LBE3306:
.LBE3305:
.LBE3304:
.LBE3303:
.LBE3314:
.LBE3319:
.LBE3323:
.LBE3376:
.LBB3377:
.LBB3297:
.LBB3293:
.LBB3288:
.LBB3277:
.LBB3278:
.LBB3279:
.LBB3280:
	.loc 8 241 0
	mr 3,29
	addi 4,31,1
	bl _ZNK6idDict7FindKeyEPKc
.LVL857:
	.loc 8 242 0
	cmpwi 0,3,0
	beq- 0,.L476
.LVL858:
.LBB3281:
	.loc 5 2339 0
	lwz 9,4(3)
	lbz 4,965(30)
	lwz 31,4(9)
.LVL859:
	b .L462
.LVL860:
.L482:
.LBE3281:
.LBE3280:
.LBE3279:
.LBE3278:
.LBE3277:
.LBE3288:
.LBE3293:
.LBE3297:
.LBE3377:
.LBB3378:
.LBB3347:
.LBB3344:
.LBB3340:
.LBB3338:
.LBB3337:
.LBB3336:
.LBB3335:
	.loc 8 245 0
	lis 31,.LC12@ha
.LVL861:
.LBB3334:
	.loc 5 2339 0
	lbz 4,997(30)
.LBE3334:
	.loc 8 245 0
	la 31,.LC12@l(31)
	b .L468
.LVL862:
.L476:
.LBE3335:
.LBE3336:
.LBE3337:
.LBE3338:
.LBE3340:
.LBE3344:
.LBE3347:
.LBE3378:
.LBB3379:
.LBB3298:
.LBB3294:
.LBB3289:
.LBB3286:
.LBB3285:
.LBB3284:
.LBB3283:
	lis 31,.LC12@ha
.LVL863:
.LBB3282:
	.loc 5 2339 0
	lbz 4,965(30)
.LBE3282:
	.loc 8 245 0
	la 31,.LC12@l(31)
	b .L462
.LVL864:
.L479:
.LBE3283:
.LBE3284:
.LBE3285:
.LBE3286:
.LBE3289:
.LBE3294:
.LBE3298:
.LBE3379:
.LBB3380:
.LBB3324:
.LBB3320:
.LBB3315:
.LBB3312:
.LBB3311:
.LBB3310:
.LBB3309:
	lis 31,.LC12@ha
.LVL865:
.LBB3308:
	.loc 5 2339 0
	lbz 4,981(30)
.LBE3308:
	.loc 8 245 0
	la 31,.LC12@l(31)
	b .L465
.LVL866:
.L473:
.LBE3309:
.LBE3310:
.LBE3311:
.LBE3312:
.LBE3315:
.LBE3320:
.LBE3324:
.LBE3380:
.LBB3381:
.LBB3272:
.LBB3268:
.LBB3263:
.LBB3260:
.LBB3259:
.LBB3258:
.LBB3257:
	lis 31,.LC12@ha
.LVL867:
.LBB3256:
	.loc 5 2339 0
	lbz 4,949(30)
.LBE3256:
	.loc 8 245 0
	la 31,.LC12@l(31)
	b .L459
.LBE3257:
.LBE3258:
.LBE3259:
.LBE3260:
.LBE3263:
.LBE3268:
.LBE3272:
.LBE3381:
.LBE3384:
	.cfi_endproc
.LFE3006:
	.size	_ZN15idGameSSDWindow10CommonInitEv, .-_ZN15idGameSSDWindow10CommonInitEv
	.align 2
	.globl _ZN15idGameSSDWindow9StartGameEv
	.type	_ZN15idGameSSDWindow9StartGameEv, @function
_ZN15idGameSSDWindow9StartGameEv:
.LFB3010:
	.loc 5 1708 0
	.cfi_startproc
.LVL868:
	.loc 5 1710 0
	li 0,1
	stb 0,1140(3)
	.loc 5 1711 0
	blr
	.cfi_endproc
.LFE3010:
	.size	_ZN15idGameSSDWindow9StartGameEv, .-_ZN15idGameSSDWindow9StartGameEv
	.align 2
	.globl _ZN15idGameSSDWindow8StopGameEv
	.type	_ZN15idGameSSDWindow8StopGameEv, @function
_ZN15idGameSSDWindow8StopGameEv:
.LFB3011:
	.loc 5 1713 0
	.cfi_startproc
.LVL869:
	.loc 5 1715 0
	li 0,0
	.loc 5 1716 0
	.loc 5 1715 0
	stb 0,1140(3)
	.loc 5 1716 0
	blr
	.cfi_endproc
.LFE3011:
	.size	_ZN15idGameSSDWindow8StopGameEv, .-_ZN15idGameSSDWindow8StopGameEv
	.align 2
	.globl _ZN15idGameSSDWindow8GameOverEv
	.type	_ZN15idGameSSDWindow8GameOverEv, @function
_ZN15idGameSSDWindow8GameOverEv:
.LFB3012:
	.loc 5 1718 0
	.cfi_startproc
.LVL870:
	mflr 0
	stwu 1,-8(1)
.LCFI237:
	.cfi_def_cfa_offset 8
	.cfi_register 65, 0
	.loc 5 1723 0
	lis 4,.LC57@ha
	la 4,.LC57@l(4)
	.loc 5 1718 0
	stw 0,12(1)
.LBB3385:
.LBB3386:
	.loc 5 1715 0
	li 0,0
	.cfi_offset 65, 4
	stb 0,1140(3)
.LBE3386:
.LBE3385:
	.loc 5 1723 0
	lwz 3,732(3)
.LVL871:
	lwz 9,0(3)
	lwz 0,36(9)
	mtctr 0
	bctrl
	.loc 5 1724 0
	lwz 0,12(1)
	addi 1,1,8
.LCFI238:
	.cfi_def_cfa_offset 0
	mtlr 0
	blr
	.cfi_endproc
.LFE3012:
	.size	_ZN15idGameSSDWindow8GameOverEv, .-_ZN15idGameSSDWindow8GameOverEv
	.align 2
	.globl _ZN15idGameSSDWindow10BeginLevelEi
	.type	_ZN15idGameSSDWindow10BeginLevelEi, @function
_ZN15idGameSSDWindow10BeginLevelEi:
.LFB3013:
	.loc 5 1726 0
	.cfi_startproc
.LVL872:
	mflr 0
	stwu 1,-16(1)
.LCFI239:
	.cfi_def_cfa_offset 16
	.cfi_register 65, 0
	stw 30,8(1)
	mr 30,4
	.cfi_offset 30, -8
	stw 0,20(1)
	stw 31,12(1)
	.loc 5 1726 0
	mr 31,3
	.cfi_offset 31, -4
	.cfi_offset 65, 4
	.loc 5 1728 0
	bl _ZN15idGameSSDWindow15ResetLevelStatsEv
.LVL873:
.LBB3387:
.LBB3388:
	.loc 5 1710 0
	li 0,1
.LBE3388:
.LBE3387:
	.loc 5 1730 0
	stw 30,1160(31)
.LVL874:
.LBB3390:
.LBB3389:
	.loc 5 1710 0
	stb 0,1140(31)
.LBE3389:
.LBE3390:
	.loc 5 1733 0
	lwz 0,20(1)
	lwz 30,8(1)
.LVL875:
	mtlr 0
	lwz 31,12(1)
.LVL876:
	addi 1,1,16
.LCFI240:
	.cfi_def_cfa_offset 0
	.cfi_restore 31
	.cfi_restore 30
	blr
	.cfi_endproc
.LFE3013:
	.size	_ZN15idGameSSDWindow10BeginLevelEi, .-_ZN15idGameSSDWindow10BeginLevelEi
	.align 2
	.globl _ZN15idGameSSDWindow12ContinueGameEv
	.type	_ZN15idGameSSDWindow12ContinueGameEv, @function
_ZN15idGameSSDWindow12ContinueGameEv:
.LFB3014:
	.loc 5 1738 0
	.cfi_startproc
.LVL877:
	.loc 5 1739 0
	li 0,100
	.loc 5 1742 0
	.loc 5 1739 0
	stw 0,1152(3)
.LVL878:
.LBB3391:
.LBB3392:
	.loc 5 1710 0
	li 0,1
	stb 0,1140(3)
.LBE3392:
.LBE3391:
	.loc 5 1742 0
	blr
	.cfi_endproc
.LFE3014:
	.size	_ZN15idGameSSDWindow12ContinueGameEv, .-_ZN15idGameSSDWindow12ContinueGameEv
	.align 2
	.globl _ZN15idGameSSDWindow13LevelCompleteEv
	.type	_ZN15idGameSSDWindow13LevelCompleteEv, @function
_ZN15idGameSSDWindow13LevelCompleteEv:
.LFB3015:
	.loc 5 1744 0
	.cfi_startproc
.LVL879:
	mflr 0
	stwu 1,-72(1)
.LCFI241:
	.cfi_def_cfa_offset 72
	.cfi_register 65, 0
	stw 30,64(1)
.LBB3393:
	.loc 5 1750 0
	li 30,0
	.cfi_offset 30, -8
.LBE3393:
	.loc 5 1744 0
	stw 31,68(1)
	mr 31,3
	.cfi_offset 31, -4
	stw 0,76(1)
	stw 27,52(1)
	stw 28,56(1)
	stw 29,60(1)
.LBB3414:
	.loc 5 1750 0
	lwz 0,1168(3)
	.cfi_offset 29, -12
	.cfi_offset 28, -16
	.cfi_offset 27, -20
	.cfi_offset 65, 4
	.loc 5 1746 0
	lwz 9,1144(3)
	.loc 5 1750 0
	cmpwi 7,0,0
	.loc 5 1746 0
	stw 9,1148(3)
	.loc 5 1750 0
	beq- 7,.L494
.LVL880:
	.loc 5 1753 0
	lwz 11,1172(3)
	lis 9,0x4330
	xoris 0,0,0x8000
	stw 9,8(1)
	xoris 11,11,0x8000
	stw 0,20(1)
	stw 9,16(1)
	lis 9,.LC3@ha
	stw 11,12(1)
	lfs 0,.LC3@l(9)
	lis 9,.LC27@ha
	lfd 13,8(1)
	lfd 12,16(1)
	fsub 13,13,0
	fsub 0,12,0
	frsp 13,13
	frsp 0,0
	fdivs 0,13,0
	lfs 13,.LC27@l(9)
	addi 9,1,44
	fmuls 0,0,13
	fctiwz 0,0
	stfiwx 0,0,9
	lwz 0,44(1)
.LVL881:
.LBB3394:
.LBB3395:
	.loc 12 158 0
	addic. 0,0,-50
	blt- 0,.L494
	mulli 30,0,20
.LVL882:
.L494:
.LBE3395:
.LBE3394:
	.loc 5 1757 0
	lwz 27,732(31)
	lis 29,.LC6@ha
	la 29,.LC6@l(29)
	mr 4,30
	lwz 9,0(27)
	mr 3,29
.LVL883:
	lwz 28,56(9)
	crxor 6,6,6
	bl _Z2vaPKcz
	lis 4,.LC58@ha
	mr 5,3
	la 4,.LC58@l(4)
	mr 3,27
	mtctr 28
	bctrl
	.loc 5 1762 0
	lwz 0,1188(31)
	lwz 9,1184(31)
.LVL884:
	.loc 5 1759 0
	lwz 11,1144(31)
	.loc 5 1763 0
	add. 9,0,9
	.loc 5 1759 0
	add 30,11,30
.LVL885:
	stw 30,1144(31)
	.loc 5 1763 0
	li 30,0
	beq- 0,.L495
.LVL886:
	.loc 5 1766 0
	lis 11,0x4330
	xoris 0,0,0x8000
	xoris 9,9,0x8000
	stw 0,28(1)
	stw 9,36(1)
	lis 9,.LC3@ha
	stw 11,24(1)
	stw 11,32(1)
	lfs 0,.LC3@l(9)
	lis 9,.LC27@ha
	lfd 13,24(1)
	lfd 12,32(1)
	fsub 13,13,0
	fsub 0,12,0
	frsp 13,13
	frsp 0,0
	fdivs 0,13,0
	lfs 13,.LC27@l(9)
	addi 9,1,40
	fmuls 0,0,13
	fctiwz 0,0
	stfiwx 0,0,9
	lwz 0,40(1)
.LVL887:
.LBB3396:
.LBB3397:
	.loc 12 158 0
	addic. 0,0,-50
	blt- 0,.L495
	mulli 30,0,20
.LVL888:
.L495:
.LBE3397:
.LBE3396:
	.loc 5 1770 0
	lwz 28,732(31)
	mr 4,30
	mr 3,29
	lwz 9,0(28)
	lwz 29,56(9)
	crxor 6,6,6
	bl _Z2vaPKcz
.LVL889:
	lis 4,.LC59@ha
	mr 5,3
	la 4,.LC59@l(4)
	mr 3,28
	mtctr 29
	bctrl
	.loc 5 1772 0
	lwz 0,1144(31)
.LBB3398:
.LBB3399:
	.loc 5 2298 0
	lwz 3,732(31)
	lis 4,.LC60@ha
.LBE3399:
.LBE3398:
	.loc 5 1772 0
	add 30,0,30
.LVL890:
.LBB3403:
.LBB3400:
	.loc 5 2298 0
	la 4,.LC60@l(4)
.LBE3400:
.LBE3403:
	.loc 5 1772 0
	stw 30,1144(31)
.LVL891:
.LBB3404:
.LBB3401:
	.loc 5 2298 0
	lwz 9,0(3)
	lwz 0,36(9)
	mtctr 0
	bctrl
.LBE3401:
.LBE3404:
	.loc 5 1778 0
	lwz 9,1164(31)
	.loc 5 1780 0
	lwz 0,1048(31)
	.loc 5 1778 0
	addi 9,9,1
.LBB3405:
.LBB3406:
	.loc 5 1795 0
	lwz 3,732(31)
.LBE3406:
.LBE3405:
	.loc 5 1780 0
	cmpw 7,9,0
.LBB3411:
.LBB3402:
	.loc 5 2299 0
	li 0,0
	stw 0,1156(31)
	.loc 5 2300 0
	stw 0,1136(31)
.LBE3402:
.LBE3411:
	.loc 5 1778 0
	stw 9,1164(31)
.LBB3412:
.LBB3409:
.LBB3407:
.LBB3408:
	.loc 5 1715 0
	stb 0,1140(31)
.LBE3408:
.LBE3407:
	.loc 5 1795 0
	lwz 9,0(3)
	lwz 0,36(9)
.LBE3409:
.LBE3412:
	.loc 5 1780 0
	bge- 7,.L502
	.loc 5 1789 0
	lis 4,.LC62@ha
	mtctr 0
	la 4,.LC62@l(4)
	bctrl
.LBE3414:
	.loc 5 1791 0
	lwz 0,76(1)
	lwz 27,52(1)
	mtlr 0
	lwz 28,56(1)
	lwz 29,60(1)
	lwz 30,64(1)
	lwz 31,68(1)
.LVL892:
	addi 1,1,72
	.cfi_remember_state
.LCFI242:
	.cfi_def_cfa_offset 0
	.cfi_restore 31
	.cfi_restore 30
	.cfi_restore 29
	.cfi_restore 28
	.cfi_restore 27
	blr
.LVL893:
.L502:
.LCFI243:
	.cfi_restore_state
.LBB3415:
.LBB3413:
.LBB3410:
	.loc 5 1795 0
	lis 4,.LC61@ha
	mtctr 0
	la 4,.LC61@l(4)
	bctrl
.LBE3410:
.LBE3413:
.LBE3415:
	.loc 5 1791 0
	lwz 0,76(1)
	lwz 27,52(1)
	mtlr 0
	lwz 28,56(1)
	lwz 29,60(1)
	lwz 30,64(1)
	lwz 31,68(1)
.LVL894:
	addi 1,1,72
	.cfi_restore 27
	.cfi_restore 28
	.cfi_restore 29
	.cfi_restore 30
	.cfi_restore 31
.LCFI244:
	.cfi_def_cfa_offset 0
	blr
	.cfi_endproc
.LFE3015:
	.size	_ZN15idGameSSDWindow13LevelCompleteEv, .-_ZN15idGameSSDWindow13LevelCompleteEv
	.align 2
	.globl _ZN15idGameSSDWindow12GameCompleteEv
	.type	_ZN15idGameSSDWindow12GameCompleteEv, @function
_ZN15idGameSSDWindow12GameCompleteEv:
.LFB3016:
	.loc 5 1793 0
	.cfi_startproc
.LVL895:
	mflr 0
	stwu 1,-8(1)
.LCFI245:
	.cfi_def_cfa_offset 8
	.cfi_register 65, 0
	.loc 5 1795 0
	lis 4,.LC61@ha
	la 4,.LC61@l(4)
	.loc 5 1793 0
	stw 0,12(1)
.LBB3416:
.LBB3417:
	.loc 5 1715 0
	li 0,0
	.cfi_offset 65, 4
	stb 0,1140(3)
.LBE3417:
.LBE3416:
	.loc 5 1795 0
	lwz 3,732(3)
.LVL896:
	lwz 9,0(3)
	lwz 0,36(9)
	mtctr 0
	bctrl
	.loc 5 1796 0
	lwz 0,12(1)
	addi 1,1,8
.LCFI246:
	.cfi_def_cfa_offset 0
	mtlr 0
	blr
	.cfi_endproc
.LFE3016:
	.size	_ZN15idGameSSDWindow12GameCompleteEv, .-_ZN15idGameSSDWindow12GameCompleteEv
	.align 2
	.globl _ZN15idGameSSDWindow14ZOrderEntitiesEv
	.type	_ZN15idGameSSDWindow14ZOrderEntitiesEv, @function
_ZN15idGameSSDWindow14ZOrderEntitiesEv:
.LFB3019:
	.loc 5 1897 0
	.cfi_startproc
.LVL897:
.LBB3418:
	.loc 5 1900 0
	lwz 6,1204(3)
.LVL898:
	addic. 6,6,-1
	bltlr- 0
.LVL899:
.LBB3419:
.LBB3420:
	.loc 5 1902 0 discriminator 1
	beq- 0,.L516
.LVL900:
.L511:
.LBB3421:
.LBB3422:
	.loc 5 1907 0
	mtctr 6
.LBE3422:
.LBE3421:
	.loc 5 1902 0
	li 11,0
	li 7,0
	li 0,0
.LVL901:
.L509:
.LBE3420:
.LBE3419:
	.loc 5 2339 0
	lwz 9,1216(3)
.LVL902:
.LBB3429:
.LBB3427:
.LBB3426:
	.loc 5 1903 0
	addi 11,11,1
.LVL903:
	lwzx 10,9,0
.LBB3423:
.LBB3424:
	.loc 14 589 0
	add 8,9,0
.LBE3424:
.LBE3423:
	.loc 5 1897 0
	slwi 0,11,2
	.loc 5 1903 0
	lwzx 9,9,0
	lfs 13,56(10)
	lfs 0,56(9)
	fcmpu 7,13,0
	bng- 7,.L507
.LVL904:
.LBB3425:
	.loc 5 1905 0
	stw 9,0(8)
.LVL905:
	.loc 5 1907 0
	li 7,1
	.loc 5 1906 0
	lwz 9,1216(3)
	stwx 10,9,0
.LVL906:
.L507:
.LBE3425:
.LBE3426:
	.loc 5 1902 0
	bdnz .L509
.LBE3427:
	.loc 5 1910 0
	cmpwi 7,7,0
	beqlr- 7
.LVL907:
.LBE3429:
	.loc 5 1900 0
	cmpwi 7,6,0
	addi 6,6,-1
.LVL908:
	beqlr- 7
	cmpwi 0,6,0
.LVL909:
.LBB3430:
.LBB3428:
	.loc 5 1902 0
	bne+ 0,.L511
.LVL910:
.L516:
	blr
.LBE3428:
.LBE3430:
.LBE3418:
	.cfi_endproc
.LFE3019:
	.size	_ZN15idGameSSDWindow14ZOrderEntitiesEv, .-_ZN15idGameSSDWindow14ZOrderEntitiesEv
	.align 2
	.globl _ZN15idGameSSDWindow13EntityHitTestERK6idVec2
	.type	_ZN15idGameSSDWindow13EntityHitTestERK6idVec2, @function
_ZN15idGameSSDWindow13EntityHitTestERK6idVec2:
.LFB3022:
	.loc 5 2001 0
	.cfi_startproc
.LVL911:
	mflr 0
	stwu 1,-32(1)
.LCFI247:
	.cfi_def_cfa_offset 32
	.cfi_register 65, 0
	stw 28,16(1)
	mr 28,4
	.cfi_offset 28, -16
	stw 30,24(1)
.LBB3431:
	.loc 5 2010 0
	li 30,0
	.cfi_offset 30, -8
.LBE3431:
	.loc 5 2001 0
	stw 0,36(1)
	stw 27,12(1)
	stw 29,20(1)
	stw 31,28(1)
.LBB3432:
	.loc 5 2339 0
	lwz 29,1204(3)
	.cfi_offset 31, -4
	.cfi_offset 29, -12
	.cfi_offset 27, -20
	.cfi_offset 65, 4
	.loc 5 2003 0
	cmpwi 7,29,0
	ble- 7,.L518
	lwz 27,1216(3)
	li 31,0
	b .L519
.LVL912:
.L523:
	beq- 6,.L522
.LVL913:
.L519:
	.loc 5 2006 0
	slwi 0,31,2
	mr 4,28
	lwzx 30,27,0
	.loc 5 2003 0
	addi 31,31,1
.LVL914:
	.loc 5 2006 0
	mr 3,30
	bl _ZN9SSDEntity7HitTestERK6idVec2
	.loc 5 2003 0
	cmpw 6,31,29
	.loc 5 2006 0
	cmpwi 7,3,0
	beq+ 7,.L523
.LVL915:
.L518:
.LBE3432:
	.loc 5 2011 0
	lwz 0,36(1)
	mr 3,30
	lwz 27,12(1)
	mtlr 0
	lwz 28,16(1)
.LVL916:
	lwz 29,20(1)
	lwz 30,24(1)
	lwz 31,28(1)
	addi 1,1,32
	.cfi_remember_state
.LCFI248:
	.cfi_def_cfa_offset 0
	.cfi_restore 31
	.cfi_restore 30
	.cfi_restore 29
	.cfi_restore 28
	.cfi_restore 27
	blr
.LVL917:
.L522:
.LCFI249:
	.cfi_restore_state
	lwz 0,36(1)
.LBB3433:
	.loc 5 2010 0
	li 30,0
.LBE3433:
	.loc 5 2011 0
	mr 3,30
	lwz 27,12(1)
	mtlr 0
	lwz 28,16(1)
.LVL918:
	lwz 29,20(1)
	lwz 30,24(1)
	lwz 31,28(1)
.LVL919:
	addi 1,1,32
	.cfi_restore 27
	.cfi_restore 28
	.cfi_restore 29
	.cfi_restore 30
	.cfi_restore 31
.LCFI250:
	.cfi_def_cfa_offset 0
	blr
	.cfi_endproc
.LFE3022:
	.size	_ZN15idGameSSDWindow13EntityHitTestERK6idVec2, .-_ZN15idGameSSDWindow13EntityHitTestERK6idVec2
	.align 2
	.globl _ZN15idGameSSDWindow9AddDamageEi
	.type	_ZN15idGameSSDWindow9AddDamageEi, @function
_ZN15idGameSSDWindow9AddDamageEi:
.LFB3026:
	.loc 5 2070 0
	.cfi_startproc
.LVL920:
	mflr 0
	stwu 1,-24(1)
.LCFI251:
	.cfi_def_cfa_offset 24
	.cfi_register 65, 0
	stw 31,20(1)
	mr 31,3
	.cfi_offset 31, -4
	stw 0,28(1)
	stw 29,12(1)
	stw 30,16(1)
	.loc 5 2071 0
	lwz 0,1152(3)
	.cfi_offset 30, -8
	.cfi_offset 29, -12
	.cfi_offset 65, 4
	.loc 5 2072 0
	lwz 29,732(3)
	.loc 5 2071 0
	subf 4,4,0
.LVL921:
	stw 4,1152(3)
	.loc 5 2072 0
	lis 3,.LC6@ha
.LVL922:
	la 3,.LC6@l(3)
	lwz 9,0(29)
	lwz 30,56(9)
	crxor 6,6,6
	bl _Z2vaPKcz
	lis 4,.LC63@ha
	mr 5,3
	la 4,.LC63@l(4)
	mr 3,29
	mtctr 30
	bctrl
	.loc 5 2074 0
	lwz 3,732(31)
	lis 4,.LC64@ha
	lwz 9,0(3)
	la 4,.LC64@l(4)
	lwz 0,36(9)
	mtctr 0
	bctrl
	.loc 5 2076 0
	lwz 0,1152(31)
	cmpwi 7,0,0
	ble- 7,.L526
	.loc 5 2080 0
	lwz 0,28(1)
	lwz 29,12(1)
	mtlr 0
	lwz 30,16(1)
	lwz 31,20(1)
.LVL923:
	addi 1,1,24
	.cfi_remember_state
.LCFI252:
	.cfi_def_cfa_offset 0
	.cfi_restore 31
	.cfi_restore 30
	.cfi_restore 29
	blr
.LVL924:
.L526:
.LCFI253:
	.cfi_restore_state
.LBB3440:
.LBB3441:
.LBB3442:
.LBB3443:
.LBB3444:
.LBB3445:
	.loc 5 1715 0
	li 0,0
.LBE3445:
.LBE3444:
	.loc 5 1723 0
	lwz 3,732(31)
.LBB3447:
.LBB3446:
	.loc 5 1715 0
	stb 0,1140(31)
.LBE3446:
.LBE3447:
	.loc 5 1723 0
	lis 4,.LC57@ha
	la 4,.LC57@l(4)
	lwz 9,0(3)
	lwz 0,36(9)
	mtctr 0
	bctrl
.LBE3443:
.LBE3442:
.LBE3441:
.LBE3440:
	.loc 5 2080 0
	lwz 0,28(1)
	lwz 29,12(1)
	mtlr 0
	lwz 30,16(1)
	lwz 31,20(1)
.LVL925:
	addi 1,1,24
	.cfi_restore 29
	.cfi_restore 30
	.cfi_restore 31
.LCFI254:
	.cfi_def_cfa_offset 0
	blr
	.cfi_endproc
.LFE3026:
	.size	_ZN15idGameSSDWindow9AddDamageEi, .-_ZN15idGameSSDWindow9AddDamageEi
	.align 2
	.globl _ZN15idGameSSDWindow9AddHealthEi
	.type	_ZN15idGameSSDWindow9AddHealthEi, @function
_ZN15idGameSSDWindow9AddHealthEi:
.LFB3027:
	.loc 5 2082 0
	.cfi_startproc
.LVL926:
	.loc 5 2083 0
	lwz 0,1152(3)
	add 0,0,4
	.loc 5 2084 0
	cmpwi 7,0,100
	ble- 7,.L528
	li 0,100
.L528:
	stw 0,1152(3)
	.loc 5 2085 0
	blr
	.cfi_endproc
.LFE3027:
	.size	_ZN15idGameSSDWindow9AddHealthEi, .-_ZN15idGameSSDWindow9AddHealthEi
	.align 2
	.globl _ZN15idGameSSDWindow14OnSuperBlasterEv
	.type	_ZN15idGameSSDWindow14OnSuperBlasterEv, @function
_ZN15idGameSSDWindow14OnSuperBlasterEv:
.LFB3030:
	.loc 5 2132 0
	.cfi_startproc
.LVL927:
	mflr 0
	stwu 1,-16(1)
.LCFI255:
	.cfi_def_cfa_offset 16
	.cfi_register 65, 0
.LBB3448:
.LBB3449:
	.loc 5 2292 0
	lis 4,.LC65@ha
.LBE3449:
.LBE3448:
	.loc 5 2132 0
	stw 31,12(1)
	mr 31,3
	.cfi_offset 31, -4
.LVL928:
	stw 0,20(1)
.LBB3451:
.LBB3450:
	.loc 5 2292 0
	la 4,.LC65@l(4)
	lwz 3,732(3)
.LVL929:
	lwz 9,0(3)
	lwz 0,36(9)
	.cfi_offset 65, 4
	mtctr 0
	bctrl
	.loc 5 2294 0
	lwz 9,932(31)
	addi 0,9,10000
	.loc 5 2293 0
	li 9,1
	stw 9,1156(31)
	.loc 5 2294 0
	stw 0,1136(31)
.LBE3450:
.LBE3451:
	.loc 5 2135 0
	lwz 0,20(1)
	lwz 31,12(1)
.LVL930:
	mtlr 0
	addi 1,1,16
.LCFI256:
	.cfi_def_cfa_offset 0
	.cfi_restore 31
	blr
	.cfi_endproc
.LFE3030:
	.size	_ZN15idGameSSDWindow14OnSuperBlasterEv, .-_ZN15idGameSSDWindow14OnSuperBlasterEv
	.align 2
	.globl _ZN15idGameSSDWindow14RefreshGuiDataEv
	.type	_ZN15idGameSSDWindow14RefreshGuiDataEv, @function
_ZN15idGameSSDWindow14RefreshGuiDataEv:
.LFB3031:
	.loc 5 2139 0
	.cfi_startproc
.LVL931:
	mflr 0
	stwu 1,-88(1)
.LCFI257:
	.cfi_def_cfa_offset 88
	.cfi_register 65, 0
	stw 30,80(1)
.LBB3452:
	.loc 5 2142 0
	lis 30,.LC6@ha
	.cfi_offset 30, -8
.LBE3452:
	.loc 5 2139 0
	stw 0,92(1)
.LBB3460:
	.loc 5 2142 0
	la 30,.LC6@l(30)
.LBE3460:
	.loc 5 2139 0
	stw 31,84(1)
	mr 31,3
	.cfi_offset 31, -4
	.cfi_offset 65, 4
	stw 27,68(1)
	stw 28,72(1)
	stw 29,76(1)
.LBB3461:
	.loc 5 2142 0
	lwz 29,732(3)
	.cfi_offset 29, -12
	.cfi_offset 28, -16
	.cfi_offset 27, -20
	lwz 4,1164(3)
	mr 3,30
.LVL932:
	lwz 9,0(29)
	addi 4,4,1
	lwz 28,56(9)
	crxor 6,6,6
	bl _Z2vaPKcz
	lis 4,.LC66@ha
	mr 5,3
	mtctr 28
	mr 3,29
	la 4,.LC66@l(4)
	bctrl
	.loc 5 2143 0
	lwz 28,732(31)
	lwz 4,1160(31)
	mr 3,30
	lwz 9,0(28)
	addi 4,4,1
	lwz 29,56(9)
	crxor 6,6,6
	bl _Z2vaPKcz
	lis 4,.LC67@ha
	mr 5,3
	la 4,.LC67@l(4)
	mr 3,28
	mtctr 29
	bctrl
	.loc 5 2146 0
	lwz 0,1168(31)
	li 4,0
	cmpwi 7,0,0
	beq- 7,.L531
.LVL933:
	.loc 5 2149 0
	lwz 11,1172(31)
	lis 9,0x4330
	xoris 0,0,0x8000
	stw 9,8(1)
	xoris 11,11,0x8000
	stw 9,16(1)
	stw 11,12(1)
	lis 9,.LC3@ha
	stw 0,20(1)
	lfs 0,.LC3@l(9)
	lis 9,.LC27@ha
	lfd 13,8(1)
	lfd 12,16(1)
	fsub 13,13,0
	fsub 0,12,0
	frsp 13,13
	frsp 0,0
	fdivs 0,13,0
	lfs 13,.LC27@l(9)
	.loc 5 2146 0
	addi 9,1,56
	.loc 5 2149 0
	fmuls 0,0,13
	.loc 5 2146 0
	fctiwz 0,0
	stfiwx 0,0,9
	lwz 4,56(1)
.LVL934:
.L531:
	.loc 5 2151 0
	lwz 27,732(31)
	lis 29,.LC68@ha
	la 29,.LC68@l(29)
	lwz 9,0(27)
	mr 3,29
	lwz 28,56(9)
	crxor 6,6,6
	bl _Z2vaPKcz
	lis 4,.LC69@ha
	mr 5,3
	la 4,.LC69@l(4)
	mr 3,27
	mtctr 28
	bctrl
	.loc 5 2154 0
	lwz 0,1188(31)
	lwz 9,1184(31)
.LVL935:
	.loc 5 2156 0
	li 4,0
	add. 9,0,9
	beq- 0,.L532
.LVL936:
	.loc 5 2159 0
	lis 11,0x4330
	xoris 9,9,0x8000
	xoris 0,0,0x8000
	stw 9,36(1)
	stw 0,28(1)
	lis 9,.LC3@ha
	stw 11,24(1)
	stw 11,32(1)
	lfs 0,.LC3@l(9)
	lis 9,.LC27@ha
	lfd 13,24(1)
	lfd 12,32(1)
	fsub 13,13,0
	fsub 0,12,0
	frsp 13,13
	frsp 0,0
	fdivs 0,13,0
	lfs 13,.LC27@l(9)
	.loc 5 2156 0
	addi 9,1,52
	.loc 5 2159 0
	fmuls 0,0,13
	.loc 5 2156 0
	fctiwz 0,0
	stfiwx 0,0,9
	lwz 4,52(1)
.LVL937:
.L532:
	.loc 5 2161 0
	lwz 28,732(31)
	mr 3,29
	lwz 9,0(28)
	lwz 29,56(9)
	crxor 6,6,6
	bl _Z2vaPKcz
.LVL938:
	lis 4,.LC70@ha
	mr 5,3
	la 4,.LC70@l(4)
	mr 3,28
	mtctr 29
	bctrl
.LBB3453:
	.loc 5 2166 0
	lwz 9,1200(31)
	cmpwi 7,9,0
	beq- 7,.L533
.LBB3454:
	.loc 5 2167 0
	lfs 13,56(9)
	lis 9,.LC27@ha
	lfs 0,.LC27@l(9)
	addi 9,1,48
	.loc 5 2169 0
	lwz 28,732(31)
	lis 3,.LC71@ha
	.loc 5 2167 0
	fdivs 0,13,0
	.loc 5 2169 0
	la 3,.LC71@l(3)
	.loc 5 2167 0
	fctiwz 0,0
	stfiwx 0,0,9
	lwz 4,48(1)
.LVL939:
	.loc 5 2169 0
	lwz 9,0(28)
.LVL940:
	mulli 4,4,100
	lwz 29,56(9)
	crxor 6,6,6
	bl _Z2vaPKcz
.LVL941:
	lis 4,.LC72@ha
	mr 5,3
	la 4,.LC72@l(4)
	mr 3,28
	mtctr 29
	bctrl
.L534:
.LBE3454:
.LBE3453:
	.loc 5 2174 0
	lwz 29,732(31)
	mr 3,30
	lwz 4,1152(31)
	lwz 9,0(29)
	lwz 28,56(9)
	crxor 6,6,6
	bl _Z2vaPKcz
	lis 4,.LC63@ha
	mr 5,3
	mtctr 28
	mr 3,29
	la 4,.LC63@l(4)
	bctrl
	.loc 5 2175 0
	lwz 29,732(31)
	lwz 4,1144(31)
	mr 3,30
	lwz 9,0(29)
	lwz 28,56(9)
	crxor 6,6,6
	bl _Z2vaPKcz
	lis 4,.LC74@ha
	mr 5,3
	mtctr 28
	mr 3,29
	la 4,.LC74@l(4)
	bctrl
	.loc 5 2176 0
	lwz 29,732(31)
	lwz 4,1148(31)
	mr 3,30
	lwz 9,0(29)
	lwz 30,56(9)
	crxor 6,6,6
	bl _Z2vaPKcz
	lis 4,.LC75@ha
	mr 5,3
	mtctr 30
	mr 3,29
	la 4,.LC75@l(4)
	bctrl
.LBB3455:
.LBB3456:
	.loc 14 589 0
	lwz 11,1160(31)
.LBE3456:
.LBE3455:
	.loc 5 2177 0
	lwz 0,1064(31)
	lis 3,.LC76@ha
	lwz 30,732(31)
	slwi 11,11,3
	add 11,0,11
	lwz 4,1188(31)
	lwz 9,0(30)
	la 3,.LC76@l(3)
	lwz 5,4(11)
	lwz 29,56(9)
.LVL942:
	crxor 6,6,6
	bl _Z2vaPKcz
.LVL943:
	lis 4,.LC77@ha
	mr 5,3
	la 4,.LC77@l(4)
	mr 3,30
	mtctr 29
	bctrl
.LBB3457:
	.loc 5 2180 0
	lwz 0,1136(31)
	cmpwi 7,0,0
	beq+ 7,.L530
.LVL944:
.LBB3458:
	.loc 5 2182 0
	lwz 30,732(31)
	lis 3,.LC78@ha
	.loc 5 2181 0
	lwz 11,932(31)
	.loc 5 2182 0
	la 3,.LC78@l(3)
	lwz 9,0(30)
	.loc 5 2181 0
	subf 0,11,0
	xoris 0,0,0x8000
	.loc 5 2182 0
	lwz 31,56(9)
.LVL945:
	.loc 5 2181 0
	stw 0,44(1)
	lis 0,0x4330
	stw 0,40(1)
	lis 9,.LC3@ha
	lfs 0,.LC3@l(9)
	lis 9,.LC4@ha
	lfd 1,40(1)
	fsub 1,1,0
	lfs 0,.LC4@l(9)
	frsp 1,1
	fdivs 1,1,0
	.loc 5 2182 0
	creqv 6,6,6
	bl _Z2vaPKcz
	lis 4,.LC79@ha
	mr 5,3
	la 4,.LC79@l(4)
	mr 3,30
	mtctr 31
	bctrl
.L530:
.LBE3458:
.LBE3457:
.LBE3461:
	.loc 5 2184 0
	lwz 0,92(1)
	lwz 27,68(1)
	mtlr 0
	lwz 28,72(1)
	lwz 29,76(1)
	lwz 30,80(1)
	lwz 31,84(1)
	addi 1,1,88
	.cfi_remember_state
.LCFI258:
	.cfi_def_cfa_offset 0
	.cfi_restore 31
	.cfi_restore 30
	.cfi_restore 29
	.cfi_restore 28
	.cfi_restore 27
	blr
.LVL946:
.L533:
.LCFI259:
	.cfi_restore_state
.LBB3462:
.LBB3459:
	.loc 5 2171 0
	lwz 3,732(31)
	lis 4,.LC72@ha
	lis 5,.LC73@ha
	la 4,.LC72@l(4)
	lwz 9,0(3)
	la 5,.LC73@l(5)
	lwz 0,56(9)
	mtctr 0
	bctrl
	b .L534
.LBE3459:
.LBE3462:
	.cfi_endproc
.LFE3031:
	.size	_ZN15idGameSSDWindow14RefreshGuiDataEv, .-_ZN15idGameSSDWindow14RefreshGuiDataEv
	.align 2
	.globl _ZN15idGameSSDWindow14GetCursorWorldEv
	.type	_ZN15idGameSSDWindow14GetCursorWorldEv, @function
_ZN15idGameSSDWindow14GetCursorWorldEv:
.LFB3032:
	.loc 5 2186 0
	.cfi_startproc
.LVL947:
	mflr 0
	stwu 1,-32(1)
.LCFI260:
	.cfi_def_cfa_offset 32
	.cfi_register 65, 0
	stfd 31,24(1)
	stw 31,20(1)
	mr 31,3
	.cfi_offset 31, -12
	.cfi_offset 63, -8
	stw 0,36(1)
.LBB3463:
	.loc 5 2190 0
	lwz 3,732(3)
.LVL948:
	lwz 9,0(3)
	lwz 0,124(9)
	.cfi_offset 65, 4
	mtctr 0
	bctrl
	.loc 5 2191 0
	lwz 3,732(31)
	.loc 5 2190 0
	fmr 31,1
.LVL949:
	.loc 5 2191 0
	lwz 9,0(3)
	lwz 0,128(9)
	mtctr 0
	bctrl
.LVL950:
	.loc 5 2193 0
	lis 9,.LC29@ha
	lfs 0,.LC29@l(9)
	.loc 5 2194 0
	lis 9,.LC22@ha
.LBE3463:
	.loc 5 2195 0
	lwz 0,36(1)
.LBB3464:
	.loc 5 2193 0
	fsubs 0,1,0
.LBE3464:
	.loc 5 2195 0
	lwz 31,20(1)
.LVL951:
	mtlr 0
.LBB3465:
	.loc 5 2194 0
	fneg 0,0
	stfs 0,8(1)
	lfs 0,.LC22@l(9)
	lwz 4,8(1)
	fsubs 0,31,0
.LBE3465:
	.loc 5 2195 0
	lfd 31,24(1)
.LVL952:
.LBB3466:
	.loc 5 2194 0
	stfs 0,8(1)
	lwz 3,8(1)
.LBE3466:
	.loc 5 2195 0
	addi 1,1,32
.LCFI261:
	.cfi_def_cfa_offset 0
	.cfi_restore 63
	.cfi_restore 31
	blr
	.cfi_endproc
.LFE3032:
	.size	_ZN15idGameSSDWindow14GetCursorWorldEv, .-_ZN15idGameSSDWindow14GetCursorWorldEv
	.align 2
	.globl _ZN15idGameSSDWindow17StartSuperBlasterEv
	.type	_ZN15idGameSSDWindow17StartSuperBlasterEv, @function
_ZN15idGameSSDWindow17StartSuperBlasterEv:
.LFB3037:
	.loc 5 2290 0
	.cfi_startproc
.LVL953:
	mflr 0
	stwu 1,-16(1)
.LCFI262:
	.cfi_def_cfa_offset 16
	.cfi_register 65, 0
	.loc 5 2292 0
	lis 4,.LC65@ha
	.loc 5 2290 0
	stw 31,12(1)
	mr 31,3
	.cfi_offset 31, -4
	stw 0,20(1)
	.loc 5 2292 0
	la 4,.LC65@l(4)
	lwz 3,732(3)
.LVL954:
	lwz 9,0(3)
	lwz 0,36(9)
	.cfi_offset 65, 4
	mtctr 0
	bctrl
	.loc 5 2294 0
	lwz 9,932(31)
	addi 0,9,10000
	.loc 5 2293 0
	li 9,1
	stw 9,1156(31)
	.loc 5 2294 0
	stw 0,1136(31)
	.loc 5 2296 0
	lwz 0,20(1)
	lwz 31,12(1)
.LVL955:
	mtlr 0
	addi 1,1,16
.LCFI263:
	.cfi_def_cfa_offset 0
	.cfi_restore 31
	blr
	.cfi_endproc
.LFE3037:
	.size	_ZN15idGameSSDWindow17StartSuperBlasterEv, .-_ZN15idGameSSDWindow17StartSuperBlasterEv
	.align 2
	.globl _ZN15idGameSSDWindow16StopSuperBlasterEv
	.type	_ZN15idGameSSDWindow16StopSuperBlasterEv, @function
_ZN15idGameSSDWindow16StopSuperBlasterEv:
.LFB3038:
	.loc 5 2297 0
	.cfi_startproc
.LVL956:
	mflr 0
	stwu 1,-16(1)
.LCFI264:
	.cfi_def_cfa_offset 16
	.cfi_register 65, 0
	.loc 5 2298 0
	lis 4,.LC60@ha
	.loc 5 2297 0
	stw 31,12(1)
	mr 31,3
	.cfi_offset 31, -4
	stw 0,20(1)
	.loc 5 2298 0
	la 4,.LC60@l(4)
	lwz 3,732(3)
.LVL957:
	lwz 9,0(3)
	lwz 0,36(9)
	.cfi_offset 65, 4
	mtctr 0
	bctrl
	.loc 5 2299 0
	li 0,0
	stw 0,1156(31)
	.loc 5 2300 0
	stw 0,1136(31)
	.loc 5 2302 0
	lwz 0,20(1)
	lwz 31,12(1)
.LVL958:
	mtlr 0
	addi 1,1,16
.LCFI265:
	.cfi_def_cfa_offset 0
	.cfi_restore 31
	blr
	.cfi_endproc
.LFE3038:
	.size	_ZN15idGameSSDWindow16StopSuperBlasterEv, .-_ZN15idGameSSDWindow16StopSuperBlasterEv
	.align 2
	.globl _ZN15idGameSSDWindow17GetSpecificEntityEii
	.type	_ZN15idGameSSDWindow17GetSpecificEntityEii, @function
_ZN15idGameSSDWindow17GetSpecificEntityEii:
.LFB3039:
	.loc 5 2304 0
	.cfi_startproc
.LVL959:
.LBB3467:
	.loc 5 2306 0
	cmplwi 7,4,6
	ble- 7,.L551
.LVL960:
.L550:
	.loc 5 2305 0
	li 3,0
.LVL961:
.LBE3467:
	.loc 5 2327 0
	blr
.LVL962:
.L551:
.LBB3468:
	.loc 5 2306 0
	lis 9,.L549@ha
	slwi 4,4,2
.LVL963:
	la 9,.L549@l(9)
	lwzx 0,9,4
	add 9,0,9
	mtctr 9
	bctr
	.section	.rodata
	.align 2
	.align 2
.L549:
	.long .L550-.L549
	.long .L543-.L549
	.long .L544-.L549
	.long .L545-.L549
	.long .L546-.L549
	.long .L547-.L549
	.long .L548-.L549
	.section	".text"
.L548:
.LVL964:
	.loc 5 2323 0
	lis 3,.LANCHOR0@ha
.LVL965:
	mulli 5,5,192
.LVL966:
	la 3,.LANCHOR0@l(3)
	addis 3,3,0x1
	addi 3,3,-21792
	add 3,3,5
.LVL967:
	.loc 5 2324 0
	blr
.LVL968:
.L543:
	.loc 5 2308 0
	mulli 5,5,188
.LVL969:
	lis 3,.LANCHOR0@ha
.LVL970:
	la 3,.LANCHOR0@l(3)
	add 3,3,5
.LVL971:
	.loc 5 2309 0
	blr
.LVL972:
.L544:
	.loc 5 2311 0
	mulli 5,5,188
.LVL973:
	lis 3,.LANCHOR0@ha
.LVL974:
	la 3,.LANCHOR0@l(3)
	addi 3,3,12032
	add 3,3,5
.LVL975:
	.loc 5 2312 0
	blr
.LVL976:
.L545:
	.loc 5 2314 0
	mulli 5,5,200
.LVL977:
	lis 3,.LANCHOR0@ha
.LVL978:
	la 3,.LANCHOR0@l(3)
	addi 3,3,13536
	add 3,3,5
.LVL979:
	.loc 5 2315 0
	blr
.LVL980:
.L546:
	.loc 5 2317 0
	mulli 5,5,240
.LVL981:
	lis 3,.LANCHOR0@ha
.LVL982:
	la 3,.LANCHOR0@l(3)
	addi 3,3,26336
	add 3,3,5
.LVL983:
	.loc 5 2318 0
	blr
.LVL984:
.L547:
	.loc 5 2320 0
	mulli 5,5,212
.LVL985:
	lis 3,.LANCHOR0@ha
.LVL986:
	la 3,.LANCHOR0@l(3)
	addi 3,3,30176
	add 3,3,5
.LVL987:
	.loc 5 2321 0
	blr
.LBE3468:
	.cfi_endproc
.LFE3039:
	.size	_ZN15idGameSSDWindow17GetSpecificEntityEii, .-_ZN15idGameSSDWindow17GetSpecificEntityEii
	.align 2
	.globl _ZN12SSDExplosion16ReadFromSaveGameEP6idFileP15idGameSSDWindow
	.type	_ZN12SSDExplosion16ReadFromSaveGameEP6idFileP15idGameSSDWindow, @function
_ZN12SSDExplosion16ReadFromSaveGameEP6idFileP15idGameSSDWindow:
.LFB2930:
	.loc 5 645 0
	.cfi_startproc
.LVL988:
	stwu 1,-40(1)
.LCFI266:
	.cfi_def_cfa_offset 40
	mflr 0
	stw 31,36(1)
	mr 31,4
	.cfi_offset 31, -4
	.cfi_register 65, 0
	stw 0,44(1)
	stw 29,28(1)
	mr 29,5
	.cfi_offset 29, -12
	.cfi_offset 65, 4
	stw 30,32(1)
	.loc 5 645 0
	mr 30,3
	.cfi_offset 30, -8
.LBB3469:
	.loc 5 646 0
	bl _ZN9SSDEntity16ReadFromSaveGameEP6idFileP15idGameSSDWindow
.LVL989:
	.loc 5 648 0
	lwz 9,0(31)
	addi 4,30,168
	li 5,8
	lwz 0,20(9)
	mr 3,31
	mtctr 0
	bctrl
	.loc 5 649 0
	lwz 9,0(31)
	addi 4,30,176
	li 5,4
	lwz 0,20(9)
	mr 3,31
	mtctr 0
	bctrl
	.loc 5 650 0
	lwz 9,0(31)
	addi 4,30,180
	li 5,4
	lwz 0,20(9)
	mr 3,31
	mtctr 0
	bctrl
	.loc 5 651 0
	lwz 9,0(31)
	addi 4,30,184
	li 5,4
	lwz 0,20(9)
	mr 3,31
	mtctr 0
	bctrl
	.loc 5 652 0
	lwz 9,0(31)
	addi 4,30,188
	li 5,4
	lwz 0,20(9)
	mr 3,31
	mtctr 0
	bctrl
	.loc 5 655 0
	lwz 9,0(31)
	addi 4,1,12
	li 5,4
	lwz 0,20(9)
	mr 3,31
	mtctr 0
	bctrl
	.loc 5 656 0
	lwz 9,0(31)
	addi 4,1,8
	li 5,4
	lwz 0,20(9)
	mr 3,31
	mtctr 0
	bctrl
.LVL990:
	.loc 5 659 0
	lwz 4,12(1)
.LVL991:
	lwz 5,8(1)
	mr 3,29
	bl _ZN15idGameSSDWindow17GetSpecificEntityEii
	.loc 5 661 0
	addi 4,30,196
	.loc 5 659 0
	stw 3,192(30)
	.loc 5 661 0
	li 5,1
	mr 3,31
	lwz 9,0(31)
	lwz 0,20(9)
	mtctr 0
	bctrl
	.loc 5 662 0
	lwz 9,0(31)
	mr 3,31
	addi 4,30,197
	lwz 0,20(9)
	li 5,1
	mtctr 0
	bctrl
.LBE3469:
	.loc 5 663 0
	lwz 0,44(1)
	lwz 29,28(1)
.LVL992:
	mtlr 0
	lwz 30,32(1)
.LVL993:
	lwz 31,36(1)
.LVL994:
	addi 1,1,40
.LCFI267:
	.cfi_def_cfa_offset 0
	.cfi_restore 31
	.cfi_restore 30
	.cfi_restore 29
	blr
	.cfi_endproc
.LFE2930:
	.size	_ZN12SSDExplosion16ReadFromSaveGameEP6idFileP15idGameSSDWindow, .-_ZN12SSDExplosion16ReadFromSaveGameEP6idFileP15idGameSSDWindow
	.align 2
	.globl _ZN15idGameSSDWindow16ReadFromSaveGameEP6idFile
	.type	_ZN15idGameSSDWindow16ReadFromSaveGameEP6idFile, @function
_ZN15idGameSSDWindow16ReadFromSaveGameEP6idFile:
.LFB2996:
	.loc 5 1303 0
	.cfi_startproc
.LVL995:
	stwu 1,-192(1)
.LCFI268:
	.cfi_def_cfa_offset 192
	mflr 0
	stw 30,184(1)
	mr 30,4
	.cfi_offset 30, -8
	.cfi_register 65, 0
	stw 0,196(1)
	stw 31,188(1)
	mr 31,3
	.cfi_offset 31, -4
	.cfi_offset 65, 4
	stw 19,140(1)
	stw 20,144(1)
	stw 21,148(1)
	stw 22,152(1)
	stw 23,156(1)
	stw 24,160(1)
	stw 25,164(1)
	stw 26,168(1)
	stw 27,172(1)
	stw 28,176(1)
	stw 29,180(1)
.LBB3575:
	.loc 5 1304 0
	.cfi_offset 29, -12
	.cfi_offset 28, -16
	.cfi_offset 27, -20
	.cfi_offset 26, -24
	.cfi_offset 25, -28
	.cfi_offset 24, -32
	.cfi_offset 23, -36
	.cfi_offset 22, -40
	.cfi_offset 21, -44
	.cfi_offset 20, -48
	.cfi_offset 19, -52
	bl _ZN8idWindow16ReadFromSaveGameEP6idFile
.LVL996:
	.loc 5 1307 0
	lwz 9,0(30)
	addi 4,31,932
	li 5,4
	mr 3,30
	lwz 0,20(9)
	mtctr 0
	bctrl
.LVL997:
.LBB3576:
.LBB3577:
	.loc 2 150 0
	lwz 9,0(30)
	addi 4,31,948
	li 5,1
	lwz 0,20(9)
	mr 3,30
	mtctr 0
	bctrl
	.loc 2 151 0
	lwz 9,0(30)
	addi 4,31,949
	li 5,1
	lwz 0,20(9)
	mr 3,30
	mtctr 0
	bctrl
.LVL998:
.LBE3577:
.LBE3576:
.LBB3578:
.LBB3579:
	.loc 2 150 0
	lwz 9,0(30)
	addi 4,31,964
	li 5,1
	lwz 0,20(9)
	mr 3,30
	mtctr 0
	bctrl
	.loc 2 151 0
	lwz 9,0(30)
	addi 4,31,965
	li 5,1
	lwz 0,20(9)
	mr 3,30
	mtctr 0
	bctrl
.LVL999:
.LBE3579:
.LBE3578:
.LBB3580:
.LBB3581:
	.loc 2 150 0
	lwz 9,0(30)
	addi 4,31,980
	li 5,1
	lwz 0,20(9)
	mr 3,30
	mtctr 0
	bctrl
	.loc 2 151 0
	lwz 9,0(30)
	addi 4,31,981
	li 5,1
	lwz 0,20(9)
	mr 3,30
	mtctr 0
	bctrl
.LVL1000:
.LBE3581:
.LBE3580:
.LBB3582:
.LBB3583:
	.loc 2 150 0
	lwz 9,0(30)
	addi 4,31,996
	li 5,1
	lwz 0,20(9)
	mr 3,30
	mtctr 0
	bctrl
	.loc 2 151 0
	lwz 9,0(30)
	li 5,1
	addi 4,31,997
	lwz 0,20(9)
	mr 3,30
	mtctr 0
	bctrl
.LBE3583:
.LBE3582:
	.loc 5 1314 0
	addi 3,31,1000
	mr 4,30
	bl _ZN12SSDCrossHair16ReadFromSaveGameEP6idFile
	.loc 5 1315 0
	lwz 9,0(30)
	addi 4,31,1024
	li 5,24
	lwz 0,20(9)
	mr 3,30
	mtctr 0
	bctrl
	.loc 5 1317 0
	lwz 9,0(30)
	mr 3,30
	addi 4,31,1048
	lwz 0,20(9)
	li 5,4
	mtctr 0
	bctrl
.LVL1001:
.LBB3584:
	.loc 5 1318 0
	lwz 0,1048(31)
	cmpwi 7,0,0
	ble- 7,.L554
	li 22,0
	addi 21,1,20
	addi 23,31,1052
	addi 24,31,1068
	addi 25,31,1084
	addi 26,31,1100
.LBB3585:
.LBB3586:
.LBB3587:
.LBB3588:
.LBB3589:
	.loc 14 393 0
	li 19,0
	.loc 14 663 0
	li 20,16
	b .L623
.LVL1002:
.L684:
.LBB3590:
.LBB3591:
	.loc 14 399 0
	slwi 0,0,3
	add 29,29,0
.L563:
.LBE3591:
.LBE3590:
.LBE3589:
.LBE3588:
	.loc 14 669 0
	lwz 10,20(1)
.LBE3587:
.LBE3586:
	.loc 5 1324 0
	mr 3,30
.LBB3627:
.LBB3618:
	.loc 14 669 0
	lwz 11,24(1)
.LBE3618:
.LBE3627:
	.loc 5 1324 0
	addi 4,1,92
.LBB3628:
.LBB3619:
	.loc 14 669 0
	stw 10,0(29)
.LBE3619:
.LBE3628:
	.loc 5 1324 0
	li 5,44
.LBB3629:
.LBB3620:
	.loc 14 669 0
	stw 11,4(29)
	.loc 14 670 0
	lwz 9,1052(31)
	addi 0,9,1
	stw 0,1052(31)
.LBE3620:
.LBE3629:
	.loc 5 1324 0
	lwz 9,0(30)
	lwz 0,20(9)
	mtctr 0
	bctrl
.LVL1003:
.LBB3630:
.LBB3631:
	.loc 14 655 0
	lwz 27,1080(31)
	cmpwi 7,27,0
	beq- 7,.L572
	lwz 0,1068(31)
	lwz 9,1072(31)
.L573:
.LBB3632:
	.loc 14 659 0
	cmpw 7,0,9
	beq- 7,.L666
	mulli 3,0,44
	add 3,27,3
.L580:
.LBE3632:
	.loc 14 669 0
	addi 4,1,92
.LVL1004:
	li 5,44
	bl memcpy
.LVL1005:
	.loc 14 670 0
	lwz 9,1068(31)
.LBE3631:
.LBE3630:
	.loc 5 1328 0
	mr 3,30
	addi 4,1,56
.LBB3675:
.LBB3665:
	.loc 14 670 0
	addi 0,9,1
.LBE3665:
.LBE3675:
	.loc 5 1328 0
	li 5,36
.LBB3676:
.LBB3666:
	.loc 14 670 0
	stw 0,1068(31)
.LBE3666:
.LBE3676:
	.loc 5 1328 0
	lwz 9,0(30)
	lwz 0,20(9)
	mtctr 0
	bctrl
.LVL1006:
.LBB3677:
.LBB3678:
	.loc 14 655 0
	lwz 27,1096(31)
	cmpwi 7,27,0
	beq- 7,.L589
.L707:
	lwz 0,1084(31)
	lwz 9,1088(31)
.L590:
.LBB3679:
	.loc 14 659 0
	cmpw 7,0,9
	beq- 7,.L668
	mulli 3,0,36
	add 3,27,3
.L597:
.LBE3679:
	.loc 14 669 0
	addi 4,1,56
.LVL1007:
	li 5,36
	bl memcpy
.LVL1008:
	.loc 14 670 0
	lwz 9,1084(31)
.LBE3678:
.LBE3677:
	.loc 5 1332 0
	mr 3,30
	addi 4,1,32
.LBB3722:
.LBB3712:
	.loc 14 670 0
	addi 0,9,1
.LBE3712:
.LBE3722:
	.loc 5 1332 0
	li 5,24
.LBB3723:
.LBB3713:
	.loc 14 670 0
	stw 0,1084(31)
.LBE3713:
.LBE3723:
	.loc 5 1332 0
	lwz 9,0(30)
	lwz 0,20(9)
	mtctr 0
	bctrl
.LVL1009:
.LBB3724:
.LBB3725:
	.loc 14 655 0
	lwz 29,1112(31)
	cmpwi 7,29,0
	beq- 7,.L606
.L700:
	lwz 0,1100(31)
	lwz 9,1104(31)
.L607:
.LBB3726:
	.loc 14 659 0
	cmpw 7,0,9
	beq- 7,.L670
.L687:
.LBB3727:
.LBB3728:
.LBB3729:
	.loc 14 399 0
	mulli 0,0,24
	add 29,29,0
.L614:
.LBE3729:
.LBE3728:
.LBE3727:
.LBE3726:
	.loc 14 669 0
	lwz 9,40(1)
.LBE3725:
.LBE3724:
.LBE3585:
	.loc 5 1318 0
	addi 22,22,1
.LVL1010:
.LBB3800:
.LBB3768:
.LBB3758:
	.loc 14 669 0
	lwz 0,44(1)
	lwz 11,36(1)
	lwz 10,32(1)
	stw 11,4(29)
	stw 10,0(29)
	stw 9,8(29)
	stw 0,12(29)
	lwz 0,52(1)
	lwz 9,48(1)
	stw 0,20(29)
	stw 9,16(29)
.LBE3758:
.LBE3768:
.LBE3800:
	.loc 5 1318 0
	lwz 0,1048(31)
.LBB3801:
.LBB3769:
.LBB3759:
	.loc 14 670 0
	lwz 9,1100(31)
.LBE3759:
.LBE3769:
.LBE3801:
	.loc 5 1318 0
	cmpw 7,0,22
.LBB3802:
.LBB3770:
.LBB3760:
	.loc 14 670 0
	addi 0,9,1
	stw 0,1100(31)
.LBE3760:
.LBE3770:
.LBE3802:
	.loc 5 1318 0
	ble- 7,.L554
.LVL1011:
.L623:
.LBB3803:
	.loc 5 1320 0 discriminator 2
	lwz 9,0(30)
	mr 3,30
	mr 4,21
	li 5,8
	lwz 0,20(9)
	mtctr 0
	bctrl
.LVL1012:
.LBB3771:
.LBB3621:
	.loc 14 655 0 discriminator 2
	lwz 29,1064(31)
	cmpwi 7,29,0
	beq- 7,.L555
	.loc 14 655 0 is_stmt 0
	lwz 0,1052(31)
	lwz 9,1056(31)
.L556:
.LBB3605:
	.loc 14 659 0 is_stmt 1
	cmpw 7,0,9
	bne+ 7,.L684
	lwz 3,1060(31)
	mr 10,0
.L558:
.LBB3602:
	.loc 14 662 0
	cmpwi 7,3,0
	mr 9,3
	bne- 7,.L564
	.loc 14 663 0
	stw 20,1060(31)
	li 9,16
.L564:
	.loc 14 665 0
	add 11,10,9
.LVL1013:
	.loc 14 666 0
	divw 11,11,9
.LVL1014:
.LBB3598:
.LBB3594:
	.loc 14 375 0
	mullw. 9,11,9
.LVL1015:
	ble- 0,.L690
	.loc 14 380 0
	cmpw 7,9,10
	beq- 7,.L684
.LVL1016:
	.loc 14 387 0
	cmpw 7,9,0
	.loc 14 386 0
	stw 9,1056(31)
	.loc 14 387 0
	bge- 7,.L568
	.loc 14 388 0
	stw 9,1052(31)
.L568:
	.loc 14 392 0
	slwi 3,9,3
	bl _Znaj
.LVL1017:
	.loc 14 393 0
	lwz 0,1052(31)
	.loc 14 392 0
	stw 3,1064(31)
.LVL1018:
	.loc 14 393 0
	cmpwi 7,0,0
	ble- 7,.L569
	.loc 5 1303 0
	addi 8,29,-8
.LBE3594:
.LBE3598:
	.loc 14 393 0
	li 9,0
	b .L570
.LVL1019:
.L691:
.LBB3599:
.LBB3595:
	lwz 3,1064(31)
.LVL1020:
.L570:
	.loc 14 394 0
	addi 8,8,8
	slwi 0,9,3
	lwz 10,0(8)
	add 3,3,0
	lwz 11,4(8)
	.loc 14 393 0
	addi 9,9,1
.LVL1021:
	.loc 14 394 0
	stw 10,0(3)
	stw 11,4(3)
	.loc 14 393 0
	lwz 0,0(23)
	cmpw 7,9,0
	blt+ 7,.L691
.LVL1022:
.L569:
	.loc 14 398 0
	cmpwi 7,29,0
	beq- 7,.L692
	.loc 14 399 0
	mr 3,29
	bl _ZdaPv
	lwz 0,1052(31)
	lwz 29,1064(31)
.LVL1023:
	b .L684
.LVL1024:
.L670:
	lwz 3,1108(31)
.LBE3595:
.LBE3599:
.LBE3602:
.LBE3605:
.LBE3621:
.LBE3771:
.LBB3772:
.LBB3761:
.LBB3744:
	.loc 14 659 0
	mr 10,0
.L609:
.LBB3740:
	.loc 14 662 0
	cmpwi 7,3,0
	mr 9,3
	bne- 7,.L615
	.loc 14 663 0
	stw 20,1108(31)
	li 9,16
.L615:
	.loc 14 665 0
	add 11,0,9
.LVL1025:
	.loc 14 666 0
	divw 11,11,9
.LVL1026:
.LBB3736:
.LBB3732:
	.loc 14 375 0
	mullw. 9,11,9
.LVL1027:
	ble- 0,.L693
	.loc 14 380 0
	cmpw 7,9,0
	beq- 7,.L694
.LVL1028:
	.loc 14 387 0
	cmpw 7,9,10
	.loc 14 386 0
	stw 9,1104(31)
	.loc 14 387 0
	bge- 7,.L619
	.loc 14 388 0
	stw 9,1100(31)
.L619:
	.loc 14 392 0
	mulli 3,9,24
	bl _Znaj
.LVL1029:
	.loc 14 393 0
	lwz 0,1100(31)
	.loc 14 392 0
	stw 3,1112(31)
.LVL1030:
	.loc 14 393 0
	cmpwi 7,0,0
	ble- 7,.L620
	li 10,0
	li 8,0
	b .L621
.LVL1031:
.L695:
	lwz 3,1112(31)
.LVL1032:
.L621:
	.loc 14 394 0
	mr 9,29
	add 11,3,10
	lwzux 5,9,10
	.loc 14 393 0
	addi 8,8,1
.LVL1033:
	.loc 14 394 0
	lwz 7,8(9)
	lwz 0,12(9)
	lwz 6,4(9)
	stwx 5,3,10
	.loc 14 393 0
	addi 10,10,24
	.loc 14 394 0
	stw 6,4(11)
	stw 7,8(11)
	stw 0,12(11)
	lwz 0,20(9)
	lwz 7,16(9)
	stw 0,20(11)
	stw 7,16(11)
	.loc 14 393 0
	lwz 0,0(26)
	cmpw 7,8,0
	blt+ 7,.L695
.LVL1034:
.L620:
	.loc 14 398 0
	cmpwi 7,29,0
	beq- 7,.L696
	.loc 14 399 0
	mr 3,29
	bl _ZdaPv
	lwz 0,1100(31)
	lwz 29,1112(31)
.LVL1035:
	b .L687
.LVL1036:
.L668:
	lwz 3,1092(31)
.LBE3732:
.LBE3736:
.LBE3740:
.LBE3744:
.LBE3761:
.LBE3772:
.LBB3773:
.LBB3714:
.LBB3697:
	.loc 14 659 0
	mr 10,0
.L592:
.LBB3680:
	.loc 14 662 0
	cmpwi 7,3,0
	mr 9,3
	bne- 7,.L598
	.loc 14 663 0
	stw 20,1092(31)
	li 9,16
.L598:
	.loc 14 665 0
	add 11,0,9
.LVL1037:
	.loc 14 666 0
	divw 11,11,9
.LVL1038:
.LBB3681:
.LBB3682:
	.loc 14 375 0
	mullw. 9,11,9
.LVL1039:
	ble- 0,.L697
	.loc 14 380 0
	cmpw 7,9,0
	beq- 7,.L698
.LVL1040:
	.loc 14 387 0
	cmpw 7,9,10
	.loc 14 386 0
	stw 9,1088(31)
	.loc 14 387 0
	bge- 7,.L602
	.loc 14 388 0
	stw 9,1084(31)
.L602:
	.loc 14 392 0
	mulli 3,9,36
	bl _Znaj
.LVL1041:
	.loc 14 393 0
	lwz 0,1084(31)
	.loc 14 392 0
	stw 3,1096(31)
.LVL1042:
	.loc 14 393 0
	cmpwi 7,0,0
	ble- 7,.L603
	li 29,0
	li 28,0
	b .L604
.LVL1043:
.L699:
	lwz 3,1096(31)
.LVL1044:
.L604:
	.loc 14 394 0
	add 3,3,29
	add 4,27,29
	li 5,36
	.loc 14 393 0
	addi 28,28,1
	.loc 14 394 0
	bl memcpy
.LVL1045:
	.loc 14 393 0
	lwz 0,0(25)
	addi 29,29,36
	cmpw 7,28,0
	blt+ 7,.L699
.LVL1046:
.L603:
	.loc 14 398 0
	cmpwi 7,27,0
	beq- 7,.L686
	.loc 14 399 0
	mr 3,27
	bl _ZdaPv
.L686:
	lwz 0,1084(31)
.LBE3682:
.LBE3681:
.LBE3680:
.LBE3697:
	.loc 14 669 0
	addi 4,1,56
.LVL1047:
.LBB3698:
.LBB3693:
.LBB3689:
.LBB3685:
	.loc 14 399 0
	lwz 3,1096(31)
.LBE3685:
.LBE3689:
.LBE3693:
.LBE3698:
	.loc 14 669 0
	li 5,36
.LBB3699:
.LBB3694:
.LBB3690:
.LBB3686:
	.loc 14 399 0
	mulli 0,0,36
	add 3,3,0
.LBE3686:
.LBE3690:
.LBE3694:
.LBE3699:
	.loc 14 669 0
	bl memcpy
.LVL1048:
	.loc 14 670 0
	lwz 9,1084(31)
.LBE3714:
.LBE3773:
	.loc 5 1332 0
	mr 3,30
	addi 4,1,32
.LBB3774:
.LBB3715:
	.loc 14 670 0
	addi 0,9,1
.LBE3715:
.LBE3774:
	.loc 5 1332 0
	li 5,24
.LBB3775:
.LBB3716:
	.loc 14 670 0
	stw 0,1084(31)
.LBE3716:
.LBE3775:
	.loc 5 1332 0
	lwz 9,0(30)
	lwz 0,20(9)
	mtctr 0
	bctrl
.LVL1049:
.LBB3776:
.LBB3762:
	.loc 14 655 0
	lwz 29,1112(31)
	cmpwi 7,29,0
	bne+ 7,.L700
.LVL1050:
.L606:
	.loc 14 656 0
	lwz 3,1108(31)
.LBB3745:
.LBB3746:
	.loc 14 375 0
	cmpwi 7,3,0
.LBE3746:
.LBE3745:
	.loc 14 656 0
	mr 9,3
.LVL1051:
.LBB3752:
.LBB3749:
	.loc 14 375 0
	ble- 7,.L701
	.loc 14 380 0
	lwz 0,1104(31)
	cmpw 7,3,0
	lwz 0,1100(31)
	beq- 7,.L607
.LVL1052:
	.loc 14 387 0
	cmpw 7,3,0
	.loc 14 386 0
	stw 3,1104(31)
	.loc 14 387 0
	bge- 7,.L611
	.loc 14 388 0
	stw 3,1100(31)
.L611:
	.loc 14 392 0
	mulli 3,3,24
	bl _Znaj
.LVL1053:
	.loc 14 393 0
	lwz 0,1100(31)
	.loc 14 392 0
	mr 29,3
	stw 3,1112(31)
.LVL1054:
	.loc 14 393 0
	cmpwi 7,0,0
	li 9,0
	li 10,0
	bgt+ 7,.L681
	b .L730
.LVL1055:
.L703:
	lwz 29,1112(31)
.LVL1056:
.L681:
	.loc 14 394 0
	lwz 8,8(9)
	add 11,29,9
	lwz 0,12(9)
	.loc 14 393 0
	addi 10,10,1
.LVL1057:
	.loc 14 394 0
	lwz 6,0(9)
	lwz 7,4(9)
	stwx 6,29,9
	stw 7,4(11)
	stw 8,8(11)
	stw 0,12(11)
	lwz 0,20(9)
	lwz 8,16(9)
	.loc 14 393 0
	addi 9,9,24
	.loc 14 394 0
	stw 0,20(11)
	stw 8,16(11)
	.loc 14 393 0
	lwz 0,0(26)
	cmpw 7,10,0
	blt+ 7,.L703
	lwz 9,1104(31)
	lwz 29,1112(31)
	b .L607
.LVL1058:
.L666:
	lwz 3,1076(31)
.LBE3749:
.LBE3752:
.LBE3762:
.LBE3776:
.LBB3777:
.LBB3667:
.LBB3650:
	.loc 14 659 0
	mr 10,0
.L575:
.LBB3633:
	.loc 14 662 0
	cmpwi 7,3,0
	mr 9,3
	bne- 7,.L581
	.loc 14 663 0
	stw 20,1076(31)
	li 9,16
.L581:
	.loc 14 665 0
	add 11,10,9
.LVL1059:
	.loc 14 666 0
	divw 11,11,9
.LVL1060:
.LBB3634:
.LBB3635:
	.loc 14 375 0
	mullw. 9,11,9
.LVL1061:
	ble- 0,.L704
	.loc 14 380 0
	cmpw 7,9,10
	beq- 7,.L705
.LVL1062:
	.loc 14 387 0
	cmpw 7,9,0
	.loc 14 386 0
	stw 9,1072(31)
	.loc 14 387 0
	bge- 7,.L585
	.loc 14 388 0
	stw 9,1068(31)
.L585:
	.loc 14 392 0
	mulli 3,9,44
	bl _Znaj
.LVL1063:
	.loc 14 393 0
	lwz 0,1068(31)
	.loc 14 392 0
	stw 3,1080(31)
.LVL1064:
	.loc 14 393 0
	cmpwi 7,0,0
	ble- 7,.L586
	li 29,0
	li 28,0
	b .L587
.LVL1065:
.L706:
	lwz 3,1080(31)
.LVL1066:
.L587:
	.loc 14 394 0
	add 3,3,29
	add 4,27,29
	li 5,44
	.loc 14 393 0
	addi 28,28,1
	.loc 14 394 0
	bl memcpy
.LVL1067:
	.loc 14 393 0
	lwz 0,0(24)
	addi 29,29,44
	cmpw 7,28,0
	blt+ 7,.L706
.LVL1068:
.L586:
	.loc 14 398 0
	cmpwi 7,27,0
	beq- 7,.L685
	.loc 14 399 0
	mr 3,27
	bl _ZdaPv
.L685:
	lwz 0,1068(31)
.LBE3635:
.LBE3634:
.LBE3633:
.LBE3650:
	.loc 14 669 0
	addi 4,1,92
.LVL1069:
.LBB3651:
.LBB3646:
.LBB3642:
.LBB3638:
	.loc 14 399 0
	lwz 3,1080(31)
.LBE3638:
.LBE3642:
.LBE3646:
.LBE3651:
	.loc 14 669 0
	li 5,44
.LBB3652:
.LBB3647:
.LBB3643:
.LBB3639:
	.loc 14 399 0
	mulli 0,0,44
	add 3,3,0
.LBE3639:
.LBE3643:
.LBE3647:
.LBE3652:
	.loc 14 669 0
	bl memcpy
.LVL1070:
	.loc 14 670 0
	lwz 9,1068(31)
.LBE3667:
.LBE3777:
	.loc 5 1328 0
	mr 3,30
	addi 4,1,56
.LBB3778:
.LBB3668:
	.loc 14 670 0
	addi 0,9,1
.LBE3668:
.LBE3778:
	.loc 5 1328 0
	li 5,36
.LBB3779:
.LBB3669:
	.loc 14 670 0
	stw 0,1068(31)
.LBE3669:
.LBE3779:
	.loc 5 1328 0
	lwz 9,0(30)
	lwz 0,20(9)
	mtctr 0
	bctrl
.LVL1071:
.LBB3780:
.LBB3717:
	.loc 14 655 0
	lwz 27,1096(31)
.LVL1072:
	cmpwi 7,27,0
	bne+ 7,.L707
.L589:
	.loc 14 656 0
	lwz 3,1092(31)
.LBB3700:
.LBB3701:
	.loc 14 375 0
	cmpwi 7,3,0
.LBE3701:
.LBE3700:
	.loc 14 656 0
	mr 9,3
.LVL1073:
.LBB3707:
.LBB3704:
	.loc 14 375 0
	ble- 7,.L708
	.loc 14 380 0
	lwz 0,1088(31)
	cmpw 7,3,0
	lwz 0,1084(31)
	beq- 7,.L590
.LVL1074:
	.loc 14 387 0
	cmpw 7,3,0
	.loc 14 386 0
	stw 3,1088(31)
	.loc 14 387 0
	bge- 7,.L594
	.loc 14 388 0
	stw 3,1084(31)
.L594:
	.loc 14 392 0
	mulli 3,3,36
	.loc 14 393 0
	li 29,0
	li 28,0
	.loc 14 392 0
	bl _Znaj
.LVL1075:
	.loc 14 393 0
	lwz 0,1084(31)
	.loc 14 392 0
	mr 27,3
	stw 3,1096(31)
.LVL1076:
	.loc 14 393 0
	cmpwi 7,0,0
	bgt+ 7,.L680
	b .L731
.LVL1077:
.L710:
	lwz 27,1096(31)
.LVL1078:
.L680:
	.loc 14 394 0
	add 3,27,29
	mr 4,29
	li 5,36
	.loc 14 393 0
	addi 28,28,1
	.loc 14 394 0
	bl memcpy
.LVL1079:
	.loc 14 393 0
	lwz 0,0(25)
	addi 29,29,36
	cmpw 7,28,0
	blt+ 7,.L710
	lwz 9,1088(31)
	lwz 27,1096(31)
	b .L590
.LVL1080:
.L554:
.LBE3704:
.LBE3707:
.LBE3717:
.LBE3780:
.LBE3803:
.LBE3584:
	.loc 5 1336 0
	lwz 9,0(30)
	mr 3,30
	addi 4,31,1116
	li 5,4
	lwz 0,20(9)
	mtctr 0
	bctrl
.LVL1081:
.LBB3810:
	.loc 5 1337 0
	lwz 0,1116(31)
	cmpwi 7,0,0
	ble- 7,.L624
	li 28,0
	addi 21,1,20
	addi 29,31,1120
.LBB3811:
.LBB3812:
.LBB3813:
.LBB3814:
.LBB3815:
.LBB3816:
.LBB3817:
	.loc 14 393 0
	li 26,0
.LBE3817:
.LBE3816:
	.loc 14 663 0
	li 27,16
	b .L642
.LVL1082:
.L688:
.LBB3824:
.LBB3820:
	.loc 14 399 0
	mulli 0,0,12
	add 25,25,0
.L633:
.LBE3820:
.LBE3824:
.LBE3815:
.LBE3814:
	.loc 14 669 0
	lwz 9,24(1)
.LBE3813:
.LBE3812:
.LBE3811:
	.loc 5 1337 0
	addi 28,28,1
.LVL1083:
.LBB3862:
.LBB3853:
.LBB3844:
	.loc 14 669 0
	lwz 0,28(1)
	lwz 11,20(1)
	stw 9,4(25)
	stw 11,0(25)
	stw 0,8(25)
.LBE3844:
.LBE3853:
.LBE3862:
	.loc 5 1337 0
	lwz 0,1116(31)
.LBB3863:
.LBB3854:
.LBB3845:
	.loc 14 670 0
	lwz 9,1120(31)
.LBE3845:
.LBE3854:
.LBE3863:
	.loc 5 1337 0
	cmpw 7,0,28
.LBB3864:
.LBB3855:
.LBB3846:
	.loc 14 670 0
	addi 0,9,1
	stw 0,1120(31)
.LBE3846:
.LBE3855:
.LBE3864:
	.loc 5 1337 0
	ble- 7,.L624
.LVL1084:
.L642:
.LBB3865:
	.loc 5 1339 0 discriminator 2
	lwz 9,0(30)
	mr 3,30
	mr 4,21
	li 5,12
	lwz 0,20(9)
	mtctr 0
	bctrl
.LVL1085:
.LBB3856:
.LBB3847:
	.loc 14 655 0 discriminator 2
	lwz 25,1132(31)
	cmpwi 7,25,0
	beq- 7,.L625
	.loc 14 655 0 is_stmt 0
	lwz 0,1120(31)
	lwz 9,1124(31)
.L626:
.LBB3831:
	.loc 14 659 0 is_stmt 1
	cmpw 7,0,9
	bne+ 7,.L688
	lwz 3,1128(31)
	mr 10,0
.L628:
.LBB3828:
	.loc 14 662 0
	cmpwi 7,3,0
	mr 9,3
	bne- 7,.L634
	.loc 14 663 0
	stw 27,1128(31)
	li 9,16
.L634:
	.loc 14 665 0
	add 11,10,9
.LVL1086:
	.loc 14 666 0
	divw 11,11,9
.LVL1087:
.LBB3825:
.LBB3821:
	.loc 14 375 0
	mullw. 9,11,9
.LVL1088:
	ble- 0,.L711
	.loc 14 380 0
	cmpw 7,9,10
	beq- 7,.L688
.LVL1089:
	.loc 14 387 0
	cmpw 7,0,9
	.loc 14 386 0
	stw 9,1124(31)
	.loc 14 387 0
	ble- 7,.L638
	.loc 14 388 0
	stw 9,1120(31)
.L638:
	.loc 14 392 0
	mulli 3,9,12
	bl _Znaj
.LVL1090:
	.loc 14 393 0
	lwz 0,1120(31)
	.loc 14 392 0
	stw 3,1132(31)
.LVL1091:
	.loc 14 393 0
	cmpwi 7,0,0
	ble- 7,.L639
	li 11,0
	li 10,0
	b .L640
.LVL1092:
.L712:
	lwz 3,1132(31)
.LVL1093:
.L640:
	.loc 14 394 0
	mr 9,25
	add 8,3,11
