	.file	"Game_local.cpp"
	.section	".text"
.Ltext0:
	.section	.text._ZN14idFixedWinding5ClearEv,"axG",@progbits,_ZN14idFixedWinding5ClearEv,comdat
	.align 2
	.weak	_ZN14idFixedWinding5ClearEv
	.type	_ZN14idFixedWinding5ClearEv, @function
_ZN14idFixedWinding5ClearEv:
.LFB1502:
	.file 1 "d:/Data/Nintendo/DoomGX/src/game/../idlib/../idlib/geometry/Winding.h"
	.loc 1 398 0
	.cfi_startproc
.LVL0:
	.loc 1 399 0
	li 0,0
	.loc 1 400 0
	.loc 1 399 0
	stw 0,4(3)
	.loc 1 400 0
	blr
	.cfi_endproc
.LFE1502:
	.size	_ZN14idFixedWinding5ClearEv, .-_ZN14idFixedWinding5ClearEv
	.section	.text._ZN6idDeclD2Ev,"axG",@progbits,_ZN6idDeclD5Ev,comdat
	.align 2
	.weak	_ZN6idDeclD2Ev
	.type	_ZN6idDeclD2Ev, @function
_ZN6idDeclD2Ev:
.LFB2259:
	.file 2 "d:/Data/Nintendo/DoomGX/src/game/../idlib/../framework/DeclManager.h"
	.loc 2 137 0
	.cfi_startproc
.LVL1:
.LBB3460:
	.loc 2 137 0
	lis 9,_ZTV6idDecl+8@ha
.LBE3460:
.LBB3461:
	la 0,_ZTV6idDecl+8@l(9)
	stw 0,0(3)
.LBE3461:
	blr
	.cfi_endproc
.LFE2259:
	.size	_ZN6idDeclD2Ev, .-_ZN6idDeclD2Ev
	.section	.text._ZN6idDecl14SetDefaultTextEv,"axG",@progbits,_ZN6idDecl14SetDefaultTextEv,comdat
	.align 2
	.weak	_ZN6idDecl14SetDefaultTextEv
	.type	_ZN6idDecl14SetDefaultTextEv, @function
_ZN6idDecl14SetDefaultTextEv:
.LFB2279:
	.loc 2 200 0
	.cfi_startproc
.LVL2:
	mflr 0
	stwu 1,-8(1)
.LCFI0:
	.cfi_def_cfa_offset 8
	.cfi_register 65, 0
	stw 0,12(1)
	.loc 2 200 0
	lwz 3,4(3)
.LVL3:
	lwz 9,0(3)
	lwz 0,80(9)
	.cfi_offset 65, 4
	mtctr 0
	bctrl
	lwz 0,12(1)
	addi 1,1,8
.LCFI1:
	.cfi_def_cfa_offset 0
	mtlr 0
	blr
	.cfi_endproc
.LFE2279:
	.size	_ZN6idDecl14SetDefaultTextEv, .-_ZN6idDecl14SetDefaultTextEv
	.section	.text._ZNK6idDecl17DefaultDefinitionEv,"axG",@progbits,_ZNK6idDecl17DefaultDefinitionEv,comdat
	.align 2
	.weak	_ZNK6idDecl17DefaultDefinitionEv
	.type	_ZNK6idDecl17DefaultDefinitionEv, @function
_ZNK6idDecl17DefaultDefinitionEv:
.LFB2280:
	.loc 2 207 0
	.cfi_startproc
.LVL4:
	mflr 0
	stwu 1,-8(1)
.LCFI2:
	.cfi_def_cfa_offset 8
	.cfi_register 65, 0
	stw 0,12(1)
	.loc 2 207 0
	lwz 3,4(3)
.LVL5:
	lwz 9,0(3)
	lwz 0,84(9)
	.cfi_offset 65, 4
	mtctr 0
	bctrl
	lwz 0,12(1)
	addi 1,1,8
.LCFI3:
	.cfi_def_cfa_offset 0
	mtlr 0
	blr
	.cfi_endproc
.LFE2280:
	.size	_ZNK6idDecl17DefaultDefinitionEv, .-_ZNK6idDecl17DefaultDefinitionEv
	.section	.text._ZN6idDecl5ParseEPKci,"axG",@progbits,_ZN6idDecl5ParseEPKci,comdat
	.align 2
	.weak	_ZN6idDecl5ParseEPKci
	.type	_ZN6idDecl5ParseEPKci, @function
_ZN6idDecl5ParseEPKci:
.LFB2281:
	.loc 2 214 0
	.cfi_startproc
.LVL6:
	mflr 0
	stwu 1,-8(1)
.LCFI4:
	.cfi_def_cfa_offset 8
	.cfi_register 65, 0
	stw 0,12(1)
	.loc 2 214 0
	lwz 3,4(3)
.LVL7:
	lwz 9,0(3)
	lwz 0,88(9)
	.cfi_offset 65, 4
	mtctr 0
	bctrl
.LVL8:
	lwz 0,12(1)
	addi 1,1,8
.LCFI5:
	.cfi_def_cfa_offset 0
	mtlr 0
	blr
	.cfi_endproc
.LFE2281:
	.size	_ZN6idDecl5ParseEPKci, .-_ZN6idDecl5ParseEPKci
	.section	.text._ZN6idDecl8FreeDataEv,"axG",@progbits,_ZN6idDecl8FreeDataEv,comdat
	.align 2
	.weak	_ZN6idDecl8FreeDataEv
	.type	_ZN6idDecl8FreeDataEv, @function
_ZN6idDecl8FreeDataEv:
.LFB2282:
	.loc 2 220 0
	.cfi_startproc
.LVL9:
	mflr 0
	stwu 1,-8(1)
.LCFI6:
	.cfi_def_cfa_offset 8
	.cfi_register 65, 0
	stw 0,12(1)
	.loc 2 220 0
	lwz 3,4(3)
.LVL10:
	lwz 9,0(3)
	lwz 0,92(9)
	.cfi_offset 65, 4
	mtctr 0
	bctrl
	lwz 0,12(1)
	addi 1,1,8
.LCFI7:
	.cfi_def_cfa_offset 0
	mtlr 0
	blr
	.cfi_endproc
.LFE2282:
	.size	_ZN6idDecl8FreeDataEv, .-_ZN6idDecl8FreeDataEv
	.section	.text._ZNK6idDecl4SizeEv,"axG",@progbits,_ZNK6idDecl4SizeEv,comdat
	.align 2
	.weak	_ZNK6idDecl4SizeEv
	.type	_ZNK6idDecl4SizeEv, @function
_ZNK6idDecl4SizeEv:
.LFB2283:
	.loc 2 223 0
	.cfi_startproc
.LVL11:
	mflr 0
	stwu 1,-8(1)
.LCFI8:
	.cfi_def_cfa_offset 8
	.cfi_register 65, 0
	stw 0,12(1)
	.loc 2 223 0
	lwz 3,4(3)
.LVL12:
	lwz 9,0(3)
	lwz 0,96(9)
	.cfi_offset 65, 4
	mtctr 0
	bctrl
	lwz 0,12(1)
	addi 1,1,8
.LCFI9:
	.cfi_def_cfa_offset 0
	mtlr 0
	blr
	.cfi_endproc
.LFE2283:
	.size	_ZNK6idDecl4SizeEv, .-_ZNK6idDecl4SizeEv
	.section	.text._ZNK6idDecl4ListEv,"axG",@progbits,_ZNK6idDecl4ListEv,comdat
	.align 2
	.weak	_ZNK6idDecl4ListEv
	.type	_ZNK6idDecl4ListEv, @function
_ZNK6idDecl4ListEv:
.LFB2284:
	.loc 2 228 0
	.cfi_startproc
.LVL13:
	mflr 0
	stwu 1,-8(1)
.LCFI10:
	.cfi_def_cfa_offset 8
	.cfi_register 65, 0
	stw 0,12(1)
	.loc 2 228 0
	lwz 3,4(3)
.LVL14:
	lwz 9,0(3)
	lwz 0,100(9)
	.cfi_offset 65, 4
	mtctr 0
	bctrl
	lwz 0,12(1)
	addi 1,1,8
.LCFI11:
	.cfi_def_cfa_offset 0
	mtlr 0
	blr
	.cfi_endproc
.LFE2284:
	.size	_ZNK6idDecl4ListEv, .-_ZNK6idDecl4ListEv
	.section	.text._ZNK6idDecl5PrintEv,"axG",@progbits,_ZNK6idDecl5PrintEv,comdat
	.align 2
	.weak	_ZNK6idDecl5PrintEv
	.type	_ZNK6idDecl5PrintEv, @function
_ZNK6idDecl5PrintEv:
.LFB2285:
	.loc 2 233 0
	.cfi_startproc
.LVL15:
	mflr 0
	stwu 1,-8(1)
.LCFI12:
	.cfi_def_cfa_offset 8
	.cfi_register 65, 0
	stw 0,12(1)
	.loc 2 233 0
	lwz 3,4(3)
.LVL16:
	lwz 9,0(3)
	lwz 0,104(9)
	.cfi_offset 65, 4
	mtctr 0
	bctrl
	lwz 0,12(1)
	addi 1,1,8
.LCFI13:
	.cfi_def_cfa_offset 0
	mtlr 0
	blr
	.cfi_endproc
.LFE2285:
	.size	_ZNK6idDecl5PrintEv, .-_ZNK6idDecl5PrintEv
	.section	.text._ZN6idGameD2Ev,"axG",@progbits,_ZN6idGameD5Ev,comdat
	.align 2
	.weak	_ZN6idGameD2Ev
	.type	_ZN6idGameD2Ev, @function
_ZN6idGameD2Ev:
.LFB2502:
	.file 3 "d:/Data/Nintendo/DoomGX/src/game/../idlib/../game/Game.h"
	.loc 3 74 0
	.cfi_startproc
.LVL17:
.LBB3462:
	.loc 3 74 0
	lis 9,_ZTV6idGame+8@ha
.LBE3462:
.LBB3463:
	la 0,_ZTV6idGame+8@l(9)
	stw 0,0(3)
.LBE3463:
	blr
	.cfi_endproc
.LFE2502:
	.size	_ZN6idGameD2Ev, .-_ZN6idGameD2Ev
	.section	".text"
	.align 2
	.globl _ZN11idGameLocal14SetLocalClientEi
	.type	_ZN11idGameLocal14SetLocalClientEi, @function
_ZN11idGameLocal14SetLocalClientEi:
.LFB2851:
	.file 4 "d:/Data/Nintendo/DoomGX/src/game/Game_local.cpp"
	.loc 4 698 0
	.cfi_startproc
.LVL18:
	.loc 4 699 0
	addis 3,3,0x25
.LVL19:
	stw 4,2020(3)
	.loc 4 700 0
	blr
	.cfi_endproc
.LFE2851:
	.size	_ZN11idGameLocal14SetLocalClientEi, .-_ZN11idGameLocal14SetLocalClientEi
	.align 2
	.globl _ZN11idGameLocal11GetUserInfoEi
	.type	_ZN11idGameLocal11GetUserInfoEi, @function
_ZN11idGameLocal11GetUserInfoEi:
.LFB2853:
	.loc 4 764 0
	.cfi_startproc
.LVL20:
	mflr 0
	stwu 1,-24(1)
.LCFI14:
	.cfi_def_cfa_offset 24
	.cfi_register 65, 0
	stw 29,12(1)
	mr 29,4
	.cfi_offset 29, -12
	stw 0,28(1)
	.loc 4 765 0
	addi 0,4,132
	.cfi_offset 65, 4
	.loc 4 764 0
	stw 30,16(1)
	.loc 4 765 0
	slwi 0,0,2
	.loc 4 764 0
	stw 31,20(1)
	.loc 4 765 0
	add 9,3,0
	.loc 4 764 0
	mr 30,3
	.cfi_offset 31, -4
	.cfi_offset 30, -8
	.loc 4 768 0
	li 31,0
	.loc 4 765 0
	lwz 3,4(9)
.LVL21:
	cmpwi 7,3,0
	beq- 7,.L15
.LVL22:
.LBB3464:
.LBB3465:
	.file 5 "d:/Data/Nintendo/DoomGX/src/game/gamesys/Class.h"
	.loc 5 340 0 discriminator 1
	lwz 9,0(3)
.LVL23:
	lwz 0,0(9)
	mtctr 0
	bctrl
.LVL24:
.LBE3465:
	.loc 4 4268 0 discriminator 1
	lis 9,_ZN8idPlayer4TypeE@ha
	la 9,_ZN8idPlayer4TypeE@l(9)
	lwz 0,56(3)
.LBB3468:
.LBB3466:
.LBB3467:
	.loc 5 311 0 discriminator 1
	lwz 11,56(9)
	cmpw 7,0,11
	blt- 7,.L15
	.loc 5 311 0 is_stmt 0
	lwz 9,60(9)
	cmpw 7,0,9
	bgt- 7,.L15
.LBE3467:
.LBE3466:
.LBE3468:
.LBE3464:
	.loc 4 766 0 is_stmt 1 discriminator 4
	mulli 31,29,44
	add 31,30,31
	addi 31,31,52
.LVL25:
.L15:
	.loc 4 769 0
	lwz 0,28(1)
	mr 3,31
	lwz 29,12(1)
.LVL26:
	mtlr 0
	lwz 30,16(1)
.LVL27:
	lwz 31,20(1)
	addi 1,1,24
.LCFI15:
	.cfi_def_cfa_offset 0
	.cfi_restore 31
	.cfi_restore 30
	.cfi_restore 29
	blr
	.cfi_endproc
.LFE2853:
	.size	_ZN11idGameLocal11GetUserInfoEi, .-_ZN11idGameLocal11GetUserInfoEi
	.align 2
	.globl _ZN11idGameLocal22HandleMainMenuCommandsEPKcP15idUserInterface
	.type	_ZN11idGameLocal22HandleMainMenuCommandsEPKcP15idUserInterface, @function
_ZN11idGameLocal22HandleMainMenuCommandsEPKcP15idUserInterface:
.LFB2893:
	.loc 4 2393 0
	.cfi_startproc
.LVL28:
	.loc 4 2393 0
	blr
	.cfi_endproc
.LFE2893:
	.size	_ZN11idGameLocal22HandleMainMenuCommandsEPKcP15idUserInterface, .-_ZN11idGameLocal22HandleMainMenuCommandsEPKcP15idUserInterface
	.align 2
	.globl _ZN11idGameLocal15sortSpawnPointsEPKvS1_
	.type	_ZN11idGameLocal15sortSpawnPointsEPKvS1_, @function
_ZN11idGameLocal15sortSpawnPointsEPKvS1_:
.LFB2957:
	.loc 4 3978 0
	.cfi_startproc
.LVL29:
	stwu 1,-16(1)
.LCFI16:
	.cfi_def_cfa_offset 16
.LBB3469:
	.loc 4 3983 0
	lwz 0,4(3)
	.loc 4 3985 0
	li 3,1
.LVL30:
	.loc 4 3983 0
	lwz 9,4(4)
	subf 0,9,0
	lis 9,.LC1@ha
	xoris 0,0,0x8000
	lfs 0,.LC1@l(9)
	stw 0,12(1)
	lis 0,0x4330
	stw 0,8(1)
	.loc 4 3984 0
	lis 9,.LC2@ha
	.loc 4 3983 0
	lfd 13,8(1)
	fsub 13,13,0
	.loc 4 3984 0
	lfs 0,.LC2@l(9)
	.loc 4 3983 0
	frsp 13,13
.LVL31:
	.loc 4 3984 0
	fcmpu 7,13,0
	blt- 7,.L22
	.loc 4 3986 0
	bgt- 7,.L28
	.loc 4 3989 0
	li 3,0
.L22:
.LBE3469:
	.loc 4 3991 0
	addi 1,1,16
	.cfi_remember_state
.LCFI17:
	.cfi_def_cfa_offset 0
	blr
.L28:
.LCFI18:
	.cfi_restore_state
.LBB3470:
	.loc 4 3987 0
	li 3,-1
	b .L22
.LBE3470:
	.cfi_endproc
.LFE2957:
	.size	_ZN11idGameLocal15sortSpawnPointsEPKvS1_, .-_ZN11idGameLocal15sortSpawnPointsEPKvS1_
	.align 2
	.globl _ZN11idGameLocal15SelectTimeGroupEi
	.type	_ZN11idGameLocal15SelectTimeGroupEi, @function
_ZN11idGameLocal15SelectTimeGroupEi:
.LFB2965:
	.loc 4 4181 0
	.cfi_startproc
.LVL32:
	.loc 4 4181 0
	blr
	.cfi_endproc
.LFE2965:
	.size	_ZN11idGameLocal15SelectTimeGroupEi, .-_ZN11idGameLocal15SelectTimeGroupEi
	.align 2
	.globl _ZN11idGameLocal16GetTimeGroupTimeEi
	.type	_ZN11idGameLocal16GetTimeGroupTimeEi, @function
_ZN11idGameLocal16GetTimeGroupTimeEi:
.LFB2966:
	.loc 4 4188 0
	.cfi_startproc
.LVL33:
	.loc 4 4189 0
	lis 9,.LANCHOR0+2426836@ha
	.loc 4 4190 0
	lwz 3,.LANCHOR0+2426836@l(9)
.LVL34:
	blr
	.cfi_endproc
.LFE2966:
	.size	_ZN11idGameLocal16GetTimeGroupTimeEi, .-_ZN11idGameLocal16GetTimeGroupTimeEi
	.align 2
	.globl _ZN11idGameLocal16GetMapLoadingGUIEPc
	.type	_ZN11idGameLocal16GetMapLoadingGUIEPc, @function
_ZN11idGameLocal16GetMapLoadingGUIEPc:
.LFB2971:
	.loc 4 4268 0
	.cfi_startproc
.LVL35:
	.loc 4 4268 0
	blr
	.cfi_endproc
.LFE2971:
	.size	_ZN11idGameLocal16GetMapLoadingGUIEPc, .-_ZN11idGameLocal16GetMapLoadingGUIEPc
	.section	.text._Z13idListDecls_fIL10declType_t5EEvRK9idCmdArgs,"axG",@progbits,_Z13idListDecls_fIL10declType_t5EEvRK9idCmdArgs,comdat
	.align 2
	.weak	_Z13idListDecls_fIL10declType_t5EEvRK9idCmdArgs
	.type	_Z13idListDecls_fIL10declType_t5EEvRK9idCmdArgs, @function
_Z13idListDecls_fIL10declType_t5EEvRK9idCmdArgs:
.LFB3227:
	.loc 2 332 0
	.cfi_startproc
.LVL36:
	mflr 0
	stwu 1,-8(1)
.LCFI19:
	.cfi_def_cfa_offset 8
	.cfi_register 65, 0
	.loc 2 333 0
	lis 9,declManager@ha
	.loc 2 332 0
	mr 4,3
	.loc 2 333 0
	lwz 9,declManager@l(9)
	li 5,5
	.loc 2 332 0
	stw 0,12(1)
	.loc 2 333 0
	mr 3,9
.LVL37:
	lwz 11,0(9)
	lwz 0,80(11)
	.cfi_offset 65, 4
	mtctr 0
	bctrl
.LVL38:
	.loc 2 334 0
	lwz 0,12(1)
	addi 1,1,8
.LCFI20:
	.cfi_def_cfa_offset 0
	mtlr 0
	blr
	.cfi_endproc
.LFE3227:
	.size	_Z13idListDecls_fIL10declType_t5EEvRK9idCmdArgs, .-_Z13idListDecls_fIL10declType_t5EEvRK9idCmdArgs
	.section	.text._Z14idPrintDecls_fIL10declType_t5EEvRK9idCmdArgs,"axG",@progbits,_Z14idPrintDecls_fIL10declType_t5EEvRK9idCmdArgs,comdat
	.align 2
	.weak	_Z14idPrintDecls_fIL10declType_t5EEvRK9idCmdArgs
	.type	_Z14idPrintDecls_fIL10declType_t5EEvRK9idCmdArgs, @function
_Z14idPrintDecls_fIL10declType_t5EEvRK9idCmdArgs:
.LFB3228:
	.loc 2 337 0
	.cfi_startproc
.LVL39:
	mflr 0
	stwu 1,-8(1)
.LCFI21:
	.cfi_def_cfa_offset 8
	.cfi_register 65, 0
	.loc 2 338 0
	lis 9,declManager@ha
	.loc 2 337 0
	mr 4,3
	.loc 2 338 0
	lwz 9,declManager@l(9)
	li 5,5
	.loc 2 337 0
	stw 0,12(1)
	.loc 2 338 0
	mr 3,9
.LVL40:
	lwz 11,0(9)
	lwz 0,84(11)
	.cfi_offset 65, 4
	mtctr 0
	bctrl
.LVL41:
	.loc 2 339 0
	lwz 0,12(1)
	addi 1,1,8
.LCFI22:
	.cfi_def_cfa_offset 0
	mtlr 0
	blr
	.cfi_endproc
.LFE3228:
	.size	_Z14idPrintDecls_fIL10declType_t5EEvRK9idCmdArgs, .-_Z14idPrintDecls_fIL10declType_t5EEvRK9idCmdArgs
	.section	.text._ZN11idCmdSystem18ArgCompletion_DeclILi5EEEvRK9idCmdArgsPFvPKcE,"axG",@progbits,_ZN11idCmdSystem18ArgCompletion_DeclILi5EEEvRK9idCmdArgsPFvPKcE,comdat
	.align 2
	.weak	_ZN11idCmdSystem18ArgCompletion_DeclILi5EEEvRK9idCmdArgsPFvPKcE
	.type	_ZN11idCmdSystem18ArgCompletion_DeclILi5EEEvRK9idCmdArgsPFvPKcE, @function
_ZN11idCmdSystem18ArgCompletion_DeclILi5EEEvRK9idCmdArgsPFvPKcE:
.LFB3229:
	.file 6 "d:/Data/Nintendo/DoomGX/src/game/../idlib/../framework/CmdSystem.h"
	.loc 6 148 0
	.cfi_startproc
.LVL42:
	mflr 0
	stwu 1,-8(1)
.LCFI23:
	.cfi_def_cfa_offset 8
	.cfi_register 65, 0
	.loc 6 149 0
	lis 9,cmdSystem@ha
	.loc 6 148 0
	mr 11,3
	.loc 6 149 0
	lwz 9,cmdSystem@l(9)
	.loc 6 148 0
	mr 5,4
	stw 0,12(1)
	.loc 6 149 0
	mr 4,11
.LVL43:
	mr 3,9
.LVL44:
	li 6,5
	lwz 10,0(9)
	lwz 0,48(10)
	.cfi_offset 65, 4
	mtctr 0
	bctrl
.LVL45:
	.loc 6 150 0
	lwz 0,12(1)
	addi 1,1,8
.LCFI24:
	.cfi_def_cfa_offset 0
	mtlr 0
	blr
	.cfi_endproc
.LFE3229:
	.size	_ZN11idCmdSystem18ArgCompletion_DeclILi5EEEvRK9idCmdArgsPFvPKcE, .-_ZN11idCmdSystem18ArgCompletion_DeclILi5EEEvRK9idCmdArgsPFvPKcE
	.section	.text._ZN9idWinding5ClearEv,"axG",@progbits,_ZN9idWinding5ClearEv,comdat
	.align 2
	.weak	_ZN9idWinding5ClearEv
	.type	_ZN9idWinding5ClearEv, @function
_ZN9idWinding5ClearEv:
.LFB1473:
	.loc 1 249 0
	.cfi_startproc
.LVL46:
	mflr 0
	stwu 1,-16(1)
.LCFI25:
	.cfi_def_cfa_offset 16
	.cfi_register 65, 0
	stw 31,12(1)
	mr 31,3
	.cfi_offset 31, -4
	stw 0,20(1)
	.loc 1 250 0
	li 0,0
	.cfi_offset 65, 4
	.loc 1 251 0
	lwz 3,8(3)
.LVL47:
	.loc 1 250 0
	stw 0,4(31)
	.loc 1 251 0
	cmpwi 7,3,0
	beq- 7,.L36
	.loc 1 251 0 is_stmt 0 discriminator 1
	bl _ZdaPv
.L36:
	.loc 1 252 0 is_stmt 1
	li 0,0
	stw 0,8(31)
	.loc 1 253 0
	lwz 0,20(1)
	lwz 31,12(1)
.LVL48:
	mtlr 0
	addi 1,1,16
.LCFI26:
	.cfi_def_cfa_offset 0
	.cfi_restore 31
	blr
	.cfi_endproc
.LFE1473:
	.size	_ZN9idWinding5ClearEv, .-_ZN9idWinding5ClearEv
	.section	.text._ZN9idWindingD2Ev,"axG",@progbits,_ZN9idWindingD5Ev,comdat
	.align 2
	.weak	_ZN9idWindingD2Ev
	.type	_ZN9idWindingD2Ev, @function
_ZN9idWindingD2Ev:
.LFB1461:
	.loc 1 183 0
	.cfi_startproc
.LVL49:
	mflr 0
	stwu 1,-16(1)
.LCFI27:
	.cfi_def_cfa_offset 16
	.cfi_register 65, 0
.LBB3472:
	lis 9,_ZTV9idWinding+8@ha
.LBE3472:
	stw 31,12(1)
	mr 31,3
	.cfi_offset 31, -4
	stw 0,20(1)
.LBB3473:
	.loc 1 183 0
	la 0,_ZTV9idWinding+8@l(9)
	.cfi_offset 65, 4
	.loc 1 184 0
	lwz 3,8(3)
.LVL50:
	.loc 1 183 0
	stw 0,0(31)
	.loc 1 184 0
	cmpwi 7,3,0
	beq- 7,.L38
	.loc 1 184 0 is_stmt 0 discriminator 1
	bl _ZdaPv
.L38:
	.loc 1 185 0 is_stmt 1
	li 0,0
	stw 0,8(31)
.LBE3473:
	.loc 1 186 0
	lwz 0,20(1)
	lwz 31,12(1)
.LVL51:
	mtlr 0
	addi 1,1,16
.LCFI28:
	.cfi_def_cfa_offset 0
	.cfi_restore 31
	blr
	.cfi_endproc
.LFE1461:
	.size	_ZN9idWindingD2Ev, .-_ZN9idWindingD2Ev
	.section	.text._ZN6idGameD0Ev,"axG",@progbits,_ZN6idGameD5Ev,comdat
	.align 2
	.weak	_ZN6idGameD0Ev
	.type	_ZN6idGameD0Ev, @function
_ZN6idGameD0Ev:
.LFB2504:
	.loc 3 74 0
	.cfi_startproc
.LVL52:
	mflr 0
	stwu 1,-8(1)
.LCFI29:
	.cfi_def_cfa_offset 8
	.cfi_register 65, 0
.LBB3474:
.LBB3475:
.LBB3476:
	lis 9,_ZTV6idGame+8@ha
.LBE3476:
.LBE3475:
.LBE3474:
	stw 0,12(1)
.LBB3479:
.LBB3478:
.LBB3477:
	.loc 3 74 0
	la 0,_ZTV6idGame+8@l(9)
	.cfi_offset 65, 4
	stw 0,0(3)
.LBE3477:
.LBE3478:
.LBE3479:
	bl _ZdlPv
.LVL53:
	lwz 0,12(1)
	addi 1,1,8
.LCFI30:
	.cfi_def_cfa_offset 0
	mtlr 0
	blr
	.cfi_endproc
.LFE2504:
	.size	_ZN6idGameD0Ev, .-_ZN6idGameD0Ev
	.section	.text._ZN6idDeclD0Ev,"axG",@progbits,_ZN6idDeclD5Ev,comdat
	.align 2
	.weak	_ZN6idDeclD0Ev
	.type	_ZN6idDeclD0Ev, @function
_ZN6idDeclD0Ev:
.LFB2261:
	.loc 2 137 0
	.cfi_startproc
.LVL54:
	mflr 0
	stwu 1,-8(1)
.LCFI31:
	.cfi_def_cfa_offset 8
	.cfi_register 65, 0
.LBB3480:
.LBB3481:
.LBB3482:
	lis 9,_ZTV6idDecl+8@ha
.LBE3482:
.LBE3481:
.LBE3480:
	stw 0,12(1)
.LBB3485:
.LBB3484:
.LBB3483:
	.loc 2 137 0
	la 0,_ZTV6idDecl+8@l(9)
	.cfi_offset 65, 4
	stw 0,0(3)
.LBE3483:
.LBE3484:
.LBE3485:
	bl _ZdlPv
.LVL55:
	lwz 0,12(1)
	addi 1,1,8
.LCFI32:
	.cfi_def_cfa_offset 0
	mtlr 0
	blr
	.cfi_endproc
.LFE2261:
	.size	_ZN6idDeclD0Ev, .-_ZN6idDeclD0Ev
	.section	".text"
	.align 2
	.globl _ZN11idGameLocal10SwitchTeamEii
	.type	_ZN11idGameLocal10SwitchTeamEii, @function
_ZN11idGameLocal10SwitchTeamEii:
.LFB2970:
	.loc 4 4243 0
	.cfi_startproc
.LVL56:
.LBB3486:
	.loc 4 4246 0
	mr. 9,4
.LBE3486:
	.loc 4 4243 0
	mflr 0
	stwu 1,-8(1)
.LCFI33:
	.cfi_def_cfa_offset 8
	.cfi_register 65, 0
	mr 6,5
	stw 0,12(1)
.LBB3487:
	.loc 4 4246 0
	blt- 0,.L46
	.cfi_offset 65, 4
	.loc 4 4246 0 is_stmt 0 discriminator 1
	addi 9,9,132
	lis 11,.LANCHOR0@ha
	slwi 9,9,2
	la 11,.LANCHOR0@l(11)
	add 11,11,9
	lwz 11,4(11)
.LVL57:
	.loc 4 4248 0 is_stmt 1 discriminator 1
	cmpwi 7,11,0
	beq- 7,.L46
	.loc 4 4254 0
	cmpwi 7,5,-1
	.loc 4 4251 0
	lwz 5,2260(11)
.LVL58:
	.loc 4 4254 0
	beq- 7,.L49
	.loc 4 4259 0
	addis 3,3,0x25
.LVL59:
	addi 3,3,1416
.LVL60:
	bl _ZN17idMultiplayerGame12SwitchToTeamEiii
.LVL61:
.L46:
.LBE3487:
	.loc 4 4261 0
	lwz 0,12(1)
	addi 1,1,8
	.cfi_remember_state
.LCFI34:
	.cfi_def_cfa_offset 0
	mtlr 0
	blr
.LVL62:
.L49:
.LCFI35:
	.cfi_restore_state
.LBB3488:
	.loc 4 4255 0
	add 9,3,9
	li 4,1
.LVL63:
	lwz 3,4(9)
.LVL64:
	bl _ZN8idPlayer8SpectateEb
.LVL65:
.LBE3488:
	.loc 4 4261 0
	lwz 0,12(1)
	addi 1,1,8
.LCFI36:
	.cfi_def_cfa_offset 0
	mtlr 0
	blr
	.cfi_endproc
.LFE2970:
	.size	_ZN11idGameLocal10SwitchTeamEii, .-_ZN11idGameLocal10SwitchTeamEii
	.align 2
	.globl _ZN11idGameLocal14GetClientStatsEiPci
	.type	_ZN11idGameLocal14GetClientStatsEiPci, @function
_ZN11idGameLocal14GetClientStatsEiPci:
.LFB2969:
	.loc 4 4233 0
	.cfi_startproc
.LVL66:
	mflr 0
	stwu 1,-8(1)
.LCFI37:
	.cfi_def_cfa_offset 8
	.cfi_register 65, 0
	.loc 4 4234 0
	addis 3,3,0x25
.LVL67:
	addi 3,3,1416
.LVL68:
	.loc 4 4233 0
	stw 0,12(1)
	.loc 4 4234 0
	.cfi_offset 65, 4
	bl _ZN17idMultiplayerGame11PlayerStatsEiPci
.LVL69:
	.loc 4 4235 0
	lwz 0,12(1)
	addi 1,1,8
.LCFI38:
	.cfi_def_cfa_offset 0
	mtlr 0
	blr
	.cfi_endproc
.LFE2969:
	.size	_ZN11idGameLocal14GetClientStatsEiPci, .-_ZN11idGameLocal14GetClientStatsEiPci
	.align 2
	.globl _ZN11idGameLocal23SetPersistentPlayerInfoEiRK6idDict
	.type	_ZN11idGameLocal23SetPersistentPlayerInfoEiRK6idDict, @function
_ZN11idGameLocal23SetPersistentPlayerInfoEiRK6idDict:
.LFB2844:
	.loc 4 567 0
	.cfi_startproc
.LVL70:
	mflr 0
	stwu 1,-8(1)
.LCFI39:
	.cfi_def_cfa_offset 8
	.cfi_register 65, 0
	stw 0,12(1)
	.loc 4 568 0
	mulli 0,4,44
	.cfi_offset 65, 4
	mr 4,5
.LVL71:
	add 3,3,0
.LVL72:
	addi 3,3,356
	bl _ZN6idDictaSERKS_
.LVL73:
	.loc 4 569 0
	lwz 0,12(1)
	addi 1,1,8
.LCFI40:
	.cfi_def_cfa_offset 0
	mtlr 0
	blr
	.cfi_endproc
.LFE2844:
	.size	_ZN11idGameLocal23SetPersistentPlayerInfoEiRK6idDict, .-_ZN11idGameLocal23SetPersistentPlayerInfoEiRK6idDict
	.align 2
	.globl _ZN11idGameLocal15GetBestGameTypeEPKcS1_Pc
	.type	_ZN11idGameLocal15GetBestGameTypeEPKcS1_Pc, @function
_ZN11idGameLocal15GetBestGameTypeEPKcS1_Pc:
.LFB2967:
	.loc 4 4197 0
	.cfi_startproc
.LVL74:
	mflr 0
	stwu 1,-16(1)
.LCFI41:
	.cfi_def_cfa_offset 16
	.cfi_register 65, 0
	.loc 4 4198 0
	mr 4,5
.LVL75:
	mr 3,6
.LVL76:
	li 5,1024
.LVL77:
	.loc 4 4197 0
	stw 31,12(1)
	stw 0,20(1)
	.loc 4 4197 0
	mr 31,6
	.cfi_offset 65, 4
	.cfi_offset 31, -4
	.loc 4 4198 0
	bl strncpy
.LVL78:
	.loc 4 4199 0
	li 0,0
	stb 0,1023(31)
	.loc 4 4200 0
	lwz 0,20(1)
	lwz 31,12(1)
.LVL79:
	mtlr 0
	addi 1,1,16
.LCFI42:
	.cfi_def_cfa_offset 0
	.cfi_restore 31
	blr
	.cfi_endproc
.LFE2967:
	.size	_ZN11idGameLocal15GetBestGameTypeEPKcS1_Pc, .-_ZN11idGameLocal15GetBestGameTypeEPKcS1_Pc
	.align 2
	.globl _ZN11idGameLocal16ThrottleUserInfoEv
	.type	_ZN11idGameLocal16ThrottleUserInfoEv, @function
_ZN11idGameLocal16ThrottleUserInfoEv:
.LFB2964:
	.loc 4 4172 0
	.cfi_startproc
.LVL80:
	mflr 0
	stwu 1,-8(1)
.LCFI43:
	.cfi_def_cfa_offset 8
	.cfi_register 65, 0
	.loc 4 4173 0
	addis 3,3,0x25
.LVL81:
	addi 3,3,1416
.LVL82:
	.loc 4 4172 0
	stw 0,12(1)
	.loc 4 4173 0
	.cfi_offset 65, 4
	bl _ZN17idMultiplayerGame16ThrottleUserInfoEv
.LVL83:
	.loc 4 4174 0
	lwz 0,12(1)
	addi 1,1,8
.LCFI44:
	.cfi_def_cfa_offset 0
	mtlr 0
	blr
	.cfi_endproc
.LFE2964:
	.size	_ZN11idGameLocal16ThrottleUserInfoEv, .-_ZN11idGameLocal16ThrottleUserInfoEv
	.section	.text._Z15idDeclAllocatorI6idDeclEPS0_v,"axG",@progbits,_Z15idDeclAllocatorI6idDeclEPS0_v,comdat
	.align 2
	.weak	_Z15idDeclAllocatorI6idDeclEPS0_v
	.type	_Z15idDeclAllocatorI6idDeclEPS0_v, @function
_Z15idDeclAllocatorI6idDeclEPS0_v:
.LFB3226:
	.loc 2 241 0
	.cfi_startproc
	mflr 0
	stwu 1,-8(1)
.LCFI45:
	.cfi_def_cfa_offset 8
	.cfi_register 65, 0
	.loc 2 242 0
	li 3,8
	.loc 2 241 0
	stw 0,12(1)
	.loc 2 242 0
	.cfi_offset 65, 4
	bl _Znwj
.LVL84:
.LBB3489:
.LBB3490:
	.loc 2 136 0
	lis 11,_ZTV6idDecl+8@ha
	la 0,_ZTV6idDecl+8@l(11)
	stw 0,0(3)
	li 0,0
	stw 0,4(3)
.LBE3490:
.LBE3489:
	.loc 2 243 0
	lwz 0,12(1)
	addi 1,1,8
.LCFI46:
	.cfi_def_cfa_offset 0
	mtlr 0
	blr
	.cfi_endproc
.LFE3226:
	.size	_Z15idDeclAllocatorI6idDeclEPS0_v, .-_Z15idDeclAllocatorI6idDeclEPS0_v
	.section	".text"
	.align 2
	.globl _ZN11idGameLocal17HandleGuiCommandsEPKc
	.type	_ZN11idGameLocal17HandleGuiCommandsEPKc, @function
_ZN11idGameLocal17HandleGuiCommandsEPKc:
.LFB2892:
	.loc 4 2381 0
	.cfi_startproc
.LVL85:
	mflr 0
	stwu 1,-8(1)
.LCFI47:
	.cfi_def_cfa_offset 8
	.cfi_register 65, 0
	.loc 4 2382 0
	addis 9,3,0x25
	.loc 4 2383 0
	li 3,0
.LVL86:
	.loc 4 2381 0
	stw 0,12(1)
	.loc 4 2382 0
	lbz 0,2016(9)
	.cfi_offset 65, 4
	cmpwi 7,0,0
	beq- 7,.L56
	.loc 4 2385 0
	addi 3,9,1416
	bl _ZN17idMultiplayerGame17HandleGuiCommandsEPKc
.LVL87:
.L56:
	.loc 4 2386 0
	lwz 0,12(1)
	addi 1,1,8
.LCFI48:
	.cfi_def_cfa_offset 0
	mtlr 0
	blr
	.cfi_endproc
.LFE2892:
	.size	_ZN11idGameLocal17HandleGuiCommandsEPKc, .-_ZN11idGameLocal17HandleGuiCommandsEPKc
	.align 2
	.globl _ZN11idGameLocal9StartMenuEv
	.type	_ZN11idGameLocal9StartMenuEv, @function
_ZN11idGameLocal9StartMenuEv:
.LFB2891:
	.loc 4 2369 0
	.cfi_startproc
.LVL88:
	mflr 0
	stwu 1,-8(1)
.LCFI49:
	.cfi_def_cfa_offset 8
	.cfi_register 65, 0
	.loc 4 2370 0
	addis 9,3,0x25
	.loc 4 2371 0
	li 3,0
.LVL89:
	.loc 4 2369 0
	stw 0,12(1)
	.loc 4 2370 0
	lbz 0,2016(9)
	.cfi_offset 65, 4
	cmpwi 7,0,0
	beq- 7,.L59
	.loc 4 2373 0
	addi 3,9,1416
	bl _ZN17idMultiplayerGame9StartMenuEv
.LVL90:
.L59:
	.loc 4 2374 0
	lwz 0,12(1)
	addi 1,1,8
.LCFI50:
	.cfi_def_cfa_offset 0
	mtlr 0
	blr
	.cfi_endproc
.LFE2891:
	.size	_ZN11idGameLocal9StartMenuEv, .-_ZN11idGameLocal9StartMenuEv
	.align 2
	.globl _ZN11idGameLocal23GetPersistentPlayerInfoEi
	.type	_ZN11idGameLocal23GetPersistentPlayerInfoEi, @function
_ZN11idGameLocal23GetPersistentPlayerInfoEi:
.LFB2843:
	.loc 4 550 0
	.cfi_startproc
.LVL91:
	stwu 1,-24(1)
.LCFI51:
	.cfi_def_cfa_offset 24
	mflr 0
	stw 30,16(1)
.LBB3491:
	.loc 4 553 0
	mulli 30,4,44
	.cfi_offset 30, -8
	.cfi_register 65, 0
.LBE3491:
	.loc 4 550 0
	stw 29,12(1)
	mr 29,4
	.cfi_offset 29, -12
.LBB3497:
	.loc 4 553 0
	add 30,3,30
	.loc 4 554 0
	addi 29,29,132
.LBE3497:
	.loc 4 550 0
	stw 31,20(1)
.LBB3498:
	.loc 4 553 0
	addi 30,30,356
.LBE3498:
	.loc 4 550 0
	mr 31,3
	.cfi_offset 31, -4
.LBB3499:
	.loc 4 554 0
	slwi 29,29,2
	.loc 4 553 0
	mr 3,30
.LVL92:
	.loc 4 554 0
	add 31,31,29
.LVL93:
.LBE3499:
	.loc 4 550 0
	stw 0,28(1)
.LBB3500:
	.loc 4 553 0
	.cfi_offset 65, 4
	bl _ZN6idDict5ClearEv
.LVL94:
	.loc 4 554 0
	lwz 31,4(31)
.LVL95:
	.loc 4 555 0
	cmpwi 7,31,0
	beq- 7,.L62
.LVL96:
.LBB3492:
.LBB3493:
	.loc 5 340 0 discriminator 1
	lwz 9,0(31)
	mr 3,31
	lwz 0,0(9)
	mtctr 0
	bctrl
.LVL97:
.LBE3493:
	.loc 4 4268 0 discriminator 1
	lis 9,_ZN8idPlayer4TypeE@ha
	la 9,_ZN8idPlayer4TypeE@l(9)
	lwz 0,56(3)
.LBB3496:
.LBB3494:
.LBB3495:
	.loc 5 311 0 discriminator 1
	lwz 11,56(9)
	cmpw 7,0,11
	blt- 7,.L62
	.loc 5 311 0 is_stmt 0
	lwz 9,60(9)
	cmpw 7,0,9
	bgt- 7,.L62
.LBE3495:
.LBE3494:
.LBE3496:
.LBE3492:
	.loc 4 556 0 is_stmt 1 discriminator 4
	mr 3,31
.LVL98:
	bl _ZN8idPlayer18SavePersistantInfoEv
.LVL99:
.L62:
.LBE3500:
	.loc 4 560 0
	lwz 0,28(1)
	mr 3,30
	lwz 29,12(1)
	mtlr 0
	lwz 30,16(1)
	lwz 31,20(1)
.LVL100:
	addi 1,1,24
.LCFI52:
	.cfi_def_cfa_offset 0
	.cfi_restore 31
	.cfi_restore 30
	.cfi_restore 29
	blr
	.cfi_endproc
.LFE2843:
	.size	_ZN11idGameLocal23GetPersistentPlayerInfoEi, .-_ZN11idGameLocal23GetPersistentPlayerInfoEi
	.section	.text._Z15idDeclAllocatorI14idDeclModelDefEP6idDeclv,"axG",@progbits,_Z15idDeclAllocatorI14idDeclModelDefEP6idDeclv,comdat
	.align 2
	.weak	_Z15idDeclAllocatorI14idDeclModelDefEP6idDeclv
	.type	_Z15idDeclAllocatorI14idDeclModelDefEP6idDeclv, @function
_Z15idDeclAllocatorI14idDeclModelDefEP6idDeclv:
.LFB3225:
	.loc 2 241 0
	.cfi_startproc
	.cfi_personality 0,__gxx_personality_v0
	.cfi_lsda 0,.LLSDA3225
	mflr 0
	stwu 1,-16(1)
.LCFI53:
	.cfi_def_cfa_offset 16
	.cfi_register 65, 0
	.loc 2 242 0
	li 3,156
	.loc 2 241 0
	stw 31,12(1)
	stw 0,20(1)
	stw 30,8(1)
.LEHB0:
	.loc 2 242 0
	.cfi_offset 30, -8
	.cfi_offset 65, 4
	.cfi_offset 31, -4
	bl _Znwj
.LEHE0:
	mr 31,3
.LEHB1:
	bl _ZN14idDeclModelDefC1Ev
.LEHE1:
	.loc 2 243 0 discriminator 1
	lwz 0,20(1)
	mr 3,31
	lwz 30,8(1)
	mtlr 0
	lwz 31,12(1)
	addi 1,1,16
	.cfi_remember_state
.LCFI54:
	.cfi_def_cfa_offset 0
	.cfi_restore 31
	.cfi_restore 30
	blr
.L65:
.LCFI55:
	.cfi_restore_state
	mr 30,3
	.loc 2 242 0
	mr 3,31
	bl _ZdlPv
	mr 3,30
.LEHB2:
	bl _Unwind_Resume
.LEHE2:
	.cfi_endproc
.LFE3225:
	.globl __gxx_personality_v0
	.section	.gcc_except_table,"a",@progbits
.LLSDA3225:
	.byte	0xff
	.byte	0xff
	.byte	0x1
	.uleb128 .LLSDACSE3225-.LLSDACSB3225
.LLSDACSB3225:
	.uleb128 .LEHB0-.LFB3225
	.uleb128 .LEHE0-.LEHB0
	.uleb128 0
	.uleb128 0
	.uleb128 .LEHB1-.LFB3225
	.uleb128 .LEHE1-.LEHB1
	.uleb128 .L65-.LFB3225
	.uleb128 0
	.uleb128 .LEHB2-.LFB3225
	.uleb128 .LEHE2-.LEHB2
	.uleb128 0
	.uleb128 0
.LLSDACSE3225:
	.section	.text._Z15idDeclAllocatorI14idDeclModelDefEP6idDeclv,"axG",@progbits,_Z15idDeclAllocatorI14idDeclModelDefEP6idDeclv,comdat
	.size	_Z15idDeclAllocatorI14idDeclModelDefEP6idDeclv, .-_Z15idDeclAllocatorI14idDeclModelDefEP6idDeclv
	.section	".text"
	.align 2
	.globl _ZN11idGameLocal4DrawEi
	.type	_ZN11idGameLocal4DrawEi, @function
_ZN11idGameLocal4DrawEi:
.LFB2889:
	.loc 4 2325 0
	.cfi_startproc
.LVL101:
	mflr 0
	stwu 1,-8(1)
.LCFI56:
	.cfi_def_cfa_offset 8
	.cfi_register 65, 0
.LBB3505:
	.loc 4 2326 0
	addis 9,3,0x25
.LBE3505:
	.loc 4 2325 0
	stw 0,12(1)
.LBB3506:
	.loc 4 2326 0
	lbz 0,2016(9)
	.cfi_offset 65, 4
	cmpwi 7,0,0
	bne- 7,.L70
	.loc 4 2330 0
	addi 11,4,132
	slwi 11,11,2
	add 3,3,11
.LVL102:
	lwz 9,4(3)
.LVL103:
	.loc 4 2333 0
	li 3,0
.LVL104:
	.loc 4 2332 0
	cmpwi 7,9,0
	beq- 7,.L68
	.loc 4 2337 0
	lwz 4,5140(9)
.LVL105:
	addi 3,9,3976
	bl _ZN12idPlayerView16RenderPlayerViewEP15idUserInterface
.LVL106:
	.loc 4 2339 0
	li 3,1
.L68:
.LBE3506:
	.loc 4 2340 0
	lwz 0,12(1)
	addi 1,1,8
	.cfi_remember_state
.LCFI57:
	.cfi_def_cfa_offset 0
	mtlr 0
	blr
.LVL107:
.L70:
.LCFI58:
	.cfi_restore_state
.LBB3507:
.LBB3508:
	.loc 4 2327 0
	addi 3,9,1416
.LVL108:
	bl _ZN17idMultiplayerGame4DrawEi
.LVL109:
.LBE3508:
.LBE3507:
	.loc 4 2340 0
	lwz 0,12(1)
	addi 1,1,8
.LCFI59:
	.cfi_def_cfa_offset 0
	mtlr 0
	blr
	.cfi_endproc
.LFE2889:
	.size	_ZN11idGameLocal4DrawEi, .-_ZN11idGameLocal4DrawEi
	.section	.text._ZN14idFixedWindingD2Ev,"axG",@progbits,_ZN14idFixedWindingD5Ev,comdat
	.align 2
	.weak	_ZN14idFixedWindingD2Ev
	.type	_ZN14idFixedWindingD2Ev, @function
_ZN14idFixedWindingD2Ev:
.LFB1498:
	.loc 1 380 0
	.cfi_startproc
.LVL110:
.LBB3514:
	.loc 1 381 0
	li 0,0
.LBB3515:
.LBB3516:
.LBB3517:
	.loc 1 183 0
	lis 9,_ZTV9idWinding+8@ha
.LBE3517:
.LBE3516:
.LBE3515:
	.loc 1 381 0
	stw 0,8(3)
.LVL111:
.LBB3520:
.LBB3519:
.LBB3518:
	.loc 1 183 0
	la 0,_ZTV9idWinding+8@l(9)
	stw 0,0(3)
.LBE3518:
.LBE3519:
.LBE3520:
.LBE3514:
	.loc 1 382 0
	blr
	.cfi_endproc
.LFE1498:
	.size	_ZN14idFixedWindingD2Ev, .-_ZN14idFixedWindingD2Ev
	.section	.text._ZN14idFixedWindingD0Ev,"axG",@progbits,_ZN14idFixedWindingD5Ev,comdat
	.align 2
	.weak	_ZN14idFixedWindingD0Ev
	.type	_ZN14idFixedWindingD0Ev, @function
_ZN14idFixedWindingD0Ev:
.LFB1500:
	.loc 1 380 0
	.cfi_startproc
.LVL112:
	mflr 0
	stwu 1,-8(1)
.LCFI60:
	.cfi_def_cfa_offset 8
	.cfi_register 65, 0
.LBB3527:
.LBB3528:
.LBB3529:
.LBB3530:
.LBB3531:
.LBB3532:
	.loc 1 183 0
	lis 11,_ZTV9idWinding+8@ha
.LBE3532:
.LBE3531:
.LBE3530:
.LBE3529:
.LBE3528:
.LBE3527:
	.loc 1 380 0
	stw 0,12(1)
.LBB3538:
.LBB3537:
.LBB3536:
	.loc 1 381 0
	li 0,0
	.cfi_offset 65, 4
	stw 0,8(3)
.LVL113:
.LBB3535:
.LBB3534:
.LBB3533:
	.loc 1 183 0
	la 0,_ZTV9idWinding+8@l(11)
	stw 0,0(3)
.LBE3533:
.LBE3534:
.LBE3535:
.LBE3536:
.LBE3537:
.LBE3538:
	.loc 1 382 0
	bl _ZdlPv
.LVL114:
	lwz 0,12(1)
	addi 1,1,8
.LCFI61:
	.cfi_def_cfa_offset 0
	mtlr 0
	blr
	.cfi_endproc
.LFE1500:
	.size	_ZN14idFixedWindingD0Ev, .-_ZN14idFixedWindingD0Ev
	.section	.text._ZN9idWindingD0Ev,"axG",@progbits,_ZN9idWindingD5Ev,comdat
	.align 2
	.weak	_ZN9idWindingD0Ev
	.type	_ZN9idWindingD0Ev, @function
_ZN9idWindingD0Ev:
.LFB1463:
	.loc 1 183 0
	.cfi_startproc
.LVL115:
	mflr 0
	stwu 1,-16(1)
.LCFI62:
	.cfi_def_cfa_offset 16
	.cfi_register 65, 0
.LBB3542:
.LBB3543:
.LBB3544:
	lis 9,_ZTV9idWinding+8@ha
.LBE3544:
.LBE3543:
.LBE3542:
	stw 31,12(1)
	mr 31,3
	.cfi_offset 31, -4
.LVL116:
	stw 0,20(1)
.LBB3549:
.LBB3547:
.LBB3545:
	.loc 1 183 0
	la 0,_ZTV9idWinding+8@l(9)
	.cfi_offset 65, 4
	.loc 1 184 0
	lwz 3,8(3)
.LVL117:
	.loc 1 183 0
	stw 0,0(31)
	.loc 1 184 0
	cmpwi 7,3,0
	beq- 7,.L79
	bl _ZdaPv
.LVL118:
.L79:
	.loc 1 185 0
	li 0,0
.LBE3545:
.LBE3547:
.LBE3549:
	.loc 1 186 0
	mr 3,31
.LBB3550:
.LBB3548:
.LBB3546:
	.loc 1 185 0
	stw 0,8(31)
.LBE3546:
.LBE3548:
.LBE3550:
	.loc 1 186 0
	bl _ZdlPv
	lwz 0,20(1)
	lwz 31,12(1)
.LVL119:
	mtlr 0
	addi 1,1,16
.LCFI63:
	.cfi_def_cfa_offset 0
	.cfi_restore 31
	blr
	.cfi_endproc
.LFE1463:
	.size	_ZN9idWindingD0Ev, .-_ZN9idWindingD0Ev
	.section	".text"
	.align 2
	.globl _ZN11idGameLocal8SaveGameEP6idFile
	.type	_ZN11idGameLocal8SaveGameEP6idFile, @function
_ZN11idGameLocal8SaveGameEP6idFile:
.LFB2842:
	.loc 4 375 0
	.cfi_startproc
	.cfi_personality 0,__gxx_personality_v0
	.cfi_lsda 0,.LLSDA2842
.LVL120:
	stwu 1,-72(1)
.LCFI64:
	.cfi_def_cfa_offset 72
	mflr 0
	stw 28,56(1)
	mr 28,3
	.cfi_offset 28, -16
	.cfi_register 65, 0
.LBB3593:
	.loc 4 380 0
	addi 3,1,8
.LVL121:
.LBE3593:
	.loc 4 375 0
	stw 0,76(1)
	stw 31,68(1)
	mr 31,4
	.cfi_offset 31, -4
	.cfi_offset 65, 4
	stw 26,48(1)
	stw 27,52(1)
	stw 29,60(1)
	stw 30,64(1)
.LEHB3:
.LBB3642:
	.loc 4 380 0
	.cfi_offset 30, -8
	.cfi_offset 29, -12
	.cfi_offset 27, -20
	.cfi_offset 26, -24
	bl _ZN10idSaveGameC1EP6idFile
.LEHE3:
.LVL122:
.LBB3594:
.LBB3595:
	.loc 4 382 0
	lis 9,g_flushSave+44@ha
	.file 7 "d:/Data/Nintendo/DoomGX/src/game/../idlib/../framework/CVarSystem.h"
	.loc 7 142 0
	lwz 9,g_flushSave+44@l(9)
.LBE3595:
.LBE3594:
	.loc 4 382 0
	lwz 0,36(9)
	cmpwi 7,0,0
	beq- 7,.L83
	.loc 4 385 0
	lwz 9,0(31)
	mr 3,31
	lwz 0,40(9)
	mtctr 0
.LEHB4:
	bctrl
.L83:
	.loc 4 388 0
	addi 3,1,8
	li 4,1304
	bl _ZN10idSaveGame16WriteBuildNumberEi
	.loc 4 375 0
	addi 30,28,528
.LBE3642:
	li 0,4096
	mr 29,30
	stw 0,40(1)
	b .L88
.LVL123:
.L143:
.LBB3643:
	.loc 4 395 0 discriminator 1
	mr 3,31
	bl _ZNK8idEntity13GetTeamMasterEv
	cmpw 7,31,3
	beq- 7,.L86
.L84:
	.loc 4 391 0
	lwz 0,40(1)
	addic. 9,0,-1
	stw 9,40(1)
	beq- 0,.L142
.LVL124:
.L88:
	.loc 4 392 0
	lwzu 31,4(29)
.LVL125:
	.loc 4 394 0
	cmpwi 7,31,0
	beq- 7,.L84
	.loc 4 395 0
	mr 3,31
	bl _ZNK8idEntity13GetTeamMasterEv
.LVL126:
	cmpwi 7,3,0
	bne+ 7,.L143
.LVL127:
.L86:
	.loc 4 399 0
	addi 3,1,8
	mr 4,31
	bl _ZN10idSaveGame9AddObjectEPK7idClass
	.loc 4 398 0
	mr 3,31
	bl _ZNK8idEntity17GetNextTeamEntityEv
.LEHE4:
.LVL128:
	mr. 31,3
	bne+ 0,.L86
	.loc 4 391 0
	lwz 0,40(1)
	addic. 9,0,-1
	stw 9,40(1)
	bne+ 0,.L88
.LVL129:
.L142:
.LBB3596:
.LBB3597:
	.file 8 "d:/Data/Nintendo/DoomGX/src/game/../idlib/../idlib/containers/List.h"
	.loc 8 546 0
	lis 9,_ZN8idThread10threadListE@ha
	la 31,_ZN8idThread10threadListE@l(9)
	lwz 29,_ZN8idThread10threadListE@l(9)
	.loc 8 547 0
	lwz 3,4(31)
	.loc 8 550 0
	cmpwi 7,3,0
	bne- 7,.L89
.LVL130:
.LBE3597:
.LBE3596:
	.loc 4 407 0 discriminator 1
	cmpwi 7,29,0
	.loc 8 197 0 discriminator 1
	li 27,0
	.loc 4 407 0 discriminator 1
	ble- 7,.L91
.LVL131:
.L90:
	.loc 8 197 0
	li 31,0
.L93:
.LVL132:
	.loc 4 408 0
	slwi 0,31,2
	addi 3,1,8
	lwzx 4,27,0
.LEHB5:
	bl _ZN10idSaveGame9AddObjectEPK7idClass
	.loc 4 407 0
	addi 31,31,1
.LVL133:
	cmpw 7,31,29
	blt+ 7,.L93
.LVL134:
.L91:
	.loc 4 412 0
	addi 3,1,8
	bl _ZN10idSaveGame15WriteObjectListEv
	.loc 4 414 0
	addis 26,28,0x1
	addi 4,1,8
	addi 3,26,-32060
	bl _ZNK9idProgram4SaveEP10idSaveGame
.LBB3601:
.LBB3602:
	.loc 4 416 0
	lis 9,g_skill+44@ha
.LBE3602:
.LBE3601:
	addi 3,1,8
.LBB3604:
.LBB3603:
	.loc 7 143 0
	lwz 9,g_skill+44@l(9)
.LBE3603:
.LBE3604:
	.loc 4 416 0
	lwz 4,36(9)
	bl _ZN10idSaveGame8WriteIntEi
	.loc 4 418 0
	addi 3,1,8
	addi 4,28,4
	bl _ZN10idSaveGame9WriteDictEPK6idDict
	.loc 4 420 0
	lwz 4,48(28)
	addi 3,1,8
	bl _ZN10idSaveGame8WriteIntEi
.LVL135:
	.loc 4 421 0 discriminator 1
	lwz 0,48(28)
	cmpwi 7,0,0
	ble- 7,.L94
	.loc 4 421 0 is_stmt 0
	li 31,0
.LVL136:
.L95:
	.loc 4 422 0 is_stmt 1
	mulli 29,31,44
	addi 3,1,8
	add 4,28,29
	addi 4,4,52
	bl _ZN10idSaveGame9WriteDictEPK6idDict
	.loc 4 423 0
	addi 4,31,7
	addi 3,1,8
	slwi 4,4,5
	add 4,28,4
	addi 4,4,4
	bl _ZN10idSaveGame12WriteUsercmdERK9usercmd_t
	.loc 4 424 0
	add 4,28,29
	addi 3,1,8
	addi 4,4,356
	bl _ZN10idSaveGame9WriteDictEPK6idDict
	.loc 4 421 0
	lwz 0,48(28)
	addi 31,31,1
.LVL137:
	cmpw 7,0,31
	bgt+ 7,.L95
.LVL138:
.L94:
	li 0,4096
	stw 0,40(1)
.LVL139:
.L96:
	.loc 4 428 0
	lwzu 4,4(30)
	addi 3,1,8
	bl _ZN10idSaveGame11WriteObjectEPK7idClass
	.loc 4 429 0
	lwz 4,16384(30)
	addi 3,1,8
	bl _ZN10idSaveGame8WriteIntEi
	.loc 4 427 0
	lwz 0,40(1)
	addic. 9,0,-1
	stw 9,40(1)
	bne+ 0,.L96
	.loc 4 432 0
	lwz 4,-32236(26)
	addi 3,1,8
	bl _ZN10idSaveGame8WriteIntEi
	.loc 4 433 0
	lwz 4,-32232(26)
	addi 3,1,8
	bl _ZN10idSaveGame8WriteIntEi
	.loc 4 437 0
	lwz 4,-32200(26)
	addi 3,1,8
	bl _ZN10idSaveGame11WriteObjectEPK7idClass
	.loc 4 4268 0
	lwz 11,-32196(26)
.LVL140:
.LBB3605:
.LBB3606:
	.file 9 "d:/Data/Nintendo/DoomGX/src/game/../idlib/../idlib/containers/LinkList.h"
	.loc 9 141 0
	li 4,0
	.loc 9 142 0
	lwz 9,4(11)
.LVL141:
	cmpw 7,11,9
	beq- 7,.L97
.LVL142:
.L98:
	lwz 9,4(9)
.LVL143:
	.loc 9 143 0
	addi 4,4,1
.LVL144:
	.loc 9 142 0
	cmpw 7,11,9
	bne+ 7,.L98
.LVL145:
.L97:
.LBE3606:
.LBE3605:
	.loc 4 439 0
	addi 3,1,8
	bl _ZN10idSaveGame8WriteIntEi
.LVL146:
	.loc 4 4268 0
	lwz 9,-32192(26)
	lwz 0,-32196(26)
.LBB3607:
.LBB3608:
	.loc 9 268 0
	cmpwi 7,9,0
	beq- 7,.L99
.L138:
.LBE3608:
.LBE3607:
.LBB3610:
.LBB3611:
	cmpw 7,0,9
	beq- 7,.L99
.LBE3611:
.LBE3610:
.LBB3613:
.LBB3609:
	.loc 9 271 0
	lwz 31,12(9)
.LVL147:
.LBE3609:
.LBE3613:
	.loc 4 440 0
	cmpwi 7,31,0
	beq- 7,.L99
	.loc 4 441 0
	addi 3,1,8
	mr 4,31
	bl _ZN10idSaveGame11WriteObjectEPK7idClass
.LVL148:
	.loc 4 4268 0
	lwz 9,16(31)
	lwz 0,12(31)
.LBB3614:
.LBB3612:
	.loc 9 268 0
	cmpwi 7,9,0
	bne+ 7,.L138
.LVL149:
.L99:
.LBE3612:
.LBE3614:
	.loc 4 4268 0
	lwz 11,-32180(26)
.LVL150:
.LBB3615:
.LBB3616:
	.loc 9 141 0
	li 4,0
	.loc 9 142 0
	lwz 9,4(11)
.LVL151:
	cmpw 7,11,9
	beq- 7,.L101
.LVL152:
.L102:
	lwz 9,4(9)
.LVL153:
	.loc 9 143 0
	addi 4,4,1
.LVL154:
	.loc 9 142 0
	cmpw 7,11,9
	bne+ 7,.L102
.LVL155:
.L101:
.LBE3616:
.LBE3615:
	.loc 4 444 0
	addi 3,1,8
	bl _ZN10idSaveGame8WriteIntEi
.LVL156:
	.loc 4 4268 0
	lwz 9,-32176(26)
	lwz 0,-32180(26)
.LBB3619:
.LBB3620:
	.loc 9 268 0
	cmpwi 7,9,0
	beq- 7,.L103
.L140:
.LBE3620:
.LBE3619:
.LBB3622:
.LBB3623:
	cmpw 7,0,9
	beq- 7,.L103
.LBE3623:
.LBE3622:
.LBB3625:
.LBB3621:
	.loc 9 271 0
	lwz 31,12(9)
.LVL157:
.LBE3621:
.LBE3625:
	.loc 4 445 0
	cmpwi 7,31,0
	beq- 7,.L103
	.loc 4 446 0
	addi 3,1,8
	mr 4,31
	bl _ZN10idSaveGame11WriteObjectEPK7idClass
.LVL158:
	.loc 4 4268 0
	lwz 9,32(31)
	lwz 0,28(31)
.LBB3626:
.LBB3624:
	.loc 9 268 0
	cmpwi 7,9,0
	bne+ 7,.L140
.LVL159:
.L103:
.LBE3624:
.LBE3626:
	.loc 4 449 0
	lwz 4,-32164(26)
	addi 3,1,8
	bl _ZN10idSaveGame8WriteIntEi
	.loc 4 450 0
	lbz 4,-32160(26)
	addi 3,1,8
	bl _ZN10idSaveGame9WriteBoolEb
	.loc 4 451 0
	lbz 4,-32159(26)
	addi 3,1,8
	bl _ZN10idSaveGame9WriteBoolEb
	.loc 4 452 0
	addi 3,1,8
	addi 4,26,-32156
	bl _ZN10idSaveGame9WriteDictEPK6idDict
.LBB3627:
.LBB3617:
	.loc 4 375 0
	li 0,12
.LBE3617:
.LBE3627:
	addi 31,26,-32116
.LBB3628:
.LBB3618:
	stw 0,40(1)
.L105:
.LBE3618:
.LBE3628:
	.loc 4 455 0
	lfsu 1,4(31)
	addi 3,1,8
	bl _ZN10idSaveGame10WriteFloatEf
	.loc 4 454 0
	lwz 0,40(1)
	addic. 9,0,-1
	stw 9,40(1)
	bne+ 0,.L105
.LVL160:
	.loc 4 458 0
	lwz 4,-32064(26)
	addi 3,1,8
	bl _ZN10idSaveGame8WriteIntEi
	.loc 4 459 0
	addis 9,28,0x23
	addi 3,1,8
	lwz 4,17268(9)
	bl _ZN10idSaveGame11WriteObjectEPK7idClass
	.loc 4 465 0
	addis 28,28,0x25
.LVL161:
	li 0,0
	stw 0,1376(28)
	.loc 4 468 0
	addi 3,1,8
	.loc 4 466 0
	stw 0,1380(28)
.LVL162:
	.loc 4 468 0
	lwz 4,1388(28)
	bl _ZN10idSaveGame11WriteStringEPKc
.LVL163:
	.loc 4 472 0
	lwz 4,1980(28)
	addi 3,1,8
	bl _ZN10idSaveGame8WriteIntEi
	.loc 4 473 0
	lwz 4,1984(28)
	addi 3,1,8
	bl _ZN10idSaveGame8WriteIntEi
	.loc 4 474 0
	lwz 4,1988(28)
	addi 3,1,8
	bl _ZN10idSaveGame8WriteIntEi
	.loc 4 475 0
	lbz 4,1992(28)
	addi 3,1,8
	bl _ZN10idSaveGame9WriteBoolEb
	.loc 4 476 0
	lbz 4,1993(28)
	addi 3,1,8
	bl _ZN10idSaveGame9WriteBoolEb
	.loc 4 478 0
	lbz 4,2016(28)
	addi 3,1,8
	bl _ZN10idSaveGame9WriteBoolEb
	.loc 4 479 0
	lwz 4,2012(28)
	addi 3,1,8
	bl _ZN10idSaveGame8WriteIntEi
	.loc 4 481 0
	lwz 4,1996(28)
	addi 3,1,8
	bl _ZN10idSaveGame8WriteIntEi
	.loc 4 482 0
	lwz 4,2000(28)
	addi 3,1,8
	bl _ZN10idSaveGame8WriteIntEi
	.loc 4 483 0
	lwz 4,2004(28)
	addi 3,1,8
	bl _ZN10idSaveGame8WriteIntEi
	.loc 4 485 0
	lwz 4,2008(28)
	addi 3,1,8
	bl _ZN10idSaveGame8WriteIntEi
	.loc 4 487 0
	lwz 4,2052(28)
	addi 3,1,8
	bl _ZN10idSaveGame8WriteIntEi
	.loc 4 488 0
	lbz 4,2017(28)
	addi 3,1,8
	bl _ZN10idSaveGame9WriteBoolEb
	.loc 4 489 0
	lbz 4,2018(28)
	addi 3,1,8
	bl _ZN10idSaveGame9WriteBoolEb
	.loc 4 491 0
	lwz 4,2020(28)
	addi 3,1,8
	bl _ZN10idSaveGame8WriteIntEi
	.loc 4 495 0
	lwz 4,2040(28)
	addi 3,1,8
	bl _ZN10idSaveGame8WriteIntEi
	.loc 4 496 0
	lbz 4,2044(28)
	addi 3,1,8
	bl _ZN10idSaveGame9WriteBoolEb
	.loc 4 497 0
	lfs 1,2048(28)
	addi 3,1,8
	bl _ZN10idSaveGame10WriteFloatEf
	.loc 4 499 0
	lbz 4,2100(28)
	addi 3,1,8
	bl _ZN10idSaveGame9WriteBoolEb
	.loc 4 500 0
	lwz 4,2104(28)
	addi 3,1,8
	bl _ZN10idSaveGame8WriteIntEi
	.loc 4 502 0
	lwz 0,2112(28)
	cmpwi 7,0,0
	beq- 7,.L144
	.loc 4 505 0
	lis 9,gameRenderWorld@ha
	lwz 3,gameRenderWorld@l(9)
	lwz 9,0(3)
	lwz 0,100(9)
	mtctr 0
	bctrl
	mr 4,3
	addi 3,1,8
	bl _ZN10idSaveGame8WriteIntEi
	lis 30,gameRenderWorld@ha
	li 31,0
	la 30,gameRenderWorld@l(30)
	b .L108
.LVL164:
.L109:
	.loc 4 507 0
	lwz 9,2112(28)
	slwi 0,31,2
	addi 3,1,8
	lwzx 4,9,0
	bl _ZN10idSaveGame11WriteObjectEPK7idClass
	.loc 4 506 0
	addi 31,31,1
.LVL165:
.L108:
	.loc 4 506 0 is_stmt 0 discriminator 1
	lwz 3,0(30)
	lwz 9,0(3)
	lwz 0,100(9)
	mtctr 0
	bctrl
	cmpw 7,31,3
	blt+ 7,.L109
.LVL166:
.L107:
	.loc 4 511 0 is_stmt 1
	lwz 4,2116(28)
	addi 3,1,8
	bl _ZN10idSaveGame11WriteObjectEPK7idClass
	.loc 4 513 0
	lwz 4,2120(28)
	addi 3,1,8
	bl _ZN10idSaveGame13WriteMaterialEPK10idMaterial
.LVL167:
.LBB3629:
.LBB3630:
	.file 10 "d:/Data/Nintendo/DoomGX/src/game/Game_local.h"
	.loc 10 595 0
	lwz 4,2156(28)
	addi 3,1,8
.LVL168:
	bl _ZN10idSaveGame8WriteIntEi
.LVL169:
.LBE3630:
.LBE3629:
	.loc 4 516 0
	lwz 4,2160(28)
	addi 3,1,8
.LVL170:
	bl _ZN10idSaveGame8WriteIntEi
.LVL171:
	.loc 4 518 0
	addi 3,1,8
.LVL172:
	addi 4,28,2164
	bl _ZN10idSaveGame9WriteDictEPK6idDict
.LVL173:
	.loc 4 520 0
	lwz 4,2208(28)
	addi 3,1,8
.LVL174:
	bl _ZN10idSaveGame8WriteIntEi
.LVL175:
	.loc 4 521 0
	lwz 4,2212(28)
	addi 3,1,8
.LVL176:
	bl _ZN10idSaveGame8WriteIntEi
.LVL177:
	.loc 4 522 0
	lwz 4,2216(28)
	addi 3,1,8
.LVL178:
	bl _ZN10idSaveGame8WriteIntEi
.LVL179:
	.loc 4 523 0
	lwz 4,2220(28)
	addi 3,1,8
.LVL180:
	bl _ZN10idSaveGame8WriteIntEi
.LVL181:
	.loc 4 525 0
	addi 3,1,8
.LVL182:
	addi 4,28,2224
	bl _ZN10idSaveGame9WriteVec3ERK6idVec3
.LVL183:
	.loc 4 529 0
	lbz 4,2240(28)
	addi 3,1,8
.LVL184:
	bl _ZN10idSaveGame9WriteBoolEb
.LVL185:
	.loc 4 530 0
	lwz 4,2244(28)
	addi 3,1,8
.LVL186:
	bl _ZN10idSaveGame8WriteIntEi
.LVL187:
	.loc 4 540 0
	addi 3,1,8
.LVL188:
	bl _ZN7idEvent4SaveEP10idSaveGame
.LVL189:
	.loc 4 542 0
	addi 3,1,8
.LVL190:
	bl _ZN10idSaveGame5CloseEv
.LEHE5:
.LVL191:
.LBB3631:
.LBB3632:
.LBB3633:
.LBB3634:
	.loc 8 193 0
	cmpwi 7,27,0
	beq- 7,.L111
	.loc 8 194 0
	mr 3,27
	bl _ZdaPv
.L111:
.LBE3634:
.LBE3633:
.LBE3632:
.LBE3631:
	.loc 4 542 0 discriminator 1
	addi 3,1,8
.LVL192:
.LEHB6:
	bl _ZN10idSaveGameD1Ev
.LEHE6:
.LVL193:
.LBE3643:
	.loc 4 543 0 discriminator 1
	lwz 0,76(1)
	lwz 26,48(1)
.LVL194:
	mtlr 0
	lwz 27,52(1)
	lwz 28,56(1)
.LVL195:
	lwz 29,60(1)
	lwz 30,64(1)
	lwz 31,68(1)
	addi 1,1,72
	.cfi_remember_state
.LCFI65:
	.cfi_def_cfa_offset 0
	.cfi_restore 31
	.cfi_restore 30
	.cfi_restore 29
	.cfi_restore 28
	.cfi_restore 27
	.cfi_restore 26
	blr
.LVL196:
.L89:
.LCFI66:
	.cfi_restore_state
.LBB3644:
.LBB3635:
.LBB3598:
	.loc 8 551 0
	slwi 3,3,2
.LEHB7:
	bl _Znaj
.LEHE7:
	.loc 8 552 0
	cmpwi 7,29,0
	.loc 8 551 0
	mr 27,3
.LVL197:
	.loc 8 552 0
	ble- 7,.L91
.LBE3598:
.LBE3635:
.LBE3644:
	mtctr 29
.LBB3645:
.LBB3636:
.LBB3599:
	.loc 4 375 0
	addi 11,3,-4
.LBE3599:
.LBE3636:
.LBE3645:
	.loc 8 552 0
	li 9,0
.LVL198:
.L92:
.LBB3646:
.LBB3637:
.LBB3600:
	.loc 8 553 0
	lwz 10,12(31)
	slwi 0,9,2
	.loc 8 552 0
	addi 9,9,1
.LVL199:
	.loc 8 553 0
	lwzx 0,10,0
	stwu 0,4(11)
	.loc 8 552 0
	bdnz .L92
	b .L90
.LVL200:
.L144:
.LBE3600:
.LBE3637:
	.loc 4 503 0
	addi 3,1,8
	li 4,0
.LEHB8:
	bl _ZN10idSaveGame8WriteIntEi
.LEHE8:
	b .L107
.LVL201:
.L122:
.L141:
	mr 31,3
.LVL202:
.L115:
	.loc 4 542 0
	addi 3,1,8
	bl _ZN10idSaveGameD1Ev
	mr 3,31
.LEHB9:
	bl _Unwind_Resume
.LEHE9:
.LVL203:
.L121:
.LBB3638:
.LBB3639:
.LBB3640:
.LBB3641:
	.loc 8 193 0
	cmpwi 7,27,0
	mr 31,3
.LVL204:
	beq- 7,.L115
	.loc 8 194 0
	mr 3,27
	bl _ZdaPv
	b .L115
.LVL205:
.L120:
	b .L141
.LBE3641:
.LBE3640:
.LBE3639:
.LBE3638:
.LBE3646:
	.cfi_endproc
.LFE2842:
	.section	.gcc_except_table
.LLSDA2842:
	.byte	0xff
	.byte	0xff
	.byte	0x1
	.uleb128 .LLSDACSE2842-.LLSDACSB2842
.LLSDACSB2842:
	.uleb128 .LEHB3-.LFB2842
	.uleb128 .LEHE3-.LEHB3
	.uleb128 0
	.uleb128 0
	.uleb128 .LEHB4-.LFB2842
	.uleb128 .LEHE4-.LEHB4
	.uleb128 .L120-.LFB2842
	.uleb128 0
	.uleb128 .LEHB5-.LFB2842
	.uleb128 .LEHE5-.LEHB5
	.uleb128 .L121-.LFB2842
	.uleb128 0
	.uleb128 .LEHB6-.LFB2842
	.uleb128 .LEHE6-.LEHB6
	.uleb128 0
	.uleb128 0
	.uleb128 .LEHB7-.LFB2842
	.uleb128 .LEHE7-.LEHB7
	.uleb128 .L122-.LFB2842
	.uleb128 0
	.uleb128 .LEHB8-.LFB2842
	.uleb128 .LEHE8-.LEHB8
	.uleb128 .L121-.LFB2842
	.uleb128 0
	.uleb128 .LEHB9-.LFB2842
	.uleb128 .LEHE9-.LEHB9
	.uleb128 0
	.uleb128 0
.LLSDACSE2842:
	.section	".text"
	.size	_ZN11idGameLocal8SaveGameEP6idFile, .-_ZN11idGameLocal8SaveGameEP6idFile
	.align 2
	.globl _ZN11idGameLocal11SetUserInfoEiRK6idDictbb
	.type	_ZN11idGameLocal11SetUserInfoEiRK6idDictbb, @function
_ZN11idGameLocal11SetUserInfoEiRK6idDictbb:
.LFB2852:
	.loc 4 707 0
	.cfi_startproc
.LVL206:
.LBB3676:
	.loc 4 713 0
	cmplwi 7,4,3
.LBE3676:
	.loc 4 707 0
	stwu 1,-64(1)
.LCFI67:
	.cfi_def_cfa_offset 64
	mflr 0
	stw 28,48(1)
.LBB3721:
	.loc 4 711 0
	addis 28,3,0x25
	.cfi_offset 28, -16
	.cfi_register 65, 0
.LBE3721:
	.loc 4 707 0
	stw 25,36(1)
.LBB3722:
	.loc 4 756 0
	li 25,0
	.cfi_offset 25, -28
.LBE3722:
	.loc 4 707 0
	stw 26,40(1)
	mr 26,7
	.cfi_offset 26, -24
	stw 29,52(1)
	mr 29,6
	.cfi_offset 29, -12
	stw 30,56(1)
	mr 30,4
	.cfi_offset 30, -8
	stw 31,60(1)
	mr 31,3
	.cfi_offset 31, -4
	stw 0,68(1)
	stw 19,12(1)
	stw 20,16(1)
	stw 21,20(1)
	stw 22,24(1)
	stw 23,28(1)
	stw 24,32(1)
	stw 27,44(1)
.LBB3723:
	.loc 4 711 0
	stb 6,2018(28)
	.loc 4 713 0
	ble- 7,.L177
	.cfi_offset 27, -20
	.cfi_offset 24, -32
	.cfi_offset 23, -36
	.cfi_offset 22, -40
	.cfi_offset 21, -44
	.cfi_offset 20, -48
	.cfi_offset 19, -52
	.cfi_offset 65, 4
.LVL207:
.L146:
.LBE3723:
	.loc 4 757 0
	lwz 0,68(1)
	mr 3,25
	lwz 19,12(1)
	mtlr 0
	lwz 20,16(1)
	lwz 21,20(1)
	lwz 22,24(1)
	lwz 23,28(1)
	lwz 24,32(1)
	lwz 25,36(1)
	lwz 26,40(1)
	lwz 27,44(1)
	lwz 28,48(1)
.LVL208:
	lwz 29,52(1)
	lwz 30,56(1)
.LVL209:
	lwz 31,60(1)
	addi 1,1,64
	.cfi_remember_state
.LCFI68:
	.cfi_def_cfa_offset 0
	.cfi_restore 31
	.cfi_restore 30
	.cfi_restore 29
	.cfi_restore 28
	.cfi_restore 27
	.cfi_restore 26
	.cfi_restore 25
	.cfi_restore 24
	.cfi_restore 23
	.cfi_restore 22
	.cfi_restore 21
	.cfi_restore 20
	.cfi_restore 19
	blr
.LVL210:
.L177:
.LCFI69:
	.cfi_restore_state
.LBB3724:
	.loc 4 714 0
	mulli 27,4,44
	mr 4,5
.LVL211:
	.loc 4 709 0
	li 20,0
	.loc 4 714 0
	add 27,3,27
	addi 27,27,52
	mr 3,27
.LVL212:
	bl _ZN6idDictaSERKS_
.LVL213:
	.loc 4 717 0
	cmpwi 7,26,0
	bne- 7,.L178
.LVL214:
.L147:
	.loc 4 741 0
	addi 25,30,132
	slwi 25,25,2
	add 25,31,25
	lwz 3,4(25)
	cmpwi 7,3,0
	beq- 7,.L161
.LVL215:
.LBB3677:
.LBB3678:
	.loc 5 340 0 discriminator 1
	lwz 9,0(3)
	lwz 0,0(9)
	mtctr 0
	bctrl
.LVL216:
.LBE3678:
	.loc 4 4268 0 discriminator 1
	lis 9,_ZN8idPlayer4TypeE@ha
	la 9,_ZN8idPlayer4TypeE@l(9)
	lwz 0,56(3)
.LBB3683:
.LBB3679:
.LBB3680:
	.loc 5 311 0 discriminator 1
	lwz 11,56(9)
	cmpw 7,0,11
	bge- 7,.L179
.LVL217:
.L161:
.LBE3680:
.LBE3679:
.LBE3683:
.LBE3677:
	.loc 4 745 0
	cmpwi 7,29,0
	beq- 7,.L180
.L160:
	.loc 4 751 0
	cmpwi 7,20,0
	.loc 4 756 0
	li 25,0
	.loc 4 751 0
	beq- 7,.L146
	.loc 4 753 0
	addis 31,31,0x27
.LVL218:
	mr 4,27
	addi 25,31,-9932
	mr 3,25
	bl _ZN6idDictaSERKS_
	.loc 4 754 0
	b .L146
.LVL219:
.L179:
.LBB3685:
.LBB3684:
.LBB3682:
.LBB3681:
	.loc 5 311 0
	lwz 9,60(9)
	cmpw 7,0,9
	bgt- 7,.L161
.LBE3681:
.LBE3682:
.LBE3684:
.LBE3685:
	.loc 4 742 0 discriminator 4
	lwz 3,4(25)
.LVL220:
	mr 4,26
	bl _ZN8idPlayer15UserInfoChangedEb
	or 20,3,20
.LVL221:
	rlwinm 20,20,0,0xff
.LVL222:
	b .L161
.LVL223:
.L178:
.LBB3686:
.LBB3687:
	.file 11 "d:/Data/Nintendo/DoomGX/src/game/../idlib/../idlib/Dict.h"
	.loc 11 241 0
	lis 25,.LC4@ha
	mr 3,27
	la 25,.LC4@l(25)
	mr 4,25
	bl _ZNK6idDict7FindKeyEPKc
.LVL224:
	.loc 11 242 0
	cmpwi 0,3,0
	beq- 0,.L164
.LVL225:
.LBB3688:
	.loc 4 4268 0
	lwz 9,4(3)
	lwz 3,4(9)
.LVL226:
.L148:
.LBE3688:
.LBE3687:
.LBE3686:
	.loc 4 720 0
	bl _ZN5idStr9IsNumericEPKc
	.loc 4 709 0
	li 20,0
	.loc 4 720 0
	cmpwi 7,3,0
	bne- 7,.L181
.LVL227:
.L149:
	.loc 4 726 0 discriminator 1
	lwz 0,48(31)
	cmpwi 7,0,0
	ble- 7,.L147
	.loc 4 732 0
	lis 23,.LC5@ha
	.loc 4 726 0
	li 21,0
.LBB3690:
	.loc 4 4268 0
	lis 24,_ZN8idPlayer4TypeE@ha
.LBE3690:
	.loc 4 732 0
	la 23,.LC5@l(23)
.LBB3695:
.LBB3696:
	.loc 11 245 0
	lis 22,.LC3@ha
	b .L158
.LVL228:
.L151:
.LBE3696:
.LBE3695:
	.loc 4 730 0
	addi 9,21,132
	slwi 9,9,2
	add 9,31,9
	lwz 3,4(9)
	cmpwi 7,3,0
	beq- 7,.L153
.LVL229:
.LBB3700:
.LBB3691:
	.loc 5 340 0 discriminator 1
	lwz 9,0(3)
.LVL230:
	lwz 0,0(9)
	mtctr 0
	bctrl
.LVL231:
.LBE3691:
	.loc 4 4268 0 discriminator 1
	la 9,_ZN8idPlayer4TypeE@l(24)
	lwz 0,56(3)
.LBB3694:
.LBB3692:
.LBB3693:
	.loc 5 311 0 discriminator 1
	lwz 11,56(9)
	cmpw 7,0,11
	blt- 7,.L176
	.loc 5 311 0 is_stmt 0
	lwz 9,60(9)
	cmpw 7,0,9
	bgt- 7,.L176
.LVL232:
.LBE3693:
.LBE3692:
.LBE3694:
.LBE3700:
.LBB3701:
.LBB3702:
	.loc 11 241 0 is_stmt 1 discriminator 4
	mr 3,27
.LVL233:
	mr 4,25
	bl _ZNK6idDict7FindKeyEPKc
.LVL234:
	.loc 11 242 0 discriminator 4
	cmpwi 0,3,0
	beq- 0,.L167
.LVL235:
.LBB3703:
	.loc 4 4268 0
	lwz 9,4(3)
	lwz 19,4(9)
.LVL236:
.L154:
.LBE3703:
.LBE3702:
.LBE3701:
	.loc 4 731 0
	mulli 3,21,44
.LVL237:
.LBB3705:
.LBB3706:
	.loc 11 241 0
	mr 4,25
.LBE3706:
.LBE3705:
	.loc 4 731 0
	add 3,31,3
.LBB3710:
.LBB3708:
	.loc 11 241 0
	addi 3,3,52
	bl _ZNK6idDict7FindKeyEPKc
.LVL238:
	.loc 11 242 0
	cmpwi 0,3,0
	beq- 0,.L168
.LVL239:
.LBB3707:
	.loc 4 4268 0
	lwz 9,4(3)
	lwz 4,4(9)
.LVL240:
.L155:
.LBE3707:
.LBE3708:
.LBE3710:
	.loc 4 731 0
	mr 3,19
.LVL241:
	bl _ZN5idStr4IcmpEPKcS1_
	cmpwi 7,3,0
	beq- 7,.L156
	lwz 0,48(31)
	addi 21,21,1
.LVL242:
.L152:
	.loc 4 726 0
	cmpw 7,21,0
	bge- 7,.L147
.LVL243:
.L158:
	.loc 4 727 0
	cmpw 7,21,30
	bne+ 7,.L151
.L153:
	.loc 4 754 0
	addi 21,21,1
	b .L152
.LVL244:
.L176:
	lwz 0,48(31)
	addi 21,21,1
	b .L152
.LVL245:
.L180:
	.loc 4 747 0
	addi 3,28,1416
	mr 4,30
	bl _ZN17idMultiplayerGame9EnterGameEi
	b .L160
.LVL246:
.L156:
.LBB3711:
.LBB3698:
	.loc 11 241 0
	mr 3,27
	mr 4,25
	bl _ZNK6idDict7FindKeyEPKc
.LVL247:
	.loc 11 242 0
	cmpwi 0,3,0
	beq- 0,.L169
.LVL248:
.LBB3697:
	.loc 4 4268 0
	lwz 9,4(3)
	lwz 4,4(9)
.LVL249:
.L157:
.LBE3697:
.LBE3698:
.LBE3711:
	.loc 4 732 0
	mr 3,23
.LVL250:
	.loc 4 735 0
	li 21,0
.LVL251:
	.loc 4 732 0
	crxor 6,6,6
	bl _Z2vaPKcz
	mr 4,25
	mr 5,3
	mr 3,27
	bl _ZN6idDict3SetEPKcS1_
.LVL252:
	.loc 4 733 0
	li 20,1
	lwz 0,48(31)
	.loc 4 735 0
	b .L152
.LVL253:
.L169:
.LBB3712:
.LBB3699:
	.loc 11 245 0
	la 4,.LC3@l(22)
	b .L157
.LVL254:
.L181:
.LBE3699:
.LBE3712:
.LBB3713:
.LBB3714:
	.loc 11 241 0
	mr 3,27
	mr 4,25
	bl _ZNK6idDict7FindKeyEPKc
.LVL255:
	.loc 11 242 0
	cmpwi 0,3,0
	beq- 0,.L166
.LVL256:
.LBB3715:
	.loc 4 4268 0
	lwz 9,4(3)
	lwz 4,4(9)
.LVL257:
.L150:
.LBE3715:
.LBE3714:
.LBE3713:
	.loc 4 721 0
	lis 3,.LC5@ha
.LVL258:
	.loc 4 722 0
	li 20,1
	.loc 4 721 0
	la 3,.LC5@l(3)
	crxor 6,6,6
	bl _Z2vaPKcz
	mr 4,25
	mr 5,3
	mr 3,27
	bl _ZN6idDict3SetEPKcS1_
.LVL259:
	b .L149
.LVL260:
.L168:
.LBB3717:
.LBB3709:
	.loc 11 245 0
	la 4,.LC3@l(22)
	b .L155
.LVL261:
.L167:
.LBE3709:
.LBE3717:
.LBB3718:
.LBB3704:
	la 19,.LC3@l(22)
	b .L154
.LVL262:
.L164:
.LBE3704:
.LBE3718:
.LBB3719:
.LBB3689:
	lis 3,.LC3@ha
.LVL263:
	la 3,.LC3@l(3)
	b .L148
.LVL264:
.L166:
.LBE3689:
.LBE3719:
.LBB3720:
.LBB3716:
	lis 4,.LC3@ha
	la 4,.LC3@l(4)
	b .L150
.LBE3716:
.LBE3720:
.LBE3724:
	.cfi_endproc
.LFE2852:
	.size	_ZN11idGameLocal11SetUserInfoEiRK6idDictbb, .-_ZN11idGameLocal11SetUserInfoEiRK6idDictbb
	.align 2
	.globl GetGameAPI
	.type	GetGameAPI, @function
GetGameAPI:
.LFB2810:
	.loc 4 88 0
	.cfi_startproc
.LVL265:
	mflr 0
	stwu 1,-8(1)
.LCFI70:
	.cfi_def_cfa_offset 8
	.cfi_register 65, 0
	.loc 4 89 0
	lis 3,.LC6@ha
.LVL266:
	la 3,.LC6@l(3)
	.loc 4 88 0
	stw 0,12(1)
	.loc 4 89 0
	.cfi_offset 65, 4
	crxor 6,6,6
	bl _Z10Sys_PrintfPKcz
	.loc 4 91 0
	lwz 0,12(1)
	li 3,0
	addi 1,1,8
.LCFI71:
	.cfi_def_cfa_offset 0
	mtlr 0
	blr
	.cfi_endproc
.LFE2810:
	.size	GetGameAPI, .-GetGameAPI
	.align 2
	.globl _Z11TestGameAPIv
	.type	_Z11TestGameAPIv, @function
_Z11TestGameAPIv:
.LFB2811:
	.loc 4 102 0
	.cfi_startproc
	mflr 0
	stwu 1,-8(1)
.LCFI72:
	.cfi_def_cfa_offset 8
	.cfi_register 65, 0
	.loc 4 103 0
	lis 3,.LC7@ha
	la 3,.LC7@l(3)
	.loc 4 102 0
	stw 0,12(1)
	.loc 4 103 0
	.cfi_offset 65, 4
	crxor 6,6,6
	bl _Z10Sys_PrintfPKcz
	.loc 4 104 0
	lwz 0,12(1)
	addi 1,1,8
.LCFI73:
	.cfi_def_cfa_offset 0
	mtlr 0
	blr
	.cfi_endproc
.LFE2811:
	.size	_Z11TestGameAPIv, .-_Z11TestGameAPIv
	.section	.text._ZN6idClipD2Ev,"axG",@progbits,_ZN6idClipD5Ev,comdat
	.align 2
	.weak	_ZN6idClipD2Ev
	.type	_ZN6idClipD2Ev, @function
_ZN6idClipD2Ev:
.LFB2817:
	.file 12 "d:/Data/Nintendo/DoomGX/src/game/physics/Clip.h"
	.loc 12 248 0
	.cfi_startproc
	.cfi_personality 0,__gxx_personality_v0
	.cfi_lsda 0,.LLSDA2817
.LVL267:
	stwu 1,-16(1)
.LCFI74:
	.cfi_def_cfa_offset 16
	mflr 0
	stw 31,12(1)
	mr 31,3
	.cfi_offset 31, -4
	.cfi_register 65, 0
.LBB3726:
	addi 3,3,172
.LVL268:
.LBE3726:
	stw 0,20(1)
	stw 30,8(1)
.LEHB10:
.LBB3727:
	.loc 12 248 0
	.cfi_offset 30, -8
	.cfi_offset 65, 4
	bl _ZN11idClipModelD1Ev
.LEHE10:
	.loc 12 248 0 is_stmt 0 discriminator 1
	addi 3,31,32
.LEHB11:
	bl _ZN11idClipModelD1Ev
.LEHE11:
.LBE3727:
	lwz 0,20(1)
	lwz 30,8(1)
	mtlr 0
	lwz 31,12(1)
.LVL269:
	addi 1,1,16
	.cfi_remember_state
.LCFI75:
	.cfi_def_cfa_offset 0
	.cfi_restore 31
	.cfi_restore 30
	blr
.LVL270:
.L187:
.LCFI76:
	.cfi_restore_state
	mr 30,3
.LBB3728:
	.loc 12 248 0
	addi 3,31,32
	bl _ZN11idClipModelD1Ev
	mr 3,30
.LEHB12:
	bl _Unwind_Resume
.LEHE12:
.LBE3728:
	.cfi_endproc
.LFE2817:
	.section	.gcc_except_table
.LLSDA2817:
	.byte	0xff
	.byte	0xff
	.byte	0x1
	.uleb128 .LLSDACSE2817-.LLSDACSB2817
.LLSDACSB2817:
	.uleb128 .LEHB10-.LFB2817
	.uleb128 .LEHE10-.LEHB10
	.uleb128 .L187-.LFB2817
	.uleb128 0
	.uleb128 .LEHB11-.LFB2817
	.uleb128 .LEHE11-.LEHB11
	.uleb128 0
	.uleb128 0
	.uleb128 .LEHB12-.LFB2817
	.uleb128 .LEHE12-.LEHB12
	.uleb128 0
	.uleb128 0
.LLSDACSE2817:
	.section	.text._ZN6idClipD2Ev,"axG",@progbits,_ZN6idClipD5Ev,comdat
	.size	_ZN6idClipD2Ev, .-_ZN6idClipD2Ev
	.section	.text._ZN17idMultiplayerGameD2Ev,"axG",@progbits,_ZN17idMultiplayerGameD5Ev,comdat
	.align 2
	.weak	_ZN17idMultiplayerGameD2Ev
	.type	_ZN17idMultiplayerGameD2Ev, @function
_ZN17idMultiplayerGameD2Ev:
.LFB2829:
	.file 13 "d:/Data/Nintendo/DoomGX/src/game/MultiplayerGame.h"
	.loc 13 95 0 is_stmt 1
	.cfi_startproc
	.cfi_personality 0,__gxx_personality_v0
	.cfi_lsda 0,.LLSDA2829
.LVL271:
	stwu 1,-24(1)
.LCFI77:
	.cfi_def_cfa_offset 24
	mflr 0
	stw 30,16(1)
.LBB3754:
	addic. 30,3,308
	.cfi_offset 30, -8
	.cfi_register 65, 0
.LBE3754:
	stw 29,12(1)
	mr 29,3
	.cfi_offset 29, -12
	stw 31,20(1)
.LBB3779:
	addi 31,3,488
	.cfi_offset 31, -4
.LBE3779:
	stw 0,28(1)
.LBB3780:
	.loc 13 95 0
	beq- 0,.L189
	.cfi_offset 65, 4
.LVL272:
.L190:
.LBB3755:
.LBB3756:
.LBB3757:
	.loc 13 76 0 discriminator 4
	addi 31,31,-36
.LVL273:
.LBB3758:
.LBB3759:
.LBB3760:
	.file 14 "d:/Data/Nintendo/DoomGX/src/game/../idlib/../idlib/Str.h"
	.loc 14 501 0 discriminator 4
	mr 3,31
.LEHB13:
	bl _ZN5idStr8FreeDataEv
.LEHE13:
.LBE3760:
.LBE3759:
.LBE3758:
.LBE3757:
.LBE3756:
.LBE3755:
	.loc 13 95 0 discriminator 3
	cmpw 7,30,31
	bne+ 7,.L190
.LVL274:
.L189:
.LBB3761:
.LBB3762:
.LBB3763:
	.loc 14 501 0 discriminator 2
	addi 3,29,236
.LEHB14:
	bl _ZN5idStr8FreeDataEv
.LEHE14:
.LVL275:
.LBE3763:
.LBE3762:
.LBE3761:
.LBB3764:
.LBB3765:
.LBB3766:
	.loc 14 501 0 is_stmt 0 discriminator 6
	addi 3,29,160
.LEHB15:
	bl _ZN5idStr8FreeDataEv
.LEHE15:
.LVL276:
.LBE3766:
.LBE3765:
.LBE3764:
.LBB3767:
.LBB3768:
.LBB3769:
	.loc 14 501 0 discriminator 7
	addi 3,29,128
.LEHB16:
	bl _ZN5idStr8FreeDataEv
.LEHE16:
.LBE3769:
.LBE3768:
.LBE3767:
.LBE3780:
	.loc 13 95 0 is_stmt 1 discriminator 7
	lwz 0,28(1)
	lwz 29,12(1)
.LVL277:
	mtlr 0
	lwz 30,16(1)
.LVL278:
	lwz 31,20(1)
	addi 1,1,24
	.cfi_remember_state
.LCFI78:
	.cfi_def_cfa_offset 0
	.cfi_restore 31
	.cfi_restore 30
	.cfi_restore 29
	blr
.LVL279:
.L203:
.LCFI79:
	.cfi_restore_state
	mr 31,3
.LVL280:
.LBB3781:
.LBB3770:
.LBB3771:
.LBB3772:
	.loc 14 501 0
	addi 3,29,236
	bl _ZN5idStr8FreeDataEv
.LVL281:
.L199:
.LBE3772:
.LBE3771:
.LBE3770:
.LBB3773:
.LBB3774:
.LBB3775:
	addi 3,29,160
	bl _ZN5idStr8FreeDataEv
.LVL282:
.L201:
.LBE3775:
.LBE3774:
.LBE3773:
.LBB3776:
.LBB3777:
.LBB3778:
	addi 3,29,128
	bl _ZN5idStr8FreeDataEv
	mr 3,31
.LEHB17:
	bl _Unwind_Resume
.LEHE17:
.LVL283:
.L205:
	mr 31,3
	b .L201
.LVL284:
.L204:
	mr 31,3
	b .L199
.LBE3778:
.LBE3777:
.LBE3776:
.LBE3781:
	.cfi_endproc
.LFE2829:
	.section	.gcc_except_table
.LLSDA2829:
	.byte	0xff
	.byte	0xff
	.byte	0x1
	.uleb128 .LLSDACSE2829-.LLSDACSB2829
.LLSDACSB2829:
	.uleb128 .LEHB13-.LFB2829
	.uleb128 .LEHE13-.LEHB13
	.uleb128 .L203-.LFB2829
	.uleb128 0
	.uleb128 .LEHB14-.LFB2829
	.uleb128 .LEHE14-.LEHB14
	.uleb128 .L204-.LFB2829
	.uleb128 0
	.uleb128 .LEHB15-.LFB2829
	.uleb128 .LEHE15-.LEHB15
	.uleb128 .L205-.LFB2829
	.uleb128 0
	.uleb128 .LEHB16-.LFB2829
	.uleb128 .LEHE16-.LEHB16
	.uleb128 0
	.uleb128 0
	.uleb128 .LEHB17-.LFB2829
	.uleb128 .LEHE17-.LEHB17
	.uleb128 0
	.uleb128 0
.LLSDACSE2829:
	.section	.text._ZN17idMultiplayerGameD2Ev,"axG",@progbits,_ZN17idMultiplayerGameD5Ev,comdat
	.size	_ZN17idMultiplayerGameD2Ev, .-_ZN17idMultiplayerGameD2Ev
	.section	".text"
	.align 2
	.globl _ZNK11idGameLocal6PrintfEPKcz
	.type	_ZNK11idGameLocal6PrintfEPKcz, @function
_ZNK11idGameLocal6PrintfEPKcz:
.LFB2845:
	.loc 4 576 0
	.cfi_startproc
.LVL285:
	mflr 0
	stwu 1,-1136(1)
.LCFI80:
	.cfi_def_cfa_offset 1136
	.cfi_register 65, 0
	stw 5,1048(1)
	stw 0,1140(1)
	stw 6,1052(1)
	stw 7,1056(1)
	stw 8,1060(1)
	stw 9,1064(1)
	stw 10,1068(1)
	bne- 1,.L208
	.cfi_offset 65, 4
	.loc 4 576 0
	stfd 1,1072(1)
	stfd 2,1080(1)
	stfd 3,1088(1)
	stfd 4,1096(1)
	stfd 5,1104(1)
	stfd 6,1112(1)
	stfd 7,1120(1)
	stfd 8,1128(1)
.L208:
.LBB3782:
	.loc 4 580 0
	li 0,2
.LBE3782:
	.loc 4 576 0
	mr 5,4
.LBB3783:
	.loc 4 580 0
	stb 0,8(1)
	li 0,0
	stb 0,9(1)
	addi 0,1,1144
	.loc 4 581 0
	addi 6,1,8
	.loc 4 580 0
	stw 0,12(1)
	.loc 4 581 0
	li 4,1024
.LVL286:
	.loc 4 580 0
	addi 0,1,1040
	.loc 4 581 0
	addi 3,1,20
.LVL287:
	.loc 4 580 0
	stw 0,16(1)
	.loc 4 581 0
	bl _ZN5idStr9vsnPrintfEPciPKcP13__va_list_tag
.LVL288:
	.loc 4 584 0
	lis 9,common@ha
	lwz 3,common@l(9)
	lis 4,.LC8@ha
	addi 5,1,20
	la 4,.LC8@l(4)
	lwz 9,0(3)
	lwz 0,68(9)
	mtctr 0
	crxor 6,6,6
	bctrl
.LBE3783:
	.loc 4 585 0
	lwz 0,1140(1)
	addi 1,1,1136
.LCFI81:
	.cfi_def_cfa_offset 0
	mtlr 0
	blr
	.cfi_endproc
.LFE2845:
	.size	_ZNK11idGameLocal6PrintfEPKcz, .-_ZNK11idGameLocal6PrintfEPKcz
	.align 2
	.globl _ZNK11idGameLocal7DPrintfEPKcz
	.type	_ZNK11idGameLocal7DPrintfEPKcz, @function
_ZNK11idGameLocal7DPrintfEPKcz:
.LFB2846:
	.loc 4 592 0
	.cfi_startproc
.LVL289:
	mflr 0
	stwu 1,-1136(1)
.LCFI82:
	.cfi_def_cfa_offset 1136
	.cfi_register 65, 0
	stw 5,1048(1)
	stw 0,1140(1)
	stw 6,1052(1)
	stw 7,1056(1)
	stw 8,1060(1)
	stw 9,1064(1)
	stw 10,1068(1)
	bne- 1,.L210
	.cfi_offset 65, 4
	.loc 4 592 0
	stfd 1,1072(1)
	stfd 2,1080(1)
	stfd 3,1088(1)
	stfd 4,1096(1)
	stfd 5,1104(1)
	stfd 6,1112(1)
	stfd 7,1120(1)
	stfd 8,1128(1)
.L210:
.LBB3784:
.LBB3785:
.LBB3786:
	.loc 4 596 0
	lis 9,developer+44@ha
.LBE3786:
.LBE3785:
.LBE3784:
	.loc 4 592 0
	mr 5,4
.LBB3789:
.LBB3788:
.LBB3787:
	.loc 7 142 0
	lwz 9,developer+44@l(9)
.LBE3787:
.LBE3788:
	.loc 4 596 0
	lwz 0,36(9)
	cmpwi 7,0,0
	beq+ 7,.L209
	.loc 4 600 0
	li 0,2
	.loc 4 601 0
	li 4,1024
.LVL290:
	.loc 4 600 0
	stb 0,8(1)
	li 0,0
	stb 0,9(1)
	addi 0,1,1144
	stw 0,12(1)
	.loc 4 601 0
	addi 3,1,20
.LVL291:
	.loc 4 600 0
	addi 0,1,1040
	.loc 4 601 0
	addi 6,1,8
	.loc 4 600 0
	stw 0,16(1)
	.loc 4 601 0
	bl _ZN5idStr9vsnPrintfEPciPKcP13__va_list_tag
.LVL292:
	.loc 4 604 0
	lis 9,common@ha
	lis 4,.LC8@ha
	lwz 3,common@l(9)
	la 4,.LC8@l(4)
	addi 5,1,20
	lwz 9,0(3)
	lwz 0,68(9)
	mtctr 0
	crxor 6,6,6
	bctrl
.L209:
.LBE3789:
	.loc 4 605 0
	lwz 0,1140(1)
	addi 1,1,1136
.LCFI83:
	.cfi_def_cfa_offset 0
	mtlr 0
	blr
	.cfi_endproc
.LFE2846:
	.size	_ZNK11idGameLocal7DPrintfEPKcz, .-_ZNK11idGameLocal7DPrintfEPKcz
	.align 2
	.globl _ZNK11idGameLocal7WarningEPKcz
	.type	_ZNK11idGameLocal7WarningEPKcz, @function
_ZNK11idGameLocal7WarningEPKcz:
.LFB2847:
	.loc 4 612 0
	.cfi_startproc
.LVL293:
	mflr 0
	stwu 1,-1136(1)
.LCFI84:
	.cfi_def_cfa_offset 1136
	.cfi_register 65, 0
	stw 5,1048(1)
	stw 0,1140(1)
	stw 6,1052(1)
	stw 7,1056(1)
	stw 8,1060(1)
	stw 9,1064(1)
	stw 10,1068(1)
	bne- 1,.L213
	.cfi_offset 65, 4
	.loc 4 612 0
	stfd 1,1072(1)
	stfd 2,1080(1)
	stfd 3,1088(1)
	stfd 4,1096(1)
	stfd 5,1104(1)
	stfd 6,1112(1)
	stfd 7,1120(1)
	stfd 8,1128(1)
.L213:
.LBB3790:
	.loc 4 617 0
	li 0,2
.LBE3790:
	.loc 4 612 0
	mr 5,4
.LBB3791:
	.loc 4 617 0
	stb 0,8(1)
	li 0,0
	stb 0,9(1)
	addi 0,1,1144
	.loc 4 618 0
	li 4,1024
.LVL294:
	addi 6,1,8
	.loc 4 617 0
	stw 0,12(1)
	.loc 4 618 0
	addi 3,1,20
.LVL295:
	.loc 4 617 0
	addi 0,1,1040
	stw 0,16(1)
	.loc 4 618 0
	bl _ZN5idStr9vsnPrintfEPciPKcP13__va_list_tag
.LVL296:
	.loc 4 621 0
	bl _ZN8idThread13CurrentThreadEv
.LVL297:
	.loc 4 622 0
	cmpwi 7,3,0
	beq- 7,.L214
	.loc 4 623 0
	lis 4,.LC8@ha
	addi 5,1,20
	la 4,.LC8@l(4)
	crxor 6,6,6
	bl _ZNK8idThread7WarningEPKcz
.LVL298:
.LBE3791:
	.loc 4 627 0
	lwz 0,1140(1)
	addi 1,1,1136
	.cfi_remember_state
.LCFI85:
	.cfi_def_cfa_offset 0
	mtlr 0
	blr
.LVL299:
.L214:
.LCFI86:
	.cfi_restore_state
.LBB3792:
	.loc 4 625 0
	lis 9,common@ha
	lis 4,.LC8@ha
	lwz 3,common@l(9)
.LVL300:
	addi 5,1,20
	la 4,.LC8@l(4)
	lwz 9,0(3)
	lwz 0,80(9)
	mtctr 0
	crxor 6,6,6
	bctrl
.LBE3792:
	.loc 4 627 0
	lwz 0,1140(1)
	addi 1,1,1136
.LCFI87:
	.cfi_def_cfa_offset 0
	mtlr 0
	blr
	.cfi_endproc
.LFE2847:
	.size	_ZNK11idGameLocal7WarningEPKcz, .-_ZNK11idGameLocal7WarningEPKcz
	.align 2
	.globl _ZNK11idGameLocal8DWarningEPKcz
	.type	_ZNK11idGameLocal8DWarningEPKcz, @function
_ZNK11idGameLocal8DWarningEPKcz:
.LFB2848:
	.loc 4 634 0
	.cfi_startproc
.LVL301:
	mflr 0
	stwu 1,-1136(1)
.LCFI88:
	.cfi_def_cfa_offset 1136
	.cfi_register 65, 0
	stw 5,1048(1)
	stw 0,1140(1)
	stw 6,1052(1)
	stw 7,1056(1)
	stw 8,1060(1)
	stw 9,1064(1)
	stw 10,1068(1)
	bne- 1,.L217
	.cfi_offset 65, 4
	.loc 4 634 0
	stfd 1,1072(1)
	stfd 2,1080(1)
	stfd 3,1088(1)
	stfd 4,1096(1)
	stfd 5,1104(1)
	stfd 6,1112(1)
	stfd 7,1120(1)
	stfd 8,1128(1)
.L217:
.LBB3793:
.LBB3794:
.LBB3795:
	.loc 4 639 0
	lis 9,developer+44@ha
.LBE3795:
.LBE3794:
.LBE3793:
	.loc 4 634 0
	mr 5,4
.LBB3798:
.LBB3797:
.LBB3796:
	.loc 7 142 0
	lwz 9,developer+44@l(9)
.LBE3796:
.LBE3797:
	.loc 4 639 0
	lwz 0,36(9)
	cmpwi 7,0,0
	bne- 7,.L220
.LVL302:
.L216:
.LBE3798:
	.loc 4 653 0
	lwz 0,1140(1)
	addi 1,1,1136
	.cfi_remember_state
.LCFI89:
	.cfi_def_cfa_offset 0
	mtlr 0
	blr
.LVL303:
.L220:
.LCFI90:
	.cfi_restore_state
.LBB3799:
	.loc 4 643 0
	li 0,2
	.loc 4 644 0
	li 4,1024
.LVL304:
	.loc 4 643 0
	stb 0,8(1)
	li 0,0
	stb 0,9(1)
	addi 0,1,1144
	.loc 4 644 0
	addi 6,1,8
	.loc 4 643 0
	stw 0,12(1)
	.loc 4 644 0
	addi 3,1,20
.LVL305:
	.loc 4 643 0
	addi 0,1,1040
	stw 0,16(1)
	.loc 4 644 0
	bl _ZN5idStr9vsnPrintfEPciPKcP13__va_list_tag
.LVL306:
	.loc 4 647 0
	bl _ZN8idThread13CurrentThreadEv
.LVL307:
	.loc 4 648 0
	cmpwi 7,3,0
	beq- 7,.L219
	.loc 4 649 0
	lis 4,.LC8@ha
	addi 5,1,20
	la 4,.LC8@l(4)
	crxor 6,6,6
	bl _ZNK8idThread7WarningEPKcz
.LVL308:
.LBE3799:
	.loc 4 653 0
	lwz 0,1140(1)
	addi 1,1,1136
	.cfi_remember_state
.LCFI91:
	.cfi_def_cfa_offset 0
	mtlr 0
	blr
.LVL309:
.L219:
.LCFI92:
	.cfi_restore_state
.LBB3800:
	.loc 4 651 0
	lis 9,common@ha
	lis 4,.LC8@ha
	lwz 3,common@l(9)
.LVL310:
	la 4,.LC8@l(4)
	addi 5,1,20
	lwz 9,0(3)
	lwz 0,84(9)
	mtctr 0
	crxor 6,6,6
	bctrl
	b .L216
.LBE3800:
	.cfi_endproc
.LFE2848:
	.size	_ZNK11idGameLocal8DWarningEPKcz, .-_ZNK11idGameLocal8DWarningEPKcz
	.align 2
	.globl _ZNK11idGameLocal5ErrorEPKcz
	.type	_ZNK11idGameLocal5ErrorEPKcz, @function
_ZNK11idGameLocal5ErrorEPKcz:
.LFB2849:
	.loc 4 660 0
	.cfi_startproc
.LVL311:
	mflr 0
	stwu 1,-1136(1)
.LCFI93:
	.cfi_def_cfa_offset 1136
	.cfi_register 65, 0
	stw 5,1048(1)
	stw 0,1140(1)
	stw 6,1052(1)
	stw 7,1056(1)
	stw 8,1060(1)
	stw 9,1064(1)
	stw 10,1068(1)
	bne- 1,.L222
	.cfi_offset 65, 4
	.loc 4 660 0
	stfd 1,1072(1)
	stfd 2,1080(1)
	stfd 3,1088(1)
	stfd 4,1096(1)
	stfd 5,1104(1)
	stfd 6,1112(1)
	stfd 7,1120(1)
	stfd 8,1128(1)
.L222:
.LBB3801:
	.loc 4 665 0
	li 0,2
.LBE3801:
	.loc 4 660 0
	mr 5,4
.LBB3802:
	.loc 4 665 0
	stb 0,8(1)
	li 0,0
	stb 0,9(1)
	addi 0,1,1144
	.loc 4 666 0
	li 4,1024
.LVL312:
	addi 6,1,8
	.loc 4 665 0
	stw 0,12(1)
	.loc 4 666 0
	addi 3,1,20
.LVL313:
	.loc 4 665 0
	addi 0,1,1040
	stw 0,16(1)
	.loc 4 666 0
	bl _ZN5idStr9vsnPrintfEPciPKcP13__va_list_tag
.LVL314:
	.loc 4 669 0
	bl _ZN8idThread13CurrentThreadEv
.LVL315:
	.loc 4 670 0
	cmpwi 7,3,0
	beq- 7,.L223
	.loc 4 671 0
	lis 4,.LC8@ha
	addi 5,1,20
	la 4,.LC8@l(4)
	crxor 6,6,6
	bl _ZNK8idThread5ErrorEPKcz
.LVL316:
.LBE3802:
	.loc 4 675 0
	lwz 0,1140(1)
	addi 1,1,1136
	.cfi_remember_state
.LCFI94:
	.cfi_def_cfa_offset 0
	mtlr 0
	blr
.LVL317:
.L223:
.LCFI95:
	.cfi_restore_state
.LBB3803:
	.loc 4 673 0
	lis 9,common@ha
	lis 4,.LC8@ha
	lwz 3,common@l(9)
.LVL318:
	addi 5,1,20
	la 4,.LC8@l(4)
	lwz 9,0(3)
	lwz 0,96(9)
	mtctr 0
	crxor 6,6,6
	bctrl
.LBE3803:
	.loc 4 675 0
	lwz 0,1140(1)
	addi 1,1,1136
.LCFI96:
	.cfi_def_cfa_offset 0
	mtlr 0
	blr
	.cfi_endproc
.LFE2849:
	.size	_ZNK11idGameLocal5ErrorEPKcz, .-_ZNK11idGameLocal5ErrorEPKcz
	.align 2
	.globl _Z9gameErrorPKcz
	.type	_Z9gameErrorPKcz, @function
_Z9gameErrorPKcz:
.LFB2850:
	.loc 4 682 0
	.cfi_startproc
.LVL319:
	mflr 0
	stwu 1,-1144(1)
.LCFI97:
	.cfi_def_cfa_offset 1144
	.cfi_register 65, 0
	stw 4,1052(1)
	stw 0,1148(1)
	stw 5,1056(1)
	stw 6,1060(1)
	stw 7,1064(1)
	stw 8,1068(1)
	stw 9,1072(1)
	stw 10,1076(1)
	bne- 1,.L226
	.cfi_offset 65, 4
	.loc 4 682 0
	stfd 1,1080(1)
	stfd 2,1088(1)
	stfd 3,1096(1)
	stfd 4,1104(1)
	stfd 5,1112(1)
	stfd 6,1120(1)
	stfd 7,1128(1)
	stfd 8,1136(1)
.L226:
.LBB3804:
	.loc 4 686 0
	li 0,1
.LBE3804:
	.loc 4 682 0
	mr 5,3
.LBB3805:
	.loc 4 686 0
	stb 0,8(1)
	li 0,0
	stb 0,9(1)
	addi 0,1,1152
	.loc 4 687 0
	addi 6,1,8
	.loc 4 686 0
	stw 0,12(1)
	.loc 4 687 0
	li 4,1024
	.loc 4 686 0
	addi 0,1,1048
	.loc 4 687 0
	addi 3,1,20
.LVL320:
	.loc 4 686 0
	stw 0,16(1)
	.loc 4 687 0
	bl _ZN5idStr9vsnPrintfEPciPKcP13__va_list_tag
.LVL321:
	.loc 4 690 0
	lis 3,.LANCHOR0@ha
	lis 4,.LC8@ha
	addi 5,1,20
	la 3,.LANCHOR0@l(3)
	la 4,.LC8@l(4)
	crxor 6,6,6
	bl _ZNK11idGameLocal5ErrorEPKcz
.LBE3805:
	.loc 4 691 0
	lwz 0,1148(1)
	addi 1,1,1144
.LCFI98:
	.cfi_def_cfa_offset 0
	mtlr 0
	blr
	.cfi_endproc
.LFE2850:
	.size	_Z9gameErrorPKcz, .-_Z9gameErrorPKcz
	.align 2
	.globl _ZN11idGameLocal8MapClearEb
	.type	_ZN11idGameLocal8MapClearEb, @function
_ZN11idGameLocal8MapClearEb:
.LFB2864:
	.loc 4 1409 0
	.cfi_startproc
.LVL322:
	stwu 1,-48(1)
.LCFI99:
	.cfi_def_cfa_offset 48
	mfcr 12
.LBB3842:
	.loc 4 1412 0
	cmpwi 4,4,0
.LBE3842:
	.loc 4 1409 0
	mflr 0
	stw 31,44(1)
.LBB3915:
	.loc 4 1412 0
	mfcr 31
	rlwinm 31,31,19,1
	.cfi_offset 31, -4
	.cfi_register 65, 0
	.cfi_register 70, 12
.LBE3915:
	.loc 4 1409 0
	stw 30,40(1)
	stw 0,52(1)
.LBB3916:
	.loc 4 1412 0
	slwi 31,31,2
.LVL323:
.LBE3916:
	.loc 4 1409 0
	stw 23,12(1)
.LBB3917:
	addi 30,31,131
	.cfi_offset 23, -36
	.cfi_offset 65, 4
	.cfi_offset 30, -8
.LBE3917:
	stw 24,16(1)
.LBB3918:
	slwi 30,30,2
.LBE3918:
	stw 25,20(1)
.LBB3919:
	add 30,3,30
.LBE3919:
	stw 26,24(1)
	stw 27,28(1)
.LBB3920:
	addi 30,30,4
.LBE3920:
	stw 12,8(1)
	stw 28,32(1)
	mr 28,3
	.cfi_offset 28, -16
	.cfi_offset 70, -40
	.cfi_offset 27, -20
	.cfi_offset 26, -24
	.cfi_offset 25, -28
	.cfi_offset 24, -32
	stw 29,36(1)
.LBB3921:
	.loc 4 1417 0
	li 29,-1
	.cfi_offset 29, -12
.LVL324:
.L230:
	.loc 4 1413 0
	lwzu 9,4(30)
	.loc 4 1412 0
	addi 31,31,1
.LVL325:
	.loc 4 1413 0
	cmpwi 7,9,0
	mr 3,9
	beq- 7,.L229
	.loc 4 1413 0 is_stmt 0 discriminator 1
	lwz 9,0(9)
	lwz 0,8(9)
	mtctr 0
	bctrl
.L229:
.LVL326:
	.loc 4 1412 0 is_stmt 1
	cmpwi 7,31,4095
	.loc 4 1417 0
	stw 29,16384(30)
	.loc 4 1412 0
	ble+ 7,.L230
	.loc 4 1420 0
	addis 30,28,0x1
	addi 24,30,-32228
.LVL327:
.LBB3843:
.LBB3844:
	.file 15 "d:/Data/Nintendo/DoomGX/src/game/../idlib/../idlib/containers/HashIndex.h"
	.loc 15 341 0
	mr 3,24
	bl _ZN11idHashIndex4FreeEv
	.loc 15 342 0
	li 0,1024
	stw 0,-32228(30)
	.loc 15 343 0
	li 0,4096
	stw 0,-32220(30)
.LBE3844:
.LBE3843:
	.loc 4 1422 0
	bne- 4,.L231
.LBB3845:
.LBB3846:
	.loc 15 197 0
	lis 23,_ZN11idHashIndex13INVALID_INDEXE@ha
.LBE3846:
.LBE3845:
	.loc 4 1409 0
	addi 26,28,528
	li 27,1
	li 29,0
.LBB3853:
.LBB3847:
	.loc 15 197 0
	la 23,_ZN11idHashIndex13INVALID_INDEXE@l(23)
.LVL328:
.L238:
.LBE3847:
.LBE3853:
	.loc 4 1425 0
	lwzu 9,4(26)
	cmpwi 7,9,0
	beq- 7,.L232
	.loc 4 4268 0
	lwz 11,72(9)
.LVL329:
.LBB3854:
.LBB3855:
.LBB3856:
.LBB3857:
	.loc 14 976 0
	li 31,0
	lbz 0,0(11)
	cmpwi 7,0,0
	beq- 7,.L233
.LBE3857:
.LBE3856:
.LBE3855:
.LBE3854:
	.loc 4 1409 0
	li 9,119
.LVL330:
.L234:
.LBB3863:
.LBB3860:
.LBB3859:
.LBB3858:
	.loc 14 977 0
	mullw 10,0,9
	.loc 14 976 0
	lbzu 0,1(11)
	addi 9,9,1
	cmpwi 7,0,0
	.loc 14 977 0
	add 31,31,10
.LVL331:
	.loc 14 976 0
	bne+ 7,.L234
.LVL332:
.L233:
.LBE3858:
.LBE3859:
.LBE3860:
.LBE3863:
.LBB3864:
.LBB3848:
	.loc 15 197 0
	lwz 9,-32224(30)
.LBE3848:
.LBE3864:
.LBB3865:
.LBB3861:
	.loc 15 381 0
	lwz 25,-32208(30)
.LVL333:
.LBE3861:
.LBE3865:
.LBB3866:
.LBB3849:
	.loc 15 197 0
	cmpw 7,9,23
	beq- 7,.L260
	.loc 15 200 0
	lwz 11,-32220(30)
	mr 0,25
	cmpw 7,29,11
	blt+ 7,.L237
	.loc 15 201 0
	mr 3,24
	mr 4,27
	bl _ZN11idHashIndex11ResizeIndexEi
.LVL334:
	lwz 0,-32208(30)
	lwz 9,-32224(30)
.L237:
.LVL335:
.LBE3849:
.LBE3866:
.LBB3867:
.LBB3862:
	.loc 15 381 0
	and 31,31,25
.LVL336:
.LBE3862:
.LBE3867:
.LBB3868:
.LBB3850:
	.loc 15 204 0
	lwz 11,-32216(30)
	.loc 15 203 0
	and 0,31,0
.LVL337:
	.loc 15 204 0
	slwi 0,0,2
.LVL338:
	lwzx 10,9,0
	slwi 9,29,2
	stwx 10,11,9
	.loc 15 205 0
	lwz 9,-32224(30)
	stwx 29,9,0
.LVL339:
.L232:
.LBE3850:
.LBE3868:
	.loc 4 1424 0
	cmpwi 7,29,3
.LBB3869:
.LBB3851:
	.loc 15 205 0
	addi 27,27,1
.LBE3851:
.LBE3869:
	.loc 4 1424 0
	addi 29,29,1
	bne+ 7,.L238
.L231:
	.loc 4 1432 0
	addis 31,28,0x23
	lwz 3,17268(31)
	cmpwi 7,3,0
	beq- 7,.L239
	.loc 4 1432 0 is_stmt 0 discriminator 1
	lwz 9,0(3)
	lwz 0,8(9)
	mtctr 0
	bctrl
.L239:
	.loc 4 1433 0 is_stmt 1
	li 0,0
	.loc 4 1435 0
	addis 28,28,0x25
.LVL340:
	.loc 4 1433 0
	stw 0,17268(31)
	.loc 4 1435 0
	lwz 30,1976(28)
	cmpwi 7,30,0
	beq- 7,.L240
.LVL341:
.LBB3870:
.LBB3871:
.LBB3872:
.LBB3873:
.LBB3874:
.LBB3875:
	.loc 8 193 0
	lwz 3,32(30)
	cmpwi 7,3,0
	beq- 7,.L241
	.loc 8 194 0
	bl _ZdaPv
.LVL342:
.L241:
.LBE3875:
.LBE3874:
.LBE3873:
.LBE3872:
.LBB3882:
.LBB3883:
.LBB3884:
.LBB3885:
	.loc 8 193 0
	lwz 3,16(30)
.LBE3885:
.LBE3884:
.LBE3883:
.LBE3882:
.LBB3907:
.LBB3880:
.LBB3878:
.LBB3876:
	.loc 8 197 0
	li 0,0
	stw 0,32(30)
.LBE3876:
.LBE3878:
.LBE3880:
.LBE3907:
.LBB3908:
.LBB3904:
.LBB3901:
.LBB3898:
	.loc 8 193 0
	cmpwi 7,3,0
.LBE3898:
.LBE3901:
.LBE3904:
.LBE3908:
.LBB3909:
.LBB3881:
.LBB3879:
.LBB3877:
	.loc 8 198 0
	stw 0,20(30)
	.loc 8 199 0
	stw 0,24(30)
.LVL343:
.LBE3877:
.LBE3879:
.LBE3881:
.LBE3909:
.LBB3910:
.LBB3905:
.LBB3902:
.LBB3899:
	.loc 8 193 0
	beq- 7,.L243
	.loc 8 194 0
	lwz 9,-4(3)
	mulli 9,9,36
	add 9,3,9
	cmpw 7,3,9
	beq- 7,.L244
.L258:
.LBB3886:
.LBB3887:
.LBB3888:
.LBB3889:
.LBB3890:
.LBB3891:
	.loc 14 501 0
	addi 3,9,-32
.LBE3891:
.LBE3890:
.LBE3889:
.LBE3888:
.LBE3887:
.LBE3886:
	.loc 8 194 0
	addi 31,9,-36
.LVL344:
.LBB3897:
.LBB3896:
.LBB3895:
.LBB3894:
.LBB3893:
.LBB3892:
	.loc 14 501 0
	bl _ZN5idStr8FreeDataEv
.LVL345:
.LBE3892:
.LBE3893:
.LBE3894:
.LBE3895:
.LBE3896:
.LBE3897:
	.loc 8 194 0
	lwz 3,16(30)
	mr 9,31
	cmpw 7,3,31
	bne+ 7,.L258
.LVL346:
.L244:
	addi 3,3,-4
	bl _ZdaPv
.L243:
	.loc 8 197 0
	li 31,0
.LBE3899:
.LBE3902:
.LBE3905:
.LBE3910:
.LBE3871:
.LBE3870:
	.loc 4 1436 0
	mr 3,30
.LBB3913:
.LBB3912:
.LBB3911:
.LBB3906:
.LBB3903:
.LBB3900:
	.loc 8 197 0
	stw 31,16(30)
	.loc 8 198 0
	stw 31,4(30)
	.loc 8 199 0
	stw 31,8(30)
.LBE3900:
.LBE3903:
.LBE3906:
.LBE3911:
.LBE3912:
.LBE3913:
	.loc 4 1436 0
	bl _ZdlPv
	.loc 4 1437 0
	stw 31,1976(28)
.LVL347:
.L240:
	.loc 4 1440 0
	lwz 3,2112(28)
	cmpwi 7,3,0
	beq- 7,.L251
	.loc 4 1440 0 is_stmt 0 discriminator 1
	bl _ZdaPv
.L251:
	.loc 4 1441 0 is_stmt 1
	li 0,0
	stw 0,2112(28)
.LBE3921:
	.loc 4 1442 0
	lwz 0,52(1)
	lwz 12,8(1)
	mtlr 0
	lwz 23,12(1)
	lwz 24,16(1)
.LVL348:
	mtcrf 8,12
	lwz 25,20(1)
	lwz 26,24(1)
	lwz 27,28(1)
	lwz 28,32(1)
.LVL349:
	lwz 29,36(1)
	lwz 30,40(1)
	lwz 31,44(1)
	addi 1,1,48
	.cfi_remember_state
.LCFI100:
	.cfi_def_cfa_offset 0
	.cfi_restore 70
	.cfi_restore 31
	.cfi_restore 30
	.cfi_restore 29
	.cfi_restore 28
	.cfi_restore 27
	.cfi_restore 26
	.cfi_restore 25
	.cfi_restore 24
	.cfi_restore 23
	blr
.LVL350:
.L260:
.LCFI101:
	.cfi_restore_state
.LBB3922:
.LBB3914:
.LBB3852:
	.loc 15 198 0
	lwz 5,-32220(30)
	lwz 4,-32228(30)
	cmpw 7,29,5
	blt- 7,.L236
	mr 5,27
.L236:
	mr 3,24
	bl _ZN11idHashIndex8AllocateEii
.LVL351:
	lwz 0,-32208(30)
	lwz 9,-32224(30)
	b .L237
.LBE3852:
.LBE3914:
.LBE3922:
	.cfi_endproc
.LFE2864:
	.size	_ZN11idGameLocal8MapClearEb, .-_ZN11idGameLocal8MapClearEb
	.align 2
	.globl _ZN11idGameLocal11MapShutdownEv
	.type	_ZN11idGameLocal11MapShutdownEv, @function
_ZN11idGameLocal11MapShutdownEv:
.LFB2868:
	.loc 4 1449 0
	.cfi_startproc
.LVL352:
	stwu 1,-24(1)
.LCFI102:
	.cfi_def_cfa_offset 24
	mflr 0
	.loc 4 1450 0
	lis 4,.LC9@ha
	.loc 4 1449 0
	stw 29,12(1)
	.loc 4 1450 0
	la 4,.LC9@l(4)
	.loc 4 1454 0
	lis 29,gameRenderWorld@ha
	.cfi_offset 29, -12
	.cfi_register 65, 0
	.loc 4 1449 0
	stw 0,28(1)
	stw 30,16(1)
	mr 30,3
	.cfi_offset 30, -8
	.cfi_offset 65, 4
	stw 31,20(1)
	.loc 4 1450 0
	.cfi_offset 31, -4
	crxor 6,6,6
	bl _ZNK11idGameLocal6PrintfEPKcz
.LVL353:
	.loc 4 1454 0
	lwz 3,gameRenderWorld@l(29)
	.loc 4 1452 0
	addis 31,30,0x25
	li 0,4
	.loc 4 1454 0
	cmpwi 7,3,0
	.loc 4 1452 0
	stw 0,2236(31)
	.loc 4 1454 0
	beq- 7,.L262
	.loc 4 1456 0
	lwz 9,0(3)
	li 4,0
	lwz 0,152(9)
	mtctr 0
	bctrl
	.loc 4 1457 0
	lwz 3,gameRenderWorld@l(29)
	li 4,0
	lwz 9,0(3)
	lwz 0,196(9)
	mtctr 0
	bctrl
.L262:
	.loc 4 1461 0
	lbz 0,1992(31)
	cmpwi 7,0,0
	beq- 7,.L263
	.loc 4 1462 0
	li 0,0
	stw 0,2116(31)
	.loc 4 1463 0
	stb 0,1992(31)
.L263:
	.loc 4 1466 0
	mr 3,30
	li 4,1
	bl _ZN11idGameLocal8MapClearEb
	.loc 4 1469 0
	addis 3,30,0x1
	addi 3,3,-32060
	bl _ZN9idProgram7RestartEv
	.loc 4 1471 0
	lwz 3,1972(31)
	cmpwi 7,3,0
	beq- 7,.L264
	.loc 4 1472 0
	bl _ZN16idSmokeParticles8ShutdownEv
.L264:
	.loc 4 1475 0
	addi 3,31,1236
	bl _ZN5idPVS8ShutdownEv
	.loc 4 1477 0
	addis 3,30,0x23
	addi 3,3,17272
	bl _ZN6idClip8ShutdownEv
	.loc 4 1478 0
	bl _ZN11idClipModel20ClearTraceModelCacheEv
	.loc 4 1480 0
	mr 3,30
	bl _ZN11idGameLocal20ShutdownAsyncNetworkEv
.LVL354:
.LBB3923:
.LBB3924:
	.loc 14 746 0
	addi 3,31,2064
	bl _ZN5idStr8FreeDataEv
.LVL355:
.LBB3925:
.LBB3926:
	.loc 14 358 0
	addi 9,31,2076
	stw 9,2068(31)
	.loc 14 356 0
	li 0,0
.LBE3926:
.LBE3925:
.LBE3924:
.LBE3923:
	.loc 4 1487 0
	li 9,1
.LBB3939:
.LBB3935:
.LBB3931:
.LBB3927:
	.loc 14 357 0
	li 11,20
.LBE3927:
.LBE3931:
.LBE3935:
.LBE3939:
	.loc 4 1487 0
	stw 9,2236(31)
	.loc 4 1485 0
	lis 9,gameSoundWorld@ha
.LBB3940:
.LBB3936:
.LBB3932:
.LBB3928:
	.loc 14 356 0
	stw 0,2064(31)
.LBE3928:
.LBE3932:
.LBE3936:
.LBE3940:
	.loc 4 1489 0
	mr 3,30
.LBB3941:
.LBB3937:
.LBB3933:
.LBB3929:
	.loc 14 357 0
	stw 11,2072(31)
.LBE3929:
.LBE3933:
.LBE3937:
.LBE3941:
	.loc 4 1489 0
	lis 4,.LC10@ha
.LBB3942:
.LBB3938:
.LBB3934:
.LBB3930:
	.loc 14 359 0
	stb 0,2076(31)
.LBE3930:
.LBE3934:
.LBE3938:
.LBE3942:
	.loc 4 1489 0
	la 4,.LC10@l(4)
	.loc 4 1484 0
	stw 0,gameRenderWorld@l(29)
	.loc 4 1485 0
	stw 0,gameSoundWorld@l(9)
	.loc 4 1490 0
	lwz 0,28(1)
	lwz 29,12(1)
	lwz 30,16(1)
.LVL356:
	mtlr 0
	lwz 31,20(1)
	addi 1,1,24
.LCFI103:
	.cfi_def_cfa_offset 0
	.cfi_restore 31
	.cfi_restore 30
	.cfi_restore 29
	.loc 4 1489 0
	crxor 6,6,6
	b _ZNK11idGameLocal6PrintfEPKcz
.LVL357:
.LVL358:
.LVL359:
	.cfi_endproc
.LFE2868:
	.size	_ZN11idGameLocal11MapShutdownEv, .-_ZN11idGameLocal11MapShutdownEv
	.align 2
	.globl _ZN11idGameLocal13DumpOggSoundsEv
	.type	_ZN11idGameLocal13DumpOggSoundsEv, @function
_ZN11idGameLocal13DumpOggSoundsEv:
.LFB2869:
	.loc 4 1497 0
	.cfi_startproc
.LVL360:
	mflr 0
	stwu 1,-8(1)
.LCFI104:
	.cfi_def_cfa_offset 8
	.cfi_register 65, 0
	.loc 4 1498 0
	lis 3,.LC11@ha
.LVL361:
	la 3,.LC11@l(3)
	.loc 4 1497 0
	stw 0,12(1)
	.loc 4 1498 0
	.cfi_offset 65, 4
	crxor 6,6,6
	bl _Z10Sys_PrintfPKcz
	.loc 4 1499 0
	lwz 0,12(1)
	addi 1,1,8
.LCFI105:
	.cfi_def_cfa_offset 0
	mtlr 0
	blr
	.cfi_endproc
.LFE2869:
	.size	_ZN11idGameLocal13DumpOggSoundsEv, .-_ZN11idGameLocal13DumpOggSoundsEv
	.align 2
	.globl _ZN11idGameLocal14GetShakeSoundsEPK6idDict
	.type	_ZN11idGameLocal14GetShakeSoundsEPK6idDict, @function
_ZN11idGameLocal14GetShakeSoundsEPK6idDict:
.LFB2870:
	.loc 4 1507 0
	.cfi_startproc
.LVL362:
	mflr 0
	stwu 1,-8(1)
.LCFI106:
	.cfi_def_cfa_offset 8
	.cfi_register 65, 0
	.loc 4 1508 0
	lis 3,.LC12@ha
.LVL363:
	la 3,.LC12@l(3)
	.loc 4 1507 0
	stw 0,12(1)
	.loc 4 1508 0
	.cfi_offset 65, 4
	crxor 6,6,6
	bl _Z10Sys_PrintfPKcz
.LVL364:
	.loc 4 1509 0
	lwz 0,12(1)
	addi 1,1,8
.LCFI107:
	.cfi_def_cfa_offset 0
	mtlr 0
	blr
	.cfi_endproc
.LFE2870:
	.size	_ZN11idGameLocal14GetShakeSoundsEPK6idDict, .-_ZN11idGameLocal14GetShakeSoundsEPK6idDict
	.align 2
	.globl _ZN11idGameLocal16InitScriptForMapEv
	.type	_ZN11idGameLocal16InitScriptForMapEv, @function
_ZN11idGameLocal16InitScriptForMapEv:
.LFB2872:
	.loc 4 1683 0
	.cfi_startproc
	.cfi_personality 0,__gxx_personality_v0
	.cfi_lsda 0,.LLSDA2872
.LVL365:
	stwu 1,-24(1)
.LCFI108:
	.cfi_def_cfa_offset 24
	mflr 0
	stw 30,16(1)
	mr 30,3
	.cfi_offset 30, -8
	.cfi_register 65, 0
.LBB3943:
	.loc 4 1685 0
	li 3,7068
.LVL366:
.LBE3943:
	.loc 4 1683 0
	stw 31,20(1)
	stw 0,28(1)
	stw 29,12(1)
.LEHB18:
.LBB3948:
	.loc 4 1685 0
	.cfi_offset 29, -12
	.cfi_offset 65, 4
	.cfi_offset 31, -4
	bl _ZN7idClassnwEj
.LEHE18:
	mr 31,3
.LEHB19:
	bl _ZN8idThreadC1Ev
.LEHE19:
	.loc 4 1685 0 is_stmt 0 discriminator 1
	addis 29,30,0x23
	.loc 4 1686 0 is_stmt 1 discriminator 1
	mr 3,31
	.loc 4 1685 0 discriminator 1
	stw 31,17268(29)
.LEHB20:
	.loc 4 1686 0 discriminator 1
	bl _ZN8idThread12ManualDeleteEv
	.loc 4 1687 0 discriminator 1
	lwz 3,17268(29)
	lis 4,.LC13@ha
	la 4,.LC13@l(4)
	bl _ZN8idThread13SetThreadNameEPKc
	.loc 4 1690 0 discriminator 1
	addis 3,30,0x1
	lis 4,.LC14@ha
	addi 3,3,-32060
	la 4,.LC14@l(4)
	bl _ZNK9idProgram12FindFunctionEPKc
.LVL367:
.LBB3944:
	.loc 4 1691 0 discriminator 1
	mr. 30,3
.LVL368:
	beq- 0,.L267
.LBB3945:
	.loc 4 1692 0
	li 3,7068
.LVL369:
	bl _ZN7idClassnwEj
.LEHE20:
	mr 4,30
	mr 31,3
.LEHB21:
	bl _ZN8idThreadC1EPK10function_t
.LEHE21:
.LVL370:
	.loc 4 1693 0 discriminator 1
	mr 3,31
.LEHB22:
	bl _ZN8idThread5StartEv
	cmpwi 7,3,0
	beq- 7,.L267
	.loc 4 1695 0
	cmpwi 7,31,0
	beq- 7,.L267
	.loc 4 1695 0 is_stmt 0 discriminator 1
	lwz 9,0(31)
	mr 3,31
	lwz 0,8(9)
	mtctr 0
	bctrl
.LEHE22:
.LVL371:
.L267:
.LBE3945:
.LBE3944:
.LBE3948:
	.loc 4 1698 0 is_stmt 1
	lwz 0,28(1)
	lwz 29,12(1)
.LVL372:
	mtlr 0
	lwz 30,16(1)
.LVL373:
	lwz 31,20(1)
	addi 1,1,24
	.cfi_remember_state
.LCFI109:
	.cfi_def_cfa_offset 0
	.cfi_restore 31
	.cfi_restore 30
	.cfi_restore 29
	blr
.LVL374:
.L272:
.LCFI110:
	.cfi_restore_state
	mr 30,3
.LVL375:
.LBB3949:
.LBB3947:
.LBB3946:
	.loc 4 1692 0
	mr 3,31
	bl _ZN7idClassdlEPv
	mr 3,30
.LEHB23:
	bl _Unwind_Resume
.LEHE23:
.LVL376:
.L271:
	mr 30,3
.LVL377:
.LBE3946:
.LBE3947:
	.loc 4 1685 0
	mr 3,31
	bl _ZN7idClassdlEPv
	mr 3,30
.LEHB24:
	bl _Unwind_Resume
.LEHE24:
.LBE3949:
	.cfi_endproc
.LFE2872:
	.section	.gcc_except_table
.LLSDA2872:
	.byte	0xff
	.byte	0xff
	.byte	0x1
	.uleb128 .LLSDACSE2872-.LLSDACSB2872
.LLSDACSB2872:
	.uleb128 .LEHB18-.LFB2872
	.uleb128 .LEHE18-.LEHB18
	.uleb128 0
	.uleb128 0
	.uleb128 .LEHB19-.LFB2872
	.uleb128 .LEHE19-.LEHB19
	.uleb128 .L271-.LFB2872
	.uleb128 0
	.uleb128 .LEHB20-.LFB2872
	.uleb128 .LEHE20-.LEHB20
	.uleb128 0
	.uleb128 0
	.uleb128 .LEHB21-.LFB2872
	.uleb128 .LEHE21-.LEHB21
	.uleb128 .L272-.LFB2872
	.uleb128 0
	.uleb128 .LEHB22-.LFB2872
	.uleb128 .LEHE22-.LEHB22
	.uleb128 0
	.uleb128 0
	.uleb128 .LEHB23-.LFB2872
	.uleb128 .LEHE23-.LEHB23
	.uleb128 0
	.uleb128 0
	.uleb128 .LEHB24-.LFB2872
	.uleb128 .LEHE24-.LEHB24
	.uleb128 0
	.uleb128 0
.LLSDACSE2872:
	.section	".text"
	.size	_ZN11idGameLocal16InitScriptForMapEv, .-_ZN11idGameLocal16InitScriptForMapEv
	.align 2
	.globl _ZNK11idGameLocal14GetClientByNumEi
	.type	_ZNK11idGameLocal14GetClientByNumEi, @function
_ZNK11idGameLocal14GetClientByNumEi:
.LFB2874:
	.loc 4 1736 0
	.cfi_startproc
.LVL378:
	.loc 4 1737 0
	cmpwi 0,4,0
	blt- 0,.L275
	.loc 4 1737 0 is_stmt 0 discriminator 1
	lwz 0,48(3)
	cmpw 7,4,0
	.loc 4 1738 0 is_stmt 1 discriminator 1
	mfcr 0
	rlwinm 0,0,29,1
	neg 0,0
	and 4,4,0
.LVL379:
	.loc 4 1740 0 discriminator 1
	addi 4,4,132
.LVL380:
	slwi 4,4,2
.LVL381:
	add 3,3,4
.LVL382:
	.loc 4 1744 0 discriminator 1
	lwz 3,4(3)
	blr
.LVL383:
.L275:
	.loc 4 1738 0
	li 4,0
.LVL384:
	.loc 4 1740 0
	addi 4,4,132
.LVL385:
	slwi 4,4,2
.LVL386:
	add 3,3,4
.LVL387:
	.loc 4 1744 0
	lwz 3,4(3)
	blr
	.cfi_endproc
.LFE2874:
	.size	_ZNK11idGameLocal14GetClientByNumEi, .-_ZNK11idGameLocal14GetClientByNumEi
	.align 2
	.globl _ZNK11idGameLocal15GetClientByNameEPKc
	.type	_ZNK11idGameLocal15GetClientByNameEPKc, @function
_ZNK11idGameLocal15GetClientByNameEPKc:
.LFB2875:
	.loc 4 1751 0
	.cfi_startproc
.LVL388:
	mflr 0
	stwu 1,-40(1)
.LCFI111:
	.cfi_def_cfa_offset 40
	.cfi_register 65, 0
	stw 26,16(1)
	mr 26,4
	.cfi_offset 26, -24
	stw 28,24(1)
	mr 28,3
	.cfi_offset 28, -16
	stw 31,36(1)
.LBB3959:
	.loc 4 1762 0
	li 31,0
	.cfi_offset 31, -4
.LBE3959:
	.loc 4 1751 0
	stw 0,44(1)
	stw 24,8(1)
	stw 25,12(1)
	stw 27,20(1)
	stw 29,28(1)
	stw 30,32(1)
.LBB3977:
	.loc 4 1754 0
	lwz 0,48(3)
	.cfi_offset 30, -8
	.cfi_offset 29, -12
	.cfi_offset 27, -20
	.cfi_offset 25, -28
	.cfi_offset 24, -32
	.cfi_offset 65, 4
	cmpwi 7,0,0
	ble- 7,.L278
.LBB3960:
.LBB3961:
	.loc 11 241 0
	lis 25,.LC4@ha
.LBE3961:
.LBE3960:
	.loc 4 1751 0
	addi 29,3,528
.LBE3977:
	.loc 4 1754 0
	li 30,0
.LBB3978:
.LBB3967:
	.loc 4 4268 0
	lis 27,_ZN8idPlayer4TypeE@ha
.LBE3967:
.LBB3972:
.LBB3963:
	.loc 11 241 0
	la 25,.LC4@l(25)
	.loc 11 245 0
	lis 24,.LC3@ha
.LVL389:
.L281:
.LBE3963:
.LBE3972:
	.loc 4 1755 0
	lwzu 31,4(29)
.LVL390:
	.loc 4 1756 0
	cmpwi 7,31,0
	beq- 7,.L282
.LVL391:
.LBB3973:
.LBB3968:
	.loc 5 340 0 discriminator 1
	lwz 9,0(31)
	mr 3,31
	lwz 0,0(9)
	mtctr 0
	bctrl
.LVL392:
.LBE3968:
	.loc 4 4268 0 discriminator 1
	la 9,_ZN8idPlayer4TypeE@l(27)
	lwz 0,56(3)
.LBB3971:
.LBB3969:
.LBB3970:
	.loc 5 311 0 discriminator 1
	lwz 11,56(9)
	cmpw 7,0,11
	blt- 7,.L290
	.loc 5 311 0 is_stmt 0
	lwz 9,60(9)
	cmpw 7,0,9
	bgt- 7,.L290
.LVL393:
.LBE3970:
.LBE3969:
.LBE3971:
.LBE3973:
	.loc 4 1757 0 is_stmt 1 discriminator 4
	mulli 3,30,44
.LVL394:
.LBB3974:
.LBB3964:
	.loc 11 241 0 discriminator 4
	mr 4,25
.LBE3964:
.LBE3974:
	.loc 4 1757 0 discriminator 4
	add 3,28,3
.LBB3975:
.LBB3965:
	.loc 11 241 0 discriminator 4
	addi 3,3,52
	bl _ZNK6idDict7FindKeyEPKc
.LVL395:
	.loc 11 242 0 discriminator 4
	cmpwi 0,3,0
	beq- 0,.L284
.LVL396:
.LBB3962:
	.loc 4 4268 0
	lwz 9,4(3)
	lwz 4,4(9)
.LVL397:
.L280:
.LBE3962:
.LBE3965:
.LBE3975:
	.loc 4 1757 0
	mr 3,26
.LVL398:
	bl _ZN5idStr11IcmpNoColorEPKcS1_
	cmpwi 7,3,0
	beq- 7,.L278
.LVL399:
.L290:
	lwz 0,48(28)
.LVL400:
.L282:
	.loc 4 1754 0
	addi 30,30,1
.LVL401:
	cmpw 7,0,30
	bgt+ 7,.L281
	.loc 4 1762 0
	li 31,0
.LVL402:
.L278:
.LBE3978:
	.loc 4 1763 0
	lwz 0,44(1)
	mr 3,31
	lwz 24,8(1)
	mtlr 0
	lwz 25,12(1)
	lwz 26,16(1)
.LVL403:
	lwz 27,20(1)
	lwz 28,24(1)
.LVL404:
	lwz 29,28(1)
	lwz 30,32(1)
	lwz 31,36(1)
	addi 1,1,40
	.cfi_remember_state
.LCFI112:
	.cfi_def_cfa_offset 0
	.cfi_restore 31
	.cfi_restore 30
	.cfi_restore 29
	.cfi_restore 28
	.cfi_restore 27
	.cfi_restore 26
	.cfi_restore 25
	.cfi_restore 24
	blr
.LVL405:
.L284:
.LCFI113:
	.cfi_restore_state
.LBB3979:
.LBB3976:
.LBB3966:
	.loc 11 245 0
	la 4,.LC3@l(24)
	b .L280
.LBE3966:
.LBE3976:
.LBE3979:
	.cfi_endproc
.LFE2875:
	.size	_ZNK11idGameLocal15GetClientByNameEPKc, .-_ZNK11idGameLocal15GetClientByNameEPKc
	.align 2
	.globl _ZNK11idGameLocal18GetClientByCmdArgsERK9idCmdArgs
	.type	_ZNK11idGameLocal18GetClientByCmdArgsERK9idCmdArgs, @function
_ZNK11idGameLocal18GetClientByCmdArgsERK9idCmdArgs:
.LFB2876:
	.loc 4 1770 0
	.cfi_startproc
	.cfi_personality 0,__gxx_personality_v0
	.cfi_lsda 0,.LLSDA2876
.LVL406:
	mflr 0
	stwu 1,-56(1)
.LCFI114:
	.cfi_def_cfa_offset 56
	.cfi_register 65, 0
	stw 30,48(1)
	mr 30,3
	.cfi_offset 30, -8
	stw 0,60(1)
	stw 28,40(1)
	stw 29,44(1)
	stw 31,52(1)
.LBB4000:
.LBB4001:
.LBB4002:
	.file 16 "d:/Data/Nintendo/DoomGX/src/game/../idlib/../idlib/CmdArgs.h"
	.loc 16 50 0
	lwz 0,0(4)
	.cfi_offset 31, -4
	.cfi_offset 29, -12
	.cfi_offset 28, -16
	.cfi_offset 65, 4
	cmpwi 7,0,1
	ble- 7,.L292
.LVL407:
	lwz 28,8(4)
.LVL408:
.LBE4002:
.LBE4001:
.LBB4003:
.LBB4004:
.LBB4005:
.LBB4006:
	.loc 14 357 0
	li 9,20
	.loc 14 356 0
	li 0,0
	.loc 14 357 0
	stw 9,16(1)
.LBE4006:
.LBE4005:
	.loc 14 412 0
	cmpwi 7,28,0
.LBB4009:
.LBB4007:
	.loc 14 358 0
	addi 9,1,20
	.loc 14 356 0
	stw 0,8(1)
	.loc 14 358 0
	stw 9,12(1)
	.loc 14 359 0
	stb 0,20(1)
.LBE4007:
.LBE4009:
	.loc 14 412 0
	beq- 7,.L301
	.loc 4 1770 0
	mr 3,28
.LVL409:
	addi 31,1,8
	bl strlen
.LVL410:
	addi 4,3,1
	mr 29,3
.LVL411:
.LBB4010:
.LBB4011:
	.loc 14 350 0
	cmpwi 7,4,20
	bgt- 7,.L307
.LVL412:
.L294:
.LBE4011:
.LBE4010:
	.loc 14 415 0
	lwz 3,12(1)
	mr 4,28
	bl strcpy
.LBE4004:
.LBE4003:
	.loc 4 1773 0
	cmpwi 7,29,0
.LBB4018:
.LBB4015:
	.loc 14 416 0
	stw 29,8(1)
.LBE4015:
.LBE4018:
	.loc 4 1773 0
	beq- 7,.L302
.LBB4019:
.LBB4020:
	.loc 14 855 0
	lwz 3,12(1)
.LEHB25:
	bl _ZN5idStr9IsNumericEPKc
.LBE4020:
.LBE4019:
	.loc 4 1777 0
	cmpwi 7,3,0
	beq- 7,.L295
	.loc 4 1778 0
	lwz 3,12(1)
	bl atoi
.LVL413:
.LBB4021:
.LBB4022:
	.loc 4 1737 0
	cmpwi 0,3,0
	blt- 0,.L303
	lwz 0,48(30)
	cmpw 7,3,0
	.loc 4 1738 0
	mfcr 0
	rlwinm 0,0,29,1
	neg 0,0
	and 3,3,0
.LVL414:
.L296:
	.loc 4 1740 0
	addi 3,3,132
.LVL415:
	slwi 3,3,2
.LVL416:
	add 30,30,3
.LVL417:
	lwz 30,4(30)
	cmpwi 7,30,0
	bne+ 7,.L293
.L297:
.LBE4022:
.LBE4021:
	.loc 4 1783 0
	lis 9,common@ha
	lis 4,.LC15@ha
	lwz 3,common@l(9)
	la 4,.LC15@l(4)
	lwz 5,12(1)
	lwz 9,0(3)
	lwz 0,68(9)
	mtctr 0
	crxor 6,6,6
	bctrl
.L302:
	.loc 4 1774 0
	li 30,0
	b .L293
.LVL418:
.L295:
	.loc 4 1780 0
	lwz 4,12(1)
	mr 3,30
	bl _ZNK11idGameLocal15GetClientByNameEPKc
.LEHE25:
.LVL419:
	.loc 4 1782 0
	mr. 30,3
.LVL420:
	beq- 0,.L297
.LVL421:
.L293:
.LBB4024:
.LBB4025:
.LBB4026:
	.loc 14 501 0
	mr 3,31
.LEHB26:
	bl _ZN5idStr8FreeDataEv
.LBE4026:
.LBE4025:
.LBE4024:
.LBE4000:
	.loc 4 1786 0
	lwz 0,60(1)
	mr 3,30
	lwz 28,40(1)
	mtlr 0
	lwz 29,44(1)
	lwz 30,48(1)
	lwz 31,52(1)
.LVL422:
	addi 1,1,56
	.cfi_remember_state
.LCFI115:
	.cfi_def_cfa_offset 0
	.cfi_restore 31
	.cfi_restore 30
	.cfi_restore 29
	.cfi_restore 28
	blr
.LVL423:
.L307:
.LCFI116:
	.cfi_restore_state
.LBB4036:
.LBB4029:
.LBB4016:
.LBB4013:
.LBB4012:
	.loc 14 351 0
	mr 3,31
.LVL424:
	li 5,1
	bl _ZN5idStr10ReAllocateEib
.LVL425:
	b .L294
.LVL426:
.L292:
.LBE4012:
.LBE4013:
.LBB4014:
.LBB4008:
	.loc 14 357 0
	li 9,20
	.loc 14 356 0
	li 0,0
	.loc 14 357 0
	stw 9,16(1)
	.loc 16 50 0
	lis 28,.LC3@ha
	.loc 14 358 0
	addi 9,1,20
	.loc 14 356 0
	stw 0,8(1)
	.loc 14 358 0
	stw 9,12(1)
	.loc 14 359 0
	li 29,0
	stb 0,20(1)
.LVL427:
	.loc 16 50 0
	la 28,.LC3@l(28)
	addi 31,1,8
.LVL428:
	b .L294
.LVL429:
.L303:
.LBE4008:
.LBE4014:
.LBE4016:
.LBE4029:
.LBB4030:
.LBB4023:
	.loc 4 1738 0
	li 3,0
.LVL430:
	b .L296
.LVL431:
.L301:
	addi 31,1,8
.LVL432:
.LBE4023:
.LBE4030:
.LBB4031:
.LBB4017:
	.loc 4 1774 0
	li 30,0
.LVL433:
.LBE4017:
.LBE4031:
.LBB4032:
.LBB4028:
.LBB4027:
	.loc 14 501 0
	mr 3,31
.LVL434:
	bl _ZN5idStr8FreeDataEv
.LEHE26:
.LVL435:
.LBE4027:
.LBE4028:
.LBE4032:
.LBE4036:
	.loc 4 1786 0
	lwz 0,60(1)
	mr 3,30
	lwz 28,40(1)
.LVL436:
	mtlr 0
	lwz 29,44(1)
	lwz 30,48(1)
	lwz 31,52(1)
	addi 1,1,56
	.cfi_remember_state
	.cfi_restore 28
	.cfi_restore 29
	.cfi_restore 30
	.cfi_restore 31
.LCFI117:
	.cfi_def_cfa_offset 0
	blr
.LVL437:
.L305:
.LCFI118:
	.cfi_restore_state
	mr 30,3
.LVL438:
.LBB4037:
.LBB4033:
.LBB4034:
.LBB4035:
	.loc 14 501 0
	mr 3,31
	bl _ZN5idStr8FreeDataEv
	mr 3,30
.LEHB27:
	bl _Unwind_Resume
.LEHE27:
.LBE4035:
.LBE4034:
.LBE4033:
.LBE4037:
	.cfi_endproc
.LFE2876:
	.section	.gcc_except_table
.LLSDA2876:
	.byte	0xff
	.byte	0xff
	.byte	0x1
	.uleb128 .LLSDACSE2876-.LLSDACSB2876
.LLSDACSB2876:
	.uleb128 .LEHB25-.LFB2876
	.uleb128 .LEHE25-.LEHB25
	.uleb128 .L305-.LFB2876
	.uleb128 0
	.uleb128 .LEHB26-.LFB2876
	.uleb128 .LEHE26-.LEHB26
	.uleb128 0
	.uleb128 0
	.uleb128 .LEHB27-.LFB2876
	.uleb128 .LEHE27-.LEHB27
	.uleb128 0
	.uleb128 0
.LLSDACSE2876:
	.section	".text"
	.size	_ZNK11idGameLocal18GetClientByCmdArgsERK9idCmdArgs, .-_ZNK11idGameLocal18GetClientByCmdArgsERK9idCmdArgs
	.align 2
	.globl _ZNK11idGameLocal16GetNextClientNumEi
	.type	_ZNK11idGameLocal16GetNextClientNumEi, @function
_ZNK11idGameLocal16GetNextClientNumEi:
.LFB2877:
	.loc 4 1793 0
	.cfi_startproc
.LVL439:
	mflr 0
	stwu 1,-32(1)
.LCFI119:
	.cfi_def_cfa_offset 32
	.cfi_register 65, 0
	stw 28,16(1)
	mr 28,4
	.cfi_offset 28, -16
	stw 29,20(1)
.LBB4038:
	.loc 4 1796 0
	li 29,0
	.cfi_offset 29, -12
.LBE4038:
	.loc 4 1793 0
	stw 31,28(1)
	mr 31,3
	.cfi_offset 31, -4
	stw 0,36(1)
	stw 27,12(1)
	stw 30,24(1)
.LBB4047:
	.loc 4 1797 0
	lwz 0,48(3)
	.cfi_offset 30, -8
	.cfi_offset 27, -20
	.cfi_offset 65, 4
	cmpwi 7,0,0
	ble- 7,.L309
	li 30,1
.LBB4039:
	.loc 4 4268 0
	lis 27,_ZN8idPlayer4TypeE@ha
.LVL440:
.L311:
.LBE4039:
	.loc 4 1793 0
	add 9,30,28
	.loc 4 1798 0
	divw 29,9,0
	mullw 29,29,0
	subf 29,29,9
.LVL441:
	.loc 4 1799 0
	addi 9,29,132
	slwi 9,9,2
	add 9,31,9
	lwz 9,4(9)
	cmpwi 7,9,0
.LBB4045:
.LBB4040:
	.loc 5 340 0
	mr 3,9
.LBE4040:
.LBE4045:
	.loc 4 1799 0
	beq- 7,.L310
.LVL442:
.LBB4046:
.LBB4043:
	.loc 5 340 0 discriminator 1
	lwz 9,0(9)
.LVL443:
	lwz 0,0(9)
	mtctr 0
	bctrl
.LVL444:
.LBE4043:
	.loc 4 4268 0 discriminator 1
	la 9,_ZN8idPlayer4TypeE@l(27)
	lwz 0,56(3)
.LBB4044:
.LBB4041:
.LBB4042:
	.loc 5 311 0 discriminator 1
	lwz 11,56(9)
	cmpw 7,0,11
	blt- 7,.L317
	.loc 5 311 0 is_stmt 0
	lwz 9,60(9)
	cmpw 7,0,9
	bgt- 7,.L317
.LVL445:
.L309:
.LBE4042:
.LBE4041:
.LBE4044:
.LBE4046:
.LBE4047:
	.loc 4 1805 0 is_stmt 1
	lwz 0,36(1)
	mr 3,29
	lwz 27,12(1)
	mtlr 0
	lwz 28,16(1)
.LVL446:
	lwz 29,20(1)
	lwz 30,24(1)
	lwz 31,28(1)
.LVL447:
	addi 1,1,32
	.cfi_remember_state
.LCFI120:
	.cfi_def_cfa_offset 0
	.cfi_restore 31
	.cfi_restore 30
	.cfi_restore 29
	.cfi_restore 28
	.cfi_restore 27
	blr
.LVL448:
.L317:
.LCFI121:
	.cfi_restore_state
	lwz 0,48(31)
.LVL449:
.L310:
.LBB4048:
	.loc 4 1797 0
	cmpw 7,0,30
	addi 30,30,1
.LVL450:
	bgt+ 7,.L311
.LBE4048:
	.loc 4 1805 0
	lwz 0,36(1)
	mr 3,29
	lwz 27,12(1)
	mtlr 0
	lwz 28,16(1)
.LVL451:
	lwz 29,20(1)
	lwz 30,24(1)
.LVL452:
	lwz 31,28(1)
.LVL453:
	addi 1,1,32
	.cfi_restore 27
	.cfi_restore 28
	.cfi_restore 29
	.cfi_restore 30
	.cfi_restore 31
.LCFI122:
	.cfi_def_cfa_offset 0
	blr
	.cfi_endproc
.LFE2877:
	.size	_ZNK11idGameLocal16GetNextClientNumEi, .-_ZNK11idGameLocal16GetNextClientNumEi
	.align 2
	.globl _ZNK11idGameLocal14GetLocalPlayerEv
	.type	_ZNK11idGameLocal14GetLocalPlayerEv, @function
_ZNK11idGameLocal14GetLocalPlayerEv:
.LFB2878:
	.loc 4 1817 0
	.cfi_startproc
.LVL454:
	mflr 0
	stwu 1,-24(1)
.LCFI123:
	.cfi_def_cfa_offset 24
	.cfi_register 65, 0
	stw 29,12(1)
	.loc 4 1818 0
	addis 29,3,0x25
	.cfi_offset 29, -12
	.loc 4 1817 0
	stw 30,16(1)
	.loc 4 1819 0
	li 30,0
	.cfi_offset 30, -8
	.loc 4 1817 0
	stw 31,20(1)
	mr 31,3
	.cfi_offset 31, -4
	stw 0,28(1)
	.loc 4 1818 0
	lwz 9,2020(29)
	cmpwi 7,9,0
	blt- 7,.L319
	.cfi_offset 65, 4
	.loc 4 1822 0
	addi 9,9,132
	slwi 9,9,2
	add 9,3,9
	lwz 3,4(9)
.LVL455:
	cmpwi 7,3,0
	beq- 7,.L319
.LVL456:
.LBB4049:
.LBB4050:
	.loc 5 340 0 discriminator 2
	lwz 9,0(3)
.LVL457:
	lwz 0,0(9)
	mtctr 0
	bctrl
.LVL458:
.LBE4050:
	.loc 4 4268 0 discriminator 2
	lis 9,_ZN8idPlayer4TypeE@ha
	la 9,_ZN8idPlayer4TypeE@l(9)
	lwz 0,56(3)
.LBB4053:
.LBB4051:
.LBB4052:
	.loc 5 311 0 discriminator 2
	lwz 11,56(9)
	cmpw 7,0,11
	blt- 7,.L319
	.loc 5 311 0 is_stmt 0
	lwz 9,60(9)
	cmpw 7,0,9
	bgt- 7,.L319
.LBE4052:
.LBE4051:
.LBE4053:
.LBE4049:
	.loc 4 1826 0 is_stmt 1
	lwz 9,2020(29)
	addi 0,9,132
	slwi 0,0,2
	add 31,31,0
.LVL459:
	lwz 30,4(31)
.LVL460:
.L319:
	.loc 4 1827 0
	lwz 0,28(1)
	mr 3,30
	lwz 29,12(1)
.LVL461:
	mtlr 0
	lwz 30,16(1)
	lwz 31,20(1)
	addi 1,1,24
.LCFI124:
	.cfi_def_cfa_offset 0
	.cfi_restore 31
	.cfi_restore 30
	.cfi_restore 29
	blr
	.cfi_endproc
.LFE2878:
	.size	_ZNK11idGameLocal14GetLocalPlayerEv, .-_ZNK11idGameLocal14GetLocalPlayerEv
	.align 2
	.globl _ZN11idGameLocal9HandleESCEPP15idUserInterface
	.type	_ZN11idGameLocal9HandleESCEPP15idUserInterface, @function
_ZN11idGameLocal9HandleESCEPP15idUserInterface:
.LFB2890:
	.loc 4 2347 0
	.cfi_startproc
.LVL462:
	mflr 0
	stwu 1,-16(1)
.LCFI125:
	.cfi_def_cfa_offset 16
	.cfi_register 65, 0
.LBB4058:
	.loc 4 2348 0
	addis 11,3,0x25
.LBE4058:
	.loc 4 2347 0
	stw 31,12(1)
	mr 31,4
	.cfi_offset 31, -4
	stw 0,20(1)
.LBB4059:
	.loc 4 2348 0
	lbz 0,2016(11)
	.cfi_offset 65, 4
	cmpwi 7,0,0
	beq- 7,.L325
	.loc 4 2349 0
	lwz 9,0(3)
	lwz 0,80(9)
	mtctr 0
	bctrl
.LVL463:
	.loc 4 2351 0
	li 0,2
	.loc 4 2349 0
	stw 3,0(31)
.L326:
.LBE4059:
	.loc 4 2362 0
	mr 3,0
	lwz 0,20(1)
	lwz 31,12(1)
.LVL464:
	mtlr 0
	addi 1,1,16
	.cfi_remember_state
.LCFI126:
	.cfi_def_cfa_offset 0
	.cfi_restore 31
	blr
.LVL465:
.L325:
.LCFI127:
	.cfi_restore_state
.LBB4060:
.LBB4061:
.LBB4062:
	.loc 4 2353 0
	bl _ZNK11idGameLocal14GetLocalPlayerEv
.LVL466:
	.loc 4 2361 0
	li 0,1
	.loc 4 2354 0
	cmpwi 7,3,0
	beq- 7,.L326
	.loc 4 2355 0
	bl _ZN8idPlayer9HandleESCEv
.LVL467:
.LBE4062:
.LBE4061:
.LBE4060:
	.loc 4 2362 0
	lwz 31,12(1)
.LVL468:
.LBB4065:
.LBB4064:
.LBB4063:
	.loc 4 2347 0
	xori 0,3,1
	.loc 4 2361 0
	rlwinm 0,0,0,0xff
.LBE4063:
.LBE4064:
.LBE4065:
	.loc 4 2362 0
	mr 3,0
	lwz 0,20(1)
	addi 1,1,16
	.cfi_restore 31
.LCFI128:
	.cfi_def_cfa_offset 0
	mtlr 0
	blr
	.cfi_endproc
.LFE2890:
	.size	_ZN11idGameLocal9HandleESCEPP15idUserInterface, .-_ZN11idGameLocal9HandleESCEPP15idUserInterface
	.align 2
	.globl _ZN11idGameLocal12GetClientPVSEP8idPlayer9pvsType_t
	.type	_ZN11idGameLocal12GetClientPVSEP8idPlayer9pvsType_t, @function
_ZN11idGameLocal12GetClientPVSEP8idPlayer9pvsType_t:
.LFB2879:
	.loc 4 1834 0
	.cfi_startproc
.LVL469:
	mflr 0
	stwu 1,-24(1)
.LCFI129:
	.cfi_def_cfa_offset 24
	.cfi_register 65, 0
	stw 30,16(1)
	mr 30,4
	.cfi_offset 30, -8
	stw 31,20(1)
	mr 31,3
	.cfi_offset 31, -4
	stw 0,28(1)
	stw 29,12(1)
	.loc 4 4268 0
	lwz 0,6220(4)
	.cfi_offset 29, -12
	.cfi_offset 65, 4
	.loc 4 1835 0
	cmpwi 7,0,0
	beq- 7,.L330
	.loc 4 1836 0
	mr 3,0
.LVL470:
	addis 31,31,0x25
.LVL471:
	bl _ZN8idEntity11GetPVSAreasEv
.LVL472:
	mr 29,3
	lwz 3,6220(30)
	bl _ZN8idEntity14GetNumPVSAreasEv
	mr 4,29
	mr 5,3
	li 6,0
	addi 3,31,1236
	bl _ZNK5idPVS15SetupCurrentPVSEPKii9pvsType_t
.LVL473:
.L331:
	.loc 4 1842 0
	lwz 0,28(1)
	lwz 29,12(1)
	mtlr 0
	lwz 30,16(1)
.LVL474:
	lwz 31,20(1)
	addi 1,1,24
	.cfi_remember_state
.LCFI130:
	.cfi_def_cfa_offset 0
	.cfi_restore 31
	.cfi_restore 30
	.cfi_restore 29
	blr
.LVL475:
.L330:
.LCFI131:
	.cfi_restore_state
.LBB4074:
.LBB4075:
	.loc 4 1837 0
	addis 31,3,0x25
	lwz 3,2116(31)
.LVL476:
	cmpwi 7,3,0
	beq- 7,.L332
.LVL477:
	.loc 4 1838 0
	bl _ZN8idEntity11GetPVSAreasEv
.LVL478:
	mr 30,3
.LVL479:
	lwz 3,2116(31)
	bl _ZN8idEntity14GetNumPVSAreasEv
	mr 4,30
	mr 5,3
	li 6,0
	addi 3,31,1236
.LVL480:
	bl _ZNK5idPVS15SetupCurrentPVSEPKii9pvsType_t
.LBE4075:
.LBE4074:
	.loc 4 1842 0
	lwz 0,28(1)
	lwz 29,12(1)
	mtlr 0
	lwz 30,16(1)
	lwz 31,20(1)
.LVL481:
	addi 1,1,24
	.cfi_remember_state
	.cfi_restore 29
	.cfi_restore 30
	.cfi_restore 31
.LCFI132:
	.cfi_def_cfa_offset 0
	blr
.LVL482:
.L332:
.LCFI133:
	.cfi_restore_state
.LBB4077:
.LBB4076:
	.loc 4 1840 0
	mr 3,4
	bl _ZN8idEntity11GetPVSAreasEv
.LVL483:
	mr 29,3
	mr 3,30
	bl _ZN8idEntity14GetNumPVSAreasEv
	mr 4,29
	mr 5,3
	li 6,0
.LVL484:
	addi 3,31,1236
	bl _ZNK5idPVS15SetupCurrentPVSEPKii9pvsType_t
	b .L331
.LBE4076:
.LBE4077:
	.cfi_endproc
.LFE2879:
	.size	_ZN11idGameLocal12GetClientPVSEP8idPlayer9pvsType_t, .-_ZN11idGameLocal12GetClientPVSEP8idPlayer9pvsType_t
	.align 2
	.globl _ZN11idGameLocal14SetupPlayerPVSEv
	.type	_ZN11idGameLocal14SetupPlayerPVSEv, @function
_ZN11idGameLocal14SetupPlayerPVSEv:
.LFB2880:
	.loc 4 1849 0
	.cfi_startproc
.LVL485:
	mflr 0
	stwu 1,-72(1)
.LCFI134:
	.cfi_def_cfa_offset 72
	.cfi_register 65, 0
	stw 29,60(1)
.LBB4078:
	.loc 4 1855 0
	addis 29,3,0x25
	.cfi_offset 29, -12
.LBE4078:
	.loc 4 1849 0
	stw 0,76(1)
.LBB4085:
	.loc 4 1855 0
	li 0,-1
	.cfi_offset 65, 4
.LBE4085:
	.loc 4 1849 0
	stw 26,48(1)
	mr 26,3
	.cfi_offset 26, -24
	stw 21,28(1)
	stw 22,32(1)
	stw 23,36(1)
	stw 24,40(1)
	stw 25,44(1)
	stw 27,52(1)
	stw 28,56(1)
	stw 30,64(1)
	stw 31,68(1)
.LBB4086:
	.loc 4 1855 0
	stw 0,2208(29)
.LVL486:
	.loc 4 1856 0
	lwz 0,48(3)
	cmpwi 7,0,0
	ble- 7,.L334
	.cfi_offset 31, -4
	.cfi_offset 30, -8
	.cfi_offset 28, -16
	.cfi_offset 27, -20
	.cfi_offset 25, -28
	.cfi_offset 24, -32
	.cfi_offset 23, -36
	.cfi_offset 22, -40
	.cfi_offset 21, -44
	.loc 4 1849 0
	addi 25,3,528
.LBE4086:
	.loc 4 1856 0
	li 28,0
.LBB4087:
.LBB4079:
	.loc 4 4268 0
	lis 24,_ZN8idPlayer4TypeE@ha
.LBE4079:
	.loc 4 1878 0
	addi 27,29,1236
.LVL487:
.L341:
	.loc 4 1857 0
	lwzu 21,4(25)
.LVL488:
	.loc 4 1858 0
	cmpwi 7,21,0
	beq- 7,.L338
.LVL489:
.LBB4084:
.LBB4080:
	.loc 5 340 0 discriminator 2
	lwz 9,0(21)
	mr 3,21
	lwz 0,0(9)
	mtctr 0
	bctrl
.LVL490:
.LBE4080:
	.loc 4 4268 0 discriminator 2
	la 9,_ZN8idPlayer4TypeE@l(24)
	lwz 0,56(3)
.LBB4083:
.LBB4081:
.LBB4082:
	.loc 5 311 0 discriminator 2
	lwz 11,56(9)
	cmpw 7,0,11
	blt- 7,.L348
	.loc 5 311 0 is_stmt 0
	lwz 9,60(9)
	cmpw 7,0,9
	bgt- 7,.L348
.LVL491:
.LBE4082:
.LBE4081:
.LBE4083:
.LBE4084:
	.loc 4 1864 0 is_stmt 1
	lwz 0,2208(29)
	cmpwi 7,0,-1
	beq- 7,.L349
	.loc 4 1867 0
	li 5,0
	mr 3,26
.LVL492:
	mr 4,21
	bl _ZN11idGameLocal12GetClientPVSEP8idPlayer9pvsType_t
	.loc 4 1868 0
	lwz 10,2208(29)
	lwz 11,2212(29)
	.loc 4 1867 0
	mr 31,4
.LVL493:
	mr 30,3
	.loc 4 1868 0
	addi 5,1,16
	mr 3,27
	addi 4,1,8
	stw 10,8(1)
	stw 11,12(1)
	stw 30,16(1)
	stw 31,20(1)
.LVL494:
	bl _ZNK5idPVS15MergeCurrentPVSE11pvsHandle_sS0_
	.loc 4 1869 0
	lwz 10,2208(29)
	.loc 4 1868 0
	mr 23,4
.LVL495:
	.loc 4 1869 0
	lwz 11,2212(29)
	.loc 4 1868 0
	mr 22,3
	.loc 4 1869 0
	addi 4,1,8
	mr 3,27
	stw 10,8(1)
	stw 11,12(1)
	bl _ZNK5idPVS14FreeCurrentPVSE11pvsHandle_s
	.loc 4 1870 0
	mr 3,27
	addi 4,1,8
	stw 30,8(1)
	stw 31,12(1)
	bl _ZNK5idPVS14FreeCurrentPVSE11pvsHandle_s
	.loc 4 1871 0
	stw 22,2208(29)
	stw 23,2212(29)
.LVL496:
.L339:
	.loc 4 1874 0
	lwz 0,2216(29)
	cmpwi 7,0,-1
	beq- 7,.L350
	.loc 4 1877 0
	li 5,2
	mr 3,26
	mr 4,21
	bl _ZN11idGameLocal12GetClientPVSEP8idPlayer9pvsType_t
	.loc 4 1878 0
	lwz 10,2216(29)
	lwz 11,2220(29)
	.loc 4 1877 0
	mr 31,4
.LVL497:
	mr 30,3
	.loc 4 1878 0
	addi 5,1,16
	mr 3,27
	addi 4,1,8
	stw 10,8(1)
	stw 11,12(1)
	stw 30,16(1)
	stw 31,20(1)
.LVL498:
	bl _ZNK5idPVS15MergeCurrentPVSE11pvsHandle_sS0_
	.loc 4 1879 0
	lwz 10,2216(29)
	.loc 4 1878 0
	mr 23,4
.LVL499:
	.loc 4 1879 0
	lwz 11,2220(29)
	.loc 4 1878 0
	mr 22,3
	.loc 4 1879 0
	addi 4,1,8
	mr 3,27
	stw 10,8(1)
	stw 11,12(1)
	bl _ZNK5idPVS14FreeCurrentPVSE11pvsHandle_s
	.loc 4 1880 0
	mr 3,27
	addi 4,1,8
	stw 30,8(1)
	stw 31,12(1)
	bl _ZNK5idPVS14FreeCurrentPVSE11pvsHandle_s
	.loc 4 1881 0
	stw 22,2216(29)
	stw 23,2220(29)
.LVL500:
.L348:
	lwz 0,48(26)
.LVL501:
.L338:
	.loc 4 1856 0
	addi 28,28,1
.LVL502:
	cmpw 7,0,28
	bgt+ 7,.L341
.LVL503:
.L334:
.LBE4087:
	.loc 4 1884 0
	lwz 0,76(1)
	lwz 21,28(1)
	mtlr 0
	lwz 22,32(1)
.LVL504:
	lwz 23,36(1)
	lwz 24,40(1)
	lwz 25,44(1)
	lwz 26,48(1)
.LVL505:
	lwz 27,52(1)
	lwz 28,56(1)
	lwz 29,60(1)
.LVL506:
	lwz 30,64(1)
.LVL507:
	lwz 31,68(1)
	addi 1,1,72
	.cfi_remember_state
.LCFI135:
	.cfi_def_cfa_offset 0
	.cfi_restore 31
	.cfi_restore 30
	.cfi_restore 29
	.cfi_restore 28
	.cfi_restore 27
	.cfi_restore 26
	.cfi_restore 25
	.cfi_restore 24
	.cfi_restore 23
	.cfi_restore 22
	.cfi_restore 21
	blr
.LVL508:
.L350:
.LCFI136:
	.cfi_restore_state
.LBB4088:
	.loc 4 1875 0
	mr 3,26
	mr 4,21
	li 5,2
	bl _ZN11idGameLocal12GetClientPVSEP8idPlayer9pvsType_t
	stw 3,2216(29)
	stw 4,2220(29)
	lwz 0,48(26)
	b .L338
.LVL509:
.L349:
	.loc 4 1865 0
	mr 3,26
.LVL510:
	mr 4,21
	li 5,0
	bl _ZN11idGameLocal12GetClientPVSEP8idPlayer9pvsType_t
	stw 3,2208(29)
	stw 4,2212(29)
	b .L339
.LBE4088:
	.cfi_endproc
.LFE2880:
	.size	_ZN11idGameLocal14SetupPlayerPVSEv, .-_ZN11idGameLocal14SetupPlayerPVSEv
	.align 2
	.globl _ZN11idGameLocal13FreePlayerPVSEv
	.type	_ZN11idGameLocal13FreePlayerPVSEv, @function
_ZN11idGameLocal13FreePlayerPVSEv:
.LFB2881:
	.loc 4 1891 0
	.cfi_startproc
.LVL511:
	mflr 0
	stwu 1,-24(1)
.LCFI137:
	.cfi_def_cfa_offset 24
	.cfi_register 65, 0
	stw 31,20(1)
	.loc 4 1892 0
	addis 31,3,0x25
	.cfi_offset 31, -4
	.loc 4 1891 0
	stw 0,28(1)
	.loc 4 1892 0
	lwz 0,2208(31)
	.cfi_offset 65, 4
	cmpwi 7,0,-1
	beq- 7,.L352
	.loc 4 1893 0
	lwz 10,2208(31)
	mr 4,1
	lwz 11,2212(31)
	addi 3,31,1236
.LVL512:
	stwu 10,8(4)
	stw 11,4(4)
	bl _ZNK5idPVS14FreeCurrentPVSE11pvsHandle_s
	.loc 4 1894 0
	li 0,-1
	stw 0,2208(31)
.L352:
	.loc 4 1896 0
	lwz 0,2216(31)
	cmpwi 7,0,-1
	beq- 7,.L351
	.loc 4 1897 0
	lwz 10,2216(31)
	mr 4,1
	lwz 11,2220(31)
	addi 3,31,1236
	stwu 10,8(4)
	stw 11,4(4)
	bl _ZNK5idPVS14FreeCurrentPVSE11pvsHandle_s
	.loc 4 1898 0
	li 0,-1
	stw 0,2216(31)
.L351:
	.loc 4 1900 0
	lwz 0,28(1)
	lwz 31,20(1)
.LVL513:
	mtlr 0
	addi 1,1,24
.LCFI138:
	.cfi_def_cfa_offset 0
	.cfi_restore 31
	blr
	.cfi_endproc
.LFE2881:
	.size	_ZN11idGameLocal13FreePlayerPVSEv, .-_ZN11idGameLocal13FreePlayerPVSEv
	.align 2
	.globl _ZNK11idGameLocal11InPlayerPVSEP8idEntity
	.type	_ZNK11idGameLocal11InPlayerPVSEP8idEntity, @function
_ZNK11idGameLocal11InPlayerPVSEP8idEntity:
.LFB2882:
	.loc 4 1909 0
	.cfi_startproc
.LVL514:
	mflr 0
	stwu 1,-32(1)
.LCFI139:
	.cfi_def_cfa_offset 32
	.cfi_register 65, 0
	stw 29,20(1)
	mr 29,4
	.cfi_offset 29, -12
	stw 31,28(1)
	.loc 4 1910 0
	addis 31,3,0x25
	.cfi_offset 31, -4
	.loc 4 1909 0
	stw 0,36(1)
	.loc 4 1911 0
	li 3,0
.LVL515:
	.loc 4 1909 0
	stw 30,24(1)
	.loc 4 1910 0
	lwz 0,2208(31)
	.cfi_offset 30, -8
	.cfi_offset 65, 4
	cmpwi 7,0,-1
	beq- 7,.L355
	.loc 4 1913 0
	mr 3,4
	bl _ZN8idEntity11GetPVSAreasEv
.LVL516:
	mr 30,3
	mr 3,29
	bl _ZN8idEntity14GetNumPVSAreasEv
	lwz 10,2208(31)
	mr 4,1
	lwz 11,2212(31)
	stwu 10,8(4)
	mr 6,3
	mr 5,30
	addi 3,31,1236
	stw 11,4(4)
	bl _ZNK5idPVS12InCurrentPVSE11pvsHandle_sPKii
.L355:
	.loc 4 1914 0
	lwz 0,36(1)
	lwz 29,20(1)
.LVL517:
	mtlr 0
	lwz 30,24(1)
	lwz 31,28(1)
.LVL518:
	addi 1,1,32
.LCFI140:
	.cfi_def_cfa_offset 0
	.cfi_restore 31
	.cfi_restore 30
	.cfi_restore 29
	blr
	.cfi_endproc
.LFE2882:
	.size	_ZNK11idGameLocal11InPlayerPVSEP8idEntity, .-_ZNK11idGameLocal11InPlayerPVSEP8idEntity
	.align 2
	.globl _ZNK11idGameLocal21InPlayerConnectedAreaEP8idEntity
	.type	_ZNK11idGameLocal21InPlayerConnectedAreaEP8idEntity, @function
_ZNK11idGameLocal21InPlayerConnectedAreaEP8idEntity:
.LFB2883:
	.loc 4 1923 0
	.cfi_startproc
.LVL519:
	mflr 0
	stwu 1,-32(1)
.LCFI141:
	.cfi_def_cfa_offset 32
	.cfi_register 65, 0
	stw 29,20(1)
	mr 29,4
	.cfi_offset 29, -12
	stw 31,28(1)
	.loc 4 1924 0
	addis 31,3,0x25
	.cfi_offset 31, -4
	.loc 4 1923 0
	stw 0,36(1)
	.loc 4 1925 0
	li 3,0
.LVL520:
	.loc 4 1923 0
	stw 30,24(1)
	.loc 4 1924 0
	lwz 0,2216(31)
	.cfi_offset 30, -8
	.cfi_offset 65, 4
	cmpwi 7,0,-1
	beq- 7,.L358
	.loc 4 1927 0
	mr 3,4
	bl _ZN8idEntity11GetPVSAreasEv
.LVL521:
	mr 30,3
	mr 3,29
	bl _ZN8idEntity14GetNumPVSAreasEv
	lwz 10,2216(31)
	mr 4,1
	lwz 11,2220(31)
	stwu 10,8(4)
	mr 6,3
	mr 5,30
	addi 3,31,1236
	stw 11,4(4)
	bl _ZNK5idPVS12InCurrentPVSE11pvsHandle_sPKii
.L358:
	.loc 4 1928 0
	lwz 0,36(1)
	lwz 29,20(1)
.LVL522:
	mtlr 0
	lwz 30,24(1)
	lwz 31,28(1)
.LVL523:
	addi 1,1,32
.LCFI142:
	.cfi_def_cfa_offset 0
	.cfi_restore 31
	.cfi_restore 30
	.cfi_restore 29
	blr
	.cfi_endproc
.LFE2883:
	.size	_ZNK11idGameLocal21InPlayerConnectedAreaEP8idEntity, .-_ZNK11idGameLocal21InPlayerConnectedAreaEP8idEntity
	.align 2
	.globl _ZN11idGameLocal13UpdateGravityEv
	.type	_ZN11idGameLocal13UpdateGravityEv, @function
_ZN11idGameLocal13UpdateGravityEv:
.LFB2884:
	.loc 4 1935 0
	.cfi_startproc
.LVL524:
	stwu 1,-24(1)
.LCFI143:
	.cfi_def_cfa_offset 24
	mflr 0
	stw 29,12(1)
	.loc 4 1938 0
	lis 29,g_gravity@ha
	.cfi_offset 29, -12
	.cfi_register 65, 0
	la 29,g_gravity@l(29)
	.loc 4 1935 0
	stw 31,20(1)
	stw 0,28(1)
	mr 31,3
	.cfi_offset 65, 4
	.cfi_offset 31, -4
	stw 28,8(1)
	stw 30,16(1)
	.loc 4 1938 0
	lwz 9,44(29)
.LBB4089:
.LBB4090:
.LBB4091:
.LBB4092:
	.loc 7 137 0
	lwz 0,16(9)
.LBE4092:
.LBE4091:
	.loc 4 1938 0
	andis. 11,0,4
	beq- 0,.L360
	.cfi_offset 30, -8
	.cfi_offset 28, -16
.LBB4093:
	.loc 4 1939 0
	lis 11,.LC2@ha
.LBB4094:
.LBB4095:
	.loc 7 144 0
	lfs 0,40(9)
.LBE4095:
.LBE4094:
	.loc 4 1939 0
	lfs 13,.LC2@l(11)
	fcmpu 7,0,13
	beq- 7,.L370
.LVL525:
.L362:
	.loc 4 1942 0
	fneg 0,0
.LVL526:
.LBB4096:
.LBB4097:
	.file 17 "d:/Data/Nintendo/DoomGX/src/game/../idlib/../idlib/math/Vector.h"
	.loc 17 410 0
	addis 28,31,0x25
	li 0,0
	.loc 4 4268 0
	addis 31,31,0x1
.LVL527:
	.loc 17 410 0
	stw 0,2224(28)
	.loc 17 411 0
	stw 0,2228(28)
	.loc 17 412 0
	stfs 0,2232(28)
	.loc 4 4268 0
	lwz 11,-32192(31)
	lwz 0,-32196(31)
.LBE4097:
.LBE4096:
.LBB4098:
.LBB4099:
.LBB4100:
	.loc 9 268 0
	cmpwi 7,11,0
	beq- 7,.L363
.LVL528:
	cmpw 7,0,11
	beq- 7,.L363
	.loc 9 271 0
	lwz 31,12(11)
.LVL529:
.LBE4100:
.LBE4099:
	.loc 4 1945 0
	cmpwi 7,31,0
	beq- 7,.L363
	lis 30,_ZN18idAFEntity_Generic4TypeE@ha
.LBB4101:
.LBB4102:
	.loc 4 1949 0
	addi 28,28,2224
.LVL530:
	la 30,_ZN18idAFEntity_Generic4TypeE@l(30)
.LVL531:
.L367:
.LBE4102:
.LBB4103:
.LBB4104:
	.loc 5 340 0
	lwz 9,0(31)
	mr 3,31
	lwz 0,0(9)
	mtctr 0
	bctrl
.LVL532:
.LBB4105:
.LBB4106:
	.loc 5 311 0
	lwz 9,56(30)
.LBE4106:
.LBE4105:
.LBE4104:
	.loc 4 4268 0
	lwz 0,56(3)
.LBB4111:
.LBB4109:
.LBB4107:
	.loc 5 311 0
	cmpw 7,0,9
	blt- 7,.L364
.LVL533:
	lwz 9,60(30)
.LBE4107:
.LBE4109:
.LBE4111:
.LBE4103:
.LBB4113:
	.loc 4 1947 0
	mr 3,31
.LVL534:
.LBE4113:
.LBB4114:
.LBB4112:
.LBB4110:
.LBB4108:
	.loc 5 311 0
	cmpw 7,0,9
	bgt- 7,.L364
.LBE4108:
.LBE4110:
.LBE4112:
.LBE4114:
.LBB4115:
	.loc 4 1947 0
	bl _ZNK8idEntity10GetPhysicsEv
.LVL535:
	.loc 4 1949 0
	mr 4,28
	.loc 4 1948 0
	mr. 9,3
	beq- 0,.L364
	.loc 4 1949 0
	lwz 9,0(9)
	lwz 0,156(9)
	mtctr 0
	bctrl
.LVL536:
.L364:
	.loc 4 4268 0
	lwz 9,16(31)
	lwz 0,12(31)
.LBE4115:
.LBE4101:
.LBB4116:
.LBB4117:
	.loc 9 268 0
	cmpwi 7,9,0
	cmpw 6,0,9
	beq- 7,.L369
	beq- 6,.L369
	.loc 9 271 0
	lwz 31,12(9)
.LVL537:
.LBE4117:
.LBE4116:
	.loc 4 1945 0
	cmpwi 7,31,0
	bne+ 7,.L367
.LVL538:
.L369:
	lwz 9,44(29)
.LVL539:
.L363:
.LBE4098:
.LBB4118:
.LBB4119:
	.loc 7 139 0
	lwz 0,16(9)
	rlwinm 0,0,0,14,12
	stw 0,16(9)
.LVL540:
.L360:
.LBE4119:
.LBE4118:
.LBE4093:
.LBE4090:
.LBE4089:
	.loc 4 1955 0
	lwz 0,28(1)
	lwz 28,8(1)
	mtlr 0
	lwz 29,12(1)
	lwz 30,16(1)
	lwz 31,20(1)
	addi 1,1,24
	.cfi_remember_state
.LCFI144:
	.cfi_def_cfa_offset 0
	.cfi_restore 31
	.cfi_restore 30
	.cfi_restore 29
	.cfi_restore 28
	blr
.LVL541:
.L370:
.LCFI145:
	.cfi_restore_state
.LBB4124:
.LBB4123:
.LBB4122:
.LBB4120:
.LBB4121:
	.loc 7 149 0
	lwz 11,0(9)
	mr 3,9
.LVL542:
	lis 9,.LC16@ha
	lwz 0,20(11)
	lfs 1,.LC16@l(9)
	mtctr 0
	bctrl
	lwz 9,44(29)
	lfs 0,40(9)
	b .L362
.LBE4121:
.LBE4120:
.LBE4122:
.LBE4123:
.LBE4124:
	.cfi_endproc
.LFE2884:
	.size	_ZN11idGameLocal13UpdateGravityEv, .-_ZN11idGameLocal13UpdateGravityEv
	.align 2
	.globl _ZNK11idGameLocal10GetGravityEv
	.type	_ZNK11idGameLocal10GetGravityEv, @function
_ZNK11idGameLocal10GetGravityEv:
.LFB2885:
	.loc 4 1962 0
	.cfi_startproc
.LVL543:
	.loc 4 1963 0
	addis 3,3,0x25
.LVL544:
	.loc 4 1964 0
	addi 3,3,2224
.LVL545:
	blr
	.cfi_endproc
.LFE2885:
	.size	_ZNK11idGameLocal10GetGravityEv, .-_ZNK11idGameLocal10GetGravityEv
	.align 2
	.globl _ZN11idGameLocal20SortActiveEntityListEv
	.type	_ZN11idGameLocal20SortActiveEntityListEv, @function
_ZN11idGameLocal20SortActiveEntityListEv:
.LFB2886:
	.loc 4 1974 0
	.cfi_startproc
.LVL546:
	mflr 0
	stwu 1,-32(1)
.LCFI146:
	.cfi_def_cfa_offset 32
	.cfi_register 65, 0
	stw 27,12(1)
.LBB4125:
	.loc 4 1978 0
	addis 27,3,0x1
	.cfi_offset 27, -20
.LBE4125:
	.loc 4 1974 0
	stw 0,36(1)
	stw 26,8(1)
	stw 28,16(1)
	stw 29,20(1)
	stw 30,24(1)
	stw 31,28(1)
.LBB4183:
	.loc 4 1978 0
	lbz 0,-32159(27)
	.cfi_offset 31, -4
	.cfi_offset 30, -8
	.cfi_offset 29, -12
	.cfi_offset 28, -16
	.cfi_offset 26, -24
	.cfi_offset 65, 4
	cmpwi 7,0,0
	beq- 7,.L373
	.loc 4 4268 0
	lwz 9,-32176(27)
	lwz 0,-32180(27)
.LBB4126:
.LBB4127:
	.loc 9 268 0
	cmpwi 7,9,0
	beq- 7,.L373
	cmpw 7,0,9
	beq- 7,.L373
	.loc 9 271 0
	lwz 31,12(9)
.LVL547:
.LBE4127:
.LBE4126:
	.loc 4 1979 0
	cmpwi 7,31,0
	beq- 7,.L373
.LVL548:
.L407:
	.loc 4 4268 0
	lwz 9,32(31)
	.loc 4 1981 0
	mr 3,31
	.loc 4 4268 0
	lwz 0,28(31)
.LBB4128:
.LBB4129:
	.loc 9 269 0
	li 30,0
	.loc 9 268 0
	cmpwi 7,9,0
	cmpw 6,0,9
	beq- 7,.L374
.LVL549:
	beq- 6,.L374
	.loc 9 271 0
	lwz 30,12(9)
.L374:
.LBE4129:
.LBE4128:
	.loc 4 1981 0
	bl _ZNK8idEntity13GetTeamMasterEv
.LVL550:
	.loc 4 1979 0
	cmpwi 7,30,0
	.loc 4 1982 0
	cmpwi 0,3,0
	cmpw 6,31,3
	beq- 0,.L375
	.loc 4 1982 0 is_stmt 0 discriminator 1
	beq- 6,.L412
.L375:
.LVL551:
	.loc 4 1979 0 is_stmt 1 discriminator 1
	beq- 7,.L373
	.loc 4 1979 0 is_stmt 0
	mr 31,30
	b .L407
.LVL552:
.L373:
	.loc 4 1990 0 is_stmt 1
	lbz 0,-32160(27)
	cmpwi 7,0,0
	beq- 7,.L377
	.loc 4 4268 0
	lwz 9,-32176(27)
	lwz 0,-32180(27)
.LBB4130:
.LBB4131:
	.loc 9 268 0
	cmpwi 7,9,0
	beq- 7,.L377
	cmpw 7,0,9
	beq- 7,.L377
	.loc 9 271 0
	lwz 30,12(9)
.LVL553:
	lis 26,_ZN15idPhysics_Actor4TypeE@ha
.LBE4131:
.LBE4130:
	.loc 4 1992 0
	cmpwi 6,30,0
	bne+ 6,.L409
	b .L378
.LVL554:
.L414:
	.loc 4 1995 0 discriminator 1
	cmpw 7,30,3
	beq- 7,.L397
.LVL555:
.L381:
	.loc 4 1992 0 discriminator 1
	cmpwi 7,28,0
	beq- 7,.L413
.L398:
	.loc 4 1992 0 is_stmt 0
	mr 30,28
.LVL556:
.L409:
	.loc 4 4268 0 is_stmt 1
	lwz 9,32(30)
.LBB4132:
.LBB4133:
	.loc 9 269 0
	li 28,0
.LBE4133:
.LBE4132:
	.loc 4 4268 0
	lwz 0,28(30)
.LBB4135:
.LBB4134:
	.loc 9 268 0
	cmpwi 7,9,0
	beq- 7,.L379
	cmpw 7,0,9
	beq- 7,.L379
	.loc 9 271 0
	lwz 28,12(9)
.L379:
.LBE4134:
.LBE4135:
	.loc 4 1994 0
	mr 3,30
	bl _ZNK8idEntity13GetTeamMasterEv
.LVL557:
	.loc 4 1995 0
	cmpwi 0,3,0
	bne+ 0,.L414
.L397:
	mr 31,30
	la 29,_ZN15idPhysics_Actor4TypeE@l(26)
.LVL558:
.L404:
	.loc 4 1998 0
	mr 3,31
	bl _ZNK8idEntity10GetPhysicsEv
.LVL559:
.LBB4136:
.LBB4137:
	.loc 5 340 0
	lwz 9,0(3)
	lwz 0,0(9)
	mtctr 0
	bctrl
.LVL560:
.LBB4138:
.LBB4139:
	.loc 5 311 0
	lwz 9,56(29)
.LBE4139:
.LBE4138:
.LBE4137:
	.loc 4 4268 0
	lwz 0,56(3)
.LBE4136:
	.loc 4 1997 0
	mr 3,31
.LVL561:
.LBB4143:
.LBB4142:
.LBB4141:
.LBB4140:
	.loc 5 311 0
	cmpw 7,0,9
	blt- 7,.L382
	lwz 9,60(29)
	cmpw 7,0,9
	bgt- 7,.L382
.LBE4140:
.LBE4141:
.LBE4142:
.LBE4143:
	.loc 4 2003 0
	cmpwi 7,31,0
	beq- 7,.L381
.LBB4144:
.LBB4145:
	.loc 9 176 0
	lwz 9,36(30)
.LBE4145:
.LBE4144:
	.loc 4 2004 0
	addi 0,30,28
.LVL562:
.LBB4148:
.LBB4146:
	.loc 9 176 0
	lwz 11,32(30)
.LBE4146:
.LBE4148:
	.loc 4 1992 0
	cmpwi 7,28,0
.LBB4149:
.LBB4147:
	.loc 9 176 0
	stw 11,4(9)
	.loc 9 177 0
	lwz 9,32(30)
	lwz 11,36(30)
	stw 11,8(9)
	.loc 9 179 0
	stw 0,32(30)
	.loc 9 180 0
	stw 0,36(30)
	.loc 9 181 0
	stw 0,28(30)
	.loc 4 4268 0
	lwz 9,-32180(27)
.LVL563:
.LBE4147:
.LBE4149:
.LBB4150:
.LBB4151:
.LBB4152:
	.loc 9 215 0
	stw 9,36(30)
	.loc 9 216 0
	lwz 11,4(9)
	stw 11,32(30)
	.loc 9 217 0
	stw 0,4(9)
	.loc 9 218 0
	lwz 11,32(30)
	stw 0,8(11)
	.loc 9 219 0
	lwz 0,0(9)
.LVL564:
	stw 0,28(30)
.LVL565:
.LBE4152:
.LBE4151:
.LBE4150:
	.loc 4 1992 0
	bne+ 7,.L398
.LVL566:
.L413:
	lwz 9,-32176(27)
	lwz 0,-32180(27)
.LBB4153:
.LBB4154:
	.loc 9 268 0
	cmpwi 7,9,0
	beq- 7,.L377
	cmpw 7,0,9
.LVL567:
.L378:
	beq- 7,.L377
	.loc 9 271 0
	lwz 30,12(9)
.LVL568:
	lis 26,_ZN20idPhysics_Parametric4TypeE@ha
.LBE4154:
.LBE4153:
	.loc 4 2010 0
	cmpwi 7,30,0
	bne+ 7,.L411
	b .L377
.LVL569:
.L415:
	.loc 4 2013 0 discriminator 1
	cmpw 7,30,3
	beq- 7,.L401
.LVL570:
.L386:
	.loc 4 2010 0 discriminator 1
	cmpwi 7,28,0
	beq- 7,.L377
.L402:
	.loc 4 2010 0 is_stmt 0
	mr 30,28
.LVL571:
.L411:
	.loc 4 4268 0 is_stmt 1
	lwz 9,32(30)
.LBB4155:
.LBB4156:
	.loc 9 269 0
	li 28,0
.LBE4156:
.LBE4155:
	.loc 4 4268 0
	lwz 0,28(30)
.LBB4158:
.LBB4157:
	.loc 9 268 0
	cmpwi 7,9,0
	beq- 7,.L384
	cmpw 7,0,9
	beq- 7,.L384
	.loc 9 271 0
	lwz 28,12(9)
.L384:
.LBE4157:
.LBE4158:
	.loc 4 2012 0
	mr 3,30
	bl _ZNK8idEntity13GetTeamMasterEv
.LVL572:
	.loc 4 2013 0
	cmpwi 0,3,0
	bne+ 0,.L415
.L401:
	mr 31,30
	la 29,_ZN20idPhysics_Parametric4TypeE@l(26)
.LVL573:
.L403:
	.loc 4 2016 0
	mr 3,31
	bl _ZNK8idEntity10GetPhysicsEv
.LVL574:
.LBB4159:
.LBB4160:
	.loc 5 340 0
	lwz 9,0(3)
	lwz 0,0(9)
	mtctr 0
	bctrl
.LVL575:
.LBB4161:
.LBB4162:
	.loc 5 311 0
	lwz 9,56(29)
.LBE4162:
.LBE4161:
.LBE4160:
	.loc 4 4268 0
	lwz 0,56(3)
.LBE4159:
	.loc 4 2015 0
	mr 3,31
.LVL576:
.LBB4166:
.LBB4165:
.LBB4164:
.LBB4163:
	.loc 5 311 0
	cmpw 7,0,9
	blt- 7,.L387
	lwz 9,60(29)
	cmpw 7,0,9
	bgt- 7,.L387
.LBE4163:
.LBE4164:
.LBE4165:
.LBE4166:
	.loc 4 2021 0
	cmpwi 7,31,0
	beq- 7,.L386
.LBB4167:
.LBB4168:
	.loc 9 176 0
	lwz 9,36(30)
.LBE4168:
.LBE4167:
	.loc 4 2022 0
	addi 0,30,28
.LVL577:
.LBB4171:
.LBB4169:
	.loc 9 176 0
	lwz 11,32(30)
.LBE4169:
.LBE4171:
	.loc 4 2010 0
	cmpwi 7,28,0
.LBB4172:
.LBB4170:
	.loc 9 176 0
	stw 11,4(9)
	.loc 9 177 0
	lwz 9,32(30)
	lwz 11,36(30)
	stw 11,8(9)
	.loc 9 179 0
	stw 0,32(30)
	.loc 9 180 0
	stw 0,36(30)
	.loc 9 181 0
	stw 0,28(30)
	.loc 4 4268 0
	lwz 9,-32180(27)
.LVL578:
.LBE4170:
.LBE4172:
.LBB4173:
.LBB4174:
.LBB4175:
	.loc 9 215 0
	stw 9,36(30)
	.loc 9 216 0
	lwz 11,4(9)
	stw 11,32(30)
	.loc 9 217 0
	stw 0,4(9)
	.loc 9 218 0
	lwz 11,32(30)
	stw 0,8(11)
	.loc 9 219 0
	lwz 0,0(9)
.LVL579:
	stw 0,28(30)
.LVL580:
.LBE4175:
.LBE4174:
.LBE4173:
	.loc 4 2010 0
	bne+ 7,.L402
.LVL581:
.L377:
	.loc 4 2029 0
	li 0,0
	stb 0,-32159(27)
	.loc 4 2030 0
	stb 0,-32160(27)
.LBE4183:
	.loc 4 2031 0
	lwz 0,36(1)
	lwz 26,8(1)
	mtlr 0
	lwz 27,12(1)
.LVL582:
	lwz 28,16(1)
	lwz 29,20(1)
	lwz 30,24(1)
	lwz 31,28(1)
	addi 1,1,32
	.cfi_remember_state
.LCFI147:
	.cfi_def_cfa_offset 0
	.cfi_restore 31
	.cfi_restore 30
	.cfi_restore 29
	.cfi_restore 28
	.cfi_restore 27
	.cfi_restore 26
	blr
.LVL583:
.L412:
.LCFI148:
	.cfi_restore_state
.LBB4184:
.LBB4176:
.LBB4177:
	.loc 9 176 0
	lwz 9,36(31)
.LBE4177:
.LBE4176:
	.loc 4 1983 0
	addi 0,31,28
.LVL584:
.LBB4179:
.LBB4178:
	.loc 9 176 0
	lwz 11,32(31)
	stw 11,4(9)
	.loc 9 177 0
	lwz 9,32(31)
	lwz 11,36(31)
	stw 11,8(9)
	.loc 9 179 0
	stw 0,32(31)
	.loc 9 180 0
	stw 0,36(31)
	.loc 9 181 0
	stw 0,28(31)
	.loc 4 4268 0
	lwz 9,-32180(27)
.LVL585:
.LBE4178:
.LBE4179:
.LBB4180:
.LBB4181:
.LBB4182:
	.loc 9 215 0
	stw 9,36(31)
	.loc 9 216 0
	lwz 11,4(9)
	stw 11,32(31)
	.loc 9 217 0
	stw 0,4(9)
	.loc 9 218 0
	lwz 11,32(31)
	stw 0,8(11)
	.loc 9 219 0
	lwz 0,0(9)
.LVL586:
	stw 0,28(31)
	b .L375
.LVL587:
.L382:
.LBE4182:
.LBE4181:
.LBE4180:
	.loc 4 1997 0
	bl _ZNK8idEntity17GetNextTeamEntityEv
.LVL588:
	mr. 31,3
	bne+ 0,.L404
	b .L381
.LVL589:
.L387:
	.loc 4 2015 0
	bl _ZNK8idEntity17GetNextTeamEntityEv
.LVL590:
	mr. 31,3
	bne+ 0,.L403
	b .L386
.LBE4184:
	.cfi_endproc
.LFE2886:
	.size	_ZN11idGameLocal20SortActiveEntityListEv, .-_ZN11idGameLocal20SortActiveEntityListEv
	.align 2
	.globl _ZNK11idGameLocal7CalcFovEfRfS0_
	.type	_ZNK11idGameLocal7CalcFovEfRfS0_, @function
_ZNK11idGameLocal7CalcFovEfRfS0_:
.LFB2888:
	.loc 4 2257 0
	.cfi_startproc
.LVL591:
	stwu 1,-80(1)
.LCFI149:
	.cfi_def_cfa_offset 80
	mflr 0
	stw 30,24(1)
.LBB4185:
	.loc 4 2263 0
	lis 30,sys@ha
	.cfi_offset 30, -56
	.cfi_register 65, 0
.LBE4185:
	.loc 4 2257 0
	stfd 30,64(1)
	fmr 30,1
	.cfi_offset 62, -16
	stw 28,16(1)
	mr 28,5
	.cfi_offset 28, -64
	stw 29,20(1)
	mr 29,4
	.cfi_offset 29, -60
	stw 31,28(1)
	mr 31,3
	.cfi_offset 31, -52
	stw 0,84(1)
	stfd 26,32(1)
	stfd 27,40(1)
	stfd 28,48(1)
	stfd 29,56(1)
	stfd 31,72(1)
	stw 27,12(1)
.LBB4188:
	.loc 4 2263 0
	lwz 9,sys@l(30)
	lwz 11,0(9)
	mr 3,9
.LVL592:
	lwz 0,28(11)
	.cfi_offset 27, -68
	.cfi_offset 63, -8
	.cfi_offset 61, -24
	.cfi_offset 60, -32
	.cfi_offset 59, -40
	.cfi_offset 58, -48
	.cfi_offset 65, 4
	mtctr 0
	bctrl
.LVL593:
	cmpwi 7,3,0
	beq- 7,.L431
.L417:
	.loc 4 2269 0
	lis 27,.LC20@ha
	lis 9,_ZN6idMath2PIE@ha
	lfs 29,.LC20@l(27)
	lfs 31,_ZN6idMath2PIE@l(9)
	fdivs 1,30,29
	fmuls 1,1,31
	bl tan
	lis 9,.LC24@ha
	lfs 2,.LC24@l(9)
	.loc 4 2270 0
	lis 9,.LC22@ha
	.loc 4 2269 0
	fmr 28,1
.LVL594:
	fdiv 2,2,1
	.loc 4 2270 0
	lfs 1,.LC22@l(9)
.LVL595:
	.loc 4 2269 0
	frsp 2,2
	.loc 4 2270 0
	bl atan2
.LVL596:
	.loc 4 2275 0
	lis 9,.LC2@ha
	.loc 4 2270 0
	frsp 1,1
.LVL597:
	.loc 4 2275 0
	lfs 0,.LC2@l(9)
	.loc 4 2271 0
	fmuls 29,1,29
	fdivs 29,29,31
	.loc 4 2275 0
	fcmpu 7,29,0
	.loc 4 2271 0
	stfs 29,0(28)
	.loc 4 2275 0
	cror 30,28,30
	beq- 7,.L432
.LVL598:
.L418:
.LBB4186:
.LBB4187:
	.loc 4 2280 0
	lis 9,r_aspectRatio+44@ha
	.loc 7 143 0
	lwz 9,r_aspectRatio+44@l(9)
.LBE4187:
.LBE4186:
	.loc 4 2280 0
	lwz 0,36(9)
	cmpwi 7,0,1
	beq- 7,.L421
	cmpwi 7,0,2
	beq- 7,.L433
	.loc 4 2284 0
	stfs 30,0(29)
.LVL599:
.L416:
.LBE4188:
	.loc 4 2316 0
	lwz 0,84(1)
	lwz 27,12(1)
	mtlr 0
	lwz 28,16(1)
.LVL600:
	lwz 29,20(1)
.LVL601:
	lwz 30,24(1)
	lwz 31,28(1)
.LVL602:
	lfd 26,32(1)
	lfd 27,40(1)
	lfd 28,48(1)
	lfd 29,56(1)
	lfd 30,64(1)
.LVL603:
	lfd 31,72(1)
	addi 1,1,80
	.cfi_remember_state
.LCFI150:
	.cfi_def_cfa_offset 0
	.cfi_restore 63
	.cfi_restore 62
	.cfi_restore 61
	.cfi_restore 60
	.cfi_restore 59
	.cfi_restore 58
	.cfi_restore 31
	.cfi_restore 30
	.cfi_restore 29
	.cfi_restore 28
	.cfi_restore 27
	blr
.LVL604:
.L421:
.LCFI151:
	.cfi_restore_state
.LBB4189:
	.loc 4 2291 0
	lis 9,.LC18@ha
	lfs 27,.LC18@l(9)
.L422:
.LVL605:
	.loc 4 2301 0
	lfs 29,.LC20@l(27)
	fmr 26,27
	lfs 1,0(28)
	fdivs 1,1,29
	fmuls 1,31,1
	bl tan
.LVL606:
	.loc 4 2302 0
	lis 9,.LC27@ha
	.loc 4 2301 0
	fdiv 2,26,1
	.loc 4 2302 0
	lfs 26,.LC27@l(9)
.LVL607:
	.loc 4 2301 0
	frsp 2,2
.LVL608:
	.loc 4 2302 0
	fmr 1,26
	bl atan2
.LVL609:
	fmul 0,1,29
	fdiv 0,0,31
	frsp 0,0
	.loc 4 2304 0
	fcmpu 7,30,0
	.loc 4 2302 0
	stfs 0,0(29)
	.loc 4 2304 0
	bgt- 7,.L424
	lfs 31,0(28)
.LVL610:
.L425:
	.loc 4 2312 0
	lis 9,.LC2@ha
	lfs 0,.LC2@l(9)
	fcmpu 7,31,0
	cror 30,28,30
	beq- 7,.L426
	.loc 4 2312 0 is_stmt 0 discriminator 1
	lfs 13,0(29)
	fcmpu 7,13,0
	cror 30,28,30
	bne- 7,.L416
.L426:
	.loc 4 2313 0 is_stmt 1
	lwz 3,sys@l(30)
	lwz 9,0(3)
	lwz 0,24(9)
	mtctr 0
	bctrl
	mr 4,3
	mr 3,31
	crxor 6,6,6
	bl _ZNK11idGameLocal6PrintfEPKcz
.LBE4189:
	.loc 4 2316 0
	lwz 0,84(1)
	lwz 27,12(1)
.LBB4190:
	.loc 4 2314 0
	mr 3,31
.LBE4190:
	.loc 4 2316 0
	lwz 28,16(1)
.LVL611:
.LBB4191:
	.loc 4 2314 0
	lis 4,.LC25@ha
.LBE4191:
	.loc 4 2316 0
	lwz 29,20(1)
.LVL612:
	mtlr 0
	lwz 30,24(1)
.LBB4192:
	.loc 4 2314 0
	la 4,.LC25@l(4)
.LBE4192:
	.loc 4 2316 0
	lwz 31,28(1)
.LVL613:
	lfd 26,32(1)
	lfd 27,40(1)
.LVL614:
	lfd 28,48(1)
	lfd 29,56(1)
	lfd 30,64(1)
.LVL615:
	lfd 31,72(1)
	addi 1,1,80
	.cfi_remember_state
.LCFI152:
	.cfi_def_cfa_offset 0
	.cfi_restore 63
	.cfi_restore 62
	.cfi_restore 61
	.cfi_restore 60
	.cfi_restore 59
	.cfi_restore 58
	.cfi_restore 31
	.cfi_restore 30
	.cfi_restore 29
	.cfi_restore 28
	.cfi_restore 27
.LBB4193:
	.loc 4 2314 0
	crxor 6,6,6
	b _ZNK11idGameLocal5ErrorEPKcz
.LVL616:
.L433:
.LCFI153:
	.cfi_restore_state
	.loc 4 2297 0
	lis 9,.LC17@ha
	lfs 27,.LC17@l(9)
	b .L422
.LVL617:
.L432:
	.loc 4 2276 0
	lwz 3,sys@l(30)
	lwz 9,0(3)
	lwz 0,24(9)
	mtctr 0
	bctrl
.LVL618:
	mr 4,3
	mr 3,31
	crxor 6,6,6
	bl _ZNK11idGameLocal6PrintfEPKcz
	.loc 4 2277 0
	lis 4,.LC25@ha
	mr 3,31
	la 4,.LC25@l(4)
	crxor 6,6,6
	bl _ZNK11idGameLocal5ErrorEPKcz
	b .L418
.LVL619:
.L431:
	.loc 4 2264 0
	lwz 3,sys@l(30)
	lwz 9,0(3)
	lwz 0,24(9)
	mtctr 0
	bctrl
	mr 4,3
	mr 3,31
	crxor 6,6,6
	bl _ZNK11idGameLocal6PrintfEPKcz
	.loc 4 2265 0
	lis 4,.LC19@ha
	mr 3,31
	la 4,.LC19@l(4)
	crxor 6,6,6
	bl _ZNK11idGameLocal5ErrorEPKcz
	b .L417
.LVL620:
.L424:
	.loc 4 2306 0
	fdiv 28,26,28
.LVL621:
	.loc 4 2305 0
	stfs 30,0(29)
	.loc 4 2306 0
	frsp 2,28
	.loc 4 2307 0
	fmr 1,27
	bl atan2
	fmul 29,1,29
	fdiv 31,29,31
	frsp 31,31
	stfs 31,0(28)
	b .L425
.LBE4193:
	.cfi_endproc
.LFE2888:
	.size	_ZNK11idGameLocal7CalcFovEfRfS0_, .-_ZNK11idGameLocal7CalcFovEfRfS0_
	.align 2
	.globl _ZNK11idGameLocal10GetMapNameEv
	.type	_ZNK11idGameLocal10GetMapNameEv, @function
_ZNK11idGameLocal10GetMapNameEv:
.LFB2895:
	.loc 4 2428 0
	.cfi_startproc
.LVL622:
	.loc 4 4268 0
	addis 3,3,0x25
.LVL623:
	.loc 4 2430 0
	lwz 3,2068(3)
.LVL624:
	blr
	.cfi_endproc
.LFE2895:
	.size	_ZNK11idGameLocal10GetMapNameEv, .-_ZNK11idGameLocal10GetMapNameEv
	.align 2
	.globl _ZN11idGameLocal16CallFrameCommandEP8idEntityPK10function_t
	.type	_ZN11idGameLocal16CallFrameCommandEP8idEntityPK10function_t, @function
_ZN11idGameLocal16CallFrameCommandEP8idEntityPK10function_t:
.LFB2896:
	.loc 4 2437 0
	.cfi_startproc
.LVL625:
	mflr 0
	stwu 1,-16(1)
.LCFI154:
	.cfi_def_cfa_offset 16
	.cfi_register 65, 0
	.loc 4 2438 0
	li 6,1
	.loc 4 2437 0
	stw 31,12(1)
	.loc 4 2438 0
	addis 31,3,0x23
	.cfi_offset 31, -4
	.loc 4 2437 0
	stw 0,20(1)
	.loc 4 2438 0
	lwz 3,17268(31)
.LVL626:
	.cfi_offset 65, 4
	bl _ZN8idThread12CallFunctionEP8idEntityPK10function_tb
.LVL627:
	.loc 4 2439 0
	lwz 3,17268(31)
	bl _ZN8idThread7ExecuteEv
	.loc 4 2440 0
	lwz 0,20(1)
	lwz 31,12(1)
.LVL628:
	mtlr 0
	addi 1,1,16
.LCFI155:
	.cfi_def_cfa_offset 0
	.cfi_restore 31
	blr
	.cfi_endproc
.LFE2896:
	.size	_ZN11idGameLocal16CallFrameCommandEP8idEntityPK10function_t, .-_ZN11idGameLocal16CallFrameCommandEP8idEntityPK10function_t
	.align 2
	.globl _ZN11idGameLocal22CallObjectFrameCommandEP8idEntityPKc
	.type	_ZN11idGameLocal22CallObjectFrameCommandEP8idEntityPKc, @function
_ZN11idGameLocal22CallObjectFrameCommandEP8idEntityPKc:
.LFB2897:
	.loc 4 2447 0
	.cfi_startproc
.LVL629:
	stwu 1,-24(1)
.LCFI156:
	.cfi_def_cfa_offset 24
	mflr 0
	stw 30,16(1)
	mr 30,4
	.cfi_offset 30, -8
	.cfi_register 65, 0
	stw 31,20(1)
.LBB4194:
	.loc 4 2450 0
	mr 4,5
.LVL630:
.LBE4194:
	.loc 4 2447 0
	mr 31,3
	.cfi_offset 31, -4
.LBB4200:
	.loc 4 2450 0
	addi 3,30,144
.LVL631:
.LBE4200:
	.loc 4 2447 0
	stw 29,12(1)
	mr 29,5
	.cfi_offset 29, -12
	stw 0,28(1)
.LBB4201:
	.loc 4 2450 0
	.cfi_offset 65, 4
	bl _ZNK14idScriptObject11GetFunctionEPKc
.LVL632:
	.loc 4 2451 0
	mr. 5,3
	beq- 0,.L440
	.loc 4 2456 0
	addis 31,31,0x23
.LVL633:
	mr 4,30
	lwz 3,17268(31)
.LVL634:
	li 6,1
	bl _ZN8idThread12CallFunctionEP8idEntityPK10function_tb
.LVL635:
	.loc 4 2457 0
	lwz 3,17268(31)
	bl _ZN8idThread7ExecuteEv
.LVL636:
.L436:
.LBE4201:
	.loc 4 2459 0
	lwz 0,28(1)
	lwz 29,12(1)
.LVL637:
	mtlr 0
	lwz 30,16(1)
.LVL638:
	lwz 31,20(1)
	addi 1,1,24
	.cfi_remember_state
.LCFI157:
	.cfi_def_cfa_offset 0
	.cfi_restore 31
	.cfi_restore 30
	.cfi_restore 29
	blr
.LVL639:
.L440:
.LCFI158:
	.cfi_restore_state
.LBB4202:
.LBB4195:
.LBB4196:
	.loc 5 340 0
	lwz 9,0(30)
	mr 3,30
.LVL640:
	lwz 0,0(9)
	mtctr 0
	bctrl
.LVL641:
.LBE4196:
	.loc 4 4268 0
	lis 9,_ZN11idTestModel4TypeE@ha
	la 9,_ZN11idTestModel4TypeE@l(9)
	lwz 0,56(3)
.LBB4199:
.LBB4197:
.LBB4198:
	.loc 5 311 0
	lwz 11,56(9)
	cmpw 7,0,11
	blt- 7,.L438
	lwz 9,60(9)
	cmpw 7,0,9
	ble- 7,.L436
.L438:
.LBE4198:
.LBE4197:
.LBE4199:
.LBE4195:
.LBE4202:
	.loc 4 2459 0
	lwz 0,28(1)
.LBB4203:
	.loc 4 2453 0
	mr 3,31
.LVL642:
	lwz 6,72(30)
	lis 4,.LC29@ha
.LBE4203:
	.loc 4 2459 0
	lwz 30,16(1)
.LVL643:
.LBB4204:
	.loc 4 2453 0
	mr 5,29
.LBE4204:
	.loc 4 2459 0
	lwz 31,20(1)
.LVL644:
	mtlr 0
	lwz 29,12(1)
.LVL645:
.LBB4205:
	.loc 4 2453 0
	la 4,.LC29@l(4)
.LBE4205:
	.loc 4 2459 0
	addi 1,1,24
.LCFI159:
	.cfi_def_cfa_offset 0
	.cfi_restore 31
	.cfi_restore 30
	.cfi_restore 29
.LBB4206:
	.loc 4 2453 0
	crxor 6,6,6
	b _ZNK11idGameLocal5ErrorEPKcz
.LVL646:
.LVL647:
.LBE4206:
	.cfi_endproc
.LFE2897:
	.size	_ZN11idGameLocal22CallObjectFrameCommandEP8idEntityPKc, .-_ZN11idGameLocal22CallObjectFrameCommandEP8idEntityPKc
	.align 2
	.globl _ZN11idGameLocal11ShowTargetsEv
	.type	_ZN11idGameLocal11ShowTargetsEv, @function
_ZN11idGameLocal11ShowTargetsEv:
.LFB2898:
	.loc 4 2466 0
	.cfi_startproc
.LVL648:
	mflr 0
	stwu 1,-488(1)
.LCFI160:
	.cfi_def_cfa_offset 488
	.cfi_register 65, 0
	stfd 14,344(1)
	stw 0,492(1)
	stfd 15,352(1)
	stfd 16,360(1)
	stfd 17,368(1)
	stfd 18,376(1)
	stfd 19,384(1)
	stfd 20,392(1)
	stfd 21,400(1)
	stfd 23,416(1)
	stfd 24,424(1)
	stfd 25,432(1)
	stfd 26,440(1)
	stfd 27,448(1)
	stfd 28,456(1)
	stfd 30,472(1)
	stw 21,300(1)
.LBB4417:
.LBB4418:
.LBB4419:
	.file 18 "d:/Data/Nintendo/DoomGX/src/game/../idlib/../idlib/bv/Bounds.h"
	.loc 18 323 0
	lis 21,.LC34@ha
	.cfi_offset 21, -188
	.cfi_offset 62, -16
	.cfi_offset 60, -32
	.cfi_offset 59, -40
	.cfi_offset 58, -48
	.cfi_offset 57, -56
	.cfi_offset 56, -64
	.cfi_offset 55, -72
	.cfi_offset 53, -88
	.cfi_offset 52, -96
	.cfi_offset 51, -104
	.cfi_offset 50, -112
	.cfi_offset 49, -120
	.cfi_offset 48, -128
	.cfi_offset 47, -136
	.cfi_offset 65, 4
	.cfi_offset 46, -144
.LBE4419:
.LBE4418:
.LBE4417:
	.loc 4 2466 0
	stfd 22,408(1)
	stfd 29,464(1)
	stfd 31,480(1)
	stw 14,272(1)
	stw 15,276(1)
	stw 16,280(1)
	stw 17,284(1)
	stw 18,288(1)
	stw 19,292(1)
	stw 20,296(1)
	stw 22,304(1)
	stw 23,308(1)
	stw 24,312(1)
	stw 25,316(1)
	stw 26,320(1)
	stw 27,324(1)
	stw 28,328(1)
	stw 31,340(1)
	mr 31,3
	.cfi_offset 31, -148
	.cfi_offset 28, -160
	.cfi_offset 27, -164
	.cfi_offset 26, -168
	.cfi_offset 25, -172
	.cfi_offset 24, -176
	.cfi_offset 23, -180
	.cfi_offset 22, -184
	.cfi_offset 20, -192
	.cfi_offset 19, -196
	.cfi_offset 18, -200
	.cfi_offset 17, -204
	.cfi_offset 16, -208
	.cfi_offset 15, -212
	.cfi_offset 14, -216
	.cfi_offset 63, -8
	.cfi_offset 61, -24
	.cfi_offset 54, -80
	stw 29,332(1)
	stw 30,336(1)
.LBB4772:
	.loc 4 2467 0
	.cfi_offset 30, -152
	.cfi_offset 29, -156
	bl _ZNK11idGameLocal14GetLocalPlayerEv
.LVL649:
	addi 4,3,4644
	addi 3,1,216
	bl _ZNK8idAngles6ToMat3Ev
.LVL650:
.LBB4426:
.LBB4427:
	.loc 17 439 0
	lis 9,.LC30@ha
	lfs 0,.LC30@l(9)
.LBE4427:
.LBE4426:
	.loc 4 2469 0
	mr 3,31
.LBB4430:
.LBB4428:
	.loc 17 439 0
	lfs 25,240(1)
.LBE4428:
.LBE4430:
.LBB4431:
.LBB4420:
	.loc 4 4268 0
	addis 31,31,0x1
.LVL651:
.LBE4420:
.LBE4431:
.LBB4432:
.LBB4429:
	.loc 17 439 0
	lfs 24,244(1)
	lfs 23,248(1)
	fmuls 25,25,0
	fmuls 24,24,0
	fmuls 23,23,0
.LVL652:
.LBE4429:
.LBE4432:
	.loc 4 2469 0
	bl _ZNK11idGameLocal14GetLocalPlayerEv
.LVL653:
	bl _ZNK8idEntity10GetPhysicsEv
	li 4,0
	lwz 9,0(3)
	lwz 0,132(9)
	mtctr 0
	bctrl
.LBB4433:
.LBB4421:
	.loc 4 4268 0
	lwz 11,-32192(31)
.LBE4421:
.LBE4433:
.LBB4434:
.LBB4435:
	.loc 18 323 0
	lis 9,.LC33@ha
.LBE4435:
.LBE4434:
.LBB4442:
.LBB4443:
.LBB4444:
	.loc 17 424 0
	lis 10,.LC32@ha
.LBE4444:
.LBE4443:
.LBE4442:
.LBB4459:
.LBB4460:
.LBB4461:
	.loc 9 268 0
	cmpwi 7,11,0
.LBE4461:
.LBE4460:
.LBE4459:
.LBB4741:
.LBB4436:
	.loc 18 323 0
	lfs 14,.LC33@l(9)
.LBE4436:
.LBE4741:
.LBB4742:
.LBB4448:
.LBB4449:
	.loc 17 424 0
	lis 9,.LC31@ha
.LBE4449:
.LBE4448:
.LBE4742:
.LBB4743:
.LBB4744:
.LBB4745:
	lfs 26,0(3)
	.loc 17 425 0
	lfs 20,4(3)
.LBE4745:
.LBE4744:
.LBE4743:
	.loc 4 2469 0
	mr 28,3
.LVL654:
.LBB4748:
.LBB4747:
.LBB4746:
	.loc 17 426 0
	lfs 18,8(3)
.LVL655:
.LBE4746:
.LBE4747:
.LBE4748:
.LBB4749:
.LBB4437:
	.loc 18 323 0
	fsubs 21,26,14
.LBE4437:
.LBE4749:
.LBB4750:
.LBB4422:
	lfs 0,.LC34@l(21)
.LBE4422:
.LBE4750:
.LBB4751:
.LBB4438:
	.loc 18 324 0
	fsubs 19,20,14
.LBE4438:
.LBE4751:
.LBB4752:
.LBB4453:
.LBB4445:
	.loc 17 424 0
	lwz 0,.LC32@l(10)
.LBE4445:
.LBE4453:
.LBE4752:
.LBB4753:
.LBB4439:
	.loc 18 325 0
	fsubs 17,18,14
.LBE4439:
.LBE4753:
.LBB4754:
.LBB4454:
.LBB4450:
	.loc 17 424 0
	lwz 9,.LC31@l(9)
.LBE4450:
.LBE4454:
.LBE4754:
.LBB4755:
.LBB4440:
	.loc 18 326 0
	fadds 16,26,14
	.loc 18 327 0
	fadds 15,20,14
.LBE4440:
.LBE4755:
.LBB4756:
.LBB4455:
.LBB4446:
	.loc 17 424 0
	stw 0,204(1)
	.loc 17 425 0
	stw 0,208(1)
.LBE4446:
.LBE4455:
.LBE4756:
.LBB4757:
.LBB4441:
	.loc 18 328 0
	fadds 14,18,14
.LBE4441:
.LBE4757:
.LBB4758:
.LBB4456:
.LBB4447:
	.loc 17 426 0
	stw 0,212(1)
.LBE4447:
.LBE4456:
.LBE4758:
.LBB4759:
.LBB4423:
	.loc 18 323 0
	fsubs 30,26,0
	.loc 18 324 0
	fsubs 28,20,0
.LBE4423:
.LBE4759:
.LBB4760:
.LBB4457:
.LBB4451:
	.loc 17 424 0
	stw 9,192(1)
.LBE4451:
.LBE4457:
.LBE4760:
.LBB4761:
.LBB4424:
	.loc 18 325 0
	fsubs 27,18,0
.LBE4424:
.LBE4761:
.LBB4762:
.LBB4458:
.LBB4452:
	.loc 17 425 0
	stw 9,196(1)
	.loc 17 426 0
	stw 9,200(1)
.LVL656:
.LBE4452:
.LBE4458:
.LBE4762:
.LBB4763:
.LBB4425:
	.loc 18 326 0
	fadds 26,26,0
.LVL657:
	.loc 18 327 0
	fadds 20,20,0
.LVL658:
	.loc 4 4268 0
	lwz 0,-32196(31)
	.loc 18 328 0
	fadds 18,18,0
.LBE4425:
.LBE4763:
.LBB4764:
.LBB4463:
.LBB4462:
	.loc 9 268 0
	beq- 7,.L441
	cmpw 7,0,11
	beq- 7,.L441
	.loc 9 271 0
	lwz 31,12(11)
.LVL659:
.LBE4462:
.LBE4463:
	.loc 4 2480 0
	cmpwi 7,31,0
	beq- 7,.L441
	lis 30,.LANCHOR0@ha
.LBB4464:
	.loc 4 2498 0
	lis 9,.LC2@ha
	la 30,.LANCHOR0@l(30)
	.loc 4 2502 0
	lis 17,vec3_origin@ha
.LBB4465:
.LBB4466:
	.loc 4 2507 0
	lis 14,.LC39@ha
.LBE4466:
.LBE4465:
	.loc 4 2498 0
	lfs 29,.LC2@l(9)
.LBB4617:
.LBB4618:
	.loc 10 635 0
	mr 29,30
.LBE4618:
.LBE4617:
.LBE4464:
.LBE4764:
.LBE4772:
	.loc 17 431 0
	lis 27,.LC35@ha
.LBB4773:
.LBB4765:
.LBB4732:
.LBB4620:
.LBB4621:
.LBB4622:
.LBB4623:
	.file 19 "d:/Data/Nintendo/DoomGX/src/game/../idlib/../idlib/math/Math.h"
	.loc 19 250 0
	lis 22,.LC36@ha
.LBE4623:
.LBE4622:
.LBE4621:
.LBE4620:
	.loc 4 2497 0
	lis 23,.LC37@ha
	.loc 4 2502 0
	lis 18,gameRenderWorld@ha
	la 17,vec3_origin@l(17)
.LBB4631:
.LBB4632:
	.loc 17 905 0
	lis 24,colorYellow@ha
.LBE4632:
.LBE4631:
.LBB4645:
.LBB4611:
	.loc 4 2507 0
	la 14,.LC39@l(14)
.LVL660:
.L474:
.LBE4611:
.LBE4645:
	.loc 4 2481 0
	mr 3,31
	bl _ZNK8idEntity10GetPhysicsEv
	li 4,-1
	lwz 9,0(3)
	lwz 0,60(9)
	mtctr 0
	bctrl
.LVL661:
	.loc 4 2482 0
	lwz 0,172(31)
.LBB4646:
.LBB4647:
.LBB4648:
	.loc 17 424 0
	lwz 7,0(3)
.LBE4648:
.LBE4647:
.LBE4646:
	.loc 4 2482 0
	cmpwi 7,0,0
.LBB4651:
.LBB4650:
.LBB4649:
	.loc 17 425 0
	lwz 8,4(3)
	.loc 17 426 0
	lwz 10,8(3)
	.loc 17 424 0
	lfs 0,12(3)
	.loc 17 425 0
	lwz 11,16(3)
	.loc 17 426 0
	lwz 9,20(3)
	.loc 17 424 0
	stw 7,168(1)
	.loc 17 425 0
	stw 8,172(1)
	.loc 17 426 0
	stw 10,176(1)
.LVL662:
	.loc 17 424 0
	stfs 0,180(1)
	.loc 17 425 0
	stw 11,184(1)
	.loc 17 426 0
	stw 9,188(1)
.LVL663:
.LBE4649:
.LBE4650:
.LBE4651:
	.loc 4 2482 0
	ble- 7,.L443
	li 25,0
	addi 26,1,168
	b .L456
.LVL664:
.L444:
	addi 25,25,1
.LVL665:
	cmpw 7,0,25
	ble- 7,.L482
.LVL666:
.L456:
.LBB4652:
.LBB4619:
	.loc 10 634 0
	lwz 11,184(31)
	slwi 9,25,2
	lwzx 9,11,9
	rlwinm 11,9,0,20,31
.LVL667:
	.loc 10 635 0
	srawi 9,9,12
	addi 10,11,4228
	slwi 10,10,2
	add 10,30,10
	lwz 10,4(10)
	cmpw 7,10,9
	bne+ 7,.L444
	.loc 10 636 0
	addi 11,11,132
.LVL668:
	slwi 11,11,2
.LVL669:
	add 11,29,11
	lwz 3,4(11)
.LBE4619:
.LBE4652:
	.loc 4 2484 0
	cmpwi 7,3,0
	beq- 7,.L444
	.loc 4 2485 0
	bl _ZNK8idEntity10GetPhysicsEv
.LVL670:
	li 4,-1
	lwz 9,0(3)
	lwz 0,60(9)
	mtctr 0
	bctrl
.LVL671:
.LBB4653:
.LBB4654:
	.loc 18 257 0
	lfs 13,0(26)
.LBB4655:
.LBB4656:
	.loc 17 402 0
	lfs 0,0(3)
.LVL672:
.LBE4656:
.LBE4655:
	.loc 18 257 0
	fcmpu 7,0,13
	bnl- 7,.L445
.LVL673:
	.loc 18 258 0
	stfs 0,168(1)
.LVL674:
.L445:
.LBB4657:
.LBB4658:
	.loc 17 402 0
	lfs 0,4(3)
.LVL675:
.LBE4658:
.LBE4657:
	.loc 18 261 0
	lfs 13,4(26)
	fcmpu 7,0,13
	bnl- 7,.L447
.LVL676:
	.loc 18 262 0
	stfs 0,172(1)
.LVL677:
.L447:
.LBB4659:
.LBB4660:
	.loc 17 402 0
	lfs 0,8(3)
.LVL678:
.LBE4660:
.LBE4659:
	.loc 18 265 0
	lfs 13,8(26)
	fcmpu 7,0,13
	bnl- 7,.L449
.LVL679:
	.loc 18 266 0
	stfs 0,176(1)
.LVL680:
.L449:
.LBB4661:
.LBB4662:
	.loc 17 402 0
	lfs 0,12(3)
.LVL681:
.LBE4662:
.LBE4661:
	.loc 18 269 0
	lfs 13,12(26)
	fcmpu 7,0,13
	bng- 7,.L451
.LVL682:
	.loc 18 270 0
	stfs 0,180(1)
.LVL683:
.L451:
.LBB4663:
.LBB4664:
	.loc 17 402 0
	lfs 0,16(3)
.LVL684:
.LBE4664:
.LBE4663:
	.loc 18 273 0
	lfs 13,16(26)
	fcmpu 7,0,13
	bng- 7,.L453
.LVL685:
	.loc 18 274 0
	stfs 0,184(1)
.LVL686:
.L453:
.LBB4665:
.LBB4666:
	.loc 17 402 0
	lfs 0,20(3)
.LVL687:
.LBE4666:
.LBE4665:
	.loc 18 277 0
	lfs 13,20(26)
	fcmpu 7,0,13
	bng- 7,.L481
.LVL688:
	.loc 18 278 0
	stfs 0,188(1)
.LVL689:
.L481:
	lwz 0,172(31)
.LBE4654:
.LBE4653:
	.loc 4 2482 0
	addi 25,25,1
.LVL690:
	cmpw 7,0,25
	bgt+ 7,.L456
.LVL691:
.L482:
	lfs 0,12(26)
.LVL692:
.L443:
.LBB4667:
.LBB4668:
	.loc 18 362 0
	fcmpu 7,30,0
	bgt- 7,.L457
.LVL693:
.LBB4669:
.LBB4670:
	.loc 4 2489 0
	addi 26,1,168
	.loc 17 402 0
	lfs 13,16(26)
.LVL694:
.LBE4670:
.LBE4669:
	.loc 18 362 0
	fcmpu 7,28,13
	bgt- 7,.L457
.LVL695:
.LBB4671:
.LBB4672:
	.loc 17 402 0
	lfs 12,20(26)
.LVL696:
.LBE4672:
.LBE4671:
	.loc 18 362 0
	fcmpu 7,27,12
	bgt- 7,.L457
.LVL697:
.LBB4673:
.LBB4674:
	.loc 17 402 0
	lfs 8,0(26)
.LVL698:
.LBE4674:
.LBE4673:
	.loc 18 362 0
	fcmpu 7,26,8
	blt- 7,.L457
.LVL699:
.LBB4675:
.LBB4676:
	.loc 17 402 0
	lfs 9,4(26)
.LVL700:
.LBE4676:
.LBE4675:
	.loc 18 362 0
	fcmpu 7,20,9
	bnl- 7,.L483
.LVL701:
.L457:
.LBE4668:
.LBE4667:
	.loc 4 4268 0
	lwz 9,16(31)
	lwz 0,12(31)
.LBE4732:
.LBB4733:
.LBB4734:
	.loc 9 268 0
	cmpwi 7,9,0
	beq- 7,.L441
	cmpw 7,0,9
	beq- 7,.L441
	.loc 9 271 0
	lwz 31,12(9)
.LVL702:
.LBE4734:
.LBE4733:
	.loc 4 2480 0
	cmpwi 7,31,0
	bne+ 7,.L474
.LVL703:
.L441:
.LBE4765:
.LBE4773:
	.loc 4 2518 0
	lwz 0,492(1)
	lwz 14,272(1)
	mtlr 0
	lwz 15,276(1)
	lwz 16,280(1)
	lwz 17,284(1)
	lwz 18,288(1)
	lwz 19,292(1)
	lwz 20,296(1)
	lwz 21,300(1)
	lwz 22,304(1)
	lwz 23,308(1)
	lwz 24,312(1)
	lwz 25,316(1)
	lwz 26,320(1)
	lwz 27,324(1)
	lwz 28,328(1)
.LVL704:
	lwz 29,332(1)
	lwz 30,336(1)
	lwz 31,340(1)
	lfd 14,344(1)
	lfd 15,352(1)
	lfd 16,360(1)
	lfd 17,368(1)
	lfd 18,376(1)
	lfd 19,384(1)
	lfd 20,392(1)
	lfd 21,400(1)
	lfd 22,408(1)
	lfd 23,416(1)
.LVL705:
	lfd 24,424(1)
.LVL706:
	lfd 25,432(1)
.LVL707:
	lfd 26,440(1)
	lfd 27,448(1)
	lfd 28,456(1)
	lfd 29,464(1)
	lfd 30,472(1)
	lfd 31,480(1)
	addi 1,1,488
	.cfi_remember_state
.LCFI161:
	.cfi_def_cfa_offset 0
	.cfi_restore 63
	.cfi_restore 62
	.cfi_restore 61
	.cfi_restore 60
	.cfi_restore 59
	.cfi_restore 58
	.cfi_restore 57
	.cfi_restore 56
	.cfi_restore 55
	.cfi_restore 54
	.cfi_restore 53
	.cfi_restore 52
	.cfi_restore 51
	.cfi_restore 50
	.cfi_restore 49
	.cfi_restore 48
	.cfi_restore 47
	.cfi_restore 46
	.cfi_restore 31
	.cfi_restore 30
	.cfi_restore 29
	.cfi_restore 28
	.cfi_restore 27
	.cfi_restore 26
	.cfi_restore 25
	.cfi_restore 24
	.cfi_restore 23
	.cfi_restore 22
	.cfi_restore 21
	.cfi_restore 20
	.cfi_restore 19
	.cfi_restore 18
	.cfi_restore 17
	.cfi_restore 16
	.cfi_restore 15
	.cfi_restore 14
	blr
.LVL708:
.L483:
.LCFI162:
	.cfi_restore_state
.LBB4774:
.LBB4766:
.LBB4735:
.LBB4680:
.LBB4679:
.LBB4677:
.LBB4678:
	.loc 17 402 0
	lfs 10,8(26)
.LVL709:
.LBE4678:
.LBE4677:
	.loc 18 362 0
	fcmpu 7,18,10
	blt- 7,.L457
.LVL710:
.LBE4679:
.LBE4680:
.LBB4681:
.LBB4682:
	.loc 18 212 0
	fadds 9,13,9
.LVL711:
.LBE4682:
.LBE4681:
.LBE4735:
.LBE4766:
.LBE4774:
	.loc 17 431 0
	lfs 11,4(28)
	lfs 13,.LC35@l(27)
.LVL712:
.LBB4775:
.LBB4767:
.LBB4736:
.LBB4684:
.LBB4683:
	.loc 18 212 0
	fadds 0,8,0
.LVL713:
	fadds 10,12,10
.LBE4683:
.LBE4684:
.LBE4736:
.LBE4767:
.LBE4775:
	.loc 17 431 0
	lfs 12,8(28)
.LVL714:
	fmsubs 11,9,13,11
	lfs 9,0(28)
.LBB4776:
.LBB4768:
.LBB4737:
	.loc 4 2496 0
	mr 3,26
	mr 4,28
.LBE4737:
.LBE4768:
.LBE4776:
	.loc 17 431 0
	fmsubs 0,0,13,9
.LBB4777:
.LBB4769:
.LBB4738:
	.loc 4 2496 0
	addi 5,1,60
.LBB4685:
.LBB4628:
	.loc 17 527 0
	fmuls 9,11,11
.LBE4628:
.LBE4685:
	.loc 4 2496 0
	addi 6,1,8
.LBE4738:
.LBE4769:
.LBE4777:
	.loc 17 431 0
	fmsubs 12,10,13,12
.LVL715:
.LBB4778:
.LBB4770:
.LBB4739:
.LBB4686:
.LBB4629:
.LBB4626:
.LBB4624:
	.loc 19 250 0
	lfs 10,.LC36@l(22)
.LBE4624:
.LBE4626:
.LBE4629:
.LBE4686:
.LBE4739:
.LBE4770:
.LBE4778:
	.loc 17 431 0
	la 25,.LC35@l(27)
	.loc 17 527 0
	fmadds 9,0,0,9
	fmadds 9,12,12,9
	stfs 9,264(1)
.LVL716:
.LBB4779:
.LBB4771:
.LBB4740:
.LBB4687:
.LBB4630:
.LBB4627:
.LBB4625:
	.loc 19 246 0
	fmuls 13,9,13
	.loc 19 248 0
	lwz 9,264(1)
	.loc 4 2466 0
	fneg 13,13
	.loc 19 248 0
	srawi 0,9,1
	.loc 19 249 0
	lis 9,0x5f37
	ori 9,9,23007
	subf 9,0,9
	stw 9,264(1)
.LVL717:
	.loc 19 250 0
	lfs 7,264(1)
	fmuls 9,7,7
.LVL718:
	fmadds 13,13,9,10
	fmuls 13,7,13
.LVL719:
.LBE4625:
.LBE4627:
	.loc 17 529 0
	fmuls 0,0,13
.LVL720:
	.loc 17 530 0
	fmuls 11,11,13
.LVL721:
	.loc 17 531 0
	fmuls 13,12,13
.LVL722:
	.loc 17 529 0
	stfs 0,60(1)
	.loc 17 530 0
	stfs 11,64(1)
	.loc 17 531 0
	stfs 13,68(1)
.LBE4630:
.LBE4687:
	.loc 4 2496 0
	bl _ZNK8idBounds15RayIntersectionERK6idVec3S2_Rf
.LVL723:
	.loc 4 2497 0
	lfs 31,.LC34@l(21)
	lfs 13,8(1)
	lfs 0,.LC37@l(23)
	fsubs 31,31,13
	fmuls 31,31,0
.LVL724:
	.loc 4 2498 0
	fcmpu 7,31,29
	blt+ 7,.L457
	.loc 4 2502 0
	lwz 19,gameRenderWorld@l(18)
	mr 3,31
	la 26,gameRenderWorld@l(18)
.LVL725:
	lwz 9,0(19)
	lwz 20,176(9)
	bl _ZNK8idEntity8IsHiddenEv
	cmpwi 7,3,0
	beq- 7,.L467
	lis 9,colorLtGrey@ha
	la 9,colorLtGrey@l(9)
.L459:
.LVL726:
.LBB4688:
.LBB4689:
	.loc 17 905 0 discriminator 3
	lfs 11,4(9)
.LBE4689:
.LBE4688:
	.loc 4 2502 0 discriminator 3
	mr 3,31
.LBB4693:
.LBB4692:
	.loc 17 905 0 discriminator 3
	lfs 13,8(9)
	lfs 0,12(9)
	fmuls 11,31,11
	lfs 12,0(9)
	fmuls 13,31,13
	fmuls 0,31,0
.LVL727:
	fmuls 12,31,12
.LBB4690:
.LBB4691:
	.loc 17 868 0 discriminator 3
	stfs 11,156(1)
	.loc 17 869 0 discriminator 3
	stfs 13,160(1)
	.loc 17 870 0 discriminator 3
	stfs 0,164(1)
	.loc 17 867 0 discriminator 3
	stfs 12,152(1)
.LBE4691:
.LBE4690:
.LBE4692:
.LBE4693:
	.loc 4 2502 0 discriminator 3
	bl _ZNK8idEntity10GetPhysicsEv
.LVL728:
	lwz 9,0(3)
	li 4,-1
	lwz 0,60(9)
	mtctr 0
	bctrl
	addi 4,1,152
	mr 5,3
	mr 6,17
	li 7,0
	mtctr 20
	mr 3,19
	bctrl
.LBB4694:
	.loc 4 2503 0 discriminator 3
	mr 3,31
	bl _ZNK8idEntity10GetPhysicsEv
	li 4,-1
	lwz 9,0(3)
	lwz 0,60(9)
	mtctr 0
	bctrl
.LVL729:
.LBB4612:
.LBB4613:
	.loc 18 362 0 discriminator 3
	lfs 0,12(3)
	fcmpu 7,21,0
	bgt- 7,.L460
.LVL730:
	.loc 18 362 0 is_stmt 0
	lfs 0,16(3)
	fcmpu 7,19,0
	bgt- 7,.L460
.LVL731:
	lfs 0,20(3)
	fcmpu 7,17,0
	bng- 7,.L484
.LVL732:
.L460:
.LBE4613:
.LBE4612:
.LBE4694:
	.loc 4 2510 0 is_stmt 1 discriminator 1
	lwz 0,172(31)
	cmpwi 7,0,0
	ble- 7,.L457
	.loc 4 2510 0 is_stmt 0
	li 20,0
.LBB4695:
.LBB4696:
	.loc 17 905 0 is_stmt 1
	lis 16,colorGreen@ha
	b .L464
.LVL733:
.L463:
.LBE4696:
.LBE4695:
	.loc 4 2510 0
	cmpw 7,0,20
	ble- 7,.L457
.LVL734:
.L464:
.LBB4706:
.LBB4707:
	.loc 10 634 0
	lwz 11,184(31)
	slwi 9,20,2
.LBE4707:
.LBE4706:
	.loc 4 2510 0
	addi 20,20,1
.LVL735:
.LBB4711:
.LBB4708:
	.loc 10 634 0
	lwzx 9,11,9
	rlwinm 11,9,0,20,31
.LVL736:
	.loc 10 635 0
	srawi 9,9,12
	addi 10,11,4228
	slwi 10,10,2
	add 10,30,10
	lwz 10,4(10)
	cmpw 7,10,9
	bne+ 7,.L463
	.loc 10 636 0
	addi 11,11,132
.LVL737:
.LBE4708:
.LBE4711:
.LBB4712:
.LBB4639:
	.loc 17 905 0
	la 9,colorYellow@l(24)
.LBE4639:
.LBE4712:
.LBB4713:
.LBB4709:
	.loc 10 636 0
	slwi 11,11,2
.LVL738:
.LBE4709:
.LBE4713:
	.loc 4 2513 0
	mr 3,31
.LBB4714:
.LBB4710:
	.loc 10 636 0
	add 11,29,11
	lwz 19,4(11)
.LBE4710:
.LBE4714:
	.loc 4 2512 0
	cmpwi 7,19,0
	beq- 7,.L463
.LBB4715:
.LBB4640:
	.loc 17 905 0
	lfs 11,4(9)
	lfs 13,8(9)
	lfs 0,12(9)
	fmuls 11,31,11
	lfs 12,colorYellow@l(24)
	fmuls 13,31,13
.LBE4640:
.LBE4715:
	.loc 4 2513 0
	lwz 9,0(26)
.LBB4716:
.LBB4641:
	.loc 17 905 0
	fmuls 0,31,0
	fmuls 12,31,12
.LBE4641:
.LBE4716:
	.loc 4 2513 0
	lwz 11,0(9)
.LBB4717:
.LBB4642:
.LBB4633:
.LBB4634:
	.loc 17 868 0
	stfs 11,92(1)
.LBE4634:
.LBE4633:
.LBE4642:
.LBE4717:
	.loc 4 2513 0
	lwz 15,160(11)
.LVL739:
.LBB4718:
.LBB4643:
.LBB4637:
.LBB4635:
	.loc 17 867 0
	stfs 12,88(1)
.LBE4635:
.LBE4637:
.LBE4643:
.LBE4718:
	.loc 4 2513 0
	stw 9,268(1)
.LBB4719:
.LBB4644:
.LBB4638:
.LBB4636:
	.loc 17 869 0
	stfs 13,96(1)
	.loc 17 870 0
	stfs 0,100(1)
.LBE4636:
.LBE4638:
.LBE4644:
.LBE4719:
	.loc 4 2513 0
	bl _ZNK8idEntity10GetPhysicsEv
.LVL740:
	lwz 11,0(3)
	li 4,-1
	lwz 0,60(11)
	mtctr 0
	bctrl
.LVL741:
.LBB4720:
.LBB4721:
	.loc 18 212 0
	lfs 9,16(3)
	lfs 10,20(3)
	lfs 0,0(3)
	lfs 12,4(3)
	lfs 13,8(3)
	lfs 11,12(3)
	fadds 12,9,12
	fadds 13,10,13
.LBE4721:
.LBE4720:
	.loc 4 2513 0
	mr 3,19
.LVL742:
.LBB4725:
.LBB4724:
	.loc 18 212 0
	fadds 11,11,0
	lfs 0,0(25)
	fmuls 12,12,0
.LVL743:
	fmuls 13,13,0
.LVL744:
	fmuls 0,11,0
.LBB4722:
.LBB4723:
	.loc 17 397 0
	stfs 12,16(1)
	.loc 17 398 0
	stfs 13,20(1)
	.loc 17 396 0
	stfs 0,12(1)
.LBE4723:
.LBE4722:
.LBE4724:
.LBE4725:
	.loc 4 2513 0
	bl _ZNK8idEntity10GetPhysicsEv
.LVL745:
	lwz 11,0(3)
	li 4,0
	lwz 0,132(11)
	mtctr 0
	bctrl
	lwz 9,268(1)
	mr 6,3
	addi 5,1,12
	li 7,10
	li 8,0
	mtctr 15
	mr 3,9
	addi 4,1,88
	bctrl
.LBB4726:
.LBB4701:
	.loc 17 905 0
	la 9,colorGreen@l(16)
	lfs 12,4(9)
.LBE4701:
.LBE4726:
	.loc 4 2514 0
	mr 3,19
.LBB4727:
.LBB4702:
	.loc 17 905 0
	lfs 13,8(9)
	lfs 0,12(9)
	fmuls 12,31,12
	lfs 11,colorGreen@l(16)
	fmuls 13,31,13
.LBE4702:
.LBE4727:
	.loc 4 2514 0
	lwz 15,0(26)
.LBB4728:
.LBB4703:
	.loc 17 905 0
	fmuls 0,31,0
	fmuls 11,31,11
.LBE4703:
.LBE4728:
	.loc 4 2514 0
	lwz 9,0(15)
.LBB4729:
.LBB4704:
.LBB4697:
.LBB4698:
	.loc 17 868 0
	stfs 12,76(1)
.LBE4698:
.LBE4697:
.LBE4704:
.LBE4729:
	.loc 4 2514 0
	lwz 19,176(9)
.LVL746:
.LBB4730:
.LBB4705:
.LBB4700:
.LBB4699:
	.loc 17 867 0
	stfs 11,72(1)
	.loc 17 869 0
	stfs 13,80(1)
	.loc 17 870 0
	stfs 0,84(1)
.LBE4699:
.LBE4700:
.LBE4705:
.LBE4730:
	.loc 4 2514 0
	bl _ZNK8idEntity10GetPhysicsEv
.LVL747:
	lwz 9,0(3)
	li 4,0
	lwz 0,132(9)
	mtctr 0
	bctrl
	addi 4,1,72
	mr 6,3
	addi 5,1,192
	mr 3,15
	li 7,0
	mtctr 19
	bctrl
	lwz 0,172(31)
	b .L463
.LVL748:
.L467:
	.loc 4 2502 0
	lis 9,colorOrange@ha
	la 9,colorOrange@l(9)
	b .L459
.LVL749:
.L484:
.LBB4731:
.LBB4615:
.LBB4614:
	.loc 18 362 0
	lfs 0,0(3)
	fcmpu 7,16,0
	blt- 7,.L460
.LVL750:
	lfs 0,4(3)
	fcmpu 7,15,0
	blt- 7,.L460
.LVL751:
	lfs 0,8(3)
	fcmpu 7,14,0
	blt- 7,.L460
.LBE4614:
.LBE4615:
.LBB4616:
	.loc 4 2504 0
	mr 3,31
.LVL752:
.LBB4467:
.LBB4468:
	.loc 17 905 0
	lis 16,colorWhite@ha
.LBE4468:
.LBE4467:
	.loc 4 2504 0
	bl _ZNK8idEntity10GetPhysicsEv
	li 4,-1
	lwz 9,0(3)
.LBB4483:
.LBB4473:
	.loc 17 905 0
	la 20,colorWhite@l(16)
.LBE4473:
.LBE4483:
	.loc 4 2504 0
	lwz 0,60(9)
	mtctr 0
	bctrl
.LVL753:
.LBB4484:
.LBB4474:
	.loc 17 905 0
	lfs 11,colorWhite@l(16)
.LBE4474:
.LBE4484:
.LBB4485:
.LBB4486:
	.loc 18 212 0
	lfs 12,0(3)
.LBE4486:
.LBE4485:
	.loc 4 2505 0
	lis 11,.LC38@ha
.LBB4505:
.LBB4493:
	.loc 18 212 0
	lfs 13,4(3)
.LBE4493:
.LBE4505:
.LBB4506:
.LBB4475:
	.loc 17 905 0
	fmuls 11,31,11
.LBE4475:
.LBE4506:
.LBB4507:
.LBB4494:
	.loc 18 212 0
	lfs 0,8(3)
.LBE4494:
.LBE4507:
	.loc 4 2505 0
	addi 5,1,36
.LBB4508:
.LBB4495:
	.loc 18 212 0
	lfs 8,12(3)
.LBE4495:
.LBE4508:
	.loc 4 2505 0
	addi 6,1,136
.LBB4509:
.LBB4496:
	.loc 18 212 0
	lfs 9,16(3)
.LBE4496:
.LBE4509:
	.loc 4 2505 0
	addi 7,1,216
.LVL754:
.LBB4510:
.LBB4497:
	.loc 18 212 0
	lfs 10,20(3)
	fadds 8,8,12
	fadds 9,9,13
.LBE4497:
.LBE4510:
	.loc 4 2505 0
	lwz 3,gameRenderWorld@l(18)
.LVL755:
.LBB4511:
.LBB4498:
	.loc 18 212 0
	fadds 10,10,0
	lfs 0,.LC35@l(27)
.LBE4498:
.LBE4511:
.LBB4512:
.LBB4476:
	.loc 17 905 0
	lfs 12,4(20)
.LBE4476:
.LBE4512:
	.loc 4 2505 0
	li 8,1
.LBB4513:
.LBB4499:
	.loc 18 212 0
	fmuls 8,8,0
.LVL756:
.LBE4499:
.LBE4513:
.LBB4514:
.LBB4477:
	.loc 17 905 0
	lfs 13,8(20)
.LBE4477:
.LBE4514:
.LBB4515:
.LBB4500:
	.loc 18 212 0
	fmuls 9,9,0
.LVL757:
.LBE4500:
.LBE4515:
	.loc 4 2505 0
	lfs 22,.LC38@l(11)
.LBB4516:
.LBB4501:
	.loc 18 212 0
	fmuls 10,10,0
.LVL758:
.LBE4501:
.LBE4516:
.LBB4517:
.LBB4478:
	.loc 17 905 0
	lfs 0,12(20)
.LBE4478:
.LBE4517:
.LBB4518:
.LBB4502:
.LBB4487:
.LBB4488:
	.loc 17 396 0
	stfs 8,48(1)
.LBE4488:
.LBE4487:
.LBE4502:
.LBE4518:
.LBB4519:
.LBB4479:
	.loc 17 905 0
	fmuls 12,31,12
.LBE4479:
.LBE4519:
.LBB4520:
.LBB4503:
.LBB4491:
.LBB4489:
	.loc 17 397 0
	stfs 9,52(1)
.LBE4489:
.LBE4491:
.LBE4503:
.LBE4520:
.LBB4521:
.LBB4522:
	.loc 17 431 0
	fsubs 8,8,25
.LVL759:
.LBE4522:
.LBE4521:
.LBB4533:
.LBB4504:
.LBB4492:
.LBB4490:
	.loc 17 398 0
	stfs 10,56(1)
.LBE4490:
.LBE4492:
.LBE4504:
.LBE4533:
.LBB4534:
.LBB4529:
	.loc 17 431 0
	fsubs 9,9,24
.LVL760:
	fsubs 10,10,23
.LVL761:
.LBE4529:
.LBE4534:
	.loc 4 4268 0
	lwz 4,72(31)
.LVL762:
	.loc 4 2505 0
	lwz 9,0(3)
.LBB4535:
.LBB4480:
	.loc 17 905 0
	fmuls 13,31,13
	fmuls 0,31,0
.LBE4480:
.LBE4535:
.LBB4536:
.LBB4530:
.LBB4523:
.LBB4524:
	.loc 17 396 0
	stfs 8,36(1)
.LBE4524:
.LBE4523:
.LBE4530:
.LBE4536:
	.loc 4 2505 0
	lwz 0,204(9)
	fmr 1,22
.LBB4537:
.LBB4531:
.LBB4527:
.LBB4525:
	.loc 17 397 0
	stfs 9,40(1)
.LBE4525:
.LBE4527:
.LBE4531:
.LBE4537:
	.loc 4 2505 0
	li 10,0
.LBB4538:
.LBB4532:
.LBB4528:
.LBB4526:
	.loc 17 398 0
	stfs 10,44(1)
.LVL763:
.LBE4526:
.LBE4528:
.LBE4532:
.LBE4538:
	.loc 4 2505 0
	mtctr 0
.LBB4539:
.LBB4481:
.LBB4469:
.LBB4470:
	.loc 17 867 0
	stfs 11,136(1)
.LBE4470:
.LBE4469:
.LBE4481:
.LBE4539:
	.loc 4 2505 0
	li 9,0
.LBB4540:
.LBB4482:
.LBB4472:
.LBB4471:
	.loc 17 868 0
	stfs 12,140(1)
	.loc 17 869 0
	stfs 13,144(1)
	.loc 17 870 0
	stfs 0,148(1)
.LBE4471:
.LBE4472:
.LBE4482:
.LBE4540:
	.loc 4 2505 0
	bctrl
.LVL764:
	.loc 4 2506 0
	lwz 15,gameRenderWorld@l(18)
	mr 3,31
	lwz 9,0(15)
	lwz 19,204(9)
	bl _ZNK8idEntity16GetEntityDefNameEv
.LBB4541:
.LBB4542:
	.loc 17 905 0
	lfs 12,4(20)
.LBE4542:
.LBE4541:
	.loc 4 2506 0
	addi 5,1,48
.LBB4558:
.LBB4551:
	.loc 17 905 0
	lfs 13,8(20)
.LBE4551:
.LBE4558:
	.loc 4 2506 0
	fmr 1,22
.LBB4559:
.LBB4552:
	.loc 17 905 0
	lfs 0,12(20)
	fmuls 12,31,12
	lfs 11,colorWhite@l(16)
	fmuls 13,31,13
	fmuls 0,31,0
.LBE4552:
.LBE4559:
	.loc 4 2506 0
	addi 6,1,120
.LBB4560:
.LBB4553:
	.loc 17 905 0
	fmuls 11,31,11
.LBE4553:
.LBE4560:
	.loc 4 2506 0
	addi 7,1,216
.LVL765:
.LBB4561:
.LBB4554:
.LBB4543:
.LBB4544:
	.loc 17 868 0
	stfs 12,124(1)
.LBE4544:
.LBE4543:
.LBE4554:
.LBE4561:
	.loc 4 2506 0
	mtctr 19
.LBB4562:
.LBB4555:
.LBB4548:
.LBB4545:
	.loc 17 869 0
	stfs 13,128(1)
.LBE4545:
.LBE4548:
.LBE4555:
.LBE4562:
	.loc 4 2506 0
	mr 4,3
.LVL766:
.LBB4563:
.LBB4556:
.LBB4549:
.LBB4546:
	.loc 17 867 0
	stfs 11,120(1)
.LBE4546:
.LBE4549:
.LBE4556:
.LBE4563:
	.loc 4 2506 0
	mr 3,15
.LBB4564:
.LBB4557:
.LBB4550:
.LBB4547:
	.loc 17 870 0
	stfs 0,132(1)
.LBE4547:
.LBE4550:
.LBE4557:
.LBE4564:
	.loc 4 2506 0
	li 8,1
	li 10,0
	li 9,0
	bctrl
.LVL767:
	.loc 4 2507 0
	lwz 15,gameRenderWorld@l(18)
	lwz 4,4(31)
	mr 3,14
	lwz 9,0(15)
	lwz 19,204(9)
	crxor 6,6,6
	bl _Z2vaPKcz
.LBB4565:
.LBB4566:
	.loc 17 905 0
	lfs 12,4(20)
.LBE4566:
.LBE4565:
	.loc 4 2507 0
	mr 4,3
.LVL768:
.LBB4583:
.LBB4575:
	.loc 17 905 0
	lfs 13,8(20)
.LBE4575:
.LBE4583:
	.loc 4 2507 0
	mr 3,15
.LBB4584:
.LBB4576:
	.loc 17 905 0
	lfs 0,12(20)
	fmuls 12,31,12
	lfs 11,colorWhite@l(16)
	fmuls 13,31,13
.LBE4576:
.LBE4584:
.LBB4585:
.LBB4586:
	.loc 17 452 0
	lfs 9,52(1)
.LBE4586:
.LBE4585:
.LBB4599:
.LBB4577:
	.loc 17 905 0
	fmuls 0,31,0
.LBE4577:
.LBE4599:
.LBB4600:
.LBB4593:
	.loc 17 452 0
	lfs 10,56(1)
.LBE4593:
.LBE4600:
.LBB4601:
.LBB4578:
	.loc 17 905 0
	fmuls 11,31,11
.LBE4578:
.LBE4601:
.LBB4602:
.LBB4594:
	.loc 17 452 0
	lfs 8,48(1)
	fadds 9,24,9
	fadds 10,23,10
.LVL769:
.LBE4594:
.LBE4602:
.LBB4603:
.LBB4579:
.LBB4567:
.LBB4568:
	.loc 17 868 0
	stfs 12,108(1)
.LBE4568:
.LBE4567:
.LBE4579:
.LBE4603:
.LBB4604:
.LBB4595:
	.loc 17 452 0
	fadds 8,25,8
.LBE4595:
.LBE4604:
.LBB4605:
.LBB4580:
.LBB4572:
.LBB4569:
	.loc 17 867 0
	stfs 11,104(1)
.LBE4569:
.LBE4572:
.LBE4580:
.LBE4605:
.LBB4606:
.LBB4596:
.LBB4587:
.LBB4588:
	.loc 17 397 0
	stfs 9,28(1)
.LBE4588:
.LBE4587:
.LBE4596:
.LBE4606:
	.loc 4 2507 0
	addi 5,1,24
.LBB4607:
.LBB4597:
.LBB4591:
.LBB4589:
	.loc 17 398 0
	stfs 10,32(1)
.LVL770:
.LBE4589:
.LBE4591:
.LBE4597:
.LBE4607:
	.loc 4 2507 0
	fmr 1,22
.LBB4608:
.LBB4598:
.LBB4592:
.LBB4590:
	.loc 17 396 0
	stfs 8,24(1)
.LBE4590:
.LBE4592:
.LBE4598:
.LBE4608:
	.loc 4 2507 0
	addi 6,1,104
.LBB4609:
.LBB4581:
.LBB4573:
.LBB4570:
	.loc 17 869 0
	stfs 13,112(1)
.LBE4570:
.LBE4573:
.LBE4581:
.LBE4609:
	.loc 4 2507 0
	addi 7,1,216
.LVL771:
.LBB4610:
.LBB4582:
.LBB4574:
.LBB4571:
	.loc 17 870 0
	stfs 0,116(1)
.LBE4571:
.LBE4574:
.LBE4582:
.LBE4610:
	.loc 4 2507 0
	li 8,1
	li 9,0
	li 10,0
	mtctr 19
	bctrl
.LVL772:
	b .L460
.LBE4616:
.LBE4731:
.LBE4740:
.LBE4771:
.LBE4779:
	.cfi_endproc
.LFE2898:
	.size	_ZN11idGameLocal11ShowTargetsEv, .-_ZN11idGameLocal11ShowTargetsEv
	.align 2
	.globl _ZNK11idGameLocal6NumAASEv
	.type	_ZNK11idGameLocal6NumAASEv, @function
_ZNK11idGameLocal6NumAASEv:
.LFB2906:
	.loc 4 2665 0
	.cfi_startproc
.LVL773:
	.loc 4 4268 0
	addis 3,3,0x25
.LVL774:
	.loc 4 2667 0
	lwz 3,2124(3)
.LVL775:
	blr
	.cfi_endproc
.LFE2906:
	.size	_ZNK11idGameLocal6NumAASEv, .-_ZNK11idGameLocal6NumAASEv
	.align 2
	.globl _ZNK11idGameLocal6GetAASEi
	.type	_ZNK11idGameLocal6GetAASEi, @function
_ZNK11idGameLocal6GetAASEi:
.LFB2907:
	.loc 4 2674 0
	.cfi_startproc
.LVL776:
	.loc 4 2675 0
	cmpwi 0,4,0
	.loc 4 2674 0
	mflr 0
	stwu 1,-24(1)
.LCFI163:
	.cfi_def_cfa_offset 24
	.cfi_register 65, 0
	stw 31,20(1)
	.loc 4 2680 0
	li 31,0
	.cfi_offset 31, -4
	.loc 4 2674 0
	stw 0,28(1)
	stw 29,12(1)
	stw 30,16(1)
	.loc 4 2675 0
	blt- 0,.L487
	.cfi_offset 30, -8
	.cfi_offset 29, -12
	.cfi_offset 65, 4
	.loc 4 4268 0 discriminator 1
	addis 30,3,0x25
	.loc 4 2675 0 discriminator 1
	lwz 0,2124(30)
	cmpw 7,4,0
	bge- 7,.L487
.LVL777:
	.loc 4 2676 0 discriminator 4
	lwz 9,2136(30)
.LBB4780:
.LBB4781:
	.loc 8 573 0 discriminator 4
	slwi 29,4,2
.LBE4781:
.LBE4780:
	.loc 4 2676 0 discriminator 4
	lwzx 3,9,29
.LVL778:
	cmpwi 7,3,0
	beq- 7,.L487
	.loc 4 2676 0 is_stmt 0 discriminator 1
	lwz 9,0(3)
	lwz 0,20(9)
	mtctr 0
	bctrl
.LVL779:
	cmpwi 7,3,0
	beq- 7,.L487
	.loc 4 2677 0 is_stmt 1 discriminator 4
	lwz 9,2136(30)
	lwzx 31,9,29
.LVL780:
.L487:
	.loc 4 2681 0
	lwz 0,28(1)
	mr 3,31
	lwz 29,12(1)
	mtlr 0
	lwz 30,16(1)
	lwz 31,20(1)
	addi 1,1,24
.LCFI164:
	.cfi_def_cfa_offset 0
	.cfi_restore 31
	.cfi_restore 30
	.cfi_restore 29
	blr
	.cfi_endproc
.LFE2907:
	.size	_ZNK11idGameLocal6GetAASEi, .-_ZNK11idGameLocal6GetAASEi
	.align 2
	.globl _ZN11idGameLocal12RunDebugInfoEv
	.type	_ZN11idGameLocal12RunDebugInfoEv, @function
_ZN11idGameLocal12RunDebugInfoEv:
.LFB2899:
	.loc 4 2525 0
	.cfi_startproc
.LVL781:
	mflr 0
	stwu 1,-368(1)
.LCFI165:
	.cfi_def_cfa_offset 368
	.cfi_register 65, 0
	stw 26,208(1)
	stw 0,372(1)
	stw 27,212(1)
	mr 27,3
	.cfi_offset 27, -156
	.cfi_offset 65, 4
	.cfi_offset 26, -160
	stfd 15,232(1)
	stfd 16,240(1)
	stfd 17,248(1)
	stfd 18,256(1)
	stfd 19,264(1)
	stfd 20,272(1)
	stfd 21,280(1)
	stfd 22,288(1)
	stfd 23,296(1)
	stfd 24,304(1)
	stfd 25,312(1)
	stfd 26,320(1)
	stfd 27,328(1)
	stfd 28,336(1)
	stfd 29,344(1)
	stfd 30,352(1)
	stfd 31,360(1)
	stw 16,168(1)
	stw 17,172(1)
	stw 18,176(1)
	stw 19,180(1)
	stw 20,184(1)
	stw 21,188(1)
	stw 22,192(1)
	stw 23,196(1)
	stw 24,200(1)
	stw 25,204(1)
	stw 28,216(1)
	stw 29,220(1)
	stw 30,224(1)
	stw 31,228(1)
.LBB5051:
	.loc 4 2529 0
	.cfi_offset 31, -140
	.cfi_offset 30, -144
	.cfi_offset 29, -148
	.cfi_offset 28, -152
	.cfi_offset 25, -164
	.cfi_offset 24, -168
	.cfi_offset 23, -172
	.cfi_offset 22, -176
	.cfi_offset 21, -180
	.cfi_offset 20, -184
	.cfi_offset 19, -188
	.cfi_offset 18, -192
	.cfi_offset 17, -196
	.cfi_offset 16, -200
	.cfi_offset 63, -8
	.cfi_offset 62, -16
	.cfi_offset 61, -24
	.cfi_offset 60, -32
	.cfi_offset 59, -40
	.cfi_offset 58, -48
	.cfi_offset 57, -56
	.cfi_offset 56, -64
	.cfi_offset 55, -72
	.cfi_offset 54, -80
	.cfi_offset 53, -88
	.cfi_offset 52, -96
	.cfi_offset 51, -104
	.cfi_offset 50, -112
	.cfi_offset 49, -120
	.cfi_offset 48, -128
	.cfi_offset 47, -136
	bl _ZNK11idGameLocal14GetLocalPlayerEv
.LVL782:
	.loc 4 2530 0
	mr. 26,3
	beq- 0,.L492
	.loc 4 2534 0
	bl _ZNK8idEntity10GetPhysicsEv
.LVL783:
	li 4,0
	lwz 9,0(3)
	lwz 0,132(9)
	mtctr 0
	bctrl
.LBB5052:
.LBB5053:
.LBB5054:
	.loc 4 2536 0
	lis 9,g_showEntityInfo+44@ha
	.loc 7 142 0
	lwz 9,g_showEntityInfo+44@l(9)
.LBE5054:
.LBE5053:
.LBE5052:
	.loc 4 2534 0
	mr 24,3
.LVL784:
.LBB5218:
	.loc 4 2536 0
	lwz 0,36(9)
	cmpwi 7,0,0
	bne- 7,.L550
.LVL785:
.L494:
.LBE5218:
.LBB5219:
.LBB5220:
.LBB5221:
	.loc 4 2578 0
	lis 9,g_showActiveEntities+44@ha
	.loc 7 142 0
	lwz 9,g_showActiveEntities+44@l(9)
.LBE5221:
.LBE5220:
	.loc 4 2578 0
	lwz 0,36(9)
	cmpwi 7,0,0
	beq- 7,.L510
	.loc 4 4268 0
	addis 11,27,0x1
	lwz 9,-32176(11)
	lwz 0,-32180(11)
.LBB5222:
.LBB5223:
.LBB5224:
	.loc 9 268 0
	cmpwi 7,9,0
	beq- 7,.L510
	cmpw 7,0,9
	beq- 7,.L510
	.loc 9 271 0
	lwz 30,12(9)
.LVL786:
.LBE5224:
.LBE5223:
	.loc 4 2579 0
	cmpwi 7,30,0
	beq- 7,.L510
.LBB5225:
	.loc 4 2581 0
	lis 9,.LC2@ha
	lis 29,gameRenderWorld@ha
	.loc 4 2588 0
	lis 23,colorGreen@ha
	.loc 4 2586 0
	lis 25,colorYellow@ha
	.loc 4 2581 0
	lfs 31,.LC2@l(9)
	addi 31,1,80
	la 29,gameRenderWorld@l(29)
	.loc 4 2582 0
	lis 21,.LC41@ha
	.loc 4 2583 0
	lis 22,.LC40@ha
	.loc 4 2588 0
	la 23,colorGreen@l(23)
	.loc 4 2586 0
	la 25,colorYellow@l(25)
.LVL787:
.L516:
	.loc 4 2580 0
	mr 3,30
	bl _ZNK8idEntity10GetPhysicsEv
	li 4,-1
	lwz 9,0(3)
	lwz 0,56(9)
	mtctr 0
	bctrl
	lwz 9,8(3)
	lwz 0,12(3)
	lwz 10,0(3)
	lwz 11,4(3)
	stw 10,80(1)
	stw 11,84(1)
	stw 9,88(1)
	stw 0,92(1)
	lwz 9,16(3)
	lwz 0,20(3)
	stw 9,96(1)
	stw 0,100(1)
.LVL788:
.LBB5226:
.LBB5227:
.LBB5228:
.LBB5229:
	.loc 17 402 0
	lfs 0,0(31)
.LVL789:
.LBE5229:
.LBE5228:
.LBB5230:
.LBB5231:
	lfs 13,12(31)
.LBE5231:
.LBE5230:
	.loc 18 216 0
	fcmpu 7,0,13
	cror 30,29,30
	beq- 7,.L511
.LVL790:
.LBB5232:
.LBB5233:
	.loc 17 402 0
	lfs 12,4(31)
.LVL791:
.LBE5233:
.LBE5232:
.LBB5234:
.LBB5235:
	lfs 11,16(31)
.LBE5235:
.LBE5234:
	.loc 18 216 0
	fcmpu 7,12,11
	cror 30,29,30
	beq- 7,.L511
.LVL792:
.LBB5236:
.LBB5237:
	.loc 17 402 0
	lfs 10,8(31)
.LVL793:
.LBE5237:
.LBE5236:
.LBB5238:
.LBB5239:
	lfs 9,20(31)
.LBE5239:
.LBE5238:
	.loc 18 216 0
	fcmpu 7,10,9
	cror 30,29,30
	beq- 7,.L511
.LVL794:
.LBB5240:
.LBB5241:
	.loc 18 219 0
	fsubs 0,13,0
	fsubs 12,11,12
	fsubs 9,9,10
	fmuls 10,0,12
	fmuls 10,10,9
.LBE5241:
.LBE5240:
.LBE5227:
.LBE5226:
	.loc 4 2581 0
	fcmpu 7,10,31
	cror 30,28,30
	beq- 7,.L511
	.loc 4 2586 0
	lwz 20,0(29)
	mr 3,30
	.loc 4 2585 0
	lwz 0,192(30)
	.loc 4 2586 0
	lwz 9,0(20)
	lwz 28,176(9)
	.loc 4 2585 0
	andis. 9,0,64
	beq- 0,.L514
.LVL795:
.L561:
	.loc 4 2586 0
	bl _ZNK8idEntity10GetPhysicsEv
	li 4,0
	lwz 9,0(3)
	lwz 0,132(9)
	mtctr 0
	bctrl
	mr 4,25
	mr 6,3
	mr 5,31
	mr 3,20
	li 7,0
	mtctr 28
	bctrl
.L515:
	.loc 4 4268 0
	lwz 9,32(30)
	lwz 0,28(30)
.LBE5225:
.LBB5242:
.LBB5243:
	.loc 9 268 0
	cmpwi 7,9,0
	beq- 7,.L510
	cmpw 7,0,9
	beq- 7,.L510
	.loc 9 271 0
	lwz 30,12(9)
.LVL796:
.LBE5243:
.LBE5242:
	.loc 4 2579 0
	cmpwi 7,30,0
	bne+ 7,.L516
.LVL797:
.L510:
.LBE5222:
.LBE5219:
.LBB5246:
.LBB5247:
	.loc 4 2593 0
	lis 9,g_showTargets+44@ha
	.loc 7 142 0
	lwz 9,g_showTargets+44@l(9)
.LBE5247:
.LBE5246:
	.loc 4 2593 0
	lwz 0,36(9)
	cmpwi 7,0,0
	bne- 7,.L551
.LBB5248:
.LBB5249:
	.loc 4 2597 0
	lis 9,g_showTriggers+44@ha
	.loc 7 142 0
	lwz 9,g_showTriggers+44@l(9)
.LBE5249:
.LBE5248:
	.loc 4 2597 0
	lwz 0,36(9)
	cmpwi 7,0,0
	bne- 7,.L552
.L518:
.LBB5251:
.LBB5252:
	.loc 4 2601 0
	lis 9,ai_showCombatNodes+44@ha
	.loc 7 142 0
	lwz 9,ai_showCombatNodes+44@l(9)
.LBE5252:
.LBE5251:
	.loc 4 2601 0
	lwz 0,36(9)
	cmpwi 7,0,0
	bne- 7,.L553
.L519:
.LBB5254:
.LBB5255:
	.loc 4 2605 0
	lis 9,ai_showPaths+44@ha
	.loc 7 142 0
	lwz 9,ai_showPaths+44@l(9)
.LBE5255:
.LBE5254:
	.loc 4 2605 0
	lwz 0,36(9)
	cmpwi 7,0,0
	bne- 7,.L554
.L520:
.LBB5257:
.LBB5258:
	.loc 4 2609 0
	lis 9,g_editEntityMode+44@ha
	.loc 7 142 0
	lwz 9,g_editEntityMode+44@l(9)
.LBE5258:
.LBE5257:
	.loc 4 2609 0
	lwz 0,36(9)
	cmpwi 7,0,0
	bne- 7,.L555
.L521:
.LBB5260:
.LBB5261:
	.loc 4 2613 0
	lis 9,g_showCollisionWorld+44@ha
	lis 31,collisionModelManager@ha
	.loc 7 142 0
	lwz 9,g_showCollisionWorld+44@l(9)
.LBE5261:
.LBE5260:
	.loc 4 2613 0
	lwz 0,36(9)
	cmpwi 7,0,0
	bne- 7,.L556
.L522:
.LBB5262:
.LBB5263:
	.loc 4 2617 0
	lis 9,g_showCollisionModels+44@ha
	.loc 7 142 0
	lwz 9,g_showCollisionModels+44@l(9)
.LBE5263:
.LBE5262:
	.loc 4 2617 0
	lwz 0,36(9)
	cmpwi 7,0,0
	bne- 7,.L557
.LBB5264:
.LBB5265:
	.loc 4 2621 0
	lis 9,g_showCollisionTraces+44@ha
	.loc 7 142 0
	lwz 9,g_showCollisionTraces+44@l(9)
.LBE5265:
.LBE5264:
	.loc 4 2621 0
	lwz 0,36(9)
	cmpwi 7,0,0
	bne- 7,.L558
.L525:
.LBB5267:
.LBB5268:
	.loc 4 2625 0
	lis 9,g_showPVS+44@ha
	.loc 7 143 0
	lwz 9,g_showPVS+44@l(9)
	lwz 5,36(9)
.LBE5268:
.LBE5267:
	.loc 4 2625 0
	cmpwi 7,5,0
	beq- 7,.L526
	.loc 4 2626 0
	xori 5,5,2
	addis 3,27,0x25
	cntlzw 5,5
	addi 3,3,1236
	mr 4,24
	srwi 5,5,5
	bl _ZNK5idPVS7DrawPVSERK6idVec39pvsType_t
.L526:
.LBB5269:
.LBB5270:
.LBB5271:
	.loc 4 2629 0
	lis 9,aas_test+44@ha
	.loc 7 143 0
	lwz 9,aas_test+44@l(9)
	lwz 4,36(9)
.LBE5271:
.LBE5270:
	.loc 4 2629 0
	cmpwi 7,4,0
	blt- 7,.L527
.LBB5272:
	.loc 4 2630 0
	mr 3,27
	bl _ZNK11idGameLocal6GetAASEi
.LVL798:
.LBB5273:
	.loc 4 2631 0
	mr. 30,3
	beq- 0,.L527
.LBB5274:
	.loc 4 2632 0
	lwz 9,0(30)
	mr 4,24
	lwz 0,16(9)
	mtctr 0
	bctrl
.LVL799:
.LBB5275:
.LBB5276:
.LBB5277:
	.loc 4 2633 0
	lis 9,ai_testPredictPath+44@ha
	.loc 7 142 0
	lwz 9,ai_testPredictPath+44@l(9)
.LBE5277:
.LBE5276:
	.loc 4 2633 0
	lwz 0,36(9)
	cmpwi 7,0,0
	bne- 7,.L559
.LVL800:
.L527:
.LBE5275:
.LBE5274:
.LBE5273:
.LBE5272:
.LBE5269:
.LBB5283:
.LBB5284:
.LBB5285:
	.loc 4 2645 0
	lis 9,ai_showObstacleAvoidance+44@ha
	.loc 7 143 0
	lwz 9,ai_showObstacleAvoidance+44@l(9)
.LBE5285:
.LBE5284:
	.loc 4 2645 0
	lwz 0,36(9)
	cmpwi 7,0,2
	beq- 7,.L560
.L528:
.LBE5283:
	.loc 4 2657 0
	lwz 31,collisionModelManager@l(31)
	addi 3,1,8
	mr 4,26
	lwz 9,0(31)
	lwz 30,72(9)
	bl _ZNK8idPlayer14GetEyePositionEv
	mr 3,31
	addi 4,1,8
	mtctr 30
	bctrl
.LVL801:
.L492:
.LBE5051:
	.loc 4 2658 0
	lwz 0,372(1)
	lwz 16,168(1)
	mtlr 0
	lwz 17,172(1)
	lwz 18,176(1)
	lwz 19,180(1)
	lwz 20,184(1)
	lwz 21,188(1)
	lwz 22,192(1)
	lwz 23,196(1)
	lwz 24,200(1)
	lwz 25,204(1)
	lwz 26,208(1)
.LVL802:
	lwz 27,212(1)
.LVL803:
	lwz 28,216(1)
	lwz 29,220(1)
	lwz 30,224(1)
	lwz 31,228(1)
	lfd 15,232(1)
	lfd 16,240(1)
	lfd 17,248(1)
	lfd 18,256(1)
	lfd 19,264(1)
	lfd 20,272(1)
	lfd 21,280(1)
	lfd 22,288(1)
	lfd 23,296(1)
	lfd 24,304(1)
	lfd 25,312(1)
	lfd 26,320(1)
	lfd 27,328(1)
	lfd 28,336(1)
	lfd 29,344(1)
	lfd 30,352(1)
	lfd 31,360(1)
	addi 1,1,368
	.cfi_remember_state
.LCFI166:
	.cfi_def_cfa_offset 0
	.cfi_restore 63
	.cfi_restore 62
	.cfi_restore 61
	.cfi_restore 60
	.cfi_restore 59
	.cfi_restore 58
	.cfi_restore 57
	.cfi_restore 56
	.cfi_restore 55
	.cfi_restore 54
	.cfi_restore 53
	.cfi_restore 52
	.cfi_restore 51
	.cfi_restore 50
	.cfi_restore 49
	.cfi_restore 48
	.cfi_restore 47
	.cfi_restore 31
	.cfi_restore 30
	.cfi_restore 29
	.cfi_restore 28
	.cfi_restore 27
	.cfi_restore 26
	.cfi_restore 25
	.cfi_restore 24
	.cfi_restore 23
	.cfi_restore 22
	.cfi_restore 21
	.cfi_restore 20
	.cfi_restore 19
	.cfi_restore 18
	.cfi_restore 17
	.cfi_restore 16
	blr
.LVL804:
.L511:
.LCFI167:
	.cfi_restore_state
.LBB5310:
.LBB5295:
.LBB5245:
.LBB5244:
	.loc 4 2582 0
	lwz 9,.LC41@l(21)
	.loc 4 2586 0
	mr 3,30
	.loc 4 2583 0
	lwz 0,.LC40@l(22)
	.loc 4 2582 0
	stw 9,88(1)
	stw 9,84(1)
	stw 9,80(1)
.LVL805:
	.loc 4 2583 0
	stw 0,100(1)
	stw 0,96(1)
	stw 0,92(1)
	.loc 4 2586 0
	lwz 20,0(29)
	.loc 4 2585 0
	lwz 0,192(30)
	.loc 4 2586 0
	lwz 9,0(20)
	lwz 28,176(9)
	.loc 4 2585 0
	andis. 9,0,64
	bne- 0,.L561
.LVL806:
.L514:
	.loc 4 2588 0
	bl _ZNK8idEntity10GetPhysicsEv
	li 4,0
	lwz 9,0(3)
	lwz 0,132(9)
	mtctr 0
	bctrl
	mr 4,23
	mr 6,3
	mr 5,31
	mr 3,20
	li 7,0
	mtctr 28
	bctrl
	b .L515
.LVL807:
.L557:
.LBE5244:
.LBE5245:
.LBE5295:
	.loc 4 2618 0
	addi 3,1,20
	mr 4,26
	bl _ZNK8idPlayer14GetEyePositionEv
.LBB5296:
.LBB5297:
	lis 9,pm_thirdPerson+44@ha
	.loc 7 142 0
	lwz 11,pm_thirdPerson+44@l(9)
.LBE5297:
.LBE5296:
.LBB5298:
.LBB5299:
	.loc 4 2618 0
	lis 9,g_maxShowDistance+44@ha
	.loc 7 144 0
	lwz 9,g_maxShowDistance+44@l(9)
.LBE5299:
.LBE5298:
	.loc 4 2618 0
	addis 30,27,0x23
	lwz 5,36(11)
	addi 30,30,17272
	lfs 1,40(9)
	mr 3,30
	addic 5,5,-1
	subfe 5,5,5
	addi 4,1,20
	and 5,26,5
	bl _ZN6idClip14DrawClipModelsERK6idVec3fPK8idEntity
.LBB5300:
.LBB5266:
	.loc 4 2621 0
	lis 9,g_showCollisionTraces+44@ha
	.loc 7 142 0
	lwz 9,g_showCollisionTraces+44@l(9)
.LBE5266:
.LBE5300:
	.loc 4 2621 0
	lwz 0,36(9)
	cmpwi 7,0,0
	beq+ 7,.L525
.L558:
	.loc 4 2622 0
	addis 3,27,0x23
	addi 3,3,17272
	bl _ZN6idClip15PrintStatisticsEv
	b .L525
.L556:
	.loc 4 2614 0
	lwz 3,collisionModelManager@l(31)
	lis 5,vec3_origin@ha
	lis 6,mat3_identity@ha
	li 4,0
	lwz 9,0(3)
	la 5,vec3_origin@l(5)
	la 6,mat3_identity@l(6)
	mr 7,24
	lwz 0,76(9)
	lis 9,.LC33@ha
	lfs 1,.LC33@l(9)
	mtctr 0
	bctrl
	b .L522
.L551:
	.loc 4 2594 0
	mr 3,27
	bl _ZN11idGameLocal11ShowTargetsEv
.LBB5301:
.LBB5250:
	.loc 4 2597 0
	lis 9,g_showTriggers+44@ha
	.loc 7 142 0
	lwz 9,g_showTriggers+44@l(9)
.LBE5250:
.LBE5301:
	.loc 4 2597 0
	lwz 0,36(9)
	cmpwi 7,0,0
	beq+ 7,.L518
.L552:
	.loc 4 2598 0
	bl _ZN9idTrigger13DrawDebugInfoEv
.LBB5302:
.LBB5253:
	.loc 4 2601 0
	lis 9,ai_showCombatNodes+44@ha
	.loc 7 142 0
	lwz 9,ai_showCombatNodes+44@l(9)
.LBE5253:
.LBE5302:
	.loc 4 2601 0
	lwz 0,36(9)
	cmpwi 7,0,0
	beq+ 7,.L519
.L553:
	.loc 4 2602 0
	bl _ZN12idCombatNode13DrawDebugInfoEv
.LBB5303:
.LBB5256:
	.loc 4 2605 0
	lis 9,ai_showPaths+44@ha
	.loc 7 142 0
	lwz 9,ai_showPaths+44@l(9)
.LBE5256:
.LBE5303:
	.loc 4 2605 0
	lwz 0,36(9)
	cmpwi 7,0,0
	beq+ 7,.L520
.L554:
	.loc 4 2606 0
	bl _ZN12idPathCorner13DrawDebugInfoEv
.LBB5304:
.LBB5259:
	.loc 4 2609 0
	lis 9,g_editEntityMode+44@ha
	.loc 7 142 0
	lwz 9,g_editEntityMode+44@l(9)
.LBE5259:
.LBE5304:
	.loc 4 2609 0
	lwz 0,36(9)
	cmpwi 7,0,0
	beq+ 7,.L521
.L555:
	.loc 4 2610 0
	addis 9,27,0x25
	lwz 3,1976(9)
	bl _ZN14idEditEntities15DisplayEntitiesEv
	b .L521
.L550:
.LBB5305:
.LBB5055:
	.loc 4 2537 0
	addi 31,1,80
.LBB5056:
.LBB5057:
	.loc 4 4268 0
	addis 25,27,0x1
.LBE5057:
.LBE5056:
	.loc 4 2537 0
	mr 3,31
	addi 4,26,4644
	bl _ZNK8idAngles6ToMat3Ev
.LVL808:
.LBB5064:
.LBB5058:
	.loc 4 4268 0
	lwz 9,-32192(25)
.LBE5058:
.LBE5064:
.LBB5065:
.LBB5066:
	.loc 18 323 0
	lis 11,.LC33@ha
.LBE5066:
.LBE5065:
.LBB5074:
.LBB5075:
.LBB5076:
	.loc 17 424 0
	lfs 21,0(24)
.LBE5076:
.LBE5075:
.LBE5074:
.LBB5081:
.LBB5067:
	.loc 18 323 0
	lfs 15,.LC33@l(11)
.LBE5067:
.LBE5081:
.LBB5082:
.LBB5083:
.LBB5084:
	.loc 9 268 0
	cmpwi 7,9,0
.LBE5084:
.LBE5083:
.LBE5082:
.LBB5188:
.LBB5059:
	.loc 18 323 0
	lis 11,.LC34@ha
.LBE5059:
.LBE5188:
.LBB5189:
.LBB5079:
.LBB5077:
	.loc 17 425 0
	lfs 19,4(24)
.LBE5077:
.LBE5079:
.LBE5189:
.LBB5190:
.LBB5060:
	.loc 18 323 0
	lfs 0,.LC34@l(11)
.LBE5060:
.LBE5190:
.LBB5191:
.LBB5192:
	.loc 17 439 0
	lis 11,.LC30@ha
.LBE5192:
.LBE5191:
.LBB5198:
.LBB5080:
.LBB5078:
	.loc 17 426 0
	lfs 17,8(24)
.LBE5078:
.LBE5080:
.LBE5198:
.LBB5199:
.LBB5068:
	.loc 18 323 0
	fsubs 27,21,15
.LBE5068:
.LBE5199:
.LBB5200:
.LBB5193:
	.loc 17 439 0
	lfs 13,.LC30@l(11)
.LBE5193:
.LBE5200:
.LBB5201:
.LBB5069:
	.loc 18 324 0
	fsubs 22,19,15
.LBE5069:
.LBE5201:
.LBB5202:
.LBB5194:
	.loc 17 439 0
	lfs 25,104(1)
.LBE5194:
.LBE5202:
.LBB5203:
.LBB5070:
	.loc 18 325 0
	fsubs 20,17,15
.LBE5070:
.LBE5203:
.LBB5204:
.LBB5195:
	.loc 17 439 0
	lfs 24,108(1)
.LBE5195:
.LBE5204:
.LBB5205:
.LBB5071:
	.loc 18 326 0
	fadds 18,21,15
.LBE5071:
.LBE5205:
.LBB5206:
.LBB5196:
	.loc 17 439 0
	lfs 23,112(1)
.LBE5196:
.LBE5206:
.LBB5207:
.LBB5072:
	.loc 18 327 0
	fadds 16,19,15
.LBE5072:
.LBE5207:
.LBB5208:
.LBB5061:
	.loc 18 323 0
	fsubs 30,21,0
	.loc 4 4268 0
	lwz 0,-32196(25)
.LBE5061:
.LBE5208:
.LBB5209:
.LBB5073:
	.loc 18 328 0
	fadds 15,17,15
.LBE5073:
.LBE5209:
.LBB5210:
.LBB5062:
	.loc 18 324 0
	fsubs 29,19,0
	.loc 18 325 0
	fsubs 26,17,0
.LBE5062:
.LBE5210:
.LBB5211:
.LBB5197:
	.loc 17 439 0
	fmuls 25,25,13
	fmuls 24,24,13
	fmuls 23,23,13
.LVL809:
.LBE5197:
.LBE5211:
.LBB5212:
.LBB5063:
	.loc 18 326 0
	fadds 21,21,0
.LVL810:
	.loc 18 327 0
	fadds 19,19,0
.LVL811:
	.loc 18 328 0
	fadds 17,17,0
.LBE5063:
.LBE5212:
.LBB5213:
.LBB5086:
.LBB5085:
	.loc 9 268 0
	beq- 7,.L494
	cmpw 7,0,9
	beq- 7,.L494
	.loc 9 271 0
	lwz 30,12(9)
.LVL812:
.LBE5085:
.LBE5086:
	.loc 4 2544 0
	cmpwi 7,30,0
	beq- 7,.L494
.LBB5087:
	.loc 4 2571 0
	lis 23,colorWhite@ha
	.loc 4 2572 0
	lis 21,.LC39@ha
	.loc 4 2565 0
	lis 19,colorMdGrey@ha
	lis 22,vec3_origin@ha
	.loc 4 2562 0
	lis 17,colorGreen@ha
	.loc 4 2560 0
	lis 18,colorOrange@ha
.LBB5088:
.LBB5089:
	.loc 18 212 0
	lis 20,.LC35@ha
.LBE5089:
.LBE5088:
	.loc 4 2571 0
	la 23,colorWhite@l(23)
	.loc 4 2572 0
	la 21,.LC39@l(21)
	.loc 4 2565 0
	la 19,colorMdGrey@l(19)
	la 22,vec3_origin@l(22)
	.loc 4 2562 0
	la 17,colorGreen@l(17)
	.loc 4 2560 0
	la 18,colorOrange@l(18)
.LVL813:
.L537:
	.loc 4 2546 0
	lwz 0,-32200(25)
	cmpw 7,0,30
	beq- 7,.L495
	.loc 4 2551 0
	mr 3,30
	bl _ZNK8idEntity10GetPhysicsEv
	li 4,-1
	lwz 9,0(3)
	lwz 0,60(9)
	mtctr 0
	bctrl
.LVL814:
.LBB5104:
.LBB5105:
	.loc 18 362 0
	lfs 0,12(3)
	fcmpu 7,30,0
	bgt- 7,.L495
.LVL815:
	lfs 0,16(3)
	fcmpu 7,29,0
	bgt- 7,.L495
.LVL816:
	lfs 0,20(3)
	fcmpu 7,26,0
	bgt- 7,.L495
.LVL817:
	lfs 0,0(3)
	fcmpu 7,21,0
	blt- 7,.L495
.LVL818:
	lfs 0,4(3)
	fcmpu 7,19,0
	blt- 7,.L495
.LVL819:
	lfs 0,8(3)
	fcmpu 7,17,0
	blt- 7,.L495
.LBE5105:
.LBE5104:
	.loc 4 2555 0
	mr 3,30
.LVL820:
	bl _ZNK8idEntity10GetPhysicsEv
	li 4,-1
	lwz 9,0(3)
	lwz 0,60(9)
	mtctr 0
	bctrl
	mr 28,3
.LVL821:
	.loc 4 2556 0
	mr 3,30
.LVL822:
	bl _ZNK8idEntity10GetPhysicsEv
	li 4,-1
	lwz 9,0(3)
	lwz 0,44(9)
	mtctr 0
	bctrl
.LVL823:
	.loc 4 2557 0
	andi. 0,3,256
	bne- 0,.L562
	.loc 4 2559 0
	andi. 0,3,4096
	bne- 0,.L563
	.loc 4 2561 0
	andi. 0,3,1
	bne- 0,.L564
.LVL824:
.LBB5106:
.LBB5107:
.LBB5108:
.LBB5109:
	.loc 17 402 0
	lfs 13,0(28)
.LVL825:
.LBE5109:
.LBE5108:
.LBB5110:
.LBB5111:
	lfs 12,12(28)
.LBE5111:
.LBE5110:
	.loc 18 216 0
	lfs 10,4(28)
	fcmpu 7,13,12
	cror 30,29,30
	bne- 7,.L541
	lfs 8,8(28)
	lfs 11,16(28)
	lfs 9,20(28)
.L502:
.LBE5107:
.LBE5106:
.LBB5120:
.LBB5121:
	.loc 18 319 0
	lis 9,.LC40@ha
.LBE5121:
.LBE5120:
	.loc 4 2565 0
	lis 29,gameRenderWorld@ha
.LBB5134:
.LBB5130:
	.loc 18 319 0
	lfs 0,.LC40@l(9)
.LBE5130:
.LBE5134:
	.loc 4 2565 0
	mr 4,19
	lwz 3,gameRenderWorld@l(29)
.LVL826:
	addi 5,1,56
.LBB5135:
.LBB5131:
	.loc 18 319 0
	fsubs 13,13,0
	fsubs 10,10,0
.LBE5131:
.LBE5135:
	.loc 4 2565 0
	lwz 9,0(3)
.LBB5136:
.LBB5132:
	.loc 18 319 0
	fsubs 8,8,0
	fadds 12,12,0
.LBE5132:
.LBE5136:
	.loc 4 2565 0
	lwz 0,176(9)
.LBB5137:
.LBB5133:
	.loc 18 319 0
	fadds 11,11,0
.LVL827:
.LBB5122:
.LBB5123:
.LBB5124:
	.loc 17 424 0
	stfs 13,56(1)
.LBE5124:
.LBE5123:
.LBE5122:
	.loc 18 319 0
	fadds 0,9,0
.LBB5129:
.LBB5126:
.LBB5125:
	.loc 17 425 0
	stfs 10,60(1)
	.loc 17 426 0
	stfs 8,64(1)
.LVL828:
.LBE5125:
.LBE5126:
.LBB5127:
.LBB5128:
	.loc 17 424 0
	stfs 12,68(1)
	.loc 17 425 0
	stfs 11,72(1)
	.loc 17 426 0
	stfs 0,76(1)
.LVL829:
.L549:
.LBE5128:
.LBE5127:
.LBE5129:
.LBE5133:
.LBE5137:
	.loc 4 2567 0
	mr 6,22
	li 7,0
	mtctr 0
	la 29,gameRenderWorld@l(29)
	bctrl
.LVL830:
.LBB5138:
.LBB5139:
.LBB5140:
.LBB5141:
	.loc 17 402 0
	lfs 12,12(28)
.LVL831:
.LBE5141:
.LBE5140:
	.loc 18 362 0
	fcmpu 7,27,12
	bgt- 7,.L495
.LVL832:
.LBB5142:
.LBB5143:
	.loc 17 402 0
	lfs 13,16(28)
.LVL833:
.LBE5143:
.LBE5142:
	.loc 18 362 0
	fcmpu 7,22,13
	bgt- 7,.L495
.LVL834:
.LBB5144:
.LBB5145:
	.loc 17 402 0
	lfs 0,20(28)
.LVL835:
.LBE5145:
.LBE5144:
	.loc 18 362 0
	fcmpu 7,20,0
	bgt- 7,.L495
.LVL836:
.LBB5146:
.LBB5147:
	.loc 17 402 0
	lfs 11,0(28)
.LVL837:
.LBE5147:
.LBE5146:
	.loc 18 362 0
	fcmpu 7,18,11
	bnl- 7,.L565
.LVL838:
.L495:
	.loc 4 4268 0
	lwz 9,16(30)
	lwz 0,12(30)
.LBE5139:
.LBE5138:
.LBE5087:
.LBB5184:
.LBB5185:
	.loc 9 268 0
	cmpwi 7,9,0
	beq- 7,.L494
	cmpw 7,0,9
	beq- 7,.L494
	.loc 9 271 0
	lwz 30,12(9)
.LVL839:
.LBE5185:
.LBE5184:
	.loc 4 2544 0
	cmpwi 7,30,0
	bne+ 7,.L537
	b .L494
.LVL840:
.L559:
.LBE5213:
.LBE5055:
.LBE5305:
.LBB5306:
.LBB5282:
.LBB5281:
.LBB5280:
.LBB5279:
.LBB5278:
	.loc 4 2637 0
	lis 9,_ZN6idMath9M_DEG2RADE@ha
	lfs 30,4648(26)
	lfs 0,_ZN6idMath9M_DEG2RADE@l(9)
	fmuls 30,30,0
	fmr 1,30
	bl cos
	lis 9,.LC43@ha
	lfs 31,.LC43@l(9)
	fmul 0,1,31
	.loc 4 2638 0
	fmr 1,30
	.loc 4 2637 0
	frsp 0,0
	stfs 0,80(1)
	.loc 4 2638 0
	bl sin
	fmul 31,1,31
	.loc 4 2639 0
	li 0,0
	.loc 4 2640 0
	mr 3,26
	mr 4,30
	mr 5,24
	addi 6,1,80
	li 7,1000
	li 8,100
	.loc 4 2638 0
	frsp 31,31
	.loc 4 2640 0
	li 9,7
	addi 10,1,116
	.loc 4 2639 0
	stw 0,88(1)
	.loc 4 2638 0
	stfs 31,84(1)
	.loc 4 2640 0
	bl _ZN4idAI11PredictPathEPK8idEntityPK5idAASRK6idVec3S8_iiiR15predictedPath_s
	b .L527
.LVL841:
.L562:
.LBE5278:
.LBE5279:
.LBE5280:
.LBE5281:
.LBE5282:
.LBE5306:
.LBB5307:
.LBB5216:
.LBB5214:
.LBB5186:
	.loc 4 2558 0
	lis 29,gameRenderWorld@ha
	lis 4,colorCyan@ha
	lwz 3,gameRenderWorld@l(29)
.LVL842:
	la 4,colorCyan@l(4)
	.loc 4 2567 0
	mr 5,28
	.loc 4 2558 0
	lwz 9,0(3)
	lwz 0,176(9)
	b .L549
.LVL843:
.L560:
.LBE5186:
.LBE5214:
.LBE5216:
.LBE5307:
.LBB5308:
.LBB5286:
	.loc 4 2646 0
	mr 3,27
	li 4,0
	bl _ZNK11idGameLocal6GetAASEi
.LVL844:
.LBB5287:
	.loc 4 2647 0
	mr. 30,3
	beq- 0,.L528
.LBB5288:
	.loc 4 2651 0
	mr 3,26
.LVL845:
	bl _ZNK8idEntity10GetPhysicsEv
	li 4,0
	lwz 9,0(3)
	lwz 0,132(9)
	mtctr 0
	bctrl
.LVL846:
	.loc 17 452 0
	lis 9,.LC44@ha
.LBB5289:
.LBB5290:
	lfs 11,0(3)
.LBE5290:
.LBE5289:
	lfs 8,2272(26)
	lfs 9,2276(26)
.LBB5293:
.LBB5291:
	lfs 10,2268(26)
.LBE5291:
.LBE5293:
	lfs 12,4(3)
	lfs 13,8(3)
	.loc 4 2652 0
	mr 3,26
.LVL847:
	.loc 17 452 0
	lfs 0,.LC44@l(9)
	fmadds 12,8,0,12
	fmadds 13,9,0,13
.LVL848:
.LBB5294:
.LBB5292:
	fmadds 0,10,0,11
	.loc 17 425 0
	stfs 12,84(1)
	.loc 17 426 0
	stfs 13,88(1)
	.loc 17 424 0
	stfs 0,80(1)
.LBE5292:
.LBE5294:
	.loc 4 2652 0
	bl _ZNK8idEntity10GetPhysicsEv
.LVL849:
	mr 29,3
	mr 3,26
	bl _ZNK8idEntity10GetPhysicsEv
	li 4,0
	lwz 9,0(3)
	lwz 0,132(9)
	mtctr 0
	bctrl
	mr 4,30
	mr 6,3
	li 5,0
	mr 3,29
	addi 7,1,80
.LVL850:
	addi 8,1,116
	bl _ZN4idAI23FindPathAroundObstaclesEPK9idPhysicsPK5idAASPK8idEntityRK6idVec3SB_R14obstaclePath_s
.LVL851:
	b .L528
.LVL852:
.L563:
.LBE5288:
.LBE5287:
.LBE5286:
.LBE5308:
.LBB5309:
.LBB5217:
.LBB5215:
.LBB5187:
	.loc 4 2560 0
	lis 29,gameRenderWorld@ha
	mr 4,18
	lwz 3,gameRenderWorld@l(29)
.LVL853:
	mr 5,28
	lwz 9,0(3)
	lwz 0,176(9)
	b .L549
.LVL854:
.L541:
.LBB5153:
.LBB5118:
.LBB5112:
.LBB5113:
	.loc 17 402 0
	lfs 11,16(28)
.LBE5113:
.LBE5112:
	.loc 18 216 0
	lfs 8,8(28)
	fcmpu 7,10,11
	lfs 9,20(28)
	cror 30,29,30
	beq- 7,.L502
.LVL855:
	fcmpu 7,8,9
	cror 30,29,30
	beq- 7,.L502
.LVL856:
.LBB5114:
.LBB5115:
	.loc 18 219 0
	fsubs 6,12,13
.LBE5115:
.LBE5114:
.LBE5118:
.LBE5153:
	.loc 4 2564 0
	lis 9,.LC2@ha
.LBB5154:
.LBB5119:
.LBB5117:
.LBB5116:
	.loc 18 219 0
	fsubs 7,11,10
	fsubs 0,9,8
	fmuls 7,6,7
	fmuls 7,7,0
.LBE5116:
.LBE5117:
.LBE5119:
.LBE5154:
	.loc 4 2564 0
	lfs 0,.LC2@l(9)
	fcmpu 7,7,0
	beq- 7,.L502
	.loc 4 2567 0
	lis 29,gameRenderWorld@ha
	mr 4,19
	lwz 3,gameRenderWorld@l(29)
.LVL857:
	mr 5,28
	lwz 9,0(3)
	lwz 0,176(9)
	b .L549
.LVL858:
.L564:
	.loc 4 2562 0
	lis 29,gameRenderWorld@ha
	mr 4,17
	lwz 3,gameRenderWorld@l(29)
.LVL859:
	mr 5,28
	lwz 9,0(3)
	lwz 0,176(9)
	b .L549
.LVL860:
.L565:
.LBB5155:
.LBB5152:
.LBB5148:
.LBB5149:
	.loc 17 402 0
	lfs 10,4(28)
.LVL861:
.LBE5149:
.LBE5148:
	.loc 18 362 0
	fcmpu 7,16,10
	blt- 7,.L495
.LVL862:
.LBB5150:
.LBB5151:
	.loc 17 402 0
	lfs 9,8(28)
.LVL863:
.LBE5151:
.LBE5150:
	.loc 18 362 0
	fcmpu 7,15,9
	blt- 7,.L495
.LBE5152:
.LBE5155:
.LBB5156:
.LBB5096:
	.loc 18 212 0
	fadds 12,12,11
.LBE5096:
.LBE5156:
	.loc 4 2571 0
	lwz 3,0(29)
.LBB5157:
.LBB5097:
	.loc 18 212 0
	fadds 13,13,10
	lfs 31,.LC35@l(20)
	fadds 0,0,9
.LBE5097:
.LBE5157:
	.loc 4 2571 0
	lwz 9,0(3)
.LBB5158:
.LBB5098:
	.loc 18 212 0
	fmuls 12,12,31
.LBE5098:
.LBE5158:
	.loc 4 2571 0
	lis 11,.LC38@ha
.LBB5159:
.LBB5099:
	.loc 18 212 0
	fmuls 13,13,31
.LBE5099:
.LBE5159:
	.loc 4 2571 0
	lfs 28,.LC38@l(11)
.LBB5160:
.LBB5100:
	.loc 18 212 0
	fmuls 0,0,31
.LBE5100:
.LBE5160:
	.loc 4 2571 0
	lwz 0,204(9)
	addi 5,1,44
	fmr 1,28
	mr 6,23
	mr 7,31
.LBB5161:
.LBB5101:
.LBB5090:
.LBB5091:
	.loc 17 396 0
	stfs 12,44(1)
.LBE5091:
.LBE5090:
.LBE5101:
.LBE5161:
	.loc 4 2571 0
	mtctr 0
.LBB5162:
.LBB5102:
.LBB5094:
.LBB5092:
	.loc 17 397 0
	stfs 13,48(1)
.LBE5092:
.LBE5094:
.LBE5102:
.LBE5162:
	.loc 4 2571 0
	li 8,1
.LBB5163:
.LBB5103:
.LBB5095:
.LBB5093:
	.loc 17 398 0
	stfs 0,52(1)
.LBE5093:
.LBE5095:
.LBE5103:
.LBE5163:
	.loc 4 2571 0
	li 10,0
	.loc 4 4268 0
	lwz 4,72(30)
.LVL864:
	.loc 4 2571 0
	li 9,0
	bctrl
.LVL865:
	.loc 4 2572 0
	lwz 16,0(29)
	lwz 4,4(30)
	mr 3,21
	lwz 9,0(16)
	lwz 29,204(9)
	crxor 6,6,6
	bl _Z2vaPKcz
.LBB5164:
.LBB5165:
	.loc 18 212 0
	lfs 12,0(28)
.LBE5165:
.LBE5164:
	.loc 4 2572 0
	mr 4,3
.LVL866:
.LBB5172:
.LBB5166:
	.loc 18 212 0
	lfs 13,4(28)
.LBE5166:
.LBE5172:
	.loc 4 2572 0
	mr 3,16
.LBB5173:
.LBB5167:
	.loc 18 212 0
	lfs 0,8(28)
.LBE5167:
.LBE5173:
	.loc 4 2572 0
	addi 5,1,32
.LBB5174:
.LBB5168:
	.loc 18 212 0
	lfs 9,16(28)
.LBE5168:
.LBE5174:
	.loc 4 2572 0
	fmr 1,28
.LBB5175:
.LBB5169:
	.loc 18 212 0
	lfs 10,20(28)
.LBE5169:
.LBE5175:
	.loc 4 2572 0
	mr 6,23
.LBB5176:
.LBB5170:
	.loc 18 212 0
	lfs 11,12(28)
	fadds 13,9,13
	fadds 0,10,0
.LBE5170:
.LBE5176:
	.loc 4 2572 0
	mr 7,31
.LBB5177:
.LBB5171:
	.loc 18 212 0
	fadds 12,11,12
.LBE5171:
.LBE5177:
	.loc 4 2572 0
	li 8,1
	.loc 17 452 0
	fmadds 13,13,31,24
	.loc 4 2572 0
	li 9,0
	.loc 17 452 0
	fmadds 0,0,31,23
.LVL867:
	.loc 4 2572 0
	li 10,0
.LBB5178:
.LBB5179:
.LBB5180:
	.loc 17 452 0
	fmadds 31,12,31,25
.LBE5180:
.LBE5179:
.LBE5178:
	.loc 4 2572 0
	mtctr 29
.LBB5183:
.LBB5182:
.LBB5181:
	.loc 17 397 0
	stfs 13,36(1)
	.loc 17 398 0
	stfs 0,40(1)
	.loc 17 396 0
	stfs 31,32(1)
.LBE5181:
.LBE5182:
.LBE5183:
	.loc 4 2572 0
	bctrl
.LVL868:
	b .L495
.LBE5187:
.LBE5215:
.LBE5217:
.LBE5309:
.LBE5310:
	.cfi_endproc
.LFE2899:
	.size	_ZN11idGameLocal12RunDebugInfoEv, .-_ZN11idGameLocal12RunDebugInfoEv
	.align 2
	.globl _ZN11idGameLocal8RunFrameEPK9usercmd_t
	.type	_ZN11idGameLocal8RunFrameEPK9usercmd_t, @function
_ZN11idGameLocal8RunFrameEPK9usercmd_t:
.LFB2887:
	.loc 4 2038 0
	.cfi_startproc
.LVL869:
	stwu 1,-248(1)
.LCFI168:
	.cfi_def_cfa_offset 248
	mflr 0
	mfcr 12
	stw 24,176(1)
.LBB5392:
.LBB5393:
.LBB5394:
	.file 20 "d:/Data/Nintendo/DoomGX/src/game/../idlib/../idlib/Timer.h"
	.loc 20 76 0
	lis 24,.LC45@ha
	.cfi_offset 24, -72
	.cfi_register 70, 12
	.cfi_register 65, 0
	lfd 0,.LC45@l(24)
.LBE5394:
.LBE5393:
.LBE5392:
	.loc 4 2038 0
	stw 22,168(1)
	mr 22,3
	.cfi_offset 22, -80
.LBB5578:
	.loc 4 2046 0
	lis 3,.LC46@ha
.LVL870:
.LBE5578:
	.loc 4 2038 0
	stw 0,252(1)
	stw 27,188(1)
.LBB5579:
.LBB5398:
.LBB5395:
	.loc 20 75 0
	li 0,1
	.cfi_offset 27, -60
	.cfi_offset 65, 4
.LBE5395:
.LBE5398:
.LBE5579:
	.loc 4 2038 0
	mr 27,4
.LBB5580:
	.loc 4 2046 0
	la 3,.LC46@l(3)
.LBB5399:
.LBB5396:
	.loc 20 75 0
	stw 0,56(1)
.LBE5396:
.LBE5399:
.LBB5400:
.LBB5401:
	stw 0,32(1)
.LBE5401:
.LBE5400:
.LBB5403:
.LBB5404:
	stw 0,8(1)
.LBE5404:
.LBE5403:
.LBE5580:
	.loc 4 2038 0
	stw 12,132(1)
	stw 5,112(1)
.LBB5581:
.LBB5406:
.LBB5397:
	.loc 20 76 0
	stfd 0,72(1)
.LBE5397:
.LBE5406:
.LBB5407:
.LBB5402:
	stfd 0,48(1)
.LBE5402:
.LBE5407:
.LBE5581:
	.loc 4 2038 0
	stw 20,160(1)
	stw 30,200(1)
.LBB5582:
.LBB5408:
	.loc 4 2055 0
	addis 30,4,0x25
	.cfi_offset 30, -48
	.cfi_offset 20, -88
	.cfi_offset 70, -116
.LBE5408:
.LBE5582:
	.loc 4 2038 0
	stfd 27,208(1)
	stfd 28,216(1)
	stfd 29,224(1)
	stfd 30,232(1)
	stfd 31,240(1)
	stw 14,136(1)
	stw 15,140(1)
	stw 16,144(1)
	stw 17,148(1)
	stw 18,152(1)
	stw 19,156(1)
	stw 21,164(1)
	stw 23,172(1)
	stw 25,180(1)
	stw 26,184(1)
	stw 28,192(1)
	stw 29,196(1)
	stw 31,204(1)
.LBB5583:
.LBB5573:
.LBB5405:
	.loc 20 76 0
	stfd 0,24(1)
.LBE5405:
.LBE5573:
	.loc 4 2046 0
	.cfi_offset 31, -44
	.cfi_offset 29, -52
	.cfi_offset 28, -56
	.cfi_offset 26, -64
	.cfi_offset 25, -68
	.cfi_offset 23, -76
	.cfi_offset 21, -84
	.cfi_offset 19, -92
	.cfi_offset 18, -96
	.cfi_offset 17, -100
	.cfi_offset 16, -104
	.cfi_offset 15, -108
	.cfi_offset 14, -112
	.cfi_offset 63, -8
	.cfi_offset 62, -16
	.cfi_offset 61, -24
	.cfi_offset 60, -32
	.cfi_offset 59, -40
	crxor 6,6,6
	bl _Z10Sys_PrintfPKcz
.LVL871:
	.loc 4 2053 0
	mr 3,27
	bl _ZNK11idGameLocal14GetLocalPlayerEv
.LBB5574:
	.loc 4 2055 0
	lbz 0,2016(30)
.LBE5574:
	.loc 4 2053 0
	mr 20,3
.LVL872:
.LBB5575:
	.loc 4 2055 0
	cmpwi 7,0,0
	beq- 7,.L638
	addi 0,27,228
	lis 16,gameRenderWorld@ha
	stw 0,120(1)
	lis 29,_ZN5idLib3sysE@ha
	lis 19,g_timeentities@ha
	lis 25,_ZN7idTimer4baseE@ha
	lis 9,g_frametime@ha
.L649:
	la 9,g_frametime@l(9)
.LBB5409:
.LBB5410:
.LBB5411:
.LBB5412:
	.file 21 "d:/Data/Nintendo/DoomGX/src/game/../idlib/../idlib/math/Random.h"
	.loc 21 71 0
	lis 15,0x1
	stw 9,116(1)
.LBE5412:
.LBE5411:
	.loc 4 2119 0
	lis 9,.LC2@ha
	.loc 4 2132 0
	lis 14,.LC48@ha
	cmpwi 4,20,0
	.loc 4 2119 0
	lfs 31,.LC2@l(9)
	addis 23,27,0x1
	la 16,gameRenderWorld@l(16)
	la 24,.LC45@l(24)
	la 29,_ZN5idLib3sysE@l(29)
	la 19,g_timeentities@l(19)
	la 25,_ZN7idTimer4baseE@l(25)
.LBB5415:
.LBB5413:
	.loc 21 71 0
	ori 15,15,3533
.LBE5413:
.LBE5415:
.LBB5416:
.LBB5417:
	.loc 20 193 0
	lis 18,.LC47@ha
.LBE5417:
.LBE5416:
	.loc 4 2132 0
	la 14,.LC48@l(14)
.LVL873:
.L633:
	.loc 4 2068 0
	lwz 9,2004(30)
	.loc 4 2067 0
	lwz 11,1996(30)
	.loc 4 2069 0
	addi 4,9,16
	.loc 4 2068 0
	stw 9,2000(30)
	.loc 4 2067 0
	addi 0,11,1
	.loc 4 2069 0
	stw 4,2004(30)
	.loc 4 2067 0
	stw 0,1996(30)
	.loc 4 2070 0
	stw 4,2040(30)
.LBB5423:
.LBB5414:
	.loc 21 71 0
	lwz 9,-32064(23)
	mullw 9,15,9
	addi 0,9,1
	stw 0,-32064(23)
.LBE5414:
.LBE5423:
	.loc 4 2083 0
	beq- 4,.L570
	.loc 4 2085 0
	lwz 9,0(20)
	mr 3,20
	lwz 0,16(9)
	mtctr 0
	bctrl
.LVL874:
	.loc 4 2086 0
	mr. 4,3
	beq- 0,.L650
	.loc 4 2087 0
	lwz 3,0(16)
.LVL875:
	lwz 9,0(3)
	lwz 0,72(9)
	mtctr 0
	bctrl
.LVL876:
.L650:
	lwz 4,2004(30)
.L570:
	.loc 4 2092 0
	lwz 3,0(16)
	lwz 9,0(3)
	lwz 0,152(9)
	mtctr 0
	bctrl
	.loc 4 2095 0
	lwz 3,0(16)
	lwz 4,2004(30)
	lwz 9,0(3)
	lwz 0,196(9)
	mtctr 0
	bctrl
	.loc 4 2098 0
	lwz 5,48(27)
	lwz 4,112(1)
	lwz 3,120(1)
	slwi 5,5,5
	bl memcpy
	.loc 4 2101 0
	lwz 3,1972(30)
	bl _ZN16idSmokeParticles10FreeSmokesEv
	.loc 4 2104 0
	mr 3,27
	bl _ZN11idGameLocal36ServerProcessEntityNetworkEventQueueEv
	.loc 4 2107 0
	mr 3,27
	bl _ZN11idGameLocal13UpdateGravityEv
	.loc 4 2110 0
	mr 3,27
	bl _ZN11idGameLocal14SetupPlayerPVSEv
	.loc 4 2113 0
	mr 3,27
	bl _ZN11idGameLocal20SortActiveEntityListEv
.LBB5424:
.LBB5425:
	.loc 20 173 0
	lfd 0,0(24)
.LBE5425:
.LBE5424:
.LBB5427:
.LBB5428:
	.loc 20 146 0
	li 0,0
	.loc 20 147 0
	lwz 9,0(29)
.LBE5428:
.LBE5427:
.LBB5431:
.LBB5426:
	.loc 20 173 0
	stfd 0,72(1)
.LBE5426:
.LBE5431:
.LBB5432:
.LBB5429:
	.loc 20 146 0
	stw 0,56(1)
	.loc 20 147 0
	mr 3,9
	lwz 9,0(9)
	lwz 0,8(9)
	mtctr 0
	bctrl
.LBE5429:
.LBE5432:
.LBB5433:
.LBB5434:
	.loc 7 144 0
	lwz 9,44(19)
.LBE5434:
.LBE5433:
.LBB5435:
.LBB5430:
	.loc 20 147 0
	stfd 1,64(1)
.LBE5430:
.LBE5435:
	.loc 4 2119 0
	lfs 0,40(9)
	fcmpu 7,0,31
	beq- 7,.L572
.LVL877:
	.loc 4 4268 0
	lwz 9,-32176(23)
.LBB5436:
.LBB5437:
	.loc 9 268 0
	li 28,0
.LBE5437:
.LBE5436:
	.loc 4 4268 0
	lwz 0,-32180(23)
.LBB5439:
.LBB5438:
	.loc 9 268 0
	cmpwi 7,9,0
	beq- 7,.L573
	cmpw 7,0,9
	beq- 7,.L573
	.loc 9 271 0
	lwz 31,12(9)
.LVL878:
.LBE5438:
.LBE5439:
	.loc 4 2121 0
	cmpwi 7,31,0
	beq- 7,.L573
	lis 9,g_cinematic@ha
.LBB5440:
.LBB5441:
	.loc 20 146 0
	li 21,0
	la 26,g_cinematic@l(9)
.LBE5441:
.LBE5440:
.LBB5445:
.LBB5446:
	.loc 20 164 0
	li 17,1
.LVL879:
.L580:
.LBE5446:
.LBE5445:
.LBB5451:
.LBB5452:
	.loc 7 142 0
	lwz 9,44(26)
.LBE5452:
.LBE5451:
	.loc 4 2122 0
	lwz 0,36(9)
	cmpwi 7,0,0
	beq- 7,.L574
	.loc 4 2122 0 is_stmt 0 discriminator 1
	lbz 0,1992(30)
	cmpwi 7,0,0
	beq- 7,.L574
	.loc 4 2122 0 discriminator 3
	lbz 0,160(31)
	cmpwi 7,0,0
	bne- 7,.L574
	.loc 4 2123 0 is_stmt 1 discriminator 5
	mr 3,31
	bl _ZNK8idEntity10GetPhysicsEv
	lwz 4,2004(30)
	lwz 9,0(3)
	lwz 0,68(9)
	mtctr 0
	bctrl
.L575:
.LVL880:
	.loc 4 4268 0
	lwz 9,32(31)
	lwz 0,28(31)
.LBB5453:
.LBB5454:
	.loc 9 268 0
	cmpwi 7,9,0
	beq- 7,.L573
	cmpw 7,0,9
	beq- 7,.L573
	.loc 9 271 0
	lwz 31,12(9)
.LVL881:
.LBE5454:
.LBE5453:
	.loc 4 2121 0
	cmpwi 7,31,0
	bne+ 7,.L580
.LVL882:
.L573:
.LBB5455:
	.loc 4 2157 0
	lwz 0,-32164(23)
	cmpwi 7,0,0
	beq- 7,.L585
.LVL883:
	.loc 4 4268 0
	lwz 9,-32176(23)
	lwz 0,-32180(23)
.LBB5456:
.LBB5457:
.LBB5458:
	.loc 9 268 0
	cmpwi 7,9,0
	beq- 7,.L586
	cmpw 7,0,9
	beq- 7,.L586
	.loc 9 271 0
	lwz 9,12(9)
.LVL884:
.LBE5458:
.LBE5457:
	.loc 4 2160 0
	cmpwi 7,9,0
	beq- 7,.L586
.LVL885:
.L640:
	.loc 4 4268 0
	lwz 11,32(9)
	.loc 4 2163 0
	addi 10,9,28
	.loc 4 4268 0
	lwz 8,28(9)
.LBB5459:
.LBB5460:
	.loc 9 269 0
	li 0,0
	.loc 9 268 0
	cmpwi 7,11,0
	cmpw 6,8,11
	beq- 7,.L587
	beq- 6,.L587
	.loc 9 271 0
	lwz 0,12(11)
.L587:
.LBE5460:
.LBE5459:
	.loc 4 2162 0
	lwz 8,152(9)
	.loc 4 2160 0
	cmpwi 7,0,0
	.loc 4 2162 0
	cmpwi 6,8,0
	bne- 6,.L588
.LVL886:
.LBB5461:
.LBB5462:
	.loc 9 176 0
	lwz 8,36(9)
	stw 11,4(8)
	.loc 9 177 0
	lwz 11,32(9)
	lwz 8,36(9)
	stw 8,8(11)
	.loc 9 179 0
	stw 10,32(9)
	.loc 9 180 0
	stw 10,36(9)
	.loc 9 181 0
	stw 10,28(9)
.LVL887:
.L588:
.LBE5462:
.LBE5461:
	.loc 4 2160 0 discriminator 1
	beq- 7,.L586
	.loc 4 2160 0 is_stmt 0
	mr 9,0
	b .L640
.LVL888:
.L574:
.LBE5456:
.LBE5455:
.LBB5464:
.LBB5465:
	.loc 20 173 0 is_stmt 1
	lfd 30,0(24)
.LBE5465:
.LBE5464:
.LBB5467:
.LBB5442:
	.loc 20 147 0
	lwz 9,0(29)
.LBE5442:
.LBE5467:
.LBB5468:
.LBB5466:
	.loc 20 173 0
	stfd 30,24(1)
.LBE5466:
.LBE5468:
.LBB5469:
.LBB5443:
	.loc 20 146 0
	stw 21,8(1)
	.loc 20 147 0
	mr 3,9
	lwz 9,0(9)
	lwz 0,8(9)
	mtctr 0
	bctrl
.LBE5443:
.LBE5469:
	.loc 4 2128 0
	mr 3,31
.LBB5470:
.LBB5444:
	.loc 20 147 0
	stfd 1,16(1)
.LBE5444:
.LBE5470:
	.loc 4 2128 0
	lwz 9,0(31)
	lwz 0,20(9)
	mtctr 0
	bctrl
.LVL889:
.LBB5471:
.LBB5447:
	.loc 20 157 0
	lwz 3,0(29)
	lfd 29,24(1)
	lwz 9,0(3)
	lwz 0,8(9)
	mtctr 0
	bctrl
	lfd 13,16(1)
	.loc 20 158 0
	lfd 0,0(25)
	.loc 20 157 0
	fsub 13,1,13
	.loc 20 158 0
	fcmpu 7,0,30
	.loc 20 157 0
	fadd 29,29,13
	stfd 29,24(1)
	.loc 20 158 0
	blt- 7,.L653
.L611:
	.loc 20 161 0
	fcmpu 7,0,29
	bnl- 7,.L576
	.loc 20 162 0
	fsub 29,29,0
	stfd 29,24(1)
.L576:
.LBE5447:
.LBE5471:
.LBB5472:
.LBB5418:
	.loc 20 193 0
	lwz 9,0(29)
.LBE5418:
.LBE5472:
.LBB5473:
.LBB5448:
	.loc 20 164 0
	stw 17,8(1)
.LBE5448:
.LBE5473:
.LBB5474:
.LBB5419:
	.loc 20 193 0
	mr 3,9
.LBE5419:
.LBE5474:
.LBB5475:
.LBB5449:
	.loc 4 2130 0
	lfd 30,24(1)
.LBE5449:
.LBE5475:
.LBB5476:
.LBB5420:
	.loc 20 193 0
	lwz 9,0(9)
	lwz 0,12(9)
	mtctr 0
	bctrl
	lfd 0,.LC47@l(18)
.LBE5420:
.LBE5476:
.LBB5477:
.LBB5478:
	.loc 7 144 0
	lwz 9,44(19)
.LBE5478:
.LBE5477:
.LBB5479:
.LBB5421:
	.loc 20 193 0
	fmul 1,1,0
.LBE5421:
.LBE5479:
	.loc 4 2131 0
	lfs 13,40(9)
.LBB5480:
.LBB5422:
	.loc 20 193 0
	fdiv 30,30,1
.LBE5422:
.LBE5480:
	.loc 4 2130 0
	frsp 1,30
.LVL890:
	.loc 4 2131 0
	fcmpu 7,1,13
	cror 30,29,30
	beq- 7,.L654
	.loc 4 2134 0
	addi 28,28,1
.LVL891:
	b .L575
.LVL892:
.L654:
	.loc 4 2132 0
	lwz 5,2004(30)
	mr 3,27
	lwz 6,72(31)
	mr 4,14
	.loc 4 2134 0
	addi 28,28,1
	.loc 4 2132 0
	creqv 6,6,6
	bl _ZNK11idGameLocal6PrintfEPKcz
.LVL893:
	b .L575
.LVL894:
.L586:
.LBB5481:
.LBB5463:
	.loc 4 2168 0
	li 0,0
	stw 0,-32164(23)
.L585:
.LVL895:
.LBE5463:
.LBE5481:
.LBB5482:
.LBB5483:
	.loc 20 157 0
	lwz 3,0(29)
	lfd 30,72(1)
	lwz 9,0(3)
	lwz 0,8(9)
	mtctr 0
	bctrl
	lfd 13,64(1)
	.loc 20 158 0
	lfd 0,0(25)
	.loc 20 157 0
	fsub 13,1,13
	.loc 20 158 0
	lfd 12,0(24)
	fcmpu 7,0,12
	.loc 20 157 0
	fadd 30,30,13
	stfd 30,72(1)
	.loc 20 158 0
	blt- 7,.L655
.L590:
	.loc 20 161 0
	fcmpu 7,30,0
	bng- 7,.L592
	.loc 20 162 0
	fsub 30,30,0
	stfd 30,72(1)
.L592:
.LBE5483:
.LBE5482:
.LBB5486:
.LBB5487:
	.loc 20 173 0
	lfd 30,0(24)
.LBE5487:
.LBE5486:
.LBB5489:
.LBB5484:
	.loc 20 164 0
	li 0,1
	stw 0,56(1)
.LBE5484:
.LBE5489:
.LBB5490:
.LBB5491:
	.loc 20 146 0
	li 0,0
	.loc 20 147 0
	lwz 9,0(29)
.LBE5491:
.LBE5490:
.LBB5493:
.LBB5488:
	.loc 20 173 0
	stfd 30,48(1)
.LBE5488:
.LBE5493:
.LBB5494:
.LBB5492:
	.loc 20 146 0
	stw 0,32(1)
	.loc 20 147 0
	mr 3,9
	lwz 9,0(9)
	lwz 0,8(9)
	mtctr 0
	bctrl
	stfd 1,40(1)
.LBE5492:
.LBE5494:
	.loc 4 2176 0
	bl _ZN7idEvent13ServiceEventsEv
.LVL896:
.LBB5495:
.LBB5496:
	.loc 20 157 0
	lwz 3,0(29)
	lfd 29,48(1)
	lwz 9,0(3)
	lwz 0,8(9)
	mtctr 0
	bctrl
	lfd 13,40(1)
	.loc 20 158 0
	lfd 0,0(25)
	.loc 20 157 0
	fsub 13,1,13
	.loc 20 158 0
	fcmpu 7,0,30
	.loc 20 157 0
	fadd 29,29,13
	stfd 29,48(1)
	.loc 20 158 0
	blt- 7,.L656
.L594:
	.loc 20 161 0
	fcmpu 7,0,29
	bnl- 7,.L596
	.loc 20 162 0
	fsub 29,29,0
	stfd 29,48(1)
.L596:
	.loc 20 164 0
	li 0,1
.LBE5496:
.LBE5495:
	.loc 4 2181 0
	mr 3,27
.LBB5499:
.LBB5497:
	.loc 20 164 0
	stw 0,32(1)
.LBE5497:
.LBE5499:
	.loc 4 2181 0
	bl _ZN11idGameLocal13FreePlayerPVSEv
	.loc 4 2184 0
	lbz 0,2016(30)
	cmpwi 7,0,0
	bne- 7,.L657
.L598:
.LBB5500:
.LBB5501:
	.loc 7 142 0
	lwz 11,116(1)
	lwz 9,44(11)
.LBE5501:
.LBE5500:
	.loc 4 2189 0
	lwz 0,36(9)
	cmpwi 7,0,0
	bne- 7,.L658
.L599:
	.loc 4 2199 0
	lbz 9,2016(30)
	.loc 4 2196 0
	li 0,0
	stw 0,1024(22)
	.loc 4 2199 0
	cmpwi 7,9,0
	.loc 4 2197 0
	stb 0,0(22)
	.loc 4 2199 0
	bne- 7,.L600
	.loc 4 2199 0 is_stmt 0 discriminator 1
	beq- 4,.L600
	.loc 4 2206 0 is_stmt 1
	lwz 11,5200(20)
.LBB5502:
.LBB5503:
	.loc 19 825 0
	addi 10,22,1036
	lfs 0,5216(20)
.LBE5503:
.LBE5502:
	.loc 4 2206 0
	cmpwi 7,11,0
	.loc 4 2200 0
	lwz 8,188(20)
.LBB5506:
.LBB5504:
	.loc 19 825 0
	fctiwz 0,0
.LBE5504:
.LBE5506:
	.loc 4 2201 0
	lwz 0,5164(20)
	.loc 4 2200 0
	stw 8,1028(22)
	.loc 4 2201 0
	stw 0,1032(22)
.LVL897:
.LBB5507:
.LBB5505:
	.loc 19 825 0
	stfiwx 0,0,10
.LBE5505:
.LBE5507:
	.loc 4 2205 0
	stw 9,1040(22)
	.loc 4 2206 0
	ble- 7,.L601
	.loc 4 2206 0 is_stmt 0 discriminator 1
	lwz 0,2004(30)
	addi 9,11,9999
	cmpw 7,9,0
	blt- 7,.L601
	.loc 4 2207 0 is_stmt 1
	subf 0,11,0
	lis 11,.LC1@ha
	xoris 0,0,0x8000
	lfs 0,.LC1@l(11)
	stw 0,92(1)
	lis 0,0x4330
	stw 0,88(1)
	lis 9,.LC50@ha
	lfs 12,.LC50@l(9)
	lis 11,.LC51@ha
	lfd 13,88(1)
	addi 9,22,1040
	fsub 0,13,0
	lfs 13,.LC51@l(11)
	frsp 0,0
	fmuls 0,0,12
	fdivs 0,0,13
	fadds 0,0,31
	fctiwz 0,0
	stfiwx 0,0,9
.L601:
	.loc 4 2209 0
	lwz 9,4680(20)
	cmpwi 7,9,0
	ble- 7,.L600
	.loc 4 2209 0 is_stmt 0 discriminator 1
	lwz 0,2004(30)
	addi 11,9,9999
	cmpw 7,11,0
	blt- 7,.L600
	.loc 4 2210 0 is_stmt 1
	subf 0,9,0
	lis 11,0x4330
	xoris 0,0,0x8000
	stw 11,104(1)
	stw 0,108(1)
	lis 9,.LC1@ha
	lfs 0,.LC1@l(9)
	lis 9,.LC50@ha
	lfd 13,104(1)
	lfs 11,.LC50@l(9)
	lis 9,.LC51@ha
	fsub 13,13,0
	lfs 12,.LC51@l(9)
	lwz 0,1040(22)
	addi 9,22,1040
	stw 11,96(1)
	frsp 13,13
	xoris 0,0,0x8000
	stw 0,100(1)
	fmuls 13,13,11
	fdivs 13,13,12
	lfd 12,96(1)
	fsub 0,12,0
	frsp 0,0
	fadds 0,0,13
	fctiwz 0,0
	stfiwx 0,0,9
.LVL898:
.L600:
	.loc 4 2215 0
	lwz 31,1384(30)
	cmpwi 7,31,0
	bne- 7,.L659
	.loc 4 2221 0
	lbz 0,1993(30)
	cmpwi 7,0,0
	beq- 7,.L603
	.loc 4 2221 0 is_stmt 0 discriminator 1
	lwz 11,2004(30)
	lwz 9,1988(30)
	cmpw 6,11,9
	bgt- 6,.L660
.L603:
.LBE5410:
	.loc 4 2065 0 is_stmt 1
	lbz 9,1992(30)
	cmpwi 6,9,0
	bne- 6,.L605
	.loc 4 2065 0 is_stmt 0 discriminator 2
	lwz 11,2004(30)
	lwz 9,1984(30)
	cmpw 6,11,9
	blt- 6,.L605
.LVL899:
.L569:
.LBE5409:
.LBE5575:
	.loc 4 2228 0 is_stmt 1
	stb 0,1044(22)
	.loc 4 2229 0
	beq- 7,.L606
	.loc 4 2231 0
	li 0,0
	stb 0,1993(30)
	b .L606
.LVL900:
.L653:
.LBB5576:
.LBB5568:
.LBB5565:
.LBB5508:
.LBB5450:
	.loc 20 159 0
	addi 3,1,8
	bl _ZNK7idTimer18InitBaseClockTicksEv
	lfd 29,24(1)
	lfd 0,0(25)
	b .L611
.LVL901:
.L605:
.LBE5450:
.LBE5508:
.LBE5565:
	.loc 4 2065 0 discriminator 1
	bne- 7,.L633
.L604:
.LBE5568:
.LBE5576:
	.loc 4 2228 0
	li 0,0
	stb 0,1044(22)
.LVL902:
.L606:
	.loc 4 2235 0
	mr 3,27
	bl _ZN11idGameLocal12RunDebugInfoEv
	.loc 4 2236 0
	bl _Z16D_DrawDebugLinesv
.LBE5583:
	.loc 4 2239 0
	lwz 0,252(1)
	lwz 12,132(1)
	mr 3,22
	mtlr 0
	lwz 14,136(1)
	lwz 15,140(1)
	mtcrf 8,12
	lwz 16,144(1)
	lwz 17,148(1)
	lwz 18,152(1)
	lwz 19,156(1)
	lwz 20,160(1)
.LVL903:
	lwz 21,164(1)
	lwz 22,168(1)
.LVL904:
	lwz 23,172(1)
	lwz 24,176(1)
	lwz 25,180(1)
	lwz 26,184(1)
	lwz 27,188(1)
.LVL905:
	lwz 28,192(1)
	lwz 29,196(1)
	lwz 30,200(1)
.LVL906:
	lwz 31,204(1)
	lfd 27,208(1)
	lfd 28,216(1)
	lfd 29,224(1)
	lfd 30,232(1)
	lfd 31,240(1)
	addi 1,1,248
	.cfi_remember_state
.LCFI169:
	.cfi_def_cfa_offset 0
	.cfi_restore 70
	.cfi_restore 63
	.cfi_restore 62
	.cfi_restore 61
	.cfi_restore 60
	.cfi_restore 59
	.cfi_restore 31
	.cfi_restore 30
	.cfi_restore 29
	.cfi_restore 28
	.cfi_restore 27
	.cfi_restore 26
	.cfi_restore 25
	.cfi_restore 24
	.cfi_restore 23
	.cfi_restore 22
	.cfi_restore 21
	.cfi_restore 20
	.cfi_restore 19
	.cfi_restore 18
	.cfi_restore 17
	.cfi_restore 16
	.cfi_restore 15
	.cfi_restore 14
	blr
.LVL907:
.L572:
.LCFI170:
	.cfi_restore_state
.LBB5584:
.LBB5577:
.LBB5569:
.LBB5566:
	.loc 4 2137 0
	lbz 0,1992(30)
	.loc 4 4268 0
	lwz 9,-32176(23)
	.loc 4 2137 0
	cmpwi 7,0,0
	.loc 4 4268 0
	lwz 0,-32180(23)
	.loc 4 2137 0
	beq- 7,.L581
.LVL908:
.LBB5509:
.LBB5510:
	.loc 9 268 0
	cmpwi 7,9,0
	li 28,0
	beq- 7,.L573
	cmpw 7,0,9
	beq- 7,.L573
	.loc 9 271 0
	lwz 31,12(9)
.LVL909:
.LBE5510:
.LBE5509:
	.loc 4 2139 0
	cmpwi 7,31,0
	beq- 7,.L573
	lis 9,g_cinematic@ha
	.loc 4 2144 0
	mr 3,31
	la 26,g_cinematic@l(9)
.LBB5511:
.LBB5512:
	.loc 7 142 0
	lwz 9,44(26)
.LBE5512:
.LBE5511:
	.loc 4 2140 0
	lwz 0,36(9)
	cmpwi 7,0,0
	beq- 7,.L582
.LVL910:
.L661:
	.loc 4 2140 0 is_stmt 0 discriminator 1
	lbz 0,160(31)
	cmpwi 7,0,0
	bne- 7,.L582
	.loc 4 2141 0 is_stmt 1 discriminator 4
	bl _ZNK8idEntity10GetPhysicsEv
.LVL911:
	lwz 4,2004(30)
	lwz 9,0(3)
	lwz 0,68(9)
	mtctr 0
	bctrl
.L612:
.LVL912:
	.loc 4 4268 0
	lwz 9,32(31)
	lwz 0,28(31)
.LBB5514:
.LBB5515:
	.loc 9 268 0
	cmpwi 7,9,0
	cmpw 6,0,9
	beq- 7,.L573
	beq- 6,.L573
	.loc 9 271 0
	lwz 31,12(9)
.LVL913:
.LBE5515:
.LBE5514:
	.loc 4 2139 0
	cmpwi 7,31,0
	beq- 7,.L573
.LBB5516:
.LBB5513:
	.loc 7 142 0
	lwz 9,44(26)
.LVL914:
.LBE5513:
.LBE5516:
	.loc 4 2144 0
	mr 3,31
	.loc 4 2140 0
	lwz 0,36(9)
	cmpwi 7,0,0
	bne- 7,.L661
.LVL915:
.L582:
	.loc 4 2144 0
	lwz 9,0(31)
	.loc 4 2145 0
	addi 28,28,1
	.loc 4 2144 0
	lwz 0,20(9)
	mtctr 0
	bctrl
.LVL916:
	b .L612
.LVL917:
.L658:
.LBB5517:
.LBB5518:
	.loc 20 193 0
	lwz 3,0(29)
.LBE5518:
.LBE5517:
	.loc 4 2191 0
	lfd 30,72(1)
.LBB5524:
.LBB5519:
	.loc 20 193 0
	lwz 9,0(3)
.LBE5519:
.LBE5524:
	.loc 4 2192 0
	lwz 31,2004(30)
.LBB5525:
.LBB5520:
	.loc 20 193 0
	lwz 0,12(9)
	mtctr 0
	bctrl
.LBE5520:
.LBE5525:
.LBB5526:
.LBB5527:
	lwz 3,0(29)
.LBE5527:
.LBE5526:
.LBB5532:
.LBB5521:
	lfd 28,.LC47@l(18)
.LBE5521:
.LBE5532:
.LBB5533:
.LBB5528:
	lwz 9,0(3)
.LBE5528:
.LBE5533:
.LBB5534:
.LBB5522:
	fmul 1,1,28
	.loc 4 2191 0
	lfd 29,48(1)
.LBE5522:
.LBE5534:
.LBB5535:
.LBB5529:
	.loc 20 193 0
	lwz 0,12(9)
	mtctr 0
.LBE5529:
.LBE5535:
.LBB5536:
.LBB5523:
	fdiv 27,30,1
.LBE5523:
.LBE5536:
.LBB5537:
.LBB5530:
	bctrl
.LBE5530:
.LBE5537:
.LBB5538:
.LBB5539:
	lwz 3,0(29)
.LBE5539:
.LBE5538:
	.loc 4 2192 0
	lfd 30,72(1)
.LBB5544:
.LBB5540:
	.loc 20 193 0
	lwz 9,0(3)
	lwz 0,12(9)
	mtctr 0
.LBE5540:
.LBE5544:
.LBB5545:
.LBB5531:
	fmul 1,1,28
	fdiv 29,29,1
.LBE5531:
.LBE5545:
.LBB5546:
.LBB5541:
	bctrl
.LBE5541:
.LBE5546:
.LBB5547:
.LBB5548:
	lwz 3,0(29)
	lwz 9,0(3)
	lwz 0,12(9)
	mtctr 0
.LBE5548:
.LBE5547:
.LBB5551:
.LBB5542:
	fmul 1,1,28
.LBE5542:
.LBE5551:
	.loc 4 2192 0
	fadd 29,27,29
.LBB5552:
.LBB5543:
	.loc 20 193 0
	fdiv 27,30,1
	.loc 4 2192 0
	lfd 30,48(1)
.LBE5543:
.LBE5552:
.LBB5553:
.LBB5549:
	.loc 20 193 0
	bctrl
.LBE5549:
.LBE5553:
	.loc 4 2192 0
	lis 9,.LC53@ha
	lwz 4,.LC53@l(9)
	mr 3,27
	mr 5,31
	mr 6,28
.LBB5554:
.LBB5550:
	.loc 20 193 0
	fmul 0,1,28
.LBE5550:
.LBE5554:
	.loc 4 2192 0
	fmr 2,27
	fmr 1,29
	fdiv 3,30,0
	creqv 6,6,6
	bl _ZNK11idGameLocal6PrintfEPKcz
	b .L599
.L657:
	.loc 4 2185 0
	addi 3,30,1416
	bl _ZN17idMultiplayerGame3RunEv
	b .L598
.L656:
.LBB5555:
.LBB5498:
	.loc 20 159 0
	addi 3,1,32
	bl _ZNK7idTimer18InitBaseClockTicksEv
	lfd 29,48(1)
	lfd 0,0(25)
	b .L594
.LVL918:
.L655:
.LBE5498:
.LBE5555:
.LBB5556:
.LBB5485:
	addi 3,1,56
	bl _ZNK7idTimer18InitBaseClockTicksEv
	lfd 30,72(1)
	lfd 0,0(25)
	b .L590
.LVL919:
.L581:
.LBE5485:
.LBE5556:
.LBB5557:
.LBB5558:
	.loc 9 268 0
	cmpwi 7,9,0
	li 28,0
	beq- 7,.L573
	cmpw 7,0,9
	bne+ 7,.L651
	b .L573
.LVL920:
.L662:
.LBE5558:
.LBE5557:
.LBB5560:
.LBB5561:
	beq- 6,.L573
.LVL921:
.L651:
.LBE5561:
.LBE5560:
.LBB5563:
.LBB5559:
	.loc 9 271 0
	lwz 31,12(9)
.LVL922:
.LBE5559:
.LBE5563:
	.loc 4 2149 0
	cmpwi 7,31,0
	beq- 7,.L573
	.loc 4 2150 0
	lwz 9,0(31)
.LVL923:
	mr 3,31
	.loc 4 2151 0
	addi 28,28,1
	.loc 4 2150 0
	lwz 0,20(9)
	mtctr 0
	bctrl
.LVL924:
	.loc 4 4268 0
	lwz 9,32(31)
	lwz 0,28(31)
.LBB5564:
.LBB5562:
	.loc 9 268 0
	cmpwi 7,9,0
	cmpw 6,0,9
	bne+ 7,.L662
	b .L573
.LVL925:
.L638:
.LBE5562:
.LBE5564:
.LBE5566:
.LBE5569:
.LBB5570:
.LBB5571:
	.loc 4 2055 0 discriminator 1
	lis 9,g_stopTime+44@ha
	.loc 7 142 0 discriminator 1
	lwz 9,g_stopTime+44@l(9)
.LBE5571:
.LBE5570:
	.loc 4 2055 0 discriminator 1
	lwz 0,36(9)
	cmpwi 7,0,0
	beq- 7,.L663
	.loc 4 2057 0 discriminator 4
	lis 9,gameRenderWorld@ha
	lwz 4,2004(30)
	lwz 3,gameRenderWorld@l(9)
	addi 4,4,1
	lwz 9,0(3)
	lwz 0,152(9)
	mtctr 0
	bctrl
	.loc 4 2060 0 discriminator 4
	lwz 5,48(27)
	lwz 4,112(1)
	addi 3,27,228
	slwi 5,5,5
	bl memcpy
	.loc 4 2062 0 discriminator 4
	cmpwi 7,20,0
	beq- 7,.L568
	.loc 4 2063 0
	lwz 9,0(20)
	mr 3,20
	lwz 0,20(9)
	mtctr 0
	bctrl
	lbz 0,1993(30)
	cmpwi 7,0,0
	b .L569
.L663:
	addi 11,27,228
	lis 16,gameRenderWorld@ha
	lis 29,_ZN5idLib3sysE@ha
	lis 19,g_timeentities@ha
	lis 25,_ZN7idTimer4baseE@ha
	lis 9,g_frametime@ha
	stw 11,120(1)
	b .L649
.L568:
.LBB5572:
	.loc 4 2065 0
	lbz 0,1993(30)
	cmpwi 7,0,0
	b .L569
.LVL926:
.L659:
.LBB5567:
	.loc 4 2216 0
	lwz 4,1388(30)
	mr 3,22
	li 5,1024
	bl strncpy
	lbz 0,1993(30)
	cmpwi 7,0,0
	.loc 4 2217 0
	b .L569
.LVL927:
.L660:
	.loc 4 2222 0
	lis 4,.LC52@ha
	mr 3,27
	la 4,.LC52@l(4)
	crxor 6,6,6
	bl _ZNK11idGameLocal7WarningEPKcz
	.loc 4 2223 0
	stb 31,1993(30)
	.loc 4 2224 0
	b .L604
.LBE5567:
.LBE5572:
.LBE5577:
.LBE5584:
	.cfi_endproc
.LFE2887:
	.size	_ZN11idGameLocal8RunFrameEPK9usercmd_t, .-_ZN11idGameLocal8RunFrameEPK9usercmd_t
	.align 2
	.globl _ZNK11idGameLocal6GetAASEPKc
	.type	_ZNK11idGameLocal6GetAASEPKc, @function
_ZNK11idGameLocal6GetAASEPKc:
.LFB2908:
	.loc 4 2688 0
	.cfi_startproc
.LVL928:
	mflr 0
	stwu 1,-24(1)
.LCFI171:
	.cfi_def_cfa_offset 24
	.cfi_register 65, 0
	stw 29,12(1)
	mr 29,4
	.cfi_offset 29, -12
	stw 30,16(1)
.LBB5585:
	.loc 4 4268 0
	addis 30,3,0x25
	.cfi_offset 30, -8
.LBE5585:
	.loc 4 2688 0
	stw 0,28(1)
.LBB5590:
	.loc 4 2700 0
	li 3,0
.LVL929:
.LBE5590:
	.loc 4 2688 0
	stw 31,20(1)
.LBB5591:
	.loc 4 2691 0
	lwz 0,2140(30)
	.cfi_offset 31, -4
	.cfi_offset 65, 4
	cmpwi 7,0,0
	ble- 7,.L665
	li 31,0
	b .L667
.LVL930:
.L666:
	lwz 0,2140(30)
	addi 31,31,1
.LVL931:
	cmpw 7,0,31
	ble- 7,.L671
.LVL932:
.L667:
.LBB5586:
.LBB5587:
	.loc 4 4268 0
	lwz 9,2152(30)
	slwi 0,31,5
	.loc 14 653 0
	mr 4,29
	.loc 4 4268 0
	add 9,9,0
	.loc 14 653 0
	lwz 3,4(9)
	bl _ZN5idStr3CmpEPKcS1_
.LBE5587:
.LBE5586:
	.loc 4 2692 0
	cmpwi 7,3,0
	bne+ 7,.L666
.LVL933:
	.loc 4 2693 0
	lwz 9,2136(30)
.LBB5588:
.LBB5589:
	.loc 8 573 0
	slwi 31,31,2
.LVL934:
.LBE5589:
.LBE5588:
	.loc 4 2693 0
	lwzx 3,9,31
	lwz 9,0(3)
	lwz 0,20(9)
	mtctr 0
	bctrl
	cmpwi 7,3,0
	.loc 4 2694 0
	li 3,0
	.loc 4 2693 0
	beq- 7,.L665
	.loc 4 2696 0
	lwz 9,2136(30)
	lwzx 3,9,31
.LVL935:
.L665:
.LBE5591:
	.loc 4 2701 0
	lwz 0,28(1)
	lwz 29,12(1)
.LVL936:
	mtlr 0
	lwz 30,16(1)
.LVL937:
	lwz 31,20(1)
	addi 1,1,24
	.cfi_remember_state
.LCFI172:
	.cfi_def_cfa_offset 0
	.cfi_restore 31
	.cfi_restore 30
	.cfi_restore 29
	blr
.LVL938:
.L671:
.LCFI173:
	.cfi_restore_state
	lwz 0,28(1)
.LBB5592:
	.loc 4 2700 0
	li 3,0
.LBE5592:
	.loc 4 2701 0
	lwz 29,12(1)
.LVL939:
	mtlr 0
	lwz 30,16(1)
.LVL940:
	lwz 31,20(1)
.LVL941:
	addi 1,1,24
	.cfi_restore 29
	.cfi_restore 30
	.cfi_restore 31
.LCFI174:
	.cfi_def_cfa_offset 0
	blr
	.cfi_endproc
.LFE2908:
	.size	_ZNK11idGameLocal6GetAASEPKc, .-_ZNK11idGameLocal6GetAASEPKc
	.align 2
	.globl _ZN11idGameLocal15SetAASAreaStateERK8idBoundsib
	.type	_ZN11idGameLocal15SetAASAreaStateERK8idBoundsib, @function
_ZN11idGameLocal15SetAASAreaStateERK8idBoundsib:
.LFB2909:
	.loc 4 2708 0
	.cfi_startproc
.LVL942:
	mflr 0
	stwu 1,-32(1)
.LCFI175:
	.cfi_def_cfa_offset 32
	.cfi_register 65, 0
	stw 27,12(1)
	mr 27,6
	.cfi_offset 27, -20
	stw 28,16(1)
	mr 28,5
	.cfi_offset 28, -16
	stw 29,20(1)
	mr 29,4
	.cfi_offset 29, -12
	stw 30,24(1)
.LBB5593:
	.loc 4 4268 0
	addis 30,3,0x25
	.cfi_offset 30, -8
.LBE5593:
	.loc 4 2708 0
	stw 0,36(1)
	stw 31,28(1)
.LBB5594:
	.loc 4 2711 0
	lwz 0,2124(30)
	.cfi_offset 31, -4
	.cfi_offset 65, 4
	cmpwi 7,0,0
	ble- 7,.L672
	li 31,0
.LVL943:
.L674:
	.loc 4 2712 0 discriminator 2
	lwz 9,2136(30)
	slwi 0,31,2
	mr 4,29
	mr 5,28
	lwzx 3,9,0
	mr 6,27
	.loc 4 2711 0 discriminator 2
	addi 31,31,1
.LVL944:
	.loc 4 2712 0 discriminator 2
	lwz 9,0(3)
	lwz 0,76(9)
	mtctr 0
	bctrl
.LVL945:
	.loc 4 2711 0 discriminator 2
	lwz 0,2124(30)
	cmpw 7,0,31
	bgt+ 7,.L674
.LVL946:
.L672:
.LBE5594:
	.loc 4 2714 0
	lwz 0,36(1)
	lwz 27,12(1)
	mtlr 0
	lwz 28,16(1)
.LVL947:
	lwz 29,20(1)
.LVL948:
	lwz 30,24(1)
.LVL949:
	lwz 31,28(1)
	addi 1,1,32
.LCFI176:
	.cfi_def_cfa_offset 0
	.cfi_restore 31
	.cfi_restore 30
	.cfi_restore 29
	.cfi_restore 28
	.cfi_restore 27
	blr
	.cfi_endproc
.LFE2909:
	.size	_ZN11idGameLocal15SetAASAreaStateERK8idBoundsib, .-_ZN11idGameLocal15SetAASAreaStateERK8idBoundsib
	.align 2
	.globl _ZN11idGameLocal14AddAASObstacleERK8idBounds
	.type	_ZN11idGameLocal14AddAASObstacleERK8idBounds, @function
_ZN11idGameLocal14AddAASObstacleERK8idBounds:
.LFB2910:
	.loc 4 2721 0
	.cfi_startproc
.LVL950:
	mflr 0
	stwu 1,-24(1)
.LCFI177:
	.cfi_def_cfa_offset 24
	.cfi_register 65, 0
	stw 28,8(1)
.LBB5595:
	.loc 4 2727 0
	li 28,-1
	.cfi_offset 28, -16
.LBE5595:
	.loc 4 2721 0
	stw 29,12(1)
	mr 29,4
	.cfi_offset 29, -12
	stw 30,16(1)
.LBB5596:
	.loc 4 4268 0
	addis 30,3,0x25
	.cfi_offset 30, -8
.LBE5596:
	.loc 4 2721 0
	stw 0,28(1)
	stw 31,20(1)
.LBB5597:
	.loc 4 2726 0
	lwz 0,2124(30)
	.cfi_offset 31, -4
	.cfi_offset 65, 4
	cmpwi 7,0,0
	beq- 7,.L677
.LVL951:
	.loc 4 2730 0
	lwz 9,2136(30)
	lwz 3,0(9)
.LVL952:
	lwz 9,0(3)
	lwz 0,80(9)
	mtctr 0
	bctrl
.LVL953:
	.loc 4 2731 0
	lwz 0,2124(30)
	.loc 4 2730 0
	mr 28,3
.LVL954:
	.loc 4 2731 0
	cmpwi 7,0,1
	ble- 7,.L677
	li 31,1
.LVL955:
.L678:
	.loc 4 2732 0 discriminator 2
	lwz 9,2136(30)
	slwi 0,31,2
	mr 4,29
	.loc 4 2731 0 discriminator 2
	addi 31,31,1
.LVL956:
	.loc 4 2732 0 discriminator 2
	lwzx 3,9,0
	lwz 9,0(3)
	lwz 0,80(9)
	mtctr 0
	bctrl
.LVL957:
	.loc 4 2731 0 discriminator 2
	lwz 0,2124(30)
	cmpw 7,0,31
	bgt+ 7,.L678
.LVL958:
.L677:
.LBE5597:
	.loc 4 2737 0
	lwz 0,28(1)
	mr 3,28
	lwz 29,12(1)
.LVL959:
	mtlr 0
	lwz 28,8(1)
	lwz 30,16(1)
.LVL960:
	lwz 31,20(1)
	addi 1,1,24
.LCFI178:
	.cfi_def_cfa_offset 0
	.cfi_restore 31
	.cfi_restore 30
	.cfi_restore 29
	.cfi_restore 28
	blr
	.cfi_endproc
.LFE2910:
	.size	_ZN11idGameLocal14AddAASObstacleERK8idBounds, .-_ZN11idGameLocal14AddAASObstacleERK8idBounds
	.align 2
	.globl _ZN11idGameLocal17RemoveAASObstacleEi
	.type	_ZN11idGameLocal17RemoveAASObstacleEi, @function
_ZN11idGameLocal17RemoveAASObstacleEi:
.LFB2911:
	.loc 4 2744 0
	.cfi_startproc
.LVL961:
	mflr 0
	stwu 1,-24(1)
.LCFI179:
	.cfi_def_cfa_offset 24
	.cfi_register 65, 0
	stw 29,12(1)
	mr 29,4
	.cfi_offset 29, -12
	stw 30,16(1)
.LBB5598:
	.loc 4 4268 0
	addis 30,3,0x25
	.cfi_offset 30, -8
.LBE5598:
	.loc 4 2744 0
	stw 0,28(1)
	stw 31,20(1)
.LBB5599:
	.loc 4 2747 0
	lwz 0,2124(30)
	.cfi_offset 31, -4
	.cfi_offset 65, 4
	cmpwi 7,0,0
	ble- 7,.L681
	li 31,0
.LVL962:
.L683:
	.loc 4 2748 0 discriminator 2
	lwz 9,2136(30)
	slwi 0,31,2
	mr 4,29
	.loc 4 2747 0 discriminator 2
	addi 31,31,1
.LVL963:
	.loc 4 2748 0 discriminator 2
	lwzx 3,9,0
	lwz 9,0(3)
	lwz 0,84(9)
	mtctr 0
	bctrl
.LVL964:
	.loc 4 2747 0 discriminator 2
	lwz 0,2124(30)
	cmpw 7,0,31
	bgt+ 7,.L683
.LVL965:
.L681:
.LBE5599:
	.loc 4 2750 0
	lwz 0,28(1)
	lwz 29,12(1)
.LVL966:
	mtlr 0
	lwz 30,16(1)
.LVL967:
	lwz 31,20(1)
	addi 1,1,24
.LCFI180:
	.cfi_def_cfa_offset 0
	.cfi_restore 31
	.cfi_restore 30
	.cfi_restore 29
	blr
	.cfi_endproc
.LFE2911:
	.size	_ZN11idGameLocal17RemoveAASObstacleEi, .-_ZN11idGameLocal17RemoveAASObstacleEi
	.align 2
	.globl _ZN11idGameLocal21RemoveAllAASObstaclesEv
	.type	_ZN11idGameLocal21RemoveAllAASObstaclesEv, @function
_ZN11idGameLocal21RemoveAllAASObstaclesEv:
.LFB2912:
	.loc 4 2757 0
	.cfi_startproc
.LVL968:
	mflr 0
	stwu 1,-16(1)
.LCFI181:
	.cfi_def_cfa_offset 16
	.cfi_register 65, 0
	stw 30,8(1)
.LBB5600:
	.loc 4 4268 0
	addis 30,3,0x25
	.cfi_offset 30, -8
.LBE5600:
	.loc 4 2757 0
	stw 0,20(1)
	stw 31,12(1)
.LBB5601:
	.loc 4 2760 0
	lwz 0,2124(30)
	.cfi_offset 31, -4
	.cfi_offset 65, 4
	cmpwi 7,0,0
	ble- 7,.L685
	li 31,0
.LVL969:
.L687:
	.loc 4 2761 0 discriminator 2
	lwz 9,2136(30)
	slwi 0,31,2
	.loc 4 2760 0 discriminator 2
	addi 31,31,1
.LVL970:
	.loc 4 2761 0 discriminator 2
	lwzx 3,9,0
	lwz 9,0(3)
	lwz 0,88(9)
	mtctr 0
	bctrl
.LVL971:
	.loc 4 2760 0 discriminator 2
	lwz 0,2124(30)
	cmpw 7,0,31
	bgt+ 7,.L687
.LVL972:
.L685:
.LBE5601:
	.loc 4 2763 0
	lwz 0,20(1)
	lwz 30,8(1)
.LVL973:
	mtlr 0
	lwz 31,12(1)
	addi 1,1,16
.LCFI182:
	.cfi_def_cfa_offset 0
	.cfi_restore 31
	.cfi_restore 30
	blr
	.cfi_endproc
.LFE2912:
	.size	_ZN11idGameLocal21RemoveAllAASObstaclesEv, .-_ZN11idGameLocal21RemoveAllAASObstaclesEv
	.align 2
	.globl _ZN11idGameLocal8CheatsOkEb
	.type	_ZN11idGameLocal8CheatsOkEb, @function
_ZN11idGameLocal8CheatsOkEb:
.LFB2913:
	.loc 4 2770 0
	.cfi_startproc
.LVL974:
	mflr 0
	stwu 1,-24(1)
.LCFI183:
	.cfi_def_cfa_offset 24
	.cfi_register 65, 0
.LBB5602:
	.loc 4 2773 0
	addis 9,3,0x25
.LBE5602:
	.loc 4 2770 0
	stw 30,16(1)
	mr 30,4
	.cfi_offset 30, -8
	stw 31,20(1)
	mr 31,3
	.cfi_offset 31, -4
	stw 0,28(1)
	stw 29,12(1)
.LBB5607:
	.loc 4 2773 0
	lbz 0,2016(9)
	.cfi_offset 29, -12
	.cfi_offset 65, 4
	cmpwi 7,0,0
	bne- 7,.L698
.LVL975:
.L690:
.LBB5603:
.LBB5604:
	.loc 4 2778 0
	lis 9,developer+44@ha
.LBE5604:
.LBE5603:
	.loc 4 2779 0
	li 29,1
.LBB5606:
.LBB5605:
	.loc 7 142 0
	lwz 9,developer+44@l(9)
.LBE5605:
.LBE5606:
	.loc 4 2778 0
	lwz 0,36(9)
	cmpwi 7,0,0
	beq- 7,.L699
.L691:
.LBE5607:
	.loc 4 2790 0
	lwz 0,28(1)
	mr 3,29
	lwz 30,16(1)
	mtlr 0
	lwz 29,12(1)
	lwz 31,20(1)
.LVL976:
	addi 1,1,24
	.cfi_remember_state
.LCFI184:
	.cfi_def_cfa_offset 0
	.cfi_restore 31
	.cfi_restore 30
	.cfi_restore 29
	blr
.LVL977:
.L699:
.LCFI185:
	.cfi_restore_state
.LBB5608:
	.loc 4 2782 0
	mr 3,31
	bl _ZNK11idGameLocal14GetLocalPlayerEv
.LVL978:
	.loc 4 2783 0
	cmpwi 7,30,0
	beq- 7,.L691
	.loc 4 2783 0 is_stmt 0 discriminator 1
	cmpwi 7,3,0
	beq- 7,.L692
	.loc 4 2783 0 discriminator 2
	lwz 0,188(3)
	cmpwi 7,0,0
	bgt+ 7,.L691
.L692:
	.loc 4 2787 0 is_stmt 1
	lis 4,.LC56@ha
	mr 3,31
.LVL979:
	la 4,.LC56@l(4)
	.loc 4 2789 0
	li 29,0
	.loc 4 2787 0
	crxor 6,6,6
	bl _ZNK11idGameLocal6PrintfEPKcz
	.loc 4 2789 0
	b .L691
.LVL980:
.L698:
	.loc 4 2773 0 discriminator 1
	lis 9,cvarSystem@ha
	lis 4,.LC54@ha
.LVL981:
	lwz 3,cvarSystem@l(9)
	la 4,.LC54@l(4)
	lwz 9,0(3)
	lwz 0,48(9)
	mtctr 0
	bctrl
	cmpwi 7,3,0
	bne- 7,.L690
	.loc 4 2774 0 discriminator 4
	lis 4,.LC55@ha
	mr 3,31
	la 4,.LC55@l(4)
	.loc 4 2775 0 discriminator 4
	li 29,0
	.loc 4 2774 0 discriminator 4
	crxor 6,6,6
	bl _ZNK11idGameLocal6PrintfEPKcz
.LBE5608:
	.loc 4 2790 0 discriminator 4
	lwz 0,28(1)
	mr 3,29
	lwz 30,16(1)
	mtlr 0
	lwz 29,12(1)
	lwz 31,20(1)
.LVL982:
	addi 1,1,24
	.cfi_restore 29
	.cfi_restore 30
	.cfi_restore 31
.LCFI186:
	.cfi_def_cfa_offset 0
	blr
	.cfi_endproc
.LFE2913:
	.size	_ZN11idGameLocal8CheatsOkEb, .-_ZN11idGameLocal8CheatsOkEb
	.align 2
	.globl _ZN11idGameLocal14RegisterEntityEP8idEntity
	.type	_ZN11idGameLocal14RegisterEntityEP8idEntity, @function
_ZN11idGameLocal14RegisterEntityEP8idEntity:
.LFB2914:
	.loc 4 2797 0
	.cfi_startproc
.LVL983:
	mflr 0
	stwu 1,-48(1)
.LCFI187:
	.cfi_def_cfa_offset 48
	.cfi_register 65, 0
	stw 29,36(1)
.LBB5609:
	.loc 4 2800 0
	addis 29,3,0x25
	.cfi_offset 29, -12
.LBE5609:
	.loc 4 2797 0
	stw 0,52(1)
.LBB5625:
	.loc 4 2800 0
	lis 0,0xf
	.cfi_offset 65, 4
.LBE5625:
	.loc 4 2797 0
	stw 30,40(1)
.LBB5626:
	.loc 4 2800 0
	ori 0,0,65535
.LBE5626:
	.loc 4 2797 0
	stw 31,44(1)
	mr 30,3
	.cfi_offset 31, -4
	.cfi_offset 30, -8
	stw 27,28(1)
	mr 31,4
	stw 28,32(1)
.LBB5627:
	.loc 4 2800 0
	lwz 9,2104(29)
	cmpw 7,9,0
	bgt- 7,.L712
	.cfi_offset 28, -16
	.cfi_offset 27, -20
.LVL984:
.L701:
	.loc 4 2804 0
	addi 28,29,2164
	lis 4,.LC58@ha
	lis 5,.LC59@ha
	mr 3,28
	la 4,.LC58@l(4)
	la 5,.LC59@l(5)
	addi 6,1,8
	bl _ZNK6idDict6GetIntEPKcS1_Ri
	cmpwi 7,3,0
	beq- 7,.L702
.LVL985:
	lwz 9,8(1)
	addis 27,30,0x1
.L703:
	.loc 4 2814 0
	addi 11,9,132
	.loc 4 2815 0
	addi 0,9,4228
	.loc 4 2814 0
	slwi 11,11,2
	.loc 4 2815 0
	slwi 0,0,2
	.loc 4 2814 0
	add 11,30,11
	.loc 4 2815 0
	add 30,30,0
.LVL986:
	.loc 4 2814 0
	stw 31,4(11)
	.loc 4 2818 0
	addi 3,31,100
	mr 4,28
	.loc 4 2815 0
	lwz 11,2104(29)
	addi 0,11,1
	stw 11,4(30)
	stw 0,2104(29)
	.loc 4 2816 0
	stw 9,4(31)
.LBB5610:
.LBB5611:
.LBB5612:
.LBB5613:
.LBB5614:
	.loc 9 176 0
	lwz 11,20(31)
	lwz 0,16(31)
.LBE5614:
.LBE5613:
.LBE5612:
.LBE5611:
.LBE5610:
	.loc 4 4268 0
	lwz 9,-32196(27)
.LBB5623:
.LBB5621:
.LBB5619:
.LBB5617:
.LBB5615:
	.loc 9 176 0
	stw 0,4(11)
.LBE5615:
.LBE5617:
.LBE5619:
.LBE5621:
.LBE5623:
	.loc 4 2817 0
	addi 0,31,12
.LVL987:
.LBB5624:
.LBB5622:
.LBB5620:
.LBB5618:
.LBB5616:
	.loc 9 177 0
	lwz 10,20(31)
	lwz 11,16(31)
	stw 10,8(11)
	.loc 9 180 0
	stw 0,20(31)
	.loc 9 181 0
	stw 0,12(31)
.LBE5616:
.LBE5618:
	.loc 9 196 0
	stw 9,16(31)
	.loc 9 197 0
	lwz 11,8(9)
	stw 11,20(31)
	.loc 9 198 0
	stw 0,8(9)
	.loc 9 199 0
	lwz 11,20(31)
	stw 0,4(11)
	.loc 9 200 0
	lwz 0,0(9)
.LVL988:
	stw 0,12(31)
.LBE5620:
.LBE5622:
.LBE5624:
	.loc 4 2818 0
	bl _ZN6idDict17TransferKeyValuesERS_
.LVL989:
	.loc 4 2820 0
	lwz 9,-32232(27)
	lwz 0,8(1)
	cmpw 7,9,0
	bgt- 7,.L700
	.loc 4 2821 0
	addi 9,9,1
	stw 9,-32232(27)
.L700:
.LBE5627:
	.loc 4 2823 0
	lwz 0,52(1)
	lwz 27,28(1)
	mtlr 0
	lwz 28,32(1)
	lwz 29,36(1)
.LVL990:
	lwz 30,40(1)
	lwz 31,44(1)
.LVL991:
	addi 1,1,48
	.cfi_remember_state
.LCFI188:
	.cfi_def_cfa_offset 0
	.cfi_restore 31
	.cfi_restore 30
	.cfi_restore 29
	.cfi_restore 28
	.cfi_restore 27
	blr
.LVL992:
.L702:
.LCFI189:
	.cfi_restore_state
.LBB5628:
	.loc 4 2805 0 discriminator 1
	addis 27,30,0x1
	lwz 9,-32236(27)
	addi 11,9,132
	slwi 11,11,2
	add 11,30,11
	lwz 0,4(11)
	addi 11,11,4
	cmpwi 7,0,0
	beq- 7,.L704
	.loc 4 2805 0 is_stmt 0
	cmpwi 7,9,4093
	.loc 4 2797 0 is_stmt 1
	subfic 0,9,4094
	mtctr 0
	.loc 4 2805 0
	ble- 7,.L706
.L710:
	.loc 4 2809 0
	lis 4,.LC60@ha
	mr 3,30
	la 4,.LC60@l(4)
	crxor 6,6,6
	bl _ZNK11idGameLocal5ErrorEPKcz
.L708:
	.loc 4 2811 0
	lwz 9,-32236(27)
	addi 0,9,1
	stw 9,8(1)
.LVL993:
	stw 0,-32236(27)
	b .L703
.LVL994:
.L706:
	.loc 4 2805 0 discriminator 5
	lwzu 0,4(11)
	.loc 4 2806 0 discriminator 5
	addi 9,9,1
	.loc 4 2805 0 discriminator 5
	cmpwi 7,0,0
	beq- 7,.L713
	.loc 4 2805 0 is_stmt 0 discriminator 2
	bdnz .L706
	.loc 4 2805 0
	stw 9,-32236(27)
	b .L710
.L713:
	stw 9,-32236(27)
.L704:
	.loc 4 2808 0 is_stmt 1
	cmpwi 7,9,4093
	ble+ 7,.L708
	b .L710
.L712:
	.loc 4 2801 0
	lis 4,.LC57@ha
	la 4,.LC57@l(4)
	crxor 6,6,6
	bl _ZNK11idGameLocal5ErrorEPKcz
	b .L701
.LBE5628:
	.cfi_endproc
.LFE2914:
	.size	_ZN11idGameLocal14RegisterEntityEP8idEntity, .-_ZN11idGameLocal14RegisterEntityEP8idEntity
	.align 2
	.globl _ZN11idGameLocal16UnregisterEntityEP8idEntity
	.type	_ZN11idGameLocal16UnregisterEntityEP8idEntity, @function
_ZN11idGameLocal16UnregisterEntityEP8idEntity:
.LFB2915:
	.loc 4 2830 0
	.cfi_startproc
.LVL995:
	mflr 0
	stwu 1,-16(1)
.LCFI190:
	.cfi_def_cfa_offset 16
	.cfi_register 65, 0
	.loc 4 2833 0
	addis 9,3,0x25
	.loc 4 2830 0
	stw 30,8(1)
	mr 30,3
	.cfi_offset 30, -8
	stw 31,12(1)
	mr 31,4
	.cfi_offset 31, -4
	stw 0,20(1)
	.loc 4 2833 0
	lwz 3,1976(9)
.LVL996:
	cmpwi 7,3,0
	beq- 7,.L715
	.cfi_offset 65, 4
	.loc 4 2834 0
	bl _ZN14idEditEntities20RemoveSelectedEntityEP8idEntity
.LVL997:
.L715:
	.loc 4 2837 0
	lwz 9,4(31)
	cmpwi 7,9,4095
	beq- 7,.L714
	.loc 4 2837 0 is_stmt 0 discriminator 1
	addi 9,9,132
	slwi 9,9,2
	add 9,30,9
	lwz 9,4(9)
	cmpw 7,9,31
	beq- 7,.L718
.L714:
	.loc 4 2846 0 is_stmt 1
	lwz 0,20(1)
	lwz 30,8(1)
.LVL998:
	mtlr 0
	lwz 31,12(1)
.LVL999:
	addi 1,1,16
	.cfi_remember_state
.LCFI191:
	.cfi_def_cfa_offset 0
	.cfi_restore 31
	.cfi_restore 30
	blr
.LVL1000:
.L718:
.LCFI192:
	.cfi_restore_state
.LBB5629:
.LBB5630:
	.loc 9 176 0
	lwz 11,20(31)
.LBE5630:
.LBE5629:
	.loc 4 2838 0
	addi 0,31,12
.LVL1001:
.LBB5634:
.LBB5631:
	.loc 9 176 0
	lwz 10,16(31)
	stw 10,4(11)
	.loc 9 177 0
	lwz 11,16(31)
	lwz 10,20(31)
	stw 10,8(11)
	.loc 9 179 0
	stw 0,16(31)
.LBE5631:
.LBE5634:
	.loc 4 2839 0
	lwz 11,4(31)
.LBB5635:
.LBB5632:
	.loc 9 180 0
	stw 0,20(31)
.LBE5632:
.LBE5635:
	.loc 4 2839 0
	addi 11,11,132
.LBB5636:
.LBB5633:
	.loc 9 181 0
	stw 0,12(31)
.LBE5633:
.LBE5636:
	.loc 4 2839 0
	slwi 11,11,2
	li 0,0
.LVL1002:
	add 11,30,11
	stw 0,4(11)
	.loc 4 2840 0
	li 0,-1
	lwz 11,4(31)
	addi 11,11,4228
	slwi 11,11,2
	add 11,30,11
	stw 0,4(11)
	.loc 4 2841 0
	lwz 0,4(31)
	cmpwi 7,0,3
	ble- 7,.L717
	.loc 4 2841 0 is_stmt 0 discriminator 1
	addis 30,30,0x1
.LVL1003:
	lwz 11,-32236(30)
	cmpw 7,0,11
	bge- 7,.L717
	.loc 4 2842 0 is_stmt 1
	stw 0,-32236(30)
.LVL1004:
.L717:
	.loc 4 2844 0
	li 0,4095
	stw 0,4(9)
	.loc 4 2846 0
	lwz 0,20(1)
	lwz 30,8(1)
	mtlr 0
	lwz 31,12(1)
.LVL1005:
	addi 1,1,16
	.cfi_restore 30
	.cfi_restore 31
.LCFI193:
	.cfi_def_cfa_offset 0
	blr
	.cfi_endproc
.LFE2915:
	.size	_ZN11idGameLocal16UnregisterEntityEP8idEntity, .-_ZN11idGameLocal16UnregisterEntityEP8idEntity
	.align 2
	.globl _ZN11idGameLocal15SpawnEntityTypeERK10idTypeInfoPK6idDictb
	.type	_ZN11idGameLocal15SpawnEntityTypeERK10idTypeInfoPK6idDictb, @function
_ZN11idGameLocal15SpawnEntityTypeERK10idTypeInfoPK6idDictb:
.LFB2916:
	.loc 4 2853 0
	.cfi_startproc
	.cfi_personality 0,__gxx_personality_v0
	.cfi_lsda 0,.LLSDA2916
.LVL1006:
	mflr 0
	stwu 1,-24(1)
.LCFI194:
	.cfi_def_cfa_offset 24
	.cfi_register 65, 0
.LBB5637:
.LBB5638:
.LBB5639:
	.loc 4 2862 0
	lis 9,_ZN8idEntity4TypeE@ha
.LBE5639:
.LBE5638:
.LBE5637:
	.loc 4 2853 0
	stw 29,12(1)
.LBB5646:
.LBB5642:
.LBB5640:
	.loc 4 2862 0
	la 9,_ZN8idEntity4TypeE@l(9)
.LBE5640:
.LBE5642:
.LBE5646:
	.loc 4 2853 0
	stw 30,16(1)
	mr 29,5
	.cfi_offset 30, -8
	.cfi_offset 29, -12
	stw 31,20(1)
	mr 30,3
	stw 0,28(1)
	.loc 4 2853 0
	mr 31,4
	.cfi_offset 65, 4
	.cfi_offset 31, -4
.LBB5647:
.LBB5643:
	.loc 4 4268 0
	lwz 0,56(4)
.LBE5643:
.LBB5644:
.LBB5641:
	.loc 5 311 0
	lwz 11,56(9)
	cmpw 7,0,11
	blt- 7,.L720
	lwz 9,60(9)
	cmpw 7,0,9
	bgt- 7,.L720
.LBE5641:
.LBE5644:
	.loc 4 2867 0
	cmpwi 7,29,0
	.loc 4 2868 0
	addis 30,30,0x25
	addi 3,30,2164
.LVL1007:
	.loc 4 2867 0
	beq- 7,.L721
.LVL1008:
.L729:
	.loc 4 2868 0
	mr 4,29
.LEHB28:
	bl _ZN6idDictaSERKS_
.L722:
	.loc 4 2872 0
	lwz 0,8(31)
	mtctr 0
	bctrl
	mr 31,3
.LVL1009:
	.loc 4 2873 0
	bl _ZN7idClass9CallSpawnEv
.LEHE28:
.LVL1010:
.L726:
	.loc 4 2879 0
	addi 3,30,2164
.LEHB29:
	bl _ZN6idDict5ClearEv
.LBE5647:
	.loc 4 2882 0
	lwz 0,28(1)
	mr 3,31
	lwz 29,12(1)
.LVL1011:
	mtlr 0
	lwz 30,16(1)
	lwz 31,20(1)
.LVL1012:
	addi 1,1,24
	.cfi_remember_state
.LCFI195:
	.cfi_def_cfa_offset 0
	.cfi_restore 31
	.cfi_restore 30
	.cfi_restore 29
	blr
.LVL1013:
.L720:
.LCFI196:
	.cfi_restore_state
.LBB5648:
	.loc 4 2863 0
	lwz 5,0(31)
.LVL1014:
	lis 4,.LC61@ha
.LVL1015:
	mr 3,30
.LVL1016:
	la 4,.LC61@l(4)
	crxor 6,6,6
	bl _ZNK11idGameLocal5ErrorEPKcz
.LEHE29:
.LVL1017:
	.loc 4 2867 0
	cmpwi 7,29,0
	.loc 4 2868 0
	addis 30,30,0x25
.LVL1018:
	addi 3,30,2164
	.loc 4 2867 0
	bne+ 7,.L729
.LVL1019:
.L721:
.LEHB30:
	.loc 4 2870 0
	bl _ZN6idDict5ClearEv
.LEHE30:
	b .L722
.LVL1020:
.L728:
	.loc 4 2881 0
	cmpwi 7,4,1
	beq- 7,.L725
.LEHB31:
	bl _Unwind_Resume
.LEHE31:
.L725:
.LBB5645:
	.loc 4 2876 0
	bl __cxa_begin_catch
.LVL1021:
	.loc 4 2877 0
	li 31,0
	.loc 4 2876 0
	bl __cxa_end_catch
	b .L726
.LBE5645:
.LBE5648:
	.cfi_endproc
.LFE2916:
	.section	.gcc_except_table
	.align 2
.LLSDA2916:
	.byte	0xff
	.byte	0
	.uleb128 .LLSDATT2916-.LLSDATTD2916
.LLSDATTD2916:
	.byte	0x1
	.uleb128 .LLSDACSE2916-.LLSDACSB2916
.LLSDACSB2916:
	.uleb128 .LEHB28-.LFB2916
	.uleb128 .LEHE28-.LEHB28
	.uleb128 .L728-.LFB2916
	.uleb128 0x1
	.uleb128 .LEHB29-.LFB2916
	.uleb128 .LEHE29-.LEHB29
	.uleb128 0
	.uleb128 0
	.uleb128 .LEHB30-.LFB2916
	.uleb128 .LEHE30-.LEHB30
	.uleb128 .L728-.LFB2916
	.uleb128 0x1
	.uleb128 .LEHB31-.LFB2916
	.uleb128 .LEHE31-.LEHB31
	.uleb128 0
	.uleb128 0
.LLSDACSE2916:
	.byte	0x1
	.byte	0
	.align 2
	.long	_ZTI12idAllocError
.LLSDATT2916:
	.section	".text"
	.size	_ZN11idGameLocal15SpawnEntityTypeERK10idTypeInfoPK6idDictb, .-_ZN11idGameLocal15SpawnEntityTypeERK10idTypeInfoPK6idDictb
	.align 2
	.globl _ZNK11idGameLocal13FindEntityDefEPKcbb
	.type	_ZNK11idGameLocal13FindEntityDefEPKcbb, @function
_ZNK11idGameLocal13FindEntityDefEPKcbb:
.LFB2918:
	.loc 4 2968 0
	.cfi_startproc
.LVL1022:
	mflr 0
	stwu 1,-32(1)
.LCFI197:
	.cfi_def_cfa_offset 32
	.cfi_register 65, 0
	mfcr 12
.LBB5649:
	.loc 4 2970 0
	addis 3,3,0x25
.LVL1023:
.LBE5649:
	.loc 4 2968 0
	stw 29,20(1)
.LBB5650:
	.loc 4 2971 0
	cmpwi 4,6,0
.LBE5650:
	.loc 4 2968 0
	stw 30,24(1)
	mr 29,4
	.cfi_offset 30, -8
	.cfi_offset 29, -12
	.cfi_register 70, 12
	stw 31,28(1)
	mr 30,5
	stw 0,36(1)
.LBB5651:
	.loc 4 2972 0
	lis 31,declManager@ha
	.cfi_offset 65, 4
	.cfi_offset 31, -4
.LBE5651:
	.loc 4 2968 0
	stw 27,12(1)
	stw 28,16(1)
	stw 12,8(1)
.LBB5652:
	.loc 4 2970 0
	lbz 0,2016(3)
	cmpwi 7,0,0
	bne- 7,.L737
	.cfi_offset 70, -24
	.cfi_offset 28, -16
	.cfi_offset 27, -20
.LVL1024:
.L731:
	.loc 4 2980 0
	lwz 3,declManager@l(31)
	li 4,4
	lwz 9,0(3)
	.loc 4 2979 0
	bne- 4,.L738
	.loc 4 2982 0
	lwz 0,64(9)
	mr 5,29
	mr 6,30
	mtctr 0
	bctrl
.LVL1025:
.LBE5652:
	.loc 4 2986 0
	lwz 0,36(1)
	lwz 12,8(1)
	mtlr 0
	lwz 27,12(1)
	lwz 28,16(1)
	mtcrf 8,12
	lwz 29,20(1)
.LVL1026:
	lwz 30,24(1)
	lwz 31,28(1)
	addi 1,1,32
	.cfi_remember_state
	.cfi_restore 27
	.cfi_restore 28
	.cfi_restore 29
	.cfi_restore 30
	.cfi_restore 31
	.cfi_restore 70
.LCFI198:
	.cfi_def_cfa_offset 0
	blr
.LVL1027:
.L737:
.LCFI199:
	.cfi_restore_state
.LBB5653:
	.loc 4 2972 0
	lwz 27,declManager@l(31)
	lis 3,.LC62@ha
.LVL1028:
	la 3,.LC62@l(3)
	lwz 9,0(27)
	.loc 4 2971 0
	bne- 4,.L739
	.loc 4 2974 0
	lwz 28,64(9)
	crxor 6,6,6
	bl _Z2vaPKcz
.LVL1029:
	mr 5,3
	li 4,4
	mr 3,27
	mr 6,30
	mtctr 28
	bctrl
.LVL1030:
.L733:
	.loc 4 2978 0
	cmpwi 7,3,0
	beq- 7,.L731
.L734:
.LBE5653:
	.loc 4 2986 0
	lwz 0,36(1)
	lwz 12,8(1)
	mtlr 0
	lwz 27,12(1)
	lwz 28,16(1)
	mtcrf 8,12
	lwz 29,20(1)
.LVL1031:
	lwz 30,24(1)
	lwz 31,28(1)
	addi 1,1,32
	.cfi_remember_state
.LCFI200:
	.cfi_def_cfa_offset 0
	.cfi_restore 70
	.cfi_restore 31
	.cfi_restore 30
	.cfi_restore 29
	.cfi_restore 28
	.cfi_restore 27
	blr
.LVL1032:
.L739:
.LCFI201:
	.cfi_restore_state
.LBB5654:
	.loc 4 2972 0
	lwz 28,60(9)
	crxor 6,6,6
	bl _Z2vaPKcz
.LVL1033:
	mr 5,3
	li 4,4
	mr 3,27
	li 6,0
	li 7,0
	mtctr 28
	bctrl
.LVL1034:
	b .L733
.LVL1035:
.L738:
	.loc 4 2980 0
	lwz 0,60(9)
	mr 5,29
	mr 6,30
	li 7,0
	mtctr 0
	bctrl
.LVL1036:
	b .L734
.LBE5654:
	.cfi_endproc
.LFE2918:
	.size	_ZNK11idGameLocal13FindEntityDefEPKcbb, .-_ZNK11idGameLocal13FindEntityDefEPKcbb
	.align 2
	.globl _ZN11idGameLocal14SpawnEntityDefERK6idDictPP8idEntityb
	.type	_ZN11idGameLocal14SpawnEntityDefERK6idDictPP8idEntityb, @function
_ZN11idGameLocal14SpawnEntityDefERK6idDictPP8idEntityb:
.LFB2917:
	.loc 4 2892 0
	.cfi_startproc
	.cfi_personality 0,__gxx_personality_v0
	.cfi_lsda 0,.LLSDA2917
.LVL1037:
	mflr 0
	mfcr 12
.LBB5687:
	.loc 4 2900 0
	cmpwi 4,5,0
.LBE5687:
	.loc 4 2892 0
	stwu 1,-72(1)
.LCFI202:
	.cfi_def_cfa_offset 72
	.cfi_register 70, 12
	.cfi_register 65, 0
.LVL1038:
.LBB5735:
.LBB5688:
.LBB5689:
.LBB5690:
	.loc 14 357 0
	li 9,20
.LBE5690:
.LBE5689:
.LBE5688:
.LBE5735:
	.loc 4 2892 0
	stw 0,76(1)
.LBB5736:
.LBB5695:
.LBB5693:
.LBB5691:
	.loc 14 356 0
	li 0,0
	.cfi_offset 65, 4
	.loc 14 357 0
	stw 9,16(1)
	.loc 14 358 0
	addi 9,1,20
.LBE5691:
.LBE5693:
.LBE5695:
.LBE5736:
	.loc 4 2892 0
	stw 26,48(1)
.LBB5737:
	.loc 4 2900 0
	mr 26,5
	.cfi_offset 26, -24
.LBE5737:
	.loc 4 2892 0
	stw 29,60(1)
	mr 29,3
	.cfi_offset 29, -12
	stw 27,52(1)
	stw 28,56(1)
	stw 30,64(1)
	stw 31,68(1)
	stw 12,44(1)
.LBB5738:
.LBB5696:
.LBB5694:
.LBB5692:
	.loc 14 356 0
	stw 0,8(1)
	.loc 14 358 0
	stw 9,12(1)
	.loc 14 359 0
	stb 0,20(1)
.LBE5692:
.LBE5694:
.LBE5696:
	.loc 4 2900 0
	beq- 4,.L741
	.cfi_offset 70, -28
	.cfi_offset 31, -4
	.cfi_offset 30, -8
	.cfi_offset 28, -16
	.cfi_offset 27, -20
	.loc 4 2901 0
	stw 0,0(5)
.L741:
	.loc 4 2904 0
	addis 31,29,0x25
	addi 30,1,8
	addi 31,31,2164
	mr 3,31
.LVL1039:
.LEHB32:
	bl _ZN6idDictaSERKS_
.LVL1040:
.LBB5697:
.LBB5698:
	.loc 11 221 0
	lis 4,.LC63@ha
	mr 3,31
	la 4,.LC63@l(4)
	addi 30,1,8
	bl _ZNK6idDict7FindKeyEPKc
.LVL1041:
	.loc 11 222 0
	cmpwi 0,3,0
	beq- 0,.L771
.LVL1042:
.LBB5699:
	.loc 4 4268 0
	lwz 9,4(3)
.LBE5699:
.LBE5698:
.LBE5697:
	.loc 4 2907 0
	addi 30,1,8
	lis 4,.LC64@ha
	mr 3,30
.LVL1043:
	lwz 5,4(9)
	la 4,.LC64@l(4)
	crxor 6,6,6
	bl _Z7sprintfR5idStrPKcz
.LVL1044:
.L742:
.LBB5700:
.LBB5701:
	.loc 11 221 0
	lis 4,.LC65@ha
	mr 3,31
	la 4,.LC65@l(4)
	bl _ZNK6idDict7FindKeyEPKc
.LVL1045:
	.loc 11 222 0
	cmpwi 0,3,0
	.loc 11 226 0
	li 28,0
	.loc 11 222 0
	beq- 0,.L743
.LVL1046:
.LBB5702:
	.loc 4 4268 0
	lwz 9,4(3)
	lwz 28,4(9)
.LVL1047:
.L743:
.LBE5702:
.LBE5701:
.LBE5700:
	.loc 4 2913 0
	mr 3,29
.LVL1048:
	mr 4,28
	li 5,0
	li 6,1
	bl _ZNK11idGameLocal13FindEntityDefEPKcbb
.LVL1049:
	.loc 4 2915 0
	mr. 4,3
	beq- 0,.L772
	.loc 4 2920 0
	mr 3,31
.LVL1050:
	addi 4,4,8
.LVL1051:
	bl _ZN6idDict11SetDefaultsEPKS_
.LVL1052:
.LBB5703:
.LBB5704:
	.loc 11 221 0
	lis 4,.LC67@ha
	mr 3,31
	la 4,.LC67@l(4)
	bl _ZNK6idDict7FindKeyEPKc
.LVL1053:
	.loc 11 222 0
	cmpwi 0,3,0
	beq- 0,.L746
.LVL1054:
.LBB5705:
	.loc 4 4268 0
	lwz 9,4(3)
	lwz 27,4(9)
.LVL1055:
.LBE5705:
.LBE5704:
.LBE5703:
	.loc 4 2924 0
	cmpwi 7,27,0
	beq- 7,.L746
	.loc 4 2926 0
	mr 3,27
.LVL1056:
	bl _ZN7idClass8GetClassEPKc
.LVL1057:
	.loc 4 2927 0
	cmpwi 0,3,0
	beq- 0,.L773
	.loc 4 2932 0
	lwz 0,8(3)
	mtctr 0
	bctrl
.LVL1058:
	.loc 4 2933 0
	mr. 31,3
.LVL1059:
	beq- 0,.L774
	.loc 4 2938 0
	bl _ZN7idClass9CallSpawnEv
.LVL1060:
	.loc 4 2940 0
	beq- 4,.L770
.LVL1061:
.LBB5706:
.LBB5707:
	.loc 5 340 0
	lwz 9,0(31)
	mr 3,31
	lwz 0,0(9)
	mtctr 0
	bctrl
.LVL1062:
.LBE5707:
	.loc 4 4268 0
	lis 9,_ZN8idEntity4TypeE@ha
	lwz 0,56(3)
	la 9,_ZN8idEntity4TypeE@l(9)
.LBB5710:
.LBB5708:
.LBB5709:
	.loc 5 311 0
	lwz 11,56(9)
	cmpw 7,0,11
	blt- 7,.L770
	lwz 9,60(9)
	cmpw 7,0,9
	bgt- 7,.L770
.LBE5709:
.LBE5708:
.LBE5710:
.LBE5706:
	.loc 4 2941 0 discriminator 4
	stw 31,0(26)
	.loc 4 2943 0 discriminator 4
	li 31,1
.LVL1063:
	b .L745
.LVL1064:
.L746:
.LBB5711:
.LBB5712:
	.loc 11 221 0
	lis 4,.LC70@ha
	mr 3,31
.LVL1065:
	la 4,.LC70@l(4)
	bl _ZNK6idDict7FindKeyEPKc
.LVL1066:
	.loc 11 222 0
	cmpwi 0,3,0
	beq- 0,.L750
.LVL1067:
.LBB5713:
	.loc 4 4268 0
	lwz 9,4(3)
	lwz 31,4(9)
.LVL1068:
.LBE5713:
.LBE5712:
.LBE5711:
.LBB5714:
	.loc 4 2948 0
	cmpwi 7,31,0
	beq- 7,.L750
.LBB5715:
	.loc 4 2949 0
	addis 3,29,0x1
.LVL1069:
	mr 4,31
	addi 3,3,-32060
	bl _ZNK9idProgram12FindFunctionEPKc
.LVL1070:
	.loc 4 2950 0
	mr. 27,3
	beq- 0,.L775
	.loc 4 2954 0
	li 3,7068
.LVL1071:
	bl _ZN7idClassnwEj
.LEHE32:
	mr 4,27
	mr 31,3
.LVL1072:
.LEHB33:
	bl _ZN8idThreadC1EPK10function_t
.LEHE33:
.LVL1073:
	.loc 4 2955 0 discriminator 2
	mr 3,31
	li 4,0
.LEHB34:
	bl _ZN8idThread12DelayedStartEi
.LEHE34:
.LVL1074:
.L770:
	.loc 4 2956 0
	li 31,1
.L745:
.LVL1075:
.LBE5715:
.LBE5714:
.LBB5721:
.LBB5722:
.LBB5723:
	.loc 14 501 0
	mr 3,30
.LEHB35:
	bl _ZN5idStr8FreeDataEv
.LEHE35:
.LBE5723:
.LBE5722:
.LBE5721:
.LBE5738:
	.loc 4 2961 0
	lwz 0,76(1)
	lwz 12,44(1)
	mr 3,31
	mtlr 0
	lwz 26,48(1)
.LVL1076:
	lwz 27,52(1)
	mtcrf 8,12
	lwz 28,56(1)
.LVL1077:
	lwz 29,60(1)
.LVL1078:
	lwz 30,64(1)
	lwz 31,68(1)
	addi 1,1,72
	.cfi_remember_state
.LCFI203:
	.cfi_def_cfa_offset 0
	.cfi_restore 70
	.cfi_restore 31
	.cfi_restore 30
	.cfi_restore 29
	.cfi_restore 28
	.cfi_restore 27
	.cfi_restore 26
	blr
.LVL1079:
.L771:
.LCFI204:
	.cfi_restore_state
	addi 30,1,8
	b .L742
.LVL1080:
.L772:
.LBB5739:
	.loc 4 2916 0
	lis 4,.LC66@ha
	lwz 6,12(1)
	mr 3,29
.LVL1081:
	la 4,.LC66@l(4)
	mr 5,28
.LEHB36:
	crxor 6,6,6
	bl _ZNK11idGameLocal7WarningEPKcz
.LEHE36:
.LBB5726:
.LBB5716:
	.loc 4 2952 0
	li 31,0
.LVL1082:
.L776:
.LBE5716:
.LBE5726:
.LBB5727:
.LBB5725:
.LBB5724:
	.loc 14 501 0
	mr 3,30
.LEHB37:
	bl _ZN5idStr8FreeDataEv
.LEHE37:
.LBE5724:
.LBE5725:
.LBE5727:
.LBE5739:
	.loc 4 2961 0
	lwz 0,76(1)
	lwz 12,44(1)
	mr 3,31
	mtlr 0
	lwz 26,48(1)
.LVL1083:
	lwz 27,52(1)
	mtcrf 8,12
	lwz 28,56(1)
.LVL1084:
	lwz 29,60(1)
.LVL1085:
	lwz 30,64(1)
	lwz 31,68(1)
	addi 1,1,72
	.cfi_remember_state
	.cfi_restore 26
	.cfi_restore 27
	.cfi_restore 28
	.cfi_restore 29
	.cfi_restore 30
	.cfi_restore 31
	.cfi_restore 70
.LCFI205:
	.cfi_def_cfa_offset 0
	blr
.LVL1086:
.L773:
.LCFI206:
	.cfi_restore_state
.LBB5740:
	.loc 4 2928 0
	lis 4,.LC68@ha
	lwz 7,12(1)
	mr 3,29
.LVL1087:
	la 4,.LC68@l(4)
	mr 5,28
	mr 6,27
.LEHB38:
	crxor 6,6,6
	bl _ZNK11idGameLocal7WarningEPKcz
.LBB5728:
.LBB5717:
	.loc 4 2952 0
	li 31,0
.LVL1088:
	b .L776
.LVL1089:
.L774:
.LBE5717:
.LBE5728:
	.loc 4 2934 0
	lis 4,.LC69@ha
	lwz 6,12(1)
	mr 3,29
.LVL1090:
	la 4,.LC69@l(4)
	mr 5,28
	crxor 6,6,6
	bl _ZNK11idGameLocal7WarningEPKcz
.LBB5729:
.LBB5718:
	.loc 4 2952 0
	li 31,0
.LVL1091:
	b .L776
.LVL1092:
.L750:
.LBE5718:
.LBE5729:
	.loc 4 2959 0
	lis 4,.LC72@ha
	lwz 6,12(1)
	mr 3,29
.LVL1093:
	la 4,.LC72@l(4)
	mr 5,28
	crxor 6,6,6
	bl _ZNK11idGameLocal7WarningEPKcz
.LBB5730:
.LBB5719:
	.loc 4 2952 0
	li 31,0
	b .L776
.LVL1094:
.L775:
	.loc 4 2951 0
	lis 4,.LC71@ha
	lwz 7,12(1)
	mr 3,29
.LVL1095:
	la 4,.LC71@l(4)
	mr 5,28
	mr 6,31
	crxor 6,6,6
	bl _ZNK11idGameLocal7WarningEPKcz
.LEHE38:
	.loc 4 2952 0
	li 31,0
.LVL1096:
	b .L776
.LVL1097:
.L762:
	mr 31,3
.LVL1098:
.L754:
.LBE5719:
.LBE5730:
.LBB5731:
.LBB5732:
.LBB5733:
	.loc 14 501 0
	mr 3,30
	bl _ZN5idStr8FreeDataEv
	mr 3,31
.LEHB39:
	bl _Unwind_Resume
.LEHE39:
.LVL1099:
.L763:
	mr 29,3
.LVL1100:
.LBE5733:
.LBE5732:
.LBE5731:
.LBB5734:
.LBB5720:
	.loc 4 2954 0
	mr 3,31
	bl _ZN7idClassdlEPv
	mr 31,29
	b .L754
.LBE5720:
.LBE5734:
.LBE5740:
	.cfi_endproc
.LFE2917:
	.section	.gcc_except_table
.LLSDA2917:
	.byte	0xff
	.byte	0xff
	.byte	0x1
	.uleb128 .LLSDACSE2917-.LLSDACSB2917
.LLSDACSB2917:
	.uleb128 .LEHB32-.LFB2917
	.uleb128 .LEHE32-.LEHB32
	.uleb128 .L762-.LFB2917
	.uleb128 0
	.uleb128 .LEHB33-.LFB2917
	.uleb128 .LEHE33-.LEHB33
	.uleb128 .L763-.LFB2917
	.uleb128 0
	.uleb128 .LEHB34-.LFB2917
	.uleb128 .LEHE34-.LEHB34
	.uleb128 .L762-.LFB2917
	.uleb128 0
	.uleb128 .LEHB35-.LFB2917
	.uleb128 .LEHE35-.LEHB35
	.uleb128 0
	.uleb128 0
	.uleb128 .LEHB36-.LFB2917
	.uleb128 .LEHE36-.LEHB36
	.uleb128 .L762-.LFB2917
	.uleb128 0
	.uleb128 .LEHB37-.LFB2917
	.uleb128 .LEHE37-.LEHB37
	.uleb128 0
	.uleb128 0
	.uleb128 .LEHB38-.LFB2917
	.uleb128 .LEHE38-.LEHB38
	.uleb128 .L762-.LFB2917
	.uleb128 0
	.uleb128 .LEHB39-.LFB2917
	.uleb128 .LEHE39-.LEHB39
	.uleb128 0
	.uleb128 0
.LLSDACSE2917:
	.section	".text"
	.size	_ZN11idGameLocal14SpawnEntityDefERK6idDictPP8idEntityb, .-_ZN11idGameLocal14SpawnEntityDefERK6idDictPP8idEntityb
	.align 2
	.globl _ZN11idGameLocal20CacheDictionaryMediaEPK6idDict
	.type	_ZN11idGameLocal20CacheDictionaryMediaEPK6idDict, @function
_ZN11idGameLocal20CacheDictionaryMediaEPK6idDict:
.LFB2871:
	.loc 4 1521 0
	.cfi_startproc
	.cfi_personality 0,__gxx_personality_v0
	.cfi_lsda 0,.LLSDA2871
.LVL1101:
	mflr 0
	stwu 1,-120(1)
.LCFI207:
	.cfi_def_cfa_offset 120
	.cfi_register 65, 0
.LBB5799:
	.loc 4 1525 0
	lis 9,cvarSystem@ha
.LBE5799:
	.loc 4 1521 0
	stw 22,80(1)
	mr 22,3
	.cfi_offset 22, -40
	stw 31,116(1)
.LBB5884:
	.loc 4 1524 0
	mr. 31,4
	.cfi_offset 31, -4
.LBE5884:
	.loc 4 1521 0
	stw 0,124(1)
.LBB5885:
	.loc 4 1525 0
	lis 4,.LC74@ha
.LVL1102:
.LBE5885:
	.loc 4 1521 0
	stw 21,76(1)
.LBB5886:
	.loc 4 1525 0
	la 4,.LC74@l(4)
.LBE5886:
	.loc 4 1521 0
	stw 23,84(1)
	stw 24,88(1)
	stw 25,92(1)
	stw 26,96(1)
	stw 27,100(1)
	stw 28,104(1)
	stw 29,108(1)
	stw 30,112(1)
.LBB5887:
	.loc 4 1525 0
	lwz 3,cvarSystem@l(9)
.LVL1103:
	lwz 9,0(3)
	lwz 0,48(9)
	.cfi_offset 30, -8
	.cfi_offset 29, -12
	.cfi_offset 28, -16
	.cfi_offset 27, -20
	.cfi_offset 26, -24
	.cfi_offset 25, -28
	.cfi_offset 24, -32
	.cfi_offset 23, -36
	.cfi_offset 21, -44
	.cfi_offset 65, 4
	mtctr 0
	.loc 4 1524 0
	beq- 0,.L858
.LEHB40:
	.loc 4 1531 0
	bctrl
	cmpwi 7,3,0
	bne- 7,.L859
.L780:
	.loc 4 1535 0
	lis 29,.LC75@ha
	mr 3,31
	la 29,.LC75@l(29)
	li 5,0
	mr 4,29
	bl _ZNK6idDict11MatchPrefixEPKcPK10idKeyValue
.LVL1104:
	.loc 4 1536 0
	mr. 30,3
	beq- 0,.L781
	.loc 4 1538 0
	lis 27,.LC76@ha
	lis 28,declManager@ha
	la 27,.LC76@l(27)
	.loc 4 1542 0
	lis 25,renderModelManager@ha
	.loc 4 1544 0
	lis 26,collisionModelManager@ha
	b .L845
.LVL1105:
.L782:
	.loc 4 1547 0
	mr 5,30
	mr 3,31
	mr 4,29
	bl _ZNK6idDict11MatchPrefixEPKcPK10idKeyValue
.LVL1106:
	.loc 4 1536 0
	mr. 30,3
	beq- 0,.L781
.L845:
	.loc 4 4268 0
	lwz 9,4(30)
	.loc 4 1537 0
	lwz 0,0(9)
	cmpwi 7,0,0
	beq+ 7,.L782
	.loc 4 1538 0
	lwz 3,declManager@l(28)
.LVL1107:
	mr 4,27
	lwz 5,4(9)
	lwz 11,0(3)
	lwz 0,96(11)
	mtctr 0
	crxor 6,6,6
	bctrl
	.loc 4 1540 0
	lwz 3,declManager@l(28)
.LVL1108:
.LBB5800:
	.loc 4 4268 0
	lwz 9,4(30)
.LBE5800:
	.loc 4 1540 0
	li 4,5
	lwz 11,0(3)
	li 6,0
	lwz 5,4(9)
	li 7,0
	lwz 0,60(11)
	mtctr 0
	bctrl
.LVL1109:
	cmpwi 7,3,0
	bne+ 7,.L782
	.loc 4 1542 0
	lwz 3,renderModelManager@l(25)
.LVL1110:
.LBB5801:
	.loc 4 4268 0
	lwz 11,4(30)
.LBE5801:
	.loc 4 1542 0
	lwz 9,0(3)
	lwz 4,4(11)
	lwz 0,32(9)
	mtctr 0
	bctrl
.LVL1111:
	.loc 4 1544 0
	lwz 3,collisionModelManager@l(26)
.LVL1112:
.LBB5802:
	.loc 4 4268 0
	lwz 9,4(30)
.LBE5802:
	.loc 4 1544 0
	li 5,1
	lwz 11,0(3)
	lwz 4,4(9)
	lwz 0,20(11)
	mtctr 0
	bctrl
.LVL1113:
	.loc 4 1547 0
	mr 5,30
	mr 3,31
	mr 4,29
	bl _ZNK6idDict11MatchPrefixEPKcPK10idKeyValue
.LVL1114:
	.loc 4 1536 0
	mr. 30,3
	bne+ 0,.L845
.L781:
	.loc 4 1550 0
	lis 4,.LC77@ha
	mr 3,31
.LVL1115:
	la 4,.LC77@l(4)
	bl _ZNK6idDict7FindKeyEPKc
.LVL1116:
	.loc 4 1551 0
	cmpwi 0,3,0
	beq- 0,.L784
	.loc 4 4268 0 discriminator 1
	lwz 9,4(3)
	.loc 4 1551 0 discriminator 1
	lwz 0,0(9)
	cmpwi 7,0,0
	bne- 7,.L860
.LVL1117:
.L784:
	.loc 4 1555 0
	lis 29,.LC78@ha
	mr 3,31
	la 29,.LC78@l(29)
	li 5,0
	mr 4,29
	bl _ZNK6idDict11MatchPrefixEPKcPK10idKeyValue
.LVL1118:
	.loc 4 1556 0
	mr. 30,3
	beq- 0,.L785
	.loc 4 1558 0
	lis 28,declManager@ha
	b .L844
.L786:
	.loc 4 1560 0
	mr 5,30
	mr 3,31
.LVL1119:
	mr 4,29
	bl _ZNK6idDict11MatchPrefixEPKcPK10idKeyValue
.LVL1120:
	.loc 4 1556 0
	mr. 30,3
	beq- 0,.L785
.L844:
	.loc 4 4268 0
	lwz 9,4(30)
	.loc 4 1557 0
	lwz 0,0(9)
	cmpwi 7,0,0
	beq+ 7,.L786
	.loc 4 1558 0
	lwz 3,declManager@l(28)
.LVL1121:
	li 4,3
	lwz 5,4(9)
	li 6,1
	lwz 11,0(3)
	li 7,0
	lwz 0,60(11)
	mtctr 0
	bctrl
.LVL1122:
	.loc 4 1560 0
	mr 5,30
	mr 3,31
	mr 4,29
	bl _ZNK6idDict11MatchPrefixEPKcPK10idKeyValue
.LVL1123:
	.loc 4 1556 0
	mr. 30,3
	bne+ 0,.L844
.L785:
	.loc 4 1564 0
	lis 29,.LC79@ha
	mr 3,31
.LVL1124:
	la 29,.LC79@l(29)
	li 5,0
	mr 4,29
	bl _ZNK6idDict11MatchPrefixEPKcPK10idKeyValue
.LVL1125:
	.loc 4 1565 0
	mr. 30,3
	beq- 0,.L788
.LBB5803:
.LBB5804:
.LBB5805:
	.loc 4 1567 0
	lis 28,.LC80@ha
	.loc 4 1568 0
	lis 27,.LC81@ha
	.loc 4 1569 0
	lis 24,.LC82@ha
.LBB5806:
	.loc 4 1572 0
	lis 23,.LC97@ha
.LBE5806:
	.loc 4 1567 0
	la 28,.LC80@l(28)
	.loc 4 1568 0
	la 27,.LC81@l(27)
	.loc 4 1569 0
	la 24,.LC82@l(24)
.LBB5808:
	.loc 4 1572 0
	lis 21,declManager@ha
	la 23,.LC97@l(23)
	.loc 4 1573 0
	lis 26,uiManager@ha
	b .L843
.LVL1126:
.L789:
.LBE5808:
.LBE5805:
.LBE5804:
	.loc 4 1580 0
	mr 5,30
	mr 3,31
	mr 4,29
	bl _ZNK6idDict11MatchPrefixEPKcPK10idKeyValue
.LVL1127:
.LBE5803:
	.loc 4 1565 0
	mr. 30,3
	beq- 0,.L788
.L843:
.LBB5815:
.LBB5814:
	.loc 4 4268 0
	lwz 9,4(30)
	.loc 4 1566 0
	lwz 0,0(9)
	cmpwi 7,0,0
	beq+ 7,.L789
.LVL1128:
.LBB5813:
.LBB5809:
	.loc 4 4268 0
	lwz 9,0(30)
.LBE5809:
	.loc 4 1567 0
	mr 4,28
	lwz 3,4(9)
.LVL1129:
	bl _ZN5idStr4IcmpEPKcS1_
.LVL1130:
	cmpwi 7,3,0
	beq+ 7,.L789
.LVL1131:
.LBB5810:
	.loc 4 4268 0 discriminator 2
	lwz 9,0(30)
.LBE5810:
	.loc 4 1568 0 discriminator 2
	mr 4,27
	li 5,8
	lwz 3,4(9)
	bl _ZN5idStr5IcmpnEPKcS1_i
.LVL1132:
	.loc 4 1567 0 discriminator 2
	cmpwi 7,3,0
	beq+ 7,.L789
.LVL1133:
.LBB5811:
	.loc 4 4268 0 discriminator 3
	lwz 9,0(30)
.LBE5811:
	.loc 4 1569 0 discriminator 3
	mr 4,24
	lwz 3,4(9)
	bl _ZN5idStr4IcmpEPKcS1_
.LVL1134:
	.loc 4 1567 0 discriminator 3
	cmpwi 7,3,0
	beq- 7,.L789
.LBB5812:
	.loc 4 1572 0
	lwz 3,declManager@l(21)
	mr 4,23
	.loc 4 4268 0
	lwz 9,4(30)
	.loc 4 1572 0
	lwz 11,0(3)
	lwz 5,4(9)
	lwz 0,96(11)
	mtctr 0
	crxor 6,6,6
	bctrl
	.loc 4 1573 0
	lwz 3,uiManager@l(26)
	lwz 9,0(3)
	lwz 0,52(9)
	mtctr 0
	bctrl
.LVL1135:
	.loc 4 1574 0
	mr. 25,3
	beq- 0,.L789
.LVL1136:
	.loc 4 1575 0
	lwz 11,0(25)
	li 5,1
.LBB5807:
	.loc 4 4268 0
	lwz 9,4(30)
.LBE5807:
	.loc 4 1575 0
	li 6,1
	lwz 0,28(11)
	lwz 4,4(9)
	mtctr 0
	bctrl
.LVL1137:
	.loc 4 1576 0
	lwz 3,uiManager@l(26)
	mr 4,25
	lwz 9,0(3)
	lwz 0,56(9)
	mtctr 0
	bctrl
.LBE5812:
.LBE5813:
.LBE5814:
	.loc 4 1580 0
	mr 5,30
	mr 3,31
	mr 4,29
	bl _ZNK6idDict11MatchPrefixEPKcPK10idKeyValue
.LVL1138:
.LBE5815:
	.loc 4 1565 0
	mr. 30,3
	bne+ 0,.L843
.LVL1139:
.L788:
	.loc 4 1583 0
	lis 4,.LC83@ha
	mr 3,31
.LVL1140:
	la 4,.LC83@l(4)
	bl _ZNK6idDict7FindKeyEPKc
.LVL1141:
	.loc 4 1584 0
	cmpwi 0,3,0
	beq- 0,.L793
	.loc 4 4268 0 discriminator 1
	lwz 9,4(3)
	.loc 4 1584 0 discriminator 1
	lwz 0,0(9)
	cmpwi 7,0,0
	bne- 7,.L861
.LVL1142:
.L793:
	.loc 4 1588 0
	lis 29,.LC84@ha
	mr 3,31
	la 29,.LC84@l(29)
	li 5,0
	mr 4,29
	bl _ZNK6idDict11MatchPrefixEPKcPK10idKeyValue
.LVL1143:
	.loc 4 1589 0
	mr. 30,3
	beq- 0,.L794
	.loc 4 1591 0
	lis 28,declManager@ha
	b .L842
.L795:
	.loc 4 1593 0
	mr 5,30
	mr 3,31
.LVL1144:
	mr 4,29
	bl _ZNK6idDict11MatchPrefixEPKcPK10idKeyValue
.LVL1145:
	.loc 4 1589 0
	mr. 30,3
	beq- 0,.L794
.L842:
	.loc 4 4268 0
	lwz 9,4(30)
	.loc 4 1590 0
	lwz 0,0(9)
	cmpwi 7,0,0
	beq+ 7,.L795
	.loc 4 1591 0
	lwz 3,declManager@l(28)
.LVL1146:
	li 4,1
	lwz 5,4(9)
	li 6,1
	lwz 11,0(3)
	li 7,0
	lwz 0,60(11)
	mtctr 0
	bctrl
.LVL1147:
	.loc 4 1593 0
	mr 5,30
	mr 3,31
	mr 4,29
	bl _ZNK6idDict11MatchPrefixEPKcPK10idKeyValue
.LVL1148:
	.loc 4 1589 0
	mr. 30,3
	bne+ 0,.L842
.L794:
	.loc 4 1597 0
	lis 29,.LC85@ha
	mr 3,31
.LVL1149:
	la 29,.LC85@l(29)
	li 5,0
	mr 4,29
	bl _ZNK6idDict11MatchPrefixEPKcPK10idKeyValue
.LVL1150:
	.loc 4 1598 0
	mr. 30,3
	beq- 0,.L797
	.loc 4 1600 0
	lis 28,declManager@ha
	b .L841
.L798:
	.loc 4 1602 0
	mr 5,30
	mr 3,31
.LVL1151:
	mr 4,29
	bl _ZNK6idDict11MatchPrefixEPKcPK10idKeyValue
.LVL1152:
	.loc 4 1598 0
	mr. 30,3
	beq- 0,.L797
.L841:
	.loc 4 4268 0
	lwz 9,4(30)
	.loc 4 1599 0
	lwz 0,0(9)
	cmpwi 7,0,0
	beq+ 7,.L798
	.loc 4 1600 0
	lwz 3,declManager@l(28)
.LVL1153:
	li 4,1
	lwz 5,4(9)
	li 6,1
	lwz 11,0(3)
	li 7,0
	lwz 0,60(11)
	mtctr 0
	bctrl
.LVL1154:
	.loc 4 1602 0
	mr 5,30
	mr 3,31
	mr 4,29
	bl _ZNK6idDict11MatchPrefixEPKcPK10idKeyValue
.LVL1155:
	.loc 4 1598 0
	mr. 30,3
	bne+ 0,.L841
.L797:
	.loc 4 1607 0
	lis 4,.LC86@ha
	mr 3,31
.LVL1156:
	la 4,.LC86@l(4)
	li 5,0
	bl _ZNK6idDict11MatchPrefixEPKcPK10idKeyValue
.LVL1157:
.LBB5816:
	.loc 4 1608 0
	cmpwi 0,3,0
	beq- 0,.L800
	.loc 4 4268 0 discriminator 1
	lwz 9,4(3)
	.loc 4 1608 0 discriminator 1
	lwz 0,0(9)
	cmpwi 7,0,0
	bne- 7,.L862
.LVL1158:
.L800:
.LBE5816:
	.loc 4 1614 0
	lis 29,.LC88@ha
	mr 3,31
	la 29,.LC88@l(29)
	li 5,0
	mr 4,29
	bl _ZNK6idDict11MatchPrefixEPKcPK10idKeyValue
.LVL1159:
	.loc 4 1615 0
	mr. 30,3
	beq- 0,.L802
	.loc 4 1617 0
	lis 27,.LC89@ha
	lis 28,declManager@ha
	la 27,.LC89@l(27)
	b .L840
.L803:
	.loc 4 1620 0
	mr 5,30
	mr 3,31
.LVL1160:
	mr 4,29
	bl _ZNK6idDict11MatchPrefixEPKcPK10idKeyValue
.LVL1161:
	.loc 4 1615 0
	mr. 30,3
	beq- 0,.L802
.L840:
	.loc 4 4268 0
	lwz 11,4(30)
	.loc 4 1616 0
	lwz 0,0(11)
	cmpwi 7,0,0
	beq+ 7,.L803
	.loc 4 1617 0
	lwz 3,declManager@l(28)
.LVL1162:
	mr 4,27
	lwz 5,4(11)
	lwz 9,0(3)
	lwz 0,96(9)
	mtctr 0
	crxor 6,6,6
	bctrl
	.loc 4 1618 0
	lwz 3,declManager@l(28)
.LVL1163:
.LBB5819:
	.loc 4 4268 0
	lwz 9,4(30)
.LBE5819:
	.loc 4 1618 0
	li 4,6
	lwz 11,0(3)
	li 6,1
	lwz 5,4(9)
	li 7,0
	lwz 0,60(11)
	mtctr 0
	bctrl
.LVL1164:
	.loc 4 1620 0
	mr 5,30
	mr 3,31
	mr 4,29
	bl _ZNK6idDict11MatchPrefixEPKcPK10idKeyValue
.LVL1165:
	.loc 4 1615 0
	mr. 30,3
	bne+ 0,.L840
.L802:
	.loc 4 1623 0
	lis 28,.LC90@ha
	mr 3,31
.LVL1166:
	la 28,.LC90@l(28)
	li 5,0
	mr 4,28
	bl _ZNK6idDict11MatchPrefixEPKcPK10idKeyValue
.LEHE40:
.LVL1167:
	.loc 4 1624 0
	mr. 30,3
	beq- 0,.L805
.LBB5820:
.LBB5821:
.LBB5822:
.LBB5823:
.LBB5824:
.LBB5825:
.LBB5826:
	.loc 14 356 0
	li 27,0
	.loc 14 357 0
	li 24,20
	.loc 14 358 0
	addi 26,1,52
.LBE5826:
.LBE5825:
.LBE5824:
.LBE5823:
	.loc 4 1631 0
	lis 25,declManager@ha
.LBB5838:
.LBB5839:
	.loc 14 536 0
	li 23,0
	b .L839
.LVL1168:
.L809:
	.loc 14 535 0
	lwz 3,44(1)
	mr 5,29
	lwz 4,12(1)
	bl memcpy
	.loc 14 536 0
	lwz 9,44(1)
.LBE5839:
.LBE5838:
.LBB5846:
.LBB5847:
.LBB5848:
	.loc 14 501 0
	addi 3,1,8
.LVL1169:
.LBE5848:
.LBE5847:
.LBE5846:
.LBB5851:
.LBB5844:
	.loc 14 536 0
	stbx 23,9,29
	.loc 14 537 0
	stw 29,40(1)
.LVL1170:
.LEHB41:
.LBE5844:
.LBE5851:
.LBB5852:
.LBB5850:
.LBB5849:
	.loc 14 501 0
	bl _ZN5idStr8FreeDataEv
.LVL1171:
.L808:
.LBE5849:
.LBE5850:
.LBE5852:
	.loc 4 1631 0
	lwz 3,declManager@l(25)
.LVL1172:
	li 4,7
	lwz 5,44(1)
	li 6,1
	lwz 9,0(3)
	li 7,0
	lwz 0,60(9)
	mtctr 0
	bctrl
.LEHE41:
.LVL1173:
.LBB5853:
.LBB5854:
.LBB5855:
	.loc 14 501 0
	addi 3,1,40
.LEHB42:
	bl _ZN5idStr8FreeDataEv
.LVL1174:
.L806:
.LBE5855:
.LBE5854:
.LBE5853:
.LBE5822:
.LBE5821:
	.loc 4 1633 0
	mr 5,30
	mr 3,31
	mr 4,28
	bl _ZNK6idDict11MatchPrefixEPKcPK10idKeyValue
.LVL1175:
.LBE5820:
	.loc 4 1624 0
	mr. 30,3
	beq- 0,.L805
.L839:
	.loc 4 4268 0
	lwz 21,4(30)
.LBB5875:
.LBB5873:
	.loc 4 1625 0
	lwz 0,0(21)
	cmpwi 7,0,0
	beq- 7,.L806
.LVL1176:
.LBB5871:
.LBB5856:
.LBB5835:
.LBB5829:
.LBB5827:
	.loc 14 356 0
	stw 27,40(1)
.LBE5827:
.LBE5829:
.LBB5830:
.LBB5831:
	.loc 14 358 0
	mr 3,26
.LVL1177:
.LBE5831:
.LBE5830:
.LBB5833:
.LBB5828:
	.loc 14 357 0
	stw 24,48(1)
	.loc 14 358 0
	stw 26,44(1)
	.loc 14 359 0
	stb 27,52(1)
.LBE5828:
.LBE5833:
.LBE5835:
	.loc 4 4268 0
	lwz 29,0(21)
.LBB5836:
	.loc 14 374 0
	addi 4,29,1
.LVL1178:
.LBB5834:
.LBB5832:
	.loc 14 350 0
	cmpwi 7,4,20
	ble+ 7,.L807
	.loc 14 351 0
	addi 3,1,40
.LVL1179:
	li 5,1
	bl _ZN5idStr10ReAllocateEib
.LEHE42:
.LVL1180:
	lwz 3,44(1)
.L807:
.LBE5832:
.LBE5834:
	.loc 14 375 0
	lwz 4,4(21)
	bl strcpy
.LBE5836:
.LBE5856:
.LBB5857:
.LBB5858:
	.loc 14 899 0
	lwz 3,44(1)
	li 4,45
	li 5,0
	mr 6,29
.LBE5858:
.LBE5857:
.LBB5860:
.LBB5837:
	.loc 14 376 0
	stw 29,40(1)
.LVL1181:
.LEHB43:
.LBE5837:
.LBE5860:
.LBB5861:
.LBB5859:
	.loc 14 899 0
	bl _ZN5idStr8FindCharEPKccii
.LVL1182:
.LBE5859:
.LBE5861:
	.loc 4 1628 0
	mr. 6,3
	ble- 0,.L808
.LVL1183:
.LBB5862:
.LBB5863:
	.loc 14 926 0
	addi 3,1,8
.LVL1184:
	addi 4,1,40
.LVL1185:
	li 5,0
	bl _ZNK5idStr3MidEii
.LEHE43:
.LVL1186:
.LBE5863:
.LBE5862:
.LBB5864:
	.loc 4 4268 0
	lwz 29,8(1)
.LVL1187:
.LBB5845:
.LBB5840:
.LBB5841:
	.loc 14 350 0
	lwz 0,48(1)
.LBE5841:
.LBE5840:
	.loc 14 534 0
	addi 4,29,1
.LVL1188:
.LBB5843:
.LBB5842:
	.loc 14 350 0
	cmpw 7,4,0
	ble+ 7,.L809
	.loc 14 351 0
	addi 3,1,40
.LVL1189:
	li 5,0
.LEHB44:
	bl _ZN5idStr10ReAllocateEib
.LEHE44:
.LVL1190:
	b .L809
.LVL1191:
.L805:
.LBE5842:
.LBE5843:
.LBE5845:
.LBE5864:
.LBE5871:
.LBE5873:
.LBE5875:
	.loc 4 1636 0
	lis 29,.LC91@ha
	mr 3,31
.LVL1192:
	la 29,.LC91@l(29)
	li 5,0
	mr 4,29
.LEHB45:
	bl _ZNK6idDict11MatchPrefixEPKcPK10idKeyValue
.LVL1193:
	.loc 4 1637 0
	mr. 30,3
	beq- 0,.L811
	.loc 4 1639 0
	lis 27,.LC92@ha
	lis 28,declManager@ha
	la 27,.LC92@l(27)
	b .L838
.L812:
	.loc 4 1642 0
	mr 5,30
	mr 3,31
.LVL1194:
	mr 4,29
	bl _ZNK6idDict11MatchPrefixEPKcPK10idKeyValue
.LVL1195:
	.loc 4 1637 0
	mr. 30,3
	beq- 0,.L811
.L838:
	.loc 4 4268 0
	lwz 11,4(30)
	.loc 4 1638 0
	lwz 0,0(11)
	cmpwi 7,0,0
	beq+ 7,.L812
	.loc 4 1639 0
	lwz 3,declManager@l(28)
.LVL1196:
	mr 4,27
	lwz 5,4(11)
	lwz 9,0(3)
	lwz 0,96(9)
	mtctr 0
	crxor 6,6,6
	bctrl
	.loc 4 1640 0
	lwz 3,declManager@l(28)
.LVL1197:
.LBB5876:
	.loc 4 4268 0
	lwz 9,4(30)
.LBE5876:
	.loc 4 1640 0
	li 4,2
	lwz 11,0(3)
	li 6,1
	lwz 5,4(9)
	li 7,0
	lwz 0,60(11)
	mtctr 0
	bctrl
.LVL1198:
	.loc 4 1642 0
	mr 5,30
	mr 3,31
	mr 4,29
	bl _ZNK6idDict11MatchPrefixEPKcPK10idKeyValue
.LVL1199:
	.loc 4 1637 0
	mr. 30,3
	bne+ 0,.L838
.L811:
	.loc 4 1645 0
	lis 29,.LC93@ha
	mr 3,31
.LVL1200:
	la 29,.LC93@l(29)
	li 5,0
	mr 4,29
	bl _ZNK6idDict11MatchPrefixEPKcPK10idKeyValue
.LVL1201:
	.loc 4 1646 0
	mr. 30,3
	bne+ 0,.L837
	b .L814
.L815:
	.loc 4 1650 0
	mr 5,30
	mr 3,31
.LVL1202:
	mr 4,29
	bl _ZNK6idDict11MatchPrefixEPKcPK10idKeyValue
.LVL1203:
	.loc 4 1646 0
	mr. 30,3
	beq- 0,.L814
.L837:
	.loc 4 4268 0
	lwz 9,4(30)
	.loc 4 1647 0
	lwz 0,0(9)
	cmpwi 7,0,0
	beq+ 7,.L815
	.loc 4 1648 0
	lwz 4,4(9)
	li 5,0
	li 6,1
	mr 3,22
.LVL1204:
	bl _ZNK11idGameLocal13FindEntityDefEPKcbb
	.loc 4 1650 0
	mr 5,30
	mr 3,31
	mr 4,29
	bl _ZNK6idDict11MatchPrefixEPKcPK10idKeyValue
.LVL1205:
	.loc 4 1646 0
	mr. 30,3
	bne+ 0,.L837
.L814:
	.loc 4 1653 0
	lis 29,.LC94@ha
	mr 3,31
.LVL1206:
	la 29,.LC94@l(29)
	li 5,0
	mr 4,29
	bl _ZNK6idDict11MatchPrefixEPKcPK10idKeyValue
.LVL1207:
	.loc 4 1654 0
	mr. 30,3
	beq- 0,.L817
	.loc 4 1656 0
	lis 28,declManager@ha
	b .L836
.L818:
	.loc 4 1658 0
	mr 5,30
	mr 3,31
.LVL1208:
	mr 4,29
	bl _ZNK6idDict11MatchPrefixEPKcPK10idKeyValue
.LVL1209:
	.loc 4 1654 0
	mr. 30,3
	beq- 0,.L817
.L836:
	.loc 4 4268 0
	lwz 9,4(30)
	.loc 4 1655 0
	lwz 0,0(9)
	cmpwi 7,0,0
	beq+ 7,.L818
	.loc 4 1656 0
	lwz 3,declManager@l(28)
.LVL1210:
	li 4,9
	lwz 5,4(9)
	li 6,0
	lwz 11,0(3)
	li 7,0
	lwz 0,60(11)
	mtctr 0
	bctrl
	.loc 4 1658 0
	mr 5,30
	mr 3,31
	mr 4,29
	bl _ZNK6idDict11MatchPrefixEPKcPK10idKeyValue
.LVL1211:
	.loc 4 1654 0
	mr. 30,3
	bne+ 0,.L836
.L817:
	.loc 4 1661 0
	lis 29,.LC95@ha
	mr 3,31
.LVL1212:
	la 29,.LC95@l(29)
	li 5,0
	mr 4,29
	bl _ZNK6idDict11MatchPrefixEPKcPK10idKeyValue
.LVL1213:
	.loc 4 1662 0
	mr. 30,3
	beq- 0,.L820
	.loc 4 1664 0
	lis 28,declManager@ha
	b .L835
.L821:
	.loc 4 1666 0
	mr 5,30
	mr 3,31
.LVL1214:
	mr 4,29
	bl _ZNK6idDict11MatchPrefixEPKcPK10idKeyValue
.LVL1215:
	.loc 4 1662 0
	mr. 30,3
	beq- 0,.L820
.L835:
	.loc 4 4268 0
	lwz 9,4(30)
	.loc 4 1663 0
	lwz 0,0(9)
	cmpwi 7,0,0
	beq+ 7,.L821
	.loc 4 1664 0
	lwz 3,declManager@l(28)
.LVL1216:
	li 4,10
	lwz 5,4(9)
	li 6,0
	lwz 11,0(3)
	li 7,0
	lwz 0,60(11)
	mtctr 0
	bctrl
	.loc 4 1666 0
	mr 5,30
	mr 3,31
	mr 4,29
	bl _ZNK6idDict11MatchPrefixEPKcPK10idKeyValue
.LVL1217:
	.loc 4 1662 0
	mr. 30,3
	bne+ 0,.L835
.L820:
	.loc 4 1669 0
	lis 29,.LC96@ha
	mr 3,31
.LVL1218:
	la 29,.LC96@l(29)
	li 5,0
	mr 4,29
	bl _ZNK6idDict11MatchPrefixEPKcPK10idKeyValue
.LVL1219:
	.loc 4 1670 0
	mr. 30,3
	beq- 0,.L777
	.loc 4 1672 0
	lis 28,declManager@ha
	b .L834
.L823:
	.loc 4 1674 0
	mr 5,30
	mr 3,31
.LVL1220:
	mr 4,29
	bl _ZNK6idDict11MatchPrefixEPKcPK10idKeyValue
.LVL1221:
	.loc 4 1670 0
	mr. 30,3
	beq- 0,.L777
.L834:
	.loc 4 4268 0
	lwz 9,4(30)
	.loc 4 1671 0
	lwz 0,0(9)
	cmpwi 7,0,0
	beq+ 7,.L823
	.loc 4 1672 0
	lwz 3,declManager@l(28)
.LVL1222:
	li 4,11
	lwz 5,4(9)
	li 6,0
	lwz 11,0(3)
	li 7,0
	lwz 0,60(11)
	mtctr 0
	bctrl
	.loc 4 1674 0
	mr 5,30
	mr 3,31
	mr 4,29
	bl _ZNK6idDict11MatchPrefixEPKcPK10idKeyValue
.LVL1223:
	.loc 4 1670 0
	mr. 30,3
	bne+ 0,.L834
.LVL1224:
.L777:
.LBE5887:
	.loc 4 1676 0
	lwz 0,124(1)
	lwz 21,76(1)
	mtlr 0
	lwz 22,80(1)
.LVL1225:
	lwz 23,84(1)
	lwz 24,88(1)
	lwz 25,92(1)
	lwz 26,96(1)
	lwz 27,100(1)
	lwz 28,104(1)
	lwz 29,108(1)
	lwz 30,112(1)
	lwz 31,116(1)
.LVL1226:
	addi 1,1,120
	.cfi_remember_state
.LCFI208:
	.cfi_def_cfa_offset 0
	.cfi_restore 31
	.cfi_restore 30
	.cfi_restore 29
	.cfi_restore 28
	.cfi_restore 27
	.cfi_restore 26
	.cfi_restore 25
	.cfi_restore 24
	.cfi_restore 23
	.cfi_restore 22
	.cfi_restore 21
	blr
.LVL1227:
.L862:
.LCFI209:
	.cfi_restore_state
.LBB5888:
.LBB5877:
.LBB5817:
	.loc 4 1609 0 discriminator 4
	lwz 3,4(9)
.LVL1228:
	bl atoi
.LVL1229:
	.loc 4 1610 0 discriminator 4
	mr. 4,3
	bne- 0,.L863
	.loc 4 1610 0 is_stmt 0
	lis 5,.LC73@ha
	la 5,.LC73@l(5)
.LVL1230:
.L801:
	.loc 4 1611 0 is_stmt 1 discriminator 3
	lis 9,declManager@ha
	li 4,6
	lwz 3,declManager@l(9)
	li 6,1
	li 7,0
	lwz 9,0(3)
	lwz 0,60(9)
	mtctr 0
	bctrl
.LVL1231:
	b .L800
.LVL1232:
.L861:
.LBE5817:
.LBE5877:
	.loc 4 1585 0 discriminator 4
	lis 11,declManager@ha
	li 4,1
	lwz 3,declManager@l(11)
.LVL1233:
	li 6,1
	lwz 5,4(9)
	li 7,0
	lwz 11,0(3)
	lwz 0,60(11)
	mtctr 0
	bctrl
.LVL1234:
	b .L793
.LVL1235:
.L860:
	.loc 4 1552 0 discriminator 4
	lis 11,declManager@ha
	li 4,3
	lwz 3,declManager@l(11)
.LVL1236:
	li 6,1
	lwz 5,4(9)
	li 7,0
	lwz 11,0(3)
	lwz 0,60(11)
	mtctr 0
	bctrl
.LVL1237:
	b .L784
.L859:
.LVL1238:
.LBB5878:
.LBB5879:
	.loc 4 1508 0
	lis 3,.LC12@ha
	la 3,.LC12@l(3)
	crxor 6,6,6
	bl _Z10Sys_PrintfPKcz
	b .L780
.LVL1239:
.L858:
.LBE5879:
.LBE5878:
	.loc 4 1525 0
	bctrl
	cmpwi 7,3,0
	beq+ 7,.L777
.LBB5880:
.LBB5881:
	.loc 4 1498 0
	lis 3,.LC11@ha
	la 3,.LC11@l(3)
	crxor 6,6,6
	bl _Z10Sys_PrintfPKcz
	b .L777
.LVL1240:
.L863:
.LBE5881:
.LBE5880:
.LBB5882:
.LBB5818:
	.loc 4 1610 0 discriminator 1
	lis 3,.LC87@ha
.LVL1241:
	la 3,.LC87@l(3)
	crxor 6,6,6
	bl _Z2vaPKcz
.LEHE45:
.LVL1242:
	mr 5,3
	b .L801
.LVL1243:
.L832:
	mr 31,3
.LVL1244:
.L827:
.LBE5818:
.LBE5882:
.LBB5883:
.LBB5874:
.LBB5872:
.LBB5865:
.LBB5866:
.LBB5867:
	.loc 14 501 0
	addi 3,1,40
.LVL1245:
	bl _ZN5idStr8FreeDataEv
.LVL1246:
	mr 3,31
.LEHB46:
	bl _Unwind_Resume
.LEHE46:
.LVL1247:
.L833:
	mr 31,3
.LVL1248:
.LBE5867:
.LBE5866:
.LBE5865:
.LBB5868:
.LBB5869:
.LBB5870:
	addi 3,1,8
.LVL1249:
	bl _ZN5idStr8FreeDataEv
.LVL1250:
	b .L827
.LBE5870:
.LBE5869:
.LBE5868:
.LBE5872:
.LBE5874:
.LBE5883:
.LBE5888:
	.cfi_endproc
.LFE2871:
	.section	.gcc_except_table
.LLSDA2871:
	.byte	0xff
	.byte	0xff
	.byte	0x1
	.uleb128 .LLSDACSE2871-.LLSDACSB2871
.LLSDACSB2871:
	.uleb128 .LEHB40-.LFB2871
	.uleb128 .LEHE40-.LEHB40
	.uleb128 0
	.uleb128 0
	.uleb128 .LEHB41-.LFB2871
	.uleb128 .LEHE41-.LEHB41
	.uleb128 .L832-.LFB2871
	.uleb128 0
	.uleb128 .LEHB42-.LFB2871
	.uleb128 .LEHE42-.LEHB42
	.uleb128 0
	.uleb128 0
	.uleb128 .LEHB43-.LFB2871
	.uleb128 .LEHE43-.LEHB43
	.uleb128 .L832-.LFB2871
	.uleb128 0
	.uleb128 .LEHB44-.LFB2871
	.uleb128 .LEHE44-.LEHB44
	.uleb128 .L833-.LFB2871
	.uleb128 0
	.uleb128 .LEHB45-.LFB2871
	.uleb128 .LEHE45-.LEHB45
	.uleb128 0
	.uleb128 0
	.uleb128 .LEHB46-.LFB2871
	.uleb128 .LEHE46-.LEHB46
	.uleb128 0
	.uleb128 0
.LLSDACSE2871:
	.section	".text"
	.size	_ZN11idGameLocal20CacheDictionaryMediaEPK6idDict, .-_ZN11idGameLocal20CacheDictionaryMediaEPK6idDict
	.align 2
	.globl _ZNK11idGameLocal17FindEntityDefDictEPKcb
	.type	_ZNK11idGameLocal17FindEntityDefDictEPKcb, @function
_ZNK11idGameLocal17FindEntityDefDictEPKcb:
.LFB2919:
	.loc 4 2993 0
	.cfi_startproc
.LVL1251:
	mflr 0
	stwu 1,-8(1)
.LCFI210:
	.cfi_def_cfa_offset 8
	.cfi_register 65, 0
.LBB5889:
	.loc 4 2994 0
	li 6,1
.LBE5889:
	.loc 4 2993 0
	stw 0,12(1)
.LBB5890:
	.loc 4 2994 0
	.cfi_offset 65, 4
	bl _ZNK11idGameLocal13FindEntityDefEPKcbb
.LVL1252:
	.loc 4 2995 0
	mr. 9,3
	li 3,0
.LVL1253:
	beq- 0,.L865
	.loc 4 2995 0 is_stmt 0 discriminator 1
	addi 3,9,8
.L865:
.LBE5890:
	.loc 4 2996 0 is_stmt 1 discriminator 3
	lwz 0,12(1)
	addi 1,1,8
.LCFI211:
	.cfi_def_cfa_offset 0
	mtlr 0
	blr
	.cfi_endproc
.LFE2919:
	.size	_ZNK11idGameLocal17FindEntityDefDictEPKcb, .-_ZNK11idGameLocal17FindEntityDefDictEPKcb
	.align 2
	.globl _ZN11idGameLocal18InhibitEntitySpawnER6idDict
	.type	_ZN11idGameLocal18InhibitEntitySpawnER6idDict, @function
_ZN11idGameLocal18InhibitEntitySpawnER6idDict:
.LFB2920:
	.loc 4 3003 0
	.cfi_startproc
.LVL1254:
	mflr 0
	stwu 1,-32(1)
.LCFI212:
	.cfi_def_cfa_offset 32
	.cfi_register 65, 0
.LBB5906:
	.loc 4 3007 0
	addis 3,3,0x25
.LVL1255:
.LBE5906:
	.loc 4 3003 0
	stw 30,24(1)
	mr 30,4
	.cfi_offset 30, -8
	stw 0,36(1)
	stw 31,28(1)
.LBB5925:
	.loc 4 3007 0
	lbz 0,2016(3)
	.cfi_offset 31, -4
	.cfi_offset 65, 4
	cmpwi 7,0,0
	.loc 4 3005 0
	li 0,0
	stb 0,8(1)
.LVL1256:
	.loc 4 3007 0
	bne- 7,.L883
.LBB5907:
.LBB5908:
	.loc 4 3009 0
	lis 31,g_skill@ha
.LBE5908:
.LBE5907:
	.loc 4 3010 0
	mr 3,4
.LVL1257:
.LBB5910:
.LBB5909:
	.loc 4 3009 0
	la 31,g_skill@l(31)
	.loc 7 143 0
	lwz 9,44(31)
	lwz 0,36(9)
.LBE5909:
.LBE5910:
	.loc 4 3009 0
	cmpwi 7,0,0
	beq- 7,.L884
	.loc 4 3011 0
	cmpwi 7,0,1
	beq- 7,.L885
	.loc 4 3014 0
	lis 4,.LC101@ha
.LVL1258:
	lis 5,.LC59@ha
	la 4,.LC101@l(4)
	la 5,.LC59@l(5)
	addi 6,1,8
	bl _ZNK6idDict7GetBoolEPKcS1_Rb
.LVL1259:
.L869:
.LBB5911:
.LBB5912:
	.loc 7 143 0
	lwz 9,44(31)
.LBE5912:
.LBE5911:
	.loc 4 3019 0
	lwz 0,36(9)
	cmpwi 7,0,3
	beq- 7,.L886
.L872:
	.loc 4 3027 0
	lis 9,.LANCHOR0+2426848@ha
	lbz 0,.LANCHOR0+2426848@l(9)
	cmpwi 7,0,0
	bne- 7,.L875
.LVL1260:
.L882:
	.loc 4 3029 0
	lbz 31,8(1)
.L876:
.LBE5925:
	.loc 4 3035 0
	lwz 0,36(1)
	mr 3,31
	lwz 30,24(1)
	mtlr 0
	lwz 31,28(1)
	addi 1,1,32
	.cfi_remember_state
.LCFI213:
	.cfi_def_cfa_offset 0
	.cfi_restore 31
	.cfi_restore 30
	blr
.LVL1261:
.L875:
.LCFI214:
	.cfi_restore_state
.LBB5926:
.LBB5914:
.LBB5915:
	.loc 11 241 0
	lis 4,.LC65@ha
	mr 3,30
	la 4,.LC65@l(4)
	bl _ZNK6idDict7FindKeyEPKc
.LVL1262:
	.loc 11 242 0
	cmpwi 0,3,0
	beq- 0,.L879
.LVL1263:
.LBB5916:
	.loc 4 4268 0
	lwz 9,4(3)
	lwz 30,4(9)
.LVL1264:
.L877:
.LBE5916:
.LBE5915:
.LBE5914:
	.loc 4 3029 0
	lis 4,.LC104@ha
	mr 3,30
.LVL1265:
	la 4,.LC104@l(4)
	li 31,1
	bl _ZN5idStr4IcmpEPKcS1_
	cmpwi 7,3,0
	beq+ 7,.L876
	.loc 4 3029 0 is_stmt 0 discriminator 2
	lis 4,.LC105@ha
	mr 3,30
	la 4,.LC105@l(4)
	bl _ZN5idStr4IcmpEPKcS1_
	cmpwi 7,3,0
	beq- 7,.L876
	b .L882
.LVL1266:
.L883:
	.loc 4 3008 0 is_stmt 1
	mr 3,4
.LVL1267:
	lis 5,.LC59@ha
	lis 4,.LC98@ha
.LVL1268:
	lis 31,g_skill@ha
	la 4,.LC98@l(4)
	la 5,.LC59@l(5)
	addi 6,1,8
	la 31,g_skill@l(31)
	bl _ZNK6idDict7GetBoolEPKcS1_Rb
.LBB5918:
.LBB5913:
	.loc 7 143 0
	lwz 9,44(31)
.LBE5913:
.LBE5918:
	.loc 4 3019 0
	lwz 0,36(9)
	cmpwi 7,0,3
	bne+ 7,.L872
.L886:
.LVL1269:
.LBB5919:
.LBB5920:
	.loc 11 241 0
	lis 4,.LC65@ha
	mr 3,30
	la 4,.LC65@l(4)
	bl _ZNK6idDict7FindKeyEPKc
.LVL1270:
	.loc 11 242 0
	cmpwi 0,3,0
	beq- 0,.L878
.LVL1271:
.LBB5921:
	.loc 4 4268 0
	lwz 9,4(3)
	lwz 31,4(9)
.LVL1272:
.L873:
.LBE5921:
.LBE5920:
.LBE5919:
	.loc 4 3021 0
	lis 4,.LC102@ha
	mr 3,31
.LVL1273:
	la 4,.LC102@l(4)
	bl _ZN5idStr4IcmpEPKcS1_
	cmpwi 7,3,0
	bne- 7,.L887
.L874:
	.loc 4 3022 0 discriminator 4
	li 0,1
	stb 0,8(1)
	b .L872
.LVL1274:
.L884:
	.loc 4 3010 0
	lis 4,.LC99@ha
	lis 5,.LC59@ha
	la 4,.LC99@l(4)
	la 5,.LC59@l(5)
	addi 6,1,8
	bl _ZNK6idDict7GetBoolEPKcS1_Rb
	b .L869
.L885:
	.loc 4 3012 0
	lis 4,.LC100@ha
	lis 5,.LC59@ha
	la 4,.LC100@l(4)
	la 5,.LC59@l(5)
	addi 6,1,8
	bl _ZNK6idDict7GetBoolEPKcS1_Rb
	b .L869
.LVL1275:
.L887:
	.loc 4 3021 0 discriminator 2
	lis 4,.LC103@ha
	mr 3,31
	la 4,.LC103@l(4)
	bl _ZN5idStr4IcmpEPKcS1_
	cmpwi 7,3,0
	bne- 7,.L872
	b .L874
.LVL1276:
.L879:
.LBB5923:
.LBB5917:
	.loc 11 245 0
	lis 30,.LC3@ha
.LVL1277:
	la 30,.LC3@l(30)
	b .L877
.LVL1278:
.L878:
.LBE5917:
.LBE5923:
.LBB5924:
.LBB5922:
	lis 31,.LC3@ha
	la 31,.LC3@l(31)
	b .L873
.LBE5922:
.LBE5924:
.LBE5926:
	.cfi_endproc
.LFE2920:
	.size	_ZN11idGameLocal18InhibitEntitySpawnER6idDict, .-_ZN11idGameLocal18InhibitEntitySpawnER6idDict
	.align 2
	.globl _ZN11idGameLocal8SetSkillEi
	.type	_ZN11idGameLocal8SetSkillEi, @function
_ZN11idGameLocal8SetSkillEi:
.LFB2921:
	.loc 4 3042 0
	.cfi_startproc
.LVL1279:
	cmpwi 7,4,3
	mflr 0
	stwu 1,-8(1)
.LCFI215:
	.cfi_def_cfa_offset 8
	.cfi_register 65, 0
	stw 0,12(1)
	.loc 4 3042 0
	ble- 7,.L889
	.cfi_offset 65, 4
	li 4,3
.LVL1280:
.L889:
	.loc 4 3053 0
	lis 9,g_skill+44@ha
	lwz 3,g_skill+44@l(9)
.LVL1281:
.LBB5927:
.LBB5928:
.LBB5929:
	.loc 7 148 0
	nor 9,4,4
	srawi 9,9,31
	lwz 11,0(3)
	and 4,4,9
.LVL1282:
	lwz 0,16(11)
	mtctr 0
	bctrl
.LBE5929:
.LBE5928:
.LBE5927:
	.loc 4 3054 0
	lwz 0,12(1)
	addi 1,1,8
.LCFI216:
	.cfi_def_cfa_offset 0
	mtlr 0
	blr
	.cfi_endproc
.LFE2921:
	.size	_ZN11idGameLocal8SetSkillEi, .-_ZN11idGameLocal8SetSkillEi
	.align 2
	.globl _ZNK11idGameLocal9GameStateEv
	.type	_ZNK11idGameLocal9GameStateEv, @function
_ZNK11idGameLocal9GameStateEv:
.LFB2922:
	.loc 4 3063 0
	.cfi_startproc
.LVL1283:
	.loc 4 3064 0
	addis 3,3,0x25
.LVL1284:
	.loc 4 3065 0
	lwz 3,2236(3)
.LVL1285:
	blr
	.cfi_endproc
.LFE2922:
	.size	_ZNK11idGameLocal9GameStateEv, .-_ZNK11idGameLocal9GameStateEv
	.align 2
	.globl _ZN11idGameLocal20RemoveEntityFromHashEPKcP8idEntity
	.type	_ZN11idGameLocal20RemoveEntityFromHashEPKcP8idEntity, @function
_ZN11idGameLocal20RemoveEntityFromHashEPKcP8idEntity:
.LFB2925:
	.loc 4 3154 0
	.cfi_startproc
.LVL1286:
	mflr 0
	stwu 1,-32(1)
.LCFI217:
	.cfi_def_cfa_offset 32
	.cfi_register 65, 0
	stw 27,12(1)
	mr 27,5
	.cfi_offset 27, -20
	stw 30,24(1)
	mr 30,4
	.cfi_offset 30, -8
.LVL1287:
	stw 31,28(1)
	mr 31,3
	.cfi_offset 31, -4
	stw 0,36(1)
	stw 26,8(1)
	stw 28,16(1)
	stw 29,20(1)
.LBB5955:
.LBB5956:
.LBB5957:
.LBB5958:
.LBB5959:
	.loc 14 976 0
	lbz 0,0(4)
	.cfi_offset 29, -12
	.cfi_offset 28, -16
	.cfi_offset 26, -24
	.cfi_offset 65, 4
	cmpwi 7,0,0
	beq- 7,.L906
.LVL1288:
	mr 11,4
.LBE5959:
.LBE5958:
.LBE5957:
.LBE5956:
.LBE5955:
	.loc 4 3154 0
	li 9,119
	li 26,0
.LVL1289:
.L894:
.LBB5988:
.LBB5966:
.LBB5964:
.LBB5962:
.LBB5960:
	.loc 14 977 0
	mullw 10,0,9
	.loc 14 976 0
	lbzu 0,1(11)
	addi 9,9,1
	cmpwi 7,0,0
	.loc 14 977 0
	add 26,26,10
.LVL1290:
	.loc 14 976 0
	bne+ 7,.L894
	addis 28,31,0x1
	lwz 0,-32208(28)
	lwz 9,-32204(28)
	and 26,26,0
.LVL1291:
	and 0,0,9
	and 0,0,26
	slwi 0,0,2
.L893:
.LVL1292:
.LBE5960:
.LBE5962:
.LBE5964:
.LBE5966:
.LBB5967:
.LBB5968:
	.loc 15 239 0
	lwz 9,-32224(28)
.LBE5968:
.LBE5967:
	.loc 4 3164 0
	li 3,0
.LVL1293:
.LBB5970:
.LBB5969:
	.loc 15 239 0
	lwzx 29,9,0
.LVL1294:
.LBE5969:
.LBE5970:
	.loc 4 3158 0
	cmpwi 7,29,-1
	bne+ 7,.L909
	b .L895
.LVL1295:
.L896:
.LBB5971:
.LBB5972:
	.loc 15 249 0
	lwz 0,-32204(28)
	lwz 9,-32216(28)
	and 29,29,0
.LVL1296:
	slwi 29,29,2
	lwzx 29,9,29
.LVL1297:
.LBE5972:
.LBE5971:
	.loc 4 3158 0
	cmpwi 7,29,-1
	beq- 7,.L914
.L909:
	.loc 4 3159 0
	addi 9,29,132
	slwi 9,9,2
	add 9,31,9
	lwz 0,4(9)
	cmpwi 7,0,0
	cmpw 6,0,27
	beq- 7,.L896
	.loc 4 3159 0 is_stmt 0 discriminator 1
	bne+ 6,.L896
.LVL1298:
.LBB5973:
.LBB5974:
	.loc 14 690 0 is_stmt 1 discriminator 3
	lwz 3,72(27)
	mr 4,30
	bl _ZN5idStr4IcmpEPKcS1_
.LBE5974:
.LBE5973:
	.loc 4 3159 0 discriminator 3
	cmpwi 7,3,0
	bne- 7,.L896
.LVL1299:
.LBB5975:
.LBB5976:
	.loc 15 216 0
	lwz 9,-32224(28)
	lis 11,_ZN11idHashIndex13INVALID_INDEXE@ha
	la 0,_ZN11idHashIndex13INVALID_INDEXE@l(11)
	.loc 4 3161 0
	li 3,1
	.loc 15 216 0
	cmpw 7,9,0
	.loc 15 214 0
	lwz 0,-32208(28)
.LVL1300:
	.loc 15 216 0
	beq- 7,.L895
	.loc 15 214 0
	and 26,26,0
.LVL1301:
.LBB5977:
	.loc 15 219 0
	slwi 26,26,2
.LVL1302:
	lwzx 10,9,26
	cmpw 7,10,29
	beq- 7,.L915
.LVL1303:
.LBB5978:
	.loc 15 223 0
	cmpwi 7,10,-1
	beq- 7,.L916
	.loc 15 224 0
	lwz 11,-32216(28)
	slwi 10,10,2
	lwzx 0,11,10
	add 10,11,10
	cmpw 7,0,29
	bne+ 7,.L913
	b .L899
.LVL1304:
.L901:
	lwzx 0,11,9
.LVL1305:
	cmpw 7,0,29
	beq- 7,.L899
.L913:
.LVL1306:
	.loc 15 223 0
	cmpwi 7,0,-1
	.loc 15 224 0
	slwi 9,0,2
	add 10,11,9
	.loc 15 223 0
	bne+ 7,.L901
	.loc 15 224 0
	slwi 29,29,2
.LVL1307:
.L898:
.LBE5978:
.LBE5977:
	.loc 15 230 0
	li 0,-1
	.loc 4 3161 0
	li 3,1
	.loc 15 230 0
	stwx 0,11,29
.LVL1308:
.L895:
.LBE5976:
.LBE5975:
.LBE5988:
	.loc 4 3165 0
	lwz 0,36(1)
	lwz 26,8(1)
	mtlr 0
	lwz 27,12(1)
.LVL1309:
	lwz 28,16(1)
	lwz 29,20(1)
	lwz 30,24(1)
.LVL1310:
	lwz 31,28(1)
.LVL1311:
	addi 1,1,32
	.cfi_remember_state
.LCFI218:
	.cfi_def_cfa_offset 0
	.cfi_restore 31
	.cfi_restore 30
	.cfi_restore 29
	.cfi_restore 28
	.cfi_restore 27
	.cfi_restore 26
	blr
.LVL1312:
.L914:
.LCFI219:
	.cfi_restore_state
	lwz 0,36(1)
.LBB5989:
	.loc 4 3164 0
	li 3,0
.LBE5989:
	.loc 4 3165 0
	lwz 26,8(1)
	mtlr 0
	lwz 27,12(1)
.LVL1313:
	lwz 28,16(1)
	lwz 29,20(1)
.LVL1314:
	lwz 30,24(1)
.LVL1315:
	lwz 31,28(1)
.LVL1316:
	addi 1,1,32
	.cfi_remember_state
	.cfi_restore 26
	.cfi_restore 27
	.cfi_restore 28
	.cfi_restore 29
	.cfi_restore 30
	.cfi_restore 31
.LCFI220:
	.cfi_def_cfa_offset 0
	blr
.LVL1317:
.L899:
.LCFI221:
	.cfi_restore_state
.LBB5990:
.LBB5985:
.LBB5983:
.LBB5981:
.LBB5979:
	.loc 15 225 0
	slwi 29,29,2
.LVL1318:
	lwzx 0,11,29
	stw 0,0(10)
	lwz 11,-32216(28)
	b .L898
.LVL1319:
.L915:
.LBE5979:
	.loc 15 220 0
	lwz 11,-32216(28)
	slwi 29,29,2
.LVL1320:
	lwzx 0,11,29
	stwx 0,9,26
	lwz 11,-32216(28)
	b .L898
.LVL1321:
.L906:
.LBE5981:
.LBE5983:
.LBE5985:
.LBB5986:
.LBB5965:
.LBB5963:
.LBB5961:
	.loc 14 976 0
	li 26,0
	li 0,0
	addis 28,3,0x1
	b .L893
.LVL1322:
.L916:
.LBE5961:
.LBE5963:
.LBE5965:
.LBE5986:
.LBB5987:
.LBB5984:
.LBB5982:
.LBB5980:
	.loc 15 223 0
	slwi 29,29,2
.LVL1323:
	lwz 11,-32216(28)
	b .L898
.LBE5980:
.LBE5982:
.LBE5984:
.LBE5987:
.LBE5990:
	.cfi_endproc
.LFE2925:
	.size	_ZN11idGameLocal20RemoveEntityFromHashEPKcP8idEntity, .-_ZN11idGameLocal20RemoveEntityFromHashEPKcP8idEntity
	.align 2
	.globl _ZNK11idGameLocal14GetTraceEntityERK7trace_s
	.type	_ZNK11idGameLocal14GetTraceEntityERK7trace_s, @function
_ZNK11idGameLocal14GetTraceEntityERK7trace_s:
.LFB2927:
	.loc 4 3204 0
	.cfi_startproc
.LVL1324:
	mflr 0
.LBB5991:
	.loc 4 3207 0
	lwz 9,100(4)
.LBE5991:
	.loc 4 3204 0
	stwu 1,-16(1)
.LCFI222:
	.cfi_def_cfa_offset 16
	.cfi_register 65, 0
.LBB5992:
	.loc 4 3207 0
	addi 9,9,132
.LBE5992:
	.loc 4 3204 0
	stw 30,8(1)
.LBB5993:
	.loc 4 3207 0
	slwi 9,9,2
.LBE5993:
	.loc 4 3204 0
	stw 31,12(1)
.LBB5994:
	.loc 4 3207 0
	add 9,3,9
.LBE5994:
	.loc 4 3204 0
	stw 0,20(1)
	.loc 4 3204 0
	mr 31,3
	.cfi_offset 65, 4
	.cfi_offset 31, -4
	.cfi_offset 30, -8
	mr 30,4
.LBB5995:
	.loc 4 3208 0
	li 3,0
.LVL1325:
	.loc 4 3207 0
	lwz 0,4(9)
	cmpwi 7,0,0
	beq- 7,.L918
	.loc 4 3210 0
	mr 3,0
	bl _ZNK8idEntity13GetBindMasterEv
.LVL1326:
	.loc 4 3211 0
	cmpwi 0,3,0
	beq- 0,.L920
.LVL1327:
.L918:
.LBE5995:
	.loc 4 3215 0
	lwz 0,20(1)
	lwz 30,8(1)
.LVL1328:
	mtlr 0
	lwz 31,12(1)
.LVL1329:
	addi 1,1,16
	.cfi_remember_state
.LCFI223:
	.cfi_def_cfa_offset 0
