	.file	"gx_textures.cpp"
	.section	".text"
.Ltext0:
	.section	.text._ZN14idFixedWinding5ClearEv,"axG",@progbits,_ZN14idFixedWinding5ClearEv,comdat
	.align 2
	.weak	_ZN14idFixedWinding5ClearEv
	.type	_ZN14idFixedWinding5ClearEv, @function
_ZN14idFixedWinding5ClearEv:
.LFB1540:
	.file 1 "d:/Data/Nintendo/DoomGX/src/sys/ogc/../../idlib/../idlib/geometry/Winding.h"
	.loc 1 398 0
	.cfi_startproc
.LVL0:
	.loc 1 399 0
	li 0,0
	.loc 1 400 0
	.loc 1 399 0
	stw 0,4(3)
	.loc 1 400 0
	blr
	.cfi_endproc
.LFE1540:
	.size	_ZN14idFixedWinding5ClearEv, .-_ZN14idFixedWinding5ClearEv
	.section	".text"
	.align 2
	.type	_ZL20stb__PrepareOptTablePhPKhi, @function
_ZL20stb__PrepareOptTablePhPKhi:
.LFB2591:
	.file 2 "d:/Data/Nintendo/DoomGX/src/sys/ogc/stb_dxt.h"
	.loc 2 109 0
	.cfi_startproc
.LVL1:
	stwu 1,-16(1)
.LCFI0:
	.cfi_def_cfa_offset 16
.LBB478:
.LBB479:
.LBB480:
.LBB481:
	.loc 2 111 0
	li 9,0
.LBE481:
.LBE480:
.LBE479:
.LBE478:
	.loc 2 109 0
	stw 30,8(1)
	mr. 30,5
	.cfi_offset 30, -8
	stw 31,12(1)
.LBB508:
.LBB506:
.LBB504:
.LBB502:
.LBB482:
.LBB483:
	.loc 2 123 0
	lis 5,0x51eb
.LVL2:
.LBB484:
.LBB485:
	.loc 2 93 0
	lis 31,0x5555
	.cfi_offset 31, -4
.LBE485:
.LBE484:
	.loc 2 123 0
	ori 5,5,34079
.LBB492:
.LBB486:
	.loc 2 93 0
	ori 31,31,21846
.LVL3:
.L3:
.LBE486:
.LBE492:
.LBE483:
.LBE482:
	.loc 2 113 0 discriminator 1
	ble- 0,.L6
	.loc 2 113 0 is_stmt 0
	lbz 0,0(4)
	li 6,0
	li 12,256
	mr 10,0
.LVL4:
.L9:
.LBE502:
.LBE504:
.LBE506:
.LBE508:
	.loc 2 109 0 is_stmt 1 discriminator 1
	li 11,0
.LBB509:
.LBB507:
.LBB505:
.LBB503:
.LBB500:
.LBB498:
	.loc 2 123 0 discriminator 1
	mtctr 30
	b .L7
.LVL5:
.L5:
.LBE498:
.LBE500:
	.loc 2 111 0
	lbzx 0,4,6
	lbzx 10,4,11
.LVL6:
.L7:
.LBB501:
.LBB499:
	.loc 2 123 0
	subf 8,0,10
.LBB493:
.LBB487:
	.loc 2 93 0
	slwi 10,10,1
.LVL7:
.LBE487:
.LBE493:
	.loc 2 123 0
	srawi 7,8,31
.LBB494:
.LBB488:
	.loc 2 93 0
	add 0,0,10
.LVL8:
.LBE488:
.LBE494:
	.loc 2 123 0
	xor 8,7,8
.LBB495:
.LBB489:
	.loc 2 93 0
	mulhw 10,0,31
.LBE489:
.LBE495:
	.loc 2 123 0
	subf 8,7,8
.LBB496:
.LBB490:
	.loc 2 93 0
	srawi 0,0,31
.LBE490:
.LBE496:
	.loc 2 123 0
	mulli 8,8,3
.LBB497:
.LBB491:
	.loc 2 93 0
	subf 0,0,10
.LBE491:
.LBE497:
	.loc 2 117 0
	subf 0,9,0
	.loc 2 123 0
	srawi 7,8,31
	mulhw 8,8,5
	.loc 2 117 0
	srawi 10,0,31
	xor 0,10,0
	subf 0,10,0
.LVL9:
	.loc 2 123 0
	srawi 8,8,5
	subf 8,7,8
	add 8,8,0
.LVL10:
	.loc 2 125 0
	cmpw 7,8,12
	bge- 7,.L4
	.loc 2 127 0
	stb 11,0(3)
	.loc 2 128 0
	mr 12,8
.LVL11:
	stb 6,1(3)
.LVL12:
.L4:
.LBE499:
	.loc 2 114 0
	addi 11,11,1
.LVL13:
	bdnz .L5
.LBE501:
	.loc 2 113 0
	addi 6,6,1
.LVL14:
	cmpw 7,6,30
	beq- 7,.L6
	lbz 10,0(4)
	lbzx 0,4,6
	b .L9
.LVL15:
.L6:
.LBE503:
.LBE505:
	.loc 2 111 0
	cmpwi 7,9,255
	addi 3,3,2
	addi 9,9,1
.LVL16:
	bne+ 7,.L3
.LBE507:
.LBE509:
	.loc 2 134 0
	lwz 30,8(1)
.LVL17:
	lwz 31,12(1)
	addi 1,1,16
.LCFI1:
	.cfi_def_cfa_offset 0
	.cfi_restore 31
	.cfi_restore 30
	blr
	.cfi_endproc
.LFE2591:
	.size	_ZL20stb__PrepareOptTablePhPKhi, .-_ZL20stb__PrepareOptTablePhPKhi
	.align 2
	.type	_ZL15stb__EvalColorsPhtt, @function
_ZL15stb__EvalColorsPhtt:
.LFB2592:
	.loc 2 137 0
	.cfi_startproc
.LVL18:
	stwu 1,-24(1)
.LCFI2:
	.cfi_def_cfa_offset 24
.LBB510:
.LBB511:
	.loc 2 73 0
	lis 9,.LANCHOR0@ha
	la 9,.LANCHOR0@l(9)
	.loc 2 69 0
	srwi 0,4,11
.LBE511:
.LBE510:
	.loc 2 137 0
	stw 28,8(1)
.LBB519:
.LBB512:
	.loc 2 70 0
	rlwinm 11,4,27,26,31
.LBE512:
.LBE519:
	.loc 2 137 0
	stw 29,12(1)
.LBB520:
.LBB513:
	.loc 2 74 0
	add 11,9,11
.LBE513:
.LBE520:
	.loc 2 137 0
	stw 30,16(1)
.LBB521:
.LBB514:
	.loc 2 71 0
	rlwinm 4,4,0,27,31
.LVL19:
.LBE514:
.LBE521:
	.loc 2 137 0
	stw 31,20(1)
.LBB522:
.LBB515:
	.loc 2 76 0
	li 8,0
.LBE515:
.LBE522:
.LBB523:
.LBB524:
	.loc 2 69 0
	srwi 7,5,11
.LBE524:
.LBE523:
.LBB531:
.LBB516:
	.loc 2 73 0
	lbzx 0,9,0
.LVL20:
	stb 0,0(3)
.LBE516:
.LBE531:
.LBB532:
.LBB533:
.LBB534:
.LBB535:
	.loc 2 93 0
	slwi 28,0,1
	.cfi_offset 31, -4
	.cfi_offset 30, -8
	.cfi_offset 29, -12
	.cfi_offset 28, -16
.LBE535:
.LBE534:
.LBE533:
.LBE532:
.LBB564:
.LBB517:
	.loc 2 74 0
	lbz 10,32(11)
	stb 10,1(3)
.LBE517:
.LBE564:
.LBB565:
.LBB556:
.LBB540:
.LBB541:
	.loc 2 93 0
	slwi 29,10,1
.LBE541:
.LBE540:
.LBE556:
.LBE565:
.LBB566:
.LBB518:
	.loc 2 75 0
	lbzx 11,9,4
	.loc 2 76 0
	stb 8,3(3)
.LVL21:
	.loc 2 75 0
	stb 11,2(3)
.LBE518:
.LBE566:
.LBB567:
.LBB525:
	.loc 2 73 0
	lbzx 4,9,7
	.loc 2 70 0
	rlwinm 7,5,27,26,31
	.loc 2 74 0
	add 7,9,7
	.loc 2 71 0
	rlwinm 5,5,0,27,31
.LVL22:
	.loc 2 73 0
	stb 4,4(3)
.LBE525:
.LBE567:
.LBB568:
.LBB569:
.LBB570:
.LBB571:
	.loc 2 93 0
	slwi 30,4,1
	add 0,0,30
.LBE571:
.LBE570:
.LBE569:
.LBE568:
.LBB589:
.LBB557:
.LBB544:
.LBB536:
	add 4,4,28
.LBE536:
.LBE544:
.LBE557:
.LBE589:
.LBB590:
.LBB526:
	.loc 2 74 0
	lbz 6,32(7)
.LBE526:
.LBE590:
	.loc 2 142 0
	lwz 28,8(1)
.LBB591:
.LBB527:
	.loc 2 74 0
	stb 6,5(3)
.LBE527:
.LBE591:
.LBB592:
.LBB584:
.LBB573:
.LBB574:
	.loc 2 93 0
	slwi 31,6,1
	add 10,10,31
.LBE574:
.LBE573:
.LBE584:
.LBE592:
.LBB593:
.LBB558:
.LBB545:
.LBB542:
	add 6,6,29
.LBE542:
.LBE545:
.LBE558:
.LBE593:
.LBB594:
.LBB528:
	.loc 2 75 0
	lbzx 7,9,5
.LBE528:
.LBE594:
.LBB595:
.LBB559:
.LBB546:
.LBB547:
	.loc 2 93 0
	slwi 5,11,1
.LVL23:
.LBE547:
.LBE546:
.LBB550:
.LBB537:
	lis 9,0x5555
.LBE537:
.LBE550:
.LBE559:
.LBE595:
.LBB596:
.LBB529:
	.loc 2 76 0
	stb 8,7(3)
.LBE529:
.LBE596:
.LBB597:
.LBB585:
.LBB576:
.LBB577:
	.loc 2 93 0
	slwi 12,7,1
.LBE577:
.LBE576:
.LBE585:
.LBE597:
.LBB598:
.LBB560:
.LBB551:
.LBB538:
	ori 9,9,21846
.LBE538:
.LBE551:
.LBB552:
.LBB548:
	add 5,7,5
.LBE548:
.LBE552:
.LBE560:
.LBE598:
.LBB599:
.LBB586:
.LBB580:
.LBB578:
	add 11,11,12
.LBE578:
.LBE580:
.LBE586:
.LBE599:
.LBB600:
.LBB561:
.LBB553:
.LBB539:
	mulhw 4,4,9
.LVL24:
.LBE539:
.LBE553:
.LBE561:
.LBE600:
	.loc 2 142 0
	lwz 29,12(1)
	lwz 30,16(1)
	lwz 31,20(1)
.LBB601:
.LBB530:
	.loc 2 75 0
	stb 7,6(3)
.LBE530:
.LBE601:
	.loc 2 142 0
	addi 1,1,24
.LCFI3:
	.cfi_def_cfa_offset 0
	.cfi_restore 31
	.cfi_restore 30
	.cfi_restore 29
	.cfi_restore 28
.LBB602:
.LBB562:
.LBB554:
.LBB543:
	.loc 2 93 0
	mulhw 6,6,9
.LBE543:
.LBE554:
	.loc 2 100 0
	stb 4,8(3)
.LBB555:
.LBB549:
	.loc 2 93 0
	mulhw 8,5,9
.LBE549:
.LBE555:
	.loc 2 101 0
	stb 6,9(3)
.LVL25:
.LBE562:
.LBE602:
.LBB603:
.LBB587:
.LBB581:
.LBB572:
	.loc 2 93 0
	mulhw 0,0,9
.LBE572:
.LBE581:
.LBE587:
.LBE603:
.LBB604:
.LBB563:
	.loc 2 102 0
	stb 8,10(3)
.LVL26:
.LBE563:
.LBE604:
.LBB605:
.LBB588:
.LBB582:
.LBB575:
	.loc 2 93 0
	mulhw 10,10,9
.LBE575:
.LBE582:
	.loc 2 100 0
	stb 0,12(3)
.LVL27:
.LBB583:
.LBB579:
	.loc 2 93 0
	mulhw 9,11,9
.LBE579:
.LBE583:
	.loc 2 101 0
	stb 10,13(3)
.LVL28:
	.loc 2 102 0
	stb 9,14(3)
.LBE588:
.LBE605:
	.loc 2 142 0
	blr
	.cfi_endproc
.LFE2592:
	.size	_ZL15stb__EvalColorsPhtt, .-_ZL15stb__EvalColorsPhtt
	.align 2
	.type	_ZL21stb__MatchColorsBlockPhS_i, @function
_ZL21stb__MatchColorsBlockPhS_i:
.LFB2594:
	.loc 2 174 0
	.cfi_startproc
.LVL29:
	stwu 1,-160(1)
.LCFI4:
	.cfi_def_cfa_offset 160
	stw 23,124(1)
	stw 24,128(1)
	stw 25,132(1)
	stw 26,136(1)
	stw 27,140(1)
	stw 28,144(1)
	stw 29,148(1)
	stw 30,152(1)
	stw 31,156(1)
.LBB606:
	.loc 2 176 0
	lbz 7,0(4)
	lbz 8,4(4)
	.loc 2 178 0
	lbz 9,2(4)
	.loc 2 177 0
	lbz 10,1(4)
	.loc 2 176 0
	subf 8,8,7
.LVL30:
	.loc 2 177 0
	lbz 11,5(4)
	.loc 2 173 0
	li 7,16
	.loc 2 178 0
	lbz 0,6(4)
	.loc 2 173 0
	mtctr 7
	.loc 2 177 0
	subf 11,11,10
.LVL31:
	.loc 2 178 0
	subf 0,0,9
.LVL32:
	addi 9,1,52
.LVL33:
.L15:
	.loc 2 185 0 discriminator 2
	lbz 10,0(3)
	lbz 6,1(3)
	lbz 7,2(3)
	mullw 10,10,8
	addi 3,3,4
	mullw 6,6,11
	mullw 7,7,0
	add 10,10,6
	add 10,10,7
	stwu 10,4(9)
	.loc 2 184 0 discriminator 2
	bdnz .L15
	.cfi_offset 31, -4
	.cfi_offset 30, -8
	.cfi_offset 29, -12
	.cfi_offset 28, -16
	.cfi_offset 27, -20
	.cfi_offset 26, -24
	.cfi_offset 25, -28
	.cfi_offset 24, -32
	.cfi_offset 23, -36
	.loc 2 173 0
	li 10,4
	.loc 2 184 0
	addi 9,1,4
	.loc 2 173 0
	mtctr 10
.LVL34:
.L16:
	.loc 2 188 0 discriminator 2
	lbz 10,0(4)
	lbz 6,1(4)
	lbz 7,2(4)
	mullw 10,10,8
	addi 4,4,4
	mullw 6,6,11
	mullw 7,7,0
	add 10,10,6
	add 10,10,7
	stwu 10,4(9)
	.loc 2 187 0 discriminator 2
	bdnz .L16
.LBB607:
	.loc 2 202 0
	cmpwi 7,5,0
.LBE607:
	.loc 2 199 0
	lwz 29,16(1)
	.loc 2 198 0
	lwz 5,20(1)
.LVL35:
	lwz 28,12(1)
	.loc 2 200 0
	lwz 31,8(1)
	.loc 2 199 0
	add 8,5,29
.LVL36:
	.loc 2 198 0
	add 7,28,5
	.loc 2 199 0
	srawi 8,8,1
	.loc 2 200 0
	add 10,29,31
	.loc 2 198 0
	srawi 7,7,1
.LVL37:
	.loc 2 200 0
	srawi 10,10,1
.LVL38:
.LBB631:
	.loc 2 202 0
	bne- 7,.L17
	li 0,16
.LVL39:
	addi 11,1,120
.LVL40:
	mtctr 0
	li 3,0
.LVL41:
.L22:
.LBB608:
.LBB609:
	.loc 2 205 0
	lwzu 0,-4(11)
.LVL42:
	.loc 2 206 0
	slwi 3,3,2
.LVL43:
	.loc 2 209 0
	cmpw 6,7,0
	.loc 2 211 0
	cmpw 1,10,0
	.loc 2 208 0
	cmpw 7,8,0
	.loc 2 209 0
	crnot 26,25
	.loc 2 211 0
	mfcr 0
	rlwinm 0,0,6,1
	slwi 0,0,1
	.loc 2 209 0
	mfcr 9
	rlwinm 9,9,27,1
	neg 9,9
	rlwinm 9,9,0,30,30
	addi 9,9,1
	.loc 2 208 0
	ble- 7,.L18
	.loc 2 209 0
	or 3,9,3
.LVL44:
.LBE609:
	.loc 2 204 0
	bdnz .L22
.LVL45:
.L23:
.LBE608:
.LBE631:
.LBE606:
	.loc 2 267 0
	lwz 23,124(1)
	lwz 24,128(1)
	lwz 25,132(1)
	lwz 26,136(1)
	lwz 27,140(1)
	lwz 28,144(1)
	lwz 29,148(1)
	lwz 30,152(1)
	lwz 31,156(1)
	addi 1,1,160
	.cfi_remember_state
.LCFI5:
	.cfi_def_cfa_offset 0
	.cfi_restore 31
	.cfi_restore 30
	.cfi_restore 29
	.cfi_restore 28
	.cfi_restore 27
	.cfi_restore 26
	.cfi_restore 25
	.cfi_restore 24
	.cfi_restore 23
	blr
.LVL46:
.L18:
.LCFI6:
	.cfi_restore_state
.LBB633:
.LBB632:
.LBB611:
.LBB610:
	.loc 2 211 0
	or 3,0,3
.LVL47:
.LBE610:
	.loc 2 204 0
	bdnz .L22
	b .L23
.LVL48:
.L17:
.LBE611:
.LBB612:
	.loc 2 222 0
	li 0,0
.LVL49:
	li 6,0
	addi 11,1,56
.LVL50:
	stw 0,24(1)
	stw 0,28(1)
.LBB613:
.LBB614:
	.loc 2 228 0
	mulli 6,6,3
.LBE614:
.LBE613:
	.loc 2 222 0
	stw 0,32(1)
	.loc 2 218 0
	slwi 27,7,4
.LVL51:
	.loc 2 222 0
	stw 0,36(1)
.LBB624:
.LBB615:
	.loc 2 254 0
	li 7,4
.LBE615:
.LBE624:
	.loc 2 222 0
	stw 0,40(1)
.LBB625:
.LBB616:
	.loc 2 254 0
	mtctr 7
.LBE616:
.LBE625:
	.loc 2 222 0
	stw 0,44(1)
	.loc 2 219 0
	slwi 8,8,4
.LVL52:
	.loc 2 222 0
	stw 0,48(1)
	.loc 2 220 0
	slwi 25,10,4
.LVL53:
	.loc 2 222 0
	stw 0,52(1)
.LVL54:
.LBB626:
.LBB617:
	.loc 2 228 0
	mulli 0,0,5
	lwz 12,0(11)
.LBE617:
.LBE626:
	.loc 2 222 0
	li 4,0
.LBB627:
.LBB618:
	.loc 2 228 0
	add 0,6,0
.LBE618:
.LBE627:
	.loc 2 215 0
	addi 9,1,40
.LBB628:
.LBB619:
	.loc 2 228 0
	slwi 7,12,4
.LBE619:
.LBE628:
	.loc 2 222 0
	addi 10,1,24
.LBB629:
.LBB620:
	.loc 2 228 0
	add 0,7,0
.LVL55:
.LBE620:
.LBE629:
	.loc 2 222 0
	li 3,0
.LBB630:
.LBB621:
	.loc 2 229 0
	cmpw 7,8,0
	ble- 7,.L24
.LVL56:
.L47:
	.loc 2 230 0
	cmpw 7,27,0
	li 30,3
	mr 0,5
.LVL57:
	ble- 7,.L25
	mr 0,28
	li 30,1
.L25:
.LVL58:
	.loc 2 233 0
	subf 0,0,12
	.loc 2 236 0
	lwz 6,4(11)
	.loc 2 233 0
	stw 0,0(10)
.LVL59:
	.loc 2 236 0
	mulli 12,0,7
	lwz 26,8(9)
	lwz 7,4(9)
	mulli 26,26,3
	mulli 7,7,5
	add 12,12,26
	lwz 26,0(9)
	add 12,12,7
	slwi 7,6,4
	add 12,12,26
	add 12,7,12
.LVL60:
	.loc 2 237 0
	cmpw 7,8,12
	ble- 7,.L26
.L48:
	.loc 2 238 0
	cmpw 7,27,12
	mr 7,5
	li 26,12
	ble- 7,.L27
	mr 7,28
	li 26,4
.L27:
.LVL61:
	.loc 2 241 0
	subf 6,7,6
	.loc 2 244 0
	lwz 12,8(11)
.LVL62:
	.loc 2 241 0
	stw 6,4(10)
	.loc 2 244 0
	mulli 7,6,7
	.loc 2 242 0
	or 26,26,30
.LVL63:
	.loc 2 244 0
	lwz 23,12(9)
	lwz 24,8(9)
	mulli 23,23,3
	mulli 24,24,5
	add 7,7,23
	lwz 23,4(9)
	add 7,7,24
	slwi 24,12,4
	add 7,7,23
	add 7,24,7
.LVL64:
	.loc 2 245 0
	cmpw 7,8,7
	ble- 7,.L28
	.loc 2 246 0
	cmpw 7,27,7
	li 30,48
	mr 7,5
.LVL65:
	ble- 7,.L29
	mr 7,28
	li 30,16
.L29:
	.loc 2 249 0
	subf 12,7,12
	.loc 2 250 0
	or 26,26,30
.LVL66:
	.loc 2 249 0
	stw 12,8(10)
	.loc 2 252 0
	mulli 24,12,7
	lwz 12,12(11)
	lwz 7,12(9)
	lwz 23,8(9)
	mulli 7,7,5
	add 7,24,7
	slwi 24,12,4
	add 7,7,23
	add 7,24,7
.LVL67:
	.loc 2 253 0
	cmpw 7,8,7
	ble- 7,.L30
	.loc 2 254 0
	cmpw 7,27,7
	li 30,192
	mr 7,5
.LVL68:
	ble- 7,.L31
	mr 7,28
	li 30,64
.L31:
	.loc 2 258 0
	or 30,26,30
	.loc 2 257 0
	subf 12,7,12
	.loc 2 261 0
	slw 30,30,4
	.loc 2 257 0
	stw 12,12(10)
.LVL69:
	.loc 2 260 0
	addi 11,11,16
.LVL70:
	.loc 2 261 0
	or 3,3,30
.LVL71:
	addi 4,4,8
.LBE621:
	.loc 2 224 0
	bdz .L23
.LBB622:
	.loc 2 228 0
	lwz 12,0(11)
	mulli 6,6,3
	mulli 0,0,5
.LBE622:
	.loc 2 224 0
	mr 7,10
	mr 10,9
.LVL72:
	mr 9,7
.LVL73:
.LBB623:
	.loc 2 228 0
	add 0,6,0
	slwi 7,12,4
.LVL74:
	add 0,7,0
.LVL75:
	.loc 2 229 0
	cmpw 7,8,0
	bgt- 7,.L47
.LVL76:
.L24:
	.loc 2 232 0
	cmpw 7,25,0
	li 30,0
	mr 0,31
.LVL77:
	ble- 7,.L25
	mr 0,29
	.loc 2 236 0
	lwz 6,4(11)
	.loc 2 233 0
	subf 0,0,12
	.loc 2 232 0
	li 30,2
.LVL78:
	.loc 2 233 0
	stw 0,0(10)
.LVL79:
	.loc 2 236 0
	mulli 12,0,7
	lwz 26,8(9)
	lwz 7,4(9)
	mulli 26,26,3
	mulli 7,7,5
	add 12,12,26
	lwz 26,0(9)
	add 12,12,7
	slwi 7,6,4
	add 12,12,26
	add 12,7,12
.LVL80:
	.loc 2 237 0
	cmpw 7,8,12
	bgt- 7,.L48
.L26:
	.loc 2 240 0
	cmpw 7,25,12
	mr 7,31
	li 26,0
	ble- 7,.L27
	mr 7,29
	li 26,8
	b .L27
.LVL81:
.L30:
	.loc 2 256 0
	cmpw 7,25,7
	li 30,0
	mr 7,31
.LVL82:
	ble- 7,.L31
	mr 7,29
	li 30,128
	b .L31
.LVL83:
.L28:
	.loc 2 248 0
	cmpw 7,25,7
	li 30,0
	mr 7,31
.LVL84:
	ble- 7,.L29
	mr 7,29
	li 30,32
	b .L29
.LBE623:
.LBE630:
.LBE612:
.LBE632:
.LBE633:
	.cfi_endproc
.LFE2594:
	.size	_ZL21stb__MatchColorsBlockPhS_i, .-_ZL21stb__MatchColorsBlockPhS_i
	.section	.text._ZN9idWinding5ClearEv,"axG",@progbits,_ZN9idWinding5ClearEv,comdat
	.align 2
	.weak	_ZN9idWinding5ClearEv
	.type	_ZN9idWinding5ClearEv, @function
_ZN9idWinding5ClearEv:
.LFB1511:
	.loc 1 249 0
	.cfi_startproc
.LVL85:
	mflr 0
	stwu 1,-16(1)
.LCFI7:
	.cfi_def_cfa_offset 16
	.cfi_register 65, 0
	stw 31,12(1)
	mr 31,3
	.cfi_offset 31, -4
	stw 0,20(1)
	.loc 1 250 0
	li 0,0
	.cfi_offset 65, 4
	.loc 1 251 0
	lwz 3,8(3)
.LVL86:
	.loc 1 250 0
	stw 0,4(31)
	.loc 1 251 0
	cmpwi 7,3,0
	beq- 7,.L50
	.loc 1 251 0 is_stmt 0 discriminator 1
	bl _ZdaPv
.L50:
	.loc 1 252 0 is_stmt 1
	li 0,0
	stw 0,8(31)
	.loc 1 253 0
	lwz 0,20(1)
	lwz 31,12(1)
.LVL87:
	mtlr 0
	addi 1,1,16
.LCFI8:
	.cfi_def_cfa_offset 0
	.cfi_restore 31
	blr
	.cfi_endproc
.LFE1511:
	.size	_ZN9idWinding5ClearEv, .-_ZN9idWinding5ClearEv
	.section	.text._ZN9idWindingD2Ev,"axG",@progbits,_ZN9idWindingD5Ev,comdat
	.align 2
	.weak	_ZN9idWindingD2Ev
	.type	_ZN9idWindingD2Ev, @function
_ZN9idWindingD2Ev:
.LFB1499:
	.loc 1 183 0
	.cfi_startproc
.LVL88:
	mflr 0
	stwu 1,-16(1)
.LCFI9:
	.cfi_def_cfa_offset 16
	.cfi_register 65, 0
.LBB635:
	lis 9,_ZTV9idWinding+8@ha
.LBE635:
	stw 31,12(1)
	mr 31,3
	.cfi_offset 31, -4
	stw 0,20(1)
.LBB636:
	.loc 1 183 0
	la 0,_ZTV9idWinding+8@l(9)
	.cfi_offset 65, 4
	.loc 1 184 0
	lwz 3,8(3)
.LVL89:
	.loc 1 183 0
	stw 0,0(31)
	.loc 1 184 0
	cmpwi 7,3,0
	beq- 7,.L52
	.loc 1 184 0 is_stmt 0 discriminator 1
	bl _ZdaPv
.L52:
	.loc 1 185 0 is_stmt 1
	li 0,0
	stw 0,8(31)
.LBE636:
	.loc 1 186 0
	lwz 0,20(1)
	lwz 31,12(1)
.LVL90:
	mtlr 0
	addi 1,1,16
.LCFI10:
	.cfi_def_cfa_offset 0
	.cfi_restore 31
	blr
	.cfi_endproc
.LFE1499:
	.size	_ZN9idWindingD2Ev, .-_ZN9idWindingD2Ev
	.section	".text"
	.align 2
	.type	_ZL18qgx_GLWrapModeToGXi, @function
_ZL18qgx_GLWrapModeToGXi:
.LFB2580:
	.file 3 "d:/Data/Nintendo/DoomGX/src/sys/ogc/gx_textures.cpp"
	.loc 3 120 0
	.cfi_startproc
.LVL91:
	mflr 0
	stwu 1,-8(1)
.LCFI11:
	.cfi_def_cfa_offset 8
	.cfi_register 65, 0
	mr 4,3
	stw 0,12(1)
	.loc 3 121 0
	xoris 0,3,0xffff
	.cfi_offset 65, 4
	cmpwi 7,0,-32467
	beq 7,.L58
	xoris 0,3,0xffff
	cmpwi 7,0,-32465
	beq 7,.L58
	cmpwi 7,3,10497
	.loc 3 123 0
	li 3,1
.LVL92:
	.loc 3 121 0
	beq- 7,.L57
	.loc 3 129 0
	lis 3,.LC0@ha
	la 3,.LC0@l(3)
	crxor 6,6,6
	bl _Z9Sys_ErrorPKcz
.LVL93:
	.loc 3 131 0
	li 3,0
.L57:
	.loc 3 132 0
	lwz 0,12(1)
	addi 1,1,8
	.cfi_remember_state
.LCFI12:
	.cfi_def_cfa_offset 0
	mtlr 0
	blr
.LVL94:
.L58:
.LCFI13:
	.cfi_restore_state
	lwz 0,12(1)
	.loc 3 125 0
	li 3,0
.LVL95:
	.loc 3 132 0
	addi 1,1,8
.LCFI14:
	.cfi_def_cfa_offset 0
	mtlr 0
	blr
	.cfi_endproc
.LFE2580:
	.size	_ZL18qgx_GLWrapModeToGXi, .-_ZL18qgx_GLWrapModeToGXi
	.align 2
	.type	_ZL16qgx_GLFilterToGXi, @function
_ZL16qgx_GLFilterToGXi:
.LFB2579:
	.loc 3 100 0
	.cfi_startproc
.LVL96:
	.loc 3 101 0
	cmpwi 7,3,9984
	.loc 3 100 0
	mflr 0
	stwu 1,-16(1)
.LCFI15:
	.cfi_def_cfa_offset 16
	.cfi_register 65, 0
	stw 31,12(1)
	mr 31,3
	.cfi_offset 31, -4
	stw 0,20(1)
	.loc 3 101 0
	beq- 7,.L63
	.cfi_offset 65, 4
	ble- 7,.L69
	cmpwi 7,3,9986
	beq- 7,.L65
	bge- 7,.L70
	.loc 3 113 0
	lis 3,.LC3@ha
.LVL97:
	la 3,.LC3@l(3)
	crxor 6,6,6
	bl _Z9Sys_ErrorPKcz
.L60:
	.loc 3 115 0
	lis 3,.LC4@ha
	mr 4,31
	la 3,.LC4@l(3)
	crxor 6,6,6
	bl _Z9Sys_ErrorPKcz
	.loc 3 117 0
	li 3,0
.L61:
	.loc 3 118 0
	lwz 0,20(1)
	lwz 31,12(1)
.LVL98:
	mtlr 0
	addi 1,1,16
	.cfi_remember_state
.LCFI16:
	.cfi_def_cfa_offset 0
	.cfi_restore 31
	blr
.LVL99:
.L69:
.LCFI17:
	.cfi_restore_state
	.loc 3 101 0
	cmpwi 7,3,9728
	.loc 3 105 0
	li 3,0
.LVL100:
	.loc 3 101 0
	beq- 7,.L61
	cmpwi 7,31,9729
	.loc 3 103 0
	li 3,1
	.loc 3 101 0
	bne+ 7,.L60
	b .L61
.L63:
	.loc 3 109 0
	lis 3,.LC1@ha
	la 3,.LC1@l(3)
	crxor 6,6,6
	bl _Z9Sys_ErrorPKcz
.L65:
	.loc 3 111 0
	lis 3,.LC2@ha
	la 3,.LC2@l(3)
	crxor 6,6,6
	bl _Z9Sys_ErrorPKcz
	.loc 3 113 0
	lis 3,.LC3@ha
	la 3,.LC3@l(3)
	crxor 6,6,6
	bl _Z9Sys_ErrorPKcz
	b .L60
.L70:
	.loc 3 101 0
	cmpwi 7,3,9987
	.loc 3 107 0
	li 3,5
	.loc 3 101 0
	bne+ 7,.L60
	b .L61
	.cfi_endproc
.LFE2579:
	.size	_ZL16qgx_GLFilterToGXi, .-_ZL16qgx_GLFilterToGXi
	.align 2
	.type	_ZL13qgx_ReadColorP9_gx_coloriiiiPh, @function
_ZL13qgx_ReadColorP9_gx_coloriiiiPh:
.LFB2582:
	.loc 3 160 0
	.cfi_startproc
.LVL101:
.LBB637:
	.loc 3 164 0
	cmpwi 7,7,6408
.LBE637:
	.loc 3 160 0
	mflr 0
	stwu 1,-8(1)
.LCFI18:
	.cfi_def_cfa_offset 8
	.cfi_register 65, 0
	stw 0,12(1)
.LBB638:
	.loc 3 164 0
	beq- 7,.L74
	.cfi_offset 65, 4
.LVL102:
	.loc 3 184 0
	lis 3,.LC5@ha
.LVL103:
	mr 4,7
.LVL104:
	la 3,.LC5@l(3)
	crxor 6,6,6
	bl _Z9Sys_ErrorPKcz
.LVL105:
.LBE638:
	.loc 3 186 0
	lwz 0,12(1)
	addi 1,1,8
	.cfi_remember_state
.LCFI19:
	.cfi_def_cfa_offset 0
	mtlr 0
	blr
.LVL106:
.L74:
.LCFI20:
	.cfi_restore_state
.LBB639:
	.loc 3 171 0
	mullw 5,5,6
.LVL107:
	add 4,5,4
.LVL108:
	slwi 4,4,2
	.loc 3 174 0
	lbzx 0,8,4
	.loc 3 171 0
	add 8,8,4
.LVL109:
	.loc 3 174 0
	stb 0,0(3)
	.loc 3 175 0
	lbz 0,1(8)
	stb 0,1(3)
	.loc 3 176 0
	lbz 0,2(8)
	stb 0,2(3)
	.loc 3 177 0
	lbz 0,3(8)
	stb 0,3(3)
.LBE639:
	.loc 3 186 0
	lwz 0,12(1)
	addi 1,1,8
.LCFI21:
	.cfi_def_cfa_offset 0
	mtlr 0
	blr
	.cfi_endproc
.LFE2582:
	.size	_ZL13qgx_ReadColorP9_gx_coloriiiiPh, .-_ZL13qgx_ReadColorP9_gx_coloriiiiPh
	.section	.text._ZN14idFixedWindingD2Ev,"axG",@progbits,_ZN14idFixedWindingD5Ev,comdat
	.align 2
	.weak	_ZN14idFixedWindingD2Ev
	.type	_ZN14idFixedWindingD2Ev, @function
_ZN14idFixedWindingD2Ev:
.LFB1536:
	.loc 1 380 0
	.cfi_startproc
.LVL110:
.LBB645:
	.loc 1 381 0
	li 0,0
.LBB646:
.LBB647:
.LBB648:
	.loc 1 183 0
	lis 9,_ZTV9idWinding+8@ha
.LBE648:
.LBE647:
.LBE646:
	.loc 1 381 0
	stw 0,8(3)
.LVL111:
.LBB651:
.LBB650:
.LBB649:
	.loc 1 183 0
	la 0,_ZTV9idWinding+8@l(9)
	stw 0,0(3)
.LBE649:
.LBE650:
.LBE651:
.LBE645:
	.loc 1 382 0
	blr
	.cfi_endproc
.LFE1536:
	.size	_ZN14idFixedWindingD2Ev, .-_ZN14idFixedWindingD2Ev
	.section	.text._ZN9idWindingD0Ev,"axG",@progbits,_ZN9idWindingD5Ev,comdat
	.align 2
	.weak	_ZN9idWindingD0Ev
	.type	_ZN9idWindingD0Ev, @function
_ZN9idWindingD0Ev:
.LFB1501:
	.loc 1 183 0
	.cfi_startproc
.LVL112:
	mflr 0
	stwu 1,-16(1)
.LCFI22:
	.cfi_def_cfa_offset 16
	.cfi_register 65, 0
.LBB655:
.LBB656:
.LBB657:
	lis 9,_ZTV9idWinding+8@ha
.LBE657:
.LBE656:
.LBE655:
	stw 31,12(1)
	mr 31,3
	.cfi_offset 31, -4
.LVL113:
	stw 0,20(1)
.LBB662:
.LBB660:
.LBB658:
	.loc 1 183 0
	la 0,_ZTV9idWinding+8@l(9)
	.cfi_offset 65, 4
	.loc 1 184 0
	lwz 3,8(3)
.LVL114:
	.loc 1 183 0
	stw 0,0(31)
	.loc 1 184 0
	cmpwi 7,3,0
	beq- 7,.L79
	bl _ZdaPv
.L79:
	.loc 1 185 0
	li 0,0
.LBE658:
.LBE660:
.LBE662:
	.loc 1 186 0
	mr 3,31
.LBB663:
.LBB661:
.LBB659:
	.loc 1 185 0
	stw 0,8(31)
.LBE659:
.LBE661:
.LBE663:
	.loc 1 186 0
	bl _ZdlPv
	lwz 0,20(1)
	lwz 31,12(1)
.LVL115:
	mtlr 0
	addi 1,1,16
.LCFI23:
	.cfi_def_cfa_offset 0
	.cfi_restore 31
	blr
	.cfi_endproc
.LFE1501:
	.size	_ZN9idWindingD0Ev, .-_ZN9idWindingD0Ev
	.section	.text._ZN14idFixedWindingD0Ev,"axG",@progbits,_ZN14idFixedWindingD5Ev,comdat
	.align 2
	.weak	_ZN14idFixedWindingD0Ev
	.type	_ZN14idFixedWindingD0Ev, @function
_ZN14idFixedWindingD0Ev:
.LFB1538:
	.loc 1 380 0
	.cfi_startproc
.LVL116:
	mflr 0
	stwu 1,-8(1)
.LCFI24:
	.cfi_def_cfa_offset 8
	.cfi_register 65, 0
.LBB670:
.LBB671:
.LBB672:
.LBB673:
.LBB674:
.LBB675:
	.loc 1 183 0
	lis 11,_ZTV9idWinding+8@ha
.LBE675:
.LBE674:
.LBE673:
.LBE672:
.LBE671:
.LBE670:
	.loc 1 380 0
	stw 0,12(1)
.LBB681:
.LBB680:
.LBB679:
	.loc 1 381 0
	li 0,0
	.cfi_offset 65, 4
	stw 0,8(3)
.LVL117:
.LBB678:
.LBB677:
.LBB676:
	.loc 1 183 0
	la 0,_ZTV9idWinding+8@l(11)
	stw 0,0(3)
.LBE676:
.LBE677:
.LBE678:
.LBE679:
.LBE680:
.LBE681:
	.loc 1 382 0
	bl _ZdlPv
.LVL118:
	lwz 0,12(1)
	addi 1,1,8
.LCFI25:
	.cfi_def_cfa_offset 0
	mtlr 0
	blr
	.cfi_endproc
.LFE1538:
	.size	_ZN14idFixedWindingD0Ev, .-_ZN14idFixedWindingD0Ev
	.section	".text"
	.align 2
	.globl _Z16qgx_InitTexturesv
	.type	_Z16qgx_InitTexturesv, @function
_Z16qgx_InitTexturesv:
.LFB2576:
	.loc 3 53 0
	.cfi_startproc
	mflr 0
	stwu 1,-24(1)
.LCFI26:
	.cfi_def_cfa_offset 24
	.cfi_register 65, 0
	stw 31,20(1)
	.loc 3 54 0
	lis 31,.LANCHOR0@ha
	.cfi_offset 31, -4
	.loc 3 53 0
	stw 0,28(1)
	.loc 3 54 0
	la 31,.LANCHOR0@l(31)
	.loc 3 53 0
	stw 29,12(1)
	stw 30,16(1)
	.loc 3 54 0
	lwz 30,96(31)
	.cfi_offset 30, -8
	.cfi_offset 29, -12
	.cfi_offset 65, 4
	cmpwi 7,30,0
	beq- 7,.L88
	.loc 3 67 0
	lwz 0,28(1)
	lwz 29,12(1)
	mtlr 0
	lwz 30,16(1)
	lwz 31,20(1)
	addi 1,1,24
	.cfi_remember_state
.LCFI27:
	.cfi_def_cfa_offset 0
	.cfi_restore 31
	.cfi_restore 30
	.cfi_restore 29
	blr
.L88:
.LCFI28:
	.cfi_restore_state
	.loc 3 56 0
	lis 3,.LC6@ha
	la 3,.LC6@l(3)
	crxor 6,6,6
	bl _Z10Sys_PrintfPKcz
	.loc 3 57 0
	li 4,26624
	li 3,32
	bl memalign
	.loc 3 58 0
	li 4,0
	.loc 3 57 0
	stw 3,96(31)
	.loc 3 58 0
	li 5,26624
	.loc 3 57 0
	mr 29,3
	.loc 3 58 0
	bl memset
	.loc 3 59 0
	lis 3,.LC7@ha
	mr 4,29
	la 3,.LC7@l(3)
	li 5,26624
	li 6,52
	crxor 6,6,6
	bl _Z10Sys_PrintfPKcz
	.loc 3 60 0
	li 0,1
	stw 0,100(31)
	.loc 3 61 0
	stw 30,104(31)
	.loc 3 62 0
	stw 30,108(31)
	.loc 3 67 0
	lwz 0,28(1)
	lwz 29,12(1)
	mtlr 0
	lwz 30,16(1)
	lwz 31,20(1)
	addi 1,1,24
	.cfi_restore 29
	.cfi_restore 30
	.cfi_restore 31
.LCFI29:
	.cfi_def_cfa_offset 0
	blr
	.cfi_endproc
.LFE2576:
	.size	_Z16qgx_InitTexturesv, .-_Z16qgx_InitTexturesv
	.align 2
	.globl _Z22stb_compress_dxt_blockPhPKhii
	.type	_Z22stb_compress_dxt_blockPhPKhii, @function
_Z22stb_compress_dxt_blockPhPKhii:
.LFB2601:
	.loc 2 616 0
	.cfi_startproc
.LVL119:
	stwu 1,-400(1)
.LCFI30:
	.cfi_def_cfa_offset 400
	mflr 0
	mfcr 12
	stw 27,380(1)
.LBB760:
	.loc 2 618 0
	lis 27,.LANCHOR1@ha
	.cfi_offset 27, -20
	.cfi_register 70, 12
	.cfi_register 65, 0
.LBE760:
	.loc 2 616 0
	stw 0,404(1)
.LBB1011:
	.loc 2 618 0
	lwz 0,.LANCHOR1@l(27)
	.cfi_offset 65, 4
.LBE1011:
	.loc 2 616 0
	stw 26,376(1)
	mr 26,5
	.cfi_offset 26, -24
.LBB1012:
	.loc 2 618 0
	cmpwi 7,0,0
.LBE1012:
	.loc 2 616 0
	stw 30,392(1)
	stw 31,396(1)
	mr 30,3
	.cfi_offset 31, -4
	.cfi_offset 30, -8
	stw 14,328(1)
	mr 31,4
	stw 15,332(1)
	stw 16,336(1)
	stw 17,340(1)
	stw 18,344(1)
	stw 19,348(1)
	stw 20,352(1)
	stw 21,356(1)
	stw 22,360(1)
	stw 23,364(1)
	stw 24,368(1)
	stw 25,372(1)
	stw 28,384(1)
	stw 29,388(1)
	stw 12,324(1)
.LBB1013:
	.loc 2 618 0
	bne- 7,.L187
	.cfi_offset 70, -76
	.cfi_offset 29, -12
	.cfi_offset 28, -16
	.cfi_offset 25, -28
	.cfi_offset 24, -32
	.cfi_offset 23, -36
	.cfi_offset 22, -40
	.cfi_offset 21, -44
	.cfi_offset 20, -48
	.cfi_offset 19, -52
	.cfi_offset 18, -56
	.cfi_offset 17, -60
	.cfi_offset 16, -64
	.cfi_offset 15, -68
	.cfi_offset 14, -72
.LVL120:
.L90:
	.loc 2 623 0
	cmpwi 7,26,0
	bne- 7,.L188
.LVL121:
.L96:
.LBB761:
.LBB762:
	.loc 2 474 0
	andi. 8,6,2
	.loc 2 477 0
	li 10,15
	.loc 2 474 0
	lwz 11,0(31)
	.loc 2 477 0
	mtctr 10
	.loc 2 474 0
	mfcr 20
	rlwinm 20,20,3,1
	mr 9,31
	subfic 20,20,2
.LVL122:
.L107:
	.loc 2 478 0
	lwzu 0,4(9)
	cmpw 7,0,11
	bne- 7,.L106
	.loc 2 477 0
	bdnz .L107
.LBB763:
	.loc 2 482 0
	lbz 10,0(31)
.LVL123:
	.loc 2 484 0
	lis 9,.LANCHOR0@ha
	.loc 2 482 0
	lbz 11,1(31)
.LVL124:
	.loc 2 484 0
	la 0,.LANCHOR0@l(9)
	slwi 10,10,1
.LVL125:
	.loc 2 482 0
	lbz 9,2(31)
.LVL126:
	.loc 2 484 0
	slwi 11,11,1
.LVL127:
	add 10,0,10
	add 11,0,11
	lbz 15,656(10)
	lbz 8,1168(11)
	slwi 9,9,1
.LVL128:
	.loc 2 485 0
	lbz 17,657(10)
	.loc 2 484 0
	add 9,0,9
	.loc 2 485 0
	lbz 10,1169(11)
	.loc 2 484 0
	slwi 15,15,11
	slwi 8,8,5
	lbz 11,656(9)
	.loc 2 485 0
	slwi 17,17,11
	slwi 10,10,5
	lbz 0,657(9)
	.loc 2 484 0
	or 15,15,8
	.loc 2 485 0
	or 17,17,10
	.loc 2 484 0
	or 15,15,11
	.loc 2 485 0
	or 17,17,0
	.loc 2 483 0
	lis 28,0xaaaa
	.loc 2 484 0
	rlwinm 15,15,0,0xffff
.LVL129:
	.loc 2 485 0
	rlwinm 17,17,0,0xffff
.LVL130:
	.loc 2 483 0
	ori 28,28,43690
.LVL131:
.L146:
.LBE763:
.LBB764:
	.loc 2 519 0
	cmplw 7,17,15
	ble- 7,.L147
.LVL132:
.LBB765:
	.loc 2 524 0
	mr 0,15
	xoris 28,28,0x5555
.LVL133:
	mr 15,17
.LVL134:
	xori 28,28,21845
.LVL135:
	mr 17,0
.LVL136:
.L147:
	.loc 2 528 0
	li 8,16
	.loc 2 527 0
	li 0,0
	.loc 2 528 0
	mtctr 8
	li 9,0
.LVL137:
.L149:
.LBE765:
.LBE764:
.LBB766:
	.loc 2 529 0
	srw 11,28,9
	.loc 2 615 0
	subfic 10,9,30
	.loc 2 529 0
	rlwinm 11,11,0,30,31
	.loc 2 528 0
	addi 9,9,2
	.loc 2 529 0
	slw 11,11,10
	or 0,0,11
.LVL138:
	.loc 2 528 0
	bdnz .L149
.LVL139:
.LBE766:
	.loc 2 532 0
	srawi 7,15,8
	.loc 2 534 0
	srawi 8,17,8
	.loc 2 536 0
	srwi 10,0,24
	.loc 2 537 0
	srwi 11,0,16
	.loc 2 538 0
	srwi 9,0,8
.LVL140:
	.loc 2 532 0
	stb 7,0(30)
	.loc 2 533 0
	stb 15,1(30)
	.loc 2 534 0
	stb 8,2(30)
	.loc 2 535 0
	stb 17,3(30)
	.loc 2 536 0
	stb 10,4(30)
	.loc 2 537 0
	stb 11,5(30)
	.loc 2 538 0
	stb 9,6(30)
	.loc 2 539 0
	stb 0,7(30)
.LBE762:
.LBE761:
.LBE1013:
	.loc 2 629 0
	lwz 0,404(1)
.LVL141:
	lwz 12,324(1)
	mtlr 0
	lwz 14,328(1)
	lwz 15,332(1)
.LVL142:
	mtcrf 8,12
	lwz 16,336(1)
	lwz 17,340(1)
.LVL143:
	lwz 18,344(1)
	lwz 19,348(1)
	lwz 20,352(1)
.LVL144:
	lwz 21,356(1)
	lwz 22,360(1)
	lwz 23,364(1)
	lwz 24,368(1)
	lwz 25,372(1)
	lwz 26,376(1)
	lwz 27,380(1)
	lwz 28,384(1)
	lwz 29,388(1)
	lwz 30,392(1)
.LVL145:
	lwz 31,396(1)
.LVL146:
	addi 1,1,400
	.cfi_remember_state
.LCFI31:
	.cfi_def_cfa_offset 0
	.cfi_restore 70
	.cfi_restore 31
	.cfi_restore 30
	.cfi_restore 29
	.cfi_restore 28
	.cfi_restore 27
	.cfi_restore 26
	.cfi_restore 25
	.cfi_restore 24
	.cfi_restore 23
	.cfi_restore 22
	.cfi_restore 21
	.cfi_restore 20
	.cfi_restore 19
	.cfi_restore 18
	.cfi_restore 17
	.cfi_restore 16
	.cfi_restore 15
	.cfi_restore 14
	blr
.LVL147:
.L106:
.LCFI32:
	.cfi_restore_state
.LBB1014:
.LBB971:
.LBB968:
.LBB767:
	.loc 2 488 0
	rlwinm 11,6,0,31,31
	mr 25,31
	cmpwi 4,11,0
	addi 24,1,84
	stw 11,308(1)
	bne- 4,.L189
.LVL148:
.L110:
.LBB768:
.LBB769:
.LBB770:
	.loc 2 152 0
	mr 11,25
.LBE770:
.LBE769:
.LBE768:
	.loc 2 488 0
	mr 6,25
	li 5,0
	addi 27,1,32
	addi 3,1,20
	addi 4,1,8
.LVL149:
.L116:
.LBB775:
.LBB776:
.LBB777:
.LBB778:
	.loc 2 289 0
	lbz 7,0(6)
.LVL150:
	.loc 2 290 0
	li 0,15
	li 9,4
	mtctr 0
	.loc 2 289 0
	mr 8,7
	mr 10,7
	b .L115
.LVL151:
.L191:
	.loc 2 294 0
	bge- 6,.L114
	mr 7,0
.LVL152:
.L114:
	.loc 2 290 0
	addi 9,9,4
.LVL153:
	bdz .L190
.LVL154:
.L115:
	.loc 2 292 0
	lbzx 0,6,9
	.loc 2 293 0
	cmpw 7,8,0
	.loc 2 294 0
	cmpw 6,7,0
	.loc 2 292 0
	add 10,10,0
.LVL155:
	.loc 2 293 0
	ble- 7,.L191
	mr 8,0
.LVL156:
	.loc 2 290 0
	addi 9,9,4
.LVL157:
	bdnz .L115
.LVL158:
.L190:
.LBE778:
	.loc 2 284 0
	cmpwi 7,5,8
.LBB779:
	.loc 2 297 0
	addi 10,10,8
.LVL159:
	srawi 10,10,4
.LVL160:
	.loc 2 298 0
	stwx 8,3,5
	.loc 2 297 0
	stwx 10,27,5
	.loc 2 299 0
	addi 6,6,1
.LVL161:
	stwx 7,4,5
.LBE779:
	.loc 2 284 0
	addi 5,5,4
	bne+ 7,.L116
.LVL162:
.LBB780:
	.loc 2 615 0
	li 8,16
.LVL163:
.LBE780:
	.loc 2 284 0
	lwz 19,32(1)
	lwz 21,36(1)
.LBB781:
	.loc 2 615 0
	mtctr 8
.LBE781:
	.loc 2 284 0
	lwz 22,40(1)
	.loc 2 615 0
	addi 9,25,1
.LBB782:
	li 6,0
.LVL164:
	li 5,0
.LVL165:
	li 4,0
	li 3,0
	li 27,0
	li 7,0
.LVL166:
.L117:
.LBE782:
.LBE777:
.LBB783:
.LBB784:
	.loc 2 308 0
	lbz 8,-1(9)
	.loc 2 309 0
	lbz 10,0(9)
	.loc 2 308 0
	subf 8,19,8
.LVL167:
	.loc 2 310 0
	lbz 0,1(9)
	.loc 2 309 0
	subf 10,21,10
.LVL168:
	.loc 2 312 0
	mullw 23,8,8
	.loc 2 310 0
	subf 0,22,0
.LVL169:
	.loc 2 317 0
	addi 9,9,4
	.loc 2 313 0
	mullw 26,8,10
	.loc 2 312 0
	add 7,7,23
	.loc 2 314 0
	mullw 8,8,0
.LVL170:
	.loc 2 313 0
	add 27,27,26
	.loc 2 315 0
	mullw 26,10,10
	.loc 2 314 0
	add 3,3,8
	.loc 2 316 0
	mullw 10,10,0
.LVL171:
	.loc 2 315 0
	add 4,4,26
	.loc 2 317 0
	mullw 0,0,0
.LVL172:
	.loc 2 316 0
	add 5,5,10
	.loc 2 317 0
	add 6,6,0
.LBE784:
	.loc 2 306 0
	bdnz .L117
	lis 26,.LC9@ha
.LBE783:
	.loc 2 322 0
	lis 9,.LC10@ha
	la 26,.LC9@l(26)
	li 10,6
	lfs 13,.LC10@l(9)
	lis 8,0x4330
.LBB785:
	.loc 2 306 0
	stw 7,60(1)
	li 9,0
	stw 27,64(1)
.LBE785:
	.loc 2 322 0
	mtctr 10
.LBB786:
	.loc 2 306 0
	stw 3,68(1)
	stw 4,72(1)
	stw 5,76(1)
	stw 6,80(1)
.LBE786:
	.loc 2 322 0
	lfs 11,0(26)
	b .L119
.L192:
	.loc 2 321 0
	addi 10,1,60
	lwzx 7,9,10
.L119:
	.loc 2 322 0
	xoris 0,7,0x8000
	stw 8,184(1)
	stw 0,188(1)
	lis 0,0x4330
	lfd 0,184(1)
	fsub 0,0,11
	frsp 0,0
	fdivs 0,0,13
	stfsx 0,24,9
	addi 9,9,4
	.loc 2 321 0
	bdnz .L192
	.loc 2 324 0
	lwz 9,20(1)
	lwz 8,8(1)
	.loc 2 325 0
	lwz 10,12(1)
	.loc 2 324 0
	subf 8,9,8
	.loc 2 325 0
	lwz 9,24(1)
	.loc 2 326 0
	lwz 7,16(1)
	.loc 2 324 0
	xoris 8,8,0x8000
	.loc 2 325 0
	subf 10,9,10
	.loc 2 326 0
	lwz 9,28(1)
	.loc 2 325 0
	xoris 10,10,0x8000
	.loc 2 324 0
	stw 0,192(1)
	.loc 2 326 0
	subf 9,9,7
	.loc 2 325 0
	stw 0,200(1)
	.loc 2 326 0
	xoris 9,9,0x8000
	stw 0,208(1)
	.loc 2 324 0
	stw 8,196(1)
	.loc 2 326 0
	li 0,4
	.loc 2 325 0
	stw 10,204(1)
	.loc 2 326 0
	mtctr 0
	stw 9,212(1)
	.loc 2 324 0
	lfd 12,192(1)
	.loc 2 325 0
	lfd 13,200(1)
	.loc 2 326 0
	lfd 0,208(1)
	.loc 2 324 0
	fsub 12,12,11
	.loc 2 325 0
	fsub 13,13,11
	.loc 2 326 0
	lfs 3,84(1)
	fsub 0,0,11
	lfs 9,88(1)
	.loc 2 324 0
	frsp 12,12
.LVL173:
	.loc 2 326 0
	lfs 10,92(1)
	.loc 2 325 0
	frsp 13,13
.LVL174:
	.loc 2 326 0
	lfs 4,96(1)
	frsp 0,0
.LVL175:
	lfs 11,100(1)
	lfs 5,104(1)
.LVL176:
.L120:
.LBB787:
.LBB788:
	.loc 2 330 0
	fmuls 7,13,9
	.loc 2 332 0
	fmuls 8,13,11
	.loc 2 331 0
	fmuls 6,13,4
.LBE788:
.LBE787:
	.loc 2 330 0
	fmadds 7,12,3,7
	.loc 2 332 0
	fmadds 8,12,10,8
	.loc 2 331 0
	fmadds 13,12,9,6
.LVL177:
	.loc 2 330 0
	fmadds 12,0,10,7
.LVL178:
	.loc 2 331 0
	fmadds 13,0,11,13
.LVL179:
	.loc 2 332 0
	fmadds 0,0,5,8
.LVL180:
.LBB789:
	.loc 2 328 0
	bdnz .L120
.LBE789:
	.loc 2 339 0
	fabs 11,12
	.loc 2 340 0
	fabs 10,13
	.loc 2 339 0
	fmr 9,11
.LVL181:
	.loc 2 340 0
	fcmpu 7,9,10
	blt- 7,.L121
	.loc 2 339 0
	fmr 10,11
.L121:
.LVL182:
	.loc 2 341 0
	fabs 11,0
	fcmpu 7,11,10
	bgt- 7,.L122
	fmr 11,10
.L122:
.LVL183:
	.loc 2 343 0
	lis 9,.LC12@ha
	lfs 10,.LC12@l(9)
	fcmpu 7,11,10
	blt- 7,.L162
	.loc 2 348 0
	lis 9,.LC14@ha
	.loc 2 349 0
	addi 7,1,296
	.loc 2 348 0
	lfs 10,.LC14@l(9)
	.loc 2 350 0
	addi 8,1,300
	.loc 2 351 0
	addi 9,1,304
	.loc 2 348 0
	fdiv 11,10,11
.LVL184:
	.loc 2 349 0
	fmul 12,11,12
.LVL185:
	.loc 2 350 0
	fmul 13,11,13
.LVL186:
	.loc 2 351 0
	fmul 0,11,0
.LVL187:
	.loc 2 349 0
	fctiwz 12,12
	.loc 2 350 0
	fctiwz 13,13
	.loc 2 351 0
	fctiwz 0,0
	.loc 2 349 0
	stfiwx 12,0,7
	.loc 2 350 0
	stfiwx 13,0,8
	.loc 2 351 0
	stfiwx 0,0,9
	.loc 2 349 0
	lwz 6,296(1)
.LVL188:
	.loc 2 350 0
	lwz 5,300(1)
.LVL189:
	.loc 2 351 0
	lwz 4,304(1)
.LVL190:
.L123:
	.loc 2 272 0
	lis 7,0x8000
	lis 8,0x7fff
	.loc 2 615 0
	addi 25,25,64
.LVL191:
	.loc 2 272 0
	ori 7,7,1
	ori 8,8,65535
.LVL192:
.L126:
.LBB790:
.LBB791:
	.loc 2 357 0
	lbz 0,0(11)
	lbz 10,1(11)
	lbz 9,2(11)
	mullw 0,0,6
	mullw 10,10,5
	mullw 9,9,4
	add 0,0,10
	add 0,0,9
.LVL193:
	.loc 2 359 0
	cmpw 6,8,0
	.loc 2 364 0
	cmpw 7,7,0
	.loc 2 359 0
	ble- 6,.L124
	mr 28,11
	mr 8,0
.L124:
.LVL194:
	.loc 2 364 0
	bge- 7,.L125
	mr 29,11
	mr 7,0
.L125:
.LVL195:
	addi 11,11,4
.LBE791:
	.loc 2 355 0
	cmpw 7,11,25
	bne+ 7,.L126
.LVL196:
.LBE790:
	.loc 2 371 0
	lbz 10,0(28)
	lbz 11,1(28)
	.loc 2 370 0
	lbz 7,0(29)
.LVL197:
.LBB792:
.LBB793:
.LBB794:
.LBB795:
	.loc 2 63 0
	mulli 10,10,31
.LBE795:
.LBE794:
.LBE793:
.LBE792:
	.loc 2 370 0
	lbz 8,1(29)
.LVL198:
.LBB831:
.LBB820:
.LBB799:
.LBB800:
	.loc 2 63 0
	mulli 11,11,63
.LBE800:
.LBE799:
.LBE820:
.LBE831:
	.loc 2 371 0
	lbz 6,2(28)
.LVL199:
.LBB832:
.LBB833:
.LBB834:
.LBB835:
	.loc 2 63 0
	mulli 7,7,31
.LBE835:
.LBE834:
.LBE833:
.LBE832:
	.loc 2 370 0
	lbz 9,2(29)
.LBB870:
.LBB860:
.LBB839:
.LBB840:
	.loc 2 63 0
	mulli 8,8,63
.LBE840:
.LBE839:
.LBE860:
.LBE870:
.LBB871:
.LBB821:
.LBB804:
.LBB805:
	mulli 6,6,31
.LBE805:
.LBE804:
.LBE821:
.LBE871:
.LBB872:
.LBB861:
.LBB844:
.LBB836:
	addi 7,7,128
.LVL200:
.LBE836:
.LBE844:
.LBB845:
.LBB846:
	mulli 9,9,31
.LBE846:
.LBE845:
.LBB851:
.LBB841:
	addi 8,8,128
.LVL201:
.LBE841:
.LBE851:
.LBE861:
.LBE872:
.LBB873:
.LBB822:
.LBB810:
.LBB796:
	addi 10,10,128
.LBE796:
.LBE810:
.LBB811:
.LBB801:
	addi 11,11,128
.LBE801:
.LBE811:
.LBB812:
.LBB806:
	addi 0,6,128
.LVL202:
.LBE806:
.LBE812:
.LBE822:
.LBE873:
.LBB874:
.LBB862:
.LBB852:
.LBB847:
	addi 9,9,128
.LVL203:
.LBE847:
.LBE852:
.LBB853:
.LBB842:
	.loc 2 64 0
	srawi 5,8,8
.LVL204:
.LBE842:
.LBE853:
.LBE862:
.LBE874:
.LBB875:
.LBB823:
.LBB813:
.LBB802:
	srawi 6,11,8
.LBE802:
.LBE813:
.LBE823:
.LBE875:
.LBB876:
.LBB863:
.LBB854:
.LBB837:
	srawi 3,7,8
.LBE837:
.LBE854:
.LBE863:
.LBE876:
.LBB877:
.LBB824:
.LBB814:
.LBB797:
	srawi 4,10,8
.LVL205:
.LBE797:
.LBE814:
.LBE824:
.LBE877:
.LBB878:
.LBB864:
.LBB855:
.LBB843:
	add 8,8,5
.LVL206:
.LBE843:
.LBE855:
.LBE864:
.LBE878:
.LBB879:
.LBB825:
.LBB815:
.LBB803:
	add 11,11,6
.LBE803:
.LBE815:
.LBE825:
.LBE879:
.LBB880:
.LBB865:
.LBB856:
.LBB838:
	add 7,7,3
.LVL207:
.LBE838:
.LBE856:
.LBB857:
.LBB848:
	srawi 5,9,8
.LBE848:
.LBE857:
.LBE865:
.LBE880:
.LBB881:
.LBB826:
.LBB816:
.LBB798:
	add 10,10,4
.LBE798:
.LBE816:
.LBB817:
.LBB807:
	srawi 6,0,8
.LBE807:
.LBE817:
.LBE826:
.LBE881:
.LBB882:
.LBB866:
	.loc 2 81 0
	rlwinm 21,7,3,14,20
	rlwinm 8,8,29,19,26
.LBB858:
.LBB849:
	.loc 2 64 0
	add 9,9,5
.LVL208:
.LBE849:
.LBE858:
.LBE866:
.LBE882:
.LBB883:
.LBB827:
	.loc 2 81 0
	rlwinm 23,10,3,14,20
	rlwinm 11,11,29,19,26
.LBB818:
.LBB808:
	.loc 2 64 0
	add 0,0,6
.LBE808:
.LBE818:
.LBE827:
.LBE883:
.LBB884:
.LBB867:
	.loc 2 81 0
	add 21,21,8
.LBB859:
.LBB850:
	.loc 2 64 0
	srawi 9,9,8
.LBE850:
.LBE859:
.LBE867:
.LBE884:
.LBB885:
.LBB828:
	.loc 2 81 0
	add 23,23,11
.LBB819:
.LBB809:
	.loc 2 64 0
	srawi 0,0,8
.LBE809:
.LBE819:
.LBE828:
.LBE885:
.LBB886:
.LBB868:
	.loc 2 81 0
	add 21,21,9
.LBE868:
.LBE886:
.LBB887:
.LBB829:
	add 23,23,0
.LBE829:
.LBE887:
.LBB888:
.LBB869:
	rlwinm 21,21,0,0xffff
.LVL209:
.LBE869:
.LBE888:
.LBB889:
.LBB830:
	rlwinm 23,23,0,0xffff
.LVL210:
.LBE830:
.LBE889:
.LBE776:
.LBE775:
	.loc 2 493 0
	cmpw 7,21,23
	.loc 2 497 0
	li 28,0
.LVL211:
	.loc 2 493 0
	beq- 7,.L127
	.loc 2 494 0
	addi 3,1,44
	mr 4,21
	mr 5,23
	bl _ZL15stb__EvalColorsPhtt
.LVL212:
	.loc 2 495 0
	lwz 5,308(1)
	mr 3,31
	addi 4,1,44
	bl _ZL21stb__MatchColorsBlockPhS_i
	mr 28,3
.LVL213:
.L127:
	lis 29,.LANCHOR2@ha
.LBB891:
.LBB892:
.LBB893:
.LBB894:
.LBB895:
.LBB896:
	.loc 2 415 0
	lis 22,.LANCHOR0@ha
.LBE896:
.LBE895:
.LBE894:
.LBE893:
.LBE892:
	.loc 2 500 0
	li 24,0
	la 29,.LANCHOR2@l(29)
.LBB961:
.LBB954:
.LBB947:
.LBB939:
.LBB897:
	.loc 2 445 0
	lis 27,0x4330
	lis 18,.LC15@ha
	.loc 2 446 0
	lis 19,.LC16@ha
.LBB898:
.LBB899:
	.loc 2 449 0
	lis 25,.LC18@ha
.LVL214:
.LBE899:
.LBE898:
.LBE897:
.LBB935:
	.loc 2 415 0
	la 22,.LANCHOR0@l(22)
.LBE935:
.LBE939:
.LBE947:
.LBE954:
	.loc 2 503 0
	beq- 4,.L164
.LVL215:
.L195:
.LBB955:
.LBB948:
.LBB940:
	.loc 2 402 0
	slwi 0,28,2
.LBE940:
.LBE948:
.LBE955:
	.loc 2 503 0
	addi 9,1,116
.LVL216:
.LBB956:
.LBB949:
.LBB941:
	.loc 2 402 0
	xor 0,0,28
	.loc 2 615 0
	addi 9,9,1
.LVL217:
	.loc 2 402 0
	cmplwi 7,0,3
	bgt- 7,.L129
.LVL218:
.L196:
.LBE941:
.LBE949:
.LBE956:
	.loc 2 615 0
	li 7,16
	li 0,8
	mtctr 7
	li 11,8
	li 10,8
.L130:
.LBB957:
.LBB950:
.LBB942:
.LBB936:
	.loc 2 408 0
	lbz 6,-1(9)
	.loc 2 409 0
	lbz 7,0(9)
	.loc 2 410 0
	lbz 8,1(9)
	.loc 2 408 0
	add 10,10,6
.LVL219:
	.loc 2 409 0
	add 11,11,7
.LVL220:
	.loc 2 410 0
	addi 9,9,4
	add 0,0,8
.LVL221:
	.loc 2 407 0
	bdnz .L130
	.loc 2 413 0
	srawi 10,10,4
.LVL222:
	srawi 11,11,4
.LVL223:
	.loc 2 415 0
	slwi 10,10,1
.LVL224:
	slwi 11,11,1
.LVL225:
	add 10,22,10
	add 11,22,11
	.loc 2 413 0
	srawi 9,0,4
.LVL226:
	.loc 2 415 0
	lbz 15,656(10)
	.loc 2 416 0
	lbz 17,657(10)
	.loc 2 415 0
	slwi 9,9,1
.LVL227:
	.loc 2 416 0
	lbz 10,1169(11)
	.loc 2 415 0
	add 9,22,9
	.loc 2 416 0
	slwi 17,17,11
	lbz 0,657(9)
.LVL228:
	slwi 10,10,5
	.loc 2 415 0
	lbz 8,1168(11)
	.loc 2 416 0
	or 17,17,10
	.loc 2 415 0
	slwi 15,15,11
	.loc 2 416 0
	or 17,17,0
	.loc 2 415 0
	slwi 8,8,5
	.loc 2 416 0
	rlwinm 17,17,0,0xffff
	.loc 2 415 0
	lbz 11,656(9)
.LBE936:
.LBE942:
	.loc 2 460 0
	cmpw 7,17,23
.LBB943:
.LBB937:
	.loc 2 415 0
	or 15,15,8
	or 15,15,11
	rlwinm 15,15,0,0xffff
.LVL229:
.LBE937:
.LBE943:
	.loc 2 460 0
	beq- 7,.L193
.LVL230:
.L145:
.LBE950:
.LBE957:
	.loc 2 504 0
	cmpw 7,17,15
	beq- 7,.L165
.L197:
	.loc 2 505 0
	addi 3,1,44
	mr 4,15
	mr 5,17
	bl _ZL15stb__EvalColorsPhtt
	.loc 2 506 0
	lwz 5,308(1)
	mr 3,31
	addi 4,1,44
	bl _ZL21stb__MatchColorsBlockPhS_i
.LVL231:
	.loc 2 513 0
	cmpw 7,28,3
	beq- 7,.L146
.LBE961:
	.loc 2 500 0
	addi 24,24,1
.LVL232:
	cmpw 7,24,20
	bge- 7,.L194
	mr 21,15
	mr 23,17
	mr 28,3
.LVL233:
.LBB962:
	.loc 2 503 0
	bne- 4,.L195
.LVL234:
.L164:
.LBB958:
.LBB951:
.LBB944:
	.loc 2 402 0
	slwi 0,28,2
.LBE944:
.LBE951:
.LBE958:
	.loc 2 503 0
	mr 9,31
.LVL235:
.LBB959:
.LBB952:
.LBB945:
	.loc 2 402 0
	xor 0,0,28
	.loc 2 615 0
	addi 9,9,1
	.loc 2 402 0
	cmplwi 7,0,3
	ble- 7,.L196
.LVL236:
.L129:
	li 8,16
.LBE945:
.LBE952:
.LBE959:
	.loc 2 615 0
	mr 11,28
	mtctr 8
	li 16,0
	li 15,0
	li 14,0
	li 5,0
	li 3,0
	li 4,0
	li 17,0
.LVL237:
.L132:
.LBB960:
.LBB953:
.LBB946:
.LBB938:
.LBB903:
.LBB904:
	.loc 2 422 0
	rlwinm 6,11,2,28,29
	.loc 2 423 0
	lbz 7,-1(9)
	.loc 2 422 0
	lwzx 0,29,6
.LVL238:
	add 6,29,6
.LVL239:
	.loc 2 424 0
	lbz 8,0(9)
.LVL240:
	.loc 2 431 0
	add 14,14,7
	.loc 2 425 0
	lbz 10,1(9)
.LVL241:
	.loc 2 428 0
	mullw 12,0,7
	.loc 2 427 0
	lwz 6,16(6)
.LVL242:
	.loc 2 432 0
	add 15,15,8
	.loc 2 433 0
	add 16,16,10
	.loc 2 427 0
	add 17,17,6
.LVL243:
	.loc 2 429 0
	mullw 7,0,8
.LVL244:
	.loc 2 428 0
	add 4,4,12
.LVL245:
.LBE904:
	.loc 2 420 0
	srwi 11,11,2
.LVL246:
	addi 9,9,4
.LBB905:
	.loc 2 430 0
	mullw 0,0,10
.LVL247:
	.loc 2 429 0
	add 3,3,7
.LVL248:
	.loc 2 430 0
	add 5,5,0
.LVL249:
.LBE905:
	.loc 2 420 0
	bdnz .L132
.LBE903:
	.loc 2 442 0
	rlwinm 9,17,24,24,31
	.loc 2 443 0
	rlwinm 0,17,0,24,31
	.loc 2 441 0
	srawi 17,17,16
.LVL250:
	.loc 2 445 0
	mullw 11,0,0
.LVL251:
	stw 27,216(1)
.LBB906:
.LBB900:
	.loc 2 376 0
	addi 7,1,292
.LBE900:
.LBE906:
	.loc 2 445 0
	lfs 12,0(26)
	lfs 9,.LC15@l(18)
	mullw 10,17,9
.LVL252:
	.loc 2 449 0
	stw 27,224(1)
.LBB907:
.LBB901:
	lfs 11,.LC18@l(25)
.LBE901:
.LBE907:
	.loc 2 446 0
	lfs 13,.LC16@l(19)
	.loc 2 445 0
	subf 11,11,10
	.loc 2 436 0
	mulli 14,14,3
.LVL253:
	.loc 2 445 0
	xoris 11,11,0x8000
	.loc 2 449 0
	mullw 10,9,4
	.loc 2 445 0
	stw 11,220(1)
	.loc 2 436 0
	subf 14,4,14
.LVL254:
	.loc 2 446 0
	lis 11,.LC17@ha
	.loc 2 445 0
	lfd 0,216(1)
	.loc 2 446 0
	lfs 10,.LC17@l(11)
	.loc 2 449 0
	mullw 11,14,0
	.loc 2 445 0
	fsub 0,0,12
	frsp 0,0
	.loc 2 449 0
	subf 11,11,10
	xoris 11,11,0x8000
	.loc 2 437 0
	mulli 8,15,3
.LVL255:
	.loc 2 449 0
	stw 11,228(1)
	.loc 2 438 0
	mulli 16,16,3
.LVL256:
	.loc 2 445 0
	fdivs 0,9,0
	.loc 2 437 0
	subf 8,3,8
.LVL257:
	.loc 2 449 0
	lfd 9,224(1)
	.loc 2 438 0
	subf 16,5,16
.LVL258:
	.loc 2 449 0
	fsub 12,9,12
	.loc 2 446 0
	fmuls 13,0,13
	.loc 2 449 0
	frsp 12,12
	.loc 2 446 0
	fdivs 13,13,10
.LVL259:
.LBB908:
.LBB902:
	.loc 2 449 0
	fmadds 12,0,12,11
.LVL260:
	.loc 2 376 0
	fctiwz 12,12
.LVL261:
	stfiwx 12,0,7
	lwz 10,292(1)
	cmpwi 7,10,31
	ble- 7,.L133
	li 10,31
.L133:
.LVL262:
.LBE902:
.LBE908:
	.loc 2 450 0
	mullw 7,9,3
	stw 27,232(1)
	lfs 12,0(26)
.LBB909:
.LBB910:
	lfs 11,.LC18@l(25)
.LBE910:
.LBE909:
	mullw 11,8,0
	subf 11,11,7
	xoris 11,11,0x8000
	stw 11,236(1)
.LBB913:
.LBB911:
	.loc 2 376 0
	addi 11,1,288
.LBE911:
.LBE913:
	.loc 2 450 0
	lfd 10,232(1)
	fsub 12,10,12
	frsp 12,12
.LBB914:
.LBB912:
	fmadds 12,13,12,11
.LVL263:
	.loc 2 376 0
	fctiwz 12,12
.LVL264:
	stfiwx 12,0,11
	lwz 11,288(1)
	cmpwi 7,11,63
	ble- 7,.L134
	li 11,63
.L134:
.LVL265:
.LBE912:
.LBE914:
	.loc 2 451 0
	mullw 7,16,0
	stw 27,240(1)
	lfs 12,0(26)
.LBB915:
.LBB916:
	lfs 11,.LC18@l(25)
.LBE916:
.LBE915:
	mullw 9,9,5
.LVL266:
	subf 9,7,9
.LBB919:
.LBB917:
	.loc 2 376 0
	addi 7,1,284
.LBE917:
.LBE919:
	.loc 2 451 0
	xoris 9,9,0x8000
	stw 9,244(1)
	lfd 10,240(1)
	fsub 12,10,12
	frsp 12,12
.LBB920:
.LBB918:
	fmadds 12,0,12,11
.LVL267:
	.loc 2 376 0
	fctiwz 12,12
.LVL268:
	stfiwx 12,0,7
	lwz 9,284(1)
	cmpwi 7,9,31
	ble- 7,.L135
	li 9,31
.L135:
.LBE918:
.LBE920:
	.loc 2 453 0
	mullw 7,14,17
	stw 27,248(1)
	lfs 12,0(26)
	.loc 2 449 0
	nor 15,10,10
.LBB921:
.LBB922:
	.loc 2 453 0
	lfs 11,.LC18@l(25)
.LBE922:
.LBE921:
	.loc 2 451 0
	nor 6,9,9
	.loc 2 449 0
	srawi 15,15,31
	.loc 2 453 0
	mullw 4,0,4
.LVL269:
	.loc 2 449 0
	and 15,10,15
	.loc 2 451 0
	srawi 6,6,31
	and 9,9,6
	.loc 2 449 0
	slwi 15,15,11
	.loc 2 453 0
	subf 7,4,7
	.loc 2 450 0
	or 15,15,9
	.loc 2 453 0
	xoris 7,7,0x8000
.LBB925:
.LBB923:
	.loc 2 376 0
	addi 9,1,280
.LBE923:
.LBE925:
	.loc 2 453 0
	stw 7,252(1)
	.loc 2 450 0
	nor 7,11,11
	srawi 7,7,31
	.loc 2 453 0
	lfd 10,248(1)
	.loc 2 450 0
	and 11,11,7
.LVL270:
	slwi 11,11,5
	.loc 2 453 0
	fsub 12,10,12
	.loc 2 451 0
	or 15,15,11
	rlwinm 15,15,0,0xffff
	.loc 2 453 0
	frsp 12,12
.LBB926:
.LBB924:
	fmadds 12,0,12,11
.LVL271:
	.loc 2 376 0
	fctiwz 12,12
.LVL272:
	stfiwx 12,0,9
	lwz 11,280(1)
	cmpwi 7,11,31
	ble- 7,.L139
	li 11,31
.L139:
.LVL273:
.LBE924:
.LBE926:
	.loc 2 454 0
	mullw 9,8,17
	stw 27,256(1)
	lfs 11,0(26)
.LBB927:
.LBB928:
	.loc 2 376 0
	addi 10,1,276
	.loc 2 454 0
	lfs 12,.LC18@l(25)
.LBE928:
.LBE927:
	mullw 3,0,3
.LVL274:
	subf 9,3,9
	xoris 9,9,0x8000
	stw 9,260(1)
	lfd 10,256(1)
	fsub 11,10,11
	frsp 11,11
.LBB930:
.LBB929:
	fmadds 13,13,11,12
.LVL275:
	.loc 2 376 0
	fctiwz 13,13
.LVL276:
	stfiwx 13,0,10
	lwz 9,276(1)
	cmpwi 7,9,63
	ble- 7,.L140
	li 9,63
.L140:
.LVL277:
.LBE929:
.LBE930:
	.loc 2 455 0
	mullw 17,16,17
.LVL278:
	stw 27,264(1)
	lfs 12,0(26)
.LBB931:
.LBB932:
	.loc 2 376 0
	addi 7,1,272
	.loc 2 455 0
	lfs 13,.LC18@l(25)
.LBE932:
.LBE931:
	mullw 0,0,5
.LVL279:
	subf 0,0,17
	xoris 0,0,0x8000
	stw 0,268(1)
	lfd 11,264(1)
	fsub 12,11,12
	frsp 12,12
.LBB934:
.LBB933:
	fmadds 0,0,12,13
.LVL280:
	.loc 2 376 0
	fctiwz 0,0
.LVL281:
	stfiwx 0,0,7
	lwz 0,272(1)
	cmpwi 7,0,31
	ble- 7,.L141
	li 0,31
.L141:
.LBE933:
.LBE934:
	.loc 2 453 0
	nor 17,11,11
	.loc 2 455 0
	nor 8,0,0
.LVL282:
	.loc 2 454 0
	nor 10,9,9
	.loc 2 453 0
	srawi 17,17,31
	and 17,11,17
	.loc 2 455 0
	srawi 8,8,31
	.loc 2 454 0
	srawi 10,10,31
	.loc 2 453 0
	slwi 17,17,11
	.loc 2 455 0
	and 0,0,8
	.loc 2 454 0
	and 9,9,10
.LVL283:
	or 17,17,0
	slwi 9,9,5
	.loc 2 455 0
	or 17,17,9
	rlwinm 17,17,0,0xffff
.LVL284:
.LBE938:
.LBE946:
	.loc 2 460 0
	cmpw 7,17,23
	bne+ 7,.L145
.LVL285:
.L193:
	cmpw 7,15,21
	beq- 7,.L146
.LBE953:
.LBE960:
	.loc 2 504 0
	cmpw 7,17,15
	bne+ 7,.L197
.L165:
	mr 15,17
	.loc 2 508 0
	li 28,0
.LVL286:
	b .L147
.LVL287:
.L188:
.LBE962:
.LBE891:
.LBE767:
.LBE968:
.LBE971:
.LBB972:
.LBB973:
	.loc 2 549 0
	lbz 10,3(31)
.LVL288:
	li 11,15
	li 9,0
	mtctr 11
	mr 8,10
	b .L98
.LVL289:
.L199:
	.loc 2 554 0
	ble- 6,.L97
	mr 8,0
.LVL290:
.L97:
	addi 9,9,4
	.loc 2 551 0
	bdz .L198
.L98:
	.loc 2 615 0
	add 11,31,9
	.loc 2 553 0
	lbz 0,7(11)
	cmpw 7,0,10
	.loc 2 554 0
	cmpw 6,0,8
	.loc 2 553 0
	bge- 7,.L199
	mr 10,0
.LVL291:
	.loc 2 554 0
	addi 9,9,4
	.loc 2 551 0
	bdnz .L98
.LVL292:
.L198:
	.loc 2 565 0
	subf 25,10,8
	.loc 2 558 0
	stb 8,0(30)
	.loc 2 568 0
	cmpwi 7,25,7
	srawi 9,25,1
	.loc 2 559 0
	stb 10,1(30)
	.loc 2 560 0
	addi 26,30,2
.LVL293:
	.loc 2 566 0
	slwi 3,25,2
.LVL294:
	.loc 2 567 0
	slwi 27,25,1
.LVL295:
	.loc 2 568 0
	addi 0,9,2
	bgt- 7,.L100
	addi 0,25,-1
.L100:
.LVL296:
	.loc 2 569 0
	mulli 10,10,-7
.LVL297:
.LBB974:
.LBB975:
	.loc 2 578 0
	li 7,16
.LBE975:
.LBE974:
	.loc 2 569 0
	li 11,0
	.loc 2 570 0
	li 9,0
	.loc 2 569 0
	add 24,10,0
.LVL298:
.LBB979:
.LBB976:
	.loc 2 578 0
	mtctr 7
.LBE976:
.LBE979:
	.loc 2 570 0
	li 0,0
	b .L104
.LVL299:
.L201:
.LBB980:
.LBB977:
	.loc 2 588 0
	stb 0,0(26)
	.loc 2 590 0
	addi 9,9,-5
	.loc 2 588 0
	addi 26,26,1
.LVL300:
	.loc 2 589 0
	srawi 0,0,8
.LVL301:
	.loc 2 590 0
	addi 11,11,4
.LBE977:
	.loc 2 572 0
	bdz .L200
.LVL302:
.L104:
.LBB978:
	.loc 2 615 0
	add 10,31,11
	.loc 2 587 0
	addi 7,9,3
	.loc 2 573 0
	lbz 8,3(10)
	.loc 2 587 0
	cmpwi 7,7,7
	.loc 2 577 0
	mr 10,3
	li 5,4
	.loc 2 573 0
	mulli 8,8,7
	.loc 2 578 0
	mr 4,27
	.loc 2 573 0
	add 8,24,8
.LVL303:
	.loc 2 577 0
	cmpw 6,3,8
	ble- 6,.L101
	li 10,0
	li 5,0
.L101:
.LVL304:
	subf 10,10,8
.LVL305:
	.loc 2 578 0
	li 8,2
	cmpw 6,27,10
	ble- 6,.L102
	li 4,0
	li 8,0
.L102:
	subf 10,4,10
.LVL306:
	add 8,5,8
.LVL307:
	.loc 2 579 0
	cmpw 6,25,10
	crnot 26,25
	mfcr 10
	rlwinm 10,10,27,1
	add 10,8,10
	.loc 2 582 0
	neg 10,10
	rlwinm 10,10,0,29,31
.LVL308:
	.loc 2 583 0
	cmpwi 6,10,1
	crnot 26,25
	mfcr 8
	rlwinm 8,8,27,1
.LVL309:
	xor 10,8,10
.LVL310:
	.loc 2 586 0
	slw 10,10,9
.LVL311:
	or 0,0,10
.LVL312:
	.loc 2 587 0
	bgt- 7,.L201
	mr 9,7
	.loc 2 590 0
	addi 11,11,4
.LBE978:
	.loc 2 572 0
	bdnz .L104
.LVL313:
.L200:
.LBE980:
.LBE973:
.LBE972:
	.loc 2 625 0
	addi 30,30,8
.LVL314:
	b .L96
.LVL315:
.L162:
.LBB981:
.LBB969:
.LBB966:
.LBB963:
.LBB890:
	.loc 2 346 0
	li 4,114
	.loc 2 345 0
	li 5,587
	.loc 2 344 0
	li 6,299
	b .L123
.LVL316:
.L194:
.LBE890:
.LBE963:
.LBB964:
	.loc 2 506 0
	mr 28,3
.LVL317:
	b .L146
.LVL318:
.L187:
	li 0,32
	lis 25,.LANCHOR0@ha
	mtctr 0
.LBE964:
.LBE966:
.LBE969:
.LBE981:
	.loc 2 618 0
	li 9,0
	la 25,.LANCHOR0@l(25)
.L91:
.LBB982:
.LBB983:
	.loc 2 599 0
	srawi 11,9,2
	slwi 0,9,3
	or 0,11,0
	stbx 0,25,9
	.loc 2 598 0
	addi 9,9,1
.LVL319:
	bdnz .L91
	li 7,64
	lis 24,.LANCHOR0+32@ha
	mtctr 7
	li 9,0
.LVL320:
	la 24,.LANCHOR0+32@l(24)
.L92:
	.loc 2 602 0
	srawi 11,9,4
	slwi 0,9,2
	or 0,11,0
	stbx 0,24,9
	.loc 2 601 0
	addi 9,9,1
.LVL321:
	bdnz .L92
	lis 7,.LANCHOR0+384@ha
.LBB984:
.LBB985:
	.loc 2 606 0
	li 8,272
	la 7,.LANCHOR0+384@l(7)
	mtctr 8
.LBE985:
.LBE984:
	.loc 2 601 0
	li 9,0
.LVL322:
	li 0,0
	addi 5,7,-272
.LVL323:
.L182:
.LBB1009:
.LBB1006:
.LBB986:
.LBB987:
	.loc 2 63 0
	mulli 11,0,63
.LBE987:
.LBE986:
.LBB992:
.LBB993:
	mulli 10,0,31
.LBE993:
.LBE992:
.LBB998:
.LBB988:
	addi 11,11,128
.LBE988:
.LBE998:
.LBB999:
.LBB994:
	addi 0,10,128
.LVL324:
.LBE994:
.LBE999:
.LBB1000:
.LBB989:
	.loc 2 64 0
	srawi 8,11,8
.LBE989:
.LBE1000:
.LBB1001:
.LBB995:
	srawi 10,0,8
.LBE995:
.LBE1001:
.LBB1002:
.LBB990:
	add 11,11,8
.LBE990:
.LBE1002:
.LBB1003:
.LBB996:
	add 0,0,10
.LVL325:
.LBE996:
.LBE1003:
.LBB1004:
.LBB991:
	srawi 11,11,8
.LBE991:
.LBE1004:
.LBB1005:
.LBB997:
	srawi 0,0,8
.LBE997:
.LBE1005:
	.loc 2 608 0
	add 11,25,11
	.loc 2 607 0
	lbzx 10,25,0
	.loc 2 608 0
	lbz 0,32(11)
	.loc 2 607 0
	stbx 10,7,9
.LVL326:
	.loc 2 608 0
	stbx 0,5,9
.LBE1006:
	.loc 2 604 0
	addi 9,9,1
.LVL327:
.LBB1007:
	.loc 2 606 0
	cmpwi 7,9,7
	cmpwi 6,9,263
.LBE1007:
	.loc 2 604 0
	bdz .L202
.LBB1008:
	.loc 2 606 0
	li 0,0
	ble- 7,.L182
	li 0,255
	bgt- 6,.L182
	.loc 2 615 0
	addi 0,9,-8
	b .L182
.L202:
.LBE1008:
.LBE1009:
	.loc 2 611 0
	addi 3,25,656
.LVL328:
	mr 4,25
	li 5,32
	stw 6,312(1)
	bl _ZL20stb__PrepareOptTablePhPKhi
.LVL329:
	.loc 2 612 0
	addi 3,25,1168
	mr 4,24
	li 5,64
	bl _ZL20stb__PrepareOptTablePhPKhi
.LBE983:
.LBE982:
	.loc 2 620 0
	li 0,0
	stw 0,.LANCHOR1@l(27)
	lwz 6,312(1)
	b .L90
.LVL330:
.L189:
.LBB1010:
.LBB970:
.LBB967:
.LBB965:
.LBB774:
.LBB773:
.LBB771:
	.loc 2 154 0
	lis 25,.LANCHOR0@ha
	.loc 2 153 0
	addi 24,1,84
	.loc 2 154 0
	la 25,.LANCHOR0@l(25)
	.loc 2 153 0
	addi 10,1,116
.LVL331:
	mr 11,31
	mr 8,24
	.loc 2 148 0
	addi 9,1,100
	.loc 2 153 0
	li 21,0
	.loc 2 154 0
	addi 0,25,392
	.loc 2 155 0
	li 22,0
.LVL332:
.L150:
	stw 22,0(24)
	.loc 2 615 0
	li 7,4
	.loc 2 155 0
	stw 22,4(24)
	.loc 2 615 0
	mtctr 7
	.loc 2 155 0
	stw 22,8(24)
	stw 22,12(24)
	stw 22,16(24)
	stw 22,20(24)
	stw 22,24(24)
	stw 22,28(24)
.LVL333:
	lwz 6,4(9)
	lwz 7,0(9)
.LVL334:
.L112:
	.loc 2 157 0
	mulli 6,6,3
	lbz 5,0(11)
	mulli 7,7,5
	add 7,6,7
	add 6,0,5
	srawi 7,7,4
	lbzx 27,6,7
	.loc 2 159 0
	lbz 6,4(11)
	.loc 2 158 0
	subf 7,27,5
	.loc 2 157 0
	stb 27,0(10)
	.loc 2 158 0
	stw 7,0(8)
	.loc 2 159 0
	mulli 5,7,7
	lwz 26,8(9)
	lwz 3,4(9)
	mulli 26,26,3
	lwz 4,0(9)
	mulli 3,3,5
	add 5,5,26
	add 5,5,3
	add 5,5,4
	add 4,0,6
	srawi 5,5,4
	lbzx 3,4,5
	.loc 2 161 0
	lbz 5,8(11)
	.loc 2 160 0
	subf 6,3,6
	.loc 2 159 0
	stb 3,4(10)
	.loc 2 160 0
	stw 6,4(8)
	.loc 2 161 0
	mulli 4,6,7
	lwz 19,12(9)
	lwz 23,8(9)
	mulli 19,19,3
	lwz 26,4(9)
	mulli 23,23,5
	add 4,4,19
	add 4,4,23
	add 4,4,26
	add 26,0,5
	srawi 4,4,4
	lbzx 4,26,4
	.loc 2 163 0
	lbz 26,12(11)
	.loc 2 165 0
	addi 11,11,16
.LVL335:
	.loc 2 162 0
	subf 5,4,5
	.loc 2 161 0
	stb 4,8(10)
	.loc 2 162 0
	stw 5,8(8)
	.loc 2 163 0
	mulli 5,5,7
	add 23,0,26
	lwz 18,12(9)
	lwz 19,8(9)
	mulli 18,18,5
	add 5,5,18
	add 5,5,19
	srawi 5,5,4
	lbzx 5,23,5
	.loc 2 156 0
	mr 23,9
	.loc 2 164 0
	subf 26,5,26
	.loc 2 163 0
	stb 5,12(10)
	.loc 2 164 0
	stw 26,12(8)
	.loc 2 166 0
	addi 10,10,16
.LVL336:
	.loc 2 156 0
	bdz .L203
	mr 9,8
.LVL337:
	mr 8,23
.LVL338:
	b .L112
.LVL339:
.L203:
.LBE771:
	.loc 2 152 0
	cmpwi 7,21,2
	addi 21,21,1
.LVL340:
	beq- 7,.L204
.LBB772:
	.loc 2 154 0
	cmpwi 7,21,1
	.loc 2 153 0
	addi 0,1,116
.LVL341:
	add 10,0,21
.LVL342:
	.loc 2 615 0
	add 11,31,21
.LVL343:
	.loc 2 154 0
	addi 0,25,120
	beq- 7,.L111
	addi 0,25,392
.L111:
	mr 7,9
	mr 9,8
	mr 8,7
.LVL344:
	b .L150
.LVL345:
.L204:
.LBE772:
	.loc 2 492 0
	addi 25,1,116
	b .L110
.LBE773:
.LBE774:
.LBE965:
.LBE967:
.LBE970:
.LBE1010:
.LBE1014:
	.cfi_endproc
.LFE2601:
	.size	_Z22stb_compress_dxt_blockPhPKhii, .-_Z22stb_compress_dxt_blockPhPKhii
	.align 2
	.globl _Z15qgxInitTexturesv
	.type	_Z15qgxInitTexturesv, @function
_Z15qgxInitTexturesv:
.LFB2604:
	.loc 3 318 0
	.cfi_startproc
	.loc 3 320 0
	.loc 3 319 0
	b _Z16qgx_InitTexturesv
	.cfi_endproc
.LFE2604:
	.size	_Z15qgxInitTexturesv, .-_Z15qgxInitTexturesv
	.align 2
	.globl _Z20qgxLoadCurrentTexMapv
	.type	_Z20qgxLoadCurrentTexMapv, @function
_Z20qgxLoadCurrentTexMapv:
.LFB2605:
	.loc 3 322 0
	.cfi_startproc
	mflr 0
	stwu 1,-8(1)
.LCFI33:
	.cfi_def_cfa_offset 8
	.cfi_register 65, 0
.LBB1015:
	.loc 3 324 0
	lis 9,.LANCHOR0@ha
	la 9,.LANCHOR0@l(9)
.LBE1015:
	.loc 3 322 0
	stw 0,12(1)
.LBB1016:
	.loc 3 324 0
	lwz 4,108(9)
	lwz 0,96(9)
	.cfi_offset 65, 4
	slwi 11,4,2
	add 9,9,11
	lwz 3,1680(9)
	mulli 3,3,52
	add 3,0,3
.LVL346:
	.loc 3 326 0
	lbz 0,36(3)
	cmpwi 7,0,0
	beq- 7,.L206
	.loc 3 326 0 is_stmt 0 discriminator 1
	lwz 0,32(3)
	cmpwi 7,0,0
	beq- 7,.L206
	.loc 3 328 0 is_stmt 1
	rlwinm 4,4,0,0xff
	bl GX_LoadTexObj
.LVL347:
.L206:
.LBE1016:
	.loc 3 332 0
	lwz 0,12(1)
	addi 1,1,8
.LCFI34:
	.cfi_def_cfa_offset 0
	mtlr 0
	blr
	.cfi_endproc
.LFE2605:
	.size	_Z20qgxLoadCurrentTexMapv, .-_Z20qgxLoadCurrentTexMapv
	.align 2
	.globl _Z13qgxTexImage2DiiiiiPh
	.type	_Z13qgxTexImage2DiiiiiPh, @function
_Z13qgxTexImage2DiiiiiPh:
.LFB2606:
	.loc 3 334 0
	.cfi_startproc
.LVL348:
	stwu 1,-240(1)
.LCFI35:
	.cfi_def_cfa_offset 240
	mflr 0
	mfcr 12
	stw 23,204(1)
.LBB1037:
	.loc 3 341 0
	lis 23,.LANCHOR0@ha
	.cfi_offset 23, -36
	.cfi_register 70, 12
	.cfi_register 65, 0
	la 23,.LANCHOR0@l(23)
.LBE1037:
	.loc 3 334 0
	stw 0,244(1)
.LBB1105:
	.loc 3 341 0
	lwz 0,104(23)
	.cfi_offset 65, 4
	lwz 11,96(23)
	mulli 9,0,52
.LBE1105:
	.loc 3 334 0
	stw 25,212(1)
	stw 28,224(1)
	mr 25,4
	.cfi_offset 28, -16
	.cfi_offset 25, -28
	stw 29,228(1)
.LBB1106:
	.loc 3 341 0
	add 11,11,9
.LBE1106:
	.loc 3 334 0
	stw 30,232(1)
	mr 29,7
	.cfi_offset 30, -8
	.cfi_offset 29, -12
	stw 14,168(1)
	mr 30,5
	stw 15,172(1)
	mr 28,8
	stw 16,176(1)
	stw 17,180(1)
	stw 18,184(1)
	stw 19,188(1)
	stw 20,192(1)
	stw 21,196(1)
	stw 22,200(1)
	stw 24,208(1)
	stw 26,216(1)
	stw 27,220(1)
	stw 31,236(1)
	stw 12,164(1)
	.loc 3 334 0
	stw 3,148(1)
.LBB1107:
	.loc 3 343 0
	lbz 9,36(11)
	.loc 3 341 0
	stw 11,116(1)
.LVL349:
	.loc 3 343 0
	cmpwi 7,9,0
.LBE1107:
	.loc 3 334 0
	stw 6,132(1)
.LBB1108:
	.loc 3 343 0
	bne+ 7,.L209
	.cfi_offset 70, -76
	.cfi_offset 31, -4
	.cfi_offset 27, -20
	.cfi_offset 26, -24
	.cfi_offset 24, -32
	.cfi_offset 22, -40
	.cfi_offset 21, -44
	.cfi_offset 20, -48
	.cfi_offset 19, -52
	.cfi_offset 18, -56
	.cfi_offset 17, -60
	.cfi_offset 16, -64
	.cfi_offset 15, -68
	.cfi_offset 14, -72
	.loc 3 344 0
	lis 3,.LC19@ha
.LVL350:
	mr 4,0
.LVL351:
	la 3,.LC19@l(3)
	crxor 6,6,6
	bl _Z9Sys_ErrorPKcz
.LVL352:
.L209:
	.loc 3 348 0
	lwz 11,116(1)
	lbz 0,48(11)
	extsb. 0,0
	blt- 0,.L210
	.loc 3 348 0 is_stmt 0 discriminator 1
	lwz 11,148(1)
	cmpw 7,0,11
	beq- 7,.L210
.LVL353:
.L208:
.LBE1108:
	.loc 3 406 0 is_stmt 1
	lwz 0,244(1)
	lwz 12,164(1)
	mtlr 0
	lwz 14,168(1)
	lwz 15,172(1)
	mtcrf 56,12
	lwz 16,176(1)
	lwz 17,180(1)
	lwz 18,184(1)
	lwz 19,188(1)
	lwz 20,192(1)
	lwz 21,196(1)
	lwz 22,200(1)
	lwz 23,204(1)
	lwz 24,208(1)
	lwz 25,212(1)
	lwz 26,216(1)
	lwz 27,220(1)
	lwz 28,224(1)
.LVL354:
	lwz 29,228(1)
.LVL355:
	lwz 30,232(1)
.LVL356:
	lwz 31,236(1)
	addi 1,1,240
	.cfi_remember_state
.LCFI36:
	.cfi_def_cfa_offset 0
	.cfi_restore 70
	.cfi_restore 31
	.cfi_restore 30
	.cfi_restore 29
	.cfi_restore 28
	.cfi_restore 27
	.cfi_restore 26
	.cfi_restore 25
	.cfi_restore 24
	.cfi_restore 23
	.cfi_restore 22
	.cfi_restore 21
	.cfi_restore 20
	.cfi_restore 19
	.cfi_restore 18
	.cfi_restore 17
	.cfi_restore 16
	.cfi_restore 15
	.cfi_restore 14
	blr
.LVL357:
.L210:
.LCFI37:
	.cfi_restore_state
.LBB1109:
.LBB1038:
.LBB1039:
	.loc 3 135 0
	li 0,0
	ori 0,0,32854
	cmpw 7,25,0
	beq- 7,.L256
	li 0,0
	bgt- 7,.L219
	ori 0,0,32843
	cmpw 7,25,0
	beq- 7,.L213
	bgt- 7,.L220
	xoris 0,25,0xffff
	cmpwi 7,0,-32708
	beq 7,.L213
	xoris 0,25,0xffff
	cmpwi 7,0,-32699
	beq 7,.L268
.L212:
	.loc 3 156 0
	lis 3,.LC21@ha
	mr 4,25
	la 3,.LC21@l(3)
	.loc 3 157 0
	li 26,0
	.loc 3 156 0
	crxor 6,6,6
	bl _Z9Sys_ErrorPKcz
	li 0,0
	li 11,0
	stw 0,128(1)
	stw 11,88(1)
	b .L216
.L221:
	.loc 3 135 0
	addis 0,25,0xffff
	addic 0,0,31758
	cmplwi 7,0,1
	bgt- 7,.L212
.L256:
	li 0,5
	li 11,5
	stw 0,128(1)
	.loc 3 145 0
	li 26,5
	.loc 3 135 0
	stw 11,88(1)
.L216:
.LVL358:
.LBE1039:
.LBE1038:
.LBB1041:
.LBB1042:
	.loc 3 249 0
	lwz 11,132(1)
	rlwinm 0,30,0,0xffff
	mr 3,0
	mr 5,26
	rlwinm 11,11,0,0xffff
	li 6,0
	mr 4,11
	li 7,0
	stw 0,136(1)
	stw 11,140(1)
	bl GX_GetTexBufferSize
	stw 3,144(1)
.LVL359:
.L255:
.LBE1042:
.LBE1041:
	.loc 3 356 0
	lwz 11,116(1)
	lis 3,.LC22@ha
	lwz 0,104(23)
	la 3,.LC22@l(3)
	lwz 4,148(1)
	mr 5,25
	lwz 7,132(1)
	mr 6,30
	lwz 10,144(1)
	mr 8,29
	mr 9,28
	stw 11,8(1)
	stw 0,12(1)
	stw 26,16(1)
	crxor 6,6,6
	bl _Z10Sys_PrintfPKcz
	.loc 3 359 0
	lwz 11,116(1)
	lwz 11,32(11)
	cmpwi 7,11,0
	stw 11,124(1)
	beq- 7,.L222
	.loc 3 359 0 is_stmt 0 discriminator 1
	lwz 11,116(1)
	lhz 0,38(11)
	cmpw 7,0,30
	beq- 7,.L269
.L223:
	.loc 3 360 0 is_stmt 1
	lwz 3,124(1)
	bl free
	.loc 3 361 0
	lwz 11,116(1)
	li 0,0
	stw 0,32(11)
.L222:
	.loc 3 366 0
	lwz 4,144(1)
	li 3,32
	bl memalign
	stw 3,124(1)
.LVL360:
.L224:
.LBB1044:
.LBB1045:
	.loc 3 206 0
	lwz 11,88(1)
	cmplwi 7,11,14
	ble- 7,.L270
.L225:
	.loc 3 238 0
	lis 3,.LC23@ha
	la 3,.LC23@l(3)
	crxor 6,6,6
	bl _Z9Sys_ErrorPKcz
.L227:
.LVL361:
.LBE1045:
.LBE1044:
	.loc 3 374 0
	lwz 11,132(1)
	cmpwi 7,11,0
	ble- 7,.L233
.LBB1048:
.LBB1049:
	.loc 3 334 0
	mullw 0,17,27
	cmpwi 7,30,0
	lwz 11,88(1)
	lis 18,.LANCHOR0+1712@ha
.LBE1049:
.LBE1048:
	.loc 3 374 0
	lwz 21,124(1)
	la 18,.LANCHOR0+1712@l(18)
	cmpwi 4,11,2
	mfcr 9
	rlwinm 9,9,28,0xf0000000
	cmpwi 7,26,14
.LBB1079:
.LBB1073:
	.loc 3 334 0
	stw 0,100(1)
.LBB1050:
	mullw 17,17,31
.LVL362:
	stw 9,152(1)
.LBB1051:
	.loc 3 289 0
	addi 15,11,-4
	mfcr 0
	rlwinm 0,0,28,0xf0000000
	stw 0,112(1)
.LBE1051:
.LBE1050:
	.loc 3 282 0
	lwz 0,92(1)
	cmpwi 7,0,0
	mfcr 0
	rlwinm 0,0,28,0xf0000000
	cmpwi 7,27,0
	stw 0,120(1)
	mfcr 0
	rlwinm 0,0,28,0xf0000000
	stw 0,104(1)
.LBE1073:
.LBE1079:
	.loc 3 374 0
	li 0,0
	stw 0,96(1)
.LVL363:
.L232:
	.loc 3 375 0 discriminator 1
	lwz 9,152(1)
	rlwinm 9,9,4,0xffffffff
	mtcrf 1,9
	rlwinm 9,9,28,0xffffffff
	ble- 7,.L254
.LBB1080:
.LBB1074:
.LBB1067:
.LBB1060:
.LBB1052:
.LBB1053:
	.loc 3 195 0
	lwz 11,88(1)
.LBE1053:
.LBE1052:
.LBE1060:
.LBE1067:
.LBE1074:
.LBE1080:
	.loc 3 375 0
	li 19,0
.LBB1081:
.LBB1075:
.LBB1068:
.LBB1061:
.LBB1057:
.LBB1054:
	.loc 3 195 0
	cmpwi 2,11,5
.LVL364:
.L253:
.LBE1054:
.LBE1057:
.LBE1061:
.LBE1068:
.LBE1075:
.LBE1081:
	.loc 3 376 0
	lwz 0,112(1)
	rlwinm 0,0,4,0xffffffff
	mtcrf 1,0
	rlwinm 0,0,28,0xffffffff
	bne- 7,.L234
	.loc 3 334 0
	addi 0,21,32
	.loc 3 376 0
	lwz 16,96(1)
	.loc 3 334 0
	stw 0,108(1)
	mr 14,31
.LVL365:
.L235:
.LBB1082:
.LBB1083:
	.loc 3 256 0
	mr 22,19
	.loc 3 334 0
	addi 20,21,16
.LVL366:
.L252:
.LBE1083:
.LBE1082:
	mr 25,16
	li 31,0
.LVL367:
.L251:
.LBB1096:
.LBB1094:
.LBB1084:
.LBB1085:
.LBB1086:
	addi 24,31,4
.LBE1086:
.LBE1085:
.LBE1084:
.LBE1094:
.LBE1096:
	mr 26,22
.LVL368:
.L248:
.LBB1097:
.LBB1095:
.LBB1092:
.LBB1090:
.LBB1089:
.LBB1087:
	.loc 3 262 0
	slwi 3,31,2
	addi 9,1,24
	mr 4,26
	add 3,9,3
	mr 5,25
	mr 6,30
	mr 7,29
	mr 8,28
	.loc 3 263 0
	addi 31,31,1
.LVL369:
	.loc 3 262 0
	bl _ZL13qgx_ReadColorP9_gx_coloriiiiPh
.LVL370:
	.loc 3 261 0
	cmpw 7,24,31
	.loc 3 263 0
	addi 26,26,1
	.loc 3 261 0
	bne+ 7,.L248
.LBE1087:
	.loc 3 260 0
	cmpwi 7,24,16
.LBB1088:
	.loc 3 261 0
	mr 31,24
.LVL371:
	addi 25,25,1
.LBE1088:
	.loc 3 260 0
	bne+ 7,.L251
.LBE1089:
	.loc 3 267 0
	mr 3,21
	addi 4,1,24
	li 5,0
	li 6,0
	.loc 3 268 0
	addi 21,21,8
.LVL372:
	.loc 3 267 0
	bl _Z22stb_compress_dxt_blockPhPKhii
.LVL373:
.LBE1090:
	.loc 3 257 0
	cmpw 7,20,21
.LBB1091:
	.loc 3 268 0
	addi 22,22,4
.LBE1091:
	.loc 3 257 0
	bne- 7,.L252
.LBE1092:
	.loc 3 256 0
	lwz 11,108(1)
.LBB1093:
	.loc 3 257 0
	mr 21,20
.LVL374:
	addi 16,16,4
.LBE1093:
	.loc 3 256 0
	cmpw 7,20,11
	bne- 7,.L235
	mr 31,14
.LVL375:
.L236:
.LBE1095:
.LBE1097:
	.loc 3 334 0
	add 19,19,27
	.loc 3 384 0
	lwz 21,108(1)
.LVL376:
	.loc 3 375 0
	cmpw 7,30,19
	bgt+ 7,.L253
.LVL377:
.L254:
	.loc 3 334 0
	lwz 0,96(1)
	lwz 11,92(1)
	add 0,0,11
	.loc 3 374 0
	lwz 11,132(1)
	.loc 3 334 0
	stw 0,96(1)
.LVL378:
	.loc 3 374 0
	cmpw 7,11,0
	bgt+ 7,.L232
.LVL379:
.L233:
	.loc 3 388 0
	lwz 11,116(1)
	.loc 3 392 0
	li 0,1
	.loc 3 388 0
	lwz 9,124(1)
	.loc 3 392 0
	stb 0,43(11)
	.loc 3 388 0
	stw 9,32(11)
	.loc 3 389 0
	lwz 9,136(1)
	.loc 3 393 0
	stb 0,44(11)
	.loc 3 394 0
	li 0,0
	.loc 3 389 0
	sth 9,38(11)
	.loc 3 390 0
	lwz 9,140(1)
	.loc 3 394 0
	stb 0,47(11)
	.loc 3 390 0
	sth 9,40(11)
	.loc 3 395 0
	lwz 0,148(1)
	.loc 3 391 0
	lwz 9,128(1)
	.loc 3 395 0
	stb 0,48(11)
	.loc 3 391 0
	stb 9,42(11)
	.loc 3 400 0
	lwz 4,144(1)
	lwz 3,124(1)
	bl DCFlushRange
	.loc 3 401 0
	lwz 3,116(1)
	lwz 4,32(3)
	lhz 5,38(3)
	lhz 6,40(3)
	lbz 7,42(3)
	lbz 8,43(3)
	lbz 9,44(3)
	lbz 10,47(3)
	bl GX_InitTexObj
	.loc 3 405 0
	bl _Z20qgxLoadCurrentTexMapv
	b .L208
.LVL380:
.L234:
.LBB1098:
.LBB1076:
	.loc 3 282 0
	lwz 11,120(1)
	addi 9,21,32
	stw 9,108(1)
	rlwinm 11,11,4,0xffffffff
	mtcrf 1,11
	rlwinm 11,11,28,0xffffffff
	ble- 7,.L236
.LBB1069:
.LBB1062:
	.loc 3 289 0
	lwz 11,88(1)
.LBE1062:
.LBE1069:
.LBE1076:
.LBE1098:
	.loc 3 334 0
	li 14,0
	li 16,0
.LBB1099:
.LBB1077:
.LBB1070:
.LBB1063:
	.loc 3 289 0
	cmpwi 3,11,0
.LVL381:
.L237:
.LBE1063:
	.loc 3 283 0
	lwz 11,104(1)
	rlwinm 11,11,4,0xffffffff
	mtcrf 1,11
	rlwinm 11,11,28,0xffffffff
	ble- 7,.L247
	.loc 3 334 0
	lwz 0,96(1)
.LBE1070:
.LBE1077:
.LBE1099:
	mr 26,19
	mr 25,14
.LBB1100:
.LBB1078:
.LBB1071:
	add 20,16,0
	b .L246
.LVL382:
.L271:
.LBB1064:
	.loc 3 289 0
	bne- 3,.L238
	.loc 3 293 0
	lis 9,.LC25@ha
	addi 4,26,1
	lwz 3,.LC25@l(9)
	mr 5,20
	mr 6,30
	mr 7,29
	mr 8,28
	bl _ZL13qgx_ReadColorP9_gx_coloriiiiPh
	.loc 3 294 0
	lbz 0,1715(23)
	rlwinm 0,0,0,24,27
	stb 0,0(22)
	.loc 3 295 0
	lbz 9,1719(23)
	srwi 9,9,4
	or 0,0,9
	stb 0,0(22)
.L243:
	.loc 3 308 0
	add 26,26,31
	add 25,25,17
.LBE1064:
	.loc 3 334 0
	subf 0,19,26
	.loc 3 283 0
	cmpw 7,27,0
	ble- 7,.L247
.LVL383:
.L246:
.LBB1065:
	.loc 3 285 0
	divw 24,25,31
	.loc 3 287 0
	mr 3,18
	mr 4,26
	mr 5,20
	mr 6,30
	mr 7,29
	mr 8,28
	.loc 3 285 0
	add 22,21,24
.LVL384:
	.loc 3 287 0
	bl _ZL13qgx_ReadColorP9_gx_coloriiiiPh
	.loc 3 289 0
	beq- 4,.L240
	ble- 4,.L271
	cmplwi 7,15,1
	ble- 7,.L272
.L238:
	.loc 3 308 0
	lis 11,.LC26@ha
	lwz 4,88(1)
	lwz 3,.LC26@l(11)
	add 26,26,31
	add 25,25,17
	crxor 6,6,6
	bl _Z9Sys_ErrorPKcz
.LBE1065:
	.loc 3 334 0
	subf 0,19,26
	.loc 3 283 0
	cmpw 7,27,0
	bgt+ 7,.L246
.LVL385:
.L247:
.LBE1071:
	.loc 3 282 0
	lwz 0,92(1)
	addi 16,16,1
.LVL386:
	lwz 9,100(1)
	cmpw 7,16,0
	add 14,14,9
	bne+ 7,.L237
	addi 21,21,32
.LVL387:
	stw 21,108(1)
	b .L236
.LVL388:
.L272:
.LBB1072:
.LBB1066:
.LBB1058:
.LBB1055:
	.loc 3 195 0
	beq- 2,.L273
	.loc 3 198 0
	lbz 11,1712(23)
	lbz 9,1713(23)
	lbz 0,1714(23)
	rlwinm 11,11,8,16,20
	rlwinm 9,9,3,21,26
	or 9,11,9
	srwi 0,0,3
	or 9,0,9
.LVL389:
	.loc 3 200 0
	sth 9,0(22)
	b .L243
.LVL390:
.L240:
.LBE1055:
.LBE1058:
	.loc 3 299 0
	lbz 0,1715(23)
	rlwinm 0,0,0,24,27
	stbx 0,21,24
	.loc 3 300 0
	lbz 9,1712(23)
	srwi 9,9,4
	or 0,0,9
	stbx 0,21,24
	b .L243
.LVL391:
.L273:
.LBB1059:
.LBB1056:
	.loc 3 196 0
	lbz 10,1714(23)
	lbz 11,1713(23)
	lbz 9,1715(23)
	srwi 10,10,4
	lbz 0,1712(23)
	rlwinm 11,11,0,24,27
	or 11,10,11
	rlwinm 9,9,7,17,19
	or 9,11,9
	rlwinm 0,0,4,20,23
	or 9,9,0
	rlwinm 9,9,0,17,31
.LVL392:
	.loc 3 200 0
	sth 9,0(22)
	b .L243
.LVL393:
.L270:
.LBE1056:
.LBE1059:
.LBE1066:
.LBE1072:
.LBE1078:
.LBE1100:
.LBB1101:
.LBB1046:
	.loc 3 206 0
	lis 9,.L231@ha
	slwi 0,11,2
	la 9,.L231@l(9)
	lwzx 0,9,0
	add 9,0,9
	mtctr 9
	bctr
	.section	.rodata
	.align 2
	.align 2
.L231:
	.long .L226-.L231
	.long .L225-.L231
	.long .L257-.L231
	.long .L225-.L231
	.long .L228-.L231
	.long .L229-.L231
	.long .L225-.L231
	.long .L225-.L231
	.long .L225-.L231
	.long .L225-.L231
	.long .L225-.L231
	.long .L225-.L231
	.long .L225-.L231
	.long .L225-.L231
	.long .L230-.L231
	.section	".text"
.LVL394:
.L269:
.LBE1046:
.LBE1101:
	.loc 3 359 0 discriminator 2
	lhz 0,40(11)
	lwz 11,132(1)
	cmpw 7,0,11
	bne+ 7,.L223
	b .L224
.LVL395:
.L268:
.LBB1102:
.LBB1043:
	.loc 3 247 0
	lwz 11,132(1)
	rlwinm 0,30,0,0xffff
	mr 3,0
	li 5,2
	rlwinm 11,11,0,0xffff
	li 6,0
	mr 4,11
	li 7,0
	stw 0,136(1)
	.loc 3 140 0
	li 26,2
	.loc 3 247 0
	stw 11,140(1)
	bl GX_GetTexBufferSize
	li 0,2
	.loc 3 354 0
	li 11,2
	.loc 3 247 0
	stw 3,144(1)
	stw 0,128(1)
	.loc 3 354 0
	stw 11,88(1)
	b .L255
.LVL396:
.L220:
.LBE1043:
.LBE1102:
.LBB1103:
.LBB1040:
	.loc 3 135 0
	addis 0,25,0xffff
	addic 0,0,32688
	cmplwi 7,0,1
	bgt- 7,.L212
	li 0,4
	li 11,4
	stw 0,128(1)
	.loc 3 148 0
	li 26,4
	stw 11,88(1)
	b .L216
.L219:
	.loc 3 135 0
	ori 0,0,33776
	cmpw 7,25,0
	beq- 7,.L218
	bgt- 7,.L221
	xoris 0,25,0xffff
	cmpwi 7,0,-32680
	beq 7,.L256
	xoris 0,25,0xffff
	cmpwi 7,0,-32539
	bne 7,.L212
	.loc 3 154 0
	lis 3,.LC20@ha
	la 3,.LC20@l(3)
	crxor 6,6,6
	bl _Z9Sys_ErrorPKcz
	b .L212
.L213:
	.loc 3 135 0
	li 11,0
	.loc 3 138 0
	li 26,0
	.loc 3 135 0
	stw 11,128(1)
	stw 11,88(1)
	b .L216
.L218:
	li 0,14
	li 11,14
	stw 0,128(1)
	.loc 3 142 0
	li 26,14
	.loc 3 135 0
	stw 11,88(1)
	b .L216
.LVL397:
.L230:
.LBE1040:
.LBE1103:
.LBB1104:
.LBB1047:
	.loc 3 233 0
	li 11,8
.LVL398:
	.loc 3 235 0
	li 17,0
	.loc 3 234 0
	li 31,0
	.loc 3 233 0
	stw 11,92(1)
	.loc 3 232 0
	li 27,8
	b .L227
.L229:
	.loc 3 227 0
	li 0,4
	.loc 3 229 0
	li 17,2
	.loc 3 228 0
	li 31,1
	.loc 3 227 0
	stw 0,92(1)
	.loc 3 226 0
	li 27,4
	b .L227
.L228:
	.loc 3 221 0
	li 11,4
	.loc 3 223 0
	li 17,2
	.loc 3 222 0
	li 31,1
	.loc 3 221 0
	stw 11,92(1)
	.loc 3 220 0
	li 27,4
	b .L227
.L257:
	.loc 3 215 0
	li 0,4
	.loc 3 217 0
	li 17,1
	.loc 3 216 0
	li 31,1
	.loc 3 215 0
	stw 0,92(1)
	.loc 3 214 0
	li 27,8
	b .L227
.L226:
	.loc 3 209 0
	li 0,8
	.loc 3 211 0
	li 17,1
	.loc 3 210 0
	li 31,2
	.loc 3 209 0
	stw 0,92(1)
	.loc 3 208 0
	li 27,8
	b .L227
.LBE1047:
.LBE1104:
.LBE1109:
	.cfi_endproc
.LFE2606:
	.size	_Z13qgxTexImage2DiiiiiPh, .-_Z13qgxTexImage2DiiiiiPh
	.align 2
	.globl _Z16qgxSetGLTexParamiiiii
	.type	_Z16qgxSetGLTexParamiiiii, @function
_Z16qgxSetGLTexParamiiiii:
.LFB2607:
	.loc 3 412 0
	.cfi_startproc
.LVL399:
	stwu 1,-32(1)
.LCFI38:
	.cfi_def_cfa_offset 32
	mflr 0
	mr 8,7
	stw 28,16(1)
	mr 28,3
	.cfi_offset 28, -16
	.cfi_register 65, 0
	stw 29,20(1)
.LBB1110:
	.loc 3 416 0
	lis 3,.LC27@ha
.LVL400:
.LBE1110:
	.loc 3 412 0
	stw 30,24(1)
	mr 29,4
	.cfi_offset 30, -8
	.cfi_offset 29, -12
	stw 31,28(1)
	mr 30,5
	mr 31,6
	.cfi_offset 31, -4
.LBB1111:
	.loc 3 416 0
	mr 4,28
.LVL401:
	la 3,.LC27@l(3)
	mr 5,29
.LVL402:
	mr 6,30
.LVL403:
	mr 7,31
.LVL404:
.LBE1111:
	.loc 3 412 0
	stw 0,36(1)
	stw 27,12(1)
.LBB1112:
	.loc 3 416 0
	.cfi_offset 27, -20
	.cfi_offset 65, 4
	crxor 6,6,6
	bl _Z10Sys_PrintfPKcz
.LVL405:
	.loc 3 418 0
	lis 9,.LANCHOR0@ha
	la 9,.LANCHOR0@l(9)
	lwz 4,104(9)
	lwz 27,96(9)
	mulli 0,4,52
	add 27,27,0
.LVL406:
	.loc 3 420 0
	lbz 0,36(27)
	cmpwi 7,0,0
	beq- 7,.L280
.L275:
	.loc 3 424 0
	cmpwi 7,28,-1
	beq- 7,.L276
	.loc 3 425 0
	mr 3,28
	bl _ZL18qgx_GLWrapModeToGXi
.LVL407:
	stb 3,43(27)
.LVL408:
.L276:
	.loc 3 428 0
	cmpwi 7,29,-1
	beq- 7,.L277
	.loc 3 429 0
	mr 3,29
	bl _ZL18qgx_GLWrapModeToGXi
.LVL409:
	stb 3,44(27)
.LVL410:
.L277:
	.loc 3 432 0
	cmpwi 7,30,-1
	beq- 7,.L278
	.loc 3 433 0
	mr 3,30
	bl _ZL16qgx_GLFilterToGXi
.LVL411:
	stb 3,45(27)
.LVL412:
.L278:
	.loc 3 436 0
	cmpwi 7,31,-1
	beq- 7,.L279
	.loc 3 437 0
	mr 3,31
	bl _ZL16qgx_GLFilterToGXi
.LVL413:
	stb 3,46(27)
.LVL414:
.L279:
	.loc 3 443 0
	li 0,0
	.loc 3 446 0
	lwz 4,32(27)
	.loc 3 443 0
	stb 0,47(27)
	.loc 3 446 0
	mr 3,27
	lhz 5,38(27)
	li 10,0
	lhz 6,40(27)
	lbz 7,42(27)
	lbz 8,43(27)
	lbz 9,44(27)
	bl GX_InitTexObj
.LBE1112:
	.loc 3 449 0
	lwz 0,36(1)
	lwz 27,12(1)
.LVL415:
	mtlr 0
	lwz 28,16(1)
.LVL416:
	lwz 29,20(1)
.LVL417:
	lwz 30,24(1)
.LVL418:
	lwz 31,28(1)
.LVL419:
	addi 1,1,32
	.cfi_remember_state
.LCFI39:
	.cfi_def_cfa_offset 0
	.cfi_restore 31
	.cfi_restore 30
	.cfi_restore 29
	.cfi_restore 28
	.cfi_restore 27
	blr
.LVL420:
.L280:
.LCFI40:
	.cfi_restore_state
.LBB1113:
	.loc 3 421 0
	lis 3,.LC19@ha
	la 3,.LC19@l(3)
	crxor 6,6,6
	bl _Z9Sys_ErrorPKcz
	b .L275
.LBE1113:
	.cfi_endproc
.LFE2607:
	.size	_Z16qgxSetGLTexParamiiiii, .-_Z16qgxSetGLTexParamiiiii
	.align 2
	.globl _Z14qgxGenTexturesiPj
	.type	_Z14qgxGenTexturesiPj, @function
_Z14qgxGenTexturesiPj:
.LFB2608:
	.loc 3 451 0
	.cfi_startproc
.LVL421:
	stwu 1,-56(1)
.LCFI41:
	.cfi_def_cfa_offset 56
	mflr 0
	stw 25,28(1)
.LBB1118:
	.loc 3 452 0
	mr. 25,3
	.cfi_offset 25, -28
	.cfi_register 65, 0
.LBE1118:
	.loc 3 451 0
	stw 0,60(1)
	stw 21,12(1)
	stw 22,16(1)
	stw 23,20(1)
	stw 24,24(1)
	stw 26,32(1)
	stw 27,36(1)
	stw 28,40(1)
	stw 29,44(1)
	stw 30,48(1)
	stw 31,52(1)
.LBB1131:
	.loc 3 452 0
	ble- 0,.L281
	.cfi_offset 31, -4
	.cfi_offset 30, -8
	.cfi_offset 29, -12
	.cfi_offset 28, -16
	.cfi_offset 27, -20
	.cfi_offset 26, -24
	.cfi_offset 24, -32
	.cfi_offset 23, -36
	.cfi_offset 22, -40
	.cfi_offset 21, -44
	.cfi_offset 65, 4
	lis 28,.LANCHOR0@ha
.LBB1119:
.LBB1120:
	.loc 3 73 0
	lis 21,.LC28@ha
.LBE1120:
.LBE1119:
	.loc 3 452 0
	la 28,.LANCHOR0@l(28)
.LBB1126:
.LBB1121:
	.loc 3 82 0
	lis 22,.LC29@ha
.LBE1121:
.LBE1126:
	.loc 3 452 0
	lwz 29,96(28)
	.loc 3 451 0
	addi 26,4,-4
.LBE1131:
	.loc 3 452 0
	li 27,0
.LBB1132:
.LBB1127:
.LBB1122:
	.loc 3 73 0
	la 21,.LC28@l(21)
	.loc 3 82 0
	la 22,.LC29@l(22)
	.loc 3 86 0
	li 23,1
	.loc 3 87 0
	li 24,-1
.LVL422:
.L288:
	.loc 3 72 0 discriminator 2
	cmpwi 7,29,0
	beq- 7,.L291
.L283:
	.loc 3 75 0
	lwz 0,100(28)
	cmpwi 7,0,511
	bgt- 7,.L284
	lwz 29,96(28)
	.loc 3 451 0
	mulli 9,0,52
	subfic 11,0,512
	mtctr 11
	add 9,29,9
.LVL423:
.L287:
	.loc 3 77 0
	mr 31,9
	lbz 9,36(9)
	mr 30,0
	cmpwi 7,9,0
	.loc 3 76 0
	addi 0,30,1
	addi 9,31,52
	.loc 3 77 0
	beq- 7,.L286
.LVL424:
	.loc 3 76 0
	bdnz .L287
	addi 31,29,26624
	li 30,512
	li 0,513
.LVL425:
.L286:
	.loc 3 85 0
	mr 3,31
	li 4,0
	li 5,52
.LBE1122:
.LBE1127:
	.loc 3 452 0
	addi 27,27,1
.LBB1128:
.LBB1123:
	.loc 3 84 0
	stw 0,100(28)
	.loc 3 85 0
	bl memset
.LVL426:
.LBE1123:
.LBE1128:
	.loc 3 452 0
	cmpw 7,27,25
.LBB1129:
.LBB1124:
	.loc 3 86 0
	stb 23,36(31)
	.loc 3 87 0
	stb 24,48(31)
.LBE1124:
.LBE1129:
	.loc 3 454 0
	stwu 30,4(26)
	.loc 3 452 0
	bne+ 7,.L288
.LVL427:
.L281:
.LBE1132:
	.loc 3 456 0
	lwz 0,60(1)
	lwz 21,12(1)
	mtlr 0
	lwz 22,16(1)
	lwz 23,20(1)
	lwz 24,24(1)
	lwz 25,28(1)
.LVL428:
	lwz 26,32(1)
	lwz 27,36(1)
	lwz 28,40(1)
	lwz 29,44(1)
	lwz 30,48(1)
	lwz 31,52(1)
	addi 1,1,56
	.cfi_remember_state
.LCFI42:
	.cfi_def_cfa_offset 0
	.cfi_restore 31
	.cfi_restore 30
	.cfi_restore 29
	.cfi_restore 28
	.cfi_restore 27
	.cfi_restore 26
	.cfi_restore 25
	.cfi_restore 24
	.cfi_restore 23
	.cfi_restore 22
	.cfi_restore 21
	blr
.LVL429:
.L284:
.LCFI43:
	.cfi_restore_state
.LBB1133:
.LBB1130:
.LBB1125:
	.loc 3 82 0
	mr 3,22
	li 4,512
	crxor 6,6,6
	bl _Z9Sys_ErrorPKcz
	lwz 29,96(28)
	li 30,0
	li 0,1
	mr 31,29
	b .L286
.L291:
	.loc 3 73 0
	mr 3,21
	crxor 6,6,6
	bl _Z9Sys_ErrorPKcz
	b .L283
.LBE1125:
.LBE1130:
.LBE1133:
	.cfi_endproc
.LFE2608:
	.size	_Z14qgxGenTexturesiPj, .-_Z14qgxGenTexturesiPj
	.align 2
	.globl _Z17qgxDeleteTexturesiPj
	.type	_Z17qgxDeleteTexturesiPj, @function
_Z17qgxDeleteTexturesiPj:
.LFB2609:
	.loc 3 459 0
	.cfi_startproc
.LVL430:
	stwu 1,-40(1)
.LCFI44:
	.cfi_def_cfa_offset 40
	mflr 0
	stw 28,24(1)
.LBB1134:
	.loc 3 460 0
	mr. 28,3
	.cfi_offset 28, -16
	.cfi_register 65, 0
.LBE1134:
	.loc 3 459 0
	stw 0,44(1)
	stw 25,12(1)
	stw 26,16(1)
	stw 27,20(1)
	stw 29,28(1)
	stw 30,32(1)
	stw 31,36(1)
.LBB1141:
	.loc 3 460 0
	ble- 0,.L292
	.cfi_offset 31, -4
	.cfi_offset 30, -8
	.cfi_offset 29, -12
	.cfi_offset 27, -20
	.cfi_offset 26, -24
	.cfi_offset 25, -28
	.cfi_offset 65, 4
	lis 26,.LC30@ha
	lis 29,.LANCHOR0@ha
	.loc 3 459 0
	addi 30,4,-4
.LBE1141:
	.loc 3 460 0
	li 31,0
	la 26,.LC30@l(26)
	la 29,.LANCHOR0@l(29)
.LBB1142:
.LBB1135:
.LBB1136:
	.loc 3 93 0
	li 27,0
.LVL431:
.L296:
.LBE1136:
.LBE1135:
	.loc 3 461 0
	lwzu 5,4(30)
	mr 4,31
	mr 3,26
	.loc 3 460 0
	addi 31,31,1
	.loc 3 461 0
	crxor 6,6,6
	bl _Z10Sys_PrintfPKcz
	.loc 3 462 0
	lwz 0,0(30)
	lwz 25,96(29)
	mulli 9,0,52
	add 9,25,9
	lwz 11,32(9)
	cmpwi 7,11,0
	.loc 3 463 0
	mr 3,11
	.loc 3 462 0
	beq- 7,.L294
	.loc 3 463 0
	bl free
	lwz 0,0(30)
	mulli 9,0,52
	add 9,25,9
.L294:
.LVL432:
.LBB1139:
.LBB1137:
	.loc 3 95 0
	lwz 11,100(29)
.LBE1137:
.LBE1139:
	.loc 3 460 0
	cmpw 7,31,28
.LBB1140:
.LBB1138:
	.loc 3 93 0
	stb 27,36(9)
	.loc 3 95 0
	cmpw 6,0,11
	bge- 6,.L295
	.loc 3 96 0
	stw 0,100(29)
.L295:
.LVL433:
.LBE1138:
.LBE1140:
	.loc 3 460 0
	bne+ 7,.L296
.LVL434:
.L292:
.LBE1142:
	.loc 3 467 0
	lwz 0,44(1)
	lwz 25,12(1)
	mtlr 0
	lwz 26,16(1)
	lwz 27,20(1)
	lwz 28,24(1)
.LVL435:
	lwz 29,28(1)
	lwz 30,32(1)
	lwz 31,36(1)
	addi 1,1,40
.LCFI45:
	.cfi_def_cfa_offset 0
	.cfi_restore 31
	.cfi_restore 30
	.cfi_restore 29
	.cfi_restore 28
	.cfi_restore 27
	.cfi_restore 26
	.cfi_restore 25
	blr
	.cfi_endproc
.LFE2609:
	.size	_Z17qgxDeleteTexturesiPj, .-_Z17qgxDeleteTexturesiPj
	.align 2
	.globl _Z14qgxBindTexturej
	.type	_Z14qgxBindTexturej, @function
_Z14qgxBindTexturej:
.LFB2610:
	.loc 3 470 0
	.cfi_startproc
.LVL436:
	.loc 3 473 0
	lis 9,.LANCHOR0@ha
	la 9,.LANCHOR0@l(9)
	.loc 3 474 0
	lwz 0,108(9)
	.loc 3 473 0
	stw 3,104(9)
	.loc 3 474 0
	slwi 0,0,2
	add 11,9,0
	stw 3,1680(11)
	.loc 3 477 0
	.loc 3 475 0
	b _Z20qgxLoadCurrentTexMapv
.LVL437:
	.cfi_endproc
.LFE2610:
	.size	_Z14qgxBindTexturej, .-_Z14qgxBindTexturej
	.align 2
	.globl _Z15qgxActiveTexMapj
	.type	_Z15qgxActiveTexMapj, @function
_Z15qgxActiveTexMapj:
.LFB2611:
	.loc 3 482 0
	.cfi_startproc
.LVL438:
	stwu 1,-16(1)
.LCFI46:
	.cfi_def_cfa_offset 16
	mflr 0
	stw 31,12(1)
	mr 31,3
	.cfi_offset 31, -4
	.cfi_register 65, 0
	.loc 3 483 0
	lis 3,.LC31@ha
.LVL439:
	mr 4,31
	la 3,.LC31@l(3)
	.loc 3 482 0
	stw 0,20(1)
	.loc 3 483 0
	.cfi_offset 65, 4
	crxor 6,6,6
	bl _Z10Sys_PrintfPKcz
	.loc 3 484 0
	cmplwi 7,31,7
	ble+ 7,.L300
	.loc 3 485 0
	lis 3,.LC32@ha
	la 3,.LC32@l(3)
	crxor 6,6,6
	bl _Z9Sys_ErrorPKcz
.L300:
	.loc 3 488 0
	lwz 0,20(1)
	.loc 3 487 0
	lis 9,.LANCHOR0+108@ha
	stw 31,.LANCHOR0+108@l(9)
	.loc 3 488 0
	mtlr 0
	lwz 31,12(1)
.LVL440:
	addi 1,1,16
.LCFI47:
	.cfi_def_cfa_offset 0
	.cfi_restore 31
	blr
	.cfi_endproc
.LFE2611:
	.size	_Z15qgxActiveTexMapj, .-_Z15qgxActiveTexMapj
	.weak	_ZTS9idWinding
	.section	.rodata._ZTS9idWinding,"aG",@progbits,_ZTS9idWinding,comdat
	.align 2
	.type	_ZTS9idWinding, @object
	.size	_ZTS9idWinding, 11
_ZTS9idWinding:
	.string	"9idWinding"
	.weak	_ZTI9idWinding
	.section	.sdata._ZTI9idWinding,"awG",@progbits,_ZTI9idWinding,comdat
	.align 2
	.type	_ZTI9idWinding, @object
	.size	_ZTI9idWinding, 8
_ZTI9idWinding:
	.long	_ZTVN10__cxxabiv117__class_type_infoE+8
	.long	_ZTS9idWinding
	.weak	_ZTS14idFixedWinding
	.section	.rodata._ZTS14idFixedWinding,"aG",@progbits,_ZTS14idFixedWinding,comdat
	.align 2
	.type	_ZTS14idFixedWinding, @object
	.size	_ZTS14idFixedWinding, 17
_ZTS14idFixedWinding:
	.string	"14idFixedWinding"
	.weak	_ZTI14idFixedWinding
	.section	.rodata._ZTI14idFixedWinding,"aG",@progbits,_ZTI14idFixedWinding,comdat
	.align 2
	.type	_ZTI14idFixedWinding, @object
	.size	_ZTI14idFixedWinding, 12
_ZTI14idFixedWinding:
	.long	_ZTVN10__cxxabiv120__si_class_type_infoE+8
	.long	_ZTS14idFixedWinding
	.long	_ZTI9idWinding
	.weak	_ZTV9idWinding
	.section	.rodata._ZTV9idWinding,"aG",@progbits,_ZTV9idWinding,comdat
	.align 3
	.type	_ZTV9idWinding, @object
	.size	_ZTV9idWinding, 24
_ZTV9idWinding:
	.long	0
	.long	_ZTI9idWinding
	.long	_ZN9idWindingD1Ev
	.long	_ZN9idWindingD0Ev
	.long	_ZN9idWinding5ClearEv
	.long	_ZN9idWinding10ReAllocateEib
	.weak	_ZTV14idFixedWinding
	.section	.rodata._ZTV14idFixedWinding,"aG",@progbits,_ZTV14idFixedWinding,comdat
	.align 3
	.type	_ZTV14idFixedWinding, @object
	.size	_ZTV14idFixedWinding, 24
_ZTV14idFixedWinding:
	.long	0
	.long	_ZTI14idFixedWinding
	.long	_ZN14idFixedWindingD1Ev
	.long	_ZN14idFixedWindingD0Ev
	.long	_ZN14idFixedWinding5ClearEv
	.long	_ZN14idFixedWinding10ReAllocateEib
	.weak	_ZN9idWindingD1Ev
	.set	_ZN9idWindingD1Ev,_ZN9idWindingD2Ev
	.weak	_ZN14idFixedWindingD1Ev
	.set	_ZN14idFixedWindingD1Ev,_ZN14idFixedWindingD2Ev
	.section	.rodata
	.align 2
	.set	.LANCHOR2,. + 0
	.type	_ZZL16stb__RefineBlockPhPtS0_jE5w1Tab, @object
	.size	_ZZL16stb__RefineBlockPhPtS0_jE5w1Tab, 16
_ZZL16stb__RefineBlockPhPtS0_jE5w1Tab:
	.long	3
	.long	0
	.long	2
	.long	1
	.type	_ZZL16stb__RefineBlockPhPtS0_jE5prods, @object
	.size	_ZZL16stb__RefineBlockPhPtS0_jE5prods, 16
_ZZL16stb__RefineBlockPhPtS0_jE5prods:
	.long	589824
	.long	2304
	.long	262402
	.long	66562
	.section	.rodata.cst4,"aM",@progbits,4
	.align 2
.LC9:
	.4byte	1501560836
.LC10:
	.4byte	1132396544
.LC12:
	.4byte	1082130432
.LC14:
	.4byte	1140850688
.LC15:
	.4byte	1052424891
.LC16:
	.4byte	1115422720
.LC17:
	.4byte	1106771968
.LC18:
	.4byte	1056964608
.LC25:
	.4byte	.LANCHOR0+1716
.LC26:
	.4byte	.LC24
	.section	".data"
	.align 2
	.set	.LANCHOR1,. + 0
	.type	_ZZ22stb_compress_dxt_blockPhPKhiiE4init, @object
	.size	_ZZ22stb_compress_dxt_blockPhPKhiiE4init, 4
_ZZ22stb_compress_dxt_blockPhPKhiiE4init:
	.long	1
	.section	.rodata.str1.4,"aMS",@progbits,1
	.align 2
.LC0:
	.string	"Unsupported GL Wrap S mode %04X\r\n"
	.zero	2
.LC1:
	.string	"Unsupported GL Filter Min mode GL_NEAREST_MIPMAP_NEAREST\r\n"
	.zero	1
.LC2:
	.string	"Unsupported GL Filter Min mode GL_NEAREST_MIPMAP_LINEAR\r\n"
	.zero	2
.LC3:
	.string	"Unsupported GL Filter Min mode GL_LINEAR_MIPMAP_NEAREST\r\n"
	.zero	2
.LC4:
	.string	"Unsupported GL Filter Min mode %04X\r\n"
	.zero	2
.LC5:
	.string	"New GL input texformat needed %4X\r\n"
.LC6:
	.string	">>> qgx_InitTextures()\r\n"
	.zero	3
.LC7:
	.string	">>> gxtexdescs %p size %d element size %d\r\n"
.LC19:
	.string	"Texture not bound: %d\r\n"
.LC20:
	.string	"Unsupported GL FMT: GL_COLOR_INDEX8_EXT\r\n"
	.zero	2
.LC21:
	.string	"Unsupported GL FMT: %d\r\n"
	.zero	3
.LC22:
	.string	">>> void qgxTexImage2D(%d, %04X, %d, %d, %04X, %p) size %d using texdesc %p %d gxfmt %d\r\n"
	.zero	2
.LC23:
	.string	"qgx_getTexConvParms Tex format not supported yet!"
	.zero	2
.LC24:
	.string	"qgx_TexConvHandlePixel: Unsupported texture format %d\r\n"
.LC27:
	.string	">>> qgxSetGLTexParam() %02X %02X %02X %02X %02X\r\n"
	.zero	2
.LC28:
	.string	"Allocated texture desc before initialization\r\n"
	.zero	1
.LC29:
	.string	"Out of gx_texture descriptors: > %d\r\n"
	.zero	2
.LC30:
	.string	">>> qgxDeleteTexture() %d %d\r\n"
	.zero	1
.LC31:
	.string	">>> void qgxActiveTexMap %d\r\n"
	.zero	2
.LC32:
	.string	"Texmap cannot be bigger than 7\r\n"
	.section	".bss"
	.align 2
	.set	.LANCHOR0,. + 0
	.type	_ZL12stb__Expand5, @object
	.size	_ZL12stb__Expand5, 32
_ZL12stb__Expand5:
	.zero	32
	.type	_ZL12stb__Expand6, @object
	.size	_ZL12stb__Expand6, 64
_ZL12stb__Expand6:
	.zero	64
	.type	_ZL10gxtexdescs, @object
	.size	_ZL10gxtexdescs, 4
_ZL10gxtexdescs:
	.zero	4
	.type	_ZL13gxtexsrchfree, @object
	.size	_ZL13gxtexsrchfree, 4
_ZL13gxtexsrchfree:
	.zero	4
	.type	_ZL13gxcurrtexdesc, @object
	.size	_ZL13gxcurrtexdesc, 4
_ZL13gxcurrtexdesc:
	.zero	4
	.type	_ZL12gxcurrtexmap, @object
	.size	_ZL12gxcurrtexmap, 4
_ZL12gxcurrtexmap:
	.zero	4
	.type	_ZL14stb__QuantGTab, @object
	.size	_ZL14stb__QuantGTab, 272
_ZL14stb__QuantGTab:
	.zero	272
	.type	_ZL15stb__QuantRBTab, @object
	.size	_ZL15stb__QuantRBTab, 272
_ZL15stb__QuantRBTab:
	.zero	272
	.type	_ZL12stb__OMatch5, @object
	.size	_ZL12stb__OMatch5, 512
_ZL12stb__OMatch5:
	.zero	512
	.type	_ZL12stb__OMatch6, @object
	.size	_ZL12stb__OMatch6, 512
_ZL12stb__OMatch6:
	.zero	512
	.type	_ZL9gxtexmaps, @object
	.size	_ZL9gxtexmaps, 32
_ZL9gxtexmaps:
	.zero	32
	.type	_ZL5color, @object
	.size	_ZL5color, 8
_ZL5color:
	.zero	8
	.section	".text"
.Letext0:
	.file 4 "c:\\utils\\devkitpro\\devkitppc\\bin\\../lib/gcc/powerpc-eabi/4.6.3/../../../../powerpc-eabi/include/stdint.h"
	.file 5 "c:/utils/devkitPro/libogc/include/gctypes.h"
	.file 6 "c:/utils/devkitPro/libogc/include/ogc/gx.h"
	.file 7 "c:\\utils\\devkitpro\\devkitppc\\bin\\../lib/gcc/powerpc-eabi/4.6.3/include/stddef.h"
	.file 8 "<built-in>"
	.file 9 "c:\\utils\\devkitpro\\devkitppc\\bin\\../lib/gcc/powerpc-eabi/4.6.3/../../../../powerpc-eabi/include/sys/types.h"
	.file 10 "d:/Data/Nintendo/DoomGX/src/sys/ogc/../../idlib/../sys/sys_public.h"
	.file 11 "d:/Data/Nintendo/DoomGX/src/sys/ogc/../../idlib/../framework/Common.h"
	.file 12 "d:/Data/Nintendo/DoomGX/src/sys/ogc/../../idlib/../framework/CVarSystem.h"
	.file 13 "d:/Data/Nintendo/DoomGX/src/sys/ogc/../../idlib/../framework/FileSystem.h"
	.file 14 "d:/Data/Nintendo/DoomGX/src/sys/ogc/../../idlib/../idlib/Lib.h"
	.file 15 "d:/Data/Nintendo/DoomGX/src/sys/ogc/../../idlib/../idlib/CmdArgs.h"
	.file 16 "d:/Data/Nintendo/DoomGX/src/sys/ogc/../../idlib/../idlib/math/Random.h"
	.file 17 "d:/Data/Nintendo/DoomGX/src/sys/ogc/../../idlib/../idlib/math/Vector.h"
	.file 18 "d:/Data/Nintendo/DoomGX/src/sys/ogc/../../idlib/../idlib/math/Angles.h"
	.file 19 "d:/Data/Nintendo/DoomGX/src/sys/ogc/../../idlib/../idlib/math/Matrix.h"
	.file 20 "d:/Data/Nintendo/DoomGX/src/sys/ogc/../../idlib/../idlib/math/Quat.h"
	.file 21 "d:/Data/Nintendo/DoomGX/src/sys/ogc/../../idlib/../idlib/math/Rotation.h"
	.file 22 "d:/Data/Nintendo/DoomGX/src/sys/ogc/../../idlib/../idlib/math/Plane.h"
	.file 23 "d:/Data/Nintendo/DoomGX/src/sys/ogc/../../idlib/../idlib/containers/List.h"
	.file 24 "d:/Data/Nintendo/DoomGX/src/sys/ogc/../../idlib/../idlib/math/Ode.h"
	.file 25 "d:/Data/Nintendo/DoomGX/src/sys/ogc/../../idlib/../idlib/bv/Sphere.h"
	.file 26 "d:/Data/Nintendo/DoomGX/src/sys/ogc/../../idlib/../idlib/bv/Bounds.h"
	.file 27 "d:/Data/Nintendo/DoomGX/src/sys/ogc/../../idlib/../idlib/bv/Box.h"
	.file 28 "d:/Data/Nintendo/DoomGX/src/sys/ogc/../../idlib/../idlib/bv/Frustum.h"
	.file 29 "d:/Data/Nintendo/DoomGX/src/sys/ogc/../../idlib/../idlib/geometry/DrawVert.h"
	.file 30 "d:/Data/Nintendo/DoomGX/src/sys/ogc/../../idlib/../idlib/geometry/JointTransform.h"
	.file 31 "d:/Data/Nintendo/DoomGX/src/sys/ogc/../../idlib/../idlib/geometry/Surface.h"
	.file 32 "d:/Data/Nintendo/DoomGX/src/sys/ogc/../../idlib/../idlib/geometry/TraceModel.h"
	.file 33 "d:/Data/Nintendo/DoomGX/src/sys/ogc/../../idlib/../idlib/Str.h"
	.file 34 "d:/Data/Nintendo/DoomGX/src/sys/ogc/../../idlib/../idlib/Token.h"
	.file 35 "d:/Data/Nintendo/DoomGX/src/sys/ogc/../../idlib/../idlib/Lexer.h"
	.file 36 "d:/Data/Nintendo/DoomGX/src/sys/ogc/../../idlib/../framework/File.h"
	.file 37 "d:/Data/Nintendo/DoomGX/src/sys/ogc/../../idlib/../idlib/Parser.h"
	.file 38 "d:/Data/Nintendo/DoomGX/src/sys/ogc/../../idlib/../idlib/containers/HashIndex.h"
	.file 39 "d:/Data/Nintendo/DoomGX/src/sys/ogc/../../idlib/../idlib/containers/StrList.h"
	.file 40 "d:/Data/Nintendo/DoomGX/src/sys/ogc/../../idlib/../idlib/containers/StrPool.h"
	.file 41 "d:/Data/Nintendo/DoomGX/src/sys/ogc/../../idlib/../idlib/containers/PlaneSet.h"
	.file 42 "d:/Data/Nintendo/DoomGX/src/sys/ogc/../../idlib/../idlib/Dict.h"
	.file 43 "d:/Data/Nintendo/DoomGX/src/sys/ogc/../../idlib/../idlib/LangDict.h"
	.file 44 "d:/Data/Nintendo/DoomGX/src/sys/ogc/../../idlib/../idlib/BitMsg.h"
	.file 45 "d:/Data/Nintendo/DoomGX/src/sys/ogc/../../idlib/../idlib/MapFile.h"
	.file 46 "d:/Data/Nintendo/DoomGX/src/sys/ogc/../../idlib/../framework/CmdSystem.h"
	.file 47 "d:/Data/Nintendo/DoomGX/src/sys/ogc/../../idlib/../framework/UsercmdGen.h"
	.file 48 "d:/Data/Nintendo/DoomGX/src/sys/ogc/../../idlib/../framework/DeclManager.h"
	.file 49 "d:/Data/Nintendo/DoomGX/src/sys/ogc/../../idlib/../framework/DeclParticle.h"
	.file 50 "d:/Data/Nintendo/DoomGX/src/sys/ogc/../../idlib/../renderer/RenderWorld.h"
	.file 51 "d:/Data/Nintendo/DoomGX/src/sys/ogc/../../idlib/../renderer/Cinematic.h"
	.file 52 "d:/Data/Nintendo/DoomGX/src/sys/ogc/../../idlib/../renderer/Model.h"
	.file 53 "d:/Data/Nintendo/DoomGX/src/sys/ogc/../../idlib/../renderer/RenderSystem.h"
	.file 54 "d:/Data/Nintendo/DoomGX/src/sys/ogc/../../idlib/../sound/sound.h"
	.file 55 "d:/Data/Nintendo/DoomGX/src/sys/ogc/../../idlib/../ui/UserInterface.h"
	.file 56 "d:/Data/Nintendo/DoomGX/src/sys/ogc/../../idlib/../cm/CollisionModel.h"
	.file 57 "d:/Data/Nintendo/DoomGX/src/sys/ogc/../../idlib/../tools/compilers/aas/AASFile.h"
	.file 58 "d:/Data/Nintendo/DoomGX/src/sys/ogc/../../idlib/../game/Game.h"
	.file 59 "d:/Data/Nintendo/DoomGX/src/sys/ogc/../../idlib/../framework/async/NetworkSystem.h"
	.file 60 "d:/Data/Nintendo/DoomGX/src/sys/ogc/../../idlib/../renderer/ModelManager.h"
	.file 61 "d:/Data/Nintendo/DoomGX/src/sys/ogc/../../idlib/../tools/compilers/aas/AASFileManager.h"
	.file 62 "d:/Data/Nintendo/DoomGX/src/sys/ogc/../../idlib/../framework/Session.h"
	.file 63 "d:/Data/Nintendo/DoomGX/src/sys/ogc/../../idlib/../ui/ListGUI.h"
	.file 64 "d:/Data/Nintendo/DoomGX/src/sys/ogc/../../idlib/../framework/Console.h"
	.file 65 "d:/Data/Nintendo/DoomGX/src/sys/ogc/../../idlib/../idlib/math/Curve.h"
	.file 66 "d:/Data/Nintendo/DoomGX/src/sys/ogc/../../idlib/../idlib/math/Simd.h"
	.file 67 "d:/Data/Nintendo/DoomGX/src/sys/ogc/../../idlib/../framework/BuildVersion.h"
	.file 68 "d:/Data/Nintendo/DoomGX/src/sys/ogc/../../idlib/precompiled.h"
	.file 69 "d:/Data/Nintendo/DoomGX/src/sys/ogc/../../idlib/../renderer/Material.h"
	.file 70 "d:/Data/Nintendo/DoomGX/src/sys/ogc/../../idlib/../framework/EventLoop.h"
	.file 71 "d:/Data/Nintendo/DoomGX/src/sys/ogc/../../idlib/../framework/EditField.h"
	.file 72 "d:/Data/Nintendo/DoomGX/src/sys/ogc/../../idlib/../framework/async/AsyncNetwork.h"
	.file 73 "d:/Data/Nintendo/DoomGX/src/sys/ogc/../../idlib/../framework/async/AsyncServer.h"