	.file	"gx_vertex.cpp"
	.section	".text"
.Ltext0:
	.section	.text._ZN14idFixedWinding5ClearEv,"axG",@progbits,_ZN14idFixedWinding5ClearEv,comdat
	.align 2
	.weak	_ZN14idFixedWinding5ClearEv
	.type	_ZN14idFixedWinding5ClearEv, @function
_ZN14idFixedWinding5ClearEv:
.LFB1540:
	.file 1 "d:/Data/Nintendo/DoomGX/src/sys/ogc/../../idlib/../idlib/geometry/Winding.h"
	.loc 1 398 0
	.cfi_startproc
.LVL0:
	.loc 1 399 0
	li 0,0
	.loc 1 400 0
	.loc 1 399 0
	stw 0,4(3)
	.loc 1 400 0
	blr
	.cfi_endproc
.LFE1540:
	.size	_ZN14idFixedWinding5ClearEv, .-_ZN14idFixedWinding5ClearEv
	.section	.text._ZN9idWinding5ClearEv,"axG",@progbits,_ZN9idWinding5ClearEv,comdat
	.align 2
	.weak	_ZN9idWinding5ClearEv
	.type	_ZN9idWinding5ClearEv, @function
_ZN9idWinding5ClearEv:
.LFB1511:
	.loc 1 249 0
	.cfi_startproc
.LVL1:
	mflr 0
	stwu 1,-16(1)
.LCFI0:
	.cfi_def_cfa_offset 16
	.cfi_register 65, 0
	stw 31,12(1)
	mr 31,3
	.cfi_offset 31, -4
	stw 0,20(1)
	.loc 1 250 0
	li 0,0
	.cfi_offset 65, 4
	.loc 1 251 0
	lwz 3,8(3)
.LVL2:
	.loc 1 250 0
	stw 0,4(31)
	.loc 1 251 0
	cmpwi 7,3,0
	beq- 7,.L3
	.loc 1 251 0 is_stmt 0 discriminator 1
	bl _ZdaPv
.L3:
	.loc 1 252 0 is_stmt 1
	li 0,0
	stw 0,8(31)
	.loc 1 253 0
	lwz 0,20(1)
	lwz 31,12(1)
.LVL3:
	mtlr 0
	addi 1,1,16
.LCFI1:
	.cfi_def_cfa_offset 0
	.cfi_restore 31
	blr
	.cfi_endproc
.LFE1511:
	.size	_ZN9idWinding5ClearEv, .-_ZN9idWinding5ClearEv
	.section	.text._ZN9idWindingD2Ev,"axG",@progbits,_ZN9idWindingD5Ev,comdat
	.align 2
	.weak	_ZN9idWindingD2Ev
	.type	_ZN9idWindingD2Ev, @function
_ZN9idWindingD2Ev:
.LFB1499:
	.loc 1 183 0
	.cfi_startproc
.LVL4:
	mflr 0
	stwu 1,-16(1)
.LCFI2:
	.cfi_def_cfa_offset 16
	.cfi_register 65, 0
.LBB349:
	lis 9,_ZTV9idWinding+8@ha
.LBE349:
	stw 31,12(1)
	mr 31,3
	.cfi_offset 31, -4
	stw 0,20(1)
.LBB350:
	.loc 1 183 0
	la 0,_ZTV9idWinding+8@l(9)
	.cfi_offset 65, 4
	.loc 1 184 0
	lwz 3,8(3)
.LVL5:
	.loc 1 183 0
	stw 0,0(31)
	.loc 1 184 0
	cmpwi 7,3,0
	beq- 7,.L6
	.loc 1 184 0 is_stmt 0 discriminator 1
	bl _ZdaPv
.L6:
	.loc 1 185 0 is_stmt 1
	li 0,0
	stw 0,8(31)
.LBE350:
	.loc 1 186 0
	lwz 0,20(1)
	lwz 31,12(1)
.LVL6:
	mtlr 0
	addi 1,1,16
.LCFI3:
	.cfi_def_cfa_offset 0
	.cfi_restore 31
	blr
	.cfi_endproc
.LFE1499:
	.size	_ZN9idWindingD2Ev, .-_ZN9idWindingD2Ev
	.section	.text._ZN14idFixedWindingD2Ev,"axG",@progbits,_ZN14idFixedWindingD5Ev,comdat
	.align 2
	.weak	_ZN14idFixedWindingD2Ev
	.type	_ZN14idFixedWindingD2Ev, @function
_ZN14idFixedWindingD2Ev:
.LFB1536:
	.loc 1 380 0
	.cfi_startproc
.LVL7:
.LBB356:
	.loc 1 381 0
	li 0,0
.LBB357:
.LBB358:
.LBB359:
	.loc 1 183 0
	lis 9,_ZTV9idWinding+8@ha
.LBE359:
.LBE358:
.LBE357:
	.loc 1 381 0
	stw 0,8(3)
.LVL8:
.LBB362:
.LBB361:
.LBB360:
	.loc 1 183 0
	la 0,_ZTV9idWinding+8@l(9)
	stw 0,0(3)
.LBE360:
.LBE361:
.LBE362:
.LBE356:
	.loc 1 382 0
	blr
	.cfi_endproc
.LFE1536:
	.size	_ZN14idFixedWindingD2Ev, .-_ZN14idFixedWindingD2Ev
	.section	.text._ZN9idWindingD0Ev,"axG",@progbits,_ZN9idWindingD5Ev,comdat
	.align 2
	.weak	_ZN9idWindingD0Ev
	.type	_ZN9idWindingD0Ev, @function
_ZN9idWindingD0Ev:
.LFB1501:
	.loc 1 183 0
	.cfi_startproc
.LVL9:
	mflr 0
	stwu 1,-16(1)
.LCFI4:
	.cfi_def_cfa_offset 16
	.cfi_register 65, 0
.LBB366:
.LBB367:
.LBB368:
	lis 9,_ZTV9idWinding+8@ha
.LBE368:
.LBE367:
.LBE366:
	stw 31,12(1)
	mr 31,3
	.cfi_offset 31, -4
.LVL10:
	stw 0,20(1)
.LBB373:
.LBB371:
.LBB369:
	.loc 1 183 0
	la 0,_ZTV9idWinding+8@l(9)
	.cfi_offset 65, 4
	.loc 1 184 0
	lwz 3,8(3)
.LVL11:
	.loc 1 183 0
	stw 0,0(31)
	.loc 1 184 0
	cmpwi 7,3,0
	beq- 7,.L12
	bl _ZdaPv
.L12:
	.loc 1 185 0
	li 0,0
.LBE369:
.LBE371:
.LBE373:
	.loc 1 186 0
	mr 3,31
.LBB374:
.LBB372:
.LBB370:
	.loc 1 185 0
	stw 0,8(31)
.LBE370:
.LBE372:
.LBE374:
	.loc 1 186 0
	bl _ZdlPv
	lwz 0,20(1)
	lwz 31,12(1)
.LVL12:
	mtlr 0
	addi 1,1,16
.LCFI5:
	.cfi_def_cfa_offset 0
	.cfi_restore 31
	blr
	.cfi_endproc
.LFE1501:
	.size	_ZN9idWindingD0Ev, .-_ZN9idWindingD0Ev
	.section	.text._ZN14idFixedWindingD0Ev,"axG",@progbits,_ZN14idFixedWindingD5Ev,comdat
	.align 2
	.weak	_ZN14idFixedWindingD0Ev
	.type	_ZN14idFixedWindingD0Ev, @function
_ZN14idFixedWindingD0Ev:
.LFB1538:
	.loc 1 380 0
	.cfi_startproc
.LVL13:
	mflr 0
	stwu 1,-8(1)
.LCFI6:
	.cfi_def_cfa_offset 8
	.cfi_register 65, 0
.LBB381:
.LBB382:
.LBB383:
.LBB384:
.LBB385:
.LBB386:
	.loc 1 183 0
	lis 11,_ZTV9idWinding+8@ha
.LBE386:
.LBE385:
.LBE384:
.LBE383:
.LBE382:
.LBE381:
	.loc 1 380 0
	stw 0,12(1)
.LBB392:
.LBB391:
.LBB390:
	.loc 1 381 0
	li 0,0
	.cfi_offset 65, 4
	stw 0,8(3)
.LVL14:
.LBB389:
.LBB388:
.LBB387:
	.loc 1 183 0
	la 0,_ZTV9idWinding+8@l(11)
	stw 0,0(3)
.LBE387:
.LBE388:
.LBE389:
.LBE390:
.LBE391:
.LBE392:
	.loc 1 382 0
	bl _ZdlPv
.LVL15:
	lwz 0,12(1)
	addi 1,1,8
.LCFI7:
	.cfi_def_cfa_offset 0
	mtlr 0
	blr
	.cfi_endproc
.LFE1538:
	.size	_ZN14idFixedWindingD0Ev, .-_ZN14idFixedWindingD0Ev
	.weak	_ZTS9idWinding
	.section	.rodata._ZTS9idWinding,"aG",@progbits,_ZTS9idWinding,comdat
	.align 2
	.type	_ZTS9idWinding, @object
	.size	_ZTS9idWinding, 11
_ZTS9idWinding:
	.string	"9idWinding"
	.weak	_ZTI9idWinding
	.section	.sdata._ZTI9idWinding,"awG",@progbits,_ZTI9idWinding,comdat
	.align 2
	.type	_ZTI9idWinding, @object
	.size	_ZTI9idWinding, 8
_ZTI9idWinding:
	.long	_ZTVN10__cxxabiv117__class_type_infoE+8
	.long	_ZTS9idWinding
	.weak	_ZTS14idFixedWinding
	.section	.rodata._ZTS14idFixedWinding,"aG",@progbits,_ZTS14idFixedWinding,comdat
	.align 2
	.type	_ZTS14idFixedWinding, @object
	.size	_ZTS14idFixedWinding, 17
_ZTS14idFixedWinding:
	.string	"14idFixedWinding"
	.weak	_ZTI14idFixedWinding
	.section	.rodata._ZTI14idFixedWinding,"aG",@progbits,_ZTI14idFixedWinding,comdat
	.align 2
	.type	_ZTI14idFixedWinding, @object
	.size	_ZTI14idFixedWinding, 12
_ZTI14idFixedWinding:
	.long	_ZTVN10__cxxabiv120__si_class_type_infoE+8
	.long	_ZTS14idFixedWinding
	.long	_ZTI9idWinding
	.weak	_ZTV9idWinding
	.section	.rodata._ZTV9idWinding,"aG",@progbits,_ZTV9idWinding,comdat
	.align 3
	.type	_ZTV9idWinding, @object
	.size	_ZTV9idWinding, 24
_ZTV9idWinding:
	.long	0
	.long	_ZTI9idWinding
	.long	_ZN9idWindingD1Ev
	.long	_ZN9idWindingD0Ev
	.long	_ZN9idWinding5ClearEv
	.long	_ZN9idWinding10ReAllocateEib
	.weak	_ZTV14idFixedWinding
	.section	.rodata._ZTV14idFixedWinding,"aG",@progbits,_ZTV14idFixedWinding,comdat
	.align 3
	.type	_ZTV14idFixedWinding, @object
	.size	_ZTV14idFixedWinding, 24
_ZTV14idFixedWinding:
	.long	0
	.long	_ZTI14idFixedWinding
	.long	_ZN14idFixedWindingD1Ev
	.long	_ZN14idFixedWindingD0Ev
	.long	_ZN14idFixedWinding5ClearEv
	.long	_ZN14idFixedWinding10ReAllocateEib
	.weak	_ZN9idWindingD1Ev
	.set	_ZN9idWindingD1Ev,_ZN9idWindingD2Ev
	.weak	_ZN14idFixedWindingD1Ev
	.set	_ZN14idFixedWindingD1Ev,_ZN14idFixedWindingD2Ev
	.section	".text"
.Letext0:
	.file 2 "c:\\utils\\devkitpro\\devkitppc\\bin\\../lib/gcc/powerpc-eabi/4.6.3/../../../../powerpc-eabi/include/stdint.h"
	.file 3 "c:/utils/devkitPro/libogc/include/gctypes.h"
	.file 4 "c:/utils/devkitPro/libogc/include/ogc/gx.h"
	.file 5 "c:\\utils\\devkitpro\\devkitppc\\bin\\../lib/gcc/powerpc-eabi/4.6.3/include/stddef.h"
	.file 6 "<built-in>"
	.file 7 "c:\\utils\\devkitpro\\devkitppc\\bin\\../lib/gcc/powerpc-eabi/4.6.3/../../../../powerpc-eabi/include/sys/types.h"
	.file 8 "d:/Data/Nintendo/DoomGX/src/sys/ogc/../../idlib/../sys/sys_public.h"
	.file 9 "d:/Data/Nintendo/DoomGX/src/sys/ogc/../../idlib/../framework/Common.h"
	.file 10 "d:/Data/Nintendo/DoomGX/src/sys/ogc/../../idlib/../framework/CVarSystem.h"
	.file 11 "d:/Data/Nintendo/DoomGX/src/sys/ogc/../../idlib/../framework/FileSystem.h"
	.file 12 "d:/Data/Nintendo/DoomGX/src/sys/ogc/../../idlib/../idlib/Lib.h"
	.file 13 "d:/Data/Nintendo/DoomGX/src/sys/ogc/../../idlib/../idlib/CmdArgs.h"
	.file 14 "d:/Data/Nintendo/DoomGX/src/sys/ogc/../../idlib/../idlib/math/Random.h"
	.file 15 "d:/Data/Nintendo/DoomGX/src/sys/ogc/../../idlib/../idlib/math/Vector.h"
	.file 16 "d:/Data/Nintendo/DoomGX/src/sys/ogc/../../idlib/../idlib/math/Angles.h"
	.file 17 "d:/Data/Nintendo/DoomGX/src/sys/ogc/../../idlib/../idlib/math/Matrix.h"
	.file 18 "d:/Data/Nintendo/DoomGX/src/sys/ogc/../../idlib/../idlib/math/Quat.h"
	.file 19 "d:/Data/Nintendo/DoomGX/src/sys/ogc/../../idlib/../idlib/math/Rotation.h"
	.file 20 "d:/Data/Nintendo/DoomGX/src/sys/ogc/../../idlib/../idlib/math/Plane.h"
	.file 21 "d:/Data/Nintendo/DoomGX/src/sys/ogc/../../idlib/../idlib/containers/List.h"
	.file 22 "d:/Data/Nintendo/DoomGX/src/sys/ogc/../../idlib/../idlib/math/Ode.h"
	.file 23 "d:/Data/Nintendo/DoomGX/src/sys/ogc/../../idlib/../idlib/bv/Sphere.h"
	.file 24 "d:/Data/Nintendo/DoomGX/src/sys/ogc/../../idlib/../idlib/bv/Bounds.h"
	.file 25 "d:/Data/Nintendo/DoomGX/src/sys/ogc/../../idlib/../idlib/bv/Box.h"
	.file 26 "d:/Data/Nintendo/DoomGX/src/sys/ogc/../../idlib/../idlib/bv/Frustum.h"
	.file 27 "d:/Data/Nintendo/DoomGX/src/sys/ogc/../../idlib/../idlib/geometry/DrawVert.h"
	.file 28 "d:/Data/Nintendo/DoomGX/src/sys/ogc/../../idlib/../idlib/geometry/JointTransform.h"
	.file 29 "d:/Data/Nintendo/DoomGX/src/sys/ogc/../../idlib/../idlib/geometry/Surface.h"
	.file 30 "d:/Data/Nintendo/DoomGX/src/sys/ogc/../../idlib/../idlib/geometry/TraceModel.h"
	.file 31 "d:/Data/Nintendo/DoomGX/src/sys/ogc/../../idlib/../idlib/Str.h"
	.file 32 "d:/Data/Nintendo/DoomGX/src/sys/ogc/../../idlib/../idlib/Token.h"
	.file 33 "d:/Data/Nintendo/DoomGX/src/sys/ogc/../../idlib/../idlib/Lexer.h"
	.file 34 "d:/Data/Nintendo/DoomGX/src/sys/ogc/../../idlib/../framework/File.h"
	.file 35 "d:/Data/Nintendo/DoomGX/src/sys/ogc/../../idlib/../idlib/Parser.h"
	.file 36 "d:/Data/Nintendo/DoomGX/src/sys/ogc/../../idlib/../idlib/containers/HashIndex.h"
	.file 37 "d:/Data/Nintendo/DoomGX/src/sys/ogc/../../idlib/../idlib/containers/StrList.h"
	.file 38 "d:/Data/Nintendo/DoomGX/src/sys/ogc/../../idlib/../idlib/containers/StrPool.h"
	.file 39 "d:/Data/Nintendo/DoomGX/src/sys/ogc/../../idlib/../idlib/containers/PlaneSet.h"
	.file 40 "d:/Data/Nintendo/DoomGX/src/sys/ogc/../../idlib/../idlib/Dict.h"
	.file 41 "d:/Data/Nintendo/DoomGX/src/sys/ogc/../../idlib/../idlib/LangDict.h"
	.file 42 "d:/Data/Nintendo/DoomGX/src/sys/ogc/../../idlib/../idlib/BitMsg.h"
	.file 43 "d:/Data/Nintendo/DoomGX/src/sys/ogc/../../idlib/../idlib/MapFile.h"
	.file 44 "d:/Data/Nintendo/DoomGX/src/sys/ogc/../../idlib/../framework/CmdSystem.h"
	.file 45 "d:/Data/Nintendo/DoomGX/src/sys/ogc/../../idlib/../framework/UsercmdGen.h"
	.file 46 "d:/Data/Nintendo/DoomGX/src/sys/ogc/../../idlib/../framework/DeclManager.h"
	.file 47 "d:/Data/Nintendo/DoomGX/src/sys/ogc/../../idlib/../framework/DeclParticle.h"
	.file 48 "d:/Data/Nintendo/DoomGX/src/sys/ogc/../../idlib/../renderer/RenderWorld.h"
	.file 49 "d:/Data/Nintendo/DoomGX/src/sys/ogc/../../idlib/../renderer/Cinematic.h"
	.file 50 "d:/Data/Nintendo/DoomGX/src/sys/ogc/../../idlib/../renderer/Model.h"
	.file 51 "d:/Data/Nintendo/DoomGX/src/sys/ogc/../../idlib/../renderer/RenderSystem.h"
	.file 52 "d:/Data/Nintendo/DoomGX/src/sys/ogc/../../idlib/../sound/sound.h"
	.file 53 "d:/Data/Nintendo/DoomGX/src/sys/ogc/../../idlib/../ui/UserInterface.h"
	.file 54 "d:/Data/Nintendo/DoomGX/src/sys/ogc/../../idlib/../cm/CollisionModel.h"
	.file 55 "d:/Data/Nintendo/DoomGX/src/sys/ogc/../../idlib/../tools/compilers/aas/AASFile.h"
	.file 56 "d:/Data/Nintendo/DoomGX/src/sys/ogc/../../idlib/../game/Game.h"
	.file 57 "d:/Data/Nintendo/DoomGX/src/sys/ogc/../../idlib/../framework/async/NetworkSystem.h"
	.file 58 "d:/Data/Nintendo/DoomGX/src/sys/ogc/../../idlib/../renderer/ModelManager.h"
	.file 59 "d:/Data/Nintendo/DoomGX/src/sys/ogc/../../idlib/../tools/compilers/aas/AASFileManager.h"
	.file 60 "d:/Data/Nintendo/DoomGX/src/sys/ogc/../../idlib/../framework/Session.h"
	.file 61 "d:/Data/Nintendo/DoomGX/src/sys/ogc/../../idlib/../ui/ListGUI.h"
	.file 62 "d:/Data/Nintendo/DoomGX/src/sys/ogc/../../idlib/../framework/Console.h"
	.file 63 "d:/Data/Nintendo/DoomGX/src/sys/ogc/../../idlib/../idlib/math/Curve.h"
	.file 64 "d:/Data/Nintendo/DoomGX/src/sys/ogc/../../idlib/../idlib/math/Simd.h"
	.file 65 "d:/Data/Nintendo/DoomGX/src/sys/ogc/../../idlib/../framework/BuildVersion.h"
	.file 66 "d:/Data/Nintendo/DoomGX/src/sys/ogc/../../idlib/precompiled.h"
	.file 67 "d:/Data/Nintendo/DoomGX/src/sys/ogc/../../idlib/../renderer/Material.h"
	.file 68 "d:/Data/Nintendo/DoomGX/src/sys/ogc/../../idlib/../framework/EventLoop.h"
	.file 69 "d:/Data/Nintendo/DoomGX/src/sys/ogc/../../idlib/../framework/EditField.h"
	.file 70 "d:/Data/Nintendo/DoomGX/src/sys/ogc/../../idlib/../framework/async/AsyncNetwork.h"
	.file 71 "d:/Data/Nintendo/DoomGX/src/sys/ogc/../../idlib/../framework/async/AsyncServer.h"