	.file	"IK.cpp"
	.section	".text"
.Ltext0:
	.section	.text._ZN14idFixedWinding5ClearEv,"axG",@progbits,_ZN14idFixedWinding5ClearEv,comdat
	.align 2
	.weak	_ZN14idFixedWinding5ClearEv
	.type	_ZN14idFixedWinding5ClearEv, @function
_ZN14idFixedWinding5ClearEv:
.LFB1502:
	.file 1 "d:/Data/Nintendo/DoomGX/src/game/../idlib/../idlib/geometry/Winding.h"
	.loc 1 398 0
	.cfi_startproc
.LVL0:
	.loc 1 399 0
	li 0,0
	.loc 1 400 0
	.loc 1 399 0
	stw 0,4(3)
	.loc 1 400 0
	blr
	.cfi_endproc
.LFE1502:
	.size	_ZN14idFixedWinding5ClearEv, .-_ZN14idFixedWinding5ClearEv
	.section	".text"
	.align 2
	.globl _ZN4idIKD2Ev
	.type	_ZN4idIKD2Ev, @function
_ZN4idIKD2Ev:
.LFB2814:
	.file 2 "d:/Data/Nintendo/DoomGX/src/game/IK.cpp"
	.loc 2 65 0
	.cfi_startproc
.LVL1:
.LBB1594:
	.loc 2 65 0
	lis 9,_ZTV4idIK+8@ha
.LBE1594:
	.loc 2 66 0
.LBB1595:
	.loc 2 65 0
	la 0,_ZTV4idIK+8@l(9)
	stw 0,0(3)
.LBE1595:
	.loc 2 66 0
	blr
	.cfi_endproc
.LFE2814:
	.size	_ZN4idIKD2Ev, .-_ZN4idIKD2Ev
	.align 2
	.globl _ZN4idIK8EvaluateEv
	.type	_ZN4idIK8EvaluateEv, @function
_ZN4idIK8EvaluateEv:
.LFB2821:
	.loc 2 169 0
	.cfi_startproc
.LVL2:
	.loc 2 170 0
	blr
	.cfi_endproc
.LFE2821:
	.size	_ZN4idIK8EvaluateEv, .-_ZN4idIK8EvaluateEv
	.align 2
	.globl _ZN4idIK14ClearJointModsEv
	.type	_ZN4idIK14ClearJointModsEv, @function
_ZN4idIK14ClearJointModsEv:
.LFB2822:
	.loc 2 177 0
	.cfi_startproc
.LVL3:
	.loc 2 178 0
	li 0,0
	.loc 2 179 0
	.loc 2 178 0
	stb 0,5(3)
	.loc 2 179 0
	blr
	.cfi_endproc
.LFE2822:
	.size	_ZN4idIK14ClearJointModsEv, .-_ZN4idIK14ClearJointModsEv
	.align 2
	.globl _ZN10idIK_ReachD2Ev
	.type	_ZN10idIK_ReachD2Ev, @function
_ZN10idIK_ReachD2Ev:
.LFB2851:
	.loc 2 886 0
	.cfi_startproc
.LVL4:
.LBB1596:
.LBB1597:
.LBB1598:
.LBB1599:
	.loc 2 65 0
	lis 9,_ZTV4idIK+8@ha
.LBE1599:
.LBE1598:
.LBE1597:
.LBE1596:
	.loc 2 887 0
.LBB1603:
.LBB1602:
.LBB1601:
.LBB1600:
	.loc 2 65 0
	la 0,_ZTV4idIK+8@l(9)
	stw 0,0(3)
.LBE1600:
.LBE1601:
.LBE1602:
.LBE1603:
	.loc 2 887 0
	blr
	.cfi_endproc
.LFE2851:
	.size	_ZN10idIK_ReachD2Ev, .-_ZN10idIK_ReachD2Ev
	.section	.text._ZN9idWinding5ClearEv,"axG",@progbits,_ZN9idWinding5ClearEv,comdat
	.align 2
	.weak	_ZN9idWinding5ClearEv
	.type	_ZN9idWinding5ClearEv, @function
_ZN9idWinding5ClearEv:
.LFB1473:
	.loc 1 249 0
	.cfi_startproc
.LVL5:
	mflr 0
	stwu 1,-16(1)
.LCFI0:
	.cfi_def_cfa_offset 16
	.cfi_register 65, 0
	stw 31,12(1)
	mr 31,3
	.cfi_offset 31, -4
	stw 0,20(1)
	.loc 1 250 0
	li 0,0
	.cfi_offset 65, 4
	.loc 1 251 0
	lwz 3,8(3)
.LVL6:
	.loc 1 250 0
	stw 0,4(31)
	.loc 1 251 0
	cmpwi 7,3,0
	beq- 7,.L10
	.loc 1 251 0 is_stmt 0 discriminator 1
	bl _ZdaPv
.L10:
	.loc 1 252 0 is_stmt 1
	li 0,0
	stw 0,8(31)
	.loc 1 253 0
	lwz 0,20(1)
	lwz 31,12(1)
.LVL7:
	mtlr 0
	addi 1,1,16
.LCFI1:
	.cfi_def_cfa_offset 0
	.cfi_restore 31
	blr
	.cfi_endproc
.LFE1473:
	.size	_ZN9idWinding5ClearEv, .-_ZN9idWinding5ClearEv
	.section	.text._ZN9idWindingD2Ev,"axG",@progbits,_ZN9idWindingD5Ev,comdat
	.align 2
	.weak	_ZN9idWindingD2Ev
	.type	_ZN9idWindingD2Ev, @function
_ZN9idWindingD2Ev:
.LFB1461:
	.loc 1 183 0
	.cfi_startproc
.LVL8:
	mflr 0
	stwu 1,-16(1)
.LCFI2:
	.cfi_def_cfa_offset 16
	.cfi_register 65, 0
.LBB1605:
	lis 9,_ZTV9idWinding+8@ha
.LBE1605:
	stw 31,12(1)
	mr 31,3
	.cfi_offset 31, -4
	stw 0,20(1)
.LBB1606:
	.loc 1 183 0
	la 0,_ZTV9idWinding+8@l(9)
	.cfi_offset 65, 4
	.loc 1 184 0
	lwz 3,8(3)
.LVL9:
	.loc 1 183 0
	stw 0,0(31)
	.loc 1 184 0
	cmpwi 7,3,0
	beq- 7,.L13
	.loc 1 184 0 is_stmt 0 discriminator 1
	bl _ZdaPv
.L13:
	.loc 1 185 0 is_stmt 1
	li 0,0
	stw 0,8(31)
.LBE1606:
	.loc 1 186 0
	lwz 0,20(1)
	lwz 31,12(1)
.LVL10:
	mtlr 0
	addi 1,1,16
.LCFI3:
	.cfi_def_cfa_offset 0
	.cfi_restore 31
	blr
	.cfi_endproc
.LFE1461:
	.size	_ZN9idWindingD2Ev, .-_ZN9idWindingD2Ev
	.section	".text"
	.align 2
	.globl _ZN10idIK_ReachD0Ev
	.type	_ZN10idIK_ReachD0Ev, @function
_ZN10idIK_ReachD0Ev:
.LFB2853:
	.loc 2 886 0
	.cfi_startproc
.LVL11:
	mflr 0
	stwu 1,-8(1)
.LCFI4:
	.cfi_def_cfa_offset 8
	.cfi_register 65, 0
.LBB1607:
.LBB1608:
.LBB1609:
.LBB1610:
.LBB1611:
.LBB1612:
	.loc 2 65 0
	lis 9,_ZTV4idIK+8@ha
.LBE1612:
.LBE1611:
.LBE1610:
.LBE1609:
.LBE1608:
.LBE1607:
	.loc 2 886 0
	stw 0,12(1)
.LBB1618:
.LBB1617:
.LBB1616:
.LBB1615:
.LBB1614:
.LBB1613:
	.loc 2 65 0
	la 0,_ZTV4idIK+8@l(9)
	.cfi_offset 65, 4
	stw 0,0(3)
.LBE1613:
.LBE1614:
.LBE1615:
.LBE1616:
.LBE1617:
.LBE1618:
	.loc 2 887 0
	bl _ZdlPv
.LVL12:
	lwz 0,12(1)
	addi 1,1,8
.LCFI5:
	.cfi_def_cfa_offset 0
	mtlr 0
	blr
	.cfi_endproc
.LFE2853:
	.size	_ZN10idIK_ReachD0Ev, .-_ZN10idIK_ReachD0Ev
	.align 2
	.globl _ZN4idIKD0Ev
	.type	_ZN4idIKD0Ev, @function
_ZN4idIKD0Ev:
.LFB2816:
	.loc 2 65 0
	.cfi_startproc
.LVL13:
	mflr 0
	stwu 1,-8(1)
.LCFI6:
	.cfi_def_cfa_offset 8
	.cfi_register 65, 0
.LBB1619:
.LBB1620:
.LBB1621:
	lis 9,_ZTV4idIK+8@ha
.LBE1621:
.LBE1620:
.LBE1619:
	stw 0,12(1)
.LBB1624:
.LBB1623:
.LBB1622:
	.loc 2 65 0
	la 0,_ZTV4idIK+8@l(9)
	.cfi_offset 65, 4
	stw 0,0(3)
.LBE1622:
.LBE1623:
.LBE1624:
	.loc 2 66 0
	bl _ZdlPv
.LVL14:
	lwz 0,12(1)
	addi 1,1,8
.LCFI7:
	.cfi_def_cfa_offset 0
	mtlr 0
	blr
	.cfi_endproc
.LFE2816:
	.size	_ZN4idIKD0Ev, .-_ZN4idIKD0Ev
	.align 2
	.globl _ZN9idIK_WalkD2Ev
	.type	_ZN9idIK_WalkD2Ev, @function
_ZN9idIK_WalkD2Ev:
.LFB2829:
	.loc 2 294 0
	.cfi_startproc
	.cfi_personality 0,__gxx_personality_v0
	.cfi_lsda 0,.LLSDA2829
.LVL15:
	mflr 0
	stwu 1,-16(1)
.LCFI8:
	.cfi_def_cfa_offset 16
	.cfi_register 65, 0
.LBB1625:
	lis 9,_ZTV9idIK_Walk+8@ha
.LBE1625:
	stw 31,12(1)
	mr 31,3
	.cfi_offset 31, -4
	stw 0,20(1)
.LBB1632:
	la 0,_ZTV9idIK_Walk+8@l(9)
	.cfi_offset 65, 4
.LBE1632:
	stw 30,8(1)
.LBB1633:
	.loc 2 294 0
	stw 0,0(3)
	.loc 2 295 0
	lwz 30,32(3)
	.cfi_offset 30, -8
	cmpwi 7,30,0
	beq- 7,.L23
	.loc 2 296 0
	mr 3,30
.LVL16:
.LEHB0:
	bl _ZN11idClipModelD1Ev
.LEHE0:
	.loc 2 296 0 is_stmt 0 discriminator 1
	mr 3,30
	bl _ZdlPv
.L23:
.LVL17:
.LBB1626:
.LBB1627:
.LBB1628:
	.loc 2 65 0 is_stmt 1
	lis 9,_ZTV4idIK+8@ha
	la 0,_ZTV4idIK+8@l(9)
	stw 0,0(31)
.LBE1628:
.LBE1627:
.LBE1626:
.LBE1633:
	.loc 2 298 0
	lwz 0,20(1)
	lwz 30,8(1)
	mtlr 0
	lwz 31,12(1)
.LVL18:
	addi 1,1,16
	.cfi_remember_state
.LCFI9:
	.cfi_def_cfa_offset 0
	.cfi_restore 31
	.cfi_restore 30
	blr
.LVL19:
.L28:
.LCFI10:
	.cfi_restore_state
.LBB1634:
.LBB1629:
.LBB1630:
.LBB1631:
	.loc 2 65 0
	lis 9,_ZTV4idIK+8@ha
	la 0,_ZTV4idIK+8@l(9)
	stw 0,0(31)
.LEHB1:
	bl _Unwind_Resume
.LEHE1:
.LBE1631:
.LBE1630:
.LBE1629:
.LBE1634:
	.cfi_endproc
.LFE2829:
	.globl __gxx_personality_v0
	.section	.gcc_except_table,"a",@progbits
.LLSDA2829:
	.byte	0xff
	.byte	0xff
	.byte	0x1
	.uleb128 .LLSDACSE2829-.LLSDACSB2829
.LLSDACSB2829:
	.uleb128 .LEHB0-.LFB2829
	.uleb128 .LEHE0-.LEHB0
	.uleb128 .L28-.LFB2829
	.uleb128 0
	.uleb128 .LEHB1-.LFB2829
	.uleb128 .LEHE1-.LEHB1
	.uleb128 0
	.uleb128 0
.LLSDACSE2829:
	.section	".text"
	.size	_ZN9idIK_WalkD2Ev, .-_ZN9idIK_WalkD2Ev
	.align 2
	.globl _ZN9idIK_WalkD0Ev
	.type	_ZN9idIK_WalkD0Ev, @function
_ZN9idIK_WalkD0Ev:
.LFB2831:
	.loc 2 294 0
	.cfi_startproc
.LVL20:
	stwu 1,-16(1)
.LCFI11:
	.cfi_def_cfa_offset 16
	mflr 0
	stw 31,12(1)
	mr 31,3
	.cfi_offset 31, -4
	.cfi_register 65, 0
	stw 0,20(1)
	.loc 2 298 0
	.cfi_offset 65, 4
	bl _ZN9idIK_WalkD1Ev
.LVL21:
	mr 3,31
	bl _ZdlPv
	lwz 0,20(1)
	lwz 31,12(1)
.LVL22:
	mtlr 0
	addi 1,1,16
.LCFI12:
	.cfi_def_cfa_offset 0
	.cfi_restore 31
	blr
	.cfi_endproc
.LFE2831:
	.size	_ZN9idIK_WalkD0Ev, .-_ZN9idIK_WalkD0Ev
	.align 2
	.globl _ZN4idIK4InitEP8idEntityPKcRK6idVec3
	.type	_ZN4idIK4InitEP8idEntityPKcRK6idVec3, @function
_ZN4idIK4InitEP8idEntityPKcRK6idVec3:
.LFB2820:
	.loc 2 126 0
	.cfi_startproc
.LVL23:
	stwu 1,-32(1)
.LCFI13:
	.cfi_def_cfa_offset 32
	mflr 0
	stw 30,24(1)
.LBB1635:
	.loc 2 129 0
	mr. 30,4
	.cfi_offset 30, -8
	.cfi_register 65, 0
.LBE1635:
	.loc 2 126 0
	stw 27,12(1)
	mr 27,5
	.cfi_offset 27, -20
	stw 28,16(1)
	mr 28,6
	.cfi_offset 28, -16
	stw 29,20(1)
.LBB1640:
	.loc 2 130 0
	li 29,0
	.cfi_offset 29, -12
.LBE1640:
	.loc 2 126 0
	stw 31,28(1)
	mr 31,3
	.cfi_offset 31, -4
	stw 0,36(1)
.LBB1641:
	.loc 2 129 0
	beq- 0,.L32
	.cfi_offset 65, 4
	.loc 2 133 0
	stw 30,8(3)
	.loc 2 135 0
	mr 3,30
.LVL24:
	lwz 9,0(30)
	lwz 0,92(9)
	mtctr 0
	bctrl
.LVL25:
	.loc 2 136 0
	cmpwi 7,3,0
	.loc 2 135 0
	stw 3,12(31)
	.loc 2 136 0
	beq- 7,.L33
	.loc 2 136 0 is_stmt 0 discriminator 2
	bl _ZNK10idAnimator8ModelDefEv
	cmpwi 7,3,0
	beq- 7,.L33
	.loc 2 141 0 is_stmt 1
	lwz 3,12(31)
	bl _ZNK10idAnimator8ModelDefEv
	bl _ZNK14idDeclModelDef11ModelHandleEv
	cmpwi 7,3,0
	beq- 7,.L41
	.loc 2 146 0
	lwz 3,12(31)
	bl _ZNK10idAnimator11ModelHandleEv
.LVL26:
	.loc 2 147 0
	cmpwi 7,3,0
	beq- 7,.L42
	.loc 2 152 0
	lwz 3,12(31)
.LVL27:
	mr 4,27
	bl _ZNK10idAnimator7GetAnimEPKc
	.loc 2 153 0
	cmpwi 7,3,0
	.loc 2 152 0
	stw 3,16(31)
	.loc 2 153 0
	beq- 7,.L43
.LVL28:
.LBB1636:
.LBB1637:
	.file 3 "d:/Data/Nintendo/DoomGX/src/game/../idlib/../idlib/math/Vector.h"
	.loc 3 424 0
	lwz 0,0(28)
.LBE1637:
.LBE1636:
	.loc 2 161 0
	li 29,1
.LBB1639:
.LBB1638:
	.loc 3 424 0
	stw 0,20(31)
	.loc 3 425 0
	lwz 0,4(28)
	stw 0,24(31)
	.loc 3 426 0
	lwz 0,8(28)
	stw 0,28(31)
.LVL29:
.L32:
.LBE1638:
.LBE1639:
.LBE1641:
	.loc 2 162 0
	lwz 0,36(1)
	mr 3,29
	lwz 27,12(1)
.LVL30:
	mtlr 0
	lwz 28,16(1)
.LVL31:
	lwz 29,20(1)
	lwz 30,24(1)
.LVL32:
	lwz 31,28(1)
	addi 1,1,32
	.cfi_remember_state
.LCFI14:
	.cfi_def_cfa_offset 0
	.cfi_restore 31
	.cfi_restore 30
	.cfi_restore 29
	.cfi_restore 28
	.cfi_restore 27
	blr
.LVL33:
.L33:
.LCFI15:
	.cfi_restore_state
.LBB1642:
	.loc 2 138 0 discriminator 4
	mr 3,30
	.loc 2 1139 0 discriminator 4
	lwz 31,72(30)
.LVL34:
	.loc 2 138 0 discriminator 4
	bl _ZNK8idEntity10GetPhysicsEv
	li 4,0
	lwz 9,0(3)
	.loc 2 139 0 discriminator 4
	li 29,0
	.loc 2 138 0 discriminator 4
	lwz 0,132(9)
	mtctr 0
	bctrl
	li 4,0
	bl _ZNK6idVec38ToStringEi
	lis 4,.LC0@ha
	mr 6,3
	lis 3,gameLocal@ha
	la 3,gameLocal@l(3)
	la 4,.LC0@l(4)
	mr 5,31
	crxor 6,6,6
	bl _ZNK11idGameLocal7WarningEPKcz
	.loc 2 139 0 discriminator 4
	b .L32
.LVL35:
.L43:
	.loc 2 155 0
	mr 3,30
	.loc 2 1139 0
	lwz 31,72(30)
.LVL36:
	.loc 2 155 0
	bl _ZNK8idEntity10GetPhysicsEv
	li 4,0
	lwz 9,0(3)
	lwz 0,132(9)
	mtctr 0
	bctrl
	li 4,0
	bl _ZNK6idVec38ToStringEi
	lis 4,.LC2@ha
	mr 6,3
	lis 3,gameLocal@ha
	la 3,gameLocal@l(3)
	la 4,.LC2@l(4)
	mr 5,31
	crxor 6,6,6
	bl _ZNK11idGameLocal7WarningEPKcz
	.loc 2 156 0
	b .L32
.LVL37:
.L41:
	.loc 2 143 0
	mr 3,30
	.loc 2 1139 0
	lwz 31,72(30)
.LVL38:
	.loc 2 143 0
	bl _ZNK8idEntity10GetPhysicsEv
	li 4,0
	lwz 9,0(3)
	lwz 0,132(9)
	mtctr 0
	bctrl
	li 4,0
	bl _ZNK6idVec38ToStringEi
	lis 4,.LC1@ha
	mr 6,3
	lis 3,gameLocal@ha
	la 3,gameLocal@l(3)
	la 4,.LC1@l(4)
	mr 5,31
	crxor 6,6,6
	bl _ZNK11idGameLocal7WarningEPKcz
	.loc 2 144 0
	b .L32
.LVL39:
.L42:
	.loc 2 149 0
	mr 3,30
.LVL40:
	.loc 2 1139 0
	lwz 31,72(30)
.LVL41:
	.loc 2 149 0
	bl _ZNK8idEntity10GetPhysicsEv
	li 4,0
	lwz 9,0(3)
	lwz 0,132(9)
	mtctr 0
	bctrl
	li 4,0
	bl _ZNK6idVec38ToStringEi
	lis 4,.LC0@ha
	mr 6,3
	lis 3,gameLocal@ha
	la 3,gameLocal@l(3)
	la 4,.LC0@l(4)
	mr 5,31
	crxor 6,6,6
	bl _ZNK11idGameLocal7WarningEPKcz
	.loc 2 150 0
	b .L32
.LBE1642:
	.cfi_endproc
.LFE2820:
	.size	_ZN4idIK4InitEP8idEntityPKcRK6idVec3, .-_ZN4idIK4InitEP8idEntityPKcRK6idVec3
	.align 2
	.globl _ZN10idIK_Reach14ClearJointModsEv
	.type	_ZN10idIK_Reach14ClearJointModsEv, @function
_ZN10idIK_Reach14ClearJointModsEv:
.LFB2858:
	.loc 2 1125 0
	.cfi_startproc
.LVL42:
	mflr 0
	stwu 1,-24(1)
.LCFI16:
	.cfi_def_cfa_offset 24
	.cfi_register 65, 0
	stw 31,20(1)
	mr 31,3
	.cfi_offset 31, -4
	stw 0,28(1)
	stw 28,8(1)
	stw 29,12(1)
	stw 30,16(1)
.LBB1647:
	.loc 2 1128 0
	lwz 0,8(3)
	.cfi_offset 30, -8
	.cfi_offset 29, -12
	.cfi_offset 28, -16
	.cfi_offset 65, 4
	cmpwi 7,0,0
	beq- 7,.L44
	.loc 2 1128 0 is_stmt 0 discriminator 1
	lbz 0,5(3)
	cmpwi 7,0,0
	beq- 7,.L44
.LVL43:
.LBE1647:
.LBB1648:
.LBB1649:
	.loc 2 1132 0 is_stmt 1
	lwz 0,32(3)
	cmpwi 7,0,0
	ble- 7,.L46
	lis 29,mat3_identity@ha
	mr 30,3
	li 28,0
	la 29,mat3_identity@l(29)
.LVL44:
.L47:
	.loc 2 1133 0
	lwz 4,56(30)
	li 5,0
	lwz 3,12(31)
	mr 6,29
	.loc 2 1132 0
	addi 28,28,1
	.loc 2 1133 0
	bl _ZN10idAnimator12SetJointAxisE13jointHandle_t19jointModTransform_tRK6idMat3
	.loc 2 1134 0
	lwz 4,48(30)
	lwz 3,12(31)
	li 5,0
	mr 6,29
	bl _ZN10idAnimator12SetJointAxisE13jointHandle_t19jointModTransform_tRK6idMat3
	.loc 2 1135 0
	lwz 4,40(30)
	lwz 3,12(31)
	li 5,0
	mr 6,29
	.loc 2 1132 0
	addi 30,30,4
	.loc 2 1135 0
	bl _ZN10idAnimator12SetJointAxisE13jointHandle_t19jointModTransform_tRK6idMat3
.LVL45:
	.loc 2 1132 0
	lwz 0,32(31)
	cmpw 7,28,0
	blt+ 7,.L47
.LVL46:
.L46:
	.loc 2 1138 0
	li 0,0
	stb 0,5(31)
.L44:
.LBE1649:
.LBE1648:
	.loc 2 1139 0
	lwz 0,28(1)
	lwz 28,8(1)
	mtlr 0
	lwz 29,12(1)
	lwz 30,16(1)
	lwz 31,20(1)
.LVL47:
	addi 1,1,24
.LCFI17:
	.cfi_def_cfa_offset 0
	.cfi_restore 31
	.cfi_restore 30
	.cfi_restore 29
	.cfi_restore 28
	blr
	.cfi_endproc
.LFE2858:
	.size	_ZN10idIK_Reach14ClearJointModsEv, .-_ZN10idIK_Reach14ClearJointModsEv
	.align 2
	.globl _ZN9idIK_Walk14ClearJointModsEv
	.type	_ZN9idIK_Walk14ClearJointModsEv, @function
_ZN9idIK_Walk14ClearJointModsEv:
.LFB2842:
	.loc 2 787 0
	.cfi_startproc
.LVL48:
	mflr 0
	stwu 1,-24(1)
.LCFI18:
	.cfi_def_cfa_offset 24
	.cfi_register 65, 0
	stw 31,20(1)
	mr 31,3
	.cfi_offset 31, -4
	stw 0,28(1)
	stw 28,8(1)
	stw 29,12(1)
	stw 30,16(1)
.LBB1654:
	.loc 2 790 0
	lwz 0,8(3)
	.cfi_offset 30, -8
	.cfi_offset 29, -12
	.cfi_offset 28, -16
	.cfi_offset 65, 4
	cmpwi 7,0,0
	beq- 7,.L49
	.loc 2 790 0 is_stmt 0 discriminator 1
	lbz 0,5(3)
	cmpwi 7,0,0
	bne- 7,.L54
.L49:
.LBE1654:
	.loc 2 803 0 is_stmt 1
	lwz 0,28(1)
	lwz 28,8(1)
	mtlr 0
	lwz 29,12(1)
	lwz 30,16(1)
	lwz 31,20(1)
	addi 1,1,24
	.cfi_remember_state
.LCFI19:
	.cfi_def_cfa_offset 0
	.cfi_restore 31
	.cfi_restore 30
	.cfi_restore 29
	.cfi_restore 28
	blr
.L54:
.LCFI20:
	.cfi_restore_state
.LVL49:
.LBB1655:
.LBB1656:
	.loc 2 794 0
	lis 29,mat3_identity@ha
	lwz 3,12(3)
.LVL50:
	lwz 4,204(31)
	la 29,mat3_identity@l(29)
	li 5,0
	mr 6,29
	bl _ZN10idAnimator12SetJointAxisE13jointHandle_t19jointModTransform_tRK6idMat3
	.loc 2 795 0
	lwz 3,12(31)
	lwz 4,204(31)
	lis 6,vec3_origin@ha
	li 5,0
	la 6,vec3_origin@l(6)
	bl _ZN10idAnimator11SetJointPosE13jointHandle_t19jointModTransform_tRK6idVec3
.LVL51:
	.loc 2 796 0
	lwz 0,36(31)
	cmpwi 7,0,0
	ble- 7,.L51
	.loc 2 787 0
	addi 30,31,136
.LBE1656:
.LBE1655:
	.loc 2 796 0
	li 28,0
.LVL52:
.L52:
.LBB1658:
.LBB1657:
	.loc 2 797 0
	lwzu 4,4(30)
	li 5,0
	lwz 3,12(31)
	mr 6,29
	.loc 2 796 0
	addi 28,28,1
	.loc 2 797 0
	bl _ZN10idAnimator12SetJointAxisE13jointHandle_t19jointModTransform_tRK6idMat3
	.loc 2 798 0
	lwz 3,12(31)
	lwz 4,-32(30)
	li 5,0
	mr 6,29
	bl _ZN10idAnimator12SetJointAxisE13jointHandle_t19jointModTransform_tRK6idMat3
	.loc 2 799 0
	lwz 3,12(31)
	lwz 4,-64(30)
	li 5,0
	mr 6,29
	bl _ZN10idAnimator12SetJointAxisE13jointHandle_t19jointModTransform_tRK6idMat3
.LVL53:
	.loc 2 796 0
	lwz 0,36(31)
	cmpw 7,28,0
	blt+ 7,.L52
.LVL54:
.L51:
	.loc 2 802 0
	li 0,0
	stb 0,5(31)
.LBE1657:
.LBE1658:
	.loc 2 803 0
	lwz 0,28(1)
	lwz 28,8(1)
	mtlr 0
	lwz 29,12(1)
	lwz 30,16(1)
	lwz 31,20(1)
.LVL55:
	addi 1,1,24
	.cfi_restore 28
	.cfi_restore 29
	.cfi_restore 30
	.cfi_restore 31
.LCFI21:
	.cfi_def_cfa_offset 0
	blr
	.cfi_endproc
.LFE2842:
	.size	_ZN9idIK_Walk14ClearJointModsEv, .-_ZN9idIK_Walk14ClearJointModsEv
	.section	.text._ZN14idFixedWindingD0Ev,"axG",@progbits,_ZN14idFixedWindingD5Ev,comdat
	.align 2
	.weak	_ZN14idFixedWindingD0Ev
	.type	_ZN14idFixedWindingD0Ev, @function
_ZN14idFixedWindingD0Ev:
.LFB1500:
	.loc 1 380 0
	.cfi_startproc
.LVL56:
	mflr 0
	stwu 1,-8(1)
.LCFI22:
	.cfi_def_cfa_offset 8
	.cfi_register 65, 0
.LBB1665:
.LBB1666:
.LBB1667:
.LBB1668:
.LBB1669:
.LBB1670:
	.loc 1 183 0
	lis 11,_ZTV9idWinding+8@ha
.LBE1670:
.LBE1669:
.LBE1668:
.LBE1667:
.LBE1666:
.LBE1665:
	.loc 1 380 0
	stw 0,12(1)
.LBB1676:
.LBB1675:
.LBB1674:
	.loc 1 381 0
	li 0,0
	.cfi_offset 65, 4
	stw 0,8(3)
.LVL57:
.LBB1673:
.LBB1672:
.LBB1671:
	.loc 1 183 0
	la 0,_ZTV9idWinding+8@l(11)
	stw 0,0(3)
.LBE1671:
.LBE1672:
.LBE1673:
.LBE1674:
.LBE1675:
.LBE1676:
	.loc 1 382 0
	bl _ZdlPv
.LVL58:
	lwz 0,12(1)
	addi 1,1,8
.LCFI23:
	.cfi_def_cfa_offset 0
	mtlr 0
	blr
	.cfi_endproc
.LFE1500:
	.size	_ZN14idFixedWindingD0Ev, .-_ZN14idFixedWindingD0Ev
	.section	.text._ZN14idFixedWindingD2Ev,"axG",@progbits,_ZN14idFixedWindingD5Ev,comdat
	.align 2
	.weak	_ZN14idFixedWindingD2Ev
	.type	_ZN14idFixedWindingD2Ev, @function
_ZN14idFixedWindingD2Ev:
.LFB1498:
	.loc 1 380 0
	.cfi_startproc
.LVL59:
.LBB1682:
	.loc 1 381 0
	li 0,0
.LBB1683:
.LBB1684:
.LBB1685:
	.loc 1 183 0
	lis 9,_ZTV9idWinding+8@ha
.LBE1685:
.LBE1684:
.LBE1683:
	.loc 1 381 0
	stw 0,8(3)
.LVL60:
.LBB1688:
.LBB1687:
.LBB1686:
	.loc 1 183 0
	la 0,_ZTV9idWinding+8@l(9)
	stw 0,0(3)
.LBE1686:
.LBE1687:
.LBE1688:
.LBE1682:
	.loc 1 382 0
	blr
	.cfi_endproc
.LFE1498:
	.size	_ZN14idFixedWindingD2Ev, .-_ZN14idFixedWindingD2Ev
	.section	.text._ZN9idWindingD0Ev,"axG",@progbits,_ZN9idWindingD5Ev,comdat
	.align 2
	.weak	_ZN9idWindingD0Ev
	.type	_ZN9idWindingD0Ev, @function
_ZN9idWindingD0Ev:
.LFB1463:
	.loc 1 183 0
	.cfi_startproc
.LVL61:
	mflr 0
	stwu 1,-16(1)
.LCFI24:
	.cfi_def_cfa_offset 16
	.cfi_register 65, 0
.LBB1692:
.LBB1693:
.LBB1694:
	lis 9,_ZTV9idWinding+8@ha
.LBE1694:
.LBE1693:
.LBE1692:
	stw 31,12(1)
	mr 31,3
	.cfi_offset 31, -4
.LVL62:
	stw 0,20(1)
.LBB1699:
.LBB1697:
.LBB1695:
	.loc 1 183 0
	la 0,_ZTV9idWinding+8@l(9)
	.cfi_offset 65, 4
	.loc 1 184 0
	lwz 3,8(3)
.LVL63:
	.loc 1 183 0
	stw 0,0(31)
	.loc 1 184 0
	cmpwi 7,3,0
	beq- 7,.L63
	bl _ZdaPv
.L63:
	.loc 1 185 0
	li 0,0
.LBE1695:
.LBE1697:
.LBE1699:
	.loc 1 186 0
	mr 3,31
.LBB1700:
.LBB1698:
.LBB1696:
	.loc 1 185 0
	stw 0,8(31)
.LBE1696:
.LBE1698:
.LBE1700:
	.loc 1 186 0
	bl _ZdlPv
	lwz 0,20(1)
	lwz 31,12(1)
.LVL64:
	mtlr 0
	addi 1,1,16
.LCFI25:
	.cfi_def_cfa_offset 0
	.cfi_restore 31
	blr
	.cfi_endproc
.LFE1463:
	.size	_ZN9idWindingD0Ev, .-_ZN9idWindingD0Ev
	.section	".text"
	.align 2
	.globl _ZN4idIKC2Ev
	.type	_ZN4idIKC2Ev, @function
_ZN4idIKC2Ev:
.LFB2811:
	.loc 2 47 0
	.cfi_startproc
.LVL65:
	mflr 0
	stwu 1,-16(1)
.LCFI26:
	.cfi_def_cfa_offset 16
	.cfi_register 65, 0
.LBB1701:
	lis 9,_ZTV4idIK+8@ha
	.loc 2 49 0
	li 4,32
.LBE1701:
	.loc 2 47 0
	stw 31,12(1)
	mr 31,3
	.cfi_offset 31, -4
	stw 0,20(1)
.LBB1706:
	.loc 2 47 0
	la 0,_ZTV4idIK+8@l(9)
	.cfi_offset 65, 4
	stw 0,0(3)
	.loc 2 49 0
	lis 3,.LC3@ha
.LVL66:
	la 3,.LC3@l(3)
	crxor 6,6,6
	bl _Z15Sys_DebugPrintfPKcz
.LBB1702:
.LBB1703:
	.loc 3 416 0
	li 0,0
.LBE1703:
.LBE1702:
	.loc 2 54 0
	li 9,0
	.loc 2 52 0
	li 11,0
	stb 11,5(31)
	.loc 2 53 0
	stb 11,4(31)
	.loc 2 54 0
	stw 9,8(31)
	.loc 2 55 0
	stw 9,12(31)
	.loc 2 56 0
	stw 9,16(31)
.LVL67:
.LBB1705:
.LBB1704:
	.loc 3 416 0
	stw 0,28(31)
	stw 0,24(31)
	stw 0,20(31)
.LBE1704:
.LBE1705:
.LBE1706:
	.loc 2 58 0
	lwz 0,20(1)
	lwz 31,12(1)
.LVL68:
	mtlr 0
	addi 1,1,16
.LCFI27:
	.cfi_def_cfa_offset 0
	.cfi_restore 31
	blr
	.cfi_endproc
.LFE2811:
	.size	_ZN4idIKC2Ev, .-_ZN4idIKC2Ev
	.align 2
	.globl _ZNK4idIK4SaveEP10idSaveGame
	.type	_ZNK4idIK4SaveEP10idSaveGame, @function
_ZNK4idIK4SaveEP10idSaveGame:
.LFB2817:
	.loc 2 73 0
	.cfi_startproc
.LVL69:
	mflr 0
	stwu 1,-16(1)
.LCFI28:
	.cfi_def_cfa_offset 16
	.cfi_register 65, 0
	stw 30,8(1)
	mr 30,4
	.cfi_offset 30, -8
	stw 0,20(1)
	stw 31,12(1)
	.loc 2 73 0
	mr 31,3
	.cfi_offset 31, -4
	.cfi_offset 65, 4
	.loc 2 74 0
	lbz 4,4(3)
.LVL70:
	mr 3,30
.LVL71:
	bl _ZN10idSaveGame9WriteBoolEb
	.loc 2 75 0
	lbz 4,5(31)
	mr 3,30
	bl _ZN10idSaveGame9WriteBoolEb
	.loc 2 76 0
	lwz 4,8(31)
	mr 3,30
	bl _ZN10idSaveGame11WriteObjectEPK7idClass
	.loc 2 77 0
	lwz 3,12(31)
	cmpwi 7,3,0
	beq- 7,.L70
	.loc 2 77 0 is_stmt 0 discriminator 1
	lwz 4,16(31)
	bl _ZNK10idAnimator7GetAnimEi
	cmpwi 7,3,0
	beq- 7,.L70
	.loc 2 77 0 discriminator 3
	lwz 4,16(31)
	lwz 3,12(31)
	bl _ZNK10idAnimator7GetAnimEi
	bl _ZNK6idAnim4NameEv
	mr 4,3
	mr 3,30
	bl _ZN10idSaveGame11WriteStringEPKc
	.loc 2 78 0 is_stmt 1 discriminator 3
	mr 3,30
	addi 4,31,20
	bl _ZN10idSaveGame9WriteVec3ERK6idVec3
	.loc 2 79 0 discriminator 3
	lwz 0,20(1)
	lwz 30,8(1)
.LVL72:
	mtlr 0
	lwz 31,12(1)
.LVL73:
	addi 1,1,16
	.cfi_remember_state
.LCFI29:
	.cfi_def_cfa_offset 0
	.cfi_restore 31
	.cfi_restore 30
	blr
.LVL74:
.L70:
.LCFI30:
	.cfi_restore_state
	.loc 2 77 0
	lis 4,.LC4@ha
	mr 3,30
	la 4,.LC4@l(4)
	bl _ZN10idSaveGame11WriteStringEPKc
	.loc 2 78 0
	mr 3,30
	addi 4,31,20
	bl _ZN10idSaveGame9WriteVec3ERK6idVec3
	.loc 2 79 0
	lwz 0,20(1)
	lwz 30,8(1)
.LVL75:
	mtlr 0
	lwz 31,12(1)
.LVL76:
	addi 1,1,16
	.cfi_restore 30
	.cfi_restore 31
.LCFI31:
	.cfi_def_cfa_offset 0
	blr
	.cfi_endproc
.LFE2817:
	.size	_ZNK4idIK4SaveEP10idSaveGame, .-_ZNK4idIK4SaveEP10idSaveGame
	.align 2
	.globl _ZN4idIK7RestoreEP13idRestoreGame
	.type	_ZN4idIK7RestoreEP13idRestoreGame, @function
_ZN4idIK7RestoreEP13idRestoreGame:
.LFB2818:
	.loc 2 86 0
	.cfi_startproc
	.cfi_personality 0,__gxx_personality_v0
	.cfi_lsda 0,.LLSDA2818
.LVL77:
	stwu 1,-56(1)
.LCFI32:
	.cfi_def_cfa_offset 56
.LVL78:
	mflr 0
.LBB1707:
.LBB1708:
.LBB1709:
.LBB1710:
	.file 4 "d:/Data/Nintendo/DoomGX/src/game/../idlib/../idlib/Str.h"
	.loc 4 357 0
	li 9,20
.LBE1710:
.LBE1709:
.LBE1708:
.LBE1707:
	.loc 2 86 0
	stw 31,52(1)
	mr 31,3
	.cfi_offset 31, -4
	.cfi_register 65, 0
	stw 0,60(1)
.LBB1735:
	.loc 2 89 0
	mr 3,4
.LVL79:
.LBB1719:
.LBB1715:
.LBB1711:
	.loc 4 356 0
	li 0,0
	.cfi_offset 65, 4
.LBE1711:
.LBE1715:
.LBE1719:
.LBE1735:
	.loc 2 86 0
	stw 29,44(1)
.LBB1736:
.LBB1720:
.LBB1716:
.LBB1712:
	.loc 4 357 0
	stw 9,16(1)
.LBE1712:
.LBE1716:
.LBE1720:
.LBE1736:
	.loc 2 86 0
	mr 29,4
	.cfi_offset 29, -12
.LBB1737:
.LBB1721:
.LBB1717:
.LBB1713:
	.loc 4 358 0
	addi 9,1,20
.LBE1713:
.LBE1717:
.LBE1721:
	.loc 2 89 0
	addi 4,31,4
.LVL80:
.LBE1737:
	.loc 2 86 0
	stw 30,48(1)
	addi 30,1,8
	.cfi_offset 30, -8
.LBB1738:
.LBB1722:
.LBB1718:
.LBB1714:
	.loc 4 356 0
	stw 0,8(1)
	.loc 4 358 0
	stw 9,12(1)
	.loc 4 359 0
	stb 0,20(1)
.LEHB2:
.LBE1714:
.LBE1718:
.LBE1722:
	.loc 2 89 0
	bl _ZN13idRestoreGame8ReadBoolERb
.LVL81:
	.loc 2 90 0
	mr 3,29
	addi 4,31,5
	addi 30,1,8
	bl _ZN13idRestoreGame8ReadBoolERb
	.loc 2 91 0
	mr 3,29
	addi 4,31,8
	addi 30,1,8
	bl _ZN13idRestoreGame10ReadObjectERP7idClass
	.loc 2 92 0
	addi 30,1,8
	mr 3,29
	mr 4,30
	bl _ZN13idRestoreGame10ReadStringER5idStr
	.loc 2 93 0
	mr 3,29
	addi 4,31,20
	bl _ZN13idRestoreGame8ReadVec3ER6idVec3
	.loc 2 95 0
	lwz 3,8(31)
	cmpwi 7,3,0
	beq- 7,.L72
	.loc 2 96 0
	lwz 9,0(3)
	lwz 0,92(9)
	mtctr 0
	bctrl
	.loc 2 97 0
	cmpwi 7,3,0
	.loc 2 96 0
	stw 3,12(31)
	.loc 2 97 0
	beq- 7,.L73
	.loc 2 97 0 is_stmt 0 discriminator 2
	bl _ZNK10idAnimator8ModelDefEv
	cmpwi 7,3,0
	beq- 7,.L73
.LVL82:
.L74:
	.loc 2 101 0 is_stmt 1
	lwz 3,12(31)
	lwz 4,12(1)
	bl _ZNK10idAnimator7GetAnimEPKc
.LEHE2:
	.loc 2 102 0
	cmpwi 7,3,0
	.loc 2 101 0
	stw 3,16(31)
	.loc 2 102 0
	beq- 7,.L80
.LVL83:
.LBB1723:
.LBB1724:
.LBB1725:
	.loc 4 501 0
	mr 3,30
.LEHB3:
	bl _ZN5idStr8FreeDataEv
.LBE1725:
.LBE1724:
.LBE1723:
.LBE1738:
	.loc 2 110 0
	lwz 0,60(1)
	lwz 29,44(1)
	mtlr 0
	lwz 30,48(1)
	lwz 31,52(1)
.LVL84:
	addi 1,1,56
	.cfi_remember_state
.LCFI33:
	.cfi_def_cfa_offset 0
	.cfi_restore 31
	.cfi_restore 30
	.cfi_restore 29
	blr
.LVL85:
.L72:
.LCFI34:
	.cfi_restore_state
.LBB1739:
	.loc 2 107 0
	stw 3,12(31)
	.loc 2 108 0
	stw 3,16(31)
.LVL86:
.LBB1730:
.LBB1728:
.LBB1726:
	.loc 4 501 0
	mr 3,30
	bl _ZN5idStr8FreeDataEv
.LEHE3:
.LBE1726:
.LBE1728:
.LBE1730:
.LBE1739:
	.loc 2 110 0
	lwz 0,60(1)
	lwz 29,44(1)
.LVL87:
	mtlr 0
	lwz 30,48(1)
	lwz 31,52(1)
.LVL88:
	addi 1,1,56
	.cfi_remember_state
	.cfi_restore 29
	.cfi_restore 30
	.cfi_restore 31
.LCFI35:
	.cfi_def_cfa_offset 0
	blr
.LVL89:
.L80:
.LCFI36:
	.cfi_restore_state
.LBB1740:
	.loc 2 104 0
	lwz 9,8(31)
	mr 3,9
	.loc 2 1139 0
	lwz 31,72(9)
.LVL90:
.LEHB4:
	.loc 2 104 0
	bl _ZNK8idEntity10GetPhysicsEv
	lwz 9,0(3)
	li 4,0
	lwz 0,132(9)
	mtctr 0
	bctrl
	.loc 2 104 0 is_stmt 0 discriminator 1
	li 4,0
	bl _ZNK6idVec38ToStringEi
	mr 6,3
	lis 4,.LC6@ha
	lis 3,gameLocal@ha
	la 4,.LC6@l(4)
	la 3,gameLocal@l(3)
	mr 5,31
	crxor 6,6,6
	bl _ZNK11idGameLocal7WarningEPKcz
.LEHE4:
.LVL91:
.LBB1731:
.LBB1729:
.LBB1727:
	.loc 4 501 0 is_stmt 1
	mr 3,30
.LEHB5:
	bl _ZN5idStr8FreeDataEv
.LEHE5:
.LBE1727:
.LBE1729:
.LBE1731:
.LBE1740:
	.loc 2 110 0
	lwz 0,60(1)
	lwz 29,44(1)
	mtlr 0
	lwz 30,48(1)
	lwz 31,52(1)
	addi 1,1,56
	.cfi_remember_state
	.cfi_restore 29
	.cfi_restore 30
	.cfi_restore 31
.LCFI37:
	.cfi_def_cfa_offset 0
	blr
.LVL92:
.L73:
.LCFI38:
	.cfi_restore_state
.LBB1741:
	.loc 2 99 0 discriminator 4
	lwz 9,8(31)
	mr 3,9
	.loc 2 1139 0 discriminator 4
	lwz 29,72(9)
.LVL93:
.LEHB6:
	.loc 2 99 0 discriminator 4
	bl _ZNK8idEntity10GetPhysicsEv
	lwz 9,0(3)
	li 4,0
	lwz 0,132(9)
	mtctr 0
	bctrl
	.loc 2 99 0 is_stmt 0 discriminator 1
	li 4,0
	bl _ZNK6idVec38ToStringEi
	mr 6,3
	lis 4,.LC5@ha
	lis 3,gameLocal@ha
	la 4,.LC5@l(4)
	la 3,gameLocal@l(3)
	mr 5,29
	crxor 6,6,6
	bl _ZNK11idGameLocal7WarningEPKcz
.LEHE6:
	b .L74
.LVL94:
.L79:
	mr 31,3
.LVL95:
.LBB1732:
.LBB1733:
.LBB1734:
	.loc 4 501 0 is_stmt 1
	mr 3,30
	bl _ZN5idStr8FreeDataEv
	mr 3,31
.LEHB7:
	bl _Unwind_Resume
.LEHE7:
.LBE1734:
.LBE1733:
.LBE1732:
.LBE1741:
	.cfi_endproc
.LFE2818:
	.section	.gcc_except_table
.LLSDA2818:
	.byte	0xff
	.byte	0xff
	.byte	0x1
	.uleb128 .LLSDACSE2818-.LLSDACSB2818
.LLSDACSB2818:
	.uleb128 .LEHB2-.LFB2818
	.uleb128 .LEHE2-.LEHB2
	.uleb128 .L79-.LFB2818
	.uleb128 0
	.uleb128 .LEHB3-.LFB2818
	.uleb128 .LEHE3-.LEHB3
	.uleb128 0
	.uleb128 0
	.uleb128 .LEHB4-.LFB2818
	.uleb128 .LEHE4-.LEHB4
	.uleb128 .L79-.LFB2818
	.uleb128 0
	.uleb128 .LEHB5-.LFB2818
	.uleb128 .LEHE5-.LEHB5
	.uleb128 0
	.uleb128 0
	.uleb128 .LEHB6-.LFB2818
	.uleb128 .LEHE6-.LEHB6
	.uleb128 .L79-.LFB2818
	.uleb128 0
	.uleb128 .LEHB7-.LFB2818
	.uleb128 .LEHE7-.LEHB7
	.uleb128 0
	.uleb128 0
.LLSDACSE2818:
	.section	".text"
	.size	_ZN4idIK7RestoreEP13idRestoreGame, .-_ZN4idIK7RestoreEP13idRestoreGame
	.align 2
	.globl _ZNK4idIK13IsInitializedEv
	.type	_ZNK4idIK13IsInitializedEv, @function
_ZNK4idIK13IsInitializedEv:
.LFB2819:
	.loc 2 117 0
	.cfi_startproc
.LVL96:
	.loc 2 118 0
	lbz 0,4(3)
	li 3,0
.LVL97:
	cmpwi 7,0,0
	beqlr- 7
.LBB1742:
.LBB1743:
	.loc 2 118 0 is_stmt 0 discriminator 1
	lis 9,ik_enable+44@ha
	.file 5 "d:/Data/Nintendo/DoomGX/src/game/../idlib/../framework/CVarSystem.h"
	.loc 5 142 0 is_stmt 1 discriminator 1
	lwz 9,ik_enable+44@l(9)
.LBE1743:
.LBE1742:
	.loc 2 117 0 discriminator 1
	lwz 3,36(9)
	cntlzw 3,3
	srwi 3,3,5
	xori 3,3,1
	.loc 2 119 0 discriminator 1
	blr
	.cfi_endproc
.LFE2819:
	.size	_ZNK4idIK13IsInitializedEv, .-_ZNK4idIK13IsInitializedEv
	.align 2
	.globl _ZN4idIK13SolveTwoBonesERK6idVec3S2_S2_ffRS0_
	.type	_ZN4idIK13SolveTwoBonesERK6idVec3S2_S2_ffRS0_, @function
_ZN4idIK13SolveTwoBonesERK6idVec3S2_S2_ffRS0_:
.LFB2823:
	.loc 2 186 0
	.cfi_startproc
.LVL98:
.LBB1791:
.LBB1792:
.LBB1793:
	.loc 3 431 0
	lfs 6,4(4)
.LBE1793:
.LBE1792:
.LBB1802:
.LBB1803:
	.file 6 "d:/Data/Nintendo/DoomGX/src/game/../idlib/../idlib/math/Math.h"
	.loc 6 276 0
	lis 9,_ZN6idMath5iSqrtE@ha
.LBE1803:
.LBE1802:
.LBB1809:
.LBB1794:
	.loc 3 431 0
	lfs 10,4(5)
.LBE1794:
.LBE1809:
.LBB1810:
.LBB1804:
	.loc 6 276 0
	la 9,_ZN6idMath5iSqrtE@l(9)
.LBE1804:
.LBE1810:
.LBB1811:
.LBB1795:
	.loc 3 431 0
	lfs 5,0(4)
.LBE1795:
.LBE1811:
.LBB1812:
.LBB1805:
	.loc 6 275 0
	lis 11,.LC7@ha
.LBE1805:
.LBE1812:
.LBB1813:
.LBB1796:
	.loc 3 431 0
	fsubs 10,10,6
	lfs 11,0(5)
	lfs 7,8(4)
.LBE1796:
.LBE1813:
	.loc 2 196 0
	fadds 3,1,2
.LBB1814:
.LBB1797:
	.loc 3 431 0
	fsubs 11,11,5
	lfs 12,8(5)
.LBE1797:
.LBE1814:
.LBB1815:
.LBB1816:
	.loc 3 636 0
	fmuls 0,10,10
.LBE1816:
.LBE1815:
.LBE1791:
	.loc 2 186 0
	stwu 1,-64(1)
.LCFI39:
	.cfi_def_cfa_offset 64
.LBB2012:
.LBB1817:
.LBB1798:
	.loc 3 431 0
	fsubs 12,12,7
.LVL99:
.LBE1798:
.LBE1817:
.LBB1818:
.LBB1806:
	.loc 6 275 0
	lfs 8,.LC7@l(11)
.LBE1806:
.LBE1818:
.LBE2012:
	.loc 2 186 0
	stfd 27,24(1)
.LBB2013:
.LBB1819:
.LBB1799:
	.loc 3 636 0
	fmadds 0,11,11,0
.LBE1799:
.LBE1819:
.LBE2013:
	.loc 2 186 0
	stfd 28,32(1)
	stfd 29,40(1)
	stfd 30,48(1)
.LBB2014:
.LBB1820:
.LBB1800:
	.loc 3 636 0
	fmadds 0,12,12,0
.LBE1800:
.LBE1820:
.LBE2014:
	.loc 2 186 0
	stfd 31,56(1)
.LBB2015:
.LBB1821:
.LBB1801:
	.loc 3 636 0
	stfs 0,8(1)
.LVL100:
.LBE1801:
.LBE1821:
.LBB1822:
.LBB1807:
	.loc 6 275 0
	fmuls 9,0,8
	.loc 6 270 0
	lwz 0,8(1)
.LVL101:
	.loc 2 186 0
	fneg 9,9
	.loc 6 276 0
	rlwinm 10,0,19,21,29
	rlwinm 8,0,9,24,31
	lwzx 10,9,10
	subfic 0,8,380
	rlwinm 0,0,22,0,8
	or 0,0,10
	.loc 6 278 0
	lis 10,.LC9@ha
	.loc 6 277 0
	stw 0,16(1)
	lfs 0,16(1)
.LVL102:
	fmr 13,0
.LVL103:
	.loc 6 278 0
	lfs 0,.LC9@l(10)
.LVL104:
	fmul 4,13,13
	fmadd 4,9,4,0
	fmul 13,13,4
.LVL105:
	.loc 6 279 0
	fmul 4,13,13
	fmadd 9,9,4,0
.LVL106:
.LBE1807:
.LBE1822:
	.loc 2 193 0
	lfs 4,8(1)
.LBB1823:
.LBB1808:
	.loc 6 279 0
	fmul 13,13,9
.LVL107:
	.loc 6 280 0
	frsp 13,13
.LVL108:
.LBE1808:
.LBE1823:
	.loc 2 193 0
	fmuls 9,4,13
.LVL109:
	.loc 2 196 0
	fcmpu 7,3,9
	bnl- 7,.L90
	.cfi_offset 63, -8
	.cfi_offset 62, -16
	.cfi_offset 61, -24
	.cfi_offset 60, -32
	.cfi_offset 59, -40
.L85:
.LVL110:
.LBB1824:
.LBB1825:
	.loc 3 452 0 discriminator 4
	lfs 0,.LC7@l(11)
.LBE1825:
.LBE1824:
	.loc 2 198 0 discriminator 4
	li 3,0
.LVL111:
.LBE2015:
	.loc 2 211 0 discriminator 4
	lfd 27,24(1)
.LBB2016:
.LBB1831:
.LBB1826:
	.loc 3 452 0 discriminator 4
	fmadds 11,11,0,5
.LVL112:
.LBE1826:
.LBE1831:
.LBE2016:
	.loc 2 211 0 discriminator 4
	lfd 28,32(1)
.LBB2017:
.LBB1832:
.LBB1827:
	.loc 3 452 0 discriminator 4
	fmadds 10,10,0,6
.LVL113:
.LBE1827:
.LBE1832:
.LBE2017:
	.loc 2 211 0 discriminator 4
	lfd 29,40(1)
.LBB2018:
.LBB1833:
.LBB1828:
	.loc 3 452 0 discriminator 4
	fmadds 12,12,0,7
.LVL114:
.LBE1828:
.LBE1833:
.LBE2018:
	.loc 2 211 0 discriminator 4
	lfd 30,48(1)
	lfd 31,56(1)
.LBB2019:
.LBB1834:
.LBB1829:
	.loc 3 424 0 discriminator 4
	stfs 11,0(7)
.LBE1829:
.LBE1834:
.LBE2019:
	.loc 2 211 0 discriminator 4
	addi 1,1,64
	.cfi_remember_state
.LCFI40:
	.cfi_def_cfa_offset 0
	.cfi_restore 63
	.cfi_restore 62
	.cfi_restore 61
	.cfi_restore 60
	.cfi_restore 59
.LBB2020:
.LBB1835:
.LBB1830:
	.loc 3 425 0 discriminator 4
	stfs 10,4(7)
	.loc 3 426 0 discriminator 4
	stfs 12,8(7)
.LBE1830:
.LBE1835:
.LBE2020:
	.loc 2 211 0 discriminator 4
	blr
.LVL115:
.L90:
.LCFI41:
	.cfi_restore_state
.LBB2021:
	.loc 2 196 0 discriminator 2
	fsubs 4,1,2
	stfs 4,16(1)
	lwz 0,16(1)
.LBB1836:
.LBB1837:
	.loc 6 781 0 discriminator 2
	rlwinm 0,0,0,1,31
.LBE1837:
.LBE1836:
	.loc 2 196 0 discriminator 2
	stw 0,16(1)
	lfs 4,16(1)
	fcmpu 7,9,4
	blt- 7,.L85
.LVL116:
.LBB1838:
.LBB1839:
	.loc 3 490 0
	fmuls 10,10,13
.LVL117:
.LBE1839:
.LBE1838:
.LBB1842:
.LBB1843:
	.loc 3 435 0
	lfs 3,4(6)
.LBE1843:
.LBE1842:
.LBB1854:
.LBB1840:
	.loc 3 489 0
	fmuls 11,11,13
.LVL118:
.LBE1840:
.LBE1854:
.LBB1855:
.LBB1844:
	.loc 3 435 0
	lfs 31,0(6)
.LBE1844:
.LBE1855:
.LBB1856:
.LBB1841:
	.loc 3 491 0
	fmuls 12,12,13
.LVL119:
.LBE1841:
.LBE1856:
.LBB1857:
.LBB1845:
	.loc 3 435 0
	lfs 29,8(6)
	fmuls 30,10,3
.LBE1845:
.LBE1857:
	.loc 2 210 0
	li 3,1
.LVL120:
	.loc 2 205 0
	fmuls 1,1,1
.LVL121:
.LBB1858:
.LBB1846:
	.loc 2 186 0
	fneg 27,10
	.loc 3 435 0
	fmadds 30,11,31,30
.LBE1846:
.LBE1858:
	.loc 2 205 0
	fmadds 9,9,9,1
.LVL122:
	.loc 2 186 0
	fneg 28,2
.LBB1859:
.LBB1847:
	.loc 3 435 0
	fmadds 30,12,29,30
.LVL123:
	.loc 2 186 0
	fneg 4,11
.LBE1847:
.LBE1859:
	.loc 2 205 0
	fmadds 2,28,2,9
.LVL124:
.LBE2021:
	.loc 2 211 0
	lfd 28,32(1)
.LBB2022:
.LBB1860:
.LBB1848:
	.loc 3 431 0
	fmadds 3,27,30,3
.LBE1848:
.LBE1860:
.LBE2022:
	.loc 2 211 0
	lfd 27,24(1)
.LBB2023:
	.loc 2 205 0
	fmuls 13,13,8
.LVL125:
.LBB1861:
.LBB1849:
	.loc 3 431 0
	fmadds 31,4,30,31
.LBE1849:
.LBE1861:
.LBB1862:
.LBB1863:
	.loc 3 649 0
	fmuls 9,3,3
.LBE1863:
.LBE1862:
	.loc 2 205 0
	fmuls 13,2,13
.LBB1911:
.LBB1850:
	.loc 2 186 0
	fneg 4,12
	.loc 3 649 0
	fmadds 9,31,31,9
.LBE1850:
.LBE1911:
	.loc 2 186 0
	fneg 2,13
.LBB1912:
.LBB1851:
	.loc 3 431 0
	fmadds 4,4,30,29
.LVL126:
.LBE1851:
.LBE1912:
.LBB1913:
.LBB1914:
	.loc 3 452 0
	fmadds 11,13,11,5
.LVL127:
.LBE1914:
.LBE1913:
	.loc 2 206 0
	fmadds 2,2,13,1
.LBB1921:
.LBB1852:
	.loc 3 649 0
	fmadds 9,4,4,9
.LBE1852:
.LBE1921:
.LBB1922:
.LBB1915:
	.loc 3 452 0
	fmadds 10,13,10,6
.LVL128:
.LBE1915:
.LBE1922:
	.loc 2 206 0
	stfs 2,8(1)
.LBB1923:
.LBB1924:
.LBB1925:
.LBB1926:
	.loc 6 275 0
	fmuls 30,2,8
.LVL129:
.LBE1926:
.LBE1925:
.LBE1924:
.LBE1923:
.LBB1973:
.LBB1853:
	.loc 3 649 0
	stfs 9,12(1)
.LVL130:
.LBE1853:
.LBE1973:
.LBB1974:
.LBB1894:
.LBB1864:
.LBB1865:
	.loc 6 275 0
	fmuls 29,9,8
.LBE1865:
.LBE1864:
.LBE1894:
.LBE1974:
.LBB1975:
.LBB1957:
.LBB1942:
.LBB1927:
	.loc 6 270 0
	lwz 0,8(1)
.LBE1927:
.LBE1942:
.LBE1957:
.LBE1975:
.LBB1976:
.LBB1916:
	.loc 3 452 0
	fmadds 12,13,12,7
.LVL131:
.LBE1916:
.LBE1976:
.LBB1977:
.LBB1895:
.LBB1880:
.LBB1866:
	.loc 6 270 0
	lwz 11,12(1)
.LVL132:
.LBE1866:
.LBE1880:
.LBE1895:
.LBE1977:
.LBB1978:
.LBB1958:
.LBB1943:
.LBB1928:
	.loc 2 186 0
	fneg 30,30
	.loc 6 276 0
	rlwinm 8,0,9,24,31
	rlwinm 0,0,19,21,29
.LBE1928:
.LBE1943:
.LBE1958:
.LBE1978:
.LBB1979:
.LBB1896:
.LBB1881:
.LBB1867:
	rlwinm 6,11,9,24,31
.LVL133:
	rlwinm 11,11,19,21,29
	lwzx 10,9,11
	.loc 2 186 0
	fneg 29,29
.LVL134:
.LBE1867:
.LBE1881:
.LBE1896:
.LBE1979:
.LBB1980:
.LBB1959:
.LBB1944:
.LBB1929:
	.loc 6 276 0
	lwzx 11,9,0
.LBE1929:
.LBE1944:
.LBE1959:
.LBE1980:
.LBB1981:
.LBB1897:
.LBB1882:
.LBB1868:
	subfic 9,6,380
	rlwinm 9,9,22,0,8
.LBE1868:
.LBE1882:
.LBE1897:
.LBE1981:
.LBB1982:
.LBB1960:
.LBB1945:
.LBB1930:
	subfic 0,8,380
.LBE1930:
.LBE1945:
.LBE1960:
.LBE1982:
.LBB1983:
.LBB1898:
.LBB1883:
.LBB1869:
	or 9,9,10
.LBE1869:
.LBE1883:
.LBE1898:
.LBE1983:
.LBB1984:
.LBB1961:
.LBB1946:
.LBB1931:
	rlwinm 0,0,22,0,8
.LBE1931:
.LBE1946:
.LBE1961:
.LBE1984:
.LBB1985:
.LBB1899:
.LBB1884:
.LBB1870:
	.loc 6 277 0
	stw 9,16(1)
.LBE1870:
.LBE1884:
.LBE1899:
.LBE1985:
.LBB1986:
.LBB1962:
.LBB1947:
.LBB1932:
	.loc 6 276 0
	or 0,0,11
.LBE1932:
.LBE1947:
.LBE1962:
.LBE1986:
.LBB1987:
.LBB1900:
.LBB1885:
.LBB1871:
	.loc 6 277 0
	lfs 8,16(1)
.LBE1871:
.LBE1885:
.LBE1900:
.LBE1987:
.LBB1988:
.LBB1963:
.LBB1948:
.LBB1933:
	stw 0,16(1)
.LBE1933:
.LBE1948:
.LBE1963:
.LBE1988:
.LBB1989:
.LBB1901:
.LBB1886:
.LBB1872:
	fmr 9,8
.LVL135:
.LBE1872:
.LBE1886:
.LBE1901:
.LBE1989:
.LBB1990:
.LBB1964:
.LBB1949:
.LBB1934:
	lfs 8,16(1)
.LVL136:
	fmr 2,8
.LBE1934:
.LBE1949:
.LBE1964:
.LBE1990:
.LBB1991:
.LBB1902:
.LBB1887:
.LBB1873:
	.loc 6 278 0
	fmul 8,9,9
.LBE1873:
.LBE1887:
.LBE1902:
.LBE1991:
.LBB1992:
.LBB1965:
.LBB1950:
.LBB1935:
	fmul 1,2,2
.LBE1935:
.LBE1950:
.LBE1965:
.LBE1992:
.LBB1993:
.LBB1903:
.LBB1888:
.LBB1874:
	fmadd 8,29,8,0
.LBE1874:
.LBE1888:
.LBE1903:
.LBE1993:
.LBB1994:
.LBB1966:
.LBB1951:
.LBB1936:
	fmadd 1,30,1,0
.LBE1936:
.LBE1951:
.LBE1966:
.LBE1994:
.LBB1995:
.LBB1904:
.LBB1889:
.LBB1875:
	fmul 8,9,8
.LVL137:
.LBE1875:
.LBE1889:
.LBE1904:
.LBE1995:
.LBB1996:
.LBB1967:
.LBB1952:
.LBB1937:
	fmul 1,2,1
.LBE1937:
.LBE1952:
.LBE1967:
.LBE1996:
.LBB1997:
.LBB1905:
.LBB1890:
.LBB1876:
	.loc 6 279 0
	fmul 9,8,8
.LBE1876:
.LBE1890:
.LBE1905:
.LBE1997:
.LBB1998:
.LBB1968:
.LBB1953:
.LBB1938:
	fmul 13,1,1
.LBE1938:
.LBE1953:
.LBE1968:
.LBE1998:
.LBB1999:
.LBB1906:
.LBB1891:
.LBB1877:
	fmadd 9,29,9,0
.LVL138:
.LBE1877:
.LBE1891:
.LBE1906:
.LBE1999:
.LBE2023:
	.loc 2 211 0
	lfd 29,40(1)
.LBB2024:
.LBB2000:
.LBB1969:
.LBB1954:
.LBB1939:
	.loc 6 279 0
	fmadd 0,30,13,0
.LBE1939:
.LBE1954:
	.loc 6 303 0
	lfs 13,8(1)
.LBE1969:
.LBE2000:
.LBB2001:
.LBB1907:
.LBB1892:
.LBB1878:
	.loc 6 279 0
	fmul 9,8,9
.LVL139:
.LBE1878:
.LBE1892:
.LBE1907:
.LBE2001:
.LBE2024:
	.loc 2 211 0
	lfd 30,48(1)
.LBB2025:
.LBB2002:
.LBB1970:
.LBB1955:
.LBB1940:
	.loc 6 279 0
	fmul 0,1,0
.LBE1940:
.LBE1955:
.LBE1970:
.LBE2002:
.LBB2003:
.LBB1908:
.LBB1893:
.LBB1879:
	.loc 6 280 0
	frsp 9,9
.LVL140:
.LBE1879:
.LBE1893:
.LBE1908:
.LBE2003:
.LBB2004:
.LBB1971:
.LBB1956:
.LBB1941:
	frsp 0,0
.LBE1941:
.LBE1956:
.LBE1971:
.LBE2004:
.LBB2005:
.LBB1909:
	.loc 3 651 0
	fmuls 31,31,9
.LVL141:
	.loc 3 652 0
	fmuls 3,3,9
.LVL142:
.LBE1909:
.LBE2005:
.LBB2006:
.LBB1972:
	.loc 6 303 0
	fmuls 0,13,0
.LVL143:
.LBE1972:
.LBE2006:
.LBB2007:
.LBB1910:
	.loc 3 653 0
	fmuls 9,4,9
.LVL144:
.LBE1910:
.LBE2007:
.LBB2008:
.LBB1917:
	.loc 3 452 0
	fmadds 11,0,31,11
.LBE1917:
.LBE2008:
.LBE2025:
	.loc 2 211 0
	lfd 31,56(1)
.LBB2026:
.LBB2009:
.LBB1918:
	.loc 3 452 0
	fmadds 10,0,3,10
.LBE1918:
.LBE2009:
.LBE2026:
	.loc 2 211 0
.LBB2027:
.LBB2010:
.LBB1919:
	.loc 3 452 0
	fmadds 0,0,9,12
.LVL145:
.LBE1919:
.LBE2010:
.LBE2027:
	.loc 2 211 0
	addi 1,1,64
	.cfi_restore 59
	.cfi_restore 60
	.cfi_restore 61
	.cfi_restore 62
	.cfi_restore 63
.LCFI42:
	.cfi_def_cfa_offset 0
.LBB2028:
.LBB2011:
.LBB1920:
	.loc 3 424 0
	stfs 11,0(7)
	.loc 3 425 0
	stfs 10,4(7)
	.loc 3 426 0
	stfs 0,8(7)
.LBE1920:
.LBE2011:
.LBE2028:
	.loc 2 211 0
	blr
	.cfi_endproc
.LFE2823:
	.size	_ZN4idIK13SolveTwoBonesERK6idVec3S2_S2_ffRS0_, .-_ZN4idIK13SolveTwoBonesERK6idVec3S2_S2_ffRS0_
	.align 2
	.globl _ZN4idIK11GetBoneAxisERK6idVec3S2_S2_R6idMat3
	.type	_ZN4idIK11GetBoneAxisERK6idVec3S2_S2_R6idMat3, @function
_ZN4idIK11GetBoneAxisERK6idVec3S2_S2_R6idMat3:
.LFB2824:
	.loc 2 218 0
	.cfi_startproc
.LVL146:
.LBB2056:
.LBB2057:
.LBB2058:
	.loc 3 431 0
	lfs 0,4(4)
.LBE2058:
.LBE2057:
.LBB2061:
.LBB2062:
.LBB2063:
.LBB2064:
	.loc 6 275 0
	lis 9,.LC7@ha
.LBE2064:
.LBE2063:
.LBE2062:
.LBE2061:
.LBB2079:
.LBB2059:
	.loc 3 431 0
	lfs 13,4(5)
	lfs 12,0(5)
	fsubs 13,13,0
	lfs 0,0(4)
	lfs 10,8(5)
	fsubs 12,12,0
	lfs 0,8(4)
.LBE2059:
.LBE2079:
.LBB2080:
.LBB2073:
	.loc 3 649 0
	fmuls 11,13,13
.LVL147:
.LBE2073:
.LBE2080:
.LBE2056:
	.loc 2 218 0
	stwu 1,-16(1)
.LCFI43:
	.cfi_def_cfa_offset 16
.LBB2121:
.LBB2081:
.LBB2060:
	.loc 3 431 0
	fsubs 0,10,0
.LVL148:
.LBE2060:
.LBE2081:
.LBB2082:
.LBB2083:
	.loc 3 425 0
	stfs 13,4(7)
	.loc 3 424 0
	stfs 12,0(7)
	.loc 3 649 0
	fmadds 11,12,12,11
.LBE2083:
.LBE2082:
.LBB2086:
.LBB2074:
.LBB2069:
.LBB2065:
	.loc 6 275 0
	lfs 5,.LC7@l(9)
.LBE2065:
.LBE2069:
.LBE2074:
.LBE2086:
.LBB2087:
.LBB2084:
	.loc 3 426 0
	stfs 0,8(7)
.LVL149:
.LBE2084:
.LBE2087:
.LBB2088:
.LBB2075:
.LBB2070:
.LBB2066:
	.loc 6 276 0
	lis 9,_ZN6idMath5iSqrtE@ha
	la 9,_ZN6idMath5iSqrtE@l(9)
.LBE2066:
.LBE2070:
.LBE2075:
.LBE2088:
.LBB2089:
.LBB2085:
	.loc 3 649 0
	fmadds 11,0,0,11
	stfs 11,8(1)
.LBE2085:
.LBE2089:
.LBB2090:
.LBB2076:
.LBB2071:
.LBB2067:
	.loc 6 275 0
	fmuls 9,11,5
	.loc 6 270 0
	lwz 0,8(1)
.LVL150:
	.loc 2 218 0
	fneg 9,9
	.loc 6 276 0
	rlwinm 10,0,9,24,31
	rlwinm 0,0,19,21,29
	lwzx 11,9,0
	subfic 0,10,380
	rlwinm 0,0,22,0,8
	or 0,0,11
	.loc 6 278 0
	lis 11,.LC9@ha
	.loc 6 277 0
	stw 0,12(1)
	.loc 6 278 0
	lfs 8,.LC9@l(11)
	.loc 6 277 0
	lfs 7,12(1)
	fmr 10,7
.LVL151:
	.loc 6 278 0
	fmul 11,10,10
	fmadd 11,9,11,8
	fmul 11,10,11
.LVL152:
	.loc 6 279 0
	fmul 1,11,11
	fmadd 1,9,1,8
.LVL153:
	fmul 1,11,1
.LVL154:
.LBE2067:
.LBE2071:
.LBE2076:
.LBE2090:
.LBE2121:
	.loc 2 226 0
	lfs 11,8(1)
.LBB2122:
.LBB2091:
.LBB2077:
.LBB2072:
.LBB2068:
	.loc 6 280 0
	frsp 1,1
.LVL155:
.LBE2068:
.LBE2072:
	.loc 3 651 0
	fmuls 12,12,1
.LVL156:
	.loc 3 652 0
	fmuls 13,13,1
.LVL157:
	.loc 3 653 0
	fmuls 0,0,1
.LVL158:
	.loc 3 651 0
	stfs 12,0(7)
.LBE2077:
.LBE2091:
.LBE2122:
	.loc 2 226 0
	fmuls 1,11,1
.LBB2123:
.LBB2092:
.LBB2078:
	.loc 3 652 0
	stfs 13,4(7)
	.loc 3 653 0
	stfs 0,8(7)
.LVL159:
.LBE2078:
.LBE2092:
.LBB2093:
.LBB2094:
	.loc 3 435 0
	lfs 10,4(6)
.LVL160:
	lfs 9,0(6)
	fmuls 11,10,13
	lfs 7,8(6)
	fmadds 11,9,12,11
.LVL161:
	.loc 2 218 0
	fnmadds 11,7,0,11
.LVL162:
	.loc 3 431 0
	fmadds 10,11,13,10
	fmadds 9,11,12,9
	fmadds 11,11,0,7
.LVL163:
.LBE2094:
.LBE2093:
.LBB2095:
.LBB2096:
	.loc 3 649 0
	fmuls 7,10,10
.LBE2096:
.LBE2095:
.LBB2103:
.LBB2104:
	.loc 3 425 0
	stfs 10,16(7)
	.loc 3 424 0
	stfs 9,12(7)
	.loc 3 426 0
	stfs 11,20(7)
.LVL164:
	.loc 3 649 0
	fmadds 7,9,9,7
	fmadds 7,11,11,7
	stfs 7,8(1)
.LVL165:
.LBE2104:
.LBE2103:
.LBB2105:
.LBB2099:
.LBB2097:
.LBB2098:
	.loc 6 275 0
	fmuls 5,7,5
	.loc 6 270 0
	lwz 0,8(1)
.LVL166:
	.loc 2 218 0
	fneg 5,5
	.loc 6 276 0
	rlwinm 11,0,9,24,31
	rlwinm 0,0,19,21,29
	lwzx 9,9,0
	subfic 0,11,380
	rlwinm 0,0,22,0,8
	or 0,0,9
	.loc 6 277 0
	stw 0,12(1)
	lfs 7,12(1)
.LVL167:
	fmr 6,7
.LVL168:
	.loc 6 278 0
	fmul 7,6,6
.LVL169:
	fmadd 7,5,7,8
	fmul 7,6,7
.LVL170:
	.loc 6 279 0
	fmul 6,7,7
	fmadd 8,5,6,8
.LVL171:
	fmul 8,7,8
.LVL172:
	.loc 6 280 0
	frsp 8,8
.LVL173:
.LBE2098:
.LBE2097:
	.loc 3 651 0
	fmuls 9,9,8
.LVL174:
	.loc 3 652 0
	fmuls 10,10,8
.LVL175:
	.loc 3 653 0
	fmuls 11,11,8
.LVL176:
.LBE2099:
.LBE2105:
.LBB2106:
.LBB2107:
	.loc 3 625 0
	fmuls 6,0,9
.LBE2107:
.LBE2106:
.LBB2113:
.LBB2100:
	.loc 3 651 0
	stfs 9,12(7)
.LBE2100:
.LBE2113:
.LBB2114:
.LBB2108:
	.loc 3 626 0
	fmuls 7,12,10
.LBE2108:
.LBE2114:
.LBB2115:
.LBB2101:
	.loc 3 652 0
	stfs 10,16(7)
.LBE2101:
.LBE2115:
.LBB2116:
.LBB2109:
	.loc 3 624 0
	fmuls 8,13,11
.LBE2109:
.LBE2116:
.LBE2123:
	.loc 2 226 0
.LBB2124:
.LBB2117:
.LBB2110:
	.loc 3 625 0
	fmsubs 12,12,11,6
.LVL177:
.LBE2110:
.LBE2117:
.LBB2118:
.LBB2102:
	.loc 3 653 0
	stfs 11,20(7)
.LVL178:
.LBE2102:
.LBE2118:
.LBB2119:
.LBB2111:
	.loc 3 626 0
	fmsubs 13,13,9,7
.LVL179:
.LBE2111:
.LBE2119:
.LBE2124:
	.loc 2 226 0
	addi 1,1,16
.LCFI44:
	.cfi_def_cfa_offset 0
.LBB2125:
.LBB2120:
.LBB2112:
	.loc 3 624 0
	fmsubs 0,0,10,8
.LVL180:
	.loc 3 625 0
	stfs 12,28(7)
	.loc 3 626 0
	stfs 13,32(7)
	.loc 3 624 0
	stfs 0,24(7)
.LBE2112:
.LBE2120:
.LBE2125:
	.loc 2 226 0
	blr
	.cfi_endproc
.LFE2824:
	.size	_ZN4idIK11GetBoneAxisERK6idVec3S2_S2_R6idMat3, .-_ZN4idIK11GetBoneAxisERK6idVec3S2_S2_R6idMat3
	.align 2
	.globl _ZN10idIK_Reach8EvaluateEv
	.type	_ZN10idIK_Reach8EvaluateEv, @function
_ZN10idIK_Reach8EvaluateEv:
.LFB2857:
	.loc 2 1063 0
	.cfi_startproc
.LVL181:
	mflr 0
	stwu 1,-800(1)
.LCFI45:
	.cfi_def_cfa_offset 800
	.cfi_register 65, 0
	stfd 20,704(1)
	stfd 21,712(1)
	stfd 22,720(1)
	stw 26,680(1)
	addi 26,1,344
	.cfi_offset 26, -120
	.cfi_offset 54, -80
	.cfi_offset 53, -88
	.cfi_offset 52, -96
	stw 29,692(1)
	mr 29,3
	.cfi_offset 29, -108
	stw 0,804(1)
	stfd 23,728(1)
	stfd 24,736(1)
	stfd 25,744(1)
	stfd 26,752(1)
	stfd 27,760(1)
	stfd 28,768(1)
	stfd 29,776(1)
	stfd 30,784(1)
	stfd 31,792(1)
	stw 15,636(1)
	stw 16,640(1)
	stw 17,644(1)
	stw 18,648(1)
	stw 19,652(1)
	stw 20,656(1)
	stw 21,660(1)
	stw 22,664(1)
	stw 23,668(1)
	stw 24,672(1)
	stw 25,676(1)
	stw 27,684(1)
	stw 28,688(1)
	stw 30,696(1)
	stw 31,700(1)
.LBB2257:
	.loc 2 1070 0
	lwz 3,8(3)
.LVL182:
	lwz 9,0(3)
	lwz 0,36(9)
	.cfi_offset 31, -100
	.cfi_offset 30, -104
	.cfi_offset 28, -112
	.cfi_offset 27, -116
	.cfi_offset 25, -124
	.cfi_offset 24, -128
	.cfi_offset 23, -132
	.cfi_offset 22, -136
	.cfi_offset 21, -140
	.cfi_offset 20, -144
	.cfi_offset 19, -148
	.cfi_offset 18, -152
	.cfi_offset 17, -156
	.cfi_offset 16, -160
	.cfi_offset 15, -164
	.cfi_offset 63, -8
	.cfi_offset 62, -16
	.cfi_offset 61, -24
	.cfi_offset 60, -32
	.cfi_offset 59, -40
	.cfi_offset 58, -48
	.cfi_offset 57, -56
	.cfi_offset 56, -64
	.cfi_offset 55, -72
	.cfi_offset 65, 4
	mtctr 0
	bctrl
	mr 9,3
.LVL183:
	.loc 2 1071 0
	lwz 3,8(29)
.LVL184:
.LBB2258:
.LBB2259:
	.loc 3 424 0
	lfs 22,60(9)
.LVL185:
.LBE2259:
.LBE2258:
	.loc 2 1071 0
	lwz 11,0(3)
.LBB2262:
.LBB2260:
	.loc 3 425 0
	lfs 21,64(9)
.LVL186:
.LBE2260:
.LBE2262:
	.loc 2 1071 0
	lwz 0,36(11)
.LBB2263:
.LBB2261:
	.loc 3 426 0
	lfs 20,68(9)
.LVL187:
.LBE2261:
.LBE2263:
	.loc 2 1071 0
	mtctr 0
	bctrl
.LVL188:
.LBB2264:
.LBB2265:
	.file 7 "d:/Data/Nintendo/DoomGX/src/game/../idlib/../idlib/math/Matrix.h"
	.loc 7 333 0
	li 10,0
	addi 3,3,72
.LVL189:
.L93:
.LBB2266:
.LBB2267:
	.loc 3 424 0
	mr 11,3
.LBE2267:
.LBE2266:
	.loc 7 333 0
	cmpwi 7,10,24
.LBB2270:
.LBB2268:
	.loc 3 424 0
	lwzux 0,11,10
	mr 9,26
	stwux 0,9,10
.LBE2268:
.LBE2270:
	.loc 7 333 0
	addi 10,10,12
.LBB2271:
.LBB2269:
	.loc 3 425 0
	lwz 8,4(11)
	.loc 3 426 0
	lwz 0,8(11)
	.loc 3 425 0
	stw 8,4(9)
	.loc 3 426 0
	stw 0,8(9)
.LBE2269:
.LBE2271:
	.loc 7 333 0
	bne+ 7,.L93
.LVL190:
.LBE2265:
.LBE2264:
	.loc 2 1074 0 discriminator 1
	lwz 0,32(29)
	cmpwi 7,0,0
	ble- 7,.L94
	lis 24,gameLocal+2424832@ha
	lis 19,gameLocal+2311032@ha
	lis 20,mat3_identity@ha
	lis 21,ik_debug@ha
	.loc 2 1097 0
	lis 18,colorCyan@ha
	.loc 2 1098 0
	lis 17,colorRed@ha
	.loc 2 1099 0
	lis 16,colorYellow@ha
	.loc 2 1100 0
	lis 15,colorGreen@ha
	.loc 2 1074 0
	lfs 31,344(1)
	mr 25,29
	lfs 23,356(1)
	mr 28,29
	lfs 24,368(1)
	li 27,0
	lfs 25,348(1)
	la 24,gameLocal+2424832@l(24)
	lfs 26,360(1)
	la 19,gameLocal+2311032@l(19)
	lfs 27,372(1)
	la 20,mat3_identity@l(20)
	lfs 28,352(1)
	la 21,ik_debug@l(21)
	lfs 29,364(1)
	addi 31,1,236
	lfs 30,376(1)
	addi 30,1,164
	.loc 2 1097 0
	lis 22,gameRenderWorld@ha
	la 18,colorCyan@l(18)
	.loc 2 1098 0
	la 17,colorRed@l(17)
	.loc 2 1099 0
	la 16,colorYellow@l(16)
	.loc 2 1100 0
	la 15,colorGreen@l(15)
.LVL191:
.L104:
	.loc 2 1077 0
	lwz 4,56(28)
	.loc 2 1079 0
	mulli 23,27,12
	.loc 2 1077 0
	lwz 5,2004(24)
	addi 6,1,80
	lwz 3,12(29)
	addi 7,1,308
	bl _ZN10idAnimator17GetJointTransformE13jointHandle_tiR6idVec3R6idMat3
.LVL192:
	.loc 2 1079 0
	addi 11,23,64
	add 11,29,11
.LBB2272:
.LBB2273:
.LBB2274:
	.loc 7 454 0
	lfs 10,324(1)
	lfs 0,12(11)
.LBE2274:
.LBE2273:
.LBE2272:
	.loc 2 1082 0
	addi 6,1,56
.LBB2295:
.LBB2285:
.LBB2275:
	.loc 7 454 0
	lfs 9,8(11)
.LBE2275:
.LBE2285:
.LBE2295:
	.loc 2 1082 0
	addi 7,1,308
.LBB2296:
.LBB2286:
.LBB2276:
	.loc 7 454 0
	fmuls 10,0,10
	lfs 12,312(1)
	lfs 13,320(1)
.LBE2276:
.LBE2286:
.LBE2296:
	.loc 2 1091 0
	addi 23,23,96
.LBB2297:
.LBB2287:
.LBB2277:
	.loc 7 454 0
	lfs 11,16(11)
	fmadds 10,9,12,10
	lfs 8,336(1)
.LBE2277:
.LBE2287:
.LBE2297:
.LBB2298:
.LBB2299:
.LBB2300:
	lfs 12,84(1)
.LBE2300:
.LBE2299:
.LBE2298:
.LBB2311:
.LBB2288:
.LBB2278:
	fmuls 13,0,13
	lfs 6,332(1)
	fmadds 10,11,8,10
	lfs 4,340(1)
.LBE2278:
.LBE2288:
.LBE2311:
.LBB2312:
.LBB2306:
.LBB2301:
	fmuls 7,12,23
.LBE2301:
.LBE2306:
.LBE2312:
	.loc 2 1082 0
	lwz 4,40(28)
.LBB2313:
.LBB2307:
.LBB2302:
	.loc 7 454 0
	fmuls 8,12,26
.LBE2302:
.LBE2307:
.LBE2313:
	.loc 2 1082 0
	lwz 5,2004(24)
.LBB2314:
.LBB2308:
.LBB2303:
	.loc 7 454 0
	fmuls 5,12,29
.LBE2303:
.LBE2308:
.LBE2314:
.LBB2315:
.LBB2289:
.LBB2279:
	lfs 12,308(1)
.LBE2279:
.LBE2289:
.LBE2315:
	.loc 2 1082 0
	lwz 3,12(29)
.LBB2316:
.LBB2290:
.LBB2280:
	.loc 7 454 0
	fmadds 13,12,9,13
	lfs 12,328(1)
	fmuls 0,0,12
.LBE2280:
.LBE2290:
.LBE2316:
.LBB2317:
.LBB2309:
.LBB2304:
	lfs 12,80(1)
.LBE2304:
.LBE2309:
.LBE2317:
.LBB2318:
.LBB2291:
.LBB2281:
	fmadds 13,6,11,13
.LBE2281:
.LBE2291:
.LBE2318:
.LBB2319:
.LBB2320:
	fmadds 5,12,28,5
	fmadds 7,12,31,7
	fmadds 8,12,25,8
.LBE2320:
.LBE2319:
.LBB2326:
.LBB2292:
.LBB2282:
	lfs 12,316(1)
.LBE2282:
.LBE2292:
.LBE2326:
.LBB2327:
.LBB2328:
.LBB2329:
	fmuls 6,10,26
.LBE2329:
.LBE2328:
.LBE2327:
.LBB2332:
.LBB2293:
.LBB2283:
	fmadds 0,9,12,0
.LBE2283:
.LBE2293:
.LBE2332:
.LBB2333:
.LBB2310:
.LBB2305:
	lfs 12,88(1)
.LVL193:
.LBE2305:
.LBE2310:
.LBE2333:
.LBB2334:
.LBB2331:
.LBB2330:
	fmuls 9,10,23
	fmuls 10,10,29
.LBE2330:
.LBE2331:
.LBE2334:
.LBB2335:
.LBB2294:
.LBB2284:
	fmadds 0,11,4,0
.LVL194:
.LBE2284:
.LBE2294:
.LBE2335:
.LBB2336:
.LBB2321:
	fmadds 7,12,24,7
.LBE2321:
.LBE2336:
.LBB2337:
.LBB2338:
	fmadds 11,13,25,6
.LBE2338:
.LBE2337:
.LBB2343:
.LBB2322:
	fmadds 8,12,27,8
.LBE2322:
.LBE2343:
.LBB2344:
.LBB2339:
	fmadds 9,13,31,9
.LBE2339:
.LBE2344:
.LBB2345:
.LBB2323:
	fmadds 12,12,30,5
.LBE2323:
.LBE2345:
.LBB2346:
.LBB2340:
	fmadds 13,13,28,10
	fmadds 9,0,24,9
.LBE2340:
.LBE2346:
.LBB2347:
.LBB2324:
	.loc 3 452 0
	fadds 7,22,7
	fadds 8,21,8
.LBE2324:
.LBE2347:
.LBB2348:
.LBB2341:
	.loc 7 454 0
	fmadds 11,0,27,11
	.loc 3 424 0
	stfs 9,44(1)
	.loc 7 454 0
	fmadds 0,0,30,13
.LVL195:
.LBE2341:
.LBE2348:
.LBB2349:
.LBB2350:
	.loc 3 424 0
	stfs 7,80(1)
.LBE2350:
.LBE2349:
.LBB2353:
.LBB2325:
	.loc 3 452 0
	fadds 12,20,12
.LBE2325:
.LBE2353:
.LBB2354:
.LBB2351:
	.loc 3 425 0
	stfs 8,84(1)
.LBE2351:
.LBE2354:
.LBB2355:
.LBB2342:
	stfs 11,48(1)
	.loc 3 426 0
	stfs 0,52(1)
.LBE2342:
.LBE2355:
.LBB2356:
.LBB2352:
	stfs 12,88(1)
.LBE2352:
.LBE2356:
	.loc 2 1082 0
	bl _ZN10idAnimator17GetJointTransformE13jointHandle_tiR6idVec3R6idMat3
.LVL196:
.LBB2357:
.LBB2358:
.LBB2359:
	.loc 7 454 0
	lfs 13,60(1)
.LBE2359:
.LBE2358:
.LBE2357:
.LBB2370:
.LBB2371:
	.file 8 "d:/Data/Nintendo/DoomGX/src/game/physics/Clip.h"
	.loc 8 334 0
	mr 8,20
.LBE2371:
.LBE2370:
.LBB2380:
.LBB2365:
.LBB2360:
	.loc 7 454 0
	lfs 0,56(1)
.LBE2360:
.LBE2365:
.LBE2380:
.LBB2381:
.LBB2372:
	.loc 8 334 0
	li 9,1
.LBE2372:
.LBE2381:
.LBB2382:
.LBB2366:
.LBB2361:
	.loc 7 454 0
	fmuls 11,13,23
.LBE2361:
.LBE2366:
.LBE2382:
.LBB2383:
.LBB2373:
	.loc 8 334 0
	lwz 10,8(29)
.LBE2373:
.LBE2383:
.LBB2384:
.LBB2367:
.LBB2362:
	.loc 7 454 0
	fmuls 12,13,26
.LBE2362:
.LBE2367:
.LBE2384:
.LBB2385:
.LBB2374:
	.loc 8 334 0
	addi 4,1,524
.LBE2374:
.LBE2385:
.LBB2386:
.LBB2368:
.LBB2363:
	.loc 7 454 0
	fmuls 13,13,29
.LBE2363:
.LBE2368:
.LBE2386:
.LBB2387:
.LBB2375:
	.loc 8 334 0
	addi 5,1,80
.LVL197:
.LBE2375:
.LBE2387:
.LBB2388:
.LBB2389:
	.loc 7 454 0
	fmadds 11,0,31,11
.LBE2389:
.LBE2388:
.LBB2393:
.LBB2376:
	.loc 8 334 0
	addi 6,1,56
.LVL198:
.LBE2376:
.LBE2393:
.LBB2394:
.LBB2390:
	.loc 7 454 0
	fmadds 12,0,25,12
.LBE2390:
.LBE2394:
.LBB2395:
.LBB2377:
	.loc 8 334 0
	li 7,0
.LBE2377:
.LBE2395:
.LBB2396:
.LBB2391:
	.loc 7 454 0
	fmadds 13,0,28,13
.LBE2391:
.LBE2396:
.LBB2397:
.LBB2369:
.LBB2364:
	lfs 0,64(1)
.LVL199:
.LBE2364:
.LBE2369:
.LBE2397:
.LBB2398:
.LBB2378:
	.loc 8 334 0
	mr 3,19
.LBE2378:
.LBE2398:
.LBB2399:
.LBB2392:
	.loc 7 454 0
	fmadds 11,0,24,11
	fmadds 12,0,27,12
	fmadds 0,0,30,13
	.loc 3 452 0
	fadds 11,22,11
	fadds 12,21,12
	fadds 0,20,0
.LBE2392:
.LBE2399:
.LBB2400:
.LBB2401:
	.loc 3 424 0
	stfs 11,56(1)
	.loc 3 425 0
	stfs 12,60(1)
	.loc 3 426 0
	stfs 0,64(1)
.LVL200:
.LBE2401:
.LBE2400:
.LBB2402:
.LBB2379:
	.loc 8 334 0
	bl _ZN6idClip11TranslationER7trace_sRK6idVec3S4_PK11idClipModelRK6idMat3iPK8idEntity
.LVL201:
.LBE2379:
.LBE2402:
.LBB2403:
.LBB2404:
	.loc 3 424 0
	lwz 0,528(1)
.LBE2404:
.LBE2403:
	.loc 2 1090 0
	addi 6,1,68
	lwz 4,48(28)
	addi 7,1,308
.LVL202:
.LBB2408:
.LBB2405:
	.loc 3 424 0
	stw 0,56(1)
	.loc 3 425 0
	lwz 0,532(1)
.LBE2405:
.LBE2408:
	.loc 2 1090 0
	lwz 5,2004(24)
.LBB2409:
.LBB2406:
	.loc 3 425 0
	stw 0,60(1)
.LBE2406:
.LBE2409:
	.loc 2 1090 0
	lwz 3,12(29)
.LBB2410:
.LBB2407:
	.loc 3 426 0
	lwz 0,536(1)
	stw 0,64(1)
.LBE2407:
.LBE2410:
	.loc 2 1090 0
	bl _ZN10idAnimator17GetJointTransformE13jointHandle_tiR6idVec3R6idMat3
.LVL203:
	.loc 2 1091 0
	add 9,29,23
.LVL204:
.LBB2411:
.LBB2412:
.LBB2413:
	.loc 7 454 0
	lfs 8,324(1)
	lfs 12,4(9)
.LBE2413:
.LBE2412:
.LBE2411:
	.loc 2 1094 0
	mr 3,29
.LBB2428:
.LBB2421:
.LBB2414:
	.loc 7 454 0
	lfsx 13,29,23
.LBE2414:
.LBE2421:
.LBE2428:
	.loc 2 1094 0
	addi 4,1,80
.LVL205:
.LBB2429:
.LBB2422:
.LBB2415:
	.loc 7 454 0
	fmuls 8,12,8
	lfs 0,312(1)
	lfs 10,320(1)
.LBE2415:
.LBE2422:
.LBE2429:
	.loc 2 1094 0
	addi 5,1,56
.LVL206:
.LBB2430:
.LBB2423:
.LBB2416:
	.loc 7 454 0
	lfs 9,8(9)
.LBE2416:
.LBE2423:
.LBE2430:
	.loc 2 1094 0
	addi 6,1,32
.LBB2431:
.LBB2424:
.LBB2417:
	.loc 7 454 0
	fmadds 8,13,0,8
	lfs 0,336(1)
	fmuls 10,12,10
	lfs 11,328(1)
.LBE2417:
.LBE2424:
.LBE2431:
	.loc 2 1094 0
	lfs 1,120(28)
	addi 7,1,68
.LBB2432:
.LBB2425:
.LBB2418:
	.loc 7 454 0
	fmadds 8,9,0,8
	lfs 0,308(1)
	fmuls 12,12,11
	lfs 11,316(1)
	fmadds 10,0,13,10
	lfs 0,332(1)
.LBE2418:
.LBE2425:
.LBE2432:
	.loc 2 1094 0
	lfs 2,128(28)
.LBB2433:
.LBB2426:
.LBB2419:
	.loc 7 454 0
	fmadds 11,13,11,12
	fmadds 10,0,9,10
	lfs 0,340(1)
.LBE2419:
.LBE2426:
.LBE2433:
.LBB2434:
.LBB2435:
.LBB2436:
	fmuls 12,8,23
	fmuls 13,8,26
	fmuls 8,8,29
.LBE2436:
.LBE2435:
.LBE2434:
.LBB2437:
.LBB2427:
.LBB2420:
	fmadds 11,9,0,11
.LVL207:
.LBE2420:
.LBE2427:
.LBE2437:
.LBB2438:
.LBB2439:
	fmadds 12,10,31,12
	fmadds 13,10,25,13
	fmadds 0,10,28,8
	fmadds 12,11,24,12
	fmadds 13,11,27,13
	fmadds 0,11,30,0
	.loc 3 424 0
	stfs 12,32(1)
	.loc 3 425 0
	stfs 13,36(1)
	.loc 3 426 0
	stfs 0,40(1)
.LBE2439:
.LBE2438:
	.loc 2 1094 0
	bl _ZN4idIK13SolveTwoBonesERK6idVec3S2_S2_ffRS0_
.LVL208:
.LBB2440:
.LBB2441:
	.loc 5 142 0
	lwz 9,44(21)
.LBE2441:
.LBE2440:
	.loc 2 1096 0
	lwz 0,36(9)
	cmpwi 7,0,0
	bne- 7,.L117
.L95:
	.loc 2 1105 0
	mulli 23,27,36
	.loc 2 1104 0
	addi 7,1,308
.LVL209:
	mr 3,29
	addi 4,1,80
.LVL210:
	addi 5,1,68
	addi 6,1,44
	bl _ZN4idIK11GetBoneAxisERK6idVec3S2_S2_R6idMat3
.LVL211:
	.loc 2 1105 0
	add 11,29,23
	addi 0,1,452
.LBB2442:
.LBB2443:
.LBB2444:
	.loc 7 425 0
	stfs 31,272(1)
	stfs 23,276(1)
.LBE2444:
.LBE2443:
.LBE2442:
	.loc 2 1105 0
	add 7,0,23
.LBB2457:
.LBB2451:
.LBB2445:
	.loc 7 425 0
	stfs 24,280(1)
.LBE2445:
.LBE2451:
.LBE2457:
	.loc 2 1105 0
	addi 11,11,136
.LVL212:
.LBB2458:
.LBB2452:
.LBB2446:
	.loc 7 426 0
	stfs 25,284(1)
.LBE2446:
.LBE2452:
.LBE2458:
	.loc 2 1105 0
	addi 9,1,308
.LVL213:
.LBB2459:
.LBB2453:
.LBB2447:
	.loc 7 426 0
	stfs 26,288(1)
.LBE2447:
.LBE2453:
.LBE2459:
	.loc 7 465 0
	mr 10,31
.LBB2460:
.LBB2454:
.LBB2448:
	.loc 7 426 0
	stfs 27,292(1)
	.loc 7 427 0
	stfs 28,296(1)
	stfs 29,300(1)
	stfs 30,304(1)
.LVL214:
.L96:
	.loc 2 1063 0
	lfs 0,4(9)
.LBE2448:
.LBE2454:
.LBE2460:
.LBB2461:
.LBB2462:
	.loc 7 471 0
	lfs 13,292(1)
	lfs 11,284(1)
	lfs 12,288(1)
	fmuls 11,0,11
	lfs 9,276(1)
	fmuls 12,0,12
	lfs 10,280(1)
	fmuls 0,0,13
.LBE2462:
.LBE2461:
.LBB2468:
.LBB2455:
.LBB2449:
	.loc 2 1063 0
	lfs 13,0(9)
.LBE2449:
.LBE2455:
.LBE2468:
.LBB2469:
.LBB2463:
	.loc 7 471 0
	lfs 8,296(1)
	fmadds 12,13,9,12
	lfs 9,300(1)
	fmadds 11,31,13,11
	fmadds 13,10,13,0
.LBE2463:
.LBE2469:
.LBB2470:
.LBB2456:
.LBB2450:
	.loc 2 1063 0
	lfs 0,8(9)
.LBE2450:
.LBE2456:
.LBE2470:
.LBB2471:
.LBB2464:
	.loc 7 471 0
	lfs 10,304(1)
	.loc 7 474 0
	addi 9,9,12
.LVL215:
	.loc 7 467 0
	cmpw 7,9,26
	.loc 7 471 0
	fmadds 11,8,0,11
	fmadds 12,9,0,12
	fmadds 0,10,0,13
	stfs 11,0(10)
.LVL216:
	stfs 12,4(10)
.LVL217:
	stfs 0,8(10)
.LVL218:
	addi 10,10,12
.LVL219:
	.loc 7 467 0
	bne+ 7,.L96
.LBE2464:
.LBE2471:
	.loc 2 1063 0
	addi 9,1,200
.LVL220:
.L97:
.LBB2472:
.LBB2465:
	.loc 7 467 0
	lfs 0,4(11)
.LBE2465:
.LBE2472:
.LBB2473:
.LBB2474:
	.loc 7 471 0
	lfs 13,20(31)
	lfs 11,12(31)
	lfs 12,16(31)
	fmuls 11,0,11
	lfs 8,0(31)
	fmuls 12,0,12
	lfs 9,4(31)
	fmuls 0,0,13
	lfs 10,8(31)
.LBE2474:
.LBE2473:
.LBB2477:
.LBB2466:
	.loc 7 467 0
	lfs 13,0(11)
.LBE2466:
.LBE2477:
.LBB2478:
.LBB2475:
	.loc 7 471 0
	fmadds 11,8,13,11
	lfs 8,24(31)
	fmadds 12,9,13,12
	lfs 9,28(31)
	fmadds 13,10,13,0
.LBE2475:
.LBE2478:
.LBB2479:
.LBB2467:
	.loc 7 467 0
	lfs 0,8(11)
.LBE2467:
.LBE2479:
.LBB2480:
.LBB2476:
	.loc 7 471 0
	lfs 10,32(31)
	.loc 7 474 0
	addi 11,11,12
	.loc 7 471 0
	fmadds 11,8,0,11
	fmadds 12,9,0,12
	fmadds 0,10,0,13
	stfs 11,0(9)
.LVL221:
	stfs 12,4(9)
.LVL222:
	stfs 0,8(9)
.LVL223:
	addi 9,9,12
.LVL224:
	.loc 7 467 0
	cmpw 7,9,31
	bne+ 7,.L97
.LVL225:
.LBE2476:
.LBE2480:
.LBB2481:
.LBB2482:
	.loc 7 333 0
	li 10,0
.LVL226:
.L99:
.LBB2483:
.LBB2484:
	.loc 3 424 0
	addi 11,1,200
.LVL227:
.LBE2484:
.LBE2483:
	.loc 7 333 0
	cmpwi 7,10,24
.LBB2487:
.LBB2485:
	.loc 3 424 0
	lwzux 0,11,10
.LVL228:
	mr 9,7
	stwux 0,9,10
.LBE2485:
.LBE2487:
	.loc 7 333 0
	addi 10,10,12
.LBB2488:
.LBB2486:
	.loc 3 425 0
	lwz 8,4(11)
	.loc 3 426 0
	lwz 0,8(11)
	.loc 3 425 0
	stw 8,4(9)
	.loc 3 426 0
	stw 0,8(9)
.LBE2486:
.LBE2488:
	.loc 7 333 0
	bne+ 7,.L99
.LBE2482:
.LBE2481:
	.loc 2 1108 0
	mr 3,29
	addi 4,1,68
	addi 5,1,56
.LVL229:
	addi 6,1,32
.LVL230:
	addi 7,1,308
.LVL231:
	bl _ZN4idIK11GetBoneAxisERK6idVec3S2_S2_R6idMat3
.LVL232:
	.loc 2 1109 0
	addi 9,23,208
	addi 0,1,380
.LBB2492:
.LBB2493:
.LBB2494:
	.loc 7 425 0
	stfs 31,164(1)
	stfs 23,168(1)
.LBE2494:
.LBE2493:
.LBE2492:
	.loc 2 1109 0
	add 23,0,23
.LVL233:
.LBB2509:
.LBB2502:
.LBB2495:
	.loc 7 425 0
	stfs 24,172(1)
.LBE2495:
.LBE2502:
.LBE2509:
	.loc 2 1109 0
	add 9,29,9
.LVL234:
.LBB2510:
.LBB2503:
.LBB2496:
	.loc 7 426 0
	stfs 25,176(1)
.LBE2496:
.LBE2503:
.LBE2510:
.LBB2511:
.LBB2489:
	.loc 2 1109 0
	addi 10,1,308
.LVL235:
.LBE2489:
.LBE2511:
.LBB2512:
.LBB2504:
.LBB2497:
	.loc 7 426 0
	stfs 26,180(1)
.LBE2497:
.LBE2504:
.LBE2512:
.LBB2513:
.LBB2490:
	.loc 7 465 0
	addi 11,1,128
.LBE2490:
.LBE2513:
.LBB2514:
.LBB2505:
.LBB2498:
	.loc 7 426 0
	stfs 27,184(1)
	.loc 7 427 0
	stfs 28,188(1)
	stfs 29,192(1)
	stfs 30,196(1)
.LVL236:
.L100:
	.loc 2 1063 0
	lfs 0,4(10)
.LBE2498:
.LBE2505:
.LBE2514:
.LBB2515:
.LBB2516:
	.loc 7 471 0
	lfs 13,20(30)
	lfs 11,12(30)
	lfs 12,16(30)
	fmuls 11,0,11
	lfs 9,4(30)
	fmuls 12,0,12
	lfs 10,8(30)
	fmuls 0,0,13
.LBE2516:
.LBE2515:
.LBB2522:
.LBB2506:
.LBB2499:
	.loc 2 1063 0
	lfs 13,0(10)
.LBE2499:
.LBE2506:
.LBE2522:
.LBB2523:
.LBB2517:
	.loc 7 471 0
	lfs 8,24(30)
	fmadds 12,13,9,12
	lfs 9,28(30)
	fmadds 11,31,13,11
	fmadds 13,13,10,0
.LBE2517:
.LBE2523:
.LBB2524:
.LBB2507:
.LBB2500:
	.loc 2 1063 0
	lfs 0,8(10)
.LBE2500:
.LBE2507:
.LBE2524:
.LBB2525:
.LBB2518:
	.loc 7 471 0
	lfs 10,32(30)
	.loc 7 474 0
	addi 10,10,12
.LVL237:
	.loc 7 471 0
	fmadds 11,8,0,11
	fmadds 12,9,0,12
	fmadds 0,10,0,13
	stfs 11,0(11)
.LVL238:
	stfs 12,4(11)
.LVL239:
	stfs 0,8(11)
.LVL240:
	addi 11,11,12
.LVL241:
	.loc 7 467 0
	cmpw 7,11,30
	bne+ 7,.L100
.LBE2518:
.LBE2525:
.LBB2526:
.LBB2508:
.LBB2501:
	.loc 2 1063 0
	addi 0,9,36
.LBE2501:
.LBE2508:
.LBE2526:
.LBB2527:
.LBB2491:
	addi 11,1,92
.LVL242:
.L101:
.LBE2491:
.LBE2527:
.LBB2528:
.LBB2519:
	.loc 7 467 0
	lfs 0,4(9)
.LBE2519:
.LBE2528:
.LBB2529:
.LBB2530:
	.loc 7 471 0
	lfs 13,148(1)
	lfs 11,140(1)
	lfs 12,144(1)
	fmuls 11,0,11
	lfs 8,128(1)
	fmuls 12,0,12
	lfs 9,132(1)
	fmuls 0,0,13
	lfs 10,136(1)
.LBE2530:
.LBE2529:
.LBB2533:
.LBB2520:
	.loc 7 467 0
	lfs 13,0(9)
.LBE2520:
.LBE2533:
.LBB2534:
.LBB2531:
	.loc 7 471 0
	fmadds 11,8,13,11
	lfs 8,152(1)
	fmadds 12,9,13,12
	lfs 9,156(1)
	fmadds 13,10,13,0
.LBE2531:
.LBE2534:
.LBB2535:
.LBB2521:
	.loc 7 467 0
	lfs 0,8(9)
.LBE2521:
.LBE2535:
.LBB2536:
.LBB2532:
	.loc 7 471 0
	lfs 10,160(1)
	.loc 7 474 0
	addi 9,9,12
	.loc 7 467 0
	cmpw 7,9,0
	.loc 7 471 0
	fmadds 11,8,0,11
	fmadds 12,9,0,12
	fmadds 0,10,0,13
	stfs 11,0(11)
.LVL243:
	stfs 12,4(11)
.LVL244:
	stfs 0,8(11)
.LVL245:
	addi 11,11,12
.LVL246:
	.loc 7 467 0
	bne+ 7,.L101
.LVL247:
.LBE2532:
.LBE2536:
.LBB2537:
.LBB2538:
	.loc 7 333 0
	li 10,0
.LVL248:
.L103:
.LBB2539:
.LBB2540:
	.loc 3 424 0
	addi 11,1,92
.LVL249:
.LBE2540:
.LBE2539:
	.loc 7 333 0
	cmpwi 7,10,24
.LBB2543:
.LBB2541:
	.loc 3 424 0
	lwzux 0,11,10
.LVL250:
	mr 9,23
	stwux 0,9,10
.LBE2541:
.LBE2543:
	.loc 7 333 0
	addi 10,10,12
.LBB2544:
.LBB2542:
	.loc 3 425 0
	lwz 8,4(11)
	.loc 3 426 0
	lwz 0,8(11)
	.loc 3 425 0
	stw 8,4(9)
	.loc 3 426 0
	stw 0,8(9)
.LBE2542:
.LBE2544:
	.loc 7 333 0
	bne+ 7,.L103
.LBE2538:
.LBE2537:
	.loc 2 1074 0
	lwz 0,32(29)
	addi 27,27,1
.LVL251:
	addi 28,28,4
	cmpw 7,0,27
	bgt+ 7,.L104
.LVL252:
	.loc 2 1112 0
	cmpwi 7,0,0
	ble- 7,.L94
	li 31,0
.LVL253:
.L105:
	.loc 2 1113 0 discriminator 2
	mulli 30,31,36
	lwz 4,56(25)
	addi 0,1,452
	lwz 3,12(29)
	add 6,0,30
	li 5,4
	bl _ZN10idAnimator12SetJointAxisE13jointHandle_t19jointModTransform_tRK6idMat3
	.loc 2 1114 0 discriminator 2
	addi 0,1,380
	lwz 4,48(25)
	add 6,0,30
	lwz 3,12(29)
	li 5,4
	.loc 2 1112 0 discriminator 2
	addi 31,31,1
	addi 25,25,4
	.loc 2 1114 0 discriminator 2
	bl _ZN10idAnimator12SetJointAxisE13jointHandle_t19jointModTransform_tRK6idMat3
.LVL254:
	.loc 2 1112 0 discriminator 2
	lwz 0,32(29)
	cmpw 7,0,31
	bgt+ 7,.L105
.LVL255:
.L94:
	.loc 2 1117 0
	li 0,1
	stb 0,5(29)
.LBE2257:
	.loc 2 1118 0
	lwz 0,804(1)
	lwz 15,636(1)
	mtlr 0
	lwz 16,640(1)
	lwz 17,644(1)
	lwz 18,648(1)
	lwz 19,652(1)
	lwz 20,656(1)
	lwz 21,660(1)
	lwz 22,664(1)
	lwz 23,668(1)
	lwz 24,672(1)
	lwz 25,676(1)
	lwz 26,680(1)
.LVL256:
	lwz 27,684(1)
	lwz 28,688(1)
	lwz 29,692(1)
.LVL257:
	lwz 30,696(1)
	lwz 31,700(1)
	lfd 20,704(1)
.LVL258:
	lfd 21,712(1)
.LVL259:
	lfd 22,720(1)
.LVL260:
	lfd 23,728(1)
	lfd 24,736(1)
	lfd 25,744(1)
	lfd 26,752(1)
	lfd 27,760(1)
	lfd 28,768(1)
	lfd 29,776(1)
	lfd 30,784(1)
	lfd 31,792(1)
	addi 1,1,800
	.cfi_remember_state
.LCFI46:
	.cfi_def_cfa_offset 0
	.cfi_restore 63
	.cfi_restore 62
	.cfi_restore 61
	.cfi_restore 60
	.cfi_restore 59
	.cfi_restore 58
	.cfi_restore 57
	.cfi_restore 56
	.cfi_restore 55
	.cfi_restore 54
	.cfi_restore 53
	.cfi_restore 52
	.cfi_restore 31
	.cfi_restore 30
	.cfi_restore 29
	.cfi_restore 28
	.cfi_restore 27
	.cfi_restore 26
	.cfi_restore 25
	.cfi_restore 24
	.cfi_restore 23
	.cfi_restore 22
	.cfi_restore 21
	.cfi_restore 20
	.cfi_restore 19
	.cfi_restore 18
	.cfi_restore 17
	.cfi_restore 16
	.cfi_restore 15
	blr
.LVL261:
.L117:
.LCFI47:
	.cfi_restore_state
.LBB2577:
	.loc 2 1097 0
	lwz 3,gameRenderWorld@l(22)
	mr 4,18
	addi 5,1,80
.LVL262:
	addi 6,1,68
	lwz 9,0(3)
	li 7,0
	li 8,0
	lwz 0,156(9)
	mtctr 0
	bctrl
.LVL263:
	.loc 2 1098 0
	lwz 3,gameRenderWorld@l(22)
	mr 4,17
	addi 5,1,68
	lwz 9,0(3)
	addi 6,1,56
.LVL264:
	li 7,0
	li 8,0
	lwz 0,156(9)
	mtctr 0
	bctrl
.LVL265:
.LBB2545:
.LBB2546:
	.loc 3 452 0
	lfs 0,36(1)
	lfs 13,72(1)
.LBE2546:
.LBE2545:
	.loc 2 1099 0
	mr 4,16
.LBB2556:
.LBB2551:
	.loc 3 452 0
	lfs 12,76(1)
.LBE2551:
.LBE2556:
	.loc 2 1099 0
	addi 5,1,68
.LBB2557:
.LBB2552:
	.loc 3 452 0
	fadds 13,13,0
	lfs 0,40(1)
.LBE2552:
.LBE2557:
	.loc 2 1099 0
	lwz 3,gameRenderWorld@l(22)
	addi 6,1,20
.LBB2558:
.LBB2553:
	.loc 3 452 0
	fadds 0,12,0
	lfs 11,68(1)
	lfs 12,32(1)
.LBE2553:
.LBE2558:
	.loc 2 1099 0
	li 7,0
	lwz 9,0(3)
	li 8,0
.LBB2559:
.LBB2554:
	.loc 3 452 0
	fadds 12,11,12
.LBB2547:
.LBB2548:
	.loc 3 397 0
	stfs 13,24(1)
.LBE2548:
.LBE2547:
.LBE2554:
.LBE2559:
	.loc 2 1099 0
	lwz 0,156(9)
.LVL266:
.LBB2560:
.LBB2555:
.LBB2550:
.LBB2549:
	.loc 3 398 0
	stfs 0,28(1)
	.loc 3 396 0
	stfs 12,20(1)
.LBE2549:
.LBE2550:
.LBE2555:
.LBE2560:
	.loc 2 1099 0
	mtctr 0
	bctrl
.LVL267:
.LBB2561:
.LBB2562:
	.loc 3 452 0
	lfs 0,48(1)
	lfs 13,72(1)
.LBE2562:
.LBE2561:
	.loc 2 1100 0
	mr 4,15
.LBB2572:
.LBB2567:
	.loc 3 452 0
	lfs 12,76(1)
.LBE2567:
.LBE2572:
	.loc 2 1100 0
	addi 5,1,68
.LVL268:
.LBB2573:
.LBB2568:
	.loc 3 452 0
	fadds 13,13,0
	lfs 0,52(1)
.LBE2568:
.LBE2573:
	.loc 2 1100 0
	lwz 3,gameRenderWorld@l(22)
	addi 6,1,8
.LBB2574:
.LBB2569:
	.loc 3 452 0
	fadds 0,12,0
	lfs 11,68(1)
	lfs 12,44(1)
.LBE2569:
.LBE2574:
	.loc 2 1100 0
	li 7,0
	lwz 9,0(3)
	li 8,0
.LBB2575:
.LBB2570:
	.loc 3 452 0
	fadds 12,11,12
.LBB2563:
.LBB2564:
	.loc 3 397 0
	stfs 13,12(1)
.LBE2564:
.LBE2563:
.LBE2570:
.LBE2575:
	.loc 2 1100 0
	lwz 0,156(9)
.LVL269:
.LBB2576:
.LBB2571:
.LBB2566:
.LBB2565:
	.loc 3 398 0
	stfs 0,16(1)
	.loc 3 396 0
	stfs 12,8(1)
.LBE2565:
.LBE2566:
.LBE2571:
.LBE2576:
	.loc 2 1100 0
	mtctr 0
	bctrl
.LVL270:
	b .L95
.LBE2577:
	.cfi_endproc
.LFE2857:
	.size	_ZN10idIK_Reach8EvaluateEv, .-_ZN10idIK_Reach8EvaluateEv
	.align 2
	.globl _ZN9idIK_Walk8EvaluateEv
	.type	_ZN9idIK_Walk8EvaluateEv, @function
_ZN9idIK_Walk8EvaluateEv:
.LFB2835:
	.loc 2 571 0
	.cfi_startproc
	.cfi_personality 0,__gxx_personality_v0
	.cfi_lsda 0,.LLSDA2835
.LVL271:
	mflr 0
	stwu 1,-3032(1)
.LCFI48:
	.cfi_def_cfa_offset 3032
	.cfi_register 65, 0
	mfcr 12
	stw 30,2944(1)
	mr 30,3
	.cfi_offset 30, -88
	.cfi_register 70, 12
	stw 0,3036(1)
	stfd 22,2952(1)
	stfd 23,2960(1)
	stfd 24,2968(1)
	stfd 25,2976(1)
	stfd 26,2984(1)
	stfd 27,2992(1)
	stfd 28,3000(1)
	stfd 29,3008(1)
	stfd 30,3016(1)
	stfd 31,3024(1)
	stw 15,2884(1)
	stw 16,2888(1)
	stw 17,2892(1)
	stw 18,2896(1)
	stw 19,2900(1)
	stw 20,2904(1)
	stw 21,2908(1)
	stw 22,2912(1)
	stw 23,2916(1)
	stw 24,2920(1)
	stw 25,2924(1)
	stw 26,2928(1)
	stw 27,2932(1)
	stw 28,2936(1)
	stw 29,2940(1)
	stw 31,2948(1)
	stw 12,2880(1)
.LBB2892:
	.loc 2 581 0
	lwz 3,8(3)
.LVL272:
	cmpwi 7,3,0
	beq- 7,.L118
	.cfi_offset 70, -152
	.cfi_offset 31, -84
	.cfi_offset 29, -92
	.cfi_offset 28, -96
	.cfi_offset 27, -100
	.cfi_offset 26, -104
	.cfi_offset 25, -108
	.cfi_offset 24, -112
	.cfi_offset 23, -116
	.cfi_offset 22, -120
	.cfi_offset 21, -124
	.cfi_offset 20, -128
	.cfi_offset 19, -132
	.cfi_offset 18, -136
	.cfi_offset 17, -140
	.cfi_offset 16, -144
	.cfi_offset 15, -148
	.cfi_offset 63, -8
	.cfi_offset 62, -16
	.cfi_offset 61, -24
	.cfi_offset 60, -32
	.cfi_offset 59, -40
	.cfi_offset 58, -48
	.cfi_offset 57, -56
	.cfi_offset 56, -64
	.cfi_offset 55, -72
	.cfi_offset 54, -80
	.cfi_offset 65, 4
	.loc 2 581 0 is_stmt 0 discriminator 1
	lis 25,gameLocal@ha
	la 25,gameLocal@l(25)
	addis 26,25,0x25
	lbz 0,2044(26)
	cmpwi 7,0,0
	beq- 7,.L118
	.loc 2 586 0 is_stmt 1
	lwz 0,40(30)
	cmpwi 7,0,0
	bne- 7,.L208
.L118:
.LBE2892:
	.loc 2 780 0
	lwz 0,3036(1)
	lwz 12,2880(1)
	mtlr 0
	lwz 15,2884(1)
	lwz 16,2888(1)
	mtcrf 24,12
	lwz 17,2892(1)
	lwz 18,2896(1)
	lwz 19,2900(1)
	lwz 20,2904(1)
	lwz 21,2908(1)
	lwz 22,2912(1)
	lwz 23,2916(1)
	lwz 24,2920(1)
	lwz 25,2924(1)
	lwz 26,2928(1)
	lwz 27,2932(1)
	lwz 28,2936(1)
	lwz 29,2940(1)
	lwz 30,2944(1)
.LVL273:
	lwz 31,2948(1)
	lfd 22,2952(1)
	lfd 23,2960(1)
	lfd 24,2968(1)
	lfd 25,2976(1)
	lfd 26,2984(1)
	lfd 27,2992(1)
	lfd 28,3000(1)
	lfd 29,3008(1)
	lfd 30,3016(1)
	lfd 31,3024(1)
	addi 1,1,3032
	.cfi_remember_state
.LCFI49:
	.cfi_def_cfa_offset 0
	.cfi_restore 70
	.cfi_restore 63
	.cfi_restore 62
	.cfi_restore 61
	.cfi_restore 60
	.cfi_restore 59
	.cfi_restore 58
	.cfi_restore 57
	.cfi_restore 56
	.cfi_restore 55
	.cfi_restore 54
	.cfi_restore 31
	.cfi_restore 30
	.cfi_restore 29
	.cfi_restore 28
	.cfi_restore 27
	.cfi_restore 26
	.cfi_restore 25
	.cfi_restore 24
	.cfi_restore 23
	.cfi_restore 22
	.cfi_restore 21
	.cfi_restore 20
	.cfi_restore 19
	.cfi_restore 18
	.cfi_restore 17
	.cfi_restore 16
	.cfi_restore 15
	blr
.LVL274:
.L208:
.LCFI50:
	.cfi_restore_state
.LEHB8:
.LBB3679:
	.loc 2 590 0
	bl _ZNK8idEntity10GetPhysicsEv
	lwz 9,0(3)
	lwz 0,164(9)
	mtctr 0
	bctrl
.LVL275:
.LBB2893:
.LBB2894:
	.loc 3 420 0
	lfs 30,0(3)
	lfs 29,4(3)
	lfs 31,8(3)
	fneg 30,30
.LBE2894:
.LBE2893:
	.loc 2 591 0
	lwz 3,8(30)
.LVL276:
.LBB2896:
.LBB2895:
	.loc 3 420 0
	fneg 29,29
	fneg 31,31
.LVL277:
.LBE2895:
.LBE2896:
	.loc 2 591 0
	bl _ZNK8idEntity10GetPhysicsEv
	li 4,0
	lwz 9,0(3)
	lwz 0,132(9)
	mtctr 0
	bctrl
	mr 9,3
.LVL278:
	.loc 2 592 0
	lwz 3,8(30)
.LVL279:
.LBB2897:
.LBB2898:
	.loc 3 424 0
	lfs 27,0(9)
.LVL280:
.LBE2898:
.LBE2897:
	.loc 2 592 0
	lwz 11,0(3)
.LBB2901:
.LBB2899:
	.loc 3 425 0
	lfs 28,4(9)
.LVL281:
.LBE2899:
.LBE2901:
	.loc 2 592 0
	lwz 0,36(11)
.LBB2902:
.LBB2900:
	.loc 3 426 0
	lfs 26,8(9)
.LVL282:
.LBE2900:
.LBE2902:
	.loc 2 592 0
	mtctr 0
	bctrl
.LVL283:
.LBB2903:
.LBB2904:
	.loc 7 333 0
	li 10,0
	addi 3,3,72
.LVL284:
.L120:
.LBB2905:
.LBB2906:
	.loc 3 424 0
	mr 11,3
	addi 9,1,472
	lwzux 0,11,10
.LBE2906:
.LBE2905:
	.loc 7 333 0
	cmpwi 7,10,24
.LBB2909:
.LBB2907:
	.loc 3 424 0
	stwux 0,9,10
.LBE2907:
.LBE2909:
	.loc 7 333 0
	addi 10,10,12
.LBB2910:
.LBB2908:
	.loc 3 425 0
	lwz 0,4(11)
	stw 0,4(9)
	.loc 3 426 0
	lwz 0,8(11)
	stw 0,8(9)
.LBE2908:
.LBE2910:
	.loc 7 333 0
	bne+ 7,.L120
.LVL285:
.LBE2904:
.LBE2903:
.LBB2915:
.LBB2916:
.LBB2917:
	.loc 7 454 0
	lfs 0,24(30)
.LBE2917:
.LBE2916:
.LBE2915:
.LBB2928:
.LBB2929:
	.loc 3 435 0
	fmuls 25,29,28
.LBE2929:
.LBE2928:
.LBB2930:
.LBB2923:
.LBB2918:
	.loc 7 454 0
	lfs 12,484(1)
.LBE2918:
.LBE2923:
.LBE2930:
	.loc 2 598 0
	li 5,0
.LBB2931:
.LBB2924:
.LBB2919:
	.loc 7 454 0
	lfs 13,488(1)
.LBE2919:
.LBE2924:
.LBE2931:
	.loc 2 601 0
	lis 17,_ZN6idMath8INFINITYE@ha
.LBB2932:
.LBB2925:
.LBB2920:
	.loc 7 454 0
	lfs 11,492(1)
	fmuls 12,0,12
.LBE2920:
.LBE2925:
.LBE2932:
.LBB2933:
.LBB2934:
	lfs 10,472(1)
.LBE2934:
.LBE2933:
.LBB2939:
.LBB2926:
.LBB2921:
	fmuls 13,0,13
	fmuls 11,0,11
	lfs 0,20(30)
.LBE2921:
.LBE2926:
.LBE2939:
.LBB2940:
.LBB2911:
	.loc 3 435 0
	fmadds 25,30,27,25
.LBE2911:
.LBE2940:
	.loc 2 598 0
	lwz 3,12(30)
.LVL286:
.LBB2941:
.LBB2935:
	.loc 7 454 0
	fmadds 12,10,0,12
	lfs 10,476(1)
.LBE2935:
.LBE2941:
	.loc 2 598 0
	lwz 4,2004(26)
.LBB2942:
.LBB2936:
	.loc 7 454 0
	fmadds 13,0,10,13
	lfs 10,480(1)
.LBE2936:
.LBE2942:
.LBB2943:
.LBB2912:
	.loc 3 435 0
	fmadds 25,31,26,25
.LBE2912:
.LBE2943:
.LBB2944:
.LBB2937:
	.loc 7 454 0
	fmadds 11,0,10,11
.LBE2937:
.LBE2944:
.LBB2945:
.LBB2927:
.LBB2922:
	lfs 0,28(30)
.LBE2922:
.LBE2927:
.LBE2945:
.LBB2946:
.LBB2938:
	lfs 10,496(1)
	fmadds 12,10,0,12
	lfs 10,500(1)
	fmadds 13,0,10,13
.LVL287:
	lfs 10,504(1)
	.loc 3 456 0
	fadds 27,27,12
.LVL288:
	.loc 7 454 0
	fmadds 0,0,10,11
	.loc 3 457 0
	fadds 28,28,13
.LVL289:
	.loc 3 458 0
	fadds 26,26,0
.LVL290:
.LBE2938:
.LBE2946:
	.loc 2 598 0
	bl _ZN10idAnimator11CreateFrameEib
.LVL291:
	.loc 2 602 0
	lwz 9,36(30)
	.loc 2 601 0
	lfs 24,_ZN6idMath8INFINITYE@l(17)
.LVL292:
	.loc 2 602 0
	cmpwi 7,9,0
	ble- 7,.L121
.LBB2947:
.LBB2913:
	.loc 2 601 0
	fmr 23,24
.LBE2913:
.LBE2947:
	.loc 2 571 0
	addi 27,30,40
.LBB2948:
.LBB2914:
	.loc 2 602 0
	li 31,0
	addi 28,1,400
	addi 29,1,508
.LVL293:
.L123:
.LBE2914:
.LBE2948:
	.loc 2 603 0
	lwz 3,12(30)
	addi 6,1,92
	lwzu 4,4(27)
	mr 7,28
	lwz 5,2004(26)
	bl _ZN10idAnimator17GetJointTransformE13jointHandle_tiR6idVec3R6idMat3
.LBB2949:
.LBB2950:
.LBB2951:
	.loc 7 454 0
	lfs 12,96(1)
	lfs 0,488(1)
.LBE2951:
.LBE2950:
.LBE2949:
	.loc 2 604 0
	mulli 0,31,12
.LBB2958:
.LBB2955:
.LBB2952:
	.loc 7 454 0
	lfs 10,484(1)
	fmuls 0,12,0
	lfs 13,92(1)
	fmuls 10,12,10
.LBE2952:
.LBE2955:
.LBE2958:
.LBB2959:
.LBB2960:
	lfs 11,476(1)
	lfs 9,472(1)
.LBE2960:
.LBE2959:
	.loc 2 604 0
	add 9,29,0
.LBB2965:
.LBB2961:
	.loc 7 454 0
	fmadds 11,13,11,0
.LBE2961:
.LBE2965:
.LBB2966:
.LBB2956:
.LBB2953:
	lfs 0,100(1)
.LBE2953:
.LBE2956:
.LBE2966:
.LBB2967:
.LBB2962:
	fmadds 10,9,13,10
	lfs 9,500(1)
	fmadds 11,0,9,11
.LBE2962:
.LBE2967:
.LBB2968:
.LBB2957:
.LBB2954:
	lfs 9,492(1)
	fmuls 12,12,9
.LBE2954:
.LBE2957:
.LBE2968:
.LBB2969:
.LBB2963:
	lfs 9,496(1)
	.loc 3 452 0
	fadds 11,28,11
	.loc 7 454 0
	fmadds 10,9,0,10
	lfs 9,480(1)
	fmadds 13,13,9,12
	lfs 12,504(1)
	.loc 3 452 0
	fadds 10,27,10
.LVL294:
	.loc 7 454 0
	fmadds 0,0,12,13
.LBE2963:
.LBE2969:
.LBB2970:
.LBB2971:
	.loc 3 435 0
	fmuls 13,29,11
.LBE2971:
.LBE2970:
.LBB2972:
.LBB2973:
	.loc 3 424 0
	stfsx 10,29,0
	.loc 3 425 0
	stfs 11,4(9)
.LBE2973:
.LBE2972:
.LBB2975:
.LBB2964:
	.loc 3 452 0
	fadds 0,26,0
.LVL295:
.LBE2964:
.LBE2975:
.LBB2976:
.LBB2974:
	.loc 3 435 0
	fmadds 13,30,10,13
	.loc 3 426 0
	stfs 0,8(9)
.LVL296:
	.loc 3 435 0
	fmadds 13,31,0,13
.LBE2974:
.LBE2976:
	.loc 2 606 0
	fcmpu 7,23,13
	bng- 7,.L122
	.loc 2 607 0
	fmr 23,13
.LVL297:
	.loc 2 606 0
	mr 24,31
.L122:
.LVL298:
	.loc 2 602 0
	lwz 9,36(30)
.LVL299:
	addi 31,31,1
.LVL300:
	cmpw 7,9,31
	bgt+ 7,.L123
.LVL301:
.L121:
	.loc 2 612 0
	lbz 0,1073(30)
	cmpwi 7,0,0
	bne- 7,.L209
.L124:
.LVL302:
.LBB2977:
	.loc 2 629 0 discriminator 1
	cmpwi 7,9,0
	ble- 7,.L132
.LBB2978:
	.loc 2 637 0
	lis 22,gameLocal+2311032@ha
	lis 23,mat3_identity@ha
.LBB2979:
.LBB2980:
.LBB2981:
.LBB2982:
	.loc 1 307 0
	lis 18,_ZTV14idFixedWinding+8@ha
.LBE2982:
.LBE2981:
	.loc 2 645 0
	lis 19,colorRed@ha
.LBB2989:
.LBB2990:
.LBB2991:
.LBB2992:
.LBB2993:
	.loc 1 183 0
	lis 20,_ZTV9idWinding+8@ha
.LBE2993:
.LBE2992:
.LBE2991:
.LBE2990:
.LBE2989:
.LBE2980:
.LBE2979:
.LBE2978:
	.loc 2 629 0
	li 27,0
.LBB3111:
	.loc 2 637 0
	la 22,gameLocal+2311032@l(22)
	la 23,mat3_identity@l(23)
.LBB3073:
.LBB3063:
.LBB3064:
	.loc 2 640 0
	lis 24,ik_debug@ha
.LBE3064:
.LBE3063:
.LBB3067:
.LBB3002:
.LBB2987:
	.loc 1 307 0
	la 18,_ZTV14idFixedWinding+8@l(18)
.LBE2987:
.LBE3002:
.LBB3003:
.LBB3004:
.LBB3005:
.LBB3006:
.LBB3007:
.LBB3008:
	.loc 3 1127 0
	li 28,0
.LBE3008:
.LBE3007:
.LBE3006:
.LBE3005:
.LBE3004:
.LBE3003:
	.loc 2 645 0
	lis 21,gameRenderWorld@ha
	la 19,colorRed@l(19)
.LBB3058:
.LBB3000:
.LBB2998:
.LBB2996:
.LBB2994:
	.loc 1 183 0
	la 20,_ZTV9idWinding+8@l(20)
	b .L141
.LVL303:
.L140:
.LBE2994:
.LBE2996:
.LBE2998:
.LBE3000:
.LBE3058:
.LBE3067:
.LBE3073:
.LBE3111:
	.loc 2 629 0
	addi 27,27,1
.LVL304:
	cmpw 7,9,27
	ble- 7,.L210
.LVL305:
.L141:
.LBB3112:
	.loc 2 631 0
	lwz 0,40(30)
	sraw 0,0,27
	andi. 11,0,1
	beq+ 0,.L140
	.loc 2 635 0
	mulli 0,27,12
	.loc 2 636 0
	lfs 0,1068(30)
	.loc 2 635 0
	addi 29,1,508
	lfs 13,1064(30)
.LVL306:
	add 9,29,0
.LVL307:
.LBB3074:
.LBB3075:
	.loc 2 571 0
	fneg 0,0
.LBE3075:
.LBE3074:
.LBB3081:
.LBB3082:
	.loc 3 452 0
	lfsx 10,29,0
.LBE3082:
.LBE3081:
	.loc 2 637 0
	mr 3,22
.LBB3085:
.LBB3083:
	.loc 3 452 0
	lfs 11,4(9)
.LBE3083:
.LBE3085:
	.loc 2 637 0
	addi 4,1,604
.LBB3086:
.LBB3084:
	.loc 3 452 0
	lfs 12,8(9)
.LVL308:
.LBE3084:
.LBE3086:
.LBB3087:
.LBB3088:
	fmadds 8,13,30,10
	fmadds 9,13,29,11
.LBE3088:
.LBE3087:
	.loc 2 637 0
	lwz 7,32(30)
.LBB3092:
.LBB3089:
	.loc 3 452 0
	fmadds 13,13,31,12
.LBE3089:
.LBE3092:
	.loc 2 637 0
	lwz 10,8(30)
.LBB3093:
.LBB3076:
	.loc 3 431 0
	fmadds 10,0,30,10
.LBE3076:
.LBE3093:
	.loc 2 637 0
	li 9,65
.LVL309:
.LBB3094:
.LBB3077:
	.loc 3 431 0
	fmadds 11,0,29,11
.LVL310:
.LBE3077:
.LBE3094:
	.loc 2 637 0
	addi 5,1,116
.LBB3095:
.LBB3078:
	.loc 3 431 0
	fmadds 0,0,31,12
.LBE3078:
.LBE3095:
	.loc 2 637 0
	addi 6,1,104
	mr 8,23
.LBB3096:
.LBB3090:
	.loc 3 426 0
	stfs 13,124(1)
	.loc 3 424 0
	stfs 8,116(1)
.LBE3090:
.LBE3096:
.LBB3097:
.LBB3068:
.LBB3065:
	.loc 2 640 0
	la 16,ik_debug@l(24)
.LBE3065:
.LBE3068:
.LBE3097:
.LBB3098:
.LBB3079:
	.loc 3 426 0
	stfs 0,112(1)
.LBE3079:
.LBE3098:
.LBB3099:
.LBB3091:
	.loc 3 425 0
	stfs 9,120(1)
.LBE3091:
.LBE3099:
.LBB3100:
.LBB3080:
	.loc 3 424 0
	stfs 10,104(1)
	.loc 3 425 0
	stfs 11,108(1)
.LBE3080:
.LBE3100:
	.loc 2 637 0
	bl _ZN6idClip11TranslationER7trace_sRK6idVec3S4_PK11idClipModelRK6idMat3iPK8idEntity
.LEHE8:
.LVL311:
.LBB3101:
.LBB3102:
	.loc 3 435 0
	lfs 0,612(1)
.LBE3102:
.LBE3101:
.LBB3104:
.LBB3069:
.LBB3066:
	.loc 5 142 0
	lwz 9,44(16)
.LBE3066:
.LBE3069:
.LBE3104:
.LBB3105:
.LBB3103:
	.loc 3 435 0
	fmuls 0,29,0
.LBE3103:
.LBE3105:
	lfs 13,608(1)
.LBB3106:
	.loc 2 640 0
	lwz 0,36(9)
.LBE3106:
	.loc 2 638 0
	addi 9,1,152
	.loc 3 435 0
	fmadds 0,30,13,0
	lfs 13,616(1)
.LBB3107:
	.loc 2 640 0
	cmpwi 7,0,0
.LBE3107:
	.loc 2 571 0
	slwi 0,27,2
	.loc 3 435 0
	fmadds 0,31,13,0
	.loc 2 638 0
	stfsx 0,9,0
.LBB3108:
	.loc 2 640 0
	beq- 7,.L206
	.loc 2 640 0 is_stmt 0 discriminator 1
	lwz 9,32(30)
	cmpwi 7,9,0
	beq- 7,.L206
.LVL312:
.LBB3070:
.LBB3059:
.LBB2988:
.LBB2983:
.LBB2984:
	.loc 1 133 0 is_stmt 1 discriminator 4
	li 0,0
.LBE2984:
.LBE2983:
	.loc 1 307 0 discriminator 4
	stw 18,1576(1)
.LBB2986:
.LBB2985:
	.loc 1 133 0 discriminator 4
	stw 0,1580(1)
.LBE2985:
.LBE2986:
	.loc 1 309 0 discriminator 4
	addi 0,1,1592
	stw 0,1584(1)
	.loc 1 310 0 discriminator 4
	li 0,64
	stw 0,1588(1)
.LVL313:
.LBE2988:
.LBE3059:
.LBB3060:
	.loc 2 642 0 discriminator 4
	li 31,0
	b .L134
.LVL314:
.L213:
.LEHB9:
.LBB3041:
.LBB3042:
	.loc 8 238 0
	bl _ZN11idClipModel19GetCachedTraceModelEi
.LVL315:
.LBE3042:
.LBE3041:
	.loc 2 642 0
	lwz 0,4(3)
	cmpw 7,31,0
	bge- 7,.L211
.L139:
.LVL316:
.LBB3044:
	.loc 2 1139 0
	lwz 9,32(30)
	lwz 3,124(9)
.LBB3045:
	.loc 8 235 0
	cmpwi 7,3,-1
	beq- 7,.L176
	.loc 8 238 0
	bl _ZN11idClipModel19GetCachedTraceModelEi
.LVL317:
.LBE3045:
.LBE3044:
.LBB3048:
.LBB3034:
.LBB3027:
	.loc 1 223 0
	lwz 9,1580(1)
.LBE3027:
.LBE3034:
.LBE3048:
.LBB3049:
.LBB3046:
	.loc 8 238 0
	mr 29,3
.LVL318:
.LBE3046:
.LBE3049:
.LBB3050:
.LBB3035:
.LBB3028:
.LBB3014:
.LBB3015:
	.loc 1 260 0
	lwz 0,1588(1)
.LBE3015:
.LBE3014:
	.loc 1 223 0
	addi 4,9,1
.LVL319:
.LBB3019:
.LBB3016:
	.loc 1 260 0
	cmpw 7,4,0
	bgt- 7,.L212
.LVL320:
.L136:
.LBE3016:
.LBE3019:
.LBE3028:
.LBE3035:
.LBE3050:
	.loc 2 643 0
	mulli 0,31,12
.LBB3051:
.LBB3036:
.LBB3029:
	.loc 1 226 0
	lwz 11,1584(1)
	mulli 9,9,20
.LBE3029:
.LBE3036:
.LBE3051:
	.loc 2 643 0
	add 29,29,0
.LBB3052:
.LBB3037:
.LBB3030:
.LBB3020:
.LBB3009:
	.loc 3 1124 0
	lwz 0,8(29)
.LBE3009:
.LBE3020:
.LBE3030:
.LBE3037:
.LBE3052:
	.loc 2 643 0
	addi 29,29,8
.LBB3053:
.LBB3038:
.LBB3031:
.LBB3021:
.LBB3010:
	.loc 3 1124 0
	stwx 0,11,9
.LBE3010:
.LBE3021:
	.loc 1 226 0
	add 9,11,9
.LVL321:
.LBB3022:
.LBB3011:
	.loc 3 1125 0
	lwz 0,4(29)
	stw 0,4(9)
.LBE3011:
.LBE3022:
	.loc 1 227 0
	lwz 10,1580(1)
.LBB3023:
.LBB3012:
	.loc 3 1126 0
	lwz 11,8(29)
.LBE3012:
.LBE3023:
	.loc 1 227 0
	addi 0,10,1
.LBB3024:
.LBB3013:
	.loc 3 1127 0
	stw 28,16(9)
	.loc 3 1126 0
	stw 11,8(9)
	.loc 3 1127 0
	stw 28,12(9)
.LBE3013:
.LBE3024:
	.loc 1 227 0
	stw 0,1580(1)
.LVL322:
.L137:
.LBE3031:
.LBE3038:
.LBE3053:
	.loc 2 642 0
	lwz 9,32(30)
	addi 31,31,1
.LVL323:
.L134:
.LBB3054:
	.loc 2 1139 0 discriminator 1
	lwz 3,124(9)
.LBB3043:
	.loc 8 235 0 discriminator 1
	cmpwi 7,3,-1
	bne- 7,.L213
	.loc 8 236 0
	li 3,0
.LBE3043:
.LBE3054:
	.loc 2 642 0
	lwz 0,4(3)
	cmpw 7,31,0
	blt+ 7,.L139
.LVL324:
.L211:
.LBE3060:
	.loc 2 645 0
	lwz 3,gameRenderWorld@l(21)
	mr 4,19
	addi 5,1,1576
	addi 6,1,608
	lwz 9,0(3)
	addi 7,1,620
	li 8,0
	lwz 0,164(9)
	li 9,0
	mtctr 0
	bctrl
.LEHE9:
.LVL325:
.LBB3061:
.LBB3001:
.LBB2999:
.LBB2997:
.LBB2995:
	.loc 1 185 0
	li 0,0
	.loc 1 183 0
	stw 20,1576(1)
	.loc 1 185 0
	stw 0,1584(1)
.LVL326:
.L206:
	lwz 9,36(30)
.LBE2995:
.LBE2997:
.LBE2999:
.LBE3001:
.LBE3061:
.LBE3070:
.LBE3108:
.LBE3112:
	.loc 2 629 0
	addi 27,27,1
.LVL327:
	cmpw 7,9,27
	bgt+ 7,.L141
.LVL328:
.L210:
	lfs 24,_ZN6idMath8INFINITYE@l(17)
.LVL329:
.L132:
.LBE2977:
	.loc 2 649 0
	lwz 3,8(30)
.LBB3115:
	.loc 2 656 0
	li 29,0
.LBB3116:
.LBB3117:
	.loc 2 1139 0
	lis 28,_ZN6idPlat4TypeE@ha
.LEHB10:
.LBE3117:
.LBE3116:
.LBE3115:
	.loc 2 649 0
	bl _ZNK8idEntity10GetPhysicsEv
	.loc 2 652 0
	lwz 9,0(3)
	.loc 2 649 0
	mr 31,3
.LVL330:
	.loc 2 652 0
	lwz 0,220(9)
	mtctr 0
	bctrl
.LVL331:
.LBB3124:
	.loc 2 656 0
	lwz 9,0(31)
.LBE3124:
	.loc 2 652 0
	mr 27,3
.LVL332:
.LBB3125:
	.loc 2 656 0
	mr 3,31
.LVL333:
	lwz 0,200(9)
	mtctr 0
	bctrl
	cmpw 7,29,3
	bge- 7,.L214
.L145:
.LBB3123:
	.loc 2 657 0
	lwz 9,0(31)
	mr 3,31
	mr 4,29
	lwz 0,204(9)
	mtctr 0
	bctrl
	lwz 9,48(3)
	addi 9,9,132
	slwi 9,9,2
	add 9,25,9
	lwz 3,4(9)
.LVL334:
	.loc 2 658 0
	cmpwi 7,3,0
	beq- 7,.L143
.LVL335:
.LBB3122:
.LBB3118:
	.file 9 "d:/Data/Nintendo/DoomGX/src/game/gamesys/Class.h"
	.loc 9 340 0 discriminator 1
	lwz 9,0(3)
.LVL336:
	lwz 0,0(9)
	mtctr 0
	bctrl
.LVL337:
.LBE3118:
	.loc 2 1139 0 discriminator 1
	la 9,_ZN6idPlat4TypeE@l(28)
	lwz 0,56(3)
.LBB3121:
.LBB3119:
.LBB3120:
	.loc 9 311 0 discriminator 1
	lwz 11,56(9)
	cmpw 7,0,11
	blt- 7,.L143
	.loc 9 311 0 is_stmt 0
	lwz 9,60(9)
	cmpw 7,0,9
	bgt- 7,.L143
	.loc 2 659 0 is_stmt 1
	li 0,1
.LVL338:
.L144:
.LBE3120:
.LBE3119:
.LBE3121:
.LBE3122:
.LBE3123:
.LBE3125:
	.loc 2 667 0
	lwz 9,36(30)
	.loc 2 666 0
	fneg 22,24
.LVL339:
	.loc 2 667 0
	cmpwi 7,9,0
	ble- 7,.L146
	.loc 2 684 0
	cmpwi 3,0,0
	cmpwi 4,27,0
	.loc 2 571 0
	addi 28,30,1100
.LBB3126:
	.loc 2 667 0
	li 31,0
.LVL340:
	addi 29,1,508
	addi 27,1,712
.LVL341:
.L151:
.LBE3126:
	.loc 2 669 0
	beq- 4,.L180
	.loc 2 669 0 is_stmt 0 discriminator 1
	lwz 0,40(30)
	.loc 2 672 0 is_stmt 1 discriminator 1
	lis 9,.LC14@ha
	lfs 23,.LC14@l(9)
	.loc 2 669 0 discriminator 1
	sraw 0,0,31
	andi. 11,0,1
	beq- 0,.L147
	.loc 2 571 0
	slwi 0,31,2
	.loc 2 670 0
	addi 9,1,152
	lfsx 23,9,0
	lfs 0,1048(30)
	fsubs 23,23,25
	fadds 23,23,0
.LVL342:
.L147:
	.loc 2 675 0
	fcmpu 7,23,24
	bnl- 7,.L148
	.loc 2 676 0
	fmr 24,23
.LVL343:
.L148:
	.loc 2 679 0
	mulli 7,31,36
	lwz 3,12(30)
	lwz 4,-1024(28)
	addi 6,1,80
	lwz 5,2004(26)
	add 7,27,7
	bl _ZN10idAnimator17GetJointTransformE13jointHandle_tiR6idVec3R6idMat3
.LBB3127:
.LBB3128:
.LBB3129:
	.loc 7 454 0
	lfs 12,84(1)
	lfs 0,488(1)
.LBE3129:
.LBE3128:
.LBE3127:
	.loc 2 680 0
	mulli 9,31,12
.LBB3138:
.LBB3134:
.LBB3130:
	.loc 7 454 0
	lfs 10,484(1)
	fmuls 0,12,0
	lfs 13,80(1)
	fmuls 10,12,10
.LBE3130:
.LBE3134:
.LBE3138:
.LBB3139:
.LBB3140:
	lfs 11,476(1)
	lfs 9,472(1)
.LBE3140:
.LBE3139:
	.loc 2 680 0
	add 9,29,9
.LBB3146:
.LBB3141:
	.loc 7 454 0
	fmadds 11,13,11,0
.LBE3141:
.LBE3146:
.LBB3147:
.LBB3135:
.LBB3131:
	lfs 0,88(1)
.LBE3131:
.LBE3135:
.LBE3147:
.LBB3148:
.LBB3142:
	fmadds 10,9,13,10
	lfs 9,500(1)
.LBE3142:
.LBE3148:
	.loc 2 684 0
	lbz 0,1096(30)
.LBB3149:
.LBB3143:
	.loc 7 454 0
	fmadds 11,0,9,11
.LBE3143:
.LBE3149:
.LBB3150:
.LBB3136:
.LBB3132:
	lfs 9,492(1)
.LBE3132:
.LBE3136:
.LBE3150:
	.loc 2 684 0
	cmpwi 7,0,0
.LBB3151:
.LBB3137:
.LBB3133:
	.loc 7 454 0
	fmuls 12,12,9
.LBE3133:
.LBE3137:
.LBE3151:
.LBB3152:
.LBB3144:
	lfs 9,496(1)
	.loc 3 452 0
	fadds 11,28,11
	.loc 7 454 0
	fmadds 10,9,0,10
	lfs 9,480(1)
	fmadds 13,13,9,12
	lfs 12,504(1)
	.loc 3 452 0
	fadds 10,27,10
.LVL344:
	.loc 7 454 0
	fmadds 0,0,12,13
.LBE3144:
.LBE3152:
.LBB3153:
.LBB3154:
	.loc 3 435 0
	fmuls 13,29,11
.LBE3154:
.LBE3153:
.LBB3155:
.LBB3145:
	.loc 3 452 0
	fadds 0,26,0
.LVL345:
	.loc 3 435 0
	fmadds 13,30,10,13
	fmadds 13,31,0,13
.LBE3145:
.LBE3155:
	.loc 2 684 0
	beq- 7,.L149
	.loc 2 684 0 is_stmt 0 discriminator 1
	bne- 3,.L149
	.loc 2 685 0 is_stmt 1
	fadds 8,23,13
	lfs 12,4(28)
	.loc 2 571 0
	lfs 9,1040(30)
	.loc 2 685 0
	fsubs 12,8,12
.LVL346:
	.loc 2 571 0
	fneg 9,9
	.loc 2 686 0
	fmadds 23,9,12,23
.LVL347:
.L149:
	.loc 2 689 0
	fadds 13,23,13
.LVL348:
	.loc 2 690 0
	fcmpu 7,13,22
	bng- 7,.L150
	.loc 2 691 0
	fmr 22,13
.LVL349:
.L150:
	.loc 2 694 0
	stfsu 13,4(28)
.LVL350:
	.loc 2 667 0
	addi 31,31,1
.LVL351:
.LBB3156:
.LBB3157:
	.loc 3 456 0
	fmadds 10,23,30,10
.LVL352:
.LBE3157:
.LBE3156:
	.loc 2 667 0
	lwz 0,36(30)
.LBB3160:
.LBB3158:
	.loc 3 457 0
	fmadds 11,23,29,11
.LVL353:
	.loc 3 458 0
	fmadds 0,23,31,0
.LVL354:
.LBE3158:
.LBE3160:
	.loc 2 667 0
	cmpw 7,0,31
.LBB3161:
.LBB3159:
	.loc 3 456 0
	stfs 10,0(9)
	.loc 3 457 0
	stfs 11,4(9)
	.loc 3 458 0
	stfs 0,8(9)
.LBE3159:
.LBE3161:
	.loc 2 667 0
	bgt+ 7,.L151
.LVL355:
.L146:
	.loc 2 699 0
	addi 31,1,436
	lwz 3,12(30)
	lwz 4,204(30)
	addi 6,1,44
	lwz 5,2004(26)
	mr 7,31
	bl _ZN10idAnimator17GetJointTransformE13jointHandle_tiR6idVec3R6idMat3
.LVL356:
.LBB3162:
.LBB3163:
.LBB3164:
	.loc 7 454 0
	lfs 0,48(1)
	lfs 11,484(1)
.LBE3164:
.LBE3163:
.LBE3162:
	.loc 2 706 0
	lis 11,.LC14@ha
.LBB3171:
.LBB3168:
.LBB3165:
	.loc 7 454 0
	lfs 12,488(1)
	lfs 13,492(1)
	fmuls 11,0,11
	fmuls 12,0,12
.LBE3165:
.LBE3168:
.LBE3171:
.LBB3172:
.LBB3173:
	lfs 10,472(1)
.LBE3173:
.LBE3172:
.LBB3180:
.LBB3169:
.LBB3166:
	fmuls 13,0,13
	lfs 0,44(1)
.LBE3166:
.LBE3169:
.LBE3180:
.LBB3181:
.LBB3174:
	lfs 9,496(1)
	fmadds 10,10,0,11
	lfs 11,476(1)
.LBE3174:
.LBE3181:
	.loc 2 706 0
	lfs 8,1056(30)
.LBB3182:
.LBB3175:
	.loc 7 454 0
	fmadds 11,0,11,12
	lfs 12,480(1)
.LBE3175:
.LBE3182:
	.loc 2 706 0
	lfs 7,.LC14@l(11)
.LBB3183:
.LBB3176:
	.loc 7 454 0
	fmadds 12,0,12,13
.LBE3176:
.LBE3183:
.LBB3184:
.LBB3170:
.LBB3167:
	lfs 13,52(1)
.LVL357:
.LBE3167:
.LBE3170:
.LBE3184:
	.loc 2 703 0
	lfs 0,1052(30)
	.loc 2 706 0
	fcmpu 7,8,7
.LBB3185:
.LBB3177:
	.loc 7 454 0
	fmadds 10,9,13,10
	lfs 9,500(1)
.LBE3177:
.LBE3185:
	.loc 2 703 0
	fadds 0,24,0
.LBB3186:
.LBB3178:
	.loc 7 454 0
	fmadds 9,13,9,11
	lfs 11,504(1)
	.loc 3 452 0
	fadds 10,27,10
	.loc 7 454 0
	fmadds 13,13,11,12
	.loc 3 452 0
	fadds 9,28,9
.LBE3178:
.LBE3186:
.LBB3187:
.LBB3188:
	.loc 3 448 0
	fmuls 12,0,29
.LBE3188:
.LBE3187:
.LBB3191:
.LBB3192:
	.loc 3 424 0
	stfs 10,44(1)
.LBE3192:
.LBE3191:
.LBB3195:
.LBB3179:
	.loc 3 452 0
	fadds 11,26,13
.LVL358:
.LBE3179:
.LBE3195:
.LBB3196:
.LBB3189:
	.loc 3 448 0
	fmuls 13,0,30
.LBE3189:
.LBE3196:
.LBB3197:
.LBB3193:
	.loc 3 425 0
	stfs 9,48(1)
.LBE3193:
.LBE3197:
.LBB3198:
.LBB3190:
	.loc 3 448 0
	fmuls 0,0,31
.LBE3190:
.LBE3198:
.LBB3199:
.LBB3200:
	.loc 3 425 0
	stfs 12,1140(30)
.LBE3200:
.LBE3199:
.LBB3202:
.LBB3194:
	.loc 3 426 0
	stfs 11,52(1)
.LVL359:
.LBE3194:
.LBE3202:
.LBB3203:
.LBB3201:
	.loc 3 424 0
	stfs 13,1136(30)
	.loc 3 426 0
	stfs 0,1144(30)
.LBE3201:
.LBE3203:
	.loc 2 706 0
	bgt- 7,.L152
.L207:
	fadds 6,10,13
	fadds 5,9,12
	fadds 7,11,0
.LVL360:
.L153:
	.loc 2 717 0
	lis 9,.LC14@ha
	lfs 8,1060(30)
	lfs 4,.LC14@l(9)
.LBB3204:
.LBB3205:
	.loc 3 435 0
	fmuls 5,29,5
.LBE3205:
.LBE3204:
	.loc 2 717 0
	fcmpu 7,8,4
	.loc 3 435 0
	fmadds 6,30,6,5
	fmadds 7,31,7,6
	.loc 2 717 0
	bng- 7,.L157
.LVL361:
	.loc 2 719 0
	fsubs 22,7,22
.LVL362:
	fcmpu 7,8,22
	bng- 7,.L157
	.loc 2 720 0
	fsubs 8,8,22
.LVL363:
.LBB3206:
.LBB3207:
	.loc 3 457 0
	fmadds 12,8,29,12
.LBE3207:
.LBE3206:
	.loc 3 456 0
	fmadds 13,8,30,13
.LBB3209:
.LBB3208:
	.loc 3 458 0
	fmadds 0,8,31,0
	fadds 8,12,9
.LVL364:
	.loc 3 457 0
	stfs 12,1140(30)
	.loc 3 458 0
	fadds 6,13,10
	.loc 3 456 0
	stfs 13,1136(30)
	.loc 3 458 0
	fadds 7,0,11
.LVL365:
	stfs 0,1144(30)
	fmuls 8,29,8
	fmadds 8,30,6,8
	fmadds 7,31,7,8
.LVL366:
.L157:
.LBE3208:
.LBE3209:
	.loc 2 724 0
	lbz 0,1096(30)
	cmpwi 7,0,0
	beq- 7,.L159
.LVL367:
	.loc 2 727 0
	lfs 6,1100(30)
	.loc 2 728 0
	lfs 8,1044(30)
	.loc 2 727 0
	fsubs 7,7,6
.LVL368:
	.loc 2 740 0
	lwz 0,36(30)
	cmpwi 7,0,0
	.loc 2 728 0
	fmuls 8,7,8
.LVL369:
	.loc 2 571 0
	fneg 8,8
.LVL370:
.LBB3210:
.LBB3211:
	.loc 3 482 0
	fmadds 12,8,29,12
.LBE3211:
.LBE3210:
	.loc 3 481 0
	fmadds 13,8,30,13
.LBB3213:
.LBB3212:
	.loc 3 483 0
	fmadds 0,8,31,0
	fadds 9,12,9
	.loc 3 482 0
	stfs 12,1140(30)
	.loc 3 483 0
	fadds 10,13,10
	.loc 3 481 0
	stfs 13,1136(30)
	.loc 3 483 0
	fadds 11,0,11
	stfs 0,1144(30)
	fmuls 29,29,9
.LVL371:
	fmadds 30,30,10,29
.LVL372:
.LBE3212:
.LBE3213:
	.loc 2 732 0
	fmadds 31,31,11,30
.LVL373:
	stfs 31,1100(30)
.LVL374:
	.loc 2 740 0
	ble- 7,.L161
	lis 16,ik_debug@ha
	.loc 2 755 0
	lis 17,colorCyan@ha
	.loc 2 756 0
	lis 18,colorRed@ha
	.loc 2 757 0
	lis 19,colorYellow@ha
	.loc 2 758 0
	lis 20,colorGreen@ha
	.loc 2 571 0
	addi 25,30,136
	li 27,0
	addi 28,1,400
	addi 29,1,508
	la 16,ik_debug@l(16)
	addi 22,1,1288
	addi 23,1,1000
	.loc 2 755 0
	lis 21,gameRenderWorld@ha
	la 17,colorCyan@l(17)
	.loc 2 756 0
	la 18,colorRed@l(18)
	.loc 2 757 0
	la 19,colorYellow@l(19)
	.loc 2 758 0
	la 20,colorGreen@l(20)
.LVL375:
.L171:
	.loc 2 743 0
	lwzu 4,4(25)
	.loc 2 745 0
	mulli 24,27,12
	.loc 2 743 0
	lwz 5,2004(26)
	addi 6,1,56
	lwz 3,12(30)
	mr 7,28
	bl _ZN10idAnimator17GetJointTransformE13jointHandle_tiR6idVec3R6idMat3
.LVL376:
	.loc 2 745 0
	addi 0,24,208
	add 9,30,0
.LBB3214:
.LBB3215:
.LBB3216:
	.loc 7 454 0
	lfs 13,416(1)
	lfs 10,4(9)
.LBE3216:
.LBE3215:
.LBE3214:
	.loc 2 748 0
	addi 6,1,68
.LBB3241:
.LBB3229:
.LBB3217:
	.loc 7 454 0
	lfsx 0,30,0
.LBE3217:
.LBE3229:
.LBE3241:
	.loc 2 748 0
	mr 7,28
.LBB3242:
.LBB3230:
.LBB3218:
	.loc 7 454 0
	fmuls 13,10,13
	lfs 12,404(1)
	lfs 6,412(1)
.LBE3218:
.LBE3230:
.LBE3242:
.LBB3243:
.LBB3244:
.LBB3245:
	lfs 7,484(1)
	lfs 8,488(1)
.LBE3245:
.LBE3244:
.LBE3243:
.LBB3268:
.LBB3231:
.LBB3219:
	fmadds 12,0,12,13
.LBE3219:
.LBE3231:
.LBE3268:
.LBB3269:
.LBB3257:
.LBB3246:
	lfs 9,492(1)
.LBE3246:
.LBE3257:
.LBE3269:
.LBB3270:
.LBB3232:
.LBB3220:
	fmuls 6,10,6
.LBE3220:
.LBE3232:
.LBE3270:
.LBB3271:
.LBB3258:
.LBB3247:
	lfs 13,60(1)
.LBE3247:
.LBE3258:
.LBE3271:
.LBB3272:
.LBB3233:
.LBB3221:
	lfs 11,8(9)
	lfs 5,428(1)
.LBE3221:
.LBE3233:
.LBE3272:
.LBB3273:
.LBB3259:
.LBB3248:
	fmuls 1,13,8
	fmuls 24,13,9
.LBE3248:
.LBE3259:
.LBE3273:
.LBB3274:
.LBB3234:
.LBB3222:
	lfs 3,420(1)
.LBE3222:
.LBE3234:
.LBE3274:
.LBB3275:
.LBB3260:
.LBB3249:
	fmuls 25,7,13
.LBE3249:
.LBE3260:
.LBE3275:
.LBB3276:
.LBB3235:
.LBB3223:
	lfs 13,400(1)
	fmadds 12,11,5,12
.LBE3223:
.LBE3235:
.LBE3276:
.LBB3277:
.LBB3261:
.LBB3250:
	lfs 4,472(1)
.LBE3250:
.LBE3261:
.LBE3277:
.LBB3278:
.LBB3236:
.LBB3224:
	fmadds 13,13,0,6
.LBE3224:
.LBE3236:
.LBE3278:
.LBB3279:
.LBB3262:
.LBB3251:
	lfs 5,476(1)
	lfs 6,480(1)
.LBE3251:
.LBE3262:
.LBE3279:
.LBB3280:
.LBB3237:
.LBB3225:
	fmuls 3,10,3
.LBE3225:
.LBE3237:
.LBE3280:
.LBB3281:
.LBB3263:
.LBB3252:
	lfs 10,56(1)
.LBE3252:
.LBE3263:
.LBE3281:
.LBB3282:
.LBB3283:
.LBB3284:
	fmuls 29,7,12
.LBE3284:
.LBE3283:
.LBE3282:
.LBB3289:
.LBB3238:
.LBB3226:
	lfs 2,424(1)
.LBE3226:
.LBE3238:
.LBE3289:
.LBB3290:
.LBB3287:
.LBB3285:
	fmuls 30,8,12
.LBE3285:
.LBE3287:
.LBE3290:
.LBB3291:
.LBB3292:
	fmadds 24,10,6,24
.LBE3292:
.LBE3291:
.LBB3298:
.LBB3264:
.LBB3253:
	lfs 7,496(1)
.LBE3253:
.LBE3264:
.LBE3298:
.LBB3299:
.LBB3293:
	fmadds 1,10,5,1
.LBE3293:
.LBE3299:
.LBB3300:
.LBB3265:
.LBB3254:
	lfs 8,500(1)
.LBE3254:
.LBE3265:
.LBE3300:
.LBB3301:
.LBB3294:
	fmadds 25,4,10,25
.LBE3294:
.LBE3301:
.LBB3302:
.LBB3239:
.LBB3227:
	lfs 10,408(1)
	fmadds 13,2,11,13
	lfs 23,432(1)
	fmadds 0,0,10,3
.LBE3227:
.LBE3239:
.LBE3302:
.LBB3303:
.LBB3304:
	.loc 3 452 0
	lfs 2,1144(30)
.LBE3304:
.LBE3303:
.LBB3309:
.LBB3288:
.LBB3286:
	.loc 7 454 0
	fmuls 31,9,12
.LBE3286:
.LBE3288:
.LBE3309:
.LBB3310:
.LBB3305:
	.loc 3 452 0
	lfs 10,1140(30)
.LBE3305:
.LBE3310:
.LBB3311:
.LBB3266:
.LBB3255:
	.loc 7 454 0
	lfs 12,64(1)
.LBE3255:
.LBE3266:
.LBE3311:
.LBB3312:
.LBB3313:
	fmadds 4,4,13,29
.LBE3313:
.LBE3312:
.LBB3320:
.LBB3267:
.LBB3256:
	lfs 9,504(1)
.LVL377:
.LBE3256:
.LBE3267:
.LBE3320:
.LBB3321:
.LBB3240:
.LBB3228:
	fmadds 0,11,23,0
.LBE3228:
.LBE3240:
.LBE3321:
.LBB3322:
.LBB3306:
	.loc 3 452 0
	lfs 3,1136(30)
.LBE3306:
.LBE3322:
.LBB3323:
.LBB3295:
	.loc 7 454 0
	fmadds 1,12,8,1
	fmadds 11,12,9,24
.LBE3295:
.LBE3323:
	.loc 2 748 0
	lwz 4,-32(25)
.LBB3324:
.LBB3314:
	.loc 7 454 0
	fmadds 5,5,13,30
.LBE3314:
.LBE3324:
	.loc 2 748 0
	lwz 5,2004(26)
.LBB3325:
.LBB3315:
	.loc 7 454 0
	fmadds 13,6,13,31
.LBE3315:
.LBE3325:
	.loc 2 748 0
	lwz 3,12(30)
.LBB3326:
.LBB3307:
	.loc 3 452 0
	fadds 2,26,2
	fadds 3,27,3
.LBE3307:
.LBE3326:
.LBB3327:
.LBB3296:
	.loc 7 454 0
	fmadds 12,7,12,25
.LBE3296:
.LBE3327:
.LBB3328:
.LBB3308:
	.loc 3 452 0
	fadds 10,28,10
.LBE3308:
.LBE3328:
.LBB3329:
.LBB3316:
	.loc 7 454 0
	fmadds 8,8,0,5
.LBE3316:
.LBE3329:
.LBB3330:
.LBB3297:
	.loc 3 452 0
	fadds 11,2,11
.LVL378:
	fadds 10,10,1
.LVL379:
	fadds 12,3,12
.LBE3297:
.LBE3330:
.LBB3331:
.LBB3317:
	.loc 7 454 0
	fmadds 7,7,0,4
.LBE3317:
.LBE3331:
.LBB3332:
.LBB3333:
	.loc 3 426 0
	stfs 11,64(1)
.LBE3333:
.LBE3332:
.LBB3335:
.LBB3318:
	.loc 7 454 0
	fmadds 0,9,0,13
.LVL380:
.LBE3318:
.LBE3335:
.LBB3336:
.LBB3334:
	.loc 3 425 0
	stfs 10,60(1)
	.loc 3 424 0
	stfs 12,56(1)
.LBE3334:
.LBE3336:
.LBB3337:
.LBB3319:
	stfs 7,140(1)
	.loc 3 425 0
	stfs 8,144(1)
	.loc 3 426 0
	stfs 0,148(1)
.LBE3319:
.LBE3337:
	.loc 2 748 0
	bl _ZN10idAnimator17GetJointTransformE13jointHandle_tiR6idVec3R6idMat3
.LVL381:
	.loc 2 749 0
	addi 0,24,304
.LBB3338:
.LBB3339:
.LBB3340:
	.loc 7 454 0
	lfs 0,416(1)
.LBE3340:
.LBE3339:
.LBE3338:
	.loc 2 749 0
	add 9,30,0
.LVL382:
.LBB3359:
.LBB3350:
.LBB3341:
	.loc 7 454 0
	lfsx 11,30,0
	lfs 10,4(9)
.LBE3341:
.LBE3350:
.LBE3359:
	.loc 2 752 0
	add 24,29,24
.LBB3360:
.LBB3351:
.LBB3342:
	.loc 7 454 0
	lfs 13,404(1)
.LBE3342:
.LBE3351:
.LBE3360:
	.loc 2 752 0
	mr 3,30
.LBB3361:
.LBB3352:
.LBB3343:
	.loc 7 454 0
	fmuls 0,10,0
	lfs 12,412(1)
	lfs 9,428(1)
.LBE3343:
.LBE3352:
.LBE3361:
	.loc 2 752 0
	addi 4,1,56
.LVL383:
.LBB3362:
.LBB3353:
.LBB3344:
	.loc 7 454 0
	fmuls 12,10,12
.LBE3344:
.LBE3353:
.LBE3362:
.LBB3363:
.LBB3364:
.LBB3365:
	lfs 8,484(1)
.LBE3365:
.LBE3364:
.LBE3363:
.LBB3368:
.LBB3354:
.LBB3345:
	fmadds 13,11,13,0
	lfs 0,8(9)
.LBE3345:
.LBE3354:
.LBE3368:
	.loc 2 752 0
	lfs 1,260(25)
	mr 5,24
	lfs 2,292(25)
	addi 6,1,128
.LBB3369:
.LBB3355:
.LBB3346:
	.loc 7 454 0
	fmadds 13,0,9,13
	lfs 9,400(1)
.LBE3346:
.LBE3355:
.LBE3369:
	.loc 2 752 0
	addi 7,1,68
.LBB3370:
.LBB3356:
.LBB3347:
	.loc 7 454 0
	fmadds 12,9,11,12
	lfs 9,420(1)
	fmuls 10,10,9
	lfs 9,424(1)
	fmadds 12,9,0,12
	lfs 9,408(1)
	fmadds 11,11,9,10
.LBE3347:
.LBE3356:
.LBE3370:
.LBB3371:
.LBB3367:
.LBB3366:
	lfs 10,488(1)
	lfs 9,492(1)
	fmuls 10,13,10
	fmuls 9,13,9
	fmuls 13,13,8
.LBE3366:
.LBE3367:
.LBE3371:
.LBB3372:
.LBB3357:
.LBB3348:
	lfs 8,432(1)
	fmadds 11,0,8,11
.LVL384:
	lfs 0,476(1)
	fmadds 10,12,0,10
	lfs 0,480(1)
	fmadds 0,12,0,9
.LBE3348:
.LBE3357:
.LBE3372:
.LBB3373:
.LBB3374:
	lfs 9,472(1)
	fmadds 12,12,9,13
.LVL385:
.LBE3374:
.LBE3373:
.LBB3376:
.LBB3358:
.LBB3349:
	lfs 13,500(1)
	fmadds 13,11,13,10
	lfs 10,504(1)
	fmadds 0,11,10,0
.LVL386:
.LBE3349:
.LBE3358:
.LBE3376:
.LBB3377:
.LBB3375:
	lfs 10,496(1)
	.loc 3 425 0
	stfs 13,132(1)
	.loc 7 454 0
	fmadds 12,11,10,12
	.loc 3 426 0
	stfs 0,136(1)
	.loc 3 424 0
	stfs 12,128(1)
.LBE3375:
.LBE3377:
	.loc 2 752 0
	bl _ZN4idIK13SolveTwoBonesERK6idVec3S2_S2_ffRS0_
.LVL387:
.LBB3378:
.LBB3379:
	.loc 5 142 0
	lwz 9,44(16)
.LBE3379:
.LBE3378:
	.loc 2 754 0
	lwz 0,36(9)
	cmpwi 7,0,0
	bne- 7,.L215
.L162:
	.loc 2 762 0
	mr 3,30
	addi 4,1,56
.LVL388:
	addi 5,1,68
	addi 6,1,140
	mr 7,28
	.loc 2 763 0
	mulli 15,27,36
	.loc 2 762 0
	bl _ZN4idIK11GetBoneAxisERK6idVec3S2_S2_R6idMat3
.LVL389:
.LBB3380:
.LBB3381:
.LBB3382:
	.loc 3 402 0
	lfs 7,472(1)
.LBE3382:
.LBE3381:
.LBB3383:
.LBB3384:
	lwz 3,484(1)
.LBE3384:
.LBE3383:
.LBE3380:
	.loc 2 763 0
	addi 9,15,464
.LBB3411:
.LBB3385:
.LBB3386:
	.loc 3 402 0
	lwz 4,496(1)
.LBE3386:
.LBE3385:
.LBE3411:
	.loc 2 763 0
	add 7,22,15
.LBB3412:
.LBB3387:
.LBB3388:
	.loc 3 402 0
	lwz 5,476(1)
.LBE3388:
.LBE3387:
.LBE3412:
	.loc 2 763 0
	add 9,30,9
.LVL390:
.LBB3413:
.LBB3389:
.LBB3390:
	.loc 3 402 0
	lwz 6,488(1)
.LVL391:
.LBE3390:
.LBE3389:
.LBB3391:
.LBB3392:
	lwz 8,500(1)
.LVL392:
.LBE3392:
.LBE3391:
.LBB3393:
.LBB3394:
	lwz 0,504(1)
.LBE3394:
.LBE3393:
.LBB3395:
.LBB3396:
	lwz 10,480(1)
.LVL393:
.LBE3396:
.LBE3395:
.LBB3397:
.LBB3398:
	lwz 11,492(1)
.LVL394:
.LBE3398:
.LBE3397:
.LBB3399:
.LBB3400:
	.loc 7 425 0
	stfs 7,364(1)
	stw 3,368(1)
	stw 4,372(1)
	.loc 7 426 0
	stw 5,376(1)
	stw 6,380(1)
	stw 8,384(1)
	.loc 7 427 0
	stw 0,396(1)
.LVL395:
	stw 10,388(1)
.LBE3400:
.LBE3399:
.LBE3413:
	.loc 7 465 0
	addi 10,1,328
.LBB3414:
.LBB3406:
.LBB3401:
	.loc 7 427 0
	stw 11,392(1)
.LBE3401:
.LBE3406:
.LBE3414:
	.loc 2 763 0
	mr 11,28
.LVL396:
.L163:
.LBB3415:
.LBB3407:
.LBB3402:
	.loc 2 571 0
	lfs 0,4(11)
.LBE3402:
.LBE3407:
.LBE3415:
.LBB3416:
.LBB3417:
	.loc 7 471 0
	lfs 12,376(1)
	lfs 13,380(1)
	lfs 11,384(1)
	fmuls 12,0,12
	fmuls 13,0,13
	lfs 9,368(1)
	fmuls 11,0,11
	lfs 10,372(1)
.LBE3417:
.LBE3416:
.LBB3423:
.LBB3408:
.LBB3403:
	.loc 2 571 0
	lfs 0,0(11)
.LBE3403:
.LBE3408:
.LBE3423:
.LBB3424:
.LBB3418:
	.loc 7 471 0
	lfs 8,388(1)
	fmadds 13,9,0,13
	lfs 9,392(1)
	fmadds 11,10,0,11
	lfs 10,396(1)
	fmadds 12,7,0,12
.LBE3418:
.LBE3424:
.LBB3425:
.LBB3409:
.LBB3404:
	.loc 2 571 0
	lfs 0,8(11)
.LBE3404:
.LBE3409:
.LBE3425:
.LBB3426:
.LBB3419:
	.loc 7 474 0
	addi 11,11,12
.LVL397:
	.loc 7 467 0
	cmpw 7,11,31
	.loc 7 471 0
	fmadds 13,9,0,13
	fmadds 12,8,0,12
	fmadds 0,10,0,11
	stfs 13,4(10)
	stfs 12,0(10)
.LVL398:
	stfs 0,8(10)
.LVL399:
	addi 10,10,12
.LVL400:
	.loc 7 467 0
	bne+ 7,.L163
.LBE3419:
.LBE3426:
.LBB3427:
.LBB3410:
.LBB3405:
	.loc 2 571 0
	addi 0,9,36
.LBE3405:
.LBE3410:
.LBE3427:
	addi 11,1,292
.LVL401:
.L164:
.LBB3428:
.LBB3420:
	.loc 7 467 0
	lfs 0,4(9)
.LBE3420:
.LBE3428:
.LBB3429:
.LBB3430:
	.loc 7 471 0
	lfs 12,340(1)
	lfs 13,344(1)
	lfs 11,348(1)
	fmuls 12,0,12
	fmuls 13,0,13
	lfs 8,328(1)
	fmuls 11,0,11
	lfs 9,332(1)
.LBE3430:
.LBE3429:
.LBB3433:
.LBB3421:
	.loc 7 467 0
	lfs 0,0(9)
.LBE3421:
.LBE3433:
.LBB3434:
.LBB3431:
	.loc 7 471 0
	lfs 10,336(1)
	fmadds 12,8,0,12
	lfs 8,352(1)
	fmadds 13,9,0,13
	lfs 9,356(1)
	fmadds 11,10,0,11
.LBE3431:
.LBE3434:
.LBB3435:
.LBB3422:
	.loc 7 467 0
	lfs 0,8(9)
.LBE3422:
.LBE3435:
.LBB3436:
.LBB3432:
	.loc 7 471 0
	lfs 10,360(1)
	.loc 7 474 0
	addi 9,9,12
	.loc 7 467 0
	cmpw 7,9,0
	.loc 7 471 0
	fmadds 12,8,0,12
	fmadds 13,9,0,13
	fmadds 0,10,0,11
	stfs 12,0(11)
.LVL402:
	stfs 13,4(11)
.LVL403:
	stfs 0,8(11)
.LVL404:
	addi 11,11,12
.LVL405:
	.loc 7 467 0
	bne+ 7,.L164
.LVL406:
.LBE3432:
.LBE3436:
.LBB3437:
.LBB3438:
	.loc 7 333 0
	li 10,0
.LVL407:
.L166:
.LBB3439:
.LBB3440:
	.loc 3 424 0
	addi 11,1,292
.LVL408:
.LBE3440:
.LBE3439:
	.loc 7 333 0
	cmpwi 7,10,24
.LBB3443:
.LBB3441:
	.loc 3 424 0
	lwzux 0,11,10
.LVL409:
	mr 9,7
	stwux 0,9,10
.LBE3441:
.LBE3443:
	.loc 7 333 0
	addi 10,10,12
.LBB3444:
.LBB3442:
	.loc 3 425 0
	lwz 8,4(11)
	.loc 3 426 0
	lwz 0,8(11)
	.loc 3 425 0
	stw 8,4(9)
	.loc 3 426 0
	stw 0,8(9)
.LBE3442:
.LBE3444:
	.loc 7 333 0
	bne+ 7,.L166
.LBE3438:
.LBE3437:
	.loc 2 766 0
	addi 4,1,68
	mr 5,24
	addi 6,1,128
.LVL410:
	mr 7,28
.LVL411:
	mr 3,30
	bl _ZN4idIK11GetBoneAxisERK6idVec3S2_S2_R6idMat3
.LVL412:
.LBB3445:
.LBB3446:
.LBB3447:
	.loc 3 402 0
	lfs 7,472(1)
.LBE3447:
.LBE3446:
.LBB3448:
.LBB3449:
	lwz 4,484(1)
.LBE3449:
.LBE3448:
.LBE3445:
	.loc 2 767 0
	addi 9,15,752
.LBB3472:
.LBB3450:
.LBB3451:
	.loc 3 402 0
	lwz 5,496(1)
.LBE3451:
.LBE3450:
.LBE3472:
	.loc 2 767 0
	add 15,23,15
.LBB3473:
.LBB3452:
.LBB3453:
	.loc 3 402 0
	lwz 6,476(1)
.LBE3453:
.LBE3452:
.LBE3473:
	.loc 2 767 0
	add 9,30,9
.LVL413:
.LBB3474:
.LBB3454:
.LBB3455:
	.loc 3 402 0
	lwz 7,488(1)
.LVL414:
.LBE3455:
.LBE3454:
.LBB3456:
.LBB3457:
	lwz 8,500(1)
.LVL415:
.LBE3457:
.LBE3456:
.LBB3458:
.LBB3459:
	lwz 0,504(1)
.LBE3459:
.LBE3458:
.LBB3460:
.LBB3461:
	lwz 10,480(1)
.LVL416:
.LBE3461:
.LBE3460:
.LBB3462:
.LBB3463:
	lwz 11,492(1)
.LVL417:
.LBE3463:
.LBE3462:
.LBB3464:
.LBB3465:
	.loc 7 425 0
	stfs 7,256(1)
	stw 4,260(1)
	stw 5,264(1)
	.loc 7 426 0
	stw 6,268(1)
	stw 7,272(1)
	stw 8,276(1)
	.loc 7 427 0
	stw 0,288(1)
.LVL418:
	stw 10,280(1)
	.loc 7 465 0
	addi 10,1,220
	.loc 7 427 0
	stw 11,284(1)
	.loc 2 767 0
	mr 11,28
.LVL419:
.L167:
	.loc 2 571 0
	lfs 0,4(11)
.LBE3465:
.LBE3464:
.LBE3474:
.LBB3475:
.LBB3476:
	.loc 7 471 0
	lfs 12,268(1)
	lfs 13,272(1)
	lfs 11,276(1)
	fmuls 12,0,12
	fmuls 13,0,13
	lfs 9,260(1)
	fmuls 11,0,11
	lfs 10,264(1)
.LBE3476:
.LBE3475:
.LBB3482:
.LBB3469:
.LBB3466:
	.loc 2 571 0
	lfs 0,0(11)
.LBE3466:
.LBE3469:
.LBE3482:
.LBB3483:
.LBB3477:
	.loc 7 471 0
	lfs 8,280(1)
	fmadds 13,0,9,13
	lfs 9,284(1)
	fmadds 11,0,10,11
	lfs 10,288(1)
	fmadds 12,7,0,12
.LBE3477:
.LBE3483:
.LBB3484:
.LBB3470:
.LBB3467:
	.loc 2 571 0
	lfs 0,8(11)
.LBE3467:
.LBE3470:
.LBE3484:
.LBB3485:
.LBB3478:
	.loc 7 474 0
	addi 11,11,12
.LVL420:
	.loc 7 467 0
	cmpw 7,11,31
	.loc 7 471 0
	fmadds 13,9,0,13
	fmadds 12,8,0,12
	fmadds 0,10,0,11
	stfs 13,4(10)
	stfs 12,0(10)
.LVL421:
	stfs 0,8(10)
.LVL422:
	addi 10,10,12
.LVL423:
	.loc 7 467 0
	bne+ 7,.L167
.LBE3478:
.LBE3485:
.LBB3486:
.LBB3471:
.LBB3468:
	.loc 2 571 0
	addi 0,9,36
	addi 11,1,184
.LVL424:
.L168:
.LBE3468:
.LBE3471:
.LBE3486:
.LBB3487:
.LBB3479:
	.loc 7 467 0
	lfs 0,4(9)
.LBE3479:
.LBE3487:
.LBB3488:
.LBB3489:
	.loc 7 471 0
	lfs 12,232(1)
	lfs 13,236(1)
	lfs 11,240(1)
	fmuls 12,0,12
	fmuls 13,0,13
	lfs 8,220(1)
	fmuls 11,0,11
	lfs 9,224(1)
.LBE3489:
.LBE3488:
.LBB3492:
.LBB3480:
	.loc 7 467 0
	lfs 0,0(9)
.LBE3480:
.LBE3492:
.LBB3493:
.LBB3490:
	.loc 7 471 0
	lfs 10,228(1)
	fmadds 12,8,0,12
	lfs 8,244(1)
	fmadds 13,9,0,13
	lfs 9,248(1)
	fmadds 11,10,0,11
.LBE3490:
.LBE3493:
.LBB3494:
.LBB3481:
	.loc 7 467 0
	lfs 0,8(9)
.LBE3481:
.LBE3494:
.LBB3495:
.LBB3491:
	.loc 7 471 0
	lfs 10,252(1)
	.loc 7 474 0
	addi 9,9,12
	.loc 7 467 0
	cmpw 7,9,0
	.loc 7 471 0
	fmadds 12,8,0,12
	fmadds 13,9,0,13
	fmadds 0,10,0,11
	stfs 12,0(11)
.LVL425:
	stfs 13,4(11)
.LVL426:
	stfs 0,8(11)
.LVL427:
	addi 11,11,12
.LVL428:
	.loc 7 467 0
	bne+ 7,.L168
.LVL429:
.LBE3491:
.LBE3495:
.LBB3496:
.LBB3497:
	.loc 7 333 0
	li 10,0
.LVL430:
.L170:
.LBB3498:
.LBB3499:
	.loc 3 424 0
	addi 11,1,184
.LVL431:
.LBE3499:
.LBE3498:
	.loc 7 333 0
	cmpwi 7,10,24
.LBB3502:
.LBB3500:
	.loc 3 424 0
	lwzux 0,11,10
.LVL432:
	mr 9,15
	stwux 0,9,10
.LBE3500:
.LBE3502:
	.loc 7 333 0
	addi 10,10,12
.LBB3503:
.LBB3501:
	.loc 3 425 0
	lwz 8,4(11)
	.loc 3 426 0
	lwz 0,8(11)
	.loc 3 425 0
	stw 8,4(9)
	.loc 3 426 0
	stw 0,8(9)
.LBE3501:
.LBE3503:
	.loc 7 333 0
	bne+ 7,.L170
.LBE3497:
.LBE3496:
	.loc 2 740 0
	lwz 0,36(30)
	addi 27,27,1
.LVL433:
	cmpw 7,0,27
	bgt+ 7,.L171
.LVL434:
.L161:
	.loc 2 771 0
	lwz 3,12(30)
	li 5,4
	lwz 4,204(30)
	mr 6,31
	bl _ZN10idAnimator12SetJointAxisE13jointHandle_t19jointModTransform_tRK6idMat3
.LBB3505:
.LBB3506:
	.loc 3 452 0
	lfs 0,1140(30)
	lfs 13,48(1)
.LBE3506:
.LBE3505:
	.loc 2 772 0
	li 5,4
.LBB3513:
.LBB3507:
	.loc 3 452 0
	lfs 10,44(1)
.LBE3507:
.LBE3513:
	.loc 2 772 0
	addi 6,1,8
.LBB3514:
.LBB3508:
	.loc 3 452 0
	fadds 13,13,0
	lfs 0,1136(30)
.LBE3508:
.LBE3514:
.LBB3515:
.LBB3516:
.LBB3517:
	.loc 7 454 0
	lfs 12,476(1)
.LBE3517:
.LBE3516:
.LBE3515:
.LBB3540:
.LBB3509:
	.loc 3 452 0
	fadds 10,10,0
.LBE3509:
.LBE3540:
.LBB3541:
.LBB3532:
.LBB3524:
	.loc 7 454 0
	lfs 0,500(1)
.LBE3524:
.LBE3532:
.LBE3541:
.LBB3542:
.LBB3543:
	.loc 3 431 0
	fsubs 28,13,28
.LVL435:
.LBE3543:
.LBE3542:
.LBB3549:
.LBB3533:
.LBB3525:
	.loc 7 454 0
	lfs 13,488(1)
.LBE3525:
.LBE3533:
.LBE3549:
.LBB3550:
.LBB3510:
	.loc 3 452 0
	lfs 11,1144(30)
.LBE3510:
.LBE3550:
.LBB3551:
.LBB3544:
	.loc 3 431 0
	fsubs 27,10,27
.LVL436:
.LBE3544:
.LBE3551:
.LBB3552:
.LBB3511:
	.loc 3 452 0
	lfs 10,52(1)
.LBE3511:
.LBE3552:
.LBB3553:
.LBB3534:
.LBB3526:
	.loc 7 454 0
	fmuls 0,28,0
.LBE3526:
.LBE3534:
.LBE3553:
	.loc 2 772 0
	lwz 3,12(30)
.LBB3554:
.LBB3535:
.LBB3527:
	.loc 7 454 0
	fmuls 13,28,13
.LBE3527:
.LBE3535:
.LBE3554:
	.loc 2 772 0
	lwz 4,204(30)
.LBB3555:
.LBB3536:
.LBB3528:
	.loc 7 454 0
	fmuls 28,28,12
.LBE3528:
.LBE3536:
.LBE3555:
.LBB3556:
.LBB3545:
	lfs 12,496(1)
.LBE3545:
.LBE3556:
.LBB3557:
.LBB3512:
	.loc 3 452 0
	fadds 10,10,11
.LBE3512:
.LBE3557:
.LBB3558:
.LBB3546:
	.loc 7 454 0
	lfs 11,484(1)
	fmadds 0,27,12,0
.LVL437:
.LBE3546:
.LBE3558:
.LBB3559:
.LBB3537:
.LBB3529:
.LBB3518:
.LBB3519:
	lfs 12,472(1)
.LBE3519:
.LBE3518:
.LBE3529:
.LBE3537:
.LBE3559:
.LBB3560:
.LBB3547:
	fmadds 13,27,11,13
	lfs 11,504(1)
	.loc 3 431 0
	fsubs 26,10,26
.LVL438:
	.loc 7 454 0
	lfs 10,492(1)
.LVL439:
.LBE3547:
.LBE3560:
.LBB3561:
.LBB3538:
.LBB3530:
.LBB3522:
.LBB3520:
	fmadds 27,27,12,28
.LVL440:
	lfs 12,480(1)
.LBE3520:
.LBE3522:
.LBE3530:
.LBE3538:
.LBE3561:
.LBB3562:
.LBB3548:
	fmadds 13,26,10,13
	fmadds 0,26,11,0
.LVL441:
.LBE3548:
.LBE3562:
.LBB3563:
.LBB3539:
.LBB3531:
.LBB3523:
.LBB3521:
	fmadds 26,26,12,27
.LVL442:
	.loc 3 397 0
	stfs 13,12(1)
	.loc 3 398 0
	stfs 0,16(1)
	.loc 3 396 0
	stfs 26,8(1)
.LBE3521:
.LBE3523:
.LBE3531:
.LBE3539:
.LBE3563:
	.loc 2 772 0
	bl _ZN10idAnimator11SetJointPosE13jointHandle_t19jointModTransform_tRK6idVec3
.LVL443:
	.loc 2 773 0
	lwz 0,36(30)
	cmpwi 7,0,0
	ble- 7,.L172
	.loc 2 571 0
	addi 29,30,136
.LBB3564:
.LBB3504:
	.loc 2 773 0
	li 31,0
	addi 27,1,712
	addi 22,1,1288
	addi 23,1,1000
.LVL444:
.L173:
.LBE3504:
.LBE3564:
	.loc 2 774 0 discriminator 2
	mulli 28,31,36
	lwzu 4,4(29)
	lwz 3,12(30)
	li 5,4
	add 6,22,28
	.loc 2 773 0 discriminator 2
	addi 31,31,1
	.loc 2 774 0 discriminator 2
	bl _ZN10idAnimator12SetJointAxisE13jointHandle_t19jointModTransform_tRK6idMat3
	.loc 2 775 0 discriminator 2
	lwz 3,12(30)
	lwz 4,-32(29)
	li 5,4
	add 6,23,28
	bl _ZN10idAnimator12SetJointAxisE13jointHandle_t19jointModTransform_tRK6idMat3
	.loc 2 776 0 discriminator 2
	lwz 3,12(30)
	lwz 4,-64(29)
	li 5,4
	add 6,27,28
	bl _ZN10idAnimator12SetJointAxisE13jointHandle_t19jointModTransform_tRK6idMat3
.LEHE10:
.LVL445:
	.loc 2 773 0 discriminator 2
	lwz 0,36(30)
	cmpw 7,0,31
	bgt+ 7,.L173
.LVL446:
.L172:
	.loc 2 779 0
	li 0,1
	stb 0,5(30)
	b .L118
.LVL447:
.L176:
.LBB3565:
.LBB3113:
.LBB3109:
.LBB3071:
.LBB3062:
.LBB3055:
.LBB3039:
.LBB3032:
	.loc 1 223 0
	lwz 9,1580(1)
.LVL448:
.LBE3032:
.LBE3039:
.LBE3055:
.LBB3056:
.LBB3047:
	.loc 8 236 0
	li 29,0
.LVL449:
.LBE3047:
.LBE3056:
.LBB3057:
.LBB3040:
.LBB3033:
.LBB3025:
.LBB3017:
	.loc 1 260 0
	lwz 0,1588(1)
.LBE3017:
.LBE3025:
	.loc 1 223 0
	addi 4,9,1
.LVL450:
.LBB3026:
.LBB3018:
	.loc 1 260 0
	cmpw 7,4,0
	ble+ 7,.L136
.LVL451:
.L212:
	.loc 1 261 0
	lwz 9,1576(1)
	addi 3,1,1576
	li 5,1
	lwz 0,12(9)
	mtctr 0
.LEHB11:
	bctrl
.LEHE11:
.LVL452:
.LBE3018:
.LBE3026:
	.loc 1 223 0
	cmpwi 7,3,0
	beq+ 7,.L137
	lwz 9,1580(1)
	b .L136
.LVL453:
.L143:
.LBE3033:
.LBE3040:
.LBE3057:
.LBE3062:
.LBE3071:
.LBE3109:
.LBE3113:
.LBE3565:
.LBB3566:
	.loc 2 656 0
	lwz 9,0(31)
	mr 3,31
	addi 29,29,1
.LVL454:
	lwz 0,200(9)
	mtctr 0
.LEHB12:
	bctrl
	cmpw 7,29,3
	blt+ 7,.L145
.L214:
	.loc 2 655 0
	li 0,0
	b .L144
.LVL455:
.L152:
.LBE3566:
.LBB3567:
.LBB3568:
	.loc 3 435 0 discriminator 1
	fmuls 6,29,12
.LBE3568:
.LBE3567:
	fmadds 6,30,13,6
	fmadds 6,31,0,6
	.loc 2 706 0 discriminator 1
	fcmpu 7,6,7
	bnl- 7,.L207
.LVL456:
.LBB3569:
.LBB3570:
	.loc 3 452 0 discriminator 4
	fadds 13,10,13
.LVL457:
.LBE3570:
.LBE3569:
	.loc 2 709 0 discriminator 4
	lwz 7,32(30)
.LBB3573:
.LBB3571:
	.loc 3 452 0 discriminator 4
	fadds 12,9,12
.LVL458:
.LBE3571:
.LBE3573:
	.loc 2 709 0 discriminator 4
	lwz 10,8(30)
.LBB3574:
.LBB3572:
	.loc 3 452 0 discriminator 4
	fadds 0,11,0
.LVL459:
.LBE3572:
.LBE3574:
	.loc 2 709 0 discriminator 4
	lis 3,gameLocal+2311032@ha
.LBB3575:
.LBB3576:
	.loc 2 571 0 discriminator 4
	fneg 8,8
.LBE3576:
.LBE3575:
	.loc 2 709 0 discriminator 4
	la 3,gameLocal+2311032@l(3)
	addi 4,1,604
	addi 5,1,116
.LVL460:
	addi 6,1,104
	addi 8,1,472
.LBB3581:
.LBB3577:
	.loc 3 431 0 discriminator 4
	fmadds 7,8,30,13
.LBE3577:
.LBE3581:
	.loc 2 709 0 discriminator 4
	li 9,65
.LBB3582:
.LBB3578:
	.loc 3 431 0 discriminator 4
	fmadds 13,8,29,12
.LBE3578:
.LBE3582:
.LBB3583:
.LBB3584:
	.loc 3 424 0 discriminator 4
	stfs 10,116(1)
.LBE3584:
.LBE3583:
.LBB3586:
.LBB3579:
	.loc 3 431 0 discriminator 4
	fmadds 8,8,31,0
.LBE3579:
.LBE3586:
.LBB3587:
.LBB3585:
	.loc 3 425 0 discriminator 4
	stfs 9,120(1)
	.loc 3 426 0 discriminator 4
	stfs 11,124(1)
.LVL461:
.LBE3585:
.LBE3587:
.LBB3588:
.LBB3580:
	.loc 3 424 0 discriminator 4
	stfs 7,104(1)
	.loc 3 425 0 discriminator 4
	stfs 13,108(1)
	.loc 3 426 0 discriminator 4
	stfs 8,112(1)
.LBE3580:
.LBE3588:
	.loc 2 709 0 discriminator 4
	bl _ZN6idClip11TranslationER7trace_sRK6idVec3S4_PK11idClipModelRK6idMat3iPK8idEntity
.LVL462:
.LBB3589:
.LBB3590:
	.loc 3 452 0 discriminator 4
	lfs 9,48(1)
	lfs 12,1140(30)
	lfs 10,44(1)
	fadds 5,9,12
	lfs 13,1136(30)
.LBE3590:
.LBE3589:
.LBB3595:
.LBB3596:
	.loc 3 431 0 discriminator 4
	lfs 8,612(1)
.LBE3596:
.LBE3595:
.LBB3600:
.LBB3591:
	.loc 3 452 0 discriminator 4
	fadds 6,10,13
.LBE3591:
.LBE3600:
.LBB3601:
.LBB3597:
	.loc 3 431 0 discriminator 4
	lfs 3,608(1)
	fsubs 8,5,8
.LBE3597:
.LBE3601:
.LBB3602:
.LBB3592:
	.loc 3 452 0 discriminator 4
	lfs 11,52(1)
	lfs 0,1144(30)
.LBE3592:
.LBE3602:
.LBB3603:
.LBB3598:
	.loc 3 431 0 discriminator 4
	fsubs 3,6,3
.LBE3598:
.LBE3603:
	.loc 2 711 0 discriminator 4
	lfs 4,1056(30)
.LBB3604:
.LBB3605:
	.loc 3 435 0 discriminator 4
	fmuls 8,29,8
.LBE3605:
.LBE3604:
.LBB3606:
.LBB3593:
	.loc 3 452 0 discriminator 4
	fadds 7,11,0
.LVL463:
	.loc 3 435 0 discriminator 4
	fmadds 8,30,3,8
.LBE3593:
.LBE3606:
.LBB3607:
.LBB3599:
	.loc 3 431 0 discriminator 4
	lfs 3,616(1)
.LVL464:
	fsubs 3,7,3
.LBE3599:
.LBE3607:
.LBB3608:
.LBB3594:
	.loc 3 435 0 discriminator 4
	fmadds 8,31,3,8
.LBE3594:
.LBE3608:
	.loc 2 711 0 discriminator 4
	fcmpu 7,4,8
	bng- 7,.L153
	.loc 2 712 0
	fsubs 8,4,8
.LVL465:
	.loc 3 456 0
	fmadds 13,8,30,13
.LBB3609:
.LBB3610:
	.loc 3 457 0
	fmadds 12,8,29,12
	.loc 3 458 0
	fmadds 0,8,31,0
	fadds 6,10,13
.LVL466:
	.loc 3 456 0
	stfs 13,1136(30)
	.loc 3 458 0
	fadds 5,9,12
.LVL467:
	.loc 3 457 0
	stfs 12,1140(30)
	.loc 3 458 0
	fadds 7,11,0
.LVL468:
	stfs 0,1144(30)
	b .L153
.LVL469:
.L209:
.LBE3610:
.LBE3609:
	.loc 2 614 0
	addi 3,1,472
	bl _ZNK6idVec35ToYawEv
	.loc 2 617 0
	lwz 31,1076(30)
	.loc 2 614 0
	fmr 23,1
.LVL470:
	.loc 2 617 0
	cmpw 7,31,24
	beq- 7,.L216
.LVL471:
.L125:
	.loc 2 620 0 discriminator 4
	addi 9,24,8
	.loc 2 618 0 discriminator 4
	stw 24,1076(30)
	.loc 2 619 0 discriminator 4
	stfs 23,1080(30)
	.loc 2 620 0 discriminator 4
	slwi 9,9,2
	add 9,30,9
	lwz 3,12(30)
	lwz 4,12(9)
	addi 6,1,92
	lwz 5,2004(26)
	addi 7,1,400
	bl _ZN10idAnimator17GetJointTransformE13jointHandle_tiR6idVec3R6idMat3
.LVL472:
.LBB3611:
.LBB3612:
.LBB3613:
	.loc 7 454 0 discriminator 4
	lfs 0,96(1)
	lfs 12,484(1)
	lfs 13,488(1)
	lfs 11,492(1)
	fmuls 12,0,12
	fmuls 13,0,13
.LBE3613:
.LBE3612:
.LBE3611:
.LBB3618:
.LBB3619:
	lfs 10,472(1)
.LBE3619:
.LBE3618:
.LBB3623:
.LBB3616:
.LBB3614:
	fmuls 11,0,11
	lfs 0,92(1)
.LBE3614:
.LBE3616:
.LBE3623:
.LBB3624:
.LBB3625:
	.loc 3 426 0 discriminator 4
	lwz 31,1076(30)
.LBE3625:
.LBE3624:
.LBB3628:
.LBB3620:
	.loc 7 454 0 discriminator 4
	fmadds 12,10,0,12
	lfs 10,476(1)
	fmadds 13,0,10,13
	lfs 10,480(1)
	fmadds 11,0,10,11
.LBE3620:
.LBE3628:
.LBB3629:
.LBB3617:
.LBB3615:
	lfs 0,100(1)
.LVL473:
.LBE3615:
.LBE3617:
.LBE3629:
.LBB3630:
.LBB3621:
	lfs 10,496(1)
	fmadds 12,10,0,12
	lfs 10,500(1)
	fmadds 13,0,10,13
	lfs 10,504(1)
	.loc 3 452 0 discriminator 4
	fadds 12,27,12
	.loc 7 454 0 discriminator 4
	fmadds 0,0,10,11
	.loc 3 452 0 discriminator 4
	fadds 13,28,13
.LBE3621:
.LBE3630:
.LBB3631:
.LBB3626:
	.loc 3 424 0 discriminator 4
	stfs 12,1084(30)
.LBE3626:
.LBE3631:
.LBB3632:
.LBB3622:
	.loc 3 452 0 discriminator 4
	fadds 0,26,0
.LVL474:
.LBE3622:
.LBE3632:
.LBB3633:
.LBB3627:
	.loc 3 425 0 discriminator 4
	stfs 13,1088(30)
	.loc 3 426 0 discriminator 4
	stfs 0,1092(30)
.LVL475:
.L131:
.LBE3627:
.LBE3633:
	.loc 2 625 0
	mulli 31,31,12
	addi 29,1,508
	lwz 9,36(30)
	add 11,29,31
.LVL476:
.LBB3634:
.LBB3635:
	.loc 3 424 0
	stfsx 12,29,31
	.loc 3 425 0
	stfs 13,4(11)
	.loc 3 426 0
	stfs 0,8(11)
	b .L124
.LVL477:
.L180:
.LBE3635:
.LBE3634:
	.loc 2 672 0
	lis 9,.LC14@ha
	lfs 23,.LC14@l(9)
	b .L147
.LVL478:
.L215:
	.loc 2 755 0
	lwz 3,gameRenderWorld@l(21)
	mr 4,17
	addi 5,1,56
.LVL479:
	addi 6,1,68
	lwz 9,0(3)
	li 7,0
	li 8,0
	lwz 0,156(9)
	mtctr 0
	bctrl
.LVL480:
	.loc 2 756 0
	lwz 3,gameRenderWorld@l(21)
	mr 4,18
	addi 5,1,68
	lwz 9,0(3)
	mr 6,24
	li 7,0
	li 8,0
	lwz 0,156(9)
	mtctr 0
	bctrl
.LBB3636:
.LBB3637:
	.loc 3 452 0
	lfs 0,144(1)
	lfs 13,72(1)
.LBE3637:
.LBE3636:
	.loc 2 757 0
	mr 4,19
.LBB3647:
.LBB3642:
	.loc 3 452 0
	lfs 12,76(1)
.LBE3642:
.LBE3647:
	.loc 2 757 0
	addi 5,1,68
.LBB3648:
.LBB3643:
	.loc 3 452 0
	fadds 13,13,0
	lfs 0,148(1)
.LBE3643:
.LBE3648:
	.loc 2 757 0
	lwz 3,gameRenderWorld@l(21)
	addi 6,1,32
.LBB3649:
.LBB3644:
	.loc 3 452 0
	fadds 0,12,0
	lfs 11,68(1)
	lfs 12,140(1)
.LBE3644:
.LBE3649:
	.loc 2 757 0
	li 7,0
	lwz 9,0(3)
	li 8,0
.LBB3650:
.LBB3645:
	.loc 3 452 0
	fadds 12,11,12
.LBB3638:
.LBB3639:
	.loc 3 397 0
	stfs 13,36(1)
.LBE3639:
.LBE3638:
.LBE3645:
.LBE3650:
	.loc 2 757 0
	lwz 0,156(9)
.LVL481:
.LBB3651:
.LBB3646:
.LBB3641:
.LBB3640:
	.loc 3 398 0
	stfs 0,40(1)
	.loc 3 396 0
	stfs 12,32(1)
.LBE3640:
.LBE3641:
.LBE3646:
.LBE3651:
	.loc 2 757 0
	mtctr 0
	bctrl
.LVL482:
.LBB3652:
.LBB3653:
	.loc 3 452 0
	lfs 0,132(1)
	lfs 13,72(1)
.LBE3653:
.LBE3652:
	.loc 2 758 0
	mr 4,20
.LBB3663:
.LBB3658:
	.loc 3 452 0
	lfs 12,76(1)
.LBE3658:
.LBE3663:
	.loc 2 758 0
	addi 5,1,68
.LVL483:
.LBB3664:
.LBB3659:
	.loc 3 452 0
	fadds 13,13,0
	lfs 0,136(1)
.LBE3659:
.LBE3664:
	.loc 2 758 0
	lwz 3,gameRenderWorld@l(21)
	addi 6,1,20
.LBB3665:
.LBB3660:
	.loc 3 452 0
	fadds 0,12,0
	lfs 11,68(1)
	lfs 12,128(1)
.LBE3660:
.LBE3665:
	.loc 2 758 0
	li 7,0
	lwz 9,0(3)
	li 8,0
.LBB3666:
.LBB3661:
	.loc 3 452 0
	fadds 12,11,12
.LBB3654:
.LBB3655:
	.loc 3 397 0
	stfs 13,24(1)
.LBE3655:
.LBE3654:
.LBE3661:
.LBE3666:
	.loc 2 758 0
	lwz 0,156(9)
.LVL484:
.LBB3667:
.LBB3662:
.LBB3657:
.LBB3656:
	.loc 3 398 0
	stfs 0,28(1)
	.loc 3 396 0
	stfs 12,20(1)
.LBE3656:
.LBE3657:
.LBE3662:
.LBE3667:
	.loc 2 758 0
	mtctr 0
	bctrl
.LVL485:
	b .L162
.LVL486:
.L159:
	.loc 2 735 0
	li 0,1
	.loc 2 732 0
	stfs 7,1100(30)
	.loc 2 735 0
	stb 0,1096(30)
	.loc 2 736 0
	b .L118
.LVL487:
.L216:
	.loc 2 617 0 discriminator 2
	lfs 0,1080(30)
.LBB3668:
.LBB3669:
.LBB3670:
.LBB3671:
	.loc 6 904 0 discriminator 2
	lis 29,.LC10@ha
.LBE3671:
.LBE3670:
.LBE3669:
.LBE3668:
	.loc 2 617 0 discriminator 2
	fsubs 0,1,0
	stfs 0,2872(1)
.LVL488:
.LBB3675:
.LBB3674:
.LBB3673:
.LBB3672:
	.loc 6 904 0 discriminator 2
	lfs 0,.LC10@l(29)
.LVL489:
	lfs 13,2872(1)
	fcmpu 7,13,0
	cror 30,29,30
	beq- 7,.L126
	.loc 6 904 0 is_stmt 0
	lis 9,.LC14@ha
	lfs 0,.LC14@l(9)
	fcmpu 7,13,0
	bnl- 7,.L127
.L126:
	.loc 6 905 0 is_stmt 1
	lfs 0,2872(1)
	lfs 22,.LC10@l(29)
	fdivs 1,0,22
.LVL490:
	bl floor
	lfs 13,2872(1)
	.loc 2 571 0
	fneg 0,1
	.loc 6 905 0
	fmadd 0,0,22,13
	frsp 0,0
	stfs 0,2872(1)
.LVL491:
.L127:
.LBE3672:
.LBE3673:
	.loc 6 912 0
	lis 9,.LC12@ha
	lfs 13,2872(1)
	lfs 0,.LC12@l(9)
	fcmpu 7,13,0
	bng- 7,.L129
	.loc 6 913 0
	lfs 0,.LC10@l(29)
	fsubs 13,13,0
	stfs 13,2872(1)
.LVL492:
.L129:
.LBE3674:
.LBE3675:
.LBB3676:
.LBB3677:
	.loc 6 781 0
	lwz 9,2872(1)
	rlwinm 0,9,0,1,31
.LBE3677:
.LBE3676:
	.loc 2 617 0
	lis 9,.LC13@ha
	stw 0,2876(1)
	lfs 0,.LC13@l(9)
	lfs 13,2876(1)
	fcmpu 7,13,0
	bgt- 7,.L125
	lfs 12,1084(30)
	lfs 13,1088(30)
	lfs 0,1092(30)
	b .L131
.LVL493:
.L184:
	mr 31,3
.LVL494:
.LBB3678:
.LBB3114:
.LBB3110:
.LBB3072:
	.loc 2 645 0
	addi 3,1,1576
	bl _ZN14idFixedWindingD1Ev
	mr 3,31
	bl _Unwind_Resume
.LEHE12:
.LBE3072:
.LBE3110:
.LBE3114:
.LBE3678:
.LBE3679:
	.cfi_endproc
.LFE2835:
	.section	.gcc_except_table
.LLSDA2835:
	.byte	0xff
	.byte	0xff
	.byte	0x1
	.uleb128 .LLSDACSE2835-.LLSDACSB2835
.LLSDACSB2835:
	.uleb128 .LEHB8-.LFB2835
	.uleb128 .LEHE8-.LEHB8
	.uleb128 0
	.uleb128 0
	.uleb128 .LEHB9-.LFB2835
	.uleb128 .LEHE9-.LEHB9
	.uleb128 .L184-.LFB2835
	.uleb128 0
	.uleb128 .LEHB10-.LFB2835
	.uleb128 .LEHE10-.LEHB10
	.uleb128 0
	.uleb128 0
	.uleb128 .LEHB11-.LFB2835
	.uleb128 .LEHE11-.LEHB11
	.uleb128 .L184-.LFB2835
	.uleb128 0
	.uleb128 .LEHB12-.LFB2835
	.uleb128 .LEHE12-.LEHB12
	.uleb128 0
	.uleb128 0
.LLSDACSE2835:
	.section	".text"
	.size	_ZN9idIK_Walk8EvaluateEv, .-_ZN9idIK_Walk8EvaluateEv
	.align 2
	.globl _ZN10idIK_Reach4InitEP8idEntityPKcRK6idVec3
	.type	_ZN10idIK_Reach4InitEP8idEntityPKcRK6idVec3, @function
_ZN10idIK_Reach4InitEP8idEntityPKcRK6idVec3:
.LFB2856:
	.loc 2 966 0
	.cfi_startproc
.LVL495:
	stwu 1,-600(1)
.LCFI51:
	.cfi_def_cfa_offset 600
	mflr 0
	stw 27,532(1)
.LBB3867:
	.loc 2 973 0
	mr. 27,4
	.cfi_offset 27, -68
	.cfi_register 65, 0
.LBE3867:
	.loc 2 966 0
	stw 25,524(1)
	mr 25,6
	.cfi_offset 25, -76
	stw 26,528(1)
	mr 26,5
	.cfi_offset 26, -72
	stw 29,540(1)
.LBB4226:
	.loc 2 974 0
	li 29,0
	.cfi_offset 29, -60
.LBE4226:
	.loc 2 966 0
	stw 30,544(1)
	mr 30,3
	.cfi_offset 30, -56
	stw 31,548(1)
	mr 31,1
	.cfi_offset 31, -52
.LCFI52:
	.cfi_def_cfa_register 31
	stw 0,604(1)
	stfd 26,552(1)
	stfd 27,560(1)
	stfd 28,568(1)
	stfd 29,576(1)
	stfd 30,584(1)
	stfd 31,592(1)
	stw 14,480(1)
	stw 15,484(1)
	stw 16,488(1)
	stw 17,492(1)
	stw 18,496(1)
	stw 19,500(1)
	stw 20,504(1)
	stw 21,508(1)
	stw 22,512(1)
	stw 23,516(1)
	stw 24,520(1)
	stw 28,536(1)
.LBB4227:
	.loc 2 973 0
	beq- 0,.L218
	.cfi_offset 28, -64
	.cfi_offset 24, -80
	.cfi_offset 23, -84
	.cfi_offset 22, -88
	.cfi_offset 21, -92
	.cfi_offset 20, -96
	.cfi_offset 19, -100
	.cfi_offset 18, -104
	.cfi_offset 17, -108
	.cfi_offset 16, -112
	.cfi_offset 15, -116
	.cfi_offset 14, -120
	.cfi_offset 63, -8
	.cfi_offset 62, -16
	.cfi_offset 61, -24
	.cfi_offset 60, -32
	.cfi_offset 59, -40
	.cfi_offset 58, -48
	.cfi_offset 65, 4
	.loc 2 977 0
	addi 28,27,100
.LVL496:
.LBB3868:
.LBB3869:
.LBB3870:
.LBB3871:
	.file 10 "d:/Data/Nintendo/DoomGX/src/game/../idlib/../idlib/Dict.h"
	.loc 10 241 0
	lis 4,.LC17@ha
.LVL497:
	mr 3,28
.LVL498:
	la 4,.LC17@l(4)
	bl _ZNK6idDict7FindKeyEPKc
.LVL499:
	.loc 10 242 0
	cmpwi 0,3,0
	beq- 0,.L247
.LVL500:
.LBB3872:
	.loc 2 1139 0
	lwz 9,4(3)
	lwz 3,4(9)
.LVL501:
.L219:
.LBE3872:
.LBE3871:
.LBE3870:
	.loc 10 253 0
	bl atoi
.LVL502:
.LBE3869:
.LBE3868:
.LBB3876:
.LBB3877:
	.file 11 "d:/Data/Nintendo/DoomGX/src/game/../idlib/../idlib/Lib.h"
	.loc 11 159 0
	cmpwi 7,3,1
	ble- 7,.L258
.LBE3877:
.LBE3876:
	.loc 2 977 0
	li 0,2
	stw 0,32(30)
.L245:
	.loc 2 982 0
	mr 3,30
.LVL503:
	mr 4,27
	mr 5,26
	mr 6,25
	bl _ZN4idIK4InitEP8idEntityPKcRK6idVec3
	.loc 2 983 0
	li 29,0
	.loc 2 982 0
	cmpwi 7,3,0
	bne- 7,.L259
.LVL504:
.L218:
.LBE4227:
	.loc 2 1056 0
	addi 11,31,600
	mr 3,29
	lwz 0,4(11)
	lwz 14,-120(11)
	mtlr 0
	lwz 15,-116(11)
	lwz 16,-112(11)
	lwz 17,-108(11)
	lwz 18,-104(11)
	lwz 19,-100(11)
	lwz 20,-96(11)
	lwz 21,-92(11)
	lwz 22,-88(11)
	lwz 23,-84(11)
	lwz 24,-80(11)
	lwz 25,-76(11)
	lwz 26,-72(11)
	lwz 27,-68(11)
	lwz 28,-64(11)
	lwz 29,-60(11)
	lwz 30,-56(11)
.LVL505:
	lwz 31,-52(11)
	.cfi_remember_state
.LCFI53:
	.cfi_def_cfa 11, 0
	lfd 26,-48(11)
	lfd 27,-40(11)
	lfd 28,-32(11)
	lfd 29,-24(11)
	lfd 30,-16(11)
	lfd 31,-8(11)
	mr 1,11
.LCFI54:
	.cfi_def_cfa_register 1
	.cfi_restore 63
	.cfi_restore 62
	.cfi_restore 61
	.cfi_restore 60
	.cfi_restore 59
	.cfi_restore 58
	.cfi_restore 31
	.cfi_restore 30
	.cfi_restore 29
	.cfi_restore 28
	.cfi_restore 27
	.cfi_restore 26
	.cfi_restore 25
	.cfi_restore 24
	.cfi_restore 23
	.cfi_restore 22
	.cfi_restore 21
	.cfi_restore 20
	.cfi_restore 19
	.cfi_restore 18
	.cfi_restore 17
	.cfi_restore 16
	.cfi_restore 15
	.cfi_restore 14
	blr
.LVL506:
.L258:
.LCFI55:
	.cfi_restore_state
.LBB4228:
	.loc 2 978 0
	cmpwi 7,3,0
	.loc 2 977 0
	stw 3,32(30)
	.loc 2 979 0
	li 29,1
	.loc 2 978 0
	beq+ 7,.L218
	b .L245
.LVL507:
.L259:
	.loc 2 986 0
	lwz 3,12(30)
	bl _ZNK10idAnimator9NumJointsEv
	.loc 2 987 0
	lwz 9,0(1)
	mulli 0,3,48
	.loc 2 986 0
	mr 24,3
.LVL508:
	.loc 2 987 0
	subfic 0,0,-32
	stwux 9,1,0
	.loc 2 990 0
	lis 9,gameEdit@ha
	lwz 23,gameEdit@l(9)
	lwz 3,12(30)
.LVL509:
	.loc 2 987 0
	addi 27,1,23
.LVL510:
	.loc 2 990 0
	lwz 9,0(23)
	.loc 2 987 0
	rlwinm 27,27,0,0,27
.LVL511:
	.loc 2 990 0
	lwz 26,60(9)
.LVL512:
	bl _ZNK10idAnimator11ModelHandleEv
	mr 21,3
	lwz 4,16(30)
	lwz 3,12(30)
	bl _ZNK10idAnimator7GetAnimEi
	li 4,0
	bl _ZNK6idAnim7MD5AnimEi
	mr 22,3
	lwz 3,12(30)
	bl _ZNK10idAnimator8ModelDefEv
	bl _ZNK14idDeclModelDef15GetVisualOffsetEv
.LVL513:
.LBB3878:
.LBB3879:
	.loc 3 452 0
	lfs 12,4(25)
	lfs 11,0(3)
	lfs 9,4(3)
	lfs 10,8(3)
	lfs 0,8(25)
	fadds 12,9,12
	lfs 13,0(25)
	fadds 0,10,0
.LVL514:
.LBE3879:
.LBE3878:
	.loc 2 990 0
	lwz 3,12(30)
.LVL515:
.LBB3883:
.LBB3882:
	.loc 3 452 0
	fadds 13,11,13
.LBB3880:
.LBB3881:
	.loc 3 397 0
	stfs 12,12(31)
	.loc 3 398 0
	stfs 0,16(31)
	.loc 3 396 0
	stfs 13,8(31)
.LBE3881:
.LBE3880:
.LBE3882:
.LBE3883:
	.loc 2 990 0
	bl _ZNK10idAnimator12RemoveOriginEv
.LVL516:
	mr 10,3
	mr 4,21
	mr 3,23
	mr 5,22
	mr 6,24
	mr 7,27
	li 8,1
	addi 9,31,8
	mtctr 26
	bctrl
	.loc 2 995 0
	lwz 0,32(30)
	.loc 2 992 0
	stw 29,36(30)
.LVL517:
	.loc 2 995 0
	cmpwi 7,0,0
	ble- 7,.L221
	li 24,0
.LVL518:
	lis 19,.LC18@ha
	la 19,.LC18@l(19)
	.loc 2 997 0
	addi 29,24,1
	mr 4,29
	mr 3,19
	crxor 6,6,6
	bl _Z2vaPKcz
	lis 20,.LC20@ha
	mr 4,3
.LVL519:
.LBB3884:
.LBB3885:
	.loc 10 241 0
	mr 3,28
.LVL520:
	bl _ZNK6idDict7FindKeyEPKc
.LVL521:
	lis 21,.LC22@ha
	.loc 10 242 0
	cmpwi 0,3,0
	lis 22,.LC24@ha
.LBE3885:
.LBE3884:
	.loc 2 1000 0
	lis 18,gameLocal@ha
	lis 14,.LC19@ha
	.loc 2 1006 0
	lis 15,.LC21@ha
	.loc 2 1012 0
	lis 16,.LC23@ha
	.loc 2 995 0
	mr 26,30
	mr 25,30
.LVL522:
	la 20,.LC20@l(20)
	la 21,.LC22@l(21)
	la 22,.LC24@l(22)
.LBB3890:
.LBB3887:
	.loc 10 245 0
	lis 17,.LC4@ha
.LBE3887:
.LBE3890:
	.loc 2 1000 0
	la 18,gameLocal@l(18)
	la 14,.LC19@l(14)
	.loc 2 1006 0
	la 15,.LC21@l(15)
	.loc 2 1012 0
	la 16,.LC23@l(16)
	.loc 2 1018 0
	li 23,1
.LBB3891:
.LBB3888:
	.loc 10 242 0
	beq- 0,.L250
.LVL523:
.L264:
.LBB3886:
	.loc 2 1139 0
	lwz 9,4(3)
	lwz 5,4(9)
.LVL524:
.L222:
.LBE3886:
.LBE3888:
.LBE3891:
	.loc 2 998 0
	lwz 3,12(30)
.LVL525:
	mr 4,5
	stw 5,472(31)
	bl _ZNK10idAnimator14GetJointHandleEPKc
	.loc 2 999 0
	cmpwi 7,3,-1
	.loc 2 998 0
	stw 3,40(25)
	.loc 2 999 0
	lwz 5,472(31)
	beq- 7,.L260
.L223:
	.loc 2 1003 0
	mr 4,29
	mr 3,20
	crxor 6,6,6
	bl _Z2vaPKcz
	mr 4,3
.LVL526:
.LBB3892:
.LBB3893:
	.loc 10 241 0
	mr 3,28
.LVL527:
	bl _ZNK6idDict7FindKeyEPKc
.LVL528:
	.loc 10 242 0
	cmpwi 0,3,0
	beq- 0,.L251
.LVL529:
.LBB3894:
	.loc 2 1139 0
	lwz 9,4(3)
	lwz 5,4(9)
.LVL530:
.L224:
.LBE3894:
.LBE3893:
.LBE3892:
	.loc 2 1004 0
	lwz 3,12(30)
.LVL531:
	mr 4,5
	stw 5,472(31)
	bl _ZNK10idAnimator14GetJointHandleEPKc
	.loc 2 1005 0
	cmpwi 7,3,-1
	.loc 2 1004 0
	stw 3,48(25)
	.loc 2 1005 0
	lwz 5,472(31)
	beq- 7,.L261
.L225:
	.loc 2 1009 0
	mr 4,29
	mr 3,21
	crxor 6,6,6
	bl _Z2vaPKcz
	mr 4,3
.LVL532:
.LBB3896:
.LBB3897:
	.loc 10 241 0
	mr 3,28
.LVL533:
	bl _ZNK6idDict7FindKeyEPKc
.LVL534:
	.loc 10 242 0
	cmpwi 0,3,0
	beq- 0,.L252
.LVL535:
.LBB3898:
	.loc 2 1139 0
	lwz 9,4(3)
	lwz 5,4(9)
.LVL536:
.L226:
.LBE3898:
.LBE3897:
.LBE3896:
	.loc 2 1010 0
	lwz 3,12(30)
.LVL537:
	mr 4,5
	stw 5,472(31)
	bl _ZNK10idAnimator14GetJointHandleEPKc
	.loc 2 1011 0
	cmpwi 7,3,-1
	.loc 2 1010 0
	stw 3,56(25)
	.loc 2 1011 0
	lwz 5,472(31)
	beq- 7,.L262
.L227:
	.loc 2 1015 0
	mr 4,29
	mr 3,22
	crxor 6,6,6
	bl _Z2vaPKcz
	mr 4,3
.LVL538:
.LBB3900:
.LBB3901:
	.loc 10 241 0
	mr 3,28
.LVL539:
	bl _ZNK6idDict7FindKeyEPKc
.LVL540:
	.loc 10 242 0
	cmpwi 0,3,0
	beq- 0,.L253
.LVL541:
.LBB3902:
	.loc 2 1139 0
	lwz 9,4(3)
	lwz 4,4(9)
.LVL542:
.L228:
.LBE3902:
.LBE3901:
.LBE3900:
	.loc 2 1016 0
	lwz 3,12(30)
.LVL543:
	.loc 2 1018 0
	slw 24,23,24
	.loc 2 1016 0
	bl _ZNK10idAnimator14GetJointHandleEPKc
	stw 3,64(25)
	.loc 2 995 0
	addi 25,25,4
	lwz 0,32(30)
	.loc 2 1018 0
	lwz 9,36(30)
	.loc 2 995 0
	cmpw 7,0,29
	.loc 2 1018 0
	or 24,9,24
	stw 24,36(30)
.LVL544:
	.loc 2 995 0
	ble- 7,.L263
	mr 24,29
	.loc 2 997 0
	mr 3,19
	addi 29,24,1
.LVL545:
	mr 4,29
	crxor 6,6,6
	bl _Z2vaPKcz
	mr 4,3
.LVL546:
.LBB3904:
.LBB3889:
	.loc 10 241 0
	mr 3,28
.LVL547:
	bl _ZNK6idDict7FindKeyEPKc
.LVL548:
	.loc 10 242 0
	cmpwi 0,3,0
	bne+ 0,.L264
.LVL549:
.L250:
	.loc 10 245 0
	la 5,.LC4@l(17)
	b .L222
.LVL550:
.L269:
.LBE3889:
.LBE3904:
.LBB3905:
.LBB3906:
	.loc 7 333 0
	li 10,0
.LVL551:
.L243:
.LBB3907:
.LBB3908:
	.loc 3 424 0
	addi 11,31,68
.LBE3908:
.LBE3907:
	.loc 7 333 0
	cmpwi 7,10,24
.LBB3911:
.LBB3909:
	.loc 3 424 0
	lwzux 0,11,10
	mr 9,24
	stwux 0,9,10
.LBE3909:
.LBE3911:
	.loc 7 333 0
	addi 10,10,12
.LBB3912:
.LBB3910:
	.loc 3 425 0
	lwz 8,4(11)
	.loc 3 426 0
	lwz 0,8(11)
	.loc 3 425 0
	stw 8,4(9)
	.loc 3 426 0
	stw 0,8(9)
.LBE3910:
.LBE3912:
	.loc 7 333 0
	bne+ 7,.L243
.LBE3906:
.LBE3905:
	.loc 2 1022 0
	lwz 0,32(30)
	addi 25,25,1
.LVL552:
	addi 26,26,4
	cmpw 7,0,25
	bgt+ 7,.L244
.LVL553:
.L221:
	.loc 2 1053 0
	li 0,1
	.loc 2 1055 0
	li 29,1
	.loc 2 1053 0
	stb 0,4(30)
	.loc 2 1055 0
	b .L218
.LVL554:
.L247:
.LBB3913:
.LBB3875:
.LBB3874:
.LBB3873:
	.loc 10 245 0
	lis 3,.LC15@ha
.LVL555:
	la 3,.LC15@l(3)
	b .L219
.LVL556:
.L263:
.LBE3873:
.LBE3874:
.LBE3875:
.LBE3913:
	.loc 2 1022 0 discriminator 1
	cmpwi 7,0,0
	ble- 7,.L221
	.loc 2 1022 0 is_stmt 0
	li 25,0
	addi 28,31,176
.LVL557:
	addi 29,31,104
.LBB3914:
.LBB3915:
	.loc 3 410 0 is_stmt 1
	lis 22,.LC16@ha
	.loc 3 411 0
	li 23,0
.LVL558:
.L244:
.LBE3915:
.LBE3914:
	.loc 2 1024 0
	lwz 0,40(26)
.LBB3918:
.LBB3919:
.LBB3920:
.LBB3921:
	.loc 7 427 0
	li 8,0
.LBE3921:
.LBE3920:
.LBE3919:
.LBE3918:
.LBB3931:
.LBB3932:
	.loc 7 333 0
	cmpwi 7,8,24
.LBE3932:
.LBE3931:
	.loc 2 1024 0
	mulli 0,0,48
	add 11,27,0
.LVL559:
.LBB3944:
.LBB3928:
	.file 12 "d:/Data/Nintendo/DoomGX/src/game/../idlib/../idlib/geometry/JointTransform.h"
	.loc 12 230 0
	lwzx 6,27,0
	lwz 9,40(11)
.LVL560:
	lwz 7,16(11)
.LVL561:
.LBB3925:
.LBB3922:
	.loc 7 427 0
	stw 9,316(31)
.LBE3922:
.LBE3925:
.LBE3928:
.LBE3944:
.LBB3945:
.LBB3941:
.LBB3933:
.LBB3934:
	.loc 3 424 0
	addi 9,31,392
	stwux 6,9,8
.LBE3934:
.LBE3933:
	.loc 7 333 0
	addi 8,8,12
.LBE3941:
.LBE3945:
.LBB3946:
.LBB3929:
	.loc 12 230 0
	lwz 0,32(11)
.LVL562:
	lwz 10,24(11)
	lwz 24,4(11)
.LVL563:
	lwz 3,20(11)
.LVL564:
	lwz 4,36(11)
.LVL565:
	lwz 5,8(11)
.LVL566:
.LBB3926:
.LBB3923:
	.loc 7 427 0
	stw 10,312(31)
.LBE3923:
.LBE3926:
.LBE3929:
.LBE3946:
.LBB3947:
.LBB3942:
	.loc 7 333 0
	addi 10,31,284
.LBE3942:
.LBE3947:
.LBB3948:
.LBB3930:
.LBB3927:
.LBB3924:
	.loc 7 425 0
	stw 6,284(31)
	stw 7,288(31)
	stw 0,292(31)
	.loc 7 426 0
	stw 24,296(31)
	stw 3,300(31)
	stw 4,304(31)
	.loc 7 427 0
	stw 5,308(31)
.LBE3924:
.LBE3927:
.LBE3930:
.LBE3948:
.LBB3949:
.LBB3943:
.LBB3938:
.LBB3935:
	.loc 3 425 0
	stw 7,4(9)
	.loc 3 426 0
	stw 0,8(9)
.LBE3935:
.LBE3938:
	.loc 7 333 0
	beq- 7,.L230
.LVL567:
.L265:
	lwzux 6,10,8
	cmpwi 7,8,24
.LBB3939:
.LBB3936:
	.loc 3 424 0
	addi 9,31,392
.LVL568:
	stwux 6,9,8
.LVL569:
.LBE3936:
.LBE3939:
	.loc 7 333 0
	addi 8,8,12
	.loc 2 966 0
	lwz 7,4(10)
	lwz 0,8(10)
	.loc 7 333 0
	addi 10,31,284
.LBB3940:
.LBB3937:
	.loc 3 425 0
	stw 7,4(9)
	.loc 3 426 0
	stw 0,8(9)
.LBE3937:
.LBE3940:
	.loc 7 333 0
	bne+ 7,.L265
.L230:
.LVL570:
.LBE3943:
.LBE3949:
	.loc 2 1027 0
	lwz 0,48(26)
.LBB3950:
.LBB3951:
	.loc 12 234 0
	lwz 21,28(11)
.LBE3951:
.LBE3950:
	.loc 2 1027 0
	mulli 0,0,48
.LBB3953:
.LBB3952:
	.loc 12 234 0
	lwz 24,44(11)
.LVL571:
.LBE3952:
.LBE3953:
.LBB3954:
.LBB3955:
	.loc 3 424 0
	lwz 20,12(11)
.LBE3955:
.LBE3954:
	.loc 2 1027 0
	add 10,27,0
.LVL572:
.LBB3957:
.LBB3958:
	.loc 12 230 0
	lwzx 6,27,0
	lwz 8,8(10)
	lwz 9,40(10)
.LVL573:
.LBB3959:
.LBB3960:
	.loc 7 427 0
	stw 8,272(31)
	li 8,0
.LBE3960:
.LBE3959:
.LBE3958:
.LBE3957:
.LBB3971:
.LBB3972:
	.loc 7 333 0
	cmpwi 7,8,24
.LBE3972:
.LBE3971:
.LBB3987:
.LBB3967:
.LBB3964:
.LBB3961:
	.loc 7 427 0
	stw 9,280(31)
.LBE3961:
.LBE3964:
.LBE3967:
.LBE3987:
.LBB3988:
.LBB3983:
.LBB3973:
.LBB3974:
	.loc 3 424 0
	addi 9,31,356
.LBE3974:
.LBE3973:
.LBE3983:
.LBE3988:
.LBB3989:
.LBB3968:
	.loc 12 230 0
	lwz 7,16(10)
.LVL574:
.LBE3968:
.LBE3989:
.LBB3990:
.LBB3984:
.LBB3979:
.LBB3975:
	.loc 3 424 0
	stwux 6,9,8
.LBE3975:
.LBE3979:
	.loc 7 333 0
	addi 8,8,12
.LBE3984:
.LBE3990:
.LBB3991:
.LBB3969:
	.loc 12 230 0
	lwz 0,32(10)
.LVL575:
	lwz 11,24(10)
.LVL576:
	lwz 3,4(10)
.LVL577:
	lwz 4,20(10)
.LVL578:
	lwz 5,36(10)
.LVL579:
.LBB3965:
.LBB3962:
	.loc 7 427 0
	stw 11,276(31)
.LBE3962:
.LBE3965:
.LBE3969:
.LBE3991:
.LBB3992:
.LBB3985:
	.loc 7 333 0
	addi 11,31,248
.LBE3985:
.LBE3992:
.LBB3993:
.LBB3956:
	.loc 3 424 0
	stw 20,44(31)
	.loc 3 425 0
	stw 21,48(31)
	.loc 3 426 0
	stw 24,52(31)
.LBE3956:
.LBE3993:
.LBB3994:
.LBB3970:
.LBB3966:
.LBB3963:
	.loc 7 425 0
	stw 6,248(31)
	stw 7,252(31)
	stw 0,256(31)
	.loc 7 426 0
	stw 3,260(31)
	stw 4,264(31)
	stw 5,268(31)
.LBE3963:
.LBE3966:
.LBE3970:
.LBE3994:
.LBB3995:
.LBB3986:
.LBB3980:
.LBB3976:
	.loc 3 425 0
	stw 7,4(9)
	.loc 3 426 0
	stw 0,8(9)
.LBE3976:
.LBE3980:
	.loc 7 333 0
	beq- 7,.L232
.LVL580:
.L266:
	lwzux 6,11,8
	cmpwi 7,8,24
.LBB3981:
.LBB3977:
	.loc 3 424 0
	addi 9,31,356
.LVL581:
	stwux 6,9,8
.LVL582:
.LBE3977:
.LBE3981:
	.loc 7 333 0
	addi 8,8,12
	.loc 2 966 0
	lwz 7,4(11)
	lwz 0,8(11)
	.loc 7 333 0
	addi 11,31,248
.LBB3982:
.LBB3978:
	.loc 3 425 0
	stw 7,4(9)
	.loc 3 426 0
	stw 0,8(9)
.LBE3978:
.LBE3982:
	.loc 7 333 0
	bne+ 7,.L266
.L232:
.LVL583:
.LBE3986:
.LBE3995:
	.loc 2 1030 0
	lwz 0,56(26)
.LBB3996:
.LBB3997:
	.loc 12 234 0
	lfs 13,12(10)
.LBE3997:
.LBE3996:
	.loc 2 1030 0
	mulli 0,0,48
.LBB3999:
.LBB3998:
	.loc 12 234 0
	lfs 12,28(10)
	lfs 0,44(10)
.LVL584:
.LBE3998:
.LBE3999:
	.loc 2 1030 0
	add 11,27,0
.LVL585:
.LBB4000:
.LBB4001:
	.loc 12 230 0
	lwzx 6,27,0
	lwz 8,8(11)
	lwz 9,40(11)
.LVL586:
.LBB4002:
.LBB4003:
	.loc 7 427 0
	stw 8,236(31)
	li 8,0
.LBE4003:
.LBE4002:
.LBE4001:
.LBE4000:
.LBB4014:
.LBB4015:
	.loc 7 333 0
	cmpwi 7,8,24
.LBE4015:
.LBE4014:
.LBB4030:
.LBB4010:
.LBB4007:
.LBB4004:
	.loc 7 427 0
	stw 9,244(31)
.LBE4004:
.LBE4007:
.LBE4010:
.LBE4030:
.LBB4031:
.LBB4026:
.LBB4016:
.LBB4017:
	.loc 3 424 0
	addi 9,31,320
.LBE4017:
.LBE4016:
.LBE4026:
.LBE4031:
.LBB4032:
.LBB4011:
	.loc 12 230 0
	lwz 7,16(11)
.LVL587:
.LBE4011:
.LBE4032:
.LBB4033:
.LBB4027:
.LBB4022:
.LBB4018:
	.loc 3 424 0
	stwux 6,9,8
.LBE4018:
.LBE4022:
	.loc 7 333 0
	addi 8,8,12
.LBE4027:
.LBE4033:
.LBB4034:
.LBB4012:
	.loc 12 230 0
	lwz 0,32(11)
.LVL588:
	lwz 10,24(11)
.LVL589:
	lwz 3,4(11)
.LVL590:
	lwz 4,20(11)
.LVL591:
	lwz 5,36(11)
.LVL592:
.LBB4008:
.LBB4005:
	.loc 7 427 0
	stw 10,240(31)
.LBE4005:
.LBE4008:
.LBE4012:
.LBE4034:
.LBB4035:
.LBB4028:
	.loc 7 333 0
	addi 10,31,212
.LBE4028:
.LBE4035:
.LBB4036:
.LBB4037:
	.loc 3 424 0
	stfs 13,32(31)
	.loc 3 425 0
	stfs 12,36(31)
	.loc 3 426 0
	stfs 0,40(31)
.LBE4037:
.LBE4036:
.LBB4038:
.LBB4013:
.LBB4009:
.LBB4006:
	.loc 7 425 0
	stw 6,212(31)
	stw 7,216(31)
	stw 0,220(31)
	.loc 7 426 0
	stw 3,224(31)
	stw 4,228(31)
	stw 5,232(31)
.LBE4006:
.LBE4009:
.LBE4013:
.LBE4038:
.LBB4039:
.LBB4029:
.LBB4023:
.LBB4019:
	.loc 3 425 0
	stw 7,4(9)
	.loc 3 426 0
	stw 0,8(9)
.LBE4019:
.LBE4023:
	.loc 7 333 0
	beq- 7,.L234
.LVL593:
.L267:
	lwzux 6,10,8
	cmpwi 7,8,24
.LBB4024:
.LBB4020:
	.loc 3 424 0
	addi 9,31,320
.LVL594:
	stwux 6,9,8
.LVL595:
.LBE4020:
.LBE4024:
	.loc 7 333 0
	addi 8,8,12
	.loc 2 966 0
	lwz 7,4(10)
	lwz 0,8(10)
	.loc 7 333 0
	addi 10,31,212
.LBB4025:
.LBB4021:
	.loc 3 425 0
	stw 7,4(9)
	.loc 3 426 0
	stw 0,8(9)
.LBE4021:
.LBE4025:
	.loc 7 333 0
	bne+ 7,.L267
.L234:
.LVL596:
.LBE4029:
.LBE4039:
	.loc 2 1034 0
	lwz 9,64(26)
.LBB4040:
.LBB4041:
	.loc 12 234 0
	lwz 10,28(11)
.LBE4041:
.LBE4040:
	.loc 2 1034 0
	cmpwi 7,9,-1
.LBB4043:
.LBB4042:
	.loc 12 234 0
	lwz 0,44(11)
.LVL597:
.LBE4042:
.LBE4043:
.LBB4044:
.LBB4045:
	.loc 3 424 0
	lwz 11,12(11)
.LVL598:
	.loc 3 425 0
	stw 10,24(31)
	.loc 3 424 0
	stw 11,20(31)
	.loc 3 426 0
	stw 0,28(31)
.LBE4045:
.LBE4044:
	.loc 2 1034 0
	beq- 7,.L236
	.loc 2 1035 0
	mulli 9,9,48
	add 9,27,9
.LVL599:
.LBB4046:
.LBB4047:
	.loc 3 431 0
	lfs 9,12(9)
	lfs 10,28(9)
	lfs 11,44(9)
	fsubs 13,9,13
	fsubs 12,10,12
	fsubs 0,11,0
.LVL600:
.LBE4047:
.LBE4046:
.LBB4048:
.LBB4049:
	.loc 3 424 0
	stfs 13,56(31)
	.loc 3 425 0
	stfs 12,60(31)
	.loc 3 426 0
	stfs 0,64(31)
.LVL601:
.L237:
.LBE4049:
.LBE4048:
.LBB4050:
.LBB4051:
.LBB4052:
	.loc 3 402 0
	lfs 26,324(31)
.LBE4052:
.LBE4051:
.LBE4050:
	.loc 2 1041 0
	mulli 9,25,12
.LBB4069:
.LBB4070:
.LBB4071:
	.loc 7 454 0
	lfs 8,336(31)
.LBE4071:
.LBE4070:
.LBE4069:
	.loc 2 1045 0
	addi 4,31,20
.LVL602:
.LBB4078:
.LBB4075:
.LBB4072:
	.loc 7 454 0
	lfs 9,348(31)
	fmuls 7,26,12
.LBE4072:
.LBE4075:
.LBE4078:
.LBB4079:
.LBB4080:
.LBB4081:
	.loc 3 402 0
	lfs 30,360(31)
.LBE4081:
.LBE4080:
.LBE4079:
.LBB4102:
.LBB4076:
.LBB4073:
	.loc 7 454 0
	fmuls 8,12,8
.LBE4073:
.LBE4076:
.LBE4102:
.LBB4103:
.LBB4104:
.LBB4105:
	lfs 10,372(31)
.LBE4105:
.LBE4104:
.LBE4103:
.LBB4114:
.LBB4077:
.LBB4074:
	fmuls 9,12,9
.LBE4074:
.LBE4077:
.LBE4114:
.LBB4115:
.LBB4110:
.LBB4106:
	lfs 11,384(31)
.LBE4106:
.LBE4110:
.LBE4115:
	.loc 2 1042 0
	addi 0,9,96
.LBB4116:
.LBB4111:
.LBB4107:
	.loc 7 454 0
	fmuls 10,12,10
.LBE4107:
.LBE4111:
.LBE4116:
.LBB4117:
.LBB4053:
.LBB4054:
	lfs 4,344(31)
.LBE4054:
.LBE4053:
.LBE4117:
.LBB4118:
.LBB4112:
.LBB4108:
	fmuls 11,12,11
.LBE4108:
.LBE4112:
.LBE4118:
.LBB4119:
.LBB4082:
.LBB4083:
	lfs 5,368(31)
.LBE4083:
.LBE4082:
.LBE4119:
.LBB4120:
.LBB4113:
.LBB4109:
	fmuls 12,30,12
.LBE4109:
.LBE4113:
.LBE4120:
.LBB4121:
.LBB4092:
.LBB4084:
	lfs 6,380(31)
.LBE4084:
.LBE4092:
.LBE4121:
.LBB4122:
.LBB4061:
.LBB4062:
	.loc 3 402 0
	lfs 27,320(31)
.LBE4062:
.LBE4061:
.LBB4063:
.LBB4055:
	.loc 7 454 0
	fmadds 9,4,13,9
	lfs 3,332(31)
.LBE4055:
.LBE4063:
.LBE4122:
.LBB4123:
.LBB4093:
.LBB4085:
	fmadds 10,5,13,10
.LBE4085:
.LBE4093:
.LBB4094:
.LBB4095:
	.loc 3 402 0
	lfs 31,356(31)
.LBE4095:
.LBE4094:
.LBB4096:
.LBB4086:
	.loc 7 454 0
	fmadds 11,6,13,11
.LBE4086:
.LBE4096:
.LBE4123:
.LBB4124:
.LBB4064:
.LBB4056:
	fmadds 8,3,13,8
	.loc 3 402 0
	lfs 28,328(31)
.LBE4056:
.LBE4064:
.LBE4124:
.LBB4125:
.LBB4126:
	.loc 7 454 0
	fmadds 7,27,13,7
.LBE4126:
.LBE4125:
.LBB4131:
.LBB4065:
.LBB4057:
	lfs 4,340(31)
.LBE4057:
.LBE4065:
.LBE4131:
.LBB4132:
.LBB4133:
	fmadds 13,31,13,12
.LBE4133:
.LBE4132:
.LBB4138:
.LBB4066:
.LBB4058:
	lfs 5,352(31)
.LBE4058:
.LBE4066:
.LBE4138:
.LBB4139:
.LBB4097:
.LBB4087:
	.loc 3 402 0
	lfs 29,364(31)
.LBE4087:
.LBE4097:
.LBE4139:
.LBB4140:
.LBB4067:
.LBB4059:
	.loc 7 454 0
	fmadds 8,4,0,8
.LBE4059:
.LBE4067:
.LBE4140:
.LBB4141:
.LBB4098:
.LBB4088:
	lfs 6,376(31)
.LBE4088:
.LBE4098:
.LBE4141:
.LBB4142:
.LBB4068:
.LBB4060:
	fmadds 9,5,0,9
.LBE4060:
.LBE4068:
.LBE4142:
.LBB4143:
.LBB4099:
.LBB4089:
	lfs 12,388(31)
.LBE4089:
.LBE4099:
.LBE4143:
.LBB4144:
.LBB4127:
	fmadds 7,28,0,7
.LBE4127:
.LBE4144:
.LBB4145:
.LBB4100:
.LBB4090:
	fmadds 10,6,0,10
.LBE4090:
.LBE4100:
.LBE4145:
	.loc 2 1041 0
	addi 10,9,64
.LBB4146:
.LBB4101:
.LBB4091:
	.loc 7 454 0
	fmadds 11,12,0,11
.LVL603:
.LBE4091:
.LBE4101:
.LBE4146:
	.loc 2 1041 0
	add 10,30,10
.LBB4147:
.LBB4134:
	.loc 7 454 0
	fmadds 0,29,0,13
.LBE4134:
.LBE4147:
	.loc 2 1042 0
	add 9,30,0
.LVL604:
.LBB4148:
.LBB4128:
	.loc 3 424 0
	stfs 7,8(10)
.LBE4128:
.LBE4148:
	.loc 2 1045 0
	addi 5,31,32
.LVL605:
.LBB4149:
.LBB4129:
	.loc 3 425 0
	stfs 8,12(10)
.LBE4129:
.LBE4149:
	.loc 2 1045 0
	addi 6,31,56
.LVL606:
.LBB4150:
.LBB4130:
	.loc 3 426 0
	stfs 9,16(10)
.LBE4130:
.LBE4150:
	.loc 2 1045 0
	addi 7,31,428
.LBB4151:
.LBB4135:
	.loc 3 424 0
	stfsx 0,30,0
.LBE4135:
.LBE4151:
	.loc 2 1045 0
	mr 3,30
.LVL607:
.LBB4152:
.LBB4136:
	.loc 3 425 0
	stfs 10,4(9)
.LBE4136:
.LBE4152:
	.loc 2 1046 0
	mulli 24,25,36
.LVL608:
.LBB4153:
.LBB4137:
	.loc 3 426 0
	stfs 11,8(9)
.LBE4137:
.LBE4153:
	.loc 2 1045 0
	bl _ZN4idIK11GetBoneAxisERK6idVec3S2_S2_R6idMat3
.LVL609:
.LBB4154:
.LBB4155:
.LBB4156:
	.loc 3 402 0
	lfs 0,428(31)
.LBE4156:
.LBE4155:
.LBB4157:
.LBB4158:
	lwz 4,440(31)
.LBE4158:
.LBE4157:
.LBE4154:
	.loc 2 1046 0
	add 7,30,24
.LBB4177:
.LBB4159:
.LBB4160:
	.loc 3 402 0
	lwz 5,452(31)
.LBE4160:
.LBE4159:
.LBE4177:
	.loc 2 1046 0
	addi 7,7,136
.LVL610:
.LBB4178:
.LBB4161:
.LBB4162:
	.loc 3 402 0
	lwz 6,432(31)
.LVL611:
.LBE4162:
.LBE4161:
.LBB4163:
.LBB4164:
	lwz 8,444(31)
.LVL612:
.LBE4164:
.LBE4163:
.LBB4165:
.LBB4166:
	lwz 10,456(31)
.LVL613:
.LBE4166:
.LBE4165:
.LBB4167:
.LBB4168:
	lwz 0,460(31)
.LBE4168:
.LBE4167:
.LBB4169:
.LBB4170:
	lwz 11,436(31)
.LVL614:
.LBE4170:
.LBE4169:
.LBB4171:
.LBB4172:
	lwz 9,448(31)
.LVL615:
.LBE4172:
.LBE4171:
.LBE4178:
	.loc 2 1045 0
	stfs 1,120(26)
.LBB4179:
.LBB4173:
.LBB4174:
	.loc 7 425 0
	stfs 0,176(31)
	stw 4,180(31)
	stw 5,184(31)
	.loc 7 426 0
	stw 6,188(31)
	stw 8,192(31)
	stw 10,196(31)
	.loc 7 427 0
	stw 0,208(31)
.LVL616:
	stw 11,200(31)
	.loc 2 1046 0
	addi 11,31,320
.LVL617:
	.loc 7 427 0
	stw 9,204(31)
.LBE4174:
.LBE4173:
.LBE4179:
.LBB4180:
.LBB3916:
	.loc 7 465 0
	addi 9,31,140
.LVL618:
.L238:
.LBE3916:
.LBE4180:
.LBB4181:
.LBB4182:
	.loc 7 471 0
	lfs 11,20(28)
	lfs 12,12(28)
	lfs 13,16(28)
	fmuls 12,26,12
	lfs 10,4(28)
	fmuls 13,26,13
	lfs 9,24(28)
	fmuls 26,26,11
	lfs 11,8(28)
	fmadds 12,0,27,12
	fmadds 13,27,10,13
	lfs 10,28(28)
	fmadds 27,27,11,26
	lfs 11,32(28)
	fmadds 12,9,28,12
	fmadds 13,10,28,13
	fmadds 28,11,28,27
	stfs 12,0(9)
.LVL619:
	stfs 13,4(9)
.LVL620:
	stfs 28,8(9)
.LVL621:
	addi 9,9,12
.LVL622:
	.loc 7 467 0
	cmpw 7,9,28
	beq- 7,.L268
.LBE4182:
.LBE4181:
.LBB4183:
.LBB4176:
.LBB4175:
	.loc 2 966 0
	lfs 27,12(11)
	lfs 26,16(11)
	lfs 28,20(11)
	addi 11,11,12
	b .L238
.L268:
.LVL623:
.LBE4175:
.LBE4176:
.LBE4183:
.LBB4184:
.LBB4185:
	.loc 7 333 0
	li 10,0
.LVL624:
.L240:
.LBB4186:
.LBB4187:
	.loc 3 424 0
	addi 11,31,140
.LBE4187:
.LBE4186:
	.loc 7 333 0
	cmpwi 7,10,24
.LBB4190:
.LBB4188:
	.loc 3 424 0
	lwzux 0,11,10
	mr 9,7
	stwux 0,9,10
.LBE4188:
.LBE4190:
	.loc 7 333 0
	addi 10,10,12
.LBB4191:
.LBB4189:
	.loc 3 425 0
	lwz 8,4(11)
	.loc 3 426 0
	lwz 0,8(11)
	.loc 3 425 0
	stw 8,4(9)
	.loc 3 426 0
	stw 0,8(9)
.LBE4189:
.LBE4191:
	.loc 7 333 0
	bne+ 7,.L240
.LBE4185:
.LBE4184:
	.loc 2 1049 0
	addi 5,31,44
	addi 6,31,56
.LVL625:
	addi 7,31,428
.LVL626:
	mr 3,30
	addi 4,31,32
	.loc 2 1050 0
	addi 24,24,208
	.loc 2 1049 0
	bl _ZN4idIK11GetBoneAxisERK6idVec3S2_S2_R6idMat3
.LVL627:
.LBB4193:
.LBB4194:
.LBB4195:
	.loc 3 402 0
	lfs 0,428(31)
.LBE4195:
.LBE4194:
.LBB4196:
.LBB4197:
	lwz 5,440(31)
.LBE4197:
.LBE4196:
.LBE4193:
	.loc 2 1050 0
	add 24,30,24
.LVL628:
.LBB4216:
.LBB4198:
.LBB4199:
	.loc 3 402 0
	lwz 6,452(31)
.LVL629:
.LBE4199:
.LBE4198:
.LBB4200:
.LBB4201:
	lwz 7,432(31)
.LVL630:
.LBE4201:
.LBE4200:
.LBB4202:
.LBB4203:
	lwz 8,444(31)
.LVL631:
.LBE4203:
.LBE4202:
.LBB4204:
.LBB4205:
	lwz 10,456(31)
.LVL632:
.LBE4205:
.LBE4204:
.LBB4206:
.LBB4207:
	lwz 0,460(31)
.LBE4207:
.LBE4206:
.LBB4208:
.LBB4209:
	lwz 11,436(31)
.LVL633:
.LBE4209:
.LBE4208:
.LBB4210:
.LBB4211:
	lwz 9,448(31)
.LVL634:
.LBE4211:
.LBE4210:
.LBE4216:
	.loc 2 1049 0
	stfs 1,128(26)
.LBB4217:
.LBB4212:
.LBB4213:
	.loc 7 425 0
	stfs 0,104(31)
	stw 5,108(31)
	stw 6,112(31)
	.loc 7 426 0
	stw 7,116(31)
	stw 8,120(31)
	stw 10,124(31)
	.loc 7 427 0
	stw 0,136(31)
.LVL635:
	stw 11,128(31)
	.loc 2 1050 0
	addi 11,31,356
.LVL636:
	.loc 7 427 0
	stw 9,132(31)
.LBE4213:
.LBE4212:
.LBE4217:
.LBB4218:
.LBB4192:
	.loc 7 465 0
	addi 9,31,68
.LVL637:
.L241:
.LBE4192:
.LBE4218:
.LBB4219:
.LBB4220:
	.loc 7 471 0
	lfs 11,20(29)
	lfs 12,12(29)
	lfs 13,16(29)
	fmuls 12,30,12
	lfs 10,4(29)
	fmuls 13,30,13
	lfs 9,24(29)
	fmuls 30,30,11
	lfs 11,8(29)
	fmadds 12,0,31,12
	fmadds 13,31,10,13
	lfs 10,28(29)
	fmadds 31,31,11,30
	lfs 11,32(29)
	fmadds 12,9,29,12
	fmadds 13,10,29,13
	fmadds 29,11,29,31
	stfs 12,0(9)
.LVL638:
	stfs 13,4(9)
.LVL639:
	stfs 29,8(9)
.LVL640:
	addi 9,9,12
.LVL641:
	.loc 7 467 0
	cmpw 7,9,29
	beq- 7,.L269
.LBE4220:
.LBE4219:
.LBB4221:
.LBB4215:
.LBB4214:
	.loc 2 966 0
	lfs 31,12(11)
	lfs 30,16(11)
	lfs 29,20(11)
	addi 11,11,12
	b .L241
.LVL642:
.L236:
.LBE4214:
.LBE4215:
.LBE4221:
.LBB4222:
.LBB3917:
	.loc 3 410 0
	lwz 0,.LC16@l(22)
.LVL643:
	.loc 3 412 0
	lis 9,.LC14@ha
	lfs 0,.LC14@l(9)
.LVL644:
	stw 0,476(31)
	.loc 3 410 0
	stw 0,56(31)
	.loc 3 412 0
	fmr 12,0
	.loc 3 411 0
	stw 23,60(31)
	.loc 3 412 0
	stw 23,64(31)
	lfs 13,476(31)
	b .L237
.LVL645:
.L262:
.LBE3917:
.LBE4222:
	.loc 2 1012 0
	mr 3,18
	mr 4,16
	crxor 6,6,6
	bl _ZNK11idGameLocal5ErrorEPKcz
	b .L227
.LVL646:
.L261:
	.loc 2 1006 0
	mr 3,18
	mr 4,15
	crxor 6,6,6
	bl _ZNK11idGameLocal5ErrorEPKcz
	b .L225
.LVL647:
.L260:
	.loc 2 1000 0
	mr 3,18
	mr 4,14
	crxor 6,6,6
	bl _ZNK11idGameLocal5ErrorEPKcz
	b .L223
.LVL648:
.L251:
.LBB4223:
.LBB3895:
	.loc 10 245 0
	la 5,.LC4@l(17)
	b .L224
.LVL649:
.L253:
.LBE3895:
.LBE4223:
.LBB4224:
.LBB3903:
	la 4,.LC4@l(17)
	b .L228
.LVL650:
.L252:
.LBE3903:
.LBE4224:
.LBB4225:
.LBB3899:
	la 5,.LC4@l(17)
	b .L226
.LBE3899:
.LBE4225:
.LBE4228:
	.cfi_endproc
.LFE2856:
	.size	_ZN10idIK_Reach4InitEP8idEntityPKcRK6idVec3, .-_ZN10idIK_Reach4InitEP8idEntityPKcRK6idVec3
	.align 2
	.globl _ZN9idIK_Walk4InitEP8idEntityPKcRK6idVec3
	.type	_ZN9idIK_Walk4InitEP8idEntityPKcRK6idVec3, @function
_ZN9idIK_Walk4InitEP8idEntityPKcRK6idVec3:
.LFB2834:
	.loc 2 431 0
	.cfi_startproc
	.cfi_personality 0,__gxx_personality_v0
	.cfi_lsda 0,.LLSDA2834
.LVL651:
	stwu 1,-3480(1)
.LCFI56:
	.cfi_def_cfa_offset 3480
	mflr 0
	stw 28,3416(1)
.LBB4506:
	.loc 2 445 0
	lis 28,.LANCHOR0@ha
	.cfi_offset 28, -64
	.cfi_register 65, 0
	la 28,.LANCHOR0@l(28)
.LBE4506:
	.loc 2 431 0
	stw 0,3484(1)
	stw 29,3420(1)
.LBB5110:
.LBB4507:
.LBB4508:
	.file 13 "d:/Data/Nintendo/DoomGX/src/game/../idlib/../idlib/geometry/TraceModel.h"
	.loc 13 161 0
	li 0,0
	.cfi_offset 29, -60
	.cfi_offset 65, 4
.LBB4509:
.LBB4510:
	.file 14 "d:/Data/Nintendo/DoomGX/src/game/../idlib/../idlib/bv/Bounds.h"
	.loc 14 208 0
	li 29,0
.LBE4510:
.LBE4509:
.LBE4508:
.LBE4507:
.LBE5110:
	.loc 2 431 0
	stw 30,3424(1)
	stw 31,3428(1)
	mr 30,3
	.cfi_offset 31, -52
	.cfi_offset 30, -56
	mr 31,1
.LCFI57:
	.cfi_def_cfa_register 31
.LVL652:
.LBB5111:
	.loc 2 445 0
	mr 3,28
.LVL653:
.LBE5111:
	.loc 2 431 0
	stw 24,3400(1)
	mr 24,5
	.cfi_offset 24, -80
	stw 25,3404(1)
	mr 25,6
	.cfi_offset 25, -76
	stw 26,3408(1)
	mr 26,4
	.cfi_offset 26, -72
.LBB5112:
.LBB4515:
.LBB4513:
	.loc 13 161 0
	stw 0,512(31)
	.loc 13 162 0
	stw 0,1568(31)
	stw 0,904(31)
	stw 0,516(31)
.LVL654:
.LBE4513:
.LBE4515:
.LBE5112:
	.loc 2 431 0
	stfd 26,3432(1)
	stfd 27,3440(1)
	stfd 28,3448(1)
	stfd 29,3456(1)
	stfd 30,3464(1)
	stfd 31,3472(1)
	stw 14,3360(1)
	stw 15,3364(1)
	stw 16,3368(1)
	stw 17,3372(1)
	stw 18,3376(1)
	stw 19,3380(1)
	stw 20,3384(1)
	stw 21,3388(1)
	stw 22,3392(1)
	stw 23,3396(1)
	stw 27,3412(1)
.LBB5113:
.LBB4516:
.LBB4514:
.LBB4512:
.LBB4511:
	.loc 14 208 0
	stw 29,3332(31)
	stw 29,3328(31)
	stw 29,3324(31)
	stw 29,3320(31)
	stw 29,3316(31)
	stw 29,3312(31)
.LBE4511:
.LBE4512:
.LBE4514:
.LBE4516:
	.loc 2 445 0
	.cfi_offset 27, -68
	.cfi_offset 23, -84
	.cfi_offset 22, -88
	.cfi_offset 21, -92
	.cfi_offset 20, -96
	.cfi_offset 19, -100
	.cfi_offset 18, -104
	.cfi_offset 17, -108
	.cfi_offset 16, -112
	.cfi_offset 15, -116
	.cfi_offset 14, -120
	.cfi_offset 63, -8
	.cfi_offset 62, -16
	.cfi_offset 61, -24
	.cfi_offset 60, -32
	.cfi_offset 59, -40
	.cfi_offset 58, -48
	bl __cxa_guard_acquire
.LVL655:
	cmpwi 7,3,0
	bne- 7,.L348
	.loc 2 447 0
	cmpwi 7,26,0
	beq- 7,.L320
.L352:
	.loc 2 451 0
	addi 29,26,100
.LVL656:
.LBB4517:
.LBB4518:
.LBB4519:
.LBB4520:
	.loc 10 241 0
	lis 4,.LC29@ha
	mr 3,29
	la 4,.LC29@l(4)
.LEHB13:
	bl _ZNK6idDict7FindKeyEPKc
.LVL657:
	.loc 10 242 0
	cmpwi 0,3,0
	beq- 0,.L321
.LVL658:
.LBB4521:
	.loc 2 1139 0
	lwz 9,4(3)
	lwz 3,4(9)
.LVL659:
.L273:
.LBE4521:
.LBE4520:
.LBE4519:
	.loc 10 253 0
	bl atoi
.LVL660:
.LBE4518:
.LBE4517:
.LBB4525:
.LBB4526:
	.loc 11 159 0
	cmpwi 7,3,7
	bgt- 7,.L274
.LBE4526:
.LBE4525:
	.loc 2 452 0
	cmpwi 7,3,0
	.loc 2 451 0
	stw 3,36(30)
	.loc 2 453 0
	li 27,1
	.loc 2 452 0
	bne- 7,.L319
.LVL661:
.L272:
.LBE5113:
	.loc 2 564 0
	addi 11,31,3480
	mr 3,27
	lwz 0,4(11)
	lwz 14,-120(11)
	mtlr 0
	lwz 15,-116(11)
	lwz 16,-112(11)
	lwz 17,-108(11)
	lwz 18,-104(11)
	lwz 19,-100(11)
	lwz 20,-96(11)
	lwz 21,-92(11)
	lwz 22,-88(11)
	lwz 23,-84(11)
	lwz 24,-80(11)
	lwz 25,-76(11)
	lwz 26,-72(11)
	lwz 27,-68(11)
	lwz 28,-64(11)
	lwz 29,-60(11)
	lwz 30,-56(11)
.LVL662:
	lwz 31,-52(11)
	.cfi_remember_state
.LCFI58:
	.cfi_def_cfa 11, 0
	lfd 26,-48(11)
	lfd 27,-40(11)
	lfd 28,-32(11)
	lfd 29,-24(11)
	lfd 30,-16(11)
	lfd 31,-8(11)
	mr 1,11
.LCFI59:
	.cfi_def_cfa_register 1
	.cfi_restore 63
	.cfi_restore 62
	.cfi_restore 61
	.cfi_restore 60
	.cfi_restore 59
	.cfi_restore 58
	.cfi_restore 31
	.cfi_restore 30
	.cfi_restore 29
	.cfi_restore 28
	.cfi_restore 27
	.cfi_restore 26
	.cfi_restore 25
	.cfi_restore 24
	.cfi_restore 23
	.cfi_restore 22
	.cfi_restore 21
	.cfi_restore 20
	.cfi_restore 19
	.cfi_restore 18
	.cfi_restore 17
	.cfi_restore 16
	.cfi_restore 15
	.cfi_restore 14
	blr
.LVL663:
.L274:
.LCFI60:
	.cfi_restore_state
.LBB5114:
	.loc 2 451 0
	li 0,8
	stw 0,36(30)
.L319:
	.loc 2 456 0
	mr 3,30
.LVL664:
	mr 4,26
	mr 5,24
	mr 6,25
	bl _ZN4idIK4InitEP8idEntityPKcRK6idVec3
	.loc 2 457 0
	li 27,0
	.loc 2 456 0
	cmpwi 7,3,0
	beq+ 7,.L272
	.loc 2 460 0
	lwz 3,12(30)
	bl _ZNK10idAnimator9NumJointsEv
	.loc 2 461 0
	lwz 9,0(1)
	mulli 0,3,48
	.loc 2 460 0
	mr 24,3
.LVL665:
	.loc 2 461 0
	subfic 0,0,-32
	stwux 9,1,0
	.loc 2 464 0
	lis 9,gameEdit@ha
	lwz 23,gameEdit@l(9)
	lwz 3,12(30)
.LVL666:
	.loc 2 461 0
	addi 28,1,23
	.loc 2 464 0
	lwz 9,0(23)
	.loc 2 461 0
	rlwinm 28,28,0,0,27
.LVL667:
	.loc 2 464 0
	lwz 26,60(9)
.LVL668:
	bl _ZNK10idAnimator11ModelHandleEv
	mr 21,3
	lwz 4,16(30)
	lwz 3,12(30)
	bl _ZNK10idAnimator7GetAnimEi
	li 4,0
	bl _ZNK6idAnim7MD5AnimEi
	mr 22,3
	lwz 3,12(30)
	bl _ZNK10idAnimator8ModelDefEv
	bl _ZNK14idDeclModelDef15GetVisualOffsetEv
.LVL669:
.LBB4527:
.LBB4528:
	.loc 3 452 0
	lfs 12,4(25)
	lfs 11,0(3)
	lfs 9,4(3)
	lfs 10,8(3)
	lfs 0,8(25)
	fadds 12,9,12
	lfs 13,0(25)
	fadds 0,10,0
.LVL670:
.LBE4528:
.LBE4527:
	.loc 2 464 0
	lwz 3,12(30)
.LVL671:
.LBB4532:
.LBB4531:
	.loc 3 452 0
	fadds 13,11,13
.LBB4529:
.LBB4530:
	.loc 3 397 0
	stfs 12,12(31)
	.loc 3 398 0
	stfs 0,16(31)
	.loc 3 396 0
	stfs 13,8(31)
.LBE4530:
.LBE4529:
.LBE4531:
.LBE4532:
	.loc 2 464 0
	bl _ZNK10idAnimator12RemoveOriginEv
.LVL672:
	mr 10,3
	mr 4,21
	mr 3,23
	mr 5,22
	mr 6,24
	mr 7,28
	li 8,1
	addi 9,31,8
	mtctr 26
	bctrl
	.loc 2 469 0
	lwz 0,36(30)
	.loc 2 466 0
	stw 27,40(30)
.LVL673:
	.loc 2 469 0
	cmpwi 7,0,0
	ble- 7,.L275
	lis 19,.LC30@ha
	lis 20,.LC32@ha
	lis 21,.LC34@ha
	lis 22,.LC36@ha
	lis 23,.LC38@ha
	.loc 2 474 0
	lis 18,gameLocal@ha
	.loc 2 480 0
	lis 14,.LC33@ha
	.loc 2 486 0
	lis 15,.LC35@ha
	.loc 2 492 0
	lis 16,.LC37@ha
	.loc 2 431 0
	addi 26,30,168
	.loc 2 469 0
	li 25,0
.LVL674:
	la 19,.LC30@l(19)
	la 20,.LC32@l(20)
	la 21,.LC34@l(21)
	la 22,.LC36@l(22)
	la 23,.LC38@l(23)
.LBB4533:
.LBB4534:
	.loc 10 245 0
	lis 17,.LC4@ha
.LBE4534:
.LBE4533:
	.loc 2 474 0
	la 18,gameLocal@l(18)
	.loc 2 480 0
	la 14,.LC33@l(14)
	.loc 2 486 0
	la 15,.LC35@l(15)
	.loc 2 492 0
	la 16,.LC37@l(16)
	.loc 2 498 0
	li 24,1
.LVL675:
	b .L285
.LVL676:
.L277:
	.loc 2 477 0
	mr 4,27
	mr 3,20
	crxor 6,6,6
	bl _Z2vaPKcz
	mr 4,3
.LVL677:
.LBB4538:
.LBB4539:
	.loc 10 241 0
	mr 3,29
.LVL678:
	bl _ZNK6idDict7FindKeyEPKc
.LVL679:
	.loc 10 242 0
	cmpwi 0,3,0
	beq- 0,.L325
.LVL680:
.LBB4540:
	.loc 2 1139 0
	lwz 9,4(3)
	lwz 5,4(9)
.LVL681:
.L278:
.LBE4540:
.LBE4539:
.LBE4538:
	.loc 2 478 0
	lwz 3,12(30)
.LVL682:
	mr 4,5
	stw 5,3352(31)
	bl _ZNK10idAnimator14GetJointHandleEPKc
	.loc 2 479 0
	cmpwi 7,3,-1
	.loc 2 478 0
	stw 3,-92(26)
	.loc 2 479 0
	lwz 5,3352(31)
	beq- 7,.L349
.L279:
	.loc 2 483 0
	mr 4,27
	mr 3,21
	crxor 6,6,6
	bl _Z2vaPKcz
	mr 4,3
.LVL683:
.LBB4542:
.LBB4543:
	.loc 10 241 0
	mr 3,29
.LVL684:
	bl _ZNK6idDict7FindKeyEPKc
.LVL685:
	.loc 10 242 0
	cmpwi 0,3,0
	beq- 0,.L326
.LVL686:
.LBB4544:
	.loc 2 1139 0
	lwz 9,4(3)
	lwz 5,4(9)
.LVL687:
.L280:
.LBE4544:
.LBE4543:
.LBE4542:
	.loc 2 484 0
	lwz 3,12(30)
.LVL688:
	mr 4,5
	stw 5,3352(31)
	bl _ZNK10idAnimator14GetJointHandleEPKc
	.loc 2 485 0
	cmpwi 7,3,-1
	.loc 2 484 0
	stw 3,-60(26)
	.loc 2 485 0
	lwz 5,3352(31)
	beq- 7,.L350
.L281:
	.loc 2 489 0
	mr 4,27
	mr 3,22
	crxor 6,6,6
	bl _Z2vaPKcz
	mr 4,3
.LVL689:
.LBB4546:
.LBB4547:
	.loc 10 241 0
	mr 3,29
.LVL690:
	bl _ZNK6idDict7FindKeyEPKc
.LVL691:
	.loc 10 242 0
	cmpwi 0,3,0
	beq- 0,.L327
.LVL692:
.LBB4548:
	.loc 2 1139 0
	lwz 9,4(3)
	lwz 5,4(9)
.LVL693:
.L282:
.LBE4548:
.LBE4547:
.LBE4546:
	.loc 2 490 0
	lwz 3,12(30)
.LVL694:
	mr 4,5
	stw 5,3352(31)
	bl _ZNK10idAnimator14GetJointHandleEPKc
	.loc 2 491 0
	cmpwi 7,3,-1
	.loc 2 490 0
	stw 3,-28(26)
	.loc 2 491 0
	lwz 5,3352(31)
	beq- 7,.L351
.L283:
	.loc 2 495 0
	mr 4,27
	mr 3,23
	crxor 6,6,6
	bl _Z2vaPKcz
	mr 4,3
.LVL695:
.LBB4550:
.LBB4551:
	.loc 10 241 0
	mr 3,29
.LVL696:
	bl _ZNK6idDict7FindKeyEPKc
.LVL697:
	.loc 10 242 0
	cmpwi 0,3,0
	beq- 0,.L328
.LVL698:
.LBB4552:
	.loc 2 1139 0
	lwz 9,4(3)
	lwz 4,4(9)
.LVL699:
.L284:
.LBE4552:
.LBE4551:
.LBE4550:
	.loc 2 496 0
	lwz 3,12(30)
.LVL700:
	.loc 2 498 0
	slw 25,24,25
	.loc 2 496 0
	bl _ZNK10idAnimator14GetJointHandleEPKc
	stwu 3,4(26)
	.loc 2 469 0
	lwz 9,36(30)
	.loc 2 498 0
	lwz 0,40(30)
	.loc 2 469 0
	cmpw 7,9,27
	.loc 2 498 0
	or 25,0,25
	stw 25,40(30)
.LVL701:
	.loc 2 469 0
	ble- 7,.L275
	mr 25,27
.LVL702:
.L285:
	.loc 2 471 0
	addi 27,25,1
	mr 3,19
	mr 4,27
	crxor 6,6,6
	bl _Z2vaPKcz
	mr 4,3
.LVL703:
.LBB4554:
.LBB4536:
	.loc 10 241 0
	mr 3,29
.LVL704:
	bl _ZNK6idDict7FindKeyEPKc
.LVL705:
	.loc 10 242 0
	cmpwi 0,3,0
	beq- 0,.L324
.LVL706:
.LBB4535:
	.loc 2 1139 0
	lwz 9,4(3)
	lwz 5,4(9)
.LVL707:
.L276:
.LBE4535:
.LBE4536:
.LBE4554:
	.loc 2 472 0
	lwz 3,12(30)
.LVL708:
	mr 4,5
	stw 5,3352(31)
	bl _ZNK10idAnimator14GetJointHandleEPKc
	.loc 2 473 0
	cmpwi 7,3,-1
	.loc 2 472 0
	stw 3,-124(26)
	.loc 2 473 0
	lwz 5,3352(31)
	bne+ 7,.L277
	.loc 2 474 0
	lis 9,.LC52@ha
	mr 3,18
	lwz 4,.LC52@l(9)
	crxor 6,6,6
	bl _ZNK11idGameLocal5ErrorEPKcz
	b .L277
.LVL709:
.L348:
.LBB4555:
.LBB4556:
	.loc 3 396 0 discriminator 1
	lis 11,.LC16@ha
.LBE4556:
.LBE4555:
.LBB4559:
.LBB4560:
	lis 9,.LC25@ha
	lwz 9,.LC25@l(9)
.LBE4560:
.LBE4559:
	.loc 2 445 0 discriminator 1
	mr 3,28
.LBB4562:
.LBB4557:
	.loc 3 396 0 discriminator 1
	lwz 0,.LC16@l(11)
.LBE4557:
.LBE4562:
.LBB4563:
.LBB4561:
	stw 9,8(28)
	.loc 3 397 0 discriminator 1
	stw 9,12(28)
	.loc 3 398 0 discriminator 1
	stw 29,16(28)
.LVL710:
.LBE4561:
.LBE4563:
.LBB4564:
.LBB4558:
	.loc 3 396 0 discriminator 1
	stw 0,20(28)
	.loc 3 397 0 discriminator 1
	stw 9,24(28)
	.loc 3 398 0 discriminator 1
	stw 29,28(28)
.LVL711:
.LBE4558:
.LBE4564:
.LBB4565:
.LBB4566:
	.loc 3 396 0 discriminator 1
	stw 0,32(28)
	.loc 3 397 0 discriminator 1
	stw 0,36(28)
	.loc 3 398 0 discriminator 1
	stw 29,40(28)
.LVL712:
.LBE4566:
.LBE4565:
.LBB4567:
.LBB4568:
	.loc 3 396 0 discriminator 1
	stw 9,44(28)
	.loc 3 397 0 discriminator 1
	stw 0,48(28)
	.loc 3 398 0 discriminator 1
	stw 29,52(28)
.LBE4568:
.LBE4567:
	.loc 2 445 0 discriminator 1
	bl __cxa_guard_release
	.loc 2 447 0 discriminator 1
	cmpwi 7,26,0
	bne+ 7,.L352
.LVL713:
.L320:
	.loc 2 448 0
	li 27,0
	b .L272
.LVL714:
.L351:
	.loc 2 492 0
	mr 3,18
	mr 4,16
	crxor 6,6,6
	bl _ZNK11idGameLocal5ErrorEPKcz
	b .L283
.LVL715:
.L350:
	.loc 2 486 0
	mr 3,18
	mr 4,15
	crxor 6,6,6
	bl _ZNK11idGameLocal5ErrorEPKcz
	b .L281
.LVL716:
.L349:
	.loc 2 480 0
	mr 3,18
	mr 4,14
	crxor 6,6,6
	bl _ZNK11idGameLocal5ErrorEPKcz
	b .L279
.LVL717:
.L275:
.LBB4569:
.LBB4570:
	.loc 10 241 0
	lis 4,.LC39@ha
	mr 3,29
	la 4,.LC39@l(4)
	bl _ZNK6idDict7FindKeyEPKc
.LVL718:
	.loc 10 242 0
	cmpwi 0,3,0
	beq- 0,.L330
.LVL719:
.LBB4571:
	.loc 2 1139 0
	lwz 9,4(3)
	lwz 27,4(9)
.LVL720:
.L286:
.LBE4571:
.LBE4570:
.LBE4569:
	.loc 2 502 0
	lwz 3,12(30)
.LVL721:
	mr 4,27
	bl _ZNK10idAnimator14GetJointHandleEPKc
	.loc 2 503 0
	cmpwi 7,3,-1
	.loc 2 502 0
	stw 3,204(30)
	.loc 2 503 0
	beq- 7,.L353
.L287:
.LVL722:
	.loc 2 508 0 discriminator 1
	lwz 0,36(30)
	cmpwi 7,0,0
	ble- 7,.L288
	.loc 2 508 0 is_stmt 0
	mr 25,30
	li 24,0
	addi 26,31,176
	addi 27,31,104
	.loc 2 509 0 is_stmt 1
	li 22,0
.LBB4573:
.LBB4574:
	.loc 3 410 0
	lis 21,.LC25@ha
.LVL723:
.L303:
.LBE4574:
.LBE4573:
	.loc 2 511 0
	lwz 0,76(25)
.LBB4577:
.LBB4578:
.LBB4579:
.LBB4580:
	.loc 7 427 0
	li 10,0
.LBE4580:
.LBE4579:
.LBE4578:
.LBE4577:
	.loc 2 509 0
	stw 22,1104(25)
.LBB4587:
.LBB4588:
	.loc 7 333 0
	cmpwi 7,10,24
.LBE4588:
.LBE4587:
	.loc 2 511 0
	mulli 0,0,48
	add 11,28,0
.LVL724:
.LBB4599:
.LBB4585:
	.loc 12 230 0
	lwzx 7,28,0
	lwz 9,40(11)
.LVL725:
	lwz 8,16(11)
.LVL726:
.LBB4583:
.LBB4581:
	.loc 7 427 0
	stw 9,316(31)
.LBE4581:
.LBE4583:
.LBE4585:
.LBE4599:
.LBB4600:
.LBB4597:
.LBB4589:
.LBB4590:
	.loc 3 424 0
	addi 9,31,392
	stwux 7,9,10
.LBE4590:
.LBE4589:
	.loc 7 333 0
	addi 10,10,12
.LBE4597:
.LBE4600:
.LBB4601:
.LBB4586:
	.loc 12 230 0
	lwz 0,32(11)
.LVL727:
	lwz 23,4(11)
.LVL728:
	lwz 3,20(11)
.LVL729:
	lwz 4,36(11)
.LVL730:
	lwz 5,8(11)
.LVL731:
	lwz 6,24(11)
.LVL732:
.LBB4584:
.LBB4582:
	.loc 7 425 0
	stw 7,284(31)
	stw 8,288(31)
	stw 0,292(31)
	.loc 7 426 0
	stw 23,296(31)
	stw 3,300(31)
	stw 4,304(31)
	.loc 7 427 0
	stw 5,308(31)
	stw 6,312(31)
.LBE4582:
.LBE4584:
.LBE4586:
.LBE4601:
.LBB4602:
.LBB4598:
.LBB4594:
.LBB4591:
	.loc 3 425 0
	stw 8,4(9)
	.loc 3 426 0
	stw 0,8(9)
.LBE4591:
.LBE4594:
	.loc 7 333 0
	beq- 7,.L289
.LVL733:
.L354:
	addi 9,31,284
	cmpwi 7,10,24
	lwzux 7,9,10
	.loc 2 431 0
	lwz 8,4(9)
	lwz 0,8(9)
.LBB4595:
.LBB4592:
	.loc 3 424 0
	addi 9,31,392
.LVL734:
	stwux 7,9,10
.LVL735:
.LBE4592:
.LBE4595:
	.loc 7 333 0
	addi 10,10,12
.LBB4596:
.LBB4593:
	.loc 3 425 0
	stw 8,4(9)
	.loc 3 426 0
	stw 0,8(9)
.LBE4593:
.LBE4596:
	.loc 7 333 0
	bne+ 7,.L354
.L289:
.LVL736:
.LBE4598:
.LBE4602:
	.loc 2 514 0
	lwz 0,108(25)
.LBB4603:
.LBB4604:
	.loc 12 234 0
	lwz 20,28(11)
.LBE4604:
.LBE4603:
	.loc 2 514 0
	mulli 0,0,48
.LBB4606:
.LBB4605:
	.loc 12 234 0
	lwz 23,44(11)
.LVL737:
.LBE4605:
.LBE4606:
.LBB4607:
.LBB4608:
	.loc 3 424 0
	lwz 19,12(11)
.LBE4608:
.LBE4607:
	.loc 2 514 0
	add 10,28,0
.LVL738:
.LBB4610:
.LBB4611:
	.loc 12 230 0
	lwzx 7,28,0
	lwz 11,24(10)
.LVL739:
	lwz 9,40(10)
.LVL740:
.LBB4612:
.LBB4613:
	.loc 7 427 0
	stw 11,276(31)
	li 11,0
.LBE4613:
.LBE4612:
.LBE4611:
.LBE4610:
.LBB4622:
.LBB4623:
	.loc 7 333 0
	cmpwi 7,11,24
.LBE4623:
.LBE4622:
.LBB4637:
.LBB4618:
.LBB4616:
.LBB4614:
	.loc 7 427 0
	stw 9,280(31)
.LBE4614:
.LBE4616:
.LBE4618:
.LBE4637:
.LBB4638:
.LBB4634:
.LBB4624:
.LBB4625:
	.loc 3 424 0
	addi 9,31,356
.LBE4625:
.LBE4624:
.LBE4634:
.LBE4638:
.LBB4639:
.LBB4619:
	.loc 12 230 0
	lwz 8,16(10)
.LVL741:
.LBE4619:
.LBE4639:
.LBB4640:
.LBB4635:
.LBB4630:
.LBB4626:
	.loc 3 424 0
	stwux 7,9,11
.LBE4626:
.LBE4630:
	.loc 7 333 0
	addi 11,11,12
.LBE4635:
.LBE4640:
.LBB4641:
.LBB4620:
	.loc 12 230 0
	lwz 0,32(10)
.LVL742:
	lwz 3,4(10)
.LVL743:
	lwz 4,20(10)
.LVL744:
	lwz 5,36(10)
.LVL745:
	lwz 6,8(10)
.LVL746:
.LBE4620:
.LBE4641:
.LBB4642:
.LBB4609:
	.loc 3 424 0
	stw 19,44(31)
	.loc 3 425 0
	stw 20,48(31)
	.loc 3 426 0
	stw 23,52(31)
.LBE4609:
.LBE4642:
.LBB4643:
.LBB4621:
.LBB4617:
.LBB4615:
	.loc 7 425 0
	stw 7,248(31)
	stw 8,252(31)
	stw 0,256(31)
	.loc 7 426 0
	stw 3,260(31)
	stw 4,264(31)
	stw 5,268(31)
	.loc 7 427 0
	stw 6,272(31)
.LBE4615:
.LBE4617:
.LBE4621:
.LBE4643:
.LBB4644:
.LBB4636:
.LBB4631:
.LBB4627:
	.loc 3 425 0
	stw 8,4(9)
	.loc 3 426 0
	stw 0,8(9)
.LBE4627:
.LBE4631:
	.loc 7 333 0
	beq- 7,.L291
.LVL747:
.L355:
	addi 9,31,248
	cmpwi 7,11,24
	lwzux 7,9,11
	.loc 2 431 0
	lwz 8,4(9)
	lwz 0,8(9)
.LBB4632:
.LBB4628:
	.loc 3 424 0
	addi 9,31,356
.LVL748:
	stwux 7,9,11
.LVL749:
.LBE4628:
.LBE4632:
	.loc 7 333 0
	addi 11,11,12
.LBB4633:
.LBB4629:
	.loc 3 425 0
	stw 8,4(9)
	.loc 3 426 0
	stw 0,8(9)
.LBE4629:
.LBE4633:
	.loc 7 333 0
	bne+ 7,.L355
.L291:
.LVL750:
.LBE4636:
.LBE4644:
	.loc 2 517 0
	lwz 0,140(25)
.LBB4645:
.LBB4646:
	.loc 12 234 0
	lfs 13,12(10)
.LBE4646:
.LBE4645:
	.loc 2 517 0
	mulli 0,0,48
.LBB4648:
.LBB4647:
	.loc 12 234 0
	lfs 12,28(10)
	lfs 0,44(10)
.LVL751:
.LBE4647:
.LBE4648:
	.loc 2 517 0
	add 11,28,0
.LVL752:
.LBB4649:
.LBB4650:
	.loc 12 230 0
	lwzx 7,28,0
	lwz 10,24(11)
.LVL753:
	lwz 9,40(11)
.LVL754:
.LBB4651:
.LBB4652:
	.loc 7 427 0
	stw 10,240(31)
	li 10,0
.LBE4652:
.LBE4651:
.LBE4650:
.LBE4649:
.LBB4661:
.LBB4662:
	.loc 7 333 0
	cmpwi 7,10,24
.LBE4662:
.LBE4661:
.LBB4676:
.LBB4657:
.LBB4655:
.LBB4653:
	.loc 7 427 0
	stw 9,244(31)
.LBE4653:
.LBE4655:
.LBE4657:
.LBE4676:
.LBB4677:
.LBB4673:
.LBB4663:
.LBB4664:
	.loc 3 424 0
	addi 9,31,320
.LBE4664:
.LBE4663:
.LBE4673:
.LBE4677:
.LBB4678:
.LBB4658:
	.loc 12 230 0
	lwz 8,16(11)
.LVL755:
.LBE4658:
.LBE4678:
.LBB4679:
.LBB4674:
.LBB4669:
.LBB4665:
	.loc 3 424 0
	stwux 7,9,10
.LBE4665:
.LBE4669:
	.loc 7 333 0
	addi 10,10,12
.LBE4674:
.LBE4679:
.LBB4680:
.LBB4659:
	.loc 12 230 0
	lwz 0,32(11)
.LVL756:
	lwz 3,4(11)
.LVL757:
	lwz 4,20(11)
.LVL758:
	lwz 5,36(11)
.LVL759:
	lwz 6,8(11)
.LVL760:
.LBE4659:
.LBE4680:
.LBB4681:
.LBB4682:
	.loc 3 424 0
	stfs 13,32(31)
	.loc 3 425 0
	stfs 12,36(31)
	.loc 3 426 0
	stfs 0,40(31)
.LBE4682:
.LBE4681:
.LBB4683:
.LBB4660:
.LBB4656:
.LBB4654:
	.loc 7 425 0
	stw 7,212(31)
	stw 8,216(31)
	stw 0,220(31)
	.loc 7 426 0
	stw 3,224(31)
	stw 4,228(31)
	stw 5,232(31)
	.loc 7 427 0
	stw 6,236(31)
.LBE4654:
.LBE4656:
.LBE4660:
.LBE4683:
.LBB4684:
.LBB4675:
.LBB4670:
.LBB4666:
	.loc 3 425 0
	stw 8,4(9)
	.loc 3 426 0
	stw 0,8(9)
.LBE4666:
.LBE4670:
	.loc 7 333 0
	beq- 7,.L293
.LVL761:
.L356:
	addi 9,31,212
	cmpwi 7,10,24
	lwzux 7,9,10
	.loc 2 431 0
	lwz 8,4(9)
	lwz 0,8(9)
.LBB4671:
.LBB4667:
	.loc 3 424 0
	addi 9,31,320
.LVL762:
	stwux 7,9,10
.LVL763:
.LBE4667:
.LBE4671:
	.loc 7 333 0
	addi 10,10,12
.LBB4672:
.LBB4668:
	.loc 3 425 0
	stw 8,4(9)
	.loc 3 426 0
	stw 0,8(9)
.LBE4668:
.LBE4672:
	.loc 7 333 0
	bne+ 7,.L356
.L293:
.LVL764:
.LBE4675:
.LBE4684:
	.loc 2 521 0
	lwz 9,172(25)
.LBB4685:
.LBB4686:
	.loc 12 234 0
	lwz 10,28(11)
.LBE4686:
.LBE4685:
	.loc 2 521 0
	cmpwi 7,9,-1
.LBB4688:
.LBB4687:
	.loc 12 234 0
	lwz 0,44(11)
.LVL765:
.LBE4687:
.LBE4688:
.LBB4689:
.LBB4690:
	.loc 3 424 0
	lwz 11,12(11)
.LVL766:
	.loc 3 425 0
	stw 10,24(31)
	.loc 3 424 0
	stw 11,20(31)
	.loc 3 426 0
	stw 0,28(31)
.LBE4690:
.LBE4689:
	.loc 2 521 0
	beq- 7,.L295
	.loc 2 522 0
	mulli 9,9,48
	add 9,28,9
.LVL767:
.LBB4691:
.LBB4692:
	.loc 3 431 0
	lfs 9,12(9)
	lfs 10,28(9)
	lfs 11,44(9)
	fsubs 13,9,13
	fsubs 12,10,12
	fsubs 0,11,0
.LVL768:
.LBE4692:
.LBE4691:
.LBB4693:
.LBB4694:
	.loc 3 424 0
	stfs 13,56(31)
	.loc 3 425 0
	stfs 12,60(31)
	.loc 3 426 0
	stfs 0,64(31)
.LVL769:
.L296:
.LBE4694:
.LBE4693:
.LBB4695:
.LBB4696:
.LBB4697:
	.loc 3 402 0
	lfs 26,324(31)
.LBE4697:
.LBE4696:
.LBE4695:
	.loc 2 528 0
	mulli 9,24,12
.LBB4714:
.LBB4715:
.LBB4716:
	.loc 7 454 0
	lfs 8,336(31)
.LBE4716:
.LBE4715:
.LBE4714:
	.loc 2 532 0
	addi 4,31,20
.LVL770:
.LBB4723:
.LBB4720:
.LBB4717:
	.loc 7 454 0
	lfs 9,348(31)
	fmuls 7,26,12
.LBE4717:
.LBE4720:
.LBE4723:
.LBB4724:
.LBB4725:
.LBB4726:
	.loc 3 402 0
	lfs 30,360(31)
.LBE4726:
.LBE4725:
.LBE4724:
.LBB4747:
.LBB4721:
.LBB4718:
	.loc 7 454 0
	fmuls 8,12,8
.LBE4718:
.LBE4721:
.LBE4747:
.LBB4748:
.LBB4749:
.LBB4750:
	lfs 10,372(31)
.LBE4750:
.LBE4749:
.LBE4748:
.LBB4759:
.LBB4722:
.LBB4719:
	fmuls 9,12,9
.LBE4719:
.LBE4722:
.LBE4759:
.LBB4760:
.LBB4755:
.LBB4751:
	lfs 11,384(31)
.LBE4751:
.LBE4755:
.LBE4760:
	.loc 2 528 0
	addi 10,9,208
.LBB4761:
.LBB4756:
.LBB4752:
	.loc 7 454 0
	fmuls 10,12,10
.LBE4752:
.LBE4756:
.LBE4761:
.LBB4762:
.LBB4698:
.LBB4699:
	lfs 4,344(31)
.LBE4699:
.LBE4698:
.LBE4762:
.LBB4763:
.LBB4757:
.LBB4753:
	fmuls 11,12,11
.LBE4753:
.LBE4757:
.LBE4763:
.LBB4764:
.LBB4727:
.LBB4728:
	lfs 5,368(31)
.LBE4728:
.LBE4727:
.LBE4764:
.LBB4765:
.LBB4758:
.LBB4754:
	fmuls 12,30,12
.LBE4754:
.LBE4758:
.LBE4765:
.LBB4766:
.LBB4737:
.LBB4729:
	lfs 6,380(31)
.LBE4729:
.LBE4737:
.LBE4766:
.LBB4767:
.LBB4706:
.LBB4707:
	.loc 3 402 0
	lfs 27,320(31)
.LBE4707:
.LBE4706:
.LBB4708:
.LBB4700:
	.loc 7 454 0
	fmadds 9,4,13,9
	lfs 3,332(31)
.LBE4700:
.LBE4708:
.LBE4767:
.LBB4768:
.LBB4738:
.LBB4730:
	fmadds 10,5,13,10
.LBE4730:
.LBE4738:
.LBB4739:
.LBB4740:
	.loc 3 402 0
	lfs 31,356(31)
.LBE4740:
.LBE4739:
.LBB4741:
.LBB4731:
	.loc 7 454 0
	fmadds 11,6,13,11
.LBE4731:
.LBE4741:
.LBE4768:
.LBB4769:
.LBB4709:
.LBB4701:
	fmadds 8,3,13,8
	.loc 3 402 0
	lfs 28,328(31)
.LBE4701:
.LBE4709:
.LBE4769:
.LBB4770:
.LBB4771:
	.loc 7 454 0
	fmadds 7,27,13,7
.LBE4771:
.LBE4770:
.LBB4776:
.LBB4710:
.LBB4702:
	lfs 4,340(31)
.LBE4702:
.LBE4710:
.LBE4776:
.LBB4777:
.LBB4778:
	fmadds 13,31,13,12
.LBE4778:
.LBE4777:
.LBB4783:
.LBB4711:
.LBB4703:
	lfs 5,352(31)
.LBE4703:
.LBE4711:
.LBE4783:
.LBB4784:
.LBB4742:
.LBB4732:
	.loc 3 402 0
	lfs 29,364(31)
.LBE4732:
.LBE4742:
.LBE4784:
.LBB4785:
.LBB4712:
.LBB4704:
	.loc 7 454 0
	fmadds 8,4,0,8
.LBE4704:
.LBE4712:
.LBE4785:
.LBB4786:
.LBB4743:
.LBB4733:
	lfs 6,376(31)
.LBE4733:
.LBE4743:
.LBE4786:
.LBB4787:
.LBB4713:
.LBB4705:
	fmadds 9,5,0,9
.LBE4705:
.LBE4713:
.LBE4787:
.LBB4788:
.LBB4744:
.LBB4734:
	lfs 12,388(31)
.LBE4734:
.LBE4744:
.LBE4788:
.LBB4789:
.LBB4772:
	fmadds 7,28,0,7
.LBE4772:
.LBE4789:
.LBB4790:
.LBB4745:
.LBB4735:
	fmadds 10,6,0,10
.LBE4735:
.LBE4745:
.LBE4790:
	.loc 2 529 0
	addi 0,9,304
.LBB4791:
.LBB4746:
.LBB4736:
	.loc 7 454 0
	fmadds 11,12,0,11
.LBE4736:
.LBE4746:
.LBE4791:
	.loc 2 528 0
	add 11,30,10
.LVL771:
.LBB4792:
.LBB4779:
	.loc 7 454 0
	fmadds 0,29,0,13
.LBE4779:
.LBE4792:
	.loc 2 529 0
	add 9,30,0
.LVL772:
.LBB4793:
.LBB4773:
	.loc 3 424 0
	stfsx 7,30,10
.LBE4773:
.LBE4793:
	.loc 2 532 0
	addi 5,31,32
.LVL773:
.LBB4794:
.LBB4774:
	.loc 3 425 0
	stfs 8,4(11)
.LBE4774:
.LBE4794:
	.loc 2 532 0
	addi 6,31,56
.LVL774:
.LBB4795:
.LBB4775:
	.loc 3 426 0
	stfs 9,8(11)
.LBE4775:
.LBE4795:
	.loc 2 532 0
	addi 7,31,428
.LBB4796:
.LBB4780:
	.loc 3 424 0
	stfsx 0,30,0
.LBE4780:
.LBE4796:
	.loc 2 532 0
	mr 3,30
.LVL775:
.LBB4797:
.LBB4781:
	.loc 3 425 0
	stfs 10,4(9)
.LBE4781:
.LBE4797:
	.loc 2 533 0
	mulli 23,24,36
.LVL776:
.LBB4798:
.LBB4782:
	.loc 3 426 0
	stfs 11,8(9)
.LBE4782:
.LBE4798:
	.loc 2 532 0
	bl _ZN4idIK11GetBoneAxisERK6idVec3S2_S2_R6idMat3
.LVL777:
.LBB4799:
.LBB4800:
.LBB4801:
	.loc 3 402 0
	lfs 0,428(31)
.LBE4801:
.LBE4800:
.LBB4802:
.LBB4803:
	lwz 4,440(31)
.LBE4803:
.LBE4802:
.LBE4799:
	.loc 2 533 0
	addi 7,23,464
.LBB4822:
.LBB4804:
.LBB4805:
	.loc 3 402 0
	lwz 5,452(31)
.LBE4805:
.LBE4804:
.LBE4822:
	.loc 2 533 0
	add 7,30,7
.LVL778:
.LBB4823:
.LBB4806:
.LBB4807:
	.loc 3 402 0
	lwz 6,432(31)
.LVL779:
.LBE4807:
.LBE4806:
.LBB4808:
.LBB4809:
	lwz 8,444(31)
.LVL780:
.LBE4809:
.LBE4808:
.LBB4810:
.LBB4811:
	lwz 10,456(31)
.LVL781:
.LBE4811:
.LBE4810:
.LBB4812:
.LBB4813:
	lwz 0,460(31)
.LBE4813:
.LBE4812:
.LBB4814:
.LBB4815:
	lwz 11,436(31)
.LVL782:
.LBE4815:
.LBE4814:
.LBB4816:
.LBB4817:
	lwz 9,448(31)
.LVL783:
.LBE4817:
.LBE4816:
.LBE4823:
	.loc 2 532 0
	stfs 1,400(25)
.LBB4824:
.LBB4818:
.LBB4819:
	.loc 7 425 0
	stfs 0,176(31)
	stw 4,180(31)
	stw 5,184(31)
	.loc 7 426 0
	stw 6,188(31)
	stw 8,192(31)
	stw 10,196(31)
	.loc 7 427 0
	stw 0,208(31)
.LVL784:
	stw 11,200(31)
	.loc 2 533 0
	addi 11,31,320
.LVL785:
	.loc 7 427 0
	stw 9,204(31)
.LBE4819:
.LBE4818:
.LBE4824:
.LBB4825:
.LBB4575:
	.loc 7 465 0
	addi 9,31,140
.LVL786:
.L297:
.LBE4575:
.LBE4825:
.LBB4826:
.LBB4827:
	.loc 7 471 0
	lfs 11,20(26)
	lfs 12,12(26)
	lfs 13,16(26)
	fmuls 12,26,12
	lfs 10,4(26)
	fmuls 13,26,13
	lfs 9,24(26)
	fmuls 26,26,11
	lfs 11,8(26)
	fmadds 12,0,27,12
	fmadds 13,10,27,13
	lfs 10,28(26)
	fmadds 27,11,27,26
	lfs 11,32(26)
	fmadds 12,28,9,12
	fmadds 13,28,10,13
	fmadds 28,28,11,27
	stfs 12,0(9)
.LVL787:
	stfs 13,4(9)
.LVL788:
	stfs 28,8(9)
.LVL789:
	addi 9,9,12
.LVL790:
	.loc 7 467 0
	cmpw 7,9,26
	beq- 7,.L357
.LBE4827:
.LBE4826:
.LBB4828:
.LBB4821:
.LBB4820:
	.loc 2 431 0
	lfs 27,12(11)
	lfs 26,16(11)
	lfs 28,20(11)
	addi 11,11,12
	b .L297
.L357:
.LVL791:
.LBE4820:
.LBE4821:
.LBE4828:
.LBB4829:
.LBB4830:
	.loc 7 333 0
	li 10,0
.LVL792:
.L299:
.LBB4831:
.LBB4832:
	.loc 3 424 0
	addi 11,31,140
.LBE4832:
.LBE4831:
	.loc 7 333 0
	cmpwi 7,10,24
.LBB4835:
.LBB4833:
	.loc 3 424 0
	lwzux 0,11,10
	mr 9,7
	stwux 0,9,10
.LBE4833:
.LBE4835:
	.loc 7 333 0
	addi 10,10,12
.LBB4836:
.LBB4834:
	.loc 3 425 0
	lwz 8,4(11)
	.loc 3 426 0
	lwz 0,8(11)
	.loc 3 425 0
	stw 8,4(9)
	.loc 3 426 0
	stw 0,8(9)
.LBE4834:
.LBE4836:
	.loc 7 333 0
	bne+ 7,.L299
.LBE4830:
.LBE4829:
	.loc 2 536 0
	addi 5,31,44
	addi 6,31,56
.LVL793:
	addi 7,31,428
.LVL794:
	mr 3,30
	addi 4,31,32
	.loc 2 537 0
	addi 23,23,752
	.loc 2 536 0
	bl _ZN4idIK11GetBoneAxisERK6idVec3S2_S2_R6idMat3
.LVL795:
.LBB4838:
.LBB4839:
.LBB4840:
	.loc 3 402 0
	lfs 0,428(31)
.LBE4840:
.LBE4839:
.LBB4841:
.LBB4842:
	lwz 5,440(31)
.LBE4842:
.LBE4841:
.LBE4838:
	.loc 2 537 0
	add 23,30,23
.LVL796:
.LBB4861:
.LBB4843:
.LBB4844:
	.loc 3 402 0
	lwz 6,452(31)
.LVL797:
.LBE4844:
.LBE4843:
.LBB4845:
.LBB4846:
	lwz 7,432(31)
.LVL798:
.LBE4846:
.LBE4845:
.LBB4847:
.LBB4848:
	lwz 8,444(31)
.LVL799:
.LBE4848:
.LBE4847:
.LBB4849:
.LBB4850:
	lwz 10,456(31)
.LVL800:
.LBE4850:
.LBE4849:
.LBB4851:
.LBB4852:
	lwz 0,460(31)
.LBE4852:
.LBE4851:
.LBB4853:
.LBB4854:
	lwz 11,436(31)
.LVL801:
.LBE4854:
.LBE4853:
.LBB4855:
.LBB4856:
	lwz 9,448(31)
.LVL802:
.LBE4856:
.LBE4855:
.LBE4861:
	.loc 2 536 0
	stfs 1,432(25)
.LBB4862:
.LBB4857:
.LBB4858:
	.loc 7 425 0
	stfs 0,104(31)
	stw 5,108(31)
	stw 6,112(31)
	.loc 7 426 0
	stw 7,116(31)
	stw 8,120(31)
	stw 10,124(31)
	.loc 7 427 0
	stw 0,136(31)
.LVL803:
	stw 11,128(31)
	.loc 2 537 0
	addi 11,31,356
.LVL804:
	.loc 7 427 0
	stw 9,132(31)
.LBE4858:
.LBE4857:
.LBE4862:
.LBB4863:
.LBB4837:
	.loc 7 465 0
	addi 9,31,68
.LVL805:
.L300:
.LBE4837:
.LBE4863:
.LBB4864:
.LBB4865:
	.loc 7 471 0
	lfs 11,20(27)
	lfs 12,12(27)
	lfs 13,16(27)
	fmuls 12,30,12
	lfs 10,4(27)
	fmuls 13,30,13
	lfs 9,24(27)
	fmuls 30,30,11
	lfs 11,8(27)
	fmadds 12,0,31,12
	fmadds 13,31,10,13
	lfs 10,28(27)
	fmadds 31,31,11,30
	lfs 11,32(27)
	fmadds 12,29,9,12
	fmadds 13,29,10,13
	fmadds 29,29,11,31
	stfs 12,0(9)
.LVL806:
	stfs 13,4(9)
.LVL807:
	stfs 29,8(9)
.LVL808:
	addi 9,9,12
.LVL809:
	.loc 7 467 0
	cmpw 7,9,27
	beq- 7,.L358
.LBE4865:
.LBE4864:
.LBB4866:
.LBB4860:
.LBB4859:
	.loc 2 431 0
	lfs 31,12(11)
	lfs 30,16(11)
	lfs 29,20(11)
	addi 11,11,12
	b .L300
.L358:
.LVL810:
.LBE4859:
.LBE4860:
.LBE4866:
.LBB4867:
.LBB4868:
	.loc 7 333 0
	li 10,0
.LVL811:
.L302:
.LBB4869:
.LBB4870:
	.loc 3 424 0
	addi 11,31,68
.LBE4870:
.LBE4869:
	.loc 7 333 0
	cmpwi 7,10,24
.LBB4873:
.LBB4871:
	.loc 3 424 0
	lwzux 0,11,10
	mr 9,23
	stwux 0,9,10
.LBE4871:
.LBE4873:
	.loc 7 333 0
	addi 10,10,12
.LBB4874:
.LBB4872:
	.loc 3 425 0
	lwz 8,4(11)
	.loc 3 426 0
	lwz 0,8(11)
	.loc 3 425 0
	stw 8,4(9)
	.loc 3 426 0
	stw 0,8(9)
.LBE4872:
.LBE4874:
	.loc 7 333 0
	bne+ 7,.L302
.LBE4868:
.LBE4867:
	.loc 2 508 0
	lwz 0,36(30)
	addi 24,24,1
.LVL812:
	addi 25,25,4
	cmpw 7,0,24
	bgt+ 7,.L303
.LVL813:
.L288:
.LBB4875:
.LBB4876:
.LBB4877:
.LBB4878:
	.loc 10 241 0
	lis 4,.LC41@ha
	mr 3,29
	la 4,.LC41@l(4)
	bl _ZNK6idDict7FindKeyEPKc
.LVL814:
	.loc 10 242 0
	cmpwi 0,3,0
	beq- 0,.L331
.LVL815:
.LBB4879:
	.loc 2 1139 0
	lwz 9,4(3)
	lwz 3,4(9)
.LVL816:
.L304:
.LBE4879:
.LBE4878:
.LBE4877:
	.loc 10 249 0
	bl atof
.LBE4876:
.LBE4875:
.LBB4885:
.LBB4886:
.LBB4887:
.LBB4888:
	.loc 10 241 0
	lis 4,.LC42@ha
.LBE4888:
.LBE4887:
.LBE4886:
.LBE4885:
.LBB4901:
.LBB4882:
	.loc 10 249 0
	frsp 1,1
.LBE4882:
.LBE4901:
.LBB4902:
.LBB4896:
.LBB4893:
.LBB4890:
	.loc 10 241 0
	mr 3,29
	la 4,.LC42@l(4)
.LBE4890:
.LBE4893:
.LBE4896:
.LBE4902:
.LBB4903:
.LBB4883:
	.loc 10 249 0
	stfs 1,1040(30)
.LVL817:
.LBE4883:
.LBE4903:
.LBB4904:
.LBB4897:
.LBB4894:
.LBB4891:
	.loc 10 241 0
	bl _ZNK6idDict7FindKeyEPKc
.LVL818:
	.loc 10 242 0
	cmpwi 0,3,0
	beq- 0,.L332
.LVL819:
.LBB4889:
	.loc 2 1139 0
	lwz 9,4(3)
	lwz 3,4(9)
.LVL820:
.L305:
.LBE4889:
.LBE4891:
.LBE4894:
	.loc 10 249 0
	bl atof
.LBE4897:
.LBE4904:
.LBB4905:
.LBB4906:
.LBB4907:
.LBB4908:
	.loc 10 241 0
	lis 4,.LC43@ha
.LBE4908:
.LBE4907:
.LBE4906:
.LBE4905:
.LBB4921:
.LBB4898:
	.loc 10 249 0
	frsp 1,1
.LBE4898:
.LBE4921:
.LBB4922:
.LBB4916:
.LBB4913:
.LBB4910:
	.loc 10 241 0
	mr 3,29
	la 4,.LC43@l(4)
.LBE4910:
.LBE4913:
.LBE4916:
.LBE4922:
.LBB4923:
.LBB4899:
	.loc 10 249 0
	stfs 1,1044(30)
.LVL821:
.LBE4899:
.LBE4923:
.LBB4924:
.LBB4917:
.LBB4914:
.LBB4911:
	.loc 10 241 0
	bl _ZNK6idDict7FindKeyEPKc
.LVL822:
	.loc 10 242 0
	cmpwi 0,3,0
	beq- 0,.L333
.LVL823:
.LBB4909:
	.loc 2 1139 0
	lwz 9,4(3)
	lwz 3,4(9)
.LVL824:
.L306:
.LBE4909:
.LBE4911:
.LBE4914:
	.loc 10 249 0
	bl atof
.LBE4917:
.LBE4924:
.LBB4925:
.LBB4926:
.LBB4927:
.LBB4928:
	.loc 10 241 0
	lis 4,.LC44@ha
.LBE4928:
.LBE4927:
.LBE4926:
.LBE4925:
.LBB4941:
.LBB4918:
	.loc 10 249 0
	frsp 1,1
.LBE4918:
.LBE4941:
.LBB4942:
.LBB4936:
.LBB4933:
.LBB4930:
	.loc 10 241 0
	mr 3,29
	la 4,.LC44@l(4)
.LBE4930:
.LBE4933:
.LBE4936:
.LBE4942:
.LBB4943:
.LBB4919:
	.loc 10 249 0
	stfs 1,1048(30)
.LVL825:
.LBE4919:
.LBE4943:
.LBB4944:
.LBB4937:
.LBB4934:
.LBB4931:
	.loc 10 241 0
	bl _ZNK6idDict7FindKeyEPKc
.LVL826:
	.loc 10 242 0
	cmpwi 0,3,0
	beq- 0,.L334
.LVL827:
.LBB4929:
	.loc 2 1139 0
	lwz 9,4(3)
	lwz 3,4(9)
.LVL828:
.L307:
.LBE4929:
.LBE4931:
.LBE4934:
	.loc 10 249 0
	bl atof
.LBE4937:
.LBE4944:
.LBB4945:
.LBB4946:
.LBB4947:
.LBB4948:
	.loc 10 241 0
	lis 4,.LC45@ha
.LBE4948:
.LBE4947:
.LBE4946:
.LBE4945:
.LBB4961:
.LBB4938:
	.loc 10 249 0
	frsp 1,1
.LBE4938:
.LBE4961:
.LBB4962:
.LBB4956:
.LBB4953:
.LBB4950:
	.loc 10 241 0
	mr 3,29
	la 4,.LC45@l(4)
.LBE4950:
.LBE4953:
.LBE4956:
.LBE4962:
.LBB4963:
.LBB4939:
	.loc 10 249 0
	stfs 1,1052(30)
.LVL829:
.LBE4939:
.LBE4963:
.LBB4964:
.LBB4957:
.LBB4954:
.LBB4951:
	.loc 10 241 0
	bl _ZNK6idDict7FindKeyEPKc
.LVL830:
	.loc 10 242 0
	cmpwi 0,3,0
	beq- 0,.L335
.LVL831:
.LBB4949:
	.loc 2 1139 0
	lwz 9,4(3)
	lwz 3,4(9)
.LVL832:
.L308:
.LBE4949:
.LBE4951:
.LBE4954:
	.loc 10 249 0
	bl atof
.LBE4957:
.LBE4964:
.LBB4965:
.LBB4966:
.LBB4967:
.LBB4968:
	.loc 10 241 0
	lis 4,.LC46@ha
.LBE4968:
.LBE4967:
.LBE4966:
.LBE4965:
.LBB4981:
.LBB4958:
	.loc 10 249 0
	frsp 1,1
.LBE4958:
.LBE4981:
.LBB4982:
.LBB4976:
.LBB4973:
.LBB4970:
	.loc 10 241 0
	mr 3,29
	la 4,.LC46@l(4)
.LBE4970:
.LBE4973:
.LBE4976:
.LBE4982:
.LBB4983:
.LBB4959:
	.loc 10 249 0
	stfs 1,1056(30)
.LVL833:
.LBE4959:
.LBE4983:
.LBB4984:
.LBB4977:
.LBB4974:
.LBB4971:
	.loc 10 241 0
	bl _ZNK6idDict7FindKeyEPKc
.LVL834:
	.loc 10 242 0
	cmpwi 0,3,0
	beq- 0,.L336
.LVL835:
.LBB4969:
	.loc 2 1139 0
	lwz 9,4(3)
	lwz 3,4(9)
.LVL836:
.L309:
.LBE4969:
.LBE4971:
.LBE4974:
	.loc 10 249 0
	bl atof
.LBE4977:
.LBE4984:
.LBB4985:
.LBB4986:
.LBB4987:
.LBB4988:
	.loc 10 241 0
	lis 4,.LC47@ha
.LBE4988:
.LBE4987:
.LBE4986:
.LBE4985:
.LBB5001:
.LBB4978:
	.loc 10 249 0
	frsp 1,1
.LBE4978:
.LBE5001:
.LBB5002:
.LBB4996:
.LBB4993:
.LBB4990:
	.loc 10 241 0
	mr 3,29
	la 4,.LC47@l(4)
.LBE4990:
.LBE4993:
.LBE4996:
.LBE5002:
.LBB5003:
.LBB4979:
	.loc 10 249 0
	stfs 1,1060(30)
.LVL837:
.LBE4979:
.LBE5003:
.LBB5004:
.LBB4997:
.LBB4994:
.LBB4991:
	.loc 10 241 0
	bl _ZNK6idDict7FindKeyEPKc
.LVL838:
	.loc 10 242 0
	cmpwi 0,3,0
	beq- 0,.L337
.LVL839:
.LBB4989:
	.loc 2 1139 0
	lwz 9,4(3)
	lwz 3,4(9)
.LVL840:
.L310:
.LBE4989:
.LBE4991:
.LBE4994:
	.loc 10 249 0
	bl atof
.LBE4997:
.LBE5004:
.LBB5005:
.LBB5006:
.LBB5007:
.LBB5008:
	.loc 10 241 0
	lis 4,.LC48@ha
.LBE5008:
.LBE5007:
.LBE5006:
.LBE5005:
.LBB5021:
.LBB4998:
	.loc 10 249 0
	frsp 1,1
.LBE4998:
.LBE5021:
.LBB5022:
.LBB5016:
.LBB5013:
.LBB5010:
	.loc 10 241 0
	mr 3,29
	la 4,.LC48@l(4)
.LBE5010:
.LBE5013:
.LBE5016:
.LBE5022:
.LBB5023:
.LBB4999:
	.loc 10 249 0
	stfs 1,1064(30)
.LVL841:
.LBE4999:
.LBE5023:
.LBB5024:
.LBB5017:
.LBB5014:
.LBB5011:
	.loc 10 241 0
	bl _ZNK6idDict7FindKeyEPKc
.LVL842:
	.loc 10 242 0
	cmpwi 0,3,0
	beq- 0,.L338
.LVL843:
.LBB5009:
	.loc 2 1139 0
	lwz 9,4(3)
	lwz 3,4(9)
.LVL844:
.L311:
.LBE5009:
.LBE5011:
.LBE5014:
	.loc 10 249 0
	bl atof
.LBE5017:
.LBE5024:
.LBB5025:
.LBB5026:
.LBB5027:
.LBB5028:
	.loc 10 241 0
	lis 4,.LC49@ha
.LBE5028:
.LBE5027:
.LBE5026:
.LBE5025:
.LBB5041:
.LBB5018:
	.loc 10 249 0
	frsp 1,1
.LBE5018:
.LBE5041:
.LBB5042:
.LBB5036:
.LBB5033:
.LBB5030:
	.loc 10 241 0
	mr 3,29
	la 4,.LC49@l(4)
.LBE5030:
.LBE5033:
.LBE5036:
.LBE5042:
.LBB5043:
.LBB5019:
	.loc 10 249 0
	stfs 1,1068(30)
.LVL845:
.LBE5019:
.LBE5043:
.LBB5044:
.LBB5037:
.LBB5034:
.LBB5031:
	.loc 10 241 0
	bl _ZNK6idDict7FindKeyEPKc
.LVL846:
	.loc 10 242 0
	cmpwi 0,3,0
	beq- 0,.L339
.LVL847:
.LBB5029:
	.loc 2 1139 0
	lwz 9,4(3)
	lwz 3,4(9)
.LVL848:
.L312:
.LBE5029:
.LBE5031:
.LBE5034:
	.loc 10 257 0
	bl atoi
.LBE5037:
.LBE5044:
.LBB5045:
.LBB5046:
.LBB5047:
.LBB5048:
	.loc 10 241 0
	lis 4,.LC50@ha
.LBE5048:
.LBE5047:
.LBE5046:
.LBE5045:
.LBB5061:
.LBB5038:
	.loc 10 257 0
	cntlzw 3,3
.LBE5038:
.LBE5061:
.LBB5062:
.LBB5056:
.LBB5053:
.LBB5050:
	.loc 10 241 0
	la 4,.LC50@l(4)
.LBE5050:
.LBE5053:
.LBE5056:
.LBE5062:
.LBB5063:
.LBB5039:
	.loc 10 257 0
	srwi 3,3,5
	xori 3,3,1
.LBE5039:
.LBE5063:
	.loc 2 548 0
	stb 3,1072(30)
.LVL849:
.LBB5064:
.LBB5057:
.LBB5054:
.LBB5051:
	.loc 10 241 0
	mr 3,29
	bl _ZNK6idDict7FindKeyEPKc
.LVL850:
	.loc 10 242 0
	cmpwi 0,3,0
	beq- 0,.L340
.LVL851:
.LBB5049:
	.loc 2 1139 0
	lwz 9,4(3)
	lwz 3,4(9)
.LVL852:
.L313:
.LBE5049:
.LBE5051:
.LBE5054:
	.loc 10 257 0
	bl atoi
.LBE5057:
.LBE5064:
.LBB5065:
.LBB5066:
.LBB5067:
.LBB5068:
	.loc 10 241 0
	lis 4,.LC51@ha
.LBE5068:
.LBE5067:
.LBE5066:
.LBE5065:
.LBB5080:
.LBB5058:
	.loc 10 257 0
	cntlzw 3,3
.LBE5058:
.LBE5080:
.LBB5081:
.LBB5076:
.LBB5073:
.LBB5070:
	.loc 10 241 0
	la 4,.LC51@l(4)
.LBE5070:
.LBE5073:
.LBE5076:
.LBE5081:
.LBB5082:
.LBB5059:
	.loc 10 257 0
	srwi 3,3,5
	xori 3,3,1
.LBE5059:
.LBE5082:
	.loc 2 549 0
	stb 3,1073(30)
.LVL853:
.LBB5083:
.LBB5077:
.LBB5074:
.LBB5071:
	.loc 10 241 0
	mr 3,29
	bl _ZNK6idDict7FindKeyEPKc
.LVL854:
	.loc 10 242 0
	cmpwi 0,3,0
	beq- 0,.L341
.LVL855:
.LBB5069:
	.loc 2 1139 0
	lwz 9,4(3)
	lwz 3,4(9)
.LVL856:
.L314:
.LBE5069:
.LBE5071:
.LBE5074:
	.loc 10 249 0
	bl atof
.LBE5077:
.LBE5083:
	.loc 2 552 0
	lis 9,.LC7@ha
.LBB5084:
.LBB5078:
	.loc 10 249 0
	frsp 1,1
.LBE5078:
.LBE5084:
	.loc 2 552 0
	lfs 0,.LC7@l(9)
	.loc 2 553 0
	lis 9,.LC14@ha
	lfs 13,.LC14@l(9)
	.loc 2 552 0
	fmuls 0,1,0
.LVL857:
	.loc 2 553 0
	fcmpu 7,0,13
	bng- 7,.L315
	li 0,4
	lis 10,.LANCHOR0+8@ha
	mtctr 0
	li 9,0
	addi 4,31,464
	la 10,.LANCHOR0+8@l(10)
.L317:
	.loc 2 555 0 discriminator 2
	mulli 0,9,12
	.loc 2 554 0 discriminator 2
	addi 9,9,1
	.loc 2 555 0 discriminator 2
	add 11,10,0
.LVL858:
.LBB5085:
.LBB5086:
	.loc 3 439 0 discriminator 2
	lfsx 11,10,0
	lfs 12,4(11)
	lfs 13,8(11)
	fmuls 11,0,11
	fmuls 12,0,12
.LBE5086:
.LBE5085:
	.loc 2 555 0 discriminator 2
	add 11,4,0
.LVL859:
.LBB5088:
.LBB5087:
	.loc 3 439 0 discriminator 2
	fmuls 13,0,13
.LVL860:
.LBE5087:
.LBE5088:
.LBB5089:
.LBB5090:
	.loc 3 424 0 discriminator 2
	stfsx 11,4,0
	.loc 3 425 0 discriminator 2
	stfs 12,4(11)
	.loc 3 426 0 discriminator 2
	stfs 13,8(11)
.LBE5090:
.LBE5089:
	.loc 2 554 0 discriminator 2
	bdnz .L317
	.loc 2 557 0
	addi 3,31,512
	li 5,4
	bl _ZN12idTraceModel12SetupPolygonEPK6idVec3i
.LVL861:
	.loc 2 558 0
	li 3,140
	bl _Znwj
.LEHE13:
	addi 4,31,512
	mr 29,3
.LVL862:
.LEHB14:
	bl _ZN11idClipModelC1ERK12idTraceModel
.LEHE14:
	.loc 2 558 0 is_stmt 0 discriminator 1
	stw 29,32(30)
.LVL863:
.L315:
	.loc 2 561 0 is_stmt 1
	li 0,1
	.loc 2 563 0
	li 27,1
	.loc 2 561 0
	stb 0,4(30)
	.loc 2 563 0
	b .L272
.LVL864:
.L295:
.LBB5091:
.LBB4576:
	.loc 3 410 0
	lwz 0,.LC25@l(21)
.LVL865:
	.loc 3 412 0
	lis 9,.LC14@ha
	lfs 0,.LC14@l(9)
.LVL866:
	stw 0,3356(31)
	.loc 3 410 0
	stw 0,56(31)
	.loc 3 412 0
	fmr 12,0
	.loc 3 411 0
	stw 22,60(31)
	.loc 3 412 0
	stw 22,64(31)
	lfs 13,3356(31)
	b .L296
.LVL867:
.L327:
.LBE4576:
.LBE5091:
.LBB5092:
.LBB4549:
	.loc 10 245 0
	la 5,.LC4@l(17)
	b .L282
.LVL868:
.L326:
.LBE4549:
.LBE5092:
.LBB5093:
.LBB4545:
	la 5,.LC4@l(17)
	b .L280
.LVL869:
.L325:
.LBE4545:
.LBE5093:
.LBB5094:
.LBB4541:
	la 5,.LC4@l(17)
	b .L278
.LVL870:
.L324:
.LBE4541:
.LBE5094:
.LBB5095:
.LBB4537:
	la 5,.LC4@l(17)
	b .L276
.LVL871:
.L328:
.LBE4537:
.LBE5095:
.LBB5096:
.LBB4553:
	la 4,.LC4@l(17)
	b .L284
.LVL872:
.L321:
.LBE4553:
.LBE5096:
.LBB5097:
.LBB4524:
.LBB4523:
.LBB4522:
	lis 3,.LC15@ha
.LVL873:
	la 3,.LC15@l(3)
	b .L273
.LVL874:
.L353:
.LBE4522:
.LBE4523:
.LBE4524:
.LBE5097:
	.loc 2 504 0
	lis 3,gameLocal@ha
	lis 4,.LC40@ha
	la 3,gameLocal@l(3)
	la 4,.LC40@l(4)
	mr 5,27
.LEHB15:
	crxor 6,6,6
	bl _ZNK11idGameLocal5ErrorEPKcz
	b .L287
.LVL875:
.L330:
.LBB5098:
.LBB4572:
	.loc 10 245 0
	lis 27,.LC4@ha
	la 27,.LC4@l(27)
	b .L286
.LVL876:
.L341:
.LBE4572:
.LBE5098:
.LBB5099:
.LBB5079:
.LBB5075:
.LBB5072:
	lis 3,.LC28@ha
.LVL877:
	la 3,.LC28@l(3)
	b .L314
.LVL878:
.L340:
.LBE5072:
.LBE5075:
.LBE5079:
.LBE5099:
.LBB5100:
.LBB5060:
.LBB5055:
.LBB5052:
	lis 3,.LC15@ha
.LVL879:
	la 3,.LC15@l(3)
	b .L313
.LVL880:
.L339:
.LBE5052:
.LBE5055:
.LBE5060:
.LBE5100:
.LBB5101:
.LBB5040:
.LBB5035:
.LBB5032:
	lis 3,.LC15@ha
.LVL881:
	la 3,.LC15@l(3)
	b .L312
.LVL882:
.L338:
.LBE5032:
.LBE5035:
.LBE5040:
.LBE5101:
.LBB5102:
.LBB5020:
.LBB5015:
.LBB5012:
	lis 3,.LC27@ha
.LVL883:
	la 3,.LC27@l(3)
	b .L311
.LVL884:
.L337:
.LBE5012:
.LBE5015:
.LBE5020:
.LBE5102:
.LBB5103:
.LBB5000:
.LBB4995:
.LBB4992:
	lis 3,.LC27@ha
.LVL885:
	la 3,.LC27@l(3)
	b .L310
.LVL886:
.L336:
.LBE4992:
.LBE4995:
.LBE5000:
.LBE5103:
.LBB5104:
.LBB4980:
.LBB4975:
.LBB4972:
	lis 3,.LC15@ha
.LVL887:
	la 3,.LC15@l(3)
	b .L309
.LVL888:
.L335:
.LBE4972:
.LBE4975:
.LBE4980:
.LBE5104:
.LBB5105:
.LBB4960:
.LBB4955:
.LBB4952:
	lis 3,.LC15@ha
.LVL889:
	la 3,.LC15@l(3)
	b .L308
.LVL890:
.L334:
.LBE4952:
.LBE4955:
.LBE4960:
.LBE5105:
.LBB5106:
.LBB4940:
.LBB4935:
.LBB4932:
	lis 3,.LC15@ha
.LVL891:
	la 3,.LC15@l(3)
	b .L307
.LVL892:
.L333:
.LBE4932:
.LBE4935:
.LBE4940:
.LBE5106:
.LBB5107:
.LBB4920:
.LBB4915:
.LBB4912:
	lis 3,.LC15@ha
.LVL893:
	la 3,.LC15@l(3)
	b .L306
.LVL894:
.L332:
.LBE4912:
.LBE4915:
.LBE4920:
.LBE5107:
.LBB5108:
.LBB4900:
.LBB4895:
.LBB4892:
	lis 3,.LC26@ha
.LVL895:
	la 3,.LC26@l(3)
	b .L305
.LVL896:
.L331:
.LBE4892:
.LBE4895:
.LBE4900:
.LBE5108:
.LBB5109:
.LBB4884:
.LBB4881:
.LBB4880:
	lis 3,.LC26@ha
.LVL897:
	la 3,.LC26@l(3)
	b .L304
.LVL898:
.L342:
	mr 30,3
.LVL899:
.LBE4880:
.LBE4881:
.LBE4884:
.LBE5109:
	.loc 2 558 0
	mr 3,29
	bl _ZdlPv
	mr 3,30
	bl _Unwind_Resume
.LEHE15:
.LBE5114:
	.cfi_endproc
.LFE2834:
	.section	.gcc_except_table
.LLSDA2834:
	.byte	0xff
	.byte	0xff
	.byte	0x1
	.uleb128 .LLSDACSE2834-.LLSDACSB2834
.LLSDACSB2834:
	.uleb128 .LEHB13-.LFB2834
	.uleb128 .LEHE13-.LEHB13
	.uleb128 0
	.uleb128 0
	.uleb128 .LEHB14-.LFB2834
	.uleb128 .LEHE14-.LEHB14
	.uleb128 .L342-.LFB2834
	.uleb128 0
	.uleb128 .LEHB15-.LFB2834
	.uleb128 .LEHE15-.LEHB15
	.uleb128 0
	.uleb128 0
.LLSDACSE2834:
	.section	".text"
	.size	_ZN9idIK_Walk4InitEP8idEntityPKcRK6idVec3, .-_ZN9idIK_Walk4InitEP8idEntityPKcRK6idVec3
	.align 2
	.globl _ZN9idIK_WalkC2Ev
	.type	_ZN9idIK_WalkC2Ev, @function
_ZN9idIK_WalkC2Ev:
.LFB2826:
	.loc 2 242 0
	.cfi_startproc
	.cfi_personality 0,__gxx_personality_v0
	.cfi_lsda 0,.LLSDA2826
.LVL900:
	mflr 0
	stwu 1,-16(1)
.LCFI61:
	.cfi_def_cfa_offset 16
	.cfi_register 65, 0
	stw 31,12(1)
	mr 31,3
	.cfi_offset 31, -4
	stw 0,20(1)
.LEHB16:
.LBB5115:
	.loc 2 242 0
	.cfi_offset 65, 4
	bl _ZN4idIKC2Ev
.LEHE16:
.LVL901:
	lis 9,_ZTV9idIK_Walk+8@ha
.LBB5116:
	.loc 2 244 0
	lis 3,.LC53@ha
.LBE5116:
	.loc 2 242 0
	la 0,_ZTV9idIK_Walk+8@l(9)
.LBB5151:
	.loc 2 244 0
	la 3,.LC53@l(3)
.LBE5151:
	.loc 2 242 0
	stw 0,0(31)
.LBB5152:
	.loc 2 244 0
	li 4,1148
.LEHB17:
	crxor 6,6,6
	bl _Z15Sys_DebugPrintfPKcz
.LEHE17:
	.loc 2 249 0
	li 9,0
	.loc 2 250 0
	li 0,0
	lis 7,mat3_identity@ha
	.loc 2 249 0
	stb 9,4(31)
	.loc 2 250 0
	stw 0,32(31)
	.loc 2 252 0
	mr 10,31
	.loc 2 251 0
	stw 0,36(31)
	.loc 2 253 0
	li 4,0
	.loc 2 252 0
	stw 0,40(31)
.LVL902:
	la 7,mat3_identity@l(7)
	.loc 2 254 0
	li 5,-1
.LBB5117:
.LBB5118:
	.loc 3 416 0
	li 0,0
.LVL903:
.L362:
.LBE5118:
.LBE5117:
	.loc 2 259 0 discriminator 2
	mulli 9,4,12
	.loc 2 254 0 discriminator 2
	stw 5,44(10)
	.loc 2 263 0 discriminator 2
	mulli 3,4,36
	.loc 2 255 0 discriminator 2
	stw 5,76(10)
	.loc 2 259 0 discriminator 2
	addi 8,9,208
	.loc 2 260 0 discriminator 2
	addi 9,9,304
	.loc 2 259 0 discriminator 2
	add 6,31,8
.LVL904:
	.loc 2 260 0 discriminator 2
	add 11,31,9
.LVL905:
	.loc 2 256 0 discriminator 2
	stw 5,108(10)
	.loc 2 263 0 discriminator 2
	addi 12,3,464
	.loc 2 257 0 discriminator 2
	stw 5,140(10)
	.loc 2 263 0 discriminator 2
	add 12,31,12
	.loc 2 258 0 discriminator 2
	stw 5,172(10)
.LBB5120:
.LBB5119:
	.loc 3 416 0 discriminator 2
	stw 0,8(6)
	stw 0,4(6)
	stwx 0,31,8
.LBE5119:
.LBE5120:
.LBB5121:
.LBB5122:
.LBB5123:
	.loc 7 333 0 discriminator 2
	li 8,0
.LBE5123:
.LBE5122:
.LBE5121:
.LBB5132:
.LBB5133:
	.loc 3 416 0 discriminator 2
	stw 0,8(11)
	stw 0,4(11)
	stwx 0,31,9
.LBE5133:
.LBE5132:
	.loc 2 261 0 discriminator 2
	stw 0,400(10)
	.loc 2 262 0 discriminator 2
	stw 0,432(10)
.LVL906:
.L360:
.LBB5134:
.LBB5131:
.LBB5130:
.LBB5124:
.LBB5125:
	.loc 3 424 0
	mr 11,7
	mr 9,12
	lwzux 6,11,8
.LBE5125:
.LBE5124:
	.loc 7 333 0
	cmpwi 7,8,24
.LBB5128:
.LBB5126:
	.loc 3 424 0
	stwux 6,9,8
.LBE5126:
.LBE5128:
	.loc 7 333 0
	addi 8,8,12
.LBB5129:
.LBB5127:
	.loc 3 425 0
	lwz 6,4(11)
	stw 6,4(9)
	.loc 3 426 0
	lwz 11,8(11)
	stw 11,8(9)
.LBE5127:
.LBE5129:
	.loc 7 333 0
	bne+ 7,.L360
.LVL907:
.LBE5130:
.LBE5131:
.LBE5134:
	.loc 2 264 0 discriminator 2
	addi 3,3,752
.LBB5135:
.LBB5136:
.LBB5137:
	.loc 7 333 0 discriminator 2
	li 8,0
.LBE5137:
.LBE5136:
.LBE5135:
	.loc 2 264 0 discriminator 2
	add 3,31,3
.L361:
.LBB5146:
.LBB5145:
.LBB5144:
.LBB5138:
.LBB5139:
	.loc 3 424 0
	mr 11,7
	mr 9,3
	lwzux 6,11,8
.LBE5139:
.LBE5138:
	.loc 7 333 0
	cmpwi 7,8,24
.LBB5142:
.LBB5140:
	.loc 3 424 0
	stwux 6,9,8
.LBE5140:
.LBE5142:
	.loc 7 333 0
	addi 8,8,12
.LBB5143:
.LBB5141:
	.loc 3 425 0
	lwz 6,4(11)
	stw 6,4(9)
	.loc 3 426 0
	lwz 11,8(11)
	stw 11,8(9)
.LBE5141:
.LBE5143:
	.loc 7 333 0
	bne+ 7,.L361
.LVL908:
.LBE5144:
.LBE5145:
.LBE5146:
	.loc 2 253 0 discriminator 2
	cmpwi 7,4,7
	.loc 2 265 0 discriminator 2
	stw 0,1104(10)
	li 9,0
	.loc 2 253 0 discriminator 2
	addi 10,10,4
	addi 4,4,1
.LVL909:
	bne+ 7,.L362
	.loc 2 269 0
	lis 8,.LC54@ha
	.loc 2 275 0
	lis 11,.LC55@ha
	.loc 2 269 0
	lwz 8,.LC54@l(8)
	.loc 2 277 0
	li 0,0
	.loc 2 275 0
	lwz 10,.LC55@l(11)
	.loc 2 267 0
	li 11,-1
	.loc 2 269 0
	stw 8,1040(31)
	.loc 2 270 0
	lis 8,.LC7@ha
	lwz 8,.LC7@l(8)
	.loc 2 267 0
	stw 11,204(31)
	.loc 2 270 0
	stw 8,1044(31)
	.loc 2 271 0
	stw 9,1048(31)
	.loc 2 272 0
	stw 9,1052(31)
	.loc 2 273 0
	stw 9,1056(31)
	.loc 2 274 0
	stw 9,1060(31)
	.loc 2 275 0
	stw 10,1064(31)
	.loc 2 276 0
	stw 10,1068(31)
	.loc 2 277 0
	stb 0,1072(31)
	.loc 2 278 0
	stb 0,1073(31)
	.loc 2 280 0
	stw 11,1076(31)
	.loc 2 281 0
	stw 9,1080(31)
.LVL910:
.LBB5147:
.LBB5148:
	.loc 3 416 0
	stw 9,1092(31)
	stw 9,1088(31)
	stw 9,1084(31)
.LBE5148:
.LBE5147:
	.loc 2 284 0
	stb 0,1096(31)
	.loc 2 285 0
	stw 9,1100(31)
.LVL911:
.LBB5149:
.LBB5150:
	.loc 3 416 0
	stw 9,1144(31)
	stw 9,1140(31)
	stw 9,1136(31)
.LBE5150:
.LBE5149:
.LBE5152:
.LBE5115:
	.loc 2 287 0
	lwz 0,20(1)
	lwz 31,12(1)
.LVL912:
	mtlr 0
	addi 1,1,16
	.cfi_remember_state
.LCFI62:
	.cfi_def_cfa_offset 0
	.cfi_restore 31
	blr
.LVL913:
.L365:
.LCFI63:
	.cfi_restore_state
.LBB5156:
.LBB5153:
.LBB5154:
.LBB5155:
	.loc 2 65 0
	lis 9,_ZTV4idIK+8@ha
	la 0,_ZTV4idIK+8@l(9)
	stw 0,0(31)
.LEHB18:
	bl _Unwind_Resume
.LEHE18:
.LBE5155:
.LBE5154:
.LBE5153:
.LBE5156:
	.cfi_endproc
.LFE2826:
	.section	.gcc_except_table
.LLSDA2826:
	.byte	0xff
	.byte	0xff
	.byte	0x1
	.uleb128 .LLSDACSE2826-.LLSDACSB2826
.LLSDACSB2826:
	.uleb128 .LEHB16-.LFB2826
	.uleb128 .LEHE16-.LEHB16
	.uleb128 0
	.uleb128 0
	.uleb128 .LEHB17-.LFB2826
	.uleb128 .LEHE17-.LEHB17
	.uleb128 .L365-.LFB2826
	.uleb128 0
	.uleb128 .LEHB18-.LFB2826
	.uleb128 .LEHE18-.LEHB18
	.uleb128 0
	.uleb128 0
.LLSDACSE2826:
	.section	".text"
	.size	_ZN9idIK_WalkC2Ev, .-_ZN9idIK_WalkC2Ev
	.align 2
	.globl _ZNK9idIK_Walk4SaveEP10idSaveGame
	.type	_ZNK9idIK_Walk4SaveEP10idSaveGame, @function
_ZNK9idIK_Walk4SaveEP10idSaveGame:
.LFB2832:
	.loc 2 305 0
	.cfi_startproc
.LVL914:
	stwu 1,-32(1)
.LCFI64:
	.cfi_def_cfa_offset 32
	mflr 0
	stw 30,24(1)
	mr 30,3
	.cfi_offset 30, -8
	.cfi_register 65, 0
	stw 0,36(1)
	stw 29,20(1)
.LBB5157:
	.loc 2 313 0
	mr 29,30
	.cfi_offset 29, -12
	.cfi_offset 65, 4
.LBE5157:
	.loc 2 305 0
	stw 31,28(1)
	.loc 2 305 0
	mr 31,4
	.cfi_offset 31, -4
.LBB5158:
	.loc 2 308 0
	bl _ZNK4idIK4SaveEP10idSaveGame
.LVL915:
	.loc 2 310 0
	lwz 4,32(30)
	mr 3,31
	bl _ZN10idSaveGame14WriteClipModelEPK11idClipModel
	.loc 2 312 0
	lwz 4,36(30)
	mr 3,31
	bl _ZN10idSaveGame8WriteIntEi
	.loc 2 313 0
	lwzu 4,40(29)
.LVL916:
	mr 3,31
	bl _ZN10idSaveGame8WriteIntEi
.LVL917:
.LBE5158:
	.loc 2 305 0
	li 0,8
	stw 0,8(1)
.LVL918:
.L370:
.LBB5159:
	.loc 2 315 0 discriminator 2
	lwzu 4,4(29)
	mr 3,31
	bl _ZN10idSaveGame8WriteIntEi
	.loc 2 314 0 discriminator 2
	lwz 0,8(1)
	addic. 9,0,-1
	stw 9,8(1)
	bne+ 0,.L370
.LBE5159:
	.loc 2 305 0
	li 0,8
.LBB5160:
	addi 29,30,72
.LBE5160:
	stw 0,8(1)
.L371:
.LBB5161:
	.loc 2 317 0 discriminator 2
	lwzu 4,4(29)
	mr 3,31
	bl _ZN10idSaveGame8WriteIntEi
	.loc 2 316 0 discriminator 2
	lwz 0,8(1)
	addic. 9,0,-1
	stw 9,8(1)
	bne+ 0,.L371
.LBE5161:
	.loc 2 305 0
	li 0,8
.LBB5162:
	addi 29,30,104
.LBE5162:
	stw 0,8(1)
.L372:
.LBB5163:
	.loc 2 319 0 discriminator 2
	lwzu 4,4(29)
	mr 3,31
	bl _ZN10idSaveGame8WriteIntEi
	.loc 2 318 0 discriminator 2
	lwz 0,8(1)
	addic. 9,0,-1
	stw 9,8(1)
	bne+ 0,.L372
.LBE5163:
	.loc 2 305 0
	li 0,8
.LBB5164:
	addi 29,30,136
.LBE5164:
	stw 0,8(1)
.L373:
.LBB5165:
	.loc 2 321 0 discriminator 2
	lwzu 4,4(29)
	mr 3,31
	bl _ZN10idSaveGame8WriteIntEi
	.loc 2 320 0 discriminator 2
	lwz 0,8(1)
	addic. 9,0,-1
	stw 9,8(1)
	bne+ 0,.L373
.LBE5165:
	.loc 2 305 0
	li 0,8
.LBB5166:
	addi 29,30,168
.LBE5166:
	stw 0,8(1)
.L374:
.LBB5167:
	.loc 2 323 0 discriminator 2
	lwzu 4,4(29)
	mr 3,31
	bl _ZN10idSaveGame8WriteIntEi
	.loc 2 322 0 discriminator 2
	lwz 0,8(1)
	addic. 9,0,-1
	stw 9,8(1)
	bne+ 0,.L374
	.loc 2 324 0
	lwz 4,204(30)
	mr 3,31
	.loc 2 326 0
	li 29,0
	.loc 2 324 0
	bl _ZN10idSaveGame8WriteIntEi
.LVL919:
.L375:
	.loc 2 327 0 discriminator 2
	mulli 4,29,12
	mr 3,31
	addi 4,4,208
	add 4,30,4
	bl _ZN10idSaveGame9WriteVec3ERK6idVec3
.LVL920:
	.loc 2 326 0 discriminator 2
	cmpwi 7,29,7
	addi 29,29,1
.LVL921:
	bne+ 7,.L375
	.loc 2 326 0 is_stmt 0
	li 29,0
.LVL922:
.L376:
	.loc 2 329 0 is_stmt 1 discriminator 2
	mulli 4,29,12
	mr 3,31
	addi 4,4,304
	add 4,30,4
	bl _ZN10idSaveGame9WriteVec3ERK6idVec3
.LVL923:
	.loc 2 328 0 discriminator 2
	cmpwi 7,29,7
	addi 29,29,1
.LVL924:
	bne+ 7,.L376
	.loc 2 305 0
	li 0,8
	addi 29,30,396
.LVL925:
	stw 0,8(1)
.L377:
	.loc 2 332 0 discriminator 2
	lfsu 1,4(29)
	mr 3,31
	bl _ZN10idSaveGame10WriteFloatEf
	.loc 2 331 0 discriminator 2
	lwz 0,8(1)
	addic. 9,0,-1
	stw 9,8(1)
	bne+ 0,.L377
	.loc 2 305 0
	li 0,8
	addi 29,30,428
	stw 0,8(1)
.L378:
	.loc 2 334 0 discriminator 2
	lfsu 1,4(29)
	mr 3,31
	bl _ZN10idSaveGame10WriteFloatEf
	.loc 2 333 0 discriminator 2
	lwz 0,8(1)
	addic. 9,0,-1
	stw 9,8(1)
	bne+ 0,.L378
	.loc 2 333 0 is_stmt 0
	li 29,0
.L379:
	.loc 2 337 0 is_stmt 1 discriminator 2
	mulli 4,29,36
	mr 3,31
	addi 4,4,464
	add 4,30,4
	bl _ZN10idSaveGame9WriteMat3ERK6idMat3
.LVL926:
	.loc 2 336 0 discriminator 2
	cmpwi 7,29,7
	addi 29,29,1
.LVL927:
	bne+ 7,.L379
	.loc 2 336 0 is_stmt 0
	li 29,0
.LVL928:
.L380:
	.loc 2 339 0 is_stmt 1 discriminator 2
	mulli 4,29,36
	mr 3,31
	addi 4,4,752
	add 4,30,4
	bl _ZN10idSaveGame9WriteMat3ERK6idMat3
.LVL929:
	.loc 2 338 0 discriminator 2
	cmpwi 7,29,7
	addi 29,29,1
.LVL930:
	bne+ 7,.L380
	.loc 2 341 0
	lfs 1,1040(30)
	mr 3,31
	.loc 2 356 0
	mr 29,30
.LVL931:
	.loc 2 341 0
	bl _ZN10idSaveGame10WriteFloatEf
	.loc 2 342 0
	lfs 1,1044(30)
	mr 3,31
	bl _ZN10idSaveGame10WriteFloatEf
	.loc 2 343 0
	lfs 1,1048(30)
	mr 3,31
	bl _ZN10idSaveGame10WriteFloatEf
	.loc 2 344 0
	lfs 1,1052(30)
	mr 3,31
	bl _ZN10idSaveGame10WriteFloatEf
	.loc 2 345 0
	lfs 1,1056(30)
	mr 3,31
	bl _ZN10idSaveGame10WriteFloatEf
	.loc 2 346 0
	lfs 1,1060(30)
	mr 3,31
	bl _ZN10idSaveGame10WriteFloatEf
	.loc 2 347 0
	lfs 1,1064(30)
	mr 3,31
	bl _ZN10idSaveGame10WriteFloatEf
	.loc 2 348 0
	lfs 1,1068(30)
	mr 3,31
	bl _ZN10idSaveGame10WriteFloatEf
	.loc 2 349 0
	lbz 4,1072(30)
	mr 3,31
	bl _ZN10idSaveGame9WriteBoolEb
	.loc 2 350 0
	lbz 4,1073(30)
	mr 3,31
	bl _ZN10idSaveGame9WriteBoolEb
	.loc 2 352 0
	lwz 4,1076(30)
	mr 3,31
	bl _ZN10idSaveGame8WriteIntEi
	.loc 2 353 0
	lfs 1,1080(30)
	mr 3,31
	bl _ZN10idSaveGame10WriteFloatEf
	.loc 2 354 0
	mr 3,31
	addi 4,30,1084
	bl _ZN10idSaveGame9WriteVec3ERK6idVec3
	.loc 2 355 0
	lbz 4,1096(30)
	mr 3,31
	bl _ZN10idSaveGame9WriteBoolEb
	.loc 2 356 0
	lfsu 1,1100(29)
	mr 3,31
	bl _ZN10idSaveGame10WriteFloatEf
.LVL932:
	.loc 2 305 0
	li 0,8
	stw 0,8(1)
.LVL933:
.L381:
	.loc 2 358 0 discriminator 2
	lfsu 1,4(29)
	mr 3,31
	bl _ZN10idSaveGame10WriteFloatEf
	.loc 2 357 0 discriminator 2
	lwz 0,8(1)
	addic. 9,0,-1
	stw 9,8(1)
	bne+ 0,.L381
	.loc 2 360 0
	mr 3,31
	addi 4,30,1136
	bl _ZN10idSaveGame9WriteVec3ERK6idVec3
.LBE5167:
	.loc 2 361 0
	lwz 0,36(1)
	lwz 29,20(1)
	mtlr 0
	lwz 30,24(1)
.LVL934:
	lwz 31,28(1)
.LVL935:
	addi 1,1,32
.LCFI65:
	.cfi_def_cfa_offset 0
	.cfi_restore 31
	.cfi_restore 30
	.cfi_restore 29
	blr
	.cfi_endproc
.LFE2832:
	.size	_ZNK9idIK_Walk4SaveEP10idSaveGame, .-_ZNK9idIK_Walk4SaveEP10idSaveGame
	.align 2
	.globl _ZN9idIK_Walk7RestoreEP13idRestoreGame
	.type	_ZN9idIK_Walk7RestoreEP13idRestoreGame, @function
_ZN9idIK_Walk7RestoreEP13idRestoreGame:
.LFB2833:
	.loc 2 368 0
	.cfi_startproc
.LVL936:
	stwu 1,-24(1)
.LCFI66:
	.cfi_def_cfa_offset 24
	mflr 0
	stw 30,16(1)
	mr 30,4
	.cfi_offset 30, -8
	.cfi_register 65, 0
	stw 31,20(1)
	mr 31,3
	.cfi_offset 31, -4
	stw 0,28(1)
	stw 29,12(1)
.LBB5168:
	.loc 2 371 0
	.cfi_offset 29, -12
	.cfi_offset 65, 4
	bl _ZN4idIK7RestoreEP13idRestoreGame
.LVL937:
	.loc 2 373 0
	mr 3,30
	addi 4,31,32
	bl _ZN13idRestoreGame13ReadClipModelERP11idClipModel
	.loc 2 375 0
	mr 3,30
	addi 4,31,36
	.loc 2 377 0
	li 29,0
	.loc 2 375 0
	bl _ZN13idRestoreGame7ReadIntERi
	.loc 2 376 0
	mr 3,30
	addi 4,31,40
	bl _ZN13idRestoreGame7ReadIntERi
.LVL938:
.L395:
	.loc 2 378 0 discriminator 2
	addi 4,29,8
	mr 3,30
	slwi 4,4,2
	add 4,31,4
	addi 4,4,12
	bl _ZN13idRestoreGame7ReadIntERi
.LVL939:
	.loc 2 377 0 discriminator 2
	cmpwi 7,29,7
	addi 29,29,1
.LVL940:
	bne+ 7,.L395
	.loc 2 377 0 is_stmt 0
	li 29,0
.LVL941:
.L396:
	.loc 2 380 0 is_stmt 1 discriminator 2
	addi 4,29,16
	mr 3,30
	slwi 4,4,2
	add 4,31,4
	addi 4,4,12
	bl _ZN13idRestoreGame7ReadIntERi
.LVL942:
	.loc 2 379 0 discriminator 2
	cmpwi 7,29,7
	addi 29,29,1
.LVL943:
	bne+ 7,.L396
	.loc 2 379 0 is_stmt 0
	li 29,0
.LVL944:
.L397:
	.loc 2 382 0 is_stmt 1 discriminator 2
	addi 4,29,24
	mr 3,30
	slwi 4,4,2
	add 4,31,4
	addi 4,4,12
	bl _ZN13idRestoreGame7ReadIntERi
.LVL945:
	.loc 2 381 0 discriminator 2
	cmpwi 7,29,7
	addi 29,29,1
.LVL946:
	bne+ 7,.L397
	.loc 2 381 0 is_stmt 0
	li 29,0
.LVL947:
.L398:
	.loc 2 384 0 is_stmt 1 discriminator 2
	addi 4,29,32
	mr 3,30
	slwi 4,4,2
	add 4,31,4
	addi 4,4,12
	bl _ZN13idRestoreGame7ReadIntERi
.LVL948:
	.loc 2 383 0 discriminator 2
	cmpwi 7,29,7
	addi 29,29,1
.LVL949:
	bne+ 7,.L398
	.loc 2 383 0 is_stmt 0
	li 29,0
.LVL950:
.L399:
	.loc 2 386 0 is_stmt 1 discriminator 2
	addi 4,29,40
	mr 3,30
	slwi 4,4,2
	add 4,31,4
	addi 4,4,12
	bl _ZN13idRestoreGame7ReadIntERi
.LVL951:
	.loc 2 385 0 discriminator 2
	cmpwi 7,29,7
	addi 29,29,1
.LVL952:
	bne+ 7,.L399
	.loc 2 387 0
	mr 3,30
	addi 4,31,204
	bl _ZN13idRestoreGame7ReadIntERi
.LVL953:
	.loc 2 389 0
	li 29,0
.LVL954:
.L400:
	.loc 2 390 0 discriminator 2
	mulli 4,29,12
	mr 3,30
	addi 4,4,208
	add 4,31,4
	bl _ZN13idRestoreGame8ReadVec3ER6idVec3
.LVL955:
	.loc 2 389 0 discriminator 2
	cmpwi 7,29,7
	addi 29,29,1
.LVL956:
	bne+ 7,.L400
	.loc 2 389 0 is_stmt 0
	li 29,0
.LVL957:
.L401:
	.loc 2 392 0 is_stmt 1 discriminator 2
	mulli 4,29,12
	mr 3,30
	addi 4,4,304
	add 4,31,4
	bl _ZN13idRestoreGame8ReadVec3ER6idVec3
.LVL958:
	.loc 2 391 0 discriminator 2
	cmpwi 7,29,7
	addi 29,29,1
.LVL959:
	bne+ 7,.L401
	.loc 2 391 0 is_stmt 0
	li 29,0
.LVL960:
.L402:
	.loc 2 395 0 is_stmt 1 discriminator 2
	addi 4,29,100
	mr 3,30
	slwi 4,4,2
	add 4,31,4
	bl _ZN13idRestoreGame9ReadFloatERf
.LVL961:
	.loc 2 394 0 discriminator 2
	cmpwi 7,29,7
	addi 29,29,1
.LVL962:
	bne+ 7,.L402
	.loc 2 394 0 is_stmt 0
	li 29,0
.LVL963:
.L403:
	.loc 2 397 0 is_stmt 1 discriminator 2
	addi 4,29,108
	mr 3,30
	slwi 4,4,2
	add 4,31,4
	bl _ZN13idRestoreGame9ReadFloatERf
.LVL964:
	.loc 2 396 0 discriminator 2
	cmpwi 7,29,7
	addi 29,29,1
.LVL965:
	bne+ 7,.L403
	.loc 2 396 0 is_stmt 0
	li 29,0
.LVL966:
.L404:
	.loc 2 400 0 is_stmt 1 discriminator 2
	mulli 4,29,36
	mr 3,30
	addi 4,4,464
	add 4,31,4
	bl _ZN13idRestoreGame8ReadMat3ER6idMat3
.LVL967:
	.loc 2 399 0 discriminator 2
	cmpwi 7,29,7
	addi 29,29,1
.LVL968:
	bne+ 7,.L404
	.loc 2 399 0 is_stmt 0
	li 29,0
.LVL969:
.L405:
	.loc 2 402 0 is_stmt 1 discriminator 2
	mulli 4,29,36
	mr 3,30
	addi 4,4,752
	add 4,31,4
	bl _ZN13idRestoreGame8ReadMat3ER6idMat3
.LVL970:
	.loc 2 401 0 discriminator 2
	cmpwi 7,29,7
	addi 29,29,1
.LVL971:
	bne+ 7,.L405
	.loc 2 404 0
	addi 4,31,1040
	mr 3,30
	bl _ZN13idRestoreGame9ReadFloatERf
	.loc 2 405 0
	mr 3,30
	addi 4,31,1044
	.loc 2 420 0
	li 29,0
.LVL972:
	.loc 2 405 0
	bl _ZN13idRestoreGame9ReadFloatERf
	.loc 2 406 0
	mr 3,30
	addi 4,31,1048
	bl _ZN13idRestoreGame9ReadFloatERf
	.loc 2 407 0
	mr 3,30
	addi 4,31,1052
	bl _ZN13idRestoreGame9ReadFloatERf
	.loc 2 408 0
	mr 3,30
	addi 4,31,1056
	bl _ZN13idRestoreGame9ReadFloatERf
	.loc 2 409 0
	mr 3,30
	addi 4,31,1060
	bl _ZN13idRestoreGame9ReadFloatERf
	.loc 2 410 0
	mr 3,30
	addi 4,31,1064
	bl _ZN13idRestoreGame9ReadFloatERf
	.loc 2 411 0
	mr 3,30
	addi 4,31,1068
	bl _ZN13idRestoreGame9ReadFloatERf
	.loc 2 412 0
	mr 3,30
	addi 4,31,1072
	bl _ZN13idRestoreGame8ReadBoolERb
	.loc 2 413 0
	mr 3,30
	addi 4,31,1073
	bl _ZN13idRestoreGame8ReadBoolERb
	.loc 2 415 0
	mr 3,30
	addi 4,31,1076
	bl _ZN13idRestoreGame7ReadIntERi
	.loc 2 416 0
	mr 3,30
	addi 4,31,1080
	bl _ZN13idRestoreGame9ReadFloatERf
	.loc 2 417 0
	mr 3,30
	addi 4,31,1084
	bl _ZN13idRestoreGame8ReadVec3ER6idVec3
	.loc 2 418 0
	mr 3,30
	addi 4,31,1096
	bl _ZN13idRestoreGame8ReadBoolERb
	.loc 2 419 0
	mr 3,30
	addi 4,31,1100
	bl _ZN13idRestoreGame9ReadFloatERf
.LVL973:
.L406:
	.loc 2 421 0 discriminator 2
	addi 4,29,276
	mr 3,30
	slwi 4,4,2
	add 4,31,4
	bl _ZN13idRestoreGame9ReadFloatERf
.LVL974:
	.loc 2 420 0 discriminator 2
	cmpwi 7,29,7
	addi 29,29,1
.LVL975:
	bne+ 7,.L406
	.loc 2 423 0
	mr 3,30
	addi 4,31,1136
	bl _ZN13idRestoreGame8ReadVec3ER6idVec3
.LBE5168:
	.loc 2 424 0
	lwz 0,28(1)
	lwz 29,12(1)
.LVL976:
	mtlr 0
	lwz 30,16(1)
.LVL977:
	lwz 31,20(1)
.LVL978:
	addi 1,1,24
.LCFI67:
	.cfi_def_cfa_offset 0
	.cfi_restore 31
	.cfi_restore 30
	.cfi_restore 29
	blr
	.cfi_endproc
.LFE2833:
	.size	_ZN9idIK_Walk7RestoreEP13idRestoreGame, .-_ZN9idIK_Walk7RestoreEP13idRestoreGame
	.align 2
	.globl _ZN9idIK_Walk9EnableAllEv
	.type	_ZN9idIK_Walk9EnableAllEv, @function
_ZN9idIK_Walk9EnableAllEv:
.LFB2843:
	.loc 2 810 0
	.cfi_startproc
.LVL979:
	.loc 2 811 0
	lwz 0,36(3)
	li 9,1
	.loc 2 813 0
	.loc 2 811 0
	slw 9,9,0
	addi 0,9,-1
	stw 0,40(3)
	.loc 2 812 0
	li 0,0
	stb 0,1096(3)
	.loc 2 813 0
	blr
	.cfi_endproc
.LFE2843:
	.size	_ZN9idIK_Walk9EnableAllEv, .-_ZN9idIK_Walk9EnableAllEv
	.align 2
	.globl _ZN9idIK_Walk10DisableAllEv
	.type	_ZN9idIK_Walk10DisableAllEv, @function
_ZN9idIK_Walk10DisableAllEv:
.LFB2844:
	.loc 2 820 0
	.cfi_startproc
.LVL980:
	.loc 2 821 0
	li 0,0
	.loc 2 823 0
	.loc 2 821 0
	stw 0,40(3)
	.loc 2 822 0
	stb 0,1096(3)
	.loc 2 823 0
	blr
	.cfi_endproc
.LFE2844:
	.size	_ZN9idIK_Walk10DisableAllEv, .-_ZN9idIK_Walk10DisableAllEv
	.align 2
	.globl _ZN9idIK_Walk9EnableLegEi
	.type	_ZN9idIK_Walk9EnableLegEi, @function
_ZN9idIK_Walk9EnableLegEi:
.LFB2845:
	.loc 2 830 0
	.cfi_startproc
.LVL981:
	.loc 2 831 0
	lwz 0,40(3)
	li 9,1
	slw 9,9,4
	.loc 2 832 0
	.loc 2 831 0
	or 0,0,9
	stw 0,40(3)
	.loc 2 832 0
	blr
	.cfi_endproc
.LFE2845:
	.size	_ZN9idIK_Walk9EnableLegEi, .-_ZN9idIK_Walk9EnableLegEi
	.align 2
	.globl _ZN9idIK_Walk10DisableLegEi
	.type	_ZN9idIK_Walk10DisableLegEi, @function
_ZN9idIK_Walk10DisableLegEi:
.LFB2846:
	.loc 2 839 0
	.cfi_startproc
.LVL982:
	.loc 2 840 0
	lwz 0,40(3)
	li 9,-2
	rlwnm 9,9,4,0xffffffff
	.loc 2 841 0
	.loc 2 840 0
	and 0,0,9
	stw 0,40(3)
	.loc 2 841 0
	blr
	.cfi_endproc
.LFE2846:
	.size	_ZN9idIK_Walk10DisableLegEi, .-_ZN9idIK_Walk10DisableLegEi
	.align 2
	.globl _ZN10idIK_ReachC2Ev
	.type	_ZN10idIK_ReachC2Ev, @function
_ZN10idIK_ReachC2Ev:
.LFB2848:
	.loc 2 857 0
	.cfi_startproc
	.cfi_personality 0,__gxx_personality_v0
	.cfi_lsda 0,.LLSDA2848
.LVL983:
	mflr 0
	stwu 1,-16(1)
.LCFI68:
	.cfi_def_cfa_offset 16
	.cfi_register 65, 0
	stw 31,12(1)
	mr 31,3
	.cfi_offset 31, -4
	stw 0,20(1)
.LEHB19:
.LBB5169:
	.loc 2 857 0
	.cfi_offset 65, 4
	bl _ZN4idIKC2Ev
.LEHE19:
.LVL984:
	lis 9,_ZTV10idIK_Reach+8@ha
.LBB5170:
	.loc 2 859 0
	lis 3,.LC56@ha
.LBE5170:
	.loc 2 857 0
	la 0,_ZTV10idIK_Reach+8@l(9)
.LBB5201:
	.loc 2 859 0
	la 3,.LC56@l(3)
.LBE5201:
	.loc 2 857 0
	stw 0,0(31)
.LBB5202:
	.loc 2 859 0
	li 4,280
.LEHB20:
	crxor 6,6,6
	bl _Z15Sys_DebugPrintfPKcz
.LEHE20:
	.loc 2 864 0
	li 9,0
	.loc 2 865 0
	li 0,0
	lis 7,mat3_identity@ha
	.loc 2 864 0
	stb 9,4(31)
	.loc 2 865 0
	stw 0,32(31)
	.loc 2 866 0
	mr 8,31
	stw 0,36(31)
.LVL985:
	.loc 2 867 0
	li 5,0
	la 7,mat3_identity@l(7)
	.loc 2 868 0
	li 4,-1
.LBB5171:
.LBB5172:
	.loc 3 416 0
	li 0,0
.LVL986:
.L426:
.LBE5172:
.LBE5171:
	.loc 2 872 0 discriminator 2
	mulli 9,5,12
	.loc 2 868 0 discriminator 2
	stw 4,40(8)
	.loc 2 876 0 discriminator 2
	mulli 3,5,36
	.loc 2 869 0 discriminator 2
	stw 4,48(8)
	.loc 2 872 0 discriminator 2
	addi 10,9,64
	.loc 2 873 0 discriminator 2
	addi 9,9,96
	.loc 2 872 0 discriminator 2
	add 10,31,10
	.loc 2 873 0 discriminator 2
	add 11,31,9
.LVL987:
	.loc 2 870 0 discriminator 2
	stw 4,56(8)
	.loc 2 876 0 discriminator 2
	add 12,31,3
	.loc 2 871 0 discriminator 2
	stw 4,64(8)
	.loc 2 876 0 discriminator 2
	addi 12,12,136
.LBB5174:
.LBB5173:
	.loc 3 416 0 discriminator 2
	stw 0,16(10)
	stw 0,12(10)
	stw 0,8(10)
.LBE5173:
.LBE5174:
.LBB5175:
.LBB5176:
.LBB5177:
	.loc 7 333 0 discriminator 2
	li 10,0
.LBE5177:
.LBE5176:
.LBE5175:
.LBB5186:
.LBB5187:
	.loc 3 416 0 discriminator 2
	stw 0,8(11)
	stw 0,4(11)
	stwx 0,31,9
.LBE5187:
.LBE5186:
	.loc 2 874 0 discriminator 2
	stw 0,120(8)
	.loc 2 875 0 discriminator 2
	stw 0,128(8)
.LVL988:
.L424:
.LBB5188:
.LBB5185:
.LBB5184:
.LBB5178:
.LBB5179:
	.loc 3 424 0
	mr 11,7
	mr 9,12
	lwzux 6,11,10
.LBE5179:
.LBE5178:
	.loc 7 333 0
	cmpwi 7,10,24
.LBB5182:
.LBB5180:
	.loc 3 424 0
	stwux 6,9,10
.LBE5180:
.LBE5182:
	.loc 7 333 0
	addi 10,10,12
.LBB5183:
.LBB5181:
	.loc 3 425 0
	lwz 6,4(11)
	stw 6,4(9)
	.loc 3 426 0
	lwz 11,8(11)
	stw 11,8(9)
.LBE5181:
.LBE5183:
	.loc 7 333 0
	bne+ 7,.L424
.LVL989:
.LBE5184:
.LBE5185:
.LBE5188:
	.loc 2 877 0 discriminator 2
	addi 3,3,208
.LBB5189:
.LBB5190:
.LBB5191:
	.loc 7 333 0 discriminator 2
	li 10,0
.LBE5191:
.LBE5190:
.LBE5189:
	.loc 2 877 0 discriminator 2
	add 3,31,3
.L425:
.LBB5200:
.LBB5199:
.LBB5198:
.LBB5192:
.LBB5193:
	.loc 3 424 0
	mr 11,7
	mr 9,3
	lwzux 6,11,10
.LBE5193:
.LBE5192:
	.loc 7 333 0
	cmpwi 7,10,24
.LBB5196:
.LBB5194:
	.loc 3 424 0
	stwux 6,9,10
.LBE5194:
.LBE5196:
	.loc 7 333 0
	addi 10,10,12
.LBB5197:
.LBB5195:
	.loc 3 425 0
	lwz 6,4(11)
	stw 6,4(9)
	.loc 3 426 0
	lwz 11,8(11)
	stw 11,8(9)
.LBE5195:
.LBE5197:
	.loc 7 333 0
	bne+ 7,.L425
.LVL990:
.LBE5198:
.LBE5199:
.LBE5200:
	.loc 2 867 0 discriminator 2
	cmpwi 7,5,1
	addi 8,8,4
	addi 5,5,1
.LVL991:
	bne- 7,.L426
.LVL992:
.LBE5202:
.LBE5169:
	.loc 2 879 0
	lwz 0,20(1)
	lwz 31,12(1)
.LVL993:
	mtlr 0
	addi 1,1,16
	.cfi_remember_state
.LCFI69:
	.cfi_def_cfa_offset 0
	.cfi_restore 31
	blr
.LVL994:
.L429:
.LCFI70:
	.cfi_restore_state
.LBB5206:
.LBB5203:
.LBB5204:
.LBB5205:
	.loc 2 65 0
	lis 9,_ZTV4idIK+8@ha
	la 0,_ZTV4idIK+8@l(9)
	stw 0,0(31)
.LEHB21:
	bl _Unwind_Resume
.LEHE21:
.LBE5205:
.LBE5204:
.LBE5203:
.LBE5206:
	.cfi_endproc
.LFE2848:
	.section	.gcc_except_table
.LLSDA2848:
	.byte	0xff
	.byte	0xff
	.byte	0x1
	.uleb128 .LLSDACSE2848-.LLSDACSB2848
.LLSDACSB2848:
	.uleb128 .LEHB19-.LFB2848
	.uleb128 .LEHE19-.LEHB19
	.uleb128 0
	.uleb128 0
	.uleb128 .LEHB20-.LFB2848
	.uleb128 .LEHE20-.LEHB20
	.uleb128 .L429-.LFB2848
	.uleb128 0
	.uleb128 .LEHB21-.LFB2848
	.uleb128 .LEHE21-.LEHB21
	.uleb128 0
	.uleb128 0
.LLSDACSE2848:
	.section	".text"
	.size	_ZN10idIK_ReachC2Ev, .-_ZN10idIK_ReachC2Ev
	.align 2
	.globl _ZNK10idIK_Reach4SaveEP10idSaveGame
	.type	_ZNK10idIK_Reach4SaveEP10idSaveGame, @function
_ZNK10idIK_Reach4SaveEP10idSaveGame:
.LFB2854:
	.loc 2 894 0
	.cfi_startproc
.LVL995:
	stwu 1,-16(1)
.LCFI71:
	.cfi_def_cfa_offset 16
	mflr 0
	stw 31,12(1)
	mr 31,3
	.cfi_offset 31, -4
	.cfi_register 65, 0
	stw 0,20(1)
	stw 30,8(1)
	.loc 2 894 0
	mr 30,4
	.cfi_offset 30, -8
	.cfi_offset 65, 4
.LBB5207:
	.loc 2 896 0
	bl _ZNK4idIK4SaveEP10idSaveGame
.LVL996:
	.loc 2 898 0
	lwz 4,32(31)
	mr 3,30
	bl _ZN10idSaveGame8WriteIntEi
	.loc 2 899 0
	lwz 4,36(31)
	mr 3,30
	bl _ZN10idSaveGame8WriteIntEi
.LVL997:
	.loc 2 901 0
	lwz 4,40(31)
	mr 3,30
	bl _ZN10idSaveGame8WriteIntEi
.LVL998:
	lwz 4,44(31)
	mr 3,30
	bl _ZN10idSaveGame8WriteIntEi
.LVL999:
	.loc 2 903 0
	lwz 4,48(31)
	mr 3,30
	bl _ZN10idSaveGame8WriteIntEi
.LVL1000:
	lwz 4,52(31)
	mr 3,30
	bl _ZN10idSaveGame8WriteIntEi
.LVL1001:
	.loc 2 905 0
	lwz 4,56(31)
	mr 3,30
	bl _ZN10idSaveGame8WriteIntEi
.LVL1002:
	lwz 4,60(31)
	mr 3,30
	bl _ZN10idSaveGame8WriteIntEi
.LVL1003:
	.loc 2 907 0
	lwz 4,64(31)
	mr 3,30
	bl _ZN10idSaveGame8WriteIntEi
.LVL1004:
	lwz 4,68(31)
	mr 3,30
	bl _ZN10idSaveGame8WriteIntEi
.LVL1005:
	.loc 2 910 0
	mr 3,30
	addi 4,31,72
	bl _ZN10idSaveGame9WriteVec3ERK6idVec3
.LVL1006:
	mr 3,30
	addi 4,31,84
	bl _ZN10idSaveGame9WriteVec3ERK6idVec3
.LVL1007:
	.loc 2 912 0
	mr 3,30
	addi 4,31,96
	bl _ZN10idSaveGame9WriteVec3ERK6idVec3
.LVL1008:
	addi 4,31,108
	mr 3,30
	bl _ZN10idSaveGame9WriteVec3ERK6idVec3
.LVL1009:
	.loc 2 915 0
	lfs 1,120(31)
	mr 3,30
	bl _ZN10idSaveGame10WriteFloatEf
.LVL1010:
	lfs 1,124(31)
	mr 3,30
	bl _ZN10idSaveGame10WriteFloatEf
.LVL1011:
	.loc 2 917 0
	lfs 1,128(31)
	mr 3,30
	bl _ZN10idSaveGame10WriteFloatEf
.LVL1012:
	lfs 1,132(31)
	mr 3,30
	bl _ZN10idSaveGame10WriteFloatEf
.LVL1013:
	.loc 2 920 0
	mr 3,30
	addi 4,31,136
	bl _ZN10idSaveGame9WriteMat3ERK6idMat3
.LVL1014:
	mr 3,30
	addi 4,31,172
	bl _ZN10idSaveGame9WriteMat3ERK6idMat3
.LVL1015:
	.loc 2 922 0
	mr 3,30
	addi 4,31,208
	bl _ZN10idSaveGame9WriteMat3ERK6idMat3
.LVL1016:
	mr 3,30
	addi 4,31,244
	bl _ZN10idSaveGame9WriteMat3ERK6idMat3
.LVL1017:
.LBE5207:
	.loc 2 923 0
	lwz 0,20(1)
	lwz 30,8(1)
.LVL1018:
	mtlr 0
	lwz 31,12(1)
.LVL1019:
	addi 1,1,16
.LCFI72:
	.cfi_def_cfa_offset 0
	.cfi_restore 31
	.cfi_restore 30
	blr
	.cfi_endproc
.LFE2854:
	.size	_ZNK10idIK_Reach4SaveEP10idSaveGame, .-_ZNK10idIK_Reach4SaveEP10idSaveGame
	.align 2
	.globl _ZN10idIK_Reach7RestoreEP13idRestoreGame
	.type	_ZN10idIK_Reach7RestoreEP13idRestoreGame, @function
_ZN10idIK_Reach7RestoreEP13idRestoreGame:
.LFB2855:
	.loc 2 930 0
	.cfi_startproc
.LVL1020:
	stwu 1,-16(1)
.LCFI73:
	.cfi_def_cfa_offset 16
	mflr 0
	stw 30,8(1)
	mr 30,4
	.cfi_offset 30, -8
	.cfi_register 65, 0
	stw 31,12(1)
	mr 31,3
	.cfi_offset 31, -4
	stw 0,20(1)
.LBB5208:
	.loc 2 932 0
	.cfi_offset 65, 4
	bl _ZN4idIK7RestoreEP13idRestoreGame
.LVL1021:
	.loc 2 934 0
	mr 3,30
	addi 4,31,32
	bl _ZN13idRestoreGame7ReadIntERi
	.loc 2 935 0
	mr 3,30
	addi 4,31,36
	bl _ZN13idRestoreGame7ReadIntERi
.LVL1022:
	.loc 2 937 0
	mr 3,30
	addi 4,31,40
	bl _ZN13idRestoreGame7ReadIntERi
.LVL1023:
	mr 3,30
	addi 4,31,44
	bl _ZN13idRestoreGame7ReadIntERi
.LVL1024:
	.loc 2 939 0
	mr 3,30
	addi 4,31,48
	bl _ZN13idRestoreGame7ReadIntERi
.LVL1025:
	mr 3,30
	addi 4,31,52
	bl _ZN13idRestoreGame7ReadIntERi
.LVL1026:
	.loc 2 941 0
	mr 3,30
	addi 4,31,56
	bl _ZN13idRestoreGame7ReadIntERi
.LVL1027:
	mr 3,30
	addi 4,31,60
	bl _ZN13idRestoreGame7ReadIntERi
.LVL1028:
	.loc 2 943 0
	mr 3,30
	addi 4,31,64
	bl _ZN13idRestoreGame7ReadIntERi
.LVL1029:
	mr 3,30
	addi 4,31,68
	bl _ZN13idRestoreGame7ReadIntERi
.LVL1030:
	.loc 2 946 0
	mr 3,30
	addi 4,31,72
	bl _ZN13idRestoreGame8ReadVec3ER6idVec3
.LVL1031:
	mr 3,30
	addi 4,31,84
	bl _ZN13idRestoreGame8ReadVec3ER6idVec3
.LVL1032:
	.loc 2 948 0
	mr 3,30
	addi 4,31,96
	bl _ZN13idRestoreGame8ReadVec3ER6idVec3
.LVL1033:
	mr 3,30
	addi 4,31,108
	bl _ZN13idRestoreGame8ReadVec3ER6idVec3
.LVL1034:
	.loc 2 951 0
	mr 3,30
	addi 4,31,120
	bl _ZN13idRestoreGame9ReadFloatERf
.LVL1035:
	mr 3,30
	addi 4,31,124
	bl _ZN13idRestoreGame9ReadFloatERf
.LVL1036:
	.loc 2 953 0
	mr 3,30
	addi 4,31,128
	bl _ZN13idRestoreGame9ReadFloatERf
.LVL1037:
	mr 3,30
	addi 4,31,132
	bl _ZN13idRestoreGame9ReadFloatERf
.LVL1038:
	.loc 2 956 0
	mr 3,30
	addi 4,31,136
	bl _ZN13idRestoreGame8ReadMat3ER6idMat3
.LVL1039:
	mr 3,30
	addi 4,31,172
	bl _ZN13idRestoreGame8ReadMat3ER6idMat3
.LVL1040:
	.loc 2 958 0
	mr 3,30
	addi 4,31,208
	bl _ZN13idRestoreGame8ReadMat3ER6idMat3
.LVL1041:
	mr 3,30
	addi 4,31,244
	bl _ZN13idRestoreGame8ReadMat3ER6idMat3
.LVL1042:
.LBE5208:
	.loc 2 959 0
	lwz 0,20(1)
	lwz 30,8(1)
.LVL1043:
	mtlr 0
	lwz 31,12(1)
.LVL1044:
	addi 1,1,16
.LCFI74:
	.cfi_def_cfa_offset 0
	.cfi_restore 31
	.cfi_restore 30
	blr
	.cfi_endproc
.LFE2855:
	.size	_ZN10idIK_Reach7RestoreEP13idRestoreGame, .-_ZN10idIK_Reach7RestoreEP13idRestoreGame
	.section	.text.startup,"ax",@progbits
	.align 2
	.type	_GLOBAL__sub_I__ZN4idIKC2Ev, @function
_GLOBAL__sub_I__ZN4idIKC2Ev:
.LFB3142:
	.loc 2 1139 0
	.cfi_startproc
.LVL1045:
.LBB5209:
.LBB5210:
	.file 15 "d:/Data/Nintendo/DoomGX/src/game/Game_local.h"
	.loc 15 694 0
	lis 9,_ZN6idMath8M_SEC2MSE@ha
	.loc 15 121 0
	li 10,3
	.loc 15 694 0
	lfs 0,_ZN6idMath8M_SEC2MSE@l(9)
	.loc 15 121 0
	lis 9,.LANCHOR0@ha
	la 9,.LANCHOR0@l(9)
.LBB5211:
.LBB5212:
	.loc 3 396 0
	li 0,0
.LBE5212:
.LBE5211:
	.loc 15 694 0
	fadds 0,0,0
	.loc 15 121 0
	stw 10,56(9)
.LVL1046:
.LBB5216:
.LBB5213:
	.loc 3 398 0
	lis 10,.LC57@ha
	.loc 3 396 0
	stw 0,60(9)
	.loc 3 397 0
	stw 0,64(9)
.LBE5213:
.LBE5216:
.LBB5217:
.LBB5218:
	.loc 6 825 0
	addi 11,9,72
.LBE5218:
.LBE5217:
.LBB5221:
.LBB5214:
	.loc 3 398 0
	lwz 0,.LC57@l(10)
.LBE5214:
.LBE5221:
.LBB5222:
.LBB5219:
	.loc 6 825 0
	fctiwz 0,0
.LBE5219:
.LBE5222:
.LBB5223:
.LBB5215:
	.loc 3 398 0
	stw 0,68(9)
.LVL1047:
.LBE5215:
.LBE5223:
	.file 16 "d:/Data/Nintendo/DoomGX/src/game/Player.h"
	.loc 16 69 0
	li 0,10
.LBB5224:
.LBB5220:
	.loc 6 825 0
	stfiwx 0,0,11
.LVL1048:
.LBE5220:
.LBE5224:
	.loc 16 69 0
	stw 0,76(9)
.LBE5210:
.LBE5209:
	.loc 2 1139 0
	blr
	.cfi_endproc
.LFE3142:
	.size	_GLOBAL__sub_I__ZN4idIKC2Ev, .-_GLOBAL__sub_I__ZN4idIKC2Ev
	.section	.ctors,"aw",@progbits
	.align 2
	.long	_GLOBAL__sub_I__ZN4idIKC2Ev
	.weak	_ZTS9idWinding
	.section	.rodata._ZTS9idWinding,"aG",@progbits,_ZTS9idWinding,comdat
	.align 2
	.type	_ZTS9idWinding, @object
	.size	_ZTS9idWinding, 11
_ZTS9idWinding:
	.string	"9idWinding"
	.weak	_ZTI9idWinding
	.section	.sdata._ZTI9idWinding,"awG",@progbits,_ZTI9idWinding,comdat
	.align 2
	.type	_ZTI9idWinding, @object
	.size	_ZTI9idWinding, 8
_ZTI9idWinding:
	.long	_ZTVN10__cxxabiv117__class_type_infoE+8
	.long	_ZTS9idWinding
	.weak	_ZTS14idFixedWinding
	.section	.rodata._ZTS14idFixedWinding,"aG",@progbits,_ZTS14idFixedWinding,comdat
	.align 2
	.type	_ZTS14idFixedWinding, @object
	.size	_ZTS14idFixedWinding, 17
_ZTS14idFixedWinding:
	.string	"14idFixedWinding"
	.weak	_ZTI14idFixedWinding
	.section	.rodata._ZTI14idFixedWinding,"aG",@progbits,_ZTI14idFixedWinding,comdat
	.align 2
	.type	_ZTI14idFixedWinding, @object
	.size	_ZTI14idFixedWinding, 12
_ZTI14idFixedWinding:
	.long	_ZTVN10__cxxabiv120__si_class_type_infoE+8
	.long	_ZTS14idFixedWinding
	.long	_ZTI9idWinding
	.weak	_ZTS4idIK
	.section	.sdata._ZTS4idIK,"awG",@progbits,_ZTS4idIK,comdat
	.align 2
	.type	_ZTS4idIK, @object
	.size	_ZTS4idIK, 6
_ZTS4idIK:
	.string	"4idIK"
	.weak	_ZTI4idIK
	.section	.sdata._ZTI4idIK,"awG",@progbits,_ZTI4idIK,comdat
	.align 2
	.type	_ZTI4idIK, @object
	.size	_ZTI4idIK, 8
_ZTI4idIK:
	.long	_ZTVN10__cxxabiv117__class_type_infoE+8
	.long	_ZTS4idIK
	.weak	_ZTS9idIK_Walk
	.section	.rodata._ZTS9idIK_Walk,"aG",@progbits,_ZTS9idIK_Walk,comdat
	.align 2
	.type	_ZTS9idIK_Walk, @object
	.size	_ZTS9idIK_Walk, 11
_ZTS9idIK_Walk:
	.string	"9idIK_Walk"
	.weak	_ZTI9idIK_Walk
	.section	.rodata._ZTI9idIK_Walk,"aG",@progbits,_ZTI9idIK_Walk,comdat
	.align 2
	.type	_ZTI9idIK_Walk, @object
	.size	_ZTI9idIK_Walk, 12
_ZTI9idIK_Walk:
	.long	_ZTVN10__cxxabiv120__si_class_type_infoE+8
	.long	_ZTS9idIK_Walk
	.long	_ZTI4idIK
	.weak	_ZTS10idIK_Reach
	.section	.rodata._ZTS10idIK_Reach,"aG",@progbits,_ZTS10idIK_Reach,comdat
	.align 2
	.type	_ZTS10idIK_Reach, @object
	.size	_ZTS10idIK_Reach, 13
_ZTS10idIK_Reach:
	.string	"10idIK_Reach"
	.weak	_ZTI10idIK_Reach
	.section	.rodata._ZTI10idIK_Reach,"aG",@progbits,_ZTI10idIK_Reach,comdat
	.align 2
	.type	_ZTI10idIK_Reach, @object
	.size	_ZTI10idIK_Reach, 12
_ZTI10idIK_Reach:
	.long	_ZTVN10__cxxabiv120__si_class_type_infoE+8
	.long	_ZTS10idIK_Reach
	.long	_ZTI4idIK
	.weak	_ZTV9idWinding
	.section	.rodata._ZTV9idWinding,"aG",@progbits,_ZTV9idWinding,comdat
	.align 3
	.type	_ZTV9idWinding, @object
	.size	_ZTV9idWinding, 24
_ZTV9idWinding:
	.long	0
	.long	_ZTI9idWinding
	.long	_ZN9idWindingD1Ev
	.long	_ZN9idWindingD0Ev
	.long	_ZN9idWinding5ClearEv
	.long	_ZN9idWinding10ReAllocateEib
	.weak	_ZTV14idFixedWinding
	.section	.rodata._ZTV14idFixedWinding,"aG",@progbits,_ZTV14idFixedWinding,comdat
	.align 3
	.type	_ZTV14idFixedWinding, @object
	.size	_ZTV14idFixedWinding, 24
_ZTV14idFixedWinding:
	.long	0
	.long	_ZTI14idFixedWinding
	.long	_ZN14idFixedWindingD1Ev
	.long	_ZN14idFixedWindingD0Ev
	.long	_ZN14idFixedWinding5ClearEv
	.long	_ZN14idFixedWinding10ReAllocateEib
	.weak	_ZTV4idIK
	.section	.rodata._ZTV4idIK,"aG",@progbits,_ZTV4idIK,comdat
	.align 3
	.type	_ZTV4idIK, @object
	.size	_ZTV4idIK, 28
_ZTV4idIK:
	.long	0
	.long	_ZTI4idIK
	.long	_ZN4idIKD1Ev
	.long	_ZN4idIKD0Ev
	.long	_ZN4idIK4InitEP8idEntityPKcRK6idVec3
	.long	_ZN4idIK8EvaluateEv
	.long	_ZN4idIK14ClearJointModsEv
	.weak	_ZTV9idIK_Walk
	.section	.rodata._ZTV9idIK_Walk,"aG",@progbits,_ZTV9idIK_Walk,comdat
	.align 3
	.type	_ZTV9idIK_Walk, @object
	.size	_ZTV9idIK_Walk, 28
_ZTV9idIK_Walk:
	.long	0
	.long	_ZTI9idIK_Walk
	.long	_ZN9idIK_WalkD1Ev
	.long	_ZN9idIK_WalkD0Ev
	.long	_ZN9idIK_Walk4InitEP8idEntityPKcRK6idVec3
	.long	_ZN9idIK_Walk8EvaluateEv
	.long	_ZN9idIK_Walk14ClearJointModsEv
	.weak	_ZTV10idIK_Reach
	.section	.rodata._ZTV10idIK_Reach,"aG",@progbits,_ZTV10idIK_Reach,comdat
	.align 3
	.type	_ZTV10idIK_Reach, @object
	.size	_ZTV10idIK_Reach, 28
_ZTV10idIK_Reach:
	.long	0
	.long	_ZTI10idIK_Reach
	.long	_ZN10idIK_ReachD1Ev
	.long	_ZN10idIK_ReachD0Ev
	.long	_ZN10idIK_Reach4InitEP8idEntityPKcRK6idVec3
	.long	_ZN10idIK_Reach8EvaluateEv
	.long	_ZN10idIK_Reach14ClearJointModsEv
	.globl _ZN4idIKD1Ev
	.set	_ZN4idIKD1Ev,_ZN4idIKD2Ev
	.globl _ZN10idIK_ReachD1Ev
	.set	_ZN10idIK_ReachD1Ev,_ZN10idIK_ReachD2Ev
	.weak	_ZN9idWindingD1Ev
	.set	_ZN9idWindingD1Ev,_ZN9idWindingD2Ev
	.globl _ZN9idIK_WalkD1Ev
	.set	_ZN9idIK_WalkD1Ev,_ZN9idIK_WalkD2Ev
	.weak	_ZN14idFixedWindingD1Ev
	.set	_ZN14idFixedWindingD1Ev,_ZN14idFixedWindingD2Ev
	.globl _ZN4idIKC1Ev
	.set	_ZN4idIKC1Ev,_ZN4idIKC2Ev
	.globl _ZN9idIK_WalkC1Ev
	.set	_ZN9idIK_WalkC1Ev,_ZN9idIK_WalkC2Ev
	.globl _ZN10idIK_ReachC1Ev
	.set	_ZN10idIK_ReachC1Ev,_ZN10idIK_ReachC2Ev
	.section	.rodata.cst4,"aM",@progbits,4
	.align 2
.LC7:
	.4byte	1056964608
.LC9:
	.4byte	1069547520
.LC10:
	.4byte	1135869952
.LC12:
	.4byte	1127481344
.LC13:
	.4byte	1106247680
.LC14:
	.4byte	0
.LC16:
	.4byte	-1082130432
.LC25:
	.4byte	1065353216
.LC52:
	.4byte	.LC31
.LC54:
	.4byte	1061158912
.LC55:
	.4byte	1107296256
.LC57:
	.4byte	-997900288
	.section	.rodata.str1.4,"aMS",@progbits,1
	.align 2
.LC0:
	.string	"idIK::Init: IK for entity '%s' at (%s) has no model set."
	.zero	3
.LC1:
	.string	"idIK::Init: IK for entity '%s' at (%s) uses default model."
	.zero	1
.LC2:
	.string	"idIK::Init: IK for entity '%s' at (%s) has no modified animation."
	.zero	2
.LC3:
	.string	"idIK::idIK( void ) size %d\r\n"
	.zero	3
.LC4:
	.string	""
	.zero	3
.LC5:
	.string	"idIK::Restore: IK for entity '%s' at (%s) has no model set."
.LC6:
	.string	"idIK::Restore: IK for entity '%s' at (%s) has no modified animation."
	.zero	3
.LC15:
	.string	"0"
	.zero	2
.LC17:
	.string	"ik_numArms"
	.zero	1
.LC18:
	.string	"ik_hand%d"
	.zero	2
.LC19:
	.string	"idIK_Reach::Init: invalid hand joint '%s'"
	.zero	2
.LC20:
	.string	"ik_elbow%d"
	.zero	1
.LC21:
	.string	"idIK_Reach::Init: invalid elbow joint '%s'\n"
.LC22:
	.string	"ik_shoulder%d"
	.zero	2
.LC23:
	.string	"idIK_Reach::Init: invalid shoulder joint '%s'\n"
	.zero	1
.LC24:
	.string	"ik_elbowDir%d"
	.zero	2
.LC26:
	.string	"0.75"
	.zero	3
.LC27:
	.string	"32"
	.zero	1
.LC28:
	.string	"4"
	.zero	2
.LC29:
	.string	"ik_numLegs"
	.zero	1
.LC30:
	.string	"ik_foot%d"
	.zero	2
.LC31:
	.string	"idIK_Walk::Init: invalid foot joint '%s'"
	.zero	3
.LC32:
	.string	"ik_ankle%d"
	.zero	1
.LC33:
	.string	"idIK_Walk::Init: invalid ankle joint '%s'"
	.zero	2
.LC34:
	.string	"ik_knee%d"
	.zero	2
.LC35:
	.string	"idIK_Walk::Init: invalid knee joint '%s'\n"
	.zero	2
.LC36:
	.string	"ik_hip%d"
	.zero	3
.LC37:
	.string	"idIK_Walk::Init: invalid hip joint '%s'\n"
	.zero	3
.LC38:
	.string	"ik_dir%d"
	.zero	3
.LC39:
	.string	"ik_waist"
	.zero	3
.LC40:
	.string	"idIK_Walk::Init: invalid waist joint '%s'\n"
	.zero	1
.LC41:
	.string	"ik_smoothing"
	.zero	3
.LC42:
	.string	"ik_waistSmoothing"
	.zero	2
.LC43:
	.string	"ik_footShift"
	.zero	3
.LC44:
	.string	"ik_waistShift"
	.zero	2
.LC45:
	.string	"ik_minWaistFloorDist"
	.zero	3
.LC46:
	.string	"ik_minWaistAnkleDist"
	.zero	3
.LC47:
	.string	"ik_footUpTrace"
	.zero	1
.LC48:
	.string	"ik_footDownTrace"
	.zero	3
.LC49:
	.string	"ik_tiltWaist"
	.zero	3
.LC50:
	.string	"ik_usePivot"
.LC51:
	.string	"ik_footSize"
.LC53:
	.string	"idIK_Walk::idIK_Walk() size %d\r\n"
	.zero	3
.LC56:
	.string	"idIK_Reach::idIK_Reach() size %d\r\n"
	.section	".bss"
	.align 3
	.set	.LANCHOR0,. + 0
	.type	_ZGVZN9idIK_Walk4InitEP8idEntityPKcRK6idVec3E11footWinding, @object
	.size	_ZGVZN9idIK_Walk4InitEP8idEntityPKcRK6idVec3E11footWinding, 8
_ZGVZN9idIK_Walk4InitEP8idEntityPKcRK6idVec3E11footWinding:
	.zero	8
	.type	_ZZN9idIK_Walk4InitEP8idEntityPKcRK6idVec3E11footWinding, @object
	.size	_ZZN9idIK_Walk4InitEP8idEntityPKcRK6idVec3E11footWinding, 48
_ZZN9idIK_Walk4InitEP8idEntityPKcRK6idVec3E11footWinding:
	.zero	48
	.type	_ZL22NUM_RENDER_PORTAL_BITS, @object
	.size	_ZL22NUM_RENDER_PORTAL_BITS, 4
_ZL22NUM_RENDER_PORTAL_BITS:
	.zero	4
	.type	_ZL20DEFAULT_GRAVITY_VEC3, @object
	.size	_ZL20DEFAULT_GRAVITY_VEC3, 12
_ZL20DEFAULT_GRAVITY_VEC3:
	.zero	12
	.type	_ZL20CINEMATIC_SKIP_DELAY, @object
	.size	_ZL20CINEMATIC_SKIP_DELAY, 4
_ZL20CINEMATIC_SKIP_DELAY:
	.zero	4
	.type	_ZL26ASYNC_PLAYER_INV_AMMO_BITS, @object
	.size	_ZL26ASYNC_PLAYER_INV_AMMO_BITS, 4
_ZL26ASYNC_PLAYER_INV_AMMO_BITS:
	.zero	4
	.section	".text"
.Letext0:
	.file 17 "<built-in>"
	.file 18 "c:\\utils\\devkitpro\\devkitppc\\bin\\../lib/gcc/powerpc-eabi/4.6.3/include/stddef.h"
	.file 19 "c:\\utils\\devkitpro\\devkitppc\\bin\\../lib/gcc/powerpc-eabi/4.6.3/../../../../powerpc-eabi/include/sys/types.h"
	.file 20 "d:/Data/Nintendo/DoomGX/src/game/../idlib/../sys/sys_public.h"
	.file 21 "d:/Data/Nintendo/DoomGX/src/game/../idlib/../framework/Common.h"
	.file 22 "d:/Data/Nintendo/DoomGX/src/game/../idlib/../framework/FileSystem.h"
	.file 23 "d:/Data/Nintendo/DoomGX/src/game/../idlib/../idlib/CmdArgs.h"
	.file 24 "d:/Data/Nintendo/DoomGX/src/game/../idlib/../idlib/math/Random.h"
	.file 25 "d:/Data/Nintendo/DoomGX/src/game/../idlib/../idlib/math/Angles.h"
	.file 26 "d:/Data/Nintendo/DoomGX/src/game/../idlib/../idlib/math/Quat.h"
	.file 27 "d:/Data/Nintendo/DoomGX/src/game/../idlib/../idlib/math/Rotation.h"
	.file 28 "d:/Data/Nintendo/DoomGX/src/game/../idlib/../idlib/math/Plane.h"
	.file 29 "d:/Data/Nintendo/DoomGX/src/game/../idlib/../idlib/containers/List.h"
	.file 30 "d:/Data/Nintendo/DoomGX/src/game/../idlib/../idlib/math/Ode.h"
	.file 31 "d:/Data/Nintendo/DoomGX/src/game/../idlib/../idlib/bv/Sphere.h"
	.file 32 "d:/Data/Nintendo/DoomGX/src/game/../idlib/../idlib/bv/Box.h"
	.file 33 "d:/Data/Nintendo/DoomGX/src/game/../idlib/../idlib/bv/Frustum.h"
	.file 34 "d:/Data/Nintendo/DoomGX/src/game/../idlib/../idlib/geometry/DrawVert.h"
	.file 35 "d:/Data/Nintendo/DoomGX/src/game/../idlib/../idlib/geometry/Surface.h"
	.file 36 "d:/Data/Nintendo/DoomGX/src/game/../idlib/../idlib/Token.h"
	.file 37 "d:/Data/Nintendo/DoomGX/src/game/../idlib/../idlib/Lexer.h"
	.file 38 "d:/Data/Nintendo/DoomGX/src/game/../idlib/../framework/File.h"
	.file 39 "d:/Data/Nintendo/DoomGX/src/game/../idlib/../idlib/Parser.h"
	.file 40 "d:/Data/Nintendo/DoomGX/src/game/../idlib/../idlib/containers/HashIndex.h"
	.file 41 "d:/Data/Nintendo/DoomGX/src/game/../idlib/../idlib/containers/StrList.h"
	.file 42 "d:/Data/Nintendo/DoomGX/src/game/../idlib/../idlib/containers/StrPool.h"
	.file 43 "d:/Data/Nintendo/DoomGX/src/game/../idlib/../idlib/containers/PlaneSet.h"
	.file 44 "d:/Data/Nintendo/DoomGX/src/game/../idlib/../idlib/LangDict.h"
	.file 45 "d:/Data/Nintendo/DoomGX/src/game/../idlib/../idlib/BitMsg.h"
	.file 46 "d:/Data/Nintendo/DoomGX/src/game/../idlib/../idlib/MapFile.h"
	.file 47 "d:/Data/Nintendo/DoomGX/src/game/../idlib/../framework/CmdSystem.h"
	.file 48 "d:/Data/Nintendo/DoomGX/src/game/../idlib/../framework/UsercmdGen.h"
	.file 49 "d:/Data/Nintendo/DoomGX/src/game/../idlib/../framework/DeclManager.h"
	.file 50 "d:/Data/Nintendo/DoomGX/src/game/../idlib/../framework/DeclParticle.h"
	.file 51 "d:/Data/Nintendo/DoomGX/src/game/../idlib/../renderer/RenderWorld.h"
	.file 52 "d:/Data/Nintendo/DoomGX/src/game/../idlib/../renderer/Cinematic.h"
	.file 53 "d:/Data/Nintendo/DoomGX/src/game/../idlib/../renderer/Material.h"
	.file 54 "d:/Data/Nintendo/DoomGX/src/game/../idlib/../renderer/Model.h"
	.file 55 "d:/Data/Nintendo/DoomGX/src/game/../idlib/../renderer/RenderSystem.h"
	.file 56 "d:/Data/Nintendo/DoomGX/src/game/../idlib/../sound/sound.h"
	.file 57 "d:/Data/Nintendo/DoomGX/src/game/../idlib/../ui/UserInterface.h"
	.file 58 "d:/Data/Nintendo/DoomGX/src/game/../idlib/../cm/CollisionModel.h"
	.file 59 "d:/Data/Nintendo/DoomGX/src/game/../idlib/../tools/compilers/aas/AASFile.h"
	.file 60 "d:/Data/Nintendo/DoomGX/src/game/../idlib/../game/Game.h"
	.file 61 "d:/Data/Nintendo/DoomGX/src/game/../idlib/../framework/async/NetworkSystem.h"
	.file 62 "d:/Data/Nintendo/DoomGX/src/game/../idlib/../renderer/ModelManager.h"
	.file 63 "d:/Data/Nintendo/DoomGX/src/game/../idlib/../tools/compilers/aas/AASFileManager.h"
	.file 64 "d:/Data/Nintendo/DoomGX/src/game/../idlib/../framework/Session.h"
	.file 65 "d:/Data/Nintendo/DoomGX/src/game/../idlib/../ui/ListGUI.h"
	.file 66 "d:/Data/Nintendo/DoomGX/src/game/gamesys/Event.h"
	.file 67 "d:/Data/Nintendo/DoomGX/src/game/gamesys/SaveGame.h"
	.file 68 "d:/Data/Nintendo/DoomGX/src/game/Entity.h"
	.file 69 "d:/Data/Nintendo/DoomGX/src/game/../idlib/../idlib/containers/Hierarchy.h"
	.file 70 "d:/Data/Nintendo/DoomGX/src/game/script/Script_Program.h"
	.file 71 "d:/Data/Nintendo/DoomGX/src/game/anim/Anim.h"
	.file 72 "d:/Data/Nintendo/DoomGX/src/game/IK.h"
	.file 73 "d:/Data/Nintendo/DoomGX/src/game/ai/AAS.h"
	.file 74 "d:/Data/Nintendo/DoomGX/src/game/../idlib/../framework/Console.h"
	.file 75 "d:/Data/Nintendo/DoomGX/src/game/../idlib/../idlib/math/Curve.h"
	.file 76 "d:/Data/Nintendo/DoomGX/src/game/../idlib/../idlib/math/Simd.h"
	.file 77 "d:/Data/Nintendo/DoomGX/src/game/../idlib/../framework/BuildVersion.h"
	.file 78 "d:/Data/Nintendo/DoomGX/src/game/../idlib/precompiled.h"
	.file 79 "d:/Data/Nintendo/DoomGX/src/game/../idlib/../framework/EventLoop.h"
	.file 80 "d:/Data/Nintendo/DoomGX/src/game/../idlib/../framework/EditField.h"
	.file 81 "d:/Data/Nintendo/DoomGX/src/game/../idlib/../framework/async/AsyncNetwork.h"
	.file 82 "d:/Data/Nintendo/DoomGX/src/game/../idlib/../framework/async/AsyncServer.h"
	.file 83 "d:/Data/Nintendo/DoomGX/src/game/gamesys/SysCvar.h"
	.file 84 "d:/Data/Nintendo/DoomGX/src/game/MultiplayerGame.h"
	.file 85 "d:/Data/Nintendo/DoomGX/src/game/AFEntity.h"
	.file 86 "d:/Data/Nintendo/DoomGX/src/game/Weapon.h"
	.file 87 "d:/Data/Nintendo/DoomGX/src/game/ai/AI.h"
	.file 88 "d:/Data/Nintendo/DoomGX/src/game/script/Script_Compiler.h"
	.file 89 "d:/Data/Nintendo/DoomGX/src/game/script/Script_Thread.h"