	.file	"Image_init.cpp"
	.section	".text"
.Ltext0:
	.section	.text._ZN14idFixedWinding5ClearEv,"axG",@progbits,_ZN14idFixedWinding5ClearEv,comdat
	.align 2
	.weak	_ZN14idFixedWinding5ClearEv
	.type	_ZN14idFixedWinding5ClearEv, @function
_ZN14idFixedWinding5ClearEv:
.LFB1502:
	.file 1 "d:/Data/Nintendo/DoomGX/src/renderer/../idlib/../idlib/geometry/Winding.h"
	.loc 1 398 0
	.cfi_startproc
.LVL0:
	.loc 1 399 0
	li 0,0
	.loc 1 400 0
	.loc 1 399 0
	stw 0,4(3)
	.loc 1 400 0
	blr
	.cfi_endproc
.LFE1502:
	.size	_ZN14idFixedWinding5ClearEv, .-_ZN14idFixedWinding5ClearEv
	.section	.text._ZN6idCVarD2Ev,"axG",@progbits,_ZN6idCVarD5Ev,comdat
	.align 2
	.weak	_ZN6idCVarD2Ev
	.type	_ZN6idCVarD2Ev, @function
_ZN6idCVarD2Ev:
.LFB2175:
	.file 2 "d:/Data/Nintendo/DoomGX/src/renderer/../idlib/../framework/CVarSystem.h"
	.loc 2 127 0
	.cfi_startproc
.LVL1:
.LBB1153:
	.loc 2 127 0
	lis 9,_ZTV6idCVar+8@ha
.LBE1153:
.LBB1154:
	la 0,_ZTV6idCVar+8@l(9)
	stw 0,0(3)
.LBE1154:
	blr
	.cfi_endproc
.LFE2175:
	.size	_ZN6idCVarD2Ev, .-_ZN6idCVarD2Ev
	.section	.text._ZN6idCVar17InternalSetStringEPKc,"axG",@progbits,_ZN6idCVar17InternalSetStringEPKc,comdat
	.align 2
	.weak	_ZN6idCVar17InternalSetStringEPKc
	.type	_ZN6idCVar17InternalSetStringEPKc, @function
_ZN6idCVar17InternalSetStringEPKc:
.LFB2197:
	.loc 2 173 0
	.cfi_startproc
.LVL2:
	.loc 2 173 0
	blr
	.cfi_endproc
.LFE2197:
	.size	_ZN6idCVar17InternalSetStringEPKc, .-_ZN6idCVar17InternalSetStringEPKc
	.section	.text._ZN6idCVar15InternalSetBoolEb,"axG",@progbits,_ZN6idCVar15InternalSetBoolEb,comdat
	.align 2
	.weak	_ZN6idCVar15InternalSetBoolEb
	.type	_ZN6idCVar15InternalSetBoolEb, @function
_ZN6idCVar15InternalSetBoolEb:
.LFB2198:
	.loc 2 174 0
	.cfi_startproc
.LVL3:
	.loc 2 174 0
	blr
	.cfi_endproc
.LFE2198:
	.size	_ZN6idCVar15InternalSetBoolEb, .-_ZN6idCVar15InternalSetBoolEb
	.section	.text._ZN6idCVar18InternalSetIntegerEi,"axG",@progbits,_ZN6idCVar18InternalSetIntegerEi,comdat
	.align 2
	.weak	_ZN6idCVar18InternalSetIntegerEi
	.type	_ZN6idCVar18InternalSetIntegerEi, @function
_ZN6idCVar18InternalSetIntegerEi:
.LFB2199:
	.loc 2 175 0
	.cfi_startproc
.LVL4:
	.loc 2 175 0
	blr
	.cfi_endproc
.LFE2199:
	.size	_ZN6idCVar18InternalSetIntegerEi, .-_ZN6idCVar18InternalSetIntegerEi
	.section	.text._ZN6idCVar16InternalSetFloatEf,"axG",@progbits,_ZN6idCVar16InternalSetFloatEf,comdat
	.align 2
	.weak	_ZN6idCVar16InternalSetFloatEf
	.type	_ZN6idCVar16InternalSetFloatEf, @function
_ZN6idCVar16InternalSetFloatEf:
.LFB2200:
	.loc 2 176 0
	.cfi_startproc
.LVL5:
	.loc 2 176 0
	blr
	.cfi_endproc
.LFE2200:
	.size	_ZN6idCVar16InternalSetFloatEf, .-_ZN6idCVar16InternalSetFloatEf
	.section	.text._ZN9idWinding5ClearEv,"axG",@progbits,_ZN9idWinding5ClearEv,comdat
	.align 2
	.weak	_ZN9idWinding5ClearEv
	.type	_ZN9idWinding5ClearEv, @function
_ZN9idWinding5ClearEv:
.LFB1473:
	.loc 1 249 0
	.cfi_startproc
.LVL6:
	mflr 0
	stwu 1,-16(1)
.LCFI0:
	.cfi_def_cfa_offset 16
	.cfi_register 65, 0
	stw 31,12(1)
	mr 31,3
	.cfi_offset 31, -4
	stw 0,20(1)
	.loc 1 250 0
	li 0,0
	.cfi_offset 65, 4
	.loc 1 251 0
	lwz 3,8(3)
.LVL7:
	.loc 1 250 0
	stw 0,4(31)
	.loc 1 251 0
	cmpwi 7,3,0
	beq- 7,.L9
	.loc 1 251 0 is_stmt 0 discriminator 1
	bl _ZdaPv
.L9:
	.loc 1 252 0 is_stmt 1
	li 0,0
	stw 0,8(31)
	.loc 1 253 0
	lwz 0,20(1)
	lwz 31,12(1)
.LVL8:
	mtlr 0
	addi 1,1,16
.LCFI1:
	.cfi_def_cfa_offset 0
	.cfi_restore 31
	blr
	.cfi_endproc
.LFE1473:
	.size	_ZN9idWinding5ClearEv, .-_ZN9idWinding5ClearEv
	.section	.text._ZN9idWindingD2Ev,"axG",@progbits,_ZN9idWindingD5Ev,comdat
	.align 2
	.weak	_ZN9idWindingD2Ev
	.type	_ZN9idWindingD2Ev, @function
_ZN9idWindingD2Ev:
.LFB1461:
	.loc 1 183 0
	.cfi_startproc
.LVL9:
	mflr 0
	stwu 1,-16(1)
.LCFI2:
	.cfi_def_cfa_offset 16
	.cfi_register 65, 0
.LBB1156:
	lis 9,_ZTV9idWinding+8@ha
.LBE1156:
	stw 31,12(1)
	mr 31,3
	.cfi_offset 31, -4
	stw 0,20(1)
.LBB1157:
	.loc 1 183 0
	la 0,_ZTV9idWinding+8@l(9)
	.cfi_offset 65, 4
	.loc 1 184 0
	lwz 3,8(3)
.LVL10:
	.loc 1 183 0
	stw 0,0(31)
	.loc 1 184 0
	cmpwi 7,3,0
	beq- 7,.L12
	.loc 1 184 0 is_stmt 0 discriminator 1
	bl _ZdaPv
.L12:
	.loc 1 185 0 is_stmt 1
	li 0,0
	stw 0,8(31)
.LBE1157:
	.loc 1 186 0
	lwz 0,20(1)
	lwz 31,12(1)
.LVL11:
	mtlr 0
	addi 1,1,16
.LCFI3:
	.cfi_def_cfa_offset 0
	.cfi_restore 31
	blr
	.cfi_endproc
.LFE1461:
	.size	_ZN9idWindingD2Ev, .-_ZN9idWindingD2Ev
	.section	.text._ZN6idCVarD0Ev,"axG",@progbits,_ZN6idCVarD5Ev,comdat
	.align 2
	.weak	_ZN6idCVarD0Ev
	.type	_ZN6idCVarD0Ev, @function
_ZN6idCVarD0Ev:
.LFB2177:
	.loc 2 127 0
	.cfi_startproc
.LVL12:
	mflr 0
	stwu 1,-8(1)
.LCFI4:
	.cfi_def_cfa_offset 8
	.cfi_register 65, 0
.LBB1158:
.LBB1159:
.LBB1160:
	lis 9,_ZTV6idCVar+8@ha
.LBE1160:
.LBE1159:
.LBE1158:
	stw 0,12(1)
.LBB1163:
.LBB1162:
.LBB1161:
	.loc 2 127 0
	la 0,_ZTV6idCVar+8@l(9)
	.cfi_offset 65, 4
	stw 0,0(3)
.LBE1161:
.LBE1162:
.LBE1163:
	bl _ZdlPv
.LVL13:
	lwz 0,12(1)
	addi 1,1,8
.LCFI5:
	.cfi_def_cfa_offset 0
	mtlr 0
	blr
	.cfi_endproc
.LFE2177:
	.size	_ZN6idCVarD0Ev, .-_ZN6idCVarD0Ev
	.section	.text._ZN11idCmdSystem21ArgCompletion_BooleanERK9idCmdArgsPFvPKcE,"axG",@progbits,_ZN11idCmdSystem21ArgCompletion_BooleanERK9idCmdArgsPFvPKcE,comdat
	.align 2
	.weak	_ZN11idCmdSystem21ArgCompletion_BooleanERK9idCmdArgsPFvPKcE
	.type	_ZN11idCmdSystem21ArgCompletion_BooleanERK9idCmdArgsPFvPKcE, @function
_ZN11idCmdSystem21ArgCompletion_BooleanERK9idCmdArgsPFvPKcE:
.LFB2158:
	.file 3 "d:/Data/Nintendo/DoomGX/src/renderer/../idlib/../framework/CmdSystem.h"
	.loc 3 131 0
	.cfi_startproc
.LVL14:
	mflr 0
	stwu 1,-24(1)
.LCFI6:
	.cfi_def_cfa_offset 24
	.cfi_register 65, 0
	stw 31,20(1)
	mr 31,3
	.cfi_offset 31, -4
.LVL15:
	stw 0,28(1)
	.loc 3 131 0
	stw 4,8(1)
.LBB1164:
.LBB1165:
	.file 4 "d:/Data/Nintendo/DoomGX/src/renderer/../idlib/../idlib/CmdArgs.h"
	.loc 4 50 0
	lwz 0,0(3)
	.cfi_offset 65, 4
	cmpwi 7,0,0
	ble- 7,.L20
	lwz 4,4(3)
.LVL16:
.LBE1165:
.LBE1164:
	.loc 3 132 0
	lis 3,.LC1@ha
.LVL17:
	la 3,.LC1@l(3)
	crxor 6,6,6
	bl _Z2vaPKcz
	lwz 0,8(1)
	mtctr 0
	bctrl
.LVL18:
.LBB1168:
.LBB1169:
	.loc 4 50 0
	lwz 0,0(31)
	cmpwi 7,0,0
	ble- 7,.L21
.L22:
	lwz 4,4(31)
.LBE1169:
.LBE1168:
	.loc 3 133 0
	lis 3,.LC2@ha
	la 3,.LC2@l(3)
	crxor 6,6,6
	bl _Z2vaPKcz
	lwz 0,8(1)
	mtctr 0
	bctrl
	.loc 3 134 0
	lwz 0,28(1)
	lwz 31,20(1)
.LVL19:
	mtlr 0
	addi 1,1,24
	.cfi_remember_state
.LCFI7:
	.cfi_def_cfa_offset 0
	.cfi_restore 31
	blr
.LVL20:
.L20:
.LCFI8:
	.cfi_restore_state
.LBB1172:
.LBB1166:
	.loc 4 50 0
	lis 4,.LC0@ha
.LBE1166:
.LBE1172:
	.loc 3 132 0
	lis 3,.LC1@ha
.LVL21:
.LBB1173:
.LBB1167:
	.loc 4 50 0
	la 4,.LC0@l(4)
.LBE1167:
.LBE1173:
	.loc 3 132 0
	la 3,.LC1@l(3)
	crxor 6,6,6
	bl _Z2vaPKcz
	lwz 0,8(1)
	mtctr 0
	bctrl
.LVL22:
.LBB1174:
.LBB1170:
	.loc 4 50 0
	lwz 0,0(31)
	cmpwi 7,0,0
	bgt+ 7,.L22
.L21:
	lis 4,.LC0@ha
.LBE1170:
.LBE1174:
	.loc 3 133 0
	lis 3,.LC2@ha
.LBB1175:
.LBB1171:
	.loc 4 50 0
	la 4,.LC0@l(4)
.LBE1171:
.LBE1175:
	.loc 3 133 0
	la 3,.LC2@l(3)
	crxor 6,6,6
	bl _Z2vaPKcz
	lwz 0,8(1)
	mtctr 0
	bctrl
	.loc 3 134 0
	lwz 0,28(1)
	lwz 31,20(1)
.LVL23:
	mtlr 0
	addi 1,1,24
	.cfi_restore 31
.LCFI9:
	.cfi_def_cfa_offset 0
	blr
	.cfi_endproc
.LFE2158:
	.size	_ZN11idCmdSystem21ArgCompletion_BooleanERK9idCmdArgsPFvPKcE, .-_ZN11idCmdSystem21ArgCompletion_BooleanERK9idCmdArgsPFvPKcE
	.section	.text._ZN11idCmdSystem20ArgCompletion_StringIXadL_Z11imageFilterEEEEvRK9idCmdArgsPFvPKcE,"axG",@progbits,_ZN11idCmdSystem20ArgCompletion_StringIXadL_Z11imageFilterEEEEvRK9idCmdArgsPFvPKcE,comdat
	.align 2
	.weak	_ZN11idCmdSystem20ArgCompletion_StringIXadL_Z11imageFilterEEEEvRK9idCmdArgsPFvPKcE
	.type	_ZN11idCmdSystem20ArgCompletion_StringIXadL_Z11imageFilterEEEEvRK9idCmdArgsPFvPKcE, @function
_ZN11idCmdSystem20ArgCompletion_StringIXadL_Z11imageFilterEEEEvRK9idCmdArgsPFvPKcE:
.LFB2794:
	.loc 3 142 0
	.cfi_startproc
.LVL24:
	stwu 1,-32(1)
.LCFI10:
	.cfi_def_cfa_offset 32
	mflr 0
	stw 31,28(1)
.LBB1176:
	.loc 3 143 0
	lis 31,.LANCHOR0@ha
	.cfi_offset 31, -4
	.cfi_register 65, 0
	lwz 5,.LANCHOR0@l(31)
	la 31,.LANCHOR0@l(31)
.LBE1176:
	.loc 3 142 0
	stw 30,24(1)
	mr 30,3
	.cfi_offset 30, -8
.LBB1181:
	.loc 3 143 0
	cmpwi 7,5,0
.LBE1181:
	.loc 3 142 0
	stw 0,36(1)
	stw 28,16(1)
	stw 29,20(1)
	.loc 3 142 0
	stw 4,8(1)
.LBB1182:
	.loc 3 143 0
	beq- 7,.L23
	.cfi_offset 29, -12
	.cfi_offset 28, -16
	.cfi_offset 65, 4
	lis 29,.LC3@ha
.LBB1177:
.LBB1178:
	.loc 4 50 0
	lis 28,.LC0@ha
	la 29,.LC3@l(29)
	b .L26
.LVL25:
.L29:
	lwz 4,4(30)
.LBE1178:
.LBE1177:
	.loc 3 144 0
	mr 3,29
	crxor 6,6,6
	bl _Z2vaPKcz
	lwz 0,8(1)
	mtctr 0
	bctrl
	.loc 3 143 0
	lwzu 5,4(31)
	cmpwi 7,5,0
	beq- 7,.L23
.LVL26:
.L26:
.LBB1180:
.LBB1179:
	.loc 4 50 0
	lwz 0,0(30)
	cmpwi 7,0,0
	bgt+ 7,.L29
	la 4,.LC0@l(28)
.LBE1179:
.LBE1180:
	.loc 3 144 0
	mr 3,29
	crxor 6,6,6
	bl _Z2vaPKcz
	lwz 0,8(1)
	mtctr 0
	bctrl
	.loc 3 143 0
	lwzu 5,4(31)
	cmpwi 7,5,0
	bne+ 7,.L26
.LVL27:
.L23:
.LBE1182:
	.loc 3 146 0
	lwz 0,36(1)
	lwz 28,16(1)
	mtlr 0
	lwz 29,20(1)
	lwz 30,24(1)
.LVL28:
	lwz 31,28(1)
	addi 1,1,32
.LCFI11:
	.cfi_def_cfa_offset 0
	.cfi_restore 31
	.cfi_restore 30
	.cfi_restore 29
	.cfi_restore 28
	blr
	.cfi_endproc
.LFE2794:
	.size	_ZN11idCmdSystem20ArgCompletion_StringIXadL_Z11imageFilterEEEEvRK9idCmdArgsPFvPKcE, .-_ZN11idCmdSystem20ArgCompletion_StringIXadL_Z11imageFilterEEEEvRK9idCmdArgsPFvPKcE
	.section	".text"
	.align 2
	.type	_ZL26makeNormalizeVectorCubeMapP7idImage, @function
_ZL26makeNormalizeVectorCubeMapP7idImage:
.LFB2592:
	.file 5 "d:/Data/Nintendo/DoomGX/src/renderer/Image_init.cpp"
	.loc 5 500 0
	.cfi_startproc
.LVL29:
	mflr 0
	stwu 1,-8(1)
.LCFI12:
	.cfi_def_cfa_offset 8
	.cfi_register 65, 0
	.loc 5 501 0
	lis 3,.LC4@ha
.LVL30:
	la 3,.LC4@l(3)
	.loc 5 500 0
	stw 0,12(1)
	.loc 5 501 0
	.cfi_offset 65, 4
	crxor 6,6,6
	bl _Z10Sys_PrintfPKcz
	.loc 5 502 0
	lwz 0,12(1)
	addi 1,1,8
.LCFI13:
	.cfi_def_cfa_offset 0
	mtlr 0
	blr
	.cfi_endproc
.LFE2592:
	.size	_ZL26makeNormalizeVectorCubeMapP7idImage, .-_ZL26makeNormalizeVectorCubeMapP7idImage
	.align 2
	.type	_ZL20R_AmbientNormalImageP7idImage, @function
_ZL20R_AmbientNormalImageP7idImage:
.LFB2586:
	.loc 5 446 0
	.cfi_startproc
.LVL31:
	mflr 0
	stwu 1,-8(1)
.LCFI14:
	.cfi_def_cfa_offset 8
	.cfi_register 65, 0
	.loc 5 447 0
	lis 3,.LC5@ha
.LVL32:
	la 3,.LC5@l(3)
	.loc 5 446 0
	stw 0,12(1)
	.loc 5 447 0
	.cfi_offset 65, 4
	crxor 6,6,6
	bl _Z10Sys_PrintfPKcz
	.loc 5 448 0
	lwz 0,12(1)
	addi 1,1,8
.LCFI15:
	.cfi_def_cfa_offset 0
	mtlr 0
	blr
	.cfi_endproc
.LFE2586:
	.size	_ZL20R_AmbientNormalImageP7idImage, .-_ZL20R_AmbientNormalImageP7idImage
	.align 2
	.globl _Z21R_CombineCubeImages_fRK9idCmdArgs
	.type	_Z21R_CombineCubeImages_fRK9idCmdArgs, @function
_Z21R_CombineCubeImages_fRK9idCmdArgs:
.LFB2610:
	.loc 5 1444 0
	.cfi_startproc
.LVL33:
	mflr 0
	stwu 1,-8(1)
.LCFI16:
	.cfi_def_cfa_offset 8
	.cfi_register 65, 0
	.loc 5 1445 0
	lis 3,.LC6@ha
.LVL34:
	la 3,.LC6@l(3)
	.loc 5 1444 0
	stw 0,12(1)
	.loc 5 1445 0
	.cfi_offset 65, 4
	crxor 6,6,6
	bl _Z10Sys_PrintfPKcz
	.loc 5 1446 0
	lwz 0,12(1)
	addi 1,1,8
.LCFI17:
	.cfi_def_cfa_offset 0
	mtlr 0
	blr
	.cfi_endproc
.LFE2610:
	.size	_Z21R_CombineCubeImages_fRK9idCmdArgs, .-_Z21R_CombineCubeImages_fRK9idCmdArgs
	.align 2
	.type	_ZL12R_RGBA8ImageP7idImage, @function
_ZL12R_RGBA8ImageP7idImage:
.LFB2582:
	.loc 5 388 0
	.cfi_startproc
.LVL35:
	stwu 1,-1040(1)
.LCFI18:
	.cfi_def_cfa_offset 1040
	mflr 0
.LBB1183:
	.loc 5 391 0
	li 4,0
	li 5,1024
.LBE1183:
	.loc 5 388 0
	stw 31,1036(1)
	mr 31,3
	.cfi_offset 31, -4
	.cfi_register 65, 0
.LBB1184:
	.loc 5 391 0
	addi 3,1,8
.LVL36:
.LBE1184:
	.loc 5 388 0
	stw 0,1044(1)
.LBB1185:
	.loc 5 391 0
	.cfi_offset 65, 4
	bl memset
	.loc 5 392 0
	li 0,16
	stb 0,8(1)
	.loc 5 393 0
	li 0,32
	stb 0,9(1)
	.loc 5 394 0
	li 0,48
	stb 0,10(1)
	.loc 5 398 0
	mr 3,31
	.loc 5 395 0
	li 0,96
	.loc 5 398 0
	addi 4,1,8
	li 5,16
	li 6,16
	li 7,2
	li 8,0
	li 9,0
	li 10,4
	.loc 5 395 0
	stb 0,11(1)
	.loc 5 398 0
	bl _ZN7idImage13GenerateImageEPKhii15textureFilter_tb15textureRepeat_t14textureDepth_t
.LBE1185:
	.loc 5 399 0
	lwz 0,1044(1)
	lwz 31,1036(1)
.LVL37:
	mtlr 0
	addi 1,1,1040
.LCFI19:
	.cfi_def_cfa_offset 0
	.cfi_restore 31
	blr
	.cfi_endproc
.LFE2582:
	.size	_ZL12R_RGBA8ImageP7idImage, .-_ZL12R_RGBA8ImageP7idImage
	.align 2
	.type	_ZL22R_CreateNoFalloffImageP7idImage, @function
_ZL22R_CreateNoFalloffImageP7idImage:
.LFB2593:
	.loc 5 515 0
	.cfi_startproc
.LVL38:
	stwu 1,-4112(1)
.LCFI20:
	.cfi_def_cfa_offset 4112
	mflr 0
.LBB1186:
	.loc 5 519 0
	li 4,0
	li 5,4096
.LBE1186:
	.loc 5 515 0
	stw 31,4108(1)
	mr 31,3
	.cfi_offset 31, -4
	.cfi_register 65, 0
.LBB1187:
	.loc 5 519 0
	addi 3,1,8
.LVL39:
.LBE1187:
	.loc 5 515 0
	stw 0,4116(1)
.LBB1188:
	.loc 5 519 0
	.cfi_offset 65, 4
	bl memset
.LVL40:
	.loc 5 520 0
	li 11,1
	.loc 5 522 0
	li 0,-1
.LVL41:
.L35:
	.loc 5 515 0 discriminator 1
	addi 9,11,64
	addi 10,1,8
	slwi 9,9,2
	add 9,10,9
	.loc 5 522 0 discriminator 1
	li 10,14
	mtctr 10
.LVL42:
.L36:
	.loc 5 522 0 is_stmt 0 discriminator 2
	stb 0,0(9)
	.loc 5 523 0 is_stmt 1 discriminator 2
	stb 0,1(9)
	.loc 5 524 0 discriminator 2
	stb 0,2(9)
	.loc 5 525 0 discriminator 2
	stb 0,3(9)
	.loc 5 521 0 discriminator 2
	addi 9,9,256
	bdnz .L36
.LVL43:
	.loc 5 520 0
	cmpwi 7,11,62
	addi 11,11,1
.LVL44:
	bne+ 7,.L35
	.loc 5 529 0
	mr 3,31
	addi 4,1,8
	li 5,64
	li 6,16
	li 7,2
	li 8,0
	li 9,3
	li 10,4
	bl _ZN7idImage13GenerateImageEPKhii15textureFilter_tb15textureRepeat_t14textureDepth_t
.LVL45:
.LBE1188:
	.loc 5 530 0
	lwz 0,4116(1)
	lwz 31,4108(1)
.LVL46:
	mtlr 0
	addi 1,1,4112
.LCFI21:
	.cfi_def_cfa_offset 0
	.cfi_restore 31
	blr
	.cfi_endproc
.LFE2593:
	.size	_ZL22R_CreateNoFalloffImageP7idImage, .-_ZL22R_CreateNoFalloffImageP7idImage
	.align 2
	.type	_ZL17R_AlphaNotchImageP7idImage, @function
_ZL17R_AlphaNotchImageP7idImage:
.LFB2584:
	.loc 5 414 0
	.cfi_startproc
.LVL47:
	mflr 0
	stwu 1,-24(1)
.LCFI22:
	.cfi_def_cfa_offset 24
	.cfi_register 65, 0
.LBB1189:
	.loc 5 420 0
	li 11,0
	.loc 5 425 0
	li 5,2
	addi 4,1,8
	li 6,1
.LBE1189:
	.loc 5 414 0
	stw 0,28(1)
.LBB1190:
	.loc 5 425 0
	li 7,1
	.loc 5 419 0
	li 0,-1
	.cfi_offset 65, 4
	.loc 5 425 0
	li 8,0
	li 9,1
	li 10,4
	.loc 5 419 0
	stb 0,10(1)
	stb 0,9(1)
	stb 0,8(1)
	.loc 5 421 0
	stb 0,14(1)
	stb 0,13(1)
	stb 0,12(1)
	.loc 5 422 0
	stb 0,15(1)
	.loc 5 420 0
	stb 11,11(1)
	.loc 5 425 0
	bl _ZN7idImage13GenerateImageEPKhii15textureFilter_tb15textureRepeat_t14textureDepth_t
.LVL48:
.LBE1190:
	.loc 5 426 0
	lwz 0,28(1)
	addi 1,1,24
.LCFI23:
	.cfi_def_cfa_offset 0
	mtlr 0
	blr
	.cfi_endproc
.LFE2584:
	.size	_ZL17R_AlphaNotchImageP7idImage, .-_ZL17R_AlphaNotchImageP7idImage
	.align 2
	.type	_ZL11R_RampImageP7idImage, @function
_ZL11R_RampImageP7idImage:
.LFB2573:
	.loc 5 144 0
	.cfi_startproc
.LVL49:
	mflr 0
	stwu 1,-1032(1)
.LCFI24:
	.cfi_def_cfa_offset 1032
	.cfi_register 65, 0
	.loc 5 148 0
	li 11,0
	addi 9,1,11
	.loc 5 144 0
	stw 0,1036(1)
	.loc 5 148 0
	li 0,256
	.cfi_offset 65, 4
	mtctr 0
.LVL50:
.L42:
.LBB1191:
	.loc 5 152 0 discriminator 2
	rlwinm 0,11,0,0xff
	.loc 5 148 0 discriminator 2
	addi 11,11,1
.LVL51:
	.loc 5 152 0 discriminator 2
	stb 0,0(9)
	stb 0,-1(9)
	stb 0,-2(9)
	stb 0,-3(9)
	.loc 5 148 0 discriminator 2
	addi 9,9,4
	bdnz .L42
	.loc 5 156 0
	addi 4,1,8
	li 5,256
	li 6,1
	li 7,1
	li 8,0
	li 9,1
	li 10,4
	bl _ZN7idImage13GenerateImageEPKhii15textureFilter_tb15textureRepeat_t14textureDepth_t
.LVL52:
.LBE1191:
	.loc 5 157 0
	lwz 0,1036(1)
	addi 1,1,1032
.LCFI25:
	.cfi_def_cfa_offset 0
	mtlr 0
	blr
	.cfi_endproc
.LFE2573:
	.size	_ZL11R_RampImageP7idImage, .-_ZL11R_RampImageP7idImage
	.align 2
	.type	_ZL20R_SpecularTableImageP7idImage, @function
_ZL20R_SpecularTableImageP7idImage:
.LFB2574:
	.loc 5 166 0
	.cfi_startproc
.LVL53:
	mflr 0
	stwu 1,-1048(1)
.LCFI26:
	.cfi_def_cfa_offset 1048
	.cfi_register 65, 0
	lis 9,.LC8@ha
.LBB1192:
.LBB1193:
.LBB1194:
	.loc 5 178 0
	lis 8,.LC14@ha
	.loc 5 171 0
	lfs 9,.LC8@l(9)
	lis 9,.LC9@ha
.LBE1194:
.LBE1193:
.LBE1192:
	.loc 5 166 0
	stw 0,1052(1)
.LBB1200:
.LBB1198:
.LBB1195:
	.loc 5 178 0
	li 0,256
	.cfi_offset 65, 4
	.loc 5 171 0
	lfs 13,.LC9@l(9)
	.loc 5 177 0
	lis 9,.LC11@ha
	lfs 10,.LC11@l(9)
	.loc 5 178 0
	mtctr 0
	.loc 5 177 0
	lis 9,.LC13@ha
	.loc 5 178 0
	lfs 12,.LC14@l(8)
	.loc 5 177 0
	lfs 11,.LC13@l(9)
.LBE1195:
.LBE1198:
.LBE1200:
	.loc 5 170 0
	li 11,0
.LBB1201:
.LBB1199:
.LBB1196:
	.loc 5 178 0
	addi 9,1,11
	.loc 5 171 0
	lis 10,0x4330
.LVL54:
.L46:
	xoris 0,11,0x8000
	stw 10,1032(1)
	stw 0,1036(1)
.LBE1196:
	.loc 5 170 0
	addi 11,11,1
.LVL55:
.LBB1197:
	.loc 5 178 0
	li 0,0
.LVL56:
	.loc 5 171 0
	lfd 0,1032(1)
	fsub 0,0,9
	frsp 0,0
	fdivs 0,0,13
	.loc 5 177 0
	fsub 0,0,10
	fmul 0,0,11
	frsp 0,0
.LVL57:
	.loc 5 178 0
	fcmpu 7,0,12
	blt- 7,.L45
	fmuls 0,0,0
.LVL58:
	addi 8,1,1040
	fmuls 0,0,13
	fctiwz 0,0
	stfiwx 0,0,8
	lwz 0,1040(1)
	rlwinm 0,0,0,0xff
.L45:
.LVL59:
	.loc 5 188 0
	stb 0,0(9)
	stb 0,-1(9)
	stb 0,-2(9)
	stb 0,-3(9)
.LBE1197:
	.loc 5 170 0
	addi 9,9,4
	bdnz .L46
.LBE1199:
	.loc 5 192 0
	addi 4,1,8
	li 5,256
	li 6,1
	li 7,0
	li 8,0
	li 9,1
	li 10,4
	bl _ZN7idImage13GenerateImageEPKhii15textureFilter_tb15textureRepeat_t14textureDepth_t
.LVL60:
.LBE1201:
	.loc 5 193 0
	lwz 0,1052(1)
	addi 1,1,1048
.LCFI27:
	.cfi_def_cfa_offset 0
	mtlr 0
	blr
	.cfi_endproc
.LFE2574:
	.size	_ZL20R_SpecularTableImageP7idImage, .-_ZL20R_SpecularTableImageP7idImage
	.align 2
	.type	_ZL18R_BorderClampImageP7idImage, @function
_ZL18R_BorderClampImageP7idImage:
.LFB2581:
	.loc 5 346 0
	.cfi_startproc
.LVL61:
	stwu 1,-4112(1)
.LCFI28:
	.cfi_def_cfa_offset 4112
	mflr 0
.LBB1202:
	.loc 5 350 0
	li 4,255
	li 5,4096
.LBE1202:
	.loc 5 346 0
	stw 31,4108(1)
	mr 31,3
	.cfi_offset 31, -4
	.cfi_register 65, 0
.LBB1205:
	.loc 5 350 0
	addi 3,1,8
.LVL62:
.LBE1205:
	.loc 5 346 0
	stw 0,4116(1)
.LBB1206:
	.loc 5 350 0
	.cfi_offset 65, 4
	bl memset
.LVL63:
.LBB1203:
	.loc 5 370 0
	li 10,32
	mtctr 10
.LBE1203:
	.loc 5 350 0
	addi 11,1,3979
	addi 9,1,135
.LBB1204:
	.loc 5 370 0
	li 0,0
.LVL64:
.L50:
	.loc 5 370 0 is_stmt 0 discriminator 2
	stb 0,0(11)
	stb 0,-1(11)
	stb 0,-2(11)
	stb 0,-3(11)
	stb 0,-3968(11)
	stb 0,-3969(11)
	stb 0,-3970(11)
	stb 0,-3971(11)
	addi 11,11,4
	stb 0,0(9)
	stb 0,-1(9)
	stb 0,-2(9)
	stb 0,-3(9)
	stb 0,-124(9)
	stb 0,-125(9)
	stb 0,-126(9)
	stb 0,-127(9)
	addi 9,9,128
	.loc 5 351 0 is_stmt 1 discriminator 2
	bdnz .L50
.LBE1204:
	.loc 5 374 0
	mr 3,31
	addi 4,1,8
	li 5,32
	li 6,32
	li 7,0
	li 8,0
	li 9,2
	li 10,2
	bl _ZN7idImage13GenerateImageEPKhii15textureFilter_tb15textureRepeat_t14textureDepth_t
.LBE1206:
	.loc 5 386 0
	lwz 0,4116(1)
	lwz 31,4108(1)
.LVL65:
	mtlr 0
	addi 1,1,4112
.LCFI29:
	.cfi_def_cfa_offset 0
	.cfi_restore 31
	blr
	.cfi_endproc
.LFE2581:
	.size	_ZL18R_BorderClampImageP7idImage, .-_ZL18R_BorderClampImageP7idImage
	.align 2
	.type	_ZL12R_BlackImageP7idImage, @function
_ZL12R_BlackImageP7idImage:
.LFB2580:
	.loc 5 334 0
	.cfi_startproc
.LVL66:
	stwu 1,-1040(1)
.LCFI30:
	.cfi_def_cfa_offset 1040
	mflr 0
.LBB1207:
	.loc 5 338 0
	li 5,1024
	li 4,0
.LBE1207:
	.loc 5 334 0
	stw 31,1036(1)
	mr 31,3
	.cfi_offset 31, -4
	.cfi_register 65, 0
.LBB1208:
	.loc 5 338 0
	addi 3,1,8
.LVL67:
.LBE1208:
	.loc 5 334 0
	stw 0,1044(1)
.LBB1209:
	.loc 5 338 0
	.cfi_offset 65, 4
	bl memset
	.loc 5 340 0
	mr 3,31
	addi 4,1,8
	li 5,16
	li 6,16
	li 7,2
	li 8,0
	li 9,0
	li 10,2
	bl _ZN7idImage13GenerateImageEPKhii15textureFilter_tb15textureRepeat_t14textureDepth_t
.LBE1209:
	.loc 5 341 0
	lwz 0,1044(1)
	lwz 31,1036(1)
.LVL68:
	mtlr 0
	addi 1,1,1040
.LCFI31:
	.cfi_def_cfa_offset 0
	.cfi_restore 31
	blr
	.cfi_endproc
.LFE2580:
	.size	_ZL12R_BlackImageP7idImage, .-_ZL12R_BlackImageP7idImage
	.align 2
	.type	_ZL12R_WhiteImageP7idImage, @function
_ZL12R_WhiteImageP7idImage:
.LFB2579:
	.loc 5 324 0
	.cfi_startproc
.LVL69:
	stwu 1,-1040(1)
.LCFI32:
	.cfi_def_cfa_offset 1040
	mflr 0
.LBB1210:
	.loc 5 328 0
	li 5,1024
	li 4,255
.LBE1210:
	.loc 5 324 0
	stw 31,1036(1)
	mr 31,3
	.cfi_offset 31, -4
	.cfi_register 65, 0
.LBB1211:
	.loc 5 328 0
	addi 3,1,8
.LVL70:
.LBE1211:
	.loc 5 324 0
	stw 0,1044(1)
.LBB1212:
	.loc 5 328 0
	.cfi_offset 65, 4
	bl memset
	.loc 5 330 0
	mr 3,31
	addi 4,1,8
	li 5,16
	li 6,16
	li 7,2
	li 8,0
	li 9,0
	li 10,2
	bl _ZN7idImage13GenerateImageEPKhii15textureFilter_tb15textureRepeat_t14textureDepth_t
.LBE1212:
	.loc 5 331 0
	lwz 0,1044(1)
	lwz 31,1036(1)
.LVL71:
	mtlr 0
	addi 1,1,1040
.LCFI33:
	.cfi_def_cfa_offset 0
	.cfi_restore 31
	blr
	.cfi_endproc
.LFE2579:
	.size	_ZL12R_WhiteImageP7idImage, .-_ZL12R_WhiteImageP7idImage
	.align 2
	.globl _Z10R_FogImageP7idImage
	.type	_Z10R_FogImageP7idImage, @function
_Z10R_FogImageP7idImage:
.LFB2594:
	.loc 5 543 0
	.cfi_startproc
.LVL72:
	lis 0,0xfffe
	mr 12,1
	ori 0,0,64456
	.loc 5 550 0
	lis 9,.LC15@ha
	.loc 5 543 0
	stwux 1,1,0
.LCFI34:
	.cfi_def_cfa_offset 66616
	mflr 0
.LBB1213:
	.loc 5 553 0
	lis 11,.LC16@ha
.LBE1213:
	.loc 5 550 0
	lfs 0,.LC15@l(9)
	.loc 5 543 0
	stw 26,-24(12)
	stw 0,4(12)
.LBB1237:
	.loc 5 553 0
	li 0,256
.LBE1237:
	.loc 5 543 0
	stw 27,-20(12)
.LBB1238:
	.loc 5 553 0
	mtctr 0
.LBE1238:
	.loc 5 543 0
	stw 28,-16(12)
	stw 29,-12(12)
	stw 30,-8(12)
	stw 31,-4(12)
.LBB1239:
	.loc 5 553 0
	lfs 13,.LC16@l(11)
	.loc 5 551 0
	addi 11,1,4
.LVL73:
.L55:
	.loc 5 552 0 discriminator 2
	stfsu 0,4(11)
	.loc 5 553 0 discriminator 2
	fmuls 0,0,13
.LVL74:
	.loc 5 551 0 discriminator 2
	bdnz .L55
	.cfi_offset 31, -4
	.cfi_offset 30, -8
	.cfi_offset 29, -12
	.cfi_offset 28, -16
	.cfi_offset 27, -20
	.cfi_offset 26, -24
	.cfi_offset 65, 4
.LBB1214:
.LBB1215:
.LBB1216:
	.loc 5 561 0
	lis 11,.LC8@ha
	addi 30,1,8
	lfs 7,.LC8@l(11)
.LBB1217:
.LBB1218:
.LBB1219:
.LBB1220:
	.file 6 "d:/Data/Nintendo/DoomGX/src/renderer/../idlib/../idlib/math/Math.h"
	.loc 6 275 0
	lis 11,.LC17@ha
	lfs 8,.LC17@l(11)
	.loc 6 278 0
	lis 11,.LC19@ha
	lfs 11,.LC19@l(11)
.LBE1220:
.LBE1219:
.LBE1218:
.LBE1217:
	.loc 5 562 0
	lis 11,.LC20@ha
	lfs 9,.LC20@l(11)
	.loc 5 564 0
	lis 11,.LC9@ha
	lis 27,_ZN6idMath5iSqrtE@ha
	lfs 10,.LC9@l(11)
.LBE1216:
.LBE1215:
.LBE1214:
	.loc 5 551 0
	li 26,0
	la 27,_ZN6idMath5iSqrtE@l(27)
.LBB1234:
.LBB1231:
.LBB1227:
	.loc 5 561 0
	lis 28,0x4330
	addis 8,30,0x1
	.loc 5 576 0
	li 0,-1
.LVL75:
.L56:
.LBE1227:
.LBE1231:
	.loc 5 543 0 discriminator 1
	slwi 11,26,2
	addi 29,26,-64
	addi 11,11,2
	addi 6,1,1032
	mullw 29,29,29
	add 11,6,11
.LBE1234:
.LBE1239:
	li 5,1
	li 10,0
	cmpwi 6,26,0
.LBB1240:
.LBB1235:
.LBB1232:
.LBB1228:
	.loc 5 571 0 discriminator 1
	cmpwi 0,26,127
	b .L62
.LVL76:
.L68:
	.loc 5 571 0 is_stmt 0 discriminator 3
	beq- 1,.L59
	.loc 5 570 0 is_stmt 1
	lfs 12,.LC15@l(9)
	fmr 13,10
	addi 4,31,1040
	fsub 0,12,0
.LVL77:
	fmul 0,0,13
	fctiwz 0,0
	stfiwx 0,0,4
	lwz 4,1040(31)
	.loc 5 571 0
	rlwinm 4,4,0,0xff
.L57:
.LVL78:
.LBE1228:
	.loc 5 557 0
	cmpwi 7,5,128
.LBB1229:
	.loc 5 576 0
	stb 0,0(11)
	stb 0,-1(11)
	stb 0,-2(11)
	.loc 5 577 0
	stb 4,1(11)
.LVL79:
.LBE1229:
	.loc 5 557 0
	beq- 7,.L63
.LVL80:
.L60:
.LBE1232:
.LBE1235:
	.loc 5 551 0
	addi 10,10,1
	addi 5,5,1
	addi 11,11,512
.LVL81:
.L62:
	.loc 5 543 0
	addi 7,10,-64
.LBB1236:
.LBB1233:
.LBB1230:
	.loc 5 561 0
	stw 28,1024(8)
	mullw 6,7,7
	.loc 5 564 0
	addis 4,1,0x1
	addi 7,4,1044
	.loc 5 571 0
	li 4,255
	.loc 5 561 0
	add 6,6,29
	xoris 6,6,0x8000
	stw 6,1028(8)
	addis 6,1,0x1
	lfd 0,1024(8)
	fsub 0,0,7
	frsp 13,0
	stfs 13,1048(6)
.LVL82:
.LBB1226:
.LBB1225:
.LBB1223:
.LBB1221:
	.loc 6 275 0
	fmuls 12,13,8
	.loc 6 270 0
	lwz 6,1048(6)
.LVL83:
	.loc 5 543 0
	fneg 12,12
	.loc 6 276 0
	rlwinm 31,6,9,24,31
	rlwinm 12,6,19,21,29
	lwzx 12,27,12
	subfic 6,31,380
	rlwinm 6,6,22,0,8
	.loc 6 277 0
	addis 31,1,0x1
	.loc 6 276 0
	or 6,6,12
	.loc 6 277 0
	stw 6,1052(31)
	lfs 0,1052(31)
	fmr 13,0
.LVL84:
	.loc 6 278 0
	fmul 0,13,13
.LVL85:
	fmadd 0,12,0,11
	fmul 0,13,0
.LVL86:
	.loc 6 279 0
	fmul 13,0,0
	fmadd 12,12,13,11
.LVL87:
.LBE1221:
.LBE1223:
	.loc 6 303 0
	lfs 13,1048(31)
.LBB1224:
.LBB1222:
	.loc 6 279 0
	fmul 0,0,12
.LVL88:
	.loc 6 280 0
	frsp 0,0
.LVL89:
.LBE1222:
.LBE1224:
	.loc 6 303 0
	fmuls 0,13,0
.LVL90:
.LBE1225:
.LBE1226:
	.loc 5 562 0
	fdivs 0,0,9
.LVL91:
	.loc 5 564 0
	fmuls 0,0,10
	fctiwz 0,0
	stfiwx 0,0,7
	lwz 7,0(7)
.LVL92:
	.loc 5 570 0
	rlwinm 7,7,2,22,29
	lfsx 0,30,7
.LVL93:
	.loc 5 571 0
	beq- 6,.L57
	.loc 5 571 0 is_stmt 0 discriminator 1
	cmpwi 7,10,0
	beq- 0,.L65
	.loc 5 571 0 discriminator 2
	cmpwi 1,10,127
	bne- 7,.L68
.LVL94:
	.loc 5 576 0 is_stmt 1
	stb 0,0(11)
	stb 0,-1(11)
	stb 0,-2(11)
	.loc 5 577 0
	stb 0,1(11)
.LVL95:
	b .L60
.LVL96:
.L65:
	.loc 5 571 0
	li 4,255
	b .L57
.L59:
.LVL97:
	.loc 5 576 0
	addi 11,26,16256
	slwi 11,11,2
	add 11,30,11
	stb 0,1026(11)
	stb 0,1025(11)
	stb 0,1024(11)
	.loc 5 577 0
	stb 0,1027(11)
.LVL98:
.L63:
.LBE1230:
.LBE1233:
	.loc 5 556 0
	cmpwi 7,26,127
	addi 26,26,1
.LVL99:
	bne+ 7,.L56
.LBE1236:
	.loc 5 582 0
	addi 4,1,1032
	li 5,128
	li 6,128
	li 7,0
	li 8,0
	li 9,1
	li 10,4
	bl _ZN7idImage13GenerateImageEPKhii15textureFilter_tb15textureRepeat_t14textureDepth_t
.LVL100:
.LBE1240:
	.loc 5 583 0
	lwz 11,0(1)
	lwz 0,4(11)
	lwz 26,-24(11)
.LVL101:
	mtlr 0
	lwz 27,-20(11)
	lwz 28,-16(11)
	lwz 29,-12(11)
	lwz 30,-8(11)
	lwz 31,-4(11)
	mr 1,11
.LCFI35:
	.cfi_def_cfa_offset 0
	.cfi_restore 31
	.cfi_restore 30
	.cfi_restore 29
	.cfi_restore 28
	.cfi_restore 27
	.cfi_restore 26
	blr
	.cfi_endproc
.LFE2594:
	.size	_Z10R_FogImageP7idImage, .-_Z10R_FogImageP7idImage
	.align 2
	.globl _Z16R_QuadraticImageP7idImage
	.type	_Z16R_QuadraticImageP7idImage, @function
_Z16R_QuadraticImageP7idImage:
.LFB2597:
	.loc 5 703 0
	.cfi_startproc
.LVL102:
.LBB1241:
.LBB1242:
	.loc 5 709 0
	lis 9,.LC8@ha
.LBE1242:
.LBE1241:
	.loc 5 703 0
	mflr 0
.LBB1268:
.LBB1265:
	.loc 5 709 0
	lfs 8,.LC8@l(9)
.LBB1243:
.LBB1244:
.LBB1245:
.LBB1246:
	.loc 6 780 0
	lis 9,.LC24@ha
	lfs 9,.LC24@l(9)
.LBE1246:
.LBE1245:
	.loc 5 715 0
	lis 9,.LC17@ha
	lfs 10,.LC17@l(9)
.LBB1251:
.LBB1247:
	.loc 5 718 0
	lis 9,.LC25@ha
.LBE1247:
.LBE1251:
.LBE1244:
.LBE1243:
.LBE1265:
.LBE1268:
	.loc 5 703 0
	stwu 1,-536(1)
.LCFI36:
	.cfi_def_cfa_offset 536
	.cfi_register 65, 0
	.loc 5 709 0
	li 11,0
.LBB1269:
.LBB1266:
.LBB1260:
.LBB1255:
.LBB1252:
.LBB1248:
	.loc 5 718 0
	lfs 11,.LC25@l(9)
	lis 9,.LC15@ha
	lfs 12,.LC15@l(9)
.LBE1248:
.LBE1252:
	.loc 5 721 0
	lis 9,.LC9@ha
.LBE1255:
.LBE1260:
.LBE1266:
.LBE1269:
	.loc 5 703 0
	stw 0,540(1)
.LBB1270:
.LBB1267:
	.loc 5 709 0
	lis 8,0x4330
.LBB1261:
.LBB1256:
	.loc 5 721 0
	lfs 13,.LC9@l(9)
	.loc 5 730 0
	li 10,-1
.LVL103:
.L70:
.LBE1256:
.LBE1261:
	.loc 5 709 0 discriminator 1
	xoris 0,11,0x8000
	.cfi_offset 65, 4
	stw 8,520(1)
	stw 0,524(1)
.LBB1262:
.LBB1257:
	.loc 5 703 0 discriminator 1
	slwi 9,11,2
	addi 0,1,8
	addi 9,9,2
.LBE1257:
.LBE1262:
	.loc 5 709 0 discriminator 1
	lfd 0,520(1)
.LBB1263:
.LBB1258:
	.loc 5 703 0 discriminator 1
	add 9,0,9
	.loc 5 730 0 discriminator 1
	li 7,4
.LBE1258:
.LBE1263:
	.loc 5 709 0 discriminator 1
	fsub 0,0,8
.LBB1264:
.LBB1259:
	.loc 5 730 0 discriminator 1
	mtctr 7
	.loc 5 721 0 discriminator 1
	addi 7,1,528
.LBB1253:
.LBB1249:
	.loc 6 780 0 discriminator 1
	fsub 0,0,9
	frsp 0,0
	stfs 0,532(1)
	lwz 0,532(1)
	.loc 6 782 0 discriminator 1
	rlwinm 0,0,0,1,31
.LBE1249:
.LBE1253:
	.loc 5 715 0 discriminator 1
	stw 0,532(1)
	lfs 7,532(1)
	fsubs 0,7,10
.LBB1254:
.LBB1250:
	.loc 5 703 0 discriminator 1
	fneg 0,0
	.loc 5 718 0 discriminator 1
	fmadds 0,0,11,12
.LBE1250:
.LBE1254:
	.loc 5 719 0 discriminator 1
	fmuls 0,0,0
	.loc 5 721 0 discriminator 1
	fmuls 0,0,13
	fctiwz 0,0
	stfiwx 0,0,7
	lwz 0,528(1)
	rlwinm 0,0,0,0xff
.LVL104:
.L71:
	.loc 5 729 0
	stb 0,0(9)
	stb 0,-1(9)
	stb 0,-2(9)
	.loc 5 730 0
	stb 10,1(9)
	addi 9,9,128
.LBE1259:
	.loc 5 710 0
	bdnz .L71
.LVL105:
.LBE1264:
	.loc 5 709 0
	cmpwi 7,11,31
	addi 11,11,1
.LVL106:
	bne+ 7,.L70
.LBE1267:
	.loc 5 735 0
	addi 4,1,8
	li 5,32
	li 6,4
	li 7,2
	li 8,0
	li 9,1
	li 10,4
	bl _ZN7idImage13GenerateImageEPKhii15textureFilter_tb15textureRepeat_t14textureDepth_t
.LVL107:
.LBE1270:
	.loc 5 736 0
	lwz 0,540(1)
	addi 1,1,536
.LCFI37:
	.cfi_def_cfa_offset 0
	mtlr 0
	blr
	.cfi_endproc
.LFE2597:
	.size	_Z16R_QuadraticImageP7idImage, .-_Z16R_QuadraticImageP7idImage
	.align 2
	.globl _Z15R_FogEnterImageP7idImage
	.type	_Z15R_FogEnterImageP7idImage, @function
_Z15R_FogEnterImageP7idImage:
.LFB2596:
	.loc 5 664 0
	.cfi_startproc
.LVL108:
	lis 9,.LC8@ha
	stwu 1,-16440(1)
.LCFI38:
	.cfi_def_cfa_offset 16440
.LBB1280:
.LBB1281:
	.loc 5 669 0
	lfs 7,.LC8@l(9)
.LBE1281:
.LBE1280:
	.loc 5 664 0
	mflr 0
.LBB1321:
.LBB1314:
.LBB1282:
.LBB1283:
.LBB1284:
.LBB1285:
	.loc 5 601 0
	lis 9,.LC14@ha
.LBE1285:
.LBE1284:
.LBE1283:
.LBE1282:
.LBE1314:
.LBE1321:
	.loc 5 664 0
	stw 29,16428(1)
.LBB1322:
.LBB1315:
	.loc 5 669 0
	fmr 4,7
.LBB1307:
.LBB1300:
.LBB1294:
.LBB1288:
	.loc 5 601 0
	lfs 12,.LC14@l(9)
.LBE1288:
.LBE1294:
.LBE1300:
.LBE1307:
.LBE1315:
.LBE1322:
	.loc 5 664 0
	stw 0,16444(1)
.LBB1323:
.LBB1316:
	.loc 5 669 0
	lis 7,0x4330
.LBE1316:
.LBE1323:
	.loc 5 664 0
	stw 30,16432(1)
.LBB1324:
.LBB1317:
.LBB1308:
.LBB1301:
.LBB1295:
.LBB1289:
	.loc 5 604 0
	lis 8,.LC26@ha
.LBE1289:
.LBE1295:
.LBE1301:
.LBE1308:
.LBE1317:
.LBE1324:
	.loc 5 664 0
	stw 31,16436(1)
.LBB1325:
.LBB1318:
.LBB1309:
.LBB1302:
	.loc 5 669 0
	li 30,0
	.cfi_offset 31, -4
	.cfi_offset 30, -8
	.cfi_offset 29, -12
	.cfi_offset 65, 4
	.loc 5 675 0
	lis 6,.LC9@ha
.LBB1296:
.LBB1290:
	.loc 5 646 0
	lis 12,.LC28@ha
	.loc 5 647 0
	lis 4,.LC15@ha
	.loc 5 639 0
	lis 5,.LC27@ha
	lis 31,.LC17@ha
.LBE1290:
.LBE1296:
	.loc 5 683 0
	li 0,-1
.LVL109:
.L76:
.LBE1302:
.LBE1309:
	.loc 5 664 0 discriminator 1
	addi 9,30,-32
	.loc 5 669 0 discriminator 1
	stw 7,16400(1)
	xoris 9,9,0x8000
.LBB1310:
.LBB1303:
	.loc 5 683 0 discriminator 1
	li 29,64
.LBE1303:
.LBE1310:
	.loc 5 669 0 discriminator 1
	stw 9,16404(1)
	.loc 5 664 0 discriminator 1
	slwi 9,30,2
	addi 11,1,8
	addi 9,9,2
	.loc 5 669 0 discriminator 1
	lfd 13,16400(1)
.LBB1311:
.LBB1304:
	.loc 5 683 0 discriminator 1
	mtctr 29
.LBE1304:
.LBE1311:
	.loc 5 664 0 discriminator 1
	add 9,11,9
.LBE1318:
.LBE1325:
	li 11,-32
.LBB1326:
.LBB1319:
	.loc 5 669 0 discriminator 1
	fsub 13,13,4
	frsp 13,13
.LBB1312:
.LBB1305:
.LBB1297:
.LBB1291:
	.loc 5 636 0 discriminator 1
	fneg 5,13
.LVL110:
.L91:
.LBE1291:
.LBE1297:
	.loc 5 673 0
	xoris 10,11,0x8000
	stw 7,16392(1)
	stw 10,16396(1)
	lfd 0,16392(1)
	fsub 0,0,7
	frsp 0,0
.LVL111:
.LBB1298:
.LBB1292:
	.loc 5 601 0
	fcmpu 7,0,12
	mfcr 10
	rlwinm 10,10,30,1
	cmpwi 7,10,0
	beq- 7,.L77
	fcmpu 6,13,12
	li 10,0
	bgt- 6,.L78
.L77:
	.loc 5 604 0
	lfs 11,.LC26@l(8)
	fcmpu 6,0,11
	mfcr 10
	rlwinm 10,10,25,1
	cmpwi 6,10,0
	beq- 6,.L79
	fcmpu 1,13,11
	li 10,255
	blt- 1,.L78
.L79:
	.loc 5 609 0
	bne- 7,.L95
	.loc 5 611 0
	fcmpu 1,13,12
	.loc 5 612 0
	fmr 9,13
	.loc 5 611 0
	bgt- 1,.L81
	.loc 5 614 0
	lis 10,.LC14@ha
	lfs 9,.LC14@l(10)
.L81:
.LVL112:
	.loc 5 619 0
	fcmpu 1,0,13
	bnl- 1,.L105
.L107:
	fcmpu 7,13,12
	.loc 5 621 0
	fmr 11,0
	.loc 5 619 0
	mfcr 10
	rlwinm 10,10,30,1
	.loc 5 620 0
	fmr 10,13
	cmpwi 7,10,0
.L84:
.LVL113:
	.loc 5 626 0
	beq- 7,.L85
	.loc 5 627 0
	lis 29,.LC14@ha
	lfs 10,.LC14@l(29)
.LVL114:
.L85:
	.loc 5 629 0
	beq- 6,.L86
	.loc 5 630 0
	lfs 11,.LC26@l(8)
.LVL115:
.L86:
	.loc 5 596 0
	fsubs 6,0,13
	stfs 6,16416(1)
	lwz 10,16416(1)
.LBB1286:
.LBB1287:
	.loc 6 782 0
	rlwinm 29,10,0,1,31
	stw 29,16412(1)
.LVL116:
.LBE1287:
.LBE1286:
	.loc 5 635 0
	lfs 6,16412(1)
	fcmpu 7,6,12
	beq- 7,.L106
.LVL117:
	.loc 5 644 0
	fcmpu 7,0,13
	bng- 7,.L89
	fmr 0,13
.LVL118:
.L89:
	.loc 5 646 0
	lfs 6,.LC28@l(12)
	.loc 5 647 0
	li 10,255
	lfs 8,.LC15@l(4)
	.loc 5 646 0
	fdivs 0,0,6
.LVL119:
	.loc 5 647 0
	fcmpu 7,0,8
	cror 30,29,30
	beq- 7,.L78
	.loc 5 639 0
	lfs 6,.LC27@l(5)
	lfs 3,.LC17@l(31)
	fmuls 2,10,6
	fsubs 10,10,11
.LVL120:
	fmadds 11,11,6,2
.LVL121:
	.loc 5 641 0
	lfs 6,16412(1)
	fsubs 9,6,9
.LVL122:
	.loc 5 639 0
	fmadd 11,11,3,8
	.loc 5 651 0
	fsub 8,8,0
	.loc 5 639 0
	fmul 11,11,10
	frsp 11,11
	.loc 5 641 0
	fsubs 11,9,11
	fdivs 11,11,6
	.loc 5 651 0
	fmadd 0,11,8,0
.LVL123:
	frsp 0,0
.LVL124:
.L88:
.LBE1292:
.LBE1298:
	.loc 5 675 0
	lfs 11,.LC9@l(6)
	addi 10,1,16408
	fmuls 0,0,11
	fctiwz 0,0
	stfiwx 0,0,10
	lwz 10,16408(1)
	rlwinm 10,10,0,0xff
.LVL125:
.L78:
	.loc 5 683 0
	stb 0,0(9)
	.loc 5 684 0
	addi 11,11,1
	.loc 5 683 0
	stb 0,-1(9)
	stb 0,-2(9)
	.loc 5 684 0
	stb 10,1(9)
	addi 9,9,256
.LBE1305:
	.loc 5 670 0
	bdnz .L91
.LVL126:
.LBE1312:
	.loc 5 669 0
	cmpwi 7,30,63
	addi 30,30,1
.LVL127:
	bne+ 7,.L76
.LBE1319:
	.loc 5 690 0
	addi 4,1,8
	li 5,64
	li 6,64
	li 7,0
	li 8,0
	li 9,1
	li 10,4
	bl _ZN7idImage13GenerateImageEPKhii15textureFilter_tb15textureRepeat_t14textureDepth_t
.LVL128:
.LBE1326:
	.loc 5 691 0
	lwz 0,16444(1)
	lwz 29,16428(1)
	mtlr 0
	lwz 30,16432(1)
.LVL129:
	lwz 31,16436(1)
	addi 1,1,16440
	.cfi_remember_state
.LCFI39:
	.cfi_def_cfa_offset 0
	.cfi_restore 31
	.cfi_restore 30
	.cfi_restore 29
	blr
.LVL130:
.L95:
.LCFI40:
	.cfi_restore_state
.LBB1327:
.LBB1320:
.LBB1313:
.LBB1306:
.LBB1299:
.LBB1293:
	.loc 5 619 0
	fcmpu 1,0,13
	.loc 5 610 0
	fmr 9,0
.LVL131:
	.loc 5 619 0
	blt- 1,.L107
.LVL132:
.L105:
	lfs 10,.LC26@l(8)
	.loc 5 624 0
	fmr 11,13
	.loc 5 619 0
	fcmpu 6,13,10
	.loc 5 623 0
	fmr 10,0
	.loc 5 619 0
	mfcr 10
	rlwinm 10,10,25,1
	cmpwi 6,10,0
	b .L84
.LVL133:
.L106:
	.loc 5 636 0
	lfs 0,.LC27@l(5)
.LVL134:
	fmuls 0,5,0
	b .L88
.LBE1293:
.LBE1299:
.LBE1306:
.LBE1313:
.LBE1320:
.LBE1327:
	.cfi_endproc
.LFE2596:
	.size	_Z15R_FogEnterImageP7idImage, .-_Z15R_FogEnterImageP7idImage
	.align 2
	.type	_ZL17R_FlatNormalImageP7idImage, @function
_ZL17R_FlatNormalImageP7idImage:
.LFB2585:
	.loc 5 428 0
	.cfi_startproc
.LVL135:
	mflr 0
	stwu 1,-1032(1)
.LCFI41:
	.cfi_def_cfa_offset 1032
	.cfi_register 65, 0
.LBB1328:
.LBB1329:
.LBB1330:
	.loc 5 432 0
	lis 9,.LANCHOR1+44@ha
.LBE1330:
.LBE1329:
	li 8,3
.LBB1332:
.LBB1331:
	.loc 2 143 0
	lwz 9,.LANCHOR1+44@l(9)
.LBE1331:
.LBE1332:
	.loc 5 433 0
	li 10,0
.LBE1328:
	.loc 5 428 0
	stw 0,1036(1)
.LBB1333:
	.loc 5 432 0
	lwz 0,36(9)
	.cfi_offset 65, 4
	cmpwi 7,0,1
	beq- 7,.L113
.L109:
.LVL136:
	.loc 5 438 0 discriminator 3
	li 7,4
	.loc 5 432 0 discriminator 3
	addi 9,1,8
	.loc 5 438 0 discriminator 3
	mtctr 7
	.loc 5 436 0 discriminator 3
	li 11,-128
	.loc 5 438 0 discriminator 3
	li 0,-1
.LVL137:
.L110:
	.loc 5 436 0 discriminator 2
	stbx 11,9,8
	.loc 5 437 0 discriminator 2
	stb 11,1(9)
	.loc 5 438 0 discriminator 2
	stb 0,2(9)
	.loc 5 439 0 discriminator 2
	stbx 0,9,10
	addi 9,9,4
	.loc 5 435 0 discriminator 2
	bdnz .L110
	.loc 5 442 0
	addi 4,1,8
	li 5,2
	li 6,2
	li 7,2
	li 8,1
	li 9,0
	li 10,4
.LVL138:
	bl _ZN7idImage13GenerateImageEPKhii15textureFilter_tb15textureRepeat_t14textureDepth_t
.LVL139:
.LBE1333:
	.loc 5 443 0
	lwz 0,1036(1)
	addi 1,1,1032
	.cfi_remember_state
.LCFI42:
	.cfi_def_cfa_offset 0
	mtlr 0
	blr
.LVL140:
.L113:
.LCFI43:
	.cfi_restore_state
.LBB1334:
	.loc 5 432 0
	li 8,0
	.loc 5 433 0
	li 10,3
	b .L109
.LBE1334:
	.cfi_endproc
.LFE2585:
	.size	_ZL17R_FlatNormalImageP7idImage, .-_ZL17R_FlatNormalImageP7idImage
	.align 2
	.type	_ZL22R_Specular2DTableImageP7idImage, @function
_ZL22R_Specular2DTableImageP7idImage:
.LFB2575:
	.loc 5 203 0
	.cfi_startproc
.LVL141:
	lis 0,0xfffb
	mr 12,1
	ori 0,0,65448
.LBB1335:
	.loc 5 207 0
	li 4,0
.LBE1335:
	.loc 5 203 0
	stwux 1,1,0
.LCFI44:
	.cfi_def_cfa_offset 262232
	mflr 0
.LBB1346:
	.loc 5 207 0
	lis 5,0x4
.LBE1346:
	.loc 5 203 0
	stfd 29,-24(12)
	stfd 30,-16(12)
	stw 24,-56(12)
.LBB1347:
	.loc 5 208 0
	li 24,0
	.cfi_offset 24, -56
	.cfi_offset 62, -16
	.cfi_offset 61, -24
	.cfi_register 65, 0
.LBE1347:
	.loc 5 203 0
	stw 25,-52(12)
	lis 25,.LC8@ha
	.cfi_offset 25, -52
	stw 26,-48(12)
	lis 26,.LC9@ha
	.cfi_offset 26, -48
	stw 27,-44(12)
	la 25,.LC8@l(25)
	stw 28,-40(12)
	la 26,.LC9@l(26)
	stw 31,-28(12)
	mr 31,3
	.cfi_offset 31, -28
	.cfi_offset 28, -40
	.cfi_offset 27, -44
	stw 0,4(12)
.LBB1348:
	.loc 5 207 0
	addi 3,1,8
.LVL142:
.LBE1348:
	.loc 5 203 0
	stfd 31,-8(12)
.LBB1349:
.LBB1336:
.LBB1337:
	.loc 5 209 0
	lis 27,0x4330
.LBE1337:
.LBE1336:
.LBE1349:
	.loc 5 203 0
	stw 29,-36(12)
	stw 30,-32(12)
.LBB1350:
	.loc 5 207 0
	.cfi_offset 30, -32
	.cfi_offset 29, -36
	.cfi_offset 63, -8
	.cfi_offset 65, 4
	bl memset
.LVL143:
.LBB1344:
.LBB1342:
	.loc 5 209 0
	addi 9,1,8
	lfs 29,0(25)
	addis 28,9,0x4
	lfs 30,0(26)
.LVL144:
.L118:
	xoris 0,24,0x8000
	stw 27,0(28)
	stw 0,4(28)
	.loc 5 203 0
	slwi 30,24,2
	addi 30,30,3
	addi 11,1,8
	.loc 5 209 0
	lfd 31,0(28)
	.loc 5 203 0
	add 30,11,30
.LBE1342:
.LBE1344:
	.loc 5 210 0
	li 29,0
	.loc 5 212 0
	li 0,255
.LBB1345:
.LBB1343:
	.loc 5 209 0
	fsub 31,31,29
	frsp 31,31
	fdivs 31,31,30
.LVL145:
.L115:
.LBB1338:
	.loc 5 210 0
	cmpwi 7,29,255
.LBB1339:
	.loc 5 222 0
	rlwinm 0,0,0,0xff
.LBE1339:
	.loc 5 210 0
	addi 29,29,1
.LVL146:
.LBB1340:
	.loc 5 222 0
	stb 0,0(30)
	stb 0,-1(30)
	stb 0,-2(30)
	stb 0,-3(30)
	.loc 5 212 0
	xoris 0,29,0x8000
.LBE1340:
	.loc 5 210 0
	beq- 7,.L116
.LBB1341:
	.loc 5 212 0
	stw 0,12(28)
	fmr 1,31
	stw 27,8(28)
	addi 30,30,1024
	lfs 0,0(25)
	lfd 2,8(28)
	fsub 2,2,0
	bl pow
	lfs 0,0(26)
	addis 11,1,0x4
	fmul 0,1,0
	addi 9,11,24
	fctiwz 0,0
	stfiwx 0,0,9
	lwz 0,24(11)
.LVL147:
	.loc 5 213 0
	cmpwi 7,0,0
	bne+ 7,.L115
.LVL148:
.L116:
.LBE1341:
.LBE1338:
.LBE1343:
	.loc 5 208 0
	cmpwi 7,24,255
	addi 24,24,1
.LVL149:
	bne+ 7,.L118
.LBE1345:
	.loc 5 226 0
	mr 3,31
	addi 4,1,8
	li 5,256
	li 6,256
	li 7,0
	li 8,0
	li 9,1
	li 10,4
	bl _ZN7idImage13GenerateImageEPKhii15textureFilter_tb15textureRepeat_t14textureDepth_t
.LBE1350:
	.loc 5 227 0
	lwz 11,0(1)
	lwz 0,4(11)
	lwz 24,-56(11)
.LVL150:
	mtlr 0
	lwz 25,-52(11)
	lwz 26,-48(11)
	lwz 27,-44(11)
	lwz 28,-40(11)
	lwz 29,-36(11)
.LVL151:
	lwz 30,-32(11)
	lwz 31,-28(11)
.LVL152:
	lfd 29,-24(11)
	lfd 30,-16(11)
	lfd 31,-8(11)
.LVL153:
	mr 1,11
.LCFI45:
	.cfi_def_cfa_offset 0
	.cfi_restore 63
	.cfi_restore 62
	.cfi_restore 61
	.cfi_restore 31
	.cfi_restore 30
	.cfi_restore 29
	.cfi_restore 28
	.cfi_restore 27
	.cfi_restore 26
	.cfi_restore 25
	.cfi_restore 24
	blr
	.cfi_endproc
.LFE2575:
	.size	_ZL22R_Specular2DTableImageP7idImage, .-_ZL22R_Specular2DTableImageP7idImage
	.align 2
	.type	_ZL17R_QsortImageSizesPKvS0_, @function
_ZL17R_QsortImageSizesPKvS0_:
.LFB2601:
	.loc 5 935 0
	.cfi_startproc
.LVL154:
	mflr 0
	stwu 1,-8(1)
.LCFI46:
	.cfi_def_cfa_offset 8
	.cfi_register 65, 0
	mr 9,3
.LVL155:
	stw 0,12(1)
.LBB1357:
	.loc 5 941 0
	lwz 11,4(3)
	.loc 5 942 0
	li 3,-1
.LVL156:
	.loc 5 941 0
	lwz 0,4(4)
	.cfi_offset 65, 4
	cmpw 7,11,0
	bgt- 7,.L121
.LVL157:
	.loc 5 944 0
	bge- 7,.L124
	.loc 5 945 0
	li 3,1
.LVL158:
.L121:
.LBE1357:
	.loc 5 948 0
	lwz 0,12(1)
	addi 1,1,8
	.cfi_remember_state
.LCFI47:
	.cfi_def_cfa_offset 0
	mtlr 0
	blr
.LVL159:
.L124:
.LCFI48:
	.cfi_restore_state
.LBB1358:
.LBB1359:
.LBB1360:
	.loc 5 1760 0
	lwz 11,0(9)
.LBE1360:
.LBB1361:
	lwz 9,0(4)
.LVL160:
.LBE1361:
	.loc 5 947 0
	lwz 3,1132(11)
	lwz 4,1132(9)
.LVL161:
	bl _ZN5idStr4IcmpEPKcS1_
.LVL162:
.LBE1359:
.LBE1358:
	.loc 5 948 0
	lwz 0,12(1)
	addi 1,1,8
.LCFI49:
	.cfi_def_cfa_offset 0
	mtlr 0
	blr
	.cfi_endproc
.LFE2601:
	.size	_ZL17R_QsortImageSizesPKvS0_, .-_ZL17R_QsortImageSizesPKvS0_
	.section	.text._ZN14idFixedWindingD2Ev,"axG",@progbits,_ZN14idFixedWindingD5Ev,comdat
	.align 2
	.weak	_ZN14idFixedWindingD2Ev
	.type	_ZN14idFixedWindingD2Ev, @function
_ZN14idFixedWindingD2Ev:
.LFB1498:
	.loc 1 380 0
	.cfi_startproc
.LVL163:
.LBB1367:
	.loc 1 381 0
	li 0,0
.LBB1368:
.LBB1369:
.LBB1370:
	.loc 1 183 0
	lis 9,_ZTV9idWinding+8@ha
.LBE1370:
.LBE1369:
.LBE1368:
	.loc 1 381 0
	stw 0,8(3)
.LVL164:
.LBB1373:
.LBB1372:
.LBB1371:
	.loc 1 183 0
	la 0,_ZTV9idWinding+8@l(9)
	stw 0,0(3)
.LBE1371:
.LBE1372:
.LBE1373:
.LBE1367:
	.loc 1 382 0
	blr
	.cfi_endproc
.LFE1498:
	.size	_ZN14idFixedWindingD2Ev, .-_ZN14idFixedWindingD2Ev
	.section	.text._ZN9idWindingD0Ev,"axG",@progbits,_ZN9idWindingD5Ev,comdat
	.align 2
	.weak	_ZN9idWindingD0Ev
	.type	_ZN9idWindingD0Ev, @function
_ZN9idWindingD0Ev:
.LFB1463:
	.loc 1 183 0
	.cfi_startproc
.LVL165:
	mflr 0
	stwu 1,-16(1)
.LCFI50:
	.cfi_def_cfa_offset 16
	.cfi_register 65, 0
.LBB1377:
.LBB1378:
.LBB1379:
	lis 9,_ZTV9idWinding+8@ha
.LBE1379:
.LBE1378:
.LBE1377:
	stw 31,12(1)
	mr 31,3
	.cfi_offset 31, -4
.LVL166:
	stw 0,20(1)
.LBB1384:
.LBB1382:
.LBB1380:
	.loc 1 183 0
	la 0,_ZTV9idWinding+8@l(9)
	.cfi_offset 65, 4
	.loc 1 184 0
	lwz 3,8(3)
.LVL167:
	.loc 1 183 0
	stw 0,0(31)
	.loc 1 184 0
	cmpwi 7,3,0
	beq- 7,.L129
	bl _ZdaPv
.LVL168:
.L129:
	.loc 1 185 0
	li 0,0
.LBE1380:
.LBE1382:
.LBE1384:
	.loc 1 186 0
	mr 3,31
.LBB1385:
.LBB1383:
.LBB1381:
	.loc 1 185 0
	stw 0,8(31)
.LBE1381:
.LBE1383:
.LBE1385:
	.loc 1 186 0
	bl _ZdlPv
	lwz 0,20(1)
	lwz 31,12(1)
.LVL169:
	mtlr 0
	addi 1,1,16
.LCFI51:
	.cfi_def_cfa_offset 0
	.cfi_restore 31
	blr
	.cfi_endproc
.LFE1463:
	.size	_ZN9idWindingD0Ev, .-_ZN9idWindingD0Ev
	.section	.text._ZN14idFixedWindingD0Ev,"axG",@progbits,_ZN14idFixedWindingD5Ev,comdat
	.align 2
	.weak	_ZN14idFixedWindingD0Ev
	.type	_ZN14idFixedWindingD0Ev, @function
_ZN14idFixedWindingD0Ev:
.LFB1500:
	.loc 1 380 0
	.cfi_startproc
.LVL170:
	mflr 0
	stwu 1,-8(1)
.LCFI52:
	.cfi_def_cfa_offset 8
	.cfi_register 65, 0
.LBB1392:
.LBB1393:
.LBB1394:
.LBB1395:
.LBB1396:
.LBB1397:
	.loc 1 183 0
	lis 11,_ZTV9idWinding+8@ha
.LBE1397:
.LBE1396:
.LBE1395:
.LBE1394:
.LBE1393:
.LBE1392:
	.loc 1 380 0
	stw 0,12(1)
.LBB1403:
.LBB1402:
.LBB1401:
	.loc 1 381 0
	li 0,0
	.cfi_offset 65, 4
	stw 0,8(3)
.LVL171:
.LBB1400:
.LBB1399:
.LBB1398:
	.loc 1 183 0
	la 0,_ZTV9idWinding+8@l(11)
	stw 0,0(3)
.LBE1398:
.LBE1399:
.LBE1400:
.LBE1401:
.LBE1402:
.LBE1403:
	.loc 1 382 0
	bl _ZdlPv
.LVL172:
	lwz 0,12(1)
	addi 1,1,8
.LCFI53:
	.cfi_def_cfa_offset 0
	mtlr 0
	blr
	.cfi_endproc
.LFE1500:
	.size	_ZN14idFixedWindingD0Ev, .-_ZN14idFixedWindingD0Ev
	.section	.text._ZN6idCVarC2EPKcS1_iS1_PFvRK9idCmdArgsPFvS1_EE,"axG",@progbits,_ZN6idCVarC5EPKcS1_iS1_PFvRK9idCmdArgsPFvS1_EE,comdat
	.align 2
	.weak	_ZN6idCVarC2EPKcS1_iS1_PFvRK9idCmdArgsPFvS1_EE
	.type	_ZN6idCVarC2EPKcS1_iS1_PFvRK9idCmdArgsPFvS1_EE, @function
_ZN6idCVarC2EPKcS1_iS1_PFvRK9idCmdArgsPFvS1_EE:
.LFB2202:
	.loc 2 181 0
	.cfi_startproc
.LVL173:
	mflr 0
.LBB1414:
	.loc 2 183 0
	cmpwi 0,8,0
.LBE1414:
	.loc 2 181 0
	stwu 1,-8(1)
.LCFI54:
	.cfi_def_cfa_offset 8
	.cfi_register 65, 0
.LBB1417:
	.loc 2 182 0
	lis 9,_ZTV6idCVar+8@ha
.LBE1417:
	.loc 2 181 0
	stw 0,12(1)
.LBB1418:
	.loc 2 182 0
	la 0,_ZTV6idCVar+8@l(9)
	.cfi_offset 65, 4
	stw 0,0(3)
	.loc 2 183 0
	beq- 0,.L140
.LVL174:
.L137:
.LBB1415:
.LBB1416:
	.loc 2 292 0
	lis 9,_ZN6idCVar10staticVarsE@ha
	.loc 2 285 0
	lis 10,.LC15@ha
	.loc 2 292 0
	lwz 11,_ZN6idCVar10staticVarsE@l(9)
	.loc 2 287 0
	li 0,0
	.loc 2 285 0
	lwz 10,.LC15@l(10)
	.loc 2 284 0
	ori 6,6,4096
.LVL175:
	.loc 2 292 0
	cmpwi 7,11,-1
	.loc 2 287 0
	stw 0,28(3)
	.loc 2 285 0
	stw 10,20(3)
	.loc 2 286 0
	lis 10,.LC30@ha
	lwz 10,.LC30@l(10)
	.loc 2 289 0
	stw 0,36(3)
	.loc 2 290 0
	li 0,0
	.loc 2 280 0
	stw 4,4(3)
	.loc 2 281 0
	stw 5,8(3)
	.loc 2 283 0
	stw 7,12(3)
	.loc 2 284 0
	stw 6,16(3)
	.loc 2 286 0
	stw 10,24(3)
	.loc 2 288 0
	stw 8,32(3)
	.loc 2 290 0
	stw 0,40(3)
	.loc 2 291 0
	stw 3,44(3)
	.loc 2 292 0
	beq- 7,.L138
.LVL176:
	.loc 2 293 0
	stw 11,48(3)
	.loc 2 294 0
	stw 3,_ZN6idCVar10staticVarsE@l(9)
.LBE1416:
.LBE1415:
.LBE1418:
	.loc 2 187 0
	lwz 0,12(1)
	addi 1,1,8
	.cfi_remember_state
.LCFI55:
	.cfi_def_cfa_offset 0
	mtlr 0
	blr
.LVL177:
.L140:
.LCFI56:
	.cfi_restore_state
.LBB1419:
	.loc 2 183 0 discriminator 1
	andi. 0,6,1
	beq- 0,.L137
	.loc 2 184 0
	lis 8,_ZN11idCmdSystem21ArgCompletion_BooleanERK9idCmdArgsPFvPKcE@ha
.LVL178:
	la 8,_ZN11idCmdSystem21ArgCompletion_BooleanERK9idCmdArgsPFvPKcE@l(8)
	b .L137
.LVL179:
.L138:
.LBE1419:
.LBB1420:
.LBB1421:
.LBB1422:
.LBB1423:
.LBB1424:
	.loc 2 296 0
	lis 9,cvarSystem@ha
	mr 4,3
.LVL180:
	lwz 11,cvarSystem@l(9)
	lwz 9,0(11)
	mr 3,11
.LVL181:
	lwz 0,20(9)
	mtctr 0
	bctrl
.LVL182:
.LBE1424:
.LBE1423:
.LBE1422:
.LBE1421:
.LBE1420:
	.loc 2 187 0
	lwz 0,12(1)
	addi 1,1,8
.LCFI57:
	.cfi_def_cfa_offset 0
	mtlr 0
	blr
	.cfi_endproc
.LFE2202:
	.size	_ZN6idCVarC2EPKcS1_iS1_PFvRK9idCmdArgsPFvS1_EE, .-_ZN6idCVarC2EPKcS1_iS1_PFvRK9idCmdArgsPFvS1_EE
	.section	".text"
	.align 2
	.globl _ZN7idImage11MakeDefaultEv
	.type	_ZN7idImage11MakeDefaultEv, @function
_ZN7idImage11MakeDefaultEv:
.LFB2577:
	.loc 5 263 0
	.cfi_startproc
.LVL183:
	mflr 0
	stwu 1,-1040(1)
.LCFI58:
	.cfi_def_cfa_offset 1040
	.cfi_register 65, 0
.LBB1425:
.LBB1426:
.LBB1427:
	.loc 5 267 0
	lis 9,com_developer+44@ha
.LBE1427:
.LBE1426:
	li 10,0
.LBE1425:
	.loc 5 263 0
	stw 31,1036(1)
.LBB1430:
	.loc 5 274 0
	li 11,-1
.LBE1430:
	.loc 5 263 0
	stw 0,1044(1)
	.loc 5 263 0
	mr 31,3
	.cfi_offset 65, 4
	.cfi_offset 31, -4
.LBB1431:
.LBB1429:
.LBB1428:
	.loc 2 142 0
	lwz 9,com_developer+44@l(9)
.LBE1428:
.LBE1429:
	.loc 5 267 0
	lwz 0,36(9)
	cmpwi 7,0,0
	.loc 5 271 0
	li 0,32
	.loc 5 267 0
	bne- 7,.L155
	li 11,0
	.loc 5 303 0
	li 0,0
.L143:
.LVL184:
	.loc 5 303 0 is_stmt 0 discriminator 1
	li 10,16
	.loc 5 263 0 is_stmt 1 discriminator 1
	slwi 9,11,6
	addi 8,1,8
	.loc 5 303 0 discriminator 1
	mtctr 10
	.loc 5 263 0 discriminator 1
	add 9,8,9
.LVL185:
.L148:
	.loc 5 303 0 discriminator 2
	stb 0,0(9)
	.loc 5 304 0 discriminator 2
	stb 0,1(9)
	.loc 5 305 0 discriminator 2
	stb 0,2(9)
	.loc 5 306 0 discriminator 2
	stb 0,3(9)
	addi 9,9,4
	.loc 5 302 0 discriminator 2
	bdnz .L148
.LVL186:
	.loc 5 301 0
	cmpwi 7,11,15
	addi 11,11,1
.LVL187:
	bne+ 7,.L143
	.loc 5 313 0
	mr 3,31
.LVL188:
	addi 4,1,8
	li 5,16
	li 6,16
	li 7,2
	li 8,1
	li 9,0
	li 10,2
	bl _ZN7idImage13GenerateImageEPKhii15textureFilter_tb15textureRepeat_t14textureDepth_t
.LVL189:
	.loc 5 315 0
	li 0,1
	stb 0,1187(31)
.LBE1431:
	.loc 5 316 0
	lwz 0,1044(1)
	lwz 31,1036(1)
.LVL190:
	mtlr 0
	addi 1,1,1040
	.cfi_remember_state
.LCFI59:
	.cfi_def_cfa_offset 0
	.cfi_restore 31
	blr
.LVL191:
.L157:
.LCFI60:
	.cfi_restore_state
.LBB1432:
	.loc 5 269 0
	cmpwi 7,10,15
	addi 10,10,1
.LVL192:
	beq- 7,.L145
.LVL193:
.L155:
	.loc 5 263 0 discriminator 1
	addi 8,1,8
	slwi 9,10,6
	add 9,8,9
	.loc 5 274 0 discriminator 1
	li 8,16
	mtctr 8
.LVL194:
.L144:
	.loc 5 271 0 discriminator 2
	stb 0,0(9)
	.loc 5 272 0 discriminator 2
	stb 0,1(9)
	.loc 5 273 0 discriminator 2
	stb 0,2(9)
	.loc 5 274 0 discriminator 2
	stb 11,3(9)
	addi 9,9,4
	.loc 5 270 0 discriminator 2
	bdnz .L144
	b .L157
.LVL195:
.L145:
	.loc 5 283 0
	li 10,16
.LVL196:
	.loc 5 269 0
	addi 9,1,11
	.loc 5 283 0
	mtctr 10
	.loc 5 263 0
	mr 11,9
	.loc 5 283 0
	li 0,-1
.L146:
	.loc 5 283 0 is_stmt 0 discriminator 2
	stb 0,0(11)
	stb 0,-1(11)
	stb 0,-2(11)
	stb 0,-3(11)
	.loc 5 288 0 is_stmt 1 discriminator 2
	stb 0,0(9)
	stb 0,-1(9)
	stb 0,-2(9)
	stb 0,-3(9)
	.loc 5 293 0 discriminator 2
	stb 0,960(11)
	stb 0,959(11)
	stb 0,958(11)
	stb 0,957(11)
	.loc 5 298 0 discriminator 2
	addi 11,11,4
	stb 0,60(9)
	stb 0,59(9)
	stb 0,58(9)
	stb 0,57(9)
	addi 9,9,64
	.loc 5 279 0 discriminator 2
	bdnz .L146
	.loc 5 313 0
	mr 3,31
.LVL197:
	addi 4,1,8
	li 5,16
	li 6,16
	li 7,2
	li 8,1
	li 9,0
	li 10,2
	bl _ZN7idImage13GenerateImageEPKhii15textureFilter_tb15textureRepeat_t14textureDepth_t
	.loc 5 315 0
	li 0,1
	stb 0,1187(31)
.LBE1432:
	.loc 5 316 0
	lwz 0,1044(1)
	lwz 31,1036(1)
.LVL198:
	mtlr 0
	addi 1,1,1040
	.cfi_restore 31
.LCFI61:
	.cfi_def_cfa_offset 0
	blr
	.cfi_endproc
.LFE2577:
	.size	_ZN7idImage11MakeDefaultEv, .-_ZN7idImage11MakeDefaultEv
	.align 2
	.type	_ZL14R_DefaultImageP7idImage, @function
_ZL14R_DefaultImageP7idImage:
.LFB2578:
	.loc 5 319 0
	.cfi_startproc
.LVL199:
	.loc 5 321 0
	.loc 5 320 0
	b _ZN7idImage11MakeDefaultEv
.LVL200:
	.cfi_endproc
.LFE2578:
	.size	_ZL14R_DefaultImageP7idImage, .-_ZL14R_DefaultImageP7idImage
	.align 2
	.globl _Z17CreatePitFogImagev
	.type	_Z17CreatePitFogImagev, @function
_Z17CreatePitFogImagev:
.LFB2589:
	.loc 5 468 0
	.cfi_startproc
	mflr 0
	stwu 1,-8(1)
.LCFI62:
	.cfi_def_cfa_offset 8
	.cfi_register 65, 0
	.loc 5 469 0
	lis 3,.LC31@ha
	la 3,.LC31@l(3)
	.loc 5 468 0
	stw 0,12(1)
	.loc 5 469 0
	.cfi_offset 65, 4
	crxor 6,6,6
	bl _Z10Sys_PrintfPKcz
	.loc 5 470 0
	lwz 0,12(1)
	addi 1,1,8
.LCFI63:
	.cfi_def_cfa_offset 0
	mtlr 0
	blr
	.cfi_endproc
.LFE2589:
	.size	_Z17CreatePitFogImagev, .-_Z17CreatePitFogImagev
	.align 2
	.globl _Z22CreatealphaSquareImagev
	.type	_Z22CreatealphaSquareImagev, @function
_Z22CreatealphaSquareImagev:
.LFB2590:
	.loc 5 478 0
	.cfi_startproc
	mflr 0
	stwu 1,-8(1)
.LCFI64:
	.cfi_def_cfa_offset 8
	.cfi_register 65, 0
	.loc 5 479 0
	lis 3,.LC32@ha
	la 3,.LC32@l(3)
	.loc 5 478 0
	stw 0,12(1)
	.loc 5 479 0
	.cfi_offset 65, 4
	crxor 6,6,6
	bl _Z10Sys_PrintfPKcz
	.loc 5 480 0
	lwz 0,12(1)
	addi 1,1,8
.LCFI65:
	.cfi_def_cfa_offset 0
	mtlr 0
	blr
	.cfi_endproc
.LFE2590:
	.size	_Z22CreatealphaSquareImagev, .-_Z22CreatealphaSquareImagev
	.align 2
	.globl _ZN14idImageManager19ChangeTextureFilterEv
	.type	_ZN14idImageManager19ChangeTextureFilterEv, @function
_ZN14idImageManager19ChangeTextureFilterEv:
.LFB2598:
	.loc 5 757 0
	.cfi_startproc
.LVL201:
	mflr 0
	stwu 1,-48(1)
.LCFI66:
	.cfi_def_cfa_offset 48
	.cfi_register 65, 0
	stw 26,24(1)
	stw 27,28(1)
.LBB1433:
.LBB1434:
.LBB1435:
	.loc 5 776 0
	li 27,0
	.cfi_offset 27, -20
	.cfi_offset 26, -24
.LBE1435:
.LBE1434:
.LBE1433:
	.loc 5 757 0
	stw 28,32(1)
.LBB1471:
.LBB1440:
	.loc 5 771 0
	lis 28,.LANCHOR1@ha
	.cfi_offset 28, -16
.LBE1440:
.LBE1471:
	.loc 5 757 0
	stw 29,36(1)
.LBB1472:
.LBB1443:
	.loc 5 771 0
	la 28,.LANCHOR1@l(28)
.LBE1443:
.LBE1472:
	.loc 5 757 0
	stw 30,40(1)
.LBB1473:
.LBB1444:
	.loc 5 771 0
	addi 9,28,52
.LBE1444:
.LBE1473:
	.loc 5 757 0
	stw 31,44(1)
.LBB1474:
.LBB1445:
.LBB1446:
	.loc 5 772 0
	addi 31,28,104
	.cfi_offset 31, -4
	.cfi_offset 30, -8
	.cfi_offset 29, -12
.LBE1446:
.LBE1445:
.LBE1474:
	.loc 5 757 0
	stw 0,52(1)
.LBB1475:
.LBB1448:
.LBB1436:
	.loc 2 141 0
	lis 29,.LANCHOR2@ha
.LBE1436:
.LBE1448:
.LBE1475:
	.loc 5 757 0
	stw 25,20(1)
.LBB1476:
.LBB1449:
.LBB1437:
	.loc 2 141 0
	la 29,.LANCHOR2@l(29)
.LBE1437:
.LBE1449:
.LBE1476:
	.loc 5 757 0
	mr 30,3
.LBB1477:
.LBB1450:
.LBB1438:
	.loc 2 141 0
	mr 26,29
.LBE1438:
.LBE1450:
.LBB1451:
	.loc 5 771 0
	lwz 11,96(28)
.LBE1451:
.LBB1452:
.LBB1453:
	.loc 5 773 0
	addi 28,28,156
.LBE1453:
.LBE1452:
.LBB1455:
.LBB1447:
	.loc 2 139 0
	lwz 0,16(11)
	.cfi_offset 25, -28
	.cfi_offset 65, 4
	rlwinm 0,0,0,14,12
	stw 0,16(11)
	.loc 5 772 0
	lwz 11,44(31)
.LBE1447:
.LBE1455:
.LBB1456:
.LBB1454:
	.loc 2 139 0
	lwz 0,16(11)
	rlwinm 0,0,0,14,12
	stw 0,16(11)
	.loc 5 773 0
	lwz 11,44(28)
.LBE1454:
.LBE1456:
.LBB1457:
.LBB1458:
	.loc 2 139 0
	lwz 0,16(11)
	rlwinm 0,0,0,14,12
	stw 0,16(11)
.LBE1458:
.LBE1457:
.LBB1459:
.LBB1439:
	.loc 2 141 0
	lwz 9,44(9)
	lwz 25,8(9)
.LVL202:
.L163:
.LBE1439:
.LBE1459:
	.loc 5 777 0
	lwz 3,0(26)
	mr 4,25
	.loc 5 776 0
	addi 26,26,12
	.loc 5 777 0
	bl _ZN5idStr4IcmpEPKcS1_
	.loc 5 776 0
	cmpwi 6,27,5
	.loc 5 777 0
	cmpwi 7,3,0
	beq- 7,.L162
.LVL203:
	.loc 5 776 0
	addi 27,27,1
.LVL204:
	bne+ 6,.L163
	.loc 5 783 0
	lis 9,common@ha
	lis 4,.LC33@ha
	lwz 3,common@l(9)
	la 4,.LC33@l(4)
	mr 5,25
	.loc 5 785 0
	li 27,0
.LVL205:
	.loc 5 783 0
	lwz 9,0(3)
	lwz 0,80(9)
	mtctr 0
	crxor 6,6,6
	bctrl
.LVL206:
.L162:
	.loc 5 789 0
	mulli 27,27,12
.LVL207:
.LBB1460:
.LBB1461:
	.loc 2 144 0
	lwz 9,44(31)
.LBE1461:
.LBE1460:
	.loc 5 789 0
	add 29,29,27
	lwz 11,4(29)
	.loc 5 790 0
	lwz 0,8(29)
	.loc 5 789 0
	stw 11,1172(30)
	.loc 5 790 0
	stw 0,1176(30)
.LBB1463:
.LBB1462:
	.loc 2 144 0
	lfs 0,40(9)
.LBE1462:
.LBE1463:
	.loc 5 792 0
	lis 9,.LC15@ha
	lfs 13,.LC15@l(9)
	.loc 5 791 0
	stfs 0,1180(30)
	.loc 5 792 0
	fcmpu 7,0,13
	blt- 7,.L178
	.loc 5 794 0
	lis 9,glConfig+40@ha
	lfs 13,glConfig+40@l(9)
	fcmpu 7,13,0
	blt- 7,.L178
.L167:
.LBB1464:
	.loc 5 801 0
	lwz 11,84(30)
.LBE1464:
.LBB1465:
.LBB1466:
	.loc 2 144 0
	lwz 9,44(28)
.LBE1466:
.LBE1465:
.LBB1468:
	.loc 5 801 0
	cmpwi 7,11,0
.LBE1468:
.LBB1469:
.LBB1467:
	.loc 2 144 0
	lwz 0,40(9)
.LBE1467:
.LBE1469:
	.loc 5 797 0
	stw 0,1184(30)
.LVL208:
.LBB1470:
	.loc 5 801 0
	ble- 7,.L161
	li 31,0
.LBB1441:
	.loc 5 836 0
	lis 29,globalImages@ha
.LVL209:
.L171:
	.loc 5 804 0
	lwz 9,96(30)
	slwi 0,31,2
.LBE1441:
	.loc 5 801 0
	addi 31,31,1
.LVL210:
.LBB1442:
	.loc 5 804 0
	lwzx 9,9,0
.LVL211:
	.loc 5 819 0
	lwz 0,0(9)
.LVL212:
	.loc 5 822 0
	mr 3,9
	.loc 5 819 0
	cmpwi 7,0,-1
	beq- 7,.L170
	.loc 5 822 0
	bl _ZN7idImage4BindEv
.LVL213:
	.loc 5 836 0
	lwz 9,globalImages@l(29)
	li 3,-1
	li 4,-1
	lfs 0,1180(9)
	lwz 5,1172(9)
	fctiwz 0,0
	lwz 6,1176(9)
	addi 9,1,8
	stfiwx 0,0,9
	lwz 7,8(1)
	bl _Z16qgxSetGLTexParamiiiii
	lwz 11,84(30)
.L170:
.LVL214:
.LBE1442:
	.loc 5 801 0
	cmpw 7,11,31
	bgt+ 7,.L171
.LVL215:
.L161:
.LBE1470:
.LBE1477:
	.loc 5 839 0
	lwz 0,52(1)
	lwz 25,20(1)
	mtlr 0
	lwz 26,24(1)
	lwz 27,28(1)
	lwz 28,32(1)
	lwz 29,36(1)
	lwz 30,40(1)
.LVL216:
	lwz 31,44(1)
	addi 1,1,48
	.cfi_remember_state
.LCFI67:
	.cfi_def_cfa_offset 0
	.cfi_restore 31
	.cfi_restore 30
	.cfi_restore 29
	.cfi_restore 28
	.cfi_restore 27
	.cfi_restore 26
	.cfi_restore 25
	blr
.LVL217:
.L178:
.LCFI68:
	.cfi_restore_state
.LBB1478:
	.loc 5 795 0
	stfs 13,1180(30)
	b .L167
.LBE1478:
	.cfi_endproc
.LFE2598:
	.size	_ZN14idImageManager19ChangeTextureFilterEv, .-_ZN14idImageManager19ChangeTextureFilterEv
	.align 2
	.globl _ZN7idImage6ReloadEbb
	.type	_ZN7idImage6ReloadEbb, @function
_ZN7idImage6ReloadEbb:
.LFB2599:
	.loc 5 847 0
	.cfi_startproc
.LVL218:
	mflr 0
	stwu 1,-32(1)
.LCFI69:
	.cfi_def_cfa_offset 32
	.cfi_register 65, 0
	stw 30,24(1)
	mr 30,4
	.cfi_offset 30, -8
	stw 31,28(1)
	mr 31,3
	.cfi_offset 31, -4
	stw 0,36(1)
.LBB1479:
	.loc 5 849 0
	lwz 0,1160(3)
	.cfi_offset 65, 4
	cmpwi 7,0,0
	beq- 7,.L180
	.loc 5 850 0
	lis 9,common@ha
	lis 4,.LC34@ha
.LVL219:
	lwz 3,common@l(9)
.LVL220:
	la 4,.LC34@l(4)
	lwz 5,1132(31)
.LVL221:
	lwz 9,0(3)
	lwz 0,76(9)
	mtctr 0
	crxor 6,6,6
	bctrl
	.loc 5 851 0
	lwz 0,1160(31)
	mr 3,31
	mtctr 0
	bctrl
.LVL222:
.L179:
.LBE1479:
	.loc 5 878 0
	lwz 0,36(1)
.LVL223:
	lwz 30,24(1)
	mtlr 0
	lwz 31,28(1)
.LVL224:
	addi 1,1,32
	.cfi_remember_state
.LCFI70:
	.cfi_def_cfa_offset 0
	.cfi_restore 31
	.cfi_restore 30
	blr
.LVL225:
.L180:
.LCFI71:
	.cfi_restore_state
.LBB1484:
.LBB1480:
	.loc 5 856 0
	cmpwi 7,5,0
	bne- 7,.L182
.LBB1481:
	.loc 5 859 0
	lwz 4,1180(3)
.LVL226:
	.loc 5 860 0
	lwz 3,1132(3)
.LVL227:
	.loc 5 859 0
	cmpwi 7,4,0
	bne- 7,.L185
.LVL228:
	.loc 5 863 0
	li 4,0
	li 6,0
	addi 7,1,8
	li 8,0
	bl _Z18R_LoadImageProgramPKcPPhPiS3_PlP14textureDepth_t
.LVL229:
.L184:
	.loc 5 865 0
	lwz 9,1192(31)
.LVL230:
	lwz 0,8(1)
	cmpw 7,9,0
	bge- 7,.L179
.L182:
.LBE1481:
.LBE1480:
	.loc 5 870 0
	lis 9,common@ha
	lis 4,.LC35@ha
	lwz 3,common@l(9)
	la 4,.LC35@l(4)
	lwz 5,1132(31)
	lwz 9,0(3)
	lwz 0,76(9)
	mtctr 0
	crxor 6,6,6
	bctrl
	.loc 5 872 0
	mr 3,31
	bl _ZN7idImage10PurgeImageEv
	.loc 5 877 0
	mr 3,31
	mr 4,30
	li 5,0
	bl _ZN7idImage17ActuallyLoadImageEbb
.LBE1484:
	.loc 5 878 0
	lwz 0,36(1)
	lwz 30,24(1)
	mtlr 0
	lwz 31,28(1)
.LVL231:
	addi 1,1,32
	.cfi_remember_state
	.cfi_restore 30
	.cfi_restore 31
.LCFI72:
	.cfi_def_cfa_offset 0
	blr
.LVL232:
.L185:
.LCFI73:
	.cfi_restore_state
.LBB1485:
.LBB1483:
.LBB1482:
	.loc 5 860 0
	li 6,0
	addi 7,1,8
	bl _Z16R_LoadCubeImagesPKc11cubeFiles_tPPhPiPl
.LVL233:
	b .L184
.LBE1482:
.LBE1483:
.LBE1485:
	.cfi_endproc
.LFE2599:
	.size	_ZN7idImage6ReloadEbb, .-_ZN7idImage6ReloadEbb
	.align 2
	.globl _Z16R_ReloadImages_fRK9idCmdArgs
	.type	_Z16R_ReloadImages_fRK9idCmdArgs, @function
_Z16R_ReloadImages_fRK9idCmdArgs:
.LFB2600:
	.loc 5 893 0
	.cfi_startproc
.LVL234:
	stwu 1,-24(1)
.LCFI74:
	.cfi_def_cfa_offset 24
	mflr 0
	stw 31,20(1)
.LBB1486:
	.loc 5 900 0
	lis 31,globalImages@ha
	.cfi_offset 31, -4
	.cfi_register 65, 0
.LBE1486:
	.loc 5 893 0
	stw 28,8(1)
	mr 28,3
	.cfi_offset 28, -16
.LBB1491:
	.loc 5 900 0
	lwz 3,globalImages@l(31)
.LVL235:
.LBE1491:
	.loc 5 893 0
	stw 0,28(1)
	stw 29,12(1)
.LBB1492:
	.loc 5 903 0
	li 29,0
	.cfi_offset 29, -12
	.cfi_offset 65, 4
.LBE1492:
	.loc 5 893 0
	stw 30,16(1)
.LBB1493:
	.loc 5 900 0
	.cfi_offset 30, -8
	bl _ZN14idImageManager19ChangeTextureFilterEv
.LVL236:
	.loc 5 905 0
	lwz 0,0(28)
	.loc 5 902 0
	li 30,0
	.loc 5 905 0
	cmpwi 7,0,2
	beq- 7,.L196
.L187:
.LVL237:
	.loc 5 917 0
	lwz 9,globalImages@l(31)
	lwz 0,84(9)
	cmpwi 7,0,0
	ble- 7,.L186
	lis 28,globalImages@ha
.LVL238:
	li 31,0
	la 28,globalImages@l(28)
.LVL239:
.L190:
	.loc 5 918 0 discriminator 2
	lwz 9,96(9)
.LVL240:
	slwi 0,31,2
	.loc 5 919 0 discriminator 2
	mr 4,29
	mr 5,30
	lwzx 3,9,0
	.loc 5 917 0 discriminator 2
	addi 31,31,1
.LVL241:
	.loc 5 919 0 discriminator 2
	bl _ZN7idImage6ReloadEbb
.LVL242:
	.loc 5 917 0 discriminator 2
	lwz 9,0(28)
	lwz 0,84(9)
	cmpw 7,0,31
	bgt+ 7,.L190
.LVL243:
.L186:
.LBE1493:
	.loc 5 921 0
	lwz 0,28(1)
	lwz 28,8(1)
	mtlr 0
	lwz 29,12(1)
	lwz 30,16(1)
	lwz 31,20(1)
	addi 1,1,24
	.cfi_remember_state
.LCFI75:
	.cfi_def_cfa_offset 0
	.cfi_restore 31
	.cfi_restore 30
	.cfi_restore 29
	.cfi_restore 28
	blr
.LVL244:
.L196:
.LCFI76:
	.cfi_restore_state
.LBB1494:
	.loc 5 906 0
	lwz 3,8(28)
	lis 4,.LC36@ha
	la 4,.LC36@l(4)
	.loc 5 907 0
	li 30,1
	.loc 5 906 0
	bl _ZN5idStr4IcmpEPKcS1_
	cmpwi 7,3,0
	beq- 7,.L187
.LVL245:
.LBB1487:
.LBB1488:
	.loc 4 50 0
	lwz 0,0(28)
	cmpwi 7,0,1
	ble- 7,.L193
	lwz 3,8(28)
.L188:
.LBE1488:
.LBE1487:
	.loc 5 908 0
	lis 4,.LC37@ha
	.loc 5 910 0
	li 29,1
	.loc 5 908 0
	la 4,.LC37@l(4)
	.loc 5 909 0
	li 30,1
	.loc 5 908 0
	bl _ZN5idStr4IcmpEPKcS1_
	cmpwi 7,3,0
	beq+ 7,.L187
	.loc 5 912 0
	lis 9,common@ha
	lis 4,.LC38@ha
	lwz 3,common@l(9)
	la 4,.LC38@l(4)
	lwz 9,0(3)
	lwz 0,68(9)
	mtctr 0
	crxor 6,6,6
	bctrl
	.loc 5 913 0
	b .L186
.L193:
.LBB1490:
.LBB1489:
	.loc 4 50 0
	lis 3,.LC0@ha
	la 3,.LC0@l(3)
	b .L188
.LBE1489:
.LBE1490:
.LBE1494:
	.cfi_endproc
.LFE2600:
	.size	_Z16R_ReloadImages_fRK9idCmdArgs, .-_Z16R_ReloadImages_fRK9idCmdArgs
	.align 2
	.globl _ZN14idImageManager16SetNormalPaletteEv
	.type	_ZN14idImageManager16SetNormalPaletteEv, @function
_ZN14idImageManager16SetNormalPaletteEv:
.LFB2603:
	.loc 5 1138 0
	.cfi_startproc
.LVL246:
	mflr 0
	stwu 1,-8(1)
.LCFI77:
	.cfi_def_cfa_offset 8
	.cfi_register 65, 0
	.loc 5 1139 0
	lis 3,.LC39@ha
.LVL247:
	la 3,.LC39@l(3)
	.loc 5 1138 0
	stw 0,12(1)
	.loc 5 1139 0
	.cfi_offset 65, 4
	crxor 6,6,6
	bl _Z10Sys_PrintfPKcz
	.loc 5 1140 0
	lwz 0,12(1)
	addi 1,1,8
.LCFI78:
	.cfi_def_cfa_offset 0
	mtlr 0
	blr
	.cfi_endproc
.LFE2603:
	.size	_ZN14idImageManager16SetNormalPaletteEv, .-_ZN14idImageManager16SetNormalPaletteEv
	.align 2
	.globl _ZN14idImageManager10AllocImageEPKc
	.type	_ZN14idImageManager10AllocImageEPKc, @function
_ZN14idImageManager10AllocImageEPKc:
.LFB2604:
	.loc 5 1151 0
	.cfi_startproc
	.cfi_personality 0,__gxx_personality_v0
	.cfi_lsda 0,.LLSDA2604
.LVL248:
	stwu 1,-64(1)
.LCFI79:
	.cfi_def_cfa_offset 64
	mflr 0
	stw 31,60(1)
	mr 31,3
	.cfi_offset 31, -4
	.cfi_register 65, 0
.LBB1536:
	.loc 5 1155 0
	mr 3,4
.LVL249:
.LBE1536:
	.loc 5 1151 0
	stw 30,56(1)
	stw 0,68(1)
	mr 30,4
	.cfi_offset 65, 4
	.cfi_offset 30, -8
	stw 26,40(1)
	stw 27,44(1)
	stw 28,48(1)
	stw 29,52(1)
.LBB1626:
	.loc 5 1155 0
	.cfi_offset 29, -12
	.cfi_offset 28, -16
	.cfi_offset 27, -20
	.cfi_offset 26, -24
	bl strlen
.LVL250:
	cmplwi 7,3,255
	bgt- 7,.L229
.L199:
.LVL251:
.LBB1537:
.LBB1538:
	.file 7 "d:/Data/Nintendo/DoomGX/src/renderer/../idlib/../idlib/Str.h"
	.loc 7 412 0
	cmpwi 7,30,0
.LBB1539:
.LBB1540:
	.loc 7 356 0
	li 0,0
	.loc 7 358 0
	addi 28,1,20
	.loc 7 357 0
	li 9,20
	.loc 7 356 0
	stw 0,8(1)
	.loc 7 357 0
	stw 9,16(1)
	.loc 7 358 0
	stw 28,12(1)
	.loc 7 359 0
	stb 0,20(1)
.LBE1540:
.LBE1539:
	.loc 7 412 0
	beq- 7,.L200
	.loc 7 413 0
	mr 3,30
	bl strlen
	.loc 7 414 0
	addi 4,3,1
	.loc 7 413 0
	mr 29,3
.LVL252:
.LBB1541:
.LBB1542:
	.loc 7 350 0
	cmpwi 7,4,20
	.loc 7 358 0
	mr 3,28
.LVL253:
	.loc 7 350 0
	bgt- 7,.L230
.LVL254:
.L201:
.LBE1542:
.LBE1541:
	.loc 7 415 0
	mr 4,30
	bl strcpy
	.loc 7 416 0
	stw 29,8(1)
.LVL255:
.L200:
.LBE1538:
.LBE1537:
	.loc 5 1159 0
	addi 3,1,8
.LEHB0:
	bl _ZNK5idStr12FileNameHashEv
.LEHE0:
	mr 26,3
.LVL256:
.LBB1546:
.LBB1547:
.LBB1548:
	.loc 7 501 0
	addi 3,1,8
.LVL257:
.LEHB1:
	bl _ZN5idStr8FreeDataEv
.LBE1548:
.LBE1547:
.LBE1546:
	.loc 5 1161 0
	li 3,1236
	bl _Znwj
.LBB1549:
.LBB1550:
.LBB1551:
.LBB1552:
.LBB1553:
.LBB1554:
.LBB1555:
	.loc 7 357 0
	li 11,20
	stw 11,56(3)
	.loc 7 356 0
	li 0,0
.LBE1555:
.LBE1554:
.LBE1553:
.LBE1552:
.LBE1551:
.LBB1568:
.LBB1569:
.LBB1570:
	.loc 7 357 0
	stw 11,1136(3)
.LBE1570:
.LBE1569:
.LBE1568:
	.file 8 "d:/Data/Nintendo/DoomGX/src/renderer/Image.h"
	.loc 8 260 0
	li 11,-1
	.loc 8 273 0
	li 9,2
	.loc 8 260 0
	stw 11,0(3)
.LBB1575:
.LBB1565:
.LBB1562:
.LBB1559:
.LBB1556:
	.loc 7 358 0
	addi 8,3,60
.LBE1556:
.LBE1559:
.LBE1562:
.LBE1565:
.LBE1575:
.LBB1576:
.LBB1573:
.LBB1571:
	addi 10,3,1140
.LBE1571:
.LBE1573:
.LBE1576:
	.loc 8 267 0
	li 11,1
.LBB1577:
.LBB1566:
.LBB1563:
.LBB1560:
.LBB1557:
	.loc 7 356 0
	stw 0,48(3)
	.loc 7 358 0
	stw 8,52(3)
.LBE1557:
.LBE1560:
.LBE1563:
.LBE1566:
.LBE1577:
.LBE1550:
.LBE1549:
	.loc 5 1161 0
	mr 29,3
.LVL258:
.LBB1582:
.LBB1580:
.LBB1578:
.LBB1567:
.LBB1564:
.LBB1561:
.LBB1558:
	.loc 7 359 0
	stb 0,60(3)
.LVL259:
.LBE1558:
.LBE1561:
.LBE1564:
.LBE1567:
.LBE1578:
.LBE1580:
.LBE1582:
	.loc 5 1162 0
	addi 27,31,84
.LBB1583:
.LBB1581:
.LBB1579:
.LBB1574:
.LBB1572:
	.loc 7 356 0
	stw 0,1128(3)
	.loc 7 358 0
	stw 10,1132(3)
	.loc 7 359 0
	stb 0,1140(3)
.LBE1572:
.LBE1574:
.LBE1579:
	.loc 8 261 0
	stw 0,16(3)
	.loc 8 262 0
	stw 0,4(3)
	.loc 8 263 0
	stb 0,20(3)
	.loc 8 264 0
	stw 0,8(3)
	.loc 8 265 0
	stw 0,1200(3)
	.loc 8 266 0
	stb 0,21(3)
	.loc 8 267 0
	stw 11,28(3)
	.loc 8 268 0
	stw 0,32(3)
	.loc 8 269 0
	stw 0,1124(3)
.LVL260:
	.loc 8 271 0
	stw 0,1160(3)
	.loc 8 272 0
	stb 0,1164(3)
	.loc 8 273 0
	stw 9,1168(3)
	.loc 8 274 0
	stw 0,1172(3)
	.loc 8 275 0
	stw 9,1176(3)
	.loc 8 276 0
	stw 0,1180(3)
	.loc 8 277 0
	stb 0,1184(3)
	.loc 8 278 0
	stb 0,1185(3)
	.loc 8 279 0
	stb 0,1186(3)
	.loc 8 280 0
	stb 0,1187(3)
	.loc 8 281 0
	stw 0,1192(3)
	.loc 8 282 0
	stw 0,12(3)
	.loc 8 283 0
	stw 0,1212(3)
	stw 0,1208(3)
	stw 0,1204(3)
	.loc 8 284 0
	stw 0,1216(3)
	.loc 8 285 0
	stw 0,1224(3)
	stw 0,1220(3)
	.loc 8 286 0
	stw 0,1228(3)
	.loc 8 287 0
	stb 0,1188(3)
	.loc 8 288 0
	stw 0,1232(3)
.LVL261:
.LBE1581:
.LBE1583:
.LBB1584:
.LBB1585:
	.file 9 "d:/Data/Nintendo/DoomGX/src/renderer/../idlib/../idlib/containers/List.h"
	.loc 9 655 0
	lwz 28,96(31)
	cmpwi 7,28,0
	beq- 7,.L203
	lwz 0,84(31)
	lwz 9,88(31)
.LVL262:
.L204:
.LBB1586:
	.loc 9 659 0
	cmpw 7,0,9
	beq- 7,.L224
.L228:
.LBB1587:
.LBB1588:
.LBB1589:
	.loc 9 399 0
	slwi 0,0,2
	add 28,28,0
.L211:
.LBE1589:
.LBE1588:
.LBE1587:
.LBE1586:
	.loc 9 669 0
	stw 29,0(28)
.LBE1585:
.LBE1584:
	.loc 5 1164 0
	addi 26,26,296
.LVL263:
	slwi 26,26,2
.LVL264:
	.loc 5 1167 0
	addi 3,29,1128
.LBB1618:
.LBB1614:
	.loc 9 670 0
	lwz 9,84(31)
.LBE1614:
.LBE1618:
	.loc 5 1167 0
	mr 4,30
.LBB1619:
.LBB1615:
	.loc 9 670 0
	addi 0,9,1
	stw 0,84(31)
.LBE1615:
.LBE1619:
	.loc 5 1164 0
	add 31,31,26
.LVL265:
	lwz 0,4(31)
	stw 0,1228(29)
	.loc 5 1165 0
	stw 29,4(31)
	.loc 5 1167 0
	bl _ZN5idStraSEPKc
.LBE1626:
	.loc 5 1170 0
	lwz 0,68(1)
	mr 3,29
	lwz 26,40(1)
	mtlr 0
	lwz 27,44(1)
.LVL266:
	lwz 28,48(1)
	lwz 29,52(1)
.LVL267:
	lwz 30,56(1)
.LVL268:
	lwz 31,60(1)
	addi 1,1,64
	.cfi_remember_state
.LCFI80:
	.cfi_def_cfa_offset 0
	.cfi_restore 31
	.cfi_restore 30
	.cfi_restore 29
	.cfi_restore 28
	.cfi_restore 27
	.cfi_restore 26
	blr
.LVL269:
.L224:
.LCFI81:
	.cfi_restore_state
	lwz 3,92(31)
.LBB1627:
.LBB1620:
.LBB1616:
.LBB1603:
	.loc 9 659 0
	mr 10,0
.L206:
.LBB1600:
	.loc 9 662 0
	cmpwi 7,3,0
	mr 9,3
	beq- 7,.L231
.L212:
	.loc 9 665 0
	add 11,10,9
.LVL270:
	.loc 9 666 0
	divw 11,11,9
.LVL271:
.LBB1596:
.LBB1592:
	.loc 9 375 0
	mullw. 9,11,9
.LVL272:
	ble- 0,.L232
	.loc 9 380 0
	cmpw 7,9,10
	beq- 7,.L228
.LVL273:
	.loc 9 387 0
	cmpw 7,9,0
	.loc 9 386 0
	stw 9,88(31)
	.loc 9 387 0
	blt- 7,.L233
.L216:
	.loc 9 392 0
	slwi 3,9,2
	bl _Znaj
.LVL274:
	.loc 9 393 0
	lwz 0,84(31)
	.loc 9 392 0
	stw 3,96(31)
.LVL275:
	.loc 9 393 0
	cmpwi 7,0,0
	ble- 7,.L217
	.loc 5 1151 0
	addi 11,28,-4
.LBE1592:
.LBE1596:
	.loc 9 393 0
	li 9,0
	b .L218
.LVL276:
.L234:
.LBB1597:
.LBB1593:
	lwz 3,96(31)
.LVL277:
.L218:
	.loc 9 394 0
	lwzu 10,4(11)
	slwi 0,9,2
	.loc 9 393 0
	addi 9,9,1
.LVL278:
	.loc 9 394 0
	stwx 10,3,0
	.loc 9 393 0
	lwz 0,0(27)
	cmpw 7,9,0
	blt+ 7,.L234
.LVL279:
.L217:
	.loc 9 398 0
	cmpwi 7,28,0
	beq- 7,.L235
	.loc 9 399 0
	mr 3,28
	bl _ZdaPv
	lwz 0,84(31)
	lwz 28,96(31)
.LVL280:
	b .L228
.LVL281:
.L229:
.LBE1593:
.LBE1597:
.LBE1600:
.LBE1603:
.LBE1616:
.LBE1620:
	.loc 5 1156 0
	lis 9,common@ha
	lis 4,.LC40@ha
	lwz 3,common@l(9)
	la 4,.LC40@l(4)
	mr 5,30
	lwz 9,0(3)
	lwz 0,96(9)
	mtctr 0
	crxor 6,6,6
	bctrl
	b .L199
.LVL282:
.L230:
.LBB1621:
.LBB1545:
.LBB1544:
.LBB1543:
	.loc 7 351 0
	addi 3,1,8
	li 5,1
	bl _ZN5idStr10ReAllocateEib
.LVL283:
	lwz 3,12(1)
	b .L201
.LVL284:
.L231:
.LBE1543:
.LBE1544:
.LBE1545:
.LBE1621:
.LBB1622:
.LBB1617:
.LBB1604:
.LBB1601:
	.loc 9 663 0
	li 9,16
	stw 9,92(31)
	b .L212
.LVL285:
.L233:
.LBB1598:
.LBB1594:
	.loc 9 388 0
	stw 9,84(31)
	b .L216
.LVL286:
.L203:
.LBE1594:
.LBE1598:
.LBE1601:
.LBE1604:
	.loc 9 656 0
	lwz 3,92(31)
.LBB1605:
.LBB1606:
	.loc 9 375 0
	cmpwi 7,3,0
.LBE1606:
.LBE1605:
	.loc 9 656 0
	mr 9,3
.LVL287:
.LBB1611:
.LBB1609:
	.loc 9 375 0
	ble- 7,.L236
	.loc 9 380 0
	lwz 0,88(31)
	cmpw 7,3,0
	lwz 0,84(31)
	beq- 7,.L204
.LVL288:
	.loc 9 387 0
	cmpw 7,3,0
	.loc 9 386 0
	stw 3,88(31)
	.loc 9 387 0
	bge- 7,.L208
	.loc 9 388 0
	stw 3,84(31)
.L208:
	.loc 9 392 0
	slwi 3,3,2
	bl _Znaj
.LEHE1:
.LVL289:
	.loc 9 393 0
	lwz 0,84(31)
	.loc 9 392 0
	mr 28,3
	stw 3,96(31)
.LVL290:
	.loc 9 393 0
	cmpwi 7,0,0
	li 9,0
	li 11,0
	bgt+ 7,.L227
	b .L239
.LVL291:
.L238:
	lwz 28,96(31)
.LVL292:
.L227:
	.loc 9 394 0
	lwz 0,0(9)
	.loc 9 393 0
	addi 11,11,1
.LVL293:
	.loc 9 394 0
	stwx 0,28,9
	.loc 9 393 0
	addi 9,9,4
	lwz 0,0(27)
	cmpw 7,11,0
	blt+ 7,.L238
	lwz 9,88(31)
	lwz 28,96(31)
	b .L204
.LVL294:
.L232:
.LBE1609:
.LBE1611:
.LBB1612:
.LBB1602:
.LBB1599:
.LBB1595:
.LBB1590:
.LBB1591:
	.loc 9 193 0
	cmpwi 7,28,0
	beq- 7,.L214
	.loc 9 194 0
	mr 3,28
	bl _ZdaPv
.LVL295:
.L214:
	.loc 9 197 0
	li 0,0
	.loc 9 199 0
	li 28,0
	.loc 9 197 0
	stw 0,96(31)
	.loc 9 198 0
	stw 0,84(31)
	.loc 9 199 0
	stw 0,88(31)
	b .L211
.LVL296:
.L235:
.LBE1591:
.LBE1590:
	.loc 9 398 0
	lwz 0,84(31)
	lwz 28,96(31)
.LVL297:
	slwi 0,0,2
	add 28,28,0
	b .L211
.LVL298:
.L236:
.LBE1595:
.LBE1599:
.LBE1602:
.LBE1612:
.LBB1613:
.LBB1610:
.LBB1607:
.LBB1608:
	.loc 9 198 0
	stw 28,84(31)
	.loc 9 199 0
	li 10,0
	stw 28,88(31)
	li 0,0
	b .L206
.LVL299:
.L239:
.LBE1608:
.LBE1607:
	.loc 9 393 0
	lwz 9,88(31)
	b .L204
.LVL300:
.L225:
	mr 31,3
.LVL301:
.LBE1610:
.LBE1613:
.LBE1617:
.LBE1622:
.LBB1623:
.LBB1624:
.LBB1625:
	.loc 7 501 0
	addi 3,1,8
	bl _ZN5idStr8FreeDataEv
	mr 3,31
.LEHB2:
	bl _Unwind_Resume
.LEHE2:
.LBE1625:
.LBE1624:
.LBE1623:
.LBE1627:
	.cfi_endproc
.LFE2604:
	.globl __gxx_personality_v0
	.section	.gcc_except_table,"a",@progbits
.LLSDA2604:
	.byte	0xff
	.byte	0xff
	.byte	0x1
	.uleb128 .LLSDACSE2604-.LLSDACSB2604
.LLSDACSB2604:
	.uleb128 .LEHB0-.LFB2604
	.uleb128 .LEHE0-.LEHB0
	.uleb128 .L225-.LFB2604
	.uleb128 0
	.uleb128 .LEHB1-.LFB2604
	.uleb128 .LEHE1-.LEHB1
	.uleb128 0
	.uleb128 0
	.uleb128 .LEHB2-.LFB2604
	.uleb128 .LEHE2-.LEHB2
	.uleb128 0
	.uleb128 0
.LLSDACSE2604:
	.section	".text"
	.size	_ZN14idImageManager10AllocImageEPKc, .-_ZN14idImageManager10AllocImageEPKc
	.align 2
	.globl _ZN14idImageManager17ImageFromFunctionEPKcPFvP7idImageE
	.type	_ZN14idImageManager17ImageFromFunctionEPKcPFvP7idImageE, @function
_ZN14idImageManager17ImageFromFunctionEPKcPFvP7idImageE:
.LFB2605:
	.loc 5 1182 0
	.cfi_startproc
	.cfi_personality 0,__gxx_personality_v0
	.cfi_lsda 0,.LLSDA2605
.LVL302:
	mflr 0
	stwu 1,-56(1)
.LCFI82:
	.cfi_def_cfa_offset 56
	.cfi_register 65, 0
.LVL303:
.LBB1628:
.LBB1629:
.LBB1630:
.LBB1631:
	.loc 7 357 0
	li 9,20
.LBE1631:
.LBE1630:
.LBE1629:
.LBE1628:
	.loc 5 1182 0
	stw 30,48(1)
	mr 30,3
	.cfi_offset 30, -8
	stw 0,60(1)
.LBB1653:
	.loc 5 1192 0
	addi 3,1,8
.LVL304:
.LBB1636:
.LBB1634:
.LBB1632:
	.loc 7 356 0
	li 0,0
	.cfi_offset 65, 4
	.loc 7 357 0
	stw 9,16(1)
	.loc 7 358 0
	addi 9,1,20
.LBE1632:
.LBE1634:
.LBE1636:
.LBE1653:
	.loc 5 1182 0
	stw 29,44(1)
	stw 31,52(1)
	.loc 5 1182 0
	mr 29,5
	.cfi_offset 31, -4
	.cfi_offset 29, -12
.LBB1654:
.LBB1637:
.LBB1635:
.LBB1633:
	.loc 7 356 0
	stw 0,8(1)
	.loc 7 358 0
	stw 9,12(1)
	.loc 7 359 0
	stb 0,20(1)
.LVL305:
.LEHB3:
.LBE1633:
.LBE1635:
.LBE1637:
	.loc 5 1192 0
	bl _ZN5idStraSEPKc
.LVL306:
	.loc 5 1193 0
	lis 4,.LC41@ha
	lis 5,.LC0@ha
	addi 3,1,8
	la 4,.LC41@l(4)
	la 5,.LC0@l(5)
	bl _ZN5idStr7ReplaceEPKcS1_
	.loc 5 1194 0
	addi 3,1,8
	bl _ZN5idStr20BackSlashesToSlashesEv
	.loc 5 1197 0
	addi 3,1,8
	bl _ZNK5idStr12FileNameHashEv
.LVL307:
	.loc 5 1198 0
	addi 9,3,296
	slwi 9,9,2
	add 9,30,9
	lwz 31,4(9)
.LVL308:
	cmpwi 7,31,0
	bne+ 7,.L249
	b .L241
.LVL309:
.L242:
	lwz 31,1228(31)
.LVL310:
	cmpwi 7,31,0
	beq- 7,.L241
.LVL311:
.L249:
.LBB1638:
.LBB1639:
	.loc 7 690 0
	lwz 3,12(1)
	lwz 4,1132(31)
	bl _ZN5idStr4IcmpEPKcS1_
.LVL312:
.LBE1639:
.LBE1638:
	.loc 5 1199 0
	cmpwi 7,3,0
	bne+ 7,.L242
	.loc 5 1200 0
	lwz 0,1160(31)
	cmpw 7,0,29
	beq- 7,.L243
	.loc 5 1201 0
	lis 9,common@ha
	lis 4,.LC42@ha
	lwz 3,common@l(9)
	la 4,.LC42@l(4)
	lwz 5,12(1)
	lwz 9,0(3)
	lwz 0,76(9)
	mtctr 0
	crxor 6,6,6
	bctrl
.LEHE3:
.LVL313:
.L243:
.LBB1640:
.LBB1641:
.LBB1642:
	.loc 7 501 0
	addi 3,1,8
.LEHB4:
	bl _ZN5idStr8FreeDataEv
.LEHE4:
.LBE1642:
.LBE1641:
.LBE1640:
.LBE1654:
	.loc 5 1219 0
	lwz 0,60(1)
	mr 3,31
	lwz 29,44(1)
.LVL314:
	mtlr 0
	lwz 30,48(1)
.LVL315:
	lwz 31,52(1)
.LVL316:
	addi 1,1,56
	.cfi_remember_state
.LCFI83:
	.cfi_def_cfa_offset 0
	.cfi_restore 31
	.cfi_restore 30
	.cfi_restore 29
	blr
.LVL317:
.L241:
.LCFI84:
	.cfi_restore_state
.LBB1655:
	.loc 5 1208 0
	lwz 4,12(1)
	mr 3,30
.LEHB5:
	bl _ZN14idImageManager10AllocImageEPKc
.LBB1645:
.LBB1646:
	.loc 2 142 0
	lis 9,.LANCHOR1+252@ha
.LBE1646:
.LBE1645:
	.loc 5 1210 0
	stw 29,1160(3)
.LBB1648:
.LBB1647:
	.loc 2 142 0
	lwz 9,.LANCHOR1+252@l(9)
.LBE1647:
.LBE1648:
	.loc 5 1208 0
	mr 31,3
.LVL318:
	.loc 5 1212 0
	lwz 0,36(9)
	cmpwi 7,0,0
	beq+ 7,.L243
	.loc 5 1214 0
	li 0,1
	.loc 5 1215 0
	li 4,1
	.loc 5 1214 0
	stb 0,1184(3)
	.loc 5 1215 0
	li 5,0
	bl _ZN7idImage17ActuallyLoadImageEbb
.LEHE5:
.LVL319:
.LBB1649:
.LBB1644:
.LBB1643:
	.loc 7 501 0
	addi 3,1,8
.LEHB6:
	bl _ZN5idStr8FreeDataEv
.LEHE6:
.LBE1643:
.LBE1644:
.LBE1649:
.LBE1655:
	.loc 5 1219 0
	lwz 0,60(1)
	mr 3,31
	lwz 29,44(1)
.LVL320:
	mtlr 0
	lwz 30,48(1)
.LVL321:
	lwz 31,52(1)
.LVL322:
	addi 1,1,56
	.cfi_remember_state
	.cfi_restore 29
	.cfi_restore 30
	.cfi_restore 31
.LCFI85:
	.cfi_def_cfa_offset 0
	blr
.LVL323:
.L248:
.LCFI86:
	.cfi_restore_state
	mr 31,3
.LVL324:
.LBB1656:
.LBB1650:
.LBB1651:
.LBB1652:
	.loc 7 501 0
	addi 3,1,8
	bl _ZN5idStr8FreeDataEv
	mr 3,31
.LEHB7:
	bl _Unwind_Resume
.LEHE7:
.LBE1652:
.LBE1651:
.LBE1650:
.LBE1656:
	.cfi_endproc
.LFE2605:
	.section	.gcc_except_table
.LLSDA2605:
	.byte	0xff
	.byte	0xff
	.byte	0x1
	.uleb128 .LLSDACSE2605-.LLSDACSB2605
.LLSDACSB2605:
	.uleb128 .LEHB3-.LFB2605
	.uleb128 .LEHE3-.LEHB3
	.uleb128 .L248-.LFB2605
	.uleb128 0
	.uleb128 .LEHB4-.LFB2605
	.uleb128 .LEHE4-.LEHB4
	.uleb128 0
	.uleb128 0
	.uleb128 .LEHB5-.LFB2605
	.uleb128 .LEHE5-.LEHB5
	.uleb128 .L248-.LFB2605
	.uleb128 0
	.uleb128 .LEHB6-.LFB2605
	.uleb128 .LEHE6-.LEHB6
	.uleb128 0
	.uleb128 0
	.uleb128 .LEHB7-.LFB2605
	.uleb128 .LEHE7-.LEHB7
	.uleb128 0
	.uleb128 0
.LLSDACSE2605:
	.section	".text"
	.size	_ZN14idImageManager17ImageFromFunctionEPKcPFvP7idImageE, .-_ZN14idImageManager17ImageFromFunctionEPKcPFvP7idImageE
	.align 2
	.globl _ZN14idImageManager13ImageFromFileEPKc15textureFilter_tb15textureRepeat_t14textureDepth_t11cubeFiles_t
	.type	_ZN14idImageManager13ImageFromFileEPKc15textureFilter_tb15textureRepeat_t14textureDepth_t11cubeFiles_t, @function
_ZN14idImageManager13ImageFromFileEPKc15textureFilter_tb15textureRepeat_t14textureDepth_t11cubeFiles_t:
.LFB2606:
	.loc 5 1230 0
	.cfi_startproc
	.cfi_personality 0,__gxx_personality_v0
	.cfi_lsda 0,.LLSDA2606
.LVL325:
	stwu 1,-88(1)
.LCFI87:
	.cfi_def_cfa_offset 88
.LVL326:
	mflr 0
	stw 28,72(1)
.LBB1711:
	.loc 5 1235 0
	mr. 28,4
	.cfi_offset 28, -16
	.cfi_register 65, 0
.LBE1711:
	.loc 5 1230 0
	stw 29,76(1)
	mr 29,9
	.cfi_offset 29, -12
.LBB1802:
.LBB1712:
.LBB1713:
.LBB1714:
	.loc 7 357 0
	li 9,20
.LVL327:
.LBE1714:
.LBE1713:
.LBE1712:
.LBE1802:
	.loc 5 1230 0
	stw 0,92(1)
.LBB1803:
.LBB1719:
.LBB1717:
.LBB1715:
	.loc 7 357 0
	stw 9,16(1)
	.loc 7 356 0
	li 0,0
	.cfi_offset 65, 4
	.loc 7 358 0
	addi 9,1,20
.LBE1715:
.LBE1717:
.LBE1719:
.LBE1803:
	.loc 5 1230 0
	stw 21,44(1)
	stw 22,48(1)
	mr 21,3
	.cfi_offset 22, -40
	.cfi_offset 21, -44
	stw 23,52(1)
	mr 22,8
	stw 26,64(1)
	mr 23,7
	.cfi_offset 26, -24
	.cfi_offset 23, -36
	stw 30,80(1)
	mr 26,6
	stw 24,56(1)
	mr 30,5
	.cfi_offset 24, -32
	.cfi_offset 30, -8
	stw 25,60(1)
	stw 27,68(1)
	stw 31,84(1)
.LBB1804:
.LBB1720:
.LBB1718:
.LBB1716:
	.loc 7 356 0
	stw 0,8(1)
	.loc 7 358 0
	stw 9,12(1)
	.loc 7 359 0
	stb 0,20(1)
.LBE1716:
.LBE1718:
.LBE1720:
	.loc 5 1235 0
	beq- 0,.L252
	.cfi_offset 31, -4
	.cfi_offset 27, -20
	.cfi_offset 25, -28
	.loc 5 1235 0 is_stmt 0 discriminator 2
	lbz 0,0(28)
	cmpwi 7,0,0
	bne- 7,.L308
.LVL328:
.L252:
	.loc 5 1236 0 is_stmt 1 discriminator 6
	lis 9,declManager@ha
	lis 4,.LC45@ha
	lwz 3,declManager@l(9)
	la 4,.LC45@l(4)
	addi 27,1,8
	lwz 9,0(3)
	lwz 0,96(9)
	mtctr 0
.LEHB8:
	crxor 6,6,6
	bctrl
.LEHE8:
	.loc 5 1237 0
	lis 9,globalImages@ha
	addi 27,1,8
	lwz 9,globalImages@l(9)
	lwz 31,0(9)
.LVL329:
.L254:
.LBB1721:
.LBB1722:
.LBB1723:
	.loc 7 501 0
	mr 3,27
.LEHB9:
	bl _ZN5idStr8FreeDataEv
.LEHE9:
.LBE1723:
.LBE1722:
.LBE1721:
.LBE1804:
	.loc 5 1369 0
	lwz 0,92(1)
	mr 3,31
	lwz 21,44(1)
.LVL330:
	mtlr 0
	lwz 22,48(1)
.LVL331:
	lwz 23,52(1)
.LVL332:
	lwz 24,56(1)
	lwz 25,60(1)
	lwz 26,64(1)
	lwz 27,68(1)
	lwz 28,72(1)
	lwz 29,76(1)
	lwz 30,80(1)
	lwz 31,84(1)
	addi 1,1,88
	.cfi_remember_state
.LCFI88:
	.cfi_def_cfa_offset 0
	.cfi_restore 31
	.cfi_restore 30
	.cfi_restore 29
	.cfi_restore 28
	.cfi_restore 27
	.cfi_restore 26
	.cfi_restore 25
	.cfi_restore 24
	.cfi_restore 23
	.cfi_restore 22
	.cfi_restore 21
	blr
.LVL333:
.L308:
.LCFI89:
	.cfi_restore_state
.LBB1805:
	.loc 5 1235 0 discriminator 3
	lis 4,.LC43@ha
.LVL334:
	mr 3,28
.LVL335:
	la 4,.LC43@l(4)
	addi 27,1,8
.LEHB10:
	bl _ZN5idStr4IcmpEPKcS1_
.LVL336:
	cmpwi 7,3,0
	beq+ 7,.L252
	.loc 5 1235 0 is_stmt 0 discriminator 4
	lis 4,.LC44@ha
	mr 3,28
	la 4,.LC44@l(4)
	addi 27,1,8
	bl _ZN5idStr4IcmpEPKcS1_
	cmpwi 7,3,0
	beq- 7,.L252
	.loc 5 1241 0 is_stmt 1
	addi 27,1,8
	mr 4,28
	mr 3,27
	bl _ZN5idStraSEPKc
	.loc 5 1242 0
	lis 4,.LC41@ha
	lis 5,.LC0@ha
	mr 3,27
	la 4,.LC41@l(4)
	la 5,.LC0@l(5)
	bl _ZN5idStr7ReplaceEPKcS1_
	.loc 5 1243 0
	mr 3,27
	bl _ZN5idStr20BackSlashesToSlashesEv
	.loc 5 1249 0
	mr 3,27
	bl _ZNK5idStr12FileNameHashEv
.LVL337:
	.loc 5 1250 0
	addi 9,3,296
	slwi 9,9,2
	add 9,21,9
	lwz 31,4(9)
.LVL338:
	cmpwi 7,31,0
	beq- 7,.L255
	.loc 5 1257 0
	lis 24,.LC46@ha
	lis 25,common@ha
	la 24,.LC46@l(24)
	b .L297
.LVL339:
.L256:
	.loc 5 1250 0
	lwz 31,1228(31)
.LVL340:
	cmpwi 7,31,0
	beq- 7,.L255
.LVL341:
.L297:
.LBB1724:
.LBB1725:
	.loc 7 690 0
	lwz 3,12(1)
	lwz 4,1132(31)
	bl _ZN5idStr4IcmpEPKcS1_
.LVL342:
.LBE1725:
.LBE1724:
	.loc 5 1251 0
	cmpwi 7,3,0
	bne- 7,.L256
.LVL343:
	.loc 5 1253 0
	lwz 9,12(1)
	lbz 0,0(9)
	cmpwi 7,0,95
	beq- 7,.L254
	.loc 5 1256 0
	lwz 0,1180(31)
	cmpw 7,0,29
	beq- 7,.L257
	.loc 5 1257 0
	lwz 3,common@l(25)
	mr 4,24
	mr 5,28
	lwz 9,0(3)
	lwz 0,96(9)
	mtctr 0
	crxor 6,6,6
	bctrl
.LVL344:
.L257:
	.loc 5 1260 0
	lwz 0,1168(31)
	cmpw 7,0,30
	bne+ 7,.L256
	.loc 5 1260 0 is_stmt 0 discriminator 1
	lwz 0,1172(31)
	cmpw 7,0,23
	bne+ 7,.L256
	.loc 5 1266 0 is_stmt 1
	lbz 0,1164(31)
	lwz 9,1176(31)
	cmpw 7,0,26
	beq- 7,.L309
	cmpw 7,9,22
.L259:
	.loc 5 1277 0
	cmpwi 6,0,0
	bne- 6,.L260
	.loc 5 1278 0
	li 26,0
.L260:
.LVL345:
	.loc 5 1280 0
	ble- 7,.L261
	.loc 5 1281 0
	mr 22,9
.LVL346:
.L261:
	.loc 5 1283 0
	cmpw 7,26,0
	beq- 7,.L310
.L262:
	.loc 5 1295 0
	lwz 9,16(31)
	.loc 5 1294 0
	li 0,1
	.loc 5 1292 0
	stb 26,1164(31)
	.loc 5 1295 0
	cmpwi 7,9,0
	.loc 5 1293 0
	stw 22,1176(31)
	.loc 5 1294 0
	stb 0,1185(31)
	.loc 5 1295 0
	beq- 7,.L263
	.loc 5 1296 0
	stb 0,1185(9)
.L263:
.LBB1726:
.LBB1727:
	.loc 5 1298 0
	lis 9,.LANCHOR1+252@ha
	.loc 2 142 0
	lwz 9,.LANCHOR1+252@l(9)
.LBE1727:
.LBE1726:
	.loc 5 1298 0
	lwz 0,36(9)
	cmpwi 7,0,0
	beq- 7,.L254
	.loc 5 1298 0 is_stmt 0 discriminator 1
	lbz 0,144(21)
	cmpwi 7,0,0
	bne- 7,.L254
	.loc 5 1299 0 is_stmt 1 discriminator 4
	li 0,1
	.loc 5 1300 0 discriminator 4
	mr 3,31
	.loc 5 1299 0 discriminator 4
	stb 0,1184(31)
	.loc 5 1300 0 discriminator 4
	li 4,1
	li 5,0
	bl _ZN7idImage17ActuallyLoadImageEbb
	.loc 5 1301 0
	lis 9,declManager@ha
	lis 4,.LC47@ha
	lwz 3,declManager@l(9)
	la 4,.LC47@l(4)
	lwz 9,0(3)
	lwz 0,96(9)
.LVL347:
.L305:
	.loc 5 1363 0
	lwz 5,1204(31)
	mtctr 0
	lwz 6,1208(31)
	lwz 7,1132(31)
	crxor 6,6,6
	bctrl
	b .L254
.L255:
.LVL348:
	.loc 5 1310 0
	lwz 4,12(1)
	mr 3,21
	bl _ZN14idImageManager10AllocImageEPKc
	mr 31,3
.LVL349:
.LBB1728:
.LBB1729:
	.loc 7 906 0
	lis 4,.LC48@ha
	lwz 3,12(1)
.LVL350:
	la 4,.LC48@l(4)
	lwz 7,8(1)
	li 5,1
	li 6,0
	bl _ZN5idStr8FindTextEPKcS1_bii
.LVL351:
.LBE1729:
.LBE1728:
	.loc 5 1315 0 discriminator 1
	srawi 3,3,31
	.loc 5 1321 0 discriminator 1
	li 0,1
	.loc 5 1315 0 discriminator 1
	and 26,26,3
.LVL352:
	.loc 5 1319 0 discriminator 1
	stw 23,1172(31)
	.loc 5 1318 0 discriminator 1
	stb 26,1164(31)
	.loc 5 1328 0 discriminator 1
	mr 3,31
	.loc 5 1320 0 discriminator 1
	stw 22,1176(31)
	.loc 5 1321 0 discriminator 1
	stw 0,4(31)
	.loc 5 1322 0 discriminator 1
	stw 29,1180(31)
	.loc 5 1323 0 discriminator 1
	stw 30,1168(31)
	.loc 5 1325 0 discriminator 1
	stb 0,1185(31)
	.loc 5 1328 0 discriminator 1
	bl _ZN7idImage26ShouldImageBePartialCachedEv
	.loc 5 1328 0 is_stmt 0
	cmpwi 7,3,0
	bne- 7,.L311
.LBB1730:
.LBB1731:
	.loc 5 1360 0 is_stmt 1
	lis 9,.LANCHOR1+252@ha
	.loc 2 142 0
	lwz 9,.LANCHOR1+252@l(9)
.LBE1731:
.LBE1730:
	.loc 5 1360 0
	lwz 0,36(9)
	cmpwi 7,0,0
	beq- 7,.L286
	.loc 5 1360 0 is_stmt 0 discriminator 1
	lbz 0,144(21)
	cmpwi 7,0,0
	bne- 7,.L286
	.loc 5 1361 0 is_stmt 1 discriminator 4
	li 0,1
	.loc 5 1362 0 discriminator 4
	mr 3,31
	.loc 5 1361 0 discriminator 4
	stb 0,1184(31)
	.loc 5 1362 0 discriminator 4
	li 4,1
	li 5,0
	bl _ZN7idImage17ActuallyLoadImageEbb
	.loc 5 1363 0
	lis 9,declManager@ha
	lis 4,.LC49@ha
	lwz 3,declManager@l(9)
	la 4,.LC49@l(4)
	lwz 9,0(3)
	lwz 0,96(9)
	b .L305
.LVL353:
.L286:
	.loc 5 1365 0
	lis 9,declManager@ha
	lis 4,.LC50@ha
	lwz 3,declManager@l(9)
	la 4,.LC50@l(4)
	lwz 5,1132(31)
	lwz 9,0(3)
	lwz 0,96(9)
	mtctr 0
	crxor 6,6,6
	bctrl
	b .L254
.LVL354:
.L309:
	.loc 5 1266 0 discriminator 1
	cmpw 7,9,22
	bne+ 7,.L259
.L307:
	.loc 5 1286 0
	lwz 9,16(31)
	.loc 5 1285 0
	li 0,1
	stb 0,1185(31)
	.loc 5 1286 0
	cmpwi 7,9,0
	beq- 7,.L254
	.loc 5 1287 0
	stb 0,1185(9)
	b .L254
.LVL355:
.L310:
	.loc 5 1283 0 discriminator 1
	cmpw 7,22,9
	bne+ 7,.L262
	b .L307
.LVL356:
.L311:
	.loc 5 1330 0
	li 3,1236
	bl _Znwj
.LVL357:
.LBB1732:
.LBB1733:
.LBB1734:
.LBB1735:
.LBB1736:
.LBB1737:
.LBB1738:
	.loc 7 357 0
	li 10,20
	.loc 7 356 0
	li 0,0
.LBE1738:
.LBE1737:
.LBE1736:
.LBE1735:
.LBE1734:
	.loc 8 267 0
	li 9,1
	.loc 8 273 0
	li 11,2
.LBB1747:
.LBB1745:
.LBB1743:
.LBB1741:
.LBB1739:
	.loc 7 357 0
	stw 10,56(3)
	.loc 7 358 0
	addi 7,3,60
.LBE1739:
.LBE1741:
.LBE1743:
.LBE1745:
.LBE1747:
.LBB1748:
.LBB1749:
.LBB1750:
	.loc 7 357 0
	stw 10,1136(3)
	.loc 7 358 0
	addi 8,3,1140
.LBE1750:
.LBE1749:
.LBE1748:
	.loc 8 260 0
	li 10,-1
	.loc 8 273 0
	stw 11,1168(3)
	.loc 8 260 0
	stw 10,0(3)
.LBE1733:
.LBE1732:
	.loc 5 1343 0
	lis 10,globalImages@ha
.LBB1756:
.LBB1755:
	.loc 8 275 0
	stw 11,1176(3)
.LBB1753:
.LBB1746:
.LBB1744:
.LBB1742:
.LBB1740:
	.loc 7 356 0
	stw 0,48(3)
	.loc 7 358 0
	stw 7,52(3)
	.loc 7 359 0
	stb 0,60(3)
.LVL358:
.LBE1740:
.LBE1742:
.LBE1744:
.LBE1746:
.LBE1753:
.LBB1754:
.LBB1752:
.LBB1751:
	.loc 7 356 0
	stw 0,1128(3)
	.loc 7 358 0
	stw 8,1132(3)
	.loc 7 359 0
	stb 0,1140(3)
.LBE1751:
.LBE1752:
.LBE1754:
	.loc 8 261 0
	stw 0,16(3)
	.loc 8 262 0
	stw 0,4(3)
	.loc 8 263 0
	stb 0,20(3)
	.loc 8 264 0
	stw 0,8(3)
	.loc 8 265 0
	stw 0,1200(3)
	.loc 8 266 0
	stb 0,21(3)
	.loc 8 267 0
	stw 9,28(3)
	.loc 8 268 0
	stw 0,32(3)
	.loc 8 269 0
	stw 0,1124(3)
.LVL359:
	.loc 8 271 0
	stw 0,1160(3)
	.loc 8 274 0
	stw 0,1172(3)
	.loc 8 276 0
	stw 0,1180(3)
	.loc 8 277 0
	stb 0,1184(3)
	.loc 8 278 0
	stb 0,1185(3)
	.loc 8 279 0
	stb 0,1186(3)
	.loc 8 280 0
	stb 0,1187(3)
	.loc 8 281 0
	stw 0,1192(3)
	.loc 8 282 0
	stw 0,12(3)
	.loc 8 283 0
	stw 0,1212(3)
	stw 0,1208(3)
	stw 0,1204(3)
	.loc 8 284 0
	stw 0,1216(3)
	.loc 8 285 0
	stw 0,1224(3)
	stw 0,1220(3)
	.loc 8 286 0
	stw 0,1228(3)
	.loc 8 287 0
	stb 0,1188(3)
	.loc 8 288 0
	stw 0,1232(3)
.LBE1755:
.LBE1756:
	.loc 5 1330 0
	stw 3,16(31)
	.loc 5 1332 0
	stb 26,1164(3)
	.loc 5 1343 0
	lwz 28,globalImages@l(10)
.LVL360:
	.loc 5 1333 0
	lwz 11,16(31)
	.loc 5 1343 0
	addi 26,28,84
.LVL361:
	.loc 5 1333 0
	stw 23,1172(11)
	.loc 5 1334 0
	lwz 11,16(31)
	stw 22,1176(11)
	.loc 5 1335 0
	lwz 11,16(31)
	stw 9,4(11)
	.loc 5 1336 0
	lwz 11,16(31)
	stw 29,1180(11)
	.loc 5 1337 0
	lwz 11,16(31)
	stw 30,1168(11)
	.loc 5 1339 0
	lwz 11,16(31)
	stb 9,1185(11)
.LBB1757:
.LBB1758:
	.loc 9 655 0
	lwz 30,96(28)
.LVL362:
	cmpwi 7,30,0
	beq- 7,.L267
	lwz 0,84(28)
	lwz 9,88(28)
.LVL363:
.L268:
.LBB1759:
	.loc 9 659 0
	cmpw 7,0,9
	beq- 7,.L295
.L301:
.LBB1760:
.LBB1761:
.LBB1762:
	.loc 9 399 0
	slwi 0,0,2
	add 30,30,0
.L275:
.LBE1762:
.LBE1761:
.LBE1760:
.LBE1759:
	.loc 9 669 0
	lwz 0,16(31)
	stw 0,0(30)
	.loc 9 670 0
	lwz 9,84(28)
	addi 0,9,1
	stw 0,84(28)
.LBE1758:
.LBE1757:
	.loc 5 1344 0
	lwz 30,16(31)
.LVL364:
.LBB1785:
	.loc 5 1760 0
	lwz 29,1128(31)
.LVL365:
.LBB1786:
.LBB1787:
.LBB1788:
	.loc 7 350 0
	lwz 0,1136(30)
.LBE1788:
.LBE1787:
	.loc 7 534 0
	addi 4,29,1
.LVL366:
.LBB1790:
.LBB1789:
	.loc 7 350 0
	cmpw 7,4,0
	ble- 7,.L284
	.loc 7 351 0
	addi 3,30,1128
	li 5,0
	bl _ZN5idStr10ReAllocateEib
.LVL367:
.L284:
.LBE1789:
.LBE1790:
	.loc 7 535 0
	lwz 3,1132(30)
	mr 5,29
	lwz 4,1132(31)
	bl memcpy
	.loc 7 536 0
	lwz 9,1132(30)
	li 0,0
	stbx 0,9,29
.LBE1786:
.LBE1785:
	.loc 5 1345 0
	li 0,1
.LBB1792:
.LBB1791:
	.loc 7 537 0
	stw 29,1128(30)
.LBE1791:
.LBE1792:
	.loc 5 1345 0
	lwz 9,16(31)
	stb 0,20(9)
.LBB1793:
.LBB1794:
	.loc 2 142 0
	lis 9,.LANCHOR1+252@ha
.LBE1794:
.LBE1793:
	.loc 5 1348 0
	stb 0,1186(31)
.LBB1796:
.LBB1795:
	.loc 2 142 0
	lwz 9,.LANCHOR1+252@l(9)
.LBE1795:
.LBE1796:
	.loc 5 1350 0
	lwz 0,36(9)
	cmpwi 7,0,0
	beq- 7,.L286
	.loc 5 1350 0 is_stmt 0 discriminator 1
	lbz 0,144(21)
	cmpwi 7,0,0
	bne- 7,.L286
	.loc 5 1351 0 is_stmt 1 discriminator 4
	lwz 3,16(31)
	li 4,1
	li 5,0
	bl _ZN7idImage17ActuallyLoadImageEbb
	.loc 5 1352 0
	lis 9,declManager@ha
	lis 4,.LC49@ha
	lwz 3,declManager@l(9)
	la 4,.LC49@l(4)
	lwz 9,16(31)
	lwz 11,0(3)
	lwz 5,1204(9)
	lwz 0,96(11)
	lwz 6,1208(9)
	lwz 7,1132(31)
	mtctr 0
	crxor 6,6,6
	bctrl
	b .L254
.LVL368:
.L295:
	lwz 3,92(28)
.LBB1797:
.LBB1783:
.LBB1773:
	.loc 9 659 0
	mr 9,0
.L270:
.LBB1771:
	.loc 9 662 0
	cmpwi 7,3,0
	bne- 7,.L276
	.loc 9 663 0
	li 11,16
	li 3,16
	stw 11,92(28)
.L276:
	.loc 9 665 0
	add 11,3,9
.LVL369:
	.loc 9 666 0
	divw 11,11,3
.LVL370:
.LBB1768:
.LBB1765:
	.loc 9 375 0
	mullw. 3,11,3
.LVL371:
	ble- 0,.L312
	.loc 9 380 0
	cmpw 7,3,9
	beq- 7,.L301
.LVL372:
	.loc 9 387 0
	cmpw 7,0,3
	.loc 9 386 0
	stw 3,88(28)
	.loc 9 387 0
	ble- 7,.L280
	.loc 9 388 0
	stw 3,84(28)
.L280:
	.loc 9 392 0
	slwi 3,3,2
.LVL373:
	bl _Znaj
.LVL374:
	.loc 9 393 0
	lwz 0,84(28)
	.loc 9 392 0
	stw 3,96(28)
.LVL375:
	.loc 9 393 0
	cmpwi 7,0,0
	ble- 7,.L281
	.loc 5 1229 0
	addi 11,30,-4
.LBE1765:
.LBE1768:
	.loc 9 393 0
	li 9,0
	b .L282
.LVL376:
.L313:
.LBB1769:
.LBB1766:
	lwz 3,96(28)
.LVL377:
.L282:
	.loc 9 394 0
	lwzu 10,4(11)
	slwi 0,9,2
	.loc 9 393 0
	addi 9,9,1
.LVL378:
	.loc 9 394 0
	stwx 10,3,0
	.loc 9 393 0
	lwz 0,0(26)
	cmpw 7,9,0
	blt+ 7,.L313
.LVL379:
.L281:
	.loc 9 398 0
	cmpwi 7,30,0
	beq- 7,.L314
	.loc 9 399 0
	mr 3,30
	bl _ZdaPv
	lwz 0,84(28)
	lwz 30,96(28)
.LVL380:
	b .L301
.LVL381:
.L267:
.LBE1766:
.LBE1769:
.LBE1771:
.LBE1773:
	.loc 9 656 0
	lwz 3,92(28)
.LVL382:
.LBB1774:
.LBB1775:
	.loc 9 375 0
	cmpwi 7,3,0
.LBE1775:
.LBE1774:
	.loc 9 656 0
	mr 9,3
.LVL383:
.LBB1780:
.LBB1778:
	.loc 9 375 0
	ble- 7,.L315
	.loc 9 380 0
	lwz 0,88(28)
	cmpw 7,3,0
	lwz 0,84(28)
	beq- 7,.L268
.LVL384:
	.loc 9 387 0
	cmpw 7,3,0
	.loc 9 386 0
	stw 3,88(28)
	.loc 9 387 0
	bge- 7,.L272
	.loc 9 388 0
	stw 3,84(28)
.L272:
	.loc 9 392 0
	slwi 3,3,2
	bl _Znaj
.LEHE10:
.LVL385:
	.loc 9 393 0
	lwz 0,84(28)
	.loc 9 392 0
	mr 30,3
	stw 3,96(28)
.LVL386:
	.loc 9 393 0
	li 9,0
	cmpwi 7,0,0
	li 11,0
	bgt+ 7,.L299
	b .L318
.LVL387:
.L317:
	lwz 30,96(28)
.LVL388:
.L299:
	.loc 9 394 0
	lwz 0,0(9)
	.loc 9 393 0
	addi 11,11,1
.LVL389:
	.loc 9 394 0
	stwx 0,30,9
	.loc 9 393 0
	addi 9,9,4
	lwz 0,0(26)
	cmpw 7,11,0
	blt+ 7,.L317
	lwz 9,88(28)
	lwz 30,96(28)
	b .L268
.LVL390:
.L312:
.LBE1778:
.LBE1780:
.LBB1781:
.LBB1772:
.LBB1770:
.LBB1767:
.LBB1763:
.LBB1764:
	.loc 9 193 0
	cmpwi 7,30,0
	beq- 7,.L278
	.loc 9 194 0
	mr 3,30
.LVL391:
	bl _ZdaPv
.L278:
	.loc 9 197 0
	li 0,0
	.loc 9 199 0
	li 30,0
	.loc 9 197 0
	stw 0,96(28)
	.loc 9 198 0
	stw 0,84(28)
	.loc 9 199 0
	stw 0,88(28)
	b .L275
.LVL392:
.L314:
.LBE1764:
.LBE1763:
	.loc 9 398 0
	lwz 0,84(28)
	lwz 30,96(28)
.LVL393:
	slwi 0,0,2
	add 30,30,0
	b .L275
.LVL394:
.L296:
	mr 31,3
.LVL395:
.LBE1767:
.LBE1770:
.LBE1772:
.LBE1781:
.LBE1783:
.LBE1797:
.LBB1798:
.LBB1799:
.LBB1800:
	.loc 7 501 0
	mr 3,27
	bl _ZN5idStr8FreeDataEv
	mr 3,31
.LEHB11:
	bl _Unwind_Resume
.LEHE11:
.LVL396:
.L318:
.LBE1800:
.LBE1799:
.LBE1798:
.LBB1801:
.LBB1784:
.LBB1782:
.LBB1779:
	.loc 9 393 0
	lwz 9,88(28)
	b .L268
.LVL397:
.L315:
.LBB1776:
.LBB1777:
	.loc 9 198 0
	stw 30,84(28)
	.loc 9 199 0
	li 9,0
	stw 30,88(28)
	li 0,0
	b .L270
.LBE1777:
.LBE1776:
.LBE1779:
.LBE1782:
.LBE1784:
.LBE1801:
.LBE1805:
	.cfi_endproc
.LFE2606:
	.section	.gcc_except_table
.LLSDA2606:
	.byte	0xff
	.byte	0xff
	.byte	0x1
	.uleb128 .LLSDACSE2606-.LLSDACSB2606
.LLSDACSB2606:
	.uleb128 .LEHB8-.LFB2606
	.uleb128 .LEHE8-.LEHB8
	.uleb128 .L296-.LFB2606
	.uleb128 0
	.uleb128 .LEHB9-.LFB2606
	.uleb128 .LEHE9-.LEHB9
	.uleb128 0
	.uleb128 0
	.uleb128 .LEHB10-.LFB2606
	.uleb128 .LEHE10-.LEHB10
	.uleb128 .L296-.LFB2606
	.uleb128 0
	.uleb128 .LEHB11-.LFB2606
	.uleb128 .LEHE11-.LEHB11
	.uleb128 0
	.uleb128 0
.LLSDACSE2606:
	.section	".text"
	.size	_ZN14idImageManager13ImageFromFileEPKc15textureFilter_tb15textureRepeat_t14textureDepth_t11cubeFiles_t, .-_ZN14idImageManager13ImageFromFileEPKc15textureFilter_tb15textureRepeat_t14textureDepth_t11cubeFiles_t
	.align 2
	.globl _ZNK14idImageManager8GetImageEPKc
	.type	_ZNK14idImageManager8GetImageEPKc, @function
_ZNK14idImageManager8GetImageEPKc:
.LFB2607:
	.loc 5 1377 0
	.cfi_startproc
	.cfi_personality 0,__gxx_personality_v0
	.cfi_lsda 0,.LLSDA2607
.LVL398:
	stwu 1,-56(1)
.LCFI90:
	.cfi_def_cfa_offset 56
.LVL399:
	mflr 0
.LBB1806:
.LBB1807:
.LBB1808:
.LBB1809:
	.loc 7 357 0
	li 9,20
.LBE1809:
.LBE1808:
.LBE1807:
.LBE1806:
	.loc 5 1377 0
	stw 31,52(1)
.LBB1827:
	.loc 5 1382 0
	mr. 31,4
	.cfi_offset 31, -4
	.cfi_register 65, 0
.LBE1827:
	.loc 5 1377 0
	stw 0,60(1)
.LBB1828:
.LBB1814:
.LBB1812:
.LBB1810:
	.loc 7 356 0
	li 0,0
	.cfi_offset 65, 4
	.loc 7 357 0
	stw 9,16(1)
	.loc 7 358 0
	addi 9,1,20
.LBE1810:
.LBE1812:
.LBE1814:
.LBE1828:
	.loc 5 1377 0
	stw 29,44(1)
	mr 29,3
	.cfi_offset 29, -12
	stw 30,48(1)
.LBB1829:
.LBB1815:
.LBB1813:
.LBB1811:
	.loc 7 356 0
	stw 0,8(1)
	.loc 7 358 0
	stw 9,12(1)
	.loc 7 359 0
	stb 0,20(1)
.LBE1811:
.LBE1813:
.LBE1815:
	.loc 5 1382 0
	beq- 0,.L320
	.cfi_offset 30, -8
	.loc 5 1382 0 is_stmt 0 discriminator 2
	lbz 0,0(31)
	cmpwi 7,0,0
	bne- 7,.L333
.LVL400:
.L320:
	.loc 5 1383 0 is_stmt 1 discriminator 6
	lis 9,declManager@ha
	lis 4,.LC45@ha
	lwz 3,declManager@l(9)
	la 4,.LC45@l(4)
	addi 30,1,8
	lwz 9,0(3)
	lwz 0,96(9)
	mtctr 0
.LEHB12:
	crxor 6,6,6
	bctrl
.LEHE12:
	.loc 5 1384 0
	lis 9,globalImages@ha
	addi 30,1,8
	lwz 9,globalImages@l(9)
	lwz 31,0(9)
.LVL401:
.L322:
.LBB1816:
.LBB1817:
.LBB1818:
	.loc 7 501 0
	mr 3,30
.LEHB13:
	bl _ZN5idStr8FreeDataEv
.LEHE13:
.LBE1818:
.LBE1817:
.LBE1816:
.LBE1829:
	.loc 5 1403 0
	lwz 0,60(1)
	mr 3,31
	lwz 29,44(1)
	mtlr 0
	lwz 30,48(1)
	lwz 31,52(1)
	addi 1,1,56
	.cfi_remember_state
.LCFI91:
	.cfi_def_cfa_offset 0
	.cfi_restore 31
	.cfi_restore 30
	.cfi_restore 29
	blr
.LVL402:
.L333:
.LCFI92:
	.cfi_restore_state
.LBB1830:
	.loc 5 1382 0 discriminator 3
	lis 4,.LC43@ha
.LVL403:
	mr 3,31
.LVL404:
	la 4,.LC43@l(4)
	addi 30,1,8
.LEHB14:
	bl _ZN5idStr4IcmpEPKcS1_
	cmpwi 7,3,0
	beq+ 7,.L320
	.loc 5 1382 0 is_stmt 0 discriminator 4
	lis 4,.LC44@ha
	mr 3,31
	la 4,.LC44@l(4)
	addi 30,1,8
	bl _ZN5idStr4IcmpEPKcS1_
	cmpwi 7,3,0
	beq- 7,.L320
	.loc 5 1388 0 is_stmt 1
	addi 30,1,8
	mr 4,31
	mr 3,30
	bl _ZN5idStraSEPKc
	.loc 5 1389 0
	lis 4,.LC41@ha
	lis 5,.LC0@ha
	mr 3,30
	la 4,.LC41@l(4)
	la 5,.LC0@l(5)
	bl _ZN5idStr7ReplaceEPKcS1_
	.loc 5 1390 0
	mr 3,30
	bl _ZN5idStr20BackSlashesToSlashesEv
	.loc 5 1395 0
	mr 3,30
	bl _ZNK5idStr12FileNameHashEv
.LVL405:
	.loc 5 1396 0
	addi 0,3,296
	slwi 0,0,2
	add 29,29,0
.LVL406:
	lwz 31,4(29)
.LVL407:
	cmpwi 7,31,0
	bne+ 7,.L329
	b .L322
.LVL408:
.L334:
	lwz 31,1228(31)
.LVL409:
	cmpwi 7,31,0
	beq- 7,.L322
.LVL410:
.L329:
.LBB1821:
.LBB1822:
	.loc 7 690 0
	lwz 3,12(1)
	lwz 4,1132(31)
	bl _ZN5idStr4IcmpEPKcS1_
.LEHE14:
.LVL411:
.LBE1822:
.LBE1821:
	.loc 5 1397 0
	cmpwi 7,3,0
	bne+ 7,.L334
.LVL412:
.LBB1823:
.LBB1820:
.LBB1819:
	.loc 7 501 0
	mr 3,30
.LEHB15:
	bl _ZN5idStr8FreeDataEv
.LEHE15:
.LBE1819:
.LBE1820:
.LBE1823:
.LBE1830:
	.loc 5 1403 0
	lwz 0,60(1)
	mr 3,31
	lwz 29,44(1)
	mtlr 0
	lwz 30,48(1)
	lwz 31,52(1)
.LVL413:
	addi 1,1,56
	.cfi_remember_state
	.cfi_restore 29
	.cfi_restore 30
	.cfi_restore 31
.LCFI93:
	.cfi_def_cfa_offset 0
	blr
.LVL414:
.L328:
.LCFI94:
	.cfi_restore_state
	mr 31,3
.LVL415:
.LBB1831:
.LBB1824:
.LBB1825:
.LBB1826:
	.loc 7 501 0
	mr 3,30
	bl _ZN5idStr8FreeDataEv
	mr 3,31
.LEHB16:
	bl _Unwind_Resume
.LEHE16:
.LBE1826:
.LBE1825:
.LBE1824:
.LBE1831:
	.cfi_endproc
.LFE2607:
	.section	.gcc_except_table
.LLSDA2607:
	.byte	0xff
	.byte	0xff
	.byte	0x1
	.uleb128 .LLSDACSE2607-.LLSDACSB2607
.LLSDACSB2607:
	.uleb128 .LEHB12-.LFB2607
	.uleb128 .LEHE12-.LEHB12
	.uleb128 .L328-.LFB2607
	.uleb128 0
	.uleb128 .LEHB13-.LFB2607
	.uleb128 .LEHE13-.LEHB13
	.uleb128 0
	.uleb128 0
	.uleb128 .LEHB14-.LFB2607
	.uleb128 .LEHE14-.LEHB14
	.uleb128 .L328-.LFB2607
	.uleb128 0
	.uleb128 .LEHB15-.LFB2607
	.uleb128 .LEHE15-.LEHB15
	.uleb128 0
	.uleb128 0
	.uleb128 .LEHB16-.LFB2607
	.uleb128 .LEHE16-.LEHB16
	.uleb128 0
	.uleb128 0
.LLSDACSE2607:
	.section	".text"
	.size	_ZNK14idImageManager8GetImageEPKc, .-_ZNK14idImageManager8GetImageEPKc
	.align 2
	.globl _ZN14idImageManager14PurgeAllImagesEv
	.type	_ZN14idImageManager14PurgeAllImagesEv, @function
_ZN14idImageManager14PurgeAllImagesEv:
.LFB2608:
	.loc 5 1410 0
	.cfi_startproc
.LVL416:
	mflr 0
	stwu 1,-16(1)
.LCFI95:
	.cfi_def_cfa_offset 16
	.cfi_register 65, 0
	stw 30,8(1)
	mr 30,3
	.cfi_offset 30, -8
	stw 0,20(1)
	stw 31,12(1)
.LBB1832:
	.loc 5 1414 0
	lwz 0,84(3)
	.cfi_offset 31, -4
	.cfi_offset 65, 4
	cmpwi 7,0,0
	ble- 7,.L335
	li 31,0
.LVL417:
.L337:
	.loc 5 1415 0 discriminator 2
	lwz 9,96(30)
	slwi 0,31,2
	.loc 5 1414 0 discriminator 2
	addi 31,31,1
.LVL418:
	.loc 5 1416 0 discriminator 2
	lwzx 3,9,0
	bl _ZN7idImage10PurgeImageEv
.LVL419:
	.loc 5 1414 0 discriminator 2
	lwz 0,84(30)
	cmpw 7,0,31
	bgt+ 7,.L337
.LVL420:
.L335:
.LBE1832:
	.loc 5 1418 0
	lwz 0,20(1)
	lwz 30,8(1)
.LVL421:
	mtlr 0
	lwz 31,12(1)
	addi 1,1,16
.LCFI96:
	.cfi_def_cfa_offset 0
	.cfi_restore 31
	.cfi_restore 30
	blr
	.cfi_endproc
.LFE2608:
	.size	_ZN14idImageManager14PurgeAllImagesEv, .-_ZN14idImageManager14PurgeAllImagesEv
	.align 2
	.globl _ZN14idImageManager15ReloadAllImagesEv
	.type	_ZN14idImageManager15ReloadAllImagesEv, @function
_ZN14idImageManager15ReloadAllImagesEv:
.LFB2609:
	.loc 5 1425 0
	.cfi_startproc
.LVL422:
	mflr 0
	stwu 1,-2336(1)
.LCFI97:
	.cfi_def_cfa_offset 2336
	.cfi_register 65, 0
.LBB1833:
.LBB1834:
.LBB1835:
	.loc 5 1139 0
	lis 3,.LC39@ha
.LVL423:
.LBE1835:
.LBE1834:
.LBE1833:
	.loc 5 1425 0
	stw 31,2332(1)
.LBB1842:
.LBB1837:
.LBB1838:
	.loc 4 42 0
	mr 31,1
	.cfi_offset 31, -4
.LBE1838:
.LBE1837:
.LBE1842:
	.loc 5 1425 0
	stw 0,2340(1)
.LBB1843:
.LBB1840:
.LBB1839:
	.loc 4 42 0
	li 0,0
	.cfi_offset 65, 4
	stwu 0,8(31)
.LBE1839:
.LBE1840:
.LBB1841:
.LBB1836:
	.loc 5 1139 0
	la 3,.LC39@l(3)
	crxor 6,6,6
	bl _Z10Sys_PrintfPKcz
.LBE1836:
.LBE1841:
	.loc 5 1431 0
	lis 4,.LC51@ha
	mr 3,31
	la 4,.LC51@l(4)
	li 5,0
	bl _ZN9idCmdArgs14TokenizeStringEPKcb
	.loc 5 1432 0
	mr 3,31
	bl _Z16R_ReloadImages_fRK9idCmdArgs
.LBE1843:
	.loc 5 1433 0
	lwz 0,2340(1)
	lwz 31,2332(1)
	mtlr 0
	addi 1,1,2336
.LCFI98:
	.cfi_def_cfa_offset 0
	.cfi_restore 31
	blr
	.cfi_endproc
.LFE2609:
	.size	_ZN14idImageManager15ReloadAllImagesEv, .-_ZN14idImageManager15ReloadAllImagesEv
	.align 2
	.globl _ZN7idImage24StartBackgroundImageLoadEv
	.type	_ZN7idImage24StartBackgroundImageLoadEv, @function
_ZN7idImage24StartBackgroundImageLoadEv:
.LFB2611:
	.loc 5 1455 0
	.cfi_startproc
.LVL424:
	mflr 0
	stwu 1,-8(1)
.LCFI99:
	.cfi_def_cfa_offset 8
	.cfi_register 65, 0
	.loc 5 1456 0
	lis 3,.LC52@ha
.LVL425:
	la 3,.LC52@l(3)
	.loc 5 1455 0
	stw 0,12(1)
	.loc 5 1456 0
	.cfi_offset 65, 4
	crxor 6,6,6
	bl _Z10Sys_PrintfPKcz
	.loc 5 1457 0
	lwz 0,12(1)
	addi 1,1,8
.LCFI100:
	.cfi_def_cfa_offset 0
	mtlr 0
	blr
	.cfi_endproc
.LFE2611:
	.size	_ZN7idImage24StartBackgroundImageLoadEv, .-_ZN7idImage24StartBackgroundImageLoadEv
	.align 2
	.globl _ZN14idImageManager28CompleteBackgroundImageLoadsEv
	.type	_ZN14idImageManager28CompleteBackgroundImageLoadsEv, @function
_ZN14idImageManager28CompleteBackgroundImageLoadsEv:
.LFB2612:
	.loc 5 1467 0
	.cfi_startproc
.LVL426:
	mflr 0
	stwu 1,-48(1)
.LCFI101:
	.cfi_def_cfa_offset 48
	.cfi_register 65, 0
	stw 25,20(1)
	lis 25,.LANCHOR1@ha
	.cfi_offset 25, -28
	stw 27,28(1)
	la 25,.LANCHOR1@l(25)
	stw 28,32(1)
	addi 27,25,260
	.cfi_offset 28, -16
	.cfi_offset 27, -20
	stw 29,36(1)
	mr 28,3
	stw 0,52(1)
.LBB1844:
.LBB1845:
	.loc 5 1472 0
	li 29,0
	.cfi_offset 65, 4
	.cfi_offset 29, -12
.LBE1845:
.LBE1844:
	.loc 5 1467 0
	stw 23,12(1)
	stw 24,16(1)
	stw 26,24(1)
	stw 30,40(1)
	stw 31,44(1)
.LBB1853:
.LBB1848:
	.loc 5 1472 0
	lwz 31,5284(3)
	.cfi_offset 31, -4
	.cfi_offset 30, -8
	.cfi_offset 26, -24
	.cfi_offset 24, -32
	.cfi_offset 23, -36
.LVL427:
	cmpwi 7,31,0
	beq- 7,.L342
.LVL428:
	.loc 5 1481 0
	lis 24,.LC53@ha
	.loc 5 1476 0
	lis 26,fileSystem@ha
	.loc 5 1481 0
	lis 23,common@ha
	la 24,.LC53@l(24)
	b .L345
.LVL429:
.L343:
	.loc 5 1484 0
	stw 29,1124(31)
.LVL430:
	mr 29,31
.LVL431:
.L344:
	.loc 5 1472 0 discriminator 1
	cmpwi 7,30,0
	mr 31,30
	beq- 7,.L342
.LVL432:
.L345:
	.loc 5 1474 0
	lbz 0,1120(31)
	.loc 5 1473 0
	lwz 30,1124(31)
.LVL433:
	.loc 5 1474 0
	cmpwi 7,0,0
	beq+ 7,.L343
.LVL434:
	.loc 5 1475 0
	lwz 11,6528(28)
	.loc 5 1476 0
	lwz 9,fileSystem@l(26)
	.loc 5 1475 0
	addi 0,11,-1
	stw 0,6528(28)
	.loc 5 1476 0
	mr 3,9
	lwz 9,0(9)
	lwz 4,32(31)
	lwz 0,136(9)
	mtctr 0
	bctrl
.LVL435:
	.loc 5 1478 0
	lwz 4,44(31)
	lwz 5,40(31)
	mr 3,31
	bl _ZN7idImage24UploadPrecompressedImageEPhi
	.loc 5 1479 0
	lwz 3,44(31)
	bl _Z12R_StaticFreePv
.LBB1846:
.LBB1847:
	.loc 2 142 0
	lwz 9,44(27)
.LBE1847:
.LBE1846:
	.loc 5 1480 0
	lwz 0,36(9)
	cmpwi 7,0,0
	beq+ 7,.L344
	.loc 5 1481 0
	lwz 3,common@l(23)
	mr 4,24
	lwz 5,1132(31)
	.loc 5 1472 0
	mr 31,30
	.loc 5 1481 0
	lwz 9,0(3)
	lwz 0,68(9)
	mtctr 0
	crxor 6,6,6
	bctrl
.LVL436:
	.loc 5 1472 0
	cmpwi 7,30,0
	bne+ 7,.L345
.LVL437:
.L342:
.LBE1848:
.LBB1849:
.LBB1850:
.LBB1851:
	.loc 2 142 0
	lwz 9,44(27)
.LBE1851:
.LBE1850:
	.loc 5 1488 0
	lwz 0,36(9)
	cmpwi 7,0,0
	beq- 7,.L346
.LBB1852:
	.loc 5 1490 0
	lwz 5,6528(28)
	lwz 0,312(25)
	cmpw 7,5,0
	beq- 7,.L346
	.loc 5 1492 0
	lis 9,common@ha
	lis 4,.LC54@ha
	lwz 3,common@l(9)
	la 4,.LC54@l(4)
	.loc 5 1491 0
	stw 5,312(25)
	.loc 5 1492 0
	lwz 9,0(3)
	lwz 0,68(9)
	mtctr 0
	crxor 6,6,6
	bctrl
.L346:
.LBE1852:
.LBE1849:
	.loc 5 1496 0
	stw 29,5284(28)
.LBE1853:
	.loc 5 1497 0
	lwz 0,52(1)
	lwz 23,12(1)
	mtlr 0
	lwz 24,16(1)
	lwz 25,20(1)
	lwz 26,24(1)
	lwz 27,28(1)
	lwz 28,32(1)
.LVL438:
	lwz 29,36(1)
	lwz 30,40(1)
	lwz 31,44(1)
.LVL439:
	addi 1,1,48
.LCFI102:
	.cfi_def_cfa_offset 0
	.cfi_restore 31
	.cfi_restore 30
	.cfi_restore 29
	.cfi_restore 28
	.cfi_restore 27
	.cfi_restore 26
	.cfi_restore 25
	.cfi_restore 24
	.cfi_restore 23
	blr
	.cfi_endproc
.LFE2612:
	.size	_ZN14idImageManager28CompleteBackgroundImageLoadsEv, .-_ZN14idImageManager28CompleteBackgroundImageLoadsEv
	.align 2
	.globl _ZN14idImageManager10CheckCvarsEv
	.type	_ZN14idImageManager10CheckCvarsEv, @function
_ZN14idImageManager10CheckCvarsEv:
.LFB2613:
	.loc 5 1505 0
	.cfi_startproc
.LVL440:
	mflr 0
	stwu 1,-24(1)
.LCFI103:
	.cfi_def_cfa_offset 24
	.cfi_register 65, 0
.LBB1854:
.LBB1855:
	.loc 5 1507 0
	lis 9,.LANCHOR1@ha
.LBE1855:
.LBE1854:
	.loc 5 1505 0
	stw 29,12(1)
.LBB1859:
.LBB1856:
	.loc 5 1507 0
	la 9,.LANCHOR1@l(9)
.LBE1856:
.LBE1859:
	.loc 5 1505 0
	stw 30,16(1)
.LBB1860:
.LBB1857:
	.loc 5 1507 0
	addi 29,9,52
	.cfi_offset 30, -8
	.cfi_offset 29, -12
.LBE1857:
.LBE1860:
	.loc 5 1505 0
	stw 31,20(1)
	addi 30,9,104
	stw 0,28(1)
	addi 31,9,156
	.cfi_offset 65, 4
	.cfi_offset 31, -4
.LBB1861:
.LBB1858:
	.loc 2 137 0
	lwz 11,44(29)
	lwz 0,16(11)
.LBE1858:
.LBE1861:
	.loc 5 1507 0
	andis. 11,0,4
	beq- 0,.L355
.L350:
	.loc 5 1508 0 discriminator 5
	bl _ZN14idImageManager19ChangeTextureFilterEv
.LVL441:
	.loc 5 1509 0 discriminator 5
	lwz 9,44(29)
.LBB1862:
.LBB1863:
	.loc 2 139 0 discriminator 5
	lwz 0,16(9)
	rlwinm 0,0,0,14,12
	stw 0,16(9)
	.loc 5 1510 0 discriminator 5
	lwz 9,44(30)
.LBE1863:
.LBE1862:
.LBB1864:
.LBB1865:
	.loc 2 139 0 discriminator 5
	lwz 0,16(9)
	rlwinm 0,0,0,14,12
	stw 0,16(9)
	.loc 5 1511 0 discriminator 5
	lwz 9,44(31)
.LBE1865:
.LBE1864:
.LBB1866:
.LBB1867:
	.loc 2 139 0 discriminator 5
	lwz 0,16(9)
	rlwinm 0,0,0,14,12
	stw 0,16(9)
.LBE1867:
.LBE1866:
	.loc 5 1513 0 discriminator 5
	lwz 0,28(1)
	lwz 29,12(1)
	mtlr 0
	lwz 30,16(1)
	lwz 31,20(1)
	addi 1,1,24
	.cfi_remember_state
.LCFI104:
	.cfi_def_cfa_offset 0
	.cfi_restore 31
	.cfi_restore 30
	.cfi_restore 29
	blr
.LVL442:
.L355:
.LCFI105:
	.cfi_restore_state
.LBB1868:
.LBB1869:
	.loc 2 137 0 discriminator 2
	lwz 11,44(30)
	lwz 0,16(11)
.LBE1869:
.LBE1868:
	.loc 5 1507 0 discriminator 2
	andis. 11,0,4
	bne- 0,.L350
.LBB1870:
.LBB1871:
	.loc 2 137 0 discriminator 3
	lwz 9,44(31)
	lwz 0,16(9)
.LBE1871:
.LBE1870:
	.loc 5 1507 0 discriminator 3
	andis. 9,0,4
	bne- 0,.L350
	.loc 5 1513 0
	lwz 0,28(1)
	lwz 29,12(1)
	mtlr 0
	lwz 30,16(1)
	lwz 31,20(1)
	addi 1,1,24
	.cfi_restore 29
	.cfi_restore 30
	.cfi_restore 31
.LCFI106:
	.cfi_def_cfa_offset 0
	blr
	.cfi_endproc
.LFE2613:
	.size	_ZN14idImageManager10CheckCvarsEv, .-_ZN14idImageManager10CheckCvarsEv
	.align 2
	.globl _ZN14idImageManager15SumOfUsedImagesEv
	.type	_ZN14idImageManager15SumOfUsedImagesEv, @function
_ZN14idImageManager15SumOfUsedImagesEv:
.LFB2614:
	.loc 5 1520 0
	.cfi_startproc
.LVL443:
	mflr 0
	stwu 1,-24(1)
.LCFI107:
	.cfi_def_cfa_offset 24
	.cfi_register 65, 0
	stw 28,8(1)
.LBB1872:
	.loc 5 1525 0
	li 28,0
	.cfi_offset 28, -16
.LBE1872:
	.loc 5 1520 0
	stw 30,16(1)
	mr 30,3
	.cfi_offset 30, -8
	stw 0,28(1)
	stw 29,12(1)
	stw 31,20(1)
.LBB1873:
	.loc 5 1526 0
	lwz 0,84(3)
	.cfi_offset 31, -4
	.cfi_offset 29, -12
	.cfi_offset 65, 4
	cmpwi 7,0,0
	ble- 7,.L357
	lis 29,backEnd@ha
	li 31,0
	la 29,backEnd@l(29)
	b .L359
.LVL444:
.L358:
	cmpw 7,0,31
	ble- 7,.L357
.LVL445:
.L359:
	.loc 5 1527 0
	lwz 11,96(30)
	slwi 9,31,2
	.loc 5 1526 0
	addi 31,31,1
.LVL446:
	.loc 5 1527 0
	lwzx 3,11,9
.LVL447:
	.loc 5 1528 0
	lwz 9,0(29)
.LVL448:
	lwz 11,8(3)
	cmpw 7,11,9
	bne+ 7,.L358
	.loc 5 1529 0
	bl _ZNK7idImage11StorageSizeEv
.LVL449:
	lwz 0,84(30)
	add 28,28,3
.LVL450:
	.loc 5 1526 0
	cmpw 7,0,31
	bgt+ 7,.L359
.LVL451:
.L357:
.LBE1873:
	.loc 5 1534 0
	lwz 0,28(1)
	mr 3,28
	lwz 29,12(1)
	mtlr 0
	lwz 28,8(1)
	lwz 30,16(1)
.LVL452:
	lwz 31,20(1)
	addi 1,1,24
.LCFI108:
	.cfi_def_cfa_offset 0
	.cfi_restore 31
	.cfi_restore 30
	.cfi_restore 29
	.cfi_restore 28
	blr
	.cfi_endproc
.LFE2614:
	.size	_ZN14idImageManager15SumOfUsedImagesEv, .-_ZN14idImageManager15SumOfUsedImagesEv
	.align 2
	.globl _ZN14idImageManager8BindNullEv
	.type	_ZN14idImageManager8BindNullEv, @function
_ZN14idImageManager8BindNullEv:
.LFB2615:
	.loc 5 1541 0
	.cfi_startproc
.LVL453:
	mflr 0
	stwu 1,-16(1)
.LCFI109:
	.cfi_def_cfa_offset 16
	.cfi_register 65, 0
.LBB1874:
	.loc 5 1544 0
	lis 9,backEnd@ha
	.loc 5 1546 0
	lis 3,.LC55@ha
.LVL454:
.LBE1874:
	.loc 5 1541 0
	stw 31,12(1)
.LBB1875:
	.loc 5 1544 0
	la 9,backEnd@l(9)
.LBE1875:
	.loc 5 1541 0
	stw 0,20(1)
.LBB1876:
	.loc 5 1546 0
	la 3,.LC55@l(3)
	.loc 5 1544 0
	lwz 31,356(9)
	.cfi_offset 65, 4
	.cfi_offset 31, -4
	mulli 31,31,20
	add 9,9,31
	addi 31,9,196
.LVL455:
	.loc 5 1546 0
	crxor 6,6,6
	bl _Z13RB_LogCommentPKcz
	.loc 5 1556 0
	li 0,0
	stw 0,16(31)
.LBE1876:
	.loc 5 1557 0
	lwz 0,20(1)
	lwz 31,12(1)
.LVL456:
	mtlr 0
	addi 1,1,16
.LCFI110:
	.cfi_def_cfa_offset 0
	.cfi_restore 31
	blr
	.cfi_endproc
.LFE2615:
	.size	_ZN14idImageManager8BindNullEv, .-_ZN14idImageManager8BindNullEv
	.align 2
	.globl _ZN14idImageManager4InitEv
	.type	_ZN14idImageManager4InitEv, @function
_ZN14idImageManager4InitEv:
.LFB2616:
	.loc 5 1564 0
	.cfi_startproc
.LVL457:
	stwu 1,-24(1)
.LCFI111:
	.cfi_def_cfa_offset 24
	mflr 0
	.loc 5 1566 0
	li 4,0
	li 5,4096
	.loc 5 1564 0
	stw 30,16(1)
	mr 30,3
	.cfi_offset 30, -8
	.cfi_register 65, 0
	.loc 5 1566 0
	addi 3,3,1188
.LVL458:
	.loc 5 1564 0
	stw 0,28(1)
	stw 31,20(1)
	stw 29,12(1)
	.loc 5 1566 0
	.cfi_offset 29, -12
	.cfi_offset 31, -4
	.cfi_offset 65, 4
	bl memset
.LVL459:
.LBB1877:
.LBB1878:
	.loc 9 429 0
	lwz 9,84(30)
	.loc 9 419 0
	li 0,1024
	stw 0,92(30)
	.loc 9 429 0
	cmpwi 7,9,1024
	.loc 9 427 0
	lwz 31,96(30)
.LVL460:
	.loc 9 428 0
	stw 0,88(30)
	.loc 9 429 0
	ble- 7,.L364
	.loc 9 430 0
	stw 0,84(30)
.L364:
	.loc 9 434 0
	li 3,4096
	bl _Znaj
.LVL461:
	.loc 9 435 0
	lwz 0,84(30)
	.loc 9 434 0
	stw 3,96(30)
.LVL462:
	.loc 9 435 0
	cmpwi 7,0,0
	ble- 7,.L365
	.loc 5 1564 0
	addi 11,31,-4
.LBE1878:
.LBE1877:
	.loc 9 435 0
	li 9,0
	b .L366
.LVL463:
.L368:
.LBB1880:
.LBB1879:
	lwz 3,96(30)
.LVL464:
.L366:
	.loc 9 436 0
	lwzu 10,4(11)
	slwi 0,9,2
	.loc 9 435 0
	addi 9,9,1
.LVL465:
	.loc 9 436 0
	stwx 10,3,0
	.loc 9 435 0
	lwz 0,84(30)
	cmpw 7,9,0
	blt+ 7,.L368
.LVL466:
.L365:
	.loc 9 440 0
	cmpwi 7,31,0
	beq- 7,.L367
	.loc 9 441 0
	mr 3,31
	bl _ZdaPv
.L367:
.LBE1879:
.LBE1880:
	.loc 5 1571 0
	addi 0,30,5288
	.loc 5 1575 0
	mr 3,30
	.loc 5 1571 0
	stw 0,6512(30)
	.loc 5 1586 0
	lis 31,_ZL11R_RampImageP7idImage@ha
.LVL467:
	.loc 5 1572 0
	stw 0,6508(30)
	.loc 5 1586 0
	la 31,_ZL11R_RampImageP7idImage@l(31)
	.loc 5 1591 0
	lis 29,_ZL26makeNormalizeVectorCubeMapP7idImage@ha
	.loc 5 1575 0
	bl _ZN14idImageManager19ChangeTextureFilterEv
	.loc 5 1578 0
	lis 4,.LC44@ha
	lis 5,_ZL14R_DefaultImageP7idImage@ha
	la 4,.LC44@l(4)
	la 5,_ZL14R_DefaultImageP7idImage@l(5)
	mr 3,30
	bl _ZN14idImageManager17ImageFromFunctionEPKcPFvP7idImageE
	.loc 5 1579 0
	lis 4,.LC56@ha
	.loc 5 1578 0
	stw 3,0(30)
	.loc 5 1579 0
	lis 5,_ZL12R_WhiteImageP7idImage@ha
	la 4,.LC56@l(4)
	la 5,_ZL12R_WhiteImageP7idImage@l(5)
	mr 3,30
	.loc 5 1591 0
	la 29,_ZL26makeNormalizeVectorCubeMapP7idImage@l(29)
	.loc 5 1579 0
	bl _ZN14idImageManager17ImageFromFunctionEPKcPFvP7idImageE
	.loc 5 1580 0
	lis 4,.LC57@ha
	.loc 5 1579 0
	stw 3,24(30)
	.loc 5 1580 0
	lis 5,_ZL12R_BlackImageP7idImage@ha
	la 4,.LC57@l(4)
	la 5,_ZL12R_BlackImageP7idImage@l(5)
	mr 3,30
	bl _ZN14idImageManager17ImageFromFunctionEPKcPFvP7idImageE
	.loc 5 1581 0
	lis 4,.LC58@ha
	.loc 5 1580 0
	stw 3,28(30)
	.loc 5 1581 0
	lis 5,_ZL18R_BorderClampImageP7idImage@ha
	la 4,.LC58@l(4)
	la 5,_ZL18R_BorderClampImageP7idImage@l(5)
	mr 3,30
	bl _ZN14idImageManager17ImageFromFunctionEPKcPFvP7idImageE
	.loc 5 1582 0
	lis 4,.LC59@ha
	.loc 5 1581 0
	stw 3,80(30)
	.loc 5 1582 0
	lis 5,_ZL17R_FlatNormalImageP7idImage@ha
	la 4,.LC59@l(4)
	la 5,_ZL17R_FlatNormalImageP7idImage@l(5)
	mr 3,30
	bl _ZN14idImageManager17ImageFromFunctionEPKcPFvP7idImageE
	.loc 5 1583 0
	lis 4,.LC60@ha
	.loc 5 1582 0
	stw 3,4(30)
	.loc 5 1583 0
	lis 5,_ZL20R_AmbientNormalImageP7idImage@ha
	la 4,.LC60@l(4)
	la 5,_ZL20R_AmbientNormalImageP7idImage@l(5)
	mr 3,30
	bl _ZN14idImageManager17ImageFromFunctionEPKcPFvP7idImageE
	.loc 5 1584 0
	lis 4,.LC61@ha
	.loc 5 1583 0
	stw 3,8(30)
	.loc 5 1584 0
	lis 5,_ZL20R_SpecularTableImageP7idImage@ha
	la 4,.LC61@l(4)
	la 5,_ZL20R_SpecularTableImageP7idImage@l(5)
	mr 3,30
	bl _ZN14idImageManager17ImageFromFunctionEPKcPFvP7idImageE
	.loc 5 1585 0
	lis 4,.LC62@ha
	.loc 5 1584 0
	stw 3,72(30)
	.loc 5 1585 0
	lis 5,_ZL22R_Specular2DTableImageP7idImage@ha
	la 4,.LC62@l(4)
	la 5,_ZL22R_Specular2DTableImageP7idImage@l(5)
	mr 3,30
	bl _ZN14idImageManager17ImageFromFunctionEPKcPFvP7idImageE
	.loc 5 1586 0
	lis 4,.LC63@ha
	.loc 5 1585 0
	stw 3,76(30)
	.loc 5 1586 0
	mr 5,31
	la 4,.LC63@l(4)
	mr 3,30
	bl _ZN14idImageManager17ImageFromFunctionEPKcPFvP7idImageE
	.loc 5 1587 0
	lis 4,.LC64@ha
	.loc 5 1586 0
	stw 3,12(30)
	.loc 5 1587 0
	mr 5,31
	la 4,.LC64@l(4)
	mr 3,30
	bl _ZN14idImageManager17ImageFromFunctionEPKcPFvP7idImageE
	.loc 5 1588 0
	lis 4,.LC65@ha
	.loc 5 1587 0
	stw 3,16(30)
	.loc 5 1588 0
	lis 5,_ZL17R_AlphaNotchImageP7idImage@ha
	la 4,.LC65@l(4)
	la 5,_ZL17R_AlphaNotchImageP7idImage@l(5)
	mr 3,30
	.loc 5 1597 0
	lis 31,_ZL12R_RGBA8ImageP7idImage@ha
	.loc 5 1588 0
	bl _ZN14idImageManager17ImageFromFunctionEPKcPFvP7idImageE
	.loc 5 1589 0
	lis 4,.LC66@ha
	.loc 5 1588 0
	stw 3,20(30)
	.loc 5 1589 0
	lis 5,_Z10R_FogImageP7idImage@ha
	la 4,.LC66@l(4)
	la 5,_Z10R_FogImageP7idImage@l(5)
	mr 3,30
	.loc 5 1597 0
	la 31,_ZL12R_RGBA8ImageP7idImage@l(31)
	.loc 5 1589 0
	bl _ZN14idImageManager17ImageFromFunctionEPKcPFvP7idImageE
	.loc 5 1590 0
	lis 4,.LC67@ha
	.loc 5 1589 0
	stw 3,40(30)
	.loc 5 1590 0
	lis 5,_Z15R_FogEnterImageP7idImage@ha
	la 4,.LC67@l(4)
	la 5,_Z15R_FogEnterImageP7idImage@l(5)
	mr 3,30
	bl _ZN14idImageManager17ImageFromFunctionEPKcPFvP7idImageE
	.loc 5 1591 0
	lis 4,.LC68@ha
	.loc 5 1590 0
	stw 3,44(30)
	.loc 5 1591 0
	mr 5,29
	la 4,.LC68@l(4)
	mr 3,30
	bl _ZN14idImageManager17ImageFromFunctionEPKcPFvP7idImageE
	.loc 5 1592 0
	lis 4,.LC69@ha
	.loc 5 1591 0
	stw 3,32(30)
	.loc 5 1592 0
	lis 5,_ZL22R_CreateNoFalloffImageP7idImage@ha
	la 4,.LC69@l(4)
	la 5,_ZL22R_CreateNoFalloffImageP7idImage@l(5)
	mr 3,30
	bl _ZN14idImageManager17ImageFromFunctionEPKcPFvP7idImageE
	.loc 5 1593 0
	lis 4,.LC70@ha
	.loc 5 1592 0
	stw 3,36(30)
	.loc 5 1593 0
	lis 5,_Z16R_QuadraticImageP7idImage@ha
	la 4,.LC70@l(4)
	la 5,_Z16R_QuadraticImageP7idImage@l(5)
	mr 3,30
	bl _ZN14idImageManager17ImageFromFunctionEPKcPFvP7idImageE
	.loc 5 1597 0
	lis 4,.LC71@ha
	mr 5,31
	la 4,.LC71@l(4)
	mr 3,30
	bl _ZN14idImageManager17ImageFromFunctionEPKcPFvP7idImageE
	.loc 5 1598 0
	lis 4,.LC72@ha
	.loc 5 1597 0
	stw 3,48(30)
	.loc 5 1598 0
	mr 5,31
	la 4,.LC72@l(4)
	mr 3,30
	bl _ZN14idImageManager17ImageFromFunctionEPKcPFvP7idImageE
	.loc 5 1599 0
	lis 4,.LC73@ha
	.loc 5 1598 0
	stw 3,52(30)
	.loc 5 1599 0
	mr 5,31
	la 4,.LC73@l(4)
	mr 3,30
	bl _ZN14idImageManager17ImageFromFunctionEPKcPFvP7idImageE
	.loc 5 1600 0
	lis 4,.LC74@ha
	.loc 5 1599 0
	stw 3,56(30)
	.loc 5 1600 0
	mr 5,31
	la 4,.LC74@l(4)
	mr 3,30
	bl _ZN14idImageManager17ImageFromFunctionEPKcPFvP7idImageE
	.loc 5 1601 0
	lis 4,.LC75@ha
	.loc 5 1600 0
	stw 3,60(30)
	.loc 5 1601 0
	mr 5,29
	la 4,.LC75@l(4)
	mr 3,30
	bl _ZN14idImageManager17ImageFromFunctionEPKcPFvP7idImageE
	.loc 5 1602 0
	lis 4,.LC76@ha
	.loc 5 1601 0
	stw 3,68(30)
	.loc 5 1602 0
	mr 5,31
	la 4,.LC76@l(4)
	mr 3,30
	bl _ZN14idImageManager17ImageFromFunctionEPKcPFvP7idImageE
	.loc 5 1604 0
	lis 31,cmdSystem@ha
	.loc 5 1602 0
	stw 3,64(30)
	.loc 5 1604 0
	lis 4,.LC77@ha
	lwz 3,cmdSystem@l(31)
	lis 5,_Z16R_ReloadImages_fRK9idCmdArgs@ha
	lis 7,.LC78@ha
	la 4,.LC77@l(4)
	lwz 9,0(3)
	la 5,_Z16R_ReloadImages_fRK9idCmdArgs@l(5)
	li 6,4
	la 7,.LC78@l(7)
	lwz 0,16(9)
	li 8,0
	mtctr 0
	bctrl
	.loc 5 1605 0
	lwz 3,cmdSystem@l(31)
	lis 4,.LC79@ha
	lis 5,_Z14R_ListImages_fRK9idCmdArgs@ha
	lwz 9,0(3)
	lis 7,.LC80@ha
	la 4,.LC79@l(4)
	la 5,_Z14R_ListImages_fRK9idCmdArgs@l(5)
	lwz 0,16(9)
	li 6,4
	la 7,.LC80@l(7)
	li 8,0
	mtctr 0
	bctrl
	.loc 5 1606 0
	lwz 3,cmdSystem@l(31)
	lis 4,.LC81@ha
	lis 5,_Z21R_CombineCubeImages_fRK9idCmdArgs@ha
	lwz 9,0(3)
	lis 7,.LC82@ha
	la 4,.LC81@l(4)
	la 5,_Z21R_CombineCubeImages_fRK9idCmdArgs@l(5)
	lwz 0,16(9)
	li 6,4
	la 7,.LC82@l(7)
	li 8,0
	mtctr 0
	bctrl
	.loc 5 1609 0
	lwz 0,28(1)
	lwz 29,12(1)
	mtlr 0
	lwz 30,16(1)
.LVL468:
	lwz 31,20(1)
	addi 1,1,24
.LCFI112:
	.cfi_def_cfa_offset 0
	.cfi_restore 31
	.cfi_restore 30
	.cfi_restore 29
	blr
	.cfi_endproc
.LFE2616:
	.size	_ZN14idImageManager4InitEv, .-_ZN14idImageManager4InitEv
	.align 2
	.globl _ZN14idImageManager8ShutdownEv
	.type	_ZN14idImageManager8ShutdownEv, @function
_ZN14idImageManager8ShutdownEv:
.LFB2617:
	.loc 5 1617 0
	.cfi_startproc
	.cfi_personality 0,__gxx_personality_v0
	.cfi_lsda 0,.LLSDA2617
.LVL469:
	mflr 0
	stwu 1,-32(1)
.LCFI113:
	.cfi_def_cfa_offset 32
	.cfi_register 65, 0
	stw 28,16(1)
	mr 28,3
	.cfi_offset 28, -16
.LVL470:
	stw 0,36(1)
	stw 27,12(1)
	stw 29,20(1)
	stw 30,24(1)
	stw 31,28(1)
.LBB1907:
.LBB1908:
	.loc 9 218 0
	lwz 0,84(3)
	.cfi_offset 31, -4
	.cfi_offset 30, -8
	.cfi_offset 29, -12
	.cfi_offset 27, -20
	.cfi_offset 65, 4
	cmpwi 7,0,0
	ble- 7,.L370
.LVL471:
	li 30,0
	.loc 9 220 0
	li 27,0
.LVL472:
.L381:
	.loc 9 219 0
	lwz 9,96(28)
	.loc 5 1617 0
	slwi 29,30,2
	.loc 9 219 0
	lwzx 31,9,29
	add 9,9,29
	cmpwi 7,31,0
	beq- 7,.L371
.LVL473:
.LBB1909:
.LBB1910:
.LBB1911:
.LBB1912:
.LBB1913:
.LBB1914:
	.loc 7 501 0
	addi 3,31,1128
.LEHB17:
	bl _ZN5idStr8FreeDataEv
.LEHE17:
.LVL474:
.LBE1914:
.LBE1913:
.LBE1912:
.LBB1915:
.LBB1916:
.LBB1917:
.LBB1918:
.LBB1919:
.LBB1920:
.LBB1921:
.LBB1922:
	addi 3,31,48
.LEHB18:
	bl _ZN5idStr8FreeDataEv
.LEHE18:
.LBE1922:
.LBE1921:
.LBE1920:
.LBE1919:
.LBE1918:
.LBE1917:
.LBE1916:
.LBE1915:
.LBE1911:
.LBE1910:
.LBE1909:
	.loc 9 219 0
	mr 3,31
	bl _ZdlPv
	lwz 9,96(28)
	add 9,9,29
.LVL475:
.L371:
	.loc 9 220 0
	stw 27,0(9)
	.loc 9 218 0
	addi 30,30,1
.LVL476:
	lwz 0,84(28)
	cmpw 7,30,0
	blt+ 7,.L381
.LVL477:
.L370:
.LBB1933:
.LBB1934:
	.loc 9 193 0
	lwz 3,96(28)
	cmpwi 7,3,0
	beq- 7,.L382
	.loc 9 194 0
	bl _ZdaPv
.L382:
	.loc 9 197 0
	li 0,0
	stw 0,96(28)
	.loc 9 198 0
	stw 0,84(28)
	.loc 9 199 0
	stw 0,88(28)
.LBE1934:
.LBE1933:
.LBE1908:
.LBE1907:
	.loc 5 1619 0
	lwz 0,36(1)
	lwz 27,12(1)
	mtlr 0
	lwz 28,16(1)
.LVL478:
	lwz 29,20(1)
	lwz 30,24(1)
	lwz 31,28(1)
	addi 1,1,32
	.cfi_remember_state
.LCFI114:
	.cfi_def_cfa_offset 0
	.cfi_restore 31
	.cfi_restore 30
	.cfi_restore 29
	.cfi_restore 28
	.cfi_restore 27
	blr
.LVL479:
.L383:
.LCFI115:
	.cfi_restore_state
	mr 30,3
.LVL480:
.LBB1937:
.LBB1936:
.LBB1935:
.LBB1932:
.LBB1931:
.LBB1923:
.LBB1924:
.LBB1925:
.LBB1926:
.LBB1927:
.LBB1928:
.LBB1929:
.LBB1930:
	.loc 7 501 0
	addi 3,31,48
	bl _ZN5idStr8FreeDataEv
	mr 3,30
.LEHB19:
	bl _Unwind_Resume
.LEHE19:
.LBE1930:
.LBE1929:
.LBE1928:
.LBE1927:
.LBE1926:
.LBE1925:
.LBE1924:
.LBE1923:
.LBE1931:
.LBE1932:
.LBE1935:
.LBE1936:
.LBE1937:
	.cfi_endproc
.LFE2617:
	.section	.gcc_except_table
.LLSDA2617:
	.byte	0xff
	.byte	0xff
	.byte	0x1
	.uleb128 .LLSDACSE2617-.LLSDACSB2617
.LLSDACSB2617:
	.uleb128 .LEHB17-.LFB2617
	.uleb128 .LEHE17-.LEHB17
	.uleb128 .L383-.LFB2617
	.uleb128 0
	.uleb128 .LEHB18-.LFB2617
	.uleb128 .LEHE18-.LEHB18
	.uleb128 0
	.uleb128 0
	.uleb128 .LEHB19-.LFB2617
	.uleb128 .LEHE19-.LEHB19
	.uleb128 0
	.uleb128 0
.LLSDACSE2617:
	.section	".text"
	.size	_ZN14idImageManager8ShutdownEv, .-_ZN14idImageManager8ShutdownEv
	.align 2
	.globl _ZN14idImageManager14BeginLevelLoadEv
	.type	_ZN14idImageManager14BeginLevelLoadEv, @function
_ZN14idImageManager14BeginLevelLoadEv:
.LFB2618:
	.loc 5 1632 0
	.cfi_startproc
.LVL481:
	mflr 0
	stwu 1,-32(1)
.LCFI116:
	.cfi_def_cfa_offset 32
	.cfi_register 65, 0
	stw 29,20(1)
	mr 29,3
	.cfi_offset 29, -12
	stw 0,36(1)
.LBB1938:
	.loc 5 1633 0
	li 0,1
	.cfi_offset 65, 4
.LBE1938:
	.loc 5 1632 0
	stw 27,12(1)
	stw 28,16(1)
	stw 30,24(1)
	stw 31,28(1)
.LBB1949:
	.loc 5 1633 0
	stb 0,144(3)
.LVL482:
.LBB1939:
	.loc 5 1635 0
	lwz 11,84(3)
	cmpwi 7,11,0
	ble- 7,.L385
	.cfi_offset 31, -4
	.cfi_offset 30, -8
	.cfi_offset 28, -16
	.cfi_offset 27, -20
	li 31,0
.LBB1940:
.LBB1941:
.LBB1942:
	.loc 5 1643 0
	lis 27,com_purgeAll@ha
.LBE1942:
.LBE1941:
	.loc 5 1647 0
	li 28,0
	b .L389
.LVL483:
.L387:
.LBE1940:
	.loc 5 1635 0
	cmpw 7,11,31
	ble- 7,.L385
.LVL484:
.L389:
.LBB1945:
	.loc 5 1636 0
	lwz 9,96(29)
	slwi 0,31,2
.LBE1945:
	.loc 5 1635 0
	addi 31,31,1
.LVL485:
.LBB1946:
	.loc 5 1636 0
	lwzx 30,9,0
.LVL486:
	.loc 5 1639 0
	lwz 0,1160(30)
.LVL487:
	cmpwi 7,0,0
	bne+ 7,.L387
.LBB1944:
.LBB1943:
	.loc 5 1643 0
	la 9,com_purgeAll@l(27)
	.loc 2 142 0
	lwz 9,44(9)
.LBE1943:
.LBE1944:
	.loc 5 1643 0
	lwz 0,36(9)
	cmpwi 7,0,0
	bne- 7,.L391
.L388:
	.loc 5 1647 0
	stb 28,1185(30)
	lwz 11,84(29)
.LVL488:
.LBE1946:
	.loc 5 1635 0
	cmpw 7,11,31
	bgt+ 7,.L389
.LVL489:
.L385:
.LBE1939:
.LBE1949:
	.loc 5 1649 0
	lwz 0,36(1)
	lwz 27,12(1)
	mtlr 0
	lwz 28,16(1)
	lwz 29,20(1)
.LVL490:
	lwz 30,24(1)
	lwz 31,28(1)
	addi 1,1,32
	.cfi_remember_state
.LCFI117:
	.cfi_def_cfa_offset 0
	.cfi_restore 31
	.cfi_restore 30
	.cfi_restore 29
	.cfi_restore 28
	.cfi_restore 27
	blr
.LVL491:
.L391:
.LCFI118:
	.cfi_restore_state
.LBB1950:
.LBB1948:
.LBB1947:
	.loc 5 1644 0
	mr 3,30
	bl _ZN7idImage10PurgeImageEv
	b .L388
.LBE1947:
.LBE1948:
.LBE1950:
	.cfi_endproc
.LFE2618:
	.size	_ZN14idImageManager14BeginLevelLoadEv, .-_ZN14idImageManager14BeginLevelLoadEv
	.align 2
	.globl _ZN14idImageManager12EndLevelLoadEv
	.type	_ZN14idImageManager12EndLevelLoadEv, @function
_ZN14idImageManager12EndLevelLoadEv:
.LFB2619:
	.loc 5 1665 0
	.cfi_startproc
.LVL492:
	mflr 0
	stwu 1,-48(1)
.LCFI119:
	.cfi_def_cfa_offset 48
	.cfi_register 65, 0
	stw 27,28(1)
	stw 0,52(1)
	stw 30,40(1)
	mr 30,3
	.cfi_offset 30, -8
	.cfi_offset 65, 4
	.cfi_offset 27, -20
	stw 24,16(1)
	stw 25,20(1)
	stw 26,24(1)
	stw 28,32(1)
	stw 29,36(1)
	stw 31,44(1)
.LBB1951:
	.loc 5 1666 0
	.cfi_offset 31, -4
	.cfi_offset 29, -12
	.cfi_offset 28, -16
	.cfi_offset 26, -24
	.cfi_offset 25, -28
	.cfi_offset 24, -32
	bl _Z16Sys_Millisecondsv
.LVL493:
	.loc 5 1668 0
	li 0,0
.LBB1952:
.LBB1953:
	.loc 2 143 0
	lis 9,_ZN14idAsyncNetwork15serverDedicatedE+44@ha
.LBE1953:
.LBE1952:
	.loc 5 1668 0
	stb 0,144(30)
	.loc 5 1666 0
	mr 27,3
.LVL494:
.LBB1955:
.LBB1954:
	.loc 2 143 0
	lwz 9,_ZN14idAsyncNetwork15serverDedicatedE+44@l(9)
.LBE1954:
.LBE1955:
	.loc 5 1669 0
	lwz 0,36(9)
	cmpwi 7,0,0
	beq- 7,.L407
.LBE1951:
	.loc 5 1720 0
	lwz 0,52(1)
	lwz 24,16(1)
	mtlr 0
	lwz 25,20(1)
	lwz 26,24(1)
	lwz 27,28(1)
	lwz 28,32(1)
	lwz 29,36(1)
	lwz 30,40(1)
.LVL495:
	lwz 31,44(1)
	addi 1,1,48
	.cfi_remember_state
.LCFI120:
	.cfi_def_cfa_offset 0
	.cfi_restore 31
	.cfi_restore 30
	.cfi_restore 29
	.cfi_restore 28
	.cfi_restore 27
	.cfi_restore 26
	.cfi_restore 25
	.cfi_restore 24
	blr
.LVL496:
.L407:
.LCFI121:
	.cfi_restore_state
.LBB1967:
	.loc 5 1673 0
	lis 29,common@ha
	lis 4,.LC83@ha
	lwz 3,common@l(29)
.LVL497:
	la 4,.LC83@l(4)
	lwz 9,0(3)
	lwz 0,68(9)
	mtctr 0
	crxor 6,6,6
	bctrl
.LVL498:
.LBB1956:
	.loc 5 1680 0
	lwz 0,84(30)
	cmpwi 7,0,0
	ble- 7,.L400
	li 31,0
	li 28,0
	li 26,0
	b .L397
.LVL499:
.L395:
	addi 31,31,1
.LVL500:
	cmpw 7,0,31
	ble- 7,.L408
.LVL501:
.L397:
.LBB1957:
	.loc 5 1681 0
	lwz 11,96(30)
	slwi 9,31,2
	lwzx 3,11,9
.LVL502:
	.loc 5 1682 0
	lwz 9,1160(3)
.LVL503:
	cmpwi 7,9,0
	bne+ 7,.L395
	.loc 5 1686 0
	lbz 9,1185(3)
	cmpwi 7,9,0
	bne- 7,.L396
	.loc 5 1686 0 is_stmt 0 discriminator 1
	lbz 9,1184(3)
	cmpwi 7,9,0
	beq- 7,.L409
.L396:
	.loc 5 1690 0 is_stmt 1
	lwz 9,0(3)
	cmpwi 7,9,-1
	beq- 7,.L395
.LBE1957:
	.loc 5 1680 0
	addi 31,31,1
.LVL504:
.LBB1958:
	.loc 5 1692 0
	addi 28,28,1
.LVL505:
.LBE1958:
	.loc 5 1680 0
	cmpw 7,0,31
	bgt+ 7,.L397
.LVL506:
.L408:
.LBE1956:
.LBB1960:
	.loc 5 1697 0
	cmpwi 7,0,0
	li 25,0
	ble- 7,.L394
	li 31,0
.LVL507:
.LBB1961:
	.loc 5 1709 0
	lis 24,session@ha
	b .L399
.LVL508:
.L398:
.LBE1961:
	.loc 5 1697 0
	addi 31,31,1
.LVL509:
	cmpw 7,0,31
	ble- 7,.L394
.LVL510:
.L399:
.LBB1962:
	.loc 5 1698 0
	lwz 11,96(30)
	slwi 9,31,2
	lwzx 3,11,9
.LVL511:
	.loc 5 1699 0
	lwz 9,1160(3)
.LVL512:
	cmpwi 7,9,0
	bne+ 7,.L398
	.loc 5 1703 0
	lbz 9,1185(3)
	cmpwi 7,9,0
	beq- 7,.L398
	.loc 5 1703 0 is_stmt 0 discriminator 1
	lwz 9,0(3)
	cmpwi 7,9,-1
	bne+ 7,.L398
	.loc 5 1703 0 discriminator 2
	lwz 9,16(3)
	cmpwi 7,9,0
	bne+ 7,.L398
	.loc 5 1706 0 is_stmt 1
	li 4,1
	li 5,0
	.loc 5 1705 0
	addi 25,25,1
.LVL513:
	.loc 5 1706 0
	bl _ZN7idImage17ActuallyLoadImageEbb
.LVL514:
	.loc 5 1708 0
	andi. 0,25,15
	beq- 0,.L405
	lwz 0,84(30)
	b .L398
.LVL515:
.L400:
.LBE1962:
.LBE1960:
.LBB1964:
	.loc 5 1676 0
	li 28,0
	.loc 5 1675 0
	li 26,0
	.loc 5 1680 0
	li 25,0
.LVL516:
.L394:
.LBE1964:
	.loc 5 1714 0
	bl _Z16Sys_Millisecondsv
	.loc 5 1715 0
	lis 4,.LC84@ha
	.loc 5 1714 0
	mr 31,3
.LVL517:
	.loc 5 1715 0
	lwz 3,common@l(29)
.LVL518:
	mr 5,26
	la 4,.LC84@l(4)
	lwz 9,0(3)
	.loc 5 1718 0
	subf 31,27,31
.LVL519:
	xoris 31,31,0x8000
	.loc 5 1715 0
	lwz 0,68(9)
	mtctr 0
	crxor 6,6,6
	bctrl
	.loc 5 1716 0
	lwz 3,common@l(29)
	lis 4,.LC85@ha
	mr 5,28
	lwz 9,0(3)
	la 4,.LC85@l(4)
	lwz 0,68(9)
	mtctr 0
	crxor 6,6,6
	bctrl
	.loc 5 1717 0
	lwz 3,common@l(29)
	lis 4,.LC86@ha
	mr 5,25
	lwz 9,0(3)
	la 4,.LC86@l(4)
	lwz 0,68(9)
	mtctr 0
	crxor 6,6,6
	bctrl
	.loc 5 1718 0
	lwz 3,common@l(29)
	lis 0,0x4330
	lis 11,.LC8@ha
	lwz 9,0(3)
	lis 4,.LC87@ha
	stw 31,12(1)
	la 4,.LC87@l(4)
	stw 0,8(1)
	lfs 0,.LC8@l(11)
	lfd 1,8(1)
	lwz 0,68(9)
	lis 9,.LC88@ha
	fsub 1,1,0
	lfd 0,.LC88@l(9)
	mtctr 0
	fmul 1,1,0
	creqv 6,6,6
	bctrl
	.loc 5 1719 0
	lwz 3,common@l(29)
	lis 4,.LC89@ha
	lwz 9,0(3)
	la 4,.LC89@l(4)
	lwz 0,68(9)
	mtctr 0
	crxor 6,6,6
	bctrl
.LBE1967:
	.loc 5 1720 0
	lwz 0,52(1)
	lwz 24,16(1)
	mtlr 0
	lwz 25,20(1)
	lwz 26,24(1)
	lwz 27,28(1)
.LVL520:
	lwz 28,32(1)
	lwz 29,36(1)
	lwz 30,40(1)
.LVL521:
	lwz 31,44(1)
	addi 1,1,48
	.cfi_remember_state
	.cfi_restore 24
	.cfi_restore 25
	.cfi_restore 26
	.cfi_restore 27
	.cfi_restore 28
	.cfi_restore 29
	.cfi_restore 30
	.cfi_restore 31
.LCFI122:
	.cfi_def_cfa_offset 0
	blr
.LVL522:
.L409:
.LCFI123:
	.cfi_restore_state
.LBB1968:
.LBB1965:
.LBB1959:
	.loc 5 1689 0
	bl _ZN7idImage10PurgeImageEv
.LVL523:
	.loc 5 1688 0
	addi 26,26,1
.LVL524:
	lwz 0,84(30)
	.loc 5 1689 0
	b .L395
.LVL525:
.L405:
.LBE1959:
.LBE1965:
.LBB1966:
.LBB1963:
	.loc 5 1709 0
	lwz 3,session@l(24)
	lwz 9,0(3)
	lwz 0,24(9)
	mtctr 0
	bctrl
	lwz 0,84(30)
	b .L398
.LBE1963:
.LBE1966:
.LBE1968:
	.cfi_endproc
.LFE2619:
	.size	_ZN14idImageManager12EndLevelLoadEv, .-_ZN14idImageManager12EndLevelLoadEv
	.align 2
	.globl _ZN14idImageManager10StartBuildEv
	.type	_ZN14idImageManager10StartBuildEv, @function
_ZN14idImageManager10StartBuildEv:
.LFB2620:
	.loc 5 1728 0
	.cfi_startproc
.LVL526:
	mflr 0
	stwu 1,-8(1)
.LCFI124:
	.cfi_def_cfa_offset 8
	.cfi_register 65, 0
	.loc 5 1729 0
	lis 3,.LC90@ha
.LVL527:
	la 3,.LC90@l(3)
	.loc 5 1728 0
	stw 0,12(1)
	.loc 5 1729 0
	.cfi_offset 65, 4
	crxor 6,6,6
	bl _Z10Sys_PrintfPKcz
	.loc 5 1730 0
	lwz 0,12(1)
	addi 1,1,8
.LCFI125:
	.cfi_def_cfa_offset 0
	mtlr 0
	blr
	.cfi_endproc
.LFE2620:
	.size	_ZN14idImageManager10StartBuildEv, .-_ZN14idImageManager10StartBuildEv
	.align 2
	.globl _ZN14idImageManager11FinishBuildEb
	.type	_ZN14idImageManager11FinishBuildEb, @function
_ZN14idImageManager11FinishBuildEb:
.LFB2621:
	.loc 5 1738 0
	.cfi_startproc
.LVL528:
	mflr 0
	stwu 1,-8(1)
.LCFI126:
	.cfi_def_cfa_offset 8
	.cfi_register 65, 0
	.loc 5 1739 0
	lis 3,.LC91@ha
.LVL529:
	la 3,.LC91@l(3)
	.loc 5 1738 0
	stw 0,12(1)
	.loc 5 1739 0
	.cfi_offset 65, 4
	crxor 6,6,6
	bl _Z10Sys_PrintfPKcz
.LVL530:
	.loc 5 1740 0
	lwz 0,12(1)
	addi 1,1,8
.LCFI127:
	.cfi_def_cfa_offset 0
	mtlr 0
	blr
	.cfi_endproc
.LFE2621:
	.size	_ZN14idImageManager11FinishBuildEb, .-_ZN14idImageManager11FinishBuildEb
	.align 2
	.globl _ZN14idImageManager13AddDDSCommandEPKc
	.type	_ZN14idImageManager13AddDDSCommandEPKc, @function
_ZN14idImageManager13AddDDSCommandEPKc:
.LFB2622:
	.loc 5 1748 0
	.cfi_startproc
.LVL531:
	mflr 0
	stwu 1,-8(1)
.LCFI128:
	.cfi_def_cfa_offset 8
	.cfi_register 65, 0
	.loc 5 1749 0
	lis 3,.LC92@ha
.LVL532:
	la 3,.LC92@l(3)
	.loc 5 1748 0
	stw 0,12(1)
	.loc 5 1749 0
	.cfi_offset 65, 4
	crxor 6,6,6
	bl _Z10Sys_PrintfPKcz
.LVL533:
	.loc 5 1750 0
	lwz 0,12(1)
	addi 1,1,8
.LCFI129:
	.cfi_def_cfa_offset 0
	mtlr 0
	blr
	.cfi_endproc
.LFE2622:
	.size	_ZN14idImageManager13AddDDSCommandEPKc, .-_ZN14idImageManager13AddDDSCommandEPKc
	.align 2
	.globl _ZN14idImageManager12PrintMemInfoEP9MemInfo_t
	.type	_ZN14idImageManager12PrintMemInfoEP9MemInfo_t, @function
_ZN14idImageManager12PrintMemInfoEP9MemInfo_t:
.LFB2623:
	.loc 5 1758 0
	.cfi_startproc
.LVL534:
	mflr 0
	stwu 1,-8(1)
.LCFI130:
	.cfi_def_cfa_offset 8
	.cfi_register 65, 0
	.loc 5 1759 0
	lis 3,.LC93@ha
.LVL535:
	la 3,.LC93@l(3)
	.loc 5 1758 0
	stw 0,12(1)
	.loc 5 1759 0
	.cfi_offset 65, 4
	crxor 6,6,6
	bl _Z10Sys_PrintfPKcz
.LVL536:
	.loc 5 1760 0
	lwz 0,12(1)
	addi 1,1,8
.LCFI131:
	.cfi_def_cfa_offset 0
	mtlr 0
	blr
	.cfi_endproc
.LFE2623:
	.size	_ZN14idImageManager12PrintMemInfoEP9MemInfo_t, .-_ZN14idImageManager12PrintMemInfoEP9MemInfo_t
	.section	.text._ZN6idListIiE5ClearEv,"axG",@progbits,_ZN6idListIiE5ClearEv,comdat
	.align 2
	.weak	_ZN6idListIiE5ClearEv
	.type	_ZN6idListIiE5ClearEv, @function
_ZN6idListIiE5ClearEv:
.LFB2664:
	.loc 9 192 0
	.cfi_startproc
.LVL537:
	mflr 0
	stwu 1,-16(1)
.LCFI132:
	.cfi_def_cfa_offset 16
	.cfi_register 65, 0
	stw 31,12(1)
	mr 31,3
	.cfi_offset 31, -4
	stw 0,20(1)
	.loc 9 193 0
	lwz 3,12(3)
.LVL538:
	cmpwi 7,3,0
	beq- 7,.L415
	.cfi_offset 65, 4
	.loc 9 194 0 discriminator 1
	bl _ZdaPv
.L415:
	.loc 9 197 0
	li 0,0
	stw 0,12(31)
	.loc 9 198 0
	stw 0,0(31)
	.loc 9 199 0
	stw 0,4(31)
	.loc 9 200 0
	lwz 0,20(1)
	lwz 31,12(1)
.LVL539:
	mtlr 0
	addi 1,1,16
.LCFI133:
	.cfi_def_cfa_offset 0
	.cfi_restore 31
	blr
	.cfi_endproc
.LFE2664:
	.size	_ZN6idListIiE5ClearEv, .-_ZN6idListIiE5ClearEv
	.section	".text"
	.align 2
	.globl _Z14R_ListImages_fRK9idCmdArgs
	.type	_Z14R_ListImages_fRK9idCmdArgs, @function
_Z14R_ListImages_fRK9idCmdArgs:
.LFB2602:
	.loc 5 956 0
	.cfi_startproc
	.cfi_personality 0,__gxx_personality_v0
	.cfi_lsda 0,.LLSDA2602
.LVL540:
	mflr 0
	stwu 1,-320(1)
.LCFI134:
	.cfi_def_cfa_offset 320
	.cfi_register 65, 0
	mfcr 12
	stw 30,312(1)
	mr 30,3
	.cfi_offset 30, -8
	.cfi_register 70, 12
	stw 31,316(1)
	mr 31,1
	.cfi_offset 31, -4
.LCFI135:
	.cfi_def_cfa_register 31
	stw 0,324(1)
	stw 14,248(1)
	stw 15,252(1)
	stw 16,256(1)
	stw 17,260(1)
	stw 18,264(1)
	stw 19,268(1)
	stw 20,272(1)
	stw 21,276(1)
	stw 22,280(1)
	stw 23,284(1)
	stw 24,288(1)
	stw 25,292(1)
	stw 26,296(1)
	stw 27,300(1)
	stw 28,304(1)
	stw 29,308(1)
	stw 12,244(1)
.LBB2087:
.LBB2088:
.LBB2089:
.LBB2090:
	.loc 5 1760 0
	lwz 0,0(3)
	.cfi_offset 70, -76
	.cfi_offset 29, -12
	.cfi_offset 28, -16
	.cfi_offset 27, -20
	.cfi_offset 26, -24
	.cfi_offset 25, -28
	.cfi_offset 24, -32
	.cfi_offset 23, -36
	.cfi_offset 22, -40
	.cfi_offset 21, -44
	.cfi_offset 20, -48
	.cfi_offset 19, -52
	.cfi_offset 18, -56
	.cfi_offset 17, -60
	.cfi_offset 16, -64
	.cfi_offset 15, -68
	.cfi_offset 14, -72
	.cfi_offset 65, 4
.LBE2090:
.LBE2089:
.LBE2088:
	.loc 5 974 0
	cmpwi 7,0,1
	beq- 7,.L511
	.loc 5 976 0
	cmpwi 7,0,2
	beq- 7,.L575
.LVL541:
.L418:
	.loc 5 1010 0
	lis 9,common@ha
	lis 4,.LC119@ha
	lwz 3,common@l(9)
	la 4,.LC119@l(4)
	lwz 9,0(3)
	lwz 0,68(9)
	mtctr 0
.LEHB20:
	crxor 6,6,6
	bctrl
.LVL542:
.L416:
.LBE2087:
	.loc 5 1128 0
	addi 11,31,320
	lwz 0,4(11)
	lwz 12,-76(11)
	mtlr 0
	lwz 14,-72(11)
	lwz 15,-68(11)
	mtcrf 56,12
	lwz 16,-64(11)
	lwz 17,-60(11)
	lwz 18,-56(11)
	lwz 19,-52(11)
	lwz 20,-48(11)
	lwz 21,-44(11)
	lwz 22,-40(11)
	lwz 23,-36(11)
	lwz 24,-32(11)
	lwz 25,-28(11)
	lwz 26,-24(11)
	lwz 27,-20(11)
	lwz 28,-16(11)
	lwz 29,-12(11)
	lwz 30,-8(11)
	lwz 31,-4(11)
	.cfi_remember_state
.LCFI136:
	.cfi_def_cfa 11, 0
	mr 1,11
.LCFI137:
	.cfi_def_cfa_register 1
	.cfi_restore 70
	.cfi_restore 31
	.cfi_restore 30
	.cfi_restore 29
	.cfi_restore 28
	.cfi_restore 27
	.cfi_restore 26
	.cfi_restore 25
	.cfi_restore 24
	.cfi_restore 23
	.cfi_restore 22
	.cfi_restore 21
	.cfi_restore 20
	.cfi_restore 19
	.cfi_restore 18
	.cfi_restore 17
	.cfi_restore 16
	.cfi_restore 15
	.cfi_restore 14
	blr
.LVL543:
.L511:
.LCFI138:
	.cfi_restore_state
.LBB2410:
	.loc 5 972 0
	li 14,0
	.loc 5 971 0
	li 30,0
	.loc 5 970 0
	li 24,0
	.loc 5 969 0
	li 29,0
	.loc 5 968 0
	li 28,0
.LVL544:
.L565:
	.loc 5 966 0
	li 23,0
.L566:
	.loc 5 965 0
	li 22,0
	.loc 5 964 0
	li 21,0
	.loc 5 963 0
	li 20,0
	.loc 5 962 0
	li 18,0
	.loc 5 961 0
	li 19,0
.L417:
.LVL545:
	.loc 5 1015 0
	lis 16,common@ha
	lis 25,.LC107@ha
	lwz 3,common@l(16)
	la 25,.LC107@l(25)
	lis 4,.LC106@ha
	mr 5,25
	lwz 9,0(3)
	la 4,.LC106@l(4)
	.loc 5 1760 0
	lis 26,globalImages@ha
	.loc 5 1015 0
	lwz 0,68(9)
	mtctr 0
	crxor 6,6,6
	bctrl
.LVL546:
	.loc 5 1760 0
	lwz 9,globalImages@l(26)
	.loc 5 1019 0
	lwz 11,0(1)
	lwz 0,84(9)
	slwi 0,0,3
	addic 0,0,30
	rlwinm 0,0,0,0,27
	neg 0,0
	stwux 11,1,0
.LBB2336:
	.loc 5 1021 0
	lwz 0,84(9)
.LBE2336:
	.loc 5 1019 0
	addi 27,1,23
	rlwinm 27,27,0,0,27
.LVL547:
.LBB2355:
	.loc 5 1021 0
	cmpwi 7,0,0
	ble- 7,.L532
	cmpwi 7,29,0
.LBB2337:
	.loc 5 1031 0
	cmpwi 3,19,0
	.loc 5 1072 0
	lis 19,.LC108@ha
.LVL548:
	cmpwi 4,18,0
	mfcr 0
	rlwinm 0,0,28,0xf0000000
	.loc 5 1037 0
	cmpwi 7,21,0
	.loc 5 1025 0
	li 21,0
.LVL549:
	.loc 5 1034 0
	cmpwi 2,20,0
	stw 0,216(31)
	.loc 5 1037 0
	mfcr 0
	rlwinm 0,0,28,0xf0000000
	.loc 5 1040 0
	cmpwi 7,22,0
.LBE2337:
	.loc 5 1021 0
	li 18,0
.LVL550:
.LBB2347:
	.loc 5 1037 0
	stw 0,220(31)
	.loc 5 1072 0
	la 19,.LC108@l(19)
	.loc 5 1040 0
	mfcr 0
	rlwinm 0,0,28,0xf0000000
	.loc 5 1043 0
	cmpwi 7,23,0
	.loc 5 1065 0
	li 20,0
.LVL551:
.LBE2347:
	.loc 5 1021 0
	li 23,0
.LVL552:
.LBB2348:
	.loc 5 1040 0
	stw 0,224(31)
	.loc 5 1043 0
	mfcr 0
	rlwinm 0,0,28,0xf0000000
.LBB2338:
	.loc 5 1048 0
	cmpwi 7,24,0
.LBE2338:
	.loc 5 1025 0
	ori 21,21,32997
	.loc 5 1043 0
	stw 0,228(31)
	la 24,globalImages@l(26)
.LVL553:
.LBB2342:
	.loc 5 1048 0
	mfcr 0
	rlwinm 0,0,28,0xf0000000
.LBE2342:
	.loc 5 1061 0
	cmpwi 7,28,0
.LBE2348:
	.loc 5 1021 0
	li 28,0
.LVL554:
.LBB2349:
.LBB2343:
	.loc 5 1048 0
	stw 0,232(31)
.LBE2343:
	.loc 5 1061 0
	mfcr 0
	rlwinm 0,0,28,0xf0000000
	stw 0,236(31)
.LVL555:
.L449:
	.loc 5 1022 0
	lwz 9,96(9)
	slwi 0,18,2
	lwzx 29,9,0
.LVL556:
	.loc 5 1024 0
	beq- 4,.L430
	.loc 5 1025 0
	lwz 9,1216(29)
.LVL557:
	addis 11,9,0xffff
	addi 0,11,31760
	cmplwi 7,0,3
	ble- 7,.L572
	.loc 5 1025 0 is_stmt 0 discriminator 1
	cmpw 7,9,21
	beq- 7,.L572
.L430:
	.loc 5 1031 0 is_stmt 1
	beq- 3,.L433
	.loc 5 1031 0 is_stmt 0 discriminator 1
	lwz 0,1200(29)
	cmpwi 7,0,1
	beq- 7,.L433
.L572:
	.loc 5 1043 0 is_stmt 1
	lwz 9,0(24)
	addi 18,18,1
.LVL558:
	lwz 0,84(9)
.LVL559:
.L432:
.LBE2349:
	.loc 5 1021 0
	cmpw 7,0,18
	bgt+ 7,.L449
.LVL560:
.L429:
.LBE2355:
	.loc 5 1079 0
	lwz 0,216(31)
	rlwinm 0,0,4,0xffffffff
	mtcrf 1,0
	rlwinm 0,0,28,0xffffffff
	bne- 7,.L559
	lis 9,.LC8@ha
	lis 10,.LC111@ha
	stw 9,216(31)
	stw 10,220(31)
.L450:
	.loc 5 1093 0
	lwz 3,common@l(16)
	lis 4,.LC112@ha
	la 4,.LC112@l(4)
	mr 5,25
	lwz 9,0(3)
	.loc 5 1095 0
	xoris 28,28,0x8000
	.loc 5 1093 0
	lwz 0,68(9)
	mtctr 0
	crxor 6,6,6
	bctrl
	.loc 5 1094 0
	lwz 3,common@l(16)
	.loc 5 1760 0
	lwz 9,globalImages@l(26)
	.loc 5 1094 0
	lis 4,.LC113@ha
	lwz 11,0(3)
	la 4,.LC113@l(4)
	lwz 6,84(9)
	mr 5,23
	lwz 0,68(11)
	mtctr 0
	crxor 6,6,6
	bctrl
	.loc 5 1095 0
	lwz 3,common@l(16)
	lis 0,0x4330
	lwz 10,216(31)
	lwz 9,0(3)
	lis 4,.LC114@ha
	stw 28,204(31)
	la 4,.LC114@l(4)
	stw 0,200(31)
	lfs 13,.LC8@l(10)
	lfd 1,200(31)
	lwz 11,220(31)
	fsub 1,1,13
	lwz 0,68(9)
	lfs 0,.LC111@l(11)
	mtctr 0
	fmul 1,1,0
	creqv 6,6,6
	bctrl
.LEHE20:
.LBB2356:
	.loc 5 1097 0
	cmpwi 7,30,0
	beq- 7,.L416
.LBB2327:
.LBB2175:
.LBB2176:
.LBB2177:
.LBB2178:
	.loc 9 197 0
	li 10,9
.LBE2178:
.LBE2177:
.LBE2176:
.LBE2175:
.LBE2327:
	.loc 5 1097 0
	addi 19,31,40
.LBB2328:
.LBB2187:
.LBB2185:
.LBB2182:
.LBB2179:
	.loc 9 197 0
	mtctr 10
.LBE2179:
.LBE2182:
.LBE2185:
.LBE2187:
.LBE2328:
.LBE2356:
	.loc 5 956 0
	mr 9,19
.LBB2357:
.LBB2329:
.LBB2188:
.LBB2186:
	.loc 9 159 0
	li 11,16
.LBB2183:
.LBB2180:
	.loc 9 197 0
	li 0,0
.L454:
.LVL561:
.LBE2180:
.LBE2183:
	.loc 9 159 0
	stw 11,8(9)
.LBB2184:
.LBB2181:
	.loc 9 197 0
	stw 0,12(9)
	.loc 9 198 0
	stw 0,0(9)
	.loc 9 199 0
	stw 0,4(9)
	addi 9,9,16
.LBE2181:
.LBE2184:
.LBE2186:
.LBE2188:
	.loc 5 1099 0
	bdnz .L454
.LVL562:
.LBB2189:
	.loc 5 1101 0 discriminator 1
	cmpwi 7,23,0
	beq- 7,.L576
.LBB2190:
.LBB2191:
.LBB2192:
	.loc 5 128 0
	lis 25,.LANCHOR2@ha
.LBE2192:
.LBE2191:
.LBE2190:
	.loc 5 1101 0
	li 28,0
	addi 20,31,20
.LBB2282:
.LBB2214:
.LBB2209:
.LBB2193:
.LBB2194:
.LBB2195:
	.loc 7 356 0
	li 24,0
	.loc 7 357 0
	li 21,20
.LBE2195:
.LBE2194:
.LBE2193:
	.loc 5 128 0
	la 25,.LANCHOR2@l(25)
.LBE2209:
.LBE2214:
.LBB2215:
.LBB2216:
.LBB2217:
.LBB2218:
	.loc 9 663 0
	li 18,16
.LVL563:
.L477:
.LBE2218:
.LBE2217:
.LBE2216:
.LBE2215:
	.loc 5 956 0
	slwi 0,28,3
.LBB2267:
.LBB2210:
	.loc 5 128 0
	addi 3,31,8
.LBE2210:
.LBE2267:
.LBB2268:
	.loc 5 1760 0
	lwzx 9,27,0
	lwz 4,1132(9)
.LVL564:
.LBE2268:
.LBB2269:
.LBB2211:
.LBB2198:
.LBB2197:
.LBB2196:
	.loc 7 356 0
	stw 24,8(31)
	.loc 7 357 0
	stw 21,16(31)
	.loc 7 358 0
	stw 20,12(31)
	.loc 7 359 0
	stb 24,20(31)
.LEHB21:
.LBE2196:
.LBE2197:
.LBE2198:
	.loc 5 128 0
	bl _ZN5idStraSEPKc
.LVL565:
	mr 22,25
	addi 29,25,72
	li 30,0
.L458:
.LVL566:
.LBB2199:
.LBB2200:
.LBB2201:
	.loc 7 906 0
	lwz 3,12(31)
	li 5,0
	lwz 4,0(29)
	li 6,0
	lwz 7,8(31)
	bl _ZN5idStr8FindTextEPKcS1_bii
.LEHE21:
.LVL567:
.LBE2201:
.LBE2200:
	.loc 5 130 0
	cmpwi 7,3,0
	beq- 7,.L577
.LVL568:
	.loc 5 129 0
	cmpwi 7,30,8
	addi 29,29,20
	addi 30,30,1
.LVL569:
	bne+ 7,.L458
	.loc 5 134 0
	li 29,8
.LVL570:
.L457:
.LBE2199:
.LBB2202:
.LBB2203:
.LBB2204:
	.loc 7 501 0
	addi 3,31,8
.LVL571:
.LEHB22:
	bl _ZN5idStr8FreeDataEv
.LEHE22:
.LVL572:
.LBE2204:
.LBE2203:
.LBE2202:
.LBE2211:
.LBE2269:
	.loc 5 1103 0
	slwi 29,29,4
.LVL573:
	add 30,19,29
.LVL574:
.LBB2270:
.LBB2257:
	.loc 9 655 0
	lwz 26,12(30)
	cmpwi 7,26,0
	beq- 7,.L460
	lwzx 0,19,29
	lwz 9,4(30)
.L461:
.LBB2240:
	.loc 9 659 0
	cmpw 7,0,9
	beq- 7,.L536
.L573:
.LBB2235:
.LBB2219:
.LBB2220:
	.loc 9 399 0
	slwi 0,0,2
	add 26,26,0
.L468:
.LBE2220:
.LBE2219:
.LBE2235:
.LBE2240:
	.loc 9 669 0
	stw 28,0(26)
.LBE2257:
.LBE2270:
.LBE2282:
	.loc 5 1101 0
	addi 28,28,1
.LVL575:
	cmpw 7,28,23
.LBB2283:
.LBB2271:
.LBB2258:
	.loc 9 670 0
	lwzx 9,19,29
	addi 0,9,1
	stwx 0,19,29
.LBE2258:
.LBE2271:
.LBE2283:
	.loc 5 1101 0
	bne+ 7,.L477
.LVL576:
.L455:
.LBE2189:
.LBE2329:
.LBE2357:
	.loc 5 1011 0
	addi 23,22,76
.LBB2358:
.LBB2330:
.LBB2294:
.LBB2091:
	.loc 5 1111 0
	cmpwi 4,14,0
	lis 22,.LC117@ha
	.loc 5 1117 0
	lis 14,.LC115@ha
.LVL577:
	.loc 5 1123 0
	lis 21,.LC118@ha
.LBE2091:
.LBE2294:
.LBB2295:
.LBB2284:
.LBB2272:
.LBB2259:
.LBB2241:
.LBB2236:
.LBB2230:
.LBB2225:
.LBB2221:
.LBB2222:
	.loc 9 199 0
	li 17,0
.LBE2222:
.LBE2221:
.LBE2225:
.LBE2230:
.LBE2236:
.LBE2241:
.LBE2259:
.LBE2272:
.LBE2284:
.LBE2295:
.LBB2296:
.LBB2166:
.LBB2092:
.LBB2093:
	.loc 9 159 0
	li 15,16
.LBB2094:
.LBB2095:
	.loc 9 197 0
	li 18,0
.LBE2095:
.LBE2094:
.LBE2093:
.LBE2092:
	.loc 5 1117 0
	la 14,.LC115@l(14)
	la 22,.LC117@l(22)
	.loc 5 1123 0
	la 21,.LC118@l(21)
.LVL578:
.L505:
	.loc 5 1109 0
	slwi 28,17,4
.LBB2103:
.LBB2100:
	.loc 9 159 0
	stw 15,16(31)
.LVL579:
.LBE2100:
.LBE2103:
	.loc 5 1760 0
	lwzx 6,19,28
	.loc 5 1109 0
	add 28,19,28
.LBB2104:
.LBB2101:
.LBB2098:
.LBB2096:
	.loc 9 197 0
	stw 18,20(31)
.LBE2096:
.LBE2098:
.LBE2101:
.LBE2104:
	.loc 5 1109 0
	cmpwi 7,6,0
.LBB2105:
.LBB2102:
.LBB2099:
.LBB2097:
	.loc 9 198 0
	stw 18,8(31)
	.loc 9 199 0
	stw 18,12(31)
.LVL580:
.LBE2097:
.LBE2099:
.LBE2102:
.LBE2105:
	.loc 5 1109 0
	ble- 7,.L537
	li 26,0
	li 30,0
	b .L500
.LVL581:
.L579:
.LBB2106:
.LBB2107:
.LBB2108:
	.loc 9 659 0
	slwi 0,0,2
	add 20,20,0
.L491:
.LBE2108:
	.loc 9 669 0
	lwzx 9,24,29
	stw 9,0(20)
	.loc 9 670 0
	lwz 9,8(31)
	addi 0,9,1
	stw 0,8(31)
.LVL582:
.L482:
.LBE2107:
.LBE2106:
	.loc 5 1760 0
	lwz 6,0(28)
	.loc 5 1109 0
	addi 30,30,1
.LVL583:
	.loc 5 1110 0
	add 26,26,25
.LVL584:
	.loc 5 1109 0
	cmpw 7,6,30
	ble- 7,.L578
.LVL585:
.L500:
	.loc 5 1110 0
	lwz 9,12(28)
	.loc 5 956 0
	slwi 29,30,2
	.loc 5 1110 0
	lwzx 0,9,29
	slwi 0,0,3
	lwzx 3,27,0
.LEHB23:
	bl _ZNK7idImage11StorageSizeEv
	mr 25,3
.LVL586:
	.loc 5 1111 0
	beq- 4,.L482
.LVL587:
.LBB2143:
.LBB2144:
	.loc 9 589 0
	lwz 24,12(28)
.LBE2144:
.LBE2143:
	.loc 5 1112 0
	lwz 0,8(23)
	lwzx 9,24,29
	slwi 9,9,3
	lwzx 9,27,9
	lwz 11,1204(9)
	cmpw 7,11,0
	ble- 7,.L482
.LVL588:
	.loc 5 1112 0 is_stmt 0 discriminator 1
	lwz 9,1208(9)
	lwz 0,12(23)
	cmpw 7,9,0
	ble- 7,.L482
.LVL589:
.LBB2145:
.LBB2137:
	.loc 9 655 0 is_stmt 1 discriminator 4
	lwz 20,20(31)
	cmpwi 7,20,0
	beq- 7,.L483
	.loc 9 655 0 is_stmt 0
	lwz 0,8(31)
	lwz 11,12(31)
.LVL590:
.L484:
.LBB2122:
	.loc 9 659 0 is_stmt 1
	cmpw 7,0,11
	bne+ 7,.L579
	lwz 9,16(31)
	mr 10,0
.L486:
.LBB2109:
	.loc 9 662 0
	cmpwi 7,9,0
	bne- 7,.L492
	.loc 9 663 0
	stw 15,16(31)
	li 9,16
.L492:
	.loc 9 665 0
	add 11,0,9
.LVL591:
	.loc 9 666 0
	divw 11,11,9
.LVL592:
.LBB2110:
.LBB2111:
	.loc 9 375 0
	mullw. 9,11,9
.LVL593:
	ble- 0,.L580
	.loc 9 380 0
	cmpw 7,9,0
	beq- 7,.L581
.LVL594:
	.loc 9 387 0
	cmpw 7,9,10
	.loc 9 386 0
	stw 9,12(31)
	.loc 9 387 0
	bge- 7,.L496
	.loc 9 388 0
	stw 9,8(31)
.L496:
	.loc 9 392 0
	slwi 3,9,2
	bl _Znaj
.LVL595:
	.loc 9 393 0
	lwz 0,8(31)
	.loc 9 392 0
	stw 3,20(31)
.LVL596:
	.loc 9 393 0
	cmpwi 7,0,0
	ble- 7,.L497
	.loc 5 956 0
	addi 11,20,-4
.LBE2111:
.LBE2110:
	.loc 9 393 0
	li 9,0
	b .L498
.LVL597:
.L582:
.LBB2117:
.LBB2114:
	lwz 3,20(31)
.LVL598:
.L498:
	.loc 9 394 0
	lwzu 10,4(11)
	slwi 0,9,2
	.loc 9 393 0
	addi 9,9,1
.LVL599:
	.loc 9 394 0
	stwx 10,3,0
	.loc 9 393 0
	lwz 0,8(31)
	cmpw 7,9,0
	blt+ 7,.L582
.LVL600:
.L497:
	.loc 9 398 0
	cmpwi 7,20,0
	beq- 7,.L574
	.loc 9 399 0
	mr 3,20
	bl _ZdaPv
	lwz 0,8(31)
.L574:
	lwz 20,20(31)
.LVL601:
	slwi 0,0,2
	add 20,20,0
	b .L491
.LVL602:
.L578:
.LBE2114:
.LBE2117:
.LBE2109:
.LBE2122:
.LBE2137:
.LBE2145:
	.loc 5 1109 0
	xoris 26,26,0x8000
	lis 11,0x4330
	stw 26,212(31)
	stw 11,208(31)
	lwz 9,216(31)
	lfd 1,208(31)
	lfs 13,.LC8@l(9)
	lwz 10,220(31)
	fsub 1,1,13
	lfs 0,.LC111@l(10)
	fmul 1,1,0
.LVL603:
.L481:
	.loc 5 1117 0
	lwz 3,common@l(16)
	mr 4,14
	lwz 5,0(23)
	la 29,common@l(16)
	lwz 9,0(3)
	lwz 0,68(9)
	mtctr 0
	creqv 6,6,6
	bctrl
	.loc 5 1118 0
	beq- 4,.L501
	.loc 5 1118 0 is_stmt 0 discriminator 1
	lwz 0,8(31)
	cmpwi 7,0,0
	beq- 7,.L501
	.loc 5 1119 0 is_stmt 1 discriminator 4
	lwz 3,common@l(16)
	lis 9,.LC120@ha
	lwz 4,.LC120@l(9)
	lwz 9,0(3)
	lwz 0,68(9)
	mtctr 0
	crxor 6,6,6
	bctrl
.LVL604:
	.loc 5 1120 0 discriminator 1
	lwz 0,8(31)
	cmpwi 7,0,0
	ble- 7,.L501
	.loc 5 1120 0 is_stmt 0
	li 30,0
.LVL605:
.L502:
	.loc 5 1121 0 is_stmt 1
	lwz 3,0(29)
	mr 4,22
	lwz 9,0(3)
	lwz 0,68(9)
	mtctr 0
	crxor 6,6,6
	bctrl
.LVL606:
	.loc 5 1122 0
	lwz 9,20(31)
	slwi 0,30,2
	lwzx 0,9,0
	slwi 0,0,3
	lwzx 3,27,0
	bl _ZNK7idImage5PrintEv
	.loc 5 1123 0
	lwz 3,0(29)
	mr 4,21
	lwz 9,0(3)
	lwz 0,68(9)
	mtctr 0
	crxor 6,6,6
	bctrl
.LEHE23:
	.loc 5 1120 0
	lwz 0,8(31)
	addi 30,30,1
.LVL607:
	cmpw 7,0,30
	bgt+ 7,.L502
.LVL608:
.L501:
.LBB2146:
.LBB2147:
.LBB2148:
.LBB2149:
	.loc 9 193 0
	lwz 3,20(31)
	cmpwi 7,3,0
	beq- 7,.L503
	.loc 9 194 0
	bl _ZdaPv
.L503:
.LVL609:
.LBE2149:
.LBE2148:
.LBE2147:
.LBE2146:
.LBE2166:
	.loc 5 1106 0
	cmpwi 7,17,8
.LBB2167:
.LBB2156:
.LBB2154:
.LBB2152:
.LBB2150:
	.loc 9 197 0
	stw 18,20(31)
	.loc 9 198 0
	stw 18,8(31)
.LBE2150:
.LBE2152:
.LBE2154:
.LBE2156:
.LBE2167:
	.loc 5 1106 0
	addi 23,23,20
.LBB2168:
.LBB2157:
.LBB2155:
.LBB2153:
.LBB2151:
	.loc 9 199 0
	stw 18,12(31)
.LBE2151:
.LBE2153:
.LBE2155:
.LBE2157:
.LBE2168:
	.loc 5 1106 0
	addi 17,17,1
.LVL610:
	bne+ 7,.L505
	.loc 5 1099 0
	addi 30,31,184
.LBE2296:
.LBB2297:
.LBB2298:
.LBB2299:
.LBB2300:
	.loc 9 197 0
	li 29,0
.L506:
.LBE2300:
.LBE2299:
.LBE2298:
.LBE2297:
	.loc 5 1126 0 discriminator 2
	addi 30,30,-16
.LVL611:
.LBB2307:
.LBB2305:
.LBB2303:
.LBB2301:
	.loc 9 193 0 discriminator 2
	lwz 3,12(30)
	cmpwi 7,3,0
	beq- 7,.L507
	.loc 9 194 0
	bl _ZdaPv
.L507:
.LBE2301:
.LBE2303:
.LBE2305:
.LBE2307:
	.loc 5 1126 0
	cmpw 7,30,19
.LBB2308:
.LBB2306:
.LBB2304:
.LBB2302:
	.loc 9 197 0
	stw 29,12(30)
	.loc 9 198 0
	stw 29,0(30)
	.loc 9 199 0
	stw 29,4(30)
.LBE2302:
.LBE2304:
.LBE2306:
.LBE2308:
	.loc 5 1126 0
	bne+ 7,.L506
	b .L416
.LVL612:
.L536:
	lwz 3,8(30)
.LBB2309:
.LBB2285:
.LBB2273:
.LBB2260:
.LBB2242:
	.loc 9 659 0
	mr 11,0
.L463:
.LBB2237:
	.loc 9 662 0
	cmpwi 7,3,0
	mr 9,3
	bne- 7,.L469
	.loc 9 663 0
	stw 18,8(30)
	li 9,16
.L469:
	.loc 9 665 0
	add 10,11,9
.LVL613:
	.loc 9 666 0
	divw 10,10,9
.LVL614:
.LBB2231:
.LBB2226:
	.loc 9 375 0
	mullw. 9,10,9
.LVL615:
	ble- 0,.L583
	.loc 9 380 0
	cmpw 7,9,11
	beq- 7,.L573
.LVL616:
	.loc 9 387 0
	cmpw 7,9,0
	.loc 9 386 0
	stw 9,4(30)
	.loc 9 387 0
	bge- 7,.L473
	.loc 9 388 0
	stwx 9,19,29
.L473:
	.loc 9 392 0
	slwi 3,9,2
.LEHB24:
	bl _Znaj
.LEHE24:
.LVL617:
	stw 3,12(30)
.LVL618:
	.loc 9 393 0
	lwzx 0,19,29
	cmpwi 7,0,0
	ble- 7,.L474
	.loc 5 956 0
	addi 11,26,-4
.LBE2226:
.LBE2231:
	.loc 9 393 0
	li 9,0
	b .L475
.LVL619:
.L584:
.LBB2232:
.LBB2227:
	lwz 3,12(30)
.LVL620:
.L475:
	.loc 9 394 0
	lwzu 10,4(11)
	slwi 0,9,2
	.loc 9 393 0
	addi 9,9,1
.LVL621:
	.loc 9 394 0
	stwx 10,3,0
	.loc 9 393 0
	lwz 0,0(30)
	cmpw 7,9,0
	blt+ 7,.L584
.LVL622:
.L474:
	.loc 9 398 0
	cmpwi 7,26,0
	beq- 7,.L585
	.loc 9 399 0
	mr 3,26
	bl _ZdaPv
	lwzx 0,19,29
	lwz 26,12(30)
.LVL623:
	b .L573
.LVL624:
.L581:
.LBE2227:
.LBE2232:
.LBE2237:
.LBE2242:
.LBE2260:
.LBE2273:
.LBE2285:
.LBE2309:
.LBB2310:
.LBB2169:
.LBB2158:
.LBB2138:
.LBB2123:
.LBB2120:
.LBB2118:
.LBB2115:
	.loc 9 380 0
	slwi 10,10,2
	add 20,20,10
	b .L491
.LVL625:
.L483:
.LBE2115:
.LBE2118:
.LBE2120:
.LBE2123:
	.loc 9 656 0
	lwz 9,16(31)
.LBB2124:
.LBB2125:
	.loc 9 375 0
	cmpwi 7,9,0
.LBE2125:
.LBE2124:
	.loc 9 656 0
	mr 11,9
.LVL626:
.LBB2132:
.LBB2128:
	.loc 9 375 0
	ble- 7,.L586
	.loc 9 380 0
	lwz 0,12(31)
	cmpw 7,9,0
	beq- 7,.L587
.LVL627:
	.loc 9 387 0
	lwz 0,8(31)
	.loc 9 386 0
	stw 9,12(31)
	.loc 9 387 0
	cmpw 7,9,0
	bge- 7,.L488
	.loc 9 388 0
	stw 9,8(31)
.L488:
	.loc 9 392 0
	slwi 3,9,2
.LEHB25:
	bl _Znaj
.LEHE25:
.LVL628:
	.loc 9 393 0
	lwz 0,8(31)
	.loc 9 392 0
	mr 20,3
	stw 3,20(31)
.LVL629:
	.loc 9 393 0
	li 9,0
	cmpwi 7,0,0
	li 11,0
	bgt+ 7,.L558
	b .L598
.LVL630:
.L589:
	lwz 20,20(31)
.LVL631:
.L558:
	.loc 9 394 0
	lwz 0,0(9)
	.loc 9 393 0
	addi 11,11,1
.LVL632:
	.loc 9 394 0
	stwx 0,20,9
	.loc 9 393 0
	addi 9,9,4
	lwz 0,8(31)
	cmpw 7,11,0
	blt+ 7,.L589
	lwz 11,12(31)
.LVL633:
	lwz 20,20(31)
	b .L484
.LVL634:
.L577:
.LBE2128:
.LBE2132:
.LBE2138:
.LBE2158:
.LBE2169:
.LBE2310:
.LBB2311:
.LBB2286:
.LBB2274:
.LBB2212:
.LBB2205:
	.loc 5 131 0
	mulli 9,30,20
	add 9,25,9
	lwz 29,80(9)
	b .L457
.LVL635:
.L580:
.LBE2205:
.LBE2212:
.LBE2274:
.LBE2286:
.LBE2311:
.LBB2312:
.LBB2170:
.LBB2159:
.LBB2139:
.LBB2133:
.LBB2121:
.LBB2119:
.LBB2116:
.LBB2112:
.LBB2113:
	.loc 9 193 0
	cmpwi 7,20,0
	beq- 7,.L494
	.loc 9 194 0
	mr 3,20
	bl _ZdaPv
.LVL636:
.L494:
	.loc 9 197 0
	stw 18,20(31)
	.loc 9 199 0
	li 20,0
	.loc 9 198 0
	stw 18,8(31)
	.loc 9 199 0
	stw 18,12(31)
	b .L491
.LVL637:
.L433:
.LBE2113:
.LBE2112:
.LBE2116:
.LBE2119:
.LBE2121:
.LBE2133:
.LBE2139:
.LBE2159:
.LBE2170:
.LBE2312:
.LBE2330:
.LBE2358:
.LBB2359:
.LBB2350:
	.loc 5 1034 0
	beq- 2,.L434
	.loc 5 1034 0 is_stmt 0 discriminator 1
	lwz 0,0(29)
	cmpwi 7,0,-1
	bne+ 7,.L572
.L434:
	.loc 5 1037 0 is_stmt 1
	lwz 0,220(31)
	rlwinm 0,0,4,0xffffffff
	mtcrf 1,0
	rlwinm 0,0,28,0xffffffff
	beq- 7,.L435
	.loc 5 1037 0 is_stmt 0 discriminator 1
	lbz 0,20(29)
	cmpwi 7,0,0
	beq- 7,.L572
.L435:
	.loc 5 1040 0 is_stmt 1
	lwz 0,224(31)
	rlwinm 0,0,4,0xffffffff
	mtcrf 1,0
	rlwinm 0,0,28,0xffffffff
	beq- 7,.L436
	.loc 5 1040 0 is_stmt 0 discriminator 1
	lwz 0,16(29)
	cmpwi 7,0,0
	beq- 7,.L572
	.loc 5 1040 0 discriminator 2
	lwz 0,0(29)
	cmpwi 7,0,-1
	beq- 7,.L572
.L436:
	.loc 5 1043 0 is_stmt 1
	lwz 0,228(31)
	rlwinm 0,0,4,0xffffffff
	mtcrf 1,0
	rlwinm 0,0,28,0xffffffff
	beq- 7,.L438
	.loc 5 1043 0 is_stmt 0 discriminator 1
	lwz 0,16(29)
	cmpwi 7,0,0
	beq- 7,.L572
	.loc 5 1043 0 discriminator 2
	lwz 0,0(29)
	cmpwi 7,0,-1
	bne+ 7,.L572
.L438:
.LBB2344:
	.loc 5 1048 0 is_stmt 1
	lwz 0,232(31)
	rlwinm 0,0,4,0xffffffff
	mtcrf 1,0
	rlwinm 0,0,28,0xffffffff
	beq- 7,.L590
.LBB2339:
	.loc 5 1050 0
	lwz 9,0(24)
	addi 22,18,1
.LVL638:
	mr 17,22
	.loc 5 1760 0
	lwz 0,84(9)
	.loc 5 1050 0
	cmpw 7,22,0
	bge- 7,.L442
	slwi 15,22,2
	b .L444
.LVL639:
.L443:
	.loc 5 1760 0
	lwz 0,84(9)
	.loc 5 1050 0
	addi 17,17,1
.LVL640:
	.loc 5 1760 0
	addi 15,15,4
	.loc 5 1050 0
	cmpw 7,0,17
	ble- 7,.L442
.LVL641:
.L444:
	.loc 5 1051 0
	lwz 9,96(9)
.LVL642:
	lwz 3,1132(29)
.LBB2340:
	.loc 5 1760 0
	lwzx 9,9,15
.LVL643:
.LBE2340:
	.loc 5 1051 0
	lwz 4,1132(9)
.LEHB26:
	bl _ZN5idStr4IcmpEPKcS1_
.LVL644:
	lwz 9,0(24)
	cmpwi 7,3,0
	bne+ 7,.L443
	lwz 0,84(9)
.LVL645:
.L442:
	.loc 5 1055 0
	cmpw 7,17,0
	beq- 7,.L534
.LVL646:
.L441:
.LBE2339:
.LBE2344:
	.loc 5 1061 0
	lwz 0,236(31)
	rlwinm 0,0,4,0xffffffff
	mtcrf 1,0
	rlwinm 0,0,28,0xffffffff
	beq- 7,.L445
	.loc 5 1062 0
	lwz 0,12(29)
	cmpwi 7,0,0
	beq- 7,.L591
	.loc 5 1065 0
	stw 20,12(29)
.L445:
	.loc 5 1068 0
	lwz 0,216(31)
	rlwinm 0,0,4,0xffffffff
	mtcrf 1,0
	rlwinm 0,0,28,0xffffffff
	beq- 7,.L447
	.loc 5 1069 0
	slwi 0,23,3
	.loc 5 1070 0
	mr 3,29
	.loc 5 1069 0
	stwx 29,27,0
	add 18,27,0
.LVL647:
	.loc 5 1070 0
	bl _ZNK7idImage11StorageSizeEv
	stw 3,4(18)
.L448:
	.loc 5 1075 0
	mr 3,29
	.loc 5 1076 0
	addi 23,23,1
	.loc 5 1075 0
	bl _ZNK7idImage11StorageSizeEv
.LEHE26:
	.loc 5 1076 0
	lwz 9,0(24)
	.loc 5 1075 0
	add 28,28,3
.LVL648:
	.loc 5 1076 0
	mr 18,22
	lwz 0,84(9)
	b .L432
.LVL649:
.L460:
.LBE2350:
.LBE2359:
.LBB2360:
.LBB2331:
.LBB2313:
.LBB2287:
.LBB2275:
.LBB2261:
	.loc 9 656 0
	lwz 3,8(30)
.LBB2243:
.LBB2244:
	.loc 9 375 0
	cmpwi 7,3,0
.LBE2244:
.LBE2243:
	.loc 9 656 0
	mr 9,3
.LVL650:
.LBB2251:
.LBB2247:
	.loc 9 375 0
	ble- 7,.L592
	.loc 9 380 0
	lwz 0,4(30)
	cmpw 7,3,0
	beq- 7,.L593
.LVL651:
	.loc 9 386 0
	stw 3,4(30)
	.loc 9 387 0
	lwzx 0,19,29
	cmpw 7,3,0
	bge- 7,.L465
	.loc 9 388 0
	stwx 3,19,29
.L465:
	.loc 9 392 0
	slwi 3,3,2
.LEHB27:
	bl _Znaj
.LEHE27:
.LVL652:
	stw 3,12(30)
.LVL653:
	mr 26,3
	.loc 9 393 0
	li 9,0
	li 11,0
	lwzx 0,19,29
	cmpwi 7,0,0
	bgt+ 7,.L557
	b .L599
.LVL654:
.L595:
	lwz 26,12(30)
.LVL655:
.L557:
	.loc 9 394 0
	lwz 0,0(9)
	.loc 9 393 0
	addi 11,11,1
.LVL656:
	.loc 9 394 0
	stwx 0,26,9
	.loc 9 393 0
	addi 9,9,4
	lwz 0,0(30)
	cmpw 7,11,0
	blt+ 7,.L595
	lwz 9,4(30)
	lwz 26,12(30)
	b .L461
.LVL657:
.L587:
.LBE2247:
.LBE2251:
.LBE2261:
.LBE2275:
.LBE2287:
.LBE2313:
.LBB2314:
.LBB2171:
.LBB2160:
.LBB2140:
.LBB2134:
.LBB2129:
	.loc 9 380 0
	lwz 0,8(31)
	b .L484
.LVL658:
.L583:
.LBE2129:
.LBE2134:
.LBE2140:
.LBE2160:
.LBE2171:
.LBE2314:
.LBB2315:
.LBB2288:
.LBB2276:
.LBB2262:
.LBB2252:
.LBB2238:
.LBB2233:
.LBB2228:
.LBB2224:
.LBB2223:
	.loc 9 193 0
	cmpwi 7,26,0
	beq- 7,.L471
	.loc 9 194 0
	mr 3,26
	bl _ZdaPv
.LVL659:
.L471:
	.loc 9 197 0
	stw 24,12(30)
	.loc 9 199 0
	li 26,0
	.loc 9 198 0
	stwx 24,19,29
	.loc 9 199 0
	stw 24,4(30)
	b .L468
.LVL660:
.L537:
.LBE2223:
.LBE2224:
.LBE2228:
.LBE2233:
.LBE2238:
.LBE2252:
.LBE2262:
.LBE2276:
.LBE2288:
.LBE2315:
.LBB2316:
.LBB2172:
	.loc 5 1109 0
	lis 11,.LC94@ha
	lfd 1,.LC94@l(11)
	b .L481
.LVL661:
.L586:
.LBB2161:
.LBB2141:
.LBB2135:
.LBB2130:
.LBB2126:
.LBB2127:
	.loc 9 198 0
	stw 20,8(31)
	.loc 9 199 0
	li 0,0
	stw 20,12(31)
	li 10,0
	b .L486
.LVL662:
.L585:
.LBE2127:
.LBE2126:
.LBE2130:
.LBE2135:
.LBE2141:
.LBE2161:
.LBE2172:
.LBE2316:
.LBB2317:
.LBB2289:
.LBB2277:
.LBB2263:
.LBB2253:
.LBB2239:
.LBB2234:
.LBB2229:
	.loc 9 398 0
	lwz 26,12(30)
.LVL663:
	slwi 0,0,2
	add 26,26,0
	b .L468
.LVL664:
.L598:
.LBE2229:
.LBE2234:
.LBE2239:
.LBE2253:
.LBE2263:
.LBE2277:
.LBE2289:
.LBE2317:
.LBB2318:
.LBB2173:
.LBB2162:
.LBB2142:
.LBB2136:
.LBB2131:
	.loc 9 393 0
	lwz 11,12(31)
	b .L484
.LVL665:
.L590:
.LBE2131:
.LBE2136:
.LBE2142:
.LBE2162:
.LBE2173:
.LBE2318:
.LBE2331:
.LBE2360:
.LBB2361:
.LBB2351:
.LBB2345:
	.loc 5 1048 0
	addi 22,18,1
	b .L441
.LVL666:
.L593:
.LBE2345:
.LBE2351:
.LBE2361:
.LBB2362:
.LBB2332:
.LBB2319:
.LBB2290:
.LBB2278:
.LBB2264:
.LBB2254:
.LBB2248:
	.loc 9 380 0
	lwzx 0,19,29
	b .L461
.LVL667:
.L591:
.LBE2248:
.LBE2254:
.LBE2264:
.LBE2278:
.LBE2290:
.LBE2319:
.LBE2332:
.LBE2362:
.LBB2363:
.LBB2352:
	.loc 5 1062 0
	lwz 9,0(24)
	mr 18,22
.LVL668:
	lwz 0,84(9)
	b .L432
.LVL669:
.L559:
.LBE2352:
.LBE2363:
	.loc 5 1080 0
	lis 6,_ZL17R_QsortImageSizesPKvS0_@ha
	mr 3,27
	mr 4,23
	li 5,8
	la 6,_ZL17R_QsortImageSizesPKvS0_@l(6)
.LEHB28:
	bl qsort
.LVL670:
	.loc 5 1082 0
	cmpwi 7,23,0
	beq- 7,.L596
	lis 29,common@ha
	lis 18,.LC108@ha
	lis 10,.LC8@ha
	lis 11,.LC111@ha
	.loc 5 1086 0
	lis 19,0x6666
	.loc 5 1088 0
	lis 17,.LC109@ha
	.loc 5 1082 0
	mr 22,27
	li 24,0
	.loc 5 1081 0
	li 21,0
	la 29,common@l(29)
	la 18,.LC108@l(18)
	stw 10,216(31)
	stw 11,220(31)
	.loc 5 1086 0
	ori 19,19,26215
	.loc 5 1088 0
	la 17,.LC109@l(17)
	lis 20,0x4330
	b .L452
.LVL671:
.L451:
	.loc 5 1082 0
	cmpw 7,24,23
	.loc 5 1088 0
	addi 22,22,8
	.loc 5 1082 0
	beq- 7,.L450
.LVL672:
.L452:
	.loc 5 1083 0
	lwz 3,0(29)
	mr 5,24
	mr 4,18
	.loc 5 1086 0
	addi 24,24,1
	.loc 5 1083 0
	lwz 9,0(3)
	lwz 0,68(9)
	mtctr 0
	crxor 6,6,6
	bctrl
	.loc 5 1084 0
	lwz 3,0(22)
	bl _ZNK7idImage5PrintEv
	.loc 5 1085 0
	lwz 3,0(22)
	bl _ZNK7idImage11StorageSizeEv
	.loc 5 1086 0
	mulhw 9,24,19
	srawi 0,24,31
	.loc 5 1085 0
	add 21,21,3
.LVL673:
	.loc 5 1086 0
	srawi 9,9,2
	subf 0,0,9
	mulli 0,0,10
	cmpw 7,24,0
	bne+ 7,.L451
	.loc 5 1088 0
	lwz 3,0(29)
	xoris 11,21,0x8000
	xoris 0,28,0x8000
	lwz 10,216(31)
	lwz 9,0(3)
	mr 4,17
	stw 11,188(31)
	stw 20,184(31)
	stw 0,196(31)
	stw 20,192(31)
	lfs 0,.LC8@l(10)
	lfd 1,184(31)
	lfd 2,192(31)
	lwz 11,220(31)
	fsub 1,1,0
	fsub 2,2,0
	lwz 0,68(9)
	lfs 0,.LC111@l(11)
	mtctr 0
	fmul 1,1,0
	fmul 2,2,0
	creqv 6,6,6
	bctrl
	b .L451
.LVL674:
.L447:
.LBB2364:
.LBB2353:
	.loc 5 1072 0
	lwz 3,common@l(16)
	mr 4,19
	mr 5,18
	lwz 9,0(3)
	lwz 0,68(9)
	mtctr 0
	crxor 6,6,6
	bctrl
	.loc 5 1073 0
	mr 3,29
	bl _ZNK7idImage5PrintEv
	b .L448
.LVL675:
.L592:
.LBE2353:
.LBE2364:
.LBB2365:
.LBB2333:
.LBB2320:
.LBB2291:
.LBB2279:
.LBB2265:
.LBB2255:
.LBB2249:
.LBB2245:
.LBB2246:
	.loc 9 198 0
	stwx 26,19,29
	.loc 9 199 0
	li 11,0
	stw 26,4(30)
	li 0,0
	b .L463
.LVL676:
.L575:
.LBE2246:
.LBE2245:
.LBE2249:
.LBE2255:
.LBE2265:
.LBE2279:
.LBE2291:
.LBE2320:
.LBE2333:
.LBE2365:
	.loc 5 977 0
	lwz 3,8(3)
.LVL677:
	lis 4,.LC95@ha
	la 4,.LC95@l(4)
	bl _ZN5idStr4IcmpEPKcS1_
	cmpwi 7,3,0
	bne- 7,.L597
	.loc 5 972 0
	li 14,0
	.loc 5 971 0
	li 30,0
.LVL678:
	.loc 5 970 0
	li 24,0
	.loc 5 969 0
	li 29,0
	.loc 5 968 0
	li 28,0
	.loc 5 966 0
	li 23,0
	.loc 5 965 0
	li 22,0
	.loc 5 964 0
	li 21,0
	.loc 5 963 0
	li 20,0
	.loc 5 978 0
	li 18,1
	.loc 5 961 0
	li 19,0
	b .L417
.LVL679:
.L597:
.LBB2366:
.LBB2367:
	.loc 4 50 0
	lwz 0,0(30)
	cmpwi 7,0,1
	ble- 7,.L513
	lwz 3,8(30)
.L419:
.LBE2367:
.LBE2366:
	.loc 5 979 0
	lis 4,.LC96@ha
	la 4,.LC96@l(4)
	bl _ZN5idStr4IcmpEPKcS1_
	cmpwi 7,3,0
	beq- 7,.L514
.LVL680:
.LBB2369:
.LBB2370:
	.loc 4 50 0
	lwz 0,0(30)
	cmpwi 7,0,1
	ble- 7,.L515
	lwz 3,8(30)
.L420:
.LBE2370:
.LBE2369:
	.loc 5 981 0
	lis 4,.LC97@ha
	la 4,.LC97@l(4)
	bl _ZN5idStr4IcmpEPKcS1_
	cmpwi 7,3,0
	beq- 7,.L516
.LVL681:
.LBB2372:
.LBB2373:
	.loc 4 50 0
	lwz 0,0(30)
	cmpwi 7,0,1
	ble- 7,.L517
	lwz 3,8(30)
.L421:
.LBE2373:
.LBE2372:
	.loc 5 983 0
	lis 4,.LC98@ha
	la 4,.LC98@l(4)
	bl _ZN5idStr4IcmpEPKcS1_
	cmpwi 7,3,0
	beq- 7,.L518
.LVL682:
.LBB2375:
.LBB2376:
	.loc 4 50 0
	lwz 0,0(30)
	cmpwi 7,0,1
	ble- 7,.L519
	lwz 3,8(30)
.L422:
.LBE2376:
.LBE2375:
	.loc 5 985 0
	lis 4,.LC99@ha
	la 4,.LC99@l(4)
	bl _ZN5idStr4IcmpEPKcS1_
	cmpwi 7,3,0
	beq- 7,.L520
.LVL683:
.LBB2378:
.LBB2379:
	.loc 4 50 0
	lwz 0,0(30)
	cmpwi 7,0,1
	ble- 7,.L521
	lwz 3,8(30)
.L423:
.LBE2379:
.LBE2378:
	.loc 5 987 0
	lis 4,.LC100@ha
	la 4,.LC100@l(4)
	bl _ZN5idStr4IcmpEPKcS1_
	cmpwi 7,3,0
	beq- 7,.L522
.LVL684:
.LBB2381:
.LBB2382:
	.loc 4 50 0
	lwz 0,0(30)
	cmpwi 7,0,1
	ble- 7,.L523
	lwz 3,8(30)
.L424:
.LBE2382:
.LBE2381:
	.loc 5 989 0
	lis 4,.LC101@ha
	la 4,.LC101@l(4)
	bl _ZN5idStr4IcmpEPKcS1_
	cmpwi 7,3,0
	beq- 7,.L524
.LVL685:
.LBB2384:
.LBB2385:
	.loc 4 50 0
	lwz 0,0(30)
	cmpwi 7,0,1
	ble- 7,.L525
	lwz 3,8(30)
.L425:
.LBE2385:
.LBE2384:
	.loc 5 991 0
	lis 4,.LC102@ha
	la 4,.LC102@l(4)
	bl _ZN5idStr4IcmpEPKcS1_
	cmpwi 7,3,0
	beq- 7,.L526
.LVL686:
.LBB2387:
.LBB2388:
	.loc 4 50 0
	lwz 0,0(30)
	cmpwi 7,0,1
	ble- 7,.L527
	lwz 3,8(30)
.L426:
.LBE2388:
.LBE2387:
	.loc 5 993 0
	lis 4,.LC103@ha
	la 4,.LC103@l(4)
	bl _ZN5idStr4IcmpEPKcS1_
	cmpwi 7,3,0
	beq- 7,.L528
.LVL687:
.LBB2390:
.LBB2391:
	.loc 4 50 0
	lwz 0,0(30)
	cmpwi 7,0,1
	ble- 7,.L529
	lwz 3,8(30)
.L427:
.LBE2391:
.LBE2390:
	.loc 5 995 0
	lis 4,.LC104@ha
	la 4,.LC104@l(4)
	bl _ZN5idStr4IcmpEPKcS1_
	cmpwi 7,3,0
	beq- 7,.L530
.LVL688:
.LBB2393:
.LBB2394:
	.loc 4 50 0
	lwz 0,0(30)
	cmpwi 7,0,1
	ble- 7,.L531
	lwz 3,8(30)
.L428:
.LBE2394:
.LBE2393:
	.loc 5 998 0
	lis 4,.LC105@ha
	la 4,.LC105@l(4)
	bl _ZN5idStr4IcmpEPKcS1_
	cmpwi 7,3,0
	bne- 7,.L418
	.loc 5 1001 0
	li 14,1
	.loc 5 999 0
	li 30,1
.LVL689:
	.loc 5 970 0
	li 24,0
	.loc 5 1000 0
	li 29,1
	.loc 5 968 0
	li 28,0
	.loc 5 966 0
	li 23,0
	b .L566
.LVL690:
.L534:
.LBB2396:
.LBB2354:
.LBB2346:
.LBB2341:
	.loc 5 1050 0
	mr 18,22
.LVL691:
	b .L432
.LVL692:
.L599:
.LBE2341:
.LBE2346:
.LBE2354:
.LBE2396:
.LBB2397:
.LBB2334:
.LBB2321:
.LBB2292:
.LBB2280:
.LBB2266:
.LBB2256:
.LBB2250:
	.loc 9 393 0
	lwz 9,4(30)
	b .L461
.LVL693:
.L516:
.LBE2250:
.LBE2256:
.LBE2266:
.LBE2280:
.LBE2292:
.LBE2321:
.LBE2334:
.LBE2397:
	.loc 5 972 0
	li 14,0
	.loc 5 971 0
	li 30,0
.LVL694:
	.loc 5 970 0
	li 24,0
	.loc 5 969 0
	li 29,0
	.loc 5 968 0
	li 28,0
	.loc 5 966 0
	li 23,0
	.loc 5 965 0
	li 22,0
	.loc 5 982 0
	li 21,1
	.loc 5 963 0
	li 20,0
	.loc 5 962 0
	li 18,0
	.loc 5 961 0
	li 19,0
	b .L417
.LVL695:
.L514:
	.loc 5 972 0
	li 14,0
	.loc 5 971 0
	li 30,0
.LVL696:
	.loc 5 970 0
	li 24,0
	.loc 5 980 0
	li 29,1
	.loc 5 968 0
	li 28,0
	b .L565
.LVL697:
.L513:
.LBB2398:
.LBB2368:
	.loc 4 50 0
	lis 3,.LC0@ha
	la 3,.LC0@l(3)
	b .L419
.LVL698:
.L596:
	lis 11,.LC8@ha
	lis 9,.LC111@ha
	stw 11,216(31)
	stw 9,220(31)
	b .L450
.LVL699:
.L515:
.LBE2368:
.LBE2398:
.LBB2399:
.LBB2371:
	lis 3,.LC0@ha
	la 3,.LC0@l(3)
	b .L420
.LVL700:
.L520:
.LBE2371:
.LBE2399:
	.loc 5 972 0
	li 14,0
	.loc 5 971 0
	li 30,0
.LVL701:
	.loc 5 970 0
	li 24,0
	.loc 5 969 0
	li 29,0
	.loc 5 968 0
	li 28,0
	.loc 5 966 0
	li 23,0
	.loc 5 986 0
	li 22,1
	.loc 5 964 0
	li 21,0
	.loc 5 963 0
	li 20,0
	.loc 5 962 0
	li 18,0
	.loc 5 961 0
	li 19,0
	b .L417
.LVL702:
.L519:
.LBB2400:
.LBB2377:
	.loc 4 50 0
	lis 3,.LC0@ha
	la 3,.LC0@l(3)
	b .L422
.LVL703:
.L518:
.LBE2377:
.LBE2400:
	.loc 5 972 0
	li 14,0
	.loc 5 971 0
	li 30,0
.LVL704:
	.loc 5 970 0
	li 24,0
	.loc 5 969 0
	li 29,0
	.loc 5 968 0
	li 28,0
	.loc 5 966 0
	li 23,0
	.loc 5 965 0
	li 22,0
	.loc 5 964 0
	li 21,0
	.loc 5 984 0
	li 20,1
	.loc 5 962 0
	li 18,0
	.loc 5 961 0
	li 19,0
	b .L417
.LVL705:
.L517:
.LBB2401:
.LBB2374:
	.loc 4 50 0
	lis 3,.LC0@ha
	la 3,.LC0@l(3)
	b .L421
.LVL706:
.L540:
	mr 29,3
.LVL707:
.LBE2374:
.LBE2401:
.LBB2402:
.LBB2335:
.LBB2322:
.LBB2174:
.LBB2163:
.LBB2164:
.LBB2165:
	.loc 9 181 0
	addi 3,31,8
.LVL708:
	bl _ZN6idListIiE5ClearEv
.LVL709:
.L480:
	.loc 9 181 0 is_stmt 0 discriminator 3
	addi 30,31,168
	.loc 5 956 0 is_stmt 1 discriminator 3
	addi 19,19,-16
.L510:
.LVL710:
.LBE2165:
.LBE2164:
.LBE2163:
.LBE2174:
.LBE2322:
.LBB2323:
.LBB2324:
.LBB2325:
	.loc 9 181 0 discriminator 4
	mr 3,30
	addi 30,30,-16
.LVL711:
	bl _ZN6idListIiE5ClearEv
.LVL712:
.LBE2325:
.LBE2324:
.LBE2323:
	.loc 5 1126 0 discriminator 4
	cmpw 7,30,19
	bne+ 7,.L510
	.loc 5 1126 0 is_stmt 0
	mr 3,29
	bl _Unwind_Resume
.LEHE28:
.LVL713:
.L542:
	mr 29,3
	b .L480
.LVL714:
.L541:
	mr 29,3
.LVL715:
.LBB2326:
.LBB2293:
.LBB2281:
.LBB2213:
.LBB2206:
.LBB2207:
.LBB2208:
	.loc 7 501 0 is_stmt 1
	addi 3,31,8
.LVL716:
	bl _ZN5idStr8FreeDataEv
.LVL717:
	b .L480
.LVL718:
.L576:
	lis 22,.LANCHOR2@ha
	la 22,.LANCHOR2@l(22)
	b .L455
.LVL719:
.L532:
	cmpwi 7,29,0
.LBE2208:
.LBE2207:
.LBE2206:
.LBE2213:
.LBE2281:
.LBE2293:
.LBE2326:
.LBE2335:
.LBE2402:
.LBB2403:
	.loc 5 960 0
	li 23,0
.LVL720:
	.loc 5 1017 0
	li 28,0
.LVL721:
	mfcr 0
	rlwinm 0,0,28,0xf0000000
	stw 0,216(31)
	b .L429
.LVL722:
.L531:
.LBE2403:
.LBB2404:
.LBB2395:
	.loc 4 50 0
	lis 3,.LC0@ha
	la 3,.LC0@l(3)
	b .L428
.LVL723:
.L530:
.LBE2395:
.LBE2404:
	.loc 5 972 0
	li 14,0
	.loc 5 996 0
	li 30,1
.LVL724:
	.loc 5 970 0
	li 24,0
	.loc 5 997 0
	li 29,1
.LVL725:
.L564:
	.loc 5 968 0
	li 28,0
	b .L565
.LVL726:
.L529:
.LBB2405:
.LBB2392:
	.loc 4 50 0
	lis 3,.LC0@ha
	la 3,.LC0@l(3)
	b .L427
.LVL727:
.L528:
.LBE2392:
.LBE2405:
	.loc 5 972 0
	li 14,0
	.loc 5 971 0
	li 30,0
.LVL728:
	.loc 5 970 0
	li 24,0
	.loc 5 969 0
	li 29,0
	.loc 5 994 0
	li 28,1
	b .L565
.LVL729:
.L527:
.LBB2406:
.LBB2389:
	.loc 4 50 0
	lis 3,.LC0@ha
	la 3,.LC0@l(3)
	b .L426
.LVL730:
.L526:
.LBE2389:
.LBE2406:
	.loc 5 972 0
	li 14,0
	.loc 5 971 0
	li 30,0
.LVL731:
	.loc 5 992 0
	li 24,1
	.loc 5 969 0
	li 29,0
	b .L564
.LVL732:
.L525:
.LBB2407:
.LBB2386:
	.loc 4 50 0
	lis 3,.LC0@ha
	la 3,.LC0@l(3)
	b .L425
.LVL733:
.L524:
.LBE2386:
.LBE2407:
	.loc 5 972 0
	li 14,0
	.loc 5 971 0
	li 30,0
.LVL734:
	.loc 5 970 0
	li 24,0
	.loc 5 969 0
	li 29,0
	.loc 5 968 0
	li 28,0
	.loc 5 966 0
	li 23,0
	.loc 5 965 0
	li 22,0
	.loc 5 964 0
	li 21,0
	.loc 5 963 0
	li 20,0
	.loc 5 962 0
	li 18,0
	.loc 5 990 0
	li 19,1
	b .L417
.LVL735:
.L523:
.LBB2408:
.LBB2383:
	.loc 4 50 0
	lis 3,.LC0@ha
	la 3,.LC0@l(3)
	b .L424
.LVL736:
.L522:
.LBE2383:
.LBE2408:
	.loc 5 972 0
	li 14,0
	.loc 5 971 0
	li 30,0
.LVL737:
	.loc 5 970 0
	li 24,0
	.loc 5 969 0
	li 29,0
	.loc 5 968 0
	li 28,0
	.loc 5 988 0
	li 23,1
	b .L566
.LVL738:
.L521:
.LBB2409:
.LBB2380:
	.loc 4 50 0
	lis 3,.LC0@ha
	la 3,.LC0@l(3)
	b .L423
.LBE2380:
.LBE2409:
.LBE2410:
	.cfi_endproc
.LFE2602:
	.section	.gcc_except_table
.LLSDA2602:
	.byte	0xff
	.byte	0xff
	.byte	0x1
	.uleb128 .LLSDACSE2602-.LLSDACSB2602
.LLSDACSB2602:
	.uleb128 .LEHB20-.LFB2602
	.uleb128 .LEHE20-.LEHB20
	.uleb128 0
	.uleb128 0
	.uleb128 .LEHB21-.LFB2602
	.uleb128 .LEHE21-.LEHB21
	.uleb128 .L541-.LFB2602
	.uleb128 0
	.uleb128 .LEHB22-.LFB2602
	.uleb128 .LEHE22-.LEHB22
	.uleb128 .L542-.LFB2602
	.uleb128 0
	.uleb128 .LEHB23-.LFB2602
	.uleb128 .LEHE23-.LEHB23
	.uleb128 .L540-.LFB2602
	.uleb128 0
	.uleb128 .LEHB24-.LFB2602
	.uleb128 .LEHE24-.LEHB24
	.uleb128 .L542-.LFB2602
	.uleb128 0
	.uleb128 .LEHB25-.LFB2602
	.uleb128 .LEHE25-.LEHB25
	.uleb128 .L540-.LFB2602
	.uleb128 0
	.uleb128 .LEHB26-.LFB2602
	.uleb128 .LEHE26-.LEHB26
	.uleb128 0
	.uleb128 0
	.uleb128 .LEHB27-.LFB2602
	.uleb128 .LEHE27-.LEHB27
	.uleb128 .L542-.LFB2602
	.uleb128 0
	.uleb128 .LEHB28-.LFB2602
	.uleb128 .LEHE28-.LEHB28
	.uleb128 0
	.uleb128 0
.LLSDACSE2602:
	.section	".text"
	.size	_Z14R_ListImages_fRK9idCmdArgs, .-_Z14R_ListImages_fRK9idCmdArgs
	.section	.text._ZN6idListI5idStrE5ClearEv,"axG",@progbits,_ZN6idListI5idStrE5ClearEv,comdat
	.align 2
	.weak	_ZN6idListI5idStrE5ClearEv
	.type	_ZN6idListI5idStrE5ClearEv, @function
_ZN6idListI5idStrE5ClearEv:
.LFB2820:
	.loc 9 192 0
	.cfi_startproc
.LVL739:
	mflr 0
	stwu 1,-16(1)
.LCFI139:
	.cfi_def_cfa_offset 16
	.cfi_register 65, 0
	stw 30,8(1)
	mr 30,3
	.cfi_offset 30, -8
	stw 0,20(1)
	stw 31,12(1)
	.loc 9 193 0
	lwz 3,12(3)
.LVL740:
	cmpwi 7,3,0
	beq- 7,.L601
	.cfi_offset 31, -4
	.cfi_offset 65, 4
	.loc 9 194 0 discriminator 1
	lwz 31,-4(3)
	slwi 31,31,5
	add 31,3,31
	cmpw 7,3,31
	beq- 7,.L602
.L606:
	.loc 9 194 0 is_stmt 0 discriminator 4
	addi 31,31,-32
.LVL741:
.LBB2411:
.LBB2412:
.LBB2413:
	.loc 7 501 0 is_stmt 1 discriminator 4
	mr 3,31
	bl _ZN5idStr8FreeDataEv
.LBE2413:
.LBE2412:
.LBE2411:
	.loc 9 194 0 discriminator 4
	lwz 3,12(30)
	cmpw 7,3,31
	bne+ 7,.L606
.LVL742:
.L602:
	.loc 9 194 0 is_stmt 0 discriminator 3
	addi 3,3,-4
	bl _ZdaPv
.L601:
	.loc 9 197 0 is_stmt 1
	li 0,0
	stw 0,12(30)
	.loc 9 198 0
	stw 0,0(30)
	.loc 9 199 0
	stw 0,4(30)
	.loc 9 200 0
	lwz 0,20(1)
	lwz 30,8(1)
.LVL743:
	mtlr 0
	lwz 31,12(1)
	addi 1,1,16
.LCFI140:
	.cfi_def_cfa_offset 0
	.cfi_restore 31
	.cfi_restore 30
	blr
	.cfi_endproc
.LFE2820:
	.size	_ZN6idListI5idStrE5ClearEv, .-_ZN6idListI5idStrE5ClearEv
	.section	.text._ZN6idListIP7idImageE5ClearEv,"axG",@progbits,_ZN6idListIP7idImageE5ClearEv,comdat
	.align 2
	.weak	_ZN6idListIP7idImageE5ClearEv
	.type	_ZN6idListIP7idImageE5ClearEv, @function
_ZN6idListIP7idImageE5ClearEv:
.LFB2842:
	.loc 9 192 0
	.cfi_startproc
.LVL744:
	mflr 0
	stwu 1,-16(1)
.LCFI141:
	.cfi_def_cfa_offset 16
	.cfi_register 65, 0
	stw 31,12(1)
	mr 31,3
	.cfi_offset 31, -4
	stw 0,20(1)
	.loc 9 193 0
	lwz 3,12(3)
.LVL745:
	cmpwi 7,3,0
	beq- 7,.L608
	.cfi_offset 65, 4
	.loc 9 194 0 discriminator 1
	bl _ZdaPv
.L608:
	.loc 9 197 0
	li 0,0
	stw 0,12(31)
	.loc 9 198 0
	stw 0,0(31)
	.loc 9 199 0
	stw 0,4(31)
	.loc 9 200 0
	lwz 0,20(1)
	lwz 31,12(1)
.LVL746:
	mtlr 0
	addi 1,1,16
.LCFI142:
	.cfi_def_cfa_offset 0
	.cfi_restore 31
	blr
	.cfi_endproc
.LFE2842:
	.size	_ZN6idListIP7idImageE5ClearEv, .-_ZN6idListIP7idImageE5ClearEv
	.section	".text"
	.align 2
	.type	_Z41__static_initialization_and_destruction_0ii.constprop.29, @function
_Z41__static_initialization_and_destruction_0ii.constprop.29:
.LFB2904:
	.loc 5 1760 0
	.cfi_startproc
	.cfi_personality 0,__gxx_personality_v0
	.cfi_lsda 0,.LLSDA2904
.LVL747:
	cmpwi 7,3,1
	mflr 0
	stwu 1,-24(1)
.LCFI143:
	.cfi_def_cfa_offset 24
	.cfi_register 65, 0
	stw 0,28(1)
	stw 29,12(1)
	stw 30,16(1)
	stw 31,20(1)
	.loc 5 1760 0
	beq- 7,.L671
	.cfi_offset 31, -4
	.cfi_offset 30, -8
	.cfi_offset 29, -12
	.cfi_offset 65, 4
	.loc 5 85 0
	cmpwi 7,3,0
	bne- 7,.L609
.LVL748:
.LBB2571:
.LBB2572:
.LBB2573:
.LBB2574:
.LBB2575:
.LBB2576:
.LBB2577:
	.loc 8 146 0
	lis 30,.LANCHOR1@ha
	la 31,.LANCHOR1@l(30)
	.loc 7 501 0
	addi 3,31,7824
.LVL749:
.LEHB29:
	bl _ZN5idStr8FreeDataEv
.LEHE29:
.LVL750:
.LBE2577:
.LBE2576:
.LBE2575:
.LBB2578:
.LBB2579:
.LBB2580:
.LBB2581:
.LBB2582:
.LBB2583:
.LBB2584:
	addi 3,31,6744
.LEHB30:
	bl _ZN5idStr8FreeDataEv
.LEHE30:
.LVL751:
.LBE2584:
.LBE2583:
.LBE2582:
.LBE2581:
.LBE2580:
.LBE2579:
.LBE2578:
.LBE2574:
.LBE2573:
.LBB2593:
.LBB2594:
.LBB2595:
	.file 10 "d:/Data/Nintendo/DoomGX/src/renderer/../idlib/../idlib/containers/HashIndex.h"
	.loc 10 130 0
	addi 3,31,1524
.LEHB31:
	bl _ZN11idHashIndex4FreeEv
.LEHE31:
.LVL752:
.LBE2595:
.LBE2594:
.LBE2593:
.LBB2596:
.LBB2597:
.LBB2598:
	.loc 9 181 0
	addi 3,31,1508
.LEHB32:
	bl _ZN6idListI5idStrE5ClearEv
.LEHE32:
.LVL753:
.LBE2598:
.LBE2597:
.LBE2596:
.LBB2599:
.LBB2600:
.LBB2601:
	addi 3,31,1492
	bl _ZN6idListIP7idImageE5ClearEv
.LVL754:
.LBE2601:
.LBE2600:
.LBE2599:
.LBE2572:
.LBE2571:
.LBB2614:
.LBB2615:
.LBB2616:
	.loc 2 127 0
	lis 9,_ZTV6idCVar+8@ha
	la 0,_ZTV6idCVar+8@l(9)
	stw 0,1356(31)
.LVL755:
.LBE2616:
.LBE2615:
.LBE2614:
.LBB2617:
.LBB2618:
.LBB2619:
	stw 0,1304(31)
.LVL756:
.LBE2619:
.LBE2618:
.LBE2617:
.LBB2620:
.LBB2621:
.LBB2622:
	stw 0,1252(31)
.LVL757:
.LBE2622:
.LBE2621:
.LBE2620:
.LBB2623:
.LBB2624:
.LBB2625:
	stw 0,1200(31)
.LVL758:
.LBE2625:
.LBE2624:
.LBE2623:
.LBB2626:
.LBB2627:
.LBB2628:
	stw 0,1148(31)
.LVL759:
.LBE2628:
.LBE2627:
.LBE2626:
.LBB2629:
.LBB2630:
.LBB2631:
	stw 0,1096(31)
.LVL760:
.LBE2631:
.LBE2630:
.LBE2629:
.LBB2632:
.LBB2633:
.LBB2634:
	stw 0,260(31)
.LVL761:
.LBE2634:
.LBE2633:
.LBE2632:
.LBB2635:
.LBB2636:
.LBB2637:
	stw 0,1044(31)
.LVL762:
.LBE2637:
.LBE2636:
.LBE2635:
.LBB2638:
.LBB2639:
.LBB2640:
	stw 0,992(31)
.LVL763:
.LBE2640:
.LBE2639:
.LBE2638:
.LBB2641:
.LBB2642:
.LBB2643:
	stw 0,940(31)
.LVL764:
.LBE2643:
.LBE2642:
.LBE2641:
.LBB2644:
.LBB2645:
.LBB2646:
	stw 0,888(31)
.LVL765:
.LBE2646:
.LBE2645:
.LBE2644:
.LBB2647:
.LBB2648:
.LBB2649:
	stw 0,836(31)
.LVL766:
.LBE2649:
.LBE2648:
.LBE2647:
.LBB2650:
.LBB2651:
.LBB2652:
	stw 0,784(31)
.LVL767:
.LBE2652:
.LBE2651:
.LBE2650:
.LBB2653:
.LBB2654:
.LBB2655:
	stw 0,732(31)
.LVL768:
.LBE2655:
.LBE2654:
.LBE2653:
.LBB2656:
.LBB2657:
.LBB2658:
	stw 0,680(31)
.LVL769:
.LBE2658:
.LBE2657:
.LBE2656:
.LBB2659:
.LBB2660:
.LBB2661:
	stw 0,628(31)
.LVL770:
.LBE2661:
.LBE2660:
.LBE2659:
.LBB2662:
.LBB2663:
.LBB2664:
	stw 0,.LANCHOR1@l(30)
.LVL771:
.LBE2664:
.LBE2663:
.LBE2662:
.LBB2665:
.LBB2666:
.LBB2667:
	stw 0,576(31)
.LVL772:
.LBE2667:
.LBE2666:
.LBE2665:
.LBB2668:
.LBB2669:
.LBB2670:
	stw 0,524(31)
.LVL773:
.LBE2670:
.LBE2669:
.LBE2668:
.LBB2671:
.LBB2672:
.LBB2673:
	stw 0,208(31)
.LVL774:
.LBE2673:
.LBE2672:
.LBE2671:
.LBB2674:
.LBB2675:
.LBB2676:
	stw 0,472(31)
.LVL775:
.LBE2676:
.LBE2675:
.LBE2674:
.LBB2677:
.LBB2678:
.LBB2679:
	stw 0,420(31)
.LVL776:
.LBE2679:
.LBE2678:
.LBE2677:
.LBB2680:
.LBB2681:
.LBB2682:
	stw 0,368(31)
.LVL777:
.LBE2682:
.LBE2681:
.LBE2680:
.LBB2683:
.LBB2684:
.LBB2685:
	stw 0,316(31)
.LVL778:
.LBE2685:
.LBE2684:
.LBE2683:
.LBB2686:
.LBB2687:
.LBB2688:
	stw 0,156(31)
.LVL779:
.LBE2688:
.LBE2687:
.LBE2686:
.LBB2689:
.LBB2690:
.LBB2691:
	stw 0,104(31)
.LVL780:
.LBE2691:
.LBE2690:
.LBE2689:
.LBB2692:
.LBB2693:
.LBB2694:
	stw 0,52(31)
.LVL781:
.L609:
.LBE2694:
.LBE2693:
.LBE2692:
	.loc 5 1760 0
	lwz 0,28(1)
	lwz 29,12(1)
	mtlr 0
	lwz 30,16(1)
	lwz 31,20(1)
	addi 1,1,24
	.cfi_remember_state
.LCFI144:
	.cfi_def_cfa_offset 0
	.cfi_restore 31
	.cfi_restore 30
	.cfi_restore 29
	blr
.LVL782:
.L671:
.LCFI145:
	.cfi_restore_state
	.loc 5 47 0
	lis 9,.LANCHOR0@ha
.LBB2695:
.LBB2696:
	.loc 2 195 0
	lis 30,.LANCHOR1@ha
.LBE2696:
.LBE2695:
	.loc 5 47 0
	la 9,.LANCHOR0@l(9)
.LBB2712:
.LBB2709:
	.loc 2 195 0
	la 31,.LANCHOR1@l(30)
.LBE2709:
.LBE2712:
	.loc 5 47 0
	lwz 10,4(9)
.LVL783:
.LBB2713:
.LBB2710:
.LBB2697:
.LBB2698:
	.loc 2 292 0
	lis 11,_ZN6idCVar10staticVarsE@ha
	lwz 0,_ZN6idCVar10staticVarsE@l(11)
.LBE2698:
.LBE2697:
	.loc 2 195 0
	lis 8,_ZTV6idCVar+8@ha
.LBB2705:
.LBB2701:
	.loc 2 281 0
	stw 10,60(31)
	.loc 2 283 0
	lis 10,.LC122@ha
	la 10,.LC122@l(10)
	.loc 2 287 0
	stw 9,80(31)
	.loc 2 283 0
	stw 10,64(31)
	.loc 2 284 0
	lis 10,0x2
	ori 10,10,4112
	.loc 2 288 0
	lis 9,_ZN11idCmdSystem20ArgCompletion_StringIXadL_Z11imageFilterEEEEvRK9idCmdArgsPFvPKcE@ha
	.loc 2 284 0
	stw 10,68(31)
	.loc 2 285 0
	lis 10,.LC15@ha
	lwz 10,.LC15@l(10)
	.loc 2 292 0
	cmpwi 7,0,-1
.LBE2701:
.LBE2705:
	.loc 2 195 0
	la 8,_ZTV6idCVar+8@l(8)
.LBB2706:
.LBB2702:
	.loc 2 288 0
	la 9,_ZN11idCmdSystem20ArgCompletion_StringIXadL_Z11imageFilterEEEEvRK9idCmdArgsPFvPKcE@l(9)
	.loc 2 285 0
	stw 10,72(31)
	.loc 2 286 0
	lis 10,.LC30@ha
.LBE2702:
.LBE2706:
	.loc 2 195 0
	stw 8,52(31)
.LVL784:
.LBB2707:
.LBB2703:
	.loc 2 280 0
	lis 8,.LC121@ha
	.loc 2 286 0
	lwz 10,.LC30@l(10)
	.loc 2 291 0
	addi 4,31,52
	.loc 2 288 0
	stw 9,84(31)
	.loc 2 289 0
	li 9,0
	.loc 2 280 0
	la 8,.LC121@l(8)
	.loc 2 289 0
	stw 9,88(31)
	.loc 2 290 0
	li 9,0
	.loc 2 280 0
	stw 8,56(31)
	.loc 2 286 0
	stw 10,76(31)
	.loc 2 290 0
	stw 9,92(31)
	.loc 2 291 0
	stw 4,96(31)
	.loc 2 292 0
	beq- 7,.L611
	.loc 2 293 0
	stw 0,100(31)
	.loc 2 294 0
	stw 4,_ZN6idCVar10staticVarsE@l(11)
.LVL785:
.L612:
.LBE2703:
.LBE2707:
.LBE2710:
.LBE2713:
	.loc 5 48 0
	lis 29,.LC124@ha
	lis 4,.LC123@ha
	la 29,.LC124@l(29)
	lis 6,0x2
	lis 7,.LC125@ha
	mr 5,29
	addi 3,31,104
	la 4,.LC123@l(4)
	ori 6,6,16
	la 7,.LC125@l(7)
	li 8,0
	.loc 5 49 0
	lis 30,.LC127@ha
	la 30,.LC127@l(30)
.LEHB33:
	.loc 5 48 0
	bl _ZN6idCVarC1EPKcS1_iS1_PFvRK9idCmdArgsPFvS1_EE
	.loc 5 49 0
	lis 4,.LC126@ha
	lis 6,0x2
	lis 7,.LC128@ha
	mr 5,30
	addi 3,31,156
	la 4,.LC126@l(4)
	ori 6,6,16
	la 7,.LC128@l(7)
	li 8,0
	bl _ZN6idCVarC1EPKcS1_iS1_PFvRK9idCmdArgsPFvS1_EE
	.loc 5 50 0
	lis 4,.LC129@ha
	lis 6,0x2
	lis 7,.LC130@ha
	mr 5,30
	addi 3,31,316
	la 4,.LC129@l(4)
	ori 6,6,16
	la 7,.LC130@l(7)
	li 8,0
	bl _ZN6idCVarC1EPKcS1_iS1_PFvRK9idCmdArgsPFvS1_EE
	.loc 5 51 0
	lis 4,.LC131@ha
	lis 6,0x2
	lis 7,.LC0@ha
	mr 5,30
	addi 3,31,368
	la 4,.LC131@l(4)
	ori 6,6,17
	la 7,.LC0@l(7)
	li 8,0
	bl _ZN6idCVarC1EPKcS1_iS1_PFvRK9idCmdArgsPFvS1_EE
	.loc 5 52 0
	lis 4,.LC132@ha
	lis 6,0x2
	lis 7,.LC133@ha
	mr 5,29
	addi 3,31,420
	la 4,.LC132@l(4)
	ori 6,6,17
	la 7,.LC133@l(7)
	li 8,0
	bl _ZN6idCVarC1EPKcS1_iS1_PFvRK9idCmdArgsPFvS1_EE
	.loc 5 53 0
	lis 4,.LC134@ha
	lis 7,.LC135@ha
	mr 5,30
	addi 3,31,472
	la 4,.LC134@l(4)
	li 6,17
	la 7,.LC135@l(7)
	li 8,0
	bl _ZN6idCVarC1EPKcS1_iS1_PFvRK9idCmdArgsPFvS1_EE
	.loc 5 57 0
	lis 4,.LC136@ha
	lis 6,0x2
	lis 7,.LC137@ha
	mr 5,30
	addi 3,31,208
	la 4,.LC136@l(4)
	ori 6,6,17
	la 7,.LC137@l(7)
	li 8,0
	bl _ZN6idCVarC1EPKcS1_iS1_PFvRK9idCmdArgsPFvS1_EE
	.loc 5 59 0
	lis 4,.LC138@ha
	lis 6,0x2
	lis 7,.LC139@ha
	mr 5,29
	addi 3,31,524
	la 4,.LC138@l(4)
	ori 6,6,17
	la 7,.LC139@l(7)
	li 8,0
	bl _ZN6idCVarC1EPKcS1_iS1_PFvRK9idCmdArgsPFvS1_EE
	.loc 5 60 0
	lis 4,.LC140@ha
	lis 6,0x2
	lis 7,.LC141@ha
	mr 5,29
	addi 3,31,576
	la 4,.LC140@l(4)
	ori 6,6,17
	la 7,.LC141@l(7)
	li 8,0
	bl _ZN6idCVarC1EPKcS1_iS1_PFvRK9idCmdArgsPFvS1_EE
	.loc 5 61 0
	lis 4,.LC142@ha
	lis 5,.LC143@ha
	lis 6,0x2
	lis 7,.LC144@ha
	mr 3,31
	la 4,.LC142@l(4)
	la 5,.LC143@l(5)
	ori 6,6,18
	la 7,.LC144@l(7)
	li 8,0
	bl _ZN6idCVarC1EPKcS1_iS1_PFvRK9idCmdArgsPFvS1_EE
	.loc 5 62 0
	lis 4,.LC145@ha
	lis 6,0x2
	lis 7,.LC146@ha
	mr 5,29
	addi 3,31,628
	la 4,.LC145@l(4)
	ori 6,6,17
	la 7,.LC146@l(7)
	li 8,0
	bl _ZN6idCVarC1EPKcS1_iS1_PFvRK9idCmdArgsPFvS1_EE
	.loc 5 63 0
	lis 4,.LC147@ha
	lis 7,.LC148@ha
	mr 5,30
	addi 3,31,680
	la 4,.LC147@l(4)
	li 6,17
	la 7,.LC148@l(7)
	li 8,0
	bl _ZN6idCVarC1EPKcS1_iS1_PFvRK9idCmdArgsPFvS1_EE
	.loc 5 64 0
	lis 4,.LC149@ha
	lis 7,.LC150@ha
	mr 5,30
	addi 3,31,732
	la 4,.LC149@l(4)
	li 6,17
	la 7,.LC150@l(7)
	li 8,0
	bl _ZN6idCVarC1EPKcS1_iS1_PFvRK9idCmdArgsPFvS1_EE
	.loc 5 65 0
	lis 4,.LC151@ha
	lis 7,.LC152@ha
	mr 5,30
	addi 3,31,784
	la 4,.LC151@l(4)
	li 6,17
	la 7,.LC152@l(7)
	li 8,0
	bl _ZN6idCVarC1EPKcS1_iS1_PFvRK9idCmdArgsPFvS1_EE
	.loc 5 66 0
	lis 4,.LC153@ha
	lis 7,.LC154@ha
	mr 5,30
	addi 3,31,836
	la 4,.LC153@l(4)
	li 6,17
	la 7,.LC154@l(7)
	li 8,0
	bl _ZN6idCVarC1EPKcS1_iS1_PFvRK9idCmdArgsPFvS1_EE
	.loc 5 67 0
	lis 4,.LC155@ha
	lis 7,.LC156@ha
	mr 5,30
	addi 3,31,888
	la 4,.LC155@l(4)
	li 6,17
	la 7,.LC156@l(7)
	li 8,0
	bl _ZN6idCVarC1EPKcS1_iS1_PFvRK9idCmdArgsPFvS1_EE
	.loc 5 68 0
	lis 4,.LC157@ha
	lis 5,.LC158@ha
	lis 6,0x2
	lis 7,.LC159@ha
	addi 3,31,940
	la 4,.LC157@l(4)
	la 5,.LC158@l(5)
	ori 6,6,18
	la 7,.LC159@l(7)
	li 8,0
	bl _ZN6idCVarC1EPKcS1_iS1_PFvRK9idCmdArgsPFvS1_EE
	.loc 5 73 0
	lis 4,.LC160@ha
	lis 6,0x2
	lis 7,.LC161@ha
	mr 5,29
	addi 3,31,992
	la 4,.LC160@l(4)
	ori 6,6,16
	la 7,.LC161@l(7)
	li 8,0
	bl _ZN6idCVarC1EPKcS1_iS1_PFvRK9idCmdArgsPFvS1_EE
	.loc 5 75 0
	lis 4,.LC162@ha
	lis 6,0x2
	lis 7,.LC163@ha
	mr 5,30
	addi 3,31,1044
	la 4,.LC162@l(4)
	ori 6,6,17
	la 7,.LC163@l(7)
	li 8,0
	bl _ZN6idCVarC1EPKcS1_iS1_PFvRK9idCmdArgsPFvS1_EE
	.loc 5 76 0
	lis 4,.LC164@ha
	lis 7,.LC165@ha
	mr 5,30
	addi 3,31,260
	la 4,.LC164@l(4)
	li 6,17
	la 7,.LC165@l(7)
	li 8,0
.LBB2714:
.LBB2715:
.LBB2716:
	.loc 9 158 0
	li 29,0
.LBE2716:
.LBE2715:
.LBE2714:
	.loc 5 76 0
	bl _ZN6idCVarC1EPKcS1_iS1_PFvRK9idCmdArgsPFvS1_EE
	.loc 5 77 0
	lis 4,.LC166@ha
	lis 6,0x2
	lis 7,.LC167@ha
	mr 5,30
	addi 3,31,1096
	la 4,.LC166@l(4)
	ori 6,6,16
	la 7,.LC167@l(7)
	li 8,0
	bl _ZN6idCVarC1EPKcS1_iS1_PFvRK9idCmdArgsPFvS1_EE
	.loc 5 78 0
	lis 4,.LC168@ha
	lis 6,0x2
	lis 7,.LC169@ha
	mr 5,30
	addi 3,31,1148
	la 4,.LC168@l(4)
	ori 6,6,16
	la 7,.LC169@l(7)
	li 8,0
	bl _ZN6idCVarC1EPKcS1_iS1_PFvRK9idCmdArgsPFvS1_EE
	.loc 5 79 0
	lis 4,.LC170@ha
	lis 5,.LC171@ha
	lis 6,0x2
	lis 7,.LC172@ha
	addi 3,31,1200
	la 4,.LC170@l(4)
	la 5,.LC171@l(5)
	ori 6,6,16
	la 7,.LC172@l(7)
	li 8,0
	bl _ZN6idCVarC1EPKcS1_iS1_PFvRK9idCmdArgsPFvS1_EE
	.loc 5 80 0
	lis 4,.LC173@ha
	lis 5,.LC174@ha
	lis 6,0x2
	lis 7,.LC175@ha
	addi 3,31,1252
	la 4,.LC173@l(4)
	la 5,.LC174@l(5)
	ori 6,6,16
	la 7,.LC175@l(7)
	li 8,0
	bl _ZN6idCVarC1EPKcS1_iS1_PFvRK9idCmdArgsPFvS1_EE
	.loc 5 81 0
	lis 4,.LC176@ha
	lis 6,0x2
	lis 7,.LC177@ha
	mr 5,30
	addi 3,31,1304
	la 4,.LC176@l(4)
	ori 6,6,16
	la 7,.LC177@l(7)
	li 8,0
	bl _ZN6idCVarC1EPKcS1_iS1_PFvRK9idCmdArgsPFvS1_EE
	.loc 5 82 0
	lis 4,.LC178@ha
	lis 5,.LC179@ha
	lis 6,0x2
	lis 7,.LC180@ha
	addi 3,31,1356
	la 4,.LC178@l(4)
	la 5,.LC179@l(5)
	ori 6,6,16
	la 7,.LC180@l(7)
	li 8,0
.LBB2754:
.LBB2719:
.LBB2717:
	.loc 9 159 0
	li 30,16
.LBE2717:
.LBE2719:
.LBE2754:
	.loc 5 82 0
	bl _ZN6idCVarC1EPKcS1_iS1_PFvRK9idCmdArgsPFvS1_EE
.LEHE33:
.LVL786:
.LBB2755:
.LBB2720:
.LBB2718:
	.loc 9 158 0
	stw 29,1504(31)
	.loc 9 159 0
	stw 30,1500(31)
	.loc 9 160 0
	addi 3,31,1492
	bl _ZN6idListIP7idImageE5ClearEv
.LVL787:
.LBE2718:
.LBE2720:
.LBB2721:
.LBB2722:
	.loc 9 158 0
	stw 29,1520(31)
	.loc 9 159 0
	stw 30,1516(31)
	.loc 9 160 0
	addi 3,31,1508
.LEHB34:
	bl _ZN6idListI5idStrE5ClearEv
.LEHE34:
.LVL788:
.LBE2722:
.LBE2721:
.LBB2723:
.LBB2724:
	.loc 10 112 0
	addi 3,31,1524
	li 4,1024
	li 5,1024
.LEHB35:
	bl _ZN11idHashIndex4InitEii
.LEHE35:
.LVL789:
.LBE2724:
.LBE2723:
.LBB2725:
.LBB2726:
.LBB2727:
.LBB2728:
.LBB2729:
.LBB2730:
.LBB2731:
	.loc 7 357 0
	li 11,20
	.loc 7 356 0
	li 0,0
	.loc 7 357 0
	stw 11,6752(31)
.LBE2731:
.LBE2730:
.LBE2729:
.LBE2728:
.LBE2727:
	.loc 8 273 0
	li 9,2
.LBB2740:
.LBB2741:
.LBB2742:
	.loc 7 357 0
	stw 11,7832(31)
.LBE2742:
.LBE2741:
.LBE2740:
	.loc 8 260 0
	li 11,-1
	stw 11,6696(31)
.LBB2747:
.LBB2738:
.LBB2736:
.LBB2734:
.LBB2732:
	.loc 7 358 0
	addi 8,31,6756
.LBE2732:
.LBE2734:
.LBE2736:
.LBE2738:
.LBE2747:
.LBB2748:
.LBB2745:
.LBB2743:
	addi 10,31,7836
.LBE2743:
.LBE2745:
.LBE2748:
	.loc 8 267 0
	li 11,1
.LBB2749:
.LBB2739:
.LBB2737:
.LBB2735:
.LBB2733:
	.loc 7 356 0
	stw 0,6744(31)
	.loc 7 358 0
	stw 8,6748(31)
	.loc 7 359 0
	stb 0,6756(31)
.LVL790:
.LBE2733:
.LBE2735:
.LBE2737:
.LBE2739:
.LBE2749:
.LBB2750:
.LBB2746:
.LBB2744:
	.loc 7 356 0
	stw 0,7824(31)
	.loc 7 358 0
	stw 10,7828(31)
.LBE2744:
.LBE2746:
.LBE2750:
	.loc 8 261 0
	stw 0,6712(31)
	.loc 8 262 0
	stw 0,6700(31)
	.loc 8 263 0
	stb 0,6716(31)
	.loc 8 264 0
	stw 0,6704(31)
	.loc 8 265 0
	stw 0,7896(31)
	.loc 8 266 0
	stb 0,6717(31)
	.loc 8 267 0
	stw 11,6724(31)
	.loc 8 268 0
	stw 0,6728(31)
	.loc 8 269 0
	stw 0,7820(31)
.LVL791:
	.loc 8 270 0
	stb 0,7836(31)
	.loc 8 271 0
	stw 0,7856(31)
	.loc 8 272 0
	stb 0,7860(31)
	.loc 8 273 0
	stw 9,7864(31)
	.loc 8 274 0
	stw 0,7868(31)
	.loc 8 275 0
	stw 9,7872(31)
	.loc 8 276 0
	stw 0,7876(31)
	.loc 8 277 0
	stb 0,7880(31)
	.loc 8 278 0
	stb 0,7881(31)
	.loc 8 279 0
	stb 0,7882(31)
	.loc 8 280 0
	stb 0,7883(31)
	.loc 8 281 0
	stw 0,7888(31)
	.loc 8 282 0
	stw 0,6708(31)
	.loc 8 283 0
	stw 0,7908(31)
	stw 0,7904(31)
	stw 0,7900(31)
	.loc 8 284 0
	stw 0,7912(31)
	.loc 8 285 0
	stw 0,7920(31)
	stw 0,7916(31)
	.loc 8 286 0
	stw 0,7924(31)
	.loc 8 287 0
	stb 0,7884(31)
	.loc 8 288 0
	stw 0,7928(31)
	b .L609
.LVL792:
.L611:
.LBE2726:
.LBE2725:
.LBE2755:
.LBB2756:
.LBB2711:
.LBB2708:
.LBB2704:
.LBB2699:
.LBB2700:
	.loc 2 296 0
	lis 9,cvarSystem@ha
	lwz 3,cvarSystem@l(9)
.LVL793:
	lwz 9,0(3)
	lwz 0,20(9)
	mtctr 0
.LEHB36:
	bctrl
.LVL794:
	b .L612
.LVL795:
.L666:
.L670:
	mr 30,3
.L634:
.LVL796:
.LBE2700:
.LBE2699:
.LBE2704:
.LBE2708:
.LBE2711:
.LBE2756:
.LBB2757:
.LBB2612:
.LBB2602:
.LBB2603:
.LBB2604:
	.loc 9 181 0
	addi 3,31,1492
	bl _ZN6idListIP7idImageE5ClearEv
	mr 3,30
	bl _Unwind_Resume
.LEHE36:
.LVL797:
.L667:
	mr 30,3
.LVL798:
.LBE2604:
.LBE2603:
.LBE2602:
.LBE2612:
.LBE2757:
.LBB2758:
.LBB2751:
.LBB2752:
.LBB2753:
	addi 3,31,1508
	bl _ZN6idListI5idStrE5ClearEv
	b .L634
.LVL799:
.L663:
	b .L670
.LVL800:
.L664:
	mr 30,3
.LVL801:
.L632:
.LBE2753:
.LBE2752:
.LBE2751:
.LBE2758:
.LBB2759:
.LBB2613:
.LBB2605:
.LBB2606:
.LBB2607:
	addi 3,31,1508
	bl _ZN6idListI5idStrE5ClearEv
	b .L634
.LVL802:
.L665:
	mr 30,3
.LVL803:
.L624:
.LBE2607:
.LBE2606:
.LBE2605:
.LBB2608:
.LBB2609:
.LBB2610:
	.loc 10 130 0
	addi 3,31,1524
	bl _ZN11idHashIndex4FreeEv
	b .L632
.LVL804:
.L668:
	mr 30,3
.LVL805:
.LBE2610:
.LBE2609:
.LBE2608:
.LBB2611:
.LBB2592:
.LBB2585:
.LBB2586:
.LBB2587:
.LBB2588:
.LBB2589:
.LBB2590:
.LBB2591:
	.loc 7 501 0
	addi 3,31,6744
	bl _ZN5idStr8FreeDataEv
	b .L624
.LBE2591:
.LBE2590:
.LBE2589:
.LBE2588:
.LBE2587:
.LBE2586:
.LBE2585:
.LBE2592:
.LBE2611:
.LBE2613:
.LBE2759:
	.cfi_endproc
.LFE2904:
	.section	.gcc_except_table
.LLSDA2904:
	.byte	0xff
	.byte	0xff
	.byte	0x1
	.uleb128 .LLSDACSE2904-.LLSDACSB2904
.LLSDACSB2904:
	.uleb128 .LEHB29-.LFB2904
	.uleb128 .LEHE29-.LEHB29
	.uleb128 .L668-.LFB2904
	.uleb128 0
	.uleb128 .LEHB30-.LFB2904
	.uleb128 .LEHE30-.LEHB30
	.uleb128 .L665-.LFB2904
	.uleb128 0
	.uleb128 .LEHB31-.LFB2904
	.uleb128 .LEHE31-.LEHB31
	.uleb128 .L664-.LFB2904
	.uleb128 0
	.uleb128 .LEHB32-.LFB2904
	.uleb128 .LEHE32-.LEHB32
	.uleb128 .L663-.LFB2904
	.uleb128 0
	.uleb128 .LEHB33-.LFB2904
	.uleb128 .LEHE33-.LEHB33
	.uleb128 0
	.uleb128 0
	.uleb128 .LEHB34-.LFB2904
	.uleb128 .LEHE34-.LEHB34
	.uleb128 .L666-.LFB2904
	.uleb128 0
	.uleb128 .LEHB35-.LFB2904
	.uleb128 .LEHE35-.LEHB35
	.uleb128 .L667-.LFB2904
	.uleb128 0
	.uleb128 .LEHB36-.LFB2904
	.uleb128 .LEHE36-.LEHB36
	.uleb128 0
	.uleb128 0
.LLSDACSE2904:
	.section	".text"
	.size	_Z41__static_initialization_and_destruction_0ii.constprop.29, .-_Z41__static_initialization_and_destruction_0ii.constprop.29
	.section	.text.startup,"ax",@progbits
	.align 2
	.type	_GLOBAL__sub_I_imageFilter, @function
_GLOBAL__sub_I_imageFilter:
.LFB2873:
	.loc 5 1760 0
	.cfi_startproc
	.loc 5 1760 0
	li 3,1
	b _Z41__static_initialization_and_destruction_0ii.constprop.29
	.cfi_endproc
.LFE2873:
	.size	_GLOBAL__sub_I_imageFilter, .-_GLOBAL__sub_I_imageFilter
	.section	.ctors,"aw",@progbits
	.align 2
	.long	_GLOBAL__sub_I_imageFilter
	.section	.text.exit,"ax",@progbits
	.align 2
	.type	_GLOBAL__sub_D_imageFilter, @function
_GLOBAL__sub_D_imageFilter:
.LFB2874:
	.loc 5 1760 0
	.cfi_startproc
	.loc 5 1760 0
	li 3,0
	b _Z41__static_initialization_and_destruction_0ii.constprop.29
	.cfi_endproc
.LFE2874:
	.size	_GLOBAL__sub_D_imageFilter, .-_GLOBAL__sub_D_imageFilter
	.section	.dtors,"aw",@progbits
	.align 2
	.long	_GLOBAL__sub_D_imageFilter
	.weak	_ZTS9idWinding
	.section	.rodata._ZTS9idWinding,"aG",@progbits,_ZTS9idWinding,comdat
	.align 2
	.type	_ZTS9idWinding, @object
	.size	_ZTS9idWinding, 11
_ZTS9idWinding:
	.string	"9idWinding"
	.weak	_ZTI9idWinding
	.section	.sdata._ZTI9idWinding,"awG",@progbits,_ZTI9idWinding,comdat
	.align 2
	.type	_ZTI9idWinding, @object
	.size	_ZTI9idWinding, 8
_ZTI9idWinding:
	.long	_ZTVN10__cxxabiv117__class_type_infoE+8
	.long	_ZTS9idWinding
	.weak	_ZTS14idFixedWinding
	.section	.rodata._ZTS14idFixedWinding,"aG",@progbits,_ZTS14idFixedWinding,comdat
	.align 2
	.type	_ZTS14idFixedWinding, @object
	.size	_ZTS14idFixedWinding, 17
_ZTS14idFixedWinding:
	.string	"14idFixedWinding"
	.weak	_ZTI14idFixedWinding
	.section	.rodata._ZTI14idFixedWinding,"aG",@progbits,_ZTI14idFixedWinding,comdat
	.align 2
	.type	_ZTI14idFixedWinding, @object
	.size	_ZTI14idFixedWinding, 12
_ZTI14idFixedWinding:
	.long	_ZTVN10__cxxabiv120__si_class_type_infoE+8
	.long	_ZTS14idFixedWinding
	.long	_ZTI9idWinding
	.weak	_ZTV9idWinding
	.section	.rodata._ZTV9idWinding,"aG",@progbits,_ZTV9idWinding,comdat
	.align 3
	.type	_ZTV9idWinding, @object
	.size	_ZTV9idWinding, 24
_ZTV9idWinding:
	.long	0
	.long	_ZTI9idWinding
	.long	_ZN9idWindingD1Ev
	.long	_ZN9idWindingD0Ev
	.long	_ZN9idWinding5ClearEv
	.long	_ZN9idWinding10ReAllocateEib
	.weak	_ZTV14idFixedWinding
	.section	.rodata._ZTV14idFixedWinding,"aG",@progbits,_ZTV14idFixedWinding,comdat
	.align 3
	.type	_ZTV14idFixedWinding, @object
	.size	_ZTV14idFixedWinding, 24
_ZTV14idFixedWinding:
	.long	0
	.long	_ZTI14idFixedWinding
	.long	_ZN14idFixedWindingD1Ev
	.long	_ZN14idFixedWindingD0Ev
	.long	_ZN14idFixedWinding5ClearEv
	.long	_ZN14idFixedWinding10ReAllocateEib
	.globl globalImages
	.globl imageManager
	.globl _ZN14idImageManager19image_downSizeLimitE
	.globl _ZN14idImageManager23image_ignoreHighQualityE
	.globl _ZN14idImageManager23image_downSizeBumpLimitE
	.globl _ZN14idImageManager27image_downSizeSpecularLimitE
	.globl _ZN14idImageManager18image_downSizeBumpE
	.globl _ZN14idImageManager22image_downSizeSpecularE
	.globl _ZN14idImageManager25image_showBackgroundLoadsE
	.globl _ZN14idImageManager14image_useCacheE
	.globl _ZN14idImageManager15image_cacheMegsE
	.globl _ZN14idImageManager15image_cacheMinKE
	.globl _ZN14idImageManager27image_useOffLineCompressionE
	.globl _ZN14idImageManager14image_writeTGAE
	.globl _ZN14idImageManager30image_writeNormalTGAPalletizedE
	.globl _ZN14idImageManager20image_writeNormalTGAE
	.globl _ZN14idImageManager32image_writePrecompressedTexturesE
	.globl _ZN14idImageManager30image_usePrecompressedTexturesE
	.globl _ZN14idImageManager26image_useNormalCompressionE
	.globl _ZN14idImageManager19image_useAllFormatsE
	.globl _ZN14idImageManager20image_useCompressionE
	.globl _ZN14idImageManager13image_preloadE
	.globl _ZN14idImageManager20image_colorMipLevelsE
	.globl _ZN14idImageManager15image_roundDownE
	.globl _ZN14idImageManager19image_forceDownSizeE
	.globl _ZN14idImageManager14image_downSizeE
	.globl _ZN14idImageManager13image_lodbiasE
	.globl _ZN14idImageManager16image_anisotropyE
	.globl _ZN14idImageManager12image_filterE
	.globl imageFilter
	.weak	_ZTV6idCVar
	.section	.rodata._ZTV6idCVar,"aG",@progbits,_ZTV6idCVar,comdat
	.align 3
	.type	_ZTV6idCVar, @object
	.size	_ZTV6idCVar, 32
_ZTV6idCVar:
	.long	0
	.long	_ZTI6idCVar
	.long	_ZN6idCVarD1Ev
	.long	_ZN6idCVarD0Ev
	.long	_ZN6idCVar17InternalSetStringEPKc
	.long	_ZN6idCVar15InternalSetBoolEb
	.long	_ZN6idCVar18InternalSetIntegerEi
	.long	_ZN6idCVar16InternalSetFloatEf
	.weak	_ZTI6idCVar
	.section	.sdata._ZTI6idCVar,"awG",@progbits,_ZTI6idCVar,comdat
	.align 2
	.type	_ZTI6idCVar, @object
	.size	_ZTI6idCVar, 8
_ZTI6idCVar:
	.long	_ZTVN10__cxxabiv117__class_type_infoE+8
	.long	_ZTS6idCVar
	.weak	_ZTS6idCVar
	.section	.sdata._ZTS6idCVar,"awG",@progbits,_ZTS6idCVar,comdat
	.align 2
	.type	_ZTS6idCVar, @object
	.size	_ZTS6idCVar, 8
_ZTS6idCVar:
	.string	"6idCVar"
	.weak	_ZN6idCVarD1Ev
	.set	_ZN6idCVarD1Ev,_ZN6idCVarD2Ev
	.weak	_ZN9idWindingD1Ev
	.set	_ZN9idWindingD1Ev,_ZN9idWindingD2Ev
	.weak	_ZN14idFixedWindingD1Ev
	.set	_ZN14idFixedWindingD1Ev,_ZN14idFixedWindingD2Ev
	.weak	_ZN6idCVarC1EPKcS1_iS1_PFvRK9idCmdArgsPFvS1_EE
	.set	_ZN6idCVarC1EPKcS1_iS1_PFvRK9idCmdArgsPFvS1_EE,_ZN6idCVarC2EPKcS1_iS1_PFvRK9idCmdArgsPFvS1_EE
	.section	.rodata
	.align 2
	.set	.LANCHOR2,. + 0
	.type	_ZZN14idImageManager19ChangeTextureFilterEvE14textureFilters, @object
	.size	_ZZN14idImageManager19ChangeTextureFilterEvE14textureFilters, 72
_ZZN14idImageManager19ChangeTextureFilterEvE14textureFilters:
	.long	.LC181
	.long	9985
	.long	9729
	.long	.LC182
	.long	9987
	.long	9729
	.long	.LC183
	.long	9728
	.long	9728
	.long	.LC184
	.long	9729
	.long	9729
	.long	.LC185
	.long	9984
	.long	9728
	.long	.LC186
	.long	9986
	.long	9728
	.type	_ZL7IC_Info, @object
	.size	_ZL7IC_Info, 180
_ZL7IC_Info:
	.long	.LC187
	.long	.LC188
	.long	0
	.long	512
	.long	512
	.long	.LC189
	.long	.LC190
	.long	1
	.long	512
	.long	512
	.long	.LC191
	.long	.LC192
	.long	2
	.long	512
	.long	512
	.long	.LC193
	.long	.LC194
	.long	3
	.long	512
	.long	512
	.long	.LC195
	.long	.LC196
	.long	4
	.long	512
	.long	512
	.long	.LC197
	.long	.LC198
	.long	5
	.long	512
	.long	512
	.long	.LC199
	.long	.LC200
	.long	6
	.long	256
	.long	256
	.long	.LC201
	.long	.LC202
	.long	7
	.long	256
	.long	256
	.long	.LC0
	.long	.LC203
	.long	8
	.long	256
	.long	256
	.section	.rodata.cst4,"aM",@progbits,4
	.align 2
.LC8:
	.4byte	1501560836
.LC9:
	.4byte	1132396544
.LC11:
	.4byte	1061158912
.LC13:
	.4byte	1082130432
.LC14:
	.4byte	0
.LC15:
	.4byte	1065353216
.LC16:
	.4byte	1065051226
.LC17:
	.4byte	1056964608
.LC19:
	.4byte	1069547520
.LC20:
	.4byte	1115422720
.LC24:
	.4byte	1098383360
.LC25:
	.4byte	1031798784
.LC26:
	.4byte	-1056964608
.LC27:
	.4byte	1040187392
.LC28:
	.4byte	-1041235968
.LC30:
	.4byte	-1082130432
.LC111:
	.4byte	897581056
.LC120:
	.4byte	.LC116
	.section	.rodata.cst8,"aM",@progbits,8
	.align 3
.LC88:
	.4byte	1062232653
	.4byte	-755914244
.LC94:
	.4byte	0
	.4byte	0
	.section	".data"
	.align 2
	.set	.LANCHOR0,. + 0
	.type	imageFilter, @object
	.size	imageFilter, 28
imageFilter:
	.long	.LC181
	.long	.LC182
	.long	.LC183
	.long	.LC184
	.long	.LC185
	.long	.LC186
	.long	0
	.section	.rodata.str1.4,"aMS",@progbits,1
	.align 2
.LC0:
	.string	""
	.zero	3
.LC1:
	.string	"%s 0"
	.zero	3
.LC2:
	.string	"%s 1"
	.zero	3
.LC3:
	.string	"%s %s"
	.zero	2
.LC4:
	.string	"void makeNormalizeVectorCubeMap( idImage *image ) NOT REQUIRED\r\n"
	.zero	3
.LC5:
	.string	"void R_AmbientNormalImage( idImage *image )\r\n"
	.zero	2
.LC6:
	.string	"void R_CombineCubeImages_f( const idCmdArgs &args )\r\n"
	.zero	2
.LC31:
	.string	"void CreatePitFogImage( void )\r\n"
	.zero	3
.LC32:
	.string	"void CreatealphaSquareImage( void )\r\n"
	.zero	2
.LC33:
	.string	"bad r_textureFilter: '%s'"
	.zero	2
.LC34:
	.string	"regenerating %s.\n"
	.zero	2
.LC35:
	.string	"reloading %s.\n"
	.zero	1
.LC36:
	.string	"all"
.LC37:
	.string	"reload"
	.zero	1
.LC38:
	.string	"USAGE: reloadImages <all>\n"
	.zero	1
.LC39:
	.string	"void idImageManager::SetNormalPalette( void )\r\n"
.LC40:
	.string	"idImageManager::AllocImage: \"%s\" is too long\n"
	.zero	2
.LC41:
	.string	".tga"
	.zero	3
.LC42:
	.string	"WARNING: reused image %s with mixed generators\n"
.LC43:
	.string	"default"
.LC44:
	.string	"_default"
	.zero	3
.LC45:
	.string	"DEFAULTED\n"
	.zero	1
.LC46:
	.string	"Image '%s' has been referenced with conflicting cube map states"
.LC47:
	.string	"%ix%i %s (reload for mixed referneces)\n"
.LC48:
	.string	"fontImage_"
	.zero	1
.LC49:
	.string	"%ix%i %s\n"
	.zero	2
.LC50:
	.string	"%s\n"
.LC51:
	.string	"reloadImages reload"
.LC52:
	.string	"void idImage::StartBackgroundImageLoad()\r\n"
	.zero	1
.LC53:
	.string	"R_CompleteBackgroundImageLoad: %s\n"
	.zero	1
.LC54:
	.string	"background Loads: %i\n"
	.zero	2
.LC55:
	.string	"BindNull()\n"
.LC56:
	.string	"_white"
	.zero	1
.LC57:
	.string	"_black"
	.zero	1
.LC58:
	.string	"_borderClamp"
	.zero	3
.LC59:
	.string	"_flat"
	.zero	2
.LC60:
	.string	"_ambient"
	.zero	3
.LC61:
	.string	"_specularTable"
	.zero	1
.LC62:
	.string	"_specular2DTable"
	.zero	3
.LC63:
	.string	"_ramp"
	.zero	2
.LC64:
	.string	"_alphaRamp"
	.zero	1
.LC65:
	.string	"_alphaNotch"
.LC66:
	.string	"_fog"
	.zero	3
.LC67:
	.string	"_fogEnter"
	.zero	2
.LC68:
	.string	"_normalCubeMap"
	.zero	1
.LC69:
	.string	"_noFalloff"
	.zero	1
.LC70:
	.string	"_quadratic"
	.zero	1
.LC71:
	.string	"_cinematic"
	.zero	1
.LC72:
	.string	"_scratch"
	.zero	3
.LC73:
	.string	"_scratch2"
	.zero	2
.LC74:
	.string	"_accum"
	.zero	1
.LC75:
	.string	"_scratchCubeMap"
.LC76:
	.string	"_currentRender"
	.zero	1
.LC77:
	.string	"reloadImages"
	.zero	3
.LC78:
	.string	"reloads images"
	.zero	1
.LC79:
	.string	"listImages"
	.zero	1
.LC80:
	.string	"lists images"
	.zero	3
.LC81:
	.string	"combineCubeImages"
	.zero	2
.LC82:
	.string	"combines six images for roq compression"
.LC83:
	.string	"----- idImageManager::EndLevelLoad -----\n"
	.zero	2
.LC84:
	.string	"%5i purged from previous\n"
	.zero	2
.LC85:
	.string	"%5i kept from previous\n"
.LC86:
	.string	"%5i new loaded\n"
.LC87:
	.string	"all images loaded in %5.1f seconds\n"
.LC89:
	.string	"----------------------------------------\n"
	.zero	2
.LC90:
	.string	"void idImageManager::StartBuild()\r\n"
.LC91:
	.string	"void idImageManager::FinishBuild( bool removeDups )\r\n"
	.zero	2
.LC92:
	.string	"void idImageManager::AddDDSCommand( const char *cmd )\r\n"
.LC93:
	.string	"void idImageManager::PrintMemInfo( MemInfo_t *mi )\r\n"
	.zero	3
.LC95:
	.string	"uncompressed"
	.zero	3
.LC96:
	.string	"sorted"
	.zero	1
.LC97:
	.string	"partial"
.LC98:
	.string	"unloaded"
	.zero	3
.LC99:
	.string	"cached"
	.zero	1
.LC100:
	.string	"uncached"
	.zero	3
.LC101:
	.string	"tagged"
	.zero	1
.LC102:
	.string	"duplicated"
	.zero	1
.LC103:
	.string	"touched"
.LC104:
	.string	"classify"
	.zero	3
.LC105:
	.string	"oversized"
	.zero	2
.LC106:
	.string	"\n%s"
.LC107:
	.string	"       -w-- -h-- filt -fmt-- wrap  size --name-------\n"
	.zero	1
.LC108:
	.string	"%4i:"
	.zero	3
.LC109:
	.string	"-------- %5.1f of %5.1f megs --------\n"
	.zero	1
.LC112:
	.string	"%s"
	.zero	1
.LC113:
	.string	" %i images (%i total)\n"
	.zero	1
.LC114:
	.string	" %5.1f total megabytes of images\n\n\n"
.LC115:
	.string	" Classification %s contains %i images using %5.1f megabytes\n"
	.zero	3
.LC116:
	.string	"  The following images may be oversized\n"
	.zero	3
.LC117:
	.string	"    "
	.zero	3
.LC118:
	.string	"\n"
	.zero	2
.LC119:
	.string	"usage: listImages [ sorted | partial | unloaded | cached | uncached | tagged | duplicated | touched | classify | showOverSized ]\n"
	.zero	2
.LC121:
	.string	"image_filter"
	.zero	3
.LC122:
	.string	"changes texture filtering on mipmapped images"
	.zero	2
.LC123:
	.string	"image_anisotropy"
	.zero	3
.LC124:
	.string	"1"
	.zero	2
.LC125:
	.string	"set the maximum texture anisotropy if available"
.LC126:
	.string	"image_lodbias"
	.zero	2
.LC127:
	.string	"0"
	.zero	2
.LC128:
	.string	"change lod bias on mipmapped images"
.LC129:
	.string	"image_downSize"
	.zero	1
.LC130:
	.string	"controls texture downsampling"
	.zero	2
.LC131:
	.string	"image_forceDownSize"
.LC132:
	.string	"image_roundDown"
.LC133:
	.string	"round bad sizes down to nearest power of two"
	.zero	3
.LC134:
	.string	"image_colorMipLevels"
	.zero	3
.LC135:
	.string	"development aid to see texture mip usage"
	.zero	3
.LC136:
	.string	"image_preload"
	.zero	2
.LC137:
	.string	"if 0, dynamically load all images"
	.zero	2
.LC138:
	.string	"image_useCompression"
	.zero	3
.LC139:
	.string	"0 = force everything to high quality"
	.zero	3
.LC140:
	.string	"image_useAllFormats"
.LC141:
	.string	"allow alpha/intensity/luminance/luminance+alpha"
.LC142:
	.string	"image_useNormalCompression"
	.zero	1
.LC143:
	.string	"2"
	.zero	2
.LC144:
	.string	"2 = use rxgb compression for normal maps, 1 = use 256 color compression for normal maps if available"
	.zero	3
.LC145:
	.string	"image_usePrecompressedTextures"
	.zero	1
.LC146:
	.string	"use .dds files if present"
	.zero	2
.LC147:
	.string	"image_writePrecompressedTextures"
	.zero	3
.LC148:
	.string	"write .dds files if necessary"
	.zero	2
.LC149:
	.string	"image_writeNormalTGA"
	.zero	3
.LC150:
	.string	"write .tgas of the final normal maps for debugging"
	.zero	1
.LC151:
	.string	"image_writeNormalTGAPalletized"
	.zero	1
.LC152:
	.string	"write .tgas of the final palletized normal maps for debugging"
	.zero	2
.LC153:
	.string	"image_writeTGA"
	.zero	1
.LC154:
	.string	"write .tgas of the non normal maps for debugging"
	.zero	3
.LC155:
	.string	"image_useOfflineCompression"
.LC156:
	.string	"write a batch file for offline compression of DDS files"
.LC157:
	.string	"image_cacheMinK"
.LC158:
	.string	"200"
.LC159:
	.string	"maximum KB of precompressed files to read at specification time"
.LC160:
	.string	"image_cacheMegs"
.LC161:
	.string	"maximum MB set aside for temporary loading of full-sized precompressed images"
	.zero	2
.LC162:
	.string	"image_useCache"
	.zero	1
.LC163:
	.string	"1 = do background load image caching"
	.zero	3
.LC164:
	.string	"image_showBackgroundLoads"
	.zero	2
.LC165:
	.string	"1 = print number of outstanding background loads"
	.zero	3
.LC166:
	.string	"image_downSizeSpecular"
	.zero	1
.LC167:
	.string	"controls specular downsampling"
	.zero	1
.LC168:
	.string	"image_downSizeBump"
	.zero	1
.LC169:
	.string	"controls normal map downsampling"
	.zero	3
.LC170:
	.string	"image_downSizeSpecularLimit"
.LC171:
	.string	"64"
	.zero	1
.LC172:
	.string	"controls specular downsampled limit"
.LC173:
	.string	"image_downSizeBumpLimit"
.LC174:
	.string	"128"
.LC175:
	.string	"controls normal map downsample limit"
	.zero	3
.LC176:
	.string	"image_ignoreHighQuality"
.LC177:
	.string	"ignore high quality setting on materials"
	.zero	3
.LC178:
	.string	"image_downSizeLimit"
.LC179:
	.string	"256"
.LC180:
	.string	"controls diffuse map downsample limit"
	.zero	2
.LC181:
	.string	"GL_LINEAR_MIPMAP_NEAREST"
	.zero	3
.LC182:
	.string	"GL_LINEAR_MIPMAP_LINEAR"
.LC183:
	.string	"GL_NEAREST"
	.zero	1
.LC184:
	.string	"GL_LINEAR"
	.zero	2
.LC185:
	.string	"GL_NEAREST_MIPMAP_NEAREST"
	.zero	2
.LC186:
	.string	"GL_NEAREST_MIPMAP_LINEAR"
	.zero	3
.LC187:
	.string	"models/characters"
	.zero	2
.LC188:
	.string	"Characters"
	.zero	1
.LC189:
	.string	"models/weapons"
	.zero	1
.LC190:
	.string	"Weapons"
.LC191:
	.string	"models/monsters"
.LC192:
	.string	"Monsters"
	.zero	3
.LC193:
	.string	"models/mapobjects"
	.zero	2
.LC194:
	.string	"Model Geometry"
	.zero	1
.LC195:
	.string	"models/items"
	.zero	3
.LC196:
	.string	"Items"
	.zero	2
.LC197:
	.string	"models"
	.zero	1
.LC198:
	.string	"Other model textures"
	.zero	3
.LC199:
	.string	"guis/assets"
.LC200:
	.string	"Guis"
	.zero	3
.LC201:
	.string	"textures"
	.zero	3
.LC202:
	.string	"World Geometry"
	.zero	1
.LC203:
	.string	"Other"
	.section	.sdata,"aw",@progbits
	.align 2
	.type	globalImages, @object
	.size	globalImages, 4
globalImages:
	.long	imageManager
	.section	".bss"
	.align 2
	.set	.LANCHOR1,. + 0
	.type	_ZN14idImageManager26image_useNormalCompressionE, @object
	.size	_ZN14idImageManager26image_useNormalCompressionE, 52
_ZN14idImageManager26image_useNormalCompressionE:
	.zero	52
	.type	_ZN14idImageManager12image_filterE, @object
	.size	_ZN14idImageManager12image_filterE, 52
_ZN14idImageManager12image_filterE:
	.zero	52
	.type	_ZN14idImageManager16image_anisotropyE, @object
	.size	_ZN14idImageManager16image_anisotropyE, 52
_ZN14idImageManager16image_anisotropyE:
	.zero	52
	.type	_ZN14idImageManager13image_lodbiasE, @object
	.size	_ZN14idImageManager13image_lodbiasE, 52
_ZN14idImageManager13image_lodbiasE:
	.zero	52
	.type	_ZN14idImageManager13image_preloadE, @object
	.size	_ZN14idImageManager13image_preloadE, 52
_ZN14idImageManager13image_preloadE:
	.zero	52
	.type	_ZN14idImageManager25image_showBackgroundLoadsE, @object
	.size	_ZN14idImageManager25image_showBackgroundLoadsE, 52
_ZN14idImageManager25image_showBackgroundLoadsE:
	.zero	52
	.type	_ZZN14idImageManager28CompleteBackgroundImageLoadsEvE4prev, @object
	.size	_ZZN14idImageManager28CompleteBackgroundImageLoadsEvE4prev, 4
_ZZN14idImageManager28CompleteBackgroundImageLoadsEvE4prev:
	.zero	4
	.type	_ZN14idImageManager14image_downSizeE, @object
	.size	_ZN14idImageManager14image_downSizeE, 52
_ZN14idImageManager14image_downSizeE:
	.zero	52
	.type	_ZN14idImageManager19image_forceDownSizeE, @object
	.size	_ZN14idImageManager19image_forceDownSizeE, 52
_ZN14idImageManager19image_forceDownSizeE:
	.zero	52
	.type	_ZN14idImageManager15image_roundDownE, @object
	.size	_ZN14idImageManager15image_roundDownE, 52
_ZN14idImageManager15image_roundDownE:
	.zero	52
	.type	_ZN14idImageManager20image_colorMipLevelsE, @object
	.size	_ZN14idImageManager20image_colorMipLevelsE, 52
_ZN14idImageManager20image_colorMipLevelsE:
	.zero	52
	.type	_ZN14idImageManager20image_useCompressionE, @object
	.size	_ZN14idImageManager20image_useCompressionE, 52
_ZN14idImageManager20image_useCompressionE:
	.zero	52
	.type	_ZN14idImageManager19image_useAllFormatsE, @object
	.size	_ZN14idImageManager19image_useAllFormatsE, 52
_ZN14idImageManager19image_useAllFormatsE:
	.zero	52
	.type	_ZN14idImageManager30image_usePrecompressedTexturesE, @object
	.size	_ZN14idImageManager30image_usePrecompressedTexturesE, 52
_ZN14idImageManager30image_usePrecompressedTexturesE:
	.zero	52
	.type	_ZN14idImageManager32image_writePrecompressedTexturesE, @object
	.size	_ZN14idImageManager32image_writePrecompressedTexturesE, 52
_ZN14idImageManager32image_writePrecompressedTexturesE:
	.zero	52
	.type	_ZN14idImageManager20image_writeNormalTGAE, @object
	.size	_ZN14idImageManager20image_writeNormalTGAE, 52
_ZN14idImageManager20image_writeNormalTGAE:
	.zero	52
	.type	_ZN14idImageManager30image_writeNormalTGAPalletizedE, @object
	.size	_ZN14idImageManager30image_writeNormalTGAPalletizedE, 52
_ZN14idImageManager30image_writeNormalTGAPalletizedE:
	.zero	52
	.type	_ZN14idImageManager14image_writeTGAE, @object
	.size	_ZN14idImageManager14image_writeTGAE, 52
_ZN14idImageManager14image_writeTGAE:
	.zero	52
	.type	_ZN14idImageManager27image_useOffLineCompressionE, @object
	.size	_ZN14idImageManager27image_useOffLineCompressionE, 52
_ZN14idImageManager27image_useOffLineCompressionE:
	.zero	52
	.type	_ZN14idImageManager15image_cacheMinKE, @object
	.size	_ZN14idImageManager15image_cacheMinKE, 52
_ZN14idImageManager15image_cacheMinKE:
	.zero	52
	.type	_ZN14idImageManager15image_cacheMegsE, @object
	.size	_ZN14idImageManager15image_cacheMegsE, 52
_ZN14idImageManager15image_cacheMegsE:
	.zero	52
	.type	_ZN14idImageManager14image_useCacheE, @object
	.size	_ZN14idImageManager14image_useCacheE, 52
_ZN14idImageManager14image_useCacheE:
	.zero	52
	.type	_ZN14idImageManager22image_downSizeSpecularE, @object
	.size	_ZN14idImageManager22image_downSizeSpecularE, 52
_ZN14idImageManager22image_downSizeSpecularE:
	.zero	52
	.type	_ZN14idImageManager18image_downSizeBumpE, @object
	.size	_ZN14idImageManager18image_downSizeBumpE, 52
_ZN14idImageManager18image_downSizeBumpE:
	.zero	52
	.type	_ZN14idImageManager27image_downSizeSpecularLimitE, @object
	.size	_ZN14idImageManager27image_downSizeSpecularLimitE, 52
_ZN14idImageManager27image_downSizeSpecularLimitE:
	.zero	52
	.type	_ZN14idImageManager23image_downSizeBumpLimitE, @object
	.size	_ZN14idImageManager23image_downSizeBumpLimitE, 52
_ZN14idImageManager23image_downSizeBumpLimitE:
	.zero	52
	.type	_ZN14idImageManager23image_ignoreHighQualityE, @object
	.size	_ZN14idImageManager23image_ignoreHighQualityE, 52
_ZN14idImageManager23image_ignoreHighQualityE:
	.zero	52
	.type	_ZN14idImageManager19image_downSizeLimitE, @object
	.size	_ZN14idImageManager19image_downSizeLimitE, 52
_ZN14idImageManager19image_downSizeLimitE:
	.zero	52
	.type	imageManager, @object
	.size	imageManager, 6532
imageManager:
	.zero	6532
	.section	".text"
.Letext0:
	.file 11 "<built-in>"
	.file 12 "c:\\utils\\devkitpro\\devkitppc\\bin\\../lib/gcc/powerpc-eabi/4.6.3/include/stddef.h"
	.file 13 "c:\\utils\\devkitpro\\devkitppc\\bin\\../lib/gcc/powerpc-eabi/4.6.3/../../../../powerpc-eabi/include/sys/types.h"
	.file 14 "d:/Data/Nintendo/DoomGX/src/renderer/../idlib/../sys/sys_public.h"
	.file 15 "d:/Data/Nintendo/DoomGX/src/renderer/../idlib/../framework/Common.h"
	.file 16 "d:/Data/Nintendo/DoomGX/src/renderer/../idlib/../framework/FileSystem.h"
	.file 17 "d:/Data/Nintendo/DoomGX/src/renderer/../idlib/../idlib/Lib.h"
	.file 18 "d:/Data/Nintendo/DoomGX/src/renderer/../idlib/../idlib/math/Random.h"
	.file 19 "d:/Data/Nintendo/DoomGX/src/renderer/../idlib/../idlib/math/Vector.h"
	.file 20 "d:/Data/Nintendo/DoomGX/src/renderer/../idlib/../idlib/math/Angles.h"
	.file 21 "d:/Data/Nintendo/DoomGX/src/renderer/../idlib/../idlib/math/Matrix.h"
	.file 22 "d:/Data/Nintendo/DoomGX/src/renderer/../idlib/../idlib/math/Quat.h"
	.file 23 "d:/Data/Nintendo/DoomGX/src/renderer/../idlib/../idlib/math/Rotation.h"
	.file 24 "d:/Data/Nintendo/DoomGX/src/renderer/../idlib/../idlib/math/Plane.h"
	.file 25 "d:/Data/Nintendo/DoomGX/src/renderer/../idlib/../idlib/math/Ode.h"
	.file 26 "d:/Data/Nintendo/DoomGX/src/renderer/../idlib/../idlib/bv/Sphere.h"
	.file 27 "d:/Data/Nintendo/DoomGX/src/renderer/../idlib/../idlib/bv/Bounds.h"
	.file 28 "d:/Data/Nintendo/DoomGX/src/renderer/../idlib/../idlib/bv/Box.h"
	.file 29 "d:/Data/Nintendo/DoomGX/src/renderer/../idlib/../idlib/bv/Frustum.h"
	.file 30 "d:/Data/Nintendo/DoomGX/src/renderer/../idlib/../idlib/geometry/DrawVert.h"
	.file 31 "d:/Data/Nintendo/DoomGX/src/renderer/../idlib/../idlib/geometry/JointTransform.h"
	.file 32 "d:/Data/Nintendo/DoomGX/src/renderer/../idlib/../idlib/geometry/Surface.h"
	.file 33 "d:/Data/Nintendo/DoomGX/src/renderer/../idlib/../idlib/geometry/TraceModel.h"
	.file 34 "d:/Data/Nintendo/DoomGX/src/renderer/../idlib/../idlib/Token.h"
	.file 35 "d:/Data/Nintendo/DoomGX/src/renderer/../idlib/../idlib/Lexer.h"
	.file 36 "d:/Data/Nintendo/DoomGX/src/renderer/../idlib/../framework/File.h"
	.file 37 "d:/Data/Nintendo/DoomGX/src/renderer/../idlib/../idlib/Parser.h"
	.file 38 "d:/Data/Nintendo/DoomGX/src/renderer/../idlib/../idlib/containers/StrList.h"
	.file 39 "d:/Data/Nintendo/DoomGX/src/renderer/../idlib/../idlib/containers/StrPool.h"
	.file 40 "d:/Data/Nintendo/DoomGX/src/renderer/../idlib/../idlib/containers/PlaneSet.h"
	.file 41 "d:/Data/Nintendo/DoomGX/src/renderer/../idlib/../idlib/Dict.h"
	.file 42 "d:/Data/Nintendo/DoomGX/src/renderer/../idlib/../idlib/LangDict.h"
	.file 43 "d:/Data/Nintendo/DoomGX/src/renderer/../idlib/../idlib/BitMsg.h"
	.file 44 "d:/Data/Nintendo/DoomGX/src/renderer/../idlib/../idlib/MapFile.h"
	.file 45 "d:/Data/Nintendo/DoomGX/src/renderer/../idlib/../framework/UsercmdGen.h"
	.file 46 "d:/Data/Nintendo/DoomGX/src/renderer/../idlib/../framework/DeclManager.h"
	.file 47 "d:/Data/Nintendo/DoomGX/src/renderer/../idlib/../framework/DeclParticle.h"
	.file 48 "d:/Data/Nintendo/DoomGX/src/renderer/../idlib/../renderer/RenderWorld.h"
	.file 49 "d:/Data/Nintendo/DoomGX/gl2gx/include/GL/gl.h"
	.file 50 "d:/Data/Nintendo/DoomGX/src/renderer/../idlib/../renderer/Cinematic.h"
	.file 51 "d:/Data/Nintendo/DoomGX/src/renderer/../idlib/../renderer/Material.h"
	.file 52 "d:/Data/Nintendo/DoomGX/src/renderer/../idlib/../renderer/Model.h"
	.file 53 "d:/Data/Nintendo/DoomGX/src/renderer/VertexCache.h"
	.file 54 "d:/Data/Nintendo/DoomGX/src/renderer/../idlib/../renderer/RenderSystem.h"
	.file 55 "d:/Data/Nintendo/DoomGX/src/renderer/../idlib/../sound/sound.h"
	.file 56 "d:/Data/Nintendo/DoomGX/src/renderer/../idlib/../ui/UserInterface.h"
	.file 57 "d:/Data/Nintendo/DoomGX/src/renderer/../idlib/../cm/CollisionModel.h"
	.file 58 "d:/Data/Nintendo/DoomGX/src/renderer/../idlib/../tools/compilers/aas/AASFile.h"
	.file 59 "d:/Data/Nintendo/DoomGX/src/renderer/../idlib/../game/Game.h"
	.file 60 "d:/Data/Nintendo/DoomGX/src/renderer/../idlib/../framework/async/NetworkSystem.h"
	.file 61 "d:/Data/Nintendo/DoomGX/src/renderer/../idlib/../renderer/ModelManager.h"
	.file 62 "d:/Data/Nintendo/DoomGX/src/renderer/../idlib/../tools/compilers/aas/AASFileManager.h"
	.file 63 "d:/Data/Nintendo/DoomGX/src/renderer/../idlib/../framework/Session.h"
	.file 64 "d:/Data/Nintendo/DoomGX/src/renderer/../idlib/../ui/ListGUI.h"
	.file 65 "d:/Data/Nintendo/DoomGX/src/renderer/tr_local.h"
	.file 66 "d:/Data/Nintendo/DoomGX/src/renderer/../idlib/../framework/Console.h"
	.file 67 "d:/Data/Nintendo/DoomGX/src/renderer/../idlib/../idlib/math/Curve.h"
	.file 68 "d:/Data/Nintendo/DoomGX/src/renderer/../idlib/../idlib/math/Simd.h"
	.file 69 "d:/Data/Nintendo/DoomGX/src/renderer/../idlib/../framework/BuildVersion.h"
	.file 70 "d:/Data/Nintendo/DoomGX/src/renderer/../idlib/precompiled.h"
	.file 71 "d:/Data/Nintendo/DoomGX/src/renderer/../idlib/../framework/EventLoop.h"
	.file 72 "d:/Data/Nintendo/DoomGX/src/renderer/../idlib/../framework/EditField.h"
	.file 73 "d:/Data/Nintendo/DoomGX/src/renderer/../idlib/../framework/async/AsyncNetwork.h"
	.file 74 "d:/Data/Nintendo/DoomGX/src/renderer/../idlib/../framework/async/AsyncServer.h"
	.file 75 "d:/Data/Nintendo/DoomGX/src/renderer/MegaTexture.h"
	.file 76 "d:/Data/Nintendo/DoomGX/src/renderer/ModelDecal.h"
	.file 77 "d:/Data/Nintendo/DoomGX/src/renderer/ModelOverlay.h"
	.file 78 "d:/Data/Nintendo/DoomGX/src/renderer/RenderWorld_local.h"