	.file	"jcphuff.c.c"
	.section	".text"
.Ltext0:
	.cfi_sections	.debug_frame
	.align 2
	.type	dump_buffer, @function
dump_buffer:
.LFB1:
	.file 1 "d:/Data/Nintendo/DoomGX/src/renderer/jpeg-6/jcphuff.c.c"
	.loc 1 214 0
	.cfi_startproc
.LVL0:
	mflr 0
	stwu 1,-16(1)
.LCFI0:
	.cfi_def_cfa_offset 16
	.cfi_register 65, 0
	stw 31,12(1)
	mr 31,3
	.cfi_offset 31, -4
	stw 0,20(1)
	stw 30,8(1)
	.loc 1 215 0
	lwz 3,32(3)
.LVL1:
	lwz 30,20(3)
	.cfi_offset 30, -8
	.cfi_offset 65, 4
.LVL2:
	.loc 1 217 0
	lwz 0,12(30)
	mtctr 0
	bctrl
.LVL3:
	cmpwi 7,3,0
	bne+ 7,.L2
	.loc 1 218 0
	lwz 9,32(31)
	li 0,20
	lwz 9,0(9)
	stw 0,20(9)
	lwz 3,32(31)
	lwz 9,0(3)
	lwz 0,0(9)
	mtctr 0
	bctrl
.L2:
	.loc 1 220 0
	lwz 0,0(30)
	stw 0,16(31)
	.loc 1 221 0
	lwz 0,4(30)
	stw 0,20(31)
	.loc 1 222 0
	lwz 0,20(1)
	lwz 30,8(1)
.LVL4:
	mtlr 0
	lwz 31,12(1)
.LVL5:
	addi 1,1,16
.LCFI1:
	.cfi_def_cfa_offset 0
	.cfi_restore 31
	.cfi_restore 30
	blr
	.cfi_endproc
.LFE1:
	.size	dump_buffer, .-dump_buffer
	.align 2
	.type	start_pass_phuff, @function
start_pass_phuff:
.LFB0:
	.loc 1 107 0
	.cfi_startproc
.LVL6:
	mflr 0
	stwu 1,-48(1)
.LCFI2:
	.cfi_def_cfa_offset 48
	.cfi_register 65, 0
	mfcr 12
	stw 29,36(1)
	mr 29,4
	.cfi_offset 29, -12
	.cfi_register 70, 12
	stw 31,44(1)
	mr 31,3
	.cfi_offset 31, -4
	stw 0,52(1)
	stw 23,12(1)
	stw 24,16(1)
	stw 25,20(1)
	stw 26,24(1)
	stw 27,28(1)
	stw 28,32(1)
	stw 30,40(1)
	stw 12,8(1)
	.loc 1 108 0
	lwz 30,336(3)
	.cfi_offset 70, -40
	.cfi_offset 30, -8
	.cfi_offset 28, -16
	.cfi_offset 27, -20
	.cfi_offset 26, -24
	.cfi_offset 25, -28
	.cfi_offset 24, -32
	.cfi_offset 23, -36
	.cfi_offset 65, 4
.LVL7:
	.loc 1 113 0
	stw 3,32(30)
	.loc 1 114 0
	stb 4,12(30)
	.loc 1 121 0
	lwz 9,296(3)
	.loc 1 116 0
	lwz 0,288(3)
	.loc 1 121 0
	cmpwi 7,9,0
	.loc 1 116 0
	cntlzw 0,0
	srwi 0,0,5
.LVL8:
	.loc 1 122 0
	cmpwi 4,0,0
	.loc 1 121 0
	bne- 7,.L5
	.loc 1 122 0
	beq- 4,.L6
	.loc 1 138 0
	cmpwi 3,29,0
	.loc 1 123 0
	lis 9,encode_mcu_DC_first@ha
	la 0,encode_mcu_DC_first@l(9)
	stw 0,4(30)
	.loc 1 138 0
	beq- 3,.L27
.LVL9:
.L22:
	.loc 1 139 0
	lis 9,finish_pass_gather_phuff@ha
	la 0,finish_pass_gather_phuff@l(9)
	b .L9
.LVL10:
.L5:
	.loc 1 127 0
	bne- 4,.L28
	.loc 1 132 0
	lwz 0,64(30)
	.loc 1 130 0
	lis 9,encode_mcu_AC_refine@ha
	.loc 1 132 0
	cmpwi 7,0,0
	.loc 1 130 0
	la 0,encode_mcu_AC_refine@l(9)
	stw 0,4(30)
	.loc 1 132 0
	beq- 7,.L29
.LVL11:
.L7:
	.loc 1 138 0
	cmpwi 3,29,0
	bne- 3,.L22
.L27:
	.loc 1 141 0
	lis 9,finish_pass_phuff@ha
	la 0,finish_pass_phuff@l(9)
.L9:
	.loc 1 138 0 discriminator 1
	stw 0,8(30)
.LVL12:
	.loc 1 146 0 discriminator 1
	lwz 0,216(31)
	cmpwi 7,0,0
	ble- 7,.L10
	.loc 1 106 0
	addi 27,31,216
	addi 28,30,32
	li 29,0
	.loc 1 149 0
	li 26,0
	.loc 1 163 0
	li 24,47
.LVL13:
.L20:
	.loc 1 147 0
	lwzu 9,4(27)
.LVL14:
	.loc 1 149 0
	stwu 26,4(28)
	.loc 1 152 0
	beq- 4,.L11
	.loc 1 153 0
	lwz 0,296(31)
	cmpwi 7,0,0
	bne- 7,.L12
	.loc 1 155 0
	lwz 23,20(9)
.LVL15:
	.loc 1 156 0
	cmplwi 7,23,3
	bgt- 7,.L16
	.loc 1 157 0 discriminator 1
	addi 25,23,20
	slwi 0,25,2
	.loc 1 156 0 discriminator 1
	lwzx 0,31,0
	cmpwi 7,0,0
	beq- 7,.L30
.LVL16:
.L14:
	.loc 1 165 0
	bne- 3,.L25
	.loc 1 176 0
	beq- 4,.L19
	.loc 1 177 0
	addi 0,23,20
.L26:
	.loc 1 180 0
	addi 5,23,16
	slwi 0,0,2
	slwi 5,5,2
	lwzx 4,31,0
	add 5,30,5
	mr 3,31
	addi 5,5,12
	bl jpeg_make_c_derived_tbl
.LVL17:
.L12:
	.loc 1 146 0
	lwz 0,216(31)
	addi 29,29,1
.LVL18:
	cmpw 7,0,29
	bgt+ 7,.L20
.LVL19:
.L10:
	.loc 1 186 0
	li 0,0
	stw 0,56(30)
	.loc 1 187 0
	stw 0,60(30)
	.loc 1 190 0
	stw 0,24(30)
	.loc 1 191 0
	stw 0,28(30)
	.loc 1 194 0
	lwz 9,180(31)
	.loc 1 195 0
	stw 0,72(30)
	.loc 1 194 0
	stw 9,68(30)
	.loc 1 196 0
	lwz 0,52(1)
	lwz 12,8(1)
	mtlr 0
	lwz 23,12(1)
	lwz 24,16(1)
	mtcrf 24,12
	lwz 25,20(1)
	lwz 26,24(1)
	lwz 27,28(1)
	lwz 28,32(1)
	lwz 29,36(1)
	lwz 30,40(1)
.LVL20:
	lwz 31,44(1)
.LVL21:
	addi 1,1,48
	.cfi_remember_state
.LCFI3:
	.cfi_def_cfa_offset 0
	.cfi_restore 70
	.cfi_restore 31
	.cfi_restore 30
	.cfi_restore 29
	.cfi_restore 28
	.cfi_restore 27
	.cfi_restore 26
	.cfi_restore 25
	.cfi_restore 24
	.cfi_restore 23
	blr
.LVL22:
.L28:
.LCFI4:
	.cfi_restore_state
	.loc 1 128 0
	lis 9,encode_mcu_DC_refine@ha
	la 0,encode_mcu_DC_refine@l(9)
	stw 0,4(30)
	b .L7
.L6:
	.loc 1 125 0
	lis 9,encode_mcu_AC_first@ha
	la 0,encode_mcu_AC_first@l(9)
	stw 0,4(30)
	b .L7
.LVL23:
.L11:
	.loc 1 160 0
	lwz 23,24(9)
.LVL24:
	.loc 1 161 0
	cmplwi 7,23,3
	.loc 1 160 0
	stw 23,52(30)
	.loc 1 161 0
	bgt- 7,.L16
	.loc 1 162 0 discriminator 1
	addi 0,23,24
	slwi 0,0,2
	.loc 1 161 0 discriminator 1
	lwzx 0,31,0
	cmpwi 7,0,0
	bne+ 7,.L14
	.loc 1 162 0
	beq- 3,.L16
.LVL25:
.L25:
	addi 25,23,20
.L21:
	.loc 1 168 0
	slwi 25,25,2
	add 25,30,25
	lwz 3,12(25)
	cmpwi 7,3,0
	beq- 7,.L31
.L18:
	.loc 1 172 0
	li 4,0
	li 5,1028
	bl memset
	b .L12
.LVL26:
.L30:
	.loc 1 157 0
	bne- 3,.L21
.L16:
	.loc 1 163 0
	lwz 9,0(31)
.LVL27:
	mr 3,31
	stw 24,20(9)
	lwz 9,0(31)
	stw 23,24(9)
	lwz 9,0(31)
	lwz 0,0(9)
	mtctr 0
	bctrl
.LVL28:
	b .L14
.L19:
	.loc 1 180 0
	addi 0,23,24
	b .L26
.L31:
	.loc 1 170 0
	lwz 9,4(31)
	mr 3,31
	li 4,1
	li 5,1028
	lwz 0,0(9)
	mtctr 0
	bctrl
	.loc 1 169 0
	stw 3,12(25)
	b .L18
.LVL29:
.L29:
	.loc 1 134 0
	lwz 9,4(3)
	li 4,1
.LVL30:
	li 5,1000
	lwz 0,0(9)
	mtctr 0
	bctrl
.LVL31:
	.loc 1 133 0
	stw 3,64(30)
	b .L7
	.cfi_endproc
.LFE0:
	.size	start_pass_phuff, .-start_pass_phuff
	.align 2
	.type	emit_eobrun, @function
emit_eobrun:
.LFB6:
	.loc 1 324 0
	.cfi_startproc
.LVL32:
	mflr 0
	stwu 1,-48(1)
.LCFI5:
	.cfi_def_cfa_offset 48
	.cfi_register 65, 0
	stw 31,44(1)
	mr 31,3
	.cfi_offset 31, -4
	stw 0,52(1)
	stw 23,12(1)
	stw 24,16(1)
	stw 25,20(1)
	stw 26,24(1)
	stw 27,28(1)
	stw 28,32(1)
	stw 29,36(1)
	stw 30,40(1)
	.loc 1 327 0
	lwz 0,56(3)
	.cfi_offset 30, -8
	.cfi_offset 29, -12
	.cfi_offset 28, -16
	.cfi_offset 27, -20
	.cfi_offset 26, -24
	.cfi_offset 25, -28
	.cfi_offset 24, -32
	.cfi_offset 23, -36
	.cfi_offset 65, 4
	cmpwi 7,0,0
	beq- 7,.L32
.LVL33:
.LBB49:
.LBB50:
	.loc 1 330 0
	srawi. 0,0,1
	li 9,0
	.loc 1 329 0
	li 30,0
	.loc 1 330 0
	beq- 0,.L34
.LVL34:
.L35:
	srawi. 0,0,1
	.loc 1 331 0
	addi 30,30,1
.LVL35:
	.loc 1 330 0
	bne+ 0,.L35
	slwi 9,30,4
.LVL36:
.L34:
.LBB51:
.LBB52:
	.loc 1 290 0
	lbz 0,12(31)
.LBE52:
.LBE51:
	.loc 1 333 0
	lwz 11,52(31)
.LVL37:
.LBB73:
.LBB69:
	.loc 1 290 0
	andi. 10,0,0xff
	beq- 0,.L36
	.loc 1 291 0
	addi 11,11,20
	slwi 9,9,2
.LVL38:
	slwi 11,11,2
	add 11,31,11
	lwz 11,12(11)
	lwzx 10,11,9
	addi 0,10,1
	stwx 0,11,9
	lbz 0,12(31)
	cmpwi 0,0,0
.LVL39:
.L37:
.LBE69:
.LBE73:
	.loc 1 334 0
	cmpwi 7,30,0
	bne- 7,.L62
.L43:
	.loc 1 337 0
	li 0,0
	.loc 1 340 0
	lwz 24,64(31)
	.loc 1 337 0
	stw 0,56(31)
	.loc 1 340 0
	lwz 23,60(31)
.LVL40:
.LBB74:
.LBB75:
	.loc 1 307 0
	bne- 0,.L49
.LVL41:
.LBB76:
.LBB77:
	.loc 1 310 0
	cmpwi 7,23,0
	beq- 7,.L49
	.loc 1 323 0
	addi 23,23,-1
.LBE77:
.LBE76:
.LBE75:
.LBE74:
.LBB88:
.LBB89:
	li 27,0
.LBE89:
.LBE88:
.LBB94:
.LBB87:
.LBB86:
.LBB85:
.LBB78:
.LBB79:
.LBB80:
	.loc 1 262 0
	li 25,0
.LVL42:
.L55:
.LBE80:
.LBE79:
.LBE78:
	.loc 1 311 0
	lbzx 29,24,27
.LVL43:
.LBB84:
.LBB83:
	.loc 1 240 0
	lwz 26,28(31)
.LVL44:
	.loc 1 246 0
	bne- 0,.L50
	.loc 1 251 0
	addi 30,26,1
	.loc 1 249 0
	rlwinm 29,29,0,31,31
.LVL45:
	.loc 1 257 0
	cmpwi 7,30,7
	.loc 1 253 0
	subfic 9,26,23
	.loc 1 255 0
	lwz 0,24(31)
	.loc 1 253 0
	slw 29,29,9
.LVL46:
	.loc 1 255 0
	or 29,29,0
.LVL47:
	.loc 1 257 0
	bgt+ 7,.L57
	b .L51
.LVL48:
.L52:
.LBB81:
	.loc 1 261 0
	cmpwi 7,28,255
	beq- 7,.L63
.L53:
.LVL49:
.LBE81:
	.loc 1 257 0
	cmpwi 7,30,7
	ble- 7,.L64
.LVL50:
.L57:
.LBB82:
	.loc 1 260 0
	lwz 9,16(31)
	.loc 1 258 0
	rlwinm 28,29,16,24,31
.LVL51:
	.loc 1 265 0
	addi 30,30,-8
.LVL52:
	.loc 1 264 0
	slwi 29,29,8
.LVL53:
	.loc 1 260 0
	stb 28,0(9)
	addi 9,9,1
	stw 9,16(31)
	lwz 11,20(31)
	addi 0,11,-1
	cmpwi 7,0,0
	stw 0,20(31)
	bne+ 7,.L52
	mr 3,31
	bl dump_buffer
	.loc 1 261 0
	cmpwi 7,28,255
	bne+ 7,.L53
.L63:
	.loc 1 262 0
	lwz 9,16(31)
	stb 25,0(9)
	addi 9,9,1
	stw 9,16(31)
	lwz 11,20(31)
	addi 0,11,-1
	cmpwi 7,0,0
	stw 0,20(31)
	bne+ 7,.L53
	mr 3,31
	bl dump_buffer
.LVL54:
.LBE82:
	.loc 1 257 0
	cmpwi 7,30,7
	bgt+ 7,.L57
.L64:
	.loc 1 323 0
	addi 30,26,-7
.LVL55:
	rlwinm 30,30,0,29,31
.LVL56:
.L51:
	.loc 1 268 0
	stw 29,24(31)
	.loc 1 269 0
	stw 30,28(31)
.LVL57:
.L50:
.LBE83:
.LBE84:
	.loc 1 310 0
	cmpw 7,27,23
	beq- 7,.L49
	lbz 0,12(31)
	addi 27,27,1
	cmpwi 0,0,0
	b .L55
.LVL58:
.L44:
.LBE85:
.LBE86:
.LBE87:
.LBE94:
	.loc 1 337 0
	li 0,0
.LVL59:
	stw 0,56(31)
.LVL60:
.L49:
	.loc 1 341 0
	li 0,0
	stw 0,60(31)
.LVL61:
.L32:
.LBE50:
.LBE49:
	.loc 1 343 0
	lwz 0,52(1)
	lwz 23,12(1)
	mtlr 0
	lwz 24,16(1)
	lwz 25,20(1)
	lwz 26,24(1)
	lwz 27,28(1)
	lwz 28,32(1)
	lwz 29,36(1)
	lwz 30,40(1)
	lwz 31,44(1)
.LVL62:
	addi 1,1,48
	.cfi_remember_state
.LCFI6:
	.cfi_def_cfa_offset 0
	.cfi_restore 31
	.cfi_restore 30
	.cfi_restore 29
	.cfi_restore 28
	.cfi_restore 27
	.cfi_restore 26
	.cfi_restore 25
	.cfi_restore 24
	.cfi_restore 23
	blr
.LVL63:
.L36:
.LCFI7:
	.cfi_restore_state
.LBB101:
.LBB100:
.LBB95:
.LBB70:
.LBB53:
.LBB54:
	.loc 1 293 0
	addi 11,11,16
.LVL64:
	.loc 1 294 0
	slwi 10,9,2
	.loc 1 293 0
	slwi 11,11,2
.LBB55:
.LBB56:
	.loc 1 240 0
	lwz 26,28(31)
.LBE56:
.LBE55:
	.loc 1 293 0
	add 11,31,11
	lwz 11,12(11)
.LVL65:
	.loc 1 294 0
	add 9,11,9
.LVL66:
	lwzx 28,11,10
	lbz 29,1024(9)
.LVL67:
.LBB62:
.LBB59:
	.loc 1 243 0
	cmpwi 7,29,0
	beq- 7,.L65
.LVL68:
.L38:
	.loc 1 251 0
	add 26,29,26
.LVL69:
	.loc 1 249 0
	li 9,1
	slw 29,9,29
.LVL70:
	.loc 1 257 0
	cmpwi 7,26,7
	.loc 1 249 0
	addi 29,29,-1
	.loc 1 253 0
	subfic 11,26,24
	.loc 1 249 0
	and 29,29,28
.LVL71:
	.loc 1 255 0
	lwz 9,24(31)
	.loc 1 253 0
	slw 29,29,11
.LVL72:
	.loc 1 255 0
	or 29,29,9
.LVL73:
	.loc 1 257 0
	ble- 7,.L39
	mr 28,26
.LVL74:
.LBB57:
	.loc 1 262 0
	li 25,0
	b .L42
.LVL75:
.L40:
	.loc 1 261 0
	cmpwi 7,27,255
	beq- 7,.L66
.L41:
.LVL76:
.LBE57:
	.loc 1 257 0
	cmpwi 7,28,7
	ble- 7,.L67
.LVL77:
.L42:
.LBB58:
	.loc 1 260 0
	lwz 9,16(31)
	.loc 1 258 0
	rlwinm 27,29,16,24,31
.LVL78:
	.loc 1 265 0
	addi 28,28,-8
.LVL79:
	.loc 1 264 0
	slwi 29,29,8
.LVL80:
	.loc 1 260 0
	stb 27,0(9)
	addi 9,9,1
	stw 9,16(31)
	lwz 11,20(31)
	addi 0,11,-1
	cmpwi 7,0,0
	stw 0,20(31)
	bne+ 7,.L40
	mr 3,31
	bl dump_buffer
	.loc 1 261 0
	cmpwi 7,27,255
	bne+ 7,.L41
.L66:
	.loc 1 262 0
	lwz 9,16(31)
	stb 25,0(9)
	addi 9,9,1
	stw 9,16(31)
	lwz 11,20(31)
	addi 0,11,-1
	cmpwi 7,0,0
	stw 0,20(31)
	bne+ 7,.L41
	mr 3,31
	bl dump_buffer
.LVL81:
.LBE58:
	.loc 1 257 0
	cmpwi 7,28,7
	bgt+ 7,.L42
.L67:
	lbz 0,12(31)
	.loc 1 323 0
	rlwinm 26,26,0,29,31
.LVL82:
.L39:
.LBE59:
.LBE62:
.LBE54:
.LBE53:
.LBE70:
.LBE95:
	.loc 1 334 0
	cmpwi 7,30,0
.LBB96:
.LBB71:
.LBB67:
.LBB65:
.LBB63:
.LBB60:
	.loc 1 268 0
	stw 29,24(31)
	.loc 1 269 0
	stw 26,28(31)
	andi. 10,0,0xff
.LBE60:
.LBE63:
.LBE65:
.LBE67:
.LBE71:
.LBE96:
	.loc 1 334 0
	beq+ 7,.L43
.LVL83:
.L62:
	.loc 1 335 0
	lwz 0,56(31)
.LVL84:
.LBB97:
.LBB92:
	.loc 1 240 0
	lwz 27,28(31)
.LVL85:
	.loc 1 246 0
	bne- 0,.L44
	.loc 1 251 0
	add 27,30,27
	.loc 1 249 0
	li 9,1
	slw 9,9,30
	.loc 1 257 0
	cmpwi 7,27,7
	.loc 1 249 0
	addi 9,9,-1
	.loc 1 253 0
	subfic 11,27,24
	.loc 1 249 0
	and 0,9,0
.LVL86:
	.loc 1 255 0
	lwz 9,24(31)
	.loc 1 253 0
	slw 30,0,11
.LVL87:
	.loc 1 255 0
	or 30,30,9
.LVL88:
	.loc 1 257 0
	ble- 7,.L45
	mr 29,27
.LBB90:
	.loc 1 262 0
	li 26,0
	b .L48
.LVL89:
.L46:
	.loc 1 261 0
	cmpwi 7,28,255
	beq- 7,.L68
.L47:
.LVL90:
.LBE90:
	.loc 1 257 0
	cmpwi 7,29,7
	ble- 7,.L69
.LVL91:
.L48:
.LBB91:
	.loc 1 260 0
	lwz 9,16(31)
	.loc 1 258 0
	rlwinm 28,30,16,24,31
.LVL92:
	.loc 1 265 0
	addi 29,29,-8
.LVL93:
	.loc 1 264 0
	slwi 30,30,8
.LVL94:
	.loc 1 260 0
	stb 28,0(9)
	addi 9,9,1
	stw 9,16(31)
	lwz 11,20(31)
	addi 0,11,-1
	cmpwi 7,0,0
	stw 0,20(31)
	bne+ 7,.L46
	mr 3,31
	bl dump_buffer
	.loc 1 261 0
	cmpwi 7,28,255
	bne+ 7,.L47
.L68:
	.loc 1 262 0
	lwz 9,16(31)
	stb 26,0(9)
	addi 9,9,1
	stw 9,16(31)
	lwz 11,20(31)
	addi 0,11,-1
	cmpwi 7,0,0
	stw 0,20(31)
	bne+ 7,.L47
	mr 3,31
	bl dump_buffer
	b .L47
.LVL95:
.L65:
.LBE91:
.LBE92:
.LBE97:
.LBB98:
.LBB72:
.LBB68:
.LBB66:
.LBB64:
.LBB61:
	.loc 1 244 0
	lwz 9,32(31)
	li 0,37
	lwz 9,0(9)
	stw 0,20(9)
	lwz 3,32(31)
	lwz 9,0(3)
	lwz 0,0(9)
	mtctr 0
	bctrl
.LVL96:
	.loc 1 246 0
	lbz 0,12(31)
	andi. 9,0,0xff
	bne+ 0,.L37
	b .L38
.LVL97:
.L69:
.LBE61:
.LBE64:
.LBE66:
.LBE68:
.LBE72:
.LBE98:
.LBB99:
.LBB93:
	.loc 1 323 0
	lbz 0,12(31)
	rlwinm 27,27,0,29,31
	cmpwi 0,0,0
.LVL98:
.L45:
	.loc 1 268 0
	stw 30,24(31)
	.loc 1 269 0
	stw 27,28(31)
	b .L43
.LBE93:
.LBE99:
.LBE100:
.LBE101:
	.cfi_endproc
.LFE6:
	.size	emit_eobrun, .-emit_eobrun
	.align 2
	.type	finish_pass_phuff, @function
finish_pass_phuff:
.LFB12:
	.loc 1 743 0
	.cfi_startproc
.LVL99:
	mflr 0
	stwu 1,-32(1)
.LCFI8:
	.cfi_def_cfa_offset 32
	.cfi_register 65, 0
	stw 27,12(1)
	mr 27,3
	.cfi_offset 27, -20
	stw 0,36(1)
	stw 26,8(1)
	stw 28,16(1)
	stw 29,20(1)
	stw 30,24(1)
	stw 31,28(1)
	.loc 1 746 0
	lwz 9,20(3)
	.loc 1 744 0
	lwz 31,336(3)
	.cfi_offset 31, -4
	.cfi_offset 30, -8
	.cfi_offset 29, -12
	.cfi_offset 28, -16
	.cfi_offset 26, -24
	.cfi_offset 65, 4
.LVL100:
	.loc 1 746 0
	lwz 0,0(9)
	.loc 1 750 0
	mr 3,31
.LVL101:
	.loc 1 746 0
	stw 0,16(31)
	.loc 1 747 0
	lwz 9,20(27)
	lwz 0,4(9)
	stw 0,20(31)
	.loc 1 750 0
	bl emit_eobrun
.LVL102:
.LBB107:
.LBB108:
.LBB109:
.LBB110:
	.loc 1 246 0
	lbz 0,12(31)
	.loc 1 240 0
	lwz 9,28(31)
.LVL103:
	.loc 1 246 0
	cmpwi 7,0,0
	bne- 7,.L71
	.loc 1 251 0
	addi 30,9,7
.LVL104:
	.loc 1 255 0
	lwz 0,24(31)
.LVL105:
	.loc 1 257 0
	cmpwi 7,30,7
	ble- 7,.L71
	.loc 1 253 0
	subfic 9,9,17
	li 29,127
	slw 29,29,9
.LBB111:
	.loc 1 262 0
	li 26,0
.LBE111:
	.loc 1 255 0
	or 29,29,0
	b .L75
.LVL106:
.L73:
.LBB112:
	.loc 1 261 0
	cmpwi 7,28,255
	beq- 7,.L77
.L74:
.LVL107:
.LBE112:
	.loc 1 257 0
	cmpwi 7,30,7
	ble- 7,.L71
.LVL108:
.L75:
.LBB113:
	.loc 1 260 0
	lwz 9,16(31)
	.loc 1 258 0
	rlwinm 28,29,16,24,31
.LVL109:
	.loc 1 265 0
	addi 30,30,-8
.LVL110:
	.loc 1 264 0
	slwi 29,29,8
	.loc 1 260 0
	stb 28,0(9)
	addi 9,9,1
	stw 9,16(31)
	lwz 11,20(31)
	addi 0,11,-1
	cmpwi 7,0,0
	stw 0,20(31)
	bne+ 7,.L73
	mr 3,31
	bl dump_buffer
	.loc 1 261 0
	cmpwi 7,28,255
	bne+ 7,.L74
.L77:
	.loc 1 262 0
	lwz 9,16(31)
	stb 26,0(9)
	addi 9,9,1
	stw 9,16(31)
	lwz 11,20(31)
	addi 0,11,-1
	cmpwi 7,0,0
	stw 0,20(31)
	bne+ 7,.L74
	mr 3,31
	bl dump_buffer
.LVL111:
.LBE113:
	.loc 1 257 0
	cmpwi 7,30,7
	bgt+ 7,.L75
.LVL112:
.L71:
.LBE110:
.LBE109:
	.loc 1 277 0
	li 0,0
	stw 0,24(31)
	.loc 1 278 0
	stw 0,28(31)
.LBE108:
.LBE107:
	.loc 1 753 0
	lwz 0,16(31)
	lwz 9,20(27)
	stw 0,0(9)
	.loc 1 754 0
	lwz 0,20(31)
	lwz 9,20(27)
	stw 0,4(9)
	.loc 1 755 0
	lwz 0,36(1)
	lwz 26,8(1)
	mtlr 0
	lwz 27,12(1)
.LVL113:
	lwz 28,16(1)
	lwz 29,20(1)
	lwz 30,24(1)
	lwz 31,28(1)
.LVL114:
	addi 1,1,32
.LCFI9:
	.cfi_def_cfa_offset 0
	.cfi_restore 31
	.cfi_restore 30
	.cfi_restore 29
	.cfi_restore 28
	.cfi_restore 27
	.cfi_restore 26
	blr
	.cfi_endproc
.LFE12:
	.size	finish_pass_phuff, .-finish_pass_phuff
	.align 2
	.type	finish_pass_gather_phuff, @function
finish_pass_gather_phuff:
.LFB13:
	.loc 1 764 0
	.cfi_startproc
.LVL115:
	mflr 0
	stwu 1,-64(1)
.LCFI10:
	.cfi_def_cfa_offset 64
	.cfi_register 65, 0
	mfcr 12
	stw 30,56(1)
	mr 30,3
	.cfi_offset 30, -8
	.cfi_register 70, 12
	stw 0,68(1)
	stw 24,32(1)
	stw 25,36(1)
	stw 26,40(1)
	stw 27,44(1)
	stw 28,48(1)
	stw 29,52(1)
	stw 31,60(1)
	stw 12,28(1)
	.loc 1 765 0
	lwz 27,336(3)
	.cfi_offset 70, -36
	.cfi_offset 31, -4
	.cfi_offset 29, -12
	.cfi_offset 28, -16
	.cfi_offset 27, -20
	.cfi_offset 26, -24
	.cfi_offset 25, -28
	.cfi_offset 24, -32
	.cfi_offset 65, 4
.LVL116:
	.loc 1 773 0
	mr 3,27
.LVL117:
	bl emit_eobrun
.LVL118:
	.loc 1 782 0
	lwz 0,216(30)
	.loc 1 775 0
	lwz 9,288(30)
	.loc 1 780 0
	li 11,0
	.loc 1 782 0
	cmpwi 7,0,0
	.loc 1 780 0
	stw 11,8(1)
	.loc 1 775 0
	cntlzw 9,9
	srwi 9,9,5
.LVL119:
	.loc 1 782 0
	ble- 7,.L78
	cmpwi 4,9,0
	.loc 1 763 0
	addi 29,30,216
	.loc 1 782 0
	li 31,0
	.loc 1 799 0
	li 26,1
.LVL120:
.L86:
	.loc 1 783 0
	lwzu 9,4(29)
.LVL121:
	.loc 1 784 0
	beq- 4,.L80
	.loc 1 785 0
	lwz 11,296(30)
	cmpwi 7,11,0
	bne- 7,.L81
	.loc 1 787 0
	lwz 25,20(9)
.LVL122:
.L82:
	.loc 1 791 0
	add 28,1,25
	lbz 9,8(28)
	cmpwi 7,9,0
	bne- 7,.L81
	.loc 1 792 0
	beq- 4,.L83
	.loc 1 793 0
	addi 25,25,20
.LVL123:
	slwi 24,25,2
	add 24,30,24
.LVL124:
	.loc 1 796 0
	lwz 4,0(24)
	cmpwi 7,4,0
	beq- 7,.L88
.LVL125:
.L85:
	.loc 1 798 0
	slwi 25,25,2
	mr 3,30
	add 25,27,25
	lwz 5,12(25)
	bl jpeg_gen_optimal_table
	.loc 1 799 0
	stb 26,8(28)
	lwz 0,216(30)
.LVL126:
.L81:
	.loc 1 782 0
	addi 31,31,1
.LVL127:
	cmpw 7,0,31
	bgt+ 7,.L86
.LVL128:
.L78:
	.loc 1 802 0
	lwz 0,68(1)
	lwz 12,28(1)
	mtlr 0
	lwz 24,32(1)
	lwz 25,36(1)
	mtcrf 8,12
	lwz 26,40(1)
	lwz 27,44(1)
.LVL129:
	lwz 28,48(1)
	lwz 29,52(1)
	lwz 30,56(1)
.LVL130:
	lwz 31,60(1)
	addi 1,1,64
	.cfi_remember_state
.LCFI11:
	.cfi_def_cfa_offset 0
	.cfi_restore 70
	.cfi_restore 31
	.cfi_restore 30
	.cfi_restore 29
	.cfi_restore 28
	.cfi_restore 27
	.cfi_restore 26
	.cfi_restore 25
	.cfi_restore 24
	blr
.LVL131:
.L80:
.LCFI12:
	.cfi_restore_state
	.loc 1 789 0
	lwz 25,24(9)
.LVL132:
	b .L82
.LVL133:
.L83:
	.loc 1 795 0
	addi 24,25,24
	addi 25,25,20
.LVL134:
	slwi 24,24,2
.LVL135:
	add 24,30,24
.LVL136:
	.loc 1 796 0
	lwz 4,0(24)
	cmpwi 7,4,0
	bne+ 7,.L85
.LVL137:
.L88:
	.loc 1 797 0
	mr 3,30
	bl jpeg_alloc_huff_table
.LVL138:
	mr 4,3
	stw 3,0(24)
	b .L85
	.cfi_endproc
.LFE13:
	.size	finish_pass_gather_phuff, .-finish_pass_gather_phuff
	.align 2
	.type	emit_restart, @function
emit_restart:
.LFB7:
	.loc 1 352 0
	.cfi_startproc
.LVL139:
	stwu 1,-32(1)
.LCFI13:
	.cfi_def_cfa_offset 32
	mflr 0
	stw 31,28(1)
	mr 31,3
	.cfi_offset 31, -4
	.cfi_register 65, 0
	stw 0,36(1)
	stw 27,12(1)
	mr 27,4
	.cfi_offset 27, -20
	.cfi_offset 65, 4
	stw 26,8(1)
	stw 28,16(1)
	stw 29,20(1)
	stw 30,24(1)
	.loc 1 355 0
	.cfi_offset 30, -8
	.cfi_offset 29, -12
	.cfi_offset 28, -16
	.cfi_offset 26, -24
	bl emit_eobrun
.LVL140:
	.loc 1 357 0
	lbz 0,12(31)
	cmpwi 7,0,0
	beq- 7,.L101
.LVL141:
.L90:
	.loc 1 363 0
	lwz 11,32(31)
	lwz 0,288(11)
	cmpwi 7,0,0
	bne- 7,.L96
.LVL142:
	.loc 1 365 0 discriminator 1
	lwz 0,216(11)
	cmpwi 7,0,0
	ble- 7,.L89
	.loc 1 351 0
	addi 31,31,32
.LVL143:
	li 9,0
	.loc 1 366 0
	li 10,0
.LVL144:
.L98:
	.loc 1 366 0 is_stmt 0 discriminator 2
	stwu 10,4(31)
	.loc 1 365 0 is_stmt 1 discriminator 2
	addi 9,9,1
.LVL145:
	lwz 0,216(11)
	cmpw 7,0,9
	bgt+ 7,.L98
.LVL146:
.L89:
	.loc 1 372 0
	lwz 0,36(1)
	lwz 26,8(1)
	mtlr 0
	lwz 27,12(1)
	lwz 28,16(1)
	lwz 29,20(1)
	lwz 30,24(1)
	lwz 31,28(1)
	addi 1,1,32
	.cfi_remember_state
.LCFI14:
	.cfi_def_cfa_offset 0
	.cfi_restore 31
	.cfi_restore 30
	.cfi_restore 29
	.cfi_restore 28
	.cfi_restore 27
	.cfi_restore 26
	blr
.LVL147:
.L96:
.LCFI15:
	.cfi_restore_state
	.loc 1 369 0
	li 0,0
	stw 0,56(31)
	.loc 1 370 0
	stw 0,60(31)
	.loc 1 372 0
	lwz 0,36(1)
	lwz 26,8(1)
	mtlr 0
	lwz 27,12(1)
	lwz 28,16(1)
	lwz 29,20(1)
	lwz 30,24(1)
	lwz 31,28(1)
.LVL148:
	addi 1,1,32
	.cfi_remember_state
	.cfi_restore 26
	.cfi_restore 27
	.cfi_restore 28
	.cfi_restore 29
	.cfi_restore 30
	.cfi_restore 31
.LCFI16:
	.cfi_def_cfa_offset 0
	blr
.LVL149:
.L101:
.LCFI17:
	.cfi_restore_state
.LBB119:
.LBB120:
.LBB121:
.LBB122:
	.loc 1 240 0
	lwz 9,28(31)
.LVL150:
	.loc 1 255 0
	lwz 0,24(31)
	.loc 1 251 0
	addi 30,9,7
.LVL151:
	.loc 1 257 0
	cmpwi 7,30,7
	ble- 7,.L91
	.loc 1 253 0
	subfic 9,9,17
	li 29,127
	slw 29,29,9
.LBB123:
	.loc 1 262 0
	li 26,0
.LBE123:
	.loc 1 255 0
	or 29,29,0
	b .L94
.LVL152:
.L92:
.LBB124:
	.loc 1 261 0
	cmpwi 7,28,255
	beq- 7,.L102
.L93:
.LVL153:
.LBE124:
	.loc 1 257 0
	cmpwi 7,30,7
	ble- 7,.L91
.LVL154:
.L94:
.LBB125:
	.loc 1 260 0
	lwz 9,16(31)
	.loc 1 258 0
	rlwinm 28,29,16,24,31
.LVL155:
	.loc 1 265 0
	addi 30,30,-8
.LVL156:
	.loc 1 264 0
	slwi 29,29,8
	.loc 1 260 0
	stb 28,0(9)
	addi 9,9,1
	stw 9,16(31)
	lwz 11,20(31)
	addi 0,11,-1
	cmpwi 7,0,0
	stw 0,20(31)
	bne+ 7,.L92
	mr 3,31
	bl dump_buffer
	.loc 1 261 0
	cmpwi 7,28,255
	bne+ 7,.L93
.L102:
	.loc 1 262 0
	lwz 9,16(31)
	stb 26,0(9)
	addi 9,9,1
	stw 9,16(31)
	lwz 11,20(31)
	addi 0,11,-1
	cmpwi 7,0,0
	stw 0,20(31)
	bne+ 7,.L93
	mr 3,31
	bl dump_buffer
.LVL157:
.LBE125:
	.loc 1 257 0
	cmpwi 7,30,7
	bgt+ 7,.L94
.LVL158:
.L91:
.LBE122:
.LBE121:
.LBE120:
.LBE119:
	.loc 1 359 0
	lwz 9,16(31)
.LBB127:
.LBB126:
	.loc 1 277 0
	li 0,0
	stw 0,24(31)
	.loc 1 278 0
	stw 0,28(31)
.LBE126:
.LBE127:
	.loc 1 359 0
	li 0,-1
	stb 0,0(9)
	addi 9,9,1
	stw 9,16(31)
	lwz 11,20(31)
	addi 0,11,-1
	cmpwi 7,0,0
	stw 0,20(31)
	bne+ 7,.L95
	.loc 1 359 0 is_stmt 0 discriminator 1
	mr 3,31
	bl dump_buffer
	lwz 9,16(31)
.L95:
	.loc 1 360 0 is_stmt 1
	addi 27,27,-48
.LVL159:
	stb 27,0(9)
	addi 9,9,1
	stw 9,16(31)
	lwz 11,20(31)
	addi 0,11,-1
	cmpwi 7,0,0
	stw 0,20(31)
	bne+ 7,.L90
	.loc 1 360 0 is_stmt 0 discriminator 1
	mr 3,31
	bl dump_buffer
	b .L90
	.cfi_endproc
.LFE7:
	.size	emit_restart, .-emit_restart
	.align 2
	.type	encode_mcu_DC_first, @function
encode_mcu_DC_first:
.LFB8:
	.loc 1 382 0 is_stmt 1
	.cfi_startproc
.LVL160:
	mflr 0
	stwu 1,-72(1)
.LCFI18:
	.cfi_def_cfa_offset 72
	.cfi_register 65, 0
	stw 28,56(1)
	mr 28,4
	.cfi_offset 28, -16
	stw 30,64(1)
	mr 30,3
	.cfi_offset 30, -8
	stw 0,76(1)
	stw 17,12(1)
	stw 18,16(1)
	stw 19,20(1)
	stw 20,24(1)
	stw 21,28(1)
	stw 22,32(1)
	stw 23,36(1)
	stw 24,40(1)
	stw 25,44(1)
	stw 26,48(1)
	stw 27,52(1)
	stw 29,60(1)
	stw 31,68(1)
	.loc 1 392 0
	lwz 9,20(3)
	.loc 1 383 0
	lwz 31,336(3)
	.cfi_offset 31, -4
	.cfi_offset 29, -12
	.cfi_offset 27, -20
	.cfi_offset 26, -24
	.cfi_offset 25, -28
	.cfi_offset 24, -32
	.cfi_offset 23, -36
	.cfi_offset 22, -40
	.cfi_offset 21, -44
	.cfi_offset 20, -48
	.cfi_offset 19, -52
	.cfi_offset 18, -56
	.cfi_offset 17, -60
	.cfi_offset 65, 4
.LVL161:
	.loc 1 392 0
	lwz 0,0(9)
	.loc 1 387 0
	lwz 29,300(3)
.LVL162:
	.loc 1 392 0
	stw 0,16(31)
	.loc 1 393 0
	lwz 9,20(3)
	lwz 0,4(9)
	stw 0,20(31)
	.loc 1 396 0
	lwz 0,180(3)
	cmpwi 7,0,0
	beq- 7,.L104
.LVL163:
	.loc 1 397 0
	lwz 0,68(31)
	cmpwi 7,0,0
	beq- 7,.L130
.LVL164:
.L104:
	.loc 1 401 0 discriminator 1
	lwz 0,244(30)
	cmpwi 7,0,0
	ble- 7,.L105
	.loc 1 381 0
	addi 22,28,-4
	addi 23,30,244
	li 24,0
.LBB139:
.LBB140:
.LBB141:
.LBB142:
.LBB143:
.LBB144:
	.loc 1 249 0
	li 18,1
.LBB145:
	.loc 1 262 0
	li 20,0
.LBE145:
	.loc 1 244 0
	li 17,37
.LVL165:
.L122:
.LBE144:
.LBE143:
.LBE142:
.LBE141:
.LBE140:
.LBE139:
	.loc 1 403 0
	lwzu 10,4(23)
.LVL166:
	.loc 1 409 0
	lwzu 9,4(22)
.LVL167:
	.loc 1 412 0
	addi 11,10,8
	.loc 1 404 0
	addi 10,10,52
	.loc 1 412 0
	slwi 11,11,2
	.loc 1 409 0
	lha 0,0(9)
	.loc 1 412 0
	add 11,31,11
	.loc 1 404 0
	slwi 10,10,2
	.loc 1 412 0
	lwz 9,4(11)
	.loc 1 409 0
	sraw 0,0,29
	.loc 1 404 0
	add 10,30,10
	.loc 1 417 0
	subf. 9,9,0
	.loc 1 404 0
	lwz 10,12(10)
.LVL168:
	.loc 1 413 0
	stw 0,4(11)
.LVL169:
	.loc 1 417 0
	blt- 0,.L131
.LVL170:
	.loc 1 426 0
	beq- 0,.L125
	mr 19,9
.LVL171:
.L107:
	li 28,0
.LVL172:
.L109:
	srawi. 9,9,1
	.loc 1 427 0
	addi 28,28,1
.LVL173:
	.loc 1 426 0
	bne+ 0,.L109
.LVL174:
.L108:
.LBB167:
.LBB162:
	.loc 1 290 0
	lbz 0,12(31)
.LBE162:
.LBE167:
	.loc 1 432 0
	lwz 9,20(10)
.LVL175:
.LBB168:
.LBB163:
	.loc 1 290 0
	cmpwi 7,0,0
	beq- 7,.L110
	.loc 1 291 0
	addi 9,9,20
	slwi 0,28,2
	slwi 9,9,2
	add 9,31,9
	lwz 9,12(9)
	lwzx 11,9,0
	addi 11,11,1
	stwx 11,9,0
.LVL176:
.L111:
.LBE163:
.LBE168:
	.loc 1 436 0
	cmpwi 7,28,0
	bne- 7,.L132
.LVL177:
.L117:
	.loc 1 401 0
	lwz 0,244(30)
	addi 24,24,1
.LVL178:
	cmpw 7,0,24
	bgt+ 7,.L122
.LVL179:
.L105:
	.loc 1 440 0
	lwz 9,20(30)
	lwz 0,16(31)
	stw 0,0(9)
	.loc 1 441 0
	lwz 0,20(31)
	lwz 9,20(30)
	stw 0,4(9)
	.loc 1 444 0
	lwz 0,180(30)
	cmpwi 7,0,0
	beq- 7,.L123
	.loc 1 445 0
	lwz 9,68(31)
	cmpwi 7,9,0
	beq- 7,.L133
.L124:
	.loc 1 450 0
	addi 9,9,-1
	stw 9,68(31)
.L123:
	.loc 1 454 0
	lwz 0,76(1)
	li 3,1
	lwz 17,12(1)
	mtlr 0
	lwz 18,16(1)
	lwz 19,20(1)
	lwz 20,24(1)
	lwz 21,28(1)
	lwz 22,32(1)
	lwz 23,36(1)
	lwz 24,40(1)
	lwz 25,44(1)
	lwz 26,48(1)
	lwz 27,52(1)
	lwz 28,56(1)
	lwz 29,60(1)
.LVL180:
	lwz 30,64(1)
.LVL181:
	lwz 31,68(1)
.LVL182:
	addi 1,1,72
	.cfi_remember_state
.LCFI19:
	.cfi_def_cfa_offset 0
	.cfi_restore 31
	.cfi_restore 30
	.cfi_restore 29
	.cfi_restore 28
	.cfi_restore 27
	.cfi_restore 26
	.cfi_restore 25
	.cfi_restore 24
	.cfi_restore 23
	.cfi_restore 22
	.cfi_restore 21
	.cfi_restore 20
	.cfi_restore 19
	.cfi_restore 18
	.cfi_restore 17
	blr
.LVL183:
.L110:
.LCFI20:
	.cfi_restore_state
.LBB169:
.LBB164:
.LBB159:
.LBB156:
	.loc 1 293 0
	addi 9,9,16
.LVL184:
	.loc 1 294 0
	slwi 0,28,2
	.loc 1 293 0
	slwi 9,9,2
.LBB152:
.LBB148:
	.loc 1 240 0
	lwz 21,28(31)
.LBE148:
.LBE152:
	.loc 1 293 0
	add 9,31,9
	lwz 9,12(9)
.LVL185:
	.loc 1 294 0
	add 11,9,28
	lwzx 26,9,0
	lbz 27,1024(11)
.LVL186:
.LBB153:
.LBB149:
	.loc 1 243 0
	cmpwi 7,27,0
	beq- 7,.L134
.LVL187:
.L112:
	.loc 1 251 0
	add 21,27,21
.LVL188:
	.loc 1 249 0
	slw 27,18,27
.LVL189:
	.loc 1 257 0
	cmpwi 7,21,7
	.loc 1 249 0
	addi 27,27,-1
	and 27,27,26
.LVL190:
	.loc 1 253 0
	subfic 9,21,24
	.loc 1 255 0
	lwz 0,24(31)
	.loc 1 253 0
	slw 27,27,9
.LVL191:
	.loc 1 255 0
	or 27,27,0
.LVL192:
	.loc 1 257 0
	ble- 7,.L113
	mr 26,21
.LVL193:
	b .L116
.LVL194:
.L114:
.LBB146:
	.loc 1 261 0
	cmpwi 7,25,255
	beq- 7,.L135
.L115:
.LVL195:
.LBE146:
	.loc 1 257 0
	cmpwi 7,26,7
	ble- 7,.L136
.LVL196:
.L116:
.LBB147:
	.loc 1 260 0
	lwz 9,16(31)
	.loc 1 258 0
	rlwinm 25,27,16,24,31
.LVL197:
	.loc 1 265 0
	addi 26,26,-8
.LVL198:
	.loc 1 264 0
	slwi 27,27,8
.LVL199:
	.loc 1 260 0
	stb 25,0(9)
	addi 9,9,1
	stw 9,16(31)
	lwz 11,20(31)
	addi 0,11,-1
	cmpwi 7,0,0
	stw 0,20(31)
	bne+ 7,.L114
	mr 3,31
	bl dump_buffer
	.loc 1 261 0
	cmpwi 7,25,255
	bne+ 7,.L115
.L135:
	.loc 1 262 0
	lwz 9,16(31)
	stb 20,0(9)
	addi 9,9,1
	stw 9,16(31)
	lwz 11,20(31)
	addi 0,11,-1
	cmpwi 7,0,0
	stw 0,20(31)
	bne+ 7,.L115
	mr 3,31
	bl dump_buffer
.LVL200:
.LBE147:
	.loc 1 257 0
	cmpwi 7,26,7
	bgt+ 7,.L116
.L136:
	.loc 1 381 0
	rlwinm 21,21,0,29,31
.LVL201:
.L113:
.LBE149:
.LBE153:
.LBE156:
.LBE159:
.LBE164:
.LBE169:
	.loc 1 436 0
	cmpwi 7,28,0
.LBB170:
.LBB165:
.LBB160:
.LBB157:
.LBB154:
.LBB150:
	.loc 1 268 0
	stw 27,24(31)
	.loc 1 269 0
	stw 21,28(31)
.LBE150:
.LBE154:
.LBE157:
.LBE160:
.LBE165:
.LBE170:
	.loc 1 436 0
	beq+ 7,.L117
.LVL202:
.L132:
.LBB171:
.LBB172:
	.loc 1 246 0
	lbz 0,12(31)
	.loc 1 240 0
	lwz 21,28(31)
.LVL203:
	.loc 1 246 0
	cmpwi 7,0,0
	bne- 7,.L117
	.loc 1 251 0
	add 21,28,21
	.loc 1 249 0
	slw 28,18,28
.LVL204:
	.loc 1 257 0
	cmpwi 7,21,7
	.loc 1 249 0
	addi 27,28,-1
	and 27,27,19
.LVL205:
	.loc 1 253 0
	subfic 9,21,24
	.loc 1 255 0
	lwz 0,24(31)
	.loc 1 253 0
	slw 27,27,9
.LVL206:
	.loc 1 255 0
	or 27,27,0
.LVL207:
	.loc 1 257 0
	ble- 7,.L118
	mr 26,21
	b .L121
.LVL208:
.L119:
.LBB173:
	.loc 1 261 0
	cmpwi 7,25,255
	beq- 7,.L137
.L120:
.LVL209:
.LBE173:
	.loc 1 257 0
	cmpwi 7,26,7
	ble- 7,.L138
.LVL210:
.L121:
.LBB174:
	.loc 1 260 0
	lwz 9,16(31)
	.loc 1 258 0
	rlwinm 25,27,16,24,31
.LVL211:
	.loc 1 265 0
	addi 26,26,-8
.LVL212:
	.loc 1 264 0
	slwi 27,27,8
.LVL213:
	.loc 1 260 0
	stb 25,0(9)
	addi 9,9,1
	stw 9,16(31)
	lwz 11,20(31)
	addi 0,11,-1
	cmpwi 7,0,0
	stw 0,20(31)
	bne+ 7,.L119
	mr 3,31
	bl dump_buffer
	.loc 1 261 0
	cmpwi 7,25,255
	bne+ 7,.L120
.L137:
	.loc 1 262 0
	lwz 9,16(31)
	stb 20,0(9)
	addi 9,9,1
	stw 9,16(31)
	lwz 11,20(31)
	addi 0,11,-1
	cmpwi 7,0,0
	stw 0,20(31)
	bne+ 7,.L120
	mr 3,31
	bl dump_buffer
.LVL214:
.LBE174:
	.loc 1 257 0
	cmpwi 7,26,7
	bgt+ 7,.L121
.L138:
	.loc 1 381 0
	rlwinm 21,21,0,29,31
.LVL215:
.L118:
	.loc 1 268 0
	stw 27,24(31)
	.loc 1 269 0
	stw 21,28(31)
	b .L117
.LVL216:
.L131:
.LBE172:
.LBE171:
	.loc 1 421 0
	addi 19,9,-1
.LVL217:
	.loc 1 418 0
	neg 9,9
.LVL218:
	b .L107
.LVL219:
.L134:
.LBB175:
.LBB166:
.LBB161:
.LBB158:
.LBB155:
.LBB151:
	.loc 1 244 0
	lwz 9,32(31)
.LVL220:
	lwz 9,0(9)
	stw 17,20(9)
	lwz 3,32(31)
	lwz 9,0(3)
	lwz 0,0(9)
	mtctr 0
	bctrl
.LVL221:
	.loc 1 246 0
	lbz 0,12(31)
	cmpwi 7,0,0
	bne+ 7,.L111
	b .L112
.LVL222:
.L125:
.LBE151:
.LBE155:
.LBE158:
.LBE161:
.LBE166:
.LBE175:
	.loc 1 426 0
	li 19,0
	.loc 1 425 0
	li 28,0
	b .L108
.LVL223:
.L133:
	.loc 1 447 0
	lwz 11,72(31)
	.loc 1 448 0
	mr 9,0
	.loc 1 447 0
	addi 0,11,1
	.loc 1 448 0
	rlwinm 0,0,0,29,31
	stw 0,72(31)
	b .L124
.LVL224:
.L130:
	.loc 1 398 0
	lwz 4,72(31)
.LVL225:
	mr 3,31
	bl emit_restart
	b .L104
	.cfi_endproc
.LFE8:
	.size	encode_mcu_DC_first, .-encode_mcu_DC_first
	.align 2
	.type	encode_mcu_AC_first, @function
encode_mcu_AC_first:
.LFB9:
	.loc 1 464 0
	.cfi_startproc
.LVL226:
	mflr 0
	stwu 1,-80(1)
.LCFI21:
	.cfi_def_cfa_offset 80
	.cfi_register 65, 0
	stw 27,60(1)
	mr 27,4
	.cfi_offset 27, -20
	stw 29,68(1)
	mr 29,3
	.cfi_offset 29, -12
	stw 0,84(1)
	stw 14,8(1)
	stw 15,12(1)
	stw 16,16(1)
	stw 17,20(1)
	stw 18,24(1)
	stw 19,28(1)
	stw 20,32(1)
	stw 21,36(1)
	stw 22,40(1)
	stw 23,44(1)
	stw 24,48(1)
	stw 25,52(1)
	stw 26,56(1)
	stw 28,64(1)
	stw 30,72(1)
	stw 31,76(1)
	.loc 1 473 0
	lwz 9,20(3)
	.loc 1 465 0
	lwz 31,336(3)
	.cfi_offset 31, -4
	.cfi_offset 30, -8
	.cfi_offset 28, -16
	.cfi_offset 26, -24
	.cfi_offset 25, -28
	.cfi_offset 24, -32
	.cfi_offset 23, -36
	.cfi_offset 22, -40
	.cfi_offset 21, -44
	.cfi_offset 20, -48
	.cfi_offset 19, -52
	.cfi_offset 18, -56
	.cfi_offset 17, -60
	.cfi_offset 16, -64
	.cfi_offset 15, -68
	.cfi_offset 14, -72
	.cfi_offset 65, 4
.LVL227:
	.loc 1 473 0
	lwz 0,0(9)
	.loc 1 469 0
	lwz 30,292(3)
.LVL228:
	.loc 1 470 0
	lwz 28,300(3)
.LVL229:
	.loc 1 473 0
	stw 0,16(31)
	.loc 1 474 0
	lwz 9,20(3)
	lwz 0,4(9)
	stw 0,20(31)
	.loc 1 477 0
	lwz 0,180(3)
	cmpwi 7,0,0
	beq- 7,.L140
.LVL230:
	.loc 1 478 0
	lwz 0,68(31)
	cmpwi 7,0,0
	beq- 7,.L184
.LVL231:
.L140:
	.loc 1 488 0
	lwz 22,288(29)
	.loc 1 482 0
	lwz 17,0(27)
.LVL232:
	.loc 1 488 0
	cmpw 7,30,22
	blt- 7,.L141
	.loc 1 463 0
	lis 9,jpeg_natural_order@ha
	slwi 19,22,2
	la 0,jpeg_natural_order@l(9)
	.loc 1 486 0
	li 21,0
	.loc 1 463 0
	add 19,19,0
	.loc 1 524 0
	li 16,1
	.loc 1 463 0
	addi 19,19,-4
.LBB195:
.LBB196:
.LBB197:
	.loc 1 262 0
	li 20,0
.LBE197:
.LBE196:
.LBE195:
.LBB203:
.LBB204:
.LBB205:
.LBB206:
.LBB207:
.LBB208:
	.loc 1 244 0
	li 15,37
.LVL233:
.L171:
.LBE208:
.LBE207:
.LBE206:
.LBE205:
.LBE204:
.LBE203:
	.loc 1 489 0
	lwzu 0,4(19)
	slwi 0,0,1
	lhax 18,17,0
.LVL234:
	cmpwi 7,18,0
	beq- 7,.L183
	.loc 1 498 0
	blt- 7,.L185
	.loc 1 504 0
	sraw 18,18,28
.LVL235:
	.loc 1 505 0
	mr 14,18
.LVL236:
.L145:
	.loc 1 508 0
	cmpwi 7,18,0
	beq- 7,.L183
	.loc 1 514 0
	lwz 0,56(31)
	cmpwi 7,0,0
	bne- 7,.L186
.L147:
.LVL237:
	.loc 1 517 0 discriminator 1
	cmpwi 7,21,15
	lbz 0,12(31)
	andi. 9,0,0xff
	ble- 7,.L149
	.loc 1 517 0 is_stmt 0
	mr 24,21
	andi. 9,0,0xff
	b .L157
.LVL238:
.L188:
.LBB224:
.LBB225:
	.loc 1 291 0 is_stmt 1
	addi 9,9,20
.LVL239:
	slwi 9,9,2
	add 9,31,9
	lwz 9,12(9)
	lwz 11,960(9)
	addi 0,11,1
	stw 0,960(9)
	lbz 0,12(31)
	andi. 9,0,0xff
.LVL240:
.L151:
.LBE225:
.LBE224:
	.loc 1 519 0
	addi 24,24,-16
.LVL241:
	.loc 1 517 0
	cmpwi 7,24,15
	ble- 7,.L187
.LVL242:
.L157:
	.loc 1 518 0
	lwz 9,52(31)
.LVL243:
.LBB250:
.LBB246:
	.loc 1 290 0
	bne+ 0,.L188
.LVL244:
.LBB226:
.LBB227:
	.loc 1 293 0
	addi 9,9,16
.LBB228:
.LBB229:
	.loc 1 240 0
	lwz 23,28(31)
.LBE229:
.LBE228:
	.loc 1 293 0
	slwi 9,9,2
	add 9,31,9
	lwz 9,12(9)
.LVL245:
	.loc 1 294 0
	lbz 26,1264(9)
.LVL246:
	lwz 27,960(9)
.LVL247:
.LBB236:
.LBB232:
	.loc 1 243 0
	cmpwi 7,26,0
	beq- 7,.L189
.LVL248:
.L152:
	.loc 1 251 0
	add 23,26,23
.LVL249:
	.loc 1 249 0
	slw 26,16,26
.LVL250:
	.loc 1 257 0
	cmpwi 7,23,7
	.loc 1 249 0
	addi 26,26,-1
	and 27,26,27
.LVL251:
	.loc 1 253 0
	subfic 11,23,24
	.loc 1 255 0
	lwz 9,24(31)
	.loc 1 253 0
	slw 27,27,11
.LVL252:
	.loc 1 255 0
	or 27,27,9
.LVL253:
	.loc 1 257 0
	ble- 7,.L153
	mr 26,23
	b .L156
.LVL254:
.L154:
.LBB230:
	.loc 1 261 0
	cmpwi 7,25,255
	beq- 7,.L190
.L155:
.LVL255:
.LBE230:
	.loc 1 257 0
	cmpwi 7,26,7
	ble- 7,.L191
.LVL256:
.L156:
.LBB231:
	.loc 1 260 0
	lwz 9,16(31)
	.loc 1 258 0
	rlwinm 25,27,16,24,31
.LVL257:
	.loc 1 265 0
	addi 26,26,-8
.LVL258:
	.loc 1 264 0
	slwi 27,27,8
.LVL259:
	.loc 1 260 0
	stb 25,0(9)
	addi 9,9,1
	stw 9,16(31)
	lwz 11,20(31)
	addi 0,11,-1
	cmpwi 7,0,0
	stw 0,20(31)
	bne+ 7,.L154
	mr 3,31
	bl dump_buffer
	.loc 1 261 0
	cmpwi 7,25,255
	bne+ 7,.L155
.L190:
	.loc 1 262 0
	lwz 9,16(31)
	stb 20,0(9)
	addi 9,9,1
	stw 9,16(31)
	lwz 11,20(31)
	addi 0,11,-1
	cmpwi 7,0,0
	stw 0,20(31)
	bne+ 7,.L155
	mr 3,31
	bl dump_buffer
.LVL260:
.LBE231:
	.loc 1 257 0
	cmpwi 7,26,7
	bgt+ 7,.L156
.L191:
	lbz 0,12(31)
	.loc 1 463 0
	rlwinm 23,23,0,29,31
.LVL261:
.L153:
.LBE232:
.LBE236:
.LBE227:
.LBE226:
.LBE246:
.LBE250:
	.loc 1 519 0
	addi 24,24,-16
.LVL262:
.LBB251:
.LBB247:
.LBB243:
.LBB240:
.LBB237:
.LBB233:
	.loc 1 268 0
	stw 27,24(31)
.LBE233:
.LBE237:
.LBE240:
.LBE243:
.LBE247:
.LBE251:
	.loc 1 517 0
	cmpwi 7,24,15
.LBB252:
.LBB248:
.LBB244:
.LBB241:
.LBB238:
.LBB234:
	.loc 1 269 0
	stw 23,28(31)
	andi. 9,0,0xff
.LBE234:
.LBE238:
.LBE241:
.LBE244:
.LBE248:
.LBE252:
	.loc 1 517 0
	bgt+ 7,.L157
.LVL263:
.L187:
	.loc 1 463 0
	rlwinm 21,21,0,28,31
.LVL264:
.L149:
	.loc 1 524 0 discriminator 1
	srawi 18,18,1
.LVL265:
	li 27,1
	cmpwi 7,18,0
	beq- 7,.L158
.LVL266:
.L159:
	.loc 1 524 0 is_stmt 0
	srawi 18,18,1
	.loc 1 525 0 is_stmt 1
	addi 27,27,1
.LVL267:
	.loc 1 524 0
	cmpwi 7,18,0
	bne+ 7,.L159
.LVL268:
.L158:
	.loc 1 528 0
	slwi 21,21,4
	lwz 9,52(31)
	add 21,21,27
.LVL269:
.LBB253:
.LBB221:
	.loc 1 290 0
	beq- 0,.L160
	.loc 1 291 0
	addi 9,9,20
	slwi 21,21,2
.LVL270:
	slwi 9,9,2
	add 9,31,9
	lwz 9,12(9)
	lwzx 11,9,21
	addi 0,11,1
	stwx 0,9,21
	lwz 23,28(31)
	lbz 0,12(31)
.LVL271:
.L161:
.LBE221:
.LBE253:
.LBB254:
.LBB200:
	.loc 1 246 0
	rlwinm 0,0,0,0xff
	.loc 1 534 0
	li 21,0
	.loc 1 246 0
	cmpwi 7,0,0
	bne- 7,.L143
	.loc 1 251 0
	add 24,27,23
	.loc 1 249 0
	slw 27,16,27
.LVL272:
	.loc 1 257 0
	cmpwi 7,24,7
	.loc 1 249 0
	addi 27,27,-1
	and 27,27,14
.LVL273:
	.loc 1 253 0
	subfic 9,24,24
	.loc 1 255 0
	lwz 0,24(31)
	.loc 1 253 0
	slw 27,27,9
.LVL274:
	.loc 1 255 0
	or 27,27,0
.LVL275:
	.loc 1 257 0
	ble- 7,.L167
	mr 26,24
	b .L170
.LVL276:
.L168:
.LBB198:
	.loc 1 261 0
	cmpwi 7,25,255
	beq- 7,.L192
.L169:
.LVL277:
.LBE198:
	.loc 1 257 0
	cmpwi 7,26,7
	ble- 7,.L193
.LVL278:
.L170:
.LBB199:
	.loc 1 260 0
	lwz 9,16(31)
	.loc 1 258 0
	rlwinm 25,27,16,24,31
.LVL279:
	.loc 1 265 0
	addi 26,26,-8
.LVL280:
	.loc 1 264 0
	slwi 27,27,8
.LVL281:
	.loc 1 260 0
	stb 25,0(9)
	addi 9,9,1
	stw 9,16(31)
	lwz 11,20(31)
	addi 0,11,-1
	cmpwi 7,0,0
	stw 0,20(31)
	bne+ 7,.L168
	mr 3,31
	bl dump_buffer
	.loc 1 261 0
	cmpwi 7,25,255
	bne+ 7,.L169
.L192:
	.loc 1 262 0
	lwz 9,16(31)
	stb 20,0(9)
	addi 9,9,1
	stw 9,16(31)
	lwz 11,20(31)
	addi 0,11,-1
	cmpwi 7,0,0
	stw 0,20(31)
	bne+ 7,.L169
	mr 3,31
	bl dump_buffer
.LVL282:
.LBE199:
	.loc 1 257 0
	cmpwi 7,26,7
	bgt+ 7,.L170
.L193:
	.loc 1 463 0
	rlwinm 24,24,0,29,31
.LVL283:
.L167:
.LBE200:
.LBE254:
	.loc 1 488 0
	addi 22,22,1
.LVL284:
.LBB255:
.LBB201:
	.loc 1 268 0
	stw 27,24(31)
.LBE201:
.LBE255:
	.loc 1 488 0
	cmpw 7,30,22
.LBB256:
.LBB202:
	.loc 1 269 0
	stw 24,28(31)
	.loc 1 534 0
	li 21,0
.LVL285:
.LBE202:
.LBE256:
	.loc 1 488 0
	bge+ 7,.L171
.LVL286:
.L196:
	.loc 1 537 0
	cmpwi 7,21,0
	beq- 7,.L141
	.loc 1 538 0
	lwz 9,56(31)
	addi 0,9,1
	.loc 1 539 0
	cmpwi 7,0,32767
	.loc 1 538 0
	stw 0,56(31)
	.loc 1 539 0
	beq- 7,.L194
.LVL287:
.L141:
	.loc 1 543 0
	lwz 9,20(29)
	lwz 0,16(31)
	stw 0,0(9)
	.loc 1 544 0
	lwz 0,20(31)
	lwz 9,20(29)
	stw 0,4(9)
	.loc 1 547 0
	lwz 0,180(29)
	cmpwi 7,0,0
	beq- 7,.L172
	.loc 1 548 0
	lwz 9,68(31)
	cmpwi 7,9,0
	beq- 7,.L195
.L173:
	.loc 1 553 0
	addi 9,9,-1
	stw 9,68(31)
.L172:
	.loc 1 557 0
	lwz 0,84(1)
	li 3,1
	lwz 14,8(1)
	mtlr 0
	lwz 15,12(1)
	lwz 16,16(1)
	lwz 17,20(1)
.LVL288:
	lwz 18,24(1)
	lwz 19,28(1)
	lwz 20,32(1)
	lwz 21,36(1)
	lwz 22,40(1)
.LVL289:
	lwz 23,44(1)
	lwz 24,48(1)
	lwz 25,52(1)
	lwz 26,56(1)
	lwz 27,60(1)
	lwz 28,64(1)
.LVL290:
	lwz 29,68(1)
.LVL291:
	lwz 30,72(1)
.LVL292:
	lwz 31,76(1)
.LVL293:
	addi 1,1,80
	.cfi_remember_state
.LCFI22:
	.cfi_def_cfa_offset 0
	.cfi_restore 31
	.cfi_restore 30
	.cfi_restore 29
	.cfi_restore 28
	.cfi_restore 27
	.cfi_restore 26
	.cfi_restore 25
	.cfi_restore 24
	.cfi_restore 23
	.cfi_restore 22
	.cfi_restore 21
	.cfi_restore 20
	.cfi_restore 19
	.cfi_restore 18
	.cfi_restore 17
	.cfi_restore 16
	.cfi_restore 15
	.cfi_restore 14
	blr
.LVL294:
.L183:
.LCFI23:
	.cfi_restore_state
	.loc 1 509 0
	addi 21,21,1
.LVL295:
.L143:
	.loc 1 488 0
	addi 22,22,1
.LVL296:
	cmpw 7,30,22
	bge+ 7,.L171
	b .L196
.LVL297:
.L189:
.LBB257:
.LBB249:
.LBB245:
.LBB242:
.LBB239:
.LBB235:
	.loc 1 244 0
	lwz 9,32(31)
.LVL298:
	lwz 9,0(9)
	stw 15,20(9)
	lwz 3,32(31)
	lwz 9,0(3)
	lwz 0,0(9)
	mtctr 0
	bctrl
.LVL299:
	.loc 1 246 0
	lbz 0,12(31)
	andi. 9,0,0xff
	bne+ 0,.L151
	b .L152
.LVL300:
.L185:
.LBE235:
.LBE239:
.LBE242:
.LBE245:
.LBE249:
.LBE257:
	.loc 1 499 0
	neg 18,18
.LVL301:
	.loc 1 500 0
	sraw 18,18,28
.LVL302:
	.loc 1 502 0
	nor 14,18,18
.LVL303:
	b .L145
.LVL304:
.L160:
.LBB258:
.LBB222:
.LBB219:
.LBB217:
	.loc 1 293 0
	addi 9,9,16
.LVL305:
	.loc 1 294 0
	slwi 11,21,2
	.loc 1 293 0
	slwi 9,9,2
.LBB214:
.LBB211:
	.loc 1 240 0
	lwz 23,28(31)
.LBE211:
.LBE214:
	.loc 1 293 0
	add 9,31,9
	lwz 9,12(9)
.LVL306:
	.loc 1 294 0
	add 21,9,21
.LVL307:
	lwzx 25,9,11
	lbz 26,1024(21)
.LVL308:
.LBB215:
.LBB212:
	.loc 1 243 0
	cmpwi 7,26,0
	beq- 7,.L197
.LVL309:
.L162:
	.loc 1 251 0
	add 23,26,23
.LVL310:
	.loc 1 249 0
	slw 26,16,26
.LVL311:
	.loc 1 257 0
	cmpwi 7,23,7
	.loc 1 249 0
	addi 26,26,-1
	and 26,26,25
.LVL312:
	.loc 1 253 0
	subfic 11,23,24
	.loc 1 255 0
	lwz 9,24(31)
	.loc 1 253 0
	slw 26,26,11
.LVL313:
	.loc 1 255 0
	or 26,26,9
.LVL314:
	.loc 1 257 0
	ble- 7,.L163
	mr 25,23
.LVL315:
	b .L166
.LVL316:
.L164:
.LBB209:
	.loc 1 261 0
	cmpwi 7,24,255
	beq- 7,.L198
.L165:
.LVL317:
.LBE209:
	.loc 1 257 0
	cmpwi 7,25,7
	ble- 7,.L199
.LVL318:
.L166:
.LBB210:
	.loc 1 260 0
	lwz 9,16(31)
	.loc 1 258 0
	rlwinm 24,26,16,24,31
.LVL319:
	.loc 1 265 0
	addi 25,25,-8
.LVL320:
	.loc 1 264 0
	slwi 26,26,8
.LVL321:
	.loc 1 260 0
	stb 24,0(9)
	addi 9,9,1
	stw 9,16(31)
	lwz 11,20(31)
	addi 0,11,-1
	cmpwi 7,0,0
	stw 0,20(31)
	bne+ 7,.L164
	mr 3,31
	bl dump_buffer
	.loc 1 261 0
	cmpwi 7,24,255
	bne+ 7,.L165
.L198:
	.loc 1 262 0
	lwz 9,16(31)
	stb 20,0(9)
	addi 9,9,1
	stw 9,16(31)
	lwz 11,20(31)
	addi 0,11,-1
	cmpwi 7,0,0
	stw 0,20(31)
	bne+ 7,.L165
	mr 3,31
	bl dump_buffer
.LVL322:
.LBE210:
	.loc 1 257 0
	cmpwi 7,25,7
	bgt+ 7,.L166
.L199:
	lbz 0,12(31)
	.loc 1 463 0
	rlwinm 23,23,0,29,31
.LVL323:
.L163:
	.loc 1 268 0
	stw 26,24(31)
	.loc 1 269 0
	stw 23,28(31)
	b .L161
.LVL324:
.L186:
.LBE212:
.LBE215:
.LBE217:
.LBE219:
.LBE222:
.LBE258:
	.loc 1 515 0
	mr 3,31
	bl emit_eobrun
	b .L147
.LVL325:
.L195:
	.loc 1 550 0
	lwz 11,72(31)
	.loc 1 551 0
	mr 9,0
	.loc 1 550 0
	addi 0,11,1
	.loc 1 551 0
	rlwinm 0,0,0,29,31
	stw 0,72(31)
	b .L173
.LVL326:
.L197:
.LBB259:
.LBB223:
.LBB220:
.LBB218:
.LBB216:
.LBB213:
	.loc 1 244 0
	lwz 9,32(31)
.LVL327:
	.loc 1 534 0
	li 21,0
	.loc 1 244 0
	lwz 9,0(9)
	stw 15,20(9)
	lwz 3,32(31)
	lwz 9,0(3)
	lwz 0,0(9)
	mtctr 0
	bctrl
.LVL328:
	.loc 1 246 0
	lbz 0,12(31)
	andi. 9,0,0xff
	bne+ 0,.L143
	b .L162
.LVL329:
.L184:
.LBE213:
.LBE216:
.LBE218:
.LBE220:
.LBE223:
.LBE259:
	.loc 1 479 0
	lwz 4,72(31)
.LVL330:
	mr 3,31
	bl emit_restart
	b .L140
.LVL331:
.L194:
	.loc 1 540 0
	mr 3,31
	bl emit_eobrun
	b .L141
	.cfi_endproc
.LFE9:
	.size	encode_mcu_AC_first, .-encode_mcu_AC_first
	.align 2
	.type	encode_mcu_DC_refine, @function
encode_mcu_DC_refine:
.LFB10:
	.loc 1 568 0
	.cfi_startproc
.LVL332:
	mflr 0
	stwu 1,-48(1)
.LCFI24:
	.cfi_def_cfa_offset 48
	.cfi_register 65, 0
	stw 28,32(1)
	mr 28,4
	.cfi_offset 28, -16
	stw 30,40(1)
	mr 30,3
	.cfi_offset 30, -8
	stw 0,52(1)
	stw 22,8(1)
	stw 23,12(1)
	stw 24,16(1)
	stw 25,20(1)
	stw 26,24(1)
	stw 27,28(1)
	stw 29,36(1)
	stw 31,44(1)
	.loc 1 575 0
	lwz 9,20(3)
	.loc 1 569 0
	lwz 31,336(3)
	.cfi_offset 31, -4
	.cfi_offset 29, -12
	.cfi_offset 27, -20
	.cfi_offset 26, -24
	.cfi_offset 25, -28
	.cfi_offset 24, -32
	.cfi_offset 23, -36
	.cfi_offset 22, -40
	.cfi_offset 65, 4
.LVL333:
	.loc 1 575 0
	lwz 9,0(9)
	.loc 1 572 0
	lwz 29,300(3)
.LVL334:
	.loc 1 575 0
	stw 9,16(31)
	.loc 1 576 0
	lwz 11,20(3)
	lwz 0,4(11)
	stw 0,20(31)
	.loc 1 579 0
	lwz 0,180(3)
	cmpwi 7,0,0
	beq- 7,.L201
	.loc 1 580 0
	lwz 0,68(31)
	cmpwi 7,0,0
	beq- 7,.L214
.LVL335:
.L201:
	.loc 1 584 0 discriminator 1
	lwz 10,244(30)
	cmpwi 7,10,0
	ble- 7,.L202
	.loc 1 567 0
	addi 23,28,-4
	li 25,0
.LBB263:
.LBB264:
.LBB265:
	.loc 1 262 0
	li 22,0
.LVL336:
.L208:
.LBE265:
	.loc 1 246 0 discriminator 2
	lbz 0,12(31)
.LBE264:
.LBE263:
	.loc 1 588 0 discriminator 2
	lwzu 11,4(23)
.LVL337:
.LBB272:
.LBB269:
	.loc 1 246 0 discriminator 2
	cmpwi 7,0,0
	.loc 1 240 0 discriminator 2
	lwz 24,28(31)
.LBE269:
.LBE272:
	.loc 1 588 0 discriminator 2
	lha 0,0(11)
.LVL338:
.LBB273:
.LBB270:
	.loc 1 246 0 discriminator 2
	bne- 7,.L203
	.loc 1 251 0
	addi 28,24,1
.LBE270:
.LBE273:
	.loc 1 589 0
	sraw 27,0,29
.LBB274:
.LBB271:
	.loc 1 257 0
	cmpwi 7,28,7
	.loc 1 249 0
	rlwinm 27,27,0,31,31
.LVL339:
	.loc 1 253 0
	subfic 10,24,23
	.loc 1 255 0
	lwz 11,24(31)
	.loc 1 253 0
	slw 27,27,10
.LVL340:
	.loc 1 255 0
	or 27,27,11
.LVL341:
	.loc 1 257 0
	bgt+ 7,.L211
	b .L204
.LVL342:
.L205:
.LBB266:
	.loc 1 261 0
	cmpwi 7,26,255
	beq- 7,.L215
.L206:
.LVL343:
.LBE266:
	.loc 1 257 0
	cmpwi 7,28,7
	ble- 7,.L216
.LVL344:
.L211:
.LBB267:
	.loc 1 258 0
	rlwinm 26,27,16,24,31
.LVL345:
	.loc 1 265 0
	addi 28,28,-8
.LVL346:
	.loc 1 260 0
	stb 26,0(9)
	addi 9,9,1
	stw 9,16(31)
	.loc 1 264 0
	slwi 27,27,8
.LVL347:
	.loc 1 260 0
	lwz 11,20(31)
	addi 0,11,-1
	cmpwi 7,0,0
	stw 0,20(31)
	bne+ 7,.L205
	mr 3,31
	bl dump_buffer
	.loc 1 261 0
	cmpwi 7,26,255
	.loc 1 260 0
	lwz 9,16(31)
	.loc 1 261 0
	bne+ 7,.L206
.L215:
	.loc 1 262 0
	stb 22,0(9)
	addi 9,9,1
	stw 9,16(31)
	lwz 11,20(31)
	addi 0,11,-1
	cmpwi 7,0,0
	stw 0,20(31)
	bne+ 7,.L206
	mr 3,31
	bl dump_buffer
.LBE267:
	.loc 1 257 0
	cmpwi 7,28,7
.LBB268:
	.loc 1 262 0
	lwz 9,16(31)
.LVL348:
.LBE268:
	.loc 1 257 0
	bgt+ 7,.L211
.L216:
	.loc 1 567 0
	addi 28,24,-7
.LVL349:
	rlwinm 28,28,0,29,31
.LVL350:
.L204:
	.loc 1 268 0
	stw 27,24(31)
	.loc 1 269 0
	stw 28,28(31)
	lwz 10,244(30)
.LVL351:
.L203:
.LBE271:
.LBE274:
	.loc 1 584 0 discriminator 2
	addi 25,25,1
.LVL352:
	cmpw 7,10,25
	bgt+ 7,.L208
.LVL353:
.L202:
	.loc 1 592 0
	lwz 11,20(30)
	stw 9,0(11)
	.loc 1 593 0
	lwz 0,20(31)
	lwz 9,20(30)
	stw 0,4(9)
	.loc 1 596 0
	lwz 0,180(30)
	cmpwi 7,0,0
	beq- 7,.L209
	.loc 1 597 0
	lwz 9,68(31)
	cmpwi 7,9,0
	beq- 7,.L217
.L210:
	.loc 1 602 0
	addi 9,9,-1
	stw 9,68(31)
.L209:
	.loc 1 606 0
	lwz 0,52(1)
	li 3,1
	lwz 22,8(1)
	mtlr 0
	lwz 23,12(1)
	lwz 24,16(1)
	lwz 25,20(1)
	lwz 26,24(1)
	lwz 27,28(1)
	lwz 28,32(1)
	lwz 29,36(1)
.LVL354:
	lwz 30,40(1)
.LVL355:
	lwz 31,44(1)
.LVL356:
	addi 1,1,48
	.cfi_remember_state
.LCFI25:
	.cfi_def_cfa_offset 0
	.cfi_restore 31
	.cfi_restore 30
	.cfi_restore 29
	.cfi_restore 28
	.cfi_restore 27
	.cfi_restore 26
	.cfi_restore 25
	.cfi_restore 24
	.cfi_restore 23
	.cfi_restore 22
	blr
.LVL357:
.L217:
.LCFI26:
	.cfi_restore_state
	.loc 1 599 0
	lwz 11,72(31)
	.loc 1 600 0
	mr 9,0
	.loc 1 599 0
	addi 0,11,1
	.loc 1 600 0
	rlwinm 0,0,0,29,31
	stw 0,72(31)
	b .L210
.LVL358:
.L214:
	.loc 1 581 0
	lwz 4,72(31)
.LVL359:
	mr 3,31
	bl emit_restart
	lwz 9,16(31)
	b .L201
	.cfi_endproc
.LFE10:
	.size	encode_mcu_DC_refine, .-encode_mcu_DC_refine
	.align 2
	.type	encode_mcu_AC_refine, @function
encode_mcu_AC_refine:
.LFB11:
	.loc 1 615 0
	.cfi_startproc
.LVL360:
	mflr 0
	stwu 1,-352(1)
.LCFI27:
	.cfi_def_cfa_offset 352
	.cfi_register 65, 0
	stw 27,332(1)
	mr 27,4
	.cfi_offset 27, -20
	stw 30,344(1)
	mr 30,3
	.cfi_offset 30, -8
	stw 0,356(1)
	stw 14,280(1)
	stw 15,284(1)
	stw 16,288(1)
	stw 17,292(1)
	stw 18,296(1)
	stw 19,300(1)
	stw 20,304(1)
	stw 21,308(1)
	stw 22,312(1)
	stw 23,316(1)
	stw 24,320(1)
	stw 25,324(1)
	stw 26,328(1)
	stw 28,336(1)
	stw 29,340(1)
	stw 31,348(1)
	.loc 1 627 0
	lwz 9,20(3)
	.loc 1 616 0
	lwz 31,336(3)
	.cfi_offset 31, -4
	.cfi_offset 29, -12
	.cfi_offset 28, -16
	.cfi_offset 26, -24
	.cfi_offset 25, -28
	.cfi_offset 24, -32
	.cfi_offset 23, -36
	.cfi_offset 22, -40
	.cfi_offset 21, -44
	.cfi_offset 20, -48
	.cfi_offset 19, -52
	.cfi_offset 18, -56
	.cfi_offset 17, -60
	.cfi_offset 16, -64
	.cfi_offset 15, -68
	.cfi_offset 14, -72
	.cfi_offset 65, 4
.LVL361:
	.loc 1 627 0
	lwz 0,0(9)
	.loc 1 622 0
	lwz 29,292(3)
.LVL362:
	.loc 1 623 0
	lwz 28,300(3)
.LVL363:
	.loc 1 627 0
	stw 0,16(31)
	.loc 1 628 0
	lwz 9,20(3)
	lwz 0,4(9)
	stw 0,20(31)
	.loc 1 631 0
	lwz 0,180(3)
	cmpwi 7,0,0
	beq- 7,.L219
.LVL364:
	.loc 1 632 0
	lwz 0,68(31)
	cmpwi 7,0,0
	bne+ 7,.L219
	.loc 1 633 0
	lwz 4,72(31)
.LVL365:
	mr 3,31
.LVL366:
	bl emit_restart
.LVL367:
.L219:
	.loc 1 642 0
	lwz 19,288(30)
	.loc 1 636 0
	lwz 14,0(27)
.LVL368:
	.loc 1 642 0
	cmpw 7,29,19
	blt- 7,.L220
	.loc 1 614 0
	addi 0,29,1
	.loc 1 641 0
	li 7,0
	subf 0,19,0
	.loc 1 614 0
	mr 11,19
	li 9,0
	.loc 1 641 0
	stw 7,272(1)
	slwi 10,19,2
	mtctr 0
	b .L222
.LVL369:
.L221:
	.loc 1 642 0
	addi 11,11,1
.LVL370:
	bdz .L282
.LVL371:
.L222:
	.loc 1 614 0
	lis 7,jpeg_natural_order@ha
	la 7,jpeg_natural_order@l(7)
	add 8,7,10
	.loc 1 643 0
	lwzx 0,8,9
	.loc 1 614 0
	addi 8,1,8
	add 17,8,10
	.loc 1 643 0
	slwi 0,0,1
	lhax 0,14,0
.LVL372:
	srawi 7,0,31
	xor 0,7,0
.LVL373:
	subf 0,7,0
.LVL374:
	.loc 1 650 0
	sraw 0,0,28
.LVL375:
	.loc 1 652 0
	cmpwi 7,0,1
	.loc 1 651 0
	stwx 0,17,9
	.loc 1 642 0
	addi 9,9,4
	.loc 1 652 0
	bne+ 7,.L221
	stw 11,272(1)
	.loc 1 642 0
	addi 11,11,1
.LVL376:
	bdnz .L222
.L282:
.LVL377:
	.loc 1 660 0
	lwz 22,64(31)
	.loc 1 614 0
	slwi 8,19,2
	.loc 1 660 0
	lwz 0,60(31)
.LVL378:
	li 18,0
	.loc 1 614 0
	stw 8,276(1)
	.loc 1 659 0
	li 21,0
	.loc 1 660 0
	add 22,22,0
.LVL379:
	.loc 1 658 0
	li 28,0
.LVL380:
.LBB308:
.LBB309:
.LBB310:
	.loc 1 262 0
	li 23,0
.LBE310:
.LBE309:
.LBE308:
.LBB318:
.LBB319:
.LBB320:
.LBB321:
.LBB322:
.LBB323:
	.loc 1 249 0
	li 15,1
.LVL381:
.L263:
.LBE323:
.LBE322:
.LBE321:
.LBE320:
.LBE319:
.LBE318:
	.loc 1 663 0
	lwzx 16,17,18
.LVL382:
	cmpwi 7,16,0
	beq- 7,.L223
.LVL383:
	.loc 1 669 0 discriminator 1
	cmpwi 7,28,15
	ble- 7,.L224
	.loc 1 669 0 is_stmt 0
	lwz 9,272(1)
	.loc 1 614 0 is_stmt 1
	addi 10,28,-16
	stw 10,268(1)
	mr 20,10
	.loc 1 669 0
	cmpw 7,9,19
	blt- 7,.L224
	.loc 1 671 0
	mr 3,31
	bl emit_eobrun
.LVL384:
.LBB345:
.LBB346:
	.loc 1 290 0
	lbz 0,12(31)
.LBE346:
.LBE345:
	.loc 1 673 0
	lwz 9,52(31)
.LVL385:
.LBB378:
.LBB371:
	.loc 1 290 0
	andi. 11,0,0xff
	beq- 0,.L227
.LVL386:
.L287:
	.loc 1 291 0
	addi 9,9,20
.LVL387:
	slwi 9,9,2
.LVL388:
	add 9,31,9
	lwz 9,12(9)
	lwz 11,960(9)
	addi 0,11,1
	stw 0,960(9)
	lbz 0,12(31)
.L228:
.LBE371:
.LBE378:
.LBB379:
.LBB380:
	.loc 1 307 0
	rlwinm 0,0,0,0xff
.LBE380:
.LBE379:
	.loc 1 674 0
	stw 20,264(1)
.LVL389:
.LBB393:
.LBB391:
	.loc 1 307 0
	cmpwi 7,0,0
	bne- 7,.L235
.LVL390:
.LBB381:
.LBB382:
	.loc 1 310 0
	cmpwi 7,21,0
	beq- 7,.L235
	.loc 1 614 0
	addi 21,21,-1
.LVL391:
.LBE382:
.LBE381:
.LBE391:
.LBE393:
.LBB394:
.LBB372:
.LBB347:
.LBB348:
.LBB349:
.LBB350:
	li 25,0
.LVL392:
.L241:
.LBE350:
.LBE349:
.LBE348:
.LBE347:
.LBE372:
.LBE394:
.LBB395:
.LBB392:
.LBB390:
.LBB389:
.LBB383:
.LBB384:
	.loc 1 246 0
	cmpwi 7,0,0
.LBE384:
.LBE383:
	.loc 1 311 0
	lbzx 27,22,25
.LVL393:
.LBB388:
.LBB387:
	.loc 1 240 0
	lwz 24,28(31)
.LVL394:
	.loc 1 246 0
	bne- 7,.L236
	.loc 1 251 0
	addi 28,24,1
	.loc 1 249 0
	rlwinm 27,27,0,31,31
.LVL395:
	.loc 1 257 0
	cmpwi 7,28,7
	.loc 1 253 0
	subfic 9,24,23
	.loc 1 255 0
	lwz 0,24(31)
	.loc 1 253 0
	slw 27,27,9
.LVL396:
	.loc 1 255 0
	or 27,27,0
.LVL397:
	.loc 1 257 0
	bgt+ 7,.L273
	b .L237
.LVL398:
.L238:
.LBB385:
	.loc 1 261 0
	cmpwi 7,26,255
	beq- 7,.L283
.L239:
.LVL399:
.LBE385:
	.loc 1 257 0
	cmpwi 7,28,7
	ble- 7,.L284
.LVL400:
.L273:
.LBB386:
	.loc 1 260 0
	lwz 9,16(31)
	.loc 1 258 0
	rlwinm 26,27,16,24,31
.LVL401:
	.loc 1 265 0
	addi 28,28,-8
.LVL402:
	.loc 1 264 0
	slwi 27,27,8
.LVL403:
	.loc 1 260 0
	stb 26,0(9)
	addi 9,9,1
	stw 9,16(31)
	lwz 11,20(31)
	addi 0,11,-1
	cmpwi 7,0,0
	stw 0,20(31)
	bne+ 7,.L238
	mr 3,31
	bl dump_buffer
	.loc 1 261 0
	cmpwi 7,26,255
	bne+ 7,.L239
.L283:
	.loc 1 262 0
	lwz 9,16(31)
	stb 23,0(9)
	addi 9,9,1
	stw 9,16(31)
	lwz 11,20(31)
	addi 0,11,-1
	cmpwi 7,0,0
	stw 0,20(31)
	bne+ 7,.L239
	mr 3,31
	bl dump_buffer
.LVL404:
.LBE386:
	.loc 1 257 0
	cmpwi 7,28,7
	bgt+ 7,.L273
.L284:
	.loc 1 614 0
	addi 28,24,-7
.LVL405:
	rlwinm 28,28,0,29,31
.LVL406:
.L237:
	.loc 1 268 0
	stw 27,24(31)
	.loc 1 269 0
	stw 28,28(31)
.LVL407:
.L236:
.LBE387:
.LBE388:
	.loc 1 310 0
	cmpw 7,25,21
	beq- 7,.L235
	lbz 0,12(31)
	addi 25,25,1
	b .L241
.LVL408:
.L286:
.LBE389:
.LBE390:
.LBE392:
.LBE395:
	.loc 1 614 0
	lwz 9,268(1)
.LBB396:
.LBB373:
.LBB367:
.LBB363:
.LBB358:
.LBB353:
	.loc 1 678 0
	li 21,0
.LBE353:
.LBE358:
.LBE363:
.LBE367:
.LBE373:
.LBE396:
	.loc 1 614 0
	rlwinm 28,9,0,28,31
.LVL409:
.L224:
	.loc 1 686 0
	cmpwi 7,16,1
	ble- 7,.L243
	.loc 1 688 0
	rlwinm 16,16,0,31,31
.LVL410:
	stbx 16,22,21
	addi 21,21,1
.LVL411:
.L226:
	.loc 1 662 0
	addi 19,19,1
.LVL412:
	addi 18,18,4
	cmpw 7,29,19
	bge+ 7,.L263
	.loc 1 709 0
	cmpwi 7,28,0
	beq- 7,.L285
.L264:
	.loc 1 710 0
	lwz 0,56(31)
	.loc 1 711 0
	lwz 9,60(31)
	.loc 1 710 0
	addic 0,0,1
	.loc 1 716 0
	cmpwi 7,0,32767
	.loc 1 711 0
	add 21,21,9
.LVL413:
	.loc 1 710 0
	stw 0,56(31)
	.loc 1 711 0
	stw 21,60(31)
	.loc 1 716 0
	beq- 7,.L265
	.loc 1 716 0 is_stmt 0 discriminator 1
	cmplwi 7,21,937
	ble- 7,.L220
.L265:
	.loc 1 717 0 is_stmt 1
	mr 3,31
	bl emit_eobrun
.LVL414:
.L220:
	.loc 1 720 0
	lwz 9,20(30)
	lwz 0,16(31)
	stw 0,0(9)
	.loc 1 721 0
	lwz 0,20(31)
	lwz 9,20(30)
	stw 0,4(9)
	.loc 1 724 0
	lwz 0,180(30)
	cmpwi 7,0,0
	beq- 7,.L266
	.loc 1 725 0
	lwz 9,68(31)
	cmpwi 7,9,0
	bne- 7,.L267
	.loc 1 727 0
	lwz 11,72(31)
	.loc 1 728 0
	mr 9,0
	.loc 1 727 0
	addi 0,11,1
	.loc 1 728 0
	rlwinm 0,0,0,29,31
	stw 0,72(31)
.L267:
	.loc 1 730 0
	addi 9,9,-1
	stw 9,68(31)
.L266:
	.loc 1 734 0
	lwz 0,356(1)
	li 3,1
	lwz 14,280(1)
.LVL415:
	mtlr 0
	lwz 15,284(1)
	lwz 16,288(1)
	lwz 17,292(1)
	lwz 18,296(1)
	lwz 19,300(1)
.LVL416:
	lwz 20,304(1)
	lwz 21,308(1)
	lwz 22,312(1)
	lwz 23,316(1)
	lwz 24,320(1)
	lwz 25,324(1)
	lwz 26,328(1)
	lwz 27,332(1)
	lwz 28,336(1)
	lwz 29,340(1)
.LVL417:
	lwz 30,344(1)
.LVL418:
	lwz 31,348(1)
.LVL419:
	addi 1,1,352
	.cfi_remember_state
.LCFI28:
	.cfi_def_cfa_offset 0
	.cfi_restore 31
	.cfi_restore 30
	.cfi_restore 29
	.cfi_restore 28
	.cfi_restore 27
	.cfi_restore 26
	.cfi_restore 25
	.cfi_restore 24
	.cfi_restore 23
	.cfi_restore 22
	.cfi_restore 21
	.cfi_restore 20
	.cfi_restore 19
	.cfi_restore 18
	.cfi_restore 17
	.cfi_restore 16
	.cfi_restore 15
	.cfi_restore 14
	blr
.LVL420:
.L288:
.LCFI29:
	.cfi_restore_state
.LBB397:
.LBB374:
.LBB368:
.LBB364:
.LBB359:
.LBB354:
	.loc 1 244 0
	lwz 9,32(31)
.LVL421:
	li 0,37
	lwz 9,0(9)
	stw 0,20(9)
	lwz 3,32(31)
	lwz 9,0(3)
	lwz 0,0(9)
	mtctr 0
	bctrl
	.loc 1 246 0
	lbz 0,12(31)
.LBE354:
.LBE359:
.LBE364:
.LBE368:
.LBE374:
.LBE397:
	.loc 1 674 0
	stw 20,264(1)
.LBB398:
.LBB375:
.LBB369:
.LBB365:
.LBB360:
.LBB355:
	.loc 1 246 0
	andi. 7,0,0xff
	beq- 0,.L229
.LVL422:
.L235:
.LBE355:
.LBE360:
.LBE365:
.LBE369:
.LBE375:
.LBE398:
	.loc 1 669 0
	lwz 8,264(1)
	.loc 1 677 0
	addi 20,20,-16
	lwz 22,64(31)
.LVL423:
	.loc 1 669 0
	cmpwi 7,8,15
	ble- 7,.L286
	.loc 1 671 0
	mr 3,31
	.loc 1 678 0
	li 21,0
	.loc 1 671 0
	bl emit_eobrun
.LVL424:
.LBB399:
.LBB376:
	.loc 1 290 0
	lbz 0,12(31)
.LBE376:
.LBE399:
	.loc 1 673 0
	lwz 9,52(31)
.LVL425:
.LBB400:
.LBB377:
	.loc 1 290 0
	andi. 11,0,0xff
	bne+ 0,.L287
.LVL426:
.L227:
.LBB370:
.LBB366:
	.loc 1 293 0
	addi 9,9,16
.LVL427:
.LBB361:
.LBB356:
	.loc 1 240 0
	lwz 25,28(31)
.LBE356:
.LBE361:
	.loc 1 293 0
	slwi 9,9,2
.LVL428:
	add 9,31,9
	lwz 9,12(9)
.LVL429:
	.loc 1 294 0
	lbz 28,1264(9)
.LVL430:
	lwz 27,960(9)
.LVL431:
.LBB362:
.LBB357:
	.loc 1 243 0
	cmpwi 7,28,0
	beq- 7,.L288
.LVL432:
.L229:
	.loc 1 251 0
	add 25,28,25
.LVL433:
	.loc 1 249 0
	slw 28,15,28
.LVL434:
	.loc 1 257 0
	cmpwi 7,25,7
	.loc 1 249 0
	addi 28,28,-1
	and 28,28,27
.LVL435:
	.loc 1 253 0
	subfic 11,25,24
	.loc 1 255 0
	lwz 9,24(31)
	.loc 1 253 0
	slw 28,28,11
.LVL436:
	.loc 1 255 0
	or 28,28,9
.LVL437:
	.loc 1 257 0
	ble- 7,.L231
	mr 27,25
.LVL438:
	b .L234
.LVL439:
.L232:
.LBB351:
	.loc 1 261 0
	cmpwi 7,26,255
	beq- 7,.L289
.L233:
.LVL440:
.LBE351:
	.loc 1 257 0
	cmpwi 7,27,7
	ble- 7,.L290
.LVL441:
.L234:
.LBB352:
	.loc 1 260 0
	lwz 9,16(31)
	.loc 1 258 0
	rlwinm 26,28,16,24,31
.LVL442:
	.loc 1 265 0
	addi 27,27,-8
.LVL443:
	.loc 1 264 0
	slwi 28,28,8
.LVL444:
	.loc 1 260 0
	stb 26,0(9)
	addi 9,9,1
	stw 9,16(31)
	lwz 11,20(31)
	addi 0,11,-1
	cmpwi 7,0,0
	stw 0,20(31)
	bne+ 7,.L232
	mr 3,31
	bl dump_buffer
	.loc 1 261 0
	cmpwi 7,26,255
	bne+ 7,.L233
.L289:
	.loc 1 262 0
	lwz 9,16(31)
	stb 23,0(9)
	addi 9,9,1
	stw 9,16(31)
	lwz 11,20(31)
	addi 0,11,-1
	cmpwi 7,0,0
	stw 0,20(31)
	bne+ 7,.L233
	mr 3,31
	bl dump_buffer
.LVL445:
.LBE352:
	.loc 1 257 0
	cmpwi 7,27,7
	bgt+ 7,.L234
.L290:
	lbz 0,12(31)
	.loc 1 614 0
	rlwinm 25,25,0,29,31
.LVL446:
.L231:
	.loc 1 268 0
	stw 28,24(31)
	.loc 1 269 0
	stw 25,28(31)
	b .L228
.LVL447:
.L223:
.LBE357:
.LBE362:
.LBE366:
.LBE370:
.LBE377:
.LBE400:
	.loc 1 664 0
	addi 28,28,1
.LVL448:
	.loc 1 665 0
	b .L226
.LVL449:
.L243:
	.loc 1 693 0
	mr 3,31
	bl emit_eobrun
.LBB401:
.LBB339:
	.loc 1 290 0
	lbz 0,12(31)
.LBE339:
.LBE401:
	.loc 1 696 0
	slwi 9,28,4
	lwz 11,52(31)
.LBB402:
.LBB340:
	.loc 1 290 0
	andi. 10,0,0xff
.LBE340:
.LBE402:
	.loc 1 696 0
	addi 9,9,1
.LVL450:
.LBB403:
.LBB341:
	.loc 1 290 0
	beq- 0,.L244
	.loc 1 291 0
	addi 11,11,20
	slwi 9,9,2
.LVL451:
	slwi 11,11,2
	add 11,31,11
	lwz 11,12(11)
	lwzx 0,11,9
	addic 0,0,1
	stwx 0,11,9
	lwz 28,28(31)
	lbz 0,12(31)
.LVL452:
.L245:
.LBE341:
.LBE403:
	.loc 1 614 0
	lis 8,jpeg_natural_order@ha
	lwz 10,276(1)
.LBB404:
.LBB313:
	.loc 1 246 0
	rlwinm 0,0,0,0xff
.LBE313:
.LBE404:
	.loc 1 614 0
	la 8,jpeg_natural_order@l(8)
	add 9,8,10
.LBB405:
.LBB314:
	.loc 1 246 0
	cmpwi 7,0,0
.LBE314:
.LBE405:
	.loc 1 699 0
	lwzx 0,9,18
	slwi 0,0,1
	lhax 27,14,0
.LVL453:
.LBB406:
.LBB315:
	.loc 1 246 0
	bne- 7,.L256
	.loc 1 251 0
	addi 25,28,1
.LVL454:
	.loc 1 239 0
	nor 27,27,27
	.loc 1 257 0
	cmpwi 7,25,7
	.loc 1 239 0
	srwi 27,27,31
	.loc 1 253 0
	subfic 9,28,23
	.loc 1 255 0
	lwz 0,24(31)
.LVL455:
	.loc 1 253 0
	slw 27,27,9
.LVL456:
	.loc 1 255 0
	or 27,27,0
.LVL457:
	.loc 1 257 0
	bgt+ 7,.L272
	b .L297
.LVL458:
.L253:
.LBB311:
	.loc 1 261 0
	cmpwi 7,26,255
	beq- 7,.L291
.L254:
.LVL459:
.LBE311:
	.loc 1 257 0
	cmpwi 7,25,7
	ble- 7,.L292
.LVL460:
.L272:
.LBB312:
	.loc 1 260 0
	lwz 9,16(31)
	.loc 1 258 0
	rlwinm 26,27,16,24,31
.LVL461:
	.loc 1 265 0
	addi 25,25,-8
.LVL462:
	.loc 1 264 0
	slwi 27,27,8
.LVL463:
	.loc 1 260 0
	stb 26,0(9)
	addi 9,9,1
	stw 9,16(31)
	lwz 11,20(31)
	addi 0,11,-1
	cmpwi 7,0,0
	stw 0,20(31)
	bne+ 7,.L253
	mr 3,31
	bl dump_buffer
	.loc 1 261 0
	cmpwi 7,26,255
	bne+ 7,.L254
.L291:
	.loc 1 262 0
	lwz 9,16(31)
	stb 23,0(9)
	addi 9,9,1
	stw 9,16(31)
	lwz 0,20(31)
	addic 0,0,-1
	cmpwi 7,0,0
	stw 0,20(31)
	bne+ 7,.L254
	mr 3,31
	bl dump_buffer
.LVL464:
.LBE312:
	.loc 1 257 0
	cmpwi 7,25,7
	bgt+ 7,.L272
.L292:
	lbz 0,12(31)
	.loc 1 614 0
	addi 28,28,-7
	.loc 1 257 0
	rlwinm 25,28,0,29,31
.LVL465:
	.loc 1 268 0
	stw 27,24(31)
.LBE315:
.LBE406:
.LBB407:
.LBB408:
	.loc 1 307 0
	cmpwi 7,0,0
.LBE408:
.LBE407:
.LBB421:
.LBB316:
	.loc 1 269 0
	stw 25,28(31)
.LVL466:
.LBE316:
.LBE421:
.LBB422:
.LBB419:
	.loc 1 307 0
	bne- 7,.L256
.LVL467:
.L268:
.LBB409:
.LBB410:
	.loc 1 310 0
	cmpwi 7,21,0
	beq- 7,.L256
	.loc 1 614 0
	addi 21,21,-1
.LVL468:
.LBE410:
.LBE409:
.LBE419:
.LBE422:
.LBB423:
.LBB342:
.LBB336:
.LBB333:
.LBB329:
.LBB325:
	li 24,0
	li 0,0
.LVL469:
.L262:
.LBE325:
.LBE329:
.LBE333:
.LBE336:
.LBE342:
.LBE423:
.LBB424:
.LBB420:
.LBB418:
.LBB417:
.LBB411:
.LBB412:
	.loc 1 246 0
	cmpwi 7,0,0
.LBE412:
.LBE411:
	.loc 1 311 0
	lbzx 27,22,24
.LVL470:
.LBB416:
.LBB415:
	.loc 1 246 0
	bne- 7,.L257
	.loc 1 251 0
	addi 28,25,1
	.loc 1 249 0
	rlwinm 27,27,0,31,31
.LVL471:
	.loc 1 257 0
	cmpwi 7,28,7
	.loc 1 253 0
	subfic 9,25,23
	.loc 1 255 0
	lwz 0,24(31)
	.loc 1 253 0
	slw 27,27,9
.LVL472:
	.loc 1 255 0
	or 27,27,0
.LVL473:
	.loc 1 257 0
	bgt+ 7,.L271
	b .L258
.LVL474:
.L259:
.LBB413:
	.loc 1 261 0
	cmpwi 7,26,255
	beq- 7,.L293
.L260:
.LVL475:
.LBE413:
	.loc 1 257 0
	cmpwi 7,28,7
	ble- 7,.L294
.LVL476:
.L271:
.LBB414:
	.loc 1 260 0
	lwz 9,16(31)
	.loc 1 258 0
	rlwinm 26,27,16,24,31
.LVL477:
	.loc 1 265 0
	addi 28,28,-8
.LVL478:
	.loc 1 264 0
	slwi 27,27,8
.LVL479:
	.loc 1 260 0
	stb 26,0(9)
	addi 9,9,1
	stw 9,16(31)
	lwz 11,20(31)
	addi 0,11,-1
	cmpwi 7,0,0
	stw 0,20(31)
	bne+ 7,.L259
	mr 3,31
	bl dump_buffer
	.loc 1 261 0
	cmpwi 7,26,255
	bne+ 7,.L260
.L293:
	.loc 1 262 0
	lwz 9,16(31)
	stb 23,0(9)
	addi 9,9,1
	stw 9,16(31)
	lwz 11,20(31)
	addi 0,11,-1
	cmpwi 7,0,0
	stw 0,20(31)
	bne+ 7,.L260
	mr 3,31
	bl dump_buffer
.LVL480:
.LBE414:
	.loc 1 257 0
	cmpwi 7,28,7
	bgt+ 7,.L271
.L294:
	.loc 1 614 0
	addi 28,25,-7
.LVL481:
	.loc 1 257 0
	rlwinm 28,28,0,29,31
.LVL482:
.L258:
	.loc 1 268 0
	stw 27,24(31)
	.loc 1 269 0
	stw 28,28(31)
.LVL483:
.L257:
.LBE415:
.LBE416:
	.loc 1 310 0
	cmpw 7,24,21
	beq- 7,.L256
	lwz 25,28(31)
	addi 24,24,1
	lbz 0,12(31)
	b .L262
.LVL484:
.L295:
.LBE417:
.LBE418:
.LBE420:
.LBE424:
.LBB425:
.LBB343:
.LBB337:
.LBB334:
.LBB330:
.LBB326:
	.loc 1 244 0
	lwz 9,32(31)
	li 11,37
.LVL485:
	lwz 9,0(9)
	stw 11,20(9)
	lwz 3,32(31)
	lwz 9,0(3)
	lwz 0,0(9)
	mtctr 0
	bctrl
.LVL486:
	.loc 1 246 0
	lbz 0,12(31)
	andi. 7,0,0xff
	beq- 0,.L246
.LVL487:
.L256:
.LBE326:
.LBE330:
.LBE334:
.LBE337:
.LBE343:
.LBE425:
	.loc 1 704 0
	lwz 22,64(31)
.LVL488:
	.loc 1 705 0
	li 21,0
	.loc 1 706 0
	li 28,0
	b .L226
.LVL489:
.L244:
.LBB426:
.LBB344:
.LBB338:
.LBB335:
	.loc 1 293 0
	addi 11,11,16
.LVL490:
	.loc 1 294 0
	slwi 10,9,2
	.loc 1 293 0
	slwi 11,11,2
.LBB331:
.LBB327:
	.loc 1 240 0
	lwz 28,28(31)
.LBE327:
.LBE331:
	.loc 1 293 0
	add 11,31,11
	lwz 11,12(11)
.LVL491:
	.loc 1 294 0
	add 9,11,9
.LVL492:
	lwzx 26,11,10
	lbz 27,1024(9)
.LVL493:
.LBB332:
.LBB328:
	.loc 1 243 0
	cmpwi 7,27,0
	beq- 7,.L295
.LVL494:
.L246:
	.loc 1 251 0
	add 28,27,28
.LVL495:
	.loc 1 249 0
	slw 27,15,27
.LVL496:
	.loc 1 257 0
	cmpwi 7,28,7
	.loc 1 249 0
	addi 27,27,-1
	and 27,27,26
.LVL497:
	.loc 1 253 0
	subfic 11,28,24
	.loc 1 255 0
	lwz 9,24(31)
	.loc 1 253 0
	slw 27,27,11
.LVL498:
	.loc 1 255 0
	or 27,27,9
.LVL499:
	.loc 1 257 0
	ble- 7,.L248
	mr 26,28
.LVL500:
	b .L251
.LVL501:
.L250:
	cmpwi 7,26,7
	ble- 7,.L296
.LVL502:
.L251:
.LBB324:
	.loc 1 260 0
	lwz 9,16(31)
	.loc 1 258 0
	rlwinm 25,27,16,24,31
.LVL503:
	.loc 1 265 0
	addi 26,26,-8
.LVL504:
	.loc 1 264 0
	slwi 27,27,8
.LVL505:
	.loc 1 260 0
	stb 25,0(9)
	addi 9,9,1
	stw 9,16(31)
	lwz 0,20(31)
	addic 0,0,-1
	cmpwi 7,0,0
	stw 0,20(31)
	bne+ 7,.L249
	mr 3,31
	bl dump_buffer
.L249:
	.loc 1 261 0
	cmpwi 7,25,255
	bne+ 7,.L250
	.loc 1 262 0
	lwz 9,16(31)
	stb 23,0(9)
	addi 9,9,1
	stw 9,16(31)
	lwz 0,20(31)
	addic 0,0,-1
	cmpwi 7,0,0
	stw 0,20(31)
	bne+ 7,.L250
	mr 3,31
	bl dump_buffer
.LVL506:
.LBE324:
	.loc 1 257 0
	cmpwi 7,26,7
	bgt+ 7,.L251
.L296:
	lbz 0,12(31)
	.loc 1 614 0
	rlwinm 28,28,0,29,31
.LVL507:
.L248:
	.loc 1 268 0
	stw 27,24(31)
	.loc 1 269 0
	stw 28,28(31)
	b .L245
.LVL508:
.L297:
.LBE328:
.LBE332:
.LBE335:
.LBE338:
.LBE344:
.LBE426:
.LBB427:
.LBB317:
	.loc 1 268 0
	stw 27,24(31)
	.loc 1 269 0
	stw 25,28(31)
.LVL509:
	b .L268
.LVL510:
.L285:
.LBE317:
.LBE427:
	.loc 1 709 0 discriminator 1
	cmpwi 7,21,0
	beq- 7,.L220
	b .L264
	.cfi_endproc
.LFE11:
	.size	encode_mcu_AC_refine, .-encode_mcu_AC_refine
	.align 2
	.globl jinit_phuff_encoder
	.type	jinit_phuff_encoder, @function
jinit_phuff_encoder:
.LFB14:
	.loc 1 811 0
	.cfi_startproc
.LVL511:
	mflr 0
	stwu 1,-16(1)
.LCFI30:
	.cfi_def_cfa_offset 16
	.cfi_register 65, 0
	.loc 1 815 0
	li 4,1
	li 5,108
	.loc 1 811 0
	stw 31,12(1)
	mr 31,3
	.cfi_offset 31, -4
	stw 0,20(1)
	.loc 1 816 0
	lwz 9,4(3)
	.loc 1 815 0
	lwz 0,0(9)
	.cfi_offset 65, 4
	mtctr 0
	bctrl
.LVL512:
	.loc 1 819 0
	lis 9,start_pass_phuff@ha
	.loc 1 823 0
	li 0,0
	.loc 1 819 0
	la 9,start_pass_phuff@l(9)
	.loc 1 818 0
	stw 3,336(31)
	.loc 1 819 0
	stw 9,0(3)
.LVL513:
	.loc 1 823 0
	stw 0,76(3)
	.loc 1 824 0
	stw 0,92(3)
.LVL514:
	.loc 1 823 0
	stw 0,80(3)
	.loc 1 824 0
	stw 0,96(3)
.LVL515:
	.loc 1 823 0
	stw 0,84(3)
	.loc 1 824 0
	stw 0,100(3)
.LVL516:
	.loc 1 823 0
	stw 0,88(3)
	.loc 1 824 0
	stw 0,104(3)
.LVL517:
	.loc 1 826 0
	stw 0,64(3)
	.loc 1 827 0
	lwz 0,20(1)
	lwz 31,12(1)
.LVL518:
	mtlr 0
	addi 1,1,16
.LCFI31:
	.cfi_def_cfa_offset 0
	.cfi_restore 31
	blr
	.cfi_endproc
.LFE14:
	.size	jinit_phuff_encoder, .-jinit_phuff_encoder
.Letext0:
	.file 2 "c:\\utils\\devkitpro\\devkitppc\\bin\\../lib/gcc/powerpc-eabi/4.6.3/include/stddef.h"
	.file 3 "d:/Data/Nintendo/DoomGX/src/renderer/jpeg-6/jpeglib.h"
	.file 4 "d:/Data/Nintendo/DoomGX/src/renderer/jpeg-6/../jpeg-6/jmorecfg.h"
	.file 5 "d:/Data/Nintendo/DoomGX/src/renderer/jpeg-6/../jpeg-6/jpegint.h"
	.file 6 "d:/Data/Nintendo/DoomGX/src/renderer/jpeg-6/../jpeg-6/jerror.h"
	.file 7 "d:/Data/Nintendo/DoomGX/src/renderer/jpeg-6/jchuff.h"