	.file	"jdatasrc.c.c"
	.section	".text"
.Ltext0:
	.cfi_sections	.debug_frame
	.align 2
	.type	init_source, @function
init_source:
.LFB0:
	.file 1 "d:/Data/Nintendo/DoomGX/src/renderer/jpeg-6/jdatasrc.c.c"
	.loc 1 46 0
	.cfi_startproc
.LVL0:
	.loc 1 47 0
	lwz 9,20(3)
.LVL1:
	.loc 1 53 0
	li 0,1
	stb 0,36(9)
	.loc 1 54 0
	blr
	.cfi_endproc
.LFE0:
	.size	init_source, .-init_source
	.align 2
	.type	term_source, @function
term_source:
.LFB3:
	.loc 1 162 0
	.cfi_startproc
.LVL2:
	.loc 1 164 0
	blr
	.cfi_endproc
.LFE3:
	.size	term_source, .-term_source
	.align 2
	.type	fill_input_buffer, @function
fill_input_buffer:
.LFB1:
	.loc 1 92 0
	.cfi_startproc
.LVL3:
	mflr 0
	stwu 1,-16(1)
.LCFI0:
	.cfi_def_cfa_offset 16
	.cfi_register 65, 0
	.loc 1 95 0
	li 5,4096
	.loc 1 92 0
	stw 31,12(1)
	stw 0,20(1)
	.loc 1 93 0
	lwz 31,20(3)
	.cfi_offset 65, 4
	.cfi_offset 31, -4
.LVL4:
	.loc 1 95 0
	lwz 3,32(31)
.LVL5:
	lwz 4,28(31)
	bl memcpy
	.loc 1 99 0
	lwz 0,32(31)
	.loc 1 97 0
	lwz 9,28(31)
	.loc 1 104 0
	li 3,1
	.loc 1 99 0
	stw 0,0(31)
	.loc 1 100 0
	li 0,4096
	stw 0,4(31)
	.loc 1 97 0
	addi 9,9,4096
	.loc 1 101 0
	li 0,0
	.loc 1 97 0
	stw 9,28(31)
	.loc 1 101 0
	stb 0,36(31)
	.loc 1 104 0
	lwz 0,20(1)
	lwz 31,12(1)
.LVL6:
	mtlr 0
	addi 1,1,16
.LCFI1:
	.cfi_def_cfa_offset 0
	.cfi_restore 31
	blr
	.cfi_endproc
.LFE1:
	.size	fill_input_buffer, .-fill_input_buffer
	.align 2
	.type	skip_input_data, @function
skip_input_data:
.LFB2:
	.loc 1 121 0
	.cfi_startproc
.LVL7:
	stwu 1,-24(1)
.LCFI2:
	.cfi_def_cfa_offset 24
	mflr 0
	stw 31,20(1)
	.loc 1 128 0
	mr. 31,4
	.cfi_offset 31, -4
	.cfi_register 65, 0
	.loc 1 121 0
	stw 29,12(1)
	mr 29,3
	.cfi_offset 29, -12
	stw 0,28(1)
	stw 30,16(1)
	.loc 1 122 0
	lwz 30,20(3)
	.cfi_offset 30, -8
	.cfi_offset 65, 4
.LVL8:
	.loc 1 128 0
	ble- 0,.L4
	.loc 1 129 0 discriminator 1
	lwz 9,4(30)
	cmpw 7,31,9
	mr 0,9
	ble- 7,.L6
.LVL9:
.L8:
	.loc 1 131 0
	mr 3,29
	.loc 1 130 0
	subf 31,0,31
.LVL10:
	.loc 1 131 0
	bl fill_input_buffer
	.loc 1 129 0
	lwz 0,4(30)
	cmpw 7,0,31
	mr 9,0
	blt+ 7,.L8
.L6:
	.loc 1 136 0
	lwz 0,0(30)
	.loc 1 137 0
	subf 9,31,9
	stw 9,4(30)
	.loc 1 136 0
	add 31,0,31
.LVL11:
	stw 31,0(30)
.L4:
	.loc 1 139 0
	lwz 0,28(1)
	lwz 29,12(1)
.LVL12:
	mtlr 0
	lwz 30,16(1)
.LVL13:
	lwz 31,20(1)
	addi 1,1,24
.LCFI3:
	.cfi_def_cfa_offset 0
	.cfi_restore 31
	.cfi_restore 30
	.cfi_restore 29
	blr
	.cfi_endproc
.LFE2:
	.size	skip_input_data, .-skip_input_data
	.align 2
	.globl jpeg_stdio_src
	.type	jpeg_stdio_src, @function
jpeg_stdio_src:
.LFB4:
	.loc 1 175 0
	.cfi_startproc
.LVL14:
	mflr 0
	stwu 1,-24(1)
.LCFI4:
	.cfi_def_cfa_offset 24
	.cfi_register 65, 0
	stw 30,16(1)
	mr 30,4
	.cfi_offset 30, -8
	stw 31,20(1)
	mr 31,3
	.cfi_offset 31, -4
	stw 0,28(1)
	stw 29,12(1)
	.loc 1 185 0
	lwz 9,20(3)
	cmpwi 7,9,0
	beq- 7,.L13
	.cfi_offset 29, -12
	.cfi_offset 65, 4
.LVL15:
.L12:
	.loc 1 196 0
	lis 11,init_source@ha
	.loc 1 202 0
	li 0,0
	.loc 1 196 0
	la 11,init_source@l(11)
	.loc 1 201 0
	stw 30,28(9)
	.loc 1 196 0
	stw 11,8(9)
	.loc 1 197 0
	lis 11,fill_input_buffer@ha
	la 11,fill_input_buffer@l(11)
	.loc 1 202 0
	stw 0,4(9)
	.loc 1 197 0
	stw 11,12(9)
	.loc 1 198 0
	lis 11,skip_input_data@ha
	la 11,skip_input_data@l(11)
	.loc 1 203 0
	stw 0,0(9)
	.loc 1 198 0
	stw 11,16(9)
	.loc 1 199 0
	lis 11,jpeg_resync_to_restart@ha
	la 11,jpeg_resync_to_restart@l(11)
	stw 11,20(9)
	.loc 1 200 0
	lis 11,term_source@ha
	la 11,term_source@l(11)
	stw 11,24(9)
	.loc 1 204 0
	lwz 0,28(1)
	lwz 29,12(1)
	mtlr 0
	lwz 30,16(1)
.LVL16:
	lwz 31,20(1)
.LVL17:
	addi 1,1,24
	.cfi_remember_state
.LCFI5:
	.cfi_def_cfa_offset 0
	.cfi_restore 31
	.cfi_restore 30
	.cfi_restore 29
	blr
.LVL18:
.L13:
.LCFI6:
	.cfi_restore_state
	.loc 1 187 0
	lwz 9,4(3)
	li 4,0
.LVL19:
	li 5,40
	lwz 0,0(9)
	mtctr 0
	bctrl
.LVL20:
	.loc 1 191 0
	lwz 9,4(31)
	.loc 1 186 0
	stw 3,20(31)
	.loc 1 187 0
	mr 29,3
.LVL21:
	.loc 1 191 0
	li 4,0
	mr 3,31
.LVL22:
	lwz 0,0(9)
	li 5,4096
	mtctr 0
	bctrl
	.loc 1 190 0
	stw 3,32(29)
	lwz 9,20(31)
	b .L12
	.cfi_endproc
.LFE4:
	.size	jpeg_stdio_src, .-jpeg_stdio_src
.Letext0:
	.file 2 "c:\\utils\\devkitpro\\devkitppc\\bin\\../lib/gcc/powerpc-eabi/4.6.3/include/stddef.h"
	.file 3 "d:/Data/Nintendo/DoomGX/src/renderer/jpeg-6/jpeglib.h"
	.file 4 "d:/Data/Nintendo/DoomGX/src/renderer/jpeg-6/../jpeg-6/jmorecfg.h"