	.file	"jdcolor.c.c"
	.section	".text"
.Ltext0:
	.cfi_sections	.debug_frame
	.align 2
	.type	build_ycc_rgb_table, @function
build_ycc_rgb_table:
.LFB0:
	.file 1 "d:/Data/Nintendo/DoomGX/src/renderer/jpeg-6/jdcolor.c.c"
	.loc 1 71 0
	.cfi_startproc
.LVL0:
	mflr 0
	stwu 1,-16(1)
.LCFI0:
	.cfi_def_cfa_offset 16
	.cfi_register 65, 0
	.loc 1 78 0
	li 4,1
	li 5,1024
	.loc 1 71 0
	stw 30,8(1)
	mr 30,3
	.cfi_offset 30, -8
	stw 0,20(1)
	stw 31,12(1)
	.loc 1 78 0
	lwz 9,4(3)
	.loc 1 72 0
	lwz 31,416(3)
	.cfi_offset 31, -4
	.cfi_offset 65, 4
.LVL1:
	.loc 1 78 0
	lwz 0,0(9)
	mtctr 0
	bctrl
.LVL2:
	.loc 1 81 0
	li 4,1
	.loc 1 77 0
	stw 3,8(31)
	.loc 1 81 0
	li 5,1024
	mr 3,30
	lwz 9,4(30)
	lwz 0,0(9)
	mtctr 0
	bctrl
	.loc 1 84 0
	li 4,1
	.loc 1 80 0
	stw 3,12(31)
	.loc 1 84 0
	li 5,1024
	mr 3,30
	lwz 9,4(30)
	lwz 0,0(9)
	mtctr 0
	bctrl
	.loc 1 87 0
	li 4,1
	.loc 1 83 0
	stw 3,16(31)
	.loc 1 87 0
	li 5,1024
	mr 3,30
	lwz 9,4(30)
	lwz 0,0(9)
	mtctr 0
	bctrl
	.loc 1 86 0
	li 0,256
	lis 7,0x2c
	lis 8,0x5b
	lis 10,0xff1d
	lis 11,0xff4d
	stw 3,20(31)
.LVL3:
	mtctr 0
	ori 7,7,36096
	ori 8,8,26880
	ori 10,10,44800
	ori 11,11,2944
	li 9,0
.LVL4:
.L2:
	.loc 1 94 0 discriminator 2
	lwz 6,8(31)
	.loc 1 95 0 discriminator 2
	srawi 0,11,16
	.loc 1 103 0 discriminator 2
	addis 11,11,0x1
	.loc 1 94 0 discriminator 2
	stwx 0,6,9
	.loc 1 98 0 discriminator 2
	srawi 0,10,16
	.loc 1 103 0 discriminator 2
	addis 10,10,0x2
	addi 11,11,26345
	.loc 1 97 0 discriminator 2
	lwz 6,12(31)
	.loc 1 103 0 discriminator 2
	addi 10,10,-14942
	.loc 1 97 0 discriminator 2
	stwx 0,6,9
	.loc 1 103 0 discriminator 2
	addis 6,8,0xffff
	.loc 1 100 0 discriminator 2
	lwz 5,16(31)
	stwx 8,5,9
	.loc 1 103 0 discriminator 2
	lwz 8,20(31)
	stwx 7,8,9
	addi 8,6,18734
	addi 9,9,4
	addi 7,7,-22554
	.loc 1 90 0 discriminator 2
	bdnz .L2
	.loc 1 105 0
	lwz 0,20(1)
	lwz 30,8(1)
.LVL5:
	mtlr 0
	lwz 31,12(1)
.LVL6:
	addi 1,1,16
.LCFI1:
	.cfi_def_cfa_offset 0
	.cfi_restore 31
	.cfi_restore 30
	blr
	.cfi_endproc
.LFE0:
	.size	build_ycc_rgb_table, .-build_ycc_rgb_table
	.align 2
	.type	ycc_rgb_convert, @function
ycc_rgb_convert:
.LFB1:
	.loc 1 123 0
	.cfi_startproc
.LVL7:
	stwu 1,-48(1)
.LCFI2:
	.cfi_def_cfa_offset 48
	.loc 1 138 0
	addic. 7,7,-1
.LVL8:
	.loc 1 135 0
	slwi 5,5,2
.LVL9:
	.loc 1 123 0
	stw 23,12(1)
	.loc 1 120 0
	addi 23,6,-4
	.cfi_offset 23, -36
	.loc 1 123 0
	stw 24,16(1)
	stw 25,20(1)
	stw 26,24(1)
	stw 27,28(1)
	stw 28,32(1)
	stw 29,36(1)
	stw 30,40(1)
	stw 31,44(1)
	.loc 1 124 0
	lwz 9,416(3)
.LVL10:
	.loc 1 129 0
	lwz 0,92(3)
.LVL11:
	.loc 1 131 0
	lwz 11,284(3)
.LVL12:
	.loc 1 133 0
	lwz 8,12(9)
	.loc 1 144 0
	cmpwi 7,0,0
	.loc 1 132 0
	lwz 3,8(9)
.LVL13:
	.loc 1 134 0
	lwz 10,16(9)
.LVL14:
	.loc 1 135 0
	lwz 9,20(9)
.LVL15:
	.loc 1 138 0
	blt- 0,.L11
	.cfi_offset 31, -4
	.cfi_offset 30, -8
	.cfi_offset 29, -12
	.cfi_offset 28, -16
	.cfi_offset 27, -20
	.cfi_offset 26, -24
	.cfi_offset 25, -28
	.cfi_offset 24, -32
.L9:
	.loc 1 139 0
	lwz 30,0(4)
	.loc 1 140 0
	lwz 31,4(4)
	.loc 1 141 0
	lwz 6,8(4)
	.loc 1 139 0
	lwzx 26,30,5
.LVL16:
	.loc 1 140 0
	lwzx 25,31,5
.LVL17:
	.loc 1 141 0
	lwzx 24,6,5
.LVL18:
	.loc 1 143 0
	lwzu 12,4(23)
.LVL19:
	.loc 1 144 0
	beq- 7,.L7
.LVL20:
	mtctr 0
	li 6,0
.LVL21:
.L8:
	.loc 1 147 0 discriminator 2
	lbzx 29,24,6
	.loc 1 145 0 discriminator 2
	lbzx 31,26,6
.LVL22:
	.loc 1 149 0 discriminator 2
	slwi 29,29,2
	.loc 1 146 0 discriminator 2
	lbzx 30,25,6
.LVL23:
	.loc 1 149 0 discriminator 2
	lwzx 28,3,29
	.loc 1 144 0 discriminator 2
	addi 6,6,1
	.loc 1 151 0 discriminator 2
	slwi 30,30,2
.LVL24:
	.loc 1 149 0 discriminator 2
	add 28,11,28
	lbzx 28,28,31
	stb 28,0(12)
	.loc 1 150 0 discriminator 2
	add 28,11,31
	.loc 1 151 0 discriminator 2
	lwzx 27,9,30
	lwzx 29,10,29
	add 29,27,29
	srawi 29,29,16
	.loc 1 150 0 discriminator 2
	lbzx 29,28,29
	stb 29,1(12)
	.loc 1 153 0 discriminator 2
	lwzx 30,8,30
	add 30,11,30
	lbzx 31,30,31
.LVL25:
	stb 31,2(12)
	.loc 1 154 0 discriminator 2
	addi 12,12,4
.LVL26:
	.loc 1 144 0 discriminator 2
	bdnz .L8
.LVL27:
.L7:
	.loc 1 138 0
	addic. 7,7,-1
	.loc 1 144 0
	addi 5,5,4
.LVL28:
	.loc 1 138 0
	bge+ 0,.L9
.LVL29:
.L11:
	.loc 1 157 0
	lwz 23,12(1)
	lwz 24,16(1)
	lwz 25,20(1)
	lwz 26,24(1)
	lwz 27,28(1)
	lwz 28,32(1)
	lwz 29,36(1)
	lwz 30,40(1)
	lwz 31,44(1)
	addi 1,1,48
.LCFI3:
	.cfi_def_cfa_offset 0
	.cfi_restore 31
	.cfi_restore 30
	.cfi_restore 29
	.cfi_restore 28
	.cfi_restore 27
	.cfi_restore 26
	.cfi_restore 25
	.cfi_restore 24
	.cfi_restore 23
	blr
	.cfi_endproc
.LFE1:
	.size	ycc_rgb_convert, .-ycc_rgb_convert
	.align 2
	.type	null_convert, @function
null_convert:
.LFB2:
	.loc 1 172 0
	.cfi_startproc
.LVL30:
	stwu 1,-16(1)
.LCFI4:
	.cfi_def_cfa_offset 16
	.loc 1 179 0
	addic. 7,7,-1
.LVL31:
	.loc 1 172 0
	stw 31,12(1)
	.loc 1 175 0
	lwz 10,32(3)
.LVL32:
	.loc 1 176 0
	lwz 31,92(3)
	.cfi_offset 31, -4
.LVL33:
	.loc 1 179 0
	blt- 0,.L12
.LVL34:
	slwi 3,5,2
.LVL35:
	cmpwi 1,10,0
	mulli 5,5,-4
.LVL36:
	cmpwi 6,31,0
.LVL37:
.L14:
	.loc 1 180 0 discriminator 1
	ble- 1,.L18
	.loc 1 169 0
	addi 12,4,-4
	li 8,0
.LVL38:
.L17:
	.loc 1 181 0
	lwzu 11,4(12)
	.loc 1 169 0
	add 9,6,5
	.loc 1 182 0
	lwzx 9,9,3
	.loc 1 181 0
	lwzx 11,11,3
.LVL39:
	.loc 1 183 0
	beq- 6,.L15
	.loc 1 169 0
	mtctr 31
	.loc 1 182 0
	add 9,9,8
.LVL40:
	.loc 1 169 0
	addi 11,11,-1
.LVL41:
.L16:
	.loc 1 184 0 discriminator 2
	lbzu 0,1(11)
	stb 0,0(9)
	.loc 1 185 0 discriminator 2
	add 9,9,10
.LVL42:
	.loc 1 183 0 discriminator 2
	bdnz .L16
.LVL43:
.L15:
	.loc 1 180 0
	addi 8,8,1
.LVL44:
	cmpw 7,8,10
	bne+ 7,.L17
.LVL45:
.L18:
	.loc 1 179 0
	cmpwi 7,7,0
	addi 3,3,4
	addi 7,7,-1
.LVL46:
	bne+ 7,.L14
.LVL47:
.L12:
	.loc 1 191 0
	lwz 31,12(1)
.LVL48:
	addi 1,1,16
.LCFI5:
	.cfi_def_cfa_offset 0
	.cfi_restore 31
	blr
	.cfi_endproc
.LFE2:
	.size	null_convert, .-null_convert
	.align 2
	.type	ycck_cmyk_convert, @function
ycck_cmyk_convert:
.LFB4:
	.loc 1 221 0
	.cfi_startproc
.LVL49:
	stwu 1,-48(1)
.LCFI6:
	.cfi_def_cfa_offset 48
	.loc 1 236 0
	addic. 7,7,-1
.LVL50:
	.loc 1 233 0
	slwi 5,5,2
.LVL51:
	.loc 1 221 0
	stw 24,16(1)
	.loc 1 218 0
	addi 24,6,-4
	.cfi_offset 24, -32
	.loc 1 221 0
	stw 23,12(1)
	stw 25,20(1)
	stw 26,24(1)
	stw 27,28(1)
	stw 28,32(1)
	stw 29,36(1)
	stw 30,40(1)
	stw 31,44(1)
	.loc 1 222 0
	lwz 9,416(3)
.LVL52:
	.loc 1 227 0
	lwz 0,92(3)
.LVL53:
	.loc 1 229 0
	lwz 11,284(3)
.LVL54:
	.loc 1 231 0
	lwz 8,12(9)
	.loc 1 243 0
	cmpwi 7,0,0
	.loc 1 230 0
	lwz 3,8(9)
.LVL55:
	.loc 1 232 0
	lwz 10,16(9)
.LVL56:
	.loc 1 233 0
	lwz 9,20(9)
.LVL57:
	.loc 1 236 0
	blt- 0,.L28
	.cfi_offset 31, -4
	.cfi_offset 30, -8
	.cfi_offset 29, -12
	.cfi_offset 28, -16
	.cfi_offset 27, -20
	.cfi_offset 26, -24
	.cfi_offset 25, -28
	.cfi_offset 23, -36
.L26:
	.loc 1 237 0
	lwz 29,0(4)
	.loc 1 238 0
	lwz 30,4(4)
	.loc 1 239 0
	lwz 31,8(4)
	.loc 1 240 0
	lwz 6,12(4)
	.loc 1 237 0
	lwzx 28,29,5
.LVL58:
	.loc 1 238 0
	lwzx 27,30,5
.LVL59:
	.loc 1 239 0
	lwzx 26,31,5
.LVL60:
	.loc 1 240 0
	lwzx 25,6,5
.LVL61:
	.loc 1 242 0
	lwzu 12,4(24)
.LVL62:
	.loc 1 243 0
	beq- 7,.L24
	mtctr 0
	li 6,0
.LVL63:
.L25:
	.loc 1 246 0 discriminator 2
	lbzx 29,26,6
	.loc 1 244 0 discriminator 2
	lbzx 31,28,6
.LVL64:
	.loc 1 248 0 discriminator 2
	slwi 29,29,2
	.loc 1 245 0 discriminator 2
	lbzx 30,27,6
.LVL65:
	.loc 1 248 0 discriminator 2
	lwzx 23,3,29
	.loc 1 250 0 discriminator 2
	slwi 30,30,2
.LVL66:
	.loc 1 248 0 discriminator 2
	add 23,31,23
	subfic 23,23,255
	lbzx 23,11,23
	stb 23,0(12)
	.loc 1 250 0 discriminator 2
	lwzx 23,9,30
	lwzx 29,10,29
	add 29,23,29
	srawi 29,29,16
	.loc 1 249 0 discriminator 2
	add 29,29,31
	subfic 29,29,255
	lbzx 29,11,29
	stb 29,1(12)
	.loc 1 252 0 discriminator 2
	lwzx 30,8,30
	add 31,31,30
.LVL67:
	subfic 31,31,255
	lbzx 31,11,31
	stb 31,2(12)
	.loc 1 254 0 discriminator 2
	lbzx 31,25,6
	.loc 1 243 0 discriminator 2
	addi 6,6,1
	.loc 1 254 0 discriminator 2
	stb 31,3(12)
	.loc 1 255 0 discriminator 2
	addi 12,12,4
.LVL68:
	.loc 1 243 0 discriminator 2
	bdnz .L25
.LVL69:
.L24:
	.loc 1 236 0
	addic. 7,7,-1
	.loc 1 243 0
	addi 5,5,4
.LVL70:
	.loc 1 236 0
	bge+ 0,.L26
.LVL71:
.L28:
	.loc 1 258 0
	lwz 23,12(1)
	lwz 24,16(1)
	lwz 25,20(1)
	lwz 26,24(1)
	lwz 27,28(1)
	lwz 28,32(1)
	lwz 29,36(1)
	lwz 30,40(1)
	lwz 31,44(1)
	addi 1,1,48
.LCFI7:
	.cfi_def_cfa_offset 0
	.cfi_restore 31
	.cfi_restore 30
	.cfi_restore 29
	.cfi_restore 28
	.cfi_restore 27
	.cfi_restore 26
	.cfi_restore 25
	.cfi_restore 24
	.cfi_restore 23
	blr
	.cfi_endproc
.LFE4:
	.size	ycck_cmyk_convert, .-ycck_cmyk_convert
	.align 2
	.type	start_pass_dcolor, @function
start_pass_dcolor:
.LFB5:
	.loc 1 267 0
	.cfi_startproc
.LVL72:
	.loc 1 269 0
	blr
	.cfi_endproc
.LFE5:
	.size	start_pass_dcolor, .-start_pass_dcolor
	.align 2
	.type	grayscale_convert, @function
grayscale_convert:
.LFB3:
	.loc 1 204 0
	.cfi_startproc
.LVL73:
	mflr 0
	stwu 1,-8(1)
.LCFI8:
	.cfi_def_cfa_offset 8
	.cfi_register 65, 0
	stw 0,12(1)
	.loc 1 205 0
	lwz 8,92(3)
	lwz 3,0(4)
.LVL74:
	mr 4,5
.LVL75:
	mr 5,6
.LVL76:
	li 6,0
.LVL77:
	.cfi_offset 65, 4
	bl jcopy_sample_rows
.LVL78:
	.loc 1 207 0
	lwz 0,12(1)
	addi 1,1,8
.LCFI9:
	.cfi_def_cfa_offset 0
	mtlr 0
	blr
	.cfi_endproc
.LFE3:
	.size	grayscale_convert, .-grayscale_convert
	.align 2
	.globl jinit_color_deconverter
	.type	jinit_color_deconverter, @function
jinit_color_deconverter:
.LFB6:
	.loc 1 278 0
	.cfi_startproc
.LVL79:
	mflr 0
	stwu 1,-16(1)
.LCFI10:
	.cfi_def_cfa_offset 16
	.cfi_register 65, 0
	.loc 1 282 0
	li 4,1
	li 5,24
	.loc 1 278 0
	stw 30,8(1)
	stw 31,12(1)
	mr 31,3
	.cfi_offset 31, -4
	.cfi_offset 30, -8
	stw 0,20(1)
	.loc 1 283 0
	lwz 9,4(3)
	.loc 1 282 0
	lwz 0,0(9)
	.cfi_offset 65, 4
	mtctr 0
	bctrl
.LVL80:
	.loc 1 286 0
	lis 9,start_pass_dcolor@ha
	la 0,start_pass_dcolor@l(9)
	.loc 1 285 0
	stw 3,416(31)
	.loc 1 286 0
	stw 0,0(3)
	.loc 1 282 0
	mr 30,3
.LVL81:
	.loc 1 289 0
	lwz 0,36(31)
	cmplwi 7,0,5
	ble- 7,.L56
.L32:
	.loc 1 308 0
	lwz 9,32(31)
	cmpwi 7,9,0
	ble- 7,.L54
.L37:
	.loc 1 318 0
	lwz 9,40(31)
	cmpwi 7,9,2
	beq- 7,.L40
.LVL82:
.L60:
	cmpwi 7,9,4
	beq- 7,.L41
	cmpwi 7,9,1
	beq- 7,.L57
	.loc 1 355 0
	cmpw 7,9,0
	beq- 7,.L58
.L49:
	.loc 1 359 0
	lwz 9,0(31)
	li 0,23
	mr 3,31
	stw 0,20(9)
	lwz 9,0(31)
	lwz 0,0(9)
	mtctr 0
	bctrl
.L44:
	.loc 1 363 0
	lbz 0,74(31)
	cmpwi 7,0,0
	bne- 7,.L59
.L50:
	.loc 1 366 0
	lwz 0,100(31)
	stw 0,104(31)
	.loc 1 367 0
	lwz 0,20(1)
	lwz 30,8(1)
.LVL83:
	mtlr 0
	lwz 31,12(1)
.LVL84:
	addi 1,1,16
	.cfi_remember_state
.LCFI11:
	.cfi_def_cfa_offset 0
	.cfi_restore 31
	.cfi_restore 30
	blr
.LVL85:
.L56:
.LCFI12:
	.cfi_restore_state
	.loc 1 289 0
	lis 9,.L36@ha
	slwi 11,0,2
	la 9,.L36@l(9)
	lwzx 11,9,11
	add 9,11,9
	mtctr 9
	bctr
	.section	.rodata
	.align 2
	.align 2
.L36:
	.long .L32-.L36
	.long .L33-.L36
	.long .L34-.L36
	.long .L34-.L36
	.long .L35-.L36
	.long .L35-.L36
	.section	".text"
.LVL86:
.L57:
	.loc 1 321 0
	cmpwi 7,0,1
	.loc 1 320 0
	stw 9,100(31)
	.loc 1 321 0
	beq- 7,.L42
	.loc 1 321 0 is_stmt 0 discriminator 1
	cmpwi 7,0,3
	bne- 7,.L49
.L42:
	.loc 1 323 0 is_stmt 1
	lis 9,grayscale_convert@ha
	la 0,grayscale_convert@l(9)
	stw 0,4(30)
.LVL87:
	.loc 1 325 0
	lwz 0,32(31)
	cmpwi 7,0,1
	ble- 7,.L44
	li 11,84
	li 9,1
	.loc 1 326 0
	li 8,0
.LVL88:
.L45:
	.loc 1 326 0 is_stmt 0 discriminator 2
	lwz 10,196(31)
	.loc 1 325 0 is_stmt 1 discriminator 2
	addi 9,9,1
.LVL89:
	.loc 1 326 0 discriminator 2
	add 10,10,11
	.loc 1 325 0 discriminator 2
	addi 11,11,84
	.loc 1 326 0 discriminator 2
	stb 8,48(10)
	.loc 1 325 0 discriminator 2
	lwz 0,32(31)
	cmpw 7,0,9
	bgt+ 7,.L45
	.loc 1 363 0
	lbz 0,74(31)
	cmpwi 7,0,0
	beq+ 7,.L50
.LVL90:
.L59:
	.loc 1 364 0
	li 0,1
	stw 0,104(31)
	.loc 1 367 0
	lwz 0,20(1)
	lwz 30,8(1)
.LVL91:
	mtlr 0
	lwz 31,12(1)
.LVL92:
	addi 1,1,16
	.cfi_remember_state
	.cfi_restore 30
	.cfi_restore 31
.LCFI13:
	.cfi_def_cfa_offset 0
	blr
.LVL93:
.L35:
.LCFI14:
	.cfi_restore_state
	.loc 1 303 0
	lwz 9,32(31)
	cmpwi 7,9,4
	beq- 7,.L37
.L54:
	.loc 1 309 0
	lwz 9,0(31)
	li 0,8
	mr 3,31
.LVL94:
	stw 0,20(9)
	lwz 9,0(31)
	lwz 0,0(9)
	mtctr 0
	bctrl
	lwz 0,36(31)
.L61:
	.loc 1 318 0
	lwz 9,40(31)
	cmpwi 7,9,2
	bne+ 7,.L60
.L40:
	.loc 1 333 0
	cmpwi 7,0,3
	.loc 1 332 0
	li 0,4
	stw 0,100(31)
	.loc 1 333 0
	bne+ 7,.L49
	.loc 1 334 0
	lis 9,ycc_rgb_convert@ha
	.loc 1 335 0
	mr 3,31
	.loc 1 334 0
	la 0,ycc_rgb_convert@l(9)
	stw 0,4(30)
	.loc 1 335 0
	bl build_ycc_rgb_table
	b .L44
.L34:
	.loc 1 297 0
	lwz 9,32(31)
	cmpwi 7,9,3
	beq- 7,.L37
	.loc 1 309 0
	lwz 9,0(31)
	li 0,8
	mr 3,31
	stw 0,20(9)
	lwz 9,0(31)
	lwz 0,0(9)
	mtctr 0
	bctrl
	lwz 0,36(31)
	b .L61
.L33:
	.loc 1 291 0
	lwz 9,32(31)
	cmpwi 7,9,1
	beq- 7,.L37
	.loc 1 309 0
	lwz 9,0(31)
	li 0,8
	mr 3,31
	stw 0,20(9)
	lwz 9,0(31)
	lwz 0,0(9)
	mtctr 0
	bctrl
	lwz 0,36(31)
	b .L61
.L41:
	.loc 1 344 0
	cmpwi 7,0,5
	.loc 1 343 0
	stw 9,100(31)
	.loc 1 344 0
	beq- 7,.L62
	.loc 1 347 0
	cmpwi 7,0,4
	bne- 7,.L49
	.loc 1 357 0
	lis 9,null_convert@ha
	la 0,null_convert@l(9)
	stw 0,4(30)
	b .L44
.L58:
	.loc 1 356 0
	lwz 0,32(31)
	.loc 1 357 0
	lis 9,null_convert@ha
	.loc 1 356 0
	stw 0,100(31)
	.loc 1 357 0
	la 0,null_convert@l(9)
	stw 0,4(30)
	b .L44
.L62:
	.loc 1 345 0
	lis 9,ycck_cmyk_convert@ha
	.loc 1 346 0
	mr 3,31
	.loc 1 345 0
	la 0,ycck_cmyk_convert@l(9)
	stw 0,4(30)
	.loc 1 346 0
	bl build_ycc_rgb_table
	b .L44
	.cfi_endproc
.LFE6:
	.size	jinit_color_deconverter, .-jinit_color_deconverter
.Letext0:
	.file 2 "c:\\utils\\devkitpro\\devkitppc\\bin\\../lib/gcc/powerpc-eabi/4.6.3/include/stddef.h"
	.file 3 "d:/Data/Nintendo/DoomGX/src/renderer/jpeg-6/jpeglib.h"
	.file 4 "d:/Data/Nintendo/DoomGX/src/renderer/jpeg-6/../jpeg-6/jmorecfg.h"
	.file 5 "d:/Data/Nintendo/DoomGX/src/renderer/jpeg-6/../jpeg-6/jpegint.h"
	.file 6 "d:/Data/Nintendo/DoomGX/src/renderer/jpeg-6/../jpeg-6/jerror.h"