	.file	"jdhuff.c.c"
	.section	".text"
.Ltext0:
	.cfi_sections	.debug_frame
	.align 2
	.globl jpeg_make_d_derived_tbl
	.type	jpeg_make_d_derived_tbl, @function
jpeg_make_d_derived_tbl:
.LFB1:
	.file 1 "d:/Data/Nintendo/DoomGX/src/renderer/jpeg-6/jdhuff.c.c"
	.loc 1 130 0
	.cfi_startproc
.LVL0:
	mflr 0
	stwu 1,-1320(1)
.LCFI0:
	.cfi_def_cfa_offset 1320
	.cfi_register 65, 0
	stw 29,1308(1)
	mr 29,5
	.cfi_offset 29, -12
	stw 30,1312(1)
	mr 30,4
	.cfi_offset 30, -8
	stw 0,1324(1)
	stw 31,1316(1)
	.loc 1 139 0
	lwz 31,0(5)
	.cfi_offset 31, -4
	.cfi_offset 65, 4
	cmpwi 7,31,0
	bne+ 7,.L2
	.loc 1 141 0
	lwz 9,4(3)
	li 4,1
.LVL1:
	li 5,1492
.LVL2:
	lwz 0,0(9)
	mtctr 0
	bctrl
.LVL3:
	.loc 1 140 0
	stw 3,0(29)
	.loc 1 141 0
	mr 31,3
.L2:
.LVL4:
	.loc 1 144 0
	stw 30,208(31)
.LVL5:
	.loc 1 150 0
	li 10,1
	.loc 1 149 0
	li 11,0
.LVL6:
.L3:
	.loc 1 151 0 discriminator 1
	lbzx 8,30,10
	cmpwi 7,8,0
	beq- 7,.L6
	.loc 1 128 0
	addi 0,1,7
	addi 9,11,-1
	add 7,11,0
	addi 0,1,8
	add 9,0,9
	add 7,7,8
	subf 7,9,7
	.loc 1 151 0
	rlwinm 0,10,0,0xff
	.loc 1 128 0
	mtctr 7
.LVL7:
.L4:
	.loc 1 152 0 discriminator 2
	stbu 0,1(9)
	.loc 1 151 0 discriminator 2
	bdnz .L4
	.loc 1 128 0
	add 11,11,8
.L6:
.LVL8:
	.loc 1 150 0
	cmpwi 7,10,16
	addi 10,10,1
.LVL9:
	bne+ 7,.L3
	.loc 1 154 0
	li 0,0
	add 11,1,11
.LVL10:
	stb 0,8(11)
.LVL11:
	.loc 1 160 0
	lbz 0,8(1)
.LVL12:
	.loc 1 162 0
	cmpwi 7,0,0
	beq- 7,.L7
	.loc 1 160 0
	mr 5,0
	.loc 1 159 0
	li 9,0
	.loc 1 161 0
	li 11,0
.LVL13:
.L8:
	.loc 1 163 0 discriminator 1
	cmpw 6,0,5
	mr 7,0
	bne- 6,.L10
	.loc 1 128 0
	addi 10,11,-1
	addi 8,1,268
	slwi 10,10,2
	subf 6,9,11
	add 10,8,10
.L9:
	addi 0,1,8
	.loc 1 164 0
	stwu 9,4(10)
	.loc 1 128 0
	add 8,0,6
	.loc 1 165 0
	addi 9,9,1
.LVL14:
	.loc 1 163 0
	lbzx 0,8,9
	.loc 1 164 0
	addi 11,11,1
.LVL15:
	.loc 1 163 0
	cmpw 7,0,7
	beq+ 7,.L9
	cmpwi 7,0,0
.L10:
	.loc 1 167 0
	slwi 9,9,1
.LVL16:
	.loc 1 168 0
	addi 5,5,1
.LVL17:
	.loc 1 162 0
	bne+ 7,.L8
.LVL18:
.L7:
	.loc 1 177 0
	li 7,16
	.loc 1 208 0
	mr 9,31
	.loc 1 161 0
	li 10,1
	li 11,0
	.loc 1 181 0
	li 0,-1
	.loc 1 177 0
	mtctr 7
	b .L13
.LVL19:
.L30:
	lwz 8,260(8)
	.loc 1 179 0
	addi 7,1,8
	.loc 1 176 0
	stw 11,144(9)
	.loc 1 177 0
	stw 8,4(9)
	.loc 1 178 0
	lbzx 8,30,10
	.loc 1 174 0
	addi 10,10,1
	.loc 1 178 0
	add 11,11,8
.LVL20:
	.loc 1 179 0
	addi 8,11,-1
	slwi 8,8,2
	add 8,7,8
	lwz 8,260(8)
	stw 8,72(9)
.LVL21:
	.loc 1 174 0
	addi 9,9,4
	bdz .L29
.LVL22:
.L13:
	.loc 1 177 0
	addi 7,1,8
	slwi 8,11,2
	add 8,7,8
	.loc 1 175 0
	lbzx 7,30,10
	cmpwi 7,7,0
	bne- 7,.L30
	.loc 1 181 0
	stw 0,72(9)
.LVL23:
	.loc 1 174 0
	addi 10,10,1
.LVL24:
	addi 9,9,4
	bdnz .L13
.L29:
	.loc 1 184 0
	lis 0,0xf
	.loc 1 193 0
	addi 3,31,212
	.loc 1 184 0
	ori 0,0,65535
	.loc 1 193 0
	li 4,0
	.loc 1 184 0
	stw 0,136(31)
	.loc 1 193 0
	li 5,1024
	bl memset
.LVL25:
	.loc 1 196 0
	li 8,1
	.loc 1 195 0
	li 6,0
	.loc 1 128 0
	li 12,1
.LVL26:
.L14:
	.loc 1 197 0 discriminator 1
	lbzx 0,30,8
	cmpwi 7,0,0
	beq- 7,.L19
	.loc 1 128 0
	addi 4,6,-1
	subfic 3,8,8
	slwi 4,4,2
	addi 0,1,268
	slw. 29,12,3
	add 4,0,4
	li 5,1
.LVL27:
.L17:
	.loc 1 200 0
	lwzu 9,4(4)
	.loc 1 201 0
	ble- 0,.L15
	.loc 1 200 0
	slw 9,9,3
	mtctr 29
	.loc 1 128 0
	addi 11,9,51
	add 7,30,6
	slwi 11,11,2
	add 11,31,11
	addi 11,11,4
.LVL28:
.L16:
	.loc 1 202 0 discriminator 2
	stwu 8,4(11)
	.loc 1 128 0 discriminator 2
	add 10,31,9
	.loc 1 204 0 discriminator 2
	addi 9,9,1
.LVL29:
	.loc 1 203 0 discriminator 2
	lbz 0,17(7)
	stb 0,1236(10)
	.loc 1 201 0 discriminator 2
	bdnz .L16
.LVL30:
.L15:
	.loc 1 197 0
	lbzx 0,30,8
	addi 5,5,1
.LVL31:
	addi 6,6,1
.LVL32:
	cmpw 7,0,5
	bge+ 7,.L17
.LVL33:
.L19:
	.loc 1 196 0
	cmpwi 7,8,8
	addi 8,8,1
.LVL34:
	bne+ 7,.L14
	.loc 1 208 0
	lwz 0,1324(1)
	lwz 29,1308(1)
	mtlr 0
	lwz 30,1312(1)
.LVL35:
	lwz 31,1316(1)
.LVL36:
	addi 1,1,1320
.LCFI1:
	.cfi_def_cfa_offset 0
	.cfi_restore 31
	.cfi_restore 30
	.cfi_restore 29
	blr
	.cfi_endproc
.LFE1:
	.size	jpeg_make_d_derived_tbl, .-jpeg_make_d_derived_tbl
	.align 2
	.type	start_pass_huff_decoder, @function
start_pass_huff_decoder:
.LFB0:
	.loc 1 78 0
	.cfi_startproc
.LVL37:
	mflr 0
	stwu 1,-56(1)
.LCFI2:
	.cfi_def_cfa_offset 56
	.cfi_register 65, 0
	stw 31,52(1)
	mr 31,3
	.cfi_offset 31, -4
	stw 0,60(1)
	stw 21,12(1)
	stw 22,16(1)
	stw 23,20(1)
	stw 24,24(1)
	stw 25,28(1)
	stw 26,32(1)
	stw 27,36(1)
	stw 28,40(1)
	stw 29,44(1)
	stw 30,48(1)
	.loc 1 87 0
	lwz 0,360(3)
	.cfi_offset 30, -8
	.cfi_offset 29, -12
	.cfi_offset 28, -16
	.cfi_offset 27, -20
	.cfi_offset 26, -24
	.cfi_offset 25, -28
	.cfi_offset 24, -32
	.cfi_offset 23, -36
	.cfi_offset 22, -40
	.cfi_offset 21, -44
	.cfi_offset 65, 4
	.loc 1 79 0
	lwz 29,404(3)
.LVL38:
	.loc 1 87 0
	cmpwi 7,0,0
	bne- 7,.L32
	.loc 1 87 0 is_stmt 0 discriminator 1
	lwz 0,364(3)
	cmpwi 7,0,63
	beq- 7,.L45
.L32:
	.loc 1 89 0 is_stmt 1
	lwz 9,0(31)
	li 0,116
	mr 3,31
.LVL39:
	li 4,-1
	stw 0,20(9)
	lwz 9,0(31)
	lwz 0,4(9)
	mtctr 0
	bctrl
.LVL40:
.L33:
	.loc 1 91 0 discriminator 1
	lwz 0,288(31)
	cmpwi 7,0,0
	ble- 7,.L34
	.loc 1 77 0
	addi 25,31,288
	addi 26,29,16
	li 27,0
	.loc 1 98 0
	li 23,47
	.loc 1 109 0
	li 24,0
.LVL41:
.L39:
	.loc 1 92 0
	lwzu 9,4(25)
.LVL42:
	.loc 1 93 0
	lwz 22,20(9)
.LVL43:
	.loc 1 94 0
	lwz 30,24(9)
.LVL44:
	.loc 1 96 0
	cmplwi 7,22,3
	.loc 1 97 0
	addi 21,22,40
	slwi 0,21,2
	.loc 1 96 0
	bgt- 7,.L35
	.loc 1 96 0 is_stmt 0 discriminator 1
	lwzx 0,31,0
	cmpwi 7,0,0
	beq- 7,.L35
.LVL45:
.L36:
	.loc 1 99 0 is_stmt 1
	cmplwi 7,30,3
	.loc 1 100 0
	addi 28,30,44
	slwi 0,28,2
	.loc 1 99 0
	bgt- 7,.L37
	.loc 1 99 0 is_stmt 0 discriminator 1
	lwzx 0,31,0
	cmpwi 7,0,0
	beq- 7,.L37
.L38:
	.loc 1 104 0 is_stmt 1
	addi 5,22,8
	slwi 21,21,2
	slwi 5,5,2
	lwzx 4,31,21
	add 5,29,5
	mr 3,31
	addi 5,5,8
	.loc 1 106 0
	slwi 28,28,2
	.loc 1 104 0
	bl jpeg_make_d_derived_tbl
	.loc 1 106 0
	addi 5,30,12
	slwi 5,5,2
	lwzx 4,31,28
	add 5,29,5
	mr 3,31
	addi 5,5,8
	.loc 1 91 0
	addi 27,27,1
	.loc 1 106 0
	bl jpeg_make_d_derived_tbl
.LVL46:
	.loc 1 109 0
	stwu 24,4(26)
	.loc 1 91 0
	lwz 0,288(31)
	cmpw 7,0,27
	bgt+ 7,.L39
.LVL47:
.L34:
	.loc 1 113 0
	li 0,0
	stw 0,12(29)
	.loc 1 114 0
	stw 0,8(29)
	.loc 1 115 0
	stb 0,16(29)
	.loc 1 118 0
	lwz 0,252(31)
	stw 0,36(29)
	.loc 1 119 0
	lwz 0,60(1)
	lwz 21,12(1)
	mtlr 0
	lwz 22,16(1)
	lwz 23,20(1)
	lwz 24,24(1)
	lwz 25,28(1)
	lwz 26,32(1)
	lwz 27,36(1)
	lwz 28,40(1)
	lwz 29,44(1)
.LVL48:
	lwz 30,48(1)
	lwz 31,52(1)
.LVL49:
	addi 1,1,56
	.cfi_remember_state
.LCFI3:
	.cfi_def_cfa_offset 0
	.cfi_restore 31
	.cfi_restore 30
	.cfi_restore 29
	.cfi_restore 28
	.cfi_restore 27
	.cfi_restore 26
	.cfi_restore 25
	.cfi_restore 24
	.cfi_restore 23
	.cfi_restore 22
	.cfi_restore 21
	blr
.LVL50:
.L37:
.LCFI4:
	.cfi_restore_state
	.loc 1 101 0
	lwz 9,0(31)
	mr 3,31
	stw 23,20(9)
	lwz 9,0(31)
	stw 30,24(9)
	lwz 9,0(31)
	lwz 0,0(9)
	mtctr 0
	bctrl
	b .L38
.LVL51:
.L35:
	.loc 1 98 0
	lwz 9,0(31)
.LVL52:
	mr 3,31
	stw 23,20(9)
	lwz 9,0(31)
	stw 22,24(9)
	lwz 9,0(31)
	lwz 0,0(9)
	mtctr 0
	bctrl
.LVL53:
	b .L36
.LVL54:
.L45:
	.loc 1 87 0 discriminator 1
	lwz 0,368(3)
	cmpwi 7,0,0
	bne- 7,.L32
	.loc 1 88 0
	lwz 0,372(3)
	cmpwi 7,0,0
	beq- 7,.L33
	b .L32
	.cfi_endproc
.LFE0:
	.size	start_pass_huff_decoder, .-start_pass_huff_decoder
	.align 2
	.globl jpeg_fill_bit_buffer
	.type	jpeg_fill_bit_buffer, @function
jpeg_fill_bit_buffer:
.LFB2:
	.loc 1 238 0
	.cfi_startproc
.LVL55:
	mflr 0
	stwu 1,-48(1)
.LCFI5:
	.cfi_def_cfa_offset 48
	.cfi_register 65, 0
	.loc 1 247 0
	cmpwi 7,5,24
	.loc 1 238 0
	stw 25,20(1)
	mr 25,6
	.cfi_offset 25, -28
	stw 29,36(1)
	mr 29,4
	.cfi_offset 29, -12
	stw 30,40(1)
	mr 30,3
	.cfi_offset 30, -8
	stw 31,44(1)
	mr 31,5
	.cfi_offset 31, -4
	stw 0,52(1)
	stw 23,12(1)
	stw 24,16(1)
	stw 26,24(1)
	stw 27,28(1)
	stw 28,32(1)
	.loc 1 240 0
	lwz 27,0(3)
	.cfi_offset 28, -16
	.cfi_offset 27, -20
	.cfi_offset 26, -24
	.cfi_offset 24, -32
	.cfi_offset 23, -36
	.cfi_offset 65, 4
.LVL56:
	.loc 1 241 0
	lwz 28,4(3)
.LVL57:
	.loc 1 247 0
	bgt- 7,.L47
.LVL58:
	.loc 1 294 0
	li 23,111
	.loc 1 295 0
	li 24,1
	b .L58
.LVL59:
.L64:
	.loc 1 252 0
	cmpwi 7,28,0
	beq- 7,.L63
.L49:
	.loc 1 259 0
	lbz 26,0(27)
	.loc 1 258 0
	addi 28,28,-1
.LVL60:
	.loc 1 259 0
	addi 27,27,1
.LVL61:
	.loc 1 262 0
	cmpwi 7,26,255
	beq- 7,.L59
.LVL62:
.L51:
	.loc 1 303 0
	addi 31,31,8
.LVL63:
	.loc 1 302 0
	slwi 29,29,8
.LVL64:
	.loc 1 247 0
	cmpwi 7,31,24
	.loc 1 302 0
	or 29,26,29
.LVL65:
	.loc 1 247 0
	bgt- 7,.L47
.LVL66:
.L58:
	.loc 1 249 0
	lwz 0,8(30)
	cmpwi 7,0,0
	beq- 7,.L64
.L48:
	.loc 1 285 0
	cmpw 7,25,31
	ble- 7,.L47
	.loc 1 293 0
	lwz 9,24(30)
	.loc 1 297 0
	li 26,0
	.loc 1 293 0
	lbz 0,0(9)
	cmpwi 7,0,0
	bne+ 7,.L51
	.loc 1 294 0
	lwz 9,20(30)
	li 4,-1
	.loc 1 303 0
	addi 31,31,8
.LVL67:
	.loc 1 302 0
	slwi 29,29,8
.LVL68:
	.loc 1 294 0
	lwz 9,0(9)
	.loc 1 302 0
	or 29,26,29
	.loc 1 294 0
	stw 23,20(9)
	lwz 3,20(30)
	lwz 9,0(3)
	lwz 0,4(9)
	mtctr 0
	bctrl
	.loc 1 247 0
	cmpwi 7,31,24
	.loc 1 295 0
	lwz 9,24(30)
	stb 24,0(9)
.LVL69:
	.loc 1 247 0
	ble+ 7,.L58
.LVL70:
.L47:
	.loc 1 307 0
	stw 27,0(30)
	.loc 1 312 0
	li 3,1
	.loc 1 308 0
	stw 28,4(30)
	.loc 1 309 0
	stw 29,12(30)
	.loc 1 310 0
	stw 31,16(30)
	.loc 1 313 0
	lwz 0,52(1)
	lwz 23,12(1)
	mtlr 0
	lwz 24,16(1)
	lwz 25,20(1)
.LVL71:
	lwz 26,24(1)
	lwz 27,28(1)
.LVL72:
	lwz 28,32(1)
.LVL73:
	lwz 29,36(1)
.LVL74:
	lwz 30,40(1)
.LVL75:
	lwz 31,44(1)
.LVL76:
	addi 1,1,48
	.cfi_remember_state
.LCFI6:
	.cfi_def_cfa_offset 0
	.cfi_restore 31
	.cfi_restore 30
	.cfi_restore 29
	.cfi_restore 28
	.cfi_restore 27
	.cfi_restore 26
	.cfi_restore 25
	.cfi_restore 24
	.cfi_restore 23
	blr
.LVL77:
.L66:
.LCFI7:
	.cfi_restore_state
	.loc 1 265 0
	lwz 3,20(30)
	lwz 9,20(3)
	lwz 0,12(9)
	mtctr 0
	bctrl
	cmpwi 7,3,0
	beq- 7,.L56
	.loc 1 267 0
	lwz 9,20(30)
	lwz 9,20(9)
	lwz 27,0(9)
.LVL78:
	.loc 1 268 0
	lwz 28,4(9)
.LVL79:
	.loc 1 271 0
	lbz 0,0(27)
	addi 27,27,1
	.loc 1 270 0
	addi 28,28,-1
.LVL80:
	.loc 1 272 0
	cmpwi 7,0,255
	bne- 7,.L65
.LVL81:
.L59:
	.loc 1 264 0
	cmpwi 7,28,0
	beq- 7,.L66
	.loc 1 271 0
	lbz 0,0(27)
	.loc 1 270 0
	addi 28,28,-1
.LVL82:
	.loc 1 271 0
	addi 27,27,1
.LVL83:
	.loc 1 272 0
	cmpwi 7,0,255
	beq+ 7,.L59
.L65:
	.loc 1 274 0
	cmpwi 7,0,0
	beq- 7,.L51
	.loc 1 280 0
	stw 0,8(30)
	b .L48
.LVL84:
.L63:
	.loc 1 253 0
	lwz 3,20(30)
	lwz 9,20(3)
	lwz 0,12(9)
	mtctr 0
	bctrl
	cmpwi 7,3,0
	beq- 7,.L56
	.loc 1 255 0
	lwz 9,20(30)
	lwz 9,20(9)
	lwz 27,0(9)
.LVL85:
	.loc 1 256 0
	lwz 28,4(9)
.LVL86:
	b .L49
.LVL87:
.L56:
	.loc 1 313 0
	lwz 0,52(1)
	.loc 1 266 0
	li 3,0
	.loc 1 313 0
	lwz 23,12(1)
	mtlr 0
	lwz 24,16(1)
	lwz 25,20(1)
.LVL88:
	lwz 26,24(1)
	lwz 27,28(1)
.LVL89:
	lwz 28,32(1)
.LVL90:
	lwz 29,36(1)
.LVL91:
	lwz 30,40(1)
.LVL92:
	lwz 31,44(1)
.LVL93:
	addi 1,1,48
	.cfi_restore 23
	.cfi_restore 24
	.cfi_restore 25
	.cfi_restore 26
	.cfi_restore 27
	.cfi_restore 28
	.cfi_restore 29
	.cfi_restore 30
	.cfi_restore 31
.LCFI8:
	.cfi_def_cfa_offset 0
	blr
	.cfi_endproc
.LFE2:
	.size	jpeg_fill_bit_buffer, .-jpeg_fill_bit_buffer
	.align 2
	.globl jpeg_huff_decode
	.type	jpeg_huff_decode, @function
jpeg_huff_decode:
.LFB3:
	.loc 1 325 0
	.cfi_startproc
.LVL94:
	.loc 1 332 0
	cmpw 7,7,5
	.loc 1 325 0
	mflr 0
	stwu 1,-32(1)
.LCFI9:
	.cfi_def_cfa_offset 32
	.cfi_register 65, 0
	mr 9,4
	stw 0,36(1)
	mr 0,5
	.cfi_offset 65, 4
	stw 27,12(1)
	mr 27,6
	.cfi_offset 27, -20
	stw 28,16(1)
	mr 28,3
	.cfi_offset 28, -16
	stw 30,24(1)
	mr 30,7
	.cfi_offset 30, -8
.LVL95:
	stw 29,20(1)
	stw 31,28(1)
	.loc 1 332 0
	bgt- 7,.L78
	.cfi_offset 31, -4
	.cfi_offset 29, -12
.LVL96:
.L68:
	.loc 1 338 0
	addi 29,30,16
	.loc 1 333 0
	li 11,1
	.loc 1 338 0
	slwi 29,29,2
	.loc 1 333 0
	subf 5,30,0
.LVL97:
	.loc 1 338 0
	add 29,27,29
	.loc 1 333 0
	slw 11,11,30
	.loc 1 338 0
	lwz 0,4(29)
	.loc 1 333 0
	sraw 31,9,5
	addi 11,11,-1
	.loc 1 338 0
	addi 29,29,4
	.loc 1 333 0
	and 31,31,11
.LVL98:
	.loc 1 338 0
	cmpw 7,31,0
	bgt+ 7,.L72
	b .L70
.LVL99:
.L71:
	.loc 1 341 0
	addi 5,5,-1
.LVL100:
	.loc 1 339 0
	slwi 31,31,1
.LVL101:
	.loc 1 341 0
	sraw 11,9,5
	.loc 1 338 0
	lwzu 0,4(29)
	.loc 1 341 0
	rlwinm 11,11,0,31,31
	or 31,11,31
.LVL102:
	.loc 1 338 0
	cmpw 7,0,31
	bge- 7,.L70
.L72:
.LVL103:
	.loc 1 340 0
	cmpwi 7,5,0
	.loc 1 342 0
	addi 30,30,1
.LVL104:
	.loc 1 340 0
	bgt+ 7,.L71
	.loc 1 340 0 is_stmt 0 discriminator 1
	mr 4,9
	mr 3,28
	li 6,1
	bl jpeg_fill_bit_buffer
.LVL105:
	cmpwi 7,3,0
	beq- 7,.L76
	.loc 1 340 0 discriminator 2
	lwz 5,16(28)
	.loc 1 339 0 is_stmt 1 discriminator 2
	slwi 31,31,1
.LVL106:
	.loc 1 340 0 discriminator 2
	lwz 9,12(28)
.LVL107:
	.loc 1 341 0 discriminator 2
	addi 5,5,-1
.LVL108:
	.loc 1 338 0 discriminator 2
	lwzu 0,4(29)
	.loc 1 341 0 discriminator 2
	sraw 11,9,5
	rlwinm 11,11,0,31,31
	or 31,11,31
.LVL109:
	.loc 1 338 0 discriminator 2
	cmpw 7,0,31
	blt+ 7,.L72
.LVL110:
.L70:
	.loc 1 351 0
	cmpwi 7,30,16
	.loc 1 346 0
	stw 9,12(28)
	.loc 1 347 0
	stw 5,16(28)
	.loc 1 351 0
	bgt- 7,.L79
	.loc 1 356 0
	addi 11,30,32
	.loc 1 357 0
	slwi 30,30,2
.LVL111:
	lwzx 0,27,30
	.loc 1 356 0
	slwi 11,11,2
.LVL112:
	lwz 9,208(27)
.LVL113:
	add 27,27,11
.LVL114:
	.loc 1 357 0
	subf 31,0,31
.LVL115:
	.loc 1 356 0
	lwz 0,12(27)
	add 9,9,31
	add 9,9,0
	lbz 3,17(9)
.LVL116:
.L69:
	.loc 1 358 0
	lwz 0,36(1)
	lwz 27,12(1)
	mtlr 0
	lwz 28,16(1)
.LVL117:
	lwz 29,20(1)
	lwz 30,24(1)
	lwz 31,28(1)
	addi 1,1,32
	.cfi_remember_state
.LCFI10:
	.cfi_def_cfa_offset 0
	.cfi_restore 31
	.cfi_restore 30
	.cfi_restore 29
	.cfi_restore 28
	.cfi_restore 27
	blr
.LVL118:
.L78:
.LCFI11:
	.cfi_restore_state
	.loc 1 332 0 discriminator 1
	mr 6,7
.LVL119:
	bl jpeg_fill_bit_buffer
.LVL120:
	cmpwi 7,3,0
	li 3,-1
	beq- 7,.L69
	.loc 1 332 0 is_stmt 0 discriminator 2
	lwz 9,12(28)
.LVL121:
	lwz 0,16(28)
.LVL122:
	b .L68
.LVL123:
.L79:
	.loc 1 352 0 is_stmt 1
	lwz 9,20(28)
.LVL124:
	li 0,112
	li 4,-1
	lwz 9,0(9)
	stw 0,20(9)
	lwz 3,20(28)
	lwz 9,0(3)
	lwz 0,4(9)
	mtctr 0
	bctrl
.LVL125:
	.loc 1 358 0
	lwz 0,36(1)
	lwz 27,12(1)
.LVL126:
	.loc 1 353 0
	li 3,0
	.loc 1 358 0
	mtlr 0
	lwz 28,16(1)
.LVL127:
	lwz 29,20(1)
	lwz 30,24(1)
.LVL128:
	lwz 31,28(1)
.LVL129:
	addi 1,1,32
	.cfi_remember_state
	.cfi_restore 27
	.cfi_restore 28
	.cfi_restore 29
	.cfi_restore 30
	.cfi_restore 31
.LCFI12:
	.cfi_def_cfa_offset 0
	blr
.LVL130:
.L76:
.LCFI13:
	.cfi_restore_state
	lwz 0,36(1)
	.loc 1 340 0
	li 3,-1
	.loc 1 358 0
	lwz 27,12(1)
.LVL131:
	mtlr 0
	lwz 28,16(1)
.LVL132:
	lwz 29,20(1)
	lwz 30,24(1)
.LVL133:
	lwz 31,28(1)
.LVL134:
	addi 1,1,32
	.cfi_restore 27
	.cfi_restore 28
	.cfi_restore 29
	.cfi_restore 30
	.cfi_restore 31
.LCFI14:
	.cfi_def_cfa_offset 0
	blr
	.cfi_endproc
.LFE3:
	.size	jpeg_huff_decode, .-jpeg_huff_decode
	.align 2
	.type	decode_mcu, @function
decode_mcu:
.LFB5:
	.loc 1 438 0
	.cfi_startproc
.LVL135:
	mflr 0
	stwu 1,-120(1)
.LCFI15:
	.cfi_def_cfa_offset 120
	.cfi_register 65, 0
	stw 21,76(1)
	mr 21,4
	.cfi_offset 21, -44
	stw 27,100(1)
	mr 27,3
	.cfi_offset 27, -20
	stw 31,116(1)
	stw 0,124(1)
	stw 17,60(1)
	stw 18,64(1)
	stw 19,68(1)
	stw 20,72(1)
	stw 22,80(1)
	stw 23,84(1)
	stw 24,88(1)
	stw 25,92(1)
	stw 26,96(1)
	stw 28,104(1)
	stw 29,108(1)
	stw 30,112(1)
	.loc 1 450 0
	lwz 0,252(3)
	.cfi_offset 30, -8
	.cfi_offset 29, -12
	.cfi_offset 28, -16
	.cfi_offset 26, -24
	.cfi_offset 25, -28
	.cfi_offset 24, -32
	.cfi_offset 23, -36
	.cfi_offset 22, -40
	.cfi_offset 20, -48
	.cfi_offset 19, -52
	.cfi_offset 18, -56
	.cfi_offset 17, -60
	.cfi_offset 65, 4
	.cfi_offset 31, -4
	.loc 1 439 0
	lwz 28,404(3)
.LVL136:
	.loc 1 450 0
	cmpwi 7,0,0
	addi 31,28,16
	beq- 7,.L81
.LVL137:
	.loc 1 451 0
	lwz 0,36(28)
	cmpwi 7,0,0
	beq- 7,.L135
.LVL138:
.L81:
	.loc 1 457 0
	stw 27,44(1)
	lwz 9,20(27)
	lwz 10,376(27)
	lwz 0,0(9)
	lwz 6,4(9)
	.loc 1 462 0
	lwz 11,316(27)
	.loc 1 457 0
	stw 10,32(1)
	lwz 5,12(28)
	.loc 1 462 0
	cmpwi 7,11,0
	.loc 1 457 0
	lwz 4,8(28)
.LVL139:
	stw 31,48(1)
	.loc 1 458 0
	lwz 10,28(28)
	lwz 7,20(28)
	lwz 8,24(28)
	lwz 11,32(28)
	.loc 1 457 0
	stw 0,24(1)
	stw 6,28(1)
	.loc 1 458 0
	stw 7,8(1)
	stw 8,12(1)
	stw 10,16(1)
	stw 11,20(1)
.LVL140:
	.loc 1 462 0
	ble- 7,.L85
	.loc 1 476 0
	lis 29,.LANCHOR0@ha
	.loc 1 509 0
	lis 24,jpeg_natural_order@ha
	.loc 1 437 0
	addi 21,21,-4
.LVL141:
	addi 22,27,316
	.loc 1 462 0
	li 20,0
.LBB7:
	.loc 1 472 0
	li 25,1
.LBE7:
	.loc 1 476 0
	la 29,.LANCHOR0@l(29)
	.loc 1 484 0
	addi 19,1,8
	.loc 1 509 0
	la 24,jpeg_natural_order@l(24)
.LVL142:
.L109:
	.loc 1 464 0
	lwzu 23,4(22)
.LBB8:
	.loc 1 472 0
	cmpwi 7,5,7
.LBE8:
	.loc 1 463 0
	lwzu 26,4(21)
.LVL143:
	.loc 1 465 0
	addi 9,23,72
	slwi 9,9,2
	add 9,27,9
	lwz 30,4(9)
.LVL144:
	.loc 1 466 0
	lwz 11,20(30)
	.loc 1 467 0
	lwz 9,24(30)
.LVL145:
	.loc 1 466 0
	addi 11,11,8
	.loc 1 467 0
	addi 9,9,12
	.loc 1 466 0
	slwi 11,11,2
	.loc 1 467 0
	slwi 9,9,2
	.loc 1 466 0
	add 11,28,11
	.loc 1 467 0
	add 9,28,9
	.loc 1 466 0
	lwz 17,8(11)
.LVL146:
	.loc 1 467 0
	lwz 31,8(9)
.LVL147:
.LBB9:
	.loc 1 472 0
	ble- 7,.L136
.LVL148:
.L86:
	.loc 1 472 0 is_stmt 0 discriminator 2
	addi 9,5,-8
	li 7,9
	sraw 9,4,9
	addi 18,1,24
	rlwinm 9,9,0,24,31
.LVL149:
	addi 11,9,52
	slwi 11,11,2
	add 11,17,11
	lwz 0,4(11)
.LVL150:
	cmpwi 7,0,0
	beq- 7,.L87
	.loc 1 472 0 discriminator 1
	add 9,17,9
.LVL151:
	subf 5,0,5
.LVL152:
	lbz 18,1236(9)
.LVL153:
	cmpwi 0,18,0
.LVL154:
.L88:
.LBE9:
	.loc 1 473 0 is_stmt 1
	beq- 0,.L89
	.loc 1 474 0
	cmpw 7,18,5
	bgt- 7,.L137
.L90:
	.loc 1 476 0
	slwi 0,18,2
	.loc 1 475 0
	subf 5,18,5
.LVL155:
	slw 18,25,18
.LVL156:
	.loc 1 476 0
	lwzx 9,29,0
	.loc 1 475 0
	sraw 11,4,5
	addi 18,18,-1
.LVL157:
	.loc 1 476 0
	and 18,11,18
.LVL158:
	cmpw 7,18,9
	add 9,29,0
	bge- 7,.L89
	.loc 1 476 0 is_stmt 0 discriminator 1
	lwz 0,64(9)
	add 18,0,18
.LVL159:
.L89:
	.loc 1 480 0 is_stmt 1
	lbz 0,48(30)
	cmpwi 7,0,0
	beq- 7,.L93
	.loc 1 484 0
	slwi 23,23,2
.LVL160:
	lwzx 0,19,23
	add 18,18,0
.LVL161:
	.loc 1 487 0
	sth 18,0(26)
	.loc 1 485 0
	stwx 18,19,23
	.loc 1 490 0
	lwz 0,36(30)
	cmpwi 7,0,1
	ble- 7,.L93
	li 30,1
.LVL162:
	b .L102
.LVL163:
.L140:
	.loc 1 502 0
	cmpw 7,5,23
	blt- 7,.L138
.L98:
	.loc 1 504 0
	slwi 0,23,2
	.loc 1 503 0
	subf 5,23,5
.LVL164:
	slw 23,25,23
	.loc 1 504 0
	lwzx 9,29,0
	.loc 1 503 0
	sraw 11,4,5
	addi 23,23,-1
.LVL165:
	.loc 1 504 0
	and 23,11,23
.LVL166:
	cmpw 7,23,9
	add 9,29,0
	bge- 7,.L99
	.loc 1 504 0 is_stmt 0 discriminator 1
	lwz 0,64(9)
	add 23,0,23
.LVL167:
.L99:
	.loc 1 501 0 is_stmt 1 discriminator 3
	add 30,30,18
.LVL168:
	.loc 1 509 0 discriminator 3
	slwi 0,30,2
	.loc 1 494 0 discriminator 3
	addi 30,30,1
	cmpwi 7,30,63
	.loc 1 509 0 discriminator 3
	lwzx 0,24,0
	slwi 0,0,1
	sthx 23,26,0
.LVL169:
	.loc 1 494 0 discriminator 3
	bgt- 7,.L101
.LVL170:
.L102:
.LBB10:
	.loc 1 495 0
	cmpwi 7,5,7
	ble- 7,.L139
.L94:
	.loc 1 495 0 is_stmt 0 discriminator 2
	addi 9,5,-8
	li 7,9
	sraw 9,4,9
	addi 18,1,24
	rlwinm 9,9,0,24,31
.LVL171:
	addi 11,9,52
	slwi 11,11,2
	add 11,31,11
	lwz 0,4(11)
.LVL172:
	cmpwi 7,0,0
	beq- 7,.L95
	.loc 1 495 0 discriminator 1
	add 9,31,9
.LVL173:
	subf 5,0,5
.LVL174:
	lbz 18,1236(9)
.LVL175:
.L96:
.LBE10:
	.loc 1 500 0 is_stmt 1
	andi. 23,18,15
	.loc 1 497 0
	srawi 18,18,4
.LVL176:
	.loc 1 500 0
	bne- 0,.L140
	.loc 1 511 0
	cmpwi 7,18,15
	bne- 7,.L101
	.loc 1 513 0
	addi 30,30,15
.LVL177:
	.loc 1 494 0
	addi 30,30,1
.LVL178:
	cmpwi 7,30,63
	ble+ 7,.L102
.LVL179:
.L101:
	.loc 1 462 0
	lwz 0,316(27)
	addi 20,20,1
.LVL180:
	cmpw 7,0,20
	bgt+ 7,.L109
	lwz 9,20(27)
	lwz 0,24(1)
.LVL181:
.L85:
	.loc 1 543 0
	stw 0,0(9)
	.loc 1 549 0
	li 3,1
	.loc 1 543 0
	lwz 9,20(27)
	lwz 0,28(1)
	stw 0,4(9)
	.loc 1 544 0
	lwz 9,8(1)
	.loc 1 543 0
	lwz 0,32(1)
	stw 0,376(27)
	.loc 1 544 0
	stw 9,20(28)
	lwz 9,12(1)
	.loc 1 547 0
	lwz 0,36(28)
	.loc 1 544 0
	stw 9,24(28)
	lwz 9,16(1)
	.loc 1 547 0
	addic 0,0,-1
	.loc 1 543 0
	stw 4,8(28)
	.loc 1 544 0
	stw 9,28(28)
	lwz 9,20(1)
	.loc 1 543 0
	stw 5,12(28)
	.loc 1 544 0
	stw 9,32(28)
	.loc 1 547 0
	stw 0,36(28)
	.loc 1 549 0
	b .L82
.LVL182:
.L139:
.LBB11:
	.loc 1 495 0 discriminator 1
	addi 18,1,24
	li 6,0
	mr 3,18
	bl jpeg_fill_bit_buffer
.LVL183:
	cmpwi 7,3,0
	beq- 7,.L127
	.loc 1 495 0 is_stmt 0 discriminator 2
	lwz 5,40(1)
	li 7,1
	lwz 4,36(1)
.LVL184:
	cmpwi 7,5,7
	bgt- 7,.L94
.LVL185:
.L95:
	.loc 1 495 0 discriminator 1
	mr 3,18
	mr 6,31
	bl jpeg_huff_decode
.LVL186:
	mr. 18,3
	blt- 0,.L127
	.loc 1 495 0 discriminator 2
	lwz 4,36(1)
.LVL187:
	lwz 5,40(1)
.LVL188:
	b .L96
.LVL189:
.L138:
.LBE11:
	.loc 1 502 0 is_stmt 1 discriminator 1
	addi 3,1,24
	mr 6,23
	bl jpeg_fill_bit_buffer
.LVL190:
	cmpwi 7,3,0
	beq- 7,.L127
	.loc 1 502 0 is_stmt 0 discriminator 2
	lwz 4,36(1)
.LVL191:
	lwz 5,40(1)
.LVL192:
	b .L98
.LVL193:
.L93:
	.loc 1 504 0 is_stmt 1 discriminator 1
	li 30,1
.LVL194:
	b .L92
.LVL195:
.L143:
	.loc 1 530 0
	cmpw 7,5,26
	blt- 7,.L141
.L107:
	.loc 1 529 0
	add 30,30,23
.LVL196:
	.loc 1 531 0
	subf 5,26,5
.LVL197:
.L108:
	.loc 1 522 0
	addi 30,30,1
.LVL198:
	cmpwi 7,30,63
	bgt- 7,.L101
.LVL199:
.L92:
.LBB12:
	.loc 1 523 0
	cmpwi 7,5,7
	ble- 7,.L142
.L103:
	.loc 1 523 0 is_stmt 0 discriminator 2
	addi 9,5,-8
	li 7,9
	sraw 9,4,9
	addi 18,1,24
	rlwinm 9,9,0,24,31
.LVL200:
	addi 11,9,52
	slwi 11,11,2
	add 11,31,11
	lwz 0,4(11)
.LVL201:
	cmpwi 7,0,0
	beq- 7,.L104
	.loc 1 523 0 discriminator 1
	add 9,31,9
.LVL202:
	subf 5,0,5
.LVL203:
	lbz 23,1236(9)
.LVL204:
.L105:
.LBE12:
	.loc 1 528 0 is_stmt 1
	andi. 26,23,15
	.loc 1 525 0
	srawi 23,23,4
.LVL205:
	.loc 1 528 0
	bne- 0,.L143
	.loc 1 533 0
	cmpwi 7,23,15
	bne- 7,.L101
	.loc 1 535 0
	addi 30,30,15
.LVL206:
	b .L108
.LVL207:
.L142:
.LBB13:
	.loc 1 523 0 discriminator 1
	addi 18,1,24
	li 6,0
	mr 3,18
	bl jpeg_fill_bit_buffer
.LVL208:
	cmpwi 7,3,0
	beq- 7,.L127
	.loc 1 523 0 is_stmt 0 discriminator 2
	lwz 5,40(1)
	li 7,1
	lwz 4,36(1)
.LVL209:
	cmpwi 7,5,7
	bgt- 7,.L103
.LVL210:
.L104:
	.loc 1 523 0 discriminator 1
	mr 3,18
	mr 6,31
	bl jpeg_huff_decode
.LVL211:
	mr. 23,3
	blt- 0,.L127
	.loc 1 523 0 discriminator 2
	lwz 4,36(1)
.LVL212:
	lwz 5,40(1)
.LVL213:
	b .L105
.LVL214:
.L141:
.LBE13:
	.loc 1 530 0 is_stmt 1 discriminator 1
	addi 3,1,24
	mr 6,26
	bl jpeg_fill_bit_buffer
.LVL215:
	cmpwi 7,3,0
	beq- 7,.L127
	.loc 1 530 0 is_stmt 0 discriminator 2
	lwz 4,36(1)
.LVL216:
	lwz 5,40(1)
.LVL217:
	b .L107
.LVL218:
.L136:
.LBB14:
	.loc 1 472 0 is_stmt 1 discriminator 1
	addi 18,1,24
	li 6,0
	mr 3,18
	bl jpeg_fill_bit_buffer
.LVL219:
	cmpwi 7,3,0
	beq- 7,.L127
	.loc 1 472 0 is_stmt 0 discriminator 2
	lwz 5,40(1)
	li 7,1
	lwz 4,36(1)
.LVL220:
	cmpwi 7,5,7
	bgt- 7,.L86
.LVL221:
.L87:
	.loc 1 472 0 discriminator 1
	mr 3,18
	mr 6,17
	bl jpeg_huff_decode
.LVL222:
	mr. 18,3
	blt- 0,.L127
	.loc 1 472 0 discriminator 2
	lwz 4,36(1)
.LVL223:
	lwz 5,40(1)
.LVL224:
	b .L88
.LVL225:
.L127:
.LBE14:
	.loc 1 530 0 is_stmt 1
	li 3,0
.LVL226:
.L82:
	.loc 1 550 0
	lwz 0,124(1)
	lwz 17,60(1)
	mtlr 0
	lwz 18,64(1)
	lwz 19,68(1)
	lwz 20,72(1)
	lwz 21,76(1)
	lwz 22,80(1)
	lwz 23,84(1)
	lwz 24,88(1)
	lwz 25,92(1)
	lwz 26,96(1)
	lwz 27,100(1)
.LVL227:
	lwz 28,104(1)
.LVL228:
	lwz 29,108(1)
	lwz 30,112(1)
	lwz 31,116(1)
	addi 1,1,120
	.cfi_remember_state
.LCFI16:
	.cfi_def_cfa_offset 0
	.cfi_restore 31
	.cfi_restore 30
	.cfi_restore 29
	.cfi_restore 28
	.cfi_restore 27
	.cfi_restore 26
	.cfi_restore 25
	.cfi_restore 24
	.cfi_restore 23
	.cfi_restore 22
	.cfi_restore 21
	.cfi_restore 20
	.cfi_restore 19
	.cfi_restore 18
	.cfi_restore 17
	blr
.LVL229:
.L137:
.LCFI17:
	.cfi_restore_state
	.loc 1 474 0 discriminator 1
	addi 3,1,24
	mr 6,18
	bl jpeg_fill_bit_buffer
.LVL230:
	cmpwi 7,3,0
	beq- 7,.L127
	.loc 1 474 0 is_stmt 0 discriminator 2
	lwz 4,36(1)
.LVL231:
	lwz 5,40(1)
.LVL232:
	b .L90
.LVL233:
.L135:
.LBB15:
.LBB16:
	.loc 1 400 0 is_stmt 1
	lwz 9,400(3)
	lwz 11,12(28)
	lwz 10,88(9)
	srawi 11,11,3
	addze 11,11
	add 11,10,11
	stw 11,88(9)
	.loc 1 401 0
	stw 0,12(28)
	.loc 1 404 0
	lwz 9,400(3)
	lwz 0,8(9)
	mtctr 0
	bctrl
.LVL234:
	cmpwi 7,3,0
	.loc 1 453 0
	li 3,0
	.loc 1 404 0
	beq- 7,.L82
.LVL235:
	.loc 1 408 0
	lwz 0,288(27)
	cmpwi 7,0,0
	ble- 7,.L83
	.loc 1 437 0
	mr 11,31
.LBE16:
.LBE15:
	li 9,0
.LBB18:
.LBB17:
	.loc 1 409 0
	li 10,0
.LVL236:
.L84:
	stwu 10,4(11)
	.loc 1 408 0
	addi 9,9,1
.LVL237:
	lwz 0,288(27)
	cmpw 7,9,0
	blt+ 7,.L84
.LVL238:
.L83:
	.loc 1 412 0
	lwz 0,252(27)
	stw 0,36(28)
	.loc 1 415 0
	li 0,0
	stb 0,16(28)
	b .L81
.LBE17:
.LBE18:
	.cfi_endproc
.LFE5:
	.size	decode_mcu, .-decode_mcu
	.align 2
	.globl jinit_huff_decoder
	.type	jinit_huff_decoder, @function
jinit_huff_decoder:
.LFB6:
	.loc 1 559 0
	.cfi_startproc
.LVL239:
	mflr 0
	stwu 1,-16(1)
.LCFI18:
	.cfi_def_cfa_offset 16
	.cfi_register 65, 0
	.loc 1 563 0
	li 4,1
	li 5,72
	.loc 1 559 0
	stw 31,12(1)
	mr 31,3
	.cfi_offset 31, -4
	stw 0,20(1)
	.loc 1 564 0
	lwz 9,4(3)
	.loc 1 563 0
	lwz 0,0(9)
	.cfi_offset 65, 4
	mtctr 0
	bctrl
.LVL240:
	.loc 1 567 0
	lis 9,start_pass_huff_decoder@ha
	la 9,start_pass_huff_decoder@l(9)
	.loc 1 566 0
	stw 3,404(31)
	.loc 1 567 0
	stw 9,0(3)
	.loc 1 568 0
	lis 9,decode_mcu@ha
	.loc 1 572 0
	li 0,0
	.loc 1 568 0
	la 9,decode_mcu@l(9)
	stw 9,4(3)
.LVL241:
	.loc 1 572 0
	stw 0,56(3)
	stw 0,40(3)
.LVL242:
	stw 0,60(3)
	stw 0,44(3)
.LVL243:
	stw 0,64(3)
	stw 0,48(3)
.LVL244:
	stw 0,68(3)
	stw 0,52(3)
.LVL245:
	.loc 1 574 0
	lwz 0,20(1)
	lwz 31,12(1)
.LVL246:
	mtlr 0
	addi 1,1,16
.LCFI19:
	.cfi_def_cfa_offset 0
	.cfi_restore 31
	blr
	.cfi_endproc
.LFE6:
	.size	jinit_huff_decoder, .-jinit_huff_decoder
	.section	.rodata
	.align 2
	.set	.LANCHOR0,. + 0
	.type	extend_test, @object
	.size	extend_test, 64
extend_test:
	.long	0
	.long	1
	.long	2
	.long	4
	.long	8
	.long	16
	.long	32
	.long	64
	.long	128
	.long	256
	.long	512
	.long	1024
	.long	2048
	.long	4096
	.long	8192
	.long	16384
	.type	extend_offset, @object
	.size	extend_offset, 64
extend_offset:
	.long	0
	.long	-1
	.long	-3
	.long	-7
	.long	-15
	.long	-31
	.long	-63
	.long	-127
	.long	-255
	.long	-511
	.long	-1023
	.long	-2047
	.long	-4095
	.long	-8191
	.long	-16383
	.long	-32767
	.section	".text"
.Letext0:
	.file 2 "c:\\utils\\devkitpro\\devkitppc\\bin\\../lib/gcc/powerpc-eabi/4.6.3/include/stddef.h"
	.file 3 "d:/Data/Nintendo/DoomGX/src/renderer/jpeg-6/jpeglib.h"
	.file 4 "d:/Data/Nintendo/DoomGX/src/renderer/jpeg-6/../jpeg-6/jmorecfg.h"
	.file 5 "d:/Data/Nintendo/DoomGX/src/renderer/jpeg-6/../jpeg-6/jpegint.h"
	.file 6 "d:/Data/Nintendo/DoomGX/src/renderer/jpeg-6/../jpeg-6/jerror.h"
	.file 7 "d:/Data/Nintendo/DoomGX/src/renderer/jpeg-6/jdhuff.h"