	.file	"jerror.c.c"
	.section	".text"
.Ltext0:
	.cfi_sections	.debug_frame
	.align 2
	.type	emit_message, @function
emit_message:
.LFB2:
	.file 1 "d:/Data/Nintendo/DoomGX/src/renderer/jpeg-6/jerror.c.c"
	.loc 1 111 0
	.cfi_startproc
.LVL0:
	mflr 0
	stwu 1,-16(1)
.LCFI0:
	.cfi_def_cfa_offset 16
	.cfi_register 65, 0
	.loc 1 114 0
	cmpwi 0,4,0
	.loc 1 111 0
	mr 9,3
	stw 31,12(1)
	stw 0,20(1)
	.loc 1 112 0
	lwz 31,0(3)
	.cfi_offset 65, 4
	.cfi_offset 31, -4
.LVL1:
	.loc 1 114 0
	blt- 0,.L7
	.loc 1 125 0
	lwz 0,104(31)
	cmpw 7,4,0
	ble- 7,.L8
	.loc 1 128 0
	lwz 0,20(1)
	lwz 31,12(1)
	mtlr 0
	addi 1,1,16
	.cfi_remember_state
.LCFI1:
	.cfi_def_cfa_offset 0
	.cfi_restore 31
	blr
.L8:
.LCFI2:
	.cfi_restore_state
	.loc 1 126 0
	lwz 0,8(31)
	mtctr 0
	bctrl
.LVL2:
	.loc 1 128 0
	lwz 0,20(1)
	lwz 31,12(1)
.LVL3:
	mtlr 0
	addi 1,1,16
	.cfi_remember_state
	.cfi_restore 31
.LCFI3:
	.cfi_def_cfa_offset 0
	blr
.LVL4:
.L7:
.LCFI4:
	.cfi_restore_state
	.loc 1 119 0
	lwz 11,108(31)
	cmpwi 7,11,0
	beq- 7,.L3
	.loc 1 119 0 is_stmt 0 discriminator 1
	lwz 0,104(31)
	cmpwi 7,0,2
	ble- 7,.L4
.L3:
	.loc 1 120 0 is_stmt 1
	lwz 0,8(31)
	mr 3,9
.LVL5:
	mtctr 0
	bctrl
.LVL6:
	lwz 11,108(31)
.L4:
	.loc 1 122 0
	addi 11,11,1
	stw 11,108(31)
	.loc 1 128 0
	lwz 0,20(1)
	lwz 31,12(1)
.LVL7:
	mtlr 0
	addi 1,1,16
	.cfi_restore 31
.LCFI5:
	.cfi_def_cfa_offset 0
	blr
	.cfi_endproc
.LFE2:
	.size	emit_message, .-emit_message
	.align 2
	.type	reset_error_mgr, @function
reset_error_mgr:
.LFB4:
	.loc 1 195 0
	.cfi_startproc
.LVL8:
	.loc 1 196 0
	lwz 9,0(3)
	li 0,0
	stw 0,108(9)
	.loc 1 198 0
	lwz 9,0(3)
	stw 0,20(9)
	.loc 1 199 0
	blr
	.cfi_endproc
.LFE4:
	.size	reset_error_mgr, .-reset_error_mgr
	.align 2
	.type	format_message, @function
format_message:
.LFB3:
	.loc 1 140 0
	.cfi_startproc
.LVL9:
	mflr 0
	stwu 1,-16(1)
.LCFI6:
	.cfi_def_cfa_offset 16
	.cfi_register 65, 0
	stw 0,20(1)
	.loc 1 141 0
	lwz 11,0(3)
.LVL10:
	.loc 1 140 0
	mr 3,4
.LVL11:
	.loc 1 142 0
	lwz 0,20(11)
	.cfi_offset 65, 4
.LVL12:
	.loc 1 149 0
	cmpwi 7,0,0
	ble- 7,.L11
.LVL13:
	.loc 1 149 0 is_stmt 0 discriminator 1
	lwz 9,116(11)
	cmpw 7,0,9
	bgt- 7,.L11
	.loc 1 150 0 is_stmt 1
	lwz 10,112(11)
	slwi 9,0,2
	lwzx 4,10,9
.LVL14:
.L12:
	.loc 1 158 0
	cmpwi 7,4,0
	beq- 7,.L13
.L14:
.LVL15:
	.loc 1 165 0
	mr 9,4
	.loc 1 166 0
	b .L15
.LVL16:
.L20:
	mr 9,10
.LVL17:
.L15:
	.loc 1 166 0 is_stmt 0 discriminator 1
	lbz 0,0(9)
.LVL18:
	addi 10,9,1
.LVL19:
	cmpwi 7,0,0
	.loc 1 167 0 is_stmt 1 discriminator 1
	cmpwi 6,0,37
	.loc 1 166 0 discriminator 1
	beq- 7,.L17
	.loc 1 167 0
	bne+ 6,.L20
	.loc 1 168 0
	lbz 0,1(9)
.LVL20:
	cmpwi 7,0,115
	beq- 7,.L21
.L17:
	.loc 1 177 0
	lwz 0,48(11)
	lwz 5,24(11)
	lwz 6,28(11)
	lwz 7,32(11)
	lwz 8,36(11)
	lwz 9,40(11)
	lwz 10,44(11)
.LVL21:
	stw 0,8(1)
	lwz 0,52(11)
	stw 0,12(1)
	crxor 6,6,6
	bl sprintf
.LVL22:
	.loc 1 182 0
	lwz 0,20(1)
	addi 1,1,16
	.cfi_remember_state
.LCFI7:
	.cfi_def_cfa_offset 0
	mtlr 0
	blr
.LVL23:
.L11:
.LCFI8:
	.cfi_restore_state
	.loc 1 151 0
	lwz 9,120(11)
	cmpwi 7,9,0
	beq- 7,.L13
	.loc 1 152 0 discriminator 1
	lwz 10,124(11)
	.loc 1 151 0 discriminator 1
	cmpw 7,0,10
	blt- 7,.L13
	.loc 1 152 0
	lwz 8,128(11)
	cmpw 7,0,8
	bgt- 7,.L13
	.loc 1 154 0
	subf 10,10,0
	slwi 10,10,2
	lwzx 4,9,10
.LVL24:
	b .L12
.LVL25:
.L21:
	.loc 1 175 0
	addi 5,11,24
	crxor 6,6,6
	bl sprintf
.LVL26:
	.loc 1 182 0
	lwz 0,20(1)
	addi 1,1,16
	.cfi_remember_state
.LCFI9:
	.cfi_def_cfa_offset 0
	mtlr 0
	blr
.LVL27:
.L13:
.LCFI10:
	.cfi_restore_state
	.loc 1 159 0
	stw 0,24(11)
	.loc 1 160 0
	lwz 9,112(11)
	lwz 4,0(9)
.LVL28:
	b .L14
	.cfi_endproc
.LFE3:
	.size	format_message, .-format_message
	.align 2
	.type	output_message, @function
output_message:
.LFB1:
	.loc 1 87 0
	.cfi_startproc
.LVL29:
	mflr 0
	stwu 1,-216(1)
.LCFI11:
	.cfi_def_cfa_offset 216
	.cfi_register 65, 0
	.loc 1 91 0
	addi 4,1,8
	.loc 1 87 0
	stw 0,220(1)
	.loc 1 91 0
	lwz 9,0(3)
	lwz 0,12(9)
	.cfi_offset 65, 4
	mtctr 0
	bctrl
.LVL30:
	.loc 1 94 0
	lis 3,.LC0@ha
	addi 4,1,8
	la 3,.LC0@l(3)
	crxor 6,6,6
	bl jpg_Printf
	.loc 1 95 0
	lwz 0,220(1)
	addi 1,1,216
.LCFI12:
	.cfi_def_cfa_offset 0
	mtlr 0
	blr
	.cfi_endproc
.LFE1:
	.size	output_message, .-output_message
	.align 2
	.type	error_exit, @function
error_exit:
.LFB0:
	.loc 1 66 0
	.cfi_startproc
.LVL31:
	mflr 0
	stwu 1,-224(1)
.LCFI13:
	.cfi_def_cfa_offset 224
	.cfi_register 65, 0
	stw 31,220(1)
	.loc 1 70 0
	addi 4,1,8
	.loc 1 66 0
	stw 0,228(1)
	.loc 1 66 0
	mr 31,3
	.cfi_offset 65, 4
	.cfi_offset 31, -4
	.loc 1 70 0
	lwz 9,0(3)
	lwz 0,12(9)
	mtctr 0
	bctrl
.LVL32:
	.loc 1 73 0
	mr 3,31
	bl jpeg_destroy
	.loc 1 75 0
	lis 3,.LC0@ha
	addi 4,1,8
	la 3,.LC0@l(3)
	crxor 6,6,6
	bl jpg_Error
	.loc 1 76 0
	lwz 0,228(1)
	lwz 31,220(1)
.LVL33:
	mtlr 0
	addi 1,1,224
.LCFI14:
	.cfi_def_cfa_offset 0
	.cfi_restore 31
	blr
	.cfi_endproc
.LFE0:
	.size	error_exit, .-error_exit
	.align 2
	.globl jpeg_std_error
	.type	jpeg_std_error, @function
jpeg_std_error:
.LFB5:
	.loc 1 214 0
	.cfi_startproc
.LVL34:
	.loc 1 215 0
	lis 11,error_exit@ha
	.loc 1 221 0
	li 0,0
	.loc 1 215 0
	la 11,error_exit@l(11)
	.loc 1 221 0
	stw 0,104(3)
	.loc 1 215 0
	stw 11,0(3)
	.loc 1 216 0
	lis 11,emit_message@ha
	la 11,emit_message@l(11)
	.loc 1 222 0
	stw 0,108(3)
	.loc 1 216 0
	stw 11,4(3)
	.loc 1 217 0
	lis 11,output_message@ha
	la 11,output_message@l(11)
	.loc 1 223 0
	stw 0,20(3)
	.loc 1 217 0
	stw 11,8(3)
	.loc 1 218 0
	lis 11,format_message@ha
	la 11,format_message@l(11)
	.loc 1 229 0
	stw 0,120(3)
	.loc 1 218 0
	stw 11,12(3)
	.loc 1 219 0
	lis 11,reset_error_mgr@ha
	la 11,reset_error_mgr@l(11)
	.loc 1 230 0
	stw 0,124(3)
	.loc 1 219 0
	stw 11,16(3)
	.loc 1 226 0
	lis 11,.LANCHOR0@ha
	la 11,.LANCHOR0@l(11)
	.loc 1 231 0
	stw 0,128(3)
	.loc 1 226 0
	stw 11,112(3)
	.loc 1 227 0
	li 11,117
	stw 11,116(3)
	.loc 1 234 0
	blr
	.cfi_endproc
.LFE5:
	.size	jpeg_std_error, .-jpeg_std_error
	.globl jpeg_std_message_table
	.section	.rodata
	.align 2
	.set	.LANCHOR0,. + 0
	.type	jpeg_std_message_table, @object
	.size	jpeg_std_message_table, 476
jpeg_std_message_table:
	.long	.LC1
	.long	.LC2
	.long	.LC3
	.long	.LC4
	.long	.LC5
	.long	.LC6
	.long	.LC7
	.long	.LC8
	.long	.LC9
	.long	.LC10
	.long	.LC11
	.long	.LC12
	.long	.LC13
	.long	.LC14
	.long	.LC15
	.long	.LC16
	.long	.LC17
	.long	.LC18
	.long	.LC19
	.long	.LC20
	.long	.LC21
	.long	.LC22
	.long	.LC23
	.long	.LC24
	.long	.LC25
	.long	.LC26
	.long	.LC27
	.long	.LC28
	.long	.LC29
	.long	.LC30
	.long	.LC31
	.long	.LC32
	.long	.LC33
	.long	.LC34
	.long	.LC35
	.long	.LC36
	.long	.LC37
	.long	.LC38
	.long	.LC39
	.long	.LC40
	.long	.LC41
	.long	.LC42
	.long	.LC43
	.long	.LC44
	.long	.LC45
	.long	.LC46
	.long	.LC47
	.long	.LC48
	.long	.LC49
	.long	.LC50
	.long	.LC51
	.long	.LC52
	.long	.LC53
	.long	.LC54
	.long	.LC55
	.long	.LC56
	.long	.LC57
	.long	.LC58
	.long	.LC59
	.long	.LC60
	.long	.LC61
	.long	.LC62
	.long	.LC63
	.long	.LC64
	.long	.LC65
	.long	.LC66
	.long	.LC67
	.long	.LC68
	.long	.LC69
	.long	.LC70
	.long	.LC71
	.long	.LC72
	.long	.LC73
	.long	.LC74
	.long	.LC75
	.long	.LC76
	.long	.LC77
	.long	.LC78
	.long	.LC79
	.long	.LC80
	.long	.LC81
	.long	.LC82
	.long	.LC83
	.long	.LC84
	.long	.LC85
	.long	.LC86
	.long	.LC87
	.long	.LC88
	.long	.LC89
	.long	.LC90
	.long	.LC91
	.long	.LC92
	.long	.LC93
	.long	.LC94
	.long	.LC95
	.long	.LC96
	.long	.LC97
	.long	.LC98
	.long	.LC99
	.long	.LC100
	.long	.LC101
	.long	.LC102
	.long	.LC103
	.long	.LC104
	.long	.LC105
	.long	.LC106
	.long	.LC107
	.long	.LC108
	.long	.LC109
	.long	.LC110
	.long	.LC111
	.long	.LC112
	.long	.LC113
	.long	.LC114
	.long	.LC115
	.long	.LC116
	.long	.LC117
	.long	.LC118
	.long	0
	.section	.rodata.str1.4,"aMS",@progbits,1
	.align 2
.LC0:
	.string	"%s\n"
.LC1:
	.string	"Bogus message code %d"
	.zero	2
.LC2:
	.string	"Sorry, there are legal restrictions on arithmetic coding"
	.zero	3
.LC3:
	.string	"ALIGN_TYPE is wrong, please fix"
.LC4:
	.string	"MAX_ALLOC_CHUNK is wrong, please fix"
	.zero	3
.LC5:
	.string	"Bogus buffer control mode"
	.zero	2
.LC6:
	.string	"Invalid component ID %d in SOS"
	.zero	1
.LC7:
	.string	"IDCT output block size %d not supported"
.LC8:
	.string	"Bogus input colorspace"
	.zero	1
.LC9:
	.string	"Bogus JPEG colorspace"
	.zero	2
.LC10:
	.string	"Bogus marker length"
.LC11:
	.string	"Sampling factors too large for interleaved scan"
.LC12:
	.string	"Invalid memory pool code %d"
.LC13:
	.string	"Unsupported JPEG data precision %d"
	.zero	1
.LC14:
	.string	"Invalid progressive parameters Ss=%d Se=%d Ah=%d Al=%d"
	.zero	1
.LC15:
	.string	"Invalid progressive parameters at scan script entry %d"
	.zero	1
.LC16:
	.string	"Bogus sampling factors"
	.zero	1
.LC17:
	.string	"Invalid scan script at entry %d"
.LC18:
	.string	"Improper call to JPEG library in state %d"
	.zero	2
.LC19:
	.string	"Bogus virtual array access"
	.zero	1
.LC20:
	.string	"Buffer passed to JPEG library is too small"
	.zero	1
.LC21:
	.string	"Suspension not allowed here"
.LC22:
	.string	"CCIR601 sampling not implemented yet"
	.zero	3
.LC23:
	.string	"Too many color components: %d, max %d"
	.zero	2
.LC24:
	.string	"Unsupported color conversion request"
	.zero	3
.LC25:
	.string	"Bogus DAC index %d"
	.zero	1
.LC26:
	.string	"Bogus DAC value 0x%x"
	.zero	3
.LC27:
	.string	"Bogus DHT counts"
	.zero	3
.LC28:
	.string	"Bogus DHT index %d"
	.zero	1
.LC29:
	.string	"Bogus DQT index %d"
	.zero	1
.LC30:
	.string	"Empty JPEG image (DNL not supported)"
	.zero	3
.LC31:
	.string	"Read from EMS failed"
	.zero	3
.LC32:
	.string	"Write to EMS failed"
.LC33:
	.string	"Didn't expect more than one scan"
	.zero	3
.LC34:
	.string	"Input file read error"
	.zero	2
.LC35:
	.string	"Output file write error --- out of disk space?"
	.zero	1
.LC36:
	.string	"Fractional sampling not implemented yet"
.LC37:
	.string	"Huffman code size table overflow"
	.zero	3
.LC38:
	.string	"Missing Huffman code table entry"
	.zero	3
.LC39:
	.string	"Maximum supported image dimension is %u pixels"
	.zero	1
.LC40:
	.string	"Empty input file"
	.zero	3
.LC41:
	.string	"Premature end of input file"
.LC42:
	.string	"Cannot transcode due to multiple use of quantization table %d"
	.zero	2
.LC43:
	.string	"Scan script does not transmit all data"
	.zero	1
.LC44:
	.string	"Invalid color quantization mode change"
	.zero	1
.LC45:
	.string	"Not implemented yet"
.LC46:
	.string	"Requested feature was omitted at compile time"
	.zero	2
.LC47:
	.string	"Backing store not supported"
.LC48:
	.string	"Huffman table 0x%02x was not defined"
	.zero	3
.LC49:
	.string	"JPEG datastream contains no image"
	.zero	2
.LC50:
	.string	"Quantization table 0x%02x was not defined"
	.zero	2
.LC51:
	.string	"Not a JPEG file: starts with 0x%02x 0x%02x"
	.zero	1
.LC52:
	.string	"Insufficient memory (case %d)"
	.zero	2
.LC53:
	.string	"Cannot quantize more than %d color components"
	.zero	2
.LC54:
	.string	"Cannot quantize to fewer than %d colors"
.LC55:
	.string	"Cannot quantize to more than %d colors"
	.zero	1
.LC56:
	.string	"Invalid JPEG file structure: two SOF markers"
	.zero	3
.LC57:
	.string	"Invalid JPEG file structure: missing SOS marker"
.LC58:
	.string	"Unsupported JPEG process: SOF type 0x%02x"
	.zero	2
.LC59:
	.string	"Invalid JPEG file structure: two SOI markers"
	.zero	3
.LC60:
	.string	"Invalid JPEG file structure: SOS before SOF"
.LC61:
	.string	"Failed to create temporary file %s"
	.zero	1
.LC62:
	.string	"Read failed on temporary file"
	.zero	2
.LC63:
	.string	"Seek failed on temporary file"
	.zero	2
.LC64:
	.string	"Write failed on temporary file --- out of disk space?"
	.zero	2
.LC65:
	.string	"Application transferred too few scanlines"
	.zero	2
.LC66:
	.string	"Unsupported marker type 0x%02x"
	.zero	1
.LC67:
	.string	"Virtual array controller messed up"
	.zero	1
.LC68:
	.string	"Image too wide for this implementation"
	.zero	1
.LC69:
	.string	"Read from XMS failed"
	.zero	3
.LC70:
	.string	"Write to XMS failed"
.LC71:
	.string	"Copyright (C) 1995, Thomas G. Lane"
	.zero	1
.LC72:
	.string	"6  2-Aug-95"
.LC73:
	.string	"Caution: quantization tables are too coarse for baseline JPEG"
	.zero	2
.LC74:
	.string	"Adobe APP14 marker: version %d, flags 0x%04x 0x%04x, transform %d"
	.zero	2
.LC75:
	.string	"Unknown APP0 marker (not JFIF), length %u"
	.zero	2
.LC76:
	.string	"Unknown APP14 marker (not Adobe), length %u"
.LC77:
	.string	"Define Arithmetic Table 0x%02x: 0x%02x"
	.zero	1
.LC78:
	.string	"Define Huffman Table 0x%02x"
.LC79:
	.string	"Define Quantization Table %d  precision %d"
	.zero	1
.LC80:
	.string	"Define Restart Interval %u"
	.zero	1
.LC81:
	.string	"Freed EMS handle %u"
.LC82:
	.string	"Obtained EMS handle %u"
	.zero	1
.LC83:
	.string	"End Of Image"
	.zero	3
.LC84:
	.string	"        %3d %3d %3d %3d %3d %3d %3d %3d"
.LC85:
	.string	"JFIF APP0 marker, density %dx%d  %d"
.LC86:
	.string	"Warning: thumbnail image size does not match data length %u"
.LC87:
	.string	"Unknown JFIF minor revision number %d.%02d"
	.zero	1
.LC88:
	.string	"    with %d x %d thumbnail image"
	.zero	3
.LC89:
	.string	"Skipping marker 0x%02x, length %u"
	.zero	2
.LC90:
	.string	"Unexpected marker 0x%02x"
	.zero	3
.LC91:
	.string	"        %4u %4u %4u %4u %4u %4u %4u %4u"
.LC92:
	.string	"Quantizing to %d = %d*%d*%d colors"
	.zero	1
.LC93:
	.string	"Quantizing to %d colors"
.LC94:
	.string	"Selected %d colors for quantization"
.LC95:
	.string	"At marker 0x%02x, recovery action %d"
	.zero	3
.LC96:
	.string	"RST%d"
	.zero	2
.LC97:
	.string	"Smoothing not supported with nonstandard sampling ratios"
	.zero	3
.LC98:
	.string	"Start Of Frame 0x%02x: width=%u, height=%u, components=%d"
	.zero	2
.LC99:
	.string	"    Component %d: %dhx%dv q=%d"
	.zero	1
.LC100:
	.string	"Start of Image"
	.zero	1
.LC101:
	.string	"Start Of Scan: %d components"
	.zero	3
.LC102:
	.string	"    Component %d: dc=%d ac=%d"
	.zero	2
.LC103:
	.string	"  Ss=%d, Se=%d, Ah=%d, Al=%d"
	.zero	3
.LC104:
	.string	"Closed temporary file %s"
	.zero	3
.LC105:
	.string	"Opened temporary file %s"
	.zero	3
.LC106:
	.string	"Unrecognized component IDs %d %d %d, assuming YCbCr"
.LC107:
	.string	"Freed XMS handle %u"
.LC108:
	.string	"Obtained XMS handle %u"
	.zero	1
.LC109:
	.string	"Unknown Adobe color transform code %d"
	.zero	2
.LC110:
	.string	"Inconsistent progression sequence for component %d coefficient %d"
	.zero	2
.LC111:
	.string	"Corrupt JPEG data: %u extraneous bytes before marker 0x%02x"
.LC112:
	.string	"Corrupt JPEG data: premature end of data segment"
	.zero	3
.LC113:
	.string	"Corrupt JPEG data: bad Huffman code"
.LC114:
	.string	"Warning: unknown JFIF revision number %d.%02d"
	.zero	2
.LC115:
	.string	"Premature end of JPEG file"
	.zero	1
.LC116:
	.string	"Corrupt JPEG data: found marker 0x%02x instead of RST%d"
.LC117:
	.string	"Invalid SOS parameters for sequential JPEG"
	.zero	1
.LC118:
	.string	"Application transferred too many scanlines"
	.section	".text"
.Letext0:
	.file 2 "c:\\utils\\devkitpro\\devkitppc\\bin\\../lib/gcc/powerpc-eabi/4.6.3/include/stddef.h"
	.file 3 "d:/Data/Nintendo/DoomGX/src/renderer/jpeg-6/jpeglib.h"
	.file 4 "d:/Data/Nintendo/DoomGX/src/renderer/jpeg-6/../jpeg-6/jmorecfg.h"
	.file 5 "d:/Data/Nintendo/DoomGX/src/renderer/jpeg-6/jerror.h"