	.file	"jidctflt.c.c"
	.section	".text"
.Ltext0:
	.cfi_sections	.debug_frame
	.align 2
	.globl jpeg_idct_float
	.type	jpeg_idct_float, @function
jpeg_idct_float:
.LFB0:
	.file 1 "d:/Data/Nintendo/DoomGX/src/renderer/jpeg-6/jidctflt.c.c"
	.loc 1 71 0
	.cfi_startproc
.LVL0:
	stwu 1,-448(1)
.LCFI0:
	.cfi_def_cfa_offset 448
	.loc 1 122 0
	li 8,8
	lis 0,0x4330
	mtctr 8
	.loc 1 71 0
	stw 20,368(1)
	lis 20,.LC2@ha
	.cfi_offset 20, -80
	stw 21,372(1)
	lis 21,.LC3@ha
	.cfi_offset 21, -76
	stw 22,376(1)
	lis 22,.LC4@ha
	.cfi_offset 22, -72
	stw 23,380(1)
	lis 23,.LC5@ha
	.cfi_offset 23, -68
	stw 24,384(1)
	lis 24,.LC1@ha
	.cfi_offset 24, -64
	stfd 28,416(1)
	.loc 1 88 0
	addi 10,1,8
	.loc 1 71 0
	stfd 29,424(1)
	la 24,.LC1@l(24)
	stfd 30,432(1)
	la 20,.LC2@l(20)
	stfd 31,440(1)
	la 21,.LC3@l(21)
	stw 25,388(1)
	la 22,.LC4@l(22)
	stw 26,392(1)
	la 23,.LC5@l(23)
	stw 27,396(1)
	stw 28,400(1)
	stw 29,404(1)
	stw 30,408(1)
	stw 31,412(1)
	.loc 1 79 0
	lwz 9,284(3)
	.loc 1 87 0
	li 3,0
.LVL1:
	lwz 11,80(4)
	li 4,0
.LVL2:
	.loc 1 79 0
	addi 9,9,128
.LVL3:
	b .L4
	.cfi_offset 31, -36
	.cfi_offset 30, -40
	.cfi_offset 29, -44
	.cfi_offset 28, -48
	.cfi_offset 27, -52
	.cfi_offset 26, -56
	.cfi_offset 25, -60
	.cfi_offset 63, -8
	.cfi_offset 62, -16
	.cfi_offset 61, -24
	.cfi_offset 60, -32
.LVL4:
.L10:
.LBB2:
	.loc 1 103 0
	xoris 8,8,0x8000
	stw 0,264(1)
	stw 8,268(1)
.LBE2:
	.loc 1 172 0
	addi 4,4,2
.LBB3:
	.loc 1 103 0
	lfs 0,0(24)
	lfd 12,264(1)
	lfsx 13,11,3
.LBE3:
	.loc 1 172 0
	addi 3,3,4
.LBB4:
	.loc 1 103 0
	fsub 0,12,0
	frsp 0,0
	fmuls 0,0,13
.LVL5:
	.loc 1 105 0
	stfs 0,0(10)
	.loc 1 106 0
	stfs 0,32(10)
	.loc 1 107 0
	stfs 0,64(10)
	.loc 1 108 0
	stfs 0,96(10)
	.loc 1 109 0
	stfs 0,128(10)
	.loc 1 110 0
	stfs 0,160(10)
	.loc 1 111 0
	stfs 0,192(10)
	.loc 1 112 0
	stfs 0,224(10)
	.loc 1 116 0
	addi 10,10,4
.LVL6:
.LBE4:
	.loc 1 89 0
	bdz .L9
.LVL7:
.L4:
	.loc 1 68 0
	add 8,5,4
	.loc 1 99 0
	lha 29,16(8)
	lha 26,32(8)
	lha 30,48(8)
	.loc 1 100 0
	lha 27,64(8)
	.loc 1 101 0
	or 25,26,29
	.loc 1 100 0
	lha 31,80(8)
	.loc 1 101 0
	or 25,30,25
	.loc 1 100 0
	lha 28,96(8)
	.loc 1 101 0
	or 25,27,25
	lha 12,112(8)
	or 8,31,25
	or 8,28,8
	.loc 1 99 0
	or. 25,12,8
.LBB5:
	.loc 1 103 0
	lhax 8,5,4
.LBE5:
	.loc 1 99 0
	beq- 0,.L10
	.loc 1 122 0
	xoris 8,8,0x8000
	stw 0,272(1)
	stw 8,276(1)
	.loc 1 123 0
	xoris 26,26,0x8000
	.loc 1 122 0
	mr 8,11
	.loc 1 124 0
	xoris 27,27,0x8000
	.loc 1 122 0
	lfsux 3,8,3
	.loc 1 125 0
	xoris 28,28,0x8000
	.loc 1 123 0
	stw 26,284(1)
	.loc 1 140 0
	xoris 29,29,0x8000
	.loc 1 123 0
	stw 0,280(1)
	.loc 1 141 0
	xoris 30,30,0x8000
	.loc 1 142 0
	xoris 31,31,0x8000
	.loc 1 143 0
	xoris 12,12,0x8000
	.loc 1 123 0
	lfs 1,64(8)
	.loc 1 172 0
	addi 4,4,2
	.loc 1 124 0
	stw 27,292(1)
	.loc 1 172 0
	addi 3,3,4
	.loc 1 124 0
	stw 0,288(1)
	.loc 1 122 0
	lfs 0,0(24)
	.loc 1 124 0
	lfs 30,128(8)
	.loc 1 125 0
	stw 28,300(1)
	stw 0,296(1)
	.loc 1 155 0
	lfs 29,0(21)
	.loc 1 125 0
	lfs 31,192(8)
	.loc 1 140 0
	stw 29,308(1)
	stw 0,304(1)
	.loc 1 125 0
	lfd 2,296(1)
	.loc 1 140 0
	lfs 10,32(8)
	.loc 1 141 0
	stw 30,316(1)
	.loc 1 125 0
	fsub 2,2,0
	.loc 1 141 0
	stw 0,312(1)
	.loc 1 140 0
	lfd 13,304(1)
	.loc 1 141 0
	lfs 7,96(8)
	.loc 1 125 0
	frsp 2,2
	.loc 1 142 0
	stw 31,324(1)
	.loc 1 140 0
	fsub 13,13,0
	.loc 1 142 0
	stw 0,320(1)
	.loc 1 141 0
	lfd 5,312(1)
	.loc 1 125 0
	fmuls 2,2,31
	.loc 1 142 0
	lfs 8,160(8)
	.loc 1 140 0
	frsp 13,13
	.loc 1 143 0
	stw 12,332(1)
	.loc 1 141 0
	fsub 5,5,0
	.loc 1 143 0
	stw 0,328(1)
	.loc 1 142 0
	lfd 9,320(1)
	.loc 1 143 0
	lfd 11,328(1)
	.loc 1 141 0
	frsp 5,5
	.loc 1 142 0
	fsub 9,9,0
	.loc 1 143 0
	lfs 12,224(8)
	fsub 11,11,0
	.loc 1 123 0
	lfd 6,280(1)
	.loc 1 124 0
	lfd 4,288(1)
	.loc 1 142 0
	frsp 9,9
	.loc 1 154 0
	lfs 31,0(23)
	.loc 1 143 0
	frsp 11,11
	.loc 1 123 0
	fsub 6,6,0
	.loc 1 142 0
	fmuls 9,9,8
	.loc 1 143 0
	fmuls 11,11,12
	.loc 1 68 0
	fneg 12,5
	.loc 1 124 0
	fsub 4,4,0
	.loc 1 148 0
	fmsubs 8,13,10,11
	.loc 1 146 0
	fmadds 12,12,7,9
	.loc 1 145 0
	fmadds 5,5,7,9
	.loc 1 155 0
	lfs 7,0(22)
	.loc 1 147 0
	fmadds 13,13,10,11
	.loc 1 122 0
	lfd 10,272(1)
	.loc 1 153 0
	fadds 9,12,8
	.loc 1 155 0
	fmuls 12,12,29
	.loc 1 150 0
	fadds 11,13,5
	.loc 1 123 0
	frsp 6,6
	.loc 1 155 0
	fmadds 12,9,7,12
	.loc 1 122 0
	fsub 0,10,0
	.loc 1 124 0
	frsp 4,4
	.loc 1 130 0
	fmadds 10,6,1,2
	.loc 1 157 0
	fsubs 12,12,11
	.loc 1 124 0
	fmuls 4,4,30
	.loc 1 122 0
	frsp 0,0
.LVL8:
	.loc 1 151 0
	fsubs 13,13,5
	.loc 1 131 0
	lfs 5,0(20)
	.loc 1 154 0
	fmuls 31,8,31
	.loc 1 131 0
	fmsubs 6,6,1,2
.LVL9:
	.loc 1 68 0
	fneg 9,9
	.loc 1 127 0
	fmadds 8,0,3,4
.LVL10:
	.loc 1 131 0
	fmsubs 6,6,5,10
	.loc 1 158 0
	fmsubs 13,13,5,12
	.loc 1 128 0
	fmsubs 0,0,3,4
.LVL11:
	.loc 1 154 0
	fmadds 9,9,7,31
	.loc 1 133 0
	fadds 7,8,10
.LVL12:
	.loc 1 134 0
	fsubs 10,8,10
.LVL13:
	.loc 1 159 0
	fadds 9,9,13
	.loc 1 135 0
	fadds 8,0,6
.LVL14:
	.loc 1 136 0
	fsubs 0,0,6
.LVL15:
	.loc 1 161 0
	fadds 3,7,11
	.loc 1 163 0
	fadds 4,8,12
	.loc 1 165 0
	fadds 5,0,13
	.loc 1 167 0
	fadds 6,10,9
	.loc 1 161 0
	stfs 3,0(10)
	.loc 1 162 0
	fsubs 11,7,11
.LVL16:
	.loc 1 163 0
	stfs 4,32(10)
	.loc 1 164 0
	fsubs 12,8,12
.LVL17:
	.loc 1 165 0
	stfs 5,64(10)
	.loc 1 166 0
	fsubs 13,0,13
.LVL18:
	.loc 1 167 0
	stfs 6,128(10)
	.loc 1 168 0
	fsubs 10,10,9
.LVL19:
	.loc 1 162 0
	stfs 11,224(10)
	.loc 1 164 0
	stfs 12,192(10)
	.loc 1 166 0
	stfs 13,160(10)
	.loc 1 168 0
	stfs 10,96(10)
	.loc 1 172 0
	addi 10,10,4
.LVL20:
	.loc 1 89 0
	bdnz .L4
.LVL21:
.L9:
	.loc 1 211 0
	li 0,8
	.loc 1 193 0
	lfs 30,0(20)
	.loc 1 212 0
	lfs 28,0(21)
	.loc 1 211 0
	mtctr 0
	.loc 1 212 0
	lfs 31,0(22)
	.loc 1 68 0
	addi 6,6,-4
.LVL22:
	.loc 1 211 0
	lfs 29,0(23)
	.loc 1 68 0
	addi 11,1,8
.LVL23:
.L5:
	.loc 1 192 0 discriminator 2
	lfs 12,8(11)
	.loc 1 220 0 discriminator 2
	addi 8,1,336
	.loc 1 202 0 discriminator 2
	lfs 11,12(11)
	.loc 1 222 0 discriminator 2
	addi 25,1,340
	.loc 1 204 0 discriminator 2
	lfs 0,28(11)
	.loc 1 189 0 discriminator 2
	lfs 3,0(11)
	lfs 6,16(11)
	.loc 1 192 0 discriminator 2
	lfs 7,24(11)
	.loc 1 202 0 discriminator 2
	lfs 1,20(11)
	.loc 1 189 0 discriminator 2
	fadds 10,3,6
	.loc 1 204 0 discriminator 2
	lfs 9,4(11)
	.loc 1 192 0 discriminator 2
	fadds 13,12,7
	.loc 1 202 0 discriminator 2
	fadds 5,1,11
	.loc 1 237 0 discriminator 2
	addi 11,11,32
	.loc 1 204 0 discriminator 2
	fadds 4,9,0
	.loc 1 195 0 discriminator 2
	fadds 2,10,13
	.loc 1 203 0 discriminator 2
	fsubs 1,1,11
	.loc 1 207 0 discriminator 2
	fadds 11,4,5
	.loc 1 205 0 discriminator 2
	fsubs 9,9,0
	.loc 1 193 0 discriminator 2
	fsubs 7,12,7
	.loc 1 220 0 discriminator 2
	fadds 0,2,11
	.loc 1 210 0 discriminator 2
	fadds 8,1,9
	.loc 1 212 0 discriminator 2
	fmuls 1,1,28
	.loc 1 220 0 discriminator 2
	fctiwz 0,0
	.loc 1 222 0 discriminator 2
	fsubs 2,2,11
	.loc 1 193 0 discriminator 2
	fmsubs 7,7,30,13
	.loc 1 220 0 discriminator 2
	stfiwx 0,0,8
	.loc 1 190 0 discriminator 2
	fsubs 6,3,6
	.loc 1 212 0 discriminator 2
	fmadds 12,8,31,1
	.loc 1 220 0 discriminator 2
	lwz 10,336(1)
	.loc 1 222 0 discriminator 2
	fctiwz 2,2
	.loc 1 197 0 discriminator 2
	fadds 0,6,7
	.loc 1 220 0 discriminator 2
	addi 0,10,4
	.loc 1 180 0 discriminator 2
	lwzu 10,4(6)
	.loc 1 220 0 discriminator 2
	rlwinm 0,0,29,22,31
	.loc 1 214 0 discriminator 2
	fsubs 12,12,11
	.loc 1 220 0 discriminator 2
	lbzx 0,9,0
	.loc 1 208 0 discriminator 2
	fsubs 5,4,5
	.loc 1 68 0 discriminator 2
	fneg 8,8
	.loc 1 220 0 discriminator 2
	stbx 0,10,7
	.loc 1 224 0 discriminator 2
	fadds 11,0,12
	.loc 1 222 0 discriminator 2
	stfiwx 2,0,25
	.loc 1 180 0 discriminator 2
	add 10,10,7
.LVL24:
	.loc 1 226 0 discriminator 2
	fsubs 0,0,12
	addi 25,1,348
	.loc 1 222 0 discriminator 2
	lwz 8,340(1)
	.loc 1 224 0 discriminator 2
	fctiwz 11,11
	.loc 1 211 0 discriminator 2
	fmuls 9,9,29
	.loc 1 222 0 discriminator 2
	addi 0,8,4
	.loc 1 224 0 discriminator 2
	addi 8,1,344
	.loc 1 222 0 discriminator 2
	rlwinm 0,0,29,22,31
	.loc 1 196 0 discriminator 2
	fsubs 13,10,13
.LVL25:
	.loc 1 222 0 discriminator 2
	lbzx 0,9,0
	.loc 1 211 0 discriminator 2
	fmadds 9,8,31,9
	.loc 1 222 0 discriminator 2
	stb 0,7(10)
	.loc 1 224 0 discriminator 2
	stfiwx 11,0,8
	.loc 1 226 0 discriminator 2
	fctiwz 11,0
	.loc 1 215 0 discriminator 2
	fmsubs 0,5,30,12
	.loc 1 224 0 discriminator 2
	lwz 8,344(1)
	.loc 1 198 0 discriminator 2
	fsubs 12,6,7
	.loc 1 224 0 discriminator 2
	addi 0,8,4
	rlwinm 0,0,29,22,31
	lbzx 0,9,0
	stb 0,1(10)
	.loc 1 226 0 discriminator 2
	stfiwx 11,0,25
	.loc 1 228 0 discriminator 2
	fadds 11,12,0
	.loc 1 230 0 discriminator 2
	fsubs 12,12,0
	addi 25,1,356
	.loc 1 226 0 discriminator 2
	lwz 8,348(1)
	.loc 1 216 0 discriminator 2
	fadds 0,9,0
	.loc 1 228 0 discriminator 2
	fctiwz 11,11
	.loc 1 226 0 discriminator 2
	addi 0,8,4
	.loc 1 228 0 discriminator 2
	addi 8,1,352
	.loc 1 226 0 discriminator 2
	rlwinm 0,0,29,22,31
	.loc 1 230 0 discriminator 2
	fctiwz 12,12
	.loc 1 226 0 discriminator 2
	lbzx 0,9,0
	stb 0,6(10)
	.loc 1 228 0 discriminator 2
	stfiwx 11,0,8
	lwz 8,352(1)
.LVL26:
	addi 0,8,4
	rlwinm 0,0,29,22,31
	lbzx 0,9,0
	stb 0,2(10)
	.loc 1 230 0 discriminator 2
	stfiwx 12,0,25
	.loc 1 232 0 discriminator 2
	fadds 12,13,0
	.loc 1 234 0 discriminator 2
	fsubs 0,13,0
.LVL27:
	addi 25,1,364
	.loc 1 230 0 discriminator 2
	lwz 8,356(1)
	.loc 1 232 0 discriminator 2
	fctiwz 12,12
	.loc 1 230 0 discriminator 2
	addi 0,8,4
	.loc 1 232 0 discriminator 2
	addi 8,1,360
	.loc 1 230 0 discriminator 2
	rlwinm 0,0,29,22,31
	.loc 1 234 0 discriminator 2
	fctiwz 0,0
	.loc 1 230 0 discriminator 2
	lbzx 0,9,0
	stb 0,5(10)
	.loc 1 232 0 discriminator 2
	stfiwx 12,0,8
.LVL28:
	lwz 8,360(1)
	addi 0,8,4
	rlwinm 0,0,29,22,31
	lbzx 0,9,0
	stb 0,4(10)
	.loc 1 234 0 discriminator 2
	stfiwx 0,0,25
	lwz 8,364(1)
	addi 0,8,4
	rlwinm 0,0,29,22,31
	lbzx 0,9,0
	stb 0,3(10)
	.loc 1 179 0 discriminator 2
	bdnz .L5
	.loc 1 239 0
	lwz 20,368(1)
	lwz 21,372(1)
	lwz 22,376(1)
	lwz 23,380(1)
	lwz 24,384(1)
	lwz 25,388(1)
	lwz 26,392(1)
	lwz 27,396(1)
	lwz 28,400(1)
	lwz 29,404(1)
	lwz 30,408(1)
	lwz 31,412(1)
	lfd 28,416(1)
	lfd 29,424(1)
	lfd 30,432(1)
	lfd 31,440(1)
	addi 1,1,448
.LCFI1:
	.cfi_def_cfa_offset 0
	.cfi_restore 63
	.cfi_restore 62
	.cfi_restore 61
	.cfi_restore 60
	.cfi_restore 31
	.cfi_restore 30
	.cfi_restore 29
	.cfi_restore 28
	.cfi_restore 27
	.cfi_restore 26
	.cfi_restore 25
	.cfi_restore 24
	.cfi_restore 23
	.cfi_restore 22
	.cfi_restore 21
	.cfi_restore 20
	blr
	.cfi_endproc
.LFE0:
	.size	jpeg_idct_float, .-jpeg_idct_float
	.section	.rodata.cst4,"aM",@progbits,4
	.align 2
.LC1:
	.4byte	1501560836
.LC2:
	.4byte	1068827891
.LC3:
	.4byte	-1071170187
.LC4:
	.4byte	1072464734
.LC5:
	.4byte	1066044372
	.section	".text"
.Letext0:
	.file 2 "c:\\utils\\devkitpro\\devkitppc\\bin\\../lib/gcc/powerpc-eabi/4.6.3/include/stddef.h"
	.file 3 "d:/Data/Nintendo/DoomGX/src/renderer/jpeg-6/jpeglib.h"
	.file 4 "d:/Data/Nintendo/DoomGX/src/renderer/jpeg-6/../jpeg-6/jmorecfg.h"
	.file 5 "d:/Data/Nintendo/DoomGX/src/renderer/jpeg-6/../jpeg-6/jpegint.h"
	.file 6 "d:/Data/Nintendo/DoomGX/src/renderer/jpeg-6/jdct.h"