	.file	"jutils.c.c"
	.section	".text"
.Ltext0:
	.cfi_sections	.debug_frame
	.align 2
	.globl jdiv_round_up
	.type	jdiv_round_up, @function
jdiv_round_up:
.LFB0:
	.file 1 "d:/Data/Nintendo/DoomGX/src/renderer/jpeg-6/jutils.c.c"
	.loc 1 71 0
	.cfi_startproc
.LVL0:
	.loc 1 72 0
	add 3,3,4
.LVL1:
	.loc 1 73 0
	.loc 1 72 0
	addi 3,3,-1
	.loc 1 73 0
	divw 3,3,4
	blr
	.cfi_endproc
.LFE0:
	.size	jdiv_round_up, .-jdiv_round_up
	.align 2
	.globl jround_up
	.type	jround_up, @function
jround_up:
.LFB1:
	.loc 1 80 0
	.cfi_startproc
.LVL2:
	.loc 1 81 0
	addi 0,4,-1
	.loc 1 83 0
	.loc 1 81 0
	add 3,0,3
.LVL3:
	.loc 1 82 0
	divw 3,3,4
.LVL4:
	.loc 1 83 0
	mullw 3,3,4
	blr
	.cfi_endproc
.LFE1:
	.size	jround_up, .-jround_up
	.align 2
	.globl jcopy_sample_rows
	.type	jcopy_sample_rows, @function
jcopy_sample_rows:
.LFB2:
	.loc 1 115 0
	.cfi_startproc
.LVL5:
	.loc 1 127 0
	cmpwi 0,7,0
	.loc 1 115 0
	mflr 0
	stwu 1,-32(1)
.LCFI0:
	.cfi_def_cfa_offset 32
	.cfi_register 65, 0
	stw 29,20(1)
	mr 29,8
	.cfi_offset 29, -12
.LVL6:
	stw 0,36(1)
	stw 30,24(1)
	stw 31,28(1)
	.loc 1 127 0
	ble- 0,.L3
	.cfi_offset 31, -4
	.cfi_offset 30, -8
	.cfi_offset 65, 4
.LVL7:
	.loc 1 124 0
	slwi 4,4,2
.LVL8:
	.loc 1 125 0
	slwi 31,6,2
	.loc 1 124 0
	add 3,3,4
	.loc 1 125 0
	add 31,5,31
	.loc 1 107 0
	stw 7,8(1)
	addi 30,3,-4
	addi 31,31,-4
.LVL9:
.L5:
	.loc 1 131 0 discriminator 2
	lwzu 3,4(31)
.LVL10:
	mr 5,29
	lwzu 4,4(30)
.LVL11:
	bl memcpy
.LVL12:
	.loc 1 127 0 discriminator 2
	lwz 0,8(1)
	addic. 9,0,-1
	stw 9,8(1)
	bne+ 0,.L5
.LVL13:
.L3:
	.loc 1 137 0
	lwz 0,36(1)
	lwz 29,20(1)
.LVL14:
	mtlr 0
	lwz 30,24(1)
	lwz 31,28(1)
	addi 1,1,32
.LCFI1:
	.cfi_def_cfa_offset 0
	.cfi_restore 31
	.cfi_restore 30
	.cfi_restore 29
	blr
	.cfi_endproc
.LFE2:
	.size	jcopy_sample_rows, .-jcopy_sample_rows
	.align 2
	.globl jcopy_block_row
	.type	jcopy_block_row, @function
jcopy_block_row:
.LFB3:
	.loc 1 144 0
	.cfi_startproc
.LVL15:
	mflr 0
	stwu 1,-8(1)
.LCFI2:
	.cfi_def_cfa_offset 8
	.cfi_register 65, 0
	.loc 1 146 0
	slwi 5,5,7
.LVL16:
	.loc 1 144 0
	stw 0,12(1)
	.loc 1 144 0
	mr 0,3
	.cfi_offset 65, 4
	.loc 1 146 0
	mr 3,4
.LVL17:
	mr 4,0
.LVL18:
	bl memcpy
.LVL19:
	.loc 1 157 0
	lwz 0,12(1)
	addi 1,1,8
.LCFI3:
	.cfi_def_cfa_offset 0
	mtlr 0
	blr
	.cfi_endproc
.LFE3:
	.size	jcopy_block_row, .-jcopy_block_row
	.align 2
	.globl jzero_far
	.type	jzero_far, @function
jzero_far:
.LFB4:
	.loc 1 164 0
	.cfi_startproc
.LVL20:
	mflr 0
	stwu 1,-8(1)
.LCFI4:
	.cfi_def_cfa_offset 8
	.cfi_register 65, 0
	mr 5,4
	.loc 1 166 0
	li 4,0
.LVL21:
	.loc 1 164 0
	stw 0,12(1)
	.loc 1 166 0
	.cfi_offset 65, 4
	bl memset
.LVL22:
	.loc 1 175 0
	lwz 0,12(1)
	addi 1,1,8
.LCFI5:
	.cfi_def_cfa_offset 0
	mtlr 0
	blr
	.cfi_endproc
.LFE4:
	.size	jzero_far, .-jzero_far
	.globl jpeg_natural_order
	.globl jpeg_zigzag_order
	.section	.rodata
	.align 2
	.type	jpeg_natural_order, @object
	.size	jpeg_natural_order, 320
jpeg_natural_order:
	.long	0
	.long	1
	.long	8
	.long	16
	.long	9
	.long	2
	.long	3
	.long	10
	.long	17
	.long	24
	.long	32
	.long	25
	.long	18
	.long	11
	.long	4
	.long	5
	.long	12
	.long	19
	.long	26
	.long	33
	.long	40
	.long	48
	.long	41
	.long	34
	.long	27
	.long	20
	.long	13
	.long	6
	.long	7
	.long	14
	.long	21
	.long	28
	.long	35
	.long	42
	.long	49
	.long	56
	.long	57
	.long	50
	.long	43
	.long	36
	.long	29
	.long	22
	.long	15
	.long	23
	.long	30
	.long	37
	.long	44
	.long	51
	.long	58
	.long	59
	.long	52
	.long	45
	.long	38
	.long	31
	.long	39
	.long	46
	.long	53
	.long	60
	.long	61
	.long	54
	.long	47
	.long	55
	.long	62
	.long	63
	.long	63
	.long	63
	.long	63
	.long	63
	.long	63
	.long	63
	.long	63
	.long	63
	.long	63
	.long	63
	.long	63
	.long	63
	.long	63
	.long	63
	.long	63
	.long	63
	.type	jpeg_zigzag_order, @object
	.size	jpeg_zigzag_order, 256
jpeg_zigzag_order:
	.long	0
	.long	1
	.long	5
	.long	6
	.long	14
	.long	15
	.long	27
	.long	28
	.long	2
	.long	4
	.long	7
	.long	13
	.long	16
	.long	26
	.long	29
	.long	42
	.long	3
	.long	8
	.long	12
	.long	17
	.long	25
	.long	30
	.long	41
	.long	43
	.long	9
	.long	11
	.long	18
	.long	24
	.long	31
	.long	40
	.long	44
	.long	53
	.long	10
	.long	19
	.long	23
	.long	32
	.long	39
	.long	45
	.long	52
	.long	54
	.long	20
	.long	22
	.long	33
	.long	38
	.long	46
	.long	51
	.long	55
	.long	60
	.long	21
	.long	34
	.long	37
	.long	47
	.long	50
	.long	56
	.long	59
	.long	61
	.long	35
	.long	36
	.long	48
	.long	49
	.long	57
	.long	58
	.long	62
	.long	63
	.section	".text"
.Letext0:
	.file 2 "c:\\utils\\devkitpro\\devkitppc\\bin\\../lib/gcc/powerpc-eabi/4.6.3/include/stddef.h"
	.file 3 "d:/Data/Nintendo/DoomGX/src/renderer/jpeg-6/../jpeg-6/jmorecfg.h"
	.file 4 "d:/Data/Nintendo/DoomGX/src/renderer/jpeg-6/jpeglib.h"