	.file	"Lexer.cpp"
	.section	".text"
.Ltext0:
	.section	.text._ZN14idFixedWinding5ClearEv,"axG",@progbits,_ZN14idFixedWinding5ClearEv,comdat
	.align 2
	.weak	_ZN14idFixedWinding5ClearEv
	.type	_ZN14idFixedWinding5ClearEv, @function
_ZN14idFixedWinding5ClearEv:
.LFB1502:
	.file 1 "d:/Data/Nintendo/DoomGX/src/idlib/../idlib/geometry/Winding.h"
	.loc 1 398 0
	.cfi_startproc
.LVL0:
	.loc 1 399 0
	li 0,0
	.loc 1 400 0
	.loc 1 399 0
	stw 0,4(3)
	.loc 1 400 0
	blr
	.cfi_endproc
.LFE1502:
	.size	_ZN14idFixedWinding5ClearEv, .-_ZN14idFixedWinding5ClearEv
	.section	.text._ZN9idWinding5ClearEv,"axG",@progbits,_ZN9idWinding5ClearEv,comdat
	.align 2
	.weak	_ZN9idWinding5ClearEv
	.type	_ZN9idWinding5ClearEv, @function
_ZN9idWinding5ClearEv:
.LFB1473:
	.loc 1 249 0
	.cfi_startproc
.LVL1:
	mflr 0
	stwu 1,-16(1)
.LCFI0:
	.cfi_def_cfa_offset 16
	.cfi_register 65, 0
	stw 31,12(1)
	mr 31,3
	.cfi_offset 31, -4
	stw 0,20(1)
	.loc 1 250 0
	li 0,0
	.cfi_offset 65, 4
	.loc 1 251 0
	lwz 3,8(3)
.LVL2:
	.loc 1 250 0
	stw 0,4(31)
	.loc 1 251 0
	cmpwi 7,3,0
	beq- 7,.L3
	.loc 1 251 0 is_stmt 0 discriminator 1
	bl _ZdaPv
.L3:
	.loc 1 252 0 is_stmt 1
	li 0,0
	stw 0,8(31)
	.loc 1 253 0
	lwz 0,20(1)
	lwz 31,12(1)
.LVL3:
	mtlr 0
	addi 1,1,16
.LCFI1:
	.cfi_def_cfa_offset 0
	.cfi_restore 31
	blr
	.cfi_endproc
.LFE1473:
	.size	_ZN9idWinding5ClearEv, .-_ZN9idWinding5ClearEv
	.section	.text._ZN9idWindingD2Ev,"axG",@progbits,_ZN9idWindingD5Ev,comdat
	.align 2
	.weak	_ZN9idWindingD2Ev
	.type	_ZN9idWindingD2Ev, @function
_ZN9idWindingD2Ev:
.LFB1461:
	.loc 1 183 0
	.cfi_startproc
.LVL4:
	mflr 0
	stwu 1,-16(1)
.LCFI2:
	.cfi_def_cfa_offset 16
	.cfi_register 65, 0
.LBB1194:
	lis 9,_ZTV9idWinding+8@ha
.LBE1194:
	stw 31,12(1)
	mr 31,3
	.cfi_offset 31, -4
	stw 0,20(1)
.LBB1195:
	.loc 1 183 0
	la 0,_ZTV9idWinding+8@l(9)
	.cfi_offset 65, 4
	.loc 1 184 0
	lwz 3,8(3)
.LVL5:
	.loc 1 183 0
	stw 0,0(31)
	.loc 1 184 0
	cmpwi 7,3,0
	beq- 7,.L6
	.loc 1 184 0 is_stmt 0 discriminator 1
	bl _ZdaPv
.L6:
	.loc 1 185 0 is_stmt 1
	li 0,0
	stw 0,8(31)
.LBE1195:
	.loc 1 186 0
	lwz 0,20(1)
	lwz 31,12(1)
.LVL6:
	mtlr 0
	addi 1,1,16
.LCFI3:
	.cfi_def_cfa_offset 0
	.cfi_restore 31
	blr
	.cfi_endproc
.LFE1461:
	.size	_ZN9idWindingD2Ev, .-_ZN9idWindingD2Ev
	.section	.text._ZN9idWindingD0Ev,"axG",@progbits,_ZN9idWindingD5Ev,comdat
	.align 2
	.weak	_ZN9idWindingD0Ev
	.type	_ZN9idWindingD0Ev, @function
_ZN9idWindingD0Ev:
.LFB1463:
	.loc 1 183 0
	.cfi_startproc
.LVL7:
	mflr 0
	stwu 1,-16(1)
.LCFI4:
	.cfi_def_cfa_offset 16
	.cfi_register 65, 0
.LBB1199:
.LBB1200:
.LBB1201:
	lis 9,_ZTV9idWinding+8@ha
.LBE1201:
.LBE1200:
.LBE1199:
	stw 31,12(1)
	mr 31,3
	.cfi_offset 31, -4
.LVL8:
	stw 0,20(1)
.LBB1206:
.LBB1204:
.LBB1202:
	.loc 1 183 0
	la 0,_ZTV9idWinding+8@l(9)
	.cfi_offset 65, 4
	.loc 1 184 0
	lwz 3,8(3)
.LVL9:
	.loc 1 183 0
	stw 0,0(31)
	.loc 1 184 0
	cmpwi 7,3,0
	beq- 7,.L9
	bl _ZdaPv
.LVL10:
.L9:
	.loc 1 185 0
	li 0,0
.LBE1202:
.LBE1204:
.LBE1206:
	.loc 1 186 0
	mr 3,31
.LBB1207:
.LBB1205:
.LBB1203:
	.loc 1 185 0
	stw 0,8(31)
.LBE1203:
.LBE1205:
.LBE1207:
	.loc 1 186 0
	bl _ZdlPv
	lwz 0,20(1)
	lwz 31,12(1)
.LVL11:
	mtlr 0
	addi 1,1,16
.LCFI5:
	.cfi_def_cfa_offset 0
	.cfi_restore 31
	blr
	.cfi_endproc
.LFE1463:
	.size	_ZN9idWindingD0Ev, .-_ZN9idWindingD0Ev
	.section	.text._ZN14idFixedWindingD0Ev,"axG",@progbits,_ZN14idFixedWindingD5Ev,comdat
	.align 2
	.weak	_ZN14idFixedWindingD0Ev
	.type	_ZN14idFixedWindingD0Ev, @function
_ZN14idFixedWindingD0Ev:
.LFB1500:
	.loc 1 380 0
	.cfi_startproc
.LVL12:
	mflr 0
	stwu 1,-8(1)
.LCFI6:
	.cfi_def_cfa_offset 8
	.cfi_register 65, 0
.LBB1214:
.LBB1215:
.LBB1216:
.LBB1217:
.LBB1218:
.LBB1219:
	.loc 1 183 0
	lis 11,_ZTV9idWinding+8@ha
.LBE1219:
.LBE1218:
.LBE1217:
.LBE1216:
.LBE1215:
.LBE1214:
	.loc 1 380 0
	stw 0,12(1)
.LBB1225:
.LBB1224:
.LBB1223:
	.loc 1 381 0
	li 0,0
	.cfi_offset 65, 4
	stw 0,8(3)
.LVL13:
.LBB1222:
.LBB1221:
.LBB1220:
	.loc 1 183 0
	la 0,_ZTV9idWinding+8@l(11)
	stw 0,0(3)
.LBE1220:
.LBE1221:
.LBE1222:
.LBE1223:
.LBE1224:
.LBE1225:
	.loc 1 382 0
	bl _ZdlPv
.LVL14:
	lwz 0,12(1)
	addi 1,1,8
.LCFI7:
	.cfi_def_cfa_offset 0
	mtlr 0
	blr
	.cfi_endproc
.LFE1500:
	.size	_ZN14idFixedWindingD0Ev, .-_ZN14idFixedWindingD0Ev
	.section	.text._ZN14idFixedWindingD2Ev,"axG",@progbits,_ZN14idFixedWindingD5Ev,comdat
	.align 2
	.weak	_ZN14idFixedWindingD2Ev
	.type	_ZN14idFixedWindingD2Ev, @function
_ZN14idFixedWindingD2Ev:
.LFB1498:
	.loc 1 380 0
	.cfi_startproc
.LVL15:
.LBB1230:
	.loc 1 381 0
	li 0,0
.LBB1231:
.LBB1232:
.LBB1233:
	.loc 1 183 0
	lis 9,_ZTV9idWinding+8@ha
.LBE1233:
.LBE1232:
.LBE1231:
	.loc 1 381 0
	stw 0,8(3)
.LVL16:
.LBB1236:
.LBB1235:
.LBB1234:
	.loc 1 183 0
	la 0,_ZTV9idWinding+8@l(9)
	stw 0,0(3)
.LBE1234:
.LBE1235:
.LBE1236:
.LBE1230:
	.loc 1 382 0
	blr
	.cfi_endproc
.LFE1498:
	.size	_ZN14idFixedWindingD2Ev, .-_ZN14idFixedWindingD2Ev
	.section	".text"
	.align 2
	.globl _ZN7idLexer22CreatePunctuationTableEPK13punctuation_s
	.type	_ZN7idLexer22CreatePunctuationTableEPK13punctuation_s, @function
_ZN7idLexer22CreatePunctuationTableEPK13punctuation_s:
.LFB2538:
	.file 2 "d:/Data/Nintendo/DoomGX/src/idlib/Lexer.cpp"
	.loc 2 120 0
	.cfi_startproc
.LVL17:
	mflr 0
	stwu 1,-56(1)
.LCFI8:
	.cfi_def_cfa_offset 56
	.cfi_register 65, 0
.LBB1237:
	.loc 2 125 0
	lis 9,.LANCHOR1@ha
.LBE1237:
	.loc 2 120 0
	stw 30,48(1)
	mr 30,3
	.cfi_offset 30, -8
	stw 0,60(1)
.LBB1238:
	.loc 2 125 0
	la 0,.LANCHOR1@l(9)
	.cfi_offset 65, 4
	cmpw 7,4,0
.LBE1238:
	.loc 2 120 0
	stw 31,52(1)
	stw 21,12(1)
	mr 31,4
	.cfi_offset 21, -44
	.cfi_offset 31, -4
	stw 22,16(1)
	stw 23,20(1)
	stw 24,24(1)
	stw 25,28(1)
	stw 26,32(1)
	stw 27,36(1)
	stw 28,40(1)
	stw 29,44(1)
.LBB1239:
	.loc 2 125 0
	beq- 7,.L43
	.cfi_offset 29, -12
	.cfi_offset 28, -16
	.cfi_offset 27, -20
	.cfi_offset 26, -24
	.cfi_offset 25, -28
	.cfi_offset 24, -32
	.cfi_offset 23, -36
	.cfi_offset 22, -40
	.loc 2 135 0
	lwz 0,112(3)
	cmpwi 7,0,0
	beq- 7,.L23
	.loc 2 135 0 is_stmt 0 discriminator 1
	lis 9,.LANCHOR0@ha
	la 9,.LANCHOR0@l(9)
	cmpw 7,0,9
	beq- 7,.L23
.LVL18:
.L24:
	.loc 2 138 0 is_stmt 1
	lwz 3,116(30)
	cmpwi 7,3,0
	beq- 7,.L25
	.loc 2 138 0 is_stmt 0 discriminator 1
	lis 9,.LANCHOR0@ha
	la 9,.LANCHOR0@l(9)
	addi 0,9,1024
	cmpw 7,3,0
	beq- 7,.L25
	.loc 2 139 0 is_stmt 1
	bl _Z8Mem_FreePv
.L25:
.LVL19:
	.loc 2 141 0
	lwz 0,0(31)
	li 29,0
	li 3,0
	cmpwi 7,0,0
	beq- 7,.L26
.LVL20:
.L27:
	.loc 2 141 0 is_stmt 0 discriminator 2
	addi 29,29,1
.LVL21:
	.loc 2 120 0 is_stmt 1 discriminator 2
	slwi 0,29,3
	.loc 2 141 0 discriminator 2
	lwzx 0,31,0
	cmpwi 7,0,0
	bne+ 7,.L27
	.loc 2 141 0 is_stmt 0
	slwi 29,29,2
.LVL22:
	mr 3,29
.L26:
	.loc 2 143 0 is_stmt 1
	bl _Z9Mem_Alloci
	stw 3,116(30)
	lwz 3,112(30)
.L22:
	.loc 2 145 0
	li 4,255
	li 5,1024
	bl memset
	.loc 2 146 0
	lwz 3,116(30)
	li 4,255
	mr 5,29
	bl memset
.LVL23:
	.loc 2 148 0
	lwz 3,0(31)
	cmpwi 7,3,0
	beq- 7,.L19
	.loc 2 120 0
	addi 25,31,8
	mr 22,31
	.loc 2 148 0
	li 23,0
	li 24,0
	.loc 2 167 0
	li 21,-1
.LVL24:
.L35:
	.loc 2 152 0
	lbz 0,0(3)
	lwz 9,112(30)
	slwi 0,0,2
	lwzx 29,9,0
.LVL25:
	cmpwi 7,29,0
	blt- 7,.L28
	.loc 2 120 0
	bl strlen
.LVL26:
	.loc 2 152 0
	lwz 28,116(30)
	.loc 2 120 0
	mr 26,3
	.loc 2 150 0
	li 27,-1
	b .L32
.LVL27:
.L29:
	.loc 2 152 0
	lwzx 9,28,0
.LVL28:
	mr 27,29
	cmpwi 7,9,0
	blt- 7,.L44
.LVL29:
	mr 29,9
.LVL30:
.L32:
	.loc 2 154 0
	slwi 0,29,3
	lwzx 3,31,0
	bl strlen
	.loc 2 152 0
	slwi 0,29,2
	.loc 2 154 0
	cmplw 7,3,26
	bge+ 7,.L29
.LVL31:
	.loc 2 156 0
	cmpwi 7,27,-1
	.loc 2 155 0
	slwi 23,23,2
	stwx 29,28,23
	.loc 2 156 0
	beq- 7,.L37
	.loc 2 157 0
	lwz 9,116(30)
	slwi 27,27,2
	stwx 24,9,27
.LVL32:
.L34:
	.loc 2 148 0
	mr 22,25
.LVL33:
	addi 25,25,8
	lwz 3,-8(25)
	addi 24,24,1
.LVL34:
	mr 23,24
	cmpwi 7,3,0
	bne+ 7,.L35
.LVL35:
.L19:
.LBE1239:
	.loc 2 176 0
	lwz 0,60(1)
	lwz 21,12(1)
	mtlr 0
	lwz 22,16(1)
	lwz 23,20(1)
	lwz 24,24(1)
	lwz 25,28(1)
	lwz 26,32(1)
	lwz 27,36(1)
	lwz 28,40(1)
	lwz 29,44(1)
	lwz 30,48(1)
.LVL36:
	lwz 31,52(1)
.LVL37:
	addi 1,1,56
	.cfi_remember_state
.LCFI9:
	.cfi_def_cfa_offset 0
	.cfi_restore 31
	.cfi_restore 30
	.cfi_restore 29
	.cfi_restore 28
	.cfi_restore 27
	.cfi_restore 26
	.cfi_restore 25
	.cfi_restore 24
	.cfi_restore 23
	.cfi_restore 22
	.cfi_restore 21
	blr
.LVL38:
.L44:
.LCFI10:
	.cfi_restore_state
.LBB1240:
	.loc 2 168 0
	cmpwi 7,29,-1
	.loc 2 167 0
	slwi 23,23,2
	stwx 21,28,23
	.loc 2 168 0
	beq- 7,.L37
	.loc 2 169 0
	lwz 9,116(30)
.LVL39:
	stwx 24,9,0
	b .L34
.LVL40:
.L28:
	.loc 2 167 0
	lwz 9,116(30)
	slwi 23,23,2
	stwx 21,9,23
.LVL41:
.L37:
	.loc 2 172 0
	lwz 11,0(22)
	lwz 9,112(30)
	lbz 0,0(11)
	slwi 0,0,2
	stwx 24,9,0
	b .L34
.LVL42:
.L23:
	.loc 2 136 0
	li 3,1024
	bl _Z9Mem_Alloci
	stw 3,112(30)
	b .L24
.L43:
	.loc 2 128 0
	lis 9,default_setup@ha
	.loc 2 126 0
	lis 3,.LANCHOR0@ha
	.loc 2 128 0
	lwz 0,default_setup@l(9)
	.loc 2 126 0
	la 3,.LANCHOR0@l(3)
	stw 3,112(30)
	.loc 2 128 0
	cmpwi 7,0,0
	.loc 2 127 0
	addi 0,3,1024
	stw 0,116(30)
	.loc 2 128 0
	bne- 7,.L19
	.loc 2 131 0
	li 0,1
	li 29,212
	stw 0,default_setup@l(9)
.LVL43:
	b .L22
.LBE1240:
	.cfi_endproc
.LFE2538:
	.size	_ZN7idLexer22CreatePunctuationTableEPK13punctuation_s, .-_ZN7idLexer22CreatePunctuationTableEPK13punctuation_s
	.align 2
	.globl _ZN7idLexer20GetPunctuationFromIdEi
	.type	_ZN7idLexer20GetPunctuationFromIdEi, @function
_ZN7idLexer20GetPunctuationFromIdEi:
.LFB2539:
	.loc 2 183 0
	.cfi_startproc
.LVL44:
.LBB1241:
	.loc 2 186 0
	lwz 9,108(3)
	lwz 3,0(9)
.LVL45:
	cmpwi 7,3,0
	beq- 7,.L51
	.loc 2 187 0
	lwz 0,4(9)
	cmpw 7,0,4
	bne+ 7,.L49
	blr
.LVL46:
.L50:
	lwz 0,4(9)
	cmpw 7,0,4
	beqlr- 7
.L49:
	.loc 2 186 0
	lwz 3,8(9)
	.loc 2 187 0
	addi 9,9,8
	.loc 2 186 0
	cmpwi 7,3,0
	bne+ 7,.L50
	.loc 2 191 0
	lis 3,.LC0@ha
	la 3,.LC0@l(3)
	blr
.LVL47:
.L51:
	lis 3,.LC0@ha
	la 3,.LC0@l(3)
.LBE1241:
	.loc 2 192 0
	blr
	.cfi_endproc
.LFE2539:
	.size	_ZN7idLexer20GetPunctuationFromIdEi, .-_ZN7idLexer20GetPunctuationFromIdEi
	.align 2
	.globl _ZN7idLexer16GetPunctuationIdEPKc
	.type	_ZN7idLexer16GetPunctuationIdEPKc, @function
_ZN7idLexer16GetPunctuationIdEPKc:
.LFB2540:
	.loc 2 199 0
	.cfi_startproc
.LVL48:
	mflr 0
	stwu 1,-24(1)
.LCFI11:
	.cfi_def_cfa_offset 24
	.cfi_register 65, 0
	stw 29,12(1)
	mr 29,4
	.cfi_offset 29, -12
	stw 0,28(1)
.LBB1242:
	.loc 2 207 0
	li 0,0
	.cfi_offset 65, 4
.LBE1242:
	.loc 2 199 0
	stw 30,16(1)
	mr 30,3
	.cfi_offset 30, -8
	stw 28,8(1)
	stw 31,20(1)
.LBB1243:
	.loc 2 202 0
	lwz 9,108(3)
	lwz 3,0(9)
.LVL49:
	cmpwi 7,3,0
	beq- 7,.L55
	.cfi_offset 31, -4
	.cfi_offset 28, -16
	li 31,8
	li 28,0
	b .L57
.LVL50:
.L56:
	lwz 9,108(30)
	mr 28,31
	lwzx 3,9,31
	mr 31,0
	cmpwi 7,3,0
	beq- 7,.L60
.L57:
	.loc 2 203 0
	mr 4,29
	bl _ZN5idStr3CmpEPKcS1_
	.loc 2 202 0
	addi 0,31,8
	.loc 2 203 0
	cmpwi 7,3,0
	bne+ 7,.L56
	.loc 2 204 0
	lwz 0,108(30)
	add 28,0,28
	lwz 0,4(28)
.L55:
.LBE1243:
	.loc 2 208 0
	mr 3,0
	lwz 0,28(1)
	lwz 28,8(1)
	mtlr 0
	lwz 29,12(1)
.LVL51:
	lwz 30,16(1)
.LVL52:
	lwz 31,20(1)
	addi 1,1,24
	.cfi_remember_state
.LCFI12:
	.cfi_def_cfa_offset 0
	.cfi_restore 31
	.cfi_restore 30
	.cfi_restore 29
	.cfi_restore 28
	blr
.LVL53:
.L60:
.LCFI13:
	.cfi_restore_state
.LBB1244:
	.loc 2 207 0
	li 0,0
.LBE1244:
	.loc 2 208 0
	lwz 28,8(1)
	mr 3,0
	lwz 0,28(1)
	lwz 29,12(1)
.LVL54:
	mtlr 0
	lwz 30,16(1)
.LVL55:
	lwz 31,20(1)
	addi 1,1,24
	.cfi_restore 28
	.cfi_restore 29
	.cfi_restore 30
	.cfi_restore 31
.LCFI14:
	.cfi_def_cfa_offset 0
	blr
	.cfi_endproc
.LFE2540:
	.size	_ZN7idLexer16GetPunctuationIdEPKc, .-_ZN7idLexer16GetPunctuationIdEPKc
	.align 2
	.globl _ZN7idLexer5ErrorEPKcz
	.type	_ZN7idLexer5ErrorEPKcz, @function
_ZN7idLexer5ErrorEPKcz:
.LFB2541:
	.loc 2 215 0
	.cfi_startproc
.LVL56:
	mflr 0
	stwu 1,-1144(1)
.LCFI15:
	.cfi_def_cfa_offset 1144
	.cfi_register 65, 0
	stw 31,1140(1)
	mr 31,3
	.cfi_offset 31, -4
	stw 0,1148(1)
	stw 5,1048(1)
	stw 6,1052(1)
	stw 7,1056(1)
	stw 8,1060(1)
	stw 9,1064(1)
	stw 10,1068(1)
	bne- 1,.L62
	.cfi_offset 65, 4
	.loc 2 215 0
	stfd 1,1072(1)
	stfd 2,1080(1)
	stfd 3,1088(1)
	stfd 4,1096(1)
	stfd 5,1104(1)
	stfd 6,1112(1)
	stfd 7,1120(1)
	stfd 8,1128(1)
.L62:
.LBB1245:
	.loc 2 221 0
	lwz 0,104(31)
	.loc 2 219 0
	li 9,1
	stb 9,204(31)
	.loc 2 221 0
	andi. 0,0,1
	beq- 0,.L66
.LBE1245:
	.loc 2 234 0
	lwz 0,1148(1)
	lwz 31,1140(1)
	mtlr 0
	addi 1,1,1144
	.cfi_remember_state
.LCFI16:
	.cfi_def_cfa_offset 0
	.cfi_restore 31
	blr
.L66:
.LCFI17:
	.cfi_restore_state
.LBB1246:
	.loc 2 225 0
	stb 0,9(1)
	addi 0,1,1152
	li 9,2
	stw 0,12(1)
	.loc 2 226 0
	addi 3,1,20
.LVL57:
	.loc 2 225 0
	addi 0,1,1040
	.loc 2 226 0
	addi 5,1,8
	.loc 2 225 0
	stb 9,8(1)
	stw 0,16(1)
	.loc 2 226 0
	bl vsprintf
.LVL58:
	.loc 2 229 0
	lwz 0,104(31)
	.loc 2 230 0
	lis 9,_ZN5idLib6commonE@ha
	lwz 3,_ZN5idLib6commonE@l(9)
	.loc 2 229 0
	andi. 9,0,4
	.loc 2 230 0
	lwz 9,0(3)
	.loc 2 229 0
	bne- 0,.L67
	.loc 2 232 0
	lwz 0,96(9)
.L65:
	lis 4,.LC1@ha
	lwz 5,8(31)
	lwz 6,92(31)
	addi 7,1,20
	mtctr 0
	la 4,.LC1@l(4)
	crxor 6,6,6
	bctrl
.LBE1246:
	.loc 2 234 0
	lwz 0,1148(1)
	lwz 31,1140(1)
.LVL59:
	mtlr 0
	addi 1,1,1144
	.cfi_remember_state
	.cfi_restore 31
.LCFI18:
	.cfi_def_cfa_offset 0
	blr
.LVL60:
.L67:
.LCFI19:
	.cfi_restore_state
.LBB1247:
	.loc 2 230 0
	lwz 0,80(9)
	b .L65
.LBE1247:
	.cfi_endproc
.LFE2541:
	.size	_ZN7idLexer5ErrorEPKcz, .-_ZN7idLexer5ErrorEPKcz
	.align 2
	.globl _ZN7idLexer7WarningEPKcz
	.type	_ZN7idLexer7WarningEPKcz, @function
_ZN7idLexer7WarningEPKcz:
.LFB2542:
	.loc 2 241 0
	.cfi_startproc
.LVL61:
	mflr 0
	stwu 1,-1144(1)
.LCFI20:
	.cfi_def_cfa_offset 1144
	.cfi_register 65, 0
	stw 31,1140(1)
	mr 31,3
	.cfi_offset 31, -4
	stw 0,1148(1)
	stw 5,1048(1)
	stw 6,1052(1)
	stw 7,1056(1)
	stw 8,1060(1)
	stw 9,1064(1)
	stw 10,1068(1)
	bne- 1,.L69
	.cfi_offset 65, 4
	.loc 2 241 0
	stfd 1,1072(1)
	stfd 2,1080(1)
	stfd 3,1088(1)
	stfd 4,1096(1)
	stfd 5,1104(1)
	stfd 6,1112(1)
	stfd 7,1120(1)
	stfd 8,1128(1)
.L69:
.LBB1248:
	.loc 2 245 0
	lwz 0,104(31)
	andi. 0,0,2
	bne+ 0,.L68
	.loc 2 249 0
	stb 0,9(1)
	addi 0,1,1152
	li 9,2
	.loc 2 250 0
	addi 5,1,8
	.loc 2 249 0
	stw 0,12(1)
	.loc 2 250 0
	addi 3,1,20
.LVL62:
	.loc 2 249 0
	addi 0,1,1040
	stb 9,8(1)
	stw 0,16(1)
	.loc 2 250 0
	bl vsprintf
.LVL63:
	.loc 2 252 0
	lis 9,_ZN5idLib6commonE@ha
	lis 4,.LC1@ha
	lwz 3,_ZN5idLib6commonE@l(9)
	la 4,.LC1@l(4)
	lwz 5,8(31)
	addi 7,1,20
	lwz 9,0(3)
	lwz 6,92(31)
	lwz 0,80(9)
	mtctr 0
	crxor 6,6,6
	bctrl
.L68:
.LBE1248:
	.loc 2 253 0
	lwz 0,1148(1)
	lwz 31,1140(1)
.LVL64:
	mtlr 0
	addi 1,1,1144
.LCFI21:
	.cfi_def_cfa_offset 0
	.cfi_restore 31
	blr
	.cfi_endproc
.LFE2542:
	.size	_ZN7idLexer7WarningEPKcz, .-_ZN7idLexer7WarningEPKcz
	.align 2
	.globl _ZN7idLexer15SetPunctuationsEPK13punctuation_s
	.type	_ZN7idLexer15SetPunctuationsEPK13punctuation_s, @function
_ZN7idLexer15SetPunctuationsEPK13punctuation_s:
.LFB2543:
	.loc 2 260 0
	.cfi_startproc
.LVL65:
	stwu 1,-16(1)
.LCFI22:
	.cfi_def_cfa_offset 16
	mflr 0
	stw 31,12(1)
	.loc 2 262 0
	mr. 31,4
	.cfi_offset 31, -4
	.cfi_register 65, 0
	.loc 2 260 0
	stw 30,8(1)
	mr 30,3
	.cfi_offset 30, -8
	stw 0,20(1)
	.loc 2 262 0
	beq- 0,.L72
	.cfi_offset 65, 4
	.loc 2 266 0
	bl _ZN7idLexer22CreatePunctuationTableEPK13punctuation_s
.LVL66:
	stw 31,108(30)
	.loc 2 275 0
	lwz 0,20(1)
	lwz 30,8(1)
.LVL67:
	mtlr 0
	lwz 31,12(1)
.LVL68:
	addi 1,1,16
	.cfi_remember_state
.LCFI23:
	.cfi_def_cfa_offset 0
	.cfi_restore 31
	.cfi_restore 30
	blr
.LVL69:
.L72:
.LCFI24:
	.cfi_restore_state
	.loc 2 266 0
	lis 31,.LANCHOR1@ha
	la 31,.LANCHOR1@l(31)
	mr 4,31
.LVL70:
	bl _ZN7idLexer22CreatePunctuationTableEPK13punctuation_s
.LVL71:
	stw 31,108(30)
	.loc 2 275 0
	lwz 0,20(1)
	lwz 30,8(1)
.LVL72:
	mtlr 0
	lwz 31,12(1)
	addi 1,1,16
	.cfi_restore 30
	.cfi_restore 31
.LCFI25:
	.cfi_def_cfa_offset 0
	blr
	.cfi_endproc
.LFE2543:
	.size	_ZN7idLexer15SetPunctuationsEPK13punctuation_s, .-_ZN7idLexer15SetPunctuationsEPK13punctuation_s
	.align 2
	.globl _ZN7idLexer11UnreadTokenEPK7idToken
	.type	_ZN7idLexer11UnreadTokenEPK7idToken, @function
_ZN7idLexer11UnreadTokenEPK7idToken:
.LFB2562:
	.loc 2 1162 0
	.cfi_startproc
.LVL73:
	mflr 0
	stwu 1,-24(1)
.LCFI26:
	.cfi_def_cfa_offset 24
	.cfi_register 65, 0
	stw 30,16(1)
	mr 30,4
	.cfi_offset 30, -8
	stw 31,20(1)
	mr 31,3
	.cfi_offset 31, -4
	stw 0,28(1)
	stw 29,12(1)
	.loc 2 1163 0
	lwz 0,100(3)
	.cfi_offset 29, -12
	.cfi_offset 65, 4
	cmpwi 7,0,0
	beq+ 7,.L76
	.loc 2 1164 0
	lis 9,_ZN5idLib6commonE@ha
	lis 4,.LC2@ha
.LVL74:
	lwz 3,_ZN5idLib6commonE@l(9)
.LVL75:
	la 4,.LC2@l(4)
	lwz 9,0(3)
	lwz 0,100(9)
	mtctr 0
	crxor 6,6,6
	bctrl
.L76:
.LVL76:
.LBB1255:
.LBB1256:
.LBB1257:
	.loc 2 2091 0
	lwz 29,0(30)
.LBB1258:
.LBB1259:
.LBB1260:
	.file 3 "d:/Data/Nintendo/DoomGX/src/idlib/../idlib/Str.h"
	.loc 3 350 0
	lwz 0,128(31)
.LBE1260:
.LBE1259:
	.loc 3 534 0
	addi 4,29,1
.LVL77:
.LBB1262:
.LBB1261:
	.loc 3 350 0
	cmpw 7,4,0
	ble+ 7,.L77
	.loc 3 351 0
	addi 3,31,120
	li 5,0
	bl _ZN5idStr10ReAllocateEib
.LVL78:
.L77:
.LBE1261:
.LBE1262:
	.loc 3 535 0
	lwz 3,124(31)
	mr 5,29
	lwz 4,4(30)
	bl memcpy
	.loc 3 536 0
	lwz 9,124(31)
	li 0,0
	stbx 0,9,29
.LBE1258:
.LBE1257:
.LBE1256:
.LBE1255:
	.loc 2 1167 0
	li 9,1
.LBB1267:
.LBB1265:
.LBB1264:
.LBB1263:
	.loc 3 537 0
	stw 29,120(31)
.LBE1263:
.LBE1264:
	.file 4 "d:/Data/Nintendo/DoomGX/src/idlib/../idlib/Token.h"
	.loc 4 71 0
	lwz 0,32(30)
	stw 0,152(31)
	lwz 0,36(30)
	stw 0,156(31)
	lwz 0,40(30)
	stw 0,160(31)
	lwz 0,44(30)
	stw 0,164(31)
	lwz 0,48(30)
	stw 0,168(31)
	lwz 0,52(30)
	stw 0,172(31)
	lfd 0,56(30)
	stfd 0,176(31)
	lwz 0,64(30)
	stw 0,184(31)
	lwz 0,68(30)
	stw 0,188(31)
	lwz 0,72(30)
.LBE1265:
.LBE1267:
	.loc 2 1167 0
	stw 9,100(31)
.LBB1268:
.LBB1266:
	.loc 4 71 0
	stw 0,192(31)
.LBE1266:
.LBE1268:
	.loc 2 1168 0
	lwz 0,28(1)
	lwz 29,12(1)
	mtlr 0
	lwz 30,16(1)
.LVL79:
	lwz 31,20(1)
.LVL80:
	addi 1,1,24
.LCFI27:
	.cfi_def_cfa_offset 0
	.cfi_restore 31
	.cfi_restore 30
	.cfi_restore 29
	blr
	.cfi_endproc
.LFE2562:
	.size	_ZN7idLexer11UnreadTokenEPK7idToken, .-_ZN7idLexer11UnreadTokenEPK7idToken
	.align 2
	.globl _ZNK7idLexer22GetLastWhiteSpaceStartEv
	.type	_ZNK7idLexer22GetLastWhiteSpaceStartEv, @function
_ZNK7idLexer22GetLastWhiteSpaceStartEv:
.LFB2575:
	.loc 2 1537 0
	.cfi_startproc
.LVL81:
	.loc 2 1539 0
	lwz 3,76(3)
.LVL82:
	blr
	.cfi_endproc
.LFE2575:
	.size	_ZNK7idLexer22GetLastWhiteSpaceStartEv, .-_ZNK7idLexer22GetLastWhiteSpaceStartEv
	.align 2
	.globl _ZNK7idLexer20GetLastWhiteSpaceEndEv
	.type	_ZNK7idLexer20GetLastWhiteSpaceEndEv, @function
_ZNK7idLexer20GetLastWhiteSpaceEndEv:
.LFB2576:
	.loc 2 1546 0
	.cfi_startproc
.LVL83:
	.loc 2 1548 0
	lwz 3,80(3)
.LVL84:
	blr
	.cfi_endproc
.LFE2576:
	.size	_ZNK7idLexer20GetLastWhiteSpaceEndEv, .-_ZNK7idLexer20GetLastWhiteSpaceEndEv
	.align 2
	.globl _ZN7idLexer5ResetEv
	.type	_ZN7idLexer5ResetEv, @function
_ZN7idLexer5ResetEv:
.LFB2577:
	.loc 2 1555 0
	.cfi_startproc
.LVL85:
	mflr 0
	stwu 1,-8(1)
.LCFI28:
	.cfi_def_cfa_offset 8
	.cfi_register 65, 0
	.loc 2 1567 0
	li 9,1
.LBB1269:
.LBB1270:
	.loc 4 123 0
	lis 4,.LC3@ha
	la 4,.LC3@l(4)
.LBE1270:
.LBE1269:
	.loc 2 1555 0
	stw 0,12(1)
.LBB1272:
.LBB1273:
	.loc 2 2064 0
	li 0,0
	.cfi_offset 65, 4
	stw 0,40(3)
.LBE1273:
.LBE1272:
	.loc 2 1559 0
	stw 0,72(3)
	.loc 2 1561 0
	stw 0,76(3)
	.loc 2 1563 0
	stw 0,80(3)
	.loc 2 1565 0
	stw 0,100(3)
	.loc 2 1567 0
	stw 9,92(3)
	.loc 2 1568 0
	stw 9,96(3)
.LVL86:
.LBB1274:
.LBB1271:
	.loc 4 123 0
	addi 3,3,120
.LVL87:
	bl _ZN5idStraSEPKc
.LVL88:
.LBE1271:
.LBE1274:
	.loc 2 1571 0
	lwz 0,12(1)
	addi 1,1,8
.LCFI29:
	.cfi_def_cfa_offset 0
	mtlr 0
	blr
	.cfi_endproc
.LFE2577:
	.size	_ZN7idLexer5ResetEv, .-_ZN7idLexer5ResetEv
	.align 2
	.globl _ZN7idLexer9EndOfFileEv
	.type	_ZN7idLexer9EndOfFileEv, @function
_ZN7idLexer9EndOfFileEv:
.LFB2578:
	.loc 2 1578 0
	.cfi_startproc
.LVL89:
	.loc 2 1579 0
	lwz 9,40(3)
	lwz 0,68(3)
	.loc 2 1580 0
	.loc 2 1579 0
	cmpw 7,9,0
	crnot 30,28
	.loc 2 1580 0
	mfcr 3
	rlwinm 3,3,31,1
.LVL90:
	blr
	.cfi_endproc
.LFE2578:
	.size	_ZN7idLexer9EndOfFileEv, .-_ZN7idLexer9EndOfFileEv
	.align 2
	.globl _ZN7idLexer15NumLinesCrossedEv
	.type	_ZN7idLexer15NumLinesCrossedEv, @function
_ZN7idLexer15NumLinesCrossedEv:
.LFB2579:
	.loc 2 1587 0
	.cfi_startproc
.LVL91:
	.loc 2 1588 0
	lwz 9,92(3)
	lwz 0,96(3)
	.loc 2 1589 0
	subf 3,0,9
.LVL92:
	blr
	.cfi_endproc
.LFE2579:
	.size	_ZN7idLexer15NumLinesCrossedEv, .-_ZN7idLexer15NumLinesCrossedEv
	.align 2
	.globl _ZN7idLexer10FreeSourceEv
	.type	_ZN7idLexer10FreeSourceEv, @function
_ZN7idLexer10FreeSourceEv:
.LFB2582:
	.loc 2 1683 0
	.cfi_startproc
.LVL93:
	mflr 0
	stwu 1,-16(1)
.LCFI30:
	.cfi_def_cfa_offset 16
	.cfi_register 65, 0
	stw 31,12(1)
	mr 31,3
	.cfi_offset 31, -4
	stw 0,20(1)
	stw 30,8(1)
	.loc 2 1685 0
	lwz 3,112(3)
.LVL94:
	cmpwi 7,3,0
	beq- 7,.L84
	.cfi_offset 30, -8
	.cfi_offset 65, 4
	.loc 2 1685 0 is_stmt 0 discriminator 1
	lis 9,.LANCHOR0@ha
	la 0,.LANCHOR0@l(9)
	cmpw 7,3,0
	beq- 7,.L84
	.loc 2 1686 0 is_stmt 1
	bl _Z8Mem_FreePv
	.loc 2 1687 0
	li 0,0
	stw 0,112(31)
.L84:
	.loc 2 1689 0
	lwz 3,116(31)
	cmpwi 7,3,0
	beq- 7,.L85
	.loc 2 1689 0 is_stmt 0 discriminator 1
	lis 9,.LANCHOR0@ha
	la 9,.LANCHOR0@l(9)
	addi 0,9,1024
	cmpw 7,3,0
	beq- 7,.L85
	.loc 2 1690 0 is_stmt 1
	bl _Z8Mem_FreePv
	.loc 2 1691 0
	li 0,0
	stw 0,116(31)
.L85:
	.loc 2 1694 0
	lwz 0,36(31)
	cmpwi 7,0,0
	beq+ 7,.L86
	.loc 2 1695 0
	lwz 3,44(31)
	bl _Z8Mem_FreePv
	.loc 2 1697 0
	li 0,0
	stw 0,36(31)
.L86:
	.loc 2 1699 0
	li 30,0
.LBB1275:
.LBB1276:
	.loc 4 123 0
	lis 4,.LC3@ha
.LBE1276:
.LBE1275:
	.loc 2 1699 0
	stw 30,100(31)
.LVL95:
.LBB1278:
.LBB1277:
	.loc 4 123 0
	addi 3,31,120
	la 4,.LC3@l(4)
	bl _ZN5idStraSEPKc
.LBE1277:
.LBE1278:
	.loc 2 1701 0
	stw 30,0(31)
	.loc 2 1702 0
	lwz 0,20(1)
	lwz 30,8(1)
	mtlr 0
	lwz 31,12(1)
.LVL96:
	addi 1,1,16
.LCFI31:
	.cfi_def_cfa_offset 0
	.cfi_restore 31
	.cfi_restore 30
	blr
	.cfi_endproc
.LFE2582:
	.size	_ZN7idLexer10FreeSourceEv, .-_ZN7idLexer10FreeSourceEv
	.align 2
	.globl _ZN7idLexer13SetBaseFolderEPKc
	.type	_ZN7idLexer13SetBaseFolderEPKc, @function
_ZN7idLexer13SetBaseFolderEPKc:
.LFB2598:
	.loc 2 1809 0
	.cfi_startproc
.LVL97:
	mflr 0
	mr 4,3
	.loc 2 1810 0
	lis 3,.LANCHOR0@ha
.LVL98:
	.loc 2 1809 0
	stwu 1,-8(1)
.LCFI32:
	.cfi_def_cfa_offset 8
	.cfi_register 65, 0
	.loc 2 1810 0
	la 3,.LANCHOR0@l(3)
	li 5,256
	addi 3,3,1236
	.loc 2 1809 0
	stw 0,12(1)
	.loc 2 1810 0
	.cfi_offset 65, 4
	bl _ZN5idStr6CopynzEPcPKci
.LVL99:
	.loc 2 1811 0
	lwz 0,12(1)
	addi 1,1,8
.LCFI33:
	.cfi_def_cfa_offset 0
	mtlr 0
	blr
	.cfi_endproc
.LFE2598:
	.size	_ZN7idLexer13SetBaseFolderEPKc, .-_ZN7idLexer13SetBaseFolderEPKc
	.align 2
	.globl _ZNK7idLexer8HadErrorEv
	.type	_ZNK7idLexer8HadErrorEv, @function
_ZNK7idLexer8HadErrorEv:
.LFB2599:
	.loc 2 1818 0
	.cfi_startproc
.LVL100:
	.loc 2 1820 0
	lbz 3,204(3)
.LVL101:
	blr
	.cfi_endproc
.LFE2599:
	.size	_ZNK7idLexer8HadErrorEv, .-_ZNK7idLexer8HadErrorEv
	.align 2
	.globl _ZN11fileDataPtrC2Ev
	.type	_ZN11fileDataPtrC2Ev, @function
_ZN11fileDataPtrC2Ev:
.LFB2601:
	.loc 2 1827 0
	.cfi_startproc
.LVL102:
.LBB1279:
	.loc 2 1828 0
	lis 9,0x7fff
	.loc 2 1830 0
	li 0,0
	.loc 2 1828 0
	ori 9,9,65535
	.loc 2 1830 0
	stw 0,0(3)
	.loc 2 1828 0
	stw 9,12(3)
	.loc 2 1829 0
	lis 9,0x8000
	.loc 2 1831 0
	stw 0,8(3)
.LBE1279:
	.loc 2 1835 0
.LBB1280:
	.loc 2 1832 0
	stb 0,24(3)
	.loc 2 1833 0
	li 0,1
	.loc 2 1829 0
	stw 9,16(3)
	.loc 2 1833 0
	stb 0,25(3)
.LBE1280:
	.loc 2 1835 0
	blr
	.cfi_endproc
.LFE2601:
	.size	_ZN11fileDataPtrC2Ev, .-_ZN11fileDataPtrC2Ev
	.align 2
	.globl _ZN11fileDataPtrD2Ev
	.type	_ZN11fileDataPtrD2Ev, @function
_ZN11fileDataPtrD2Ev:
.LFB2604:
	.loc 2 1837 0
	.cfi_startproc
.LVL103:
	mflr 0
	stwu 1,-16(1)
.LCFI34:
	.cfi_def_cfa_offset 16
	.cfi_register 65, 0
	stw 31,12(1)
	mr 31,3
	.cfi_offset 31, -4
	stw 0,20(1)
.LBB1285:
	.loc 2 1838 0
	lbz 0,25(3)
	.cfi_offset 65, 4
	cmpwi 7,0,0
	beq- 7,.L90
	.loc 2 1839 0
	lwz 4,4(3)
	cmpwi 7,4,0
	beq- 7,.L92
	.loc 2 1839 0 is_stmt 0 discriminator 1
	lbz 0,24(3)
	cmpwi 7,0,0
	bne- 7,.L94
.L92:
	.loc 2 1843 0 is_stmt 1
	lwz 0,8(31)
	cmpwi 7,0,0
	beq- 7,.L90
.LVL104:
.L95:
.LBE1285:
.LBB1286:
.LBB1287:
.LBB1288:
	.loc 2 1844 0
	lwz 4,4(31)
	lis 3,.LC5@ha
	la 3,.LC5@l(3)
	crxor 6,6,6
	bl _Z10Sys_PrintfPKcz
	.loc 2 1845 0
	lis 9,fileSystem@ha
	lwz 3,fileSystem@l(9)
	lwz 4,8(31)
	lwz 9,0(3)
	lwz 0,136(9)
	mtctr 0
	bctrl
.LVL105:
.L90:
.LBE1288:
.LBE1287:
.LBE1286:
	.loc 2 1851 0
	lwz 0,20(1)
	lwz 31,12(1)
.LVL106:
	mtlr 0
	addi 1,1,16
	.cfi_remember_state
.LCFI35:
	.cfi_def_cfa_offset 0
	.cfi_restore 31
	blr
.LVL107:
.L94:
.LCFI36:
	.cfi_restore_state
.LBB1289:
	.loc 2 1840 0
	lis 3,.LC4@ha
.LVL108:
	la 3,.LC4@l(3)
	crxor 6,6,6
	bl _Z10Sys_PrintfPKcz
	.loc 2 1841 0
	lwz 3,4(31)
	bl _Z8Mem_FreePv
	.loc 2 1843 0
	lwz 0,8(31)
	cmpwi 7,0,0
	bne+ 7,.L95
	b .L90
.LBE1289:
	.cfi_endproc
.LFE2604:
	.size	_ZN11fileDataPtrD2Ev, .-_ZN11fileDataPtrD2Ev
	.align 2
	.globl _ZN7idLexerD2Ev
	.type	_ZN7idLexerD2Ev, @function
_ZN7idLexerD2Ev:
.LFB2596:
	.loc 2 1800 0
	.cfi_startproc
	.cfi_personality 0,__gxx_personality_v0
	.cfi_lsda 0,.LLSDA2596
.LVL109:
	mflr 0
	stwu 1,-16(1)
.LCFI37:
	.cfi_def_cfa_offset 16
	.cfi_register 65, 0
	stw 31,12(1)
	mr 31,3
	.cfi_offset 31, -4
	stw 0,20(1)
	stw 30,8(1)
.LEHB0:
.LBB1290:
	.loc 2 1801 0
	.cfi_offset 30, -8
	.cfi_offset 65, 4
	bl _ZN7idLexer10FreeSourceEv
.LEHE0:
.LVL110:
.LBB1291:
.LBB1292:
.LBB1293:
.LBB1294:
.LBB1295:
.LBB1296:
	.loc 3 501 0
	addi 3,31,120
.LEHB1:
	bl _ZN5idStr8FreeDataEv
.LEHE1:
.LBE1296:
.LBE1295:
.LBE1294:
.LBE1293:
.LBE1292:
.LBE1291:
	.loc 2 1800 0 discriminator 1
	addi 3,31,40
.LEHB2:
	bl _ZN11fileDataPtrD1Ev
.LEHE2:
.LVL111:
.LBB1297:
.LBB1298:
.LBB1299:
	.loc 3 501 0 discriminator 2
	addi 3,31,4
.LEHB3:
	bl _ZN5idStr8FreeDataEv
.LEHE3:
.LBE1299:
.LBE1298:
.LBE1297:
.LBE1290:
	.loc 2 1802 0 discriminator 2
	lwz 0,20(1)
	lwz 30,8(1)
	mtlr 0
	lwz 31,12(1)
.LVL112:
	addi 1,1,16
	.cfi_remember_state
.LCFI38:
	.cfi_def_cfa_offset 0
	.cfi_restore 31
	.cfi_restore 30
	blr
.LVL113:
.L107:
.LCFI39:
	.cfi_restore_state
	mr 30,3
.LVL114:
.LBB1309:
.LBB1300:
.LBB1301:
.LBB1302:
.LBB1303:
.LBB1304:
.LBB1305:
	.loc 3 501 0
	addi 3,31,120
	bl _ZN5idStr8FreeDataEv
.LVL115:
.L104:
.LBE1305:
.LBE1304:
.LBE1303:
.LBE1302:
.LBE1301:
.LBE1300:
	.loc 2 1800 0
	addi 3,31,40
	bl _ZN11fileDataPtrD1Ev
.L105:
.LVL116:
.LBB1306:
.LBB1307:
.LBB1308:
	.loc 3 501 0
	addi 3,31,4
	bl _ZN5idStr8FreeDataEv
	mr 3,30
.LEHB4:
	bl _Unwind_Resume
.LEHE4:
.LVL117:
.L109:
	mr 30,3
	b .L105
.L108:
	mr 30,3
	b .L104
.LBE1308:
.LBE1307:
.LBE1306:
.LBE1309:
	.cfi_endproc
.LFE2596:
	.globl __gxx_personality_v0
	.section	.gcc_except_table,"a",@progbits
.LLSDA2596:
	.byte	0xff
	.byte	0xff
	.byte	0x1
	.uleb128 .LLSDACSE2596-.LLSDACSB2596
.LLSDACSB2596:
	.uleb128 .LEHB0-.LFB2596
	.uleb128 .LEHE0-.LEHB0
	.uleb128 .L107-.LFB2596
	.uleb128 0
	.uleb128 .LEHB1-.LFB2596
	.uleb128 .LEHE1-.LEHB1
	.uleb128 .L108-.LFB2596
	.uleb128 0
	.uleb128 .LEHB2-.LFB2596
	.uleb128 .LEHE2-.LEHB2
	.uleb128 .L109-.LFB2596
	.uleb128 0
	.uleb128 .LEHB3-.LFB2596
	.uleb128 .LEHE3-.LEHB3
	.uleb128 0
	.uleb128 0
	.uleb128 .LEHB4-.LFB2596
	.uleb128 .LEHE4-.LEHB4
	.uleb128 0
	.uleb128 0
.LLSDACSE2596:
	.section	".text"
	.size	_ZN7idLexerD2Ev, .-_ZN7idLexerD2Ev
	.align 2
	.globl _ZN7idLexerC2Ei
	.type	_ZN7idLexerC2Ei, @function
_ZN7idLexerC2Ei:
.LFB2587:
	.loc 2 1735 0
	.cfi_startproc
	.cfi_personality 0,__gxx_personality_v0
	.cfi_lsda 0,.LLSDA2587
.LVL118:
	mflr 0
	stwu 1,-32(1)
.LCFI40:
	.cfi_def_cfa_offset 32
	.cfi_register 65, 0
.LBB1310:
.LBB1311:
.LBB1312:
.LBB1313:
	.loc 3 358 0
	addi 10,3,16
	.loc 3 357 0
	li 9,20
.LBE1313:
.LBE1312:
.LBE1311:
.LBE1310:
	.loc 2 1735 0
	stw 27,12(1)
.LBB1361:
.LBB1326:
.LBB1327:
.LBB1328:
.LBB1329:
	.loc 3 358 0
	addi 11,3,132
.LBE1329:
.LBE1328:
.LBE1327:
.LBE1326:
.LBE1361:
	.loc 2 1735 0
	stw 0,36(1)
.LBB1362:
.LBB1333:
.LBB1320:
.LBB1314:
	.loc 3 356 0
	li 0,0
	.cfi_offset 65, 4
	.cfi_offset 27, -20
.LBE1314:
.LBE1320:
.LBE1333:
.LBE1362:
	.loc 2 1735 0
	stw 28,16(1)
.LBB1363:
.LBB1334:
.LBB1321:
.LBB1315:
	.loc 3 358 0
	addi 28,3,4
	.cfi_offset 28, -16
.LBE1315:
.LBE1321:
.LBE1334:
.LBE1363:
	.loc 2 1735 0
	stw 29,20(1)
.LBB1364:
	.loc 2 1741 0
	lis 29,.LC3@ha
	.cfi_offset 29, -12
.LBE1364:
	.loc 2 1735 0
	stw 30,24(1)
.LBB1365:
	.loc 2 1741 0
	la 29,.LC3@l(29)
.LBE1365:
	.loc 2 1735 0
	stw 31,28(1)
	.loc 2 1735 0
	mr 27,4
.LBB1366:
.LBB1335:
.LBB1322:
.LBB1316:
	.loc 3 358 0
	stw 10,8(3)
.LBE1316:
.LBE1322:
.LBE1335:
.LBB1336:
.LBB1337:
	.loc 2 1828 0
	lis 10,0x7fff
	ori 10,10,65535
.LBE1337:
.LBE1336:
.LBB1340:
.LBB1323:
.LBB1317:
	.loc 3 356 0
	stw 0,4(3)
.LBE1317:
.LBE1323:
.LBE1340:
.LBB1341:
.LBB1338:
	.loc 2 1828 0
	stw 10,52(3)
	.loc 2 1829 0
	lis 10,0x8000
	stw 10,56(3)
	.loc 2 1833 0
	li 10,1
.LBE1338:
.LBE1341:
.LBB1342:
.LBB1324:
.LBB1318:
	.loc 3 357 0
	stw 9,12(3)
.LBE1318:
.LBE1324:
.LBE1342:
.LBE1366:
	.loc 2 1735 0
	mr 31,3
	.cfi_offset 31, -4
	.cfi_offset 30, -8
.LVL119:
.LBB1367:
.LBB1343:
.LBB1325:
.LBB1319:
	.loc 3 359 0
	stb 0,16(3)
.LVL120:
.LBE1319:
.LBE1325:
.LBE1343:
	.loc 2 1741 0
	mr 4,29
.LVL121:
.LBB1344:
.LBB1339:
	.loc 2 1830 0
	stw 0,40(3)
	addi 30,31,120
	.loc 2 1831 0
	stw 0,48(3)
	.loc 2 1832 0
	stb 0,64(3)
	.loc 2 1833 0
	stb 10,65(3)
.LVL122:
.LBE1339:
.LBE1344:
.LBB1345:
.LBB1332:
.LBB1331:
.LBB1330:
	.loc 3 356 0
	stw 0,120(3)
	.loc 3 357 0
	stw 9,128(3)
	.loc 3 358 0
	stw 11,124(3)
	.loc 3 359 0
	stb 0,132(3)
.LBE1330:
.LBE1331:
.LBE1332:
.LBE1345:
	.loc 2 1740 0
	stw 0,0(3)
	.loc 2 1741 0
	mr 3,28
.LVL123:
.LEHB5:
	bl _ZN5idStraSEPKc
	.loc 2 1742 0
	stw 27,104(31)
	.loc 2 1743 0
	mr 3,31
	li 4,0
	bl _ZN7idLexer15SetPunctuationsEPK13punctuation_s
	.loc 2 1744 0
	li 0,0
.LBB1346:
.LBB1347:
	.loc 4 123 0
	mr 3,30
.LBE1347:
.LBE1346:
	.loc 2 1744 0
	stw 0,36(31)
.LBB1350:
.LBB1348:
	.loc 4 123 0
	mr 4,29
.LBE1348:
.LBE1350:
	.loc 2 1745 0
	stw 0,84(31)
	.loc 2 1746 0
	stw 0,88(31)
	.loc 2 1747 0
	stw 0,92(31)
	.loc 2 1748 0
	stw 0,96(31)
	.loc 2 1749 0
	stw 0,100(31)
.LVL124:
.LBB1351:
.LBB1349:
	.loc 4 123 0
	bl _ZN5idStraSEPKc
.LEHE5:
.LBE1349:
.LBE1351:
	.loc 2 1751 0
	li 0,0
	stw 0,200(31)
	.loc 2 1752 0
	stb 0,204(31)
.LBE1367:
	.loc 2 1753 0
	lwz 0,36(1)
	lwz 27,12(1)
.LVL125:
	mtlr 0
	lwz 28,16(1)
.LVL126:
	lwz 29,20(1)
	lwz 30,24(1)
.LVL127:
	lwz 31,28(1)
.LVL128:
	addi 1,1,32
	.cfi_remember_state
.LCFI41:
	.cfi_def_cfa_offset 0
	.cfi_restore 31
	.cfi_restore 30
	.cfi_restore 29
	.cfi_restore 28
	.cfi_restore 27
	blr
.LVL129:
.L115:
.LCFI42:
	.cfi_restore_state
	mr 29,3
.LVL130:
.LBB1368:
.LBB1352:
.LBB1353:
.LBB1354:
.LBB1355:
.LBB1356:
.LBB1357:
	.loc 3 501 0
	mr 3,30
	bl _ZN5idStr8FreeDataEv
.LBE1357:
.LBE1356:
.LBE1355:
.LBE1354:
.LBE1353:
.LBE1352:
	.loc 2 1735 0
	addi 3,31,40
	bl _ZN11fileDataPtrD1Ev
.LVL131:
.LBB1358:
.LBB1359:
.LBB1360:
	.loc 3 501 0
	mr 3,28
	bl _ZN5idStr8FreeDataEv
	mr 3,29
.LEHB6:
	bl _Unwind_Resume
.LEHE6:
.LBE1360:
.LBE1359:
.LBE1358:
.LBE1368:
	.cfi_endproc
.LFE2587:
	.section	.gcc_except_table
.LLSDA2587:
	.byte	0xff
	.byte	0xff
	.byte	0x1
	.uleb128 .LLSDACSE2587-.LLSDACSB2587
.LLSDACSB2587:
	.uleb128 .LEHB5-.LFB2587
	.uleb128 .LEHE5-.LEHB5
	.uleb128 .L115-.LFB2587
	.uleb128 0
	.uleb128 .LEHB6-.LFB2587
	.uleb128 .LEHE6-.LEHB6
	.uleb128 0
	.uleb128 0
.LLSDACSE2587:
	.section	".text"
	.size	_ZN7idLexerC2Ei, .-_ZN7idLexerC2Ei
	.align 2
	.globl _ZN7idLexerC2Ev
	.type	_ZN7idLexerC2Ev, @function
_ZN7idLexerC2Ev:
.LFB2584:
	.loc 2 1710 0
	.cfi_startproc
	.cfi_personality 0,__gxx_personality_v0
	.cfi_lsda 0,.LLSDA2584
.LVL132:
	mflr 0
	stwu 1,-24(1)
.LCFI43:
	.cfi_def_cfa_offset 24
	.cfi_register 65, 0
.LBB1369:
.LBB1370:
.LBB1371:
.LBB1372:
	.loc 3 358 0
	addi 10,3,16
	.loc 3 357 0
	li 9,20
.LBE1372:
.LBE1371:
.LBE1370:
.LBE1369:
	.loc 2 1710 0
	stw 28,8(1)
.LBB1420:
.LBB1385:
.LBB1386:
.LBB1387:
.LBB1388:
	.loc 3 358 0
	addi 11,3,132
.LBE1388:
.LBE1387:
.LBE1386:
.LBE1385:
.LBE1420:
	.loc 2 1710 0
	stw 0,28(1)
.LBB1421:
.LBB1392:
.LBB1379:
.LBB1373:
	.loc 3 356 0
	li 0,0
	.cfi_offset 65, 4
	.cfi_offset 28, -16
.LBE1373:
.LBE1379:
.LBE1392:
.LBE1421:
	.loc 2 1710 0
	stw 29,12(1)
.LBB1422:
	.loc 2 1716 0
	lis 29,.LC3@ha
	.cfi_offset 29, -12
.LBE1422:
	.loc 2 1710 0
	stw 30,16(1)
.LBB1423:
.LBB1393:
.LBB1380:
.LBB1374:
	.loc 3 358 0
	addi 28,3,4
.LBE1374:
.LBE1380:
.LBE1393:
.LBE1423:
	.loc 2 1710 0
	stw 31,20(1)
.LBB1424:
	.loc 2 1716 0
	la 29,.LC3@l(29)
.LBB1394:
.LBB1381:
.LBB1375:
	.loc 3 358 0
	stw 10,8(3)
.LBE1375:
.LBE1381:
.LBE1394:
.LBB1395:
.LBB1396:
	.loc 2 1828 0
	lis 10,0x7fff
	ori 10,10,65535
.LBE1396:
.LBE1395:
.LBB1399:
.LBB1382:
.LBB1376:
	.loc 3 356 0
	stw 0,4(3)
.LBE1376:
.LBE1382:
.LBE1399:
.LBB1400:
.LBB1397:
	.loc 2 1828 0
	stw 10,52(3)
	.loc 2 1829 0
	lis 10,0x8000
	stw 10,56(3)
	.loc 2 1833 0
	li 10,1
.LBE1397:
.LBE1400:
.LBB1401:
.LBB1383:
.LBB1377:
	.loc 3 357 0
	stw 9,12(3)
.LBE1377:
.LBE1383:
.LBE1401:
.LBE1424:
	.loc 2 1710 0
	mr 31,3
	.cfi_offset 31, -4
	.cfi_offset 30, -8
.LVL133:
.LBB1425:
.LBB1402:
.LBB1384:
.LBB1378:
	.loc 3 359 0
	stb 0,16(3)
.LVL134:
.LBE1378:
.LBE1384:
.LBE1402:
	.loc 2 1716 0
	mr 4,29
.LBB1403:
.LBB1398:
	.loc 2 1830 0
	stw 0,40(3)
	addi 30,31,120
	.loc 2 1831 0
	stw 0,48(3)
	.loc 2 1832 0
	stb 0,64(3)
	.loc 2 1833 0
	stb 10,65(3)
.LVL135:
.LBE1398:
.LBE1403:
.LBB1404:
.LBB1391:
.LBB1390:
.LBB1389:
	.loc 3 356 0
	stw 0,120(3)
	.loc 3 357 0
	stw 9,128(3)
	.loc 3 358 0
	stw 11,124(3)
	.loc 3 359 0
	stb 0,132(3)
.LBE1389:
.LBE1390:
.LBE1391:
.LBE1404:
	.loc 2 1715 0
	stw 0,0(3)
	.loc 2 1716 0
	mr 3,28
.LVL136:
.LEHB7:
	bl _ZN5idStraSEPKc
.LVL137:
	.loc 2 1717 0
	li 0,0
	.loc 2 1718 0
	mr 3,31
	.loc 2 1717 0
	stw 0,104(31)
	.loc 2 1718 0
	li 4,0
	bl _ZN7idLexer15SetPunctuationsEPK13punctuation_s
	.loc 2 1719 0
	li 0,0
.LBB1405:
.LBB1406:
	.loc 4 123 0
	mr 3,30
.LBE1406:
.LBE1405:
	.loc 2 1719 0
	stw 0,36(31)
.LBB1409:
.LBB1407:
	.loc 4 123 0
	mr 4,29
.LBE1407:
.LBE1409:
	.loc 2 1720 0
	stw 0,84(31)
	.loc 2 1721 0
	stw 0,88(31)
	.loc 2 1722 0
	stw 0,92(31)
	.loc 2 1723 0
	stw 0,96(31)
	.loc 2 1724 0
	stw 0,100(31)
.LVL138:
.LBB1410:
.LBB1408:
	.loc 4 123 0
	bl _ZN5idStraSEPKc
.LEHE7:
.LBE1408:
.LBE1410:
	.loc 2 1726 0
	li 0,0
	stw 0,200(31)
	.loc 2 1727 0
	stb 0,204(31)
.LBE1425:
	.loc 2 1728 0
	lwz 0,28(1)
	lwz 28,8(1)
.LVL139:
	mtlr 0
	lwz 29,12(1)
	lwz 30,16(1)
.LVL140:
	lwz 31,20(1)
.LVL141:
	addi 1,1,24
	.cfi_remember_state
.LCFI44:
	.cfi_def_cfa_offset 0
	.cfi_restore 31
	.cfi_restore 30
	.cfi_restore 29
	.cfi_restore 28
	blr
.LVL142:
.L121:
.LCFI45:
	.cfi_restore_state
	mr 29,3
.LVL143:
.LBB1426:
.LBB1411:
.LBB1412:
.LBB1413:
.LBB1414:
.LBB1415:
.LBB1416:
	.loc 3 501 0
	mr 3,30
	bl _ZN5idStr8FreeDataEv
.LBE1416:
.LBE1415:
.LBE1414:
.LBE1413:
.LBE1412:
.LBE1411:
	.loc 2 1710 0
	addi 3,31,40
	bl _ZN11fileDataPtrD1Ev
.LVL144:
.LBB1417:
.LBB1418:
.LBB1419:
	.loc 3 501 0
	mr 3,28
	bl _ZN5idStr8FreeDataEv
	mr 3,29
.LEHB8:
	bl _Unwind_Resume
.LEHE8:
.LBE1419:
.LBE1418:
.LBE1417:
.LBE1426:
	.cfi_endproc
.LFE2584:
	.section	.gcc_except_table
.LLSDA2584:
	.byte	0xff
	.byte	0xff
	.byte	0x1
	.uleb128 .LLSDACSE2584-.LLSDACSB2584
.LLSDACSB2584:
	.uleb128 .LEHB7-.LFB2584
	.uleb128 .LEHE7-.LEHB7
	.uleb128 .L121-.LFB2584
	.uleb128 0
	.uleb128 .LEHB8-.LFB2584
	.uleb128 .LEHE8-.LEHB8
	.uleb128 0
	.uleb128 0
.LLSDACSE2584:
	.section	".text"
	.size	_ZN7idLexerC2Ev, .-_ZN7idLexerC2Ev
	.align 2
	.globl _ZN11fileDataPtrC2ERKS_
	.type	_ZN11fileDataPtrC2ERKS_, @function
_ZN11fileDataPtrC2ERKS_:
.LFB2607:
	.loc 2 1853 0
	.cfi_startproc
.LVL145:
.LBB1427:
	.loc 2 1854 0
	lwz 11,4(4)
.LBE1427:
	.loc 2 1856 0
.LBB1428:
	.loc 2 1854 0
	lwz 9,8(4)
	lwz 0,12(4)
	lwz 10,0(4)
	stw 11,4(3)
	stw 10,0(3)
	stw 9,8(3)
	stw 0,12(3)
	lwz 0,20(4)
	lwz 11,16(4)
	lhz 9,24(4)
	stw 0,20(3)
	.loc 2 1855 0
	li 0,0
	.loc 2 1854 0
	sth 9,24(3)
	stw 11,16(3)
	.loc 2 1855 0
	stb 0,25(3)
.LBE1428:
	.loc 2 1856 0
	blr
	.cfi_endproc
.LFE2607:
	.size	_ZN11fileDataPtrC2ERKS_, .-_ZN11fileDataPtrC2ERKS_
	.align 2
	.globl _ZN11fileDataPtrC2ERS_
	.type	_ZN11fileDataPtrC2ERS_, @function
_ZN11fileDataPtrC2ERS_:
.LFB2610:
	.loc 2 1858 0
	.cfi_startproc
.LVL146:
.LBB1429:
	.loc 2 1859 0
	lwz 11,4(4)
.LBE1429:
	.loc 2 1861 0
.LBB1430:
	.loc 2 1859 0
	lwz 9,8(4)
	lwz 0,12(4)
	lwz 10,0(4)
	stw 11,4(3)
	stw 10,0(3)
	stw 9,8(3)
	stw 0,12(3)
	lwz 0,20(4)
	lwz 11,16(4)
	lhz 9,24(4)
	stw 0,20(3)
	.loc 2 1860 0
	li 0,0
	.loc 2 1859 0
	sth 9,24(3)
	stw 11,16(3)
	.loc 2 1860 0
	stb 0,25(3)
.LBE1430:
	.loc 2 1861 0
	blr
	.cfi_endproc
.LFE2610:
	.size	_ZN11fileDataPtrC2ERS_, .-_ZN11fileDataPtrC2ERS_
	.align 2
	.globl _ZN11fileDataPtr7setFileEPKc
	.type	_ZN11fileDataPtr7setFileEPKc, @function
_ZN11fileDataPtr7setFileEPKc:
.LFB2612:
	.loc 2 1868 0
	.cfi_startproc
.LVL147:
	stwu 1,-16(1)
.LCFI46:
	.cfi_def_cfa_offset 16
	mflr 0
	stw 31,12(1)
	mr 31,3
	.cfi_offset 31, -4
	.cfi_register 65, 0
	.loc 2 1869 0
	lis 3,.LC6@ha
.LVL148:
	.loc 2 1868 0
	stw 0,20(1)
	.loc 2 1869 0
	la 3,.LC6@l(3)
	.loc 2 1868 0
	stw 30,8(1)
	.loc 2 1868 0
	mr 30,4
	.cfi_offset 30, -8
	.cfi_offset 65, 4
	.loc 2 1869 0
	crxor 6,6,6
	bl _Z10Sys_PrintfPKcz
.LVL149:
	.loc 2 1871 0
	lwz 0,8(31)
	cmpwi 7,0,0
	beq- 7,.L125
	.loc 2 1872 0
	lis 3,.LC7@ha
	la 3,.LC7@l(3)
	crxor 6,6,6
	bl _Z9Sys_ErrorPKcz
.L125:
	.loc 2 1874 0
	lis 9,fileSystem@ha
	mr 4,30
	lwz 3,fileSystem@l(9)
	li 5,0
	li 6,0
	lwz 9,0(3)
	lwz 0,112(9)
	mtctr 0
	bctrl
	.loc 2 1875 0
	cmpwi 7,3,0
	.loc 2 1874 0
	stw 3,8(31)
	.loc 2 1875 0
	beq- 7,.L128
.L126:
	.loc 2 1928 0
	lis 3,0x4
	bl _Z9Mem_Alloci
	.loc 2 1929 0
	cmpwi 7,3,0
	.loc 2 1928 0
	stw 3,4(31)
	.loc 2 1929 0
	beq- 7,.L129
.L127:
	.loc 2 1932 0
	lwz 3,8(31)
	lwz 9,0(3)
	lwz 0,28(9)
	mtctr 0
	bctrl
	.loc 2 1934 0
	li 0,1
	.loc 2 1932 0
	stw 3,20(31)
	.loc 2 1935 0
	lis 3,.LC10@ha
	.loc 2 1934 0
	stb 0,24(31)
	.loc 2 1935 0
	la 3,.LC10@l(3)
	lwz 4,4(31)
	crxor 6,6,6
	bl _Z10Sys_PrintfPKcz
	.loc 2 1937 0
	lwz 0,20(1)
	lwz 30,8(1)
.LVL150:
	mtlr 0
	lwz 31,12(1)
.LVL151:
	addi 1,1,16
	.cfi_remember_state
.LCFI47:
	.cfi_def_cfa_offset 0
	.cfi_restore 31
	.cfi_restore 30
	blr
.LVL152:
.L129:
.LCFI48:
	.cfi_restore_state
	.loc 2 1930 0
	lis 3,.LC9@ha
	la 3,.LC9@l(3)
	crxor 6,6,6
	bl _Z9Sys_ErrorPKcz
	b .L127
.L128:
	.loc 2 1876 0
	lis 3,.LC8@ha
	mr 4,30
	la 3,.LC8@l(3)
	crxor 6,6,6
	bl _Z9Sys_ErrorPKcz
	b .L126
	.cfi_endproc
.LFE2612:
	.size	_ZN11fileDataPtr7setFileEPKc, .-_ZN11fileDataPtr7setFileEPKc
	.align 2
	.globl _ZN7idLexer8LoadFileEPKcb
	.type	_ZN7idLexer8LoadFileEPKcb, @function
_ZN7idLexer8LoadFileEPKcb:
.LFB2580:
	.loc 2 1596 0
	.cfi_startproc
	.cfi_personality 0,__gxx_personality_v0
	.cfi_lsda 0,.LLSDA2580
.LVL153:
	mflr 0
	stwu 1,-72(1)
.LCFI49:
	.cfi_def_cfa_offset 72
	.cfi_register 65, 0
.LVL154:
	mfcr 12
	stw 28,56(1)
	mr 28,4
	.cfi_offset 28, -16
	.cfi_register 70, 12
	stw 0,76(1)
.LBB1431:
.LBB1432:
.LBB1433:
.LBB1434:
	.loc 3 356 0
	li 0,0
	.cfi_offset 65, 4
.LBE1434:
.LBE1433:
.LBE1432:
.LBE1431:
	.loc 2 1596 0
	stw 31,68(1)
	mr 31,3
	.cfi_offset 31, -4
	stw 26,48(1)
	stw 27,52(1)
	stw 29,60(1)
	stw 30,64(1)
	stw 12,44(1)
.LBB1466:
.LBB1441:
.LBB1438:
.LBB1435:
	.loc 3 356 0
	stw 0,8(1)
.LBE1435:
.LBE1438:
.LBE1441:
	.loc 2 1602 0
	lwz 9,0(3)
.LBB1442:
.LBB1439:
.LBB1436:
	.loc 3 359 0
	stb 0,20(1)
.LBE1436:
.LBE1439:
.LBE1442:
	.loc 2 1602 0
	cmpwi 7,9,0
.LBB1443:
.LBB1440:
.LBB1437:
	.loc 3 357 0
	li 9,20
	stw 9,16(1)
	.loc 3 358 0
	addi 9,1,20
	stw 9,12(1)
.LBE1437:
.LBE1440:
.LBE1443:
	.loc 2 1602 0
	bne- 7,.L144
	.cfi_offset 70, -28
	.cfi_offset 30, -8
	.cfi_offset 29, -12
	.cfi_offset 27, -20
	.cfi_offset 26, -24
	.loc 2 1607 0
	cmpwi 4,5,0
	bne- 4,.L133
	.loc 2 1607 0 is_stmt 0 discriminator 1
	lis 4,.LANCHOR0@ha
.LVL155:
	la 4,.LANCHOR0@l(4)
	lbz 0,1236(4)
	cmpwi 7,0,0
	bne- 7,.L145
.L133:
	.loc 2 1610 0 is_stmt 1
	addi 29,1,8
	mr 4,28
	mr 3,29
.LVL156:
.LEHB9:
	bl _ZN5idStraSEPKc
.LVL157:
	.loc 2 1612 0
	beq- 4,.L134
	.loc 2 1613 0
	lis 27,_ZN5idLib10fileSystemE@ha
	lwz 4,12(1)
	lwz 3,_ZN5idLib10fileSystemE@l(27)
.LVL158:
	lwz 9,0(3)
	lwz 0,128(9)
	mtctr 0
	bctrl
	.loc 2 1617 0
	cmpwi 7,3,0
	.loc 2 1615 0
	mr 30,3
.LVL159:
	.loc 2 1617 0
	beq- 7,.L140
.LVL160:
.L146:
	.loc 2 1620 0
	lwz 9,0(3)
	lwz 0,28(9)
	mtctr 0
	bctrl
.LVL161:
	.loc 2 1624 0
	lwz 9,0(30)
	.loc 2 1620 0
	mr 26,3
.LVL162:
	.loc 2 1624 0
	mr 3,30
.LVL163:
	lwz 0,32(9)
	mtctr 0
	bctrl
	.loc 2 1624 0 is_stmt 0 discriminator 1
	stw 3,84(31)
	.loc 2 1625 0 is_stmt 1 discriminator 1
	mr 3,30
	lwz 9,0(30)
	lwz 0,16(9)
	mtctr 0
	bctrl
	mr 4,3
	addi 3,31,4
	bl _ZN5idStraSEPKc
	.loc 2 1626 0
	lwz 3,_ZN5idLib10fileSystemE@l(27)
	mr 4,30
	lwz 9,0(3)
	lwz 0,136(9)
	mtctr 0
	bctrl
.LBB1444:
.LBB1445:
	.loc 2 2064 0
	mr 3,31
	li 0,0
.LBE1445:
.LBE1444:
	.loc 2 1629 0
	stw 26,88(31)
.LVL164:
	.loc 2 1632 0
	mr 4,28
.LBB1447:
.LBB1446:
	.loc 2 2064 0
	stwu 0,40(3)
.LBE1446:
.LBE1447:
	.loc 2 1632 0
	bl _ZN11fileDataPtr7setFileEPKc
.LEHE9:
	.loc 2 1639 0
	li 0,1
	.loc 2 1634 0
	li 9,0
	.loc 2 1636 0
	stw 26,68(31)
.LBB1448:
.LBB1449:
.LBB1450:
	.loc 3 501 0
	mr 3,29
.LBE1450:
.LBE1449:
.LBE1448:
	.loc 2 1639 0
	stw 0,92(31)
	.loc 2 1640 0
	stw 0,96(31)
	.loc 2 1642 0
	stw 0,0(31)
	.loc 2 1634 0
	stw 9,72(31)
	.loc 2 1638 0
	stw 9,100(31)
	.loc 2 1641 0
	stw 9,36(31)
	.loc 2 1644 0
	li 31,1
.LVL165:
.LEHB10:
.LBB1459:
.LBB1455:
.LBB1451:
	.loc 3 501 0
	bl _ZN5idStr8FreeDataEv
.LEHE10:
.LBE1451:
.LBE1455:
.LBE1459:
.LBE1466:
	.loc 2 1645 0
	lwz 0,76(1)
	lwz 12,44(1)
	mr 3,31
	mtlr 0
	lwz 26,48(1)
.LVL166:
	lwz 27,52(1)
	mtcrf 8,12
	lwz 28,56(1)
.LVL167:
	lwz 29,60(1)
	lwz 30,64(1)
.LVL168:
	lwz 31,68(1)
	addi 1,1,72
	.cfi_remember_state
.LCFI50:
	.cfi_def_cfa_offset 0
	.cfi_restore 70
	.cfi_restore 31
	.cfi_restore 30
	.cfi_restore 29
	.cfi_restore 28
	.cfi_restore 27
	.cfi_restore 26
	blr
.LVL169:
.L145:
.LCFI51:
	.cfi_restore_state
.LBB1467:
	.loc 2 1608 0
	lis 3,.LC12@ha
.LVL170:
	addi 4,4,1236
	la 3,.LC12@l(3)
	mr 5,28
.LVL171:
	addi 29,1,8
.LEHB11:
	crxor 6,6,6
	bl _Z2vaPKcz
	addi 29,1,8
	mr 4,3
	mr 3,29
	bl _ZN5idStraSEPKc
.L134:
	.loc 2 1615 0
	lis 27,_ZN5idLib10fileSystemE@ha
	lwz 4,12(1)
	lwz 3,_ZN5idLib10fileSystemE@l(27)
.LVL172:
	li 5,1
	li 6,0
	lwz 9,0(3)
	lwz 0,112(9)
	mtctr 0
	bctrl
.LEHE11:
	.loc 2 1617 0
	cmpwi 7,3,0
	.loc 2 1615 0
	mr 30,3
.LVL173:
	.loc 2 1617 0
	bne+ 7,.L146
.LVL174:
.L140:
.LBB1460:
.LBB1456:
.LBB1452:
	.loc 3 501 0
	mr 3,29
.LVL175:
.LBE1452:
.LBE1456:
.LBE1460:
	.loc 2 1618 0
	li 31,0
.LVL176:
.LEHB12:
.LBB1461:
.LBB1457:
.LBB1453:
	.loc 3 501 0
	bl _ZN5idStr8FreeDataEv
.LEHE12:
.LBE1453:
.LBE1457:
.LBE1461:
.LBE1467:
	.loc 2 1645 0
	lwz 0,76(1)
	lwz 12,44(1)
	mr 3,31
	mtlr 0
	lwz 26,48(1)
	lwz 27,52(1)
	mtcrf 8,12
	lwz 28,56(1)
.LVL177:
	lwz 29,60(1)
	lwz 30,64(1)
.LVL178:
	lwz 31,68(1)
	addi 1,1,72
	.cfi_remember_state
	.cfi_restore 26
	.cfi_restore 27
	.cfi_restore 28
	.cfi_restore 29
	.cfi_restore 30
	.cfi_restore 31
	.cfi_restore 70
.LCFI52:
	.cfi_def_cfa_offset 0
	blr
.LVL179:
.L144:
.LCFI53:
	.cfi_restore_state
.LBB1468:
	.loc 2 1603 0
	lis 9,_ZN5idLib6commonE@ha
	lis 4,.LC11@ha
.LVL180:
	lwz 3,_ZN5idLib6commonE@l(9)
.LVL181:
	la 4,.LC11@l(4)
	addi 29,1,8
	lwz 9,0(3)
	lwz 0,96(9)
	mtctr 0
.LEHB13:
	crxor 6,6,6
	bctrl
.LEHE13:
.LVL182:
	addi 29,1,8
.LVL183:
	.loc 2 1604 0
	li 31,0
.LVL184:
.LBB1462:
.LBB1458:
.LBB1454:
	.loc 3 501 0
	mr 3,29
.LEHB14:
	bl _ZN5idStr8FreeDataEv
.LEHE14:
.LBE1454:
.LBE1458:
.LBE1462:
.LBE1468:
	.loc 2 1645 0
	lwz 0,76(1)
	lwz 12,44(1)
	mr 3,31
	mtlr 0
	lwz 26,48(1)
	lwz 27,52(1)
	mtcrf 8,12
	lwz 28,56(1)
.LVL185:
	lwz 29,60(1)
	lwz 30,64(1)
	lwz 31,68(1)
	addi 1,1,72
	.cfi_remember_state
	.cfi_restore 26
	.cfi_restore 27
	.cfi_restore 28
	.cfi_restore 29
	.cfi_restore 30
	.cfi_restore 31
	.cfi_restore 70
.LCFI54:
	.cfi_def_cfa_offset 0
	blr
.LVL186:
.L141:
.LCFI55:
	.cfi_restore_state
	mr 31,3
.LVL187:
.LBB1469:
.LBB1463:
.LBB1464:
.LBB1465:
	.loc 3 501 0
	mr 3,29
	bl _ZN5idStr8FreeDataEv
	mr 3,31
.LEHB15:
	bl _Unwind_Resume
.LEHE15:
.LBE1465:
.LBE1464:
.LBE1463:
.LBE1469:
	.cfi_endproc
.LFE2580:
	.section	.gcc_except_table
.LLSDA2580:
	.byte	0xff
	.byte	0xff
	.byte	0x1
	.uleb128 .LLSDACSE2580-.LLSDACSB2580
.LLSDACSB2580:
	.uleb128 .LEHB9-.LFB2580
	.uleb128 .LEHE9-.LEHB9
	.uleb128 .L141-.LFB2580
	.uleb128 0
	.uleb128 .LEHB10-.LFB2580
	.uleb128 .LEHE10-.LEHB10
	.uleb128 0
	.uleb128 0
	.uleb128 .LEHB11-.LFB2580
	.uleb128 .LEHE11-.LEHB11
	.uleb128 .L141-.LFB2580
	.uleb128 0
	.uleb128 .LEHB12-.LFB2580
	.uleb128 .LEHE12-.LEHB12
	.uleb128 0
	.uleb128 0
	.uleb128 .LEHB13-.LFB2580
	.uleb128 .LEHE13-.LEHB13
	.uleb128 .L141-.LFB2580
	.uleb128 0
	.uleb128 .LEHB14-.LFB2580
	.uleb128 .LEHE14-.LEHB14
	.uleb128 0
	.uleb128 0
	.uleb128 .LEHB15-.LFB2580
	.uleb128 .LEHE15-.LEHB15
	.uleb128 0
	.uleb128 0
.LLSDACSE2580:
	.section	".text"
	.size	_ZN7idLexer8LoadFileEPKcb, .-_ZN7idLexer8LoadFileEPKcb
	.align 2
	.globl _ZN7idLexerC2EPKcib
	.type	_ZN7idLexerC2EPKcib, @function
_ZN7idLexerC2EPKcib:
.LFB2590:
	.loc 2 1760 0
	.cfi_startproc
	.cfi_personality 0,__gxx_personality_v0
	.cfi_lsda 0,.LLSDA2590
.LVL188:
	mflr 0
	stwu 1,-24(1)
.LCFI56:
	.cfi_def_cfa_offset 24
	.cfi_register 65, 0
.LBB1470:
.LBB1471:
.LBB1472:
.LBB1473:
	.loc 3 358 0
	addi 10,3,16
	.loc 3 357 0
	li 9,20
.LBE1473:
.LBE1472:
.LBE1471:
.LBE1470:
	.loc 2 1760 0
	stw 28,8(1)
.LBB1516:
.LBB1484:
.LBB1485:
.LBB1486:
.LBB1487:
	.loc 3 358 0
	addi 11,3,132
.LBE1487:
.LBE1486:
.LBE1485:
.LBE1484:
.LBE1516:
	.loc 2 1760 0
	stw 0,28(1)
.LBB1517:
.LBB1491:
.LBB1479:
.LBB1474:
	.loc 3 356 0
	li 0,0
	.cfi_offset 65, 4
	.cfi_offset 28, -16
.LBE1474:
.LBE1479:
.LBE1491:
.LBE1517:
	.loc 2 1760 0
	stw 29,12(1)
	mr 28,4
	stw 30,16(1)
.LBB1518:
	.loc 2 1767 0
	li 4,0
.LVL189:
.LBE1518:
	.loc 2 1760 0
	stw 31,20(1)
	.loc 2 1760 0
	mr 29,6
	.cfi_offset 31, -4
	.cfi_offset 30, -8
	.cfi_offset 29, -12
.LBB1519:
.LBB1492:
.LBB1480:
.LBB1475:
	.loc 3 358 0
	stw 10,8(3)
.LBE1475:
.LBE1480:
.LBE1492:
.LBB1493:
.LBB1494:
	.loc 2 1828 0
	lis 10,0x7fff
	ori 10,10,65535
.LBE1494:
.LBE1493:
.LBB1497:
.LBB1481:
.LBB1476:
	.loc 3 356 0
	stw 0,4(3)
.LBE1476:
.LBE1481:
.LBE1497:
.LBB1498:
.LBB1495:
	.loc 2 1828 0
	stw 10,52(3)
	.loc 2 1829 0
	lis 10,0x8000
	stw 10,56(3)
	.loc 2 1833 0
	li 10,1
.LBE1495:
.LBE1498:
.LBB1499:
.LBB1482:
.LBB1477:
	.loc 3 357 0
	stw 9,12(3)
.LBE1477:
.LBE1482:
.LBE1499:
.LBE1519:
	.loc 2 1760 0
	mr 31,3
.LVL190:
.LBB1520:
.LBB1500:
.LBB1483:
.LBB1478:
	.loc 3 359 0
	stb 0,16(3)
.LVL191:
	addi 30,3,120
.LBE1478:
.LBE1483:
.LBE1500:
.LBB1501:
.LBB1496:
	.loc 2 1830 0
	stw 0,40(3)
	.loc 2 1831 0
	stw 0,48(3)
	.loc 2 1832 0
	stb 0,64(3)
	.loc 2 1833 0
	stb 10,65(3)
.LVL192:
.LBE1496:
.LBE1501:
.LBB1502:
.LBB1490:
.LBB1489:
.LBB1488:
	.loc 3 356 0
	stw 0,120(3)
	.loc 3 357 0
	stw 9,128(3)
	.loc 3 358 0
	stw 11,124(3)
	.loc 3 359 0
	stb 0,132(3)
.LBE1488:
.LBE1489:
.LBE1490:
.LBE1502:
	.loc 2 1765 0
	stw 0,0(3)
	.loc 2 1766 0
	stw 5,104(3)
.LEHB16:
	.loc 2 1767 0
	bl _ZN7idLexer15SetPunctuationsEPK13punctuation_s
.LVL193:
	.loc 2 1768 0
	li 0,0
.LBB1503:
.LBB1504:
	.loc 4 123 0
	lis 4,.LC3@ha
.LBE1504:
.LBE1503:
	.loc 2 1768 0
	stw 0,36(31)
.LVL194:
.LBB1506:
.LBB1505:
	.loc 4 123 0
	mr 3,30
	la 4,.LC3@l(4)
	bl _ZN5idStraSEPKc
.LBE1505:
.LBE1506:
	.loc 2 1770 0
	li 0,0
	.loc 2 1772 0
	mr 3,31
	.loc 2 1770 0
	stw 0,200(31)
	.loc 2 1772 0
	mr 4,28
	.loc 2 1771 0
	stb 0,204(31)
	.loc 2 1772 0
	mr 5,29
	bl _ZN7idLexer8LoadFileEPKcb
.LEHE16:
.LBE1520:
	.loc 2 1773 0
	lwz 0,28(1)
	lwz 28,8(1)
.LVL195:
	mtlr 0
	lwz 29,12(1)
	lwz 30,16(1)
.LVL196:
	lwz 31,20(1)
.LVL197:
	addi 1,1,24
	.cfi_remember_state
.LCFI57:
	.cfi_def_cfa_offset 0
	.cfi_restore 31
	.cfi_restore 30
	.cfi_restore 29
	.cfi_restore 28
	blr
.LVL198:
.L152:
.LCFI58:
	.cfi_restore_state
	mr 29,3
.LVL199:
.LBB1521:
.LBB1507:
.LBB1508:
.LBB1509:
.LBB1510:
.LBB1511:
.LBB1512:
	.loc 3 501 0
	mr 3,30
	bl _ZN5idStr8FreeDataEv
.LBE1512:
.LBE1511:
.LBE1510:
.LBE1509:
.LBE1508:
.LBE1507:
	.loc 2 1760 0
	addi 3,31,40
	bl _ZN11fileDataPtrD1Ev
.LVL200:
.LBB1513:
.LBB1514:
.LBB1515:
	.loc 3 501 0
	addi 3,31,4
	bl _ZN5idStr8FreeDataEv
	mr 3,29
.LEHB17:
	bl _Unwind_Resume
.LEHE17:
.LBE1515:
.LBE1514:
.LBE1513:
.LBE1521:
	.cfi_endproc
.LFE2590:
	.section	.gcc_except_table
.LLSDA2590:
	.byte	0xff
	.byte	0xff
	.byte	0x1
	.uleb128 .LLSDACSE2590-.LLSDACSB2590
.LLSDACSB2590:
	.uleb128 .LEHB16-.LFB2590
	.uleb128 .LEHE16-.LEHB16
	.uleb128 .L152-.LFB2590
	.uleb128 0
	.uleb128 .LEHB17-.LFB2590
	.uleb128 .LEHE17-.LEHB17
	.uleb128 0
	.uleb128 0
.LLSDACSE2590:
	.section	".text"
	.size	_ZN7idLexerC2EPKcib, .-_ZN7idLexerC2EPKcib
	.align 2
	.globl _ZN11fileDataPtr9setBufferEPci
	.type	_ZN11fileDataPtr9setBufferEPci, @function
_ZN11fileDataPtr9setBufferEPci:
.LFB2613:
	.loc 2 1940 0
	.cfi_startproc
.LVL201:
	stwu 1,-24(1)
.LCFI59:
	.cfi_def_cfa_offset 24
	mflr 0
	stw 30,16(1)
	.loc 2 1941 0
	mr. 30,4
	.cfi_offset 30, -8
	.cfi_register 65, 0
	.loc 2 1940 0
	stw 29,12(1)
	mr 29,5
	.cfi_offset 29, -12
	stw 31,20(1)
	mr 31,3
	.cfi_offset 31, -4
	stw 0,28(1)
	.loc 2 1941 0
	beq- 0,.L157
	.cfi_offset 65, 4
.LVL202:
.L155:
	.loc 2 1945 0
	lbz 0,24(31)
	cmpwi 7,0,0
	beq- 7,.L156
	.loc 2 1945 0 is_stmt 0 discriminator 1
	lwz 3,4(31)
	cmpwi 7,3,0
	beq- 7,.L156
	.loc 2 1946 0 is_stmt 1
	bl _Z8Mem_FreePv
.L156:
	.loc 2 1950 0
	li 0,0
	.loc 2 1948 0
	stw 29,20(31)
	.loc 2 1949 0
	stw 30,4(31)
	.loc 2 1950 0
	stw 0,12(31)
	.loc 2 1951 0
	stw 29,16(31)
	.loc 2 1952 0
	stw 0,8(31)
	.loc 2 1953 0
	stb 0,24(31)
	.loc 2 1954 0
	lwz 0,28(1)
	lwz 29,12(1)
.LVL203:
	mtlr 0
	lwz 30,16(1)
.LVL204:
	lwz 31,20(1)
.LVL205:
	addi 1,1,24
	.cfi_remember_state
.LCFI60:
	.cfi_def_cfa_offset 0
	.cfi_restore 31
	.cfi_restore 30
	.cfi_restore 29
	blr
.LVL206:
.L157:
.LCFI61:
	.cfi_restore_state
	.loc 2 1942 0
	lis 3,.LC13@ha
.LVL207:
	la 3,.LC13@l(3)
	crxor 6,6,6
	bl _Z9Sys_ErrorPKcz
.LVL208:
	b .L155
	.cfi_endproc
.LFE2613:
	.size	_ZN11fileDataPtr9setBufferEPci, .-_ZN11fileDataPtr9setBufferEPci
	.align 2
	.globl _ZN7idLexer10LoadMemoryEPKciS1_i
	.type	_ZN7idLexer10LoadMemoryEPKciS1_i, @function
_ZN7idLexer10LoadMemoryEPKciS1_i:
.LFB2581:
	.loc 2 1652 0
	.cfi_startproc
.LVL209:
	mflr 0
	stwu 1,-32(1)
.LCFI62:
	.cfi_def_cfa_offset 32
	.cfi_register 65, 0
	stw 27,12(1)
	mr 27,7
	.cfi_offset 27, -20
	stw 28,16(1)
	mr 28,4
	.cfi_offset 28, -16
	stw 29,20(1)
	mr 29,5
	.cfi_offset 29, -12
	stw 31,28(1)
	mr 31,3
	.cfi_offset 31, -4
	stw 0,36(1)
	stw 30,24(1)
	.loc 2 1653 0
	lwz 30,0(3)
	.cfi_offset 30, -8
	.cfi_offset 65, 4
	cmpwi 7,30,0
	bne- 7,.L161
	.loc 2 1657 0
	mr 4,6
.LVL210:
	addi 3,3,4
.LVL211:
	bl _ZN5idStraSEPKc
.LVL212:
.LBB1522:
.LBB1523:
	.loc 2 2064 0
	mr 3,31
.LBE1523:
.LBE1522:
	.loc 2 1659 0
	stw 30,84(31)
	.loc 2 1663 0
	mr 4,28
	.loc 2 1660 0
	stw 29,88(31)
.LVL213:
	.loc 2 1663 0
	mr 5,29
.LBB1525:
.LBB1524:
	.loc 2 2064 0
	stwu 30,40(3)
.LBE1524:
.LBE1525:
	.loc 2 1663 0
	bl _ZN11fileDataPtr9setBufferEPci
	.loc 2 1673 0
	li 0,1
	.loc 2 1665 0
	stw 30,72(31)
	.loc 2 1675 0
	li 3,1
	.loc 2 1667 0
	stw 29,68(31)
	.loc 2 1669 0
	stw 30,100(31)
	.loc 2 1670 0
	stw 27,92(31)
	.loc 2 1671 0
	stw 27,96(31)
	.loc 2 1672 0
	stw 30,36(31)
	.loc 2 1673 0
	stw 0,0(31)
	.loc 2 1676 0
	lwz 0,36(1)
	lwz 27,12(1)
.LVL214:
	mtlr 0
	lwz 28,16(1)
.LVL215:
	lwz 29,20(1)
.LVL216:
	lwz 30,24(1)
	lwz 31,28(1)
.LVL217:
	addi 1,1,32
	.cfi_remember_state
.LCFI63:
	.cfi_def_cfa_offset 0
	.cfi_restore 31
	.cfi_restore 30
	.cfi_restore 29
	.cfi_restore 28
	.cfi_restore 27
	blr
.LVL218:
.L161:
.LCFI64:
	.cfi_restore_state
	.loc 2 1654 0
	lis 9,_ZN5idLib6commonE@ha
	lis 4,.LC14@ha
.LVL219:
	lwz 3,_ZN5idLib6commonE@l(9)
.LVL220:
	la 4,.LC14@l(4)
	lwz 9,0(3)
	lwz 0,96(9)
	mtctr 0
	crxor 6,6,6
	bctrl
.LVL221:
	.loc 2 1676 0
	lwz 0,36(1)
	lwz 27,12(1)
.LVL222:
	.loc 2 1655 0
	li 3,0
	.loc 2 1676 0
	mtlr 0
	lwz 28,16(1)
.LVL223:
	lwz 29,20(1)
.LVL224:
	lwz 30,24(1)
	lwz 31,28(1)
.LVL225:
	addi 1,1,32
	.cfi_restore 27
	.cfi_restore 28
	.cfi_restore 29
	.cfi_restore 30
	.cfi_restore 31
.LCFI65:
	.cfi_def_cfa_offset 0
	blr
	.cfi_endproc
.LFE2581:
	.size	_ZN7idLexer10LoadMemoryEPKciS1_i, .-_ZN7idLexer10LoadMemoryEPKciS1_i
	.align 2
	.globl _ZN7idLexerC2EPKciS1_i
	.type	_ZN7idLexerC2EPKciS1_i, @function
_ZN7idLexerC2EPKciS1_i:
.LFB2593:
	.loc 2 1780 0
	.cfi_startproc
	.cfi_personality 0,__gxx_personality_v0
	.cfi_lsda 0,.LLSDA2593
.LVL226:
	mflr 0
	stwu 1,-32(1)
.LCFI66:
	.cfi_def_cfa_offset 32
	.cfi_register 65, 0
.LBB1526:
.LBB1527:
.LBB1528:
.LBB1529:
	.loc 3 358 0
	addi 10,3,16
	.loc 3 357 0
	li 9,20
.LBE1529:
.LBE1528:
.LBE1527:
.LBE1526:
	.loc 2 1780 0
	stw 27,12(1)
.LBB1572:
.LBB1540:
.LBB1541:
.LBB1542:
.LBB1543:
	.loc 3 358 0
	addi 11,3,132
.LBE1543:
.LBE1542:
.LBE1541:
.LBE1540:
.LBE1572:
	.loc 2 1780 0
	stw 0,36(1)
.LBB1573:
.LBB1547:
.LBB1535:
.LBB1530:
	.loc 3 356 0
	li 0,0
	.cfi_offset 65, 4
	.cfi_offset 27, -20
.LBE1530:
.LBE1535:
.LBE1547:
.LBE1573:
	.loc 2 1780 0
	stw 28,16(1)
	mr 27,4
	stw 29,20(1)
.LBB1574:
	.loc 2 1787 0
	li 4,0
.LVL227:
.LBE1574:
	.loc 2 1780 0
	stw 30,24(1)
	mr 28,5
	.cfi_offset 30, -8
	.cfi_offset 29, -12
	.cfi_offset 28, -16
	stw 31,28(1)
	.loc 2 1780 0
	mr 29,6
.LBB1575:
.LBB1548:
.LBB1536:
.LBB1531:
	.loc 3 358 0
	stw 10,8(3)
.LBE1531:
.LBE1536:
.LBE1548:
.LBB1549:
.LBB1550:
	.loc 2 1828 0
	lis 10,0x7fff
	ori 10,10,65535
.LBE1550:
.LBE1549:
.LBB1553:
.LBB1537:
.LBB1532:
	.loc 3 356 0
	stw 0,4(3)
.LBE1532:
.LBE1537:
.LBE1553:
.LBB1554:
.LBB1551:
	.loc 2 1828 0
	stw 10,52(3)
	.loc 2 1829 0
	lis 10,0x8000
	stw 10,56(3)
	.loc 2 1833 0
	li 10,1
.LBE1551:
.LBE1554:
.LBB1555:
.LBB1538:
.LBB1533:
	.loc 3 357 0
	stw 9,12(3)
.LBE1533:
.LBE1538:
.LBE1555:
.LBE1575:
	.loc 2 1780 0
	mr 31,3
	.cfi_offset 31, -4
.LVL228:
.LBB1576:
.LBB1556:
.LBB1539:
.LBB1534:
	.loc 3 359 0
	stb 0,16(3)
.LVL229:
	addi 30,3,120
.LBE1534:
.LBE1539:
.LBE1556:
.LBB1557:
.LBB1552:
	.loc 2 1830 0
	stw 0,40(3)
	.loc 2 1831 0
	stw 0,48(3)
	.loc 2 1832 0
	stb 0,64(3)
	.loc 2 1833 0
	stb 10,65(3)
.LVL230:
.LBE1552:
.LBE1557:
.LBB1558:
.LBB1546:
.LBB1545:
.LBB1544:
	.loc 3 356 0
	stw 0,120(3)
	.loc 3 357 0
	stw 9,128(3)
	.loc 3 358 0
	stw 11,124(3)
	.loc 3 359 0
	stb 0,132(3)
.LBE1544:
.LBE1545:
.LBE1546:
.LBE1558:
	.loc 2 1785 0
	stw 0,0(3)
	.loc 2 1786 0
	stw 7,104(3)
.LEHB18:
	.loc 2 1787 0
	bl _ZN7idLexer15SetPunctuationsEPK13punctuation_s
.LVL231:
	.loc 2 1788 0
	li 0,0
.LBB1559:
.LBB1560:
	.loc 4 123 0
	lis 4,.LC3@ha
.LBE1560:
.LBE1559:
	.loc 2 1788 0
	stw 0,36(31)
.LVL232:
.LBB1562:
.LBB1561:
	.loc 4 123 0
	mr 3,30
	la 4,.LC3@l(4)
	bl _ZN5idStraSEPKc
.LBE1561:
.LBE1562:
	.loc 2 1790 0
	li 0,0
	.loc 2 1792 0
	mr 3,31
	.loc 2 1790 0
	stw 0,200(31)
	.loc 2 1792 0
	mr 4,27
	.loc 2 1791 0
	stb 0,204(31)
	.loc 2 1792 0
	mr 5,28
	mr 6,29
	li 7,1
	bl _ZN7idLexer10LoadMemoryEPKciS1_i
.LEHE18:
.LBE1576:
	.loc 2 1793 0
	lwz 0,36(1)
	lwz 27,12(1)
.LVL233:
	mtlr 0
	lwz 28,16(1)
.LVL234:
	lwz 29,20(1)
.LVL235:
	lwz 30,24(1)
.LVL236:
	lwz 31,28(1)
.LVL237:
	addi 1,1,32
	.cfi_remember_state
.LCFI67:
	.cfi_def_cfa_offset 0
	.cfi_restore 31
	.cfi_restore 30
	.cfi_restore 29
	.cfi_restore 28
	.cfi_restore 27
	blr
.LVL238:
.L167:
.LCFI68:
	.cfi_restore_state
	mr 29,3
.LVL239:
.LBB1577:
.LBB1563:
.LBB1564:
.LBB1565:
.LBB1566:
.LBB1567:
.LBB1568:
	.loc 3 501 0
	mr 3,30
	bl _ZN5idStr8FreeDataEv
.LBE1568:
.LBE1567:
.LBE1566:
.LBE1565:
.LBE1564:
.LBE1563:
	.loc 2 1780 0
	addi 3,31,40
	bl _ZN11fileDataPtrD1Ev
.LVL240:
.LBB1569:
.LBB1570:
.LBB1571:
	.loc 3 501 0
	addi 3,31,4
	bl _ZN5idStr8FreeDataEv
	mr 3,29
.LEHB19:
	bl _Unwind_Resume
.LEHE19:
.LBE1571:
.LBE1570:
.LBE1569:
.LBE1577:
	.cfi_endproc
.LFE2593:
	.section	.gcc_except_table
.LLSDA2593:
	.byte	0xff
	.byte	0xff
	.byte	0x1
	.uleb128 .LLSDACSE2593-.LLSDACSB2593
.LLSDACSB2593:
	.uleb128 .LEHB18-.LFB2593
	.uleb128 .LEHE18-.LEHB18
	.uleb128 .L167-.LFB2593
	.uleb128 0
	.uleb128 .LEHB19-.LFB2593
	.uleb128 .LEHE19-.LEHB19
	.uleb128 0
	.uleb128 0
.LLSDACSE2593:
	.section	".text"
	.size	_ZN7idLexerC2EPKciS1_i, .-_ZN7idLexerC2EPKciS1_i
	.align 2
	.globl _ZN11fileDataPtr7readBufEi
	.type	_ZN11fileDataPtr7readBufEi, @function
_ZN11fileDataPtr7readBufEi:
.LFB2614:
	.loc 2 1956 0
	.cfi_startproc
.LVL241:
	mflr 0
	stwu 1,-24(1)
.LCFI69:
	.cfi_def_cfa_offset 24
	.cfi_register 65, 0
	stw 30,16(1)
	mr 30,4
	.cfi_offset 30, -8
	stw 31,20(1)
	mr 31,3
	.cfi_offset 31, -4
	stw 0,28(1)
	stw 28,8(1)
	stw 29,12(1)
.LBB1586:
	.loc 2 1957 0
	lwz 0,20(3)
	.cfi_offset 29, -12
	.cfi_offset 28, -16
	.cfi_offset 65, 4
	.loc 2 1983 0
	li 3,0
.LVL242:
	.loc 2 1957 0
	cmpw 7,0,4
	ble- 7,.L170
.LVL243:
.LBE1586:
.LBB1587:
.LBB1588:
.LBB1589:
	.loc 2 1958 0
	lwz 28,12(31)
	lwz 29,16(31)
	cmpw 7,4,28
	blt- 7,.L172
	cmpw 7,4,29
	bge- 7,.L172
	subf 30,28,4
.LVL244:
.L173:
.LBE1589:
	.loc 2 1980 0
	lwz 9,4(31)
	lbzx 3,9,30
.LVL245:
.L170:
.LBE1588:
.LBE1587:
	.loc 2 1984 0
	lwz 0,28(1)
	lwz 28,8(1)
	mtlr 0
	lwz 29,12(1)
	lwz 30,16(1)
	lwz 31,20(1)
.LVL246:
	addi 1,1,24
	.cfi_remember_state
.LCFI70:
	.cfi_def_cfa_offset 0
	.cfi_restore 31
	.cfi_restore 30
	.cfi_restore 29
	.cfi_restore 28
	blr
.LVL247:
.L172:
.LCFI71:
	.cfi_restore_state
.LBB1593:
.LBB1592:
.LBB1591:
.LBB1590:
	.loc 2 1960 0
	lwz 3,8(31)
	lwz 9,0(3)
	lwz 0,28(9)
	mtctr 0
	bctrl
.LVL248:
	mr 4,30
	mr 7,3
	lis 3,.LC15@ha
	la 3,.LC15@l(3)
	mr 5,28
	mr 6,29
	crxor 6,6,6
	bl _Z10Sys_PrintfPKcz
	.loc 2 1962 0
	lwz 3,8(31)
	mr 4,30
	li 5,2
	lwz 9,0(3)
	lwz 0,48(9)
	mtctr 0
	bctrl
	cmpwi 7,3,0
	blt- 7,.L176
.L174:
	.loc 2 1965 0
	lwz 3,8(31)
	lis 5,0x4
	lwz 4,4(31)
	lwz 9,0(3)
	lwz 0,20(9)
	mtctr 0
	bctrl
	mr 29,3
.LVL249:
	.loc 2 1966 0
	lis 3,.LC17@ha
.LVL250:
	mr 4,29
	la 3,.LC17@l(3)
	.loc 2 1978 0
	add 29,30,29
.LVL251:
	.loc 2 1966 0
	crxor 6,6,6
	bl _Z10Sys_PrintfPKcz
.LVL252:
	.loc 2 1977 0
	stw 30,12(31)
	.loc 2 1978 0
	li 30,0
.LVL253:
	stw 29,16(31)
	b .L173
.LVL254:
.L176:
	.loc 2 1963 0
	lwz 3,8(31)
	lwz 28,12(31)
	lwz 9,0(3)
	lwz 29,16(31)
	lwz 0,28(9)
	mtctr 0
	bctrl
	mr 4,30
	mr 7,3
	lis 3,.LC16@ha
	la 3,.LC16@l(3)
	mr 5,28
	mr 6,29
	crxor 6,6,6
	bl _Z9Sys_ErrorPKcz
	b .L174
.LBE1590:
.LBE1591:
.LBE1592:
.LBE1593:
	.cfi_endproc
.LFE2614:
	.size	_ZN11fileDataPtr7readBufEi, .-_ZN11fileDataPtr7readBufEi
	.align 2
	.globl _ZNK11fileDataPtrcvKiEv
	.type	_ZNK11fileDataPtrcvKiEv, @function
_ZNK11fileDataPtrcvKiEv:
.LFB2615:
	.loc 2 1988 0
	.cfi_startproc
.LVL255:
	.loc 2 1991 0
	lwz 3,0(3)
.LVL256:
	blr
	.cfi_endproc
.LFE2615:
	.size	_ZNK11fileDataPtrcvKiEv, .-_ZNK11fileDataPtrcvKiEv
	.align 2
	.globl _ZN11fileDataPtrcvKiEv
	.type	_ZN11fileDataPtrcvKiEv, @function
_ZN11fileDataPtrcvKiEv:
.LFB2616:
	.loc 2 1993 0
	.cfi_startproc
.LVL257:
	.loc 2 1996 0
	lwz 3,0(3)
.LVL258:
	blr
	.cfi_endproc
.LFE2616:
	.size	_ZN11fileDataPtrcvKiEv, .-_ZN11fileDataPtrcvKiEv
	.align 2
	.globl _ZN11fileDataPtrdeEv
	.type	_ZN11fileDataPtrdeEv, @function
_ZN11fileDataPtrdeEv:
.LFB2617:
	.loc 2 1999 0
	.cfi_startproc
.LVL259:
	.loc 2 2001 0
	lwz 4,0(3)
	.loc 2 2002 0
	.loc 2 2001 0
	b _ZN11fileDataPtr7readBufEi
.LVL260:
	.cfi_endproc
.LFE2617:
	.size	_ZN11fileDataPtrdeEv, .-_ZN11fileDataPtrdeEv
	.align 2
	.globl _ZN7idLexer14ReadRestOfLineER5idStr
	.type	_ZN7idLexer14ReadRestOfLineER5idStr, @function
_ZN7idLexer14ReadRestOfLineER5idStr:
.LFB2564:
	.loc 2 1200 0
	.cfi_startproc
.LVL261:
	mflr 0
	stwu 1,-64(1)
.LCFI72:
	.cfi_def_cfa_offset 64
	.cfi_register 65, 0
	stw 26,40(1)
	mr 26,3
	.cfi_offset 26, -24
	stw 27,44(1)
.LBB1611:
.LBB1612:
.LBB1613:
	.loc 3 778 0
	li 27,32
	.cfi_offset 27, -20
.LBE1613:
.LBE1612:
.LBE1611:
	.loc 2 1200 0
	stw 28,48(1)
	addi 28,3,40
	.cfi_offset 28, -16
	stw 29,52(1)
.LBB1620:
.LBB1621:
.LBB1622:
	.loc 3 754 0
	li 29,0
	.cfi_offset 29, -12
.LBE1622:
.LBE1621:
.LBE1620:
	.loc 2 1200 0
	stw 31,60(1)
	mr 31,4
	.cfi_offset 31, -4
	stw 0,68(1)
	stw 30,56(1)
	b .L187
	.cfi_offset 30, -8
	.cfi_offset 65, 4
.LVL262:
.L189:
.LBB1631:
.LBB1619:
.LBB1618:
	.loc 3 775 0
	lwz 11,0(31)
.LBB1614:
.LBB1615:
	.loc 3 350 0
	lwz 0,8(31)
.LBE1615:
.LBE1614:
	.loc 3 775 0
	addi 30,11,1
.LVL263:
	.loc 3 776 0
	addi 4,30,1
.LVL264:
.LBB1617:
.LBB1616:
	.loc 3 350 0
	cmpw 7,4,0
	ble+ 7,.L184
	.loc 3 351 0
	mr 3,31
	li 5,1
	bl _ZN5idStr10ReAllocateEib
.LVL265:
	lwz 11,0(31)
.LVL266:
.L184:
.LBE1616:
.LBE1617:
	.loc 3 778 0
	lwz 9,4(31)
	stbx 27,9,11
.LVL267:
	.loc 3 780 0
	stw 30,0(31)
	.loc 3 781 0
	lwz 9,4(31)
	stbx 29,9,30
.LVL268:
.L185:
.LBE1618:
.LBE1619:
.LBE1631:
.LBB1632:
.LBB1633:
	.loc 2 2016 0
	addi 3,1,8
	mr 4,28
	bl _ZN11fileDataPtrC1ERS_
	.loc 2 2017 0
	lwz 9,40(26)
.LBE1633:
.LBE1632:
	.loc 2 1217 0
	addi 3,1,8
.LBB1635:
.LBB1634:
	.loc 2 2017 0
	addi 0,9,1
	stw 0,40(26)
.LBE1634:
.LBE1635:
	.loc 2 1217 0
	bl _ZN11fileDataPtrD1Ev
.LVL269:
.L187:
	.loc 2 1203 0
	mr 3,28
	bl _ZN11fileDataPtrdeEv
	cmpwi 7,3,10
	.loc 2 1208 0
	mr 3,28
	.loc 2 1203 0
	beq- 7,.L188
	.loc 2 1208 0
	bl _ZN11fileDataPtrdeEv
	cmpwi 7,3,0
	.loc 2 1212 0
	mr 3,28
	.loc 2 1208 0
	beq- 7,.L182
	.loc 2 1212 0
	bl _ZN11fileDataPtrdeEv
	cmplwi 7,3,32
	.loc 2 1215 0
	mr 3,28
	.loc 2 1212 0
	ble- 7,.L189
	.loc 2 1215 0
	bl _ZN11fileDataPtrdeEv
.LBB1636:
.LBB1629:
.LBB1627:
	.loc 3 751 0
	lwz 9,0(31)
.LBB1623:
.LBB1624:
	.loc 3 350 0
	lwz 0,8(31)
.LBE1624:
.LBE1623:
.LBE1627:
.LBE1629:
.LBE1636:
	.loc 2 1215 0
	mr 30,3
.LVL270:
.LBB1637:
.LBB1630:
.LBB1628:
	.loc 3 751 0
	addi 4,9,2
.LVL271:
.LBB1626:
.LBB1625:
	.loc 3 350 0
	cmpw 7,4,0
	ble+ 7,.L186
	.loc 3 351 0
	li 5,1
	mr 3,31
.LVL272:
	bl _ZN5idStr10ReAllocateEib
.LVL273:
	lwz 9,0(31)
.L186:
.LBE1625:
.LBE1626:
	.loc 3 752 0
	lwz 11,4(31)
	stbx 30,11,9
	.loc 3 753 0
	lwz 11,0(31)
	.loc 3 754 0
	lwz 9,4(31)
	.loc 3 753 0
	addi 0,11,1
	stw 0,0(31)
	.loc 3 754 0
	stbx 29,9,0
	b .L185
.LVL274:
.L188:
.LBE1628:
.LBE1630:
.LBE1637:
	.loc 2 1204 0
	lwz 9,92(26)
	addi 0,9,1
	stw 0,92(26)
.L182:
.LVL275:
.LBB1638:
.LBB1639:
	.loc 3 937 0
	mr 3,31
	li 4,32
	bl _ZN5idStr12StripLeadingEc
	.loc 3 938 0
	mr 3,31
	li 4,32
	bl _ZN5idStr13StripTrailingEc
.LBE1639:
.LBE1638:
	.loc 2 1223 0
	lwz 0,68(1)
	lwz 3,4(31)
	mtlr 0
	lwz 26,40(1)
.LVL276:
	lwz 27,44(1)
	lwz 28,48(1)
.LVL277:
	lwz 29,52(1)
	lwz 30,56(1)
	lwz 31,60(1)
.LVL278:
	addi 1,1,64
.LCFI73:
	.cfi_def_cfa_offset 0
	.cfi_restore 31
	.cfi_restore 30
	.cfi_restore 29
	.cfi_restore 28
	.cfi_restore 27
	.cfi_restore 26
	blr
	.cfi_endproc
.LFE2564:
	.size	_ZN7idLexer14ReadRestOfLineER5idStr, .-_ZN7idLexer14ReadRestOfLineER5idStr
	.align 2
	.globl _ZN7idLexer8ReadNameEP7idToken
	.type	_ZN7idLexer8ReadNameEP7idToken, @function
_ZN7idLexer8ReadNameEP7idToken:
.LFB2547:
	.loc 2 537 0
	.cfi_startproc
	.cfi_personality 0,__gxx_personality_v0
	.cfi_lsda 0,.LLSDA2547
.LVL279:
	mflr 0
	stwu 1,-56(1)
.LCFI74:
	.cfi_def_cfa_offset 56
	.cfi_register 65, 0
	stw 29,44(1)
	addi 29,3,40
	.cfi_offset 29, -12
	stw 0,60(1)
.LBB1647:
	.loc 2 540 0
	li 0,4
	.cfi_offset 65, 4
.LBE1647:
	.loc 2 537 0
	stw 30,48(1)
	mr 30,3
	.cfi_offset 30, -8
	stw 31,52(1)
	mr 31,4
	.cfi_offset 31, -4
	stw 28,40(1)
.LBB1666:
	.loc 2 540 0
	stw 0,32(4)
.LVL280:
.L199:
.LBB1648:
.LBB1649:
	.loc 2 2016 0
	addi 3,1,8
	mr 4,29
	.cfi_offset 28, -16
	bl _ZN11fileDataPtrC1ERS_
	.loc 2 2017 0
	lwz 9,40(30)
.LBE1649:
.LBE1648:
	.loc 2 542 0
	addi 3,1,8
.LBB1651:
.LBB1650:
	.loc 2 2017 0
	addi 0,9,1
	stw 0,40(30)
.LEHB20:
.LBE1650:
.LBE1651:
	.loc 2 542 0
	bl _ZN11fileDataPtrdeEv
.LEHE20:
.LBB1652:
.LBB1653:
	.loc 4 163 0
	lwz 9,0(31)
.LBE1653:
.LBE1652:
	.loc 2 542 0
	mr 28,3
.LVL281:
.LBB1663:
.LBB1660:
.LBB1654:
.LBB1655:
	.loc 3 350 0
	lwz 0,8(31)
.LBE1655:
.LBE1654:
	.loc 4 163 0
	addi 4,9,2
.LVL282:
.LBB1658:
.LBB1656:
	.loc 3 350 0
	cmpw 7,4,0
	bgt- 7,.L200
.LVL283:
.L191:
.LBE1656:
.LBE1658:
	.loc 4 164 0
	lwz 11,4(31)
	addi 0,9,1
.LBE1660:
.LBE1663:
	.loc 2 542 0
	addi 3,1,8
.LBB1664:
.LBB1661:
	.loc 4 164 0
	stbx 28,11,9
	stw 0,0(31)
.LEHB21:
.LBE1661:
.LBE1664:
	.loc 2 542 0
	bl _ZN11fileDataPtrD1Ev
	.loc 2 543 0
	mr 3,29
	bl _ZN11fileDataPtrdeEv
.LEHE21:
.LVL284:
	.loc 2 541 0
	addi 0,3,-97
	rlwinm 0,0,0,0xff
	cmplwi 7,0,25
	ble- 7,.L199
	.loc 2 541 0 is_stmt 0 discriminator 2
	addi 0,3,-65
	rlwinm 0,0,0,0xff
	cmplwi 7,0,25
	ble- 7,.L199
	.loc 2 541 0 discriminator 3
	addi 0,3,-48
	rlwinm 0,0,0,0xff
	cmplwi 7,0,9
	ble- 7,.L199
	.loc 2 541 0 discriminator 4
	cmpwi 7,3,95
	beq- 7,.L199
	.loc 2 541 0 discriminator 5
	lwz 0,104(30)
	andi. 9,0,8192
	beq- 0,.L193
	.loc 2 541 0 discriminator 6
	cmpwi 7,3,45
	beq- 7,.L199
.L193:
	.loc 2 541 0 discriminator 7
	andi. 9,0,128
	beq- 0,.L194
	.loc 2 541 0 discriminator 8
	cmpwi 7,3,47
	beq- 7,.L199
	.loc 2 541 0 discriminator 10
	cmpwi 7,3,92
	beq- 7,.L199
	.loc 2 541 0 discriminator 11
	cmpwi 7,3,58
	beq- 7,.L199
	.loc 2 541 0 discriminator 12
	cmpwi 7,3,46
	beq- 7,.L199
.L194:
	.loc 2 552 0 is_stmt 1
	lwz 0,0(31)
	li 11,0
	lwz 9,4(31)
.LBE1666:
	.loc 2 556 0
	li 3,1
.LVL285:
.LBB1667:
	.loc 2 552 0
	stbx 11,9,0
	.loc 2 554 0
	lwz 0,0(31)
	stw 0,36(31)
.LBE1667:
	.loc 2 556 0
	lwz 0,60(1)
	lwz 28,40(1)
.LVL286:
	mtlr 0
	lwz 29,44(1)
.LVL287:
	lwz 30,48(1)
.LVL288:
	lwz 31,52(1)
.LVL289:
	addi 1,1,56
	.cfi_remember_state
.LCFI75:
	.cfi_def_cfa_offset 0
	.cfi_restore 31
	.cfi_restore 30
	.cfi_restore 29
	.cfi_restore 28
	blr
.LVL290:
.L200:
.LCFI76:
	.cfi_restore_state
.LBB1668:
.LBB1665:
.LBB1662:
.LBB1659:
.LBB1657:
	.loc 3 351 0
	mr 3,31
.LVL291:
	li 5,1
.LEHB22:
	bl _ZN5idStr10ReAllocateEib
.LEHE22:
.LVL292:
	lwz 9,0(31)
	b .L191
.LVL293:
.L196:
	mr 31,3
.LVL294:
.LBE1657:
.LBE1659:
.LBE1662:
.LBE1665:
	.loc 2 542 0
	addi 3,1,8
	bl _ZN11fileDataPtrD1Ev
	mr 3,31
.LEHB23:
	bl _Unwind_Resume
.LEHE23:
.LBE1668:
	.cfi_endproc
.LFE2547:
	.section	.gcc_except_table
.LLSDA2547:
	.byte	0xff
	.byte	0xff
	.byte	0x1
	.uleb128 .LLSDACSE2547-.LLSDACSB2547
.LLSDACSB2547:
	.uleb128 .LEHB20-.LFB2547
	.uleb128 .LEHE20-.LEHB20
	.uleb128 .L196-.LFB2547
	.uleb128 0
	.uleb128 .LEHB21-.LFB2547
	.uleb128 .LEHE21-.LEHB21
	.uleb128 0
	.uleb128 0
	.uleb128 .LEHB22-.LFB2547
	.uleb128 .LEHE22-.LEHB22
	.uleb128 .L196-.LFB2547
	.uleb128 0
	.uleb128 .LEHB23-.LFB2547
	.uleb128 .LEHE23-.LEHB23
	.uleb128 0
	.uleb128 0
.LLSDACSE2547:
	.section	".text"
	.size	_ZN7idLexer8ReadNameEP7idToken, .-_ZN7idLexer8ReadNameEP7idToken
	.align 2
	.globl _ZN7idLexer19ReadEscapeCharacterEPc
	.type	_ZN7idLexer19ReadEscapeCharacterEPc, @function
_ZN7idLexer19ReadEscapeCharacterEPc:
.LFB2545:
	.loc 2 357 0
	.cfi_startproc
.LVL295:
	stwu 1,-232(1)
.LCFI77:
	.cfi_def_cfa_offset 232
	mflr 0
	stw 30,224(1)
.LBB1669:
	.loc 2 361 0
	addi 30,3,40
	.cfi_offset 30, -8
	.cfi_register 65, 0
.LVL296:
.LBE1669:
	.loc 2 357 0
	stw 28,216(1)
	mr 28,4
	.cfi_offset 28, -16
	stw 31,228(1)
.LBB1706:
.LBB1670:
.LBB1671:
	.loc 2 2016 0
	mr 4,30
.LVL297:
.LBE1671:
.LBE1670:
.LBE1706:
	.loc 2 357 0
	mr 31,3
	.cfi_offset 31, -4
.LBB1707:
.LBB1675:
.LBB1672:
	.loc 2 2016 0
	addi 3,1,176
.LVL298:
.LBE1672:
.LBE1675:
.LBE1707:
	.loc 2 357 0
	stw 0,236(1)
	stw 29,220(1)
.LBB1708:
.LBB1676:
.LBB1673:
	.loc 2 2016 0
	.cfi_offset 29, -12
	.cfi_offset 65, 4
	bl _ZN11fileDataPtrC1ERS_
	.loc 2 2017 0
	lwz 9,40(31)
.LBE1673:
.LBE1676:
	.loc 2 361 0
	addi 3,1,176
.LBB1677:
.LBB1674:
	.loc 2 2017 0
	addi 0,9,1
	stw 0,40(31)
.LBE1674:
.LBE1677:
	.loc 2 361 0
	bl _ZN11fileDataPtrD1Ev
	.loc 2 363 0
	mr 3,30
	bl _ZN11fileDataPtrdeEv
	addi 3,3,-34
	rlwinm 3,3,0,0xff
	cmplwi 7,3,86
	ble- 7,.L231
.L202:
	.loc 2 400 0
	mr 3,30
	bl _ZN11fileDataPtrdeEv
	cmplwi 7,3,47
	bgt- 7,.L232
.L222:
	.loc 2 401 0 discriminator 4
	lis 4,.LC19@ha
	mr 3,31
	la 4,.LC19@l(4)
	crxor 6,6,6
	bl _ZN7idLexer5ErrorEPKcz
.L223:
	.loc 2 378 0
	li 29,0
	b .L225
.LVL299:
.L233:
	.loc 2 409 0
	mulli 29,29,10
.LVL300:
.LBB1678:
.LBB1679:
	.loc 2 2016 0
	addi 3,1,64
	mr 4,30
.LBE1679:
.LBE1678:
	.loc 2 409 0
	add 29,29,0
.LVL301:
.LBB1682:
.LBB1680:
	.loc 2 2016 0
	bl _ZN11fileDataPtrC1ERS_
	.loc 2 2017 0
	lwz 9,40(31)
.LBE1680:
.LBE1682:
	.loc 2 403 0
	addi 3,1,64
.LBB1683:
.LBB1681:
	.loc 2 2017 0
	addi 0,9,1
	stw 0,40(31)
.LBE1681:
.LBE1683:
	.loc 2 403 0
	bl _ZN11fileDataPtrD1Ev
.LVL302:
.L225:
	.loc 2 404 0
	mr 3,30
	bl _ZN11fileDataPtrdeEv
.LVL303:
	.loc 2 405 0
	addi 0,3,-48
	cmplwi 7,0,9
	ble+ 7,.L233
.LVL304:
.LBB1684:
.LBB1685:
	.loc 2 2029 0
	addi 3,1,36
.LVL305:
	mr 4,30
	bl _ZN11fileDataPtrC1ERS_
.LVL306:
	.loc 2 2030 0
	lwz 9,40(31)
.LBE1685:
.LBE1684:
	.loc 2 411 0
	addi 3,1,36
	b .L230
.LVL307:
.L231:
	.loc 2 363 0
	lis 9,.L215@ha
	slwi 3,3,2
	la 9,.L215@l(9)
	lwzx 0,9,3
	add 9,0,9
	mtctr 9
	bctr
	.section	.rodata
	.align 2
	.align 2
.L215:
	.long .L203-.L215
	.long .L202-.L215
	.long .L202-.L215
	.long .L202-.L215
	.long .L202-.L215
	.long .L204-.L215
	.long .L202-.L215
	.long .L202-.L215
	.long .L202-.L215
	.long .L202-.L215
	.long .L202-.L215
	.long .L202-.L215
	.long .L202-.L215
	.long .L202-.L215
	.long .L202-.L215
	.long .L202-.L215
	.long .L202-.L215
	.long .L202-.L215
	.long .L202-.L215
	.long .L202-.L215
	.long .L202-.L215
	.long .L202-.L215
	.long .L202-.L215
	.long .L202-.L215
	.long .L202-.L215
	.long .L202-.L215
	.long .L202-.L215
	.long .L202-.L215
	.long .L202-.L215
	.long .L205-.L215
	.long .L202-.L215
	.long .L202-.L215
	.long .L202-.L215
	.long .L202-.L215
	.long .L202-.L215
	.long .L202-.L215
	.long .L202-.L215
	.long .L202-.L215
	.long .L202-.L215
	.long .L202-.L215
	.long .L202-.L215
	.long .L202-.L215
	.long .L202-.L215
	.long .L202-.L215
	.long .L202-.L215
	.long .L202-.L215
	.long .L202-.L215
	.long .L202-.L215
	.long .L202-.L215
	.long .L202-.L215
	.long .L202-.L215
	.long .L202-.L215
	.long .L202-.L215
	.long .L202-.L215
	.long .L202-.L215
	.long .L202-.L215
	.long .L202-.L215
	.long .L202-.L215
	.long .L206-.L215
	.long .L202-.L215
	.long .L202-.L215
	.long .L202-.L215
	.long .L202-.L215
	.long .L207-.L215
	.long .L208-.L215
	.long .L202-.L215
	.long .L202-.L215
	.long .L202-.L215
	.long .L209-.L215
	.long .L202-.L215
	.long .L202-.L215
	.long .L202-.L215
	.long .L202-.L215
	.long .L202-.L215
	.long .L202-.L215
	.long .L202-.L215
	.long .L227-.L215
	.long .L202-.L215
	.long .L202-.L215
	.long .L202-.L215
	.long .L211-.L215
	.long .L202-.L215
	.long .L212-.L215
	.long .L202-.L215
	.long .L213-.L215
	.long .L202-.L215
	.long .L214-.L215
	.section	".text"
.L203:
.LVL308:
	.loc 2 373 0
	li 29,34
.LVL309:
.L210:
.LBB1687:
.LBB1688:
	.loc 2 2016 0
	addi 3,1,8
	mr 4,30
	bl _ZN11fileDataPtrC1ERS_
	.loc 2 2017 0
	lwz 9,40(31)
.LBE1688:
.LBE1687:
	.loc 2 421 0
	addi 3,1,8
.LBB1690:
.LBB1689:
	.loc 2 2017 0
	addi 0,9,1
	stw 0,40(31)
.LBE1689:
.LBE1690:
	.loc 2 421 0
	bl _ZN11fileDataPtrD1Ev
	.loc 2 423 0
	stb 29,0(28)
.LBE1708:
	.loc 2 426 0
	li 3,1
	lwz 0,236(1)
	lwz 28,216(1)
.LVL310:
	mtlr 0
	lwz 29,220(1)
	lwz 30,224(1)
.LVL311:
	lwz 31,228(1)
.LVL312:
	addi 1,1,232
	.cfi_remember_state
.LCFI78:
	.cfi_def_cfa_offset 0
	.cfi_restore 31
	.cfi_restore 30
	.cfi_restore 29
	.cfi_restore 28
	blr
.LVL313:
.L204:
.LCFI79:
	.cfi_restore_state
.LBB1709:
	.loc 2 372 0
	li 29,39
	b .L210
.LVL314:
.L205:
	.loc 2 374 0
	li 29,63
	b .L210
.LVL315:
.L206:
	.loc 2 363 0
	li 29,92
	b .L210
.L207:
.LVL316:
	.loc 2 371 0
	li 29,7
	b .L210
.LVL317:
.L208:
	.loc 2 369 0
	li 29,8
	b .L210
.LVL318:
.L209:
	.loc 2 370 0
	li 29,12
	b .L210
.LVL319:
.L227:
	.loc 2 363 0
	li 29,10
	b .L210
.L211:
.LVL320:
	.loc 2 366 0
	li 29,13
	b .L210
.LVL321:
.L212:
	.loc 2 367 0
	li 29,9
	b .L210
.LVL322:
.L213:
	.loc 2 368 0
	li 29,11
	b .L210
.LVL323:
.L214:
.LBB1691:
.LBB1692:
	.loc 2 2016 0
	addi 3,1,148
	mr 4,30
	bl _ZN11fileDataPtrC1ERS_
	.loc 2 2017 0
	lwz 9,40(31)
.LBE1692:
.LBE1691:
	.loc 2 377 0
	addi 3,1,148
	.loc 2 378 0
	li 29,0
.LBB1694:
.LBB1693:
	.loc 2 2017 0
	addi 0,9,1
	stw 0,40(31)
.LBE1693:
.LBE1694:
	.loc 2 377 0
	bl _ZN11fileDataPtrD1Ev
.LVL324:
	b .L220
.LVL325:
.L234:
	.loc 2 383 0
	addi 0,3,-55
.LVL326:
.L217:
.LBB1695:
.LBB1696:
	.loc 2 2016 0
	addi 3,1,120
.LBE1696:
.LBE1695:
	.loc 2 388 0
	slwi 29,29,4
.LVL327:
.LBB1700:
.LBB1697:
	.loc 2 2016 0
	mr 4,30
.LBE1697:
.LBE1700:
	.loc 2 388 0
	add 29,29,0
.LVL328:
.LBB1701:
.LBB1698:
	.loc 2 2016 0
	bl _ZN11fileDataPtrC1ERS_
.LVL329:
	.loc 2 2017 0
	lwz 9,40(31)
.LBE1698:
.LBE1701:
	.loc 2 378 0
	addi 3,1,120
.LBB1702:
.LBB1699:
	.loc 2 2017 0
	addi 0,9,1
	stw 0,40(31)
.LBE1699:
.LBE1702:
	.loc 2 378 0
	bl _ZN11fileDataPtrD1Ev
.LVL330:
.L220:
	.loc 2 379 0
	mr 3,30
	bl _ZN11fileDataPtrdeEv
.LVL331:
	.loc 2 380 0
	addi 0,3,-48
	cmplwi 7,0,9
	ble- 7,.L217
	.loc 2 382 0
	addi 0,3,-65
	cmplwi 7,0,25
	ble- 7,.L234
	.loc 2 384 0
	addi 0,3,-97
	cmplwi 7,0,25
	bgt- 7,.L219
	.loc 2 385 0
	addi 0,3,-87
.LVL332:
	b .L217
.LVL333:
.L219:
.LBB1703:
.LBB1704:
	.loc 2 2029 0
	addi 3,1,92
.LVL334:
	mr 4,30
	bl _ZN11fileDataPtrC1ERS_
.LVL335:
	.loc 2 2030 0
	lwz 9,40(31)
.LBE1704:
.LBE1703:
	.loc 2 390 0
	addi 3,1,92
.LVL336:
.L230:
.LBB1705:
.LBB1686:
	.loc 2 2030 0
	addi 0,9,-1
	stw 0,40(31)
.LBE1686:
.LBE1705:
	.loc 2 411 0
	bl _ZN11fileDataPtrD1Ev
	.loc 2 412 0
	cmpwi 7,29,255
	bgt- 7,.L226
	rlwinm 29,29,0,0xff
.LVL337:
	b .L210
.LVL338:
.L226:
	.loc 2 413 0
	lis 4,.LC18@ha
	mr 3,31
	la 4,.LC18@l(4)
	li 29,255
.LVL339:
	crxor 6,6,6
	bl _ZN7idLexer7WarningEPKcz
.LVL340:
	b .L210
.LVL341:
.L232:
	.loc 2 400 0 discriminator 2
	mr 3,30
	bl _ZN11fileDataPtrdeEv
	cmplwi 7,3,57
	ble- 7,.L223
	b .L222
.LBE1709:
	.cfi_endproc
.LFE2545:
	.size	_ZN7idLexer19ReadEscapeCharacterEPc, .-_ZN7idLexer19ReadEscapeCharacterEPc
	.align 2
	.globl _ZN7idLexer14ReadWhiteSpaceEv
	.type	_ZN7idLexer14ReadWhiteSpaceEv, @function
_ZN7idLexer14ReadWhiteSpaceEv:
.LFB2544:
	.loc 2 285 0
	.cfi_startproc
	.cfi_personality 0,__gxx_personality_v0
	.cfi_lsda 0,.LLSDA2544
.LVL342:
	stwu 1,-360(1)
.LCFI80:
	.cfi_def_cfa_offset 360
	mflr 0
	stw 29,348(1)
	.loc 2 332 0
	lis 29,.LC20@ha
	.cfi_offset 29, -12
	.cfi_register 65, 0
	.loc 2 285 0
	stw 30,352(1)
	.loc 2 332 0
	la 29,.LC20@l(29)
	.loc 2 285 0
	stw 31,356(1)
	mr 30,3
	.cfi_offset 31, -4
	.cfi_offset 30, -8
	stw 0,364(1)
	addi 31,3,40
	stw 28,344(1)
	b .L268
	.cfi_offset 28, -16
	.cfi_offset 65, 4
.LVL343:
.L238:
.LBB1710:
.LBB1711:
	.loc 2 2016 0
	addi 3,1,316
	mr 4,31
	bl _ZN11fileDataPtrC1ERS_
	.loc 2 2017 0
	lwz 9,40(30)
.LBE1711:
.LBE1710:
	.loc 2 295 0
	addi 3,1,316
.LBB1713:
.LBB1712:
	.loc 2 2017 0
	addi 0,9,1
	stw 0,40(30)
.LEHB24:
.LBE1712:
.LBE1713:
	.loc 2 295 0
	bl _ZN11fileDataPtrD1Ev
.LVL344:
.L268:
	.loc 2 288 0 discriminator 1
	mr 3,31
	bl _ZN11fileDataPtrdeEv
	cmplwi 7,3,32
	.loc 2 289 0 discriminator 1
	mr 3,31
	.loc 2 288 0 discriminator 1
	bgt- 7,.L269
	.loc 2 289 0
	bl _ZN11fileDataPtrdeEv
	cmpwi 7,3,0
	beq- 7,.L257
	.loc 2 292 0
	mr 3,31
	bl _ZN11fileDataPtrdeEv
	cmpwi 7,3,10
	bne+ 7,.L238
	.loc 2 293 0
	lwz 9,92(30)
	addi 0,9,1
	stw 0,92(30)
	b .L238
.LVL345:
.L272:
	.loc 2 309 0
	lwz 9,92(30)
.LBB1714:
.LBB1715:
	.loc 2 2016 0
	mr 4,31
	addi 3,1,204
.LBE1715:
.LBE1714:
	.loc 2 309 0
	addi 0,9,1
	stw 0,92(30)
.LVL346:
.LBB1718:
.LBB1716:
	.loc 2 2016 0
	bl _ZN11fileDataPtrC1ERS_
	.loc 2 2017 0
	lwz 9,40(30)
.LBE1716:
.LBE1718:
	.loc 2 310 0
	addi 3,1,204
.LBB1719:
.LBB1717:
	.loc 2 2017 0
	addi 0,9,1
	stw 0,40(30)
.LBE1717:
.LBE1719:
	.loc 2 310 0
	bl _ZN11fileDataPtrD1Ev
	.loc 2 311 0
	mr 3,31
	bl _ZN11fileDataPtrdeEv
	cmpwi 7,3,0
	bne+ 7,.L268
.LVL347:
.L257:
	.loc 2 338 0
	li 3,0
.L237:
	.loc 2 350 0
	lwz 0,364(1)
	lwz 28,344(1)
	mtlr 0
	lwz 29,348(1)
	lwz 30,352(1)
.LVL348:
	lwz 31,356(1)
.LVL349:
	addi 1,1,360
	.cfi_remember_state
.LCFI81:
	.cfi_def_cfa_offset 0
	.cfi_restore 31
	.cfi_restore 30
	.cfi_restore 29
	.cfi_restore 28
	blr
.LVL350:
.L269:
.LCFI82:
	.cfi_restore_state
	.loc 2 298 0
	bl _ZN11fileDataPtrdeEv
.LEHE24:
	cmpwi 7,3,47
	bne- 7,.L255
.LVL351:
.LBB1720:
.LBB1721:
	.loc 2 2049 0
	addi 3,1,288
	mr 4,31
	bl _ZN11fileDataPtrC1ERS_
	.loc 2 2050 0
	lwz 9,288(1)
.LBE1721:
.LBE1720:
	.loc 2 300 0
	addi 3,1,288
.LBB1723:
.LBB1722:
	.loc 2 2050 0
	addi 0,9,1
	stw 0,288(1)
.LEHB25:
.LBE1722:
.LBE1723:
	.loc 2 300 0
	bl _ZN11fileDataPtrdeEv
.LEHE25:
	mr 28,3
	addi 3,1,288
.LEHB26:
	bl _ZN11fileDataPtrD1Ev
.LEHE26:
	cmpwi 7,28,47
	beq- 7,.L270
.LVL352:
.LBB1724:
.LBB1725:
	.loc 2 2049 0
	addi 3,1,176
	mr 4,31
	bl _ZN11fileDataPtrC1ERS_
	.loc 2 2050 0
	lwz 9,176(1)
.LBE1725:
.LBE1724:
	.loc 2 317 0
	addi 3,1,176
.LBB1727:
.LBB1726:
	.loc 2 2050 0
	addi 0,9,1
	stw 0,176(1)
.LEHB27:
.LBE1726:
.LBE1727:
	.loc 2 317 0
	bl _ZN11fileDataPtrdeEv
.LEHE27:
	mr 28,3
	addi 3,1,176
.LEHB28:
	bl _ZN11fileDataPtrD1Ev
	cmpwi 7,28,42
	bne- 7,.L255
.LVL353:
.LBB1728:
.LBB1729:
	.loc 2 2016 0
	addi 3,1,148
	mr 4,31
	bl _ZN11fileDataPtrC1ERS_
	.loc 2 2017 0
	lwz 9,40(30)
.LBE1729:
.LBE1728:
	.loc 2 318 0
	addi 3,1,148
.LBB1731:
.LBB1730:
	.loc 2 2017 0
	addi 0,9,1
	stw 0,40(30)
.LBE1730:
.LBE1731:
	.loc 2 318 0
	bl _ZN11fileDataPtrD1Ev
.L267:
.LVL354:
.LBB1732:
.LBB1733:
	.loc 2 2016 0
	mr 4,31
	addi 3,1,120
	bl _ZN11fileDataPtrC1ERS_
	.loc 2 2017 0
	lwz 9,40(30)
.LBE1733:
.LBE1732:
	.loc 2 320 0
	addi 3,1,120
.LBB1738:
.LBB1734:
	.loc 2 2017 0
	addi 0,9,1
	stw 0,40(30)
.LBE1734:
.LBE1738:
	.loc 2 320 0
	bl _ZN11fileDataPtrD1Ev
	.loc 2 321 0
	mr 3,31
	bl _ZN11fileDataPtrdeEv
	cmpwi 7,3,0
	beq- 7,.L257
	.loc 2 324 0
	mr 3,31
	bl _ZN11fileDataPtrdeEv
	cmpwi 7,3,10
	bne- 7,.L244
.L271:
	.loc 2 325 0
	lwz 9,92(30)
.LBB1739:
.LBB1735:
	.loc 2 2016 0
	mr 4,31
	addi 3,1,120
.LBE1735:
.LBE1739:
	.loc 2 325 0
	addi 0,9,1
	stw 0,92(30)
.LBB1740:
.LBB1736:
	.loc 2 2016 0
	bl _ZN11fileDataPtrC1ERS_
	.loc 2 2017 0
	lwz 9,40(30)
.LBE1736:
.LBE1740:
	.loc 2 320 0
	addi 3,1,120
.LBB1741:
.LBB1737:
	.loc 2 2017 0
	addi 0,9,1
	stw 0,40(30)
.LBE1737:
.LBE1741:
	.loc 2 320 0
	bl _ZN11fileDataPtrD1Ev
	.loc 2 321 0
	mr 3,31
	bl _ZN11fileDataPtrdeEv
	cmpwi 7,3,0
	beq- 7,.L257
	.loc 2 324 0
	mr 3,31
	bl _ZN11fileDataPtrdeEv
	cmpwi 7,3,10
	beq- 7,.L271
.L244:
	.loc 2 327 0
	mr 3,31
	bl _ZN11fileDataPtrdeEv
.LEHE28:
	cmpwi 7,3,47
	bne+ 7,.L267
.LVL355:
.LBB1742:
.LBB1743:
	.loc 2 2056 0
	addi 3,1,92
	mr 4,31
	bl _ZN11fileDataPtrC1ERS_
	.loc 2 2057 0
	lwz 9,92(1)
.LBE1743:
.LBE1742:
	.loc 2 328 0
	addi 3,1,92
.LBB1745:
.LBB1744:
	.loc 2 2057 0
	addi 0,9,-1
	stw 0,92(1)
.LEHB29:
.LBE1744:
.LBE1745:
	.loc 2 328 0
	bl _ZN11fileDataPtrdeEv
.LEHE29:
	mr 28,3
	addi 3,1,92
.LEHB30:
	bl _ZN11fileDataPtrD1Ev
.LEHE30:
	cmpwi 7,28,42
	beq- 7,.L246
.LVL356:
.LBB1746:
.LBB1747:
	.loc 2 2049 0
	addi 3,1,64
	mr 4,31
	bl _ZN11fileDataPtrC1ERS_
	.loc 2 2050 0
	lwz 9,64(1)
.LBE1747:
.LBE1746:
	.loc 2 331 0
	addi 3,1,64
.LBB1749:
.LBB1748:
	.loc 2 2050 0
	addi 0,9,1
	stw 0,64(1)
.LEHB31:
.LBE1748:
.LBE1749:
	.loc 2 331 0
	bl _ZN11fileDataPtrdeEv
.LEHE31:
	mr 28,3
	addi 3,1,64
.LEHB32:
	bl _ZN11fileDataPtrD1Ev
	cmpwi 7,28,42
	bne+ 7,.L267
	.loc 2 332 0
	mr 3,30
	mr 4,29
	crxor 6,6,6
	bl _ZN7idLexer7WarningEPKcz
	b .L267
.LVL357:
.L270:
.LBB1750:
.LBB1751:
	.loc 2 2016 0
	addi 3,1,260
	mr 4,31
	bl _ZN11fileDataPtrC1ERS_
	.loc 2 2017 0
	lwz 9,40(30)
.LBE1751:
.LBE1750:
	.loc 2 301 0
	addi 3,1,260
.LBB1753:
.LBB1752:
	.loc 2 2017 0
	addi 0,9,1
	stw 0,40(30)
.LBE1752:
.LBE1753:
	.loc 2 301 0
	bl _ZN11fileDataPtrD1Ev
	b .L241
.LVL358:
.L273:
	.loc 2 308 0
	mr 3,31
	bl _ZN11fileDataPtrdeEv
	.loc 2 302 0
	cmpwi 7,3,10
	beq- 7,.L272
.LVL359:
.L241:
.LBB1754:
.LBB1755:
	.loc 2 2016 0
	mr 4,31
	addi 3,1,232
	bl _ZN11fileDataPtrC1ERS_
	.loc 2 2017 0
	lwz 9,40(30)
.LBE1755:
.LBE1754:
	.loc 2 303 0
	addi 3,1,232
.LBB1757:
.LBB1756:
	.loc 2 2017 0
	addi 0,9,1
	stw 0,40(30)
.LBE1756:
.LBE1757:
	.loc 2 303 0
	bl _ZN11fileDataPtrD1Ev
	.loc 2 304 0
	mr 3,31
	bl _ZN11fileDataPtrdeEv
	cmpwi 7,3,0
	bne+ 7,.L273
	b .L257
.LVL360:
.L246:
.LBB1758:
.LBB1759:
	.loc 2 2016 0
	mr 4,31
	addi 3,1,36
	bl _ZN11fileDataPtrC1ERS_
	.loc 2 2017 0
	lwz 0,40(30)
.LBE1759:
.LBE1758:
	.loc 2 336 0
	addi 3,1,36
.LBB1761:
.LBB1760:
	.loc 2 2017 0
	addic 0,0,1
	stw 0,40(30)
.LBE1760:
.LBE1761:
	.loc 2 336 0
	bl _ZN11fileDataPtrD1Ev
	.loc 2 337 0
	mr 3,31
	bl _ZN11fileDataPtrdeEv
	cmpwi 7,3,0
	beq- 7,.L257
.LVL361:
.LBB1762:
.LBB1763:
	.loc 2 2016 0
	mr 4,31
	addi 3,1,8
	bl _ZN11fileDataPtrC1ERS_
	.loc 2 2017 0
	lwz 0,40(30)
.LBE1763:
.LBE1762:
	.loc 2 340 0
	addi 3,1,8
.LBB1765:
.LBB1764:
	.loc 2 2017 0
	addic 0,0,1
	stw 0,40(30)
.LBE1764:
.LBE1765:
	.loc 2 340 0
	bl _ZN11fileDataPtrD1Ev
	.loc 2 341 0
	mr 3,31
	bl _ZN11fileDataPtrdeEv
.LEHE32:
	cmpwi 7,3,0
	bne+ 7,.L268
	b .L237
.LVL362:
.L255:
	.loc 2 349 0
	li 3,1
	b .L237
.LVL363:
.L261:
	mr 31,3
.LVL364:
	.loc 2 331 0
	addi 3,1,64
	bl _ZN11fileDataPtrD1Ev
	mr 3,31
.LEHB33:
	bl _Unwind_Resume
.LEHE33:
.LVL365:
.L260:
	mr 31,3
.LVL366:
	.loc 2 328 0
	addi 3,1,92
	bl _ZN11fileDataPtrD1Ev
	mr 3,31
.LEHB34:
	bl _Unwind_Resume
.LEHE34:
.LVL367:
.L259:
	mr 31,3
.LVL368:
	.loc 2 317 0
	addi 3,1,176
	bl _ZN11fileDataPtrD1Ev
	mr 3,31
.LEHB35:
	bl _Unwind_Resume
.LEHE35:
.LVL369:
.L258:
	mr 31,3
.LVL370:
	.loc 2 300 0
	addi 3,1,288
	bl _ZN11fileDataPtrD1Ev
	mr 3,31
.LEHB36:
	bl _Unwind_Resume
.LEHE36:
	.cfi_endproc
.LFE2544:
	.section	.gcc_except_table
.LLSDA2544:
	.byte	0xff
	.byte	0xff
	.byte	0x1
	.uleb128 .LLSDACSE2544-.LLSDACSB2544
.LLSDACSB2544:
	.uleb128 .LEHB24-.LFB2544
	.uleb128 .LEHE24-.LEHB24
	.uleb128 0
	.uleb128 0
	.uleb128 .LEHB25-.LFB2544
	.uleb128 .LEHE25-.LEHB25
	.uleb128 .L258-.LFB2544
	.uleb128 0
	.uleb128 .LEHB26-.LFB2544
	.uleb128 .LEHE26-.LEHB26
	.uleb128 0
	.uleb128 0
	.uleb128 .LEHB27-.LFB2544
	.uleb128 .LEHE27-.LEHB27
	.uleb128 .L259-.LFB2544
	.uleb128 0
	.uleb128 .LEHB28-.LFB2544
	.uleb128 .LEHE28-.LEHB28
	.uleb128 0
	.uleb128 0
	.uleb128 .LEHB29-.LFB2544
	.uleb128 .LEHE29-.LEHB29
	.uleb128 .L260-.LFB2544
	.uleb128 0
	.uleb128 .LEHB30-.LFB2544
	.uleb128 .LEHE30-.LEHB30
	.uleb128 0
	.uleb128 0
	.uleb128 .LEHB31-.LFB2544
	.uleb128 .LEHE31-.LEHB31
	.uleb128 .L261-.LFB2544
	.uleb128 0
	.uleb128 .LEHB32-.LFB2544
	.uleb128 .LEHE32-.LEHB32
	.uleb128 0
	.uleb128 0
	.uleb128 .LEHB33-.LFB2544
	.uleb128 .LEHE33-.LEHB33
	.uleb128 0
	.uleb128 0
	.uleb128 .LEHB34-.LFB2544
	.uleb128 .LEHE34-.LEHB34
	.uleb128 0
	.uleb128 0
	.uleb128 .LEHB35-.LFB2544
	.uleb128 .LEHE35-.LEHB35
	.uleb128 0
	.uleb128 0
	.uleb128 .LEHB36-.LFB2544
	.uleb128 .LEHE36-.LEHB36
	.uleb128 0
	.uleb128 0
.LLSDACSE2544:
	.section	".text"
	.size	_ZN7idLexer14ReadWhiteSpaceEv, .-_ZN7idLexer14ReadWhiteSpaceEv
	.align 2
	.globl _ZN7idLexer10ReadStringEP7idTokeni
	.type	_ZN7idLexer10ReadStringEP7idTokeni, @function
_ZN7idLexer10ReadStringEP7idTokeni:
.LFB2546:
	.loc 2 436 0
	.cfi_startproc
	.cfi_personality 0,__gxx_personality_v0
	.cfi_lsda 0,.LLSDA2546
.LVL371:
	mflr 0
	stwu 1,-184(1)
.LCFI83:
	.cfi_def_cfa_offset 184
	.cfi_register 65, 0
	mfcr 12
.LBB1800:
	.loc 2 442 0
	cmpwi 4,5,34
.LBE1800:
	.loc 2 436 0
	stw 28,168(1)
	mr 28,5
	.cfi_offset 28, -16
	.cfi_register 70, 12
	stw 0,188(1)
.LBB1876:
	.loc 2 445 0
	mfcr 0
	rlwinm 0,0,19,1
	.cfi_offset 65, 4
.LBE1876:
	.loc 2 436 0
	stw 29,172(1)
	mr 29,3
	.cfi_offset 29, -12
.LBB1877:
	.loc 2 445 0
	subfic 0,0,2
.LBE1877:
	.loc 2 436 0
	stw 30,176(1)
	stw 31,180(1)
.LBB1878:
	.loc 2 449 0
	addi 30,3,40
	.cfi_offset 31, -4
	.cfi_offset 30, -8
.LVL372:
.LBE1878:
	.loc 2 436 0
	stw 26,160(1)
.LBB1879:
.LBB1801:
.LBB1802:
	.loc 2 2016 0
	addi 3,1,124
.LVL373:
.LBE1802:
.LBE1801:
.LBE1879:
	.loc 2 436 0
	stw 27,164(1)
	mr 31,4
	stw 12,156(1)
.LBB1880:
	.loc 2 442 0
	stw 0,32(4)
.LBB1805:
.LBB1803:
	.loc 2 2016 0
	mr 4,30
.LVL374:
	.cfi_offset 70, -28
	.cfi_offset 27, -20
	.cfi_offset 26, -24
	bl _ZN11fileDataPtrC1ERS_
.LVL375:
	.loc 2 2017 0
	lwz 9,40(29)
.LBE1803:
.LBE1805:
	.loc 2 449 0
	addi 3,1,124
.LBB1806:
.LBB1804:
	.loc 2 2017 0
	addi 0,9,1
	stw 0,40(29)
.LEHB37:
.LBE1804:
.LBE1806:
	.loc 2 449 0
	bl _ZN11fileDataPtrD1Ev
.LVL376:
.L299:
.LBB1807:
	.loc 2 453 0
	mr 3,30
	bl _ZN11fileDataPtrdeEv
	cmpwi 7,3,92
	beq- 7,.L303
.L277:
.LBB1808:
	.loc 2 460 0
	mr 3,30
	bl _ZN11fileDataPtrdeEv
	cmpw 7,28,3
	beq- 7,.L304
.LBB1809:
.LBB1810:
	.loc 2 502 0
	mr 3,30
	bl _ZN11fileDataPtrdeEv
	cmpwi 7,3,0
	beq- 7,.L305
.LBE1810:
	.loc 2 508 0
	mr 3,30
	bl _ZN11fileDataPtrdeEv
.LEHE37:
	cmpwi 7,3,10
	beq- 7,.L306
.LVL377:
.LBB1813:
.LBB1814:
	.loc 2 2016 0
	addi 3,1,12
	mr 4,30
	bl _ZN11fileDataPtrC1ERS_
	.loc 2 2017 0
	lwz 9,40(29)
.LBE1814:
.LBE1813:
	.loc 2 512 0
	addi 3,1,12
.LBB1816:
.LBB1815:
	.loc 2 2017 0
	addi 0,9,1
	stw 0,40(29)
.LEHB38:
.LBE1815:
.LBE1816:
	.loc 2 512 0
	bl _ZN11fileDataPtrdeEv
.LEHE38:
.LBB1817:
.LBB1818:
	.loc 4 163 0
	lwz 9,0(31)
.LBE1818:
.LBE1817:
	.loc 2 512 0
	mr 27,3
.LVL378:
.LBB1828:
.LBB1825:
.LBB1819:
.LBB1820:
	.loc 3 350 0
	lwz 0,8(31)
.LBE1820:
.LBE1819:
	.loc 4 163 0
	addi 4,9,2
.LVL379:
.LBB1823:
.LBB1821:
	.loc 3 350 0
	cmpw 7,4,0
	bgt- 7,.L307
.LVL380:
.L290:
.LBE1821:
.LBE1823:
	.loc 4 164 0
	lwz 11,4(31)
	addi 0,9,1
.LBE1825:
.LBE1828:
	.loc 2 512 0
	addi 3,1,12
.LBB1829:
.LBB1826:
	.loc 4 164 0
	stbx 27,11,9
	stw 0,0(31)
.LEHB39:
.LBE1826:
.LBE1829:
	.loc 2 512 0
	bl _ZN11fileDataPtrD1Ev
.LBE1809:
.LBE1808:
	.loc 2 453 0
	mr 3,30
	bl _ZN11fileDataPtrdeEv
	cmpwi 7,3,92
	bne+ 7,.L277
.LVL381:
.L303:
	.loc 2 453 0 is_stmt 0 discriminator 1
	lwz 0,104(29)
	andi. 9,0,16
	bne- 0,.L277
	.loc 2 454 0 is_stmt 1 discriminator 4
	mr 3,29
	addi 4,1,8
	bl _ZN7idLexer19ReadEscapeCharacterEPc
	cmpwi 7,3,0
	beq- 7,.L297
.LBB1855:
.LBB1856:
	.loc 4 163 0
	lwz 9,0(31)
.LBB1857:
.LBB1858:
	.loc 3 350 0
	lwz 0,8(31)
.LBE1858:
.LBE1857:
	.loc 4 163 0
	addi 4,9,2
.LBE1856:
.LBE1855:
	.loc 2 457 0
	lbz 27,8(1)
.LVL382:
.LBB1862:
.LBB1861:
.LBB1860:
.LBB1859:
	.loc 3 350 0
	cmpw 7,4,0
	ble+ 7,.L279
	.loc 3 351 0
	mr 3,31
	li 5,1
	bl _ZN5idStr10ReAllocateEib
.LVL383:
	lwz 9,0(31)
.L279:
.LBE1859:
.LBE1860:
	.loc 4 164 0
	lwz 11,4(31)
	addi 0,9,1
	stbx 27,11,9
	stw 0,0(31)
	b .L299
.LVL384:
.L304:
.LBE1861:
.LBE1862:
.LBB1863:
.LBB1833:
.LBB1834:
	.loc 2 2016 0
	addi 3,1,96
	mr 4,30
	bl _ZN11fileDataPtrC1ERS_
	.loc 2 2017 0
	lwz 9,40(29)
.LBE1834:
.LBE1833:
	.loc 2 462 0
	addi 3,1,96
.LBB1836:
.LBB1835:
	.loc 2 2017 0
	addi 0,9,1
	stw 0,40(29)
.LBE1835:
.LBE1836:
	.loc 2 462 0
	bl _ZN11fileDataPtrD1Ev
	.loc 2 464 0
	lwz 0,104(29)
	andi. 9,0,8
	beq- 0,.L281
	.loc 2 464 0 is_stmt 0 discriminator 1
	andi. 9,0,4096
	beq- 0,.L282
	.loc 2 464 0 discriminator 2
	bne- 4,.L282
.L281:
.LVL385:
	.loc 2 472 0 is_stmt 1
	mr 3,29
.LBB1837:
.LBB1838:
	.loc 2 1995 0
	lwz 26,40(29)
.LBE1838:
.LBE1837:
	.loc 2 470 0
	lwz 27,92(29)
	.loc 2 472 0
	bl _ZN7idLexer14ReadWhiteSpaceEv
	cmpwi 7,3,0
	beq- 7,.L302
	.loc 2 478 0
	lwz 0,104(29)
	andi. 9,0,8
	beq- 0,.L284
	.loc 2 479 0
	mr 3,30
	bl _ZN11fileDataPtrdeEv
	cmpwi 7,3,92
	bne- 7,.L302
.LVL386:
.LBB1839:
.LBB1840:
	.loc 2 2016 0
	mr 4,30
	addi 3,1,68
	bl _ZN11fileDataPtrC1ERS_
	.loc 2 2017 0
	lwz 9,40(29)
.LBE1840:
.LBE1839:
	.loc 2 485 0
	addi 3,1,68
.LBB1842:
.LBB1841:
	.loc 2 2017 0
	addi 0,9,1
	stw 0,40(29)
.LBE1841:
.LBE1842:
	.loc 2 485 0
	bl _ZN11fileDataPtrD1Ev
	.loc 2 486 0
	mr 3,29
	bl _ZN7idLexer14ReadWhiteSpaceEv
	cmpwi 7,3,0
	bne- 7,.L308
.L286:
	.loc 2 487 0 discriminator 4
	lis 4,.LC21@ha
	mr 3,29
	la 4,.LC21@l(4)
	crxor 6,6,6
	bl _ZN7idLexer5ErrorEPKcz
.LEHE39:
	.loc 2 488 0 discriminator 4
	li 3,0
.LVL387:
.L278:
.LBE1863:
.LBE1807:
.LBE1880:
	.loc 2 530 0
	lwz 0,188(1)
	lwz 12,156(1)
	mtlr 0
	lwz 26,160(1)
	lwz 27,164(1)
	mtcrf 8,12
	lwz 28,168(1)
.LVL388:
	lwz 29,172(1)
.LVL389:
	lwz 30,176(1)
.LVL390:
	lwz 31,180(1)
.LVL391:
	addi 1,1,184
	.cfi_remember_state
.LCFI84:
	.cfi_def_cfa_offset 0
	.cfi_restore 70
	.cfi_restore 31
	.cfi_restore 30
	.cfi_restore 29
	.cfi_restore 28
	.cfi_restore 27
	.cfi_restore 26
	blr
.LVL392:
.L307:
.LCFI85:
	.cfi_restore_state
.LBB1881:
.LBB1870:
.LBB1864:
.LBB1843:
.LBB1830:
.LBB1827:
.LBB1824:
.LBB1822:
	.loc 3 351 0
	mr 3,31
.LVL393:
	li 5,1
.LEHB40:
	bl _ZN5idStr10ReAllocateEib
.LEHE40:
.LVL394:
	lwz 9,0(31)
	b .L290
.LVL395:
.L308:
.LBE1822:
.LBE1824:
.LBE1827:
.LBE1830:
.LBE1843:
	.loc 2 486 0 discriminator 2
	mr 3,30
.LEHB41:
	bl _ZN11fileDataPtrdeEv
	cmpw 7,3,28
	bne+ 7,.L286
.LVL396:
.L284:
	.loc 2 493 0
	mr 3,30
	bl _ZN11fileDataPtrdeEv
	cmpw 7,28,3
	bne- 7,.L302
.LVL397:
.LBB1844:
.LBB1845:
	.loc 2 2016 0
	addi 3,1,40
	mr 4,30
	bl _ZN11fileDataPtrC1ERS_
	.loc 2 2017 0
	lwz 9,40(29)
.LBE1845:
.LBE1844:
	.loc 2 499 0
	addi 3,1,40
.LBB1847:
.LBB1846:
	.loc 2 2017 0
	addi 0,9,1
	stw 0,40(29)
.LBE1846:
.LBE1847:
	.loc 2 499 0
	bl _ZN11fileDataPtrD1Ev
	b .L299
.LVL398:
.L302:
.LBB1848:
.LBB1849:
	.loc 2 2064 0
	stw 26,40(29)
.LBE1849:
.LBE1848:
	.loc 2 495 0
	stw 27,92(29)
.LVL399:
.L282:
.LBE1864:
.LBE1870:
	.loc 2 515 0
	lwz 0,0(31)
	li 11,0
	lwz 9,4(31)
	stbx 11,9,0
	.loc 2 517 0
	lwz 0,32(31)
	cmpwi 7,0,2
	beq- 7,.L309
	.loc 2 527 0
	lwz 0,0(31)
	.loc 2 529 0
	li 3,1
	.loc 2 527 0
	stw 0,36(31)
.LBE1881:
	.loc 2 530 0
	lwz 0,188(1)
	lwz 12,156(1)
	mtlr 0
	lwz 26,160(1)
	lwz 27,164(1)
	mtcrf 8,12
	lwz 28,168(1)
.LVL400:
	lwz 29,172(1)
.LVL401:
	lwz 30,176(1)
.LVL402:
	lwz 31,180(1)
.LVL403:
	addi 1,1,184
	.cfi_remember_state
	.cfi_restore 26
	.cfi_restore 27
	.cfi_restore 28
	.cfi_restore 29
	.cfi_restore 30
	.cfi_restore 31
	.cfi_restore 70
.LCFI86:
	.cfi_def_cfa_offset 0
	blr
.LVL404:
.L305:
.LCFI87:
	.cfi_restore_state
.LBB1882:
.LBB1871:
.LBB1865:
.LBB1850:
.LBB1831:
.LBB1811:
	.loc 2 504 0
	lwz 4,40(29)
	lis 3,.LC22@ha
	la 3,.LC22@l(3)
	crxor 6,6,6
	bl _Z10Sys_PrintfPKcz
	.loc 2 505 0
	lis 4,.LC23@ha
	mr 3,29
	la 4,.LC23@l(4)
	crxor 6,6,6
	bl _ZN7idLexer5ErrorEPKcz
.LBE1811:
.LBE1831:
.LBE1850:
.LBE1865:
.LBE1871:
.LBE1882:
	.loc 2 530 0
	lwz 0,188(1)
	lwz 12,156(1)
.LBB1883:
.LBB1872:
.LBB1866:
.LBB1851:
.LBB1832:
.LBB1812:
	.loc 2 506 0
	li 3,0
.LBE1812:
.LBE1832:
.LBE1851:
.LBE1866:
.LBE1872:
.LBE1883:
	.loc 2 530 0
	mtlr 0
	lwz 26,160(1)
	lwz 27,164(1)
	mtcrf 8,12
	lwz 28,168(1)
.LVL405:
	lwz 29,172(1)
.LVL406:
	lwz 30,176(1)
.LVL407:
	lwz 31,180(1)
.LVL408:
	addi 1,1,184
	.cfi_remember_state
	.cfi_restore 26
	.cfi_restore 27
	.cfi_restore 28
	.cfi_restore 29
	.cfi_restore 30
	.cfi_restore 31
	.cfi_restore 70
.LCFI88:
	.cfi_def_cfa_offset 0
	blr
.LVL409:
.L306:
.LCFI89:
	.cfi_restore_state
.LBB1884:
.LBB1873:
.LBB1867:
.LBB1852:
	.loc 2 509 0
	lis 4,.LC24@ha
	mr 3,29
	la 4,.LC24@l(4)
	crxor 6,6,6
	bl _ZN7idLexer5ErrorEPKcz
.LBE1852:
.LBE1867:
.LBE1873:
.LBE1884:
	.loc 2 530 0
	lwz 0,188(1)
	lwz 12,156(1)
.LBB1885:
.LBB1874:
.LBB1868:
.LBB1853:
	.loc 2 510 0
	li 3,0
.LBE1853:
.LBE1868:
.LBE1874:
.LBE1885:
	.loc 2 530 0
	mtlr 0
	lwz 26,160(1)
	lwz 27,164(1)
	mtcrf 8,12
	lwz 28,168(1)
.LVL410:
	lwz 29,172(1)
.LVL411:
	lwz 30,176(1)
.LVL412:
	lwz 31,180(1)
.LVL413:
	addi 1,1,184
	.cfi_remember_state
	.cfi_restore 26
	.cfi_restore 27
	.cfi_restore 28
	.cfi_restore 29
	.cfi_restore 30
	.cfi_restore 31
	.cfi_restore 70
.LCFI90:
	.cfi_def_cfa_offset 0
	blr
.LVL414:
.L309:
.LCFI91:
	.cfi_restore_state
.LBB1886:
	.loc 2 518 0
	lwz 0,104(29)
	andi. 9,0,2048
	bne- 0,.L292
	.loc 2 519 0
	lwz 0,0(31)
	cmpwi 7,0,1
	beq- 7,.L292
	.loc 2 520 0
	lis 4,.LC25@ha
	mr 3,29
	la 4,.LC25@l(4)
	crxor 6,6,6
	bl _ZN7idLexer7WarningEPKcz
.LEHE41:
.L292:
.LVL415:
	.loc 2 523 0
	lwz 9,4(31)
	.loc 2 529 0
	li 3,1
	.loc 2 523 0
	lbz 0,0(9)
	stw 0,36(31)
	b .L278
.LVL416:
.L297:
.LBB1875:
	.loc 2 455 0
	li 3,0
	b .L278
.LVL417:
.L298:
	mr 31,3
.LVL418:
.LBB1869:
.LBB1854:
	.loc 2 512 0
	addi 3,1,12
	bl _ZN11fileDataPtrD1Ev
	mr 3,31
.LEHB42:
	bl _Unwind_Resume
.LEHE42:
.LBE1854:
.LBE1869:
.LBE1875:
.LBE1886:
	.cfi_endproc
.LFE2546:
	.section	.gcc_except_table
.LLSDA2546:
	.byte	0xff
	.byte	0xff
	.byte	0x1
	.uleb128 .LLSDACSE2546-.LLSDACSB2546
.LLSDACSB2546:
	.uleb128 .LEHB37-.LFB2546
	.uleb128 .LEHE37-.LEHB37
	.uleb128 0
	.uleb128 0
	.uleb128 .LEHB38-.LFB2546
	.uleb128 .LEHE38-.LEHB38
	.uleb128 .L298-.LFB2546
	.uleb128 0
	.uleb128 .LEHB39-.LFB2546
	.uleb128 .LEHE39-.LEHB39
	.uleb128 0
	.uleb128 0
	.uleb128 .LEHB40-.LFB2546
	.uleb128 .LEHE40-.LEHB40
	.uleb128 .L298-.LFB2546
	.uleb128 0
	.uleb128 .LEHB41-.LFB2546
	.uleb128 .LEHE41-.LEHB41
	.uleb128 0
	.uleb128 0
	.uleb128 .LEHB42-.LFB2546
	.uleb128 .LEHE42-.LEHB42
	.uleb128 0
	.uleb128 0
.LLSDACSE2546:
	.section	".text"
	.size	_ZN7idLexer10ReadStringEP7idTokeni, .-_ZN7idLexer10ReadStringEP7idTokeni
	.align 2
	.globl _ZNK7idLexer17GetLastWhiteSpaceER5idStr
	.type	_ZNK7idLexer17GetLastWhiteSpaceER5idStr, @function
_ZNK7idLexer17GetLastWhiteSpaceER5idStr:
.LFB2574:
	.loc 2 1522 0
	.cfi_startproc
	.cfi_personality 0,__gxx_personality_v0
	.cfi_lsda 0,.LLSDA2574
.LVL419:
	stwu 1,-88(1)
.LCFI92:
	.cfi_def_cfa_offset 88
	mflr 0
	stw 29,76(1)
	mr 29,3
	.cfi_offset 29, -12
	.cfi_register 65, 0
	stw 31,84(1)
.LBB1904:
.LBB1905:
.LBB1906:
	.loc 3 746 0
	mr 3,4
.LVL420:
.LBE1906:
.LBE1905:
.LBE1904:
	.loc 2 1522 0
	mr 31,4
	.cfi_offset 31, -4
.LVL421:
	stw 0,92(1)
	stw 28,72(1)
.LBB1941:
.LBB1916:
.LBB1917:
	.loc 3 754 0
	li 28,0
	.cfi_offset 28, -16
	.cfi_offset 65, 4
.LBE1917:
.LBE1916:
.LBE1941:
	.loc 2 1522 0
	stw 30,80(1)
.LEHB43:
.LBB1942:
.LBB1926:
.LBB1913:
	.loc 3 746 0
	.cfi_offset 30, -8
	bl _ZN5idStr8FreeDataEv
.LEHE43:
.LVL422:
.LBB1907:
.LBB1908:
	.loc 3 356 0
	li 0,0
	.loc 3 358 0
	addi 9,31,12
	.loc 3 357 0
	li 11,20
	.loc 3 356 0
	stw 0,0(31)
	.loc 3 359 0
	stb 0,12(31)
.LBE1908:
.LBE1907:
.LBE1913:
.LBE1926:
	.loc 2 1524 0
	addi 3,1,36
.LBB1927:
.LBB1914:
.LBB1911:
.LBB1909:
	.loc 3 357 0
	stw 11,8(31)
.LBE1909:
.LBE1911:
.LBE1914:
.LBE1927:
	.loc 2 1524 0
	addi 4,29,40
.LBB1928:
.LBB1915:
.LBB1912:
.LBB1910:
	.loc 3 358 0
	stw 9,4(31)
.LBE1910:
.LBE1912:
.LBE1915:
.LBE1928:
	.loc 2 1524 0
	bl _ZN11fileDataPtrC1ERKS_
.LVL423:
.LBB1929:
.LBB1930:
	.loc 2 2064 0
	lwz 0,76(29)
	stw 0,36(1)
	b .L311
.LVL424:
.L312:
.LBE1930:
.LBE1929:
.LBB1931:
.LBB1922:
	.loc 3 752 0
	lwz 11,4(31)
.LBE1922:
.LBE1931:
.LBB1932:
.LBB1933:
	.loc 2 2016 0
	addi 3,1,8
	addi 4,1,36
.LVL425:
.LBE1933:
.LBE1932:
.LBB1936:
.LBB1923:
	.loc 3 752 0
	stbx 30,11,9
	.loc 3 753 0
	lwz 11,0(31)
	.loc 3 754 0
	lwz 9,4(31)
	.loc 3 753 0
	addi 0,11,1
	stw 0,0(31)
	.loc 3 754 0
	stbx 28,9,0
.LVL426:
.LBE1923:
.LBE1936:
.LBB1937:
.LBB1934:
	.loc 2 2016 0
	bl _ZN11fileDataPtrC1ERS_
.LVL427:
	.loc 2 2017 0
	lwz 9,36(1)
.LBE1934:
.LBE1937:
	.loc 2 1526 0
	addi 3,1,8
.LBB1938:
.LBB1935:
	.loc 2 2017 0
	addi 0,9,1
	stw 0,36(1)
.LEHB44:
.LBE1935:
.LBE1938:
	.loc 2 1526 0
	bl _ZN11fileDataPtrD1Ev
	lwz 0,36(1)
.LVL428:
.L311:
	.loc 2 1526 0 is_stmt 0 discriminator 1
	lwz 9,80(29)
	cmpw 7,9,0
	ble- 7,.L316
	.loc 2 1527 0 is_stmt 1
	addi 3,1,36
.LVL429:
	bl _ZN11fileDataPtrdeEv
.LVL430:
.LBB1939:
.LBB1924:
	.loc 3 751 0
	lwz 9,0(31)
.LBE1924:
.LBE1939:
	.loc 2 1527 0
	mr 30,3
.LVL431:
.LBB1940:
.LBB1925:
.LBB1918:
.LBB1919:
	.loc 3 350 0
	lwz 0,8(31)
.LBE1919:
.LBE1918:
	.loc 3 751 0
	addi 4,9,2
.LVL432:
.LBB1921:
.LBB1920:
	.loc 3 350 0
	cmpw 7,4,0
	ble+ 7,.L312
	.loc 3 351 0
	mr 3,31
.LVL433:
	li 5,1
	bl _ZN5idStr10ReAllocateEib
.LEHE44:
.LVL434:
	lwz 9,0(31)
	b .L312
.LVL435:
.L316:
.LBE1920:
.LBE1921:
.LBE1925:
.LBE1940:
	.loc 2 1529 0
	addi 3,1,36
.LVL436:
	.loc 2 2091 0
	lwz 31,0(31)
.LVL437:
.LEHB45:
	.loc 2 1529 0
	bl _ZN11fileDataPtrD1Ev
.LEHE45:
.LVL438:
.LBE1942:
	.loc 2 1530 0
	lwz 0,92(1)
	mr 3,31
	lwz 28,72(1)
	mtlr 0
	lwz 29,76(1)
.LVL439:
	lwz 30,80(1)
	lwz 31,84(1)
	addi 1,1,88
	.cfi_remember_state
.LCFI93:
	.cfi_def_cfa_offset 0
	.cfi_restore 31
	.cfi_restore 30
	.cfi_restore 29
	.cfi_restore 28
	blr
.LVL440:
.L315:
.LCFI94:
	.cfi_restore_state
	mr 31,3
.LVL441:
.LBB1943:
	.loc 2 1529 0
	addi 3,1,36
.LVL442:
	bl _ZN11fileDataPtrD1Ev
.LVL443:
	mr 3,31
.LEHB46:
	bl _Unwind_Resume
.LEHE46:
.LBE1943:
	.cfi_endproc
.LFE2574:
	.section	.gcc_except_table
.LLSDA2574:
	.byte	0xff
	.byte	0xff
	.byte	0x1
	.uleb128 .LLSDACSE2574-.LLSDACSB2574
.LLSDACSB2574:
	.uleb128 .LEHB43-.LFB2574
	.uleb128 .LEHE43-.LEHB43
	.uleb128 0
	.uleb128 0
	.uleb128 .LEHB44-.LFB2574
	.uleb128 .LEHE44-.LEHB44
	.uleb128 .L315-.LFB2574
	.uleb128 0
	.uleb128 .LEHB45-.LFB2574
	.uleb128 .LEHE45-.LEHB45
	.uleb128 0
	.uleb128 0
	.uleb128 .LEHB46-.LFB2574
	.uleb128 .LEHE46-.LEHB46
	.uleb128 0
	.uleb128 0
.LLSDACSE2574:
	.section	".text"
	.size	_ZNK7idLexer17GetLastWhiteSpaceER5idStr, .-_ZNK7idLexer17GetLastWhiteSpaceER5idStr
	.align 2
	.globl _ZN11fileDataPtrixERi
	.type	_ZN11fileDataPtrixERi, @function
_ZN11fileDataPtrixERi:
.LFB2618:
	.loc 2 2004 0
	.cfi_startproc
.LVL444:
	.loc 2 2005 0
	lwz 0,0(3)
	lwz 4,0(4)
.LVL445:
	.loc 2 2006 0
	.loc 2 2005 0
	add 4,0,4
	b _ZN11fileDataPtr7readBufEi
.LVL446:
	.cfi_endproc
.LFE2618:
	.size	_ZN11fileDataPtrixERi, .-_ZN11fileDataPtrixERi
	.section	.text._ZN7idLexer11CheckStringEPKc,"axG",@progbits,_ZN7idLexer11CheckStringEPKc,comdat
	.align 2
	.weak	_ZN7idLexer11CheckStringEPKc
	.type	_ZN7idLexer11CheckStringEPKc, @function
_ZN7idLexer11CheckStringEPKc:
.LFB2548:
	.loc 2 563 0
	.cfi_startproc
.LVL447:
	mflr 0
	stwu 1,-32(1)
.LCFI95:
	.cfi_def_cfa_offset 32
	.cfi_register 65, 0
	stw 31,28(1)
	mr 31,4
	.cfi_offset 31, -4
	stw 0,36(1)
	stw 30,24(1)
.LBB1945:
	.loc 2 566 0
	lbz 0,0(4)
	.cfi_offset 30, -8
	.cfi_offset 65, 4
	cmpwi 7,0,0
	li 0,0
	stw 0,8(1)
.LVL448:
	.loc 2 571 0
	li 0,1
	.loc 2 566 0
	beq- 7,.L319
	addi 30,3,40
	b .L320
.LVL449:
.L325:
	lbzx 9,31,0
	stw 0,8(1)
	cmpwi 7,9,0
	beq- 7,.L324
.L320:
	.loc 2 567 0
	mr 3,30
	addi 4,1,8
	bl _ZN11fileDataPtrixERi
.LVL450:
	lwz 9,8(1)
	.loc 2 566 0
	addi 0,9,1
.LVL451:
	.loc 2 567 0
	lbzx 9,31,9
	cmpw 7,9,3
	beq+ 7,.L325
	.loc 2 568 0
	li 0,0
.LVL452:
.L319:
.LBE1945:
	.loc 2 572 0
	mr 3,0
	lwz 0,36(1)
	lwz 30,24(1)
	mtlr 0
	lwz 31,28(1)
.LVL453:
	addi 1,1,32
	.cfi_remember_state
.LCFI96:
	.cfi_def_cfa_offset 0
	.cfi_restore 31
	.cfi_restore 30
	blr
.LVL454:
.L324:
.LCFI97:
	.cfi_restore_state
.LBB1946:
	.loc 2 571 0
	li 0,1
.LBE1946:
	.loc 2 572 0
	lwz 30,24(1)
.LVL455:
	mr 3,0
	lwz 0,36(1)
	lwz 31,28(1)
.LVL456:
	mtlr 0
	addi 1,1,32
	.cfi_restore 30
	.cfi_restore 31
.LCFI98:
	.cfi_def_cfa_offset 0
	blr
	.cfi_endproc
.LFE2548:
	.size	_ZN7idLexer11CheckStringEPKc, .-_ZN7idLexer11CheckStringEPKc
	.section	".text"
	.align 2
	.globl _ZN7idLexer15ReadPunctuationEP7idToken
	.type	_ZN7idLexer15ReadPunctuationEP7idToken, @function
_ZN7idLexer15ReadPunctuationEP7idToken:
.LFB2550:
	.loc 2 778 0
	.cfi_startproc
.LVL457:
	mflr 0
	stwu 1,-56(1)
.LCFI99:
	.cfi_def_cfa_offset 56
	.cfi_register 65, 0
	stw 26,32(1)
	stw 27,36(1)
.LBB1952:
	.loc 2 784 0
	addi 27,3,40
	.cfi_offset 27, -20
	.cfi_offset 26, -24
.LBE1952:
	.loc 2 778 0
	stw 28,40(1)
	mr 28,4
	.cfi_offset 28, -16
	stw 30,48(1)
	mr 30,3
	.cfi_offset 30, -8
	stw 0,60(1)
.LBB1963:
	.loc 2 784 0
	mr 3,27
.LVL458:
.LBE1963:
	.loc 2 778 0
	stw 25,28(1)
	stw 29,44(1)
	stw 31,52(1)
.LBB1964:
	.loc 2 784 0
	lwz 31,112(30)
	.cfi_offset 31, -4
	.cfi_offset 29, -12
	.cfi_offset 25, -28
	.cfi_offset 65, 4
	bl _ZN11fileDataPtrdeEv
.LVL459:
	slwi 3,3,2
	lwzx 26,31,3
.LVL460:
	.loc 2 815 0
	li 3,0
.LVL461:
	.loc 2 784 0
	cmpwi 7,26,0
	blt- 7,.L327
	.loc 2 795 0
	li 25,0
.LVL462:
.L342:
	.loc 2 786 0
	lwz 29,108(30)
	slwi 0,26,3
	.loc 2 793 0
	lwzx 31,29,0
	.loc 2 786 0
	add 29,29,0
.LVL463:
	.loc 2 795 0
	stw 25,8(1)
	lbz 0,0(31)
.LVL464:
	cmpwi 7,0,0
	bne- 7,.L328
	li 9,0
.LVL465:
.L341:
.LBB1953:
.LBB1954:
	.loc 3 350 0
	lwz 0,8(28)
.LBE1954:
.LBE1953:
	.loc 2 802 0
	addi 4,9,1
.LVL466:
.LBB1957:
.LBB1955:
	.loc 3 350 0
	cmpw 7,4,0
	bgt- 7,.L345
.LVL467:
.LBE1955:
.LBE1957:
	.loc 2 803 0 discriminator 1
	cmpwi 7,9,0
	blt- 7,.L334
.LVL468:
.L346:
	.loc 2 803 0 is_stmt 0
	li 11,0
.LVL469:
.L335:
	.loc 2 804 0 is_stmt 1 discriminator 2
	lbzx 0,31,11
	lwz 9,4(28)
	stbx 0,9,11
	.loc 2 803 0 discriminator 2
	addi 11,11,1
.LVL470:
	lwz 9,8(1)
	cmpw 7,9,11
	bge+ 7,.L335
.LVL471:
.L334:
	.loc 2 806 0
	stw 9,0(28)
.LVL472:
	.loc 2 812 0
	li 3,1
.LBB1958:
.LBB1959:
	.loc 2 2037 0
	lwz 0,40(30)
	add 9,0,9
.LBE1959:
.LBE1958:
	.loc 2 809 0
	li 0,5
.LBB1961:
.LBB1960:
	.loc 2 2037 0
	stw 9,40(30)
.LBE1960:
.LBE1961:
	.loc 2 809 0
	stw 0,32(28)
	.loc 2 811 0
	lwz 0,4(29)
	stw 0,36(28)
.LVL473:
.L327:
.LBE1964:
	.loc 2 816 0
	lwz 0,60(1)
	lwz 25,28(1)
	mtlr 0
	lwz 26,32(1)
.LVL474:
	lwz 27,36(1)
	lwz 28,40(1)
.LVL475:
	lwz 29,44(1)
	lwz 30,48(1)
.LVL476:
	lwz 31,52(1)
	addi 1,1,56
	.cfi_remember_state
.LCFI100:
	.cfi_def_cfa_offset 0
	.cfi_restore 31
	.cfi_restore 30
	.cfi_restore 29
	.cfi_restore 28
	.cfi_restore 27
	.cfi_restore 26
	.cfi_restore 25
	blr
.LVL477:
.L330:
.LCFI101:
	.cfi_restore_state
.LBB1965:
	.loc 2 796 0 discriminator 5
	bl _ZN11fileDataPtrixERi
	lwz 9,8(1)
	lbzx 0,31,9
	cmpw 7,3,0
	bne- 7,.L337
	.loc 2 795 0
	addi 9,9,1
	stw 9,8(1)
	lbzx 0,31,9
	cmpwi 7,0,0
	beq+ 7,.L341
.L328:
	.loc 2 795 0 is_stmt 0 discriminator 2
	addi 4,1,8
	mr 3,27
	bl _ZN11fileDataPtrixERi
	.loc 2 796 0 is_stmt 1 discriminator 2
	addi 4,1,8
	.loc 2 795 0 discriminator 2
	cmpwi 7,3,0
	.loc 2 796 0 discriminator 2
	mr 3,27
	.loc 2 795 0 discriminator 2
	bne- 7,.L330
	.loc 2 795 0 is_stmt 0
	lwz 9,8(1)
	lbzx 0,31,9
.L337:
	.loc 2 800 0 is_stmt 1
	cmpwi 7,0,0
	beq- 7,.L341
	.loc 2 784 0
	lwz 9,116(30)
	slwi 26,26,2
.LVL478:
	lwzx 26,9,26
.LVL479:
	cmpwi 7,26,0
	bge+ 7,.L342
.LBE1965:
	.loc 2 816 0
	lwz 0,60(1)
.LBB1966:
	.loc 2 815 0
	li 3,0
.LBE1966:
	.loc 2 816 0
	lwz 25,28(1)
	mtlr 0
	lwz 26,32(1)
.LVL480:
	lwz 27,36(1)
	lwz 28,40(1)
.LVL481:
	lwz 29,44(1)
.LVL482:
	lwz 30,48(1)
.LVL483:
	lwz 31,52(1)
.LVL484:
	addi 1,1,56
	.cfi_remember_state
	.cfi_restore 25
	.cfi_restore 26
	.cfi_restore 27
	.cfi_restore 28
	.cfi_restore 29
	.cfi_restore 30
	.cfi_restore 31
.LCFI102:
	.cfi_def_cfa_offset 0
	blr
.LVL485:
.L345:
.LCFI103:
	.cfi_restore_state
.LBB1967:
.LBB1962:
.LBB1956:
	.loc 3 351 0
	mr 3,28
	li 5,0
	bl _ZN5idStr10ReAllocateEib
.LVL486:
	lwz 9,8(1)
.LVL487:
.LBE1956:
.LBE1962:
	.loc 2 803 0
	cmpwi 7,9,0
	bge+ 7,.L346
	b .L334
.LBE1967:
	.cfi_endproc
.LFE2550:
	.size	_ZN7idLexer15ReadPunctuationEP7idToken, .-_ZN7idLexer15ReadPunctuationEP7idToken
	.align 2
	.globl _ZN7idLexer10ReadNumberEP7idToken
	.type	_ZN7idLexer10ReadNumberEP7idToken, @function
_ZN7idLexer10ReadNumberEP7idToken:
.LFB2549:
	.loc 2 579 0
	.cfi_startproc
	.cfi_personality 0,__gxx_personality_v0
	.cfi_lsda 0,.LLSDA2549
.LVL488:
	mflr 0
	stwu 1,-280(1)
.LCFI104:
	.cfi_def_cfa_offset 280
	.cfi_register 65, 0
.LBB2092:
	.loc 2 584 0
	li 9,3
.LBE2092:
	.loc 2 579 0
	stw 28,264(1)
.LBB2343:
	.loc 2 589 0
	addi 28,3,40
	.cfi_offset 28, -16
.LBE2343:
	.loc 2 579 0
	stw 0,284(1)
.LBB2344:
	.loc 2 585 0
	li 0,0
	.cfi_offset 65, 4
.LBE2344:
	.loc 2 579 0
	stw 29,268(1)
	mr 29,3
	.cfi_offset 29, -12
	stw 30,272(1)
.LBB2345:
	.loc 2 589 0
	mr 3,28
.LVL489:
.LBE2345:
	.loc 2 579 0
	stw 31,276(1)
	mr 31,4
	.cfi_offset 31, -4
	.cfi_offset 30, -8
	stw 26,256(1)
	stw 27,260(1)
.LBB2346:
	.loc 2 584 0
	stw 9,32(4)
	.loc 2 587 0
	lis 9,.LC26@ha
	lfd 0,.LC26@l(9)
	.loc 2 585 0
	stw 0,36(4)
	.loc 2 586 0
	stw 0,52(4)
	.loc 2 587 0
	stfd 0,56(4)
.LEHB47:
	.loc 2 589 0
	.cfi_offset 27, -20
	.cfi_offset 26, -24
	bl _ZN11fileDataPtrdeEv
.LEHE47:
.LVL490:
.LBB2093:
.LBB2094:
	.loc 2 2049 0
	mr 4,28
.LBE2094:
.LBE2093:
	.loc 2 589 0
	mr 30,3
.LVL491:
.LBB2097:
.LBB2095:
	.loc 2 2049 0
	addi 3,1,208
.LVL492:
	bl _ZN11fileDataPtrC1ERS_
	.loc 2 2050 0
	lwz 9,208(1)
.LBE2095:
.LBE2097:
	.loc 2 590 0
	addi 3,1,208
.LBB2098:
.LBB2096:
	.loc 2 2050 0
	addi 0,9,1
	stw 0,208(1)
.LEHB48:
.LBE2096:
.LBE2098:
	.loc 2 590 0
	bl _ZN11fileDataPtrdeEv
.LEHE48:
	mr 27,3
.LVL493:
	addi 3,1,208
.LVL494:
.LEHB49:
	bl _ZN11fileDataPtrD1Ev
	.loc 2 592 0
	cmpwi 7,30,48
	beq- 7,.L348
.L350:
.LBE2346:
	.loc 2 579 0
	li 27,0
.LVL495:
	b .L349
.LVL496:
.L469:
.LBB2347:
	.loc 2 635 0
	addi 27,27,1
.LVL497:
.L372:
.LBB2099:
.LBB2100:
	.loc 4 163 0
	lwz 9,0(31)
.LBB2101:
.LBB2102:
	.loc 3 350 0
	lwz 0,8(31)
.LBE2102:
.LBE2101:
	.loc 4 163 0
	addi 4,9,2
.LVL498:
.LBB2104:
.LBB2103:
	.loc 3 350 0
	cmpw 7,4,0
	ble+ 7,.L374
.LVL499:
	.loc 3 351 0
	mr 3,31
	li 5,1
	bl _ZN5idStr10ReAllocateEib
.LVL500:
	lwz 9,0(31)
.L374:
.LBE2103:
.LBE2104:
	.loc 4 164 0
	lwz 11,4(31)
	addi 0,9,1
.LBE2100:
.LBE2099:
	.loc 2 641 0
	mr 3,28
.LBB2106:
.LBB2105:
	.loc 4 164 0
	stbx 30,11,9
	stw 0,0(31)
.LVL501:
.LBE2105:
.LBE2106:
.LBB2107:
.LBB2108:
	.loc 2 2010 0
	lwz 9,40(29)
	addi 0,9,1
	stw 0,40(29)
.LBE2108:
.LBE2107:
	.loc 2 641 0
	bl _ZN11fileDataPtrdeEv
.LEHE49:
	mr 30,3
.LVL502:
.L349:
	.loc 2 632 0
	addi 0,30,-48
	rlwinm 0,0,0,0xff
	cmplwi 7,0,9
	ble- 7,.L372
	.loc 2 634 0
	cmpwi 7,30,46
	beq+ 7,.L469
	.loc 2 643 0
	cmpwi 6,30,101
	beq- 6,.L470
.L375:
	.loc 2 648 0
	cmpwi 7,27,1
	beq- 7,.L471
	.loc 2 702 0
	ble- 7,.L406
	.loc 2 703 0
	lwz 0,104(29)
	andi. 9,0,512
	beq- 0,.L472
	.loc 2 707 0
	cmpwi 7,27,3
	bne- 7,.L473
	.loc 2 711 0
	li 0,16384
	stw 0,36(31)
.LVL503:
.L417:
	.loc 2 758 0
	andi. 9,0,16384
	beq- 0,.L414
	.loc 2 759 0
	cmpwi 7,30,58
	beq- 7,.L474
.L414:
	.loc 2 769 0
	lwz 9,4(31)
	li 11,0
	lwz 0,0(31)
	.loc 2 770 0
	li 3,1
	.loc 2 769 0
	stbx 11,9,0
.L408:
.LBE2347:
	.loc 2 771 0
	lwz 0,284(1)
	lwz 26,256(1)
	mtlr 0
	lwz 27,260(1)
	lwz 28,264(1)
.LVL504:
	lwz 29,268(1)
.LVL505:
	lwz 30,272(1)
	lwz 31,276(1)
.LVL506:
	addi 1,1,280
	.cfi_remember_state
.LCFI105:
	.cfi_def_cfa_offset 0
	.cfi_restore 31
	.cfi_restore 30
	.cfi_restore 29
	.cfi_restore 28
	.cfi_restore 27
	.cfi_restore 26
	blr
.LVL507:
.L348:
.LCFI106:
	.cfi_restore_state
.LBB2348:
	.loc 2 592 0 discriminator 1
	cmpwi 7,27,46
	beq- 7,.L350
	.loc 2 594 0
	cmpwi 7,27,120
	beq- 7,.L351
	.loc 2 594 0 is_stmt 0 discriminator 1
	cmpwi 7,27,88
	beq- 7,.L351
	.loc 2 607 0 is_stmt 1
	cmpwi 7,27,98
	beq- 7,.L361
	.loc 2 607 0 is_stmt 0 discriminator 1
	cmpwi 7,27,66
	beq- 7,.L361
.LVL508:
.LBB2109:
.LBB2110:
	.loc 2 2016 0 is_stmt 1
	addi 3,1,68
	mr 4,28
	bl _ZN11fileDataPtrC1ERS_
	.loc 2 2017 0
	lwz 9,40(29)
.LBE2110:
.LBE2109:
	.loc 2 619 0
	addi 3,1,68
.LBB2112:
.LBB2111:
	.loc 2 2017 0
	addi 0,9,1
	stw 0,40(29)
.LEHB50:
.LBE2111:
.LBE2112:
	.loc 2 619 0
	bl _ZN11fileDataPtrdeEv
.LEHE50:
.LBB2113:
.LBB2114:
	.loc 4 163 0
	lwz 9,0(31)
.LBE2114:
.LBE2113:
	.loc 2 619 0
	mr 30,3
.LVL509:
.LBB2124:
.LBB2121:
.LBB2115:
.LBB2116:
	.loc 3 350 0
	lwz 0,8(31)
.LBE2116:
.LBE2115:
	.loc 4 163 0
	addi 4,9,2
.LVL510:
.LBB2119:
.LBB2117:
	.loc 3 350 0
	cmpw 7,4,0
	bgt- 7,.L475
.LVL511:
.L368:
.LBE2117:
.LBE2119:
	.loc 4 164 0
	lwz 11,4(31)
	addi 0,9,1
.LBE2121:
.LBE2124:
	.loc 2 619 0
	addi 3,1,68
.LBB2125:
.LBB2122:
	.loc 4 164 0
	stbx 30,11,9
	stw 0,0(31)
.LEHB51:
.LBE2122:
.LBE2125:
	.loc 2 619 0
	bl _ZN11fileDataPtrD1Ev
	.loc 2 620 0
	mr 3,28
	b .L463
.LVL512:
.L476:
.LBB2126:
.LBB2127:
	.loc 4 163 0
	lwz 9,0(31)
.LBB2128:
.LBB2129:
	.loc 3 350 0
	lwz 0,8(31)
.LBE2129:
.LBE2128:
	.loc 4 163 0
	addi 4,9,2
.LVL513:
.LBB2131:
.LBB2130:
	.loc 3 350 0
	cmpw 7,4,0
	ble+ 7,.L370
.LVL514:
	.loc 3 351 0
	mr 3,31
.LVL515:
	li 5,1
	bl _ZN5idStr10ReAllocateEib
.LVL516:
	lwz 9,0(31)
.L370:
.LBE2130:
.LBE2131:
	.loc 4 164 0
	lwz 11,4(31)
	addi 0,9,1
.LBE2127:
.LBE2126:
	.loc 2 623 0
	mr 3,28
.LBB2133:
.LBB2132:
	.loc 4 164 0
	stbx 30,11,9
	stw 0,0(31)
.LVL517:
.LBE2132:
.LBE2133:
.LBB2134:
.LBB2135:
	.loc 2 2010 0
	lwz 9,40(29)
	addi 0,9,1
	stw 0,40(29)
.LVL518:
.L463:
.LBE2135:
.LBE2134:
	.loc 2 620 0
	bl _ZN11fileDataPtrdeEv
	.loc 2 621 0
	addi 0,3,-48
	.loc 2 620 0
	mr 30,3
.LVL519:
	.loc 2 621 0
	rlwinm 0,0,0,0xff
	cmplwi 7,0,7
	ble+ 7,.L476
	.loc 2 625 0
	li 0,9
	stw 0,36(31)
	b .L458
.LVL520:
.L470:
	.loc 2 643 0 discriminator 1
	cmpwi 7,27,0
	bne- 7,.L375
	.loc 2 649 0
	li 0,130
	stw 0,36(31)
.L433:
.LVL521:
.LBB2136:
.LBB2137:
	.loc 4 163 0
	lwz 9,0(31)
.LBB2138:
.LBB2139:
	.loc 3 350 0
	lwz 0,8(31)
.LBE2139:
.LBE2138:
	.loc 4 163 0
	addi 4,9,2
.LVL522:
.LBB2142:
.LBB2140:
	.loc 3 350 0
	cmpw 7,4,0
	bgt- 7,.L477
.LVL523:
.L379:
.LBE2140:
.LBE2142:
	.loc 4 164 0
	lwz 11,4(31)
	addi 0,9,1
	li 10,101
.LBE2137:
.LBE2136:
	.loc 2 654 0
	mr 3,28
.LBB2146:
.LBB2144:
	.loc 4 164 0
	stbx 10,11,9
	stw 0,0(31)
.LVL524:
.LBE2144:
.LBE2146:
.LBB2147:
.LBB2148:
	.loc 2 2010 0
	lwz 9,40(29)
	addi 0,9,1
	stw 0,40(29)
.LBE2148:
.LBE2147:
	.loc 2 654 0
	bl _ZN11fileDataPtrdeEv
	.loc 2 655 0
	cmpwi 7,3,45
	.loc 2 654 0
	mr 30,3
.LVL525:
	.loc 2 655 0
	beq- 7,.L478
	.loc 2 659 0
	cmpwi 7,3,43
	bne+ 7,.L465
	b .L493
.LVL526:
.L446:
.LBB2149:
.LBB2150:
	.loc 4 163 0
	lwz 9,0(31)
.LBB2151:
.LBB2152:
	.loc 3 350 0
	lwz 0,8(31)
.LBE2152:
.LBE2151:
	.loc 4 163 0
	addi 4,9,2
.LVL527:
.LBB2154:
.LBB2153:
	.loc 3 350 0
	cmpw 7,4,0
	ble+ 7,.L386
	.loc 3 351 0
	mr 3,31
	li 5,1
	bl _ZN5idStr10ReAllocateEib
.LVL528:
	lwz 9,0(31)
.L386:
.LBE2153:
.LBE2154:
	.loc 4 164 0
	lwz 11,4(31)
	addi 0,9,1
.LBE2150:
.LBE2149:
	.loc 2 665 0
	mr 3,28
.LBB2156:
.LBB2155:
	.loc 4 164 0
	stbx 30,11,9
	stw 0,0(31)
.LVL529:
.LBE2155:
.LBE2156:
.LBB2157:
.LBB2158:
	.loc 2 2010 0
	lwz 9,40(29)
	addi 0,9,1
	stw 0,40(29)
.LBE2158:
.LBE2157:
	.loc 2 665 0
	bl _ZN11fileDataPtrdeEv
	mr 30,3
.LVL530:
.L465:
	.loc 2 663 0
	addi 0,30,-48
	rlwinm 0,0,0,0xff
	cmplwi 7,0,9
	ble+ 7,.L446
.LVL531:
.L383:
	.loc 2 718 0
	lwz 0,36(31)
	andi. 9,0,128
	bne+ 0,.L388
	.loc 2 739 0
	andi. 9,0,1
	beq- 0,.L417
	b .L458
.LVL532:
.L406:
	.loc 2 714 0
	li 0,3
	stw 0,36(31)
.LVL533:
.L458:
	.loc 2 740 0
	cmplwi 7,30,32
	ble- 7,.L414
	li 0,2
	stw 0,248(1)
.L422:
	.loc 2 744 0
	cmpwi 7,30,108
	beq- 7,.L418
	.loc 2 744 0 is_stmt 0 discriminator 1
	cmpwi 7,30,76
	beq- 7,.L418
	.loc 2 748 0 is_stmt 1
	cmpwi 7,30,117
	beq- 7,.L421
	.loc 2 748 0 is_stmt 0 discriminator 1
	cmpwi 7,30,85
	bne- 7,.L414
.L421:
	.loc 2 749 0 is_stmt 1
	lwz 0,36(31)
	ori 0,0,64
	stw 0,36(31)
.L420:
.LVL534:
.LBB2159:
.LBB2160:
	.loc 2 2010 0
	lwz 9,40(29)
.LBE2160:
.LBE2159:
	.loc 2 754 0
	mr 3,28
.LBB2162:
.LBB2161:
	.loc 2 2010 0
	addi 0,9,1
	stw 0,40(29)
.LBE2161:
.LBE2162:
	.loc 2 754 0
	bl _ZN11fileDataPtrdeEv
	.loc 2 742 0
	lwz 0,248(1)
	.loc 2 754 0
	mr 30,3
.LVL535:
	.loc 2 742 0
	addic. 9,0,-1
	stw 9,248(1)
	beq- 0,.L414
	b .L422
.LVL536:
.L473:
	.loc 2 708 0
	lis 4,.LC34@ha
	mr 3,29
	la 4,.LC34@l(4)
	crxor 6,6,6
	bl _ZN7idLexer5ErrorEPKcz
.LEHE51:
.LBE2348:
	.loc 2 771 0
	lwz 0,284(1)
	lwz 26,256(1)
.LBB2349:
	.loc 2 709 0
	li 3,0
.LBE2349:
	.loc 2 771 0
	mtlr 0
	lwz 27,260(1)
.LVL537:
	lwz 28,264(1)
.LVL538:
	lwz 29,268(1)
.LVL539:
	lwz 30,272(1)
.LVL540:
	lwz 31,276(1)
.LVL541:
	addi 1,1,280
	.cfi_remember_state
	.cfi_restore 26
	.cfi_restore 27
	.cfi_restore 28
	.cfi_restore 29
	.cfi_restore 30
	.cfi_restore 31
.LCFI107:
	.cfi_def_cfa_offset 0
	blr
.LVL542:
.L351:
.LCFI108:
	.cfi_restore_state
.LBB2350:
.LBB2163:
.LBB2164:
	.loc 2 2016 0
	addi 3,1,180
	mr 4,28
	bl _ZN11fileDataPtrC1ERS_
	.loc 2 2017 0
	lwz 9,40(29)
.LBE2164:
.LBE2163:
	.loc 2 595 0
	addi 3,1,180
.LBB2166:
.LBB2165:
	.loc 2 2017 0
	addi 0,9,1
	stw 0,40(29)
.LEHB52:
.LBE2165:
.LBE2166:
	.loc 2 595 0
	bl _ZN11fileDataPtrdeEv
.LEHE52:
.LBB2167:
.LBB2168:
	.loc 4 163 0
	lwz 9,0(31)
.LBE2168:
.LBE2167:
	.loc 2 595 0
	mr 30,3
.LVL543:
.LBB2178:
.LBB2175:
.LBB2169:
.LBB2170:
	.loc 3 350 0
	lwz 0,8(31)
.LBE2170:
.LBE2169:
	.loc 4 163 0
	addi 4,9,2
.LVL544:
.LBB2173:
.LBB2171:
	.loc 3 350 0
	cmpw 7,4,0
	bgt- 7,.L480
.LVL545:
.L353:
.LBE2171:
.LBE2173:
	.loc 4 164 0
	lwz 11,4(31)
	addi 0,9,1
.LBE2175:
.LBE2178:
	.loc 2 595 0
	addi 3,1,180
.LBB2179:
.LBB2176:
	.loc 4 164 0
	stbx 30,11,9
	stw 0,0(31)
.LEHB53:
.LBE2176:
.LBE2179:
	.loc 2 595 0
	bl _ZN11fileDataPtrD1Ev
.LEHE53:
.LVL546:
.LBB2180:
.LBB2181:
	.loc 2 2016 0
	addi 3,1,152
	mr 4,28
	bl _ZN11fileDataPtrC1ERS_
	.loc 2 2017 0
	lwz 9,40(29)
.LBE2181:
.LBE2180:
	.loc 2 596 0
	addi 3,1,152
.LBB2183:
.LBB2182:
	.loc 2 2017 0
	addi 0,9,1
	stw 0,40(29)
.LEHB54:
.LBE2182:
.LBE2183:
	.loc 2 596 0
	bl _ZN11fileDataPtrdeEv
.LEHE54:
.LBB2184:
.LBB2185:
	.loc 4 163 0
	lwz 9,0(31)
.LBE2185:
.LBE2184:
	.loc 2 596 0
	mr 30,3
.LVL547:
.LBB2195:
.LBB2192:
.LBB2186:
.LBB2187:
	.loc 3 350 0
	lwz 0,8(31)
.LBE2187:
.LBE2186:
	.loc 4 163 0
	addi 4,9,2
.LVL548:
.LBB2190:
.LBB2188:
	.loc 3 350 0
	cmpw 7,4,0
	bgt- 7,.L481
.LVL549:
.L354:
.LBE2188:
.LBE2190:
	.loc 4 164 0
	lwz 11,4(31)
	addi 0,9,1
.LBE2192:
.LBE2195:
	.loc 2 596 0
	addi 3,1,152
.LBB2196:
.LBB2193:
	.loc 4 164 0
	stbx 30,11,9
	stw 0,0(31)
.LEHB55:
.LBE2193:
.LBE2196:
	.loc 2 596 0
	bl _ZN11fileDataPtrD1Ev
	.loc 2 597 0
	mr 3,28
	bl _ZN11fileDataPtrdeEv
	mr 30,3
.LVL550:
	.loc 2 598 0
	b .L355
.LVL551:
.L356:
.LBB2197:
.LBB2198:
	.loc 4 163 0 discriminator 6
	lwz 9,0(31)
.LBB2199:
.LBB2200:
	.loc 3 350 0 discriminator 6
	lwz 0,8(31)
.LBE2200:
.LBE2199:
	.loc 4 163 0 discriminator 6
	addi 4,9,2
.LVL552:
.LBB2202:
.LBB2201:
	.loc 3 350 0 discriminator 6
	cmpw 7,4,0
	ble+ 7,.L359
	.loc 3 351 0
	mr 3,31
	li 5,1
	bl _ZN5idStr10ReAllocateEib
.LVL553:
	lwz 9,0(31)
.L359:
.LBE2201:
.LBE2202:
	.loc 4 164 0
	lwz 11,4(31)
	addi 0,9,1
.LBE2198:
.LBE2197:
	.loc 2 602 0
	mr 3,28
.LBB2204:
.LBB2203:
	.loc 4 164 0
	stbx 30,11,9
	stw 0,0(31)
.LVL554:
.LBE2203:
.LBE2204:
.LBB2205:
.LBB2206:
	.loc 2 2010 0
	lwz 9,40(29)
	addi 0,9,1
	stw 0,40(29)
.LBE2206:
.LBE2205:
	.loc 2 602 0
	bl _ZN11fileDataPtrdeEv
	mr 30,3
.LVL555:
.L355:
	.loc 2 598 0 discriminator 1
	addi 0,30,-48
	rlwinm 0,0,0,0xff
	cmplwi 7,0,9
	ble- 7,.L356
	.loc 2 598 0 is_stmt 0 discriminator 3
	addi 0,30,-97
	rlwinm 0,0,0,0xff
	cmplwi 7,0,5
	ble- 7,.L356
	.loc 2 598 0 discriminator 4
	addi 0,30,-65
	rlwinm 0,0,0,0xff
	cmplwi 7,0,5
	ble- 7,.L356
	.loc 2 604 0 is_stmt 1
	li 0,5
	stw 0,36(31)
	b .L458
.LVL556:
.L471:
	.loc 2 649 0
	li 0,130
	stw 0,36(31)
	.loc 2 651 0
	beq- 6,.L433
	.loc 2 669 0
	cmpwi 7,30,35
	.loc 2 718 0
	li 0,130
	.loc 2 669 0
	beq- 7,.L482
.LVL557:
.L388:
	.loc 2 719 0
	cmplwi 7,30,32
	ble- 7,.L411
	.loc 2 721 0
	cmpwi 7,30,102
	beq- 7,.L412
	.loc 2 721 0 is_stmt 0 discriminator 1
	cmpwi 7,30,70
	beq- 7,.L412
	.loc 2 726 0 is_stmt 1
	cmpwi 7,30,108
	beq- 7,.L415
	.loc 2 726 0 is_stmt 0 discriminator 1
	cmpwi 7,30,76
	beq- 7,.L415
.L411:
	.loc 2 736 0 is_stmt 1
	ori 0,0,512
	stw 0,36(31)
	b .L414
.L418:
	.loc 2 745 0
	lwz 0,36(31)
	ori 0,0,32
	stw 0,36(31)
	b .L420
.LVL558:
.L472:
	.loc 2 704 0
	lis 4,.LC33@ha
	mr 3,29
	la 4,.LC33@l(4)
	crxor 6,6,6
	bl _ZN7idLexer5ErrorEPKcz
	.loc 2 705 0
	li 3,0
	b .L408
.LVL559:
.L412:
	.loc 2 722 0
	ori 0,0,256
.LBB2207:
.LBB2208:
	.loc 2 2016 0
	addi 3,1,40
.LBE2208:
.LBE2207:
	.loc 2 722 0
	stw 0,36(31)
.LVL560:
.LBB2211:
.LBB2209:
	.loc 2 2016 0
	mr 4,28
	bl _ZN11fileDataPtrC1ERS_
	.loc 2 2017 0
	lwz 9,40(29)
.LBE2209:
.LBE2211:
	.loc 2 723 0
	addi 3,1,40
.LBB2212:
.LBB2210:
	.loc 2 2017 0
	addi 0,9,1
	stw 0,40(29)
.LBE2210:
.LBE2212:
	.loc 2 723 0
	bl _ZN11fileDataPtrD1Ev
.LEHE55:
	b .L414
.LVL561:
.L361:
.LBB2213:
.LBB2214:
	.loc 2 2016 0
	addi 3,1,124
	mr 4,28
	bl _ZN11fileDataPtrC1ERS_
	.loc 2 2017 0
	lwz 9,40(29)
.LBE2214:
.LBE2213:
	.loc 2 608 0
	addi 3,1,124
.LBB2216:
.LBB2215:
	.loc 2 2017 0
	addi 0,9,1
	stw 0,40(29)
.LEHB56:
.LBE2215:
.LBE2216:
	.loc 2 608 0
	bl _ZN11fileDataPtrdeEv
.LEHE56:
.LBB2217:
.LBB2218:
	.loc 4 163 0
	lwz 9,0(31)
.LBE2218:
.LBE2217:
	.loc 2 608 0
	mr 30,3
.LVL562:
.LBB2228:
.LBB2225:
.LBB2219:
.LBB2220:
	.loc 3 350 0
	lwz 0,8(31)
.LBE2220:
.LBE2219:
	.loc 4 163 0
	addi 4,9,2
.LVL563:
.LBB2223:
.LBB2221:
	.loc 3 350 0
	cmpw 7,4,0
	bgt- 7,.L483
.LVL564:
.L363:
.LBE2221:
.LBE2223:
	.loc 4 164 0
	lwz 11,4(31)
	addi 0,9,1
.LBE2225:
.LBE2228:
	.loc 2 608 0
	addi 3,1,124
.LBB2229:
.LBB2226:
	.loc 4 164 0
	stbx 30,11,9
	stw 0,0(31)
.LEHB57:
.LBE2226:
.LBE2229:
	.loc 2 608 0
	bl _ZN11fileDataPtrD1Ev
.LEHE57:
.LVL565:
.LBB2230:
.LBB2231:
	.loc 2 2016 0
	addi 3,1,96
	mr 4,28
	bl _ZN11fileDataPtrC1ERS_
	.loc 2 2017 0
	lwz 9,40(29)
.LBE2231:
.LBE2230:
	.loc 2 609 0
	addi 3,1,96
.LBB2233:
.LBB2232:
	.loc 2 2017 0
	addi 0,9,1
	stw 0,40(29)
.LEHB58:
.LBE2232:
.LBE2233:
	.loc 2 609 0
	bl _ZN11fileDataPtrdeEv
.LEHE58:
.LBB2234:
.LBB2235:
	.loc 4 163 0
	lwz 9,0(31)
.LBE2235:
.LBE2234:
	.loc 2 609 0
	mr 30,3
.LVL566:
.LBB2245:
.LBB2242:
.LBB2236:
.LBB2237:
	.loc 3 350 0
	lwz 0,8(31)
.LBE2237:
.LBE2236:
	.loc 4 163 0
	addi 4,9,2
.LVL567:
.LBB2240:
.LBB2238:
	.loc 3 350 0
	cmpw 7,4,0
	bgt- 7,.L484
.LVL568:
.L364:
.LBE2238:
.LBE2240:
	.loc 4 164 0
	lwz 11,4(31)
	addi 0,9,1
.LBE2242:
.LBE2245:
	.loc 2 609 0
	addi 3,1,96
.LBB2246:
.LBB2243:
	.loc 4 164 0
	stbx 30,11,9
	stw 0,0(31)
.LEHB59:
.LBE2243:
.LBE2246:
	.loc 2 609 0
	bl _ZN11fileDataPtrD1Ev
	.loc 2 610 0
	mr 3,28
	b .L462
.LVL569:
.L485:
.LBB2247:
.LBB2248:
	.loc 4 163 0
	lwz 9,0(31)
.LBB2249:
.LBB2250:
	.loc 3 350 0
	lwz 0,8(31)
.LBE2250:
.LBE2249:
	.loc 4 163 0
	addi 4,9,2
.LVL570:
.LBB2252:
.LBB2251:
	.loc 3 350 0
	cmpw 7,4,0
	ble+ 7,.L366
.LVL571:
	.loc 3 351 0
	mr 3,31
.LVL572:
	li 5,1
	bl _ZN5idStr10ReAllocateEib
.LVL573:
	lwz 9,0(31)
.L366:
.LBE2251:
.LBE2252:
	.loc 4 164 0
	lwz 11,4(31)
	addi 0,9,1
.LBE2248:
.LBE2247:
	.loc 2 613 0
	mr 3,28
.LBB2254:
.LBB2253:
	.loc 4 164 0
	stbx 30,11,9
	stw 0,0(31)
.LVL574:
.LBE2253:
.LBE2254:
.LBB2255:
.LBB2256:
	.loc 2 2010 0
	lwz 9,40(29)
	addi 0,9,1
	stw 0,40(29)
.LVL575:
.L462:
.LBE2256:
.LBE2255:
	.loc 2 610 0
	bl _ZN11fileDataPtrdeEv
.LEHE59:
	.loc 2 611 0
	addi 0,3,-48
	.loc 2 610 0
	mr 30,3
.LVL576:
	.loc 2 611 0
	rlwinm 0,0,0,0xff
	cmplwi 7,0,1
	ble+ 7,.L485
	.loc 2 615 0
	li 0,17
	stw 0,36(31)
	b .L458
.LVL577:
.L481:
.LBB2257:
.LBB2194:
.LBB2191:
.LBB2189:
	.loc 3 351 0
	mr 3,31
.LVL578:
	li 5,1
.LEHB60:
	bl _ZN5idStr10ReAllocateEib
.LEHE60:
.LVL579:
	lwz 9,0(31)
	b .L354
.LVL580:
.L480:
.LBE2189:
.LBE2191:
.LBE2194:
.LBE2257:
.LBB2258:
.LBB2177:
.LBB2174:
.LBB2172:
	mr 3,31
.LVL581:
	li 5,1
.LEHB61:
	bl _ZN5idStr10ReAllocateEib
.LEHE61:
.LVL582:
	lwz 9,0(31)
	b .L353
.LVL583:
.L484:
.LBE2172:
.LBE2174:
.LBE2177:
.LBE2258:
.LBB2259:
.LBB2244:
.LBB2241:
.LBB2239:
	mr 3,31
.LVL584:
	li 5,1
.LEHB62:
	bl _ZN5idStr10ReAllocateEib
.LEHE62:
.LVL585:
	lwz 9,0(31)
	b .L364
.LVL586:
.L483:
.LBE2239:
.LBE2241:
.LBE2244:
.LBE2259:
.LBB2260:
.LBB2227:
.LBB2224:
.LBB2222:
	mr 3,31
.LVL587:
	li 5,1
.LEHB63:
	bl _ZN5idStr10ReAllocateEib
.LEHE63:
.LVL588:
	lwz 9,0(31)
	b .L363
.LVL589:
.L475:
.LBE2222:
.LBE2224:
.LBE2227:
.LBE2260:
.LBB2261:
.LBB2123:
.LBB2120:
.LBB2118:
	mr 3,31
.LVL590:
	li 5,1
.LEHB64:
	bl _ZN5idStr10ReAllocateEib
.LEHE64:
.LVL591:
	lwz 9,0(31)
	b .L368
.LVL592:
.L477:
.LBE2118:
.LBE2120:
.LBE2123:
.LBE2261:
.LBB2262:
.LBB2145:
.LBB2143:
.LBB2141:
	mr 3,31
	li 5,1
.LEHB65:
	bl _ZN5idStr10ReAllocateEib
.LVL593:
	lwz 9,0(31)
	b .L379
.LVL594:
.L415:
.LBE2141:
.LBE2143:
.LBE2145:
.LBE2262:
	.loc 2 727 0
	ori 0,0,1024
.LBB2263:
.LBB2264:
	.loc 2 2016 0
	addi 3,1,12
.LBE2264:
.LBE2263:
	.loc 2 727 0
	stw 0,36(31)
.LVL595:
.LBB2267:
.LBB2265:
	.loc 2 2016 0
	mr 4,28
	bl _ZN11fileDataPtrC1ERS_
	.loc 2 2017 0
	lwz 9,40(29)
.LBE2265:
.LBE2267:
	.loc 2 728 0
	addi 3,1,12
.LBB2268:
.LBB2266:
	.loc 2 2017 0
	addi 0,9,1
	stw 0,40(29)
.LBE2266:
.LBE2268:
	.loc 2 728 0
	bl _ZN11fileDataPtrD1Ev
	b .L414
.LVL596:
.L482:
.LBB2269:
.LBB2270:
	.loc 2 566 0
	mr 26,1
	li 0,0
	lis 27,.LC27@ha
.LVL597:
	stwu 0,8(26)
.LVL598:
	la 27,.LC27@l(27)
	b .L390
.L487:
	addi 9,9,1
.LVL599:
	lbzx 0,27,9
.LVL600:
	stw 9,8(1)
	cmpwi 7,0,0
	beq- 7,.L486
.L390:
	.loc 2 567 0
	mr 3,28
	mr 4,26
	bl _ZN11fileDataPtrixERi
.LVL601:
	lwz 9,8(1)
	lbzx 0,27,9
	cmpw 7,0,3
	beq+ 7,.L487
.LVL602:
.LBE2270:
.LBE2269:
.LBB2271:
.LBB2272:
	.loc 2 566 0
	li 0,0
	lis 27,.LC28@ha
	stw 0,8(1)
.LVL603:
	la 27,.LC28@l(27)
	b .L393
.L489:
	addi 9,9,1
.LVL604:
	lbzx 0,27,9
.LVL605:
	stw 9,8(1)
	cmpwi 7,0,0
	beq- 7,.L488
.L393:
	.loc 2 567 0
	mr 3,28
	mr 4,26
	bl _ZN11fileDataPtrixERi
.LVL606:
	lwz 9,8(1)
	lbzx 0,27,9
	cmpw 7,0,3
	beq+ 7,.L489
.LVL607:
.LBE2272:
.LBE2271:
.LBB2273:
.LBB2274:
	.loc 2 566 0
	li 0,0
	lis 27,.LC29@ha
	stw 0,8(1)
.LVL608:
	la 27,.LC29@l(27)
	b .L396
.L491:
	addi 9,9,1
.LVL609:
	lbzx 0,27,9
.LVL610:
	stw 9,8(1)
	cmpwi 7,0,0
	beq- 7,.L490
.L396:
	.loc 2 567 0
	mr 3,28
	mr 4,26
	bl _ZN11fileDataPtrixERi
.LVL611:
	lwz 9,8(1)
	lbzx 0,27,9
	cmpw 7,0,3
	beq+ 7,.L491
.LBE2274:
.LBE2273:
	.loc 2 680 0
	lis 4,.LC30@ha
	mr 3,29
	la 4,.LC30@l(4)
	bl _ZN7idLexer11CheckStringEPKc
	cmpwi 7,3,0
	beq- 7,.L398
.L466:
	.loc 2 685 0
	lwz 0,36(31)
	li 26,5
	ori 0,0,8192
	stw 0,36(31)
.LVL612:
.L399:
	.loc 2 688 0
	li 27,0
.LVL613:
.L401:
.LBB2275:
.LBB2276:
	.loc 4 163 0
	lwz 9,0(31)
.LBB2277:
.LBB2278:
	.loc 3 350 0
	lwz 0,8(31)
.LBE2278:
.LBE2277:
	.loc 4 163 0
	addi 4,9,2
.LVL614:
.LBB2280:
.LBB2279:
	.loc 3 350 0
	cmpw 7,4,0
	ble+ 7,.L400
	.loc 3 351 0
	mr 3,31
	li 5,1
	bl _ZN5idStr10ReAllocateEib
.LVL615:
	lwz 9,0(31)
.L400:
.LBE2279:
.LBE2280:
	.loc 4 164 0
	lwz 11,4(31)
	addi 0,9,1
.LBE2276:
.LBE2275:
	.loc 2 690 0
	mr 3,28
	.loc 2 688 0
	addi 27,27,1
.LBB2282:
.LBB2281:
	.loc 4 164 0
	stbx 30,11,9
	stw 0,0(31)
.LVL616:
.LBE2281:
.LBE2282:
.LBB2283:
.LBB2284:
	.loc 2 2010 0
	lwz 9,40(29)
	addi 0,9,1
	stw 0,40(29)
.LBE2284:
.LBE2283:
	.loc 2 690 0
	bl _ZN11fileDataPtrdeEv
	.loc 2 688 0
	cmpw 7,27,26
	.loc 2 690 0
	mr 30,3
.LVL617:
	.loc 2 688 0
	blt+ 7,.L401
	b .L467
.LVL618:
.L486:
	.loc 2 672 0
	lwz 0,36(31)
	li 26,4
	ori 0,0,2048
	stw 0,36(31)
	b .L399
.LVL619:
.L447:
.LBB2285:
.LBB2286:
	.loc 4 163 0
	lwz 9,0(31)
.LBB2287:
.LBB2288:
	.loc 3 350 0
	lwz 0,8(31)
.LBE2288:
.LBE2287:
	.loc 4 163 0
	addi 4,9,2
.LVL620:
.LBB2290:
.LBB2289:
	.loc 3 350 0
	cmpw 7,4,0
	ble+ 7,.L403
.LVL621:
	.loc 3 351 0
	mr 3,31
	li 5,1
	bl _ZN5idStr10ReAllocateEib
.LVL622:
	lwz 9,0(31)
.L403:
.LBE2289:
.LBE2290:
	.loc 4 164 0
	lwz 11,4(31)
	addi 0,9,1
.LBE2286:
.LBE2285:
	.loc 2 694 0
	mr 3,28
.LBB2292:
.LBB2291:
	.loc 4 164 0
	stbx 30,11,9
	stw 0,0(31)
.LVL623:
.LBE2291:
.LBE2292:
.LBB2293:
.LBB2294:
	.loc 2 2010 0
	lwz 9,40(29)
	addi 0,9,1
	stw 0,40(29)
.LBE2294:
.LBE2293:
	.loc 2 694 0
	bl _ZN11fileDataPtrdeEv
	mr 30,3
.LVL624:
.L467:
	.loc 2 692 0
	addi 0,30,-48
	rlwinm 0,0,0,0xff
	cmplwi 7,0,9
	ble+ 7,.L447
	.loc 2 696 0
	lwz 0,104(29)
	andi. 9,0,1024
	bne+ 0,.L383
.LVL625:
.LBB2295:
.LBB2296:
	.loc 4 163 0
	lwz 9,0(31)
.LBB2297:
.LBB2298:
	.loc 3 350 0
	lwz 0,8(31)
.LBE2298:
.LBE2297:
	.loc 4 163 0
	addi 4,9,2
.LVL626:
.LBB2300:
.LBB2299:
	.loc 3 350 0
	cmpw 7,4,0
	ble+ 7,.L405
	.loc 3 351 0
	mr 3,31
	li 5,1
	bl _ZN5idStr10ReAllocateEib
.LVL627:
	lwz 9,0(31)
.L405:
.LBE2299:
.LBE2300:
	.loc 4 164 0
	lwz 11,4(31)
	li 0,0
.LBE2296:
.LBE2295:
	.loc 2 698 0
	lis 4,.LC32@ha
	mr 3,29
.LBB2302:
.LBB2301:
	.loc 4 164 0
	stbx 0,11,9
	addi 9,9,1
	stw 9,0(31)
.LBE2301:
.LBE2302:
	.loc 2 698 0
	la 4,.LC32@l(4)
	lwz 5,4(31)
	crxor 6,6,6
	bl _ZN7idLexer5ErrorEPKcz
	b .L383
.LVL628:
.L474:
.LBB2303:
.LBB2304:
	.loc 4 163 0
	lwz 9,0(31)
.LBB2305:
.LBB2306:
	.loc 3 350 0
	lwz 0,8(31)
.LBE2306:
.LBE2305:
	.loc 4 163 0
	addi 4,9,2
.LVL629:
.LBB2308:
.LBB2307:
	.loc 3 350 0
	cmpw 7,4,0
	ble+ 7,.L423
	.loc 3 351 0
	mr 3,31
	li 5,1
	bl _ZN5idStr10ReAllocateEib
.LVL630:
	lwz 9,0(31)
.L423:
.LBE2307:
.LBE2308:
	.loc 4 164 0
	lwz 11,4(31)
	addi 0,9,1
	li 10,58
.LBE2304:
.LBE2303:
	.loc 2 761 0
	mr 3,28
.LBB2310:
.LBB2309:
	.loc 4 164 0
	stbx 10,11,9
	stw 0,0(31)
.LVL631:
.LBE2309:
.LBE2310:
.LBB2311:
.LBB2312:
	.loc 2 2010 0
	lwz 0,40(29)
	addic 0,0,1
	b .L468
.LVL632:
.L492:
.LBE2312:
.LBE2311:
.LBB2314:
.LBB2315:
	.loc 4 163 0
	lwz 9,0(31)
.LBB2316:
.LBB2317:
	.loc 3 350 0
	lwz 0,8(31)
.LBE2317:
.LBE2316:
	.loc 4 163 0
	addi 4,9,2
.LVL633:
.LBB2319:
.LBB2318:
	.loc 3 350 0
	cmpw 7,4,0
	ble+ 7,.L425
	.loc 3 351 0
	mr 3,31
.LVL634:
	li 5,1
	bl _ZN5idStr10ReAllocateEib
.LVL635:
	lwz 9,0(31)
.L425:
.LBE2318:
.LBE2319:
	.loc 4 164 0
	lwz 11,4(31)
	addi 0,9,1
.LBE2315:
.LBE2314:
	.loc 2 764 0
	mr 3,28
.LBB2321:
.LBB2320:
	.loc 4 164 0
	stbx 30,11,9
	stw 0,0(31)
.LVL636:
.LBE2320:
.LBE2321:
.LBB2322:
.LBB2323:
	.loc 2 2010 0
	lwz 9,40(29)
	addi 0,9,1
.LVL637:
.L468:
.LBE2323:
.LBE2322:
.LBB2324:
.LBB2313:
	stw 0,40(29)
.LBE2313:
.LBE2324:
	.loc 2 761 0
	bl _ZN11fileDataPtrdeEv
	.loc 2 762 0
	addi 0,3,-48
	.loc 2 761 0
	mr 30,3
.LVL638:
	.loc 2 762 0
	rlwinm 0,0,0,0xff
	cmplwi 7,0,9
	ble+ 7,.L492
	.loc 2 766 0
	lwz 0,36(31)
	ori 0,0,32768
	stw 0,36(31)
	b .L414
.LVL639:
.L488:
	.loc 2 675 0
	lwz 0,36(31)
	li 26,4
	ori 0,0,4096
	stw 0,36(31)
	b .L399
.LVL640:
.L493:
.LBB2325:
.LBB2326:
	.loc 4 163 0
	lwz 9,0(31)
.LBB2327:
.LBB2328:
	.loc 3 350 0
	lwz 0,8(31)
.LBE2328:
.LBE2327:
	.loc 4 163 0
	addi 4,9,2
.LVL641:
.LBB2330:
.LBB2329:
	.loc 3 350 0
	cmpw 7,4,0
	ble+ 7,.L385
	.loc 3 351 0
	mr 3,31
.LVL642:
	li 5,1
	bl _ZN5idStr10ReAllocateEib
.LVL643:
	lwz 9,0(31)
.L385:
.LBE2329:
.LBE2330:
	.loc 4 164 0
	lwz 11,4(31)
	addi 0,9,1
	li 10,43
.LVL644:
.L464:
.LBE2326:
.LBE2325:
.LBB2331:
.LBB2332:
	stbx 10,11,9
.LBE2332:
.LBE2331:
	.loc 2 657 0
	mr 3,28
.LBB2339:
.LBB2337:
	.loc 4 164 0
	stw 0,0(31)
.LVL645:
.LBE2337:
.LBE2339:
.LBB2340:
.LBB2341:
	.loc 2 2010 0
	lwz 0,40(29)
	addic 0,0,1
	stw 0,40(29)
.LBE2341:
.LBE2340:
	.loc 2 657 0
	bl _ZN11fileDataPtrdeEv
	mr 30,3
.LVL646:
	b .L465
.LVL647:
.L478:
.LBB2342:
.LBB2338:
	.loc 4 163 0
	lwz 9,0(31)
.LBB2333:
.LBB2334:
	.loc 3 350 0
	lwz 0,8(31)
.LBE2334:
.LBE2333:
	.loc 4 163 0
	addi 4,9,2
.LVL648:
.LBB2336:
.LBB2335:
	.loc 3 350 0
	cmpw 7,4,0
	ble+ 7,.L381
	.loc 3 351 0
	mr 3,31
.LVL649:
	li 5,1
	bl _ZN5idStr10ReAllocateEib
.LEHE65:
.LVL650:
	lwz 9,0(31)
.L381:
.LBE2335:
.LBE2336:
	.loc 4 164 0
	lwz 11,4(31)
	addi 0,9,1
	li 10,45
	b .L464
.LVL651:
.L490:
.LBE2338:
.LBE2342:
	.loc 2 678 0
	lwz 0,36(31)
	li 26,4
	ori 0,0,8192
	stw 0,36(31)
	b .L399
.LVL652:
.L437:
	mr 31,3
.LVL653:
	.loc 2 590 0
	addi 3,1,208
	bl _ZN11fileDataPtrD1Ev
	mr 3,31
.LEHB66:
	bl _Unwind_Resume
.LEHE66:
.LVL654:
.L442:
	mr 31,3
.LVL655:
	.loc 2 619 0
	addi 3,1,68
	bl _ZN11fileDataPtrD1Ev
	mr 3,31
.LEHB67:
	bl _Unwind_Resume
.LVL656:
.L398:
	.loc 2 684 0
	lis 4,.LC31@ha
	mr 3,29
	la 4,.LC31@l(4)
	li 26,4
	bl _ZN7idLexer11CheckStringEPKc
.LEHE67:
	cmpwi 7,3,0
	beq- 7,.L399
	b .L466
.LVL657:
.L439:
	mr 31,3
.LVL658:
	.loc 2 596 0
	addi 3,1,152
	bl _ZN11fileDataPtrD1Ev
	mr 3,31
.LEHB68:
	bl _Unwind_Resume
.LEHE68:
.LVL659:
.L438:
	mr 31,3
.LVL660:
	.loc 2 595 0
	addi 3,1,180
	bl _ZN11fileDataPtrD1Ev
	mr 3,31
.LEHB69:
	bl _Unwind_Resume
.LEHE69:
.LVL661:
.L441:
	mr 31,3
.LVL662:
	.loc 2 609 0
	addi 3,1,96
	bl _ZN11fileDataPtrD1Ev
	mr 3,31
.LEHB70:
	bl _Unwind_Resume
.LEHE70:
.LVL663:
.L440:
	mr 31,3
.LVL664:
	.loc 2 608 0
	addi 3,1,124
	bl _ZN11fileDataPtrD1Ev
	mr 3,31
.LEHB71:
	bl _Unwind_Resume
.LEHE71:
.LBE2350:
	.cfi_endproc
.LFE2549:
	.section	.gcc_except_table
.LLSDA2549:
	.byte	0xff
	.byte	0xff
	.byte	0x1
	.uleb128 .LLSDACSE2549-.LLSDACSB2549
.LLSDACSB2549:
	.uleb128 .LEHB47-.LFB2549
	.uleb128 .LEHE47-.LEHB47
	.uleb128 0
	.uleb128 0
	.uleb128 .LEHB48-.LFB2549
	.uleb128 .LEHE48-.LEHB48
	.uleb128 .L437-.LFB2549
	.uleb128 0
	.uleb128 .LEHB49-.LFB2549
	.uleb128 .LEHE49-.LEHB49
	.uleb128 0
	.uleb128 0
	.uleb128 .LEHB50-.LFB2549
	.uleb128 .LEHE50-.LEHB50
	.uleb128 .L442-.LFB2549
	.uleb128 0
	.uleb128 .LEHB51-.LFB2549
	.uleb128 .LEHE51-.LEHB51
	.uleb128 0
	.uleb128 0
	.uleb128 .LEHB52-.LFB2549
	.uleb128 .LEHE52-.LEHB52
	.uleb128 .L438-.LFB2549
	.uleb128 0
	.uleb128 .LEHB53-.LFB2549
	.uleb128 .LEHE53-.LEHB53
	.uleb128 0
	.uleb128 0
	.uleb128 .LEHB54-.LFB2549
	.uleb128 .LEHE54-.LEHB54
	.uleb128 .L439-.LFB2549
	.uleb128 0
	.uleb128 .LEHB55-.LFB2549
	.uleb128 .LEHE55-.LEHB55
	.uleb128 0
	.uleb128 0
	.uleb128 .LEHB56-.LFB2549
	.uleb128 .LEHE56-.LEHB56
	.uleb128 .L440-.LFB2549
	.uleb128 0
	.uleb128 .LEHB57-.LFB2549
	.uleb128 .LEHE57-.LEHB57
	.uleb128 0
	.uleb128 0
	.uleb128 .LEHB58-.LFB2549
	.uleb128 .LEHE58-.LEHB58
	.uleb128 .L441-.LFB2549
	.uleb128 0
	.uleb128 .LEHB59-.LFB2549
	.uleb128 .LEHE59-.LEHB59
	.uleb128 0
	.uleb128 0
	.uleb128 .LEHB60-.LFB2549
	.uleb128 .LEHE60-.LEHB60
	.uleb128 .L439-.LFB2549
	.uleb128 0
	.uleb128 .LEHB61-.LFB2549
	.uleb128 .LEHE61-.LEHB61
	.uleb128 .L438-.LFB2549
	.uleb128 0
	.uleb128 .LEHB62-.LFB2549
	.uleb128 .LEHE62-.LEHB62
	.uleb128 .L441-.LFB2549
	.uleb128 0
	.uleb128 .LEHB63-.LFB2549
	.uleb128 .LEHE63-.LEHB63
	.uleb128 .L440-.LFB2549
	.uleb128 0
	.uleb128 .LEHB64-.LFB2549
	.uleb128 .LEHE64-.LEHB64
	.uleb128 .L442-.LFB2549
	.uleb128 0
	.uleb128 .LEHB65-.LFB2549
	.uleb128 .LEHE65-.LEHB65
	.uleb128 0
	.uleb128 0
	.uleb128 .LEHB66-.LFB2549
	.uleb128 .LEHE66-.LEHB66
	.uleb128 0
	.uleb128 0
	.uleb128 .LEHB67-.LFB2549
	.uleb128 .LEHE67-.LEHB67
	.uleb128 0
	.uleb128 0
	.uleb128 .LEHB68-.LFB2549
	.uleb128 .LEHE68-.LEHB68
	.uleb128 0
	.uleb128 0
	.uleb128 .LEHB69-.LFB2549
	.uleb128 .LEHE69-.LEHB69
	.uleb128 0
	.uleb128 0
	.uleb128 .LEHB70-.LFB2549
	.uleb128 .LEHE70-.LEHB70
	.uleb128 0
	.uleb128 0
	.uleb128 .LEHB71-.LFB2549
	.uleb128 .LEHE71-.LEHB71
	.uleb128 0
	.uleb128 0
.LLSDACSE2549:
	.section	".text"
	.size	_ZN7idLexer10ReadNumberEP7idToken, .-_ZN7idLexer10ReadNumberEP7idToken
	.align 2
	.globl _ZN7idLexer9ReadTokenEP7idToken
	.type	_ZN7idLexer9ReadTokenEP7idToken, @function
_ZN7idLexer9ReadTokenEP7idToken:
.LFB2551:
	.loc 2 823 0
	.cfi_startproc
	.cfi_personality 0,__gxx_personality_v0
	.cfi_lsda 0,.LLSDA2551
.LVL665:
	mflr 0
	stwu 1,-96(1)
.LCFI109:
	.cfi_def_cfa_offset 96
	.cfi_register 65, 0
	stw 30,88(1)
	mr 30,4
	.cfi_offset 30, -8
	stw 31,92(1)
	mr 31,3
	.cfi_offset 31, -4
	stw 0,100(1)
	stw 27,76(1)
	stw 28,80(1)
	stw 29,84(1)
.LBB2372:
	.loc 2 826 0
	lwz 0,0(3)
	.cfi_offset 29, -12
	.cfi_offset 28, -16
	.cfi_offset 27, -20
	.cfi_offset 65, 4
	cmpwi 7,0,0
	beq- 7,.L532
	.loc 2 832 0
	lwz 0,100(3)
	cmpwi 7,0,0
	bne- 7,.L533
.LVL666:
	.loc 2 840 0
	lwz 9,92(3)
	.loc 2 849 0
	li 27,0
	.loc 2 838 0
	lwz 11,40(3)
	.loc 2 840 0
	stw 9,96(3)
	.loc 2 838 0
	stw 11,72(3)
	.loc 2 842 0
	lwz 9,4(4)
	stb 0,0(9)
	.loc 2 843 0
	stw 0,0(4)
.LVL667:
.LBB2373:
.LBB2374:
	.loc 2 1995 0
	lwz 0,40(3)
.LBE2374:
.LBE2373:
	.loc 2 845 0
	stw 0,76(3)
.LVL668:
	.loc 2 846 0
	stw 0,64(4)
.LEHB72:
	.loc 2 848 0
	bl _ZN7idLexer14ReadWhiteSpaceEv
.LVL669:
	cmpwi 7,3,0
	bne- 7,.L534
.L496:
.LBE2372:
	.loc 2 915 0
	lwz 0,100(1)
	mr 3,27
	lwz 28,80(1)
	mtlr 0
	lwz 27,76(1)
	lwz 29,84(1)
	lwz 30,88(1)
.LVL670:
	lwz 31,92(1)
.LVL671:
	addi 1,1,96
	.cfi_remember_state
.LCFI110:
	.cfi_def_cfa_offset 0
	.cfi_restore 31
	.cfi_restore 30
	.cfi_restore 29
	.cfi_restore 28
	.cfi_restore 27
	blr
.LVL672:
.L533:
.LCFI111:
	.cfi_restore_state
.LBB2408:
	.loc 2 833 0
	li 0,0
.LBB2375:
.LBB2376:
.LBB2377:
	.loc 2 2091 0
	lwz 29,120(3)
.LBE2377:
.LBE2376:
.LBE2375:
	.loc 2 833 0
	stw 0,100(3)
.LVL673:
.LBB2395:
.LBB2392:
.LBB2388:
.LBB2378:
.LBB2379:
.LBB2380:
	.loc 3 350 0
	lwz 0,8(4)
.LBE2380:
.LBE2379:
	.loc 3 534 0
	addi 4,29,1
.LVL674:
.LBB2383:
.LBB2381:
	.loc 3 350 0
	cmpw 7,4,0
	bgt- 7,.L535
.LVL675:
.L498:
.LBE2381:
.LBE2383:
	.loc 3 535 0
	lwz 3,4(30)
	mr 5,29
	lwz 4,124(31)
.LBE2378:
.LBE2388:
	.loc 2 835 0
	li 27,1
.LBB2389:
.LBB2385:
	.loc 3 535 0
	bl memcpy
	.loc 3 536 0
	lwz 9,4(30)
	li 0,0
.LBE2385:
.LBE2389:
.LBE2392:
.LBE2395:
.LBE2408:
	.loc 2 915 0
	mr 3,27
.LBB2409:
.LBB2396:
.LBB2393:
.LBB2390:
.LBB2386:
	.loc 3 536 0
	stbx 0,9,29
	.loc 3 537 0
	stw 29,0(30)
.LBE2386:
.LBE2390:
	.loc 4 71 0
	lwz 0,152(31)
	stw 0,32(30)
	lwz 0,156(31)
	stw 0,36(30)
	lwz 0,160(31)
	stw 0,40(30)
	lwz 0,164(31)
	stw 0,44(30)
	lwz 0,168(31)
	stw 0,48(30)
	lwz 0,172(31)
	stw 0,52(30)
	lfd 0,176(31)
	stfd 0,56(30)
	lwz 0,184(31)
	stw 0,64(30)
	lwz 0,188(31)
	stw 0,68(30)
	lwz 0,192(31)
	stw 0,72(30)
.LBE2393:
.LBE2396:
.LBE2409:
	.loc 2 915 0
	lwz 0,100(1)
	lwz 27,76(1)
	mtlr 0
	lwz 28,80(1)
	lwz 29,84(1)
	lwz 30,88(1)
.LVL676:
	lwz 31,92(1)
.LVL677:
	addi 1,1,96
	.cfi_remember_state
	.cfi_restore 27
	.cfi_restore 28
	.cfi_restore 29
	.cfi_restore 30
	.cfi_restore 31
.LCFI112:
	.cfi_def_cfa_offset 0
	blr
.LVL678:
.L532:
.LCFI113:
	.cfi_restore_state
.LBB2410:
	.loc 2 827 0
	lis 9,_ZN5idLib6commonE@ha
	lis 4,.LC35@ha
.LVL679:
	lwz 3,_ZN5idLib6commonE@l(9)
.LVL680:
	la 4,.LC35@l(4)
	.loc 2 828 0
	li 27,0
	.loc 2 827 0
	lwz 9,0(3)
	lwz 0,96(9)
	mtctr 0
	crxor 6,6,6
	bctrl
.LBE2410:
	.loc 2 915 0
	lwz 0,100(1)
	mr 3,27
	lwz 28,80(1)
	mtlr 0
	lwz 27,76(1)
	lwz 29,84(1)
	lwz 30,88(1)
.LVL681:
	lwz 31,92(1)
.LVL682:
	addi 1,1,96
	.cfi_remember_state
	.cfi_restore 27
	.cfi_restore 28
	.cfi_restore 29
	.cfi_restore 30
	.cfi_restore 31
.LCFI114:
	.cfi_def_cfa_offset 0
	blr
.LVL683:
.L535:
.LCFI115:
	.cfi_restore_state
.LBB2411:
.LBB2397:
.LBB2394:
.LBB2391:
.LBB2387:
.LBB2384:
.LBB2382:
	.loc 3 351 0
	mr 3,30
.LVL684:
	li 5,0
	bl _ZN5idStr10ReAllocateEib
.LVL685:
	b .L498
.LVL686:
.L534:
.LBE2382:
.LBE2384:
.LBE2387:
.LBE2391:
.LBE2394:
.LBE2397:
.LBB2398:
.LBB2399:
	.loc 2 1995 0
	lwz 0,40(31)
.LBE2399:
.LBE2398:
	.loc 2 861 0
	addi 28,31,40
	mr 3,28
	.loc 2 852 0
	stw 0,80(31)
.LVL687:
	.loc 2 853 0
	stw 0,68(30)
	.loc 2 855 0
	lwz 0,92(31)
	stw 0,40(30)
	.loc 2 857 0
	lwz 9,92(31)
	lwz 0,96(31)
	.loc 2 859 0
	stw 27,48(30)
	.loc 2 857 0
	subf 0,0,9
	stw 0,44(30)
	.loc 2 861 0
	bl _ZN11fileDataPtrdeEv
	.loc 2 864 0
	lwz 0,104(31)
	.loc 2 861 0
	mr 29,3
.LVL688:
	.loc 2 864 0
	andi. 9,0,8192
	beq- 0,.L499
	.loc 2 866 0
	cmpwi 7,29,34
	.loc 2 867 0
	mr 3,31
.LVL689:
	mr 4,30
	.loc 2 866 0
	beq- 7,.L530
	.loc 2 866 0 is_stmt 0 discriminator 1
	cmpwi 7,29,39
	beq- 7,.L530
.L531:
	.loc 2 904 0 is_stmt 1
	bl _ZN7idLexer8ReadNameEP7idToken
	.loc 2 823 0
	cntlzw 3,3
	srwi 3,3,5
	xori 27,3,1
	b .L496
.L508:
	.loc 2 892 0
	mr 3,31
	mr 4,30
.L530:
	mr 5,29
	bl _ZN7idLexer10ReadStringEP7idTokeni
	.loc 2 823 0
	cntlzw 3,3
	srwi 3,3,5
	xori 27,3,1
	b .L496
.L499:
	.loc 2 875 0
	addi 0,3,-48
	cmplwi 7,0,9
	ble- 7,.L526
	.loc 2 875 0 is_stmt 0 discriminator 2
	cmpwi 7,3,46
	beq- 7,.L536
	.loc 2 891 0 is_stmt 1
	cmpwi 7,3,34
	beq- 7,.L508
	.loc 2 891 0 is_stmt 0 discriminator 1
	cmpwi 7,3,39
	beq- 7,.L508
.L509:
	.loc 2 897 0 is_stmt 1
	addi 0,29,-97
	cmplwi 7,0,25
	ble- 7,.L510
	.loc 2 897 0 is_stmt 0 discriminator 1
	addi 0,29,-65
	cmplwi 7,0,25
	ble- 7,.L510
	.loc 2 897 0 discriminator 2
	cmpwi 7,29,95
	beq- 7,.L510
	.loc 2 903 0 is_stmt 1
	lwz 0,104(31)
	andi. 9,0,128
	beq- 0,.L512
	.loc 2 903 0 is_stmt 0 discriminator 1
	cmpwi 7,29,47
	beq- 7,.L513
	.loc 2 903 0 discriminator 2
	cmpwi 7,29,92
	beq- 7,.L513
	.loc 2 903 0 discriminator 3
	cmpwi 7,29,46
	beq- 7,.L513
.L512:
	.loc 2 909 0 is_stmt 1
	mr 3,31
	mr 4,30
	bl _ZN7idLexer15ReadPunctuationEP7idToken
	.loc 2 914 0
	li 27,1
	.loc 2 909 0
	cmpwi 7,3,0
	bne+ 7,.L496
	.loc 2 910 0
	lis 4,.LC36@ha
	mr 3,31
	la 4,.LC36@l(4)
	mr 5,29
	crxor 6,6,6
	bl _ZN7idLexer5ErrorEPKcz
.LEHE72:
	.loc 2 911 0
	li 27,0
	b .L496
.L536:
.LVL690:
.LBB2400:
.LBB2401:
	.loc 2 2049 0
	addi 3,1,36
	mr 4,28
	bl _ZN11fileDataPtrC1ERS_
	.loc 2 2050 0
	lwz 9,36(1)
.LBE2401:
.LBE2400:
	.loc 2 876 0
	addi 3,1,36
.LBB2403:
.LBB2402:
	.loc 2 2050 0
	addi 0,9,1
	stw 0,36(1)
.LEHB73:
.LBE2402:
.LBE2403:
	.loc 2 876 0
	bl _ZN11fileDataPtrdeEv
.LEHE73:
	.loc 2 875 0
	cmplwi 7,3,47
	li 27,0
	bgt- 7,.L537
.L514:
	.loc 2 876 0 discriminator 3
	addi 3,1,36
.LEHB74:
	bl _ZN11fileDataPtrD1Ev
	.loc 2 875 0 discriminator 3
	cmpwi 7,27,0
	beq+ 7,.L509
.LVL691:
.L526:
	.loc 2 877 0
	mr 3,31
	mr 4,30
	bl _ZN7idLexer10ReadNumberEP7idToken
	.loc 2 878 0
	li 27,0
	.loc 2 877 0
	cmpwi 7,3,0
	beq- 7,.L496
	.loc 2 881 0
	lwz 0,104(31)
	.loc 2 914 0
	li 27,1
	.loc 2 881 0
	andi. 9,0,256
	beq+ 0,.L496
	.loc 2 882 0
	mr 3,28
	bl _ZN11fileDataPtrdeEv
.LVL692:
	.loc 2 883 0
	addi 0,3,-97
	cmplwi 7,0,25
	ble- 7,.L510
	.loc 2 883 0 is_stmt 0 discriminator 1
	addi 0,3,-65
	cmplwi 7,0,25
	ble- 7,.L510
	.loc 2 883 0 discriminator 2
	cmpwi 7,3,95
	bne+ 7,.L496
.LVL693:
.L510:
	.loc 2 898 0 is_stmt 1
	mr 3,31
	mr 4,30
	bl _ZN7idLexer8ReadNameEP7idToken
.LEHE74:
	.loc 2 823 0
	cntlzw 3,3
	srwi 3,3,5
	xori 27,3,1
	b .L496
.LVL694:
.L513:
	.loc 2 904 0
	mr 3,31
	mr 4,30
	b .L531
.LVL695:
.L537:
.LBB2404:
.LBB2405:
	.loc 2 2049 0
	addi 3,1,8
	mr 4,28
	bl _ZN11fileDataPtrC1ERS_
	.loc 2 2050 0
	lwz 0,8(1)
.LBE2405:
.LBE2404:
	.loc 2 876 0
	addi 3,1,8
.LBB2407:
.LBB2406:
	.loc 2 2050 0
	addic 0,0,1
	stw 0,8(1)
.LEHB75:
.LBE2406:
.LBE2407:
	.loc 2 876 0
	bl _ZN11fileDataPtrdeEv
.LEHE75:
	mr 27,3
	addi 3,1,8
.LEHB76:
	bl _ZN11fileDataPtrD1Ev
.LEHE76:
	.loc 2 823 0
	subfic 27,27,57
	li 27,0
	adde 27,27,27
	b .L514
.LVL696:
.L525:
	mr 31,3
.LVL697:
.L505:
	.loc 2 876 0 discriminator 4
	addi 3,1,36
	bl _ZN11fileDataPtrD1Ev
	mr 3,31
.LEHB77:
	bl _Unwind_Resume
.LEHE77:
.LVL698:
.L524:
	mr 31,3
.LVL699:
	.loc 2 876 0 is_stmt 0
	addi 3,1,8
	bl _ZN11fileDataPtrD1Ev
	b .L505
.LBE2411:
	.cfi_endproc
.LFE2551:
	.section	.gcc_except_table
.LLSDA2551:
	.byte	0xff
	.byte	0xff
	.byte	0x1
	.uleb128 .LLSDACSE2551-.LLSDACSB2551
.LLSDACSB2551:
	.uleb128 .LEHB72-.LFB2551
	.uleb128 .LEHE72-.LEHB72
	.uleb128 0
	.uleb128 0
	.uleb128 .LEHB73-.LFB2551
	.uleb128 .LEHE73-.LEHB73
	.uleb128 .L525-.LFB2551
	.uleb128 0
	.uleb128 .LEHB74-.LFB2551
	.uleb128 .LEHE74-.LEHB74
	.uleb128 0
	.uleb128 0
	.uleb128 .LEHB75-.LFB2551
	.uleb128 .LEHE75-.LEHB75
	.uleb128 .L524-.LFB2551
	.uleb128 0
	.uleb128 .LEHB76-.LFB2551
	.uleb128 .LEHE76-.LEHB76
	.uleb128 .L525-.LFB2551
	.uleb128 0
	.uleb128 .LEHB77-.LFB2551
	.uleb128 .LEHE77-.LEHB77
	.uleb128 0
	.uleb128 0
.LLSDACSE2551:
	.section	".text"
	.size	_ZN7idLexer9ReadTokenEP7idToken, .-_ZN7idLexer9ReadTokenEP7idToken
	.align 2
	.globl _ZN7idLexer15ParseRestOfLineER5idStr
	.type	_ZN7idLexer15ParseRestOfLineER5idStr, @function
_ZN7idLexer15ParseRestOfLineER5idStr:
.LFB2573:
	.loc 2 1499 0 is_stmt 1
	.cfi_startproc
	.cfi_personality 0,__gxx_personality_v0
	.cfi_lsda 0,.LLSDA2573
.LVL700:
	mflr 0
	stwu 1,-112(1)
.LCFI116:
	.cfi_def_cfa_offset 112
	.cfi_register 65, 0
.LVL701:
	stw 26,88(1)
	mr 26,3
	.cfi_offset 26, -24
	stw 0,116(1)
.LBB2451:
.LBB2452:
.LBB2453:
.LBB2454:
.LBB2455:
	.loc 3 356 0
	li 0,0
	.cfi_offset 65, 4
.LBE2455:
.LBE2454:
.LBE2453:
.LBE2452:
.LBE2451:
	.loc 2 1499 0
	stw 31,108(1)
	mr 31,4
	.cfi_offset 31, -4
	stw 27,92(1)
	stw 28,96(1)
	stw 29,100(1)
	stw 30,104(1)
.LBB2536:
.LBB2465:
.LBB2462:
.LBB2459:
.LBB2456:
	.loc 3 356 0
	stw 0,8(1)
.LBE2456:
.LBE2459:
.LBE2462:
.LBE2465:
.LBB2466:
.LBB2467:
.LBB2468:
.LBB2469:
	.loc 3 350 0
	lwz 9,8(4)
.LBE2469:
.LBE2468:
.LBE2467:
.LBE2466:
.LBB2480:
.LBB2463:
.LBB2460:
.LBB2457:
	.loc 3 359 0
	stb 0,20(1)
.LVL702:
.LBE2457:
.LBE2460:
.LBE2463:
.LBE2480:
.LBB2481:
.LBB2476:
.LBB2473:
.LBB2470:
	.loc 3 350 0
	cmpwi 7,9,0
.LBE2470:
.LBE2473:
.LBE2476:
.LBE2481:
.LBB2482:
.LBB2464:
.LBB2461:
.LBB2458:
	.loc 3 357 0
	li 9,20
	stw 9,16(1)
	.loc 3 358 0
	addi 9,1,20
	stw 9,12(1)
.LBE2458:
.LBE2461:
.LBE2464:
.LBE2482:
.LBB2483:
.LBB2477:
.LBB2474:
.LBB2471:
	.loc 3 350 0
	ble- 7,.L560
	.cfi_offset 30, -8
	.cfi_offset 29, -12
	.cfi_offset 28, -16
	.cfi_offset 27, -20
.LVL703:
.L539:
.LBE2471:
.LBE2474:
	.loc 3 737 0
	lwz 9,4(31)
	li 0,0
	addi 27,1,8
.LBE2477:
.LBE2483:
.LBB2484:
.LBB2485:
.LBB2486:
	.loc 3 778 0
	li 28,32
.LBE2486:
.LBE2485:
.LBE2484:
.LBB2499:
.LBB2478:
	.loc 3 737 0
	stb 0,0(9)
	.loc 3 738 0
	li 0,0
	stw 0,0(31)
.LBE2478:
.LBE2499:
.LBB2500:
.LBB2496:
.LBB2493:
	.loc 3 781 0
	li 29,0
.L540:
.LBE2493:
.LBE2496:
.LBE2500:
	.loc 2 1503 0 discriminator 1
	mr 3,26
	mr 4,27
.LEHB78:
	bl _ZN7idLexer9ReadTokenEP7idToken
	cmpwi 7,3,0
	beq- 7,.L542
	.loc 2 1504 0
	lwz 0,52(1)
	cmpwi 7,0,0
	bne- 7,.L561
	.loc 2 2091 0
	lwz 11,0(31)
	.loc 2 1509 0
	li 30,0
	cmpwi 7,11,0
	beq- 7,.L543
.LVL704:
.LBB2501:
.LBB2497:
.LBB2494:
	.loc 3 775 0
	addi 30,11,1
.LVL705:
.LBB2487:
.LBB2488:
	.loc 3 350 0
	lwz 0,8(31)
.LBE2488:
.LBE2487:
	.loc 3 776 0
	addi 4,30,1
.LVL706:
.LBB2491:
.LBB2489:
	.loc 3 350 0
	cmpw 7,4,0
	bgt- 7,.L562
.LVL707:
.L544:
.LBE2489:
.LBE2491:
	.loc 3 778 0
	lwz 9,4(31)
	stbx 28,9,11
.LVL708:
	.loc 3 780 0
	stw 30,0(31)
	.loc 3 781 0
	lwz 9,4(31)
	stbx 29,9,30
	lwz 30,0(31)
.LVL709:
.L543:
.LBE2494:
.LBE2497:
.LBE2501:
.LBB2502:
.LBB2503:
	.loc 2 2091 0
	lwz 0,8(1)
.LBB2504:
.LBB2505:
.LBB2506:
	.loc 3 350 0
	lwz 9,8(31)
.LBE2506:
.LBE2505:
	.loc 3 761 0
	add 30,0,30
.LVL710:
	.loc 3 762 0
	addi 4,30,1
.LVL711:
.LBB2509:
.LBB2507:
	.loc 3 350 0
	cmpw 7,4,9
	bgt- 7,.L545
.LVL712:
.L548:
.LBE2507:
.LBE2509:
	.loc 3 763 0
	cmpwi 7,0,0
	li 9,0
	ble- 7,.L547
.LVL713:
.L558:
.LBB2510:
.LBB2511:
	.loc 3 522 0
	lwz 8,12(1)
.LBE2511:
.LBE2510:
	.loc 3 764 0
	lwz 10,4(31)
	lwz 11,0(31)
.LBB2513:
.LBB2512:
	.loc 3 522 0
	lbzx 0,8,9
.LBE2512:
.LBE2513:
	.loc 3 764 0
	add 11,10,11
	stbx 0,11,9
	.loc 3 763 0
	addi 9,9,1
.LVL714:
	lwz 0,8(1)
	cmpw 7,9,0
	blt+ 7,.L558
.LVL715:
.L547:
	.loc 3 767 0
	lwz 9,4(31)
	.loc 3 766 0
	stw 30,0(31)
	.loc 3 767 0
	stbx 29,9,30
	b .L540
.LVL716:
.L545:
.LBB2514:
.LBB2508:
	.loc 3 351 0
	mr 3,31
	li 5,1
	bl _ZN5idStr10ReAllocateEib
.LVL717:
	lwz 0,8(1)
	b .L548
.LVL718:
.L562:
.LBE2508:
.LBE2514:
.LBE2504:
.LBE2503:
.LBE2502:
.LBB2515:
.LBB2498:
.LBB2495:
.LBB2492:
.LBB2490:
	mr 3,31
	li 5,1
	bl _ZN5idStr10ReAllocateEib
.LEHE78:
.LVL719:
	lwz 11,0(31)
	b .L544
.LVL720:
.L561:
.LBE2490:
.LBE2492:
.LBE2495:
.LBE2498:
.LBE2515:
.LBB2516:
.LBB2517:
	.loc 2 2064 0
	lwz 9,72(26)
.LBE2517:
.LBE2516:
	.loc 2 1506 0
	lwz 0,96(26)
.LBB2519:
.LBB2518:
	.loc 2 2064 0
	stw 9,40(26)
.LBE2518:
.LBE2519:
	.loc 2 1506 0
	stw 0,92(26)
.LVL721:
.L542:
.LBB2520:
.LBB2521:
.LBB2522:
.LBB2523:
.LBB2524:
	.loc 3 501 0
	mr 3,27
.LBE2524:
.LBE2523:
.LBE2522:
.LBE2521:
.LBE2520:
	.loc 2 2091 0
	lwz 31,4(31)
.LVL722:
.LEHB79:
.LBB2529:
.LBB2528:
.LBB2527:
.LBB2526:
.LBB2525:
	.loc 3 501 0
	bl _ZN5idStr8FreeDataEv
.LEHE79:
.LBE2525:
.LBE2526:
.LBE2527:
.LBE2528:
.LBE2529:
.LBE2536:
	.loc 2 1515 0
	lwz 0,116(1)
	mr 3,31
	lwz 26,88(1)
.LVL723:
	mtlr 0
	lwz 27,92(1)
	lwz 28,96(1)
	lwz 29,100(1)
	lwz 30,104(1)
	lwz 31,108(1)
	addi 1,1,112
	.cfi_remember_state
.LCFI117:
	.cfi_def_cfa_offset 0
	.cfi_restore 31
	.cfi_restore 30
	.cfi_restore 29
	.cfi_restore 28
	.cfi_restore 27
	.cfi_restore 26
	blr
.LVL724:
.L560:
.LCFI118:
	.cfi_restore_state
.LBB2537:
.LBB2530:
.LBB2479:
.LBB2475:
.LBB2472:
	.loc 3 351 0
	mr 3,4
.LVL725:
	li 5,1
	li 4,1
.LVL726:
	addi 27,1,8
.LEHB80:
	bl _ZN5idStr10ReAllocateEib
.LEHE80:
	b .L539
.L557:
	mr 31,3
.LVL727:
.LBE2472:
.LBE2475:
.LBE2479:
.LBE2530:
.LBB2531:
.LBB2532:
.LBB2533:
.LBB2534:
.LBB2535:
	.loc 3 501 0
	mr 3,27
	bl _ZN5idStr8FreeDataEv
	mr 3,31
.LEHB81:
	bl _Unwind_Resume
.LEHE81:
.LBE2535:
.LBE2534:
.LBE2533:
.LBE2532:
.LBE2531:
.LBE2537:
	.cfi_endproc
.LFE2573:
	.section	.gcc_except_table
.LLSDA2573:
	.byte	0xff
	.byte	0xff
	.byte	0x1
	.uleb128 .LLSDACSE2573-.LLSDACSB2573
.LLSDACSB2573:
	.uleb128 .LEHB78-.LFB2573
	.uleb128 .LEHE78-.LEHB78
	.uleb128 .L557-.LFB2573
	.uleb128 0
	.uleb128 .LEHB79-.LFB2573
	.uleb128 .LEHE79-.LEHB79
	.uleb128 0
	.uleb128 0
	.uleb128 .LEHB80-.LFB2573
	.uleb128 .LEHE80-.LEHB80
	.uleb128 .L557-.LFB2573
	.uleb128 0
	.uleb128 .LEHB81-.LFB2573
	.uleb128 .LEHE81-.LEHB81
	.uleb128 0
	.uleb128 0
.LLSDACSE2573:
	.section	".text"
	.size	_ZN7idLexer15ParseRestOfLineER5idStr, .-_ZN7idLexer15ParseRestOfLineER5idStr
	.align 2
	.globl _ZN7idLexer15ReadTokenOnLineEP7idToken
	.type	_ZN7idLexer15ReadTokenOnLineEP7idToken, @function
_ZN7idLexer15ReadTokenOnLineEP7idToken:
.LFB2563:
	.loc 2 1175 0
	.cfi_startproc
	.cfi_personality 0,__gxx_personality_v0
	.cfi_lsda 0,.LLSDA2563
.LVL728:
	mflr 0
	stwu 1,-104(1)
.LCFI119:
	.cfi_def_cfa_offset 104
	.cfi_register 65, 0
.LVL729:
.LBB2567:
.LBB2568:
.LBB2569:
.LBB2570:
.LBB2571:
	.loc 3 357 0
	li 9,20
.LBE2571:
.LBE2570:
.LBE2569:
.LBE2568:
.LBE2567:
	.loc 2 1175 0
	stw 31,100(1)
	mr 31,4
	.cfi_offset 31, -4
	stw 0,108(1)
.LBB2653:
	.loc 2 1178 0
	addi 4,1,8
.LVL730:
.LBB2578:
.LBB2576:
.LBB2574:
.LBB2572:
	.loc 3 356 0
	li 0,0
	.cfi_offset 65, 4
	.loc 3 357 0
	stw 9,16(1)
	.loc 3 358 0
	addi 9,1,20
.LBE2572:
.LBE2574:
.LBE2576:
.LBE2578:
.LBE2653:
	.loc 2 1175 0
	stw 30,96(1)
	stw 29,92(1)
	.loc 2 1175 0
	mr 30,3
	.cfi_offset 29, -12
	.cfi_offset 30, -8
.LBB2654:
.LBB2579:
.LBB2577:
.LBB2575:
.LBB2573:
	.loc 3 356 0
	stw 0,8(1)
	.loc 3 358 0
	stw 9,12(1)
	.loc 3 359 0
	stb 0,20(1)
.LEHB82:
.LBE2573:
.LBE2575:
.LBE2577:
.LBE2579:
	.loc 2 1178 0
	bl _ZN7idLexer9ReadTokenEP7idToken
.LEHE82:
.LVL731:
	cmpwi 7,3,0
	bne- 7,.L564
.LVL732:
	.loc 2 1180 0
	lwz 0,96(30)
.LBB2580:
.LBB2581:
.LBB2582:
.LBB2583:
.LBB2584:
	.loc 3 501 0
	addi 3,1,8
.LBE2584:
.LBE2583:
.LBE2582:
.LBE2581:
.LBE2580:
.LBB2605:
.LBB2606:
	.loc 2 2064 0
	lwz 9,72(30)
.LBE2606:
.LBE2605:
	.loc 2 1181 0
	li 29,0
.LVL733:
	.loc 2 1180 0
	stw 0,92(30)
.LBB2608:
.LBB2607:
	.loc 2 2064 0
	stw 9,40(30)
.LEHB83:
.LBE2607:
.LBE2608:
.LBB2609:
.LBB2600:
.LBB2595:
.LBB2590:
.LBB2585:
	.loc 3 501 0
	bl _ZN5idStr8FreeDataEv
.LEHE83:
.LBE2585:
.LBE2590:
.LBE2595:
.LBE2600:
.LBE2609:
.LBE2654:
	.loc 2 1193 0
	lwz 0,108(1)
	mr 3,29
	lwz 30,96(1)
.LVL734:
	mtlr 0
	lwz 29,92(1)
	lwz 31,100(1)
.LVL735:
	addi 1,1,104
	.cfi_remember_state
.LCFI120:
	.cfi_def_cfa_offset 0
	.cfi_restore 31
	.cfi_restore 30
	.cfi_restore 29
	blr
.LVL736:
.L564:
.LCFI121:
	.cfi_restore_state
.LBB2655:
	.loc 2 1184 0
	lwz 0,52(1)
	cmpwi 7,0,0
	beq- 7,.L574
.LVL737:
.LBB2610:
.LBB2611:
	.loc 2 2064 0
	lwz 9,72(30)
.LBE2611:
.LBE2610:
.LBB2613:
.LBB2614:
	.loc 3 746 0
	mr 3,31
.LBE2614:
.LBE2613:
	.loc 2 1190 0
	lwz 0,96(30)
.LBB2621:
.LBB2612:
	.loc 2 2064 0
	stw 9,40(30)
.LBE2612:
.LBE2621:
	.loc 2 1190 0
	stw 0,92(30)
.LVL738:
.LEHB84:
.LBB2622:
.LBB2619:
	.loc 3 746 0
	bl _ZN5idStr8FreeDataEv
.LEHE84:
.LVL739:
.LBB2615:
.LBB2616:
	.loc 3 356 0
	li 0,0
	.loc 3 358 0
	addi 9,31,12
	.loc 3 357 0
	li 11,20
	.loc 3 356 0
	stw 0,0(31)
	.loc 3 359 0
	stb 0,12(31)
.LBE2616:
.LBE2615:
.LBE2619:
.LBE2622:
.LBB2623:
.LBB2601:
.LBB2596:
.LBB2591:
.LBB2586:
	.loc 3 501 0
	addi 3,1,8
.LBE2586:
.LBE2591:
.LBE2596:
.LBE2601:
.LBE2623:
.LBB2624:
.LBB2620:
.LBB2618:
.LBB2617:
	.loc 3 357 0
	stw 11,8(31)
	.loc 2 1192 0
	li 29,0
.LVL740:
	.loc 3 358 0
	stw 9,4(31)
.LEHB85:
.LBE2617:
.LBE2618:
.LBE2620:
.LBE2624:
.LBB2625:
.LBB2602:
.LBB2597:
.LBB2592:
.LBB2587:
	.loc 3 501 0
	bl _ZN5idStr8FreeDataEv
.LBE2587:
.LBE2592:
.LBE2597:
.LBE2602:
.LBE2625:
.LBE2655:
	.loc 2 1193 0
	lwz 0,108(1)
	mr 3,29
	lwz 30,96(1)
.LVL741:
	mtlr 0
	lwz 29,92(1)
	lwz 31,100(1)
.LVL742:
	addi 1,1,104
	.cfi_remember_state
	.cfi_restore 29
	.cfi_restore 30
	.cfi_restore 31
.LCFI122:
	.cfi_def_cfa_offset 0
	blr
.LVL743:
.L574:
.LCFI123:
	.cfi_restore_state
.LBB2656:
.LBB2626:
.LBB2627:
.LBB2628:
	.loc 2 2091 0
	lwz 30,8(1)
.LVL744:
.LBB2629:
.LBB2630:
.LBB2631:
	.loc 3 350 0
	lwz 0,8(31)
.LBE2631:
.LBE2630:
	.loc 3 534 0
	addi 4,30,1
.LVL745:
.LBB2634:
.LBB2632:
	.loc 3 350 0
	cmpw 7,4,0
	bgt- 7,.L575
.LVL746:
.L567:
.LBE2632:
.LBE2634:
	.loc 3 535 0
	lwz 4,12(1)
	mr 5,30
	lwz 3,4(31)
.LBE2629:
.LBE2628:
	.loc 2 1186 0
	li 29,1
.LBB2639:
.LBB2636:
	.loc 3 535 0
	bl memcpy
	.loc 3 536 0
	lwz 9,4(31)
	li 0,0
.LBE2636:
.LBE2639:
.LBE2627:
.LBE2626:
.LBB2644:
.LBB2603:
.LBB2598:
.LBB2593:
.LBB2588:
	.loc 3 501 0
	addi 3,1,8
.LBE2588:
.LBE2593:
.LBE2598:
.LBE2603:
.LBE2644:
.LBB2645:
.LBB2642:
.LBB2640:
.LBB2637:
	.loc 3 536 0
	stbx 0,9,30
	.loc 3 537 0
	stw 30,0(31)
.LBE2637:
.LBE2640:
	.loc 4 71 0
	lwz 0,40(1)
	lfd 0,64(1)
	stw 0,32(31)
	lwz 0,44(1)
	stfd 0,56(31)
	stw 0,36(31)
	lwz 0,48(1)
	stw 0,40(31)
	lwz 0,52(1)
	stw 0,44(31)
	lwz 0,56(1)
	stw 0,48(31)
	lwz 0,60(1)
	stw 0,52(31)
	lwz 0,72(1)
	stw 0,64(31)
	lwz 0,76(1)
	stw 0,68(31)
	lwz 0,80(1)
	stw 0,72(31)
.LVL747:
.LBE2642:
.LBE2645:
.LBB2646:
.LBB2604:
.LBB2599:
.LBB2594:
.LBB2589:
	.loc 3 501 0
	bl _ZN5idStr8FreeDataEv
.LEHE85:
.LBE2589:
.LBE2594:
.LBE2599:
.LBE2604:
.LBE2646:
.LBE2656:
	.loc 2 1193 0
	lwz 0,108(1)
	mr 3,29
	lwz 30,96(1)
	mtlr 0
	lwz 29,92(1)
	lwz 31,100(1)
.LVL748:
	addi 1,1,104
	.cfi_remember_state
	.cfi_restore 29
	.cfi_restore 30
	.cfi_restore 31
.LCFI124:
	.cfi_def_cfa_offset 0
	blr
.LVL749:
.L575:
.LCFI125:
	.cfi_restore_state
.LBB2657:
.LBB2647:
.LBB2643:
.LBB2641:
.LBB2638:
.LBB2635:
.LBB2633:
	.loc 3 351 0
	mr 3,31
	li 5,0
.LEHB86:
	bl _ZN5idStr10ReAllocateEib
.LEHE86:
.LVL750:
	b .L567
.LVL751:
.L573:
	mr 31,3
.LVL752:
.LBE2633:
.LBE2635:
.LBE2638:
.LBE2641:
.LBE2643:
.LBE2647:
.LBB2648:
.LBB2649:
.LBB2650:
.LBB2651:
.LBB2652:
	.loc 3 501 0
	addi 3,1,8
	bl _ZN5idStr8FreeDataEv
	mr 3,31
.LEHB87:
	bl _Unwind_Resume
.LEHE87:
.LBE2652:
.LBE2651:
.LBE2650:
.LBE2649:
.LBE2648:
.LBE2657:
	.cfi_endproc
.LFE2563:
	.section	.gcc_except_table
.LLSDA2563:
	.byte	0xff
	.byte	0xff
	.byte	0x1
	.uleb128 .LLSDACSE2563-.LLSDACSB2563
.LLSDACSB2563:
	.uleb128 .LEHB82-.LFB2563
	.uleb128 .LEHE82-.LEHB82
	.uleb128 .L573-.LFB2563
	.uleb128 0
	.uleb128 .LEHB83-.LFB2563
	.uleb128 .LEHE83-.LEHB83
	.uleb128 0
	.uleb128 0
	.uleb128 .LEHB84-.LFB2563
	.uleb128 .LEHE84-.LEHB84
	.uleb128 .L573-.LFB2563
	.uleb128 0
	.uleb128 .LEHB85-.LFB2563
	.uleb128 .LEHE85-.LEHB85
	.uleb128 0
	.uleb128 0
	.uleb128 .LEHB86-.LFB2563
	.uleb128 .LEHE86-.LEHB86
	.uleb128 .L573-.LFB2563
	.uleb128 0
	.uleb128 .LEHB87-.LFB2563
	.uleb128 .LEHE87-.LEHB87
	.uleb128 0
	.uleb128 0
.LLSDACSE2563:
	.section	".text"
	.size	_ZN7idLexer15ReadTokenOnLineEP7idToken, .-_ZN7idLexer15ReadTokenOnLineEP7idToken
	.align 2
	.globl _ZN7idLexer17SkipBracedSectionEb
	.type	_ZN7idLexer17SkipBracedSectionEb, @function
_ZN7idLexer17SkipBracedSectionEb:
.LFB2561:
	.loc 2 1137 0
	.cfi_startproc
	.cfi_personality 0,__gxx_personality_v0
	.cfi_lsda 0,.LLSDA2561
.LVL753:
	mflr 0
	stwu 1,-104(1)
.LCFI126:
	.cfi_def_cfa_offset 104
	.cfi_register 65, 0
.LVL754:
.LBB2658:
.LBB2659:
.LBB2660:
.LBB2661:
.LBB2662:
	.loc 3 357 0
	li 9,20
	stw 9,16(1)
	.loc 3 358 0
	addi 9,1,20
.LBE2662:
.LBE2661:
.LBE2660:
.LBE2659:
.LBE2658:
	.loc 2 1137 0
	stw 0,108(1)
.LBB2720:
.LBB2678:
.LBB2673:
.LBB2668:
.LBB2663:
	.loc 3 356 0
	li 0,0
	.cfi_offset 65, 4
.LBE2663:
.LBE2668:
.LBE2673:
.LBE2678:
.LBE2720:
	.loc 2 1137 0
	stw 28,88(1)
.LBB2721:
.LBB2679:
.LBB2680:
	.loc 3 653 0
	lis 28,.LC38@ha
	.cfi_offset 28, -16
.LBE2680:
.LBE2679:
.LBE2721:
	.loc 2 1137 0
	stw 29,92(1)
.LBB2722:
.LBB2683:
.LBB2684:
	.loc 3 653 0
	lis 29,.LC37@ha
	.cfi_offset 29, -12
.LBE2684:
.LBE2683:
.LBB2687:
.LBB2674:
.LBB2669:
.LBB2664:
	.loc 3 356 0
	stw 0,8(1)
.LBE2664:
.LBE2669:
.LBE2674:
.LBE2687:
.LBB2688:
.LBB2685:
	.loc 3 653 0
	la 29,.LC37@l(29)
.LBE2685:
.LBE2688:
.LBB2689:
.LBB2675:
.LBB2670:
.LBB2665:
	.loc 3 358 0
	stw 9,12(1)
.LBE2665:
.LBE2670:
.LBE2675:
.LBE2689:
.LBB2690:
.LBB2681:
	.loc 3 653 0
	la 28,.LC38@l(28)
.LBE2681:
.LBE2690:
.LBB2691:
.LBB2676:
.LBB2671:
.LBB2666:
	.loc 3 359 0
	stb 0,20(1)
.LBE2666:
.LBE2671:
.LBE2676:
.LBE2691:
.LBE2722:
	.loc 2 1137 0
	stw 30,96(1)
	mr 30,3
	.cfi_offset 30, -8
	stw 31,100(1)
.LBB2723:
.LBB2692:
.LBB2677:
.LBB2672:
.LBB2667:
	.loc 2 1141 0
	xori 31,4,1
	.cfi_offset 31, -4
.LVL755:
.L580:
.LBE2667:
.LBE2672:
.LBE2677:
.LBE2692:
	.loc 2 1143 0
	mr 3,30
	addi 4,1,8
.LEHB88:
	bl _ZN7idLexer9ReadTokenEP7idToken
.LEHE88:
	cmpwi 7,3,0
	beq- 7,.L586
	.loc 2 1146 0
	lwz 0,40(1)
	cmpwi 7,0,5
	beq- 7,.L589
.LVL756:
.L578:
	.loc 2 1142 0
	cmpwi 7,31,0
	bne+ 7,.L580
.LBB2693:
.LBB2694:
.LBB2695:
.LBB2696:
.LBB2697:
	.loc 3 501 0
	addi 3,1,8
.LBE2697:
.LBE2696:
.LBE2695:
.LBE2694:
.LBE2693:
	.loc 2 1154 0
	li 31,1
.LVL757:
.LEHB89:
.LBB2710:
.LBB2707:
.LBB2704:
.LBB2701:
.LBB2698:
	.loc 3 501 0
	bl _ZN5idStr8FreeDataEv
.LEHE89:
.LBE2698:
.LBE2701:
.LBE2704:
.LBE2707:
.LBE2710:
.LBE2723:
	.loc 2 1155 0
	lwz 0,108(1)
	mr 3,31
	lwz 28,88(1)
	mtlr 0
	lwz 29,92(1)
	lwz 30,96(1)
.LVL758:
	lwz 31,100(1)
	addi 1,1,104
	.cfi_remember_state
.LCFI127:
	.cfi_def_cfa_offset 0
	.cfi_restore 31
	.cfi_restore 30
	.cfi_restore 29
	.cfi_restore 28
	blr
.LVL759:
.L589:
.LCFI128:
	.cfi_restore_state
.LBB2724:
.LBB2711:
.LBB2686:
	.loc 3 653 0
	lwz 3,12(1)
	mr 4,29
.LEHB90:
	bl _ZN5idStr3CmpEPKcS1_
.LBE2686:
.LBE2711:
	.loc 2 1147 0
	cmpwi 7,3,0
	bne- 7,.L579
	.loc 2 1148 0
	addi 31,31,1
.LVL760:
	b .L578
.L579:
.LVL761:
.LBB2712:
.LBB2682:
	.loc 3 653 0
	lwz 3,12(1)
	mr 4,28
	bl _ZN5idStr3CmpEPKcS1_
.LEHE90:
.LBE2682:
.LBE2712:
	.loc 2 1150 0
	cntlzw 3,3
	srwi 3,3,5
	subf 31,3,31
.LVL762:
	b .L578
.LVL763:
.L586:
.LBB2713:
.LBB2708:
.LBB2705:
.LBB2702:
.LBB2699:
	.loc 3 501 0
	addi 3,1,8
.LBE2699:
.LBE2702:
.LBE2705:
.LBE2708:
.LBE2713:
	.loc 2 1144 0
	li 31,0
.LVL764:
.LEHB91:
.LBB2714:
.LBB2709:
.LBB2706:
.LBB2703:
.LBB2700:
	.loc 3 501 0
	bl _ZN5idStr8FreeDataEv
.LEHE91:
.LBE2700:
.LBE2703:
.LBE2706:
.LBE2709:
.LBE2714:
.LBE2724:
	.loc 2 1155 0
	lwz 0,108(1)
	mr 3,31
	lwz 28,88(1)
	mtlr 0
	lwz 29,92(1)
	lwz 30,96(1)
.LVL765:
	lwz 31,100(1)
	addi 1,1,104
	.cfi_remember_state
	.cfi_restore 28
	.cfi_restore 29
	.cfi_restore 30
	.cfi_restore 31
.LCFI129:
	.cfi_def_cfa_offset 0
	blr
.LVL766:
.L587:
.LCFI130:
	.cfi_restore_state
	mr 31,3
.LVL767:
.LBB2725:
.LBB2715:
.LBB2716:
.LBB2717:
.LBB2718:
.LBB2719:
	.loc 3 501 0
	addi 3,1,8
	bl _ZN5idStr8FreeDataEv
	mr 3,31
.LEHB92:
	bl _Unwind_Resume
.LEHE92:
.LBE2719:
.LBE2718:
.LBE2717:
.LBE2716:
.LBE2715:
.LBE2725:
	.cfi_endproc
.LFE2561:
	.section	.gcc_except_table
.LLSDA2561:
	.byte	0xff
	.byte	0xff
	.byte	0x1
	.uleb128 .LLSDACSE2561-.LLSDACSB2561
.LLSDACSB2561:
	.uleb128 .LEHB88-.LFB2561
	.uleb128 .LEHE88-.LEHB88
	.uleb128 .L587-.LFB2561
	.uleb128 0
	.uleb128 .LEHB89-.LFB2561
	.uleb128 .LEHE89-.LEHB89
	.uleb128 0
	.uleb128 0
	.uleb128 .LEHB90-.LFB2561
	.uleb128 .LEHE90-.LEHB90
	.uleb128 .L587-.LFB2561
	.uleb128 0
	.uleb128 .LEHB91-.LFB2561
	.uleb128 .LEHE91-.LEHB91
	.uleb128 0
	.uleb128 0
	.uleb128 .LEHB92-.LFB2561
	.uleb128 .LEHE92-.LEHB92
	.uleb128 0
	.uleb128 0
.LLSDACSE2561:
	.section	".text"
	.size	_ZN7idLexer17SkipBracedSectionEb, .-_ZN7idLexer17SkipBracedSectionEb
	.align 2
	.globl _ZN7idLexer14SkipRestOfLineEv
	.type	_ZN7idLexer14SkipRestOfLineEv, @function
_ZN7idLexer14SkipRestOfLineEv:
.LFB2560:
	.loc 2 1116 0
	.cfi_startproc
	.cfi_personality 0,__gxx_personality_v0
	.cfi_lsda 0,.LLSDA2560
.LVL768:
	mflr 0
	stwu 1,-96(1)
.LCFI131:
	.cfi_def_cfa_offset 96
	.cfi_register 65, 0
.LVL769:
.LBB2726:
.LBB2727:
.LBB2728:
.LBB2729:
.LBB2730:
	.loc 3 357 0
	li 9,20
	stw 9,16(1)
	.loc 3 358 0
	addi 9,1,20
.LBE2730:
.LBE2729:
.LBE2728:
.LBE2727:
.LBE2726:
	.loc 2 1116 0
	stw 0,100(1)
.LBB2768:
.LBB2737:
.LBB2735:
.LBB2733:
.LBB2731:
	.loc 3 356 0
	li 0,0
	.cfi_offset 65, 4
.LBE2731:
.LBE2733:
.LBE2735:
.LBE2737:
.LBE2768:
	.loc 2 1116 0
	stw 31,92(1)
	.loc 2 1116 0
	mr 31,3
	.cfi_offset 31, -4
.LBB2769:
.LBB2738:
.LBB2736:
.LBB2734:
.LBB2732:
	.loc 3 356 0
	stw 0,8(1)
	.loc 3 358 0
	stw 9,12(1)
	.loc 3 359 0
	stb 0,20(1)
	b .L591
.LVL770:
.L593:
.LBE2732:
.LBE2734:
.LBE2736:
.LBE2738:
	.loc 2 1120 0
	lwz 0,52(1)
	cmpwi 7,0,0
	bne- 7,.L601
.L591:
	.loc 2 1119 0 discriminator 1
	mr 3,31
	addi 4,1,8
.LEHB93:
	bl _ZN7idLexer9ReadTokenEP7idToken
.LEHE93:
	cmpwi 7,3,0
	bne+ 7,.L593
.LBB2739:
.LBB2740:
.LBB2741:
.LBB2742:
.LBB2743:
	.loc 3 501 0
	addi 3,1,8
.LBE2743:
.LBE2742:
.LBE2741:
.LBE2740:
.LBE2739:
	.loc 2 1126 0
	li 31,0
.LVL771:
.LEHB94:
.LBB2756:
.LBB2753:
.LBB2750:
.LBB2747:
.LBB2744:
	.loc 3 501 0
	bl _ZN5idStr8FreeDataEv
.LBE2744:
.LBE2747:
.LBE2750:
.LBE2753:
.LBE2756:
.LBE2769:
	.loc 2 1127 0
	lwz 0,100(1)
	mr 3,31
	lwz 31,92(1)
	mtlr 0
	addi 1,1,96
	.cfi_remember_state
.LCFI132:
	.cfi_def_cfa_offset 0
	.cfi_restore 31
	blr
.LVL772:
.L601:
.LCFI133:
	.cfi_restore_state
.LBB2770:
	.loc 2 1122 0
	lwz 0,96(31)
.LBB2757:
.LBB2754:
.LBB2751:
.LBB2748:
.LBB2745:
	.loc 3 501 0
	addi 3,1,8
.LBE2745:
.LBE2748:
.LBE2751:
.LBE2754:
.LBE2757:
.LBB2758:
.LBB2759:
	.loc 2 2064 0
	lwz 9,72(31)
.LBE2759:
.LBE2758:
	.loc 2 1122 0
	stw 0,92(31)
.LBB2761:
.LBB2760:
	.loc 2 2064 0
	stw 9,40(31)
.LBE2760:
.LBE2761:
	.loc 2 1123 0
	li 31,1
.LVL773:
.LBB2762:
.LBB2755:
.LBB2752:
.LBB2749:
.LBB2746:
	.loc 3 501 0
	bl _ZN5idStr8FreeDataEv
.LEHE94:
.LBE2746:
.LBE2749:
.LBE2752:
.LBE2755:
.LBE2762:
.LBE2770:
	.loc 2 1127 0
	lwz 0,100(1)
	mr 3,31
	lwz 31,92(1)
	mtlr 0
	addi 1,1,96
	.cfi_remember_state
	.cfi_restore 31
.LCFI134:
	.cfi_def_cfa_offset 0
	blr
.LVL774:
.L599:
.LCFI135:
	.cfi_restore_state
	mr 31,3
.LVL775:
.LBB2771:
.LBB2763:
.LBB2764:
.LBB2765:
.LBB2766:
.LBB2767:
	.loc 3 501 0
	addi 3,1,8
	bl _ZN5idStr8FreeDataEv
	mr 3,31
.LEHB95:
	bl _Unwind_Resume
.LEHE95:
.LBE2767:
.LBE2766:
.LBE2765:
.LBE2764:
.LBE2763:
.LBE2771:
	.cfi_endproc
.LFE2560:
	.section	.gcc_except_table
.LLSDA2560:
	.byte	0xff
	.byte	0xff
	.byte	0x1
	.uleb128 .LLSDACSE2560-.LLSDACSB2560
.LLSDACSB2560:
	.uleb128 .LEHB93-.LFB2560
	.uleb128 .LEHE93-.LEHB93
	.uleb128 .L599-.LFB2560
	.uleb128 0
	.uleb128 .LEHB94-.LFB2560
	.uleb128 .LEHE94-.LEHB94
	.uleb128 0
	.uleb128 0
	.uleb128 .LEHB95-.LFB2560
	.uleb128 .LEHE95-.LEHB95
	.uleb128 0
	.uleb128 0
.LLSDACSE2560:
	.section	".text"
	.size	_ZN7idLexer14SkipRestOfLineEv, .-_ZN7idLexer14SkipRestOfLineEv
	.align 2
	.globl _ZN7idLexer15SkipUntilStringEPKc
	.type	_ZN7idLexer15SkipUntilStringEPKc, @function
_ZN7idLexer15SkipUntilStringEPKc:
.LFB2559:
	.loc 2 1100 0
	.cfi_startproc
	.cfi_personality 0,__gxx_personality_v0
	.cfi_lsda 0,.LLSDA2559
.LVL776:
	mflr 0
	stwu 1,-96(1)
.LCFI136:
	.cfi_def_cfa_offset 96
	.cfi_register 65, 0
.LVL777:
.LBB2772:
.LBB2773:
.LBB2774:
.LBB2775:
.LBB2776:
	.loc 3 357 0
	li 9,20
	stw 9,16(1)
	.loc 3 358 0
	addi 9,1,20
.LBE2776:
.LBE2775:
.LBE2774:
.LBE2773:
.LBE2772:
	.loc 2 1100 0
	stw 0,100(1)
.LBB2812:
.LBB2783:
.LBB2781:
.LBB2779:
.LBB2777:
	.loc 3 356 0
	li 0,0
	.cfi_offset 65, 4
.LBE2777:
.LBE2779:
.LBE2781:
.LBE2783:
.LBE2812:
	.loc 2 1100 0
	stw 30,88(1)
	mr 30,4
	.cfi_offset 30, -8
	stw 31,92(1)
	.loc 2 1100 0
	mr 31,3
	.cfi_offset 31, -4
.LBB2813:
.LBB2784:
.LBB2782:
.LBB2780:
.LBB2778:
	.loc 3 356 0
	stw 0,8(1)
	.loc 3 358 0
	stw 9,12(1)
	.loc 3 359 0
	stb 0,20(1)
	b .L603
.LVL778:
.L605:
.LBE2778:
.LBE2780:
.LBE2782:
.LBE2784:
.LBB2785:
.LBB2786:
	.loc 3 653 0
	lwz 3,12(1)
	mr 4,30
.LEHB96:
	bl _ZN5idStr3CmpEPKcS1_
.LBE2786:
.LBE2785:
	.loc 2 1104 0
	cmpwi 7,3,0
	beq- 7,.L611
.LVL779:
.L603:
	.loc 2 1103 0 discriminator 1
	mr 3,31
	addi 4,1,8
	bl _ZN7idLexer9ReadTokenEP7idToken
.LEHE96:
	cmpwi 7,3,0
	bne+ 7,.L605
.LBB2787:
.LBB2788:
.LBB2789:
.LBB2790:
.LBB2791:
	.loc 3 501 0
	addi 3,1,8
.LBE2791:
.LBE2790:
.LBE2789:
.LBE2788:
.LBE2787:
	.loc 2 1108 0
	li 31,0
.LVL780:
.LEHB97:
.LBB2804:
.LBB2801:
.LBB2798:
.LBB2795:
.LBB2792:
	.loc 3 501 0
	bl _ZN5idStr8FreeDataEv
.LBE2792:
.LBE2795:
.LBE2798:
.LBE2801:
.LBE2804:
.LBE2813:
	.loc 2 1109 0
	lwz 0,100(1)
	mr 3,31
	lwz 30,88(1)
.LVL781:
	mtlr 0
	lwz 31,92(1)
	addi 1,1,96
	.cfi_remember_state
.LCFI137:
	.cfi_def_cfa_offset 0
	.cfi_restore 31
	.cfi_restore 30
	blr
.LVL782:
.L611:
.LCFI138:
	.cfi_restore_state
.LBB2814:
.LBB2805:
.LBB2802:
.LBB2799:
.LBB2796:
.LBB2793:
	.loc 3 501 0
	addi 3,1,8
.LBE2793:
.LBE2796:
.LBE2799:
.LBE2802:
.LBE2805:
	.loc 2 1105 0
	li 31,1
.LVL783:
.LBB2806:
.LBB2803:
.LBB2800:
.LBB2797:
.LBB2794:
	.loc 3 501 0
	bl _ZN5idStr8FreeDataEv
.LEHE97:
.LBE2794:
.LBE2797:
.LBE2800:
.LBE2803:
.LBE2806:
.LBE2814:
	.loc 2 1109 0
	lwz 0,100(1)
	mr 3,31
	lwz 30,88(1)
.LVL784:
	mtlr 0
	lwz 31,92(1)
	addi 1,1,96
	.cfi_remember_state
	.cfi_restore 30
	.cfi_restore 31
.LCFI139:
	.cfi_def_cfa_offset 0
	blr
.LVL785:
.L612:
.LCFI140:
	.cfi_restore_state
	mr 31,3
.LVL786:
.LBB2815:
.LBB2807:
.LBB2808:
.LBB2809:
.LBB2810:
.LBB2811:
	.loc 3 501 0
	addi 3,1,8
	bl _ZN5idStr8FreeDataEv
	mr 3,31
.LEHB98:
	bl _Unwind_Resume
.LEHE98:
.LBE2811:
.LBE2810:
.LBE2809:
.LBE2808:
.LBE2807:
.LBE2815:
	.cfi_endproc
.LFE2559:
	.section	.gcc_except_table
.LLSDA2559:
	.byte	0xff
	.byte	0xff
	.byte	0x1
	.uleb128 .LLSDACSE2559-.LLSDACSB2559
.LLSDACSB2559:
	.uleb128 .LEHB96-.LFB2559
	.uleb128 .LEHE96-.LEHB96
	.uleb128 .L612-.LFB2559
	.uleb128 0
	.uleb128 .LEHB97-.LFB2559
	.uleb128 .LEHE97-.LEHB97
	.uleb128 0
	.uleb128 0
	.uleb128 .LEHB98-.LFB2559
	.uleb128 .LEHE98-.LEHB98
	.uleb128 0
	.uleb128 0
.LLSDACSE2559:
	.section	".text"
	.size	_ZN7idLexer15SkipUntilStringEPKc, .-_ZN7idLexer15SkipUntilStringEPKc
	.align 2
	.globl _ZN7idLexer13PeekTokenTypeEiiP7idToken
	.type	_ZN7idLexer13PeekTokenTypeEiiP7idToken, @function
_ZN7idLexer13PeekTokenTypeEiiP7idToken:
.LFB2558:
	.loc 2 1076 0
	.cfi_startproc
	.cfi_personality 0,__gxx_personality_v0
	.cfi_lsda 0,.LLSDA2558
.LVL787:
	mflr 0
	stwu 1,-104(1)
.LCFI141:
	.cfi_def_cfa_offset 104
	.cfi_register 65, 0
.LVL788:
.LBB2839:
.LBB2840:
.LBB2841:
.LBB2842:
.LBB2843:
	.loc 3 357 0
	li 9,20
.LBE2843:
.LBE2842:
.LBE2841:
.LBE2840:
.LBE2839:
	.loc 2 1076 0
	stw 30,96(1)
	mr 30,4
	.cfi_offset 30, -8
	stw 0,108(1)
.LBB2890:
	.loc 2 1079 0
	addi 4,1,8
.LVL789:
.LBB2850:
.LBB2848:
.LBB2846:
.LBB2844:
	.loc 3 356 0
	li 0,0
	.cfi_offset 65, 4
	.loc 3 357 0
	stw 9,16(1)
	.loc 3 358 0
	addi 9,1,20
.LBE2844:
.LBE2846:
.LBE2848:
.LBE2850:
.LBE2890:
	.loc 2 1076 0
	stw 28,88(1)
	stw 29,92(1)
	mr 28,6
	.cfi_offset 29, -12
	.cfi_offset 28, -16
	stw 31,100(1)
	.loc 2 1076 0
	mr 29,5
	mr 31,3
	.cfi_offset 31, -4
.LBB2891:
.LBB2851:
.LBB2849:
.LBB2847:
.LBB2845:
	.loc 3 356 0
	stw 0,8(1)
	.loc 3 358 0
	stw 9,12(1)
	.loc 3 359 0
	stb 0,20(1)
.LEHB99:
.LBE2845:
.LBE2847:
.LBE2849:
.LBE2851:
	.loc 2 1079 0
	bl _ZN7idLexer9ReadTokenEP7idToken
.LEHE99:
.LVL790:
	cmpwi 7,3,0
	beq- 7,.L621
.LVL791:
	.loc 2 1088 0
	lwz 0,40(1)
.LBB2852:
.LBB2853:
	.loc 2 2064 0
	lwz 9,72(31)
.LBE2853:
.LBE2852:
	.loc 2 1088 0
	cmpw 7,0,30
	.loc 2 1085 0
	lwz 0,96(31)
.LBB2855:
.LBB2854:
	.loc 2 2064 0
	stw 9,40(31)
.LBE2854:
.LBE2855:
	.loc 2 1092 0
	li 30,0
.LVL792:
	.loc 2 1085 0
	stw 0,92(31)
	.loc 2 1088 0
	beq- 7,.L625
.LVL793:
.L614:
.LBB2856:
.LBB2857:
.LBB2858:
.LBB2859:
.LBB2860:
	.loc 3 501 0
	addi 3,1,8
.LEHB100:
	bl _ZN5idStr8FreeDataEv
.LBE2860:
.LBE2859:
.LBE2858:
.LBE2857:
.LBE2856:
.LBE2891:
	.loc 2 1093 0
	lwz 0,108(1)
	mr 3,30
	lwz 28,88(1)
.LVL794:
	mtlr 0
	lwz 29,92(1)
.LVL795:
	lwz 30,96(1)
	lwz 31,100(1)
	addi 1,1,104
	.cfi_remember_state
.LCFI142:
	.cfi_def_cfa_offset 0
	.cfi_restore 31
	.cfi_restore 30
	.cfi_restore 29
	.cfi_restore 28
	blr
.LVL796:
.L621:
.LCFI143:
	.cfi_restore_state
.LBB2892:
.LBB2869:
.LBB2867:
.LBB2865:
.LBB2863:
.LBB2861:
	.loc 3 501 0
	addi 3,1,8
.LBE2861:
.LBE2863:
.LBE2865:
.LBE2867:
.LBE2869:
	.loc 2 1080 0
	li 30,0
.LVL797:
.LBB2870:
.LBB2868:
.LBB2866:
.LBB2864:
.LBB2862:
	.loc 3 501 0
	bl _ZN5idStr8FreeDataEv
.LEHE100:
.LBE2862:
.LBE2864:
.LBE2866:
.LBE2868:
.LBE2870:
.LBE2892:
	.loc 2 1093 0
	lwz 0,108(1)
	mr 3,30
	lwz 28,88(1)
.LVL798:
	mtlr 0
	lwz 29,92(1)
.LVL799:
	lwz 30,96(1)
	lwz 31,100(1)
.LVL800:
	addi 1,1,104
	.cfi_remember_state
	.cfi_restore 28
	.cfi_restore 29
	.cfi_restore 30
	.cfi_restore 31
.LCFI144:
	.cfi_def_cfa_offset 0
	blr
.LVL801:
.L625:
.LCFI145:
	.cfi_restore_state
.LBB2893:
	.loc 2 1088 0 discriminator 1
	lwz 0,44(1)
	and 0,29,0
	cmpw 7,0,29
	bne+ 7,.L614
.LVL802:
.LBB2871:
.LBB2872:
.LBB2873:
	.loc 2 2091 0
	lwz 31,8(1)
.LVL803:
.LBB2874:
.LBB2875:
.LBB2876:
	.loc 3 350 0
	lwz 0,8(28)
.LBE2876:
.LBE2875:
	.loc 3 534 0
	addi 4,31,1
.LVL804:
.LBB2879:
.LBB2877:
	.loc 3 350 0
	cmpw 7,4,0
	bgt- 7,.L626
.LVL805:
.L615:
.LBE2877:
.LBE2879:
	.loc 3 535 0
	lwz 3,4(28)
	mr 5,31
	lwz 4,12(1)
.LBE2874:
.LBE2873:
	.loc 2 1090 0
	li 30,1
.LBB2883:
.LBB2881:
	.loc 3 535 0
	bl memcpy
	.loc 3 536 0
	lwz 9,4(28)
	li 0,0
	stbx 0,9,31
	.loc 3 537 0
	stw 31,0(28)
.LBE2881:
.LBE2883:
	.loc 4 71 0
	lwz 0,40(1)
	lfd 0,64(1)
	stw 0,32(28)
	lwz 0,44(1)
	stfd 0,56(28)
	stw 0,36(28)
	lwz 0,48(1)
	stw 0,40(28)
	lwz 0,52(1)
	stw 0,44(28)
	lwz 0,56(1)
	stw 0,48(28)
	lwz 0,60(1)
	stw 0,52(28)
	lwz 0,72(1)
	stw 0,64(28)
	lwz 0,76(1)
	stw 0,68(28)
	lwz 0,80(1)
	stw 0,72(28)
	b .L614
.LVL806:
.L626:
.LBB2884:
.LBB2882:
.LBB2880:
.LBB2878:
	.loc 3 351 0
	mr 3,28
	li 5,0
.LEHB101:
	bl _ZN5idStr10ReAllocateEib
.LEHE101:
.LVL807:
	b .L615
.LVL808:
.L624:
	mr 31,3
.LVL809:
.LBE2878:
.LBE2880:
.LBE2882:
.LBE2884:
.LBE2872:
.LBE2871:
.LBB2885:
.LBB2886:
.LBB2887:
.LBB2888:
.LBB2889:
	.loc 3 501 0
	addi 3,1,8
	bl _ZN5idStr8FreeDataEv
	mr 3,31
.LEHB102:
	bl _Unwind_Resume
.LEHE102:
.LBE2889:
.LBE2888:
.LBE2887:
.LBE2886:
.LBE2885:
.LBE2893:
	.cfi_endproc
.LFE2558:
	.section	.gcc_except_table
.LLSDA2558:
	.byte	0xff
	.byte	0xff
	.byte	0x1
	.uleb128 .LLSDACSE2558-.LLSDACSB2558
.LLSDACSB2558:
	.uleb128 .LEHB99-.LFB2558
	.uleb128 .LEHE99-.LEHB99
	.uleb128 .L624-.LFB2558
	.uleb128 0
	.uleb128 .LEHB100-.LFB2558
	.uleb128 .LEHE100-.LEHB100
	.uleb128 0
	.uleb128 0
	.uleb128 .LEHB101-.LFB2558
	.uleb128 .LEHE101-.LEHB101
	.uleb128 .L624-.LFB2558
	.uleb128 0
	.uleb128 .LEHB102-.LFB2558
	.uleb128 .LEHE102-.LEHB102
	.uleb128 0
	.uleb128 0
.LLSDACSE2558:
	.section	".text"
	.size	_ZN7idLexer13PeekTokenTypeEiiP7idToken, .-_ZN7idLexer13PeekTokenTypeEiiP7idToken
	.align 2
	.globl _ZN7idLexer15PeekTokenStringEPKc
	.type	_ZN7idLexer15PeekTokenStringEPKc, @function
_ZN7idLexer15PeekTokenStringEPKc:
.LFB2557:
	.loc 2 1053 0
	.cfi_startproc
	.cfi_personality 0,__gxx_personality_v0
	.cfi_lsda 0,.LLSDA2557
.LVL810:
	mflr 0
	stwu 1,-104(1)
.LCFI146:
	.cfi_def_cfa_offset 104
	.cfi_register 65, 0
.LVL811:
.LBB2894:
.LBB2895:
.LBB2896:
.LBB2897:
.LBB2898:
	.loc 3 357 0
	li 9,20
.LBE2898:
.LBE2897:
.LBE2896:
.LBE2895:
.LBE2894:
	.loc 2 1053 0
	stw 30,96(1)
	mr 30,4
	.cfi_offset 30, -8
	stw 0,108(1)
.LBB2925:
	.loc 2 1056 0
	addi 4,1,8
.LVL812:
.LBB2905:
.LBB2903:
.LBB2901:
.LBB2899:
	.loc 3 356 0
	li 0,0
	.cfi_offset 65, 4
	.loc 3 357 0
	stw 9,16(1)
	.loc 3 358 0
	addi 9,1,20
.LBE2899:
.LBE2901:
.LBE2903:
.LBE2905:
.LBE2925:
	.loc 2 1053 0
	stw 31,100(1)
	stw 29,92(1)
	.loc 2 1053 0
	mr 31,3
	.cfi_offset 29, -12
	.cfi_offset 31, -4
.LBB2926:
.LBB2906:
.LBB2904:
.LBB2902:
.LBB2900:
	.loc 3 356 0
	stw 0,8(1)
	.loc 3 358 0
	stw 9,12(1)
	.loc 3 359 0
	stb 0,20(1)
.LEHB103:
.LBE2900:
.LBE2902:
.LBE2904:
.LBE2906:
	.loc 2 1056 0
	bl _ZN7idLexer9ReadTokenEP7idToken
.LVL813:
	cmpwi 7,3,0
	.loc 2 1057 0
	li 29,0
	.loc 2 1056 0
	beq- 7,.L628
.LVL814:
.LBB2907:
.LBB2908:
	.loc 2 2064 0
	lwz 9,72(31)
.LBE2908:
.LBE2907:
.LBB2910:
.LBB2911:
	.loc 3 653 0
	mr 4,30
.LBE2911:
.LBE2910:
	.loc 2 1062 0
	lwz 0,96(31)
.LBB2913:
.LBB2909:
	.loc 2 2064 0
	stw 9,40(31)
.LBE2909:
.LBE2913:
	.loc 2 1062 0
	stw 0,92(31)
.LVL815:
.LBB2914:
.LBB2912:
	.loc 3 653 0
	lwz 3,12(1)
	bl _ZN5idStr3CmpEPKcS1_
.LEHE103:
.LBE2912:
.LBE2914:
	.loc 2 1066 0
	cntlzw 29,3
	srwi 29,29,5
.LVL816:
.L628:
.LBB2915:
.LBB2916:
.LBB2917:
.LBB2918:
.LBB2919:
	.loc 3 501 0
	addi 3,1,8
.LEHB104:
	bl _ZN5idStr8FreeDataEv
.LEHE104:
.LBE2919:
.LBE2918:
.LBE2917:
.LBE2916:
.LBE2915:
.LBE2926:
	.loc 2 1069 0
	lwz 0,108(1)
	mr 3,29
	lwz 30,96(1)
.LVL817:
	mtlr 0
	lwz 29,92(1)
	lwz 31,100(1)
.LVL818:
	addi 1,1,104
	.cfi_remember_state
.LCFI147:
	.cfi_def_cfa_offset 0
	.cfi_restore 31
	.cfi_restore 30
	.cfi_restore 29
	blr
.LVL819:
.L636:
.LCFI148:
	.cfi_restore_state
	mr 31,3
.LVL820:
.LBB2927:
.LBB2920:
.LBB2921:
.LBB2922:
.LBB2923:
.LBB2924:
	.loc 3 501 0
	addi 3,1,8
	bl _ZN5idStr8FreeDataEv
	mr 3,31
.LEHB105:
	bl _Unwind_Resume
.LEHE105:
.LBE2924:
.LBE2923:
.LBE2922:
.LBE2921:
.LBE2920:
.LBE2927:
	.cfi_endproc
.LFE2557:
	.section	.gcc_except_table
.LLSDA2557:
	.byte	0xff
	.byte	0xff
	.byte	0x1
	.uleb128 .LLSDACSE2557-.LLSDACSB2557
.LLSDACSB2557:
	.uleb128 .LEHB103-.LFB2557
	.uleb128 .LEHE103-.LEHB103
	.uleb128 .L636-.LFB2557
	.uleb128 0
	.uleb128 .LEHB104-.LFB2557
	.uleb128 .LEHE104-.LEHB104
	.uleb128 0
	.uleb128 0
	.uleb128 .LEHB105-.LFB2557
	.uleb128 .LEHE105-.LEHB105
	.uleb128 0
	.uleb128 0
.LLSDACSE2557:
	.section	".text"
	.size	_ZN7idLexer15PeekTokenStringEPKc, .-_ZN7idLexer15PeekTokenStringEPKc
	.align 2
	.globl _ZN7idLexer14CheckTokenTypeEiiP7idToken
	.type	_ZN7idLexer14CheckTokenTypeEiiP7idToken, @function
_ZN7idLexer14CheckTokenTypeEiiP7idToken:
.LFB2556:
	.loc 2 1031 0
	.cfi_startproc
	.cfi_personality 0,__gxx_personality_v0
	.cfi_lsda 0,.LLSDA2556
.LVL821:
	mflr 0
	stwu 1,-104(1)
.LCFI149:
	.cfi_def_cfa_offset 104
	.cfi_register 65, 0
.LVL822:
.LBB2951:
.LBB2952:
.LBB2953:
.LBB2954:
.LBB2955:
	.loc 3 357 0
	li 9,20
.LBE2955:
.LBE2954:
.LBE2953:
.LBE2952:
.LBE2951:
	.loc 2 1031 0
	stw 30,96(1)
	mr 30,4
	.cfi_offset 30, -8
	stw 0,108(1)
.LBB3002:
	.loc 2 1034 0
	addi 4,1,8
.LVL823:
.LBB2962:
.LBB2960:
.LBB2958:
.LBB2956:
	.loc 3 356 0
	li 0,0
	.cfi_offset 65, 4
	.loc 3 357 0
	stw 9,16(1)
	.loc 3 358 0
	addi 9,1,20
.LBE2956:
.LBE2958:
.LBE2960:
.LBE2962:
.LBE3002:
	.loc 2 1031 0
	stw 28,88(1)
	stw 29,92(1)
	mr 28,6
	.cfi_offset 29, -12
	.cfi_offset 28, -16
	stw 31,100(1)
	.loc 2 1031 0
	mr 29,5
	mr 31,3
	.cfi_offset 31, -4
.LBB3003:
.LBB2963:
.LBB2961:
.LBB2959:
.LBB2957:
	.loc 3 356 0
	stw 0,8(1)
	.loc 3 358 0
	stw 9,12(1)
	.loc 3 359 0
	stb 0,20(1)
.LEHB106:
.LBE2957:
.LBE2959:
.LBE2961:
.LBE2963:
	.loc 2 1034 0
	bl _ZN7idLexer9ReadTokenEP7idToken
.LEHE106:
.LVL824:
	cmpwi 7,3,0
	beq- 7,.L646
	.loc 2 1038 0
	lwz 0,40(1)
	cmpw 7,0,30
	beq- 7,.L648
.L639:
.LVL825:
.LBB2964:
.LBB2965:
	.loc 2 2064 0
	lwz 9,72(31)
.LBE2965:
.LBE2964:
	.loc 2 1045 0
	li 30,0
.LVL826:
	.loc 2 1044 0
	lwz 0,96(31)
.LBB2967:
.LBB2966:
	.loc 2 2064 0
	stw 9,40(31)
.LBE2966:
.LBE2967:
	.loc 2 1044 0
	stw 0,92(31)
.LVL827:
.L638:
.LBB2968:
.LBB2969:
.LBB2970:
.LBB2971:
.LBB2972:
	.loc 3 501 0
	addi 3,1,8
.LEHB107:
	bl _ZN5idStr8FreeDataEv
.LBE2972:
.LBE2971:
.LBE2970:
.LBE2969:
.LBE2968:
.LBE3003:
	.loc 2 1046 0
	lwz 0,108(1)
	mr 3,30
	lwz 28,88(1)
.LVL828:
	mtlr 0
	lwz 29,92(1)
.LVL829:
	lwz 30,96(1)
	lwz 31,100(1)
	addi 1,1,104
	.cfi_remember_state
.LCFI150:
	.cfi_def_cfa_offset 0
	.cfi_restore 31
	.cfi_restore 30
	.cfi_restore 29
	.cfi_restore 28
	blr
.LVL830:
.L646:
.LCFI151:
	.cfi_restore_state
.LBB3004:
.LBB2981:
.LBB2979:
.LBB2977:
.LBB2975:
.LBB2973:
	.loc 3 501 0
	addi 3,1,8
.LBE2973:
.LBE2975:
.LBE2977:
.LBE2979:
.LBE2981:
	.loc 2 1035 0
	li 30,0
.LVL831:
.LBB2982:
.LBB2980:
.LBB2978:
.LBB2976:
.LBB2974:
	.loc 3 501 0
	bl _ZN5idStr8FreeDataEv
.LEHE107:
.LBE2974:
.LBE2976:
.LBE2978:
.LBE2980:
.LBE2982:
.LBE3004:
	.loc 2 1046 0
	lwz 0,108(1)
	mr 3,30
	lwz 28,88(1)
.LVL832:
	mtlr 0
	lwz 29,92(1)
.LVL833:
	lwz 30,96(1)
	lwz 31,100(1)
.LVL834:
	addi 1,1,104
	.cfi_remember_state
	.cfi_restore 28
	.cfi_restore 29
	.cfi_restore 30
	.cfi_restore 31
.LCFI152:
	.cfi_def_cfa_offset 0
	blr
.LVL835:
.L648:
.LCFI153:
	.cfi_restore_state
.LBB3005:
	.loc 2 1038 0 discriminator 1
	lwz 0,44(1)
	and 0,29,0
	cmpw 7,0,29
	bne+ 7,.L639
.LVL836:
.LBB2983:
.LBB2984:
.LBB2985:
	.loc 2 2091 0
	lwz 31,8(1)
.LVL837:
.LBB2986:
.LBB2987:
.LBB2988:
	.loc 3 350 0
	lwz 0,8(28)
.LBE2988:
.LBE2987:
	.loc 3 534 0
	addi 4,31,1
.LVL838:
.LBB2991:
.LBB2989:
	.loc 3 350 0
	cmpw 7,4,0
	bgt- 7,.L649
.LVL839:
.L640:
.LBE2989:
.LBE2991:
	.loc 3 535 0
	lwz 3,4(28)
	mr 5,31
	lwz 4,12(1)
.LBE2986:
.LBE2985:
	.loc 2 1040 0
	li 30,1
.LVL840:
.LBB2995:
.LBB2993:
	.loc 3 535 0
	bl memcpy
	.loc 3 536 0
	lwz 9,4(28)
	li 0,0
	stbx 0,9,31
	.loc 3 537 0
	stw 31,0(28)
.LBE2993:
.LBE2995:
	.loc 4 71 0
	lwz 0,40(1)
	lfd 0,64(1)
	stw 0,32(28)
	lwz 0,44(1)
	stfd 0,56(28)
	stw 0,36(28)
	lwz 0,48(1)
	stw 0,40(28)
	lwz 0,52(1)
	stw 0,44(28)
	lwz 0,56(1)
	stw 0,48(28)
	lwz 0,60(1)
	stw 0,52(28)
	lwz 0,72(1)
	stw 0,64(28)
	lwz 0,76(1)
	stw 0,68(28)
	lwz 0,80(1)
	stw 0,72(28)
	b .L638
.LVL841:
.L649:
.LBB2996:
.LBB2994:
.LBB2992:
.LBB2990:
	.loc 3 351 0
	mr 3,28
	li 5,0
.LEHB108:
	bl _ZN5idStr10ReAllocateEib
.LEHE108:
.LVL842:
	b .L640
.LVL843:
.L647:
	mr 31,3
.LVL844:
.LBE2990:
.LBE2992:
.LBE2994:
.LBE2996:
.LBE2984:
.LBE2983:
.LBB2997:
.LBB2998:
.LBB2999:
.LBB3000:
.LBB3001:
	.loc 3 501 0
	addi 3,1,8
	bl _ZN5idStr8FreeDataEv
	mr 3,31
.LEHB109:
	bl _Unwind_Resume
.LEHE109:
.LBE3001:
.LBE3000:
.LBE2999:
.LBE2998:
.LBE2997:
.LBE3005:
	.cfi_endproc
.LFE2556:
	.section	.gcc_except_table
.LLSDA2556:
	.byte	0xff
	.byte	0xff
	.byte	0x1
	.uleb128 .LLSDACSE2556-.LLSDACSB2556
.LLSDACSB2556:
	.uleb128 .LEHB106-.LFB2556
	.uleb128 .LEHE106-.LEHB106
	.uleb128 .L647-.LFB2556
	.uleb128 0
	.uleb128 .LEHB107-.LFB2556
	.uleb128 .LEHE107-.LEHB107
	.uleb128 0
	.uleb128 0
	.uleb128 .LEHB108-.LFB2556
	.uleb128 .LEHE108-.LEHB108
	.uleb128 .L647-.LFB2556
	.uleb128 0
	.uleb128 .LEHB109-.LFB2556
	.uleb128 .LEHE109-.LEHB109
	.uleb128 0
	.uleb128 0
.LLSDACSE2556:
	.section	".text"
	.size	_ZN7idLexer14CheckTokenTypeEiiP7idToken, .-_ZN7idLexer14CheckTokenTypeEiiP7idToken
	.align 2
	.globl _ZN7idLexer16CheckTokenStringEPKc
	.type	_ZN7idLexer16CheckTokenStringEPKc, @function
_ZN7idLexer16CheckTokenStringEPKc:
.LFB2555:
	.loc 2 1010 0
	.cfi_startproc
	.cfi_personality 0,__gxx_personality_v0
	.cfi_lsda 0,.LLSDA2555
.LVL845:
	mflr 0
	stwu 1,-104(1)
.LCFI154:
	.cfi_def_cfa_offset 104
	.cfi_register 65, 0
.LVL846:
.LBB3006:
.LBB3007:
.LBB3008:
.LBB3009:
.LBB3010:
	.loc 3 357 0
	li 9,20
.LBE3010:
.LBE3009:
.LBE3008:
.LBE3007:
.LBE3006:
	.loc 2 1010 0
	stw 30,96(1)
	mr 30,4
	.cfi_offset 30, -8
	stw 0,108(1)
.LBB3045:
	.loc 2 1013 0
	addi 4,1,8
.LVL847:
.LBB3017:
.LBB3015:
.LBB3013:
.LBB3011:
	.loc 3 356 0
	li 0,0
	.cfi_offset 65, 4
	.loc 3 357 0
	stw 9,16(1)
	.loc 3 358 0
	addi 9,1,20
.LBE3011:
.LBE3013:
.LBE3015:
.LBE3017:
.LBE3045:
	.loc 2 1010 0
	stw 31,100(1)
	stw 29,92(1)
	.loc 2 1010 0
	mr 31,3
	.cfi_offset 29, -12
	.cfi_offset 31, -4
.LBB3046:
.LBB3018:
.LBB3016:
.LBB3014:
.LBB3012:
	.loc 3 356 0
	stw 0,8(1)
	.loc 3 358 0
	stw 9,12(1)
	.loc 3 359 0
	stb 0,20(1)
.LEHB110:
.LBE3012:
.LBE3014:
.LBE3016:
.LBE3018:
	.loc 2 1013 0
	bl _ZN7idLexer9ReadTokenEP7idToken
.LVL848:
	cmpwi 7,3,0
	.loc 2 1014 0
	li 29,0
	.loc 2 1013 0
	beq- 7,.L651
.LVL849:
.LBB3019:
.LBB3020:
	.loc 3 653 0
	lwz 3,12(1)
	mr 4,30
	bl _ZN5idStr3CmpEPKcS1_
.LEHE110:
.LBE3020:
.LBE3019:
	.loc 2 1017 0
	cmpwi 7,3,0
	.loc 2 1018 0
	li 29,1
	.loc 2 1017 0
	bne- 7,.L660
.LVL850:
.L651:
.LBB3021:
.LBB3022:
.LBB3023:
.LBB3024:
.LBB3025:
	.loc 3 501 0
	addi 3,1,8
.LEHB111:
	bl _ZN5idStr8FreeDataEv
.LBE3025:
.LBE3024:
.LBE3023:
.LBE3022:
.LBE3021:
.LBE3046:
	.loc 2 1024 0
	lwz 0,108(1)
	mr 3,29
	lwz 30,96(1)
.LVL851:
	mtlr 0
	lwz 29,92(1)
	lwz 31,100(1)
.LVL852:
	addi 1,1,104
	.cfi_remember_state
.LCFI155:
	.cfi_def_cfa_offset 0
	.cfi_restore 31
	.cfi_restore 30
	.cfi_restore 29
	blr
.LVL853:
.L660:
.LCFI156:
	.cfi_restore_state
.LBB3047:
	.loc 2 1022 0
	lwz 0,96(31)
.LBB3034:
.LBB3032:
.LBB3030:
.LBB3028:
.LBB3026:
	.loc 3 501 0
	addi 3,1,8
.LBE3026:
.LBE3028:
.LBE3030:
.LBE3032:
.LBE3034:
.LBB3035:
.LBB3036:
	.loc 2 2064 0
	lwz 9,72(31)
.LBE3036:
.LBE3035:
	.loc 2 1023 0
	li 29,0
.LVL854:
	.loc 2 1022 0
	stw 0,92(31)
.LBB3038:
.LBB3037:
	.loc 2 2064 0
	stw 9,40(31)
.LBE3037:
.LBE3038:
.LBB3039:
.LBB3033:
.LBB3031:
.LBB3029:
.LBB3027:
	.loc 3 501 0
	bl _ZN5idStr8FreeDataEv
.LEHE111:
.LBE3027:
.LBE3029:
.LBE3031:
.LBE3033:
.LBE3039:
.LBE3047:
	.loc 2 1024 0
	lwz 0,108(1)
	mr 3,29
	lwz 30,96(1)
.LVL855:
	mtlr 0
	lwz 29,92(1)
	lwz 31,100(1)
.LVL856:
	addi 1,1,104
	.cfi_remember_state
	.cfi_restore 29
	.cfi_restore 30
	.cfi_restore 31
.LCFI157:
	.cfi_def_cfa_offset 0
	blr
.LVL857:
.L659:
.LCFI158:
	.cfi_restore_state
	mr 31,3
.LVL858:
.LBB3048:
.LBB3040:
.LBB3041:
.LBB3042:
.LBB3043:
.LBB3044:
	.loc 3 501 0
	addi 3,1,8
	bl _ZN5idStr8FreeDataEv
	mr 3,31
.LEHB112:
	bl _Unwind_Resume
.LEHE112:
.LBE3044:
.LBE3043:
.LBE3042:
.LBE3041:
.LBE3040:
.LBE3048:
	.cfi_endproc
.LFE2555:
	.section	.gcc_except_table
.LLSDA2555:
	.byte	0xff
	.byte	0xff
	.byte	0x1
	.uleb128 .LLSDACSE2555-.LLSDACSB2555
.LLSDACSB2555:
	.uleb128 .LEHB110-.LFB2555
	.uleb128 .LEHE110-.LEHB110
	.uleb128 .L659-.LFB2555
	.uleb128 0
	.uleb128 .LEHB111-.LFB2555
	.uleb128 .LEHE111-.LEHB111
	.uleb128 0
	.uleb128 0
	.uleb128 .LEHB112-.LFB2555
	.uleb128 .LEHE112-.LEHB112
	.uleb128 0
	.uleb128 0
.LLSDACSE2555:
	.section	".text"
	.size	_ZN7idLexer16CheckTokenStringEPKc, .-_ZN7idLexer16CheckTokenStringEPKc
	.align 2
	.globl _ZN7idLexer14ExpectAnyTokenEP7idToken
	.type	_ZN7idLexer14ExpectAnyTokenEP7idToken, @function
_ZN7idLexer14ExpectAnyTokenEP7idToken:
.LFB2554:
	.loc 2 995 0
	.cfi_startproc
.LVL859:
	mflr 0
	stwu 1,-16(1)
.LCFI159:
	.cfi_def_cfa_offset 16
	.cfi_register 65, 0
	stw 31,12(1)
	mr 31,3
	.cfi_offset 31, -4
	stw 0,20(1)
	.loc 2 996 0
	.cfi_offset 65, 4
	bl _ZN7idLexer9ReadTokenEP7idToken
.LVL860:
	cmpwi 7,3,0
	.loc 2 1001 0
	li 3,1
	.loc 2 996 0
	bne+ 7,.L662
	.loc 2 997 0
	lis 4,.LC39@ha
	mr 3,31
	la 4,.LC39@l(4)
	crxor 6,6,6
	bl _ZN7idLexer5ErrorEPKcz
	.loc 2 998 0
	li 3,0
.L662:
	.loc 2 1003 0
	lwz 0,20(1)
	lwz 31,12(1)
.LVL861:
	mtlr 0
	addi 1,1,16
.LCFI160:
	.cfi_def_cfa_offset 0
	.cfi_restore 31
	blr
	.cfi_endproc
.LFE2554:
	.size	_ZN7idLexer14ExpectAnyTokenEP7idToken, .-_ZN7idLexer14ExpectAnyTokenEP7idToken
	.align 2
	.globl _ZN7idLexer15ExpectTokenTypeEiiP7idToken
	.type	_ZN7idLexer15ExpectTokenTypeEiiP7idToken, @function
_ZN7idLexer15ExpectTokenTypeEiiP7idToken:
.LFB2553:
	.loc 2 941 0
	.cfi_startproc
	.cfi_personality 0,__gxx_personality_v0
	.cfi_lsda 0,.LLSDA2553
.LVL862:
	mflr 0
	stwu 1,-64(1)
.LCFI161:
	.cfi_def_cfa_offset 64
	.cfi_register 65, 0
.LVL863:
.LBB3091:
.LBB3092:
.LBB3093:
.LBB3094:
	.loc 3 357 0
	li 9,20
.LBE3094:
.LBE3093:
.LBE3092:
.LBE3091:
	.loc 2 941 0
	stw 28,48(1)
.LBB3199:
.LBB3101:
.LBB3098:
.LBB3095:
	.loc 3 358 0
	addi 28,1,20
	.cfi_offset 28, -16
.LBE3095:
.LBE3098:
.LBE3101:
.LBE3199:
	.loc 2 941 0
	stw 0,68(1)
.LBB3200:
.LBB3102:
.LBB3099:
.LBB3096:
	.loc 3 356 0
	li 0,0
	.cfi_offset 65, 4
.LBE3096:
.LBE3099:
.LBE3102:
.LBE3200:
	.loc 2 941 0
	stw 29,52(1)
	mr 29,4
	.cfi_offset 29, -12
.LBB3201:
	.loc 2 944 0
	mr 4,6
.LVL864:
.LBE3201:
	.loc 2 941 0
	stw 26,40(1)
	stw 27,44(1)
	mr 26,5
	.cfi_offset 27, -20
	.cfi_offset 26, -24
	stw 30,56(1)
	mr 27,3
	stw 31,60(1)
	.loc 2 941 0
	mr 30,6
	.cfi_offset 31, -4
	.cfi_offset 30, -8
.LBB3202:
.LBB3103:
.LBB3100:
.LBB3097:
	.loc 3 356 0
	stw 0,8(1)
	addi 31,1,8
	.loc 3 357 0
	stw 9,16(1)
	.loc 3 358 0
	stw 28,12(1)
	.loc 3 359 0
	stb 0,20(1)
.LEHB113:
.LBE3097:
.LBE3100:
.LBE3103:
	.loc 2 944 0
	bl _ZN7idLexer9ReadTokenEP7idToken
.LVL865:
	cmpwi 7,3,0
	beq- 7,.L717
	.loc 2 949 0
	lwz 0,32(30)
	cmpw 7,0,29
	beq- 7,.L667
	.loc 2 950 0
	cmplwi 7,29,5
	.loc 2 956 0
	addi 31,1,8
	mr 3,31
	.loc 2 950 0
	ble- 7,.L718
.LVL866:
.L668:
	.loc 2 956 0
	lis 4,.LC45@ha
	la 4,.LC45@l(4)
	bl _ZN5idStraSEPKc
.L675:
	.loc 2 958 0
	lis 4,.LC46@ha
	lwz 5,12(1)
	lwz 6,4(30)
	mr 3,27
	la 4,.LC46@l(4)
	crxor 6,6,6
	bl _ZN7idLexer5ErrorEPKcz
.LEHE113:
	.loc 2 974 0
	li 29,0
.L729:
.LVL867:
.LBB3104:
.LBB3105:
.LBB3106:
	.loc 3 501 0
	mr 3,31
.LEHB114:
	bl _ZN5idStr8FreeDataEv
.LEHE114:
.LBE3106:
.LBE3105:
.LBE3104:
.LBE3202:
	.loc 2 988 0
	lwz 0,68(1)
	mr 3,29
	lwz 26,40(1)
.LVL868:
	mtlr 0
	lwz 27,44(1)
.LVL869:
	lwz 28,48(1)
	lwz 29,52(1)
	lwz 30,56(1)
.LVL870:
	lwz 31,60(1)
	addi 1,1,64
	.cfi_remember_state
	.cfi_restore 26
	.cfi_restore 27
	.cfi_restore 28
	.cfi_restore 29
	.cfi_restore 30
	.cfi_restore 31
.LCFI162:
	.cfi_def_cfa_offset 0
	blr
.LVL871:
.L718:
.LCFI163:
	.cfi_restore_state
.LBB3203:
	.loc 2 950 0
	lis 9,.L674@ha
	slwi 29,29,2
.LVL872:
	la 9,.L674@l(9)
	lwzx 0,9,29
	add 9,0,9
	mtctr 9
	bctr
	.section	.rodata
	.align 2
	.align 2
.L674:
	.long .L668-.L674
	.long .L669-.L674
	.long .L670-.L674
	.long .L671-.L674
	.long .L672-.L674
	.long .L673-.L674
	.section	".text"
.LVL873:
.L717:
	.loc 2 945 0
	lis 4,.LC39@ha
	mr 3,27
	la 4,.LC39@l(4)
	addi 31,1,8
.LEHB115:
	crxor 6,6,6
	bl _ZN7idLexer5ErrorEPKcz
.LEHE115:
.LVL874:
.L716:
	.loc 2 980 0
	li 29,0
	addi 31,1,8
.L666:
.LVL875:
.LBB3109:
.LBB3108:
.LBB3107:
	.loc 3 501 0
	mr 3,31
.LEHB116:
	bl _ZN5idStr8FreeDataEv
.LEHE116:
.LBE3107:
.LBE3108:
.LBE3109:
.LBE3203:
	.loc 2 988 0
	lwz 0,68(1)
	mr 3,29
	lwz 26,40(1)
.LVL876:
	mtlr 0
	lwz 27,44(1)
.LVL877:
	lwz 28,48(1)
	lwz 29,52(1)
	lwz 30,56(1)
.LVL878:
	lwz 31,60(1)
	addi 1,1,64
	.cfi_remember_state
.LCFI164:
	.cfi_def_cfa_offset 0
	.cfi_restore 31
	.cfi_restore 30
	.cfi_restore 29
	.cfi_restore 28
	.cfi_restore 27
	.cfi_restore 26
	blr
.LVL879:
.L673:
.LCFI165:
	.cfi_restore_state
.LBB3204:
	.loc 2 955 0
	lis 4,.LC44@ha
	la 4,.LC44@l(4)
.LEHB117:
	bl _ZN5idStraSEPKc
	b .L675
.L672:
	.loc 2 954 0
	lis 4,.LC43@ha
	la 4,.LC43@l(4)
	bl _ZN5idStraSEPKc
	b .L675
.L671:
	.loc 2 953 0
	lis 4,.LC42@ha
	la 4,.LC42@l(4)
	bl _ZN5idStraSEPKc
	b .L675
.L670:
	.loc 2 952 0
	lis 4,.LC41@ha
	la 4,.LC41@l(4)
	bl _ZN5idStraSEPKc
	b .L675
.L669:
	.loc 2 951 0
	lis 4,.LC40@ha
	la 4,.LC40@l(4)
	bl _ZN5idStraSEPKc
	b .L675
.LVL880:
.L667:
	.loc 2 961 0
	cmpwi 7,29,3
	beq- 7,.L719
	.loc 2 977 0
	cmpwi 7,29,5
	addi 31,1,8
	.loc 2 987 0
	li 29,1
.LVL881:
	.loc 2 977 0
	bne+ 7,.L666
	.loc 2 978 0
	cmpwi 7,26,0
	blt- 7,.L720
	.loc 2 982 0
	lwz 0,36(30)
	cmpw 7,0,26
	beq- 7,.L666
	.loc 2 983 0
	mr 4,26
	mr 3,27
	bl _ZN7idLexer20GetPunctuationFromIdEi
	lis 4,.LC57@ha
	lwz 6,4(30)
	mr 5,3
	la 4,.LC57@l(4)
	mr 3,27
	crxor 6,6,6
	bl _ZN7idLexer5ErrorEPKcz
	b .L716
.LVL882:
.L719:
	.loc 2 962 0
	lwz 0,36(30)
	and 0,26,0
	cmpw 7,0,26
	beq- 7,.L707
.LVL883:
.LBB3110:
.LBB3111:
	.loc 3 746 0
	addi 31,1,8
	mr 3,31
	bl _ZN5idStr8FreeDataEv
.LVL884:
.LBE3111:
.LBE3110:
	.loc 2 964 0
	andi. 0,26,2
.LBB3115:
.LBB3114:
.LBB3112:
.LBB3113:
	.loc 3 357 0
	li 9,20
	.loc 3 356 0
	li 0,0
	.loc 3 357 0
	stw 9,16(1)
	.loc 3 356 0
	stw 0,8(1)
	.loc 3 358 0
	stw 28,12(1)
	.loc 3 359 0
	stb 0,20(1)
.LBE3113:
.LBE3112:
.LBE3114:
.LBE3115:
	.loc 2 964 0
	bne- 0,.L721
.L677:
	.loc 2 965 0
	andi. 0,26,4
	bne- 0,.L722
.L678:
	.loc 2 966 0
	andi. 0,26,8
	bne- 0,.L723
.L679:
	.loc 2 967 0
	andi. 0,26,16
	bne- 0,.L724
.L680:
	.loc 2 968 0
	andi. 0,26,64
	bne- 0,.L725
.LVL885:
.L681:
	.loc 2 969 0
	andi. 0,26,32
	bne- 0,.L726
.L686:
	.loc 2 970 0
	andi. 0,26,128
	bne- 0,.L727
.L691:
	.loc 2 971 0
	andi. 0,26,1
	beq- 0,.L696
.LVL886:
.LBB3116:
.LBB3117:
.LBB3118:
	.loc 3 775 0
	lwz 11,8(1)
.LBB3119:
.LBB3120:
	.loc 3 350 0
	lwz 0,16(1)
.LBE3120:
.LBE3119:
	.loc 3 776 0
	addi 4,11,9
	.loc 3 775 0
	addi 29,11,8
.LVL887:
.LBB3124:
.LBB3121:
	.loc 3 350 0
	cmpw 7,4,0
	bgt- 7,.L697
.LVL888:
.L699:
	lis 10,.LC54@ha
.LBE3121:
.LBE3124:
.LBE3118:
.LBE3117:
.LBE3116:
.LBE3204:
	.loc 2 941 0
	li 0,105
.LBB3205:
.LBB3133:
.LBB3130:
.LBB3127:
.LBB3125:
.LBB3122:
	.loc 3 350 0
	la 10,.LC54@l(10)
.LBE3122:
.LBE3125:
.LBE3127:
.LBE3130:
.LBE3133:
.LBE3205:
	.loc 2 941 0
	li 9,0
	b .L698
.LVL889:
.L728:
.LBB3206:
.LBB3134:
.LBB3131:
.LBB3128:
	.loc 3 777 0
	lwz 11,8(1)
.LVL890:
.L698:
	.loc 3 778 0
	lwz 8,12(1)
	add 11,8,11
	stbx 0,11,9
	.loc 3 777 0
	addi 9,9,1
.LVL891:
	lbzu 0,1(10)
	cmpwi 7,0,0
	bne+ 7,.L728
	.loc 3 781 0
	lwz 9,12(1)
.LVL892:
	.loc 3 780 0
	stw 29,8(1)
	.loc 3 781 0
	stbx 0,9,29
.LVL893:
.L696:
.LBE3128:
.LBE3131:
.LBE3134:
	.loc 2 972 0
	mr 3,31
	li 4,32
	bl _ZN5idStr13StripTrailingEc
	.loc 2 973 0
	lis 4,.LC55@ha
	lwz 5,12(1)
	lwz 6,4(30)
	mr 3,27
	la 4,.LC55@l(4)
	crxor 6,6,6
	bl _ZN7idLexer5ErrorEPKcz
	.loc 2 974 0
	li 29,0
	b .L729
.LVL894:
.L707:
	.loc 2 987 0
	li 29,1
.LVL895:
	addi 31,1,8
	b .L666
.LVL896:
.L727:
.LBB3135:
.LBB3136:
.LBB3137:
	.loc 3 775 0
	lwz 11,8(1)
.LBB3138:
.LBB3139:
	.loc 3 350 0
	lwz 0,16(1)
.LBE3139:
.LBE3138:
	.loc 3 776 0
	addi 4,11,7
	.loc 3 775 0
	addi 29,11,6
.LVL897:
.LBB3143:
.LBB3140:
	.loc 3 350 0
	cmpw 7,4,0
	bgt- 7,.L692
.LVL898:
.L694:
	lis 10,.LC53@ha
.LBE3140:
.LBE3143:
.LBE3137:
.LBE3136:
.LBE3135:
.LBE3206:
	.loc 2 941 0
	li 0,102
.LBB3207:
.LBB3152:
.LBB3149:
.LBB3146:
.LBB3144:
.LBB3141:
	.loc 3 350 0
	la 10,.LC53@l(10)
.LBE3141:
.LBE3144:
.LBE3146:
.LBE3149:
.LBE3152:
.LBE3207:
	.loc 2 941 0
	li 9,0
	b .L693
.LVL899:
.L730:
.LBB3208:
.LBB3153:
.LBB3150:
.LBB3147:
	.loc 3 777 0
	lwz 11,8(1)
.LVL900:
.L693:
	.loc 3 778 0
	lwz 8,12(1)
	add 8,8,9
	.loc 3 777 0
	addi 9,9,1
.LVL901:
	.loc 3 778 0
	stbx 0,8,11
	.loc 3 777 0
	lbzu 0,1(10)
	cmpwi 7,0,0
	bne+ 7,.L730
	.loc 3 781 0
	lwz 9,12(1)
.LVL902:
	.loc 3 780 0
	stw 29,8(1)
	.loc 3 781 0
	stbx 0,9,29
	b .L691
.LVL903:
.L726:
.LBE3147:
.LBE3150:
.LBE3153:
.LBB3154:
.LBB3155:
.LBB3156:
	.loc 3 775 0
	lwz 11,8(1)
.LBB3157:
.LBB3158:
	.loc 3 350 0
	lwz 0,16(1)
.LBE3158:
.LBE3157:
	.loc 3 776 0
	addi 4,11,6
	.loc 3 775 0
	addi 29,11,5
.LVL904:
.LBB3162:
.LBB3159:
	.loc 3 350 0
	cmpw 7,4,0
	bgt- 7,.L687
.LVL905:
.L689:
	lis 10,.LC52@ha
.LBE3159:
.LBE3162:
.LBE3156:
.LBE3155:
.LBE3154:
.LBE3208:
	.loc 2 941 0
	li 0,108
.LBB3209:
.LBB3171:
.LBB3168:
.LBB3165:
.LBB3163:
.LBB3160:
	.loc 3 350 0
	la 10,.LC52@l(10)
.LBE3160:
.LBE3163:
.LBE3165:
.LBE3168:
.LBE3171:
.LBE3209:
	.loc 2 941 0
	li 9,0
	b .L688
.LVL906:
.L731:
.LBB3210:
.LBB3172:
.LBB3169:
.LBB3166:
	.loc 3 777 0
	lwz 11,8(1)
.LVL907:
.L688:
	.loc 3 778 0
	lwz 8,12(1)
	add 11,8,11
	stbx 0,11,9
	.loc 3 777 0
	addi 9,9,1
.LVL908:
	lbzu 0,1(10)
	cmpwi 7,0,0
	bne+ 7,.L731
	.loc 3 781 0
	lwz 9,12(1)
.LVL909:
	.loc 3 780 0
	stw 29,8(1)
	.loc 3 781 0
	stbx 0,9,29
	b .L686
.LVL910:
.L725:
.LBE3166:
.LBE3169:
.LBE3172:
.LBB3173:
.LBB3174:
.LBB3175:
	.loc 3 775 0
	lwz 11,8(1)
.LBB3176:
.LBB3177:
	.loc 3 350 0
	lwz 0,16(1)
.LBE3177:
.LBE3176:
	.loc 3 776 0
	addi 4,11,10
	.loc 3 775 0
	addi 29,11,9
.LVL911:
.LBB3181:
.LBB3178:
	.loc 3 350 0
	cmpw 7,4,0
	bgt- 7,.L682
.LVL912:
.L684:
	lis 10,.LC51@ha
.LBE3178:
.LBE3181:
.LBE3175:
.LBE3174:
.LBE3173:
.LBE3210:
	.loc 2 941 0
	li 0,117
.LBB3211:
.LBB3190:
.LBB3187:
.LBB3184:
.LBB3182:
.LBB3179:
	.loc 3 350 0
	la 10,.LC51@l(10)
.LBE3179:
.LBE3182:
.LBE3184:
.LBE3187:
.LBE3190:
.LBE3211:
	.loc 2 941 0
	li 9,0
	b .L683
.LVL913:
.L732:
.LBB3212:
.LBB3191:
.LBB3188:
.LBB3185:
	.loc 3 777 0
	lwz 11,8(1)
.LVL914:
.L683:
	.loc 3 778 0
	lwz 8,12(1)
	add 11,8,11
	stbx 0,11,9
	.loc 3 777 0
	addi 9,9,1
.LVL915:
	lbzu 0,1(10)
	cmpwi 7,0,0
	bne+ 7,.L732
	.loc 3 781 0
	lwz 9,12(1)
.LVL916:
	.loc 3 780 0
	stw 29,8(1)
	.loc 3 781 0
	stbx 0,9,29
	b .L681
.LVL917:
.L724:
.LBE3185:
.LBE3188:
.LBE3191:
	.loc 2 967 0 discriminator 1
	lis 4,.LC50@ha
	mr 3,31
	la 4,.LC50@l(4)
	bl _ZN5idStraSEPKc
	b .L680
.L723:
	.loc 2 966 0 discriminator 1
	lis 4,.LC49@ha
	mr 3,31
	la 4,.LC49@l(4)
	bl _ZN5idStraSEPKc
	b .L679
.L722:
	.loc 2 965 0 discriminator 1
	lis 4,.LC48@ha
	mr 3,31
	la 4,.LC48@l(4)
	bl _ZN5idStraSEPKc
	b .L678
.L721:
	.loc 2 964 0 discriminator 1
	lis 4,.LC47@ha
	mr 3,31
	la 4,.LC47@l(4)
	bl _ZN5idStraSEPKc
	b .L677
.LVL918:
.L697:
.LBB3192:
.LBB3132:
.LBB3129:
.LBB3126:
.LBB3123:
	.loc 3 351 0
	mr 3,31
	li 5,1
	bl _ZN5idStr10ReAllocateEib
.LVL919:
	lwz 11,8(1)
	b .L699
.LVL920:
.L720:
.LBE3123:
.LBE3126:
.LBE3129:
.LBE3132:
.LBE3192:
	.loc 2 979 0
	lis 4,.LC56@ha
	mr 3,27
	la 4,.LC56@l(4)
	crxor 6,6,6
	bl _ZN7idLexer5ErrorEPKcz
	b .L716
.LVL921:
.L692:
.LBB3193:
.LBB3151:
.LBB3148:
.LBB3145:
.LBB3142:
	.loc 3 351 0
	mr 3,31
	li 5,1
	bl _ZN5idStr10ReAllocateEib
.LVL922:
	lwz 11,8(1)
	b .L694
.LVL923:
.L682:
.LBE3142:
.LBE3145:
.LBE3148:
.LBE3151:
.LBE3193:
.LBB3194:
.LBB3189:
.LBB3186:
.LBB3183:
.LBB3180:
	mr 3,31
	li 5,1
	bl _ZN5idStr10ReAllocateEib
.LVL924:
	lwz 11,8(1)
	b .L684
.LVL925:
.L687:
.LBE3180:
.LBE3183:
.LBE3186:
.LBE3189:
.LBE3194:
.LBB3195:
.LBB3170:
.LBB3167:
.LBB3164:
.LBB3161:
	mr 3,31
	li 5,1
	bl _ZN5idStr10ReAllocateEib
.LEHE117:
.LVL926:
	lwz 11,8(1)
	b .L689
.LVL927:
.L712:
	mr 30,3
.LVL928:
.LBE3161:
.LBE3164:
.LBE3167:
.LBE3170:
.LBE3195:
.LBB3196:
.LBB3197:
.LBB3198:
	.loc 3 501 0
	mr 3,31
	bl _ZN5idStr8FreeDataEv
	mr 3,30
.LEHB118:
	bl _Unwind_Resume
.LEHE118:
.LBE3198:
.LBE3197:
.LBE3196:
.LBE3212:
	.cfi_endproc
.LFE2553:
	.section	.gcc_except_table
.LLSDA2553:
	.byte	0xff
	.byte	0xff
	.byte	0x1
	.uleb128 .LLSDACSE2553-.LLSDACSB2553
.LLSDACSB2553:
	.uleb128 .LEHB113-.LFB2553
	.uleb128 .LEHE113-.LEHB113
	.uleb128 .L712-.LFB2553
	.uleb128 0
	.uleb128 .LEHB114-.LFB2553
	.uleb128 .LEHE114-.LEHB114
	.uleb128 0
	.uleb128 0
	.uleb128 .LEHB115-.LFB2553
	.uleb128 .LEHE115-.LEHB115
	.uleb128 .L712-.LFB2553
	.uleb128 0
	.uleb128 .LEHB116-.LFB2553
	.uleb128 .LEHE116-.LEHB116
	.uleb128 0
	.uleb128 0
	.uleb128 .LEHB117-.LFB2553
	.uleb128 .LEHE117-.LEHB117
	.uleb128 .L712-.LFB2553
	.uleb128 0
	.uleb128 .LEHB118-.LFB2553
	.uleb128 .LEHE118-.LEHB118
	.uleb128 0
	.uleb128 0
.LLSDACSE2553:
	.section	".text"
	.size	_ZN7idLexer15ExpectTokenTypeEiiP7idToken, .-_ZN7idLexer15ExpectTokenTypeEiiP7idToken
	.align 2
	.globl _ZN7idLexer9ParseBoolEv
	.type	_ZN7idLexer9ParseBoolEv, @function
_ZN7idLexer9ParseBoolEv:
.LFB2566:
	.loc 2 1252 0
	.cfi_startproc
	.cfi_personality 0,__gxx_personality_v0
	.cfi_lsda 0,.LLSDA2566
.LVL929:
	mflr 0
	stwu 1,-96(1)
.LCFI166:
	.cfi_def_cfa_offset 96
	.cfi_register 65, 0
.LVL930:
.LBB3232:
.LBB3233:
.LBB3234:
.LBB3235:
.LBB3236:
	.loc 3 357 0
	li 9,20
.LBE3236:
.LBE3235:
.LBE3234:
.LBE3233:
	.loc 2 1255 0
	li 4,3
.LBB3246:
.LBB3243:
.LBB3240:
.LBB3237:
	.loc 3 357 0
	stw 9,16(1)
.LBE3237:
.LBE3240:
.LBE3243:
.LBE3246:
	.loc 2 1255 0
	li 5,0
.LBE3232:
	.loc 2 1252 0
	stw 0,100(1)
.LBB3284:
.LBB3247:
.LBB3244:
.LBB3241:
.LBB3238:
	.loc 3 358 0
	addi 9,1,20
	.loc 3 356 0
	li 0,0
	.cfi_offset 65, 4
.LBE3238:
.LBE3241:
.LBE3244:
.LBE3247:
	.loc 2 1255 0
	addi 6,1,8
.LBE3284:
	.loc 2 1252 0
	stw 31,92(1)
	.loc 2 1252 0
	mr 31,3
	.cfi_offset 31, -4
.LBB3285:
.LBB3248:
.LBB3245:
.LBB3242:
.LBB3239:
	.loc 3 356 0
	stw 0,8(1)
	.loc 3 358 0
	stw 9,12(1)
	.loc 3 359 0
	stb 0,20(1)
.LEHB119:
.LBE3239:
.LBE3242:
.LBE3245:
.LBE3248:
	.loc 2 1255 0
	bl _ZN7idLexer15ExpectTokenTypeEiiP7idToken
.LVL931:
	cmpwi 7,3,0
	bne- 7,.L734
	.loc 2 1256 0
	lis 4,.LC58@ha
	mr 3,31
	la 4,.LC58@l(4)
	crxor 6,6,6
	bl _ZN7idLexer5ErrorEPKcz
.LEHE119:
	.loc 2 1257 0
	li 31,0
.LVL932:
.L735:
.LBB3249:
.LBB3250:
.LBB3251:
.LBB3252:
.LBB3253:
	.loc 3 501 0
	addi 3,1,8
.LEHB120:
	bl _ZN5idStr8FreeDataEv
.LBE3253:
.LBE3252:
.LBE3251:
.LBE3250:
.LBE3249:
.LBE3285:
	.loc 2 1260 0
	lwz 0,100(1)
	mr 3,31
	lwz 31,92(1)
	mtlr 0
	addi 1,1,96
	.cfi_remember_state
.LCFI167:
	.cfi_def_cfa_offset 0
	.cfi_restore 31
	blr
.LVL933:
.L734:
.LCFI168:
	.cfi_restore_state
.LBB3286:
.LBB3262:
.LBB3263:
.LBB3264:
	.loc 4 145 0
	lwz 0,40(1)
	li 31,0
.LVL934:
	cmpwi 7,0,3
	bne+ 7,.L735
	.loc 4 148 0
	lwz 0,44(1)
	andis. 9,0,1
	beq- 0,.L747
.L737:
.LBE3264:
.LBE3263:
.LBE3262:
.LBB3273:
.LBB3260:
.LBB3258:
.LBB3256:
.LBB3254:
	.loc 3 501 0
	addi 3,1,8
.LBE3254:
.LBE3256:
.LBE3258:
.LBE3260:
.LBE3273:
.LBB3274:
.LBB3269:
.LBB3265:
	.loc 4 149 0
	lwz 31,60(1)
.LBE3265:
.LBE3269:
.LBE3274:
.LBB3275:
.LBB3261:
.LBB3259:
.LBB3257:
.LBB3255:
	.loc 3 501 0
	bl _ZN5idStr8FreeDataEv
.LEHE120:
.LBE3255:
.LBE3257:
.LBE3259:
.LBE3261:
.LBE3275:
.LBE3286:
	.loc 2 1260 0
	lwz 0,100(1)
.LBB3287:
.LBB3276:
.LBB3270:
.LBB3266:
	.loc 4 149 0
	cntlzw 31,31
.LBE3266:
.LBE3270:
.LBE3276:
.LBE3287:
	.loc 2 1260 0
	mtlr 0
.LBB3288:
.LBB3277:
.LBB3271:
.LBB3267:
	.loc 4 149 0
	srwi 31,31,5
	xori 31,31,1
.LVL935:
.LBE3267:
.LBE3271:
.LBE3277:
.LBE3288:
	.loc 2 1260 0
	mr 3,31
	lwz 31,92(1)
	addi 1,1,96
	.cfi_remember_state
	.cfi_restore 31
.LCFI169:
	.cfi_def_cfa_offset 0
	blr
.LVL936:
.L747:
.LCFI170:
	.cfi_restore_state
.LBB3289:
.LBB3278:
.LBB3272:
.LBB3268:
	.loc 4 149 0
	addi 3,1,8
.LEHB121:
	bl _ZN7idToken11NumberValueEv
.LEHE121:
	b .L737
.LVL937:
.L745:
	mr 31,3
.LVL938:
.LBE3268:
.LBE3272:
.LBE3278:
.LBB3279:
.LBB3280:
.LBB3281:
.LBB3282:
.LBB3283:
	.loc 3 501 0
	addi 3,1,8
	bl _ZN5idStr8FreeDataEv
	mr 3,31
.LEHB122:
	bl _Unwind_Resume
.LEHE122:
.LBE3283:
.LBE3282:
.LBE3281:
.LBE3280:
.LBE3279:
.LBE3289:
	.cfi_endproc
.LFE2566:
	.section	.gcc_except_table
.LLSDA2566:
	.byte	0xff
	.byte	0xff
	.byte	0x1
	.uleb128 .LLSDACSE2566-.LLSDACSB2566
.LLSDACSB2566:
	.uleb128 .LEHB119-.LFB2566
	.uleb128 .LEHE119-.LEHB119
	.uleb128 .L745-.LFB2566
	.uleb128 0
	.uleb128 .LEHB120-.LFB2566
	.uleb128 .LEHE120-.LEHB120
	.uleb128 0
	.uleb128 0
	.uleb128 .LEHB121-.LFB2566
	.uleb128 .LEHE121-.LEHB121
	.uleb128 .L745-.LFB2566
	.uleb128 0
	.uleb128 .LEHB122-.LFB2566
	.uleb128 .LEHE122-.LEHB122
	.uleb128 0
	.uleb128 0
.LLSDACSE2566:
	.section	".text"
	.size	_ZN7idLexer9ParseBoolEv, .-_ZN7idLexer9ParseBoolEv
	.align 2
	.globl _ZN7idLexer10ParseFloatEPb
	.type	_ZN7idLexer10ParseFloatEPb, @function
_ZN7idLexer10ParseFloatEPb:
.LFB2567:
	.loc 2 1267 0
	.cfi_startproc
	.cfi_personality 0,__gxx_personality_v0
	.cfi_lsda 0,.LLSDA2567
.LVL939:
	mflr 0
	mfcr 12
.LBB3315:
	.loc 2 1270 0
	cmpwi 4,4,0
.LBE3315:
	.loc 2 1267 0
	stwu 1,-112(1)
.LCFI171:
	.cfi_def_cfa_offset 112
	.cfi_register 70, 12
	.cfi_register 65, 0
.LVL940:
.LBB3384:
.LBB3316:
.LBB3317:
.LBB3318:
.LBB3319:
	.loc 3 357 0
	li 9,20
.LBE3319:
.LBE3318:
.LBE3317:
.LBE3316:
.LBE3384:
	.loc 2 1267 0
	stw 0,116(1)
.LBB3385:
.LBB3326:
.LBB3324:
.LBB3322:
.LBB3320:
	.loc 3 356 0
	li 0,0
	.cfi_offset 65, 4
	.loc 3 357 0
	stw 9,16(1)
	.loc 3 358 0
	addi 9,1,20
.LBE3320:
.LBE3322:
.LBE3324:
.LBE3326:
.LBE3385:
	.loc 2 1267 0
	stw 30,96(1)
.LBB3386:
	.loc 2 1270 0
	mr 30,4
	.cfi_offset 30, -16
.LBE3386:
	.loc 2 1267 0
	stw 31,100(1)
	mr 31,3
	.cfi_offset 31, -12
	stfd 31,104(1)
	stw 12,92(1)
.LBB3387:
.LBB3327:
.LBB3325:
.LBB3323:
.LBB3321:
	.loc 3 356 0
	stw 0,8(1)
	.loc 3 358 0
	stw 9,12(1)
	.loc 3 359 0
	stb 0,20(1)
.LBE3321:
.LBE3323:
.LBE3325:
.LBE3327:
	.loc 2 1270 0
	beq- 4,.L749
	.cfi_offset 70, -20
	.cfi_offset 63, -8
	.loc 2 1271 0
	stb 0,0(4)
.L749:
	.loc 2 1274 0
	mr 3,31
.LVL941:
	addi 4,1,8
.LVL942:
.LEHB123:
	bl _ZN7idLexer9ReadTokenEP7idToken
	cmpwi 7,3,0
	bne- 7,.L750
	.loc 2 1276 0
	lis 4,.LC60@ha
	mr 3,31
	la 4,.LC60@l(4)
	.loc 2 1275 0
	beq- 4,.L751
	.loc 2 1276 0
	crxor 6,6,6
	bl _ZN7idLexer7WarningEPKcz
.LEHE123:
	.loc 2 1277 0
	li 0,1
	.loc 2 1281 0
	lis 9,.LC63@ha
	.loc 2 1277 0
	stb 0,0(30)
.LBB3328:
.LBB3329:
.LBB3330:
.LBB3331:
.LBB3332:
	.loc 3 501 0
	addi 3,1,8
.LBE3332:
.LBE3331:
.LBE3330:
.LBE3329:
.LBE3328:
	.loc 2 1281 0
	lfs 31,.LC63@l(9)
.LVL943:
.LEHB124:
.LBB3349:
.LBB3345:
.LBB3341:
.LBB3337:
.LBB3333:
	.loc 3 501 0
	bl _ZN5idStr8FreeDataEv
.LEHE124:
.LBE3333:
.LBE3337:
.LBE3341:
.LBE3345:
.LBE3349:
.LBE3387:
	.loc 2 1296 0
	lwz 0,116(1)
	lwz 12,92(1)
	fmr 1,31
	mtlr 0
	lwz 30,96(1)
.LVL944:
	lwz 31,100(1)
.LVL945:
	mtcrf 8,12
	lfd 31,104(1)
	addi 1,1,112
	.cfi_remember_state
	.cfi_restore 30
	.cfi_restore 31
	.cfi_restore 63
	.cfi_restore 70
.LCFI172:
	.cfi_def_cfa_offset 0
	blr
.LVL946:
.L750:
.LCFI173:
	.cfi_restore_state
.LBB3388:
	.loc 2 1283 0
	lwz 0,40(1)
	cmpwi 7,0,5
	beq- 7,.L773
.L753:
	.loc 2 1287 0
	cmpwi 7,0,3
	beq- 7,.L767
	.loc 2 1289 0
	lis 4,.LC62@ha
	lwz 5,12(1)
	mr 3,31
	la 4,.LC62@l(4)
	.loc 2 1288 0
	beq- 4,.L757
.LEHB125:
	.loc 2 1289 0
	crxor 6,6,6
	bl _ZN7idLexer7WarningEPKcz
.LEHE125:
	.loc 2 1290 0
	li 0,1
	stb 0,0(30)
.L758:
.LVL947:
.LBB3350:
.LBB3351:
.LBB3352:
	.loc 4 131 0
	lwz 0,40(1)
	lis 9,.LC63@ha
	lfs 31,.LC63@l(9)
	cmpwi 7,0,3
	beq- 7,.L767
.LVL948:
.L752:
.LBE3352:
.LBE3351:
.LBE3350:
.LBB3361:
.LBB3346:
.LBB3342:
.LBB3338:
.LBB3334:
	.loc 3 501 0
	addi 3,1,8
.LEHB126:
	bl _ZN5idStr8FreeDataEv
.LEHE126:
.LBE3334:
.LBE3338:
.LBE3342:
.LBE3346:
.LBE3361:
.LBE3388:
	.loc 2 1296 0
	lwz 0,116(1)
	lwz 12,92(1)
	fmr 1,31
	mtlr 0
	lwz 30,96(1)
.LVL949:
	lwz 31,100(1)
.LVL950:
	mtcrf 8,12
	lfd 31,104(1)
	addi 1,1,112
	.cfi_remember_state
.LCFI174:
	.cfi_def_cfa_offset 0
	.cfi_restore 70
	.cfi_restore 63
	.cfi_restore 31
	.cfi_restore 30
	blr
.LVL951:
.L751:
.LCFI175:
	.cfi_restore_state
.LEHB127:
.LBB3389:
	.loc 2 1279 0
	crxor 6,6,6
	bl _ZN7idLexer5ErrorEPKcz
.LVL952:
	.loc 2 1281 0
	lis 9,.LC63@ha
	lfs 31,.LC63@l(9)
	b .L752
.L773:
.LVL953:
.LBB3362:
.LBB3363:
	.loc 3 653 0 discriminator 1
	lis 4,.LC61@ha
	lwz 3,12(1)
	la 4,.LC61@l(4)
	bl _ZN5idStr3CmpEPKcS1_
.LBE3363:
.LBE3362:
	.loc 2 1283 0 discriminator 1
	cmpwi 7,3,0
	lwz 0,40(1)
	bne- 7,.L753
	.loc 2 1284 0 discriminator 4
	mr 3,31
	li 4,3
	li 5,0
	addi 6,1,8
	bl _ZN7idLexer15ExpectTokenTypeEiiP7idToken
.LEHE127:
.LVL954:
.LBB3364:
.LBB3365:
.LBB3366:
	.loc 4 131 0
	lwz 0,40(1)
	cmpwi 7,0,3
	beq- 7,.L774
	lis 9,.LC59@ha
	lfs 31,.LC59@l(9)
	b .L752
.LVL955:
.L767:
.LBE3366:
.LBE3365:
.LBE3364:
.LBB3371:
.LBB3357:
.LBB3353:
	.loc 4 134 0
	lwz 0,44(1)
	andis. 9,0,1
	beq- 0,.L775
.L760:
.LBE3353:
.LBE3357:
.LBE3371:
.LBB3372:
.LBB3347:
.LBB3343:
.LBB3339:
.LBB3335:
	.loc 3 501 0
	addi 3,1,8
.LBE3335:
.LBE3339:
.LBE3343:
.LBE3347:
.LBE3372:
.LBB3373:
.LBB3358:
.LBB3354:
	.loc 4 135 0
	lfd 31,64(1)
.LEHB128:
.LBE3354:
.LBE3358:
.LBE3373:
.LBB3374:
.LBB3348:
.LBB3344:
.LBB3340:
.LBB3336:
	.loc 3 501 0
	bl _ZN5idStr8FreeDataEv
.LEHE128:
.LBE3336:
.LBE3340:
.LBE3344:
.LBE3348:
.LBE3374:
.LBE3389:
	.loc 2 1296 0
	lwz 0,116(1)
.LBB3390:
.LBB3375:
.LBB3359:
.LBB3355:
	.loc 4 135 0
	frsp 31,31
.LVL956:
.LBE3355:
.LBE3359:
.LBE3375:
.LBE3390:
	.loc 2 1296 0
	lwz 12,92(1)
	mtlr 0
	lwz 30,96(1)
.LVL957:
	lwz 31,100(1)
.LVL958:
	mtcrf 8,12
	fmr 1,31
	lfd 31,104(1)
	addi 1,1,112
	.cfi_remember_state
	.cfi_restore 30
	.cfi_restore 31
	.cfi_restore 63
	.cfi_restore 70
.LCFI176:
	.cfi_def_cfa_offset 0
	blr
.LVL959:
.L774:
.LCFI177:
	.cfi_restore_state
.LBB3391:
.LBB3376:
.LBB3369:
.LBB3367:
	.loc 4 134 0
	lwz 0,44(1)
	andis. 9,0,1
	beq- 0,.L776
.L756:
	.loc 4 135 0
	lfd 31,64(1)
	frsp 31,31
	fneg 31,31
	b .L752
.LVL960:
.L757:
.LEHB129:
.LBE3367:
.LBE3369:
.LBE3376:
	.loc 2 1292 0
	crxor 6,6,6
	bl _ZN7idLexer5ErrorEPKcz
	b .L758
.L775:
.LBB3377:
.LBB3360:
.LBB3356:
	.loc 4 135 0
	addi 3,1,8
	bl _ZN7idToken11NumberValueEv
	b .L760
.LVL961:
.L776:
.LBE3356:
.LBE3360:
.LBE3377:
.LBB3378:
.LBB3370:
.LBB3368:
	addi 3,1,8
	bl _ZN7idToken11NumberValueEv
.LEHE129:
	b .L756
.LVL962:
.L771:
	mr 31,3
.LVL963:
.LBE3368:
.LBE3370:
.LBE3378:
.LBB3379:
.LBB3380:
.LBB3381:
.LBB3382:
.LBB3383:
	.loc 3 501 0
	addi 3,1,8
	bl _ZN5idStr8FreeDataEv
	mr 3,31
.LEHB130:
	bl _Unwind_Resume
.LEHE130:
.LBE3383:
.LBE3382:
.LBE3381:
.LBE3380:
.LBE3379:
.LBE3391:
	.cfi_endproc
.LFE2567:
	.section	.gcc_except_table
.LLSDA2567:
	.byte	0xff
	.byte	0xff
	.byte	0x1
	.uleb128 .LLSDACSE2567-.LLSDACSB2567
.LLSDACSB2567:
	.uleb128 .LEHB123-.LFB2567
	.uleb128 .LEHE123-.LEHB123
	.uleb128 .L771-.LFB2567
	.uleb128 0
	.uleb128 .LEHB124-.LFB2567
	.uleb128 .LEHE124-.LEHB124
	.uleb128 0
	.uleb128 0
	.uleb128 .LEHB125-.LFB2567
	.uleb128 .LEHE125-.LEHB125
	.uleb128 .L771-.LFB2567
	.uleb128 0
	.uleb128 .LEHB126-.LFB2567
	.uleb128 .LEHE126-.LEHB126
	.uleb128 0
	.uleb128 0
	.uleb128 .LEHB127-.LFB2567
	.uleb128 .LEHE127-.LEHB127
	.uleb128 .L771-.LFB2567
	.uleb128 0
	.uleb128 .LEHB128-.LFB2567
	.uleb128 .LEHE128-.LEHB128
	.uleb128 0
	.uleb128 0
	.uleb128 .LEHB129-.LFB2567
	.uleb128 .LEHE129-.LEHB129
	.uleb128 .L771-.LFB2567
	.uleb128 0
	.uleb128 .LEHB130-.LFB2567
	.uleb128 .LEHE130-.LEHB130
	.uleb128 0
	.uleb128 0
.LLSDACSE2567:
	.section	".text"
	.size	_ZN7idLexer10ParseFloatEPb, .-_ZN7idLexer10ParseFloatEPb
	.align 2
	.globl _ZN7idLexer8ParseIntEv
	.type	_ZN7idLexer8ParseIntEv, @function
_ZN7idLexer8ParseIntEv:
.LFB2565:
	.loc 2 1230 0
	.cfi_startproc
	.cfi_personality 0,__gxx_personality_v0
	.cfi_lsda 0,.LLSDA2565
.LVL964:
	mflr 0
	stwu 1,-96(1)
.LCFI178:
	.cfi_def_cfa_offset 96
	.cfi_register 65, 0
.LVL965:
.LBB3417:
.LBB3418:
.LBB3419:
.LBB3420:
.LBB3421:
	.loc 3 357 0
	li 9,20
	stw 9,16(1)
.LBE3421:
.LBE3420:
.LBE3419:
.LBE3418:
	.loc 2 1233 0
	addi 4,1,8
.LBE3417:
	.loc 2 1230 0
	stw 0,100(1)
.LBB3476:
.LBB3431:
.LBB3428:
.LBB3425:
.LBB3422:
	.loc 3 358 0
	addi 9,1,20
	.loc 3 356 0
	li 0,0
	.cfi_offset 65, 4
.LBE3422:
.LBE3425:
.LBE3428:
.LBE3431:
.LBE3476:
	.loc 2 1230 0
	stw 31,92(1)
.LBB3477:
.LBB3432:
.LBB3429:
.LBB3426:
.LBB3423:
	.loc 3 356 0
	stw 0,8(1)
.LBE3423:
.LBE3426:
.LBE3429:
.LBE3432:
.LBE3477:
	.loc 2 1230 0
	mr 31,3
	.cfi_offset 31, -4
.LBB3478:
.LBB3433:
.LBB3430:
.LBB3427:
.LBB3424:
	.loc 3 358 0
	stw 9,12(1)
	.loc 3 359 0
	stb 0,20(1)
.LEHB131:
.LBE3424:
.LBE3427:
.LBE3430:
.LBE3433:
	.loc 2 1233 0
	bl _ZN7idLexer9ReadTokenEP7idToken
.LVL966:
	cmpwi 7,3,0
	beq- 7,.L800
	.loc 2 1237 0
	lwz 0,40(1)
	cmpwi 7,0,5
	beq- 7,.L801
.L780:
	.loc 2 1241 0
	cmpwi 7,0,3
	beq- 7,.L802
.L792:
	.loc 2 1242 0
	lis 4,.LC65@ha
	lwz 5,12(1)
	mr 3,31
	la 4,.LC65@l(4)
	crxor 6,6,6
	bl _ZN7idLexer5ErrorEPKcz
.LEHE131:
.LVL967:
.LBB3434:
.LBB3435:
.LBB3436:
	.loc 4 145 0
	lwz 0,40(1)
	li 31,0
.LVL968:
	cmpwi 7,0,3
	beq- 7,.L803
.LVL969:
.L779:
.LBE3436:
.LBE3435:
.LBE3434:
.LBB3443:
.LBB3444:
.LBB3445:
.LBB3446:
.LBB3447:
	.loc 3 501 0
	addi 3,1,8
.LEHB132:
	bl _ZN5idStr8FreeDataEv
.LBE3447:
.LBE3446:
.LBE3445:
.LBE3444:
.LBE3443:
.LBE3478:
	.loc 2 1245 0
	lwz 0,100(1)
	mr 3,31
	lwz 31,92(1)
	mtlr 0
	addi 1,1,96
	.cfi_remember_state
.LCFI179:
	.cfi_def_cfa_offset 0
	.cfi_restore 31
	blr
.LVL970:
.L802:
.LCFI180:
	.cfi_restore_state
.LBB3479:
	.loc 2 1241 0 discriminator 1
	lwz 0,44(1)
	cmpwi 7,0,128
	beq- 7,.L792
.LVL971:
.L784:
.LBB3460:
.LBB3440:
.LBB3437:
	.loc 4 148 0
	andis. 9,0,1
	beq- 0,.L804
	.loc 4 149 0
	lwz 31,60(1)
.L805:
.LVL972:
.LBE3437:
.LBE3440:
.LBE3460:
.LBB3461:
.LBB3457:
.LBB3454:
.LBB3451:
.LBB3448:
	.loc 3 501 0
	addi 3,1,8
	bl _ZN5idStr8FreeDataEv
.LEHE132:
.LBE3448:
.LBE3451:
.LBE3454:
.LBE3457:
.LBE3461:
.LBE3479:
	.loc 2 1245 0
	lwz 0,100(1)
	mr 3,31
	lwz 31,92(1)
	mtlr 0
	addi 1,1,96
	.cfi_remember_state
	.cfi_restore 31
.LCFI181:
	.cfi_def_cfa_offset 0
	blr
.LVL973:
.L800:
.LCFI182:
	.cfi_restore_state
.LBB3480:
	.loc 2 1234 0
	lis 4,.LC64@ha
	mr 3,31
	la 4,.LC64@l(4)
.LEHB133:
	crxor 6,6,6
	bl _ZN7idLexer5ErrorEPKcz
.LEHE133:
.LBB3462:
.LBB3458:
.LBB3455:
.LBB3452:
.LBB3449:
	.loc 3 501 0
	addi 3,1,8
.LBE3449:
.LBE3452:
.LBE3455:
.LBE3458:
.LBE3462:
	.loc 2 1235 0
	li 31,0
.LVL974:
.LEHB134:
.LBB3463:
.LBB3459:
.LBB3456:
.LBB3453:
.LBB3450:
	.loc 3 501 0
	bl _ZN5idStr8FreeDataEv
.LEHE134:
.LBE3450:
.LBE3453:
.LBE3456:
.LBE3459:
.LBE3463:
.LBE3480:
	.loc 2 1245 0
	lwz 0,100(1)
	mr 3,31
	lwz 31,92(1)
	mtlr 0
	addi 1,1,96
	.cfi_remember_state
	.cfi_restore 31
.LCFI183:
	.cfi_def_cfa_offset 0
	blr
.LVL975:
.L804:
.LCFI184:
	.cfi_restore_state
.LBB3481:
.LBB3464:
.LBB3441:
.LBB3438:
	.loc 4 149 0
	addi 3,1,8
.LEHB135:
	bl _ZN7idToken11NumberValueEv
	lwz 31,60(1)
	b .L805
.LVL976:
.L801:
.LBE3438:
.LBE3441:
.LBE3464:
.LBB3465:
.LBB3466:
	.loc 3 653 0 discriminator 1
	lis 4,.LC61@ha
	lwz 3,12(1)
	la 4,.LC61@l(4)
	bl _ZN5idStr3CmpEPKcS1_
.LBE3466:
.LBE3465:
	.loc 2 1237 0 discriminator 1
	cmpwi 7,3,0
	lwz 0,40(1)
	bne- 7,.L780
	.loc 2 1238 0 discriminator 4
	mr 3,31
	li 4,3
	li 5,1
	addi 6,1,8
	bl _ZN7idLexer15ExpectTokenTypeEiiP7idToken
.LVL977:
.LBB3467:
.LBB3468:
.LBB3469:
	.loc 4 145 0
	lwz 0,40(1)
	li 31,0
.LVL978:
	cmpwi 7,0,3
	bne+ 7,.L779
	.loc 4 148 0
	lwz 0,44(1)
	andis. 9,0,1
	beq- 0,.L806
.L783:
	.loc 4 149 0
	lwz 31,60(1)
	neg 31,31
	b .L779
.L806:
	addi 3,1,8
	bl _ZN7idToken11NumberValueEv
.LEHE135:
	b .L783
.LVL979:
.L803:
.LBE3469:
.LBE3468:
.LBE3467:
.LBB3470:
.LBB3442:
.LBB3439:
	.loc 4 145 0
	lwz 0,44(1)
	b .L784
.LVL980:
.L797:
	mr 31,3
.LVL981:
.LBE3439:
.LBE3442:
.LBE3470:
.LBB3471:
.LBB3472:
.LBB3473:
.LBB3474:
.LBB3475:
	.loc 3 501 0
	addi 3,1,8
	bl _ZN5idStr8FreeDataEv
	mr 3,31
.LEHB136:
	bl _Unwind_Resume
.LEHE136:
.LBE3475:
.LBE3474:
.LBE3473:
.LBE3472:
.LBE3471:
.LBE3481:
	.cfi_endproc
.LFE2565:
	.section	.gcc_except_table
.LLSDA2565:
	.byte	0xff
	.byte	0xff
	.byte	0x1
	.uleb128 .LLSDACSE2565-.LLSDACSB2565
.LLSDACSB2565:
	.uleb128 .LEHB131-.LFB2565
	.uleb128 .LEHE131-.LEHB131
	.uleb128 .L797-.LFB2565
	.uleb128 0
	.uleb128 .LEHB132-.LFB2565
	.uleb128 .LEHE132-.LEHB132
	.uleb128 0
	.uleb128 0
	.uleb128 .LEHB133-.LFB2565
	.uleb128 .LEHE133-.LEHB133
	.uleb128 .L797-.LFB2565
	.uleb128 0
	.uleb128 .LEHB134-.LFB2565
	.uleb128 .LEHE134-.LEHB134
	.uleb128 0
	.uleb128 0
	.uleb128 .LEHB135-.LFB2565
	.uleb128 .LEHE135-.LEHB135
	.uleb128 .L797-.LFB2565
	.uleb128 0
	.uleb128 .LEHB136-.LFB2565
	.uleb128 .LEHE136-.LEHB136
	.uleb128 0
	.uleb128 0
.LLSDACSE2565:
	.section	".text"
	.size	_ZN7idLexer8ParseIntEv, .-_ZN7idLexer8ParseIntEv
	.align 2
	.globl _ZN7idLexer17ExpectTokenStringEPKc
	.type	_ZN7idLexer17ExpectTokenStringEPKc, @function
_ZN7idLexer17ExpectTokenStringEPKc:
.LFB2552:
	.loc 2 922 0
	.cfi_startproc
	.cfi_personality 0,__gxx_personality_v0
	.cfi_lsda 0,.LLSDA2552
.LVL982:
	mflr 0
	stwu 1,-104(1)
.LCFI185:
	.cfi_def_cfa_offset 104
	.cfi_register 65, 0
.LVL983:
.LBB3482:
.LBB3483:
.LBB3484:
.LBB3485:
.LBB3486:
	.loc 3 357 0
	li 9,20
.LBE3486:
.LBE3485:
.LBE3484:
.LBE3483:
.LBE3482:
	.loc 2 922 0
	stw 31,100(1)
	mr 31,4
	.cfi_offset 31, -4
	stw 0,108(1)
.LBB3508:
	.loc 2 925 0
	addi 4,1,8
.LVL984:
.LBB3493:
.LBB3491:
.LBB3489:
.LBB3487:
	.loc 3 356 0
	li 0,0
	.cfi_offset 65, 4
	.loc 3 357 0
	stw 9,16(1)
	.loc 3 358 0
	addi 9,1,20
.LBE3487:
.LBE3489:
.LBE3491:
.LBE3493:
.LBE3508:
	.loc 2 922 0
	stw 30,96(1)
	stw 29,92(1)
	.loc 2 922 0
	mr 30,3
	.cfi_offset 29, -12
	.cfi_offset 30, -8
.LBB3509:
.LBB3494:
.LBB3492:
.LBB3490:
.LBB3488:
	.loc 3 356 0
	stw 0,8(1)
	.loc 3 358 0
	stw 9,12(1)
	.loc 3 359 0
	stb 0,20(1)
.LEHB137:
.LBE3488:
.LBE3490:
.LBE3492:
.LBE3494:
	.loc 2 925 0
	bl _ZN7idLexer9ReadTokenEP7idToken
.LVL985:
	cmpwi 7,3,0
	bne- 7,.L808
	.loc 2 926 0
	lis 4,.LC66@ha
	mr 3,30
	la 4,.LC66@l(4)
	mr 5,31
	crxor 6,6,6
	bl _ZN7idLexer5ErrorEPKcz
.LEHE137:
.L818:
	.loc 2 927 0
	li 29,0
.L809:
.LVL986:
.LBB3495:
.LBB3496:
.LBB3497:
.LBB3498:
.LBB3499:
	.loc 3 501 0
	addi 3,1,8
.LEHB138:
	bl _ZN5idStr8FreeDataEv
.LEHE138:
.LBE3499:
.LBE3498:
.LBE3497:
.LBE3496:
.LBE3495:
.LBE3509:
	.loc 2 934 0
	lwz 0,108(1)
	mr 3,29
	lwz 30,96(1)
.LVL987:
	mtlr 0
	lwz 29,92(1)
	lwz 31,100(1)
.LVL988:
	addi 1,1,104
	.cfi_remember_state
.LCFI186:
	.cfi_def_cfa_offset 0
	.cfi_restore 31
	.cfi_restore 30
	.cfi_restore 29
	blr
.LVL989:
.L808:
.LCFI187:
	.cfi_restore_state
.LBB3510:
.LBB3500:
.LBB3501:
.LBB3502:
	.loc 3 653 0
	lwz 3,12(1)
	mr 4,31
.LEHB139:
	bl _ZN5idStr3CmpEPKcS1_
.LBE3502:
.LBE3501:
.LBE3500:
	.loc 2 929 0
	cmpwi 7,3,0
	.loc 2 933 0
	li 29,1
	.loc 2 929 0
	beq+ 7,.L809
	.loc 2 930 0
	lis 4,.LC57@ha
	lwz 6,12(1)
	mr 3,30
	la 4,.LC57@l(4)
	mr 5,31
	crxor 6,6,6
	bl _ZN7idLexer5ErrorEPKcz
.LEHE139:
	b .L818
.LVL990:
.L817:
	mr 31,3
.LVL991:
.LBB3503:
.LBB3504:
.LBB3505:
.LBB3506:
.LBB3507:
	.loc 3 501 0
	addi 3,1,8
	bl _ZN5idStr8FreeDataEv
	mr 3,31
.LEHB140:
	bl _Unwind_Resume
.LEHE140:
.LBE3507:
.LBE3506:
.LBE3505:
.LBE3504:
.LBE3503:
.LBE3510:
	.cfi_endproc
.LFE2552:
	.section	.gcc_except_table
.LLSDA2552:
	.byte	0xff
	.byte	0xff
	.byte	0x1
	.uleb128 .LLSDACSE2552-.LLSDACSB2552
.LLSDACSB2552:
	.uleb128 .LEHB137-.LFB2552
	.uleb128 .LEHE137-.LEHB137
	.uleb128 .L817-.LFB2552
	.uleb128 0
	.uleb128 .LEHB138-.LFB2552
	.uleb128 .LEHE138-.LEHB138
	.uleb128 0
	.uleb128 0
	.uleb128 .LEHB139-.LFB2552
	.uleb128 .LEHE139-.LEHB139
	.uleb128 .L817-.LFB2552
	.uleb128 0
	.uleb128 .LEHB140-.LFB2552
	.uleb128 .LEHE140-.LEHB140
	.uleb128 0
	.uleb128 0
.LLSDACSE2552:
	.section	".text"
	.size	_ZN7idLexer17ExpectTokenStringEPKc, .-_ZN7idLexer17ExpectTokenStringEPKc
	.align 2
	.globl _ZN7idLexer23ParseBracedSectionExactER5idStri
	.type	_ZN7idLexer23ParseBracedSectionExactER5idStri, @function
_ZN7idLexer23ParseBracedSectionExactER5idStri:
.LFB2571:
	.loc 2 1379 0
	.cfi_startproc
	.cfi_personality 0,__gxx_personality_v0
	.cfi_lsda 0,.LLSDA2571
.LVL992:
	mflr 0
	stwu 1,-96(1)
.LCFI188:
	.cfi_def_cfa_offset 96
	.cfi_register 65, 0
	mfcr 12
	stw 25,68(1)
	mr 25,3
	.cfi_offset 25, -28
	.cfi_register 70, 12
	stw 26,72(1)
	mr 26,5
	.cfi_offset 26, -24
	stw 31,92(1)
	mr 31,4
	.cfi_offset 31, -4
.LVL993:
	stw 0,100(1)
	stw 22,56(1)
	stw 23,60(1)
	stw 24,64(1)
	stw 27,76(1)
	stw 28,80(1)
	stw 29,84(1)
	stw 30,88(1)
	stw 12,52(1)
.LBB3539:
.LBB3540:
.LBB3541:
.LBB3542:
.LBB3543:
	.loc 3 350 0
	lwz 0,8(4)
	.cfi_offset 70, -44
	.cfi_offset 30, -8
	.cfi_offset 29, -12
	.cfi_offset 28, -16
	.cfi_offset 27, -20
	.cfi_offset 24, -32
	.cfi_offset 23, -36
	.cfi_offset 22, -40
	.cfi_offset 65, 4
	cmpwi 7,0,0
	bgt+ 7,.L820
.LVL994:
	.loc 3 351 0
	mr 3,4
.LVL995:
	li 5,1
.LVL996:
	li 4,1
.LVL997:
.LEHB141:
	bl _ZN5idStr10ReAllocateEib
.LVL998:
.L820:
.LBE3543:
.LBE3542:
	.loc 3 737 0
	lwz 9,4(31)
	li 0,0
.LBE3541:
.LBE3540:
	.loc 2 1386 0
	lis 30,.LC37@ha
	mr 3,25
.LBB3546:
.LBB3544:
	.loc 3 737 0
	stb 0,0(9)
	.loc 3 738 0
	li 0,0
.LBE3544:
.LBE3546:
	.loc 2 1386 0
	la 30,.LC37@l(30)
.LBB3547:
.LBB3545:
	.loc 3 738 0
	stw 0,0(31)
.LBE3545:
.LBE3547:
	.loc 2 1386 0
	mr 4,30
	bl _ZN7idLexer17ExpectTokenStringEPKc
	cmpwi 7,3,0
	bne- 7,.L821
.L837:
.LBE3539:
	.loc 2 1439 0
	lwz 0,100(1)
	lwz 12,52(1)
	mtlr 0
.LBB3596:
.LBB3548:
	.loc 2 2091 0
	lwz 3,4(31)
.LBE3548:
.LBE3596:
	.loc 2 1439 0
	lwz 22,56(1)
	mtcrf 8,12
	lwz 23,60(1)
	lwz 24,64(1)
	lwz 25,68(1)
.LVL999:
	lwz 26,72(1)
.LVL1000:
	lwz 27,76(1)
	lwz 28,80(1)
	lwz 29,84(1)
	lwz 30,88(1)
	lwz 31,92(1)
.LVL1001:
	addi 1,1,96
	.cfi_remember_state
.LCFI189:
	.cfi_def_cfa_offset 0
	.cfi_restore 70
	.cfi_restore 31
	.cfi_restore 30
	.cfi_restore 29
	.cfi_restore 28
	.cfi_restore 27
	.cfi_restore 26
	.cfi_restore 25
	.cfi_restore 24
	.cfi_restore 23
	.cfi_restore 22
	blr
.LVL1002:
.L821:
.LCFI190:
	.cfi_restore_state
.LBB3597:
	.loc 2 1390 0
	mr 4,30
	mr 3,31
.LBB3592:
	.loc 2 1407 0
	cmpwi 4,26,0
.LBE3592:
	.loc 2 1390 0
	bl _ZN5idStraSEPKc
.LVL1003:
	addi 24,25,40
	.loc 2 1392 0
	li 27,0
	.loc 2 1391 0
	li 28,1
.LBB3593:
.LBB3549:
.LBB3550:
.LBB3551:
	.loc 3 754 0
	li 30,0
.LBE3551:
.LBE3550:
.LBE3549:
.LBB3558:
.LBB3559:
.LBB3560:
.LBB3561:
.LBB3562:
	.loc 3 752 0
	li 29,9
.LBE3562:
.LBE3561:
.LBE3560:
.LBE3559:
.LBE3558:
.LBB3572:
.LBB3573:
.LBB3574:
	li 23,10
.LVL1004:
.L823:
.LBE3574:
.LBE3573:
.LBE3572:
.LBE3593:
	.loc 2 1395 0 discriminator 2
	mr 3,24
	bl _ZN11fileDataPtrdeEv
.LEHE141:
	cmpwi 7,3,0
	beq- 7,.L837
.LVL1005:
.LBB3594:
.LBB3583:
.LBB3584:
	.loc 2 2016 0 discriminator 5
	addi 3,1,8
	mr 4,24
	bl _ZN11fileDataPtrC1ERS_
	.loc 2 2017 0 discriminator 5
	lwz 9,40(25)
.LBE3584:
.LBE3583:
	.loc 2 1396 0 discriminator 5
	addi 3,1,8
.LBB3586:
.LBB3585:
	.loc 2 2017 0 discriminator 5
	addi 0,9,1
	stw 0,40(25)
.LEHB142:
.LBE3585:
.LBE3586:
	.loc 2 1396 0 discriminator 5
	bl _ZN11fileDataPtrdeEv
.LEHE142:
	mr 22,3
.LVL1006:
	addi 3,1,8
.LVL1007:
.LEHB143:
	bl _ZN11fileDataPtrD1Ev
	.loc 2 1398 0 discriminator 5
	cmpwi 6,22,123
	beq- 6,.L846
	.loc 2 1398 0 is_stmt 0 discriminator 1
	cmplwi 7,22,123
	bgt- 7,.L829
	cmpwi 7,22,32
	beq- 7,.L825
	cmplwi 7,22,32
	bgt- 7,.L824
	cmpwi 7,22,9
	beq- 7,.L825
	cmpwi 7,22,10
	beq- 7,.L847
.L824:
.LVL1008:
.LBB3587:
	.loc 2 1426 0 is_stmt 1
	cmpwi 7,27,0
	beq- 7,.L831
.LVL1009:
.LBB3570:
	.loc 2 1428 0
	beq- 6,.L848
	stw 26,40(1)
.LVL1010:
.L833:
	.loc 2 1432 0 discriminator 1
	lwz 9,40(1)
	cmpwi 7,9,0
	ble- 7,.L831
.LVL1011:
.L842:
.LBB3569:
.LBB3568:
.LBB3567:
	.loc 3 751 0
	lwz 9,0(31)
.LVL1012:
.LBB3563:
.LBB3564:
	.loc 3 350 0
	lwz 0,8(31)
.LBE3564:
.LBE3563:
	.loc 3 751 0
	addi 4,9,2
.LVL1013:
.LBB3566:
.LBB3565:
	.loc 3 350 0
	cmpw 7,4,0
	ble+ 7,.L834
	.loc 3 351 0
	mr 3,31
	li 5,1
	bl _ZN5idStr10ReAllocateEib
.LVL1014:
	lwz 9,0(31)
.L834:
.LVL1015:
.LBE3565:
.LBE3566:
	.loc 3 752 0
	lwz 11,4(31)
	stbx 29,11,9
	.loc 3 753 0
	lwz 11,0(31)
	.loc 3 754 0
	lwz 9,4(31)
	.loc 3 753 0
	addi 0,11,1
	stw 0,0(31)
	.loc 3 754 0
	stbx 30,9,0
.LBE3567:
.LBE3568:
.LBE3569:
	.loc 2 1432 0
	lwz 0,40(1)
	addic. 9,0,-1
	stw 9,40(1)
	bne+ 0,.L842
.LVL1016:
.L831:
.LBE3570:
.LBE3587:
.LBB3588:
.LBB3557:
.LBB3556:
	.loc 3 751 0
	lwz 9,0(31)
.LBB3552:
.LBB3553:
	.loc 3 350 0
	lwz 0,8(31)
.LBE3553:
.LBE3552:
	.loc 3 751 0
	addi 4,9,2
.LVL1017:
.LBB3555:
.LBB3554:
	.loc 3 350 0
	cmpw 7,4,0
	ble+ 7,.L836
	.loc 3 351 0
	mr 3,31
	li 5,1
	bl _ZN5idStr10ReAllocateEib
.LVL1018:
	lwz 9,0(31)
.L836:
.LBE3554:
.LBE3555:
	.loc 3 752 0
	lwz 11,4(31)
	.loc 3 754 0
	li 27,0
	.loc 3 752 0
	stbx 22,11,9
.LVL1019:
.L845:
	.loc 3 753 0
	lwz 11,0(31)
	.loc 3 754 0
	lwz 9,4(31)
	.loc 3 753 0
	addi 0,11,1
	stw 0,0(31)
	.loc 3 754 0
	stbx 30,9,0
.L830:
.LVL1020:
.LBE3556:
.LBE3557:
.LBE3588:
.LBE3594:
	.loc 2 1395 0 discriminator 1
	cmpwi 7,28,0
	beq+ 7,.L837
	b .L823
.LVL1021:
.L829:
.LBB3595:
	.loc 2 1398 0 discriminator 1
	cmpwi 7,22,125
	bne+ 7,.L824
	.loc 2 1420 0
	addi 28,28,-1
.LVL1022:
	.loc 2 1421 0
	addi 26,26,-1
.LVL1023:
	.loc 2 1422 0
	b .L824
.LVL1024:
.L825:
	.loc 2 1401 0
	cmpwi 7,27,0
	bne- 7,.L830
	b .L831
.L846:
	.loc 2 1415 0
	addi 28,28,1
.LVL1025:
	.loc 2 1416 0
	addi 26,26,1
.LVL1026:
	.loc 2 1417 0
	b .L824
.LVL1027:
.L847:
	.loc 2 1407 0
	blt- 4,.L824
.LVL1028:
.LBB3589:
.LBB3581:
.LBB3579:
	.loc 3 751 0
	lwz 9,0(31)
.LBB3575:
.LBB3576:
	.loc 3 350 0
	lwz 0,8(31)
.LBE3576:
.LBE3575:
	.loc 3 751 0
	addi 4,9,2
.LVL1029:
.LBB3578:
.LBB3577:
	.loc 3 350 0
	cmpw 7,4,0
	ble+ 7,.L832
	.loc 3 351 0
	mr 3,31
	li 5,1
	bl _ZN5idStr10ReAllocateEib
.LEHE143:
.LVL1030:
	lwz 9,0(31)
.L832:
.LBE3577:
.LBE3578:
	.loc 3 752 0
	lwz 11,4(31)
.LBE3579:
.LBE3581:
.LBE3589:
	.loc 2 1408 0
	li 27,1
.LBB3590:
.LBB3582:
.LBB3580:
	.loc 3 752 0
	stbx 23,11,9
	b .L845
.LVL1031:
.L848:
.LBE3580:
.LBE3582:
.LBE3590:
.LBB3591:
.LBB3571:
	.loc 2 1429 0
	addi 0,26,-1
	stw 0,40(1)
.LVL1032:
	b .L833
.LVL1033:
.L841:
	mr 31,3
.LVL1034:
.LBE3571:
.LBE3591:
	.loc 2 1396 0
	addi 3,1,8
	bl _ZN11fileDataPtrD1Ev
	mr 3,31
.LEHB144:
	bl _Unwind_Resume
.LEHE144:
.LBE3595:
.LBE3597:
	.cfi_endproc
.LFE2571:
	.section	.gcc_except_table
.LLSDA2571:
	.byte	0xff
	.byte	0xff
	.byte	0x1
	.uleb128 .LLSDACSE2571-.LLSDACSB2571
.LLSDACSB2571:
	.uleb128 .LEHB141-.LFB2571
	.uleb128 .LEHE141-.LEHB141
	.uleb128 0
	.uleb128 0
	.uleb128 .LEHB142-.LFB2571
	.uleb128 .LEHE142-.LEHB142
	.uleb128 .L841-.LFB2571
	.uleb128 0
	.uleb128 .LEHB143-.LFB2571
	.uleb128 .LEHE143-.LEHB143
	.uleb128 0
	.uleb128 0
	.uleb128 .LEHB144-.LFB2571
	.uleb128 .LEHE144-.LEHB144
	.uleb128 0
	.uleb128 0
.LLSDACSE2571:
	.section	".text"
	.size	_ZN7idLexer23ParseBracedSectionExactER5idStri, .-_ZN7idLexer23ParseBracedSectionExactER5idStri
	.align 2
	.globl _ZN7idLexer13Parse1DMatrixEiPf
	.type	_ZN7idLexer13Parse1DMatrixEiPf, @function
_ZN7idLexer13Parse1DMatrixEiPf:
.LFB2568:
	.loc 2 1303 0
	.cfi_startproc
.LVL1035:
	stwu 1,-24(1)
.LCFI191:
	.cfi_def_cfa_offset 24
	mflr 0
	stw 30,16(1)
	mr 30,4
	.cfi_offset 30, -8
	.cfi_register 65, 0
.LBB3598:
	.loc 2 1306 0
	lis 4,.LC67@ha
.LVL1036:
.LBE3598:
	.loc 2 1303 0
	stw 28,8(1)
.LBB3599:
	.loc 2 1306 0
	la 4,.LC67@l(4)
.LBE3599:
	.loc 2 1303 0
	stw 31,20(1)
	stw 0,28(1)
	mr 31,3
	.cfi_offset 65, 4
	.cfi_offset 31, -4
	.cfi_offset 28, -16
	stw 29,12(1)
	.loc 2 1303 0
	mr 28,5
.LBB3600:
	.loc 2 1306 0
	.cfi_offset 29, -12
	bl _ZN7idLexer17ExpectTokenStringEPKc
.LVL1037:
	cmpwi 7,3,0
	.loc 2 1307 0
	li 3,0
	.loc 2 1306 0
	beq- 7,.L850
.LVL1038:
	.loc 2 1310 0 discriminator 1
	cmpwi 7,30,0
	ble- 7,.L851
	.loc 2 1303 0
	addi 28,28,-4
.LVL1039:
.LBE3600:
	li 29,0
.LVL1040:
.L852:
.LBB3601:
	.loc 2 1311 0 discriminator 2
	mr 3,31
	li 4,0
	.loc 2 1310 0 discriminator 2
	addi 29,29,1
	.loc 2 1311 0 discriminator 2
	bl _ZN7idLexer10ParseFloatEPb
.LVL1041:
	.loc 2 1310 0 discriminator 2
	cmpw 7,29,30
	.loc 2 1311 0 discriminator 2
	stfsu 1,4(28)
	.loc 2 1310 0 discriminator 2
	bne+ 7,.L852
.LVL1042:
.L851:
	.loc 2 1314 0
	lis 4,.LC68@ha
	mr 3,31
	la 4,.LC68@l(4)
	bl _ZN7idLexer17ExpectTokenStringEPKc
	.loc 2 1307 0
	cntlzw 3,3
	srwi 3,3,5
	xori 3,3,1
.L850:
.LBE3601:
	.loc 2 1318 0
	lwz 0,28(1)
	lwz 28,8(1)
	mtlr 0
	lwz 29,12(1)
	lwz 30,16(1)
.LVL1043:
	lwz 31,20(1)
.LVL1044:
	addi 1,1,24
.LCFI192:
	.cfi_def_cfa_offset 0
	.cfi_restore 31
	.cfi_restore 30
	.cfi_restore 29
	.cfi_restore 28
	blr
	.cfi_endproc
.LFE2568:
	.size	_ZN7idLexer13Parse1DMatrixEiPf, .-_ZN7idLexer13Parse1DMatrixEiPf
	.align 2
	.globl _ZN7idLexer13Parse2DMatrixEiiPf
	.type	_ZN7idLexer13Parse2DMatrixEiiPf, @function
_ZN7idLexer13Parse2DMatrixEiiPf:
.LFB2569:
	.loc 2 1325 0
	.cfi_startproc
.LVL1045:
	stwu 1,-32(1)
.LCFI193:
	.cfi_def_cfa_offset 32
	mflr 0
	stw 31,28(1)
	mr 31,4
	.cfi_offset 31, -4
	.cfi_register 65, 0
.LBB3602:
	.loc 2 1328 0
	lis 4,.LC67@ha
.LVL1046:
.LBE3602:
	.loc 2 1325 0
	stw 27,12(1)
.LBB3603:
	.loc 2 1328 0
	la 4,.LC67@l(4)
.LBE3603:
	.loc 2 1325 0
	stw 29,20(1)
	stw 30,24(1)
	mr 29,3
	.cfi_offset 30, -8
	.cfi_offset 29, -12
	.cfi_offset 27, -20
	stw 0,36(1)
	mr 30,5
	stw 26,8(1)
	mr 27,6
	stw 28,16(1)
.LBB3604:
	.loc 2 1328 0
	.cfi_offset 28, -16
	.cfi_offset 26, -24
	.cfi_offset 65, 4
	bl _ZN7idLexer17ExpectTokenStringEPKc
.LVL1047:
	cmpwi 7,3,0
	.loc 2 1329 0
	li 3,0
	.loc 2 1328 0
	beq- 7,.L856
.LVL1048:
	.loc 2 1332 0 discriminator 1
	cmpwi 7,31,0
	ble- 7,.L857
	.loc 2 1325 0
	slwi 26,30,2
.LBE3604:
	li 28,0
	b .L858
.LVL1049:
.L862:
.LBB3605:
	.loc 2 1332 0
	beq- 6,.L857
.LVL1050:
.L858:
	.loc 2 1333 0
	mr 5,27
	mr 3,29
	mr 4,30
	.loc 2 1332 0
	addi 28,28,1
	.loc 2 1333 0
	bl _ZN7idLexer13Parse1DMatrixEiPf
	.loc 2 1332 0
	add 27,27,26
	.loc 2 1333 0
	cmpwi 7,3,0
	.loc 2 1332 0
	cmpw 6,28,31
	.loc 2 1333 0
	bne+ 7,.L862
	.loc 2 1334 0
	li 3,0
.L856:
.LBE3605:
	.loc 2 1342 0
	lwz 0,36(1)
	lwz 26,8(1)
	mtlr 0
	lwz 27,12(1)
	lwz 28,16(1)
	lwz 29,20(1)
.LVL1051:
	lwz 30,24(1)
.LVL1052:
	lwz 31,28(1)
.LVL1053:
	addi 1,1,32
	.cfi_remember_state
.LCFI194:
	.cfi_def_cfa_offset 0
	.cfi_restore 31
	.cfi_restore 30
	.cfi_restore 29
	.cfi_restore 28
	.cfi_restore 27
	.cfi_restore 26
	blr
.LVL1054:
.L857:
.LCFI195:
	.cfi_restore_state
.LBB3606:
	.loc 2 1338 0
	lis 4,.LC68@ha
	mr 3,29
	la 4,.LC68@l(4)
	bl _ZN7idLexer17ExpectTokenStringEPKc
.LBE3606:
	.loc 2 1342 0
	lwz 0,36(1)
.LBB3607:
	.loc 2 1329 0
	cntlzw 3,3
.LBE3607:
	.loc 2 1342 0
	lwz 26,8(1)
	mtlr 0
.LBB3608:
	.loc 2 1329 0
	srwi 3,3,5
.LBE3608:
	.loc 2 1342 0
	lwz 27,12(1)
.LBB3609:
	.loc 2 1329 0
	xori 3,3,1
.LBE3609:
	.loc 2 1342 0
	lwz 28,16(1)
	lwz 29,20(1)
.LVL1055:
	lwz 30,24(1)
.LVL1056:
	lwz 31,28(1)
.LVL1057:
	addi 1,1,32
	.cfi_restore 26
	.cfi_restore 27
	.cfi_restore 28
	.cfi_restore 29
	.cfi_restore 30
	.cfi_restore 31
.LCFI196:
	.cfi_def_cfa_offset 0
	blr
	.cfi_endproc
.LFE2569:
	.size	_ZN7idLexer13Parse2DMatrixEiiPf, .-_ZN7idLexer13Parse2DMatrixEiiPf
	.align 2
	.globl _ZN7idLexer13Parse3DMatrixEiiiPf
	.type	_ZN7idLexer13Parse3DMatrixEiiiPf, @function
_ZN7idLexer13Parse3DMatrixEiiiPf:
.LFB2570:
	.loc 2 1349 0
	.cfi_startproc
.LVL1058:
	stwu 1,-40(1)
.LCFI197:
	.cfi_def_cfa_offset 40
	mflr 0
	stw 31,36(1)
	mr 31,4
	.cfi_offset 31, -4
	.cfi_register 65, 0
.LBB3610:
	.loc 2 1352 0
	lis 4,.LC67@ha
.LVL1059:
.LBE3610:
	.loc 2 1349 0
	stw 26,16(1)
.LBB3611:
	.loc 2 1352 0
	la 4,.LC67@l(4)
.LBE3611:
	.loc 2 1349 0
	stw 28,24(1)
	stw 29,28(1)
	mr 28,3
	.cfi_offset 29, -12
	.cfi_offset 28, -16
	.cfi_offset 26, -24
	stw 30,32(1)
	mr 29,6
	stw 0,44(1)
	mr 30,5
	.cfi_offset 65, 4
	.cfi_offset 30, -8
	stw 25,12(1)
	mr 26,7
	stw 27,20(1)
.LBB3612:
	.loc 2 1352 0
	.cfi_offset 27, -20
	.cfi_offset 25, -28
	bl _ZN7idLexer17ExpectTokenStringEPKc
.LVL1060:
	cmpwi 7,3,0
	.loc 2 1353 0
	li 3,0
	.loc 2 1352 0
	beq- 7,.L864
.LVL1061:
	.loc 2 1356 0 discriminator 1
	cmpwi 7,31,0
	ble- 7,.L865
	.loc 2 1349 0
	mullw 25,29,30
.LBE3612:
	li 27,0
.LBB3613:
	slwi 25,25,2
	b .L866
.LVL1062:
.L870:
	.loc 2 1356 0
	beq- 6,.L865
.LVL1063:
.L866:
	.loc 2 1357 0
	mr 6,26
	mr 3,28
	mr 4,30
	mr 5,29
	bl _ZN7idLexer13Parse2DMatrixEiiPf
	.loc 2 1356 0
	addi 27,27,1
	.loc 2 1357 0
	cmpwi 7,3,0
	.loc 2 1356 0
	cmpw 6,27,31
	add 26,26,25
	.loc 2 1357 0
	bne+ 7,.L870
	.loc 2 1358 0
	li 3,0
.L864:
.LBE3613:
	.loc 2 1366 0
	lwz 0,44(1)
	lwz 25,12(1)
	mtlr 0
	lwz 26,16(1)
	lwz 27,20(1)
	lwz 28,24(1)
.LVL1064:
	lwz 29,28(1)
.LVL1065:
	lwz 30,32(1)
.LVL1066:
	lwz 31,36(1)
.LVL1067:
	addi 1,1,40
	.cfi_remember_state
.LCFI198:
	.cfi_def_cfa_offset 0
	.cfi_restore 31
	.cfi_restore 30
	.cfi_restore 29
	.cfi_restore 28
	.cfi_restore 27
	.cfi_restore 26
	.cfi_restore 25
	blr
.LVL1068:
.L865:
.LCFI199:
	.cfi_restore_state
.LBB3614:
	.loc 2 1362 0
	lis 4,.LC68@ha
	mr 3,28
	la 4,.LC68@l(4)
	bl _ZN7idLexer17ExpectTokenStringEPKc
.LBE3614:
	.loc 2 1366 0
	lwz 0,44(1)
.LBB3615:
	.loc 2 1353 0
	cntlzw 3,3
.LBE3615:
	.loc 2 1366 0
	lwz 25,12(1)
	mtlr 0
.LBB3616:
	.loc 2 1353 0
	srwi 3,3,5
.LBE3616:
	.loc 2 1366 0
	lwz 26,16(1)
.LBB3617:
	.loc 2 1353 0
	xori 3,3,1
.LBE3617:
	.loc 2 1366 0
	lwz 27,20(1)
	lwz 28,24(1)
.LVL1069:
	lwz 29,28(1)
.LVL1070:
	lwz 30,32(1)
.LVL1071:
	lwz 31,36(1)
.LVL1072:
	addi 1,1,40
	.cfi_restore 25
	.cfi_restore 26
	.cfi_restore 27
	.cfi_restore 28
	.cfi_restore 29
	.cfi_restore 30
	.cfi_restore 31
.LCFI200:
	.cfi_def_cfa_offset 0
	blr
	.cfi_endproc
.LFE2570:
	.size	_ZN7idLexer13Parse3DMatrixEiiiPf, .-_ZN7idLexer13Parse3DMatrixEiiiPf
	.align 2
	.globl _ZN7idLexer18ParseBracedSectionER5idStr
	.type	_ZN7idLexer18ParseBracedSectionER5idStr, @function
_ZN7idLexer18ParseBracedSectionER5idStr:
.LFB2572:
	.loc 2 1450 0
	.cfi_startproc
	.cfi_personality 0,__gxx_personality_v0
	.cfi_lsda 0,.LLSDA2572
.LVL1073:
	mflr 0
	stwu 1,-216(1)
.LCFI201:
	.cfi_def_cfa_offset 216
	.cfi_register 65, 0
.LVL1074:
	stw 22,176(1)
	mr 22,3
	.cfi_offset 22, -40
	stw 0,220(1)
.LBB3721:
.LBB3722:
.LBB3723:
.LBB3724:
.LBB3725:
	.loc 3 356 0
	li 0,0
	.cfi_offset 65, 4
.LBE3725:
.LBE3724:
.LBE3723:
.LBE3722:
.LBE3721:
	.loc 2 1450 0
	stw 31,212(1)
	mr 31,4
	.cfi_offset 31, -4
	stw 17,156(1)
	stw 18,160(1)
	stw 19,164(1)
	stw 20,168(1)
	stw 21,172(1)
	stw 23,180(1)
	stw 24,184(1)
	stw 25,188(1)
	stw 26,192(1)
	stw 27,196(1)
	stw 28,200(1)
	stw 29,204(1)
	stw 30,208(1)
.LBB3968:
.LBB3735:
.LBB3732:
.LBB3729:
.LBB3726:
	.loc 3 356 0
	stw 0,72(1)
.LBE3726:
.LBE3729:
.LBE3732:
.LBE3735:
.LBB3736:
.LBB3737:
.LBB3738:
.LBB3739:
	.loc 3 350 0
	lwz 9,8(4)
.LBE3739:
.LBE3738:
.LBE3737:
.LBE3736:
.LBB3751:
.LBB3733:
.LBB3730:
.LBB3727:
	.loc 3 359 0
	stb 0,84(1)
.LVL1075:
.LBE3727:
.LBE3730:
.LBE3733:
.LBE3751:
.LBB3752:
.LBB3746:
.LBB3743:
.LBB3740:
	.loc 3 350 0
	cmpwi 7,9,0
.LBE3740:
.LBE3743:
.LBE3746:
.LBE3752:
.LBB3753:
.LBB3734:
.LBB3731:
.LBB3728:
	.loc 3 357 0
	li 9,20
	stw 9,80(1)
	.loc 3 358 0
	addi 9,1,84
	stw 9,76(1)
.LBE3728:
.LBE3731:
.LBE3734:
.LBE3753:
.LBB3754:
.LBB3747:
.LBB3744:
.LBB3741:
	.loc 3 350 0
	ble- 7,.L937
	.cfi_offset 30, -8
	.cfi_offset 29, -12
	.cfi_offset 28, -16
	.cfi_offset 27, -20
	.cfi_offset 26, -24
	.cfi_offset 25, -28
	.cfi_offset 24, -32
	.cfi_offset 23, -36
	.cfi_offset 21, -44
	.cfi_offset 20, -48
	.cfi_offset 19, -52
	.cfi_offset 18, -56
	.cfi_offset 17, -60
.LVL1076:
.L872:
.LBE3741:
.LBE3744:
	.loc 3 737 0
	lwz 9,4(31)
	li 0,0
.LBE3747:
.LBE3754:
	.loc 2 1455 0
	lis 30,.LC37@ha
	mr 3,22
.LBB3755:
.LBB3748:
	.loc 3 737 0
	stb 0,0(9)
	.loc 3 738 0
	li 0,0
.LBE3748:
.LBE3755:
	.loc 2 1455 0
	la 30,.LC37@l(30)
.LBB3756:
.LBB3749:
	.loc 3 738 0
	stw 0,0(31)
.LBE3749:
.LBE3756:
	.loc 2 1455 0
	mr 4,30
	addi 27,1,72
.LEHB145:
	bl _ZN7idLexer17ExpectTokenStringEPKc
.LEHE145:
	cmpwi 7,3,0
	bne- 7,.L873
	.loc 2 2091 0
	lwz 31,4(31)
.LVL1077:
	addi 27,1,72
.L874:
.LVL1078:
.LBB3757:
.LBB3758:
.LBB3759:
.LBB3760:
.LBB3761:
	.loc 3 501 0
	mr 3,27
.LEHB146:
	bl _ZN5idStr8FreeDataEv
.LEHE146:
.LBE3761:
.LBE3760:
.LBE3759:
.LBE3758:
.LBE3757:
.LBE3968:
	.loc 2 1490 0
	lwz 0,220(1)
	mr 3,31
	lwz 17,156(1)
	mtlr 0
	lwz 18,160(1)
	lwz 19,164(1)
	lwz 20,168(1)
	lwz 21,172(1)
	lwz 22,176(1)
.LVL1079:
	lwz 23,180(1)
	lwz 24,184(1)
	lwz 25,188(1)
	lwz 26,192(1)
	lwz 27,196(1)
	lwz 28,200(1)
	lwz 29,204(1)
	lwz 30,208(1)
	lwz 31,212(1)
	addi 1,1,216
	.cfi_remember_state
.LCFI202:
	.cfi_def_cfa_offset 0
	.cfi_restore 31
	.cfi_restore 30
	.cfi_restore 29
	.cfi_restore 28
	.cfi_restore 27
	.cfi_restore 26
	.cfi_restore 25
	.cfi_restore 24
	.cfi_restore 23
	.cfi_restore 22
	.cfi_restore 21
	.cfi_restore 20
	.cfi_restore 19
	.cfi_restore 18
	.cfi_restore 17
	blr
.LVL1080:
.L937:
.LCFI203:
	.cfi_restore_state
.LBB3969:
.LBB3762:
.LBB3750:
.LBB3745:
.LBB3742:
	.loc 3 351 0
	mr 3,4
.LVL1081:
	li 5,1
	li 4,1
.LVL1082:
	addi 27,1,72
.LEHB147:
	bl _ZN5idStr10ReAllocateEib
	b .L872
.L873:
.LBE3742:
.LBE3745:
.LBE3750:
.LBE3762:
	.loc 2 1458 0
	mr 3,31
	mr 4,30
	addi 27,1,72
	bl _ZN5idStraSEPKc
	li 25,1
	addi 27,1,72
	.loc 2 1467 0
	li 18,0
.LBB3763:
.LBB3764:
.LBB3765:
.LBB3766:
.LBB3767:
	.loc 3 350 0
	lis 28,.LC70@ha
.LBE3767:
.LBE3766:
.LBE3765:
.LBE3764:
.LBE3763:
.LBB3782:
.LBB3783:
.LBB3784:
	.loc 3 767 0
	li 26,0
.LBE3784:
.LBE3783:
.LBE3782:
.LBB3799:
.LBB3800:
.LBB3801:
.LBB3802:
.LBB3803:
.LBB3804:
	.loc 3 357 0
	li 19,20
	.loc 3 358 0
	addi 20,1,52
	.loc 3 415 0
	li 17,8704
.LBE3804:
.LBE3803:
.LBE3802:
.LBE3801:
.LBE3800:
.LBE3799:
.LBB3845:
.LBB3846:
.LBB3847:
.LBB3848:
.LBB3849:
.LBB3850:
	.loc 3 358 0
	addi 21,1,20
.LBE3850:
.LBE3849:
.LBE3848:
.LBE3847:
.LBB3872:
.LBB3873:
	.loc 3 778 0
	li 23,34
.LBE3873:
.LBE3872:
.LBE3846:
.LBE3845:
.LBB3897:
.LBB3898:
.LBB3899:
	li 24,32
.L910:
.LVL1083:
.LBE3899:
.LBE3898:
.LBE3897:
	.loc 2 1461 0
	mr 3,22
	mr 4,27
	bl _ZN7idLexer9ReadTokenEP7idToken
	cmpwi 7,3,0
	beq- 7,.L875
.LVL1084:
	.loc 2 1467 0 discriminator 1
	lwz 0,116(1)
	li 30,0
	cmpwi 7,0,0
	ble- 7,.L877
.LVL1085:
.L930:
.LBB3912:
.LBB3778:
.LBB3774:
	.loc 3 775 0
	lwz 11,0(31)
.LBB3771:
.LBB3768:
	.loc 3 350 0
	lwz 0,8(31)
.LBE3768:
.LBE3771:
	.loc 3 776 0
	addi 4,11,3
	.loc 3 775 0
	addi 29,11,2
.LVL1086:
.LBB3772:
.LBB3769:
	.loc 3 350 0
	cmpw 7,4,0
	bgt- 7,.L878
.LVL1087:
.L880:
	la 10,.LC70@l(28)
.LBE3769:
.LBE3772:
.LBE3774:
.LBE3778:
.LBE3912:
	.loc 2 1467 0
	li 0,13
	li 9,0
	b .L879
.LVL1088:
.L938:
.LBB3913:
.LBB3779:
.LBB3775:
	.loc 3 777 0
	lwz 11,0(31)
.LVL1089:
.L879:
	.loc 3 778 0
	lwz 8,4(31)
	add 11,8,11
	stbx 0,11,9
	.loc 3 777 0
	addi 9,9,1
.LVL1090:
	lbzu 0,1(10)
	cmpwi 7,0,0
	bne+ 7,.L938
	.loc 3 781 0
	lwz 9,4(31)
.LVL1091:
.LBE3775:
.LBE3779:
.LBE3913:
	.loc 2 1467 0
	addi 30,30,1
.LVL1092:
.LBB3914:
.LBB3780:
.LBB3776:
	.loc 3 780 0
	stw 29,0(31)
	.loc 3 781 0
	stbx 0,9,29
.LBE3776:
.LBE3780:
.LBE3914:
	.loc 2 1467 0
	lwz 0,116(1)
	cmpw 7,0,30
	bgt+ 7,.L930
.LVL1093:
.L877:
	.loc 2 1471 0
	lwz 0,104(1)
	cmpwi 7,0,5
	beq- 7,.L939
	.loc 2 1480 0
	cmpwi 7,0,1
	beq- 7,.L940
.LVL1094:
.L885:
.LBB3915:
.LBB3797:
	.loc 2 2091 0
	lwz 0,0(27)
.LBB3795:
	.loc 3 761 0
	lwz 30,0(31)
.LBB3785:
.LBB3786:
	.loc 3 350 0
	lwz 9,8(31)
.LBE3786:
.LBE3785:
	.loc 3 761 0
	add 30,0,30
.LVL1095:
	.loc 3 762 0
	addi 4,30,1
.LVL1096:
.LBB3789:
.LBB3787:
	.loc 3 350 0
	cmpw 7,4,9
	bgt- 7,.L905
.LVL1097:
.L908:
.LBE3787:
.LBE3789:
	.loc 3 763 0
	cmpwi 7,0,0
	li 9,0
	ble- 7,.L907
.LVL1098:
.L927:
.LBB3790:
.LBB3791:
	.loc 3 522 0
	lwz 8,4(27)
.LBE3791:
.LBE3790:
	.loc 3 764 0
	lwz 10,4(31)
	lwz 11,0(31)
.LBB3793:
.LBB3792:
	.loc 3 522 0
	lbzx 0,8,9
.LBE3792:
.LBE3793:
	.loc 3 764 0
	add 11,10,11
	stbx 0,11,9
	.loc 3 763 0
	addi 9,9,1
.LVL1099:
	lwz 0,72(1)
	cmpw 7,9,0
	blt+ 7,.L927
.LVL1100:
.L907:
	.loc 3 767 0
	lwz 9,4(31)
	.loc 3 766 0
	stw 30,0(31)
	.loc 3 767 0
	stbx 26,9,30
.LVL1101:
.L904:
.LBE3795:
.LBE3797:
.LBE3915:
.LBB3916:
.LBB3909:
.LBB3906:
	.loc 3 775 0
	lwz 11,0(31)
.LBB3900:
.LBB3901:
	.loc 3 350 0
	lwz 0,8(31)
.LBE3901:
.LBE3900:
	.loc 3 775 0
	addi 30,11,1
.LVL1102:
	.loc 3 776 0
	addi 4,30,1
.LVL1103:
.LBB3904:
.LBB3902:
	.loc 3 350 0
	cmpw 7,4,0
	bgt- 7,.L941
.LVL1104:
.L909:
.LBE3902:
.LBE3904:
	.loc 3 778 0
	lwz 9,4(31)
.LBE3906:
.LBE3909:
.LBE3916:
	.loc 2 1460 0
	cmpwi 7,25,0
.LBB3917:
.LBB3910:
.LBB3907:
	.loc 3 778 0
	stbx 24,9,11
.LVL1105:
	.loc 3 780 0
	stw 30,0(31)
	.loc 3 781 0
	lwz 9,4(31)
	stbx 26,9,30
.LBE3907:
.LBE3910:
.LBE3917:
	.loc 2 1460 0
	bne+ 7,.L910
	.loc 2 2091 0
	lwz 31,4(31)
.LVL1106:
	b .L874
.LVL1107:
.L878:
.LBB3918:
.LBB3781:
.LBB3777:
.LBB3773:
.LBB3770:
	.loc 3 351 0
	mr 3,31
	li 5,1
	bl _ZN5idStr10ReAllocateEib
.LVL1108:
	lwz 11,0(31)
	b .L880
.LVL1109:
.L941:
.LBE3770:
.LBE3773:
.LBE3777:
.LBE3781:
.LBE3918:
.LBB3919:
.LBB3911:
.LBB3908:
.LBB3905:
.LBB3903:
	mr 3,31
	li 5,1
	bl _ZN5idStr10ReAllocateEib
.LVL1110:
	lwz 11,0(31)
	b .L909
.LVL1111:
.L905:
.LBE3903:
.LBE3905:
.LBE3908:
.LBE3911:
.LBE3919:
.LBB3920:
.LBB3798:
.LBB3796:
.LBB3794:
.LBB3788:
	mr 3,31
	li 5,1
	bl _ZN5idStr10ReAllocateEib
.LEHE147:
.LVL1112:
	lwz 0,72(1)
	b .L908
.LVL1113:
.L940:
.LBE3788:
.LBE3794:
.LBE3796:
.LBE3798:
.LBE3920:
.LBB3921:
.LBB3841:
.LBB3814:
	.loc 2 2091 0
	lwz 30,0(27)
.LBE3814:
.LBB3830:
.LBB3811:
.LBB3808:
.LBB3805:
	.loc 3 357 0
	stw 19,48(1)
.LBE3805:
.LBE3808:
.LBE3811:
.LBE3830:
.LBB3831:
.LBB3815:
	.loc 3 762 0
	addi 4,30,2
.LBE3815:
.LBE3831:
.LBB3832:
.LBB3812:
.LBB3809:
.LBB3806:
	.loc 3 358 0
	stw 20,44(1)
.LVL1114:
.LBE3806:
.LBE3809:
.LBE3812:
.LBE3832:
.LBB3833:
.LBB3826:
.LBB3816:
.LBB3817:
	.loc 3 350 0
	cmpwi 7,4,20
.LBE3817:
.LBE3816:
.LBE3826:
.LBE3833:
.LBB3834:
.LBB3813:
.LBB3810:
.LBB3807:
	.loc 3 415 0
	sth 17,0(20)
.LBE3807:
.LBE3810:
	.loc 3 416 0
	stw 0,40(1)
.LVL1115:
.LBE3813:
.LBE3834:
.LBB3835:
.LBB3827:
.LBB3820:
.LBB3818:
	.loc 3 350 0
	bgt- 7,.L886
	mr 0,30
.LVL1116:
.L889:
.LBE3818:
.LBE3820:
	.loc 3 763 0
	cmpwi 7,0,0
	li 9,0
	ble- 7,.L888
.LVL1117:
.L929:
.LBB3821:
.LBB3822:
	.loc 3 522 0
	lwz 11,4(27)
.LBE3822:
.LBE3821:
	.loc 3 764 0
	lwz 10,44(1)
.LBB3824:
.LBB3823:
	.loc 3 522 0
	lbzx 0,11,9
.LBE3823:
.LBE3824:
	.loc 3 764 0
	lwz 11,40(1)
	add 11,10,11
	stbx 0,11,9
	.loc 3 763 0
	addi 9,9,1
.LVL1118:
	lwz 0,72(1)
	cmpw 7,9,0
	blt+ 7,.L929
.LVL1119:
.L888:
	.loc 3 767 0
	lwz 9,44(1)
	.loc 3 761 0
	addi 30,30,1
.LVL1120:
	.loc 3 766 0
	stw 30,40(1)
.LBE3827:
.LBE3835:
.LBE3841:
.LBE3921:
.LBB3922:
.LBB3893:
.LBB3883:
.LBB3867:
.LBB3855:
.LBB3856:
	.loc 3 358 0
	mr 3,21
.LBE3856:
.LBE3855:
.LBE3867:
.LBE3883:
.LBE3893:
.LBE3922:
.LBB3923:
.LBB3842:
.LBB3836:
.LBB3828:
	.loc 3 767 0
	stbx 26,9,30
.LVL1121:
.LBE3828:
.LBE3836:
.LBE3842:
.LBE3923:
.LBB3924:
.LBB3894:
.LBB3884:
.LBB3868:
.LBB3860:
.LBB3851:
	.loc 3 356 0
	stw 18,8(1)
.LBE3851:
.LBE3860:
.LBE3868:
	.loc 2 2091 0
	lwz 29,40(1)
.LBB3869:
.LBB3861:
.LBB3852:
	.loc 3 357 0
	stw 19,16(1)
.LBE3852:
.LBE3861:
	.loc 3 374 0
	addi 30,29,1
.LVL1122:
.LBB3862:
.LBB3853:
	.loc 3 358 0
	stw 21,12(1)
.LBE3853:
.LBE3862:
.LBB3863:
.LBB3857:
	.loc 3 350 0
	cmpwi 7,30,20
.LBE3857:
.LBE3863:
.LBB3864:
.LBB3854:
	.loc 3 359 0
	stb 18,20(1)
.LBE3854:
.LBE3864:
.LBB3865:
.LBB3858:
	.loc 3 350 0
	bgt- 7,.L942
.LVL1123:
.L891:
.LBE3858:
.LBE3865:
	.loc 3 375 0
	lwz 4,44(1)
	bl strcpy
.LBE3869:
.LBE3884:
.LBB3885:
.LBB3880:
.LBB3874:
.LBB3875:
	.loc 3 350 0
	lwz 0,16(1)
.LBE3875:
.LBE3874:
	.loc 3 776 0
	addi 4,30,1
.LBE3880:
.LBE3885:
.LBB3886:
.LBB3870:
	.loc 3 376 0
	stw 29,8(1)
.LVL1124:
.LBE3870:
.LBE3886:
.LBB3887:
.LBB3881:
.LBB3878:
.LBB3876:
	.loc 3 350 0
	cmpw 7,4,0
	bgt- 7,.L943
.LVL1125:
.L895:
.LBE3876:
.LBE3878:
	.loc 3 778 0
	lwz 9,12(1)
	stbx 23,9,29
.LVL1126:
	.loc 3 780 0
	stw 30,8(1)
	.loc 3 781 0
	lwz 9,12(1)
	stbx 26,9,30
.LVL1127:
.LBE3881:
.LBE3887:
.LBE3894:
.LBE3924:
.LBB3925:
.LBB3926:
	.loc 2 2091 0
	lwz 0,8(1)
.LBB3927:
	.loc 3 761 0
	lwz 30,0(31)
.LVL1128:
.LBB3928:
.LBB3929:
	.loc 3 350 0
	lwz 9,8(31)
.LBE3929:
.LBE3928:
	.loc 3 761 0
	add 30,0,30
.LVL1129:
	.loc 3 762 0
	addi 4,30,1
.LVL1130:
.LBB3932:
.LBB3930:
	.loc 3 350 0
	cmpw 7,4,9
	bgt- 7,.L896
.LVL1131:
.L902:
.LBE3930:
.LBE3932:
	.loc 3 763 0
	cmpwi 7,0,0
	li 9,0
	ble- 7,.L898
.LVL1132:
.L928:
.LBB3933:
.LBB3934:
	.loc 3 522 0
	lwz 8,12(1)
.LBE3934:
.LBE3933:
	.loc 3 764 0
	lwz 10,4(31)
	lwz 11,0(31)
.LBB3936:
.LBB3935:
	.loc 3 522 0
	lbzx 0,8,9
.LBE3935:
.LBE3936:
	.loc 3 764 0
	add 11,10,11
	stbx 0,11,9
	.loc 3 763 0
	addi 9,9,1
.LVL1133:
	lwz 0,8(1)
	cmpw 7,9,0
	blt+ 7,.L928
.LVL1134:
.L898:
	.loc 3 767 0
	lwz 9,4(31)
.LBE3927:
.LBE3926:
.LBE3925:
.LBB3942:
.LBB3943:
.LBB3944:
	.loc 3 501 0
	addi 3,1,8
.LBE3944:
.LBE3943:
.LBE3942:
.LBB3947:
.LBB3940:
.LBB3938:
	.loc 3 766 0
	stw 30,0(31)
	.loc 3 767 0
	stbx 26,9,30
.LVL1135:
.LEHB148:
.LBE3938:
.LBE3940:
.LBE3947:
.LBB3948:
.LBB3946:
.LBB3945:
	.loc 3 501 0
	bl _ZN5idStr8FreeDataEv
.LEHE148:
.LVL1136:
.LBE3945:
.LBE3946:
.LBE3948:
.LBB3949:
.LBB3950:
.LBB3951:
	addi 3,1,40
.LEHB149:
	bl _ZN5idStr8FreeDataEv
.LEHE149:
	b .L904
.LVL1137:
.L939:
.LBE3951:
.LBE3950:
.LBE3949:
	.loc 2 1472 0
	lwz 9,4(27)
	lbz 0,0(9)
	cmpwi 7,0,123
	beq- 7,.L944
.LVL1138:
	.loc 2 1476 0
	xori 0,0,125
	cntlzw 0,0
	srwi 0,0,5
	subf 25,0,25
.LVL1139:
	b .L885
.LVL1140:
.L896:
.LBB3952:
.LBB3941:
.LBB3939:
.LBB3937:
.LBB3931:
	.loc 3 351 0
	mr 3,31
	li 5,1
.LEHB150:
	bl _ZN5idStr10ReAllocateEib
.LEHE150:
.LVL1141:
	lwz 0,8(1)
	b .L902
.LVL1142:
.L943:
.LBE3931:
.LBE3937:
.LBE3939:
.LBE3941:
.LBE3952:
.LBB3953:
.LBB3895:
.LBB3888:
.LBB3882:
.LBB3879:
.LBB3877:
	addi 3,1,8
	li 5,1
.LEHB151:
	bl _ZN5idStr10ReAllocateEib
.LEHE151:
.LVL1143:
	lwz 29,8(1)
	b .L895
.LVL1144:
.L942:
.LBE3877:
.LBE3879:
.LBE3882:
.LBE3888:
.LBB3889:
.LBB3871:
.LBB3866:
.LBB3859:
	addi 3,1,8
	mr 4,30
	li 5,1
.LEHB152:
	bl _ZN5idStr10ReAllocateEib
.LEHE152:
.LVL1145:
	lwz 3,12(1)
	b .L891
.LVL1146:
.L886:
.LBE3859:
.LBE3866:
.LBE3871:
.LBE3889:
.LBE3895:
.LBE3953:
.LBB3954:
.LBB3843:
.LBB3837:
.LBB3829:
.LBB3825:
.LBB3819:
	addi 3,1,40
	li 5,1
.LEHB153:
	bl _ZN5idStr10ReAllocateEib
.LEHE153:
.LVL1147:
	lwz 0,72(1)
	b .L889
.LVL1148:
.L944:
.LBE3819:
.LBE3825:
.LBE3829:
.LBE3837:
.LBE3843:
.LBE3954:
	.loc 2 1473 0
	addi 25,25,1
.LVL1149:
	b .L885
.LVL1150:
.L875:
	.loc 2 1462 0
	lis 4,.LC69@ha
	mr 3,22
	la 4,.LC69@l(4)
.LEHB154:
	crxor 6,6,6
	bl _ZN7idLexer5ErrorEPKcz
.LEHE154:
	.loc 2 2091 0
	lwz 31,4(31)
.LVL1151:
	b .L874
.LVL1152:
.L923:
	mr 31,3
.LVL1153:
.L901:
.LBB3955:
.LBB3956:
.LBB3957:
	.loc 3 501 0
	addi 3,1,40
	bl _ZN5idStr8FreeDataEv
.LVL1154:
.L894:
.LBE3957:
.LBE3956:
.LBE3955:
.LBB3958:
.LBB3959:
.LBB3960:
.LBB3961:
.LBB3962:
	mr 3,27
	bl _ZN5idStr8FreeDataEv
	mr 3,31
.LEHB155:
	bl _Unwind_Resume
.LEHE155:
.LVL1155:
.L924:
	mr 31,3
.LVL1156:
.LBE3962:
.LBE3961:
.LBE3960:
.LBE3959:
.LBE3958:
.LBB3963:
.LBB3964:
.LBB3965:
	addi 3,1,8
	bl _ZN5idStr8FreeDataEv
	b .L901
.LVL1157:
.L926:
	mr 31,3
.LVL1158:
.LBE3965:
.LBE3964:
.LBE3963:
.LBB3966:
.LBB3896:
.LBB3890:
.LBB3891:
.LBB3892:
	addi 3,1,8
	bl _ZN5idStr8FreeDataEv
	b .L901
.LVL1159:
.L925:
	mr 31,3
.LVL1160:
.LBE3892:
.LBE3891:
.LBE3890:
.LBE3896:
.LBE3966:
.LBB3967:
.LBB3844:
.LBB3838:
.LBB3839:
.LBB3840:
	addi 3,1,40
	bl _ZN5idStr8FreeDataEv
	b .L894
.LVL1161:
.L922:
	mr 31,3
.LVL1162:
	b .L894
.LBE3840:
.LBE3839:
.LBE3838:
.LBE3844:
.LBE3967:
.LBE3969:
	.cfi_endproc
.LFE2572:
	.section	.gcc_except_table
.LLSDA2572:
	.byte	0xff
	.byte	0xff
	.byte	0x1
	.uleb128 .LLSDACSE2572-.LLSDACSB2572
.LLSDACSB2572:
	.uleb128 .LEHB145-.LFB2572
	.uleb128 .LEHE145-.LEHB145
	.uleb128 .L922-.LFB2572
	.uleb128 0
	.uleb128 .LEHB146-.LFB2572
	.uleb128 .LEHE146-.LEHB146
	.uleb128 0
	.uleb128 0
	.uleb128 .LEHB147-.LFB2572
	.uleb128 .LEHE147-.LEHB147
	.uleb128 .L922-.LFB2572
	.uleb128 0
	.uleb128 .LEHB148-.LFB2572
	.uleb128 .LEHE148-.LEHB148
	.uleb128 .L923-.LFB2572
	.uleb128 0
	.uleb128 .LEHB149-.LFB2572
	.uleb128 .LEHE149-.LEHB149
	.uleb128 .L922-.LFB2572
	.uleb128 0
	.uleb128 .LEHB150-.LFB2572
	.uleb128 .LEHE150-.LEHB150
	.uleb128 .L924-.LFB2572
	.uleb128 0
	.uleb128 .LEHB151-.LFB2572
	.uleb128 .LEHE151-.LEHB151
	.uleb128 .L926-.LFB2572
	.uleb128 0
	.uleb128 .LEHB152-.LFB2572
	.uleb128 .LEHE152-.LEHB152
	.uleb128 .L923-.LFB2572
	.uleb128 0
	.uleb128 .LEHB153-.LFB2572
	.uleb128 .LEHE153-.LEHB153
	.uleb128 .L925-.LFB2572
	.uleb128 0
	.uleb128 .LEHB154-.LFB2572
	.uleb128 .LEHE154-.LEHB154
	.uleb128 .L922-.LFB2572
	.uleb128 0
	.uleb128 .LEHB155-.LFB2572
	.uleb128 .LEHE155-.LEHB155
	.uleb128 0
	.uleb128 0
.LLSDACSE2572:
	.section	".text"
	.size	_ZN7idLexer18ParseBracedSectionER5idStr, .-_ZN7idLexer18ParseBracedSectionER5idStr
	.align 2
	.globl _ZN11fileDataPtrppEv
	.type	_ZN11fileDataPtrppEv, @function
_ZN11fileDataPtrppEv:
.LFB2619:
	.loc 2 2009 0
	.cfi_startproc
.LVL1163:
	.loc 2 2010 0
	lwz 11,0(3)
	.loc 2 2013 0
	.loc 2 2010 0
	addi 0,11,1
	stw 0,0(3)
	.loc 2 2013 0
	blr
	.cfi_endproc
.LFE2619:
	.size	_ZN11fileDataPtrppEv, .-_ZN11fileDataPtrppEv
	.align 2
	.globl _ZN11fileDataPtrppEi
	.type	_ZN11fileDataPtrppEi, @function
_ZN11fileDataPtrppEi:
.LFB2620:
	.loc 2 2015 0
	.cfi_startproc
.LVL1164:
	stwu 1,-16(1)
.LCFI204:
	.cfi_def_cfa_offset 16
	mflr 0
	stw 31,12(1)
	mr 31,4
	.cfi_offset 31, -4
	.cfi_register 65, 0
	stw 0,20(1)
	stw 30,8(1)
	.loc 2 2015 0
	mr 30,3
	.cfi_offset 30, -8
	.cfi_offset 65, 4
.LBB3970:
	.loc 2 2016 0
	bl _ZN11fileDataPtrC1ERS_
.LVL1165:
	.loc 2 2017 0
	lwz 9,0(31)
.LBE3970:
	.loc 2 2020 0
	mr 3,30
.LBB3971:
	.loc 2 2017 0
	addi 0,9,1
	stw 0,0(31)
.LBE3971:
	.loc 2 2020 0
	lwz 0,20(1)
	lwz 30,8(1)
.LVL1166:
	mtlr 0
	lwz 31,12(1)
.LVL1167:
	addi 1,1,16
.LCFI205:
	.cfi_def_cfa_offset 0
	.cfi_restore 31
	.cfi_restore 30
	blr
	.cfi_endproc
.LFE2620:
	.size	_ZN11fileDataPtrppEi, .-_ZN11fileDataPtrppEi
	.align 2
	.globl _ZN11fileDataPtrmmEv
	.type	_ZN11fileDataPtrmmEv, @function
_ZN11fileDataPtrmmEv:
.LFB2621:
	.loc 2 2022 0
	.cfi_startproc
.LVL1168:
	.loc 2 2023 0
	lwz 11,0(3)
	.loc 2 2026 0
	.loc 2 2023 0
	addi 0,11,-1
	stw 0,0(3)
	.loc 2 2026 0
	blr
	.cfi_endproc
.LFE2621:
	.size	_ZN11fileDataPtrmmEv, .-_ZN11fileDataPtrmmEv
	.align 2
	.globl _ZN11fileDataPtrmmEi
	.type	_ZN11fileDataPtrmmEi, @function
_ZN11fileDataPtrmmEi:
.LFB2622:
	.loc 2 2028 0
	.cfi_startproc
.LVL1169:
	stwu 1,-16(1)
.LCFI206:
	.cfi_def_cfa_offset 16
	mflr 0
	stw 31,12(1)
	mr 31,4
	.cfi_offset 31, -4
	.cfi_register 65, 0
	stw 0,20(1)
	stw 30,8(1)
	.loc 2 2028 0
	mr 30,3
	.cfi_offset 30, -8
	.cfi_offset 65, 4
.LBB3972:
	.loc 2 2029 0
	bl _ZN11fileDataPtrC1ERS_
.LVL1170:
	.loc 2 2030 0
	lwz 9,0(31)
.LBE3972:
	.loc 2 2033 0
	mr 3,30
.LBB3973:
	.loc 2 2030 0
	addi 0,9,-1
	stw 0,0(31)
.LBE3973:
	.loc 2 2033 0
	lwz 0,20(1)
	lwz 30,8(1)
.LVL1171:
	mtlr 0
	lwz 31,12(1)
.LVL1172:
	addi 1,1,16
.LCFI207:
	.cfi_def_cfa_offset 0
	.cfi_restore 31
	.cfi_restore 30
	blr
	.cfi_endproc
.LFE2622:
	.size	_ZN11fileDataPtrmmEi, .-_ZN11fileDataPtrmmEi
	.align 2
	.globl _ZN11fileDataPtrpLERKi
	.type	_ZN11fileDataPtrpLERKi, @function
_ZN11fileDataPtrpLERKi:
.LFB2623:
	.loc 2 2035 0
	.cfi_startproc
.LVL1173:
	.loc 2 2037 0
	lwz 0,0(3)
	.loc 2 2039 0
	.loc 2 2037 0
	lwz 11,0(4)
	add 0,0,11
	stw 0,0(3)
	.loc 2 2039 0
	blr
	.cfi_endproc
.LFE2623:
	.size	_ZN11fileDataPtrpLERKi, .-_ZN11fileDataPtrpLERKi
	.align 2
	.globl _ZN11fileDataPtrmIERKi
	.type	_ZN11fileDataPtrmIERKi, @function
_ZN11fileDataPtrmIERKi:
.LFB2624:
	.loc 2 2041 0
	.cfi_startproc
.LVL1174:
	.loc 2 2043 0
	lwz 0,0(3)
	.loc 2 2045 0
	.loc 2 2043 0
	lwz 11,0(4)
	subf 0,11,0
	stw 0,0(3)
	.loc 2 2045 0
	blr
	.cfi_endproc
.LFE2624:
	.size	_ZN11fileDataPtrmIERKi, .-_ZN11fileDataPtrmIERKi
	.align 2
	.globl _ZN11fileDataPtrplERKi
	.type	_ZN11fileDataPtrplERKi, @function
_ZN11fileDataPtrplERKi:
.LFB2625:
	.loc 2 2047 0
	.cfi_startproc
.LVL1175:
	stwu 1,-16(1)
.LCFI208:
	.cfi_def_cfa_offset 16
	mflr 0
	stw 30,8(1)
	mr 30,5
	.cfi_offset 30, -8
	.cfi_register 65, 0
	stw 31,12(1)
	mr 31,3
	.cfi_offset 31, -4
	stw 0,20(1)
.LBB3974:
	.loc 2 2049 0
	.cfi_offset 65, 4
	bl _ZN11fileDataPtrC1ERS_
.LVL1176:
	.loc 2 2050 0
	lwz 9,0(31)
.LBE3974:
	.loc 2 2052 0
	mr 3,31
.LBB3975:
	.loc 2 2050 0
	lwz 0,0(30)
	add 0,9,0
	stw 0,0(31)
.LBE3975:
	.loc 2 2052 0
	lwz 0,20(1)
	lwz 30,8(1)
.LVL1177:
	mtlr 0
	lwz 31,12(1)
.LVL1178:
	addi 1,1,16
.LCFI209:
	.cfi_def_cfa_offset 0
	.cfi_restore 31
	.cfi_restore 30
	blr
	.cfi_endproc
.LFE2625:
	.size	_ZN11fileDataPtrplERKi, .-_ZN11fileDataPtrplERKi
	.align 2
	.globl _ZN11fileDataPtrmiERKi
	.type	_ZN11fileDataPtrmiERKi, @function
_ZN11fileDataPtrmiERKi:
.LFB2626:
	.loc 2 2054 0
	.cfi_startproc
.LVL1179:
	stwu 1,-16(1)
.LCFI210:
	.cfi_def_cfa_offset 16
	mflr 0
	stw 30,8(1)
	mr 30,5
	.cfi_offset 30, -8
	.cfi_register 65, 0
	stw 31,12(1)
	mr 31,3
	.cfi_offset 31, -4
	stw 0,20(1)
.LBB3976:
	.loc 2 2056 0
	.cfi_offset 65, 4
	bl _ZN11fileDataPtrC1ERS_
.LVL1180:
	.loc 2 2057 0
	lwz 9,0(31)
.LBE3976:
	.loc 2 2060 0
	mr 3,31
.LBB3977:
	.loc 2 2057 0
	lwz 0,0(30)
	subf 0,0,9
	stw 0,0(31)
.LBE3977:
	.loc 2 2060 0
	lwz 0,20(1)
	lwz 30,8(1)
.LVL1181:
	mtlr 0
	lwz 31,12(1)
.LVL1182:
	addi 1,1,16
.LCFI211:
	.cfi_def_cfa_offset 0
	.cfi_restore 31
	.cfi_restore 30
	blr
	.cfi_endproc
.LFE2626:
	.size	_ZN11fileDataPtrmiERKi, .-_ZN11fileDataPtrmiERKi
	.align 2
	.globl _ZN11fileDataPtraSERKi
	.type	_ZN11fileDataPtraSERKi, @function
_ZN11fileDataPtraSERKi:
.LFB2627:
	.loc 2 2062 0
	.cfi_startproc
.LVL1183:
	.loc 2 2064 0
	lwz 0,0(4)
	.loc 2 2066 0
	.loc 2 2064 0
	stw 0,0(3)
	.loc 2 2066 0
	blr
	.cfi_endproc
.LFE2627:
	.size	_ZN11fileDataPtraSERKi, .-_ZN11fileDataPtraSERKi
	.align 2
	.globl _ZNK11fileDataPtreqERKi
	.type	_ZNK11fileDataPtreqERKi, @function
_ZNK11fileDataPtreqERKi:
.LFB2628:
	.loc 2 2069 0
	.cfi_startproc
.LVL1184:
	.loc 2 2070 0
	lwz 0,0(3)
	.loc 2 2071 0
	.loc 2 2070 0
	lwz 3,0(4)
.LVL1185:
	.loc 2 2071 0
	xor 3,0,3
	cntlzw 3,3
	srwi 3,3,5
	blr
	.cfi_endproc
.LFE2628:
	.size	_ZNK11fileDataPtreqERKi, .-_ZNK11fileDataPtreqERKi
	.align 2
	.globl _ZNK11fileDataPtrneERKi
	.type	_ZNK11fileDataPtrneERKi, @function
_ZNK11fileDataPtrneERKi:
.LFB2629:
	.loc 2 2073 0
	.cfi_startproc
.LVL1186:
	.loc 2 2074 0
	lwz 0,0(3)
	.loc 2 2075 0
	.loc 2 2074 0
	lwz 9,0(4)
	xor 0,0,9
	cntlzw 0,0
	srwi 0,0,5
	.loc 2 2075 0
	xori 3,0,1
.LVL1187:
	blr
	.cfi_endproc
.LFE2629:
	.size	_ZNK11fileDataPtrneERKi, .-_ZNK11fileDataPtrneERKi
	.align 2
	.globl _ZNK11fileDataPtrltERKi
	.type	_ZNK11fileDataPtrltERKi, @function
_ZNK11fileDataPtrltERKi:
.LFB2630:
	.loc 2 2077 0
	.cfi_startproc
.LVL1188:
	.loc 2 2078 0
	lwz 0,0(3)
	.loc 2 2079 0
	.loc 2 2078 0
	lwz 9,0(4)
	cmpw 7,0,9
	.loc 2 2079 0
	mfcr 3
	rlwinm 3,3,29,1
.LVL1189:
	blr
	.cfi_endproc
.LFE2630:
	.size	_ZNK11fileDataPtrltERKi, .-_ZNK11fileDataPtrltERKi
	.align 2
	.globl _ZNK11fileDataPtrgtERKi
	.type	_ZNK11fileDataPtrgtERKi, @function
_ZNK11fileDataPtrgtERKi:
.LFB2631:
	.loc 2 2081 0
	.cfi_startproc
.LVL1190:
	.loc 2 2082 0
	lwz 0,0(3)
	.loc 2 2083 0
	.loc 2 2082 0
	lwz 9,0(4)
	cmpw 7,0,9
	.loc 2 2083 0
	mfcr 3
	rlwinm 3,3,30,1
.LVL1191:
	blr
	.cfi_endproc
.LFE2631:
	.size	_ZNK11fileDataPtrgtERKi, .-_ZNK11fileDataPtrgtERKi
	.align 2
	.globl _ZNK11fileDataPtrleERKi
	.type	_ZNK11fileDataPtrleERKi, @function
_ZNK11fileDataPtrleERKi:
.LFB2632:
	.loc 2 2085 0
	.cfi_startproc
.LVL1192:
	.loc 2 2086 0
	lwz 0,0(3)
	.loc 2 2087 0
	.loc 2 2086 0
	lwz 9,0(4)
	cmpw 7,0,9
	crnot 30,29
	.loc 2 2087 0
	mfcr 3
	rlwinm 3,3,31,1
.LVL1193:
	blr
	.cfi_endproc
.LFE2632:
	.size	_ZNK11fileDataPtrleERKi, .-_ZNK11fileDataPtrleERKi
	.align 2
	.globl _ZNK11fileDataPtrgeERKi
	.type	_ZNK11fileDataPtrgeERKi, @function
_ZNK11fileDataPtrgeERKi:
.LFB2633:
	.loc 2 2089 0
	.cfi_startproc
.LVL1194:
	.loc 2 2090 0
	lwz 0,0(3)
	.loc 2 2091 0
	.loc 2 2090 0
	lwz 9,0(4)
	cmpw 7,0,9
	crnot 30,28
	.loc 2 2091 0
	mfcr 3
	rlwinm 3,3,31,1
.LVL1195:
	blr
	.cfi_endproc
.LFE2633:
	.size	_ZNK11fileDataPtrgeERKi, .-_ZNK11fileDataPtrgeERKi
	.weak	_ZTS9idWinding
	.section	.rodata._ZTS9idWinding,"aG",@progbits,_ZTS9idWinding,comdat
	.align 2
	.type	_ZTS9idWinding, @object
	.size	_ZTS9idWinding, 11
_ZTS9idWinding:
	.string	"9idWinding"
	.weak	_ZTI9idWinding
	.section	.sdata._ZTI9idWinding,"awG",@progbits,_ZTI9idWinding,comdat
	.align 2
	.type	_ZTI9idWinding, @object
	.size	_ZTI9idWinding, 8
_ZTI9idWinding:
	.long	_ZTVN10__cxxabiv117__class_type_infoE+8
	.long	_ZTS9idWinding
	.weak	_ZTS14idFixedWinding
	.section	.rodata._ZTS14idFixedWinding,"aG",@progbits,_ZTS14idFixedWinding,comdat
	.align 2
	.type	_ZTS14idFixedWinding, @object
	.size	_ZTS14idFixedWinding, 17
_ZTS14idFixedWinding:
	.string	"14idFixedWinding"
	.weak	_ZTI14idFixedWinding
	.section	.rodata._ZTI14idFixedWinding,"aG",@progbits,_ZTI14idFixedWinding,comdat
	.align 2
	.type	_ZTI14idFixedWinding, @object
	.size	_ZTI14idFixedWinding, 12
_ZTI14idFixedWinding:
	.long	_ZTVN10__cxxabiv120__si_class_type_infoE+8
	.long	_ZTS14idFixedWinding
	.long	_ZTI9idWinding
	.weak	_ZTV9idWinding
	.section	.rodata._ZTV9idWinding,"aG",@progbits,_ZTV9idWinding,comdat
	.align 3
	.type	_ZTV9idWinding, @object
	.size	_ZTV9idWinding, 24
_ZTV9idWinding:
	.long	0
	.long	_ZTI9idWinding
	.long	_ZN9idWindingD1Ev
	.long	_ZN9idWindingD0Ev
	.long	_ZN9idWinding5ClearEv
	.long	_ZN9idWinding10ReAllocateEib
	.weak	_ZTV14idFixedWinding
	.section	.rodata._ZTV14idFixedWinding,"aG",@progbits,_ZTV14idFixedWinding,comdat
	.align 3
	.type	_ZTV14idFixedWinding, @object
	.size	_ZTV14idFixedWinding, 24
_ZTV14idFixedWinding:
	.long	0
	.long	_ZTI14idFixedWinding
	.long	_ZN14idFixedWindingD1Ev
	.long	_ZN14idFixedWindingD0Ev
	.long	_ZN14idFixedWinding5ClearEv
	.long	_ZN14idFixedWinding10ReAllocateEib
	.globl _ZN7idLexer10baseFolderE
	.globl default_setup
	.globl default_nextpunctuation
	.globl default_punctuationtable
	.globl default_punctuations
	.weak	_ZN9idWindingD1Ev
	.set	_ZN9idWindingD1Ev,_ZN9idWindingD2Ev
	.weak	_ZN14idFixedWindingD1Ev
	.set	_ZN14idFixedWindingD1Ev,_ZN14idFixedWindingD2Ev
	.globl _ZN11fileDataPtrC1Ev
	.set	_ZN11fileDataPtrC1Ev,_ZN11fileDataPtrC2Ev
	.globl _ZN11fileDataPtrD1Ev
	.set	_ZN11fileDataPtrD1Ev,_ZN11fileDataPtrD2Ev
	.globl _ZN7idLexerD1Ev
	.set	_ZN7idLexerD1Ev,_ZN7idLexerD2Ev
	.globl _ZN7idLexerC1Ei
	.set	_ZN7idLexerC1Ei,_ZN7idLexerC2Ei
	.globl _ZN7idLexerC1Ev
	.set	_ZN7idLexerC1Ev,_ZN7idLexerC2Ev
	.globl _ZN11fileDataPtrC1ERKS_
	.set	_ZN11fileDataPtrC1ERKS_,_ZN11fileDataPtrC2ERKS_
	.globl _ZN11fileDataPtrC1ERS_
	.set	_ZN11fileDataPtrC1ERS_,_ZN11fileDataPtrC2ERS_
	.globl _ZN7idLexerC1EPKcib
	.set	_ZN7idLexerC1EPKcib,_ZN7idLexerC2EPKcib
	.globl _ZN7idLexerC1EPKciS1_i
	.set	_ZN7idLexerC1EPKciS1_i,_ZN7idLexerC2EPKciS1_i
	.section	.rodata.cst4,"aM",@progbits,4
	.align 2
.LC59:
	.4byte	-2147483648
.LC63:
	.4byte	0
	.section	.rodata.cst8,"aM",@progbits,8
	.align 3
.LC26:
	.4byte	0
	.4byte	0
	.section	".data"
	.align 2
	.set	.LANCHOR1,. + 0
	.type	default_punctuations, @object
	.size	default_punctuations, 424
default_punctuations:
	.long	.LC71
	.long	1
	.long	.LC72
	.long	2
	.long	.LC73
	.long	3
	.long	.LC74
	.long	4
	.long	.LC75
	.long	5
	.long	.LC76
	.long	6
	.long	.LC77
	.long	7
	.long	.LC78
	.long	8
	.long	.LC79
	.long	9
	.long	.LC80
	.long	10
	.long	.LC81
	.long	11
	.long	.LC82
	.long	12
	.long	.LC83
	.long	13
	.long	.LC84
	.long	14
	.long	.LC85
	.long	15
	.long	.LC86
	.long	16
	.long	.LC87
	.long	17
	.long	.LC88
	.long	18
	.long	.LC89
	.long	19
	.long	.LC90
	.long	20
	.long	.LC91
	.long	21
	.long	.LC92
	.long	22
	.long	.LC93
	.long	23
	.long	.LC94
	.long	24
	.long	.LC95
	.long	25
	.long	.LC96
	.long	26
	.long	.LC97
	.long	27
	.long	.LC98
	.long	28
	.long	.LC99
	.long	29
	.long	.LC61
	.long	30
	.long	.LC100
	.long	31
	.long	.LC101
	.long	32
	.long	.LC102
	.long	33
	.long	.LC103
	.long	34
	.long	.LC104
	.long	35
	.long	.LC105
	.long	36
	.long	.LC106
	.long	37
	.long	.LC107
	.long	38
	.long	.LC108
	.long	39
	.long	.LC109
	.long	40
	.long	.LC110
	.long	41
	.long	.LC111
	.long	42
	.long	.LC112
	.long	43
	.long	.LC67
	.long	44
	.long	.LC68
	.long	45
	.long	.LC37
	.long	46
	.long	.LC38
	.long	47
	.long	.LC113
	.long	48
	.long	.LC114
	.long	49
	.long	.LC115
	.long	50
	.long	.LC116
	.long	51
	.long	.LC117
	.long	52
	.long	0
	.long	0
	.section	.rodata.str1.4,"aMS",@progbits,1
	.align 2
.LC0:
	.string	"unkown punctuation"
	.zero	1
.LC1:
	.string	"file %s, line %d: %s"
	.zero	3
.LC2:
	.string	"idLexer::unreadToken, unread token twice\n"
	.zero	2
.LC3:
	.string	""
	.zero	3
.LC4:
	.string	">>> ~fileDataPtr Free %p\r\n"
	.zero	1
.LC5:
	.string	">>> ~fileDataPtr CloseFile %p\r\n"
.LC6:
	.string	">>> fileDataPtr::setFile Open %s\r\n"
	.zero	1
.LC7:
	.string	"fileDataPtr::setFile is being reused!"
	.zero	2
.LC8:
	.string	"File not found: %s\r\n"
	.zero	3
.LC9:
	.string	"fileDataPtr::setFile out of memory\r\n"
	.zero	3
.LC10:
	.string	">>> fileDataPtr::setFile allocated  %p\r\n"
	.zero	3
.LC11:
	.string	"idLexer::LoadFile: another script already loaded"
	.zero	3
.LC12:
	.string	"%s/%s"
	.zero	2
.LC13:
	.string	"fileDataPtr::setBuffer !buffer\r\n"
	.zero	3
.LC14:
	.string	"idLexer::LoadMemory: another script already loaded"
	.zero	1
.LC15:
	.string	">>> fileDataPtr::readBuf update %d %d %d length:%d\r\n"
	.zero	3
.LC16:
	.string	"fileDataPtr::readBuf: Seek failed %d %d %d length:%d\r\n"
	.zero	1
.LC17:
	.string	">>> fileDataPtr::readBuf numread: %d\r\n"
	.zero	1
.LC18:
	.string	"too large value in escape character"
.LC19:
	.string	"unknown escape char"
.LC20:
	.string	"nested comment"
	.zero	1
.LC21:
	.string	"expecting string after '' terminated line"
	.zero	2
.LC22:
	.string	">>> idLexer::script_p %d\r\n"
	.zero	1
.LC23:
	.string	"missing trailing quote"
	.zero	1
.LC24:
	.string	"newline inside string"
	.zero	2
.LC25:
	.string	"literal is not one character long"
	.zero	2
.LC27:
	.string	"INF"
.LC28:
	.string	"IND"
.LC29:
	.string	"NAN"
.LC30:
	.string	"QNAN"
	.zero	3
.LC31:
	.string	"SNAN"
	.zero	3
.LC32:
	.string	"parsed %s"
	.zero	2
.LC33:
	.string	"more than one dot in number"
.LC34:
	.string	"ip address should have three dots"
	.zero	2
.LC35:
	.string	"idLexer::ReadToken: no file loaded"
	.zero	1
.LC36:
	.string	"unknown punctuation %c"
	.zero	1
.LC37:
	.string	"{"
	.zero	2
.LC38:
	.string	"}"
	.zero	2
.LC39:
	.string	"couldn't read expected token"
	.zero	3
.LC40:
	.string	"string"
	.zero	1
.LC41:
	.string	"literal"
.LC42:
	.string	"number"
	.zero	1
.LC43:
	.string	"name"
	.zero	3
.LC44:
	.string	"punctuation"
.LC45:
	.string	"unknown type"
	.zero	3
.LC46:
	.string	"expected a %s but found '%s'"
	.zero	3
.LC47:
	.string	"decimal "
	.zero	3
.LC48:
	.string	"hex "
	.zero	3
.LC49:
	.string	"octal "
	.zero	1
.LC50:
	.string	"binary "
.LC51:
	.string	"unsigned "
	.zero	2
.LC52:
	.string	"long "
	.zero	2
.LC53:
	.string	"float "
	.zero	1
.LC54:
	.string	"integer "
	.zero	3
.LC55:
	.string	"expected %s but found '%s'"
	.zero	1
.LC56:
	.string	"BUG: wrong punctuation subtype"
	.zero	1
.LC57:
	.string	"expected '%s' but found '%s'"
	.zero	3
.LC58:
	.string	"couldn't read expected boolean"
	.zero	1
.LC60:
	.string	"couldn't read expected floating point number"
	.zero	3
.LC61:
	.string	"-"
	.zero	2
.LC62:
	.string	"expected float value, found '%s'"
	.zero	3
.LC64:
	.string	"couldn't read expected integer"
	.zero	1
.LC65:
	.string	"expected integer value, found '%s'"
	.zero	1
.LC66:
	.string	"couldn't find expected '%s'"
.LC67:
	.string	"("
	.zero	2
.LC68:
	.string	")"
	.zero	2
.LC69:
	.string	"missing closing brace"
	.zero	2
.LC70:
	.string	"\r\n"
	.zero	1
.LC71:
	.string	">>="
.LC72:
	.string	"<<="
.LC73:
	.string	"..."
.LC74:
	.string	"##"
	.zero	1
.LC75:
	.string	"&&"
	.zero	1
.LC76:
	.string	"||"
	.zero	1
.LC77:
	.string	">="
	.zero	1
.LC78:
	.string	"<="
	.zero	1
.LC79:
	.string	"=="
	.zero	1
.LC80:
	.string	"!="
	.zero	1
.LC81:
	.string	"*="
	.zero	1
.LC82:
	.string	"/="
	.zero	1
.LC83:
	.string	"%="
	.zero	1
.LC84:
	.string	"+="
	.zero	1
.LC85:
	.string	"-="
	.zero	1
.LC86:
	.string	"++"
	.zero	1
.LC87:
	.string	"--"
	.zero	1
.LC88:
	.string	"&="
	.zero	1
.LC89:
	.string	"|="
	.zero	1
.LC90:
	.string	"^="
	.zero	1
.LC91:
	.string	">>"
	.zero	1
.LC92:
	.string	"<<"
	.zero	1
.LC93:
	.string	"->"
	.zero	1
.LC94:
	.string	"::"
	.zero	1
.LC95:
	.string	".*"
	.zero	1
.LC96:
	.string	"*"
	.zero	2
.LC97:
	.string	"/"
	.zero	2
.LC98:
	.string	"%"
	.zero	2
.LC99:
	.string	"+"
	.zero	2
.LC100:
	.string	"="
	.zero	2
.LC101:
	.string	"&"
	.zero	2
.LC102:
	.string	"|"
	.zero	2
.LC103:
	.string	"^"
	.zero	2
.LC104:
	.string	"~"
	.zero	2
.LC105:
	.string	"!"
	.zero	2
.LC106:
	.string	">"
	.zero	2
.LC107:
	.string	"<"
	.zero	2
.LC108:
	.string	"."
	.zero	2
.LC109:
	.string	","
	.zero	2
.LC110:
	.string	";"
	.zero	2
.LC111:
	.string	":"
	.zero	2
.LC112:
	.string	"?"
	.zero	2
.LC113:
	.string	"["
	.zero	2
.LC114:
	.string	"]"
	.zero	2
.LC115:
	.string	"\\"
	.zero	2
.LC116:
	.string	"#"
	.zero	2
.LC117:
	.string	"$"
	.section	.sbss,"aw",@nobits
	.align 2
	.type	default_setup, @object
	.size	default_setup, 4
default_setup:
	.zero	4
	.section	".bss"
	.align 2
	.set	.LANCHOR0,. + 0
	.type	default_punctuationtable, @object
	.size	default_punctuationtable, 1024
default_punctuationtable:
	.zero	1024
	.type	default_nextpunctuation, @object
	.size	default_nextpunctuation, 212
default_nextpunctuation:
	.zero	212
	.type	_ZN7idLexer10baseFolderE, @object
	.size	_ZN7idLexer10baseFolderE, 256
_ZN7idLexer10baseFolderE:
	.zero	256
	.section	".text"
.Letext0:
	.file 5 "c:\\utils\\devkitpro\\devkitppc\\bin\\../lib/gcc/powerpc-eabi/4.6.3/include/stddef.h"
	.file 6 "c:\\utils\\devkitpro\\devkitppc\\bin\\../lib/gcc/powerpc-eabi/4.6.3/include/stdarg.h"
	.file 7 "<built-in>"
	.file 8 "c:\\utils\\devkitpro\\devkitppc\\bin\\../lib/gcc/powerpc-eabi/4.6.3/../../../../powerpc-eabi/include/sys/types.h"
	.file 9 "d:/Data/Nintendo/DoomGX/src/idlib/../sys/sys_public.h"
	.file 10 "d:/Data/Nintendo/DoomGX/src/idlib/../framework/Common.h"
	.file 11 "d:/Data/Nintendo/DoomGX/src/idlib/../framework/CVarSystem.h"
	.file 12 "d:/Data/Nintendo/DoomGX/src/idlib/../framework/FileSystem.h"
	.file 13 "d:/Data/Nintendo/DoomGX/src/idlib/../idlib/Lib.h"
	.file 14 "d:/Data/Nintendo/DoomGX/src/idlib/../idlib/CmdArgs.h"
	.file 15 "d:/Data/Nintendo/DoomGX/src/idlib/../idlib/math/Random.h"
	.file 16 "d:/Data/Nintendo/DoomGX/src/idlib/../idlib/math/Vector.h"
	.file 17 "d:/Data/Nintendo/DoomGX/src/idlib/../idlib/math/Angles.h"
	.file 18 "d:/Data/Nintendo/DoomGX/src/idlib/../idlib/math/Matrix.h"
	.file 19 "d:/Data/Nintendo/DoomGX/src/idlib/../idlib/math/Quat.h"
	.file 20 "d:/Data/Nintendo/DoomGX/src/idlib/../idlib/math/Rotation.h"
	.file 21 "d:/Data/Nintendo/DoomGX/src/idlib/../idlib/math/Plane.h"
	.file 22 "d:/Data/Nintendo/DoomGX/src/idlib/../idlib/containers/List.h"
	.file 23 "d:/Data/Nintendo/DoomGX/src/idlib/../idlib/math/Ode.h"
	.file 24 "d:/Data/Nintendo/DoomGX/src/idlib/../idlib/bv/Sphere.h"
	.file 25 "d:/Data/Nintendo/DoomGX/src/idlib/../idlib/bv/Bounds.h"
