	.file	"ListWindow.cpp"
	.section	".text"
.Ltext0:
	.section	.text._ZN14idFixedWinding5ClearEv,"axG",@progbits,_ZN14idFixedWinding5ClearEv,comdat
	.align 2
	.weak	_ZN14idFixedWinding5ClearEv
	.type	_ZN14idFixedWinding5ClearEv, @function
_ZN14idFixedWinding5ClearEv:
.LFB1502:
	.file 1 "d:/Data/Nintendo/DoomGX/src/ui/../idlib/../idlib/geometry/Winding.h"
	.loc 1 398 0
	.cfi_startproc
.LVL0:
	.loc 1 399 0
	li 0,0
	.loc 1 400 0
	.loc 1 399 0
	stw 0,4(3)
	.loc 1 400 0
	blr
	.cfi_endproc
.LFE1502:
	.size	_ZN14idFixedWinding5ClearEv, .-_ZN14idFixedWinding5ClearEv
	.section	.text._ZN8idWindow8SetBuddyEPS_,"axG",@progbits,_ZN8idWindow8SetBuddyEPS_,comdat
	.align 2
	.weak	_ZN8idWindow8SetBuddyEPS_
	.type	_ZN8idWindow8SetBuddyEPS_, @function
_ZN8idWindow8SetBuddyEPS_:
.LFB2820:
	.file 2 "d:/Data/Nintendo/DoomGX/src/ui/Window.h"
	.loc 2 279 0
	.cfi_startproc
.LVL1:
	.loc 2 279 0
	blr
	.cfi_endproc
.LFE2820:
	.size	_ZN8idWindow8SetBuddyEPS_, .-_ZN8idWindow8SetBuddyEPS_
	.section	.text._ZN8idWindow9HasActionEv,"axG",@progbits,_ZN8idWindow9HasActionEv,comdat
	.align 2
	.weak	_ZN8idWindow9HasActionEv
	.type	_ZN8idWindow9HasActionEv, @function
_ZN8idWindow9HasActionEv:
.LFB2822:
	.loc 2 293 0
	.cfi_startproc
.LVL2:
	.loc 2 293 0
	blr
	.cfi_endproc
.LFE2822:
	.size	_ZN8idWindow9HasActionEv, .-_ZN8idWindow9HasActionEv
	.section	.text._ZN8idWindow10HasScriptsEv,"axG",@progbits,_ZN8idWindow10HasScriptsEv,comdat
	.align 2
	.weak	_ZN8idWindow10HasScriptsEv
	.type	_ZN8idWindow10HasScriptsEv, @function
_ZN8idWindow10HasScriptsEv:
.LFB2823:
	.loc 2 294 0
	.cfi_startproc
.LVL3:
	.loc 2 294 0
	blr
	.cfi_endproc
.LFE2823:
	.size	_ZN8idWindow10HasScriptsEv, .-_ZN8idWindow10HasScriptsEv
	.section	".text"
	.align 2
	.globl _ZN12idListWindow17HandleBuddyUpdateEP8idWindow
	.type	_ZN12idListWindow17HandleBuddyUpdateEP8idWindow, @function
_ZN12idListWindow17HandleBuddyUpdateEP8idWindow:
.LFB2873:
	.file 3 "d:/Data/Nintendo/DoomGX/src/ui/ListWindow.cpp"
	.loc 3 586 0
	.cfi_startproc
.LVL4:
.LBB1551:
	.loc 3 629 0
	lwz 9,1188(3)
.LBE1551:
	.loc 3 587 0
	addi 3,3,948
.LVL5:
	lfs 0,948(9)
	fctiwz 0,0
	stfiwx 0,0,3
	.loc 3 588 0
	blr
	.cfi_endproc
.LFE2873:
	.size	_ZN12idListWindow17HandleBuddyUpdateEP8idWindow, .-_ZN12idListWindow17HandleBuddyUpdateEP8idWindow
	.section	.text._ZN9idWinding5ClearEv,"axG",@progbits,_ZN9idWinding5ClearEv,comdat
	.align 2
	.weak	_ZN9idWinding5ClearEv
	.type	_ZN9idWinding5ClearEv, @function
_ZN9idWinding5ClearEv:
.LFB1473:
	.loc 1 249 0
	.cfi_startproc
.LVL6:
	mflr 0
	stwu 1,-16(1)
.LCFI0:
	.cfi_def_cfa_offset 16
	.cfi_register 65, 0
	stw 31,12(1)
	mr 31,3
	.cfi_offset 31, -4
	stw 0,20(1)
	.loc 1 250 0
	li 0,0
	.cfi_offset 65, 4
	.loc 1 251 0
	lwz 3,8(3)
.LVL7:
	.loc 1 250 0
	stw 0,4(31)
	.loc 1 251 0
	cmpwi 7,3,0
	beq- 7,.L7
	.loc 1 251 0 is_stmt 0 discriminator 1
	bl _ZdaPv
.L7:
	.loc 1 252 0 is_stmt 1
	li 0,0
	stw 0,8(31)
	.loc 1 253 0
	lwz 0,20(1)
	lwz 31,12(1)
.LVL8:
	mtlr 0
	addi 1,1,16
.LCFI1:
	.cfi_def_cfa_offset 0
	.cfi_restore 31
	blr
	.cfi_endproc
.LFE1473:
	.size	_ZN9idWinding5ClearEv, .-_ZN9idWinding5ClearEv
	.section	.text._ZN9idWindingD2Ev,"axG",@progbits,_ZN9idWindingD5Ev,comdat
	.align 2
	.weak	_ZN9idWindingD2Ev
	.type	_ZN9idWindingD2Ev, @function
_ZN9idWindingD2Ev:
.LFB1461:
	.loc 1 183 0
	.cfi_startproc
.LVL9:
	mflr 0
	stwu 1,-16(1)
.LCFI2:
	.cfi_def_cfa_offset 16
	.cfi_register 65, 0
.LBB1553:
	lis 9,_ZTV9idWinding+8@ha
.LBE1553:
	stw 31,12(1)
	mr 31,3
	.cfi_offset 31, -4
	stw 0,20(1)
.LBB1554:
	.loc 1 183 0
	la 0,_ZTV9idWinding+8@l(9)
	.cfi_offset 65, 4
	.loc 1 184 0
	lwz 3,8(3)
.LVL10:
	.loc 1 183 0
	stw 0,0(31)
	.loc 1 184 0
	cmpwi 7,3,0
	beq- 7,.L10
	.loc 1 184 0 is_stmt 0 discriminator 1
	bl _ZdaPv
.L10:
	.loc 1 185 0 is_stmt 1
	li 0,0
	stw 0,8(31)
.LBE1554:
	.loc 1 186 0
	lwz 0,20(1)
	lwz 31,12(1)
.LVL11:
	mtlr 0
	addi 1,1,16
.LCFI3:
	.cfi_def_cfa_offset 0
	.cfi_restore 31
	blr
	.cfi_endproc
.LFE1461:
	.size	_ZN9idWindingD2Ev, .-_ZN9idWindingD2Ev
	.section	".text"
	.align 2
	.globl _ZN12idListWindow4DrawEiff
	.type	_ZN12idListWindow4DrawEiff, @function
_ZN12idListWindow4DrawEiff:
.LFB2871:
	.loc 3 457 0
	.cfi_startproc
	.cfi_personality 0,__gxx_personality_v0
	.cfi_lsda 0,.LLSDA2871
.LVL12:
	mflr 0
	stwu 1,-288(1)
.LCFI4:
	.cfi_def_cfa_offset 288
	.cfi_register 65, 0
.LVL13:
.LBB1555:
.LBB1556:
.LBB1557:
.LBB1558:
	.file 4 "d:/Data/Nintendo/DoomGX/src/ui/../idlib/../idlib/Str.h"
	.loc 4 357 0
	li 7,20
.LBE1558:
.LBE1557:
.LBE1556:
.LBE1555:
	.loc 3 457 0
	stfd 30,272(1)
	stw 0,292(1)
.LBB1703:
.LBB1565:
.LBB1562:
.LBB1559:
	.loc 4 356 0
	li 0,0
	.cfi_offset 65, 4
	.cfi_offset 62, -16
.LBE1559:
.LBE1562:
.LBE1565:
.LBE1703:
	.loc 3 457 0
	stw 23,212(1)
	addi 23,1,80
	.cfi_offset 23, -76
	stw 31,244(1)
	mr 31,3
	.cfi_offset 31, -44
	stfd 27,248(1)
	stfd 28,256(1)
	stfd 29,264(1)
	stfd 31,280(1)
	stw 14,176(1)
	stw 15,180(1)
	stw 16,184(1)
	stw 17,188(1)
	stw 18,192(1)
	stw 19,196(1)
	stw 20,200(1)
	stw 21,204(1)
	stw 22,208(1)
	stw 24,216(1)
	stw 25,220(1)
	stw 26,224(1)
	stw 27,228(1)
	stw 28,232(1)
	stw 29,236(1)
	stw 30,240(1)
.LBB1704:
.LBB1566:
.LBB1563:
.LBB1560:
	.loc 4 357 0
	stw 7,88(1)
	.loc 4 358 0
	addi 7,1,92
.LBE1560:
.LBE1563:
.LBE1566:
	.loc 3 461 0
	lwz 10,660(3)
	lwz 11,664(3)
	lwz 9,668(3)
	lwz 8,656(3)
.LBB1567:
.LBB1564:
.LBB1561:
	.loc 4 356 0
	stw 0,80(1)
	.loc 4 358 0
	stw 7,84(1)
	.loc 4 359 0
	stb 0,92(1)
	.loc 3 629 0
	lwz 16,1172(3)
	.cfi_offset 30, -48
	.cfi_offset 29, -52
	.cfi_offset 28, -56
	.cfi_offset 27, -60
	.cfi_offset 26, -64
	.cfi_offset 25, -68
	.cfi_offset 24, -72
	.cfi_offset 22, -80
	.cfi_offset 21, -84
	.cfi_offset 20, -88
	.cfi_offset 19, -92
	.cfi_offset 18, -96
	.cfi_offset 17, -100
	.cfi_offset 16, -104
	.cfi_offset 15, -108
	.cfi_offset 14, -112
	.cfi_offset 63, -8
	.cfi_offset 61, -24
	.cfi_offset 60, -32
	.cfi_offset 59, -40
.LBE1561:
.LBE1564:
.LBE1567:
	.loc 3 461 0
	stw 8,48(1)
	stw 10,52(1)
	stw 11,56(1)
	stw 9,60(1)
	.loc 3 629 0
	lfs 30,468(3)
.LEHB0:
	.loc 3 463 0
	bl _ZN8idWindow16GetMaxCharHeightEv
.LVL14:
	.loc 3 629 0
	lwz 9,1188(31)
	.loc 3 463 0
	fmr 29,1
.LVL15:
.LBB1568:
.LBB1569:
	.file 5 "d:/Data/Nintendo/DoomGX/src/ui/Rectangle.h"
	.loc 5 42 0
	lfs 28,660(31)
.LBE1569:
.LBE1568:
	.loc 3 468 0
	lfs 13,956(9)
	lis 9,.LC7@ha
	lfs 0,.LC7@l(9)
	.loc 3 466 0
	lfs 31,664(31)
	.loc 3 468 0
	fcmpu 7,13,0
.LBB1571:
.LBB1570:
	.loc 5 42 0
	lfs 0,668(31)
	fadds 28,28,0
.LVL16:
.LBE1570:
.LBE1571:
	.loc 3 468 0
	bng- 7,.L13
	.loc 3 469 0
	lbz 0,956(31)
	.loc 3 470 0
	lfs 0,952(31)
	.loc 3 469 0
	cmpwi 7,0,0
	beq- 7,.L15
	.loc 3 470 0
	fsubs 28,28,0
.LVL17:
.L13:
	.loc 3 477 0
	lbz 0,257(31)
	cmpwi 7,0,0
	beq- 7,.L72
.LVL18:
.L16:
	.loc 3 478 0 discriminator 4
	li 0,0
	stb 0,724(31)
.L17:
.LBB1572:
	.loc 3 481 0
	lwz 21,948(31)
.LVL19:
	addi 23,1,80
	cmpw 7,16,21
	ble- 7,.L18
.LBB1573:
.LBB1574:
.LBB1575:
	.loc 3 484 0
	addi 0,31,436
.LBE1575:
.LBE1574:
.LBB1587:
.LBB1588:
.LBB1589:
.LBB1590:
.LBB1591:
.LBB1592:
.LBB1593:
.LBB1594:
	.loc 3 527 0
	lis 14,.LC5@ha
	lfs 0,52(1)
.LBE1594:
.LBE1593:
.LBE1592:
.LBE1591:
.LBE1590:
.LBE1589:
.LBE1588:
.LBE1587:
.LBE1573:
	.loc 3 481 0
	slwi 28,21,5
.LBB1694:
.LBB1683:
.LBB1581:
	.loc 3 484 0
	stw 0,168(1)
	addi 23,1,80
	lis 19,.LC0@ha
.LBB1576:
.LBB1577:
	.loc 3 487 0
	lis 18,.LC1@ha
.LBE1577:
.LBE1576:
.LBE1581:
.LBE1683:
.LBB1684:
.LBB1676:
.LBB1660:
	.loc 3 507 0
	lis 15,common@ha
	.loc 3 512 0
	lis 22,.LC4@ha
.LBB1637:
.LBB1629:
.LBB1624:
.LBB1619:
.LBB1615:
	.loc 3 527 0
	lis 17,declManager@ha
	la 14,.LC5@l(14)
.LVL20:
.L48:
.LBE1615:
.LBE1619:
.LBE1624:
.LBE1629:
.LBE1637:
.LBE1660:
.LBE1676:
.LBE1684:
.LBB1685:
.LBB1582:
	.loc 3 629 0
	lwz 0,1192(31)
.LVL21:
.LBB1583:
.LBB1584:
	.file 6 "d:/Data/Nintendo/DoomGX/src/ui/../idlib/../idlib/containers/List.h"
	.loc 6 772 0
	cmpwi 7,0,0
	ble- 7,.L71
	.loc 6 773 0
	lwz 11,1204(31)
	lwz 9,0(11)
	cmpw 7,21,9
	beq- 7,.L20
	.loc 6 772 0
	li 9,0
	mtctr 0
	b .L21
.LVL22:
.L23:
	.loc 6 773 0
	lwzu 0,4(11)
	cmpw 7,21,0
	beq- 7,.L22
.LVL23:
.L21:
	.loc 6 772 0
	addi 9,9,1
.LVL24:
	bdnz .L23
.LVL25:
.L71:
	la 20,.LC1@l(18)
.L19:
.LBE1584:
.LBE1583:
.LBE1582:
.LBE1685:
	.loc 3 493 0
	lbz 0,724(31)
	.loc 3 491 0
	lfs 13,0(20)
	.loc 3 493 0
	cmpwi 7,0,0
	.loc 3 491 0
	fadds 0,0,13
	.loc 3 492 0
	fsubs 13,29,13
	.loc 3 491 0
	stfs 0,52(1)
	.loc 3 492 0
	stfs 13,60(1)
	.loc 3 493 0
	beq- 7,.L24
	.loc 3 493 0 is_stmt 0 discriminator 1
	lbz 0,257(31)
	cmpwi 7,0,0
	beq- 7,.L73
.L24:
.LVL26:
	.loc 3 496 0 is_stmt 1
	lwz 10,372(31)
	lwz 11,376(31)
	lwz 9,380(31)
	lwz 0,384(31)
	stw 10,64(1)
	stw 11,68(1)
	stw 9,72(1)
	stw 0,76(1)
.LVL27:
.L52:
.LBB1686:
	.loc 3 501 0
	lwz 0,932(31)
.LBE1686:
	.loc 3 498 0
	lfs 13,.LC0@l(19)
	.loc 3 499 0
	lfs 12,0(20)
.LBB1687:
	.loc 3 501 0
	cmpwi 7,0,0
.LBE1687:
	.loc 3 498 0
	fadds 13,29,13
.LBB1688:
.LBB1677:
.LBB1661:
.LBB1662:
	.loc 6 589 0
	lwz 9,1184(31)
.LBE1662:
.LBE1661:
.LBE1677:
.LBE1688:
	.loc 3 499 0
	fsubs 0,0,12
	.loc 3 498 0
	stfs 13,60(1)
	.loc 3 499 0
	stfs 0,52(1)
.LBB1689:
	.loc 3 501 0
	ble- 7,.L25
.LVL28:
.LBB1678:
.LBB1664:
.LBB1663:
	.loc 6 589 0
	add 11,9,28
.LVL29:
.LBE1663:
.LBE1664:
.LBB1665:
.LBB1666:
	.loc 4 899 0
	lwzx 6,9,28
	lwz 3,4(11)
	li 4,9
	li 5,0
	bl _ZN5idStr8FindCharEPKccii
.LVL30:
	mr 26,3
.LVL31:
.LBE1666:
.LBE1665:
.LBB1667:
.LBB1668:
	.loc 6 589 0
	lwz 3,1184(31)
.LVL32:
.LBE1668:
.LBE1667:
	.loc 3 505 0
	lwzx 0,3,28
.LBB1670:
.LBB1669:
	.loc 6 589 0
	add 3,3,28
.LBE1669:
.LBE1670:
	.loc 3 505 0
	cmpwi 7,0,0
	ble- 7,.L26
.LBB1671:
	.loc 3 506 0
	lwz 0,932(31)
	cmpwi 7,0,0
	ble- 7,.L27
	li 27,0
	li 30,0
	.loc 3 512 0
	lis 25,0x4330
	b .L28
.LVL33:
.L31:
.LBB1638:
.LBB1630:
	.loc 3 518 0
	cmpwi 7,0,1
	beq- 7,.L74
.LVL34:
.L32:
.LBE1630:
.LBE1638:
	.loc 3 557 0
	lwz 3,728(31)
	bl _ZN15idDeviceContext11PopClipRectEv
.LBB1639:
.LBB1640:
	.loc 6 589 0
	lwz 9,1184(31)
.LBE1640:
.LBE1639:
	.loc 3 559 0
	addi 30,26,1
.LVL35:
.LBB1642:
.LBB1643:
	.loc 4 899 0
	li 4,9
	mr 5,30
.LBE1643:
.LBE1642:
.LBB1645:
.LBB1641:
	.loc 6 589 0
	add 11,9,28
.LVL36:
.LBE1641:
.LBE1645:
.LBB1646:
.LBB1644:
	.loc 4 899 0
	lwzx 6,9,28
	lwz 3,4(11)
	bl _ZN5idStr8FindCharEPKccii
.LVL37:
.LBE1644:
.LBE1646:
	.loc 3 561 0
	mr. 26,3
	blt- 0,.L44
	lwz 9,1184(31)
	lwzx 0,9,28
.LVL38:
	add 3,9,28
.LVL39:
.LBE1671:
	.loc 3 505 0
	cmpw 7,30,0
	bge- 7,.L26
.LVL40:
.L46:
.LBB1672:
	.loc 3 506 0
	lwz 0,932(31)
	.loc 3 564 0
	addi 27,27,1
.LVL41:
	.loc 3 506 0
	cmpw 7,0,27
	ble- 7,.L27
.LVL42:
.L28:
	.loc 3 510 0
	mr 4,30
	subf 5,30,26
	mr 6,23
	bl _ZNK5idStr3MidEiiRS_
.LVL43:
.LBB1647:
.LBB1648:
	.loc 6 589 0
	lwz 9,944(31)
.LBE1648:
.LBE1647:
	.loc 3 457 0
	slwi 29,27,5
	.loc 3 512 0
	lfs 0,.LC4@l(22)
	lwzx 0,9,29
.LBB1650:
.LBB1649:
	.loc 6 589 0
	add 11,9,29
.LBE1649:
.LBE1650:
	.loc 3 512 0
	stw 25,112(1)
	xoris 0,0,0x8000
	stw 0,116(1)
	lfd 13,112(1)
	.loc 3 513 0
	lwz 0,4(11)
	.loc 3 512 0
	fsub 13,13,0
	lfs 12,656(31)
	.loc 3 513 0
	cmpwi 7,0,-1
	.loc 3 512 0
	frsp 13,13
	fadds 13,12,13
	stfs 13,48(1)
.LVL44:
	.loc 3 513 0
	beq- 7,.L75
.LVL45:
	.loc 3 513 0 is_stmt 0 discriminator 2
	xoris 0,0,0x8000
	stw 25,128(1)
	stw 0,132(1)
	lfd 13,128(1)
	fsub 0,13,0
	frsp 0,0
.LVL46:
.L30:
	.loc 3 514 0 is_stmt 1 discriminator 3
	lwz 0,48(1)
	addi 4,1,136
	lwz 3,728(31)
	.loc 3 513 0 discriminator 3
	stfs 0,56(1)
	.loc 3 514 0 discriminator 3
	stw 0,136(1)
	lwz 0,52(1)
	stw 0,140(1)
	lwz 0,56(1)
	stw 0,144(1)
	lwz 0,60(1)
	stw 0,148(1)
	bl _ZN15idDeviceContext12PushClipRectE11idRectangle
.LVL47:
.LBB1651:
.LBB1631:
.LBB1632:
	.loc 6 589 0
	lwz 9,944(31)
	add 9,9,29
.LBE1632:
.LBE1631:
	.loc 3 516 0
	lwz 0,16(9)
	cmpwi 7,0,0
	bne+ 7,.L31
.LVL48:
	.loc 3 517 0
	lwz 11,64(1)
	fmr 1,30
	addi 6,1,136
	addi 7,1,152
	stw 11,136(1)
	li 8,0
	lwz 11,68(1)
	li 10,0
	stw 11,140(1)
	lwz 11,72(1)
	stw 11,144(1)
	lwz 11,76(1)
	stw 11,148(1)
	lwz 11,48(1)
	stw 11,152(1)
	lwz 11,52(1)
	stw 11,156(1)
	lwz 11,56(1)
	stw 11,160(1)
	lwz 11,60(1)
	stw 11,164(1)
	lwz 5,8(9)
	li 9,-1
	lwz 3,728(31)
	lwz 4,4(23)
	stw 0,8(1)
	stw 0,12(1)
	bl _ZN15idDeviceContext8DrawTextEPKcfi6idVec411idRectanglebibP6idListIiEi
.LEHE0:
	b .L32
.LVL49:
.L75:
.LBE1651:
	.loc 3 513 0 discriminator 1
	lwzx 0,9,29
	stw 25,120(1)
	xoris 0,0,0x8000
	stw 0,124(1)
	lfd 13,120(1)
	fsub 0,13,0
	frsp 0,0
	fsubs 0,31,0
	b .L30
.LVL50:
.L44:
.LBB1652:
.LBB1653:
	.loc 6 589 0
	lwz 3,1184(31)
.LVL51:
	.loc 3 629 0
	lwzx 26,3,28
.LVL52:
	.loc 6 589 0
	add 3,3,28
.LBE1653:
.LBE1652:
.LBB1654:
.LBB1633:
.LBB1625:
.LBB1620:
.LBB1616:
	.loc 3 629 0
	mr 0,26
.LVL53:
.LBE1616:
.LBE1620:
.LBE1625:
.LBE1633:
.LBE1654:
.LBE1672:
	.loc 3 505 0
	cmpw 7,30,0
	blt+ 7,.L46
.LVL54:
.L26:
	.loc 3 566 0
	lwz 0,656(31)
	.loc 3 567 0
	stfs 31,56(1)
	.loc 3 566 0
	stw 0,48(1)
.LVL55:
.L47:
.LBE1678:
.LBE1689:
	.loc 3 571 0
	lfs 0,52(1)
	fadds 0,29,0
	.loc 3 572 0
	fcmpu 7,28,0
	.loc 3 571 0
	stfs 0,52(1)
	.loc 3 572 0
	blt- 7,.L18
.LBE1694:
	.loc 3 481 0
	addi 21,21,1
.LVL56:
	addi 28,28,32
	cmpw 7,21,16
	bne+ 7,.L48
.LVL57:
.L18:
.LBE1572:
.LBB1696:
.LBB1697:
.LBB1698:
	.loc 4 501 0
	mr 3,23
.LEHB1:
	bl _ZN5idStr8FreeDataEv
.LEHE1:
.LBE1698:
.LBE1697:
.LBE1696:
.LBE1704:
	.loc 3 576 0
	lwz 0,292(1)
	lwz 14,176(1)
	mtlr 0
	lwz 15,180(1)
	lwz 16,184(1)
	lwz 17,188(1)
	lwz 18,192(1)
	lwz 19,196(1)
	lwz 20,200(1)
	lwz 21,204(1)
.LVL58:
	lwz 22,208(1)
	lwz 23,212(1)
	lwz 24,216(1)
	lwz 25,220(1)
	lwz 26,224(1)
	lwz 27,228(1)
	lwz 28,232(1)
	lwz 29,236(1)
	lwz 30,240(1)
	lwz 31,244(1)
.LVL59:
	lfd 27,248(1)
	lfd 28,256(1)
.LVL60:
	lfd 29,264(1)
.LVL61:
	lfd 30,272(1)
	lfd 31,280(1)
.LVL62:
	addi 1,1,288
	.cfi_remember_state
.LCFI5:
	.cfi_def_cfa_offset 0
	.cfi_restore 63
	.cfi_restore 62
	.cfi_restore 61
	.cfi_restore 60
	.cfi_restore 59
	.cfi_restore 31
	.cfi_restore 30
	.cfi_restore 29
	.cfi_restore 28
	.cfi_restore 27
	.cfi_restore 26
	.cfi_restore 25
	.cfi_restore 24
	.cfi_restore 23
	.cfi_restore 22
	.cfi_restore 21
	.cfi_restore 20
	.cfi_restore 19
	.cfi_restore 18
	.cfi_restore 17
	.cfi_restore 16
	.cfi_restore 15
	.cfi_restore 14
	blr
.LVL63:
.L74:
.LCFI6:
	.cfi_restore_state
.LBB1705:
.LBB1699:
.LBB1695:
.LBB1690:
.LBB1679:
.LBB1673:
.LBB1655:
.LBB1634:
	.loc 3 524 0
	lwz 24,4(23)
.LVL64:
.LBB1626:
.LBB1621:
	lbz 0,0(24)
	cmpwi 7,0,0
	beq- 7,.L32
.LVL65:
	mr 10,24
.LBE1621:
.LBE1626:
.LBE1634:
.LBE1655:
	.loc 3 457 0
	li 9,119
	li 11,0
.LVL66:
.L33:
.LBB1656:
.LBB1635:
.LBB1627:
.LBB1622:
.LBB1617:
.LBB1595:
.LBB1596:
.LBB1597:
.LBB1598:
.LBB1599:
	.loc 4 977 0
	mullw 8,0,9
	.loc 4 976 0
	lbzu 0,1(10)
	addi 9,9,1
	cmpwi 7,0,0
	.loc 4 977 0
	add 11,11,8
.LVL67:
	.loc 4 976 0
	bne+ 7,.L33
	lwz 0,1164(31)
.LBE1599:
.LBE1598:
.LBE1597:
	.file 7 "d:/Data/Nintendo/DoomGX/src/ui/../idlib/../idlib/containers/HashTable.h"
	.loc 7 219 0
	lwz 9,1152(31)
.LBB1602:
.LBB1601:
.LBB1600:
	.loc 4 976 0
	and 11,11,0
.LVL68:
.LBE1600:
.LBE1601:
.LBE1602:
	.loc 7 219 0
	slwi 11,11,2
	lwzx 30,9,11
.LVL69:
	cmpwi 7,30,0
	bne+ 7,.L62
	b .L34
.LVL70:
.L35:
	.loc 7 227 0
	bgt- 7,.L34
	.loc 7 219 0
	lwz 30,36(30)
.LVL71:
	cmpwi 7,30,0
	beq- 7,.L34
.LVL72:
.L62:
.LBB1603:
.LBB1604:
	.loc 4 675 0
	lwz 3,4(30)
	mr 4,24
.LEHB2:
	bl _ZN5idStr3CmpEPKcS1_
.LVL73:
.LBE1604:
.LBE1603:
	.loc 7 221 0
	cmpwi 7,3,0
	bne+ 7,.L35
.LVL74:
.LBE1596:
.LBE1595:
	.loc 3 529 0
	lwz 4,32(30)
.LVL75:
.L36:
.LBB1605:
.LBB1606:
	.loc 6 589 0
	lwz 0,944(31)
.LBE1606:
.LBE1605:
	.loc 3 537 0
	lfs 1,48(1)
.LBB1608:
.LBB1607:
	.loc 6 589 0
	add 29,0,29
.LBE1607:
.LBE1608:
	.loc 3 536 0
	lwz 0,8(29)
	.loc 3 533 0
	lfs 3,20(29)
.LVL76:
	.loc 3 536 0
	cmpwi 7,0,0
	.loc 3 534 0
	lfs 4,24(29)
.LVL77:
	.loc 3 536 0
	beq- 7,.L39
.LVL78:
	.loc 3 538 0
	cmpwi 7,0,1
	beq- 7,.L76
.LVL79:
	.loc 3 540 0
	cmpwi 7,0,2
	.loc 5 40 0
	lis 11,.LC7@ha
	lfs 1,.LC7@l(11)
	.loc 3 540 0
	beq- 7,.L77
.LVL80:
.L39:
	.loc 3 544 0
	lwz 0,12(29)
	cmpwi 7,0,0
	bne- 7,.L41
.LVL81:
	.loc 3 545 0
	lfs 0,28(29)
	lfs 2,52(1)
	fadds 2,2,0
.LVL82:
.L42:
.LBB1609:
.LBB1610:
	.file 8 "d:/Data/Nintendo/DoomGX/src/ui/../idlib/../idlib/math/Vector.h"
	.loc 8 867 0
	lfs 0,0(20)
.LBE1610:
.LBE1609:
	.loc 3 552 0
	addi 5,1,16
	lwz 3,728(31)
.LVL83:
	fmr 5,0
.LBB1613:
.LBB1611:
	.loc 8 867 0
	stfs 0,16(1)
.LBE1611:
.LBE1613:
	.loc 3 552 0
	fmr 6,0
.LBB1614:
.LBB1612:
	.loc 8 868 0
	stfs 0,20(1)
	.loc 8 869 0
	stfs 0,24(1)
	.loc 8 870 0
	stfs 0,28(1)
.LBE1612:
.LBE1614:
	.loc 3 552 0
	bl _ZN15idDeviceContext12DrawMaterialEffffPK10idMaterialRK6idVec4ff
.LVL84:
	b .L32
.LVL85:
.L41:
	.loc 3 546 0
	cmpwi 7,0,1
	beq- 7,.L78
.LVL86:
	.loc 3 548 0
	cmpwi 7,0,2
	.loc 5 40 0
	lis 11,.LC7@ha
	lfs 2,.LC7@l(11)
	.loc 3 548 0
	bne+ 7,.L42
.LVL87:
	.loc 3 549 0
	lfs 13,60(1)
	lfs 2,52(1)
	lfs 0,28(29)
	fadds 2,2,13
	fsubs 2,2,4
	fadds 2,2,0
.LVL88:
	b .L42
.LVL89:
.L34:
	.loc 3 527 0
	lwz 3,declManager@l(17)
	mr 4,14
	li 5,1
	li 6,0
	lwz 9,0(3)
	lwz 0,104(9)
	mtctr 0
	bctrl
	mr 4,3
	b .L36
.LVL90:
.L22:
.LBE1617:
.LBE1622:
.LBE1627:
.LBE1635:
.LBE1656:
.LBE1673:
.LBE1679:
.LBE1690:
.LBB1691:
	.loc 3 482 0
	cmpwi 7,9,0
	blt- 7,.L71
.LVL91:
.L20:
.LBB1585:
	.loc 3 484 0
	lfs 2,.LC0@l(19)
	fmr 4,29
	lwz 3,728(31)
	fadds 2,0,2
	lfs 1,48(1)
	lfs 3,56(1)
	lwz 4,168(1)
	.loc 3 483 0
	stfs 29,60(1)
.LVL92:
	.loc 3 484 0
	bl _ZN15idDeviceContext14DrawFilledRectEffffRK6idVec4
.LBB1579:
	.loc 3 485 0
	lwz 0,48(31)
	andi. 9,0,32
	bne- 0,.L69
	lfs 0,52(1)
	b .L71
.LVL93:
.L27:
.LBE1579:
.LBE1585:
.LBE1691:
.LBB1692:
.LBB1680:
.LBB1674:
	.loc 3 507 0
	lwz 3,common@l(15)
.LVL94:
.LBB1657:
.LBB1658:
	.loc 3 629 0
	lwz 9,732(31)
.LBE1658:
.LBE1657:
	.loc 3 507 0
	lwz 11,0(3)
	lwz 5,64(9)
	lwz 0,80(11)
	lis 11,.LC8@ha
	lwz 4,.LC8@l(11)
	lwz 6,140(31)
	mtctr 0
	crxor 6,6,6
	bctrl
.LVL95:
	b .L26
.LVL96:
.L25:
.LBE1674:
.LBE1680:
	.loc 3 569 0
	lwz 0,64(1)
.LBB1681:
	.loc 3 629 0
	add 9,9,28
.LBE1681:
	.loc 3 569 0
	fmr 1,30
	li 5,0
	stw 0,136(1)
	addi 6,1,136
	lwz 0,68(1)
	addi 7,1,152
	li 8,0
	li 10,0
	stw 0,140(1)
	lwz 0,72(1)
	stw 0,144(1)
	lwz 0,76(1)
	stw 0,148(1)
	lwz 0,48(1)
	stw 0,152(1)
	lwz 0,52(1)
	stw 0,156(1)
	lwz 0,56(1)
	stw 0,160(1)
	lwz 0,60(1)
	stw 0,164(1)
	li 0,0
	lwz 4,4(9)
	li 9,-1
	lwz 3,728(31)
	stw 0,8(1)
	stw 0,12(1)
	bl _ZN15idDeviceContext8DrawTextEPKcfi6idVec411idRectanglebibP6idListIiEi
.LVL97:
	b .L47
.LVL98:
.L78:
.LBB1682:
.LBB1675:
.LBB1659:
.LBB1636:
.LBB1628:
.LBB1623:
.LBB1618:
	.loc 3 547 0
	lis 9,.LC6@ha
	lfs 13,52(1)
	lfs 0,.LC6@l(9)
	.loc 3 457 0
	fneg 11,4
	.loc 3 547 0
	lfs 12,60(1)
	fmadds 12,12,0,13
	lfs 13,28(29)
	fmadds 0,11,0,12
	fadds 2,0,13
.LVL99:
	b .L42
.LVL100:
.L76:
	.loc 3 539 0
	lis 9,.LC6@ha
	lfs 13,48(1)
	lfs 0,.LC6@l(9)
	.loc 3 457 0
	fneg 1,3
	.loc 3 539 0
	lfs 12,56(1)
	fmadds 13,12,0,13
	fmadds 1,1,0,13
.LVL101:
	b .L39
.LVL102:
.L77:
	.loc 3 541 0
	lfs 0,56(1)
	lfs 1,48(1)
	fadds 1,1,0
	fsubs 1,1,3
.LVL103:
	b .L39
.LVL104:
.L69:
.LBE1618:
.LBE1623:
.LBE1628:
.LBE1636:
.LBE1659:
.LBE1675:
.LBE1682:
.LBE1692:
.LBB1693:
.LBB1586:
.LBB1580:
.LBB1578:
	.loc 3 487 0
	lfs 0,.LC1@l(18)
	.loc 3 488 0
	addi 4,1,32
	lfs 13,.LC0@l(19)
	.loc 3 487 0
	la 20,.LC1@l(18)
	.loc 3 488 0
	lfs 2,52(1)
	fmr 5,0
	.loc 3 486 0
	lwz 11,436(31)
	.loc 3 488 0
	fadds 2,2,13
	.loc 3 486 0
	lwz 9,440(31)
	lwz 0,444(31)
	.loc 3 488 0
	lwz 3,728(31)
	lfs 1,48(1)
	lfs 3,56(1)
	lfs 4,60(1)
	.loc 3 486 0
	stw 11,32(1)
	stw 9,36(1)
	stw 0,40(1)
	.loc 3 487 0
	stfs 0,44(1)
	.loc 3 488 0
	bl _ZN15idDeviceContext8DrawRectEfffffRK6idVec4
	lfs 0,52(1)
	b .L19
.LVL105:
.L73:
.LBE1578:
.LBE1580:
.LBE1586:
.LBE1693:
	.loc 3 493 0 discriminator 3
	lwz 3,732(31)
	lwz 9,0(3)
	lwz 0,124(9)
	mtctr 0
	bctrl
	lwz 3,732(31)
	fmr 27,1
	lwz 9,0(3)
	lwz 0,128(9)
	mtctr 0
	bctrl
	.loc 3 493 0 is_stmt 0 discriminator 1
	fmr 2,1
	mr 3,31
	fmr 1,27
	addi 4,1,48
	bl _ZN8idWindow8ContainsERK11idRectangleff
	.loc 3 493 0 discriminator 2
	cmpwi 7,3,0
	lfs 0,52(1)
	beq- 7,.L24
.LVL106:
	.loc 3 494 0 is_stmt 1 discriminator 5
	lwz 10,404(31)
	lwz 11,408(31)
	lwz 9,412(31)
	lwz 0,416(31)
	stw 10,64(1)
	stw 11,68(1)
	stw 9,72(1)
	stw 0,76(1)
	b .L52
.LVL107:
.L15:
.LBE1695:
.LBE1699:
	.loc 3 477 0
	lbz 0,257(31)
	.loc 3 472 0
	fsubs 31,31,0
.LVL108:
	.loc 3 477 0
	cmpwi 7,0,0
	.loc 3 473 0
	stfs 31,56(1)
.LVL109:
	.loc 3 477 0
	bne+ 7,.L16
.L72:
	.loc 3 477 0 is_stmt 0 discriminator 2
	lwz 3,732(31)
	addi 23,1,80
	lwz 9,0(3)
	lwz 0,124(9)
	mtctr 0
	bctrl
	lwz 3,732(31)
	fmr 27,1
	addi 23,1,80
	lwz 9,0(3)
	lwz 0,128(9)
	mtctr 0
	bctrl
	.loc 3 477 0 discriminator 1
	fmr 2,1
	mr 3,31
	fmr 1,27
	addi 23,1,80
	bl _ZN8idWindow8ContainsEff
.LEHE2:
	.loc 3 477 0 discriminator 2
	cmpwi 7,3,0
	bne- 7,.L17
	b .L16
.LVL110:
.L55:
	mr 31,3
.LVL111:
.LBB1700:
.LBB1701:
.LBB1702:
	.loc 4 501 0 is_stmt 1
	mr 3,23
	bl _ZN5idStr8FreeDataEv
	mr 3,31
.LEHB3:
	bl _Unwind_Resume
.LEHE3:
.LBE1702:
.LBE1701:
.LBE1700:
.LBE1705:
	.cfi_endproc
.LFE2871:
	.globl __gxx_personality_v0
	.section	.gcc_except_table,"a",@progbits
.LLSDA2871:
	.byte	0xff
	.byte	0xff
	.byte	0x1
	.uleb128 .LLSDACSE2871-.LLSDACSB2871
.LLSDACSB2871:
	.uleb128 .LEHB0-.LFB2871
	.uleb128 .LEHE0-.LEHB0
	.uleb128 .L55-.LFB2871
	.uleb128 0
	.uleb128 .LEHB1-.LFB2871
	.uleb128 .LEHE1-.LEHB1
	.uleb128 0
	.uleb128 0
	.uleb128 .LEHB2-.LFB2871
	.uleb128 .LEHE2-.LEHB2
	.uleb128 .L55-.LFB2871
	.uleb128 0
	.uleb128 .LEHB3-.LFB2871
	.uleb128 .LEHE3-.LEHB3
	.uleb128 0
	.uleb128 0
.LLSDACSE2871:
	.section	".text"
	.size	_ZN12idListWindow4DrawEiff, .-_ZN12idListWindow4DrawEiff
	.align 2
	.globl _ZN12idListWindow15GetWinVarByNameEPKcbPP9drawWin_t
	.type	_ZN12idListWindow15GetWinVarByNameEPKcbPP9drawWin_t, @function
_ZN12idListWindow15GetWinVarByNameEPKcbPP9drawWin_t:
.LFB2865:
	.loc 3 299 0
	.cfi_startproc
.LVL112:
	mflr 0
	stwu 1,-8(1)
.LCFI7:
	.cfi_def_cfa_offset 8
	.cfi_register 65, 0
	stw 0,12(1)
	.loc 3 300 0
	.cfi_offset 65, 4
	bl _ZN8idWindow15GetWinVarByNameEPKcbPP9drawWin_t
.LVL113:
	.loc 3 301 0
	lwz 0,12(1)
	addi 1,1,8
.LCFI8:
	.cfi_def_cfa_offset 0
	mtlr 0
	blr
	.cfi_endproc
.LFE2865:
	.size	_ZN12idListWindow15GetWinVarByNameEPKcbPP9drawWin_t, .-_ZN12idListWindow15GetWinVarByNameEPKcbPP9drawWin_t
	.section	.text._ZN12idListWindow9AllocatedEv,"axG",@progbits,_ZN12idListWindow9AllocatedEv,comdat
	.align 2
	.weak	_ZN12idListWindow9AllocatedEv
	.type	_ZN12idListWindow9AllocatedEv, @function
_ZN12idListWindow9AllocatedEv:
.LFB2850:
	.file 9 "d:/Data/Nintendo/DoomGX/src/ui/ListWindow.h"
	.loc 9 59 0
	.cfi_startproc
.LVL114:
	mflr 0
	stwu 1,-8(1)
.LCFI9:
	.cfi_def_cfa_offset 8
	.cfi_register 65, 0
	stw 0,12(1)
	.loc 9 59 0
	.cfi_offset 65, 4
	bl _ZN8idWindow9AllocatedEv
.LVL115:
	lwz 0,12(1)
	addi 1,1,8
.LCFI10:
	.cfi_def_cfa_offset 0
	mtlr 0
	blr
	.cfi_endproc
.LFE2850:
	.size	_ZN12idListWindow9AllocatedEv, .-_ZN12idListWindow9AllocatedEv
	.section	.text._ZN14idFixedWindingD2Ev,"axG",@progbits,_ZN14idFixedWindingD5Ev,comdat
	.align 2
	.weak	_ZN14idFixedWindingD2Ev
	.type	_ZN14idFixedWindingD2Ev, @function
_ZN14idFixedWindingD2Ev:
.LFB1498:
	.loc 1 380 0
	.cfi_startproc
.LVL116:
.LBB1711:
	.loc 1 381 0
	li 0,0
.LBB1712:
.LBB1713:
.LBB1714:
	.loc 1 183 0
	lis 9,_ZTV9idWinding+8@ha
.LBE1714:
.LBE1713:
.LBE1712:
	.loc 1 381 0
	stw 0,8(3)
.LVL117:
.LBB1717:
.LBB1716:
.LBB1715:
	.loc 1 183 0
	la 0,_ZTV9idWinding+8@l(9)
	stw 0,0(3)
.LBE1715:
.LBE1716:
.LBE1717:
.LBE1711:
	.loc 1 382 0
	blr
	.cfi_endproc
.LFE1498:
	.size	_ZN14idFixedWindingD2Ev, .-_ZN14idFixedWindingD2Ev
	.section	.text._ZN9idWindingD0Ev,"axG",@progbits,_ZN9idWindingD5Ev,comdat
	.align 2
	.weak	_ZN9idWindingD0Ev
	.type	_ZN9idWindingD0Ev, @function
_ZN9idWindingD0Ev:
.LFB1463:
	.loc 1 183 0
	.cfi_startproc
.LVL118:
	mflr 0
	stwu 1,-16(1)
.LCFI11:
	.cfi_def_cfa_offset 16
	.cfi_register 65, 0
.LBB1721:
.LBB1722:
.LBB1723:
	lis 9,_ZTV9idWinding+8@ha
.LBE1723:
.LBE1722:
.LBE1721:
	stw 31,12(1)
	mr 31,3
	.cfi_offset 31, -4
.LVL119:
	stw 0,20(1)
.LBB1728:
.LBB1726:
.LBB1724:
	.loc 1 183 0
	la 0,_ZTV9idWinding+8@l(9)
	.cfi_offset 65, 4
	.loc 1 184 0
	lwz 3,8(3)
.LVL120:
	.loc 1 183 0
	stw 0,0(31)
	.loc 1 184 0
	cmpwi 7,3,0
	beq- 7,.L85
	bl _ZdaPv
.L85:
	.loc 1 185 0
	li 0,0
.LBE1724:
.LBE1726:
.LBE1728:
	.loc 1 186 0
	mr 3,31
.LBB1729:
.LBB1727:
.LBB1725:
	.loc 1 185 0
	stw 0,8(31)
.LBE1725:
.LBE1727:
.LBE1729:
	.loc 1 186 0
	bl _ZdlPv
	lwz 0,20(1)
	lwz 31,12(1)
.LVL121:
	mtlr 0
	addi 1,1,16
.LCFI12:
	.cfi_def_cfa_offset 0
	.cfi_restore 31
	blr
	.cfi_endproc
.LFE1463:
	.size	_ZN9idWindingD0Ev, .-_ZN9idWindingD0Ev
	.section	.text._ZN14idFixedWindingD0Ev,"axG",@progbits,_ZN14idFixedWindingD5Ev,comdat
	.align 2
	.weak	_ZN14idFixedWindingD0Ev
	.type	_ZN14idFixedWindingD0Ev, @function
_ZN14idFixedWindingD0Ev:
.LFB1500:
	.loc 1 380 0
	.cfi_startproc
.LVL122:
	mflr 0
	stwu 1,-8(1)
.LCFI13:
	.cfi_def_cfa_offset 8
	.cfi_register 65, 0
.LBB1736:
.LBB1737:
.LBB1738:
.LBB1739:
.LBB1740:
.LBB1741:
	.loc 1 183 0
	lis 11,_ZTV9idWinding+8@ha
.LBE1741:
.LBE1740:
.LBE1739:
.LBE1738:
.LBE1737:
.LBE1736:
	.loc 1 380 0
	stw 0,12(1)
.LBB1747:
.LBB1746:
.LBB1745:
	.loc 1 381 0
	li 0,0
	.cfi_offset 65, 4
	stw 0,8(3)
.LVL123:
.LBB1744:
.LBB1743:
.LBB1742:
	.loc 1 183 0
	la 0,_ZTV9idWinding+8@l(11)
	stw 0,0(3)
.LBE1742:
.LBE1743:
.LBE1744:
.LBE1745:
.LBE1746:
.LBE1747:
	.loc 1 382 0
	bl _ZdlPv
.LVL124:
	lwz 0,12(1)
	addi 1,1,8
.LCFI14:
	.cfi_def_cfa_offset 0
	mtlr 0
	blr
	.cfi_endproc
.LFE1500:
	.size	_ZN14idFixedWindingD0Ev, .-_ZN14idFixedWindingD0Ev
	.section	".text"
	.align 2
	.globl _ZN12idListWindow16ParseInternalVarEPKcP8idParser
	.type	_ZN12idListWindow16ParseInternalVarEPKcP8idParser, @function
_ZN12idListWindow16ParseInternalVarEPKcP8idParser:
.LFB2864:
	.loc 3 243 0
	.cfi_startproc
	.cfi_personality 0,__gxx_personality_v0
	.cfi_lsda 0,.LLSDA2864
.LVL125:
	stwu 1,-136(1)
.LCFI15:
	.cfi_def_cfa_offset 136
	mflr 0
	stw 31,132(1)
	mr 31,4
	.cfi_offset 31, -4
	.cfi_register 65, 0
.LBB1804:
	.loc 3 244 0
	lis 4,.LC9@ha
.LVL126:
.LBE1804:
	.loc 3 243 0
	stw 30,128(1)
.LBB1905:
	.loc 3 244 0
	la 4,.LC9@l(4)
.LBE1905:
	.loc 3 243 0
	mr 30,3
	.cfi_offset 30, -8
.LBB1906:
	.loc 3 244 0
	mr 3,31
.LVL127:
.LBE1906:
	.loc 3 243 0
	stw 29,124(1)
	stw 0,140(1)
	mr 29,5
	.cfi_offset 65, 4
	.cfi_offset 29, -12
	stw 24,104(1)
	stw 25,108(1)
	stw 26,112(1)
	stw 27,116(1)
	stw 28,120(1)
.LEHB4:
.LBB1907:
	.loc 3 244 0
	.cfi_offset 28, -16
	.cfi_offset 27, -20
	.cfi_offset 26, -24
	.cfi_offset 25, -28
	.cfi_offset 24, -32
	bl _ZN5idStr4IcmpEPKcS1_
.LVL128:
	cmpwi 7,3,0
	beq- 7,.L135
	.loc 3 248 0
	lis 4,.LC10@ha
	mr 3,31
	la 4,.LC10@l(4)
	bl _ZN5idStr4IcmpEPKcS1_
	cmpwi 7,3,0
	beq- 7,.L136
	.loc 3 252 0
	lis 4,.LC11@ha
	mr 3,31
	la 4,.LC11@l(4)
	bl _ZN5idStr4IcmpEPKcS1_
	cmpwi 7,3,0
	beq- 7,.L137
	.loc 3 256 0
	lis 4,.LC12@ha
	mr 3,31
	la 4,.LC12@l(4)
	bl _ZN5idStr4IcmpEPKcS1_
	cmpwi 7,3,0
	beq- 7,.L138
	.loc 3 260 0
	lis 4,.LC13@ha
	mr 3,31
	la 4,.LC13@l(4)
	bl _ZN5idStr4IcmpEPKcS1_
	cmpwi 7,3,0
	beq- 7,.L139
	.loc 3 264 0
	lis 4,.LC14@ha
	mr 3,31
	la 4,.LC14@l(4)
	bl _ZN5idStr4IcmpEPKcS1_
	cmpwi 7,3,0
	beq- 7,.L140
	.loc 3 268 0
	lis 4,.LC15@ha
	mr 3,31
	la 4,.LC15@l(4)
	bl _ZN5idStr4IcmpEPKcS1_
	cmpwi 7,3,0
	beq- 7,.L141
	.loc 3 272 0
	lis 4,.LC16@ha
	mr 3,31
	la 4,.LC16@l(4)
	bl _ZN5idStr4IcmpEPKcS1_
	cmpwi 7,3,0
	beq- 7,.L142
	.loc 3 276 0
	lis 4,.LC17@ha
	mr 3,31
	la 4,.LC17@l(4)
	bl _ZN5idStr4IcmpEPKcS1_
.LEHE4:
	cmpwi 7,3,0
	beq- 7,.L143
.LVL129:
.LBB1805:
.LBB1806:
	.loc 4 412 0
	cmpwi 7,31,0
.LBB1807:
.LBB1808:
	.loc 4 356 0
	li 0,0
	.loc 4 358 0
	addi 26,1,84
	.loc 4 357 0
	li 9,20
	.loc 4 356 0
	stw 0,72(1)
	addi 27,1,72
	.loc 4 357 0
	stw 9,80(1)
	.loc 4 358 0
	stw 26,76(1)
	.loc 4 359 0
	stb 0,84(1)
.LBE1808:
.LBE1807:
	.loc 4 412 0
	beq- 7,.L103
	.loc 4 413 0
	mr 3,31
	addi 27,1,72
	bl strlen
	.loc 4 414 0
	addi 4,3,1
	.loc 4 413 0
	mr 28,3
.LVL130:
.LBB1809:
.LBB1810:
	.loc 4 350 0
	cmpwi 7,4,20
	.loc 4 358 0
	mr 3,26
.LVL131:
	.loc 4 350 0
	bgt- 7,.L144
.LVL132:
.L104:
.LBE1810:
.LBE1809:
	.loc 4 415 0
	mr 4,31
	bl strcpy
	.loc 4 416 0
	stw 28,72(1)
.LVL133:
.L103:
.LBE1806:
.LBE1805:
.LBB1817:
.LBB1818:
.LBB1819:
	.loc 4 926 0
	addi 3,1,40
	mr 4,27
	li 5,0
	li 6,4
.LEHB5:
	bl _ZNK5idStr3MidEii
.LEHE5:
.LVL134:
.LBE1819:
.LBE1818:
	.loc 3 282 0
	lis 4,.LC18@ha
	lwz 3,44(1)
	la 4,.LC18@l(4)
.LEHB6:
	bl _ZN5idStr4IcmpEPKcS1_
.LEHE6:
	mr 28,3
.LVL135:
.LBB1820:
.LBB1821:
.LBB1822:
	.loc 4 501 0
	addi 3,1,40
.LVL136:
.LEHB7:
	bl _ZN5idStr8FreeDataEv
.LEHE7:
.LVL137:
.LBE1822:
.LBE1821:
.LBE1820:
	.loc 3 282 0 discriminator 3
	cmpwi 7,28,0
.LBB1823:
	.loc 3 286 0 discriminator 3
	mr 3,30
.LBE1823:
	.loc 3 282 0 discriminator 3
	bne- 7,.L106
.LVL138:
.LBB1885:
.LBB1824:
.LBB1825:
.LBB1826:
	.loc 4 357 0
	li 0,20
.LBE1826:
.LBE1825:
.LBE1824:
	.loc 3 286 0
	mr 4,29
.LBB1831:
.LBB1829:
.LBB1827:
	.loc 4 357 0
	stw 0,16(1)
.LBE1827:
.LBE1829:
.LBE1831:
	.loc 3 286 0
	addi 5,1,8
.LBB1832:
.LBB1830:
.LBB1828:
	.loc 4 358 0
	addi 0,1,20
	.loc 4 356 0
	stw 28,8(1)
	.loc 4 358 0
	stw 0,12(1)
	.loc 4 359 0
	stb 28,20(1)
.LEHB8:
.LBE1828:
.LBE1830:
.LBE1832:
	.loc 3 286 0
	bl _ZN8idWindow11ParseStringEP8idParserR5idStr
	.loc 3 287 0
	lis 9,declManager@ha
	lwz 4,12(1)
	lwz 3,declManager@l(9)
.LVL139:
	li 5,1
	li 6,0
	lwz 9,0(3)
	lwz 0,104(9)
	mtctr 0
	bctrl
	.loc 3 288 0
	li 4,1
	.loc 3 287 0
	mr 26,3
.LVL140:
	.loc 3 288 0
	bl _ZNK10idMaterial23SetImageClassificationsEi
.LVL141:
	.loc 3 289 0
	cmpwi 7,26,0
	beq- 7,.L107
.LVL142:
.LBB1833:
.LBB1834:
	.file 10 "d:/Data/Nintendo/DoomGX/src/ui/../idlib/../renderer/Material.h"
	.loc 10 494 0 discriminator 1
	lwz 0,104(26)
.LBE1834:
.LBE1833:
	.loc 3 289 0 discriminator 1
	andi. 9,0,1
	bne- 0,.L107
.LVL143:
.LBB1835:
.LBB1836:
	.loc 10 513 0 discriminator 4
	lis 9,.LC19@ha
	lwz 0,.LC19@l(9)
	stw 0,148(26)
.LVL144:
.L107:
.LBE1836:
.LBE1835:
.LBB1837:
.LBB1838:
.LBB1839:
.LBB1840:
.LBB1841:
.LBB1842:
	.loc 4 976 0
	lbz 0,0(31)
	.loc 4 975 0
	li 11,0
	.loc 4 976 0
	cmpwi 7,0,0
	beq- 7,.L108
	mr 10,31
.LBE1842:
.LBE1841:
.LBE1840:
.LBE1839:
.LBE1838:
.LBE1837:
.LBE1885:
.LBE1817:
.LBB1893:
.LBB1815:
.LBB1813:
.LBB1811:
	.loc 3 243 0
	li 9,119
.LVL145:
.L109:
.LBE1811:
.LBE1813:
.LBE1815:
.LBE1893:
.LBB1894:
.LBB1886:
.LBB1875:
.LBB1871:
.LBB1847:
.LBB1845:
.LBB1844:
.LBB1843:
	.loc 4 977 0
	mullw 8,0,9
	.loc 4 976 0
	lbzu 0,1(10)
	addi 9,9,1
	cmpwi 7,0,0
	.loc 4 977 0
	add 11,11,8
.LVL146:
	.loc 4 976 0
	bne+ 7,.L109
.LVL147:
.L108:
.LBE1843:
.LBE1844:
	.loc 7 177 0
	lwz 0,1164(30)
.LBE1845:
.LBE1847:
	.loc 7 191 0
	lwz 28,1152(30)
.LBB1848:
.LBB1846:
	.loc 7 177 0
	and 0,11,0
.LBE1846:
.LBE1848:
	.loc 7 191 0
	slwi 0,0,2
	lwzx 29,28,0
.LVL148:
	add 28,28,0
.LVL149:
	cmpwi 7,29,0
	bne+ 7,.L131
	b .L110
.LVL150:
.L111:
	.loc 7 197 0
	bgt- 7,.L110
	.loc 7 191 0
	addi 28,29,36
	lwz 29,36(29)
.LVL151:
	cmpwi 7,29,0
	beq- 7,.L110
.LVL152:
.L131:
.LBB1849:
.LBB1850:
	.loc 4 675 0
	lwz 3,4(29)
	mr 4,31
	bl _ZN5idStr3CmpEPKcS1_
.LEHE8:
.LVL153:
.LBE1850:
.LBE1849:
	.loc 7 193 0
	cmpwi 7,3,0
	bne+ 7,.L111
	.loc 7 194 0
	stw 26,32(29)
.LVL154:
.L112:
.LBE1871:
.LBE1875:
.LBB1876:
.LBB1877:
.LBB1878:
	.loc 4 501 0
	addi 3,1,8
.LEHB9:
	bl _ZN5idStr8FreeDataEv
.LEHE9:
	.loc 3 293 0
	li 31,1
.LVL155:
.L117:
.LBE1878:
.LBE1877:
.LBE1876:
.LBE1886:
.LBE1894:
.LBB1895:
.LBB1896:
.LBB1897:
	.loc 4 501 0
	mr 3,27
.LEHB10:
	bl _ZN5idStr8FreeDataEv
	b .L94
.LVL156:
.L136:
.LBE1897:
.LBE1896:
.LBE1895:
	.loc 3 249 0
	mr 3,30
	mr 4,29
	addi 5,30,1208
	.loc 3 250 0
	li 31,1
.LVL157:
	.loc 3 249 0
	bl _ZN8idWindow11ParseStringEP8idParserR5idStr
.LVL158:
.L94:
.LBE1907:
	.loc 3 297 0
	lwz 0,140(1)
	mr 3,31
	lwz 24,104(1)
	mtlr 0
	lwz 25,108(1)
	lwz 26,112(1)
	lwz 27,116(1)
	lwz 28,120(1)
	lwz 29,124(1)
	lwz 30,128(1)
	lwz 31,132(1)
	addi 1,1,136
	.cfi_remember_state
.LCFI16:
	.cfi_def_cfa_offset 0
	.cfi_restore 31
	.cfi_restore 30
	.cfi_restore 29
	.cfi_restore 28
	.cfi_restore 27
	.cfi_restore 26
	.cfi_restore 25
	.cfi_restore 24
	blr
.LVL159:
.L135:
.LCFI17:
	.cfi_restore_state
.LBB1908:
	.loc 3 245 0
	mr 3,29
	.loc 3 246 0
	li 31,1
.LVL160:
	.loc 3 245 0
	bl _ZN8idParser9ParseBoolEv
	stb 3,956(30)
.LBE1908:
	.loc 3 297 0
	mr 3,31
	lwz 0,140(1)
	lwz 24,104(1)
	mtlr 0
	lwz 25,108(1)
	lwz 26,112(1)
	lwz 27,116(1)
	lwz 28,120(1)
	lwz 29,124(1)
.LVL161:
	lwz 30,128(1)
.LVL162:
	lwz 31,132(1)
	addi 1,1,136
	.cfi_remember_state
	.cfi_restore 24
	.cfi_restore 25
	.cfi_restore 26
	.cfi_restore 27
	.cfi_restore 28
	.cfi_restore 29
	.cfi_restore 30
	.cfi_restore 31
.LCFI18:
	.cfi_def_cfa_offset 0
	blr
.LVL163:
.L138:
.LCFI19:
	.cfi_restore_state
.LBB1909:
	.loc 3 257 0
	mr 3,30
	mr 4,29
	addi 5,30,992
	.loc 3 258 0
	li 31,1
.LVL164:
	.loc 3 257 0
	bl _ZN8idWindow11ParseStringEP8idParserR5idStr
	.loc 3 258 0
	b .L94
.LVL165:
.L137:
	.loc 3 253 0
	mr 3,30
	mr 4,29
	addi 5,30,960
	.loc 3 254 0
	li 31,1
.LVL166:
	.loc 3 253 0
	bl _ZN8idWindow11ParseStringEP8idParserR5idStr
.LBE1909:
	.loc 3 297 0
	lwz 0,140(1)
	mr 3,31
	lwz 24,104(1)
	mtlr 0
	lwz 25,108(1)
	lwz 26,112(1)
	lwz 27,116(1)
	lwz 28,120(1)
	lwz 29,124(1)
.LVL167:
	lwz 30,128(1)
.LVL168:
	lwz 31,132(1)
	addi 1,1,136
	.cfi_remember_state
	.cfi_restore 24
	.cfi_restore 25
	.cfi_restore 26
	.cfi_restore 27
	.cfi_restore 28
	.cfi_restore 29
	.cfi_restore 30
	.cfi_restore 31
.LCFI20:
	.cfi_def_cfa_offset 0
	blr
.LVL169:
.L139:
.LCFI21:
	.cfi_restore_state
.LBB1910:
	.loc 3 261 0
	mr 3,29
	.loc 3 262 0
	li 31,1
.LVL170:
	.loc 3 261 0
	bl _ZN8idParser9ParseBoolEv
	stb 3,1168(30)
	.loc 3 262 0
	b .L94
.LVL171:
.L141:
	.loc 3 269 0
	mr 3,30
	mr 4,29
	addi 5,30,1056
	.loc 3 270 0
	li 31,1
.LVL172:
	.loc 3 269 0
	bl _ZN8idWindow11ParseStringEP8idParserR5idStr
	.loc 3 270 0
	b .L94
.LVL173:
.L140:
	.loc 3 265 0
	mr 3,30
	mr 4,29
	addi 5,30,1024
	.loc 3 266 0
	li 31,1
.LVL174:
	.loc 3 265 0
	bl _ZN8idWindow11ParseStringEP8idParserR5idStr
	.loc 3 266 0
	b .L94
.LVL175:
.L142:
	.loc 3 273 0
	mr 3,30
	mr 4,29
	addi 5,30,1088
	.loc 3 274 0
	li 31,1
.LVL176:
	.loc 3 273 0
	bl _ZN8idWindow11ParseStringEP8idParserR5idStr
	.loc 3 274 0
	b .L94
.LVL177:
.L143:
	.loc 3 277 0
	mr 3,30
	mr 4,29
	addi 5,30,1120
	.loc 3 278 0
	li 31,1
.LVL178:
	.loc 3 277 0
	bl _ZN8idWindow11ParseStringEP8idParserR5idStr
.LEHE10:
	.loc 3 278 0
	b .L94
.LVL179:
.L106:
	.loc 3 296 0
	mr 4,31
	mr 5,29
.LEHB11:
	bl _ZN8idWindow16ParseInternalVarEPKcP8idParser
.LEHE11:
	mr 31,3
.LVL180:
	b .L117
.LVL181:
.L110:
.LBB1898:
.LBB1887:
.LBB1879:
.LBB1872:
	.loc 7 202 0
	lwz 9,1160(30)
	.loc 7 204 0
	li 3,40
	.loc 7 202 0
	addi 0,9,1
	stw 0,1160(30)
.LEHB12:
	.loc 7 204 0
	bl _Znwj
.LEHE12:
.LBB1851:
.LBB1852:
.LBB1853:
.LBB1854:
.LBB1855:
.LBB1856:
	.loc 4 356 0
	li 0,0
	.loc 4 358 0
	addi 24,3,12
	.loc 4 357 0
	li 9,20
	.loc 4 356 0
	stw 0,0(3)
	.loc 4 357 0
	stw 9,8(3)
.LBE1856:
.LBE1855:
.LBE1854:
.LBE1853:
.LBE1852:
.LBE1851:
	.loc 7 204 0
	mr 30,3
.LVL182:
.LBB1869:
.LBB1867:
.LBB1865:
.LBB1863:
.LBB1858:
.LBB1857:
	.loc 4 358 0
	stw 24,4(3)
	.loc 4 359 0
	stb 0,12(3)
.LBE1857:
.LBE1858:
	.loc 4 413 0
	mr 3,31
.LVL183:
	bl strlen
	.loc 4 414 0
	addi 4,3,1
	.loc 4 413 0
	mr 25,3
.LVL184:
.LBB1859:
.LBB1860:
	.loc 4 350 0
	cmpwi 7,4,20
	bgt- 7,.L145
.LVL185:
.L114:
.LBE1860:
.LBE1859:
	.loc 4 415 0
	mr 3,24
	mr 4,31
	bl strcpy
	.loc 4 416 0
	stw 25,0(30)
.LBE1863:
.LBE1865:
	.loc 7 74 0
	stw 26,32(30)
.LBE1867:
.LBE1869:
	.loc 7 204 0
	stw 30,0(28)
	.loc 7 205 0
	stw 29,36(30)
	b .L112
.LVL186:
.L144:
.LBE1872:
.LBE1879:
.LBE1887:
.LBE1898:
.LBB1899:
.LBB1816:
.LBB1814:
.LBB1812:
	.loc 4 351 0
	mr 3,27
	li 5,1
.LEHB13:
	bl _ZN5idStr10ReAllocateEib
.LEHE13:
.LVL187:
	lwz 3,76(1)
	b .L104
.LVL188:
.L145:
.LBE1812:
.LBE1814:
.LBE1816:
.LBE1899:
.LBB1900:
.LBB1888:
.LBB1880:
.LBB1873:
.LBB1870:
.LBB1868:
.LBB1866:
.LBB1864:
.LBB1862:
.LBB1861:
	mr 3,30
.LVL189:
	li 5,1
.LEHB14:
	bl _ZN5idStr10ReAllocateEib
.LEHE14:
.LVL190:
	lwz 24,4(30)
	b .L114
.LVL191:
.L126:
	mr 31,3
.LVL192:
.L120:
.LBE1861:
.LBE1862:
.LBE1864:
.LBE1866:
.LBE1868:
.LBE1870:
.LBE1873:
.LBE1880:
.LBE1888:
.LBE1900:
.LBB1901:
.LBB1902:
.LBB1903:
	.loc 4 501 0
	mr 3,27
	bl _ZN5idStr8FreeDataEv
	mr 3,31
.LEHB15:
	bl _Unwind_Resume
.LEHE15:
.LVL193:
.L129:
	mr 31,3
.LVL194:
.LBE1903:
.LBE1902:
.LBE1901:
.LBB1904:
.LBB1889:
.LBB1881:
.LBB1874:
	.loc 7 204 0
	mr 3,30
	bl _ZdlPv
.LVL195:
.L116:
.LBE1874:
.LBE1881:
.LBB1882:
.LBB1883:
.LBB1884:
	.loc 4 501 0
	addi 3,1,8
	bl _ZN5idStr8FreeDataEv
	b .L120
.LVL196:
.L127:
	mr 31,3
.LVL197:
.LBE1884:
.LBE1883:
.LBE1882:
.LBE1889:
.LBB1890:
.LBB1891:
.LBB1892:
	addi 3,1,40
.LVL198:
	bl _ZN5idStr8FreeDataEv
.LVL199:
	b .L120
.LVL200:
.L128:
	mr 31,3
.LVL201:
	b .L116
.LBE1892:
.LBE1891:
.LBE1890:
.LBE1904:
.LBE1910:
	.cfi_endproc
.LFE2864:
	.section	.gcc_except_table
.LLSDA2864:
	.byte	0xff
	.byte	0xff
	.byte	0x1
	.uleb128 .LLSDACSE2864-.LLSDACSB2864
.LLSDACSB2864:
	.uleb128 .LEHB4-.LFB2864
	.uleb128 .LEHE4-.LEHB4
	.uleb128 0
	.uleb128 0
	.uleb128 .LEHB5-.LFB2864
	.uleb128 .LEHE5-.LEHB5
	.uleb128 .L126-.LFB2864
	.uleb128 0
	.uleb128 .LEHB6-.LFB2864
	.uleb128 .LEHE6-.LEHB6
	.uleb128 .L127-.LFB2864
	.uleb128 0
	.uleb128 .LEHB7-.LFB2864
	.uleb128 .LEHE7-.LEHB7
	.uleb128 .L126-.LFB2864
	.uleb128 0
	.uleb128 .LEHB8-.LFB2864
	.uleb128 .LEHE8-.LEHB8
	.uleb128 .L128-.LFB2864
	.uleb128 0
	.uleb128 .LEHB9-.LFB2864
	.uleb128 .LEHE9-.LEHB9
	.uleb128 .L126-.LFB2864
	.uleb128 0
	.uleb128 .LEHB10-.LFB2864
	.uleb128 .LEHE10-.LEHB10
	.uleb128 0
	.uleb128 0
	.uleb128 .LEHB11-.LFB2864
	.uleb128 .LEHE11-.LEHB11
	.uleb128 .L126-.LFB2864
	.uleb128 0
	.uleb128 .LEHB12-.LFB2864
	.uleb128 .LEHE12-.LEHB12
	.uleb128 .L128-.LFB2864
	.uleb128 0
	.uleb128 .LEHB13-.LFB2864
	.uleb128 .LEHE13-.LEHB13
	.uleb128 0
	.uleb128 0
	.uleb128 .LEHB14-.LFB2864
	.uleb128 .LEHE14-.LEHB14
	.uleb128 .L129-.LFB2864
	.uleb128 0
	.uleb128 .LEHB15-.LFB2864
	.uleb128 .LEHE15-.LEHB15
	.uleb128 0
	.uleb128 0
.LLSDACSE2864:
	.section	".text"
	.size	_ZN12idListWindow16ParseInternalVarEPKcP8idParser, .-_ZN12idListWindow16ParseInternalVarEPKcP8idParser
	.align 2
	.globl _ZN12idListWindow10CommonInitEv
	.type	_ZN12idListWindow10CommonInitEv, @function
_ZN12idListWindow10CommonInitEv:
.LFB2851:
	.loc 3 49 0
	.cfi_startproc
	.cfi_personality 0,__gxx_personality_v0
	.cfi_lsda 0,.LLSDA2851
.LVL202:
	stwu 1,-16(1)
.LCFI22:
	.cfi_def_cfa_offset 16
	mflr 0
	.loc 3 50 0
	lis 4,.LC20@ha
	.loc 3 49 0
	stw 31,12(1)
	.loc 3 50 0
	la 4,.LC20@l(4)
	.loc 3 49 0
	mr 31,3
	.cfi_offset 31, -4
	.cfi_register 65, 0
	.loc 3 50 0
	addi 3,3,1248
.LVL203:
	.loc 3 49 0
	stw 0,20(1)
	stw 30,8(1)
.LEHB16:
	.loc 3 50 0
	.cfi_offset 30, -8
	.cfi_offset 65, 4
	bl _ZN5idStraSEPKc
.LBB1913:
.LBB1914:
	.loc 6 193 0
	lwz 3,1204(31)
.LBE1914:
.LBE1913:
	.loc 3 51 0
	li 0,0
	stw 0,1244(31)
.LBB1919:
.LBB1915:
	.loc 6 193 0
	cmpwi 7,3,0
.LBE1915:
.LBE1919:
	.loc 3 52 0
	stw 0,1240(31)
.LVL204:
.LBB1920:
.LBB1916:
	.loc 6 193 0
	beq- 7,.L147
	.loc 6 194 0
	bl _ZdaPv
.L147:
	.loc 6 197 0
	li 0,0
.LBE1916:
.LBE1920:
	.loc 3 55 0
	li 9,0
.LBB1921:
.LBB1917:
	.loc 6 197 0
	stw 0,1204(31)
.LBE1917:
.LBE1921:
	.loc 3 57 0
	li 3,1156
.LBB1922:
.LBB1918:
	.loc 6 198 0
	stw 0,1192(31)
	.loc 6 199 0
	stw 0,1196(31)
.LBE1918:
.LBE1922:
	.loc 3 54 0
	stw 0,948(31)
	.loc 3 55 0
	stw 9,952(31)
	.loc 3 56 0
	stb 0,956(31)
	.loc 3 57 0
	bl _ZN8idWindownwEj
.LEHE16:
	lwz 4,728(31)
	lwz 5,732(31)
	mr 30,3
.LEHB17:
	bl _ZN14idSliderWindowC1EP15idDeviceContextP20idUserInterfaceLocal
.LEHE17:
	.loc 3 58 0 discriminator 1
	li 0,0
	.loc 3 57 0 discriminator 1
	stw 30,1188(31)
	.loc 3 58 0 discriminator 1
	stb 0,1168(31)
	.loc 3 59 0 discriminator 1
	lwz 0,20(1)
	lwz 30,8(1)
	mtlr 0
	lwz 31,12(1)
.LVL205:
	addi 1,1,16
	.cfi_remember_state
.LCFI23:
	.cfi_def_cfa_offset 0
	.cfi_restore 31
	.cfi_restore 30
	blr
.LVL206:
.L149:
.LCFI24:
	.cfi_restore_state
	mr 31,3
.LVL207:
	.loc 3 57 0
	mr 3,30
	bl _ZN8idWindowdlEPv
	mr 3,31
.LEHB18:
	bl _Unwind_Resume
.LEHE18:
	.cfi_endproc
.LFE2851:
	.section	.gcc_except_table
.LLSDA2851:
	.byte	0xff
	.byte	0xff
	.byte	0x1
	.uleb128 .LLSDACSE2851-.LLSDACSB2851
.LLSDACSB2851:
	.uleb128 .LEHB16-.LFB2851
	.uleb128 .LEHE16-.LEHB16
	.uleb128 0
	.uleb128 0
	.uleb128 .LEHB17-.LFB2851
	.uleb128 .LEHE17-.LEHB17
	.uleb128 .L149-.LFB2851
	.uleb128 0
	.uleb128 .LEHB18-.LFB2851
	.uleb128 .LEHE18-.LEHB18
	.uleb128 0
	.uleb128 0
.LLSDACSE2851:
	.section	".text"
	.size	_ZN12idListWindow10CommonInitEv, .-_ZN12idListWindow10CommonInitEv
	.align 2
	.globl _ZN12idListWindow13SetCurrentSelEi
	.type	_ZN12idListWindow13SetCurrentSelEi, @function
_ZN12idListWindow13SetCurrentSelEi:
.LFB2858:
	.loc 3 72 0
	.cfi_startproc
.LVL208:
	mflr 0
	stwu 1,-24(1)
.LCFI25:
	.cfi_def_cfa_offset 24
	.cfi_register 65, 0
	stw 28,8(1)
	mr 28,4
	.cfi_offset 28, -16
	stw 31,20(1)
	mr 31,3
	.cfi_offset 31, -4
.LVL209:
	stw 0,28(1)
	stw 29,12(1)
	stw 30,16(1)
.LBB1940:
.LBB1941:
	.loc 6 193 0
	lwz 3,1204(3)
.LVL210:
	cmpwi 7,3,0
	beq- 7,.L151
	.cfi_offset 30, -8
	.cfi_offset 29, -12
	.cfi_offset 65, 4
	.loc 6 194 0
	bl _ZdaPv
.LVL211:
.L151:
.LBE1941:
.LBE1940:
.LBB1944:
.LBB1945:
	.loc 6 656 0
	lwz 3,1200(31)
.LBE1945:
.LBE1944:
.LBB1968:
.LBB1942:
	.loc 6 197 0
	li 0,0
	stw 0,1204(31)
.LBE1942:
.LBE1968:
	.loc 3 74 0
	addi 30,31,1192
.LVL212:
.LBB1969:
.LBB1965:
.LBB1946:
.LBB1947:
	.loc 6 375 0
	cmpwi 7,3,0
.LBE1947:
.LBE1946:
.LBE1965:
.LBE1969:
.LBB1970:
.LBB1943:
	.loc 6 198 0
	stw 0,1192(31)
	.loc 6 199 0
	stw 0,1196(31)
.LBE1943:
.LBE1970:
.LBB1971:
.LBB1966:
.LBB1950:
.LBB1948:
	.loc 6 375 0
	ble- 7,.L165
.LVL213:
	.loc 6 386 0
	stw 3,1196(31)
	.loc 6 392 0
	slwi 3,3,2
	bl _Znaj
.LVL214:
	.loc 6 393 0
	lwz 0,1192(31)
	.loc 6 392 0
	mr 29,3
	stw 3,1204(31)
.LVL215:
	.loc 6 393 0
	cmpwi 7,0,0
	li 9,0
	li 11,0
	bgt+ 7,.L168
	lwz 9,1196(31)
	b .L154
.LVL216:
.L170:
	lwz 29,1204(31)
.LVL217:
.L168:
	.loc 6 394 0
	lwz 0,0(9)
	.loc 6 393 0
	addi 11,11,1
.LVL218:
	.loc 6 394 0
	stwx 0,29,9
	.loc 6 393 0
	addi 9,9,4
	lwz 0,0(30)
	cmpw 7,11,0
	blt+ 7,.L170
	lwz 9,1196(31)
	lwz 29,1204(31)
.LVL219:
.L154:
.LBE1948:
.LBE1950:
.LBB1951:
	.loc 6 659 0
	cmpw 7,9,0
	bne+ 7,.L169
	lwz 3,1200(31)
	mr 11,9
	b .L152
.LVL220:
.L165:
.LBE1951:
.LBB1962:
.LBB1949:
	.loc 6 375 0
	li 29,0
	li 9,0
	li 11,0
.LVL221:
.L152:
.LBE1949:
.LBE1962:
.LBB1963:
.LBB1952:
	.loc 6 662 0
	cmpwi 7,3,0
	bne- 7,.L157
	.loc 6 663 0
	li 0,16
	li 3,16
	stw 0,1200(31)
.L157:
	.loc 6 665 0
	add 0,11,3
.LVL222:
	.loc 6 666 0
	divw 0,0,3
.LVL223:
.LBB1953:
.LBB1954:
	.loc 6 375 0
	mullw. 3,0,3
.LVL224:
	ble- 0,.L171
	.loc 6 380 0
	cmpw 7,3,11
	beq- 7,.L172
.LVL225:
	.loc 6 387 0
	cmpw 7,3,9
	.loc 6 386 0
	stw 3,1196(31)
	.loc 6 387 0
	bge- 7,.L161
	.loc 6 388 0
	stw 3,1192(31)
.L161:
	.loc 6 392 0
	slwi 3,3,2
.LVL226:
	bl _Znaj
.LVL227:
	.loc 6 393 0
	lwz 0,1192(31)
	.loc 6 392 0
	stw 3,1204(31)
.LVL228:
	.loc 6 393 0
	cmpwi 7,0,0
	ble- 7,.L162
	.loc 3 72 0
	addi 11,29,-4
.LBE1954:
.LBE1953:
	.loc 6 393 0
	li 9,0
	b .L163
.LVL229:
.L173:
.LBB1959:
.LBB1957:
	lwz 3,1204(31)
.LVL230:
.L163:
	.loc 6 394 0
	lwzu 10,4(11)
	slwi 0,9,2
	.loc 6 393 0
	addi 9,9,1
.LVL231:
	.loc 6 394 0
	stwx 10,3,0
	.loc 6 393 0
	lwz 0,0(30)
	cmpw 7,9,0
	blt+ 7,.L173
.LVL232:
.L162:
	.loc 6 398 0
	cmpwi 7,29,0
	beq- 7,.L174
	.loc 6 399 0
	mr 3,29
	bl _ZdaPv
	lwz 0,1192(31)
	lwz 29,1204(31)
.LVL233:
.L169:
	slwi 0,0,2
	add 29,29,0
.L156:
.LBE1957:
.LBE1959:
.LBE1952:
.LBE1963:
	.loc 6 669 0
	stw 28,0(29)
	.loc 6 670 0
	lwz 9,1192(31)
	addi 0,9,1
	stw 0,1192(31)
.LBE1966:
.LBE1971:
	.loc 3 75 0
	lwz 0,28(1)
	lwz 28,8(1)
.LVL234:
	mtlr 0
	lwz 29,12(1)
.LVL235:
	lwz 30,16(1)
.LVL236:
	lwz 31,20(1)
.LVL237:
	addi 1,1,24
	.cfi_remember_state
.LCFI26:
	.cfi_def_cfa_offset 0
	.cfi_restore 31
	.cfi_restore 30
	.cfi_restore 29
	.cfi_restore 28
	blr
.LVL238:
.L172:
.LCFI27:
	.cfi_restore_state
.LBB1972:
.LBB1967:
.LBB1964:
.LBB1961:
.LBB1960:
.LBB1958:
	.loc 6 380 0
	slwi 9,9,2
	add 29,29,9
	b .L156
.L171:
.LBB1955:
.LBB1956:
	.loc 6 193 0
	cmpwi 7,29,0
	beq- 7,.L159
	.loc 6 194 0
	mr 3,29
.LVL239:
	bl _ZdaPv
.L159:
	.loc 6 197 0
	li 0,0
	.loc 6 199 0
	li 29,0
	.loc 6 197 0
	stw 0,1204(31)
	.loc 6 198 0
	stw 0,1192(31)
	.loc 6 199 0
	stw 0,1196(31)
	b .L156
.LVL240:
.L174:
.LBE1956:
.LBE1955:
	.loc 6 398 0
	lwz 0,1192(31)
	lwz 29,1204(31)
.LVL241:
	slwi 0,0,2
	add 29,29,0
	b .L156
.LBE1958:
.LBE1960:
.LBE1961:
.LBE1964:
.LBE1967:
.LBE1972:
	.cfi_endproc
.LFE2858:
	.size	_ZN12idListWindow13SetCurrentSelEi, .-_ZN12idListWindow13SetCurrentSelEi
	.align 2
	.globl _ZN12idListWindow14ClearSelectionEi
	.type	_ZN12idListWindow14ClearSelectionEi, @function
_ZN12idListWindow14ClearSelectionEi:
.LFB2859:
	.loc 3 77 0
	.cfi_startproc
.LVL242:
.LBB1973:
.LBB1974:
.LBB1975:
	.loc 3 629 0
	lwz 9,1192(3)
.LVL243:
	.loc 6 772 0
	cmpwi 7,9,0
	blelr- 7
	.loc 6 773 0
	lwz 8,1204(3)
	lwz 0,0(8)
	cmpw 7,0,4
	beq- 7,.L181
	mr 10,8
	.loc 6 772 0
	li 11,0
	mtctr 9
	b .L178
.LVL244:
.L179:
	.loc 6 773 0
	lwzu 0,4(10)
	cmpw 7,0,4
	beq- 7,.L177
.LVL245:
.L178:
	.loc 6 772 0
	addi 11,11,1
.LVL246:
	bdnz .L179
	blr
.LVL247:
.L181:
	li 11,0
.LVL248:
.L177:
.LBE1975:
.LBE1974:
.LBB1976:
.LBB1977:
	.loc 6 868 0
	addi 9,9,-1
	.loc 6 869 0
	cmpw 7,11,9
	.loc 6 868 0
	stw 9,1192(3)
.LVL249:
	.loc 6 869 0
	bgelr- 7
	slwi 9,11,2
	addi 11,11,1
.LVL250:
	.loc 6 870 0
	add 10,8,9
	.loc 3 77 0
	addi 9,9,4
	.loc 6 870 0
	lwzx 0,8,9
	stw 0,0(10)
	.loc 6 869 0
	lwz 0,1192(3)
	cmpw 7,11,0
	bgelr- 7
.LVL251:
.L182:
	lwz 8,1204(3)
	addi 11,11,1
.LVL252:
	.loc 6 870 0
	add 10,8,9
	.loc 3 77 0
	addi 9,9,4
	.loc 6 870 0
	lwzx 0,8,9
	stw 0,0(10)
	.loc 6 869 0
	lwz 0,1192(3)
	cmpw 7,11,0
	blt+ 7,.L182
	blr
.LBE1977:
.LBE1976:
.LBE1973:
	.cfi_endproc
.LFE2859:
	.size	_ZN12idListWindow14ClearSelectionEi, .-_ZN12idListWindow14ClearSelectionEi
	.align 2
	.globl _ZN12idListWindow13AddCurrentSelEi
	.type	_ZN12idListWindow13AddCurrentSelEi, @function
_ZN12idListWindow13AddCurrentSelEi:
.LFB2860:
	.loc 3 84 0
	.cfi_startproc
.LVL253:
	mflr 0
	stwu 1,-24(1)
.LCFI28:
	.cfi_def_cfa_offset 24
	.cfi_register 65, 0
	stw 28,8(1)
	mr 28,4
	.cfi_offset 28, -16
	stw 29,12(1)
	.loc 3 85 0
	addi 29,3,1192
	.cfi_offset 29, -12
.LVL254:
	.loc 3 84 0
	stw 31,20(1)
	mr 31,3
	.cfi_offset 31, -4
	stw 0,28(1)
	stw 30,16(1)
.LBB1993:
.LBB1994:
	.loc 6 655 0
	lwz 30,1204(3)
	.cfi_offset 30, -8
	.cfi_offset 65, 4
	cmpwi 7,30,0
	beq- 7,.L184
	lwz 0,1192(3)
	lwz 9,1196(3)
.LVL255:
.L185:
.LBB1995:
	.loc 6 659 0
	cmpw 7,0,9
	beq- 7,.L202
.L204:
.LBB1996:
.LBB1997:
.LBB1998:
	.loc 6 399 0
	slwi 0,0,2
	add 30,30,0
.L192:
.LBE1998:
.LBE1997:
.LBE1996:
.LBE1995:
	.loc 6 669 0
	stw 28,0(30)
	.loc 6 670 0
	lwz 9,1192(31)
	addi 0,9,1
	stw 0,1192(31)
.LBE1994:
.LBE1993:
	.loc 3 86 0
	lwz 0,28(1)
	lwz 28,8(1)
.LVL256:
	mtlr 0
	lwz 29,12(1)
.LVL257:
	lwz 30,16(1)
.LVL258:
	lwz 31,20(1)
.LVL259:
	addi 1,1,24
	.cfi_remember_state
.LCFI29:
	.cfi_def_cfa_offset 0
	.cfi_restore 31
	.cfi_restore 30
	.cfi_restore 29
	.cfi_restore 28
	blr
.LVL260:
.L202:
.LCFI30:
	.cfi_restore_state
	lwz 3,1200(31)
.LBB2022:
.LBB2021:
.LBB2011:
	.loc 6 659 0
	mr 10,0
.L187:
.LBB2009:
	.loc 6 662 0
	cmpwi 7,3,0
	mr 9,3
	beq- 7,.L205
.L193:
	.loc 6 665 0
	add 11,10,9
.LVL261:
	.loc 6 666 0
	divw 11,11,9
.LVL262:
.LBB2005:
.LBB2001:
	.loc 6 375 0
	mullw. 9,11,9
.LVL263:
	ble- 0,.L206
	.loc 6 380 0
	cmpw 7,9,10
	beq- 7,.L204
.LVL264:
	.loc 6 387 0
	cmpw 7,9,0
	.loc 6 386 0
	stw 9,1196(31)
	.loc 6 387 0
	blt- 7,.L207
.L197:
	.loc 6 392 0
	slwi 3,9,2
	bl _Znaj
.LVL265:
	.loc 6 393 0
	lwz 0,1192(31)
	.loc 6 392 0
	stw 3,1204(31)
.LVL266:
	.loc 6 393 0
	cmpwi 7,0,0
	ble- 7,.L198
	.loc 3 84 0
	addi 11,30,-4
.LBE2001:
.LBE2005:
	.loc 6 393 0
	li 9,0
	b .L199
.LVL267:
.L208:
.LBB2006:
.LBB2002:
	lwz 3,1204(31)
.LVL268:
.L199:
	.loc 6 394 0
	lwzu 10,4(11)
	slwi 0,9,2
	.loc 6 393 0
	addi 9,9,1
.LVL269:
	.loc 6 394 0
	stwx 10,3,0
	.loc 6 393 0
	lwz 0,0(29)
	cmpw 7,9,0
	blt+ 7,.L208
.LVL270:
.L198:
	.loc 6 398 0
	cmpwi 7,30,0
	beq- 7,.L209
	.loc 6 399 0
	mr 3,30
	bl _ZdaPv
	lwz 0,1192(31)
	lwz 30,1204(31)
.LVL271:
	b .L204
.LVL272:
.L205:
.LBE2002:
.LBE2006:
	.loc 6 663 0
	li 9,16
	stw 9,1200(31)
	b .L193
.LVL273:
.L207:
.LBB2007:
.LBB2003:
	.loc 6 388 0
	stw 9,1192(31)
	b .L197
.LVL274:
.L184:
.LBE2003:
.LBE2007:
.LBE2009:
.LBE2011:
	.loc 6 656 0
	lwz 3,1200(3)
.LBB2012:
.LBB2013:
	.loc 6 375 0
	cmpwi 7,3,0
.LBE2013:
.LBE2012:
	.loc 6 656 0
	mr 9,3
.LVL275:
.LBB2018:
.LBB2016:
	.loc 6 375 0
	ble- 7,.L210
	.loc 6 380 0
	lwz 0,1196(31)
	cmpw 7,3,0
	lwz 0,1192(31)
	beq- 7,.L185
.LVL276:
	.loc 6 387 0
	cmpw 7,3,0
	.loc 6 386 0
	stw 3,1196(31)
	.loc 6 387 0
	bge- 7,.L189
	.loc 6 388 0
	stw 3,1192(31)
.L189:
	.loc 6 392 0
	slwi 3,3,2
	bl _Znaj
.LVL277:
	.loc 6 393 0
	lwz 0,1192(31)
	.loc 6 392 0
	mr 30,3
	stw 3,1204(31)
.LVL278:
	.loc 6 393 0
	cmpwi 7,0,0
	li 9,0
	li 11,0
	bgt+ 7,.L203
	b .L213
.LVL279:
.L212:
	lwz 30,1204(31)
.LVL280:
.L203:
	.loc 6 394 0
	lwz 0,0(9)
	.loc 6 393 0
	addi 11,11,1
.LVL281:
	.loc 6 394 0
	stwx 0,30,9
	.loc 6 393 0
	addi 9,9,4
	lwz 0,0(29)
	cmpw 7,11,0
	blt+ 7,.L212
	lwz 9,1196(31)
	lwz 30,1204(31)
	b .L185
.LVL282:
.L206:
.LBE2016:
.LBE2018:
.LBB2019:
.LBB2010:
.LBB2008:
.LBB2004:
.LBB1999:
.LBB2000:
	.loc 6 193 0
	cmpwi 7,30,0
	beq- 7,.L195
	.loc 6 194 0
	mr 3,30
	bl _ZdaPv
.LVL283:
.L195:
	.loc 6 197 0
	li 0,0
	.loc 6 199 0
	li 30,0
	.loc 6 197 0
	stw 0,1204(31)
	.loc 6 198 0
	stw 0,1192(31)
	.loc 6 199 0
	stw 0,1196(31)
	b .L192
.LVL284:
.L209:
.LBE2000:
.LBE1999:
	.loc 6 398 0
	lwz 0,1192(31)
	lwz 30,1204(31)
.LVL285:
	slwi 0,0,2
	add 30,30,0
	b .L192
.LVL286:
.L210:
.LBE2004:
.LBE2008:
.LBE2010:
.LBE2019:
.LBB2020:
.LBB2017:
.LBB2014:
.LBB2015:
	.loc 6 198 0
	stw 30,1192(31)
	.loc 6 199 0
	li 10,0
	stw 30,1196(31)
	li 0,0
	b .L187
.LVL287:
.L213:
.LBE2015:
.LBE2014:
	.loc 6 393 0
	lwz 9,1196(31)
	b .L185
.LBE2017:
.LBE2020:
.LBE2021:
.LBE2022:
	.cfi_endproc
.LFE2860:
	.size	_ZN12idListWindow13AddCurrentSelEi, .-_ZN12idListWindow13AddCurrentSelEi
	.align 2
	.globl _ZN12idListWindow11HandleEventEPK10sysEvent_tPb
	.type	_ZN12idListWindow11HandleEventEPK10sysEvent_tPb, @function
_ZN12idListWindow11HandleEventEPK10sysEvent_tPb:
.LFB2863:
	.loc 3 96 0
	.cfi_startproc
.LVL288:
	mflr 0
	stwu 1,-112(1)
.LCFI31:
	.cfi_def_cfa_offset 112
	.cfi_register 65, 0
	mfcr 12
	stfd 31,104(1)
	stw 0,116(1)
	stw 26,72(1)
	stw 27,76(1)
	stw 28,80(1)
	mr 28,4
	.cfi_offset 28, -32
	.cfi_offset 27, -36
	.cfi_offset 26, -40
	.cfi_offset 65, 4
	.cfi_offset 63, -8
	.cfi_register 70, 12
	stw 29,84(1)
	mr 29,5
	.cfi_offset 29, -28
	stw 30,88(1)
	stw 31,92(1)
	mr 31,3
	.cfi_offset 31, -20
	.cfi_offset 30, -24
	stw 12,68(1)
	stfd 30,96(1)
.LBB2023:
	.loc 3 98 0
	.cfi_offset 62, -16
	.cfi_offset 70, -44
	bl _ZN8idWindow11HandleEventEPK10sysEvent_tPb
.LVL289:
	mr 30,3
.LVL290:
	.loc 3 100 0
	mr 3,31
.LVL291:
	bl _ZN8idWindow16GetMaxCharHeightEv
	.loc 3 101 0
	lfs 0,668(31)
.LBB2024:
	.loc 3 105 0
	lwz 0,4(28)
.LBE2024:
	.loc 3 101 0
	addi 9,1,52
	fdivs 0,0,1
	.loc 3 103 0
	lwz 27,8(28)
.LBB2084:
	.loc 3 105 0
	cmpwi 7,0,1
.LBE2084:
	.loc 3 101 0
	fctiwz 0,0
	.loc 3 100 0
	fmr 31,1
.LVL292:
	.loc 3 101 0
	stfiwx 0,0,9
	lwz 26,52(1)
.LVL293:
.LBB2085:
	.loc 3 105 0
	beq- 7,.L283
.LBB2025:
	.loc 3 172 0
	cmpwi 7,0,2
	beq- 7,.L284
.LVL294:
.L216:
.LBE2025:
.LBE2085:
.LBE2023:
	.loc 3 240 0
	lwz 0,116(1)
	mr 3,30
	lwz 12,68(1)
	mtlr 0
	lwz 26,72(1)
.LVL295:
	lwz 27,76(1)
.LVL296:
	mtcrf 8,12
	lwz 28,80(1)
	lwz 29,84(1)
.LVL297:
	lwz 30,88(1)
	lwz 31,92(1)
.LVL298:
	lfd 30,96(1)
	lfd 31,104(1)
.LVL299:
	addi 1,1,112
	.cfi_remember_state
.LCFI32:
	.cfi_def_cfa_offset 0
	.cfi_restore 70
	.cfi_restore 63
	.cfi_restore 62
	.cfi_restore 31
	.cfi_restore 30
	.cfi_restore 29
	.cfi_restore 28
	.cfi_restore 27
	.cfi_restore 26
	blr
.LVL300:
.L284:
.LCFI33:
	.cfi_restore_state
.LBB2116:
.LBB2086:
.LBB2049:
.LBB2026:
.LBB2027:
.LBB2028:
	.loc 4 1026 0
	addi 0,27,-32
	cmplwi 7,0,94
	ble- 7,.L239
	addi 0,27,-161
	cmplwi 7,0,94
	bgt- 7,.L216
.L239:
	.loc 3 629 0
	lwz 11,732(31)
.LBE2028:
.LBE2027:
	.loc 3 177 0
	lwz 9,1244(31)
.LBB2030:
.LBB2029:
	.loc 3 629 0
	lwz 0,200(11)
.LBE2029:
.LBE2030:
	.loc 3 177 0
	addi 9,9,1000
	cmpw 7,0,9
	bgt- 7,.L285
.LVL301:
.L240:
.LBB2031:
.LBB2032:
	.loc 4 751 0
	lwz 9,1248(31)
.LBE2032:
.LBE2031:
	.loc 3 181 0
	rlwinm 28,27,0,0xff
.LVL302:
.LBB2042:
.LBB2039:
.LBB2033:
.LBB2034:
	.loc 4 350 0
	lwz 11,1256(31)
.LBE2034:
.LBE2033:
	.loc 4 751 0
	addi 4,9,2
.LBE2039:
.LBE2042:
	.loc 3 180 0
	stw 0,1244(31)
.LVL303:
.LBB2043:
.LBB2040:
.LBB2037:
.LBB2035:
	.loc 4 350 0
	cmpw 7,4,11
	bgt- 7,.L286
.LVL304:
.L241:
.LBE2035:
.LBE2037:
	.loc 4 752 0
	lwz 11,1252(31)
	cmpwi 4,27,187
	stbx 28,11,9
	.loc 4 753 0
	lwz 11,1248(31)
	.loc 4 754 0
	lwz 9,1252(31)
	.loc 4 753 0
	addi 0,11,1
	.loc 4 754 0
	li 11,0
	.loc 4 753 0
	stw 0,1248(31)
	.loc 4 754 0
	stbx 11,9,0
.LVL305:
.LBE2040:
.LBE2043:
.LBB2044:
	.loc 3 183 0
	lwz 0,1172(31)
	cmpwi 7,0,0
	ble- 7,.L222
	li 28,0
.LVL306:
	b .L243
.LVL307:
.L242:
	lwz 0,1172(31)
	addi 28,28,1
.LVL308:
	cmpw 7,0,28
	ble- 7,.L287
.LVL309:
.L243:
.LBB2045:
	.loc 3 629 0
	lwz 9,1184(31)
	slwi 0,28,5
.LBE2045:
	.loc 3 184 0
	lwz 3,1252(31)
.LBB2046:
	.loc 3 629 0
	add 9,9,0
.LBE2046:
	.loc 3 184 0
	lwz 5,1248(31)
	lwz 4,4(9)
	bl _ZN5idStr5IcmpnEPKcS1_i
.LVL310:
	cmpwi 7,3,0
	bne+ 7,.L242
	.loc 3 185 0
	mr 3,31
	mr 4,28
	cmpwi 4,27,187
	bl _ZN12idListWindow13SetCurrentSelEi
.LVL311:
.L222:
.LBE2044:
.LBE2026:
.LBE2049:
.LBE2086:
.LBB2087:
.LBB2088:
	.loc 3 89 0
	lwz 9,1192(31)
	li 0,0
	cmpwi 7,9,0
	beq- 7,.L244
.LVL312:
	lwz 9,1204(31)
	lwz 0,0(9)
.LBE2088:
.LBE2087:
	.loc 3 194 0
	cmpwi 7,0,0
	blt- 7,.L288
.LVL313:
.L244:
.LBB2089:
.LBB2090:
	.loc 3 629 0
	lwz 4,1172(31)
.LBE2090:
.LBE2089:
	.loc 3 198 0
	cmpw 7,4,0
	ble- 7,.L289
.L246:
	.loc 3 202 0
	lwz 3,1188(31)
	lis 9,.LC7@ha
	lfs 1,.LC7@l(9)
	lfs 0,956(3)
	fcmpu 7,0,1
	bng- 7,.L281
	.loc 3 203 0
	li 3,141
	bl _ZN10idKeyInput6IsDownEi
	cmpwi 7,3,0
	beq- 7,.L249
	lwz 0,948(31)
.LVL314:
.L250:
	.loc 3 629 0
	lwz 9,1172(31)
	.loc 3 212 0
	addi 11,9,-1
	cmpw 7,11,0
	bgt- 7,.L256
	.loc 3 213 0
	addi 0,9,-2
	stw 0,948(31)
.L256:
	.loc 3 215 0
	cmpwi 7,0,0
	blt- 7,.L290
.L257:
	.loc 3 218 0
	xoris 0,0,0x8000
	lis 9,.LC4@ha
	stw 0,44(1)
	lis 0,0x4330
	stw 0,40(1)
	lfs 0,.LC4@l(9)
	lfd 1,40(1)
	lwz 3,1188(31)
	fsub 1,1,0
	frsp 1,1
	bl _ZN14idSliderWindow8SetValueEf
.L258:
.LBB2092:
	.loc 3 224 0
	beq- 4,.L259
.LBB2093:
	.loc 3 226 0
	lis 9,sys@ha
	addi 3,1,8
	lwz 4,sys@l(9)
	li 5,1
	li 6,1
	lwz 9,0(4)
	lwz 0,84(9)
	mtctr 0
	bctrl
	.loc 3 227 0
	mr 3,31
	addi 4,1,8
	mr 5,29
	bl _ZN8idWindow11HandleEventEPK10sysEvent_tPb
.L259:
.LBE2093:
.LBE2092:
.LBB2094:
	.loc 3 230 0
	lwz 0,1192(31)
	cmpwi 7,0,0
	ble- 7,.L260
	lis 26,.LC21@ha
	li 29,0
.LVL315:
	la 26,.LC21@l(26)
.L261:
.LBB2095:
	.loc 3 232 0 discriminator 2
	lwz 28,732(31)
	mr 5,29
	lwz 4,1212(31)
	mr 3,26
	lwz 9,0(28)
	lwz 27,64(9)
	crxor 6,6,6
	bl _Z2vaPKcz
	lwz 9,1204(31)
	slwi 0,29,2
	mr 4,3
.LVL316:
	mtctr 27
	lwzx 5,9,0
	mr 3,28
	.loc 3 231 0 discriminator 2
	addi 29,29,1
.LVL317:
	.loc 3 232 0 discriminator 2
	bctrl
.LVL318:
	.loc 3 231 0 discriminator 2
	lwz 0,1192(31)
	cmpw 7,0,29
	bgt+ 7,.L261
.LVL319:
.L262:
.LBE2095:
.LBE2094:
	.loc 3 237 0
	lwz 28,732(31)
	lis 3,.LC23@ha
	lwz 4,1212(31)
	la 3,.LC23@l(3)
	lwz 9,0(28)
	lwz 29,64(9)
	crxor 6,6,6
	bl _Z2vaPKcz
	mr 4,3
	lwz 5,1192(31)
	mr 3,28
	mtctr 29
	bctrl
.LBE2116:
	.loc 3 240 0
	lwz 0,116(1)
	lwz 12,68(1)
	mr 3,30
	mtlr 0
	lwz 26,72(1)
	lwz 27,76(1)
	mtcrf 8,12
	lwz 28,80(1)
	lwz 29,84(1)
	lwz 30,88(1)
.LVL320:
	lwz 31,92(1)
.LVL321:
	lfd 30,96(1)
	lfd 31,104(1)
.LVL322:
	addi 1,1,112
	.cfi_remember_state
	.cfi_restore 26
	.cfi_restore 27
	.cfi_restore 28
	.cfi_restore 29
	.cfi_restore 30
	.cfi_restore 31
	.cfi_restore 62
	.cfi_restore 63
	.cfi_restore 70
.LCFI34:
	.cfi_def_cfa_offset 0
	blr
.LVL323:
.L283:
.LCFI35:
	.cfi_restore_state
.LBB2117:
.LBB2096:
.LBB2050:
	.loc 3 106 0
	lwz 0,12(28)
	cmpwi 7,0,0
	beq- 7,.L216
	.loc 3 111 0
	addi 0,27,-187
	cmplwi 7,0,1
	ble- 7,.L291
	.loc 3 118 0
	cmpwi 7,27,13
	beq- 7,.L282
	.loc 3 118 0 is_stmt 0 discriminator 1
	cmpwi 7,27,174
	beq- 7,.L282
.LVL324:
.L218:
	.loc 3 123 0 is_stmt 1
	cmpwi 7,27,196
	beq- 7,.L266
	.loc 3 125 0
	cmpwi 7,27,195
	beq- 7,.L267
.LBB2051:
	.loc 3 129 0
	cmpwi 4,27,187
	beq- 4,.L292
.LBB2052:
	.loc 3 153 0
	cmpwi 7,27,133
	beq- 7,.L268
	.loc 3 153 0 is_stmt 0 discriminator 1
	cmpwi 7,27,146
	beq- 7,.L235
	.loc 3 153 0 discriminator 2
	cmpwi 6,27,134
	beq- 6,.L269
	.loc 3 153 0 discriminator 3
	cmpwi 6,27,145
	bne+ 6,.L216
.L235:
.LVL325:
.LBB2053:
	.loc 3 157 0 is_stmt 1
	srawi 28,26,1
	addze 28,28
.LVL326:
	.loc 3 160 0
	bne+ 7,.L236
.LBE2053:
	.loc 3 153 0
	neg 28,28
.LVL327:
.L236:
.LBB2056:
	.loc 3 164 0
	li 3,141
	bl _ZN10idKeyInput6IsDownEi
	cmpwi 7,3,0
	beq- 7,.L237
	.loc 3 165 0
	lwz 0,948(31)
	add 28,0,28
.LVL328:
	stw 28,948(31)
	b .L222
.LVL329:
.L281:
.LBE2056:
.LBE2052:
.LBE2051:
.LBE2050:
.LBE2096:
	.loc 3 220 0
	li 0,0
	stw 0,948(31)
	.loc 3 221 0
	bl _ZN14idSliderWindow8SetValueEf
	b .L258
.LVL330:
.L287:
	cmpwi 4,27,187
	b .L222
.LVL331:
.L289:
	.loc 3 199 0
	mr 3,31
	addi 4,4,-1
	bl _ZN12idListWindow13SetCurrentSelEi
	b .L246
.L249:
.LVL332:
.LBB2097:
	.loc 3 629 0
	lwz 0,1192(31)
.LBB2098:
	.loc 3 89 0
	li 9,0
	cmpwi 7,0,0
	beq- 7,.L251
.LVL333:
	lwz 9,1204(31)
	lwz 9,0(9)
.LVL334:
.L251:
.LBE2098:
.LBE2097:
	.loc 3 204 0
	lwz 0,948(31)
	cmpw 6,0,9
	blt- 6,.L252
.LVL335:
.LBB2099:
.LBB2100:
	.loc 3 89 0
	beq- 7,.L274
.LVL336:
	lwz 9,1204(31)
	lwz 9,0(9)
	addi 0,9,-1
.LBE2100:
.LBE2099:
	.loc 3 205 0
	stw 0,948(31)
.LVL337:
.L252:
.LBB2102:
.LBB2103:
	.loc 3 89 0
	bne- 7,.L293
	li 9,0
.L254:
.LBE2103:
.LBE2102:
	.loc 3 207 0
	subf 9,26,9
	addi 9,9,1
	cmpw 6,9,0
	blt- 6,.L250
.LVL338:
.LBB2105:
.LBB2106:
	.loc 3 89 0
	beq- 7,.L276
.LVL339:
	lwz 9,1204(31)
	lwz 0,0(9)
.LVL340:
.L255:
.LBE2106:
.LBE2105:
	.loc 3 208 0
	subf 26,26,0
.LVL341:
	addi 0,26,2
	stw 0,948(31)
	b .L250
.LVL342:
.L293:
.LBB2108:
.LBB2104:
	.loc 3 89 0
	lwz 9,1204(31)
	lwz 9,0(9)
	b .L254
.LVL343:
.L292:
.LBE2104:
.LBE2108:
.LBB2109:
.LBB2079:
.LBB2074:
.LBB2058:
	.loc 3 130 0
	lwz 3,732(31)
	lwz 9,0(3)
	lwz 0,124(9)
	mtctr 0
	bctrl
	lwz 3,732(31)
	fmr 30,1
	lwz 9,0(3)
	lwz 0,128(9)
	mtctr 0
	bctrl
	mr 3,31
	fmr 2,1
	fmr 1,30
	bl _ZN8idWindow8ContainsEff
	cmpwi 7,3,0
	beq+ 7,.L222
.LBB2059:
	.loc 3 131 0
	lwz 3,732(31)
	lwz 9,0(3)
	lwz 0,128(9)
	mtctr 0
	bctrl
	lfs 0,40(31)
	lis 9,.LC0@ha
	lwz 0,948(31)
	fsubs 0,1,0
	lfs 13,.LC0@l(9)
	addi 9,1,48
	fsubs 0,0,13
	fdivs 0,0,31
	fctiwz 0,0
	stfiwx 0,0,9
	lwz 4,48(1)
.LVL344:
	.loc 3 629 0
	lwz 9,1172(31)
.LVL345:
	.loc 3 132 0
	add. 4,4,0
	blt- 0,.L224
	.loc 3 132 0 is_stmt 0 discriminator 1
	cmpw 7,4,9
	bge- 7,.L224
	.loc 3 133 0 is_stmt 1 discriminator 4
	lbz 0,1168(31)
	cmpwi 7,0,0
	bne- 7,.L294
.LVL346:
.L225:
.LBB2060:
	.loc 3 629 0
	lwz 0,1192(31)
.LVL347:
.LBB2061:
.LBB2062:
	.loc 6 772 0
	cmpwi 7,0,0
	ble- 7,.L233
	.loc 6 773 0
	lwz 11,1204(31)
	lwz 9,0(11)
	cmpw 7,4,9
	beq- 7,.L263
	.loc 6 772 0
	li 9,0
	mtctr 0
	b .L264
.LVL348:
.L232:
	.loc 6 773 0
	lwzu 0,4(11)
	cmpw 7,4,0
	beq- 7,.L231
.LVL349:
.L264:
	.loc 6 772 0
	addi 9,9,1
.LVL350:
	bdnz .L232
.LVL351:
.L233:
.LBE2062:
.LBE2061:
.LBE2060:
	.loc 3 145 0
	mr 3,31
	bl _ZN12idListWindow13SetCurrentSelEi
.LVL352:
	.loc 3 629 0
	lwz 9,732(31)
	lwz 0,200(9)
	.loc 3 147 0
	stw 0,1240(31)
	b .L222
.LVL353:
.L267:
.LBE2059:
.LBE2058:
.LBE2074:
	.loc 3 126 0
	li 27,134
.LVL354:
	cmpwi 4,27,187
.LVL355:
.L269:
.LBB2075:
.LBB2069:
	.loc 3 154 0
	li 28,1
	b .L236
.LVL356:
.L285:
.LBE2069:
.LBE2075:
.LBE2079:
.LBB2080:
.LBB2048:
	.loc 3 178 0
	lis 4,.LC20@ha
	addi 3,31,1248
	la 4,.LC20@l(4)
	bl _ZN5idStraSEPKc
	lwz 9,732(31)
	lwz 0,200(9)
	b .L240
.LVL357:
.L286:
.LBB2047:
.LBB2041:
.LBB2038:
.LBB2036:
	.loc 4 351 0
	addi 3,31,1248
	li 5,1
	bl _ZN5idStr10ReAllocateEib
.LVL358:
	lwz 9,1248(31)
	b .L241
.LVL359:
.L231:
.LBE2036:
.LBE2038:
.LBE2041:
.LBE2047:
.LBE2048:
.LBE2080:
.LBB2081:
.LBB2076:
.LBB2070:
.LBB2067:
	.loc 3 140 0
	cmpwi 7,9,0
	blt- 7,.L233
.LVL360:
.L263:
	.loc 3 629 0 discriminator 1
	lwz 11,732(31)
	.loc 3 140 0 discriminator 1
	lwz 9,1240(31)
	lwz 0,200(11)
	addi 9,9,299
	cmpw 7,9,0
	blt- 7,.L233
.LVL361:
.L282:
	.loc 3 142 0 discriminator 4
	mr 3,31
	li 4,9
	bl _ZN8idWindow9RunScriptEi
.LVL362:
.LBB2063:
	.loc 3 629 0 discriminator 4
	lwz 30,8(31)
.LVL363:
.LBE2063:
	.loc 3 143 0 discriminator 4
	b .L216
.LVL364:
.L237:
.LBE2067:
.LBE2070:
.LBB2071:
.LBB2057:
.LBB2054:
.LBB2055:
	.loc 3 89 0
	lwz 0,1192(31)
	li 4,0
	cmpwi 7,0,0
	beq- 7,.L238
.LVL365:
	lwz 9,1204(31)
	lwz 4,0(9)
.LVL366:
.L238:
.LBE2055:
.LBE2054:
	.loc 3 167 0
	mr 3,31
	add 4,28,4
	bl _ZN12idListWindow13SetCurrentSelEi
	b .L222
.LVL367:
.L290:
.LBE2057:
.LBE2071:
.LBE2076:
.LBE2081:
.LBE2109:
	.loc 3 216 0
	li 0,0
	stw 0,948(31)
	b .L257
.LVL368:
.L288:
	.loc 3 195 0
	mr 3,31
	li 4,0
	bl _ZN12idListWindow13SetCurrentSelEi
.LVL369:
.LBB2110:
.LBB2091:
	.loc 3 89 0
	lwz 9,1192(31)
	li 0,0
	cmpwi 7,9,0
	beq- 7,.L244
	lwz 9,1204(31)
	lwz 0,0(9)
	b .L244
.LVL370:
.L260:
.LBE2091:
.LBE2110:
.LBB2111:
	.loc 3 235 0
	lwz 28,732(31)
	lis 3,.LC22@ha
	lwz 4,1212(31)
	la 3,.LC22@l(3)
	lwz 9,0(28)
	lwz 29,64(9)
.LVL371:
	crxor 6,6,6
	bl _Z2vaPKcz
	mr 4,3
	li 5,0
	mr 3,28
	mtctr 29
	bctrl
	b .L262
.LVL372:
.L266:
.LBE2111:
.LBB2112:
.LBB2082:
	.loc 3 124 0
	li 27,133
.LVL373:
	cmpwi 4,27,187
.L268:
.LBB2077:
.LBB2072:
	.loc 3 153 0
	li 28,-1
.LVL374:
	b .L236
.LVL375:
.L291:
.LBE2072:
.LBE2077:
	.loc 3 113 0
	lwz 3,732(31)
	lwz 28,1188(31)
.LVL376:
	lwz 9,0(3)
	lwz 0,124(9)
	mtctr 0
	bctrl
	lwz 3,732(31)
	fmr 30,1
	lwz 9,0(3)
	lwz 0,128(9)
	mtctr 0
	bctrl
	mr 3,28
	fmr 2,1
	fmr 1,30
	bl _ZN8idWindow8ContainsEff
	cmpwi 7,3,0
	beq+ 7,.L218
	b .L216
.LVL377:
.L276:
.LBE2082:
.LBE2112:
.LBB2113:
.LBB2107:
	.loc 3 89 0
	li 0,0
	b .L255
.LVL378:
.L274:
.LBE2107:
.LBE2113:
.LBB2114:
.LBB2101:
	li 0,-1
.LBE2101:
.LBE2114:
	.loc 3 205 0
	stw 0,948(31)
	b .L252
.LVL379:
.L224:
.LBB2115:
.LBB2083:
.LBB2078:
.LBB2073:
.LBB2068:
	.loc 3 150 0
	mr 3,31
	addi 4,9,-1
.LVL380:
	bl _ZN12idListWindow13SetCurrentSelEi
.LVL381:
	b .L222
.LVL382:
.L294:
	.loc 3 133 0 discriminator 1
	li 3,141
	stw 4,56(1)
	bl _ZN10idKeyInput6IsDownEi
.LVL383:
	lwz 4,56(1)
	cmpwi 7,3,0
	beq- 7,.L225
.LVL384:
.LBB2064:
	.loc 3 629 0 discriminator 4
	lwz 0,1192(31)
.LVL385:
.LBB2065:
.LBB2066:
	.loc 6 772 0 discriminator 4
	cmpwi 7,0,0
	ble- 7,.L226
	.loc 6 773 0
	lwz 9,1204(31)
	lwz 11,0(9)
	cmpw 7,4,11
	beq- 7,.L227
	.loc 6 772 0
	li 11,0
	mtctr 0
	b .L228
.LVL386:
.L230:
	.loc 6 773 0
	lwzu 0,4(9)
	cmpw 7,4,0
	beq- 7,.L229
.LVL387:
.L228:
	.loc 6 772 0
	addi 11,11,1
.LVL388:
	bdnz .L230
.LVL389:
.L226:
.LBE2066:
.LBE2065:
.LBE2064:
	.loc 3 137 0
	mr 3,31
	bl _ZN12idListWindow13AddCurrentSelEi
.LVL390:
	b .L222
.LVL391:
.L229:
	.loc 3 134 0
	cmpwi 7,11,0
	blt- 7,.L226
.LVL392:
.L227:
	.loc 3 135 0
	mr 3,31
	bl _ZN12idListWindow14ClearSelectionEi
.LVL393:
	b .L222
.LBE2068:
.LBE2073:
.LBE2078:
.LBE2083:
.LBE2115:
.LBE2117:
	.cfi_endproc
.LFE2863:
	.size	_ZN12idListWindow11HandleEventEPK10sysEvent_tPb, .-_ZN12idListWindow11HandleEventEPK10sysEvent_tPb
	.align 2
	.globl _ZN12idListWindow13GetCurrentSelEv
	.type	_ZN12idListWindow13GetCurrentSelEv, @function
_ZN12idListWindow13GetCurrentSelEv:
.LFB2861:
	.loc 3 88 0
	.cfi_startproc
.LVL394:
	.loc 3 89 0
	lwz 9,1192(3)
	li 0,0
	cmpwi 7,9,0
	beq- 7,.L296
.LVL395:
	.loc 3 89 0 is_stmt 0 discriminator 1
	lwz 9,1204(3)
	lwz 0,0(9)
.LVL396:
.L296:
	.loc 3 90 0 is_stmt 1 discriminator 3
	mr 3,0
.LVL397:
	blr
	.cfi_endproc
.LFE2861:
	.size	_ZN12idListWindow13GetCurrentSelEv, .-_ZN12idListWindow13GetCurrentSelEv
	.align 2
	.globl _ZN12idListWindow10IsSelectedEi
	.type	_ZN12idListWindow10IsSelectedEi, @function
_ZN12idListWindow10IsSelectedEi:
.LFB2862:
	.loc 3 92 0
	.cfi_startproc
.LVL398:
.LBB2118:
.LBB2119:
	.loc 3 629 0
	lwz 0,1192(3)
.LVL399:
.LBE2119:
.LBE2118:
	.loc 3 92 0
	mr 9,3
.LBB2122:
.LBB2120:
	.loc 6 772 0
	li 3,0
.LVL400:
	cmpwi 7,0,0
	blelr- 7
	.loc 6 773 0
	lwz 11,1204(9)
	li 3,1
	lwz 9,0(11)
.LVL401:
	cmpw 7,9,4
	beqlr- 7
	.loc 6 772 0
	li 9,0
	mtctr 0
	b .L300
.LVL402:
.L301:
	.loc 6 773 0
	lwzu 0,4(11)
	cmpw 7,0,4
	beq- 7,.L305
.LVL403:
.L300:
	.loc 6 772 0
	addi 9,9,1
.LVL404:
	bdnz .L301
	li 3,0
.LBE2120:
.LBE2122:
	.loc 3 94 0
	blr
.L305:
.LBB2123:
.LBB2121:
	.loc 6 773 0
	nor 9,9,9
.LVL405:
	srwi 3,9,31
	blr
.LBE2121:
.LBE2123:
	.cfi_endproc
.LFE2862:
	.size	_ZN12idListWindow10IsSelectedEi, .-_ZN12idListWindow10IsSelectedEi
	.align 2
	.globl _ZN12idListWindow12InitScrollerEb
	.type	_ZN12idListWindow12InitScrollerEb, @function
_ZN12idListWindow12InitScrollerEb:
.LFB2870:
	.loc 3 424 0
	.cfi_startproc
.LVL406:
	stwu 1,-88(1)
.LCFI36:
	.cfi_def_cfa_offset 88
	mflr 0
.LBB2124:
	.loc 3 434 0
	lis 9,declManager@ha
.LBE2124:
	.loc 3 424 0
	stw 29,68(1)
.LBB2147:
	.loc 3 429 0
	mr. 29,4
	.cfi_offset 29, -20
	.cfi_register 65, 0
.LBE2147:
	.loc 3 424 0
	stw 31,76(1)
	mr 31,3
	.cfi_offset 31, -12
	stw 0,92(1)
	stfd 31,80(1)
	stw 27,60(1)
	stw 28,64(1)
	stw 30,72(1)
.LBB2148:
	.loc 3 434 0
	lwz 3,declManager@l(9)
.LVL407:
	lwz 9,0(3)
	.loc 3 429 0
	bne- 0,.L307
	.cfi_offset 30, -16
	.cfi_offset 28, -24
	.cfi_offset 27, -28
	.cfi_offset 63, -8
	.cfi_offset 65, 4
	.loc 3 434 0
	lwz 0,104(9)
	lis 4,.LC26@ha
.LVL408:
	la 4,.LC26@l(4)
	li 5,1
	mtctr 0
	li 6,0
	.loc 3 427 0
	lis 28,.LC25@ha
	la 28,.LC25@l(28)
	.loc 3 434 0
	bctrl
.LBB2125:
.LBB2126:
	.loc 10 513 0
	lis 9,.LC19@ha
	lwz 0,.LC19@l(9)
.LBE2126:
.LBE2125:
	.loc 3 434 0
	mr 30,3
.LVL409:
.LBB2130:
.LBB2127:
	.loc 10 513 0
	stw 0,148(3)
.LBE2127:
.LBE2130:
	.loc 3 436 0
	bl _ZNK10idMaterial13GetImageWidthEv
.LVL410:
	lis 0,0x4330
	xoris 3,3,0x8000
	stw 0,32(1)
	stw 3,36(1)
	lis 9,.LC4@ha
	lfs 0,.LC4@l(9)
.LBB2131:
.LBB2132:
	.loc 5 40 0
	li 9,0
.LBE2132:
.LBE2131:
	.loc 3 436 0
	lfd 12,32(1)
	.loc 3 446 0
	lfs 13,80(31)
	.loc 3 436 0
	fsub 0,12,0
	.loc 3 449 0
	lwz 0,84(31)
.LBB2137:
.LBB2133:
	.loc 5 40 0
	stw 9,20(1)
.LBE2133:
.LBE2137:
	.loc 3 449 0
	stw 0,28(1)
	.loc 3 436 0
	frsp 0,0
	.loc 3 446 0
	fsubs 13,13,0
	.loc 3 436 0
	stfs 0,952(31)
.LVL411:
	.loc 3 448 0
	stfs 0,24(1)
	.loc 3 446 0
	stfs 13,16(1)
.LVL412:
.L308:
	.loc 3 629 0
	lwz 3,4(30)
	.loc 3 452 0
	lwz 30,1188(31)
.LVL413:
.LBB2138:
.LBB2139:
	.file 11 "d:/Data/Nintendo/DoomGX/src/ui/../idlib/../framework/DeclManager.h"
	.loc 11 140 0
	lwz 9,0(3)
	lwz 0,8(9)
	mtctr 0
	bctrl
.LBE2139:
.LBE2138:
	.loc 3 452 0
	lis 9,.LC27@ha
.LBB2141:
.LBB2140:
	.loc 11 140 0
	mr 8,3
.LBE2140:
.LBE2141:
	.loc 3 452 0
	addi 6,31,372
	addi 7,31,340
	xori 10,29,1
	li 0,1
	mr 4,28
	addi 5,1,16
.LVL414:
	la 9,.LC27@l(9)
	mr 3,30
	stw 0,8(1)
	bl _ZN14idSliderWindow16InitWithDefaultsEPKcRK11idRectangleRK6idVec4S7_S1_S1_bb
.LVL415:
	.loc 3 453 0
	lwz 4,1188(31)
	mr 3,31
	li 5,0
	bl _ZN8idWindow11InsertChildEPS_S0_
	.loc 3 454 0
	lwz 3,1188(31)
	mr 4,31
	lwz 9,0(3)
	lwz 0,92(9)
	mtctr 0
	bctrl
.LBE2148:
	.loc 3 455 0
	lwz 0,92(1)
	lwz 27,60(1)
	mtlr 0
	lwz 28,64(1)
	lwz 29,68(1)
	lwz 30,72(1)
	lwz 31,76(1)
.LVL416:
	lfd 31,80(1)
	addi 1,1,88
	.cfi_remember_state
.LCFI37:
	.cfi_def_cfa_offset 0
	.cfi_restore 63
	.cfi_restore 31
	.cfi_restore 30
	.cfi_restore 29
	.cfi_restore 28
	.cfi_restore 27
	blr
.LVL417:
.L307:
.LCFI38:
	.cfi_restore_state
.LBB2149:
	.loc 3 434 0
	lwz 0,104(9)
	lis 4,.LC28@ha
.LVL418:
	la 4,.LC28@l(4)
	li 5,1
	mtctr 0
	li 6,0
	.loc 3 436 0
	lis 27,0x4330
.LBB2142:
.LBB2134:
	.loc 5 40 0
	li 28,0
.LBE2134:
.LBE2142:
	.loc 3 434 0
	bctrl
.LBB2143:
.LBB2128:
	.loc 10 513 0
	lis 9,.LC19@ha
	lwz 0,.LC19@l(9)
.LBE2128:
.LBE2143:
	.loc 3 434 0
	mr 30,3
.LVL419:
.LBB2144:
.LBB2129:
	.loc 10 513 0
	stw 0,148(3)
.LBE2129:
.LBE2144:
	.loc 3 436 0
	bl _ZNK10idMaterial13GetImageWidthEv
.LVL420:
	stw 27,40(1)
	xoris 3,3,0x8000
	lis 9,.LC4@ha
	stw 3,44(1)
	.loc 3 440 0
	mr 3,30
	.loc 3 436 0
	lfs 31,.LC4@l(9)
	lfd 0,40(1)
.LBB2145:
.LBB2135:
	.loc 5 40 0
	stw 28,28(1)
.LBE2135:
.LBE2145:
	.loc 3 436 0
	fsub 0,0,31
.LBB2146:
.LBB2136:
	.loc 5 40 0
	stw 28,24(1)
	stw 28,20(1)
	stw 28,16(1)
.LBE2136:
.LBE2146:
	.loc 3 436 0
	frsp 0,0
	stfs 0,952(31)
.LVL421:
	.loc 3 440 0
	bl _ZNK10idMaterial14GetImageHeightEv
	stw 27,48(1)
	xoris 3,3,0x8000
	.loc 3 441 0
	stw 28,16(1)
	.loc 3 440 0
	stw 3,52(1)
	.loc 3 431 0
	lis 28,.LC24@ha
	la 28,.LC24@l(28)
	.loc 3 440 0
	lfd 0,48(1)
	.loc 3 442 0
	lfs 13,84(31)
	.loc 3 440 0
	fsub 0,0,31
	.loc 3 443 0
	lwz 0,80(31)
	stw 0,24(1)
	.loc 3 440 0
	frsp 0,0
	.loc 3 442 0
	fsubs 13,13,0
	.loc 3 440 0
	stfs 0,952(31)
	.loc 3 444 0
	stfs 0,28(1)
	.loc 3 442 0
	stfs 13,20(1)
	b .L308
.LBE2149:
	.cfi_endproc
.LFE2870:
	.size	_ZN12idListWindow12InitScrollerEb, .-_ZN12idListWindow12InitScrollerEb
	.align 2
	.globl _ZN12idListWindow10UpdateListEv
	.type	_ZN12idListWindow10UpdateListEv, @function
_ZN12idListWindow10UpdateListEv:
.LFB2874:
	.loc 3 590 0
	.cfi_startproc
	.cfi_personality 0,__gxx_personality_v0
	.cfi_lsda 0,.LLSDA2874
.LVL422:
	mflr 0
	stwu 1,-160(1)
.LCFI39:
	.cfi_def_cfa_offset 160
	.cfi_register 65, 0
.LVL423:
	mfcr 12
.LBB2236:
.LBB2237:
.LBB2238:
.LBB2239:
	.loc 4 357 0
	li 11,20
.LBE2239:
.LBE2238:
.LBE2237:
.LBE2236:
	.loc 3 590 0
	stw 25,124(1)
.LBB2423:
.LBB2248:
.LBB2244:
.LBB2240:
	.loc 4 358 0
	addi 10,1,52
.LBE2240:
.LBE2244:
.LBE2248:
.LBE2423:
	.loc 3 590 0
	stw 0,164(1)
.LBB2424:
.LBB2249:
.LBB2245:
.LBB2241:
	.loc 4 356 0
	li 0,0
	.cfi_offset 65, 4
	.cfi_offset 25, -36
	.cfi_register 70, 12
.LBE2241:
.LBE2245:
.LBE2249:
.LBE2424:
	.loc 3 590 0
	stw 28,136(1)
.LBB2425:
	.loc 3 592 0
	addi 25,3,1172
.LBE2425:
	.loc 3 590 0
	stfd 31,152(1)
	mr 28,3
	.cfi_offset 63, -8
	.cfi_offset 28, -24
	stw 19,100(1)
	stw 20,104(1)
	stw 21,108(1)
	stw 22,112(1)
	stw 23,116(1)
	stw 24,120(1)
	stw 26,128(1)
	stw 27,132(1)
	stw 29,140(1)
	stw 30,144(1)
	stw 31,148(1)
	stw 12,96(1)
.LBB2426:
.LBB2250:
.LBB2246:
.LBB2242:
	.loc 4 357 0
	stw 11,48(1)
.LBE2242:
.LBE2246:
.LBE2250:
.LBB2251:
.LBB2252:
	.loc 6 193 0
	lwz 9,1184(3)
.LBE2252:
.LBE2251:
.LBB2259:
.LBB2260:
.LBB2261:
	.loc 4 357 0
	stw 11,16(1)
	.loc 4 358 0
	addi 11,1,20
.LBE2261:
.LBE2260:
.LBE2259:
.LBB2264:
.LBB2256:
	.loc 6 193 0
	cmpwi 7,9,0
.LBE2256:
.LBE2264:
.LBB2265:
.LBB2247:
.LBB2243:
	.loc 4 356 0
	stw 0,40(1)
	.loc 4 358 0
	stw 10,44(1)
	.loc 4 359 0
	stb 0,52(1)
.LVL424:
.LBE2243:
.LBE2247:
.LBE2265:
.LBB2266:
.LBB2263:
.LBB2262:
	.loc 4 356 0
	stw 0,8(1)
	.loc 4 358 0
	stw 11,12(1)
	.loc 4 359 0
	stb 0,20(1)
.LBE2262:
.LBE2263:
.LBE2266:
.LBB2267:
.LBB2257:
	.loc 6 193 0
	beq- 7,.L310
	.cfi_offset 70, -64
	.cfi_offset 31, -12
	.cfi_offset 30, -16
	.cfi_offset 29, -20
	.cfi_offset 27, -28
	.cfi_offset 26, -32
	.cfi_offset 24, -40
	.cfi_offset 23, -44
	.cfi_offset 22, -48
	.cfi_offset 21, -52
	.cfi_offset 20, -56
	.cfi_offset 19, -60
	.loc 6 194 0
	lwz 31,-4(9)
	slwi 31,31,5
	add 31,9,31
	b .L311
.LVL425:
.L376:
	addi 31,31,-32
.LVL426:
	addi 21,1,40
.LBB2253:
.LBB2254:
.LBB2255:
	.loc 4 501 0
	mr 3,31
.LEHB19:
	bl _ZN5idStr8FreeDataEv
	lwz 9,1184(28)
.LVL427:
.L311:
.LBE2255:
.LBE2254:
.LBE2253:
	.loc 6 194 0
	cmpw 7,31,9
	bne+ 7,.L376
	addi 3,31,-4
	bl _ZdaPv
.L310:
	.loc 6 197 0
	li 0,0
.LBE2257:
.LBE2267:
.LBB2268:
	.loc 3 594 0
	lis 20,.LC30@ha
.LBE2268:
.LBB2396:
.LBB2258:
	.loc 6 197 0
	stw 0,1184(28)
	.loc 6 199 0
	li 24,0
	.loc 6 198 0
	stw 0,1172(28)
	addi 21,1,40
	.loc 6 199 0
	stw 0,1176(28)
.LVL428:
.LBE2258:
.LBE2396:
.LBB2397:
	.loc 3 594 0
	la 20,.LC30@l(20)
.LBB2269:
.LBB2270:
.LBB2271:
.LBB2272:
	.loc 4 536 0
	li 23,0
.LBE2272:
.LBE2271:
.LBE2270:
.LBE2269:
.LBB2289:
.LBB2290:
.LBB2291:
.LBB2292:
.LBB2293:
.LBB2294:
.LBB2295:
.LBB2296:
.LBB2297:
	.loc 4 357 0
	li 22,20
.LBE2297:
.LBE2296:
.LBE2295:
.LBE2294:
.LBE2293:
	.loc 6 663 0
	li 19,16
	b .L348
.LVL429:
.L314:
.LBE2292:
.LBE2291:
.LBE2290:
.LBE2289:
.LBB2387:
.LBB2284:
.LBB2281:
.LBB2277:
	.loc 4 535 0
	lwz 3,44(1)
	mr 5,31
	lwz 4,4(30)
	bl memcpy
.LBE2277:
.LBE2281:
.LBE2284:
.LBE2387:
	.loc 3 595 0
	cmpwi 7,31,0
.LBB2388:
.LBB2285:
.LBB2282:
.LBB2278:
	.loc 4 536 0
	lwz 9,44(1)
	stbx 23,9,31
	.loc 4 537 0
	stw 31,40(1)
.LBE2278:
.LBE2282:
.LBE2285:
.LBE2388:
	.loc 3 595 0
	beq- 7,.L316
.LVL430:
.LBB2389:
.LBB2382:
	.loc 6 655 0
	lwz 27,1184(28)
	cmpwi 7,27,0
	beq- 7,.L318
	lwz 9,1172(28)
	lwz 0,1176(28)
.LVL431:
.L319:
.LBB2336:
	.loc 6 659 0
	cmpw 7,0,9
	beq- 7,.L361
	slwi 9,9,5
	add 27,27,9
.L329:
.LVL432:
.LBE2336:
.LBB2337:
	.loc 3 629 0
	lwz 31,0(21)
.LBB2338:
.LBB2339:
.LBB2340:
	.loc 4 350 0
	lwz 0,8(27)
.LBE2340:
.LBE2339:
	.loc 4 534 0
	addi 4,31,1
.LVL433:
.LBB2344:
.LBB2341:
	.loc 4 350 0
	cmpw 7,4,0
	bgt- 7,.L377
.LVL434:
.L347:
.LBE2341:
.LBE2344:
	.loc 4 535 0
	lwz 3,4(27)
	mr 5,31
	lwz 4,44(1)
	bl memcpy
	.loc 4 536 0
	lwz 9,4(27)
	stbx 23,9,31
	.loc 4 537 0
	stw 31,0(27)
.LBE2338:
.LBE2337:
	.loc 6 670 0
	lwz 9,1172(28)
	addi 0,9,1
	stw 0,1172(28)
.LVL435:
.L316:
.LBE2382:
.LBE2389:
	.loc 3 593 0
	cmpwi 7,24,1023
	addi 24,24,1
.LVL436:
	beq- 7,.L317
.LVL437:
.L348:
	.loc 3 594 0
	lwz 3,732(28)
	lwz 9,0(3)
	lwz 0,48(9)
	mtctr 0
	bctrl
	lwz 4,1212(28)
	mr 31,3
	mr 5,24
	mr 3,20
	crxor 6,6,6
	bl _Z2vaPKcz
	.loc 3 594 0 is_stmt 0 discriminator 1
	mr 4,3
.LVL438:
.LBB2390:
.LBB2286:
	.file 12 "d:/Data/Nintendo/DoomGX/src/ui/../idlib/../idlib/Dict.h"
	.loc 12 231 0 is_stmt 1 discriminator 1
	mr 3,31
.LVL439:
	bl _ZNK6idDict7FindKeyEPKc
.LVL440:
	.loc 12 232 0 discriminator 1
	cmpwi 0,3,0
	beq- 0,.L313
.LBE2286:
	.loc 3 629 0
	lwz 30,4(3)
.LVL441:
.LBB2287:
.LBB2283:
.LBB2279:
.LBB2273:
.LBB2274:
	.loc 4 350 0
	lwz 0,48(1)
.LBE2274:
.LBE2273:
.LBE2279:
	.loc 3 629 0
	lwz 31,0(30)
.LVL442:
.LBB2280:
	.loc 4 534 0
	addi 4,31,1
.LVL443:
.LBB2276:
.LBB2275:
	.loc 4 350 0
	cmpw 7,4,0
	ble+ 7,.L314
	.loc 4 351 0
	mr 3,21
.LVL444:
	li 5,0
	bl _ZN5idStr10ReAllocateEib
.LVL445:
	b .L314
.LVL446:
.L361:
	lwz 30,1180(28)
.LBE2275:
.LBE2276:
.LBE2280:
.LBE2283:
.LBE2287:
.LBE2390:
.LBB2391:
.LBB2383:
.LBB2348:
	.loc 6 659 0
	mr 11,0
.L321:
.LBB2332:
	.loc 6 662 0
	cmpwi 7,30,0
	bne- 7,.L330
	.loc 6 663 0
	stw 19,1180(28)
	li 30,16
.L330:
	.loc 6 665 0
	add 9,0,30
.LVL447:
	.loc 6 666 0
	divw 9,9,30
.LVL448:
.LBB2328:
.LBB2324:
	.loc 6 375 0
	mullw 30,9,30
.LVL449:
	cmpwi 4,30,0
	ble- 4,.L378
	.loc 6 380 0
	cmpw 7,0,30
	beq- 7,.L379
.LVL450:
	.loc 6 387 0
	cmpw 7,30,11
	.loc 6 386 0
	stw 30,1176(28)
	.loc 6 387 0
	bge- 7,.L336
	.loc 6 388 0
	stw 30,1172(28)
.L336:
	.loc 6 392 0
	slwi 3,30,5
	addi 3,3,4
	bl _Znaj
	stw 30,0(3)
	addi 31,3,4
	beq- 4,.L337
.LBB2302:
.LBB2300:
.LBB2298:
	.loc 4 357 0
	mtctr 30
.LBE2298:
.LBE2300:
.LBE2302:
	.loc 6 392 0
	mr 9,31
.LBB2303:
.LBB2301:
.LBB2299:
	.loc 4 356 0
	li 0,0
.L338:
.LVL451:
	.loc 4 358 0
	addi 11,9,12
	.loc 4 356 0
	stw 0,0(9)
	.loc 4 357 0
	stw 22,8(9)
	.loc 4 358 0
	stw 11,4(9)
	.loc 4 359 0
	stb 0,12(9)
	addi 9,9,32
.LVL452:
.LBE2299:
.LBE2301:
.LBE2303:
	.loc 6 392 0
	bdnz .L338
.LVL453:
.L337:
	stw 31,1184(28)
.LVL454:
	.loc 6 393 0
	lwz 0,0(25)
	cmpwi 7,0,0
	ble- 7,.L339
	li 30,0
.LVL455:
	li 26,0
	b .L341
.LVL456:
.L340:
.LBB2304:
.LBB2305:
	.loc 3 590 0
	add 9,27,30
	.loc 4 535 0
	lwz 3,4(31)
	lwz 4,4(9)
.LVL457:
	mr 5,29
.LBE2305:
.LBE2304:
	.loc 6 393 0
	addi 26,26,1
	addi 30,30,32
.LVL458:
.LBB2313:
.LBB2310:
	.loc 4 535 0
	bl memcpy
.LVL459:
	.loc 4 536 0
	lwz 9,4(31)
	stbx 23,9,29
	.loc 4 537 0
	stw 29,0(31)
.LBE2310:
.LBE2313:
	.loc 6 393 0
	lwz 0,0(25)
	cmpw 7,26,0
	bge- 7,.L339
.LVL460:
.L380:
	lwz 31,1184(28)
.LVL461:
.L341:
	.loc 6 394 0
	add 31,31,30
.LVL462:
.LBB2314:
	.loc 3 629 0
	lwzx 29,27,30
.LBB2311:
.LBB2306:
.LBB2307:
	.loc 4 350 0
	lwz 0,8(31)
.LBE2307:
.LBE2306:
	.loc 4 534 0
	addi 4,29,1
.LVL463:
.LBB2309:
.LBB2308:
	.loc 4 350 0
	cmpw 7,4,0
	ble+ 7,.L340
	.loc 4 351 0
	mr 3,31
	li 5,0
	bl _ZN5idStr10ReAllocateEib
.LVL464:
.LBE2308:
.LBE2309:
	.loc 3 590 0
	add 9,27,30
	.loc 4 535 0
	lwz 3,4(31)
	lwz 4,4(9)
	mr 5,29
.LBE2311:
.LBE2314:
	.loc 6 393 0
	addi 26,26,1
	addi 30,30,32
.LVL465:
.LBB2315:
.LBB2312:
	.loc 4 535 0
	bl memcpy
.LVL466:
	.loc 4 536 0
	lwz 9,4(31)
	stbx 23,9,29
	.loc 4 537 0
	stw 29,0(31)
.LBE2312:
.LBE2315:
	.loc 6 393 0
	lwz 0,0(25)
	cmpw 7,26,0
	blt+ 7,.L380
.LVL467:
.L339:
	.loc 6 398 0
	cmpwi 7,27,0
	beq- 7,.L381
	.loc 6 399 0
	lwz 31,-4(27)
	slwi 31,31,5
	add 31,27,31
	cmpw 7,27,31
	beq- 7,.L343
.L374:
	addi 31,31,-32
.LVL468:
.LBB2316:
.LBB2317:
.LBB2318:
	.loc 4 501 0
	mr 3,31
	bl _ZN5idStr8FreeDataEv
.LBE2318:
.LBE2317:
.LBE2316:
	.loc 6 399 0
	cmpw 7,27,31
	bne+ 7,.L374
.LVL469:
.L343:
	addi 3,27,-4
	bl _ZdaPv
	lwz 27,1172(28)
.LVL470:
	lwz 0,1184(28)
	slwi 27,27,5
.LBE2324:
.LBE2328:
.LBE2332:
.LBE2348:
.LBB2349:
	.loc 3 629 0
	lwz 31,0(21)
.LBE2349:
.LBB2350:
.LBB2333:
.LBB2329:
.LBB2325:
	.loc 6 399 0
	add 27,0,27
.LVL471:
.LBE2325:
.LBE2329:
.LBE2333:
.LBE2350:
.LBB2351:
.LBB2347:
.LBB2345:
.LBB2342:
	.loc 4 350 0
	lwz 0,8(27)
.LBE2342:
.LBE2345:
	.loc 4 534 0
	addi 4,31,1
.LVL472:
.LBB2346:
.LBB2343:
	.loc 4 350 0
	cmpw 7,4,0
	ble+ 7,.L347
.L377:
	.loc 4 351 0
	mr 3,27
	li 5,0
	bl _ZN5idStr10ReAllocateEib
.LVL473:
	b .L347
.LVL474:
.L313:
.LBE2343:
.LBE2346:
.LBE2347:
.LBE2351:
.LBE2383:
.LBE2391:
.LBB2392:
.LBB2288:
	.loc 12 236 0
	lis 4,.LC20@ha
	mr 3,21
.LVL475:
	la 4,.LC20@l(4)
	bl _ZN5idStraSEPKc
.LVL476:
.L317:
.LBE2288:
.LBE2392:
.LBE2397:
	.loc 3 602 0
	mr 3,28
	bl _ZN8idWindow16GetMaxCharHeightEv
.LVL477:
	.loc 3 603 0
	lfs 0,668(28)
	addi 11,1,88
	.loc 3 629 0
	lwz 9,1172(28)
	.loc 3 603 0
	fdivs 0,0,1
	fctiwz 0,0
	stfiwx 0,0,11
	lwz 0,88(1)
.LVL478:
	.loc 3 604 0
	cmpw 7,0,9
	ble- 7,.L349
	.loc 3 605 0
	lis 9,.LC7@ha
	lwz 3,1188(28)
	lfs 1,.LC7@l(9)
.LVL479:
	lis 9,.LC1@ha
	lfs 3,.LC1@l(9)
	fmr 2,1
	bl _ZN14idSliderWindow8SetRangeEfff
.LVL480:
.L350:
	.loc 3 610 0
	lwz 3,732(28)
	lwz 9,0(3)
	lwz 0,48(9)
	mtctr 0
	bctrl
	mr 31,3
	lwz 4,1212(28)
	lis 3,.LC22@ha
	la 3,.LC22@l(3)
	crxor 6,6,6
	bl _Z2vaPKcz
	.loc 3 610 0 is_stmt 0 discriminator 1
	mr 4,3
.LVL481:
.LBB2398:
.LBB2399:
.LBB2400:
.LBB2401:
	.loc 12 241 0 is_stmt 1 discriminator 1
	mr 3,31
.LVL482:
	bl _ZNK6idDict7FindKeyEPKc
.LVL483:
	.loc 12 242 0
	cmpwi 0,3,0
	beq- 0,.L362
.LVL484:
.LBB2402:
	.loc 3 629 0
	lwz 9,4(3)
	lwz 3,4(9)
.LVL485:
.L351:
.LBE2402:
.LBE2401:
.LBE2400:
	.loc 12 253 0
	bl atoi
	mr 4,3
.LBE2399:
.LBE2398:
	.loc 3 610 0
	mr 3,28
	bl _ZN12idListWindow13SetCurrentSelEi
	.loc 3 613 0
	lwz 9,1172(28)
	.loc 3 612 0
	lwz 3,1188(28)
.LVL486:
	.loc 3 613 0
	addi 0,9,-1
	lis 9,.LC4@ha
	xoris 0,0,0x8000
.LBB2406:
	.loc 3 629 0
	lfs 0,948(3)
.LBE2406:
	.loc 3 613 0
	stw 0,84(1)
	lis 0,0x4330
	stw 0,80(1)
	lfs 13,.LC4@l(9)
	lfd 31,80(1)
	fsub 31,31,13
	frsp 31,31
	fcmpu 7,31,0
	blt- 7,.L352
	.loc 3 612 0
	fmr 31,0
.L352:
.LVL487:
	.loc 3 616 0
	lis 9,.LC7@ha
	lfs 0,.LC7@l(9)
	fcmpu 7,31,0
	bnl- 7,.L353
	.loc 3 617 0
	fmr 31,0
.LVL488:
.L353:
	.loc 3 619 0
	fmr 1,31
	bl _ZN14idSliderWindow8SetValueEf
.LVL489:
	.loc 3 620 0
	fctiwz 31,31
.LVL490:
	.loc 3 622 0
	li 0,0
	.loc 3 620 0
	addi 9,28,948
	.loc 3 624 0
	lis 4,.LC20@ha
	addi 3,28,1248
	la 4,.LC20@l(4)
	.loc 3 620 0
	stfiwx 31,0,9
	.loc 3 622 0
	stw 0,1244(28)
	.loc 3 623 0
	stw 0,1240(28)
	.loc 3 624 0
	bl _ZN5idStraSEPKc
.LEHE19:
.LVL491:
.LBB2407:
.LBB2408:
.LBB2409:
	.loc 4 501 0
	addi 3,1,8
.LEHB20:
	bl _ZN5idStr8FreeDataEv
.LEHE20:
.LVL492:
.LBE2409:
.LBE2408:
.LBE2407:
.LBB2410:
.LBB2411:
.LBB2412:
	mr 3,21
.LEHB21:
	bl _ZN5idStr8FreeDataEv
.LEHE21:
.LBE2412:
.LBE2411:
.LBE2410:
.LBE2426:
	.loc 3 625 0
	lwz 0,164(1)
	lwz 12,96(1)
	mtlr 0
	lwz 19,100(1)
	lwz 20,104(1)
	mtcrf 8,12
	lwz 21,108(1)
	lwz 22,112(1)
	lwz 23,116(1)
	lwz 24,120(1)
	lwz 25,124(1)
.LVL493:
	lwz 26,128(1)
	lwz 27,132(1)
	lwz 28,136(1)
.LVL494:
	lwz 29,140(1)
	lwz 30,144(1)
	lwz 31,148(1)
.LVL495:
	lfd 31,152(1)
	addi 1,1,160
	.cfi_remember_state
.LCFI40:
	.cfi_def_cfa_offset 0
	.cfi_restore 70
	.cfi_restore 63
	.cfi_restore 31
	.cfi_restore 30
	.cfi_restore 29
	.cfi_restore 28
	.cfi_restore 27
	.cfi_restore 26
	.cfi_restore 25
	.cfi_restore 24
	.cfi_restore 23
	.cfi_restore 22
	.cfi_restore 21
	.cfi_restore 20
	.cfi_restore 19
	blr
.LVL496:
.L379:
.LCFI41:
	.cfi_restore_state
.LBB2427:
.LBB2413:
.LBB2393:
.LBB2384:
.LBB2352:
.LBB2334:
.LBB2330:
.LBB2326:
	.loc 6 380 0
	slwi 11,11,5
	add 27,27,11
	b .L329
.LVL497:
.L318:
.LBE2326:
.LBE2330:
.LBE2334:
.LBE2352:
	.loc 6 656 0
	lwz 0,1180(28)
.LBB2353:
.LBB2354:
	.loc 6 375 0
	cmpwi 4,0,0
.LBE2354:
.LBE2353:
	.loc 6 656 0
	mr 30,0
.LVL498:
.LBB2378:
.LBB2375:
	.loc 6 375 0
	ble- 4,.L382
	.loc 6 380 0
	lwz 9,1176(28)
	cmpw 7,0,9
	beq- 7,.L383
.LVL499:
	.loc 6 387 0
	lwz 0,1172(28)
	.loc 6 386 0
	stw 30,1176(28)
	.loc 6 387 0
	cmpw 7,30,0
	blt- 7,.L384
.L323:
	.loc 6 392 0
	slwi 3,30,5
	addi 3,3,4
.LEHB22:
	bl _Znaj
.LVL500:
	stw 30,0(3)
	addi 27,3,4
	beq- 4,.L324
.LBB2355:
.LBB2356:
.LBB2357:
	.loc 4 357 0
	mtctr 30
.LBE2357:
.LBE2356:
.LBE2355:
	.loc 6 392 0
	mr 9,27
.LBB2360:
.LBB2359:
.LBB2358:
	.loc 4 356 0
	li 0,0
.L325:
.LVL501:
	.loc 4 358 0
	addi 11,9,12
	.loc 4 356 0
	stw 0,0(9)
	.loc 4 357 0
	stw 22,8(9)
	.loc 4 358 0
	stw 11,4(9)
	.loc 4 359 0
	stb 0,12(9)
	addi 9,9,32
.LVL502:
.LBE2358:
.LBE2359:
.LBE2360:
	.loc 6 392 0
	bdnz .L325
.LVL503:
.L324:
	stw 27,1184(28)
.LVL504:
	.loc 6 393 0
	li 30,0
.LVL505:
	li 29,0
	lwz 9,0(25)
	cmpwi 7,9,0
	bgt+ 7,.L371
	b .L388
.LVL506:
.L327:
.LBB2361:
.LBB2362:
	.loc 4 535 0
	lwz 4,4(30)
.LVL507:
	mr 5,31
	lwz 3,4(27)
.LBE2362:
.LBE2361:
	.loc 6 393 0
	addi 29,29,1
	addi 30,30,32
.LVL508:
.LBB2370:
.LBB2367:
	.loc 4 535 0
	bl memcpy
.LVL509:
	.loc 4 536 0
	lwz 9,4(27)
	stbx 23,9,31
	.loc 4 537 0
	stw 31,0(27)
.LBE2367:
.LBE2370:
	.loc 6 393 0
	lwz 9,0(25)
	cmpw 7,29,9
	bge- 7,.L328
.LVL510:
.L386:
	lwz 27,1184(28)
.LVL511:
.L371:
	.loc 6 394 0
	add 27,27,30
.LVL512:
.LBB2371:
	.loc 3 629 0
	lwz 31,0(30)
.LBB2368:
.LBB2363:
.LBB2364:
	.loc 4 350 0
	lwz 0,8(27)
.LBE2364:
.LBE2363:
	.loc 4 534 0
	addi 4,31,1
.LVL513:
.LBB2366:
.LBB2365:
	.loc 4 350 0
	cmpw 7,4,0
	ble+ 7,.L327
	.loc 4 351 0
	mr 3,27
	li 5,0
	bl _ZN5idStr10ReAllocateEib
.LVL514:
.LBE2365:
.LBE2366:
	.loc 4 535 0
	lwz 4,4(30)
	mr 5,31
	lwz 3,4(27)
.LBE2368:
.LBE2371:
	.loc 6 393 0
	addi 29,29,1
	addi 30,30,32
.LVL515:
.LBB2372:
.LBB2369:
	.loc 4 535 0
	bl memcpy
.LVL516:
	.loc 4 536 0
	lwz 9,4(27)
	stbx 23,9,31
	.loc 4 537 0
	stw 31,0(27)
.LBE2369:
.LBE2372:
	.loc 6 393 0
	lwz 9,0(25)
	cmpw 7,29,9
	blt+ 7,.L386
.LVL517:
.L328:
	lwz 0,1176(28)
	lwz 27,1184(28)
.LVL518:
	b .L319
.LVL519:
.L378:
.LBE2375:
.LBE2378:
.LBB2379:
.LBB2335:
.LBB2331:
.LBB2327:
.LBB2319:
.LBB2320:
	.loc 6 193 0
	cmpwi 7,27,0
	beq- 7,.L332
	.loc 6 194 0
	lwz 31,-4(27)
	slwi 31,31,5
	add 31,27,31
	b .L333
.L387:
	addi 31,31,-32
.LVL520:
.LBB2321:
.LBB2322:
.LBB2323:
	.loc 4 501 0
	mr 3,31
	bl _ZN5idStr8FreeDataEv
	lwz 27,1184(28)
.LVL521:
.L333:
.LBE2323:
.LBE2322:
.LBE2321:
	.loc 6 194 0
	cmpw 7,31,27
	bne+ 7,.L387
	addi 3,31,-4
	bl _ZdaPv
.L332:
	.loc 6 197 0
	li 0,0
	.loc 6 199 0
	li 27,0
	.loc 6 197 0
	stw 0,1184(28)
	.loc 6 198 0
	stw 0,1172(28)
	.loc 6 199 0
	stw 0,1176(28)
	b .L329
.LVL522:
.L381:
.LBE2320:
.LBE2319:
	.loc 6 398 0
	lwz 0,1172(28)
	lwz 27,1184(28)
.LVL523:
	slwi 0,0,5
	add 27,27,0
	b .L329
.LVL524:
.L349:
.LBE2327:
.LBE2331:
.LBE2335:
.LBE2379:
.LBE2384:
.LBE2393:
.LBE2413:
	.loc 3 607 0
	subf 0,0,9
.LVL525:
	lis 9,.LC4@ha
	xoris 0,0,0x8000
	lfs 0,.LC4@l(9)
	stw 0,76(1)
	lis 0,0x4330
	stw 0,72(1)
	lis 9,.LC1@ha
	lis 11,.LC7@ha
.LVL526:
	lfd 2,72(1)
	lwz 3,1188(28)
	fsub 2,2,0
	lfs 0,.LC1@l(9)
	lfs 1,.LC7@l(11)
.LVL527:
	fmr 3,0
	frsp 2,2
	fadds 2,2,0
	bl _ZN14idSliderWindow8SetRangeEfff
.LEHE22:
.LVL528:
	b .L350
.LVL529:
.L384:
.LBB2414:
.LBB2394:
.LBB2385:
.LBB2380:
.LBB2376:
	.loc 6 388 0
	stw 30,1172(28)
	b .L323
.LVL530:
.L383:
	.loc 6 380 0
	lwz 9,1172(28)
	b .L319
.LVL531:
.L362:
.LBE2376:
.LBE2380:
.LBE2385:
.LBE2394:
.LBE2414:
.LBB2415:
.LBB2405:
.LBB2404:
.LBB2403:
	.loc 12 245 0
	lis 3,.LC29@ha
.LVL532:
	la 3,.LC29@l(3)
	b .L351
.LVL533:
.L382:
.LBE2403:
.LBE2404:
.LBE2405:
.LBE2415:
.LBB2416:
.LBB2395:
.LBB2386:
.LBB2381:
.LBB2377:
.LBB2373:
.LBB2374:
	.loc 6 198 0
	stw 27,1172(28)
	.loc 6 199 0
	li 11,0
	stw 27,1176(28)
	li 0,0
.LVL534:
	b .L321
.LVL535:
.L388:
.LBE2374:
.LBE2373:
	.loc 6 393 0
	lwz 0,1176(28)
	b .L319
.LVL536:
.L364:
	mr 31,3
.LVL537:
.LBE2377:
.LBE2381:
.LBE2386:
.LBE2395:
.LBE2416:
.LBB2417:
.LBB2418:
.LBB2419:
	.loc 4 501 0
	addi 3,1,8
	bl _ZN5idStr8FreeDataEv
.LVL538:
.L358:
.LBE2419:
.LBE2418:
.LBE2417:
.LBB2420:
.LBB2421:
.LBB2422:
	mr 3,21
	bl _ZN5idStr8FreeDataEv
	mr 3,31
.LEHB23:
	bl _Unwind_Resume
.LEHE23:
.LVL539:
.L365:
	mr 31,3
.LVL540:
	b .L358
.LBE2422:
.LBE2421:
.LBE2420:
.LBE2427:
	.cfi_endproc
.LFE2874:
	.section	.gcc_except_table
.LLSDA2874:
	.byte	0xff
	.byte	0xff
	.byte	0x1
	.uleb128 .LLSDACSE2874-.LLSDACSB2874
.LLSDACSB2874:
	.uleb128 .LEHB19-.LFB2874
	.uleb128 .LEHE19-.LEHB19
	.uleb128 .L364-.LFB2874
	.uleb128 0
	.uleb128 .LEHB20-.LFB2874
	.uleb128 .LEHE20-.LEHB20
	.uleb128 .L365-.LFB2874
	.uleb128 0
	.uleb128 .LEHB21-.LFB2874
	.uleb128 .LEHE21-.LEHB21
	.uleb128 0
	.uleb128 0
	.uleb128 .LEHB22-.LFB2874
	.uleb128 .LEHE22-.LEHB22
	.uleb128 .L364-.LFB2874
	.uleb128 0
	.uleb128 .LEHB23-.LFB2874
	.uleb128 .LEHE23-.LEHB23
	.uleb128 0
	.uleb128 0
.LLSDACSE2874:
	.section	".text"
	.size	_ZN12idListWindow10UpdateListEv, .-_ZN12idListWindow10UpdateListEv
	.align 2
	.globl _ZN12idListWindow12StateChangedEb
	.type	_ZN12idListWindow12StateChangedEb, @function
_ZN12idListWindow12StateChangedEb:
.LFB2875:
	.loc 3 627 0
	.cfi_startproc
.LVL541:
	.loc 3 629 0
	.loc 3 628 0
	b _ZN12idListWindow10UpdateListEv
.LVL542:
.LVL543:
	.cfi_endproc
.LFE2875:
	.size	_ZN12idListWindow12StateChangedEb, .-_ZN12idListWindow12StateChangedEb
	.align 2
	.globl _ZN12idListWindow8ActivateEbR5idStr
	.type	_ZN12idListWindow8ActivateEbR5idStr, @function
_ZN12idListWindow8ActivateEbR5idStr:
.LFB2872:
	.loc 3 578 0
	.cfi_startproc
.LVL544:
	stwu 1,-16(1)
.LCFI42:
	.cfi_def_cfa_offset 16
	mflr 0
	stw 31,12(1)
	mr 31,4
	.cfi_offset 31, -4
	.cfi_register 65, 0
	stw 30,8(1)
	mr 30,3
	.cfi_offset 30, -8
	stw 0,20(1)
	.loc 3 579 0
	.cfi_offset 65, 4
	bl _ZN8idWindow8ActivateEbR5idStr
.LVL545:
	.loc 3 581 0
	cmpwi 7,31,0
	bne- 7,.L392
	.loc 3 584 0
	lwz 0,20(1)
	lwz 30,8(1)
.LVL546:
	mtlr 0
	lwz 31,12(1)
	addi 1,1,16
	.cfi_remember_state
.LCFI43:
	.cfi_def_cfa_offset 0
	.cfi_restore 31
	.cfi_restore 30
	blr
.LVL547:
.L392:
.LCFI44:
	.cfi_restore_state
	lwz 0,20(1)
	.loc 3 582 0
	mr 3,30
	.loc 3 584 0
	lwz 31,12(1)
	lwz 30,8(1)
.LVL548:
	mtlr 0
	addi 1,1,16
.LCFI45:
	.cfi_def_cfa_offset 0
	.cfi_restore 31
	.cfi_restore 30
	.loc 3 582 0
	b _ZN12idListWindow10UpdateListEv
.LVL549:
	.cfi_endproc
.LFE2872:
	.size	_ZN12idListWindow8ActivateEbR5idStr, .-_ZN12idListWindow8ActivateEbR5idStr
	.section	.text._ZN6idListIiE5ClearEv,"axG",@progbits,_ZN6idListIiE5ClearEv,comdat
	.align 2
	.weak	_ZN6idListIiE5ClearEv
	.type	_ZN6idListIiE5ClearEv, @function
_ZN6idListIiE5ClearEv:
.LFB2916:
	.loc 6 192 0
	.cfi_startproc
.LVL550:
	mflr 0
	stwu 1,-16(1)
.LCFI46:
	.cfi_def_cfa_offset 16
	.cfi_register 65, 0
	stw 31,12(1)
	mr 31,3
	.cfi_offset 31, -4
	stw 0,20(1)
	.loc 6 193 0
	lwz 3,12(3)
.LVL551:
	cmpwi 7,3,0
	beq- 7,.L394
	.cfi_offset 65, 4
	.loc 6 194 0 discriminator 1
	bl _ZdaPv
.L394:
	.loc 6 197 0
	li 0,0
	stw 0,12(31)
	.loc 6 198 0
	stw 0,0(31)
	.loc 6 199 0
	stw 0,4(31)
	.loc 6 200 0
	lwz 0,20(1)
	lwz 31,12(1)
.LVL552:
	mtlr 0
	addi 1,1,16
.LCFI47:
	.cfi_def_cfa_offset 0
	.cfi_restore 31
	blr
	.cfi_endproc
.LFE2916:
	.size	_ZN6idListIiE5ClearEv, .-_ZN6idListIiE5ClearEv
	.section	".text"
	.align 2
	.globl _ZN12idListWindow9PostParseEv
	.type	_ZN12idListWindow9PostParseEv, @function
_ZN12idListWindow9PostParseEv:
.LFB2866:
	.loc 3 303 0
	.cfi_startproc
	.cfi_personality 0,__gxx_personality_v0
	.cfi_lsda 0,.LLSDA2866
.LVL553:
	stwu 1,-384(1)
.LCFI48:
	.cfi_def_cfa_offset 384
	mflr 0
	mfcr 12
	stw 31,372(1)
	mr 31,3
	.cfi_offset 31, -12
	.cfi_register 70, 12
	.cfi_register 65, 0
	stw 0,388(1)
	stw 12,300(1)
	stfd 31,376(1)
	stw 14,304(1)
	stw 15,308(1)
	stw 16,312(1)
	stw 17,316(1)
	stw 18,320(1)
	stw 19,324(1)
	stw 20,328(1)
	stw 21,332(1)
	stw 22,336(1)
	stw 23,340(1)
	stw 24,344(1)
	stw 25,348(1)
	stw 26,352(1)
	stw 27,356(1)
	stw 28,360(1)
	stw 29,364(1)
	stw 30,368(1)
.LEHB24:
.LBB2747:
	.loc 3 304 0
	.cfi_offset 30, -16
	.cfi_offset 29, -20
	.cfi_offset 28, -24
	.cfi_offset 27, -28
	.cfi_offset 26, -32
	.cfi_offset 25, -36
	.cfi_offset 24, -40
	.cfi_offset 23, -44
	.cfi_offset 22, -48
	.cfi_offset 21, -52
	.cfi_offset 20, -56
	.cfi_offset 19, -60
	.cfi_offset 18, -64
	.cfi_offset 17, -68
	.cfi_offset 16, -72
	.cfi_offset 15, -76
	.cfi_offset 14, -80
	.cfi_offset 63, -8
	.cfi_offset 70, -84
	.cfi_offset 65, 4
	bl _ZN8idWindow9PostParseEv
.LVL554:
	.loc 3 306 0
	lbz 4,956(31)
	mr 3,31
	bl _ZN12idListWindow12InitScrollerEb
.LEHE24:
.LVL555:
.LBB2748:
.LBB2749:
.LBB2750:
.LBB2751:
	.loc 3 629 0
	lwz 5,960(31)
.LBE2751:
.LBE2750:
.LBE2749:
.LBE2748:
.LBB2755:
.LBB2756:
.LBB2757:
.LBB2758:
	.loc 6 197 0
	li 0,0
.LBE2758:
.LBE2757:
	.loc 6 159 0
	li 9,16
.LBE2756:
.LBE2755:
.LBB2762:
	.loc 3 310 0
	cmpwi 7,5,0
.LBE2762:
.LBB2836:
.LBB2761:
	.loc 6 159 0
	stw 9,64(1)
.LVL556:
.LBB2760:
.LBB2759:
	.loc 6 197 0
	stw 0,68(1)
	.loc 6 198 0
	stw 0,56(1)
	.loc 6 199 0
	stw 0,60(1)
.LVL557:
.LBE2759:
.LBE2760:
.LBE2761:
.LBE2836:
.LBB2837:
.LBB2754:
	.loc 6 159 0
	stw 9,48(1)
.LVL558:
.LBB2753:
.LBB2752:
	.loc 6 197 0
	stw 0,52(1)
	.loc 6 198 0
	stw 0,40(1)
	.loc 6 199 0
	stw 0,44(1)
.LBE2752:
.LBE2753:
.LBE2754:
.LBE2837:
.LBB2838:
	.loc 3 310 0
	bne- 7,.L688
.L396:
.LBB2763:
	.loc 3 629 0
	lwz 5,992(31)
.LBE2763:
.LBE2838:
.LBB2839:
	.loc 3 320 0
	cmpwi 7,5,0
	beq- 7,.L419
.LVL559:
.LBB2840:
	.loc 3 321 0
	addi 29,1,152
	lis 6,.LC12@ha
	lwz 4,996(31)
	mr 3,29
	la 6,.LC12@l(6)
	li 7,28
.LEHB25:
	bl _ZN8idParserC1EPKciS1_i
.LEHE25:
.LVL560:
.LBB2841:
.LBB2842:
.LBB2843:
.LBB2844:
	.loc 4 357 0
	li 9,20
	.loc 4 356 0
	li 0,0
	.loc 4 357 0
	stw 9,80(1)
	.loc 4 358 0
	addi 9,1,84
.LBE2844:
.LBE2843:
.LBE2842:
.LBE2841:
.LBB2848:
.LBB2849:
	.loc 4 653 0
	lis 27,.LC31@ha
.LBE2849:
.LBE2848:
.LBB2852:
.LBB2847:
.LBB2846:
.LBB2845:
	.loc 4 356 0
	stw 0,72(1)
	.loc 4 358 0
	stw 9,76(1)
	addi 30,1,72
	.loc 4 359 0
	stb 0,84(1)
.LBE2845:
.LBE2846:
.LBE2847:
.LBE2852:
.LBB2853:
.LBB2850:
	.loc 4 653 0
	la 27,.LC31@l(27)
.LBE2850:
.LBE2853:
.LBB2854:
.LBB2855:
.LBB2856:
.LBB2857:
	.loc 6 393 0
	li 24,0
	.loc 6 663 0
	li 25,16
.L661:
.LBE2857:
.LBE2856:
.LBE2855:
.LBE2854:
	.loc 3 323 0 discriminator 1
	mr 3,29
	mr 4,30
.LEHB26:
	bl _ZN8idParser9ReadTokenEP7idToken
	cmpwi 7,3,0
	beq- 7,.L689
.LVL561:
.LBB2896:
.LBB2851:
	.loc 4 653 0
	lwz 3,4(30)
	mr 4,27
	bl _ZN5idStr3CmpEPKcS1_
.LBE2851:
.LBE2896:
	.loc 3 324 0
	cmpwi 7,3,0
	beq+ 7,.L661
.LVL562:
	.loc 3 327 0
	lwz 3,4(30)
	bl atoi
.LBB2897:
.LBB2888:
	.loc 6 655 0
	lwz 28,52(1)
.LBE2888:
.LBE2897:
	.loc 3 327 0
	mr 26,3
.LVL563:
.LBB2898:
.LBB2889:
	.loc 6 655 0
	cmpwi 7,28,0
	beq- 7,.L422
	lwz 0,40(1)
	lwz 9,44(1)
.L423:
.LBB2871:
	.loc 6 659 0
	cmpw 7,0,9
	beq- 7,.L602
.L680:
.LBB2868:
.LBB2858:
.LBB2859:
	.loc 6 380 0
	slwi 0,0,2
	add 28,28,0
.L430:
.LBE2859:
.LBE2858:
.LBE2868:
.LBE2871:
	.loc 6 669 0
	stw 26,0(28)
	.loc 6 670 0
	lwz 9,40(1)
	addi 0,9,1
	stw 0,40(1)
	b .L661
.L602:
	lwz 3,48(1)
.LBB2872:
	.loc 6 659 0
	mr 10,0
.L425:
.LBB2869:
	.loc 6 662 0
	cmpwi 7,3,0
	mr 9,3
	bne- 7,.L431
	.loc 6 663 0
	stw 25,48(1)
	li 9,16
.L431:
	.loc 6 665 0
	add 11,10,9
.LVL564:
	.loc 6 666 0
	divw 11,11,9
.LVL565:
.LBB2865:
.LBB2862:
	.loc 6 375 0
	mullw. 9,11,9
.LVL566:
	ble- 0,.L690
	.loc 6 380 0
	cmpw 7,9,10
	beq- 7,.L680
.LVL567:
	.loc 6 387 0
	cmpw 7,9,0
	.loc 6 386 0
	stw 9,44(1)
	.loc 6 387 0
	bge- 7,.L435
	.loc 6 388 0
	stw 9,40(1)
.L435:
	.loc 6 392 0
	slwi 3,9,2
	bl _Znaj
.LEHE26:
.LVL568:
	.loc 6 393 0
	lwz 0,40(1)
	.loc 6 392 0
	stw 3,52(1)
.LVL569:
	.loc 6 393 0
	cmpwi 7,0,0
	ble- 7,.L436
	.loc 3 303 0
	addi 11,28,-4
.LBE2862:
.LBE2865:
	.loc 6 393 0
	li 9,0
	b .L437
.LVL570:
.L691:
.LBB2866:
.LBB2863:
	lwz 3,52(1)
.LVL571:
.L437:
	.loc 6 394 0
	lwzu 10,4(11)
	slwi 0,9,2
	.loc 6 393 0
	addi 9,9,1
.LVL572:
	.loc 6 394 0
	stwx 10,3,0
	.loc 6 393 0
	lwz 0,40(1)
	cmpw 7,9,0
	blt+ 7,.L691
.LVL573:
.L436:
	.loc 6 398 0
	cmpwi 7,28,0
	beq- 7,.L681
	.loc 6 399 0
	mr 3,28
	bl _ZdaPv
	lwz 0,40(1)
.L681:
	lwz 28,52(1)
.LVL574:
	slwi 0,0,2
	add 28,28,0
	b .L430
.LVL575:
.L689:
.LBE2863:
.LBE2866:
.LBE2869:
.LBE2872:
.LBE2889:
.LBE2898:
.LBB2899:
.LBB2900:
.LBB2901:
.LBB2902:
.LBB2903:
	.loc 4 501 0
	mr 3,30
.LEHB27:
	bl _ZN5idStr8FreeDataEv
.LEHE27:
.LBE2903:
.LBE2902:
.LBE2901:
.LBE2900:
.LBE2899:
	.loc 3 328 0 discriminator 1
	mr 3,29
.LEHB28:
	bl _ZN8idParserD1Ev
.LEHE28:
.LVL576:
.L419:
.LBE2840:
.LBE2839:
.LBB2923:
.LBB2924:
.LBB2925:
.LBB2926:
	.loc 3 629 0
	lwz 5,1024(31)
	.loc 6 197 0
	li 0,0
.LBE2926:
.LBE2925:
	.loc 6 159 0
	li 9,16
.LBB2929:
.LBB2927:
	.loc 6 197 0
	stw 0,36(1)
.LBE2927:
.LBE2929:
.LBE2924:
.LBE2923:
.LBB2932:
	.loc 3 331 0
	cmpwi 7,5,0
.LBE2932:
.LBB3020:
.LBB2931:
	.loc 6 159 0
	stw 9,32(1)
.LVL577:
.LBB2930:
.LBB2928:
	.loc 6 198 0
	stw 0,24(1)
	.loc 6 199 0
	stw 0,28(1)
.LBE2928:
.LBE2930:
.LBE2931:
.LBE3020:
.LBB3021:
	.loc 3 331 0
	beq- 7,.L442
.LVL578:
.LBB2933:
	.loc 3 332 0
	addi 29,1,152
	lis 6,.LC14@ha
	lwz 4,1028(31)
	mr 3,29
	la 6,.LC14@l(6)
	li 7,28
.LEHB29:
	bl _ZN8idParserC1EPKciS1_i
.LEHE29:
.LVL579:
.LBB2934:
.LBB2935:
.LBB2936:
.LBB2937:
	.loc 4 357 0
	li 9,20
	.loc 4 356 0
	li 0,0
	.loc 4 357 0
	stw 9,80(1)
	.loc 4 358 0
	addi 9,1,84
.LBE2937:
.LBE2936:
.LBE2935:
.LBE2934:
.LBB2941:
.LBB2942:
	.loc 4 653 0
	lis 27,.LC31@ha
.LBE2942:
.LBE2941:
.LBB2945:
.LBB2940:
.LBB2939:
.LBB2938:
	.loc 4 356 0
	stw 0,72(1)
	.loc 4 358 0
	stw 9,76(1)
	addi 30,1,72
.LVL580:
	.loc 4 359 0
	stb 0,84(1)
.LBE2938:
.LBE2939:
.LBE2940:
.LBE2945:
.LBB2946:
.LBB2943:
	.loc 4 653 0
	la 27,.LC31@l(27)
.LBE2943:
.LBE2946:
.LBB2947:
.LBB2948:
.LBB2949:
.LBB2950:
	.loc 6 393 0
	li 24,0
	.loc 6 663 0
	li 25,16
.L662:
.LBE2950:
.LBE2949:
.LBE2948:
.LBE2947:
	.loc 3 334 0 discriminator 1
	mr 3,29
	mr 4,30
.LEHB30:
	bl _ZN8idParser9ReadTokenEP7idToken
	cmpwi 7,3,0
	beq- 7,.L692
.LVL581:
.LBB2991:
.LBB2944:
	.loc 4 653 0
	lwz 3,4(30)
	mr 4,27
	bl _ZN5idStr3CmpEPKcS1_
.LBE2944:
.LBE2991:
	.loc 3 335 0
	cmpwi 7,3,0
	beq+ 7,.L662
.LVL582:
	.loc 3 338 0
	lwz 3,4(30)
	bl atoi
.LBB2992:
.LBB2982:
	.loc 6 655 0
	lwz 28,36(1)
.LBE2982:
.LBE2992:
	.loc 3 338 0
	mr 26,3
.LVL583:
.LBB2993:
.LBB2983:
	.loc 6 655 0
	cmpwi 7,28,0
	beq- 7,.L445
	lwz 0,24(1)
	lwz 9,28(1)
.L446:
.LBB2964:
	.loc 6 659 0
	cmpw 7,9,0
	beq- 7,.L604
	slwi 0,0,2
	add 28,28,0
.L453:
.LBE2964:
	.loc 6 669 0
	stw 26,0(28)
	.loc 6 670 0
	lwz 9,24(1)
	addi 0,9,1
	stw 0,24(1)
	b .L662
.L604:
	lwz 0,32(1)
.LBB2965:
	.loc 6 659 0
	mr 10,9
.L448:
.LBB2961:
	.loc 6 662 0
	cmpwi 7,0,0
	bne- 7,.L454
	.loc 6 663 0
	stw 25,32(1)
	li 0,16
.L454:
	.loc 6 665 0
	add 11,10,0
.LVL584:
	.loc 6 666 0
	divw 11,11,0
.LVL585:
.LBB2951:
.LBB2952:
	.loc 6 375 0
	mullw. 0,11,0
.LVL586:
	ble- 0,.L693
	.loc 6 380 0
	cmpw 7,10,0
	beq- 7,.L694
.LVL587:
	.loc 6 387 0
	cmpw 7,9,0
	.loc 6 386 0
	stw 0,28(1)
	.loc 6 387 0
	ble- 7,.L458
	.loc 6 388 0
	stw 0,24(1)
.L458:
	.loc 6 392 0
	slwi 3,0,2
	bl _Znaj
.LEHE30:
.LVL588:
	.loc 6 393 0
	lwz 0,24(1)
	.loc 6 392 0
	stw 3,36(1)
.LVL589:
	.loc 6 393 0
	cmpwi 7,0,0
	ble- 7,.L459
	.loc 3 303 0
	addi 11,28,-4
.LBE2952:
.LBE2951:
	.loc 6 393 0
	li 9,0
	b .L460
.LVL590:
.L695:
.LBB2958:
.LBB2955:
	lwz 3,36(1)
.LVL591:
.L460:
	.loc 6 394 0
	lwzu 10,4(11)
	slwi 0,9,2
	.loc 6 393 0
	addi 9,9,1
.LVL592:
	.loc 6 394 0
	stwx 10,3,0
	.loc 6 393 0
	lwz 0,24(1)
	cmpw 7,9,0
	blt+ 7,.L695
.LVL593:
.L459:
	.loc 6 398 0
	cmpwi 7,28,0
	beq- 7,.L682
	.loc 6 399 0
	mr 3,28
	bl _ZdaPv
	lwz 0,24(1)
.L682:
	lwz 28,36(1)
.LVL594:
	slwi 0,0,2
	add 28,28,0
	b .L453
.LVL595:
.L692:
.LBE2955:
.LBE2958:
.LBE2961:
.LBE2965:
.LBE2983:
.LBE2993:
.LBB2994:
.LBB2995:
.LBB2996:
.LBB2997:
.LBB2998:
	.loc 4 501 0
	mr 3,30
.LEHB31:
	bl _ZN5idStr8FreeDataEv
.LEHE31:
.LBE2998:
.LBE2997:
.LBE2996:
.LBE2995:
.LBE2994:
	.loc 3 339 0 discriminator 1
	mr 3,29
.LEHB32:
	bl _ZN8idParserD1Ev
.LEHE32:
.LVL596:
.L442:
.LBE2933:
.LBE3021:
.LBB3022:
.LBB3023:
.LBB3024:
.LBB3025:
	.loc 3 629 0
	lwz 5,1056(31)
	.loc 6 197 0
	li 0,0
.LBE3025:
.LBE3024:
	.loc 6 159 0
	li 9,16
.LBB3028:
.LBB3026:
	.loc 6 197 0
	stw 0,20(1)
.LBE3026:
.LBE3028:
.LBE3023:
.LBE3022:
.LBB3031:
	.loc 3 343 0
	cmpwi 7,5,0
.LBE3031:
.LBB3132:
.LBB3030:
	.loc 6 159 0
	stw 9,16(1)
.LVL597:
.LBB3029:
.LBB3027:
	.loc 6 198 0
	stw 0,8(1)
	.loc 6 199 0
	stw 0,12(1)
.LBE3027:
.LBE3029:
.LBE3030:
.LBE3132:
.LBB3133:
	.loc 3 343 0
	beq- 7,.L465
.LVL598:
.LBB3032:
	.loc 3 344 0
	addi 29,1,152
	lis 6,.LC32@ha
	lwz 4,1060(31)
	mr 3,29
	la 6,.LC32@l(6)
	li 7,28
.LEHB33:
	bl _ZN8idParserC1EPKciS1_i
.LEHE33:
.LVL599:
.LBB3033:
.LBB3034:
.LBB3035:
.LBB3036:
	.loc 4 357 0
	li 9,20
	.loc 4 356 0
	li 0,0
	.loc 4 357 0
	stw 9,80(1)
	.loc 4 358 0
	addi 9,1,84
.LBE3036:
.LBE3035:
.LBE3034:
.LBE3033:
.LBB3040:
.LBB3041:
	.loc 4 653 0
	lis 27,.LC31@ha
.LBE3041:
.LBE3040:
.LBB3044:
.LBB3039:
.LBB3038:
.LBB3037:
	.loc 4 356 0
	stw 0,72(1)
	.loc 4 358 0
	stw 9,76(1)
	addi 30,1,72
.LVL600:
	.loc 4 359 0
	stb 0,84(1)
.LBE3037:
.LBE3038:
.LBE3039:
.LBE3044:
.LBB3045:
.LBB3042:
	.loc 4 653 0
	la 27,.LC31@l(27)
.LBE3042:
.LBE3045:
.LBB3046:
.LBB3047:
.LBB3048:
.LBB3049:
	.loc 6 393 0
	li 24,0
	.loc 6 663 0
	li 25,16
.L663:
.LBE3049:
.LBE3048:
.LBE3047:
.LBE3046:
	.loc 3 346 0 discriminator 1
	mr 3,29
	mr 4,30
.LEHB34:
	bl _ZN8idParser9ReadTokenEP7idToken
	cmpwi 7,3,0
	beq- 7,.L696
.LVL601:
.LBB3102:
.LBB3043:
	.loc 4 653 0
	lwz 3,4(30)
	mr 4,27
	bl _ZN5idStr3CmpEPKcS1_
.LBE3043:
.LBE3102:
	.loc 3 347 0
	cmpwi 7,3,0
	beq+ 7,.L663
.LVL602:
	.loc 3 350 0
	lwz 3,4(30)
	bl atoi
.LBB3103:
.LBB3092:
	.loc 6 655 0
	lwz 28,20(1)
.LBE3092:
.LBE3103:
	.loc 3 350 0
	mr 26,3
.LVL603:
.LBB3104:
.LBB3093:
	.loc 6 655 0
	cmpwi 7,28,0
	beq- 7,.L468
	lwz 0,8(1)
	lwz 9,12(1)
.L469:
.LBB3073:
	.loc 6 659 0
	cmpw 7,0,9
	beq- 7,.L606
.L683:
.LBB3068:
.LBB3050:
.LBB3051:
	.loc 6 380 0
	slwi 0,0,2
	add 28,28,0
.L476:
.LBE3051:
.LBE3050:
.LBE3068:
.LBE3073:
	.loc 6 669 0
	stw 26,0(28)
	.loc 6 670 0
	lwz 9,8(1)
	addi 0,9,1
	stw 0,8(1)
	b .L663
.L606:
	lwz 3,16(1)
.LBB3074:
	.loc 6 659 0
	mr 10,0
.L471:
.LBB3069:
	.loc 6 662 0
	cmpwi 7,3,0
	mr 9,3
	bne- 7,.L477
	.loc 6 663 0
	stw 25,16(1)
	li 9,16
.L477:
	.loc 6 665 0
	add 11,9,10
.LVL604:
	.loc 6 666 0
	divw 11,11,9
.LVL605:
.LBB3063:
.LBB3058:
	.loc 6 375 0
	mullw. 9,11,9
.LVL606:
	ble- 0,.L697
	.loc 6 380 0
	cmpw 7,10,9
	beq- 7,.L683
.LVL607:
	.loc 6 387 0
	cmpw 7,0,9
	.loc 6 386 0
	stw 9,12(1)
	.loc 6 387 0
	ble- 7,.L481
	.loc 6 388 0
	stw 9,8(1)
.L481:
	.loc 6 392 0
	slwi 3,9,2
	bl _Znaj
.LEHE34:
.LVL608:
	.loc 6 393 0
	lwz 0,8(1)
	.loc 6 392 0
	stw 3,20(1)
.LVL609:
	.loc 6 393 0
	cmpwi 7,0,0
	ble- 7,.L482
	.loc 3 303 0
	addi 11,28,-4
.LBE3058:
.LBE3063:
	.loc 6 393 0
	li 9,0
	b .L483
.LVL610:
.L698:
.LBB3064:
.LBB3059:
	lwz 3,20(1)
.LVL611:
.L483:
	.loc 6 394 0
	lwzu 10,4(11)
	slwi 0,9,2
	.loc 6 393 0
	addi 9,9,1
.LVL612:
	.loc 6 394 0
	stwx 10,3,0
	.loc 6 393 0
	lwz 0,8(1)
	cmpw 7,9,0
	blt+ 7,.L698
.LVL613:
.L482:
	.loc 6 398 0
	cmpwi 7,28,0
	beq- 7,.L684
	.loc 6 399 0
	mr 3,28
	bl _ZdaPv
	lwz 0,8(1)
.L684:
	lwz 28,20(1)
.LVL614:
	slwi 0,0,2
	add 28,28,0
	b .L476
.LVL615:
.L696:
.LBE3059:
.LBE3064:
.LBE3069:
.LBE3074:
.LBE3093:
.LBE3104:
.LBB3105:
.LBB3106:
.LBB3107:
.LBB3108:
.LBB3109:
	.loc 4 501 0
	mr 3,30
.LEHB35:
	bl _ZN5idStr8FreeDataEv
.LEHE35:
.LBE3109:
.LBE3108:
.LBE3107:
.LBE3106:
.LBE3105:
	.loc 3 351 0 discriminator 1
	mr 3,29
.LEHB36:
	bl _ZN8idParserD1Ev
.LEHE36:
.LVL616:
.L465:
	.loc 3 629 0
	lwz 5,1088(31)
.LBE3032:
.LBE3133:
.LBB3134:
	.loc 3 354 0
	cmpwi 7,5,0
	beq- 7,.L607
.LVL617:
.LBB3135:
	.loc 3 355 0
	addi 29,1,152
	lis 6,.LC33@ha
	lwz 4,1092(31)
	mr 3,29
	la 6,.LC33@l(6)
	li 7,28
.LEHB37:
	bl _ZN8idParserC1EPKciS1_i
.LEHE37:
.LVL618:
.LBB3136:
.LBB3137:
.LBB3138:
.LBB3139:
	.loc 6 199 0
	li 26,0
	.loc 4 357 0
	li 9,20
	cmpwi 0,26,0
	stw 9,80(1)
	.loc 4 358 0
	addi 9,1,84
.LBE3139:
.LBE3138:
.LBE3137:
.LBE3136:
.LBB3143:
.LBB3144:
.LBB3145:
	.loc 4 653 0
	lis 27,.LC31@ha
	mfcr 0
.LBE3145:
.LBE3144:
.LBE3143:
.LBB3201:
.LBB3142:
.LBB3141:
.LBB3140:
	.loc 4 358 0
	stw 9,76(1)
	mfcr 20
	.loc 6 198 0
	li 28,0
	stw 0,284(1)
	.loc 4 356 0
	li 0,0
	stw 0,72(1)
	.loc 6 197 0
	li 17,0
	.loc 4 359 0
	stb 0,84(1)
	addi 30,1,72
.LVL619:
.LBE3140:
.LBE3141:
.LBE3142:
.LBE3201:
.LBB3202:
.LBB3148:
.LBB3146:
	.loc 4 653 0
	la 27,.LC31@l(27)
.LBE3146:
.LBE3148:
	.loc 3 362 0
	lis 24,0x4330
	lis 21,.LC4@ha
.LVL620:
.L664:
.LBE3202:
	.loc 3 357 0 discriminator 1
	mr 3,29
	mr 4,30
.LEHB38:
	bl _ZN8idParser9ReadTokenEP7idToken
	cmpwi 7,3,0
	beq- 7,.L699
.LVL621:
.LBB3203:
.LBB3149:
.LBB3147:
	.loc 4 653 0
	lwz 3,4(30)
	mr 4,27
	bl _ZN5idStr3CmpEPKcS1_
.LBE3147:
.LBE3149:
	.loc 3 358 0
	cmpwi 7,3,0
	beq+ 7,.L664
.LVL622:
	.loc 3 362 0
	lwz 3,4(30)
	bl atoi
	.loc 3 364 0
	mr 4,30
	.loc 3 362 0
	mr 23,3
.LVL623:
	.loc 3 364 0
	mr 3,29
.LVL624:
	bl _ZN8idParser9ReadTokenEP7idToken
	.loc 3 365 0
	mr 3,29
	mr 4,30
	bl _ZN8idParser9ReadTokenEP7idToken
.LVL625:
	.loc 3 367 0
	lwz 3,4(30)
	bl atoi
.LBB3150:
.LBB3151:
	.loc 6 655 0
	lwz 0,284(1)
.LBE3151:
.LBE3150:
	.loc 3 367 0
	mr 25,3
.LVL626:
.LBB3192:
.LBB3183:
	.loc 6 655 0
	mtcrf 128,0
	beq- 0,.L700
.LVL627:
.L491:
.LBB3152:
	.loc 6 659 0
	cmpw 7,26,28
	beq- 7,.L701
.LVL628:
.L493:
	slwi 9,28,3
	addi 28,28,1
	add 9,17,9
.LVL629:
.L496:
.LBE3152:
.LBE3183:
.LBE3192:
	.loc 3 362 0
	xoris 23,23,0x8000
.LVL630:
	stw 24,264(1)
	stw 23,268(1)
	.loc 3 367 0
	xoris 25,25,0x8000
.LVL631:
	.loc 3 362 0
	lfs 0,.LC4@l(21)
	lfd 13,264(1)
	fsub 13,13,0
	frsp 13,13
	stfs 13,0(9)
	.loc 3 367 0
	stw 25,276(1)
	stw 24,272(1)
	lfd 13,272(1)
	fsub 0,13,0
	frsp 0,0
	stfs 0,4(9)
.LVL632:
	b .L664
.LVL633:
.L701:
.LBB3193:
.LBB3184:
.LBB3167:
.LBB3153:
	.loc 6 665 0
	addi 22,26,16
.LVL634:
	.loc 6 666 0
	srawi 22,22,4
	addze 22,22
.LVL635:
.LBB3154:
.LBB3155:
	.loc 6 375 0
	slwi. 22,22,4
.LVL636:
	ble- 0,.L702
	.loc 6 380 0
	cmpw 4,22,26
	beq- 4,.L703
.LVL637:
	.loc 6 392 0
	slwi 3,22,3
	bl _Znaj
.LEHE38:
	mr 19,3
	mr 28,22
	ble- 4,.L500
	mr 28,26
.L500:
.LVL638:
	.loc 6 393 0
	cmpwi 7,28,0
	ble- 7,.L501
.LBE3155:
.LBE3154:
.LBE3153:
.LBE3167:
.LBB3168:
.LBB3169:
	mtctr 28
.LBE3169:
.LBE3168:
.LBB3175:
.LBB3164:
.LBB3161:
.LBB3158:
	.loc 3 303 0
	addi 8,17,-8
	addi 9,19,-8
.LVL639:
.L502:
	.loc 6 394 0
	addi 8,8,8
	lwz 10,0(8)
	lwz 11,4(8)
	stwu 10,8(9)
	stw 11,4(9)
	.loc 6 393 0
	bdnz .L502
.L501:
	.loc 6 398 0
	lwz 0,284(1)
	mtcrf 128,0
	beq- 0,.L704
	.loc 6 399 0
	mr 3,17
.LVL640:
	mr 26,22
.LVL641:
	bl _ZdaPv
	mr. 17,19
.LVL642:
	slwi 9,28,3
	addi 28,28,1
	mfcr 0
	add 9,19,9
	stw 0,284(1)
	b .L496
.LVL643:
.L699:
.LBE3158:
.LBE3161:
.LBE3164:
.LBE3175:
.LBE3184:
.LBE3193:
.LBE3203:
.LBB3204:
.LBB3205:
.LBB3206:
.LBB3207:
.LBB3208:
	.loc 4 501 0
	mr 3,30
.LEHB39:
	bl _ZN5idStr8FreeDataEv
.LEHE39:
.LBE3208:
.LBE3207:
.LBE3206:
.LBE3205:
.LBE3204:
	.loc 3 369 0 discriminator 1
	mr 3,29
.LEHB40:
	bl _ZN8idParserD1Ev
.LEHE40:
.LVL644:
	.loc 3 629 0
	lwz 5,1120(31)
.LBE3135:
.LBE3134:
.LBB3230:
	.loc 3 373 0
	cmpwi 7,5,0
	bne- 7,.L705
.LVL645:
.L609:
	mfcr 9
	rlwinm 9,9,28,0xf0000000
	.loc 6 198 0
	li 26,0
	stw 9,288(1)
	.loc 6 197 0
	li 9,0
	stw 9,280(1)
.LVL646:
.L507:
.LBB3231:
	.loc 3 384 0
	lwz 16,56(1)
	.loc 3 385 0
	lwz 0,40(1)
.LVL647:
.LBE3231:
.LBE3230:
.LBB3307:
	.loc 3 386 0
	cmpwi 7,16,0
	ble- 7,.L526
	cmpwi 3,28,0
	cmpw 4,16,0
	cmpwi 2,26,0
	addi 14,16,-1
	li 24,4
	li 29,0
	addi 15,1,56
	addi 25,1,24
	addi 26,31,932
.LVL648:
.L550:
.LBB3308:
	.loc 3 389 0
	cmpw 7,14,29
.LBE3308:
	.loc 3 388 0
	lwz 9,12(15)
.LVL649:
	.loc 3 303 0
	slwi 0,29,2
.LBB3373:
	.loc 3 389 0
	li 22,-1
	.loc 3 388 0
	lwzx 23,9,0
.LVL650:
	.loc 3 389 0
	ble- 7,.L527
.LVL651:
	.loc 3 389 0 is_stmt 0 discriminator 1
	lwzx 22,9,24
	subf 22,23,22
	addi 22,22,-4
.LVL652:
.L527:
	.loc 3 390 0 is_stmt 1 discriminator 3
	beq- 4,.L706
	.loc 3 390 0 is_stmt 0
	li 20,0
.L528:
.LVL653:
	.loc 3 391 0 is_stmt 1 discriminator 3
	lwz 9,0(25)
	.loc 3 394 0 discriminator 3
	li 27,0
	.loc 3 391 0 discriminator 3
	cmpwi 7,9,0
	ble- 7,.L529
.LVL654:
	.loc 3 392 0
	lwz 9,12(25)
	lwzx 27,9,0
.LVL655:
.L529:
	.loc 3 396 0
	lwz 9,8(1)
	.loc 3 399 0
	li 28,0
	.loc 3 396 0
	cmpwi 7,9,0
	ble- 7,.L530
.LVL656:
	.loc 3 397 0
	lwz 9,20(1)
	lwzx 28,9,0
.LVL657:
.L530:
	.loc 3 401 0
	ble- 3,.L615
.LVL658:
.LBB3309:
.LBB3310:
	.loc 3 303 0
	slwi 9,29,3
	.loc 6 589 0
	add 11,17,9
	.loc 3 402 0
	lwzx 19,17,9
.LVL659:
	lwz 21,4(11)
.LVL660:
.LBE3310:
.LBE3309:
	.loc 3 406 0
	ble- 2,.L616
.LVL661:
.L711:
.LBB3311:
.LBB3312:
	.loc 6 655 0
	lwz 30,944(31)
.LBE3312:
.LBE3311:
	.loc 3 407 0
	lwz 11,280(1)
.LBB3362:
.LBB3351:
	.loc 6 655 0
	cmpwi 7,30,0
.LBE3351:
.LBE3362:
	.loc 3 407 0
	lwzx 18,11,0
.LVL662:
.LBB3363:
.LBB3352:
	.loc 6 655 0
	beq- 7,.L533
.LVL663:
.L712:
	lwz 0,932(31)
.LVL664:
	lwz 9,936(31)
.L534:
.LBB3313:
	.loc 6 659 0
	cmpw 7,9,0
	beq- 7,.L618
.L685:
.LBB3314:
.LBB3315:
.LBB3316:
	.loc 6 399 0
	slwi 0,0,5
	add 30,30,0
.L541:
	.loc 6 669 0
	stw 23,0(30)
.LBE3316:
.LBE3315:
.LBE3314:
.LBE3313:
.LBE3352:
.LBE3363:
.LBE3373:
	.loc 3 386 0
	addi 29,29,1
.LVL665:
.LBB3374:
.LBB3364:
.LBB3353:
.LBB3334:
.LBB3329:
.LBB3324:
.LBB3319:
	.loc 6 669 0
	stw 22,4(30)
.LBE3319:
.LBE3324:
.LBE3329:
.LBE3334:
.LBE3353:
.LBE3364:
.LBE3374:
	.loc 3 386 0
	cmpw 7,29,16
.LBB3375:
.LBB3365:
.LBB3354:
.LBB3335:
.LBB3330:
.LBB3325:
.LBB3320:
	.loc 6 669 0
	stw 20,8(30)
.LBE3320:
.LBE3325:
.LBE3330:
.LBE3335:
.LBE3354:
.LBE3365:
.LBE3375:
	.loc 3 386 0
	addi 24,24,4
.LBB3376:
.LBB3366:
.LBB3355:
.LBB3336:
.LBB3331:
.LBB3326:
.LBB3321:
	.loc 6 669 0
	stw 27,12(30)
	stw 28,16(30)
	stw 19,20(30)
	stw 21,24(30)
	stw 18,28(30)
.LBE3321:
.LBE3326:
.LBE3331:
.LBE3336:
	.loc 6 670 0
	lwz 9,932(31)
	addi 0,9,1
	stw 0,932(31)
.LBE3355:
.LBE3366:
.LBE3376:
	.loc 3 386 0
	bne+ 7,.L550
.LVL666:
.L526:
.LBE3307:
.LBB3381:
.LBB3382:
.LBB3383:
.LBB3384:
	.loc 6 193 0
	lwz 11,288(1)
.LBE3384:
.LBE3383:
.LBE3382:
.LBE3381:
	.loc 3 413 0
	lwz 0,48(31)
.LBB3391:
.LBB3389:
.LBB3387:
.LBB3385:
	.loc 6 193 0
	mtcrf 128,11
.LBE3385:
.LBE3387:
.LBE3389:
.LBE3391:
	.loc 3 413 0
	ori 0,0,2048
	stw 0,48(31)
.LVL667:
.LBB3392:
.LBB3390:
.LBB3388:
.LBB3386:
	.loc 6 193 0
	beq- 0,.L552
	.loc 6 194 0
	lwz 3,280(1)
	bl _ZdaPv
.L552:
.LVL668:
.LBE3386:
.LBE3388:
.LBE3390:
.LBE3392:
.LBB3393:
.LBB3394:
.LBB3395:
.LBB3396:
	.loc 6 193 0
	lwz 0,284(1)
	mtcrf 128,0
	beq- 0,.L554
	.loc 6 194 0
	mr 3,17
	bl _ZdaPv
.L554:
.LVL669:
.LBE3396:
.LBE3395:
.LBE3394:
.LBE3393:
.LBB3397:
.LBB3398:
.LBB3399:
.LBB3400:
	.loc 6 193 0
	lwz 3,20(1)
	cmpwi 7,3,0
	beq- 7,.L555
	.loc 6 194 0
	bl _ZdaPv
.L555:
.LBE3400:
.LBE3399:
.LBE3398:
.LBE3397:
.LBB3407:
.LBB3408:
.LBB3409:
.LBB3410:
	.loc 6 193 0
	lwz 3,36(1)
.LBE3410:
.LBE3409:
.LBE3408:
.LBE3407:
.LBB3423:
.LBB3405:
.LBB3403:
.LBB3401:
	.loc 6 197 0
	li 0,0
	stw 0,20(1)
.LBE3401:
.LBE3403:
.LBE3405:
.LBE3423:
.LBB3424:
.LBB3419:
.LBB3415:
.LBB3411:
	.loc 6 193 0
	cmpwi 7,3,0
.LBE3411:
.LBE3415:
.LBE3419:
.LBE3424:
.LBB3425:
.LBB3406:
.LBB3404:
.LBB3402:
	.loc 6 198 0
	stw 0,8(1)
	.loc 6 199 0
	stw 0,12(1)
.LVL670:
.LBE3402:
.LBE3404:
.LBE3406:
.LBE3425:
.LBB3426:
.LBB3420:
.LBB3416:
.LBB3412:
	.loc 6 193 0
	beq- 7,.L557
	.loc 6 194 0
	bl _ZdaPv
.L557:
.LBE3412:
.LBE3416:
.LBE3420:
.LBE3426:
.LBB3427:
.LBB3428:
.LBB3429:
.LBB3430:
	.loc 6 193 0
	lwz 3,52(1)
.LBE3430:
.LBE3429:
.LBE3428:
.LBE3427:
.LBB3443:
.LBB3421:
.LBB3417:
.LBB3413:
	.loc 6 197 0
	li 0,0
	stw 0,36(1)
.LBE3413:
.LBE3417:
.LBE3421:
.LBE3443:
.LBB3444:
.LBB3439:
.LBB3435:
.LBB3431:
	.loc 6 193 0
	cmpwi 7,3,0
.LBE3431:
.LBE3435:
.LBE3439:
.LBE3444:
.LBB3445:
.LBB3422:
.LBB3418:
.LBB3414:
	.loc 6 198 0
	stw 0,24(1)
	.loc 6 199 0
	stw 0,28(1)
.LVL671:
.LBE3414:
.LBE3418:
.LBE3422:
.LBE3445:
.LBB3446:
.LBB3440:
.LBB3436:
.LBB3432:
	.loc 6 193 0
	beq- 7,.L559
	.loc 6 194 0
	bl _ZdaPv
.L559:
.LBE3432:
.LBE3436:
.LBE3440:
.LBE3446:
.LBB3447:
.LBB3448:
.LBB3449:
.LBB3450:
	.loc 6 193 0
	lwz 3,68(1)
.LBE3450:
.LBE3449:
.LBE3448:
.LBE3447:
.LBB3457:
.LBB3441:
.LBB3437:
.LBB3433:
	.loc 6 197 0
	li 0,0
	stw 0,52(1)
.LBE3433:
.LBE3437:
.LBE3441:
.LBE3457:
.LBB3458:
.LBB3455:
.LBB3453:
.LBB3451:
	.loc 6 193 0
	cmpwi 7,3,0
.LBE3451:
.LBE3453:
.LBE3455:
.LBE3458:
.LBB3459:
.LBB3442:
.LBB3438:
.LBB3434:
	.loc 6 198 0
	stw 0,40(1)
	.loc 6 199 0
	stw 0,44(1)
.LVL672:
.LBE3434:
.LBE3438:
.LBE3442:
.LBE3459:
.LBB3460:
.LBB3456:
.LBB3454:
.LBB3452:
	.loc 6 193 0
	beq- 7,.L395
	.loc 6 194 0
	bl _ZdaPv
.L395:
.LBE3452:
.LBE3454:
.LBE3456:
.LBE3460:
.LBE2747:
	.loc 3 414 0
	lwz 0,388(1)
	lwz 12,300(1)
	mtlr 0
	lwz 14,304(1)
	lwz 15,308(1)
	mtcrf 56,12
	lwz 16,312(1)
	lwz 17,316(1)
.LVL673:
	lwz 18,320(1)
	lwz 19,324(1)
	lwz 20,328(1)
	lwz 21,332(1)
	lwz 22,336(1)
	lwz 23,340(1)
	lwz 24,344(1)
	lwz 25,348(1)
	lwz 26,352(1)
	lwz 27,356(1)
	lwz 28,360(1)
	lwz 29,364(1)
	lwz 30,368(1)
	lwz 31,372(1)
.LVL674:
	lfd 31,376(1)
	addi 1,1,384
	.cfi_remember_state
.LCFI49:
	.cfi_def_cfa_offset 0
	.cfi_restore 70
	.cfi_restore 63
	.cfi_restore 31
	.cfi_restore 30
	.cfi_restore 29
	.cfi_restore 28
	.cfi_restore 27
	.cfi_restore 26
	.cfi_restore 25
	.cfi_restore 24
	.cfi_restore 23
	.cfi_restore 22
	.cfi_restore 21
	.cfi_restore 20
	.cfi_restore 19
	.cfi_restore 18
	.cfi_restore 17
	.cfi_restore 16
	.cfi_restore 15
	.cfi_restore 14
	blr
.LVL675:
.L706:
.LCFI50:
	.cfi_restore_state
.LBB3534:
.LBB3461:
.LBB3377:
	.loc 3 390 0 discriminator 1
	lwz 9,52(1)
	lwzx 20,9,0
	b .L528
.LVL676:
.L618:
	lwz 0,940(31)
.LBB3367:
.LBB3356:
.LBB3337:
	.loc 6 659 0
	mr 10,9
.L536:
.LBB3332:
	.loc 6 662 0
	cmpwi 7,0,0
	bne- 7,.L542
	.loc 6 663 0
	li 0,16
	stw 0,940(31)
.L542:
	.loc 6 665 0
	add 11,9,0
.LVL677:
	.loc 6 666 0
	divw 11,11,0
.LVL678:
.LBB3327:
.LBB3322:
	.loc 6 375 0
	mullw. 0,11,0
.LVL679:
	ble- 0,.L707
	.loc 6 380 0
	cmpw 7,9,0
	beq- 7,.L708
.LVL680:
	.loc 6 387 0
	cmpw 7,0,10
	.loc 6 386 0
	stw 0,936(31)
	.loc 6 387 0
	bge- 7,.L546
	.loc 6 388 0
	stw 0,932(31)
.L546:
	.loc 6 392 0
	slwi 3,0,5
.LEHB41:
	bl _Znaj
.LVL681:
	.loc 6 393 0
	lwz 0,932(31)
	.loc 6 392 0
	stw 3,944(31)
.LVL682:
	.loc 6 393 0
	cmpwi 7,0,0
	ble- 7,.L547
	li 10,0
	li 8,0
	b .L548
.LVL683:
.L709:
	lwz 3,944(31)
.LVL684:
.L548:
	.loc 6 394 0
	mr 9,30
	add 11,3,10
	lwzux 5,9,10
	.loc 6 393 0
	addi 8,8,1
.LVL685:
	.loc 6 394 0
	lwz 6,4(9)
	lwz 7,8(9)
	lwz 0,12(9)
	stwx 5,3,10
	.loc 6 393 0
	addi 10,10,32
	.loc 6 394 0
	stw 6,4(11)
	stw 7,8(11)
	stw 0,12(11)
	lwz 0,28(9)
	lwz 5,16(9)
	lwz 6,20(9)
	lwz 7,24(9)
	stw 5,16(11)
	stw 6,20(11)
	stw 7,24(11)
	stw 0,28(11)
	.loc 6 393 0
	lwz 0,0(26)
	cmpw 7,8,0
	blt+ 7,.L709
.LVL686:
.L547:
	.loc 6 398 0
	cmpwi 7,30,0
	beq- 7,.L710
	.loc 6 399 0
	mr 3,30
	bl _ZdaPv
	lwz 0,932(31)
	lwz 30,944(31)
.LVL687:
	b .L685
.LVL688:
.L615:
.LBE3322:
.LBE3327:
.LBE3332:
.LBE3337:
.LBE3356:
.LBE3367:
	.loc 8 120 0
	li 21,0
	mr 19,21
.LVL689:
	.loc 3 406 0
	bgt+ 2,.L711
.LVL690:
.L616:
.LBB3368:
.LBB3357:
	.loc 6 655 0
	lwz 30,944(31)
.LBE3357:
.LBE3368:
	.loc 3 409 0
	li 18,0
.LVL691:
.LBB3369:
.LBB3358:
	.loc 6 655 0
	cmpwi 7,30,0
	bne+ 7,.L712
.L533:
	.loc 6 656 0
	lwz 9,940(31)
.LBB3338:
.LBB3339:
	.loc 6 375 0
	cmpwi 7,9,0
.LBE3339:
.LBE3338:
	.loc 6 656 0
	mr 0,9
.LVL692:
.LBB3346:
.LBB3342:
	.loc 6 375 0
	ble- 7,.L713
	.loc 6 380 0
	lwz 11,936(31)
	cmpw 7,9,11
	beq- 7,.L714
.LVL693:
	.loc 6 387 0
	lwz 9,932(31)
	.loc 6 386 0
	stw 0,936(31)
	.loc 6 387 0
	cmpw 7,0,9
	bge- 7,.L538
	.loc 6 388 0
	stw 0,932(31)
.L538:
	.loc 6 392 0
	slwi 3,0,5
	bl _Znaj
.LEHE41:
.LVL694:
	.loc 6 393 0
	lwz 0,932(31)
	.loc 6 392 0
	mr 30,3
	stw 3,944(31)
.LVL695:
	.loc 6 393 0
	li 9,0
	cmpwi 7,0,0
	li 10,0
	bgt+ 7,.L659
	b .L747
.LVL696:
.L716:
	lwz 30,944(31)
.LVL697:
.L659:
	.loc 6 394 0
	lwz 6,0(9)
	add 11,30,9
	lwz 7,4(9)
	.loc 6 393 0
	addi 10,10,1
.LVL698:
	.loc 6 394 0
	lwz 8,8(9)
	lwz 0,12(9)
	stwx 6,30,9
	stw 7,4(11)
	stw 8,8(11)
	stw 0,12(11)
	lwz 0,28(9)
	lwz 6,16(9)
	lwz 7,20(9)
	lwz 8,24(9)
	.loc 6 393 0
	addi 9,9,32
	.loc 6 394 0
	stw 6,16(11)
	stw 7,20(11)
	stw 8,24(11)
	stw 0,28(11)
	.loc 6 393 0
	lwz 0,0(26)
	cmpw 7,10,0
	blt+ 7,.L716
	lwz 9,936(31)
	lwz 30,944(31)
	b .L534
.LVL699:
.L708:
.LBE3342:
.LBE3346:
.LBB3347:
.LBB3333:
.LBB3328:
.LBB3323:
	.loc 6 380 0
	slwi 10,10,5
	add 30,30,10
	b .L541
.L707:
.LBB3317:
.LBB3318:
	.loc 6 193 0
	cmpwi 7,30,0
	beq- 7,.L544
	.loc 6 194 0
	mr 3,30
	bl _ZdaPv
.LVL700:
.L544:
	.loc 6 197 0
	li 9,0
	.loc 6 199 0
	li 30,0
	.loc 6 197 0
	stw 9,944(31)
	.loc 6 198 0
	stw 9,932(31)
	.loc 6 199 0
	stw 9,936(31)
	b .L541
.LVL701:
.L710:
.LBE3318:
.LBE3317:
	.loc 6 398 0
	lwz 0,932(31)
	lwz 30,944(31)
.LVL702:
	slwi 0,0,5
	add 30,30,0
	b .L541
.LVL703:
.L607:
.LBE3323:
.LBE3328:
.LBE3333:
.LBE3347:
.LBE3358:
.LBE3369:
.LBE3377:
.LBE3461:
.LBB3462:
.LBB3221:
	.loc 3 629 0
	lwz 5,1120(31)
	mfcr 9
	rlwinm 9,9,28,0xf0000000
.LBE3221:
	.loc 6 198 0
	li 28,0
	.loc 6 197 0
	li 17,0
.LVL704:
.LBE3462:
.LBB3463:
	.loc 3 373 0
	cmpwi 7,5,0
	stw 9,284(1)
	beq+ 7,.L609
.LVL705:
.L705:
.LBB3299:
	.loc 3 374 0
	addi 29,1,152
	lis 6,.LC34@ha
	lwz 4,1124(31)
	mr 3,29
	la 6,.LC34@l(6)
	li 7,28
.LEHB42:
	bl _ZN8idParserC1EPKciS1_i
.LEHE42:
.LVL706:
.LBB3232:
.LBB3233:
.LBB3234:
.LBB3235:
	.loc 6 199 0
	li 25,0
	.loc 4 357 0
	li 9,20
	cmpwi 0,25,0
	stw 9,80(1)
	.loc 4 358 0
	addi 9,1,84
.LBE3235:
.LBE3234:
.LBE3233:
.LBE3232:
.LBB3239:
.LBB3240:
	.loc 4 653 0
	lis 27,.LC31@ha
	mfcr 0
.LBE3240:
.LBE3239:
.LBB3243:
.LBB3238:
.LBB3237:
.LBB3236:
	.loc 4 358 0
	stw 9,76(1)
	.loc 6 197 0
	li 9,0
	mfcr 23
	stw 0,288(1)
	.loc 4 356 0
	li 0,0
	stw 0,72(1)
	.loc 6 198 0
	li 26,0
	.loc 4 359 0
	stb 0,84(1)
	addi 30,1,72
.LVL707:
	.loc 6 197 0
	stw 9,280(1)
.LBE3236:
.LBE3237:
.LBE3238:
.LBE3243:
.LBB3244:
.LBB3241:
	.loc 4 653 0
	la 27,.LC31@l(27)
.LVL708:
.L665:
.LBE3241:
.LBE3244:
	.loc 3 376 0 discriminator 1
	mr 3,29
	mr 4,30
.LEHB43:
	bl _ZN8idParser9ReadTokenEP7idToken
	cmpwi 7,3,0
	beq- 7,.L717
.LVL709:
.LBB3245:
.LBB3242:
	.loc 4 653 0
	lwz 3,4(30)
	mr 4,27
	bl _ZN5idStr3CmpEPKcS1_
.LEHE43:
.LBE3242:
.LBE3245:
	.loc 3 377 0
	cmpwi 7,3,0
	beq+ 7,.L665
.LVL710:
	.loc 3 380 0
	lwz 3,4(30)
	bl atof
.LBB3246:
.LBB3247:
	.loc 6 655 0
	lwz 11,288(1)
.LBE3247:
.LBE3246:
	.loc 3 380 0
	fmr 31,1
.LVL711:
.LBB3282:
.LBB3275:
	.loc 6 655 0
	mtcrf 128,11
	beq- 0,.L718
.L510:
.LVL712:
.LBB3248:
	.loc 6 659 0
	cmpw 7,25,26
	beq- 7,.L719
.LVL713:
.L512:
	lwz 11,280(1)
	slwi 9,26,2
	addi 26,26,1
	add 9,11,9
.LVL714:
.L515:
.LBE3248:
.LBE3275:
.LBE3282:
	.loc 3 380 0
	frsp 31,31
	stfs 31,0(9)
.LVL715:
	b .L665
.LVL716:
.L694:
.LBE3299:
.LBE3463:
.LBB3464:
.LBB3011:
.LBB2999:
.LBB2984:
.LBB2966:
.LBB2962:
.LBB2959:
.LBB2956:
	.loc 6 380 0
	slwi 9,9,2
	add 28,28,9
	b .L453
.LVL717:
.L700:
.LBE2956:
.LBE2959:
.LBE2962:
.LBE2966:
.LBE2984:
.LBE2999:
.LBE3011:
.LBE3464:
.LBB3465:
.LBB3222:
.LBB3209:
.LBB3194:
.LBB3185:
.LBB3176:
.LBB3170:
	cmpwi 7,26,16
	beq- 7,.L491
.LVL718:
	.loc 6 392 0
	li 3,128
.LVL719:
.LEHB44:
	bl _Znaj
.LEHE44:
	cmpwi 7,28,16
	bgt- 7,.L720
.LVL720:
	.loc 6 393 0
	cmpwi 7,28,0
	ble- 7,.L608
.LVL721:
.L666:
.LBE3170:
.LBE3176:
.LBE3185:
.LBE3194:
.LBE3209:
.LBE3222:
.LBE3465:
.LBB3466:
.LBB3123:
.LBB3110:
.LBB3094:
.LBB3075:
.LBB3070:
.LBB3065:
.LBB3060:
.LBB3052:
.LBB3053:
	mtctr 28
.LBE3053:
.LBE3052:
.LBE3060:
.LBE3065:
.LBE3070:
.LBE3075:
.LBE3094:
.LBE3110:
.LBE3123:
.LBE3466:
.LBB3467:
.LBB3223:
.LBB3210:
.LBB3195:
.LBB3186:
.LBB3177:
.LBB3171:
	.loc 3 303 0
	addi 8,3,-8
.LBE3171:
.LBE3177:
.LBE3186:
.LBE3195:
.LBE3210:
.LBE3223:
.LBE3467:
.LBB3468:
.LBB3124:
.LBB3111:
.LBB3095:
.LBB3076:
.LBB3071:
.LBB3066:
.LBB3061:
.LBB3056:
.LBB3054:
	li 9,-8
.L494:
.LBE3054:
.LBE3056:
.LBE3061:
.LBE3066:
.LBE3071:
.LBE3076:
.LBE3095:
.LBE3111:
.LBE3124:
.LBE3468:
.LBB3469:
.LBB3224:
.LBB3211:
.LBB3196:
.LBB3187:
.LBB3178:
.LBB3172:
	.loc 6 394 0
	addi 9,9,8
	lwz 10,0(9)
	lwz 11,4(9)
	stwu 10,8(8)
	stw 11,4(8)
	.loc 6 393 0
	bdnz .L494
	mr. 17,3
	.loc 6 386 0
	li 26,16
	mfcr 0
	stw 0,284(1)
	b .L491
.LVL722:
.L445:
.LBE3172:
.LBE3178:
.LBE3187:
.LBE3196:
.LBE3211:
.LBE3224:
.LBE3469:
.LBB3470:
.LBB3012:
.LBB3000:
.LBB2985:
	.loc 6 656 0
	lwz 9,32(1)
.LBB2967:
.LBB2968:
	.loc 6 375 0
	cmpwi 7,9,0
.LBE2968:
.LBE2967:
	.loc 6 656 0
	mr 0,9
.LVL723:
.LBB2976:
.LBB2971:
	.loc 6 375 0
	ble- 7,.L721
	.loc 6 380 0
	lwz 11,28(1)
	cmpw 7,9,11
	beq- 7,.L722
.LVL724:
	.loc 6 386 0
	stw 9,28(1)
	.loc 6 387 0
	lwz 9,24(1)
	cmpw 7,0,9
	blt- 7,.L723
.L450:
	.loc 6 392 0
	slwi 3,0,2
.LEHB45:
	bl _Znaj
.LEHE45:
.LVL725:
	.loc 6 393 0
	lwz 0,24(1)
	.loc 6 392 0
	mr 28,3
	stw 3,36(1)
.LVL726:
	.loc 6 393 0
	li 9,0
	cmpwi 7,0,0
	li 11,0
	bgt+ 7,.L654
	b .L748
.LVL727:
.L725:
	lwz 28,36(1)
.LVL728:
.L654:
	.loc 6 394 0
	lwz 0,0(9)
	.loc 6 393 0
	addi 11,11,1
.LVL729:
	.loc 6 394 0
	stwx 0,28,9
	.loc 6 393 0
	addi 9,9,4
	lwz 0,24(1)
	cmpw 7,11,0
	blt+ 7,.L725
	lwz 9,28(1)
	lwz 28,36(1)
	b .L446
.LVL730:
.L422:
.LBE2971:
.LBE2976:
.LBE2985:
.LBE3000:
.LBE3012:
.LBE3470:
.LBB3471:
.LBB2915:
.LBB2904:
.LBB2890:
	.loc 6 656 0
	lwz 3,48(1)
.LBB2873:
.LBB2874:
	.loc 6 375 0
	cmpwi 7,3,0
.LBE2874:
.LBE2873:
	.loc 6 656 0
	mr 9,3
.LVL731:
.LBB2882:
.LBB2877:
	.loc 6 375 0
	ble- 7,.L726
	.loc 6 380 0
	lwz 0,44(1)
	cmpw 7,3,0
	beq- 7,.L727
.LVL732:
	.loc 6 387 0
	lwz 0,40(1)
	.loc 6 386 0
	stw 3,44(1)
	.loc 6 387 0
	cmpw 7,3,0
	blt- 7,.L728
.L427:
	.loc 6 392 0
	slwi 3,3,2
.LEHB46:
	bl _Znaj
.LEHE46:
.LVL733:
	.loc 6 393 0
	lwz 0,40(1)
	.loc 6 392 0
	mr 28,3
	stw 3,52(1)
.LVL734:
	.loc 6 393 0
	li 9,0
	cmpwi 7,0,0
	li 11,0
	bgt+ 7,.L652
	b .L749
.LVL735:
.L730:
	lwz 28,52(1)
.LVL736:
.L652:
	.loc 6 394 0
	lwz 0,0(9)
	.loc 6 393 0
	addi 11,11,1
.LVL737:
	.loc 6 394 0
	stwx 0,28,9
	.loc 6 393 0
	addi 9,9,4
	lwz 0,40(1)
	cmpw 7,11,0
	blt+ 7,.L730
	lwz 9,44(1)
	lwz 28,52(1)
	b .L423
.LVL738:
.L468:
.LBE2877:
.LBE2882:
.LBE2890:
.LBE2904:
.LBE2915:
.LBE3471:
.LBB3472:
.LBB3125:
.LBB3112:
.LBB3096:
	.loc 6 656 0
	lwz 3,16(1)
.LBB3077:
.LBB3078:
	.loc 6 375 0
	cmpwi 7,3,0
.LBE3078:
.LBE3077:
	.loc 6 656 0
	mr 9,3
.LVL739:
.LBB3086:
.LBB3081:
	.loc 6 375 0
	ble- 7,.L731
	.loc 6 380 0
	lwz 0,12(1)
	cmpw 7,3,0
	beq- 7,.L732
.LVL740:
	.loc 6 387 0
	lwz 0,8(1)
	.loc 6 386 0
	stw 3,12(1)
	.loc 6 387 0
	cmpw 7,3,0
	blt- 7,.L733
.L473:
	.loc 6 392 0
	slwi 3,3,2
.LEHB47:
	bl _Znaj
.LEHE47:
.LVL741:
	.loc 6 393 0
	lwz 0,8(1)
	.loc 6 392 0
	mr 28,3
	stw 3,20(1)
.LVL742:
	.loc 6 393 0
	li 9,0
	cmpwi 7,0,0
	li 11,0
	bgt+ 7,.L656
	b .L750
.LVL743:
.L735:
	lwz 28,20(1)
.LVL744:
.L656:
	.loc 6 394 0
	lwz 0,0(9)
	.loc 6 393 0
	addi 11,11,1
.LVL745:
	.loc 6 394 0
	stwx 0,28,9
	.loc 6 393 0
	addi 9,9,4
	lwz 0,8(1)
	cmpw 7,11,0
	blt+ 7,.L735
	lwz 9,12(1)
	lwz 28,20(1)
	b .L469
.LVL746:
.L714:
.LBE3081:
.LBE3086:
.LBE3096:
.LBE3112:
.LBE3125:
.LBE3472:
.LBB3473:
.LBB3378:
.LBB3370:
.LBB3359:
.LBB3348:
.LBB3343:
	.loc 6 380 0
	lwz 0,932(31)
.LVL747:
	b .L534
.LVL748:
.L703:
.LBE3343:
.LBE3348:
.LBE3359:
.LBE3370:
.LBE3378:
.LBE3473:
.LBB3474:
.LBB3225:
.LBB3212:
.LBB3197:
.LBB3188:
.LBB3179:
.LBB3165:
.LBB3162:
.LBB3159:
	slwi 9,26,3
	addi 28,26,1
.LVL749:
	add 9,17,9
	b .L496
.LVL750:
.L719:
.LBE3159:
.LBE3162:
.LBE3165:
.LBE3179:
.LBE3188:
.LBE3197:
.LBE3212:
.LBE3225:
.LBE3474:
.LBB3475:
.LBB3300:
.LBB3283:
.LBB3276:
.LBB3263:
.LBB3249:
	.loc 6 665 0
	addi 24,25,16
.LVL751:
	.loc 6 666 0
	srawi 24,24,4
	addze 24,24
.LVL752:
.LBB3250:
.LBB3251:
	.loc 6 375 0
	slwi. 24,24,4
.LVL753:
	ble- 0,.L736
	.loc 6 380 0
	cmpw 4,24,25
	beq- 4,.L737
.LVL754:
	.loc 6 392 0
	slwi 3,24,2
.LEHB48:
	bl _Znaj
.LEHE48:
	mr 22,3
	mr 26,24
	ble- 4,.L519
	mr 26,25
.L519:
.LVL755:
	.loc 6 393 0
	cmpwi 7,26,0
	ble- 7,.L520
	.loc 3 303 0
	lwz 9,280(1)
.LBE3251:
.LBE3250:
.LBE3249:
.LBE3263:
.LBB3264:
.LBB3265:
	.loc 6 393 0
	mtctr 26
.LBE3265:
.LBE3264:
.LBB3269:
.LBB3260:
.LBB3257:
.LBB3254:
	.loc 3 303 0
	addi 11,9,-4
	addi 9,22,-4
.LVL756:
.L521:
	.loc 6 394 0
	lwzu 0,4(11)
	stwu 0,4(9)
	.loc 6 393 0
	bdnz .L521
.L520:
	.loc 6 398 0
	lwz 11,288(1)
	mtcrf 128,11
	beq- 0,.L738
	.loc 6 399 0
	lwz 3,280(1)
.LVL757:
	mr 25,24
.LVL758:
	bl _ZdaPv
	mr. 11,22
	slwi 9,26,2
	addi 26,26,1
	mfcr 0
	stw 11,280(1)
	add 9,22,9
	stw 0,288(1)
	b .L515
.LVL759:
.L717:
.LBE3254:
.LBE3257:
.LBE3260:
.LBE3269:
.LBE3276:
.LBE3283:
.LBB3284:
.LBB3285:
.LBB3286:
.LBB3287:
.LBB3288:
	.loc 4 501 0
	mr 3,30
.LEHB49:
	bl _ZN5idStr8FreeDataEv
.LEHE49:
.LBE3288:
.LBE3287:
.LBE3286:
.LBE3285:
.LBE3284:
	.loc 3 381 0 discriminator 1
	mr 3,29
	addi 15,1,56
	addi 25,1,24
.LEHB50:
	bl _ZN8idParserD1Ev
.LEHE50:
	b .L507
.LVL760:
.L688:
.LBE3300:
.LBE3475:
.LBB3476:
.LBB2830:
	.loc 3 311 0
	addi 29,1,152
	lis 6,.LC11@ha
	lwz 4,964(31)
	mr 3,29
	la 6,.LC11@l(6)
	li 7,28
.LEHB51:
	bl _ZN8idParserC1EPKciS1_i
.LEHE51:
.LVL761:
.LBB2764:
.LBB2765:
.LBB2766:
.LBB2767:
	.loc 4 357 0
	li 9,20
	.loc 4 356 0
	li 0,0
	.loc 4 357 0
	stw 9,80(1)
	.loc 4 358 0
	addi 9,1,84
.LBE2767:
.LBE2766:
.LBE2765:
.LBE2764:
.LBB2771:
.LBB2772:
	.loc 4 653 0
	lis 27,.LC31@ha
.LBE2772:
.LBE2771:
.LBB2775:
.LBB2770:
.LBB2769:
.LBB2768:
	.loc 4 356 0
	stw 0,72(1)
	.loc 4 358 0
	stw 9,76(1)
	addi 30,1,72
.LVL762:
	.loc 4 359 0
	stb 0,84(1)
.LBE2768:
.LBE2769:
.LBE2770:
.LBE2775:
.LBB2776:
.LBB2773:
	.loc 4 653 0
	la 27,.LC31@l(27)
.LBE2773:
.LBE2776:
.LBB2777:
.LBB2778:
.LBB2779:
.LBB2780:
	.loc 6 393 0
	li 24,0
	.loc 6 663 0
	li 25,16
.L660:
.LBE2780:
.LBE2779:
.LBE2778:
.LBE2777:
	.loc 3 313 0 discriminator 1
	mr 3,29
	mr 4,30
.LEHB52:
	bl _ZN8idParser9ReadTokenEP7idToken
	cmpwi 7,3,0
	beq- 7,.L739
.LVL763:
.LBB2813:
.LBB2774:
	.loc 4 653 0
	lwz 3,4(30)
	mr 4,27
	bl _ZN5idStr3CmpEPKcS1_
.LBE2774:
.LBE2813:
	.loc 3 314 0
	cmpwi 7,3,0
	beq+ 7,.L660
.LVL764:
	.loc 3 317 0
	lwz 3,4(30)
	bl atoi
.LBB2814:
.LBB2807:
	.loc 6 655 0
	lwz 28,68(1)
.LBE2807:
.LBE2814:
	.loc 3 317 0
	mr 26,3
.LVL765:
.LBB2815:
.LBB2808:
	.loc 6 655 0
	cmpwi 7,28,0
	beq- 7,.L399
	lwz 0,56(1)
	lwz 9,60(1)
.L400:
.LBB2794:
	.loc 6 659 0
	cmpw 7,0,9
	beq- 7,.L600
.L678:
.LBB2791:
.LBB2781:
.LBB2782:
	.loc 6 380 0
	slwi 0,0,2
	add 28,28,0
.L407:
.LBE2782:
.LBE2781:
.LBE2791:
.LBE2794:
	.loc 6 669 0
	stw 26,0(28)
	.loc 6 670 0
	lwz 9,56(1)
	addi 0,9,1
	stw 0,56(1)
	b .L660
.L600:
	lwz 3,64(1)
.LBB2795:
	.loc 6 659 0
	mr 11,0
.L402:
.LBB2792:
	.loc 6 662 0
	cmpwi 7,3,0
	mr 9,3
	bne- 7,.L408
	.loc 6 663 0
	stw 25,64(1)
	li 9,16
.L408:
	.loc 6 665 0
	add 10,11,9
.LVL766:
	.loc 6 666 0
	divw 10,10,9
.LVL767:
.LBB2788:
.LBB2785:
	.loc 6 375 0
	mullw. 9,10,9
.LVL768:
	ble- 0,.L740
	.loc 6 380 0
	cmpw 7,9,11
	beq- 7,.L678
.LVL769:
	.loc 6 387 0
	cmpw 7,9,0
	.loc 6 386 0
	stw 9,60(1)
	.loc 6 387 0
	bge- 7,.L412
	.loc 6 388 0
	stw 9,56(1)
.L412:
	.loc 6 392 0
	slwi 3,9,2
	bl _Znaj
.LEHE52:
.LVL770:
	.loc 6 393 0
	lwz 0,56(1)
	.loc 6 392 0
	stw 3,68(1)
.LVL771:
	.loc 6 393 0
	cmpwi 7,0,0
	ble- 7,.L413
	.loc 3 303 0
	addi 11,28,-4
.LBE2785:
.LBE2788:
	.loc 6 393 0
	li 9,0
	b .L414
.LVL772:
.L741:
.LBB2789:
.LBB2786:
	lwz 3,68(1)
.LVL773:
.L414:
	.loc 6 394 0
	lwzu 10,4(11)
	slwi 0,9,2
	.loc 6 393 0
	addi 9,9,1
.LVL774:
	.loc 6 394 0
	stwx 10,3,0
	.loc 6 393 0
	lwz 0,56(1)
	cmpw 7,9,0
	blt+ 7,.L741
.LVL775:
.L413:
	.loc 6 398 0
	cmpwi 7,28,0
	beq- 7,.L679
	.loc 6 399 0
	mr 3,28
	bl _ZdaPv
	lwz 0,56(1)
.L679:
	lwz 28,68(1)
.LVL776:
	slwi 0,0,2
	add 28,28,0
	b .L407
.LVL777:
.L739:
.LBE2786:
.LBE2789:
.LBE2792:
.LBE2795:
.LBE2808:
.LBE2815:
.LBB2816:
.LBB2817:
.LBB2818:
.LBB2819:
.LBB2820:
	.loc 4 501 0
	mr 3,30
.LEHB53:
	bl _ZN5idStr8FreeDataEv
.LEHE53:
.LBE2820:
.LBE2819:
.LBE2818:
.LBE2817:
.LBE2816:
	.loc 3 318 0 discriminator 1
	mr 3,29
.LEHB54:
	bl _ZN8idParserD1Ev
.LEHE54:
	b .L396
.LVL778:
.L718:
.LBE2830:
.LBE3476:
.LBB3477:
.LBB3301:
.LBB3289:
.LBB3277:
.LBB3270:
.LBB3266:
	.loc 6 380 0
	cmpwi 7,25,16
	beq- 7,.L510
.LVL779:
	.loc 6 392 0
	li 3,64
.LEHB55:
	bl _Znaj
.LEHE55:
	cmpwi 7,26,16
	bgt- 7,.L742
.LVL780:
	.loc 6 393 0
	cmpwi 7,26,0
	ble- 7,.L610
.LVL781:
.L667:
	mtctr 26
	li 9,-4
.L513:
	.loc 6 394 0
	lwzu 0,4(9)
	stwx 0,3,9
	.loc 6 393 0
	bdnz .L513
	mr. 9,3
	.loc 6 386 0
	li 25,16
	mfcr 11
	stw 9,280(1)
	stw 11,288(1)
	b .L510
.LVL782:
.L399:
.LBE3266:
.LBE3270:
.LBE3277:
.LBE3289:
.LBE3301:
.LBE3477:
.LBB3478:
.LBB2831:
.LBB2821:
.LBB2809:
	.loc 6 656 0
	lwz 3,64(1)
.LBB2796:
.LBB2797:
	.loc 6 375 0
	cmpwi 7,3,0
.LBE2797:
.LBE2796:
	.loc 6 656 0
	mr 9,3
.LVL783:
.LBB2803:
.LBB2800:
	.loc 6 375 0
	ble- 7,.L743
	.loc 6 380 0
	lwz 0,60(1)
	cmpw 7,3,0
	beq- 7,.L744
.LVL784:
	.loc 6 387 0
	lwz 0,56(1)
	.loc 6 386 0
	stw 3,60(1)
	.loc 6 387 0
	cmpw 7,3,0
	bge- 7,.L404
	.loc 6 388 0
	stw 3,56(1)
.L404:
	.loc 6 392 0
	slwi 3,3,2
.LEHB56:
	bl _Znaj
.LEHE56:
.LVL785:
	.loc 6 393 0
	lwz 0,56(1)
	.loc 6 392 0
	mr 28,3
	stw 3,68(1)
.LVL786:
	.loc 6 393 0
	li 9,0
	cmpwi 7,0,0
	li 11,0
	bgt+ 7,.L650
	b .L751
.LVL787:
.L746:
	lwz 28,68(1)
.LVL788:
.L650:
	.loc 6 394 0
	lwz 0,0(9)
	.loc 6 393 0
	addi 11,11,1
.LVL789:
	.loc 6 394 0
	stwx 0,28,9
	.loc 6 393 0
	addi 9,9,4
	lwz 0,56(1)
	cmpw 7,11,0
	blt+ 7,.L746
	lwz 9,60(1)
	lwz 28,68(1)
	b .L400
.LVL790:
.L697:
.LBE2800:
.LBE2803:
.LBE2809:
.LBE2821:
.LBE2831:
.LBE3478:
.LBB3479:
.LBB3126:
.LBB3113:
.LBB3097:
.LBB3087:
.LBB3072:
.LBB3067:
.LBB3062:
.LBB3057:
.LBB3055:
	.loc 6 193 0
	cmpwi 7,28,0
	beq- 7,.L479
	.loc 6 194 0
	mr 3,28
	bl _ZdaPv
.LVL791:
.L479:
	.loc 6 197 0
	stw 24,20(1)
	.loc 6 199 0
	li 28,0
	.loc 6 198 0
	stw 24,8(1)
	.loc 6 199 0
	stw 24,12(1)
	b .L476
.LVL792:
.L690:
.LBE3055:
.LBE3057:
.LBE3062:
.LBE3067:
.LBE3072:
.LBE3087:
.LBE3097:
.LBE3113:
.LBE3126:
.LBE3479:
.LBB3480:
.LBB2916:
.LBB2905:
.LBB2891:
.LBB2883:
.LBB2870:
.LBB2867:
.LBB2864:
.LBB2860:
.LBB2861:
	.loc 6 193 0
	cmpwi 7,28,0
	beq- 7,.L433
	.loc 6 194 0
	mr 3,28
	bl _ZdaPv
.LVL793:
.L433:
	.loc 6 197 0
	stw 24,52(1)
	.loc 6 199 0
	li 28,0
	.loc 6 198 0
	stw 24,40(1)
	.loc 6 199 0
	stw 24,44(1)
	b .L430
.LVL794:
.L693:
.LBE2861:
.LBE2860:
.LBE2864:
.LBE2867:
.LBE2870:
.LBE2883:
.LBE2891:
.LBE2905:
.LBE2916:
.LBE3480:
.LBB3481:
.LBB3013:
.LBB3001:
.LBB2986:
.LBB2977:
.LBB2963:
.LBB2960:
.LBB2957:
.LBB2953:
.LBB2954:
	.loc 6 193 0
	cmpwi 7,28,0
	beq- 7,.L456
	.loc 6 194 0
	mr 3,28
	bl _ZdaPv
.LVL795:
.L456:
	.loc 6 197 0
	stw 24,36(1)
	.loc 6 199 0
	li 28,0
	.loc 6 198 0
	stw 24,24(1)
	.loc 6 199 0
	stw 24,28(1)
	b .L453
.LVL796:
.L737:
.LBE2954:
.LBE2953:
.LBE2957:
.LBE2960:
.LBE2963:
.LBE2977:
.LBE2986:
.LBE3001:
.LBE3013:
.LBE3481:
.LBB3482:
.LBB3302:
.LBB3290:
.LBB3278:
.LBB3271:
.LBB3261:
.LBB3258:
.LBB3255:
	.loc 6 380 0
	lwz 11,280(1)
	slwi 9,25,2
	addi 26,25,1
.LVL797:
	add 9,11,9
	b .L515
.LVL798:
.L720:
.LBE3255:
.LBE3258:
.LBE3261:
.LBE3271:
.LBE3278:
.LBE3290:
.LBE3302:
.LBE3482:
.LBB3483:
.LBB3226:
.LBB3213:
.LBB3198:
.LBB3189:
.LBB3180:
.LBB3173:
	.loc 6 392 0
	li 28,16
.LVL799:
	b .L666
.LVL800:
.L723:
.LBE3173:
.LBE3180:
.LBE3189:
.LBE3198:
.LBE3213:
.LBE3226:
.LBE3483:
.LBB3484:
.LBB3014:
.LBB3002:
.LBB2987:
.LBB2978:
.LBB2972:
	.loc 6 388 0
	stw 0,24(1)
	b .L450
.LVL801:
.L733:
.LBE2972:
.LBE2978:
.LBE2987:
.LBE3002:
.LBE3014:
.LBE3484:
.LBB3485:
.LBB3127:
.LBB3114:
.LBB3098:
.LBB3088:
.LBB3082:
	stw 3,8(1)
	b .L473
.LVL802:
.L728:
.LBE3082:
.LBE3088:
.LBE3098:
.LBE3114:
.LBE3127:
.LBE3485:
.LBB3486:
.LBB2917:
.LBB2906:
.LBB2892:
.LBB2884:
.LBB2878:
	stw 3,40(1)
	b .L427
.LVL803:
.L742:
.LBE2878:
.LBE2884:
.LBE2892:
.LBE2906:
.LBE2917:
.LBE3486:
.LBB3487:
.LBB3303:
.LBB3291:
.LBB3279:
.LBB3272:
.LBB3267:
	.loc 6 392 0
	li 26,16
.LVL804:
	b .L667
.LVL805:
.L744:
.LBE3267:
.LBE3272:
.LBE3279:
.LBE3291:
.LBE3303:
.LBE3487:
.LBB3488:
.LBB2832:
.LBB2822:
.LBB2810:
.LBB2804:
.LBB2801:
	.loc 6 380 0
	lwz 0,56(1)
	b .L400
.LVL806:
.L713:
.LBE2801:
.LBE2804:
.LBE2810:
.LBE2822:
.LBE2832:
.LBE3488:
.LBB3489:
.LBB3379:
.LBB3371:
.LBB3360:
.LBB3349:
.LBB3344:
.LBB3340:
.LBB3341:
	.loc 6 198 0
	stw 30,932(31)
	.loc 6 199 0
	li 10,0
	stw 30,936(31)
	li 9,0
	b .L536
.LVL807:
.L702:
.LBE3341:
.LBE3340:
.LBE3344:
.LBE3349:
.LBE3360:
.LBE3371:
.LBE3379:
.LBE3489:
.LBB3490:
.LBB3227:
.LBB3214:
.LBB3199:
.LBB3190:
.LBB3181:
.LBB3166:
.LBB3163:
.LBB3160:
.LBB3156:
.LBB3157:
	.loc 6 193 0
	lwz 9,284(1)
	mtcrf 128,9
	beq- 0,.L498
	.loc 6 194 0
	mr 3,17
	bl _ZdaPv
.L498:
.LVL808:
.LBE3157:
.LBE3156:
	.loc 6 380 0
	li 28,1
	li 9,0
	.loc 6 199 0
	li 26,0
	.loc 6 197 0
	li 17,0
	stw 20,284(1)
	b .L496
.LVL809:
.L704:
	mr. 17,19
.LVL810:
	.loc 6 398 0
	slwi 9,28,3
	add 9,19,9
	addi 28,28,1
	mfcr 0
	mr 26,22
.LVL811:
	stw 0,284(1)
	b .L496
.LVL812:
.L747:
.LBE3160:
.LBE3163:
.LBE3166:
.LBE3181:
.LBE3190:
.LBE3199:
.LBE3214:
.LBE3227:
.LBE3490:
.LBB3491:
.LBB3380:
.LBB3372:
.LBB3361:
.LBB3350:
.LBB3345:
	.loc 6 393 0
	lwz 9,936(31)
	b .L534
.LVL813:
.L740:
.LBE3345:
.LBE3350:
.LBE3361:
.LBE3372:
.LBE3380:
.LBE3491:
.LBB3492:
.LBB2833:
.LBB2823:
.LBB2811:
.LBB2805:
.LBB2793:
.LBB2790:
.LBB2787:
.LBB2783:
.LBB2784:
	.loc 6 193 0
	cmpwi 7,28,0
	beq- 7,.L410
	.loc 6 194 0
	mr 3,28
	bl _ZdaPv
.LVL814:
.L410:
	.loc 6 197 0
	stw 24,68(1)
	.loc 6 199 0
	li 28,0
	.loc 6 198 0
	stw 24,56(1)
	.loc 6 199 0
	stw 24,60(1)
	b .L407
.LVL815:
.L736:
.LBE2784:
.LBE2783:
.LBE2787:
.LBE2790:
.LBE2793:
.LBE2805:
.LBE2811:
.LBE2823:
.LBE2833:
.LBE3492:
.LBB3493:
.LBB3304:
.LBB3292:
.LBB3280:
.LBB3273:
.LBB3262:
.LBB3259:
.LBB3256:
.LBB3252:
.LBB3253:
	.loc 6 193 0
	lwz 0,288(1)
	mtcrf 128,0
	beq- 0,.L517
	.loc 6 194 0
	lwz 3,280(1)
	bl _ZdaPv
.L517:
.LVL816:
.LBE3253:
.LBE3252:
	.loc 6 197 0
	li 11,0
	.loc 6 380 0
	li 26,1
	li 9,0
	.loc 6 199 0
	li 25,0
	.loc 6 197 0
	stw 11,280(1)
	stw 23,288(1)
	b .L515
.LVL817:
.L738:
	mr. 11,22
	.loc 6 398 0
	slwi 9,26,2
	add 9,22,9
	addi 26,26,1
	mfcr 0
	mr 25,24
.LVL818:
	stw 11,280(1)
	stw 0,288(1)
	b .L515
.LVL819:
.L727:
.LBE3256:
.LBE3259:
.LBE3262:
.LBE3273:
.LBE3280:
.LBE3292:
.LBE3304:
.LBE3493:
.LBB3494:
.LBB2918:
.LBB2907:
.LBB2893:
.LBB2885:
.LBB2879:
	.loc 6 380 0
	lwz 0,40(1)
	b .L423
.LVL820:
.L732:
.LBE2879:
.LBE2885:
.LBE2893:
.LBE2907:
.LBE2918:
.LBE3494:
.LBB3495:
.LBB3128:
.LBB3115:
.LBB3099:
.LBB3089:
.LBB3083:
	lwz 0,8(1)
	b .L469
.LVL821:
.L722:
.LBE3083:
.LBE3089:
.LBE3099:
.LBE3115:
.LBE3128:
.LBE3495:
.LBB3496:
.LBB3015:
.LBB3003:
.LBB2988:
.LBB2979:
.LBB2973:
	lwz 0,24(1)
.LVL822:
	b .L446
.LVL823:
.L610:
	mr. 9,3
.LBE2973:
.LBE2979:
.LBE2988:
.LBE3003:
.LBE3015:
.LBE3496:
.LBB3497:
.LBB3305:
.LBB3293:
.LBB3281:
.LBB3274:
.LBB3268:
	.loc 6 386 0
	li 25,16
	mfcr 11
	stw 9,280(1)
	stw 11,288(1)
	b .L512
.LVL824:
.L731:
.LBE3268:
.LBE3274:
.LBE3281:
.LBE3293:
.LBE3305:
.LBE3497:
.LBB3498:
.LBB3129:
.LBB3116:
.LBB3100:
.LBB3090:
.LBB3084:
.LBB3079:
.LBB3080:
	.loc 6 198 0
	stw 28,8(1)
	.loc 6 199 0
	li 10,0
	stw 28,12(1)
	li 0,0
	b .L471
.LVL825:
.L726:
.LBE3080:
.LBE3079:
.LBE3084:
.LBE3090:
.LBE3100:
.LBE3116:
.LBE3129:
.LBE3498:
.LBB3499:
.LBB2919:
.LBB2908:
.LBB2894:
.LBB2886:
.LBB2880:
.LBB2875:
.LBB2876:
	.loc 6 198 0
	stw 28,40(1)
	.loc 6 199 0
	li 10,0
	stw 28,44(1)
	li 0,0
	b .L425
.LVL826:
.L721:
.LBE2876:
.LBE2875:
.LBE2880:
.LBE2886:
.LBE2894:
.LBE2908:
.LBE2919:
.LBE3499:
.LBB3500:
.LBB3016:
.LBB3004:
.LBB2989:
.LBB2980:
.LBB2974:
.LBB2969:
.LBB2970:
	.loc 6 198 0
	stw 28,24(1)
	.loc 6 199 0
	li 9,0
	stw 28,28(1)
	li 10,0
	b .L448
.LVL827:
.L608:
	mr. 17,3
.LBE2970:
.LBE2969:
.LBE2974:
.LBE2980:
.LBE2989:
.LBE3004:
.LBE3016:
.LBE3500:
.LBB3501:
.LBB3228:
.LBB3215:
.LBB3200:
.LBB3191:
.LBB3182:
.LBB3174:
	.loc 6 386 0
	li 26,16
	mfcr 0
	stw 0,284(1)
	b .L493
.LVL828:
.L749:
.LBE3174:
.LBE3182:
.LBE3191:
.LBE3200:
.LBE3215:
.LBE3228:
.LBE3501:
.LBB3502:
.LBB2920:
.LBB2909:
.LBB2895:
.LBB2887:
.LBB2881:
	.loc 6 393 0
	lwz 9,44(1)
	b .L423
.LVL829:
.L750:
.LBE2881:
.LBE2887:
.LBE2895:
.LBE2909:
.LBE2920:
.LBE3502:
.LBB3503:
.LBB3130:
.LBB3117:
.LBB3101:
.LBB3091:
.LBB3085:
	lwz 9,12(1)
	b .L469
.LVL830:
.L748:
.LBE3085:
.LBE3091:
.LBE3101:
.LBE3117:
.LBE3130:
.LBE3503:
.LBB3504:
.LBB3017:
.LBB3005:
.LBB2990:
.LBB2981:
.LBB2975:
	lwz 9,28(1)
	b .L446
.LVL831:
.L743:
.LBE2975:
.LBE2981:
.LBE2990:
.LBE3005:
.LBE3017:
.LBE3504:
.LBB3505:
.LBB2834:
.LBB2824:
.LBB2812:
.LBB2806:
.LBB2802:
.LBB2798:
.LBB2799:
	.loc 6 198 0
	stw 28,56(1)
	.loc 6 199 0
	li 11,0
	stw 28,60(1)
	li 0,0
	b .L402
.LVL832:
.L751:
.LBE2799:
.LBE2798:
	.loc 6 393 0
	lwz 9,60(1)
	b .L400
.LVL833:
.L629:
	mr 31,3
.LVL834:
.LBE2802:
.LBE2806:
.LBE2812:
.LBE2824:
.LBE2834:
.LBE3505:
.LBB3506:
.LBB3131:
.LBB3118:
.LBB3119:
.LBB3120:
.LBB3121:
.LBB3122:
	.loc 4 501 0
	mr 3,30
	bl _ZN5idStr8FreeDataEv
.LVL835:
.L579:
.LBE3122:
.LBE3121:
.LBE3120:
.LBE3119:
.LBE3118:
	.loc 3 351 0
	mr 3,29
	addi 15,1,56
	bl _ZN8idParserD1Ev
	addi 25,1,24
.LVL836:
.L580:
.LBE3131:
.LBE3506:
.LBB3507:
.LBB3508:
.LBB3509:
	.loc 6 181 0
	addi 3,1,8
	bl _ZN6idListIiE5ClearEv
.LVL837:
.L575:
.LBE3509:
.LBE3508:
.LBE3507:
.LBB3510:
.LBB3511:
.LBB3512:
	mr 3,25
	bl _ZN6idListIiE5ClearEv
.LVL838:
.L566:
.LBE3512:
.LBE3511:
.LBE3510:
.LBB3513:
.LBB3514:
.LBB3515:
	addi 3,1,40
	bl _ZN6idListIiE5ClearEv
.LVL839:
.LBE3515:
.LBE3514:
.LBE3513:
.LBB3516:
.LBB3517:
.LBB3518:
	mr 3,15
	bl _ZN6idListIiE5ClearEv
	mr 3,31
.LEHB57:
	bl _Unwind_Resume
.LEHE57:
.LVL840:
.L627:
.L687:
	mr 31,3
.LVL841:
	addi 15,1,56
	addi 25,1,24
	b .L580
.LVL842:
.L633:
	mr 31,3
.LVL843:
.L590:
.LBE3518:
.LBE3517:
.LBE3516:
.LBB3519:
.LBB3520:
.LBB3521:
.LBB3522:
	.loc 6 193 0
	lwz 0,288(1)
	mtcrf 128,0
	beq- 0,.L585
	.loc 6 194 0
	lwz 3,280(1)
	bl _ZdaPv
.LVL844:
.L585:
.LBE3522:
.LBE3521:
.LBE3520:
.LBE3519:
.LBB3523:
.LBB3524:
.LBB3525:
.LBB3526:
	.loc 6 193 0
	lwz 0,284(1)
	mtcrf 128,0
	beq- 0,.L580
	.loc 6 194 0
	mr 3,17
	bl _ZdaPv
	b .L580
.LVL845:
.L628:
	mr 31,3
.LVL846:
	b .L579
.LVL847:
.L622:
	mr 31,3
.LVL848:
.L570:
.LBE3526:
.LBE3525:
.LBE3524:
.LBE3523:
.LBB3527:
.LBB2921:
	.loc 3 328 0
	mr 3,29
	addi 15,1,56
	bl _ZN8idParserD1Ev
	b .L566
.LVL849:
.L625:
	mr 31,3
.LVL850:
.L574:
.LBE2921:
.LBE3527:
.LBB3528:
.LBB3018:
	.loc 3 339 0
	mr 3,29
	addi 15,1,56
	bl _ZN8idParserD1Ev
	addi 25,1,24
	b .L575
.LVL851:
.L624:
	mr 31,3
.LVL852:
	addi 15,1,56
	addi 25,1,24
	b .L575
.LVL853:
.L619:
	mr 31,3
.LVL854:
	addi 15,1,56
	b .L566
.LVL855:
.L630:
.L686:
	mr 31,3
.LVL856:
	addi 15,1,56
	addi 25,1,24
	b .L585
.LVL857:
.L631:
	mr 31,3
.LVL858:
.L584:
.LBE3018:
.LBE3528:
.LBB3529:
.LBB3229:
	.loc 3 369 0
	mr 3,29
	addi 15,1,56
	bl _ZN8idParserD1Ev
	addi 25,1,24
	b .L585
.LVL859:
.L632:
	mr 31,3
.LVL860:
.LBB3216:
.LBB3217:
.LBB3218:
.LBB3219:
.LBB3220:
	.loc 4 501 0
	mr 3,30
	bl _ZN5idStr8FreeDataEv
	b .L584
.LVL861:
.L636:
	b .L687
.LVL862:
.L637:
	b .L686
.LVL863:
.L635:
	mr 31,3
.LVL864:
.LBE3220:
.LBE3219:
.LBE3218:
.LBE3217:
.LBE3216:
.LBE3229:
.LBE3529:
.LBB3530:
.LBB3306:
.LBB3294:
.LBB3295:
.LBB3296:
.LBB3297:
.LBB3298:
	mr 3,30
	bl _ZN5idStr8FreeDataEv
.LVL865:
.L589:
.LBE3298:
.LBE3297:
.LBE3296:
.LBE3295:
.LBE3294:
	.loc 3 381 0
	mr 3,29
	addi 15,1,56
	bl _ZN8idParserD1Ev
	addi 25,1,24
	b .L590
.LVL866:
.L626:
	mr 31,3
.LVL867:
.LBE3306:
.LBE3530:
.LBB3531:
.LBB3019:
.LBB3006:
.LBB3007:
.LBB3008:
.LBB3009:
.LBB3010:
	.loc 4 501 0
	mr 3,30
	bl _ZN5idStr8FreeDataEv
	b .L574
.LVL868:
.L623:
	mr 31,3
.LVL869:
.LBE3010:
.LBE3009:
.LBE3008:
.LBE3007:
.LBE3006:
.LBE3019:
.LBE3531:
.LBB3532:
.LBB2922:
.LBB2910:
.LBB2911:
.LBB2912:
.LBB2913:
.LBB2914:
	mr 3,30
	bl _ZN5idStr8FreeDataEv
	b .L570
.LVL870:
.L634:
	mr 31,3
.LVL871:
	b .L589
.LVL872:
.L621:
	mr 31,3
.LVL873:
.LBE2914:
.LBE2913:
.LBE2912:
.LBE2911:
.LBE2910:
.LBE2922:
.LBE3532:
.LBB3533:
.LBB2835:
.LBB2825:
.LBB2826:
.LBB2827:
.LBB2828:
.LBB2829:
	mr 3,30
	bl _ZN5idStr8FreeDataEv
.LVL874:
.L565:
.LBE2829:
.LBE2828:
.LBE2827:
.LBE2826:
.LBE2825:
	.loc 3 318 0
	mr 3,29
	addi 15,1,56
	bl _ZN8idParserD1Ev
	b .L566
.LVL875:
.L620:
	mr 31,3
.LVL876:
	b .L565
.LBE2835:
.LBE3533:
.LBE3534:
	.cfi_endproc
.LFE2866:
	.section	.gcc_except_table
.LLSDA2866:
	.byte	0xff
	.byte	0xff
	.byte	0x1
	.uleb128 .LLSDACSE2866-.LLSDACSB2866
.LLSDACSB2866:
	.uleb128 .LEHB24-.LFB2866
	.uleb128 .LEHE24-.LEHB24
	.uleb128 0
	.uleb128 0
	.uleb128 .LEHB25-.LFB2866
	.uleb128 .LEHE25-.LEHB25
	.uleb128 .L619-.LFB2866
	.uleb128 0
	.uleb128 .LEHB26-.LFB2866
	.uleb128 .LEHE26-.LEHB26
	.uleb128 .L623-.LFB2866
	.uleb128 0
	.uleb128 .LEHB27-.LFB2866
	.uleb128 .LEHE27-.LEHB27
	.uleb128 .L622-.LFB2866
	.uleb128 0
	.uleb128 .LEHB28-.LFB2866
	.uleb128 .LEHE28-.LEHB28
	.uleb128 .L619-.LFB2866
	.uleb128 0
	.uleb128 .LEHB29-.LFB2866
	.uleb128 .LEHE29-.LEHB29
	.uleb128 .L624-.LFB2866
	.uleb128 0
	.uleb128 .LEHB30-.LFB2866
	.uleb128 .LEHE30-.LEHB30
	.uleb128 .L626-.LFB2866
	.uleb128 0
	.uleb128 .LEHB31-.LFB2866
	.uleb128 .LEHE31-.LEHB31
	.uleb128 .L625-.LFB2866
	.uleb128 0
	.uleb128 .LEHB32-.LFB2866
	.uleb128 .LEHE32-.LEHB32
	.uleb128 .L624-.LFB2866
	.uleb128 0
	.uleb128 .LEHB33-.LFB2866
	.uleb128 .LEHE33-.LEHB33
	.uleb128 .L627-.LFB2866
	.uleb128 0
	.uleb128 .LEHB34-.LFB2866
	.uleb128 .LEHE34-.LEHB34
	.uleb128 .L629-.LFB2866
	.uleb128 0
	.uleb128 .LEHB35-.LFB2866
	.uleb128 .LEHE35-.LEHB35
	.uleb128 .L628-.LFB2866
	.uleb128 0
	.uleb128 .LEHB36-.LFB2866
	.uleb128 .LEHE36-.LEHB36
	.uleb128 .L627-.LFB2866
	.uleb128 0
	.uleb128 .LEHB37-.LFB2866
	.uleb128 .LEHE37-.LEHB37
	.uleb128 .L636-.LFB2866
	.uleb128 0
	.uleb128 .LEHB38-.LFB2866
	.uleb128 .LEHE38-.LEHB38
	.uleb128 .L632-.LFB2866
	.uleb128 0
	.uleb128 .LEHB39-.LFB2866
	.uleb128 .LEHE39-.LEHB39
	.uleb128 .L631-.LFB2866
	.uleb128 0
	.uleb128 .LEHB40-.LFB2866
	.uleb128 .LEHE40-.LEHB40
	.uleb128 .L630-.LFB2866
	.uleb128 0
	.uleb128 .LEHB41-.LFB2866
	.uleb128 .LEHE41-.LEHB41
	.uleb128 .L633-.LFB2866
	.uleb128 0
	.uleb128 .LEHB42-.LFB2866
	.uleb128 .LEHE42-.LEHB42
	.uleb128 .L637-.LFB2866
	.uleb128 0
	.uleb128 .LEHB43-.LFB2866
	.uleb128 .LEHE43-.LEHB43
	.uleb128 .L635-.LFB2866
	.uleb128 0
	.uleb128 .LEHB44-.LFB2866
	.uleb128 .LEHE44-.LEHB44
	.uleb128 .L632-.LFB2866
	.uleb128 0
	.uleb128 .LEHB45-.LFB2866
	.uleb128 .LEHE45-.LEHB45
	.uleb128 .L626-.LFB2866
	.uleb128 0
	.uleb128 .LEHB46-.LFB2866
	.uleb128 .LEHE46-.LEHB46
	.uleb128 .L623-.LFB2866
	.uleb128 0
	.uleb128 .LEHB47-.LFB2866
	.uleb128 .LEHE47-.LEHB47
	.uleb128 .L629-.LFB2866
	.uleb128 0
	.uleb128 .LEHB48-.LFB2866
	.uleb128 .LEHE48-.LEHB48
	.uleb128 .L635-.LFB2866
	.uleb128 0
	.uleb128 .LEHB49-.LFB2866
	.uleb128 .LEHE49-.LEHB49
	.uleb128 .L634-.LFB2866
	.uleb128 0
	.uleb128 .LEHB50-.LFB2866
	.uleb128 .LEHE50-.LEHB50
	.uleb128 .L633-.LFB2866
	.uleb128 0
	.uleb128 .LEHB51-.LFB2866
	.uleb128 .LEHE51-.LEHB51
	.uleb128 .L619-.LFB2866
	.uleb128 0
	.uleb128 .LEHB52-.LFB2866
	.uleb128 .LEHE52-.LEHB52
	.uleb128 .L621-.LFB2866
	.uleb128 0
	.uleb128 .LEHB53-.LFB2866
	.uleb128 .LEHE53-.LEHB53
	.uleb128 .L620-.LFB2866
	.uleb128 0
	.uleb128 .LEHB54-.LFB2866
	.uleb128 .LEHE54-.LEHB54
	.uleb128 .L619-.LFB2866
	.uleb128 0
	.uleb128 .LEHB55-.LFB2866
	.uleb128 .LEHE55-.LEHB55
	.uleb128 .L635-.LFB2866
	.uleb128 0
	.uleb128 .LEHB56-.LFB2866
	.uleb128 .LEHE56-.LEHB56
	.uleb128 .L621-.LFB2866
	.uleb128 0
	.uleb128 .LEHB57-.LFB2866
	.uleb128 .LEHE57-.LEHB57
	.uleb128 0
	.uleb128 0
.LLSDACSE2866:
	.section	".text"
	.size	_ZN12idListWindow9PostParseEv, .-_ZN12idListWindow9PostParseEv
	.section	.text._ZN11idHashTableIPK10idMaterialED2Ev,"axG",@progbits,_ZN11idHashTableIPK10idMaterialED5Ev,comdat
	.align 2
	.weak	_ZN11idHashTableIPK10idMaterialED2Ev
	.type	_ZN11idHashTableIPK10idMaterialED2Ev, @function
_ZN11idHashTableIPK10idMaterialED2Ev:
.LFB3088:
	.loc 7 145 0
	.cfi_startproc
.LVL877:
	mflr 0
	stwu 1,-32(1)
.LCFI51:
	.cfi_def_cfa_offset 32
	.cfi_register 65, 0
	stw 27,12(1)
	mr 27,3
	.cfi_offset 27, -20
.LVL878:
	stw 0,36(1)
	stw 26,8(1)
	stw 28,16(1)
	stw 29,20(1)
	stw 30,24(1)
	stw 31,28(1)
.LBB3544:
.LBB3545:
.LBB3546:
	.loc 7 315 0
	lwz 0,4(3)
	.cfi_offset 31, -4
	.cfi_offset 30, -8
	.cfi_offset 29, -12
	.cfi_offset 28, -16
	.cfi_offset 26, -24
	.cfi_offset 65, 4
	cmpwi 7,0,0
	ble- 7,.L753
.LVL879:
	li 29,0
	.loc 7 323 0
	li 26,0
.LVL880:
.L758:
	.loc 7 316 0
	lwz 9,0(27)
	.loc 7 145 0
	slwi 28,29,2
	.loc 7 316 0
	lwzx 31,9,28
.LVL881:
	add 9,9,28
	.loc 7 317 0
	cmpwi 7,31,0
	beq- 7,.L754
.LVL882:
.L762:
	.loc 7 319 0
	lwz 30,36(31)
.LVL883:
.LBB3547:
.LBB3548:
.LBB3549:
.LBB3550:
.LBB3551:
.LBB3552:
	.loc 4 501 0
	mr 3,31
	bl _ZN5idStr8FreeDataEv
.LVL884:
.LBE3552:
.LBE3551:
.LBE3550:
.LBE3549:
.LBE3548:
.LBE3547:
	.loc 7 320 0
	mr 3,31
	bl _ZdlPv
	.loc 7 317 0
	cmpwi 7,30,0
	mr 31,30
.LVL885:
	bne+ 7,.L762
	lwz 9,0(27)
	add 9,9,28
.LVL886:
.L754:
	.loc 7 323 0
	stw 26,0(9)
	.loc 7 315 0
	addi 29,29,1
.LVL887:
	lwz 0,4(27)
	cmpw 7,29,0
	blt+ 7,.L758
.LVL888:
.L753:
.LBE3546:
.LBE3545:
	.loc 7 147 0
	lwz 3,0(27)
.LBB3554:
.LBB3553:
	.loc 7 326 0
	li 0,0
	stw 0,8(27)
.LBE3553:
.LBE3554:
	.loc 7 147 0
	cmpwi 7,3,0
	beq- 7,.L752
	.loc 7 147 0 is_stmt 0 discriminator 1
	bl _ZdaPv
.L752:
.LBE3544:
	.loc 7 148 0 is_stmt 1
	lwz 0,36(1)
	lwz 26,8(1)
	mtlr 0
	lwz 27,12(1)
.LVL889:
	lwz 28,16(1)
	lwz 29,20(1)
	lwz 30,24(1)
	lwz 31,28(1)
	addi 1,1,32
.LCFI52:
	.cfi_def_cfa_offset 0
	.cfi_restore 31
	.cfi_restore 30
	.cfi_restore 29
	.cfi_restore 28
	.cfi_restore 27
	.cfi_restore 26
	blr
	.cfi_endproc
.LFE3088:
	.size	_ZN11idHashTableIPK10idMaterialED2Ev, .-_ZN11idHashTableIPK10idMaterialED2Ev
	.section	.text._ZN6idListI5idStrE5ClearEv,"axG",@progbits,_ZN6idListI5idStrE5ClearEv,comdat
	.align 2
	.weak	_ZN6idListI5idStrE5ClearEv
	.type	_ZN6idListI5idStrE5ClearEv, @function
_ZN6idListI5idStrE5ClearEv:
.LFB3116:
	.loc 6 192 0
	.cfi_startproc
.LVL890:
	mflr 0
	stwu 1,-16(1)
.LCFI53:
	.cfi_def_cfa_offset 16
	.cfi_register 65, 0
	stw 30,8(1)
	mr 30,3
	.cfi_offset 30, -8
	stw 0,20(1)
	stw 31,12(1)
	.loc 6 193 0
	lwz 3,12(3)
.LVL891:
	cmpwi 7,3,0
	beq- 7,.L764
	.cfi_offset 31, -4
	.cfi_offset 65, 4
	.loc 6 194 0 discriminator 1
	lwz 31,-4(3)
	slwi 31,31,5
	add 31,3,31
	cmpw 7,3,31
	beq- 7,.L765
.L769:
	.loc 6 194 0 is_stmt 0 discriminator 4
	addi 31,31,-32
.LVL892:
.LBB3558:
.LBB3559:
.LBB3560:
	.loc 4 501 0 is_stmt 1 discriminator 4
	mr 3,31
	bl _ZN5idStr8FreeDataEv
.LBE3560:
.LBE3559:
.LBE3558:
	.loc 6 194 0 discriminator 4
	lwz 3,12(30)
	cmpw 7,3,31
	bne+ 7,.L769
.LVL893:
.L765:
	.loc 6 194 0 is_stmt 0 discriminator 3
	addi 3,3,-4
	bl _ZdaPv
.L764:
	.loc 6 197 0 is_stmt 1
	li 0,0
	stw 0,12(30)
	.loc 6 198 0
	stw 0,0(30)
	.loc 6 199 0
	stw 0,4(30)
	.loc 6 200 0
	lwz 0,20(1)
	lwz 30,8(1)
.LVL894:
	mtlr 0
	lwz 31,12(1)
	addi 1,1,16
.LCFI54:
	.cfi_def_cfa_offset 0
	.cfi_restore 31
	.cfi_restore 30
	blr
	.cfi_endproc
.LFE3116:
	.size	_ZN6idListI5idStrE5ClearEv, .-_ZN6idListI5idStrE5ClearEv
	.section	.text._ZN6idListI9idTabRectE5ClearEv,"axG",@progbits,_ZN6idListI9idTabRectE5ClearEv,comdat
	.align 2
	.weak	_ZN6idListI9idTabRectE5ClearEv
	.type	_ZN6idListI9idTabRectE5ClearEv, @function
_ZN6idListI9idTabRectE5ClearEv:
.LFB3156:
	.loc 6 192 0
	.cfi_startproc
.LVL895:
	mflr 0
	stwu 1,-16(1)
.LCFI55:
	.cfi_def_cfa_offset 16
	.cfi_register 65, 0
	stw 31,12(1)
	mr 31,3
	.cfi_offset 31, -4
	stw 0,20(1)
	.loc 6 193 0
	lwz 3,12(3)
.LVL896:
	cmpwi 7,3,0
	beq- 7,.L771
	.cfi_offset 65, 4
	.loc 6 194 0 discriminator 1
	bl _ZdaPv
.L771:
	.loc 6 197 0
	li 0,0
	stw 0,12(31)
	.loc 6 198 0
	stw 0,0(31)
	.loc 6 199 0
	stw 0,4(31)
	.loc 6 200 0
	lwz 0,20(1)
	lwz 31,12(1)
.LVL897:
	mtlr 0
	addi 1,1,16
.LCFI56:
	.cfi_def_cfa_offset 0
	.cfi_restore 31
	blr
	.cfi_endproc
.LFE3156:
	.size	_ZN6idListI9idTabRectE5ClearEv, .-_ZN6idListI9idTabRectE5ClearEv
	.section	.text._ZN12idListWindowD2Ev,"axG",@progbits,_ZN12idListWindowD5Ev,comdat
	.align 2
	.weak	_ZN12idListWindowD2Ev
	.type	_ZN12idListWindowD2Ev, @function
_ZN12idListWindowD2Ev:
.LFB3174:
	.loc 9 48 0
	.cfi_startproc
	.cfi_personality 0,__gxx_personality_v0
	.cfi_lsda 0,.LLSDA3174
.LVL898:
	mflr 0
	stwu 1,-40(1)
.LCFI57:
	.cfi_def_cfa_offset 40
	.cfi_register 65, 0
.LBB3709:
	lis 9,_ZTV12idListWindow+8@ha
.LBE3709:
	stw 28,24(1)
	mr 28,3
	.cfi_offset 28, -16
	stw 0,44(1)
.LBB3848:
	la 0,_ZTV12idListWindow+8@l(9)
	.cfi_offset 65, 4
.LBE3848:
	stw 25,12(1)
	stw 26,16(1)
	stw 27,20(1)
	stw 29,28(1)
	stw 30,32(1)
	stw 31,36(1)
.LBB3849:
	.loc 9 48 0
	stw 0,0(3)
.LVL899:
.LBB3710:
.LBB3711:
.LBB3712:
	.loc 4 501 0
	addi 3,3,1248
.LVL900:
.LEHB58:
	.cfi_offset 31, -4
	.cfi_offset 30, -8
	.cfi_offset 29, -12
	.cfi_offset 27, -20
	.cfi_offset 26, -24
	.cfi_offset 25, -28
	bl _ZN5idStr8FreeDataEv
.LEHE58:
.LVL901:
.LBE3712:
.LBE3711:
.LBE3710:
.LBB3713:
.LBB3714:
.LBB3715:
	.loc 4 501 0 is_stmt 0 discriminator 1
	addi 3,28,1208
.LEHB59:
	bl _ZN5idStr8FreeDataEv
.LEHE59:
.LVL902:
.LBE3715:
.LBE3714:
.LBE3713:
.LBB3716:
.LBB3717:
.LBB3718:
.LBB3719:
	.loc 6 193 0 is_stmt 1 discriminator 2
	lwz 3,1204(28)
	cmpwi 7,3,0
	beq- 7,.L775
	.loc 6 194 0
	bl _ZdaPv
.L775:
.LBE3719:
.LBE3718:
.LBE3717:
.LBE3716:
.LBB3726:
.LBB3727:
.LBB3728:
.LBB3729:
	.loc 6 193 0
	lwz 3,1184(28)
.LBE3729:
.LBE3728:
.LBE3727:
.LBE3726:
.LBB3745:
.LBB3724:
.LBB3722:
.LBB3720:
	.loc 6 197 0
	li 0,0
	stw 0,1204(28)
.LBE3720:
.LBE3722:
.LBE3724:
.LBE3745:
.LBB3746:
.LBB3741:
.LBB3737:
.LBB3733:
	.loc 6 193 0
	cmpwi 7,3,0
.LBE3733:
.LBE3737:
.LBE3741:
.LBE3746:
.LBB3747:
.LBB3725:
.LBB3723:
.LBB3721:
	.loc 6 198 0
	stw 0,1192(28)
	.loc 6 199 0
	stw 0,1196(28)
.LVL903:
.LBE3721:
.LBE3723:
.LBE3725:
.LBE3747:
.LBB3748:
.LBB3742:
.LBB3738:
.LBB3734:
	.loc 6 193 0
	beq- 7,.L777
	.loc 6 194 0
	lwz 31,-4(3)
	slwi 31,31,5
	add 31,3,31
	b .L778
.L830:
	addi 31,31,-32
.LVL904:
.LBB3730:
.LBB3731:
.LBB3732:
	.loc 4 501 0
	mr 3,31
.LEHB60:
	bl _ZN5idStr8FreeDataEv
.LEHE60:
	lwz 3,1184(28)
.LVL905:
.L778:
.LBE3732:
.LBE3731:
.LBE3730:
	.loc 6 194 0
	cmpw 7,3,31
	bne+ 7,.L830
	addi 3,3,-4
	bl _ZdaPv
.L777:
.LBE3734:
.LBE3738:
.LBE3742:
.LBE3748:
.LBB3749:
.LBB3750:
.LBB3751:
.LBB3752:
.LBB3753:
	.loc 7 315 0
	lwz 9,1156(28)
.LBE3753:
.LBE3752:
.LBE3751:
.LBE3750:
.LBE3749:
.LBB3788:
.LBB3743:
.LBB3739:
.LBB3735:
	.loc 6 197 0
	li 0,0
	stw 0,1184(28)
.LBE3735:
.LBE3739:
.LBE3743:
.LBE3788:
	.loc 9 48 0
	addi 26,28,1152
.LVL906:
.LBB3789:
.LBB3786:
.LBB3784:
.LBB3781:
.LBB3778:
	.loc 7 315 0
	cmpwi 7,9,0
.LBE3778:
.LBE3781:
.LBE3784:
.LBE3786:
.LBE3789:
.LBB3790:
.LBB3744:
.LBB3740:
.LBB3736:
	.loc 6 198 0
	stw 0,1172(28)
	.loc 6 199 0
	stw 0,1176(28)
.LBE3736:
.LBE3740:
.LBE3744:
.LBE3790:
.LBB3791:
.LBB3787:
.LBB3785:
.LBB3782:
.LBB3779:
	.loc 7 315 0
	ble- 7,.L781
	li 29,0
	.loc 7 323 0
	li 25,0
.LVL907:
.L786:
	.loc 7 316 0
	lwz 9,0(26)
	.loc 9 48 0
	slwi 27,29,2
	.loc 7 316 0
	lwzx 31,9,27
.LVL908:
	add 9,9,27
	.loc 7 317 0
	cmpwi 7,31,0
	beq- 7,.L782
.LVL909:
.LBB3754:
.LBB3755:
.LBB3756:
.LBB3757:
.LBB3758:
.LBB3759:
	.loc 4 501 0
	mr 3,31
.LBE3759:
.LBE3758:
.LBE3757:
.LBE3756:
.LBE3755:
.LBE3754:
	.loc 7 319 0
	lwz 30,36(31)
.LVL910:
.LEHB61:
.LBB3775:
.LBB3772:
.LBB3769:
.LBB3766:
.LBB3763:
.LBB3760:
	.loc 4 501 0
	bl _ZN5idStr8FreeDataEv
.LVL911:
.LBE3760:
.LBE3763:
.LBE3766:
.LBE3769:
.LBE3772:
.LBE3775:
	.loc 7 320 0
	mr 3,31
	bl _ZdlPv
	.loc 7 317 0
	cmpwi 7,30,0
	beq- 7,.L831
.L817:
	mr 31,30
.LVL912:
.LBB3776:
.LBB3773:
.LBB3770:
.LBB3767:
.LBB3764:
.LBB3761:
	.loc 4 501 0
	mr 3,31
.LBE3761:
.LBE3764:
.LBE3767:
.LBE3770:
.LBE3773:
.LBE3776:
	.loc 7 319 0
	lwz 30,36(31)
.LVL913:
.LBB3777:
.LBB3774:
.LBB3771:
.LBB3768:
.LBB3765:
.LBB3762:
	.loc 4 501 0
	bl _ZN5idStr8FreeDataEv
.LEHE61:
.LVL914:
.LBE3762:
.LBE3765:
.LBE3768:
.LBE3771:
.LBE3774:
.LBE3777:
	.loc 7 320 0
	mr 3,31
	bl _ZdlPv
	.loc 7 317 0
	cmpwi 7,30,0
	bne+ 7,.L817
.L831:
	lwz 9,1152(28)
	add 9,9,27
.LVL915:
.L782:
	.loc 7 323 0
	stw 25,0(9)
	.loc 7 315 0
	addi 29,29,1
.LVL916:
	lwz 0,4(26)
	cmpw 7,29,0
	blt+ 7,.L786
.LVL917:
.L781:
.LBE3779:
.LBE3782:
	.loc 7 147 0
	lwz 3,1152(28)
.LBB3783:
.LBB3780:
	.loc 7 326 0
	li 0,0
	stw 0,1160(28)
.LBE3780:
.LBE3783:
	.loc 7 147 0
	cmpwi 7,3,0
	beq- 7,.L787
	bl _ZdaPv
.L787:
.LVL918:
.LBE3785:
.LBE3787:
.LBE3791:
.LBB3792:
.LBB3793:
.LBB3794:
	.loc 4 501 0 discriminator 5
	addi 3,28,1120
.LEHB62:
	bl _ZN5idStr8FreeDataEv
.LEHE62:
.LVL919:
.LBE3794:
.LBE3793:
.LBE3792:
.LBB3795:
.LBB3796:
.LBB3797:
	.loc 4 501 0 is_stmt 0 discriminator 6
	addi 3,28,1088
.LEHB63:
	bl _ZN5idStr8FreeDataEv
.LEHE63:
.LVL920:
.LBE3797:
.LBE3796:
.LBE3795:
.LBB3798:
.LBB3799:
.LBB3800:
	.loc 4 501 0 discriminator 7
	addi 3,28,1056
.LEHB64:
	bl _ZN5idStr8FreeDataEv
.LEHE64:
.LVL921:
.LBE3800:
.LBE3799:
.LBE3798:
.LBB3801:
.LBB3802:
.LBB3803:
	.loc 4 501 0 discriminator 8
	addi 3,28,1024
.LEHB65:
	bl _ZN5idStr8FreeDataEv
.LEHE65:
.LVL922:
.LBE3803:
.LBE3802:
.LBE3801:
.LBB3804:
.LBB3805:
.LBB3806:
	.loc 4 501 0 discriminator 9
	addi 3,28,992
.LEHB66:
	bl _ZN5idStr8FreeDataEv
.LEHE66:
.LVL923:
.LBE3806:
.LBE3805:
.LBE3804:
.LBB3807:
.LBB3808:
.LBB3809:
	.loc 4 501 0 discriminator 10
	addi 3,28,960
.LEHB67:
	bl _ZN5idStr8FreeDataEv
.LEHE67:
.LVL924:
.LBE3809:
.LBE3808:
.LBE3807:
.LBB3810:
.LBB3811:
.LBB3812:
.LBB3813:
	.loc 6 193 0 is_stmt 1 discriminator 11
	lwz 3,944(28)
	cmpwi 7,3,0
	beq- 7,.L794
	.loc 6 194 0
	bl _ZdaPv
.L794:
	.loc 6 197 0
	li 0,0
.LBE3813:
.LBE3812:
.LBE3811:
.LBE3810:
	.loc 9 48 0
	mr 3,28
.LBB3817:
.LBB3816:
.LBB3815:
.LBB3814:
	.loc 6 197 0
	stw 0,944(28)
	.loc 6 198 0
	stw 0,932(28)
	.loc 6 199 0
	stw 0,936(28)
.LEHB68:
.LBE3814:
.LBE3815:
.LBE3816:
.LBE3817:
	.loc 9 48 0
	bl _ZN8idWindowD2Ev
.LEHE68:
.LBE3849:
	lwz 0,44(1)
	lwz 25,12(1)
	mtlr 0
	lwz 26,16(1)
.LVL925:
	lwz 27,20(1)
	lwz 28,24(1)
.LVL926:
	lwz 29,28(1)
	lwz 30,32(1)
	lwz 31,36(1)
	addi 1,1,40
	.cfi_remember_state
.LCFI58:
	.cfi_def_cfa_offset 0
	.cfi_restore 31
	.cfi_restore 30
	.cfi_restore 29
	.cfi_restore 28
	.cfi_restore 27
	.cfi_restore 26
	.cfi_restore 25
	blr
.LVL927:
.L818:
.LCFI59:
	.cfi_restore_state
	mr 31,3
.LVL928:
.LBB3850:
.LBB3818:
.LBB3819:
.LBB3820:
	.loc 4 501 0
	addi 3,28,1208
	bl _ZN5idStr8FreeDataEv
.LVL929:
.L799:
.LBE3820:
.LBE3819:
.LBE3818:
.LBB3821:
.LBB3822:
.LBB3823:
	.loc 6 181 0
	addi 3,28,1192
	bl _ZN6idListIiE5ClearEv
.LVL930:
.LBE3823:
.LBE3822:
.LBE3821:
.LBB3824:
.LBB3825:
.LBB3826:
	addi 3,28,1172
	bl _ZN6idListI5idStrE5ClearEv
.LVL931:
.L802:
.LBE3826:
.LBE3825:
.LBE3824:
	.loc 9 48 0
	addi 3,28,1152
	bl _ZN11idHashTableIPK10idMaterialED1Ev
.L803:
.LVL932:
.LBB3827:
.LBB3828:
.LBB3829:
	.loc 4 501 0
	addi 3,28,1120
	bl _ZN5idStr8FreeDataEv
.LVL933:
.L805:
.LBE3829:
.LBE3828:
.LBE3827:
.LBB3830:
.LBB3831:
.LBB3832:
	addi 3,28,1088
	bl _ZN5idStr8FreeDataEv
.LVL934:
.L807:
.LBE3832:
.LBE3831:
.LBE3830:
.LBB3833:
.LBB3834:
.LBB3835:
	addi 3,28,1056
	bl _ZN5idStr8FreeDataEv
.LVL935:
.L809:
.LBE3835:
.LBE3834:
.LBE3833:
.LBB3836:
.LBB3837:
.LBB3838:
	addi 3,28,1024
	bl _ZN5idStr8FreeDataEv
.LVL936:
.L811:
.LBE3838:
.LBE3837:
.LBE3836:
.LBB3839:
.LBB3840:
.LBB3841:
	addi 3,28,992
	bl _ZN5idStr8FreeDataEv
.LVL937:
.L813:
.LBE3841:
.LBE3840:
.LBE3839:
.LBB3842:
.LBB3843:
.LBB3844:
	addi 3,28,960
	bl _ZN5idStr8FreeDataEv
.LVL938:
.L815:
.LBE3844:
.LBE3843:
.LBE3842:
.LBB3845:
.LBB3846:
.LBB3847:
	.loc 6 181 0
	addi 3,28,932
	bl _ZN6idListI9idTabRectE5ClearEv
.LBE3847:
.LBE3846:
.LBE3845:
	.loc 9 48 0
	mr 3,28
	bl _ZN8idWindowD2Ev
	mr 3,31
.LEHB69:
	bl _Unwind_Resume
.LEHE69:
.LVL939:
.L827:
	mr 31,3
	b .L815
.LVL940:
.L826:
	mr 31,3
	b .L813
.LVL941:
.L825:
	mr 31,3
	b .L811
.LVL942:
.L824:
	mr 31,3
	b .L809
.LVL943:
.L823:
	mr 31,3
	b .L807
.LVL944:
.L822:
	mr 31,3
	b .L805
.LVL945:
.L821:
	mr 31,3
.LVL946:
	b .L803
.LVL947:
.L820:
	mr 31,3
.LVL948:
	b .L802
.LVL949:
.L819:
	mr 31,3
	b .L799
.LBE3850:
	.cfi_endproc
.LFE3174:
	.section	.gcc_except_table
.LLSDA3174:
	.byte	0xff
	.byte	0xff
	.byte	0x1
	.uleb128 .LLSDACSE3174-.LLSDACSB3174
.LLSDACSB3174:
	.uleb128 .LEHB58-.LFB3174
	.uleb128 .LEHE58-.LEHB58
	.uleb128 .L818-.LFB3174
	.uleb128 0
	.uleb128 .LEHB59-.LFB3174
	.uleb128 .LEHE59-.LEHB59
	.uleb128 .L819-.LFB3174
	.uleb128 0
	.uleb128 .LEHB60-.LFB3174
	.uleb128 .LEHE60-.LEHB60
	.uleb128 .L820-.LFB3174
	.uleb128 0
	.uleb128 .LEHB61-.LFB3174
	.uleb128 .LEHE61-.LEHB61
	.uleb128 .L821-.LFB3174
	.uleb128 0
	.uleb128 .LEHB62-.LFB3174
	.uleb128 .LEHE62-.LEHB62
	.uleb128 .L822-.LFB3174
	.uleb128 0
	.uleb128 .LEHB63-.LFB3174
	.uleb128 .LEHE63-.LEHB63
	.uleb128 .L823-.LFB3174
	.uleb128 0
	.uleb128 .LEHB64-.LFB3174
	.uleb128 .LEHE64-.LEHB64
	.uleb128 .L824-.LFB3174
	.uleb128 0
	.uleb128 .LEHB65-.LFB3174
	.uleb128 .LEHE65-.LEHB65
	.uleb128 .L825-.LFB3174
	.uleb128 0
	.uleb128 .LEHB66-.LFB3174
	.uleb128 .LEHE66-.LEHB66
	.uleb128 .L826-.LFB3174
	.uleb128 0
	.uleb128 .LEHB67-.LFB3174
	.uleb128 .LEHE67-.LEHB67
	.uleb128 .L827-.LFB3174
	.uleb128 0
	.uleb128 .LEHB68-.LFB3174
	.uleb128 .LEHE68-.LEHB68
	.uleb128 0
	.uleb128 0
	.uleb128 .LEHB69-.LFB3174
	.uleb128 .LEHE69-.LEHB69
	.uleb128 0
	.uleb128 0
.LLSDACSE3174:
	.section	.text._ZN12idListWindowD2Ev,"axG",@progbits,_ZN12idListWindowD5Ev,comdat
	.size	_ZN12idListWindowD2Ev, .-_ZN12idListWindowD2Ev
	.section	".text"
	.align 2
	.globl _ZN12idListWindowC2EP20idUserInterfaceLocal
	.type	_ZN12idListWindowC2EP20idUserInterfaceLocal, @function
_ZN12idListWindowC2EP20idUserInterfaceLocal:
.LFB2856:
	.loc 3 67 0
	.cfi_startproc
	.cfi_personality 0,__gxx_personality_v0
	.cfi_lsda 0,.LLSDA2856
.LVL950:
	mflr 0
	stwu 1,-16(1)
.LCFI60:
	.cfi_def_cfa_offset 16
	.cfi_register 65, 0
	stw 30,8(1)
	mr 30,4
	.cfi_offset 30, -8
	stw 0,20(1)
	stw 31,12(1)
	.loc 3 67 0
	mr 31,3
	.cfi_offset 31, -4
	.cfi_offset 65, 4
.LEHB70:
.LBB3927:
	bl _ZN8idWindowC2EP20idUserInterfaceLocal
.LEHE70:
.LVL951:
	lis 4,_ZTV12idListWindow+8@ha
.LBB3928:
.LBB3929:
.LBB3930:
.LBB3931:
	.loc 6 197 0
	li 0,0
.LBE3931:
.LBE3930:
.LBE3929:
.LBE3928:
	.loc 3 67 0
	la 4,_ZTV12idListWindow+8@l(4)
.LBB3941:
.LBB3942:
.LBB3943:
	.loc 4 357 0
	li 9,20
	.loc 4 358 0
	addi 5,31,972
.LBE3943:
.LBE3942:
.LBE3941:
.LBB3948:
.LBB3949:
.LBB3950:
	addi 6,31,1004
.LBE3950:
.LBE3949:
.LBE3948:
.LBB3955:
.LBB3956:
.LBB3957:
	addi 7,31,1036
.LBE3957:
.LBE3956:
.LBE3955:
.LBB3962:
.LBB3963:
.LBB3964:
	addi 8,31,1068
.LBE3964:
.LBE3963:
.LBE3962:
.LBB3969:
.LBB3970:
.LBB3971:
	addi 10,31,1100
.LBE3971:
.LBE3970:
.LBE3969:
.LBB3976:
.LBB3977:
.LBB3978:
	addi 11,31,1132
.LBE3978:
.LBE3977:
.LBE3976:
	.loc 3 67 0
	stw 4,0(31)
.LVL952:
.LBB3983:
.LBB3938:
.LBB3935:
.LBB3932:
	.loc 6 197 0
	stw 0,944(31)
.LBE3932:
.LBE3935:
	.loc 6 159 0
	li 4,16
.LBB3936:
.LBB3933:
	.loc 6 198 0
	stw 0,932(31)
.LBE3933:
.LBE3936:
.LBE3938:
.LBE3983:
.LBB3984:
.LBB3985:
	.loc 7 99 0
	li 3,1024
.LBE3985:
.LBE3984:
.LBB3991:
.LBB3939:
.LBB3937:
.LBB3934:
	.loc 6 199 0
	stw 0,936(31)
.LBE3934:
.LBE3937:
.LBE3939:
.LBE3991:
.LBB3992:
.LBB3946:
.LBB3944:
	.loc 4 356 0
	stw 0,960(31)
	.loc 4 359 0
	stb 0,972(31)
.LBE3944:
.LBE3946:
.LBE3992:
.LBB3993:
.LBB3953:
.LBB3951:
	.loc 4 356 0
	stw 0,992(31)
	.loc 4 359 0
	stb 0,1004(31)
.LBE3951:
.LBE3953:
.LBE3993:
.LBB3994:
.LBB3960:
.LBB3958:
	.loc 4 356 0
	stw 0,1024(31)
	.loc 4 359 0
	stb 0,1036(31)
.LBE3958:
.LBE3960:
.LBE3994:
.LBB3995:
.LBB3967:
.LBB3965:
	.loc 4 356 0
	stw 0,1056(31)
	.loc 4 359 0
	stb 0,1068(31)
.LBE3965:
.LBE3967:
.LBE3995:
.LBB3996:
.LBB3974:
.LBB3972:
	.loc 4 356 0
	stw 0,1088(31)
	.loc 4 359 0
	stb 0,1100(31)
.LBE3972:
.LBE3974:
.LBE3996:
.LBB3997:
.LBB3981:
.LBB3979:
	.loc 4 356 0
	stw 0,1120(31)
	.loc 4 359 0
	stb 0,1132(31)
.LBE3979:
.LBE3981:
.LBE3997:
.LBB3998:
.LBB3986:
	.loc 7 96 0
	li 0,256
.LBE3986:
.LBE3998:
.LBB3999:
.LBB3940:
	.loc 6 159 0
	stw 4,940(31)
.LVL953:
.LBE3940:
.LBE3999:
.LBB4000:
.LBB3947:
.LBB3945:
	.loc 4 357 0
	stw 9,968(31)
	.loc 4 358 0
	stw 5,964(31)
.LBE3945:
.LBE3947:
.LBE4000:
.LBB4001:
.LBB3954:
.LBB3952:
	.loc 4 357 0
	stw 9,1000(31)
	.loc 4 358 0
	stw 6,996(31)
.LBE3952:
.LBE3954:
.LBE4001:
.LBB4002:
.LBB3961:
.LBB3959:
	.loc 4 357 0
	stw 9,1032(31)
	.loc 4 358 0
	stw 7,1028(31)
.LBE3959:
.LBE3961:
.LBE4002:
.LBB4003:
.LBB3968:
.LBB3966:
	.loc 4 357 0
	stw 9,1064(31)
	.loc 4 358 0
	stw 8,1060(31)
.LBE3966:
.LBE3968:
.LBE4003:
.LBB4004:
.LBB3975:
.LBB3973:
	.loc 4 357 0
	stw 9,1096(31)
	.loc 4 358 0
	stw 10,1092(31)
.LBE3973:
.LBE3975:
.LBE4004:
.LBB4005:
.LBB3982:
.LBB3980:
	.loc 4 357 0
	stw 9,1128(31)
	.loc 4 358 0
	stw 11,1124(31)
.LBE3980:
.LBE3982:
.LBE4005:
.LBB4006:
.LBB3987:
	.loc 7 96 0
	stw 0,1156(31)
.LEHB71:
	.loc 7 99 0
	bl _Znaj
.LEHE71:
	.loc 7 100 0
	lwz 5,1156(31)
	li 4,0
	.loc 7 99 0
	stw 3,1152(31)
	.loc 7 100 0
	slwi 5,5,2
	bl memset
	.loc 7 104 0
	lwz 7,1156(31)
	.loc 7 102 0
	li 0,0
.LBE3987:
.LBE4006:
.LBB4007:
.LBB4008:
	.loc 6 159 0
	li 11,16
.LBE4008:
.LBE4007:
.LBB4012:
.LBB4013:
.LBB4014:
	.loc 4 357 0
	li 9,20
.LBE4014:
.LBE4013:
.LBE4012:
.LBB4019:
.LBB3988:
	.loc 7 104 0
	addi 7,7,-1
.LBE3988:
.LBE4019:
.LBB4020:
.LBB4017:
.LBB4015:
	.loc 4 358 0
	addi 8,31,1220
.LBE4015:
.LBE4017:
.LBE4020:
.LBB4021:
.LBB4022:
.LBB4023:
	addi 10,31,1260
.LBE4023:
.LBE4022:
.LBE4021:
.LBB4026:
.LBB3989:
	.loc 7 102 0
	stw 0,1160(31)
.LBE3989:
.LBE4026:
	.loc 3 69 0
	mr 3,31
.LBB4027:
.LBB3990:
	.loc 7 104 0
	stw 7,1164(31)
.LVL954:
.LBE3990:
.LBE4027:
.LBB4028:
.LBB4011:
	.loc 6 159 0
	stw 11,1180(31)
.LVL955:
.LBB4009:
.LBB4010:
	.loc 6 197 0
	stw 0,1184(31)
	.loc 6 198 0
	stw 0,1172(31)
	.loc 6 199 0
	stw 0,1176(31)
.LVL956:
.LBE4010:
.LBE4009:
.LBE4011:
.LBE4028:
.LBB4029:
.LBB4030:
	.loc 6 159 0
	stw 11,1200(31)
.LVL957:
.LBB4031:
.LBB4032:
	.loc 6 197 0
	stw 0,1204(31)
	.loc 6 198 0
	stw 0,1192(31)
	.loc 6 199 0
	stw 0,1196(31)
.LVL958:
.LBE4032:
.LBE4031:
.LBE4030:
.LBE4029:
.LBB4033:
.LBB4018:
.LBB4016:
	.loc 4 356 0
	stw 0,1208(31)
	.loc 4 357 0
	stw 9,1216(31)
	.loc 4 358 0
	stw 8,1212(31)
	.loc 4 359 0
	stb 0,1220(31)
.LVL959:
.LBE4016:
.LBE4018:
.LBE4033:
.LBB4034:
.LBB4025:
.LBB4024:
	.loc 4 356 0
	stw 0,1248(31)
	.loc 4 357 0
	stw 9,1256(31)
	.loc 4 358 0
	stw 10,1252(31)
	.loc 4 359 0
	stb 0,1260(31)
.LBE4024:
.LBE4025:
.LBE4034:
	.loc 3 68 0
	stw 30,732(31)
.LEHB72:
	.loc 3 69 0
	bl _ZN12idListWindow10CommonInitEv
.LEHE72:
.LBE3927:
	.loc 3 70 0
	lwz 0,20(1)
	lwz 30,8(1)
.LVL960:
	mtlr 0
	lwz 31,12(1)
.LVL961:
	addi 1,1,16
	.cfi_remember_state
.LCFI61:
	.cfi_def_cfa_offset 0
	.cfi_restore 31
	.cfi_restore 30
	blr
.LVL962:
.L846:
.LCFI62:
	.cfi_restore_state
	mr 30,3
.LVL963:
.L838:
.LBB4068:
.LBB4035:
.LBB4036:
.LBB4037:
	.loc 4 501 0
	addi 3,31,1120
	bl _ZN5idStr8FreeDataEv
.LVL964:
.LBE4037:
.LBE4036:
.LBE4035:
.LBB4038:
.LBB4039:
.LBB4040:
	addi 3,31,1088
	bl _ZN5idStr8FreeDataEv
.LVL965:
.LBE4040:
.LBE4039:
.LBE4038:
.LBB4041:
.LBB4042:
.LBB4043:
	addi 3,31,1056
	bl _ZN5idStr8FreeDataEv
.LVL966:
.LBE4043:
.LBE4042:
.LBE4041:
.LBB4044:
.LBB4045:
.LBB4046:
	addi 3,31,1024
	bl _ZN5idStr8FreeDataEv
.LVL967:
.LBE4046:
.LBE4045:
.LBE4044:
.LBB4047:
.LBB4048:
.LBB4049:
	addi 3,31,992
	bl _ZN5idStr8FreeDataEv
.LVL968:
.LBE4049:
.LBE4048:
.LBE4047:
.LBB4050:
.LBB4051:
.LBB4052:
	addi 3,31,960
	bl _ZN5idStr8FreeDataEv
.LVL969:
.LBE4052:
.LBE4051:
.LBE4050:
.LBB4053:
.LBB4054:
.LBB4055:
	.loc 6 181 0
	addi 3,31,932
	bl _ZN6idListI9idTabRectE5ClearEv
.LBE4055:
.LBE4054:
.LBE4053:
	.loc 3 67 0
	mr 3,31
	bl _ZN8idWindowD2Ev
	mr 3,30
.LEHB73:
	bl _Unwind_Resume
.LEHE73:
.LVL970:
.L847:
	mr 30,3
.LVL971:
.LBB4056:
.LBB4057:
.LBB4058:
	.loc 4 501 0
	addi 3,31,1248
	bl _ZN5idStr8FreeDataEv
.LVL972:
.LBE4058:
.LBE4057:
.LBE4056:
.LBB4059:
.LBB4060:
.LBB4061:
	addi 3,31,1208
	bl _ZN5idStr8FreeDataEv
.LVL973:
.LBE4061:
.LBE4060:
.LBE4059:
.LBB4062:
.LBB4063:
.LBB4064:
	.loc 6 181 0
	addi 3,31,1192
	bl _ZN6idListIiE5ClearEv
.LVL974:
.LBE4064:
.LBE4063:
.LBE4062:
.LBB4065:
.LBB4066:
.LBB4067:
	addi 3,31,1172
	bl _ZN6idListI5idStrE5ClearEv
.LBE4067:
.LBE4066:
.LBE4065:
	.loc 3 67 0
	addi 3,31,1152
	bl _ZN11idHashTableIPK10idMaterialED1Ev
	b .L838
.LBE4068:
	.cfi_endproc
.LFE2856:
	.section	.gcc_except_table
.LLSDA2856:
	.byte	0xff
	.byte	0xff
	.byte	0x1
	.uleb128 .LLSDACSE2856-.LLSDACSB2856
.LLSDACSB2856:
	.uleb128 .LEHB70-.LFB2856
	.uleb128 .LEHE70-.LEHB70
	.uleb128 0
	.uleb128 0
	.uleb128 .LEHB71-.LFB2856
	.uleb128 .LEHE71-.LEHB71
	.uleb128 .L846-.LFB2856
	.uleb128 0
	.uleb128 .LEHB72-.LFB2856
	.uleb128 .LEHE72-.LEHB72
	.uleb128 .L847-.LFB2856
	.uleb128 0
	.uleb128 .LEHB73-.LFB2856
	.uleb128 .LEHE73-.LEHB73
	.uleb128 0
	.uleb128 0
.LLSDACSE2856:
	.section	".text"
	.size	_ZN12idListWindowC2EP20idUserInterfaceLocal, .-_ZN12idListWindowC2EP20idUserInterfaceLocal
	.align 2
	.globl _ZN12idListWindowC2EP15idDeviceContextP20idUserInterfaceLocal
	.type	_ZN12idListWindowC2EP15idDeviceContextP20idUserInterfaceLocal, @function
_ZN12idListWindowC2EP15idDeviceContextP20idUserInterfaceLocal:
.LFB2853:
	.loc 3 61 0
	.cfi_startproc
	.cfi_personality 0,__gxx_personality_v0
	.cfi_lsda 0,.LLSDA2853
.LVL975:
	mflr 0
	stwu 1,-24(1)
.LCFI63:
	.cfi_def_cfa_offset 24
	.cfi_register 65, 0
	stw 29,12(1)
	mr 29,4
	.cfi_offset 29, -12
	stw 0,28(1)
	stw 30,16(1)
	mr 30,5
	.cfi_offset 30, -8
	.cfi_offset 65, 4
	stw 31,20(1)
	.loc 3 61 0
	mr 31,3
	.cfi_offset 31, -4
.LEHB74:
.LBB4145:
	bl _ZN8idWindowC2EP15idDeviceContextP20idUserInterfaceLocal
.LEHE74:
.LVL976:
	lis 4,_ZTV12idListWindow+8@ha
.LBB4146:
.LBB4147:
.LBB4148:
.LBB4149:
	.loc 6 197 0
	li 0,0
.LBE4149:
.LBE4148:
.LBE4147:
.LBE4146:
	.loc 3 61 0
	la 4,_ZTV12idListWindow+8@l(4)
.LBB4159:
.LBB4160:
.LBB4161:
	.loc 4 357 0
	li 9,20
	.loc 4 358 0
	addi 5,31,972
.LBE4161:
.LBE4160:
.LBE4159:
.LBB4166:
.LBB4167:
.LBB4168:
	addi 6,31,1004
.LBE4168:
.LBE4167:
.LBE4166:
.LBB4173:
.LBB4174:
.LBB4175:
	addi 7,31,1036
.LBE4175:
.LBE4174:
.LBE4173:
.LBB4180:
.LBB4181:
.LBB4182:
	addi 8,31,1068
.LBE4182:
.LBE4181:
.LBE4180:
.LBB4187:
.LBB4188:
.LBB4189:
	addi 10,31,1100
.LBE4189:
.LBE4188:
.LBE4187:
.LBB4194:
.LBB4195:
.LBB4196:
	addi 11,31,1132
.LBE4196:
.LBE4195:
.LBE4194:
	.loc 3 61 0
	stw 4,0(31)
.LVL977:
.LBB4201:
.LBB4156:
.LBB4153:
.LBB4150:
	.loc 6 197 0
	stw 0,944(31)
.LBE4150:
.LBE4153:
	.loc 6 159 0
	li 4,16
.LBB4154:
.LBB4151:
	.loc 6 198 0
	stw 0,932(31)
.LBE4151:
.LBE4154:
.LBE4156:
.LBE4201:
.LBB4202:
.LBB4203:
	.loc 7 99 0
	li 3,1024
.LBE4203:
.LBE4202:
.LBB4209:
.LBB4157:
.LBB4155:
.LBB4152:
	.loc 6 199 0
	stw 0,936(31)
.LBE4152:
.LBE4155:
.LBE4157:
.LBE4209:
.LBB4210:
.LBB4164:
.LBB4162:
	.loc 4 356 0
	stw 0,960(31)
	.loc 4 359 0
	stb 0,972(31)
.LBE4162:
.LBE4164:
.LBE4210:
.LBB4211:
.LBB4171:
.LBB4169:
	.loc 4 356 0
	stw 0,992(31)
	.loc 4 359 0
	stb 0,1004(31)
.LBE4169:
.LBE4171:
.LBE4211:
.LBB4212:
.LBB4178:
.LBB4176:
	.loc 4 356 0
	stw 0,1024(31)
	.loc 4 359 0
	stb 0,1036(31)
.LBE4176:
.LBE4178:
.LBE4212:
.LBB4213:
.LBB4185:
.LBB4183:
	.loc 4 356 0
	stw 0,1056(31)
	.loc 4 359 0
	stb 0,1068(31)
.LBE4183:
.LBE4185:
.LBE4213:
.LBB4214:
.LBB4192:
.LBB4190:
	.loc 4 356 0
	stw 0,1088(31)
	.loc 4 359 0
	stb 0,1100(31)
.LBE4190:
.LBE4192:
.LBE4214:
.LBB4215:
.LBB4199:
.LBB4197:
	.loc 4 356 0
	stw 0,1120(31)
	.loc 4 359 0
	stb 0,1132(31)
.LBE4197:
.LBE4199:
.LBE4215:
.LBB4216:
.LBB4204:
	.loc 7 96 0
	li 0,256
.LBE4204:
.LBE4216:
.LBB4217:
.LBB4158:
	.loc 6 159 0
	stw 4,940(31)
.LVL978:
.LBE4158:
.LBE4217:
.LBB4218:
.LBB4165:
.LBB4163:
	.loc 4 357 0
	stw 9,968(31)
	.loc 4 358 0
	stw 5,964(31)
.LBE4163:
.LBE4165:
.LBE4218:
.LBB4219:
.LBB4172:
.LBB4170:
	.loc 4 357 0
	stw 9,1000(31)
	.loc 4 358 0
	stw 6,996(31)
.LBE4170:
.LBE4172:
.LBE4219:
.LBB4220:
.LBB4179:
.LBB4177:
	.loc 4 357 0
	stw 9,1032(31)
	.loc 4 358 0
	stw 7,1028(31)
.LBE4177:
.LBE4179:
.LBE4220:
.LBB4221:
.LBB4186:
.LBB4184:
	.loc 4 357 0
	stw 9,1064(31)
	.loc 4 358 0
	stw 8,1060(31)
.LBE4184:
.LBE4186:
.LBE4221:
.LBB4222:
.LBB4193:
.LBB4191:
	.loc 4 357 0
	stw 9,1096(31)
	.loc 4 358 0
	stw 10,1092(31)
.LBE4191:
.LBE4193:
.LBE4222:
.LBB4223:
.LBB4200:
.LBB4198:
	.loc 4 357 0
	stw 9,1128(31)
	.loc 4 358 0
	stw 11,1124(31)
.LBE4198:
.LBE4200:
.LBE4223:
.LBB4224:
.LBB4205:
	.loc 7 96 0
	stw 0,1156(31)
.LEHB75:
	.loc 7 99 0
	bl _Znaj
.LEHE75:
	.loc 7 100 0
	lwz 5,1156(31)
	li 4,0
	.loc 7 99 0
	stw 3,1152(31)
	.loc 7 100 0
	slwi 5,5,2
	bl memset
	.loc 7 104 0
	lwz 7,1156(31)
	.loc 7 102 0
	li 0,0
.LBE4205:
.LBE4224:
.LBB4225:
.LBB4226:
	.loc 6 159 0
	li 11,16
.LBE4226:
.LBE4225:
.LBB4230:
.LBB4231:
.LBB4232:
	.loc 4 357 0
	li 9,20
.LBE4232:
.LBE4231:
.LBE4230:
.LBB4237:
.LBB4206:
	.loc 7 104 0
	addi 7,7,-1
.LBE4206:
.LBE4237:
.LBB4238:
.LBB4235:
.LBB4233:
	.loc 4 358 0
	addi 8,31,1220
.LBE4233:
.LBE4235:
.LBE4238:
.LBB4239:
.LBB4240:
.LBB4241:
	addi 10,31,1260
.LBE4241:
.LBE4240:
.LBE4239:
.LBB4244:
.LBB4207:
	.loc 7 102 0
	stw 0,1160(31)
.LBE4207:
.LBE4244:
	.loc 3 64 0
	mr 3,31
.LBB4245:
.LBB4208:
	.loc 7 104 0
	stw 7,1164(31)
.LVL979:
.LBE4208:
.LBE4245:
.LBB4246:
.LBB4229:
	.loc 6 159 0
	stw 11,1180(31)
.LVL980:
.LBB4227:
.LBB4228:
	.loc 6 197 0
	stw 0,1184(31)
	.loc 6 198 0
	stw 0,1172(31)
	.loc 6 199 0
	stw 0,1176(31)
.LVL981:
.LBE4228:
.LBE4227:
.LBE4229:
.LBE4246:
.LBB4247:
.LBB4248:
	.loc 6 159 0
	stw 11,1200(31)
.LVL982:
.LBB4249:
.LBB4250:
	.loc 6 197 0
	stw 0,1204(31)
	.loc 6 198 0
	stw 0,1192(31)
	.loc 6 199 0
	stw 0,1196(31)
.LVL983:
.LBE4250:
.LBE4249:
.LBE4248:
.LBE4247:
.LBB4251:
.LBB4236:
.LBB4234:
	.loc 4 356 0
	stw 0,1208(31)
	.loc 4 357 0
	stw 9,1216(31)
	.loc 4 358 0
	stw 8,1212(31)
	.loc 4 359 0
	stb 0,1220(31)
.LVL984:
.LBE4234:
.LBE4236:
.LBE4251:
.LBB4252:
.LBB4243:
.LBB4242:
	.loc 4 356 0
	stw 0,1248(31)
	.loc 4 357 0
	stw 9,1256(31)
	.loc 4 358 0
	stw 10,1252(31)
	.loc 4 359 0
	stb 0,1260(31)
.LBE4242:
.LBE4243:
.LBE4252:
	.loc 3 62 0
	stw 29,728(31)
	.loc 3 63 0
	stw 30,732(31)
.LEHB76:
	.loc 3 64 0
	bl _ZN12idListWindow10CommonInitEv
.LEHE76:
.LBE4145:
	.loc 3 65 0
	lwz 0,28(1)
	lwz 29,12(1)
.LVL985:
	mtlr 0
	lwz 30,16(1)
.LVL986:
	lwz 31,20(1)
.LVL987:
	addi 1,1,24
	.cfi_remember_state
.LCFI64:
	.cfi_def_cfa_offset 0
	.cfi_restore 31
	.cfi_restore 30
	.cfi_restore 29
	blr
.LVL988:
.L863:
.LCFI65:
	.cfi_restore_state
	mr 30,3
.LVL989:
.L855:
.LBB4286:
.LBB4253:
.LBB4254:
.LBB4255:
	.loc 4 501 0
	addi 3,31,1120
	bl _ZN5idStr8FreeDataEv
.LVL990:
.LBE4255:
.LBE4254:
.LBE4253:
.LBB4256:
.LBB4257:
.LBB4258:
	addi 3,31,1088
	bl _ZN5idStr8FreeDataEv
.LVL991:
.LBE4258:
.LBE4257:
.LBE4256:
.LBB4259:
.LBB4260:
.LBB4261:
	addi 3,31,1056
	bl _ZN5idStr8FreeDataEv
.LVL992:
.LBE4261:
.LBE4260:
.LBE4259:
.LBB4262:
.LBB4263:
.LBB4264:
	addi 3,31,1024
	bl _ZN5idStr8FreeDataEv
.LVL993:
.LBE4264:
.LBE4263:
.LBE4262:
.LBB4265:
.LBB4266:
.LBB4267:
	addi 3,31,992
	bl _ZN5idStr8FreeDataEv
.LVL994:
.LBE4267:
.LBE4266:
.LBE4265:
.LBB4268:
.LBB4269:
.LBB4270:
	addi 3,31,960
	bl _ZN5idStr8FreeDataEv
.LVL995:
.LBE4270:
.LBE4269:
.LBE4268:
.LBB4271:
.LBB4272:
.LBB4273:
	.loc 6 181 0
	addi 3,31,932
	bl _ZN6idListI9idTabRectE5ClearEv
.LBE4273:
.LBE4272:
.LBE4271:
	.loc 3 61 0
	mr 3,31
	bl _ZN8idWindowD2Ev
	mr 3,30
.LEHB77:
	bl _Unwind_Resume
.LEHE77:
.LVL996:
.L864:
	mr 30,3
.LVL997:
.LBB4274:
.LBB4275:
.LBB4276:
	.loc 4 501 0
	addi 3,31,1248
	bl _ZN5idStr8FreeDataEv
.LVL998:
.LBE4276:
.LBE4275:
.LBE4274:
.LBB4277:
.LBB4278:
.LBB4279:
	addi 3,31,1208
	bl _ZN5idStr8FreeDataEv
.LVL999:
.LBE4279:
.LBE4278:
.LBE4277:
.LBB4280:
.LBB4281:
.LBB4282:
	.loc 6 181 0
	addi 3,31,1192
	bl _ZN6idListIiE5ClearEv
.LVL1000:
.LBE4282:
.LBE4281:
.LBE4280:
.LBB4283:
.LBB4284:
.LBB4285:
	addi 3,31,1172
	bl _ZN6idListI5idStrE5ClearEv
.LBE4285:
.LBE4284:
.LBE4283:
	.loc 3 61 0
	addi 3,31,1152
	bl _ZN11idHashTableIPK10idMaterialED1Ev
	b .L855
.LBE4286:
	.cfi_endproc
.LFE2853:
	.section	.gcc_except_table
.LLSDA2853:
	.byte	0xff
	.byte	0xff
	.byte	0x1
	.uleb128 .LLSDACSE2853-.LLSDACSB2853
.LLSDACSB2853:
	.uleb128 .LEHB74-.LFB2853
	.uleb128 .LEHE74-.LEHB74
	.uleb128 0
	.uleb128 0
	.uleb128 .LEHB75-.LFB2853
	.uleb128 .LEHE75-.LEHB75
	.uleb128 .L863-.LFB2853
	.uleb128 0
	.uleb128 .LEHB76-.LFB2853
	.uleb128 .LEHE76-.LEHB76
	.uleb128 .L864-.LFB2853
	.uleb128 0
	.uleb128 .LEHB77-.LFB2853
	.uleb128 .LEHE77-.LEHB77
	.uleb128 0
	.uleb128 0
.LLSDACSE2853:
	.section	".text"
	.size	_ZN12idListWindowC2EP15idDeviceContextP20idUserInterfaceLocal, .-_ZN12idListWindowC2EP15idDeviceContextP20idUserInterfaceLocal
	.section	.text._ZN12idListWindowD0Ev,"axG",@progbits,_ZN12idListWindowD5Ev,comdat
	.align 2
	.weak	_ZN12idListWindowD0Ev
	.type	_ZN12idListWindowD0Ev, @function
_ZN12idListWindowD0Ev:
.LFB3176:
	.loc 9 48 0
	.cfi_startproc
	.cfi_personality 0,__gxx_personality_v0
	.cfi_lsda 0,.LLSDA3176
.LVL1001:
	mflr 0
	stwu 1,-40(1)
.LCFI66:
	.cfi_def_cfa_offset 40
	.cfi_register 65, 0
.LBB4373:
.LBB4374:
.LBB4375:
	lis 9,_ZTV12idListWindow+8@ha
.LBE4375:
.LBE4374:
.LBE4373:
	stw 28,24(1)
	mr 28,3
	.cfi_offset 28, -16
.LVL1002:
	stw 0,44(1)
.LBB4520:
.LBB4517:
.LBB4514:
	la 0,_ZTV12idListWindow+8@l(9)
	.cfi_offset 65, 4
.LBE4514:
.LBE4517:
.LBE4520:
	stw 25,12(1)
	stw 26,16(1)
	stw 27,20(1)
	stw 29,28(1)
	stw 30,32(1)
	stw 31,36(1)
.LBB4521:
.LBB4518:
.LBB4515:
	.loc 9 48 0
	stw 0,0(3)
.LVL1003:
.LBB4376:
.LBB4377:
.LBB4378:
	.loc 4 501 0
	addi 3,3,1248
.LVL1004:
.LEHB78:
	.cfi_offset 31, -4
	.cfi_offset 30, -8
	.cfi_offset 29, -12
	.cfi_offset 27, -20
	.cfi_offset 26, -24
	.cfi_offset 25, -28
	bl _ZN5idStr8FreeDataEv
.LEHE78:
.LVL1005:
.LBE4378:
.LBE4377:
.LBE4376:
.LBB4379:
.LBB4380:
.LBB4381:
	addi 3,28,1208
.LEHB79:
	bl _ZN5idStr8FreeDataEv
.LEHE79:
.LVL1006:
.LBE4381:
.LBE4380:
.LBE4379:
.LBB4382:
.LBB4383:
.LBB4384:
.LBB4385:
	.loc 6 193 0
	lwz 3,1204(28)
	cmpwi 7,3,0
	beq- 7,.L869
	.loc 6 194 0
	bl _ZdaPv
.LVL1007:
.L869:
.LBE4385:
.LBE4384:
.LBE4383:
.LBE4382:
.LBB4392:
.LBB4393:
.LBB4394:
.LBB4395:
	.loc 6 193 0
	lwz 3,1184(28)
.LBE4395:
.LBE4394:
.LBE4393:
.LBE4392:
.LBB4411:
.LBB4390:
.LBB4388:
.LBB4386:
	.loc 6 197 0
	li 0,0
	stw 0,1204(28)
.LBE4386:
.LBE4388:
.LBE4390:
.LBE4411:
.LBB4412:
.LBB4407:
.LBB4403:
.LBB4399:
	.loc 6 193 0
	cmpwi 7,3,0
.LBE4399:
.LBE4403:
.LBE4407:
.LBE4412:
.LBB4413:
.LBB4391:
.LBB4389:
.LBB4387:
	.loc 6 198 0
	stw 0,1192(28)
	.loc 6 199 0
	stw 0,1196(28)
.LVL1008:
.LBE4387:
.LBE4389:
.LBE4391:
.LBE4413:
.LBB4414:
.LBB4408:
.LBB4404:
.LBB4400:
	.loc 6 193 0
	beq- 7,.L871
	.loc 6 194 0
	lwz 31,-4(3)
	slwi 31,31,5
	add 31,3,31
	b .L872
.L925:
	addi 31,31,-32
.LVL1009:
.LBB4396:
.LBB4397:
.LBB4398:
	.loc 4 501 0
	mr 3,31
.LEHB80:
	bl _ZN5idStr8FreeDataEv
.LEHE80:
	lwz 3,1184(28)
.LVL1010:
.L872:
.LBE4398:
.LBE4397:
.LBE4396:
	.loc 6 194 0
	cmpw 7,3,31
	bne+ 7,.L925
	addi 3,3,-4
	bl _ZdaPv
.L871:
.LBE4400:
.LBE4404:
.LBE4408:
.LBE4414:
.LBB4415:
.LBB4416:
.LBB4417:
.LBB4418:
.LBB4419:
	.loc 7 315 0
	lwz 9,1156(28)
.LBE4419:
.LBE4418:
.LBE4417:
.LBE4416:
.LBE4415:
.LBB4454:
.LBB4409:
.LBB4405:
.LBB4401:
	.loc 6 197 0
	li 0,0
	stw 0,1184(28)
.LBE4401:
.LBE4405:
.LBE4409:
.LBE4454:
	.loc 9 48 0
	addi 26,28,1152
.LVL1011:
.LBB4455:
.LBB4452:
.LBB4450:
.LBB4447:
.LBB4444:
	.loc 7 315 0
	cmpwi 7,9,0
.LBE4444:
.LBE4447:
.LBE4450:
.LBE4452:
.LBE4455:
.LBB4456:
.LBB4410:
.LBB4406:
.LBB4402:
	.loc 6 198 0
	stw 0,1172(28)
	.loc 6 199 0
	stw 0,1176(28)
.LBE4402:
.LBE4406:
.LBE4410:
.LBE4456:
.LBB4457:
.LBB4453:
.LBB4451:
.LBB4448:
.LBB4445:
	.loc 7 315 0
	ble- 7,.L875
	li 29,0
	.loc 7 323 0
	li 25,0
.LVL1012:
.L880:
	.loc 7 316 0
	lwz 9,0(26)
	.loc 9 48 0
	slwi 27,29,2
	.loc 7 316 0
	lwzx 31,9,27
.LVL1013:
	add 9,9,27
	.loc 7 317 0
	cmpwi 7,31,0
	beq- 7,.L876
.LVL1014:
.LBB4420:
.LBB4421:
.LBB4422:
.LBB4423:
.LBB4424:
.LBB4425:
	.loc 4 501 0
	mr 3,31
.LBE4425:
.LBE4424:
.LBE4423:
.LBE4422:
.LBE4421:
.LBE4420:
	.loc 7 319 0
	lwz 30,36(31)
.LVL1015:
.LEHB81:
.LBB4441:
.LBB4438:
.LBB4435:
.LBB4432:
.LBB4429:
.LBB4426:
	.loc 4 501 0
	bl _ZN5idStr8FreeDataEv
.LVL1016:
.LBE4426:
.LBE4429:
.LBE4432:
.LBE4435:
.LBE4438:
.LBE4441:
	.loc 7 320 0
	mr 3,31
	bl _ZdlPv
	.loc 7 317 0
	cmpwi 7,30,0
	beq- 7,.L926
.L912:
	mr 31,30
.LVL1017:
.LBB4442:
.LBB4439:
.LBB4436:
.LBB4433:
.LBB4430:
.LBB4427:
	.loc 4 501 0
	mr 3,31
.LBE4427:
.LBE4430:
.LBE4433:
.LBE4436:
.LBE4439:
.LBE4442:
	.loc 7 319 0
	lwz 30,36(31)
.LVL1018:
.LBB4443:
.LBB4440:
.LBB4437:
.LBB4434:
.LBB4431:
.LBB4428:
	.loc 4 501 0
	bl _ZN5idStr8FreeDataEv
.LEHE81:
.LVL1019:
.LBE4428:
.LBE4431:
.LBE4434:
.LBE4437:
.LBE4440:
.LBE4443:
	.loc 7 320 0
	mr 3,31
	bl _ZdlPv
	.loc 7 317 0
	cmpwi 7,30,0
	bne+ 7,.L912
.L926:
	lwz 9,1152(28)
	add 9,9,27
.LVL1020:
.L876:
	.loc 7 323 0
	stw 25,0(9)
	.loc 7 315 0
	addi 29,29,1
.LVL1021:
	lwz 0,4(26)
	cmpw 7,29,0
	blt+ 7,.L880
.LVL1022:
.L875:
.LBE4445:
.LBE4448:
	.loc 7 147 0
	lwz 3,1152(28)
.LBB4449:
.LBB4446:
	.loc 7 326 0
	li 0,0
	stw 0,1160(28)
.LBE4446:
.LBE4449:
	.loc 7 147 0
	cmpwi 7,3,0
	beq- 7,.L881
	bl _ZdaPv
.L881:
.LVL1023:
.LBE4451:
.LBE4453:
.LBE4457:
.LBB4458:
.LBB4459:
.LBB4460:
	.loc 4 501 0
	addi 3,28,1120
.LEHB82:
	bl _ZN5idStr8FreeDataEv
.LEHE82:
.LVL1024:
.LBE4460:
.LBE4459:
.LBE4458:
.LBB4461:
.LBB4462:
.LBB4463:
	addi 3,28,1088
.LEHB83:
	bl _ZN5idStr8FreeDataEv
.LEHE83:
.LVL1025:
.LBE4463:
.LBE4462:
.LBE4461:
.LBB4464:
.LBB4465:
.LBB4466:
	addi 3,28,1056
.LEHB84:
	bl _ZN5idStr8FreeDataEv
.LEHE84:
.LVL1026:
.LBE4466:
.LBE4465:
.LBE4464:
.LBB4467:
.LBB4468:
.LBB4469:
	addi 3,28,1024
.LEHB85:
	bl _ZN5idStr8FreeDataEv
.LEHE85:
.LVL1027:
.LBE4469:
.LBE4468:
.LBE4467:
.LBB4470:
.LBB4471:
.LBB4472:
	addi 3,28,992
.LEHB86:
	bl _ZN5idStr8FreeDataEv
.LEHE86:
.LVL1028:
.LBE4472:
.LBE4471:
.LBE4470:
.LBB4473:
.LBB4474:
.LBB4475:
	addi 3,28,960
.LEHB87:
	bl _ZN5idStr8FreeDataEv
.LEHE87:
.LVL1029:
.LBE4475:
.LBE4474:
.LBE4473:
.LBB4476:
.LBB4477:
.LBB4478:
.LBB4479:
	.loc 6 193 0
	lwz 3,944(28)
	cmpwi 7,3,0
	beq- 7,.L888
	.loc 6 194 0
	bl _ZdaPv
.L888:
	.loc 6 197 0
	li 0,0
.LBE4479:
.LBE4478:
.LBE4477:
.LBE4476:
	.loc 9 48 0
	mr 3,28
.LBB4483:
.LBB4482:
.LBB4481:
.LBB4480:
	.loc 6 197 0
	stw 0,944(28)
	.loc 6 198 0
	stw 0,932(28)
	.loc 6 199 0
	stw 0,936(28)
.LEHB88:
.LBE4480:
.LBE4481:
.LBE4482:
.LBE4483:
	.loc 9 48 0
	bl _ZN8idWindowD2Ev
.LEHE88:
.LBE4515:
.LBE4518:
.LBE4521:
	mr 3,28
	bl _ZN8idWindowdlEPv
	lwz 0,44(1)
	lwz 25,12(1)
	mtlr 0
	lwz 26,16(1)
.LVL1030:
	lwz 27,20(1)
	lwz 28,24(1)
.LVL1031:
	lwz 29,28(1)
	lwz 30,32(1)
	lwz 31,36(1)
	addi 1,1,40
	.cfi_remember_state
.LCFI67:
	.cfi_def_cfa_offset 0
	.cfi_restore 31
	.cfi_restore 30
	.cfi_restore 29
	.cfi_restore 28
	.cfi_restore 27
	.cfi_restore 26
	.cfi_restore 25
	blr
.LVL1032:
.L922:
.LCFI68:
	.cfi_restore_state
	mr 31,3
.LVL1033:
.LBB4522:
.LBB4519:
.LBB4516:
.LBB4484:
.LBB4485:
.LBB4486:
	.loc 4 501 0
	addi 3,28,1208
	bl _ZN5idStr8FreeDataEv
.LVL1034:
.L893:
.LBE4486:
.LBE4485:
.LBE4484:
.LBB4487:
.LBB4488:
.LBB4489:
	.loc 6 181 0
	addi 3,28,1192
	bl _ZN6idListIiE5ClearEv
.LVL1035:
.LBE4489:
.LBE4488:
.LBE4487:
.LBB4490:
.LBB4491:
.LBB4492:
	addi 3,28,1172
	bl _ZN6idListI5idStrE5ClearEv
.LVL1036:
.L896:
.LBE4492:
.LBE4491:
.LBE4490:
	.loc 9 48 0
	addi 3,28,1152
	bl _ZN11idHashTableIPK10idMaterialED1Ev
.L897:
.LVL1037:
.LBB4493:
.LBB4494:
.LBB4495:
	.loc 4 501 0
	addi 3,28,1120
	bl _ZN5idStr8FreeDataEv
.LVL1038:
.L899:
.LBE4495:
.LBE4494:
.LBE4493:
.LBB4496:
.LBB4497:
.LBB4498:
	addi 3,28,1088
	bl _ZN5idStr8FreeDataEv
.LVL1039:
.L901:
.LBE4498:
.LBE4497:
.LBE4496:
.LBB4499:
.LBB4500:
.LBB4501:
	addi 3,28,1056
	bl _ZN5idStr8FreeDataEv
.LVL1040:
.L903:
.LBE4501:
.LBE4500:
.LBE4499:
.LBB4502:
.LBB4503:
.LBB4504:
	addi 3,28,1024
	bl _ZN5idStr8FreeDataEv
.LVL1041:
.L905:
.LBE4504:
.LBE4503:
.LBE4502:
.LBB4505:
.LBB4506:
.LBB4507:
	addi 3,28,992
	bl _ZN5idStr8FreeDataEv
.LVL1042:
.L907:
.LBE4507:
.LBE4506:
.LBE4505:
.LBB4508:
.LBB4509:
.LBB4510:
	addi 3,28,960
	bl _ZN5idStr8FreeDataEv
.LVL1043:
.L909:
.LBE4510:
.LBE4509:
.LBE4508:
.LBB4511:
.LBB4512:
.LBB4513:
	.loc 6 181 0
	addi 3,28,932
	bl _ZN6idListI9idTabRectE5ClearEv
.LBE4513:
.LBE4512:
.LBE4511:
	.loc 9 48 0
	mr 3,28
	bl _ZN8idWindowD2Ev
	mr 3,31
.LEHB89:
	bl _Unwind_Resume
.LEHE89:
.LVL1044:
.L913:
	mr 31,3
	b .L909
.LVL1045:
.L914:
	mr 31,3
	b .L907
.LVL1046:
.L915:
	mr 31,3
	b .L905
.LVL1047:
.L916:
	mr 31,3
	b .L903
.LVL1048:
.L917:
	mr 31,3
	b .L901
.LVL1049:
.L918:
	mr 31,3
	b .L899
.LVL1050:
.L919:
	mr 31,3
.LVL1051:
	b .L897
.LVL1052:
.L920:
	mr 31,3
.LVL1053:
	b .L896
.LVL1054:
.L921:
	mr 31,3
	b .L893
.LBE4516:
.LBE4519:
.LBE4522:
	.cfi_endproc
.LFE3176:
	.section	.gcc_except_table
.LLSDA3176:
	.byte	0xff
	.byte	0xff
	.byte	0x1
	.uleb128 .LLSDACSE3176-.LLSDACSB3176
.LLSDACSB3176:
	.uleb128 .LEHB78-.LFB3176
	.uleb128 .LEHE78-.LEHB78
	.uleb128 .L922-.LFB3176
	.uleb128 0
	.uleb128 .LEHB79-.LFB3176
	.uleb128 .LEHE79-.LEHB79
	.uleb128 .L921-.LFB3176
	.uleb128 0
	.uleb128 .LEHB80-.LFB3176
	.uleb128 .LEHE80-.LEHB80
	.uleb128 .L920-.LFB3176
	.uleb128 0
	.uleb128 .LEHB81-.LFB3176
	.uleb128 .LEHE81-.LEHB81
	.uleb128 .L919-.LFB3176
	.uleb128 0
	.uleb128 .LEHB82-.LFB3176
	.uleb128 .LEHE82-.LEHB82
	.uleb128 .L918-.LFB3176
	.uleb128 0
	.uleb128 .LEHB83-.LFB3176
	.uleb128 .LEHE83-.LEHB83
	.uleb128 .L917-.LFB3176
	.uleb128 0
	.uleb128 .LEHB84-.LFB3176
	.uleb128 .LEHE84-.LEHB84
	.uleb128 .L916-.LFB3176
	.uleb128 0
	.uleb128 .LEHB85-.LFB3176
	.uleb128 .LEHE85-.LEHB85
	.uleb128 .L915-.LFB3176
	.uleb128 0
	.uleb128 .LEHB86-.LFB3176
	.uleb128 .LEHE86-.LEHB86
	.uleb128 .L914-.LFB3176
	.uleb128 0
	.uleb128 .LEHB87-.LFB3176
	.uleb128 .LEHE87-.LEHB87
	.uleb128 .L913-.LFB3176
	.uleb128 0
	.uleb128 .LEHB88-.LFB3176
	.uleb128 .LEHE88-.LEHB88
	.uleb128 0
	.uleb128 0
	.uleb128 .LEHB89-.LFB3176
	.uleb128 .LEHE89-.LEHB89
	.uleb128 0
	.uleb128 0
.LLSDACSE3176:
	.section	.text._ZN12idListWindowD0Ev,"axG",@progbits,_ZN12idListWindowD5Ev,comdat
	.size	_ZN12idListWindowD0Ev, .-_ZN12idListWindowD0Ev
	.section	.text.startup,"ax",@progbits
	.align 2
	.type	_GLOBAL__sub_I__ZN12idListWindow10CommonInitEv, @function
_GLOBAL__sub_I__ZN12idListWindow10CommonInitEv:
.LFB3199:
	.loc 3 629 0
	.cfi_startproc
.LVL1055:
.LBB4523:
.LBB4524:
	.file 13 "d:/Data/Nintendo/DoomGX/src/ui/Winvar.h"
	.loc 13 36 0
	li 0,5
	lis 9,.LANCHOR0@ha
	stw 0,.LANCHOR0@l(9)
.LBE4524:
.LBE4523:
	.loc 3 629 0
	blr
	.cfi_endproc
.LFE3199:
	.size	_GLOBAL__sub_I__ZN12idListWindow10CommonInitEv, .-_GLOBAL__sub_I__ZN12idListWindow10CommonInitEv
	.section	.ctors,"aw",@progbits
	.align 2
	.long	_GLOBAL__sub_I__ZN12idListWindow10CommonInitEv
	.weak	_ZTS9idWinding
	.section	.rodata._ZTS9idWinding,"aG",@progbits,_ZTS9idWinding,comdat
	.align 2
	.type	_ZTS9idWinding, @object
	.size	_ZTS9idWinding, 11
_ZTS9idWinding:
	.string	"9idWinding"
	.weak	_ZTI9idWinding
	.section	.sdata._ZTI9idWinding,"awG",@progbits,_ZTI9idWinding,comdat
	.align 2
	.type	_ZTI9idWinding, @object
	.size	_ZTI9idWinding, 8
_ZTI9idWinding:
	.long	_ZTVN10__cxxabiv117__class_type_infoE+8
	.long	_ZTS9idWinding
	.weak	_ZTS14idFixedWinding
	.section	.rodata._ZTS14idFixedWinding,"aG",@progbits,_ZTS14idFixedWinding,comdat
	.align 2
	.type	_ZTS14idFixedWinding, @object
	.size	_ZTS14idFixedWinding, 17
_ZTS14idFixedWinding:
	.string	"14idFixedWinding"
	.weak	_ZTI14idFixedWinding
	.section	.rodata._ZTI14idFixedWinding,"aG",@progbits,_ZTI14idFixedWinding,comdat
	.align 2
	.type	_ZTI14idFixedWinding, @object
	.size	_ZTI14idFixedWinding, 12
_ZTI14idFixedWinding:
	.long	_ZTVN10__cxxabiv120__si_class_type_infoE+8
	.long	_ZTS14idFixedWinding
	.long	_ZTI9idWinding
	.weak	_ZTS12idListWindow
	.section	.rodata._ZTS12idListWindow,"aG",@progbits,_ZTS12idListWindow,comdat
	.align 2
	.type	_ZTS12idListWindow, @object
	.size	_ZTS12idListWindow, 15
_ZTS12idListWindow:
	.string	"12idListWindow"
	.weak	_ZTI12idListWindow
	.section	.rodata._ZTI12idListWindow,"aG",@progbits,_ZTI12idListWindow,comdat
	.align 2
	.type	_ZTI12idListWindow, @object
	.size	_ZTI12idListWindow, 12
_ZTI12idListWindow:
	.long	_ZTVN10__cxxabiv120__si_class_type_infoE+8
	.long	_ZTS12idListWindow
	.long	_ZTI8idWindow
	.weak	_ZTV9idWinding
	.section	.rodata._ZTV9idWinding,"aG",@progbits,_ZTV9idWinding,comdat
	.align 3
	.type	_ZTV9idWinding, @object
	.size	_ZTV9idWinding, 24
_ZTV9idWinding:
	.long	0
	.long	_ZTI9idWinding
	.long	_ZN9idWindingD1Ev
	.long	_ZN9idWindingD0Ev
	.long	_ZN9idWinding5ClearEv
	.long	_ZN9idWinding10ReAllocateEib
	.weak	_ZTV14idFixedWinding
	.section	.rodata._ZTV14idFixedWinding,"aG",@progbits,_ZTV14idFixedWinding,comdat
	.align 3
	.type	_ZTV14idFixedWinding, @object
	.size	_ZTV14idFixedWinding, 24
_ZTV14idFixedWinding:
	.long	0
	.long	_ZTI14idFixedWinding
	.long	_ZN14idFixedWindingD1Ev
	.long	_ZN14idFixedWindingD0Ev
	.long	_ZN14idFixedWinding5ClearEv
	.long	_ZN14idFixedWinding10ReAllocateEib
	.weak	_ZTV12idListWindow
	.section	.rodata._ZTV12idListWindow,"aG",@progbits,_ZTV12idListWindow,comdat
	.align 3
	.type	_ZTV12idListWindow, @object
	.size	_ZTV12idListWindow, 144
_ZTV12idListWindow:
	.long	0
	.long	_ZTI12idListWindow
	.long	_ZN12idListWindowD1Ev
	.long	_ZN12idListWindowD0Ev
	.long	_ZN12idListWindow9AllocatedEv
	.long	_ZN12idListWindow15GetWinVarByNameEPKcbPP9drawWin_t
	.long	_ZN8idWindow5ParseEP8idParserb
	.long	_ZN12idListWindow11HandleEventEPK10sysEvent_tPb
	.long	_ZN8idWindow6RedrawEff
	.long	_ZN8idWindow19ArchiveToDictionaryEP6idDictb
	.long	_ZN8idWindow18InitFromDictionaryEP6idDictb
	.long	_ZN12idListWindow9PostParseEv
	.long	_ZN12idListWindow8ActivateEbR5idStr
	.long	_ZN8idWindow7TriggerEv
	.long	_ZN8idWindow9GainFocusEv
	.long	_ZN8idWindow9LoseFocusEv
	.long	_ZN8idWindow11GainCaptureEv
	.long	_ZN8idWindow11LoseCaptureEv
	.long	_ZN8idWindow5SizedEv
	.long	_ZN8idWindow5MovedEv
	.long	_ZN12idListWindow4DrawEiff
	.long	_ZN8idWindow9MouseExitEv
	.long	_ZN8idWindow10MouseEnterEv
	.long	_ZN8idWindow14DrawBackgroundERK11idRectangle
	.long	_ZN8idWindow16RouteMouseCoordsEff
	.long	_ZN8idWindow8SetBuddyEPS_
	.long	_ZN12idListWindow17HandleBuddyUpdateEP8idWindow
	.long	_ZN12idListWindow12StateChangedEb
	.long	_ZN8idWindow16ReadFromDemoFileEP10idDemoFileb
	.long	_ZN8idWindow15WriteToDemoFileEP10idDemoFile
	.long	_ZN8idWindow15WriteToSaveGameEP6idFile
	.long	_ZN8idWindow16ReadFromSaveGameEP6idFile
	.long	_ZN8idWindow9HasActionEv
	.long	_ZN8idWindow10HasScriptsEv
	.long	_ZN8idWindow13RunNamedEventEPKc
	.long	_ZN12idListWindow16ParseInternalVarEPKcP8idParser
	.weak	_ZN9idWindingD1Ev
	.set	_ZN9idWindingD1Ev,_ZN9idWindingD2Ev
	.weak	_ZN14idFixedWindingD1Ev
	.set	_ZN14idFixedWindingD1Ev,_ZN14idFixedWindingD2Ev
	.weak	_ZN11idHashTableIPK10idMaterialED1Ev
	.set	_ZN11idHashTableIPK10idMaterialED1Ev,_ZN11idHashTableIPK10idMaterialED2Ev
	.weak	_ZN12idListWindowD1Ev
	.set	_ZN12idListWindowD1Ev,_ZN12idListWindowD2Ev
	.globl _ZN12idListWindowC1EP20idUserInterfaceLocal
	.set	_ZN12idListWindowC1EP20idUserInterfaceLocal,_ZN12idListWindowC2EP20idUserInterfaceLocal
	.globl _ZN12idListWindowC1EP15idDeviceContextP20idUserInterfaceLocal
	.set	_ZN12idListWindowC1EP15idDeviceContextP20idUserInterfaceLocal,_ZN12idListWindowC2EP15idDeviceContextP20idUserInterfaceLocal
	.section	.rodata.cst4,"aM",@progbits,4
	.align 2
.LC0:
	.4byte	1077936128
.LC1:
	.4byte	1065353216
.LC4:
	.4byte	1501560836
.LC6:
	.4byte	1056964608
.LC7:
	.4byte	0
.LC8:
	.4byte	.LC2
.LC19:
	.4byte	-1073741824
	.section	.rodata.str1.4,"aMS",@progbits,1
	.align 2
.LC2:
	.string	"idListWindow::Draw: gui '%s' window '%s' tabInfo.Num() exceeded"
.LC5:
	.string	"_default"
	.zero	3
.LC9:
	.string	"horizontal"
	.zero	1
.LC10:
	.string	"listname"
	.zero	3
.LC11:
	.string	"tabstops"
	.zero	3
.LC12:
	.string	"tabaligns"
	.zero	2
.LC13:
	.string	"multipleSel"
.LC14:
	.string	"tabvaligns"
	.zero	1
.LC15:
	.string	"tabTypes"
	.zero	3
.LC16:
	.string	"tabIconSizes"
	.zero	3
.LC17:
	.string	"tabIconVOffset"
	.zero	1
.LC18:
	.string	"mtr_"
	.zero	3
.LC20:
	.string	""
	.zero	3
.LC21:
	.string	"%s_sel_%i"
	.zero	2
.LC22:
	.string	"%s_sel_0"
	.zero	3
.LC23:
	.string	"%s_numsel"
	.zero	2
.LC24:
	.string	"_scrollerWinH"
	.zero	2
.LC25:
	.string	"_scrollerWinV"
	.zero	2
.LC26:
	.string	"guis/assets/scrollbarv.tga"
	.zero	1
.LC27:
	.string	"guis/assets/scrollbar_thumb.tga"
.LC28:
	.string	"guis/assets/scrollbarh.tga"
	.zero	1
.LC29:
	.string	"0"
	.zero	2
.LC30:
	.string	"%s_item_%i"
	.zero	1
.LC31:
	.string	","
	.zero	2
.LC32:
	.string	"tabtypes"
	.zero	3
.LC33:
	.string	"tabiconsizes"
	.zero	3
.LC34:
	.string	"tabiconvoffsets"
	.section	".bss"
	.align 2
	.set	.LANCHOR0,. + 0
	.type	_ZL17VAR_GUIPREFIX_LEN, @object
	.size	_ZL17VAR_GUIPREFIX_LEN, 4
_ZL17VAR_GUIPREFIX_LEN:
	.zero	4
	.section	".text"
.Letext0:
	.file 14 "<built-in>"
	.file 15 "c:\\utils\\devkitpro\\devkitppc\\bin\\../lib/gcc/powerpc-eabi/4.6.3/include/stddef.h"
	.file 16 "c:\\utils\\devkitpro\\devkitppc\\bin\\../lib/gcc/powerpc-eabi/4.6.3/../../../../powerpc-eabi/include/sys/types.h"
	.file 17 "d:/Data/Nintendo/DoomGX/src/ui/../idlib/../sys/sys_public.h"
	.file 18 "d:/Data/Nintendo/DoomGX/src/ui/../idlib/../framework/Common.h"
	.file 19 "d:/Data/Nintendo/DoomGX/src/ui/../idlib/../framework/CVarSystem.h"
	.file 20 "d:/Data/Nintendo/DoomGX/src/ui/../idlib/../framework/FileSystem.h"
	.file 21 "d:/Data/Nintendo/DoomGX/src/ui/../idlib/../idlib/Lib.h"
	.file 22 "d:/Data/Nintendo/DoomGX/src/ui/../idlib/../idlib/CmdArgs.h"
	.file 23 "d:/Data/Nintendo/DoomGX/src/ui/../idlib/../idlib/math/Random.h"
	.file 24 "d:/Data/Nintendo/DoomGX/src/ui/../idlib/../idlib/math/Angles.h"
	.file 25 "d:/Data/Nintendo/DoomGX/src/ui/../idlib/../idlib/math/Matrix.h"
	.file 26 "d:/Data/Nintendo/DoomGX/src/ui/../idlib/../idlib/math/Quat.h"
	.file 27 "d:/Data/Nintendo/DoomGX/src/ui/../idlib/../idlib/math/Rotation.h"
	.file 28 "d:/Data/Nintendo/DoomGX/src/ui/../idlib/../idlib/math/Plane.h"
	.file 29 "d:/Data/Nintendo/DoomGX/src/ui/../idlib/../idlib/math/Ode.h"
	.file 30 "d:/Data/Nintendo/DoomGX/src/ui/../idlib/../idlib/bv/Sphere.h"
	.file 31 "d:/Data/Nintendo/DoomGX/src/ui/../idlib/../idlib/bv/Bounds.h"
	.file 32 "d:/Data/Nintendo/DoomGX/src/ui/../idlib/../idlib/bv/Box.h"
	.file 33 "d:/Data/Nintendo/DoomGX/src/ui/../idlib/../idlib/bv/Frustum.h"
	.file 34 "d:/Data/Nintendo/DoomGX/src/ui/../idlib/../idlib/geometry/DrawVert.h"
	.file 35 "d:/Data/Nintendo/DoomGX/src/ui/../idlib/../idlib/geometry/JointTransform.h"
	.file 36 "d:/Data/Nintendo/DoomGX/src/ui/../idlib/../idlib/geometry/Surface.h"
	.file 37 "d:/Data/Nintendo/DoomGX/src/ui/../idlib/../idlib/geometry/TraceModel.h"
	.file 38 "d:/Data/Nintendo/DoomGX/src/ui/../idlib/../idlib/Token.h"
	.file 39 "d:/Data/Nintendo/DoomGX/src/ui/../idlib/../idlib/Lexer.h"
	.file 40 "d:/Data/Nintendo/DoomGX/src/ui/../idlib/../framework/File.h"
	.file 41 "d:/Data/Nintendo/DoomGX/src/ui/../idlib/../idlib/Parser.h"
	.file 42 "d:/Data/Nintendo/DoomGX/src/ui/../idlib/../idlib/containers/HashIndex.h"
	.file 43 "d:/Data/Nintendo/DoomGX/src/ui/../idlib/../idlib/containers/StrList.h"
	.file 44 "d:/Data/Nintendo/DoomGX/src/ui/../idlib/../idlib/containers/StrPool.h"
	.file 45 "d:/Data/Nintendo/DoomGX/src/ui/../idlib/../idlib/containers/PlaneSet.h"
	.file 46 "d:/Data/Nintendo/DoomGX/src/ui/../idlib/../idlib/LangDict.h"
	.file 47 "d:/Data/Nintendo/DoomGX/src/ui/../idlib/../idlib/BitMsg.h"
	.file 48 "d:/Data/Nintendo/DoomGX/src/ui/../idlib/../idlib/MapFile.h"
	.file 49 "d:/Data/Nintendo/DoomGX/src/ui/../idlib/../framework/CmdSystem.h"
	.file 50 "d:/Data/Nintendo/DoomGX/src/ui/../idlib/../framework/UsercmdGen.h"
	.file 51 "d:/Data/Nintendo/DoomGX/src/ui/../idlib/../framework/DeclParticle.h"
	.file 52 "d:/Data/Nintendo/DoomGX/src/ui/../idlib/../renderer/RenderWorld.h"
	.file 53 "d:/Data/Nintendo/DoomGX/src/ui/../idlib/../renderer/Cinematic.h"
	.file 54 "d:/Data/Nintendo/DoomGX/src/ui/../idlib/../renderer/Model.h"
	.file 55 "d:/Data/Nintendo/DoomGX/src/ui/../idlib/../renderer/RenderSystem.h"
	.file 56 "d:/Data/Nintendo/DoomGX/src/ui/../idlib/../sound/sound.h"
	.file 57 "d:/Data/Nintendo/DoomGX/src/ui/../idlib/../ui/UserInterface.h"
	.file 58 "d:/Data/Nintendo/DoomGX/src/ui/../idlib/../cm/CollisionModel.h"
	.file 59 "d:/Data/Nintendo/DoomGX/src/ui/../idlib/../tools/compilers/aas/AASFile.h"
	.file 60 "d:/Data/Nintendo/DoomGX/src/ui/../idlib/../game/Game.h"
	.file 61 "d:/Data/Nintendo/DoomGX/src/ui/../idlib/../framework/async/NetworkSystem.h"
	.file 62 "d:/Data/Nintendo/DoomGX/src/ui/../idlib/../renderer/ModelManager.h"
	.file 63 "d:/Data/Nintendo/DoomGX/src/ui/../idlib/../tools/compilers/aas/AASFileManager.h"
	.file 64 "d:/Data/Nintendo/DoomGX/src/ui/../idlib/../framework/KeyInput.h"
	.file 65 "d:/Data/Nintendo/DoomGX/src/ui/../idlib/../framework/Session.h"
	.file 66 "d:/Data/Nintendo/DoomGX/src/ui/../idlib/../ui/ListGUI.h"
	.file 67 "d:/Data/Nintendo/DoomGX/src/ui/DeviceContext.h"
	.file 68 "d:/Data/Nintendo/DoomGX/src/ui/GuiScript.h"
	.file 69 "d:/Data/Nintendo/DoomGX/src/ui/SimpleWindow.h"
	.file 70 "d:/Data/Nintendo/DoomGX/src/ui/UserInterfaceLocal.h"
	.file 71 "d:/Data/Nintendo/DoomGX/src/ui/SliderWindow.h"
	.file 72 "d:/Data/Nintendo/DoomGX/src/ui/../idlib/../framework/Console.h"
	.file 73 "d:/Data/Nintendo/DoomGX/src/ui/../idlib/../idlib/math/Curve.h"
	.file 74 "d:/Data/Nintendo/DoomGX/src/ui/../idlib/../idlib/math/Simd.h"
	.file 75 "d:/Data/Nintendo/DoomGX/src/ui/../idlib/../framework/BuildVersion.h"
	.file 76 "d:/Data/Nintendo/DoomGX/src/ui/../idlib/precompiled.h"
	.file 77 "d:/Data/Nintendo/DoomGX/src/ui/../idlib/../framework/EventLoop.h"
	.file 78 "d:/Data/Nintendo/DoomGX/src/ui/../idlib/../framework/EditField.h"
	.file 79 "d:/Data/Nintendo/DoomGX/src/ui/../idlib/../framework/async/AsyncNetwork.h"
	.file 80 "d:/Data/Nintendo/DoomGX/src/ui/../idlib/../framework/async/AsyncServer.h"
	.file 81 "d:/Data/Nintendo/DoomGX/src/ui/../framework/Session_local.h"