	.file	"MapFile.cpp"
	.section	".text"
.Ltext0:
	.section	.text._ZN14idFixedWinding5ClearEv,"axG",@progbits,_ZN14idFixedWinding5ClearEv,comdat
	.align 2
	.weak	_ZN14idFixedWinding5ClearEv
	.type	_ZN14idFixedWinding5ClearEv, @function
_ZN14idFixedWinding5ClearEv:
.LFB1502:
	.file 1 "d:/Data/Nintendo/DoomGX/src/idlib/../idlib/geometry/Winding.h"
	.loc 1 398 0
	.cfi_startproc
.LVL0:
	.loc 1 399 0
	li 0,0
	.loc 1 400 0
	.loc 1 399 0
	stw 0,4(3)
	.loc 1 400 0
	blr
	.cfi_endproc
.LFE1502:
	.size	_ZN14idFixedWinding5ClearEv, .-_ZN14idFixedWinding5ClearEv
	.section	.text._ZN9idWinding5ClearEv,"axG",@progbits,_ZN9idWinding5ClearEv,comdat
	.align 2
	.weak	_ZN9idWinding5ClearEv
	.type	_ZN9idWinding5ClearEv, @function
_ZN9idWinding5ClearEv:
.LFB1473:
	.loc 1 249 0
	.cfi_startproc
.LVL1:
	mflr 0
	stwu 1,-16(1)
.LCFI0:
	.cfi_def_cfa_offset 16
	.cfi_register 65, 0
	stw 31,12(1)
	mr 31,3
	.cfi_offset 31, -4
	stw 0,20(1)
	.loc 1 250 0
	li 0,0
	.cfi_offset 65, 4
	.loc 1 251 0
	lwz 3,8(3)
.LVL2:
	.loc 1 250 0
	stw 0,4(31)
	.loc 1 251 0
	cmpwi 7,3,0
	beq- 7,.L3
	.loc 1 251 0 is_stmt 0 discriminator 1
	bl _ZdaPv
.L3:
	.loc 1 252 0 is_stmt 1
	li 0,0
	stw 0,8(31)
	.loc 1 253 0
	lwz 0,20(1)
	lwz 31,12(1)
.LVL3:
	mtlr 0
	addi 1,1,16
.LCFI1:
	.cfi_def_cfa_offset 0
	.cfi_restore 31
	blr
	.cfi_endproc
.LFE1473:
	.size	_ZN9idWinding5ClearEv, .-_ZN9idWinding5ClearEv
	.section	.text._ZN9idWindingD2Ev,"axG",@progbits,_ZN9idWindingD5Ev,comdat
	.align 2
	.weak	_ZN9idWindingD2Ev
	.type	_ZN9idWindingD2Ev, @function
_ZN9idWindingD2Ev:
.LFB1461:
	.loc 1 183 0
	.cfi_startproc
.LVL4:
	mflr 0
	stwu 1,-16(1)
.LCFI2:
	.cfi_def_cfa_offset 16
	.cfi_register 65, 0
.LBB1702:
	lis 9,_ZTV9idWinding+8@ha
.LBE1702:
	stw 31,12(1)
	mr 31,3
	.cfi_offset 31, -4
	stw 0,20(1)
.LBB1703:
	.loc 1 183 0
	la 0,_ZTV9idWinding+8@l(9)
	.cfi_offset 65, 4
	.loc 1 184 0
	lwz 3,8(3)
.LVL5:
	.loc 1 183 0
	stw 0,0(31)
	.loc 1 184 0
	cmpwi 7,3,0
	beq- 7,.L6
	.loc 1 184 0 is_stmt 0 discriminator 1
	bl _ZdaPv
.L6:
	.loc 1 185 0 is_stmt 1
	li 0,0
	stw 0,8(31)
.LBE1703:
	.loc 1 186 0
	lwz 0,20(1)
	lwz 31,12(1)
.LVL6:
	mtlr 0
	addi 1,1,16
.LCFI3:
	.cfi_def_cfa_offset 0
	.cfi_restore 31
	blr
	.cfi_endproc
.LFE1461:
	.size	_ZN9idWindingD2Ev, .-_ZN9idWindingD2Ev
	.section	.text._ZN14idFixedWindingD0Ev,"axG",@progbits,_ZN14idFixedWindingD5Ev,comdat
	.align 2
	.weak	_ZN14idFixedWindingD0Ev
	.type	_ZN14idFixedWindingD0Ev, @function
_ZN14idFixedWindingD0Ev:
.LFB1500:
	.loc 1 380 0
	.cfi_startproc
.LVL7:
	mflr 0
	stwu 1,-8(1)
.LCFI4:
	.cfi_def_cfa_offset 8
	.cfi_register 65, 0
.LBB1710:
.LBB1711:
.LBB1712:
.LBB1713:
.LBB1714:
.LBB1715:
	.loc 1 183 0
	lis 11,_ZTV9idWinding+8@ha
.LBE1715:
.LBE1714:
.LBE1713:
.LBE1712:
.LBE1711:
.LBE1710:
	.loc 1 380 0
	stw 0,12(1)
.LBB1721:
.LBB1720:
.LBB1719:
	.loc 1 381 0
	li 0,0
	.cfi_offset 65, 4
	stw 0,8(3)
.LVL8:
.LBB1718:
.LBB1717:
.LBB1716:
	.loc 1 183 0
	la 0,_ZTV9idWinding+8@l(11)
	stw 0,0(3)
.LBE1716:
.LBE1717:
.LBE1718:
.LBE1719:
.LBE1720:
.LBE1721:
	.loc 1 382 0
	bl _ZdlPv
.LVL9:
	lwz 0,12(1)
	addi 1,1,8
.LCFI5:
	.cfi_def_cfa_offset 0
	mtlr 0
	blr
	.cfi_endproc
.LFE1500:
	.size	_ZN14idFixedWindingD0Ev, .-_ZN14idFixedWindingD0Ev
	.section	.text._ZN14idFixedWindingD2Ev,"axG",@progbits,_ZN14idFixedWindingD5Ev,comdat
	.align 2
	.weak	_ZN14idFixedWindingD2Ev
	.type	_ZN14idFixedWindingD2Ev, @function
_ZN14idFixedWindingD2Ev:
.LFB1498:
	.loc 1 380 0
	.cfi_startproc
.LVL10:
.LBB1726:
	.loc 1 381 0
	li 0,0
.LBB1727:
.LBB1728:
.LBB1729:
	.loc 1 183 0
	lis 9,_ZTV9idWinding+8@ha
.LBE1729:
.LBE1728:
.LBE1727:
	.loc 1 381 0
	stw 0,8(3)
.LVL11:
.LBB1732:
.LBB1731:
.LBB1730:
	.loc 1 183 0
	la 0,_ZTV9idWinding+8@l(9)
	stw 0,0(3)
.LBE1730:
.LBE1731:
.LBE1732:
.LBE1726:
	.loc 1 382 0
	blr
	.cfi_endproc
.LFE1498:
	.size	_ZN14idFixedWindingD2Ev, .-_ZN14idFixedWindingD2Ev
	.section	.text._ZN9idWindingD0Ev,"axG",@progbits,_ZN9idWindingD5Ev,comdat
	.align 2
	.weak	_ZN9idWindingD0Ev
	.type	_ZN9idWindingD0Ev, @function
_ZN9idWindingD0Ev:
.LFB1463:
	.loc 1 183 0
	.cfi_startproc
.LVL12:
	mflr 0
	stwu 1,-16(1)
.LCFI6:
	.cfi_def_cfa_offset 16
	.cfi_register 65, 0
.LBB1736:
.LBB1737:
.LBB1738:
	lis 9,_ZTV9idWinding+8@ha
.LBE1738:
.LBE1737:
.LBE1736:
	stw 31,12(1)
	mr 31,3
	.cfi_offset 31, -4
.LVL13:
	stw 0,20(1)
.LBB1743:
.LBB1741:
.LBB1739:
	.loc 1 183 0
	la 0,_ZTV9idWinding+8@l(9)
	.cfi_offset 65, 4
	.loc 1 184 0
	lwz 3,8(3)
.LVL14:
	.loc 1 183 0
	stw 0,0(31)
	.loc 1 184 0
	cmpwi 7,3,0
	beq- 7,.L16
	bl _ZdaPv
.LVL15:
.L16:
	.loc 1 185 0
	li 0,0
.LBE1739:
.LBE1741:
.LBE1743:
	.loc 1 186 0
	mr 3,31
.LBB1744:
.LBB1742:
.LBB1740:
	.loc 1 185 0
	stw 0,8(31)
.LBE1740:
.LBE1742:
.LBE1744:
	.loc 1 186 0
	bl _ZdlPv
	lwz 0,20(1)
	lwz 31,12(1)
.LVL16:
	mtlr 0
	addi 1,1,16
.LCFI7:
	.cfi_def_cfa_offset 0
	.cfi_restore 31
	blr
	.cfi_endproc
.LFE1463:
	.size	_ZN9idWindingD0Ev, .-_ZN9idWindingD0Ev
	.section	.text._ZN15idSurface_PatchD2Ev,"axG",@progbits,_ZN15idSurface_PatchD5Ev,comdat
	.align 2
	.weak	_ZN15idSurface_PatchD2Ev
	.type	_ZN15idSurface_PatchD2Ev, @function
_ZN15idSurface_PatchD2Ev:
.LFB1552:
	.file 2 "d:/Data/Nintendo/DoomGX/src/idlib/../idlib/geometry/Surface_Patch.h"
	.loc 2 125 0
	.cfi_startproc
.LVL17:
	mflr 0
	stwu 1,-16(1)
.LCFI8:
	.cfi_def_cfa_offset 16
	.cfi_register 65, 0
	stw 31,12(1)
	mr 31,3
	.cfi_offset 31, -4
.LVL18:
	stw 0,20(1)
.LBB1783:
.LBB1784:
.LBB1785:
.LBB1786:
.LBB1787:
.LBB1788:
	.file 3 "d:/Data/Nintendo/DoomGX/src/idlib/../idlib/containers/List.h"
	.loc 3 193 0
	lwz 3,60(3)
.LVL19:
	cmpwi 7,3,0
	beq- 7,.L20
	.cfi_offset 65, 4
	.loc 3 194 0
	bl _ZdaPv
.LVL20:
.L20:
.LBE1788:
.LBE1787:
.LBE1786:
.LBE1785:
.LBB1795:
.LBB1796:
.LBB1797:
.LBB1798:
	.loc 3 193 0
	lwz 3,44(31)
.LBE1798:
.LBE1797:
.LBE1796:
.LBE1795:
.LBB1811:
.LBB1793:
.LBB1791:
.LBB1789:
	.loc 3 197 0
	li 0,0
	stw 0,60(31)
.LBE1789:
.LBE1791:
.LBE1793:
.LBE1811:
.LBB1812:
.LBB1807:
.LBB1803:
.LBB1799:
	.loc 3 193 0
	cmpwi 7,3,0
.LBE1799:
.LBE1803:
.LBE1807:
.LBE1812:
.LBB1813:
.LBB1794:
.LBB1792:
.LBB1790:
	.loc 3 198 0
	stw 0,48(31)
	.loc 3 199 0
	stw 0,52(31)
.LVL21:
.LBE1790:
.LBE1792:
.LBE1794:
.LBE1813:
.LBB1814:
.LBB1808:
.LBB1804:
.LBB1800:
	.loc 3 193 0
	beq- 7,.L22
	.loc 3 194 0
	bl _ZdaPv
.L22:
.LBE1800:
.LBE1804:
.LBE1808:
.LBE1814:
.LBB1815:
.LBB1816:
.LBB1817:
.LBB1818:
	.loc 3 193 0
	lwz 3,28(31)
.LBE1818:
.LBE1817:
.LBE1816:
.LBE1815:
.LBB1831:
.LBB1809:
.LBB1805:
.LBB1801:
	.loc 3 197 0
	li 0,0
	stw 0,44(31)
.LBE1801:
.LBE1805:
.LBE1809:
.LBE1831:
.LBB1832:
.LBB1827:
.LBB1823:
.LBB1819:
	.loc 3 193 0
	cmpwi 7,3,0
.LBE1819:
.LBE1823:
.LBE1827:
.LBE1832:
.LBB1833:
.LBB1810:
.LBB1806:
.LBB1802:
	.loc 3 198 0
	stw 0,32(31)
	.loc 3 199 0
	stw 0,36(31)
.LVL22:
.LBE1802:
.LBE1806:
.LBE1810:
.LBE1833:
.LBB1834:
.LBB1828:
.LBB1824:
.LBB1820:
	.loc 3 193 0
	beq- 7,.L24
	.loc 3 194 0
	bl _ZdaPv
.L24:
.LBE1820:
.LBE1824:
.LBE1828:
.LBE1834:
.LBB1835:
.LBB1836:
.LBB1837:
.LBB1838:
	.loc 3 193 0
	lwz 3,12(31)
.LBE1838:
.LBE1837:
.LBE1836:
.LBE1835:
.LBB1845:
.LBB1829:
.LBB1825:
.LBB1821:
	.loc 3 197 0
	li 0,0
	stw 0,28(31)
.LBE1821:
.LBE1825:
.LBE1829:
.LBE1845:
.LBB1846:
.LBB1843:
.LBB1841:
.LBB1839:
	.loc 3 193 0
	cmpwi 7,3,0
.LBE1839:
.LBE1841:
.LBE1843:
.LBE1846:
.LBB1847:
.LBB1830:
.LBB1826:
.LBB1822:
	.loc 3 198 0
	stw 0,16(31)
	.loc 3 199 0
	stw 0,20(31)
.LVL23:
.LBE1822:
.LBE1826:
.LBE1830:
.LBE1847:
.LBB1848:
.LBB1844:
.LBB1842:
.LBB1840:
	.loc 3 193 0
	beq- 7,.L26
	.loc 3 194 0
	bl _ZdaPv
.L26:
	.loc 3 197 0
	li 0,0
	stw 0,12(31)
	.loc 3 198 0
	stw 0,0(31)
	.loc 3 199 0
	stw 0,4(31)
.LBE1840:
.LBE1842:
.LBE1844:
.LBE1848:
.LBE1784:
.LBE1783:
	.loc 2 126 0
	lwz 0,20(1)
	lwz 31,12(1)
.LVL24:
	mtlr 0
	addi 1,1,16
.LCFI9:
	.cfi_def_cfa_offset 0
	.cfi_restore 31
	blr
	.cfi_endproc
.LFE1552:
	.size	_ZN15idSurface_PatchD2Ev, .-_ZN15idSurface_PatchD2Ev
	.section	".text"
	.align 2
	.globl _ZNK14idMapBrushSide17GetTextureVectorsEP6idVec4
	.type	_ZNK14idMapBrushSide17GetTextureVectorsEP6idVec4, @function
_ZNK14idMapBrushSide17GetTextureVectorsEP6idVec4:
.LFB2541:
	.file 4 "d:/Data/Nintendo/DoomGX/src/idlib/MapFile.cpp"
	.loc 4 95 0
	.cfi_startproc
.LVL25:
	stwu 1,-72(1)
.LCFI10:
	.cfi_def_cfa_offset 72
	mflr 0
.LBB1893:
.LBB1894:
.LBB1895:
.LBB1896:
.LBB1897:
	.file 5 "d:/Data/Nintendo/DoomGX/src/idlib/../idlib/math/Vector.h"
	.loc 5 402 0
	lfs 0,32(3)
.LBE1897:
.LBE1896:
	.loc 4 74 0
	lis 9,.LC0@ha
.LBE1895:
.LBE1894:
.LBE1893:
	.loc 4 95 0
	stw 30,24(1)
	mr 30,4
	.cfi_offset 30, -48
	.cfi_register 65, 0
.LBB1958:
.LBB1946:
.LBB1938:
.LBB1899:
.LBB1898:
	.loc 5 402 0
	stfs 0,8(1)
.LBE1898:
.LBE1899:
.LBE1938:
.LBE1946:
.LBE1958:
	.loc 4 95 0
	stw 0,76(1)
.LBB1959:
.LBB1947:
.LBB1939:
.LBB1900:
.LBB1901:
	.file 6 "d:/Data/Nintendo/DoomGX/src/idlib/../idlib/math/Math.h"
	.loc 6 781 0
	lwz 11,8(1)
.LBE1901:
.LBE1900:
	.loc 4 74 0
	lfs 0,.LC0@l(9)
.LBB1903:
.LBB1902:
	.loc 6 781 0
	rlwinm 0,11,0,1,31
	.cfi_offset 65, 4
.LBE1902:
.LBE1903:
.LBE1939:
.LBE1947:
.LBE1959:
	.loc 4 95 0
	stw 31,28(1)
.LBB1960:
.LBB1948:
.LBB1940:
	.loc 4 74 0
	stw 0,20(1)
.LBE1940:
.LBE1948:
.LBE1960:
	.loc 4 95 0
	mr 31,3
	.cfi_offset 31, -44
.LVL26:
	stfd 27,32(1)
.LBB1961:
.LBB1949:
.LBB1941:
	.loc 4 74 0
	lfs 10,20(1)
.LBE1941:
.LBE1949:
.LBE1961:
	.loc 4 95 0
	stfd 28,40(1)
.LBB1962:
.LBB1950:
.LBB1942:
	.loc 4 74 0
	fcmpu 7,10,0
.LBE1942:
.LBE1950:
.LBE1962:
	.loc 4 95 0
	stfd 29,48(1)
	stfd 30,56(1)
	stfd 31,64(1)
.LBB1963:
.LBB1951:
.LBB1943:
	.loc 4 74 0
	bnl- 7,.L31
	.cfi_offset 63, -8
	.cfi_offset 62, -16
	.cfi_offset 61, -24
	.cfi_offset 60, -32
	.cfi_offset 59, -40
	li 0,0
.LVL27:
	stw 0,8(1)
.L31:
.LVL28:
.LBB1904:
.LBB1905:
	.loc 5 402 0
	lfs 0,36(31)
	stfs 0,12(1)
.LVL29:
.LBE1905:
.LBE1904:
	.loc 4 75 0
	lfs 0,.LC0@l(9)
.LBB1906:
.LBB1907:
	.loc 6 781 0
	lwz 11,12(1)
	rlwinm 0,11,0,1,31
.LBE1907:
.LBE1906:
	.loc 4 75 0
	stw 0,20(1)
	lfs 10,20(1)
	fcmpu 7,10,0
	bnl- 7,.L33
	li 0,0
	stw 0,12(1)
.L33:
.LVL30:
.LBB1908:
.LBB1909:
	.loc 5 402 0
	lwz 0,40(31)
.LVL31:
.LBE1909:
.LBE1908:
	.loc 4 76 0
	lfs 0,.LC0@l(9)
.LBB1910:
.LBB1911:
	.loc 6 781 0
	rlwinm 9,0,0,1,31
.LBE1911:
.LBE1910:
	.loc 4 76 0
	stw 9,20(1)
	lfs 10,20(1)
	fcmpu 7,10,0
	bnl+ 7,.L35
	li 0,0
.L35:
.LVL32:
	.loc 4 78 0
	lfs 12,8(1)
.LBB1912:
.LBB1913:
.LBB1914:
.LBB1915:
	.loc 6 276 0
	lis 11,_ZN6idMath5iSqrtE@ha
.LBE1915:
.LBE1914:
.LBE1913:
.LBE1912:
	.loc 4 78 0
	lfs 13,12(1)
.LBB1933:
.LBB1928:
.LBB1922:
.LBB1916:
	.loc 6 276 0
	la 11,_ZN6idMath5iSqrtE@l(11)
.LBE1916:
.LBE1922:
.LBE1928:
.LBE1933:
	.loc 4 78 0
	fmuls 0,12,12
	fmadds 0,13,13,0
	stfs 0,16(1)
.LVL33:
.LBB1934:
.LBB1929:
.LBB1923:
.LBB1917:
	.loc 6 270 0
	lwz 9,16(1)
.LVL34:
	.loc 6 276 0
	rlwinm 10,9,9,24,31
	rlwinm 9,9,19,21,29
	lwzx 11,11,9
	subfic 9,10,380
	rlwinm 9,9,22,0,8
	.loc 6 275 0
	lis 10,.LC1@ha
	.loc 6 276 0
	or 9,9,11
	.loc 6 275 0
	lfs 11,.LC1@l(10)
	.loc 6 277 0
	stw 9,20(1)
	.loc 6 278 0
	lis 9,.LC3@ha
	.loc 6 275 0
	fmuls 11,0,11
.LVL35:
	.loc 6 278 0
	lfs 12,.LC3@l(9)
	.loc 6 277 0
	lfs 0,20(1)
.LVL36:
.LBE1917:
.LBE1923:
.LBE1929:
.LBE1934:
	.loc 4 78 0
	stw 0,20(1)
.LBB1935:
.LBB1930:
.LBB1924:
.LBB1918:
	.loc 6 277 0
	fmr 13,0
.LVL37:
	.loc 4 95 0
	fneg 11,11
.LVL38:
.LBE1918:
.LBE1924:
.LBE1930:
.LBE1935:
	.loc 4 78 0
	lfs 10,20(1)
.LBB1936:
.LBB1931:
.LBB1925:
.LBB1919:
	.loc 6 278 0
	fmul 0,13,13
.LVL39:
.LBE1919:
.LBE1925:
.LBE1931:
.LBE1936:
	.loc 4 78 0
	fmr 1,10
.LBB1937:
.LBB1932:
.LBB1926:
.LBB1920:
	.loc 6 278 0
	fmadd 0,11,0,12
	fmul 0,13,0
.LVL40:
	.loc 6 279 0
	fmul 2,0,0
	fmadd 2,11,2,12
.LVL41:
.LBE1920:
.LBE1926:
	.loc 6 303 0
	lfs 12,16(1)
.LBB1927:
.LBB1921:
	.loc 6 279 0
	fmul 2,0,2
.LVL42:
	.loc 6 280 0
	frsp 2,2
.LVL43:
.LBE1921:
.LBE1927:
	.loc 6 303 0
	fmuls 2,12,2
.LBE1932:
.LBE1937:
	.loc 4 78 0
	bl atan2
.LVL44:
	.loc 4 79 0
	lfs 2,8(1)
	.loc 4 78 0
	fmr 31,1
.LVL45:
	.loc 4 79 0
	lfs 1,12(1)
.LVL46:
	bl atan2
.LVL47:
	frsp 30,1
	.loc 4 78 0
	frsp 31,31
.LVL48:
	.loc 4 81 0
	fmr 1,30
.LVL49:
	.loc 4 78 0
	fneg 31,31
.LVL50:
	.loc 4 81 0
	bl sin
	fmr 29,1
	.loc 4 82 0
	fmr 1,30
	.loc 4 81 0
	frsp 27,29
	.loc 4 82 0
	bl cos
	fmr 30,1
.LVL51:
	frsp 28,1
	.loc 4 85 0
	fmr 1,31
	.loc 4 81 0
	fneg 27,27
.LVL52:
	.loc 4 85 0
	bl sin
	fneg 0,1
	.loc 4 87 0
	fmr 1,31
	.loc 4 85 0
	fmul 30,30,0
	.loc 4 86 0
	fmul 31,29,0
.LVL53:
	.loc 4 87 0
	bl cos
.LBE1943:
.LBE1951:
	.loc 4 103 0
	lis 9,.LC4@ha
.LBB1952:
.LBB1944:
	.loc 4 87 0
	mr 4,30
	frsp 1,1
.LBE1944:
.LBE1952:
	.loc 4 103 0
	lfs 8,.LC4@l(9)
.LBB1953:
.LBB1945:
	.loc 4 85 0
	frsp 30,30
.LVL54:
	.loc 4 100 0
	li 11,0
	.loc 4 86 0
	frsp 31,31
.LVL55:
	.loc 4 87 0
	fneg 1,1
.LVL56:
.L37:
.LBE1945:
.LBE1953:
	.loc 4 101 0 discriminator 2
	mulli 9,11,12
	.loc 4 100 0 discriminator 2
	cmpwi 7,11,1
	addi 11,11,1
	.loc 4 101 0 discriminator 2
	addi 0,9,48
	add 9,31,0
.LVL57:
	lfsx 0,31,0
	lfs 13,4(9)
	fmuls 13,30,13
	fmadds 13,0,27,13
	stfs 13,0(4)
.LVL58:
	.loc 4 102 0 discriminator 2
	lfs 12,4(9)
	lfsx 0,31,0
	fmuls 12,31,12
	fmadds 12,0,28,12
	stfs 12,4(4)
.LVL59:
	.loc 4 103 0 discriminator 2
	lfs 0,4(9)
	lfsx 11,31,0
	fmuls 0,1,0
	fmadds 0,11,8,0
	stfs 0,8(4)
.LVL60:
.LBB1954:
.LBB1955:
	.loc 5 435 0 discriminator 2
	lfs 11,76(31)
.LBE1955:
.LBE1954:
	lfs 9,72(31)
.LBB1957:
.LBB1956:
	fmuls 12,12,11
.LBE1956:
.LBE1957:
	lfs 10,80(31)
	.loc 4 104 0 discriminator 2
	lfs 11,8(9)
	.loc 5 435 0 discriminator 2
	fmadds 13,13,9,12
	fmadds 0,0,10,13
	.loc 4 104 0 discriminator 2
	fadds 0,11,0
	stfs 0,12(4)
	.loc 4 100 0 discriminator 2
	addi 4,4,16
	bne- 7,.L37
.LBE1963:
	.loc 4 106 0
	lwz 0,76(1)
	lwz 30,24(1)
.LVL61:
	mtlr 0
	lwz 31,28(1)
.LVL62:
	lfd 27,32(1)
	lfd 28,40(1)
	lfd 29,48(1)
	lfd 30,56(1)
	lfd 31,64(1)
	addi 1,1,72
.LCFI11:
	.cfi_def_cfa_offset 0
	.cfi_restore 63
	.cfi_restore 62
	.cfi_restore 61
	.cfi_restore 60
	.cfi_restore 59
	.cfi_restore 31
	.cfi_restore 30
	blr
	.cfi_endproc
.LFE2541:
	.size	_ZNK14idMapBrushSide17GetTextureVectorsEP6idVec4, .-_ZNK14idMapBrushSide17GetTextureVectorsEP6idVec4
	.align 2
	.globl _ZNK10idMapPatch5WriteEP6idFileiRK6idVec3
	.type	_ZNK10idMapPatch5WriteEP6idFileiRK6idVec3, @function
_ZNK10idMapPatch5WriteEP6idFileiRK6idVec3:
.LFB2543:
	.loc 4 223 0
	.cfi_startproc
.LVL63:
	mflr 0
	stwu 1,-40(1)
.LCFI12:
	.cfi_def_cfa_offset 40
	.cfi_register 65, 0
	stw 29,28(1)
	mr 29,4
	.cfi_offset 29, -12
	stw 30,32(1)
	mr 30,6
	.cfi_offset 30, -8
	stw 31,36(1)
	mr 31,3
	.cfi_offset 31, -4
	stw 0,44(1)
	stw 24,8(1)
	stw 25,12(1)
	stw 26,16(1)
	stw 27,20(1)
	stw 28,24(1)
.LBB1964:
	.loc 4 227 0
	lbz 0,176(3)
	.cfi_offset 28, -16
	.cfi_offset 27, -20
	.cfi_offset 26, -24
	.cfi_offset 25, -28
	.cfi_offset 24, -32
	.cfi_offset 65, 4
	.loc 4 228 0
	lwz 9,0(4)
	.loc 4 227 0
	cmpwi 7,0,0
	beq- 7,.L43
	.loc 4 228 0
	lwz 0,64(9)
	lis 4,.LC5@ha
.LVL64:
	la 4,.LC5@l(4)
	mr 3,29
.LVL65:
	mtctr 0
	crxor 6,6,6
	bctrl
.LVL66:
	.loc 4 229 0
	lwz 9,0(29)
	lis 4,.LC6@ha
	mr 3,29
	lwz 0,64(9)
	la 4,.LC6@l(4)
	lwz 5,140(31)
	lwz 6,116(31)
	mtctr 0
	lwz 7,120(31)
	lwz 8,168(31)
	lwz 9,172(31)
	crxor 6,6,6
	bctrl
.LVL67:
.L44:
	.loc 4 235 0
	lwz 9,0(29)
	lis 4,.LC9@ha
	mr 3,29
	la 4,.LC9@l(4)
	lwz 0,64(9)
	mtctr 0
	crxor 6,6,6
	bctrl
.LVL68:
	.loc 4 236 0
	lwz 0,116(31)
	cmpwi 7,0,0
	ble- 7,.L45
	lis 24,.LC10@ha
	lis 25,.LC12@ha
	lis 26,.LC11@ha
	li 27,0
	la 24,.LC10@l(24)
	la 25,.LC12@l(25)
	la 26,.LC11@l(26)
.LVL69:
.L48:
	.loc 4 237 0
	lwz 9,0(29)
	mr 3,29
	mr 4,24
	lwz 0,64(9)
	mtctr 0
	crxor 6,6,6
	bctrl
.LVL70:
	.loc 4 238 0
	lwz 0,120(31)
	cmpwi 7,0,0
	ble- 7,.L46
	lwz 0,116(31)
	li 28,0
	b .L47
.LVL71:
.L50:
	lwz 0,116(31)
.LVL72:
.L47:
	.loc 4 239 0 discriminator 2
	mullw 0,28,0
.LVL73:
.LBB1965:
.LBB1966:
	.loc 3 573 0 discriminator 2
	lwz 11,64(31)
.LBE1966:
.LBE1965:
	.loc 4 241 0 discriminator 2
	lfs 12,0(30)
	mr 3,29
	lfs 13,4(30)
	mr 4,26
	lfs 0,8(30)
	.loc 4 238 0 discriminator 2
	addi 28,28,1
	.loc 4 239 0 discriminator 2
	add 0,0,27
.LVL74:
.LBB1968:
.LBB1967:
	.loc 3 573 0 discriminator 2
	mulli 0,0,60
.LVL75:
	add 9,11,0
.LVL76:
.LBE1967:
.LBE1968:
	.loc 4 241 0 discriminator 2
	lfsx 1,11,0
	lwz 11,0(29)
	lfs 2,4(9)
	fadds 1,1,12
	lwz 0,64(11)
	lfs 3,8(9)
	fadds 2,2,13
	mtctr 0
	lfs 4,12(9)
	fadds 3,3,0
	lfs 5,16(9)
	creqv 6,6,6
	bctrl
.LVL77:
	.loc 4 238 0 discriminator 2
	lwz 0,120(31)
	cmpw 7,0,28
	bgt+ 7,.L50
.LVL78:
.L46:
	.loc 4 243 0
	lwz 9,0(29)
	mr 3,29
	mr 4,25
	.loc 4 236 0
	addi 27,27,1
	.loc 4 243 0
	lwz 0,64(9)
	mtctr 0
	crxor 6,6,6
	bctrl
.LVL79:
	.loc 4 236 0
	lwz 0,116(31)
	cmpw 7,0,27
	bgt+ 7,.L48
.LVL80:
.L45:
	.loc 4 245 0
	lwz 9,0(29)
	lis 4,.LC13@ha
	mr 3,29
	la 4,.LC13@l(4)
	lwz 0,64(9)
	mtctr 0
	crxor 6,6,6
	bctrl
.LBE1964:
	.loc 4 248 0
	lwz 0,44(1)
	lwz 24,8(1)
	li 3,1
	mtlr 0
	lwz 25,12(1)
	lwz 26,16(1)
	lwz 27,20(1)
	lwz 28,24(1)
	lwz 29,28(1)
.LVL81:
	lwz 30,32(1)
.LVL82:
	lwz 31,36(1)
.LVL83:
	addi 1,1,40
	.cfi_remember_state
.LCFI13:
	.cfi_def_cfa_offset 0
	.cfi_restore 31
	.cfi_restore 30
	.cfi_restore 29
	.cfi_restore 28
	.cfi_restore 27
	.cfi_restore 26
	.cfi_restore 25
	.cfi_restore 24
	blr
.LVL84:
.L43:
.LCFI14:
	.cfi_restore_state
.LBB1969:
	.loc 4 231 0
	lwz 0,64(9)
	lis 4,.LC7@ha
.LVL85:
	la 4,.LC7@l(4)
	mr 3,29
.LVL86:
	mtctr 0
	crxor 6,6,6
	bctrl
.LVL87:
	.loc 4 232 0
	lwz 9,0(29)
	lis 4,.LC8@ha
	mr 3,29
	lwz 0,64(9)
	la 4,.LC8@l(4)
	lwz 5,140(31)
	lwz 6,116(31)
	mtctr 0
	lwz 7,120(31)
	crxor 6,6,6
	bctrl
	b .L44
.LBE1969:
	.cfi_endproc
.LFE2543:
	.size	_ZNK10idMapPatch5WriteEP6idFileiRK6idVec3, .-_ZNK10idMapPatch5WriteEP6idFileiRK6idVec3
	.align 2
	.globl _ZNK10idMapPatch14GetGeometryCRCEv
	.type	_ZNK10idMapPatch14GetGeometryCRCEv, @function
_ZNK10idMapPatch14GetGeometryCRCEv:
.LFB2544:
	.loc 4 255 0
	.cfi_startproc
.LVL88:
	stwu 1,-16(1)
.LCFI15:
	.cfi_def_cfa_offset 16
	stw 30,8(1)
	stw 31,12(1)
.LBB1970:
	.loc 4 973 0
	lwz 31,116(3)
	.cfi_offset 31, -4
	.cfi_offset 30, -8
	.loc 4 259 0
	lwz 10,172(3)
	.loc 4 260 0
	cmpwi 7,31,0
	.loc 4 259 0
	lwz 0,168(3)
	xor 10,10,0
.LVL89:
	.loc 4 260 0
	ble- 7,.L52
	lwz 30,120(3)
	.loc 4 255 0
	mulli 5,31,60
	.loc 4 260 0
	li 12,0
	li 4,0
	cmpwi 6,30,0
.LVL90:
.L53:
	.loc 4 261 0 discriminator 1
	ble- 6,.L55
	.loc 4 261 0 is_stmt 0
	lwz 11,64(3)
.LBE1970:
	.loc 4 255 0 is_stmt 1
	mtctr 30
	mr 0,12
.LVL91:
.L54:
.LBB1977:
.LBB1971:
.LBB1972:
	.loc 3 573 0 discriminator 2
	add 9,11,0
.LVL92:
.LBE1972:
.LBE1971:
	.loc 4 262 0 discriminator 2
	lwzx 7,11,0
	lwz 6,4(9)
	.loc 4 261 0 discriminator 2
	add 0,0,5
	.loc 4 263 0 discriminator 2
	lwz 8,8(9)
	.loc 4 262 0 discriminator 2
	xor 9,6,7
.LVL93:
	.loc 4 263 0 discriminator 2
	xor 9,9,8
	.loc 4 264 0 discriminator 2
	xor 10,10,9
.LVL94:
	.loc 4 261 0 discriminator 2
	bdnz .L54
.LVL95:
.L55:
	.loc 4 260 0
	addi 4,4,1
.LVL96:
	addi 12,12,60
	cmpw 7,4,31
	bne+ 7,.L53
.LVL97:
.L52:
.LBB1973:
.LBB1974:
	.loc 4 973 0
	lwz 8,140(3)
.LVL98:
.LBE1974:
.LBE1973:
.LBB1975:
.LBB1976:
	.loc 4 53 0
	li 3,0
.LVL99:
	.loc 4 55 0
	lbz 0,0(8)
	cmpwi 7,0,0
	beq- 7,.L56
	li 9,0
.LVL100:
.L57:
	.loc 4 56 0
	rlwinm 11,9,0,30,31
	.loc 4 55 0
	addi 9,9,1
	.loc 4 56 0
	slw 11,0,11
	.loc 4 55 0
	lbzx 0,8,9
	.loc 4 56 0
	xor 3,3,11
.LVL101:
	.loc 4 55 0
	cmpwi 7,0,0
	bne+ 7,.L57
.LVL102:
.L56:
.LBE1976:
.LBE1975:
.LBE1977:
	.loc 4 271 0
	lwz 30,8(1)
	xor 3,3,10
.LVL103:
	lwz 31,12(1)
	addi 1,1,16
.LCFI16:
	.cfi_def_cfa_offset 0
	.cfi_restore 31
	.cfi_restore 30
	blr
	.cfi_endproc
.LFE2544:
	.size	_ZNK10idMapPatch14GetGeometryCRCEv, .-_ZNK10idMapPatch14GetGeometryCRCEv
	.align 2
	.globl _ZNK10idMapBrush5WriteEP6idFileiRK6idVec3
	.type	_ZNK10idMapBrush5WriteEP6idFileiRK6idVec3, @function
_ZNK10idMapBrush5WriteEP6idFileiRK6idVec3:
.LFB2547:
	.loc 4 487 0
	.cfi_startproc
.LVL104:
	mflr 0
	stwu 1,-32(1)
.LCFI17:
	.cfi_def_cfa_offset 32
	.cfi_register 65, 0
	stw 30,24(1)
	mr 30,3
	.cfi_offset 30, -8
	stw 31,28(1)
.LBB1978:
	.loc 4 491 0
	mr 3,4
.LVL105:
.LBE1978:
	.loc 4 487 0
	stw 0,36(1)
	mr 31,4
	.cfi_offset 65, 4
	.cfi_offset 31, -4
	stw 26,8(1)
	stw 27,12(1)
	stw 28,16(1)
	stw 29,20(1)
.LBB1989:
	.loc 4 491 0
	lwz 9,0(4)
	lis 4,.LC14@ha
.LVL106:
	la 4,.LC14@l(4)
	lwz 0,64(9)
	mtctr 0
	.cfi_offset 29, -12
	.cfi_offset 28, -16
	.cfi_offset 27, -20
	.cfi_offset 26, -24
	crxor 6,6,6
	bctrl
.LVL107:
	.loc 4 494 0
	lwz 0,4(30)
	cmpwi 7,0,0
	ble- 7,.L63
	lis 28,.LC15@ha
	li 29,0
	la 28,.LC15@l(28)
.LVL108:
.L64:
.LBB1979:
.LBB1980:
.LBB1981:
	.loc 3 573 0 discriminator 2
	lwz 9,16(30)
	.loc 4 487 0 discriminator 2
	slwi 0,29,3
.LBE1981:
.LBE1980:
.LBE1979:
	.loc 4 495 0 discriminator 2
	lwz 10,0(31)
	mr 3,31
.LBB1984:
.LBB1983:
.LBB1982:
	.loc 3 573 0 discriminator 2
	add 8,9,0
.LVL109:
.LBE1982:
.LBE1983:
.LBE1984:
	.loc 4 973 0 discriminator 2
	lwzx 11,9,0
	.loc 4 495 0 discriminator 2
	lwz 0,64(10)
	mr 4,28
	.loc 4 973 0 discriminator 2
	lwz 9,4(8)
	.loc 4 494 0 discriminator 2
	addi 29,29,1
.LVL110:
	.loc 4 495 0 discriminator 2
	mtctr 0
	lwz 5,4(11)
	lwz 6,4(9)
	crxor 6,6,6
	bctrl
.LVL111:
	.loc 4 494 0 discriminator 2
	lwz 0,4(30)
	cmpw 7,29,0
	blt+ 7,.L64
.LVL112:
.L63:
	.loc 4 499 0 discriminator 1
	lwz 0,56(30)
	cmpwi 7,0,0
	ble- 7,.L65
	lis 27,.LC16@ha
	lis 28,.LC17@ha
	.loc 4 499 0 is_stmt 0
	li 29,0
	la 27,.LC16@l(27)
	la 28,.LC17@l(28)
.LVL113:
.L66:
.LBB1985:
.LBB1986:
	.file 7 "d:/Data/Nintendo/DoomGX/src/idlib/../idlib/MapFile.h"
	.loc 7 108 0 is_stmt 1
	lwz 9,68(30)
	slwi 0,29,2
.LBE1986:
.LBE1985:
	.loc 4 501 0
	mr 4,27
	mr 3,31
.LBB1988:
.LBB1987:
	.loc 7 108 0
	lwzx 26,9,0
.LVL114:
.LBE1987:
.LBE1988:
	.loc 4 499 0
	addi 29,29,1
.LVL115:
	.loc 4 501 0
	lwz 9,0(31)
	lfs 1,32(26)
	lwz 0,64(9)
.LVL116:
	lfs 2,36(26)
	mtctr 0
	lfs 3,40(26)
	lfs 4,44(26)
	creqv 6,6,6
	bctrl
.LVL117:
	.loc 4 505 0
	lwz 9,0(31)
	mr 3,31
	mr 4,28
	lwz 0,64(9)
	lfs 1,48(26)
	mtctr 0
	lfs 2,52(26)
	lfs 3,56(26)
	lfs 4,60(26)
	lfs 5,64(26)
	lfs 6,68(26)
	lwz 5,4(26)
	creqv 6,6,6
	bctrl
.LVL118:
	.loc 4 499 0
	lwz 0,56(30)
	cmpw 7,29,0
	blt+ 7,.L66
.LVL119:
.L65:
	.loc 4 508 0
	lwz 9,0(31)
	lis 4,.LC18@ha
	mr 3,31
	la 4,.LC18@l(4)
	lwz 0,64(9)
	mtctr 0
	crxor 6,6,6
	bctrl
.LBE1989:
	.loc 4 511 0
	lwz 0,36(1)
	lwz 26,8(1)
	li 3,1
	mtlr 0
	lwz 27,12(1)
	lwz 28,16(1)
	lwz 29,20(1)
	lwz 30,24(1)
.LVL120:
	lwz 31,28(1)
.LVL121:
	addi 1,1,32
.LCFI18:
	.cfi_def_cfa_offset 0
	.cfi_restore 31
	.cfi_restore 30
	.cfi_restore 29
	.cfi_restore 28
	.cfi_restore 27
	.cfi_restore 26
	blr
	.cfi_endproc
.LFE2547:
	.size	_ZNK10idMapBrush5WriteEP6idFileiRK6idVec3, .-_ZNK10idMapBrush5WriteEP6idFileiRK6idVec3
	.align 2
	.globl _ZNK10idMapBrush14GetGeometryCRCEv
	.type	_ZNK10idMapBrush14GetGeometryCRCEv, @function
_ZNK10idMapBrush14GetGeometryCRCEv:
.LFB2548:
	.loc 4 518 0
	.cfi_startproc
.LVL122:
.LBB1990:
.LBB1991:
	.loc 4 973 0
	lwz 5,56(3)
.LBE1991:
	.loc 4 523 0
	li 7,0
	.loc 4 524 0
	cmpwi 7,5,0
	ble- 7,.L70
.LVL123:
	lwz 4,68(3)
	li 6,0
.LVL124:
.L74:
.LBB1992:
.LBB1993:
	.loc 7 108 0
	slwi 0,6,2
	li 9,0
	lwzx 10,4,0
.LVL125:
	li 0,4
.LVL126:
	mtctr 0
.LVL127:
.L71:
.LBE1993:
.LBE1992:
.LBB1994:
.LBB1995:
	.file 8 "d:/Data/Nintendo/DoomGX/src/idlib/../idlib/math/Plane.h"
	.loc 8 155 0
	add 11,10,9
.LBE1995:
.LBE1994:
	.loc 4 527 0
	addi 9,9,4
.LVL128:
	lwz 0,32(11)
	xor 7,7,0
.LVL129:
	.loc 4 526 0
	bdnz .L71
.LVL130:
.LBB1996:
.LBB1997:
	.loc 4 973 0
	lwz 8,4(10)
.LVL131:
.LBE1997:
.LBE1996:
.LBB1998:
.LBB1999:
	.loc 4 53 0
	li 11,0
	.loc 4 55 0
	lbz 0,0(8)
	cmpwi 7,0,0
	beq- 7,.L72
	li 9,0
.LVL132:
.L73:
	.loc 4 56 0
	rlwinm 10,9,0,30,31
	.loc 4 55 0
	addi 9,9,1
	.loc 4 56 0
	slw 10,0,10
	.loc 4 55 0
	lbzx 0,8,9
	.loc 4 56 0
	xor 11,11,10
.LVL133:
	.loc 4 55 0
	cmpwi 7,0,0
	bne+ 7,.L73
.LVL134:
.L72:
.LBE1999:
.LBE1998:
	.loc 4 524 0
	addi 6,6,1
.LVL135:
	.loc 4 529 0
	xor 7,7,11
.LVL136:
	.loc 4 524 0
	cmpw 7,6,5
	bne+ 7,.L74
.LVL137:
.L70:
.LBE1990:
	.loc 4 533 0
	mr 3,7
.LVL138:
	blr
	.cfi_endproc
.LFE2548:
	.size	_ZNK10idMapBrush14GetGeometryCRCEv, .-_ZNK10idMapBrush14GetGeometryCRCEv
	.align 2
	.globl _ZNK11idMapEntity5WriteEP6idFilei
	.type	_ZNK11idMapEntity5WriteEP6idFilei, @function
_ZNK11idMapEntity5WriteEP6idFilei:
.LFB2550:
	.loc 4 648 0
	.cfi_startproc
.LVL139:
	mflr 0
	stwu 1,-40(1)
.LCFI19:
	.cfi_def_cfa_offset 40
	.cfi_register 65, 0
	stw 29,28(1)
	mr 29,4
	.cfi_offset 29, -12
	stw 30,32(1)
	mr 30,3
	.cfi_offset 30, -8
	stw 0,44(1)
.LBB2000:
	.loc 4 653 0
	mr 3,4
.LVL140:
.LBE2000:
	.loc 4 648 0
	stw 28,24(1)
	stw 31,36(1)
.LBB2011:
	.loc 4 653 0
	lwz 9,0(4)
	lis 4,.LC19@ha
.LVL141:
	la 4,.LC19@l(4)
	lwz 0,64(9)
	.cfi_offset 31, -4
	.cfi_offset 28, -16
	.cfi_offset 65, 4
	mtctr 0
	crxor 6,6,6
	bctrl
.LVL142:
	.loc 4 656 0
	lwz 0,0(30)
	cmpwi 7,0,0
	ble- 7,.L81
	lis 28,.LC20@ha
	li 31,0
	la 28,.LC20@l(28)
.LVL143:
.L82:
.LBB2001:
.LBB2002:
.LBB2003:
	.loc 3 573 0 discriminator 2
	lwz 9,12(30)
	.loc 4 648 0 discriminator 2
	slwi 0,31,3
.LBE2003:
.LBE2002:
.LBE2001:
	.loc 4 657 0 discriminator 2
	lwz 10,0(29)
	mr 3,29
.LBB2006:
.LBB2005:
.LBB2004:
	.loc 3 573 0 discriminator 2
	add 8,9,0
.LVL144:
.LBE2004:
.LBE2005:
.LBE2006:
	.loc 4 973 0 discriminator 2
	lwzx 11,9,0
	.loc 4 657 0 discriminator 2
	lwz 0,64(10)
	mr 4,28
	.loc 4 973 0 discriminator 2
	lwz 9,4(8)
	.loc 4 656 0 discriminator 2
	addi 31,31,1
.LVL145:
	.loc 4 657 0 discriminator 2
	mtctr 0
	lwz 5,4(11)
	lwz 6,4(9)
	crxor 6,6,6
	bctrl
.LVL146:
	.loc 4 656 0 discriminator 2
	lwz 0,0(30)
	cmpw 7,31,0
	blt+ 7,.L82
.LVL147:
.L81:
	.loc 4 660 0
	lis 4,.LC21@ha
	lis 5,.LC22@ha
	mr 3,30
	la 4,.LC21@l(4)
	la 5,.LC22@l(5)
	addi 6,1,8
	bl _ZNK6idDict9GetVectorEPKcS1_R6idVec3
.LVL148:
	.loc 4 663 0
	lwz 0,44(30)
	cmpwi 7,0,0
	ble- 7,.L83
	li 31,0
	b .L87
.LVL149:
.L85:
	.loc 4 668 0
	bl _ZNK10idMapBrush5WriteEP6idFileiRK6idVec3
.LVL150:
	lwz 0,44(30)
.L84:
	.loc 4 663 0
	addi 31,31,1
.LVL151:
	cmpw 7,31,0
	bge- 7,.L83
.LVL152:
.L87:
.LBB2007:
.LBB2008:
	.loc 7 174 0
	lwz 11,56(30)
	slwi 9,31,2
.LBE2008:
.LBE2007:
	.loc 4 668 0
	mr 4,29
	mr 5,31
.LBB2010:
.LBB2009:
	.loc 7 174 0
	lwzx 9,11,9
.LVL153:
.LBE2009:
.LBE2010:
	.loc 4 668 0
	addi 6,1,8
	.loc 4 666 0
	lwz 11,48(9)
	.loc 4 668 0
	mr 3,9
	.loc 4 666 0
	cmpwi 7,11,0
	cmpwi 6,11,1
	beq- 7,.L85
	bne+ 6,.L84
	.loc 4 671 0
	mr 5,31
	mr 3,9
	mr 4,29
	addi 6,1,8
	bl _ZNK10idMapPatch5WriteEP6idFileiRK6idVec3
.LVL154:
	lwz 0,44(30)
	.loc 4 663 0
	addi 31,31,1
.LVL155:
	cmpw 7,31,0
	blt+ 7,.L87
.LVL156:
.L83:
	.loc 4 676 0
	lwz 9,0(29)
	lis 4,.LC23@ha
	mr 3,29
	la 4,.LC23@l(4)
	lwz 0,64(9)
	mtctr 0
	crxor 6,6,6
	bctrl
.LBE2011:
	.loc 4 679 0
	lwz 0,44(1)
	lwz 28,24(1)
	li 3,1
	mtlr 0
	lwz 29,28(1)
.LVL157:
	lwz 30,32(1)
.LVL158:
	lwz 31,36(1)
	addi 1,1,40
.LCFI20:
	.cfi_def_cfa_offset 0
	.cfi_restore 31
	.cfi_restore 30
	.cfi_restore 29
	.cfi_restore 28
	blr
	.cfi_endproc
.LFE2550:
	.size	_ZNK11idMapEntity5WriteEP6idFilei, .-_ZNK11idMapEntity5WriteEP6idFilei
	.align 2
	.globl _ZN11idMapEntity19RemovePrimitiveDataEv
	.type	_ZN11idMapEntity19RemovePrimitiveDataEv, @function
_ZN11idMapEntity19RemovePrimitiveDataEv:
.LFB2551:
	.loc 4 686 0
	.cfi_startproc
.LVL159:
	mflr 0
	stwu 1,-32(1)
.LCFI21:
	.cfi_def_cfa_offset 32
	.cfi_register 65, 0
	stw 28,16(1)
	mr 28,3
	.cfi_offset 28, -16
	stw 29,20(1)
	.loc 4 687 0
	addi 29,3,44
	.cfi_offset 29, -12
.LVL160:
	.loc 4 686 0
	stw 0,36(1)
	stw 27,12(1)
	stw 30,24(1)
	stw 31,28(1)
.LBB2020:
.LBB2021:
	.loc 3 218 0
	lwz 0,44(3)
	.cfi_offset 31, -4
	.cfi_offset 30, -8
	.cfi_offset 27, -20
	.cfi_offset 65, 4
	cmpwi 7,0,0
	ble- 7,.L91
	li 31,0
	.loc 3 220 0
	li 27,0
.LVL161:
.L93:
	.loc 3 219 0
	lwz 11,12(29)
	.loc 4 686 0
	slwi 30,31,2
	.loc 3 218 0
	addi 31,31,1
	.loc 3 219 0
	lwzx 9,11,30
	add 11,11,30
	cmpwi 7,9,0
	mr 3,9
	beq- 7,.L92
	lwz 9,0(9)
	lwz 0,4(9)
	mtctr 0
	bctrl
	lwz 11,56(28)
	add 11,11,30
.L92:
.LVL162:
	.loc 3 220 0
	stw 27,0(11)
	.loc 3 218 0
	lwz 0,0(29)
	cmpw 7,31,0
	blt+ 7,.L93
.LVL163:
.L91:
.LBB2022:
.LBB2023:
	.loc 3 193 0
	lwz 3,56(28)
	cmpwi 7,3,0
	beq- 7,.L94
	.loc 3 194 0
	bl _ZdaPv
.L94:
	.loc 3 197 0
	li 0,0
	stw 0,56(28)
	.loc 3 198 0
	stw 0,44(28)
	.loc 3 199 0
	stw 0,48(28)
.LBE2023:
.LBE2022:
.LBE2021:
.LBE2020:
	.loc 4 688 0
	lwz 0,36(1)
	lwz 27,12(1)
	mtlr 0
	lwz 28,16(1)
.LVL164:
	lwz 29,20(1)
.LVL165:
	lwz 30,24(1)
	lwz 31,28(1)
	addi 1,1,32
.LCFI22:
	.cfi_def_cfa_offset 0
	.cfi_restore 31
	.cfi_restore 30
	.cfi_restore 29
	.cfi_restore 28
	.cfi_restore 27
	blr
	.cfi_endproc
.LFE2551:
	.size	_ZN11idMapEntity19RemovePrimitiveDataEv, .-_ZN11idMapEntity19RemovePrimitiveDataEv
	.align 2
	.globl _ZNK11idMapEntity14GetGeometryCRCEv
	.type	_ZNK11idMapEntity14GetGeometryCRCEv, @function
_ZNK11idMapEntity14GetGeometryCRCEv:
.LFB2552:
	.loc 4 695 0
	.cfi_startproc
.LVL166:
	mflr 0
	stwu 1,-24(1)
.LCFI23:
	.cfi_def_cfa_offset 24
	.cfi_register 65, 0
	stw 30,16(1)
.LBB2024:
	.loc 4 700 0
	li 30,0
	.cfi_offset 30, -8
.LBE2024:
	.loc 4 695 0
	stw 0,28(1)
	stw 28,8(1)
	stw 29,12(1)
	stw 31,20(1)
.LBB2028:
.LBB2025:
	.loc 4 973 0
	lwz 29,44(3)
	.cfi_offset 31, -4
	.cfi_offset 29, -12
	.cfi_offset 28, -16
	.cfi_offset 65, 4
.LBE2025:
	.loc 4 701 0
	cmpwi 7,29,0
	ble- 7,.L97
.LVL167:
	lwz 28,56(3)
	li 31,0
	b .L101
.LVL168:
.L99:
	.loc 4 706 0
	bl _ZNK10idMapBrush14GetGeometryCRCEv
.LVL169:
	xor 30,30,3
.LVL170:
.L98:
	.loc 4 701 0
	addi 31,31,1
.LVL171:
	cmpw 7,31,29
	beq- 7,.L97
.LVL172:
.L101:
.LBB2026:
.LBB2027:
	.loc 7 174 0
	slwi 0,31,2
	lwzx 9,28,0
.LVL173:
.LBE2027:
.LBE2026:
	.loc 4 704 0
	lwz 0,48(9)
.LVL174:
	.loc 4 706 0
	mr 3,9
	.loc 4 704 0
	cmpwi 7,0,0
	cmpwi 6,0,1
	beq- 7,.L99
	bne+ 6,.L98
	.loc 4 709 0
	mr 3,9
	.loc 4 701 0
	addi 31,31,1
.LVL175:
	.loc 4 709 0
	bl _ZNK10idMapPatch14GetGeometryCRCEv
.LVL176:
	.loc 4 701 0
	cmpw 7,31,29
	.loc 4 709 0
	xor 30,30,3
.LVL177:
	.loc 4 701 0
	bne+ 7,.L101
.LVL178:
.L97:
.LBE2028:
	.loc 4 715 0
	lwz 0,28(1)
	mr 3,30
	lwz 28,8(1)
	mtlr 0
	lwz 29,12(1)
	lwz 30,16(1)
	lwz 31,20(1)
	addi 1,1,24
.LCFI24:
	.cfi_def_cfa_offset 0
	.cfi_restore 31
	.cfi_restore 30
	.cfi_restore 29
	.cfi_restore 28
	blr
	.cfi_endproc
.LFE2552:
	.size	_ZNK11idMapEntity14GetGeometryCRCEv, .-_ZNK11idMapEntity14GetGeometryCRCEv
	.align 2
	.globl _ZN9idMapFile5WriteEPKcS1_b
	.type	_ZN9idMapFile5WriteEPKcS1_b, @function
_ZN9idMapFile5WriteEPKcS1_b:
.LFB2554:
	.loc 4 839 0
	.cfi_startproc
	.cfi_personality 0,__gxx_personality_v0
	.cfi_lsda 0,.LLSDA2554
.LVL179:
	mflr 0
	stwu 1,-56(1)
.LCFI25:
	.cfi_def_cfa_offset 56
	.cfi_register 65, 0
.LVL180:
.LBB2029:
.LBB2030:
.LBB2031:
.LBB2032:
	.file 9 "d:/Data/Nintendo/DoomGX/src/idlib/../idlib/Str.h"
	.loc 9 357 0
	li 9,20
.LBE2032:
.LBE2031:
.LBE2030:
.LBE2029:
	.loc 4 839 0
	stw 30,48(1)
	mr 30,3
	.cfi_offset 30, -8
	stw 0,60(1)
.LBB2054:
	.loc 4 844 0
	addi 3,1,8
.LVL181:
.LBB2037:
.LBB2035:
.LBB2033:
	.loc 9 356 0
	li 0,0
	.cfi_offset 65, 4
	.loc 9 357 0
	stw 9,16(1)
	.loc 9 358 0
	addi 9,1,20
.LBE2033:
.LBE2035:
.LBE2037:
.LBE2054:
	.loc 4 839 0
	stw 29,44(1)
	stw 31,52(1)
	mr 29,6
	.cfi_offset 31, -4
	.cfi_offset 29, -12
	stw 28,40(1)
	.loc 4 839 0
	mr 31,5
.LBB2055:
.LBB2038:
.LBB2036:
.LBB2034:
	.loc 9 356 0
	stw 0,8(1)
	.loc 9 358 0
	stw 9,12(1)
	.loc 9 359 0
	stb 0,20(1)
.LEHB0:
.LBE2034:
.LBE2036:
.LBE2038:
	.loc 4 844 0
	.cfi_offset 28, -16
	bl _ZN5idStraSEPKc
.LVL182:
	.loc 4 845 0
	addi 3,1,8
	mr 4,31
	bl _ZN5idStr16SetFileExtensionEPKc
	.loc 4 847 0
	lis 31,_ZN5idLib6commonE@ha
.LVL183:
	lis 4,.LC24@ha
	lwz 3,_ZN5idLib6commonE@l(31)
	la 4,.LC24@l(4)
	lwz 5,12(1)
	lwz 9,0(3)
	lwz 0,68(9)
	mtctr 0
	crxor 6,6,6
	bctrl
	.loc 4 849 0
	cmpwi 7,29,0
	.loc 4 850 0
	lis 28,_ZN5idLib10fileSystemE@ha
	lwz 3,_ZN5idLib10fileSystemE@l(28)
	.loc 4 849 0
	beq- 7,.L105
.LVL184:
	.loc 4 850 0
	lwz 9,0(3)
	lis 5,.LC25@ha
	lwz 4,12(1)
	la 5,.LC25@l(5)
	lwz 0,116(9)
	mtctr 0
	bctrl
	.loc 4 856 0
	cmpwi 7,3,0
	.loc 4 853 0
	mr 29,3
.LVL185:
	.loc 4 856 0
	beq- 7,.L119
.LVL186:
.L107:
	.loc 4 861 0
	lwz 9,0(3)
	lis 4,.LC27@ha
	la 4,.LC27@l(4)
	lwz 0,64(9)
	lis 9,.LC29@ha
	lfs 1,.LC29@l(9)
	mtctr 0
	creqv 6,6,6
	bctrl
.LVL187:
	.loc 4 863 0 discriminator 1
	lwz 0,12(30)
	cmpwi 7,0,0
	ble- 7,.L109
	.loc 4 863 0 is_stmt 0
	li 31,0
.LVL188:
.L110:
	.loc 4 864 0 is_stmt 1
	lwz 9,24(30)
	slwi 0,31,2
	mr 4,29
	mr 5,31
	lwzx 3,9,0
	bl _ZNK11idMapEntity5WriteEP6idFilei
	.loc 4 863 0
	lwz 0,12(30)
	addi 31,31,1
.LVL189:
	cmpw 7,0,31
	bgt+ 7,.L110
.LVL190:
.L109:
	.loc 4 867 0
	lwz 3,_ZN5idLib10fileSystemE@l(28)
	mr 4,29
	lwz 9,0(3)
	lwz 0,136(9)
	mtctr 0
	bctrl
.LEHE0:
.LBB2039:
.LBB2040:
.LBB2041:
	.loc 9 501 0
	addi 3,1,8
.LBE2041:
.LBE2040:
.LBE2039:
	.loc 4 869 0
	li 31,1
.LVL191:
.LEHB1:
.LBB2048:
.LBB2045:
.LBB2042:
	.loc 9 501 0
	bl _ZN5idStr8FreeDataEv
.LEHE1:
.LBE2042:
.LBE2045:
.LBE2048:
.LBE2055:
	.loc 4 870 0
	lwz 0,60(1)
	mr 3,31
	lwz 28,40(1)
	mtlr 0
	lwz 29,44(1)
.LVL192:
	lwz 30,48(1)
.LVL193:
	lwz 31,52(1)
	addi 1,1,56
	.cfi_remember_state
.LCFI26:
	.cfi_def_cfa_offset 0
	.cfi_restore 31
	.cfi_restore 30
	.cfi_restore 29
	.cfi_restore 28
	blr
.LVL194:
.L105:
.LCFI27:
	.cfi_restore_state
.LBB2056:
	.loc 4 853 0
	lwz 9,0(3)
	lwz 4,12(1)
	lwz 0,132(9)
	mtctr 0
.LEHB2:
	bctrl
	.loc 4 856 0
	cmpwi 7,3,0
	.loc 4 853 0
	mr 29,3
.LVL195:
	.loc 4 856 0
	bne+ 7,.L107
.LVL196:
.L119:
	.loc 4 857 0
	lwz 3,_ZN5idLib6commonE@l(31)
.LVL197:
	lis 4,.LC26@ha
	la 4,.LC26@l(4)
	lwz 5,12(1)
	lwz 9,0(3)
	lwz 0,80(9)
	mtctr 0
	crxor 6,6,6
	bctrl
.LEHE2:
.LBB2049:
.LBB2046:
.LBB2043:
	.loc 9 501 0
	addi 3,1,8
.LBE2043:
.LBE2046:
.LBE2049:
	.loc 4 858 0
	li 31,0
.LVL198:
.LEHB3:
.LBB2050:
.LBB2047:
.LBB2044:
	.loc 9 501 0
	bl _ZN5idStr8FreeDataEv
.LEHE3:
.LBE2044:
.LBE2047:
.LBE2050:
.LBE2056:
	.loc 4 870 0
	lwz 0,60(1)
	mr 3,31
	lwz 28,40(1)
	mtlr 0
	lwz 29,44(1)
.LVL199:
	lwz 30,48(1)
.LVL200:
	lwz 31,52(1)
	addi 1,1,56
	.cfi_remember_state
	.cfi_restore 28
	.cfi_restore 29
	.cfi_restore 30
	.cfi_restore 31
.LCFI28:
	.cfi_def_cfa_offset 0
	blr
.LVL201:
.L115:
.LCFI29:
	.cfi_restore_state
	mr 31,3
.LVL202:
.LBB2057:
.LBB2051:
.LBB2052:
.LBB2053:
	.loc 9 501 0
	addi 3,1,8
	bl _ZN5idStr8FreeDataEv
	mr 3,31
.LEHB4:
	bl _Unwind_Resume
.LEHE4:
.LBE2053:
.LBE2052:
.LBE2051:
.LBE2057:
	.cfi_endproc
.LFE2554:
	.globl __gxx_personality_v0
	.section	.gcc_except_table,"a",@progbits
.LLSDA2554:
	.byte	0xff
	.byte	0xff
	.byte	0x1
	.uleb128 .LLSDACSE2554-.LLSDACSB2554
.LLSDACSB2554:
	.uleb128 .LEHB0-.LFB2554
	.uleb128 .LEHE0-.LEHB0
	.uleb128 .L115-.LFB2554
	.uleb128 0
	.uleb128 .LEHB1-.LFB2554
	.uleb128 .LEHE1-.LEHB1
	.uleb128 0
	.uleb128 0
	.uleb128 .LEHB2-.LFB2554
	.uleb128 .LEHE2-.LEHB2
	.uleb128 .L115-.LFB2554
	.uleb128 0
	.uleb128 .LEHB3-.LFB2554
	.uleb128 .LEHE3-.LEHB3
	.uleb128 0
	.uleb128 0
	.uleb128 .LEHB4-.LFB2554
	.uleb128 .LEHE4-.LEHB4
	.uleb128 0
	.uleb128 0
.LLSDACSE2554:
	.section	".text"
	.size	_ZN9idMapFile5WriteEPKcS1_b, .-_ZN9idMapFile5WriteEPKcS1_b
	.align 2
	.globl _ZN9idMapFile14SetGeometryCRCEv
	.type	_ZN9idMapFile14SetGeometryCRCEv, @function
_ZN9idMapFile14SetGeometryCRCEv:
.LFB2555:
	.loc 4 877 0
	.cfi_startproc
.LVL203:
	mflr 0
	stwu 1,-32(1)
.LCFI30:
	.cfi_def_cfa_offset 32
	.cfi_register 65, 0
	stw 29,20(1)
	mr 29,3
	.cfi_offset 29, -12
	stw 0,36(1)
.LBB2058:
	.loc 4 880 0
	li 0,0
	.cfi_offset 65, 4
.LBE2058:
	.loc 4 877 0
	stw 27,12(1)
	stw 28,16(1)
	stw 30,24(1)
	stw 31,28(1)
.LBB2059:
	.loc 4 880 0
	stw 0,8(3)
.LVL204:
	.loc 4 973 0
	lwz 28,12(3)
	.cfi_offset 31, -4
	.cfi_offset 30, -8
	.cfi_offset 28, -16
	.cfi_offset 27, -20
	.loc 4 881 0
	cmpwi 7,28,0
	ble- 7,.L120
	lwz 27,24(3)
	li 30,0
	li 31,0
.LVL205:
.L122:
	.loc 4 882 0 discriminator 2
	slwi 0,31,2
	.loc 4 881 0 discriminator 2
	addi 31,31,1
.LVL206:
	.loc 4 882 0 discriminator 2
	lwzx 3,27,0
	bl _ZNK11idMapEntity14GetGeometryCRCEv
.LVL207:
	.loc 4 881 0 discriminator 2
	cmpw 7,31,28
	.loc 4 882 0 discriminator 2
	xor 30,30,3
	stw 30,8(29)
	.loc 4 881 0 discriminator 2
	bne+ 7,.L122
.LVL208:
.L120:
.LBE2059:
	.loc 4 884 0
	lwz 0,36(1)
	lwz 27,12(1)
	mtlr 0
	lwz 28,16(1)
	lwz 29,20(1)
.LVL209:
	lwz 30,24(1)
	lwz 31,28(1)
	addi 1,1,32
.LCFI31:
	.cfi_def_cfa_offset 0
	.cfi_restore 31
	.cfi_restore 30
	.cfi_restore 29
	.cfi_restore 28
	.cfi_restore 27
	blr
	.cfi_endproc
.LFE2555:
	.size	_ZN9idMapFile14SetGeometryCRCEv, .-_ZN9idMapFile14SetGeometryCRCEv
	.align 2
	.globl _ZN9idMapFile9AddEntityEP11idMapEntity
	.type	_ZN9idMapFile9AddEntityEP11idMapEntity, @function
_ZN9idMapFile9AddEntityEP11idMapEntity:
.LFB2556:
	.loc 4 891 0
	.cfi_startproc
.LVL210:
	mflr 0
	stwu 1,-24(1)
.LCFI32:
	.cfi_def_cfa_offset 24
	.cfi_register 65, 0
	stw 28,8(1)
	mr 28,4
	.cfi_offset 28, -16
	stw 29,12(1)
.LBB2076:
	.loc 4 892 0
	addi 29,3,12
	.cfi_offset 29, -12
.LVL211:
.LBE2076:
	.loc 4 891 0
	stw 31,20(1)
	mr 31,3
	.cfi_offset 31, -4
	stw 0,28(1)
	stw 30,16(1)
.LBB2107:
.LBB2077:
.LBB2078:
	.loc 3 655 0
	lwz 30,24(3)
	.cfi_offset 30, -8
	.cfi_offset 65, 4
	cmpwi 7,30,0
	beq- 7,.L125
	lwz 0,12(3)
	lwz 9,16(3)
.LVL212:
.L126:
.LBB2079:
	.loc 3 659 0
	cmpw 7,0,9
	beq- 7,.L143
.L145:
.LBB2080:
.LBB2081:
.LBB2082:
	.loc 3 399 0
	slwi 0,0,2
	add 30,30,0
.L133:
.LBE2082:
.LBE2081:
.LBE2080:
.LBE2079:
	.loc 3 669 0
	stw 28,0(30)
	.loc 3 670 0
	lwz 3,12(31)
	addi 0,3,1
	stw 0,12(31)
.LBE2078:
.LBE2077:
.LBE2107:
	.loc 4 894 0
	lwz 0,28(1)
	lwz 28,8(1)
.LVL213:
	mtlr 0
	lwz 29,12(1)
.LVL214:
	lwz 30,16(1)
.LVL215:
	lwz 31,20(1)
.LVL216:
	addi 1,1,24
	.cfi_remember_state
.LCFI33:
	.cfi_def_cfa_offset 0
	.cfi_restore 31
	.cfi_restore 30
	.cfi_restore 29
	.cfi_restore 28
	blr
.LVL217:
.L143:
.LCFI34:
	.cfi_restore_state
	lwz 3,20(31)
.LBB2108:
.LBB2106:
.LBB2105:
.LBB2095:
	.loc 3 659 0
	mr 10,0
.L128:
.LBB2093:
	.loc 3 662 0
	cmpwi 7,3,0
	mr 9,3
	beq- 7,.L146
.L134:
	.loc 3 665 0
	add 11,10,9
.LVL218:
	.loc 3 666 0
	divw 11,11,9
.LVL219:
.LBB2089:
.LBB2085:
	.loc 3 375 0
	mullw. 9,11,9
.LVL220:
	ble- 0,.L147
	.loc 3 380 0
	cmpw 7,9,10
	beq- 7,.L145
.LVL221:
	.loc 3 387 0
	cmpw 7,9,0
	.loc 3 386 0
	stw 9,16(31)
	.loc 3 387 0
	blt- 7,.L148
.L138:
	.loc 3 392 0
	slwi 3,9,2
	bl _Znaj
.LVL222:
	.loc 3 393 0
	lwz 0,12(31)
	.loc 3 392 0
	stw 3,24(31)
.LVL223:
	.loc 3 393 0
	cmpwi 7,0,0
	ble- 7,.L139
	.loc 4 891 0
	addi 11,30,-4
.LBE2085:
.LBE2089:
	.loc 3 393 0
	li 9,0
	b .L140
.LVL224:
.L149:
.LBB2090:
.LBB2086:
	lwz 3,24(31)
.LVL225:
.L140:
	.loc 3 394 0
	lwzu 10,4(11)
	slwi 0,9,2
	.loc 3 393 0
	addi 9,9,1
.LVL226:
	.loc 3 394 0
	stwx 10,3,0
	.loc 3 393 0
	lwz 0,0(29)
	cmpw 7,9,0
	blt+ 7,.L149
.LVL227:
.L139:
	.loc 3 398 0
	cmpwi 7,30,0
	beq- 7,.L150
	.loc 3 399 0
	mr 3,30
	bl _ZdaPv
	lwz 0,12(31)
	lwz 30,24(31)
.LVL228:
	b .L145
.LVL229:
.L146:
.LBE2086:
.LBE2090:
	.loc 3 663 0
	li 9,16
	stw 9,20(31)
	b .L134
.LVL230:
.L148:
.LBB2091:
.LBB2087:
	.loc 3 388 0
	stw 9,12(31)
	b .L138
.LVL231:
.L125:
.LBE2087:
.LBE2091:
.LBE2093:
.LBE2095:
	.loc 3 656 0
	lwz 3,20(3)
.LBB2096:
.LBB2097:
	.loc 3 375 0
	cmpwi 7,3,0
.LBE2097:
.LBE2096:
	.loc 3 656 0
	mr 9,3
.LVL232:
.LBB2102:
.LBB2100:
	.loc 3 375 0
	ble- 7,.L151
	.loc 3 380 0
	lwz 0,16(31)
	cmpw 7,3,0
	lwz 0,12(31)
	beq- 7,.L126
.LVL233:
	.loc 3 387 0
	cmpw 7,3,0
	.loc 3 386 0
	stw 3,16(31)
	.loc 3 387 0
	bge- 7,.L130
	.loc 3 388 0
	stw 3,12(31)
.L130:
	.loc 3 392 0
	slwi 3,3,2
	bl _Znaj
.LVL234:
	.loc 3 393 0
	lwz 0,12(31)
	.loc 3 392 0
	mr 30,3
	stw 3,24(31)
.LVL235:
	.loc 3 393 0
	cmpwi 7,0,0
	li 9,0
	li 11,0
	bgt+ 7,.L144
	b .L154
.LVL236:
.L153:
	lwz 30,24(31)
.LVL237:
.L144:
	.loc 3 394 0
	lwz 0,0(9)
	.loc 3 393 0
	addi 11,11,1
.LVL238:
	.loc 3 394 0
	stwx 0,30,9
	.loc 3 393 0
	addi 9,9,4
	lwz 0,0(29)
	cmpw 7,11,0
	blt+ 7,.L153
	lwz 9,16(31)
	lwz 30,24(31)
	b .L126
.LVL239:
.L147:
.LBE2100:
.LBE2102:
.LBB2103:
.LBB2094:
.LBB2092:
.LBB2088:
.LBB2083:
.LBB2084:
	.loc 3 193 0
	cmpwi 7,30,0
	beq- 7,.L136
	.loc 3 194 0
	mr 3,30
	bl _ZdaPv
.LVL240:
.L136:
	.loc 3 197 0
	li 0,0
	.loc 3 199 0
	li 30,0
	.loc 3 197 0
	stw 0,24(31)
	.loc 3 198 0
	stw 0,12(31)
	.loc 3 199 0
	stw 0,16(31)
	b .L133
.LVL241:
.L150:
.LBE2084:
.LBE2083:
	.loc 3 398 0
	lwz 0,12(31)
	lwz 30,24(31)
.LVL242:
	slwi 0,0,2
	add 30,30,0
	b .L133
.LVL243:
.L151:
.LBE2088:
.LBE2092:
.LBE2094:
.LBE2103:
.LBB2104:
.LBB2101:
.LBB2098:
.LBB2099:
	.loc 3 198 0
	stw 30,12(31)
	.loc 3 199 0
	li 10,0
	stw 30,16(31)
	li 0,0
	b .L128
.LVL244:
.L154:
.LBE2099:
.LBE2098:
	.loc 3 393 0
	lwz 9,16(31)
	b .L126
.LBE2101:
.LBE2104:
.LBE2105:
.LBE2106:
.LBE2108:
	.cfi_endproc
.LFE2556:
	.size	_ZN9idMapFile9AddEntityEP11idMapEntity, .-_ZN9idMapFile9AddEntityEP11idMapEntity
	.align 2
	.globl _ZN9idMapFile10FindEntityEPKc
	.type	_ZN9idMapFile10FindEntityEPKc, @function
_ZN9idMapFile10FindEntityEPKc:
.LFB2557:
	.loc 4 901 0
	.cfi_startproc
.LVL245:
	mflr 0
	stwu 1,-32(1)
.LCFI35:
	.cfi_def_cfa_offset 32
	.cfi_register 65, 0
	stw 28,16(1)
	mr 28,4
	.cfi_offset 28, -16
	stw 29,20(1)
	mr 29,3
	.cfi_offset 29, -12
	stw 30,24(1)
.LBB2117:
	.loc 4 908 0
	li 30,0
	.cfi_offset 30, -8
.LBE2117:
	.loc 4 901 0
	stw 0,36(1)
	stw 26,8(1)
	stw 27,12(1)
	stw 31,28(1)
.LBB2132:
	.loc 4 902 0
	lwz 0,12(3)
	.cfi_offset 31, -4
	.cfi_offset 27, -20
	.cfi_offset 26, -24
	.cfi_offset 65, 4
	cmpwi 7,0,0
	ble- 7,.L156
	lis 27,.LC31@ha
	li 31,0
	la 27,.LC31@l(27)
.LBB2118:
.LBB2119:
.LBB2120:
	.file 10 "d:/Data/Nintendo/DoomGX/src/idlib/../idlib/Dict.h"
	.loc 10 245 0
	lis 26,.LC30@ha
	b .L158
.LVL246:
.L163:
.LBB2121:
	.loc 4 973 0
	lwz 9,4(3)
.LBE2121:
.LBE2120:
.LBE2119:
	.loc 4 904 0
	mr 4,28
.LBE2118:
	.loc 4 902 0
	addi 31,31,1
.LVL247:
.LBB2129:
.LBB2126:
.LBB2123:
.LBB2122:
	.loc 4 973 0
	lwz 3,4(9)
.LVL248:
.LBE2122:
.LBE2123:
.LBE2126:
	.loc 4 904 0
	bl _ZN5idStr4IcmpEPKcS1_
.LVL249:
	cmpwi 7,3,0
	beq- 7,.L156
.LVL250:
.L164:
.LBE2129:
	.loc 4 902 0
	lwz 0,12(29)
	cmpw 7,0,31
	ble- 7,.L162
.LVL251:
.L158:
.LBB2130:
	.loc 4 903 0
	lwz 9,24(29)
	slwi 0,31,2
.LBB2127:
.LBB2124:
	.loc 10 241 0
	mr 4,27
.LBE2124:
.LBE2127:
	.loc 4 903 0
	lwzx 30,9,0
.LVL252:
.LBB2128:
.LBB2125:
	.loc 10 241 0
	mr 3,30
	bl _ZNK6idDict7FindKeyEPKc
.LVL253:
	.loc 10 242 0
	cmpwi 0,3,0
	bne+ 0,.L163
	.loc 10 245 0
	la 3,.LC30@l(26)
.LVL254:
.LBE2125:
.LBE2128:
	.loc 4 904 0
	mr 4,28
	bl _ZN5idStr4IcmpEPKcS1_
.LBE2130:
	.loc 4 902 0
	addi 31,31,1
.LVL255:
.LBB2131:
	.loc 4 904 0
	cmpwi 7,3,0
	bne+ 7,.L164
.LVL256:
.L156:
.LBE2131:
.LBE2132:
	.loc 4 909 0
	lwz 0,36(1)
	mr 3,30
	lwz 26,8(1)
	mtlr 0
	lwz 27,12(1)
	lwz 28,16(1)
.LVL257:
	lwz 29,20(1)
.LVL258:
	lwz 30,24(1)
	lwz 31,28(1)
	addi 1,1,32
	.cfi_remember_state
.LCFI36:
	.cfi_def_cfa_offset 0
	.cfi_restore 31
	.cfi_restore 30
	.cfi_restore 29
	.cfi_restore 28
	.cfi_restore 27
	.cfi_restore 26
	blr
.LVL259:
.L162:
.LCFI37:
	.cfi_restore_state
	lwz 0,36(1)
.LBB2133:
	.loc 4 908 0
	li 30,0
.LVL260:
.LBE2133:
	.loc 4 909 0
	mr 3,30
	lwz 26,8(1)
	mtlr 0
	lwz 27,12(1)
	lwz 28,16(1)
.LVL261:
	lwz 29,20(1)
.LVL262:
	lwz 30,24(1)
	lwz 31,28(1)
.LVL263:
	addi 1,1,32
	.cfi_restore 26
	.cfi_restore 27
	.cfi_restore 28
	.cfi_restore 29
	.cfi_restore 30
	.cfi_restore 31
.LCFI38:
	.cfi_def_cfa_offset 0
	blr
	.cfi_endproc
.LFE2557:
	.size	_ZN9idMapFile10FindEntityEPKc, .-_ZN9idMapFile10FindEntityEPKc
	.align 2
	.globl _ZN9idMapFile19RemovePrimitiveDataEv
	.type	_ZN9idMapFile19RemovePrimitiveDataEv, @function
_ZN9idMapFile19RemovePrimitiveDataEv:
.LFB2561:
	.loc 4 952 0
	.cfi_startproc
.LVL264:
	mflr 0
	stwu 1,-16(1)
.LCFI39:
	.cfi_def_cfa_offset 16
	.cfi_register 65, 0
	stw 30,8(1)
	mr 30,3
	.cfi_offset 30, -8
	stw 0,20(1)
	stw 31,12(1)
.LBB2134:
.LBB2135:
	.loc 4 953 0
	lwz 0,12(3)
	.cfi_offset 31, -4
	.cfi_offset 65, 4
	cmpwi 7,0,0
	ble- 7,.L166
	li 31,0
.LVL265:
.L167:
.LBB2136:
	.loc 4 954 0 discriminator 2
	lwz 9,24(30)
	slwi 0,31,2
.LBE2136:
	.loc 4 953 0 discriminator 2
	addi 31,31,1
.LVL266:
.LBB2137:
	.loc 4 955 0 discriminator 2
	lwzx 3,9,0
	bl _ZN11idMapEntity19RemovePrimitiveDataEv
.LVL267:
.LBE2137:
	.loc 4 953 0 discriminator 2
	lwz 0,12(30)
	cmpw 7,0,31
	bgt+ 7,.L167
.LVL268:
.L166:
.LBE2135:
	.loc 4 957 0
	li 0,0
	stb 0,60(30)
.LBE2134:
	.loc 4 958 0
	lwz 0,20(1)
	lwz 30,8(1)
.LVL269:
	mtlr 0
	lwz 31,12(1)
	addi 1,1,16
.LCFI40:
	.cfi_def_cfa_offset 0
	.cfi_restore 31
	.cfi_restore 30
	blr
	.cfi_endproc
.LFE2561:
	.size	_ZN9idMapFile19RemovePrimitiveDataEv, .-_ZN9idMapFile19RemovePrimitiveDataEv
	.align 2
	.globl _ZN9idMapFile11NeedsReloadEv
	.type	_ZN9idMapFile11NeedsReloadEv, @function
_ZN9idMapFile11NeedsReloadEv:
.LFB2562:
	.loc 4 965 0
	.cfi_startproc
.LVL270:
	mflr 0
	stwu 1,-32(1)
.LCFI41:
	.cfi_def_cfa_offset 32
	.cfi_register 65, 0
	stw 30,24(1)
.LBB2138:
	.loc 4 972 0
	li 30,1
	.cfi_offset 30, -8
.LBE2138:
	.loc 4 965 0
	stw 31,28(1)
	mr 31,3
	.cfi_offset 31, -4
	stw 0,36(1)
.LBB2142:
	.loc 4 966 0
	lwz 0,28(3)
	.cfi_offset 65, 4
	cmpwi 7,0,0
	bne- 7,.L173
.LVL271:
.L170:
.LBE2142:
	.loc 4 973 0
	lwz 0,36(1)
	mr 3,30
	lwz 31,28(1)
.LVL272:
	mtlr 0
	lwz 30,24(1)
	addi 1,1,32
	.cfi_remember_state
.LCFI42:
	.cfi_def_cfa_offset 0
	.cfi_restore 31
	.cfi_restore 30
	blr
.LVL273:
.L173:
.LCFI43:
	.cfi_restore_state
.LBB2143:
.LBB2139:
	.loc 4 967 0
	mr 6,1
	li 0,-1
	.loc 4 968 0
	lis 9,_ZN5idLib10fileSystemE@ha
	.loc 4 967 0
	stwu 0,8(6)
.LVL274:
	.loc 4 968 0
	lwz 3,_ZN5idLib10fileSystemE@l(9)
.LVL275:
	li 5,0
	lwz 4,32(31)
	lwz 9,0(3)
	lwz 0,96(9)
	mtctr 0
	bctrl
	cmpwi 7,3,0
	ble- 7,.L170
	.loc 4 969 0
	lwz 0,8(1)
	lwz 9,4(31)
.LBE2139:
.LBE2143:
	.loc 4 973 0
	lwz 31,28(1)
.LVL276:
.LBB2144:
.LBB2140:
	.loc 4 969 0
	cmpw 7,9,0
.LBE2140:
.LBE2144:
	.loc 4 973 0
	lwz 0,36(1)
	mtlr 0
.LBB2145:
.LBB2141:
	.loc 4 969 0
	mfcr 30
	rlwinm 30,30,29,1
.LBE2141:
.LBE2145:
	.loc 4 973 0
	mr 3,30
	lwz 30,24(1)
	addi 1,1,32
	.cfi_restore 30
	.cfi_restore 31
.LCFI44:
	.cfi_def_cfa_offset 0
	blr
	.cfi_endproc
.LFE2562:
	.size	_ZN9idMapFile11NeedsReloadEv, .-_ZN9idMapFile11NeedsReloadEv
	.section	.text._ZN6idListIP14idMapPrimitiveE5ClearEv,"axG",@progbits,_ZN6idListIP14idMapPrimitiveE5ClearEv,comdat
	.align 2
	.weak	_ZN6idListIP14idMapPrimitiveE5ClearEv
	.type	_ZN6idListIP14idMapPrimitiveE5ClearEv, @function
_ZN6idListIP14idMapPrimitiveE5ClearEv:
.LFB2738:
	.loc 3 192 0
	.cfi_startproc
.LVL277:
	mflr 0
	stwu 1,-16(1)
.LCFI45:
	.cfi_def_cfa_offset 16
	.cfi_register 65, 0
	stw 31,12(1)
	mr 31,3
	.cfi_offset 31, -4
	stw 0,20(1)
	.loc 3 193 0
	lwz 3,12(3)
.LVL278:
	cmpwi 7,3,0
	beq- 7,.L175
	.cfi_offset 65, 4
	.loc 3 194 0 discriminator 1
	bl _ZdaPv
.L175:
	.loc 3 197 0
	li 0,0
	stw 0,12(31)
	.loc 3 198 0
	stw 0,0(31)
	.loc 3 199 0
	stw 0,4(31)
	.loc 3 200 0
	lwz 0,20(1)
	lwz 31,12(1)
.LVL279:
	mtlr 0
	addi 1,1,16
.LCFI46:
	.cfi_def_cfa_offset 0
	.cfi_restore 31
	blr
	.cfi_endproc
.LFE2738:
	.size	_ZN6idListIP14idMapPrimitiveE5ClearEv, .-_ZN6idListIP14idMapPrimitiveE5ClearEv
	.section	.text._ZN6idListI10idKeyValueE5ClearEv,"axG",@progbits,_ZN6idListI10idKeyValueE5ClearEv,comdat
	.align 2
	.weak	_ZN6idListI10idKeyValueE5ClearEv
	.type	_ZN6idListI10idKeyValueE5ClearEv, @function
_ZN6idListI10idKeyValueE5ClearEv:
.LFB2763:
	.loc 3 192 0
	.cfi_startproc
.LVL280:
	mflr 0
	stwu 1,-16(1)
.LCFI47:
	.cfi_def_cfa_offset 16
	.cfi_register 65, 0
	stw 31,12(1)
	mr 31,3
	.cfi_offset 31, -4
	stw 0,20(1)
	.loc 3 193 0
	lwz 3,12(3)
.LVL281:
	cmpwi 7,3,0
	beq- 7,.L177
	.cfi_offset 65, 4
	.loc 3 194 0 discriminator 1
	bl _ZdaPv
.L177:
	.loc 3 197 0
	li 0,0
	stw 0,12(31)
	.loc 3 198 0
	stw 0,0(31)
	.loc 3 199 0
	stw 0,4(31)
	.loc 3 200 0
	lwz 0,20(1)
	lwz 31,12(1)
.LVL282:
	mtlr 0
	addi 1,1,16
.LCFI48:
	.cfi_def_cfa_offset 0
	.cfi_restore 31
	blr
	.cfi_endproc
.LFE2763:
	.size	_ZN6idListI10idKeyValueE5ClearEv, .-_ZN6idListI10idKeyValueE5ClearEv
	.section	.text._ZN6idDictD2Ev,"axG",@progbits,_ZN6idDictD5Ev,comdat
	.align 2
	.weak	_ZN6idDictD2Ev
	.type	_ZN6idDictD2Ev, @function
_ZN6idDictD2Ev:
.LFB1936:
	.loc 10 173 0
	.cfi_startproc
	.cfi_personality 0,__gxx_personality_v0
	.cfi_lsda 0,.LLSDA1936
.LVL283:
	mflr 0
	stwu 1,-16(1)
.LCFI49:
	.cfi_def_cfa_offset 16
	.cfi_register 65, 0
	stw 31,12(1)
	mr 31,3
	.cfi_offset 31, -4
	stw 0,20(1)
	stw 30,8(1)
.LEHB5:
.LBB2174:
	.loc 10 174 0
	.cfi_offset 30, -8
	.cfi_offset 65, 4
	bl _ZN6idDict5ClearEv
.LEHE5:
.LVL284:
.LBB2175:
.LBB2176:
.LBB2177:
	.file 11 "d:/Data/Nintendo/DoomGX/src/idlib/../idlib/containers/HashIndex.h"
	.loc 11 130 0
	addi 3,31,16
.LEHB6:
	bl _ZN11idHashIndex4FreeEv
.LEHE6:
.LVL285:
.LBE2177:
.LBE2176:
.LBE2175:
.LBB2178:
.LBB2179:
.LBB2180:
.LBB2181:
	.loc 3 193 0 discriminator 1
	lwz 3,12(31)
	cmpwi 7,3,0
	beq- 7,.L180
	.loc 3 194 0
	bl _ZdaPv
.L180:
	.loc 3 197 0
	li 0,0
	stw 0,12(31)
	.loc 3 198 0
	stw 0,0(31)
	.loc 3 199 0
	stw 0,4(31)
.LBE2181:
.LBE2180:
.LBE2179:
.LBE2178:
.LBE2174:
	.loc 10 175 0
	lwz 0,20(1)
	lwz 30,8(1)
	mtlr 0
	lwz 31,12(1)
.LVL286:
	addi 1,1,16
	.cfi_remember_state
.LCFI50:
	.cfi_def_cfa_offset 0
	.cfi_restore 31
	.cfi_restore 30
	blr
.LVL287:
.L187:
.LCFI51:
	.cfi_restore_state
	mr 30,3
.LVL288:
.LBB2188:
.LBB2182:
.LBB2183:
.LBB2184:
	.loc 11 130 0
	addi 3,31,16
	bl _ZN11idHashIndex4FreeEv
.LVL289:
.L185:
.LBE2184:
.LBE2183:
.LBE2182:
.LBB2185:
.LBB2186:
.LBB2187:
	.loc 3 181 0
	mr 3,31
	bl _ZN6idListI10idKeyValueE5ClearEv
	mr 3,30
.LEHB7:
	bl _Unwind_Resume
.LEHE7:
.LVL290:
.L188:
	mr 30,3
	b .L185
.LBE2187:
.LBE2186:
.LBE2185:
.LBE2188:
	.cfi_endproc
.LFE1936:
	.section	.gcc_except_table
.LLSDA1936:
	.byte	0xff
	.byte	0xff
	.byte	0x1
	.uleb128 .LLSDACSE1936-.LLSDACSB1936
.LLSDACSB1936:
	.uleb128 .LEHB5-.LFB1936
	.uleb128 .LEHE5-.LEHB5
	.uleb128 .L187-.LFB1936
	.uleb128 0
	.uleb128 .LEHB6-.LFB1936
	.uleb128 .LEHE6-.LEHB6
	.uleb128 .L188-.LFB1936
	.uleb128 0
	.uleb128 .LEHB7-.LFB1936
	.uleb128 .LEHE7-.LEHB7
	.uleb128 0
	.uleb128 0
.LLSDACSE1936:
	.section	.text._ZN6idDictD2Ev,"axG",@progbits,_ZN6idDictD5Ev,comdat
	.size	_ZN6idDictD2Ev, .-_ZN6idDictD2Ev
	.section	".text"
	.align 2
	.globl _ZN9idMapFile14RemoveEntitiesEPKc
	.type	_ZN9idMapFile14RemoveEntitiesEPKc, @function
_ZN9idMapFile14RemoveEntitiesEPKc:
.LFB2559:
	.loc 4 926 0
	.cfi_startproc
	.cfi_personality 0,__gxx_personality_v0
	.cfi_lsda 0,.LLSDA2559
.LVL291:
	mflr 0
	stwu 1,-56(1)
.LCFI52:
	.cfi_def_cfa_offset 56
	.cfi_register 65, 0
	stw 23,20(1)
	mr 23,4
	.cfi_offset 23, -36
	stw 26,32(1)
	mr 26,3
	.cfi_offset 26, -24
	stw 0,60(1)
	stw 21,12(1)
	stw 22,16(1)
	stw 24,24(1)
	stw 25,28(1)
	stw 27,36(1)
	stw 28,40(1)
	stw 29,44(1)
	stw 30,48(1)
	stw 31,52(1)
.LBB2239:
	.loc 4 927 0
	lwz 0,12(3)
	.cfi_offset 31, -4
	.cfi_offset 30, -8
	.cfi_offset 29, -12
	.cfi_offset 28, -16
	.cfi_offset 27, -20
	.cfi_offset 25, -28
	.cfi_offset 24, -32
	.cfi_offset 22, -40
	.cfi_offset 21, -44
	.cfi_offset 65, 4
	cmpwi 7,0,0
	ble- 7,.L189
	lis 22,.LC32@ha
	li 25,0
	la 22,.LC32@l(22)
.LBB2240:
.LBB2241:
.LBB2242:
	.loc 10 245 0
	lis 21,.LC30@ha
.LBE2242:
.LBE2241:
.LBB2246:
.LBB2247:
.LBB2248:
.LBB2249:
.LBB2250:
.LBB2251:
.LBB2252:
	.loc 3 197 0
	li 24,0
	b .L213
.LVL292:
.L221:
.LBE2252:
.LBE2251:
.LBE2250:
.LBE2249:
.LBE2248:
.LBE2247:
.LBE2246:
	.loc 4 929 0
	lwz 9,12(26)
.LVL293:
.LBE2240:
	.loc 4 927 0
	addi 25,25,1
.LVL294:
	cmpw 7,25,9
	bge- 7,.L189
.LVL295:
.L213:
.LBB2316:
	.loc 4 928 0
	lwz 9,24(26)
.LBB2305:
.LBB2306:
	.loc 3 589 0
	slwi 29,25,2
.LVL296:
.LBE2306:
.LBE2305:
.LBB2307:
.LBB2244:
	.loc 10 241 0
	mr 4,22
	lwzx 3,9,29
.LEHB8:
	bl _ZNK6idDict7FindKeyEPKc
.LVL297:
	.loc 10 242 0
	cmpwi 0,3,0
	beq- 0,.L214
.LVL298:
.LBB2243:
	.loc 4 973 0
	lwz 9,4(3)
	lwz 3,4(9)
.LVL299:
.L191:
.LBE2243:
.LBE2244:
.LBE2307:
	.loc 4 929 0
	mr 4,23
	bl _ZN5idStr4IcmpEPKcS1_
.LEHE8:
	cmpwi 7,3,0
	bne- 7,.L221
.LVL300:
	.loc 4 930 0
	lwz 9,24(26)
	lwzx 28,9,29
	cmpwi 7,28,0
	beq- 7,.L194
.LVL301:
.LBB2308:
.LBB2302:
.LBB2299:
.LBB2259:
.LBB2260:
	.loc 3 218 0
	lwz 0,44(28)
.LBE2260:
.LBE2259:
	.loc 7 170 0
	addi 27,28,44
.LVL302:
.LBB2264:
.LBB2263:
	.loc 3 218 0
	cmpwi 7,0,0
	ble- 7,.L195
	li 31,0
.LVL303:
.L197:
	.loc 3 219 0
	lwz 9,12(27)
	.loc 4 926 0
	slwi 30,31,2
	.loc 3 219 0
	lwzx 3,9,30
	add 9,9,30
	cmpwi 7,3,0
	beq- 7,.L196
	lwz 9,0(3)
	lwz 0,4(9)
	mtctr 0
.LEHB9:
	bctrl
.LEHE9:
	lwz 9,56(28)
	add 9,9,30
.L196:
	.loc 3 220 0
	stw 24,0(9)
	.loc 3 218 0
	addi 31,31,1
.LVL304:
	lwz 0,0(27)
	cmpw 7,31,0
	blt+ 7,.L197
.LVL305:
.L195:
.LBB2261:
.LBB2262:
	.loc 3 193 0
	lwz 3,56(28)
	cmpwi 7,3,0
	beq- 7,.L198
	.loc 3 194 0
	bl _ZdaPv
.L198:
.LVL306:
.LBE2262:
.LBE2261:
.LBE2263:
.LBE2264:
.LBB2265:
.LBB2257:
.LBB2255:
.LBB2253:
	.loc 3 197 0
	stw 24,56(28)
.LBE2253:
.LBE2255:
.LBE2257:
.LBE2265:
.LBB2266:
.LBB2267:
.LBB2268:
	.loc 10 174 0
	mr 3,28
.LBE2268:
.LBE2267:
.LBE2266:
.LBB2292:
.LBB2258:
.LBB2256:
.LBB2254:
	.loc 3 198 0
	stw 24,44(28)
	.loc 3 199 0
	stw 24,48(28)
.LVL307:
.LEHB10:
.LBE2254:
.LBE2256:
.LBE2258:
.LBE2292:
.LBB2293:
.LBB2289:
.LBB2286:
	.loc 10 174 0
	bl _ZN6idDict5ClearEv
.LEHE10:
.LVL308:
.LBB2269:
.LBB2270:
.LBB2271:
	.loc 11 130 0
	addi 3,28,16
.LEHB11:
	bl _ZN11idHashIndex4FreeEv
.LEHE11:
.LVL309:
.LBE2271:
.LBE2270:
.LBE2269:
.LBB2272:
.LBB2273:
.LBB2274:
.LBB2275:
	.loc 3 193 0
	lwz 3,12(28)
	cmpwi 7,3,0
	beq- 7,.L201
	.loc 3 194 0
	bl _ZdaPv
.L201:
	.loc 3 197 0
	stw 24,12(28)
.LBE2275:
.LBE2274:
.LBE2273:
.LBE2272:
.LBE2286:
.LBE2289:
.LBE2293:
.LBE2299:
.LBE2302:
.LBE2308:
	.loc 4 930 0
	mr 3,28
.LBB2309:
.LBB2303:
.LBB2300:
.LBB2294:
.LBB2290:
.LBB2287:
.LBB2279:
.LBB2278:
.LBB2277:
.LBB2276:
	.loc 3 198 0
	stw 24,0(28)
	.loc 3 199 0
	stw 24,4(28)
.LBE2276:
.LBE2277:
.LBE2278:
.LBE2279:
.LBE2287:
.LBE2290:
.LBE2294:
.LBE2300:
.LBE2303:
.LBE2309:
	.loc 4 930 0
	bl _ZdlPv
.LVL310:
.L194:
.LBB2310:
.LBB2311:
	.loc 3 864 0
	lwz 9,12(26)
	cmpw 7,9,25
	ble- 7,.L211
.LVL311:
.LBE2311:
.LBB2312:
.LBB2313:
	.loc 3 868 0
	addi 9,9,-1
	.loc 3 869 0
	cmpw 7,9,25
	.loc 3 868 0
	stw 9,12(26)
.LVL312:
	.loc 3 869 0
	ble- 7,.L211
	mr 11,25
.LVL313:
.L212:
	.loc 3 870 0
	lwz 9,24(26)
	.loc 3 869 0
	addi 11,11,1
.LVL314:
	.loc 3 870 0
	add 10,9,29
	.loc 4 926 0
	addi 29,29,4
	.loc 3 870 0
	lwzx 0,9,29
	stw 0,0(10)
	.loc 3 869 0
	lwz 9,12(26)
	cmpw 7,11,9
	blt+ 7,.L212
.LVL315:
.L211:
.LBE2313:
.LBE2312:
.LBE2310:
	.loc 4 932 0
	addi 25,25,-1
.LVL316:
.LBE2316:
	.loc 4 927 0
	addi 25,25,1
.LVL317:
	cmpw 7,25,9
	blt+ 7,.L213
.LVL318:
.L189:
.LBE2239:
	.loc 4 935 0
	lwz 0,60(1)
	lwz 21,12(1)
	mtlr 0
	lwz 22,16(1)
	lwz 23,20(1)
.LVL319:
	lwz 24,24(1)
	lwz 25,28(1)
	lwz 26,32(1)
.LVL320:
	lwz 27,36(1)
	lwz 28,40(1)
	lwz 29,44(1)
	lwz 30,48(1)
	lwz 31,52(1)
	addi 1,1,56
	.cfi_remember_state
.LCFI53:
	.cfi_def_cfa_offset 0
	.cfi_restore 31
	.cfi_restore 30
	.cfi_restore 29
	.cfi_restore 28
	.cfi_restore 27
	.cfi_restore 26
	.cfi_restore 25
	.cfi_restore 24
	.cfi_restore 23
	.cfi_restore 22
	.cfi_restore 21
	blr
.LVL321:
.L214:
.LCFI54:
	.cfi_restore_state
.LBB2318:
.LBB2317:
.LBB2314:
.LBB2245:
	.loc 10 245 0
	la 3,.LC30@l(21)
.LVL322:
	b .L191
.LVL323:
.L215:
	mr 31,3
.LVL324:
.LBE2245:
.LBE2314:
.LBB2315:
.LBB2304:
.LBB2301:
.LBB2295:
.LBB2296:
.LBB2297:
	.loc 3 181 0
	mr 3,27
	bl _ZN6idListIP14idMapPrimitiveE5ClearEv
.LBE2297:
.LBE2296:
.LBE2295:
	.loc 7 170 0
	mr 3,28
	bl _ZN6idDictD1Ev
	mr 3,31
.LEHB12:
	bl _Unwind_Resume
.LVL325:
.L216:
	mr 31,3
.LVL326:
.L205:
.LBB2298:
.LBB2291:
.LBB2288:
.LBB2280:
.LBB2281:
.LBB2282:
	.loc 3 181 0
	mr 3,28
	bl _ZN6idListI10idKeyValueE5ClearEv
	mr 3,31
	bl _Unwind_Resume
.LEHE12:
.LVL327:
.L217:
	mr 31,3
.LVL328:
.LBE2282:
.LBE2281:
.LBE2280:
.LBB2283:
.LBB2284:
.LBB2285:
	.loc 11 130 0
	addi 3,28,16
	bl _ZN11idHashIndex4FreeEv
	b .L205
.LBE2285:
.LBE2284:
.LBE2283:
.LBE2288:
.LBE2291:
.LBE2298:
.LBE2301:
.LBE2304:
.LBE2315:
.LBE2317:
.LBE2318:
	.cfi_endproc
.LFE2559:
	.section	.gcc_except_table
.LLSDA2559:
	.byte	0xff
	.byte	0xff
	.byte	0x1
	.uleb128 .LLSDACSE2559-.LLSDACSB2559
.LLSDACSB2559:
	.uleb128 .LEHB8-.LFB2559
	.uleb128 .LEHE8-.LEHB8
	.uleb128 0
	.uleb128 0
	.uleb128 .LEHB9-.LFB2559
	.uleb128 .LEHE9-.LEHB9
	.uleb128 .L215-.LFB2559
	.uleb128 0
	.uleb128 .LEHB10-.LFB2559
	.uleb128 .LEHE10-.LEHB10
	.uleb128 .L217-.LFB2559
	.uleb128 0
	.uleb128 .LEHB11-.LFB2559
	.uleb128 .LEHE11-.LEHB11
	.uleb128 .L216-.LFB2559
	.uleb128 0
	.uleb128 .LEHB12-.LFB2559
	.uleb128 .LEHE12-.LEHB12
	.uleb128 0
	.uleb128 0
.LLSDACSE2559:
	.section	".text"
	.size	_ZN9idMapFile14RemoveEntitiesEPKc, .-_ZN9idMapFile14RemoveEntitiesEPKc
	.section	.text._ZN14idMapPrimitiveD2Ev,"axG",@progbits,_ZN14idMapPrimitiveD5Ev,comdat
	.align 2
	.weak	_ZN14idMapPrimitiveD2Ev
	.type	_ZN14idMapPrimitiveD2Ev, @function
_ZN14idMapPrimitiveD2Ev:
.LFB2071:
	.loc 7 62 0
	.cfi_startproc
	.cfi_personality 0,__gxx_personality_v0
	.cfi_lsda 0,.LLSDA2071
.LVL329:
	mflr 0
	stwu 1,-24(1)
.LCFI55:
	.cfi_def_cfa_offset 24
	.cfi_register 65, 0
.LBB2338:
	lis 9,_ZTV14idMapPrimitive+8@ha
.LBE2338:
	stw 30,16(1)
.LBB2358:
	addi 30,3,4
	.cfi_offset 30, -8
.LBE2358:
	stw 0,28(1)
.LBB2359:
	la 0,_ZTV14idMapPrimitive+8@l(9)
	.cfi_offset 65, 4
.LBE2359:
	stw 31,20(1)
	mr 31,3
	.cfi_offset 31, -4
	stw 29,12(1)
.LBB2360:
	.loc 7 62 0
	stw 0,0(3)
.LVL330:
.LBB2339:
.LBB2340:
.LBB2341:
	.loc 10 174 0
	mr 3,30
.LVL331:
.LEHB13:
	.cfi_offset 29, -12
	bl _ZN6idDict5ClearEv
.LEHE13:
.LVL332:
.LBB2342:
.LBB2343:
.LBB2344:
	.loc 11 130 0
	addi 3,31,20
.LEHB14:
	bl _ZN11idHashIndex4FreeEv
.LEHE14:
.LVL333:
.LBE2344:
.LBE2343:
.LBE2342:
.LBB2345:
.LBB2346:
.LBB2347:
.LBB2348:
	.loc 3 193 0
	lwz 3,16(31)
	cmpwi 7,3,0
	beq- 7,.L224
	.loc 3 194 0
	bl _ZdaPv
.L224:
	.loc 3 197 0
	li 0,0
	stw 0,16(31)
	.loc 3 198 0
	stw 0,4(31)
	.loc 3 199 0
	stw 0,8(31)
.LBE2348:
.LBE2347:
.LBE2346:
.LBE2345:
.LBE2341:
.LBE2340:
.LBE2339:
.LBE2360:
	.loc 7 62 0
	lwz 0,28(1)
	lwz 29,12(1)
	mtlr 0
	lwz 30,16(1)
.LVL334:
	lwz 31,20(1)
.LVL335:
	addi 1,1,24
	.cfi_remember_state
.LCFI56:
	.cfi_def_cfa_offset 0
	.cfi_restore 31
	.cfi_restore 30
	.cfi_restore 29
	blr
.LVL336:
.L233:
.LCFI57:
	.cfi_restore_state
	mr 29,3
.LVL337:
.LBB2361:
.LBB2357:
.LBB2356:
.LBB2355:
.LBB2349:
.LBB2350:
.LBB2351:
	.loc 11 130 0
	addi 3,31,20
	bl _ZN11idHashIndex4FreeEv
	mr 31,29
.LVL338:
.L228:
.LBE2351:
.LBE2350:
.LBE2349:
.LBB2352:
.LBB2353:
.LBB2354:
	.loc 3 181 0
	mr 3,30
	bl _ZN6idListI10idKeyValueE5ClearEv
	mr 3,31
.LEHB15:
	bl _Unwind_Resume
.LEHE15:
.LVL339:
.L232:
	mr 31,3
	b .L228
.LBE2354:
.LBE2353:
.LBE2352:
.LBE2355:
.LBE2356:
.LBE2357:
.LBE2361:
	.cfi_endproc
.LFE2071:
	.section	.gcc_except_table
.LLSDA2071:
	.byte	0xff
	.byte	0xff
	.byte	0x1
	.uleb128 .LLSDACSE2071-.LLSDACSB2071
.LLSDACSB2071:
	.uleb128 .LEHB13-.LFB2071
	.uleb128 .LEHE13-.LEHB13
	.uleb128 .L233-.LFB2071
	.uleb128 0
	.uleb128 .LEHB14-.LFB2071
	.uleb128 .LEHE14-.LEHB14
	.uleb128 .L232-.LFB2071
	.uleb128 0
	.uleb128 .LEHB15-.LFB2071
	.uleb128 .LEHE15-.LEHB15
	.uleb128 0
	.uleb128 0
.LLSDACSE2071:
	.section	.text._ZN14idMapPrimitiveD2Ev,"axG",@progbits,_ZN14idMapPrimitiveD5Ev,comdat
	.size	_ZN14idMapPrimitiveD2Ev, .-_ZN14idMapPrimitiveD2Ev
	.section	.text._ZN10idMapPatchD2Ev,"axG",@progbits,_ZN10idMapPatchD5Ev,comdat
	.align 2
	.weak	_ZN10idMapPatchD2Ev
	.type	_ZN10idMapPatchD2Ev, @function
_ZN10idMapPatchD2Ev:
.LFB2098:
	.loc 7 121 0
	.cfi_startproc
	.cfi_personality 0,__gxx_personality_v0
	.cfi_lsda 0,.LLSDA2098
.LVL340:
	mflr 0
	stwu 1,-24(1)
.LCFI58:
	.cfi_def_cfa_offset 24
	.cfi_register 65, 0
.LBB2415:
	lis 9,_ZTV10idMapPatch+8@ha
.LBE2415:
	stw 31,20(1)
	mr 31,3
	.cfi_offset 31, -4
	stw 0,28(1)
.LBB2548:
	la 0,_ZTV10idMapPatch+8@l(9)
	.cfi_offset 65, 4
.LBE2548:
	stw 29,12(1)
	stw 30,16(1)
.LBB2549:
	.loc 7 121 0
	stw 0,0(3)
.LVL341:
.LBB2416:
.LBB2417:
.LBB2418:
	.loc 9 501 0
	addi 3,3,136
.LVL342:
.LEHB16:
	.cfi_offset 30, -8
	.cfi_offset 29, -12
	bl _ZN5idStr8FreeDataEv
.LEHE16:
.LVL343:
.LBE2418:
.LBE2417:
.LBE2416:
.LBB2419:
.LBB2420:
.LBB2421:
.LBB2422:
.LBB2423:
.LBB2424:
.LBB2425:
.LBB2426:
	.loc 3 193 0 discriminator 1
	lwz 3,112(31)
	cmpwi 7,3,0
	beq- 7,.L236
	.loc 3 194 0
	bl _ZdaPv
.L236:
.LBE2426:
.LBE2425:
.LBE2424:
.LBE2423:
.LBB2433:
.LBB2434:
.LBB2435:
.LBB2436:
	.loc 3 193 0
	lwz 3,96(31)
.LBE2436:
.LBE2435:
.LBE2434:
.LBE2433:
.LBB2449:
.LBB2431:
.LBB2429:
.LBB2427:
	.loc 3 197 0
	li 0,0
	stw 0,112(31)
.LBE2427:
.LBE2429:
.LBE2431:
.LBE2449:
.LBB2450:
.LBB2445:
.LBB2441:
.LBB2437:
	.loc 3 193 0
	cmpwi 7,3,0
.LBE2437:
.LBE2441:
.LBE2445:
.LBE2450:
.LBB2451:
.LBB2432:
.LBB2430:
.LBB2428:
	.loc 3 198 0
	stw 0,100(31)
	.loc 3 199 0
	stw 0,104(31)
.LVL344:
.LBE2428:
.LBE2430:
.LBE2432:
.LBE2451:
.LBB2452:
.LBB2446:
.LBB2442:
.LBB2438:
	.loc 3 193 0
	beq- 7,.L238
	.loc 3 194 0
	bl _ZdaPv
.L238:
.LBE2438:
.LBE2442:
.LBE2446:
.LBE2452:
.LBB2453:
.LBB2454:
.LBB2455:
.LBB2456:
	.loc 3 193 0
	lwz 3,80(31)
.LBE2456:
.LBE2455:
.LBE2454:
.LBE2453:
.LBB2469:
.LBB2447:
.LBB2443:
.LBB2439:
	.loc 3 197 0
	li 0,0
	stw 0,96(31)
.LBE2439:
.LBE2443:
.LBE2447:
.LBE2469:
.LBB2470:
.LBB2465:
.LBB2461:
.LBB2457:
	.loc 3 193 0
	cmpwi 7,3,0
.LBE2457:
.LBE2461:
.LBE2465:
.LBE2470:
.LBB2471:
.LBB2448:
.LBB2444:
.LBB2440:
	.loc 3 198 0
	stw 0,84(31)
	.loc 3 199 0
	stw 0,88(31)
.LVL345:
.LBE2440:
.LBE2444:
.LBE2448:
.LBE2471:
.LBB2472:
.LBB2466:
.LBB2462:
.LBB2458:
	.loc 3 193 0
	beq- 7,.L240
	.loc 3 194 0
	bl _ZdaPv
.L240:
.LBE2458:
.LBE2462:
.LBE2466:
.LBE2472:
.LBB2473:
.LBB2474:
.LBB2475:
.LBB2476:
	.loc 3 193 0
	lwz 3,64(31)
.LBE2476:
.LBE2475:
.LBE2474:
.LBE2473:
.LBB2492:
.LBB2467:
.LBB2463:
.LBB2459:
	.loc 3 197 0
	li 0,0
	stw 0,80(31)
.LBE2459:
.LBE2463:
.LBE2467:
.LBE2492:
.LBB2493:
.LBB2487:
.LBB2482:
.LBB2477:
	.loc 3 193 0
	cmpwi 7,3,0
.LBE2477:
.LBE2482:
.LBE2487:
.LBE2493:
.LBB2494:
.LBB2468:
.LBB2464:
.LBB2460:
	.loc 3 198 0
	stw 0,68(31)
	.loc 3 199 0
	stw 0,72(31)
.LVL346:
.LBE2460:
.LBE2464:
.LBE2468:
.LBE2494:
.LBB2495:
.LBB2488:
.LBB2483:
.LBB2478:
	.loc 3 193 0
	beq- 7,.L242
	.loc 3 194 0
	bl _ZdaPv
.L242:
	.loc 3 197 0
	li 0,0
.LBE2478:
.LBE2483:
.LBE2488:
.LBE2495:
.LBE2422:
.LBE2421:
.LBE2420:
.LBE2419:
.LBB2508:
.LBB2509:
.LBB2510:
	.loc 7 62 0
	lis 9,_ZTV14idMapPrimitive+8@ha
.LBE2510:
.LBE2509:
.LBE2508:
.LBB2541:
.LBB2505:
.LBB2502:
.LBB2499:
.LBB2496:
.LBB2489:
.LBB2484:
.LBB2479:
	.loc 3 197 0
	stw 0,64(31)
.LBE2479:
.LBE2484:
.LBE2489:
.LBE2496:
.LBE2499:
.LBE2502:
.LBE2505:
.LBE2541:
.LBB2542:
.LBB2537:
.LBB2533:
	.loc 7 62 0
	addi 30,31,4
.LBE2533:
.LBE2537:
.LBE2542:
.LBB2543:
.LBB2506:
.LBB2503:
.LBB2500:
.LBB2497:
.LBB2490:
.LBB2485:
.LBB2480:
	.loc 3 198 0
	stw 0,52(31)
.LBE2480:
.LBE2485:
.LBE2490:
.LBE2497:
.LBE2500:
.LBE2503:
.LBE2506:
.LBE2543:
.LBB2544:
.LBB2538:
.LBB2534:
.LBB2511:
.LBB2512:
.LBB2513:
	.loc 10 174 0
	mr 3,30
.LBE2513:
.LBE2512:
.LBE2511:
.LBE2534:
.LBE2538:
.LBE2544:
.LBB2545:
.LBB2507:
.LBB2504:
.LBB2501:
.LBB2498:
.LBB2491:
.LBB2486:
.LBB2481:
	.loc 3 199 0
	stw 0,56(31)
.LVL347:
.LBE2481:
.LBE2486:
.LBE2491:
.LBE2498:
.LBE2501:
.LBE2504:
.LBE2507:
.LBE2545:
.LBB2546:
.LBB2539:
.LBB2535:
	.loc 7 62 0
	la 0,_ZTV14idMapPrimitive+8@l(9)
	stw 0,0(31)
.LVL348:
.LEHB17:
.LBB2531:
.LBB2529:
.LBB2527:
	.loc 10 174 0
	bl _ZN6idDict5ClearEv
.LEHE17:
.LVL349:
.LBB2514:
.LBB2515:
.LBB2516:
	.loc 11 130 0
	addi 3,31,20
.LEHB18:
	bl _ZN11idHashIndex4FreeEv
.LEHE18:
.LVL350:
.LBE2516:
.LBE2515:
.LBE2514:
.LBB2517:
.LBB2518:
.LBB2519:
.LBB2520:
	.loc 3 193 0
	lwz 3,16(31)
	cmpwi 7,3,0
	beq- 7,.L247
	.loc 3 194 0
	bl _ZdaPv
.L247:
	.loc 3 197 0
	li 0,0
	stw 0,16(31)
	.loc 3 198 0
	stw 0,4(31)
	.loc 3 199 0
	stw 0,8(31)
.LBE2520:
.LBE2519:
.LBE2518:
.LBE2517:
.LBE2527:
.LBE2529:
.LBE2531:
.LBE2535:
.LBE2539:
.LBE2546:
.LBE2549:
	.loc 7 121 0
	lwz 0,28(1)
	lwz 29,12(1)
	mtlr 0
	lwz 30,16(1)
.LVL351:
	lwz 31,20(1)
.LVL352:
	addi 1,1,24
	.cfi_remember_state
.LCFI59:
	.cfi_def_cfa_offset 0
	.cfi_restore 31
	.cfi_restore 30
	.cfi_restore 29
	blr
.LVL353:
.L257:
.LCFI60:
	.cfi_restore_state
	mr 30,3
.LBB2550:
	addi 3,31,52
	bl _ZN15idSurface_PatchD2Ev
	mr 3,31
	bl _ZN14idMapPrimitiveD2Ev
	mr 3,30
.LEHB19:
	bl _Unwind_Resume
.LVL354:
.L258:
	mr 31,3
.LVL355:
.L251:
.LBB2547:
.LBB2540:
.LBB2536:
.LBB2532:
.LBB2530:
.LBB2528:
.LBB2521:
.LBB2522:
.LBB2523:
	.loc 3 181 0
	mr 3,30
	bl _ZN6idListI10idKeyValueE5ClearEv
	mr 3,31
	bl _Unwind_Resume
.LEHE19:
.L259:
	mr 29,3
.LVL356:
.LBE2523:
.LBE2522:
.LBE2521:
.LBB2524:
.LBB2525:
.LBB2526:
	.loc 11 130 0
	addi 3,31,20
	bl _ZN11idHashIndex4FreeEv
	mr 31,29
	b .L251
.LBE2526:
.LBE2525:
.LBE2524:
.LBE2528:
.LBE2530:
.LBE2532:
.LBE2536:
.LBE2540:
.LBE2547:
.LBE2550:
	.cfi_endproc
.LFE2098:
	.section	.gcc_except_table
.LLSDA2098:
	.byte	0xff
	.byte	0xff
	.byte	0x1
	.uleb128 .LLSDACSE2098-.LLSDACSB2098
.LLSDACSB2098:
	.uleb128 .LEHB16-.LFB2098
	.uleb128 .LEHE16-.LEHB16
	.uleb128 .L257-.LFB2098
	.uleb128 0
	.uleb128 .LEHB17-.LFB2098
	.uleb128 .LEHE17-.LEHB17
	.uleb128 .L259-.LFB2098
	.uleb128 0
	.uleb128 .LEHB18-.LFB2098
	.uleb128 .LEHE18-.LEHB18
	.uleb128 .L258-.LFB2098
	.uleb128 0
	.uleb128 .LEHB19-.LFB2098
	.uleb128 .LEHE19-.LEHB19
	.uleb128 0
	.uleb128 0
.LLSDACSE2098:
	.section	.text._ZN10idMapPatchD2Ev,"axG",@progbits,_ZN10idMapPatchD5Ev,comdat
	.size	_ZN10idMapPatchD2Ev, .-_ZN10idMapPatchD2Ev
	.section	.text._ZN14idMapPrimitiveD0Ev,"axG",@progbits,_ZN14idMapPrimitiveD5Ev,comdat
	.align 2
	.weak	_ZN14idMapPrimitiveD0Ev
	.type	_ZN14idMapPrimitiveD0Ev, @function
_ZN14idMapPrimitiveD0Ev:
.LFB2073:
	.loc 7 62 0
	.cfi_startproc
	.cfi_personality 0,__gxx_personality_v0
	.cfi_lsda 0,.LLSDA2073
.LVL357:
	mflr 0
	stwu 1,-24(1)
.LCFI61:
	.cfi_def_cfa_offset 24
	.cfi_register 65, 0
.LBB2571:
.LBB2572:
.LBB2573:
	lis 9,_ZTV14idMapPrimitive+8@ha
.LBE2573:
.LBE2572:
.LBE2571:
	stw 30,16(1)
.LBB2610:
.LBB2605:
.LBB2600:
	addi 30,3,4
	.cfi_offset 30, -8
.LBE2600:
.LBE2605:
.LBE2610:
	stw 0,28(1)
.LBB2611:
.LBB2606:
.LBB2601:
	la 0,_ZTV14idMapPrimitive+8@l(9)
	.cfi_offset 65, 4
.LBE2601:
.LBE2606:
.LBE2611:
	stw 31,20(1)
	mr 31,3
	.cfi_offset 31, -4
.LVL358:
	stw 29,12(1)
.LBB2612:
.LBB2607:
.LBB2602:
	.loc 7 62 0
	stw 0,0(3)
.LVL359:
.LBB2574:
.LBB2575:
.LBB2576:
	.loc 10 174 0
	mr 3,30
.LVL360:
.LEHB20:
	.cfi_offset 29, -12
	bl _ZN6idDict5ClearEv
.LEHE20:
.LVL361:
.LBB2577:
.LBB2578:
.LBB2579:
	.loc 11 130 0
	addi 3,31,20
.LEHB21:
	bl _ZN11idHashIndex4FreeEv
.LEHE21:
.LVL362:
.LBE2579:
.LBE2578:
.LBE2577:
.LBB2580:
.LBB2581:
.LBB2582:
.LBB2583:
	.loc 3 193 0
	lwz 3,16(31)
	cmpwi 7,3,0
	beq- 7,.L262
	.loc 3 194 0
	bl _ZdaPv
.LVL363:
.L262:
	.loc 3 197 0
	li 0,0
.LBE2583:
.LBE2582:
.LBE2581:
.LBE2580:
.LBE2576:
.LBE2575:
.LBE2574:
.LBE2602:
.LBE2607:
.LBE2612:
	.loc 7 62 0
	mr 3,31
.LBB2613:
.LBB2608:
.LBB2603:
.LBB2598:
.LBB2596:
.LBB2594:
.LBB2587:
.LBB2586:
.LBB2585:
.LBB2584:
	.loc 3 197 0
	stw 0,16(31)
	.loc 3 198 0
	stw 0,4(31)
	.loc 3 199 0
	stw 0,8(31)
.LBE2584:
.LBE2585:
.LBE2586:
.LBE2587:
.LBE2594:
.LBE2596:
.LBE2598:
.LBE2603:
.LBE2608:
.LBE2613:
	.loc 7 62 0
	bl _ZdlPv
	lwz 0,28(1)
	lwz 29,12(1)
	mtlr 0
	lwz 30,16(1)
.LVL364:
	lwz 31,20(1)
.LVL365:
	addi 1,1,24
	.cfi_remember_state
.LCFI62:
	.cfi_def_cfa_offset 0
	.cfi_restore 31
	.cfi_restore 30
	.cfi_restore 29
	blr
.LVL366:
.L272:
.LCFI63:
	.cfi_restore_state
	mr 29,3
.LVL367:
.LBB2614:
.LBB2609:
.LBB2604:
.LBB2599:
.LBB2597:
.LBB2595:
.LBB2588:
.LBB2589:
.LBB2590:
	.loc 11 130 0
	addi 3,31,20
	bl _ZN11idHashIndex4FreeEv
	mr 31,29
.LVL368:
.L266:
.LBE2590:
.LBE2589:
.LBE2588:
.LBB2591:
.LBB2592:
.LBB2593:
	.loc 3 181 0
	mr 3,30
	bl _ZN6idListI10idKeyValueE5ClearEv
	mr 3,31
.LEHB22:
	bl _Unwind_Resume
.LEHE22:
.LVL369:
.L271:
	mr 31,3
	b .L266
.LBE2593:
.LBE2592:
.LBE2591:
.LBE2595:
.LBE2597:
.LBE2599:
.LBE2604:
.LBE2609:
.LBE2614:
	.cfi_endproc
.LFE2073:
	.section	.gcc_except_table
.LLSDA2073:
	.byte	0xff
	.byte	0xff
	.byte	0x1
	.uleb128 .LLSDACSE2073-.LLSDACSB2073
.LLSDACSB2073:
	.uleb128 .LEHB20-.LFB2073
	.uleb128 .LEHE20-.LEHB20
	.uleb128 .L272-.LFB2073
	.uleb128 0
	.uleb128 .LEHB21-.LFB2073
	.uleb128 .LEHE21-.LEHB21
	.uleb128 .L271-.LFB2073
	.uleb128 0
	.uleb128 .LEHB22-.LFB2073
	.uleb128 .LEHE22-.LEHB22
	.uleb128 0
	.uleb128 0
.LLSDACSE2073:
	.section	.text._ZN14idMapPrimitiveD0Ev,"axG",@progbits,_ZN14idMapPrimitiveD5Ev,comdat
	.size	_ZN14idMapPrimitiveD0Ev, .-_ZN14idMapPrimitiveD0Ev
	.section	.text._ZN10idMapPatchD0Ev,"axG",@progbits,_ZN10idMapPatchD5Ev,comdat
	.align 2
	.weak	_ZN10idMapPatchD0Ev
	.type	_ZN10idMapPatchD0Ev, @function
_ZN10idMapPatchD0Ev:
.LFB2100:
	.loc 7 121 0
	.cfi_startproc
	.cfi_personality 0,__gxx_personality_v0
	.cfi_lsda 0,.LLSDA2100
.LVL370:
	mflr 0
	stwu 1,-24(1)
.LCFI64:
	.cfi_def_cfa_offset 24
	.cfi_register 65, 0
.LBB2666:
.LBB2667:
.LBB2668:
	lis 9,_ZTV10idMapPatch+8@ha
.LBE2668:
.LBE2667:
.LBE2666:
	stw 31,20(1)
	mr 31,3
	.cfi_offset 31, -4
.LVL371:
	stw 0,28(1)
.LBB2819:
.LBB2815:
.LBB2811:
	la 0,_ZTV10idMapPatch+8@l(9)
	.cfi_offset 65, 4
.LBE2811:
.LBE2815:
.LBE2819:
	stw 29,12(1)
	stw 30,16(1)
.LBB2820:
.LBB2816:
.LBB2812:
	.loc 7 121 0
	stw 0,0(3)
.LVL372:
.LBB2669:
.LBB2670:
.LBB2671:
	.loc 9 501 0
	addi 3,3,136
.LVL373:
.LEHB23:
	.cfi_offset 30, -8
	.cfi_offset 29, -12
	bl _ZN5idStr8FreeDataEv
.LEHE23:
.LVL374:
.LBE2671:
.LBE2670:
.LBE2669:
.LBB2672:
.LBB2673:
.LBB2674:
.LBB2675:
.LBB2676:
.LBB2677:
.LBB2678:
.LBB2679:
	.loc 3 193 0
	lwz 3,112(31)
	cmpwi 7,3,0
	beq- 7,.L275
	.loc 3 194 0
	bl _ZdaPv
.LVL375:
.L275:
.LBE2679:
.LBE2678:
.LBE2677:
.LBE2676:
.LBB2686:
.LBB2687:
.LBB2688:
.LBB2689:
	.loc 3 193 0
	lwz 3,96(31)
.LBE2689:
.LBE2688:
.LBE2687:
.LBE2686:
.LBB2702:
.LBB2684:
.LBB2682:
.LBB2680:
	.loc 3 197 0
	li 0,0
	stw 0,112(31)
.LBE2680:
.LBE2682:
.LBE2684:
.LBE2702:
.LBB2703:
.LBB2698:
.LBB2694:
.LBB2690:
	.loc 3 193 0
	cmpwi 7,3,0
.LBE2690:
.LBE2694:
.LBE2698:
.LBE2703:
.LBB2704:
.LBB2685:
.LBB2683:
.LBB2681:
	.loc 3 198 0
	stw 0,100(31)
	.loc 3 199 0
	stw 0,104(31)
.LVL376:
.LBE2681:
.LBE2683:
.LBE2685:
.LBE2704:
.LBB2705:
.LBB2699:
.LBB2695:
.LBB2691:
	.loc 3 193 0
	beq- 7,.L277
	.loc 3 194 0
	bl _ZdaPv
.L277:
.LBE2691:
.LBE2695:
.LBE2699:
.LBE2705:
.LBB2706:
.LBB2707:
.LBB2708:
.LBB2709:
	.loc 3 193 0
	lwz 3,80(31)
.LBE2709:
.LBE2708:
.LBE2707:
.LBE2706:
.LBB2722:
.LBB2700:
.LBB2696:
.LBB2692:
	.loc 3 197 0
	li 0,0
	stw 0,96(31)
.LBE2692:
.LBE2696:
.LBE2700:
.LBE2722:
.LBB2723:
.LBB2718:
.LBB2714:
.LBB2710:
	.loc 3 193 0
	cmpwi 7,3,0
.LBE2710:
.LBE2714:
.LBE2718:
.LBE2723:
.LBB2724:
.LBB2701:
.LBB2697:
.LBB2693:
	.loc 3 198 0
	stw 0,84(31)
	.loc 3 199 0
	stw 0,88(31)
.LVL377:
.LBE2693:
.LBE2697:
.LBE2701:
.LBE2724:
.LBB2725:
.LBB2719:
.LBB2715:
.LBB2711:
	.loc 3 193 0
	beq- 7,.L279
	.loc 3 194 0
	bl _ZdaPv
.L279:
.LBE2711:
.LBE2715:
.LBE2719:
.LBE2725:
.LBB2726:
.LBB2727:
.LBB2728:
.LBB2729:
	.loc 3 193 0
	lwz 3,64(31)
.LBE2729:
.LBE2728:
.LBE2727:
.LBE2726:
.LBB2745:
.LBB2720:
.LBB2716:
.LBB2712:
	.loc 3 197 0
	li 0,0
	stw 0,80(31)
.LBE2712:
.LBE2716:
.LBE2720:
.LBE2745:
.LBB2746:
.LBB2740:
.LBB2735:
.LBB2730:
	.loc 3 193 0
	cmpwi 7,3,0
.LBE2730:
.LBE2735:
.LBE2740:
.LBE2746:
.LBB2747:
.LBB2721:
.LBB2717:
.LBB2713:
	.loc 3 198 0
	stw 0,68(31)
	.loc 3 199 0
	stw 0,72(31)
.LVL378:
.LBE2713:
.LBE2717:
.LBE2721:
.LBE2747:
.LBB2748:
.LBB2741:
.LBB2736:
.LBB2731:
	.loc 3 193 0
	beq- 7,.L281
	.loc 3 194 0
	bl _ZdaPv
.L281:
	.loc 3 197 0
	li 0,0
.LBE2731:
.LBE2736:
.LBE2741:
.LBE2748:
.LBE2675:
.LBE2674:
.LBE2673:
.LBE2672:
.LBB2761:
.LBB2762:
.LBB2763:
	.loc 7 62 0
	lis 9,_ZTV14idMapPrimitive+8@ha
.LBE2763:
.LBE2762:
.LBE2761:
.LBB2803:
.LBB2758:
.LBB2755:
.LBB2752:
.LBB2749:
.LBB2742:
.LBB2737:
.LBB2732:
	.loc 3 197 0
	stw 0,64(31)
.LBE2732:
.LBE2737:
.LBE2742:
.LBE2749:
.LBE2752:
.LBE2755:
.LBE2758:
.LBE2803:
.LBB2804:
.LBB2798:
.LBB2793:
	.loc 7 62 0
	addi 30,31,4
.LBE2793:
.LBE2798:
.LBE2804:
.LBB2805:
.LBB2759:
.LBB2756:
.LBB2753:
.LBB2750:
.LBB2743:
.LBB2738:
.LBB2733:
	.loc 3 198 0
	stw 0,52(31)
.LBE2733:
.LBE2738:
.LBE2743:
.LBE2750:
.LBE2753:
.LBE2756:
.LBE2759:
.LBE2805:
.LBB2806:
.LBB2799:
.LBB2794:
.LBB2764:
.LBB2765:
.LBB2766:
	.loc 10 174 0
	mr 3,30
.LBE2766:
.LBE2765:
.LBE2764:
.LBE2794:
.LBE2799:
.LBE2806:
.LBB2807:
.LBB2760:
.LBB2757:
.LBB2754:
.LBB2751:
.LBB2744:
.LBB2739:
.LBB2734:
	.loc 3 199 0
	stw 0,56(31)
.LVL379:
.LBE2734:
.LBE2739:
.LBE2744:
.LBE2751:
.LBE2754:
.LBE2757:
.LBE2760:
.LBE2807:
.LBB2808:
.LBB2800:
.LBB2795:
	.loc 7 62 0
	la 0,_ZTV14idMapPrimitive+8@l(9)
	stw 0,0(31)
.LVL380:
.LEHB24:
.LBB2790:
.LBB2787:
.LBB2784:
	.loc 10 174 0
	bl _ZN6idDict5ClearEv
.LEHE24:
.LVL381:
.LBB2767:
.LBB2768:
.LBB2769:
	.loc 11 130 0
	addi 3,31,20
.LEHB25:
	bl _ZN11idHashIndex4FreeEv
.LEHE25:
.LVL382:
.LBE2769:
.LBE2768:
.LBE2767:
.LBB2770:
.LBB2771:
.LBB2772:
.LBB2773:
	.loc 3 193 0
	lwz 3,16(31)
	cmpwi 7,3,0
	beq- 7,.L286
	.loc 3 194 0
	bl _ZdaPv
.L286:
	.loc 3 197 0
	li 0,0
.LBE2773:
.LBE2772:
.LBE2771:
.LBE2770:
.LBE2784:
.LBE2787:
.LBE2790:
.LBE2795:
.LBE2800:
.LBE2808:
.LBE2812:
.LBE2816:
.LBE2820:
	.loc 7 121 0
	mr 3,31
.LBB2821:
.LBB2817:
.LBB2813:
.LBB2809:
.LBB2801:
.LBB2796:
.LBB2791:
.LBB2788:
.LBB2785:
.LBB2777:
.LBB2776:
.LBB2775:
.LBB2774:
	.loc 3 197 0
	stw 0,16(31)
	.loc 3 198 0
	stw 0,4(31)
	.loc 3 199 0
	stw 0,8(31)
.LBE2774:
.LBE2775:
.LBE2776:
.LBE2777:
.LBE2785:
.LBE2788:
.LBE2791:
.LBE2796:
.LBE2801:
.LBE2809:
.LBE2813:
.LBE2817:
.LBE2821:
	.loc 7 121 0
	bl _ZdlPv
	lwz 0,28(1)
	lwz 29,12(1)
	mtlr 0
	lwz 30,16(1)
.LVL383:
	lwz 31,20(1)
.LVL384:
	addi 1,1,24
	.cfi_remember_state
.LCFI65:
	.cfi_def_cfa_offset 0
	.cfi_restore 31
	.cfi_restore 30
	.cfi_restore 29
	blr
.LVL385:
.L297:
.LCFI66:
	.cfi_restore_state
	mr 30,3
.LBB2822:
.LBB2818:
.LBB2814:
	addi 3,31,52
	bl _ZN15idSurface_PatchD2Ev
	mr 3,31
	bl _ZN14idMapPrimitiveD2Ev
	mr 3,30
.LEHB26:
	bl _Unwind_Resume
.LVL386:
.L298:
	mr 31,3
.LVL387:
.L290:
.LBB2810:
.LBB2802:
.LBB2797:
.LBB2792:
.LBB2789:
.LBB2786:
.LBB2778:
.LBB2779:
.LBB2780:
	.loc 3 181 0
	mr 3,30
	bl _ZN6idListI10idKeyValueE5ClearEv
	mr 3,31
	bl _Unwind_Resume
.LEHE26:
.L299:
	mr 29,3
.LVL388:
.LBE2780:
.LBE2779:
.LBE2778:
.LBB2781:
.LBB2782:
.LBB2783:
	.loc 11 130 0
	addi 3,31,20
	bl _ZN11idHashIndex4FreeEv
	mr 31,29
	b .L290
.LBE2783:
.LBE2782:
.LBE2781:
.LBE2786:
.LBE2789:
.LBE2792:
.LBE2797:
.LBE2802:
.LBE2810:
.LBE2814:
.LBE2818:
.LBE2822:
	.cfi_endproc
.LFE2100:
	.section	.gcc_except_table
.LLSDA2100:
	.byte	0xff
	.byte	0xff
	.byte	0x1
	.uleb128 .LLSDACSE2100-.LLSDACSB2100
.LLSDACSB2100:
	.uleb128 .LEHB23-.LFB2100
	.uleb128 .LEHE23-.LEHB23
	.uleb128 .L297-.LFB2100
	.uleb128 0
	.uleb128 .LEHB24-.LFB2100
	.uleb128 .LEHE24-.LEHB24
	.uleb128 .L299-.LFB2100
	.uleb128 0
	.uleb128 .LEHB25-.LFB2100
	.uleb128 .LEHE25-.LEHB25
	.uleb128 .L298-.LFB2100
	.uleb128 0
	.uleb128 .LEHB26-.LFB2100
	.uleb128 .LEHE26-.LEHB26
	.uleb128 0
	.uleb128 0
.LLSDACSE2100:
	.section	.text._ZN10idMapPatchD0Ev,"axG",@progbits,_ZN10idMapPatchD5Ev,comdat
	.size	_ZN10idMapPatchD0Ev, .-_ZN10idMapPatchD0Ev
	.section	".text"
	.align 2
	.globl _ZN9idMapFile12RemoveEntityEP11idMapEntity
	.type	_ZN9idMapFile12RemoveEntityEP11idMapEntity, @function
_ZN9idMapFile12RemoveEntityEP11idMapEntity:
.LFB2558:
	.loc 4 916 0
	.cfi_startproc
	.cfi_personality 0,__gxx_personality_v0
	.cfi_lsda 0,.LLSDA2558
.LVL389:
	mflr 0
	stwu 1,-32(1)
.LCFI67:
	.cfi_def_cfa_offset 32
	.cfi_register 65, 0
	stw 29,20(1)
	mr 29,4
	.cfi_offset 29, -12
	stw 0,36(1)
	stw 27,12(1)
	stw 28,16(1)
	stw 30,24(1)
	stw 31,28(1)
.LBB2867:
	.loc 4 973 0
	lwz 9,12(3)
.LVL390:
.LBB2868:
.LBB2869:
.LBB2870:
	.loc 3 772 0
	cmpwi 7,9,0
	ble- 7,.L301
	.cfi_offset 31, -4
	.cfi_offset 30, -8
	.cfi_offset 28, -16
	.cfi_offset 27, -20
	.cfi_offset 65, 4
	.loc 3 773 0
	lwz 8,24(3)
	lwz 0,0(8)
	cmpw 7,0,4
	beq- 7,.L323
	mr 10,8
	.loc 3 772 0
	li 11,0
	mtctr 9
	b .L303
.LVL391:
.L304:
	.loc 3 773 0
	lwzu 0,4(10)
	cmpw 7,0,29
	beq- 7,.L302
.LVL392:
.L303:
	.loc 3 772 0
	addi 11,11,1
.LVL393:
	bdnz .L304
.LVL394:
.L301:
.LBE2870:
.LBE2869:
.LBE2868:
.LBE2867:
	.loc 4 918 0
	cmpwi 7,29,0
	beq- 7,.L300
.LVL395:
.LBB2877:
.LBB2878:
.LBB2879:
.LBB2880:
.LBB2881:
	.loc 3 218 0
	lwz 0,44(29)
.LBE2881:
.LBE2880:
	.loc 7 170 0
	addi 28,29,44
.LVL396:
.LBB2885:
.LBB2884:
	.loc 3 218 0
	cmpwi 7,0,0
	ble- 7,.L307
	li 31,0
	.loc 3 220 0
	li 27,0
.LVL397:
.L309:
	.loc 3 219 0
	lwz 9,12(28)
	.loc 4 916 0
	slwi 30,31,2
	.loc 3 219 0
	lwzx 3,9,30
	add 9,9,30
	cmpwi 7,3,0
	beq- 7,.L308
	lwz 9,0(3)
	lwz 0,4(9)
	mtctr 0
.LEHB27:
	bctrl
.LEHE27:
	lwz 9,56(29)
	add 9,9,30
.L308:
	.loc 3 220 0
	stw 27,0(9)
	.loc 3 218 0
	addi 31,31,1
.LVL398:
	lwz 0,0(28)
	cmpw 7,31,0
	blt+ 7,.L309
.LVL399:
.L307:
.LBB2882:
.LBB2883:
	.loc 3 193 0
	lwz 3,56(29)
	cmpwi 7,3,0
	beq- 7,.L310
	.loc 3 194 0
	bl _ZdaPv
.L310:
.LVL400:
.LBE2883:
.LBE2882:
.LBE2884:
.LBE2885:
.LBB2886:
.LBB2887:
.LBB2888:
.LBB2889:
	.loc 3 197 0
	li 0,0
.LBE2889:
.LBE2888:
.LBE2887:
.LBE2886:
.LBB2893:
.LBB2894:
.LBB2895:
	.loc 10 174 0
	mr 3,29
.LBE2895:
.LBE2894:
.LBE2893:
.LBB2919:
.LBB2892:
.LBB2891:
.LBB2890:
	.loc 3 197 0
	stw 0,56(29)
	.loc 3 198 0
	stw 0,44(29)
	.loc 3 199 0
	stw 0,48(29)
.LVL401:
.LEHB28:
.LBE2890:
.LBE2891:
.LBE2892:
.LBE2919:
.LBB2920:
.LBB2916:
.LBB2913:
	.loc 10 174 0
	bl _ZN6idDict5ClearEv
.LEHE28:
.LVL402:
.LBB2896:
.LBB2897:
.LBB2898:
	.loc 11 130 0
	addi 3,29,16
.LEHB29:
	bl _ZN11idHashIndex4FreeEv
.LEHE29:
.LVL403:
.LBE2898:
.LBE2897:
.LBE2896:
.LBB2899:
.LBB2900:
.LBB2901:
.LBB2902:
	.loc 3 193 0
	lwz 3,12(29)
	cmpwi 7,3,0
	beq- 7,.L313
	.loc 3 194 0
	bl _ZdaPv
.L313:
	.loc 3 197 0
	li 0,0
.LBE2902:
.LBE2901:
.LBE2900:
.LBE2899:
.LBE2913:
.LBE2916:
.LBE2920:
.LBE2879:
.LBE2878:
.LBE2877:
	.loc 4 918 0
	mr 3,29
.LBB2930:
.LBB2928:
.LBB2926:
.LBB2921:
.LBB2917:
.LBB2914:
.LBB2906:
.LBB2905:
.LBB2904:
.LBB2903:
	.loc 3 197 0
	stw 0,12(29)
	.loc 3 198 0
	stw 0,0(29)
	.loc 3 199 0
	stw 0,4(29)
.LBE2903:
.LBE2904:
.LBE2905:
.LBE2906:
.LBE2914:
.LBE2917:
.LBE2921:
.LBE2926:
.LBE2928:
.LBE2930:
	.loc 4 918 0
	bl _ZdlPv
.LVL404:
.L300:
	.loc 4 919 0
	lwz 0,36(1)
	lwz 27,12(1)
	mtlr 0
	lwz 28,16(1)
	lwz 29,20(1)
.LVL405:
	lwz 30,24(1)
	lwz 31,28(1)
	addi 1,1,32
	.cfi_remember_state
.LCFI68:
	.cfi_def_cfa_offset 0
	.cfi_restore 31
	.cfi_restore 30
	.cfi_restore 29
	.cfi_restore 28
	.cfi_restore 27
	blr
.LVL406:
.L323:
.LCFI69:
	.cfi_restore_state
.LBB2931:
.LBB2876:
.LBB2872:
.LBB2871:
	.loc 3 772 0
	li 11,0
.LVL407:
.L302:
.LBE2871:
.LBE2872:
.LBB2873:
.LBB2874:
.LBB2875:
	.loc 3 868 0
	addi 9,9,-1
	.loc 3 869 0
	cmpw 7,11,9
	.loc 3 868 0
	stw 9,12(3)
.LVL408:
	.loc 3 869 0
	bge- 7,.L301
	slwi 9,11,2
	b .L305
.LVL409:
.L328:
	lwz 8,24(3)
.L305:
	.loc 3 870 0
	add 10,8,9
	.loc 4 916 0
	addi 9,9,4
	.loc 3 870 0
	lwzx 0,8,9
	.loc 3 869 0
	addi 11,11,1
.LVL410:
	.loc 3 870 0
	stw 0,0(10)
	.loc 3 869 0
	lwz 0,12(3)
	cmpw 7,11,0
	blt+ 7,.L328
	b .L301
.LVL411:
.L325:
	mr 31,3
.LVL412:
.L317:
.LBE2875:
.LBE2874:
.LBE2873:
.LBE2876:
.LBE2931:
.LBB2932:
.LBB2929:
.LBB2927:
.LBB2922:
.LBB2918:
.LBB2915:
.LBB2907:
.LBB2908:
.LBB2909:
	.loc 3 181 0
	mr 3,29
	bl _ZN6idListI10idKeyValueE5ClearEv
	mr 3,31
.LEHB30:
	bl _Unwind_Resume
.LEHE30:
.LVL413:
.L326:
	mr 31,3
.LVL414:
.LBE2909:
.LBE2908:
.LBE2907:
.LBB2910:
.LBB2911:
.LBB2912:
	.loc 11 130 0
	addi 3,29,16
	bl _ZN11idHashIndex4FreeEv
	b .L317
.LVL415:
.L324:
	mr 31,3
.LVL416:
.LBE2912:
.LBE2911:
.LBE2910:
.LBE2915:
.LBE2918:
.LBE2922:
.LBB2923:
.LBB2924:
.LBB2925:
	.loc 3 181 0
	mr 3,28
	bl _ZN6idListIP14idMapPrimitiveE5ClearEv
.LBE2925:
.LBE2924:
.LBE2923:
	.loc 7 170 0
	mr 3,29
	bl _ZN6idDictD1Ev
	mr 3,31
.LEHB31:
	bl _Unwind_Resume
.LEHE31:
.LBE2927:
.LBE2929:
.LBE2932:
	.cfi_endproc
.LFE2558:
	.section	.gcc_except_table
.LLSDA2558:
	.byte	0xff
	.byte	0xff
	.byte	0x1
	.uleb128 .LLSDACSE2558-.LLSDACSB2558
.LLSDACSB2558:
	.uleb128 .LEHB27-.LFB2558
	.uleb128 .LEHE27-.LEHB27
	.uleb128 .L324-.LFB2558
	.uleb128 0
	.uleb128 .LEHB28-.LFB2558
	.uleb128 .LEHE28-.LEHB28
	.uleb128 .L326-.LFB2558
	.uleb128 0
	.uleb128 .LEHB29-.LFB2558
	.uleb128 .LEHE29-.LEHB29
	.uleb128 .L325-.LFB2558
	.uleb128 0
	.uleb128 .LEHB30-.LFB2558
	.uleb128 .LEHE30-.LEHB30
	.uleb128 0
	.uleb128 0
	.uleb128 .LEHB31-.LFB2558
	.uleb128 .LEHE31-.LEHB31
	.uleb128 0
	.uleb128 0
.LLSDACSE2558:
	.section	".text"
	.size	_ZN9idMapFile12RemoveEntityEP11idMapEntity, .-_ZN9idMapFile12RemoveEntityEP11idMapEntity
	.align 2
	.globl _ZN10idMapPatch5ParseER7idLexerRK6idVec3bf
	.type	_ZN10idMapPatch5ParseER7idLexerRK6idVec3bf, @function
_ZN10idMapPatch5ParseER7idLexerRK6idVec3bf:
.LFB2542:
	.loc 4 113 0
	.cfi_startproc
	.cfi_personality 0,__gxx_personality_v0
	.cfi_lsda 0,.LLSDA2542
.LVL417:
	stwu 1,-264(1)
.LCFI70:
	.cfi_def_cfa_offset 264
.LVL418:
	mflr 0
.LBB3087:
.LBB3088:
.LBB3089:
.LBB3090:
.LBB3091:
	.loc 9 357 0
	li 9,20
.LBE3091:
.LBE3090:
.LBE3089:
.LBE3088:
.LBE3087:
	.loc 4 113 0
	mfcr 12
	stw 30,232(1)
	mr 30,4
	.cfi_offset 30, -32
	.cfi_register 70, 12
	.cfi_register 65, 0
.LBB3486:
	.loc 4 119 0
	lis 4,.LC33@ha
.LVL419:
.LBE3486:
	.loc 4 113 0
	stw 0,268(1)
.LBB3487:
.LBB3098:
.LBB3096:
.LBB3094:
.LBB3092:
	.loc 9 357 0
	stw 9,112(1)
	.loc 9 356 0
	li 0,0
	.cfi_offset 65, 4
	.loc 9 358 0
	addi 9,1,116
.LBE3092:
.LBE3094:
.LBE3096:
.LBE3098:
	.loc 4 119 0
	la 4,.LC33@l(4)
.LBE3487:
	.loc 4 113 0
	stfd 31,256(1)
	fmr 31,1
	.cfi_offset 63, -8
	stw 28,224(1)
	addi 28,1,104
	.cfi_offset 28, -40
	stw 29,228(1)
	mr 29,3
	.cfi_offset 29, -36
	stw 31,236(1)
	mr 31,5
	.cfi_offset 31, -28
	stfd 29,240(1)
	stfd 30,248(1)
	stw 23,204(1)
	stw 24,208(1)
	stw 25,212(1)
	stw 26,216(1)
	stw 27,220(1)
	stw 12,200(1)
.LBB3488:
.LBB3099:
.LBB3097:
.LBB3095:
.LBB3093:
	.loc 9 356 0
	stw 0,104(1)
	.loc 9 358 0
	stw 9,108(1)
	.loc 9 359 0
	stb 0,116(1)
.LEHB32:
.LBE3093:
.LBE3095:
.LBE3097:
.LBE3099:
	.loc 4 119 0
	.cfi_offset 70, -64
	.cfi_offset 27, -44
	.cfi_offset 26, -48
	.cfi_offset 25, -52
	.cfi_offset 24, -56
	.cfi_offset 23, -60
	.cfi_offset 62, -16
	.cfi_offset 61, -24
	bl _ZN7idLexer17ExpectTokenStringEPKc
.LVL420:
	cmpwi 7,3,0
	beq- 7,.L387
	.loc 4 124 0
	addi 28,1,104
	mr 3,29
	mr 4,28
	bl _ZN7idLexer9ReadTokenEP7idToken
	cmpwi 7,3,0
	.loc 4 125 0
	mr 3,29
	.loc 4 124 0
	beq- 7,.L437
	.loc 4 130 0
	cmpwi 4,31,0
	bne- 4,.L438
	.loc 4 136 0
	li 4,5
	addi 5,1,8
	bl _ZN7idLexer13Parse1DMatrixEiPf
	cmpwi 7,3,0
	beq- 7,.L439
.L333:
	.loc 4 142 0
	li 3,180
	bl _Znwj
.LEHE32:
.LBB3100:
.LBB3101:
.LBB3102:
.LBB3103:
	.loc 7 61 0
	lis 9,_ZTV14idMapPrimitive+8@ha
.LBE3103:
.LBE3102:
.LBE3101:
.LBE3100:
	.loc 4 142 0
	lfs 29,8(1)
.LBB3325:
.LBB3311:
.LBB3210:
.LBB3198:
	.loc 7 61 0
	la 9,_ZTV14idMapPrimitive+8@l(9)
.LBE3198:
.LBE3210:
.LBE3311:
.LBE3325:
	.loc 4 142 0
	lfs 30,12(1)
.LVL421:
.LBB3326:
.LBB3312:
.LBB3211:
.LBB3199:
.LBB3104:
.LBB3105:
.LBB3106:
.LBB3107:
.LBB3108:
.LBB3109:
	.loc 3 197 0
	li 0,0
.LBE3109:
.LBE3108:
.LBE3107:
.LBE3106:
.LBE3105:
.LBE3104:
	.loc 7 61 0
	stw 9,0(3)
.LBB3186:
.LBB3174:
.LBB3121:
.LBB3116:
	.loc 3 159 0
	li 9,16
.LBE3116:
.LBE3121:
	.loc 10 163 0
	addi 27,3,20
.LBB3122:
.LBB3117:
	.loc 3 159 0
	stw 9,12(3)
.LBE3117:
.LBE3122:
.LBE3174:
.LBE3186:
.LBE3199:
.LBE3211:
.LBE3312:
.LBE3326:
	.loc 4 142 0
	mr 31,3
.LBB3327:
.LBB3313:
.LBB3212:
.LBB3200:
.LBB3187:
.LBB3175:
.LBB3123:
.LBB3118:
.LBB3113:
.LBB3110:
	.loc 3 197 0
	stw 0,16(3)
.LBE3110:
.LBE3113:
.LBE3118:
.LBE3123:
.LBB3124:
.LBB3125:
	.loc 11 112 0
	li 4,1024
.LBE3125:
.LBE3124:
.LBB3129:
.LBB3119:
.LBB3114:
.LBB3111:
	.loc 3 198 0
	stw 0,4(3)
.LBE3111:
.LBE3114:
.LBE3119:
.LBE3129:
.LBB3130:
.LBB3126:
	.loc 11 112 0
	li 5,1024
.LBE3126:
.LBE3130:
.LBB3131:
.LBB3120:
.LBB3115:
.LBB3112:
	.loc 3 199 0
	stw 0,8(3)
.LBE3112:
.LBE3115:
.LBE3120:
.LBE3131:
.LBB3132:
.LBB3127:
	.loc 11 112 0
	mr 3,27
.LVL422:
.LBE3127:
.LBE3132:
.LBE3175:
.LBE3187:
	.loc 7 61 0
	addi 26,31,4
.LVL423:
.LEHB33:
.LBB3188:
.LBB3176:
.LBB3133:
.LBB3128:
	.loc 11 112 0
	bl _ZN11idHashIndex4InitEii
.LEHE33:
.LVL424:
.LBE3128:
.LBE3133:
.LBB3134:
.LBB3135:
	.loc 3 319 0
	lwz 25,16(31)
	.loc 3 317 0
	li 0,16
	stw 0,12(31)
	.loc 3 319 0
	cmpwi 7,25,0
	beq- 7,.L334
	.loc 3 321 0
	lwz 9,4(31)
	.loc 3 323 0
	lwz 0,8(31)
	.loc 3 321 0
	addi 3,9,15
.LVL425:
	.loc 3 322 0
	srawi 3,3,4
	addze 3,3
.LVL426:
	slwi 3,3,4
.LVL427:
	.loc 3 323 0
	cmpw 7,3,0
	beq- 7,.L334
.LVL428:
.LBB3136:
.LBB3137:
	.loc 3 375 0
	cmpwi 7,3,0
	ble- 7,.L440
.LVL429:
	.loc 3 387 0
	cmpw 7,9,3
	.loc 3 386 0
	stw 3,8(31)
	.loc 3 387 0
	bgt- 7,.L441
.L336:
	.loc 3 392 0
	slwi 3,3,3
.LVL430:
.LEHB34:
	bl _Znaj
.LVL431:
	.loc 3 393 0
	lwz 0,4(31)
	.loc 3 392 0
	stw 3,16(31)
.LVL432:
	.loc 3 393 0
	cmpwi 7,0,0
	ble- 7,.L337
	.loc 4 113 0
	addi 8,25,-8
.LBE3137:
.LBE3136:
.LBE3135:
.LBE3134:
.LBE3176:
.LBE3188:
.LBE3200:
.LBE3212:
.LBE3313:
.LBE3327:
.LBE3488:
	li 9,0
	b .L338
.LVL433:
.L442:
.LBB3489:
.LBB3328:
.LBB3314:
.LBB3213:
.LBB3201:
.LBB3189:
.LBB3177:
.LBB3149:
.LBB3146:
.LBB3143:
.LBB3140:
	.loc 3 393 0
	lwz 3,16(31)
.LVL434:
.L338:
	.loc 3 394 0
	addi 8,8,8
	slwi 0,9,3
	lwz 10,0(8)
	add 3,3,0
	lwz 11,4(8)
	.loc 3 393 0
	addi 9,9,1
.LVL435:
	.loc 3 394 0
	stw 10,0(3)
	stw 11,4(3)
	.loc 3 393 0
	lwz 0,0(26)
	cmpw 7,9,0
	blt+ 7,.L442
.LVL436:
.L337:
	.loc 3 399 0
	mr 3,25
	bl _ZdaPv
.LVL437:
.L334:
.LBE3140:
.LBE3143:
.LBE3146:
.LBE3149:
.LBB3150:
.LBB3151:
	.loc 11 371 0
	li 0,16
.LBE3151:
.LBE3150:
.LBB3153:
.LBB3154:
	.loc 11 341 0
	mr 3,27
.LBE3154:
.LBE3153:
.LBB3160:
.LBB3152:
	.loc 11 371 0
	stw 0,36(31)
.LVL438:
.LBE3152:
.LBE3160:
.LBB3161:
.LBB3155:
	.loc 11 341 0
	bl _ZN11idHashIndex4FreeEv
.LEHE34:
.LBE3155:
.LBE3161:
.LBE3177:
.LBE3189:
.LBE3201:
.LBE3213:
.LBE3314:
.LBE3328:
	.loc 4 142 0
	fctiwz 29,29
.LVL439:
	addi 9,1,192
	fctiwz 30,30
.LVL440:
.LBB3329:
.LBB3315:
.LBB3214:
.LBB3215:
.LBB3216:
.LBB3217:
.LBB3218:
.LBB3219:
.LBB3220:
	.loc 3 197 0
	li 0,0
.LBE3220:
.LBE3219:
.LBE3218:
.LBE3217:
.LBE3216:
.LBE3215:
.LBE3214:
.LBB3249:
.LBB3250:
.LBB3251:
	.loc 9 358 0
	addi 8,31,148
.LBE3251:
.LBE3250:
.LBE3249:
.LBB3256:
.LBB3202:
.LBB3190:
.LBB3178:
.LBB3162:
.LBB3156:
	.loc 11 342 0
	li 7,128
.LBE3156:
.LBE3162:
.LBE3178:
.LBE3190:
.LBE3202:
.LBE3256:
.LBE3315:
.LBE3329:
	.loc 4 142 0
	stfiwx 29,0,9
	addi 9,1,196
	stfiwx 30,0,9
.LBB3330:
.LBB3316:
.LBB3257:
.LBB3203:
.LBB3191:
.LBB3179:
.LBB3163:
.LBB3157:
	.loc 11 343 0
	li 9,16
.LBE3157:
.LBE3163:
.LBE3179:
.LBE3191:
.LBE3203:
.LBE3257:
	.loc 7 157 0
	addi 27,31,52
.LVL441:
.LBE3316:
.LBE3330:
	.loc 4 142 0
	lwz 10,192(1)
	lwz 11,196(1)
.LBB3331:
.LBB3317:
.LBB3258:
.LBB3204:
.LBB3192:
.LBB3180:
.LBB3164:
.LBB3158:
	.loc 11 343 0
	stw 9,28(31)
.LVL442:
.LBE3158:
.LBE3164:
.LBE3180:
.LBE3192:
.LBE3204:
.LBE3258:
.LBB3259:
.LBB3260:
.LBB3261:
.LBB3262:
	.loc 3 375 0
	mullw. 25,10,11
.LBE3262:
.LBE3261:
.LBE3260:
.LBE3259:
.LBB3296:
.LBB3247:
.LBB3245:
.LBB3225:
.LBB3223:
	.loc 3 159 0
	stw 9,60(31)
.LVL443:
.LBE3223:
.LBE3225:
.LBB3226:
.LBB3227:
	stw 9,76(31)
.LBE3227:
.LBE3226:
.LBB3231:
.LBB3232:
	stw 9,92(31)
.LBE3232:
.LBE3231:
.LBB3236:
.LBB3237:
	stw 9,108(31)
.LBE3237:
.LBE3236:
.LBE3245:
.LBE3247:
.LBE3296:
	.loc 7 150 0
	lis 9,_ZTV10idMapPatch+8@ha
	la 9,_ZTV10idMapPatch+8@l(9)
.LBB3297:
.LBB3205:
.LBB3193:
.LBB3181:
.LBB3165:
.LBB3159:
	.loc 11 342 0
	stw 7,20(31)
.LBE3159:
.LBE3165:
.LBE3181:
.LBE3193:
.LBE3205:
.LBE3297:
	.loc 7 150 0
	stw 9,0(31)
.LBB3298:
.LBB3254:
.LBB3252:
	.loc 9 357 0
	li 9,20
	stw 9,144(31)
.LBE3252:
.LBE3254:
.LBE3298:
	.loc 7 151 0
	li 9,1
.LBB3299:
.LBB3248:
.LBB3246:
.LBB3241:
.LBB3224:
.LBB3222:
.LBB3221:
	.loc 3 197 0
	stw 0,64(31)
	.loc 3 198 0
	stw 0,52(31)
	.loc 3 199 0
	stw 0,56(31)
.LVL444:
.LBE3221:
.LBE3222:
.LBE3224:
.LBE3241:
.LBB3242:
.LBB3230:
.LBB3228:
.LBB3229:
	.loc 3 197 0
	stw 0,80(31)
	.loc 3 198 0
	stw 0,68(31)
	.loc 3 199 0
	stw 0,72(31)
.LVL445:
.LBE3229:
.LBE3228:
.LBE3230:
.LBE3242:
.LBB3243:
.LBB3235:
.LBB3233:
.LBB3234:
	.loc 3 197 0
	stw 0,96(31)
	.loc 3 198 0
	stw 0,84(31)
	.loc 3 199 0
	stw 0,88(31)
.LVL446:
.LBE3234:
.LBE3233:
.LBE3235:
.LBE3243:
.LBB3244:
.LBB3240:
.LBB3238:
.LBB3239:
	.loc 3 197 0
	stw 0,112(31)
	.loc 3 198 0
	stw 0,100(31)
	.loc 3 199 0
	stw 0,104(31)
.LBE3239:
.LBE3238:
.LBE3240:
.LBE3244:
.LBE3246:
	.loc 2 94 0
	stw 0,116(31)
	stw 0,120(31)
	.loc 2 95 0
	stb 0,132(31)
.LBE3248:
.LBE3299:
.LBB3300:
.LBB3255:
.LBB3253:
	.loc 9 356 0
	stw 0,136(31)
	.loc 9 358 0
	stw 8,140(31)
	.loc 9 359 0
	stb 0,148(31)
.LBE3253:
.LBE3255:
.LBE3300:
	.loc 7 151 0
	stw 9,48(31)
	.loc 7 152 0
	stw 0,172(31)
	stw 0,168(31)
	.loc 7 153 0
	stb 0,176(31)
.LVL447:
	.loc 7 155 0
	stw 10,124(31)
	.loc 7 156 0
	stw 11,128(31)
.LBB3301:
.LBB3293:
.LBB3291:
.LBB3289:
	.loc 3 375 0
	ble- 0,.L443
.LVL448:
	.loc 3 386 0
	stw 25,56(31)
	.loc 3 392 0
	mulli 3,25,60
.LEHB35:
	bl _Znaj
.LEHE35:
	.loc 3 393 0
	lwz 0,52(31)
	.loc 3 392 0
	stw 3,64(31)
.LVL449:
	.loc 3 393 0
	cmpwi 7,0,0
	ble- 7,.L346
	li 8,0
	li 4,0
	b .L348
.LVL450:
.L444:
	lwz 3,64(31)
.LVL451:
.L348:
.LBB3263:
.LBB3264:
.LBB3265:
.LBB3266:
	.loc 5 424 0
	lwz 0,0(8)
.LBE3266:
.LBE3265:
.LBE3264:
.LBE3263:
	.loc 3 394 0
	add 9,3,8
.LVL452:
.LBB3284:
.LBB3281:
.LBB3269:
.LBB3270:
	.loc 5 424 0
	mr 5,8
.LBE3270:
.LBE3269:
.LBB3272:
.LBB3273:
	mr 6,8
.LBE3273:
.LBE3272:
.LBB3276:
.LBB3267:
	stwx 0,3,8
.LBE3267:
.LBE3276:
.LBB3277:
.LBB3274:
	mr 7,8
.LBE3274:
.LBE3277:
.LBE3281:
.LBE3284:
	.loc 3 393 0
	addi 4,4,1
.LBB3285:
.LBB3282:
.LBB3278:
.LBB3268:
	.loc 5 425 0
	lwz 0,4(8)
	stw 0,4(9)
	.loc 5 426 0
	lwz 0,8(8)
	stw 0,8(9)
.LBE3268:
.LBE3278:
	.file 12 "d:/Data/Nintendo/DoomGX/src/idlib/../idlib/geometry/DrawVert.h"
	.loc 12 40 0
	lwz 10,12(8)
	lwz 11,16(8)
	stw 10,12(9)
	stw 11,16(9)
.LVL453:
.LBB3279:
.LBB3271:
	.loc 5 424 0
	lwzu 0,20(5)
	stw 0,20(9)
	.loc 5 425 0
	lwz 0,4(5)
	stw 0,24(9)
	.loc 5 426 0
	lwz 0,8(5)
	stw 0,28(9)
.LVL454:
.LBE3271:
.LBE3279:
.LBB3280:
.LBB3275:
	.loc 5 424 0
	lwzu 0,32(6)
	stw 0,32(9)
	.loc 5 425 0
	lwz 0,4(6)
	stw 0,36(9)
	.loc 5 426 0
	lwz 0,8(6)
	stw 0,40(9)
.LVL455:
	.loc 5 424 0
	lwzu 0,44(7)
	stw 0,44(9)
	.loc 5 425 0
	lwz 0,4(7)
	stw 0,48(9)
	.loc 5 426 0
	lwz 0,8(7)
	stw 0,52(9)
.LBE3275:
.LBE3280:
	.loc 12 40 0
	lwz 0,56(8)
.LBE3282:
.LBE3285:
	.loc 3 393 0
	addi 8,8,60
.LVL456:
.LBB3286:
.LBB3283:
	.loc 12 40 0
	stw 0,56(9)
.LBE3283:
.LBE3286:
	.loc 3 393 0
	lwz 0,0(27)
	cmpw 7,4,0
	blt+ 7,.L444
.LVL457:
.L346:
.LBE3289:
.LBE3291:
.LBE3293:
.LBE3301:
.LBE3317:
.LBE3331:
	.loc 4 143 0
	lfs 13,8(1)
	addi 9,1,184
	lfs 0,12(1)
.LBB3332:
.LBB3318:
	.loc 7 158 0
	li 0,0
.LBE3318:
.LBE3332:
	.loc 4 143 0
	fctiwz 13,13
.LBB3333:
.LBB3319:
.LBB3302:
.LBB3294:
	.loc 3 302 0
	stw 25,52(31)
.LBE3294:
.LBE3302:
.LBE3319:
.LBE3333:
	.loc 4 143 0
	fctiwz 0,0
.LBB3334:
.LBB3320:
	.loc 7 158 0
	stb 0,132(31)
.LVL458:
.LBE3320:
.LBE3334:
	.loc 4 143 0
	mr 3,27
	stfiwx 13,0,9
	addi 9,1,188
	stfiwx 0,0,9
	lwz 4,184(1)
	lwz 5,188(1)
.LEHB36:
	bl _ZN15idSurface_Patch7SetSizeEii
.LEHE36:
	.loc 4 144 0
	lis 9,.LC29@ha
	lfs 0,.LC29@l(9)
	fcmpu 7,31,0
	bnl- 7,.L423
.LVL459:
.LBB3335:
.LBB3336:
.LBB3337:
	.loc 4 973 0
	lwz 27,104(1)
.LVL460:
.LBE3337:
.LBB3355:
.LBB3356:
.LBB3357:
.LBB3358:
	.loc 9 415 0
	lis 11,.LC37@ha
	la 9,.LC37@l(11)
	lwz 10,.LC37@l(11)
.LBE3358:
.LBE3357:
.LBE3356:
.LBE3355:
.LBB3368:
.LBB3338:
	.loc 9 762 0
	addi 4,27,10
.LBE3338:
.LBE3368:
.LBB3369:
.LBB3365:
.LBB3362:
.LBB3359:
	.loc 9 415 0
	lhz 0,8(9)
.LBE3359:
.LBE3362:
.LBE3365:
.LBE3369:
.LBB3370:
.LBB3351:
.LBB3339:
.LBB3340:
	.loc 9 350 0
	cmpwi 7,4,20
.LBE3340:
.LBE3339:
.LBE3351:
.LBE3370:
.LBB3371:
.LBB3366:
.LBB3363:
.LBB3360:
	.loc 9 415 0
	lwz 11,4(9)
	.loc 9 358 0
	addi 9,1,80
	.loc 9 357 0
	li 8,20
	.loc 9 415 0
	sth 0,8(9)
.LBE3360:
.LBE3363:
	.loc 9 416 0
	li 0,9
	stw 0,68(1)
.LBE3366:
.LBE3371:
.LBB3372:
.LBB3352:
.LBB3344:
.LBB3341:
	.loc 9 350 0
	mr 0,27
.LBE3341:
.LBE3344:
.LBE3352:
.LBE3372:
.LBB3373:
.LBB3367:
.LBB3364:
.LBB3361:
	.loc 9 357 0
	stw 8,76(1)
	.loc 9 358 0
	stw 9,72(1)
.LVL461:
	.loc 9 415 0
	stw 10,80(1)
	stw 11,4(9)
.LBE3361:
.LBE3364:
.LBE3367:
.LBE3373:
.LBB3374:
.LBB3353:
.LBB3345:
.LBB3342:
	.loc 9 350 0
	bgt- 7,.L445
.LVL462:
.L354:
.LBE3342:
.LBE3345:
	.loc 9 763 0
	cmpwi 7,0,0
	ble- 7,.L355
	li 9,0
.LVL463:
.L356:
.LBB3346:
.LBB3347:
	.loc 9 522 0
	lwz 11,4(28)
.LBE3347:
.LBE3346:
	.loc 9 764 0
	lwz 10,72(1)
.LBB3349:
.LBB3348:
	.loc 9 522 0
	lbzx 0,11,9
.LBE3348:
.LBE3349:
	.loc 9 764 0
	lwz 11,68(1)
	add 11,10,11
	stbx 0,11,9
	.loc 9 763 0
	addi 9,9,1
.LVL464:
	lwz 0,104(1)
	cmpw 7,9,0
	blt+ 7,.L356
.LVL465:
.L355:
	.loc 9 767 0
	lwz 9,72(1)
	.loc 9 761 0
	addi 27,27,9
.LVL466:
	.loc 9 767 0
	li 0,0
	.loc 9 766 0
	stw 27,68(1)
	.loc 9 767 0
	stbx 0,9,27
.LVL467:
.LBE3353:
.LBE3374:
.LBE3336:
.LBE3335:
.LBB3381:
.LBB3382:
	.loc 7 125 0
	addi 3,31,136
	lwz 4,72(1)
.LEHB37:
	bl _ZN5idStraSEPKc
.LEHE37:
.LVL468:
.LBE3382:
.LBE3381:
.LBB3383:
.LBB3384:
.LBB3385:
	.loc 9 501 0
	addi 3,1,68
.LEHB38:
	bl _ZN5idStr8FreeDataEv
.LVL469:
.L361:
.LBE3385:
.LBE3384:
.LBE3383:
	.loc 4 150 0
	beq- 4,.L362
.LVL470:
	.loc 4 151 0
	lfs 13,16(1)
	addi 11,31,168
	.loc 4 152 0
	lfs 0,20(1)
	addi 9,31,172
	.loc 4 151 0
	fctiwz 13,13
.LBB3386:
.LBB3387:
	.loc 7 131 0
	li 0,1
.LBE3387:
.LBE3386:
	.loc 4 152 0
	fctiwz 0,0
	.loc 4 151 0
	stfiwx 13,0,11
.LVL471:
	.loc 4 152 0
	stfiwx 0,0,9
.LVL472:
.LBB3389:
.LBB3388:
	.loc 7 131 0
	stb 0,176(31)
.LVL473:
.L362:
.LBE3388:
.LBE3389:
	.loc 4 156 0
	lwz 0,116(31)
	cmpwi 7,0,0
	blt- 7,.L363
	.loc 4 156 0 is_stmt 0 discriminator 2
	lwz 0,120(31)
	cmpwi 7,0,0
	blt- 7,.L363
	.loc 4 163 0 is_stmt 1
	lis 24,.LC40@ha
	mr 3,29
	la 24,.LC40@l(24)
	mr 4,24
	bl _ZN7idLexer17ExpectTokenStringEPKc
	cmpwi 7,3,0
	beq- 7,.L446
.LVL474:
.LBB3390:
	.loc 4 168 0 discriminator 1
	lwz 0,116(31)
	li 25,0
.LVL475:
	cmpwi 7,0,0
	ble- 7,.L447
.LBB3391:
	.loc 4 190 0
	lis 23,.LC43@ha
	la 23,.LC43@l(23)
.LVL476:
.L411:
	.loc 4 169 0
	mr 3,29
	mr 4,24
	bl _ZN7idLexer17ExpectTokenStringEPKc
	cmpwi 7,3,0
	beq- 7,.L368
.LVL477:
.LBB3392:
	.loc 4 174 0 discriminator 1
	lwz 0,120(31)
	li 27,0
	cmpwi 7,0,0
	bgt+ 7,.L412
	b .L370
.LVL478:
.L371:
.LBB3393:
	.loc 4 183 0
	lwz 9,116(31)
	.loc 4 184 0
	lfs 13,36(1)
	.loc 4 183 0
	mullw 9,27,9
	.loc 4 184 0
	lfs 0,0(30)
.LBB3394:
.LBB3395:
.LBB3396:
	.loc 3 589 0
	lwz 11,64(31)
.LBE3396:
.LBE3395:
.LBE3394:
.LBE3393:
	.loc 4 174 0
	addi 27,27,1
.LVL479:
.LBB3403:
	.loc 4 184 0
	fsubs 0,13,0
	.loc 4 183 0
	add 9,9,25
.LBB3401:
.LBB3399:
.LBB3397:
	.loc 3 589 0
	mulli 9,9,60
.LBE3397:
.LBE3399:
.LBE3401:
	.loc 4 184 0
	stfsx 0,11,9
.LBB3402:
.LBB3400:
.LBB3398:
	.loc 3 589 0
	add 9,11,9
.LVL480:
.LBE3398:
.LBE3400:
.LBE3402:
	.loc 4 185 0
	lfs 13,40(1)
	lfs 0,4(30)
	fsubs 0,13,0
	stfs 0,4(9)
.LVL481:
	.loc 4 186 0
	lfs 0,8(30)
	lfs 13,44(1)
	fsubs 0,13,0
	stfs 0,8(9)
.LVL482:
	.loc 4 187 0
	lwz 0,48(1)
	stw 0,12(9)
.LVL483:
	.loc 4 188 0
	lwz 0,52(1)
	stw 0,16(9)
.LBE3403:
	.loc 4 174 0
	lwz 0,120(31)
	cmpw 7,0,27
	ble- 7,.L370
.LVL484:
.L412:
.LBB3404:
	.loc 4 177 0
	mr 3,29
	li 4,5
	addi 5,1,36
	bl _ZN7idLexer13Parse1DMatrixEiPf
	cmpwi 7,3,0
	bne+ 7,.L371
	.loc 4 178 0
	lis 4,.LC42@ha
	mr 3,29
	la 4,.LC42@l(4)
	crxor 6,6,6
	bl _ZN7idLexer5ErrorEPKcz
.L433:
.LBE3404:
.LBE3392:
.LBE3391:
.LBE3390:
	.loc 4 198 0 discriminator 1
	lwz 9,0(31)
	mr 3,31
	lwz 0,4(9)
	mtctr 0
	bctrl
.LEHE38:
.LVL485:
.L430:
	.loc 4 199 0
	li 31,0
.LVL486:
.L330:
.LBB3408:
.LBB3409:
.LBB3410:
.LBB3411:
.LBB3412:
	.loc 9 501 0
	mr 3,28
.LEHB39:
	bl _ZN5idStr8FreeDataEv
.LEHE39:
.LBE3412:
.LBE3411:
.LBE3410:
.LBE3409:
.LBE3408:
.LBE3489:
	.loc 4 216 0
	lwz 0,268(1)
	lwz 12,200(1)
	mr 3,31
	mtlr 0
	lwz 23,204(1)
	lwz 24,208(1)
	mtcrf 8,12
	lwz 25,212(1)
	lwz 26,216(1)
	lwz 27,220(1)
	lwz 28,224(1)
	lwz 29,228(1)
.LVL487:
	lwz 30,232(1)
	lwz 31,236(1)
	lfd 29,240(1)
	lfd 30,248(1)
	lfd 31,256(1)
.LVL488:
	addi 1,1,264
	.cfi_remember_state
.LCFI71:
	.cfi_def_cfa_offset 0
	.cfi_restore 70
	.cfi_restore 63
	.cfi_restore 62
	.cfi_restore 61
	.cfi_restore 31
	.cfi_restore 30
	.cfi_restore 29
	.cfi_restore 28
	.cfi_restore 27
	.cfi_restore 26
	.cfi_restore 25
	.cfi_restore 24
	.cfi_restore 23
	blr
.LVL489:
.L438:
.LCFI72:
	.cfi_restore_state
.LBB3490:
	.loc 4 131 0
	li 4,7
	addi 5,1,8
.LEHB40:
	bl _ZN7idLexer13Parse1DMatrixEiPf
.LVL490:
	cmpwi 7,3,0
	bne+ 7,.L333
	.loc 4 132 0
	lis 4,.LC35@ha
	mr 3,29
	la 4,.LC35@l(4)
	crxor 6,6,6
	bl _ZN7idLexer5ErrorEPKcz
	b .L430
.L437:
	.loc 4 125 0
	lis 4,.LC34@ha
	la 4,.LC34@l(4)
	crxor 6,6,6
	bl _ZN7idLexer5ErrorEPKcz
	b .L430
.LVL491:
.L423:
.LBB3413:
.LBB3414:
	.loc 7 125 0
	lwz 4,4(28)
	addi 3,31,136
	bl _ZN5idStraSEPKc
.LVL492:
	b .L361
.LVL493:
.L441:
.LBE3414:
.LBE3413:
.LBB3415:
.LBB3321:
.LBB3303:
.LBB3206:
.LBB3194:
.LBB3182:
.LBB3166:
.LBB3147:
.LBB3144:
.LBB3141:
	.loc 3 388 0
	stw 3,4(31)
	b .L336
.LVL494:
.L446:
.LBE3141:
.LBE3144:
.LBE3147:
.LBE3166:
.LBE3182:
.LBE3194:
.LBE3206:
.LBE3303:
.LBE3321:
.LBE3415:
	.loc 4 164 0
	lis 4,.LC39@ha
	mr 3,29
	la 4,.LC39@l(4)
	crxor 6,6,6
	bl _ZN7idLexer5ErrorEPKcz
.LEHE40:
	b .L433
.LVL495:
.L445:
.LBB3416:
.LBB3379:
.LBB3375:
.LBB3354:
.LBB3350:
.LBB3343:
	.loc 9 351 0
	addi 3,1,68
	li 5,1
.LEHB41:
	bl _ZN5idStr10ReAllocateEib
.LEHE41:
.LVL496:
	lwz 0,104(1)
	b .L354
.LVL497:
.L370:
.LBE3343:
.LBE3350:
.LBE3354:
.LBE3375:
.LBE3379:
.LBE3416:
.LBB3417:
.LBB3405:
	.loc 4 190 0
	mr 3,29
	mr 4,23
	mr 27,23
.LEHB42:
	bl _ZN7idLexer17ExpectTokenStringEPKc
	cmpwi 7,3,0
	beq- 7,.L448
.LBE3405:
	.loc 4 168 0
	lwz 0,116(31)
	addi 25,25,1
.LVL498:
	cmpw 7,0,25
	bgt+ 7,.L411
.LVL499:
.L367:
.LBE3417:
	.loc 4 196 0
	mr 3,29
	mr 4,27
	bl _ZN7idLexer17ExpectTokenStringEPKc
	cmpwi 7,3,0
	beq- 7,.L449
.LBB3418:
.LBB3419:
.LBB3420:
	.loc 9 653 0 discriminator 1
	lis 30,.LC46@ha
.LVL500:
.LBE3420:
.LBE3419:
.LBB3423:
.LBB3424:
.LBB3425:
.LBB3426:
.LBB3427:
.LBB3428:
	.loc 9 356 0 discriminator 1
	li 24,0
.LBE3428:
.LBE3427:
.LBE3426:
.LBE3425:
.LBE3424:
.LBE3423:
.LBB3462:
.LBB3421:
	.loc 9 653 0 discriminator 1
	la 30,.LC46@l(30)
.LBE3421:
.LBE3462:
.LBB3463:
.LBB3458:
.LBB3449:
.LBB3445:
.LBB3433:
.LBB3429:
	.loc 9 357 0 discriminator 1
	li 23,20
	.loc 9 358 0 discriminator 1
	addi 25,1,48
.L417:
.LBE3429:
.LBE3433:
.LBE3445:
.LBE3449:
.LBE3458:
.LBE3463:
.LBE3418:
	.loc 4 203 0 discriminator 1
	mr 3,29
	mr 4,28
	bl _ZN7idLexer9ReadTokenEP7idToken
	cmpwi 7,3,0
	beq- 7,.L330
.LVL501:
.LBB3468:
.LBB3464:
.LBB3422:
	.loc 9 653 0
	lwz 3,4(28)
	mr 4,30
	bl _ZN5idStr3CmpEPKcS1_
.LEHE42:
.LBE3422:
.LBE3464:
	.loc 4 204 0
	cmpwi 7,3,0
	beq- 7,.L450
.LBB3465:
	.loc 4 208 0
	lwz 0,136(1)
	cmpwi 7,0,1
	bne+ 7,.L417
.LVL502:
.LBB3459:
.LBB3450:
	.loc 4 973 0
	lwz 27,0(28)
.LBB3446:
.LBB3434:
.LBB3435:
	.loc 9 358 0
	mr 3,25
.LBE3435:
.LBE3434:
.LBB3439:
.LBB3430:
	.loc 9 356 0
	stw 24,36(1)
.LBE3430:
.LBE3439:
	.loc 9 374 0
	addi 4,27,1
.LVL503:
.LBB3440:
.LBB3431:
	.loc 9 357 0
	stw 23,44(1)
.LBE3431:
.LBE3440:
.LBB3441:
.LBB3436:
	.loc 9 350 0
	cmpwi 7,4,20
.LBE3436:
.LBE3441:
.LBB3442:
.LBB3432:
	.loc 9 358 0
	stw 25,40(1)
	.loc 9 359 0
	stb 24,48(1)
.LBE3432:
.LBE3442:
.LBB3443:
.LBB3437:
	.loc 9 350 0
	bgt- 7,.L451
.LVL504:
.L376:
.LBE3437:
.LBE3443:
	.loc 9 375 0
	lwz 4,108(1)
	bl strcpy
.LBE3446:
.LBE3450:
	.loc 4 210 0
	mr 3,29
	li 4,1
	li 5,0
	mr 6,28
.LBB3451:
.LBB3447:
	.loc 9 376 0
	stw 27,36(1)
.LEHB43:
.LBE3447:
.LBE3451:
	.loc 4 210 0
	bl _ZN7idLexer15ExpectTokenTypeEiiP7idToken
.LVL505:
	.loc 4 211 0
	lwz 4,40(1)
	mr 3,26
	lwz 5,4(28)
	bl _ZN6idDict3SetEPKcS1_
.LEHE43:
.LVL506:
.LBB3452:
.LBB3453:
	.loc 9 501 0
	addi 3,1,36
.LVL507:
.LEHB44:
	bl _ZN5idStr8FreeDataEv
.LVL508:
	b .L417
.LVL509:
.L387:
.LBE3453:
.LBE3452:
.LBE3459:
.LBE3465:
.LBE3468:
	.loc 4 120 0
	li 31,0
	addi 28,1,104
	b .L330
.L439:
	.loc 4 137 0
	lis 4,.LC36@ha
	mr 3,29
	la 4,.LC36@l(4)
	crxor 6,6,6
	bl _ZN7idLexer5ErrorEPKcz
	b .L430
.LVL510:
.L363:
	.loc 4 157 0 discriminator 4
	lis 4,.LC38@ha
	mr 3,29
	la 4,.LC38@l(4)
	crxor 6,6,6
	bl _ZN7idLexer5ErrorEPKcz
	b .L433
.LVL511:
.L443:
.LBB3469:
.LBB3322:
.LBB3304:
.LBB3295:
.LBB3292:
.LBB3290:
.LBB3287:
.LBB3288:
	.loc 3 197 0
	stw 0,64(31)
	.loc 3 199 0
	stw 0,56(31)
	b .L346
.LVL512:
.L440:
.LBE3288:
.LBE3287:
.LBE3290:
.LBE3292:
.LBE3295:
.LBE3304:
.LBB3305:
.LBB3207:
.LBB3195:
.LBB3183:
.LBB3167:
.LBB3148:
.LBB3145:
.LBB3142:
.LBB3138:
.LBB3139:
	.loc 3 194 0
	mr 3,25
.LVL513:
	bl _ZdaPv
	.loc 3 197 0
	li 0,0
	stw 0,16(31)
	.loc 3 198 0
	stw 0,4(31)
	.loc 3 199 0
	stw 0,8(31)
	b .L334
.LVL514:
.L368:
.LBE3139:
.LBE3138:
.LBE3142:
.LBE3145:
.LBE3148:
.LBE3167:
.LBE3183:
.LBE3195:
.LBE3207:
.LBE3305:
.LBE3322:
.LBE3469:
.LBB3470:
.LBB3406:
	.loc 4 170 0
	lis 4,.LC41@ha
	mr 3,29
	la 4,.LC41@l(4)
	crxor 6,6,6
	bl _ZN7idLexer5ErrorEPKcz
	b .L433
.LVL515:
.L451:
.LBE3406:
.LBE3470:
.LBB3471:
.LBB3466:
.LBB3460:
.LBB3454:
.LBB3448:
.LBB3444:
.LBB3438:
	.loc 9 351 0
	addi 3,1,36
.LVL516:
	li 5,1
	bl _ZN5idStr10ReAllocateEib
.LVL517:
	lwz 3,40(1)
	b .L376
.LVL518:
.L448:
.LBE3438:
.LBE3444:
.LBE3448:
.LBE3454:
.LBE3460:
.LBE3466:
.LBE3471:
.LBB3472:
.LBB3407:
	.loc 4 191 0 discriminator 1
	lwz 9,0(31)
	mr 3,31
	lwz 0,4(9)
	mtctr 0
	bctrl
	.loc 4 192 0
	lis 4,.LC44@ha
	mr 3,29
	la 4,.LC44@l(4)
	crxor 6,6,6
	bl _ZN7idLexer5ErrorEPKcz
	b .L430
.LVL519:
.L447:
	lis 27,.LC43@ha
	la 27,.LC43@l(27)
	b .L367
.LVL520:
.L449:
.LBE3407:
.LBE3472:
	.loc 4 197 0
	lis 4,.LC45@ha
	mr 3,29
	la 4,.LC45@l(4)
	crxor 6,6,6
	bl _ZN7idLexer5ErrorEPKcz
	b .L433
.LVL521:
.L450:
.LBB3473:
	.loc 4 205 0
	mr 3,29
	mr 4,30
	bl _ZN7idLexer17ExpectTokenStringEPKc
.LEHE44:
	b .L330
.LVL522:
.L407:
	mr 31,3
.LVL523:
.LBE3473:
.LBB3474:
.LBB3380:
.LBB3376:
.LBB3377:
.LBB3378:
	.loc 9 501 0
	addi 3,1,68
	bl _ZN5idStr8FreeDataEv
.LVL524:
.L360:
.LBE3378:
.LBE3377:
.LBE3376:
.LBE3380:
.LBE3474:
.LBB3475:
.LBB3476:
.LBB3477:
.LBB3478:
.LBB3479:
	mr 3,28
	bl _ZN5idStr8FreeDataEv
	mr 3,31
.LEHB45:
	bl _Unwind_Resume
.LEHE45:
.LVL525:
.L405:
	mr 30,3
.LVL526:
.L343:
.LBE3479:
.LBE3478:
.LBE3477:
.LBE3476:
.LBE3475:
.LBB3480:
.LBB3323:
.LBB3306:
.LBB3208:
.LBB3196:
.LBB3184:
.LBB3168:
.LBB3169:
.LBB3170:
	.loc 3 181 0
	mr 3,26
	bl _ZN6idListI10idKeyValueE5ClearEv
.LVL527:
.L345:
.LBE3170:
.LBE3169:
.LBE3168:
.LBE3184:
.LBE3196:
.LBE3208:
.LBE3306:
.LBE3323:
.LBE3480:
	.loc 4 142 0
	mr 3,31
	mr 31,30
.LVL528:
	bl _ZdlPv
.LVL529:
	b .L360
.LVL530:
.L403:
	mr 31,3
.LVL531:
.LBB3481:
.LBB3467:
.LBB3461:
.LBB3455:
.LBB3456:
.LBB3457:
	.loc 9 501 0
	addi 3,1,36
.LVL532:
	bl _ZN5idStr8FreeDataEv
.LVL533:
	b .L360
.LVL534:
.L402:
	mr 31,3
.LVL535:
.LBE3457:
.LBE3456:
.LBE3455:
.LBE3461:
.LBE3467:
.LBE3481:
.LBB3482:
.LBB3483:
.LBB3484:
	addi 3,1,68
	bl _ZN5idStr8FreeDataEv
	b .L360
.LVL536:
.L404:
	mr 30,3
.LVL537:
.LBE3484:
.LBE3483:
.LBE3482:
.LBB3485:
.LBB3324:
.LBB3307:
.LBB3308:
.LBB3309:
	addi 3,31,136
	bl _ZN5idStr8FreeDataEv
.LBE3309:
.LBE3308:
.LBE3307:
	.loc 7 150 0
	mr 3,27
	bl _ZN15idSurface_PatchD2Ev
	mr 3,31
	bl _ZN14idMapPrimitiveD2Ev
	b .L345
.LVL538:
.L401:
	mr 31,3
	b .L360
.LVL539:
.L406:
	mr 30,3
.LVL540:
.LBB3310:
.LBB3209:
.LBB3197:
.LBB3185:
.LBB3171:
.LBB3172:
.LBB3173:
	.loc 11 130 0
	mr 3,27
	bl _ZN11idHashIndex4FreeEv
	b .L343
.LBE3173:
.LBE3172:
.LBE3171:
.LBE3185:
.LBE3197:
.LBE3209:
.LBE3310:
.LBE3324:
.LBE3485:
.LBE3490:
	.cfi_endproc
.LFE2542:
	.section	.gcc_except_table
.LLSDA2542:
	.byte	0xff
	.byte	0xff
	.byte	0x1
	.uleb128 .LLSDACSE2542-.LLSDACSB2542
.LLSDACSB2542:
	.uleb128 .LEHB32-.LFB2542
	.uleb128 .LEHE32-.LEHB32
	.uleb128 .L401-.LFB2542
	.uleb128 0
	.uleb128 .LEHB33-.LFB2542
	.uleb128 .LEHE33-.LEHB33
	.uleb128 .L405-.LFB2542
	.uleb128 0
	.uleb128 .LEHB34-.LFB2542
	.uleb128 .LEHE34-.LEHB34
	.uleb128 .L406-.LFB2542
	.uleb128 0
	.uleb128 .LEHB35-.LFB2542
	.uleb128 .LEHE35-.LEHB35
	.uleb128 .L404-.LFB2542
	.uleb128 0
	.uleb128 .LEHB36-.LFB2542
	.uleb128 .LEHE36-.LEHB36
	.uleb128 .L401-.LFB2542
	.uleb128 0
	.uleb128 .LEHB37-.LFB2542
	.uleb128 .LEHE37-.LEHB37
	.uleb128 .L402-.LFB2542
	.uleb128 0
	.uleb128 .LEHB38-.LFB2542
	.uleb128 .LEHE38-.LEHB38
	.uleb128 .L401-.LFB2542
	.uleb128 0
	.uleb128 .LEHB39-.LFB2542
	.uleb128 .LEHE39-.LEHB39
	.uleb128 0
	.uleb128 0
	.uleb128 .LEHB40-.LFB2542
	.uleb128 .LEHE40-.LEHB40
	.uleb128 .L401-.LFB2542
	.uleb128 0
	.uleb128 .LEHB41-.LFB2542
	.uleb128 .LEHE41-.LEHB41
	.uleb128 .L407-.LFB2542
	.uleb128 0
	.uleb128 .LEHB42-.LFB2542
	.uleb128 .LEHE42-.LEHB42
	.uleb128 .L401-.LFB2542
	.uleb128 0
	.uleb128 .LEHB43-.LFB2542
	.uleb128 .LEHE43-.LEHB43
	.uleb128 .L403-.LFB2542
	.uleb128 0
	.uleb128 .LEHB44-.LFB2542
	.uleb128 .LEHE44-.LEHB44
	.uleb128 .L401-.LFB2542
	.uleb128 0
	.uleb128 .LEHB45-.LFB2542
	.uleb128 .LEHE45-.LEHB45
	.uleb128 0
	.uleb128 0
.LLSDACSE2542:
	.section	".text"
	.size	_ZN10idMapPatch5ParseER7idLexerRK6idVec3bf, .-_ZN10idMapPatch5ParseER7idLexerRK6idVec3bf
	.align 2
	.globl _ZN9idMapFile17RemoveAllEntitiesEv
	.type	_ZN9idMapFile17RemoveAllEntitiesEv, @function
_ZN9idMapFile17RemoveAllEntitiesEv:
.LFB2560:
	.loc 4 942 0
	.cfi_startproc
	.cfi_personality 0,__gxx_personality_v0
	.cfi_lsda 0,.LLSDA2560
.LVL541:
	mflr 0
	stwu 1,-48(1)
.LCFI73:
	.cfi_def_cfa_offset 48
	.cfi_register 65, 0
	stw 23,12(1)
	mr 23,3
	.cfi_offset 23, -36
	stw 25,20(1)
	.loc 4 943 0
	addi 25,3,12
	.cfi_offset 25, -28
.LVL542:
	.loc 4 942 0
	stw 0,52(1)
	stw 24,16(1)
	stw 26,24(1)
	stw 27,28(1)
	stw 28,32(1)
	stw 29,36(1)
	stw 30,40(1)
	stw 31,44(1)
.LBB3535:
.LBB3536:
	.loc 3 218 0
	lwz 0,12(3)
	.cfi_offset 31, -4
	.cfi_offset 30, -8
	.cfi_offset 29, -12
	.cfi_offset 28, -16
	.cfi_offset 27, -20
	.cfi_offset 26, -24
	.cfi_offset 24, -32
	.cfi_offset 65, 4
	cmpwi 7,0,0
	ble- 7,.L453
	li 26,0
.LBB3537:
.LBB3538:
.LBB3539:
.LBB3540:
.LBB3541:
.LBB3542:
.LBB3543:
	.loc 3 197 0
	li 27,0
.LVL543:
.L471:
.LBE3543:
.LBE3542:
.LBE3541:
.LBE3540:
.LBE3539:
.LBE3538:
.LBE3537:
	.loc 3 219 0
	lwz 9,12(25)
	.loc 4 942 0
	slwi 24,26,2
	.loc 3 219 0
	lwzx 29,9,24
	add 9,9,24
	cmpwi 7,29,0
	beq- 7,.L454
.LVL544:
.LBB3596:
.LBB3593:
.LBB3590:
.LBB3550:
.LBB3551:
	.loc 3 218 0
	lwz 0,44(29)
.LBE3551:
.LBE3550:
	.loc 7 170 0
	addi 28,29,44
.LVL545:
.LBB3555:
.LBB3554:
	.loc 3 218 0
	cmpwi 7,0,0
	ble- 7,.L455
	li 31,0
.LVL546:
.L457:
	.loc 3 219 0
	lwz 9,12(28)
	.loc 4 942 0
	slwi 30,31,2
	.loc 3 219 0
	lwzx 3,9,30
	add 9,9,30
	cmpwi 7,3,0
	beq- 7,.L456
	lwz 9,0(3)
	lwz 0,4(9)
	mtctr 0
.LEHB46:
	bctrl
.LEHE46:
	lwz 9,56(29)
	add 9,9,30
.L456:
	.loc 3 220 0
	stw 27,0(9)
	.loc 3 218 0
	addi 31,31,1
.LVL547:
	lwz 0,0(28)
	cmpw 7,31,0
	blt+ 7,.L457
.LVL548:
.L455:
.LBB3552:
.LBB3553:
	.loc 3 193 0
	lwz 3,56(29)
	cmpwi 7,3,0
	beq- 7,.L458
	.loc 3 194 0
	bl _ZdaPv
.L458:
.LVL549:
.LBE3553:
.LBE3552:
.LBE3554:
.LBE3555:
.LBB3556:
.LBB3548:
.LBB3546:
.LBB3544:
	.loc 3 197 0
	stw 27,56(29)
.LBE3544:
.LBE3546:
.LBE3548:
.LBE3556:
.LBB3557:
.LBB3558:
.LBB3559:
	.loc 10 174 0
	mr 3,29
.LBE3559:
.LBE3558:
.LBE3557:
.LBB3583:
.LBB3549:
.LBB3547:
.LBB3545:
	.loc 3 198 0
	stw 27,44(29)
	.loc 3 199 0
	stw 27,48(29)
.LVL550:
.LEHB47:
.LBE3545:
.LBE3547:
.LBE3549:
.LBE3583:
.LBB3584:
.LBB3580:
.LBB3577:
	.loc 10 174 0
	bl _ZN6idDict5ClearEv
.LEHE47:
.LVL551:
.LBB3560:
.LBB3561:
.LBB3562:
	.loc 11 130 0
	addi 3,29,16
.LEHB48:
	bl _ZN11idHashIndex4FreeEv
.LEHE48:
.LVL552:
.LBE3562:
.LBE3561:
.LBE3560:
.LBB3563:
.LBB3564:
.LBB3565:
.LBB3566:
	.loc 3 193 0
	lwz 3,12(29)
	cmpwi 7,3,0
	beq- 7,.L461
	.loc 3 194 0
	bl _ZdaPv
.L461:
	.loc 3 197 0
	stw 27,12(29)
.LBE3566:
.LBE3565:
.LBE3564:
.LBE3563:
.LBE3577:
.LBE3580:
.LBE3584:
.LBE3590:
.LBE3593:
.LBE3596:
	.loc 3 219 0
	mr 3,29
.LBB3597:
.LBB3594:
.LBB3591:
.LBB3585:
.LBB3581:
.LBB3578:
.LBB3570:
.LBB3569:
.LBB3568:
.LBB3567:
	.loc 3 198 0
	stw 27,0(29)
	.loc 3 199 0
	stw 27,4(29)
.LBE3567:
.LBE3568:
.LBE3569:
.LBE3570:
.LBE3578:
.LBE3581:
.LBE3585:
.LBE3591:
.LBE3594:
.LBE3597:
	.loc 3 219 0
	bl _ZdlPv
	lwz 9,24(23)
	add 9,9,24
.LVL553:
.L454:
	.loc 3 220 0
	stw 27,0(9)
	.loc 3 218 0
	addi 26,26,1
.LVL554:
	lwz 0,0(25)
	cmpw 7,26,0
	blt+ 7,.L471
.LVL555:
.L453:
.LBB3598:
.LBB3599:
	.loc 3 193 0
	lwz 3,24(23)
	cmpwi 7,3,0
	beq- 7,.L472
	.loc 3 194 0
	bl _ZdaPv
.L472:
	.loc 3 197 0
	li 0,0
	stw 0,24(23)
	.loc 3 198 0
	stw 0,12(23)
	.loc 3 199 0
	stw 0,16(23)
.LBE3599:
.LBE3598:
.LBE3536:
.LBE3535:
	.loc 4 944 0
	stb 0,60(23)
	.loc 4 945 0
	lwz 0,52(1)
	lwz 23,12(1)
.LVL556:
	mtlr 0
	lwz 24,16(1)
	lwz 25,20(1)
.LVL557:
	lwz 26,24(1)
	lwz 27,28(1)
	lwz 28,32(1)
	lwz 29,36(1)
	lwz 30,40(1)
	lwz 31,44(1)
	addi 1,1,48
	.cfi_remember_state
.LCFI74:
	.cfi_def_cfa_offset 0
	.cfi_restore 31
	.cfi_restore 30
	.cfi_restore 29
	.cfi_restore 28
	.cfi_restore 27
	.cfi_restore 26
	.cfi_restore 25
	.cfi_restore 24
	.cfi_restore 23
	blr
.LVL558:
.L473:
.LCFI75:
	.cfi_restore_state
	mr 31,3
.LVL559:
.LBB3602:
.LBB3601:
.LBB3600:
.LBB3595:
.LBB3592:
.LBB3586:
.LBB3587:
.LBB3588:
	.loc 3 181 0
	mr 3,28
	bl _ZN6idListIP14idMapPrimitiveE5ClearEv
.LBE3588:
.LBE3587:
.LBE3586:
	.loc 7 170 0
	mr 3,29
	bl _ZN6idDictD1Ev
	mr 3,31
.LEHB49:
	bl _Unwind_Resume
.LVL560:
.L474:
	mr 31,3
.LVL561:
.L465:
.LBB3589:
.LBB3582:
.LBB3579:
.LBB3571:
.LBB3572:
.LBB3573:
	.loc 3 181 0
	mr 3,29
	bl _ZN6idListI10idKeyValueE5ClearEv
	mr 3,31
	bl _Unwind_Resume
.LEHE49:
.LVL562:
.L475:
	mr 31,3
.LVL563:
.LBE3573:
.LBE3572:
.LBE3571:
.LBB3574:
.LBB3575:
.LBB3576:
	.loc 11 130 0
	addi 3,29,16
	bl _ZN11idHashIndex4FreeEv
	b .L465
.LBE3576:
.LBE3575:
.LBE3574:
.LBE3579:
.LBE3582:
.LBE3589:
.LBE3592:
.LBE3595:
.LBE3600:
.LBE3601:
.LBE3602:
	.cfi_endproc
.LFE2560:
	.section	.gcc_except_table
.LLSDA2560:
	.byte	0xff
	.byte	0xff
	.byte	0x1
	.uleb128 .LLSDACSE2560-.LLSDACSB2560
.LLSDACSB2560:
	.uleb128 .LEHB46-.LFB2560
	.uleb128 .LEHE46-.LEHB46
	.uleb128 .L473-.LFB2560
	.uleb128 0
	.uleb128 .LEHB47-.LFB2560
	.uleb128 .LEHE47-.LEHB47
	.uleb128 .L475-.LFB2560
	.uleb128 0
	.uleb128 .LEHB48-.LFB2560
	.uleb128 .LEHE48-.LEHB48
	.uleb128 .L474-.LFB2560
	.uleb128 0
	.uleb128 .LEHB49-.LFB2560
	.uleb128 .LEHE49-.LEHB49
	.uleb128 0
	.uleb128 0
.LLSDACSE2560:
	.section	".text"
	.size	_ZN9idMapFile17RemoveAllEntitiesEv, .-_ZN9idMapFile17RemoveAllEntitiesEv
	.section	.text._ZN6idListIP14idMapBrushSideE5ClearEv,"axG",@progbits,_ZN6idListIP14idMapBrushSideE5ClearEv,comdat
	.align 2
	.weak	_ZN6idListIP14idMapBrushSideE5ClearEv
	.type	_ZN6idListIP14idMapBrushSideE5ClearEv, @function
_ZN6idListIP14idMapBrushSideE5ClearEv:
.LFB2765:
	.loc 3 192 0
	.cfi_startproc
.LVL564:
	mflr 0
	stwu 1,-16(1)
.LCFI76:
	.cfi_def_cfa_offset 16
	.cfi_register 65, 0
	stw 31,12(1)
	mr 31,3
	.cfi_offset 31, -4
	stw 0,20(1)
	.loc 3 193 0
	lwz 3,12(3)
.LVL565:
	cmpwi 7,3,0
	beq- 7,.L479
	.cfi_offset 65, 4
	.loc 3 194 0 discriminator 1
	bl _ZdaPv
.L479:
	.loc 3 197 0
	li 0,0
	stw 0,12(31)
	.loc 3 198 0
	stw 0,0(31)
	.loc 3 199 0
	stw 0,4(31)
	.loc 3 200 0
	lwz 0,20(1)
	lwz 31,12(1)
.LVL566:
	mtlr 0
	addi 1,1,16
.LCFI77:
	.cfi_def_cfa_offset 0
	.cfi_restore 31
	blr
	.cfi_endproc
.LFE2765:
	.size	_ZN6idListIP14idMapBrushSideE5ClearEv, .-_ZN6idListIP14idMapBrushSideE5ClearEv
	.section	.text._ZN10idMapBrushD2Ev,"axG",@progbits,_ZN10idMapBrushD5Ev,comdat
	.align 2
	.weak	_ZN10idMapBrushD2Ev
	.type	_ZN10idMapBrushD2Ev, @function
_ZN10idMapBrushD2Ev:
.LFB2091:
	.loc 7 102 0
	.cfi_startproc
	.cfi_personality 0,__gxx_personality_v0
	.cfi_lsda 0,.LLSDA2091
.LVL567:
	mflr 0
	stwu 1,-32(1)
.LCFI78:
	.cfi_def_cfa_offset 32
	.cfi_register 65, 0
.LBB3659:
	lis 9,_ZTV10idMapBrush+8@ha
.LBE3659:
	stw 27,12(1)
.LBB3728:
	addi 27,3,56
	.cfi_offset 27, -20
.LVL568:
.LBE3728:
	stw 28,16(1)
	mr 28,3
	.cfi_offset 28, -16
	stw 0,36(1)
	stw 26,8(1)
	stw 29,20(1)
	stw 30,24(1)
	stw 31,28(1)
.LBB3729:
.LBB3660:
.LBB3661:
	.loc 3 218 0
	lwz 0,56(3)
	.cfi_offset 31, -4
	.cfi_offset 30, -8
	.cfi_offset 29, -12
	.cfi_offset 26, -24
	.cfi_offset 65, 4
	cmpwi 7,0,0
.LBE3661:
.LBE3660:
	.loc 7 102 0
	la 0,_ZTV10idMapBrush+8@l(9)
	stw 0,0(3)
.LBB3671:
.LBB3670:
	.loc 3 218 0
	ble- 7,.L481
	li 31,0
	.loc 3 220 0
	li 26,0
.LVL569:
.L485:
	.loc 3 219 0
	lwz 9,12(27)
	.loc 7 102 0
	slwi 30,31,2
	.loc 3 219 0
	lwzx 29,9,30
	add 9,9,30
	cmpwi 7,29,0
	beq- 7,.L482
.LVL570:
.LBB3662:
.LBB3663:
.LBB3664:
.LBB3665:
.LBB3666:
.LBB3667:
	.loc 9 501 0
	mr 3,29
.LEHB50:
	bl _ZN5idStr8FreeDataEv
.LEHE50:
.LVL571:
.LBE3667:
.LBE3666:
.LBE3665:
.LBE3664:
.LBE3663:
.LBE3662:
	.loc 3 219 0
	mr 3,29
	bl _ZdlPv
	lwz 9,68(28)
	add 9,9,30
.LVL572:
.L482:
	.loc 3 220 0
	stw 26,0(9)
	.loc 3 218 0
	addi 31,31,1
.LVL573:
	lwz 0,0(27)
	cmpw 7,31,0
	blt+ 7,.L485
.LVL574:
.L481:
.LBB3668:
.LBB3669:
	.loc 3 193 0
	lwz 3,68(28)
	cmpwi 7,3,0
	beq- 7,.L486
	.loc 3 194 0
	bl _ZdaPv
.L486:
.LVL575:
.LBE3669:
.LBE3668:
.LBE3670:
.LBE3671:
.LBB3672:
.LBB3673:
.LBB3674:
.LBB3675:
	.loc 3 197 0
	li 0,0
.LBE3675:
.LBE3674:
.LBE3673:
.LBE3672:
.LBB3685:
.LBB3686:
.LBB3687:
	.loc 7 62 0
	lis 9,_ZTV14idMapPrimitive+8@ha
.LBE3687:
.LBE3686:
.LBE3685:
.LBB3718:
.LBB3682:
.LBB3679:
.LBB3676:
	.loc 3 197 0
	stw 0,68(28)
.LBE3676:
.LBE3679:
.LBE3682:
.LBE3718:
.LBB3719:
.LBB3714:
.LBB3710:
	.loc 7 62 0
	addi 31,28,4
.LBE3710:
.LBE3714:
.LBE3719:
.LBB3720:
.LBB3683:
.LBB3680:
.LBB3677:
	.loc 3 198 0
	stw 0,56(28)
.LBE3677:
.LBE3680:
.LBE3683:
.LBE3720:
.LBB3721:
.LBB3715:
.LBB3711:
.LBB3688:
.LBB3689:
.LBB3690:
	.loc 10 174 0
	mr 3,31
.LBE3690:
.LBE3689:
.LBE3688:
.LBE3711:
.LBE3715:
.LBE3721:
.LBB3722:
.LBB3684:
.LBB3681:
.LBB3678:
	.loc 3 199 0
	stw 0,60(28)
.LVL576:
.LBE3678:
.LBE3681:
.LBE3684:
.LBE3722:
.LBB3723:
.LBB3716:
.LBB3712:
	.loc 7 62 0
	la 0,_ZTV14idMapPrimitive+8@l(9)
	stw 0,0(28)
.LVL577:
.LEHB51:
.LBB3708:
.LBB3706:
.LBB3704:
	.loc 10 174 0
	bl _ZN6idDict5ClearEv
.LEHE51:
.LVL578:
.LBB3691:
.LBB3692:
.LBB3693:
	.loc 11 130 0
	addi 3,28,20
.LEHB52:
	bl _ZN11idHashIndex4FreeEv
.LEHE52:
.LVL579:
.LBE3693:
.LBE3692:
.LBE3691:
.LBB3694:
.LBB3695:
.LBB3696:
.LBB3697:
	.loc 3 193 0
	lwz 3,16(28)
	cmpwi 7,3,0
	beq- 7,.L489
	.loc 3 194 0
	bl _ZdaPv
.L489:
	.loc 3 197 0
	li 0,0
	stw 0,16(28)
	.loc 3 198 0
	stw 0,4(28)
	.loc 3 199 0
	stw 0,8(28)
.LBE3697:
.LBE3696:
.LBE3695:
.LBE3694:
.LBE3704:
.LBE3706:
.LBE3708:
.LBE3712:
.LBE3716:
.LBE3723:
.LBE3729:
	.loc 7 102 0
	lwz 0,36(1)
	lwz 26,8(1)
	mtlr 0
	lwz 27,12(1)
.LVL580:
	lwz 28,16(1)
.LVL581:
	lwz 29,20(1)
	lwz 30,24(1)
	lwz 31,28(1)
.LVL582:
	addi 1,1,32
	.cfi_remember_state
.LCFI79:
	.cfi_def_cfa_offset 0
	.cfi_restore 31
	.cfi_restore 30
	.cfi_restore 29
	.cfi_restore 28
	.cfi_restore 27
	.cfi_restore 26
	blr
.LVL583:
.L500:
.LCFI80:
	.cfi_restore_state
	mr 31,3
.LVL584:
.LBB3730:
.LBB3724:
.LBB3725:
.LBB3726:
	.loc 3 181 0
	mr 3,27
	bl _ZN6idListIP14idMapBrushSideE5ClearEv
.LBE3726:
.LBE3725:
.LBE3724:
	.loc 7 102 0
	mr 3,28
	bl _ZN14idMapPrimitiveD2Ev
	mr 3,31
.LEHB53:
	bl _Unwind_Resume
.LVL585:
.L501:
	mr 30,3
.LVL586:
.L493:
.LBB3727:
.LBB3717:
.LBB3713:
.LBB3709:
.LBB3707:
.LBB3705:
.LBB3698:
.LBB3699:
.LBB3700:
	.loc 3 181 0
	mr 3,31
	bl _ZN6idListI10idKeyValueE5ClearEv
	mr 3,30
	bl _Unwind_Resume
.LEHE53:
.L502:
	mr 30,3
.LVL587:
.LBE3700:
.LBE3699:
.LBE3698:
.LBB3701:
.LBB3702:
.LBB3703:
	.loc 11 130 0
	addi 3,28,20
	bl _ZN11idHashIndex4FreeEv
	b .L493
.LBE3703:
.LBE3702:
.LBE3701:
.LBE3705:
.LBE3707:
.LBE3709:
.LBE3713:
.LBE3717:
.LBE3727:
.LBE3730:
	.cfi_endproc
.LFE2091:
	.section	.gcc_except_table
.LLSDA2091:
	.byte	0xff
	.byte	0xff
	.byte	0x1
	.uleb128 .LLSDACSE2091-.LLSDACSB2091
.LLSDACSB2091:
	.uleb128 .LEHB50-.LFB2091
	.uleb128 .LEHE50-.LEHB50
	.uleb128 .L500-.LFB2091
	.uleb128 0
	.uleb128 .LEHB51-.LFB2091
	.uleb128 .LEHE51-.LEHB51
	.uleb128 .L502-.LFB2091
	.uleb128 0
	.uleb128 .LEHB52-.LFB2091
	.uleb128 .LEHE52-.LEHB52
	.uleb128 .L501-.LFB2091
	.uleb128 0
	.uleb128 .LEHB53-.LFB2091
	.uleb128 .LEHE53-.LEHB53
	.uleb128 0
	.uleb128 0
.LLSDACSE2091:
	.section	.text._ZN10idMapBrushD2Ev,"axG",@progbits,_ZN10idMapBrushD5Ev,comdat
	.size	_ZN10idMapBrushD2Ev, .-_ZN10idMapBrushD2Ev
	.section	".text"
	.align 2
	.globl _ZN10idMapBrush5ParseER7idLexerRK6idVec3bf
	.type	_ZN10idMapBrush5ParseER7idLexerRK6idVec3bf, @function
_ZN10idMapBrush5ParseER7idLexerRK6idVec3bf:
.LFB2545:
	.loc 4 278 0
	.cfi_startproc
	.cfi_personality 0,__gxx_personality_v0
	.cfi_lsda 0,.LLSDA2545
.LVL588:
	mflr 0
	stwu 1,-376(1)
.LCFI81:
	.cfi_def_cfa_offset 376
	.cfi_register 65, 0
.LVL589:
.LBB4182:
.LBB4183:
.LBB4184:
.LBB4185:
.LBB4186:
	.loc 9 357 0
	li 11,20
.LBE4186:
.LBE4185:
.LBE4184:
.LBE4183:
.LBB4199:
.LBB4200:
	.loc 3 159 0
	li 9,16
.LBE4200:
.LBE4199:
.LBE4182:
	.loc 4 278 0
	stw 19,292(1)
	mr 19,5
	.cfi_offset 19, -84
	stw 0,380(1)
.LBB5008:
.LBB4204:
.LBB4205:
.LBB4206:
	.loc 11 112 0
	li 5,1024
.LVL590:
.LBE4206:
.LBE4205:
.LBE4204:
.LBB4253:
.LBB4195:
.LBB4191:
.LBB4187:
	.loc 9 356 0
	li 0,0
	.cfi_offset 65, 4
.LBE4187:
.LBE4191:
.LBE4195:
.LBE4253:
.LBE5008:
	.loc 4 278 0
	stw 21,300(1)
	stw 29,332(1)
	mr 21,4
	.cfi_offset 29, -44
	.cfi_offset 21, -76
.LBB5009:
.LBB4254:
.LBB4196:
.LBB4192:
.LBB4188:
	.loc 9 357 0
	stw 11,176(1)
.LBE4188:
.LBE4192:
.LBE4196:
.LBE4254:
.LBE5009:
	.loc 4 278 0
	mr 29,3
.LBB5010:
.LBB4255:
.LBB4197:
.LBB4193:
.LBB4189:
	.loc 9 358 0
	addi 11,1,180
.LBE4189:
.LBE4193:
.LBE4197:
.LBE4255:
.LBB4256:
.LBB4209:
.LBB4207:
	.loc 11 112 0
	addi 3,1,140
.LVL591:
	li 4,1024
.LVL592:
.LBE4207:
.LBE4209:
.LBE4256:
.LBE5010:
	.loc 4 278 0
	stfd 31,368(1)
	stfd 28,344(1)
	fmr 31,1
	.cfi_offset 60, -32
	.cfi_offset 63, -8
	stfd 29,352(1)
	stfd 30,360(1)
	stw 14,272(1)
	stw 15,276(1)
	stw 16,280(1)
	stw 17,284(1)
	stw 18,288(1)
	stw 20,296(1)
	stw 22,304(1)
	stw 23,308(1)
	stw 24,312(1)
	stw 25,316(1)
	stw 26,320(1)
	stw 27,324(1)
	stw 28,328(1)
	stw 30,336(1)
	stw 31,340(1)
.LBB5011:
.LBB4257:
.LBB4198:
.LBB4194:
.LBB4190:
	.loc 9 356 0
	stw 0,168(1)
	.loc 9 358 0
	stw 11,172(1)
	.loc 9 359 0
	stb 0,180(1)
.LVL593:
.LBE4190:
.LBE4194:
.LBE4198:
.LBE4257:
.LBB4258:
.LBB4203:
	.loc 3 159 0
	stw 9,16(1)
.LVL594:
.LBB4201:
.LBB4202:
	.loc 3 197 0
	stw 0,20(1)
	.loc 3 198 0
	stw 0,8(1)
	.loc 3 199 0
	stw 0,12(1)
.LVL595:
.LBE4202:
.LBE4201:
.LBE4203:
.LBE4258:
.LBB4259:
.LBB4210:
.LBB4211:
	.loc 3 159 0
	stw 9,132(1)
.LVL596:
.LBB4212:
.LBB4213:
	.loc 3 197 0
	stw 0,136(1)
	.loc 3 198 0
	stw 0,124(1)
	.loc 3 199 0
	stw 0,128(1)
.LVL597:
.LEHB54:
.LBE4213:
.LBE4212:
.LBE4211:
.LBE4210:
.LBB4214:
.LBB4208:
	.loc 11 112 0
	.cfi_offset 31, -36
	.cfi_offset 30, -40
	.cfi_offset 28, -48
	.cfi_offset 27, -52
	.cfi_offset 26, -56
	.cfi_offset 25, -60
	.cfi_offset 24, -64
	.cfi_offset 23, -68
	.cfi_offset 22, -72
	.cfi_offset 20, -80
	.cfi_offset 18, -88
	.cfi_offset 17, -92
	.cfi_offset 16, -96
	.cfi_offset 15, -100
	.cfi_offset 14, -104
	.cfi_offset 62, -16
	.cfi_offset 61, -24
	bl _ZN11idHashIndex4InitEii
.LEHE54:
.LVL598:
.LBE4208:
.LBE4214:
.LBB4215:
.LBB4216:
	.loc 3 319 0
	lwz 31,136(1)
	.loc 3 317 0
	li 0,16
	stw 0,132(1)
	.loc 3 319 0
	cmpwi 7,31,0
	beq- 7,.L505
	.loc 3 321 0
	lwz 9,124(1)
	.loc 3 323 0
	lwz 0,128(1)
	.loc 3 321 0
	addi 3,9,15
.LVL599:
	.loc 3 322 0
	srawi 3,3,4
	addze 3,3
.LVL600:
	slwi 3,3,4
.LVL601:
	.loc 3 323 0
	cmpw 7,3,0
	beq- 7,.L505
.LVL602:
.LBB4217:
.LBB4218:
	.loc 3 375 0
	cmpwi 7,3,0
	ble- 7,.L755
.LVL603:
	.loc 3 387 0
	cmpw 7,9,3
	.loc 3 386 0
	stw 3,128(1)
	.loc 3 387 0
	bgt- 7,.L756
.L507:
	.loc 3 392 0
	slwi 3,3,3
.LVL604:
.LEHB55:
	bl _Znaj
.LVL605:
	.loc 3 393 0
	lwz 0,124(1)
	.loc 3 392 0
	stw 3,136(1)
.LVL606:
	.loc 3 393 0
	cmpwi 7,0,0
	ble- 7,.L508
	.loc 4 278 0
	addi 8,31,-8
.LBE4218:
.LBE4217:
.LBE4216:
.LBE4215:
.LBE4259:
.LBE5011:
	.loc 3 393 0
	li 9,0
	b .L509
.LVL607:
.L757:
.LBB5012:
.LBB4260:
.LBB4230:
.LBB4227:
.LBB4224:
.LBB4221:
	lwz 3,136(1)
.LVL608:
.L509:
	.loc 3 394 0
	addi 8,8,8
	slwi 0,9,3
	lwz 10,0(8)
	add 3,3,0
	lwz 11,4(8)
	.loc 3 393 0
	addi 9,9,1
.LVL609:
	.loc 3 394 0
	stw 10,0(3)
	stw 11,4(3)
	.loc 3 393 0
	lwz 0,124(1)
	cmpw 7,9,0
	blt+ 7,.L757
.LVL610:
.L508:
	.loc 3 399 0
	mr 3,31
	bl _ZdaPv
.LVL611:
.L505:
.LBE4221:
.LBE4224:
.LBE4227:
.LBE4230:
.LBB4231:
.LBB4232:
	.loc 11 371 0
	li 0,16
.LBE4232:
.LBE4231:
.LBB4234:
.LBB4235:
	.loc 11 341 0
	addi 3,1,140
.LVL612:
.LBE4235:
.LBE4234:
.LBB4240:
.LBB4233:
	.loc 11 371 0
	stw 0,156(1)
.LVL613:
.LBE4233:
.LBE4240:
.LBB4241:
.LBB4236:
	.loc 11 341 0
	bl _ZN11idHashIndex4FreeEv
.LEHE55:
.LVL614:
	.loc 11 342 0
	li 0,128
.LBE4236:
.LBE4241:
.LBE4260:
	.loc 4 286 0
	lis 4,.LC33@ha
.LBB4261:
.LBB4242:
.LBB4237:
	.loc 11 342 0
	stw 0,140(1)
.LBE4237:
.LBE4242:
.LBE4261:
	.loc 4 286 0
	mr 3,29
.LBB4262:
.LBB4243:
.LBB4238:
	.loc 11 343 0
	li 0,16
.LBE4238:
.LBE4243:
.LBE4262:
	.loc 4 286 0
	la 4,.LC33@l(4)
.LBB4263:
.LBB4244:
.LBB4239:
	.loc 11 343 0
	stw 0,148(1)
	addi 24,1,124
	addi 31,1,168
.LEHB56:
.LBE4239:
.LBE4244:
.LBE4263:
	.loc 4 286 0
	bl _ZN7idLexer17ExpectTokenStringEPKc
	cmpwi 7,3,0
	beq- 7,.L690
.LBB4264:
.LBB4265:
.LBB4266:
	.loc 9 653 0
	lis 22,.LC46@ha
	lis 26,.LC40@ha
.LBE4266:
.LBE4265:
.LBB4269:
.LBB4270:
.LBB4271:
.LBB4272:
.LBB4273:
.LBB4274:
.LBB4275:
.LBB4276:
	.loc 6 276 0
	lis 14,_ZN6idMath5iSqrtE@ha
	addi 24,1,124
	addi 31,1,168
.LBE4276:
.LBE4275:
.LBE4274:
.LBE4273:
.LBE4272:
.LBE4271:
.LBE4270:
.LBE4269:
.LBB4403:
.LBB4267:
	.loc 9 653 0
	la 22,.LC46@l(22)
	la 26,.LC40@l(26)
.LBE4267:
.LBE4403:
.LBB4404:
.LBB4405:
.LBB4406:
	.loc 8 230 0
	li 23,0
.LBE4406:
.LBE4405:
.LBE4404:
.LBB4425:
.LBB4390:
.LBB4345:
.LBB4336:
.LBB4293:
.LBB4285:
.LBB4281:
.LBB4277:
	.loc 6 276 0
	la 14,_ZN6idMath5iSqrtE@l(14)
	.loc 6 278 0
	lis 15,.LC3@ha
.LBE4277:
.LBE4281:
.LBE4285:
.LBE4293:
.LBB4294:
.LBB4295:
.LBB4296:
	.loc 5 580 0
	lis 17,.LC51@ha
	.loc 5 572 0
	lis 16,.LC52@ha
.LBE4296:
.LBE4295:
.LBE4294:
.LBE4336:
.LBE4345:
.LBE4390:
.LBE4425:
	.loc 4 376 0
	lis 18,.LC29@ha
.LBB4426:
.LBB4427:
.LBB4428:
.LBB4429:
.LBB4430:
.LBB4431:
	.loc 9 415 0
	lis 20,.LC37@ha
.LVL615:
.L730:
.LBE4431:
.LBE4430:
.LBE4429:
.LBE4428:
.LBE4427:
.LBE4426:
	.loc 4 291 0
	mr 3,29
	mr 4,31
	bl _ZN7idLexer9ReadTokenEP7idToken
	cmpwi 7,3,0
	beq- 7,.L758
.LVL616:
.LBB4474:
.LBB4268:
	.loc 9 653 0
	lwz 3,4(31)
	mr 4,22
	bl _ZN5idStr3CmpEPKcS1_
.LBE4268:
.LBE4474:
	.loc 4 296 0
	cmpwi 7,3,0
	beq- 7,.L524
.LBB4475:
.LBB4476:
.LBB4477:
.LBB4478:
.LBB4479:
	.loc 9 356 0
	li 28,0
	.loc 9 357 0
	li 25,20
	.loc 9 358 0
	addi 27,1,68
.L550:
.LVL617:
.LBE4479:
.LBE4478:
.LBE4477:
.LBE4476:
.LBB4497:
.LBB4498:
	.loc 9 653 0
	lwz 3,4(31)
	mr 4,26
	bl _ZN5idStr3CmpEPKcS1_
.LEHE56:
.LBE4498:
.LBE4497:
	.loc 4 303 0
	cmpwi 7,3,0
	beq- 7,.L525
	.loc 4 307 0
	lwz 0,200(1)
	cmpwi 7,0,1
	bne- 7,.L759
.LVL618:
.LBB4499:
	.loc 4 973 0
	lwz 30,0(31)
.LBB4494:
.LBB4483:
.LBB4484:
	.loc 9 358 0
	mr 3,27
.LBE4484:
.LBE4483:
.LBB4488:
.LBB4480:
	.loc 9 356 0
	stw 28,56(1)
.LBE4480:
.LBE4488:
	.loc 9 374 0
	addi 4,30,1
.LVL619:
.LBB4489:
.LBB4481:
	.loc 9 357 0
	stw 25,64(1)
.LBE4481:
.LBE4489:
.LBB4490:
.LBB4485:
	.loc 9 350 0
	cmpwi 7,4,20
.LBE4485:
.LBE4490:
.LBB4491:
.LBB4482:
	.loc 9 358 0
	stw 27,60(1)
	.loc 9 359 0
	stb 28,68(1)
.LBE4482:
.LBE4491:
.LBB4492:
.LBB4486:
	.loc 9 350 0
	bgt- 7,.L760
.LVL620:
.L533:
.LBE4486:
.LBE4492:
	.loc 9 375 0
	lwz 4,172(1)
	bl strcpy
.LBE4494:
.LBE4499:
	.loc 4 315 0
	mr 3,29
	mr 4,31
.LBB4500:
.LBB4495:
	.loc 9 376 0
	stw 30,56(1)
.LEHB57:
.LBE4495:
.LBE4500:
	.loc 4 315 0
	bl _ZN7idLexer15ReadTokenOnLineEP7idToken
	cmpwi 7,3,0
	bne- 7,.L761
.L534:
	.loc 4 316 0 discriminator 4
	lis 4,.LC49@ha
	mr 3,29
	la 4,.LC49@l(4)
	crxor 6,6,6
	bl _ZN7idLexer5ErrorEPKcz
.LVL621:
.LBB4501:
.LBB4502:
	.loc 3 218 0
	lwz 0,8(1)
	cmpwi 7,0,0
	ble- 7,.L544
	li 30,0
	.loc 3 220 0
	li 27,0
.LVL622:
.L540:
	.loc 3 219 0
	lwz 9,20(1)
	.loc 4 278 0
	slwi 29,30,2
	.loc 3 219 0
	lwzx 28,9,29
	add 9,9,29
	cmpwi 7,28,0
	beq- 7,.L537
.LVL623:
.LBB4503:
.LBB4504:
.LBB4505:
.LBB4506:
.LBB4507:
.LBB4508:
	.loc 9 501 0
	mr 3,28
	bl _ZN5idStr8FreeDataEv
.LEHE57:
.LVL624:
.LBE4508:
.LBE4507:
.LBE4506:
.LBE4505:
.LBE4504:
.LBE4503:
	.loc 3 219 0
	mr 3,28
	bl _ZdlPv
	lwz 9,20(1)
	add 9,9,29
.LVL625:
.L537:
	.loc 3 220 0
	stw 27,0(9)
	.loc 3 218 0
	addi 30,30,1
.LVL626:
	lwz 0,8(1)
	cmpw 7,30,0
	blt+ 7,.L540
.LVL627:
.L544:
.LBE4502:
.LBE4501:
.LBB4509:
.LBB4510:
.LBB4511:
.LBB4512:
	.loc 3 193 0
	lwz 3,20(1)
	cmpwi 7,3,0
	beq- 7,.L549
	.loc 3 194 0
	bl _ZdaPv
.L549:
	.loc 3 197 0
	li 0,0
.LBE4512:
.LBE4511:
.LBE4510:
.LBE4509:
.LBB4523:
.LBB4524:
.LBB4525:
	.loc 9 501 0
	addi 3,1,56
.LBE4525:
.LBE4524:
.LBE4523:
.LBB4528:
.LBB4521:
.LBB4514:
.LBB4513:
	.loc 3 197 0
	stw 0,20(1)
	.loc 3 198 0
	stw 0,8(1)
	.loc 3 199 0
	stw 0,12(1)
.LVL628:
.LEHB58:
.LBE4513:
.LBE4514:
.LBE4521:
.LBE4528:
.LBB4529:
.LBB4527:
.LBB4526:
	.loc 9 501 0
	bl _ZN5idStr8FreeDataEv
.LEHE58:
	li 30,0
.LVL629:
.L516:
.LBE4526:
.LBE4527:
.LBE4529:
.LBE4475:
.LBE4264:
.LBB4737:
.LBB4738:
.LBB4739:
	.loc 10 174 0
	mr 3,24
.LEHB59:
	bl _ZN6idDict5ClearEv
.LEHE59:
.LVL630:
.LBB4740:
.LBB4741:
.LBB4742:
	.loc 11 130 0
	addi 3,1,140
.LVL631:
.LEHB60:
	bl _ZN11idHashIndex4FreeEv
.LEHE60:
.LVL632:
.LBE4742:
.LBE4741:
.LBE4740:
.LBB4743:
.LBB4744:
.LBB4745:
.LBB4746:
	.loc 3 193 0
	lwz 3,136(1)
	cmpwi 7,3,0
	beq- 7,.L669
	.loc 3 194 0
	bl _ZdaPv
.L669:
.LBE4746:
.LBE4745:
.LBE4744:
.LBE4743:
.LBE4739:
.LBE4738:
.LBE4737:
.LBB4767:
.LBB4768:
.LBB4769:
.LBB4770:
	.loc 3 193 0
	lwz 3,20(1)
.LBE4770:
.LBE4769:
.LBE4768:
.LBE4767:
.LBB4780:
.LBB4764:
.LBB4761:
.LBB4753:
.LBB4751:
.LBB4749:
.LBB4747:
	.loc 3 197 0
	li 0,0
	stw 0,136(1)
.LBE4747:
.LBE4749:
.LBE4751:
.LBE4753:
.LBE4761:
.LBE4764:
.LBE4780:
.LBB4781:
.LBB4777:
.LBB4774:
.LBB4771:
	.loc 3 193 0
	cmpwi 7,3,0
.LBE4771:
.LBE4774:
.LBE4777:
.LBE4781:
.LBB4782:
.LBB4765:
.LBB4762:
.LBB4754:
.LBB4752:
.LBB4750:
.LBB4748:
	.loc 3 198 0
	stw 0,124(1)
	.loc 3 199 0
	stw 0,128(1)
.LVL633:
.LBE4748:
.LBE4750:
.LBE4752:
.LBE4754:
.LBE4762:
.LBE4765:
.LBE4782:
.LBB4783:
.LBB4778:
.LBB4775:
.LBB4772:
	.loc 3 193 0
	beq- 7,.L676
	.loc 3 194 0
	bl _ZdaPv
.L676:
	.loc 3 197 0
	li 0,0
.LBE4772:
.LBE4775:
.LBE4778:
.LBE4783:
.LBB4784:
.LBB4785:
.LBB4786:
.LBB4787:
.LBB4788:
	.loc 9 501 0
	mr 3,31
.LBE4788:
.LBE4787:
.LBE4786:
.LBE4785:
.LBE4784:
.LBB4793:
.LBB4779:
.LBB4776:
.LBB4773:
	.loc 3 197 0
	stw 0,20(1)
	.loc 3 198 0
	stw 0,8(1)
	.loc 3 199 0
	stw 0,12(1)
.LVL634:
.LEHB61:
.LBE4773:
.LBE4776:
.LBE4779:
.LBE4793:
.LBB4794:
.LBB4792:
.LBB4791:
.LBB4790:
.LBB4789:
	.loc 9 501 0
	bl _ZN5idStr8FreeDataEv
.LEHE61:
.LBE4789:
.LBE4790:
.LBE4791:
.LBE4792:
.LBE4794:
.LBE5012:
	.loc 4 404 0
	lwz 0,380(1)
	mr 3,30
	lwz 14,272(1)
	mtlr 0
	lwz 15,276(1)
	lwz 16,280(1)
	lwz 17,284(1)
	lwz 18,288(1)
	lwz 19,292(1)
	lwz 20,296(1)
	lwz 21,300(1)
.LVL635:
	lwz 22,304(1)
	lwz 23,308(1)
	lwz 24,312(1)
	lwz 25,316(1)
	lwz 26,320(1)
	lwz 27,324(1)
	lwz 28,328(1)
	lwz 29,332(1)
	lwz 30,336(1)
	lwz 31,340(1)
	lfd 28,344(1)
	lfd 29,352(1)
	lfd 30,360(1)
	lfd 31,368(1)
.LVL636:
	addi 1,1,376
	.cfi_remember_state
.LCFI82:
	.cfi_def_cfa_offset 0
	.cfi_restore 63
	.cfi_restore 62
	.cfi_restore 61
	.cfi_restore 60
	.cfi_restore 31
	.cfi_restore 30
	.cfi_restore 29
	.cfi_restore 28
	.cfi_restore 27
	.cfi_restore 26
	.cfi_restore 25
	.cfi_restore 24
	.cfi_restore 23
	.cfi_restore 22
	.cfi_restore 21
	.cfi_restore 20
	.cfi_restore 19
	.cfi_restore 18
	.cfi_restore 17
	.cfi_restore 16
	.cfi_restore 15
	.cfi_restore 14
	blr
.LVL637:
.L761:
.LCFI83:
	.cfi_restore_state
.LBB5013:
.LBB4795:
.LBB4545:
	.loc 4 315 0 discriminator 2
	lwz 0,200(1)
	cmpwi 7,0,1
	bne+ 7,.L534
.LVL638:
	.loc 4 321 0
	lwz 4,60(1)
	mr 3,24
	lwz 5,4(31)
.LEHB62:
	bl _ZN6idDict3SetEPKcS1_
	.loc 4 324 0
	mr 3,29
	mr 4,31
	bl _ZN7idLexer9ReadTokenEP7idToken
.LEHE62:
	cmpwi 7,3,0
	beq- 7,.L762
.LVL639:
.LBB4530:
.LBB4531:
	.loc 9 501 0
	addi 3,1,56
.LEHB63:
	bl _ZN5idStr8FreeDataEv
	b .L550
.LVL640:
.L760:
.LBE4531:
.LBE4530:
.LBB4532:
.LBB4496:
.LBB4493:
.LBB4487:
	.loc 9 351 0
	addi 3,1,56
	li 5,1
	bl _ZN5idStr10ReAllocateEib
.LVL641:
	lwz 3,60(1)
	b .L533
.LVL642:
.L756:
.LBE4487:
.LBE4493:
.LBE4496:
.LBE4532:
.LBE4545:
.LBE4795:
.LBB4796:
.LBB4245:
.LBB4228:
.LBB4225:
.LBB4222:
	.loc 3 388 0
	stw 3,124(1)
	b .L507
.LVL643:
.L525:
.LBE4222:
.LBE4225:
.LBE4228:
.LBE4245:
.LBE4796:
.LBB4797:
	.loc 4 331 0
	mr 3,29
	mr 4,31
	bl _ZN7idLexer11UnreadTokenEPK7idToken
	.loc 4 333 0
	li 3,84
	bl _Znwj
.LBB4546:
.LBB4410:
.LBB4411:
.LBB4412:
	.loc 9 356 0
	li 0,0
	.loc 9 358 0
	addi 9,3,12
	.loc 9 357 0
	li 11,20
	.loc 9 356 0
	stw 0,0(3)
	.loc 9 357 0
	stw 11,8(3)
.LBE4412:
.LBE4411:
.LBE4410:
.LBE4546:
	.loc 4 333 0
	mr 30,3
.LVL644:
.LBB4547:
.LBB4415:
.LBB4414:
.LBB4413:
	.loc 9 358 0
	stw 9,4(3)
	.loc 9 359 0
	stb 0,12(3)
.LVL645:
.LBE4413:
.LBE4414:
.LBE4415:
.LBB4416:
.LBB4407:
	.loc 8 230 0
	stw 23,44(3)
.LBE4407:
.LBE4416:
.LBE4547:
.LBB4548:
.LBB4549:
	.loc 3 655 0
	lwz 28,20(1)
.LBE4549:
.LBE4548:
.LBB4587:
.LBB4417:
.LBB4408:
	.loc 8 230 0
	stw 23,40(3)
.LBE4408:
.LBE4417:
.LBE4587:
.LBB4588:
.LBB4579:
	.loc 3 655 0
	cmpwi 7,28,0
.LBE4579:
.LBE4588:
.LBB4589:
.LBB4418:
.LBB4409:
	.loc 8 230 0
	stw 23,36(3)
	stw 23,32(3)
.LVL646:
.LBE4409:
.LBE4418:
.LBB4419:
.LBB4420:
	.loc 5 416 0
	stw 23,56(3)
	stw 23,52(3)
	stw 23,48(3)
.LVL647:
.LBE4420:
.LBE4419:
.LBB4421:
.LBB4422:
	stw 23,68(3)
	stw 23,64(3)
	stw 23,60(3)
.LVL648:
.LBE4422:
.LBE4421:
.LBB4423:
.LBB4424:
	stw 23,80(3)
	stw 23,76(3)
	stw 23,72(3)
.LVL649:
.LBE4424:
.LBE4423:
.LBE4589:
.LBB4590:
.LBB4580:
	.loc 3 655 0
	beq- 7,.L551
	lwz 0,8(1)
	lwz 9,12(1)
.LVL650:
.L552:
.LBB4550:
	.loc 3 659 0
	cmpw 7,0,9
	beq- 7,.L694
	slwi 0,0,2
	add 28,28,0
.L559:
.LBE4550:
	.loc 3 669 0
	stw 30,0(28)
.LBE4580:
.LBE4590:
	.loc 4 336 0
	cmpwi 7,19,0
	.loc 4 337 0
	mr 3,29
.LBB4591:
.LBB4581:
	.loc 3 670 0
	lwz 9,8(1)
	addi 0,9,1
	stw 0,8(1)
.LBE4581:
.LBE4591:
	.loc 4 336 0
	beq- 7,.L568
.LVL651:
	.loc 4 337 0
	li 4,4
	addi 5,30,32
	bl _ZN7idLexer13Parse1DMatrixEiPf
	cmpwi 7,3,0
	beq- 7,.L763
.LVL652:
.L569:
	.loc 4 361 0
	mr 3,29
	li 4,2
	li 5,3
	addi 6,30,48
	bl _ZN7idLexer13Parse2DMatrixEiiPf
	cmpwi 7,3,0
	beq- 7,.L764
.LVL653:
.LBB4592:
.LBB4593:
	.loc 5 424 0
	lwz 0,0(21)
.LBE4593:
.LBE4592:
	.loc 4 369 0
	mr 3,29
	mr 4,31
.LBB4595:
.LBB4594:
	.loc 5 424 0
	stw 0,72(30)
	.loc 5 425 0
	lwz 0,4(21)
	stw 0,76(30)
	.loc 5 426 0
	lwz 0,8(21)
	stw 0,80(30)
.LBE4594:
.LBE4595:
	.loc 4 369 0
	bl _ZN7idLexer15ReadTokenOnLineEP7idToken
	cmpwi 7,3,0
	beq- 7,.L765
	.loc 4 376 0
	lfs 0,.LC29@l(18)
.LBB4596:
.LBB4470:
.LBB4441:
	.loc 4 973 0
	lwz 28,0(31)
.LBE4441:
.LBE4470:
.LBE4596:
	.loc 4 376 0
	fcmpu 7,31,0
	bnl- 7,.L735
.LVL654:
.LBB4597:
.LBB4471:
.LBB4459:
.LBB4442:
	.loc 9 762 0
	addi 4,28,10
.LBE4442:
.LBE4459:
.LBB4460:
.LBB4438:
.LBB4435:
.LBB4432:
	.loc 9 415 0
	la 9,.LC37@l(20)
.LBE4432:
.LBE4435:
.LBE4438:
.LBE4460:
.LBB4461:
.LBB4455:
.LBB4443:
.LBB4444:
	.loc 9 350 0
	cmpwi 7,4,20
.LBE4444:
.LBE4443:
.LBE4455:
.LBE4461:
.LBB4462:
.LBB4439:
.LBB4436:
.LBB4433:
	.loc 9 415 0
	lhz 0,8(9)
	lwz 11,4(9)
	.loc 9 358 0
	addi 9,1,36
	.loc 9 415 0
	lwz 10,.LC37@l(20)
	.loc 9 357 0
	li 8,20
	.loc 9 415 0
	sth 0,8(9)
.LBE4433:
.LBE4436:
	.loc 9 416 0
	li 0,9
	stw 0,24(1)
.LBE4439:
.LBE4462:
.LBB4463:
.LBB4456:
.LBB4448:
.LBB4445:
	.loc 9 350 0
	mr 0,28
.LBE4445:
.LBE4448:
.LBE4456:
.LBE4463:
.LBB4464:
.LBB4440:
.LBB4437:
.LBB4434:
	.loc 9 357 0
	stw 8,32(1)
	.loc 9 358 0
	stw 9,28(1)
.LVL655:
	.loc 9 415 0
	stw 10,36(1)
	stw 11,4(9)
.LBE4434:
.LBE4437:
.LBE4440:
.LBE4464:
.LBB4465:
.LBB4457:
.LBB4449:
.LBB4446:
	.loc 9 350 0
	bgt- 7,.L766
.LVL656:
.L614:
.LBE4446:
.LBE4449:
	.loc 9 763 0
	cmpwi 7,0,0
	ble- 7,.L615
	li 9,0
.LVL657:
.L616:
.LBB4450:
.LBB4451:
	.loc 9 522 0
	lwz 11,4(31)
.LBE4451:
.LBE4450:
	.loc 9 764 0
	lwz 10,28(1)
.LBB4453:
.LBB4452:
	.loc 9 522 0
	lbzx 0,11,9
.LBE4452:
.LBE4453:
	.loc 9 764 0
	lwz 11,24(1)
	add 11,10,11
	stbx 0,11,9
	.loc 9 763 0
	addi 9,9,1
.LVL658:
	lwz 0,168(1)
	cmpw 7,9,0
	blt+ 7,.L616
.LVL659:
.L615:
	.loc 9 767 0
	lwz 9,28(1)
	.loc 9 761 0
	addi 28,28,9
.LVL660:
	.loc 9 767 0
	li 0,0
	.loc 9 766 0
	stw 28,24(1)
	.loc 9 767 0
	stbx 0,9,28
.LVL661:
.LBE4457:
.LBE4465:
.LBE4471:
.LBE4597:
.LBB4598:
	.loc 4 973 0
	lwz 28,24(1)
.LVL662:
.LBB4599:
.LBB4600:
.LBB4601:
	.loc 9 350 0
	lwz 0,8(30)
.LBE4601:
.LBE4600:
	.loc 9 534 0
	addi 4,28,1
.LVL663:
.LBB4604:
.LBB4602:
	.loc 9 350 0
	cmpw 7,4,0
	bgt- 7,.L767
.LVL664:
.L618:
.LBE4602:
.LBE4604:
	.loc 9 535 0
	lwz 3,4(30)
	mr 5,28
	lwz 4,28(1)
	bl memcpy
	.loc 9 536 0
	lwz 9,4(30)
	li 0,0
.LBE4599:
.LBE4598:
.LBB4608:
.LBB4609:
.LBB4610:
	.loc 9 501 0
	addi 3,1,24
.LBE4610:
.LBE4609:
.LBE4608:
.LBB4613:
.LBB4606:
	.loc 9 536 0
	stbx 0,9,28
	.loc 9 537 0
	stw 28,0(30)
.LVL665:
.LBE4606:
.LBE4613:
.LBB4614:
.LBB4612:
.LBB4611:
	.loc 9 501 0
	bl _ZN5idStr8FreeDataEv
.LVL666:
.L622:
.LBE4611:
.LBE4612:
.LBE4614:
	.loc 4 383 0
	mr 3,29
	mr 4,31
	bl _ZN7idLexer15ReadTokenOnLineEP7idToken
	cmpwi 7,3,0
	beq+ 7,.L730
	.loc 4 384 0
	mr 3,29
	mr 4,31
	bl _ZN7idLexer15ReadTokenOnLineEP7idToken
	cmpwi 7,3,0
	beq+ 7,.L730
	.loc 4 385 0
	mr 3,29
	mr 4,31
	bl _ZN7idLexer15ReadTokenOnLineEP7idToken
	b .L730
.LVL667:
.L759:
.LBB4615:
	.loc 4 308 0
	lis 4,.LC48@ha
	lwz 5,4(31)
	mr 3,29
	la 4,.LC48@l(4)
	crxor 6,6,6
	bl _ZN7idLexer5ErrorEPKcz
.LVL668:
.LBB4533:
.LBB4534:
	.loc 3 218 0
	lwz 0,8(1)
	cmpwi 7,0,0
	ble- 7,.L628
	li 30,0
	.loc 3 220 0
	li 27,0
.LVL669:
.L531:
	.loc 3 219 0
	lwz 9,20(1)
	.loc 4 278 0
	slwi 29,30,2
	.loc 3 219 0
	lwzx 28,9,29
	add 9,9,29
	cmpwi 7,28,0
	beq- 7,.L528
.LVL670:
.LBB4535:
.LBB4536:
.LBB4537:
.LBB4538:
.LBB4539:
.LBB4540:
	.loc 9 501 0
	mr 3,28
	bl _ZN5idStr8FreeDataEv
.LEHE63:
.LVL671:
.LBE4540:
.LBE4539:
.LBE4538:
.LBE4537:
.LBE4536:
.LBE4535:
	.loc 3 219 0
	mr 3,28
	bl _ZdlPv
	lwz 9,20(1)
	add 9,9,29
.LVL672:
.L528:
	.loc 3 220 0
	stw 27,0(9)
	.loc 3 218 0
	addi 30,30,1
.LVL673:
	lwz 0,8(1)
	cmpw 7,30,0
	blt+ 7,.L531
.LVL674:
.L628:
.LBE4534:
.LBE4533:
.LBE4615:
.LBE4797:
.LBB4798:
.LBB4799:
.LBB4800:
.LBB4801:
	.loc 3 193 0
	lwz 3,20(1)
	cmpwi 7,3,0
	beq- 7,.L633
	.loc 3 194 0
	bl _ZdaPv
.L633:
	.loc 3 197 0
	li 0,0
	.loc 4 393 0
	li 30,0
	.loc 3 197 0
	stw 0,20(1)
	.loc 3 198 0
	stw 0,8(1)
	.loc 3 199 0
	stw 0,12(1)
	b .L516
.LVL675:
.L762:
.LBE4801:
.LBE4800:
.LBE4799:
.LBE4798:
.LBB4810:
.LBB4616:
	.loc 4 325 0
	lis 4,.LC47@ha
	mr 3,29
	la 4,.LC47@l(4)
.LEHB64:
	crxor 6,6,6
	bl _ZN7idLexer5ErrorEPKcz
.LVL676:
.LBB4541:
.LBB4522:
	.loc 3 218 0
	lwz 0,8(1)
	cmpwi 7,0,0
	ble- 7,.L544
	li 30,0
	.loc 3 220 0
	li 27,0
.LVL677:
.L548:
	.loc 3 219 0
	lwz 9,20(1)
	.loc 4 278 0
	slwi 29,30,2
	.loc 3 219 0
	lwzx 28,9,29
	add 9,9,29
	cmpwi 7,28,0
	beq- 7,.L545
.LVL678:
.LBB4515:
.LBB4516:
.LBB4517:
.LBB4518:
.LBB4519:
.LBB4520:
	.loc 9 501 0
	mr 3,28
	bl _ZN5idStr8FreeDataEv
.LEHE64:
.LVL679:
.LBE4520:
.LBE4519:
.LBE4518:
.LBE4517:
.LBE4516:
.LBE4515:
	.loc 3 219 0
	mr 3,28
	bl _ZdlPv
	lwz 9,20(1)
	add 9,9,29
.LVL680:
.L545:
	.loc 3 220 0
	stw 27,0(9)
	.loc 3 218 0
	addi 30,30,1
.LVL681:
	lwz 0,8(1)
	cmpw 7,30,0
	blt+ 7,.L548
	b .L544
.LVL682:
.L694:
	lwz 3,16(1)
.LBE4522:
.LBE4541:
.LBE4616:
.LBB4617:
.LBB4582:
.LBB4567:
	.loc 3 659 0
	mr 10,0
.L554:
.LBB4551:
	.loc 3 662 0
	cmpwi 7,3,0
	mr 9,3
	bne- 7,.L560
	.loc 3 663 0
	li 9,16
	stw 9,16(1)
.L560:
	.loc 3 665 0
	add 11,9,0
.LVL683:
	.loc 3 666 0
	divw 11,11,9
.LVL684:
.LBB4552:
.LBB4553:
	.loc 3 375 0
	mullw. 9,11,9
.LVL685:
	ble- 0,.L768
	.loc 3 380 0
	cmpw 7,9,0
	beq- 7,.L769
.LVL686:
	.loc 3 387 0
	cmpw 7,9,10
	.loc 3 386 0
	stw 9,12(1)
	.loc 3 387 0
	blt- 7,.L770
.L564:
	.loc 3 392 0
	slwi 3,9,2
.LEHB65:
	bl _Znaj
.LVL687:
	.loc 3 393 0
	lwz 0,8(1)
	.loc 3 392 0
	stw 3,20(1)
.LVL688:
	.loc 3 393 0
	cmpwi 7,0,0
	ble- 7,.L565
	.loc 4 278 0
	addi 11,28,-4
.LBE4553:
.LBE4552:
	.loc 3 393 0
	li 9,0
	b .L566
.LVL689:
.L771:
.LBB4560:
.LBB4556:
	lwz 3,20(1)
.LVL690:
.L566:
	.loc 3 394 0
	lwzu 10,4(11)
	slwi 0,9,2
	.loc 3 393 0
	addi 9,9,1
.LVL691:
	.loc 3 394 0
	stwx 10,3,0
	.loc 3 393 0
	lwz 0,8(1)
	cmpw 7,9,0
	blt+ 7,.L771
.LVL692:
.L565:
	.loc 3 398 0
	cmpwi 7,28,0
	beq- 7,.L740
	.loc 3 399 0
	mr 3,28
	bl _ZdaPv
	lwz 0,8(1)
.L740:
	lwz 28,20(1)
.LVL693:
	slwi 0,0,2
	add 28,28,0
	b .L559
.LVL694:
.L568:
.LBE4556:
.LBE4560:
.LBE4551:
.LBE4567:
.LBE4582:
.LBE4617:
	.loc 4 344 0
	li 4,3
	addi 5,1,88
	bl _ZN7idLexer13Parse1DMatrixEiPf
	cmpwi 7,3,0
	bne- 7,.L772
.L576:
	.loc 4 347 0 discriminator 3
	lis 4,.LC50@ha
	mr 3,29
	la 4,.LC50@l(4)
	crxor 6,6,6
	bl _ZN7idLexer5ErrorEPKcz
.LVL695:
.LBB4618:
.LBB4619:
	.loc 3 218 0
	lwz 0,8(1)
	cmpwi 7,0,0
	ble- 7,.L628
	li 30,0
.LVL696:
	.loc 3 220 0
	li 27,0
.LVL697:
.L582:
	.loc 3 219 0
	lwz 9,20(1)
	.loc 4 278 0
	slwi 29,30,2
	.loc 3 219 0
	lwzx 28,9,29
	add 9,9,29
	cmpwi 7,28,0
	beq- 7,.L579
.LVL698:
.LBB4620:
.LBB4621:
.LBB4622:
.LBB4623:
.LBB4624:
.LBB4625:
	.loc 9 501 0
	mr 3,28
	bl _ZN5idStr8FreeDataEv
.LEHE65:
.LVL699:
.LBE4625:
.LBE4624:
.LBE4623:
.LBE4622:
.LBE4621:
.LBE4620:
	.loc 3 219 0
	mr 3,28
	bl _ZdlPv
	lwz 9,20(1)
	add 9,9,29
.LVL700:
.L579:
	.loc 3 220 0
	stw 27,0(9)
	.loc 3 218 0
	addi 30,30,1
.LVL701:
	lwz 0,8(1)
	cmpw 7,30,0
	blt+ 7,.L582
	b .L628
.LVL702:
.L735:
.LBE4619:
.LBE4618:
.LBB4626:
.LBB4627:
.LBB4628:
.LBB4629:
	.loc 9 350 0
	lwz 0,8(30)
.LBE4629:
.LBE4628:
	.loc 9 534 0
	addi 4,28,1
.LVL703:
.LBB4632:
.LBB4630:
	.loc 9 350 0
	cmpw 7,4,0
	bgt- 7,.L773
.LVL704:
.L623:
.LBE4630:
.LBE4632:
	.loc 9 535 0
	lwz 3,4(30)
	mr 5,28
	lwz 4,172(1)
	bl memcpy
	.loc 9 536 0
	lwz 9,4(30)
	li 0,0
	stbx 0,9,28
	.loc 9 537 0
	stw 28,0(30)
	b .L622
.LVL705:
.L755:
.LBE4627:
.LBE4626:
.LBE4810:
.LBB4811:
.LBB4246:
.LBB4229:
.LBB4226:
.LBB4223:
.LBB4219:
.LBB4220:
	.loc 3 194 0
	mr 3,31
.LVL706:
	bl _ZdaPv
	.loc 3 197 0
	li 0,0
	stw 0,136(1)
	.loc 3 198 0
	stw 0,124(1)
	.loc 3 199 0
	stw 0,128(1)
	b .L505
.LVL707:
.L767:
.LBE4220:
.LBE4219:
.LBE4223:
.LBE4226:
.LBE4229:
.LBE4246:
.LBE4811:
.LBB4812:
.LBB4635:
.LBB4607:
.LBB4605:
.LBB4603:
	.loc 9 351 0
	mr 3,30
	li 5,0
.LEHB66:
	bl _ZN5idStr10ReAllocateEib
.LEHE66:
.LVL708:
	b .L618
.LVL709:
.L773:
.LBE4603:
.LBE4605:
.LBE4607:
.LBE4635:
.LBB4636:
.LBB4634:
.LBB4633:
.LBB4631:
	mr 3,30
	li 5,0
.LEHB67:
	bl _ZN5idStr10ReAllocateEib
.LVL710:
	b .L623
.LVL711:
.L770:
.LBE4631:
.LBE4633:
.LBE4634:
.LBE4636:
.LBB4637:
.LBB4583:
.LBB4568:
.LBB4564:
.LBB4561:
.LBB4557:
	.loc 3 388 0
	stw 9,8(1)
	b .L564
.LVL712:
.L772:
.LBE4557:
.LBE4561:
.LBE4564:
.LBE4568:
.LBE4583:
.LBE4637:
	.loc 4 345 0
	mr 3,29
	li 4,3
	addi 5,1,100
	bl _ZN7idLexer13Parse1DMatrixEiPf
	.loc 4 344 0
	cmpwi 7,3,0
	beq+ 7,.L576
.LVL713:
	.loc 4 346 0
	mr 3,29
	li 4,3
	addi 5,1,112
	bl _ZN7idLexer13Parse1DMatrixEiPf
.LEHE67:
	.loc 4 344 0
	cmpwi 7,3,0
	beq- 7,.L576
.LVL714:
.LBB4638:
.LBB4639:
	.loc 5 481 0
	lfs 0,0(21)
.LBE4639:
.LBE4638:
.LBB4648:
.LBB4391:
.LBB4346:
.LBB4337:
.LBB4321:
.LBB4286:
.LBB4282:
.LBB4278:
	.loc 6 275 0
	lis 9,.LC1@ha
.LBE4278:
.LBE4282:
.LBE4286:
.LBE4321:
.LBE4337:
.LBE4346:
.LBE4391:
.LBE4648:
.LBB4649:
.LBB4640:
	.loc 5 483 0
	lfs 12,8(21)
.LBE4640:
.LBE4649:
.LBB4650:
.LBB4651:
	lfs 7,120(1)
.LBE4651:
.LBE4650:
.LBB4658:
.LBB4659:
	.loc 5 481 0
	lfs 8,100(1)
	.loc 5 483 0
	lfs 10,108(1)
.LBE4659:
.LBE4658:
.LBB4666:
.LBB4652:
	fsubs 7,7,12
.LBE4652:
.LBE4666:
.LBB4667:
.LBB4641:
	.loc 5 481 0
	lfs 1,88(1)
.LBE4641:
.LBE4667:
.LBB4668:
.LBB4660:
	fsubs 8,8,0
	.loc 5 483 0
	fsubs 10,10,12
.LBE4660:
.LBE4668:
.LBB4669:
.LBB4642:
	.loc 5 482 0
	lfs 13,4(21)
	.loc 5 481 0
	fsubs 1,1,0
.LBE4642:
.LBE4669:
.LBB4670:
.LBB4661:
	.loc 5 482 0
	lfs 9,104(1)
.LBE4661:
.LBE4670:
.LBB4671:
.LBB4643:
	.loc 5 483 0
	lfs 3,96(1)
.LBE4643:
.LBE4671:
.LBB4672:
.LBB4653:
	.loc 5 481 0
	lfs 4,112(1)
.LBE4653:
.LBE4672:
.LBB4673:
.LBB4392:
.LBB4347:
.LBB4348:
	.loc 5 431 0
	fsubs 6,7,10
.LBE4348:
.LBE4347:
.LBE4392:
.LBE4673:
.LBB4674:
.LBB4654:
	.loc 5 482 0
	lfs 5,116(1)
.LBE4654:
.LBE4674:
.LBB4675:
.LBB4662:
	fsubs 9,9,13
.LBE4662:
.LBE4675:
.LBB4676:
.LBB4644:
	.loc 5 483 0
	fsubs 3,3,12
	.loc 5 482 0
	lfs 2,92(1)
.LBE4644:
.LBE4676:
.LBB4677:
.LBB4655:
	.loc 5 481 0
	fsubs 4,4,0
	.loc 5 483 0
	stfs 7,120(1)
	.loc 5 482 0
	fsubs 5,5,13
.LBE4655:
.LBE4677:
.LBB4678:
.LBB4663:
	.loc 5 483 0
	stfs 10,108(1)
.LBE4663:
.LBE4678:
.LBB4679:
.LBB4393:
.LBB4354:
.LBB4355:
	.loc 5 431 0
	fsubs 0,1,8
.LBE4355:
.LBE4354:
.LBE4393:
.LBE4679:
.LBB4680:
.LBB4645:
	.loc 5 483 0
	stfs 3,96(1)
.LBE4645:
.LBE4680:
.LBB4681:
.LBB4394:
.LBB4358:
.LBB4356:
	.loc 5 431 0
	fsubs 12,3,10
.LBE4356:
.LBE4358:
.LBE4394:
.LBE4681:
.LBB4682:
.LBB4646:
	.loc 5 481 0
	stfs 1,88(1)
	.loc 5 482 0
	fsubs 2,2,13
.LBE4646:
.LBE4682:
.LBB4683:
.LBB4664:
	.loc 5 481 0
	stfs 8,100(1)
.LBE4664:
.LBE4683:
.LBB4684:
.LBB4395:
.LBB4359:
.LBB4349:
	.loc 5 431 0
	fsubs 13,5,9
.LBE4349:
.LBE4359:
.LBE4395:
.LBE4684:
.LBB4685:
.LBB4665:
	.loc 5 482 0
	stfs 9,104(1)
.LBE4665:
.LBE4685:
.LBB4686:
.LBB4396:
.LBB4360:
.LBB4361:
	.loc 5 620 0
	fmuls 28,0,6
.LBE4361:
.LBE4360:
.LBE4396:
.LBE4686:
.LBB4687:
.LBB4656:
	.loc 5 481 0
	stfs 4,112(1)
.LBE4656:
.LBE4687:
.LBB4688:
.LBB4397:
.LBB4364:
.LBB4350:
	.loc 5 431 0
	fsubs 30,4,8
.LBE4350:
.LBE4364:
.LBE4397:
.LBE4688:
.LBB4689:
.LBB4647:
	.loc 5 482 0
	stfs 2,92(1)
.LBE4647:
.LBE4689:
.LBB4690:
.LBB4398:
.LBB4365:
.LBB4362:
	.loc 5 620 0
	fmuls 29,12,13
.LBE4362:
.LBE4365:
.LBE4398:
.LBE4690:
.LBB4691:
.LBB4657:
	.loc 5 482 0
	stfs 5,116(1)
.LBE4657:
.LBE4691:
.LBB4692:
.LBB4399:
.LBB4366:
.LBB4357:
	.loc 5 431 0
	fsubs 11,2,9
.LBE4357:
.LBE4366:
.LBB4367:
.LBB4351:
	.loc 5 620 0
	fmsubs 12,12,30,28
.LBE4351:
.LBE4367:
.LBB4368:
.LBB4363:
	fmuls 30,11,30
.LBE4363:
.LBE4368:
.LBB4369:
.LBB4352:
	fmsubs 11,11,6,29
.LBE4352:
.LBE4369:
.LBB4370:
.LBB4371:
	.loc 5 425 0
	stfs 12,36(30)
.LBE4371:
.LBE4370:
.LBB4374:
.LBB4338:
.LBB4322:
.LBB4287:
	.loc 5 649 0
	fmuls 6,12,12
.LBE4287:
.LBE4322:
.LBE4338:
.LBE4374:
.LBB4375:
.LBB4353:
	.loc 5 620 0
	fmsubs 0,0,13,30
.LBE4353:
.LBE4375:
.LBB4376:
.LBB4372:
	.loc 5 424 0
	stfs 11,32(30)
	.loc 5 649 0
	fmadds 13,11,11,6
.LBE4372:
.LBE4376:
.LBB4377:
.LBB4339:
.LBB4323:
.LBB4288:
.LBB4283:
.LBB4279:
	.loc 6 275 0
	lfs 6,.LC1@l(9)
.LBE4279:
.LBE4283:
.LBE4288:
.LBE4323:
.LBE4339:
.LBE4377:
.LBB4378:
.LBB4373:
	.loc 5 426 0
	stfs 0,40(30)
	.loc 5 649 0
	fmadds 13,0,0,13
	stfs 13,260(1)
.LBE4373:
.LBE4378:
.LBB4379:
.LBB4340:
.LBB4324:
.LBB4289:
.LBB4284:
.LBB4280:
	.loc 6 275 0
	fmuls 6,13,6
	.loc 6 270 0
	lwz 0,260(1)
	.loc 4 278 0
	fneg 6,6
	.loc 6 276 0
	rlwinm 9,0,9,24,31
.LVL715:
	rlwinm 0,0,19,21,29
	lwzx 0,14,0
	subfic 9,9,380
	rlwinm 9,9,22,0,8
	or 0,9,0
	.loc 6 277 0
	stw 0,264(1)
	lfs 7,264(1)
	fmr 13,7
.LVL716:
	.loc 6 278 0
	lfs 7,.LC3@l(15)
	fmul 30,13,13
	fmadd 3,6,30,7
	fmul 13,13,3
.LVL717:
	.loc 6 279 0
	fmul 10,13,13
	fmadd 7,6,10,7
.LVL718:
	fmul 13,13,7
.LVL719:
	.loc 6 280 0
	frsp 13,13
.LVL720:
.LBE4280:
.LBE4284:
	.loc 5 651 0
	fmuls 11,11,13
.LVL721:
	.loc 5 652 0
	fmuls 12,12,13
.LVL722:
	.loc 5 653 0
	fmuls 0,0,13
.LVL723:
	.loc 5 651 0
	stfs 11,256(1)
	.loc 5 652 0
	stfs 12,248(1)
	.loc 5 653 0
	stfs 0,252(1)
.LBE4289:
.LBE4324:
.LBB4325:
.LBB4313:
.LBB4305:
	.loc 5 536 0
	stw 23,264(1)
.LBE4305:
.LBE4313:
.LBE4325:
.LBB4326:
.LBB4290:
	.loc 5 651 0
	lwz 0,256(1)
.LBE4290:
.LBE4326:
.LBB4327:
.LBB4314:
.LBB4306:
	.loc 5 536 0
	lfs 12,264(1)
.LBE4306:
.LBE4314:
.LBE4327:
.LBB4328:
.LBB4291:
	.loc 5 652 0
	lwz 9,248(1)
.LBE4291:
.LBE4328:
.LBB4329:
.LBB4315:
.LBB4307:
	.loc 5 536 0
	fcmpu 6,11,12
.LBE4307:
.LBE4315:
.LBE4329:
.LBB4330:
.LBB4292:
	.loc 5 651 0
	stw 0,32(30)
	.loc 5 654 0
	lfs 0,260(1)
	.loc 5 653 0
	lwz 0,252(1)
	.loc 5 652 0
	stw 9,36(30)
	.loc 5 654 0
	fmuls 13,0,13
.LVL724:
	.loc 5 653 0
	stw 0,40(30)
.LBE4292:
.LBE4330:
.LBB4331:
.LBB4316:
.LBB4308:
	.loc 5 536 0
	bne- 6,.L774
	.loc 5 537 0
	stw 23,264(1)
	lfs 0,248(1)
	lfs 7,264(1)
	fcmpu 7,0,7
	bne- 7,.L584
	.loc 5 538 0
	lfs 12,252(1)
	fcmpu 7,12,7
	bng- 7,.L732
	.loc 5 539 0
	lfs 0,.LC51@l(17)
	fcmpu 7,12,0
	bne- 7,.L741
.L587:
.LBE4308:
.LBE4316:
.LBE4331:
.LBE4340:
.LBE4379:
	.loc 8 281 0
	stw 23,264(1)
	lfs 12,264(1)
	fcmpu 7,13,12
	beq- 7,.L569
.LVL725:
.LBB4380:
.LBB4381:
.LBB4382:
.LBB4383:
	.loc 5 435 0
	lfs 13,36(30)
	lfs 0,104(1)
.LBE4383:
.LBE4382:
	lfs 11,32(30)
.LBB4385:
.LBB4384:
	fmuls 0,13,0
.LBE4384:
.LBE4385:
	lfs 13,100(1)
	lfs 12,40(30)
	fmadds 13,11,13,0
	lfs 0,108(1)
	.loc 8 284 0
	fnmadds 0,12,0,13
	stfs 0,44(30)
	b .L569
.LVL726:
.L732:
.LBE4381:
.LBE4380:
.LBB4386:
.LBB4341:
.LBB4332:
.LBB4317:
.LBB4309:
	.loc 5 544 0
	lfs 0,.LC52@l(16)
	lfs 12,252(1)
	fcmpu 7,12,0
	beq- 7,.L587
.L741:
	.loc 5 545 0
	stfs 0,40(30)
	b .L587
.L774:
	.loc 5 564 0
	stw 23,264(1)
	lfs 12,248(1)
	lfs 0,264(1)
	fcmpu 7,12,0
	bne- 7,.L588
	.loc 5 565 0
	lfs 7,252(1)
	fcmpu 7,7,0
	bne- 7,.L588
	.loc 5 566 0
	bng- 6,.L734
	.loc 5 567 0
	lfs 0,.LC51@l(17)
	lfs 12,256(1)
	fcmpu 7,12,0
	beq- 7,.L587
	.loc 5 573 0
	stfs 0,32(30)
	b .L587
.L588:
.LVL727:
.LBB4297:
.LBB4298:
	.loc 6 781 0
	lwz 9,256(1)
.LBE4298:
.LBE4297:
	.loc 5 580 0
	lfs 0,.LC51@l(17)
.LBB4300:
.LBB4299:
	.loc 6 781 0
	rlwinm 0,9,0,1,31
.LBE4299:
.LBE4300:
	.loc 5 580 0
	stw 0,264(1)
	lfs 7,264(1)
	fcmpu 7,7,0
	bne- 7,.L593
	.loc 5 581 0
	stw 23,264(1)
	lfs 12,248(1)
	lfs 0,264(1)
	fcmpu 7,12,0
	bne- 7,.L594
	lfs 7,252(1)
	fcmpu 7,7,0
	beq- 7,.L587
.L594:
	.loc 5 582 0
	stw 23,40(30)
	stw 23,36(30)
	b .L587
.LVL728:
.L690:
.LBE4309:
.LBE4317:
.LBE4332:
.LBE4341:
.LBE4386:
.LBE4399:
.LBE4692:
.LBE4812:
	.loc 4 287 0
	li 30,0
	addi 24,1,124
	addi 31,1,168
	b .L516
.LVL729:
.L766:
.LBB4813:
.LBB4693:
.LBB4472:
.LBB4466:
.LBB4458:
.LBB4454:
.LBB4447:
	.loc 9 351 0
	addi 3,1,24
	li 5,1
.LEHB68:
	bl _ZN5idStr10ReAllocateEib
.LEHE68:
.LVL730:
	lwz 0,168(1)
	b .L614
.LVL731:
.L584:
.LBE4447:
.LBE4454:
.LBE4458:
.LBE4466:
.LBE4472:
.LBE4693:
.LBB4694:
.LBB4400:
.LBB4387:
.LBB4342:
.LBB4333:
.LBB4318:
.LBB4310:
	.loc 5 550 0
	stw 23,264(1)
	lfs 0,252(1)
	lfs 7,264(1)
	fcmpu 6,0,7
	bne- 6,.L588
	.loc 5 551 0
	bng- 7,.L733
	.loc 5 552 0
	lfs 0,.LC51@l(17)
	lfs 12,248(1)
	fcmpu 7,12,0
	beq- 7,.L587
	.loc 5 558 0
	stfs 0,36(30)
	b .L587
.LVL732:
.L593:
.LBB4301:
.LBB4302:
	.loc 6 781 0
	lwz 9,248(1)
	rlwinm 0,9,0,1,31
.LVL733:
.LBE4302:
.LBE4301:
	.loc 5 586 0
	stw 0,264(1)
	lfs 7,264(1)
	fcmpu 7,7,0
	bne- 7,.L595
	.loc 5 587 0
	stw 23,264(1)
	lfs 12,256(1)
	lfs 0,264(1)
	fcmpu 7,12,0
	bne- 7,.L596
	lfs 7,252(1)
	fcmpu 7,7,0
	beq- 7,.L587
.L596:
	.loc 5 588 0
	stw 23,40(30)
	stw 23,32(30)
	b .L587
.LVL734:
.L524:
.LBE4310:
.LBE4318:
.LBE4333:
.LBE4342:
.LBE4387:
.LBE4400:
.LBE4694:
.LBE4813:
	.loc 4 391 0
	mr 3,29
	mr 4,22
.LEHB69:
	bl _ZN7idLexer17ExpectTokenStringEPKc
	cmpwi 7,3,0
	bne- 7,.L627
.LVL735:
.LBB4814:
.LBB4808:
	.loc 3 218 0
	lwz 0,8(1)
	cmpwi 7,0,0
	ble- 7,.L628
	li 30,0
	.loc 3 220 0
	li 27,0
.LVL736:
.L632:
	.loc 3 219 0
	lwz 9,20(1)
	.loc 4 278 0
	slwi 29,30,2
	.loc 3 219 0
	lwzx 28,9,29
	add 9,9,29
	cmpwi 7,28,0
	beq- 7,.L629
.LVL737:
.LBB4802:
.LBB4803:
.LBB4804:
.LBB4805:
.LBB4806:
.LBB4807:
	.loc 9 501 0
	mr 3,28
	bl _ZN5idStr8FreeDataEv
.LVL738:
.LBE4807:
.LBE4806:
.LBE4805:
.LBE4804:
.LBE4803:
.LBE4802:
	.loc 3 219 0
	mr 3,28
	bl _ZdlPv
	lwz 9,20(1)
	add 9,9,29
.LVL739:
.L629:
	.loc 3 220 0
	stw 27,0(9)
	.loc 3 218 0
	addi 30,30,1
.LVL740:
	lwz 0,8(1)
	cmpw 7,30,0
	blt+ 7,.L632
	b .L628
.LVL741:
.L758:
.LBE4808:
.LBE4814:
.LBB4815:
	.loc 4 292 0
	lis 4,.LC47@ha
	mr 3,29
	la 4,.LC47@l(4)
	crxor 6,6,6
	bl _ZN7idLexer5ErrorEPKcz
.LVL742:
.LBB4695:
.LBB4696:
	.loc 3 218 0
	lwz 0,8(1)
	cmpwi 7,0,0
	ble- 7,.L628
	li 30,0
	.loc 3 220 0
	li 27,0
.LVL743:
.L522:
	.loc 3 219 0
	lwz 9,20(1)
	.loc 4 278 0
	slwi 29,30,2
	.loc 3 219 0
	lwzx 28,9,29
	add 9,9,29
	cmpwi 7,28,0
	beq- 7,.L519
.LVL744:
.LBB4697:
.LBB4698:
.LBB4699:
.LBB4700:
.LBB4701:
.LBB4702:
	.loc 9 501 0
	mr 3,28
	bl _ZN5idStr8FreeDataEv
.LVL745:
.LBE4702:
.LBE4701:
.LBE4700:
.LBE4699:
.LBE4698:
.LBE4697:
	.loc 3 219 0
	mr 3,28
	bl _ZdlPv
	lwz 9,20(1)
	add 9,9,29
.LVL746:
.L519:
	.loc 3 220 0
	stw 27,0(9)
	.loc 3 218 0
	addi 30,30,1
.LVL747:
	lwz 0,8(1)
	cmpw 7,30,0
	blt+ 7,.L522
	b .L628
.LVL748:
.L769:
.LBE4696:
.LBE4695:
.LBB4703:
.LBB4584:
.LBB4569:
.LBB4565:
.LBB4562:
.LBB4558:
	.loc 3 380 0
	slwi 10,10,2
	add 28,28,10
	b .L559
.LVL749:
.L551:
.LBE4558:
.LBE4562:
.LBE4565:
.LBE4569:
	.loc 3 656 0
	lwz 3,16(1)
.LBB4570:
.LBB4571:
	.loc 3 375 0
	cmpwi 7,3,0
.LBE4571:
.LBE4570:
	.loc 3 656 0
	mr 9,3
.LVL750:
.LBB4576:
.LBB4574:
	.loc 3 375 0
	ble- 7,.L775
	.loc 3 380 0
	lwz 0,12(1)
	cmpw 7,3,0
	beq- 7,.L776
.LVL751:
	.loc 3 387 0
	lwz 0,8(1)
	.loc 3 386 0
	stw 3,12(1)
	.loc 3 387 0
	cmpw 7,3,0
	bge- 7,.L556
	.loc 3 388 0
	stw 3,8(1)
.L556:
	.loc 3 392 0
	slwi 3,3,2
	bl _Znaj
.LVL752:
	.loc 3 393 0
	lwz 0,8(1)
	.loc 3 392 0
	mr 28,3
	stw 3,20(1)
.LVL753:
	.loc 3 393 0
	li 9,0
	cmpwi 7,0,0
	li 11,0
	bgt+ 7,.L727
	b .L787
.LVL754:
.L778:
	lwz 28,20(1)
.LVL755:
.L727:
	.loc 3 394 0
	lwz 0,0(9)
	.loc 3 393 0
	addi 11,11,1
.LVL756:
	.loc 3 394 0
	stwx 0,28,9
	.loc 3 393 0
	addi 9,9,4
	lwz 0,8(1)
	cmpw 7,11,0
	blt+ 7,.L778
	lwz 9,12(1)
	lwz 28,20(1)
	b .L552
.LVL757:
.L595:
.LBE4574:
.LBE4576:
.LBE4584:
.LBE4703:
.LBB4704:
.LBB4401:
.LBB4388:
.LBB4343:
.LBB4334:
.LBB4319:
.LBB4311:
.LBB4303:
.LBB4304:
	.loc 6 781 0
	lwz 9,252(1)
	rlwinm 0,9,0,1,31
.LVL758:
.LBE4304:
.LBE4303:
	.loc 5 592 0
	stw 0,264(1)
	lfs 7,264(1)
	fcmpu 7,7,0
	bne- 7,.L587
	.loc 5 593 0
	stw 23,264(1)
	lfs 12,256(1)
	lfs 0,264(1)
	fcmpu 7,12,0
	bne- 7,.L597
	lfs 7,248(1)
	fcmpu 7,7,0
	beq- 7,.L587
.L597:
	.loc 5 594 0
	stw 23,36(30)
	stw 23,32(30)
	b .L587
.LVL759:
.L627:
.LBE4311:
.LBE4319:
.LBE4334:
.LBE4343:
.LBE4388:
.LBE4401:
.LBE4704:
.LBE4815:
	.loc 4 396 0
	li 3,72
	bl _Znwj
.LEHE69:
.LBB4816:
.LBB4817:
.LBB4818:
.LBB4819:
	.loc 7 61 0
	lis 9,_ZTV14idMapPrimitive+8@ha
.LBB4820:
.LBB4821:
.LBB4822:
.LBB4823:
.LBB4824:
.LBB4825:
	.loc 3 197 0
	li 0,0
.LBE4825:
.LBE4824:
.LBE4823:
.LBE4822:
.LBE4821:
.LBE4820:
	.loc 7 61 0
	la 9,_ZTV14idMapPrimitive+8@l(9)
.LBB4885:
.LBB4878:
	.loc 10 163 0
	addi 28,3,20
.LBE4878:
.LBE4885:
	.loc 7 61 0
	stw 9,0(3)
.LBB4886:
.LBB4879:
.LBB4836:
.LBB4832:
	.loc 3 159 0
	li 9,16
	stw 9,12(3)
.LBE4832:
.LBE4836:
.LBE4879:
.LBE4886:
.LBE4819:
.LBE4818:
.LBE4817:
.LBE4816:
	.loc 4 396 0
	mr 30,3
.LVL760:
.LBB4922:
.LBB4918:
.LBB4896:
.LBB4892:
.LBB4887:
.LBB4880:
.LBB4837:
.LBB4833:
.LBB4829:
.LBB4826:
	.loc 3 197 0
	stw 0,16(3)
.LBE4826:
.LBE4829:
.LBE4833:
.LBE4837:
.LBB4838:
.LBB4839:
	.loc 11 112 0
	li 4,1024
.LBE4839:
.LBE4838:
.LBB4843:
.LBB4834:
.LBB4830:
.LBB4827:
	.loc 3 198 0
	stw 0,4(3)
.LBE4827:
.LBE4830:
.LBE4834:
.LBE4843:
.LBB4844:
.LBB4840:
	.loc 11 112 0
	li 5,1024
.LBE4840:
.LBE4844:
.LBB4845:
.LBB4835:
.LBB4831:
.LBB4828:
	.loc 3 199 0
	stw 0,8(3)
.LBE4828:
.LBE4831:
.LBE4835:
.LBE4845:
.LBB4846:
.LBB4841:
	.loc 11 112 0
	mr 3,28
.LVL761:
.LBE4841:
.LBE4846:
.LBE4880:
.LBE4887:
	.loc 7 61 0
	addi 25,30,4
.LVL762:
.LEHB70:
.LBB4888:
.LBB4881:
.LBB4847:
.LBB4842:
	.loc 11 112 0
	bl _ZN11idHashIndex4InitEii
.LEHE70:
.LVL763:
.LBE4842:
.LBE4847:
.LBB4848:
.LBB4849:
	.loc 3 319 0
	lwz 29,16(30)
.LVL764:
	.loc 3 317 0
	li 0,16
	stw 0,12(30)
	.loc 3 319 0
	cmpwi 7,29,0
	beq- 7,.L634
	.loc 3 321 0
	lwz 9,4(30)
	.loc 3 323 0
	lwz 0,8(30)
	.loc 3 321 0
	addi 3,9,15
.LVL765:
	.loc 3 322 0
	srawi 3,3,4
	addze 3,3
.LVL766:
	slwi 3,3,4
.LVL767:
	.loc 3 323 0
	cmpw 7,3,0
	beq- 7,.L634
.LVL768:
.LBB4850:
.LBB4851:
	.loc 3 375 0
	cmpwi 7,3,0
	ble- 7,.L779
.LVL769:
	.loc 3 387 0
	cmpw 7,9,3
	.loc 3 386 0
	stw 3,8(30)
	.loc 3 387 0
	ble- 7,.L636
	.loc 3 388 0
	stw 3,4(30)
.L636:
	.loc 3 392 0
	slwi 3,3,3
.LVL770:
.LEHB71:
	bl _Znaj
.LVL771:
	.loc 3 393 0
	lwz 0,4(30)
	.loc 3 392 0
	stw 3,16(30)
.LVL772:
	.loc 3 393 0
	cmpwi 7,0,0
	ble- 7,.L637
	.loc 4 278 0
	addi 8,29,-8
.LBE4851:
.LBE4850:
.LBE4849:
.LBE4848:
.LBE4881:
.LBE4888:
.LBE4892:
.LBE4896:
.LBE4918:
.LBE4922:
.LBB4923:
.LBB4809:
	.loc 3 393 0
	li 9,0
	b .L638
.LVL773:
.L780:
.LBE4809:
.LBE4923:
.LBB4924:
.LBB4919:
.LBB4897:
.LBB4893:
.LBB4889:
.LBB4882:
.LBB4860:
.LBB4858:
.LBB4856:
.LBB4854:
	lwz 3,16(30)
.LVL774:
.L638:
	.loc 3 394 0
	addi 8,8,8
	slwi 0,9,3
	lwz 10,0(8)
	add 3,3,0
	lwz 11,4(8)
	.loc 3 393 0
	addi 9,9,1
.LVL775:
	.loc 3 394 0
	stw 10,0(3)
	stw 11,4(3)
	.loc 3 393 0
	lwz 0,0(25)
	cmpw 7,9,0
	blt+ 7,.L780
.LVL776:
.L637:
	.loc 3 399 0
	mr 3,29
	bl _ZdaPv
.LVL777:
.L634:
.LBE4854:
.LBE4856:
.LBE4858:
.LBE4860:
.LBB4861:
.LBB4862:
	.loc 11 371 0
	li 0,16
.LBE4862:
.LBE4861:
.LBB4864:
.LBB4865:
	.loc 11 341 0
	mr 3,28
.LBE4865:
.LBE4864:
.LBB4868:
.LBB4863:
	.loc 11 371 0
	stw 0,36(30)
.LVL778:
.LBE4863:
.LBE4868:
.LBB4869:
.LBB4866:
	.loc 11 341 0
	bl _ZN11idHashIndex4FreeEv
.LEHE71:
	.loc 11 342 0
	li 9,128
.LBE4866:
.LBE4869:
.LBE4882:
.LBE4889:
.LBE4893:
.LBE4897:
.LBB4898:
.LBB4899:
.LBB4900:
	.loc 3 197 0
	li 0,0
.LBE4900:
.LBE4899:
.LBE4898:
.LBB4905:
.LBB4894:
.LBB4890:
.LBB4883:
.LBB4870:
.LBB4867:
	.loc 11 342 0
	stw 9,20(30)
	.loc 11 343 0
	li 9,16
	stw 9,28(30)
.LBE4867:
.LBE4870:
.LBE4883:
.LBE4890:
.LBE4894:
.LBE4905:
	.loc 7 101 0
	lis 9,_ZTV10idMapBrush+8@ha
.LBB4906:
.LBB4903:
.LBB4901:
	.loc 3 197 0
	stw 0,68(30)
.LBE4901:
.LBE4903:
.LBE4906:
	.loc 7 101 0
	la 9,_ZTV10idMapBrush+8@l(9)
.LBB4907:
.LBB4904:
.LBB4902:
	.loc 3 198 0
	stw 0,56(30)
.LBE4902:
.LBE4904:
.LBE4907:
.LBB4908:
.LBB4909:
	.loc 3 434 0
	li 3,32
.LBE4909:
.LBE4908:
	.loc 7 101 0
	stw 0,48(30)
.LBB4912:
.LBB4910:
	.loc 3 419 0
	li 0,4
	stw 0,64(30)
	.loc 3 428 0
	li 0,8
.LBE4910:
.LBE4912:
	.loc 7 101 0
	stw 9,0(30)
.LVL779:
.LBB4913:
.LBB4911:
	.loc 3 428 0
	stw 0,60(30)
.LEHB72:
	.loc 3 434 0
	bl _Znaj
.LEHE72:
	.loc 3 435 0
	lwz 9,56(30)
	li 11,0
	.loc 3 434 0
	stw 3,68(30)
.LVL780:
	.loc 3 435 0
	li 10,0
	cmpwi 7,9,0
	bgt+ 7,.L646
	b .L645
.LVL781:
.L781:
	lwz 3,68(30)
.LVL782:
.L646:
	.loc 3 436 0
	lwz 0,0(11)
	.loc 3 435 0
	addi 10,10,1
.LVL783:
	.loc 3 436 0
	stwx 0,3,11
	.loc 3 435 0
	addi 11,11,4
	lwz 9,56(30)
	cmpw 7,10,9
	blt+ 7,.L781
.LVL784:
.L645:
.LBE4911:
.LBE4913:
.LBE4919:
.LBE4924:
	.loc 4 397 0 discriminator 1
	lwz 0,8(1)
	li 28,0
.LVL785:
	addi 27,30,56
.LBB4925:
.LBB4926:
.LBB4927:
.LBB4928:
.LBB4929:
.LBB4930:
	.loc 3 393 0 discriminator 1
	li 22,0
.LBE4930:
.LBE4929:
.LBE4928:
.LBE4927:
.LBE4926:
.LBE4925:
	.loc 4 397 0 discriminator 1
	cmpwi 7,0,0
.LBB4983:
.LBB4974:
.LBB4965:
.LBB4956:
.LBB4937:
.LBB4938:
	.loc 3 663 0 discriminator 1
	li 23,16
.LBE4938:
.LBE4937:
.LBE4956:
.LBE4965:
.LBE4974:
.LBE4983:
	.loc 4 397 0 discriminator 1
	ble- 7,.L648
.LVL786:
.L715:
.LBB4984:
.LBB4975:
.LBB4966:
.LBB4957:
	.loc 3 655 0
	lwz 29,68(30)
.LBE4957:
.LBE4966:
.LBE4975:
.LBE4984:
	.loc 4 398 0
	slwi 0,28,2
	lwz 11,20(1)
.LBB4985:
.LBB4976:
.LBB4967:
.LBB4958:
	.loc 3 655 0
	cmpwi 7,29,0
.LBE4958:
.LBE4967:
.LBE4976:
.LBE4985:
	.loc 4 398 0
	lwzx 26,11,0
.LVL787:
.LBB4986:
.LBB4977:
.LBB4968:
.LBB4959:
	.loc 3 655 0
	beq- 7,.L651
.LVL788:
.L744:
.LBB4949:
.LBB4933:
	.loc 3 393 0
	lwz 0,60(30)
.L652:
.LBE4933:
.LBE4949:
.LBB4950:
	.loc 3 659 0
	cmpw 7,0,9
	beq- 7,.L698
	slwi 9,9,2
	add 29,29,9
.L659:
.LBE4950:
	.loc 3 669 0
	stw 26,0(29)
.LBE4959:
.LBE4968:
.LBE4977:
.LBE4986:
	.loc 4 397 0
	addi 28,28,1
.LVL789:
	lwz 0,8(1)
.LBB4987:
.LBB4978:
.LBB4969:
.LBB4960:
	.loc 3 670 0
	lwz 9,56(30)
.LBE4960:
.LBE4969:
.LBE4978:
.LBE4987:
	.loc 4 397 0
	cmpw 7,0,28
.LBB4988:
.LBB4979:
.LBB4970:
.LBB4961:
	.loc 3 670 0
	addi 9,9,1
	stw 9,56(30)
.LBE4961:
.LBE4970:
.LBE4979:
.LBE4988:
	.loc 4 397 0
	bgt+ 7,.L715
.LVL790:
.L648:
	.loc 4 401 0
	mr 3,25
	mr 4,24
.LEHB73:
	bl _ZN6idDictaSERKS_
	b .L516
.LVL791:
.L651:
.LBB4989:
.LBB4980:
.LBB4971:
.LBB4962:
	.loc 3 656 0
	lwz 0,64(30)
.LBB4951:
.LBB4934:
	.loc 3 375 0
	cmpwi 7,0,0
.LBE4934:
.LBE4951:
	.loc 3 656 0
	mr 3,0
.LVL792:
.LBB4952:
.LBB4935:
	.loc 3 375 0
	ble- 7,.L782
	.loc 3 380 0
	lwz 11,60(30)
	cmpw 7,0,11
	beq- 7,.L652
.LVL793:
	.loc 3 387 0
	cmpw 7,0,9
	.loc 3 386 0
	stw 0,60(30)
	.loc 3 387 0
	bge- 7,.L656
	.loc 3 388 0
	stw 0,56(30)
.L656:
	.loc 3 392 0
	slwi 3,3,2
	bl _Znaj
.LVL794:
	.loc 3 393 0
	lwz 9,56(30)
	.loc 3 392 0
	mr 29,3
	stw 3,68(30)
.LVL795:
	.loc 3 393 0
	li 11,0
	cmpwi 7,9,0
	li 10,0
	bgt+ 7,.L729
	b .L744
.LVL796:
.L783:
	lwz 29,68(30)
.LVL797:
.L729:
	.loc 3 394 0
	lwz 0,0(11)
	.loc 3 393 0
	addi 10,10,1
.LVL798:
	.loc 3 394 0
	stwx 0,29,11
	.loc 3 393 0
	addi 11,11,4
	lwz 9,0(27)
	cmpw 7,10,9
	blt+ 7,.L783
	lwz 0,60(30)
	lwz 29,68(30)
	b .L652
.LVL799:
.L698:
	lwz 3,64(30)
.LBE4935:
.LBE4952:
.LBB4953:
	.loc 3 659 0
	mr 10,0
.L654:
.LBB4947:
	.loc 3 662 0
	cmpwi 7,3,0
	mr 9,3
	bne- 7,.L660
	.loc 3 663 0
	stw 23,64(30)
	li 9,16
.L660:
	.loc 3 665 0
	add 11,0,9
.LVL800:
	.loc 3 666 0
	divw 11,11,9
.LVL801:
.LBB4939:
.LBB4940:
	.loc 3 375 0
	mullw. 9,11,9
.LVL802:
	ble- 0,.L784
	.loc 3 380 0
	cmpw 7,0,9
	beq- 7,.L785
.LVL803:
	.loc 3 387 0
	cmpw 7,9,10
	.loc 3 386 0
	stw 9,60(30)
	.loc 3 387 0
	bge- 7,.L664
	.loc 3 388 0
	stw 9,56(30)
.L664:
	.loc 3 392 0
	slwi 3,9,2
	bl _Znaj
.LVL804:
	.loc 3 393 0
	lwz 0,56(30)
	.loc 3 392 0
	stw 3,68(30)
.LVL805:
	.loc 3 393 0
	cmpwi 7,0,0
	ble- 7,.L665
	.loc 4 278 0
	addi 11,29,-4
.LBE4940:
.LBE4939:
	.loc 3 393 0
	li 9,0
	b .L666
.LVL806:
.L786:
.LBB4945:
.LBB4943:
	lwz 3,68(30)
.LVL807:
.L666:
	.loc 3 394 0
	lwzu 10,4(11)
	slwi 0,9,2
	.loc 3 393 0
	addi 9,9,1
.LVL808:
	.loc 3 394 0
	stwx 10,3,0
	.loc 3 393 0
	lwz 0,0(27)
	cmpw 7,9,0
	blt+ 7,.L786
.LVL809:
.L665:
	.loc 3 398 0
	cmpwi 7,29,0
	beq- 7,.L745
	.loc 3 399 0
	mr 3,29
	bl _ZdaPv
.L745:
	lwz 0,56(30)
	lwz 29,68(30)
.LVL810:
	slwi 0,0,2
	add 29,29,0
	b .L659
.LVL811:
.L785:
	.loc 3 380 0
	slwi 10,10,2
	add 29,29,10
	b .L659
.LVL812:
.L768:
.LBE4943:
.LBE4945:
.LBE4947:
.LBE4953:
.LBE4962:
.LBE4971:
.LBE4980:
.LBE4989:
.LBB4990:
.LBB4705:
.LBB4585:
.LBB4577:
.LBB4566:
.LBB4563:
.LBB4559:
.LBB4554:
.LBB4555:
	.loc 3 193 0
	cmpwi 7,28,0
	beq- 7,.L562
	.loc 3 194 0
	mr 3,28
	bl _ZdaPv
.LVL813:
.L562:
	.loc 3 197 0
	li 0,0
	.loc 3 199 0
	li 28,0
	.loc 3 197 0
	stw 0,20(1)
	.loc 3 198 0
	stw 0,8(1)
	.loc 3 199 0
	stw 0,12(1)
	b .L559
.LVL814:
.L784:
.LBE4555:
.LBE4554:
.LBE4559:
.LBE4563:
.LBE4566:
.LBE4577:
.LBE4585:
.LBE4705:
.LBE4990:
.LBB4991:
.LBB4981:
.LBB4972:
.LBB4963:
.LBB4954:
.LBB4948:
.LBB4946:
.LBB4944:
.LBB4941:
.LBB4942:
	.loc 3 193 0
	cmpwi 7,29,0
	beq- 7,.L662
	.loc 3 194 0
	mr 3,29
	bl _ZdaPv
.LVL815:
.L662:
	.loc 3 197 0
	stw 22,68(30)
	.loc 3 199 0
	li 29,0
	.loc 3 198 0
	stw 22,56(30)
	.loc 3 199 0
	stw 22,60(30)
	b .L659
.LVL816:
.L733:
.LBE4942:
.LBE4941:
.LBE4944:
.LBE4946:
.LBE4948:
.LBE4954:
.LBE4963:
.LBE4972:
.LBE4981:
.LBE4991:
.LBB4992:
.LBB4706:
.LBB4402:
.LBB4389:
.LBB4344:
.LBB4335:
.LBB4320:
.LBB4312:
	.loc 5 557 0
	lfs 0,.LC52@l(16)
	lfs 7,248(1)
	fcmpu 7,7,0
	beq- 7,.L587
	.loc 5 558 0
	stfs 0,36(30)
	b .L587
.L734:
	.loc 5 572 0
	lfs 0,.LC52@l(16)
	lfs 7,256(1)
	fcmpu 7,7,0
	beq- 7,.L587
	.loc 5 573 0
	stfs 0,32(30)
	b .L587
.LVL817:
.L765:
.LBE4312:
.LBE4320:
.LBE4335:
.LBE4344:
.LBE4389:
.LBE4402:
.LBE4706:
	.loc 4 370 0
	lis 4,.LC54@ha
	mr 3,29
	la 4,.LC54@l(4)
	crxor 6,6,6
	bl _ZN7idLexer5ErrorEPKcz
.LVL818:
.LBB4707:
.LBB4708:
	.loc 3 218 0
	lwz 0,8(1)
	cmpwi 7,0,0
	ble- 7,.L628
	li 30,0
.LVL819:
	.loc 3 220 0
	li 27,0
.LVL820:
.L610:
	.loc 3 219 0
	lwz 9,20(1)
	.loc 4 278 0
	slwi 29,30,2
	.loc 3 219 0
	lwzx 28,9,29
	add 9,9,29
	cmpwi 7,28,0
	beq- 7,.L607
.LVL821:
.LBB4709:
.LBB4710:
.LBB4711:
.LBB4712:
.LBB4713:
.LBB4714:
	.loc 9 501 0
	mr 3,28
	bl _ZN5idStr8FreeDataEv
.LVL822:
.LBE4714:
.LBE4713:
.LBE4712:
.LBE4711:
.LBE4710:
.LBE4709:
	.loc 3 219 0
	mr 3,28
	bl _ZdlPv
	lwz 9,20(1)
	add 9,9,29
.LVL823:
.L607:
	.loc 3 220 0
	stw 27,0(9)
	.loc 3 218 0
	addi 30,30,1
.LVL824:
	lwz 0,8(1)
	cmpw 7,30,0
	blt+ 7,.L610
	b .L628
.LVL825:
.L764:
.LBE4708:
.LBE4707:
	.loc 4 362 0
	lis 4,.LC53@ha
	mr 3,29
	la 4,.LC53@l(4)
	crxor 6,6,6
	bl _ZN7idLexer5ErrorEPKcz
.LVL826:
.LBB4715:
.LBB4716:
	.loc 3 218 0
	lwz 0,8(1)
	cmpwi 7,0,0
	ble- 7,.L628
	li 30,0
.LVL827:
	.loc 3 220 0
	li 27,0
.LVL828:
.L603:
	.loc 3 219 0
	lwz 9,20(1)
	.loc 4 278 0
	slwi 29,30,2
	.loc 3 219 0
	lwzx 28,9,29
	add 9,9,29
	cmpwi 7,28,0
	beq- 7,.L600
.LVL829:
.LBB4717:
.LBB4718:
.LBB4719:
.LBB4720:
.LBB4721:
.LBB4722:
	.loc 9 501 0
	mr 3,28
	bl _ZN5idStr8FreeDataEv
.LVL830:
.LBE4722:
.LBE4721:
.LBE4720:
.LBE4719:
.LBE4718:
.LBE4717:
	.loc 3 219 0
	mr 3,28
	bl _ZdlPv
	lwz 9,20(1)
	add 9,9,29
.LVL831:
.L600:
	.loc 3 220 0
	stw 27,0(9)
	.loc 3 218 0
	addi 30,30,1
.LVL832:
	lwz 0,8(1)
	cmpw 7,30,0
	blt+ 7,.L603
	b .L628
.LVL833:
.L763:
.LBE4716:
.LBE4715:
	.loc 4 338 0
	lis 4,.LC50@ha
	mr 3,29
	la 4,.LC50@l(4)
	crxor 6,6,6
	bl _ZN7idLexer5ErrorEPKcz
.LVL834:
.LBB4723:
.LBB4724:
	.loc 3 218 0
	lwz 0,8(1)
	cmpwi 7,0,0
	ble- 7,.L628
	li 30,0
.LVL835:
	.loc 3 220 0
	li 27,0
.LVL836:
.L574:
	.loc 3 219 0
	lwz 9,20(1)
	.loc 4 278 0
	slwi 29,30,2
	.loc 3 219 0
	lwzx 28,9,29
	add 9,9,29
	cmpwi 7,28,0
	beq- 7,.L571
.LVL837:
.LBB4725:
.LBB4726:
.LBB4727:
.LBB4728:
.LBB4729:
.LBB4730:
	.loc 9 501 0
	mr 3,28
	bl _ZN5idStr8FreeDataEv
.LEHE73:
.LVL838:
.LBE4730:
.LBE4729:
.LBE4728:
.LBE4727:
.LBE4726:
.LBE4725:
	.loc 3 219 0
	mr 3,28
	bl _ZdlPv
	lwz 9,20(1)
	add 9,9,29
.LVL839:
.L571:
	.loc 3 220 0
	stw 27,0(9)
	.loc 3 218 0
	addi 30,30,1
.LVL840:
	lwz 0,8(1)
	cmpw 7,30,0
	blt+ 7,.L574
	b .L628
.LVL841:
.L776:
.LBE4724:
.LBE4723:
.LBB4731:
.LBB4586:
.LBB4578:
.LBB4575:
	.loc 3 380 0
	lwz 0,8(1)
	b .L552
.LVL842:
.L787:
	.loc 3 393 0
	lwz 9,12(1)
	b .L552
.LVL843:
.L775:
.LBB4572:
.LBB4573:
	.loc 3 198 0
	stw 28,8(1)
	.loc 3 199 0
	li 0,0
	stw 28,12(1)
	li 10,0
	b .L554
.LVL844:
.L782:
.LBE4573:
.LBE4572:
.LBE4575:
.LBE4578:
.LBE4586:
.LBE4731:
.LBE4992:
.LBB4993:
.LBB4982:
.LBB4973:
.LBB4964:
.LBB4955:
.LBB4936:
.LBB4931:
.LBB4932:
	.loc 3 198 0
	stw 29,56(30)
	.loc 3 199 0
	li 10,0
	stw 29,60(30)
	li 0,0
.LVL845:
	b .L654
.LVL846:
.L709:
	mr 30,3
.LVL847:
.LBE4932:
.LBE4931:
.LBE4936:
.LBE4955:
.LBE4964:
.LBE4973:
.LBE4982:
.LBE4993:
.LBB4994:
.LBB4766:
.LBB4763:
.LBB4755:
.LBB4756:
.LBB4757:
	.loc 11 130 0
	addi 3,1,140
.LVL848:
	bl _ZN11idHashIndex4FreeEv
.LVL849:
.L673:
.LBE4757:
.LBE4756:
.LBE4755:
.LBB4758:
.LBB4759:
.LBB4760:
	.loc 3 181 0
	mr 3,24
	bl _ZN6idListI10idKeyValueE5ClearEv
.LVL850:
.L515:
.LBE4760:
.LBE4759:
.LBE4758:
.LBE4763:
.LBE4766:
.LBE4994:
.LBB4995:
.LBB4996:
.LBB4997:
	addi 3,1,8
	bl _ZN6idListIP14idMapBrushSideE5ClearEv
.LVL851:
.LBE4997:
.LBE4996:
.LBE4995:
.LBB4998:
.LBB4999:
.LBB5000:
.LBB5001:
.LBB5002:
	.loc 9 501 0
	mr 3,31
	bl _ZN5idStr8FreeDataEv
	mr 3,30
.LEHB74:
	bl _Unwind_Resume
.LEHE74:
.LVL852:
.L705:
	mr 29,3
.LVL853:
.LBE5002:
.LBE5001:
.LBE5000:
.LBE4999:
.LBE4998:
.LBB5003:
.LBB4920:
.LBB4914:
.LBB4915:
.LBB4916:
	.loc 3 181 0
	addi 3,30,56
	bl _ZN6idListIP14idMapBrushSideE5ClearEv
.LBE4916:
.LBE4915:
.LBE4914:
	.loc 7 101 0
	mr 3,30
	bl _ZN14idMapPrimitiveD2Ev
.LVL854:
.L644:
.LBE4920:
.LBE5003:
	.loc 4 396 0
	mr 3,30
	mr 30,29
.LVL855:
	bl _ZdlPv
.LVL856:
.L621:
	.loc 4 403 0
	mr 3,24
	bl _ZN6idDictD1Ev
	b .L515
.LVL857:
.L707:
	mr 29,3
.LVL858:
.LBB5004:
.LBB4921:
.LBB4917:
.LBB4895:
.LBB4891:
.LBB4884:
.LBB4871:
.LBB4872:
.LBB4873:
	.loc 11 130 0
	mr 3,28
	bl _ZN11idHashIndex4FreeEv
.LVL859:
.L642:
.LBE4873:
.LBE4872:
.LBE4871:
.LBB4874:
.LBB4875:
.LBB4876:
	.loc 3 181 0
	mr 3,25
	bl _ZN6idListI10idKeyValueE5ClearEv
	b .L644
.LVL860:
.L779:
.LBE4876:
.LBE4875:
.LBE4874:
.LBB4877:
.LBB4859:
.LBB4857:
.LBB4855:
.LBB4852:
.LBB4853:
	.loc 3 194 0
	mr 3,29
.LVL861:
	bl _ZdaPv
	.loc 3 197 0
	li 0,0
	stw 0,16(30)
	.loc 3 198 0
	stw 0,4(30)
	.loc 3 199 0
	stw 0,8(30)
	b .L634
.LVL862:
.L706:
	mr 29,3
.LVL863:
	b .L642
.LVL864:
.L702:
	mr 30,3
.L513:
.LVL865:
.LBE4853:
.LBE4852:
.LBE4855:
.LBE4857:
.LBE4859:
.LBE4877:
.LBE4884:
.LBE4891:
.LBE4895:
.LBE4917:
.LBE4921:
.LBE5004:
.LBB5005:
.LBB4247:
.LBB4248:
.LBB4249:
	.loc 3 181 0
	addi 3,1,124
	addi 31,1,168
	bl _ZN6idListI10idKeyValueE5ClearEv
	b .L515
.LVL866:
.L701:
	mr 30,3
.LVL867:
.LBE4249:
.LBE4248:
.LBE4247:
.LBE5005:
.LBB5006:
.LBB4732:
.LBB4733:
.LBB4734:
	.loc 9 501 0
	addi 3,1,24
	bl _ZN5idStr8FreeDataEv
	b .L621
.LVL868:
.L704:
	mr 30,3
.LVL869:
.LBE4734:
.LBE4733:
.LBE4732:
.LBB4735:
.LBB4473:
.LBB4467:
.LBB4468:
.LBB4469:
	addi 3,1,24
	bl _ZN5idStr8FreeDataEv
	b .L621
.LVL870:
.L699:
	mr 30,3
	b .L621
.LVL871:
.L700:
	mr 30,3
.LVL872:
.LBE4469:
.LBE4468:
.LBE4467:
.LBE4473:
.LBE4735:
.LBB4736:
.LBB4542:
.LBB4543:
.LBB4544:
	addi 3,1,56
	bl _ZN5idStr8FreeDataEv
	b .L621
.LVL873:
.L703:
	mr 30,3
.LVL874:
.LBE4544:
.LBE4543:
.LBE4542:
.LBE4736:
.LBE5006:
.LBB5007:
.LBB4250:
.LBB4251:
.LBB4252:
	.loc 11 130 0
	addi 3,1,140
.LVL875:
	bl _ZN11idHashIndex4FreeEv
.LVL876:
	b .L513
.LVL877:
.L708:
	mr 30,3
	b .L673
.LBE4252:
.LBE4251:
.LBE4250:
.LBE5007:
.LBE5013:
	.cfi_endproc
.LFE2545:
	.section	.gcc_except_table
.LLSDA2545:
	.byte	0xff
	.byte	0xff
	.byte	0x1
	.uleb128 .LLSDACSE2545-.LLSDACSB2545
.LLSDACSB2545:
	.uleb128 .LEHB54-.LFB2545
	.uleb128 .LEHE54-.LEHB54
	.uleb128 .L702-.LFB2545
	.uleb128 0
	.uleb128 .LEHB55-.LFB2545
	.uleb128 .LEHE55-.LEHB55
	.uleb128 .L703-.LFB2545
	.uleb128 0
	.uleb128 .LEHB56-.LFB2545
	.uleb128 .LEHE56-.LEHB56
	.uleb128 .L699-.LFB2545
	.uleb128 0
	.uleb128 .LEHB57-.LFB2545
	.uleb128 .LEHE57-.LEHB57
	.uleb128 .L700-.LFB2545
	.uleb128 0
	.uleb128 .LEHB58-.LFB2545
	.uleb128 .LEHE58-.LEHB58
	.uleb128 .L699-.LFB2545
	.uleb128 0
	.uleb128 .LEHB59-.LFB2545
	.uleb128 .LEHE59-.LEHB59
	.uleb128 .L709-.LFB2545
	.uleb128 0
	.uleb128 .LEHB60-.LFB2545
	.uleb128 .LEHE60-.LEHB60
	.uleb128 .L708-.LFB2545
	.uleb128 0
	.uleb128 .LEHB61-.LFB2545
	.uleb128 .LEHE61-.LEHB61
	.uleb128 0
	.uleb128 0
	.uleb128 .LEHB62-.LFB2545
	.uleb128 .LEHE62-.LEHB62
	.uleb128 .L700-.LFB2545
	.uleb128 0
	.uleb128 .LEHB63-.LFB2545
	.uleb128 .LEHE63-.LEHB63
	.uleb128 .L699-.LFB2545
	.uleb128 0
	.uleb128 .LEHB64-.LFB2545
	.uleb128 .LEHE64-.LEHB64
	.uleb128 .L700-.LFB2545
	.uleb128 0
	.uleb128 .LEHB65-.LFB2545
	.uleb128 .LEHE65-.LEHB65
	.uleb128 .L699-.LFB2545
	.uleb128 0
	.uleb128 .LEHB66-.LFB2545
	.uleb128 .LEHE66-.LEHB66
	.uleb128 .L701-.LFB2545
	.uleb128 0
	.uleb128 .LEHB67-.LFB2545
	.uleb128 .LEHE67-.LEHB67
	.uleb128 .L699-.LFB2545
	.uleb128 0
	.uleb128 .LEHB68-.LFB2545
	.uleb128 .LEHE68-.LEHB68
	.uleb128 .L704-.LFB2545
	.uleb128 0
	.uleb128 .LEHB69-.LFB2545
	.uleb128 .LEHE69-.LEHB69
	.uleb128 .L699-.LFB2545
	.uleb128 0
	.uleb128 .LEHB70-.LFB2545
	.uleb128 .LEHE70-.LEHB70
	.uleb128 .L706-.LFB2545
	.uleb128 0
	.uleb128 .LEHB71-.LFB2545
	.uleb128 .LEHE71-.LEHB71
	.uleb128 .L707-.LFB2545
	.uleb128 0
	.uleb128 .LEHB72-.LFB2545
	.uleb128 .LEHE72-.LEHB72
	.uleb128 .L705-.LFB2545
	.uleb128 0
	.uleb128 .LEHB73-.LFB2545
	.uleb128 .LEHE73-.LEHB73
	.uleb128 .L699-.LFB2545
	.uleb128 0
	.uleb128 .LEHB74-.LFB2545
	.uleb128 .LEHE74-.LEHB74
	.uleb128 0
	.uleb128 0
.LLSDACSE2545:
	.section	".text"
	.size	_ZN10idMapBrush5ParseER7idLexerRK6idVec3bf, .-_ZN10idMapBrush5ParseER7idLexerRK6idVec3bf
	.section	.text._ZN10idMapBrushD0Ev,"axG",@progbits,_ZN10idMapBrushD5Ev,comdat
	.align 2
	.weak	_ZN10idMapBrushD0Ev
	.type	_ZN10idMapBrushD0Ev, @function
_ZN10idMapBrushD0Ev:
.LFB2093:
	.loc 7 102 0
	.cfi_startproc
	.cfi_personality 0,__gxx_personality_v0
	.cfi_lsda 0,.LLSDA2093
.LVL878:
	mflr 0
	stwu 1,-32(1)
.LCFI84:
	.cfi_def_cfa_offset 32
	.cfi_register 65, 0
.LBB5065:
.LBB5066:
.LBB5067:
	lis 9,_ZTV10idMapBrush+8@ha
.LBE5067:
.LBE5066:
.LBE5065:
	stw 27,12(1)
.LBB5154:
.LBB5150:
.LBB5146:
	addi 27,3,56
	.cfi_offset 27, -20
.LBE5146:
.LBE5150:
.LBE5154:
	stw 28,16(1)
	mr 28,3
	.cfi_offset 28, -16
.LVL879:
	stw 0,36(1)
	stw 26,8(1)
	stw 29,20(1)
	stw 30,24(1)
	stw 31,28(1)
.LBB5155:
.LBB5151:
.LBB5147:
.LBB5068:
.LBB5069:
	.loc 3 218 0
	lwz 0,56(3)
	.cfi_offset 31, -4
	.cfi_offset 30, -8
	.cfi_offset 29, -12
	.cfi_offset 26, -24
	.cfi_offset 65, 4
	cmpwi 7,0,0
.LBE5069:
.LBE5068:
	.loc 7 102 0
	la 0,_ZTV10idMapBrush+8@l(9)
	stw 0,0(3)
.LBB5079:
.LBB5078:
	.loc 3 218 0
	ble- 7,.L789
	li 31,0
	.loc 3 220 0
	li 26,0
.LVL880:
.L793:
	.loc 3 219 0
	lwz 9,12(27)
	.loc 7 102 0
	slwi 30,31,2
	.loc 3 219 0
	lwzx 29,9,30
	add 9,9,30
	cmpwi 7,29,0
	beq- 7,.L790
.LVL881:
.LBB5070:
.LBB5071:
.LBB5072:
.LBB5073:
.LBB5074:
.LBB5075:
	.loc 9 501 0
	mr 3,29
.LEHB75:
	bl _ZN5idStr8FreeDataEv
.LEHE75:
.LVL882:
.LBE5075:
.LBE5074:
.LBE5073:
.LBE5072:
.LBE5071:
.LBE5070:
	.loc 3 219 0
	mr 3,29
	bl _ZdlPv
	lwz 9,68(28)
	add 9,9,30
.LVL883:
.L790:
	.loc 3 220 0
	stw 26,0(9)
	.loc 3 218 0
	addi 31,31,1
.LVL884:
	lwz 0,0(27)
	cmpw 7,31,0
	blt+ 7,.L793
.LVL885:
.L789:
.LBB5076:
.LBB5077:
	.loc 3 193 0
	lwz 3,68(28)
	cmpwi 7,3,0
	beq- 7,.L794
	.loc 3 194 0
	bl _ZdaPv
.L794:
.LVL886:
.LBE5077:
.LBE5076:
.LBE5078:
.LBE5079:
.LBB5080:
.LBB5081:
.LBB5082:
.LBB5083:
	.loc 3 197 0
	li 0,0
.LBE5083:
.LBE5082:
.LBE5081:
.LBE5080:
.LBB5093:
.LBB5094:
.LBB5095:
	.loc 7 62 0
	lis 9,_ZTV14idMapPrimitive+8@ha
.LBE5095:
.LBE5094:
.LBE5093:
.LBB5135:
.LBB5090:
.LBB5087:
.LBB5084:
	.loc 3 197 0
	stw 0,68(28)
.LBE5084:
.LBE5087:
.LBE5090:
.LBE5135:
.LBB5136:
.LBB5130:
.LBB5125:
	.loc 7 62 0
	addi 31,28,4
.LBE5125:
.LBE5130:
.LBE5136:
.LBB5137:
.LBB5091:
.LBB5088:
.LBB5085:
	.loc 3 198 0
	stw 0,56(28)
.LBE5085:
.LBE5088:
.LBE5091:
.LBE5137:
.LBB5138:
.LBB5131:
.LBB5126:
.LBB5096:
.LBB5097:
.LBB5098:
	.loc 10 174 0
	mr 3,31
.LBE5098:
.LBE5097:
.LBE5096:
.LBE5126:
.LBE5131:
.LBE5138:
.LBB5139:
.LBB5092:
.LBB5089:
.LBB5086:
	.loc 3 199 0
	stw 0,60(28)
.LVL887:
.LBE5086:
.LBE5089:
.LBE5092:
.LBE5139:
.LBB5140:
.LBB5132:
.LBB5127:
	.loc 7 62 0
	la 0,_ZTV14idMapPrimitive+8@l(9)
	stw 0,0(28)
.LVL888:
.LEHB76:
.LBB5122:
.LBB5119:
.LBB5116:
	.loc 10 174 0
	bl _ZN6idDict5ClearEv
.LEHE76:
.LVL889:
.LBB5099:
.LBB5100:
.LBB5101:
	.loc 11 130 0
	addi 3,28,20
.LEHB77:
	bl _ZN11idHashIndex4FreeEv
.LEHE77:
.LVL890:
.LBE5101:
.LBE5100:
.LBE5099:
.LBB5102:
.LBB5103:
.LBB5104:
.LBB5105:
	.loc 3 193 0
	lwz 3,16(28)
	cmpwi 7,3,0
	beq- 7,.L797
	.loc 3 194 0
	bl _ZdaPv
.L797:
	.loc 3 197 0
	li 0,0
.LBE5105:
.LBE5104:
.LBE5103:
.LBE5102:
.LBE5116:
.LBE5119:
.LBE5122:
.LBE5127:
.LBE5132:
.LBE5140:
.LBE5147:
.LBE5151:
.LBE5155:
	.loc 7 102 0
	mr 3,28
.LBB5156:
.LBB5152:
.LBB5148:
.LBB5141:
.LBB5133:
.LBB5128:
.LBB5123:
.LBB5120:
.LBB5117:
.LBB5109:
.LBB5108:
.LBB5107:
.LBB5106:
	.loc 3 197 0
	stw 0,16(28)
	.loc 3 198 0
	stw 0,4(28)
	.loc 3 199 0
	stw 0,8(28)
.LBE5106:
.LBE5107:
.LBE5108:
.LBE5109:
.LBE5117:
.LBE5120:
.LBE5123:
.LBE5128:
.LBE5133:
.LBE5141:
.LBE5148:
.LBE5152:
.LBE5156:
	.loc 7 102 0
	bl _ZdlPv
	lwz 0,36(1)
	lwz 26,8(1)
	mtlr 0
	lwz 27,12(1)
.LVL891:
	lwz 28,16(1)
.LVL892:
	lwz 29,20(1)
	lwz 30,24(1)
	lwz 31,28(1)
.LVL893:
	addi 1,1,32
	.cfi_remember_state
.LCFI85:
	.cfi_def_cfa_offset 0
	.cfi_restore 31
	.cfi_restore 30
	.cfi_restore 29
	.cfi_restore 28
	.cfi_restore 27
	.cfi_restore 26
	blr
.LVL894:
.L809:
.LCFI86:
	.cfi_restore_state
	mr 31,3
.LVL895:
.LBB5157:
.LBB5153:
.LBB5149:
.LBB5142:
.LBB5143:
.LBB5144:
	.loc 3 181 0
	mr 3,27
	bl _ZN6idListIP14idMapBrushSideE5ClearEv
.LBE5144:
.LBE5143:
.LBE5142:
	.loc 7 102 0
	mr 3,28
	bl _ZN14idMapPrimitiveD2Ev
	mr 3,31
.LEHB78:
	bl _Unwind_Resume
.LVL896:
.L810:
	mr 30,3
.LVL897:
.L801:
.LBB5145:
.LBB5134:
.LBB5129:
.LBB5124:
.LBB5121:
.LBB5118:
.LBB5110:
.LBB5111:
.LBB5112:
	.loc 3 181 0
	mr 3,31
	bl _ZN6idListI10idKeyValueE5ClearEv
	mr 3,30
	bl _Unwind_Resume
.LEHE78:
.L811:
	mr 30,3
.LVL898:
.LBE5112:
.LBE5111:
.LBE5110:
.LBB5113:
.LBB5114:
.LBB5115:
	.loc 11 130 0
	addi 3,28,20
	bl _ZN11idHashIndex4FreeEv
	b .L801
.LBE5115:
.LBE5114:
.LBE5113:
.LBE5118:
.LBE5121:
.LBE5124:
.LBE5129:
.LBE5134:
.LBE5145:
.LBE5149:
.LBE5153:
.LBE5157:
	.cfi_endproc
.LFE2093:
	.section	.gcc_except_table
.LLSDA2093:
	.byte	0xff
	.byte	0xff
	.byte	0x1
	.uleb128 .LLSDACSE2093-.LLSDACSB2093
.LLSDACSB2093:
	.uleb128 .LEHB75-.LFB2093
	.uleb128 .LEHE75-.LEHB75
	.uleb128 .L809-.LFB2093
	.uleb128 0
	.uleb128 .LEHB76-.LFB2093
	.uleb128 .LEHE76-.LEHB76
	.uleb128 .L811-.LFB2093
	.uleb128 0
	.uleb128 .LEHB77-.LFB2093
	.uleb128 .LEHE77-.LEHB77
	.uleb128 .L810-.LFB2093
	.uleb128 0
	.uleb128 .LEHB78-.LFB2093
	.uleb128 .LEHE78-.LEHB78
	.uleb128 0
	.uleb128 0
.LLSDACSE2093:
	.section	.text._ZN10idMapBrushD0Ev,"axG",@progbits,_ZN10idMapBrushD5Ev,comdat
	.size	_ZN10idMapBrushD0Ev, .-_ZN10idMapBrushD0Ev
	.section	".text"
	.align 2
	.globl _ZN10idMapBrush7ParseQ3ER7idLexerRK6idVec3
	.type	_ZN10idMapBrush7ParseQ3ER7idLexerRK6idVec3, @function
_ZN10idMapBrush7ParseQ3ER7idLexerRK6idVec3:
.LFB2546:
	.loc 4 411 0
	.cfi_startproc
	.cfi_personality 0,__gxx_personality_v0
	.cfi_lsda 0,.LLSDA2546
.LVL899:
	mflr 0
	stwu 1,-320(1)
.LCFI87:
	.cfi_def_cfa_offset 320
	.cfi_register 65, 0
.LVL900:
.LBB5448:
.LBB5449:
.LBB5450:
.LBB5451:
.LBB5452:
	.loc 9 357 0
	li 11,20
.LBE5452:
.LBE5451:
.LBE5450:
.LBE5449:
.LBB5465:
.LBB5466:
	.loc 3 159 0
	li 9,16
.LBE5466:
.LBE5465:
.LBE5448:
	.loc 4 411 0
	stw 27,268(1)
.LBB6151:
.LBB5470:
.LBB5471:
.LBB5472:
	.loc 11 112 0
	li 5,1024
.LBE5472:
.LBE5471:
.LBE5470:
.LBE6151:
	.loc 4 411 0
	stw 0,324(1)
	mr 27,4
	.cfi_offset 65, 4
	.cfi_offset 27, -52
.LBB6152:
.LBB5517:
.LBB5461:
.LBB5457:
.LBB5453:
	.loc 9 356 0
	li 0,0
.LBE5453:
.LBE5457:
.LBE5461:
.LBE5517:
.LBE6152:
	.loc 4 411 0
	stw 28,272(1)
.LBB6153:
.LBB5518:
.LBB5462:
.LBB5458:
.LBB5454:
	.loc 9 357 0
	stw 11,144(1)
.LBE5454:
.LBE5458:
.LBE5462:
.LBE5518:
.LBE6153:
	.loc 4 411 0
	mr 28,3
	.cfi_offset 28, -48
.LBB6154:
.LBB5519:
.LBB5463:
.LBB5459:
.LBB5455:
	.loc 9 358 0
	addi 11,1,148
.LBE5455:
.LBE5459:
.LBE5463:
.LBE5519:
.LBB5520:
.LBB5475:
.LBB5473:
	.loc 11 112 0
	addi 3,1,108
.LVL901:
	li 4,1024
.LVL902:
.LBE5473:
.LBE5475:
.LBE5520:
.LBE6154:
	.loc 4 411 0
	stfd 28,288(1)
	stfd 29,296(1)
	stfd 30,304(1)
	stfd 31,312(1)
	stw 18,232(1)
	stw 19,236(1)
	stw 20,240(1)
	stw 21,244(1)
	stw 22,248(1)
	stw 23,252(1)
	stw 24,256(1)
	stw 25,260(1)
	stw 26,264(1)
	stw 29,276(1)
	stw 30,280(1)
	stw 31,284(1)
.LBB6155:
.LBB5521:
.LBB5464:
.LBB5460:
.LBB5456:
	.loc 9 356 0
	stw 0,136(1)
	.loc 9 358 0
	stw 11,140(1)
	.loc 9 359 0
	stb 0,148(1)
.LVL903:
.LBE5456:
.LBE5460:
.LBE5464:
.LBE5521:
.LBB5522:
.LBB5469:
	.loc 3 159 0
	stw 9,16(1)
.LVL904:
.LBB5467:
.LBB5468:
	.loc 3 197 0
	stw 0,20(1)
	.loc 3 198 0
	stw 0,8(1)
	.loc 3 199 0
	stw 0,12(1)
.LVL905:
.LBE5468:
.LBE5467:
.LBE5469:
.LBE5522:
.LBB5523:
.LBB5476:
.LBB5477:
	.loc 3 159 0
	stw 9,100(1)
.LVL906:
.LBB5478:
.LBB5479:
	.loc 3 197 0
	stw 0,104(1)
	.loc 3 198 0
	stw 0,92(1)
	.loc 3 199 0
	stw 0,96(1)
.LVL907:
.LEHB79:
.LBE5479:
.LBE5478:
.LBE5477:
.LBE5476:
.LBB5480:
.LBB5474:
	.loc 11 112 0
	.cfi_offset 31, -36
	.cfi_offset 30, -40
	.cfi_offset 29, -44
	.cfi_offset 26, -56
	.cfi_offset 25, -60
	.cfi_offset 24, -64
	.cfi_offset 23, -68
	.cfi_offset 22, -72
	.cfi_offset 21, -76
	.cfi_offset 20, -80
	.cfi_offset 19, -84
	.cfi_offset 18, -88
	.cfi_offset 63, -8
	.cfi_offset 62, -16
	.cfi_offset 61, -24
	.cfi_offset 60, -32
	bl _ZN11idHashIndex4InitEii
.LEHE79:
.LVL908:
.LBE5474:
.LBE5480:
.LBB5481:
.LBB5482:
	.loc 3 319 0
	lwz 31,104(1)
	.loc 3 317 0
	li 0,16
	stw 0,100(1)
	.loc 3 319 0
	cmpwi 7,31,0
	beq- 7,.L814
	.loc 3 321 0
	lwz 9,92(1)
	.loc 3 323 0
	lwz 0,96(1)
	.loc 3 321 0
	addi 3,9,15
.LVL909:
	.loc 3 322 0
	srawi 3,3,4
	addze 3,3
.LVL910:
	slwi 3,3,4
.LVL911:
	.loc 3 323 0
	cmpw 7,3,0
	beq- 7,.L814
.LVL912:
.LBB5483:
.LBB5484:
	.loc 3 375 0
	cmpwi 7,3,0
	ble- 7,.L982
.LVL913:
	.loc 3 387 0
	cmpw 7,9,3
	.loc 3 386 0
	stw 3,96(1)
	.loc 3 387 0
	bgt- 7,.L983
.L816:
	.loc 3 392 0
	slwi 3,3,3
.LVL914:
.LEHB80:
	bl _Znaj
.LVL915:
	.loc 3 393 0
	lwz 0,92(1)
	.loc 3 392 0
	stw 3,104(1)
.LVL916:
	.loc 3 393 0
	cmpwi 7,0,0
	ble- 7,.L817
	.loc 4 411 0
	addi 8,31,-8
.LBE5484:
.LBE5483:
.LBE5482:
.LBE5481:
.LBE5523:
.LBE6155:
	.loc 3 393 0
	li 9,0
	b .L818
.LVL917:
.L984:
.LBB6156:
.LBB5524:
.LBB5496:
.LBB5493:
.LBB5490:
.LBB5487:
	lwz 3,104(1)
.LVL918:
.L818:
	.loc 3 394 0
	addi 8,8,8
	slwi 0,9,3
	lwz 10,0(8)
	add 3,3,0
	lwz 11,4(8)
	.loc 3 393 0
	addi 9,9,1
.LVL919:
	.loc 3 394 0
	stw 10,0(3)
	stw 11,4(3)
	.loc 3 393 0
	lwz 0,92(1)
	cmpw 7,9,0
	blt+ 7,.L984
.LVL920:
.L817:
	.loc 3 399 0
	mr 3,31
	bl _ZdaPv
.LVL921:
.L814:
.LBE5487:
.LBE5490:
.LBE5493:
.LBE5496:
.LBB5497:
.LBB5498:
	.loc 11 371 0
	li 0,16
.LBE5498:
.LBE5497:
.LBB5500:
.LBB5501:
	.loc 11 341 0
	addi 3,1,108
.LVL922:
.LBE5501:
.LBE5500:
.LBB5505:
.LBB5499:
	.loc 11 371 0
	stw 0,124(1)
.LVL923:
.LBE5499:
.LBE5505:
.LBB5506:
.LBB5502:
	.loc 11 341 0
	bl _ZN11idHashIndex4FreeEv
.LEHE80:
.LVL924:
	.loc 11 342 0
	li 0,128
.LBE5502:
.LBE5506:
.LBE5524:
.LBB5525:
.LBB5526:
.LBB5527:
	.loc 8 230 0
	lis 9,.LC4@ha
.LBE5527:
.LBE5526:
.LBE5525:
.LBB5548:
.LBB5507:
.LBB5503:
	.loc 11 342 0
	stw 0,108(1)
	.loc 11 343 0
	li 0,16
	lis 23,.LC46@ha
.LBE5503:
.LBE5507:
.LBE5548:
.LBB5549:
.LBB5550:
.LBB5551:
.LBB5552:
.LBB5553:
.LBB5554:
.LBB5555:
.LBB5556:
	.loc 6 276 0
	lis 19,_ZN6idMath5iSqrtE@ha
.LBE5556:
.LBE5555:
.LBE5554:
.LBE5553:
.LBE5552:
.LBE5551:
.LBE5550:
.LBE5549:
.LBB5659:
.LBB5508:
.LBB5504:
	.loc 11 343 0
	stw 0,116(1)
	la 23,.LC46@l(23)
.LBE5504:
.LBE5508:
.LBE5659:
.LBB5660:
.LBB5532:
.LBB5528:
	.loc 8 230 0
	lfs 31,.LC4@l(9)
	addi 30,1,136
.LBE5528:
.LBE5532:
.LBE5660:
.LBB5661:
.LBB5647:
.LBB5604:
.LBB5597:
.LBB5568:
.LBB5563:
.LBB5560:
.LBB5557:
	.loc 6 275 0
	lis 18,.LC1@ha
	.loc 6 276 0
	la 19,_ZN6idMath5iSqrtE@l(19)
	.loc 6 278 0
	lis 20,.LC3@ha
.LBE5557:
.LBE5560:
.LBE5563:
.LBE5568:
.LBB5569:
.LBB5570:
.LBB5571:
	.loc 5 580 0
	lis 22,.LC51@ha
	.loc 5 572 0
	lis 21,.LC52@ha
.LBE5571:
.LBE5570:
.LBE5569:
.LBE5597:
.LBE5604:
.LBE5647:
.LBE5661:
.LBB5662:
.LBB5663:
.LBB5664:
.LBB5665:
.LBB5666:
.LBB5667:
	.loc 9 415 0
	lis 25,.LC37@ha
.LBE5667:
.LBE5666:
.LBE5665:
.LBE5664:
.LBE5663:
.LBE5662:
.LBB5716:
.LBB5717:
	.loc 5 424 0
	lis 24,.LC57@ha
.LVL925:
.L966:
.LBE5717:
.LBE5716:
	.loc 4 421 0
	mr 3,28
	mr 4,23
	addi 29,1,92
.LEHB81:
	bl _ZN7idLexer16CheckTokenStringEPKc
	cmpwi 7,3,0
	bne- 7,.L825
	.loc 4 425 0
	li 3,84
	addi 29,1,92
	bl _Znwj
.LBB5721:
.LBB5533:
.LBB5534:
.LBB5535:
	.loc 9 356 0
	li 0,0
	.loc 9 358 0
	addi 9,3,12
	.loc 9 357 0
	li 11,20
	.loc 9 356 0
	stw 0,0(3)
	.loc 9 357 0
	stw 11,8(3)
.LBE5535:
.LBE5534:
.LBE5533:
.LBE5721:
	.loc 4 425 0
	mr 31,3
.LVL926:
.LBB5722:
.LBB5538:
.LBB5537:
.LBB5536:
	.loc 9 358 0
	stw 9,4(3)
	.loc 9 359 0
	stb 0,12(3)
.LVL927:
.LBE5536:
.LBE5537:
.LBE5538:
.LBB5539:
.LBB5529:
	.loc 8 230 0
	stfs 31,44(3)
.LBE5529:
.LBE5539:
.LBE5722:
.LBB5723:
.LBB5724:
	.loc 3 655 0
	lwz 26,20(1)
.LBE5724:
.LBE5723:
.LBB5761:
.LBB5540:
.LBB5530:
	.loc 8 230 0
	stfs 31,40(3)
.LBE5530:
.LBE5540:
.LBE5761:
.LBB5762:
.LBB5753:
	.loc 3 655 0
	cmpwi 7,26,0
.LBE5753:
.LBE5762:
.LBB5763:
.LBB5541:
.LBB5531:
	.loc 8 230 0
	stfs 31,36(3)
	stfs 31,32(3)
.LVL928:
.LBE5531:
.LBE5541:
.LBB5542:
.LBB5543:
	.loc 5 416 0
	stfs 31,56(3)
	stfs 31,52(3)
	stfs 31,48(3)
.LVL929:
.LBE5543:
.LBE5542:
.LBB5544:
.LBB5545:
	stfs 31,68(3)
	stfs 31,64(3)
	stfs 31,60(3)
.LVL930:
.LBE5545:
.LBE5544:
.LBB5546:
.LBB5547:
	stfs 31,80(3)
	stfs 31,76(3)
	stfs 31,72(3)
.LVL931:
.LBE5547:
.LBE5546:
.LBE5763:
.LBB5764:
.LBB5754:
	.loc 3 655 0
	beq- 7,.L826
	lwz 0,8(1)
	lwz 9,12(1)
.LVL932:
.L827:
.LBB5725:
	.loc 3 659 0
	cmpw 7,0,9
	beq- 7,.L939
.L973:
.LBB5726:
.LBB5727:
.LBB5728:
	.loc 3 380 0
	slwi 0,0,2
	add 26,26,0
.L834:
.LBE5728:
.LBE5727:
.LBE5726:
.LBE5725:
	.loc 3 669 0
	stw 31,0(26)
.LBE5754:
.LBE5764:
	.loc 4 429 0
	mr 3,28
	li 4,3
	addi 5,1,56
.LBB5765:
.LBB5755:
	.loc 3 670 0
	lwz 9,8(1)
	addi 29,1,92
	addi 0,9,1
	stw 0,8(1)
.LVL933:
.LBE5755:
.LBE5765:
	.loc 4 429 0
	bl _ZN7idLexer13Parse1DMatrixEiPf
.LVL934:
	cmpwi 7,3,0
	bne- 7,.L985
.L843:
	.loc 4 432 0 discriminator 3
	lis 4,.LC55@ha
	mr 3,28
	la 4,.LC55@l(4)
	addi 29,1,92
	crxor 6,6,6
	bl _ZN7idLexer5ErrorEPKcz
.LVL935:
.LBB5766:
.LBB5767:
	.loc 3 218 0
	lwz 0,8(1)
	cmpwi 7,0,0
	ble- 7,.L868
	li 31,0
.LVL936:
	.loc 3 220 0
	li 26,0
.LVL937:
.L849:
	.loc 3 219 0
	lwz 9,20(1)
	.loc 4 411 0
	slwi 28,31,2
	.loc 3 219 0
	lwzx 27,9,28
	add 9,9,28
	cmpwi 7,27,0
	beq- 7,.L846
.LVL938:
.LBB5768:
.LBB5769:
.LBB5770:
.LBB5771:
.LBB5772:
.LBB5773:
	.loc 9 501 0
	mr 3,27
	addi 29,1,92
	bl _ZN5idStr8FreeDataEv
.LEHE81:
.LVL939:
.LBE5773:
.LBE5772:
.LBE5771:
.LBE5770:
.LBE5769:
.LBE5768:
	.loc 3 219 0
	mr 3,27
	bl _ZdlPv
	lwz 9,20(1)
	add 9,9,28
.LVL940:
.L846:
	.loc 3 220 0
	stw 26,0(9)
	.loc 3 218 0
	addi 31,31,1
.LVL941:
	lwz 0,8(1)
	cmpw 7,31,0
	blt+ 7,.L849
.LVL942:
.L868:
.LBE5767:
.LBE5766:
.LBB5774:
.LBB5775:
.LBB5776:
.LBB5777:
	.loc 3 193 0
	lwz 3,20(1)
	cmpwi 7,3,0
	beq- 7,.L873
	.loc 3 194 0
	bl _ZdaPv
.L873:
	.loc 3 197 0
	li 0,0
	.loc 4 447 0
	li 31,0
	.loc 3 197 0
	stw 0,20(1)
	addi 29,1,92
	.loc 3 198 0
	stw 0,8(1)
	.loc 3 199 0
	stw 0,12(1)
.LVL943:
.L851:
.LBE5777:
.LBE5776:
.LBE5775:
.LBE5774:
.LBB5785:
.LBB5786:
.LBB5787:
	.loc 10 174 0
	mr 3,29
.LEHB82:
	bl _ZN6idDict5ClearEv
.LEHE82:
.LVL944:
.LBB5788:
.LBB5789:
.LBB5790:
	.loc 11 130 0
	addi 3,1,108
.LVL945:
.LEHB83:
	bl _ZN11idHashIndex4FreeEv
.LEHE83:
.LVL946:
.LBE5790:
.LBE5789:
.LBE5788:
.LBB5791:
.LBB5792:
.LBB5793:
.LBB5794:
	.loc 3 193 0
	lwz 3,104(1)
	cmpwi 7,3,0
	beq- 7,.L920
	.loc 3 194 0
	bl _ZdaPv
.L920:
.LBE5794:
.LBE5793:
.LBE5792:
.LBE5791:
.LBE5787:
.LBE5786:
.LBE5785:
.LBB5815:
.LBB5816:
.LBB5817:
.LBB5818:
	.loc 3 193 0
	lwz 3,20(1)
.LBE5818:
.LBE5817:
.LBE5816:
.LBE5815:
.LBB5828:
.LBB5812:
.LBB5809:
.LBB5801:
.LBB5799:
.LBB5797:
.LBB5795:
	.loc 3 197 0
	li 0,0
	stw 0,104(1)
.LBE5795:
.LBE5797:
.LBE5799:
.LBE5801:
.LBE5809:
.LBE5812:
.LBE5828:
.LBB5829:
.LBB5825:
.LBB5822:
.LBB5819:
	.loc 3 193 0
	cmpwi 7,3,0
.LBE5819:
.LBE5822:
.LBE5825:
.LBE5829:
.LBB5830:
.LBB5813:
.LBB5810:
.LBB5802:
.LBB5800:
.LBB5798:
.LBB5796:
	.loc 3 198 0
	stw 0,92(1)
	.loc 3 199 0
	stw 0,96(1)
.LVL947:
.LBE5796:
.LBE5798:
.LBE5800:
.LBE5802:
.LBE5810:
.LBE5813:
.LBE5830:
.LBB5831:
.LBB5826:
.LBB5823:
.LBB5820:
	.loc 3 193 0
	beq- 7,.L927
	.loc 3 194 0
	bl _ZdaPv
.L927:
	.loc 3 197 0
	li 0,0
.LBE5820:
.LBE5823:
.LBE5826:
.LBE5831:
.LBB5832:
.LBB5833:
.LBB5834:
.LBB5835:
.LBB5836:
	.loc 9 501 0
	mr 3,30
.LBE5836:
.LBE5835:
.LBE5834:
.LBE5833:
.LBE5832:
.LBB5841:
.LBB5827:
.LBB5824:
.LBB5821:
	.loc 3 197 0
	stw 0,20(1)
	.loc 3 198 0
	stw 0,8(1)
	.loc 3 199 0
	stw 0,12(1)
.LVL948:
.LEHB84:
.LBE5821:
.LBE5824:
.LBE5827:
.LBE5841:
.LBB5842:
.LBB5840:
.LBB5839:
.LBB5838:
.LBB5837:
	.loc 9 501 0
	bl _ZN5idStr8FreeDataEv
.LEHE84:
.LBE5837:
.LBE5838:
.LBE5839:
.LBE5840:
.LBE5842:
.LBE6156:
	.loc 4 480 0
	lwz 0,324(1)
	mr 3,31
	lwz 18,232(1)
	mtlr 0
	lwz 19,236(1)
	lwz 20,240(1)
	lwz 21,244(1)
	lwz 22,248(1)
	lwz 23,252(1)
	lwz 24,256(1)
	lwz 25,260(1)
	lwz 26,264(1)
	lwz 27,268(1)
	lwz 28,272(1)
	lwz 29,276(1)
	lwz 30,280(1)
	lwz 31,284(1)
	lfd 28,288(1)
	lfd 29,296(1)
	lfd 30,304(1)
	lfd 31,312(1)
	addi 1,1,320
	.cfi_remember_state
.LCFI88:
	.cfi_def_cfa_offset 0
	.cfi_restore 63
	.cfi_restore 62
	.cfi_restore 61
	.cfi_restore 60
	.cfi_restore 31
	.cfi_restore 30
	.cfi_restore 29
	.cfi_restore 28
	.cfi_restore 27
	.cfi_restore 26
	.cfi_restore 25
	.cfi_restore 24
	.cfi_restore 23
	.cfi_restore 22
	.cfi_restore 21
	.cfi_restore 20
	.cfi_restore 19
	.cfi_restore 18
	blr
.LVL949:
.L939:
.LCFI89:
	.cfi_restore_state
	lwz 3,16(1)
.LBB6157:
.LBB5843:
.LBB5756:
.LBB5739:
	.loc 3 659 0
	mr 10,0
.L829:
.LBB5737:
	.loc 3 662 0
	cmpwi 7,3,0
	mr 9,3
	bne- 7,.L835
	.loc 3 663 0
	li 9,16
	stw 9,16(1)
.L835:
	.loc 3 665 0
	add 11,10,9
.LVL950:
	.loc 3 666 0
	divw 11,11,9
.LVL951:
.LBB5734:
.LBB5731:
	.loc 3 375 0
	mullw. 9,11,9
.LVL952:
	ble- 0,.L986
	.loc 3 380 0
	cmpw 7,9,10
	beq- 7,.L973
.LVL953:
	.loc 3 387 0
	cmpw 7,9,0
	.loc 3 386 0
	stw 9,12(1)
	.loc 3 387 0
	bge- 7,.L839
	.loc 3 388 0
	stw 9,8(1)
.L839:
	.loc 3 392 0
	slwi 3,9,2
	addi 29,1,92
.LEHB85:
	bl _Znaj
.LVL954:
	.loc 3 393 0
	lwz 0,8(1)
	.loc 3 392 0
	stw 3,20(1)
.LVL955:
	.loc 3 393 0
	cmpwi 7,0,0
	ble- 7,.L840
	.loc 4 411 0
	addi 11,26,-4
.LBE5731:
.LBE5734:
	.loc 3 393 0
	li 9,0
	b .L841
.LVL956:
.L987:
.LBB5735:
.LBB5732:
	lwz 3,20(1)
.LVL957:
.L841:
	.loc 3 394 0
	lwzu 10,4(11)
	slwi 0,9,2
	.loc 3 393 0
	addi 9,9,1
.LVL958:
	.loc 3 394 0
	stwx 10,3,0
	.loc 3 393 0
	lwz 0,8(1)
	cmpw 7,9,0
	blt+ 7,.L987
.LVL959:
.L840:
	.loc 3 398 0
	cmpwi 7,26,0
	beq- 7,.L974
	.loc 3 399 0
	mr 3,26
	bl _ZdaPv
	lwz 0,8(1)
.L974:
	lwz 26,20(1)
.LVL960:
	slwi 0,0,2
	add 26,26,0
	b .L834
.LVL961:
.L985:
.LBE5732:
.LBE5735:
.LBE5737:
.LBE5739:
.LBE5756:
.LBE5843:
	.loc 4 430 0
	mr 3,28
	li 4,3
	addi 5,1,68
	addi 29,1,92
	bl _ZN7idLexer13Parse1DMatrixEiPf
	.loc 4 429 0
	cmpwi 7,3,0
	beq+ 7,.L843
.LVL962:
	.loc 4 431 0
	mr 3,28
	li 4,3
	addi 5,1,80
	addi 29,1,92
	bl _ZN7idLexer13Parse1DMatrixEiPf
	.loc 4 429 0
	cmpwi 7,3,0
	beq- 7,.L843
.LVL963:
.LBB5844:
.LBB5845:
	.loc 5 481 0
	lfs 0,0(27)
	.loc 5 483 0
	lfs 12,8(27)
.LBE5845:
.LBE5844:
.LBB5853:
.LBB5854:
	lfs 7,88(1)
.LBE5854:
.LBE5853:
.LBB5861:
.LBB5862:
	.loc 5 481 0
	lfs 8,68(1)
	.loc 5 483 0
	lfs 10,76(1)
.LBE5862:
.LBE5861:
.LBB5869:
.LBB5855:
	fsubs 7,7,12
.LBE5855:
.LBE5869:
.LBB5870:
.LBB5846:
	.loc 5 481 0
	lfs 1,56(1)
.LBE5846:
.LBE5870:
.LBB5871:
.LBB5863:
	fsubs 8,8,0
	.loc 5 483 0
	fsubs 10,10,12
.LBE5863:
.LBE5871:
.LBB5872:
.LBB5847:
	.loc 5 482 0
	lfs 13,4(27)
	.loc 5 481 0
	fsubs 1,1,0
.LBE5847:
.LBE5872:
.LBB5873:
.LBB5864:
	.loc 5 482 0
	lfs 9,72(1)
.LBE5864:
.LBE5873:
.LBB5874:
.LBB5848:
	.loc 5 483 0
	lfs 3,64(1)
.LBE5848:
.LBE5874:
.LBB5875:
.LBB5856:
	.loc 5 481 0
	lfs 4,80(1)
.LBE5856:
.LBE5875:
.LBB5876:
.LBB5648:
.LBB5605:
.LBB5606:
	.loc 5 431 0
	fsubs 6,7,10
.LBE5606:
.LBE5605:
.LBE5648:
.LBE5876:
.LBB5877:
.LBB5857:
	.loc 5 482 0
	lfs 5,84(1)
.LBE5857:
.LBE5877:
.LBB5878:
.LBB5865:
	fsubs 9,9,13
.LBE5865:
.LBE5878:
.LBB5879:
.LBB5849:
	.loc 5 483 0
	fsubs 3,3,12
	.loc 5 482 0
	lfs 2,60(1)
.LBE5849:
.LBE5879:
.LBB5880:
.LBB5858:
	.loc 5 481 0
	fsubs 4,4,0
	.loc 5 483 0
	stfs 7,88(1)
	.loc 5 482 0
	fsubs 5,5,13
.LBE5858:
.LBE5880:
.LBB5881:
.LBB5866:
	.loc 5 483 0
	stfs 10,76(1)
.LBE5866:
.LBE5881:
.LBB5882:
.LBB5649:
.LBB5612:
.LBB5613:
	.loc 5 431 0
	fsubs 0,1,8
.LBE5613:
.LBE5612:
.LBE5649:
.LBE5882:
.LBB5883:
.LBB5850:
	.loc 5 483 0
	stfs 3,64(1)
.LBE5850:
.LBE5883:
.LBB5884:
.LBB5650:
.LBB5616:
.LBB5614:
	.loc 5 431 0
	fsubs 12,3,10
.LBE5614:
.LBE5616:
.LBE5650:
.LBE5884:
.LBB5885:
.LBB5851:
	.loc 5 481 0
	stfs 1,56(1)
	.loc 5 482 0
	fsubs 2,2,13
.LBE5851:
.LBE5885:
.LBB5886:
.LBB5867:
	.loc 5 481 0
	stfs 8,68(1)
.LBE5867:
.LBE5886:
.LBB5887:
.LBB5651:
.LBB5617:
.LBB5607:
	.loc 5 431 0
	fsubs 13,5,9
.LBE5607:
.LBE5617:
.LBE5651:
.LBE5887:
.LBB5888:
.LBB5868:
	.loc 5 482 0
	stfs 9,72(1)
.LBE5868:
.LBE5888:
.LBB5889:
.LBB5652:
.LBB5618:
.LBB5619:
	.loc 5 620 0
	fmuls 28,0,6
.LBE5619:
.LBE5618:
.LBE5652:
.LBE5889:
.LBB5890:
.LBB5859:
	.loc 5 481 0
	stfs 4,80(1)
.LBE5859:
.LBE5890:
.LBB5891:
.LBB5653:
.LBB5622:
.LBB5608:
	.loc 5 431 0
	fsubs 30,4,8
.LBE5608:
.LBE5622:
.LBE5653:
.LBE5891:
.LBB5892:
.LBB5852:
	.loc 5 482 0
	stfs 2,60(1)
.LBE5852:
.LBE5892:
.LBB5893:
.LBB5654:
.LBB5623:
.LBB5620:
	.loc 5 620 0
	fmuls 29,12,13
.LBE5620:
.LBE5623:
.LBE5654:
.LBE5893:
.LBB5894:
.LBB5860:
	.loc 5 482 0
	stfs 5,84(1)
.LBE5860:
.LBE5894:
.LBB5895:
.LBB5655:
.LBB5624:
.LBB5615:
	.loc 5 431 0
	fsubs 11,2,9
.LBE5615:
.LBE5624:
.LBB5625:
.LBB5609:
	.loc 5 620 0
	fmsubs 12,12,30,28
.LBE5609:
.LBE5625:
.LBB5626:
.LBB5621:
	fmuls 30,11,30
.LBE5621:
.LBE5626:
.LBB5627:
.LBB5610:
	fmsubs 11,11,6,29
.LBE5610:
.LBE5627:
.LBB5628:
.LBB5629:
	.loc 5 425 0
	stfs 12,36(31)
.LBE5629:
.LBE5628:
.LBB5632:
.LBB5598:
.LBB5588:
.LBB5564:
	.loc 5 649 0
	fmuls 6,12,12
.LBE5564:
.LBE5588:
.LBE5598:
.LBE5632:
.LBB5633:
.LBB5611:
	.loc 5 620 0
	fmsubs 0,0,13,30
.LBE5611:
.LBE5633:
.LBB5634:
.LBB5630:
	.loc 5 424 0
	stfs 11,32(31)
	.loc 5 649 0
	fmadds 13,11,11,6
.LBE5630:
.LBE5634:
.LBB5635:
.LBB5599:
.LBB5589:
.LBB5565:
.LBB5561:
.LBB5558:
	.loc 6 275 0
	lfs 6,.LC1@l(18)
.LBE5558:
.LBE5561:
.LBE5565:
.LBE5589:
.LBE5599:
.LBE5635:
.LBB5636:
.LBB5631:
	.loc 5 426 0
	stfs 0,40(31)
	.loc 5 649 0
	fmadds 13,0,0,13
	stfs 13,224(1)
.LBE5631:
.LBE5636:
.LBB5637:
.LBB5600:
.LBB5590:
.LBB5566:
.LBB5562:
.LBB5559:
	.loc 6 275 0
	fmuls 6,13,6
	.loc 6 270 0
	lwz 0,224(1)
	.loc 4 411 0
	fneg 6,6
	.loc 6 276 0
	rlwinm 9,0,9,24,31
.LVL964:
	rlwinm 0,0,19,21,29
	lwzx 0,19,0
	subfic 9,9,380
	rlwinm 9,9,22,0,8
	or 0,9,0
	.loc 6 277 0
	stw 0,228(1)
	lfs 7,228(1)
	fmr 13,7
.LVL965:
	.loc 6 278 0
	lfs 7,.LC3@l(20)
	fmul 30,13,13
	fmadd 3,6,30,7
.LVL966:
	fmul 13,13,3
.LVL967:
	.loc 6 279 0
	fmul 10,13,13
.LVL968:
	fmadd 7,6,10,7
.LVL969:
	fmul 13,13,7
.LVL970:
	.loc 6 280 0
	frsp 13,13
.LVL971:
.LBE5559:
.LBE5562:
	.loc 5 651 0
	fmuls 11,11,13
.LVL972:
	.loc 5 653 0
	fmuls 0,0,13
.LVL973:
	.loc 5 652 0
	fmuls 12,12,13
.LVL974:
	.loc 5 651 0
	stfs 11,228(1)
.LBE5566:
.LBE5590:
.LBB5591:
.LBB5583:
.LBB5578:
	.loc 5 536 0
	fcmpu 6,11,31
.LBE5578:
.LBE5583:
.LBE5591:
.LBB5592:
.LBB5567:
	.loc 5 651 0
	lwz 9,228(1)
	.loc 5 652 0
	stfs 12,216(1)
	.loc 5 653 0
	stfs 0,220(1)
	.loc 5 652 0
	lwz 0,216(1)
	.loc 5 653 0
	lwz 11,220(1)
	.loc 5 654 0
	lfs 0,224(1)
	.loc 5 651 0
	stw 9,32(31)
	.loc 5 652 0
	stw 0,36(31)
	.loc 5 654 0
	fmuls 13,0,13
.LVL975:
	.loc 5 653 0
	stw 11,40(31)
.LBE5567:
.LBE5592:
.LBB5593:
.LBB5584:
.LBB5579:
	.loc 5 536 0
	beq- 6,.L936
	.loc 5 564 0
	lfs 0,216(1)
	fcmpu 7,0,31
	bne- 7,.L856
	.loc 5 565 0
	lfs 7,220(1)
	fcmpu 7,7,31
	bne- 7,.L856
	.loc 5 566 0
	bng- 6,.L969
	.loc 5 567 0
	stw 9,228(1)
	lfs 0,.LC51@l(22)
	lfs 12,228(1)
	fcmpu 7,12,0
	bne- 7,.L977
.L855:
.LBE5579:
.LBE5584:
.LBE5593:
.LBE5600:
.LBE5637:
	.loc 8 281 0
	fcmpu 7,13,31
	beq- 7,.L866
.LVL976:
.LBB5638:
.LBB5639:
.LBB5640:
.LBB5641:
	.loc 5 435 0
	lfs 0,72(1)
	lfs 11,36(31)
.LBE5641:
.LBE5640:
	lfs 13,32(31)
.LBB5643:
.LBB5642:
	fmuls 11,11,0
.LBE5642:
.LBE5643:
	lfs 0,68(1)
	lfs 12,40(31)
	fmadds 13,13,0,11
	lfs 0,76(1)
	.loc 8 284 0
	fnmadds 0,12,0,13
	stfs 0,44(31)
.LVL977:
.L866:
.LBE5639:
.LBE5638:
.LBE5655:
.LBE5895:
	.loc 4 444 0
	mr 3,28
	mr 4,30
	addi 29,1,92
	bl _ZN7idLexer15ReadTokenOnLineEP7idToken
.LVL978:
	cmpwi 7,3,0
	beq- 7,.L988
.LVL979:
.LBB5896:
.LBB5712:
.LBB5680:
	.loc 4 973 0
	lwz 29,0(30)
.LBE5680:
.LBB5699:
.LBB5676:
.LBB5672:
.LBB5668:
	.loc 9 415 0
	la 9,.LC37@l(25)
	lhz 0,8(9)
	.loc 9 357 0
	li 8,20
.LBE5668:
.LBE5672:
.LBE5676:
.LBE5699:
.LBB5700:
.LBB5681:
	.loc 9 762 0
	addi 4,29,10
.LBE5681:
.LBE5700:
.LBB5701:
.LBB5677:
.LBB5673:
.LBB5669:
	.loc 9 415 0
	lwz 11,4(9)
.LBE5669:
.LBE5673:
.LBE5677:
.LBE5701:
.LBB5702:
.LBB5694:
.LBB5682:
.LBB5683:
	.loc 9 350 0
	cmpwi 7,4,20
.LBE5683:
.LBE5682:
.LBE5694:
.LBE5702:
.LBB5703:
.LBB5678:
.LBB5674:
.LBB5670:
	.loc 9 415 0
	lwz 10,.LC37@l(25)
	.loc 9 358 0
	addi 9,1,36
	.loc 9 357 0
	stw 8,32(1)
	.loc 9 415 0
	sth 0,8(9)
.LBE5670:
.LBE5674:
	.loc 9 416 0
	li 0,9
	stw 0,24(1)
.LBE5678:
.LBE5703:
.LBB5704:
.LBB5695:
.LBB5687:
.LBB5684:
	.loc 9 350 0
	mr 0,29
.LBE5684:
.LBE5687:
.LBE5695:
.LBE5704:
.LBB5705:
.LBB5679:
.LBB5675:
.LBB5671:
	.loc 9 358 0
	stw 9,28(1)
.LVL980:
	.loc 9 415 0
	stw 10,36(1)
	stw 11,4(9)
.LBE5671:
.LBE5675:
.LBE5679:
.LBE5705:
.LBB5706:
.LBB5696:
.LBB5688:
.LBB5685:
	.loc 9 350 0
	bgt- 7,.L989
.LVL981:
.L874:
.LBE5685:
.LBE5688:
	.loc 9 763 0
	cmpwi 7,0,0
	ble- 7,.L875
	li 9,0
.LVL982:
.L876:
.LBB5689:
.LBB5690:
	.loc 9 522 0
	lwz 11,4(30)
.LBE5690:
.LBE5689:
	.loc 9 764 0
	lwz 10,28(1)
.LBB5692:
.LBB5691:
	.loc 9 522 0
	lbzx 0,11,9
.LBE5691:
.LBE5692:
	.loc 9 764 0
	lwz 11,24(1)
	add 11,10,11
	stbx 0,11,9
	.loc 9 763 0
	addi 9,9,1
.LVL983:
	lwz 0,136(1)
	cmpw 7,9,0
	blt+ 7,.L876
.LVL984:
.L875:
	.loc 9 767 0
	lwz 9,28(1)
	.loc 9 761 0
	addi 29,29,9
.LVL985:
	.loc 9 767 0
	li 0,0
	.loc 9 766 0
	stw 29,24(1)
	.loc 9 767 0
	stbx 0,9,29
.LVL986:
.LBE5696:
.LBE5706:
.LBE5712:
.LBE5896:
.LBB5897:
	.loc 4 973 0
	lwz 29,24(1)
.LVL987:
.LBB5898:
.LBB5899:
.LBB5900:
	.loc 9 350 0
	lwz 0,8(31)
.LBE5900:
.LBE5899:
	.loc 9 534 0
	addi 4,29,1
.LVL988:
.LBB5903:
.LBB5901:
	.loc 9 350 0
	cmpw 7,4,0
	bgt- 7,.L990
.LVL989:
.L878:
.LBE5901:
.LBE5903:
	.loc 9 535 0
	lwz 3,4(31)
	mr 5,29
	lwz 4,28(1)
	bl memcpy
	.loc 9 536 0
	lwz 9,4(31)
	li 0,0
.LBE5898:
.LBE5897:
.LBB5907:
.LBB5908:
.LBB5909:
	.loc 9 501 0
	addi 3,1,24
.LBE5909:
.LBE5908:
.LBE5907:
.LBB5912:
.LBB5905:
	.loc 9 536 0
	stbx 0,9,29
	.loc 9 537 0
	stw 29,0(31)
.LVL990:
	addi 29,1,92
.LBE5905:
.LBE5912:
.LBB5913:
.LBB5911:
.LBB5910:
	.loc 9 501 0
	bl _ZN5idStr8FreeDataEv
.LBE5910:
.LBE5911:
.LBE5913:
	.loc 4 454 0
	mr 3,28
	addi 29,1,92
	bl _ZN7idLexer8ParseIntEv
	.loc 4 455 0 discriminator 1
	mr 3,28
	addi 29,1,92
	bl _ZN7idLexer8ParseIntEv
	.loc 4 456 0 discriminator 1
	mr 3,28
	addi 29,1,92
	bl _ZN7idLexer8ParseIntEv
	.loc 4 457 0 discriminator 1
	mr 3,28
	li 4,0
	addi 29,1,92
	bl _ZN7idLexer10ParseFloatEPb
	.loc 4 458 0 discriminator 1
	mr 3,28
	li 4,0
	addi 29,1,92
	bl _ZN7idLexer10ParseFloatEPb
.LVL991:
.LBB5914:
.LBB5718:
	.loc 5 424 0 discriminator 1
	lwz 0,.LC57@l(24)
.LBE5718:
.LBE5914:
	.loc 4 464 0 discriminator 1
	mr 3,28
.LBB5915:
.LBB5719:
	.loc 5 425 0 discriminator 1
	stfs 31,52(31)
.LBE5719:
.LBE5915:
	.loc 4 464 0 discriminator 1
	mr 4,30
.LBB5916:
.LBB5720:
	.loc 5 424 0 discriminator 1
	stw 0,48(31)
	addi 29,1,92
	.loc 5 426 0 discriminator 1
	stfs 31,56(31)
.LVL992:
.LBE5720:
.LBE5916:
.LBB5917:
.LBB5918:
	.loc 5 424 0 discriminator 1
	stfs 31,60(31)
	.loc 5 425 0 discriminator 1
	stw 0,64(31)
	.loc 5 426 0 discriminator 1
	stfs 31,68(31)
.LVL993:
.LBE5918:
.LBE5917:
.LBB5919:
.LBB5920:
	.loc 5 424 0 discriminator 1
	lwz 0,0(27)
	stw 0,72(31)
	.loc 5 425 0 discriminator 1
	lwz 0,4(27)
	stw 0,76(31)
	.loc 5 426 0 discriminator 1
	lwz 0,8(27)
	stw 0,80(31)
.LBE5920:
.LBE5919:
	.loc 4 464 0 discriminator 1
	bl _ZN7idLexer15ReadTokenOnLineEP7idToken
	cmpwi 7,3,0
	beq+ 7,.L966
	.loc 4 465 0
	mr 3,28
	mr 4,30
	addi 29,1,92
	bl _ZN7idLexer15ReadTokenOnLineEP7idToken
	cmpwi 7,3,0
	beq+ 7,.L966
	.loc 4 466 0
	mr 3,28
	mr 4,30
	addi 29,1,92
	bl _ZN7idLexer15ReadTokenOnLineEP7idToken
.LEHE85:
	b .L966
.LVL994:
.L969:
.LBB5921:
.LBB5656:
.LBB5644:
.LBB5601:
.LBB5594:
.LBB5585:
.LBB5580:
	.loc 5 572 0
	stw 9,228(1)
	lfs 0,.LC52@l(21)
	lfs 7,228(1)
	fcmpu 7,7,0
	beq- 7,.L855
.L977:
	.loc 5 573 0
	stfs 0,32(31)
	b .L855
.L936:
	.loc 5 537 0
	lfs 0,216(1)
	fcmpu 7,0,31
	bne- 7,.L852
	.loc 5 538 0
	lfs 7,220(1)
	fcmpu 7,7,31
	bng- 7,.L967
	.loc 5 539 0
	lfs 0,.LC51@l(22)
	fcmpu 7,7,0
	beq- 7,.L855
	.loc 5 545 0
	stfs 0,40(31)
	b .L855
.L856:
.LVL995:
.LBB5572:
.LBB5573:
	.loc 6 781 0
	rlwinm 0,9,0,1,31
.LBE5573:
.LBE5572:
	.loc 5 580 0
	lfs 0,.LC51@l(22)
	stw 0,228(1)
	lfs 12,228(1)
	fcmpu 7,12,0
	bne- 7,.L861
	.loc 5 581 0
	lfs 0,216(1)
	fcmpu 7,0,31
	bne- 7,.L862
	lfs 7,220(1)
	fcmpu 7,7,31
	beq- 7,.L855
.L862:
	.loc 5 582 0
	stfs 31,40(31)
	stfs 31,36(31)
	b .L855
.LVL996:
.L990:
.LBE5580:
.LBE5585:
.LBE5594:
.LBE5601:
.LBE5644:
.LBE5656:
.LBE5921:
.LBB5922:
.LBB5906:
.LBB5904:
.LBB5902:
	.loc 9 351 0
	mr 3,31
	li 5,0
.LEHB86:
	bl _ZN5idStr10ReAllocateEib
.LEHE86:
.LVL997:
	b .L878
.LVL998:
.L989:
.LBE5902:
.LBE5904:
.LBE5906:
.LBE5922:
.LBB5923:
.LBB5713:
.LBB5707:
.LBB5697:
.LBB5693:
.LBB5686:
	addi 3,1,24
	li 5,1
.LEHB87:
	bl _ZN5idStr10ReAllocateEib
.LEHE87:
.LVL999:
	lwz 0,136(1)
	b .L874
.LVL1000:
.L852:
.LBE5686:
.LBE5693:
.LBE5697:
.LBE5707:
.LBE5713:
.LBE5923:
.LBB5924:
.LBB5657:
.LBB5645:
.LBB5602:
.LBB5595:
.LBB5586:
.LBB5581:
	.loc 5 550 0
	lfs 12,220(1)
	fcmpu 6,12,31
	bne- 6,.L856
	.loc 5 551 0
	bng- 7,.L968
	.loc 5 552 0
	lfs 0,.LC51@l(22)
	lfs 7,216(1)
	fcmpu 7,7,0
	beq- 7,.L855
	.loc 5 558 0
	stfs 0,36(31)
	b .L855
.LVL1001:
.L861:
.LBB5574:
.LBB5575:
	.loc 6 781 0
	lwz 11,216(1)
	rlwinm 0,11,0,1,31
.LBE5575:
.LBE5574:
	.loc 5 586 0
	stw 0,228(1)
	lfs 7,228(1)
	fcmpu 7,7,0
	bne- 7,.L863
	.loc 5 587 0
	stw 9,228(1)
	lfs 12,228(1)
	fcmpu 7,12,31
	bne- 7,.L864
	lfs 0,220(1)
	fcmpu 7,0,31
	beq- 7,.L855
.L864:
	.loc 5 588 0
	stfs 31,40(31)
	stfs 31,32(31)
	b .L855
.L863:
.LVL1002:
.LBB5576:
.LBB5577:
	.loc 6 781 0
	lwz 11,220(1)
	rlwinm 0,11,0,1,31
.LBE5577:
.LBE5576:
	.loc 5 592 0
	stw 0,228(1)
	lfs 7,228(1)
	fcmpu 7,7,0
	bne- 7,.L855
	.loc 5 593 0
	stw 9,228(1)
	lfs 12,228(1)
	fcmpu 7,12,31
	bne- 7,.L865
	lfs 0,216(1)
	fcmpu 7,0,31
	beq- 7,.L855
.L865:
	.loc 5 594 0
	stfs 31,36(31)
	stfs 31,32(31)
	b .L855
.LVL1003:
.L967:
	.loc 5 544 0
	lfs 0,.LC52@l(21)
	lfs 7,220(1)
	fcmpu 7,7,0
	beq- 7,.L855
	.loc 5 545 0
	stfs 0,40(31)
	b .L855
.LVL1004:
.L826:
.LBE5581:
.LBE5586:
.LBE5595:
.LBE5602:
.LBE5645:
.LBE5657:
.LBE5924:
.LBB5925:
.LBB5757:
	.loc 3 656 0
	lwz 3,16(1)
.LBB5740:
.LBB5741:
	.loc 3 375 0
	cmpwi 7,3,0
.LBE5741:
.LBE5740:
	.loc 3 656 0
	mr 9,3
.LVL1005:
.LBB5748:
.LBB5744:
	.loc 3 375 0
	ble- 7,.L991
	.loc 3 380 0
	lwz 0,12(1)
	cmpw 7,3,0
	beq- 7,.L992
.LVL1006:
	.loc 3 387 0
	lwz 0,8(1)
	.loc 3 386 0
	stw 3,12(1)
	.loc 3 387 0
	cmpw 7,3,0
	blt- 7,.L993
.L831:
	.loc 3 392 0
	slwi 3,3,2
	addi 29,1,92
.LEHB88:
	bl _Znaj
.LVL1007:
	.loc 3 393 0
	lwz 0,8(1)
	.loc 3 392 0
	mr 26,3
	stw 3,20(1)
.LVL1008:
	.loc 3 393 0
	li 9,0
	cmpwi 7,0,0
	li 11,0
	bgt+ 7,.L963
	b .L1007
.LVL1009:
.L995:
	lwz 26,20(1)
.LVL1010:
.L963:
	.loc 3 394 0
	lwz 0,0(9)
	.loc 3 393 0
	addi 11,11,1
.LVL1011:
	.loc 3 394 0
	stwx 0,26,9
	.loc 3 393 0
	addi 9,9,4
	lwz 0,8(1)
	cmpw 7,11,0
	blt+ 7,.L995
	lwz 9,12(1)
	lwz 26,20(1)
	b .L827
.LVL1012:
.L968:
.LBE5744:
.LBE5748:
.LBE5757:
.LBE5925:
.LBB5926:
.LBB5658:
.LBB5646:
.LBB5603:
.LBB5596:
.LBB5587:
.LBB5582:
	.loc 5 557 0
	lfs 0,.LC52@l(21)
	lfs 12,216(1)
	fcmpu 7,12,0
	beq- 7,.L855
	.loc 5 558 0
	stfs 0,36(31)
	b .L855
.LVL1013:
.L986:
.LBE5582:
.LBE5587:
.LBE5596:
.LBE5603:
.LBE5646:
.LBE5658:
.LBE5926:
.LBB5927:
.LBB5758:
.LBB5749:
.LBB5738:
.LBB5736:
.LBB5733:
.LBB5729:
.LBB5730:
	.loc 3 193 0
	cmpwi 7,26,0
	beq- 7,.L837
	.loc 3 194 0
	mr 3,26
	bl _ZdaPv
.LVL1014:
.L837:
	.loc 3 197 0
	li 0,0
	.loc 3 199 0
	li 26,0
	.loc 3 197 0
	stw 0,20(1)
	.loc 3 198 0
	stw 0,8(1)
	.loc 3 199 0
	stw 0,12(1)
	b .L834
.LVL1015:
.L993:
.LBE5730:
.LBE5729:
.LBE5733:
.LBE5736:
.LBE5738:
.LBE5749:
.LBB5750:
.LBB5745:
	.loc 3 388 0
	stw 3,8(1)
	b .L831
.LVL1016:
.L983:
.LBE5745:
.LBE5750:
.LBE5758:
.LBE5927:
.LBB5928:
.LBB5509:
.LBB5494:
.LBB5491:
.LBB5488:
	stw 3,92(1)
	b .L816
.LVL1017:
.L825:
.LBE5488:
.LBE5491:
.LBE5494:
.LBE5509:
.LBE5928:
	.loc 4 472 0
	li 3,72
	addi 29,1,92
	bl _Znwj
.LEHE88:
.LBB5929:
.LBB5930:
.LBB5931:
.LBB5932:
	.loc 7 61 0
	lis 9,_ZTV14idMapPrimitive+8@ha
.LBB5933:
.LBB5934:
.LBB5935:
.LBB5936:
.LBB5937:
.LBB5938:
	.loc 3 197 0
	li 0,0
.LBE5938:
.LBE5937:
.LBE5936:
.LBE5935:
.LBE5934:
.LBE5933:
	.loc 7 61 0
	la 9,_ZTV14idMapPrimitive+8@l(9)
.LBB6005:
.LBB5995:
	.loc 10 163 0
	addi 28,3,20
.LVL1018:
.LBE5995:
.LBE6005:
	.loc 7 61 0
	stw 9,0(3)
.LBB6006:
.LBB5996:
.LBB5949:
.LBB5945:
	.loc 3 159 0
	li 9,16
	stw 9,12(3)
.LBE5945:
.LBE5949:
.LBE5996:
.LBE6006:
.LBE5932:
.LBE5931:
.LBE5930:
.LBE5929:
	.loc 4 472 0
	mr 31,3
.LVL1019:
.LBB6053:
.LBB6047:
.LBB6022:
.LBB6015:
.LBB6007:
.LBB5997:
.LBB5950:
.LBB5946:
.LBB5942:
.LBB5939:
	.loc 3 197 0
	stw 0,16(3)
.LBE5939:
.LBE5942:
.LBE5946:
.LBE5950:
.LBB5951:
.LBB5952:
	.loc 11 112 0
	li 4,1024
.LBE5952:
.LBE5951:
.LBB5956:
.LBB5947:
.LBB5943:
.LBB5940:
	.loc 3 198 0
	stw 0,4(3)
.LBE5940:
.LBE5943:
.LBE5947:
.LBE5956:
.LBB5957:
.LBB5953:
	.loc 11 112 0
	li 5,1024
.LBE5953:
.LBE5957:
.LBB5958:
.LBB5948:
.LBB5944:
.LBB5941:
	.loc 3 199 0
	stw 0,8(3)
.LBE5941:
.LBE5944:
.LBE5948:
.LBE5958:
.LBB5959:
.LBB5954:
	.loc 11 112 0
	mr 3,28
.LVL1020:
.LBE5954:
.LBE5959:
.LBE5997:
.LBE6007:
	.loc 7 61 0
	addi 24,31,4
.LVL1021:
.LEHB89:
.LBB6008:
.LBB5998:
.LBB5960:
.LBB5955:
	.loc 11 112 0
	bl _ZN11idHashIndex4InitEii
.LEHE89:
.LVL1022:
.LBE5955:
.LBE5960:
.LBB5961:
.LBB5962:
	.loc 3 319 0
	lwz 29,16(31)
	.loc 3 317 0
	li 0,16
	stw 0,12(31)
	.loc 3 319 0
	cmpwi 7,29,0
	beq- 7,.L885
	.loc 3 321 0
	lwz 9,4(31)
	.loc 3 323 0
	lwz 0,8(31)
	.loc 3 321 0
	addi 3,9,15
.LVL1023:
	.loc 3 322 0
	srawi 3,3,4
	addze 3,3
.LVL1024:
	slwi 3,3,4
.LVL1025:
	.loc 3 323 0
	cmpw 7,3,0
	beq- 7,.L885
.LVL1026:
.LBB5963:
.LBB5964:
	.loc 3 375 0
	cmpwi 7,3,0
	ble- 7,.L996
.LVL1027:
	.loc 3 387 0
	cmpw 7,9,3
	.loc 3 386 0
	stw 3,8(31)
	.loc 3 387 0
	bgt- 7,.L997
.L887:
	.loc 3 392 0
	slwi 3,3,3
.LVL1028:
.LEHB90:
	bl _Znaj
.LVL1029:
	.loc 3 393 0
	lwz 0,4(31)
	.loc 3 392 0
	stw 3,16(31)
.LVL1030:
	.loc 3 393 0
	cmpwi 7,0,0
	ble- 7,.L888
	.loc 4 411 0
	addi 8,29,-8
.LBE5964:
.LBE5963:
.LBE5962:
.LBE5961:
.LBE5998:
.LBE6008:
.LBE6015:
.LBE6022:
.LBE6047:
.LBE6053:
.LBB6054:
.LBB5714:
.LBB5708:
.LBB5698:
	.loc 3 393 0
	li 9,0
	b .L889
.LVL1031:
.L998:
.LBE5698:
.LBE5708:
.LBE5714:
.LBE6054:
.LBB6055:
.LBB6048:
.LBB6023:
.LBB6016:
.LBB6009:
.LBB5999:
.LBB5976:
.LBB5973:
.LBB5970:
.LBB5967:
	lwz 3,16(31)
.LVL1032:
.L889:
	.loc 3 394 0
	addi 8,8,8
	slwi 0,9,3
	lwz 10,0(8)
	add 3,3,0
	lwz 11,4(8)
	.loc 3 393 0
	addi 9,9,1
.LVL1033:
	.loc 3 394 0
	stw 10,0(3)
	stw 11,4(3)
	.loc 3 393 0
	lwz 0,0(24)
	cmpw 7,9,0
	blt+ 7,.L998
.LVL1034:
.L888:
	.loc 3 399 0
	mr 3,29
	bl _ZdaPv
.LVL1035:
.L885:
.LBE5967:
.LBE5970:
.LBE5973:
.LBE5976:
.LBB5977:
.LBB5978:
	.loc 11 371 0
	li 0,16
.LBE5978:
.LBE5977:
.LBB5980:
.LBB5981:
	.loc 11 341 0
	mr 3,28
.LBE5981:
.LBE5980:
.LBB5984:
.LBB5979:
	.loc 11 371 0
	stw 0,36(31)
.LVL1036:
.LBE5979:
.LBE5984:
.LBB5985:
.LBB5982:
	.loc 11 341 0
	bl _ZN11idHashIndex4FreeEv
.LEHE90:
	.loc 11 342 0
	li 9,128
.LBE5982:
.LBE5985:
.LBE5999:
.LBE6009:
.LBE6016:
.LBE6023:
.LBB6024:
.LBB6025:
.LBB6026:
	.loc 3 197 0
	li 0,0
.LBE6026:
.LBE6025:
.LBE6024:
.LBB6031:
.LBB6017:
.LBB6010:
.LBB6000:
.LBB5986:
.LBB5983:
	.loc 11 342 0
	stw 9,20(31)
	.loc 11 343 0
	li 9,16
	stw 9,28(31)
.LBE5983:
.LBE5986:
.LBE6000:
.LBE6010:
.LBE6017:
.LBE6031:
	.loc 7 101 0
	lis 9,_ZTV10idMapBrush+8@ha
.LBB6032:
.LBB6029:
.LBB6027:
	.loc 3 197 0
	stw 0,68(31)
.LBE6027:
.LBE6029:
.LBE6032:
	.loc 7 101 0
	la 9,_ZTV10idMapBrush+8@l(9)
.LBB6033:
.LBB6030:
.LBB6028:
	.loc 3 198 0
	stw 0,56(31)
.LBE6028:
.LBE6030:
.LBE6033:
.LBB6034:
.LBB6035:
	.loc 3 434 0
	li 3,32
.LBE6035:
.LBE6034:
	.loc 7 101 0
	stw 0,48(31)
.LBB6038:
.LBB6036:
	.loc 3 419 0
	li 0,4
	stw 0,64(31)
	.loc 3 428 0
	li 0,8
.LBE6036:
.LBE6038:
	.loc 7 101 0
	stw 9,0(31)
.LVL1037:
.LBB6039:
.LBB6037:
	.loc 3 428 0
	stw 0,60(31)
.LEHB91:
	.loc 3 434 0
	bl _Znaj
.LEHE91:
	.loc 3 435 0
	lwz 9,56(31)
	li 11,0
	.loc 3 434 0
	stw 3,68(31)
.LVL1038:
	.loc 3 435 0
	li 10,0
	cmpwi 7,9,0
	bgt+ 7,.L897
	b .L896
.LVL1039:
.L999:
	lwz 3,68(31)
.LVL1040:
.L897:
	.loc 3 436 0
	lwz 0,0(11)
	.loc 3 435 0
	addi 10,10,1
.LVL1041:
	.loc 3 436 0
	stwx 0,3,11
	.loc 3 435 0
	addi 11,11,4
	lwz 9,56(31)
	cmpw 7,10,9
	blt+ 7,.L999
.LVL1042:
.L896:
.LBE6037:
.LBE6039:
.LBE6048:
.LBE6055:
	.loc 4 473 0 discriminator 1
	lwz 0,8(1)
	li 27,0
.LVL1043:
	addi 26,31,56
.LBB6056:
.LBB6057:
.LBB6058:
.LBB6059:
.LBB6060:
.LBB6061:
	.loc 3 393 0 discriminator 1
	li 22,0
.LBE6061:
.LBE6060:
.LBE6059:
.LBE6058:
.LBE6057:
.LBE6056:
	.loc 4 473 0 discriminator 1
	cmpwi 7,0,0
.LBB6119:
.LBB6109:
.LBB6099:
.LBB6089:
.LBB6069:
.LBB6070:
	.loc 3 663 0 discriminator 1
	li 23,16
.LBE6070:
.LBE6069:
.LBE6089:
.LBE6099:
.LBE6109:
.LBE6119:
	.loc 4 473 0 discriminator 1
	ble- 7,.L899
.LVL1044:
.L958:
.LBB6120:
.LBB6110:
.LBB6100:
.LBB6090:
	.loc 3 655 0
	lwz 28,68(31)
.LBE6090:
.LBE6100:
.LBE6110:
.LBE6120:
	.loc 4 474 0
	slwi 0,27,2
	lwz 11,20(1)
.LBB6121:
.LBB6111:
.LBB6101:
.LBB6091:
	.loc 3 655 0
	cmpwi 7,28,0
.LBE6091:
.LBE6101:
.LBE6111:
.LBE6121:
	.loc 4 474 0
	lwzx 25,11,0
.LVL1045:
.LBB6122:
.LBB6112:
.LBB6102:
.LBB6092:
	.loc 3 655 0
	beq- 7,.L902
.LVL1046:
.L978:
.LBB6081:
.LBB6064:
	.loc 3 393 0
	lwz 0,60(31)
.L903:
.LBE6064:
.LBE6081:
.LBB6082:
	.loc 3 659 0
	cmpw 7,9,0
	beq- 7,.L943
.L1003:
	slwi 9,9,2
	add 28,28,9
.L910:
.LBE6082:
	.loc 3 669 0
	stw 25,0(28)
.LBE6092:
.LBE6102:
.LBE6112:
.LBE6122:
	.loc 4 473 0
	addi 27,27,1
.LVL1047:
	lwz 0,8(1)
.LBB6123:
.LBB6113:
.LBB6103:
.LBB6093:
	.loc 3 670 0
	lwz 9,56(31)
.LBE6093:
.LBE6103:
.LBE6113:
.LBE6123:
	.loc 4 473 0
	cmpw 7,0,27
.LBB6124:
.LBB6114:
.LBB6104:
.LBB6094:
	.loc 3 670 0
	addi 9,9,1
	stw 9,56(31)
.LBE6094:
.LBE6104:
.LBE6114:
.LBE6124:
	.loc 4 473 0
	bgt+ 7,.L958
.LVL1048:
.L899:
	.loc 4 477 0
	addi 29,1,92
	mr 3,24
	mr 4,29
.LEHB92:
	bl _ZN6idDictaSERKS_
	b .L851
.LVL1049:
.L902:
.LBB6125:
.LBB6115:
.LBB6105:
.LBB6095:
	.loc 3 656 0
	lwz 3,64(31)
.LBB6083:
.LBB6065:
	.loc 3 375 0
	cmpwi 7,3,0
.LBE6065:
.LBE6083:
	.loc 3 656 0
	mr 0,3
.LVL1050:
.LBB6084:
.LBB6066:
	.loc 3 375 0
	ble- 7,.L1000
	.loc 3 380 0
	lwz 11,60(31)
	cmpw 7,3,11
	beq- 7,.L903
.LVL1051:
	.loc 3 387 0
	cmpw 7,3,9
	.loc 3 386 0
	stw 3,60(31)
	.loc 3 387 0
	blt- 7,.L1001
.L907:
	.loc 3 392 0
	slwi 3,3,2
	addi 29,1,92
	bl _Znaj
.LVL1052:
	.loc 3 393 0
	lwz 9,56(31)
	.loc 3 392 0
	mr 28,3
	stw 3,68(31)
.LVL1053:
	.loc 3 393 0
	li 11,0
	cmpwi 7,9,0
	li 10,0
	bgt+ 7,.L965
	b .L978
.LVL1054:
.L1002:
	lwz 28,68(31)
.LVL1055:
.L965:
	.loc 3 394 0
	lwz 0,0(11)
	.loc 3 393 0
	addi 10,10,1
.LVL1056:
	.loc 3 394 0
	stwx 0,28,11
	.loc 3 393 0
	addi 11,11,4
	lwz 9,0(26)
	cmpw 7,10,9
	blt+ 7,.L1002
	lwz 0,60(31)
	lwz 28,68(31)
.LBE6066:
.LBE6084:
.LBB6085:
	.loc 3 659 0
	cmpw 7,9,0
	bne+ 7,.L1003
.LVL1057:
.L943:
	lwz 3,64(31)
	mr 10,9
.L905:
.LBB6079:
	.loc 3 662 0
	cmpwi 7,3,0
	mr 0,3
	bne- 7,.L911
	.loc 3 663 0
	stw 23,64(31)
	li 0,16
.L911:
	.loc 3 665 0
	add 11,0,9
.LVL1058:
	.loc 3 666 0
	divw 11,11,0
.LVL1059:
.LBB6071:
.LBB6072:
	.loc 3 375 0
	mullw. 0,11,0
.LVL1060:
	ble- 0,.L1004
	.loc 3 380 0
	cmpw 7,9,0
	beq- 7,.L1005
.LVL1061:
	.loc 3 387 0
	cmpw 7,0,10
	.loc 3 386 0
	stw 0,60(31)
	.loc 3 387 0
	bge- 7,.L915
	.loc 3 388 0
	stw 0,56(31)
.L915:
	.loc 3 392 0
	slwi 3,0,2
	addi 29,1,92
	bl _Znaj
.LVL1062:
	.loc 3 393 0
	lwz 0,56(31)
	.loc 3 392 0
	stw 3,68(31)
.LVL1063:
	.loc 3 393 0
	cmpwi 7,0,0
	ble- 7,.L916
	.loc 4 411 0
	addi 11,28,-4
.LBE6072:
.LBE6071:
	.loc 3 393 0
	li 9,0
	b .L917
.LVL1064:
.L1006:
.LBB6077:
.LBB6075:
	lwz 3,68(31)
.LVL1065:
.L917:
	.loc 3 394 0
	lwzu 10,4(11)
	slwi 0,9,2
	.loc 3 393 0
	addi 9,9,1
.LVL1066:
	.loc 3 394 0
	stwx 10,3,0
	.loc 3 393 0
	lwz 0,0(26)
	cmpw 7,9,0
	blt+ 7,.L1006
.LVL1067:
.L916:
	.loc 3 398 0
	cmpwi 7,28,0
	beq- 7,.L979
	.loc 3 399 0
	mr 3,28
	bl _ZdaPv
.L979:
	lwz 0,56(31)
	lwz 28,68(31)
.LVL1068:
	slwi 0,0,2
	add 28,28,0
	b .L910
.LVL1069:
.L1005:
	.loc 3 380 0
	slwi 10,10,2
	add 28,28,10
	b .L910
.LVL1070:
.L988:
.LBE6075:
.LBE6077:
.LBE6079:
.LBE6085:
.LBE6095:
.LBE6105:
.LBE6115:
.LBE6125:
	.loc 4 445 0
	lis 4,.LC56@ha
	mr 3,28
	la 4,.LC56@l(4)
	addi 29,1,92
	crxor 6,6,6
	bl _ZN7idLexer5ErrorEPKcz
.LVL1071:
.LBB6126:
.LBB5784:
	.loc 3 218 0
	lwz 0,8(1)
	cmpwi 7,0,0
	ble- 7,.L868
	li 31,0
.LVL1072:
	.loc 3 220 0
	li 26,0
.LVL1073:
.L872:
	.loc 3 219 0
	lwz 9,20(1)
	.loc 4 411 0
	slwi 28,31,2
	.loc 3 219 0
	lwzx 27,9,28
	add 9,9,28
	cmpwi 7,27,0
	beq- 7,.L869
.LVL1074:
.LBB5778:
.LBB5779:
.LBB5780:
.LBB5781:
.LBB5782:
.LBB5783:
	.loc 9 501 0
	mr 3,27
	addi 29,1,92
	bl _ZN5idStr8FreeDataEv
.LEHE92:
.LVL1075:
.LBE5783:
.LBE5782:
.LBE5781:
.LBE5780:
.LBE5779:
.LBE5778:
	.loc 3 219 0
	mr 3,27
	bl _ZdlPv
	lwz 9,20(1)
	add 9,9,28
.LVL1076:
.L869:
	.loc 3 220 0
	stw 26,0(9)
	.loc 3 218 0
	addi 31,31,1
.LVL1077:
	lwz 0,8(1)
	cmpw 7,31,0
	blt+ 7,.L872
	b .L868
.LVL1078:
.L1004:
.LBE5784:
.LBE6126:
.LBB6127:
.LBB6116:
.LBB6106:
.LBB6096:
.LBB6086:
.LBB6080:
.LBB6078:
.LBB6076:
.LBB6073:
.LBB6074:
	.loc 3 193 0
	cmpwi 7,28,0
	beq- 7,.L913
	.loc 3 194 0
	mr 3,28
	bl _ZdaPv
.LVL1079:
.L913:
	.loc 3 197 0
	stw 22,68(31)
	.loc 3 199 0
	li 28,0
	.loc 3 198 0
	stw 22,56(31)
	.loc 3 199 0
	stw 22,60(31)
	b .L910
.LVL1080:
.L992:
.LBE6074:
.LBE6073:
.LBE6076:
.LBE6078:
.LBE6080:
.LBE6086:
.LBE6096:
.LBE6106:
.LBE6116:
.LBE6127:
.LBB6128:
.LBB5759:
.LBB5751:
.LBB5746:
	.loc 3 380 0
	lwz 0,8(1)
	b .L827
.LVL1081:
.L1001:
.LBE5746:
.LBE5751:
.LBE5759:
.LBE6128:
.LBB6129:
.LBB6117:
.LBB6107:
.LBB6097:
.LBB6087:
.LBB6067:
	.loc 3 388 0
	stw 3,56(31)
	b .L907
.LVL1082:
.L997:
.LBE6067:
.LBE6087:
.LBE6097:
.LBE6107:
.LBE6117:
.LBE6129:
.LBB6130:
.LBB6049:
.LBB6040:
.LBB6018:
.LBB6011:
.LBB6001:
.LBB5987:
.LBB5974:
.LBB5971:
.LBB5968:
	stw 3,4(31)
	b .L887
.LVL1083:
.L991:
.LBE5968:
.LBE5971:
.LBE5974:
.LBE5987:
.LBE6001:
.LBE6011:
.LBE6018:
.LBE6040:
.LBE6049:
.LBE6130:
.LBB6131:
.LBB5760:
.LBB5752:
.LBB5747:
.LBB5742:
.LBB5743:
	.loc 3 198 0
	stw 26,8(1)
	.loc 3 199 0
	li 10,0
	stw 26,12(1)
	li 0,0
	b .L829
.LVL1084:
.L1007:
.LBE5743:
.LBE5742:
	.loc 3 393 0
	lwz 9,12(1)
	b .L827
.LVL1085:
.L982:
.LBE5747:
.LBE5752:
.LBE5760:
.LBE6131:
.LBB6132:
.LBB5510:
.LBB5495:
.LBB5492:
.LBB5489:
.LBB5485:
.LBB5486:
	.loc 3 194 0
	mr 3,31
.LVL1086:
	bl _ZdaPv
	.loc 3 197 0
	li 0,0
	stw 0,104(1)
	.loc 3 198 0
	stw 0,92(1)
	.loc 3 199 0
	stw 0,96(1)
	b .L814
.LVL1087:
.L1000:
.LBE5486:
.LBE5485:
.LBE5489:
.LBE5492:
.LBE5495:
.LBE5510:
.LBE6132:
.LBB6133:
.LBB6118:
.LBB6108:
.LBB6098:
.LBB6088:
.LBB6068:
.LBB6062:
.LBB6063:
	.loc 3 198 0
	stw 28,56(31)
	.loc 3 199 0
	li 9,0
	stw 28,60(31)
	li 10,0
	b .L905
.LVL1088:
.L996:
.LBE6063:
.LBE6062:
.LBE6068:
.LBE6088:
.LBE6098:
.LBE6108:
.LBE6118:
.LBE6133:
.LBB6134:
.LBB6050:
.LBB6041:
.LBB6019:
.LBB6012:
.LBB6002:
.LBB5988:
.LBB5975:
.LBB5972:
.LBB5969:
.LBB5965:
.LBB5966:
	.loc 3 194 0
	mr 3,29
.LVL1089:
	bl _ZdaPv
	.loc 3 197 0
	li 0,0
	stw 0,16(31)
	.loc 3 198 0
	stw 0,4(31)
	.loc 3 199 0
	stw 0,8(31)
	b .L885
.LVL1090:
.L953:
	mr 31,3
.LVL1091:
.LBE5966:
.LBE5965:
.LBE5969:
.LBE5972:
.LBE5975:
.LBE5988:
.LBE6002:
.LBE6012:
.LBE6019:
.LBE6041:
.LBE6050:
.LBE6134:
.LBB6135:
.LBB5814:
.LBB5811:
.LBB5803:
.LBB5804:
.LBB5805:
	.loc 11 130 0
	addi 3,1,108
.LVL1092:
	bl _ZN11idHashIndex4FreeEv
.LVL1093:
.L924:
.LBE5805:
.LBE5804:
.LBE5803:
.LBB5806:
.LBB5807:
.LBB5808:
	.loc 3 181 0
	mr 3,29
	bl _ZN6idListI10idKeyValueE5ClearEv
.LVL1094:
.L824:
.LBE5808:
.LBE5807:
.LBE5806:
.LBE5811:
.LBE5814:
.LBE6135:
.LBB6136:
.LBB6137:
.LBB6138:
	addi 3,1,8
	bl _ZN6idListIP14idMapBrushSideE5ClearEv
.LVL1095:
.LBE6138:
.LBE6137:
.LBE6136:
.LBB6139:
.LBB6140:
.LBB6141:
.LBB6142:
.LBB6143:
	.loc 9 501 0
	mr 3,30
	bl _ZN5idStr8FreeDataEv
	mr 3,31
.LEHB93:
	bl _Unwind_Resume
.LEHE93:
.LVL1096:
.L947:
	mr 31,3
.LVL1097:
.LBE6143:
.LBE6142:
.LBE6141:
.LBE6140:
.LBE6139:
.LBB6144:
.LBB5511:
.LBB5512:
.LBB5513:
	.loc 11 130 0
	addi 3,1,108
.LVL1098:
	bl _ZN11idHashIndex4FreeEv
.LVL1099:
.L822:
.LBE5513:
.LBE5512:
.LBE5511:
.LBB5514:
.LBB5515:
.LBB5516:
	.loc 3 181 0
	addi 3,1,92
	addi 30,1,136
	bl _ZN6idListI10idKeyValueE5ClearEv
	b .L824
.LVL1100:
.L948:
	mr 31,3
.LVL1101:
.LBE5516:
.LBE5515:
.LBE5514:
.LBE6144:
.LBB6145:
.LBB5715:
.LBB5709:
.LBB5710:
.LBB5711:
	.loc 9 501 0
	addi 3,1,24
	bl _ZN5idStr8FreeDataEv
	addi 29,1,92
.LVL1102:
.L881:
.LBE5711:
.LBE5710:
.LBE5709:
.LBE5715:
.LBE6145:
	.loc 4 479 0
	mr 3,29
	bl _ZN6idDictD1Ev
	b .L824
.LVL1103:
.L946:
	mr 31,3
	b .L822
.LVL1104:
.L952:
	mr 31,3
	b .L924
.LVL1105:
.L945:
	mr 31,3
.LVL1106:
.LBB6146:
.LBB6147:
.LBB6148:
	.loc 9 501 0
	addi 3,1,24
	bl _ZN5idStr8FreeDataEv
	addi 29,1,92
	b .L881
.LVL1107:
.L950:
	mr 28,3
.LVL1108:
.L893:
.LBE6148:
.LBE6147:
.LBE6146:
.LBB6149:
.LBB6051:
.LBB6042:
.LBB6020:
.LBB6013:
.LBB6003:
.LBB5989:
.LBB5990:
.LBB5991:
	.loc 3 181 0
	mr 3,24
	bl _ZN6idListI10idKeyValueE5ClearEv
.LVL1109:
.L895:
.LBE5991:
.LBE5990:
.LBE5989:
.LBE6003:
.LBE6013:
.LBE6020:
.LBE6042:
.LBE6051:
.LBE6149:
	.loc 4 472 0
	mr 3,31
	addi 29,1,92
	bl _ZdlPv
	mr 31,28
.LVL1110:
	b .L881
.LVL1111:
.L944:
	mr 31,3
	b .L881
.LVL1112:
.L951:
	mr 29,3
.LVL1113:
.LBB6150:
.LBB6052:
.LBB6043:
.LBB6021:
.LBB6014:
.LBB6004:
.LBB5992:
.LBB5993:
.LBB5994:
	.loc 11 130 0
	mr 3,28
	bl _ZN11idHashIndex4FreeEv
	mr 28,29
.LVL1114:
	b .L893
.LVL1115:
.L949:
	mr 28,3
.LVL1116:
.LBE5994:
.LBE5993:
.LBE5992:
.LBE6004:
.LBE6014:
.LBE6021:
.LBE6043:
.LBB6044:
.LBB6045:
.LBB6046:
	.loc 3 181 0
	addi 3,31,56
	bl _ZN6idListIP14idMapBrushSideE5ClearEv
.LBE6046:
.LBE6045:
.LBE6044:
	.loc 7 101 0
	mr 3,31
	bl _ZN14idMapPrimitiveD2Ev
	b .L895
.LBE6052:
.LBE6150:
.LBE6157:
	.cfi_endproc
.LFE2546:
	.section	.gcc_except_table
.LLSDA2546:
	.byte	0xff
	.byte	0xff
	.byte	0x1
	.uleb128 .LLSDACSE2546-.LLSDACSB2546
.LLSDACSB2546:
	.uleb128 .LEHB79-.LFB2546
	.uleb128 .LEHE79-.LEHB79
	.uleb128 .L946-.LFB2546
	.uleb128 0
	.uleb128 .LEHB80-.LFB2546
	.uleb128 .LEHE80-.LEHB80
	.uleb128 .L947-.LFB2546
	.uleb128 0
	.uleb128 .LEHB81-.LFB2546
	.uleb128 .LEHE81-.LEHB81
	.uleb128 .L944-.LFB2546
	.uleb128 0
	.uleb128 .LEHB82-.LFB2546
	.uleb128 .LEHE82-.LEHB82
	.uleb128 .L953-.LFB2546
	.uleb128 0
	.uleb128 .LEHB83-.LFB2546
	.uleb128 .LEHE83-.LEHB83
	.uleb128 .L952-.LFB2546
	.uleb128 0
	.uleb128 .LEHB84-.LFB2546
	.uleb128 .LEHE84-.LEHB84
	.uleb128 0
	.uleb128 0
	.uleb128 .LEHB85-.LFB2546
	.uleb128 .LEHE85-.LEHB85
	.uleb128 .L944-.LFB2546
	.uleb128 0
	.uleb128 .LEHB86-.LFB2546
	.uleb128 .LEHE86-.LEHB86
	.uleb128 .L945-.LFB2546
	.uleb128 0
	.uleb128 .LEHB87-.LFB2546
	.uleb128 .LEHE87-.LEHB87
	.uleb128 .L948-.LFB2546
	.uleb128 0
	.uleb128 .LEHB88-.LFB2546
	.uleb128 .LEHE88-.LEHB88
	.uleb128 .L944-.LFB2546
	.uleb128 0
	.uleb128 .LEHB89-.LFB2546
	.uleb128 .LEHE89-.LEHB89
	.uleb128 .L950-.LFB2546
	.uleb128 0
	.uleb128 .LEHB90-.LFB2546
	.uleb128 .LEHE90-.LEHB90
	.uleb128 .L951-.LFB2546
	.uleb128 0
	.uleb128 .LEHB91-.LFB2546
	.uleb128 .LEHE91-.LEHB91
	.uleb128 .L949-.LFB2546
	.uleb128 0
	.uleb128 .LEHB92-.LFB2546
	.uleb128 .LEHE92-.LEHB92
	.uleb128 .L944-.LFB2546
	.uleb128 0
	.uleb128 .LEHB93-.LFB2546
	.uleb128 .LEHE93-.LEHB93
	.uleb128 0
	.uleb128 0
.LLSDACSE2546:
	.section	".text"
	.size	_ZN10idMapBrush7ParseQ3ER7idLexerRK6idVec3, .-_ZN10idMapBrush7ParseQ3ER7idLexerRK6idVec3
	.align 2
	.globl _ZN11idMapEntity5ParseER7idLexerbf
	.type	_ZN11idMapEntity5ParseER7idLexerbf, @function
_ZN11idMapEntity5ParseER7idLexerbf:
.LFB2549:
	.loc 4 540 0
	.cfi_startproc
	.cfi_personality 0,__gxx_personality_v0
	.cfi_lsda 0,.LLSDA2549
.LVL1117:
	mflr 0
	stwu 1,-264(1)
.LCFI90:
	.cfi_def_cfa_offset 264
	.cfi_register 65, 0
.LVL1118:
.LBB6322:
.LBB6323:
.LBB6324:
.LBB6325:
.LBB6326:
	.loc 9 357 0
	li 9,20
.LBE6326:
.LBE6325:
.LBE6324:
.LBE6323:
.LBE6322:
	.loc 4 540 0
	stw 27,236(1)
	mr 27,4
	.cfi_offset 27, -28
	stw 0,268(1)
.LBB6737:
	.loc 4 549 0
	addi 4,1,112
.LVL1119:
.LBB6333:
.LBB6331:
.LBB6329:
.LBB6327:
	.loc 9 356 0
	li 0,0
	.cfi_offset 65, 4
	.loc 9 357 0
	stw 9,120(1)
	.loc 9 358 0
	addi 9,1,124
.LBE6327:
.LBE6329:
.LBE6331:
.LBE6333:
.LBE6737:
	.loc 4 540 0
	stfd 31,256(1)
	stw 30,248(1)
	fmr 31,1
	.cfi_offset 30, -16
	.cfi_offset 63, -8
	stw 18,200(1)
	mr 30,3
	stw 19,204(1)
	stw 20,208(1)
	stw 21,212(1)
	stw 22,216(1)
	stw 23,220(1)
	stw 24,224(1)
	stw 25,228(1)
	stw 26,232(1)
	stw 28,240(1)
	stw 29,244(1)
	stw 31,252(1)
.LBB6738:
.LBB6334:
.LBB6332:
.LBB6330:
.LBB6328:
	.loc 9 356 0
	stw 0,112(1)
	.loc 9 358 0
	stw 9,116(1)
	.loc 9 359 0
	stb 0,124(1)
.LEHB94:
.LBE6328:
.LBE6330:
.LBE6332:
.LBE6334:
	.loc 4 549 0
	.cfi_offset 31, -12
	.cfi_offset 29, -20
	.cfi_offset 28, -24
	.cfi_offset 26, -32
	.cfi_offset 25, -36
	.cfi_offset 24, -40
	.cfi_offset 23, -44
	.cfi_offset 22, -48
	.cfi_offset 21, -52
	.cfi_offset 20, -56
	.cfi_offset 19, -60
	.cfi_offset 18, -64
	bl _ZN7idLexer9ReadTokenEP7idToken
.LVL1120:
	cmpwi 7,3,0
	beq- 7,.L1116
.LVL1121:
.LBB6335:
.LBB6336:
.LBB6337:
	.loc 9 653 0
	lis 29,.LC33@ha
	lwz 3,116(1)
	la 29,.LC33@l(29)
	mr 4,29
	bl _ZN5idStr3CmpEPKcS1_
.LBE6337:
.LBE6336:
.LBE6335:
	.loc 4 553 0
	cmpwi 7,3,0
	bne- 7,.L1141
	.loc 4 558 0
	li 3,60
	bl _Znwj
.LEHE94:
.LBB6338:
.LBB6339:
.LBB6340:
.LBB6341:
.LBB6342:
.LBB6343:
.LBB6344:
.LBB6345:
	.loc 3 197 0
	li 0,0
.LBE6345:
.LBE6344:
	.loc 3 159 0
	li 9,16
.LBE6343:
.LBE6342:
	.loc 10 163 0
	addi 28,3,16
.LBB6355:
.LBB6352:
	.loc 3 159 0
	stw 9,8(3)
.LBB6349:
.LBB6346:
	.loc 3 197 0
	stw 0,12(3)
.LBE6346:
.LBE6349:
.LBE6352:
.LBE6355:
.LBE6341:
.LBE6340:
.LBE6339:
.LBE6338:
	.loc 4 558 0
	mr 31,3
.LVL1122:
.LBB6446:
.LBB6439:
.LBB6406:
.LBB6398:
.LBB6356:
.LBB6353:
.LBB6350:
.LBB6347:
	.loc 3 198 0
	stw 0,0(3)
.LBE6347:
.LBE6350:
.LBE6353:
.LBE6356:
.LBB6357:
.LBB6358:
	.loc 11 112 0
	li 4,1024
.LBE6358:
.LBE6357:
.LBB6360:
.LBB6354:
.LBB6351:
.LBB6348:
	.loc 3 199 0
	stw 0,4(3)
.LBE6348:
.LBE6351:
.LBE6354:
.LBE6360:
.LBB6361:
.LBB6359:
	.loc 11 112 0
	li 5,1024
	mr 3,28
.LVL1123:
.LEHB95:
	bl _ZN11idHashIndex4InitEii
.LEHE95:
.LVL1124:
.LBE6359:
.LBE6361:
.LBB6362:
.LBB6363:
	.loc 3 319 0
	lwz 26,12(31)
	.loc 3 317 0
	li 0,16
	stw 0,8(31)
	.loc 3 319 0
	cmpwi 7,26,0
	beq- 7,.L1011
	.loc 3 321 0
	lwz 9,0(31)
	.loc 3 323 0
	lwz 0,4(31)
	.loc 3 321 0
	addi 3,9,15
.LVL1125:
	.loc 3 322 0
	srawi 3,3,4
	addze 3,3
.LVL1126:
	slwi 3,3,4
.LVL1127:
	.loc 3 323 0
	cmpw 7,3,0
	beq- 7,.L1011
.LVL1128:
.LBB6364:
.LBB6365:
	.loc 3 375 0
	cmpwi 7,3,0
	ble- 7,.L1142
.LVL1129:
	.loc 3 387 0
	cmpw 7,9,3
	.loc 3 386 0
	stw 3,4(31)
	.loc 3 387 0
	bgt- 7,.L1143
.L1013:
	.loc 3 392 0
	slwi 3,3,3
.LVL1130:
.LEHB96:
	bl _Znaj
.LVL1131:
	.loc 3 393 0
	lwz 0,0(31)
	.loc 3 392 0
	stw 3,12(31)
.LVL1132:
	.loc 3 393 0
	cmpwi 7,0,0
	ble- 7,.L1014
	.loc 4 540 0
	addi 8,26,-8
.LBE6365:
.LBE6364:
.LBE6363:
.LBE6362:
.LBE6398:
.LBE6406:
.LBE6439:
.LBE6446:
.LBE6738:
	.loc 3 393 0
	li 9,0
	b .L1015
.LVL1133:
.L1144:
.LBB6739:
.LBB6447:
.LBB6440:
.LBB6407:
.LBB6399:
.LBB6377:
.LBB6374:
.LBB6371:
.LBB6368:
	lwz 3,12(31)
.LVL1134:
.L1015:
	.loc 3 394 0
	addi 8,8,8
	slwi 0,9,3
	lwz 10,0(8)
	add 3,3,0
	lwz 11,4(8)
	.loc 3 393 0
	addi 9,9,1
.LVL1135:
	.loc 3 394 0
	stw 10,0(3)
	stw 11,4(3)
	.loc 3 393 0
	lwz 0,0(31)
	cmpw 7,9,0
	blt+ 7,.L1144
.LVL1136:
.L1014:
	.loc 3 399 0
	mr 3,26
	bl _ZdaPv
.LVL1137:
.L1011:
.LBE6368:
.LBE6371:
.LBE6374:
.LBE6377:
.LBB6378:
.LBB6379:
	.loc 11 371 0
	li 0,16
.LBE6379:
.LBE6378:
.LBB6381:
.LBB6382:
	.loc 11 341 0
	mr 3,28
.LBE6382:
.LBE6381:
.LBB6386:
.LBB6380:
	.loc 11 371 0
	stw 0,32(31)
.LVL1138:
.LBE6380:
.LBE6386:
.LBB6387:
.LBB6383:
	.loc 11 341 0
	bl _ZN11idHashIndex4FreeEv
.LEHE96:
.LBE6383:
.LBE6387:
.LBE6399:
.LBE6407:
.LBB6408:
.LBB6409:
	.loc 10 183 0
	lwz 9,0(31)
.LBE6409:
.LBE6408:
.LBB6415:
.LBB6416:
.LBB6417:
.LBB6418:
	.loc 3 197 0
	li 0,0
.LBE6418:
.LBE6417:
.LBE6416:
.LBE6415:
.LBB6425:
.LBB6400:
.LBB6388:
.LBB6384:
	.loc 11 342 0
	li 11,128
.LBE6384:
.LBE6388:
.LBE6400:
.LBE6425:
.LBB6426:
.LBB6423:
.LBB6421:
.LBB6419:
	.loc 3 197 0
	stw 0,56(31)
.LBE6419:
.LBE6421:
.LBE6423:
.LBE6426:
.LBB6427:
.LBB6412:
	.loc 10 183 0
	cmpwi 7,9,0
.LBE6412:
.LBE6427:
.LBB6428:
.LBB6401:
.LBB6389:
.LBB6385:
	.loc 11 343 0
	li 9,16
	.loc 11 342 0
	stw 11,16(31)
	.loc 11 343 0
	stw 9,24(31)
.LVL1139:
.LBE6385:
.LBE6389:
.LBE6401:
.LBE6428:
.LBB6429:
.LBB6424:
	.loc 3 159 0
	stw 9,52(31)
.LVL1140:
.LBB6422:
.LBB6420:
	.loc 3 198 0
	stw 0,44(31)
	.loc 3 199 0
	stw 0,48(31)
.LVL1141:
.LBE6420:
.LBE6422:
.LBE6424:
.LBE6429:
.LBB6430:
.LBB6413:
	.loc 10 183 0
	beq- 7,.L1145
.L1017:
.LVL1142:
.LBE6413:
.LBE6430:
.LBE6440:
.LBE6447:
	.loc 4 560 0 discriminator 2
	cmpwi 7,27,0
	beq- 7,.L1025
.LVL1143:
.LBB6448:
.LBB6449:
	.loc 3 429 0
	lwz 0,44(31)
	.loc 3 419 0
	li 9,256
	stw 9,52(31)
	.loc 3 429 0
	cmpwi 7,0,1024
	.loc 3 428 0
	li 0,1024
	.loc 3 427 0
	lwz 28,56(31)
.LVL1144:
	.loc 3 428 0
	stw 0,48(31)
	.loc 3 429 0
	bgt- 7,.L1146
.L1026:
	.loc 3 434 0
	li 3,4096
.LEHB97:
	bl _Znaj
.LVL1145:
	.loc 3 435 0
	lwz 0,44(31)
	.loc 3 434 0
	stw 3,56(31)
.LVL1146:
	.loc 3 435 0
	cmpwi 7,0,0
	ble- 7,.L1027
	.loc 4 540 0
	addi 11,28,-4
.LBE6449:
.LBE6448:
.LBE6739:
	.loc 3 435 0
	li 9,0
	b .L1028
.LVL1147:
.L1147:
.LBB6740:
.LBB6452:
.LBB6450:
	lwz 3,56(31)
.LVL1148:
.L1028:
	.loc 3 436 0
	lwzu 10,4(11)
	slwi 0,9,2
	.loc 3 435 0
	addi 9,9,1
.LVL1149:
	.loc 3 436 0
	stwx 10,3,0
	.loc 3 435 0
	lwz 0,44(31)
	cmpw 7,9,0
	blt+ 7,.L1147
.LVL1150:
.L1027:
	.loc 3 440 0
	cmpwi 7,28,0
	beq- 7,.L1025
	.loc 3 441 0
	mr 3,28
	bl _ZdaPv
.LVL1151:
.L1025:
.LBE6450:
.LBE6452:
.LBB6453:
.LBB6454:
	.loc 5 416 0
	li 0,0
.LBE6454:
.LBE6453:
.LBB6456:
.LBB6457:
.LBB6458:
	.loc 9 653 0
	lis 27,.LC46@ha
.LBE6458:
.LBE6457:
.LBB6461:
.LBB6462:
	.loc 4 626 0
	lis 22,.LC21@ha
	.loc 4 634 0
	lis 19,.LC32@ha
	lis 18,.LC68@ha
	.loc 4 629 0
	lis 20,.LC67@ha
.LBE6462:
.LBB6520:
.LBB6521:
	.loc 9 695 0
	lis 21,.LC61@ha
.LBE6521:
.LBE6520:
.LBE6461:
.LBE6456:
.LBB6714:
.LBB6455:
	.loc 5 416 0
	stw 0,40(1)
	stw 0,36(1)
	.loc 4 565 0
	li 25,0
	.loc 5 416 0
	stw 0,32(1)
.LVL1152:
.LBE6455:
.LBE6714:
.LBB6715:
.LBB6703:
.LBB6459:
	.loc 9 653 0
	la 27,.LC46@l(27)
.LBE6459:
.LBE6703:
.LBB6704:
.LBB6524:
	.loc 4 626 0
	la 22,.LC21@l(22)
	.loc 4 634 0
	la 19,.LC32@l(19)
	la 18,.LC68@l(18)
	.loc 4 628 0
	lis 23,.LC66@ha
	.loc 4 629 0
	la 20,.LC67@l(20)
.LBE6524:
.LBB6525:
.LBB6522:
	.loc 9 695 0
	la 21,.LC61@l(21)
.LVL1153:
.L1133:
.LBE6522:
.LBE6525:
.LBE6704:
	.loc 4 567 0
	mr 3,30
	addi 4,1,112
	bl _ZN7idLexer9ReadTokenEP7idToken
	cmpwi 7,3,0
	beq- 7,.L1148
.LVL1154:
.L1030:
.LBB6705:
.LBB6460:
	.loc 9 653 0
	lwz 3,116(1)
	mr 4,27
	bl _ZN5idStr3CmpEPKcS1_
.LBE6460:
.LBE6705:
	.loc 4 571 0
	cmpwi 7,3,0
	beq- 7,.L1009
.LVL1155:
.LBB6706:
.LBB6526:
.LBB6527:
	.loc 9 653 0
	lwz 3,116(1)
	mr 4,29
	bl _ZN5idStr3CmpEPKcS1_
.LBE6527:
.LBE6526:
	.loc 4 575 0
	cmpwi 7,3,0
	bne- 7,.L1031
	.loc 4 577 0
	mr 3,30
	addi 4,1,112
	bl _ZN7idLexer9ReadTokenEP7idToken
	cmpwi 7,3,0
	beq- 7,.L1149
	.loc 4 582 0
	cmpwi 7,25,0
	beq- 7,.L1033
.LVL1156:
.LBB6528:
.LBB6529:
	.loc 5 416 0
	li 0,0
	stw 0,40(1)
	stw 0,36(1)
	stw 0,32(1)
.LVL1157:
.L1033:
.LBE6529:
.LBE6528:
.LBB6530:
.LBB6523:
	.loc 9 695 0
	lwz 3,116(1)
	mr 4,21
	li 5,5
	bl _ZN5idStr5IcmpnEPKcS1_i
.LBE6523:
.LBE6530:
	.loc 4 587 0
	cmpwi 7,3,0
.LBB6531:
.LBB6532:
	.loc 9 690 0
	lwz 3,116(1)
.LBE6532:
.LBE6531:
	.loc 4 587 0
	bne- 7,.L1034
.LVL1158:
.LBB6534:
.LBB6533:
	.loc 9 690 0
	lis 4,.LC62@ha
	la 4,.LC62@l(4)
	bl _ZN5idStr4IcmpEPKcS1_
.LBE6533:
.LBE6534:
	.loc 4 588 0
	cmpwi 7,3,0
	li 5,1
	beq- 7,.L1035
.LVL1159:
.LBB6535:
.LBB6536:
	.loc 9 690 0 discriminator 2
	lis 4,.LC63@ha
	lwz 3,116(1)
	la 4,.LC63@l(4)
	bl _ZN5idStr4IcmpEPKcS1_
.LBE6536:
.LBE6535:
	.loc 4 588 0 discriminator 2
	cntlzw 5,3
	srwi 5,5,5
.LVL1160:
.L1035:
	.loc 4 588 0 is_stmt 0 discriminator 4
	fmr 1,31
	mr 3,30
	addi 4,1,32
	bl _ZN10idMapBrush5ParseER7idLexerRK6idVec3bf
.LVL1161:
	.loc 4 589 0 is_stmt 1 discriminator 4
	mr. 24,3
	beq- 0,.L1116
.LVL1162:
.LBB6537:
.LBB6538:
.LBB6539:
.LBB6540:
	.loc 3 655 0
	lwz 28,56(31)
.LBE6540:
.LBE6539:
	.loc 7 175 0
	addi 26,31,44
.LVL1163:
.LBB6563:
.LBB6558:
	.loc 3 655 0
	cmpwi 7,28,0
	beq- 7,.L1036
	lwz 0,44(31)
	lwz 9,48(31)
.LVL1164:
.L1037:
.LBB6541:
	.loc 3 659 0
	cmpw 7,0,9
	beq- 7,.L1112
.LVL1165:
.L1134:
.LBE6541:
.LBE6558:
.LBE6563:
.LBE6538:
.LBE6537:
.LBB6572:
.LBB6573:
.LBB6574:
.LBB6575:
.LBB6576:
.LBB6577:
.LBB6578:
.LBB6579:
	.loc 3 399 0
	slwi 0,0,2
	add 28,28,0
.L1080:
.LBE6579:
.LBE6578:
.LBE6577:
.LBE6576:
	.loc 3 669 0
	stw 24,0(28)
.LBE6575:
.LBE6574:
.LBE6573:
.LBE6572:
.LBE6706:
	.loc 4 567 0
	mr 3,30
	addi 4,1,112
.LBB6707:
.LBB6641:
.LBB6632:
.LBB6622:
.LBB6612:
	.loc 3 670 0
	lwz 9,44(31)
	addi 0,9,1
	stw 0,44(31)
.LVL1166:
.LBE6612:
.LBE6622:
.LBE6632:
.LBE6641:
.LBE6707:
	.loc 4 567 0
	bl _ZN7idLexer9ReadTokenEP7idToken
	cmpwi 7,3,0
	bne+ 7,.L1030
.LVL1167:
.L1148:
	.loc 4 568 0
	lis 4,.LC59@ha
	mr 3,30
	la 4,.LC59@l(4)
	crxor 6,6,6
	bl _ZN7idLexer5ErrorEPKcz
.LEHE97:
.LVL1168:
.L1116:
.LBB6708:
	.loc 4 607 0
	li 31,0
.L1009:
.LVL1169:
.LBE6708:
.LBE6715:
.LBB6716:
.LBB6717:
.LBB6718:
.LBB6719:
.LBB6720:
	.loc 9 501 0
	addi 3,1,112
.LEHB98:
	bl _ZN5idStr8FreeDataEv
.LEHE98:
.LBE6720:
.LBE6719:
.LBE6718:
.LBE6717:
.LBE6716:
.LBE6740:
	.loc 4 641 0
	lwz 0,268(1)
	mr 3,31
	lwz 18,200(1)
	mtlr 0
	lwz 19,204(1)
	lwz 20,208(1)
	lwz 21,212(1)
	lwz 22,216(1)
	lwz 23,220(1)
	lwz 24,224(1)
	lwz 25,228(1)
	lwz 26,232(1)
	lwz 27,236(1)
	lwz 28,240(1)
	lwz 29,244(1)
	lwz 30,248(1)
.LVL1170:
	lwz 31,252(1)
	lfd 31,256(1)
.LVL1171:
	addi 1,1,264
	.cfi_remember_state
.LCFI91:
	.cfi_def_cfa_offset 0
	.cfi_restore 63
	.cfi_restore 31
	.cfi_restore 30
	.cfi_restore 29
	.cfi_restore 28
	.cfi_restore 27
	.cfi_restore 26
	.cfi_restore 25
	.cfi_restore 24
	.cfi_restore 23
	.cfi_restore 22
	.cfi_restore 21
	.cfi_restore 20
	.cfi_restore 19
	.cfi_restore 18
	blr
.LVL1172:
.L1141:
.LCFI92:
	.cfi_restore_state
.LBB6741:
	.loc 4 554 0
	lis 4,.LC58@ha
	lwz 5,116(1)
	mr 3,30
	la 4,.LC58@l(4)
.LEHB99:
	crxor 6,6,6
	bl _ZN7idLexer5ErrorEPKcz
.LEHE99:
	b .L1116
.LVL1173:
.L1031:
.LBB6721:
.LBB6709:
.LBB6642:
.LBB6463:
	.loc 4 973 0
	lwz 26,112(1)
.LBE6463:
.LBB6476:
.LBB6477:
.LBB6478:
	.loc 9 357 0
	li 9,20
	.loc 9 356 0
	li 0,0
	.loc 9 358 0
	addi 3,1,88
.LBE6478:
.LBE6477:
.LBE6476:
.LBB6483:
.LBB6464:
	.loc 9 534 0
	addi 4,26,1
.LBE6464:
.LBE6483:
.LBB6484:
.LBB6481:
.LBB6479:
	.loc 9 357 0
	stw 9,84(1)
.LBE6479:
.LBE6481:
.LBE6484:
.LBB6485:
.LBB6471:
.LBB6465:
.LBB6466:
	.loc 9 350 0
	cmpwi 7,4,20
.LBE6466:
.LBE6465:
.LBE6471:
.LBE6485:
.LBB6486:
.LBB6487:
.LBB6488:
	.loc 9 357 0
	stw 9,52(1)
	.loc 9 358 0
	addi 9,1,56
.LBE6488:
.LBE6487:
.LBE6486:
.LBB6491:
.LBB6482:
.LBB6480:
	.loc 9 356 0
	stw 0,76(1)
	.loc 9 358 0
	stw 3,80(1)
	.loc 9 359 0
	stb 0,88(1)
.LVL1174:
.LBE6480:
.LBE6482:
.LBE6491:
.LBB6492:
.LBB6490:
.LBB6489:
	.loc 9 356 0
	stw 0,44(1)
	.loc 9 358 0
	stw 9,48(1)
	.loc 9 359 0
	stb 0,56(1)
.LVL1175:
.LBE6489:
.LBE6490:
.LBE6492:
.LBB6493:
.LBB6472:
.LBB6469:
.LBB6467:
	.loc 9 350 0
	bgt- 7,.L1150
.LVL1176:
.L1089:
.LBE6467:
.LBE6469:
	.loc 9 535 0
	lwz 4,116(1)
	mr 5,26
	addi 28,1,44
	bl memcpy
	.loc 9 536 0
	lwz 9,80(1)
	li 0,0
.LBE6472:
.LBE6493:
	.loc 4 616 0
	mr 3,30
.LBB6494:
.LBB6473:
	.loc 9 536 0
	stbx 0,9,26
.LBE6473:
.LBE6494:
	.loc 4 616 0
	addi 4,1,112
.LBB6495:
.LBB6474:
	.loc 9 537 0
	stw 26,76(1)
.LEHB100:
.LBE6474:
.LBE6495:
	.loc 4 616 0
	bl _ZN7idLexer15ReadTokenOnLineEP7idToken
.LVL1177:
.LBB6496:
	.loc 4 973 0
	lwz 26,112(1)
	addi 28,1,44
.LBB6497:
.LBB6498:
.LBB6499:
	.loc 9 350 0
	lwz 0,52(1)
.LBE6499:
.LBE6498:
	.loc 9 534 0
	addi 4,26,1
.LVL1178:
.LBB6502:
.LBB6500:
	.loc 9 350 0
	cmpw 7,4,0
	bgt- 7,.L1151
.LVL1179:
.L1090:
.LBE6500:
.LBE6502:
	.loc 9 535 0
	lwz 3,48(1)
	mr 5,26
	lwz 4,116(1)
	bl memcpy
	.loc 9 536 0
	lwz 9,48(1)
	li 0,0
.LBE6497:
.LBE6496:
	.loc 4 621 0
	mr 3,28
.LBB6506:
.LBB6504:
	.loc 9 536 0
	stbx 0,9,26
	.loc 9 537 0
	stw 26,44(1)
.LBE6504:
.LBE6506:
	.loc 4 621 0
	bl _ZN5idStr23StripTrailingWhitespaceEv
	.loc 4 622 0
	addi 3,1,76
	bl _ZN5idStr23StripTrailingWhitespaceEv
.LVL1180:
	.loc 4 624 0
	lwz 4,80(1)
	mr 3,31
	lwz 5,4(28)
	bl _ZN6idDict3SetEPKcS1_
.LVL1181:
	.loc 4 626 0
	lwz 3,80(1)
	mr 4,22
	bl _ZN5idStr4IcmpEPKcS1_
.LEHE100:
	cmpwi 7,3,0
	bne- 7,.L1091
	.loc 4 628 0
	lfd 0,.LC66@l(23)
	mr 5,1
	.loc 4 629 0
	lwz 3,4(28)
	mr 4,20
	.loc 4 628 0
	stfdu 0,24(5)
.LVL1182:
	.loc 4 629 0
	addi 6,1,16
	addi 7,1,8
	.loc 4 628 0
	stfd 0,8(1)
	stfd 0,16(1)
	.loc 4 629 0
	crxor 6,6,6
	bl sscanf
	.loc 4 630 0
	lfd 12,24(1)
	.loc 4 631 0
	lfd 13,16(1)
	.loc 4 632 0
	lfd 0,8(1)
	.loc 4 630 0
	frsp 12,12
	.loc 4 631 0
	frsp 13,13
	.loc 4 632 0
	frsp 0,0
	.loc 4 630 0
	stfs 12,32(1)
	.loc 4 631 0
	stfs 13,36(1)
	.loc 4 632 0
	stfs 0,40(1)
.LVL1183:
.L1092:
.LBB6507:
.LBB6508:
.LBB6509:
	.loc 9 501 0
	mr 3,28
.LEHB101:
	bl _ZN5idStr8FreeDataEv
.LEHE101:
.LVL1184:
.LBE6509:
.LBE6508:
.LBE6507:
.LBB6510:
.LBB6511:
	addi 3,1,76
.LEHB102:
	bl _ZN5idStr8FreeDataEv
.LEHE102:
	b .L1133
.LVL1185:
.L1091:
.LBE6511:
.LBE6510:
	.loc 4 634 0
	lwz 3,80(1)
	mr 4,19
.LEHB103:
	bl _ZN5idStr4IcmpEPKcS1_
	cmpwi 7,3,0
	bne+ 7,.L1092
.LVL1186:
	lwz 3,4(28)
	mr 4,18
	bl _ZN5idStr4IcmpEPKcS1_
.LEHE103:
	cmpwi 7,3,0
	bne- 7,.L1092
	.loc 4 635 0
	li 25,1
	b .L1092
.LVL1187:
.L1034:
.LBE6642:
.LBB6643:
.LBB6644:
	.loc 9 695 0
	lis 4,.LC64@ha
	li 5,5
	la 4,.LC64@l(4)
.LEHB104:
	bl _ZN5idStr5IcmpnEPKcS1_i
.LBE6644:
.LBE6643:
	.loc 4 595 0
	cmpwi 7,3,0
	bne- 7,.L1054
.LVL1188:
.LBB6645:
.LBB6646:
	.loc 9 690 0
	lis 4,.LC65@ha
	lwz 3,116(1)
	la 4,.LC65@l(4)
	bl _ZN5idStr4IcmpEPKcS1_
.LBE6646:
.LBE6645:
	.loc 4 596 0
	fmr 1,31
	cntlzw 5,3
	srwi 5,5,5
	mr 3,30
	addi 4,1,32
	bl _ZN10idMapPatch5ParseER7idLexerRK6idVec3bf
.LVL1189:
	.loc 4 597 0
	mr. 24,3
	beq- 0,.L1116
.LVL1190:
.LBB6647:
.LBB6648:
.LBB6649:
.LBB6650:
	.loc 3 655 0
	lwz 28,56(31)
.LBE6650:
.LBE6649:
	.loc 7 175 0
	addi 26,31,44
.LVL1191:
.LBB6676:
.LBB6671:
	.loc 3 655 0
	cmpwi 7,28,0
	beq- 7,.L1055
	lwz 0,44(31)
	lwz 9,48(31)
.LVL1192:
.L1056:
.LBB6651:
	.loc 3 659 0
	cmpw 7,0,9
	bne+ 7,.L1134
	lwz 3,52(31)
	mr 11,0
.L1058:
.LBB6652:
	.loc 3 662 0
	cmpwi 7,3,0
	beq- 7,.L1152
.L1064:
	.loc 3 665 0
	add 9,11,3
.LVL1193:
	.loc 3 666 0
	divw 9,9,3
.LVL1194:
.LBB6653:
.LBB6654:
	.loc 3 375 0
	mullw. 3,9,3
.LVL1195:
	ble- 0,.L1139
	.loc 3 380 0
	cmpw 7,3,11
	beq- 7,.L1134
.LVL1196:
	.loc 3 387 0
	cmpw 7,3,0
	.loc 3 386 0
	stw 3,48(31)
	.loc 3 387 0
	blt- 7,.L1153
.L1068:
	.loc 3 392 0
	slwi 3,3,2
.LVL1197:
	bl _Znaj
.LEHE104:
.LVL1198:
	.loc 3 393 0
	lwz 0,44(31)
	.loc 3 392 0
	stw 3,56(31)
.LVL1199:
	.loc 3 393 0
	cmpwi 7,0,0
	ble- 7,.L1069
	.loc 4 540 0
	addi 11,28,-4
.LBE6654:
.LBE6653:
	.loc 3 393 0
	li 9,0
	b .L1070
.LVL1200:
.L1154:
.LBB6657:
.LBB6655:
	lwz 3,56(31)
.LVL1201:
.L1070:
	.loc 3 394 0
	lwzu 10,4(11)
	slwi 0,9,2
	.loc 3 393 0
	addi 9,9,1
.LVL1202:
	.loc 3 394 0
	stwx 10,3,0
	.loc 3 393 0
	lwz 0,0(26)
	cmpw 7,9,0
	blt+ 7,.L1154
.LVL1203:
.L1069:
	.loc 3 398 0
	cmpwi 7,28,0
	beq- 7,.L1135
	.loc 3 399 0
	mr 3,28
	bl _ZdaPv
	lwz 0,44(31)
	lwz 28,56(31)
	slwi 0,0,2
	add 28,28,0
	b .L1080
.LVL1204:
.L1151:
.LBE6655:
.LBE6657:
.LBE6652:
.LBE6651:
.LBE6671:
.LBE6676:
.LBE6648:
.LBE6647:
.LBB6685:
.LBB6512:
.LBB6505:
.LBB6503:
.LBB6501:
	.loc 9 351 0
	mr 3,28
	li 5,0
.LEHB105:
	bl _ZN5idStr10ReAllocateEib
.LVL1205:
	b .L1090
.LVL1206:
.L1150:
.LBE6501:
.LBE6503:
.LBE6505:
.LBE6512:
.LBB6513:
.LBB6475:
.LBB6470:
.LBB6468:
	addi 3,1,76
	li 5,0
	addi 28,1,44
	bl _ZN5idStr10ReAllocateEib
.LEHE105:
.LVL1207:
	lwz 3,80(1)
	b .L1089
.LVL1208:
.L1054:
.LBE6468:
.LBE6470:
.LBE6475:
.LBE6513:
.LBE6685:
	.loc 4 604 0
	mr 3,30
	addi 4,1,112
.LEHB106:
	bl _ZN7idLexer11UnreadTokenEPK7idToken
	.loc 4 605 0
	mr 3,30
	addi 4,1,32
	bl _ZN10idMapBrush7ParseQ3ER7idLexerRK6idVec3
.LVL1209:
	.loc 4 606 0
	mr. 24,3
	beq- 0,.L1116
.LVL1210:
.LBB6686:
.LBB6633:
.LBB6623:
.LBB6613:
	.loc 3 655 0
	lwz 28,56(31)
.LBE6613:
.LBE6623:
	.loc 7 175 0
	addi 26,31,44
.LVL1211:
.LBB6624:
.LBB6614:
	.loc 3 655 0
	cmpwi 7,28,0
	beq- 7,.L1072
	lwz 0,44(31)
	lwz 9,48(31)
.LVL1212:
.L1073:
.LBB6597:
	.loc 3 659 0
	cmpw 7,9,0
	bne+ 7,.L1134
	lwz 3,52(31)
	mr 11,9
.L1075:
.LBB6592:
	.loc 3 662 0
	cmpwi 7,3,0
	beq- 7,.L1155
.L1081:
	.loc 3 665 0
	add 0,9,3
.LVL1213:
	.loc 3 666 0
	divw 0,0,3
.LVL1214:
.LBB6587:
.LBB6582:
	.loc 3 375 0
	mullw. 3,0,3
.LVL1215:
	ble- 0,.L1139
	.loc 3 380 0
	cmpw 7,9,3
	beq- 7,.L1136
.LVL1216:
	.loc 3 387 0
	cmpw 7,3,11
	.loc 3 386 0
	stw 3,48(31)
	.loc 3 387 0
	blt- 7,.L1156
.L1085:
	.loc 3 392 0
	slwi 3,3,2
.LVL1217:
	bl _Znaj
.LVL1218:
	.loc 3 393 0
	lwz 0,44(31)
	.loc 3 392 0
	stw 3,56(31)
.LVL1219:
	.loc 3 393 0
	cmpwi 7,0,0
	ble- 7,.L1086
	.loc 4 540 0
	addi 11,28,-4
.LBE6582:
.LBE6587:
	.loc 3 393 0
	li 9,0
	b .L1087
.LVL1220:
.L1157:
.LBB6588:
.LBB6583:
	lwz 3,56(31)
.LVL1221:
.L1087:
	.loc 3 394 0
	lwzu 10,4(11)
	slwi 0,9,2
	.loc 3 393 0
	addi 9,9,1
.LVL1222:
	.loc 3 394 0
	stwx 10,3,0
	.loc 3 393 0
	lwz 0,0(26)
	cmpw 7,9,0
	blt+ 7,.L1157
.LVL1223:
.L1086:
	.loc 3 398 0
	cmpwi 7,28,0
	beq- 7,.L1135
	.loc 3 399 0
	mr 3,28
	bl _ZdaPv
	lwz 0,44(31)
	lwz 28,56(31)
.LVL1224:
	b .L1134
.LVL1225:
.L1112:
	lwz 3,52(31)
.LBE6583:
.LBE6588:
.LBE6592:
.LBE6597:
.LBE6614:
.LBE6624:
.LBE6633:
.LBE6686:
.LBB6687:
.LBB6568:
.LBB6564:
.LBB6559:
.LBB6547:
	.loc 3 659 0
	mr 11,0
.L1039:
.LBB6542:
	.loc 3 662 0
	cmpwi 7,3,0
	bne- 7,.L1045
	.loc 3 663 0
	li 9,16
	li 3,16
	stw 9,52(31)
.L1045:
	.loc 3 665 0
	add 9,0,3
.LVL1226:
	.loc 3 666 0
	divw 9,9,3
.LVL1227:
.LBB6543:
.LBB6544:
	.loc 3 375 0
	mullw. 3,9,3
.LVL1228:
	ble- 0,.L1139
	.loc 3 380 0
	cmpw 7,3,0
	beq- 7,.L1136
.LVL1229:
	.loc 3 387 0
	cmpw 7,3,11
	.loc 3 386 0
	stw 3,48(31)
	.loc 3 387 0
	bge- 7,.L1049
	.loc 3 388 0
	stw 3,44(31)
.L1049:
	.loc 3 392 0
	slwi 3,3,2
.LVL1230:
	bl _Znaj
.LEHE106:
.LVL1231:
	.loc 3 393 0
	lwz 0,44(31)
	.loc 3 392 0
	stw 3,56(31)
.LVL1232:
	.loc 3 393 0
	cmpwi 7,0,0
	ble- 7,.L1069
	.loc 4 540 0
	addi 11,28,-4
.LBE6544:
.LBE6543:
	.loc 3 393 0
	li 9,0
	b .L1051
.LVL1233:
.L1158:
.LBB6546:
.LBB6545:
	lwz 3,56(31)
.LVL1234:
.L1051:
	.loc 3 394 0
	lwzu 10,4(11)
	slwi 0,9,2
	.loc 3 393 0
	addi 9,9,1
.LVL1235:
	.loc 3 394 0
	stwx 10,3,0
	.loc 3 393 0
	lwz 0,0(26)
	cmpw 7,9,0
	blt+ 7,.L1158
	b .L1069
.LVL1236:
.L1155:
.LBE6545:
.LBE6546:
.LBE6542:
.LBE6547:
.LBE6559:
.LBE6564:
.LBE6568:
.LBE6687:
.LBB6688:
.LBB6634:
.LBB6625:
.LBB6615:
.LBB6598:
.LBB6593:
	.loc 3 663 0
	li 0,16
	li 3,16
	stw 0,52(31)
	b .L1081
.LVL1237:
.L1152:
.LBE6593:
.LBE6598:
.LBE6615:
.LBE6625:
.LBE6634:
.LBE6688:
.LBB6689:
.LBB6681:
.LBB6677:
.LBB6672:
.LBB6660:
.LBB6659:
	li 9,16
	li 3,16
	stw 9,52(31)
	b .L1064
.LVL1238:
.L1153:
.LBB6658:
.LBB6656:
	.loc 3 388 0
	stw 3,44(31)
	b .L1068
.LVL1239:
.L1156:
.LBE6656:
.LBE6658:
.LBE6659:
.LBE6660:
.LBE6672:
.LBE6677:
.LBE6681:
.LBE6689:
.LBB6690:
.LBB6635:
.LBB6626:
.LBB6616:
.LBB6599:
.LBB6594:
.LBB6589:
.LBB6584:
	stw 3,44(31)
	b .L1085
.LVL1240:
.L1146:
.LBE6584:
.LBE6589:
.LBE6594:
.LBE6599:
.LBE6616:
.LBE6626:
.LBE6635:
.LBE6690:
.LBE6709:
.LBE6721:
.LBB6722:
.LBB6451:
	.loc 3 430 0
	stw 0,44(31)
	b .L1026
.LVL1241:
.L1143:
.LBE6451:
.LBE6722:
.LBB6723:
.LBB6441:
.LBB6431:
.LBB6402:
.LBB6390:
.LBB6375:
.LBB6372:
.LBB6369:
	.loc 3 388 0
	stw 3,0(31)
	b .L1013
.LVL1242:
.L1136:
.LBE6369:
.LBE6372:
.LBE6375:
.LBE6390:
.LBE6402:
.LBE6431:
.LBE6441:
.LBE6723:
.LBB6724:
.LBB6710:
.LBB6691:
.LBB6636:
.LBB6627:
.LBB6617:
.LBB6600:
.LBB6595:
.LBB6590:
.LBB6585:
	.loc 3 380 0
	slwi 11,11,2
	add 28,28,11
	b .L1080
.LVL1243:
.L1145:
.LBE6585:
.LBE6590:
.LBE6595:
.LBE6600:
.LBE6617:
.LBE6627:
.LBE6636:
.LBE6691:
.LBE6710:
.LBE6724:
.LBB6725:
.LBB6442:
.LBB6432:
.LBB6414:
.LBB6410:
.LBB6411:
	.loc 11 341 0
	mr 3,28
.LEHB107:
	bl _ZN11idHashIndex4FreeEv
.LEHE107:
	.loc 11 342 0
	li 0,64
	stw 0,16(31)
	.loc 11 343 0
	li 0,16
	stw 0,24(31)
	b .L1017
.LVL1244:
.L1036:
.LBE6411:
.LBE6410:
.LBE6414:
.LBE6432:
.LBE6442:
.LBE6725:
.LBB6726:
.LBB6711:
.LBB6692:
.LBB6569:
.LBB6565:
.LBB6560:
	.loc 3 656 0
	lwz 3,52(31)
.LVL1245:
.LBB6548:
.LBB6549:
	.loc 3 375 0
	cmpwi 7,3,0
.LBE6549:
.LBE6548:
	.loc 3 656 0
	mr 9,3
.LVL1246:
.LBB6555:
.LBB6552:
	.loc 3 375 0
	ble- 7,.L1159
	.loc 3 380 0
	lwz 0,48(31)
	cmpw 7,3,0
	lwz 0,44(31)
	beq- 7,.L1037
.LVL1247:
	.loc 3 387 0
	cmpw 7,3,0
	.loc 3 386 0
	stw 3,48(31)
	.loc 3 387 0
	blt- 7,.L1160
.L1041:
	.loc 3 392 0
	slwi 3,3,2
.LEHB108:
	bl _Znaj
.LVL1248:
	.loc 3 393 0
	lwz 0,44(31)
	.loc 3 392 0
	mr 28,3
	stw 3,56(31)
.LVL1249:
	.loc 3 393 0
	li 9,0
	cmpwi 7,0,0
	li 11,0
	bgt+ 7,.L1127
	b .L1169
.LVL1250:
.L1162:
	lwz 28,56(31)
.LVL1251:
.L1127:
	.loc 3 394 0
	lwz 0,0(9)
	.loc 3 393 0
	addi 11,11,1
.LVL1252:
	.loc 3 394 0
	stwx 0,28,9
	.loc 3 393 0
	addi 9,9,4
	lwz 0,0(26)
	cmpw 7,11,0
	blt+ 7,.L1162
	lwz 9,48(31)
	lwz 28,56(31)
	b .L1037
.LVL1253:
.L1139:
.LBE6552:
.LBE6555:
.LBE6560:
.LBE6565:
.LBE6569:
.LBE6692:
.LBB6693:
.LBB6637:
.LBB6628:
.LBB6618:
.LBB6601:
.LBB6596:
.LBB6591:
.LBB6586:
.LBB6580:
.LBB6581:
	.loc 3 193 0
	cmpwi 7,28,0
	beq- 7,.L1083
	.loc 3 194 0
	mr 3,28
	bl _ZdaPv
.L1083:
	.loc 3 197 0
	li 0,0
	.loc 3 199 0
	li 28,0
	.loc 3 197 0
	stw 0,56(31)
	.loc 3 198 0
	stw 0,44(31)
	.loc 3 199 0
	stw 0,48(31)
	b .L1080
.L1135:
.LBE6581:
.LBE6580:
	.loc 3 398 0
	lwz 0,44(31)
	lwz 28,56(31)
	slwi 0,0,2
	add 28,28,0
	b .L1080
.LVL1254:
.L1149:
.LBE6586:
.LBE6591:
.LBE6596:
.LBE6601:
.LBE6618:
.LBE6628:
.LBE6637:
.LBE6693:
	.loc 4 578 0
	lis 4,.LC60@ha
	mr 3,30
	la 4,.LC60@l(4)
	crxor 6,6,6
	bl _ZN7idLexer5ErrorEPKcz
	b .L1116
.LVL1255:
.L1072:
.LBB6694:
.LBB6638:
.LBB6629:
.LBB6619:
	.loc 3 656 0
	lwz 9,52(31)
.LBB6602:
.LBB6603:
	.loc 3 375 0
	cmpwi 7,9,0
.LBE6603:
.LBE6602:
	.loc 3 656 0
	mr 3,9
.LVL1256:
.LBB6609:
.LBB6606:
	.loc 3 375 0
	ble- 7,.L1163
	.loc 3 380 0
	lwz 0,48(31)
	cmpw 7,9,0
	lwz 0,44(31)
	beq- 7,.L1073
.LVL1257:
	.loc 3 387 0
	cmpw 7,9,0
	.loc 3 386 0
	stw 9,48(31)
	.loc 3 387 0
	bge- 7,.L1077
	.loc 3 388 0
	stw 9,44(31)
.L1077:
	.loc 3 392 0
	slwi 3,3,2
	bl _Znaj
.LVL1258:
	.loc 3 393 0
	lwz 0,44(31)
	.loc 3 392 0
	mr 28,3
	stw 3,56(31)
.LVL1259:
	.loc 3 393 0
	li 9,0
	cmpwi 7,0,0
	li 11,0
	bgt+ 7,.L1129
	b .L1170
.LVL1260:
.L1165:
	lwz 28,56(31)
.LVL1261:
.L1129:
	.loc 3 394 0
	lwz 0,0(9)
	.loc 3 393 0
	addi 11,11,1
.LVL1262:
	.loc 3 394 0
	stwx 0,28,9
	.loc 3 393 0
	addi 9,9,4
	lwz 0,0(26)
	cmpw 7,11,0
	blt+ 7,.L1165
	lwz 9,48(31)
	lwz 28,56(31)
	b .L1073
.LVL1263:
.L1055:
.LBE6606:
.LBE6609:
.LBE6619:
.LBE6629:
.LBE6638:
.LBE6694:
.LBB6695:
.LBB6682:
.LBB6678:
.LBB6673:
	.loc 3 656 0
	lwz 3,52(31)
.LVL1264:
.LBB6661:
.LBB6662:
	.loc 3 375 0
	cmpwi 7,3,0
.LBE6662:
.LBE6661:
	.loc 3 656 0
	mr 9,3
.LVL1265:
.LBB6668:
.LBB6665:
	.loc 3 375 0
	ble- 7,.L1166
	.loc 3 380 0
	lwz 0,48(31)
	cmpw 7,3,0
	lwz 0,44(31)
	beq- 7,.L1056
.LVL1266:
	.loc 3 387 0
	cmpw 7,3,0
	.loc 3 386 0
	stw 3,48(31)
	.loc 3 387 0
	bge- 7,.L1060
	.loc 3 388 0
	stw 3,44(31)
.L1060:
	.loc 3 392 0
	slwi 3,3,2
	bl _Znaj
.LEHE108:
.LVL1267:
	.loc 3 393 0
	lwz 0,44(31)
	.loc 3 392 0
	mr 28,3
	stw 3,56(31)
.LVL1268:
	.loc 3 393 0
	li 9,0
	cmpwi 7,0,0
	li 11,0
	bgt+ 7,.L1128
	b .L1171
.LVL1269:
.L1168:
	lwz 28,56(31)
.LVL1270:
.L1128:
	.loc 3 394 0
	lwz 0,0(9)
	.loc 3 393 0
	addi 11,11,1
.LVL1271:
	.loc 3 394 0
	stwx 0,28,9
	.loc 3 393 0
	addi 9,9,4
	lwz 0,0(26)
	cmpw 7,11,0
	blt+ 7,.L1168
	lwz 9,48(31)
	lwz 28,56(31)
	b .L1056
.LVL1272:
.L1160:
.LBE6665:
.LBE6668:
.LBE6673:
.LBE6678:
.LBE6682:
.LBE6695:
.LBB6696:
.LBB6570:
.LBB6566:
.LBB6561:
.LBB6556:
.LBB6553:
	.loc 3 388 0
	stw 3,44(31)
	b .L1041
.LVL1273:
.L1142:
.LBE6553:
.LBE6556:
.LBE6561:
.LBE6566:
.LBE6570:
.LBE6696:
.LBE6711:
.LBE6726:
.LBB6727:
.LBB6443:
.LBB6433:
.LBB6403:
.LBB6391:
.LBB6376:
.LBB6373:
.LBB6370:
.LBB6366:
.LBB6367:
	.loc 3 194 0
	mr 3,26
.LVL1274:
	bl _ZdaPv
	.loc 3 197 0
	li 0,0
	stw 0,12(31)
	.loc 3 198 0
	stw 0,0(31)
	.loc 3 199 0
	stw 0,4(31)
	b .L1011
.LVL1275:
.L1159:
.LBE6367:
.LBE6366:
.LBE6370:
.LBE6373:
.LBE6376:
.LBE6391:
.LBE6403:
.LBE6433:
.LBE6443:
.LBE6727:
.LBB6728:
.LBB6712:
.LBB6697:
.LBB6571:
.LBB6567:
.LBB6562:
.LBB6557:
.LBB6554:
.LBB6550:
.LBB6551:
	.loc 3 198 0
	stw 28,44(31)
	.loc 3 199 0
	li 0,0
	stw 28,48(31)
	li 11,0
	b .L1039
.LVL1276:
.L1169:
.LBE6551:
.LBE6550:
	.loc 3 393 0
	lwz 9,48(31)
	b .L1037
.LVL1277:
.L1166:
.LBE6554:
.LBE6557:
.LBE6562:
.LBE6567:
.LBE6571:
.LBE6697:
.LBB6698:
.LBB6683:
.LBB6679:
.LBB6674:
.LBB6669:
.LBB6666:
.LBB6663:
.LBB6664:
	.loc 3 198 0
	stw 28,44(31)
	.loc 3 199 0
	li 11,0
	stw 28,48(31)
	li 0,0
	b .L1058
.LVL1278:
.L1163:
.LBE6664:
.LBE6663:
.LBE6666:
.LBE6669:
.LBE6674:
.LBE6679:
.LBE6683:
.LBE6698:
.LBB6699:
.LBB6639:
.LBB6630:
.LBB6620:
.LBB6610:
.LBB6607:
.LBB6604:
.LBB6605:
	.loc 3 198 0
	stw 28,44(31)
	.loc 3 199 0
	li 11,0
	stw 28,48(31)
	li 9,0
	b .L1075
.LVL1279:
.L1171:
.LBE6605:
.LBE6604:
.LBE6607:
.LBE6610:
.LBE6620:
.LBE6630:
.LBE6639:
.LBE6699:
.LBB6700:
.LBB6684:
.LBB6680:
.LBB6675:
.LBB6670:
.LBB6667:
	.loc 3 393 0
	lwz 9,48(31)
	b .L1056
.LVL1280:
.L1170:
.LBE6667:
.LBE6670:
.LBE6675:
.LBE6680:
.LBE6684:
.LBE6700:
.LBB6701:
.LBB6640:
.LBB6631:
.LBB6621:
.LBB6611:
.LBB6608:
	lwz 9,48(31)
	b .L1073
.LVL1281:
.L1120:
	mr 31,3
.LVL1282:
.L1097:
.LBE6608:
.LBE6611:
.LBE6621:
.LBE6631:
.LBE6640:
.LBE6701:
.LBE6712:
.LBE6728:
.LBB6729:
.LBB6730:
.LBB6731:
.LBB6732:
.LBB6733:
	.loc 9 501 0
	addi 3,1,112
	bl _ZN5idStr8FreeDataEv
	mr 3,31
.LEHB109:
	bl _Unwind_Resume
.LEHE109:
.LVL1283:
.L1124:
	mr 30,3
.LVL1284:
.L1020:
.LBE6733:
.LBE6732:
.LBE6731:
.LBE6730:
.LBE6729:
.LBB6734:
.LBB6444:
.LBB6434:
.LBB6404:
.LBB6392:
.LBB6393:
.LBB6394:
	.loc 3 181 0
	mr 3,31
	bl _ZN6idListI10idKeyValueE5ClearEv
.LVL1285:
.L1022:
.LBE6394:
.LBE6393:
.LBE6392:
.LBE6404:
.LBE6434:
.LBE6444:
.LBE6734:
	.loc 4 558 0
	mr 3,31
	mr 31,30
.LVL1286:
	bl _ZdlPv
.LVL1287:
	b .L1097
.LVL1288:
.L1123:
	mr 30,3
.LVL1289:
.LBB6735:
.LBB6445:
.LBB6435:
.LBB6436:
.LBB6437:
	.loc 3 181 0
	addi 3,31,44
	bl _ZN6idListIP14idMapPrimitiveE5ClearEv
.LBE6437:
.LBE6436:
.LBE6435:
	.loc 7 169 0
	mr 3,31
	bl _ZN6idDictD1Ev
	b .L1022
.LVL1290:
.L1125:
	mr 30,3
.LVL1291:
.LBB6438:
.LBB6405:
.LBB6395:
.LBB6396:
.LBB6397:
	.loc 11 130 0
	mr 3,28
	bl _ZN11idHashIndex4FreeEv
	b .L1020
.LVL1292:
.L1122:
	mr 31,3
.LVL1293:
.L1100:
.LBE6397:
.LBE6396:
.LBE6395:
.LBE6405:
.LBE6438:
.LBE6445:
.LBE6735:
.LBB6736:
.LBB6713:
.LBB6702:
.LBB6514:
.LBB6515:
.LBB6516:
	.loc 9 501 0
	addi 3,1,76
	bl _ZN5idStr8FreeDataEv
	b .L1097
.LVL1294:
.L1121:
	mr 31,3
.LVL1295:
.LBE6516:
.LBE6515:
.LBE6514:
.LBB6517:
.LBB6518:
.LBB6519:
	mr 3,28
	bl _ZN5idStr8FreeDataEv
	b .L1100
.LBE6519:
.LBE6518:
.LBE6517:
.LBE6702:
.LBE6713:
.LBE6736:
.LBE6741:
	.cfi_endproc
.LFE2549:
	.section	.gcc_except_table
.LLSDA2549:
	.byte	0xff
	.byte	0xff
	.byte	0x1
	.uleb128 .LLSDACSE2549-.LLSDACSB2549
.LLSDACSB2549:
	.uleb128 .LEHB94-.LFB2549
	.uleb128 .LEHE94-.LEHB94
	.uleb128 .L1120-.LFB2549
	.uleb128 0
	.uleb128 .LEHB95-.LFB2549
	.uleb128 .LEHE95-.LEHB95
	.uleb128 .L1124-.LFB2549
	.uleb128 0
	.uleb128 .LEHB96-.LFB2549
	.uleb128 .LEHE96-.LEHB96
	.uleb128 .L1125-.LFB2549
	.uleb128 0
	.uleb128 .LEHB97-.LFB2549
	.uleb128 .LEHE97-.LEHB97
	.uleb128 .L1120-.LFB2549
	.uleb128 0
	.uleb128 .LEHB98-.LFB2549
	.uleb128 .LEHE98-.LEHB98
	.uleb128 0
	.uleb128 0
	.uleb128 .LEHB99-.LFB2549
	.uleb128 .LEHE99-.LEHB99
	.uleb128 .L1120-.LFB2549
	.uleb128 0
	.uleb128 .LEHB100-.LFB2549
	.uleb128 .LEHE100-.LEHB100
	.uleb128 .L1121-.LFB2549
	.uleb128 0
	.uleb128 .LEHB101-.LFB2549
	.uleb128 .LEHE101-.LEHB101
	.uleb128 .L1122-.LFB2549
	.uleb128 0
	.uleb128 .LEHB102-.LFB2549
	.uleb128 .LEHE102-.LEHB102
	.uleb128 .L1120-.LFB2549
	.uleb128 0
	.uleb128 .LEHB103-.LFB2549
	.uleb128 .LEHE103-.LEHB103
	.uleb128 .L1121-.LFB2549
	.uleb128 0
	.uleb128 .LEHB104-.LFB2549
	.uleb128 .LEHE104-.LEHB104
	.uleb128 .L1120-.LFB2549
	.uleb128 0
	.uleb128 .LEHB105-.LFB2549
	.uleb128 .LEHE105-.LEHB105
	.uleb128 .L1121-.LFB2549
	.uleb128 0
	.uleb128 .LEHB106-.LFB2549
	.uleb128 .LEHE106-.LEHB106
	.uleb128 .L1120-.LFB2549
	.uleb128 0
	.uleb128 .LEHB107-.LFB2549
	.uleb128 .LEHE107-.LEHB107
	.uleb128 .L1123-.LFB2549
	.uleb128 0
	.uleb128 .LEHB108-.LFB2549
	.uleb128 .LEHE108-.LEHB108
	.uleb128 .L1120-.LFB2549
	.uleb128 0
	.uleb128 .LEHB109-.LFB2549
	.uleb128 .LEHE109-.LEHB109
	.uleb128 0
	.uleb128 0
.LLSDACSE2549:
	.section	".text"
	.size	_ZN11idMapEntity5ParseER7idLexerbf, .-_ZN11idMapEntity5ParseER7idLexerbf
	.align 2
	.globl _ZN9idMapFile5ParseEPKcbb
	.type	_ZN9idMapFile5ParseEPKcbb, @function
_ZN9idMapFile5ParseEPKcbb:
.LFB2553:
	.loc 4 722 0
	.cfi_startproc
	.cfi_personality 0,__gxx_personality_v0
	.cfi_lsda 0,.LLSDA2553
.LVL1296:
	stwu 1,-432(1)
.LCFI93:
	.cfi_def_cfa_offset 432
	mflr 0
	stw 27,412(1)
	mr 27,4
	.cfi_offset 27, -20
	.cfi_register 65, 0
	stw 30,424(1)
.LBB6931:
	.loc 4 724 0
	li 4,152
.LVL1297:
.LBE6931:
	.loc 4 722 0
	mr 30,3
	.cfi_offset 30, -8
.LBB7292:
	.loc 4 724 0
	addi 3,1,152
.LVL1298:
.LBE7292:
	.loc 4 722 0
	stw 0,436(1)
	stw 19,380(1)
	addi 19,1,40
	.cfi_offset 19, -52
	.cfi_offset 65, 4
	stw 23,396(1)
	addi 23,1,72
	.cfi_offset 23, -36
	stw 28,416(1)
	mr 28,5
	.cfi_offset 28, -16
	stw 29,420(1)
	mr 29,6
	.cfi_offset 29, -12
	stw 31,428(1)
.LBB7293:
	.loc 4 730 0
	addi 31,30,28
	.cfi_offset 31, -4
.LBE7293:
	.loc 4 722 0
	stw 15,364(1)
	stw 16,368(1)
	stw 17,372(1)
	stw 18,376(1)
	stw 20,384(1)
	stw 21,388(1)
	stw 22,392(1)
	stw 24,400(1)
	stw 25,404(1)
	stw 26,408(1)
.LEHB110:
.LBB7294:
	.loc 4 724 0
	.cfi_offset 26, -24
	.cfi_offset 25, -28
	.cfi_offset 24, -32
	.cfi_offset 22, -40
	.cfi_offset 21, -44
	.cfi_offset 20, -48
	.cfi_offset 18, -56
	.cfi_offset 17, -60
	.cfi_offset 16, -64
	.cfi_offset 15, -68
	bl _ZN7idLexerC1Ei
.LEHE110:
.LVL1299:
.LBB6932:
.LBB6933:
.LBB6934:
.LBB6935:
	.loc 9 357 0
	li 9,20
	.loc 9 356 0
	li 0,0
	.loc 9 357 0
	stw 9,80(1)
	.loc 9 358 0
	addi 11,1,84
.LBE6935:
.LBE6934:
.LBE6933:
.LBE6932:
.LBB6939:
.LBB6940:
.LBB6941:
	.loc 9 357 0
	stw 9,48(1)
.LBE6941:
.LBE6940:
.LBE6939:
	.loc 4 730 0
	mr 3,31
.LBB6946:
.LBB6944:
.LBB6942:
	.loc 9 358 0
	addi 9,1,52
.LBE6942:
.LBE6944:
.LBE6946:
	.loc 4 730 0
	mr 4,27
.LBB6947:
.LBB6938:
.LBB6937:
.LBB6936:
	.loc 9 356 0
	stw 0,72(1)
	.loc 9 358 0
	stw 11,76(1)
	.loc 9 359 0
	stb 0,84(1)
.LVL1300:
.LBE6936:
.LBE6937:
.LBE6938:
.LBE6947:
.LBB6948:
.LBB6945:
.LBB6943:
	.loc 9 356 0
	stw 0,40(1)
	.loc 9 358 0
	stw 9,44(1)
	.loc 9 359 0
	stb 0,52(1)
.LEHB111:
.LBE6943:
.LBE6945:
.LBE6948:
	.loc 4 730 0
	bl _ZN5idStraSEPKc
	.loc 4 731 0
	mr 3,31
	addi 19,1,40
	addi 23,1,72
	bl _ZN5idStr18StripFileExtensionEv
.LVL1301:
.LBB6949:
	.loc 4 973 0
	lwz 31,28(30)
.LVL1302:
	addi 19,1,40
.LBB6950:
.LBB6951:
.LBB6952:
	.loc 9 350 0
	lwz 0,48(1)
.LBE6952:
.LBE6951:
	.loc 9 534 0
	addi 4,31,1
.LVL1303:
.LBB6955:
.LBB6953:
	.loc 9 350 0
	cmpw 7,4,0
	bgt- 7,.L1318
.LVL1304:
.L1173:
.LBE6953:
.LBE6955:
	.loc 9 535 0
	lwz 3,44(1)
	mr 5,31
	lwz 4,32(30)
	addi 23,1,72
	bl memcpy
	.loc 9 536 0
	lwz 9,44(1)
	li 0,0
	stbx 0,9,31
.LBE6950:
.LBE6949:
	.loc 4 733 0
	stb 0,60(30)
.LBB6959:
.LBB6957:
	.loc 9 537 0
	stw 31,40(1)
.LBE6957:
.LBE6959:
	.loc 4 735 0
	bl _Z21Sys_PrintMainHeapInfov
	.loc 4 736 0
	cmpwi 7,28,0
	beq- 7,.L1319
.L1174:
	.loc 4 742 0
	lwz 0,152(1)
	cmpwi 7,0,0
	bne- 7,.L1175
	.loc 4 744 0
	lis 4,.LC72@ha
	mr 3,19
	la 4,.LC72@l(4)
	addi 23,1,72
	bl _ZN5idStr16SetFileExtensionEPKc
.LVL1305:
	.loc 4 745 0
	lwz 4,4(19)
	addi 3,1,152
	mr 5,29
	addi 23,1,72
	bl _ZN7idLexer8LoadFileEPKcb
	.loc 4 746 0
	lwz 0,152(1)
	.loc 4 748 0
	li 31,0
	addi 23,1,72
	.loc 4 746 0
	cmpwi 7,0,0
	beq- 7,.L1176
.LVL1306:
.L1175:
	addi 23,1,72
	.loc 4 752 0
	bl _Z21Sys_PrintMainHeapInfov
.LEHE111:
.LBB6960:
.LBB6961:
	.loc 3 218 0
	lwz 0,12(30)
.LBE6961:
.LBE6960:
	.loc 4 753 0
	lis 9,.LC51@ha
	lwz 9,.LC51@l(9)
	.loc 4 755 0
	addi 28,30,12
.LVL1307:
.LBB7038:
.LBB7032:
	.loc 3 218 0
	cmpwi 7,0,0
.LBE7032:
.LBE7038:
	.loc 4 754 0
	lwz 0,236(1)
	.loc 4 753 0
	stw 9,0(30)
	.loc 4 754 0
	stw 0,4(30)
.LBB7039:
.LBB7033:
	.loc 3 218 0
	ble- 7,.L1177
	li 24,0
.LBB6962:
.LBB6963:
.LBB6964:
.LBB6965:
.LBB6966:
.LBB6967:
.LBB6968:
	.loc 3 197 0
	li 25,0
.LVL1308:
.L1196:
.LBE6968:
.LBE6967:
.LBE6966:
.LBE6965:
.LBE6964:
.LBE6963:
.LBE6962:
	.loc 3 219 0
	lwz 9,12(28)
	.loc 4 722 0
	slwi 23,24,2
	.loc 3 219 0
	lwzx 26,9,23
	add 9,9,23
	cmpwi 7,26,0
	beq- 7,.L1178
.LVL1309:
.LBB7021:
.LBB7018:
.LBB7015:
.LBB6975:
.LBB6976:
	.loc 3 218 0
	lwz 0,44(26)
.LBE6976:
.LBE6975:
	.loc 7 170 0
	addi 27,26,44
.LVL1310:
.LBB6980:
.LBB6979:
	.loc 3 218 0
	cmpwi 7,0,0
	ble- 7,.L1179
	li 31,0
.LVL1311:
.L1181:
	.loc 3 219 0
	lwz 9,12(27)
	.loc 4 722 0
	slwi 29,31,2
	.loc 3 219 0
	lwzx 3,9,29
	add 9,9,29
	cmpwi 7,3,0
	beq- 7,.L1180
	lwz 9,0(3)
	lwz 0,4(9)
	mtctr 0
.LEHB112:
	bctrl
.LEHE112:
	lwz 9,56(26)
	add 9,9,29
.L1180:
	.loc 3 220 0
	stw 25,0(9)
	.loc 3 218 0
	addi 31,31,1
.LVL1312:
	lwz 0,0(27)
	cmpw 7,31,0
	blt+ 7,.L1181
.LVL1313:
.L1179:
.LBB6977:
.LBB6978:
	.loc 3 193 0
	lwz 3,56(26)
	cmpwi 7,3,0
	beq- 7,.L1182
	.loc 3 194 0
	bl _ZdaPv
.L1182:
.LVL1314:
.LBE6978:
.LBE6977:
.LBE6979:
.LBE6980:
.LBB6981:
.LBB6973:
.LBB6971:
.LBB6969:
	.loc 3 197 0
	stw 25,56(26)
.LBE6969:
.LBE6971:
.LBE6973:
.LBE6981:
.LBB6982:
.LBB6983:
.LBB6984:
	.loc 10 174 0
	mr 3,26
.LBE6984:
.LBE6983:
.LBE6982:
.LBB7008:
.LBB6974:
.LBB6972:
.LBB6970:
	.loc 3 198 0
	stw 25,44(26)
	.loc 3 199 0
	stw 25,48(26)
.LVL1315:
.LEHB113:
.LBE6970:
.LBE6972:
.LBE6974:
.LBE7008:
.LBB7009:
.LBB7005:
.LBB7002:
	.loc 10 174 0
	bl _ZN6idDict5ClearEv
.LEHE113:
.LVL1316:
.LBB6985:
.LBB6986:
.LBB6987:
	.loc 11 130 0
	addi 3,26,16
.LEHB114:
	bl _ZN11idHashIndex4FreeEv
.LEHE114:
.LVL1317:
.LBE6987:
.LBE6986:
.LBE6985:
.LBB6988:
.LBB6989:
.LBB6990:
.LBB6991:
	.loc 3 193 0
	lwz 3,12(26)
	cmpwi 7,3,0
	beq- 7,.L1185
	.loc 3 194 0
	bl _ZdaPv
.L1185:
	.loc 3 197 0
	stw 25,12(26)
.LBE6991:
.LBE6990:
.LBE6989:
.LBE6988:
.LBE7002:
.LBE7005:
.LBE7009:
.LBE7015:
.LBE7018:
.LBE7021:
	.loc 3 219 0
	mr 3,26
.LBB7022:
.LBB7019:
.LBB7016:
.LBB7010:
.LBB7006:
.LBB7003:
.LBB6995:
.LBB6994:
.LBB6993:
.LBB6992:
	.loc 3 198 0
	stw 25,0(26)
	.loc 3 199 0
	stw 25,4(26)
.LBE6992:
.LBE6993:
.LBE6994:
.LBE6995:
.LBE7003:
.LBE7006:
.LBE7010:
.LBE7016:
.LBE7019:
.LBE7022:
	.loc 3 219 0
	bl _ZdlPv
	lwz 9,24(30)
	add 9,9,23
.LVL1318:
.L1178:
	.loc 3 220 0
	stw 25,0(9)
	.loc 3 218 0
	addi 24,24,1
.LVL1319:
	lwz 0,0(28)
	cmpw 7,24,0
	blt+ 7,.L1196
.LVL1320:
.L1177:
.LBB7023:
.LBB7024:
	.loc 3 193 0
	lwz 3,24(30)
	cmpwi 7,3,0
	beq- 7,.L1197
	.loc 3 194 0
	bl _ZdaPv
.L1197:
	.loc 3 197 0
	li 0,0
.LBE7024:
.LBE7023:
.LBE7033:
.LBE7039:
	.loc 4 757 0
	lis 4,.LC73@ha
.LBB7040:
.LBB7034:
.LBB7028:
.LBB7025:
	.loc 3 197 0
	stw 0,24(30)
.LBE7025:
.LBE7028:
.LBE7034:
.LBE7040:
	.loc 4 757 0
	addi 3,1,152
.LBB7041:
.LBB7035:
.LBB7029:
.LBB7026:
	.loc 3 198 0
	stw 0,12(30)
.LBE7026:
.LBE7029:
.LBE7035:
.LBE7041:
	.loc 4 757 0
	la 4,.LC73@l(4)
.LBB7042:
.LBB7036:
.LBB7030:
.LBB7027:
	.loc 3 199 0
	stw 0,16(30)
	addi 23,1,72
.LVL1321:
.LEHB115:
.LBE7027:
.LBE7030:
.LBE7036:
.LBE7042:
	.loc 4 757 0
	bl _ZN7idLexer16CheckTokenStringEPKc
	cmpwi 7,3,0
	addi 23,1,72
	bne- 7,.L1320
.L1219:
.LBB7043:
.LBB7044:
.LBB7045:
.LBB7046:
	.loc 3 393 0
	li 26,0
	.loc 3 663 0
	li 27,16
.L1312:
.LBE7046:
.LBE7045:
.LBE7044:
.LBE7043:
	.loc 4 763 0
	bl _Z21Sys_PrintMainHeapInfov
	.loc 4 764 0
	lwz 4,12(30)
	addi 3,1,152
	lfs 1,0(30)
	cntlzw 4,4
	srwi 4,4,5
	bl _ZN11idMapEntity5ParseER7idLexerbf
.LEHE115:
.LVL1322:
	.loc 4 765 0
	mr. 29,3
	beq- 0,.L1201
.LVL1323:
.LBB7074:
.LBB7071:
	.loc 3 655 0
	lwz 31,24(30)
	cmpwi 7,31,0
	beq- 7,.L1202
	lwz 0,12(30)
	lwz 9,16(30)
.LVL1324:
.L1203:
.LBB7060:
	.loc 3 659 0
	cmpw 7,0,9
	beq- 7,.L1281
.L1313:
.LBB7057:
.LBB7047:
.LBB7048:
	.loc 3 399 0
	slwi 0,0,2
	add 31,31,0
.L1210:
.LBE7048:
.LBE7047:
.LBE7057:
.LBE7060:
	.loc 3 669 0
	stw 29,0(31)
	.loc 3 670 0
	lwz 9,12(30)
	addi 0,9,1
	stw 0,12(30)
	b .L1312
.LVL1325:
.L1201:
.LBE7071:
.LBE7074:
	.loc 4 771 0
	mr 3,30
	bl _ZN9idMapFile14SetGeometryCRCEv
.LBB7075:
	.loc 4 774 0
	lwz 0,12(30)
	cmpwi 7,0,0
	bne- 7,.L1321
.LVL1326:
.L1220:
.LBE7075:
	.loc 4 830 0
	li 0,1
	.loc 4 831 0
	li 31,1
	.loc 4 830 0
	stb 0,60(30)
.LVL1327:
.L1176:
.LBB7258:
.LBB7259:
.LBB7260:
	.loc 9 501 0
	mr 3,19
.LEHB116:
	bl _ZN5idStr8FreeDataEv
.LEHE116:
.LVL1328:
.LBE7260:
.LBE7259:
.LBE7258:
.LBB7261:
.LBB7262:
.LBB7263:
.LBB7264:
.LBB7265:
	mr 3,23
.LEHB117:
	bl _ZN5idStr8FreeDataEv
.LEHE117:
.LBE7265:
.LBE7264:
.LBE7263:
.LBE7262:
.LBE7261:
	.loc 4 831 0
	addi 3,1,152
.LEHB118:
	bl _ZN7idLexerD1Ev
.LEHE118:
.LBE7294:
	.loc 4 832 0
	lwz 0,436(1)
	mr 3,31
	lwz 15,364(1)
	mtlr 0
	lwz 16,368(1)
	lwz 17,372(1)
	lwz 18,376(1)
	lwz 19,380(1)
.LVL1329:
	lwz 20,384(1)
	lwz 21,388(1)
	lwz 22,392(1)
	lwz 23,396(1)
.LVL1330:
	lwz 24,400(1)
	lwz 25,404(1)
	lwz 26,408(1)
	lwz 27,412(1)
	lwz 28,416(1)
	lwz 29,420(1)
	lwz 30,424(1)
.LVL1331:
	lwz 31,428(1)
	addi 1,1,432
	.cfi_remember_state
.LCFI94:
	.cfi_def_cfa_offset 0
	.cfi_restore 31
	.cfi_restore 30
	.cfi_restore 29
	.cfi_restore 28
	.cfi_restore 27
	.cfi_restore 26
	.cfi_restore 25
	.cfi_restore 24
	.cfi_restore 23
	.cfi_restore 22
	.cfi_restore 21
	.cfi_restore 20
	.cfi_restore 19
	.cfi_restore 18
	.cfi_restore 17
	.cfi_restore 16
	.cfi_restore 15
	blr
.LVL1332:
.L1281:
.LCFI95:
	.cfi_restore_state
	lwz 3,20(30)
.LBB7295:
.LBB7266:
.LBB7072:
.LBB7061:
	.loc 3 659 0
	mr 10,0
.L1205:
.LBB7058:
	.loc 3 662 0
	cmpwi 7,3,0
	mr 9,3
	bne- 7,.L1211
	.loc 3 663 0
	stw 27,20(30)
	li 9,16
.L1211:
	.loc 3 665 0
	add 11,0,9
.LVL1333:
	.loc 3 666 0
	divw 11,11,9
.LVL1334:
.LBB7054:
.LBB7051:
	.loc 3 375 0
	mullw. 9,11,9
.LVL1335:
	ble- 0,.L1322
	.loc 3 380 0
	cmpw 7,9,0
	beq- 7,.L1323
.LVL1336:
	.loc 3 387 0
	cmpw 7,9,10
	.loc 3 386 0
	stw 9,16(30)
	.loc 3 387 0
	bge- 7,.L1215
	.loc 3 388 0
	stw 9,12(30)
.L1215:
	.loc 3 392 0
	slwi 3,9,2
.LEHB119:
	bl _Znaj
.LVL1337:
	stw 3,24(30)
.LVL1338:
	.loc 3 393 0
	lwz 0,0(28)
	cmpwi 7,0,0
	ble- 7,.L1216
	.loc 4 722 0
	addi 11,31,-4
.LBE7051:
.LBE7054:
	.loc 3 393 0
	li 9,0
	b .L1217
.LVL1339:
.L1324:
.LBB7055:
.LBB7052:
	lwz 3,24(30)
.LVL1340:
.L1217:
	.loc 3 394 0
	lwzu 10,4(11)
	slwi 0,9,2
	.loc 3 393 0
	addi 9,9,1
.LVL1341:
	.loc 3 394 0
	stwx 10,3,0
	.loc 3 393 0
	lwz 0,0(28)
	cmpw 7,9,0
	blt+ 7,.L1324
.LVL1342:
.L1216:
	.loc 3 398 0
	cmpwi 7,31,0
	beq- 7,.L1325
	.loc 3 399 0
	mr 3,31
	bl _ZdaPv
	lwz 0,12(30)
	lwz 31,24(30)
.LVL1343:
	b .L1313
.LVL1344:
.L1323:
	.loc 3 380 0
	slwi 10,10,2
	add 31,31,10
	b .L1210
.LVL1345:
.L1202:
.LBE7052:
.LBE7055:
.LBE7058:
.LBE7061:
	.loc 3 656 0
	lwz 3,20(30)
.LBB7062:
.LBB7063:
	.loc 3 375 0
	cmpwi 7,3,0
.LBE7063:
.LBE7062:
	.loc 3 656 0
	mr 9,3
.LVL1346:
.LBB7068:
.LBB7066:
	.loc 3 375 0
	ble- 7,.L1326
	.loc 3 380 0
	lwz 0,16(30)
	cmpw 7,3,0
	lwz 0,12(30)
	beq- 7,.L1203
.LVL1347:
	.loc 3 387 0
	cmpw 7,3,0
	.loc 3 386 0
	stw 3,16(30)
	.loc 3 387 0
	bge- 7,.L1207
	.loc 3 388 0
	stw 3,12(30)
.L1207:
	.loc 3 392 0
	slwi 3,3,2
	bl _Znaj
.LVL1348:
	stw 3,24(30)
.LVL1349:
	mr 31,3
	.loc 3 393 0
	li 9,0
	li 11,0
	lwz 0,0(28)
	cmpwi 7,0,0
	bgt+ 7,.L1310
	b .L1341
.LVL1350:
.L1328:
	lwz 31,24(30)
.LVL1351:
.L1310:
	.loc 3 394 0
	lwz 0,0(9)
	.loc 3 393 0
	addi 11,11,1
.LVL1352:
	.loc 3 394 0
	stwx 0,31,9
	.loc 3 393 0
	addi 9,9,4
	lwz 0,0(28)
	cmpw 7,11,0
	blt+ 7,.L1328
	lwz 9,16(30)
	lwz 31,24(30)
	b .L1203
.LVL1353:
.L1322:
.LBE7066:
.LBE7068:
