	.file	"Material.cpp"
	.section	".text"
.Ltext0:
	.section	.text._ZN14idFixedWinding5ClearEv,"axG",@progbits,_ZN14idFixedWinding5ClearEv,comdat
	.align 2
	.weak	_ZN14idFixedWinding5ClearEv
	.type	_ZN14idFixedWinding5ClearEv, @function
_ZN14idFixedWinding5ClearEv:
.LFB1502:
	.file 1 "d:/Data/Nintendo/DoomGX/src/renderer/../idlib/../idlib/geometry/Winding.h"
	.loc 1 398 0
	.cfi_startproc
.LVL0:
	.loc 1 399 0
	li 0,0
	.loc 1 400 0
	.loc 1 399 0
	stw 0,4(3)
	.loc 1 400 0
	blr
	.cfi_endproc
.LFE1502:
	.size	_ZN14idFixedWinding5ClearEv, .-_ZN14idFixedWinding5ClearEv
	.section	.text._ZN6idDeclD2Ev,"axG",@progbits,_ZN6idDeclD5Ev,comdat
	.align 2
	.weak	_ZN6idDeclD2Ev
	.type	_ZN6idDeclD2Ev, @function
_ZN6idDeclD2Ev:
.LFB2259:
	.file 2 "d:/Data/Nintendo/DoomGX/src/renderer/../idlib/../framework/DeclManager.h"
	.loc 2 137 0
	.cfi_startproc
.LVL1:
.LBB1516:
	.loc 2 137 0
	lis 9,_ZTV6idDecl+8@ha
.LBE1516:
.LBB1517:
	la 0,_ZTV6idDecl+8@l(9)
	stw 0,0(3)
.LBE1517:
	blr
	.cfi_endproc
.LFE2259:
	.size	_ZN6idDeclD2Ev, .-_ZN6idDeclD2Ev
	.section	.text._ZN6idDecl14SetDefaultTextEv,"axG",@progbits,_ZN6idDecl14SetDefaultTextEv,comdat
	.align 2
	.weak	_ZN6idDecl14SetDefaultTextEv
	.type	_ZN6idDecl14SetDefaultTextEv, @function
_ZN6idDecl14SetDefaultTextEv:
.LFB2279:
	.loc 2 200 0
	.cfi_startproc
.LVL2:
	mflr 0
	stwu 1,-8(1)
.LCFI0:
	.cfi_def_cfa_offset 8
	.cfi_register 65, 0
	stw 0,12(1)
	.loc 2 200 0
	lwz 3,4(3)
.LVL3:
	lwz 9,0(3)
	lwz 0,80(9)
	.cfi_offset 65, 4
	mtctr 0
	bctrl
	lwz 0,12(1)
	addi 1,1,8
.LCFI1:
	.cfi_def_cfa_offset 0
	mtlr 0
	blr
	.cfi_endproc
.LFE2279:
	.size	_ZN6idDecl14SetDefaultTextEv, .-_ZN6idDecl14SetDefaultTextEv
	.section	.text._ZNK6idDecl17DefaultDefinitionEv,"axG",@progbits,_ZNK6idDecl17DefaultDefinitionEv,comdat
	.align 2
	.weak	_ZNK6idDecl17DefaultDefinitionEv
	.type	_ZNK6idDecl17DefaultDefinitionEv, @function
_ZNK6idDecl17DefaultDefinitionEv:
.LFB2280:
	.loc 2 207 0
	.cfi_startproc
.LVL4:
	mflr 0
	stwu 1,-8(1)
.LCFI2:
	.cfi_def_cfa_offset 8
	.cfi_register 65, 0
	stw 0,12(1)
	.loc 2 207 0
	lwz 3,4(3)
.LVL5:
	lwz 9,0(3)
	lwz 0,84(9)
	.cfi_offset 65, 4
	mtctr 0
	bctrl
	lwz 0,12(1)
	addi 1,1,8
.LCFI3:
	.cfi_def_cfa_offset 0
	mtlr 0
	blr
	.cfi_endproc
.LFE2280:
	.size	_ZNK6idDecl17DefaultDefinitionEv, .-_ZNK6idDecl17DefaultDefinitionEv
	.section	.text._ZN6idDecl5ParseEPKci,"axG",@progbits,_ZN6idDecl5ParseEPKci,comdat
	.align 2
	.weak	_ZN6idDecl5ParseEPKci
	.type	_ZN6idDecl5ParseEPKci, @function
_ZN6idDecl5ParseEPKci:
.LFB2281:
	.loc 2 214 0
	.cfi_startproc
.LVL6:
	mflr 0
	stwu 1,-8(1)
.LCFI4:
	.cfi_def_cfa_offset 8
	.cfi_register 65, 0
	stw 0,12(1)
	.loc 2 214 0
	lwz 3,4(3)
.LVL7:
	lwz 9,0(3)
	lwz 0,88(9)
	.cfi_offset 65, 4
	mtctr 0
	bctrl
.LVL8:
	lwz 0,12(1)
	addi 1,1,8
.LCFI5:
	.cfi_def_cfa_offset 0
	mtlr 0
	blr
	.cfi_endproc
.LFE2281:
	.size	_ZN6idDecl5ParseEPKci, .-_ZN6idDecl5ParseEPKci
	.section	.text._ZN6idDecl8FreeDataEv,"axG",@progbits,_ZN6idDecl8FreeDataEv,comdat
	.align 2
	.weak	_ZN6idDecl8FreeDataEv
	.type	_ZN6idDecl8FreeDataEv, @function
_ZN6idDecl8FreeDataEv:
.LFB2282:
	.loc 2 220 0
	.cfi_startproc
.LVL9:
	mflr 0
	stwu 1,-8(1)
.LCFI6:
	.cfi_def_cfa_offset 8
	.cfi_register 65, 0
	stw 0,12(1)
	.loc 2 220 0
	lwz 3,4(3)
.LVL10:
	lwz 9,0(3)
	lwz 0,92(9)
	.cfi_offset 65, 4
	mtctr 0
	bctrl
	lwz 0,12(1)
	addi 1,1,8
.LCFI7:
	.cfi_def_cfa_offset 0
	mtlr 0
	blr
	.cfi_endproc
.LFE2282:
	.size	_ZN6idDecl8FreeDataEv, .-_ZN6idDecl8FreeDataEv
	.section	.text._ZNK6idDecl4SizeEv,"axG",@progbits,_ZNK6idDecl4SizeEv,comdat
	.align 2
	.weak	_ZNK6idDecl4SizeEv
	.type	_ZNK6idDecl4SizeEv, @function
_ZNK6idDecl4SizeEv:
.LFB2283:
	.loc 2 223 0
	.cfi_startproc
.LVL11:
	mflr 0
	stwu 1,-8(1)
.LCFI8:
	.cfi_def_cfa_offset 8
	.cfi_register 65, 0
	stw 0,12(1)
	.loc 2 223 0
	lwz 3,4(3)
.LVL12:
	lwz 9,0(3)
	lwz 0,96(9)
	.cfi_offset 65, 4
	mtctr 0
	bctrl
	lwz 0,12(1)
	addi 1,1,8
.LCFI9:
	.cfi_def_cfa_offset 0
	mtlr 0
	blr
	.cfi_endproc
.LFE2283:
	.size	_ZNK6idDecl4SizeEv, .-_ZNK6idDecl4SizeEv
	.section	.text._ZNK6idDecl4ListEv,"axG",@progbits,_ZNK6idDecl4ListEv,comdat
	.align 2
	.weak	_ZNK6idDecl4ListEv
	.type	_ZNK6idDecl4ListEv, @function
_ZNK6idDecl4ListEv:
.LFB2284:
	.loc 2 228 0
	.cfi_startproc
.LVL13:
	mflr 0
	stwu 1,-8(1)
.LCFI10:
	.cfi_def_cfa_offset 8
	.cfi_register 65, 0
	stw 0,12(1)
	.loc 2 228 0
	lwz 3,4(3)
.LVL14:
	lwz 9,0(3)
	lwz 0,100(9)
	.cfi_offset 65, 4
	mtctr 0
	bctrl
	lwz 0,12(1)
	addi 1,1,8
.LCFI11:
	.cfi_def_cfa_offset 0
	mtlr 0
	blr
	.cfi_endproc
.LFE2284:
	.size	_ZNK6idDecl4ListEv, .-_ZNK6idDecl4ListEv
	.section	.text._ZNK6idDecl5PrintEv,"axG",@progbits,_ZNK6idDecl5PrintEv,comdat
	.align 2
	.weak	_ZNK6idDecl5PrintEv
	.type	_ZNK6idDecl5PrintEv, @function
_ZNK6idDecl5PrintEv:
.LFB2285:
	.loc 2 233 0
	.cfi_startproc
.LVL15:
	mflr 0
	stwu 1,-8(1)
.LCFI12:
	.cfi_def_cfa_offset 8
	.cfi_register 65, 0
	stw 0,12(1)
	.loc 2 233 0
	lwz 3,4(3)
.LVL16:
	lwz 9,0(3)
	lwz 0,104(9)
	.cfi_offset 65, 4
	mtctr 0
	bctrl
	lwz 0,12(1)
	addi 1,1,8
.LCFI13:
	.cfi_def_cfa_offset 0
	mtlr 0
	blr
	.cfi_endproc
.LFE2285:
	.size	_ZNK6idDecl5PrintEv, .-_ZNK6idDecl5PrintEv
	.section	".text"
	.align 2
	.globl _ZNK10idMaterial5PrintEv
	.type	_ZNK10idMaterial5PrintEv, @function
_ZNK10idMaterial5PrintEv:
.LFB2602:
	.file 3 "d:/Data/Nintendo/DoomGX/src/renderer/Material.cpp"
	.loc 3 2415 0
	.cfi_startproc
.LVL17:
	mflr 0
	stwu 1,-56(1)
.LCFI14:
	.cfi_def_cfa_offset 56
	.cfi_register 65, 0
	stw 27,36(1)
	lis 27,common@ha
	.cfi_offset 27, -20
	stw 31,52(1)
	mr 31,3
	.cfi_offset 31, -4
	stw 0,60(1)
	stw 21,12(1)
	stw 22,16(1)
	stw 23,20(1)
	stw 24,24(1)
	stw 25,28(1)
	stw 26,32(1)
	stw 28,40(1)
	stw 29,44(1)
	stw 30,48(1)
.LBB1518:
.LBB1519:
	.loc 3 2840 0
	lwz 3,4(3)
.LVL18:
.LBE1519:
.LBB1529:
.LBB1530:
	.loc 2 162 0
	lwz 9,0(3)
	lwz 0,36(9)
	.cfi_offset 30, -8
	.cfi_offset 29, -12
	.cfi_offset 28, -16
	.cfi_offset 26, -24
	.cfi_offset 25, -28
	.cfi_offset 24, -32
	.cfi_offset 23, -36
	.cfi_offset 22, -40
	.cfi_offset 21, -44
	.cfi_offset 65, 4
	mtctr 0
	bctrl
.LVL19:
.LBE1530:
.LBE1529:
	.loc 3 2420 0
	lwz 0,216(31)
	cmpwi 7,0,21
	ble- 7,.L12
	lis 28,.LC0@ha
	li 30,21
	la 29,common@l(27)
	la 28,.LC0@l(28)
.LVL20:
.L13:
	.loc 3 2421 0 discriminator 2
	lwz 3,0(29)
	slwi 9,30,2
	lwz 11,220(31)
	mr 5,30
	lwz 10,0(3)
	mr 4,28
	lfsx 1,11,9
	.loc 3 2420 0 discriminator 2
	addi 30,30,1
	.loc 3 2421 0 discriminator 2
	lwz 0,68(10)
	mtctr 0
	creqv 6,6,6
	bctrl
.LVL21:
	.loc 3 2420 0 discriminator 2
	lwz 0,216(31)
	cmpw 7,0,30
	bgt+ 7,.L13
.LVL22:
.L12:
	.loc 3 2423 0
	lwz 3,common@l(27)
	lis 4,.LC1@ha
	la 4,.LC1@l(4)
	lwz 9,0(3)
	lwz 0,68(9)
	mtctr 0
	crxor 6,6,6
	bctrl
.LVL23:
.LBB1531:
	.loc 3 2424 0
	lwz 0,208(31)
	cmpwi 7,0,0
	ble- 7,.L11
	lis 29,common@ha
.LBB1520:
	.loc 3 2429 0
	lis 28,.LC3@ha
	lis 27,.LANCHOR0@ha
	.loc 3 2427 0
	lis 26,.LC2@ha
.LBE1520:
	.loc 3 2424 0
	li 30,0
	la 29,common@l(29)
.LBB1525:
	.loc 3 2429 0
	la 28,.LC3@l(28)
	la 27,.LANCHOR0@l(27)
	.loc 3 2427 0
	lis 25,declManager@ha
	la 26,.LC2@l(26)
	b .L17
.LVL24:
.L15:
	.loc 3 2429 0
	lwz 3,0(29)
.LBE1525:
	.loc 3 2424 0
	addi 30,30,1
.LBB1526:
	.loc 3 2429 0
	lwz 5,12(24)
	lwz 11,0(3)
	lwz 6,4(24)
	lwz 0,68(11)
	lwzx 7,27,9
	mtctr 0
	lwz 8,8(24)
	crxor 6,6,6
	bctrl
.LVL25:
.LBE1526:
	.loc 3 2424 0
	lwz 0,208(31)
	cmpw 7,0,30
	ble- 7,.L11
.LVL26:
.L17:
.LBB1527:
	.loc 3 2425 0
	lwz 24,212(31)
	.loc 3 2415 0
	slwi 0,30,4
	.loc 3 2429 0
	mr 4,28
	.loc 3 2426 0
	lwzx 11,24,0
	.loc 3 2425 0
	add 24,24,0
.LVL27:
	.loc 3 2426 0
	cmpwi 7,11,5
	.loc 3 2429 0
	slwi 9,11,2
	.loc 3 2426 0
	bne+ 7,.L15
	.loc 3 2427 0
	lwz 3,declManager@l(25)
	li 4,0
	lwz 22,0(29)
	li 6,1
	lwz 9,0(3)
.LBE1527:
	.loc 3 2424 0
	addi 30,30,1
.LBB1528:
	.loc 3 2427 0
	lwz 5,4(24)
	lwz 0,76(9)
.LVL28:
	lwz 9,0(22)
	mtctr 0
	lwz 21,12(24)
	lwz 23,68(9)
	bctrl
	.loc 3 2840 0
	lwz 3,4(3)
.LBB1521:
.LBB1522:
	.loc 2 140 0
	lwz 9,0(3)
	lwz 0,8(9)
	mtctr 0
	bctrl
.LBE1522:
.LBE1521:
	.loc 3 2427 0
	mr 4,26
.LBB1524:
.LBB1523:
	.loc 2 140 0
	mr 6,3
.LBE1523:
.LBE1524:
	.loc 3 2427 0
	mr 5,21
	mr 3,22
	lwz 7,8(24)
	mtctr 23
	crxor 6,6,6
	bctrl
.LVL29:
.LBE1528:
	.loc 3 2424 0
	lwz 0,208(31)
	cmpw 7,0,30
	bgt+ 7,.L17
.LVL30:
.L11:
.LBE1531:
.LBE1518:
	.loc 3 2432 0
	lwz 0,60(1)
	lwz 21,12(1)
	mtlr 0
	lwz 22,16(1)
	lwz 23,20(1)
	lwz 24,24(1)
	lwz 25,28(1)
	lwz 26,32(1)
	lwz 27,36(1)
	lwz 28,40(1)
	lwz 29,44(1)
	lwz 30,48(1)
	lwz 31,52(1)
.LVL31:
	addi 1,1,56
.LCFI15:
	.cfi_def_cfa_offset 0
	.cfi_restore 31
	.cfi_restore 30
	.cfi_restore 29
	.cfi_restore 28
	.cfi_restore 27
	.cfi_restore 26
	.cfi_restore 25
	.cfi_restore 24
	.cfi_restore 23
	.cfi_restore 22
	.cfi_restore 21
	blr
	.cfi_endproc
.LFE2602:
	.size	_ZNK10idMaterial5PrintEv, .-_ZNK10idMaterial5PrintEv
	.align 2
	.globl _ZNK10idMaterial4SizeEv
	.type	_ZNK10idMaterial4SizeEv, @function
_ZNK10idMaterial4SizeEv:
.LFB2623:
	.loc 3 2758 0
	.cfi_startproc
.LVL32:
	mflr 0
	stwu 1,-8(1)
.LCFI16:
	.cfi_def_cfa_offset 8
	.cfi_register 65, 0
	stw 0,12(1)
	.loc 3 2840 0
	lwz 3,4(3)
.LVL33:
.LBB1532:
.LBB1533:
	.loc 2 162 0
	lwz 9,0(3)
	lwz 0,36(9)
	.cfi_offset 65, 4
	mtctr 0
	bctrl
.LBE1533:
.LBE1532:
	.loc 3 2762 0
	lwz 0,12(1)
	li 3,296
	mtlr 0
	addi 1,1,8
.LCFI17:
	.cfi_def_cfa_offset 0
	blr
	.cfi_endproc
.LFE2623:
	.size	_ZNK10idMaterial4SizeEv, .-_ZNK10idMaterial4SizeEv
	.align 2
	.globl _ZNK10idMaterial17DefaultDefinitionEv
	.type	_ZNK10idMaterial17DefaultDefinitionEv, @function
_ZNK10idMaterial17DefaultDefinitionEv:
.LFB2625:
	.loc 3 2795 0
	.cfi_startproc
.LVL34:
	.loc 3 2802 0
	lis 3,.LC4@ha
.LVL35:
	.loc 3 2803 0
	la 3,.LC4@l(3)
	blr
	.cfi_endproc
.LFE2625:
	.size	_ZNK10idMaterial17DefaultDefinitionEv, .-_ZNK10idMaterial17DefaultDefinitionEv
	.section	.text._ZN9idWinding5ClearEv,"axG",@progbits,_ZN9idWinding5ClearEv,comdat
	.align 2
	.weak	_ZN9idWinding5ClearEv
	.type	_ZN9idWinding5ClearEv, @function
_ZN9idWinding5ClearEv:
.LFB1473:
	.loc 1 249 0
	.cfi_startproc
.LVL36:
	mflr 0
	stwu 1,-16(1)
.LCFI18:
	.cfi_def_cfa_offset 16
	.cfi_register 65, 0
	stw 31,12(1)
	mr 31,3
	.cfi_offset 31, -4
	stw 0,20(1)
	.loc 1 250 0
	li 0,0
	.cfi_offset 65, 4
	.loc 1 251 0
	lwz 3,8(3)
.LVL37:
	.loc 1 250 0
	stw 0,4(31)
	.loc 1 251 0
	cmpwi 7,3,0
	beq- 7,.L25
	.loc 1 251 0 is_stmt 0 discriminator 1
	bl _ZdaPv
.L25:
	.loc 1 252 0 is_stmt 1
	li 0,0
	stw 0,8(31)
	.loc 1 253 0
	lwz 0,20(1)
	lwz 31,12(1)
.LVL38:
	mtlr 0
	addi 1,1,16
.LCFI19:
	.cfi_def_cfa_offset 0
	.cfi_restore 31
	blr
	.cfi_endproc
.LFE1473:
	.size	_ZN9idWinding5ClearEv, .-_ZN9idWinding5ClearEv
	.section	.text._ZN9idWindingD2Ev,"axG",@progbits,_ZN9idWindingD5Ev,comdat
	.align 2
	.weak	_ZN9idWindingD2Ev
	.type	_ZN9idWindingD2Ev, @function
_ZN9idWindingD2Ev:
.LFB1461:
	.loc 1 183 0
	.cfi_startproc
.LVL39:
	mflr 0
	stwu 1,-16(1)
.LCFI20:
	.cfi_def_cfa_offset 16
	.cfi_register 65, 0
.LBB1535:
	lis 9,_ZTV9idWinding+8@ha
.LBE1535:
	stw 31,12(1)
	mr 31,3
	.cfi_offset 31, -4
	stw 0,20(1)
.LBB1536:
	.loc 1 183 0
	la 0,_ZTV9idWinding+8@l(9)
	.cfi_offset 65, 4
	.loc 1 184 0
	lwz 3,8(3)
.LVL40:
	.loc 1 183 0
	stw 0,0(31)
	.loc 1 184 0
	cmpwi 7,3,0
	beq- 7,.L27
	.loc 1 184 0 is_stmt 0 discriminator 1
	bl _ZdaPv
.L27:
	.loc 1 185 0 is_stmt 1
	li 0,0
	stw 0,8(31)
.LBE1536:
	.loc 1 186 0
	lwz 0,20(1)
	lwz 31,12(1)
.LVL41:
	mtlr 0
	addi 1,1,16
.LCFI21:
	.cfi_def_cfa_offset 0
	.cfi_restore 31
	blr
	.cfi_endproc
.LFE1461:
	.size	_ZN9idWindingD2Ev, .-_ZN9idWindingD2Ev
	.section	.text._ZN6idDeclD0Ev,"axG",@progbits,_ZN6idDeclD5Ev,comdat
	.align 2
	.weak	_ZN6idDeclD0Ev
	.type	_ZN6idDeclD0Ev, @function
_ZN6idDeclD0Ev:
.LFB2261:
	.loc 2 137 0
	.cfi_startproc
.LVL42:
	mflr 0
	stwu 1,-8(1)
.LCFI22:
	.cfi_def_cfa_offset 8
	.cfi_register 65, 0
.LBB1537:
.LBB1538:
.LBB1539:
	lis 9,_ZTV6idDecl+8@ha
.LBE1539:
.LBE1538:
.LBE1537:
	stw 0,12(1)
.LBB1542:
.LBB1541:
.LBB1540:
	.loc 2 137 0
	la 0,_ZTV6idDecl+8@l(9)
	.cfi_offset 65, 4
	stw 0,0(3)
.LBE1540:
.LBE1541:
.LBE1542:
	bl _ZdlPv
.LVL43:
	lwz 0,12(1)
	addi 1,1,8
.LCFI23:
	.cfi_def_cfa_offset 0
	mtlr 0
	blr
	.cfi_endproc
.LFE2261:
	.size	_ZN6idDeclD0Ev, .-_ZN6idDeclD0Ev
	.section	".text"
	.align 2
	.globl _ZN10idMaterial14SetDefaultTextEv
	.type	_ZN10idMaterial14SetDefaultTextEv, @function
_ZN10idMaterial14SetDefaultTextEv:
.LFB2624:
	.loc 3 2769 0
	.cfi_startproc
.LVL44:
	mflr 0
	stwu 1,-2064(1)
.LCFI24:
	.cfi_def_cfa_offset 2064
	.cfi_register 65, 0
	stw 30,2056(1)
	stw 31,2060(1)
	mr 31,3
	.cfi_offset 31, -4
	.cfi_offset 30, -8
	stw 0,2068(1)
	.loc 3 2840 0
	lwz 3,4(3)
.LVL45:
.LBB1543:
.LBB1544:
.LBB1545:
	.loc 2 140 0
	lwz 9,0(3)
	lwz 0,8(9)
	.cfi_offset 65, 4
	mtctr 0
	bctrl
	mr 30,3
	.loc 3 2840 0
	lwz 3,4(31)
.LBE1545:
.LBE1544:
.LBB1546:
.LBB1547:
	.loc 2 140 0
	lwz 9,0(3)
	lwz 0,8(9)
	mtctr 0
	bctrl
.LBE1547:
.LBE1546:
	.loc 3 2782 0
	lis 5,.LC5@ha
.LBB1549:
.LBB1548:
	.loc 2 140 0
	mr 7,3
.LBE1548:
.LBE1549:
	.loc 3 2782 0
	mr 6,30
	li 4,2048
	la 5,.LC5@l(5)
	addi 3,1,8
	crxor 6,6,6
	bl _ZN5idStr8snPrintfEPciPKcz
	.loc 3 2840 0
	lwz 3,4(31)
.LVL46:
.LBB1550:
.LBB1551:
	.loc 2 180 0
	addi 4,1,8
.LVL47:
	lwz 9,0(3)
	lwz 0,60(9)
	mtctr 0
	bctrl
.LVL48:
.LBE1551:
.LBE1550:
.LBE1543:
	.loc 3 2788 0
	lwz 0,2068(1)
	lwz 30,2056(1)
	li 3,1
	mtlr 0
	lwz 31,2060(1)
.LVL49:
	addi 1,1,2064
.LCFI25:
	.cfi_def_cfa_offset 0
	.cfi_restore 31
	.cfi_restore 30
	blr
	.cfi_endproc
.LFE2624:
	.size	_ZN10idMaterial14SetDefaultTextEv, .-_ZN10idMaterial14SetDefaultTextEv
	.align 2
	.globl _ZN10idMaterialD2Ev
	.type	_ZN10idMaterialD2Ev, @function
_ZN10idMaterialD2Ev:
.LFB2571:
	.loc 3 155 0
	.cfi_startproc
	.cfi_personality 0,__gxx_personality_v0
	.cfi_lsda 0,.LLSDA2571
.LVL50:
	mflr 0
	stwu 1,-16(1)
.LCFI26:
	.cfi_def_cfa_offset 16
	.cfi_register 65, 0
.LBB1552:
	lis 9,_ZTV10idMaterial+8@ha
.LBE1552:
	stw 31,12(1)
	mr 31,3
	.cfi_offset 31, -4
	stw 0,20(1)
.LBB1574:
	la 0,_ZTV10idMaterial+8@l(9)
	.cfi_offset 65, 4
.LBE1574:
	stw 30,8(1)
.LBB1575:
	.loc 3 155 0
	stw 0,0(3)
.LVL51:
.LBB1553:
.LBB1554:
.LBB1555:
	.file 4 "d:/Data/Nintendo/DoomGX/src/renderer/../idlib/../idlib/Str.h"
	.loc 4 501 0
	addi 3,3,248
.LVL52:
.LEHB0:
	.cfi_offset 30, -8
	bl _ZN5idStr8FreeDataEv
.LEHE0:
.LVL53:
.LBE1555:
.LBE1554:
.LBE1553:
.LBB1556:
.LBB1557:
.LBB1558:
	.loc 4 501 0 is_stmt 0 discriminator 1
	addi 3,31,40
.LEHB1:
	bl _ZN5idStr8FreeDataEv
.LEHE1:
.LVL54:
.LBE1558:
.LBE1557:
.LBE1556:
.LBB1559:
.LBB1560:
.LBB1561:
	.loc 4 501 0 discriminator 2
	addi 3,31,8
.LEHB2:
	bl _ZN5idStr8FreeDataEv
.LEHE2:
.LVL55:
.LBE1561:
.LBE1560:
.LBE1559:
.LBB1562:
.LBB1563:
.LBB1564:
	.loc 2 137 0 is_stmt 1 discriminator 3
	lis 9,_ZTV6idDecl+8@ha
	la 0,_ZTV6idDecl+8@l(9)
	stw 0,0(31)
.LBE1564:
.LBE1563:
.LBE1562:
.LBE1575:
	.loc 3 156 0 discriminator 3
	lwz 0,20(1)
	lwz 30,8(1)
	mtlr 0
	lwz 31,12(1)
.LVL56:
	addi 1,1,16
	.cfi_remember_state
.LCFI27:
	.cfi_def_cfa_offset 0
	.cfi_restore 31
	.cfi_restore 30
	blr
.LVL57:
.L45:
.LCFI28:
	.cfi_restore_state
	mr 30,3
.LVL58:
.LBB1576:
.LBB1565:
.LBB1566:
.LBB1567:
	.loc 4 501 0
	addi 3,31,40
	bl _ZN5idStr8FreeDataEv
.LVL59:
.L41:
.LBE1567:
.LBE1566:
.LBE1565:
.LBB1568:
.LBB1569:
.LBB1570:
	addi 3,31,8
	bl _ZN5idStr8FreeDataEv
	mr 3,30
.LVL60:
.L43:
.LBE1570:
.LBE1569:
.LBE1568:
.LBB1571:
.LBB1572:
.LBB1573:
	.loc 2 137 0
	lis 9,_ZTV6idDecl+8@ha
	la 0,_ZTV6idDecl+8@l(9)
	stw 0,0(31)
.LEHB3:
	bl _Unwind_Resume
.LEHE3:
.LVL61:
.L47:
	b .L43
.LVL62:
.L46:
	mr 30,3
	b .L41
.LBE1573:
.LBE1572:
.LBE1571:
.LBE1576:
	.cfi_endproc
.LFE2571:
	.globl __gxx_personality_v0
	.section	.gcc_except_table,"a",@progbits
.LLSDA2571:
	.byte	0xff
	.byte	0xff
	.byte	0x1
	.uleb128 .LLSDACSE2571-.LLSDACSB2571
.LLSDACSB2571:
	.uleb128 .LEHB0-.LFB2571
	.uleb128 .LEHE0-.LEHB0
	.uleb128 .L45-.LFB2571
	.uleb128 0
	.uleb128 .LEHB1-.LFB2571
	.uleb128 .LEHE1-.LEHB1
	.uleb128 .L46-.LFB2571
	.uleb128 0
	.uleb128 .LEHB2-.LFB2571
	.uleb128 .LEHE2-.LEHB2
	.uleb128 .L47-.LFB2571
	.uleb128 0
	.uleb128 .LEHB3-.LFB2571
	.uleb128 .LEHE3-.LEHB3
	.uleb128 0
	.uleb128 0
.LLSDACSE2571:
	.section	".text"
	.size	_ZN10idMaterialD2Ev, .-_ZN10idMaterialD2Ev
	.align 2
	.globl _ZN10idMaterialD0Ev
	.type	_ZN10idMaterialD0Ev, @function
_ZN10idMaterialD0Ev:
.LFB2573:
	.loc 3 155 0
	.cfi_startproc
.LVL63:
	stwu 1,-16(1)
.LCFI29:
	.cfi_def_cfa_offset 16
	mflr 0
	stw 31,12(1)
	mr 31,3
	.cfi_offset 31, -4
	.cfi_register 65, 0
	stw 0,20(1)
	.loc 3 156 0
	.cfi_offset 65, 4
	bl _ZN10idMaterialD1Ev
.LVL64:
	mr 3,31
	bl _ZdlPv
	lwz 0,20(1)
	lwz 31,12(1)
.LVL65:
	mtlr 0
	addi 1,1,16
.LCFI30:
	.cfi_def_cfa_offset 0
	.cfi_restore 31
	blr
	.cfi_endproc
.LFE2573:
	.size	_ZN10idMaterialD0Ev, .-_ZN10idMaterialD0Ev
	.align 2
	.globl _ZN10idMaterial8FreeDataEv
	.type	_ZN10idMaterial8FreeDataEv, @function
_ZN10idMaterial8FreeDataEv:
.LFB2574:
	.loc 3 163 0
	.cfi_startproc
.LVL66:
	mflr 0
	stwu 1,-24(1)
.LCFI31:
	.cfi_def_cfa_offset 24
	.cfi_register 65, 0
	stw 31,20(1)
	mr 31,3
	.cfi_offset 31, -4
	stw 0,28(1)
	stw 28,8(1)
	stw 29,12(1)
	stw 30,16(1)
.LBB1577:
	.loc 3 165 0
	lwz 3,4(3)
.LVL67:
	cmpwi 7,3,0
	beq- 7,.L61
	.cfi_offset 30, -8
	.cfi_offset 29, -12
	.cfi_offset 28, -16
	.cfi_offset 65, 4
.LBB1578:
.LBB1579:
	.loc 2 140 0 discriminator 1
	lwz 9,0(3)
	lwz 0,8(9)
	mtctr 0
	bctrl
.LBE1579:
.LBE1578:
	.loc 3 165 0 discriminator 1
	lis 4,.LC6@ha
	la 4,.LC6@l(4)
	bl _ZN5idStr3CmpEPKcS1_
	cmpwi 7,3,0
	beq- 7,.L63
.L61:
	.loc 3 169 0
	lwz 0,236(31)
	cmpwi 7,0,0
	beq- 7,.L52
.LVL68:
	.loc 3 171 0 discriminator 1
	lwz 9,228(31)
	cmpwi 7,9,0
	ble- 7,.L53
	.loc 3 171 0 is_stmt 0
	li 30,0
	li 29,0
	.loc 3 174 0 is_stmt 1
	li 28,0
.LVL69:
.L56:
	.loc 3 172 0
	add 9,0,30
	.loc 3 171 0
	addi 29,29,1
	.loc 3 172 0
	lwz 11,36(9)
	cmpwi 7,11,0
	.loc 3 173 0
	mr 3,11
	.loc 3 172 0
	beq- 7,.L54
	.loc 3 173 0 discriminator 1
	lwz 9,0(11)
	lwz 0,4(9)
	mtctr 0
	bctrl
	.loc 3 174 0 discriminator 1
	lwz 9,236(31)
	add 9,9,30
	stw 28,36(9)
	lwz 0,236(31)
	add 9,0,30
.L54:
	.loc 3 176 0
	lwz 9,104(9)
	cmpwi 7,9,0
	.loc 3 177 0
	mr 3,9
	.loc 3 176 0
	beq- 7,.L55
	.loc 3 177 0
	bl _Z8Mem_FreePv
	.loc 3 178 0
	lwz 9,236(31)
	add 9,9,30
	stw 28,104(9)
	lwz 0,236(31)
.L55:
.LVL70:
	.loc 3 171 0
	lwz 9,228(31)
	addi 30,30,108
	cmpw 7,9,29
	bgt+ 7,.L56
.LVL71:
.L53:
	.loc 3 181 0
	mr 3,0
	bl _Z12R_StaticFreePv
	.loc 3 182 0
	li 0,0
	stw 0,236(31)
.L52:
	.loc 3 184 0
	lwz 3,220(31)
	cmpwi 7,3,0
	beq- 7,.L57
	.loc 3 185 0
	bl _Z12R_StaticFreePv
	.loc 3 186 0
	li 0,0
	stw 0,220(31)
.L57:
	.loc 3 188 0
	lwz 3,224(31)
	cmpwi 7,3,0
	beq- 7,.L58
	.loc 3 189 0
	bl _Z12R_StaticFreePv
	.loc 3 190 0
	li 0,0
	stw 0,224(31)
.L58:
	.loc 3 192 0
	lwz 3,212(31)
	cmpwi 7,3,0
	beq- 7,.L59
	.loc 3 193 0
	bl _Z12R_StaticFreePv
	.loc 3 194 0
	li 0,0
	stw 0,212(31)
.L59:
	.loc 3 196 0
	lwz 3,4(31)
	cmpwi 7,3,0
	beq- 7,.L50
.LBB1580:
.LBB1581:
	.loc 2 140 0 discriminator 1
	lwz 9,0(3)
	lwz 0,8(9)
	mtctr 0
	bctrl
.LBE1581:
.LBE1580:
	.loc 3 196 0 discriminator 1
	lis 4,.LC6@ha
	la 4,.LC6@l(4)
	bl _ZN5idStr3CmpEPKcS1_
	cmpwi 7,3,0
	bne- 7,.L50
	.loc 3 197 0 discriminator 4
	lis 3,.LC8@ha
	lwz 5,220(31)
	mr 4,31
	la 3,.LC8@l(3)
	crxor 6,6,6
	bl _Z10Sys_PrintfPKcz
.L50:
.LBE1577:
	.loc 3 200 0
	lwz 0,28(1)
	lwz 28,8(1)
	mtlr 0
	lwz 29,12(1)
	lwz 30,16(1)
	lwz 31,20(1)
.LVL72:
	addi 1,1,24
	.cfi_remember_state
.LCFI32:
	.cfi_def_cfa_offset 0
	.cfi_restore 31
	.cfi_restore 30
	.cfi_restore 29
	.cfi_restore 28
	blr
.LVL73:
.L63:
.LCFI33:
	.cfi_restore_state
.LBB1582:
	.loc 3 166 0 discriminator 4
	lis 3,.LC7@ha
	mr 4,31
	la 3,.LC7@l(3)
	crxor 6,6,6
	bl _Z10Sys_PrintfPKcz
	.loc 3 167 0 discriminator 4
	bl _Z18Sys_PrintBacktracev
	b .L61
.LBE1582:
	.cfi_endproc
.LFE2574:
	.size	_ZN10idMaterial8FreeDataEv, .-_ZN10idMaterial8FreeDataEv
	.align 2
	.type	_ZeqRK5idStrPKc.isra.7, @function
_ZeqRK5idStrPKc.isra.7:
.LFB2866:
	.loc 4 651 0
	.cfi_startproc
.LVL74:
	mflr 0
	stwu 1,-8(1)
.LCFI34:
	.cfi_def_cfa_offset 8
	.cfi_register 65, 0
	stw 0,12(1)
	.loc 4 653 0
	.cfi_offset 65, 4
	bl _ZN5idStr3CmpEPKcS1_
.LVL75:
	.loc 4 654 0
	lwz 0,12(1)
	cntlzw 3,3
	srwi 3,3,5
	mtlr 0
	addi 1,1,8
.LCFI35:
	.cfi_def_cfa_offset 0
	blr
	.cfi_endproc
.LFE2866:
	.size	_ZeqRK5idStrPKc.isra.7, .-_ZeqRK5idStrPKc.isra.7
	.align 2
	.globl _ZNK10idMaterial9ImageNameEv
	.type	_ZNK10idMaterial9ImageNameEv, @function
_ZNK10idMaterial9ImageNameEv:
.LFB2621:
	.loc 3 2722 0
	.cfi_startproc
.LVL76:
	mflr 0
	stwu 1,-16(1)
.LCFI36:
	.cfi_def_cfa_offset 16
	.cfi_register 65, 0
	stw 31,12(1)
	mr 31,3
	.cfi_offset 31, -4
	stw 0,20(1)
.LBB1592:
	.loc 3 2840 0
	lwz 3,4(3)
.LVL77:
.LBB1593:
.LBB1594:
	.loc 2 162 0
	lwz 9,0(3)
	lwz 0,36(9)
	.cfi_offset 65, 4
	mtctr 0
	bctrl
.LBE1594:
.LBE1593:
	.loc 3 2725 0
	lwz 0,228(31)
	cmpwi 7,0,0
	beq- 7,.L68
.LVL78:
.LBE1592:
.LBB1595:
.LBB1596:
	.loc 3 2728 0
	lwz 9,236(31)
	lwz 9,40(9)
.LVL79:
	.loc 3 2729 0
	cmpwi 7,9,0
	beq- 7,.L68
.LVL80:
.LBE1596:
.LBE1595:
	.loc 3 2733 0
	lwz 0,20(1)
.LBB1599:
.LBB1598:
.LBB1597:
	.loc 3 2840 0
	lwz 3,1132(9)
.LBE1597:
.LBE1598:
.LBE1599:
	.loc 3 2733 0
	mtlr 0
	lwz 31,12(1)
.LVL81:
	addi 1,1,16
	.cfi_remember_state
.LCFI37:
	.cfi_def_cfa_offset 0
	.cfi_restore 31
	blr
.LVL82:
.L68:
.LCFI38:
	.cfi_restore_state
	lwz 0,20(1)
.LBB1600:
	.loc 3 2726 0
	lis 3,.LC9@ha
.LBE1600:
	.loc 3 2733 0
	lwz 31,12(1)
.LVL83:
.LBB1601:
	.loc 3 2726 0
	la 3,.LC9@l(3)
.LBE1601:
	.loc 3 2733 0
	mtlr 0
	addi 1,1,16
	.cfi_restore 31
.LCFI39:
	.cfi_def_cfa_offset 0
	blr
	.cfi_endproc
.LFE2621:
	.size	_ZNK10idMaterial9ImageNameEv, .-_ZNK10idMaterial9ImageNameEv
	.section	.text._ZN14idFixedWindingD2Ev,"axG",@progbits,_ZN14idFixedWindingD5Ev,comdat
	.align 2
	.weak	_ZN14idFixedWindingD2Ev
	.type	_ZN14idFixedWindingD2Ev, @function
_ZN14idFixedWindingD2Ev:
.LFB1498:
	.loc 1 380 0
	.cfi_startproc
.LVL84:
.LBB1607:
	.loc 1 381 0
	li 0,0
.LBB1608:
.LBB1609:
.LBB1610:
	.loc 1 183 0
	lis 9,_ZTV9idWinding+8@ha
.LBE1610:
.LBE1609:
.LBE1608:
	.loc 1 381 0
	stw 0,8(3)
.LVL85:
.LBB1613:
.LBB1612:
.LBB1611:
	.loc 1 183 0
	la 0,_ZTV9idWinding+8@l(9)
	stw 0,0(3)
.LBE1611:
.LBE1612:
.LBE1613:
.LBE1607:
	.loc 1 382 0
	blr
	.cfi_endproc
.LFE1498:
	.size	_ZN14idFixedWindingD2Ev, .-_ZN14idFixedWindingD2Ev
	.section	.text._ZN9idWindingD0Ev,"axG",@progbits,_ZN9idWindingD5Ev,comdat
	.align 2
	.weak	_ZN9idWindingD0Ev
	.type	_ZN9idWindingD0Ev, @function
_ZN9idWindingD0Ev:
.LFB1463:
	.loc 1 183 0
	.cfi_startproc
.LVL86:
	mflr 0
	stwu 1,-16(1)
.LCFI40:
	.cfi_def_cfa_offset 16
	.cfi_register 65, 0
.LBB1617:
.LBB1618:
.LBB1619:
	lis 9,_ZTV9idWinding+8@ha
.LBE1619:
.LBE1618:
.LBE1617:
	stw 31,12(1)
	mr 31,3
	.cfi_offset 31, -4
.LVL87:
	stw 0,20(1)
.LBB1624:
.LBB1622:
.LBB1620:
	.loc 1 183 0
	la 0,_ZTV9idWinding+8@l(9)
	.cfi_offset 65, 4
	.loc 1 184 0
	lwz 3,8(3)
.LVL88:
	.loc 1 183 0
	stw 0,0(31)
	.loc 1 184 0
	cmpwi 7,3,0
	beq- 7,.L74
	bl _ZdaPv
.L74:
	.loc 1 185 0
	li 0,0
.LBE1620:
.LBE1622:
.LBE1624:
	.loc 1 186 0
	mr 3,31
.LBB1625:
.LBB1623:
.LBB1621:
	.loc 1 185 0
	stw 0,8(31)
.LBE1621:
.LBE1623:
.LBE1625:
	.loc 1 186 0
	bl _ZdlPv
	lwz 0,20(1)
	lwz 31,12(1)
.LVL89:
	mtlr 0
	addi 1,1,16
.LCFI41:
	.cfi_def_cfa_offset 0
	.cfi_restore 31
	blr
	.cfi_endproc
.LFE1463:
	.size	_ZN9idWindingD0Ev, .-_ZN9idWindingD0Ev
	.section	.text._ZN14idFixedWindingD0Ev,"axG",@progbits,_ZN14idFixedWindingD5Ev,comdat
	.align 2
	.weak	_ZN14idFixedWindingD0Ev
	.type	_ZN14idFixedWindingD0Ev, @function
_ZN14idFixedWindingD0Ev:
.LFB1500:
	.loc 1 380 0
	.cfi_startproc
.LVL90:
	mflr 0
	stwu 1,-8(1)
.LCFI42:
	.cfi_def_cfa_offset 8
	.cfi_register 65, 0
.LBB1632:
.LBB1633:
.LBB1634:
.LBB1635:
.LBB1636:
.LBB1637:
	.loc 1 183 0
	lis 11,_ZTV9idWinding+8@ha
.LBE1637:
.LBE1636:
.LBE1635:
.LBE1634:
.LBE1633:
.LBE1632:
	.loc 1 380 0
	stw 0,12(1)
.LBB1643:
.LBB1642:
.LBB1641:
	.loc 1 381 0
	li 0,0
	.cfi_offset 65, 4
	stw 0,8(3)
.LVL91:
.LBB1640:
.LBB1639:
.LBB1638:
	.loc 1 183 0
	la 0,_ZTV9idWinding+8@l(11)
	stw 0,0(3)
.LBE1638:
.LBE1639:
.LBE1640:
.LBE1641:
.LBE1642:
.LBE1643:
	.loc 1 382 0
	bl _ZdlPv
.LVL92:
	lwz 0,12(1)
	addi 1,1,8
.LCFI43:
	.cfi_def_cfa_offset 0
	mtlr 0
	blr
	.cfi_endproc
.LFE1500:
	.size	_ZN14idFixedWindingD0Ev, .-_ZN14idFixedWindingD0Ev
	.section	.text._ZN7idToken13GetFloatValueEv,"axG",@progbits,_ZN7idToken13GetFloatValueEv,comdat
	.align 2
	.weak	_ZN7idToken13GetFloatValueEv
	.type	_ZN7idToken13GetFloatValueEv, @function
_ZN7idToken13GetFloatValueEv:
.LFB1726:
	.file 5 "d:/Data/Nintendo/DoomGX/src/renderer/../idlib/../idlib/Token.h"
	.loc 5 140 0
	.cfi_startproc
.LVL93:
	mflr 0
	stwu 1,-16(1)
.LCFI44:
	.cfi_def_cfa_offset 16
	.cfi_register 65, 0
.LBB1646:
.LBB1647:
	.loc 5 131 0
	lis 9,.LC10@ha
.LBE1647:
.LBE1646:
	.loc 5 140 0
	stw 31,12(1)
	mr 31,3
	.cfi_offset 31, -4
.LVL94:
	stw 0,20(1)
.LBB1653:
.LBB1648:
	.loc 5 131 0
	lwz 0,32(3)
	.cfi_offset 65, 4
	lfs 1,.LC10@l(9)
	cmpwi 7,0,3
	beq- 7,.L85
.LVL95:
.LBE1648:
.LBE1653:
	.loc 5 142 0
	lwz 0,20(1)
	lwz 31,12(1)
	mtlr 0
	addi 1,1,16
	.cfi_remember_state
.LCFI45:
	.cfi_def_cfa_offset 0
	.cfi_restore 31
	blr
.LVL96:
.L85:
.LCFI46:
	.cfi_restore_state
.LBB1654:
.LBB1649:
	.loc 5 134 0
	lwz 0,36(3)
	andis. 9,0,1
	beq- 0,.L86
.LVL97:
.L83:
.LBE1649:
.LBE1654:
	.loc 5 142 0
	lwz 0,20(1)
.LBB1655:
.LBB1650:
	.loc 5 135 0
	lfd 1,56(31)
.LBE1650:
.LBE1655:
	.loc 5 142 0
	mtlr 0
	lwz 31,12(1)
.LVL98:
.LBB1656:
.LBB1651:
	.loc 5 135 0
	frsp 1,1
.LBE1651:
.LBE1656:
	.loc 5 142 0
	addi 1,1,16
	.cfi_remember_state
	.cfi_restore 31
.LCFI47:
	.cfi_def_cfa_offset 0
	blr
.LVL99:
.L86:
.LCFI48:
	.cfi_restore_state
.LBB1657:
.LBB1652:
	.loc 5 135 0
	bl _ZN7idToken11NumberValueEv
.LVL100:
	b .L83
.LBE1652:
.LBE1657:
	.cfi_endproc
.LFE1726:
	.size	_ZN7idToken13GetFloatValueEv, .-_ZN7idToken13GetFloatValueEv
	.section	".text"
	.align 2
	.globl _ZN10idMaterial10CommonInitEv
	.type	_ZN10idMaterial10CommonInitEv, @function
_ZN10idMaterial10CommonInitEv:
.LFB2566:
	.loc 3 78 0
	.cfi_startproc
.LVL101:
	stwu 1,-16(1)
.LCFI49:
	.cfi_def_cfa_offset 16
	mflr 0
	.loc 3 79 0
	lis 4,.LC11@ha
	.loc 3 78 0
	stw 31,12(1)
	.loc 3 79 0
	la 4,.LC11@l(4)
	.loc 3 78 0
	mr 31,3
	.cfi_offset 31, -4
	.cfi_register 65, 0
	.loc 3 79 0
	addi 3,3,8
.LVL102:
	.loc 3 78 0
	stw 0,20(1)
	.loc 3 79 0
	.cfi_offset 65, 4
	bl _ZN5idStraSEPKc
	.loc 3 80 0
	lis 4,.LC12@ha
	addi 3,31,40
	la 4,.LC12@l(4)
	bl _ZN5idStraSEPKc
	.loc 3 109 0
	lis 9,.LC14@ha
	.loc 3 84 0
	lis 8,.LC13@ha
	.loc 3 109 0
	lwz 11,.LC14@l(9)
	.loc 3 84 0
	lwz 8,.LC13@l(8)
	.loc 3 82 0
	li 0,0
	.loc 3 81 0
	li 10,1
	.loc 3 82 0
	stw 0,100(31)
	.loc 3 83 0
	stw 0,104(31)
	.loc 3 111 0
	li 9,0
	.loc 3 85 0
	stw 0,192(31)
	.loc 3 86 0
	stw 0,196(31)
	.loc 3 87 0
	stw 0,152(31)
	.loc 3 88 0
	stw 0,208(31)
	.loc 3 89 0
	stw 0,212(31)
	.loc 3 90 0
	stw 0,216(31)
	.loc 3 91 0
	stw 0,220(31)
	.loc 3 92 0
	stw 0,224(31)
	.loc 3 93 0
	stw 0,228(31)
	.loc 3 94 0
	stw 0,232(31)
	.loc 3 95 0
	stw 0,236(31)
	.loc 3 96 0
	stw 0,280(31)
	.loc 3 97 0
	stw 0,72(31)
	.loc 3 98 0
	stb 0,200(31)
	.loc 3 99 0
	stw 0,76(31)
	.loc 3 100 0
	stb 0,201(31)
	.loc 3 101 0
	stb 0,202(31)
	.loc 3 102 0
	stb 0,203(31)
	.loc 3 103 0
	stb 0,84(31)
	.loc 3 104 0
	stb 0,205(31)
	.loc 3 106 0
	stb 0,204(31)
	.loc 3 107 0
	stw 0,80(31)
	.loc 3 108 0
	stw 0,156(31)
	stw 0,160(31)
	stw 0,164(31)
	stw 0,168(31)
	.loc 3 81 0
	stw 10,96(31)
	.loc 3 84 0
	stw 8,148(31)
	.loc 3 105 0
	stb 10,206(31)
	.loc 3 109 0
	stw 11,284(31)
	.loc 3 126 0
	lwz 3,4(31)
	.loc 3 110 0
	stw 0,88(31)
	.loc 3 126 0
	cmpwi 7,3,0
	.loc 3 112 0
	stb 0,288(31)
	.loc 3 113 0
	stw 0,292(31)
	.loc 3 114 0
	stb 0,289(31)
	.loc 3 116 0
	li 0,10000
	stw 0,108(31)
	.loc 3 117 0
	li 0,4000
	.loc 3 111 0
	stw 9,92(31)
	.loc 3 117 0
	stw 0,112(31)
	.loc 3 118 0
	stw 11,116(31)
	.loc 3 119 0
	stw 11,120(31)
	.loc 3 120 0
	stw 11,124(31)
	.loc 3 121 0
	stw 11,128(31)
	.loc 3 122 0
	stw 9,132(31)
	.loc 3 123 0
	stw 9,136(31)
	.loc 3 124 0
	stw 9,140(31)
	.loc 3 125 0
	stw 9,144(31)
	.loc 3 126 0
	beq- 7,.L87
.LBB1658:
.LBB1659:
	.loc 2 140 0 discriminator 1
	lwz 9,0(3)
	lwz 0,8(9)
	mtctr 0
	bctrl
.LBE1659:
.LBE1658:
	.loc 3 126 0 discriminator 1
	lis 4,.LC6@ha
	la 4,.LC6@l(4)
	bl _ZN5idStr3CmpEPKcS1_
	cmpwi 7,3,0
	bne- 7,.L87
	.loc 3 127 0 discriminator 4
	lis 3,.LC15@ha
	mr 4,31
	la 3,.LC15@l(3)
	crxor 6,6,6
	bl _Z10Sys_PrintfPKcz
	.loc 3 128 0 discriminator 4
	bl _Z18Sys_PrintBacktracev
.L87:
	.loc 3 131 0
	lwz 0,20(1)
	lwz 31,12(1)
.LVL103:
	mtlr 0
	addi 1,1,16
.LCFI50:
	.cfi_def_cfa_offset 0
	.cfi_restore 31
	blr
	.cfi_endproc
.LFE2566:
	.size	_ZN10idMaterial10CommonInitEv, .-_ZN10idMaterial10CommonInitEv
	.align 2
	.globl _ZN10idMaterialC2Ev
	.type	_ZN10idMaterialC2Ev, @function
_ZN10idMaterialC2Ev:
.LFB2568:
	.loc 3 138 0
	.cfi_startproc
	.cfi_personality 0,__gxx_personality_v0
	.cfi_lsda 0,.LLSDA2568
.LVL104:
	mflr 0
	stwu 1,-16(1)
.LCFI51:
	.cfi_def_cfa_offset 16
	.cfi_register 65, 0
.LBB1660:
	lis 7,_ZTV10idMaterial+8@ha
.LBB1661:
.LBB1662:
.LBB1663:
	.loc 4 357 0
	li 9,20
	.loc 4 358 0
	addi 8,3,20
.LBE1663:
.LBE1662:
.LBE1661:
.LBB1666:
.LBB1667:
.LBB1668:
	addi 10,3,52
.LBE1668:
.LBE1667:
.LBE1666:
.LBE1660:
	.loc 3 138 0
	stw 0,20(1)
.LBB1695:
.LBB1671:
.LBB1672:
.LBB1673:
	.loc 4 358 0
	addi 11,3,260
.LBE1673:
.LBE1672:
.LBE1671:
.LBB1676:
.LBB1677:
	.loc 2 136 0
	li 0,0
	.cfi_offset 65, 4
.LBE1677:
.LBE1676:
	.loc 3 138 0
	la 7,_ZTV10idMaterial+8@l(7)
.LBE1695:
	stw 31,12(1)
	mr 31,3
	.cfi_offset 31, -4
.LVL105:
	stw 30,8(1)
.LBB1696:
.LBB1679:
.LBB1678:
	.loc 2 136 0
	stw 0,4(3)
.LBE1678:
.LBE1679:
	.loc 3 138 0
	stw 7,0(3)
.LVL106:
.LBB1680:
.LBB1665:
.LBB1664:
	.loc 4 356 0
	stw 0,8(3)
	.loc 4 357 0
	stw 9,16(3)
	.loc 4 358 0
	stw 8,12(3)
	.loc 4 359 0
	stb 0,20(3)
.LVL107:
.LBE1664:
.LBE1665:
.LBE1680:
.LBB1681:
.LBB1670:
.LBB1669:
	.loc 4 356 0
	stw 0,40(3)
	.loc 4 357 0
	stw 9,48(3)
	.loc 4 358 0
	stw 10,44(3)
	.loc 4 359 0
	stb 0,52(3)
.LVL108:
.LBE1669:
.LBE1670:
.LBE1681:
.LBB1682:
.LBB1675:
.LBB1674:
	.loc 4 356 0
	stw 0,248(3)
	.loc 4 357 0
	stw 9,256(3)
	.loc 4 358 0
	stw 11,252(3)
	.loc 4 359 0
	stb 0,260(3)
.LEHB4:
.LBE1674:
.LBE1675:
.LBE1682:
	.loc 3 143 0
	.cfi_offset 30, -8
	bl _ZN10idMaterial10CommonInitEv
.LEHE4:
.LVL109:
	.loc 3 147 0
	li 0,0
	stw 0,244(31)
.LBE1696:
	.loc 3 148 0
	lwz 0,20(1)
	lwz 30,8(1)
	mtlr 0
	lwz 31,12(1)
.LVL110:
	addi 1,1,16
	.cfi_remember_state
.LCFI52:
	.cfi_def_cfa_offset 0
	.cfi_restore 31
	.cfi_restore 30
	blr
.LVL111:
.L95:
.LCFI53:
	.cfi_restore_state
	mr 30,3
.LVL112:
.LBB1697:
.LBB1683:
.LBB1684:
.LBB1685:
	.loc 4 501 0
	addi 3,31,248
	bl _ZN5idStr8FreeDataEv
.LVL113:
.LBE1685:
.LBE1684:
.LBE1683:
.LBB1686:
.LBB1687:
.LBB1688:
	addi 3,31,40
	bl _ZN5idStr8FreeDataEv
.LVL114:
.LBE1688:
.LBE1687:
.LBE1686:
.LBB1689:
.LBB1690:
.LBB1691:
	addi 3,31,8
	bl _ZN5idStr8FreeDataEv
.LVL115:
.LBE1691:
.LBE1690:
.LBE1689:
.LBB1692:
.LBB1693:
.LBB1694:
	.loc 2 137 0
	lis 9,_ZTV6idDecl+8@ha
	la 0,_ZTV6idDecl+8@l(9)
	mr 3,30
	stw 0,0(31)
.LEHB5:
	bl _Unwind_Resume
.LEHE5:
.LBE1694:
.LBE1693:
.LBE1692:
.LBE1697:
	.cfi_endproc
.LFE2568:
	.section	.gcc_except_table
.LLSDA2568:
	.byte	0xff
	.byte	0xff
	.byte	0x1
	.uleb128 .LLSDACSE2568-.LLSDACSB2568
.LLSDACSB2568:
	.uleb128 .LEHB4-.LFB2568
	.uleb128 .LEHE4-.LEHB4
	.uleb128 .L95-.LFB2568
	.uleb128 0
	.uleb128 .LEHB5-.LFB2568
	.uleb128 .LEHE5-.LEHB5
	.uleb128 0
	.uleb128 0
.LLSDACSE2568:
	.section	".text"
	.size	_ZN10idMaterialC2Ev, .-_ZN10idMaterialC2Ev
	.align 2
	.globl _ZNK10idMaterial14GetEditorImageEv
	.type	_ZNK10idMaterial14GetEditorImageEv, @function
_ZNK10idMaterial14GetEditorImageEv:
.LFB2575:
	.loc 3 207 0
	.cfi_startproc
.LVL116:
	mflr 0
	stwu 1,-16(1)
.LCFI54:
	.cfi_def_cfa_offset 16
	.cfi_register 65, 0
	stw 31,12(1)
	mr 31,3
	.cfi_offset 31, -4
	stw 0,20(1)
.LBB1698:
.LBB1699:
.LBB1700:
.LBB1701:
	.loc 3 2840 0
	lwz 3,4(3)
.LVL117:
.LBE1701:
.LBE1700:
.LBE1699:
.LBB1706:
.LBB1707:
	.loc 2 162 0
	lwz 9,0(3)
	lwz 0,36(9)
	.cfi_offset 65, 4
	mtctr 0
	bctrl
.LBE1707:
.LBE1706:
	.loc 3 210 0
	lwz 3,280(31)
	cmpwi 7,3,0
	beq- 7,.L110
.L97:
.LBE1698:
	.loc 3 241 0
	lwz 0,20(1)
	lwz 31,12(1)
.LVL118:
	mtlr 0
	addi 1,1,16
	.cfi_remember_state
.LCFI55:
	.cfi_def_cfa_offset 0
	.cfi_restore 31
	blr
.LVL119:
.L110:
.LCFI56:
	.cfi_restore_state
.LBB1710:
.LBB1708:
	.loc 3 215 0
	lwz 0,248(31)
	cmpwi 7,0,0
	bne- 7,.L98
.LBB1704:
	.loc 3 217 0
	lwz 0,228(31)
	cmpwi 7,0,0
	beq- 7,.L99
	.loc 3 217 0 is_stmt 0 discriminator 1
	lwz 10,236(31)
	cmpwi 6,10,0
	beq- 6,.L99
.LVL120:
.LBB1702:
	.loc 3 219 0 is_stmt 1 discriminator 1
	ble- 7,.L100
	.loc 3 220 0
	lwz 9,4(10)
	cmpwi 7,9,2
	beq- 7,.L111
	.loc 3 207 0
	addi 9,10,108
	mtctr 0
	b .L103
.LVL121:
.L105:
	.loc 3 220 0
	lwz 0,-104(9)
	cmpwi 7,0,2
	beq- 7,.L101
.L103:
	mr 11,9
	addi 9,9,108
	.loc 3 219 0
	bdnz .L105
.L100:
	.loc 3 226 0
	lwz 3,40(10)
	stw 3,280(31)
	b .L106
.L98:
.LVL122:
.LBE1702:
.LBE1704:
	.loc 3 233 0
	lis 9,globalImages@ha
	lwz 4,252(31)
	lwz 3,globalImages@l(9)
	li 5,2
	li 6,1
	li 7,0
	li 8,2
	li 9,0
	bl _ZN14idImageManager13ImageFromFileEPKc15textureFilter_tb15textureRepeat_t14textureDepth_t11cubeFiles_t
	stw 3,280(31)
.LVL123:
.L106:
.LBE1708:
	.loc 3 236 0
	cmpwi 7,3,0
	bne+ 7,.L97
	.loc 3 237 0
	lis 9,globalImages@ha
	lwz 9,globalImages@l(9)
	lwz 3,0(9)
	stw 3,280(31)
	.loc 3 240 0
	b .L97
.L99:
.LBB1709:
.LBB1705:
	.loc 3 229 0
	lis 9,globalImages@ha
	lwz 9,globalImages@l(9)
	lwz 3,0(9)
	stw 3,280(31)
	b .L106
.LVL124:
.L111:
.LBB1703:
	.loc 3 220 0
	mr 11,10
.LVL125:
.L101:
	.loc 3 221 0
	lwz 3,40(11)
	.loc 3 225 0
	cmpwi 7,3,0
	.loc 3 221 0
	stw 3,280(31)
	.loc 3 225 0
	bne+ 7,.L97
	b .L100
.LBE1703:
.LBE1705:
.LBE1709:
.LBE1710:
	.cfi_endproc
.LFE2575:
	.size	_ZNK10idMaterial14GetEditorImageEv, .-_ZNK10idMaterial14GetEditorImageEv
	.align 2
	.globl _ZN10idMaterial16CheckSurfaceParmEP7idToken
	.type	_ZN10idMaterial16CheckSurfaceParmEP7idToken, @function
_ZN10idMaterial16CheckSurfaceParmEP7idToken:
.LFB2576:
	.loc 3 313 0
	.cfi_startproc
.LVL126:
	mflr 0
	stwu 1,-32(1)
.LCFI57:
	.cfi_def_cfa_offset 32
	.cfi_register 65, 0
	stw 27,12(1)
	mr 27,3
	.cfi_offset 27, -20
	stw 28,16(1)
	mr 28,4
	.cfi_offset 28, -16
	stw 29,20(1)
	lis 29,.LANCHOR1@ha
	.cfi_offset 29, -12
	stw 31,28(1)
	la 29,.LANCHOR1@l(29)
	stw 0,36(1)
.LBB1711:
.LBB1712:
	.loc 3 317 0
	li 31,0
	.cfi_offset 65, 4
	.cfi_offset 31, -4
.LBE1712:
.LBE1711:
	.loc 3 313 0
	stw 30,24(1)
.LBB1714:
	.loc 3 2840 0
	lwz 3,4(3)
.LVL127:
.LBE1714:
.LBB1717:
.LBB1713:
	.loc 2 162 0
	lwz 9,0(3)
	lwz 0,36(9)
	mtctr 0
	.cfi_offset 30, -8
	bctrl
.LVL128:
	b .L117
.LVL129:
.L113:
.LBE1713:
.LBE1717:
.LBB1718:
	.loc 3 317 0
	beq- 6,.L120
.LVL130:
.L117:
	.loc 3 313 0
	slwi 30,31,4
.LBB1715:
.LBB1716:
	.loc 4 690 0
	lwz 3,4(28)
	lwzx 4,29,30
	bl _ZN5idStr4IcmpEPKcS1_
.LBE1716:
.LBE1715:
	.loc 3 317 0
	cmpwi 6,31,37
	.loc 3 318 0
	cmpwi 7,3,0
	.loc 3 317 0
	addi 31,31,1
.LVL131:
	.loc 3 318 0
	bne+ 7,.L113
	.loc 3 319 0
	add 9,29,30
	.loc 3 321 0
	lwz 10,100(27)
	.loc 3 319 0
	lwz 0,8(9)
	andi. 9,0,15
	beq- 0,.L115
	.loc 3 321 0
	rlwinm 10,10,0,0,27
.L115:
	.loc 3 324 0
	add 30,29,30
	lwz 9,96(27)
	.loc 3 325 0
	lwz 11,4(30)
	.loc 3 323 0
	or 0,10,0
	stw 0,100(27)
	.loc 3 328 0
	li 3,1
	.loc 3 325 0
	cmpwi 7,11,0
	.loc 3 324 0
	lwz 11,12(30)
	or 9,11,9
	stw 9,96(27)
	.loc 3 325 0
	beq- 7,.L116
	.loc 3 326 0
	rlwinm 9,9,0,0,30
	stw 9,96(27)
.L116:
.LBE1718:
	.loc 3 332 0
	lwz 0,36(1)
	lwz 27,12(1)
.LVL132:
	mtlr 0
	lwz 28,16(1)
.LVL133:
	lwz 29,20(1)
	lwz 30,24(1)
	lwz 31,28(1)
.LVL134:
	addi 1,1,32
	.cfi_remember_state
.LCFI58:
	.cfi_def_cfa_offset 0
	.cfi_restore 31
	.cfi_restore 30
	.cfi_restore 29
	.cfi_restore 28
	.cfi_restore 27
	blr
.LVL135:
.L120:
.LCFI59:
	.cfi_restore_state
	lwz 0,36(1)
.LBB1719:
	.loc 3 331 0
	li 3,0
.LBE1719:
	.loc 3 332 0
	lwz 27,12(1)
.LVL136:
	mtlr 0
	lwz 28,16(1)
.LVL137:
	lwz 29,20(1)
	lwz 30,24(1)
	lwz 31,28(1)
.LVL138:
	addi 1,1,32
	.cfi_restore 27
	.cfi_restore 28
	.cfi_restore 29
	.cfi_restore 30
	.cfi_restore 31
.LCFI60:
	.cfi_def_cfa_offset 0
	blr
	.cfi_endproc
.LFE2576:
	.size	_ZN10idMaterial16CheckSurfaceParmEP7idToken, .-_ZN10idMaterial16CheckSurfaceParmEP7idToken
	.align 2
	.globl _ZN10idMaterial10MatchTokenER7idLexerPKc
	.type	_ZN10idMaterial10MatchTokenER7idLexerPKc, @function
_ZN10idMaterial10MatchTokenER7idLexerPKc:
.LFB2577:
	.loc 3 341 0
	.cfi_startproc
.LVL139:
	mflr 0
	stwu 1,-24(1)
.LCFI61:
	.cfi_def_cfa_offset 24
	.cfi_register 65, 0
	stw 29,12(1)
	mr 29,5
	.cfi_offset 29, -12
	stw 30,16(1)
	mr 30,4
	.cfi_offset 30, -8
	stw 31,20(1)
	mr 31,3
	.cfi_offset 31, -4
	stw 0,28(1)
	.loc 3 2840 0
	lwz 9,4(3)
.LBB1720:
.LBB1721:
	.loc 2 162 0
	lwz 11,0(9)
	mr 3,9
.LVL140:
	lwz 0,36(11)
	.cfi_offset 65, 4
	mtctr 0
	bctrl
.LVL141:
.LBE1721:
.LBE1720:
	.loc 3 344 0
	mr 3,30
	mr 4,29
	bl _ZN7idLexer17ExpectTokenStringEPKc
	cmpwi 7,3,0
	.loc 3 348 0
	li 3,1
	.loc 3 344 0
	bne- 7,.L122
.LVL142:
.LBB1722:
.LBB1723:
	.file 6 "d:/Data/Nintendo/DoomGX/src/renderer/../idlib/../renderer/Material.h"
	.loc 6 488 0
	lwz 0,104(31)
.LBE1723:
.LBE1722:
	.loc 3 346 0
	li 3,0
.LBB1725:
.LBB1724:
	.loc 6 488 0
	ori 0,0,1
	stw 0,104(31)
.LVL143:
.L122:
.LBE1724:
.LBE1725:
	.loc 3 349 0
	lwz 0,28(1)
	lwz 29,12(1)
.LVL144:
	mtlr 0
	lwz 30,16(1)
.LVL145:
	lwz 31,20(1)
.LVL146:
	addi 1,1,24
.LCFI62:
	.cfi_def_cfa_offset 0
	.cfi_restore 31
	.cfi_restore 30
	.cfi_restore 29
	blr
	.cfi_endproc
.LFE2577:
	.size	_ZN10idMaterial10MatchTokenER7idLexerPKc, .-_ZN10idMaterial10MatchTokenER7idLexerPKc
	.align 2
	.globl _ZN10idMaterial9ParseSortER7idLexer
	.type	_ZN10idMaterial9ParseSortER7idLexer, @function
_ZN10idMaterial9ParseSortER7idLexer:
.LFB2578:
	.loc 3 356 0
	.cfi_startproc
	.cfi_personality 0,__gxx_personality_v0
	.cfi_lsda 0,.LLSDA2578
.LVL147:
	mflr 0
	stwu 1,-96(1)
.LCFI63:
	.cfi_def_cfa_offset 96
	.cfi_register 65, 0
.LVL148:
.LBB1726:
.LBB1727:
.LBB1728:
.LBB1729:
.LBB1730:
	.loc 4 357 0
	li 9,20
.LBE1730:
.LBE1729:
.LBE1728:
.LBE1727:
.LBE1726:
	.loc 3 356 0
	stw 30,88(1)
	mr 30,4
	.cfi_offset 30, -8
	stw 0,100(1)
.LBB1791:
.LBB1743:
.LBB1739:
.LBB1735:
.LBB1731:
	.loc 4 356 0
	li 0,0
	.cfi_offset 65, 4
.LBE1731:
.LBE1735:
.LBE1739:
.LBE1743:
.LBE1791:
	.loc 3 356 0
	stw 31,92(1)
	.loc 3 356 0
	mr 31,3
	.cfi_offset 31, -4
.LBB1792:
.LBB1744:
.LBB1740:
.LBB1736:
.LBB1732:
	.loc 4 357 0
	stw 9,16(1)
.LBE1732:
.LBE1736:
.LBE1740:
.LBE1744:
	.loc 3 359 0
	mr 3,4
.LVL149:
.LBB1745:
.LBB1741:
.LBB1737:
.LBB1733:
	.loc 4 358 0
	addi 9,1,20
.LBE1733:
.LBE1737:
.LBE1741:
.LBE1745:
	.loc 3 359 0
	addi 4,1,8
.LVL150:
.LBB1746:
.LBB1742:
.LBB1738:
.LBB1734:
	.loc 4 356 0
	stw 0,8(1)
	.loc 4 358 0
	stw 9,12(1)
	.loc 4 359 0
	stb 0,20(1)
.LEHB6:
.LBE1734:
.LBE1738:
.LBE1742:
.LBE1746:
	.loc 3 359 0
	bl _ZN7idLexer15ReadTokenOnLineEP7idToken
.LVL151:
	cmpwi 7,3,0
	bne- 7,.L125
	.loc 3 360 0
	lis 4,.LC16@ha
	mr 3,30
	la 4,.LC16@l(4)
	crxor 6,6,6
	bl _ZN7idLexer7WarningEPKcz
.LEHE6:
.LVL152:
.LBB1747:
.LBB1748:
	.loc 6 488 0
	lwz 0,104(31)
.LBE1748:
.LBE1747:
.LBB1750:
.LBB1751:
.LBB1752:
.LBB1753:
.LBB1754:
	.loc 4 501 0
	addi 3,1,8
.LBE1754:
.LBE1753:
.LBE1752:
.LBE1751:
.LBE1750:
.LBB1759:
.LBB1749:
	.loc 6 488 0
	ori 0,0,1
	stw 0,104(31)
.LVL153:
.LEHB7:
.LBE1749:
.LBE1759:
.LBB1760:
.LBB1758:
.LBB1757:
.LBB1756:
.LBB1755:
	.loc 4 501 0
	bl _ZN5idStr8FreeDataEv
.LEHE7:
.LBE1755:
.LBE1756:
.LBE1757:
.LBE1758:
.LBE1760:
.LBE1792:
	.loc 3 388 0
	lwz 0,100(1)
	lwz 30,88(1)
.LVL154:
	mtlr 0
	lwz 31,92(1)
.LVL155:
	addi 1,1,96
	.cfi_remember_state
.LCFI64:
	.cfi_def_cfa_offset 0
	.cfi_restore 31
	.cfi_restore 30
	blr
.LVL156:
.L125:
.LCFI65:
	.cfi_restore_state
.LBB1793:
.LBB1761:
.LBB1762:
	.loc 4 690 0
	lis 4,.LC17@ha
	lwz 3,12(1)
	la 4,.LC17@l(4)
.LEHB8:
	bl _ZN5idStr4IcmpEPKcS1_
.LEHE8:
.LBE1762:
.LBE1761:
	.loc 3 365 0
	cmpwi 7,3,0
	bne- 7,.L127
	.loc 3 366 0
	lis 9,.LC18@ha
	lwz 0,.LC18@l(9)
	stw 0,148(31)
.L128:
.LVL157:
.LBB1763:
.LBB1764:
.LBB1765:
.LBB1766:
.LBB1767:
	.loc 4 501 0
	addi 3,1,8
.LEHB9:
	bl _ZN5idStr8FreeDataEv
.LEHE9:
.LBE1767:
.LBE1766:
.LBE1765:
.LBE1764:
.LBE1763:
.LBE1793:
	.loc 3 388 0
	lwz 0,100(1)
	lwz 30,88(1)
.LVL158:
	mtlr 0
	lwz 31,92(1)
.LVL159:
	addi 1,1,96
	.cfi_remember_state
	.cfi_restore 30
	.cfi_restore 31
.LCFI66:
	.cfi_def_cfa_offset 0
	blr
.LVL160:
.L127:
.LCFI67:
	.cfi_restore_state
.LBB1794:
.LBB1768:
.LBB1769:
	.loc 4 690 0
	lis 4,.LC19@ha
	lwz 3,12(1)
	la 4,.LC19@l(4)
.LEHB10:
	bl _ZN5idStr4IcmpEPKcS1_
.LBE1769:
.LBE1768:
	.loc 3 367 0
	cmpwi 7,3,0
	bne- 7,.L129
	.loc 3 368 0
	li 0,0
	stw 0,148(31)
	b .L128
.L129:
.LVL161:
.LBB1770:
.LBB1771:
	.loc 4 690 0
	lis 4,.LC20@ha
	lwz 3,12(1)
	la 4,.LC20@l(4)
	bl _ZN5idStr4IcmpEPKcS1_
.LBE1771:
.LBE1770:
	.loc 3 369 0
	cmpwi 7,3,0
	bne- 7,.L130
	.loc 3 370 0
	lis 9,.LC21@ha
	lwz 0,.LC21@l(9)
	stw 0,148(31)
	b .L128
.L130:
.LVL162:
.LBB1772:
.LBB1773:
	.loc 4 690 0
	lis 4,.LC22@ha
	lwz 3,12(1)
	la 4,.LC22@l(4)
	bl _ZN5idStr4IcmpEPKcS1_
.LBE1773:
.LBE1772:
	.loc 3 371 0
	cmpwi 7,3,0
	bne- 7,.L131
	.loc 3 372 0
	lis 9,.LC23@ha
	lwz 0,.LC23@l(9)
	stw 0,148(31)
	b .L128
.L131:
.LVL163:
.LBB1774:
.LBB1775:
	.loc 4 690 0
	lis 4,.LC24@ha
	lwz 3,12(1)
	la 4,.LC24@l(4)
	bl _ZN5idStr4IcmpEPKcS1_
.LBE1775:
.LBE1774:
	.loc 3 373 0
	cmpwi 7,3,0
	bne- 7,.L132
	.loc 3 374 0
	lis 9,.LC25@ha
	lwz 0,.LC25@l(9)
	stw 0,148(31)
	b .L128
.L132:
.LVL164:
.LBB1776:
.LBB1777:
	.loc 4 690 0
	lis 4,.LC26@ha
	lwz 3,12(1)
	la 4,.LC26@l(4)
	bl _ZN5idStr4IcmpEPKcS1_
.LBE1777:
.LBE1776:
	.loc 3 375 0
	cmpwi 7,3,0
	bne- 7,.L133
	.loc 3 376 0
	lis 9,.LC27@ha
	lwz 0,.LC27@l(9)
	stw 0,148(31)
	b .L128
.L133:
.LVL165:
.LBB1778:
.LBB1779:
	.loc 4 690 0
	lis 4,.LC28@ha
	lwz 3,12(1)
	la 4,.LC28@l(4)
	bl _ZN5idStr4IcmpEPKcS1_
.LBE1779:
.LBE1778:
	.loc 3 377 0
	cmpwi 7,3,0
	bne- 7,.L134
	.loc 3 378 0
	lis 9,.LC29@ha
	lwz 0,.LC29@l(9)
	stw 0,148(31)
	b .L128
.L134:
.LVL166:
.LBB1780:
.LBB1781:
	.loc 4 690 0
	lis 4,.LC30@ha
	lwz 3,12(1)
	la 4,.LC30@l(4)
	bl _ZN5idStr4IcmpEPKcS1_
.LEHE10:
.LBE1781:
.LBE1780:
	.loc 3 379 0
	cmpwi 7,3,0
	bne- 7,.L135
	.loc 3 380 0
	lis 9,.LC31@ha
	lwz 0,.LC31@l(9)
	stw 0,148(31)
	b .L128
.LVL167:
.L144:
	mr 31,3
.LVL168:
.LBB1782:
.LBB1783:
.LBB1784:
.LBB1785:
.LBB1786:
	.loc 4 501 0
	addi 3,1,8
	bl _ZN5idStr8FreeDataEv
	mr 3,31
.LEHB11:
	bl _Unwind_Resume
.LEHE11:
.LVL169:
.L135:
.LBE1786:
.LBE1785:
.LBE1784:
.LBE1783:
.LBE1782:
.LBB1787:
.LBB1788:
	.loc 4 690 0
	lis 4,.LC32@ha
	lwz 3,12(1)
	la 4,.LC32@l(4)
.LEHB12:
	bl _ZN5idStr4IcmpEPKcS1_
.LBE1788:
.LBE1787:
	.loc 3 381 0
	cmpwi 7,3,0
	bne- 7,.L136
	.loc 3 382 0
	lis 9,.LC33@ha
	lwz 0,.LC33@l(9)
	stw 0,148(31)
	b .L128
.L136:
.LVL170:
.LBB1789:
.LBB1790:
	.loc 4 690 0
	lis 4,.LC34@ha
	lwz 3,12(1)
	la 4,.LC34@l(4)
	bl _ZN5idStr4IcmpEPKcS1_
.LEHE12:
.LBE1790:
.LBE1789:
	.loc 3 383 0
	cmpwi 7,3,0
	bne- 7,.L137
	.loc 3 384 0
	lis 9,.LC14@ha
	lwz 0,.LC14@l(9)
	stw 0,148(31)
	b .L128
.L137:
.LVL171:
	.loc 3 386 0
	lwz 3,12(1)
	bl atof
	frsp 1,1
	stfs 1,148(31)
	b .L128
.LBE1794:
	.cfi_endproc
.LFE2578:
	.section	.gcc_except_table
.LLSDA2578:
	.byte	0xff
	.byte	0xff
	.byte	0x1
	.uleb128 .LLSDACSE2578-.LLSDACSB2578
.LLSDACSB2578:
	.uleb128 .LEHB6-.LFB2578
	.uleb128 .LEHE6-.LEHB6
	.uleb128 .L144-.LFB2578
	.uleb128 0
	.uleb128 .LEHB7-.LFB2578
	.uleb128 .LEHE7-.LEHB7
	.uleb128 0
	.uleb128 0
	.uleb128 .LEHB8-.LFB2578
	.uleb128 .LEHE8-.LEHB8
	.uleb128 .L144-.LFB2578
	.uleb128 0
	.uleb128 .LEHB9-.LFB2578
	.uleb128 .LEHE9-.LEHB9
	.uleb128 0
	.uleb128 0
	.uleb128 .LEHB10-.LFB2578
	.uleb128 .LEHE10-.LEHB10
	.uleb128 .L144-.LFB2578
	.uleb128 0
	.uleb128 .LEHB11-.LFB2578
	.uleb128 .LEHE11-.LEHB11
	.uleb128 0
	.uleb128 0
	.uleb128 .LEHB12-.LFB2578
	.uleb128 .LEHE12-.LEHB12
	.uleb128 .L144-.LFB2578
	.uleb128 0
.LLSDACSE2578:
	.section	".text"
	.size	_ZN10idMaterial9ParseSortER7idLexer, .-_ZN10idMaterial9ParseSortER7idLexer
	.align 2
	.globl _ZN10idMaterial14ParseDecalInfoER7idLexer
	.type	_ZN10idMaterial14ParseDecalInfoER7idLexer, @function
_ZN10idMaterial14ParseDecalInfoER7idLexer:
.LFB2579:
	.loc 3 395 0
	.cfi_startproc
	.cfi_personality 0,__gxx_personality_v0
	.cfi_lsda 0,.LLSDA2579
.LVL172:
	mflr 0
	stwu 1,-136(1)
.LCFI68:
	.cfi_def_cfa_offset 136
	.cfi_register 65, 0
.LVL173:
.LBB1795:
.LBB1796:
.LBB1797:
.LBB1798:
.LBB1799:
	.loc 4 357 0
	li 9,20
.LBE1799:
.LBE1798:
.LBE1797:
.LBE1796:
.LBE1795:
	.loc 3 395 0
	stw 29,124(1)
	mr 29,3
	.cfi_offset 29, -12
	stw 0,140(1)
.LBB1827:
	.loc 3 398 0
	mr 3,4
.LVL174:
.LBB1812:
.LBB1808:
.LBB1804:
.LBB1800:
	.loc 4 356 0
	li 0,0
	.cfi_offset 65, 4
.LBE1800:
.LBE1804:
.LBE1808:
.LBE1812:
.LBE1827:
	.loc 3 395 0
	stw 31,132(1)
.LBB1828:
.LBB1813:
.LBB1809:
.LBB1805:
.LBB1801:
	.loc 4 357 0
	stw 9,48(1)
.LBE1801:
.LBE1805:
.LBE1809:
.LBE1813:
.LBE1828:
	.loc 3 395 0
	mr 31,4
	.cfi_offset 31, -4
.LBB1829:
.LBB1814:
.LBB1810:
.LBB1806:
.LBB1802:
	.loc 4 358 0
	addi 9,1,52
.LBE1802:
.LBE1806:
.LBE1810:
.LBE1814:
	.loc 3 398 0
	li 4,0
.LVL175:
.LBE1829:
	.loc 3 395 0
	stw 30,128(1)
.LBB1830:
.LBB1815:
.LBB1811:
.LBB1807:
.LBB1803:
	.loc 4 356 0
	stw 0,40(1)
	.loc 4 358 0
	stw 9,44(1)
	.loc 4 359 0
	stb 0,52(1)
.LEHB13:
.LBE1803:
.LBE1807:
.LBE1811:
.LBE1815:
	.loc 3 398 0
	.cfi_offset 30, -8
	bl _ZN7idLexer10ParseFloatEPb
.LVL176:
	lis 30,.LC35@ha
	addi 9,29,108
	lfs 0,.LC35@l(30)
	.loc 3 399 0
	mr 3,31
	li 4,0
	.loc 3 398 0
	fmuls 0,1,0
	fctiwz 0,0
	stfiwx 0,0,9
	.loc 3 399 0
	bl _ZN7idLexer10ParseFloatEPb
	.loc 3 399 0 is_stmt 0 discriminator 1
	lfs 0,.LC35@l(30)
	addi 9,29,112
	.loc 3 401 0 is_stmt 1 discriminator 1
	addi 30,1,24
	mr 3,31
	.loc 3 399 0 discriminator 1
	fmuls 0,1,0
	.loc 3 401 0 discriminator 1
	li 4,4
	mr 5,30
	.loc 3 399 0 discriminator 1
	fctiwz 0,0
	stfiwx 0,0,9
	.loc 3 401 0 discriminator 1
	bl _ZN7idLexer13Parse1DMatrixEiPf
	.loc 3 402 0
	mr 3,31
	addi 31,1,8
.LVL177:
	li 4,4
	mr 5,31
	bl _ZN7idLexer13Parse1DMatrixEiPf
.LEHE13:
.LVL178:
.LBE1830:
	.loc 3 395 0
	li 0,4
.LBB1831:
	addi 29,29,112
.LVL179:
.LBE1831:
	mtctr 0
	li 9,0
.LVL180:
.L146:
.LBB1832:
.LBB1816:
	.loc 3 404 0 discriminator 2
	lwzx 11,30,9
	.loc 3 405 0 discriminator 2
	lwzx 0,31,9
	addi 9,9,4
	.loc 3 404 0 discriminator 2
	stwu 11,4(29)
	.loc 3 405 0 discriminator 2
	stw 0,16(29)
	.loc 3 403 0 discriminator 2
	bdnz .L146
.LVL181:
.LBE1816:
.LBB1817:
.LBB1818:
.LBB1819:
.LBB1820:
.LBB1821:
	.loc 4 501 0
	addi 3,1,40
.LEHB14:
	bl _ZN5idStr8FreeDataEv
.LEHE14:
.LBE1821:
.LBE1820:
.LBE1819:
.LBE1818:
.LBE1817:
.LBE1832:
	.loc 3 407 0
	lwz 0,140(1)
	lwz 29,124(1)
	mtlr 0
	lwz 30,128(1)
	lwz 31,132(1)
	addi 1,1,136
	.cfi_remember_state
.LCFI69:
	.cfi_def_cfa_offset 0
	.cfi_restore 31
	.cfi_restore 30
	.cfi_restore 29
	blr
.LVL182:
.L152:
.LCFI70:
	.cfi_restore_state
	mr 31,3
.LVL183:
.LBB1833:
.LBB1822:
.LBB1823:
.LBB1824:
.LBB1825:
.LBB1826:
	.loc 4 501 0
	addi 3,1,40
	bl _ZN5idStr8FreeDataEv
	mr 3,31
.LEHB15:
	bl _Unwind_Resume
.LEHE15:
.LBE1826:
.LBE1825:
.LBE1824:
.LBE1823:
.LBE1822:
.LBE1833:
	.cfi_endproc
.LFE2579:
	.section	.gcc_except_table
.LLSDA2579:
	.byte	0xff
	.byte	0xff
	.byte	0x1
	.uleb128 .LLSDACSE2579-.LLSDACSB2579
.LLSDACSB2579:
	.uleb128 .LEHB13-.LFB2579
	.uleb128 .LEHE13-.LEHB13
	.uleb128 .L152-.LFB2579
	.uleb128 0
	.uleb128 .LEHB14-.LFB2579
	.uleb128 .LEHE14-.LEHB14
	.uleb128 0
	.uleb128 0
	.uleb128 .LEHB15-.LFB2579
	.uleb128 .LEHE15-.LEHB15
	.uleb128 0
	.uleb128 0
.LLSDACSE2579:
	.section	".text"
	.size	_ZN10idMaterial14ParseDecalInfoER7idLexer, .-_ZN10idMaterial14ParseDecalInfoER7idLexer
	.align 2
	.globl _ZN10idMaterial21GetExpressionConstantEf
	.type	_ZN10idMaterial21GetExpressionConstantEf, @function
_ZN10idMaterial21GetExpressionConstantEf:
.LFB2580:
	.loc 3 414 0
	.cfi_startproc
.LVL184:
	mflr 0
	stwu 1,-32(1)
.LCFI71:
	.cfi_def_cfa_offset 32
	.cfi_register 65, 0
	stfd 31,24(1)
	fmr 31,1
	.cfi_offset 63, -8
	stw 31,20(1)
	mr 31,3
	.cfi_offset 31, -12
	stw 0,36(1)
	stw 29,12(1)
	stw 30,16(1)
.LBB1846:
.LBB1847:
.LBB1848:
.LBB1849:
.LBB1850:
	.loc 3 2840 0
	lwz 3,4(3)
.LVL185:
.LBE1850:
.LBE1849:
.LBE1848:
.LBE1847:
.LBE1846:
.LBB1863:
.LBB1864:
.LBB1865:
	.loc 2 162 0
	lwz 9,0(3)
	lwz 0,36(9)
	.cfi_offset 30, -16
	.cfi_offset 29, -20
	.cfi_offset 65, 4
	mtctr 0
	bctrl
.LVL186:
.LBE1865:
.LBE1864:
	.loc 3 419 0
	lwz 10,216(31)
	lwz 11,240(31)
.LBE1863:
	li 3,21
.LBB1866:
	cmpwi 7,10,21
	ble- 7,.L155
.LBE1866:
	addi 10,10,-21
.LBB1867:
	.loc 3 414 0
	addi 9,11,2132
.LBE1867:
	.loc 3 419 0
	mtctr 10
.LVL187:
.L158:
.LBB1868:
	.loc 3 420 0
	lbzx 0,11,3
	cmpwi 7,0,0
	bne- 7,.L156
	.loc 3 420 0 is_stmt 0 discriminator 1
	lfs 0,0(9)
	fcmpu 7,0,31
	beq- 7,.L157
.L156:
	.loc 3 419 0 is_stmt 1
	addi 3,3,1
.LVL188:
	addi 9,9,4
	bdnz .L158
	.loc 3 424 0
	cmpwi 7,3,2048
	beq- 7,.L161
.LVL189:
.L155:
	.loc 3 429 0
	li 0,0
	stbx 0,11,3
	.loc 3 430 0
	addi 0,3,512
	slwi 0,0,2
	lwz 9,240(31)
	stfsx 31,9,0
	.loc 3 431 0
	lwz 9,216(31)
	addi 0,9,1
	stw 0,216(31)
.L157:
.LBE1868:
	.loc 3 434 0
	lwz 0,36(1)
	lwz 29,12(1)
	mtlr 0
	lwz 30,16(1)
	lwz 31,20(1)
.LVL190:
	lfd 31,24(1)
.LVL191:
	addi 1,1,32
	.cfi_remember_state
.LCFI72:
	.cfi_def_cfa_offset 0
	.cfi_restore 63
	.cfi_restore 31
	.cfi_restore 30
	.cfi_restore 29
	blr
.LVL192:
.L161:
.LCFI73:
	.cfi_restore_state
.LBB1869:
	.loc 3 2840 0
	lwz 3,4(31)
.LVL193:
.LBB1862:
.LBB1861:
	.loc 3 425 0
	lis 11,common@ha
	lwz 29,common@l(11)
.LBB1852:
.LBB1853:
	.loc 2 140 0
	lwz 9,0(3)
	lwz 0,8(9)
.LBE1853:
.LBE1852:
	.loc 3 425 0
	lwz 9,0(29)
.LBB1857:
.LBB1854:
	.loc 2 140 0
	mtctr 0
.LBE1854:
.LBE1857:
	.loc 3 425 0
	lwz 30,80(9)
.LBB1858:
.LBB1855:
	.loc 2 140 0
	bctrl
.LBE1855:
.LBE1858:
	.loc 3 425 0
	lis 4,.LC36@ha
.LBB1859:
.LBB1856:
	.loc 2 140 0
	mr 5,3
.LBE1856:
.LBE1859:
	.loc 3 425 0
	la 4,.LC36@l(4)
	mr 3,29
	mtctr 30
	crxor 6,6,6
	bctrl
.LVL194:
.LBB1860:
.LBB1851:
	.loc 6 488 0
	lwz 0,104(31)
	li 3,0
	ori 0,0,1
	stw 0,104(31)
	b .L157
.LBE1851:
.LBE1860:
.LBE1861:
.LBE1862:
.LBE1869:
	.cfi_endproc
.LFE2580:
	.size	_ZN10idMaterial21GetExpressionConstantEf, .-_ZN10idMaterial21GetExpressionConstantEf
	.align 2
	.globl _ZN10idMaterial22GetExpressionTemporaryEv
	.type	_ZN10idMaterial22GetExpressionTemporaryEv, @function
_ZN10idMaterial22GetExpressionTemporaryEv:
.LFB2581:
	.loc 3 441 0
	.cfi_startproc
.LVL195:
	mflr 0
	stwu 1,-24(1)
.LCFI74:
	.cfi_def_cfa_offset 24
	.cfi_register 65, 0
	stw 31,20(1)
	mr 31,3
	.cfi_offset 31, -4
	stw 0,28(1)
	stw 29,12(1)
	stw 30,16(1)
	.loc 3 2840 0
	lwz 3,4(3)
.LVL196:
.LBB1870:
.LBB1871:
	.loc 2 162 0
	lwz 9,0(3)
	lwz 0,36(9)
	.cfi_offset 30, -8
	.cfi_offset 29, -12
	.cfi_offset 65, 4
	mtctr 0
	bctrl
.LBE1871:
.LBE1870:
	.loc 3 444 0
	lwz 0,216(31)
	cmpwi 7,0,2048
	beq- 7,.L165
	.loc 3 449 0
	lwz 9,240(31)
	li 11,1
	stbx 11,9,0
	.loc 3 450 0
	lwz 3,216(31)
	addi 0,3,1
	stw 0,216(31)
.L164:
	.loc 3 452 0
	lwz 0,28(1)
	lwz 29,12(1)
	mtlr 0
	lwz 30,16(1)
	lwz 31,20(1)
.LVL197:
	addi 1,1,24
	.cfi_remember_state
.LCFI75:
	.cfi_def_cfa_offset 0
	.cfi_restore 31
	.cfi_restore 30
	.cfi_restore 29
	blr
.LVL198:
.L165:
.LCFI76:
	.cfi_restore_state
	.loc 3 2840 0
	lwz 3,4(31)
	.loc 3 445 0
	lis 11,common@ha
	lwz 29,common@l(11)
.LBB1872:
.LBB1873:
	.loc 2 140 0
	lwz 9,0(3)
	lwz 0,8(9)
.LBE1873:
.LBE1872:
	.loc 3 445 0
	lwz 9,0(29)
.LBB1877:
.LBB1874:
	.loc 2 140 0
	mtctr 0
.LBE1874:
.LBE1877:
	.loc 3 445 0
	lwz 30,80(9)
.LBB1878:
.LBB1875:
	.loc 2 140 0
	bctrl
.LBE1875:
.LBE1878:
	.loc 3 445 0
	lis 4,.LC37@ha
.LBB1879:
.LBB1876:
	.loc 2 140 0
	mr 5,3
.LBE1876:
.LBE1879:
	.loc 3 445 0
	la 4,.LC37@l(4)
	mr 3,29
	mtctr 30
	crxor 6,6,6
	bctrl
.LVL199:
.LBB1880:
.LBB1881:
	.loc 6 488 0
	lwz 0,104(31)
.LBE1881:
.LBE1880:
	.loc 3 447 0
	li 3,0
.LBB1883:
.LBB1882:
	.loc 6 488 0
	ori 0,0,1
	stw 0,104(31)
.LBE1882:
.LBE1883:
	.loc 3 447 0
	b .L164
	.cfi_endproc
.LFE2581:
	.size	_ZN10idMaterial22GetExpressionTemporaryEv, .-_ZN10idMaterial22GetExpressionTemporaryEv
	.align 2
	.globl _ZN10idMaterial15GetExpressionOpEv
	.type	_ZN10idMaterial15GetExpressionOpEv, @function
_ZN10idMaterial15GetExpressionOpEv:
.LFB2582:
	.loc 3 459 0
	.cfi_startproc
.LVL200:
	mflr 0
	stwu 1,-24(1)
.LCFI77:
	.cfi_def_cfa_offset 24
	.cfi_register 65, 0
	stw 31,20(1)
	mr 31,3
	.cfi_offset 31, -4
	stw 0,28(1)
	stw 29,12(1)
	stw 30,16(1)
	.loc 3 2840 0
	lwz 3,4(3)
.LVL201:
.LBB1884:
.LBB1885:
	.loc 2 162 0
	lwz 9,0(3)
	lwz 0,36(9)
	.cfi_offset 30, -8
	.cfi_offset 29, -12
	.cfi_offset 65, 4
	mtctr 0
	bctrl
.LBE1885:
.LBE1884:
	.loc 3 462 0
	lwz 9,208(31)
	cmpwi 7,9,2048
	beq- 7,.L169
	.loc 3 468 0
	addi 3,9,640
	lwz 0,240(31)
	addi 9,9,1
	slwi 3,3,4
	stw 9,208(31)
	add 3,0,3
.L168:
	.loc 3 469 0
	lwz 0,28(1)
	lwz 29,12(1)
	mtlr 0
	lwz 30,16(1)
	lwz 31,20(1)
.LVL202:
	addi 1,1,24
	.cfi_remember_state
.LCFI78:
	.cfi_def_cfa_offset 0
	.cfi_restore 31
	.cfi_restore 30
	.cfi_restore 29
	blr
.LVL203:
.L169:
.LCFI79:
	.cfi_restore_state
	.loc 3 2840 0
	lwz 3,4(31)
	.loc 3 463 0
	lis 11,common@ha
	lwz 29,common@l(11)
.LBB1886:
.LBB1887:
	.loc 2 140 0
	lwz 9,0(3)
	lwz 0,8(9)
.LBE1887:
.LBE1886:
	.loc 3 463 0
	lwz 9,0(29)
.LBB1891:
.LBB1888:
	.loc 2 140 0
	mtctr 0
.LBE1888:
.LBE1891:
	.loc 3 463 0
	lwz 30,80(9)
.LBB1892:
.LBB1889:
	.loc 2 140 0
	bctrl
.LBE1889:
.LBE1892:
	.loc 3 463 0
	lis 4,.LC38@ha
.LBB1893:
.LBB1890:
	.loc 2 140 0
	mr 5,3
.LBE1890:
.LBE1893:
	.loc 3 463 0
	la 4,.LC38@l(4)
	mr 3,29
	mtctr 30
	crxor 6,6,6
	bctrl
.LVL204:
.LBB1894:
.LBB1895:
	.loc 6 488 0
	lwz 0,104(31)
.LBE1895:
.LBE1894:
	.loc 3 465 0
	lwz 3,240(31)
.LBB1897:
.LBB1896:
	.loc 6 488 0
	ori 0,0,1
	stw 0,104(31)
.LBE1896:
.LBE1897:
	.loc 3 465 0
	addi 3,3,10240
	b .L168
	.cfi_endproc
.LFE2582:
	.size	_ZN10idMaterial15GetExpressionOpEv, .-_ZN10idMaterial15GetExpressionOpEv
	.align 2
	.globl _ZN10idMaterial6EmitOpEii11expOpType_t
	.type	_ZN10idMaterial6EmitOpEii11expOpType_t, @function
_ZN10idMaterial6EmitOpEii11expOpType_t:
.LFB2583:
	.loc 3 476 0
	.cfi_startproc
.LVL205:
	mflr 0
	stwu 1,-32(1)
.LCFI80:
	.cfi_def_cfa_offset 32
	.cfi_register 65, 0
	stw 28,16(1)
	mr 28,5
	.cfi_offset 28, -16
	stw 29,20(1)
	mr 29,4
	.cfi_offset 29, -12
	stw 30,24(1)
	mr 30,6
	.cfi_offset 30, -8
	stw 31,28(1)
	mr 31,3
	.cfi_offset 31, -4
	stw 0,36(1)
	stw 27,12(1)
.LBB1898:
	.loc 3 2840 0
	lwz 3,4(3)
.LVL206:
.LBB1899:
.LBB1900:
	.loc 2 162 0
	lwz 9,0(3)
	lwz 0,36(9)
	.cfi_offset 27, -20
	.cfi_offset 65, 4
	mtctr 0
	bctrl
.LVL207:
.LBE1900:
.LBE1899:
	.loc 3 481 0
	cmpwi 7,30,0
	bne- 7,.L171
	.loc 3 482 0
	lwz 9,240(31)
	lbzx 0,9,29
	cmpwi 7,0,0
	beq- 7,.L182
.L172:
	.loc 3 485 0
	lbzx 0,9,28
	cmpwi 6,0,0
	bne- 6,.L174
	.loc 3 485 0 is_stmt 0 discriminator 1
	addi 0,28,512
	lis 11,.LC10@ha
	slwi 0,0,2
	lfs 0,.LC10@l(11)
	lfsx 13,9,0
	fcmpu 1,13,0
	beq- 1,.L180
.L174:
	.loc 3 488 0 is_stmt 1
	beq- 7,.L183
.L175:
	.loc 3 510 0
	mr 3,31
	bl _ZN10idMaterial15GetExpressionOpEv
	.loc 3 513 0
	stw 28,8(3)
	.loc 3 510 0
	mr 27,3
.LVL208:
	.loc 3 511 0
	stw 30,0(3)
	.loc 3 512 0
	stw 29,4(3)
	.loc 3 514 0
	mr 3,31
.LVL209:
	bl _ZN10idMaterial22GetExpressionTemporaryEv
	stw 3,12(27)
	mr 28,3
.LVL210:
.L173:
.LBE1898:
	.loc 3 517 0
	lwz 0,36(1)
	mr 3,28
	lwz 27,12(1)
	mtlr 0
	lwz 28,16(1)
	lwz 29,20(1)
.LVL211:
	lwz 30,24(1)
.LVL212:
	lwz 31,28(1)
.LVL213:
	addi 1,1,32
	.cfi_remember_state
.LCFI81:
	.cfi_def_cfa_offset 0
	.cfi_restore 31
	.cfi_restore 30
	.cfi_restore 29
	.cfi_restore 28
	.cfi_restore 27
	blr
.LVL214:
.L171:
.LCFI82:
	.cfi_restore_state
.LBB1901:
	.loc 3 492 0
	cmpwi 7,30,2
	bne- 7,.L175
	.loc 3 493 0
	lwz 9,240(31)
	lbzx 0,9,29
	cmpwi 7,0,0
	bne- 7,.L176
	.loc 3 493 0 is_stmt 0 discriminator 1
	addi 0,29,512
	lis 11,.LC14@ha
	slwi 0,0,2
	lfs 13,.LC14@l(11)
	lfsx 0,9,0
	fcmpu 6,0,13
	beq- 6,.L173
	.loc 3 496 0 is_stmt 1 discriminator 1
	lis 11,.LC10@ha
	lfs 13,.LC10@l(11)
	fcmpu 6,0,13
	beq- 6,.L180
.L176:
	.loc 3 499 0
	lbzx 0,9,28
	cmpwi 6,0,0
	bne- 6,.L177
	.loc 3 499 0 is_stmt 0 discriminator 1
	addi 0,28,512
	lis 11,.LC14@ha
	slwi 0,0,2
	lfs 13,.LC14@l(11)
	lfsx 0,9,0
	fcmpu 1,0,13
	beq- 1,.L180
	.loc 3 502 0 is_stmt 1 discriminator 1
	lis 11,.LC10@ha
	lfs 13,.LC10@l(11)
	fcmpu 1,0,13
	beq- 1,.L173
.L177:
	.loc 3 505 0
	bne- 7,.L175
	.loc 3 505 0 is_stmt 0 discriminator 1
	bne+ 6,.L175
	.loc 3 506 0 is_stmt 1
	addi 29,29,512
.LVL215:
	addi 28,28,512
.LVL216:
	slwi 29,29,2
.LVL217:
	slwi 28,28,2
.LVL218:
	lfsx 1,9,29
	mr 3,31
	lfsx 0,9,28
	fmuls 1,1,0
	b .L181
.LVL219:
.L182:
	.loc 3 482 0 discriminator 1
	addi 0,29,512
	lis 11,.LC10@ha
	slwi 0,0,2
	lfs 0,.LC10@l(11)
	lfsx 13,9,0
	fcmpu 6,13,0
	bne+ 6,.L172
	b .L173
.L183:
	.loc 3 488 0 discriminator 1
	bne+ 6,.L175
	.loc 3 489 0
	addi 29,29,512
.LVL220:
	addi 28,28,512
.LVL221:
	slwi 29,29,2
.LVL222:
	slwi 28,28,2
.LVL223:
	lfsx 1,9,29
	mr 3,31
	lfsx 0,9,28
	fadds 1,1,0
.L181:
.LBE1901:
	.loc 3 517 0
	lwz 0,36(1)
	lwz 27,12(1)
	lwz 28,16(1)
	mtlr 0
	lwz 29,20(1)
	lwz 30,24(1)
.LVL224:
	lwz 31,28(1)
.LVL225:
	addi 1,1,32
	.cfi_remember_state
.LCFI83:
	.cfi_def_cfa_offset 0
	.cfi_restore 31
	.cfi_restore 30
	.cfi_restore 29
	.cfi_restore 28
	.cfi_restore 27
.LBB1902:
	.loc 3 506 0
	b _ZN10idMaterial21GetExpressionConstantEf
.LVL226:
.L180:
.LCFI84:
	.cfi_restore_state
.LBE1902:
	.loc 3 517 0
	lwz 0,36(1)
.LBB1903:
	.loc 3 500 0
	mr 28,29
.LVL227:
.LBE1903:
	.loc 3 517 0
	mr 3,28
	lwz 27,12(1)
	mtlr 0
	lwz 28,16(1)
	lwz 29,20(1)
.LVL228:
	lwz 30,24(1)
.LVL229:
	lwz 31,28(1)
.LVL230:
	addi 1,1,32
	.cfi_restore 27
	.cfi_restore 28
	.cfi_restore 29
	.cfi_restore 30
	.cfi_restore 31
.LCFI85:
	.cfi_def_cfa_offset 0
	blr
	.cfi_endproc
.LFE2583:
	.size	_ZN10idMaterial6EmitOpEii11expOpType_t, .-_ZN10idMaterial6EmitOpEii11expOpType_t
	.align 2
	.globl _ZN10idMaterial15ParseExpressionER7idLexer
	.type	_ZN10idMaterial15ParseExpressionER7idLexer, @function
_ZN10idMaterial15ParseExpressionER7idLexer:
.LFB2587:
	.loc 3 759 0
	.cfi_startproc
.LVL231:
	.loc 3 760 0
	li 5,4
	.loc 3 761 0
	.loc 3 760 0
	b _ZN10idMaterial23ParseExpressionPriorityER7idLexeri
.LVL232:
.LVL233:
	.cfi_endproc
.LFE2587:
	.size	_ZN10idMaterial15ParseExpressionER7idLexer, .-_ZN10idMaterial15ParseExpressionER7idLexer
	.align 2
	.globl _ZN10idMaterial9ParseTermER7idLexer
	.type	_ZN10idMaterial9ParseTermER7idLexer, @function
_ZN10idMaterial9ParseTermER7idLexer:
.LFB2585:
	.loc 3 538 0
	.cfi_startproc
	.cfi_personality 0,__gxx_personality_v0
	.cfi_lsda 0,.LLSDA2585
.LVL234:
	mflr 0
	stwu 1,-112(1)
.LCFI86:
	.cfi_def_cfa_offset 112
	.cfi_register 65, 0
.LVL235:
.LBB1973:
.LBB1974:
.LBB1975:
.LBB1976:
.LBB1977:
	.loc 4 357 0
	li 9,20
.LBE1977:
.LBE1976:
.LBE1975:
.LBE1974:
.LBE1973:
	.loc 3 538 0
	stw 30,104(1)
	mr 30,3
	.cfi_offset 30, -8
	stw 0,116(1)
.LBB2066:
	.loc 3 542 0
	mr 3,4
.LVL236:
.LBB1990:
.LBB1986:
.LBB1982:
.LBB1978:
	.loc 4 356 0
	li 0,0
	.cfi_offset 65, 4
.LBE1978:
.LBE1982:
.LBE1986:
.LBE1990:
.LBE2066:
	.loc 3 538 0
	stw 31,108(1)
.LBB2067:
.LBB1991:
.LBB1987:
.LBB1983:
.LBB1979:
	.loc 4 357 0
	stw 9,16(1)
.LBE1979:
.LBE1983:
.LBE1987:
.LBE1991:
.LBE2067:
	.loc 3 538 0
	mr 31,4
	.cfi_offset 31, -4
.LBB2068:
.LBB1992:
.LBB1988:
.LBB1984:
.LBB1980:
	.loc 4 358 0
	addi 9,1,20
.LBE1980:
.LBE1984:
.LBE1988:
.LBE1992:
	.loc 3 542 0
	addi 4,1,8
.LVL237:
.LBE2068:
	.loc 3 538 0
	stw 28,96(1)
	stw 29,100(1)
.LBB2069:
.LBB1993:
.LBB1989:
.LBB1985:
.LBB1981:
	.loc 4 356 0
	stw 0,8(1)
	.loc 4 358 0
	stw 9,12(1)
	.loc 4 359 0
	stb 0,20(1)
.LEHB16:
.LBE1981:
.LBE1985:
.LBE1989:
.LBE1993:
	.loc 3 542 0
	.cfi_offset 29, -12
	.cfi_offset 28, -16
	bl _ZN7idLexer9ReadTokenEP7idToken
.LVL238:
.LBB1994:
.LBB1995:
	.loc 4 653 0
	lis 4,.LC39@ha
	lwz 3,12(1)
	la 4,.LC39@l(4)
	bl _ZN5idStr3CmpEPKcS1_
.LBE1995:
.LBE1994:
	.loc 3 544 0
	cmpwi 7,3,0
	bne- 7,.L186
	.loc 3 545 0
	mr 3,30
	mr 4,31
	bl _ZN10idMaterial15ParseExpressionER7idLexer
	.loc 3 546 0
	lis 5,.LC40@ha
	.loc 3 545 0
	mr 29,3
.LVL239:
	.loc 3 546 0
	mr 4,31
	mr 3,30
.LVL240:
	la 5,.LC40@l(5)
	bl _ZN10idMaterial10MatchTokenER7idLexerPKc
.LEHE16:
.LVL241:
.L187:
.LBB1996:
.LBB1997:
.LBB1998:
.LBB1999:
.LBB2000:
	.loc 4 501 0
	addi 3,1,8
.LEHB17:
	bl _ZN5idStr8FreeDataEv
.LEHE17:
.LBE2000:
.LBE1999:
.LBE1998:
.LBE1997:
.LBE1996:
.LBE2069:
	.loc 3 674 0
	lwz 0,116(1)
	mr 3,29
	lwz 28,96(1)
	mtlr 0
	lwz 29,100(1)
	lwz 30,104(1)
.LVL242:
	lwz 31,108(1)
.LVL243:
	addi 1,1,112
	.cfi_remember_state
.LCFI87:
	.cfi_def_cfa_offset 0
	.cfi_restore 31
	.cfi_restore 30
	.cfi_restore 29
	.cfi_restore 28
	blr
.LVL244:
.L186:
.LCFI88:
	.cfi_restore_state
.LBB2070:
.LBB2009:
.LBB2010:
	.loc 4 690 0
	lis 4,.LC41@ha
	lwz 3,12(1)
	la 4,.LC41@l(4)
.LEHB18:
	bl _ZN5idStr4IcmpEPKcS1_
.LEHE18:
.LBE2010:
.LBE2009:
	.loc 3 550 0
	cmpwi 0,3,0
	bne- 0,.L188
	.loc 3 551 0
	lwz 9,240(30)
	.loc 3 552 0
	li 29,0
	.loc 3 551 0
	addis 9,9,0x1
	stb 3,5120(9)
.LVL245:
.LBB2011:
.LBB2007:
.LBB2005:
.LBB2003:
.LBB2001:
	.loc 4 501 0
	addi 3,1,8
.LEHB19:
	bl _ZN5idStr8FreeDataEv
.LEHE19:
.LBE2001:
.LBE2003:
.LBE2005:
.LBE2007:
.LBE2011:
.LBE2070:
	.loc 3 674 0
	lwz 0,116(1)
	mr 3,29
	lwz 28,96(1)
	mtlr 0
	lwz 29,100(1)
	lwz 30,104(1)
.LVL246:
	lwz 31,108(1)
.LVL247:
	addi 1,1,112
	.cfi_remember_state
	.cfi_restore 28
	.cfi_restore 29
	.cfi_restore 30
	.cfi_restore 31
.LCFI89:
	.cfi_def_cfa_offset 0
	blr
.LVL248:
.L188:
.LCFI90:
	.cfi_restore_state
.LBB2071:
.LBB2012:
.LBB2013:
	.loc 4 690 0
	lis 4,.LC42@ha
	lwz 3,12(1)
	la 4,.LC42@l(4)
.LEHB20:
	bl _ZN5idStr4IcmpEPKcS1_
.LEHE20:
.LBE2013:
.LBE2012:
	.loc 3 554 0
	cmpwi 0,3,0
	bne- 0,.L189
	.loc 3 555 0
	lwz 9,240(30)
	.loc 3 556 0
	li 29,1
	.loc 3 555 0
	addis 9,9,0x1
	stb 3,5120(9)
.LVL249:
.LBB2014:
.LBB2008:
.LBB2006:
.LBB2004:
.LBB2002:
	.loc 4 501 0
	addi 3,1,8
.LEHB21:
	bl _ZN5idStr8FreeDataEv
.LEHE21:
.LBE2002:
.LBE2004:
.LBE2006:
.LBE2008:
.LBE2014:
.LBE2071:
	.loc 3 674 0
	lwz 0,116(1)
	mr 3,29
	lwz 28,96(1)
	mtlr 0
	lwz 29,100(1)
	lwz 30,104(1)
.LVL250:
	lwz 31,108(1)
.LVL251:
	addi 1,1,112
	.cfi_remember_state
	.cfi_restore 28
	.cfi_restore 29
	.cfi_restore 30
	.cfi_restore 31
.LCFI91:
	.cfi_def_cfa_offset 0
	blr
.LVL252:
.L189:
.LCFI92:
	.cfi_restore_state
.LBB2072:
.LBB2015:
.LBB2016:
	.loc 4 690 0
	lis 4,.LC43@ha
	lwz 3,12(1)
	la 4,.LC43@l(4)
.LEHB22:
	bl _ZN5idStr4IcmpEPKcS1_
.LBE2016:
.LBE2015:
	.loc 3 558 0
	cmpwi 0,3,0
	bne- 0,.L190
	.loc 3 559 0
	lwz 9,240(30)
	.loc 3 560 0
	li 29,2
	.loc 3 559 0
	addis 9,9,0x1
	stb 3,5120(9)
	b .L187
.L190:
.LVL253:
.LBB2017:
.LBB2018:
	.loc 4 690 0
	lis 4,.LC44@ha
	lwz 3,12(1)
	la 4,.LC44@l(4)
	bl _ZN5idStr4IcmpEPKcS1_
.LBE2018:
.LBE2017:
	.loc 3 562 0
	cmpwi 0,3,0
	bne- 0,.L191
	.loc 3 563 0
	lwz 9,240(30)
	.loc 3 564 0
	li 29,3
	.loc 3 563 0
	addis 9,9,0x1
	stb 3,5120(9)
	b .L187
.L191:
.LVL254:
.LBB2019:
.LBB2020:
	.loc 4 690 0
	lis 4,.LC45@ha
	lwz 3,12(1)
	la 4,.LC45@l(4)
	bl _ZN5idStr4IcmpEPKcS1_
.LBE2020:
.LBE2019:
	.loc 3 566 0
	cmpwi 0,3,0
	bne- 0,.L192
	.loc 3 567 0
	lwz 9,240(30)
	.loc 3 568 0
	li 29,4
	.loc 3 567 0
	addis 9,9,0x1
	stb 3,5120(9)
	b .L187
.L192:
.LVL255:
.LBB2021:
.LBB2022:
	.loc 4 690 0
	lis 4,.LC46@ha
	lwz 3,12(1)
	la 4,.LC46@l(4)
	bl _ZN5idStr4IcmpEPKcS1_
.LEHE22:
.LBE2022:
.LBE2021:
	.loc 3 570 0
	cmpwi 0,3,0
	bne- 0,.L193
	.loc 3 571 0
	lwz 9,240(30)
	.loc 3 572 0
	li 29,5
	.loc 3 571 0
	addis 9,9,0x1
	stb 3,5120(9)
	b .L187
.LVL256:
.L224:
	mr 31,3
.LVL257:
.LBB2023:
.LBB2024:
.LBB2025:
.LBB2026:
.LBB2027:
	.loc 4 501 0
	addi 3,1,8
	bl _ZN5idStr8FreeDataEv
	mr 3,31
.LEHB23:
	bl _Unwind_Resume
.LEHE23:
.LVL258:
.L193:
.LBE2027:
.LBE2026:
.LBE2025:
.LBE2024:
.LBE2023:
.LBB2028:
.LBB2029:
	.loc 4 690 0
	lis 4,.LC47@ha
	lwz 3,12(1)
	la 4,.LC47@l(4)
.LEHB24:
	bl _ZN5idStr4IcmpEPKcS1_
.LBE2029:
.LBE2028:
	.loc 3 574 0
	cmpwi 0,3,0
	bne- 0,.L194
	.loc 3 575 0
	lwz 9,240(30)
	.loc 3 576 0
	li 29,6
	.loc 3 575 0
	addis 9,9,0x1
	stb 3,5120(9)
	b .L187
.L194:
.LVL259:
.LBB2030:
.LBB2031:
	.loc 4 690 0
	lis 4,.LC48@ha
	lwz 3,12(1)
	la 4,.LC48@l(4)
	bl _ZN5idStr4IcmpEPKcS1_
.LBE2031:
.LBE2030:
	.loc 3 578 0
	cmpwi 0,3,0
	bne- 0,.L195
	.loc 3 579 0
	lwz 9,240(30)
	.loc 3 580 0
	li 29,7
	.loc 3 579 0
	addis 9,9,0x1
	stb 3,5120(9)
	b .L187
.L195:
.LVL260:
.LBB2032:
.LBB2033:
	.loc 4 690 0
	lis 4,.LC49@ha
	lwz 3,12(1)
	la 4,.LC49@l(4)
	bl _ZN5idStr4IcmpEPKcS1_
.LBE2033:
.LBE2032:
	.loc 3 582 0
	cmpwi 0,3,0
	bne- 0,.L196
	.loc 3 583 0
	lwz 9,240(30)
	.loc 3 584 0
	li 29,8
	.loc 3 583 0
	addis 9,9,0x1
	stb 3,5120(9)
	b .L187
.L196:
.LVL261:
.LBB2034:
.LBB2035:
	.loc 4 690 0
	lis 4,.LC50@ha
	lwz 3,12(1)
	la 4,.LC50@l(4)
	bl _ZN5idStr4IcmpEPKcS1_
.LBE2035:
.LBE2034:
	.loc 3 586 0
	cmpwi 0,3,0
	bne- 0,.L197
	.loc 3 587 0
	lwz 9,240(30)
	.loc 3 588 0
	li 29,9
	.loc 3 587 0
	addis 9,9,0x1
	stb 3,5120(9)
	b .L187
.L197:
.LVL262:
.LBB2036:
.LBB2037:
	.loc 4 690 0
	lis 4,.LC51@ha
	lwz 3,12(1)
	la 4,.LC51@l(4)
	bl _ZN5idStr4IcmpEPKcS1_
.LBE2037:
.LBE2036:
	.loc 3 590 0
	cmpwi 0,3,0
	bne- 0,.L198
	.loc 3 591 0
	lwz 9,240(30)
	.loc 3 592 0
	li 29,10
	.loc 3 591 0
	addis 9,9,0x1
	stb 3,5120(9)
	b .L187
.L198:
.LVL263:
.LBB2038:
.LBB2039:
	.loc 4 690 0
	lis 4,.LC52@ha
	lwz 3,12(1)
	la 4,.LC52@l(4)
	bl _ZN5idStr4IcmpEPKcS1_
.LBE2039:
.LBE2038:
	.loc 3 594 0
	cmpwi 0,3,0
	bne- 0,.L199
	.loc 3 595 0
	lwz 9,240(30)
	.loc 3 596 0
	li 29,11
	.loc 3 595 0
	addis 9,9,0x1
	stb 3,5120(9)
	b .L187
.L199:
.LVL264:
.LBB2040:
.LBB2041:
	.loc 4 690 0
	lis 4,.LC53@ha
	lwz 3,12(1)
	la 4,.LC53@l(4)
	bl _ZN5idStr4IcmpEPKcS1_
.LBE2041:
.LBE2040:
	.loc 3 598 0
	cmpwi 0,3,0
	bne- 0,.L200
	.loc 3 599 0
	lwz 9,240(30)
	.loc 3 600 0
	li 29,12
	.loc 3 599 0
	addis 9,9,0x1
	stb 3,5120(9)
	b .L187
.L200:
.LVL265:
.LBB2042:
.LBB2043:
	.loc 4 690 0
	lis 4,.LC54@ha
	lwz 3,12(1)
	la 4,.LC54@l(4)
	bl _ZN5idStr4IcmpEPKcS1_
.LBE2043:
.LBE2042:
	.loc 3 602 0
	cmpwi 0,3,0
	bne- 0,.L201
	.loc 3 603 0
	lwz 9,240(30)
	.loc 3 604 0
	li 29,13
	.loc 3 603 0
	addis 9,9,0x1
	stb 3,5120(9)
	b .L187
.L201:
.LVL266:
.LBB2044:
.LBB2045:
	.loc 4 690 0
	lis 4,.LC55@ha
	lwz 3,12(1)
	la 4,.LC55@l(4)
	bl _ZN5idStr4IcmpEPKcS1_
.LBE2045:
.LBE2044:
	.loc 3 606 0
	cmpwi 0,3,0
	bne- 0,.L202
	.loc 3 607 0
	lwz 9,240(30)
	.loc 3 608 0
	li 29,14
	.loc 3 607 0
	addis 9,9,0x1
	stb 3,5120(9)
	b .L187
.L202:
.LVL267:
.LBB2046:
.LBB2047:
	.loc 4 690 0
	lis 4,.LC56@ha
	lwz 3,12(1)
	la 4,.LC56@l(4)
	bl _ZN5idStr4IcmpEPKcS1_
.LBE2047:
.LBE2046:
	.loc 3 610 0
	cmpwi 0,3,0
	bne- 0,.L203
	.loc 3 611 0
	lwz 9,240(30)
	.loc 3 612 0
	li 29,15
	.loc 3 611 0
	addis 9,9,0x1
	stb 3,5120(9)
	b .L187
.L203:
.LVL268:
.LBB2048:
.LBB2049:
	.loc 4 690 0
	lis 4,.LC57@ha
	lwz 3,12(1)
	la 4,.LC57@l(4)
	bl _ZN5idStr4IcmpEPKcS1_
.LBE2049:
.LBE2048:
	.loc 3 614 0
	cmpwi 0,3,0
	bne- 0,.L204
	.loc 3 615 0
	lwz 9,240(30)
	.loc 3 616 0
	li 29,16
	.loc 3 615 0
	addis 9,9,0x1
	stb 3,5120(9)
	b .L187
.L204:
.LVL269:
.LBB2050:
.LBB2051:
	.loc 4 690 0
	lis 4,.LC58@ha
	lwz 3,12(1)
	la 4,.LC58@l(4)
	bl _ZN5idStr4IcmpEPKcS1_
.LBE2051:
.LBE2050:
	.loc 3 618 0
	cmpwi 0,3,0
	bne- 0,.L205
	.loc 3 619 0
	lwz 9,240(30)
	.loc 3 620 0
	li 29,17
	.loc 3 619 0
	addis 9,9,0x1
	stb 3,5120(9)
	b .L187
.L205:
.LVL270:
.LBB2052:
.LBB2053:
	.loc 4 690 0
	lis 4,.LC59@ha
	lwz 3,12(1)
	la 4,.LC59@l(4)
	bl _ZN5idStr4IcmpEPKcS1_
.LBE2053:
.LBE2052:
	.loc 3 622 0
	cmpwi 0,3,0
	bne- 0,.L206
	.loc 3 623 0
	lwz 9,240(30)
	.loc 3 624 0
	li 29,18
	.loc 3 623 0
	addis 9,9,0x1
	stb 3,5120(9)
	b .L187
.L206:
.LVL271:
.LBB2054:
.LBB2055:
	.loc 4 690 0
	lis 4,.LC60@ha
	lwz 3,12(1)
	la 4,.LC60@l(4)
	bl _ZN5idStr4IcmpEPKcS1_
.LBE2055:
.LBE2054:
	.loc 3 626 0
	cmpwi 0,3,0
	bne- 0,.L207
	.loc 3 627 0
	lwz 9,240(30)
	.loc 3 628 0
	li 29,19
	.loc 3 627 0
	addis 9,9,0x1
	stb 3,5120(9)
	b .L187
.L207:
.LVL272:
.LBB2056:
.LBB2057:
	.loc 4 690 0
	lis 4,.LC61@ha
	lwz 3,12(1)
	la 4,.LC61@l(4)
	bl _ZN5idStr4IcmpEPKcS1_
.LBE2057:
.LBE2056:
	.loc 3 630 0
	cmpwi 0,3,0
	bne- 0,.L208
	.loc 3 631 0
	lwz 9,240(30)
	.loc 3 632 0
	li 29,20
	.loc 3 631 0
	addis 9,9,0x1
	stb 3,5120(9)
	b .L187
.L208:
.LVL273:
.LBB2058:
.LBB2059:
	.loc 4 690 0
	lis 4,.LC62@ha
	lwz 3,12(1)
	la 4,.LC62@l(4)
	bl _ZN5idStr4IcmpEPKcS1_
.LBE2059:
.LBE2058:
	.loc 3 634 0
	cmpwi 7,3,0
	bne- 7,.L209
	.loc 3 635 0
	lis 9,glConfig+69@ha
	mr 3,30
	lbz 0,glConfig+69@l(9)
	lis 9,.LC64@ha
	lfs 0,.LC64@l(9)
	stw 0,92(1)
	lis 0,0x4330
	stw 0,88(1)
	lfd 1,88(1)
	fsub 1,1,0
	frsp 1,1
	bl _ZN10idMaterial21GetExpressionConstantEf
.L227:
	.loc 3 673 0
	mr 29,3
	b .L187
.L209:
.LVL274:
.LBB2060:
.LBB2061:
	.loc 4 690 0
	lis 4,.LC65@ha
	lwz 3,12(1)
	la 4,.LC65@l(4)
	bl _ZN5idStr4IcmpEPKcS1_
.LBE2061:
.LBE2060:
	.loc 3 638 0
	mr. 0,3
	bne- 0,.L210
	.loc 3 639 0
	lwz 9,240(30)
	.loc 3 640 0
	mr 3,30
	li 4,0
	li 5,0
	.loc 3 639 0
	addis 9,9,0x1
	.loc 3 640 0
	li 6,14
	.loc 3 639 0
	stb 0,5120(9)
	.loc 3 640 0
	bl _ZN10idMaterial6EmitOpEii11expOpType_t
	b .L227
.L210:
	.loc 3 644 0
	lis 29,.LC66@ha
	lwz 3,12(1)
	la 29,.LC66@l(29)
	mr 4,29
	bl _ZeqRK5idStrPKc.isra.7
	cmpwi 7,3,0
	bne- 7,.L229
	.loc 3 654 0
	lwz 0,40(1)
	cmpwi 7,0,3
	beq- 7,.L214
	.loc 3 654 0 is_stmt 0 discriminator 2
	lis 4,.LC67@ha
	lwz 3,12(1)
	la 4,.LC67@l(4)
	bl _ZeqRK5idStrPKc.isra.7
	cmpwi 7,3,0
	beq- 7,.L230
.L214:
	.loc 3 655 0 is_stmt 1 discriminator 5
	addi 3,1,8
	bl _ZN7idToken13GetFloatValueEv
	mr 3,30
	bl _ZN10idMaterial21GetExpressionConstantEf
	b .L227
.L229:
	.loc 3 645 0
	mr 3,31
	addi 4,1,8
	bl _ZN7idLexer9ReadTokenEP7idToken
	.loc 3 646 0
	lwz 0,40(1)
	cmpwi 7,0,3
	beq- 7,.L212
	.loc 3 646 0 is_stmt 0 discriminator 2
	lis 4,.LC67@ha
	lwz 3,12(1)
	la 4,.LC67@l(4)
	bl _ZeqRK5idStrPKc.isra.7
	cmpwi 7,3,0
	beq- 7,.L213
.L212:
	.loc 3 647 0 is_stmt 1 discriminator 4
	addi 3,1,8
	bl _ZN7idToken13GetFloatValueEv
	fneg 1,1
	mr 3,30
	bl _ZN10idMaterial21GetExpressionConstantEf
	b .L227
.L230:
	.loc 3 654 0 discriminator 3
	lwz 3,12(1)
	mr 4,29
	bl _ZeqRK5idStrPKc.isra.7
	cmpwi 7,3,0
	bne- 7,.L214
	.loc 3 659 0
	lis 9,declManager@ha
	li 4,0
	lwz 3,declManager@l(9)
	li 6,0
	lwz 5,12(1)
	li 7,0
	lwz 9,0(3)
	lwz 0,60(9)
	mtctr 0
	bctrl
.LVL275:
	.loc 3 660 0
	mr. 29,3
	beq- 0,.L231
	.loc 3 667 0
	lis 5,.LC69@ha
	mr 3,30
.LVL276:
	mr 4,31
	la 5,.LC69@l(5)
	bl _ZN10idMaterial10MatchTokenER7idLexerPKc
	.loc 3 669 0
	mr 3,30
	mr 4,31
	bl _ZN10idMaterial15ParseExpressionER7idLexer
	.loc 3 671 0
	lis 5,.LC70@ha
	.loc 3 669 0
	mr 28,3
.LVL277:
	.loc 3 671 0
	mr 4,31
	mr 3,30
.LVL278:
	la 5,.LC70@l(5)
	bl _ZN10idMaterial10MatchTokenER7idLexerPKc
	.loc 3 2840 0
	lwz 3,4(29)
.LBB2062:
.LBB2063:
	.loc 2 165 0
	lwz 9,0(3)
	lwz 0,40(9)
	mtctr 0
	bctrl
	mr 4,3
.LBE2063:
.LBE2062:
	.loc 3 673 0
	mr 5,28
	mr 3,30
	li 6,5
	bl _ZN10idMaterial6EmitOpEii11expOpType_t
	b .L227
.LVL279:
.L213:
	.loc 3 649 0
	lis 4,.LC71@ha
	lwz 5,12(1)
	mr 3,31
	la 4,.LC71@l(4)
	crxor 6,6,6
	bl _ZN7idLexer7WarningEPKcz
.L228:
.LVL280:
.LBB2064:
.LBB2065:
	.loc 6 488 0
	lwz 0,104(30)
	.loc 3 663 0
	li 29,0
	.loc 6 488 0
	ori 0,0,1
	stw 0,104(30)
	b .L187
.LVL281:
.L231:
.LBE2065:
.LBE2064:
	.loc 3 661 0
	lis 4,.LC68@ha
	lwz 5,12(1)
	mr 3,31
.LVL282:
	la 4,.LC68@l(4)
	crxor 6,6,6
	bl _ZN7idLexer7WarningEPKcz
.LEHE24:
	b .L228
.LBE2072:
	.cfi_endproc
.LFE2585:
	.section	.gcc_except_table
.LLSDA2585:
	.byte	0xff
	.byte	0xff
	.byte	0x1
	.uleb128 .LLSDACSE2585-.LLSDACSB2585
.LLSDACSB2585:
	.uleb128 .LEHB16-.LFB2585
	.uleb128 .LEHE16-.LEHB16
	.uleb128 .L224-.LFB2585
	.uleb128 0
	.uleb128 .LEHB17-.LFB2585
	.uleb128 .LEHE17-.LEHB17
	.uleb128 0
	.uleb128 0
	.uleb128 .LEHB18-.LFB2585
	.uleb128 .LEHE18-.LEHB18
	.uleb128 .L224-.LFB2585
	.uleb128 0
	.uleb128 .LEHB19-.LFB2585
	.uleb128 .LEHE19-.LEHB19
	.uleb128 0
	.uleb128 0
	.uleb128 .LEHB20-.LFB2585
	.uleb128 .LEHE20-.LEHB20
	.uleb128 .L224-.LFB2585
	.uleb128 0
	.uleb128 .LEHB21-.LFB2585
	.uleb128 .LEHE21-.LEHB21
	.uleb128 0
	.uleb128 0
	.uleb128 .LEHB22-.LFB2585
	.uleb128 .LEHE22-.LEHB22
	.uleb128 .L224-.LFB2585
	.uleb128 0
	.uleb128 .LEHB23-.LFB2585
	.uleb128 .LEHE23-.LEHB23
	.uleb128 0
	.uleb128 0
	.uleb128 .LEHB24-.LFB2585
	.uleb128 .LEHE24-.LEHB24
	.uleb128 .L224-.LFB2585
	.uleb128 0
.LLSDACSE2585:
	.section	".text"
	.size	_ZN10idMaterial9ParseTermER7idLexer, .-_ZN10idMaterial9ParseTermER7idLexer
	.align 2
	.globl _ZN10idMaterial23ParseExpressionPriorityER7idLexeri
	.type	_ZN10idMaterial23ParseExpressionPriorityER7idLexeri, @function
_ZN10idMaterial23ParseExpressionPriorityER7idLexeri:
.LFB2586:
	.loc 3 684 0
	.cfi_startproc
	.cfi_personality 0,__gxx_personality_v0
	.cfi_lsda 0,.LLSDA2586
.LVL283:
	stwu 1,-112(1)
.LCFI93:
	.cfi_def_cfa_offset 112
.LVL284:
	mflr 0
.LBB2100:
.LBB2101:
.LBB2102:
.LBB2103:
.LBB2104:
	.loc 4 357 0
	li 9,20
.LBE2104:
.LBE2103:
.LBE2102:
.LBE2101:
.LBE2100:
	.loc 3 684 0
	stw 29,100(1)
.LBB2140:
	.loc 3 688 0
	mr. 29,5
	.cfi_offset 29, -12
	.cfi_register 65, 0
.LBE2140:
	.loc 3 684 0
	stw 0,116(1)
.LBB2141:
.LBB2111:
.LBB2109:
.LBB2107:
.LBB2105:
	.loc 4 356 0
	li 0,0
	.cfi_offset 65, 4
	.loc 4 357 0
	stw 9,16(1)
	.loc 4 358 0
	addi 9,1,20
.LBE2105:
.LBE2107:
.LBE2109:
.LBE2111:
.LBE2141:
	.loc 3 684 0
	stw 27,92(1)
	mr 27,4
	.cfi_offset 27, -20
	stw 28,96(1)
	mr 28,3
	.cfi_offset 28, -16
	stw 30,104(1)
	stw 31,108(1)
.LBB2142:
.LBB2112:
.LBB2110:
.LBB2108:
.LBB2106:
	.loc 4 356 0
	stw 0,8(1)
	.loc 4 358 0
	stw 9,12(1)
	.loc 4 359 0
	stb 0,20(1)
.LBE2106:
.LBE2108:
.LBE2110:
.LBE2112:
	.loc 3 688 0
	bne- 0,.L233
	.cfi_offset 31, -4
	.cfi_offset 30, -8
	addi 31,1,8
.LEHB25:
	.loc 3 689 0
	bl _ZN10idMaterial9ParseTermER7idLexer
.LEHE25:
.LVL285:
	mr 30,3
	addi 31,1,8
.L234:
.LVL286:
.LBB2113:
.LBB2114:
.LBB2115:
.LBB2116:
.LBB2117:
	.loc 4 501 0
	mr 3,31
.LEHB26:
	bl _ZN5idStr8FreeDataEv
.LEHE26:
.LBE2117:
.LBE2116:
.LBE2115:
.LBE2114:
.LBE2113:
.LBE2142:
	.loc 3 750 0
	lwz 0,116(1)
	mr 3,30
	lwz 27,92(1)
.LVL287:
	mtlr 0
	lwz 28,96(1)
.LVL288:
	lwz 29,100(1)
.LVL289:
	lwz 30,104(1)
	lwz 31,108(1)
	addi 1,1,112
	.cfi_remember_state
.LCFI94:
	.cfi_def_cfa_offset 0
	.cfi_restore 31
	.cfi_restore 30
	.cfi_restore 29
	.cfi_restore 28
	.cfi_restore 27
	blr
.LVL290:
.L233:
.LCFI95:
	.cfi_restore_state
.LBB2143:
	.loc 3 692 0
	addi 5,29,-1
.LVL291:
	addi 31,1,8
.LEHB27:
	bl _ZN10idMaterial23ParseExpressionPriorityER7idLexeri
.LEHE27:
.LVL292:
.LBB2122:
.LBB2123:
	.loc 6 494 0
	lwz 0,104(28)
.LBE2123:
.LBE2122:
	.loc 3 692 0
	mr 30,3
.LVL293:
	.loc 3 694 0
	andi. 9,0,1
	beq- 0,.L278
	addi 31,1,8
.LVL294:
	.loc 3 695 0
	li 30,0
.LBB2124:
.LBB2121:
.LBB2120:
.LBB2119:
.LBB2118:
	.loc 4 501 0
	mr 3,31
.LVL295:
.LEHB28:
	bl _ZN5idStr8FreeDataEv
.LEHE28:
.LBE2118:
.LBE2119:
.LBE2120:
.LBE2121:
.LBE2124:
.LBE2143:
	.loc 3 750 0
	lwz 0,116(1)
	mr 3,30
	lwz 27,92(1)
.LVL296:
	mtlr 0
	lwz 28,96(1)
.LVL297:
	lwz 29,100(1)
.LVL298:
	lwz 30,104(1)
	lwz 31,108(1)
	addi 1,1,112
	.cfi_remember_state
	.cfi_restore 27
	.cfi_restore 28
	.cfi_restore 29
	.cfi_restore 30
	.cfi_restore 31
.LCFI96:
	.cfi_def_cfa_offset 0
	blr
.LVL299:
.L278:
.LCFI97:
	.cfi_restore_state
.LBB2144:
	.loc 3 698 0
	addi 31,1,8
	mr 3,27
.LVL300:
	mr 4,31
.LEHB29:
	bl _ZN7idLexer9ReadTokenEP7idToken
	cmpwi 7,3,0
	beq- 7,.L234
	.loc 3 704 0
	cmpwi 7,29,1
	beq- 7,.L279
	.loc 3 713 0
	cmpwi 7,29,2
	beq- 7,.L253
	.loc 3 719 0
	cmpwi 7,29,3
	beq- 7,.L254
	.loc 3 737 0
	cmpwi 7,29,4
	beq- 7,.L255
.L247:
	.loc 3 747 0
	mr 3,27
	mr 4,31
	bl _ZN7idLexer11UnreadTokenEPK7idToken
	b .L234
.L253:
.LVL301:
.LBB2125:
.LBB2126:
	.loc 4 653 0 discriminator 1
	lis 4,.LC73@ha
	lwz 3,12(1)
	la 4,.LC73@l(4)
	bl _ZN5idStr3CmpEPKcS1_
.LBE2126:
.LBE2125:
	.loc 3 713 0 discriminator 1
	cmpwi 7,3,0
	bne- 7,.L239
	.loc 3 714 0 discriminator 4
	mr 3,28
	mr 4,27
	mr 5,30
	li 6,0
	li 7,2
	bl _ZN10idMaterial11ParseEmitOpER7idLexeri11expOpType_ti
	.loc 3 741 0 discriminator 4
	mr 30,3
.LVL302:
	b .L234
.LVL303:
.L279:
.LBB2127:
.LBB2128:
	.loc 4 653 0 discriminator 1
	lis 4,.LC72@ha
	lwz 3,12(1)
	la 4,.LC72@l(4)
	bl _ZN5idStr3CmpEPKcS1_
.LBE2128:
.LBE2127:
	.loc 3 704 0 discriminator 1
	cmpwi 7,3,0
	bne- 7,.L236
	.loc 3 705 0 discriminator 4
	mr 3,28
	mr 4,27
	mr 5,30
	li 6,2
	li 7,1
	bl _ZN10idMaterial11ParseEmitOpER7idLexeri11expOpType_ti
	.loc 3 741 0
	mr 30,3
.LVL304:
	b .L234
.LVL305:
.L236:
.LBB2129:
.LBB2130:
	.loc 4 653 0
	lis 4,.LC76@ha
	lwz 3,12(1)
	la 4,.LC76@l(4)
	bl _ZN5idStr3CmpEPKcS1_
.LBE2130:
.LBE2129:
	.loc 3 707 0
	cmpwi 7,3,0
	beq- 7,.L267
.LVL306:
.LBB2131:
.LBB2132:
	.loc 4 653 0
	lis 4,.LC77@ha
	lwz 3,12(1)
	la 4,.LC77@l(4)
	bl _ZN5idStr3CmpEPKcS1_
.LBE2132:
.LBE2131:
	.loc 3 710 0
	cmpwi 7,3,0
	bne- 7,.L247
	.loc 3 711 0 discriminator 4
	mr 3,28
	mr 4,27
	mr 5,30
	li 6,4
	li 7,1
	bl _ZN10idMaterial11ParseEmitOpER7idLexeri11expOpType_ti
	.loc 3 741 0
	mr 30,3
.LVL307:
	b .L234
.LVL308:
.L267:
	.loc 3 708 0 discriminator 4
	mr 3,28
	mr 4,27
	mr 5,30
	li 6,3
	li 7,1
	bl _ZN10idMaterial11ParseEmitOpER7idLexeri11expOpType_ti
	.loc 3 741 0
	mr 30,3
.LVL309:
	b .L234
.LVL310:
.L239:
.LBB2133:
.LBB2134:
	.loc 4 653 0
	lis 4,.LC66@ha
	lwz 3,12(1)
	la 4,.LC66@l(4)
	bl _ZN5idStr3CmpEPKcS1_
.LBE2134:
.LBE2133:
	.loc 3 716 0
	cmpwi 7,3,0
	bne- 7,.L247
	.loc 3 717 0 discriminator 4
	mr 3,28
	mr 4,27
	mr 5,30
	li 6,1
	li 7,2
	bl _ZN10idMaterial11ParseEmitOpER7idLexeri11expOpType_ti
	.loc 3 741 0
	mr 30,3
.LVL311:
	b .L234
.LVL312:
.L254:
	.loc 3 719 0 discriminator 1
	lis 4,.LC74@ha
	lwz 3,12(1)
	la 4,.LC74@l(4)
	bl _ZeqRK5idStrPKc.isra.7
	cmpwi 7,3,0
	beq- 7,.L240
	.loc 3 720 0 discriminator 4
	mr 3,28
	mr 4,27
	mr 5,30
	li 6,6
	li 7,3
	bl _ZN10idMaterial11ParseEmitOpER7idLexeri11expOpType_ti
	.loc 3 741 0
	mr 30,3
.LVL313:
	b .L234
.LVL314:
.L240:
	.loc 3 722 0
	lis 4,.LC78@ha
	lwz 3,12(1)
	la 4,.LC78@l(4)
	bl _ZeqRK5idStrPKc.isra.7
	cmpwi 7,3,0
	bne- 7,.L270
	.loc 3 725 0
	lis 4,.LC79@ha
	lwz 3,12(1)
	la 4,.LC79@l(4)
	bl _ZeqRK5idStrPKc.isra.7
	cmpwi 7,3,0
	bne- 7,.L271
	.loc 3 728 0
	lis 4,.LC80@ha
	lwz 3,12(1)
	la 4,.LC80@l(4)
	bl _ZeqRK5idStrPKc.isra.7
	cmpwi 7,3,0
	bne- 7,.L272
	.loc 3 731 0
	lis 4,.LC81@ha
	lwz 3,12(1)
	la 4,.LC81@l(4)
	bl _ZeqRK5idStrPKc.isra.7
	cmpwi 7,3,0
	bne- 7,.L273
	.loc 3 734 0
	lis 4,.LC82@ha
	lwz 3,12(1)
	la 4,.LC82@l(4)
	bl _ZeqRK5idStrPKc.isra.7
	cmpwi 7,3,0
	beq- 7,.L247
	.loc 3 735 0 discriminator 4
	mr 3,28
	mr 4,27
	mr 5,30
	li 6,11
	li 7,3
	bl _ZN10idMaterial11ParseEmitOpER7idLexeri11expOpType_ti
	.loc 3 741 0
	mr 30,3
.LVL315:
	b .L234
.LVL316:
.L270:
	.loc 3 723 0 discriminator 4
	mr 3,28
	mr 4,27
	mr 5,30
	li 6,7
	li 7,3
	bl _ZN10idMaterial11ParseEmitOpER7idLexeri11expOpType_ti
	.loc 3 741 0
	mr 30,3
.LVL317:
	b .L234
.LVL318:
.L271:
	.loc 3 726 0 discriminator 4
	mr 3,28
	mr 4,27
	mr 5,30
	li 6,8
	li 7,3
	bl _ZN10idMaterial11ParseEmitOpER7idLexeri11expOpType_ti
	.loc 3 741 0
	mr 30,3
.LVL319:
	b .L234
.LVL320:
.L273:
	.loc 3 732 0 discriminator 4
	mr 3,28
	mr 4,27
	mr 5,30
	li 6,10
	li 7,3
	bl _ZN10idMaterial11ParseEmitOpER7idLexeri11expOpType_ti
	.loc 3 741 0
	mr 30,3
.LVL321:
	b .L234
.LVL322:
.L272:
	.loc 3 729 0 discriminator 4
	mr 3,28
	mr 4,27
	mr 5,30
	li 6,9
	li 7,3
	bl _ZN10idMaterial11ParseEmitOpER7idLexeri11expOpType_ti
	.loc 3 741 0
	mr 30,3
.LVL323:
	b .L234
.LVL324:
.L255:
	.loc 3 737 0 discriminator 1
	lis 4,.LC75@ha
	lwz 3,12(1)
	la 4,.LC75@l(4)
	bl _ZeqRK5idStrPKc.isra.7
	cmpwi 7,3,0
	beq- 7,.L246
	.loc 3 738 0 discriminator 4
	mr 3,28
	mr 4,27
	mr 5,30
	li 6,12
	li 7,4
	bl _ZN10idMaterial11ParseEmitOpER7idLexeri11expOpType_ti
	.loc 3 741 0
	mr 30,3
.LVL325:
	b .L234
.LVL326:
.L246:
	.loc 3 740 0
	lis 4,.LC83@ha
	lwz 3,12(1)
	la 4,.LC83@l(4)
	bl _ZeqRK5idStrPKc.isra.7
	cmpwi 7,3,0
	beq- 7,.L247
	.loc 3 741 0 discriminator 4
	mr 3,28
	mr 4,27
	mr 5,30
	li 6,13
	li 7,4
	bl _ZN10idMaterial11ParseEmitOpER7idLexeri11expOpType_ti
.LEHE29:
	.loc 3 741 0 is_stmt 0
	mr 30,3
.LVL327:
	b .L234
.LVL328:
.L266:
	mr 30,3
.LVL329:
.LBB2135:
.LBB2136:
.LBB2137:
.LBB2138:
.LBB2139:
	.loc 4 501 0 is_stmt 1
	mr 3,31
	bl _ZN5idStr8FreeDataEv
	mr 3,30
.LEHB30:
	bl _Unwind_Resume
.LEHE30:
.LBE2139:
.LBE2138:
.LBE2137:
.LBE2136:
.LBE2135:
.LBE2144:
	.cfi_endproc
.LFE2586:
	.section	.gcc_except_table
.LLSDA2586:
	.byte	0xff
	.byte	0xff
	.byte	0x1
	.uleb128 .LLSDACSE2586-.LLSDACSB2586
.LLSDACSB2586:
	.uleb128 .LEHB25-.LFB2586
	.uleb128 .LEHE25-.LEHB25
	.uleb128 .L266-.LFB2586
	.uleb128 0
	.uleb128 .LEHB26-.LFB2586
	.uleb128 .LEHE26-.LEHB26
	.uleb128 0
	.uleb128 0
	.uleb128 .LEHB27-.LFB2586
	.uleb128 .LEHE27-.LEHB27
	.uleb128 .L266-.LFB2586
	.uleb128 0
	.uleb128 .LEHB28-.LFB2586
	.uleb128 .LEHE28-.LEHB28
	.uleb128 0
	.uleb128 0
	.uleb128 .LEHB29-.LFB2586
	.uleb128 .LEHE29-.LEHB29
	.uleb128 .L266-.LFB2586
	.uleb128 0
	.uleb128 .LEHB30-.LFB2586
	.uleb128 .LEHE30-.LEHB30
	.uleb128 0
	.uleb128 0
.LLSDACSE2586:
	.section	".text"
	.size	_ZN10idMaterial23ParseExpressionPriorityER7idLexeri, .-_ZN10idMaterial23ParseExpressionPriorityER7idLexeri
	.align 2
	.globl _ZN10idMaterial11ParseEmitOpER7idLexeri11expOpType_ti
	.type	_ZN10idMaterial11ParseEmitOpER7idLexeri11expOpType_ti, @function
_ZN10idMaterial11ParseEmitOpER7idLexeri11expOpType_ti:
.LFB2584:
	.loc 3 524 0
	.cfi_startproc
.LVL330:
	stwu 1,-24(1)
.LCFI98:
	.cfi_def_cfa_offset 24
	mflr 0
	stw 31,20(1)
	mr 31,5
	.cfi_offset 31, -4
	.cfi_register 65, 0
.LBB2145:
	.loc 3 527 0
	mr 5,7
.LVL331:
.LBE2145:
	.loc 3 524 0
	stw 0,28(1)
	stw 30,16(1)
	.loc 3 524 0
	mr 30,3
	.cfi_offset 30, -8
	.cfi_offset 65, 4
.LBB2146:
	.loc 3 527 0
	stw 6,8(1)
	bl _ZN10idMaterial23ParseExpressionPriorityER7idLexeri
.LVL332:
.LBE2146:
	.loc 3 529 0
	lwz 0,28(1)
.LBB2147:
	.loc 3 527 0
	mr 5,3
.LVL333:
	.loc 3 528 0
	lwz 6,8(1)
	mr 3,30
.LVL334:
	mr 4,31
.LBE2147:
	.loc 3 529 0
	lwz 30,16(1)
.LVL335:
	lwz 31,20(1)
.LVL336:
	mtlr 0
	addi 1,1,24
.LCFI99:
	.cfi_def_cfa_offset 0
	.cfi_restore 31
	.cfi_restore 30
.LBB2148:
	.loc 3 528 0
	b _ZN10idMaterial6EmitOpEii11expOpType_t
.LVL337:
.LVL338:
.LVL339:
.LBE2148:
	.cfi_endproc
.LFE2584:
	.size	_ZN10idMaterial11ParseEmitOpER7idLexeri11expOpType_ti, .-_ZN10idMaterial11ParseEmitOpER7idLexeri11expOpType_ti
	.align 2
	.globl _ZN10idMaterial10ClearStageEP13shaderStage_t
	.type	_ZN10idMaterial10ClearStageEP13shaderStage_t, @function
_ZN10idMaterial10ClearStageEP13shaderStage_t:
.LFB2588:
	.loc 3 769 0
	.cfi_startproc
.LVL340:
	stwu 1,-24(1)
.LCFI100:
	.cfi_def_cfa_offset 24
	mflr 0
	.loc 3 771 0
	lis 9,.LC14@ha
	.loc 3 769 0
	stfd 31,16(1)
	.loc 3 771 0
	lfs 31,.LC14@l(9)
	.cfi_offset 63, -8
	.cfi_register 65, 0
	.loc 3 769 0
	stw 0,28(1)
	.loc 3 770 0
	li 0,0
	.cfi_offset 65, 4
	.loc 3 771 0
	fmr 1,31
	.loc 3 770 0
	stw 0,8(4)
	.loc 3 769 0
	stw 30,8(1)
	mr 30,3
	.cfi_offset 30, -16
	stw 31,12(1)
	.loc 3 769 0
	mr 31,4
	.cfi_offset 31, -12
	.loc 3 771 0
	bl _ZN10idMaterial21GetExpressionConstantEf
.LVL341:
	.loc 3 775 0
	fmr 1,31
	.loc 3 771 0
	stw 3,0(31)
	.loc 3 775 0
	mr 3,30
	bl _ZN10idMaterial21GetExpressionConstantEf
	stw 3,24(31)
	stw 3,20(31)
	stw 3,16(31)
	stw 3,12(31)
	.loc 3 776 0
	lwz 0,28(1)
	lwz 30,8(1)
.LVL342:
	mtlr 0
	lwz 31,12(1)
.LVL343:
	lfd 31,16(1)
	addi 1,1,24
.LCFI101:
	.cfi_def_cfa_offset 0
	.cfi_restore 63
	.cfi_restore 31
	.cfi_restore 30
	blr
	.cfi_endproc
.LFE2588:
	.size	_ZN10idMaterial10ClearStageEP13shaderStage_t, .-_ZN10idMaterial10ClearStageEP13shaderStage_t
	.align 2
	.globl _ZN10idMaterial18NameToSrcBlendModeERK5idStr
	.type	_ZN10idMaterial18NameToSrcBlendModeERK5idStr, @function
_ZN10idMaterial18NameToSrcBlendModeERK5idStr:
.LFB2589:
	.loc 3 783 0
	.cfi_startproc
.LVL344:
	mflr 0
	stwu 1,-32(1)
.LCFI102:
	.cfi_def_cfa_offset 32
	.cfi_register 65, 0
	stw 30,24(1)
	mr 30,4
	.cfi_offset 30, -8
	stw 31,28(1)
	mr 31,3
	.cfi_offset 31, -4
	stw 0,36(1)
	stw 29,20(1)
.LBB2149:
.LBB2150:
	.loc 4 690 0
	lwz 3,4(4)
.LVL345:
	lis 4,.LC84@ha
.LVL346:
	la 4,.LC84@l(4)
	.cfi_offset 29, -12
	.cfi_offset 65, 4
	bl _ZN5idStr4IcmpEPKcS1_
.LBE2150:
.LBE2149:
	.loc 3 784 0
	cmpwi 7,3,0
	.loc 3 785 0
	li 3,0
	.loc 3 784 0
	bne- 7,.L293
.LVL347:
.L283:
	.loc 3 808 0
	lwz 0,36(1)
	lwz 29,20(1)
	mtlr 0
	lwz 30,24(1)
	lwz 31,28(1)
.LVL348:
	addi 1,1,32
	.cfi_remember_state
.LCFI103:
	.cfi_def_cfa_offset 0
	.cfi_restore 31
	.cfi_restore 30
	.cfi_restore 29
	blr
.LVL349:
.L293:
.LCFI104:
	.cfi_restore_state
.LBB2151:
.LBB2152:
	.loc 4 690 0
	lwz 3,4(30)
	lis 4,.LC85@ha
	la 4,.LC85@l(4)
	bl _ZN5idStr4IcmpEPKcS1_
.LBE2152:
.LBE2151:
	.loc 3 786 0
	cmpwi 7,3,0
	.loc 3 787 0
	li 3,1
	.loc 3 786 0
	beq+ 7,.L283
.LVL350:
.LBB2153:
.LBB2154:
	.loc 4 690 0
	lwz 3,4(30)
	lis 4,.LC86@ha
	la 4,.LC86@l(4)
	bl _ZN5idStr4IcmpEPKcS1_
.LBE2154:
.LBE2153:
	.loc 3 788 0
	cmpwi 7,3,0
	.loc 3 789 0
	li 3,3
	.loc 3 788 0
	beq+ 7,.L283
.LVL351:
.LBB2155:
.LBB2156:
	.loc 4 690 0
	lwz 3,4(30)
	lis 4,.LC87@ha
	la 4,.LC87@l(4)
	bl _ZN5idStr4IcmpEPKcS1_
.LBE2156:
.LBE2155:
	.loc 3 790 0
	cmpwi 7,3,0
	.loc 3 791 0
	li 3,4
	.loc 3 790 0
	beq+ 7,.L283
.LVL352:
.LBB2157:
.LBB2158:
	.loc 4 690 0
	lwz 3,4(30)
	lis 4,.LC88@ha
	la 4,.LC88@l(4)
	bl _ZN5idStr4IcmpEPKcS1_
.LBE2158:
.LBE2157:
	.loc 3 792 0
	cmpwi 7,3,0
	.loc 3 793 0
	li 3,5
	.loc 3 792 0
	beq+ 7,.L283
.LVL353:
.LBB2159:
.LBB2160:
	.loc 4 690 0
	lwz 3,4(30)
	lis 4,.LC89@ha
	la 4,.LC89@l(4)
	bl _ZN5idStr4IcmpEPKcS1_
.LBE2160:
.LBE2159:
	.loc 3 794 0
	cmpwi 7,3,0
	.loc 3 795 0
	li 3,6
	.loc 3 794 0
	beq+ 7,.L283
.LVL354:
.LBB2161:
.LBB2162:
	.loc 4 690 0
	lwz 3,4(30)
	lis 4,.LC90@ha
	la 4,.LC90@l(4)
	bl _ZN5idStr4IcmpEPKcS1_
.LBE2162:
.LBE2161:
	.loc 3 796 0
	cmpwi 7,3,0
	.loc 3 797 0
	li 3,7
	.loc 3 796 0
	beq+ 7,.L283
.LVL355:
.LBB2163:
.LBB2164:
	.loc 4 690 0
	lwz 3,4(30)
	lis 4,.LC91@ha
	la 4,.LC91@l(4)
	bl _ZN5idStr4IcmpEPKcS1_
.LBE2164:
.LBE2163:
	.loc 3 798 0
	cmpwi 7,3,0
	.loc 3 799 0
	li 3,8
	.loc 3 798 0
	beq+ 7,.L283
.LVL356:
.LBB2165:
.LBB2166:
	.loc 4 690 0
	lwz 3,4(30)
	lis 4,.LC92@ha
	la 4,.LC92@l(4)
	bl _ZN5idStr4IcmpEPKcS1_
.LBE2166:
.LBE2165:
	.loc 3 800 0
	cmpwi 7,3,0
	.loc 3 801 0
	li 3,9
	.loc 3 800 0
	beq+ 7,.L283
	.loc 3 2840 0
	lwz 3,4(31)
	.loc 3 804 0
	lis 11,common@ha
	lwz 29,common@l(11)
.LBB2167:
.LBB2168:
	.loc 2 140 0
	lwz 9,0(3)
.LBE2168:
.LBE2167:
	.loc 3 2840 0
	lwz 5,4(30)
.LBB2173:
.LBB2169:
	.loc 2 140 0
	lwz 0,8(9)
.LBE2169:
.LBE2173:
	.loc 3 804 0
	lwz 9,0(29)
.LBB2174:
.LBB2170:
	.loc 2 140 0
	mtctr 0
.LBE2170:
.LBE2174:
	.loc 3 804 0
	lwz 30,80(9)
.LVL357:
.LBB2175:
.LBB2171:
	.loc 2 140 0
	stw 5,8(1)
	bctrl
.LBE2171:
.LBE2175:
	.loc 3 804 0
	lis 4,.LC93@ha
.LBB2176:
.LBB2172:
	.loc 2 140 0
	mr 6,3
.LBE2172:
.LBE2176:
	.loc 3 804 0
	la 4,.LC93@l(4)
	mr 3,29
	lwz 5,8(1)
	mtctr 30
	crxor 6,6,6
	bctrl
.LVL358:
.LBB2177:
.LBB2178:
	.loc 6 488 0
	lwz 0,104(31)
.LBE2178:
.LBE2177:
	.loc 3 807 0
	li 3,0
.LBB2180:
.LBB2179:
	.loc 6 488 0
	ori 0,0,1
	stw 0,104(31)
.LBE2179:
.LBE2180:
	.loc 3 807 0
	b .L283
	.cfi_endproc
.LFE2589:
	.size	_ZN10idMaterial18NameToSrcBlendModeERK5idStr, .-_ZN10idMaterial18NameToSrcBlendModeERK5idStr
	.align 2
	.globl _ZN10idMaterial18NameToDstBlendModeERK5idStr
	.type	_ZN10idMaterial18NameToDstBlendModeERK5idStr, @function
_ZN10idMaterial18NameToDstBlendModeERK5idStr:
.LFB2590:
	.loc 3 815 0
	.cfi_startproc
.LVL359:
	mflr 0
	stwu 1,-32(1)
.LCFI105:
	.cfi_def_cfa_offset 32
	.cfi_register 65, 0
	stw 30,24(1)
	mr 30,4
	.cfi_offset 30, -8
	stw 31,28(1)
	mr 31,3
	.cfi_offset 31, -4
	stw 0,36(1)
	stw 29,20(1)
.LBB2181:
.LBB2182:
	.loc 4 690 0
	lwz 3,4(4)
.LVL360:
	lis 4,.LC84@ha
.LVL361:
	la 4,.LC84@l(4)
	.cfi_offset 29, -12
	.cfi_offset 65, 4
	bl _ZN5idStr4IcmpEPKcS1_
.LBE2182:
.LBE2181:
	.loc 3 816 0
	cmpwi 7,3,0
	.loc 3 817 0
	li 3,32
	.loc 3 816 0
	bne- 7,.L304
.LVL362:
.L295:
	.loc 3 838 0
	lwz 0,36(1)
	lwz 29,20(1)
	mtlr 0
	lwz 30,24(1)
	lwz 31,28(1)
.LVL363:
	addi 1,1,32
	.cfi_remember_state
.LCFI106:
	.cfi_def_cfa_offset 0
	.cfi_restore 31
	.cfi_restore 30
	.cfi_restore 29
	blr
.LVL364:
.L304:
.LCFI107:
	.cfi_restore_state
.LBB2183:
.LBB2184:
	.loc 4 690 0
	lwz 3,4(30)
	lis 4,.LC85@ha
	la 4,.LC85@l(4)
	bl _ZN5idStr4IcmpEPKcS1_
.LBE2184:
.LBE2183:
	.loc 3 818 0
	cmpwi 7,3,0
	.loc 3 819 0
	li 3,0
	.loc 3 818 0
	beq+ 7,.L295
.LVL365:
.LBB2185:
.LBB2186:
	.loc 4 690 0
	lwz 3,4(30)
	lis 4,.LC88@ha
	la 4,.LC88@l(4)
	bl _ZN5idStr4IcmpEPKcS1_
.LBE2186:
.LBE2185:
	.loc 3 820 0
	cmpwi 7,3,0
	.loc 3 821 0
	li 3,80
	.loc 3 820 0
	beq+ 7,.L295
.LVL366:
.LBB2187:
.LBB2188:
	.loc 4 690 0
	lwz 3,4(30)
	lis 4,.LC89@ha
	la 4,.LC89@l(4)
	bl _ZN5idStr4IcmpEPKcS1_
.LBE2188:
.LBE2187:
	.loc 3 822 0
	cmpwi 7,3,0
	.loc 3 823 0
	li 3,96
	.loc 3 822 0
	beq+ 7,.L295
.LVL367:
.LBB2189:
.LBB2190:
	.loc 4 690 0
	lwz 3,4(30)
	lis 4,.LC90@ha
	la 4,.LC90@l(4)
	bl _ZN5idStr4IcmpEPKcS1_
.LBE2190:
.LBE2189:
	.loc 3 824 0
	cmpwi 7,3,0
	.loc 3 825 0
	li 3,112
	.loc 3 824 0
	beq+ 7,.L295
.LVL368:
.LBB2191:
.LBB2192:
	.loc 4 690 0
	lwz 3,4(30)
	lis 4,.LC91@ha
	la 4,.LC91@l(4)
	bl _ZN5idStr4IcmpEPKcS1_
.LBE2192:
.LBE2191:
	.loc 3 826 0
	cmpwi 7,3,0
	.loc 3 827 0
	li 3,128
	.loc 3 826 0
	beq+ 7,.L295
.LVL369:
.LBB2193:
.LBB2194:
	.loc 4 690 0
	lwz 3,4(30)
	lis 4,.LC94@ha
	la 4,.LC94@l(4)
	bl _ZN5idStr4IcmpEPKcS1_
.LBE2194:
.LBE2193:
	.loc 3 828 0
	cmpwi 7,3,0
	.loc 3 829 0
	li 3,48
	.loc 3 828 0
	beq+ 7,.L295
.LVL370:
.LBB2195:
.LBB2196:
	.loc 4 690 0
	lwz 3,4(30)
	lis 4,.LC95@ha
	la 4,.LC95@l(4)
	bl _ZN5idStr4IcmpEPKcS1_
.LBE2196:
.LBE2195:
	.loc 3 830 0
	cmpwi 7,3,0
	.loc 3 831 0
	li 3,64
	.loc 3 830 0
	beq+ 7,.L295
	.loc 3 2840 0
	lwz 3,4(31)
	.loc 3 834 0
	lis 11,common@ha
	lwz 29,common@l(11)
.LBB2197:
.LBB2198:
	.loc 2 140 0
	lwz 9,0(3)
.LBE2198:
.LBE2197:
	.loc 3 2840 0
	lwz 5,4(30)
.LBB2203:
.LBB2199:
	.loc 2 140 0
	lwz 0,8(9)
.LBE2199:
.LBE2203:
	.loc 3 834 0
	lwz 9,0(29)
.LBB2204:
.LBB2200:
	.loc 2 140 0
	mtctr 0
.LBE2200:
.LBE2204:
	.loc 3 834 0
	lwz 30,80(9)
.LVL371:
.LBB2205:
.LBB2201:
	.loc 2 140 0
	stw 5,8(1)
	bctrl
.LBE2201:
.LBE2205:
	.loc 3 834 0
	lis 4,.LC93@ha
.LBB2206:
.LBB2202:
	.loc 2 140 0
	mr 6,3
.LBE2202:
.LBE2206:
	.loc 3 834 0
	la 4,.LC93@l(4)
	mr 3,29
	lwz 5,8(1)
	mtctr 30
	crxor 6,6,6
	bctrl
.LVL372:
.LBB2207:
.LBB2208:
	.loc 6 488 0
	lwz 0,104(31)
.LBE2208:
.LBE2207:
	.loc 3 837 0
	li 3,32
.LBB2210:
.LBB2209:
	.loc 6 488 0
	ori 0,0,1
	stw 0,104(31)
.LBE2209:
.LBE2210:
	.loc 3 837 0
	b .L295
	.cfi_endproc
.LFE2590:
	.size	_ZN10idMaterial18NameToDstBlendModeERK5idStr, .-_ZN10idMaterial18NameToDstBlendModeERK5idStr
	.align 2
	.globl _ZN10idMaterial10ParseBlendER7idLexerP13shaderStage_t
	.type	_ZN10idMaterial10ParseBlendER7idLexerP13shaderStage_t, @function
_ZN10idMaterial10ParseBlendER7idLexerP13shaderStage_t:
.LFB2591:
	.loc 3 845 0
	.cfi_startproc
	.cfi_personality 0,__gxx_personality_v0
	.cfi_lsda 0,.LLSDA2591
.LVL373:
	mflr 0
	stwu 1,-104(1)
.LCFI108:
	.cfi_def_cfa_offset 104
	.cfi_register 65, 0
.LVL374:
.LBB2211:
.LBB2212:
.LBB2213:
.LBB2214:
.LBB2215:
	.loc 4 357 0
	li 9,20
.LBE2215:
.LBE2214:
.LBE2213:
.LBE2212:
.LBE2211:
	.loc 3 845 0
	stw 29,92(1)
	mr 29,3
	.cfi_offset 29, -12
	stw 0,108(1)
.LBB2263:
	.loc 3 849 0
	mr 3,4
.LVL375:
.LBB2228:
.LBB2224:
.LBB2220:
.LBB2216:
	.loc 4 356 0
	li 0,0
	.cfi_offset 65, 4
.LBE2216:
.LBE2220:
.LBE2224:
.LBE2228:
.LBE2263:
	.loc 3 845 0
	stw 31,100(1)
.LBB2264:
.LBB2229:
.LBB2225:
.LBB2221:
.LBB2217:
	.loc 4 357 0
	stw 9,16(1)
.LBE2217:
.LBE2221:
.LBE2225:
.LBE2229:
.LBE2264:
	.loc 3 845 0
	mr 31,4
	.cfi_offset 31, -4
.LBB2265:
.LBB2230:
.LBB2226:
.LBB2222:
.LBB2218:
	.loc 4 358 0
	addi 9,1,20
.LBE2218:
.LBE2222:
.LBE2226:
.LBE2230:
	.loc 3 849 0
	addi 4,1,8
.LVL376:
.LBE2265:
	.loc 3 845 0
	stw 30,96(1)
	mr 30,5
	.cfi_offset 30, -8
	stw 28,88(1)
.LBB2266:
.LBB2231:
.LBB2227:
.LBB2223:
.LBB2219:
	.loc 4 356 0
	stw 0,8(1)
	.loc 4 358 0
	stw 9,12(1)
	.loc 4 359 0
	stb 0,20(1)
.LEHB31:
.LBE2219:
.LBE2223:
.LBE2227:
.LBE2231:
	.loc 3 849 0
	.cfi_offset 28, -16
	bl _ZN7idLexer9ReadTokenEP7idToken
.LVL377:
	cmpwi 7,3,0
	beq- 7,.L306
.LVL378:
.LBB2232:
.LBB2233:
	.loc 4 690 0
	lis 4,.LC96@ha
	lwz 3,12(1)
	la 4,.LC96@l(4)
	bl _ZN5idStr4IcmpEPKcS1_
.LEHE31:
.LBE2233:
.LBE2232:
	.loc 3 854 0
	cmpwi 7,3,0
	bne- 7,.L307
	.loc 3 855 0
	li 0,101
	stw 0,8(30)
.LVL379:
.L306:
.LBB2234:
.LBB2235:
.LBB2236:
.LBB2237:
.LBB2238:
	.loc 4 501 0
	addi 3,1,8
.LEHB32:
	bl _ZN5idStr8FreeDataEv
.LEHE32:
.LVL380:
.L305:
.LBE2238:
.LBE2237:
.LBE2236:
.LBE2235:
.LBE2234:
.LBE2266:
	.loc 3 893 0
	lwz 0,108(1)
	lwz 28,88(1)
	mtlr 0
	lwz 29,92(1)
.LVL381:
	lwz 30,96(1)
.LVL382:
	lwz 31,100(1)
.LVL383:
	addi 1,1,104
	.cfi_remember_state
.LCFI109:
	.cfi_def_cfa_offset 0
	.cfi_restore 31
	.cfi_restore 30
	.cfi_restore 29
	.cfi_restore 28
	blr
.LVL384:
.L307:
.LCFI110:
	.cfi_restore_state
.LBB2267:
.LBB2239:
.LBB2240:
	.loc 4 690 0
	lis 4,.LC97@ha
	lwz 3,12(1)
	la 4,.LC97@l(4)
.LEHB33:
	bl _ZN5idStr4IcmpEPKcS1_
.LBE2240:
.LBE2239:
	.loc 3 858 0
	cmpwi 7,3,0
	bne- 7,.L308
	.loc 3 859 0
	li 0,32
	stw 0,8(30)
	b .L306
.L308:
.LVL385:
.LBB2241:
.LBB2242:
	.loc 4 690 0
	lis 4,.LC98@ha
	lwz 3,12(1)
	la 4,.LC98@l(4)
	bl _ZN5idStr4IcmpEPKcS1_
.LBE2242:
.LBE2241:
	.loc 3 862 0
	cmpwi 7,3,0
	bne- 7,.L325
.L309:
	.loc 3 863 0 discriminator 4
	li 0,3
	stw 0,8(30)
	b .L306
.L325:
.LVL386:
.LBB2243:
.LBB2244:
	.loc 4 690 0 discriminator 2
	lis 4,.LC99@ha
	lwz 3,12(1)
	la 4,.LC99@l(4)
	bl _ZN5idStr4IcmpEPKcS1_
.LBE2244:
.LBE2243:
	.loc 3 862 0 discriminator 2
	cmpwi 7,3,0
	beq- 7,.L309
.LVL387:
.LBB2245:
.LBB2246:
	.loc 4 690 0
	lis 4,.LC104@ha
	lwz 3,12(1)
	la 4,.LC104@l(4)
	bl _ZN5idStr4IcmpEPKcS1_
.LBE2246:
.LBE2245:
	.loc 3 866 0
	cmpwi 7,3,0
	bne- 7,.L326
	.loc 3 868 0
	li 0,33
	stw 0,8(30)
	b .L306
.L326:
.LVL388:
.LBB2247:
.LBB2248:
	.loc 4 690 0
	lis 4,.LC100@ha
	lwz 3,12(1)
	la 4,.LC100@l(4)
	bl _ZN5idStr4IcmpEPKcS1_
.LBE2248:
.LBE2247:
	.loc 3 871 0
	cmpwi 7,3,0
	bne- 7,.L312
	.loc 3 872 0
	li 0,1
	stw 0,4(30)
	b .L306
.L312:
.LVL389:
.LBB2249:
.LBB2250:
	.loc 4 690 0
	lis 4,.LC101@ha
	lwz 3,12(1)
	la 4,.LC101@l(4)
	bl _ZN5idStr4IcmpEPKcS1_
.LBE2250:
.LBE2249:
	.loc 3 875 0
	cmpwi 7,3,0
	bne- 7,.L313
	.loc 3 876 0
	li 0,2
	stw 0,4(30)
	b .L306
.L313:
.LVL390:
.LBB2251:
.LBB2252:
	.loc 4 690 0
	lis 4,.LC102@ha
	lwz 3,12(1)
	la 4,.LC102@l(4)
	bl _ZN5idStr4IcmpEPKcS1_
.LBE2252:
.LBE2251:
	.loc 3 879 0
	cmpwi 7,3,0
	bne- 7,.L314
	.loc 3 880 0
	li 0,3
	stw 0,4(30)
	b .L306
.L314:
	.loc 3 884 0
	mr 3,29
	addi 4,1,8
	bl _ZN10idMaterial18NameToSrcBlendModeERK5idStr
	.loc 3 886 0
	lis 5,.LC103@ha
	.loc 3 884 0
	mr 28,3
.LVL391:
	.loc 3 886 0
	mr 4,31
	mr 3,29
.LVL392:
	la 5,.LC103@l(5)
	bl _ZN10idMaterial10MatchTokenER7idLexerPKc
	.loc 3 887 0
	mr 3,31
	addi 4,1,8
	bl _ZN7idLexer9ReadTokenEP7idToken
	cmpwi 7,3,0
	beq+ 7,.L306
	.loc 3 890 0
	mr 3,29
	addi 4,1,8
	bl _ZN10idMaterial18NameToDstBlendModeERK5idStr
.LEHE33:
.LVL393:
	.loc 3 892 0
	or 3,3,28
.LVL394:
	stw 3,8(30)
.LVL395:
.LBB2253:
.LBB2254:
.LBB2255:
.LBB2256:
.LBB2257:
	.loc 4 501 0
	addi 3,1,8
.LEHB34:
	bl _ZN5idStr8FreeDataEv
.LEHE34:
	b .L305
.LVL396:
.L323:
	mr 31,3
.LVL397:
.LBE2257:
.LBE2256:
.LBE2255:
.LBE2254:
.LBE2253:
.LBB2258:
.LBB2259:
.LBB2260:
.LBB2261:
.LBB2262:
	addi 3,1,8
	bl _ZN5idStr8FreeDataEv
	mr 3,31
.LEHB35:
	bl _Unwind_Resume
.LEHE35:
.LBE2262:
.LBE2261:
.LBE2260:
.LBE2259:
.LBE2258:
.LBE2267:
	.cfi_endproc
.LFE2591:
	.section	.gcc_except_table
.LLSDA2591:
	.byte	0xff
	.byte	0xff
	.byte	0x1
	.uleb128 .LLSDACSE2591-.LLSDACSB2591
.LLSDACSB2591:
	.uleb128 .LEHB31-.LFB2591
	.uleb128 .LEHE31-.LEHB31
	.uleb128 .L323-.LFB2591
	.uleb128 0
	.uleb128 .LEHB32-.LFB2591
	.uleb128 .LEHE32-.LEHB32
	.uleb128 0
	.uleb128 0
	.uleb128 .LEHB33-.LFB2591
	.uleb128 .LEHE33-.LEHB33
	.uleb128 .L323-.LFB2591
	.uleb128 0
	.uleb128 .LEHB34-.LFB2591
	.uleb128 .LEHE34-.LEHB34
	.uleb128 0
	.uleb128 0
	.uleb128 .LEHB35-.LFB2591
	.uleb128 .LEHE35-.LEHB35
	.uleb128 0
	.uleb128 0
.LLSDACSE2591:
	.section	".text"
	.size	_ZN10idMaterial10ParseBlendER7idLexerP13shaderStage_t, .-_ZN10idMaterial10ParseBlendER7idLexerP13shaderStage_t
	.align 2
	.globl _ZN10idMaterial15ParseVertexParmER7idLexerP16newShaderStage_t
	.type	_ZN10idMaterial15ParseVertexParmER7idLexerP16newShaderStage_t, @function
_ZN10idMaterial15ParseVertexParmER7idLexerP16newShaderStage_t:
.LFB2592:
	.loc 3 904 0
	.cfi_startproc
	.cfi_personality 0,__gxx_personality_v0
	.cfi_lsda 0,.LLSDA2592
.LVL398:
	mflr 0
	stwu 1,-112(1)
.LCFI111:
	.cfi_def_cfa_offset 112
	.cfi_register 65, 0
.LVL399:
.LBB2268:
.LBB2269:
.LBB2270:
.LBB2271:
.LBB2272:
	.loc 4 357 0
	li 9,20
.LBE2272:
.LBE2271:
.LBE2270:
.LBE2269:
.LBE2268:
	.loc 3 904 0
	stw 28,96(1)
	mr 28,3
	.cfi_offset 28, -16
	stw 0,116(1)
.LBB2337:
	.loc 3 907 0
	mr 3,4
.LVL400:
.LBB2285:
.LBB2281:
.LBB2277:
.LBB2273:
	.loc 4 356 0
	li 0,0
	.cfi_offset 65, 4
.LBE2273:
.LBE2277:
.LBE2281:
.LBE2285:
.LBE2337:
	.loc 3 904 0
	stw 31,108(1)
.LBB2338:
.LBB2286:
.LBB2282:
.LBB2278:
.LBB2274:
	.loc 4 357 0
	stw 9,16(1)
.LBE2274:
.LBE2278:
.LBE2282:
.LBE2286:
.LBE2338:
	.loc 3 904 0
	mr 31,4
	.cfi_offset 31, -4
.LBB2339:
.LBB2287:
.LBB2283:
.LBB2279:
.LBB2275:
	.loc 4 358 0
	addi 9,1,20
.LBE2275:
.LBE2279:
.LBE2283:
.LBE2287:
	.loc 3 907 0
	addi 4,1,8
.LVL401:
.LBE2339:
	.loc 3 904 0
	stw 29,100(1)
	mr 29,5
	.cfi_offset 29, -12
	stw 27,92(1)
	stw 30,104(1)
.LBB2340:
.LBB2288:
.LBB2284:
.LBB2280:
.LBB2276:
	.loc 4 356 0
	stw 0,8(1)
	.loc 4 358 0
	stw 9,12(1)
	.loc 4 359 0
	stb 0,20(1)
.LEHB36:
.LBE2276:
.LBE2280:
.LBE2284:
.LBE2288:
	.loc 3 907 0
	.cfi_offset 30, -8
	.cfi_offset 27, -20
	bl _ZN7idLexer15ReadTokenOnLineEP7idToken
.LVL402:
.LBB2289:
.LBB2290:
.LBB2291:
	.loc 5 145 0
	lwz 0,40(1)
	li 30,0
	cmpwi 7,0,3
	beq- 7,.L358
.L328:
.LVL403:
.LBE2291:
.LBE2290:
.LBE2289:
.LBB2294:
.LBB2295:
	.loc 4 855 0
	lwz 3,12(1)
	bl _ZN5idStr9IsNumericEPKc
.LBE2295:
.LBE2294:
	.loc 3 909 0
	cmpwi 7,3,0
	bne- 7,.L359
.L330:
	.loc 3 910 0 discriminator 5
	lis 9,common@ha
	lis 4,.LC105@ha
	lwz 3,common@l(9)
	la 4,.LC105@l(4)
	lwz 9,0(3)
	lwz 0,80(9)
	mtctr 0
	crxor 6,6,6
	bctrl
.LEHE36:
.LVL404:
.LBB2296:
.LBB2297:
	.loc 6 488 0
	lwz 0,104(28)
.LBE2297:
.LBE2296:
.LBB2299:
.LBB2300:
.LBB2301:
.LBB2302:
.LBB2303:
	.loc 4 501 0
	addi 3,1,8
.LBE2303:
.LBE2302:
.LBE2301:
.LBE2300:
.LBE2299:
.LBB2320:
.LBB2298:
	.loc 6 488 0
	ori 0,0,1
	stw 0,104(28)
.LVL405:
.LEHB37:
.LBE2298:
.LBE2320:
.LBB2321:
.LBB2316:
.LBB2312:
.LBB2308:
.LBB2304:
	.loc 4 501 0
	bl _ZN5idStr8FreeDataEv
.LEHE37:
.LBE2304:
.LBE2308:
.LBE2312:
.LBE2316:
.LBE2321:
.LBE2340:
	.loc 3 946 0
	lwz 0,116(1)
	lwz 27,92(1)
	mtlr 0
	lwz 28,96(1)
.LVL406:
	lwz 29,100(1)
.LVL407:
	lwz 30,104(1)
.LVL408:
	lwz 31,108(1)
.LVL409:
	addi 1,1,112
	.cfi_remember_state
.LCFI112:
	.cfi_def_cfa_offset 0
	.cfi_restore 31
	.cfi_restore 30
	.cfi_restore 29
	.cfi_restore 28
	.cfi_restore 27
	blr
.LVL410:
.L359:
.LCFI113:
	.cfi_restore_state
.LBB2341:
	.loc 3 909 0 discriminator 2
	cmpwi 7,30,0
	blt- 7,.L330
	.loc 3 909 0 is_stmt 0 discriminator 3
	cmpwi 7,30,3
	bgt- 7,.L330
	.loc 3 914 0 is_stmt 1
	lwz 0,4(29)
	cmpw 7,0,30
	bgt- 7,.L347
	.loc 3 915 0
	addi 0,30,1
	stw 0,4(29)
.L347:
	.loc 3 918 0
	mr 3,28
	mr 4,31
.LEHB38:
	bl _ZN10idMaterial15ParseExpressionER7idLexer
	slwi 30,30,4
.LVL411:
	.loc 3 920 0
	addi 4,1,8
	.loc 3 918 0
	add 9,29,30
	stw 3,8(9)
	.loc 3 920 0
	mr 3,31
	bl _ZN7idLexer15ReadTokenOnLineEP7idToken
.LEHE38:
	.loc 3 921 0
	lwz 3,12(1)
.LVL412:
	lbz 0,0(3)
	cmpwi 7,0,0
	bne- 7,.L360
.L333:
	.loc 3 924 0 discriminator 4
	add 30,29,30
.LBB2322:
.LBB2317:
.LBB2313:
.LBB2309:
.LBB2305:
	.loc 4 501 0 discriminator 4
	addi 3,1,8
.LBE2305:
.LBE2309:
.LBE2313:
.LBE2317:
.LBE2322:
	.loc 3 924 0 discriminator 4
	lwz 0,8(30)
	stw 0,20(30)
	stw 0,16(30)
	stw 0,12(30)
.LVL413:
.LEHB39:
.LBB2323:
.LBB2318:
.LBB2314:
.LBB2310:
.LBB2306:
	.loc 4 501 0 discriminator 4
	bl _ZN5idStr8FreeDataEv
.LEHE39:
.LBE2306:
.LBE2310:
.LBE2314:
.LBE2318:
.LBE2323:
.LBE2341:
	.loc 3 946 0 discriminator 4
	lwz 0,116(1)
	lwz 27,92(1)
	mtlr 0
	lwz 28,96(1)
.LVL414:
	lwz 29,100(1)
.LVL415:
	lwz 30,104(1)
	lwz 31,108(1)
.LVL416:
	addi 1,1,112
	.cfi_remember_state
	.cfi_restore 27
	.cfi_restore 28
	.cfi_restore 29
	.cfi_restore 30
	.cfi_restore 31
.LCFI114:
	.cfi_def_cfa_offset 0
	blr
.LVL417:
.L358:
.LCFI115:
	.cfi_restore_state
.LBB2342:
.LBB2324:
.LBB2293:
.LBB2292:
	.loc 5 148 0
	lwz 0,44(1)
	andis. 9,0,1
	beq- 0,.L361
	.loc 5 149 0
	lwz 30,60(1)
	b .L328
.L361:
	addi 3,1,8
.LEHB40:
	bl _ZN7idToken11NumberValueEv
	lwz 30,60(1)
	b .L328
.LVL418:
.L360:
.LBE2292:
.LBE2293:
.LBE2324:
.LBB2325:
.LBB2326:
	.loc 4 690 0 discriminator 2
	lis 27,.LC103@ha
	la 27,.LC103@l(27)
	mr 4,27
	bl _ZN5idStr4IcmpEPKcS1_
.LBE2326:
.LBE2325:
	.loc 3 921 0 discriminator 2
	cmpwi 7,3,0
	bne- 7,.L333
	.loc 3 928 0
	mr 3,28
	mr 4,31
	bl _ZN10idMaterial15ParseExpressionER7idLexer
	add 9,29,30
	.loc 3 930 0
	addi 4,1,8
	.loc 3 928 0
	stw 3,12(9)
	.loc 3 930 0
	mr 3,31
	bl _ZN7idLexer15ReadTokenOnLineEP7idToken
	.loc 3 931 0
	lwz 3,12(1)
.LVL419:
	lbz 0,0(3)
	cmpwi 7,0,0
	bne- 7,.L362
.L335:
	.loc 3 932 0 discriminator 4
	lis 9,.LC10@ha
	mr 3,28
	lfs 1,.LC10@l(9)
	bl _ZN10idMaterial21GetExpressionConstantEf
	add 9,29,30
	stw 3,16(9)
	.loc 3 933 0 discriminator 4
	lis 9,.LC14@ha
	lfs 1,.LC14@l(9)
	mr 3,28
	bl _ZN10idMaterial21GetExpressionConstantEf
.LEHE40:
.L357:
	.loc 3 945 0
	add 30,29,30
	stw 3,20(30)
.LVL420:
.LBB2327:
.LBB2319:
.LBB2315:
.LBB2311:
.LBB2307:
	.loc 4 501 0
	addi 3,1,8
.LEHB41:
	bl _ZN5idStr8FreeDataEv
.LEHE41:
.LBE2307:
.LBE2311:
.LBE2315:
.LBE2319:
.LBE2327:
.LBE2342:
	.loc 3 946 0
	lwz 0,116(1)
	lwz 27,92(1)
	mtlr 0
	lwz 28,96(1)
.LVL421:
	lwz 29,100(1)
.LVL422:
	lwz 30,104(1)
	lwz 31,108(1)
.LVL423:
	addi 1,1,112
	.cfi_remember_state
	.cfi_restore 27
	.cfi_restore 28
	.cfi_restore 29
	.cfi_restore 30
	.cfi_restore 31
.LCFI116:
	.cfi_def_cfa_offset 0
	blr
.LVL424:
.L362:
.LCFI117:
	.cfi_restore_state
.LBB2343:
.LBB2328:
.LBB2329:
	.loc 4 690 0 discriminator 2
	mr 4,27
.LEHB42:
	bl _ZN5idStr4IcmpEPKcS1_
.LBE2329:
.LBE2328:
	.loc 3 931 0 discriminator 2
	cmpwi 7,3,0
	bne- 7,.L335
	.loc 3 937 0
	mr 3,28
	mr 4,31
	bl _ZN10idMaterial15ParseExpressionER7idLexer
	add 9,29,30
	.loc 3 939 0
	addi 4,1,8
	.loc 3 937 0
	stw 3,16(9)
	.loc 3 939 0
	mr 3,31
	bl _ZN7idLexer15ReadTokenOnLineEP7idToken
	.loc 3 940 0
	lwz 3,12(1)
.LVL425:
	lbz 0,0(3)
	cmpwi 7,0,0
	bne- 7,.L363
.L337:
	.loc 3 941 0 discriminator 4
	lis 9,.LC14@ha
	mr 3,28
	lfs 1,.LC14@l(9)
	bl _ZN10idMaterial21GetExpressionConstantEf
	b .L357
.L363:
.LVL426:
.LBB2330:
.LBB2331:
	.loc 4 690 0 discriminator 2
	mr 4,27
	bl _ZN5idStr4IcmpEPKcS1_
.LBE2331:
.LBE2330:
	.loc 3 940 0 discriminator 2
	cmpwi 7,3,0
	bne- 7,.L337
	.loc 3 945 0
	mr 3,28
	mr 4,31
	bl _ZN10idMaterial15ParseExpressionER7idLexer
.LEHE42:
	b .L357
.LVL427:
.L352:
	mr 31,3
.LVL428:
.LBB2332:
.LBB2333:
.LBB2334:
.LBB2335:
.LBB2336:
	.loc 4 501 0
	addi 3,1,8
	bl _ZN5idStr8FreeDataEv
	mr 3,31
.LEHB43:
	bl _Unwind_Resume
.LEHE43:
.LBE2336:
.LBE2335:
.LBE2334:
.LBE2333:
.LBE2332:
.LBE2343:
	.cfi_endproc
.LFE2592:
	.section	.gcc_except_table
.LLSDA2592:
	.byte	0xff
	.byte	0xff
	.byte	0x1
	.uleb128 .LLSDACSE2592-.LLSDACSB2592
.LLSDACSB2592:
	.uleb128 .LEHB36-.LFB2592
	.uleb128 .LEHE36-.LEHB36
	.uleb128 .L352-.LFB2592
	.uleb128 0
	.uleb128 .LEHB37-.LFB2592
	.uleb128 .LEHE37-.LEHB37
	.uleb128 0
	.uleb128 0
	.uleb128 .LEHB38-.LFB2592
	.uleb128 .LEHE38-.LEHB38
	.uleb128 .L352-.LFB2592
	.uleb128 0
	.uleb128 .LEHB39-.LFB2592
	.uleb128 .LEHE39-.LEHB39
	.uleb128 0
	.uleb128 0
	.uleb128 .LEHB40-.LFB2592
	.uleb128 .LEHE40-.LEHB40
	.uleb128 .L352-.LFB2592
	.uleb128 0
	.uleb128 .LEHB41-.LFB2592
	.uleb128 .LEHE41-.LEHB41
	.uleb128 0
	.uleb128 0
	.uleb128 .LEHB42-.LFB2592
	.uleb128 .LEHE42-.LEHB42
	.uleb128 .L352-.LFB2592
	.uleb128 0
	.uleb128 .LEHB43-.LFB2592
	.uleb128 .LEHE43-.LEHB43
	.uleb128 0
	.uleb128 0
.LLSDACSE2592:
	.section	".text"
	.size	_ZN10idMaterial15ParseVertexParmER7idLexerP16newShaderStage_t, .-_ZN10idMaterial15ParseVertexParmER7idLexerP16newShaderStage_t
	.align 2
	.globl _ZN10idMaterial16ParseFragmentMapER7idLexerP16newShaderStage_t
	.type	_ZN10idMaterial16ParseFragmentMapER7idLexerP16newShaderStage_t, @function
_ZN10idMaterial16ParseFragmentMapER7idLexerP16newShaderStage_t:
.LFB2593:
	.loc 3 954 0
	.cfi_startproc
	.cfi_personality 0,__gxx_personality_v0
	.cfi_lsda 0,.LLSDA2593
.LVL429:
	mflr 0
	stwu 1,-152(1)
.LCFI118:
	.cfi_def_cfa_offset 152
	.cfi_register 65, 0
.LVL430:
.LBB2344:
.LBB2345:
.LBB2346:
.LBB2347:
.LBB2348:
	.loc 4 357 0
	li 9,20
.LBE2348:
.LBE2347:
.LBE2346:
.LBE2345:
.LBE2344:
	.loc 3 954 0
	stw 30,144(1)
	mr 30,3
	.cfi_offset 30, -8
	stw 0,156(1)
.LBB2449:
	.loc 3 969 0
	mr 3,4
.LVL431:
.LBB2361:
.LBB2357:
.LBB2353:
.LBB2349:
	.loc 4 356 0
	li 0,0
	.cfi_offset 65, 4
.LBE2349:
.LBE2353:
.LBE2357:
.LBE2361:
.LBE2449:
	.loc 3 954 0
	stw 31,148(1)
.LBB2450:
.LBB2362:
.LBB2358:
.LBB2354:
.LBB2350:
	.loc 4 357 0
	stw 9,16(1)
.LBE2350:
.LBE2354:
.LBE2358:
.LBE2362:
.LBE2450:
	.loc 3 954 0
	mr 31,4
	.cfi_offset 31, -4
.LBB2451:
.LBB2363:
.LBB2359:
.LBB2355:
.LBB2351:
	.loc 4 358 0
	addi 9,1,20
.LBE2351:
.LBE2355:
.LBE2359:
.LBE2363:
	.loc 3 969 0
	addi 4,1,8
.LVL432:
.LBE2451:
	.loc 3 954 0
	stw 21,108(1)
	mr 21,5
	.cfi_offset 21, -44
	stw 17,92(1)
	stw 18,96(1)
	stw 19,100(1)
	stw 20,104(1)
	stw 22,112(1)
	stw 23,116(1)
	stw 24,120(1)
	stw 25,124(1)
	stw 26,128(1)
	stw 27,132(1)
	stw 28,136(1)
	stw 29,140(1)
.LBB2452:
.LBB2364:
.LBB2360:
.LBB2356:
.LBB2352:
	.loc 4 356 0
	stw 0,8(1)
	.loc 4 358 0
	stw 9,12(1)
	.loc 4 359 0
	stb 0,20(1)
.LVL433:
.LEHB44:
.LBE2352:
.LBE2356:
.LBE2360:
.LBE2364:
	.loc 3 969 0
	.cfi_offset 29, -12
	.cfi_offset 28, -16
	.cfi_offset 27, -20
	.cfi_offset 26, -24
	.cfi_offset 25, -28
	.cfi_offset 24, -32
	.cfi_offset 23, -36
	.cfi_offset 22, -40
	.cfi_offset 20, -48
	.cfi_offset 19, -52
	.cfi_offset 18, -56
	.cfi_offset 17, -60
	bl _ZN7idLexer15ReadTokenOnLineEP7idToken
.LVL434:
.LBB2365:
.LBB2366:
.LBB2367:
	.loc 5 145 0
	lwz 0,40(1)
	li 22,0
	cmpwi 7,0,3
	bne- 7,.L365
	.loc 5 148 0
	lwz 0,44(1)
	andis. 9,0,1
	beq- 0,.L404
.L366:
	.loc 5 149 0
	lwz 22,60(1)
.L365:
.LVL435:
.LBE2367:
.LBE2366:
.LBE2365:
.LBB2370:
.LBB2371:
	.loc 4 855 0
	lwz 3,12(1)
	bl _ZN5idStr9IsNumericEPKc
.LBE2371:
.LBE2370:
	.loc 3 971 0
	cmpwi 7,3,0
	bne- 7,.L405
.L367:
	.loc 3 972 0 discriminator 5
	lis 9,common@ha
	lis 4,.LC106@ha
	lwz 3,common@l(9)
	la 4,.LC106@l(4)
	lwz 9,0(3)
	lwz 0,80(9)
	mtctr 0
	crxor 6,6,6
	bctrl
.LEHE44:
.LVL436:
.LBB2372:
.LBB2373:
	.loc 6 488 0
	lwz 0,104(30)
.LBE2373:
.LBE2372:
.LBB2375:
.LBB2376:
.LBB2377:
.LBB2378:
.LBB2379:
	.loc 4 501 0
	addi 3,1,8
.LBE2379:
.LBE2378:
.LBE2377:
.LBE2376:
.LBE2375:
.LBB2384:
.LBB2374:
	.loc 6 488 0
	ori 0,0,1
	stw 0,104(30)
.LVL437:
.LEHB45:
.LBE2374:
.LBE2384:
.LBB2385:
.LBB2383:
.LBB2382:
.LBB2381:
.LBB2380:
	.loc 4 501 0
	bl _ZN5idStr8FreeDataEv
.LEHE45:
.LVL438:
.L364:
.LBE2380:
.LBE2381:
.LBE2382:
.LBE2383:
.LBE2385:
.LBE2452:
	.loc 3 1048 0
	lwz 0,156(1)
	lwz 17,92(1)
	mtlr 0
	lwz 18,96(1)
	lwz 19,100(1)
	lwz 20,104(1)
	lwz 21,108(1)
.LVL439:
	lwz 22,112(1)
.LVL440:
	lwz 23,116(1)
	lwz 24,120(1)
	lwz 25,124(1)
	lwz 26,128(1)
	lwz 27,132(1)
	lwz 28,136(1)
	lwz 29,140(1)
	lwz 30,144(1)
	lwz 31,148(1)
	addi 1,1,152
	.cfi_remember_state
.LCFI119:
	.cfi_def_cfa_offset 0
	.cfi_restore 31
	.cfi_restore 30
	.cfi_restore 29
	.cfi_restore 28
	.cfi_restore 27
	.cfi_restore 26
	.cfi_restore 25
	.cfi_restore 24
	.cfi_restore 23
	.cfi_restore 22
	.cfi_restore 21
	.cfi_restore 20
	.cfi_restore 19
	.cfi_restore 18
	.cfi_restore 17
	blr
.LVL441:
.L405:
.LCFI120:
	.cfi_restore_state
.LBB2453:
	.loc 3 971 0 discriminator 2
	cmpwi 7,22,0
	blt- 7,.L367
	.loc 3 971 0 is_stmt 0 discriminator 3
	cmpwi 7,22,7
	bgt- 7,.L367
	.loc 3 982 0 is_stmt 1
	lwz 0,76(21)
	.loc 3 965 0
	xori 20,22,1
	cntlzw 20,20
	.loc 3 982 0
	cmpw 7,22,0
	.loc 3 965 0
	srwi 20,20,5
	addi 20,20,2
.LVL442:
	.loc 3 982 0
	blt- 7,.L370
	.loc 3 983 0
	addi 0,22,1
	stw 0,76(21)
.L370:
.LBB2386:
.LBB2387:
	.loc 4 690 0
	lis 30,.LC107@ha
.LVL443:
.LBE2387:
.LBE2386:
.LBB2390:
.LBB2391:
	lis 28,.LC108@ha
.LBE2391:
.LBE2390:
.LBB2394:
.LBB2395:
	lis 27,.LC30@ha
.LBE2395:
.LBE2394:
.LBB2398:
.LBB2399:
	lis 25,.LC109@ha
.LBE2399:
.LBE2398:
.LBB2402:
.LBB2403:
	lis 23,.LC110@ha
.LBE2403:
.LBE2402:
.LBB2406:
.LBB2407:
	lis 19,.LC111@ha
.LBE2407:
.LBE2406:
	.loc 3 1033 0
	li 18,1
	li 29,0
	li 24,0
	li 26,2
.LBB2410:
.LBB2388:
	.loc 4 690 0
	la 30,.LC107@l(30)
.LBE2388:
.LBE2410:
.LBB2411:
.LBB2392:
	la 28,.LC108@l(28)
.LBE2392:
.LBE2411:
.LBB2412:
.LBB2396:
	la 27,.LC30@l(27)
.LBE2396:
.LBE2412:
.LBB2413:
.LBB2400:
	la 25,.LC109@l(25)
.LBE2400:
.LBE2413:
.LBB2414:
.LBB2404:
	la 23,.LC110@l(23)
.LBE2404:
.LBE2414:
.LBB2415:
.LBB2408:
	la 19,.LC111@l(19)
.LBE2408:
.LBE2415:
.LBB2416:
.LBB2417:
	lis 17,.LC112@ha
.LVL444:
.L400:
.LBE2417:
.LBE2416:
	.loc 3 987 0
	mr 3,31
	addi 4,1,8
.LEHB46:
	bl _ZN7idLexer15ReadTokenOnLineEP7idToken
.L407:
.LVL445:
.LBB2419:
.LBB2389:
	.loc 4 690 0
	lwz 3,12(1)
	mr 4,30
	bl _ZN5idStr4IcmpEPKcS1_
.LBE2389:
.LBE2419:
	.loc 3 989 0
	cmpwi 7,3,0
	bne- 7,.L406
	.loc 3 987 0
	mr 3,31
	addi 4,1,8
	.loc 3 990 0
	li 29,1
	.loc 3 987 0
	bl _ZN7idLexer15ReadTokenOnLineEP7idToken
	b .L407
.L406:
.LVL446:
.LBB2420:
.LBB2393:
	.loc 4 690 0
	lwz 3,12(1)
	mr 4,28
	bl _ZN5idStr4IcmpEPKcS1_
.LBE2393:
.LBE2420:
	.loc 3 993 0
	cmpwi 7,3,0
	bne- 7,.L408
	.loc 3 994 0
	li 29,2
	b .L400
.L408:
.LVL447:
.LBB2421:
.LBB2397:
	.loc 4 690 0
	lwz 3,12(1)
	mr 4,27
	bl _ZN5idStr4IcmpEPKcS1_
.LBE2397:
.LBE2421:
	.loc 3 997 0
	cmpwi 7,3,0
	bne- 7,.L409
	.loc 3 998 0
	li 26,1
	b .L400
.L409:
.LVL448:
.LBB2422:
.LBB2401:
	.loc 4 690 0
	lwz 3,12(1)
	mr 4,25
	bl _ZN5idStr4IcmpEPKcS1_
.LBE2401:
.LBE2422:
	.loc 3 1001 0
	cmpwi 7,3,0
	bne- 7,.L410
	.loc 3 1002 0
	li 26,0
	b .L400
.L410:
.LVL449:
.LBB2423:
.LBB2405:
	.loc 4 690 0
	lwz 3,12(1)
	mr 4,23
	bl _ZN5idStr4IcmpEPKcS1_
.LBE2405:
.LBE2423:
	.loc 3 1005 0
	cmpwi 7,3,0
	bne- 7,.L411
	.loc 3 1006 0
	li 24,1
	b .L400
.L411:
.LVL450:
.LBB2424:
.LBB2409:
	.loc 4 690 0
	lwz 3,12(1)
	mr 4,19
	bl _ZN5idStr4IcmpEPKcS1_
.LBE2409:
.LBE2424:
	.loc 3 1009 0
	cmpwi 7,3,0
	bne- 7,.L412
	.loc 3 1010 0
	li 24,0
	b .L400
.L412:
.LVL451:
.LBB2425:
.LBB2418:
	.loc 4 690 0
	lwz 3,12(1)
	la 4,.LC112@l(17)
	bl _ZN5idStr4IcmpEPKcS1_
.LBE2418:
.LBE2425:
	.loc 3 1013 0
	cmpwi 7,3,0
	bne- 7,.L413
	.loc 3 1014 0
	li 24,3
	b .L400
.L413:
.LVL452:
.LBB2426:
.LBB2427:
	.loc 4 690 0
	lis 4,.LC113@ha
	lwz 3,12(1)
	la 4,.LC113@l(4)
	bl _ZN5idStr4IcmpEPKcS1_
.LBE2427:
.LBE2426:
	.loc 3 1017 0
	cmpwi 7,3,0
	bne- 7,.L414
	.loc 3 1018 0
	li 24,4
	b .L400
.L414:
.LVL453:
.LBB2428:
.LBB2429:
	.loc 4 690 0
	lis 4,.LC114@ha
	lwz 3,12(1)
	la 4,.LC114@l(4)
	bl _ZN5idStr4IcmpEPKcS1_
.LBE2429:
.LBE2428:
	.loc 3 1021 0
	cmpwi 7,3,0
	bne- 7,.L415
	.loc 3 1028 0
	li 20,4
	b .L400
.L415:
.LVL454:
.LBB2430:
.LBB2431:
	.loc 4 690 0
	lis 4,.LC115@ha
	lwz 3,12(1)
	la 4,.LC115@l(4)
	bl _ZN5idStr4IcmpEPKcS1_
.LBE2431:
.LBE2430:
	.loc 3 1026 0
	cmpwi 7,3,0
	bne- 7,.L416
.L374:
.LBB2432:
.LBB2433:
	.loc 3 1027 0 discriminator 4
	lis 9,_ZN14idImageManager23image_ignoreHighQualityE+44@ha
	.file 7 "d:/Data/Nintendo/DoomGX/src/renderer/../idlib/../framework/CVarSystem.h"
	.loc 7 143 0 discriminator 4
	lwz 9,_ZN14idImageManager23image_ignoreHighQualityE+44@l(9)
.LBE2433:
.LBE2432:
	.loc 3 1027 0 discriminator 4
	lwz 0,36(9)
	cmpwi 7,0,0
	bne- 7,.L400
	.loc 3 1028 0
	li 20,4
	b .L400
.LVL455:
.L404:
.LBB2434:
.LBB2369:
.LBB2368:
	.loc 5 149 0
	addi 3,1,8
	bl _ZN7idToken11NumberValueEv
.LEHE46:
	b .L366
.LVL456:
.L399:
	mr 31,3
.LVL457:
.LBE2368:
.LBE2369:
.LBE2434:
.LBB2435:
.LBB2436:
.LBB2437:
.LBB2438:
.LBB2439:
	.loc 4 501 0
	addi 3,1,8
	bl _ZN5idStr8FreeDataEv
	mr 3,31
.LEHB47:
	bl _Unwind_Resume
.LEHE47:
.LVL458:
.L416:
.LBE2439:
.LBE2438:
.LBE2437:
.LBE2436:
.LBE2435:
.LBB2440:
.LBB2441:
	.loc 4 690 0 discriminator 2
	lis 4,.LC116@ha
	lwz 3,12(1)
	la 4,.LC116@l(4)
.LEHB48:
	bl _ZN5idStr4IcmpEPKcS1_
.LBE2441:
.LBE2440:
	.loc 3 1026 0 discriminator 2
	cmpwi 7,3,0
	beq- 7,.L374
.LVL459:
.LBB2442:
.LBB2443:
	.loc 4 690 0
	lis 4,.LC117@ha
	lwz 3,12(1)
	la 4,.LC117@l(4)
	bl _ZN5idStr4IcmpEPKcS1_
.LBE2443:
.LBE2442:
	.loc 3 1032 0
	cmpwi 7,3,0
	bne- 7,.L417
	.loc 3 1033 0
	li 18,0
	b .L400
.L417:
	.loc 3 1038 0
	mr 3,31
	addi 4,1,8
	bl _ZN7idLexer11UnreadTokenEPK7idToken
	.loc 3 1041 0
	mr 3,31
	bl _Z23R_ParsePastImageProgramR7idLexer
	.loc 3 1044 0
	lis 31,globalImages@ha
.LVL460:
	.loc 3 1041 0
	mr 4,3
.LVL461:
	.loc 3 1044 0
	lwz 3,globalImages@l(31)
.LVL462:
	mr 5,26
	mr 6,18
	mr 7,24
	mr 8,20
	mr 9,29
	bl _ZN14idImageManager13ImageFromFileEPKc15textureFilter_tb15textureRepeat_t14textureDepth_t11cubeFiles_t
.LEHE48:
.LVL463:
	.loc 3 1045 0 discriminator 1
	cmpwi 7,3,0
	.loc 3 1044 0 discriminator 1
	addi 0,22,20
	slwi 0,0,2
	stwx 3,21,0
	.loc 3 1045 0 discriminator 1
	bne+ 7,.L376
	.loc 3 1046 0
	lwz 9,globalImages@l(31)
	lwz 9,0(9)
	stwx 9,21,0
.L376:
.LVL464:
.LBB2444:
.LBB2445:
.LBB2446:
.LBB2447:
.LBB2448:
	.loc 4 501 0
	addi 3,1,8
.LEHB49:
	bl _ZN5idStr8FreeDataEv
.LEHE49:
	b .L364
.LBE2448:
.LBE2447:
.LBE2446:
.LBE2445:
.LBE2444:
.LBE2453:
	.cfi_endproc
.LFE2593:
	.section	.gcc_except_table
.LLSDA2593:
	.byte	0xff
	.byte	0xff
	.byte	0x1
	.uleb128 .LLSDACSE2593-.LLSDACSB2593
.LLSDACSB2593:
	.uleb128 .LEHB44-.LFB2593
	.uleb128 .LEHE44-.LEHB44
	.uleb128 .L399-.LFB2593
	.uleb128 0
	.uleb128 .LEHB45-.LFB2593
	.uleb128 .LEHE45-.LEHB45
	.uleb128 0
	.uleb128 0
	.uleb128 .LEHB46-.LFB2593
	.uleb128 .LEHE46-.LEHB46
	.uleb128 .L399-.LFB2593
	.uleb128 0
	.uleb128 .LEHB47-.LFB2593
	.uleb128 .LEHE47-.LEHB47
	.uleb128 0
	.uleb128 0
	.uleb128 .LEHB48-.LFB2593
	.uleb128 .LEHE48-.LEHB48
	.uleb128 .L399-.LFB2593
	.uleb128 0
	.uleb128 .LEHB49-.LFB2593
	.uleb128 .LEHE49-.LEHB49
	.uleb128 0
	.uleb128 0
.LLSDACSE2593:
	.section	".text"
	.size	_ZN10idMaterial16ParseFragmentMapER7idLexerP16newShaderStage_t, .-_ZN10idMaterial16ParseFragmentMapER7idLexerP16newShaderStage_t
	.align 2
	.globl _ZN10idMaterial21MultiplyTextureMatrixEP14textureStage_tPA3_i
	.type	_ZN10idMaterial21MultiplyTextureMatrixEP14textureStage_tPA3_i, @function
_ZN10idMaterial21MultiplyTextureMatrixEP14textureStage_tPA3_i:
.LFB2594:
	.loc 3 1055 0
	.cfi_startproc
.LVL465:
	mflr 0
	stwu 1,-48(1)
.LCFI121:
	.cfi_def_cfa_offset 48
	.cfi_register 65, 0
	stw 29,36(1)
	mr 29,4
	.cfi_offset 29, -12
	stw 30,40(1)
	mr 30,5
	.cfi_offset 30, -8
	stw 31,44(1)
	mr 31,3
	.cfi_offset 31, -4
	stw 0,52(1)
	stw 22,8(1)
	stw 23,12(1)
	stw 24,16(1)
	stw 25,20(1)
	stw 26,24(1)
	stw 27,28(1)
	stw 28,32(1)
	.loc 3 2840 0
	lwz 3,4(3)
.LVL466:
.LBB2462:
.LBB2463:
.LBB2464:
	.loc 2 162 0
	lwz 9,0(3)
	lwz 0,36(9)
	.cfi_offset 28, -16
	.cfi_offset 27, -20
	.cfi_offset 26, -24
	.cfi_offset 25, -28
	.cfi_offset 24, -32
	.cfi_offset 23, -36
	.cfi_offset 22, -40
	.cfi_offset 65, 4
	mtctr 0
	bctrl
.LVL467:
.LBE2464:
.LBE2463:
	.loc 3 1060 0
	lbz 0,12(29)
	cmpwi 7,0,0
	beq- 7,.L421
.LVL468:
.LBE2462:
.LBB2465:
	.loc 3 1066 0
	lwz 25,16(29)
.LVL469:
.LBB2466:
	.loc 3 1071 0
	li 6,2
	lwz 5,0(30)
	mr 3,31
.LBE2466:
	.loc 3 1066 0
	lwz 26,20(29)
.LVL470:
.LBB2467:
	.loc 3 1071 0
	mr 4,25
.LBE2467:
	.loc 3 1066 0
	lwz 27,28(29)
	lwz 28,32(29)
	lwz 23,24(29)
.LVL471:
	lwz 24,36(29)
.LVL472:
.LBB2468:
	.loc 3 1071 0
	bl _ZN10idMaterial6EmitOpEii11expOpType_t
.LVL473:
	lwz 5,12(30)
	mr 22,3
	mr 4,26
	mr 3,31
	li 6,2
	bl _ZN10idMaterial6EmitOpEii11expOpType_t
	mr 4,22
	mr 5,3
	li 6,0
	mr 3,31
	bl _ZN10idMaterial6EmitOpEii11expOpType_t
	.loc 3 1074 0
	mr 4,25
	.loc 3 1071 0
	stw 3,16(29)
	.loc 3 1074 0
	li 6,2
	mr 3,31
	lwz 5,4(30)
	bl _ZN10idMaterial6EmitOpEii11expOpType_t
	lwz 5,16(30)
	mr 22,3
	mr 4,26
	mr 3,31
	li 6,2
	bl _ZN10idMaterial6EmitOpEii11expOpType_t
	mr 4,22
	mr 5,3
	li 6,0
	mr 3,31
	bl _ZN10idMaterial6EmitOpEii11expOpType_t
	.loc 3 1079 0
	mr 4,25
	.loc 3 1074 0
	stw 3,20(29)
	.loc 3 1079 0
	li 6,2
	mr 3,31
	lwz 5,8(30)
	bl _ZN10idMaterial6EmitOpEii11expOpType_t
	lwz 5,20(30)
	mr 25,3
.LVL474:
	mr 4,26
	mr 3,31
	li 6,2
	bl _ZN10idMaterial6EmitOpEii11expOpType_t
	mr 4,25
	mr 5,3
	li 6,0
	mr 3,31
	bl _ZN10idMaterial6EmitOpEii11expOpType_t
	mr 5,23
	mr 4,3
	li 6,0
	mr 3,31
	bl _ZN10idMaterial6EmitOpEii11expOpType_t
	.loc 3 1083 0
	mr 4,27
	.loc 3 1079 0
	stw 3,24(29)
	.loc 3 1083 0
	li 6,2
	mr 3,31
	lwz 5,0(30)
	bl _ZN10idMaterial6EmitOpEii11expOpType_t
	lwz 5,12(30)
	mr 26,3
.LVL475:
	mr 4,28
	mr 3,31
	li 6,2
	bl _ZN10idMaterial6EmitOpEii11expOpType_t
	mr 4,26
	mr 5,3
	li 6,0
	mr 3,31
	bl _ZN10idMaterial6EmitOpEii11expOpType_t
	.loc 3 1086 0
	mr 4,27
	.loc 3 1083 0
	stw 3,28(29)
	.loc 3 1086 0
	li 6,2
	mr 3,31
	lwz 5,4(30)
	bl _ZN10idMaterial6EmitOpEii11expOpType_t
	lwz 5,16(30)
	mr 26,3
	mr 4,28
	mr 3,31
	li 6,2
	bl _ZN10idMaterial6EmitOpEii11expOpType_t
	mr 4,26
	mr 5,3
	li 6,0
	mr 3,31
	bl _ZN10idMaterial6EmitOpEii11expOpType_t
	.loc 3 1091 0
	mr 4,27
	.loc 3 1086 0
	stw 3,32(29)
	.loc 3 1091 0
	li 6,2
	mr 3,31
	lwz 5,8(30)
	bl _ZN10idMaterial6EmitOpEii11expOpType_t
	lwz 5,20(30)
	mr 27,3
.LVL476:
	mr 4,28
	mr 3,31
	li 6,2
	bl _ZN10idMaterial6EmitOpEii11expOpType_t
	mr 4,27
	mr 5,3
	li 6,0
	mr 3,31
	bl _ZN10idMaterial6EmitOpEii11expOpType_t
	mr 5,24
	mr 4,3
	li 6,0
	mr 3,31
	bl _ZN10idMaterial6EmitOpEii11expOpType_t
	stw 3,36(29)
.LBE2468:
.LBE2465:
	.loc 3 1093 0
	lwz 0,52(1)
	lwz 22,8(1)
	mtlr 0
	lwz 23,12(1)
.LVL477:
	lwz 24,16(1)
.LVL478:
	lwz 25,20(1)
	lwz 26,24(1)
	lwz 27,28(1)
	lwz 28,32(1)
.LVL479:
	lwz 29,36(1)
.LVL480:
	lwz 30,40(1)
.LVL481:
	lwz 31,44(1)
.LVL482:
	addi 1,1,48
	.cfi_remember_state
.LCFI122:
	.cfi_def_cfa_offset 0
	.cfi_restore 31
	.cfi_restore 30
	.cfi_restore 29
	.cfi_restore 28
	.cfi_restore 27
	.cfi_restore 26
	.cfi_restore 25
	.cfi_restore 24
	.cfi_restore 23
	.cfi_restore 22
	blr
.LVL483:
.L421:
.LCFI123:
	.cfi_restore_state
.LBB2469:
	.loc 3 1061 0
	li 0,1
	stb 0,12(29)
	.loc 3 1062 0
	lwz 11,8(30)
	lwz 0,12(30)
	lwz 8,0(30)
	lwz 10,4(30)
	stw 8,16(29)
	stw 10,20(29)
	stw 11,24(29)
	stw 0,28(29)
	lwz 0,20(30)
	lwz 11,16(30)
	stw 0,36(29)
	stw 11,32(29)
.LBE2469:
	.loc 3 1093 0
	lwz 0,52(1)
	lwz 22,8(1)
	mtlr 0
	lwz 23,12(1)
	lwz 24,16(1)
	lwz 25,20(1)
	lwz 26,24(1)
	lwz 27,28(1)
	lwz 28,32(1)
	lwz 29,36(1)
.LVL484:
	lwz 30,40(1)
.LVL485:
	lwz 31,44(1)
.LVL486:
	addi 1,1,48
	.cfi_restore 22
	.cfi_restore 23
	.cfi_restore 24
	.cfi_restore 25
	.cfi_restore 26
	.cfi_restore 27
	.cfi_restore 28
	.cfi_restore 29
	.cfi_restore 30
	.cfi_restore 31
.LCFI124:
	.cfi_def_cfa_offset 0
	blr
	.cfi_endproc
.LFE2594:
	.size	_ZN10idMaterial21MultiplyTextureMatrixEP14textureStage_tPA3_i, .-_ZN10idMaterial21MultiplyTextureMatrixEP14textureStage_tPA3_i
	.align 2
	.globl _ZN10idMaterial10ParseStageER7idLexer15textureRepeat_t
	.type	_ZN10idMaterial10ParseStageER7idLexer15textureRepeat_t, @function
_ZN10idMaterial10ParseStageER7idLexer15textureRepeat_t:
.LFB2595:
	.loc 3 1111 0
	.cfi_startproc
	.cfi_personality 0,__gxx_personality_v0
	.cfi_lsda 0,.LLSDA2595
.LVL487:
	mflr 0
	stwu 1,-584(1)
.LCFI125:
	.cfi_def_cfa_offset 584
	.cfi_register 65, 0
.LVL488:
	stw 18,528(1)
	mr 18,5
	.cfi_offset 18, -56
	stw 0,588(1)
.LBB2655:
.LBB2656:
.LBB2657:
.LBB2658:
.LBB2659:
	.loc 4 356 0
	li 0,0
	.cfi_offset 65, 4
.LBE2659:
.LBE2658:
.LBE2657:
.LBE2656:
.LBE2655:
	.loc 3 1111 0
	stw 29,572(1)
	mr 29,3
	.cfi_offset 29, -12
	stw 30,576(1)
	mr 30,4
	.cfi_offset 30, -8
	stw 14,512(1)
	stw 15,516(1)
	stw 16,520(1)
	stw 17,524(1)
	stw 19,532(1)
	stw 20,536(1)
	stw 21,540(1)
	stw 22,544(1)
	stw 23,548(1)
	stw 24,552(1)
	stw 25,556(1)
	stw 26,560(1)
	stw 27,564(1)
	stw 28,568(1)
	stw 31,580(1)
.LBB2936:
.LBB2669:
.LBB2666:
.LBB2663:
.LBB2660:
	.loc 4 356 0
	stw 0,32(1)
.LBE2660:
.LBE2663:
.LBE2666:
.LBE2669:
	.loc 3 1126 0
	lwz 9,228(3)
.LBB2670:
.LBB2667:
.LBB2664:
.LBB2661:
	.loc 4 359 0
	stb 0,44(1)
.LBE2661:
.LBE2664:
.LBE2667:
.LBE2670:
	.loc 3 1126 0
	cmpwi 7,9,255
.LBB2671:
.LBB2668:
.LBB2665:
.LBB2662:
	.loc 4 357 0
	li 9,20
	stw 9,40(1)
	.loc 4 358 0
	addi 9,1,44
	stw 9,36(1)
.LBE2662:
.LBE2665:
.LBE2668:
.LBE2671:
	.loc 3 1126 0
	ble- 7,.L423
	.cfi_offset 31, -4
	.cfi_offset 28, -16
	.cfi_offset 27, -20
	.cfi_offset 26, -24
	.cfi_offset 25, -28
	.cfi_offset 24, -32
	.cfi_offset 23, -36
	.cfi_offset 22, -40
	.cfi_offset 21, -44
	.cfi_offset 20, -48
	.cfi_offset 19, -52
	.cfi_offset 17, -60
	.cfi_offset 16, -64
	.cfi_offset 15, -68
	.cfi_offset 14, -72
.LVL489:
.LBB2672:
.LBB2673:
	.loc 6 488 0
	lwz 0,104(3)
.LBE2673:
.LBE2672:
	.loc 3 1128 0
	lis 11,common@ha
	.loc 3 2840 0
	lwz 3,4(3)
.LVL490:
	addi 31,1,32
.LBB2676:
.LBB2674:
	.loc 6 488 0
	ori 0,0,1
.LBE2674:
.LBE2676:
	.loc 3 1128 0
	lwz 28,common@l(11)
.LBB2677:
.LBB2675:
	.loc 6 488 0
	stw 0,104(29)
.LBE2675:
.LBE2677:
.LBB2678:
.LBB2679:
	.loc 2 140 0
	lwz 9,0(3)
	lwz 0,8(9)
.LBE2679:
.LBE2678:
	.loc 3 1128 0
	lwz 9,0(28)
.LBB2683:
.LBB2680:
	.loc 2 140 0
	mtctr 0
.LBE2680:
.LBE2683:
	.loc 3 1128 0
	lwz 27,80(9)
.LEHB50:
.LBB2684:
.LBB2681:
	.loc 2 140 0
	bctrl
.LVL491:
.LBE2681:
.LBE2684:
	.loc 3 1128 0
	lis 4,.LC118@ha
.LBB2685:
.LBB2682:
	.loc 2 140 0
	mr 5,3
.LBE2682:
.LBE2685:
	.loc 3 1128 0
	la 4,.LC118@l(4)
	mr 3,28
	li 6,256
	mtctr 27
	addi 31,1,32
	crxor 6,6,6
	bctrl
.LVL492:
.L423:
	.loc 3 1137 0
	li 0,0
	.loc 3 1139 0
	li 4,0
	addi 3,1,112
	li 5,116
	.loc 3 1137 0
	stb 0,228(1)
	.loc 3 1139 0
	bl memset
	.loc 3 1141 0
	lwz 9,228(29)
	.loc 3 1144 0
	mr 3,29
	.loc 3 1141 0
	lwz 26,240(29)
	addi 31,1,32
	mulli 9,9,108
	addis 9,9,0x1
	addi 0,9,-22528
	add 26,26,0
.LVL493:
	.loc 3 1144 0
	mr 4,26
	.loc 3 1142 0
	addi 14,26,36
.LVL494:
	.loc 3 1144 0
	bl _ZN10idMaterial10ClearStageEP13shaderStage_t
.LBB2686:
.LBB2687:
.LBB2688:
	.loc 4 653 0
	lis 28,.LC119@ha
.LBE2688:
.LBE2687:
.LBB2691:
.LBB2692:
	.loc 4 690 0
	lis 27,.LC120@ha
.LBE2692:
.LBE2691:
.LBB2695:
.LBB2696:
	lis 24,.LC96@ha
.LBE2696:
.LBE2695:
.LBB2699:
.LBB2700:
	lis 23,.LC121@ha
.LBE2700:
.LBE2699:
.LBB2703:
.LBB2704:
	lis 22,.LC122@ha
.LBE2704:
.LBE2703:
.LBB2707:
.LBB2708:
	lis 21,.LC123@ha
.LBE2708:
.LBE2707:
.LBE2686:
	.loc 3 1144 0
	lwz 0,104(29)
	li 15,1
	li 17,0
	li 20,2
	li 16,2
	addi 31,1,32
.LBB2903:
.LBB2711:
.LBB2689:
	.loc 4 653 0
	la 28,.LC119@l(28)
.LBE2689:
.LBE2711:
.LBB2712:
.LBB2693:
	.loc 4 690 0
	la 27,.LC120@l(27)
.LBE2693:
.LBE2712:
.LBB2713:
.LBB2697:
	la 24,.LC96@l(24)
.LBE2697:
.LBE2713:
.LBB2714:
.LBB2701:
	la 23,.LC121@l(23)
.LBE2701:
.LBE2714:
.LBB2715:
.LBB2705:
	la 22,.LC122@l(22)
.LBE2705:
.LBE2715:
.LBB2716:
.LBB2709:
	la 21,.LC123@l(21)
.LBE2709:
.LBE2716:
.LBB2717:
.LBB2718:
	lis 19,.LC124@ha
.LVL495:
.L520:
.LBE2718:
.LBE2717:
	.loc 3 1147 0
	andi. 9,0,1
	bne- 0,.L425
.L544:
	.loc 3 1150 0
	mr 3,30
	mr 4,31
	bl _ZN7idLexer14ExpectAnyTokenEP7idToken
	cmpwi 7,3,0
	beq- 7,.L533
.LVL496:
.LBB2720:
.LBB2690:
	.loc 4 653 0
	lwz 3,4(31)
	mr 4,28
	bl _ZN5idStr3CmpEPKcS1_
.LBE2690:
.LBE2720:
	.loc 3 1156 0
	cmpwi 7,3,0
	beq- 7,.L427
.LVL497:
.LBB2721:
.LBB2694:
	.loc 4 690 0
	lwz 3,4(31)
	mr 4,27
	bl _ZN5idStr4IcmpEPKcS1_
.LBE2694:
.LBE2721:
	.loc 3 1161 0
	cmpwi 7,3,0
	bne- 7,.L428
	.loc 3 1162 0
	mr 3,30
	bl _ZN7idLexer14SkipRestOfLineEv
.LEHE50:
.L521:
.LBE2903:
	.loc 3 1144 0
	lwz 0,104(29)
.L545:
.LBB2904:
	.loc 3 1147 0
	andi. 9,0,1
	beq+ 0,.L544
.LVL498:
.L425:
.LBE2904:
.LBB2905:
.LBB2906:
.LBB2907:
.LBB2908:
.LBB2909:
	.loc 4 501 0
	mr 3,31
.LEHB51:
	bl _ZN5idStr8FreeDataEv
.LEHE51:
.LBE2909:
.LBE2908:
.LBE2907:
.LBE2906:
.LBE2905:
.LBE2936:
	.loc 3 1609 0
	lwz 0,588(1)
	lwz 14,512(1)
.LVL499:
	mtlr 0
	lwz 15,516(1)
	lwz 16,520(1)
	lwz 17,524(1)
	lwz 18,528(1)
	lwz 19,532(1)
	lwz 20,536(1)
	lwz 21,540(1)
	lwz 22,544(1)
	lwz 23,548(1)
	lwz 24,552(1)
	lwz 25,556(1)
	lwz 26,560(1)
.LVL500:
	lwz 27,564(1)
	lwz 28,568(1)
	lwz 29,572(1)
	lwz 30,576(1)
	lwz 31,580(1)
	addi 1,1,584
	.cfi_remember_state
.LCFI126:
	.cfi_def_cfa_offset 0
	.cfi_restore 31
	.cfi_restore 30
	.cfi_restore 29
	.cfi_restore 28
	.cfi_restore 27
	.cfi_restore 26
	.cfi_restore 25
	.cfi_restore 24
	.cfi_restore 23
	.cfi_restore 22
	.cfi_restore 21
	.cfi_restore 20
	.cfi_restore 19
	.cfi_restore 18
	.cfi_restore 17
	.cfi_restore 16
	.cfi_restore 15
	.cfi_restore 14
	blr
.LVL501:
.L428:
.LCFI127:
	.cfi_restore_state
.LBB2937:
.LBB2910:
.LBB2722:
.LBB2698:
	.loc 4 690 0
	lwz 3,4(31)
	mr 4,24
.LEHB52:
	bl _ZN5idStr4IcmpEPKcS1_
.LBE2698:
.LBE2722:
	.loc 3 1167 0
	cmpwi 7,3,0
	bne- 7,.L430
	.loc 3 1168 0
	mr 3,29
	mr 4,30
	mr 5,26
	bl _ZN10idMaterial10ParseBlendER7idLexerP13shaderStage_t
.LBE2910:
	.loc 3 1144 0
	lwz 0,104(29)
	b .L545
.L430:
.LVL502:
.LBB2911:
.LBB2723:
.LBB2702:
	.loc 4 690 0
	lwz 3,4(31)
	mr 4,23
	bl _ZN5idStr4IcmpEPKcS1_
.LBE2702:
.LBE2723:
	.loc 3 1172 0
	cmpwi 7,3,0
	bne- 7,.L432
	.loc 3 1173 0
	mr 3,30
	bl _Z23R_ParsePastImageProgramR7idLexer
	mr 4,3
.LVL503:
	.loc 3 1174 0
	li 5,256
	addi 3,1,228
.LVL504:
	bl _ZN5idStr6CopynzEPcPKci
.LVL505:
.LBE2911:
	.loc 3 1144 0
	lwz 0,104(29)
	b .L545
.L432:
.LVL506:
.LBB2912:
.LBB2724:
.LBB2706:
	.loc 4 690 0
	lwz 3,4(31)
	mr 4,22
	bl _ZN5idStr4IcmpEPKcS1_
.LBE2706:
.LBE2724:
	.loc 3 1178 0
	cmpwi 7,3,0
	bne- 7,.L433
	.loc 3 1179 0
	li 0,5
	.loc 3 1180 0
	mr 3,30
	.loc 3 1179 0
	stw 0,76(26)
	.loc 3 1180 0
	bl _ZN7idLexer8ParseIntEv
	stw 3,80(26)
	.loc 3 1181 0
	mr 3,30
	bl _ZN7idLexer8ParseIntEv
	.loc 3 1181 0 is_stmt 0 discriminator 1
	stw 3,84(26)
	lwz 0,104(29)
	.loc 3 1182 0 is_stmt 1 discriminator 1
	b .L520
.L433:
.LVL507:
.LBB2725:
.LBB2710:
	.loc 4 690 0
	lwz 3,4(31)
	mr 4,21
	bl _ZN5idStr4IcmpEPKcS1_
.LBE2710:
.LBE2725:
	.loc 3 1185 0
	cmpwi 7,3,0
	bne- 7,.L434
	.loc 3 1186 0
	li 0,3
	.loc 3 1187 0
	mr 3,30
	.loc 3 1186 0
	stw 0,76(26)
	.loc 3 1187 0
	bl _ZN7idLexer8ParseIntEv
.L530:
	.loc 3 1195 0
	stw 3,80(26)
	.loc 3 1196 0
	mr 3,30
	bl _ZN7idLexer8ParseIntEv
	.loc 3 1197 0 discriminator 1
	li 0,5
	.loc 3 1196 0 discriminator 1
	stw 3,84(26)
	.loc 3 1197 0 discriminator 1
	stw 0,44(26)
	lwz 0,104(29)
	.loc 3 1198 0 discriminator 1
	b .L520
.L434:
.LVL508:
.LBB2726:
.LBB2719:
	.loc 4 690 0
	lwz 3,4(31)
	la 4,.LC124@l(19)
	bl _ZN5idStr4IcmpEPKcS1_
.LBE2719:
.LBE2726:
	.loc 3 1193 0
	cmpwi 7,3,0
	beq- 7,.L546
.LVL509:
.LBB2727:
.LBB2728:
	.loc 4 690 0
	lis 4,.LC125@ha
	lwz 3,4(31)
	la 4,.LC125@l(4)
	bl _ZN5idStr4IcmpEPKcS1_
.LBE2728:
.LBE2727:
	.loc 3 1200 0
	cmpwi 7,3,0
	bne- 7,.L436
	.loc 3 1201 0
	li 0,5
	stw 0,44(26)
	lwz 0,104(29)
	.loc 3 1202 0
	b .L520
.LVL510:
.L546:
	.loc 3 1194 0
	li 0,4
	.loc 3 1195 0
	mr 3,30
	.loc 3 1194 0
	stw 0,76(26)
	.loc 3 1195 0
	bl _ZN7idLexer8ParseIntEv
	b .L530
.LVL511:
.L498:
	.loc 3 2840 0
	lwz 3,4(29)
	.loc 3 1567 0
	lis 11,common@ha
	lwz 30,common@l(11)
.LVL512:
.LBB2729:
.LBB2730:
	.loc 2 140 0
	lwz 9,0(3)
.LBE2730:
.LBE2729:
	.loc 3 1567 0
	lwz 27,4(31)
.LBB2735:
.LBB2731:
	.loc 2 140 0
	lwz 0,8(9)
.LBE2731:
.LBE2735:
	.loc 3 1567 0
	lwz 9,0(30)
.LBB2736:
.LBB2732:
	.loc 2 140 0
	mtctr 0
.LBE2732:
.LBE2736:
	.loc 3 1567 0
	lwz 28,80(9)
.LBB2737:
.LBB2733:
	.loc 2 140 0
	bctrl
.LBE2733:
.LBE2737:
	.loc 3 1567 0
	lis 4,.LC175@ha
.LBB2738:
.LBB2734:
	.loc 2 140 0
	mr 6,3
.LBE2734:
.LBE2738:
	.loc 3 1567 0
	la 4,.LC175@l(4)
	mr 3,30
	mr 5,27
	mtctr 28
	crxor 6,6,6
	bctrl
.LVL513:
.L533:
.LBB2739:
.LBB2740:
	.loc 6 488 0
	lwz 0,104(29)
	ori 0,0,1
	stw 0,104(29)
	b .L425
.LVL514:
.L427:
.LBE2740:
.LBE2739:
.LBE2912:
	.loc 3 1574 0
	lwz 0,184(1)
	cmpwi 7,0,0
	bne- 7,.L499
	.loc 3 1574 0 is_stmt 0 discriminator 1
	lwz 0,112(1)
	cmpwi 7,0,0
	bne- 7,.L499
.L500:
	.loc 3 1583 0 is_stmt 1
	cmpwi 7,20,2
	.loc 3 1580 0
	lwz 9,228(29)
	addi 0,9,1
	stw 0,228(29)
	.loc 3 1583 0
	beq- 7,.L547
.L501:
.LVL515:
	.loc 3 1600 0
	lbz 0,228(1)
	cmpwi 7,0,0
	bne- 7,.L548
	.loc 3 1605 0
	lwz 0,36(26)
	cmpwi 7,0,0
	bne+ 7,.L425
	.loc 3 1605 0 is_stmt 0 discriminator 1
	lwz 0,76(26)
	cmpwi 7,0,0
	bne- 7,.L425
	.loc 3 1605 0 discriminator 2
	lwz 0,104(26)
	cmpwi 7,0,0
	bne+ 7,.L425
	.loc 3 2840 0 is_stmt 1
	lwz 3,4(29)
	.loc 3 1606 0
	lis 11,common@ha
	lwz 30,common@l(11)
.LVL516:
.LBB2913:
.LBB2914:
	.loc 2 140 0
	lwz 9,0(3)
	lwz 0,8(9)
.LBE2914:
.LBE2913:
	.loc 3 1606 0
	lwz 9,0(30)
.LBB2918:
.LBB2915:
	.loc 2 140 0
	mtctr 0
.LBE2915:
.LBE2918:
	.loc 3 1606 0
	lwz 29,80(9)
.LVL517:
.LBB2919:
.LBB2916:
	.loc 2 140 0
	bctrl
.LBE2916:
.LBE2919:
	.loc 3 1606 0
	lis 4,.LC176@ha
.LBB2920:
.LBB2917:
	.loc 2 140 0
	mr 5,3
.LBE2917:
.LBE2920:
	.loc 3 1606 0
	la 4,.LC176@l(4)
	mr 3,30
	mtctr 29
	crxor 6,6,6
	bctrl
	.loc 3 1607 0
	lis 9,globalImages@ha
	lwz 9,globalImages@l(9)
	lwz 0,0(9)
	stw 0,40(26)
.LVL518:
	b .L425
.LVL519:
.L499:
	.loc 3 1575 0
	li 3,116
	bl _Z9Mem_Alloci
	stw 3,104(26)
	.loc 3 1576 0
	addi 4,1,112
	li 5,116
	bl memcpy
	b .L500
.LVL520:
.L436:
.LBB2921:
.LBB2741:
.LBB2742:
	.loc 4 690 0
	lis 4,.LC126@ha
	lwz 3,4(31)
	la 4,.LC126@l(4)
	bl _ZN5idStr4IcmpEPKcS1_
.LBE2742:
.LBE2741:
	.loc 3 1204 0
	cmpwi 7,3,0
	bne- 7,.L437
	.loc 3 1205 0
	li 0,6
	stw 0,44(26)
	lwz 0,104(29)
	.loc 3 1206 0
	b .L520
.LVL521:
.L548:
.LBE2921:
	.loc 3 1601 0
	lis 30,globalImages@ha
.LVL522:
	addi 4,1,228
	lwz 3,globalImages@l(30)
	mr 5,16
	mr 6,15
	mr 7,18
	mr 8,20
	mr 9,17
	bl _ZN14idImageManager13ImageFromFileEPKc15textureFilter_tb15textureRepeat_t14textureDepth_t11cubeFiles_t
	.loc 3 1602 0
	cmpwi 7,3,0
	.loc 3 1601 0
	stw 3,40(26)
	.loc 3 1602 0
	bne+ 7,.L425
	.loc 3 1603 0
	lwz 9,globalImages@l(30)
	lwz 0,0(9)
	stw 0,40(26)
	b .L425
.LVL523:
.L547:
	.loc 3 1584 0
	lwz 0,4(26)
	.loc 3 1589 0
	li 20,1
	.loc 3 1584 0
	cmpwi 7,0,2
	beq- 7,.L501
	cmpwi 7,0,3
	.loc 3 1592 0
	li 20,0
	.loc 3 1584 0
	beq- 7,.L501
	xori 20,0,1
	cntlzw 20,20
	srwi 20,20,5
	addi 20,20,2
	b .L501
.LVL524:
.L437:
.LBB2922:
.LBB2743:
.LBB2744:
	.loc 4 690 0
	lis 4,.LC127@ha
	lwz 3,4(31)
	la 4,.LC127@l(4)
	bl _ZN5idStr4IcmpEPKcS1_
.LBE2744:
.LBE2743:
	.loc 3 1208 0
	cmpwi 7,3,0
	bne- 7,.L438
	.loc 3 1209 0
	li 0,7
	stw 0,44(26)
	lwz 0,104(29)
	.loc 3 1210 0
	b .L520
.L438:
.LVL525:
.LBB2745:
.LBB2746:
.LBB2747:
	.loc 4 690 0
	lis 4,.LC128@ha
	lwz 3,4(31)
	la 4,.LC128@l(4)
	bl _ZN5idStr4IcmpEPKcS1_
.LBE2747:
.LBE2746:
	.loc 3 1213 0
	cmpwi 7,3,0
	bne- 7,.L439
.LBB2748:
	.loc 3 1216 0
	mr 3,30
	mr 4,31
	bl _ZN7idLexer9ReadTokenEP7idToken
	cmpwi 7,3,0
	beq- 7,.L543
.LVL526:
.LBB2749:
.LBB2750:
	.loc 4 690 0
	lis 4,.LC130@ha
	lwz 3,4(31)
	la 4,.LC130@l(4)
	bl _ZN5idStr4IcmpEPKcS1_
.LBE2750:
.LBE2749:
	.loc 3 1221 0
	cmpwi 7,3,0
	.loc 3 1220 0
	li 25,0
	.loc 3 1221 0
	bne- 7,.L441
.LVL527:
	.loc 3 1223 0
	mr 3,30
	mr 4,31
	bl _ZN7idLexer9ReadTokenEP7idToken
	cmpwi 7,3,0
	.loc 3 1222 0
	li 25,1
	.loc 3 1223 0
	beq- 7,.L543
.LVL528:
.L441:
	.loc 3 1228 0
	bl _ZN11idCinematic5AllocEv
	stw 3,36(26)
	.loc 3 1229 0
	mr 5,25
	lwz 4,4(31)
	lwz 9,0(3)
	lwz 0,8(9)
	mtctr 0
	bctrl
.LBE2748:
.LBE2745:
.LBE2922:
	.loc 3 1144 0
	lwz 0,104(29)
	b .L545
.LVL529:
.L439:
.LBB2923:
.LBB2760:
.LBB2761:
	.loc 4 690 0
	lis 4,.LC131@ha
	lwz 3,4(31)
	la 4,.LC131@l(4)
	bl _ZN5idStr4IcmpEPKcS1_
.LBE2761:
.LBE2760:
	.loc 3 1233 0
	cmpwi 7,3,0
	bne- 7,.L442
	.loc 3 1234 0
	mr 3,30
	mr 4,31
	bl _ZN7idLexer9ReadTokenEP7idToken
	cmpwi 7,3,0
	bne- 7,.L443
	.loc 3 2840 0
	lwz 3,4(29)
	.loc 3 1235 0
	lis 11,common@ha
	lwz 25,common@l(11)
.LBB2762:
.LBB2763:
	.loc 2 140 0
	lwz 9,0(3)
	lwz 0,8(9)
.LBE2763:
.LBE2762:
	.loc 3 1235 0
	lwz 9,0(25)
.LBB2767:
.LBB2764:
	.loc 2 140 0
	mtctr 0
.LBE2764:
.LBE2767:
	.loc 3 1235 0
	lwz 9,80(9)
	stw 9,488(1)
.LBB2768:
.LBB2765:
	.loc 2 140 0
	bctrl
.LBE2765:
.LBE2768:
	.loc 3 1235 0
	lwz 0,488(1)
	lis 4,.LC132@ha
.LBB2769:
.LBB2766:
	.loc 2 140 0
	mr 5,3
.LBE2766:
.LBE2769:
	.loc 3 1235 0
	la 4,.LC132@l(4)
	mr 3,25
	mtctr 0
	crxor 6,6,6
	bctrl
.LBE2923:
	.loc 3 1144 0
	lwz 0,104(29)
	b .L545
.LVL530:
.L543:
.LBB2924:
.LBB2770:
.LBB2759:
	.loc 3 2840 0
	lwz 3,4(29)
	.loc 3 1224 0
	lis 11,common@ha
	lwz 25,common@l(11)
.LBB2751:
.LBB2752:
	.loc 2 140 0
	lwz 9,0(3)
	lwz 0,8(9)
.LBE2752:
.LBE2751:
	.loc 3 1224 0
	lwz 9,0(25)
.LBB2756:
.LBB2753:
	.loc 2 140 0
	mtctr 0
.LBE2753:
.LBE2756:
	.loc 3 1224 0
	lwz 9,80(9)
	stw 9,488(1)
.LBB2757:
.LBB2754:
	.loc 2 140 0
	bctrl
.LBE2754:
.LBE2757:
	.loc 3 1224 0
	lwz 0,488(1)
	lis 4,.LC129@ha
.LBB2758:
.LBB2755:
	.loc 2 140 0
	mr 5,3
.LBE2755:
.LBE2758:
	.loc 3 1224 0
	la 4,.LC129@l(4)
	mr 3,25
	mtctr 0
	crxor 6,6,6
	bctrl
.LBE2759:
.LBE2770:
.LBE2924:
	.loc 3 1144 0
	lwz 0,104(29)
	b .L545
.LVL531:
.L442:
.LBB2925:
.LBB2771:
.LBB2772:
	.loc 4 690 0
	lis 4,.LC107@ha
	lwz 3,4(31)
	la 4,.LC107@l(4)
	bl _ZN5idStr4IcmpEPKcS1_
.LBE2772:
.LBE2771:
	.loc 3 1243 0
	cmpwi 7,3,0
	bne- 7,.L444
	.loc 3 1244 0
	mr 3,30
	bl _Z23R_ParsePastImageProgramR7idLexer
	mr 4,3
.LVL532:
	.loc 3 1245 0
	li 5,256
	addi 3,1,228
.LVL533:
	bl _ZN5idStr6CopynzEPcPKci
.LEHE52:
.LVL534:
	lwz 0,104(29)
	.loc 3 1246 0
	li 17,1
	b .L520
.LVL535:
.L519:
	mr 30,3
.LVL536:
.LBE2925:
.LBB2926:
.LBB2927:
.LBB2928:
.LBB2929:
.LBB2930:
	.loc 4 501 0
	mr 3,31
	bl _ZN5idStr8FreeDataEv
	mr 3,30
.LEHB53:
	bl _Unwind_Resume
.LEHE53:
.LVL537:
.L443:
.LBE2930:
.LBE2929:
.LBE2928:
.LBE2927:
.LBE2926:
.LBB2931:
	.loc 3 1238 0
	li 3,8
.LEHB54:
	bl _Znwj
.LVL538:
.LBB2773:
.LBB2774:
	.file 8 "d:/Data/Nintendo/DoomGX/src/renderer/../idlib/../renderer/Cinematic.h"
	.loc 8 103 0
	lis 11,_ZTV11idSndWindow+8@ha
.LBE2774:
.LBE2773:
	.loc 3 1239 0
	li 5,1
.LBB2776:
.LBB2775:
	.loc 8 103 0
	la 0,_ZTV11idSndWindow+8@l(11)
	stw 0,0(3)
	li 0,0
	stb 0,4(3)
.LBE2775:
.LBE2776:
	.loc 3 1238 0
	stw 3,36(26)
	.loc 3 1239 0
	lwz 4,4(31)
	lwz 9,0(3)
	lwz 0,8(9)
	mtctr 0
	bctrl
.LVL539:
.LBE2931:
	.loc 3 1144 0
	lwz 0,104(29)
	b .L545
.LVL540:
.L444:
.LBB2932:
.LBB2777:
.LBB2778:
	.loc 4 690 0
	lis 4,.LC108@ha
	lwz 3,4(31)
	la 4,.LC108@l(4)
	bl _ZN5idStr4IcmpEPKcS1_
.LBE2778:
.LBE2777:
	.loc 3 1250 0
	cmpwi 7,3,0
	bne- 7,.L445
	.loc 3 1251 0
	mr 3,30
	bl _Z23R_ParsePastImageProgramR7idLexer
	mr 4,3
.LVL541:
	.loc 3 1252 0
	li 5,256
	addi 3,1,228
.LVL542:
	bl _ZN5idStr6CopynzEPcPKci
.LVL543:
	lwz 0,104(29)
	.loc 3 1253 0
	li 17,2
	b .L520
.L445:
.LVL544:
.LBB2779:
.LBB2780:
	.loc 4 690 0
	lis 4,.LC133@ha
	lwz 3,4(31)
	la 4,.LC133@l(4)
	bl _ZN5idStr4IcmpEPKcS1_
.LBE2780:
.LBE2779:
	.loc 3 1257 0
	cmpwi 7,3,0
	bne- 7,.L446
	.loc 3 1258 0
	li 0,1
	stb 0,96(26)
	lwz 0,104(29)
	.loc 3 1259 0
	b .L520
.L446:
.LVL545:
.LBB2781:
.LBB2782:
	.loc 4 690 0
	lis 4,.LC30@ha
	lwz 3,4(31)
	la 4,.LC30@l(4)
	bl _ZN5idStr4IcmpEPKcS1_
.LBE2782:
.LBE2781:
	.loc 3 1261 0
	cmpwi 7,3,0
	bne- 7,.L447
	lwz 0,104(29)
	.loc 3 1262 0
	li 16,1
	b .L520
.L447:
.LVL546:
.LBB2783:
.LBB2784:
	.loc 4 690 0
	lis 4,.LC109@ha
	lwz 3,4(31)
	la 4,.LC109@l(4)
	bl _ZN5idStr4IcmpEPKcS1_
.LBE2784:
.LBE2783:
	.loc 3 1265 0
	cmpwi 7,3,0
	bne- 7,.L448
	lwz 0,104(29)
	.loc 3 1266 0
	li 16,0
	b .L520
.L448:
.LVL547:
.LBB2785:
.LBB2786:
	.loc 4 690 0
	lis 4,.LC110@ha
	lwz 3,4(31)
	la 4,.LC110@l(4)
	bl _ZN5idStr4IcmpEPKcS1_
.LBE2786:
.LBE2785:
	.loc 3 1269 0
	cmpwi 7,3,0
	bne- 7,.L449
	lwz 0,104(29)
	.loc 3 1270 0
	li 18,1
	b .L520
.L449:
.LVL548:
.LBB2787:
.LBB2788:
	.loc 4 690 0
	lis 4,.LC111@ha
	lwz 3,4(31)
	la 4,.LC111@l(4)
	bl _ZN5idStr4IcmpEPKcS1_
.LBE2788:
.LBE2787:
	.loc 3 1273 0
	cmpwi 7,3,0
	bne- 7,.L450
	lwz 0,104(29)
	.loc 3 1274 0
	li 18,0
	b .L520
.L450:
.LVL549:
.LBB2789:
.LBB2790:
	.loc 4 690 0
	lis 4,.LC112@ha
	lwz 3,4(31)
	la 4,.LC112@l(4)
	bl _ZN5idStr4IcmpEPKcS1_
.LBE2790:
.LBE2789:
	.loc 3 1277 0
	cmpwi 7,3,0
	bne- 7,.L451
	lwz 0,104(29)
	.loc 3 1278 0
	li 18,3
	b .L520
.L451:
.LVL550:
.LBB2791:
.LBB2792:
	.loc 4 690 0
	lis 4,.LC113@ha
	lwz 3,4(31)
	la 4,.LC113@l(4)
	bl _ZN5idStr4IcmpEPKcS1_
.LBE2792:
.LBE2791:
	.loc 3 1281 0
	cmpwi 7,3,0
	bne- 7,.L452
	lwz 0,104(29)
	.loc 3 1282 0
	li 18,4
	b .L520
.L452:
.LVL551:
.LBB2793:
.LBB2794:
	.loc 4 690 0
	lis 4,.LC115@ha
	lwz 3,4(31)
	la 4,.LC115@l(4)
	bl _ZN5idStr4IcmpEPKcS1_
.LBE2794:
.LBE2793:
	.loc 3 1285 0
	cmpwi 7,3,0
	bne- 7,.L549
.L453:
.LBB2795:
.LBB2796:
	.loc 3 1286 0 discriminator 4
	lis 9,_ZN14idImageManager23image_ignoreHighQualityE+44@ha
	.loc 7 143 0 discriminator 4
	lwz 9,_ZN14idImageManager23image_ignoreHighQualityE+44@l(9)
.LBE2796:
.LBE2795:
	.loc 3 1286 0 discriminator 4
	lwz 0,36(9)
	cmpwi 7,0,0
	bne- 7,.L521
.L522:
	.loc 3 1291 0
	lwz 0,104(29)
	.loc 3 1292 0
	li 20,4
	b .L520
.L549:
.LVL552:
.LBB2797:
.LBB2798:
	.loc 4 690 0 discriminator 2
	lis 4,.LC116@ha
	lwz 3,4(31)
	la 4,.LC116@l(4)
	bl _ZN5idStr4IcmpEPKcS1_
.LBE2798:
.LBE2797:
	.loc 3 1285 0 discriminator 2
	cmpwi 7,3,0
	beq- 7,.L453
.LVL553:
.LBB2799:
.LBB2800:
	.loc 4 690 0
	lis 4,.LC114@ha
	lwz 3,4(31)
	la 4,.LC114@l(4)
	bl _ZN5idStr4IcmpEPKcS1_
.LBE2800:
.LBE2799:
	.loc 3 1291 0
	cmpwi 7,3,0
	beq+ 7,.L522
.LVL554:
.LBB2801:
.LBB2802:
	.loc 4 690 0
	lis 4,.LC117@ha
	lwz 3,4(31)
	la 4,.LC117@l(4)
	bl _ZN5idStr4IcmpEPKcS1_
.LBE2802:
.LBE2801:
	.loc 3 1295 0
	cmpwi 7,3,0
	bne- 7,.L457
	lwz 0,104(29)
	.loc 3 1296 0
	li 15,0
	b .L520
.L457:
.LVL555:
.LBB2803:
.LBB2804:
	.loc 4 690 0
	lis 4,.LC134@ha
	lwz 3,4(31)
	la 4,.LC134@l(4)
	bl _ZN5idStr4IcmpEPKcS1_
.LBE2804:
.LBE2803:
	.loc 3 1299 0
	cmpwi 7,3,0
	bne- 7,.L458
	.loc 3 1300 0
	li 0,1
	stw 0,92(26)
	lwz 0,104(29)
	.loc 3 1301 0
	b .L520
.L458:
.LVL556:
.LBB2805:
.LBB2806:
	.loc 4 690 0
	lis 4,.LC135@ha
	lwz 3,4(31)
	la 4,.LC135@l(4)
	bl _ZN5idStr4IcmpEPKcS1_
.LBE2806:
.LBE2805:
	.loc 3 1303 0
	cmpwi 7,3,0
	bne- 7,.L459
	.loc 3 1304 0
	li 0,2
	stw 0,92(26)
	lwz 0,104(29)
	.loc 3 1305 0
	b .L520
.L459:
.LVL557:
.LBB2807:
.LBB2808:
	.loc 4 690 0
	lis 4,.LC136@ha
	lwz 3,4(31)
	la 4,.LC136@l(4)
	bl _ZN5idStr4IcmpEPKcS1_
.LBE2808:
.LBE2807:
	.loc 3 1309 0
	cmpwi 7,3,0
	bne- 7,.L460
	.loc 3 1310 0
	mr 3,30
	mr 4,31
	bl _ZN7idLexer15ReadTokenOnLineEP7idToken
	cmpwi 7,3,0
	bne- 7,.L461
	.loc 3 1311 0
	lis 9,.LC14@ha
	lwz 0,.LC14@l(9)
	stw 0,100(26)
	lwz 0,104(29)
	.loc 3 1312 0
	b .L520
.L460:
.LVL558:
.LBB2809:
.LBB2810:
	.loc 4 690 0
	lis 4,.LC137@ha
	lwz 3,4(31)
	la 4,.LC137@l(4)
	bl _ZN5idStr4IcmpEPKcS1_
.LBE2810:
.LBE2809:
	.loc 3 1321 0
	cmpwi 7,3,0
	bne- 7,.L462
	.loc 3 1322 0
	mr 3,30
	mr 4,31
	bl _ZN7idLexer14ExpectAnyTokenEP7idToken
.LVL559:
.LBB2811:
.LBB2812:
	.loc 4 690 0
	lis 4,.LC138@ha
	lwz 3,4(31)
	la 4,.LC138@l(4)
	bl _ZN5idStr4IcmpEPKcS1_
.LBE2812:
.LBE2811:
	.loc 3 1323 0
	cmpwi 7,3,0
	bne- 7,.L463
	.loc 3 1324 0
	li 0,1
	stw 0,44(26)
	lwz 0,104(29)
	b .L520
.LVL560:
.L461:
	.loc 3 1315 0
	mr 3,30
	mr 4,31
	bl _ZN7idLexer11UnreadTokenEPK7idToken
	.loc 3 1316 0
	mr 3,30
	li 4,0
	bl _ZN7idLexer10ParseFloatEPb
	stfs 1,100(26)
	lwz 0,104(29)
	.loc 3 1317 0
	b .L520
.LVL561:
.L463:
.LBB2813:
.LBB2814:
	.loc 4 690 0
	lis 4,.LC139@ha
	lwz 3,4(31)
	la 4,.LC139@l(4)
	bl _ZN5idStr4IcmpEPKcS1_
.LBE2814:
.LBE2813:
	.loc 3 1325 0
	cmpwi 7,3,0
	bne- 7,.L464
	.loc 3 1326 0
	li 0,2
	stw 0,44(26)
	lwz 0,104(29)
	b .L520
.LVL562:
.L462:
.LBB2815:
.LBB2816:
	.loc 4 690 0
	lis 4,.LC143@ha
	lwz 3,4(31)
	la 4,.LC143@l(4)
	bl _ZN5idStr4IcmpEPKcS1_
.LBE2816:
.LBE2815:
	.loc 3 1340 0
	cmpwi 7,3,0
	bne- 7,.L550
.L467:
	.loc 3 1341 0 discriminator 4
	mr 3,29
	mr 4,30
	bl _ZN10idMaterial15ParseExpressionER7idLexer
	.loc 3 1342 0 discriminator 4
	lis 5,.LC103@ha
	.loc 3 1341 0 discriminator 4
	stw 3,488(1)
.LVL563:
	.loc 3 1342 0 discriminator 4
	mr 4,30
	mr 3,29
.LVL564:
	la 5,.LC103@l(5)
	bl _ZN10idMaterial10MatchTokenER7idLexerPKc
	.loc 3 1343 0
	mr 3,29
	mr 4,30
	bl _ZN10idMaterial15ParseExpressionER7idLexer
	.loc 3 1344 0
	lis 25,.LC14@ha
	.loc 3 1343 0
	stw 3,492(1)
.LVL565:
	.loc 3 1344 0
	lfs 1,.LC14@l(25)
	mr 3,29
.LVL566:
	la 25,.LC14@l(25)
	bl _ZN10idMaterial21GetExpressionConstantEf
	.loc 3 1345 0 discriminator 1
	lis 9,.LC10@ha
	.loc 3 1344 0 discriminator 1
	stw 3,8(1)
	.loc 3 1345 0 discriminator 1
	lfs 1,.LC10@l(9)
	mr 3,29
	bl _ZN10idMaterial21GetExpressionConstantEf
	.loc 3 1347 0 discriminator 1
	lis 11,.LC10@ha
	.loc 3 1346 0 discriminator 1
	lwz 0,488(1)
	.loc 3 1347 0 discriminator 1
	lfs 1,.LC10@l(11)
	.loc 3 1345 0 discriminator 1
	stw 3,12(1)
	.loc 3 1347 0 discriminator 1
	mr 3,29
	.loc 3 1346 0 discriminator 1
	stw 0,16(1)
	.loc 3 1347 0 discriminator 1
	bl _ZN10idMaterial21GetExpressionConstantEf
	.loc 3 1348 0 discriminator 1
	lfs 1,0(25)
	.loc 3 1347 0 discriminator 1
	stw 3,20(1)
	.loc 3 1348 0 discriminator 1
	mr 3,29
	bl _ZN10idMaterial21GetExpressionConstantEf
	.loc 3 1349 0 discriminator 1
	lwz 9,492(1)
	.loc 3 1351 0 discriminator 1
	mr 4,14
	.loc 3 1348 0 discriminator 1
	stw 3,24(1)
	.loc 3 1351 0 discriminator 1
	addi 5,1,8
	mr 3,29
	.loc 3 1349 0 discriminator 1
	stw 9,28(1)
	.loc 3 1351 0 discriminator 1
	bl _ZN10idMaterial21MultiplyTextureMatrixEP14textureStage_tPA3_i
.LBE2932:
	.loc 3 1144 0
	lwz 0,104(29)
	b .L545
.LVL567:
.L464:
.LBB2933:
.LBB2817:
.LBB2818:
	.loc 4 690 0
	lis 4,.LC140@ha
	lwz 3,4(31)
	la 4,.LC140@l(4)
	bl _ZN5idStr4IcmpEPKcS1_
.LBE2818:
.LBE2817:
	.loc 3 1327 0
	cmpwi 7,3,0
	bne- 7,.L465
	.loc 3 1328 0
	li 0,3
	stw 0,44(26)
	lwz 0,104(29)
	b .L520
.LVL568:
.L550:
.LBB2819:
.LBB2820:
	.loc 4 690 0 discriminator 2
	lis 4,.LC144@ha
	lwz 3,4(31)
	la 4,.LC144@l(4)
	bl _ZN5idStr4IcmpEPKcS1_
.LBE2820:
.LBE2819:
	.loc 3 1340 0 discriminator 2
	cmpwi 7,3,0
	beq- 7,.L467
.LVL569:
.LBB2821:
.LBB2822:
	.loc 4 690 0
	lis 4,.LC177@ha
	lwz 3,4(31)
	la 4,.LC177@l(4)
	bl _ZN5idStr4IcmpEPKcS1_
.LBE2822:
.LBE2821:
	.loc 3 1354 0
	cmpwi 7,3,0
	bne- 7,.L469
	.loc 3 1355 0
	mr 3,29
	mr 4,30
	bl _ZN10idMaterial15ParseExpressionER7idLexer
	.loc 3 1356 0
	lis 5,.LC103@ha
	.loc 3 1355 0
	mr 25,3
.LVL570:
	.loc 3 1356 0
	mr 4,30
	mr 3,29
.LVL571:
	la 5,.LC103@l(5)
	bl _ZN10idMaterial10MatchTokenER7idLexerPKc
	.loc 3 1357 0
	mr 3,29
	mr 4,30
	bl _ZN10idMaterial15ParseExpressionER7idLexer
	.loc 3 1360 0
	lis 11,.LC10@ha
	.loc 3 1357 0
	stw 3,488(1)
.LVL572:
	.loc 3 1360 0
	lfs 1,.LC10@l(11)
	mr 3,29
.LVL573:
	.loc 3 1359 0
	stw 25,8(1)
	.loc 3 1360 0
	bl _ZN10idMaterial21GetExpressionConstantEf
	.loc 3 1361 0 discriminator 1
	lis 9,.LC10@ha
	.loc 3 1360 0 discriminator 1
	stw 3,12(1)
	.loc 3 1361 0 discriminator 1
	lfs 1,.LC10@l(9)
	mr 3,29
	bl _ZN10idMaterial21GetExpressionConstantEf
	.loc 3 1362 0 discriminator 1
	lis 11,.LC10@ha
	.loc 3 1361 0 discriminator 1
	stw 3,16(1)
	.loc 3 1362 0 discriminator 1
	lfs 1,.LC10@l(11)
	mr 3,29
	bl _ZN10idMaterial21GetExpressionConstantEf
	.loc 3 1364 0 discriminator 1
	lis 9,.LC10@ha
	.loc 3 1363 0 discriminator 1
	lwz 11,488(1)
	.loc 3 1364 0 discriminator 1
	lfs 1,.LC10@l(9)
	.loc 3 1362 0 discriminator 1
	stw 3,20(1)
	.loc 3 1364 0 discriminator 1
	mr 3,29
	.loc 3 1363 0 discriminator 1
	stw 11,24(1)
	.loc 3 1364 0 discriminator 1
	bl _ZN10idMaterial21GetExpressionConstantEf
.LVL574:
.L541:
.LBB2823:
.LBB2824:
	.loc 3 1433 0 discriminator 6
	stw 3,28(1)
	.loc 3 1435 0 discriminator 6
	mr 4,14
	mr 3,29
	addi 5,1,8
	bl _ZN10idMaterial21MultiplyTextureMatrixEP14textureStage_tPA3_i
.LBE2824:
.LBE2823:
.LBE2933:
	.loc 3 1144 0
	lwz 0,104(29)
	b .L545
.LVL575:
.L465:
.LBB2934:
.LBB2841:
.LBB2842:
	.loc 4 690 0
	lis 4,.LC141@ha
	lwz 3,4(31)
	la 4,.LC141@l(4)
	bl _ZN5idStr4IcmpEPKcS1_
.LBE2842:
.LBE2841:
	.loc 3 1329 0
	cmpwi 7,3,0
	bne- 7,.L466
	.loc 3 1330 0
	li 0,4
	.loc 3 1331 0
	mr 3,29
	.loc 3 1330 0
	stw 0,44(26)
	.loc 3 1331 0
	mr 4,30
	bl _ZN10idMaterial15ParseExpressionER7idLexer
	stw 3,176(29)
	.loc 3 1332 0
	mr 4,30
	mr 3,29
	bl _ZN10idMaterial15ParseExpressionER7idLexer
	.loc 3 1332 0 is_stmt 0 discriminator 1
	stw 3,180(29)
	.loc 3 1333 0 is_stmt 1 discriminator 1
	mr 4,30
	mr 3,29
	bl _ZN10idMaterial15ParseExpressionER7idLexer
	stw 3,184(29)
	lwz 0,104(29)
	b .L520
.LVL576:
.L469:
.LBB2843:
.LBB2844:
	.loc 4 690 0
	lis 4,.LC145@ha
	lwz 3,4(31)
	la 4,.LC145@l(4)
	bl _ZN5idStr4IcmpEPKcS1_
.LBE2844:
.LBE2843:
	.loc 3 1369 0
	cmpwi 7,3,0
	bne- 7,.L470
	.loc 3 1370 0
	mr 3,29
	mr 4,30
	bl _ZN10idMaterial15ParseExpressionER7idLexer
	.loc 3 1371 0
	lis 5,.LC103@ha
	.loc 3 1370 0
	stw 3,492(1)
.LVL577:
	.loc 3 1371 0
	mr 4,30
	mr 3,29
.LVL578:
	la 5,.LC103@l(5)
	bl _ZN10idMaterial10MatchTokenER7idLexerPKc
	.loc 3 1372 0
	mr 3,29
	mr 4,30
	bl _ZN10idMaterial15ParseExpressionER7idLexer
	.loc 3 1375 0
	lis 9,.LC10@ha
	.loc 3 1374 0
	lwz 11,492(1)
	.loc 3 1375 0
	lfs 1,.LC10@l(9)
	.loc 3 1372 0
	stw 3,496(1)
.LVL579:
	.loc 3 1375 0
	mr 3,29
.LVL580:
	.loc 3 1374 0
	stw 11,8(1)
	.loc 3 1375 0
	bl _ZN10idMaterial21GetExpressionConstantEf
	.loc 3 1376 0 discriminator 1
	lis 25,.LC146@ha
	.loc 3 1375 0 discriminator 1
	stw 3,12(1)
	.loc 3 1376 0 discriminator 1
	lfs 1,.LC146@l(25)
	la 9,.LC146@l(25)
	mr 3,29
	stw 9,488(1)
	bl _ZN10idMaterial21GetExpressionConstantEf
	lfs 1,.LC146@l(25)
	stw 3,500(1)
	mr 3,29
	bl _ZN10idMaterial21GetExpressionConstantEf
	lwz 5,492(1)
	mr 4,3
	li 6,2
	mr 3,29
	bl _ZN10idMaterial6EmitOpEii11expOpType_t
	.loc 3 1376 0 is_stmt 0 discriminator 2
	lwz 4,500(1)
	mr 5,3
	li 6,1
	mr 3,29
	bl _ZN10idMaterial6EmitOpEii11expOpType_t
	.loc 3 1377 0 is_stmt 1 discriminator 3
	lis 11,.LC10@ha
	.loc 3 1376 0 discriminator 3
	stw 3,16(1)
	.loc 3 1377 0 discriminator 3
	lfs 1,.LC10@l(11)
	mr 3,29
	bl _ZN10idMaterial21GetExpressionConstantEf
	.loc 3 1379 0 discriminator 4
	lwz 9,488(1)
	.loc 3 1378 0 discriminator 4
	lwz 11,496(1)
	.loc 3 1379 0 discriminator 4
	lfs 1,0(9)
	.loc 3 1377 0 discriminator 4
	stw 3,20(1)
	.loc 3 1379 0 discriminator 4
	mr 3,29
	.loc 3 1378 0 discriminator 4
	stw 11,24(1)
	.loc 3 1379 0 discriminator 4
	bl _ZN10idMaterial21GetExpressionConstantEf
	.loc 3 1379 0 is_stmt 0 discriminator 1
	lwz 9,488(1)
	mr 25,3
	mr 3,29
	lfs 1,0(9)
	bl _ZN10idMaterial21GetExpressionConstantEf
	lwz 5,496(1)
	mr 4,3
	li 6,2
	mr 3,29
	bl _ZN10idMaterial6EmitOpEii11expOpType_t
	.loc 3 1379 0 discriminator 2
	mr 5,3
	mr 4,25
	mr 3,29
	li 6,1
	bl _ZN10idMaterial6EmitOpEii11expOpType_t
	b .L541
.LVL581:
.L466:
	.loc 3 2840 0 is_stmt 1
	lwz 3,4(29)
	.loc 3 1335 0
	lis 11,common@ha
	lwz 25,common@l(11)
.LBB2845:
.LBB2846:
	.loc 2 140 0
	lwz 9,0(3)
.LBE2846:
.LBE2845:
	.loc 3 1335 0
	lwz 11,4(31)
.LBB2851:
.LBB2847:
	.loc 2 140 0
	lwz 0,8(9)
.LBE2847:
.LBE2851:
	.loc 3 1335 0
	lwz 9,0(25)
	stw 11,492(1)
.LBB2852:
.LBB2848:
	.loc 2 140 0
	mtctr 0
.LBE2848:
.LBE2852:
	.loc 3 1335 0
	lwz 9,80(9)
	stw 9,488(1)
.LBB2853:
.LBB2849:
	.loc 2 140 0
	bctrl
.LBE2849:
.LBE2853:
	.loc 3 1335 0
	lwz 0,488(1)
	lis 4,.LC142@ha
.LBB2854:
.LBB2850:
	.loc 2 140 0
	mr 6,3
.LBE2850:
.LBE2854:
	.loc 3 1335 0
	la 4,.LC142@l(4)
	mr 3,25
	lwz 5,492(1)
	mtctr 0
	crxor 6,6,6
	bctrl
.LVL582:
.LBB2855:
.LBB2856:
	.loc 6 488 0
	lwz 0,104(29)
	ori 0,0,1
	stw 0,104(29)
	b .L520
.LVL583:
.L470:
.LBE2856:
.LBE2855:
.LBB2857:
.LBB2858:
	.loc 4 690 0
	lis 4,.LC147@ha
	lwz 3,4(31)
	la 4,.LC147@l(4)
	bl _ZN5idStr4IcmpEPKcS1_
.LBE2858:
.LBE2857:
	.loc 3 1384 0
	cmpwi 7,3,0
	bne- 7,.L471
	.loc 3 1385 0
	mr 3,29
	mr 4,30
	bl _ZN10idMaterial15ParseExpressionER7idLexer
	.loc 3 1386 0
	lis 5,.LC103@ha
	.loc 3 1385 0
	stw 3,488(1)
.LVL584:
	.loc 3 1386 0
	mr 4,30
	mr 3,29
.LVL585:
	la 5,.LC103@l(5)
	bl _ZN10idMaterial10MatchTokenER7idLexerPKc
	.loc 3 1387 0
	mr 3,29
	mr 4,30
	bl _ZN10idMaterial15ParseExpressionER7idLexer
	.loc 3 1389 0
	lis 25,.LC14@ha
	.loc 3 1387 0
	stw 3,492(1)
.LVL586:
	.loc 3 1389 0
	lfs 1,.LC14@l(25)
	mr 3,29
.LVL587:
	la 25,.LC14@l(25)
	bl _ZN10idMaterial21GetExpressionConstantEf
	.loc 3 1391 0 discriminator 1
	lis 9,.LC148@ha
	.loc 3 1390 0 discriminator 1
	lwz 11,488(1)
	.loc 3 1391 0 discriminator 1
	lfs 1,.LC148@l(9)
	la 9,.LC148@l(9)
	.loc 3 1389 0 discriminator 1
	stw 3,8(1)
	.loc 3 1391 0 discriminator 1
	mr 3,29
	.loc 3 1390 0 discriminator 1
	stw 11,12(1)
	.loc 3 1391 0 discriminator 1
	stw 9,500(1)
	bl _ZN10idMaterial21GetExpressionConstantEf
	lwz 5,488(1)
	mr 4,3
	li 6,2
	mr 3,29
	bl _ZN10idMaterial6EmitOpEii11expOpType_t
	.loc 3 1392 0 discriminator 1
	lwz 0,492(1)
	.loc 3 1393 0 discriminator 1
	lfs 1,0(25)
	.loc 3 1391 0 discriminator 1
	stw 3,16(1)
	.loc 3 1393 0 discriminator 1
	mr 3,29
	.loc 3 1392 0 discriminator 1
	stw 0,20(1)
	.loc 3 1393 0 discriminator 1
	bl _ZN10idMaterial21GetExpressionConstantEf
	.loc 3 1394 0 discriminator 2
	lwz 9,500(1)
	.loc 3 1393 0 discriminator 2
	stw 3,24(1)
	.loc 3 1394 0 discriminator 2
	mr 3,29
	lfs 1,0(9)
	bl _ZN10idMaterial21GetExpressionConstantEf
	.loc 3 1394 0 is_stmt 0 discriminator 1
	lwz 5,492(1)
	mr 4,3
	li 6,2
	mr 3,29
	bl _ZN10idMaterial6EmitOpEii11expOpType_t
	b .L541
.LVL588:
.L471:
.LBB2859:
.LBB2837:
.LBB2838:
	.loc 4 690 0 is_stmt 1
	lis 4,.LC149@ha
	lwz 3,4(31)
	la 4,.LC149@l(4)
	bl _ZN5idStr4IcmpEPKcS1_
.LBE2838:
.LBE2837:
	.loc 3 1399 0
	cmpwi 7,3,0
	bne- 7,.L472
.LBB2839:
	.loc 3 1404 0
	mr 3,29
	mr 4,30
	bl _ZN10idMaterial15ParseExpressionER7idLexer
	.loc 3 1406 0
	lis 25,declManager@ha
	.loc 3 1404 0
	stw 3,488(1)
.LVL589:
	.loc 3 1406 0
	lwz 3,declManager@l(25)
.LVL590:
	lis 5,.LC150@ha
	li 4,0
	la 5,.LC150@l(5)
	lwz 9,0(3)
	li 6,0
	li 7,0
	lwz 0,60(9)
	mtctr 0
	bctrl
.LVL591:
	.loc 3 1407 0 discriminator 1
	cmpwi 0,3,0
	beq- 0,.L551
.LBB2825:
.LBB2826:
	.loc 3 2840 0
	lwz 3,4(3)
.LVL592:
.LBE2826:
.LBE2825:
.LBB2827:
.LBB2828:
	.loc 2 165 0
	lwz 9,0(3)
	lwz 0,40(9)
	mtctr 0
	bctrl
.LBE2828:
.LBE2827:
	.loc 3 1412 0
	lwz 5,488(1)
.LBB2830:
.LBB2829:
	.loc 2 165 0
	mr 4,3
.LBE2829:
.LBE2830:
	.loc 3 1412 0
	li 6,5
	mr 3,29
	bl _ZN10idMaterial6EmitOpEii11expOpType_t
	stw 3,492(1)
.LVL593:
	.loc 3 1414 0
	lis 5,.LC152@ha
	lwz 3,declManager@l(25)
.LVL594:
	li 4,0
	la 5,.LC152@l(5)
	li 6,0
	lwz 9,0(3)
	li 7,0
	lwz 0,60(9)
	mtctr 0
	bctrl
.LVL595:
	.loc 3 1415 0 discriminator 1
	cmpwi 0,3,0
	beq- 0,.L552
.LBB2831:
.LBB2832:
	.loc 3 2840 0
	lwz 3,4(3)
.LVL596:
.LBE2832:
.LBE2831:
.LBB2833:
.LBB2834:
	.loc 2 165 0
	lwz 9,0(3)
	lwz 0,40(9)
	mtctr 0
	bctrl
.LBE2834:
.LBE2833:
	.loc 3 1420 0
	lwz 5,488(1)
.LBB2836:
.LBB2835:
	.loc 2 165 0
	mr 4,3
.LBE2835:
.LBE2836:
	.loc 3 1420 0
	li 6,5
	mr 3,29
	bl _ZN10idMaterial6EmitOpEii11expOpType_t
	stw 3,496(1)
.LVL597:
	.loc 3 1424 0
	lis 9,.LC10@ha
	lfs 1,.LC10@l(9)
	mr 3,29
.LVL598:
	.loc 3 1423 0
	lwz 11,496(1)
	stw 11,8(1)
	.loc 3 1424 0
	bl _ZN10idMaterial21GetExpressionConstantEf
	.loc 3 1424 0 is_stmt 0 discriminator 1
	lwz 5,492(1)
	mr 4,3
	li 6,1
	mr 3,29
	bl _ZN10idMaterial6EmitOpEii11expOpType_t
	.loc 3 1427 0 is_stmt 1 discriminator 1
	lis 9,.LC148@ha
	.loc 3 1424 0 discriminator 1
	stw 3,12(1)
	.loc 3 1427 0 discriminator 1
	lfs 1,.LC148@l(9)
	mr 3,29
	la 9,.LC148@l(9)
	stw 9,500(1)
	bl _ZN10idMaterial21GetExpressionConstantEf
	.loc 3 1427 0 is_stmt 0 discriminator 2
	lwz 5,496(1)
	mr 4,3
	li 6,2
	mr 3,29
	bl _ZN10idMaterial6EmitOpEii11expOpType_t
	.loc 3 1427 0 discriminator 1
	lis 25,.LC146@ha
	stw 3,504(1)
	lfs 1,.LC146@l(25)
	mr 3,29
	la 25,.LC146@l(25)
	stw 25,488(1)
	bl _ZN10idMaterial21GetExpressionConstantEf
	.loc 3 1427 0 discriminator 2
	lwz 5,492(1)
	mr 4,3
	li 6,2
	mr 3,29
	bl _ZN10idMaterial6EmitOpEii11expOpType_t
	.loc 3 1427 0 discriminator 3
	lwz 4,504(1)
	mr 5,3
	li 6,0
	mr 3,29
	bl _ZN10idMaterial6EmitOpEii11expOpType_t
	.loc 3 1427 0 discriminator 4
	lwz 9,488(1)
	mr 25,3
	mr 3,29
	lfs 1,0(9)
	bl _ZN10idMaterial21GetExpressionConstantEf
	.loc 3 1427 0 discriminator 5
	mr 5,3
	mr 4,25
	mr 3,29
	li 6,0
	bl _ZN10idMaterial6EmitOpEii11expOpType_t
	.loc 3 1433 0 is_stmt 1 discriminator 6
	lwz 11,500(1)
	.loc 3 1429 0 discriminator 6
	lwz 0,492(1)
	.loc 3 1430 0 discriminator 6
	lwz 9,496(1)
	.loc 3 1433 0 discriminator 6
	lfs 1,0(11)
	.loc 3 1427 0 discriminator 6
	stw 3,16(1)
	.loc 3 1433 0 discriminator 6
	mr 3,29
	.loc 3 1429 0 discriminator 6
	stw 0,20(1)
	.loc 3 1430 0 discriminator 6
	stw 9,24(1)
	.loc 3 1433 0 discriminator 6
	bl _ZN10idMaterial21GetExpressionConstantEf
	.loc 3 1433 0 is_stmt 0 discriminator 7
	lwz 5,492(1)
	mr 4,3
	li 6,2
	mr 3,29
	bl _ZN10idMaterial6EmitOpEii11expOpType_t
	.loc 3 1433 0 discriminator 1
	lwz 11,500(1)
	mr 25,3
	mr 3,29
	lfs 1,0(11)
	bl _ZN10idMaterial21GetExpressionConstantEf
	.loc 3 1433 0 discriminator 2
	lwz 5,496(1)
	mr 4,3
	li 6,2
	mr 3,29
	bl _ZN10idMaterial6EmitOpEii11expOpType_t
	.loc 3 1433 0 discriminator 3
	mr 5,3
	mr 4,25
	mr 3,29
	li 6,0
	bl _ZN10idMaterial6EmitOpEii11expOpType_t
	.loc 3 1433 0 discriminator 4
	lwz 9,488(1)
	mr 25,3
	mr 3,29
	lfs 1,0(9)
	bl _ZN10idMaterial21GetExpressionConstantEf
	.loc 3 1433 0 discriminator 5
	mr 5,3
	mr 4,25
	mr 3,29
	li 6,0
	bl _ZN10idMaterial6EmitOpEii11expOpType_t
	b .L541
.LVL599:
.L472:
.LBE2839:
.LBE2859:
.LBB2860:
.LBB2861:
	.loc 4 690 0 is_stmt 1
	lis 4,.LC154@ha
	lwz 3,4(31)
	la 4,.LC154@l(4)
	bl _ZN5idStr4IcmpEPKcS1_
.LBE2861:
.LBE2860:
	.loc 3 1440 0
	cmpwi 7,3,0
	bne- 7,.L475
	.loc 3 1441 0
	lwz 0,8(26)
	ori 0,0,512
	stw 0,8(26)
	lwz 0,104(29)
	.loc 3 1442 0
	b .L520
.LVL600:
.L552:
.LBB2862:
.LBB2840:
	.loc 3 1416 0
	lis 9,common@ha
	lis 4,.LC153@ha
	lwz 3,common@l(9)
.LVL601:
	la 4,.LC153@l(4)
	lwz 9,0(3)
	lwz 0,80(9)
	mtctr 0
	crxor 6,6,6
	bctrl
	b .L533
.LVL602:
.L551:
	.loc 3 1408 0
	lis 9,common@ha
	lis 4,.LC151@ha
	lwz 3,common@l(9)
.LVL603:
	la 4,.LC151@l(4)
	lwz 9,0(3)
	lwz 0,80(9)
	mtctr 0
	crxor 6,6,6
	bctrl
	b .L533
.LVL604:
.L475:
.LBE2840:
.LBE2862:
.LBB2863:
.LBB2864:
	.loc 4 690 0
	lis 4,.LC155@ha
	lwz 3,4(31)
	la 4,.LC155@l(4)
	bl _ZN5idStr4IcmpEPKcS1_
.LBE2864:
.LBE2863:
	.loc 3 1444 0
	cmpwi 7,3,0
	bne- 7,.L476
	.loc 3 1445 0
	lwz 0,8(26)
	ori 0,0,1024
	stw 0,8(26)
	lwz 0,104(29)
	.loc 3 1446 0
	b .L520
.L476:
.LVL605:
.LBB2865:
.LBB2866:
	.loc 4 690 0
	lis 4,.LC156@ha
	lwz 3,4(31)
	la 4,.LC156@l(4)
	bl _ZN5idStr4IcmpEPKcS1_
.LBE2866:
.LBE2865:
	.loc 3 1448 0
	cmpwi 7,3,0
	bne- 7,.L477
	.loc 3 1449 0
	lwz 0,8(26)
	ori 0,0,2048
	stw 0,8(26)
	lwz 0,104(29)
	.loc 3 1450 0
	b .L520
.L477:
.LVL606:
.LBB2867:
.LBB2868:
	.loc 4 690 0
	lis 4,.LC157@ha
	lwz 3,4(31)
	la 4,.LC157@l(4)
	bl _ZN5idStr4IcmpEPKcS1_
.LBE2868:
.LBE2867:
	.loc 3 1452 0
	cmpwi 7,3,0
	bne- 7,.L478
	.loc 3 1453 0
	lwz 0,8(26)
	ori 0,0,4096
	stw 0,8(26)
	lwz 0,104(29)
	.loc 3 1454 0
	b .L520
.L478:
.LVL607:
.LBB2869:
.LBB2870:
	.loc 4 690 0
	lis 4,.LC158@ha
	lwz 3,4(31)
	la 4,.LC158@l(4)
	bl _ZN5idStr4IcmpEPKcS1_
.LBE2870:
.LBE2869:
	.loc 3 1456 0
	cmpwi 7,3,0
	bne- 7,.L479
	.loc 3 1457 0
	lwz 0,8(26)
	ori 0,0,3584
	stw 0,8(26)
	lwz 0,104(29)
	.loc 3 1458 0
	b .L520
.L479:
.LVL608:
.LBB2871:
.LBB2872:
	.loc 4 690 0
	lis 4,.LC159@ha
	lwz 3,4(31)
	la 4,.LC159@l(4)
	bl _ZN5idStr4IcmpEPKcS1_
.LBE2872:
.LBE2871:
	.loc 3 1460 0
	cmpwi 7,3,0
	bne- 7,.L480
	.loc 3 1461 0
	lwz 0,8(26)
	ori 0,0,256
	stw 0,8(26)
	lwz 0,104(29)
	.loc 3 1462 0
	b .L520
.L480:
.LVL609:
.LBB2873:
.LBB2874:
	.loc 4 690 0
	lis 4,.LC160@ha
	lwz 3,4(31)
	la 4,.LC160@l(4)
	bl _ZN5idStr4IcmpEPKcS1_
.LBE2874:
.LBE2873:
	.loc 3 1464 0
	cmpwi 7,3,0
	bne- 7,.L481
	.loc 3 1465 0
	li 0,1
	.loc 3 1466 0
	mr 3,29
	.loc 3 1465 0
	stb 0,28(26)
	.loc 3 1466 0
	mr 4,30
	bl _ZN10idMaterial15ParseExpressionER7idLexer
	stw 3,32(26)
	.loc 3 1467 0
	li 0,2
	stw 0,192(29)
	lwz 0,104(29)
	.loc 3 1468 0
	b .L520
.L481:
.LVL610:
.LBB2875:
.LBB2876:
	.loc 4 690 0
	lis 4,.LC161@ha
	lwz 3,4(31)
	la 4,.LC161@l(4)
	bl _ZN5idStr4IcmpEPKcS1_
.LBE2876:
.LBE2875:
	.loc 3 1472 0
	cmpwi 0,3,0
	bne- 0,.L482
	.loc 3 1473 0
	li 0,1
	stw 0,12(26)
	.loc 3 1474 0
	li 0,2
	stw 0,16(26)
	.loc 3 1475 0
	li 0,3
	stw 0,20(26)
	.loc 3 1476 0
	li 0,4
	stw 0,24(26)
	.loc 3 1477 0
	lwz 9,240(29)
	addis 9,9,0x1
	stb 3,5120(9)
	lwz 0,104(29)
	.loc 3 1478 0
	b .L520
.L482:
.LVL611:
.LBB2877:
.LBB2878:
	.loc 4 690 0
	lis 4,.LC162@ha
	lwz 3,4(31)
	la 4,.LC162@l(4)
	bl _ZN5idStr4IcmpEPKcS1_
.LBE2878:
.LBE2877:
	.loc 3 1481 0
	cmpwi 7,3,0
	bne- 7,.L483
	.loc 3 1482 0
	mr 3,29
	mr 4,30
	bl _ZN10idMaterial15ParseExpressionER7idLexer
	.loc 3 1483 0
	lis 25,.LC103@ha
	.loc 3 1482 0
	stw 3,12(26)
	.loc 3 1483 0
	la 25,.LC103@l(25)
	mr 3,29
	mr 4,30
	mr 5,25
	bl _ZN10idMaterial10MatchTokenER7idLexerPKc
	.loc 3 1484 0
	mr 3,29
	mr 4,30
	bl _ZN10idMaterial15ParseExpressionER7idLexer
	stw 3,16(26)
	.loc 3 1485 0
	mr 4,30
	mr 3,29
	mr 5,25
	bl _ZN10idMaterial10MatchTokenER7idLexerPKc
	.loc 3 1486 0
	mr 3,29
	mr 4,30
	bl _ZN10idMaterial15ParseExpressionER7idLexer
	stw 3,20(26)
	.loc 3 1487 0
	mr 4,30
	mr 3,29
	mr 5,25
	bl _ZN10idMaterial10MatchTokenER7idLexerPKc
.L532:
	.loc 3 1504 0
	mr 3,29
	mr 4,30
	bl _ZN10idMaterial15ParseExpressionER7idLexer
	stw 3,24(26)
	lwz 0,104(29)
	.loc 3 1505 0
	b .L520
.L483:
.LVL612:
.LBB2879:
.LBB2880:
	.loc 4 690 0
	lis 4,.LC163@ha
	lwz 3,4(31)
	la 4,.LC163@l(4)
	bl _ZN5idStr4IcmpEPKcS1_
.LBE2880:
.LBE2879:
	.loc 3 1491 0
	cmpwi 7,3,0
	bne- 7,.L484
	.loc 3 1492 0
	mr 3,29
	mr 4,30
	bl _ZN10idMaterial15ParseExpressionER7idLexer
.L527:
	.loc 3 1514 0
	stw 3,12(26)
	lwz 0,104(29)
	.loc 3 1515 0
	b .L520
.L484:
.LVL613:
.LBB2881:
.LBB2882:
	.loc 4 690 0
	lis 4,.LC164@ha
	lwz 3,4(31)
	la 4,.LC164@l(4)
	bl _ZN5idStr4IcmpEPKcS1_
.LBE2882:
.LBE2881:
	.loc 3 1495 0
	cmpwi 7,3,0
	bne- 7,.L485
	.loc 3 1496 0
	mr 3,29
	mr 4,30
	bl _ZN10idMaterial15ParseExpressionER7idLexer
	stw 3,16(26)
	lwz 0,104(29)
	.loc 3 1497 0
	b .L520
.L485:
.LVL614:
.LBB2883:
.LBB2884:
	.loc 4 690 0
	lis 4,.LC165@ha
	lwz 3,4(31)
	la 4,.LC165@l(4)
	bl _ZN5idStr4IcmpEPKcS1_
.LBE2884:
.LBE2883:
	.loc 3 1499 0
	cmpwi 7,3,0
	bne- 7,.L486
	.loc 3 1500 0
	mr 3,29
	mr 4,30
	bl _ZN10idMaterial15ParseExpressionER7idLexer
	stw 3,20(26)
	lwz 0,104(29)
	.loc 3 1501 0
	b .L520
.L486:
.LVL615:
.LBB2885:
.LBB2886:
	.loc 4 690 0
	lis 4,.LC166@ha
	lwz 3,4(31)
	la 4,.LC166@l(4)
	bl _ZN5idStr4IcmpEPKcS1_
.LBE2886:
.LBE2885:
	.loc 3 1503 0
	cmpwi 7,3,0
	beq- 7,.L532
.LVL616:
.LBB2887:
.LBB2888:
	.loc 4 690 0
	lis 4,.LC167@ha
	lwz 3,4(31)
	la 4,.LC167@l(4)
	bl _ZN5idStr4IcmpEPKcS1_
.LBE2888:
.LBE2887:
	.loc 3 1507 0
	cmpwi 7,3,0
	bne- 7,.L488
	.loc 3 1509 0
	mr 3,29
	mr 4,30
	bl _ZN10idMaterial15ParseExpressionER7idLexer
.L526:
	.loc 3 1514 0
	stw 3,20(26)
	stw 3,16(26)
	b .L527
.L488:
.LVL617:
.LBB2889:
.LBB2890:
	.loc 4 690 0
	lis 4,.LC168@ha
	lwz 3,4(31)
	la 4,.LC168@l(4)
	bl _ZN5idStr4IcmpEPKcS1_
.LBE2890:
.LBE2889:
	.loc 3 1512 0
	cmpwi 7,3,0
	bne- 7,.L489
	.loc 3 1514 0
	mr 3,29
	mr 4,30
	bl _ZN10idMaterial15ParseExpressionER7idLexer
	stw 3,24(26)
	b .L526
.L489:
.LVL618:
.LBB2891:
.LBB2892:
	.loc 4 690 0
	lis 4,.LC169@ha
	lwz 3,4(31)
	la 4,.LC169@l(4)
	bl _ZN5idStr4IcmpEPKcS1_
.LBE2892:
.LBE2891:
	.loc 3 1518 0
	cmpwi 7,3,0
	bne- 7,.L490
	.loc 3 1519 0
	mr 3,29
	mr 4,30
	bl _ZN10idMaterial15ParseExpressionER7idLexer
	stw 3,0(26)
	lwz 0,104(29)
	.loc 3 1520 0
	b .L520
.L490:
.LVL619:
.LBB2893:
.LBB2894:
	.loc 4 690 0
	lis 4,.LC170@ha
	lwz 3,4(31)
	la 4,.LC170@l(4)
	bl _ZN5idStr4IcmpEPKcS1_
.LBE2894:
.LBE2893:
	.loc 3 1522 0
	cmpwi 7,3,0
	bne- 7,.L491
	.loc 3 1523 0
	mr 3,30
	mr 4,31
	bl _ZN7idLexer15ReadTokenOnLineEP7idToken
	cmpwi 7,3,0
	beq+ 7,.L521
	.loc 3 1524 0
	li 3,0
	lwz 4,4(31)
	ori 3,3,34336
	bl _Z16R_FindARBProgramjPKc
	stw 3,112(1)
	.loc 3 1525 0
	li 3,0
	lwz 4,4(31)
	ori 3,3,34820
	bl _Z16R_FindARBProgramjPKc
.L524:
	.loc 3 1531 0
	stw 3,184(1)
	lwz 0,104(29)
	b .L520
.L491:
.LVL620:
.LBB2895:
.LBB2896:
	.loc 4 690 0
	lis 4,.LC171@ha
	lwz 3,4(31)
	la 4,.LC171@l(4)
	bl _ZN5idStr4IcmpEPKcS1_
.LBE2896:
.LBE2895:
	.loc 3 1529 0
	cmpwi 7,3,0
	bne- 7,.L493
	.loc 3 1530 0
	mr 3,30
	mr 4,31
	bl _ZN7idLexer15ReadTokenOnLineEP7idToken
	cmpwi 7,3,0
	beq+ 7,.L521
	.loc 3 1531 0
	li 3,0
	lwz 4,4(31)
	ori 3,3,34820
	bl _Z16R_FindARBProgramjPKc
	b .L524
.L493:
.LVL621:
.LBB2897:
.LBB2898:
	.loc 4 690 0
	lis 4,.LC172@ha
	lwz 3,4(31)
	la 4,.LC172@l(4)
	bl _ZN5idStr4IcmpEPKcS1_
.LBE2898:
.LBE2897:
	.loc 3 1535 0
	cmpwi 7,3,0
	bne- 7,.L495
	.loc 3 1536 0
	mr 3,30
	mr 4,31
	bl _ZN7idLexer15ReadTokenOnLineEP7idToken
	cmpwi 7,3,0
	beq+ 7,.L521
	.loc 3 1537 0
	li 3,0
	lwz 4,4(31)
	ori 3,3,34336
	bl _Z16R_FindARBProgramjPKc
	stw 3,112(1)
	lwz 0,104(29)
	b .L520
.L495:
.LVL622:
.LBB2899:
.LBB2900:
	.loc 4 690 0
	lis 4,.LC173@ha
	lwz 3,4(31)
	la 4,.LC173@l(4)
	bl _ZN5idStr4IcmpEPKcS1_
.LBE2900:
.LBE2899:
	.loc 3 1556 0
	cmpwi 7,3,0
	bne- 7,.L497
	.loc 3 1557 0
	mr 3,29
	mr 4,30
	addi 5,1,112
	bl _ZN10idMaterial15ParseVertexParmER7idLexerP16newShaderStage_t
.LBE2934:
	.loc 3 1144 0
	lwz 0,104(29)
	b .L545
.L497:
.LVL623:
.LBB2935:
.LBB2901:
.LBB2902:
	.loc 4 690 0
	lis 4,.LC174@ha
	lwz 3,4(31)
	la 4,.LC174@l(4)
	bl _ZN5idStr4IcmpEPKcS1_
.LBE2902:
.LBE2901:
	.loc 3 1561 0
	cmpwi 7,3,0
	bne- 7,.L498
	.loc 3 1562 0
	mr 3,29
	mr 4,30
	addi 5,1,112
	bl _ZN10idMaterial16ParseFragmentMapER7idLexerP16newShaderStage_t
.LEHE54:
.LBE2935:
	.loc 3 1144 0
	lwz 0,104(29)
	b .L545
.LBE2937:
	.cfi_endproc
.LFE2595:
	.section	.gcc_except_table
.LLSDA2595:
	.byte	0xff
	.byte	0xff
	.byte	0x1
	.uleb128 .LLSDACSE2595-.LLSDACSB2595
.LLSDACSB2595:
	.uleb128 .LEHB50-.LFB2595
	.uleb128 .LEHE50-.LEHB50
	.uleb128 .L519-.LFB2595
	.uleb128 0
	.uleb128 .LEHB51-.LFB2595
	.uleb128 .LEHE51-.LEHB51
	.uleb128 0
	.uleb128 0
	.uleb128 .LEHB52-.LFB2595
	.uleb128 .LEHE52-.LEHB52
	.uleb128 .L519-.LFB2595
	.uleb128 0
	.uleb128 .LEHB53-.LFB2595
	.uleb128 .LEHE53-.LEHB53
	.uleb128 0
	.uleb128 0
	.uleb128 .LEHB54-.LFB2595
	.uleb128 .LEHE54-.LEHB54
	.uleb128 .L519-.LFB2595
	.uleb128 0
.LLSDACSE2595:
	.section	".text"
	.size	_ZN10idMaterial10ParseStageER7idLexer15textureRepeat_t, .-_ZN10idMaterial10ParseStageER7idLexer15textureRepeat_t
	.align 2
	.globl _ZN10idMaterial11ParseDeformER7idLexer
	.type	_ZN10idMaterial11ParseDeformER7idLexer, @function
_ZN10idMaterial11ParseDeformER7idLexer:
.LFB2596:
	.loc 3 1616 0
	.cfi_startproc
	.cfi_personality 0,__gxx_personality_v0
	.cfi_lsda 0,.LLSDA2596
.LVL624:
	mflr 0
	stwu 1,-96(1)
.LCFI128:
	.cfi_def_cfa_offset 96
	.cfi_register 65, 0
.LVL625:
.LBB2938:
.LBB2939:
.LBB2940:
.LBB2941:
.LBB2942:
	.loc 4 357 0
	li 9,20
.LBE2942:
.LBE2941:
.LBE2940:
.LBE2939:
.LBE2938:
	.loc 3 1616 0
	stw 30,88(1)
	mr 30,4
	.cfi_offset 30, -8
	stw 0,100(1)
.LBB3019:
.LBB2955:
.LBB2951:
.LBB2947:
.LBB2943:
	.loc 4 356 0
	li 0,0
	.cfi_offset 65, 4
.LBE2943:
.LBE2947:
.LBE2951:
.LBE2955:
.LBE3019:
	.loc 3 1616 0
	stw 31,92(1)
	.loc 3 1616 0
	mr 31,3
	.cfi_offset 31, -4
.LBB3020:
.LBB2956:
.LBB2952:
.LBB2948:
.LBB2944:
	.loc 4 357 0
	stw 9,16(1)
.LBE2944:
.LBE2948:
.LBE2952:
.LBE2956:
	.loc 3 1619 0
	mr 3,4
.LVL626:
.LBB2957:
.LBB2953:
.LBB2949:
.LBB2945:
	.loc 4 358 0
	addi 9,1,20
.LBE2945:
.LBE2949:
.LBE2953:
.LBE2957:
	.loc 3 1619 0
	addi 4,1,8
.LVL627:
.LBB2958:
.LBB2954:
.LBB2950:
.LBB2946:
	.loc 4 356 0
	stw 0,8(1)
	.loc 4 358 0
	stw 9,12(1)
	.loc 4 359 0
	stb 0,20(1)
.LEHB55:
.LBE2946:
.LBE2950:
.LBE2954:
.LBE2958:
	.loc 3 1619 0
	bl _ZN7idLexer14ExpectAnyTokenEP7idToken
.LVL628:
	cmpwi 7,3,0
	beq- 7,.L554
.LVL629:
.LBB2959:
.LBB2960:
	.loc 4 690 0
	lis 4,.LC178@ha
	lwz 3,12(1)
	la 4,.LC178@l(4)
	bl _ZN5idStr4IcmpEPKcS1_
.LEHE55:
.LBE2960:
.LBE2959:
	.loc 3 1623 0
	cmpwi 7,3,0
	bne- 7,.L555
.LBB2961:
.LBB2962:
	.loc 6 488 0
	lwz 0,104(31)
.LBE2962:
.LBE2961:
	.loc 3 1624 0
	li 9,1
	stw 9,152(31)
	.loc 3 1625 0
	li 9,2
.LBB2965:
.LBB2963:
	.loc 6 488 0
	ori 0,0,4
.LBE2963:
.LBE2965:
	.loc 3 1625 0
	stw 9,196(31)
.LVL630:
.LBB2966:
.LBB2964:
	.loc 6 488 0
	stw 0,104(31)
.LVL631:
.L554:
.LBE2964:
.LBE2966:
.LBB2967:
.LBB2968:
.LBB2969:
.LBB2970:
.LBB2971:
	.loc 4 501 0
	addi 3,1,8
.LEHB56:
	bl _ZN5idStr8FreeDataEv
.LEHE56:
.LVL632:
.L553:
.LBE2971:
.LBE2970:
.LBE2969:
.LBE2968:
.LBE2967:
.LBE3020:
	.loc 3 1693 0
	lwz 0,100(1)
	lwz 30,88(1)
.LVL633:
	mtlr 0
	lwz 31,92(1)
.LVL634:
	addi 1,1,96
	.cfi_remember_state
.LCFI129:
	.cfi_def_cfa_offset 0
	.cfi_restore 31
	.cfi_restore 30
	blr
.LVL635:
.L555:
.LCFI130:
	.cfi_restore_state
.LBB3021:
.LBB2972:
.LBB2973:
	.loc 4 690 0
	lis 4,.LC179@ha
	lwz 3,12(1)
	la 4,.LC179@l(4)
.LEHB57:
	bl _ZN5idStr4IcmpEPKcS1_
.LBE2973:
.LBE2972:
	.loc 3 1629 0
	cmpwi 7,3,0
	bne- 7,.L556
.LBB2974:
.LBB2975:
	.loc 6 488 0
	lwz 9,104(31)
.LBE2975:
.LBE2974:
	.loc 3 1630 0
	li 0,2
	stw 0,152(31)
.LBB2978:
.LBB2976:
	.loc 6 488 0
	ori 9,9,4
.LBE2976:
.LBE2978:
	.loc 3 1631 0
	stw 0,196(31)
.LVL636:
.LBB2979:
.LBB2977:
	.loc 6 488 0
	stw 9,104(31)
	b .L554
.LVL637:
.L556:
.LBE2977:
.LBE2979:
.LBB2980:
.LBB2981:
	.loc 4 690 0
	lis 4,.LC180@ha
	lwz 3,12(1)
	la 4,.LC180@l(4)
	bl _ZN5idStr4IcmpEPKcS1_
.LBE2981:
.LBE2980:
	.loc 3 1635 0
	cmpwi 7,3,0
	bne- 7,.L557
	.loc 3 1636 0
	li 0,3
	.loc 3 1638 0
	mr 3,31
	.loc 3 1636 0
	stw 0,152(31)
	.loc 3 1637 0
	li 0,2
	stw 0,196(31)
	.loc 3 1638 0
	mr 4,30
	bl _ZN10idMaterial15ParseExpressionER7idLexer
.LBB2982:
.LBB2983:
	.loc 6 488 0
	lwz 0,104(31)
.LBE2983:
.LBE2982:
	.loc 3 1638 0
	stw 3,156(31)
.LVL638:
.LBB2985:
.LBB2984:
	.loc 6 488 0
	ori 0,0,4
	stw 0,104(31)
	b .L554
.LVL639:
.L557:
.LBE2984:
.LBE2985:
.LBB2986:
.LBB2987:
	.loc 4 690 0
	lis 4,.LC181@ha
	lwz 3,12(1)
	la 4,.LC181@l(4)
	bl _ZN5idStr4IcmpEPKcS1_
.LBE2987:
.LBE2986:
	.loc 3 1642 0
	cmpwi 7,3,0
	bne- 7,.L558
	.loc 3 1643 0
	li 0,4
	.loc 3 1644 0
	mr 3,31
	.loc 3 1643 0
	stw 0,152(31)
	.loc 3 1644 0
	mr 4,30
	bl _ZN10idMaterial15ParseExpressionER7idLexer
	.loc 3 1649 0
	stw 3,156(31)
	b .L554
.L558:
.LVL640:
.LBB2988:
.LBB2989:
	.loc 4 690 0
	lis 4,.LC182@ha
	lwz 3,12(1)
	la 4,.LC182@l(4)
	bl _ZN5idStr4IcmpEPKcS1_
.LBE2989:
.LBE2988:
	.loc 3 1647 0
	cmpwi 7,3,0
	bne- 7,.L559
	.loc 3 1648 0
	li 0,5
	.loc 3 1649 0
	mr 3,31
	.loc 3 1648 0
	stw 0,152(31)
	.loc 3 1649 0
	mr 4,30
	bl _ZN10idMaterial15ParseExpressionER7idLexer
	stw 3,156(31)
	b .L554
.L559:
.LVL641:
.LBB2990:
.LBB2991:
	.loc 4 690 0
	lis 4,.LC183@ha
	lwz 3,12(1)
	la 4,.LC183@l(4)
	bl _ZN5idStr4IcmpEPKcS1_
.LBE2991:
.LBE2990:
	.loc 3 1652 0
	cmpwi 7,3,0
	bne- 7,.L560
	.loc 3 1653 0
	li 0,9
	.loc 3 1655 0
	mr 3,30
	.loc 3 1653 0
	stw 0,152(31)
	.loc 3 1655 0
	addi 4,1,8
	bl _ZN7idLexer14ExpectAnyTokenEP7idToken
	cmpwi 7,3,0
	beq- 7,.L579
	.loc 3 1660 0
	lis 9,declManager@ha
	li 4,0
	lwz 3,declManager@l(9)
	li 6,1
	lwz 5,12(1)
	li 7,0
	lwz 9,0(3)
	lwz 0,60(9)
	mtctr 0
	bctrl
	stw 3,172(31)
	.loc 3 1662 0
	mr 4,30
	mr 3,31
	bl _ZN10idMaterial15ParseExpressionER7idLexer
	.loc 3 1662 0 is_stmt 0 discriminator 1
	stw 3,156(31)
	.loc 3 1663 0 is_stmt 1 discriminator 1
	mr 4,30
	mr 3,31
	bl _ZN10idMaterial15ParseExpressionER7idLexer
	stw 3,160(31)
	.loc 3 1664 0 discriminator 1
	mr 4,30
	mr 3,31
	bl _ZN10idMaterial15ParseExpressionER7idLexer
	stw 3,164(31)
	b .L554
.L560:
.LVL642:
.LBB2992:
.LBB2993:
	.loc 4 690 0
	lis 4,.LC185@ha
	lwz 3,12(1)
	la 4,.LC185@l(4)
	bl _ZN5idStr4IcmpEPKcS1_
.LBE2993:
.LBE2992:
	.loc 3 1667 0
	cmpwi 7,3,0
	bne- 7,.L562
	.loc 3 1668 0
	li 0,6
	stw 0,152(31)
	b .L554
.LVL643:
.L579:
	.loc 3 1684 0
	lis 4,.LC184@ha
	mr 3,30
	la 4,.LC184@l(4)
	crxor 6,6,6
	bl _ZN7idLexer7WarningEPKcz
.LVL644:
.LBB2994:
.LBB2995:
	.loc 6 488 0
	lwz 0,104(31)
	ori 0,0,1
	stw 0,104(31)
	b .L554
.LVL645:
.L562:
.LBE2995:
.LBE2994:
.LBB2996:
.LBB2997:
	.loc 4 690 0
	lis 4,.LC186@ha
	lwz 3,12(1)
	la 4,.LC186@l(4)
	bl _ZN5idStr4IcmpEPKcS1_
.LBE2997:
.LBE2996:
	.loc 3 1671 0
	cmpwi 7,3,0
	bne- 7,.L563
	.loc 3 1672 0
	li 0,7
	.loc 3 1673 0
	mr 3,30
	.loc 3 1672 0
	stw 0,152(31)
	.loc 3 1673 0
	addi 4,1,8
	bl _ZN7idLexer14ExpectAnyTokenEP7idToken
.L583:
	.loc 3 1683 0
	cmpwi 7,3,0
	beq- 7,.L579
	.loc 3 1688 0
	lis 9,declManager@ha
	li 4,7
	lwz 3,declManager@l(9)
	li 6,1
	lwz 5,12(1)
	li 7,0
	lwz 9,0(3)
	lwz 0,60(9)
	mtctr 0
	bctrl
	stw 3,172(31)
	b .L554
.L563:
.LVL646:
.LBB2998:
.LBB2999:
	.loc 4 690 0
	lis 4,.LC187@ha
	lwz 3,12(1)
	la 4,.LC187@l(4)
	bl _ZN5idStr4IcmpEPKcS1_
.LBE2999:
.LBE2998:
	.loc 3 1681 0
	cmpwi 7,3,0
	bne- 7,.L565
	.loc 3 1682 0
	li 0,8
	.loc 3 1683 0
	mr 3,30
	.loc 3 1682 0
	stw 0,152(31)
	.loc 3 1683 0
	addi 4,1,8
	bl _ZN7idLexer14ExpectAnyTokenEP7idToken
	b .L583
.L565:
	.loc 3 1691 0
	lis 4,.LC188@ha
	lwz 5,12(1)
	mr 3,30
	la 4,.LC188@l(4)
	crxor 6,6,6
	bl _ZN7idLexer7WarningEPKcz
.LEHE57:
.LVL647:
.LBB3000:
.LBB3001:
	.loc 6 488 0
	lwz 0,104(31)
.LBE3001:
.LBE3000:
.LBB3003:
.LBB3004:
.LBB3005:
.LBB3006:
.LBB3007:
	.loc 4 501 0
	addi 3,1,8
.LBE3007:
.LBE3006:
.LBE3005:
.LBE3004:
.LBE3003:
.LBB3012:
.LBB3002:
	.loc 6 488 0
	ori 0,0,1
	stw 0,104(31)
.LVL648:
.LEHB58:
.LBE3002:
.LBE3012:
.LBB3013:
.LBB3011:
.LBB3010:
.LBB3009:
.LBB3008:
	.loc 4 501 0
	bl _ZN5idStr8FreeDataEv
.LEHE58:
	b .L553
.LVL649:
.L574:
	mr 31,3
.LVL650:
.LBE3008:
.LBE3009:
.LBE3010:
.LBE3011:
.LBE3013:
.LBB3014:
.LBB3015:
.LBB3016:
.LBB3017:
.LBB3018:
	addi 3,1,8
	bl _ZN5idStr8FreeDataEv
	mr 3,31
.LEHB59:
	bl _Unwind_Resume
.LEHE59:
.LBE3018:
.LBE3017:
.LBE3016:
.LBE3015:
.LBE3014:
.LBE3021:
	.cfi_endproc
.LFE2596:
	.section	.gcc_except_table
.LLSDA2596:
	.byte	0xff
	.byte	0xff
	.byte	0x1
	.uleb128 .LLSDACSE2596-.LLSDACSB2596
.LLSDACSB2596:
	.uleb128 .LEHB55-.LFB2596
	.uleb128 .LEHE55-.LEHB55
	.uleb128 .L574-.LFB2596
	.uleb128 0
	.uleb128 .LEHB56-.LFB2596
	.uleb128 .LEHE56-.LEHB56
	.uleb128 0
	.uleb128 0
	.uleb128 .LEHB57-.LFB2596
	.uleb128 .LEHE57-.LEHB57
	.uleb128 .L574-.LFB2596
	.uleb128 0
	.uleb128 .LEHB58-.LFB2596
	.uleb128 .LEHE58-.LEHB58
	.uleb128 0
	.uleb128 0
	.uleb128 .LEHB59-.LFB2596
	.uleb128 .LEHE59-.LEHB59
	.uleb128 0
	.uleb128 0
.LLSDACSE2596:
	.section	".text"
	.size	_ZN10idMaterial11ParseDeformER7idLexer, .-_ZN10idMaterial11ParseDeformER7idLexer
	.align 2
	.globl _ZN10idMaterial17AddImplicitStagesE15textureRepeat_t
	.type	_ZN10idMaterial17AddImplicitStagesE15textureRepeat_t, @function
_ZN10idMaterial17AddImplicitStagesE15textureRepeat_t:
.LFB2597:
	.loc 3 1711 0
	.cfi_startproc
	.cfi_personality 0,__gxx_personality_v0
	.cfi_lsda 0,.LLSDA2597
.LVL651:
	stwu 1,-1264(1)
.LCFI131:
	.cfi_def_cfa_offset 1264
	mflr 0
	stw 28,1248(1)
	mr 28,3
	.cfi_offset 28, -16
	.cfi_register 65, 0
.LBB3022:
	.loc 3 1713 0
	addi 3,1,8
.LVL652:
.LBE3022:
	.loc 3 1711 0
	stw 0,1268(1)
	stw 27,1244(1)
	mr 27,4
	.cfi_offset 27, -20
	.cfi_offset 65, 4
	stw 26,1240(1)
	stw 29,1252(1)
	stw 30,1256(1)
	stw 31,1260(1)
.LEHB60:
.LBB3037:
	.loc 3 1713 0
	.cfi_offset 31, -4
	.cfi_offset 30, -8
	.cfi_offset 29, -12
	.cfi_offset 26, -24
	bl _ZN7idLexerC1Ev
.LEHE60:
.LVL653:
	.loc 3 2840 0
	lwz 3,4(28)
.LBB3023:
.LBB3024:
	.loc 2 162 0
	lwz 9,0(3)
	lwz 0,36(9)
	mtctr 0
.LEHB61:
	bctrl
.LEHE61:
.LVL654:
.LBE3024:
.LBE3023:
.LBB3025:
	.loc 3 1721 0 discriminator 1
	lwz 10,228(28)
	cmpwi 7,10,0
	ble- 7,.L585
	.loc 3 1711 0
	lwz 9,240(28)
.LBE3025:
.LBE3037:
	li 29,0
	li 11,0
	li 30,0
.LBB3038:
.LBB3026:
	addis 9,9,0x1
.LBE3026:
.LBE3038:
	li 31,0
.LBB3039:
.LBB3027:
	addi 9,9,-22524
	.loc 3 1723 0
	mtctr 10
	b .L588
.LVL655:
.L603:
	.loc 3 1725 0
	cmpwi 7,0,2
	beq- 7,.L595
	.loc 3 1728 0
	cmpwi 7,0,3
	bne- 7,.L586
	.loc 3 1729 0
	li 30,1
.L586:
	.loc 3 1731 0
	lwz 0,40(9)
	cmpwi 7,0,2
	beq- 7,.L601
.L587:
	.loc 3 1721 0
	addi 9,9,108
	bdz .L602
.L588:
	.loc 3 1722 0
	lwz 0,0(9)
	cmpwi 7,0,1
	bne+ 7,.L603
	.loc 3 1731 0
	lwz 0,40(9)
	.loc 3 1723 0
	li 11,1
	.loc 3 1731 0
	cmpwi 7,0,2
	bne+ 7,.L587
.L601:
	.loc 3 1732 0
	li 29,1
	.loc 3 1721 0
	addi 9,9,108
	bdnz .L588
.L602:
.LBE3027:
	.loc 3 1737 0
	cmpwi 7,11,0
	beq- 7,.L604
.L589:
	.loc 3 1741 0
	cmpwi 7,10,256
	beq- 7,.L585
	.loc 3 1745 0
	cmpwi 7,11,0
	beq- 7,.L605
.L590:
	.loc 3 1753 0
	cmpwi 7,31,0
	bne- 7,.L585
	.loc 3 1753 0 is_stmt 0 discriminator 1
	cmpwi 7,30,0
	bne- 7,.L585
	.loc 3 1753 0 discriminator 2
	cmpwi 7,29,0
	beq- 7,.L606
.L585:
	.loc 3 1759 0 is_stmt 1
	addi 3,1,8
.LEHB62:
	bl _ZN7idLexerD1Ev
.LEHE62:
.LBE3039:
	.loc 3 1761 0
	lwz 0,1268(1)
	lwz 26,1240(1)
	mtlr 0
	lwz 27,1244(1)
.LVL656:
	lwz 28,1248(1)
.LVL657:
	lwz 29,1252(1)
	lwz 30,1256(1)
	lwz 31,1260(1)
	addi 1,1,1264
	.cfi_remember_state
.LCFI132:
	.cfi_def_cfa_offset 0
	.cfi_restore 31
	.cfi_restore 30
	.cfi_restore 29
	.cfi_restore 28
	.cfi_restore 27
	.cfi_restore 26
	blr
.LVL658:
.L595:
.LCFI133:
	.cfi_restore_state
.LBB3040:
.LBB3028:
	.loc 3 1726 0
	li 31,1
	b .L586
.L604:
.LBE3028:
	.loc 3 1737 0 discriminator 1
	cmpwi 7,31,0
	bne- 7,.L589
	.loc 3 1737 0 is_stmt 0 discriminator 2
	cmpwi 7,30,0
	beq- 7,.L585
	.loc 3 1737 0
	mr 11,31
	b .L589
.L605:
	.loc 3 1746 0 is_stmt 1
	addi 26,1,216
	lis 5,.LC189@ha
	mr 3,26
	li 4,1024
	la 5,.LC189@l(5)
.LEHB63:
	crxor 6,6,6
	bl _ZN5idStr8snPrintfEPciPKcz
	.loc 3 1747 0
	mr 3,26
	bl strlen
	lis 6,.LC100@ha
	mr 5,3
	mr 4,26
	addi 3,1,8
	la 6,.LC100@l(6)
	li 7,1
	bl _ZN7idLexer10LoadMemoryEPKciS1_i
.LVL659:
.LBB3029:
.LBB3030:
	.file 9 "d:/Data/Nintendo/DoomGX/src/renderer/../idlib/../idlib/Lexer.h"
	.loc 9 367 0
	li 0,156
.LBE3030:
.LBE3029:
	.loc 3 1749 0
	mr 3,28
	addi 4,1,8
	mr 5,27
.LBB3032:
.LBB3031:
	.loc 9 367 0
	stw 0,112(1)
.LBE3031:
.LBE3032:
	.loc 3 1749 0
	bl _ZN10idMaterial10ParseStageER7idLexer15textureRepeat_t
	.loc 3 1750 0
	addi 3,1,8
	bl _ZN7idLexer10FreeSourceEv
	b .L590
.LVL660:
.L606:
	.loc 3 1754 0
	addi 26,1,216
	lis 5,.LC190@ha
	mr 3,26
	li 4,1024
	la 5,.LC190@l(5)
	crxor 6,6,6
	bl _ZN5idStr8snPrintfEPciPKcz
	.loc 3 1755 0
	mr 3,26
	bl strlen
	lis 6,.LC101@ha
	mr 5,3
	mr 4,26
	addi 3,1,8
	la 6,.LC101@l(6)
	li 7,1
	bl _ZN7idLexer10LoadMemoryEPKciS1_i
.LVL661:
.LBB3033:
.LBB3034:
	.loc 9 367 0
	li 0,156
.LBE3034:
.LBE3033:
	.loc 3 1757 0
	mr 3,28
	addi 4,1,8
	mr 5,27
.LBB3036:
.LBB3035:
	.loc 9 367 0
	stw 0,112(1)
.LBE3035:
.LBE3036:
	.loc 3 1757 0
	bl _ZN10idMaterial10ParseStageER7idLexer15textureRepeat_t
	.loc 3 1758 0
	addi 3,1,8
	bl _ZN7idLexer10FreeSourceEv
.LEHE63:
	.loc 3 1759 0
	addi 3,1,8
.LEHB64:
	bl _ZN7idLexerD1Ev
.LEHE64:
.LBE3040:
	.loc 3 1761 0
	lwz 0,1268(1)
	lwz 26,1240(1)
	mtlr 0
	lwz 27,1244(1)
.LVL662:
	lwz 28,1248(1)
.LVL663:
	lwz 29,1252(1)
	lwz 30,1256(1)
	lwz 31,1260(1)
	addi 1,1,1264
	.cfi_remember_state
	.cfi_restore 26
	.cfi_restore 27
	.cfi_restore 28
	.cfi_restore 29
	.cfi_restore 30
	.cfi_restore 31
.LCFI134:
	.cfi_def_cfa_offset 0
	blr
.LVL664:
.L599:
.LCFI135:
	.cfi_restore_state
	mr 31,3
.LBB3041:
	.loc 3 1759 0
	addi 3,1,8
	bl _ZN7idLexerD1Ev
	mr 3,31
.LEHB65:
	bl _Unwind_Resume
.LEHE65:
.LBE3041:
	.cfi_endproc
.LFE2597:
	.section	.gcc_except_table
.LLSDA2597:
	.byte	0xff
	.byte	0xff
	.byte	0x1
	.uleb128 .LLSDACSE2597-.LLSDACSB2597
.LLSDACSB2597:
	.uleb128 .LEHB60-.LFB2597
	.uleb128 .LEHE60-.LEHB60
	.uleb128 0
	.uleb128 0
	.uleb128 .LEHB61-.LFB2597
	.uleb128 .LEHE61-.LEHB61
	.uleb128 .L599-.LFB2597
	.uleb128 0
	.uleb128 .LEHB62-.LFB2597
	.uleb128 .LEHE62-.LEHB62
	.uleb128 0
	.uleb128 0
	.uleb128 .LEHB63-.LFB2597
	.uleb128 .LEHE63-.LEHB63
	.uleb128 .L599-.LFB2597
	.uleb128 0
	.uleb128 .LEHB64-.LFB2597
	.uleb128 .LEHE64-.LEHB64
	.uleb128 0
	.uleb128 0
	.uleb128 .LEHB65-.LFB2597
	.uleb128 .LEHE65-.LEHB65
	.uleb128 0
	.uleb128 0
.LLSDACSE2597:
	.section	".text"
	.size	_ZN10idMaterial17AddImplicitStagesE15textureRepeat_t, .-_ZN10idMaterial17AddImplicitStagesE15textureRepeat_t
	.align 2
	.globl _ZN10idMaterial21SortInteractionStagesEv
	.type	_ZN10idMaterial21SortInteractionStagesEv, @function
_ZN10idMaterial21SortInteractionStagesEv:
.LFB2598:
	.loc 3 1776 0
	.cfi_startproc
.LVL665:
	mflr 0
	stwu 1,-160(1)
.LCFI136:
	.cfi_def_cfa_offset 160
	.cfi_register 65, 0
	stw 24,128(1)
.LBB3042:
.LBB3043:
	.loc 3 1781 0
	li 24,0
	.cfi_offset 24, -32
.LBE3043:
.LBE3042:
	.loc 3 1776 0
	stw 27,140(1)
	mr 27,3
	.cfi_offset 27, -20
	stw 0,164(1)
	stw 22,120(1)
	stw 23,124(1)
	stw 25,132(1)
	stw 26,136(1)
	stw 28,144(1)
	stw 29,148(1)
	stw 30,152(1)
	stw 31,156(1)
.LBB3072:
.LBB3065:
	.loc 3 2840 0
	lwz 3,4(3)
.LVL666:
.LBE3065:
.LBB3066:
.LBB3067:
	.loc 2 162 0
	lwz 9,0(3)
	lwz 0,36(9)
	.cfi_offset 31, -4
	.cfi_offset 30, -8
	.cfi_offset 29, -12
	.cfi_offset 28, -16
	.cfi_offset 26, -24
	.cfi_offset 25, -28
	.cfi_offset 23, -36
	.cfi_offset 22, -40
	.cfi_offset 65, 4
	mtctr 0
	bctrl
.LVL667:
	lwz 11,228(27)
.LBE3067:
.LBE3066:
.LBB3068:
	.loc 3 1781 0
	cmpw 7,24,11
	bge- 7,.L621
.L617:
.LBB3044:
	.loc 3 1783 0
	addi 26,24,1
.LVL668:
	cmpw 7,26,11
	bge- 7,.L609
	.loc 3 1776 0
	mulli 9,26,108
	.loc 3 1783 0
	lwz 0,240(27)
	.loc 3 1787 0
	mulli 10,24,108
	.loc 3 1776 0
	addis 9,9,0x1
	add 9,0,9
	.loc 3 1787 0
	add 10,0,10
	subf 0,26,11
	.loc 3 1776 0
	addi 9,9,-22524
	.loc 3 1787 0
	addis 10,10,0x1
	mtctr 0
	b .L613
.L610:
	.loc 3 1783 0
	addi 26,26,1
.LVL669:
	bdz .L609
.L613:
	.loc 3 1784 0
	lwz 0,0(9)
	.loc 3 1783 0
	addi 9,9,108
	.loc 3 1784 0
	cmpwi 7,0,1
	bne+ 7,.L610
	.loc 3 1787 0
	lwz 0,-22524(10)
	cmpwi 7,0,1
	bne+ 7,.L610
.L609:
.LVL670:
.LBB3045:
	.loc 3 1795 0 discriminator 1
	subf 23,24,26
	cmpwi 7,23,1
	bgt- 7,.L622
	.loc 3 1776 0
	mr 24,26
.LVL671:
.L624:
.LBE3045:
.LBE3044:
	.loc 3 1781 0
	cmpw 7,24,11
	blt+ 7,.L617
.LVL672:
.L621:
.LBE3068:
.LBE3072:
	.loc 3 1807 0
	lwz 0,164(1)
	lwz 22,120(1)
	mtlr 0
	lwz 23,124(1)
	lwz 24,128(1)
.LVL673:
	lwz 25,132(1)
	lwz 26,136(1)
	lwz 27,140(1)
.LVL674:
	lwz 28,144(1)
	lwz 29,148(1)
	lwz 30,152(1)
	lwz 31,156(1)
	addi 1,1,160
	.cfi_remember_state
.LCFI137:
	.cfi_def_cfa_offset 0
	.cfi_restore 31
	.cfi_restore 30
	.cfi_restore 29
	.cfi_restore 28
	.cfi_restore 27
	.cfi_restore 26
	.cfi_restore 25
	.cfi_restore 24
	.cfi_restore 23
	.cfi_restore 22
	blr
.LVL675:
.L622:
.LCFI138:
	.cfi_restore_state
.LBB3073:
.LBB3069:
.LBB3062:
.LBB3059:
	.loc 3 1795 0
	li 22,1
.LVL676:
.L611:
.LBE3059:
.LBE3062:
.LBE3069:
.LBE3073:
	.loc 3 1776 0 discriminator 1
	mr 11,24
.LVL677:
.LBB3074:
.LBB3070:
.LBB3063:
.LBB3060:
	subf 25,22,26
.LBB3046:
	.loc 3 1796 0 discriminator 1
	cmpw 7,11,25
.LBB3047:
	.loc 3 1797 0 discriminator 1
	addi 31,11,1
	mulli 9,11,108
.LBB3048:
	.loc 3 1800 0 discriminator 1
	li 5,108
.LBE3048:
	.loc 3 1797 0 discriminator 1
	mulli 30,31,108
.LBB3049:
	.loc 3 1800 0 discriminator 1
	addi 3,1,8
.LBE3049:
.LBE3047:
	.loc 3 1796 0 discriminator 1
	bge- 7,.L623
.LVL678:
.L615:
.LBB3055:
	.loc 3 1797 0
	lwz 29,240(27)
	add 9,29,9
	add 29,29,30
	addis 9,9,0x1
	addis 29,29,0x1
.LBB3050:
	.loc 3 1800 0
	addi 28,9,-22528
.LBE3050:
	.loc 3 1797 0
	lwz 0,-22524(29)
	lwz 9,-22524(9)
.LBB3051:
	.loc 3 1800 0
	mr 4,28
.LBE3051:
	.loc 3 1797 0
	cmpw 7,9,0
	ble- 7,.L614
.LBB3052:
	.loc 3 1800 0
	bl memcpy
.LVL679:
	.loc 3 1801 0
	addi 4,29,-22528
	li 5,108
	mr 3,28
	bl memcpy
	.loc 3 1802 0
	lwz 3,240(27)
	addi 4,1,8
	li 5,108
	add 30,3,30
	addis 3,30,0x1
	addi 3,3,-22528
	bl memcpy
.L614:
.LVL680:
.LBE3052:
.LBE3055:
.LBE3046:
.LBE3060:
.LBE3063:
.LBE3070:
.LBE3074:
	.loc 3 1796 0
	mr 11,31
.LBB3075:
.LBB3071:
.LBB3064:
.LBB3061:
.LBB3058:
.LBB3056:
.LBB3053:
	.loc 3 1800 0
	li 5,108
.LBE3053:
.LBE3056:
	.loc 3 1796 0
	cmpw 7,11,25
.LBB3057:
	.loc 3 1797 0
	addi 31,11,1
.LVL681:
	mulli 9,11,108
.LBB3054:
	.loc 3 1800 0
	addi 3,1,8
.LBE3054:
	.loc 3 1797 0
	mulli 30,31,108
.LBE3057:
	.loc 3 1796 0
	blt+ 7,.L615
.L623:
.LBE3058:
	.loc 3 1795 0
	addi 22,22,1
.LVL682:
	cmpw 7,22,23
	bne- 7,.L611
	lwz 11,228(27)
.LVL683:
	.loc 3 1776 0
	mr 24,26
.LVL684:
	b .L624
.LBE3061:
.LBE3064:
.LBE3071:
.LBE3075:
	.cfi_endproc
.LFE2598:
	.size	_ZN10idMaterial21SortInteractionStagesEv, .-_ZN10idMaterial21SortInteractionStagesEv
	.align 2
	.globl _ZN10idMaterial13ParseMaterialER7idLexer
	.type	_ZN10idMaterial13ParseMaterialER7idLexer, @function
_ZN10idMaterial13ParseMaterialER7idLexer:
.LFB2599:
	.loc 3 1819 0
	.cfi_startproc
	.cfi_personality 0,__gxx_personality_v0
	.cfi_lsda 0,.LLSDA2599
.LVL685:
	mflr 0
	stwu 1,-1408(1)
.LCFI139:
	.cfi_def_cfa_offset 1408
	.cfi_register 65, 0
.LVL686:
.LBB3269:
.LBB3270:
.LBB3271:
.LBB3272:
.LBB3273:
	.loc 4 357 0
	li 9,20
.LBE3273:
.LBE3272:
.LBE3271:
.LBE3270:
.LBE3269:
	.loc 3 1819 0
	stw 31,1404(1)
	mr 31,3
	.cfi_offset 31, -4
	stw 0,1412(1)
.LBB3591:
	.loc 3 1824 0
	addi 3,1,120
.LVL687:
.LBB3280:
.LBB3278:
.LBB3276:
.LBB3274:
	.loc 4 356 0
	li 0,0
	.cfi_offset 65, 4
	.loc 4 357 0
	stw 9,48(1)
	.loc 4 358 0
	addi 9,1,52
.LBE3274:
.LBE3276:
.LBE3278:
.LBE3280:
.LBE3591:
	.loc 3 1819 0
	stw 29,1396(1)
	stw 30,1400(1)
	mr 29,4
	.cfi_offset 30, -8
	.cfi_offset 29, -12
	stw 19,1356(1)
	addi 30,1,40
	stw 20,1360(1)
	stw 21,1364(1)
	stw 22,1368(1)
	stw 23,1372(1)
	stw 24,1376(1)
	stw 25,1380(1)
	stw 26,1384(1)
	stw 27,1388(1)
	stw 28,1392(1)
.LBB3592:
.LBB3281:
.LBB3279:
.LBB3277:
.LBB3275:
	.loc 4 356 0
	stw 0,40(1)
	.loc 4 358 0
	stw 9,44(1)
	.loc 4 359 0
	stb 0,52(1)
.LEHB66:
.LBE3275:
.LBE3277:
.LBE3279:
.LBE3281:
	.loc 3 1824 0
	.cfi_offset 28, -16
	.cfi_offset 27, -20
	.cfi_offset 26, -24
	.cfi_offset 25, -28
	.cfi_offset 24, -32
	.cfi_offset 23, -36
	.cfi_offset 22, -40
	.cfi_offset 21, -44
	.cfi_offset 20, -48
	.cfi_offset 19, -52
	bl _ZN7idLexerC1Ev
.LEHE66:
.LVL688:
	.loc 3 1829 0
	li 0,0
	.loc 3 1831 0
	li 9,0
	.loc 3 1829 0
	stw 0,208(31)
	.loc 3 1830 0
	li 0,21
	stw 0,216(31)
.LVL689:
	.loc 3 1832 0
	li 10,1
.LVL690:
.L626:
	.loc 3 1832 0 is_stmt 0 discriminator 2
	lwz 11,240(31)
	stbx 10,11,9
	.loc 3 1831 0 is_stmt 1 discriminator 2
	addi 9,9,1
.LVL691:
	lwz 0,216(31)
	cmpw 7,0,9
	bgt+ 7,.L626
	.loc 3 1835 0
	li 0,0
.LBB3282:
	.loc 3 1839 0
	lis 26,.LC6@ha
	.loc 3 1840 0
	lis 24,.LC191@ha
.LBB3283:
.LBB3284:
.LBB3285:
	.loc 4 653 0
	lis 28,.LC119@ha
.LBE3285:
.LBE3284:
.LBB3288:
.LBB3289:
.LBB3290:
	.loc 4 690 0
	lis 27,.LC194@ha
.LBE3290:
.LBE3289:
.LBB3293:
.LBB3294:
.LBB3295:
	lis 25,.LC195@ha
.LBE3295:
.LBE3294:
.LBB3298:
.LBB3299:
.LBB3300:
.LBB3301:
	lis 23,.LC196@ha
.LBE3301:
.LBE3300:
.LBE3299:
.LBE3298:
.LBE3293:
.LBE3288:
.LBE3283:
.LBE3282:
	.loc 3 1835 0
	stw 0,228(31)
.LVL692:
	.loc 3 1837 0
	li 22,0
	addi 30,1,40
.LBB3556:
	.loc 3 1839 0
	la 26,.LC6@l(26)
	.loc 3 1840 0
	la 24,.LC191@l(24)
.LBB3536:
.LBB3526:
.LBB3286:
	.loc 4 653 0
	la 28,.LC119@l(28)
.LBE3286:
.LBE3526:
.LBB3527:
.LBB3516:
.LBB3291:
	.loc 4 690 0
	la 27,.LC194@l(27)
.LBE3291:
.LBE3516:
.LBB3517:
.LBB3506:
.LBB3296:
	la 25,.LC195@l(25)
.LBE3296:
.LBE3506:
.LBB3507:
.LBB3498:
.LBB3304:
.LBB3302:
	la 23,.LC196@l(23)
.LBE3302:
.LBE3304:
.LBB3305:
.LBB3306:
.LBB3307:
	lis 21,.LC197@ha
.LVL693:
.L722:
.LBE3307:
.LBE3306:
.LBE3305:
.LBE3498:
.LBE3507:
.LBE3517:
.LBE3527:
.LBE3536:
	.loc 3 1839 0
	lwz 3,4(31)
	cmpwi 7,3,0
	beq- 7,.L702
.LBB3537:
.LBB3538:
	.loc 2 140 0 discriminator 1
	lwz 9,0(3)
	lwz 0,8(9)
	mtctr 0
.LEHB67:
	bctrl
.LBE3538:
.LBE3537:
	.loc 3 1839 0 discriminator 1
	mr 4,26
	bl _ZN5idStr3CmpEPKcS1_
	.loc 3 1839 0 is_stmt 0
	cmpwi 7,3,0
	bne- 7,.L702
	.loc 3 1840 0 is_stmt 1 discriminator 4
	lwz 5,216(31)
	mr 3,24
	mr 4,31
	crxor 6,6,6
	bl _Z10Sys_PrintfPKcz
.L702:
.LVL694:
.LBB3539:
.LBB3540:
	.loc 6 494 0
	lwz 0,104(31)
.LBE3540:
.LBE3539:
	.loc 3 1842 0
	andi. 9,0,1
	bne- 0,.L739
	.loc 3 1848 0
	mr 3,29
	mr 4,30
	bl _ZN7idLexer14ExpectAnyTokenEP7idToken
	cmpwi 7,3,0
	beq- 7,.L740
.LVL695:
.LBB3541:
.LBB3528:
.LBB3287:
	.loc 4 653 0
	lwz 3,4(30)
	mr 4,28
	bl _ZN5idStr3CmpEPKcS1_
.LBE3287:
.LBE3528:
	.loc 3 1857 0
	cmpwi 7,3,0
	beq- 7,.L634
.LVL696:
.LBB3529:
.LBB3518:
.LBB3292:
	.loc 4 690 0
	lwz 3,4(30)
	mr 4,27
	bl _ZN5idStr4IcmpEPKcS1_
.LBE3292:
.LBE3518:
	.loc 3 1860 0
	cmpwi 7,3,0
	bne- 7,.L635
	.loc 3 1861 0
	mr 3,29
	mr 4,30
	bl _ZN7idLexer15ReadTokenOnLineEP7idToken
	.loc 3 1862 0
	lwz 4,4(30)
	addi 3,31,248
	bl _ZN5idStraSEPKc
	.loc 3 1863 0
	mr 3,29
	bl _ZN7idLexer14SkipRestOfLineEv
	b .L722
.L635:
.LVL697:
.LBB3519:
.LBB3508:
.LBB3297:
	.loc 4 690 0
	lwz 3,4(30)
	mr 4,25
	bl _ZN5idStr4IcmpEPKcS1_
.LBE3297:
.LBE3508:
	.loc 3 1867 0
	cmpwi 7,3,0
	bne- 7,.L637
	.loc 3 1868 0
	mr 3,29
	mr 4,30
	bl _ZN7idLexer15ReadTokenOnLineEP7idToken
	.loc 3 1869 0
	lwz 4,4(30)
	addi 3,31,8
	bl _ZN5idStraSEPKc
	b .L722
.L637:
.LBB3509:
	.loc 3 1873 0
	mr 3,31
	mr 4,30
	bl _ZN10idMaterial16CheckSurfaceParmEP7idToken
	cmpwi 7,3,0
	bne+ 7,.L722
.LVL698:
.LBB3499:
.LBB3473:
.LBB3303:
	.loc 4 690 0
	lwz 3,4(30)
	mr 4,23
	bl _ZN5idStr4IcmpEPKcS1_
.LBE3303:
.LBE3473:
	.loc 3 1879 0
	cmpwi 7,3,0
	bne- 7,.L638
.LVL699:
.LBB3474:
.LBB3475:
	.loc 6 488 0
	lwz 0,104(31)
.LBE3475:
.LBE3474:
	.loc 3 1881 0
	mr 3,29
	mr 4,30
.LBB3477:
.LBB3476:
	.loc 6 488 0
	ori 0,0,2
	stw 0,104(31)
.LBE3476:
.LBE3477:
	.loc 3 1881 0
	bl _ZN7idLexer15ReadTokenOnLineEP7idToken
	cmpwi 7,3,0
	bne- 7,.L639
	.loc 3 1882 0
	lis 9,.LC14@ha
	lwz 0,.LC14@l(9)
	stw 0,92(31)
	.loc 3 1883 0
	b .L722
.LVL700:
.L638:
.LBB3478:
.LBB3309:
.LBB3308:
	.loc 4 690 0
	lwz 3,4(30)
	la 4,.LC197@l(21)
	bl _ZN5idStr4IcmpEPKcS1_
.LBE3308:
.LBE3309:
	.loc 3 1890 0
	cmpwi 7,3,0
	bne- 7,.L642
.LVL701:
.LBB3310:
.LBB3311:
	.loc 6 488 0
	lwz 0,104(31)
	ori 0,0,4
	stw 0,104(31)
.LBE3311:
.LBE3310:
	.loc 3 1892 0
	b .L722
.LVL702:
.L739:
.LBE3478:
.LBE3499:
.LBE3509:
.LBE3519:
.LBE3529:
.LBE3541:
	.loc 3 1843 0
	lwz 3,4(31)
	cmpwi 7,3,0
	beq- 7,.L631
.LBB3542:
.LBB3543:
	.loc 2 140 0 discriminator 1
	lwz 9,0(3)
	lwz 0,8(9)
	mtctr 0
	bctrl
.LBE3543:
.LBE3542:
	.loc 3 1843 0 discriminator 1
	lis 4,.LC6@ha
	la 4,.LC6@l(4)
	bl _ZN5idStr3CmpEPKcS1_
.LEHE67:
	.loc 3 1843 0 is_stmt 0
	cmpwi 7,3,0
	beq- 7,.L741
.LVL703:
.L631:
.LBE3556:
	.loc 3 2162 0 is_stmt 1
	addi 3,1,120
.LEHB68:
	bl _ZN7idLexerD1Ev
.LEHE68:
.LVL704:
.LBB3557:
.LBB3558:
.LBB3559:
.LBB3560:
.LBB3561:
	.loc 4 501 0
	mr 3,30
.LEHB69:
	bl _ZN5idStr8FreeDataEv
.LEHE69:
.LBE3561:
.LBE3560:
.LBE3559:
.LBE3558:
.LBE3557:
.LBE3592:
	.loc 3 2163 0
	lwz 0,1412(1)
	lwz 19,1356(1)
	mtlr 0
	lwz 20,1360(1)
	lwz 21,1364(1)
	lwz 22,1368(1)
.LVL705:
	lwz 23,1372(1)
	lwz 24,1376(1)
	lwz 25,1380(1)
	lwz 26,1384(1)
	lwz 27,1388(1)
	lwz 28,1392(1)
	lwz 29,1396(1)
	lwz 30,1400(1)
	lwz 31,1404(1)
.LVL706:
	addi 1,1,1408
	.cfi_remember_state
.LCFI140:
	.cfi_def_cfa_offset 0
	.cfi_restore 31
	.cfi_restore 30
	.cfi_restore 29
	.cfi_restore 28
	.cfi_restore 27
	.cfi_restore 26
	.cfi_restore 25
	.cfi_restore 24
	.cfi_restore 23
	.cfi_restore 22
	.cfi_restore 21
	.cfi_restore 20
	.cfi_restore 19
	blr
.LVL707:
.L634:
.LCFI141:
	.cfi_restore_state
.LBB3593:
	.loc 3 2115 0
	mr 3,31
	li 4,0
.LEHB70:
	bl _ZN10idMaterial17AddImplicitStagesE15textureRepeat_t
	.loc 3 2116 0
	lwz 3,4(31)
	cmpwi 7,3,0
	beq- 7,.L703
.LBB3562:
.LBB3563:
	.loc 2 140 0 discriminator 1
	lwz 9,0(3)
	lwz 0,8(9)
	mtctr 0
	bctrl
.LBE3563:
.LBE3562:
	.loc 3 2116 0 discriminator 1
	lis 4,.LC6@ha
	la 4,.LC6@l(4)
	bl _ZN5idStr3CmpEPKcS1_
	.loc 3 2116 0 is_stmt 0
	cmpwi 7,3,0
	beq- 7,.L742
.L703:
	.loc 3 2121 0 is_stmt 1
	mr 3,31
	bl _ZN10idMaterial21SortInteractionStagesEv
	.loc 3 2122 0
	lwz 3,4(31)
	cmpwi 7,3,0
	beq- 7,.L711
.LBB3564:
.LBB3565:
	.loc 2 140 0 discriminator 1
	lwz 9,0(3)
	lwz 0,8(9)
	mtctr 0
	bctrl
.LBE3565:
.LBE3564:
	.loc 3 2122 0 discriminator 1
	lis 4,.LC6@ha
	la 4,.LC6@l(4)
	bl _ZN5idStr3CmpEPKcS1_
	.loc 3 2122 0 is_stmt 0
	cmpwi 7,3,0
	beq- 7,.L678
.L733:
	.loc 3 2123 0 is_stmt 1
	lwz 3,4(31)
.L704:
	.loc 3 2133 0
	lwz 0,196(31)
	cmpwi 7,0,2
	beq- 7,.L743
.L679:
	.loc 3 2144 0
	cmpwi 7,3,0
	beq- 7,.L712
.LBB3566:
.LBB3567:
	.loc 2 140 0 discriminator 1
	lwz 9,0(3)
	lwz 0,8(9)
	mtctr 0
	bctrl
.LBE3567:
.LBE3566:
	.loc 3 2144 0 discriminator 1
	lis 4,.LC6@ha
	la 4,.LC6@l(4)
	bl _ZN5idStr3CmpEPKcS1_
	.loc 3 2144 0 is_stmt 0
	cmpwi 7,3,0
	beq- 7,.L685
.L734:
	.loc 3 2145 0 is_stmt 1
	lwz 3,4(31)
.L705:
.LVL708:
	.loc 3 2150 0
	lwz 0,228(31)
	cmpwi 7,0,0
	ble- 7,.L686
	.loc 3 1819 0
	lwz 9,240(31)
.LBB3568:
.LBB3544:
.LBB3530:
.LBB3520:
.LBB3510:
.LBB3500:
.LBB3479:
.LBB3480:
.LBB3481:
	.loc 3 2149 0
	li 11,0
	.loc 3 2150 0
	mtctr 0
.LBE3481:
.LBE3480:
.LBE3479:
.LBE3500:
.LBE3510:
.LBE3520:
.LBE3530:
.LBE3544:
.LBE3568:
	.loc 3 1819 0
	addis 9,9,0x1
	addi 9,9,-22484
	b .L688
.LVL709:
.L745:
	.loc 3 2154 0
	cmpw 7,11,0
	bne- 7,.L744
.L687:
.LVL710:
	.loc 3 2150 0
	addi 9,9,108
	bdz .L686
.LVL711:
.L688:
	.loc 3 2151 0
	lwz 0,0(9)
	cmpwi 7,0,0
	beq- 7,.L687
	.loc 3 2152 0
	cmpwi 7,11,0
	bne- 7,.L745
	mr 11,0
.LVL712:
	.loc 3 2150 0
	addi 9,9,108
.LVL713:
	bdnz .L688
.LVL714:
.L686:
	.loc 3 2160 0
	cmpwi 7,3,0
	beq- 7,.L631
.LBB3569:
.LBB3570:
	.loc 2 140 0 discriminator 1
	lwz 9,0(3)
	lwz 0,8(9)
	mtctr 0
	bctrl
.LBE3570:
.LBE3569:
	.loc 3 2160 0 discriminator 1
	lis 4,.LC6@ha
	la 4,.LC6@l(4)
	bl _ZN5idStr3CmpEPKcS1_
	.loc 3 2160 0 is_stmt 0
	cmpwi 7,3,0
	bne- 7,.L631
	.loc 3 2161 0 is_stmt 1 discriminator 4
	lis 3,.LC235@ha
	lwz 5,216(31)
	mr 4,31
	la 3,.LC235@l(3)
	crxor 6,6,6
	bl _Z10Sys_PrintfPKcz
	b .L631
.LVL715:
.L740:
.LBB3571:
	.loc 3 1850 0
	lwz 3,4(31)
.LBB3545:
.LBB3546:
	.loc 6 488 0
	lwz 0,104(31)
.LBE3546:
.LBE3545:
	.loc 3 1850 0
	cmpwi 7,3,0
.LBB3548:
.LBB3547:
	.loc 6 488 0
	ori 0,0,1
	stw 0,104(31)
.LBE3547:
.LBE3548:
	.loc 3 1850 0
	beq- 7,.L631
.LBB3549:
.LBB3550:
	.loc 2 140 0 discriminator 1
	lwz 9,0(3)
	lwz 0,8(9)
	mtctr 0
	bctrl
.LBE3550:
.LBE3549:
	.loc 3 1850 0 discriminator 1
	lis 4,.LC6@ha
	la 4,.LC6@l(4)
	bl _ZN5idStr3CmpEPKcS1_
	.loc 3 1850 0 is_stmt 0
	cmpwi 7,3,0
	bne- 7,.L631
	.loc 3 1851 0 is_stmt 1 discriminator 4
	lis 3,.LC193@ha
	lwz 5,216(31)
	mr 4,31
	la 3,.LC193@l(3)
	crxor 6,6,6
	bl _Z10Sys_PrintfPKcz
	b .L631
.LVL716:
.L639:
.LBB3551:
.LBB3531:
.LBB3521:
.LBB3511:
.LBB3501:
.LBB3490:
.LBB3486:
.LBB3482:
	.loc 5 131 0
	lwz 0,72(1)
	lis 9,.LC10@ha
	lfs 0,.LC10@l(9)
	cmpwi 7,0,3
	beq- 7,.L746
.LBE3482:
.LBE3486:
.LBE3490:
	.loc 3 1886 0
	stfs 0,92(31)
	.loc 3 1887 0
	b .L722
.LVL717:
.L642:
.LBB3491:
.LBB3312:
.LBB3313:
.LBB3314:
	.loc 4 690 0
	lis 4,.LC198@ha
	lwz 3,4(30)
	la 4,.LC198@l(4)
	bl _ZN5idStr4IcmpEPKcS1_
.LBE3314:
.LBE3313:
	.loc 3 1894 0
	cmpwi 7,3,0
	bne- 7,.L643
	.loc 3 1895 0
	li 0,1
	stb 0,288(31)
	.loc 3 1896 0
	b .L722
.LVL718:
.L741:
.LBE3312:
.LBE3491:
.LBE3501:
.LBE3511:
.LBE3521:
.LBE3531:
.LBE3551:
	.loc 3 1844 0 discriminator 4
	lis 3,.LC192@ha
	lwz 5,216(31)
	mr 4,31
	la 3,.LC192@l(3)
	crxor 6,6,6
	bl _Z10Sys_PrintfPKcz
	b .L631
.LVL719:
.L685:
.LBE3571:
	.loc 3 2145 0 discriminator 4
	lis 3,.LC233@ha
	lwz 5,216(31)
	la 3,.LC233@l(3)
	mr 4,31
	crxor 6,6,6
	bl _Z10Sys_PrintfPKcz
	b .L734
.L678:
	.loc 3 2123 0 discriminator 4
	lis 3,.LC232@ha
	lwz 5,216(31)
	la 3,.LC232@l(3)
	mr 4,31
	crxor 6,6,6
	bl _Z10Sys_PrintfPKcz
	b .L733
.L742:
	.loc 3 2117 0 discriminator 4
	lis 3,.LC231@ha
	lwz 5,216(31)
	la 3,.LC231@l(3)
	mr 4,31
	crxor 6,6,6
	bl _Z10Sys_PrintfPKcz
	b .L703
.LVL720:
.L746:
.LBB3572:
.LBB3552:
.LBB3532:
.LBB3522:
.LBB3512:
.LBB3502:
.LBB3492:
.LBB3487:
.LBB3483:
	.loc 5 134 0
	lwz 0,76(1)
	andis. 9,0,1
	beq- 0,.L747
.L641:
	.loc 5 135 0
	lfd 0,96(1)
	frsp 0,0
.LBE3483:
.LBE3487:
.LBE3492:
	.loc 3 1886 0
	stfs 0,92(31)
	b .L722
.LVL721:
.L711:
.LBE3502:
.LBE3512:
.LBE3522:
.LBE3532:
.LBE3552:
.LBE3572:
	.loc 3 2122 0
	li 3,0
	b .L704
.L712:
	.loc 3 2144 0
	li 3,0
	b .L705
.L743:
.LVL722:
	.loc 3 2134 0 discriminator 1
	lwz 0,228(31)
	cmpwi 7,0,0
	ble- 7,.L679
	.loc 3 2135 0
	lwz 9,240(31)
	addis 9,9,0x1
	lwz 11,-22524(9)
	cmpwi 7,11,0
	bne- 7,.L680
	lwz 11,-22484(9)
.LBB3573:
.LBB3553:
.LBB3533:
.LBB3523:
.LBB3513:
.LBB3503:
.LBB3493:
.LBB3488:
.LBB3484:
	.loc 3 1819 0
	mtctr 0
.LBE3484:
.LBE3488:
.LBE3493:
.LBE3503:
.LBE3513:
.LBE3523:
.LBE3533:
.LBE3553:
.LBE3573:
	addi 9,9,-22376
	.loc 3 2135 0
	cmpwi 7,11,0
	bne- 7,.L680
.LVL723:
.L682:
	.loc 3 2134 0
	bdz .L679
	.loc 3 2135 0
	lwz 0,-40(9)
	cmpwi 7,0,0
	bne- 7,.L680
	.loc 3 2135 0 is_stmt 0 discriminator 1
	addi 9,9,108
	lwz 0,-108(9)
	cmpwi 7,0,0
	beq+ 7,.L682
.L680:
	.loc 3 2137 0 is_stmt 1
	li 0,0
	stw 0,196(31)
	.loc 3 2138 0
	li 0,1
	stb 0,200(31)
	b .L679
.L744:
.LBB3574:
.LBB3575:
	.loc 2 140 0
	lwz 9,0(3)
.LBE3575:
.LBE3574:
	.loc 3 2155 0
	lis 11,common@ha
	lwz 29,common@l(11)
.LVL724:
.LBB3580:
.LBB3576:
	.loc 2 140 0
	lwz 0,8(9)
.LBE3576:
.LBE3580:
	.loc 3 2155 0
	lwz 9,0(29)
.LBB3581:
.LBB3577:
	.loc 2 140 0
	mtctr 0
.LBE3577:
.LBE3581:
	.loc 3 2155 0
	lwz 28,80(9)
.LBB3582:
.LBB3578:
	.loc 2 140 0
	bctrl
.LBE3578:
.LBE3582:
	.loc 3 2155 0
	lis 4,.LC234@ha
.LBB3583:
.LBB3579:
	.loc 2 140 0
	mr 5,3
.LBE3579:
.LBE3583:
	.loc 3 2155 0
	la 4,.LC234@l(4)
	mr 3,29
	mtctr 28
	crxor 6,6,6
	bctrl
	lwz 3,4(31)
	b .L686
.LVL725:
.L643:
.LBB3584:
.LBB3554:
.LBB3534:
.LBB3524:
.LBB3514:
.LBB3504:
.LBB3494:
.LBB3470:
.LBB3315:
.LBB3316:
.LBB3317:
	.loc 4 690 0
	lis 4,.LC34@ha
	lwz 3,4(30)
	la 4,.LC34@l(4)
	bl _ZN5idStr4IcmpEPKcS1_
.LBE3317:
.LBE3316:
	.loc 3 1898 0
	cmpwi 7,3,0
	bne- 7,.L644
	.loc 3 1899 0
	li 0,1
	stb 0,289(31)
	.loc 3 1900 0
	b .L722
.LVL726:
.L747:
.LBE3315:
.LBE3470:
.LBE3494:
.LBB3495:
.LBB3489:
.LBB3485:
	.loc 5 135 0
	mr 3,30
	bl _ZN7idToken11NumberValueEv
	b .L641
.LVL727:
.L644:
.LBE3485:
.LBE3489:
.LBE3495:
.LBB3496:
.LBB3471:
.LBB3468:
.LBB3318:
.LBB3319:
.LBB3320:
	.loc 4 690 0
	lis 4,.LC199@ha
	lwz 3,4(30)
	la 4,.LC199@l(4)
	bl _ZN5idStr4IcmpEPKcS1_
.LEHE70:
.LBE3320:
.LBE3319:
	.loc 3 1903 0
	cmpwi 7,3,0
	bne- 7,.L645
.LVL728:
.LBB3321:
.LBB3322:
	.loc 6 488 0
	lwz 0,104(31)
	ori 0,0,16
	stw 0,104(31)
.LBE3322:
.LBE3321:
	.loc 3 1905 0
	b .L722
.LVL729:
.L715:
	mr 31,3
.LVL730:
.L698:
.LBE3318:
.LBE3468:
.LBE3471:
.LBE3496:
.LBE3504:
.LBE3514:
.LBE3524:
.LBE3534:
.LBE3554:
.LBE3584:
	.loc 3 2162 0
	addi 3,1,120
	bl _ZN7idLexerD1Ev
.LVL731:
.L699:
.LBB3585:
.LBB3586:
.LBB3587:
.LBB3588:
.LBB3589:
	.loc 4 501 0
	mr 3,30
	bl _ZN5idStr8FreeDataEv
	mr 3,31
.LEHB71:
	bl _Unwind_Resume
.LEHE71:
.LVL732:
.L714:
	mr 31,3
.LVL733:
	b .L699
.LVL734:
.L645:
.LBE3589:
.LBE3588:
.LBE3587:
.LBE3586:
.LBE3585:
.LBB3590:
.LBB3555:
.LBB3535:
.LBB3525:
.LBB3515:
.LBB3505:
.LBB3497:
.LBB3472:
.LBB3469:
.LBB3467:
.LBB3323:
.LBB3324:
.LBB3325:
	.loc 4 690 0
	lis 4,.LC200@ha
	lwz 3,4(30)
	la 4,.LC200@l(4)
.LEHB72:
	bl _ZN5idStr4IcmpEPKcS1_
.LBE3325:
.LBE3324:
	.loc 3 1908 0
	cmpwi 7,3,0
	bne- 7,.L646
.LVL735:
.LBB3326:
.LBB3327:
	.loc 6 488 0
	lwz 0,104(31)
	ori 0,0,32
	stw 0,104(31)
.LBE3327:
.LBE3326:
	.loc 3 1910 0
	b .L722
.LVL736:
.L646:
.LBB3328:
.LBB3329:
.LBB3330:
	.loc 4 690 0
	lis 4,.LC201@ha
	lwz 3,4(30)
	la 4,.LC201@l(4)
	bl _ZN5idStr4IcmpEPKcS1_
.LBE3330:
.LBE3329:
	.loc 3 1913 0
	cmpwi 7,3,0
	bne- 7,.L647
.LVL737:
.LBB3331:
.LBB3332:
	.loc 6 488 0
	lwz 0,104(31)
	ori 0,0,8
	stw 0,104(31)
.LBE3332:
.LBE3331:
	.loc 3 1915 0
	b .L722
.LVL738:
.L647:
.LBB3333:
.LBB3334:
.LBB3335:
	.loc 4 690 0
	lis 4,.LC202@ha
	lwz 3,4(30)
	la 4,.LC202@l(4)
	bl _ZN5idStr4IcmpEPKcS1_
.LBE3335:
.LBE3334:
	.loc 3 1918 0
	cmpwi 0,3,0
	bne- 0,.L648
	.loc 3 1919 0
	stb 3,206(31)
	.loc 3 1920 0
	b .L722
.L648:
.LVL739:
.LBB3336:
.LBB3337:
.LBB3338:
	.loc 4 690 0
	lis 4,.LC203@ha
	lwz 3,4(30)
	la 4,.LC203@l(4)
	bl _ZN5idStr4IcmpEPKcS1_
.LBE3338:
.LBE3337:
	.loc 3 1923 0
	cmpwi 7,3,0
	bne- 7,.L649
	.loc 3 1924 0
	lwz 9,240(31)
	li 0,1
	addis 9,9,0x1
	stb 0,5121(9)
	.loc 3 1925 0
	b .L722
.L649:
.LVL740:
.LBB3339:
.LBB3340:
.LBB3341:
	.loc 4 690 0
	lis 4,.LC204@ha
	lwz 3,4(30)
	la 4,.LC204@l(4)
	bl _ZN5idStr4IcmpEPKcS1_
.LBE3341:
.LBE3340:
	.loc 3 1928 0
	cmpwi 7,3,0
	bne- 7,.L650
	.loc 3 1929 0
	li 0,3
	stw 0,192(31)
	.loc 3 1930 0
	b .L722
.L650:
.LVL741:
.LBB3342:
.LBB3343:
.LBB3344:
	.loc 4 690 0
	lis 4,.LC112@ha
	lwz 3,4(30)
	la 4,.LC112@l(4)
	bl _ZN5idStr4IcmpEPKcS1_
.LBE3344:
.LBE3343:
	.loc 3 1933 0
	cmpwi 7,3,0
	bne- 7,.L748
.L710:
.LBB3345:
.LBB3346:
	.loc 3 1944 0
	li 22,3
.LVL742:
	b .L722
.LVL743:
.L748:
.LBE3346:
.LBB3464:
.LBB3465:
	.loc 4 690 0
	lis 4,.LC110@ha
	lwz 3,4(30)
	la 4,.LC110@l(4)
	bl _ZN5idStr4IcmpEPKcS1_
.LBE3465:
.LBE3464:
	.loc 3 1938 0
	cmpwi 7,3,0
	bne- 7,.L749
	.loc 3 1939 0
	li 22,1
.LVL744:
	b .L722
.LVL745:
.L749:
.LBB3466:
.LBB3347:
.LBB3348:
	.loc 4 690 0
	lis 4,.LC113@ha
	lwz 3,4(30)
	la 4,.LC113@l(4)
	bl _ZN5idStr4IcmpEPKcS1_
.LBE3348:
.LBE3347:
	.loc 3 1943 0
	cmpwi 7,3,0
	beq+ 7,.L710
.LVL746:
.LBB3349:
.LBB3350:
.LBB3351:
	.loc 4 690 0
	lis 4,.LC205@ha
	lwz 3,4(30)
	la 4,.LC205@l(4)
	bl _ZN5idStr4IcmpEPKcS1_
.LBE3351:
.LBE3350:
	.loc 3 1948 0
	cmpwi 7,3,0
	bne- 7,.L651
.L726:
.LBB3352:
.LBB3353:
.LBB3354:
.LBB3355:
.LBB3356:
.LBB3357:
	.loc 3 1986 0
	li 0,1
	stw 0,192(31)
	.loc 3 1987 0
	b .L722
.L651:
.LVL747:
.LBE3357:
.LBE3356:
.LBE3355:
.LBE3354:
.LBE3353:
.LBB3457:
.LBB3458:
	.loc 4 690 0
	lis 4,.LC206@ha
	lwz 3,4(30)
	la 4,.LC206@l(4)
	bl _ZN5idStr4IcmpEPKcS1_
.LBE3458:
.LBE3457:
	.loc 3 1953 0
	cmpwi 7,3,0
	bne- 7,.L652
.LBB3459:
.LBB3460:
	.loc 6 488 0
	lwz 0,104(31)
.LBE3460:
.LBE3459:
	.loc 3 1954 0
	li 9,2
	stw 9,196(31)
.LVL748:
.LBB3462:
.LBB3461:
	.loc 6 488 0
	ori 0,0,4
	stw 0,104(31)
	b .L722
.LVL749:
.L652:
.LBE3461:
.LBE3462:
.LBB3463:
.LBB3450:
.LBB3451:
	.loc 4 690 0
	lis 4,.LC207@ha
	lwz 3,4(30)
	la 4,.LC207@l(4)
	bl _ZN5idStr4IcmpEPKcS1_
.LBE3451:
.LBE3450:
	.loc 3 1962 0
	cmpwi 7,3,0
	bne- 7,.L653
.LBB3452:
.LBB3453:
	.loc 6 488 0
	lwz 0,104(31)
.LBE3453:
.LBE3452:
	.loc 3 1963 0
	li 9,1
	stw 9,196(31)
.LVL750:
.LBB3455:
.LBB3454:
	.loc 6 488 0
	ori 0,0,4
	stw 0,104(31)
	b .L722
.LVL751:
.L653:
.LBE3454:
.LBE3455:
.LBB3456:
.LBB3447:
.LBB3448:
	.loc 4 690 0
	lis 4,.LC208@ha
	lwz 3,4(30)
	la 4,.LC208@l(4)
	bl _ZN5idStr4IcmpEPKcS1_
.LBE3448:
.LBE3447:
	.loc 3 1969 0
	cmpwi 7,3,0
	bne- 7,.L654
	.loc 3 1970 0
	li 0,1
	stb 0,201(31)
	.loc 3 1971 0
	b .L722
.L654:
.LVL752:
.LBB3449:
.LBB3444:
.LBB3445:
	.loc 4 690 0
	lis 4,.LC209@ha
	lwz 3,4(30)
	la 4,.LC209@l(4)
	bl _ZN5idStr4IcmpEPKcS1_
.LBE3445:
.LBE3444:
	.loc 3 1974 0
	cmpwi 7,3,0
	bne- 7,.L655
	.loc 3 1975 0
	li 0,1
	stb 0,202(31)
	.loc 3 1976 0
	b .L722
.L655:
.LVL753:
.LBB3446:
.LBB3441:
.LBB3442:
	.loc 4 690 0
	lis 4,.LC210@ha
	lwz 3,4(30)
	la 4,.LC210@l(4)
	bl _ZN5idStr4IcmpEPKcS1_
.LBE3442:
.LBE3441:
	.loc 3 1979 0
	cmpwi 7,3,0
	bne- 7,.L656
	.loc 3 1980 0
	li 0,1
	stb 0,203(31)
	.loc 3 1981 0
	b .L722
.L656:
.LVL754:
.LBB3443:
.LBB3358:
.LBB3359:
	.loc 4 690 0
	lis 4,.LC211@ha
	lwz 3,4(30)
	la 4,.LC211@l(4)
	bl _ZN5idStr4IcmpEPKcS1_
.LBE3359:
.LBE3358:
	.loc 3 1984 0
	cmpwi 7,3,0
	bne- 7,.L657
	.loc 3 1985 0
	lis 9,.LC18@ha
	lwz 0,.LC18@l(9)
	stw 0,148(31)
	b .L726
.L657:
.LVL755:
.LBB3360:
.LBB3361:
.LBB3362:
	.loc 4 690 0
	lis 4,.LC212@ha
	lwz 3,4(30)
	la 4,.LC212@l(4)
	bl _ZN5idStr4IcmpEPKcS1_
.LBE3362:
.LBE3361:
	.loc 3 1990 0
	cmpwi 7,3,0
	bne- 7,.L658
	.loc 3 1991 0
	li 0,1
	stb 0,84(31)
	.loc 3 1992 0
	b .L722
.L658:
.LVL756:
.LBB3363:
.LBB3364:
.LBB3365:
	.loc 4 690 0
	lis 4,.LC213@ha
	lwz 3,4(30)
	la 4,.LC213@l(4)
	bl _ZN5idStr4IcmpEPKcS1_
.LBE3365:
.LBE3364:
	.loc 3 1995 0
	cmpwi 7,3,0
	bne- 7,.L659
	.loc 3 1996 0
	li 0,1
	stb 0,204(31)
	.loc 3 1997 0
	b .L722
.L659:
.LVL757:
.LBB3366:
.LBB3367:
.LBB3368:
	.loc 4 690 0
	lis 4,.LC214@ha
	lwz 3,4(30)
	la 4,.LC214@l(4)
	bl _ZN5idStr4IcmpEPKcS1_
.LBE3368:
.LBE3367:
	.loc 3 2002 0
	cmpwi 7,3,0
	bne- 7,.L660
.LBB3369:
	.loc 3 2003 0
	mr 3,29
	bl _Z23R_ParsePastImageProgramR7idLexer
.LEHE72:
.LBB3370:
.LBB3371:
.LBB3372:
	.loc 4 357 0
	li 9,20
	.loc 4 356 0
	li 0,0
.LBE3372:
.LBE3371:
.LBE3370:
	.loc 3 2003 0
	mr 4,3
.LVL758:
.LBB3377:
.LBB3375:
.LBB3373:
	.loc 4 357 0
	stw 9,16(1)
.LBE3373:
.LBE3375:
.LBE3377:
	.loc 3 2006 0
	addi 3,1,8
.LVL759:
.LBB3378:
.LBB3376:
.LBB3374:
	.loc 4 358 0
	addi 9,1,20
	.loc 4 356 0
	stw 0,8(1)
	.loc 4 358 0
	stw 9,12(1)
	.loc 4 359 0
	stb 0,20(1)
.LEHB73:
.LBE3374:
.LBE3376:
.LBE3378:
	.loc 3 2006 0
	bl _ZN5idStraSEPKc
.LVL760:
	.loc 3 2007 0
	lis 9,globalImages@ha
	lwz 4,12(1)
	lwz 3,globalImages@l(9)
	li 5,2
	li 6,0
	li 7,1
	li 8,2
	li 9,0
	bl _ZN14idImageManager13ImageFromFileEPKc15textureFilter_tb15textureRepeat_t14textureDepth_t11cubeFiles_t
.LEHE73:
	stw 3,72(31)
.LVL761:
.LBB3379:
.LBB3380:
	.loc 4 501 0
	addi 3,1,8
.LEHB74:
	bl _ZN5idStr8FreeDataEv
	b .L722
.LVL762:
.L660:
.LBE3380:
.LBE3379:
.LBE3369:
.LBB3384:
.LBB3385:
	.loc 4 690 0
	lis 4,.LC215@ha
	lwz 3,4(30)
	la 4,.LC215@l(4)
	bl _ZN5idStr4IcmpEPKcS1_
.LBE3385:
.LBE3384:
	.loc 3 2013 0
	cmpwi 7,3,0
	bne- 7,.L661
	.loc 3 2014 0
	mr 3,29
	mr 4,30
	bl _ZN7idLexer15ReadTokenOnLineEP7idToken
.LVL763:
.LBB3386:
.LBB3387:
	.loc 4 690 0
	lis 4,.LC216@ha
	lwz 3,4(30)
	la 4,.LC216@l(4)
	bl _ZN5idStr4IcmpEPKcS1_
.LEHE74:
.LBE3387:
.LBE3386:
	.loc 3 2015 0
	cmpwi 7,3,0
	bne- 7,.L662
	.loc 3 2016 0
	li 0,1
	stw 0,76(31)
	b .L722
.LVL764:
.L716:
	mr 31,3
.LVL765:
.LBB3388:
.LBB3381:
.LBB3382:
.LBB3383:
	.loc 4 501 0
	addi 3,1,8
	bl _ZN5idStr8FreeDataEv
	b .L698
.LVL766:
.L662:
.LBE3383:
.LBE3382:
.LBE3381:
.LBE3388:
.LBB3389:
.LBB3390:
	.loc 4 690 0
	lis 4,.LC217@ha
	lwz 3,4(30)
	la 4,.LC217@l(4)
.LEHB75:
	bl _ZN5idStr4IcmpEPKcS1_
.LBE3390:
.LBE3389:
	.loc 3 2017 0
	cmpwi 7,3,0
	bne- 7,.L663
	.loc 3 2018 0
	li 0,2
	stw 0,76(31)
	b .L722
.LVL767:
.L661:
.LBB3391:
.LBB3392:
	.loc 4 690 0
	lis 4,.LC219@ha
	lwz 3,4(30)
	la 4,.LC219@l(4)
	bl _ZN5idStr4IcmpEPKcS1_
.LBE3392:
.LBE3391:
	.loc 3 2027 0
	cmpwi 7,3,0
	bne- 7,.L665
	.loc 3 2028 0
	mr 3,31
	mr 4,29
	bl _ZN10idMaterial9ParseSortER7idLexer
	b .L722
.LVL768:
.L663:
.LBB3393:
.LBB3394:
	.loc 4 690 0
	lis 4,.LC218@ha
	lwz 3,4(30)
	la 4,.LC218@l(4)
	bl _ZN5idStr4IcmpEPKcS1_
.LBE3394:
.LBE3393:
	.loc 3 2019 0
	cmpwi 7,3,0
	bne- 7,.L664
	.loc 3 2020 0
	li 0,3
	stw 0,76(31)
	b .L722
.LVL769:
.L665:
.LBB3395:
.LBB3396:
	.loc 4 690 0
	lis 4,.LC220@ha
	lwz 3,4(30)
	la 4,.LC220@l(4)
	bl _ZN5idStr4IcmpEPKcS1_
.LBE3396:
.LBE3395:
	.loc 3 2032 0
	cmpwi 7,3,0
	bne- 7,.L666
	.loc 3 2033 0
	mr 3,29
	mr 4,30
	bl _ZN7idLexer15ReadTokenOnLineEP7idToken
	.loc 3 2034 0
	lwz 3,4(30)
	bl atoi
	stw 3,88(31)
	.loc 3 2035 0
	b .L722
.LVL770:
.L664:
	.loc 3 2022 0
	lis 9,uiManager@ha
	lwz 4,4(30)
	lwz 3,uiManager@l(9)
	li 5,1
	li 6,0
	li 7,0
	lwz 9,0(3)
	lwz 0,60(9)
	mtctr 0
	bctrl
	stw 3,80(31)
	b .L722
.LVL771:
.L666:
.LBB3397:
.LBB3398:
	.loc 4 690 0
	lis 4,.LC221@ha
	lwz 3,4(30)
	la 4,.LC221@l(4)
	bl _ZN5idStr4IcmpEPKcS1_
.LBE3398:
.LBE3397:
	.loc 3 2038 0
	cmpwi 7,3,0
	bne- 7,.L667
	.loc 3 2039 0
	mr 3,31
	mr 4,29
	bl _ZN10idMaterial11ParseDeformER7idLexer
	b .L722
.L667:
.LVL772:
.LBB3399:
.LBB3400:
	.loc 4 690 0
	lis 4,.LC222@ha
	lwz 3,4(30)
	la 4,.LC222@l(4)
	bl _ZN5idStr4IcmpEPKcS1_
.LBE3400:
.LBE3399:
	.loc 3 2043 0
	cmpwi 7,3,0
	bne- 7,.L668
	.loc 3 2044 0
	mr 3,31
	mr 4,29
	bl _ZN10idMaterial14ParseDecalInfoER7idLexer
	b .L722
.L668:
.LVL773:
.LBB3401:
.LBB3402:
	.loc 4 690 0
	lis 4,.LC223@ha
	lwz 3,4(30)
	la 4,.LC223@l(4)
	bl _ZN5idStr4IcmpEPKcS1_
.LBE3402:
.LBE3401:
	.loc 3 2048 0
	cmpwi 7,3,0
	bne- 7,.L669
	.loc 3 2049 0
	mr 3,29
	addi 4,31,40
	bl _ZN7idLexer15ParseRestOfLineER5idStr
	b .L722
.L669:
.LVL774:
.LBB3403:
.LBB3404:
	.loc 4 690 0
	lis 19,.LC101@ha
	lwz 3,4(30)
	la 19,.LC101@l(19)
	mr 4,19
	bl _ZN5idStr4IcmpEPKcS1_
.LBE3404:
.LBE3403:
	.loc 3 2053 0
	cmpwi 7,3,0
	bne- 7,.L670
	.loc 3 2054 0
	mr 3,29
	bl _Z23R_ParsePastImageProgramR7idLexer
	.loc 3 2055 0
	addi 20,1,328
	lis 5,.LC224@ha
	.loc 3 2054 0
	mr 6,3
.LVL775:
	.loc 3 2055 0
	li 4,1024
	mr 3,20
.LVL776:
	la 5,.LC224@l(5)
	crxor 6,6,6
	bl _ZN5idStr8snPrintfEPciPKcz
.LVL777:
.L736:
	.loc 3 2076 0
	mr 3,20
	bl strlen
	mr 4,20
	mr 5,3
	mr 6,19
	addi 3,1,120
	li 7,1
	bl _ZN7idLexer10LoadMemoryEPKciS1_i
.LVL778:
.LBB3405:
.LBB3406:
	.loc 9 367 0
	li 0,156
.LBE3406:
.LBE3405:
	.loc 3 2078 0
	mr 3,31
	addi 4,1,120
	mr 5,22
.LBB3408:
.LBB3407:
	.loc 9 367 0
	stw 0,224(1)
.LBE3407:
.LBE3408:
	.loc 3 2078 0
	bl _ZN10idMaterial10ParseStageER7idLexer15textureRepeat_t
	.loc 3 2079 0
	addi 3,1,120
	bl _ZN7idLexer10FreeSourceEv
	b .L722
.LVL779:
.L670:
.LBB3409:
.LBB3410:
	.loc 4 690 0
	lis 19,.LC102@ha
	lwz 3,4(30)
	la 19,.LC102@l(19)
	mr 4,19
	bl _ZN5idStr4IcmpEPKcS1_
.LBE3410:
.LBE3409:
	.loc 3 2063 0
	cmpwi 7,3,0
	bne- 7,.L671
	.loc 3 2064 0
	mr 3,29
	bl _Z23R_ParsePastImageProgramR7idLexer
	.loc 3 2065 0
	addi 20,1,328
	lis 5,.LC225@ha
	.loc 3 2064 0
	mr 6,3
.LVL780:
	.loc 3 2065 0
	li 4,1024
	mr 3,20
.LVL781:
	la 5,.LC225@l(5)
	crxor 6,6,6
	bl _ZN5idStr8snPrintfEPciPKcz
.LVL782:
	b .L736
.L671:
.LVL783:
.LBB3411:
.LBB3412:
	.loc 4 690 0
	lis 19,.LC100@ha
	lwz 3,4(30)
	la 19,.LC100@l(19)
	mr 4,19
	bl _ZN5idStr4IcmpEPKcS1_
.LBE3412:
.LBE3411:
	.loc 3 2073 0
	cmpwi 7,3,0
	bne- 7,.L672
	.loc 3 2074 0
	mr 3,29
	bl _Z23R_ParsePastImageProgramR7idLexer
	.loc 3 2075 0
	addi 20,1,328
	lis 5,.LC226@ha
	.loc 3 2074 0
	mr 6,3
.LVL784:
	.loc 3 2075 0
	li 4,1024
	mr 3,20
.LVL785:
	la 5,.LC226@l(5)
	crxor 6,6,6
	bl _ZN5idStr8snPrintfEPciPKcz
.LVL786:
	b .L736
.L672:
.LVL787:
.LBB3413:
.LBB3414:
	.loc 4 690 0
	lis 4,.LC227@ha
	lwz 3,4(30)
	la 4,.LC227@l(4)
	bl _ZN5idStr4IcmpEPKcS1_
.LBE3414:
.LBE3413:
	.loc 3 2083 0
	cmpwi 7,3,0
	bne- 7,.L673
.LVL788:
	.loc 3 2086 0
	lis 9,.LC14@ha
.LBB3415:
.LBB3416:
	.loc 6 488 0
	lwz 0,104(31)
.LBE3416:
.LBE3415:
	.loc 3 2089 0
	lwz 10,100(31)
	.loc 3 2090 0
	lwz 11,96(31)
.LBB3417:
.LBB3418:
	.loc 6 488 0
	ori 0,0,6
.LBE3418:
.LBE3417:
	.loc 3 2086 0
	lwz 8,.LC14@l(9)
	.loc 3 2093 0
	lis 9,.LC21@ha
	lwz 9,.LC21@l(9)
	.loc 3 2089 0
	ori 10,10,1024
	.loc 3 2090 0
	rlwinm 11,11,0,0,30
	.loc 3 2086 0
	stw 8,92(31)
	.loc 3 2089 0
	stw 10,100(31)
	.loc 3 2090 0
	stw 11,96(31)
	.loc 3 2093 0
	stw 9,148(31)
.LVL789:
.LBB3420:
.LBB3419:
	.loc 6 488 0
	stw 0,104(31)
.LBE3419:
.LBE3420:
	.loc 3 2097 0
	b .L722
.LVL790:
.L673:
	.loc 3 2099 0
	lis 4,.LC228@ha
	lwz 3,4(30)
	la 4,.LC228@l(4)
	bl _ZeqRK5idStrPKc.isra.7
	cmpwi 7,3,0
	beq- 7,.L674
	.loc 3 2101 0
	mr 3,31
	mr 4,29
	mr 5,22
	bl _ZN10idMaterial10ParseStageER7idLexer15textureRepeat_t
	b .L722
.L674:
	.loc 3 2840 0
	lwz 3,4(31)
	.loc 3 2105 0
	lis 11,common@ha
	lwz 29,common@l(11)
.LVL791:
.LBB3421:
.LBB3422:
	.loc 2 140 0
	lwz 9,0(3)
.LBE3422:
.LBE3421:
	.loc 3 2105 0
	lwz 27,4(30)
.LBB3427:
.LBB3423:
	.loc 2 140 0
	lwz 0,8(9)
.LBE3423:
.LBE3427:
	.loc 3 2105 0
	lwz 9,0(29)
.LBB3428:
.LBB3424:
	.loc 2 140 0
	mtctr 0
.LBE3424:
.LBE3428:
	.loc 3 2105 0
	lwz 28,80(9)
.LBB3429:
.LBB3425:
	.loc 2 140 0
	bctrl
.LBE3425:
.LBE3429:
	.loc 3 2105 0
	lis 4,.LC229@ha
.LBB3430:
.LBB3426:
	.loc 2 140 0
	mr 6,3
.LBE3426:
.LBE3430:
	.loc 3 2105 0
	la 4,.LC229@l(4)
	mr 3,29
	mr 5,27
	mtctr 28
	crxor 6,6,6
	bctrl
.LVL792:
	.loc 3 2107 0
	lwz 3,4(31)
.LBB3431:
.LBB3432:
	.loc 6 488 0
	lwz 0,104(31)
.LBE3432:
.LBE3431:
	.loc 3 2107 0
	cmpwi 7,3,0
.LBB3434:
.LBB3433:
	.loc 6 488 0
	ori 0,0,1
	stw 0,104(31)
.LBE3433:
.LBE3434:
	.loc 3 2107 0
	beq- 7,.L631
.LBB3435:
.LBB3436:
	.loc 2 140 0 discriminator 1
	lwz 9,0(3)
	lwz 0,8(9)
	mtctr 0
	bctrl
.LBE3436:
.LBE3435:
	.loc 3 2107 0 discriminator 1
	lis 4,.LC6@ha
	la 4,.LC6@l(4)
	bl _ZN5idStr3CmpEPKcS1_
	.loc 3 2107 0 is_stmt 0
	cmpwi 7,3,0
	bne- 7,.L631
	.loc 3 2840 0 is_stmt 1 discriminator 4
	lwz 3,4(31)
	.loc 3 2108 0 discriminator 4
	lwz 28,216(31)
.LBB3437:
.LBB3438:
	.loc 2 140 0 discriminator 4
	lwz 9,0(3)
.LBE3438:
.LBE3437:
	.loc 3 2108 0 discriminator 4
	lwz 29,4(30)
.LBB3440:
.LBB3439:
	.loc 2 140 0 discriminator 4
	lwz 0,8(9)
	mtctr 0
	bctrl
	mr 7,3
.LBE3439:
.LBE3440:
	.loc 3 2108 0 discriminator 4
	lis 3,.LC230@ha
	la 3,.LC230@l(3)
	mr 4,31
	mr 5,28
	mr 6,29
	crxor 6,6,6
	bl _Z10Sys_PrintfPKcz
.LEHE75:
	b .L631
.LBE3366:
.LBE3363:
.LBE3360:
.LBE3443:
.LBE3446:
.LBE3449:
.LBE3456:
.LBE3463:
.LBE3352:
.LBE3349:
.LBE3466:
.LBE3345:
.LBE3342:
.LBE3339:
.LBE3336:
.LBE3333:
.LBE3328:
.LBE3323:
.LBE3467:
.LBE3469:
.LBE3472:
.LBE3497:
.LBE3505:
.LBE3515:
.LBE3525:
.LBE3535:
.LBE3555:
.LBE3590:
.LBE3593:
	.cfi_endproc
.LFE2599:
	.section	.gcc_except_table
.LLSDA2599:
	.byte	0xff
	.byte	0xff
	.byte	0x1
	.uleb128 .LLSDACSE2599-.LLSDACSB2599
.LLSDACSB2599:
	.uleb128 .LEHB66-.LFB2599
	.uleb128 .LEHE66-.LEHB66
	.uleb128 .L714-.LFB2599
	.uleb128 0
	.uleb128 .LEHB67-.LFB2599
	.uleb128 .LEHE67-.LEHB67
	.uleb128 .L715-.LFB2599
	.uleb128 0
	.uleb128 .LEHB68-.LFB2599
	.uleb128 .LEHE68-.LEHB68
	.uleb128 .L714-.LFB2599
	.uleb128 0
	.uleb128 .LEHB69-.LFB2599
	.uleb128 .LEHE69-.LEHB69
	.uleb128 0
	.uleb128 0
	.uleb128 .LEHB70-.LFB2599
	.uleb128 .LEHE70-.LEHB70
	.uleb128 .L715-.LFB2599
	.uleb128 0
	.uleb128 .LEHB71-.LFB2599
	.uleb128 .LEHE71-.LEHB71
	.uleb128 0
	.uleb128 0
	.uleb128 .LEHB72-.LFB2599
	.uleb128 .LEHE72-.LEHB72
	.uleb128 .L715-.LFB2599
	.uleb128 0
	.uleb128 .LEHB73-.LFB2599
	.uleb128 .LEHE73-.LEHB73
	.uleb128 .L716-.LFB2599
	.uleb128 0
	.uleb128 .LEHB74-.LFB2599
	.uleb128 .LEHE74-.LEHB74
	.uleb128 .L715-.LFB2599
	.uleb128 0
	.uleb128 .LEHB75-.LFB2599
	.uleb128 .LEHE75-.LEHB75
	.uleb128 .L715-.LFB2599
	.uleb128 0
.LLSDACSE2599:
	.section	".text"
	.size	_ZN10idMaterial13ParseMaterialER7idLexer, .-_ZN10idMaterial13ParseMaterialER7idLexer
	.align 2
	.globl _ZNK10idMaterial6SetGuiEPKc
	.type	_ZNK10idMaterial6SetGuiEPKc, @function
_ZNK10idMaterial6SetGuiEPKc:
.LFB2600:
	.loc 3 2170 0
	.cfi_startproc
.LVL793:
	mflr 0
	stwu 1,-16(1)
.LCFI142:
	.cfi_def_cfa_offset 16
	.cfi_register 65, 0
	.loc 3 2171 0
	lis 9,uiManager@ha
	li 5,1
	.loc 3 2170 0
	stw 31,12(1)
	.loc 3 2171 0
	li 6,0
	.loc 3 2170 0
	stw 0,20(1)
	.loc 3 2170 0
	mr 31,3
	.cfi_offset 65, 4
	.cfi_offset 31, -4
	.loc 3 2171 0
	lwz 9,uiManager@l(9)
	li 7,1
	lwz 11,0(9)
	mr 3,9
.LVL794:
	lwz 0,60(11)
	mtctr 0
	bctrl
.LVL795:
	stw 3,80(31)
	.loc 3 2172 0
	lwz 0,20(1)
	lwz 31,12(1)
.LVL796:
	mtlr 0
	addi 1,1,16
.LCFI143:
	.cfi_def_cfa_offset 0
	.cfi_restore 31
	blr
	.cfi_endproc
.LFE2600:
	.size	_ZNK10idMaterial6SetGuiEPKc, .-_ZNK10idMaterial6SetGuiEPKc
	.align 2
	.globl _ZN10idMaterial4SaveEPKc
	.type	_ZN10idMaterial4SaveEPKc, @function
_ZN10idMaterial4SaveEPKc:
.LFB2603:
	.loc 3 2439 0
	.cfi_startproc
.LVL797:
	mflr 0
	stwu 1,-8(1)
.LCFI144:
	.cfi_def_cfa_offset 8
	.cfi_register 65, 0
	stw 0,12(1)
	.loc 3 2840 0
	lwz 3,4(3)
.LVL798:
.LBB3594:
.LBB3595:
	.loc 2 184 0
	lwz 9,0(3)
	lwz 0,64(9)
	.cfi_offset 65, 4
	mtctr 0
	bctrl
.LVL799:
.LBE3595:
.LBE3594:
	.loc 3 2441 0
	lwz 0,12(1)
	addi 1,1,8
.LCFI145:
	.cfi_def_cfa_offset 0
	mtlr 0
	blr
	.cfi_endproc
.LFE2603:
	.size	_ZN10idMaterial4SaveEPKc, .-_ZN10idMaterial4SaveEPKc
	.align 2
	.globl _ZN10idMaterial12AddReferenceEv
	.type	_ZN10idMaterial12AddReferenceEv, @function
_ZN10idMaterial12AddReferenceEv:
.LFB2604:
	.loc 3 2448 0
	.cfi_startproc
.LVL800:
	mflr 0
	stwu 1,-16(1)
.LCFI146:
	.cfi_def_cfa_offset 16
	.cfi_register 65, 0
	stw 31,12(1)
	mr 31,3
	.cfi_offset 31, -4
	stw 0,20(1)
.LBB3596:
	.loc 3 2449 0
	lwz 11,292(3)
	.loc 3 2840 0
	lwz 9,4(3)
	.loc 3 2449 0
	addi 0,11,1
	.cfi_offset 65, 4
	stw 0,292(3)
.LBB3597:
.LBB3598:
	.loc 2 162 0
	mr 3,9
.LVL801:
	lwz 9,0(9)
	lwz 0,36(9)
	mtctr 0
	bctrl
.LVL802:
.LBE3598:
.LBE3597:
.LBB3599:
	.loc 3 2453 0
	lwz 0,228(31)
	cmpwi 7,0,0
	ble- 7,.L752
	li 10,0
	li 11,0
.LVL803:
.L755:
.LBB3600:
	.loc 3 2456 0
	lwz 9,236(31)
.LBE3600:
	.loc 3 2453 0
	addi 11,11,1
.LBB3603:
	.loc 3 2456 0
	add 9,9,10
.LBE3603:
	.loc 3 2453 0
	addi 10,10,108
.LVL804:
.LBB3604:
	.loc 3 2456 0
	lwz 9,40(9)
	cmpwi 7,9,0
	beq- 7,.L754
.LVL805:
.LBB3601:
.LBB3602:
	.file 10 "d:/Data/Nintendo/DoomGX/src/renderer/Image.h"
	.loc 10 194 0
	lwz 8,1232(9)
	addi 0,8,1
	stw 0,1232(9)
	lwz 0,228(31)
.LVL806:
.L754:
.LBE3602:
.LBE3601:
.LBE3604:
	.loc 3 2453 0
	cmpw 7,0,11
	bgt+ 7,.L755
.LVL807:
.L752:
.LBE3599:
.LBE3596:
	.loc 3 2460 0
	lwz 0,20(1)
	lwz 31,12(1)
.LVL808:
	mtlr 0
	addi 1,1,16
.LCFI147:
	.cfi_def_cfa_offset 0
	.cfi_restore 31
	blr
	.cfi_endproc
.LFE2604:
	.size	_ZN10idMaterial12AddReferenceEv, .-_ZN10idMaterial12AddReferenceEv
	.align 2
	.globl _ZNK10idMaterial17EvaluateRegistersEPfPKfPK9viewDef_sP14idSoundEmitter
	.type	_ZNK10idMaterial17EvaluateRegistersEPfPKfPK9viewDef_sP14idSoundEmitter, @function
_ZNK10idMaterial17EvaluateRegistersEPfPKfPK9viewDef_sP14idSoundEmitter:
.LFB2605:
	.loc 3 2473 0
	.cfi_startproc
.LVL809:
	mflr 0
	stwu 1,-112(1)
.LCFI148:
	.cfi_def_cfa_offset 112
	.cfi_register 65, 0
	mfcr 12
	stw 25,76(1)
	mr 25,7
	.cfi_offset 25, -36
	.cfi_register 70, 12
	stw 28,88(1)
	mr 28,6
	.cfi_offset 28, -24
	stw 29,92(1)
	mr 29,5
	.cfi_offset 29, -20
	stw 30,96(1)
	mr 30,3
	.cfi_offset 30, -16
	stw 31,100(1)
	mr 31,4
	.cfi_offset 31, -12
	stw 0,116(1)
	stfd 31,104(1)
	stw 18,48(1)
	stw 19,52(1)
	stw 20,56(1)
	stw 21,60(1)
	stw 22,64(1)
	stw 23,68(1)
	stw 24,72(1)
	stw 26,80(1)
	stw 27,84(1)
	stw 12,44(1)
.LBB3605:
.LBB3606:
.LBB3607:
.LBB3608:
	.loc 3 2840 0
	lwz 3,4(3)
.LVL810:
.LBE3608:
.LBE3607:
.LBE3606:
.LBB3621:
.LBB3622:
	.loc 2 162 0
	lwz 9,0(3)
	lwz 0,36(9)
	.cfi_offset 70, -68
	.cfi_offset 27, -28
	.cfi_offset 26, -32
	.cfi_offset 24, -40
	.cfi_offset 23, -44
	.cfi_offset 22, -48
	.cfi_offset 21, -52
	.cfi_offset 20, -56
	.cfi_offset 19, -60
	.cfi_offset 18, -64
	.cfi_offset 63, -8
	.cfi_offset 65, 4
	mtctr 0
	bctrl
.LVL811:
.LBE3622:
.LBE3621:
	.loc 3 2478 0
	lwz 0,216(30)
	cmpwi 7,0,0
	ble- 7,.L758
	.loc 3 2478 0 is_stmt 0 discriminator 1
	lwz 9,220(30)
	cmpwi 7,9,0
	beq- 7,.L816
.L759:
.LVL812:
	.loc 3 2484 0 is_stmt 1 discriminator 1
	cmpwi 7,0,21
	ble- 7,.L758
	.loc 3 2472 0
	addi 11,31,80
.LBE3605:
	li 9,21
.LVL813:
.L760:
.LBB3630:
	.loc 3 2485 0 discriminator 2
	lwz 10,220(30)
	slwi 0,9,2
	.loc 3 2484 0 discriminator 2
	addi 9,9,1
.LVL814:
	.loc 3 2485 0 discriminator 2
	lwzx 0,10,0
	stwu 0,4(11)
	.loc 3 2484 0 discriminator 2
	lwz 0,216(30)
	cmpw 7,0,9
	bgt+ 7,.L760
.LVL815:
.L758:
	.loc 3 2489 0
	lwz 0,368(28)
	stw 0,0(31)
	.loc 3 2490 0
	lwz 0,0(29)
	stw 0,4(31)
	.loc 3 2491 0
	lwz 0,4(29)
	stw 0,8(31)
	.loc 3 2492 0
	lwz 0,8(29)
	stw 0,12(31)
	.loc 3 2493 0
	lwz 0,12(29)
	stw 0,16(31)
	.loc 3 2494 0
	lwz 0,16(29)
	stw 0,20(31)
	.loc 3 2495 0
	lwz 0,20(29)
	stw 0,24(31)
	.loc 3 2496 0
	lwz 0,24(29)
	stw 0,28(31)
	.loc 3 2497 0
	lwz 0,28(29)
	stw 0,32(31)
	.loc 3 2498 0
	lwz 0,32(29)
	stw 0,36(31)
	.loc 3 2499 0
	lwz 0,36(29)
	stw 0,40(31)
	.loc 3 2500 0
	lwz 0,40(29)
	stw 0,44(31)
	.loc 3 2501 0
	lwz 0,44(29)
	stw 0,48(31)
	.loc 3 2502 0
	lwz 0,84(28)
	stw 0,52(31)
	.loc 3 2503 0
	lwz 0,88(28)
	stw 0,56(31)
	.loc 3 2504 0
	lwz 0,92(28)
	stw 0,60(31)
	.loc 3 2505 0
	lwz 0,96(28)
	stw 0,64(31)
	.loc 3 2506 0
	lwz 0,100(28)
	stw 0,68(31)
	.loc 3 2507 0
	lwz 0,104(28)
	stw 0,72(31)
	.loc 3 2508 0
	lwz 0,108(28)
	stw 0,76(31)
	.loc 3 2509 0
	lwz 0,112(28)
	stw 0,80(31)
.LBB3623:
	.loc 3 2512 0
	lwz 0,208(30)
.LBE3623:
	.loc 3 2511 0
	lwz 29,212(30)
.LVL816:
.LBB3624:
	.loc 3 2512 0
	cmpwi 7,0,0
	ble- 7,.L757
.LBB3617:
.LBB3611:
	.loc 3 2569 0
	lis 22,.LC239@ha
.LBE3611:
	.loc 3 2513 0
	lis 27,.L778@ha
.LBB3612:
	.loc 3 2566 0
	lis 9,.LC10@ha
	.loc 3 2538 0
	cmpwi 4,25,0
.LBE3612:
.LBE3617:
	.loc 3 2512 0
	li 28,0
.LVL817:
.LBB3618:
.LBB3613:
	.loc 3 2569 0
	lis 21,common@ha
	la 22,.LC239@l(22)
.LBE3613:
	.loc 3 2513 0
	la 27,.L778@l(27)
.LBB3614:
	.loc 3 2566 0
	lfs 31,.LC10@l(9)
	lis 26,.LC14@ha
	lis 23,0x4330
	lis 19,.LC64@ha
.LBB3609:
	.loc 3 2533 0
	lis 24,declManager@ha
.LBE3609:
	.loc 3 2528 0
	lis 20,.LC238@ha
	b .L794
.LVL818:
.L762:
	.loc 3 2569 0
	lwz 3,common@l(21)
	mr 4,22
	lwz 9,0(3)
	lwz 0,100(9)
	mtctr 0
	crxor 6,6,6
	bctrl
.L779:
.LBE3614:
.LBE3618:
	.loc 3 2512 0
	lwz 0,208(30)
	addi 28,28,1
.LVL819:
	addi 29,29,16
.LVL820:
	cmpw 7,0,28
	ble- 7,.L757
.LVL821:
.L794:
.LBB3619:
	.loc 3 2513 0
	lwz 0,0(29)
	cmplwi 7,0,14
	bgt- 7,.L762
	slwi 0,0,2
	lwzx 0,27,0
	add 0,0,27
	mtctr 0
	bctr
	.section	.rodata
	.align 2
	.align 2
.L778:
	.long .L763-.L778
	.long .L764-.L778
	.long .L765-.L778
	.long .L766-.L778
	.long .L767-.L778
	.long .L768-.L778
	.long .L769-.L778
	.long .L770-.L778
	.long .L771-.L778
	.long .L772-.L778
	.long .L773-.L778
	.long .L774-.L778
	.long .L775-.L778
	.long .L776-.L778
	.long .L777-.L778
	.section	".text"
.L776:
.LBB3615:
	.loc 3 2566 0
	lwz 9,4(29)
	lwz 0,12(29)
	slwi 9,9,2
	lfsx 0,31,9
	slwi 0,0,2
	fcmpu 7,0,31
	lfs 0,.LC14@l(26)
	beq- 7,.L817
	.loc 3 2566 0 is_stmt 0 discriminator 4
	stfsx 0,31,0
.L818:
.LBE3615:
.LBE3619:
	.loc 3 2512 0 is_stmt 1
	lwz 0,208(30)
	addi 28,28,1
.LVL822:
	addi 29,29,16
.LVL823:
	cmpw 7,0,28
	bgt+ 7,.L794
.LVL824:
.L757:
.LBE3624:
.LBE3630:
	.loc 3 2573 0
	lwz 0,116(1)
	lwz 12,44(1)
	mtlr 0
	lwz 18,48(1)
	lwz 19,52(1)
	mtcrf 8,12
	lwz 20,56(1)
	lwz 21,60(1)
	lwz 22,64(1)
	lwz 23,68(1)
	lwz 24,72(1)
	lwz 25,76(1)
.LVL825:
	lwz 26,80(1)
	lwz 27,84(1)
	lwz 28,88(1)
	lwz 29,92(1)
.LVL826:
	lwz 30,96(1)
.LVL827:
	lwz 31,100(1)
.LVL828:
	lfd 31,104(1)
	addi 1,1,112
	.cfi_remember_state
.LCFI149:
	.cfi_def_cfa_offset 0
	.cfi_restore 70
	.cfi_restore 63
	.cfi_restore 31
	.cfi_restore 30
	.cfi_restore 29
	.cfi_restore 28
	.cfi_restore 27
	.cfi_restore 26
	.cfi_restore 25
	.cfi_restore 24
	.cfi_restore 23
	.cfi_restore 22
	.cfi_restore 21
	.cfi_restore 20
	.cfi_restore 19
	.cfi_restore 18
	blr
.LVL829:
.L775:
.LCFI150:
	.cfi_restore_state
.LBB3631:
.LBB3625:
.LBB3620:
.LBB3616:
	.loc 3 2563 0
	lwz 0,4(29)
	lwz 9,12(29)
	slwi 0,0,2
	lfsx 0,31,0
	slwi 9,9,2
	li 0,0
	fcmpu 7,0,31
	beq- 7,.L792
	.loc 3 2563 0 is_stmt 0 discriminator 1
	lwz 11,8(29)
	slwi 11,11,2
	lfsx 0,31,11
	fcmpu 7,0,31
	beq- 7,.L792
	.loc 3 2563 0
	lwz 0,.LC14@l(26)
.L792:
	.loc 3 2563 0 discriminator 4
	stwx 0,31,9
	.loc 3 2564 0 is_stmt 1 discriminator 4
	b .L779
.L774:
	.loc 3 2560 0
	lwz 9,4(29)
	lwz 0,8(29)
	slwi 9,9,2
	slwi 0,0,2
	lfsx 13,31,9
	lfsx 0,31,0
	li 0,0
	lwz 9,12(29)
	fcmpu 7,13,0
	slwi 9,9,2
	beq- 7,.L792
	.loc 3 2563 0
	lwz 0,.LC14@l(26)
	b .L792
.L773:
	.loc 3 2557 0
	lwz 9,4(29)
	lwz 0,8(29)
	slwi 9,9,2
	slwi 0,0,2
	lfsx 13,31,9
	lfsx 0,31,0
	li 0,0
	lwz 9,12(29)
	fcmpu 7,13,0
	slwi 9,9,2
	bne- 7,.L792
	.loc 3 2563 0
	lwz 0,.LC14@l(26)
	b .L792
.L772:
	.loc 3 2554 0
	lwz 9,4(29)
	lwz 0,8(29)
	slwi 9,9,2
	slwi 0,0,2
	lfsx 13,31,9
	lfsx 0,31,0
	lwz 9,12(29)
	fcmpu 7,13,0
	lwz 0,.LC14@l(26)
	slwi 9,9,2
	cror 30,28,30
	beq- 7,.L792
.L812:
	li 0,0
	.loc 3 2563 0
	stwx 0,31,9
	b .L779
.L771:
	.loc 3 2551 0
	lwz 9,4(29)
	lwz 0,8(29)
	slwi 9,9,2
	slwi 0,0,2
	lfsx 13,31,9
	lfsx 0,31,0
	lwz 9,12(29)
	fcmpu 7,13,0
	lwz 0,.LC14@l(26)
	slwi 9,9,2
	bnl- 7,.L812
	.loc 3 2563 0
	stwx 0,31,9
	b .L779
.L770:
	.loc 3 2548 0
	lwz 9,4(29)
	lwz 0,8(29)
	slwi 9,9,2
	slwi 0,0,2
	lfsx 13,31,9
	lfsx 0,31,0
	lwz 9,12(29)
	fcmpu 7,13,0
	lwz 0,.LC14@l(26)
	slwi 9,9,2
	cror 30,29,30
	bne- 7,.L812
	.loc 3 2563 0
	stwx 0,31,9
	b .L779
.L769:
	.loc 3 2545 0
	lwz 9,4(29)
	lwz 0,8(29)
	slwi 9,9,2
	slwi 0,0,2
	lfsx 13,31,9
	lfsx 0,31,0
	lwz 9,12(29)
	fcmpu 7,13,0
	lwz 0,.LC14@l(26)
	slwi 9,9,2
	bng- 7,.L812
	.loc 3 2563 0
	stwx 0,31,9
	b .L779
.L768:
.LBB3610:
	.loc 3 2533 0
	lwz 3,declManager@l(24)
	li 4,0
	lwz 5,4(29)
	li 6,1
	lwz 9,0(3)
	lwz 0,76(9)
	mtctr 0
	bctrl
	.loc 3 2534 0
	lwz 0,8(29)
	lwz 18,12(29)
	slwi 0,0,2
	lfsx 1,31,0
	slwi 18,18,2
	bl _ZNK11idDeclTable11TableLookupEf
	stfsx 1,31,18
.LBE3610:
	.loc 3 2536 0
	b .L779
.L767:
	.loc 3 2527 0
	lwz 0,8(29)
	addi 11,1,28
	.loc 3 2528 0
	li 9,0
	.loc 3 2527 0
	slwi 0,0,2
	lfsx 0,31,0
	fctiwz 0,0
	stfiwx 0,0,11
	lwz 0,28(1)
.LVL830:
	.loc 3 2528 0
	cmpwi 7,0,0
	beq- 7,.L780
	lwz 9,4(29)
	lfs 0,.LC238@l(20)
	slwi 9,9,2
	lfsx 13,31,9
	addi 9,1,24
	stw 23,8(1)
	fctiwz 13,13
	stfiwx 13,0,9
	lwz 9,24(1)
	divw 11,9,0
.LVL831:
	mullw 0,11,0
	subf 9,0,9
	xoris 9,9,0x8000
	stw 9,12(1)
	lfd 13,8(1)
	fsub 0,13,0
	frsp 0,0
	stfs 0,32(1)
	lwz 9,32(1)
.L780:
.LVL832:
	.loc 3 2529 0 discriminator 3
	lwz 0,12(29)
	slwi 0,0,2
	stwx 9,31,0
	.loc 3 2530 0 discriminator 3
	b .L779
.L766:
	.loc 3 2524 0
	lwz 9,4(29)
	lwz 0,8(29)
	slwi 9,9,2
	slwi 0,0,2
	lfsx 13,31,9
	lfsx 0,31,0
	lwz 0,12(29)
	fdivs 0,13,0
	slwi 0,0,2
	stfsx 0,31,0
	.loc 3 2525 0
	b .L779
.L764:
	.loc 3 2518 0
	lwz 9,4(29)
	lwz 0,8(29)
	slwi 9,9,2
	slwi 0,0,2
	lfsx 13,31,9
	lfsx 0,31,0
	lwz 0,12(29)
	fsubs 0,13,0
	slwi 0,0,2
	stfsx 0,31,0
	.loc 3 2519 0
	b .L779
.L763:
	.loc 3 2515 0
	lwz 9,4(29)
	lwz 0,8(29)
	slwi 9,9,2
	slwi 0,0,2
	lfsx 13,31,9
	lfsx 0,31,0
	lwz 0,12(29)
	fadds 0,13,0
	slwi 0,0,2
	stfsx 0,31,0
	.loc 3 2516 0
	b .L779
.L777:
	.loc 3 2538 0
	beq- 4,.L781
	.loc 3 2539 0
	lwz 9,0(25)
	mr 3,25
	lwz 18,12(29)
	lwz 0,36(9)
	slwi 18,18,2
	mtctr 0
	bctrl
	stfsx 1,31,18
	b .L779
.L765:
	.loc 3 2521 0
	lwz 9,4(29)
	lwz 0,8(29)
	slwi 9,9,2
	slwi 0,0,2
	lfsx 13,31,9
	lfsx 0,31,0
	lwz 0,12(29)
	fmuls 0,13,0
	slwi 0,0,2
	stfsx 0,31,0
	.loc 3 2522 0
	b .L779
.L817:
	.loc 3 2566 0 discriminator 2
	lwz 9,8(29)
	stw 23,16(1)
	slwi 9,9,2
	lfs 0,.LC64@l(19)
	.loc 3 2472 0 discriminator 2
	lfsx 13,31,9
	fcmpu 7,13,31
	crnot 30,30
	.loc 3 2566 0 discriminator 2
	mfcr 9
	rlwinm 9,9,31,1
	stw 9,20(1)
	lfd 13,16(1)
	fsub 0,13,0
	frsp 0,0
	stfsx 0,31,0
	b .L818
.L781:
	.loc 3 2541 0
	lwz 0,12(29)
	slwi 0,0,2
	stfsx 31,31,0
	b .L779
.LVL833:
.L816:
.LBE3616:
.LBE3620:
.LBE3625:
	.loc 3 2840 0
	lwz 3,4(30)
.LBB3626:
.LBB3627:
	.loc 2 140 0
	lwz 9,0(3)
	lwz 0,8(9)
	mtctr 0
	bctrl
.LBE3627:
.LBE3626:
	.loc 3 2479 0
	mr 4,30
.LBB3629:
.LBB3628:
	.loc 2 140 0
	mr 5,3
.LBE3628:
.LBE3629:
	.loc 3 2479 0
	lis 3,.LC236@ha
	la 3,.LC236@l(3)
	crxor 6,6,6
	bl _Z10Sys_PrintfPKcz
	.loc 3 2480 0
	bl _Z18Sys_PrintBacktracev
	lwz 0,216(30)
	b .L759
.LBE3631:
	.cfi_endproc
.LFE2605:
	.size	_ZNK10idMaterial17EvaluateRegistersEPfPKfPK9viewDef_sP14idSoundEmitter, .-_ZNK10idMaterial17EvaluateRegistersEPfPKfPK9viewDef_sP14idSoundEmitter
	.align 2
	.globl _ZNK10idMaterial6TexgenEv
	.type	_ZNK10idMaterial6TexgenEv, @function
_ZNK10idMaterial6TexgenEv:
.LFB2606:
	.loc 3 2580 0
	.cfi_startproc
.LVL834:
	mflr 0
	stwu 1,-16(1)
.LCFI151:
	.cfi_def_cfa_offset 16
	.cfi_register 65, 0
	stw 31,12(1)
	mr 31,3
	.cfi_offset 31, -4
	stw 0,20(1)
.LBB3632:
.LBB3633:
	.loc 3 2840 0
	lwz 3,4(3)
.LVL835:
.LBE3633:
.LBE3632:
.LBB3636:
.LBB3637:
	.loc 2 162 0
	lwz 9,0(3)
	lwz 0,36(9)
	.cfi_offset 65, 4
	mtctr 0
	bctrl
.LBE3637:
.LBE3636:
.LBB3638:
	.loc 3 2583 0
	lwz 9,236(31)
	.loc 3 2591 0
	li 3,0
	.loc 3 2583 0
	cmpwi 7,9,0
	beq- 7,.L820
.LVL836:
.LBB3634:
	.loc 3 2584 0 discriminator 1
	lwz 0,228(31)
	cmpwi 7,0,0
	ble- 7,.L820
	.loc 3 2585 0
	lwz 3,44(9)
	mtctr 0
	cmpwi 7,3,0
	beq+ 7,.L823
	b .L831
.LVL837:
.L824:
	lwz 0,44(9)
	cmpwi 7,0,0
	bne- 7,.L821
.L823:
	addi 9,9,108
	.loc 3 2584 0
	bdnz .L824
.L820:
.LBE3634:
.LBE3638:
	.loc 3 2592 0
	lwz 0,20(1)
	lwz 31,12(1)
.LVL838:
	mtlr 0
	addi 1,1,16
	.cfi_remember_state
.LCFI152:
	.cfi_def_cfa_offset 0
	.cfi_restore 31
	blr
.LVL839:
.L831:
.LCFI153:
	.cfi_restore_state
.LBB3639:
.LBB3635:
	.loc 3 2585 0
	mr 0,3
.LVL840:
.L821:
	.loc 3 2586 0
	mr 3,0
.LBE3635:
.LBE3639:
	.loc 3 2592 0
	lwz 0,20(1)
	lwz 31,12(1)
.LVL841:
	mtlr 0
	addi 1,1,16
	.cfi_restore 31
.LCFI154:
	.cfi_def_cfa_offset 0
	blr
	.cfi_endproc
.LFE2606:
	.size	_ZNK10idMaterial6TexgenEv, .-_ZNK10idMaterial6TexgenEv
	.align 2
	.globl _ZNK10idMaterial13GetImageWidthEv
	.type	_ZNK10idMaterial13GetImageWidthEv, @function
_ZNK10idMaterial13GetImageWidthEv:
.LFB2607:
	.loc 3 2599 0
	.cfi_startproc
.LVL842:
	mflr 0
	stwu 1,-16(1)
.LCFI155:
	.cfi_def_cfa_offset 16
	.cfi_register 65, 0
	stw 31,12(1)
	mr 31,3
	.cfi_offset 31, -4
	stw 0,20(1)
	.loc 3 2840 0
	lwz 3,4(3)
.LVL843:
.LBB3640:
.LBB3641:
	.loc 2 162 0
	lwz 9,0(3)
	lwz 0,36(9)
	.cfi_offset 65, 4
	mtctr 0
	bctrl
.LVL844:
.LBE3641:
.LBE3640:
	.loc 3 2604 0
	lwz 0,20(1)
	.loc 3 2603 0
	lwz 9,236(31)
	.loc 3 2604 0
	mtlr 0
	lwz 31,12(1)
.LVL845:
	.loc 3 2603 0
	lwz 9,40(9)
	.loc 3 2604 0
	lwz 3,1204(9)
	addi 1,1,16
.LCFI156:
	.cfi_def_cfa_offset 0
	.cfi_restore 31
	blr
	.cfi_endproc
.LFE2607:
	.size	_ZNK10idMaterial13GetImageWidthEv, .-_ZNK10idMaterial13GetImageWidthEv
	.align 2
	.globl _ZNK10idMaterial14GetImageHeightEv
	.type	_ZNK10idMaterial14GetImageHeightEv, @function
_ZNK10idMaterial14GetImageHeightEv:
.LFB2608:
	.loc 3 2611 0
	.cfi_startproc
.LVL846:
	mflr 0
	stwu 1,-16(1)
.LCFI157:
	.cfi_def_cfa_offset 16
	.cfi_register 65, 0
	stw 31,12(1)
	mr 31,3
	.cfi_offset 31, -4
	stw 0,20(1)
	.loc 3 2840 0
	lwz 3,4(3)
.LVL847:
.LBB3642:
.LBB3643:
	.loc 2 162 0
	lwz 9,0(3)
	lwz 0,36(9)
	.cfi_offset 65, 4
	mtctr 0
	bctrl
.LVL848:
.LBE3643:
.LBE3642:
	.loc 3 2617 0
	lwz 0,20(1)
	.loc 3 2616 0
	lwz 9,236(31)
	.loc 3 2617 0
	mtlr 0
	lwz 31,12(1)
.LVL849:
	.loc 3 2616 0
	lwz 9,40(9)
	.loc 3 2617 0
	lwz 3,1208(9)
	addi 1,1,16
.LCFI158:
	.cfi_def_cfa_offset 0
	.cfi_restore 31
	blr
	.cfi_endproc
.LFE2608:
	.size	_ZNK10idMaterial14GetImageHeightEv, .-_ZNK10idMaterial14GetImageHeightEv
	.align 2
	.globl _ZNK10idMaterial15CinematicLengthEv
	.type	_ZNK10idMaterial15CinematicLengthEv, @function
_ZNK10idMaterial15CinematicLengthEv:
.LFB2609:
	.loc 3 2624 0
	.cfi_startproc
.LVL850:
	mflr 0
	stwu 1,-16(1)
.LCFI159:
	.cfi_def_cfa_offset 16
	.cfi_register 65, 0
	stw 31,12(1)
	mr 31,3
	.cfi_offset 31, -4
	stw 0,20(1)
	.loc 3 2840 0
	lwz 3,4(3)
.LVL851:
.LBB3644:
.LBB3645:
	.loc 2 162 0
	lwz 9,0(3)
	lwz 0,36(9)
	.cfi_offset 65, 4
	mtctr 0
	bctrl
.LBE3645:
.LBE3644:
	.loc 3 2627 0
	lwz 9,236(31)
	.loc 3 2628 0
	li 3,0
	.loc 3 2627 0
	cmpwi 7,9,0
	beq- 7,.L835
	.loc 3 2627 0 is_stmt 0 discriminator 1
	lwz 11,36(9)
	cmpwi 7,11,0
	beq- 7,.L835
	.loc 3 2630 0 is_stmt 1
	lwz 9,0(11)
	mr 3,11
	lwz 0,12(9)
	mtctr 0
	bctrl
.L835:
	.loc 3 2631 0
	lwz 0,20(1)
	lwz 31,12(1)
.LVL852:
	mtlr 0
	addi 1,1,16
.LCFI160:
	.cfi_def_cfa_offset 0
	.cfi_restore 31
	blr
	.cfi_endproc
.LFE2609:
	.size	_ZNK10idMaterial15CinematicLengthEv, .-_ZNK10idMaterial15CinematicLengthEv
	.align 2
	.globl _ZNK10idMaterial15UpdateCinematicEi
	.type	_ZNK10idMaterial15UpdateCinematicEi, @function
_ZNK10idMaterial15UpdateCinematicEi:
.LFB2610:
	.loc 3 2638 0
	.cfi_startproc
.LVL853:
	mflr 0
	stwu 1,-32(1)
.LCFI161:
	.cfi_def_cfa_offset 32
	.cfi_register 65, 0
	stw 31,28(1)
	mr 31,3
	.cfi_offset 31, -4
	stw 0,36(1)
	.loc 3 2840 0
	lwz 3,4(3)
.LVL854:
.LBB3646:
.LBB3647:
	.loc 2 162 0
	lwz 9,0(3)
	lwz 0,36(9)
	.cfi_offset 65, 4
	mtctr 0
	bctrl
.LVL855:
.LBE3647:
.LBE3646:
	.loc 3 2641 0
	lwz 9,236(31)
	cmpwi 7,9,0
	beq- 7,.L838
	.loc 3 2641 0 is_stmt 0 discriminator 1
	lwz 4,36(9)
	cmpwi 7,4,0
	beq- 7,.L838
	.loc 3 2641 0 discriminator 2
	lis 9,backEnd+4@ha
	lwz 0,backEnd+4@l(9)
	cmpwi 7,0,0
	beq- 7,.L838
	.loc 3 2644 0 is_stmt 1
	lwz 9,0(4)
	addi 3,1,8
	lwz 0,16(9)
	lis 9,tr+172@ha
	lwz 5,tr+172@l(9)
	mtctr 0
	bctrl
.L838:
	.loc 3 2645 0
	lwz 0,36(1)
	lwz 31,28(1)
.LVL856:
	mtlr 0
	addi 1,1,32
.LCFI162:
	.cfi_def_cfa_offset 0
	.cfi_restore 31
	blr
	.cfi_endproc
.LFE2610:
	.size	_ZNK10idMaterial15UpdateCinematicEi, .-_ZNK10idMaterial15UpdateCinematicEi
	.align 2
	.globl _ZNK10idMaterial14CloseCinematicEv
	.type	_ZNK10idMaterial14CloseCinematicEv, @function
_ZNK10idMaterial14CloseCinematicEv:
.LFB2611:
	.loc 3 2652 0
	.cfi_startproc
.LVL857:
	mflr 0
	stwu 1,-24(1)
.LCFI163:
	.cfi_def_cfa_offset 24
	.cfi_register 65, 0
	stw 29,12(1)
	mr 29,3
	.cfi_offset 29, -12
	stw 0,28(1)
	stw 28,8(1)
	stw 30,16(1)
	stw 31,20(1)
.LBB3648:
	.loc 3 2653 0
	lwz 0,228(3)
	.cfi_offset 31, -4
	.cfi_offset 30, -8
	.cfi_offset 28, -16
	.cfi_offset 65, 4
	cmpwi 7,0,0
	ble- 7,.L840
	li 31,0
	li 30,0
	.loc 3 2657 0
	li 28,0
.LVL858:
.L844:
	.loc 3 2654 0
	lwz 9,236(29)
	.loc 3 2653 0
	addi 30,30,1
	.loc 3 2654 0
	add 9,9,31
	lwz 9,36(9)
	cmpwi 7,9,0
	.loc 3 2655 0
	mr 3,9
	.loc 3 2654 0
	beq- 7,.L842
	.loc 3 2655 0
	lwz 9,0(9)
	lwz 0,20(9)
	mtctr 0
	bctrl
	.loc 3 2656 0
	lwz 9,236(29)
	add 9,9,31
	lwz 11,36(9)
	cmpwi 7,11,0
	mr 3,11
	beq- 7,.L843
	.loc 3 2656 0 is_stmt 0 discriminator 1
	lwz 9,0(11)
	lwz 0,4(9)
	mtctr 0
	bctrl
	lwz 9,236(29)
	add 9,9,31
.L843:
	.loc 3 2657 0 is_stmt 1
	stw 28,36(9)
	lwz 0,228(29)
.L842:
.LVL859:
	.loc 3 2653 0
	cmpw 7,0,30
	addi 31,31,108
	bgt+ 7,.L844
.LVL860:
.L840:
.LBE3648:
	.loc 3 2660 0
	lwz 0,28(1)
	lwz 28,8(1)
	mtlr 0
	lwz 29,12(1)
.LVL861:
	lwz 30,16(1)
	lwz 31,20(1)
	addi 1,1,24
.LCFI164:
	.cfi_def_cfa_offset 0
	.cfi_restore 31
	.cfi_restore 30
	.cfi_restore 29
	.cfi_restore 28
	blr
	.cfi_endproc
.LFE2611:
	.size	_ZNK10idMaterial14CloseCinematicEv, .-_ZNK10idMaterial14CloseCinematicEv
	.align 2
	.globl _ZNK10idMaterial18ResetCinematicTimeEi
	.type	_ZNK10idMaterial18ResetCinematicTimeEi, @function
_ZNK10idMaterial18ResetCinematicTimeEi:
.LFB2612:
	.loc 3 2667 0
	.cfi_startproc
.LVL862:
	mflr 0
	stwu 1,-24(1)
.LCFI165:
	.cfi_def_cfa_offset 24
	.cfi_register 65, 0
	stw 28,8(1)
	mr 28,4
	.cfi_offset 28, -16
	stw 29,12(1)
	mr 29,3
	.cfi_offset 29, -12
	stw 0,28(1)
	stw 30,16(1)
	stw 31,20(1)
.LBB3649:
	.loc 3 2840 0
	lwz 3,4(3)
.LVL863:
.LBE3649:
.LBB3650:
.LBB3651:
	.loc 2 162 0
	lwz 9,0(3)
	lwz 0,36(9)
	.cfi_offset 31, -4
	.cfi_offset 30, -8
	.cfi_offset 65, 4
	mtctr 0
	bctrl
.LVL864:
.LBE3651:
.LBE3650:
.LBB3652:
	.loc 3 2670 0
	lwz 0,228(29)
	cmpwi 7,0,0
	ble- 7,.L846
	li 30,0
	li 31,0
.LVL865:
.L849:
	.loc 3 2671 0
	lwz 9,236(29)
	.loc 3 2670 0
	addi 31,31,1
	.loc 3 2672 0
	mr 4,28
	.loc 3 2671 0
	add 9,9,30
	.loc 3 2670 0
	addi 30,30,108
	.loc 3 2671 0
	lwz 9,36(9)
	cmpwi 7,9,0
	.loc 3 2672 0
	mr 3,9
	.loc 3 2671 0
	beq- 7,.L848
	.loc 3 2672 0
	lwz 9,0(9)
	lwz 0,24(9)
	mtctr 0
	bctrl
	lwz 0,228(29)
.L848:
.LVL866:
	.loc 3 2670 0
	cmpw 7,0,31
	bgt+ 7,.L849
.LVL867:
.L846:
.LBE3652:
	.loc 3 2675 0
	lwz 0,28(1)
	lwz 28,8(1)
.LVL868:
	mtlr 0
	lwz 29,12(1)
.LVL869:
	lwz 30,16(1)
	lwz 31,20(1)
	addi 1,1,24
.LCFI166:
	.cfi_def_cfa_offset 0
	.cfi_restore 31
	.cfi_restore 30
	.cfi_restore 29
	.cfi_restore 28
	blr
	.cfi_endproc
.LFE2612:
	.size	_ZNK10idMaterial18ResetCinematicTimeEi, .-_ZNK10idMaterial18ResetCinematicTimeEi
	.align 2
	.globl _ZNK10idMaterial17ConstantRegistersEv
	.type	_ZNK10idMaterial17ConstantRegistersEv, @function
_ZNK10idMaterial17ConstantRegistersEv:
.LFB2613:
	.loc 3 2682 0
	.cfi_startproc
.LVL870:
.LBB3653:
.LBB3654:
	.loc 3 2683 0
	lis 9,r_useConstantMaterials+44@ha
.LBE3654:
.LBE3653:
	.loc 3 2684 0
	li 0,0
.LBB3656:
.LBB3655:
	.loc 7 142 0
	lwz 9,r_useConstantMaterials+44@l(9)
.LBE3655:
.LBE3656:
	.loc 3 2683 0
	lwz 9,36(9)
	cmpwi 7,9,0
	beq- 7,.L852
	.loc 3 2686 0
	lwz 0,224(3)
.L852:
	.loc 3 2687 0
	mr 3,0
.LVL871:
	blr
	.cfi_endproc
.LFE2613:
	.size	_ZNK10idMaterial17ConstantRegistersEv, .-_ZNK10idMaterial17ConstantRegistersEv
	.align 2
	.globl _ZN10idMaterial25CheckForConstantRegistersEv
	.type	_ZN10idMaterial25CheckForConstantRegistersEv, @function
_ZN10idMaterial25CheckForConstantRegistersEv:
.LFB2614:
	.loc 3 2699 0
	.cfi_startproc
.LVL872:
	mflr 0
	stwu 1,-688(1)
.LCFI167:
	.cfi_def_cfa_offset 688
	.cfi_register 65, 0
	stw 31,684(1)
	mr 31,3
	.cfi_offset 31, -4
	stw 0,692(1)
	stw 30,680(1)
	.loc 3 2840 0
	lwz 3,4(3)
.LVL873:
.LBB3657:
.LBB3658:
.LBB3659:
	.loc 2 162 0
	lwz 9,0(3)
	lwz 0,36(9)
	.cfi_offset 30, -8
	.cfi_offset 65, 4
	mtctr 0
	bctrl
.LBE3659:
.LBE3658:
	.loc 3 2702 0
	lwz 9,240(31)
	addis 9,9,0x1
	lbz 0,5120(9)
	cmpwi 7,0,0
	beq+ 7,.L854
	.loc 3 2707 0
	lwz 3,216(31)
	slwi 3,3,2
	bl _Z20R_ClearedStaticAlloci
	.loc 3 2710 0
	li 4,0
	.loc 3 2707 0
	stw 3,224(31)
	mr 30,3
	.loc 3 2710 0
	li 5,48
	addi 3,1,8
	bl memset
.LVL874:
	.loc 3 2712 0
	li 4,0
	li 5,624
	addi 3,1,56
	bl memset
	.loc 3 2714 0
	mr 3,31
	mr 4,30
	addi 5,1,8
	addi 6,1,56
	li 7,0
	bl _ZNK10idMaterial17EvaluateRegistersEPfPKfPK9viewDef_sP14idSoundEmitter
.LVL875:
.L854:
.LBE3657:
	.loc 3 2715 0
	lwz 0,692(1)
	lwz 30,680(1)
	mtlr 0
	lwz 31,684(1)
.LVL876:
	addi 1,1,688
.LCFI168:
	.cfi_def_cfa_offset 0
	.cfi_restore 31
	.cfi_restore 30
	blr
	.cfi_endproc
.LFE2614:
	.size	_ZN10idMaterial25CheckForConstantRegistersEv, .-_ZN10idMaterial25CheckForConstantRegistersEv
	.align 2
	.globl _ZN10idMaterial5ParseEPKci
	.type	_ZN10idMaterial5ParseEPKci, @function
_ZN10idMaterial5ParseEPKci:
.LFB2601:
	.loc 3 2181 0
	.cfi_startproc
	.cfi_personality 0,__gxx_personality_v0
	.cfi_lsda 0,.LLSDA2601
.LVL877:
	lis 0,0xfffe
	mr 12,1
	ori 0,0,60080
	stwux 1,1,0
.LCFI169:
	.cfi_def_cfa_offset 70992
	mflr 0
	stw 29,-12(12)
	stw 0,4(12)
	mr 29,5
	.cfi_offset 29, -12
	.cfi_offset 65, 4
	stw 30,-8(12)
	mr 30,4
	.cfi_offset 30, -8
	stw 31,-4(12)
	mr 31,3
	.cfi_offset 31, -4
	stw 28,-16(12)
.LBB3660:
	.loc 3 2182 0
	addi 3,1,88
.LVL878:
.LEHB76:
	.cfi_offset 28, -16
	bl _ZN7idLexerC1Ev
.LEHE76:
.LVL879:
	.loc 3 2185 0
	lwz 3,4(31)
.LBB3661:
.LBB3662:
.LBB3663:
.LBB3664:
	.loc 4 357 0
	li 9,20
	.loc 4 356 0
	li 0,0
.LBE3664:
.LBE3663:
.LBE3662:
.LBE3661:
	.loc 3 2185 0
	cmpwi 7,3,0
.LBB3668:
.LBB3667:
.LBB3666:
.LBB3665:
	.loc 4 357 0
	stw 9,16(1)
	.loc 4 358 0
	addi 9,1,20
	.loc 4 356 0
	stw 0,8(1)
	.loc 4 358 0
	stw 9,12(1)
	.loc 4 359 0
	stb 0,20(1)
.LBE3665:
.LBE3666:
.LBE3667:
.LBE3668:
	.loc 3 2185 0
	beq- 7,.L922
.LBB3669:
.LBB3670:
	.loc 2 140 0 discriminator 1
	lwz 9,0(3)
	lwz 0,8(9)
	mtctr 0
.LEHB77:
	bctrl
.LBE3670:
.LBE3669:
	.loc 3 2185 0 discriminator 1
	lis 4,.LC6@ha
	la 4,.LC6@l(4)
	bl _ZN5idStr3CmpEPKcS1_
	.loc 3 2185 0 is_stmt 0
	cmpwi 7,3,0
	beq- 7,.L858
.L939:
	.loc 3 2186 0 is_stmt 1
	lwz 3,4(31)
.L918:
.LBB3671:
.LBB3672:
	.loc 2 171 0
	lwz 9,0(3)
	lwz 0,48(9)
	mtctr 0
	bctrl
	mr 28,3
	.loc 3 2840 0
	lwz 3,4(31)
.LBE3672:
.LBE3671:
.LBB3673:
.LBB3674:
	.loc 2 168 0
	lwz 9,0(3)
	lwz 0,44(9)
	mtctr 0
	bctrl
	mr 7,3
.LBE3674:
.LBE3673:
	.loc 3 2188 0
	mr 4,30
	addi 3,1,88
	mr 5,29
	mr 6,28
	bl _ZN7idLexer10LoadMemoryEPKciS1_i
.LVL880:
	.loc 3 2190 0
	lis 4,.LC228@ha
.LBB3675:
.LBB3676:
	.loc 9 367 0
	li 0,6300
.LBE3676:
.LBE3675:
	.loc 3 2190 0
	addi 3,1,88
	la 4,.LC228@l(4)
.LBB3678:
.LBB3677:
	.loc 9 367 0
	stw 0,192(1)
.LBE3677:
.LBE3678:
	.loc 3 2190 0
	bl _ZN7idLexer15SkipUntilStringEPKc
	.loc 3 2193 0
	mr 3,31
	bl _ZN10idMaterial10CommonInitEv
	.loc 3 2195 0
	addi 30,1,296
.LVL881:
	lis 5,0x1
	li 4,0
	mr 3,30
	ori 5,5,5124
	bl memset
	.loc 3 2197 0
	stw 30,240(31)
	.loc 3 2200 0
	mr 3,31
	addi 4,1,88
	bl _ZN10idMaterial13ParseMaterialER7idLexer
	.loc 3 2203 0
	lis 9,cvarSystem@ha
	lis 4,.LC241@ha
	lwz 3,cvarSystem@l(9)
	la 4,.LC241@l(4)
	lwz 9,0(3)
	lwz 0,52(9)
	mtctr 0
	bctrl
	cmpwi 7,3,0
	bne- 7,.L942
.L859:
	.loc 3 2211 0
	lwz 3,228(31)
	.loc 3 2209 0
	li 0,0
	stw 0,232(31)
.LVL882:
	.loc 3 2211 0
	cmpwi 6,3,0
	lwz 10,240(31)
	ble- 6,.L860
	.loc 3 2181 0
	mulli 8,3,108
.LBE3660:
	li 9,0
.LVL883:
.L862:
.LBB3731:
	add 11,10,9
	addis 11,11,0x1
	.loc 3 2212 0
	lwz 0,-22524(11)
	cmpwi 7,0,0
	bne- 7,.L861
	.loc 3 2213 0
	lwz 11,232(31)
	addi 0,11,1
	stw 0,232(31)
.L861:
	addi 9,9,108
	.loc 3 2211 0
	cmpw 7,9,8
	bne+ 7,.L862
.L860:
	.loc 3 2218 0
	lis 9,.LC18@ha
	lfs 0,148(31)
	lfs 13,.LC18@l(9)
	fcmpu 7,0,13
	bne- 7,.L863
	.loc 3 2219 0
	li 0,1
	stb 0,205(31)
.L864:
	.loc 3 2230 0
	lwz 0,192(31)
	cmpwi 7,0,0
	bne- 7,.L867
.L949:
	.loc 3 2233 0
	cmpwi 7,3,0
	bne- 7,.L868
.L872:
	.loc 3 2247 0
	li 0,3
	stw 0,192(31)
.L921:
.LVL884:
.LBB3679:
.LBB3680:
	.loc 6 488 0
	lwz 0,104(31)
.LBE3680:
.LBE3679:
	.loc 3 2263 0
	lis 9,.LC146@ha
.LBB3682:
.LBB3681:
	.loc 6 488 0
	ori 0,0,4
	stw 0,104(31)
.LBE3681:
.LBE3682:
	.loc 3 2263 0
	lwz 0,.LC146@l(9)
	.loc 3 2269 0
	lis 9,.LC13@ha
	lfs 13,.LC13@l(9)
	.loc 3 2263 0
	stw 0,284(31)
	li 0,3
	.loc 3 2269 0
	fcmpu 7,0,13
	beq- 7,.L943
.LVL885:
.L876:
.LBB3683:
	.loc 3 2282 0 discriminator 1
	cmpwi 7,3,0
.LBE3683:
	.loc 3 2329 0 discriminator 1
	mr 6,10
.LBB3695:
	.loc 3 2282 0 discriminator 1
	ble- 7,.L886
.LBB3684:
	.loc 3 2284 0
	lis 9,globalImages@ha
	lfs 0,148(31)
	lwz 5,globalImages@l(9)
	addis 9,10,0x1
	lwz 0,-22488(9)
.LVL886:
	lwz 11,64(5)
	cmpw 7,0,11
	beq- 7,.L880
	.loc 3 2283 0
	addi 9,9,-22528
	li 8,0
.LBB3685:
.LBB3686:
	.loc 3 2294 0
	lis 4,.LC14@ha
	.loc 3 2295 0
	lis 29,.LC33@ha
.LVL887:
	.loc 3 2296 0
	li 30,3
.LVL888:
.L882:
.LBE3686:
	.loc 3 2291 0
	lwz 9,104(9)
	cmpwi 7,9,0
	beq- 7,.L887
.LVL889:
.LBB3687:
	.loc 3 2292 0 discriminator 1
	lwz 0,76(9)
	cmpwi 7,0,0
	ble- 7,.L887
	.loc 3 2293 0
	lwz 7,80(9)
.LBE3687:
.LBE3685:
	.loc 3 2181 0
	mtctr 0
.LBB3690:
.LBB3688:
	addi 9,9,80
	.loc 3 2293 0
	cmpw 7,11,7
	beq- 7,.L888
.LVL890:
.L890:
	.loc 3 2292 0
	bdz .L887
	.loc 3 2293 0
	lwzu 0,4(9)
	cmpw 7,11,0
	bne+ 7,.L890
.L888:
	.loc 3 2294 0
	lfs 13,.LC14@l(4)
	fcmpu 7,0,13
	beq- 7,.L891
	.loc 3 2295 0
	lwz 0,.LC33@l(29)
	addis 9,1,0x1
	.loc 3 2296 0
	stw 30,192(31)
	.loc 3 2295 0
	stw 0,148(31)
	stw 0,5432(9)
	lfs 0,5432(9)
.L891:
.LVL891:
	.loc 3 2299 0
	mr 8,3
.LVL892:
.L887:
.LBE3688:
.LBE3690:
.LBE3684:
	.loc 3 2282 0
	addi 8,8,1
.LVL893:
	cmpw 7,3,8
	ble- 7,.L885
.LBB3692:
	.loc 3 2283 0
	mulli 9,8,108
	.loc 3 2284 0
	lwz 11,64(5)
	.loc 3 2283 0
	addis 9,9,0x1
	addi 9,9,-22528
	add 9,10,9
.LVL894:
	.loc 3 2284 0
	lwz 0,40(9)
	cmpw 7,0,11
	bne+ 7,.L882
.LVL895:
.L880:
	.loc 3 2285 0
	lis 9,.LC14@ha
	lfs 13,.LC14@l(9)
	fcmpu 7,0,13
	beq- 7,.L940
	.loc 3 2286 0
	lis 9,.LC33@ha
	lwz 0,.LC33@l(9)
	stw 0,148(31)
	.loc 3 2287 0
	li 0,3
	stw 0,192(31)
.L940:
.LBE3692:
.LBE3695:
.LBB3696:
	.loc 3 2306 0
	cmpwi 7,3,0
.LBE3696:
.LBB3701:
.LBB3693:
	.loc 3 2287 0
	mr 6,10
.LVL896:
.LBE3693:
.LBE3701:
.LBB3702:
	.loc 3 2306 0
	ble- 7,.L886
	lfs 0,148(31)
.LVL897:
.L885:
	lis 9,.LC33@ha
.LBB3697:
	.loc 3 2308 0
	lfs 13,.LC33@l(9)
.LBE3697:
.LBE3702:
.LBB3703:
.LBB3694:
.LBB3691:
.LBB3689:
	.loc 3 2299 0
	li 9,0
	b .L897
.LVL898:
.L896:
.LBE3689:
.LBE3691:
.LBE3694:
.LBE3703:
.LBB3704:
.LBB3698:
	.loc 3 2318 0
	lwz 0,8(11)
	oris 0,0,0x2
	ori 0,0,256
	stw 0,8(11)
	lwz 6,240(31)
.LVL899:
	lwz 3,228(31)
.L894:
.LBE3698:
	.loc 3 2306 0
	addi 9,9,1
.LVL900:
	cmpw 7,3,9
	ble- 7,.L886
.L944:
	lfs 0,148(31)
.LVL901:
.L897:
.LBB3699:
	.loc 3 2308 0
	fcmpu 7,0,13
	beq- 7,.L894
	.loc 3 2312 0
	lwz 0,192(31)
	.loc 3 2307 0
	mulli 11,9,108
	.loc 3 2312 0
	cmpwi 7,0,3
	.loc 3 2307 0
	addis 11,11,0x1
	addi 11,11,-22528
	add 11,6,11
	.loc 3 2312 0
	beq- 7,.L895
	.loc 3 2312 0 is_stmt 0 discriminator 1
	lbz 0,96(11)
	cmpwi 7,0,0
	beq- 7,.L896
.L895:
	.loc 3 2314 0 is_stmt 1
	lwz 0,8(11)
.LBE3699:
	.loc 3 2306 0
	addi 9,9,1
.LVL902:
.LBB3700:
	.loc 3 2314 0
	ori 0,0,256
	stw 0,8(11)
	lwz 3,228(31)
	lwz 6,240(31)
.LVL903:
.LBE3700:
	.loc 3 2306 0
	cmpw 7,3,9
	bgt+ 7,.L944
.LVL904:
.L886:
.LBE3704:
	.loc 3 2324 0
	addis 6,6,0x1
	lbz 0,5121(6)
	cmpwi 7,0,0
	beq- 7,.L898
	.loc 3 2326 0
	li 0,1
	stb 0,206(31)
.L899:
	.loc 3 2355 0
	cmpwi 7,3,0
	bne- 7,.L945
.L903:
	.loc 3 2360 0
	lwz 3,208(31)
	cmpwi 7,3,0
	bne- 7,.L946
.L904:
	.loc 3 2365 0
	lwz 3,216(31)
	cmpwi 7,3,0
	bne- 7,.L947
.L905:
	.loc 3 2369 0
	lwz 3,4(31)
	cmpwi 7,3,0
	beq- 7,.L919
.LBB3705:
.LBB3706:
	.loc 2 140 0 discriminator 1
	lwz 9,0(3)
	lwz 0,8(9)
	mtctr 0
	bctrl
.LBE3706:
.LBE3705:
	.loc 3 2369 0 discriminator 1
	lis 4,.LC6@ha
	la 4,.LC6@l(4)
	bl _ZN5idStr3CmpEPKcS1_
	.loc 3 2369 0 is_stmt 0
	cmpwi 7,3,0
	beq- 7,.L948
.L919:
	.loc 3 2375 0 is_stmt 1
	mr 3,31
	bl _ZN10idMaterial25CheckForConstantRegistersEv
.LBB3707:
.LBB3708:
	.loc 6 494 0
	lwz 0,104(31)
.LBE3708:
.LBE3707:
	.loc 3 2381 0
	lwz 3,4(31)
	.loc 3 2380 0
	andi. 9,0,1
	.loc 3 2377 0
	li 0,0
	stw 0,240(31)
.LVL905:
	.loc 3 2381 0
	cmpwi 7,3,0
	.loc 3 2380 0
	beq- 0,.L907
	.loc 3 2381 0
	beq- 7,.L923
.LBB3709:
.LBB3710:
	.loc 2 140 0 discriminator 1
	lwz 9,0(3)
	lwz 0,8(9)
	mtctr 0
	bctrl
.LBE3710:
.LBE3709:
	.loc 3 2381 0 discriminator 1
	lis 4,.LC6@ha
	la 4,.LC6@l(4)
	bl _ZN5idStr3CmpEPKcS1_
	.loc 3 2381 0 is_stmt 0
	cmpwi 7,3,0
	beq- 7,.L909
.L941:
	.loc 3 2382 0 is_stmt 1
	lwz 3,4(31)
.L920:
.LBB3711:
.LBB3712:
	.loc 2 190 0
	lwz 9,0(3)
	lwz 0,72(9)
	mtctr 0
	bctrl
	.loc 3 2385 0
	li 31,0
.LVL906:
	b .L910
.LVL907:
.L863:
.LBE3712:
.LBE3711:
	.loc 3 2221 0
	li 0,0
	stb 0,205(31)
.LVL908:
	.loc 3 2222 0
	ble- 6,.L864
	.loc 3 2181 0
	mulli 8,3,108
.LBE3731:
	li 9,0
.LBB3732:
	.loc 3 2224 0
	li 7,1
.LVL909:
.L866:
	.loc 3 2181 0
	add 11,10,9
	addis 11,11,0x1
	.loc 3 2223 0
	lwz 0,-22452(11)
	cmpwi 7,0,0
	beq- 7,.L865
	.loc 3 2224 0
	stb 7,205(31)
.L865:
	addi 9,9,108
	.loc 3 2222 0
	cmpw 7,9,8
	bne+ 7,.L866
	.loc 3 2230 0
	lwz 0,192(31)
	cmpwi 7,0,0
	beq- 7,.L949
.L867:
	.loc 3 2254 0
	cmpwi 7,0,3
	beq- 7,.L921
.L874:
	.loc 3 2258 0
	lwz 9,96(31)
	ori 9,9,2
	stw 9,96(31)
	.loc 3 2265 0
	lis 9,.LC14@ha
	lwz 9,.LC14@l(9)
	stw 9,284(31)
	.loc 3 2269 0
	lis 9,.LC13@ha
	lfs 13,.LC13@l(9)
	fcmpu 7,0,13
	bne- 7,.L876
.L943:
.LVL910:
.LBB3713:
.LBB3714:
	.loc 6 494 0
	lwz 9,104(31)
.LBE3714:
.LBE3713:
	.loc 3 2270 0
	andi. 11,9,2
	beq- 0,.L877
	.loc 3 2271 0
	lis 9,.LC21@ha
	lwz 0,.LC21@l(9)
	stw 0,148(31)
	b .L876
.LVL911:
.L898:
.LBB3715:
.LBB3716:
	.loc 6 378 0
	cmpwi 7,3,0
	ble- 7,.L950
.L900:
.LBE3716:
.LBE3715:
	.loc 3 2331 0
	lwz 0,192(31)
	cmpwi 7,0,1
	beq- 7,.L902
	.loc 3 2332 0
	li 0,0
	stb 0,206(31)
.L902:
	.loc 3 2334 0
	lwz 0,100(31)
	andi. 11,0,256
	beq- 0,.L899
	.loc 3 2355 0
	cmpwi 7,3,0
	.loc 3 2335 0
	li 0,0
	stb 0,206(31)
	.loc 3 2355 0
	beq+ 7,.L903
.LVL912:
.L945:
	.loc 3 2356 0
	mulli 3,3,108
	bl _Z13R_StaticAlloci
	.loc 3 2357 0
	lwz 5,228(31)
	lwz 4,240(31)
	.loc 3 2356 0
	stw 3,236(31)
	.loc 3 2357 0
	mulli 5,5,108
	addis 4,4,0x1
	addi 4,4,-22528
	bl memcpy
	.loc 3 2360 0
	lwz 3,208(31)
	cmpwi 7,3,0
	beq+ 7,.L904
.L946:
	.loc 3 2361 0
	slwi 3,3,4
	bl _Z13R_StaticAlloci
	.loc 3 2362 0
	lwz 5,208(31)
	lwz 4,240(31)
	.loc 3 2361 0
	stw 3,212(31)
	.loc 3 2362 0
	slwi 5,5,4
	addi 4,4,10240
	bl memcpy
	.loc 3 2365 0
	lwz 3,216(31)
	cmpwi 7,3,0
	beq+ 7,.L905
.L947:
	.loc 3 2366 0
	slwi 3,3,2
	bl _Z13R_StaticAlloci
	.loc 3 2367 0
	lwz 5,216(31)
	lwz 4,240(31)
	.loc 3 2366 0
	stw 3,220(31)
	.loc 3 2367 0
	slwi 5,5,2
	addi 4,4,2048
	bl memcpy
	b .L905
.LVL913:
.L907:
	.loc 3 2387 0
	beq- 7,.L911
.LBB3718:
.LBB3719:
	.loc 2 140 0 discriminator 1
	lwz 9,0(3)
	lwz 0,8(9)
	mtctr 0
	bctrl
.LBE3719:
.LBE3718:
	.loc 3 2387 0 discriminator 1
	lis 4,.LC6@ha
	la 4,.LC6@l(4)
	bl _ZN5idStr3CmpEPKcS1_
.LEHE77:
	.loc 3 2387 0 is_stmt 0
	cmpwi 7,3,0
	beq- 7,.L951
.L911:
	.loc 3 2390 0 is_stmt 1
	li 31,1
.LVL914:
.L910:
.LBB3720:
.LBB3721:
.LBB3722:
.LBB3723:
.LBB3724:
	.loc 4 501 0
	addi 3,1,8
.LEHB78:
	bl _ZN5idStr8FreeDataEv
.LEHE78:
.LBE3724:
.LBE3723:
.LBE3722:
.LBE3721:
.LBE3720:
	.loc 3 2390 0
	addi 3,1,88
.LEHB79:
	bl _ZN7idLexerD1Ev
.LEHE79:
.LBE3732:
	.loc 3 2391 0
	lwz 11,0(1)
	mr 3,31
	lwz 0,4(11)
	lwz 28,-16(11)
	mtlr 0
	lwz 29,-12(11)
	lwz 30,-8(11)
	lwz 31,-4(11)
	mr 1,11
	.cfi_remember_state
.LCFI170:
	.cfi_def_cfa_offset 0
	.cfi_restore 31
	.cfi_restore 30
	.cfi_restore 29
	.cfi_restore 28
	blr
.LVL915:
.L948:
.LCFI171:
	.cfi_restore_state
.LBB3733:
	.loc 3 2370 0 discriminator 4
	lis 3,.LC242@ha
	lwz 5,216(31)
	lwz 6,220(31)
	la 3,.LC242@l(3)
	mr 4,31
.LEHB80:
	crxor 6,6,6
	bl _Z10Sys_PrintfPKcz
	b .L919
.LVL916:
.L858:
	.loc 3 2186 0 discriminator 4
	lis 3,.LC240@ha
	mr 4,31
	la 3,.LC240@l(3)
	crxor 6,6,6
	bl _Z10Sys_PrintfPKcz
	b .L939
.LVL917:
.L877:
	.loc 3 2272 0
	cmpwi 7,0,3
	beq- 7,.L952
	.loc 3 2275 0
	li 0,0
	stw 0,148(31)
	b .L876
.LVL918:
.L868:
	.loc 3 2236 0
	lwz 0,232(31)
	cmpw 7,3,0
	beq- 7,.L870
.L873:
	.loc 3 2249 0
	li 0,1
	stw 0,192(31)
.LBE3733:
	.loc 3 2254 0
	li 0,1
	b .L874
.LVL919:
.L922:
.LBB3734:
	.loc 3 2185 0
	li 3,0
	b .L918
.LVL920:
.L942:
	.loc 3 2204 0
	mr 3,31
	bl _ZNK10idMaterial14GetEditorImageEv
	b .L859
.LVL921:
.L951:
	.loc 3 2388 0 discriminator 4
	lis 3,.LC244@ha
	lwz 5,216(31)
	mr 4,31
	la 3,.LC244@l(3)
	crxor 6,6,6
	bl _Z10Sys_PrintfPKcz
	b .L911
.L909:
	.loc 3 2382 0 discriminator 4
	lis 3,.LC243@ha
	lwz 5,216(31)
	la 3,.LC243@l(3)
	mr 4,31
	crxor 6,6,6
	bl _Z10Sys_PrintfPKcz
.LEHE80:
	b .L941
.L923:
	.loc 3 2381 0
	li 3,0
	b .L920
.LVL922:
.L950:
.LBB3725:
.LBB3717:
	.loc 6 378 0
	lwz 0,76(31)
	cmpwi 7,0,0
	bne- 7,.L900
	lwz 0,80(31)
	cmpwi 7,0,0
	bne+ 7,.L900
.LBE3717:
.LBE3725:
	.loc 3 2329 0
	stb 0,206(31)
	b .L900
.LVL923:
.L870:
	.loc 3 2239 0
	addis 9,10,0x1
	lwz 0,-22520(9)
	andi. 9,0,240
	bne- 0,.L872
	.loc 3 2239 0 is_stmt 0 discriminator 1
	rlwinm 0,0,0,28,31
	cmpwi 7,0,3
	beq- 7,.L872
	.loc 3 2239 0 discriminator 2
	cmpwi 7,0,4
	beq- 7,.L872
	.loc 3 2239 0 discriminator 3
	cmpwi 7,0,7
	beq- 7,.L872
	.loc 3 2239 0 discriminator 4
	cmpwi 7,0,8
	bne+ 7,.L873
	b .L872
.LVL924:
.L952:
	.loc 3 2273 0 is_stmt 1
	lis 9,.LC25@ha
	lwz 0,.LC25@l(9)
	stw 0,148(31)
	b .L876
.LVL925:
.L926:
	mr 31,3
.LVL926:
.LBB3726:
.LBB3727:
.LBB3728:
.LBB3729:
.LBB3730:
	.loc 4 501 0
	addi 3,1,8
	bl _ZN5idStr8FreeDataEv
.LVL927:
.L917:
.LBE3730:
.LBE3729:
.LBE3728:
.LBE3727:
.LBE3726:
	.loc 3 2390 0
	addi 3,1,88
	bl _ZN7idLexerD1Ev
	mr 3,31
.LEHB81:
	bl _Unwind_Resume
.LEHE81:
.LVL928:
.L925:
	mr 31,3
	b .L917
.LBE3734:
	.cfi_endproc
.LFE2601:
	.section	.gcc_except_table
.LLSDA2601:
	.byte	0xff
	.byte	0xff
	.byte	0x1
	.uleb128 .LLSDACSE2601-.LLSDACSB2601
.LLSDACSB2601:
	.uleb128 .LEHB76-.LFB2601
	.uleb128 .LEHE76-.LEHB76
	.uleb128 0
	.uleb128 0
	.uleb128 .LEHB77-.LFB2601
	.uleb128 .LEHE77-.LEHB77
	.uleb128 .L926-.LFB2601
	.uleb128 0
	.uleb128 .LEHB78-.LFB2601
	.uleb128 .LEHE78-.LEHB78
	.uleb128 .L925-.LFB2601
	.uleb128 0
	.uleb128 .LEHB79-.LFB2601
	.uleb128 .LEHE79-.LEHB79
	.uleb128 0
	.uleb128 0
	.uleb128 .LEHB80-.LFB2601
	.uleb128 .LEHE80-.LEHB80
	.uleb128 .L926-.LFB2601
	.uleb128 0
	.uleb128 .LEHB81-.LFB2601
	.uleb128 .LEHE81-.LEHB81
	.uleb128 0
	.uleb128 0
.LLSDACSE2601:
	.section	".text"
	.size	_ZN10idMaterial5ParseEPKci, .-_ZN10idMaterial5ParseEPKci
	.align 2
	.globl _ZNK10idMaterial23SetImageClassificationsEi
	.type	_ZNK10idMaterial23SetImageClassificationsEi, @function
_ZNK10idMaterial23SetImageClassificationsEi:
.LFB2622:
	.loc 3 2742 0
	.cfi_startproc
.LVL929:
	mflr 0
	stwu 1,-24(1)
.LCFI172:
	.cfi_def_cfa_offset 24
	.cfi_register 65, 0
	stw 28,8(1)
	mr 28,4
	.cfi_offset 28, -16
	stw 29,12(1)
	mr 29,3
	.cfi_offset 29, -12
	stw 0,28(1)
	stw 30,16(1)
	stw 31,20(1)
.LBB3735:
	.loc 3 2840 0
	lwz 3,4(3)
.LVL930:
.LBE3735:
.LBB3739:
.LBB3740:
	.loc 2 162 0
	lwz 9,0(3)
	lwz 0,36(9)
	.cfi_offset 31, -4
	.cfi_offset 30, -8
	.cfi_offset 65, 4
	mtctr 0
	bctrl
.LVL931:
.LBE3740:
.LBE3739:
.LBB3741:
	.loc 3 2745 0
	lwz 0,228(29)
	cmpwi 7,0,0
	ble- 7,.L953
	li 30,0
	li 31,0
.LVL932:
.L956:
.LBB3736:
	.loc 3 2746 0
	lwz 9,236(29)
.LBE3736:
	.loc 3 2745 0
	addi 31,31,1
.LBB3737:
	.loc 3 2748 0
	mr 4,28
	.loc 3 2746 0
	add 9,9,30
.LBE3737:
	.loc 3 2745 0
	addi 30,30,108
.LBB3738:
	.loc 3 2746 0
	lwz 3,40(9)
.LVL933:
	.loc 3 2747 0
	cmpwi 7,3,0
	beq- 7,.L955
	.loc 3 2748 0
	bl _ZN7idImage17SetClassificationEi
.LVL934:
	lwz 0,228(29)
.L955:
.LVL935:
.LBE3738:
	.loc 3 2745 0
	cmpw 7,0,31
	bgt+ 7,.L956
.LVL936:
.L953:
.LBE3741:
	.loc 3 2751 0
	lwz 0,28(1)
	lwz 28,8(1)
.LVL937:
	mtlr 0
	lwz 29,12(1)
.LVL938:
	lwz 30,16(1)
	lwz 31,20(1)
	addi 1,1,24
.LCFI173:
	.cfi_def_cfa_offset 0
	.cfi_restore 31
	.cfi_restore 30
	.cfi_restore 29
	.cfi_restore 28
	blr
	.cfi_endproc
.LFE2622:
	.size	_ZNK10idMaterial23SetImageClassificationsEi, .-_ZNK10idMaterial23SetImageClassificationsEi
	.align 2
	.globl _ZNK10idMaterial12GetBumpStageEv
	.type	_ZNK10idMaterial12GetBumpStageEv, @function
_ZNK10idMaterial12GetBumpStageEv:
.LFB2626:
	.loc 3 2811 0
	.cfi_startproc
.LVL939:
	mflr 0
	stwu 1,-16(1)
.LCFI174:
	.cfi_def_cfa_offset 16
	.cfi_register 65, 0
	stw 31,12(1)
	mr 31,3
	.cfi_offset 31, -4
	stw 0,20(1)
.LBB3742:
	.loc 3 2840 0
	lwz 3,4(3)
.LVL940:
.LBE3742:
.LBB3743:
.LBB3744:
	.loc 2 162 0
	lwz 9,0(3)
	lwz 0,36(9)
	.cfi_offset 65, 4
	mtctr 0
	bctrl
.LVL941:
.LBE3744:
.LBE3743:
.LBB3745:
	.loc 3 2814 0
	lwz 0,228(31)
	.loc 3 2819 0
	li 3,0
	.loc 3 2814 0
	cmpwi 7,0,0
	ble- 7,.L959
	.loc 3 2815 0
	lwz 3,236(31)
	lwz 9,4(3)
	cmpwi 7,9,1
	beq- 7,.L959
	.loc 3 2811 0
	addi 9,3,108
.LBE3745:
	.loc 3 2814 0
	mtctr 0
	b .L962
.LVL942:
.L963:
.LBB3746:
	.loc 3 2815 0
	lwz 0,-104(9)
	cmpwi 7,0,1
	beq- 7,.L959
.L962:
	mr 3,9
	addi 9,9,108
	.loc 3 2814 0
	bdnz .L963
	.loc 3 2819 0
	li 3,0
.L959:
.LBE3746:
	.loc 3 2820 0
	lwz 0,20(1)
	lwz 31,12(1)
.LVL943:
	mtlr 0
	addi 1,1,16
.LCFI175:
	.cfi_def_cfa_offset 0
	.cfi_restore 31
	blr
	.cfi_endproc
.LFE2626:
	.size	_ZNK10idMaterial12GetBumpStageEv, .-_ZNK10idMaterial12GetBumpStageEv
	.align 2
	.globl _ZNK10idMaterial12ReloadImagesEb
	.type	_ZNK10idMaterial12ReloadImagesEb, @function
_ZNK10idMaterial12ReloadImagesEb:
.LFB2627:
	.loc 3 2828 0
	.cfi_startproc
.LVL944:
	mflr 0
	stwu 1,-32(1)
.LCFI176:
	.cfi_def_cfa_offset 32
	.cfi_register 65, 0
	stw 28,16(1)
	mr 28,3
	.cfi_offset 28, -16
	stw 29,20(1)
	mr 29,4
	.cfi_offset 29, -12
	stw 0,36(1)
	stw 27,12(1)
	stw 30,24(1)
	stw 31,28(1)
.LBB3747:
	.loc 3 2829 0
	lwz 9,228(3)
	cmpwi 7,9,0
	ble- 7,.L967
	.cfi_offset 31, -4
	.cfi_offset 30, -8
	.cfi_offset 27, -20
	.cfi_offset 65, 4
	li 30,0
	li 27,0
.LVL945:
.L973:
.LBB3748:
	.loc 3 2830 0
	lwz 0,236(28)
	add 10,0,30
	lwz 11,104(10)
	cmpwi 7,11,0
	beq- 7,.L969
.LVL946:
.LBB3749:
	.loc 3 2831 0 discriminator 1
	lwz 10,76(11)
	cmpwi 7,10,0
	ble- 7,.L970
	.loc 3 2831 0 is_stmt 0
	li 31,0
.LVL947:
.L972:
	.loc 3 2832 0 is_stmt 1
	addi 9,31,20
	.loc 3 2833 0
	li 4,0
	.loc 3 2832 0
	slwi 9,9,2
	.loc 3 2831 0
	addi 31,31,1
	.loc 3 2832 0
	lwzx 3,11,9
	.loc 3 2833 0
	mr 5,29
	.loc 3 2832 0
	cmpwi 7,3,0
	beq- 7,.L971
	.loc 3 2833 0
	bl _ZN7idImage6ReloadEbb
	lwz 0,236(28)
.L971:
.LVL948:
	.loc 3 2831 0
	add 9,0,30
	lwz 11,104(9)
	lwz 9,76(11)
	cmpw 7,9,31
	bgt+ 7,.L972
.LVL949:
.L976:
	lwz 9,228(28)
.L970:
.LBE3749:
.LBE3748:
	.loc 3 2829 0
	addi 27,27,1
.LVL950:
	addi 30,30,108
	cmpw 7,9,27
	bgt+ 7,.L973
.LVL951:
.L967:
.LBE3747:
	.loc 3 2840 0
	lwz 0,36(1)
	lwz 27,12(1)
	mtlr 0
	lwz 28,16(1)
.LVL952:
	lwz 29,20(1)
	lwz 30,24(1)
	lwz 31,28(1)
	addi 1,1,32
	.cfi_remember_state
.LCFI177:
	.cfi_def_cfa_offset 0
	.cfi_restore 31
	.cfi_restore 30
	.cfi_restore 29
	.cfi_restore 28
	.cfi_restore 27
	blr
.LVL953:
.L969:
.LCFI178:
	.cfi_restore_state
.LBB3751:
.LBB3750:
	.loc 3 2836 0
	lwz 3,40(10)
	cmpwi 7,3,0
	beq- 7,.L970
	.loc 3 2837 0
	li 4,0
	mr 5,29
	bl _ZN7idImage6ReloadEbb
	b .L976
.LBE3750:
.LBE3751:
	.cfi_endproc
.LFE2627:
	.size	_ZNK10idMaterial12ReloadImagesEb, .-_ZNK10idMaterial12ReloadImagesEb
	.weak	_ZTS9idWinding
	.section	.rodata._ZTS9idWinding,"aG",@progbits,_ZTS9idWinding,comdat
	.align 2
	.type	_ZTS9idWinding, @object
	.size	_ZTS9idWinding, 11
_ZTS9idWinding:
	.string	"9idWinding"
	.weak	_ZTI9idWinding
	.section	.sdata._ZTI9idWinding,"awG",@progbits,_ZTI9idWinding,comdat
	.align 2
	.type	_ZTI9idWinding, @object
	.size	_ZTI9idWinding, 8
_ZTI9idWinding:
	.long	_ZTVN10__cxxabiv117__class_type_infoE+8
	.long	_ZTS9idWinding
	.weak	_ZTS14idFixedWinding
	.section	.rodata._ZTS14idFixedWinding,"aG",@progbits,_ZTS14idFixedWinding,comdat
	.align 2
	.type	_ZTS14idFixedWinding, @object
	.size	_ZTS14idFixedWinding, 17
_ZTS14idFixedWinding:
	.string	"14idFixedWinding"
	.weak	_ZTI14idFixedWinding
	.section	.rodata._ZTI14idFixedWinding,"aG",@progbits,_ZTI14idFixedWinding,comdat
	.align 2
	.type	_ZTI14idFixedWinding, @object
	.size	_ZTI14idFixedWinding, 12
_ZTI14idFixedWinding:
	.long	_ZTVN10__cxxabiv120__si_class_type_infoE+8
	.long	_ZTS14idFixedWinding
	.long	_ZTI9idWinding
	.weak	_ZTS10idMaterial
	.section	.rodata._ZTS10idMaterial,"aG",@progbits,_ZTS10idMaterial,comdat
	.align 2
	.type	_ZTS10idMaterial, @object
	.size	_ZTS10idMaterial, 13
_ZTS10idMaterial:
	.string	"10idMaterial"
	.weak	_ZTI10idMaterial
	.section	.rodata._ZTI10idMaterial,"aG",@progbits,_ZTI10idMaterial,comdat
	.align 2
	.type	_ZTI10idMaterial, @object
	.size	_ZTI10idMaterial, 12
_ZTI10idMaterial:
	.long	_ZTVN10__cxxabiv120__si_class_type_infoE+8
	.long	_ZTS10idMaterial
	.long	_ZTI6idDecl
	.weak	_ZTV9idWinding
	.section	.rodata._ZTV9idWinding,"aG",@progbits,_ZTV9idWinding,comdat
	.align 3
	.type	_ZTV9idWinding, @object
	.size	_ZTV9idWinding, 24
_ZTV9idWinding:
	.long	0
	.long	_ZTI9idWinding
	.long	_ZN9idWindingD1Ev
	.long	_ZN9idWindingD0Ev
	.long	_ZN9idWinding5ClearEv
	.long	_ZN9idWinding10ReAllocateEib
	.weak	_ZTV14idFixedWinding
	.section	.rodata._ZTV14idFixedWinding,"aG",@progbits,_ZTV14idFixedWinding,comdat
	.align 3
	.type	_ZTV14idFixedWinding, @object
	.size	_ZTV14idFixedWinding, 24
_ZTV14idFixedWinding:
	.long	0
	.long	_ZTI14idFixedWinding
	.long	_ZN14idFixedWindingD1Ev
	.long	_ZN14idFixedWindingD0Ev
	.long	_ZN14idFixedWinding5ClearEv
	.long	_ZN14idFixedWinding10ReAllocateEib
	.weak	_ZTV10idMaterial
	.section	.rodata._ZTV10idMaterial,"aG",@progbits,_ZTV10idMaterial,comdat
	.align 3
	.type	_ZTV10idMaterial, @object
	.size	_ZTV10idMaterial, 48
_ZTV10idMaterial:
	.long	0
	.long	_ZTI10idMaterial
	.long	_ZN10idMaterialD1Ev
	.long	_ZN10idMaterialD0Ev
	.long	_ZN10idMaterial14SetDefaultTextEv
	.long	_ZNK10idMaterial17DefaultDefinitionEv
	.long	_ZN10idMaterial5ParseEPKci
	.long	_ZN10idMaterial8FreeDataEv
	.long	_ZNK10idMaterial4SizeEv
	.long	_ZNK6idDecl4ListEv
	.long	_ZNK10idMaterial5PrintEv
	.long	_ZNK10idMaterial9ImageNameEv
	.globl opNames
	.weak	_ZTV6idDecl
	.section	.rodata._ZTV6idDecl,"aG",@progbits,_ZTV6idDecl,comdat
	.align 3
	.type	_ZTV6idDecl, @object
	.size	_ZTV6idDecl, 44
_ZTV6idDecl:
	.long	0
	.long	_ZTI6idDecl
	.long	_ZN6idDeclD1Ev
	.long	_ZN6idDeclD0Ev
	.long	_ZN6idDecl14SetDefaultTextEv
	.long	_ZNK6idDecl17DefaultDefinitionEv
	.long	_ZN6idDecl5ParseEPKci
	.long	_ZN6idDecl8FreeDataEv
	.long	_ZNK6idDecl4SizeEv
	.long	_ZNK6idDecl4ListEv
	.long	_ZNK6idDecl5PrintEv
	.weak	_ZTI6idDecl
	.section	.sdata._ZTI6idDecl,"awG",@progbits,_ZTI6idDecl,comdat
	.align 2
	.type	_ZTI6idDecl, @object
	.size	_ZTI6idDecl, 8
_ZTI6idDecl:
	.long	_ZTVN10__cxxabiv117__class_type_infoE+8
	.long	_ZTS6idDecl
	.weak	_ZTS6idDecl
	.section	.sdata._ZTS6idDecl,"awG",@progbits,_ZTS6idDecl,comdat
	.align 2
	.type	_ZTS6idDecl, @object
	.size	_ZTS6idDecl, 8
_ZTS6idDecl:
	.string	"6idDecl"
	.weak	_ZN6idDeclD1Ev
	.set	_ZN6idDeclD1Ev,_ZN6idDeclD2Ev
	.weak	_ZN9idWindingD1Ev
	.set	_ZN9idWindingD1Ev,_ZN9idWindingD2Ev
	.globl _ZN10idMaterialD1Ev
	.set	_ZN10idMaterialD1Ev,_ZN10idMaterialD2Ev
	.weak	_ZN14idFixedWindingD1Ev
	.set	_ZN14idFixedWindingD1Ev,_ZN14idFixedWindingD2Ev
	.globl _ZN10idMaterialC1Ev
	.set	_ZN10idMaterialC1Ev,_ZN10idMaterialC2Ev
	.section	.rodata
	.align 2
	.set	.LANCHOR1,. + 0
	.type	_ZL9infoParms, @object
	.size	_ZL9infoParms, 608
_ZL9infoParms:
	.long	.LC259
	.long	0
	.long	0
	.long	1
	.long	.LC260
	.long	1
	.long	0
	.long	4
	.long	.LC261
	.long	0
	.long	0
	.long	8
	.long	.LC262
	.long	0
	.long	0
	.long	16
	.long	.LC263
	.long	0
	.long	0
	.long	32
	.long	.LC264
	.long	0
	.long	0
	.long	64
	.long	.LC265
	.long	0
	.long	0
	.long	128
	.long	.LC266
	.long	0
	.long	0
	.long	4096
	.long	.LC267
	.long	0
	.long	0
	.long	8192
	.long	.LC268
	.long	0
	.long	0
	.long	16384
	.long	.LC269
	.long	0
	.long	0
	.long	32768
	.long	.LC270
	.long	1
	.long	0
	.long	0
	.long	.LC271
	.long	0
	.long	4096
	.long	0
	.long	.LC272
	.long	1
	.long	0
	.long	1048576
	.long	.LC273
	.long	1
	.long	0
	.long	2097152
	.long	.LC274
	.long	1
	.long	1024
	.long	0
	.long	.LC275
	.long	0
	.long	2048
	.long	0
	.long	.LC276
	.long	0
	.long	32
	.long	0
	.long	.LC277
	.long	0
	.long	64
	.long	0
	.long	.LC278
	.long	0
	.long	256
	.long	0
	.long	.LC279
	.long	0
	.long	16
	.long	0
	.long	.LC280
	.long	0
	.long	128
	.long	0
	.long	.LC281
