	.file	"Math.cpp"
	.section	".text"
.Ltext0:
	.section	.text._ZN14idFixedWinding5ClearEv,"axG",@progbits,_ZN14idFixedWinding5ClearEv,comdat
	.align 2
	.weak	_ZN14idFixedWinding5ClearEv
	.type	_ZN14idFixedWinding5ClearEv, @function
_ZN14idFixedWinding5ClearEv:
.LFB1502:
	.file 1 "d:/Data/Nintendo/DoomGX/src/idlib/math/../../idlib/geometry/Winding.h"
	.loc 1 398 0
	.cfi_startproc
.LVL0:
	.loc 1 399 0
	li 0,0
	.loc 1 400 0
	.loc 1 399 0
	stw 0,4(3)
	.loc 1 400 0
	blr
	.cfi_endproc
.LFE1502:
	.size	_ZN14idFixedWinding5ClearEv, .-_ZN14idFixedWinding5ClearEv
	.section	.text._ZN9idWinding5ClearEv,"axG",@progbits,_ZN9idWinding5ClearEv,comdat
	.align 2
	.weak	_ZN9idWinding5ClearEv
	.type	_ZN9idWinding5ClearEv, @function
_ZN9idWinding5ClearEv:
.LFB1473:
	.loc 1 249 0
	.cfi_startproc
.LVL1:
	mflr 0
	stwu 1,-16(1)
.LCFI0:
	.cfi_def_cfa_offset 16
	.cfi_register 65, 0
	stw 31,12(1)
	mr 31,3
	.cfi_offset 31, -4
	stw 0,20(1)
	.loc 1 250 0
	li 0,0
	.cfi_offset 65, 4
	.loc 1 251 0
	lwz 3,8(3)
.LVL2:
	.loc 1 250 0
	stw 0,4(31)
	.loc 1 251 0
	cmpwi 7,3,0
	beq- 7,.L3
	.loc 1 251 0 is_stmt 0 discriminator 1
	bl _ZdaPv
.L3:
	.loc 1 252 0 is_stmt 1
	li 0,0
	stw 0,8(31)
	.loc 1 253 0
	lwz 0,20(1)
	lwz 31,12(1)
.LVL3:
	mtlr 0
	addi 1,1,16
.LCFI1:
	.cfi_def_cfa_offset 0
	.cfi_restore 31
	blr
	.cfi_endproc
.LFE1473:
	.size	_ZN9idWinding5ClearEv, .-_ZN9idWinding5ClearEv
	.section	.text._ZN9idWindingD2Ev,"axG",@progbits,_ZN9idWindingD5Ev,comdat
	.align 2
	.weak	_ZN9idWindingD2Ev
	.type	_ZN9idWindingD2Ev, @function
_ZN9idWindingD2Ev:
.LFB1461:
	.loc 1 183 0
	.cfi_startproc
.LVL4:
	mflr 0
	stwu 1,-16(1)
.LCFI2:
	.cfi_def_cfa_offset 16
	.cfi_register 65, 0
.LBB349:
	lis 9,_ZTV9idWinding+8@ha
.LBE349:
	stw 31,12(1)
	mr 31,3
	.cfi_offset 31, -4
	stw 0,20(1)
.LBB350:
	.loc 1 183 0
	la 0,_ZTV9idWinding+8@l(9)
	.cfi_offset 65, 4
	.loc 1 184 0
	lwz 3,8(3)
.LVL5:
	.loc 1 183 0
	stw 0,0(31)
	.loc 1 184 0
	cmpwi 7,3,0
	beq- 7,.L6
	.loc 1 184 0 is_stmt 0 discriminator 1
	bl _ZdaPv
.L6:
	.loc 1 185 0 is_stmt 1
	li 0,0
	stw 0,8(31)
.LBE350:
	.loc 1 186 0
	lwz 0,20(1)
	lwz 31,12(1)
.LVL6:
	mtlr 0
	addi 1,1,16
.LCFI3:
	.cfi_def_cfa_offset 0
	.cfi_restore 31
	blr
	.cfi_endproc
.LFE1461:
	.size	_ZN9idWindingD2Ev, .-_ZN9idWindingD2Ev
	.section	.text._ZN14idFixedWindingD2Ev,"axG",@progbits,_ZN14idFixedWindingD5Ev,comdat
	.align 2
	.weak	_ZN14idFixedWindingD2Ev
	.type	_ZN14idFixedWindingD2Ev, @function
_ZN14idFixedWindingD2Ev:
.LFB1498:
	.loc 1 380 0
	.cfi_startproc
.LVL7:
.LBB356:
	.loc 1 381 0
	li 0,0
.LBB357:
.LBB358:
.LBB359:
	.loc 1 183 0
	lis 9,_ZTV9idWinding+8@ha
.LBE359:
.LBE358:
.LBE357:
	.loc 1 381 0
	stw 0,8(3)
.LVL8:
.LBB362:
.LBB361:
.LBB360:
	.loc 1 183 0
	la 0,_ZTV9idWinding+8@l(9)
	stw 0,0(3)
.LBE360:
.LBE361:
.LBE362:
.LBE356:
	.loc 1 382 0
	blr
	.cfi_endproc
.LFE1498:
	.size	_ZN14idFixedWindingD2Ev, .-_ZN14idFixedWindingD2Ev
	.section	.text._ZN14idFixedWindingD0Ev,"axG",@progbits,_ZN14idFixedWindingD5Ev,comdat
	.align 2
	.weak	_ZN14idFixedWindingD0Ev
	.type	_ZN14idFixedWindingD0Ev, @function
_ZN14idFixedWindingD0Ev:
.LFB1500:
	.loc 1 380 0
	.cfi_startproc
.LVL9:
	mflr 0
	stwu 1,-8(1)
.LCFI4:
	.cfi_def_cfa_offset 8
	.cfi_register 65, 0
.LBB369:
.LBB370:
.LBB371:
.LBB372:
.LBB373:
.LBB374:
	.loc 1 183 0
	lis 11,_ZTV9idWinding+8@ha
.LBE374:
.LBE373:
.LBE372:
.LBE371:
.LBE370:
.LBE369:
	.loc 1 380 0
	stw 0,12(1)
.LBB380:
.LBB379:
.LBB378:
	.loc 1 381 0
	li 0,0
	.cfi_offset 65, 4
	stw 0,8(3)
.LVL10:
.LBB377:
.LBB376:
.LBB375:
	.loc 1 183 0
	la 0,_ZTV9idWinding+8@l(11)
	stw 0,0(3)
.LBE375:
.LBE376:
.LBE377:
.LBE378:
.LBE379:
.LBE380:
	.loc 1 382 0
	bl _ZdlPv
.LVL11:
	lwz 0,12(1)
	addi 1,1,8
.LCFI5:
	.cfi_def_cfa_offset 0
	mtlr 0
	blr
	.cfi_endproc
.LFE1500:
	.size	_ZN14idFixedWindingD0Ev, .-_ZN14idFixedWindingD0Ev
	.section	.text._ZN9idWindingD0Ev,"axG",@progbits,_ZN9idWindingD5Ev,comdat
	.align 2
	.weak	_ZN9idWindingD0Ev
	.type	_ZN9idWindingD0Ev, @function
_ZN9idWindingD0Ev:
.LFB1463:
	.loc 1 183 0
	.cfi_startproc
.LVL12:
	mflr 0
	stwu 1,-16(1)
.LCFI6:
	.cfi_def_cfa_offset 16
	.cfi_register 65, 0
.LBB384:
.LBB385:
.LBB386:
	lis 9,_ZTV9idWinding+8@ha
.LBE386:
.LBE385:
.LBE384:
	stw 31,12(1)
	mr 31,3
	.cfi_offset 31, -4
.LVL13:
	stw 0,20(1)
.LBB391:
.LBB389:
.LBB387:
	.loc 1 183 0
	la 0,_ZTV9idWinding+8@l(9)
	.cfi_offset 65, 4
	.loc 1 184 0
	lwz 3,8(3)
.LVL14:
	.loc 1 183 0
	stw 0,0(31)
	.loc 1 184 0
	cmpwi 7,3,0
	beq- 7,.L16
	bl _ZdaPv
.LVL15:
.L16:
	.loc 1 185 0
	li 0,0
.LBE387:
.LBE389:
.LBE391:
	.loc 1 186 0
	mr 3,31
.LBB392:
.LBB390:
.LBB388:
	.loc 1 185 0
	stw 0,8(31)
.LBE388:
.LBE390:
.LBE392:
	.loc 1 186 0
	bl _ZdlPv
	lwz 0,20(1)
	lwz 31,12(1)
.LVL16:
	mtlr 0
	addi 1,1,16
.LCFI7:
	.cfi_def_cfa_offset 0
	.cfi_restore 31
	blr
	.cfi_endproc
.LFE1463:
	.size	_ZN9idWindingD0Ev, .-_ZN9idWindingD0Ev
	.section	".text"
	.align 2
	.globl _ZN6idMath4InitEv
	.type	_ZN6idMath4InitEv, @function
_ZN6idMath4InitEv:
.LFB2538:
	.file 2 "d:/Data/Nintendo/DoomGX/src/idlib/math/Math.cpp"
	.loc 2 57 0
	.cfi_startproc
.LVL17:
	stwu 1,-32(1)
.LCFI8:
	.cfi_def_cfa_offset 32
	mflr 0
	stw 28,16(1)
	.loc 2 60 0
	lis 28,.LANCHOR0@ha
	.cfi_offset 28, -16
	.cfi_register 65, 0
	.loc 2 57 0
	stw 29,20(1)
	.loc 2 60 0
	la 28,.LANCHOR0@l(28)
	lis 29,.LC1@ha
	.cfi_offset 29, -12
	.loc 2 57 0
	stw 0,36(1)
	stw 30,24(1)
	la 29,.LC1@l(29)
	stw 31,28(1)
	.loc 2 60 0
	addi 30,28,-4
	.cfi_offset 31, -4
	.cfi_offset 30, -8
	.cfi_offset 65, 4
	li 31,0
.LVL18:
.L20:
.LBB393:
.LBB394:
	.loc 2 61 0 discriminator 2
	slwi 0,31,15
	oris 0,0,0x3f00
	.loc 2 62 0 discriminator 2
	stw 0,8(1)
	lfs 0,8(1)
	fmr 1,0
	bl sqrt
.LVL19:
	lfs 0,0(29)
	.loc 2 60 0 discriminator 2
	cmpwi 7,31,511
	addi 31,31,1
.LVL20:
	.loc 2 62 0 discriminator 2
	fdiv 0,0,1
	frsp 0,0
	stfs 0,8(1)
	lwz 9,8(1)
	.loc 2 63 0 discriminator 2
	addi 0,9,8192
	rlwinm 0,0,0,9,16
	stwu 0,4(30)
	.loc 2 60 0 discriminator 2
	bne+ 7,.L20
.LBE394:
	.loc 2 66 0
	lis 0,0x7f
	.loc 2 68 0
	lis 9,_ZN6idMath11initializedE@ha
	.loc 2 66 0
	ori 0,0,32768
.LBE393:
	.loc 2 69 0
	lwz 29,20(1)
.LBB395:
	.loc 2 66 0
	stw 0,1024(28)
	.loc 2 68 0
	li 0,1
	stb 0,_ZN6idMath11initializedE@l(9)
.LBE395:
	.loc 2 69 0
	lwz 0,36(1)
	lwz 28,16(1)
	mtlr 0
	lwz 30,24(1)
	lwz 31,28(1)
.LVL21:
	addi 1,1,32
.LCFI9:
	.cfi_def_cfa_offset 0
	.cfi_restore 31
	.cfi_restore 30
	.cfi_restore 29
	.cfi_restore 28
	blr
	.cfi_endproc
.LFE2538:
	.size	_ZN6idMath4InitEv, .-_ZN6idMath4InitEv
	.align 2
	.globl _ZN6idMath11BitsToFloatEiii
	.type	_ZN6idMath11BitsToFloatEiii, @function
_ZN6idMath11BitsToFloatEiii:
.LFB2540:
	.loc 2 118 0
	.cfi_startproc
.LVL22:
.LBB396:
	.loc 2 125 0
	addi 0,4,-1
.LVL23:
	.loc 2 128 0
	li 9,1
	.loc 2 127 0
	add 10,0,5
	lis 7,.LANCHOR1@ha
	sraw 10,3,10
	slw 11,9,0
	rlwinm 10,10,2,29,29
	la 7,.LANCHOR1@l(7)
	sraw 8,3,5
	addi 11,11,-1
	lwzx 10,7,10
	and 11,11,8
	.loc 2 128 0
	slw 9,9,5
	.loc 2 126 0
	add 4,4,5
.LVL24:
	.loc 2 127 0
	mullw 11,11,10
	.loc 2 128 0
	addi 9,9,-1
	and 9,9,3
.LBE396:
	.loc 2 118 0
	stwu 1,-16(1)
.LCFI10:
	.cfi_def_cfa_offset 16
.LBB397:
	.loc 2 128 0
	subfic 5,5,23
.LVL25:
	.loc 2 126 0
	sraw 3,3,4
.LVL26:
	.loc 2 128 0
	slw 5,9,5
.LVL27:
	.loc 2 129 0
	slwi 3,3,31
.LVL28:
	addi 0,11,127
.LVL29:
	or 5,5,3
.LVL30:
	slwi 0,0,23
	.loc 2 130 0
	or 5,5,0
.LBE397:
	.loc 2 131 0
	stw 5,8(1)
	lfs 1,8(1)
	addi 1,1,16
.LCFI11:
	.cfi_def_cfa_offset 0
	blr
	.cfi_endproc
.LFE2540:
	.size	_ZN6idMath11BitsToFloatEiii, .-_ZN6idMath11BitsToFloatEiii
	.align 2
	.globl _ZN6idMath11FloatToBitsEfii
	.type	_ZN6idMath11FloatToBitsEfii, @function
_ZN6idMath11FloatToBitsEfii:
.LFB2539:
	.loc 2 76 0
	.cfi_startproc
.LVL31:
	stwu 1,-48(1)
.LCFI12:
	.cfi_def_cfa_offset 48
	mflr 0
	stw 27,20(1)
.LBB398:
	.loc 2 82 0
	li 27,1
	.cfi_offset 27, -28
	.cfi_register 65, 0
.LBE398:
	.loc 2 76 0
	stw 28,24(1)
.LBB399:
	.loc 2 82 0
	addi 28,3,-1
	.cfi_offset 28, -24
.LBE399:
	.loc 2 76 0
	stw 29,28(1)
.LBB400:
	.loc 2 82 0
	slw 29,27,28
	.cfi_offset 29, -20
	slw 9,27,4
	addi 29,29,-1
	.loc 2 83 0
	slw 27,27,3
.LBE400:
	.loc 2 76 0
	stw 0,52(1)
.LBB401:
	.loc 2 82 0
	slw 29,29,4
	addi 0,9,-1
	.cfi_offset 65, 4
	.loc 2 83 0
	addi 27,27,-2
	.loc 2 82 0
	or 29,29,0
.LVL32:
.LBE401:
	.loc 2 76 0
	stw 30,32(1)
.LBB402:
	.loc 2 83 0
	slw 27,27,4
.LBE402:
	.loc 2 76 0
	mr 30,3
	.cfi_offset 30, -16
	stw 31,36(1)
	mr 31,4
	.cfi_offset 31, -12
.LBB403:
	.loc 2 85 0
	mr 3,29
.LVL33:
	mr 4,30
.LVL34:
	mr 5,31
	.loc 2 83 0
	ori 27,27,1
.LVL35:
.LBE403:
	.loc 2 76 0
	stfd 31,40(1)
	stw 26,16(1)
.LBB404:
	.loc 2 83 0
	li 26,1
	.cfi_offset 26, -32
	.cfi_offset 63, -8
.LBE404:
	.loc 2 76 0
	stfs 1,8(1)
.LBB405:
	.loc 2 85 0
	bl _ZN6idMath11BitsToFloatEiii
.LVL36:
	.loc 2 86 0
	mr 3,27
	mr 4,30
	mr 5,31
	.loc 2 85 0
	fmr 31,1
.LVL37:
	.loc 2 86 0
	bl _ZN6idMath11BitsToFloatEiii
.LVL38:
	.loc 2 88 0
	lis 9,.LC2@ha
	lfs 0,.LC2@l(9)
	lfs 13,8(1)
	fcmpu 7,13,0
	cror 30,29,30
	bne- 7,.L35
	.loc 2 89 0
	fcmpu 7,31,13
	cror 30,28,30
	beq- 7,.L26
	.loc 2 91 0
	fcmpu 7,1,13
	.loc 2 92 0
	mr 29,27
.LVL39:
	.loc 2 91 0
	cror 30,29,30
	beq- 7,.L26
.LVL40:
.L27:
	.loc 2 103 0
	lwz 0,8(1)
.LVL41:
	.loc 2 108 0
	li 29,1
	slw 29,29,28
	.loc 2 107 0
	add 30,30,31
	.loc 2 105 0
	rlwinm 9,0,9,24,31
	.loc 2 108 0
	addi 29,29,-1
	.loc 2 105 0
	addi 9,9,-127
.LVL42:
	.loc 2 108 0
	srawi 10,9,31
	xor 11,10,9
	srwi 9,9,31
.LVL43:
	subf 11,10,11
	slw 28,9,28
.LVL44:
	and 29,11,29
	.loc 2 104 0
	srwi 11,0,31
	.loc 2 108 0
	or 29,29,28
	.loc 2 107 0
	slw 30,11,30
	.loc 2 108 0
	slw 29,29,31
	.loc 2 106 0
	rlwinm 0,0,0,9,31
	.loc 2 109 0
	subfic 31,31,23
.LVL45:
	.loc 2 108 0
	or 29,29,30
.LVL46:
	.loc 2 109 0
	sraw 0,0,31
	or 29,29,0
.LVL47:
.L26:
.LBE405:
	.loc 2 111 0
	lwz 0,52(1)
	mr 3,29
	lwz 26,16(1)
	mtlr 0
	lwz 27,20(1)
.LVL48:
	lwz 28,24(1)
	lwz 29,28(1)
	lwz 30,32(1)
	lwz 31,36(1)
	lfd 31,40(1)
	addi 1,1,48
	.cfi_remember_state
.LCFI13:
	.cfi_def_cfa_offset 0
	.cfi_restore 63
	.cfi_restore 31
	.cfi_restore 30
	.cfi_restore 29
	.cfi_restore 28
	.cfi_restore 27
	.cfi_restore 26
	blr
.LVL49:
.L35:
.LCFI14:
	.cfi_restore_state
.LBB406:
	.loc 2 95 0
	fneg 31,31
.LVL50:
	lfs 13,8(1)
	fcmpu 7,31,13
	cror 30,29,30
	beq- 7,.L37
	.loc 2 97 0
	fneg 1,1
.LVL51:
	lfs 0,8(1)
	fcmpu 7,1,0
	cror 30,28,30
	bne+ 7,.L27
.LBE406:
	.loc 2 111 0
	lwz 0,52(1)
.LBB407:
	.loc 2 98 0
	add 29,30,31
.LVL52:
	slw 29,26,29
.LBE407:
	.loc 2 111 0
	lwz 28,24(1)
	mtlr 0
.LBB408:
	.loc 2 98 0
	or 29,27,29
.LBE408:
	.loc 2 111 0
	mr 3,29
	lwz 26,16(1)
	lwz 27,20(1)
.LVL53:
	lwz 29,28(1)
	lwz 30,32(1)
.LVL54:
	lwz 31,36(1)
.LVL55:
	lfd 31,40(1)
	addi 1,1,48
	.cfi_remember_state
	.cfi_restore 26
	.cfi_restore 27
	.cfi_restore 28
	.cfi_restore 29
	.cfi_restore 30
	.cfi_restore 31
	.cfi_restore 63
.LCFI15:
	.cfi_def_cfa_offset 0
	blr
.LVL56:
.L37:
.LCFI16:
	.cfi_restore_state
	lwz 0,52(1)
.LBB409:
	.loc 2 96 0
	add 31,30,31
.LVL57:
	slw 26,26,31
.LBE409:
	.loc 2 111 0
	lwz 27,20(1)
.LVL58:
	mtlr 0
.LBB410:
	.loc 2 96 0
	or 29,29,26
.LVL59:
.LBE410:
	.loc 2 111 0
	mr 3,29
	lwz 26,16(1)
	lwz 28,24(1)
	lwz 29,28(1)
	lwz 30,32(1)
.LVL60:
	lwz 31,36(1)
	lfd 31,40(1)
	addi 1,1,48
	.cfi_restore 26
	.cfi_restore 27
	.cfi_restore 28
	.cfi_restore 29
	.cfi_restore 30
	.cfi_restore 31
	.cfi_restore 63
.LCFI17:
	.cfi_def_cfa_offset 0
	blr
	.cfi_endproc
.LFE2539:
	.size	_ZN6idMath11FloatToBitsEfii, .-_ZN6idMath11FloatToBitsEfii
	.weak	_ZTS9idWinding
	.section	.rodata._ZTS9idWinding,"aG",@progbits,_ZTS9idWinding,comdat
	.align 2
	.type	_ZTS9idWinding, @object
	.size	_ZTS9idWinding, 11
_ZTS9idWinding:
	.string	"9idWinding"
	.weak	_ZTI9idWinding
	.section	.sdata._ZTI9idWinding,"awG",@progbits,_ZTI9idWinding,comdat
	.align 2
	.type	_ZTI9idWinding, @object
	.size	_ZTI9idWinding, 8
_ZTI9idWinding:
	.long	_ZTVN10__cxxabiv117__class_type_infoE+8
	.long	_ZTS9idWinding
	.weak	_ZTS14idFixedWinding
	.section	.rodata._ZTS14idFixedWinding,"aG",@progbits,_ZTS14idFixedWinding,comdat
	.align 2
	.type	_ZTS14idFixedWinding, @object
	.size	_ZTS14idFixedWinding, 17
_ZTS14idFixedWinding:
	.string	"14idFixedWinding"
	.weak	_ZTI14idFixedWinding
	.section	.rodata._ZTI14idFixedWinding,"aG",@progbits,_ZTI14idFixedWinding,comdat
	.align 2
	.type	_ZTI14idFixedWinding, @object
	.size	_ZTI14idFixedWinding, 12
_ZTI14idFixedWinding:
	.long	_ZTVN10__cxxabiv120__si_class_type_infoE+8
	.long	_ZTS14idFixedWinding
	.long	_ZTI9idWinding
	.weak	_ZTV9idWinding
	.section	.rodata._ZTV9idWinding,"aG",@progbits,_ZTV9idWinding,comdat
	.align 3
	.type	_ZTV9idWinding, @object
	.size	_ZTV9idWinding, 24
_ZTV9idWinding:
	.long	0
	.long	_ZTI9idWinding
	.long	_ZN9idWindingD1Ev
	.long	_ZN9idWindingD0Ev
	.long	_ZN9idWinding5ClearEv
	.long	_ZN9idWinding10ReAllocateEib
	.weak	_ZTV14idFixedWinding
	.section	.rodata._ZTV14idFixedWinding,"aG",@progbits,_ZTV14idFixedWinding,comdat
	.align 3
	.type	_ZTV14idFixedWinding, @object
	.size	_ZTV14idFixedWinding, 24
_ZTV14idFixedWinding:
	.long	0
	.long	_ZTI14idFixedWinding
	.long	_ZN14idFixedWindingD1Ev
	.long	_ZN14idFixedWindingD0Ev
	.long	_ZN14idFixedWinding5ClearEv
	.long	_ZN14idFixedWinding10ReAllocateEib
	.globl _ZN6idMath5iSqrtE
	.globl _ZN6idMath11initializedE
	.globl _ZN6idMath11FLT_EPSILONE
	.globl _ZN6idMath8INFINITYE
	.globl _ZN6idMath8M_MS2SECE
	.globl _ZN6idMath8M_SEC2MSE
	.globl _ZN6idMath9M_RAD2DEGE
	.globl _ZN6idMath9M_DEG2RADE
	.globl _ZN6idMath11SQRT_1OVER3E
	.globl _ZN6idMath11SQRT_1OVER2E
	.globl _ZN6idMath10SQRT_THREEE
	.globl _ZN6idMath8SQRT_TWOE
	.globl _ZN6idMath1EE
	.globl _ZN6idMath12ONEFOURTH_PIE
	.globl _ZN6idMath7HALF_PIE
	.globl _ZN6idMath6TWO_PIE
	.globl _ZN6idMath2PIE
	.weak	_ZN9idWindingD1Ev
	.set	_ZN9idWindingD1Ev,_ZN9idWindingD2Ev
	.weak	_ZN14idFixedWindingD1Ev
	.set	_ZN14idFixedWindingD1Ev,_ZN14idFixedWindingD2Ev
	.section	.rodata
	.align 2
	.set	.LANCHOR1,. + 0
	.type	_ZZN6idMath11BitsToFloatEiiiE12exponentSign, @object
	.size	_ZZN6idMath11BitsToFloatEiiiE12exponentSign, 8
_ZZN6idMath11BitsToFloatEiiiE12exponentSign:
	.long	1
	.long	-1
	.section	.rodata.cst4,"aM",@progbits,4
	.align 2
.LC1:
	.4byte	1065353216
.LC2:
	.4byte	0
	.section	.sbss,"aw",@nobits
	.type	_ZN6idMath11initializedE, @object
	.size	_ZN6idMath11initializedE, 1
_ZN6idMath11initializedE:
	.zero	1
	.section	.sdata,"aw",@progbits
	.align 2
	.type	_ZN6idMath11FLT_EPSILONE, @object
	.size	_ZN6idMath11FLT_EPSILONE, 4
_ZN6idMath11FLT_EPSILONE:
	.long	872415232
	.type	_ZN6idMath8INFINITYE, @object
	.size	_ZN6idMath8INFINITYE, 4
_ZN6idMath8INFINITYE:
	.long	1900671690
	.type	_ZN6idMath8M_MS2SECE, @object
	.size	_ZN6idMath8M_MS2SECE, 4
_ZN6idMath8M_MS2SECE:
	.long	981668463
	.type	_ZN6idMath8M_SEC2MSE, @object
	.size	_ZN6idMath8M_SEC2MSE, 4
_ZN6idMath8M_SEC2MSE:
	.long	1148846080
	.type	_ZN6idMath9M_RAD2DEGE, @object
	.size	_ZN6idMath9M_RAD2DEGE, 4
_ZN6idMath9M_RAD2DEGE:
	.long	1113927392
	.type	_ZN6idMath9M_DEG2RADE, @object
	.size	_ZN6idMath9M_DEG2RADE, 4
_ZN6idMath9M_DEG2RADE:
	.long	1016003125
	.type	_ZN6idMath11SQRT_1OVER3E, @object
	.size	_ZN6idMath11SQRT_1OVER3E, 4
_ZN6idMath11SQRT_1OVER3E:
	.long	1058262330
	.type	_ZN6idMath11SQRT_1OVER2E, @object
	.size	_ZN6idMath11SQRT_1OVER2E, 4
_ZN6idMath11SQRT_1OVER2E:
	.long	1060439283
	.type	_ZN6idMath10SQRT_THREEE, @object
	.size	_ZN6idMath10SQRT_THREEE, 4
_ZN6idMath10SQRT_THREEE:
	.long	1071494103
	.type	_ZN6idMath8SQRT_TWOE, @object
	.size	_ZN6idMath8SQRT_TWOE, 4
_ZN6idMath8SQRT_TWOE:
	.long	1068827891
	.type	_ZN6idMath1EE, @object
	.size	_ZN6idMath1EE, 4
_ZN6idMath1EE:
	.long	1076754516
	.type	_ZN6idMath12ONEFOURTH_PIE, @object
	.size	_ZN6idMath12ONEFOURTH_PIE, 4
_ZN6idMath12ONEFOURTH_PIE:
	.long	1061752795
	.type	_ZN6idMath7HALF_PIE, @object
	.size	_ZN6idMath7HALF_PIE, 4
_ZN6idMath7HALF_PIE:
	.long	1070141403
	.type	_ZN6idMath6TWO_PIE, @object
	.size	_ZN6idMath6TWO_PIE, 4
_ZN6idMath6TWO_PIE:
	.long	1086918619
	.type	_ZN6idMath2PIE, @object
	.size	_ZN6idMath2PIE, 4
_ZN6idMath2PIE:
	.long	1078530011
	.section	".bss"
	.align 2
	.set	.LANCHOR0,. + 0
	.type	_ZN6idMath5iSqrtE, @object
	.size	_ZN6idMath5iSqrtE, 2048
_ZN6idMath5iSqrtE:
	.zero	2048
	.section	".text"
.Letext0:
	.file 3 "<built-in>"
	.file 4 "c:\\utils\\devkitpro\\devkitppc\\bin\\../lib/gcc/powerpc-eabi/4.6.3/include/stddef.h"
	.file 5 "c:\\utils\\devkitpro\\devkitppc\\bin\\../lib/gcc/powerpc-eabi/4.6.3/../../../../powerpc-eabi/include/sys/types.h"
	.file 6 "d:/Data/Nintendo/DoomGX/src/idlib/math/../../sys/sys_public.h"
	.file 7 "d:/Data/Nintendo/DoomGX/src/idlib/math/../../framework/Common.h"
	.file 8 "d:/Data/Nintendo/DoomGX/src/idlib/math/../../framework/CVarSystem.h"
	.file 9 "d:/Data/Nintendo/DoomGX/src/idlib/math/../../framework/FileSystem.h"
	.file 10 "d:/Data/Nintendo/DoomGX/src/idlib/math/../../idlib/Lib.h"
	.file 11 "d:/Data/Nintendo/DoomGX/src/idlib/math/../../idlib/CmdArgs.h"
	.file 12 "d:/Data/Nintendo/DoomGX/src/idlib/math/../../idlib/math/Math.h"
	.file 13 "d:/Data/Nintendo/DoomGX/src/idlib/math/../../idlib/math/Random.h"
	.file 14 "d:/Data/Nintendo/DoomGX/src/idlib/math/../../idlib/math/Vector.h"
	.file 15 "d:/Data/Nintendo/DoomGX/src/idlib/math/../../idlib/math/Angles.h"
	.file 16 "d:/Data/Nintendo/DoomGX/src/idlib/math/../../idlib/math/Matrix.h"
	.file 17 "d:/Data/Nintendo/DoomGX/src/idlib/math/../../idlib/math/Quat.h"
	.file 18 "d:/Data/Nintendo/DoomGX/src/idlib/math/../../idlib/math/Rotation.h"
	.file 19 "d:/Data/Nintendo/DoomGX/src/idlib/math/../../idlib/math/Plane.h"
	.file 20 "d:/Data/Nintendo/DoomGX/src/idlib/math/../../idlib/containers/List.h"
	.file 21 "d:/Data/Nintendo/DoomGX/src/idlib/math/../../idlib/math/Ode.h"
	.file 22 "d:/Data/Nintendo/DoomGX/src/idlib/math/../../idlib/bv/Sphere.h"
	.file 23 "d:/Data/Nintendo/DoomGX/src/idlib/math/../../idlib/bv/Bounds.h"
	.file 24 "d:/Data/Nintendo/DoomGX/src/idlib/math/../../idlib/bv/Box.h"
	.file 25 "d:/Data/Nintendo/DoomGX/src/idlib/math/../../idlib/bv/Frustum.h"
	.file 26 "d:/Data/Nintendo/DoomGX/src/idlib/math/../../idlib/geometry/DrawVert.h"
	.file 27 "d:/Data/Nintendo/DoomGX/src/idlib/math/../../idlib/geometry/JointTransform.h"
	.file 28 "d:/Data/Nintendo/DoomGX/src/idlib/math/../../idlib/geometry/Surface.h"
	.file 29 "d:/Data/Nintendo/DoomGX/src/idlib/math/../../idlib/geometry/TraceModel.h"
	.file 30 "d:/Data/Nintendo/DoomGX/src/idlib/math/../../idlib/Str.h"
	.file 31 "d:/Data/Nintendo/DoomGX/src/idlib/math/../../idlib/Token.h"
	.file 32 "d:/Data/Nintendo/DoomGX/src/idlib/math/../../idlib/Lexer.h"
	.file 33 "d:/Data/Nintendo/DoomGX/src/idlib/math/../../framework/File.h"
	.file 34 "d:/Data/Nintendo/DoomGX/src/idlib/math/../../idlib/Parser.h"
	.file 35 "d:/Data/Nintendo/DoomGX/src/idlib/math/../../idlib/containers/HashIndex.h"
	.file 36 "d:/Data/Nintendo/DoomGX/src/idlib/math/../../idlib/containers/StrList.h"
	.file 37 "d:/Data/Nintendo/DoomGX/src/idlib/math/../../idlib/containers/StrPool.h"
	.file 38 "d:/Data/Nintendo/DoomGX/src/idlib/math/../../idlib/containers/PlaneSet.h"
	.file 39 "d:/Data/Nintendo/DoomGX/src/idlib/math/../../idlib/Dict.h"
	.file 40 "d:/Data/Nintendo/DoomGX/src/idlib/math/../../idlib/LangDict.h"
	.file 41 "d:/Data/Nintendo/DoomGX/src/idlib/math/../../idlib/BitMsg.h"
	.file 42 "d:/Data/Nintendo/DoomGX/src/idlib/math/../../idlib/MapFile.h"
	.file 43 "d:/Data/Nintendo/DoomGX/src/idlib/math/../../framework/CmdSystem.h"
	.file 44 "d:/Data/Nintendo/DoomGX/src/idlib/math/../../framework/UsercmdGen.h"
	.file 45 "d:/Data/Nintendo/DoomGX/src/idlib/math/../../framework/DeclManager.h"
	.file 46 "d:/Data/Nintendo/DoomGX/src/idlib/math/../../framework/DeclParticle.h"
	.file 47 "d:/Data/Nintendo/DoomGX/src/idlib/math/../../renderer/RenderWorld.h"
	.file 48 "d:/Data/Nintendo/DoomGX/src/idlib/math/../../renderer/Cinematic.h"
	.file 49 "d:/Data/Nintendo/DoomGX/src/idlib/math/../../renderer/Model.h"
	.file 50 "d:/Data/Nintendo/DoomGX/src/idlib/math/../../renderer/RenderSystem.h"
	.file 51 "d:/Data/Nintendo/DoomGX/src/idlib/math/../../sound/sound.h"
	.file 52 "d:/Data/Nintendo/DoomGX/src/idlib/math/../../ui/UserInterface.h"
	.file 53 "d:/Data/Nintendo/DoomGX/src/idlib/math/../../cm/CollisionModel.h"
	.file 54 "d:/Data/Nintendo/DoomGX/src/idlib/math/../../tools/compilers/aas/AASFile.h"
	.file 55 "d:/Data/Nintendo/DoomGX/src/idlib/math/../../game/Game.h"
	.file 56 "d:/Data/Nintendo/DoomGX/src/idlib/math/../../framework/async/NetworkSystem.h"
	.file 57 "d:/Data/Nintendo/DoomGX/src/idlib/math/../../renderer/ModelManager.h"
	.file 58 "d:/Data/Nintendo/DoomGX/src/idlib/math/../../tools/compilers/aas/AASFileManager.h"
	.file 59 "d:/Data/Nintendo/DoomGX/src/idlib/math/../../framework/Session.h"
	.file 60 "d:/Data/Nintendo/DoomGX/src/idlib/math/../../ui/ListGUI.h"
	.file 61 "d:/Data/Nintendo/DoomGX/src/idlib/math/../../framework/Console.h"
	.file 62 "d:/Data/Nintendo/DoomGX/src/idlib/math/../../idlib/math/Curve.h"
	.file 63 "d:/Data/Nintendo/DoomGX/src/idlib/math/../../idlib/math/Simd.h"
	.file 64 "d:/Data/Nintendo/DoomGX/src/idlib/math/../../framework/BuildVersion.h"
	.file 65 "d:/Data/Nintendo/DoomGX/src/idlib/math/../precompiled.h"
	.file 66 "d:/Data/Nintendo/DoomGX/src/idlib/math/../../renderer/Material.h"
	.file 67 "d:/Data/Nintendo/DoomGX/src/idlib/math/../../framework/EventLoop.h"
	.file 68 "d:/Data/Nintendo/DoomGX/src/idlib/math/../../framework/EditField.h"
	.file 69 "d:/Data/Nintendo/DoomGX/src/idlib/math/../../framework/async/AsyncNetwork.h"
	.file 70 "d:/Data/Nintendo/DoomGX/src/idlib/math/../../framework/async/AsyncServer.h"