	.file	"Model_lwo.cpp"
	.section	".text"
.Ltext0:
	.section	.text._ZN14idFixedWinding5ClearEv,"axG",@progbits,_ZN14idFixedWinding5ClearEv,comdat
	.align 2
	.weak	_ZN14idFixedWinding5ClearEv
	.type	_ZN14idFixedWinding5ClearEv, @function
_ZN14idFixedWinding5ClearEv:
.LFB1502:
	.file 1 "d:/Data/Nintendo/DoomGX/src/renderer/../idlib/../idlib/geometry/Winding.h"
	.loc 1 398 0
	.cfi_startproc
.LVL0:
	.loc 1 399 0
	li 0,0
	.loc 1 400 0
	.loc 1 399 0
	stw 0,4(3)
	.loc 1 400 0
	blr
	.cfi_endproc
.LFE1502:
	.size	_ZN14idFixedWinding5ClearEv, .-_ZN14idFixedWinding5ClearEv
	.section	.text._ZN9idWinding5ClearEv,"axG",@progbits,_ZN9idWinding5ClearEv,comdat
	.align 2
	.weak	_ZN9idWinding5ClearEv
	.type	_ZN9idWinding5ClearEv, @function
_ZN9idWinding5ClearEv:
.LFB1473:
	.loc 1 249 0
	.cfi_startproc
.LVL1:
	mflr 0
	stwu 1,-16(1)
.LCFI0:
	.cfi_def_cfa_offset 16
	.cfi_register 65, 0
	stw 31,12(1)
	mr 31,3
	.cfi_offset 31, -4
	stw 0,20(1)
	.loc 1 250 0
	li 0,0
	.cfi_offset 65, 4
	.loc 1 251 0
	lwz 3,8(3)
.LVL2:
	.loc 1 250 0
	stw 0,4(31)
	.loc 1 251 0
	cmpwi 7,3,0
	beq- 7,.L3
	.loc 1 251 0 is_stmt 0 discriminator 1
	bl _ZdaPv
.L3:
	.loc 1 252 0 is_stmt 1
	li 0,0
	stw 0,8(31)
	.loc 1 253 0
	lwz 0,20(1)
	lwz 31,12(1)
.LVL3:
	mtlr 0
	addi 1,1,16
.LCFI1:
	.cfi_def_cfa_offset 0
	.cfi_restore 31
	blr
	.cfi_endproc
.LFE1473:
	.size	_ZN9idWinding5ClearEv, .-_ZN9idWinding5ClearEv
	.section	.text._ZN9idWindingD2Ev,"axG",@progbits,_ZN9idWindingD5Ev,comdat
	.align 2
	.weak	_ZN9idWindingD2Ev
	.type	_ZN9idWindingD2Ev, @function
_ZN9idWindingD2Ev:
.LFB1461:
	.loc 1 183 0
	.cfi_startproc
.LVL4:
	mflr 0
	stwu 1,-16(1)
.LCFI2:
	.cfi_def_cfa_offset 16
	.cfi_register 65, 0
.LBB783:
	lis 9,_ZTV9idWinding+8@ha
.LBE783:
	stw 31,12(1)
	mr 31,3
	.cfi_offset 31, -4
	stw 0,20(1)
.LBB784:
	.loc 1 183 0
	la 0,_ZTV9idWinding+8@l(9)
	.cfi_offset 65, 4
	.loc 1 184 0
	lwz 3,8(3)
.LVL5:
	.loc 1 183 0
	stw 0,0(31)
	.loc 1 184 0
	cmpwi 7,3,0
	beq- 7,.L6
	.loc 1 184 0 is_stmt 0 discriminator 1
	bl _ZdaPv
.L6:
	.loc 1 185 0 is_stmt 1
	li 0,0
	stw 0,8(31)
.LBE784:
	.loc 1 186 0
	lwz 0,20(1)
	lwz 31,12(1)
.LVL6:
	mtlr 0
	addi 1,1,16
.LCFI3:
	.cfi_def_cfa_offset 0
	.cfi_restore 31
	blr
	.cfi_endproc
.LFE1461:
	.size	_ZN9idWindingD2Ev, .-_ZN9idWindingD2Ev
	.section	".text"
	.align 2
	.type	_ZL16compare_texturesP12st_lwTextureS0_, @function
_ZL16compare_texturesP12st_lwTextureS0_:
.LFB2611:
	.file 2 "d:/Data/Nintendo/DoomGX/src/renderer/Model_lwo.cpp"
	.loc 2 3579 0
	.cfi_startproc
.LVL7:
	mflr 0
	stwu 1,-8(1)
.LCFI4:
	.cfi_def_cfa_offset 8
	.cfi_register 65, 0
	stw 0,12(1)
	.loc 2 3580 0
	lwz 3,8(3)
.LVL8:
	lwz 4,8(4)
.LVL9:
	.cfi_offset 65, 4
	bl _ZN5idStr3CmpEPKcS1_
	.loc 2 3581 0
	lwz 0,12(1)
	addi 1,1,8
.LCFI5:
	.cfi_def_cfa_offset 0
	mtlr 0
	blr
	.cfi_endproc
.LFE2611:
	.size	_ZL16compare_texturesP12st_lwTextureS0_, .-_ZL16compare_texturesP12st_lwTextureS0_
	.align 2
	.type	_ZL15compare_shadersP11st_lwPluginS0_, @function
_ZL15compare_shadersP11st_lwPluginS0_:
.LFB2612:
	.loc 2 3585 0
	.cfi_startproc
.LVL10:
	mflr 0
	stwu 1,-8(1)
.LCFI6:
	.cfi_def_cfa_offset 8
	.cfi_register 65, 0
	stw 0,12(1)
	.loc 2 3586 0
	lwz 3,8(3)
.LVL11:
	lwz 4,8(4)
.LVL12:
	.cfi_offset 65, 4
	bl _ZN5idStr3CmpEPKcS1_
	.loc 2 3587 0
	lwz 0,12(1)
	addi 1,1,8
.LCFI7:
	.cfi_def_cfa_offset 0
	mtlr 0
	blr
	.cfi_endproc
.LFE2612:
	.size	_ZL15compare_shadersP11st_lwPluginS0_, .-_ZL15compare_shadersP11st_lwPluginS0_
	.align 2
	.type	_ZL11get_texturePc, @function
_ZL11get_texturePc:
.LFB2584:
	.loc 2 1782 0
	.cfi_startproc
.LVL13:
	stwu 1,-24(1)
.LCFI8:
	.cfi_def_cfa_offset 24
	mflr 0
	stw 30,16(1)
	mr 30,3
	.cfi_offset 30, -8
	.cfi_register 65, 0
.LBB785:
	.loc 2 1785 0
	li 3,180
.LVL14:
.LBE785:
	.loc 2 1782 0
	stw 31,20(1)
	stw 0,28(1)
	stw 29,12(1)
.LBB786:
	.loc 2 1785 0
	.cfi_offset 29, -12
	.cfi_offset 65, 4
	.cfi_offset 31, -4
	bl _Z16Mem_ClearedAlloci
.LVL15:
	.loc 2 1786 0
	mr. 31,3
	beq- 0,.L11
	.loc 2 1790 0
	lis 29,.LC0@ha
	.loc 2 1794 0
	lis 4,.LC1@ha
	.loc 2 1790 0
	lwz 0,.LC0@l(29)
	.loc 2 1794 0
	mr 3,30
.LVL16:
	la 4,.LC1@l(4)
	.loc 2 1790 0
	stw 0,112(31)
	stw 0,108(31)
	stw 0,104(31)
	.loc 2 1791 0
	stw 0,20(31)
	.loc 2 1792 0
	li 0,1
	sth 0,30(31)
	.loc 2 1794 0
	bl strstr
	cmpwi 7,3,0
	beq- 7,.L12
	.loc 2 1795 0
	lis 0,0x494d
	.loc 2 1796 0
	lis 4,.LC2@ha
	.loc 2 1795 0
	ori 0,0,16720
	.loc 2 1796 0
	mr 3,30
	.loc 2 1795 0
	stw 0,12(31)
	.loc 2 1796 0
	la 4,.LC2@l(4)
	bl strstr
	cmpwi 7,3,0
	beq- 7,.L13
	.loc 2 1796 0 is_stmt 0 discriminator 1
	li 0,0
	stw 0,40(31)
.L14:
	.loc 2 1801 0 is_stmt 1
	lwz 0,.LC0@l(29)
	.loc 2 1803 0
	mr 3,30
	.loc 2 1801 0
	stw 0,76(31)
	.loc 2 1802 0
	stw 0,96(31)
	.loc 2 1803 0
	bl _Z8Mem_FreePv
.L11:
.LBE786:
	.loc 2 1811 0
	lwz 0,28(1)
	mr 3,31
	lwz 29,12(1)
	mtlr 0
	lwz 30,16(1)
.LVL17:
	lwz 31,20(1)
.LVL18:
	addi 1,1,24
	.cfi_remember_state
.LCFI9:
	.cfi_def_cfa_offset 0
	.cfi_restore 31
	.cfi_restore 30
	.cfi_restore 29
	blr
.LVL19:
.L12:
.LCFI10:
	.cfi_restore_state
.LBB787:
	.loc 2 1806 0
	lis 0,0x5052
	.loc 2 1807 0
	stw 30,52(31)
	.loc 2 1806 0
	ori 0,0,20291
.LBE787:
	.loc 2 1811 0
	mr 3,31
.LBB788:
	.loc 2 1806 0
	stw 0,12(31)
.LBE788:
	.loc 2 1811 0
	lwz 0,28(1)
	lwz 29,12(1)
	mtlr 0
	lwz 30,16(1)
.LVL20:
	lwz 31,20(1)
.LVL21:
	addi 1,1,24
	.cfi_remember_state
	.cfi_restore 29
	.cfi_restore 30
	.cfi_restore 31
.LCFI11:
	.cfi_def_cfa_offset 0
	blr
.LVL22:
.L13:
.LCFI12:
	.cfi_restore_state
.LBB789:
	.loc 2 1797 0
	lis 4,.LC3@ha
	mr 3,30
	la 4,.LC3@l(4)
	bl strstr
	cmpwi 7,3,0
	beq- 7,.L15
	.loc 2 1797 0 is_stmt 0 discriminator 1
	li 0,1
	stw 0,40(31)
	b .L14
.L15:
	.loc 2 1798 0 is_stmt 1
	lis 4,.LC4@ha
	mr 3,30
	la 4,.LC4@l(4)
	bl strstr
	cmpwi 7,3,0
	beq- 7,.L16
	.loc 2 1798 0 is_stmt 0 discriminator 1
	li 0,2
	stw 0,40(31)
	b .L14
.L16:
	.loc 2 1799 0 is_stmt 1
	lis 4,.LC5@ha
	mr 3,30
	la 4,.LC5@l(4)
	bl strstr
	cmpwi 7,3,0
	beq- 7,.L17
	.loc 2 1799 0 is_stmt 0 discriminator 1
	li 0,3
	stw 0,40(31)
	b .L14
.L17:
	.loc 2 1800 0 is_stmt 1
	lis 4,.LC6@ha
	mr 3,30
	la 4,.LC6@l(4)
	bl strstr
	cmpwi 7,3,0
	beq- 7,.L14
	.loc 2 1800 0 is_stmt 0 discriminator 1
	li 0,4
	stw 0,40(31)
	b .L14
.LBE789:
	.cfi_endproc
.LFE2584:
	.size	_ZL11get_texturePc, .-_ZL11get_texturePc
	.align 2
	.type	_ZL8add_clipPcPP9st_lwClipPi, @function
_ZL8add_clipPcPP9st_lwClipPi:
.LFB2582:
	.loc 2 1694 0 is_stmt 1
	.cfi_startproc
.LVL23:
	stwu 1,-32(1)
.LCFI13:
	.cfi_def_cfa_offset 32
	mflr 0
	stw 31,28(1)
	mr 31,3
	.cfi_offset 31, -4
	.cfi_register 65, 0
.LBB790:
	.loc 2 1698 0
	li 3,116
.LVL24:
.LBE790:
	.loc 2 1694 0
	stw 27,12(1)
	stw 28,16(1)
	mr 27,5
	.cfi_offset 28, -16
	.cfi_offset 27, -20
	stw 29,20(1)
.LBB795:
	.loc 2 1699 0
	li 28,0
.LBE795:
	.loc 2 1694 0
	stw 30,24(1)
	mr 30,4
	.cfi_offset 30, -8
	.cfi_offset 29, -12
	stw 0,36(1)
.LBB796:
	.loc 2 1698 0
	.cfi_offset 65, 4
	bl _Z16Mem_ClearedAlloci
.LVL25:
	.loc 2 1699 0
	mr. 29,3
	beq- 0,.L19
	.loc 2 1701 0
	lis 9,.LC0@ha
	.loc 2 1706 0
	lis 4,.LC7@ha
	.loc 2 1701 0
	lwz 0,.LC0@l(9)
	.loc 2 1706 0
	mr 3,31
.LVL26:
	la 4,.LC7@l(4)
	.loc 2 1701 0
	stw 0,56(29)
	.loc 2 1702 0
	stw 0,64(29)
	.loc 2 1703 0
	stw 0,72(29)
	.loc 2 1704 0
	stw 0,88(29)
	.loc 2 1706 0
	bl strstr
.LVL27:
	cmpwi 0,3,0
	beq- 0,.L20
	.loc 2 1708 0
	lis 0,0x4953
	.loc 2 1707 0
	stb 28,-1(3)
	.loc 2 1708 0
	ori 0,0,17745
	.loc 2 1709 0
	stw 31,16(29)
	.loc 2 1708 0
	stw 0,12(29)
	.loc 2 1710 0
	li 0,3
	stw 0,24(29)
.LVL28:
	.loc 2 1718 0
	lwz 0,4(27)
	stw 0,8(29)
.LVL29:
.LBB791:
.LBB792:
	.loc 2 929 0
	lwz 9,0(30)
.LVL30:
	.loc 2 930 0
	cmpwi 7,9,0
	bne+ 7,.L27
	b .L28
.LVL31:
.L26:
	.loc 2 936 0
	mr 9,0
.LVL32:
.L27:
	lwz 0,0(9)
.LVL33:
	.loc 2 934 0
	cmpwi 7,0,0
	bne+ 7,.L26
	.loc 2 938 0
	stw 29,0(9)
	.loc 2 939 0
	stw 9,4(29)
.LVL34:
.L23:
.LBE792:
.LBE791:
	.loc 2 1722 0
	lwz 28,8(29)
.LVL35:
.L19:
.LBE796:
	.loc 2 1723 0
	lwz 0,36(1)
	mr 3,28
	lwz 27,12(1)
	mtlr 0
	lwz 28,16(1)
	lwz 29,20(1)
.LVL36:
	lwz 30,24(1)
.LVL37:
	lwz 31,28(1)
.LVL38:
	addi 1,1,32
	.cfi_remember_state
.LCFI14:
	.cfi_def_cfa_offset 0
	.cfi_restore 31
	.cfi_restore 30
	.cfi_restore 29
	.cfi_restore 28
	.cfi_restore 27
	blr
.LVL39:
.L20:
.LCFI15:
	.cfi_restore_state
.LBB797:
	.loc 2 1713 0
	lis 0,0x5354
	.loc 2 1714 0
	stw 31,16(29)
.LVL40:
	.loc 2 1713 0
	ori 0,0,18764
	stw 0,12(29)
	.loc 2 1718 0
	lwz 0,4(27)
	stw 0,8(29)
.LVL41:
.LBB794:
.LBB793:
	.loc 2 929 0
	lwz 9,0(30)
.LVL42:
	.loc 2 930 0
	cmpwi 7,9,0
	bne+ 7,.L27
.LVL43:
.L28:
	.loc 2 931 0
	stw 29,0(30)
	b .L23
.LBE793:
.LBE794:
.LBE797:
	.cfi_endproc
.LFE2582:
	.size	_ZL8add_clipPcPP9st_lwClipPi, .-_ZL8add_clipPcPP9st_lwClipPi
	.align 2
	.type	_ZL5rangefffPi, @function
_ZL5rangefffPi:
.LFB2546:
	.loc 2 508 0
	.cfi_startproc
.LVL44:
	stwu 1,-48(1)
.LCFI16:
	.cfi_def_cfa_offset 48
.LBB798:
	.loc 2 511 0
	lis 9,.LC12@ha
	lfs 0,.LC12@l(9)
.LBE798:
	.loc 2 508 0
	mflr 0
	stfd 30,32(1)
.LBB799:
	.loc 2 509 0
	fsubs 30,3,2
	.cfi_offset 62, -16
	.cfi_register 65, 0
.LVL45:
.LBE799:
	.loc 2 508 0
	stfd 31,40(1)
	fmr 31,1
	.cfi_offset 63, -8
	stw 0,52(1)
.LBB800:
	.loc 2 511 0
	fcmpu 7,30,0
	bne- 7,.L30
	.cfi_offset 65, 4
	.loc 2 512 0
	cmpwi 7,3,0
	beq- 7,.L31
	.loc 2 512 0 is_stmt 0 discriminator 1
	li 0,0
	stw 0,0(3)
.LVL46:
.L31:
.LBE800:
	.loc 2 520 0 is_stmt 1
	lwz 0,52(1)
	fmr 1,2
	lfd 30,32(1)
.LVL47:
	mtlr 0
	lfd 31,40(1)
.LVL48:
	addi 1,1,48
	.cfi_remember_state
.LCFI17:
	.cfi_def_cfa_offset 0
	.cfi_restore 63
	.cfi_restore 62
	blr
.LVL49:
.L30:
.LCFI18:
	.cfi_restore_state
.LBB801:
	.loc 2 516 0
	fmr 0,30
	stw 3,24(1)
	stfd 2,16(1)
	fdiv 1,1,0
.LVL50:
	bl floor
.LVL51:
	lfd 2,16(1)
	frsp 0,1
	.loc 2 517 0
	lwz 3,24(1)
.LVL52:
	.loc 2 516 0
	fadds 2,2,31
	.loc 2 517 0
	cmpwi 7,3,0
	.loc 2 507 0
	fneg 0,0
	.loc 2 516 0
	fmadds 0,0,30,2
.LVL53:
	.loc 2 519 0
	fmr 2,0
	.loc 2 517 0
	beq- 7,.L31
	.loc 2 517 0 is_stmt 0 discriminator 1
	fcmpu 7,0,31
	fsubs 13,0,31
	fdivs 30,13,30
.LVL54:
	bng- 7,.L37
	.loc 2 517 0
	lis 9,.LC9@ha
	lfs 13,.LC9@l(9)
.L32:
	.loc 2 517 0 discriminator 3
	fadd 30,30,13
	addi 9,1,8
	.loc 2 519 0 is_stmt 1 discriminator 3
	fmr 2,0
	.loc 2 517 0 discriminator 3
	fctiwz 30,30
.LBE801:
	.loc 2 520 0 discriminator 3
	fmr 1,2
.LBB802:
	.loc 2 517 0 discriminator 3
	stfiwx 30,0,9
	lwz 0,8(1)
	neg 0,0
	stw 0,0(3)
.LBE802:
	.loc 2 520 0 discriminator 3
	lwz 0,52(1)
	lfd 30,32(1)
	mtlr 0
	lfd 31,40(1)
.LVL55:
	addi 1,1,48
	.cfi_remember_state
	.cfi_restore 62
	.cfi_restore 63
.LCFI19:
	.cfi_def_cfa_offset 0
	blr
.LVL56:
.L37:
.LCFI20:
	.cfi_restore_state
.LBB803:
	.loc 2 517 0
	lis 9,.LC11@ha
	lfs 13,.LC11@l(9)
	b .L32
.LBE803:
	.cfi_endproc
.LFE2546:
	.size	_ZL5rangefffPi, .-_ZL5rangefffPi
	.align 2
	.type	_ZL12compare_keysP8st_lwKeyS0_, @function
_ZL12compare_keysP8st_lwKeyS0_:
.LFB2543:
	.loc 2 326 0
	.cfi_startproc
.LVL57:
	.loc 2 327 0
	lfs 13,12(3)
	li 3,1
.LVL58:
	lfs 0,12(4)
	fcmpu 7,13,0
	bgtlr- 7
.LBB806:
.LBB807:
	bnl- 7,.L45
	li 3,-1
	blr
.L45:
	li 3,0
.LBE807:
.LBE806:
	.loc 2 328 0
	blr
	.cfi_endproc
.LFE2543:
	.size	_ZL12compare_keysP8st_lwKeyS0_, .-_ZL12compare_keysP8st_lwKeyS0_
	.align 2
	.type	_ZL8outgoingP8st_lwKeyS0_.isra.1, @function
_ZL8outgoingP8st_lwKeyS0_.isra.1:
.LFB2855:
	.loc 2 632 0
	.cfi_startproc
.LVL59:
.LBB808:
	.loc 2 636 0
	lwz 0,16(3)
	lis 9,0x4845
	ori 9,9,21069
.LBE808:
	.loc 2 632 0
	stwu 1,-16(1)
.LCFI21:
	.cfi_def_cfa_offset 16
.LBB811:
	.loc 2 636 0
	cmpw 7,0,9
	beq- 7,.L49
	cmplw 7,0,9
	ble- 7,.L59
	xoris 9,0,0x4c49
	cmpwi 7,9,20037
	beq 7,.L50
	xoris 9,0,0x5443
	cmpwi 7,9,16928
	beq 7,.L60
.L56:
	.loc 2 682 0
	lis 9,.LC12@ha
	lfs 1,.LC12@l(9)
.L47:
.LVL60:
.LBE811:
	.loc 2 687 0
	addi 1,1,16
	.cfi_remember_state
.LCFI22:
	.cfi_def_cfa_offset 0
	blr
.LVL61:
.L59:
.LCFI23:
	.cfi_restore_state
.LBB812:
	.loc 2 636 0
	xoris 9,0,0x4245
	cmpwi 7,9,23090
	beq 7,.L48
	xoris 9,0,0x4245
	cmpwi 7,9,23113
	bne 7,.L56
.L49:
	.loc 2 668 0
	lwz 9,4(3)
	.loc 2 667 0
	lfs 1,36(3)
.LVL62:
	.loc 2 668 0
	cmpwi 7,9,0
	beq- 7,.L47
	.loc 2 669 0
	lfs 0,0(5)
	lfs 12,12(9)
.LBE812:
	.loc 2 687 0
.LBB813:
	.loc 2 669 0
	lfs 13,12(3)
.LBE813:
	.loc 2 687 0
	addi 1,1,16
	.cfi_remember_state
.LCFI24:
	.cfi_def_cfa_offset 0
.LBB814:
	.loc 2 669 0
	fsubs 13,0,13
	fsubs 0,0,12
	fdivs 0,13,0
	fmuls 1,1,0
.LVL63:
.LBE814:
	.loc 2 687 0
	blr
.LVL64:
.L60:
.LCFI25:
	.cfi_restore_state
.LBB815:
	.loc 2 641 0
	lis 9,.LC0@ha
	lfs 12,20(3)
	lfs 0,.LC0@l(9)
	lfs 10,24(3)
	fsubs 12,0,12
	.loc 2 647 0
	lwz 9,4(3)
	.loc 2 644 0
	fsubs 7,0,10
	.loc 2 641 0
	lfs 11,28(3)
.LVL65:
	.loc 2 647 0
	cmpwi 7,9,0
	.loc 2 645 0
	lfs 13,8(3)
	.loc 2 644 0
	fsubs 9,0,11
	.loc 2 645 0
	lfs 8,0(4)
	.loc 2 644 0
	fmuls 7,12,7
	.loc 2 645 0
	fsubs 8,8,13
	.loc 2 644 0
	fmuls 7,7,9
.LVL66:
	.loc 2 647 0
	beq- 7,.L53
	.loc 2 648 0
	lfs 9,0(5)
.LVL67:
	.loc 2 641 0
	fadds 10,10,0
	.loc 2 648 0
	lfs 6,12(9)
	.loc 2 641 0
	fadds 11,11,0
	.loc 2 648 0
	lfs 1,12(3)
	.loc 2 649 0
	fmuls 8,7,8
.LVL68:
	.loc 2 641 0
	fmuls 0,12,10
	.loc 2 648 0
	fsubs 1,9,1
	fsubs 9,9,6
	.loc 2 641 0
	fmuls 0,0,11
	.loc 2 648 0
	fdivs 9,1,9
	.loc 2 649 0
	lfs 1,8(9)
.LBE815:
	.loc 2 687 0
	addi 1,1,16
	.cfi_remember_state
.LCFI26:
	.cfi_def_cfa_offset 0
.LBB816:
	.loc 2 649 0
	fsubs 13,13,1
	fmadds 13,0,13,8
	fmuls 1,9,13
.LVL69:
.LBE816:
	.loc 2 687 0
	blr
.LVL70:
.L48:
.LCFI27:
	.cfi_restore_state
.LBB817:
	.loc 2 674 0
	lwz 0,40(3)
	lis 11,.LC13@ha
	lfs 13,.LC13@l(11)
.LBB809:
.LBB810:
	.file 3 "d:/Data/Nintendo/DoomGX/src/renderer/../idlib/../idlib/math/Math.h"
	.loc 3 781 0
	rlwinm 9,0,0,1,31
.LBE810:
.LBE809:
	.loc 2 673 0
	lfs 0,12(3)
	.loc 2 674 0
	stw 9,8(1)
	.loc 2 673 0
	lfs 1,0(5)
	.loc 2 674 0
	lfs 12,8(1)
	.loc 2 673 0
	fsubs 1,1,0
	lfs 0,44(3)
	.loc 2 674 0
	fcmpu 7,12,13
	.loc 2 673 0
	fmuls 1,1,0
.LVL71:
	.loc 2 674 0
	bgt- 7,.L61
	.loc 2 677 0
	lis 9,.LC14@ha
.LBE817:
	.loc 2 687 0
.LBB818:
	.loc 2 677 0
	lfs 0,.LC14@l(9)
.LBE818:
	.loc 2 687 0
	addi 1,1,16
	.cfi_remember_state
.LCFI28:
	.cfi_def_cfa_offset 0
.LBB819:
	.loc 2 677 0
	fmuls 1,1,0
.LVL72:
.LBE819:
	.loc 2 687 0
	blr
.LVL73:
.L50:
.LCFI29:
	.cfi_restore_state
.LBB820:
	.loc 2 657 0
	lwz 9,4(3)
	.loc 2 656 0
	lfs 0,8(3)
	.loc 2 657 0
	cmpwi 7,9,0
	.loc 2 656 0
	lfs 1,0(4)
	fsubs 1,1,0
.LVL74:
	.loc 2 657 0
	beq- 7,.L47
	.loc 2 658 0
	lfs 12,12(9)
	lfs 13,0(5)
.LVL75:
	lfs 11,12(3)
	fsubs 11,13,11
	fsubs 13,13,12
	.loc 2 659 0
	lfs 12,8(9)
.LBE820:
	.loc 2 687 0
	addi 1,1,16
	.cfi_remember_state
.LCFI30:
	.cfi_def_cfa_offset 0
.LBB821:
	.loc 2 659 0
	fsubs 0,0,12
	.loc 2 658 0
	fdivs 13,11,13
	.loc 2 659 0
	fadds 1,1,0
.LVL76:
	fmuls 1,13,1
.LVL77:
.LBE821:
	.loc 2 687 0
	blr
.LVL78:
.L61:
.LCFI31:
	.cfi_restore_state
.LBB822:
	.loc 2 675 0
	stw 0,8(1)
	lfs 0,8(1)
	fdivs 1,1,0
.LVL79:
	b .L47
.LVL80:
.L53:
	.loc 2 652 0
	fmuls 1,7,8
.LVL81:
	b .L47
.LBE822:
	.cfi_endproc
.LFE2855:
	.size	_ZL8outgoingP8st_lwKeyS0_.isra.1, .-_ZL8outgoingP8st_lwKeyS0_.isra.1
	.align 2
	.type	_ZL8incomingP8st_lwKeyS0_.isra.2, @function
_ZL8incomingP8st_lwKeyS0_.isra.2:
.LFB2856:
	.loc 2 698 0
	.cfi_startproc
.LVL82:
.LBB823:
	.loc 2 702 0
	lwz 0,16(5)
	lis 9,0x4845
	ori 9,9,21069
.LBE823:
	.loc 2 698 0
	stwu 1,-16(1)
.LCFI32:
	.cfi_def_cfa_offset 16
.LBB826:
	.loc 2 702 0
	cmpw 7,0,9
	beq- 7,.L65
	cmplw 7,0,9
	ble- 7,.L75
	xoris 9,0,0x4c49
	cmpwi 7,9,20037
	beq 7,.L66
	xoris 9,0,0x5443
	cmpwi 7,9,16928
	beq 7,.L76
.L72:
	.loc 2 749 0
	lis 9,.LC12@ha
	lfs 1,.LC12@l(9)
.L63:
.LVL83:
.LBE826:
	.loc 2 754 0
	addi 1,1,16
	.cfi_remember_state
.LCFI33:
	.cfi_def_cfa_offset 0
	blr
.LVL84:
.L75:
.LCFI34:
	.cfi_restore_state
.LBB827:
	.loc 2 702 0
	xoris 9,0,0x4245
	cmpwi 7,9,23090
	beq 7,.L64
	xoris 9,0,0x4245
	cmpwi 7,9,23113
	bne 7,.L72
.L65:
	.loc 2 734 0
	lwz 9,0(5)
	.loc 2 733 0
	lfs 1,32(5)
.LVL85:
	.loc 2 734 0
	cmpwi 7,9,0
	beq- 7,.L63
	.loc 2 735 0
	lfs 0,0(4)
	lfs 12,12(9)
.LBE827:
	.loc 2 754 0
.LBB828:
	.loc 2 735 0
	lfs 13,12(5)
.LBE828:
	.loc 2 754 0
	addi 1,1,16
	.cfi_remember_state
.LCFI35:
	.cfi_def_cfa_offset 0
.LBB829:
	.loc 2 735 0
	fsubs 13,13,0
	fsubs 0,12,0
	fdivs 0,13,0
	fmuls 1,1,0
.LVL86:
.LBE829:
	.loc 2 754 0
	blr
.LVL87:
.L76:
.LCFI36:
	.cfi_restore_state
.LBB830:
	.loc 2 717 0
	lis 9,.LC0@ha
	lfs 12,20(5)
	lfs 0,.LC0@l(9)
	lfs 10,24(5)
	fsubs 12,0,12
	.loc 2 723 0
	lwz 9,0(5)
	.loc 2 717 0
	fsubs 7,0,10
	lfs 11,28(5)
	.loc 2 723 0
	cmpwi 7,9,0
	.loc 2 721 0
	lfs 13,8(5)
	.loc 2 717 0
	fadds 9,11,0
	.loc 2 721 0
	lfs 8,0(3)
	.loc 2 717 0
	fmuls 7,12,7
	.loc 2 721 0
	fsubs 8,13,8
	.loc 2 717 0
	fmuls 7,7,9
.LVL88:
	.loc 2 723 0
	beq- 7,.L69
	.loc 2 724 0
	lfs 9,0(4)
.LVL89:
	.loc 2 720 0
	fadds 10,10,0
	.loc 2 724 0
	lfs 6,12(9)
	.loc 2 720 0
	fsubs 11,0,11
	.loc 2 724 0
	lfs 1,12(5)
	.loc 2 725 0
	fmuls 8,7,8
.LVL90:
	.loc 2 720 0
	fmuls 0,12,10
	.loc 2 724 0
	fsubs 1,1,9
	fsubs 9,6,9
	.loc 2 720 0
	fmuls 0,0,11
	.loc 2 724 0
	fdivs 9,1,9
	.loc 2 725 0
	lfs 1,8(9)
.LBE830:
	.loc 2 754 0
	addi 1,1,16
	.cfi_remember_state
.LCFI37:
	.cfi_def_cfa_offset 0
.LBB831:
	.loc 2 725 0
	fsubs 13,1,13
	fmadds 13,0,13,8
	fmuls 1,9,13
.LVL91:
.LBE831:
	.loc 2 754 0
	blr
.LVL92:
.L64:
.LCFI38:
	.cfi_restore_state
.LBB832:
	.loc 2 741 0
	lwz 0,32(5)
	lis 11,.LC13@ha
	lfs 13,.LC13@l(11)
.LBB824:
.LBB825:
	.loc 3 781 0
	rlwinm 9,0,0,1,31
.LBE825:
.LBE824:
	.loc 2 740 0
	lfs 0,0(4)
	.loc 2 741 0
	stw 9,8(1)
	.loc 2 740 0
	lfs 1,12(5)
	.loc 2 741 0
	lfs 12,8(1)
	.loc 2 740 0
	fsubs 1,1,0
	lfs 0,36(5)
	.loc 2 741 0
	fcmpu 7,12,13
	.loc 2 740 0
	fmuls 1,1,0
.LVL93:
	.loc 2 741 0
	bgt- 7,.L77
	.loc 2 744 0
	lis 9,.LC14@ha
.LBE832:
	.loc 2 754 0
.LBB833:
	.loc 2 744 0
	lfs 0,.LC14@l(9)
.LBE833:
	.loc 2 754 0
	addi 1,1,16
	.cfi_remember_state
.LCFI39:
	.cfi_def_cfa_offset 0
.LBB834:
	.loc 2 744 0
	fmuls 1,1,0
.LVL94:
.LBE834:
	.loc 2 754 0
	blr
.LVL95:
.L66:
.LCFI40:
	.cfi_restore_state
.LBB835:
	.loc 2 706 0
	lwz 9,0(5)
	.loc 2 705 0
	lfs 0,8(5)
	.loc 2 706 0
	cmpwi 7,9,0
	.loc 2 705 0
	lfs 1,0(3)
	fsubs 1,0,1
.LVL96:
	.loc 2 706 0
	beq- 7,.L63
	.loc 2 707 0
	lfs 12,12(9)
	lfs 13,0(4)
.LVL97:
	lfs 11,12(5)
	fsubs 11,11,13
	fsubs 13,12,13
	.loc 2 708 0
	lfs 12,8(9)
.LBE835:
	.loc 2 754 0
	addi 1,1,16
	.cfi_remember_state
.LCFI41:
	.cfi_def_cfa_offset 0
.LBB836:
	.loc 2 708 0
	fsubs 0,12,0
	.loc 2 707 0
	fdivs 13,11,13
	.loc 2 708 0
	fadds 1,1,0
.LVL98:
	fmuls 1,13,1
.LVL99:
.LBE836:
	.loc 2 754 0
	blr
.LVL100:
.L77:
.LCFI42:
	.cfi_restore_state
.LBB837:
	.loc 2 742 0
	stw 0,8(1)
	lfs 0,8(1)
	fdivs 1,1,0
.LVL101:
	b .L63
.LVL102:
.L69:
	.loc 2 728 0
	fmuls 1,7,8
.LVL103:
	b .L63
.LBE837:
	.cfi_endproc
.LFE2856:
	.size	_ZL8incomingP8st_lwKeyS0_.isra.2, .-_ZL8incomingP8st_lwKeyS0_.isra.2
	.section	.text._ZN14idFixedWindingD2Ev,"axG",@progbits,_ZN14idFixedWindingD5Ev,comdat
	.align 2
	.weak	_ZN14idFixedWindingD2Ev
	.type	_ZN14idFixedWindingD2Ev, @function
_ZN14idFixedWindingD2Ev:
.LFB1498:
	.loc 1 380 0
	.cfi_startproc
.LVL104:
.LBB843:
	.loc 1 381 0
	li 0,0
.LBB844:
.LBB845:
.LBB846:
	.loc 1 183 0
	lis 9,_ZTV9idWinding+8@ha
.LBE846:
.LBE845:
.LBE844:
	.loc 1 381 0
	stw 0,8(3)
.LVL105:
.LBB849:
.LBB848:
.LBB847:
	.loc 1 183 0
	la 0,_ZTV9idWinding+8@l(9)
	stw 0,0(3)
.LBE847:
.LBE848:
.LBE849:
.LBE843:
	.loc 1 382 0
	blr
	.cfi_endproc
.LFE1498:
	.size	_ZN14idFixedWindingD2Ev, .-_ZN14idFixedWindingD2Ev
	.section	.text._ZN9idWindingD0Ev,"axG",@progbits,_ZN9idWindingD5Ev,comdat
	.align 2
	.weak	_ZN9idWindingD0Ev
	.type	_ZN9idWindingD0Ev, @function
_ZN9idWindingD0Ev:
.LFB1463:
	.loc 1 183 0
	.cfi_startproc
.LVL106:
	mflr 0
	stwu 1,-16(1)
.LCFI43:
	.cfi_def_cfa_offset 16
	.cfi_register 65, 0
.LBB853:
.LBB854:
.LBB855:
	lis 9,_ZTV9idWinding+8@ha
.LBE855:
.LBE854:
.LBE853:
	stw 31,12(1)
	mr 31,3
	.cfi_offset 31, -4
.LVL107:
	stw 0,20(1)
.LBB860:
.LBB858:
.LBB856:
	.loc 1 183 0
	la 0,_ZTV9idWinding+8@l(9)
	.cfi_offset 65, 4
	.loc 1 184 0
	lwz 3,8(3)
.LVL108:
	.loc 1 183 0
	stw 0,0(31)
	.loc 1 184 0
	cmpwi 7,3,0
	beq- 7,.L82
	bl _ZdaPv
.LVL109:
.L82:
	.loc 1 185 0
	li 0,0
.LBE856:
.LBE858:
.LBE860:
	.loc 1 186 0
	mr 3,31
.LBB861:
.LBB859:
.LBB857:
	.loc 1 185 0
	stw 0,8(31)
.LBE857:
.LBE859:
.LBE861:
	.loc 1 186 0
	bl _ZdlPv
	lwz 0,20(1)
	lwz 31,12(1)
.LVL110:
	mtlr 0
	addi 1,1,16
.LCFI44:
	.cfi_def_cfa_offset 0
	.cfi_restore 31
	blr
	.cfi_endproc
.LFE1463:
	.size	_ZN9idWindingD0Ev, .-_ZN9idWindingD0Ev
	.section	.text._ZN14idFixedWindingD0Ev,"axG",@progbits,_ZN14idFixedWindingD5Ev,comdat
	.align 2
	.weak	_ZN14idFixedWindingD0Ev
	.type	_ZN14idFixedWindingD0Ev, @function
_ZN14idFixedWindingD0Ev:
.LFB1500:
	.loc 1 380 0
	.cfi_startproc
.LVL111:
	mflr 0
	stwu 1,-8(1)
.LCFI45:
	.cfi_def_cfa_offset 8
	.cfi_register 65, 0
.LBB868:
.LBB869:
.LBB870:
.LBB871:
.LBB872:
.LBB873:
	.loc 1 183 0
	lis 11,_ZTV9idWinding+8@ha
.LBE873:
.LBE872:
.LBE871:
.LBE870:
.LBE869:
.LBE868:
	.loc 1 380 0
	stw 0,12(1)
.LBB879:
.LBB878:
.LBB877:
	.loc 1 381 0
	li 0,0
	.cfi_offset 65, 4
	stw 0,8(3)
.LVL112:
.LBB876:
.LBB875:
.LBB874:
	.loc 1 183 0
	la 0,_ZTV9idWinding+8@l(11)
	stw 0,0(3)
.LBE874:
.LBE875:
.LBE876:
.LBE877:
.LBE878:
.LBE879:
	.loc 1 382 0
	bl _ZdlPv
.LVL113:
	lwz 0,12(1)
	addi 1,1,8
.LCFI46:
	.cfi_def_cfa_offset 0
	mtlr 0
	blr
	.cfi_endproc
.LFE1500:
	.size	_ZN14idFixedWindingD0Ev, .-_ZN14idFixedWindingD0Ev
	.section	".text"
	.align 2
	.globl _Z10lwFindClipP9st_lwClipi
	.type	_Z10lwFindClipP9st_lwClipi, @function
_Z10lwFindClipP9st_lwClipi:
.LFB2540:
	.loc 2 291 0
	.cfi_startproc
.LVL114:
.LBB880:
	.loc 2 295 0
	mr. 9,3
	li 3,0
.LVL115:
	beqlr- 0
	.loc 2 296 0
	lwz 0,8(9)
	mr 3,9
	cmpw 7,0,4
	bne+ 7,.L92
	blr
.LVL116:
.L93:
	lwz 0,8(3)
	cmpw 7,0,4
	beqlr- 7
.L92:
	.loc 2 297 0
	lwz 3,0(3)
.LVL117:
	.loc 2 295 0
	cmpwi 7,3,0
	bne+ 7,.L93
.LBE880:
	.loc 2 300 0
	blr
	.cfi_endproc
.LFE2540:
	.size	_Z10lwFindClipP9st_lwClipi, .-_Z10lwFindClipP9st_lwClipi
	.align 2
	.globl _Z6lwFreePv
	.type	_Z6lwFreePv, @function
_Z6lwFreePv:
.LFB2541:
	.loc 2 310 0
	.cfi_startproc
.LVL118:
	mflr 0
	stwu 1,-8(1)
.LCFI47:
	.cfi_def_cfa_offset 8
	.cfi_register 65, 0
	stw 0,12(1)
	.loc 2 311 0
	.cfi_offset 65, 4
	bl _Z8Mem_FreePv
.LVL119:
	.loc 2 312 0
	lwz 0,12(1)
	addi 1,1,8
.LCFI48:
	.cfi_def_cfa_offset 0
	mtlr 0
	blr
	.cfi_endproc
.LFE2541:
	.size	_Z6lwFreePv, .-_Z6lwFreePv
	.align 2
	.globl _Z14lwFindEnvelopeP13st_lwEnvelopei
	.type	_Z14lwFindEnvelopeP13st_lwEnvelopei, @function
_Z14lwFindEnvelopeP13st_lwEnvelopei:
.LFB2545:
	.loc 2 482 0
	.cfi_startproc
.LVL120:
.LBB881:
	.loc 2 486 0
	mr. 9,3
	li 3,0
.LVL121:
	beqlr- 0
	.loc 2 487 0
	lwz 0,8(9)
	mr 3,9
	cmpw 7,0,4
	bne+ 7,.L100
	blr
.LVL122:
.L101:
	lwz 0,8(3)
	cmpw 7,0,4
	beqlr- 7
.L100:
	.loc 2 488 0
	lwz 3,0(3)
.LVL123:
	.loc 2 486 0
	cmpwi 7,3,0
	bne+ 7,.L101
.LBE881:
	.loc 2 491 0
	blr
	.cfi_endproc
.LFE2545:
	.size	_Z14lwFindEnvelopeP13st_lwEnvelopei, .-_Z14lwFindEnvelopeP13st_lwEnvelopei
	.align 2
	.globl _Z12evalEnvelopeP13st_lwEnvelopef
	.type	_Z12evalEnvelopeP13st_lwEnvelopef, @function
_Z12evalEnvelopeP13st_lwEnvelopef:
.LFB2553:
	.loc 2 766 0
	.cfi_startproc
.LVL124:
	mflr 0
	stwu 1,-96(1)
.LCFI49:
	.cfi_def_cfa_offset 96
	.cfi_register 65, 0
.LBB896:
	.loc 2 774 0
	lis 9,.LC12@ha
.LBE896:
	.loc 2 766 0
	stfd 30,80(1)
	stfd 31,88(1)
	fmr 31,1
	.cfi_offset 63, -8
	.cfi_offset 62, -16
	stw 29,60(1)
	mr 29,3
	.cfi_offset 29, -36
	stw 0,100(1)
	stfd 29,72(1)
	stw 30,64(1)
	stw 31,68(1)
.LBB935:
	.loc 2 774 0
	lfs 30,.LC12@l(9)
	lwz 0,24(3)
	.cfi_offset 31, -28
	.cfi_offset 30, -32
	.cfi_offset 61, -24
	.cfi_offset 65, 4
	cmpwi 7,0,0
	beq- 7,.L105
	.loc 2 778 0
	cmpwi 7,0,1
	beq- 7,.L164
	.loc 2 783 0
	lwz 30,20(3)
.LVL125:
	mr 31,30
	.loc 2 784 0
	b .L107
.LVL126:
.L143:
	mr 31,0
.LVL127:
.L107:
	.loc 2 784 0 is_stmt 0 discriminator 1
	lwz 0,0(31)
	cmpwi 7,0,0
	bne+ 7,.L143
	.loc 2 788 0 is_stmt 1
	lfs 2,12(30)
	fcmpu 7,2,31
	bng- 7,.L154
	.loc 2 789 0
	lwz 0,28(29)
	.loc 2 768 0
	lis 10,.LC12@ha
	lfs 30,.LC12@l(10)
	.loc 2 789 0
	cmplwi 7,0,5
	bgt- 7,.L126
	lis 9,.L116@ha
	slwi 0,0,2
	la 9,.L116@l(9)
	lwzx 0,9,0
	add 9,0,9
	mtctr 9
	bctr
	.section	.rodata
	.align 2
	.align 2
.L116:
	.long .L145-.L116
	.long .L111-.L116
	.long .L112-.L116
	.long .L113-.L116
	.long .L114-.L116
	.long .L115-.L116
	.section	".text"
.LVL128:
.L149:
	.loc 2 855 0
	mr 30,31
.LVL129:
.L126:
	.loc 2 855 0 is_stmt 0 discriminator 1
	lwz 31,0(30)
	lfs 0,12(31)
	fcmpu 7,0,31
	blt+ 7,.L149
.LVL130:
	.loc 2 861 0 is_stmt 1
	lfs 11,12(30)
	fcmpu 7,11,31
	beq- 7,.L132
	.loc 2 863 0
	fcmpu 7,31,0
	beq- 7,.L165
	.loc 2 872 0
	lwz 0,16(31)
.LVL131:
	lis 9,0x4845
	ori 9,9,21069
	.loc 2 868 0
	fsubs 13,0,11
	.loc 2 872 0
	cmpw 7,0,9
	.loc 2 868 0
	fsubs 29,31,11
	fdivs 29,29,13
.LVL132:
	.loc 2 872 0
	beq- 7,.L130
	cmplw 7,0,9
	ble- 7,.L166
	xoris 9,0,0x5354
	cmpwi 7,9,17744
	beq 7,.L132
	xoris 9,0,0x5443
	cmpwi 7,9,16928
	beq 7,.L130
	xoris 9,0,0x4c49
	cmpwi 7,9,20037
	bne 7,.L105
	.loc 2 886 0
	lfs 0,8(30)
	lfs 13,8(31)
	fsubs 13,13,0
	fmadds 0,13,29,0
	fadds 30,30,0
.LVL133:
.L105:
.LBE935:
	.loc 2 894 0
	lwz 0,100(1)
	fmr 1,30
	lwz 29,60(1)
.LVL134:
	mtlr 0
	lwz 30,64(1)
	lwz 31,68(1)
	lfd 29,72(1)
	lfd 30,80(1)
	lfd 31,88(1)
	addi 1,1,96
	.cfi_remember_state
.LCFI50:
	.cfi_def_cfa_offset 0
	.cfi_restore 63
	.cfi_restore 62
	.cfi_restore 61
	.cfi_restore 31
	.cfi_restore 30
	.cfi_restore 29
	blr
.LVL135:
.L154:
.LCFI51:
	.cfi_restore_state
.LBB936:
	.loc 2 821 0
	lfs 3,12(31)
	fcmpu 7,3,31
	bnl- 7,.L159
	.loc 2 822 0
	lwz 0,32(29)
	.loc 2 768 0
	lis 9,.LC12@ha
	lfs 30,.LC12@l(9)
	.loc 2 822 0
	cmplwi 7,0,5
	bgt- 7,.L126
	lis 9,.L124@ha
	slwi 0,0,2
	la 9,.L124@l(9)
	lwzx 0,9,0
	add 9,0,9
	mtctr 9
	bctr
	.section	.rodata
	.align 2
	.align 2
.L124:
	.long .L148-.L124
	.long .L119-.L124
	.long .L120-.L124
	.long .L121-.L124
	.long .L122-.L124
	.long .L123-.L124
	.section	".text"
.L112:
	.loc 2 798 0
	fmr 1,31
.LVL136:
	lfs 3,12(31)
.L158:
	.loc 2 831 0
	li 3,0
.LVL137:
	bl _ZL5rangefffPi
	lwz 30,20(29)
.LVL138:
	fmr 31,1
.LVL139:
.L159:
	.loc 2 768 0
	lis 9,.LC12@ha
	lfs 30,.LC12@l(9)
	.loc 2 832 0
	b .L126
.LVL140:
.L164:
.LBE936:
	.loc 2 894 0
	lwz 0,100(1)
.LBB937:
	.loc 2 779 0
	lwz 9,20(3)
.LBE937:
	.loc 2 894 0
	mtlr 0
	lwz 29,60(1)
.LVL141:
.LBB938:
	.loc 2 779 0
	lfs 30,8(9)
.LBE938:
	.loc 2 894 0
	lwz 30,64(1)
	fmr 1,30
.LVL142:
	lwz 31,68(1)
	lfd 29,72(1)
	lfd 30,80(1)
	lfd 31,88(1)
.LVL143:
	addi 1,1,96
	.cfi_remember_state
	.cfi_restore 29
	.cfi_restore 30
	.cfi_restore 31
	.cfi_restore 61
	.cfi_restore 62
	.cfi_restore 63
.LCFI52:
	.cfi_def_cfa_offset 0
	blr
.LVL144:
.L165:
.LCFI53:
	.cfi_restore_state
.LBB939:
	.loc 2 864 0
	lfs 0,8(31)
	fadds 30,30,0
	b .L105
.L132:
.LBE939:
	.loc 2 894 0
	lwz 0,100(1)
.LVL145:
.LBB940:
	.loc 2 889 0
	lfs 0,8(30)
.LBE940:
	.loc 2 894 0
	mtlr 0
	lwz 29,60(1)
.LVL146:
.LBB941:
	.loc 2 889 0
	fadds 30,30,0
.LBE941:
	.loc 2 894 0
	lwz 30,64(1)
.LVL147:
	lwz 31,68(1)
.LVL148:
	lfd 29,72(1)
	fmr 1,30
	lfd 31,88(1)
.LVL149:
	lfd 30,80(1)
	addi 1,1,96
	.cfi_remember_state
	.cfi_restore 29
	.cfi_restore 30
	.cfi_restore 31
	.cfi_restore 61
	.cfi_restore 62
	.cfi_restore 63
.LCFI54:
	.cfi_def_cfa_offset 0
	blr
.LVL150:
.L166:
.LCFI55:
	.cfi_restore_state
.LBB942:
	.loc 2 872 0
	xoris 9,0,0x4245
	cmpwi 7,9,23090
	beq 7,.L129
	xoris 9,0,0x4245
	cmpwi 7,9,23113
	bne 7,.L105
.L130:
	.loc 2 877 0
	mr 3,30
	addi 4,31,8
	addi 5,31,12
	bl _ZL8outgoingP8st_lwKeyS0_.isra.1
	.loc 2 878 0
	addi 3,30,8
	addi 4,30,12
	mr 5,31
	.loc 2 877 0
	fmr 31,1
.LVL151:
	.loc 2 878 0
	bl _ZL8incomingP8st_lwKeyS0_.isra.2
.LVL152:
.LBB897:
.LBB898:
	.loc 2 534 0
	fmuls 0,29,29
.LVL153:
	.loc 2 537 0
	lis 9,.LC17@ha
	lfs 10,.LC17@l(9)
	.loc 2 765 0
	fneg 12,29
	.loc 2 538 0
	lis 9,.LC0@ha
.LBE898:
.LBE897:
	.loc 2 880 0
	lfs 11,8(31)
.LBB902:
.LBB899:
	.loc 2 537 0
	fmuls 10,0,10
	.loc 2 538 0
	lfs 9,.LC0@l(9)
	.loc 2 539 0
	fmsubs 13,29,0,0
	.loc 2 537 0
	fmadds 10,12,0,10
	fmadds 12,12,0,10
.LVL154:
.LBE899:
.LBE902:
	.loc 2 880 0
	lfs 10,8(30)
.LBB903:
.LBB900:
	.loc 2 540 0
	fsubs 0,13,0
.LVL155:
.LBE900:
.LBE903:
	.loc 2 880 0
	fmuls 11,12,11
.LBB904:
.LBB901:
	.loc 2 538 0
	fsubs 12,9,12
.LVL156:
	.loc 2 540 0
	fadds 29,29,0
.LVL157:
.LBE901:
.LBE904:
	.loc 2 880 0
	fmadds 12,10,12,11
.LVL158:
	fmadds 0,31,29,12
	fmadds 0,1,13,0
	fadds 30,30,0
	b .L105
.LVL159:
.L114:
	.loc 2 808 0
	fmr 1,31
.LVL160:
	lfs 3,12(31)
	addi 3,1,8
	bl _ZL5rangefffPi
.LVL161:
	.loc 2 809 0
	lwz 0,8(1)
	.loc 2 808 0
	fmr 31,1
.LVL162:
	.loc 2 809 0
	xoris 0,0,0x8000
	stw 0,28(1)
	lis 0,0x4330
	stw 0,24(1)
	lfs 0,8(30)
	lfd 30,24(1)
.L161:
	.loc 2 842 0
	lis 9,.LC16@ha
	lwz 30,20(29)
.LVL163:
	lfs 13,.LC16@l(9)
	fsub 30,30,13
	lfs 13,8(31)
	fsubs 0,13,0
	frsp 30,30
	fmuls 30,30,0
.LVL164:
	.loc 2 843 0
	b .L126
.LVL165:
.L113:
	.loc 2 802 0
	fmr 1,31
.LVL166:
	lfs 3,12(31)
.L163:
	.loc 2 835 0
	addi 3,1,8
	bl _ZL5rangefffPi
.LVL167:
	.loc 2 836 0
	lwz 0,8(1)
	.loc 2 835 0
	fmr 31,1
.LVL168:
	.loc 2 836 0
	andi. 10,0,1
	bne- 0,.L125
	.loc 2 768 0
	lis 9,.LC12@ha
	.loc 2 836 0
	lwz 30,20(29)
.LVL169:
	.loc 2 768 0
	lfs 30,.LC12@l(9)
	b .L126
.LVL170:
.L145:
	.loc 2 792 0
	lis 9,.LC12@ha
	lfs 30,.LC12@l(9)
	b .L105
.L115:
	.loc 2 813 0
	lwz 31,0(30)
.LVL171:
	mr 3,30
	stfd 2,40(1)
	addi 4,31,8
	addi 5,31,12
	bl _ZL8outgoingP8st_lwKeyS0_.isra.1
.LVL172:
	.loc 2 814 0
	lfs 0,12(31)
.LVL173:
	.loc 2 815 0
	lfd 2,40(1)
	fsubs 31,31,2
.LVL174:
	.loc 2 814 0
	fsubs 2,0,2
	.loc 2 815 0
	lfs 0,8(30)
.LVL175:
	.loc 2 814 0
	fdivs 2,1,2
	.loc 2 815 0
	fmadds 30,31,2,0
	b .L105
.LVL176:
.L111:
	.loc 2 795 0
	lfs 30,8(30)
	b .L105
.L148:
	.loc 2 825 0
	lis 10,.LC12@ha
	lfs 30,.LC12@l(10)
	b .L105
.L123:
	.loc 2 846 0
	lwz 30,4(31)
.LVL177:
	mr 5,31
	stfd 3,40(1)
	addi 3,30,8
	addi 4,30,12
	bl _ZL8incomingP8st_lwKeyS0_.isra.2
.LVL178:
	.loc 2 847 0
	lfs 0,12(30)
.LVL179:
	.loc 2 848 0
	lfd 3,40(1)
	fsubs 31,31,3
.LVL180:
	.loc 2 847 0
	fsubs 3,3,0
	.loc 2 848 0
	lfs 0,8(31)
.LVL181:
	.loc 2 847 0
	fdivs 3,1,3
	.loc 2 848 0
	fmadds 30,31,3,0
	b .L105
.LVL182:
.L122:
	.loc 2 841 0
	fmr 1,31
.LVL183:
	addi 3,1,8
	bl _ZL5rangefffPi
.LVL184:
	.loc 2 842 0
	lwz 0,8(1)
	.loc 2 841 0
	fmr 31,1
.LVL185:
	.loc 2 842 0
	xoris 0,0,0x8000
	stw 0,36(1)
	lis 0,0x4330
	stw 0,32(1)
	lfs 0,8(30)
	lfd 30,32(1)
	b .L161
.LVL186:
.L121:
	.loc 2 835 0
	fmr 1,31
.LVL187:
	b .L163
.L120:
	.loc 2 831 0
	fmr 1,31
	b .L158
.L119:
	.loc 2 828 0
	lfs 30,8(31)
	b .L105
.LVL188:
.L125:
	.loc 2 837 0
	lfs 0,12(30)
	.loc 2 768 0
	lis 10,.LC12@ha
	.loc 2 837 0
	lfs 13,12(31)
	lwz 30,20(29)
.LVL189:
	fsubs 0,13,0
	.loc 2 768 0
	lfs 30,.LC12@l(10)
	.loc 2 837 0
	fsubs 31,0,1
.LVL190:
	b .L126
.LVL191:
.L129:
.LBB905:
.LBB906:
	.loc 2 606 0
	lwz 11,16(30)
	cmpw 7,11,0
	beq- 7,.L167
	.loc 2 609 0
	lis 9,.LC17@ha
	lfs 10,.LC17@l(9)
	fdivs 10,13,10
	fadds 10,11,10
.LVL192:
.L135:
	.loc 2 612 0
	lfs 12,32(31)
	.loc 2 609 0
	fsubs 7,10,11
.LBE906:
.LBE905:
	.loc 2 604 0
	lis 10,.LC0@ha
.LBB931:
.LBB927:
	.loc 2 612 0
	fadds 0,0,12
.LVL193:
	.loc 2 609 0
	lfs 12,.LC17@l(9)
.LBE927:
.LBE931:
	.loc 2 604 0
	lfs 8,.LC0@l(10)
	lis 10,.LC12@ha
.LBB932:
.LBB928:
	.loc 2 609 0
	fmuls 7,7,12
	fsubs 10,0,10
.LVL194:
	.loc 2 765 0
	fsubs 13,13,7
	fmsubs 6,10,12,7
.LBE928:
.LBE932:
	.loc 2 604 0
	lfs 10,.LC12@l(10)
.LBB933:
.LBB929:
.LBB907:
.LBB908:
	.loc 2 581 0
	lis 10,.LC9@ha
	lfs 4,.LC9@l(10)
	.loc 2 583 0
	lis 10,.LC18@ha
.LBE908:
.LBE907:
	.loc 2 765 0
	fsubs 3,13,6
.LBB919:
.LBB917:
	.loc 2 583 0
	lfs 5,.LC18@l(10)
.LVL195:
.L156:
	.loc 2 581 0
	fsubs 0,8,10
	fmadds 0,0,4,10
.LVL196:
.LBB909:
.LBB910:
	.loc 2 555 0
	fmuls 13,0,0
.LVL197:
	.loc 2 556 0
	fmuls 9,0,13
.LVL198:
	.loc 2 562 0
	fmuls 12,13,6
	fmadds 12,9,3,12
	fmadds 12,0,7,12
	fadds 12,11,12
.LVL199:
.LBE910:
.LBE909:
	.loc 2 583 0
	fsubs 2,31,12
	stfs 2,48(1)
	lwz 0,48(1)
.LBB912:
.LBB913:
	.loc 3 781 0
	rlwinm 0,0,0,1,31
.LBE913:
.LBE912:
	.loc 2 583 0
	stw 0,48(1)
	lfs 2,48(1)
	fcmpu 7,2,5
	bng- 7,.L157
.LVL200:
.L168:
	.loc 2 584 0
	fcmpu 7,31,12
	blt- 7,.L150
	.loc 2 581 0
	fmr 10,0
.LVL201:
	fsubs 0,8,10
.LVL202:
	fmadds 0,0,4,10
.LVL203:
.LBB915:
.LBB911:
	.loc 2 555 0
	fmuls 13,0,0
.LVL204:
	.loc 2 556 0
	fmuls 9,0,13
.LVL205:
	.loc 2 562 0
	fmuls 12,13,6
	fmadds 12,9,3,12
	fmadds 12,0,7,12
	fadds 12,11,12
.LVL206:
.LBE911:
.LBE915:
	.loc 2 583 0
	fsubs 2,31,12
	stfs 2,48(1)
	lwz 0,48(1)
.LBB916:
.LBB914:
	.loc 3 781 0
	rlwinm 0,0,0,1,31
.LBE914:
.LBE916:
	.loc 2 583 0
	stw 0,48(1)
	lfs 2,48(1)
	fcmpu 7,2,5
	bgt+ 7,.L168
.LVL207:
.L157:
.LBE917:
.LBE919:
	.loc 2 614 0
	xoris 0,11,0x4245
	cmpwi 7,0,23090
	beq 7,.L169
	.loc 2 617 0
	lfs 8,36(30)
.LVL208:
	lfs 11,.LC17@l(9)
.LVL209:
	lfs 12,8(30)
	fdivs 8,8,11
	fadds 8,12,8
.LVL210:
.L141:
	.loc 2 619 0
	lfs 7,8(31)
.LVL211:
.LBB920:
.LBB921:
	.loc 2 558 0
	fsubs 11,8,12
.LBE921:
.LBE920:
	.loc 2 619 0
	lfs 6,36(31)
.LVL212:
.LBB924:
.LBB922:
	.loc 2 558 0
	lfs 10,.LC17@l(9)
.LVL213:
.LBE922:
.LBE924:
	.loc 2 619 0
	fadds 6,7,6
.LBB925:
.LBB923:
	.loc 2 558 0
	fmuls 11,11,10
.LVL214:
	.loc 2 560 0
	fsubs 7,7,12
	.loc 2 559 0
	fsubs 6,6,8
	.loc 2 560 0
	fsubs 8,7,11
.LVL215:
	.loc 2 559 0
	fmsubs 10,6,10,11
.LVL216:
	.loc 2 560 0
	fsubs 8,8,10
	.loc 2 562 0
	fmuls 13,10,13
.LVL217:
	fmadds 9,8,9,13
.LVL218:
	fmadds 0,11,0,9
.LVL219:
	fadds 12,0,12
.LVL220:
.LBE923:
.LBE925:
.LBE929:
.LBE933:
	.loc 2 883 0
	fadds 30,30,12
	b .L105
.LVL221:
.L150:
.LBB934:
.LBB930:
.LBB926:
.LBB918:
	.loc 2 581 0
	fmr 8,0
.LVL222:
	b .L156
.LVL223:
.L167:
.LBE918:
.LBE926:
	.loc 2 607 0
	lfs 10,40(30)
	lis 9,.LC17@ha
	fadds 10,11,10
.LVL224:
	b .L135
.LVL225:
.L169:
	.loc 2 615 0
	lfs 12,8(30)
	lfs 8,44(30)
.LVL226:
	fadds 8,12,8
.LVL227:
	b .L141
.LBE930:
.LBE934:
.LBE942:
	.cfi_endproc
.LFE2553:
	.size	_Z12evalEnvelopeP13st_lwEnvelopef, .-_Z12evalEnvelopeP13st_lwEnvelopef
	.align 2
	.globl _Z10lwListFreePvPFvS_E
	.type	_Z10lwListFreePvPFvS_E, @function
_Z10lwListFreePvPFvS_E:
.LFB2554:
	.loc 2 906 0
	.cfi_startproc
.LVL228:
.LBB943:
	.loc 2 910 0
	mr. 9,3
.LBE943:
	.loc 2 906 0
	mflr 0
	stwu 1,-24(1)
.LCFI56:
	.cfi_def_cfa_offset 24
	.cfi_register 65, 0
	stw 0,28(1)
	stw 31,20(1)
	.loc 2 906 0
	stw 4,8(1)
.LBB944:
	.loc 2 910 0
	beq- 0,.L170
	.cfi_offset 31, -4
	.cfi_offset 65, 4
.LVL229:
.L172:
	.loc 2 912 0
	lwz 0,8(1)
	mr 3,9
	.loc 2 911 0
	lwz 31,0(9)
.LVL230:
	.loc 2 912 0
	mtctr 0
	bctrl
.LVL231:
	.loc 2 910 0
	cmpwi 7,31,0
	.loc 2 913 0
	mr 9,31
	.loc 2 910 0
	bne+ 7,.L172
.LVL232:
.L170:
.LBE944:
	.loc 2 915 0
	lwz 0,28(1)
	lwz 31,20(1)
	mtlr 0
	addi 1,1,24
.LCFI57:
	.cfi_def_cfa_offset 0
	.cfi_restore 31
	blr
	.cfi_endproc
.LFE2554:
	.size	_Z10lwListFreePvPFvS_E, .-_Z10lwListFreePvPFvS_E
	.align 2
	.globl _Z9lwListAddPPvS_
	.type	_Z9lwListAddPPvS_, @function
_Z9lwListAddPPvS_:
.LFB2555:
	.loc 2 926 0
	.cfi_startproc
.LVL233:
.LBB945:
	.loc 2 929 0
	lwz 9,0(3)
.LVL234:
	.loc 2 930 0
	cmpwi 7,9,0
	bne+ 7,.L179
	b .L181
.LVL235:
.L178:
	.loc 2 936 0
	mr 9,0
.LVL236:
.L179:
	lwz 0,0(9)
.LVL237:
	.loc 2 934 0
	cmpwi 7,0,0
	bne+ 7,.L178
	.loc 2 938 0
	stw 4,0(9)
	.loc 2 939 0
	stw 9,4(4)
	blr
.LVL238:
.L181:
	.loc 2 931 0
	stw 4,0(3)
	.loc 2 932 0
	blr
.LBE945:
	.cfi_endproc
.LFE2555:
	.size	_Z9lwListAddPPvS_, .-_Z9lwListAddPPvS_
	.align 2
	.globl _Z12lwListInsertPPvS_PFiS_S_E
	.type	_Z12lwListInsertPPvS_PFiS_S_E, @function
_Z12lwListInsertPPvS_PFiS_S_E:
.LFB2556:
	.loc 2 951 0
	.cfi_startproc
.LVL239:
	mflr 0
	stwu 1,-32(1)
.LCFI58:
	.cfi_def_cfa_offset 32
	.cfi_register 65, 0
	stw 28,16(1)
.LBB946:
	.loc 2 954 0
	li 28,0
	.cfi_offset 28, -16
.LBE946:
	.loc 2 951 0
	stw 29,20(1)
	mr 29,3
	.cfi_offset 29, -12
	stw 30,24(1)
	mr 30,4
	.cfi_offset 30, -8
	stw 0,36(1)
	stw 31,28(1)
	.loc 2 951 0
	stw 5,8(1)
.LBB947:
	.loc 2 954 0
	lwz 31,0(3)
	.cfi_offset 31, -4
	.cfi_offset 65, 4
	cmpwi 7,31,0
	bne+ 7,.L190
	b .L196
.LVL240:
.L193:
	.loc 2 967 0
	lwz 0,0(31)
.LVL241:
	.loc 2 964 0
	mr 28,31
	cmpwi 7,0,0
	beq- 7,.L192
.LVL242:
	.loc 2 967 0
	mr 31,0
.LVL243:
.L190:
	.loc 2 965 0
	lwz 0,8(1)
	mr 3,31
	mr 4,30
	mtctr 0
	bctrl
	cmpwi 7,3,0
	ble+ 7,.L193
.L185:
	.loc 2 970 0
	cmpwi 7,28,0
	beq- 7,.L194
	.loc 2 975 0
	cmpwi 7,31,0
	beq- 7,.L195
	.loc 2 980 0
	stw 31,0(30)
	.loc 2 981 0
	stw 28,4(30)
	.loc 2 982 0
	stw 30,0(28)
	.loc 2 983 0
	stw 30,4(31)
.L182:
.LBE947:
	.loc 2 985 0
	lwz 0,36(1)
	lwz 28,16(1)
	mtlr 0
	lwz 29,20(1)
.LVL244:
	lwz 30,24(1)
.LVL245:
	lwz 31,28(1)
	addi 1,1,32
	.cfi_remember_state
.LCFI59:
	.cfi_def_cfa_offset 0
	.cfi_restore 31
	.cfi_restore 30
	.cfi_restore 29
	.cfi_restore 28
	blr
.LVL246:
.L192:
.LCFI60:
	.cfi_restore_state
.LBB948:
	.loc 2 964 0
	li 31,0
	b .L185
.LVL247:
.L196:
	.loc 2 955 0
	stw 4,0(29)
.LBE948:
	.loc 2 985 0
	lwz 0,36(1)
	lwz 28,16(1)
	mtlr 0
	lwz 29,20(1)
.LVL248:
	lwz 30,24(1)
.LVL249:
	lwz 31,28(1)
	addi 1,1,32
	.cfi_remember_state
	.cfi_restore 28
	.cfi_restore 29
	.cfi_restore 30
	.cfi_restore 31
.LCFI61:
	.cfi_def_cfa_offset 0
	blr
.LVL250:
.L194:
.LCFI62:
	.cfi_restore_state
.LBB949:
	.loc 2 971 0
	stw 30,0(29)
	.loc 2 972 0
	stw 30,4(31)
	.loc 2 973 0
	stw 31,0(30)
	b .L182
.L195:
	.loc 2 976 0
	stw 30,0(28)
	.loc 2 977 0
	stw 28,4(30)
	b .L182
.LBE949:
	.cfi_endproc
.LFE2556:
	.size	_Z12lwListInsertPPvS_PFiS_S_E, .-_Z12lwListInsertPPvS_PFiS_S_E
	.align 2
	.globl _Z8set_fleni
	.type	_Z8set_fleni, @function
_Z8set_fleni:
.LFB2557:
	.loc 2 1002 0
	.cfi_startproc
.LVL251:
	.loc 2 1002 0
	lis 9,.LANCHOR0@ha
	stw 3,.LANCHOR0@l(9)
	blr
	.cfi_endproc
.LFE2557:
	.size	_Z8set_fleni, .-_Z8set_fleni
	.align 2
	.globl _Z8get_flenv
	.type	_Z8get_flenv, @function
_Z8get_flenv:
.LFB2558:
	.loc 2 1004 0
	.cfi_startproc
	.loc 2 1004 0
	lis 9,.LANCHOR0@ha
	lwz 3,.LANCHOR0@l(9)
	blr
	.cfi_endproc
.LFE2558:
	.size	_Z8get_flenv, .-_Z8get_flenv
	.align 2
	.globl _Z8getbytesP6idFilei
	.type	_Z8getbytesP6idFilei, @function
_Z8getbytesP6idFilei:
.LFB2559:
	.loc 2 1007 0
	.cfi_startproc
.LVL252:
	stwu 1,-32(1)
.LCFI63:
	.cfi_def_cfa_offset 32
	mflr 0
	stw 29,20(1)
.LBB950:
	.loc 2 1010 0
	lis 29,.LANCHOR0@ha
	.cfi_offset 29, -12
	.cfi_register 65, 0
.LBE950:
	.loc 2 1007 0
	stw 0,36(1)
.LBB951:
	.loc 2 1010 0
	lwz 0,.LANCHOR0@l(29)
	.cfi_offset 65, 4
.LBE951:
	.loc 2 1007 0
	stw 27,12(1)
	mr 27,3
	.cfi_offset 27, -20
.LBB952:
	.loc 2 1010 0
	cmpwi 7,0,-9999
.LBE952:
	.loc 2 1007 0
	stw 28,16(1)
	stw 30,24(1)
.LBB953:
	.loc 2 1010 0
	li 28,-9999
	.cfi_offset 30, -8
	.cfi_offset 28, -16
.LBE953:
	.loc 2 1007 0
	stw 31,28(1)
.LBB954:
	.loc 2 1010 0
	li 30,0
.LBE954:
	.loc 2 1007 0
	mr 31,4
	.cfi_offset 31, -4
.LBB955:
	.loc 2 1010 0
	beq- 7,.L200
	.loc 2 1011 0
	cmpwi 7,4,0
	blt- 7,.L205
	.loc 2 1015 0
	mr 3,4
.LVL253:
	bl _Z16Mem_ClearedAlloci
.LVL254:
	.loc 2 1016 0
	mr. 30,3
	beq- 0,.L205
	.loc 2 1020 0
	lwz 9,0(27)
	mr 3,27
.LVL255:
	mr 4,30
	mr 5,31
	lwz 0,20(9)
	mtctr 0
	bctrl
	cmpw 7,31,3
	bne- 7,.L206
	.loc 2 1026 0
	lwz 0,.LANCHOR0@l(29)
	add 31,0,31
.LVL256:
	stw 31,.LANCHOR0@l(29)
.LVL257:
.L200:
.LBE955:
	.loc 2 1028 0
	lwz 0,36(1)
	mr 3,30
	lwz 27,12(1)
.LVL258:
	mtlr 0
	lwz 28,16(1)
	lwz 29,20(1)
	lwz 30,24(1)
	lwz 31,28(1)
	addi 1,1,32
	.cfi_remember_state
.LCFI64:
	.cfi_def_cfa_offset 0
	.cfi_restore 31
	.cfi_restore 30
	.cfi_restore 29
	.cfi_restore 28
	.cfi_restore 27
	blr
.LVL259:
.L205:
.LCFI65:
	.cfi_restore_state
	lwz 0,36(1)
	mr 3,30
.LBB956:
	.loc 2 1017 0
	stw 28,.LANCHOR0@l(29)
.LBE956:
	.loc 2 1028 0
	mtlr 0
	lwz 27,12(1)
.LVL260:
	lwz 28,16(1)
	lwz 29,20(1)
	lwz 30,24(1)
	lwz 31,28(1)
.LVL261:
	addi 1,1,32
	.cfi_remember_state
	.cfi_restore 27
	.cfi_restore 28
	.cfi_restore 29
	.cfi_restore 30
	.cfi_restore 31
.LCFI66:
	.cfi_def_cfa_offset 0
	blr
.LVL262:
.L206:
.LCFI67:
	.cfi_restore_state
.LBB957:
	.loc 2 1022 0
	mr 3,30
	.loc 2 1021 0
	stw 28,.LANCHOR0@l(29)
	.loc 2 1023 0
	li 30,0
.LVL263:
	.loc 2 1022 0
	bl _Z8Mem_FreePv
.LVL264:
	.loc 2 1023 0
	b .L200
.LBE957:
	.cfi_endproc
.LFE2559:
	.size	_Z8getbytesP6idFilei, .-_Z8getbytesP6idFilei
	.align 2
	.globl _Z9skipbytesP6idFilei
	.type	_Z9skipbytesP6idFilei, @function
_Z9skipbytesP6idFilei:
.LFB2560:
	.loc 2 1032 0
	.cfi_startproc
.LVL265:
	stwu 1,-16(1)
.LCFI68:
	.cfi_def_cfa_offset 16
	mflr 0
	stw 31,12(1)
	.loc 2 1033 0
	lis 31,.LANCHOR0@ha
	.cfi_offset 31, -4
	.cfi_register 65, 0
	.loc 2 1032 0
	stw 0,20(1)
	.loc 2 1033 0
	lwz 0,.LANCHOR0@l(31)
	.cfi_offset 65, 4
	.loc 2 1032 0
	stw 30,8(1)
	.loc 2 1032 0
	mr 30,4
	.cfi_offset 30, -8
	.loc 2 1033 0
	cmpwi 7,0,-9999
	beq- 7,.L207
	.loc 2 1034 0
	lwz 9,0(3)
	li 5,0
	lwz 0,48(9)
	mtctr 0
	bctrl
.LVL266:
	cmpwi 7,3,0
	bne- 7,.L210
	.loc 2 1037 0
	lwz 0,.LANCHOR0@l(31)
	add 30,0,30
.LVL267:
	stw 30,.LANCHOR0@l(31)
.L207:
	.loc 2 1038 0
	lwz 0,20(1)
	lwz 30,8(1)
	mtlr 0
	lwz 31,12(1)
	addi 1,1,16
	.cfi_remember_state
.LCFI69:
	.cfi_def_cfa_offset 0
	.cfi_restore 31
	.cfi_restore 30
	blr
.LVL268:
.L210:
.LCFI70:
	.cfi_restore_state
	.loc 2 1035 0
	li 0,-9999
	.loc 2 1038 0
	lwz 30,8(1)
.LVL269:
	.loc 2 1035 0
	stw 0,.LANCHOR0@l(31)
	.loc 2 1038 0
	lwz 0,20(1)
	lwz 31,12(1)
	mtlr 0
	addi 1,1,16
	.cfi_restore 30
	.cfi_restore 31
.LCFI71:
	.cfi_def_cfa_offset 0
	blr
	.cfi_endproc
.LFE2560:
	.size	_Z9skipbytesP6idFilei, .-_Z9skipbytesP6idFilei
	.align 2
	.globl _Z5getI1P6idFile
	.type	_Z5getI1P6idFile, @function
_Z5getI1P6idFile:
.LFB2561:
	.loc 2 1042 0
	.cfi_startproc
.LVL270:
	stwu 1,-32(1)
.LCFI72:
	.cfi_def_cfa_offset 32
	mflr 0
	stw 30,24(1)
.LBB958:
	.loc 2 1045 0
	lis 30,.LANCHOR0@ha
	.cfi_offset 30, -8
	.cfi_register 65, 0
.LBE958:
	.loc 2 1042 0
	stw 0,36(1)
.LBB959:
	.loc 2 1045 0
	lwz 0,.LANCHOR0@l(30)
	.cfi_offset 65, 4
.LBE959:
	.loc 2 1042 0
	stw 31,28(1)
.LBB960:
	.loc 2 1045 0
	li 31,0
	.cfi_offset 31, -4
	cmpwi 7,0,-9999
	beq- 7,.L212
	.loc 2 1047 0
	lwz 9,0(3)
	.loc 2 1046 0
	mr 4,1
	stwu 31,8(4)
.LVL271:
	.loc 2 1047 0
	li 5,1
	lwz 0,20(9)
	mtctr 0
	bctrl
.LVL272:
	.loc 2 1048 0
	cmpwi 7,3,0
	blt- 7,.L216
	.loc 2 1052 0
	lwz 31,8(1)
	cmpwi 7,31,127
	bgt- 7,.L217
.L214:
	.loc 2 1053 0
	lwz 9,.LANCHOR0@l(30)
	addi 0,9,1
	stw 0,.LANCHOR0@l(30)
.LVL273:
.L212:
.LBE960:
	.loc 2 1055 0
	lwz 0,36(1)
	mr 3,31
	lwz 30,24(1)
	mtlr 0
	lwz 31,28(1)
	addi 1,1,32
	.cfi_remember_state
.LCFI73:
	.cfi_def_cfa_offset 0
	.cfi_restore 31
	.cfi_restore 30
	blr
.LVL274:
.L217:
.LCFI74:
	.cfi_restore_state
.LBB961:
	.loc 2 1052 0 discriminator 1
	addi 31,31,-256
	b .L214
.L216:
	.loc 2 1049 0
	li 0,-9999
.LBE961:
	.loc 2 1055 0
	mr 3,31
.LVL275:
.LBB962:
	.loc 2 1049 0
	stw 0,.LANCHOR0@l(30)
.LBE962:
	.loc 2 1055 0
	lwz 0,36(1)
	lwz 30,24(1)
	mtlr 0
	lwz 31,28(1)
	addi 1,1,32
	.cfi_restore 30
	.cfi_restore 31
.LCFI75:
	.cfi_def_cfa_offset 0
	blr
	.cfi_endproc
.LFE2561:
	.size	_Z5getI1P6idFile, .-_Z5getI1P6idFile
	.align 2
	.globl _Z5getI2P6idFile
	.type	_Z5getI2P6idFile, @function
_Z5getI2P6idFile:
.LFB2562:
	.loc 2 1059 0
	.cfi_startproc
.LVL276:
	stwu 1,-32(1)
.LCFI76:
	.cfi_def_cfa_offset 32
	mflr 0
	stw 31,28(1)
.LBB967:
	.loc 2 1062 0
	lis 31,.LANCHOR0@ha
	.cfi_offset 31, -4
	.cfi_register 65, 0
.LBE967:
	.loc 2 1059 0
	stw 0,36(1)
.LBB968:
	.loc 2 1062 0
	lwz 0,.LANCHOR0@l(31)
	.cfi_offset 65, 4
.LBE968:
	.loc 2 1059 0
	stw 30,24(1)
.LBB969:
	.loc 2 1062 0
	li 30,0
	.cfi_offset 30, -8
	cmpwi 7,0,-9999
	beq- 7,.L219
.LVL277:
.LBE969:
.LBB970:
.LBB971:
	.loc 2 1063 0
	lwz 9,0(3)
	addi 4,1,8
	li 5,2
	lwz 0,20(9)
	mtctr 0
	bctrl
.LVL278:
	cmpwi 7,3,2
	beq- 7,.L220
	.loc 2 1064 0
	li 0,-9999
	stw 0,.LANCHOR0@l(31)
.L219:
.LBE971:
.LBE970:
	.loc 2 1070 0
	lwz 0,36(1)
	mr 3,30
	lwz 31,28(1)
	mtlr 0
	lwz 30,24(1)
	addi 1,1,32
	.cfi_remember_state
.LCFI77:
	.cfi_def_cfa_offset 0
	.cfi_restore 31
	.cfi_restore 30
	blr
.L220:
.LCFI78:
	.cfi_restore_state
.LBB973:
.LBB972:
	.loc 2 1067 0
	addi 3,1,8
	li 4,2
	li 5,1
	bl _Z11BigRevBytesPvii
	.loc 2 1068 0
	lwz 9,.LANCHOR0@l(31)
.LVL279:
	.loc 2 1069 0
	lha 30,8(1)
	.loc 2 1068 0
	addi 0,9,2
	stw 0,.LANCHOR0@l(31)
.LBE972:
.LBE973:
	.loc 2 1070 0
	mr 3,30
	lwz 0,36(1)
	lwz 30,24(1)
	mtlr 0
	lwz 31,28(1)
	addi 1,1,32
	.cfi_restore 30
	.cfi_restore 31
.LCFI79:
	.cfi_def_cfa_offset 0
	blr
	.cfi_endproc
.LFE2562:
	.size	_Z5getI2P6idFile, .-_Z5getI2P6idFile
	.align 2
	.globl _Z5getI4P6idFile
	.type	_Z5getI4P6idFile, @function
_Z5getI4P6idFile:
.LFB2563:
	.loc 2 1074 0
	.cfi_startproc
.LVL280:
	stwu 1,-32(1)
.LCFI80:
	.cfi_def_cfa_offset 32
	mflr 0
	stw 31,28(1)
.LBB978:
	.loc 2 1077 0
	lis 31,.LANCHOR0@ha
	.cfi_offset 31, -4
	.cfi_register 65, 0
.LBE978:
	.loc 2 1074 0
	stw 0,36(1)
.LBB979:
	.loc 2 1077 0
	lwz 0,.LANCHOR0@l(31)
	.cfi_offset 65, 4
.LBE979:
	.loc 2 1074 0
	stw 30,24(1)
.LBB980:
	.loc 2 1077 0
	li 30,0
	.cfi_offset 30, -8
	cmpwi 7,0,-9999
	beq- 7,.L224
.LVL281:
.LBE980:
.LBB981:
.LBB982:
	.loc 2 1078 0
	lwz 9,0(3)
	addi 4,1,8
	li 5,4
	lwz 0,20(9)
	mtctr 0
	bctrl
.LVL282:
	cmpwi 7,3,4
	beq- 7,.L225
	.loc 2 1079 0
	li 0,-9999
	stw 0,.LANCHOR0@l(31)
.L224:
.LBE982:
.LBE981:
	.loc 2 1085 0
	lwz 0,36(1)
	mr 3,30
	lwz 31,28(1)
	mtlr 0
	lwz 30,24(1)
	addi 1,1,32
	.cfi_remember_state
.LCFI81:
	.cfi_def_cfa_offset 0
	.cfi_restore 31
	.cfi_restore 30
	blr
.L225:
.LCFI82:
	.cfi_restore_state
.LBB984:
.LBB983:
	.loc 2 1082 0
	addi 3,1,8
	li 4,4
	li 5,1
	bl _Z11BigRevBytesPvii
	.loc 2 1083 0
	lwz 9,.LANCHOR0@l(31)
.LVL283:
	.loc 2 1084 0
	lwz 30,8(1)
	.loc 2 1083 0
	addi 0,9,4
	stw 0,.LANCHOR0@l(31)
.LBE983:
.LBE984:
	.loc 2 1085 0
	mr 3,30
	lwz 0,36(1)
	lwz 30,24(1)
	mtlr 0
	lwz 31,28(1)
	addi 1,1,32
	.cfi_restore 30
	.cfi_restore 31
.LCFI83:
	.cfi_def_cfa_offset 0
	blr
	.cfi_endproc
.LFE2563:
	.size	_Z5getI4P6idFile, .-_Z5getI4P6idFile
	.align 2
	.globl _Z5getU1P6idFile
	.type	_Z5getU1P6idFile, @function
_Z5getU1P6idFile:
.LFB2564:
	.loc 2 1089 0
	.cfi_startproc
.LVL284:
	stwu 1,-32(1)
.LCFI84:
	.cfi_def_cfa_offset 32
	mflr 0
	stw 30,24(1)
.LBB989:
	.loc 2 1092 0
	lis 30,.LANCHOR0@ha
	.cfi_offset 30, -8
	.cfi_register 65, 0
.LBE989:
	.loc 2 1089 0
	stw 0,36(1)
.LBB990:
	.loc 2 1092 0
	lwz 0,.LANCHOR0@l(30)
	.cfi_offset 65, 4
.LBE990:
	.loc 2 1089 0
	stw 31,28(1)
.LBB991:
	.loc 2 1092 0
	li 31,0
	.cfi_offset 31, -4
	cmpwi 7,0,-9999
	beq- 7,.L229
.LVL285:
.LBE991:
.LBB992:
.LBB993:
	.loc 2 1094 0
	lwz 9,0(3)
	.loc 2 1093 0
	mr 4,1
	stwu 31,8(4)
.LVL286:
	.loc 2 1094 0
	li 5,1
	lwz 0,20(9)
	mtctr 0
	bctrl
.LVL287:
	.loc 2 1095 0
	cmpwi 7,3,0
	blt- 7,.L233
	.loc 2 1099 0
	lwz 9,.LANCHOR0@l(30)
	.loc 2 1100 0
	lbz 31,11(1)
	.loc 2 1099 0
	addi 0,9,1
	stw 0,.LANCHOR0@l(30)
.LVL288:
.L229:
.LBE993:
.LBE992:
	.loc 2 1101 0
	lwz 0,36(1)
	mr 3,31
	lwz 30,24(1)
	mtlr 0
	lwz 31,28(1)
	addi 1,1,32
	.cfi_remember_state
.LCFI85:
	.cfi_def_cfa_offset 0
	.cfi_restore 31
	.cfi_restore 30
	blr
.LVL289:
.L233:
.LCFI86:
	.cfi_restore_state
.LBB996:
.LBB994:
	.loc 2 1096 0
	li 0,-9999
.LBE994:
.LBE996:
	.loc 2 1101 0
	mr 3,31
.LVL290:
.LBB997:
.LBB995:
	.loc 2 1096 0
	stw 0,.LANCHOR0@l(30)
.LBE995:
.LBE997:
	.loc 2 1101 0
	lwz 0,36(1)
	lwz 30,24(1)
	mtlr 0
	lwz 31,28(1)
	addi 1,1,32
	.cfi_restore 30
	.cfi_restore 31
.LCFI87:
	.cfi_def_cfa_offset 0
	blr
	.cfi_endproc
.LFE2564:
	.size	_Z5getU1P6idFile, .-_Z5getU1P6idFile
	.align 2
	.globl _Z5getU2P6idFile
	.type	_Z5getU2P6idFile, @function
_Z5getU2P6idFile:
.LFB2565:
	.loc 2 1105 0
	.cfi_startproc
.LVL291:
	stwu 1,-32(1)
.LCFI88:
	.cfi_def_cfa_offset 32
	mflr 0
	stw 31,28(1)
.LBB1002:
	.loc 2 1108 0
	lis 31,.LANCHOR0@ha
	.cfi_offset 31, -4
	.cfi_register 65, 0
.LBE1002:
	.loc 2 1105 0
	stw 0,36(1)
.LBB1003:
	.loc 2 1108 0
	lwz 0,.LANCHOR0@l(31)
	.cfi_offset 65, 4
.LBE1003:
	.loc 2 1105 0
	stw 30,24(1)
.LBB1004:
	.loc 2 1108 0
	li 30,0
	.cfi_offset 30, -8
	cmpwi 7,0,-9999
	beq- 7,.L235
.LVL292:
.LBE1004:
.LBB1005:
.LBB1006:
	.loc 2 1109 0
	lwz 9,0(3)
	addi 4,1,8
	li 5,2
	lwz 0,20(9)
	mtctr 0
	bctrl
.LVL293:
	cmpwi 7,3,2
	beq- 7,.L236
	.loc 2 1110 0
	li 0,-9999
	stw 0,.LANCHOR0@l(31)
.L235:
.LBE1006:
.LBE1005:
	.loc 2 1116 0
	lwz 0,36(1)
	mr 3,30
	lwz 31,28(1)
	mtlr 0
	lwz 30,24(1)
	addi 1,1,32
	.cfi_remember_state
.LCFI89:
	.cfi_def_cfa_offset 0
	.cfi_restore 31
	.cfi_restore 30
	blr
.L236:
.LCFI90:
	.cfi_restore_state
.LBB1008:
.LBB1007:
	.loc 2 1113 0
	addi 3,1,8
	li 4,2
	li 5,1
	bl _Z11BigRevBytesPvii
	.loc 2 1114 0
	lwz 9,.LANCHOR0@l(31)
.LVL294:
	.loc 2 1115 0
	lhz 30,8(1)
	.loc 2 1114 0
	addi 0,9,2
	stw 0,.LANCHOR0@l(31)
.LBE1007:
.LBE1008:
	.loc 2 1116 0
	mr 3,30
	lwz 0,36(1)
	lwz 30,24(1)
	mtlr 0
	lwz 31,28(1)
	addi 1,1,32
	.cfi_restore 30
	.cfi_restore 31
.LCFI91:
	.cfi_def_cfa_offset 0
	blr
	.cfi_endproc
.LFE2565:
	.size	_Z5getU2P6idFile, .-_Z5getU2P6idFile
	.align 2
	.globl _Z5getU4P6idFile
	.type	_Z5getU4P6idFile, @function
_Z5getU4P6idFile:
.LFB2566:
	.loc 2 1120 0
	.cfi_startproc
.LVL295:
	stwu 1,-32(1)
.LCFI92:
	.cfi_def_cfa_offset 32
	mflr 0
	stw 31,28(1)
.LBB1013:
	.loc 2 1123 0
	lis 31,.LANCHOR0@ha
	.cfi_offset 31, -4
	.cfi_register 65, 0
.LBE1013:
	.loc 2 1120 0
	stw 0,36(1)
.LBB1014:
	.loc 2 1123 0
	lwz 0,.LANCHOR0@l(31)
	.cfi_offset 65, 4
.LBE1014:
	.loc 2 1120 0
	stw 30,24(1)
.LBB1015:
	.loc 2 1123 0
	li 30,0
	.cfi_offset 30, -8
	cmpwi 7,0,-9999
	beq- 7,.L240
.LVL296:
.LBE1015:
.LBB1016:
.LBB1017:
	.loc 2 1124 0
	lwz 9,0(3)
	addi 4,1,8
	li 5,4
	lwz 0,20(9)
	mtctr 0
	bctrl
.LVL297:
	cmpwi 7,3,4
	beq- 7,.L241
	.loc 2 1125 0
	li 0,-9999
	stw 0,.LANCHOR0@l(31)
.L240:
.LBE1017:
.LBE1016:
	.loc 2 1131 0
	lwz 0,36(1)
	mr 3,30
	lwz 31,28(1)
	mtlr 0
	lwz 30,24(1)
	addi 1,1,32
	.cfi_remember_state
.LCFI93:
	.cfi_def_cfa_offset 0
	.cfi_restore 31
	.cfi_restore 30
	blr
.L241:
.LCFI94:
	.cfi_restore_state
.LBB1019:
.LBB1018:
	.loc 2 1128 0
	addi 3,1,8
	li 4,4
	li 5,1
	bl _Z11BigRevBytesPvii
	.loc 2 1129 0
	lwz 9,.LANCHOR0@l(31)
.LVL298:
	.loc 2 1130 0
	lwz 30,8(1)
	.loc 2 1129 0
	addi 0,9,4
	stw 0,.LANCHOR0@l(31)
.LBE1018:
.LBE1019:
	.loc 2 1131 0
	mr 3,30
	lwz 0,36(1)
	lwz 30,24(1)
	mtlr 0
	lwz 31,28(1)
	addi 1,1,32
	.cfi_restore 30
	.cfi_restore 31
.LCFI95:
	.cfi_def_cfa_offset 0
	blr
	.cfi_endproc
.LFE2566:
	.size	_Z5getU4P6idFile, .-_Z5getU4P6idFile
	.align 2
	.globl _Z5getVXP6idFile
	.type	_Z5getVXP6idFile, @function
_Z5getVXP6idFile:
.LFB2567:
	.loc 2 1135 0
	.cfi_startproc
.LVL299:
	stwu 1,-48(1)
.LCFI96:
	.cfi_def_cfa_offset 48
	mflr 0
	stw 28,32(1)
.LBB1024:
	.loc 2 1139 0
	lis 28,.LANCHOR0@ha
	.cfi_offset 28, -16
	.cfi_register 65, 0
.LBE1024:
	.loc 2 1135 0
	stw 0,52(1)
.LBB1025:
	.loc 2 1139 0
	lwz 0,.LANCHOR0@l(28)
	.cfi_offset 65, 4
.LBE1025:
	.loc 2 1135 0
	stw 29,36(1)
	mr 29,3
	.cfi_offset 29, -12
.LBB1026:
	.loc 2 1139 0
	cmpwi 7,0,-9999
.LBE1026:
	.loc 2 1135 0
	stw 31,44(1)
	stw 26,24(1)
.LBB1027:
	.loc 2 1139 0
	li 31,0
	.cfi_offset 26, -24
	.cfi_offset 31, -4
.LBE1027:
	.loc 2 1135 0
	stw 27,28(1)
	stw 30,40(1)
.LBB1028:
	.loc 2 1139 0
	beq- 7,.L245
	.cfi_offset 30, -8
	.cfi_offset 27, -20
.LVL300:
.LBE1028:
.LBB1029:
.LBB1030:
	.loc 2 1142 0
	lwz 9,0(3)
	.loc 2 1141 0
	mr 30,1
	stbu 31,8(30)
.LVL301:
	.loc 2 1142 0
	li 5,1
	lwz 0,20(9)
	mr 4,30
	mtctr 0
	bctrl
.LVL302:
	cmpwi 7,3,-1
	beq- 7,.L245
	.loc 2 1146 0
	lbz 27,8(1)
	.loc 2 1149 0
	mr 3,29
	lwz 9,0(29)
	mr 4,30
	.loc 2 1148 0
	stb 31,8(1)
.LVL303:
	.loc 2 1146 0
	cmpwi 7,27,255
	.loc 2 1149 0
	li 5,1
	lwz 0,20(9)
	mtctr 0
	.loc 2 1146 0
	beq- 7,.L247
.LVL304:
	.loc 2 1149 0
	bctrl
	cmpwi 7,3,-1
	beq- 7,.L245
	.loc 2 1153 0
	lwz 11,.LANCHOR0@l(28)
	.loc 2 1147 0
	slwi 31,27,8
	.loc 2 1152 0
	lbz 9,8(1)
.LVL305:
	.loc 2 1153 0
	addi 0,11,2
	stw 0,.LANCHOR0@l(28)
	.loc 2 1152 0
	or 31,31,9
.LVL306:
.L245:
.LBE1030:
.LBE1029:
	.loc 2 1175 0
	lwz 0,52(1)
	mr 3,31
	lwz 26,24(1)
	mtlr 0
	lwz 27,28(1)
	lwz 28,32(1)
	lwz 29,36(1)
.LVL307:
	lwz 30,40(1)
	lwz 31,44(1)
	addi 1,1,48
	.cfi_remember_state
.LCFI97:
	.cfi_def_cfa_offset 0
	.cfi_restore 31
	.cfi_restore 30
	.cfi_restore 29
	.cfi_restore 28
	.cfi_restore 27
	.cfi_restore 26
	blr
.LVL308:
.L247:
.LCFI98:
	.cfi_restore_state
.LBB1032:
.LBB1031:
	.loc 2 1157 0
	bctrl
.LVL309:
	cmpwi 7,3,-1
	beq- 7,.L245
	.loc 2 1162 0
	lwz 9,0(29)
	mr 3,29
	.loc 2 1160 0
	lbz 27,8(1)
.LVL310:
	.loc 2 1162 0
	mr 4,30
	lwz 0,20(9)
	li 5,1
	.loc 2 1161 0
	stb 31,8(1)
	.loc 2 1162 0
	mtctr 0
	bctrl
	cmpwi 7,3,-1
	beq- 7,.L245
	.loc 2 1167 0
	lwz 9,0(29)
	mr 3,29
	.loc 2 1165 0
	lbz 26,8(1)
.LVL311:
	.loc 2 1167 0
	mr 4,30
	lwz 0,20(9)
	li 5,1
	.loc 2 1166 0
	stb 31,8(1)
	.loc 2 1167 0
	mtctr 0
	bctrl
	cmpwi 7,3,-1
	beq- 7,.L245
	.loc 2 1171 0
	lwz 9,.LANCHOR0@l(28)
	.loc 2 1160 0
	slwi 31,27,16
	.loc 2 1165 0
	slwi 26,26,8
.LVL312:
	.loc 2 1170 0
	lbz 0,8(1)
.LVL313:
	.loc 2 1171 0
	addi 9,9,4
	.loc 2 1165 0
	or 31,31,26
	.loc 2 1171 0
	stw 9,.LANCHOR0@l(28)
	.loc 2 1170 0
	or 31,31,0
.LVL314:
	b .L245
.LBE1031:
.LBE1032:
	.cfi_endproc
.LFE2567:
	.size	_Z5getVXP6idFile, .-_Z5getVXP6idFile
	.align 2
	.globl _Z5getF4P6idFile
	.type	_Z5getF4P6idFile, @function
_Z5getF4P6idFile:
.LFB2568:
	.loc 2 1179 0
	.cfi_startproc
.LVL315:
	stwu 1,-48(1)
.LCFI99:
	.cfi_def_cfa_offset 48
	mflr 0
.LBB1037:
	.loc 2 1182 0
	lis 11,.LC12@ha
.LBE1037:
	.loc 2 1179 0
	stw 31,36(1)
.LBB1038:
	.loc 2 1182 0
	lis 31,.LANCHOR0@ha
	.cfi_offset 31, -12
	.cfi_register 65, 0
.LBE1038:
	.loc 2 1179 0
	stw 0,52(1)
.LBB1039:
	.loc 2 1182 0
	lwz 0,.LANCHOR0@l(31)
	.cfi_offset 65, 4
.LBE1039:
	.loc 2 1179 0
	stfd 31,40(1)
.LBB1040:
	.loc 2 1182 0
	cmpwi 7,0,-9999
	lfs 31,.LC12@l(11)
	.cfi_offset 63, -8
	beq- 7,.L255
.LVL316:
.LBE1040:
.LBB1041:
.LBB1042:
	.loc 2 1183 0
	lwz 9,0(3)
	addi 4,1,8
	li 5,4
	lwz 0,20(9)
	mtctr 0
	bctrl
.LVL317:
	cmpwi 7,3,4
	beq- 7,.L256
	.loc 2 1184 0
	li 0,-9999
	stw 0,.LANCHOR0@l(31)
.L255:
.LBE1042:
.LBE1041:
	.loc 2 1194 0
	lwz 0,52(1)
	fmr 1,31
	lwz 31,36(1)
	mtlr 0
	lfd 31,40(1)
	addi 1,1,48
	.cfi_remember_state
.LCFI100:
	.cfi_def_cfa_offset 0
	.cfi_restore 63
	.cfi_restore 31
	blr
.L256:
.LCFI101:
	.cfi_restore_state
.LBB1044:
.LBB1043:
	.loc 2 1187 0
	addi 3,1,8
	li 4,4
	li 5,1
	bl _Z11BigRevBytesPvii
	.loc 2 1190 0
	lwz 0,8(1)
	.loc 2 1188 0
	lwz 9,.LANCHOR0@l(31)
	.loc 2 1190 0
	andis. 11,0,0x7f80
	.loc 2 1188 0
	addi 9,9,4
	stw 9,.LANCHOR0@l(31)
	.loc 2 1190 0
	bne- 0,.L262
	rlwinm. 9,0,0,9,31
	bne- 0,.L255
.L262:
	stw 0,24(1)
	lfs 31,24(1)
	b .L255
.LBE1043:
.LBE1044:
	.cfi_endproc
.LFE2568:
	.size	_Z5getF4P6idFile, .-_Z5getF4P6idFile
	.align 2
	.globl _Z5getS0P6idFile
	.type	_Z5getS0P6idFile, @function
_Z5getS0P6idFile:
.LFB2569:
	.loc 2 1198 0
	.cfi_startproc
.LVL318:
	stwu 1,-48(1)
.LCFI102:
	.cfi_def_cfa_offset 48
	mflr 0
	stw 28,32(1)
.LBB1045:
	.loc 2 1202 0
	lis 28,.LANCHOR0@ha
	.cfi_offset 28, -16
	.cfi_register 65, 0
.LBE1045:
	.loc 2 1198 0
	stw 0,52(1)
.LBB1046:
	.loc 2 1202 0
	lwz 0,.LANCHOR0@l(28)
	.cfi_offset 65, 4
.LBE1046:
	.loc 2 1198 0
	stw 29,36(1)
.LBB1047:
	.loc 2 1202 0
	li 29,0
	.cfi_offset 29, -12
	cmpwi 7,0,-9999
.LBE1047:
	.loc 2 1198 0
	stw 31,44(1)
	stw 27,28(1)
	mr 31,3
	.cfi_offset 27, -20
	.cfi_offset 31, -4
	stw 30,40(1)
.LBB1048:
	.loc 2 1202 0
	beq- 7,.L264
	.cfi_offset 30, -8
	.loc 2 1204 0
	lwz 9,0(3)
	.loc 2 1205 0
	li 30,1
	.loc 2 1204 0
	lwz 0,36(9)
	mtctr 0
	bctrl
.LVL319:
	mr 27,3
.LVL320:
	b .L267
.LVL321:
.L265:
	.loc 2 1211 0
	lwz 0,8(1)
	cmpwi 7,0,0
	beq- 7,.L266
	.loc 2 1205 0
	addi 30,30,1
.LVL322:
.L267:
	.loc 2 1207 0
	lwz 9,0(31)
	mr 3,31
	.loc 2 1206 0
	stw 29,8(1)
	.loc 2 1207 0
	addi 4,1,8
	lwz 0,20(9)
	li 5,1
	mtctr 0
	bctrl
	cmpwi 7,3,-1
	bne+ 7,.L265
.LVL323:
.L275:
	.loc 2 1234 0
	li 0,-9999
	.loc 2 1235 0
	li 29,0
	.loc 2 1234 0
	stw 0,.LANCHOR0@l(28)
.LVL324:
.L264:
.LBE1048:
	.loc 2 1240 0
	lwz 0,52(1)
	mr 3,29
	lwz 27,28(1)
	mtlr 0
	lwz 28,32(1)
	lwz 29,36(1)
	lwz 30,40(1)
	lwz 31,44(1)
.LVL325:
	addi 1,1,48
	.cfi_remember_state
.LCFI103:
	.cfi_def_cfa_offset 0
	.cfi_restore 31
	.cfi_restore 30
	.cfi_restore 29
	.cfi_restore 28
	.cfi_restore 27
	blr
.LVL326:
.L266:
.LCFI104:
	.cfi_restore_state
.LBB1049:
	.loc 2 1214 0
	cmpwi 7,30,1
	beq- 7,.L276
	.loc 2 1222 0
	rlwinm 0,30,0,31,31
	add 30,0,30
.LVL327:
	.loc 2 1223 0
	mr 3,30
	bl _Z16Mem_ClearedAlloci
.LVL328:
	.loc 2 1224 0
	mr. 29,3
	beq- 0,.L277
	.loc 2 1229 0
	lwz 9,0(31)
	mr 3,31
.LVL329:
	mr 4,27
	li 5,2
	lwz 0,48(9)
	mtctr 0
	bctrl
	cmpwi 7,3,0
	bne- 7,.L275
	.loc 2 1233 0
	lwz 9,0(31)
	mr 3,31
	mr 4,29
	mr 5,30
	lwz 0,20(9)
	mtctr 0
	bctrl
	cmpw 7,30,3
	bne- 7,.L275
	.loc 2 1238 0
	lwz 0,.LANCHOR0@l(28)
.LBE1049:
	.loc 2 1240 0
	mr 3,29
	lwz 27,28(1)
.LVL330:
.LBB1050:
	.loc 2 1238 0
	add 30,0,30
.LVL331:
.LBE1050:
	.loc 2 1240 0
	lwz 0,52(1)
.LBB1051:
	.loc 2 1238 0
	stw 30,.LANCHOR0@l(28)
.LBE1051:
	.loc 2 1240 0
	mtlr 0
	lwz 28,32(1)
	lwz 29,36(1)
.LVL332:
	lwz 30,40(1)
	lwz 31,44(1)
.LVL333:
	addi 1,1,48
	.cfi_remember_state
	.cfi_restore 27
	.cfi_restore 28
	.cfi_restore 29
	.cfi_restore 30
	.cfi_restore 31
.LCFI105:
	.cfi_def_cfa_offset 0
	blr
.LVL334:
.L276:
.LCFI106:
	.cfi_restore_state
.LBB1052:
	.loc 2 1215 0
	lwz 9,0(31)
	mr 3,31
	addi 4,27,2
	li 5,2
	lwz 0,48(9)
	mtctr 0
	bctrl
	cmpwi 7,3,0
	bne- 7,.L275
	.loc 2 1218 0
	lwz 9,.LANCHOR0@l(28)
	.loc 2 1219 0
	li 29,0
	.loc 2 1218 0
	addi 0,9,2
	stw 0,.LANCHOR0@l(28)
	b .L264
.LVL335:
.L277:
	.loc 2 1225 0
	li 0,-9999
	stw 0,.LANCHOR0@l(28)
	.loc 2 1226 0
	b .L264
.LBE1052:
	.cfi_endproc
.LFE2569:
	.size	_Z5getS0P6idFile, .-_Z5getS0P6idFile
	.align 2
	.globl _Z6sgetI1PPh
	.type	_Z6sgetI1PPh, @function
_Z6sgetI1PPh:
.LFB2570:
	.loc 2 1244 0
	.cfi_startproc
.LVL336:
.LBB1053:
	.loc 2 1247 0
	lis 9,.LANCHOR0@ha
	li 10,0
	lwz 11,.LANCHOR0@l(9)
	cmpwi 7,11,-9999
	beq- 7,.L279
	.loc 2 1248 0
	lwz 10,0(3)
	lbz 10,0(10)
.LVL337:
	.loc 2 1249 0
	cmpwi 7,10,127
	bgt- 7,.L282
.L280:
	.loc 2 1250 0
	addi 11,11,1
	stw 11,.LANCHOR0@l(9)
.LVL338:
.L279:
.LBE1053:
	.loc 2 1253 0
	mr 3,10
	blr
.LVL339:
.L282:
.LBB1054:
	.loc 2 1249 0 discriminator 1
	addi 10,10,-256
.LVL340:
	b .L280
.LBE1054:
	.cfi_endproc
.LFE2570:
	.size	_Z6sgetI1PPh, .-_Z6sgetI1PPh
	.align 2
	.globl _Z6sgetI2PPh
	.type	_Z6sgetI2PPh, @function
_Z6sgetI2PPh:
.LFB2571:
	.loc 2 1257 0
	.cfi_startproc
.LVL341:
	stwu 1,-32(1)
.LCFI107:
	.cfi_def_cfa_offset 32
	mflr 0
	stw 31,28(1)
.LBB1059:
	.loc 2 1260 0
	lis 31,.LANCHOR0@ha
	.cfi_offset 31, -4
	.cfi_register 65, 0
.LBE1059:
	.loc 2 1257 0
	stw 0,36(1)
.LBB1060:
	.loc 2 1260 0
	lwz 0,.LANCHOR0@l(31)
	.cfi_offset 65, 4
.LBE1060:
	.loc 2 1257 0
	stw 30,24(1)
	.loc 2 1257 0
	mr 30,3
	.cfi_offset 30, -8
.LBB1061:
	.loc 2 1260 0
	cmpwi 7,0,-9999
	li 3,0
.LVL342:
	beq- 7,.L284
.LVL343:
.LBE1061:
.LBB1062:
.LBB1063:
	.loc 2 1261 0
	lwz 9,0(30)
	mr 3,1
	.loc 2 1262 0
	li 4,2
	li 5,1
	.loc 2 1261 0
	lhz 0,0(9)
	sthu 0,8(3)
	.loc 2 1262 0
	bl _Z11BigRevBytesPvii
	.loc 2 1263 0
	lwz 9,.LANCHOR0@l(31)
	.loc 2 1264 0
	lwz 11,0(30)
	.loc 2 1263 0
	addi 9,9,2
.LVL344:
	.loc 2 1265 0
	lha 3,8(1)
	.loc 2 1264 0
	addi 0,11,2
	.loc 2 1263 0
	stw 9,.LANCHOR0@l(31)
	.loc 2 1264 0
	stw 0,0(30)
.LVL345:
.L284:
.LBE1063:
.LBE1062:
	.loc 2 1266 0
	lwz 0,36(1)
	lwz 30,24(1)
.LVL346:
	mtlr 0
	lwz 31,28(1)
	addi 1,1,32
.LCFI108:
	.cfi_def_cfa_offset 0
	.cfi_restore 31
	.cfi_restore 30
	blr
	.cfi_endproc
.LFE2571:
	.size	_Z6sgetI2PPh, .-_Z6sgetI2PPh
	.align 2
	.globl _Z6sgetI4PPh
	.type	_Z6sgetI4PPh, @function
_Z6sgetI4PPh:
.LFB2572:
	.loc 2 1270 0
	.cfi_startproc
.LVL347:
	stwu 1,-32(1)
.LCFI109:
	.cfi_def_cfa_offset 32
	mflr 0
	stw 31,28(1)
.LBB1064:
	.loc 2 1273 0
	lis 31,.LANCHOR0@ha
	.cfi_offset 31, -4
	.cfi_register 65, 0
.LBE1064:
	.loc 2 1270 0
	stw 0,36(1)
.LBB1065:
	.loc 2 1273 0
	lwz 0,.LANCHOR0@l(31)
	.cfi_offset 65, 4
.LBE1065:
	.loc 2 1270 0
	stw 30,24(1)
	.loc 2 1270 0
	mr 30,3
	.cfi_offset 30, -8
.LBB1066:
	.loc 2 1273 0
	cmpwi 7,0,-9999
	li 3,0
.LVL348:
	beq- 7,.L287
	.loc 2 1274 0
	lwz 9,0(30)
	mr 3,1
	.loc 2 1275 0
	li 4,4
	li 5,1
	.loc 2 1274 0
	lwz 0,0(9)
	stwu 0,8(3)
	.loc 2 1275 0
	bl _Z11BigRevBytesPvii
	.loc 2 1276 0
	lwz 9,.LANCHOR0@l(31)
	.loc 2 1277 0
	lwz 11,0(30)
	.loc 2 1276 0
	addi 9,9,4
.LVL349:
	.loc 2 1278 0
	lwz 3,8(1)
	.loc 2 1277 0
	addi 0,11,4
	.loc 2 1276 0
	stw 9,.LANCHOR0@l(31)
	.loc 2 1277 0
	stw 0,0(30)
.L287:
.LBE1066:
	.loc 2 1279 0
	lwz 0,36(1)
	lwz 30,24(1)
.LVL350:
	mtlr 0
	lwz 31,28(1)
	addi 1,1,32
.LCFI110:
	.cfi_def_cfa_offset 0
	.cfi_restore 31
	.cfi_restore 30
	blr
	.cfi_endproc
.LFE2572:
	.size	_Z6sgetI4PPh, .-_Z6sgetI4PPh
	.align 2
	.globl _Z6sgetU1PPh
	.type	_Z6sgetU1PPh, @function
_Z6sgetU1PPh:
.LFB2573:
	.loc 2 1283 0
	.cfi_startproc
.LVL351:
.LBB1067:
	.loc 2 1286 0
	lis 9,.LANCHOR0@ha
	li 0,0
	lwz 11,.LANCHOR0@l(9)
	cmpwi 7,11,-9999
	beq- 7,.L290
	.loc 2 1287 0
	lwz 10,0(3)
	.loc 2 1288 0
	addi 11,11,1
	stw 11,.LANCHOR0@l(9)
	.loc 2 1287 0
	lbz 0,0(10)
.LVL352:
.L290:
.LBE1067:
	.loc 2 1291 0
	mr 3,0
	blr
	.cfi_endproc
.LFE2573:
	.size	_Z6sgetU1PPh, .-_Z6sgetU1PPh
	.align 2
	.globl _Z6sgetU2PPh
	.type	_Z6sgetU2PPh, @function
_Z6sgetU2PPh:
.LFB2574:
	.loc 2 1295 0
	.cfi_startproc
.LVL353:
.LBB1068:
	.loc 2 1299 0
	lis 9,.LANCHOR0@ha
.LBE1068:
	.loc 2 1295 0
	mr 8,3
.LBB1069:
	.loc 2 1299 0
	lwz 11,.LANCHOR0@l(9)
	.loc 2 1296 0
	lwz 10,0(3)
.LVL354:
	.loc 2 1299 0
	li 3,0
.LVL355:
	cmpwi 7,11,-9999
	beqlr- 7
	.loc 2 1300 0
	lbz 3,0(10)
	.loc 2 1301 0
	addi 11,11,2
	.loc 2 1300 0
	lbz 0,1(10)
	.loc 2 1302 0
	addi 10,10,2
	.loc 2 1300 0
	slwi 3,3,8
	.loc 2 1301 0
	stw 11,.LANCHOR0@l(9)
	.loc 2 1302 0
	stw 10,0(8)
	.loc 2 1300 0
	or 3,3,0
.LVL356:
.LBE1069:
	.loc 2 1304 0
	blr
	.cfi_endproc
.LFE2574:
	.size	_Z6sgetU2PPh, .-_Z6sgetU2PPh
	.align 2
	.globl _Z6sgetU4PPh
	.type	_Z6sgetU4PPh, @function
_Z6sgetU4PPh:
.LFB2575:
	.loc 2 1308 0
	.cfi_startproc
.LVL357:
	stwu 1,-32(1)
.LCFI111:
	.cfi_def_cfa_offset 32
	mflr 0
	stw 31,28(1)
.LBB1070:
	.loc 2 1311 0
	lis 31,.LANCHOR0@ha
	.cfi_offset 31, -4
	.cfi_register 65, 0
.LBE1070:
	.loc 2 1308 0
	stw 0,36(1)
.LBB1071:
	.loc 2 1311 0
	lwz 0,.LANCHOR0@l(31)
	.cfi_offset 65, 4
.LBE1071:
	.loc 2 1308 0
	stw 30,24(1)
	.loc 2 1308 0
	mr 30,3
	.cfi_offset 30, -8
.LBB1072:
	.loc 2 1311 0
	cmpwi 7,0,-9999
	li 3,0
.LVL358:
	beq- 7,.L296
	.loc 2 1312 0
	lwz 9,0(30)
	mr 3,1
	.loc 2 1313 0
	li 4,4
	li 5,1
	.loc 2 1312 0
	lwz 0,0(9)
	stwu 0,8(3)
	.loc 2 1313 0
	bl _Z11BigRevBytesPvii
	.loc 2 1314 0
	lwz 9,.LANCHOR0@l(31)
	.loc 2 1315 0
	lwz 11,0(30)
	.loc 2 1314 0
	addi 9,9,4
.LVL359:
	.loc 2 1316 0
	lwz 3,8(1)
	.loc 2 1315 0
	addi 0,11,4
	.loc 2 1314 0
	stw 9,.LANCHOR0@l(31)
	.loc 2 1315 0
	stw 0,0(30)
.L296:
.LBE1072:
	.loc 2 1317 0
	lwz 0,36(1)
	lwz 30,24(1)
.LVL360:
	mtlr 0
	lwz 31,28(1)
	addi 1,1,32
.LCFI112:
	.cfi_def_cfa_offset 0
	.cfi_restore 31
	.cfi_restore 30
	blr
	.cfi_endproc
.LFE2575:
	.size	_Z6sgetU4PPh, .-_Z6sgetU4PPh
	.align 2
	.globl _Z6sgetVXPPh
	.type	_Z6sgetVXPPh, @function
_Z6sgetVXPPh:
.LFB2576:
	.loc 2 1321 0
	.cfi_startproc
.LVL361:
.LBB1073:
	.loc 2 1325 0
	lis 9,.LANCHOR0@ha
.LBE1073:
	.loc 2 1321 0
	mr 8,3
.LBB1074:
	.loc 2 1325 0
	lwz 11,.LANCHOR0@l(9)
	.loc 2 1322 0
	lwz 10,0(3)
.LVL362:
	.loc 2 1325 0
	li 3,0
.LVL363:
	cmpwi 7,11,-9999
	beqlr- 7
	.loc 2 1327 0
	lbz 0,0(10)
	cmpwi 7,0,255
	beq- 7,.L300
	.loc 2 1328 0
	lbz 7,1(10)
	slwi 3,0,8
	.loc 2 1329 0
	addi 11,11,2
	.loc 2 1330 0
	addi 10,10,2
	.loc 2 1328 0
	or 3,3,7
.LVL364:
	.loc 2 1329 0
	stw 11,.LANCHOR0@l(9)
	.loc 2 1330 0
	stw 10,0(8)
	blr
.LVL365:
.L300:
	.loc 2 1333 0
	lbz 3,1(10)
	.loc 2 1334 0
	addi 11,11,4
	.loc 2 1333 0
	lbz 7,2(10)
	lbz 0,3(10)
	slwi 3,3,16
	slwi 7,7,8
	.loc 2 1335 0
	addi 10,10,4
	.loc 2 1333 0
	or 3,3,7
	.loc 2 1334 0
	stw 11,.LANCHOR0@l(9)
	.loc 2 1335 0
	stw 10,0(8)
	.loc 2 1333 0
	or 3,3,0
.LVL366:
.LBE1074:
	.loc 2 1338 0
	blr
	.cfi_endproc
.LFE2576:
	.size	_Z6sgetVXPPh, .-_Z6sgetVXPPh
	.align 2
	.globl _Z6sgetF4PPh
	.type	_Z6sgetF4PPh, @function
_Z6sgetF4PPh:
.LFB2577:
	.loc 2 1342 0
	.cfi_startproc
.LVL367:
	stwu 1,-48(1)
.LCFI113:
	.cfi_def_cfa_offset 48
	mflr 0
.LBB1075:
	.loc 2 1345 0
	lis 9,.LC12@ha
.LBE1075:
	.loc 2 1342 0
	stw 31,36(1)
.LBB1076:
	.loc 2 1345 0
	lis 31,.LANCHOR0@ha
	.cfi_offset 31, -12
	.cfi_register 65, 0
.LBE1076:
	.loc 2 1342 0
	stw 0,52(1)
.LBB1077:
	.loc 2 1345 0
	lwz 0,.LANCHOR0@l(31)
	.cfi_offset 65, 4
.LBE1077:
	.loc 2 1342 0
	stfd 31,40(1)
.LBB1078:
	.loc 2 1345 0
	cmpwi 7,0,-9999
.LBE1078:
	.loc 2 1342 0
	stw 30,32(1)
.LBB1079:
	.loc 2 1345 0
	lfs 31,.LC12@l(9)
	.cfi_offset 30, -16
	.cfi_offset 63, -8
.LBE1079:
	.loc 2 1342 0
	mr 30,3
.LBB1080:
	.loc 2 1345 0
	beq- 7,.L303
	.loc 2 1346 0
	lwz 9,0(3)
	mr 3,1
.LVL368:
	.loc 2 1347 0
	li 4,4
	li 5,1
	.loc 2 1346 0
	lwz 0,0(9)
	stwu 0,8(3)
	.loc 2 1347 0
	bl _Z11BigRevBytesPvii
	.loc 2 1351 0
	lwz 0,8(1)
	.loc 2 1348 0
	lwz 11,.LANCHOR0@l(31)
	.loc 2 1349 0
	lwz 9,0(30)
	.loc 2 1351 0
	andis. 10,0,0x7f80
	.loc 2 1348 0
	addi 11,11,4
	.loc 2 1349 0
	addi 9,9,4
	.loc 2 1348 0
	stw 11,.LANCHOR0@l(31)
	.loc 2 1349 0
	stw 9,0(30)
	.loc 2 1351 0
	bne- 0,.L308
	.loc 2 1351 0 is_stmt 0 discriminator 1
	rlwinm. 9,0,0,9,31
	beq- 0,.L308
.L303:
.LBE1080:
	.loc 2 1355 0 is_stmt 1
	lwz 0,52(1)
	fmr 1,31
	lwz 30,32(1)
.LVL369:
	mtlr 0
	lwz 31,36(1)
	lfd 31,40(1)
	addi 1,1,48
	.cfi_remember_state
.LCFI114:
	.cfi_def_cfa_offset 0
	.cfi_restore 63
	.cfi_restore 31
	.cfi_restore 30
	blr
.LVL370:
.L308:
.LCFI115:
	.cfi_restore_state
.LBB1081:
	.loc 2 1351 0
	stw 0,24(1)
.LBE1081:
	.loc 2 1355 0
	lwz 0,52(1)
.LBB1082:
	.loc 2 1351 0
	lfs 31,24(1)
.LBE1082:
	.loc 2 1355 0
	mtlr 0
	lwz 30,32(1)
.LVL371:
	fmr 1,31
	lwz 31,36(1)
	lfd 31,40(1)
	addi 1,1,48
	.cfi_restore 30
	.cfi_restore 31
	.cfi_restore 63
.LCFI116:
	.cfi_def_cfa_offset 0
	blr
	.cfi_endproc
.LFE2577:
	.size	_Z6sgetF4PPh, .-_Z6sgetF4PPh
	.align 2
	.globl _Z6sgetS0PPh
	.type	_Z6sgetS0PPh, @function
_Z6sgetS0PPh:
.LFB2578:
	.loc 2 1359 0
	.cfi_startproc
.LVL372:
	stwu 1,-32(1)
.LCFI117:
	.cfi_def_cfa_offset 32
	mflr 0
	stw 30,24(1)
.LBB1087:
	.loc 2 1364 0
	lis 30,.LANCHOR0@ha
	.cfi_offset 30, -8
	.cfi_register 65, 0
.LBE1087:
	.loc 2 1359 0
	stw 26,8(1)
.LBB1088:
	.loc 2 1364 0
	lwz 26,.LANCHOR0@l(30)
	.cfi_offset 26, -24
.LBE1088:
	.loc 2 1359 0
	stw 28,16(1)
.LBB1089:
	.loc 2 1364 0
	li 28,0
	.cfi_offset 28, -16
	cmpwi 7,26,-9999
.LBE1089:
	.loc 2 1359 0
	stw 29,20(1)
	stw 0,36(1)
	mr 29,3
	.cfi_offset 65, 4
	.cfi_offset 29, -12
	stw 27,12(1)
	stw 31,28(1)
.LBB1090:
	.loc 2 1361 0
	lwz 27,0(3)
	.cfi_offset 31, -4
	.cfi_offset 27, -20
.LVL373:
	.loc 2 1364 0
	beq- 7,.L310
	.loc 2 1366 0
	mr 3,27
.LVL374:
	bl strlen
.LVL375:
	.loc 2 1367 0
	cmpwi 7,3,0
	addi 3,3,1
.LVL376:
	beq- 7,.L314
	.loc 2 1372 0
	rlwinm 31,3,0,31,31
	add 31,31,3
.LVL377:
	.loc 2 1373 0
	mr 3,31
	bl _Z16Mem_ClearedAlloci
.LVL378:
	.loc 2 1374 0
	mr. 28,3
	beq- 0,.L315
	.loc 2 1379 0
	mr 5,31
	mr 4,27
	bl memcpy
.LVL379:
	.loc 2 1380 0
	lwz 0,.LANCHOR0@l(30)
	.loc 2 1381 0
	lwz 9,0(29)
	.loc 2 1380 0
	add 0,0,31
	.loc 2 1381 0
	add 31,9,31
.LVL380:
	.loc 2 1380 0
	stw 0,.LANCHOR0@l(30)
	.loc 2 1381 0
	stw 31,0(29)
.LVL381:
.L310:
.LBE1090:
	.loc 2 1383 0
	lwz 0,36(1)
	mr 3,28
	lwz 26,8(1)
	mtlr 0
	lwz 27,12(1)
	lwz 28,16(1)
	lwz 29,20(1)
.LVL382:
	lwz 30,24(1)
	lwz 31,28(1)
	addi 1,1,32
	.cfi_remember_state
.LCFI118:
	.cfi_def_cfa_offset 0
	.cfi_restore 31
	.cfi_restore 30
	.cfi_restore 29
	.cfi_restore 28
	.cfi_restore 27
	.cfi_restore 26
	blr
.LVL383:
.L314:
.LCFI119:
	.cfi_restore_state
.LBB1091:
.LBB1092:
	.loc 2 1368 0
	addi 26,26,2
	.loc 2 1369 0
	addi 27,27,2
.LVL384:
	.loc 2 1368 0
	stw 26,.LANCHOR0@l(30)
	.loc 2 1369 0
	stw 27,0(29)
	b .L310
.LVL385:
.L315:
.LBE1092:
.LBE1091:
.LBB1093:
	.loc 2 1375 0
	li 0,-9999
	stw 0,.LANCHOR0@l(30)
	.loc 2 1376 0
	b .L310
.LBE1093:
	.cfi_endproc
.LFE2578:
	.size	_Z6sgetS0PPh, .-_Z6sgetS0PPh
	.align 2
	.globl _Z12lwFreePointsP14st_lwPointList
	.type	_Z12lwFreePointsP14st_lwPointList, @function
_Z12lwFreePointsP14st_lwPointList:
.LFB2588:
	.loc 2 2349 0
	.cfi_startproc
.LVL386:
	stwu 1,-24(1)
.LCFI120:
	.cfi_def_cfa_offset 24
	mflr 0
	stw 29,12(1)
.LBB1094:
	.loc 2 2352 0
	mr. 29,3
	.cfi_offset 29, -12
	.cfi_register 65, 0
.LBE1094:
	.loc 2 2349 0
	stw 0,28(1)
	stw 30,16(1)
	stw 31,20(1)
.LBB1095:
	.loc 2 2352 0
	beq- 0,.L316
	.cfi_offset 31, -4
	.cfi_offset 30, -8
	.cfi_offset 65, 4
	.loc 2 2353 0
	lwz 0,8(29)
	cmpwi 7,0,0
	beq- 7,.L318
.LVL387:
	.loc 2 2354 0 discriminator 1
	lwz 9,0(29)
	cmpwi 7,9,0
	ble- 7,.L319
	.loc 2 2354 0 is_stmt 0
	li 31,0
	li 30,0
.LVL388:
.L322:
	.loc 2 2355 0 is_stmt 1
	add 9,0,31
	.loc 2 2354 0
	addi 30,30,1
	.loc 2 2355 0
	lwz 3,16(9)
	cmpwi 7,3,0
	beq- 7,.L320
	.loc 2 2355 0 is_stmt 0 discriminator 1
	bl _Z8Mem_FreePv
	lwz 0,8(29)
	add 9,0,31
.L320:
	.loc 2 2356 0 is_stmt 1
	lwz 3,24(9)
	.loc 2 2354 0
	addi 31,31,28
	.loc 2 2356 0
	cmpwi 7,3,0
	beq- 7,.L321
	.loc 2 2356 0 is_stmt 0 discriminator 1
	bl _Z8Mem_FreePv
	lwz 0,8(29)
.L321:
.LVL389:
	.loc 2 2354 0 is_stmt 1
	lwz 9,0(29)
	cmpw 7,9,30
	bgt+ 7,.L322
.LVL390:
.L319:
	.loc 2 2358 0
	mr 3,0
	bl _Z8Mem_FreePv
.L318:
	.loc 2 2360 0
	li 0,0
	stw 0,0(29)
	stw 0,4(29)
	stw 0,8(29)
.L316:
.LBE1095:
	.loc 2 2362 0
	lwz 0,28(1)
	lwz 29,12(1)
.LVL391:
	mtlr 0
	lwz 30,16(1)
	lwz 31,20(1)
	addi 1,1,24
.LCFI121:
	.cfi_def_cfa_offset 0
	.cfi_restore 31
	.cfi_restore 30
	.cfi_restore 29
	blr
	.cfi_endproc
.LFE2588:
	.size	_Z12lwFreePointsP14st_lwPointList, .-_Z12lwFreePointsP14st_lwPointList
	.align 2
	.globl _Z14lwFreePolygonsP16st_lwPolygonList
	.type	_Z14lwFreePolygonsP16st_lwPolygonList, @function
_Z14lwFreePolygonsP16st_lwPolygonList:
.LFB2589:
	.loc 2 2373 0
	.cfi_startproc
.LVL392:
	stwu 1,-32(1)
.LCFI122:
	.cfi_def_cfa_offset 32
	mflr 0
	stw 28,16(1)
.LBB1096:
	.loc 2 2376 0
	mr. 28,3
	.cfi_offset 28, -16
	.cfi_register 65, 0
.LBE1096:
	.loc 2 2373 0
	stw 0,36(1)
	stw 27,12(1)
	stw 29,20(1)
	stw 30,24(1)
	stw 31,28(1)
.LBB1097:
	.loc 2 2376 0
	beq- 0,.L324
	.cfi_offset 31, -4
	.cfi_offset 30, -8
	.cfi_offset 29, -12
	.cfi_offset 27, -20
	.cfi_offset 65, 4
	.loc 2 2377 0
	lwz 9,16(28)
	cmpwi 7,9,0
	mr 3,9
.LVL393:
	beq- 7,.L326
.LVL394:
	.loc 2 2378 0 discriminator 1
	lwz 10,0(28)
	cmpwi 7,10,0
	ble- 7,.L327
	.loc 2 2378 0 is_stmt 0
	li 29,0
	li 27,0
.LVL395:
.L331:
	.loc 2 2379 0 is_stmt 1
	add 11,9,29
	lwz 0,36(11)
	cmpwi 7,0,0
	beq- 7,.L328
.LVL396:
	.loc 2 2380 0 discriminator 1
	lwz 11,32(11)
	cmpwi 7,11,0
	ble- 7,.L328
	.loc 2 2380 0 is_stmt 0
	li 30,0
	li 31,0
	b .L330
.LVL397:
.L335:
	lwz 0,36(11)
.LVL398:
.L330:
	.loc 2 2381 0 is_stmt 1
	add 11,0,30
	.loc 2 2380 0
	addi 31,31,1
	.loc 2 2381 0
	lwz 3,20(11)
	.loc 2 2380 0
	addi 30,30,24
	.loc 2 2381 0
	cmpwi 7,3,0
	beq- 7,.L329
	.loc 2 2382 0
	bl _Z8Mem_FreePv
	lwz 9,16(28)
.L329:
.LVL399:
	.loc 2 2380 0
	add 11,9,29
	mr 3,9
	lwz 0,32(11)
	cmpw 7,0,31
	bgt+ 7,.L335
	lwz 10,0(28)
.LVL400:
.L328:
	.loc 2 2378 0
	addi 27,27,1
.LVL401:
	addi 29,29,40
	cmpw 7,10,27
	bgt+ 7,.L331
.LVL402:
.L327:
	.loc 2 2385 0
	lwz 0,36(9)
	cmpwi 7,0,0
	beq- 7,.L332
	.loc 2 2386 0
	mr 3,0
	bl _Z8Mem_FreePv
	lwz 3,16(28)
.L332:
	.loc 2 2387 0
	bl _Z8Mem_FreePv
.L326:
	.loc 2 2389 0
	li 0,0
	stw 0,0(28)
	stw 0,4(28)
	stw 0,8(28)
	stw 0,12(28)
	stw 0,16(28)
.L324:
.LBE1097:
	.loc 2 2391 0
	lwz 0,36(1)
	lwz 27,12(1)
	mtlr 0
	lwz 28,16(1)
.LVL403:
	lwz 29,20(1)
	lwz 30,24(1)
	lwz 31,28(1)
	addi 1,1,32
.LCFI123:
	.cfi_def_cfa_offset 0
	.cfi_restore 31
	.cfi_restore 30
	.cfi_restore 29
	.cfi_restore 28
	.cfi_restore 27
	blr
	.cfi_endproc
.LFE2589:
	.size	_Z14lwFreePolygonsP16st_lwPolygonList, .-_Z14lwFreePolygonsP16st_lwPolygonList
	.align 2
	.globl _Z11lwGetPointsP6idFileiP14st_lwPointList
	.type	_Z11lwGetPointsP6idFileiP14st_lwPointList, @function
_Z11lwGetPointsP6idFileiP14st_lwPointList:
.LFB2590:
	.loc 2 2403 0
	.cfi_startproc
.LVL404:
.LBB1102:
	.loc 2 2407 0
	cmpwi 7,4,1
.LBE1102:
	.loc 2 2403 0
	mflr 0
	stwu 1,-32(1)
.LCFI124:
	.cfi_def_cfa_offset 32
	.cfi_register 65, 0
.LBB1103:
	.loc 2 2407 0
	li 9,1
.LBE1103:
	.loc 2 2403 0
	stw 27,12(1)
	mr 27,3
	.cfi_offset 27, -20
	stw 29,20(1)
	mr 29,4
	.cfi_offset 29, -12
	stw 31,28(1)
	mr 31,5
	.cfi_offset 31, -4
	stw 0,36(1)
	stw 28,16(1)
	stw 30,24(1)
.LBB1104:
	.loc 2 2407 0
	beq- 7,.L337
	.cfi_offset 30, -8
	.cfi_offset 28, -16
	.cfi_offset 65, 4
.LVL405:
.LBE1104:
.LBB1105:
.LBB1106:
	.loc 2 2411 0
	lis 28,0x2aaa
	.loc 2 2412 0
	lwz 3,0(5)
.LVL406:
	.loc 2 2411 0
	ori 28,28,43691
	srawi 0,4,31
	mulhw 28,4,28
	.loc 2 2412 0
	stw 3,4(5)
	.loc 2 2414 0
	lwz 30,8(5)
	.loc 2 2411 0
	srawi 28,28,1
	subf 28,0,28
.LVL407:
	.loc 2 2413 0
	add 3,28,3
	stw 3,0(5)
	.loc 2 2415 0
	mulli 3,3,28
	bl _Z9Mem_Alloci
.LVL408:
	.loc 2 2416 0
	li 9,0
	cmpwi 7,3,0
	.loc 2 2415 0
	mr 0,3
	stw 3,8(31)
	.loc 2 2416 0
	beq- 7,.L337
	.loc 2 2417 0
	cmpwi 7,30,0
	beq- 7,.L339
	.loc 2 2418 0
	lwz 5,4(31)
	mr 4,30
	mulli 5,5,28
	bl memcpy
	.loc 2 2419 0
	mr 3,30
	bl _Z8Mem_FreePv
	lwz 0,8(31)
.L339:
	.loc 2 2421 0
	lwz 3,4(31)
	mulli 30,28,28
.LVL409:
	li 4,0
	mulli 3,3,28
	mr 5,30
	add 3,0,3
	bl memset
	.loc 2 2425 0
	mr 4,29
	mr 3,27
	bl _Z8getbytesP6idFilei
.LVL410:
	.loc 2 2426 0
	li 9,0
	mr. 29,3
.LVL411:
	beq- 0,.L337
	.loc 2 2427 0
	mulli 5,28,3
	li 4,4
	bl _Z11BigRevBytesPvii
.LVL412:
	.loc 2 2431 0
	cmpwi 7,28,0
	ble- 7,.L340
	mr 11,29
	li 9,0
.LVL413:
.L341:
	.loc 2 2432 0
	lwz 0,0(11)
	lwz 10,8(31)
	stwx 0,10,9
	.loc 2 2433 0
	lwz 10,8(31)
	lwz 0,4(11)
	add 10,10,9
	stw 0,4(10)
	.loc 2 2434 0
	lwz 10,8(31)
	lwz 0,8(11)
	addi 11,11,12
	add 10,10,9
	addi 9,9,28
	.loc 2 2431 0
	cmpw 7,30,9
	.loc 2 2434 0
	stw 0,8(10)
	.loc 2 2431 0
	bne+ 7,.L341
.L340:
	.loc 2 2437 0
	mr 3,29
	bl _Z8Mem_FreePv
	.loc 2 2438 0
	li 9,1
.LVL414:
.L337:
.LBE1106:
.LBE1105:
	.loc 2 2439 0
	lwz 0,36(1)
	mr 3,9
	lwz 27,12(1)
.LVL415:
	mtlr 0
	lwz 28,16(1)
	lwz 29,20(1)
	lwz 30,24(1)
	lwz 31,28(1)
.LVL416:
	addi 1,1,32
.LCFI125:
	.cfi_def_cfa_offset 0
	.cfi_restore 31
	.cfi_restore 30
	.cfi_restore 29
	.cfi_restore 28
	.cfi_restore 27
	blr
	.cfi_endproc
.LFE2590:
	.size	_Z11lwGetPointsP6idFileiP14st_lwPointList, .-_Z11lwGetPointsP6idFileiP14st_lwPointList
	.align 2
	.globl _Z16lwGetBoundingBoxP14st_lwPointListPf
	.type	_Z16lwGetBoundingBoxP14st_lwPointListPf, @function
_Z16lwGetBoundingBoxP14st_lwPointListPf:
.LFB2591:
	.loc 2 2451 0
	.cfi_startproc
.LVL417:
.LBB1111:
	.loc 2 2454 0
	lwz 0,0(3)
	cmpwi 7,0,0
	beqlr- 7
	.loc 2 2457 0
	lis 11,.LC12@ha
	li 0,6
	lfs 13,.LC12@l(11)
	mtctr 0
	.loc 2 2454 0
	li 9,0
.L348:
	.loc 2 2457 0
	lfsx 0,4,9
	addi 9,9,4
	fcmpu 7,0,13
	bnelr- 7
	.loc 2 2456 0
	bdnz .L348
.LVL418:
.LBE1111:
.LBB1112:
.LBB1113:
	.loc 2 2459 0
	lis 9,.LC19@ha
	.loc 2 2460 0
	lis 11,.LC20@ha
	lwz 0,.LC20@l(11)
	.loc 2 2459 0
	lwz 9,.LC19@l(9)
	.loc 2 2460 0
	stw 0,20(4)
	.loc 2 2459 0
	stw 9,8(4)
	stw 9,4(4)
	stw 9,0(4)
	.loc 2 2460 0
	stw 0,16(4)
	stw 0,12(4)
.LVL419:
	.loc 2 2461 0
	lwz 0,0(3)
	cmpwi 7,0,0
	blelr- 7
	li 10,0
	li 7,0
	addi 4,4,-4
.LVL420:
.L349:
	.loc 2 2450 0
	mr 11,4
.LBE1113:
.LBE1112:
.LBB1115:
	li 9,0
.LVL421:
.L354:
.LBE1115:
.LBB1116:
.LBB1114:
	.loc 2 2463 0
	lwz 8,8(3)
	slwi 0,9,2
	lfsu 13,4(11)
	.loc 2 2462 0
	cmpwi 7,9,2
	.loc 2 2463 0
	add 8,8,0
	.loc 2 2462 0
	addi 9,9,1
	.loc 2 2463 0
	lfsx 0,8,10
	fcmpu 6,13,0
	bng- 6,.L350
	.loc 2 2464 0
	stfs 0,0(11)
	lwz 8,8(3)
	add 8,8,0
	lfsx 0,8,10
.L350:
	.loc 2 2465 0
	lfs 13,12(11)
	fcmpu 6,13,0
	bnl- 6,.L352
	.loc 2 2466 0
	stfs 0,12(11)
.L352:
	.loc 2 2462 0
	bne+ 7,.L354
	.loc 2 2461 0
	lwz 0,0(3)
	addi 7,7,1
.LVL422:
	addi 10,10,28
	cmpw 7,7,0
	blt+ 7,.L349
	blr
.LBE1114:
.LBE1116:
	.cfi_endproc
.LFE2591:
	.size	_Z16lwGetBoundingBoxP14st_lwPointListPf, .-_Z16lwGetBoundingBoxP14st_lwPointListPf
	.align 2
	.globl _Z15lwAllocPolygonsP16st_lwPolygonListii
	.type	_Z15lwAllocPolygonsP16st_lwPolygonListii, @function
_Z15lwAllocPolygonsP16st_lwPolygonListii:
.LFB2592:
	.loc 2 2480 0
	.cfi_startproc
.LVL423:
	mflr 0
	stwu 1,-24(1)
.LCFI126:
	.cfi_def_cfa_offset 24
	.cfi_register 65, 0
	stw 28,8(1)
	mr 28,5
	.cfi_offset 28, -16
	stw 29,12(1)
	mr 29,4
	.cfi_offset 29, -12
	stw 31,20(1)
	mr 31,3
	.cfi_offset 31, -4
	stw 0,28(1)
	stw 30,16(1)
.LBB1117:
	.loc 2 2483 0
	lwz 0,0(3)
	.cfi_offset 30, -8
	.cfi_offset 65, 4
	.loc 2 2485 0
	lwz 30,16(31)
.LVL424:
	.loc 2 2484 0
	add 3,0,4
.LVL425:
	.loc 2 2483 0
	stw 0,4(31)
	.loc 2 2484 0
	stw 3,0(31)
	.loc 2 2486 0
	mulli 3,3,40
	bl _Z9Mem_Alloci
.LVL426:
	.loc 2 2487 0
	li 9,0
	cmpwi 7,3,0
	.loc 2 2486 0
	mr 0,3
	stw 3,16(31)
	.loc 2 2487 0
	beq- 7,.L362
	.loc 2 2488 0
	cmpwi 7,30,0
	beq- 7,.L363
	.loc 2 2489 0
	lwz 5,4(31)
	mr 4,30
	mulli 5,5,40
	bl memcpy
	.loc 2 2490 0
	mr 3,30
	bl _Z8Mem_FreePv
	lwz 0,16(31)
.LVL427:
.L363:
	.loc 2 2492 0
	lwz 3,4(31)
	mulli 5,29,40
	li 4,0
	mulli 3,3,40
	add 3,0,3
	bl memset
	.loc 2 2494 0
	lwz 0,8(31)
	.loc 2 2496 0
	lwz 29,16(31)
.LVL428:
	.loc 2 2495 0
	add 3,0,28
	.loc 2 2494 0
	stw 0,12(31)
	.loc 2 2495 0
	stw 3,8(31)
	.loc 2 2497 0
	mulli 3,3,24
	.loc 2 2496 0
	lwz 30,36(29)
.LVL429:
	.loc 2 2497 0
	bl _Z9Mem_Alloci
.LVL430:
	stw 3,36(29)
	.loc 2 2498 0
	li 9,0
	lwz 11,16(31)
	lwz 0,36(11)
	cmpwi 7,0,0
	beq- 7,.L362
	.loc 2 2499 0
	cmpwi 7,30,0
	beq- 7,.L364
	.loc 2 2500 0
	lwz 5,12(31)
	mr 3,0
	mr 4,30
	mulli 5,5,24
	bl memcpy
	.loc 2 2501 0
	mr 3,30
	bl _Z8Mem_FreePv
	lwz 9,16(31)
	lwz 0,36(9)
.L364:
	.loc 2 2503 0
	lwz 3,12(31)
	mulli 5,28,24
	li 4,0
	mulli 3,3,24
	add 3,0,3
	bl memset
.LVL431:
	.loc 2 2507 0
	lwz 0,4(31)
	.loc 2 2510 0
	li 9,1
	.loc 2 2507 0
	cmpwi 7,0,1
	ble- 7,.L362
	li 11,0
.LVL432:
.L365:
	.loc 2 2508 0 discriminator 2
	lwz 10,16(31)
	addi 0,11,40
	.loc 2 2507 0 discriminator 2
	addi 9,9,1
.LVL433:
	.loc 2 2508 0 discriminator 2
	add 11,10,11
	add 10,10,0
	lwz 7,32(11)
	lwz 8,36(11)
	mulli 11,7,24
	add 11,8,11
	stw 11,36(10)
	.loc 2 2507 0 discriminator 2
	mr 11,0
	lwz 10,4(31)
	cmpw 7,10,9
	bgt+ 7,.L365
	.loc 2 2510 0
	li 9,1
.LVL434:
.L362:
.LBE1117:
	.loc 2 2511 0
	lwz 0,28(1)
	mr 3,9
	lwz 28,8(1)
.LVL435:
	mtlr 0
	lwz 29,12(1)
	lwz 30,16(1)
	lwz 31,20(1)
.LVL436:
	addi 1,1,24
.LCFI127:
	.cfi_def_cfa_offset 0
	.cfi_restore 31
	.cfi_restore 30
	.cfi_restore 29
	.cfi_restore 28
	blr
	.cfi_endproc
.LFE2592:
	.size	_Z15lwAllocPolygonsP16st_lwPolygonListii, .-_Z15lwAllocPolygonsP16st_lwPolygonListii
	.align 2
	.globl _Z14lwGetPolygons5P6idFileiP16st_lwPolygonListi
	.type	_Z14lwGetPolygons5P6idFileiP16st_lwPolygonListi, @function
_Z14lwGetPolygons5P6idFileiP16st_lwPolygonListi:
.LFB2586:
	.loc 2 2129 0
	.cfi_startproc
.LVL437:
	stwu 1,-64(1)
.LCFI128:
	.cfi_def_cfa_offset 64
	mflr 0
	stw 30,56(1)
.LBB1118:
	.loc 2 2136 0
	mr. 30,4
	.cfi_offset 30, -8
	.cfi_register 65, 0
.LBE1118:
	.loc 2 2129 0
	stw 0,68(1)
.LBB1135:
	.loc 2 2136 0
	li 0,1
	.cfi_offset 65, 4
.LBE1135:
	.loc 2 2129 0
	stw 29,52(1)
	mr 29,6
	.cfi_offset 29, -12
	stw 31,60(1)
	mr 31,5
	.cfi_offset 31, -4
	stw 23,28(1)
	stw 24,32(1)
	stw 25,36(1)
	stw 26,40(1)
	stw 27,44(1)
	stw 28,48(1)
.LBB1136:
	.loc 2 2136 0
	bne- 0,.L393
	.cfi_offset 28, -16
	.cfi_offset 27, -20
	.cfi_offset 26, -24
	.cfi_offset 25, -28
	.cfi_offset 24, -32
	.cfi_offset 23, -36
.LBE1136:
	.loc 2 2195 0
	mr 3,0
.LVL438:
	lwz 0,68(1)
	lwz 23,28(1)
	mtlr 0
	lwz 24,32(1)
	lwz 25,36(1)
	lwz 26,40(1)
	lwz 27,44(1)
	lwz 28,48(1)
	lwz 29,52(1)
	lwz 30,56(1)
	lwz 31,60(1)
	addi 1,1,64
	.cfi_remember_state
.LCFI129:
	.cfi_def_cfa_offset 0
	.cfi_restore 31
	.cfi_restore 30
	.cfi_restore 29
	.cfi_restore 28
	.cfi_restore 27
	.cfi_restore 26
	.cfi_restore 25
	.cfi_restore 24
	.cfi_restore 23
	blr
.LVL439:
.L393:
.LCFI130:
	.cfi_restore_state
.LBB1137:
.LBB1119:
.LBB1120:
	.loc 2 1002 0
	li 0,0
	lis 26,.LANCHOR0@ha
	stw 0,.LANCHOR0@l(26)
.LBE1120:
.LBE1119:
	.loc 2 2141 0
	bl _Z8getbytesP6idFilei
.LVL440:
	.loc 2 2142 0
	mr. 28,3
	beq- 0,.L372
.LVL441:
	.loc 2 2148 0
	mr 25,1
	add 24,28,30
	stwu 28,8(25)
.LVL442:
	.loc 2 2150 0
	mr 9,28
	.loc 2 2147 0
	li 30,0
.LVL443:
	.loc 2 2146 0
	li 27,0
.LVL444:
.L392:
	.loc 2 2150 0 discriminator 1
	cmplw 7,9,24
	.loc 2 2155 0 discriminator 1
	mr 3,25
.LBB1121:
.LBB1122:
	.loc 2 1299 0 discriminator 1
	li 10,0
	li 0,0
.LBE1122:
.LBE1121:
	.loc 2 2150 0 discriminator 1
	bge- 7,.L394
.L377:
.LVL445:
.LBB1126:
.LBB1123:
	.loc 2 1299 0
	lwz 11,.LANCHOR0@l(26)
.LBE1123:
.LBE1126:
	.loc 2 2153 0
	addi 30,30,1
.LVL446:
.LBB1127:
.LBB1124:
	.loc 2 1299 0
	cmpwi 7,11,-9999
	.loc 2 1301 0
	addi 11,11,2
	.loc 2 1299 0
	beq- 7,.L374
	.loc 2 1300 0
	lbz 0,0(9)
	lbz 10,1(9)
	.loc 2 1302 0
	addi 9,9,2
.LVL447:
	.loc 2 1300 0
	slwi 0,0,8
.LVL448:
	.loc 2 1301 0
	stw 11,.LANCHOR0@l(26)
	.loc 2 1302 0
	or 0,0,10
.LVL449:
	slwi 10,0,1
.LVL450:
.L374:
.LBE1124:
.LBE1127:
	.loc 2 2154 0
	add 9,9,10
	.loc 2 2152 0
	add 27,27,0
.LVL451:
	.loc 2 2154 0
	stw 9,8(1)
.LVL452:
	.loc 2 2155 0
	bl _Z6sgetI2PPh
.LVL453:
	.loc 2 2156 0
	cmpwi 7,3,0
	lwz 9,8(1)
	bge+ 7,.L392
	.loc 2 2156 0 is_stmt 0 discriminator 1
	addi 9,9,2
	.loc 2 2155 0 is_stmt 1 discriminator 1
	mr 3,25
.LVL454:
	.loc 2 2150 0 discriminator 1
	cmplw 7,9,24
	.loc 2 2156 0 discriminator 1
	stw 9,8(1)
.LBB1128:
.LBB1125:
	.loc 2 1299 0 discriminator 1
	li 10,0
	li 0,0
.LBE1125:
.LBE1128:
	.loc 2 2150 0 discriminator 1
	blt+ 7,.L377
.LVL455:
.L394:
	.loc 2 2159 0
	mr 3,31
	mr 4,30
	mr 5,27
	bl _Z15lwAllocPolygonsP16st_lwPolygonListii
	cmpwi 7,3,0
	beq- 7,.L378
	.loc 2 2168 0
	cmpwi 7,30,0
	.loc 2 2165 0
	lwz 9,16(31)
	.loc 2 2164 0
	stw 28,8(1)
	.loc 2 2165 0
	lwz 11,4(31)
.LVL456:
	.loc 2 2166 0
	lwz 25,36(9)
	lwz 0,12(31)
.LVL457:
	.loc 2 2168 0
	beq- 7,.L379
	.loc 2 2165 0
	mulli 31,11,40
.LVL458:
	lis 27,.LANCHOR0@ha
.LVL459:
	.loc 2 2166 0
	mulli 0,0,24
.LVL460:
	.loc 2 2172 0
	lis 23,0x4641
	.loc 2 2165 0
	add 31,9,31
	.loc 2 2168 0
	li 26,0
	.loc 2 2166 0
	add 25,25,0
	mr 9,28
.LVL461:
	la 27,.LANCHOR0@l(27)
	.loc 2 2172 0
	ori 23,23,17221
.LVL462:
.L386:
.LBB1129:
.LBB1130:
	.loc 2 1299 0
	lwz 11,0(27)
	li 24,0
	li 0,0
	cmpwi 7,11,-9999
	beq- 7,.L380
	.loc 2 1300 0
	lbz 0,0(9)
	.loc 2 1301 0
	addi 11,11,2
	.loc 2 1300 0
	lbz 10,1(9)
	.loc 2 1302 0
	addi 9,9,2
.LVL463:
	.loc 2 1300 0
	slwi 0,0,8
.LVL464:
	.loc 2 1301 0
	stw 11,0(27)
	.loc 2 1302 0
	or 0,0,10
.LVL465:
	stw 9,8(1)
	mulli 24,0,24
.LVL466:
.L380:
.LBE1130:
.LBE1129:
	.loc 2 2173 0
	lwz 9,36(31)
	.loc 2 2171 0
	stw 0,32(31)
	.loc 2 2173 0
	cmpwi 7,9,0
	.loc 2 2172 0
	stw 23,16(31)
	.loc 2 2173 0
	beq- 7,.L395
.L381:
.LVL467:
	.loc 2 2174 0 discriminator 1
	cmpwi 7,0,0
	beq- 7,.L382
	.loc 2 2174 0 is_stmt 0
	lwz 10,0(27)
.LBB1131:
.LBB1132:
	.loc 2 1299 0 is_stmt 1
	mtctr 0
.LBE1132:
.LBE1131:
	.loc 2 2174 0
	mr 11,25
.LVL468:
.L384:
.LBB1134:
.LBB1133:
	.loc 2 1299 0 discriminator 2
	cmpwi 7,10,-9999
	.loc 2 1296 0 discriminator 2
	lwz 9,8(1)
.LVL469:
	.loc 2 1299 0 discriminator 2
	li 0,0
	.loc 2 1302 0 discriminator 2
	addi 8,9,2
	.loc 2 1299 0 discriminator 2
	beq- 7,.L383
	.loc 2 1300 0
	lbz 0,0(9)
	.loc 2 1301 0
	addi 10,10,2
	.loc 2 1300 0
	lbz 9,1(9)
	slwi 0,0,8
.LVL470:
	.loc 2 1302 0
	stw 8,8(1)
	or 0,0,9
.LVL471:
.L383:
.LBE1133:
.LBE1134:
	.loc 2 2175 0
	add 0,29,0
	stw 0,0(11)
	.loc 2 2174 0
	addi 11,11,24
	bdnz .L384
	stw 10,0(27)
.LVL472:
.L382:
	.loc 2 2176 0
	addi 3,1,8
.LVL473:
	bl _Z6sgetI2PPh
.LVL474:
	.loc 2 2177 0
	cmpwi 0,3,0
	blt- 0,.L396
.LVL475:
	.loc 2 2168 0
	addi 26,26,1
	.loc 2 2181 0
	addi 3,3,-1
.LVL476:
	.loc 2 2168 0
	cmpw 7,26,30
	.loc 2 2182 0
	stw 3,0(31)
.LVL477:
	.loc 2 2168 0
	beq- 7,.L379
.LVL478:
.L397:
	.loc 2 2184 0
	addi 31,31,40
	.loc 2 2185 0
	add 25,25,24
	lwz 9,8(1)
	b .L386
.LVL479:
.L378:
	.loc 2 2192 0
	mr 3,28
	bl _Z8Mem_FreePv
.LVL480:
.L372:
	.loc 2 2193 0
	mr 3,31
	bl _Z14lwFreePolygonsP16st_lwPolygonList
	.loc 2 2194 0
	li 0,0
.LBE1137:
	.loc 2 2195 0
	mr 3,0
	lwz 0,68(1)
	lwz 23,28(1)
	mtlr 0
	lwz 24,32(1)
	lwz 25,36(1)
	lwz 26,40(1)
	lwz 27,44(1)
	lwz 28,48(1)
.LVL481:
	lwz 29,52(1)
.LVL482:
	lwz 30,56(1)
	lwz 31,60(1)
.LVL483:
	addi 1,1,64
	.cfi_remember_state
	.cfi_restore 23
	.cfi_restore 24
	.cfi_restore 25
	.cfi_restore 26
	.cfi_restore 27
	.cfi_restore 28
	.cfi_restore 29
	.cfi_restore 30
	.cfi_restore 31
.LCFI131:
	.cfi_def_cfa_offset 0
	blr
.LVL484:
.L396:
.LCFI132:
	.cfi_restore_state
.LBB1138:
	.loc 2 2168 0
	addi 26,26,1
	.loc 2 2179 0
	lwz 9,8(1)
	.loc 2 2168 0
	cmpw 7,26,30
	.loc 2 2178 0
	neg 3,3
.LVL485:
	.loc 2 2179 0
	addi 0,9,2
	.loc 2 2181 0
	addi 3,3,-1
.LVL486:
	.loc 2 2179 0
	stw 0,8(1)
.LVL487:
	.loc 2 2182 0
	stw 3,0(31)
.LVL488:
	.loc 2 2168 0
	bne+ 7,.L397
.LVL489:
.L379:
	.loc 2 2188 0
	mr 3,28
	bl _Z8Mem_FreePv
	.loc 2 2189 0
	li 0,1
.LBE1138:
	.loc 2 2195 0
	mr 3,0
	lwz 0,68(1)
	lwz 23,28(1)
	mtlr 0
	lwz 24,32(1)
	lwz 25,36(1)
	lwz 26,40(1)
	lwz 27,44(1)
	lwz 28,48(1)
.LVL490:
	lwz 29,52(1)
.LVL491:
	lwz 30,56(1)
.LVL492:
	lwz 31,60(1)
	addi 1,1,64
	.cfi_remember_state
	.cfi_restore 23
	.cfi_restore 24
	.cfi_restore 25
	.cfi_restore 26
	.cfi_restore 27
	.cfi_restore 28
	.cfi_restore 29
	.cfi_restore 30
	.cfi_restore 31
.LCFI133:
	.cfi_def_cfa_offset 0
	blr
.LVL493:
.L395:
.LCFI134:
	.cfi_restore_state
.LBB1139:
	.loc 2 2173 0 discriminator 1
	stw 25,36(31)
	b .L381
.LBE1139:
	.cfi_endproc
.LFE2586:
	.size	_Z14lwGetPolygons5P6idFileiP16st_lwPolygonListi, .-_Z14lwGetPolygons5P6idFileiP16st_lwPolygonListi
	.align 2
	.globl _Z13lwGetPolygonsP6idFileiP16st_lwPolygonListi
	.type	_Z13lwGetPolygonsP6idFileiP16st_lwPolygonListi, @function
_Z13lwGetPolygonsP6idFileiP16st_lwPolygonListi:
.LFB2593:
	.loc 2 2523 0
	.cfi_startproc
.LVL494:
	stwu 1,-80(1)
.LCFI135:
	.cfi_def_cfa_offset 80
	mflr 0
	stw 31,76(1)
.LBB1140:
	.loc 2 2531 0
	mr. 31,4
	.cfi_offset 31, -4
	.cfi_register 65, 0
.LBE1140:
	.loc 2 2523 0
	stw 0,84(1)
.LBB1157:
	.loc 2 2531 0
	li 0,1
	.cfi_offset 65, 4
.LBE1157:
	.loc 2 2523 0
	stw 28,64(1)
	mr 28,6
	.cfi_offset 28, -16
	stw 29,68(1)
	mr 29,3
	.cfi_offset 29, -12
	stw 30,72(1)
	mr 30,5
	.cfi_offset 30, -8
	stw 19,28(1)
	stw 20,32(1)
	stw 21,36(1)
	stw 22,40(1)
	stw 23,44(1)
	stw 24,48(1)
	stw 25,52(1)
	stw 26,56(1)
	stw 27,60(1)
.LBB1158:
	.loc 2 2531 0
	bne- 0,.L416
	.cfi_offset 27, -20
	.cfi_offset 26, -24
	.cfi_offset 25, -28
	.cfi_offset 24, -32
	.cfi_offset 23, -36
	.cfi_offset 22, -40
	.cfi_offset 21, -44
	.cfi_offset 20, -48
	.cfi_offset 19, -52
.LVL495:
.L399:
.LBE1158:
	.loc 2 2587 0
	mr 3,0
	lwz 0,84(1)
	lwz 19,28(1)
	mtlr 0
	lwz 20,32(1)
	lwz 21,36(1)
	lwz 22,40(1)
	lwz 23,44(1)
	lwz 24,48(1)
	lwz 25,52(1)
	lwz 26,56(1)
	lwz 27,60(1)
	lwz 28,64(1)
.LVL496:
	lwz 29,68(1)
	lwz 30,72(1)
	lwz 31,76(1)
	addi 1,1,80
	.cfi_remember_state
.LCFI136:
	.cfi_def_cfa_offset 0
	.cfi_restore 31
	.cfi_restore 30
	.cfi_restore 29
	.cfi_restore 28
	.cfi_restore 27
	.cfi_restore 26
	.cfi_restore 25
	.cfi_restore 24
	.cfi_restore 23
	.cfi_restore 22
	.cfi_restore 21
	.cfi_restore 20
	.cfi_restore 19
	blr
.LVL497:
.L416:
.LCFI137:
	.cfi_restore_state
.LBB1159:
.LBB1141:
.LBB1142:
	.loc 2 1002 0
	li 0,0
	lis 26,.LANCHOR0@ha
	stw 0,.LANCHOR0@l(26)
.LBE1142:
.LBE1141:
	.loc 2 2537 0
	addi 25,31,-4
	.loc 2 2536 0
	bl _Z5getU4P6idFile
.LVL498:
	.loc 2 2537 0
	mr 4,25
	.loc 2 2536 0
	mr 27,3
.LVL499:
	.loc 2 2537 0
	mr 3,29
.LVL500:
	bl _Z8getbytesP6idFilei
	.loc 2 2538 0
	lwz 0,.LANCHOR0@l(26)
	.loc 2 2537 0
	mr 29,3
.LVL501:
	.loc 2 2538 0
	cmpw 7,31,0
	beq- 7,.L417
.LVL502:
.L400:
	.loc 2 2584 0
	cmpwi 7,29,0
	beq- 7,.L411
	.loc 2 2584 0 is_stmt 0 discriminator 1
	mr 3,29
	bl _Z8Mem_FreePv
.L411:
	.loc 2 2585 0 is_stmt 1
	mr 3,30
	bl _Z14lwFreePolygonsP16st_lwPolygonList
	.loc 2 2586 0
	li 0,0
	b .L399
.LVL503:
.L417:
	.loc 2 2544 0
	add 23,3,25
	.loc 2 2537 0
	mr 9,3
	.loc 2 2546 0
	cmplw 7,9,23
	.loc 2 2544 0
	mr 21,1
	.loc 2 2546 0
	li 24,1
	.loc 2 2544 0
	stwu 3,8(21)
.LVL504:
	.loc 2 2542 0
	li 25,0
	.loc 2 2522 0
	addi 31,24,-1
.LVL505:
	.loc 2 2546 0
	bge- 7,.L418
.L404:
.LVL506:
.LBB1143:
.LBB1144:
	.loc 2 1299 0
	lwz 11,.LANCHOR0@l(26)
	cmpwi 7,11,-9999
	beq- 7,.L402
	.loc 2 1300 0
	lbz 31,0(9)
	.loc 2 1301 0
	addi 11,11,2
	.loc 2 1300 0
	lbz 0,1(9)
	.loc 2 1302 0
	addi 9,9,2
.LVL507:
	.loc 2 1300 0
	rlwinm 31,31,8,22,23
	.loc 2 1301 0
	stw 11,.LANCHOR0@l(26)
.LBE1144:
.LBE1143:
	.loc 2 2548 0
	or 31,31,0
.LBB1146:
.LBB1145:
	.loc 2 1302 0
	stw 9,8(1)
.LVL508:
.LBE1145:
.LBE1146:
	.loc 2 2551 0
	cmpwi 7,31,0
	.loc 2 2549 0
	add 25,25,31
.LVL509:
	.loc 2 2551 0
	bne- 7,.L419
.LVL510:
.L402:
	addi 24,24,1
.L422:
	.loc 2 2546 0
	cmplw 7,9,23
	.loc 2 2522 0
	addi 31,24,-1
	.loc 2 2546 0
	blt+ 7,.L404
.LVL511:
.L418:
	.loc 2 2555 0
	mr 3,30
	mr 4,31
	mr 5,25
	bl _Z15lwAllocPolygonsP16st_lwPolygonListii
	cmpwi 7,3,0
	beq- 7,.L400
	.loc 2 2564 0
	cmpwi 7,31,0
	.loc 2 2561 0
	lwz 9,16(30)
	.loc 2 2560 0
	stw 29,8(1)
	.loc 2 2561 0
	lwz 24,4(30)
.LVL512:
	.loc 2 2562 0
	lwz 21,36(9)
	lwz 0,12(30)
.LVL513:
	.loc 2 2564 0
	ble- 7,.L405
.LVL514:
	lis 19,.LANCHOR0@ha
	.loc 2 2561 0
	mulli 24,24,40
	la 19,.LANCHOR0@l(19)
	.loc 2 2562 0
	mulli 0,0,24
.LBB1147:
.LBB1148:
	.loc 2 1299 0
	lwz 11,0(19)
.LBE1148:
.LBE1147:
	.loc 2 2561 0
	add 24,9,24
	.loc 2 2562 0
	add 21,21,0
	.loc 2 2537 0
	mr 9,29
.LVL515:
.LBB1153:
.LBB1149:
	.loc 2 1299 0
	cmpwi 7,11,-9999
.LBE1149:
.LBE1153:
	.loc 2 2564 0
	li 22,0
.LBB1154:
.LBB1150:
	.loc 2 1299 0
	beq- 7,.L413
.LVL516:
.L421:
	.loc 2 1300 0
	lbz 0,0(9)
	.loc 2 1301 0
	addi 11,11,2
	.loc 2 1300 0
	lbz 10,1(9)
	.loc 2 1302 0
	addi 9,9,2
.LVL517:
	.loc 2 1300 0
	slwi 0,0,8
	.loc 2 1301 0
	stw 11,0(19)
	.loc 2 1300 0
	or 0,0,10
.LVL518:
	.loc 2 1302 0
	stw 9,8(1)
	rlwinm 23,0,0,22,31
	rlwinm 0,0,0,16,21
.LVL519:
	mulli 20,23,24
.L406:
.LVL520:
.LBE1150:
.LBE1154:
	.loc 2 2572 0
	lwz 9,36(24)
	.loc 2 2569 0
	stw 23,32(24)
	.loc 2 2572 0
	cmpwi 7,9,0
	.loc 2 2570 0
	stw 0,12(24)
	.loc 2 2571 0
	stw 27,16(24)
	.loc 2 2572 0
	beq- 7,.L420
.L407:
.LVL521:
	.loc 2 2573 0 discriminator 1
	cmpwi 7,23,0
	beq- 7,.L408
	.loc 2 2573 0 is_stmt 0
	li 26,0
	li 30,0
.LVL522:
.L409:
	.loc 2 2574 0 is_stmt 1 discriminator 2
	addi 3,1,8
.LVL523:
	.loc 2 2573 0 discriminator 2
	addi 30,30,1
	.loc 2 2574 0 discriminator 2
	lwz 25,36(24)
	bl _Z6sgetVXPPh
.LVL524:
	.loc 2 2573 0 discriminator 2
	cmpw 7,30,23
	.loc 2 2574 0 discriminator 2
	add 3,3,28
	stwx 3,25,26
	.loc 2 2573 0 discriminator 2
	addi 26,26,24
	bne+ 7,.L409
.LVL525:
.L408:
	.loc 2 2564 0
	addi 22,22,1
.LVL526:
	cmpw 7,22,31
	beq- 7,.L405
.LBB1155:
.LBB1151:
	.loc 2 1299 0
	lwz 11,0(19)
.LBE1151:
.LBE1155:
	.loc 2 2576 0
	addi 24,24,40
.LVL527:
	.loc 2 2577 0
	add 21,21,20
.LVL528:
	lwz 9,8(1)
.LVL529:
.LBB1156:
.LBB1152:
	.loc 2 1299 0
	cmpwi 7,11,-9999
	bne+ 7,.L421
.LVL530:
.L413:
	li 20,0
	li 23,0
	li 0,0
	b .L406
.LVL531:
.L419:
.LBE1152:
.LBE1156:
	.loc 2 2551 0
	li 22,0
.LVL532:
.L403:
	.loc 2 2552 0 discriminator 2
	mr 3,21
	.loc 2 2551 0 discriminator 2
	addi 22,22,1
	.loc 2 2552 0 discriminator 2
	bl _Z6sgetVXPPh
.LVL533:
	.loc 2 2551 0 discriminator 2
	cmpw 7,22,31
	bne- 7,.L403
	.loc 2 2551 0 is_stmt 0
	lwz 9,8(1)
	addi 24,24,1
.LVL534:
	b .L422
.LVL535:
.L420:
	.loc 2 2572 0 is_stmt 1 discriminator 1
	stw 21,36(24)
	b .L407
.LVL536:
.L405:
	.loc 2 2580 0
	mr 3,29
	bl _Z8Mem_FreePv
	.loc 2 2581 0
	li 0,1
	b .L399
.LBE1159:
	.cfi_endproc
.LFE2593:
	.size	_Z13lwGetPolygonsP6idFileiP16st_lwPolygonListi, .-_Z13lwGetPolygonsP6idFileiP16st_lwPolygonListi
	.align 2
	.globl _Z18lwGetPointPolygonsP14st_lwPointListP16st_lwPolygonList
	.type	_Z18lwGetPointPolygonsP14st_lwPointListP16st_lwPolygonList, @function
_Z18lwGetPointPolygonsP14st_lwPointListP16st_lwPolygonList:
.LFB2595:
	.loc 2 2635 0
	.cfi_startproc
.LVL537:
	mflr 0
	stwu 1,-32(1)
.LCFI138:
	.cfi_def_cfa_offset 32
	.cfi_register 65, 0
	stw 30,24(1)
	mr 30,4
	.cfi_offset 30, -8
	stw 0,36(1)
.LBB1160:
	.loc 2 2640 0
	lwz 0,0(4)
	.cfi_offset 65, 4
.LBE1160:
	.loc 2 2635 0
	stw 31,28(1)
	mr 31,3
	.cfi_offset 31, -4
.LBB1161:
	.loc 2 2640 0
	cmpwi 7,0,0
.LBE1161:
	.loc 2 2635 0
	stw 26,8(1)
	stw 27,12(1)
	stw 28,16(1)
	stw 29,20(1)
.LBB1162:
	.loc 2 2640 0
	ble- 7,.L425
	.cfi_offset 29, -12
	.cfi_offset 28, -16
	.cfi_offset 27, -20
	.cfi_offset 26, -24
	lwz 9,16(4)
	li 7,0
	li 6,0
.LVL538:
.L424:
	.loc 2 2641 0 discriminator 1
	add 11,9,7
	li 8,0
	lwz 10,32(11)
	cmpwi 7,10,0
	li 10,0
	ble- 7,.L427
.LVL539:
.L442:
	.loc 2 2642 0 discriminator 2
	lwz 9,36(11)
	.loc 2 2641 0 discriminator 2
	addi 10,10,1
.LVL540:
	.loc 2 2642 0 discriminator 2
	lwz 0,8(31)
	lwzx 9,9,8
	.loc 2 2641 0 discriminator 2
	addi 8,8,24
	.loc 2 2642 0 discriminator 2
	mulli 9,9,28
	add 9,0,9
	lwz 11,12(9)
	addi 0,11,1
	stw 0,12(9)
	.loc 2 2641 0 discriminator 2
	lwz 9,16(30)
	add 11,9,7
	lwz 0,32(11)
	cmpw 7,0,10
	bgt+ 7,.L442
	lwz 0,0(30)
.LVL541:
.L427:
	.loc 2 2640 0
	addi 6,6,1
.LVL542:
	addi 7,7,40
	cmpw 7,0,6
	bgt+ 7,.L424
.LVL543:
.L425:
	.loc 2 2646 0 discriminator 1
	lwz 9,0(31)
	cmpwi 7,9,0
	ble- 7,.L428
	.loc 2 2646 0 is_stmt 0
	li 29,0
	li 28,0
	.loc 2 2650 0 is_stmt 1
	li 26,0
	b .L431
.LVL544:
.L429:
	.loc 2 2646 0
	cmpw 7,9,28
	addi 29,29,28
	ble- 7,.L446
.LVL545:
.L431:
	.loc 2 2647 0
	lwz 27,8(31)
	.loc 2 2646 0
	addi 28,28,1
	.loc 2 2647 0
	add 27,27,29
	lwz 3,12(27)
	cmpwi 7,3,0
	beq+ 7,.L429
	.loc 2 2648 0
	slwi 3,3,2
	bl _Z16Mem_ClearedAlloci
	stw 3,16(27)
	.loc 2 2649 0
	lwz 9,8(31)
	add 9,9,29
	lwz 0,16(9)
	cmpwi 7,0,0
	beq- 7,.L437
	.loc 2 2650 0
	stw 26,12(9)
	.loc 2 2646 0
	addi 29,29,28
	lwz 9,0(31)
.LVL546:
	cmpw 7,9,28
	bgt+ 7,.L431
.L446:
	lwz 0,0(30)
.LVL547:
.L428:
	.loc 2 2655 0 discriminator 1
	cmpwi 7,0,0
	ble- 7,.L439
	lwz 9,16(30)
	.loc 2 2655 0 is_stmt 0
	li 6,0
	li 7,0
.LVL548:
.L432:
	.loc 2 2656 0 is_stmt 1 discriminator 1
	add 11,9,6
	li 8,0
	lwz 10,32(11)
	cmpwi 7,10,0
	li 10,0
	ble- 7,.L434
.LVL549:
.L441:
	.loc 2 2657 0 discriminator 2
	lwz 9,36(11)
	.loc 2 2656 0 discriminator 2
	addi 10,10,1
.LVL550:
	.loc 2 2658 0 discriminator 2
	lwz 11,8(31)
.LVL551:
	lwzx 9,9,8
.LVL552:
	.loc 2 2656 0 discriminator 2
	addi 8,8,24
	.loc 2 2658 0 discriminator 2
	mulli 9,9,28
.LVL553:
	add 11,11,9
	lwz 0,12(11)
	lwz 11,16(11)
	slwi 0,0,2
	stwx 7,11,0
	.loc 2 2659 0 discriminator 2
	lwz 0,8(31)
	add 9,0,9
	lwz 11,12(9)
	addi 0,11,1
	stw 0,12(9)
	.loc 2 2656 0 discriminator 2
	lwz 9,16(30)
	add 11,9,6
	lwz 0,32(11)
	cmpw 7,0,10
	bgt+ 7,.L441
	lwz 0,0(30)
.LVL554:
.L434:
	.loc 2 2655 0
	addi 7,7,1
.LVL555:
	addi 6,6,40
	cmpw 7,0,7
	bgt+ 7,.L432
.LVL556:
.L439:
.LBE1162:
	.loc 2 2664 0
	lwz 0,36(1)
.LBB1163:
	.loc 2 2663 0
	li 3,1
.LBE1163:
	.loc 2 2664 0
	lwz 26,8(1)
	mtlr 0
	lwz 27,12(1)
	lwz 28,16(1)
	lwz 29,20(1)
	lwz 30,24(1)
.LVL557:
	lwz 31,28(1)
.LVL558:
	addi 1,1,32
	.cfi_remember_state
.LCFI139:
	.cfi_def_cfa_offset 0
	.cfi_restore 31
	.cfi_restore 30
	.cfi_restore 29
	.cfi_restore 28
	.cfi_restore 27
	.cfi_restore 26
	blr
.LVL559:
.L437:
.LCFI140:
	.cfi_restore_state
	lwz 0,36(1)
.LBB1164:
	.loc 2 2649 0
	li 3,0
.LBE1164:
	.loc 2 2664 0
	lwz 26,8(1)
	mtlr 0
	lwz 27,12(1)
	lwz 28,16(1)
	lwz 29,20(1)
	lwz 30,24(1)
.LVL560:
	lwz 31,28(1)
.LVL561:
	addi 1,1,32
	.cfi_restore 26
	.cfi_restore 27
	.cfi_restore 28
	.cfi_restore 29
	.cfi_restore 30
	.cfi_restore 31
.LCFI141:
	.cfi_def_cfa_offset 0
	blr
	.cfi_endproc
.LFE2595:
	.size	_Z18lwGetPointPolygonsP14st_lwPointListP16st_lwPolygonList, .-_Z18lwGetPointPolygonsP14st_lwPointListP16st_lwPolygonList
	.align 2
	.globl _Z10lwFreeTagsP12st_lwTagList
	.type	_Z10lwFreeTagsP12st_lwTagList, @function
_Z10lwFreeTagsP12st_lwTagList:
.LFB2598:
	.loc 2 2774 0
	.cfi_startproc
.LVL562:
	stwu 1,-16(1)
.LCFI142:
	.cfi_def_cfa_offset 16
	mflr 0
	stw 30,8(1)
.LBB1165:
	.loc 2 2777 0
	mr. 30,3
	.cfi_offset 30, -8
	.cfi_register 65, 0
.LBE1165:
	.loc 2 2774 0
	stw 0,20(1)
	stw 31,12(1)
.LBB1166:
	.loc 2 2777 0
	beq- 0,.L447
	.cfi_offset 31, -4
	.cfi_offset 65, 4
	.loc 2 2778 0
	lwz 9,8(30)
	cmpwi 7,9,0
	beq- 7,.L449
.LVL563:
	.loc 2 2779 0 discriminator 1
	lwz 0,0(30)
	cmpwi 7,0,0
	ble- 7,.L450
	.loc 2 2779 0 is_stmt 0
	li 31,0
.LVL564:
.L452:
	.loc 2 2780 0 is_stmt 1
	slwi 11,31,2
	.loc 2 2779 0
	addi 31,31,1
	.loc 2 2780 0
	lwzx 3,9,11
	cmpwi 7,3,0
	beq- 7,.L451
	.loc 2 2781 0
	bl _Z8Mem_FreePv
	lwz 0,0(30)
	lwz 9,8(30)
.L451:
.LVL565:
	.loc 2 2779 0
	cmpw 7,0,31
	bgt+ 7,.L452
.LVL566:
.L450:
	.loc 2 2783 0
	mr 3,9
	bl _Z8Mem_FreePv
.L449:
	.loc 2 2785 0
	li 0,0
	stw 0,0(30)
	stw 0,4(30)
	stw 0,8(30)
.L447:
.LBE1166:
	.loc 2 2787 0
	lwz 0,20(1)
	lwz 30,8(1)
.LVL567:
	mtlr 0
	lwz 31,12(1)
	addi 1,1,16
.LCFI143:
	.cfi_def_cfa_offset 0
	.cfi_restore 31
	.cfi_restore 30
	blr
	.cfi_endproc
.LFE2598:
	.size	_Z10lwFreeTagsP12st_lwTagList, .-_Z10lwFreeTagsP12st_lwTagList
	.align 2
	.globl _Z9lwGetTagsP6idFileiP12st_lwTagList
	.type	_Z9lwGetTagsP6idFileiP12st_lwTagList, @function
_Z9lwGetTagsP6idFileiP12st_lwTagList:
.LFB2599:
	.loc 2 2799 0
	.cfi_startproc
.LVL568:
	stwu 1,-48(1)
.LCFI144:
	.cfi_def_cfa_offset 48
	mflr 0
	stw 31,44(1)
.LBB1173:
	.loc 2 2803 0
	mr. 31,4
	.cfi_offset 31, -4
	.cfi_register 65, 0
.LBE1173:
	.loc 2 2799 0
	stw 0,52(1)
.LBB1174:
	.loc 2 2803 0
	li 0,1
	.cfi_offset 65, 4
.LBE1174:
	.loc 2 2799 0
	stw 30,40(1)
	mr 30,5
	.cfi_offset 30, -8
	stw 26,24(1)
	stw 27,28(1)
	stw 28,32(1)
	stw 29,36(1)
.LBB1175:
	.loc 2 2803 0
	bne- 0,.L468
	.cfi_offset 29, -12
	.cfi_offset 28, -16
	.cfi_offset 27, -20
	.cfi_offset 26, -24
.LVL569:
.L455:
.LBE1175:
	.loc 2 2847 0
	mr 3,0
	lwz 0,52(1)
	lwz 26,24(1)
	mtlr 0
	lwz 27,28(1)
	lwz 28,32(1)
	lwz 29,36(1)
	lwz 30,40(1)
.LVL570:
	lwz 31,44(1)
	addi 1,1,48
	.cfi_remember_state
.LCFI145:
	.cfi_def_cfa_offset 0
	.cfi_restore 31
	.cfi_restore 30
	.cfi_restore 29
	.cfi_restore 28
	.cfi_restore 27
	.cfi_restore 26
	blr
.LVL571:
.L468:
.LCFI146:
	.cfi_restore_state
.LBB1176:
.LBB1177:
.LBB1178:
.LBB1179:
.LBB1180:
	.loc 2 1002 0
	li 0,0
	lis 9,.LANCHOR0@ha
	stw 0,.LANCHOR0@l(9)
.LBE1180:
.LBE1179:
	.loc 2 2808 0
	bl _Z8getbytesP6idFilei
.LVL572:
	.loc 2 2809 0
	mr. 29,3
	li 0,0
	beq- 0,.L455
.LVL573:
	.loc 2 2815 0
	add 27,29,31
	.loc 2 2814 0
	stw 29,8(1)
.LVL574:
	.loc 2 2815 0
	cmplw 7,29,27
	.loc 2 2813 0
	li 31,0
.LVL575:
	.loc 2 2815 0
	bge- 7,.L457
	mr 28,29
.LVL576:
.L458:
	.loc 2 2816 0
	mr 3,28
	.loc 2 2819 0
	addi 31,31,1
	.loc 2 2816 0
	bl strlen
	addi 3,3,1
.LVL577:
	.loc 2 2817 0
	rlwinm 0,3,0,31,31
.LVL578:
	add 3,3,0
.LVL579:
	.loc 2 2818 0
	add 28,28,3
	.loc 2 2815 0
	cmplw 7,28,27
	.loc 2 2818 0
	stw 28,8(1)
	.loc 2 2815 0
	blt+ 7,.L458
.LVL580:
.L457:
	.loc 2 2824 0
	lwz 0,0(30)
	.loc 2 2826 0
	lwz 28,8(30)
.LVL581:
	.loc 2 2825 0
	add 3,31,0
	.loc 2 2824 0
	stw 0,4(30)
	.loc 2 2825 0
	stw 3,0(30)
	.loc 2 2827 0
	slwi 3,3,2
	bl _Z9Mem_Alloci
.LVL582:
	.loc 2 2828 0
	cmpwi 7,3,0
	.loc 2 2827 0
	mr 0,3
	stw 3,8(30)
	.loc 2 2828 0
	beq- 7,.L459
	.loc 2 2829 0
	cmpwi 7,28,0
	beq- 7,.L460
	.loc 2 2830 0
	lwz 5,4(30)
	mr 4,28
	slwi 5,5,2
	bl memcpy
	.loc 2 2831 0
	mr 3,28
	bl _Z8Mem_FreePv
	lwz 0,8(30)
.L460:
	.loc 2 2833 0
	lwz 3,4(30)
	li 4,0
	slwi 5,31,2
	slwi 3,3,2
	add 3,0,3
	bl memset
	.loc 2 2838 0
	cmpwi 7,31,0
	.loc 2 2837 0
	stw 29,8(1)
.LVL583:
	.loc 2 2838 0
	beq- 7,.L461
	li 28,0
.LVL584:
.L462:
	.loc 2 2839 0
	lwz 27,4(30)
	addi 3,1,8
	lwz 26,8(30)
	bl _Z6sgetS0PPh
	add 27,28,27
	.loc 2 2838 0
	addi 28,28,1
.LVL585:
	cmpw 7,28,31
	.loc 2 2839 0
	slwi 27,27,2
	stwx 3,26,27
	.loc 2 2838 0
	bne+ 7,.L462
.LVL586:
.L461:
	.loc 2 2841 0
	mr 3,29
	bl _Z8Mem_FreePv
	.loc 2 2842 0
	li 0,1
.LBE1178:
.LBE1177:
.LBE1176:
	.loc 2 2847 0
	mr 3,0
	lwz 0,52(1)
	lwz 26,24(1)
	mtlr 0
	lwz 27,28(1)
	lwz 28,32(1)
	lwz 29,36(1)
.LVL587:
	lwz 30,40(1)
.LVL588:
	lwz 31,44(1)
	addi 1,1,48
	.cfi_remember_state
	.cfi_restore 26
	.cfi_restore 27
	.cfi_restore 28
	.cfi_restore 29
	.cfi_restore 30
	.cfi_restore 31
.LCFI147:
	.cfi_def_cfa_offset 0
	blr
.LVL589:
.L459:
.LCFI148:
	.cfi_restore_state
.LBB1183:
.LBB1182:
.LBB1181:
	.loc 2 2845 0
	mr 3,29
	bl _Z8Mem_FreePv
	.loc 2 2846 0
	li 0,0
	b .L455
.LBE1181:
.LBE1182:
.LBE1183:
	.cfi_endproc
.LFE2599:
	.size	_Z9lwGetTagsP6idFileiP12st_lwTagList, .-_Z9lwGetTagsP6idFileiP12st_lwTagList
	.align 2
	.globl _Z16lwGetPolygonTagsP6idFileiP12st_lwTagListP16st_lwPolygonList
	.type	_Z16lwGetPolygonTagsP6idFileiP12st_lwTagListP16st_lwPolygonList, @function
_Z16lwGetPolygonTagsP6idFileiP12st_lwTagListP16st_lwPolygonList:
.LFB2600:
	.loc 2 2858 0
	.cfi_startproc
.LVL590:
	mflr 0
	stwu 1,-40(1)
.LCFI149:
	.cfi_def_cfa_offset 40
	.cfi_register 65, 0
	mfcr 12
	stw 30,32(1)
.LBB1184:
.LBB1185:
.LBB1186:
	.loc 2 1002 0
	lis 30,.LANCHOR0@ha
	.cfi_offset 30, -8
	.cfi_register 70, 12
.LBE1186:
.LBE1185:
.LBE1184:
	.loc 2 2858 0
	stw 0,44(1)
.LBB1195:
.LBB1189:
.LBB1187:
	.loc 2 1002 0
	li 0,0
	.cfi_offset 65, 4
.LBE1187:
.LBE1189:
.LBE1195:
	.loc 2 2858 0
	stw 26,16(1)
	mr 26,6
	.cfi_offset 26, -24
	stw 28,24(1)
	mr 28,5
	.cfi_offset 28, -16
	stw 29,28(1)
	mr 29,4
	.cfi_offset 29, -12
	stw 31,36(1)
	mr 31,3
	.cfi_offset 31, -4
.LBB1196:
.LBB1190:
.LBB1188:
	.loc 2 1002 0
	stw 0,.LANCHOR0@l(30)
.LBE1188:
.LBE1190:
.LBE1196:
	.loc 2 2858 0
	stw 25,12(1)
	stw 27,20(1)
	stw 12,8(1)
.LBB1197:
	.loc 2 2863 0
	.cfi_offset 70, -32
	.cfi_offset 27, -20
	.cfi_offset 25, -28
	bl _Z5getU4P6idFile
.LVL591:
.LBB1191:
.LBB1192:
	.loc 2 1004 0
	lwz 9,.LANCHOR0@l(30)
.LBE1192:
.LBE1191:
	.loc 2 2863 0
	mr 0,3
.LVL592:
	.loc 2 2865 0
	li 3,0
.LVL593:
	cmpwi 7,9,0
	blt- 7,.L470
	.loc 2 2867 0
	xoris 11,0,0x5355
	cmpwi 7,11,21062
	beq 7,.L471
	.loc 2 2867 0 is_stmt 0 discriminator 1
	xoris 11,0,0x5041
	cmpwi 7,11,21076
	beq 7,.L471
	.loc 2 2867 0 discriminator 2
	xoris 11,0,0x534d
	cmpwi 7,11,18256
	bne 7,.L472
.L471:
.LVL594:
	.loc 2 2872 0 is_stmt 1 discriminator 1
	cmpw 7,29,9
	ble- 7,.L484
	.loc 2 2878 0
	lis 9,0x534d
	lis 25,.LANCHOR0@ha
	ori 9,9,18256
	la 25,.LANCHOR0@l(25)
	cmpw 4,0,9
	lis 9,0x5355
	ori 9,9,21062
	cmpw 3,0,9
	lis 9,0x5041
	ori 9,9,21076
	cmpw 2,0,9
.LVL595:
.L473:
	.loc 2 2873 0
	mr 3,31
	bl _Z5getVXP6idFile
	lwz 30,4(26)
	mr 27,3
.LVL596:
	.loc 2 2874 0
	mr 3,31
.LVL597:
	bl _Z5getVXP6idFile
.LVL598:
.LBB1193:
.LBB1194:
	.loc 2 1004 0
	lwz 0,0(25)
.LBE1194:
.LBE1193:
	.loc 2 2874 0
	lwz 9,4(28)
.LVL599:
	.loc 2 2873 0
	add 30,27,30
.LVL600:
	.loc 2 2876 0
	cmpwi 6,0,0
	cmpw 7,29,0
	.loc 2 2874 0
	add 9,3,9
	.loc 2 2876 0
	blt- 6,.L480
	.loc 2 2876 0 is_stmt 0 discriminator 2
	blt- 7,.L480
	.loc 2 2878 0 is_stmt 1
	beq- 4,.L476
	beq- 3,.L477
	beq- 2,.L485
	.loc 2 2872 0 discriminator 1
	bgt+ 7,.L473
.LVL601:
.L484:
	.loc 2 2869 0
	li 3,1
.L470:
.LBE1197:
	.loc 2 2886 0
	lwz 0,44(1)
	lwz 12,8(1)
	mtlr 0
	lwz 25,12(1)
	lwz 26,16(1)
.LVL602:
	mtcrf 56,12
	lwz 27,20(1)
	lwz 28,24(1)
.LVL603:
	lwz 29,28(1)
.LVL604:
	lwz 30,32(1)
	lwz 31,36(1)
.LVL605:
	addi 1,1,40
	.cfi_remember_state
.LCFI150:
	.cfi_def_cfa_offset 0
	.cfi_restore 70
	.cfi_restore 31
	.cfi_restore 30
	.cfi_restore 29
	.cfi_restore 28
	.cfi_restore 27
	.cfi_restore 26
	.cfi_restore 25
	blr
.LVL606:
.L485:
.LCFI151:
	.cfi_restore_state
.LBB1198:
	.loc 2 2880 0
	lwz 0,16(26)
	mulli 30,30,40
.LVL607:
	add 30,0,30
	stw 9,4(30)
	.loc 2 2872 0
	bgt+ 7,.L473
	b .L484
.LVL608:
.L477:
	.loc 2 2879 0
	lwz 11,16(26)
	mulli 30,30,40
.LVL609:
	stwx 9,11,30
	.loc 2 2872 0
	bgt+ 7,.L473
	b .L484
.LVL610:
.L476:
	.loc 2 2881 0
	lwz 0,16(26)
	mulli 30,30,40
.LVL611:
	add 30,0,30
	stw 9,8(30)
	.loc 2 2872 0
	bgt+ 7,.L473
	b .L484
.LVL612:
.L480:
.LBE1198:
	.loc 2 2886 0
	lwz 0,44(1)
.LBB1199:
	.loc 2 2876 0
	li 3,0
.LBE1199:
	.loc 2 2886 0
	lwz 12,8(1)
	mtlr 0
	lwz 25,12(1)
	lwz 26,16(1)
.LVL613:
	mtcrf 56,12
	lwz 27,20(1)
	lwz 28,24(1)
.LVL614:
	lwz 29,28(1)
.LVL615:
	lwz 30,32(1)
.LVL616:
	lwz 31,36(1)
.LVL617:
	addi 1,1,40
	.cfi_remember_state
	.cfi_restore 25
	.cfi_restore 26
	.cfi_restore 27
	.cfi_restore 28
	.cfi_restore 29
	.cfi_restore 30
	.cfi_restore 31
	.cfi_restore 70
.LCFI152:
	.cfi_def_cfa_offset 0
	blr
.LVL618:
.L472:
.LCFI153:
	.cfi_restore_state
.LBB1200:
	.loc 2 2868 0
	lwz 9,0(31)
	mr 3,31
	addi 4,29,-4
	li 5,0
	lwz 0,48(9)
.LVL619:
	mtctr 0
	bctrl
.LVL620:
	.loc 2 2869 0
	li 3,1
	b .L470
.LBE1200:
	.cfi_endproc
.LFE2600:
	.size	_Z16lwGetPolygonTagsP6idFileiP12st_lwTagListP16st_lwPolygonList, .-_Z16lwGetPolygonTagsP6idFileiP12st_lwTagListP16st_lwPolygonList
	.align 2
	.globl _Z12lwFreePluginP11st_lwPlugin
	.type	_Z12lwFreePluginP11st_lwPlugin, @function
_Z12lwFreePluginP11st_lwPlugin:
.LFB2601:
	.loc 2 2897 0
	.cfi_startproc
.LVL621:
	stwu 1,-16(1)
.LCFI154:
	.cfi_def_cfa_offset 16
	mflr 0
	stw 31,12(1)
	.loc 2 2898 0
	mr. 31,3
	.cfi_offset 31, -4
	.cfi_register 65, 0
	.loc 2 2897 0
	stw 0,20(1)
	.loc 2 2898 0
	beq- 0,.L486
	.cfi_offset 65, 4
	.loc 2 2899 0
	lwz 3,8(31)
.LVL622:
	cmpwi 7,3,0
	beq- 7,.L488
	.loc 2 2899 0 is_stmt 0 discriminator 1
	bl _Z8Mem_FreePv
.L488:
	.loc 2 2900 0 is_stmt 1
	lwz 3,12(31)
	cmpwi 7,3,0
	beq- 7,.L489
	.loc 2 2900 0 is_stmt 0 discriminator 1
	bl _Z8Mem_FreePv
.L489:
	.loc 2 2901 0 is_stmt 1
	lwz 3,20(31)
	cmpwi 7,3,0
	beq- 7,.L490
	.loc 2 2901 0 is_stmt 0 discriminator 1
	bl _Z8Mem_FreePv
.L490:
	.loc 2 2902 0 is_stmt 1
	mr 3,31
	bl _Z8Mem_FreePv
.L486:
	.loc 2 2904 0
	lwz 0,20(1)
	lwz 31,12(1)
.LVL623:
	mtlr 0
	addi 1,1,16
.LCFI155:
	.cfi_def_cfa_offset 0
	.cfi_restore 31
	blr
	.cfi_endproc
.LFE2601:
	.size	_Z12lwFreePluginP11st_lwPlugin, .-_Z12lwFreePluginP11st_lwPlugin
	.align 2
	.globl _Z14lwFreeEnvelopeP13st_lwEnvelope
	.type	_Z14lwFreeEnvelopeP13st_lwEnvelope, @function
_Z14lwFreeEnvelopeP13st_lwEnvelope:
.LFB2542:
	.loc 2 315 0
	.cfi_startproc
.LVL624:
	stwu 1,-16(1)
.LCFI156:
	.cfi_def_cfa_offset 16
	mflr 0
	stw 30,8(1)
	.loc 2 316 0
	mr. 30,3
	.cfi_offset 30, -8
	.cfi_register 65, 0
	.loc 2 315 0
	stw 0,20(1)
	stw 31,12(1)
	.loc 2 316 0
	beq- 0,.L491
	.cfi_offset 31, -4
	.cfi_offset 65, 4
	.loc 2 317 0
	lwz 3,16(30)
.LVL625:
	cmpwi 7,3,0
	beq- 7,.L493
	.loc 2 317 0 is_stmt 0 discriminator 1
	bl _Z8Mem_FreePv
.L493:
	.loc 2 318 0 is_stmt 1
	lwz 3,20(30)
.LVL626:
.LBB1201:
.LBB1202:
	.loc 2 910 0
	cmpwi 7,3,0
	beq- 7,.L494
.LVL627:
.L500:
	.loc 2 911 0
	lwz 31,0(3)
.LVL628:
.LBB1203:
.LBB1204:
	.loc 2 311 0
	bl _Z8Mem_FreePv
.LVL629:
.LBE1204:
.LBE1203:
	.loc 2 910 0
	cmpwi 7,31,0
	.loc 2 913 0
	mr 3,31
	.loc 2 910 0
	bne+ 7,.L500
.LVL630:
.L494:
.LBE1202:
.LBE1201:
	.loc 2 319 0
	lwz 3,36(30)
.LVL631:
.LBB1205:
.LBB1206:
	.loc 2 910 0
	cmpwi 7,3,0
	beq- 7,.L496
.LVL632:
.L501:
	.loc 2 911 0
	lwz 31,0(3)
.LVL633:
	.loc 2 912 0
	bl _Z12lwFreePluginP11st_lwPlugin
.LVL634:
	.loc 2 910 0
	cmpwi 7,31,0
	.loc 2 913 0
	mr 3,31
	.loc 2 910 0
	bne+ 7,.L501
.LVL635:
.L496:
.LBE1206:
.LBE1205:
	.loc 2 320 0
	mr 3,30
.LVL636:
	bl _Z8Mem_FreePv
.LVL637:
.L491:
	.loc 2 322 0
	lwz 0,20(1)
	lwz 30,8(1)
.LVL638:
	mtlr 0
	lwz 31,12(1)
	addi 1,1,16
.LCFI157:
	.cfi_def_cfa_offset 0
	.cfi_restore 31
	.cfi_restore 30
	blr
	.cfi_endproc
.LFE2542:
	.size	_Z14lwFreeEnvelopeP13st_lwEnvelope, .-_Z14lwFreeEnvelopeP13st_lwEnvelope
	.align 2
	.globl _Z13lwGetEnvelopeP6idFilei
	.type	_Z13lwGetEnvelopeP6idFilei, @function
_Z13lwGetEnvelopeP6idFilei:
.LFB2544:
	.loc 2 339 0
	.cfi_startproc
.LVL639:
	stwu 1,-112(1)
.LCFI158:
	.cfi_def_cfa_offset 112
	mflr 0
	mfcr 12
	stw 31,108(1)
	mr 31,3
	.cfi_offset 31, -4
	.cfi_register 70, 12
	.cfi_register 65, 0
.LBB1207:
	.loc 2 351 0
	li 3,44
.LVL640:
.LBE1207:
	.loc 2 339 0
	stw 27,92(1)
	stw 28,96(1)
	mr 27,4
	.cfi_offset 28, -16
	.cfi_offset 27, -20
	stw 0,116(1)
	stw 14,40(1)
	stw 15,44(1)
	stw 16,48(1)
	stw 17,52(1)
	stw 18,56(1)
	stw 19,60(1)
	stw 20,64(1)
	stw 21,68(1)
	stw 22,72(1)
	stw 23,76(1)
	stw 24,80(1)
	stw 25,84(1)
	stw 26,88(1)
	stw 29,100(1)
	stw 30,104(1)
	stw 12,36(1)
.LBB1222:
	.loc 2 351 0
	.cfi_offset 70, -76
	.cfi_offset 30, -8
	.cfi_offset 29, -12
	.cfi_offset 26, -24
	.cfi_offset 25, -28
	.cfi_offset 24, -32
	.cfi_offset 23, -36
	.cfi_offset 22, -40
	.cfi_offset 21, -44
	.cfi_offset 20, -48
	.cfi_offset 19, -52
	.cfi_offset 18, -56
	.cfi_offset 17, -60
	.cfi_offset 16, -64
	.cfi_offset 15, -68
	.cfi_offset 14, -72
	.cfi_offset 65, 4
	bl _Z16Mem_ClearedAlloci
.LVL641:
	.loc 2 352 0
	mr. 28,3
	beq- 0,.L503
.LVL642:
	.loc 2 357 0
	lwz 9,0(31)
.LBB1208:
.LBB1209:
	.loc 2 1002 0
	lis 30,.LANCHOR0@ha
.LBE1209:
.LBE1208:
	.loc 2 357 0
	mr 3,31
.LVL643:
	lwz 0,36(9)
.LBB1211:
.LBB1210:
	.loc 2 1002 0
	li 9,0
	stw 9,.LANCHOR0@l(30)
.LBE1210:
.LBE1211:
	.loc 2 357 0
	mtctr 0
	bctrl
	mr 25,3
.LVL644:
	.loc 2 361 0
	mr 3,31
.LVL645:
	bl _Z5getVXP6idFile
	stw 3,8(28)
	.loc 2 365 0
	mr 3,31
	bl _Z5getU4P6idFile
	mr 15,3
.LVL646:
	.loc 2 366 0
	mr 3,31
.LVL647:
	bl _Z5getU2P6idFile
.LVL648:
	.loc 2 367 0
	lwz 0,.LANCHOR0@l(30)
	cmpwi 7,0,0
	blt- 7,.L503
	.loc 2 405 0
	li 0,4
	.loc 2 375 0
	lis 26,0x504f
	lis 23,0x5350
	.loc 2 410 0
	lis 21,0x4245
	lis 17,0x4845
	lis 16,0x5443
	lis 18,0x4245
	.loc 2 375 0
	lis 22,0x5459
	lis 20,0x5052
	.loc 2 397 0
	lis 19,_ZL12compare_keysP8st_lwKeyS0_@ha
	cmpwi 3,0,0
	la 30,.LANCHOR0@l(30)
	.loc 2 375 0
	ori 26,26,21332
	ori 23,23,16718
	.loc 2 410 0
	ori 21,21,23113
	ori 17,17,21069
	ori 16,16,16928
	ori 18,18,23090
	.loc 2 375 0
	ori 22,22,20549
	ori 20,20,17696
	.loc 2 397 0
	la 19,_ZL12compare_keysP8st_lwKeyS0_@l(19)
.LVL649:
.L528:
	.loc 2 375 0
	cmpw 7,15,26
	.loc 2 372 0
	rlwinm 29,3,0,31,31
	add 29,29,3
.LBB1212:
.LBB1213:
	.loc 2 1002 0
	li 0,0
.LBE1213:
.LBE1212:
	.loc 2 372 0
	rlwinm 29,29,0,0xffff
.LVL650:
.LBB1215:
.LBB1214:
	.loc 2 1002 0
	stw 0,0(30)
.LBE1214:
.LBE1215:
	.loc 2 375 0
	beq- 7,.L508
	cmplw 7,15,26
	bgt- 7,.L512
	xoris 0,15,0x4b45
	cmpwi 7,0,22816
	beq 7,.L506
	xoris 0,15,0x4e41
	cmpwi 7,0,19781
	beq 7,.L507
	xoris 0,15,0x4348
	cmpwi 7,0,16718
	beq 7,.L537
.L529:
	li 4,0
.LVL651:
.L504:
	.loc 2 445 0 discriminator 1
	cmpw 7,29,4
	blt- 7,.L503
	.loc 2 449 0
	bgt- 7,.L538
.L526:
	.loc 2 454 0
	lwz 9,0(31)
	mr 3,31
	lwz 0,36(9)
	mtctr 0
	bctrl
	subf 3,25,3
.LVL652:
	.loc 2 455 0
	cmpw 7,3,27
	bgt- 7,.L503
	.loc 2 456 0
	cmpw 7,27,3
	beq- 7,.L527
.LVL653:
.LBB1216:
.LBB1217:
	.loc 2 1002 0
	li 0,0
.LBE1217:
.LBE1216:
	.loc 2 461 0
	mr 3,31
.LVL654:
.LBB1219:
.LBB1218:
	.loc 2 1002 0
	stw 0,0(30)
.LBE1218:
.LBE1219:
	.loc 2 461 0
	bl _Z5getU4P6idFile
	mr 15,3
.LVL655:
	.loc 2 462 0
	mr 3,31
.LVL656:
	bl _Z5getU2P6idFile
.LVL657:
	.loc 2 463 0
	lwz 0,0(30)
	cmpwi 7,0,6
	beq+ 7,.L528
.LVL658:
.L503:
	.loc 2 469 0
	mr 3,28
	.loc 2 470 0
	li 28,0
.LVL659:
	.loc 2 469 0
	bl _Z14lwFreeEnvelopeP13st_lwEnvelope
.LVL660:
.L527:
.LBE1222:
	.loc 2 471 0
	lwz 0,116(1)
	mr 3,28
	lwz 12,36(1)
	mtlr 0
	lwz 14,40(1)
	lwz 15,44(1)
	mtcrf 24,12
	lwz 16,48(1)
	lwz 17,52(1)
	lwz 18,56(1)
	lwz 19,60(1)
	lwz 20,64(1)
	lwz 21,68(1)
	lwz 22,72(1)
	lwz 23,76(1)
	lwz 24,80(1)
	lwz 25,84(1)
	lwz 26,88(1)
	lwz 27,92(1)
.LVL661:
	lwz 28,96(1)
	lwz 29,100(1)
	lwz 30,104(1)
	lwz 31,108(1)
.LVL662:
	addi 1,1,112
	.cfi_remember_state
.LCFI159:
	.cfi_def_cfa_offset 0
	.cfi_restore 70
	.cfi_restore 31
	.cfi_restore 30
	.cfi_restore 29
	.cfi_restore 28
	.cfi_restore 27
	.cfi_restore 26
	.cfi_restore 25
	.cfi_restore 24
	.cfi_restore 23
	.cfi_restore 22
	.cfi_restore 21
	.cfi_restore 20
	.cfi_restore 19
	.cfi_restore 18
	.cfi_restore 17
	.cfi_restore 16
	.cfi_restore 15
	.cfi_restore 14
	blr
.LVL663:
.L537:
.LCFI160:
	.cfi_restore_state
.LBB1223:
	.loc 2 427 0
	li 3,24
	bl _Z16Mem_ClearedAlloci
.LVL664:
	.loc 2 428 0
	mr. 15,3
.LVL665:
	beq- 0,.L503
	.loc 2 430 0
	mr 3,31
.LVL666:
	bl _Z5getS0P6idFile
	stw 3,12(15)
	.loc 2 431 0
	mr 3,31
	bl _Z5getU2P6idFile
	.loc 2 432 0
	lwz 4,0(30)
	.loc 2 431 0
	stw 3,16(15)
	.loc 2 432 0
	mr 3,31
	subf 4,4,29
	bl _Z8getbytesP6idFilei
	stw 3,20(15)
.LVL667:
.LBB1220:
.LBB1221:
	.loc 2 929 0
	lwz 9,36(28)
.LVL668:
	.loc 2 930 0
	cmpwi 7,9,0
	bne+ 7,.L534
	.loc 2 931 0
	stw 15,36(28)
	b .L524
.LVL669:
.L530:
	.loc 2 936 0
	mr 9,0
.LVL670:
.L534:
	lwz 0,0(9)
.LVL671:
	.loc 2 934 0
	cmpwi 7,0,0
	bne+ 7,.L530
	.loc 2 938 0
	stw 15,0(9)
	.loc 2 939 0
	stw 9,4(15)
.LVL672:
.L524:
.LBE1221:
.LBE1220:
	.loc 2 435 0
	lwz 9,40(28)
	lwz 4,0(30)
	addi 0,9,1
	stw 0,40(28)
	.loc 2 436 0
	b .L513
.LVL673:
.L512:
	.loc 2 375 0
	cmpw 7,15,23
	beq- 7,.L510
	cmpw 7,15,22
	beq- 7,.L511
	cmpw 7,15,20
	bne+ 7,.L529
	.loc 2 385 0
	mr 3,31
	bl _Z5getU2P6idFile
	lwz 4,0(30)
	stw 3,28(28)
.LVL674:
.L513:
	.loc 2 445 0
	cmpwi 7,4,0
	bge+ 7,.L504
	b .L503
.L538:
	.loc 2 450 0
	lwz 9,0(31)
	mr 3,31
	subf 4,4,29
	li 5,0
	lwz 0,48(9)
	mtctr 0
	bctrl
	b .L526
.LVL675:
.L508:
	.loc 2 389 0
	mr 3,31
	bl _Z5getU2P6idFile
	lwz 4,0(30)
	stw 3,32(28)
	.loc 2 390 0
	b .L513
.L511:
	.loc 2 377 0
	mr 3,31
	bl _Z5getU2P6idFile
	lwz 4,0(30)
	stw 3,12(28)
	.loc 2 378 0
	b .L513
.L510:
	.loc 2 402 0
	cmpwi 7,24,0
	beq- 7,.L503
	.loc 2 403 0
	mr 3,31
	bl _Z5getU4P6idFile
	.loc 2 405 0
	addi 0,29,-4
	srawi 0,0,2
	addze 0,0
	.loc 2 403 0
	stw 3,16(24)
	.loc 2 405 0
	cmpwi 7,0,4
	stw 0,24(1)
	bgt- 7,.L539
.LVL676:
	.loc 2 407 0
	lwz 0,24(1)
	cmpwi 4,0,0
	ble- 4,.L515
.LVL677:
.L535:
	addi 14,1,4
	li 15,0
.LVL678:
.L516:
	.loc 2 408 0 discriminator 2
	mr 3,31
	.loc 2 407 0 discriminator 2
	addi 15,15,1
	.loc 2 408 0 discriminator 2
	bl _Z5getF4P6idFile
.LVL679:
	.loc 2 407 0 discriminator 2
	lwz 0,24(1)
	.loc 2 408 0 discriminator 2
	stfsu 1,4(14)
	.loc 2 407 0 discriminator 2
	cmpw 7,15,0
	bne+ 7,.L516
	.loc 2 407 0 is_stmt 0
	lwz 3,16(24)
.LVL680:
.L515:
	.loc 2 410 0 is_stmt 1
	cmpw 7,3,21
	beq- 7,.L518
	cmplw 7,3,21
	ble- 7,.L540
	cmpw 7,3,17
	beq- 7,.L518
	cmpw 7,3,16
	beq- 7,.L519
.L536:
	.loc 2 414 0
	lwz 4,0(30)
	.loc 2 415 0
	b .L513
.LVL681:
.L507:
	.loc 2 381 0
	mr 3,31
	bl _Z5getS0P6idFile
	lwz 4,0(30)
	stw 3,16(28)
	.loc 2 382 0
	b .L513
.L506:
	.loc 2 393 0
	li 3,48
	bl _Z16Mem_ClearedAlloci
.LVL682:
	.loc 2 394 0
	mr. 24,3
	beq- 0,.L503
	.loc 2 395 0
	mr 3,31
.LVL683:
	bl _Z5getF4P6idFile
	.loc 2 396 0
	mr 3,31
	.loc 2 395 0
	stfs 1,12(24)
	.loc 2 396 0
	bl _Z5getF4P6idFile
	.loc 2 397 0
	mr 4,24
	.loc 2 396 0
	stfs 1,8(24)
	.loc 2 397 0
	addi 3,28,20
	mr 5,19
	bl _Z12lwListInsertPPvS_PFiS_S_E
	.loc 2 398 0
	lwz 9,24(28)
	lwz 4,0(30)
	addi 0,9,1
	stw 0,24(28)
	.loc 2 399 0
	b .L513
.L539:
	.loc 2 405 0
	li 0,4
	mcrf 4,3
	stw 0,24(1)
	b .L535
.LVL684:
.L540:
	.loc 2 410 0
	cmpw 7,3,18
	bne+ 7,.L536
.L518:
.LVL685:
	.loc 2 420 0 discriminator 1
	ble- 4,.L536
	.loc 2 338 0
	lwz 0,24(1)
	.loc 2 415 0
	addi 11,1,4
	.loc 2 338 0
	addi 9,24,28
	slwi 10,0,2
	addi 10,10,-4
	srwi 10,10,2
	addi 10,10,1
	mtctr 10
.LVL686:
.L522:
	.loc 2 421 0 discriminator 2
	lwzu 0,4(11)
	stwu 0,4(9)
	.loc 2 420 0 discriminator 2
	bdnz .L522
	.loc 2 414 0
	lwz 4,0(30)
	b .L513
.L519:
	.loc 2 412 0
	lwz 0,8(1)
	.loc 2 414 0
	lwz 4,0(30)
	.loc 2 412 0
	stw 0,20(24)
	.loc 2 413 0
	lwz 0,12(1)
	stw 0,24(24)
	.loc 2 414 0
	lwz 0,16(1)
	stw 0,28(24)
	b .L513
.LBE1223:
	.cfi_endproc
.LFE2544:
	.size	_Z13lwGetEnvelopeP6idFilei, .-_Z13lwGetEnvelopeP6idFilei
	.align 2
	.globl _Z10lwFreeClipP9st_lwClip
	.type	_Z10lwFreeClipP9st_lwClip, @function
_Z10lwFreeClipP9st_lwClip:
.LFB2538:
	.loc 2 50 0
	.cfi_startproc
.LVL687:
	stwu 1,-16(1)
.LCFI161:
	.cfi_def_cfa_offset 16
	mflr 0
	stw 30,8(1)
	.loc 2 51 0
	mr. 30,3
	.cfi_offset 30, -8
	.cfi_register 65, 0
	.loc 2 50 0
	stw 0,20(1)
	stw 31,12(1)
	.loc 2 51 0
	beq- 0,.L541
	.cfi_offset 31, -4
	.cfi_offset 65, 4
	.loc 2 52 0
	lwz 3,100(30)
.LVL688:
.LBB1224:
.LBB1225:
	.loc 2 910 0
	cmpwi 7,3,0
	beq- 7,.L543
.LVL689:
.L558:
	.loc 2 911 0
	lwz 31,0(3)
.LVL690:
	.loc 2 912 0
	bl _Z12lwFreePluginP11st_lwPlugin
.LVL691:
	.loc 2 910 0
	cmpwi 7,31,0
	.loc 2 913 0
	mr 3,31
	.loc 2 910 0
	bne+ 7,.L558
.LVL692:
.L543:
.LBE1225:
.LBE1224:
	.loc 2 53 0
	lwz 3,108(30)
.LVL693:
.LBB1226:
.LBB1227:
	.loc 2 910 0
	cmpwi 7,3,0
	beq- 7,.L545
.LVL694:
.L559:
	.loc 2 911 0
	lwz 31,0(3)
.LVL695:
	.loc 2 912 0
	bl _Z12lwFreePluginP11st_lwPlugin
.LVL696:
	.loc 2 910 0
	cmpwi 7,31,0
	.loc 2 913 0
	mr 3,31
	.loc 2 910 0
	bne+ 7,.L559
.LVL697:
.L545:
.LBE1227:
.LBE1226:
	.loc 2 54 0
	lwz 0,12(30)
	lis 9,0x5354
	ori 9,9,17219
	cmpw 7,0,9
	beq- 7,.L550
	cmplw 7,0,9
	ble- 7,.L567
	xoris 9,0,0x5354
	cmpwi 7,9,18764
	beq 7,.L550
	xoris 9,0,0x5852
	cmpwi 7,9,17734
	bne 7,.L547
.LVL698:
.L550:
	.loc 2 74 0
	lwz 3,16(30)
	cmpwi 7,3,0
	beq- 7,.L547
	.loc 2 74 0 is_stmt 0 discriminator 1
	bl _Z8Mem_FreePv
.L547:
	.loc 2 78 0 is_stmt 1
	mr 3,30
	bl _Z8Mem_FreePv
.LVL699:
.L541:
	.loc 2 80 0
	lwz 0,20(1)
	lwz 30,8(1)
.LVL700:
	mtlr 0
	lwz 31,12(1)
	addi 1,1,16
	.cfi_remember_state
.LCFI162:
	.cfi_def_cfa_offset 0
	.cfi_restore 31
	.cfi_restore 30
	blr
.LVL701:
.L567:
.LCFI163:
	.cfi_restore_state
	.loc 2 54 0
	xoris 9,0,0x414e
	cmpwi 7,9,18765
	beq 7,.L548
	xoris 9,0,0x4953
	cmpwi 7,9,17745
	bne 7,.L547
.L548:
	.loc 2 65 0
	lwz 3,20(30)
.LVL702:
	cmpwi 7,3,0
	beq- 7,.L550
	.loc 2 65 0 is_stmt 0 discriminator 1
	bl _Z8Mem_FreePv
	b .L550
	.cfi_endproc
.LFE2538:
	.size	_Z10lwFreeClipP9st_lwClip, .-_Z10lwFreeClipP9st_lwClip
	.align 2
	.globl _Z9lwGetClipP6idFilei
	.type	_Z9lwGetClipP6idFilei, @function
_Z9lwGetClipP6idFilei:
.LFB2539:
	.loc 2 91 0 is_stmt 1
	.cfi_startproc
.LVL703:
	stwu 1,-80(1)
.LCFI164:
	.cfi_def_cfa_offset 80
	mflr 0
	stw 31,76(1)
	mr 31,3
	.cfi_offset 31, -4
	.cfi_register 65, 0
.LBB1228:
	.loc 2 101 0
	li 3,116
.LVL704:
.LBE1228:
	.loc 2 91 0
	stw 28,64(1)
	stw 30,72(1)
	mr 28,4
	.cfi_offset 30, -8
	.cfi_offset 28, -16
	stw 0,84(1)
	stw 14,8(1)
	stw 15,12(1)
	stw 16,16(1)
	stw 17,20(1)
	stw 18,24(1)
	stw 19,28(1)
	stw 20,32(1)
	stw 21,36(1)
	stw 22,40(1)
	stw 23,44(1)
	stw 24,48(1)
	stw 25,52(1)
	stw 26,56(1)
	stw 27,60(1)
	stw 29,68(1)
.LBB1249:
	.loc 2 101 0
	.cfi_offset 29, -12
	.cfi_offset 27, -20
	.cfi_offset 26, -24
	.cfi_offset 25, -28
	.cfi_offset 24, -32
	.cfi_offset 23, -36
	.cfi_offset 22, -40
	.cfi_offset 21, -44
	.cfi_offset 20, -48
	.cfi_offset 19, -52
	.cfi_offset 18, -56
	.cfi_offset 17, -60
	.cfi_offset 16, -64
	.cfi_offset 15, -68
	.cfi_offset 14, -72
	.cfi_offset 65, 4
	bl _Z16Mem_ClearedAlloci
.LVL705:
	.loc 2 102 0
	mr. 30,3
	beq- 0,.L569
	.loc 2 104 0
	lis 9,.LC0@ha
.LBB1229:
.LBB1230:
	.loc 2 1002 0
	lis 29,.LANCHOR0@ha
.LBE1230:
.LBE1229:
	.loc 2 104 0
	lwz 0,.LC0@l(9)
.LBB1232:
.LBB1231:
	.loc 2 1002 0
	li 26,0
	stw 26,.LANCHOR0@l(29)
.LBE1231:
.LBE1232:
	.loc 2 112 0
	mr 3,31
.LVL706:
	.loc 2 104 0
	stw 0,56(30)
	.loc 2 105 0
	stw 0,64(30)
	.loc 2 106 0
	stw 0,72(30)
	.loc 2 107 0
	stw 0,88(30)
.LVL707:
	.loc 2 112 0
	lwz 9,0(31)
	lwz 0,36(9)
	mtctr 0
	bctrl
	mr 25,3
.LVL708:
	.loc 2 116 0
	mr 3,31
.LVL709:
	bl _Z5getI4P6idFile
	stw 3,8(30)
	.loc 2 120 0
	mr 3,31
	bl _Z5getU4P6idFile
	stw 3,12(30)
	.loc 2 121 0
	mr 3,31
	bl _Z5getU2P6idFile
.LVL710:
	.loc 2 122 0
	lwz 0,.LANCHOR0@l(29)
	cmpwi 7,0,0
	blt- 7,.L569
	.loc 2 127 0
	lwz 0,12(30)
	lis 9,0x5354
	ori 9,9,17219
	.loc 2 124 0
	rlwinm 27,3,0,31,31
	.loc 2 127 0
	cmpw 7,0,9
	.loc 2 124 0
	add 27,27,3
	rlwinm 27,27,0,0xffff
.LVL711:
.LBB1233:
.LBB1234:
	.loc 2 1002 0
	stw 26,.LANCHOR0@l(29)
.LBE1234:
.LBE1233:
	.loc 2 127 0
	beq- 7,.L573
	cmplw 7,0,9
	ble- 7,.L610
	xoris 9,0,0x5354
	cmpwi 7,9,18764
	beq 7,.L609
	xoris 9,0,0x5852
	cmpwi 7,9,17734
	beq 7,.L611
.L602:
	li 4,0
	b .L570
.L573:
	.loc 2 155 0
	mr 3,31
	bl _Z5getI2P6idFile
	stw 3,20(30)
	.loc 2 156 0
	mr 3,31
	bl _Z5getI2P6idFile
	stw 3,24(30)
.L609:
	.loc 2 157 0
	mr 3,31
	bl _Z5getS0P6idFile
	stw 3,16(30)
	lwz 4,.LANCHOR0@l(29)
.L577:
	.loc 2 167 0
	cmpwi 7,4,0
	blt- 7,.L569
.L570:
	.loc 2 167 0 is_stmt 0 discriminator 1
	cmpw 7,27,4
	blt- 7,.L569
	.loc 2 171 0 is_stmt 1
	bgt- 7,.L612
.L578:
	.loc 2 176 0
	lwz 9,0(31)
	mr 3,31
	lwz 0,36(9)
	mtctr 0
	bctrl
	subf 3,25,3
.LVL712:
	.loc 2 177 0
	cmpw 7,3,28
	bgt- 7,.L569
	.loc 2 178 0
	cmpw 7,28,3
	beq- 7,.L579
	.loc 2 183 0
	mr 3,31
.LVL713:
	bl _Z5getU4P6idFile
	mr 16,3
.LVL714:
	.loc 2 184 0
	mr 3,31
.LVL715:
	bl _Z5getU2P6idFile
.LVL716:
	.loc 2 185 0
	lwz 0,.LANCHOR0@l(29)
	cmpwi 7,0,0
	blt- 7,.L569
	lis 29,.LANCHOR0@ha
	.loc 2 191 0
	lis 26,0x4946
	lis 23,0x5046
	lis 19,0x5341
	lis 17,0x5449
	lis 20,0x4e45
	lis 24,0x434f
	lis 21,0x4741
	lis 18,0x4855
	lis 22,0x4252
	la 29,.LANCHOR0@l(29)
.LBB1235:
.LBB1236:
	.loc 2 1002 0
	li 27,0
.LBE1236:
.LBE1235:
	.loc 2 191 0
	ori 26,26,19540
	ori 23,23,19540
	ori 19,19,21586
	ori 17,17,19781
	ori 20,20,18241
	ori 24,24,20052
	ori 21,21,19789
	ori 18,18,17696
	ori 22,22,18772
.LVL717:
.L601:
	cmpw 7,16,26
	.loc 2 188 0
	rlwinm 15,3,0,31,31
	add 15,15,3
.LBB1238:
.LBB1237:
	.loc 2 1002 0
	stw 27,0(29)
.LBE1237:
.LBE1238:
	.loc 2 188 0
	rlwinm 15,15,0,0xffff
.LVL718:
	.loc 2 191 0
	beq- 7,.L585
	cmplw 7,16,26
	bgt- 7,.L589
	cmpw 7,16,24
	beq- 7,.L582
	cmplw 7,16,24
	bgt- 7,.L590
	cmpw 7,16,22
	beq- 7,.L613
.L603:
	li 4,0
.L580:
	.loc 2 254 0 discriminator 1
	cmpw 7,15,4
	blt- 7,.L569
	.loc 2 258 0
	bgt- 7,.L614
.L600:
	.loc 2 263 0
	lwz 9,0(31)
	mr 3,31
	lwz 0,36(9)
	mtctr 0
	bctrl
	subf 3,25,3
.LVL719:
	.loc 2 264 0
	cmpw 7,28,3
	blt- 7,.L569
	.loc 2 265 0
	beq- 7,.L579
.LVL720:
	.loc 2 270 0
	mr 3,31
.LVL721:
.LBB1239:
.LBB1240:
	.loc 2 1002 0
	stw 27,0(29)
.LBE1240:
.LBE1239:
	.loc 2 270 0
	bl _Z5getU4P6idFile
	mr 16,3
.LVL722:
	.loc 2 271 0
	mr 3,31
.LVL723:
	bl _Z5getU2P6idFile
.LVL724:
	.loc 2 272 0
	lwz 0,0(29)
	cmpwi 7,0,6
	beq+ 7,.L601
.LVL725:
.L569:
	.loc 2 278 0
	mr 3,30
	.loc 2 279 0
	li 30,0
.LVL726:
	.loc 2 278 0
	bl _Z10lwFreeClipP9st_lwClip
.LVL727:
.L579:
.LBE1249:
	.loc 2 280 0
	lwz 0,84(1)
	mr 3,30
	lwz 14,8(1)
	mtlr 0
	lwz 15,12(1)
	lwz 16,16(1)
	lwz 17,20(1)
	lwz 18,24(1)
	lwz 19,28(1)
	lwz 20,32(1)
	lwz 21,36(1)
	lwz 22,40(1)
	lwz 23,44(1)
	lwz 24,48(1)
	lwz 25,52(1)
	lwz 26,56(1)
	lwz 27,60(1)
	lwz 28,64(1)
.LVL728:
	lwz 29,68(1)
	lwz 30,72(1)
	lwz 31,76(1)
.LVL729:
	addi 1,1,80
	.cfi_remember_state
.LCFI165:
	.cfi_def_cfa_offset 0
	.cfi_restore 31
	.cfi_restore 30
	.cfi_restore 29
	.cfi_restore 28
	.cfi_restore 27
	.cfi_restore 26
	.cfi_restore 25
	.cfi_restore 24
	.cfi_restore 23
	.cfi_restore 22
	.cfi_restore 21
	.cfi_restore 20
	.cfi_restore 19
	.cfi_restore 18
	.cfi_restore 17
	.cfi_restore 16
	.cfi_restore 15
	.cfi_restore 14
	blr
.LVL730:
.L610:
.LCFI166:
	.cfi_restore_state
.LBB1250:
	.loc 2 127 0
	xoris 9,0,0x414e
	cmpwi 7,9,18765
	beq 7,.L571
	xoris 9,0,0x4953
	cmpwi 7,9,17745
	bne 7,.L602
	.loc 2 133 0
	mr 3,31
	bl _Z5getU1P6idFile
	stw 3,24(30)
	.loc 2 134 0
	mr 3,31
	bl _Z5getU1P6idFile
	stw 3,28(30)
	.loc 2 135 0
	mr 3,31
	bl _Z5getI2P6idFile
	stw 3,32(30)
	.loc 2 136 0
	mr 3,31
	bl _Z5getI2P6idFile
	stw 3,36(30)
	.loc 2 137 0
	mr 3,31
	bl _Z5getI2P6idFile
	stw 3,40(30)
	.loc 2 138 0
	mr 3,31
	bl _Z5getS0P6idFile
	stw 3,16(30)
	.loc 2 139 0
	mr 3,31
	bl _Z5getS0P6idFile
	lwz 4,.LANCHOR0@l(29)
	stw 3,20(30)
	.loc 2 140 0
	b .L577
.LVL731:
.L613:
	.loc 2 204 0
	mr 3,31
	bl _Z5getF4P6idFile
	.loc 2 205 0
	mr 3,31
	.loc 2 204 0
	stfs 1,64(30)
	.loc 2 205 0
	bl _Z5getVXP6idFile
	lwz 4,0(29)
	stw 3,68(30)
.L592:
	.loc 2 254 0
	cmpwi 7,4,0
	bge+ 7,.L580
	b .L569
.L589:
	.loc 2 191 0
	cmpw 7,16,23
	beq- 7,.L585
	cmplw 7,16,23
	bgt- 7,.L591
	cmpw 7,16,20
	bne+ 7,.L603
	.loc 2 224 0
	mr 3,31
	bl _Z5getU2P6idFile
	lwz 4,0(29)
	stw 3,96(30)
	.loc 2 225 0
	b .L592
.L614:
	.loc 2 259 0
	lwz 9,0(31)
	mr 3,31
	subf 4,4,15
	li 5,0
	lwz 0,48(9)
	mtctr 0
	bctrl
	b .L600
.L590:
	.loc 2 191 0
	cmpw 7,16,21
	beq- 7,.L583
	cmpw 7,16,18
	bne+ 7,.L603
	.loc 2 214 0
	mr 3,31
	bl _Z5getF4P6idFile
	.loc 2 215 0
	mr 3,31
	.loc 2 214 0
	stfs 1,80(30)
	.loc 2 215 0
	bl _Z5getVXP6idFile
	lwz 4,0(29)
	stw 3,84(30)
	.loc 2 216 0
	b .L592
.L583:
	.loc 2 219 0
	mr 3,31
	bl _Z5getF4P6idFile
	.loc 2 220 0
	mr 3,31
	.loc 2 219 0
	stfs 1,88(30)
	.loc 2 220 0
	bl _Z5getVXP6idFile
	lwz 4,0(29)
	stw 3,92(30)
	.loc 2 221 0
	b .L592
.L591:
	.loc 2 191 0
	cmpw 7,16,19
	beq- 7,.L587
	cmpw 7,16,17
	bne+ 7,.L603
	.loc 2 193 0
	mr 3,31
	bl _Z5getF4P6idFile
	.loc 2 194 0
	mr 3,31
	.loc 2 193 0
	stfs 1,44(30)
	.loc 2 194 0
	bl _Z5getF4P6idFile
	.loc 2 195 0
	mr 3,31
	.loc 2 194 0
	stfs 1,48(30)
	.loc 2 195 0
	bl _Z5getF4P6idFile
	lwz 4,0(29)
	stfs 1,52(30)
	.loc 2 196 0
	b .L592
.L587:
	.loc 2 209 0
	mr 3,31
	bl _Z5getF4P6idFile
	.loc 2 210 0
	mr 3,31
	.loc 2 209 0
	stfs 1,72(30)
	.loc 2 210 0
	bl _Z5getVXP6idFile
	lwz 4,0(29)
	stw 3,76(30)
	.loc 2 211 0
	b .L592
.LVL732:
.L612:
	.loc 2 172 0
	lwz 9,0(31)
	mr 3,31
	subf 4,4,27
	li 5,0
	lwz 0,48(9)
	mtctr 0
	bctrl
	b .L578
.LVL733:
.L582:
	.loc 2 199 0
	mr 3,31
	bl _Z5getF4P6idFile
	.loc 2 200 0
	mr 3,31
	.loc 2 199 0
	stfs 1,56(30)
	.loc 2 200 0
	bl _Z5getVXP6idFile
	lwz 4,0(29)
	stw 3,60(30)
	.loc 2 201 0
	b .L592
.L585:
	.loc 2 229 0
	li 3,24
	bl _Z16Mem_ClearedAlloci
.LVL734:
	.loc 2 230 0
	mr. 14,3
	beq- 0,.L569
	.loc 2 232 0
	mr 3,31
.LVL735:
	bl _Z5getS0P6idFile
	stw 3,12(14)
	.loc 2 233 0
	mr 3,31
	bl _Z5getU2P6idFile
	.loc 2 235 0
	lwz 4,0(29)
	.loc 2 233 0
	stw 3,16(14)
	.loc 2 235 0
	mr 3,31
	subf 4,4,15
	bl _Z8getbytesP6idFilei
	.loc 2 237 0
	cmpw 7,16,26
	.loc 2 235 0
	stw 3,20(14)
	.loc 2 237 0
	beq- 7,.L615
.LVL736:
.LBB1241:
.LBB1242:
	.loc 2 929 0
	lwz 9,108(30)
.LVL737:
	.loc 2 930 0
	cmpwi 7,9,0
	bne+ 7,.L608
	b .L618
.LVL738:
.L605:
	.loc 2 936 0
	mr 9,0
.LVL739:
.L608:
	lwz 0,0(9)
.LVL740:
	.loc 2 934 0
	cmpwi 7,0,0
	bne+ 7,.L605
	.loc 2 938 0
	stw 14,0(9)
	.loc 2 939 0
	stw 9,4(14)
.LVL741:
.L598:
.LBE1242:
.LBE1241:
	.loc 2 243 0
	lwz 9,112(30)
	lwz 4,0(29)
	addi 0,9,1
	stw 0,112(30)
	b .L592
.LVL742:
.L611:
	.loc 2 150 0
	mr 3,31
	bl _Z5getI4P6idFile
	stw 3,20(30)
	.loc 2 151 0
	mr 3,31
	bl _Z5getS0P6idFile
	stw 3,16(30)
	lwz 4,.LANCHOR0@l(29)
	.loc 2 152 0
	b .L577
.LVL743:
.L615:
.LBB1244:
.LBB1245:
	.loc 2 929 0
	lwz 9,100(30)
.LVL744:
	.loc 2 930 0
	cmpwi 7,9,0
	bne+ 7,.L607
	b .L619
.LVL745:
.L604:
	.loc 2 936 0
	mr 9,0
.LVL746:
.L607:
	lwz 0,0(9)
.LVL747:
	.loc 2 934 0
	cmpwi 7,0,0
	bne+ 7,.L604
	.loc 2 938 0
	stw 14,0(9)
	.loc 2 939 0
	stw 9,4(14)
.LVL748:
.L595:
.LBE1245:
.LBE1244:
	.loc 2 239 0
	lwz 9,104(30)
	lwz 4,0(29)
	addi 0,9,1
	stw 0,104(30)
	b .L592
.LVL749:
.L571:
	.loc 2 143 0
	mr 3,31
	bl _Z5getS0P6idFile
	stw 3,16(30)
	.loc 2 144 0
	mr 3,31
	bl _Z5getS0P6idFile
	.loc 2 146 0
	lwz 4,.LANCHOR0@l(29)
	.loc 2 144 0
	stw 3,20(30)
	.loc 2 146 0
	mr 3,31
	subf 4,4,27
	bl _Z8getbytesP6idFilei
	lwz 4,.LANCHOR0@l(29)
	stw 3,24(30)
	.loc 2 147 0
	b .L577
.LVL750:
.L618:
.LBB1247:
.LBB1243:
	.loc 2 931 0
	stw 14,108(30)
	b .L598
.LVL751:
.L619:
.LBE1243:
.LBE1247:
.LBB1248:
.LBB1246:
	stw 14,100(30)
	b .L595
.LBE1246:
.LBE1248:
.LBE1250:
	.cfi_endproc
.LFE2539:
	.size	_Z9lwGetClipP6idFilei, .-_Z9lwGetClipP6idFilei
	.align 2
	.globl _Z13lwFreeTextureP12st_lwTexture
	.type	_Z13lwFreeTextureP12st_lwTexture, @function
_Z13lwFreeTextureP12st_lwTexture:
.LFB2602:
	.loc 2 2915 0
	.cfi_startproc
.LVL752:
	stwu 1,-16(1)
.LCFI167:
	.cfi_def_cfa_offset 16
	mflr 0
	stw 31,12(1)
	.loc 2 2916 0
	mr. 31,3
	.cfi_offset 31, -4
	.cfi_register 65, 0
	.loc 2 2915 0
	stw 0,20(1)
	.loc 2 2916 0
	beq- 0,.L620
	.cfi_offset 65, 4
	.loc 2 2917 0
	lwz 3,8(31)
.LVL753:
	cmpwi 7,3,0
	beq- 7,.L622
	.loc 2 2917 0 is_stmt 0 discriminator 1
	bl _Z8Mem_FreePv
.L622:
	.loc 2 2918 0 is_stmt 1
	lwz 0,12(31)
	xoris 9,0,0x494d
	cmpwi 7,9,16720
	beq 7,.L625
	xoris 9,0,0x5052
	cmpwi 7,9,20291
	beq 7,.L626
	xoris 9,0,0x4752
	cmpwi 7,9,16708
	beq 7,.L631
.L623:
	.loc 2 2931 0
	lwz 3,172(31)
	cmpwi 7,3,0
	beq- 7,.L629
	.loc 2 2931 0 is_stmt 0 discriminator 1
	bl _Z8Mem_FreePv
.L629:
	.loc 2 2932 0 is_stmt 1
	mr 3,31
	bl _Z8Mem_FreePv
.L620:
	.loc 2 2934 0
	lwz 0,20(1)
	lwz 31,12(1)
.LVL754:
	mtlr 0
	addi 1,1,16
	.cfi_remember_state
.LCFI168:
	.cfi_def_cfa_offset 0
	.cfi_restore 31
	blr
.LVL755:
.L626:
.LCFI169:
	.cfi_restore_state
	.loc 2 2923 0
	lwz 3,52(31)
	cmpwi 7,3,0
	beq- 7,.L627
	.loc 2 2923 0 is_stmt 0 discriminator 1
	bl _Z8Mem_FreePv
.L627:
	.loc 2 2924 0 is_stmt 1
	lwz 3,56(31)
	cmpwi 7,3,0
	beq- 7,.L623
	.loc 2 2928 0 discriminator 1
	bl _Z8Mem_FreePv
	b .L623
.L631:
	.loc 2 2927 0
	lwz 3,56(31)
	cmpwi 7,3,0
	beq- 7,.L628
	.loc 2 2927 0 is_stmt 0 discriminator 1
	bl _Z8Mem_FreePv
.L628:
	.loc 2 2928 0 is_stmt 1
	lwz 3,60(31)
	cmpwi 7,3,0
	beq- 7,.L623
	bl _Z8Mem_FreePv
	b .L623
.L625:
	.loc 2 2920 0
	lwz 3,44(31)
	cmpwi 7,3,0
	beq- 7,.L623
	.loc 2 2928 0
	bl _Z8Mem_FreePv
	b .L623
	.cfi_endproc
.LFE2602:
	.size	_Z13lwFreeTextureP12st_lwTexture, .-_Z13lwFreeTextureP12st_lwTexture
	.align 2
	.globl _Z13lwFreeSurfaceP12st_lwSurface
	.type	_Z13lwFreeSurfaceP12st_lwSurface, @function
_Z13lwFreeSurfaceP12st_lwSurface:
.LFB2603:
	.loc 2 2945 0
	.cfi_startproc
.LVL756:
	stwu 1,-16(1)
.LCFI170:
	.cfi_def_cfa_offset 16
	mflr 0
	stw 30,8(1)
	.loc 2 2946 0
	mr. 30,3
	.cfi_offset 30, -8
	.cfi_register 65, 0
	.loc 2 2945 0
	stw 0,20(1)
	stw 31,12(1)
	.loc 2 2946 0
	beq- 0,.L632
	.cfi_offset 31, -4
	.cfi_offset 65, 4
	.loc 2 2947 0
	lwz 3,8(30)
.LVL757:
	cmpwi 7,3,0
	beq- 7,.L634
	.loc 2 2947 0 is_stmt 0 discriminator 1
	bl _Z8Mem_FreePv
.L634:
	.loc 2 2948 0 is_stmt 1
	lwz 3,12(30)
	cmpwi 7,3,0
	beq- 7,.L635
	.loc 2 2948 0 is_stmt 0 discriminator 1
	bl _Z8Mem_FreePv
.L635:
	.loc 2 2950 0 is_stmt 1
	lwz 3,236(30)
.LVL758:
.LBB1251:
.LBB1252:
	.loc 2 910 0
	cmpwi 7,3,0
	beq- 7,.L636
.LVL759:
.L669:
	.loc 2 911 0
	lwz 31,0(3)
.LVL760:
	.loc 2 912 0
	bl _Z12lwFreePluginP11st_lwPlugin
.LVL761:
	.loc 2 910 0
	cmpwi 7,31,0
	.loc 2 913 0
	mr 3,31
	.loc 2 910 0
	bne+ 7,.L669
.LVL762:
.L636:
.LBE1252:
.LBE1251:
	.loc 2 2952 0
	lwz 3,32(30)
.LVL763:
.LBB1253:
.LBB1254:
	.loc 2 910 0
	cmpwi 7,3,0
	beq- 7,.L638
.LVL764:
.L670:
	.loc 2 911 0
	lwz 31,0(3)
.LVL765:
	.loc 2 912 0
	bl _Z13lwFreeTextureP12st_lwTexture
.LVL766:
	.loc 2 910 0
	cmpwi 7,31,0
	.loc 2 913 0
	mr 3,31
	.loc 2 910 0
	bne+ 7,.L670
.LVL767:
.L638:
.LBE1254:
.LBE1253:
	.loc 2 2953 0
	lwz 3,44(30)
.LVL768:
.LBB1255:
.LBB1256:
	.loc 2 910 0
	cmpwi 7,3,0
	beq- 7,.L640
.LVL769:
.L671:
	.loc 2 911 0
	lwz 31,0(3)
.LVL770:
	.loc 2 912 0
	bl _Z13lwFreeTextureP12st_lwTexture
.LVL771:
	.loc 2 910 0
	cmpwi 7,31,0
	.loc 2 913 0
	mr 3,31
	.loc 2 910 0
	bne+ 7,.L671
.LVL772:
.L640:
.LBE1256:
.LBE1255:
	.loc 2 2954 0
	lwz 3,56(30)
.LVL773:
.LBB1257:
.LBB1258:
	.loc 2 910 0
	cmpwi 7,3,0
	beq- 7,.L642
.LVL774:
.L672:
	.loc 2 911 0
	lwz 31,0(3)
.LVL775:
	.loc 2 912 0
	bl _Z13lwFreeTextureP12st_lwTexture
.LVL776:
	.loc 2 910 0
	cmpwi 7,31,0
	.loc 2 913 0
	mr 3,31
	.loc 2 910 0
	bne+ 7,.L672
.LVL777:
.L642:
.LBE1258:
.LBE1257:
	.loc 2 2955 0
	lwz 3,68(30)
.LVL778:
.LBB1259:
.LBB1260:
	.loc 2 910 0
	cmpwi 7,3,0
	beq- 7,.L644
.LVL779:
.L673:
	.loc 2 911 0
	lwz 31,0(3)
.LVL780:
	.loc 2 912 0
	bl _Z13lwFreeTextureP12st_lwTexture
.LVL781:
	.loc 2 910 0
	cmpwi 7,31,0
	.loc 2 913 0
	mr 3,31
	.loc 2 910 0
	bne+ 7,.L673
.LVL782:
.L644:
.LBE1260:
.LBE1259:
	.loc 2 2956 0
	lwz 3,80(30)
.LVL783:
.LBB1261:
.LBB1262:
	.loc 2 910 0
	cmpwi 7,3,0
	beq- 7,.L646
.LVL784:
.L674:
	.loc 2 911 0
	lwz 31,0(3)
.LVL785:
	.loc 2 912 0
	bl _Z13lwFreeTextureP12st_lwTexture
.LVL786:
	.loc 2 910 0
	cmpwi 7,31,0
	.loc 2 913 0
	mr 3,31
	.loc 2 910 0
	bne+ 7,.L674
.LVL787:
.L646:
.LBE1262:
.LBE1261:
	.loc 2 2957 0
	lwz 3,92(30)
.LVL788:
.LBB1263:
.LBB1264:
	.loc 2 910 0
	cmpwi 7,3,0
	beq- 7,.L648
.LVL789:
.L675:
	.loc 2 911 0
	lwz 31,0(3)
.LVL790:
	.loc 2 912 0
	bl _Z13lwFreeTextureP12st_lwTexture
.LVL791:
	.loc 2 910 0
	cmpwi 7,31,0
	.loc 2 913 0
	mr 3,31
	.loc 2 910 0
	bne+ 7,.L675
.LVL792:
.L648:
.LBE1264:
.LBE1263:
	.loc 2 2958 0
	lwz 3,116(30)
.LVL793:
.LBB1265:
.LBB1266:
	.loc 2 910 0
	cmpwi 7,3,0
	beq- 7,.L650
.LVL794:
.L676:
	.loc 2 911 0
	lwz 31,0(3)
.LVL795:
	.loc 2 912 0
	bl _Z13lwFreeTextureP12st_lwTexture
.LVL796:
	.loc 2 910 0
	cmpwi 7,31,0
	.loc 2 913 0
	mr 3,31
	.loc 2 910 0
	bne+ 7,.L676
.LVL797:
.L650:
.LBE1266:
.LBE1265:
	.loc 2 2959 0
	lwz 3,140(30)
.LVL798:
.LBB1267:
.LBB1268:
	.loc 2 910 0
	cmpwi 7,3,0
	beq- 7,.L652
.LVL799:
.L677:
	.loc 2 911 0
	lwz 31,0(3)
.LVL800:
	.loc 2 912 0
	bl _Z13lwFreeTextureP12st_lwTexture
.LVL801:
	.loc 2 910 0
	cmpwi 7,31,0
	.loc 2 913 0
	mr 3,31
	.loc 2 910 0
	bne+ 7,.L677
.LVL802:
.L652:
.LBE1268:
.LBE1267:
	.loc 2 2960 0
	lwz 3,152(30)
.LVL803:
.LBB1269:
.LBB1270:
	.loc 2 910 0
	cmpwi 7,3,0
	beq- 7,.L654
.LVL804:
.L678:
	.loc 2 911 0
	lwz 31,0(3)
.LVL805:
	.loc 2 912 0
	bl _Z13lwFreeTextureP12st_lwTexture
.LVL806:
	.loc 2 910 0
	cmpwi 7,31,0
	.loc 2 913 0
	mr 3,31
	.loc 2 910 0
	bne+ 7,.L678
.LVL807:
.L654:
.LBE1270:
.LBE1269:
	.loc 2 2961 0
	lwz 3,164(30)
.LVL808:
.LBB1271:
.LBB1272:
	.loc 2 910 0
	cmpwi 7,3,0
	beq- 7,.L656
.LVL809:
.L679:
	.loc 2 911 0
	lwz 31,0(3)
.LVL810:
	.loc 2 912 0
	bl _Z13lwFreeTextureP12st_lwTexture
.LVL811:
	.loc 2 910 0
	cmpwi 7,31,0
	.loc 2 913 0
	mr 3,31
	.loc 2 910 0
	bne+ 7,.L679
.LVL812:
.L656:
.LBE1272:
.LBE1271:
	.loc 2 2963 0
	mr 3,30
.LVL813:
	bl _Z8Mem_FreePv
.LVL814:
.L632:
	.loc 2 2965 0
	lwz 0,20(1)
	lwz 30,8(1)
.LVL815:
	mtlr 0
	lwz 31,12(1)
	addi 1,1,16
.LCFI171:
	.cfi_def_cfa_offset 0
	.cfi_restore 31
	.cfi_restore 30
	blr
	.cfi_endproc
.LFE2603:
	.size	_Z13lwFreeSurfaceP12st_lwSurface, .-_Z13lwFreeSurfaceP12st_lwSurface
	.align 2
	.globl _Z13lwGetSurface5P6idFileiP11st_lwObject
	.type	_Z13lwGetSurface5P6idFileiP11st_lwObject, @function
_Z13lwGetSurface5P6idFileiP11st_lwObject:
.LFB2585:
	.loc 2 1822 0
	.cfi_startproc
.LVL816:
	stwu 1,-240(1)
.LCFI172:
	.cfi_def_cfa_offset 240
	mflr 0
	stw 31,220(1)
	mr 31,3
	.cfi_offset 31, -20
	.cfi_register 65, 0
.LBB1307:
	.loc 2 1835 0
	li 3,244
.LVL817:
.LBE1307:
	.loc 2 1822 0
	stw 21,180(1)
	stw 26,200(1)
	mr 21,5
	.cfi_offset 26, -40
	.cfi_offset 21, -60
	stw 30,216(1)
	mr 26,4
	stw 0,244(1)
	stfd 30,224(1)
	stfd 31,232(1)
	stw 14,152(1)
	stw 15,156(1)
	stw 16,160(1)
	stw 17,164(1)
	stw 18,168(1)
	stw 19,172(1)
	stw 20,176(1)
	stw 22,184(1)
	stw 23,188(1)
	stw 24,192(1)
	stw 25,196(1)
	stw 27,204(1)
	stw 28,208(1)
	stw 29,212(1)
.LBB1378:
	.loc 2 1835 0
	.cfi_offset 29, -28
	.cfi_offset 28, -32
	.cfi_offset 27, -36
	.cfi_offset 25, -44
	.cfi_offset 24, -48
	.cfi_offset 23, -52
	.cfi_offset 22, -56
	.cfi_offset 20, -64
	.cfi_offset 19, -68
	.cfi_offset 18, -72
	.cfi_offset 17, -76
	.cfi_offset 16, -80
	.cfi_offset 15, -84
	.cfi_offset 14, -88
	.cfi_offset 63, -8
	.cfi_offset 62, -16
	.cfi_offset 65, 4
	.cfi_offset 30, -24
	bl _Z16Mem_ClearedAlloci
.LVL818:
	.loc 2 1836 0
	mr. 30,3
	beq- 0,.L681
	.loc 2 1840 0
	lis 9,.LC21@ha
	.loc 2 1843 0
	lis 22,.LC0@ha
	.loc 2 1840 0
	lwz 9,.LC21@l(9)
.LBB1308:
.LBB1309:
	.loc 2 1002 0
	lis 29,.LANCHOR0@ha
.LBE1309:
.LBE1308:
	.loc 2 1843 0
	lwz 0,.LC0@l(22)
	.loc 2 1852 0
	mr 3,31
.LVL819:
	.loc 2 1840 0
	stw 9,16(30)
	.loc 2 1841 0
	stw 9,20(30)
	.loc 2 1842 0
	stw 9,24(30)
	.loc 2 1844 0
	lis 9,.LC22@ha
	lwz 9,.LC22@l(9)
	.loc 2 1843 0
	stw 0,48(30)
	.loc 2 1845 0
	stw 0,156(30)
	.loc 2 1846 0
	stw 0,132(30)
	.loc 2 1847 0
	li 0,1
	.loc 2 1844 0
	stw 9,72(30)
	.loc 2 1847 0
	stw 0,172(30)
.LVL820:
	.loc 2 1852 0
	lwz 9,0(31)
	lwz 0,36(9)
.LBB1311:
.LBB1310:
	.loc 2 1002 0
	li 9,0
	stw 9,.LANCHOR0@l(29)
.LBE1310:
.LBE1311:
	.loc 2 1852 0
	mtctr 0
	bctrl
	mr 25,3
.LVL821:
	.loc 2 1856 0
	mr 3,31
.LVL822:
	bl _Z5getS0P6idFile
	stw 3,8(30)
	.loc 2 1860 0
	mr 3,31
	bl _Z5getU4P6idFile
	mr 0,3
.LVL823:
	.loc 2 1861 0
	mr 3,31
.LVL824:
	stw 0,144(1)
	bl _Z5getU2P6idFile
.LVL825:
	.loc 2 1862 0
	lwz 9,.LANCHOR0@l(29)
	lwz 0,144(1)
	cmpwi 7,9,0
	blt- 7,.L682
	.loc 2 1870 0
	lis 27,0x5354
	lis 23,0x544f
	lis 20,0x5456
	la 29,.LANCHOR0@l(29)
	ori 27,27,17752
	ori 23,23,20547
	ori 20,20,16716
	.loc 2 2037 0
	lis 19,.LC16@ha
	lis 18,.LC25@ha
.LBB1312:
.LBB1313:
	.loc 2 1748 0
	li 15,0
	.loc 2 1750 0
	lis 16,.LC29@ha
	.loc 2 1758 0
	lis 17,.LC30@ha
	lis 14,.LC23@ha
.LVL826:
.L780:
.LBE1313:
.LBE1312:
	.loc 2 1870 0
	cmpw 7,0,27
	.loc 2 1867 0
	rlwinm 28,3,0,31,31
	add 28,28,3
.LBB1321:
.LBB1322:
	.loc 2 1002 0
	li 9,0
.LBE1322:
.LBE1321:
	.loc 2 1867 0
	rlwinm 28,28,0,0xffff
.LVL827:
.LBB1324:
.LBB1323:
	.loc 2 1002 0
	stw 9,0(29)
.LBE1323:
.LBE1324:
	.loc 2 1870 0
	beq- 7,.L703
	cmplw 7,0,27
	bgt- 7,.L723
	lis 9,0x5245
	ori 9,9,17996
	cmpw 7,0,9
	beq- 7,.L693
	cmplw 7,0,9
	ble- 7,.L822
	lis 9,0x5254
	ori 9,9,17752
	cmpw 7,0,9
	beq- 7,.L698
	cmplw 7,0,9
	ble- 7,.L823
	lis 9,0x5348
	ori 9,9,17490
	cmpw 7,0,9
	beq- 7,.L700
	cmplw 7,0,9
	ble- 7,.L824
	xoris 9,0,0x534d
	cmpwi 7,9,16718
	beq 7,.L701
	xoris 9,0,0x5350
	cmpwi 7,9,17731
	beq 7,.L825
.L782:
	li 4,0
	b .L683
.L723:
	cmpw 7,0,23
	beq- 7,.L713
	cmplw 7,0,23
	ble- 7,.L826
	cmpw 7,0,20
	beq- 7,.L718
	cmplw 7,0,20
	bgt- 7,.L735
	lis 9,0x5452
	ori 9,9,17734
	cmpw 7,0,9
	beq- 7,.L715
	cmplw 7,0,9
	ble- 7,.L827
	xoris 9,0,0x5453
	cmpwi 7,9,18778
	beq 7,.L716
	xoris 9,0,0x5454
	cmpwi 7,9,17752
	bne 7,.L782
	.loc 2 1982 0
	mr 4,28
	mr 3,31
	bl _Z8getbytesP6idFilei
.LVL828:
	.loc 2 1983 0
	bl _ZL11get_texturePc
.LBB1325:
.LBB1326:
	.loc 2 929 0
	lwz 9,116(30)
.LBE1326:
.LBE1325:
	.loc 2 1983 0
	mr 24,3
.LVL829:
.LBB1329:
.LBB1327:
	.loc 2 930 0
	cmpwi 7,9,0
	bne+ 7,.L804
	b .L848
.LVL830:
.L789:
	.loc 2 936 0
	mr 9,0
.LVL831:
.L804:
	lwz 0,0(9)
.LVL832:
	.loc 2 934 0
	cmpwi 7,0,0
	bne+ 7,.L789
.LVL833:
.L821:
	.loc 2 938 0
	stw 24,0(9)
	.loc 2 939 0
	lwz 4,0(29)
	stw 9,4(24)
.LVL834:
.L738:
.LBE1327:
.LBE1329:
	.loc 2 2092 0
	cmpwi 7,4,0
	blt- 7,.L682
.L683:
	.loc 2 2092 0 is_stmt 0 discriminator 1
	cmpw 7,28,4
	blt- 7,.L682
.L781:
	.loc 2 2096 0 is_stmt 1
	cmpw 7,4,28
	blt- 7,.L829
.L779:
	.loc 2 2101 0
	lwz 9,0(31)
	mr 3,31
	lwz 0,36(9)
	mtctr 0
	bctrl
	subf 3,25,3
	cmpw 7,3,26
	bge- 7,.L681
.LVL835:
.LBB1330:
.LBB1331:
	.loc 2 1002 0
	li 0,0
.LBE1331:
.LBE1330:
	.loc 2 2107 0
	mr 3,31
.LBB1333:
.LBB1332:
	.loc 2 1002 0
	stw 0,0(29)
.LBE1332:
.LBE1333:
	.loc 2 2107 0
	bl _Z5getU4P6idFile
	mr 0,3
.LVL836:
	.loc 2 2108 0
	mr 3,31
.LVL837:
	stw 0,144(1)
	bl _Z5getU2P6idFile
.LVL838:
	.loc 2 2109 0
	lwz 9,0(29)
	lwz 0,144(1)
	cmpwi 7,9,6
	beq+ 7,.L780
.LVL839:
.L682:
	.loc 2 2115 0
	mr 3,30
	.loc 2 2116 0
	li 30,0
.LVL840:
	.loc 2 2115 0
	bl _Z13lwFreeSurfaceP12st_lwSurface
.LVL841:
.L681:
.LBE1378:
	.loc 2 2117 0
	lwz 0,244(1)
	mr 3,30
	lwz 14,152(1)
	mtlr 0
	lwz 15,156(1)
	lwz 16,160(1)
	lwz 17,164(1)
	lwz 18,168(1)
	lwz 19,172(1)
	lwz 20,176(1)
	lwz 21,180(1)
	lwz 22,184(1)
	lwz 23,188(1)
	lwz 24,192(1)
	lwz 25,196(1)
	lwz 26,200(1)
	lwz 27,204(1)
	lwz 28,208(1)
	lwz 29,212(1)
	lwz 30,216(1)
	lwz 31,220(1)
	lfd 30,224(1)
	lfd 31,232(1)
	addi 1,1,240
	.cfi_remember_state
.LCFI173:
	.cfi_def_cfa_offset 0
	.cfi_restore 63
	.cfi_restore 62
	.cfi_restore 31
	.cfi_restore 30
	.cfi_restore 29
	.cfi_restore 28
	.cfi_restore 27
	.cfi_restore 26
	.cfi_restore 25
	.cfi_restore 24
	.cfi_restore 23
	.cfi_restore 22
	.cfi_restore 21
	.cfi_restore 20
	.cfi_restore 19
	.cfi_restore 18
	.cfi_restore 17
	.cfi_restore 16
	.cfi_restore 15
	.cfi_restore 14
	blr
.LVL842:
.L826:
.LCFI174:
	.cfi_restore_state
.LBB1379:
	.loc 2 1870 0
	lis 9,0x5446
	ori 9,9,16716
	cmpw 7,0,9
	beq- 7,.L708
	cmplw 7,0,9
	ble- 7,.L830
	lis 9,0x5446
	ori 9,9,20528
	cmpw 7,0,9
	beq- 7,.L710
	cmplw 7,0,9
	lis 9,0x5446
	ble- 7,.L831
	ori 9,9,20529
	cmpw 7,0,9
	beq- 7,.L711
	xoris 9,0,0x5449
	cmpwi 7,9,19783
	bne 7,.L782
	.loc 2 2046 0
	mr 3,31
	bl _Z5getS0P6idFile
.LVL843:
	.loc 2 2047 0
	addi 4,21,12
	addi 5,21,40
	bl _ZL8add_clipPcPP9st_lwClipPi
	lwz 4,0(29)
	stw 3,36(24)
	.loc 2 2048 0
	b .L738
.LVL844:
.L822:
	.loc 2 1870 0
	lis 9,0x4454
	ori 9,9,17752
	cmpw 7,0,9
	beq- 7,.L688
	cmplw 7,0,9
	ble- 7,.L832
	lis 9,0x474c
	ori 9,9,20307
	cmpw 7,0,9
	beq- 7,.L690
	cmplw 7,0,9
	ble- 7,.L833
	xoris 9,0,0x4c54
	cmpwi 7,9,17752
	beq 7,.L691
	xoris 9,0,0x4c55
	cmpwi 7,9,19785
	bne 7,.L782
	.loc 2 1888 0
	mr 3,31
	bl _Z5getI2P6idFile
.LVL845:
	lis 0,0x4330
	xoris 3,3,0x8000
	stw 0,48(1)
	stw 3,52(1)
	lfs 0,.LC16@l(19)
	lfd 12,48(1)
	lfs 13,.LC25@l(18)
	fsub 0,12,0
	lwz 4,0(29)
	frsp 0,0
	fmuls 0,0,13
	stfs 0,36(30)
	.loc 2 1889 0
	b .L738
.LVL846:
.L823:
	.loc 2 1870 0
	lis 9,0x5249
	ori 9,9,19783
	cmpw 7,0,9
	beq- 7,.L695
	cmplw 7,0,9
	ble- 7,.L834
	xoris 9,0,0x5249
	cmpwi 7,9,20036
	beq 7,.L696
	xoris 9,0,0x5253
	cmpwi 7,9,16718
	bne 7,.L782
	.loc 2 1934 0
	mr 3,31
	bl _Z5getF4P6idFile
.LVL847:
	lwz 4,0(29)
	stfs 1,104(30)
	.loc 2 1935 0
	b .L738
.LVL848:
.L832:
	.loc 2 1870 0
	lis 9,0x434f
	ori 9,9,19538
	cmpw 7,0,9
	beq- 7,.L685
	cmplw 7,0,9
	ble- 7,.L835
	xoris 9,0,0x4354
	cmpwi 7,9,17752
	beq 7,.L686
	xoris 9,0,0x4449
	cmpwi 7,9,17990
	bne 7,.L782
	.loc 2 1896 0
	mr 3,31
	bl _Z5getI2P6idFile
.LVL849:
	lis 0,0x4330
	xoris 3,3,0x8000
	stw 0,56(1)
	stw 3,60(1)
	lfs 0,.LC16@l(19)
	lfd 12,56(1)
	lfs 13,.LC25@l(18)
	fsub 0,12,0
	lwz 4,0(29)
	frsp 0,0
	fmuls 0,0,13
	stfs 0,48(30)
	.loc 2 1897 0
	b .L738
.LVL850:
.L735:
	.loc 2 1870 0
	lis 9,0x5644
	ori 9,9,18758
	cmpw 7,0,9
	beq- 7,.L720
	cmplw 7,0,9
	ble- 7,.L836
	xoris 9,0,0x564c
	cmpwi 7,9,21837
	beq 7,.L721
	xoris 9,0,0x5653
	cmpwi 7,9,20547
	bne 7,.L782
	.loc 2 1908 0
	mr 3,31
	bl _Z5getF4P6idFile
.LVL851:
	lwz 4,0(29)
	stfs 1,60(30)
	.loc 2 1909 0
	b .L738
.LVL852:
.L830:
	.loc 2 1870 0
	lis 9,0x5441
	ori 9,9,19792
	cmpw 7,0,9
	beq- 7,.L705
	cmplw 7,0,9
	ble- 7,.L837
	xoris 9,0,0x5443
	cmpwi 7,9,19538
	beq 7,.L706
	xoris 9,0,0x5443
	cmpwi 7,9,21586
	bne 7,.L782
	.loc 2 2015 0
	mr 3,31
	bl _Z5getF4P6idFile
.LVL853:
	mr 3,31
	stfs 1,120(24)
.LVL854:
	bl _Z5getF4P6idFile
	mr 3,31
	stfs 1,124(24)
.LVL855:
	bl _Z5getF4P6idFile
	li 11,3
	stfs 1,128(24)
.LVL856:
	lwz 4,0(29)
	stw 11,112(1)
	b .L738
.LVL857:
.L698:
	.loc 2 1970 0
	mr 4,28
	mr 3,31
	bl _Z8getbytesP6idFilei
.LVL858:
	.loc 2 1971 0
	bl _ZL11get_texturePc
.LBB1334:
.LBB1335:
	.loc 2 929 0
	lwz 9,92(30)
.LBE1335:
.LBE1334:
	.loc 2 1971 0
	mr 24,3
.LVL859:
.LBB1338:
.LBB1336:
	.loc 2 930 0
	cmpwi 7,9,0
	bne+ 7,.L802
	b .L849
.LVL860:
.L787:
	.loc 2 936 0
	mr 9,0
.LVL861:
.L802:
	lwz 0,0(9)
.LVL862:
	.loc 2 934 0
	cmpwi 7,0,0
	bne+ 7,.L787
	b .L821
.LVL863:
.L829:
.LBE1336:
.LBE1338:
	.loc 2 2097 0
	lwz 9,0(31)
	mr 3,31
	subf 4,4,28
	li 5,0
	lwz 0,48(9)
	mtctr 0
	bctrl
	b .L779
.LVL864:
.L695:
	.loc 2 1928 0
	mr 3,31
	bl _Z5getS0P6idFile
.LVL865:
	.loc 2 1929 0
	addi 4,21,12
	addi 5,21,40
	bl _ZL8add_clipPcPP9st_lwClipPi
	.loc 2 1930 0
	li 0,3
	.loc 2 1929 0
	stw 3,100(30)
	.loc 2 1930 0
	stw 0,96(30)
	lwz 4,0(29)
	.loc 2 1931 0
	b .L738
.LVL866:
.L710:
	.loc 2 2064 0
	lwz 9,12(24)
	xoris 0,9,0x494d
.LVL867:
	cmpwi 7,0,16720
	beq 7,.L839
.L774:
	.loc 2 1004 0
	li 4,0
	b .L781
.LVL868:
.L688:
	.loc 2 1958 0
	mr 4,28
	mr 3,31
	bl _Z8getbytesP6idFilei
.LVL869:
	.loc 2 1959 0
	bl _ZL11get_texturePc
.LBB1339:
.LBB1340:
	.loc 2 929 0
	lwz 9,56(30)
.LBE1340:
.LBE1339:
	.loc 2 1959 0
	mr 24,3
.LVL870:
.LBB1343:
.LBB1341:
	.loc 2 930 0
	cmpwi 7,9,0
	bne+ 7,.L800
	b .L850
.LVL871:
.L785:
	.loc 2 936 0
	mr 9,0
.LVL872:
.L800:
	lwz 0,0(9)
.LVL873:
	.loc 2 934 0
	cmpwi 7,0,0
	bne+ 7,.L785
	b .L821
.LVL874:
.L685:
.LBE1341:
.LBE1343:
	.loc 2 1872 0
	mr 3,31
	bl _Z5getU1P6idFile
.LVL875:
	lis 0,0x4330
	xoris 3,3,0x8000
	stw 0,24(1)
	stw 3,28(1)
	.loc 2 1873 0
	mr 3,31
	.loc 2 1872 0
	lfs 30,.LC16@l(19)
	lfd 0,24(1)
	lfs 31,.LC23@l(14)
	fsub 0,0,30
	frsp 0,0
	fdivs 0,0,31
	stfs 0,16(30)
	.loc 2 1873 0
	stw 0,144(1)
	bl _Z5getU1P6idFile
	lwz 0,144(1)
	xoris 3,3,0x8000
	stw 3,36(1)
	.loc 2 1874 0
	mr 3,31
	.loc 2 1873 0
	stw 0,32(1)
	lfd 0,32(1)
	fsub 0,0,30
	frsp 0,0
	fdivs 0,0,31
	stfs 0,20(30)
	.loc 2 1874 0
	stw 0,144(1)
	bl _Z5getU1P6idFile
	lwz 0,144(1)
	xoris 3,3,0x8000
	lwz 4,0(29)
	stw 3,44(1)
	stw 0,40(1)
	lfd 0,40(1)
	fsub 30,0,30
	frsp 30,30
	fdivs 31,30,31
	stfs 31,24(30)
	.loc 2 1875 0
	b .L738
.LVL876:
.L700:
	.loc 2 2074 0
	li 3,24
	bl _Z16Mem_ClearedAlloci
.LVL877:
	.loc 2 2075 0
	mr. 9,3
	stw 9,116(1)
	beq- 0,.L682
	.loc 2 2076 0
	mr 3,31
.LVL878:
	mr 4,28
	bl _Z8getbytesP6idFilei
.LVL879:
	lwz 11,116(1)
	stw 3,12(11)
.LVL880:
.LBB1344:
.LBB1345:
	.loc 2 929 0
	lwz 9,236(30)
.LVL881:
	.loc 2 930 0
	cmpwi 7,9,0
	bne+ 7,.L806
	b .L851
.LVL882:
.L795:
	.loc 2 936 0
	mr 9,0
.LVL883:
.L806:
	lwz 0,0(9)
.LVL884:
	.loc 2 934 0
	cmpwi 7,0,0
	bne+ 7,.L795
	.loc 2 938 0
	lwz 11,116(1)
	stw 11,0(9)
	.loc 2 939 0
	stw 9,4(11)
.LVL885:
.L777:
.LBE1345:
.LBE1344:
	.loc 2 2078 0
	lwz 9,240(30)
	lwz 4,0(29)
	addi 0,9,1
	stw 0,240(30)
	.loc 2 2079 0
	b .L738
.LVL886:
.L715:
	.loc 2 2056 0
	mr 4,28
	mr 3,31
	bl _Z8getbytesP6idFilei
.LVL887:
	lwz 4,0(29)
	stw 3,172(24)
	.loc 2 2057 0
	b .L738
.LVL888:
.L708:
	.loc 2 2020 0
	mr 3,31
	bl _Z5getF4P6idFile
.LVL889:
	mr 3,31
	stfs 1,152(24)
.LVL890:
	bl _Z5getF4P6idFile
	mr 3,31
	stfs 1,156(24)
.LVL891:
	bl _Z5getF4P6idFile
	li 0,3
	stfs 1,160(24)
.LVL892:
	lwz 4,0(29)
	stw 0,112(1)
	b .L738
.LVL893:
.L703:
	.loc 2 1976 0
	mr 4,28
	mr 3,31
	bl _Z8getbytesP6idFilei
.LVL894:
	.loc 2 1977 0
	bl _ZL11get_texturePc
.LBB1347:
.LBB1348:
	.loc 2 929 0
	lwz 9,68(30)
.LBE1348:
.LBE1347:
	.loc 2 1977 0
	mr 24,3
.LVL895:
.LBB1351:
.LBB1349:
	.loc 2 930 0
	cmpwi 7,9,0
	bne+ 7,.L803
	b .L852
.LVL896:
.L788:
	.loc 2 936 0
	mr 9,0
.LVL897:
.L803:
	lwz 0,0(9)
.LVL898:
	.loc 2 934 0
	cmpwi 7,0,0
	bne+ 7,.L788
	b .L821
.LVL899:
.L693:
.LBE1349:
.LBE1351:
	.loc 2 1920 0
	mr 3,31
	bl _Z5getI2P6idFile
.LVL900:
	lis 0,0x4330
	xoris 3,3,0x8000
	stw 0,80(1)
	stw 3,84(1)
	lfs 0,.LC16@l(19)
	lfd 12,80(1)
	lfs 13,.LC25@l(18)
	fsub 0,12,0
	lwz 4,0(29)
	frsp 0,0
	fmuls 0,0,13
	stfs 0,84(30)
	.loc 2 1921 0
	b .L738
.LVL901:
.L713:
	.loc 2 2060 0
	mr 3,31
	bl _Z5getF4P6idFile
.LVL902:
	lwz 4,0(29)
	stfs 1,20(24)
	.loc 2 2061 0
	b .L738
.LVL903:
.L718:
	.loc 2 2037 0
	mr 3,31
	bl _Z5getI2P6idFile
.LVL904:
	lis 0,0x4330
	xoris 3,3,0x8000
	stw 0,104(1)
	stw 3,108(1)
	lfs 0,.LC16@l(19)
	lfd 12,104(1)
	lfs 13,.LC25@l(18)
	fsub 0,12,0
	lwz 4,0(29)
	frsp 0,0
	fmuls 0,0,13
	stfs 0,40(24)
	.loc 2 2038 0
	b .L738
.LVL905:
.L690:
	.loc 2 1912 0
	mr 3,31
	bl _Z5getU2P6idFile
.LVL906:
	lis 0,0x4330
	stw 3,76(1)
	lis 11,.LC27@ha
	stw 0,72(1)
	lfs 0,.LC27@l(11)
	lfd 1,72(1)
	fsub 1,1,0
	frsp 1,1
	bl logf
	lis 9,.LC28@ha
	lfs 0,.LC28@l(9)
	lwz 4,0(29)
	fdivs 0,1,0
	stfs 0,72(30)
	.loc 2 1913 0
	b .L738
.LVL907:
.L720:
	.loc 2 1900 0
	mr 3,31
	bl _Z5getF4P6idFile
.LVL908:
	lwz 4,0(29)
	stfs 1,48(30)
	.loc 2 1901 0
	b .L738
.LVL909:
.L705:
	.loc 2 2041 0
	lwz 9,12(24)
	xoris 0,9,0x494d
.LVL910:
	cmpwi 7,0,16720
	bne 7,.L774
	.loc 2 2042 0
	mr 3,31
	bl _Z5getF4P6idFile
	lwz 4,0(29)
	stfs 1,96(24)
	b .L738
.LVL911:
.L831:
	.loc 2 1870 0
	ori 9,9,19527
	cmpw 7,0,9
	bne+ 7,.L782
	.loc 2 1988 0
	mr 3,31
	bl _Z5getU2P6idFile
.LVL912:
	.loc 2 1990 0
	lwz 9,112(1)
	.loc 2 1991 0
	andi. 11,3,2
	.loc 2 1990 0
	rlwinm 0,3,0,31,31
	addic 0,0,-1
	subfe 0,0,0
	and 9,9,0
	stw 9,112(1)
.LVL913:
	.loc 2 1991 0
	beq- 0,.L760
	li 11,1
	stw 11,112(1)
.L760:
.LVL914:
	.loc 2 1992 0
	andi. 0,3,4
	bne- 0,.L790
	lwz 9,112(1)
	extsh 11,9
.L761:
	.loc 2 1994 0
	lwz 9,12(24)
	lis 0,0x494d
	ori 0,0,16720
	.loc 2 1993 0
	sth 11,34(24)
	.loc 2 1994 0
	cmpw 7,9,0
	beq- 7,.L843
	.loc 2 1997 0
	lwz 11,112(1)
	stw 11,36(24)
.L763:
	.loc 2 1999 0
	andi. 0,3,8
	beq- 0,.L764
	.loc 2 1999 0 is_stmt 0 discriminator 1
	li 0,1
	stw 0,176(24)
.L764:
	.loc 2 2000 0 is_stmt 1
	andi. 9,3,16
	beq- 0,.L765
	.loc 2 2000 0 is_stmt 0 discriminator 1
	li 0,1
	sth 0,32(24)
.L765:
	.loc 2 2001 0 is_stmt 1
	andi. 11,3,32
	beq- 0,.L766
	.loc 2 2001 0 is_stmt 0 discriminator 1
	li 0,1
	stw 0,84(24)
.L766:
	.loc 2 2002 0 is_stmt 1
	andi. 0,3,64
	beq- 0,.L820
	.loc 2 2003 0
	lwz 0,.LC0@l(22)
	.loc 2 2004 0
	lwz 4,0(29)
	.loc 2 2003 0
	stw 0,76(24)
	.loc 2 2004 0
	li 0,1
	stw 0,80(24)
	b .L738
.LVL915:
.L837:
	.loc 2 1870 0
	xoris 9,0,0x5441
	cmpwi 7,9,16723
	bne 7,.L782
	.loc 2 2051 0
	mr 3,31
	bl _Z5getF4P6idFile
.LVL916:
	.loc 2 2052 0
	li 0,1
	.loc 2 2051 0
	stfs 1,76(24)
	.loc 2 2052 0
	stw 0,80(24)
	lwz 4,0(29)
	.loc 2 2053 0
	b .L738
.LVL917:
.L836:
	.loc 2 1870 0
	xoris 9,0,0x5456
	cmpwi 7,9,17740
	bne 7,.L782
	.loc 2 2025 0
	mr 3,31
	bl _Z5getF4P6idFile
.LVL918:
	mr 3,31
	stfs 1,8(1)
.LVL919:
	bl _Z5getF4P6idFile
	mr 3,31
	stfs 1,12(1)
.LVL920:
	bl _Z5getF4P6idFile
	.loc 2 2027 0
	addi 11,21,36
	addi 7,24,120
	addi 9,21,8
	li 8,0
	.loc 2 1740 0
	li 10,0
	.loc 2 2025 0
	stfs 1,16(1)
.LVL921:
	.loc 2 2027 0
	stw 11,112(1)
.LVL922:
.LBB1352:
.LBB1318:
	.loc 2 1763 0
	stw 31,132(1)
	stw 25,120(1)
	mr 25,7
	stw 28,124(1)
	mr 28,10
.LVL923:
	stw 24,128(1)
	mr 24,9
.LVL924:
	stw 26,136(1)
	mr 26,8
	stw 21,140(1)
	mr 21,30
.LVL925:
.L773:
	.loc 2 1741 0
	li 3,44
	bl _Z16Mem_ClearedAlloci
	mr 31,3
.LVL926:
	.loc 2 1742 0
	li 3,48
.LVL927:
	bl _Z16Mem_ClearedAlloci
	mr 30,3
.LVL928:
	.loc 2 1743 0
	li 3,48
.LVL929:
	bl _Z16Mem_ClearedAlloci
.LVL930:
	.loc 2 1744 0
	cmpwi 7,31,0
	beq- 7,.L793
	cmpwi 7,30,0
	beq- 7,.L793
	cmpwi 7,3,0
	beq- 7,.L793
	.loc 2 1746 0
	stw 3,0(30)
	.loc 2 1750 0
	addi 9,1,8
	lfsx 12,26,9
	.loc 2 1747 0
	lwzx 0,25,26
	.loc 2 1748 0
	stw 15,12(30)
	.loc 2 1747 0
	stw 0,8(30)
	.loc 2 1749 0
	stw 30,4(3)
	.loc 2 1750 0
	lfs 0,.LC29@l(16)
	lfsx 13,25,26
	.loc 2 1751 0
	lwz 0,.LC0@l(22)
	.loc 2 1750 0
	fmadds 0,12,0,13
	.loc 2 1754 0
	lwz 11,112(1)
	.loc 2 1751 0
	stw 0,12(3)
	.loc 2 1752 0
	lis 0,0x4c49
	ori 0,0,20037
	stw 0,16(3)
	.loc 2 1750 0
	stfs 0,8(3)
	.loc 2 1756 0
	li 3,11
.LVL931:
	.loc 2 1752 0
	stw 0,16(30)
	.loc 2 1821 0
	addi 0,28,769
	.loc 2 1754 0
	lwz 9,0(11)
	.loc 2 1755 0
	stw 0,12(31)
	.loc 2 1754 0
	add 9,28,9
	addi 0,9,1
	stw 0,8(31)
	.loc 2 1756 0
	bl _Z16Mem_ClearedAlloci
.LVL932:
	.loc 2 1757 0
	cmpwi 7,3,0
	.loc 2 1756 0
	stw 3,16(31)
	.loc 2 1757 0
	beq- 7,.L769
	.loc 2 1758 0
	la 9,.LC30@l(17)
	lwz 10,.LC30@l(17)
	lhz 0,8(9)
	lwz 11,4(9)
	lbz 9,10(9)
	stw 10,0(3)
	stw 11,4(3)
	sth 0,8(3)
	stb 9,10(3)
	.loc 2 1759 0
	lwz 9,16(31)
	lbz 0,9(9)
	add 0,28,0
	stb 0,9(9)
.L769:
	.loc 2 1763 0
	li 9,5
	.loc 2 1762 0
	li 0,2
	.loc 2 1761 0
	stw 30,20(31)
	.loc 2 1762 0
	stw 0,24(31)
	.loc 2 1763 0
	stw 9,28(31)
	.loc 2 1764 0
	stw 9,32(31)
.LVL933:
.LBB1314:
.LBB1315:
	.loc 2 929 0
	lwz 9,0(24)
.LVL934:
	.loc 2 930 0
	cmpwi 7,9,0
	bne+ 7,.L805
	b .L853
.LVL935:
.L794:
	.loc 2 936 0
	mr 9,0
.LVL936:
.L805:
	lwz 0,0(9)
.LVL937:
	.loc 2 934 0
	cmpwi 7,0,0
	bne+ 7,.L794
	.loc 2 938 0
	stw 31,0(9)
	.loc 2 939 0
	stw 9,4(31)
.LVL938:
.L771:
.LBE1315:
.LBE1314:
	.loc 2 1740 0
	cmpwi 7,28,2
	addi 26,26,4
	addi 28,28,1
.LVL939:
	bne+ 7,.L773
	mr 30,21
.LVL940:
	lwz 21,140(1)
.LVL941:
	mr 9,31
	lwz 25,120(1)
.LVL942:
	.loc 2 1769 0
	lwz 11,36(21)
	lwz 28,124(1)
.LVL943:
	addi 0,11,3
	lwz 24,128(1)
.LVL944:
	stw 0,36(21)
	lwz 31,132(1)
.LVL945:
	.loc 2 1770 0
	lwz 9,8(9)
.LVL946:
	lwz 26,136(1)
	addi 0,9,-2
.L768:
.LBE1318:
.LBE1352:
	.loc 2 2028 0
	li 11,3
	.loc 2 2027 0
	stw 0,132(24)
	lwz 4,0(29)
	.loc 2 2028 0
	stw 11,112(1)
	b .L738
.LVL947:
.L833:
	.loc 2 1870 0
	xoris 9,0,0x464c
	cmpwi 7,9,16711
	bne 7,.L782
	.loc 2 1878 0
	mr 3,31
	bl _Z5getU2P6idFile
.LVL948:
	.loc 2 1879 0
	andi. 0,3,4
	beq- 0,.L739
	.loc 2 1879 0 is_stmt 0 discriminator 1
	lis 9,.LC24@ha
	lwz 0,.LC24@l(9)
	stw 0,168(30)
.L739:
	.loc 2 1880 0 is_stmt 1
	andi. 11,3,8
	beq- 0,.L740
	.loc 2 1880 0 is_stmt 0 discriminator 1
	lwz 0,.LC0@l(22)
	stw 0,184(30)
.L740:
	.loc 2 1881 0 is_stmt 1
	andi. 0,3,16
	beq- 0,.L741
	.loc 2 1881 0 is_stmt 0 discriminator 1
	lwz 0,.LC0@l(22)
	stw 0,192(30)
.L741:
	.loc 2 1882 0 is_stmt 1
	andi. 9,3,128
	beq- 0,.L742
	.loc 2 1882 0 is_stmt 0 discriminator 1
	lis 11,.LC9@ha
	lwz 0,.LC9@l(11)
	stw 0,208(30)
.L742:
	.loc 2 1883 0 is_stmt 1
	andi. 0,3,256
	beq- 0,.L743
	.loc 2 1883 0 is_stmt 0 discriminator 1
	li 0,3
	stw 0,172(30)
.L743:
	.loc 2 1884 0 is_stmt 1
	andi. 9,3,512
	beq- 0,.L820
	.loc 2 1884 0 is_stmt 0 discriminator 1
	lwz 0,.LC0@l(22)
	lwz 4,0(29)
	stw 0,200(30)
	b .L738
.LVL949:
.L834:
	.loc 2 1870 0 is_stmt 1
	xoris 9,0,0x5246
	cmpwi 7,9,19540
	bne 7,.L782
	.loc 2 1924 0
	mr 3,31
	bl _Z5getU2P6idFile
.LVL950:
	lwz 4,0(29)
	stw 3,96(30)
	.loc 2 1925 0
	b .L738
.LVL951:
.L835:
	.loc 2 1870 0
	xoris 9,0,0x4254
	cmpwi 7,9,17752
	bne 7,.L782
	.loc 2 1946 0
	mr 4,28
	mr 3,31
	bl _Z8getbytesP6idFilei
.LVL952:
	.loc 2 1947 0
	bl _ZL11get_texturePc
.LBB1353:
.LBB1354:
	.loc 2 929 0
	lwz 9,164(30)
.LBE1354:
.LBE1353:
	.loc 2 1947 0
	mr 24,3
.LVL953:
.LBB1357:
.LBB1355:
	.loc 2 930 0
	cmpwi 7,9,0
	bne+ 7,.L798
	b .L854
.LVL954:
.L783:
	.loc 2 936 0
	mr 9,0
.LVL955:
.L798:
	lwz 0,0(9)
.LVL956:
	.loc 2 934 0
	cmpwi 7,0,0
	bne+ 7,.L783
	b .L821
.LVL957:
.L827:
.LBE1355:
.LBE1357:
	.loc 2 1870 0
	xoris 9,0,0x5452
	cmpwi 7,9,16718
	bne 7,.L782
	.loc 2 1938 0
	mr 3,31
	bl _Z5getI2P6idFile
.LVL958:
	lis 0,0x4330
	xoris 3,3,0x8000
	stw 0,88(1)
	stw 3,92(1)
	lfs 0,.LC16@l(19)
	lfd 12,88(1)
	lfs 13,.LC25@l(18)
	fsub 0,12,0
	lwz 4,0(29)
	frsp 0,0
	fmuls 0,0,13
	stfs 0,108(30)
	.loc 2 1939 0
	b .L738
.LVL959:
.L824:
	.loc 2 1870 0
	xoris 9,0,0x5344
	cmpwi 7,9,16724
	bne 7,.L782
	.loc 2 2082 0
	mr 3,31
	mr 4,28
	bl _Z8getbytesP6idFilei
.LVL960:
	lwz 9,116(1)
	stw 3,20(9)
.L820:
	lwz 4,0(29)
	.loc 2 2083 0
	b .L738
.LVL961:
.L825:
	.loc 2 1904 0
	mr 3,31
	bl _Z5getI2P6idFile
.LVL962:
	lis 0,0x4330
	xoris 3,3,0x8000
	stw 0,64(1)
	stw 3,68(1)
	lfs 0,.LC16@l(19)
	lfd 12,64(1)
	lfs 13,.LC25@l(18)
	fsub 0,12,0
	lwz 4,0(29)
	frsp 0,0
	fmuls 0,0,13
	stfs 0,60(30)
	.loc 2 1905 0
	b .L738
.L839:
	.loc 2 2065 0
	mr 3,31
	bl _Z5getF4P6idFile
	lwz 4,0(29)
	stfs 1,60(24)
	b .L738
.LVL963:
.L686:
	.loc 2 1952 0
	mr 4,28
	mr 3,31
	bl _Z8getbytesP6idFilei
.LVL964:
	.loc 2 1953 0
	bl _ZL11get_texturePc
.LBB1358:
.LBB1359:
	.loc 2 929 0
	lwz 9,32(30)
.LBE1359:
.LBE1358:
	.loc 2 1953 0
	mr 24,3
.LVL965:
.LBB1362:
.LBB1360:
	.loc 2 930 0
	cmpwi 7,9,0
	bne+ 7,.L799
	b .L855
.LVL966:
.L784:
	.loc 2 936 0
	mr 9,0
.LVL967:
.L799:
	lwz 0,0(9)
.LVL968:
	.loc 2 934 0
	cmpwi 7,0,0
	bne+ 7,.L784
	b .L821
.LVL969:
.L696:
.LBE1360:
.LBE1362:
	.loc 2 1942 0
	mr 3,31
	bl _Z5getF4P6idFile
.LVL970:
	lwz 4,0(29)
	stfs 1,132(30)
	.loc 2 1943 0
	b .L738
.LVL971:
.L716:
	.loc 2 2010 0
	mr 3,31
	bl _Z5getF4P6idFile
.LVL972:
	mr 3,31
	stfs 1,104(24)
.LVL973:
	bl _Z5getF4P6idFile
	mr 3,31
	stfs 1,108(24)
.LVL974:
	bl _Z5getF4P6idFile
	li 9,3
	stfs 1,112(24)
.LVL975:
	lwz 4,0(29)
	stw 9,112(1)
	b .L738
.LVL976:
.L691:
	.loc 2 1964 0
	mr 4,28
	mr 3,31
	bl _Z8getbytesP6idFilei
.LVL977:
	.loc 2 1965 0
	bl _ZL11get_texturePc
.LBB1363:
.LBB1364:
	.loc 2 929 0
	lwz 9,44(30)
.LBE1364:
.LBE1363:
	.loc 2 1965 0
	mr 24,3
.LVL978:
.LBB1367:
.LBB1365:
	.loc 2 930 0
	cmpwi 7,9,0
	bne+ 7,.L801
	b .L856
.LVL979:
.L786:
	.loc 2 936 0
	mr 9,0
.LVL980:
.L801:
	lwz 0,0(9)
.LVL981:
	.loc 2 934 0
	cmpwi 7,0,0
	bne+ 7,.L786
	b .L821
.LVL982:
.L721:
.LBE1365:
.LBE1367:
	.loc 2 1892 0
	mr 3,31
	bl _Z5getF4P6idFile
.LVL983:
	lwz 4,0(29)
	stfs 1,36(30)
	.loc 2 1893 0
	b .L738
.LVL984:
.L711:
	.loc 2 2069 0
	lwz 9,12(24)
	xoris 0,9,0x494d
.LVL985:
	cmpwi 7,0,16720
	bne 7,.L774
	.loc 2 2070 0
	mr 3,31
	bl _Z5getF4P6idFile
	lwz 4,0(29)
	stfs 1,68(24)
	b .L738
.LVL986:
.L706:
	.loc 2 2031 0
	lwz 9,12(24)
	xoris 0,9,0x5052
.LVL987:
	cmpwi 7,0,20291
	bne 7,.L774
	li 9,0
	.loc 2 2033 0
	stw 21,112(1)
	mr 21,26
	mr 26,28
	mr 28,30
.LVL988:
	mr 30,31
.LVL989:
	mr 31,9
.LVL990:
.L775:
	.loc 2 2033 0 is_stmt 0 discriminator 2
	mr 3,30
	bl _Z5getU1P6idFile
	lis 0,0x4330
	xoris 3,3,0x8000
	stw 0,96(1)
	stw 3,100(1)
	lis 9,.LC16@ha
	la 9,.LC16@l(9)
	lis 11,.LC23@ha
	lfs 0,0(9)
	la 11,.LC23@l(11)
	lfd 12,96(1)
	.loc 2 2032 0 is_stmt 1 discriminator 2
	cmpwi 7,31,8
	.loc 2 2033 0 discriminator 2
	lfs 13,0(11)
	.loc 2 1821 0 discriminator 2
	add 9,24,31
	.loc 2 2033 0 discriminator 2
	fsub 0,12,0
	.loc 2 2032 0 discriminator 2
	addi 31,31,4
	.loc 2 2033 0 discriminator 2
	frsp 0,0
	fdivs 0,0,13
	stfs 0,40(9)
	.loc 2 2032 0 discriminator 2
	bne+ 7,.L775
	.loc 2 2032 0 is_stmt 0
	li 0,3
	mr 31,30
	lwz 4,0(29)
	mr 30,28
	mr 28,26
.LVL991:
	mr 26,21
.LVL992:
	lwz 21,112(1)
	stw 0,112(1)
	b .L738
.LVL993:
.L701:
	.loc 2 1916 0 is_stmt 1
	mr 3,31
	bl _Z5getF4P6idFile
.LVL994:
	lwz 4,0(29)
	stfs 1,168(30)
	.loc 2 1917 0
	b .L738
.LVL995:
.L790:
	.loc 2 1992 0
	li 0,2
	li 11,2
	stw 0,112(1)
	b .L761
.LVL996:
.L853:
.LBB1368:
.LBB1319:
.LBB1317:
.LBB1316:
	.loc 2 931 0
	stw 31,0(24)
	b .L771
.LVL997:
.L843:
.LBE1316:
.LBE1317:
.LBE1319:
.LBE1368:
	.loc 2 1995 0
	lwz 9,112(1)
	stw 9,48(24)
	b .L763
.LVL998:
.L793:
	mr 30,21
.LVL999:
	lwz 25,120(1)
.LVL1000:
	lwz 28,124(1)
.LBB1369:
.LBB1320:
	.loc 2 1744 0
	li 0,0
	lwz 24,128(1)
.LVL1001:
	lwz 31,132(1)
.LVL1002:
	lwz 26,136(1)
	lwz 21,140(1)
.LVL1003:
	b .L768
.LVL1004:
.L856:
.LBE1320:
.LBE1369:
.LBB1370:
.LBB1366:
	.loc 2 931 0
	stw 3,44(30)
	lwz 4,0(29)
	b .L738
.LVL1005:
.L854:
.LBE1366:
.LBE1370:
.LBB1371:
.LBB1356:
	stw 3,164(30)
	lwz 4,0(29)
	b .L738
.LVL1006:
.L855:
.LBE1356:
.LBE1371:
.LBB1372:
.LBB1361:
	stw 3,32(30)
	lwz 4,0(29)
	b .L738
.LVL1007:
.L852:
.LBE1361:
.LBE1372:
.LBB1373:
.LBB1350:
	stw 3,68(30)
	lwz 4,0(29)
	b .L738
.LVL1008:
.L851:
.LBE1350:
.LBE1373:
.LBB1374:
.LBB1346:
	stw 11,236(30)
	b .L777
.LVL1009:
.L850:
.LBE1346:
.LBE1374:
.LBB1375:
.LBB1342:
	stw 3,56(30)
	lwz 4,0(29)
	b .L738
.LVL1010:
.L849:
.LBE1342:
.LBE1375:
.LBB1376:
.LBB1337:
	stw 3,92(30)
	lwz 4,0(29)
	b .L738
.LVL1011:
.L848:
.LBE1337:
.LBE1376:
.LBB1377:
.LBB1328:
	stw 3,116(30)
	lwz 4,0(29)
	b .L738
.LBE1328:
.LBE1377:
.LBE1379:
	.cfi_endproc
.LFE2585:
	.size	_Z13lwGetSurface5P6idFileiP11st_lwObject, .-_Z13lwGetSurface5P6idFileiP11st_lwObject
	.align 2
	.globl _Z12lwGetTHeaderP6idFileiP12st_lwTexture
	.type	_Z12lwGetTHeaderP6idFileiP12st_lwTexture, @function
_Z12lwGetTHeaderP6idFileiP12st_lwTexture:
.LFB2604:
	.loc 2 2978 0
	.cfi_startproc
.LVL1012:
	mflr 0
	stwu 1,-64(1)
.LCFI175:
	.cfi_def_cfa_offset 64
	.cfi_register 65, 0
	stw 18,8(1)
	stw 19,12(1)
	stw 24,32(1)
.LBB1380:
.LBB1381:
.LBB1382:
	.loc 2 1002 0
	lis 24,.LANCHOR0@ha
	.cfi_offset 24, -32
	.cfi_offset 19, -52
	.cfi_offset 18, -56
.LBE1382:
.LBE1381:
.LBE1380:
	.loc 2 2978 0
	stw 25,36(1)
	mr 25,4
	.cfi_offset 25, -28
	stw 26,40(1)
	stw 27,44(1)
	mr 27,5
	.cfi_offset 27, -20
	.cfi_offset 26, -24
	stw 31,60(1)
	mr 31,3
	.cfi_offset 31, -4
	stw 0,68(1)
	stw 20,16(1)
	stw 21,20(1)
	stw 22,24(1)
	stw 23,28(1)
	stw 28,48(1)
	stw 29,52(1)
	stw 30,56(1)
.LBB1393:
	.loc 2 2987 0
	lwz 9,0(3)
	lwz 0,36(9)
	.cfi_offset 30, -8
	.cfi_offset 29, -12
	.cfi_offset 28, -16
	.cfi_offset 23, -36
	.cfi_offset 22, -40
	.cfi_offset 21, -44
	.cfi_offset 20, -48
	.cfi_offset 65, 4
.LBB1384:
.LBB1383:
	.loc 2 1002 0
	li 9,0
	stw 9,.LANCHOR0@l(24)
.LBE1383:
.LBE1384:
	.loc 2 2987 0
	mtctr 0
	bctrl
.LVL1013:
	mr 26,3
.LVL1014:
	.loc 2 2991 0
	mr 3,31
.LVL1015:
	bl _Z5getS0P6idFile
	stw 3,8(27)
	.loc 2 2995 0
	mr 3,31
	bl _Z5getU4P6idFile
	mr 19,3
.LVL1016:
	.loc 2 2996 0
	mr 3,31
.LVL1017:
	bl _Z5getU2P6idFile
	.loc 2 2997 0
	lwz 0,.LANCHOR0@l(24)
	.loc 2 2996 0
	mr 18,3
.LVL1018:
	.loc 2 2997 0
	li 3,0
.LVL1019:
	cmpwi 7,0,0
	blt- 7,.L858
	.loc 2 3005 0
	lis 28,0x454e
	lis 22,0x4e45
	lis 20,0x4f50
	lis 23,0x4158
	lis 21,0x4348
	la 30,.LANCHOR0@l(24)
.LBB1385:
.LBB1386:
	.loc 2 1002 0
	li 29,0
.LBE1386:
.LBE1385:
	.loc 2 3005 0
	ori 28,28,16706
	ori 22,22,18241
	ori 20,20,16707
	ori 23,23,18771
	ori 21,21,16718
.LVL1020:
.L869:
	cmpw 7,19,28
.LBB1388:
.LBB1387:
	.loc 2 1002 0
	stw 29,0(30)
.LBE1387:
.LBE1388:
	.loc 2 3005 0
	beq- 7,.L862
	cmplw 7,19,28
	bgt- 7,.L865
	cmpw 7,19,23
	beq- 7,.L860
	cmpw 7,19,21
	beq- 7,.L875
.L871:
	li 9,0
.L859:
	.loc 2 3002 0 discriminator 2
	rlwinm 4,18,0,31,31
	add 18,4,18
.LVL1021:
	.loc 2 3035 0 discriminator 2
	rlwinm 4,18,0,0xffff
	cmpw 7,4,9
	blt- 7,.L874
	.loc 2 3039 0
	bgt- 7,.L876
.L867:
	.loc 2 3044 0
	lwz 9,0(31)
	mr 3,31
	lwz 0,36(9)
	mtctr 0
	bctrl
	subf 3,26,3
	cmpw 7,3,25
	bge- 7,.L868
.LVL1022:
	.loc 2 3050 0
	mr 3,31
.LBB1389:
.LBB1390:
	.loc 2 1002 0
	stw 29,0(30)
.LBE1390:
.LBE1389:
	.loc 2 3050 0
	bl _Z5getU4P6idFile
	mr 19,3
.LVL1023:
	.loc 2 3051 0
	mr 3,31
.LVL1024:
	bl _Z5getU2P6idFile
	.loc 2 3052 0
	lwz 0,0(30)
	.loc 2 3051 0
	mr 18,3
.LVL1025:
	.loc 2 3052 0
	cmpwi 7,0,6
	beq+ 7,.L869
.LVL1026:
.L874:
	li 3,0
.LVL1027:
.L858:
.LBE1393:
	.loc 2 3057 0
	lwz 0,68(1)
	lwz 18,8(1)
	mtlr 0
	lwz 19,12(1)
.LVL1028:
	lwz 20,16(1)
	lwz 21,20(1)
	lwz 22,24(1)
	lwz 23,28(1)
	lwz 24,32(1)
	lwz 25,36(1)
.LVL1029:
	lwz 26,40(1)
.LVL1030:
	lwz 27,44(1)
.LVL1031:
	lwz 28,48(1)
	lwz 29,52(1)
	lwz 30,56(1)
	lwz 31,60(1)
.LVL1032:
	addi 1,1,64
	.cfi_remember_state
.LCFI176:
	.cfi_def_cfa_offset 0
	.cfi_restore 31
	.cfi_restore 30
	.cfi_restore 29
	.cfi_restore 28
	.cfi_restore 27
	.cfi_restore 26
	.cfi_restore 25
	.cfi_restore 24
	.cfi_restore 23
	.cfi_restore 22
	.cfi_restore 21
	.cfi_restore 20
	.cfi_restore 19
	.cfi_restore 18
	blr
.LVL1033:
.L875:
.LCFI177:
	.cfi_restore_state
.LBB1394:
	.loc 2 3007 0
	mr 3,31
	bl _Z5getU4P6idFile
	lwz 9,0(30)
	stw 3,16(27)
.L866:
	.loc 2 3035 0
	cmpwi 7,9,0
	bge+ 7,.L859
	b .L874
.L865:
	.loc 2 3005 0
	cmpw 7,19,22
	beq- 7,.L863
	cmpw 7,19,20
	bne+ 7,.L871
	.loc 2 3011 0
	mr 3,31
	bl _Z5getU2P6idFile
	sth 3,28(27)
	.loc 2 3012 0
	mr 3,31
	bl _Z5getF4P6idFile
	.loc 2 3013 0
	mr 3,31
	.loc 2 3012 0
	stfs 1,20(27)
	.loc 2 3013 0
	bl _Z5getVXP6idFile
	lwz 9,0(30)
	stw 3,24(27)
	.loc 2 3014 0
	b .L866
.LVL1034:
.L876:
	.loc 2 3040 0
	lwz 11,0(31)
	mr 3,31
	subf 4,9,4
	li 5,0
	lwz 0,48(11)
	mtctr 0
	bctrl
	b .L867
.LVL1035:
.L862:
	.loc 2 3017 0
	mr 3,31
	bl _Z5getU2P6idFile
	lwz 9,0(30)
	sth 3,30(27)
	.loc 2 3018 0
	b .L866
.L863:
	.loc 2 3021 0
	mr 3,31
	bl _Z5getU2P6idFile
	lwz 9,0(30)
	sth 3,32(27)
	.loc 2 3022 0
	b .L866
.L860:
	.loc 2 3025 0
	mr 3,31
	bl _Z5getU2P6idFile
	lwz 9,0(30)
	sth 3,34(27)
	.loc 2 3026 0
	b .L866
.LVL1036:
.L868:
	.loc 2 3055 0
	lwz 9,0(31)
	mr 3,31
	lwz 0,36(9)
	mtctr 0
	bctrl
.LVL1037:
	subf 3,26,3
.LVL1038:
.LBB1391:
.LBB1392:
	.loc 2 1002 0
	stw 3,.LANCHOR0@l(24)
.LBE1392:
.LBE1391:
	.loc 2 3056 0
	li 3,1
.LVL1039:
	b .L858
.LBE1394:
	.cfi_endproc
.LFE2604:
	.size	_Z12lwGetTHeaderP6idFileiP12st_lwTexture, .-_Z12lwGetTHeaderP6idFileiP12st_lwTexture
	.align 2
	.globl _Z9lwGetTMapP6idFileiP9st_lwTMap
	.type	_Z9lwGetTMapP6idFileiP9st_lwTMap, @function
_Z9lwGetTMapP6idFileiP9st_lwTMap:
.LFB2605:
	.loc 2 3069 0
	.cfi_startproc
.LVL1040:
	mflr 0
	stwu 1,-72(1)
.LCFI178:
	.cfi_def_cfa_offset 72
	.cfi_register 65, 0
	stw 17,12(1)
	stw 18,16(1)
	stw 24,40(1)
.LBB1395:
	.loc 2 3077 0
	lis 24,.LANCHOR0@ha
	.cfi_offset 24, -32
	.cfi_offset 18, -56
	.cfi_offset 17, -60
.LBE1395:
	.loc 2 3069 0
	stw 25,44(1)
	mr 25,4
	.cfi_offset 25, -28
	stw 26,48(1)
	stw 29,60(1)
	mr 29,5
	.cfi_offset 29, -12
	.cfi_offset 26, -24
	stw 31,68(1)
	mr 31,3
	.cfi_offset 31, -4
	stw 0,76(1)
	stw 19,20(1)
	stw 20,24(1)
	stw 21,28(1)
	stw 22,32(1)
	stw 23,36(1)
	stw 27,52(1)
	stw 28,56(1)
	stw 30,64(1)
.LBB1404:
	.loc 2 3074 0
	lwz 9,0(3)
	lwz 0,36(9)
	.cfi_offset 30, -8
	.cfi_offset 28, -16
	.cfi_offset 27, -20
	.cfi_offset 23, -36
	.cfi_offset 22, -40
	.cfi_offset 21, -44
	.cfi_offset 20, -48
	.cfi_offset 19, -52
	.cfi_offset 65, 4
	mtctr 0
	bctrl
.LVL1041:
	mr 26,3
.LVL1042:
	.loc 2 3075 0
	mr 3,31
.LVL1043:
	bl _Z5getU4P6idFile
	mr 18,3
.LVL1044:
	.loc 2 3076 0
	mr 3,31
.LVL1045:
	bl _Z5getU2P6idFile
	.loc 2 3077 0
	lwz 0,.LANCHOR0@l(24)
	.loc 2 3076 0
	mr 17,3
.LVL1046:
	.loc 2 3077 0
	li 3,0
.LVL1047:
	cmpwi 7,0,0
	blt- 7,.L878
	.loc 2 3083 0
	lis 27,0x4641
	lis 22,0x524f
	lis 20,0x5349
	lis 19,0x4f52
	lis 23,0x434e
	lis 21,0x4353
	la 30,.LANCHOR0@l(24)
.LBB1396:
.LBB1397:
	.loc 2 1002 0
	li 28,0
.LBE1397:
.LBE1396:
	.loc 2 3083 0
	ori 27,27,19532
	ori 22,22,21569
	ori 20,20,23109
	ori 19,19,17734
	ori 23,23,21586
	ori 21,21,22867
.LVL1048:
.L890:
	cmpw 7,18,27
.LBB1399:
.LBB1398:
	.loc 2 1002 0
	stw 28,0(30)
.LBE1398:
.LBE1399:
	.loc 2 3083 0
	beq- 7,.L882
	cmplw 7,18,27
	bgt- 7,.L886
	cmpw 7,18,23
	beq- 7,.L880
	cmpw 7,18,21
	beq- 7,.L896
.L892:
	li 9,0
.L879:
	.loc 2 3080 0 discriminator 2
	rlwinm 4,17,0,31,31
	add 17,4,17
.LVL1049:
	.loc 2 3124 0 discriminator 2
	rlwinm 4,17,0,0xffff
	cmpw 7,4,9
	blt- 7,.L895
	.loc 2 3128 0
	bgt- 7,.L897
.L888:
	.loc 2 3133 0
	lwz 9,0(31)
	mr 3,31
	lwz 0,36(9)
	mtctr 0
	bctrl
	subf 3,26,3
	cmpw 7,3,25
	bge- 7,.L889
.LVL1050:
	.loc 2 3139 0
	mr 3,31
.LBB1400:
.LBB1401:
	.loc 2 1002 0
	stw 28,0(30)
.LBE1401:
.LBE1400:
	.loc 2 3139 0
	bl _Z5getU4P6idFile
	mr 18,3
.LVL1051:
	.loc 2 3140 0
	mr 3,31
.LVL1052:
	bl _Z5getU2P6idFile
	.loc 2 3141 0
	lwz 0,0(30)
	.loc 2 3140 0
	mr 17,3
.LVL1053:
	.loc 2 3141 0
	cmpwi 7,0,6
	beq+ 7,.L890
.LVL1054:
.L895:
	li 3,0
.LVL1055:
.L878:
.LBE1404:
	.loc 2 3146 0
	lwz 0,76(1)
	lwz 17,12(1)
	mtlr 0
	lwz 18,16(1)
.LVL1056:
	lwz 19,20(1)
	lwz 20,24(1)
	lwz 21,28(1)
	lwz 22,32(1)
	lwz 23,36(1)
	lwz 24,40(1)
	lwz 25,44(1)
.LVL1057:
	lwz 26,48(1)
.LVL1058:
	lwz 27,52(1)
	lwz 28,56(1)
	lwz 29,60(1)
.LVL1059:
	lwz 30,64(1)
	lwz 31,68(1)
.LVL1060:
	addi 1,1,72
	.cfi_remember_state
.LCFI179:
	.cfi_def_cfa_offset 0
	.cfi_restore 31
	.cfi_restore 30
	.cfi_restore 29
	.cfi_restore 28
	.cfi_restore 27
	.cfi_restore 26
	.cfi_restore 25
	.cfi_restore 24
	.cfi_restore 23
	.cfi_restore 22
	.cfi_restore 21
	.cfi_restore 20
	.cfi_restore 19
	.cfi_restore 18
	.cfi_restore 17
	blr
.LVL1061:
.L896:
.LCFI180:
	.cfi_restore_state
.LBB1405:
	.loc 2 3114 0
	mr 3,31
	bl _Z5getU2P6idFile
	lwz 9,0(30)
	stw 3,72(29)
.L887:
	.loc 2 3124 0
	cmpwi 7,9,0
	bge+ 7,.L879
	b .L895
.L886:
	.loc 2 3083 0
	cmpw 7,18,22
	beq- 7,.L884
	cmpw 7,18,20
	beq- 7,.L885
	cmpw 7,18,19
	bne+ 7,.L892
	.loc 2 3110 0
	mr 3,31
	bl _Z5getS0P6idFile
	lwz 9,0(30)
	stw 3,68(29)
	.loc 2 3111 0
	b .L887
.LVL1062:
.L897:
	.loc 2 3129 0
	lwz 11,0(31)
	mr 3,31
	subf 4,9,4
	li 5,0
	lwz 0,48(11)
	mtctr 0
	bctrl
	b .L888
.LVL1063:
.L882:
	.loc 2 3103 0
	mr 3,31
	bl _Z5getU2P6idFile
	stw 3,64(29)
.LVL1064:
	.loc 2 3105 0
	mr 3,31
	bl _Z5getF4P6idFile
	mr 3,31
	stfs 1,48(29)
.LVL1065:
	bl _Z5getF4P6idFile
	mr 3,31
	stfs 1,52(29)
.LVL1066:
	bl _Z5getF4P6idFile
	.loc 2 3106 0
	mr 3,31
	.loc 2 3105 0
	stfs 1,56(29)
.LVL1067:
	.loc 2 3106 0
	bl _Z5getVXP6idFile
	lwz 9,0(30)
	stw 3,60(29)
	.loc 2 3107 0
	b .L887
.LVL1068:
.L885:
	.loc 2 3086 0
	mr 3,31
	bl _Z5getF4P6idFile
	mr 3,31
	stfs 1,0(29)
.LVL1069:
	bl _Z5getF4P6idFile
	mr 3,31
	stfs 1,4(29)
.LVL1070:
	bl _Z5getF4P6idFile
	.loc 2 3087 0
	mr 3,31
	.loc 2 3086 0
	stfs 1,8(29)
.LVL1071:
	.loc 2 3087 0
	bl _Z5getVXP6idFile
	lwz 9,0(30)
	stw 3,12(29)
	.loc 2 3088 0
	b .L887
.LVL1072:
.L884:
	.loc 2 3098 0
	mr 3,31
	bl _Z5getF4P6idFile
	mr 3,31
	stfs 1,32(29)
.LVL1073:
	bl _Z5getF4P6idFile
	mr 3,31
	stfs 1,36(29)
.LVL1074:
	bl _Z5getF4P6idFile
	.loc 2 3099 0
	mr 3,31
	.loc 2 3098 0
	stfs 1,40(29)
.LVL1075:
	.loc 2 3099 0
	bl _Z5getVXP6idFile
	lwz 9,0(30)
	stw 3,44(29)
	.loc 2 3100 0
	b .L887
.LVL1076:
.L880:
	.loc 2 3092 0
	mr 3,31
	bl _Z5getF4P6idFile
	mr 3,31
	stfs 1,16(29)
.LVL1077:
	bl _Z5getF4P6idFile
	mr 3,31
	stfs 1,20(29)
.LVL1078:
	bl _Z5getF4P6idFile
	.loc 2 3093 0
	mr 3,31
	.loc 2 3092 0
	stfs 1,24(29)
.LVL1079:
	.loc 2 3093 0
	bl _Z5getVXP6idFile
	lwz 9,0(30)
	stw 3,28(29)
	.loc 2 3094 0
	b .L887
.LVL1080:
.L889:
	.loc 2 3144 0
	lwz 9,0(31)
	mr 3,31
	lwz 0,36(9)
	mtctr 0
	bctrl
.LVL1081:
	subf 3,26,3
.LVL1082:
.LBB1402:
.LBB1403:
	.loc 2 1002 0
	stw 3,.LANCHOR0@l(24)
.LBE1403:
.LBE1402:
	.loc 2 3145 0
	li 3,1
.LVL1083:
	b .L878
.LBE1405:
	.cfi_endproc
.LFE2605:
	.size	_Z9lwGetTMapP6idFileiP9st_lwTMap, .-_Z9lwGetTMapP6idFileiP9st_lwTMap
	.align 2
	.globl _Z13lwGetImageMapP6idFileiP12st_lwTexture
	.type	_Z13lwGetImageMapP6idFileiP12st_lwTexture, @function
_Z13lwGetImageMapP6idFileiP12st_lwTexture:
.LFB2606:
	.loc 2 3157 0
	.cfi_startproc
.LVL1084:
	mflr 0
	stwu 1,-88(1)
.LCFI181:
	.cfi_def_cfa_offset 88
	.cfi_register 65, 0
	stw 22,48(1)
.LBB1406:
	.loc 2 3165 0
	lis 22,.LANCHOR0@ha
	.cfi_offset 22, -40
.LBE1406:
	.loc 2 3157 0
	stw 25,60(1)
	mr 25,4
	.cfi_offset 25, -28
	stw 26,64(1)
	stw 27,68(1)
	mr 27,5
	.cfi_offset 27, -20
	.cfi_offset 26, -24
	stw 31,84(1)
	mr 31,3
	.cfi_offset 31, -4
	stw 0,92(1)
	stw 14,16(1)
	stw 15,20(1)
	stw 16,24(1)
	stw 17,28(1)
	stw 18,32(1)
	stw 19,36(1)
	stw 20,40(1)
	stw 21,44(1)
	stw 23,52(1)
	stw 24,56(1)
	stw 28,72(1)
	stw 29,76(1)
	stw 30,80(1)
.LBB1417:
	.loc 2 3162 0
	lwz 9,0(3)
	lwz 0,36(9)
	.cfi_offset 30, -8
	.cfi_offset 29, -12
	.cfi_offset 28, -16
	.cfi_offset 24, -32
	.cfi_offset 23, -36
	.cfi_offset 21, -44
	.cfi_offset 20, -48
	.cfi_offset 19, -52
	.cfi_offset 18, -56
	.cfi_offset 17, -60
	.cfi_offset 16, -64
	.cfi_offset 15, -68
	.cfi_offset 14, -72
	.cfi_offset 65, 4
	mtctr 0
	bctrl
.LVL1085:
	mr 26,3
.LVL1086:
	.loc 2 3163 0
	mr 3,31
.LVL1087:
	bl _Z5getU4P6idFile
	mr 0,3
.LVL1088:
	.loc 2 3164 0
	mr 3,31
.LVL1089:
	stw 0,12(1)
	bl _Z5getU2P6idFile
.LVL1090:
	.loc 2 3165 0
	lwz 11,.LANCHOR0@l(22)
	li 9,0
	lwz 0,12(1)
	cmpwi 7,11,0
	blt- 7,.L899
	.loc 2 3173 0
	addi 9,27,104
	.loc 2 3171 0
	lis 28,0x5354
	lis 23,0x564d
	lis 18,0x5752
	lis 14,0x5752
	lis 19,0x5441
	lis 15,0x544d
	lis 24,0x494d
	lis 20,0x5049
	lis 16,0x5052
	lis 21,0x4141
	lis 17,0x4158
	.loc 2 3173 0
	stw 9,8(1)
	la 30,.LANCHOR0@l(22)
	.loc 2 3171 0
	ori 28,28,17227
	ori 23,23,16720
	ori 18,18,20552
	ori 14,14,20567
	ori 19,19,19792
	ori 15,15,16720
	ori 24,24,16711
	ori 20,20,22594
	ori 16,16,20298
	ori 21,21,21332
	ori 17,17,18771
.LVL1091:
.L919:
	cmpw 7,0,28
	.loc 2 3168 0
	rlwinm 29,3,0,31,31
	add 29,29,3
.LBB1407:
.LBB1408:
	.loc 2 1002 0
	li 9,0
.LBE1408:
.LBE1407:
	.loc 2 3168 0
	rlwinm 29,29,0,0xffff
.LVL1092:
.LBB1410:
.LBB1409:
	.loc 2 1002 0
	stw 9,0(30)
.LBE1409:
.LBE1410:
	.loc 2 3171 0
	beq- 7,.L906
	cmplw 7,0,28
	bgt- 7,.L913
	cmpw 7,0,24
	beq- 7,.L903
	cmplw 7,0,24
	bgt- 7,.L914
	cmpw 7,0,21
	beq- 7,.L901
	cmpw 7,0,17
	beq- 7,.L927
.L921:
	li 4,0
.LVL1093:
.L900:
	.loc 2 3233 0 discriminator 2
	cmpw 7,29,4
	blt- 7,.L925
	.loc 2 3237 0
	bgt- 7,.L928
.L917:
	.loc 2 3242 0
	lwz 9,0(31)
	mr 3,31
	lwz 0,36(9)
	mtctr 0
	bctrl
	subf 3,26,3
	cmpw 7,3,25
	bge- 7,.L918
.LVL1094:
.LBB1411:
.LBB1412:
	.loc 2 1002 0
	li 0,0
.LBE1412:
.LBE1411:
	.loc 2 3248 0
	mr 3,31
.LBB1414:
.LBB1413:
	.loc 2 1002 0
	stw 0,0(30)
.LBE1413:
.LBE1414:
	.loc 2 3248 0
	bl _Z5getU4P6idFile
	mr 0,3
.LVL1095:
	.loc 2 3249 0
	mr 3,31
.LVL1096:
	stw 0,12(1)
	bl _Z5getU2P6idFile
.LVL1097:
	.loc 2 3250 0
	lwz 9,0(30)
	lwz 0,12(1)
	cmpwi 7,9,6
	beq+ 7,.L919
.LVL1098:
.L925:
	li 9,0
.LVL1099:
.L899:
.LBE1417:
	.loc 2 3255 0
	lwz 0,92(1)
	mr 3,9
	lwz 14,16(1)
	mtlr 0
	lwz 15,20(1)
	lwz 16,24(1)
	lwz 17,28(1)
	lwz 18,32(1)
	lwz 19,36(1)
	lwz 20,40(1)
	lwz 21,44(1)
	lwz 22,48(1)
	lwz 23,52(1)
	lwz 24,56(1)
	lwz 25,60(1)
.LVL1100:
	lwz 26,64(1)
.LVL1101:
	lwz 27,68(1)
.LVL1102:
	lwz 28,72(1)
	lwz 29,76(1)
	lwz 30,80(1)
	lwz 31,84(1)
.LVL1103:
	addi 1,1,88
	.cfi_remember_state
.LCFI182:
	.cfi_def_cfa_offset 0
	.cfi_restore 31
	.cfi_restore 30
	.cfi_restore 29
	.cfi_restore 28
	.cfi_restore 27
	.cfi_restore 26
	.cfi_restore 25
	.cfi_restore 24
	.cfi_restore 23
	.cfi_restore 22
	.cfi_restore 21
	.cfi_restore 20
	.cfi_restore 19
	.cfi_restore 18
	.cfi_restore 17
	.cfi_restore 16
	.cfi_restore 15
	.cfi_restore 14
	blr
.LVL1104:
.L913:
.LCFI183:
	.cfi_restore_state
.LBB1418:
	.loc 2 3171 0
	cmpw 7,0,23
	beq- 7,.L909
	cmplw 7,0,23
	bgt- 7,.L915
	cmpw 7,0,19
	beq- 7,.L907
	cmpw 7,0,15
	bne+ 7,.L921
	.loc 2 3173 0
	lwz 5,8(1)
	mr 3,31
	mr 4,29
	bl _Z9lwGetTMapP6idFileiP9st_lwTMap
.LVL1105:
	cmpwi 7,3,0
	beq- 7,.L925
	.loc 2 3223 0
	lwz 4,0(30)
	.loc 2 3224 0
	b .L916
.LVL1106:
.L914:
	.loc 2 3171 0
	cmpw 7,0,20
	beq- 7,.L904
	cmpw 7,0,16
	bne+ 7,.L921
	.loc 2 3177 0
	mr 3,31
	bl _Z5getU2P6idFile
.LVL1107:
	lwz 4,0(30)
	stw 3,40(27)
	.loc 2 3178 0
	b .L916
.LVL1108:
.L915:
	.loc 2 3171 0
	cmpw 7,0,18
	beq- 7,.L911
	cmpw 7,0,14
	beq- 7,.L912
	xoris 9,0,0x5752
	cmpwi 7,9,16720
	bne 7,.L921
	.loc 2 3193 0
	mr 3,31
	bl _Z5getU2P6idFile
.LVL1109:
	stw 3,52(27)
	.loc 2 3194 0
	mr 3,31
	bl _Z5getU2P6idFile
	lwz 4,0(30)
	stw 3,56(27)
	.loc 2 3195 0
	b .L916
.LVL1110:
.L911:
	.loc 2 3203 0
	mr 3,31
	bl _Z5getF4P6idFile
.LVL1111:
	.loc 2 3204 0
	mr 3,31
	.loc 2 3203 0
	stfs 1,68(27)
	.loc 2 3204 0
	bl _Z5getVXP6idFile
	lwz 4,0(30)
	stw 3,72(27)
.L916:
	.loc 2 3233 0
	cmpwi 7,4,0
	bge+ 7,.L900
	.loc 2 3250 0
	li 9,0
	b .L899
.LVL1112:
.L907:
	.loc 2 3222 0
	mr 3,31
	bl _Z5getF4P6idFile
.LVL1113:
	.loc 2 3223 0
	mr 3,31
	.loc 2 3222 0
	stfs 1,96(27)
	.loc 2 3223 0
	bl _Z5getVXP6idFile
	lwz 4,0(30)
	stw 3,100(27)
	b .L916
.LVL1114:
.L904:
	.loc 2 3213 0
	mr 3,31
	bl _Z5getU2P6idFile
.LVL1115:
	lwz 4,0(30)
	stw 3,84(27)
	.loc 2 3214 0
	b .L916
.LVL1116:
.L901:
	.loc 2 3208 0
	mr 3,31
	bl _Z5getU2P6idFile
.LVL1117:
	stw 3,80(27)
	.loc 2 3209 0
	mr 3,31
	bl _Z5getF4P6idFile
	lwz 4,0(30)
	stfs 1,76(27)
	.loc 2 3210 0
	b .L916
.LVL1118:
.L927:
	.loc 2 3185 0
	mr 3,31
	bl _Z5getU2P6idFile
.LVL1119:
	lwz 4,0(30)
	stw 3,48(27)
	.loc 2 3186 0
	b .L916
.L928:
	.loc 2 3238 0
	lwz 9,0(31)
	mr 3,31
	subf 4,4,29
	li 5,0
	lwz 0,48(9)
	mtctr 0
	bctrl
	b .L917
.LVL1120:
.L912:
	.loc 2 3198 0
	mr 3,31
	bl _Z5getF4P6idFile
.LVL1121:
	.loc 2 3199 0
	mr 3,31
	.loc 2 3198 0
	stfs 1,60(27)
	.loc 2 3199 0
	bl _Z5getVXP6idFile
	lwz 4,0(30)
	stw 3,64(27)
	.loc 2 3200 0
	b .L916
.LVL1122:
.L909:
	.loc 2 3181 0
	mr 3,31
	bl _Z5getS0P6idFile
.LVL1123:
	lwz 4,0(30)
	stw 3,44(27)
	.loc 2 3182 0
	b .L916
.LVL1124:
.L903:
	.loc 2 3189 0
	mr 3,31
	bl _Z5getVXP6idFile
.LVL1125:
	lwz 4,0(30)
	stw 3,36(27)
	.loc 2 3190 0
	b .L916
.LVL1126:
.L906:
	.loc 2 3217 0
	mr 3,31
	bl _Z5getF4P6idFile
.LVL1127:
	.loc 2 3218 0
	mr 3,31
	.loc 2 3217 0
	stfs 1,88(27)
	.loc 2 3218 0
	bl _Z5getVXP6idFile
	lwz 4,0(30)
	stw 3,92(27)
	.loc 2 3219 0
	b .L916
.L918:
	.loc 2 3253 0
	lwz 9,0(31)
	mr 3,31
	lwz 0,36(9)
	mtctr 0
	bctrl
.LVL1128:
	.loc 2 3254 0
	li 9,1
	.loc 2 3253 0
	subf 3,26,3
.LVL1129:
.LBB1415:
.LBB1416:
	.loc 2 1002 0
	stw 3,.LANCHOR0@l(22)
.LBE1416:
.LBE1415:
	.loc 2 3254 0
	b .L899
.LBE1418:
	.cfi_endproc
.LFE2606:
	.size	_Z13lwGetImageMapP6idFileiP12st_lwTexture, .-_Z13lwGetImageMapP6idFileiP12st_lwTexture
	.align 2
	.globl _Z15lwGetProceduralP6idFileiP12st_lwTexture
	.type	_Z15lwGetProceduralP6idFileiP12st_lwTexture, @function
_Z15lwGetProceduralP6idFileiP12st_lwTexture:
.LFB2607:
	.loc 2 3266 0
	.cfi_startproc
.LVL1130:
	mflr 0
	stwu 1,-64(1)
.LCFI184:
	.cfi_def_cfa_offset 64
	.cfi_register 65, 0
	stw 18,8(1)
	stw 23,28(1)
.LBB1419:
	.loc 2 3274 0
	lis 23,.LANCHOR0@ha
	.cfi_offset 23, -36
	.cfi_offset 18, -56
.LBE1419:
	.loc 2 3266 0
	stw 24,32(1)
	mr 24,4
	.cfi_offset 24, -32
	stw 25,36(1)
	stw 26,40(1)
	mr 26,5
	.cfi_offset 26, -24
	.cfi_offset 25, -28
	stw 31,60(1)
	mr 31,3
	.cfi_offset 31, -4
	stw 0,68(1)
	stw 19,12(1)
	stw 20,16(1)
	stw 21,20(1)
	stw 22,24(1)
	stw 27,44(1)
	stw 28,48(1)
	stw 29,52(1)
	stw 30,56(1)
.LBB1428:
	.loc 2 3271 0
	lwz 9,0(3)
	lwz 0,36(9)
	.cfi_offset 30, -8
	.cfi_offset 29, -12
	.cfi_offset 28, -16
	.cfi_offset 27, -20
	.cfi_offset 22, -40
	.cfi_offset 21, -44
	.cfi_offset 20, -48
	.cfi_offset 19, -52
	.cfi_offset 65, 4
	mtctr 0
	bctrl
.LVL1131:
	mr 25,3
.LVL1132:
	.loc 2 3272 0
	mr 3,31
.LVL1133:
	bl _Z5getU4P6idFile
	mr 18,3
.LVL1134:
	.loc 2 3273 0
	mr 3,31
.LVL1135:
	bl _Z5getU2P6idFile
.LVL1136:
	.loc 2 3274 0
	lwz 9,.LANCHOR0@l(23)
	li 0,0
	cmpwi 7,9,0
	blt- 7,.L930
	.loc 2 3280 0
	lis 27,0x4655
	lis 21,0x544d
	lis 20,0x5641
	lis 22,0x4158
	la 30,.LANCHOR0@l(23)
.LBB1420:
.LBB1421:
	.loc 2 1002 0
	li 28,0
.LBE1421:
.LBE1420:
	.loc 2 3280 0
	ori 27,27,20035
	ori 21,21,16720
	.loc 2 3282 0
	addi 19,26,104
	.loc 2 3280 0
	ori 20,20,19541
	ori 22,22,18771
.LVL1137:
.L942:
	cmpw 7,18,27
	.loc 2 3277 0
	rlwinm 29,3,0,31,31
	add 29,29,3
.LBB1423:
.LBB1422:
	.loc 2 1002 0
	stw 28,0(30)
.LBE1422:
.LBE1423:
	.loc 2 3277 0
	rlwinm 29,29,0,0xffff
.LVL1138:
	.loc 2 3280 0
	beq- 7,.L933
	cmplw 7,18,27
	bgt- 7,.L936
	cmpw 7,18,22
	beq- 7,.L950
.L944:
	li 4,0
.L931:
	.loc 2 3308 0 discriminator 2
	cmpw 7,29,4
	blt- 7,.L948
	.loc 2 3312 0
	bgt- 7,.L951
.L940:
	.loc 2 3317 0
	lwz 9,0(31)
	mr 3,31
	lwz 0,36(9)
	mtctr 0
	bctrl
	subf 3,25,3
	cmpw 7,3,24
	bge- 7,.L941
.LVL1139:
	.loc 2 3323 0
	mr 3,31
.LBB1424:
.LBB1425:
	.loc 2 1002 0
	stw 28,0(30)
.LBE1425:
.LBE1424:
	.loc 2 3323 0
	bl _Z5getU4P6idFile
	mr 18,3
.LVL1140:
	.loc 2 3324 0
	mr 3,31
.LVL1141:
	bl _Z5getU2P6idFile
.LVL1142:
	.loc 2 3325 0
	lwz 0,0(30)
	cmpwi 7,0,6
	beq+ 7,.L942
.LVL1143:
.L948:
	li 0,0
.LVL1144:
.L930:
.LBE1428:
	.loc 2 3330 0
	mr 3,0
	lwz 0,68(1)
	lwz 18,8(1)
.LVL1145:
	mtlr 0
	lwz 19,12(1)
	lwz 20,16(1)
	lwz 21,20(1)
	lwz 22,24(1)
	lwz 23,28(1)
	lwz 24,32(1)
.LVL1146:
	lwz 25,36(1)
.LVL1147:
	lwz 26,40(1)
.LVL1148:
	lwz 27,44(1)
	lwz 28,48(1)
	lwz 29,52(1)
	lwz 30,56(1)
	lwz 31,60(1)
.LVL1149:
	addi 1,1,64
	.cfi_remember_state
.LCFI185:
	.cfi_def_cfa_offset 0
	.cfi_restore 31
	.cfi_restore 30
	.cfi_restore 29
	.cfi_restore 28
	.cfi_restore 27
	.cfi_restore 26
	.cfi_restore 25
	.cfi_restore 24
	.cfi_restore 23
	.cfi_restore 22
	.cfi_restore 21
	.cfi_restore 20
	.cfi_restore 19
	.cfi_restore 18
	blr
.LVL1150:
.L950:
.LCFI186:
	.cfi_restore_state
.LBB1429:
	.loc 2 3286 0
	mr 3,31
	bl _Z5getU2P6idFile
	lwz 4,0(30)
	stw 3,36(26)
.L937:
	.loc 2 3308 0
	cmpwi 7,4,0
	bge+ 7,.L931
	b .L948
.L936:
	.loc 2 3280 0
	cmpw 7,18,21
	beq- 7,.L934
	cmpw 7,18,20
	bne+ 7,.L944
	.loc 2 3290 0
	mr 3,31
	bl _Z5getF4P6idFile
	.loc 2 3291 0
	cmplwi 7,29,7
	.loc 2 3290 0
	stfs 1,40(26)
	.loc 2 3291 0
	bgt- 7,.L938
.L949:
	.loc 2 3298 0
	lwz 4,0(30)
	.loc 2 3299 0
	b .L937
.L951:
	.loc 2 3313 0
	lwz 9,0(31)
	mr 3,31
	subf 4,4,29
	li 5,0
	lwz 0,48(9)
	mtctr 0
	bctrl
	b .L940
.L934:
	.loc 2 3282 0
	mr 3,31
	mr 4,29
	mr 5,19
	bl _Z9lwGetTMapP6idFileiP9st_lwTMap
	cmpwi 7,3,0
	beq- 7,.L948
	.loc 2 3298 0
	lwz 4,0(30)
	b .L937
.L933:
	.loc 2 3296 0
	mr 3,31
	bl _Z5getS0P6idFile
	.loc 2 3298 0
	lwz 4,0(30)
	.loc 2 3296 0
	stw 3,52(26)
	.loc 2 3298 0
	mr 3,31
	subf 4,4,29
	bl _Z8getbytesP6idFilei
	lwz 4,0(30)
	stw 3,56(26)
	b .L937
.L938:
	.loc 2 3291 0 discriminator 1
	mr 3,31
	bl _Z5getF4P6idFile
	.loc 2 3292 0 discriminator 1
	cmplwi 7,29,11
	.loc 2 3291 0 discriminator 1
	stfs 1,44(26)
	.loc 2 3292 0 discriminator 1
	ble- 7,.L949
	mr 3,31
	bl _Z5getF4P6idFile
	lwz 4,0(30)
	stfs 1,48(26)
	b .L937
.L941:
	.loc 2 3328 0
	lwz 9,0(31)
	mr 3,31
	lwz 0,36(9)
	mtctr 0
	bctrl
.LVL1151:
	.loc 2 3329 0
	li 0,1
	.loc 2 3328 0
	subf 3,25,3
.LVL1152:
.LBB1426:
.LBB1427:
	.loc 2 1002 0
	stw 3,.LANCHOR0@l(23)
.LBE1427:
.LBE1426:
	.loc 2 3329 0
	b .L930
.LBE1429:
	.cfi_endproc
.LFE2607:
	.size	_Z15lwGetProceduralP6idFileiP12st_lwTexture, .-_Z15lwGetProceduralP6idFileiP12st_lwTexture
	.align 2
	.globl _Z13lwGetGradientP6idFileiP12st_lwTexture
	.type	_Z13lwGetGradientP6idFileiP12st_lwTexture, @function
_Z13lwGetGradientP6idFileiP12st_lwTexture:
.LFB2608:
	.loc 2 3341 0
	.cfi_startproc
.LVL1153:
	mflr 0
	stwu 1,-104(1)
.LCFI187:
	.cfi_def_cfa_offset 104
	.cfi_register 65, 0
	stw 22,64(1)
.LBB1430:
	.loc 2 3349 0
	lis 22,.LANCHOR0@ha
	.cfi_offset 22, -40
.LBE1430:
	.loc 2 3341 0
	stw 24,72(1)
	mr 24,4
	.cfi_offset 24, -32
	stw 25,76(1)
	stw 30,96(1)
	mr 30,5
	.cfi_offset 30, -8
	.cfi_offset 25, -28
	stw 31,100(1)
	mr 31,3
	.cfi_offset 31, -4
	stw 0,108(1)
	stw 14,32(1)
	stw 15,36(1)
	stw 16,40(1)
	stw 17,44(1)
	stw 18,48(1)
	stw 19,52(1)
	stw 20,56(1)
	stw 21,60(1)
	stw 23,68(1)
	stw 26,80(1)
	stw 27,84(1)
	stw 28,88(1)
	stw 29,92(1)
.LBB1439:
	.loc 2 3346 0
	lwz 9,0(3)
	lwz 0,36(9)
	.cfi_offset 29, -12
	.cfi_offset 28, -16
	.cfi_offset 27, -20
	.cfi_offset 26, -24
	.cfi_offset 23, -36
	.cfi_offset 21, -44
	.cfi_offset 20, -48
	.cfi_offset 19, -52
	.cfi_offset 18, -56
	.cfi_offset 17, -60
	.cfi_offset 16, -64
	.cfi_offset 15, -68
	.cfi_offset 14, -72
	.cfi_offset 65, 4
	mtctr 0
	bctrl
.LVL1154:
	mr 25,3
.LVL1155:
	.loc 2 3347 0
	mr 3,31
.LVL1156:
	bl _Z5getU4P6idFile
	mr 0,3
.LVL1157:
	.loc 2 3348 0
	mr 3,31
.LVL1158:
	stw 0,20(1)
	bl _Z5getU2P6idFile
.LVL1159:
	.loc 2 3349 0
	lwz 11,.LANCHOR0@l(22)
	li 9,0
	lwz 0,20(1)
	cmpwi 7,11,0
	blt- 7,.L953
	.loc 2 3355 0
	lis 26,0x4752
	lis 23,0x494e
	lis 17,0x504e
	lis 14,0x544d
	lis 18,0x494b
	lis 21,0x4752
	lis 20,0x4752
	lis 19,0x464b
	.loc 2 3381 0
	lis 16,0x2492
	la 29,.LANCHOR0@l(22)
.LBB1431:
.LBB1432:
	.loc 2 1002 0
	li 27,0
.LBE1432:
.LBE1431:
	.loc 2 3355 0
	ori 26,26,21332
	ori 23,23,16717
	ori 17,17,16717
	ori 14,14,16720
	.loc 2 3357 0
	addi 15,30,104
	.loc 2 3355 0
	ori 18,18,17753
	ori 21,21,17742
	ori 20,20,20564
	ori 19,19,17753
	.loc 2 3381 0
	ori 16,16,18725
.LVL1160:
.L974:
	.loc 2 3355 0
	cmpw 7,0,26
	.loc 2 3352 0
	rlwinm 28,3,0,31,31
	add 28,28,3
.LBB1434:
.LBB1433:
	.loc 2 1002 0
	stw 27,0(29)
.LBE1433:
.LBE1434:
	.loc 2 3352 0
	rlwinm 28,28,0,0xffff
.LVL1161:
	.loc 2 3355 0
	beq- 7,.L958
	cmplw 7,0,26
	bgt- 7,.L963
	cmpw 7,0,21
	beq- 7,.L956
	cmpw 7,0,20
	beq- 7,.L957
	cmpw 7,0,19
	beq- 7,.L987
.L976:
	li 4,0
.LVL1162:
.L954:
	.loc 2 3406 0 discriminator 2
	cmpw 7,28,4
	blt- 7,.L983
	.loc 2 3410 0
	bgt- 7,.L988
.L972:
	.loc 2 3415 0
	lwz 9,0(31)
	mr 3,31
	lwz 0,36(9)
	mtctr 0
	bctrl
	subf 3,25,3
	cmpw 7,3,24
	bge- 7,.L973
.LVL1163:
	.loc 2 3421 0
	mr 3,31
.LBB1435:
.LBB1436:
	.loc 2 1002 0
	stw 27,0(29)
.LBE1436:
.LBE1435:
	.loc 2 3421 0
	bl _Z5getU4P6idFile
	mr 0,3
.LVL1164:
	.loc 2 3422 0
	mr 3,31
.LVL1165:
	stw 0,20(1)
	bl _Z5getU2P6idFile
.LVL1166:
	.loc 2 3423 0
	lwz 9,0(29)
	lwz 0,20(1)
	cmpwi 7,9,6
	beq+ 7,.L974
.LVL1167:
.L983:
	li 9,0
.LVL1168:
.L953:
.LBE1439:
	.loc 2 3428 0
	lwz 0,108(1)
	mr 3,9
	lwz 14,32(1)
	mtlr 0
	lwz 15,36(1)
	lwz 16,40(1)
	lwz 17,44(1)
	lwz 18,48(1)
	lwz 19,52(1)
	lwz 20,56(1)
	lwz 21,60(1)
	lwz 22,64(1)
	lwz 23,68(1)
	lwz 24,72(1)
.LVL1169:
	lwz 25,76(1)
.LVL1170:
	lwz 26,80(1)
	lwz 27,84(1)
	lwz 28,88(1)
	lwz 29,92(1)
	lwz 30,96(1)
.LVL1171:
	lwz 31,100(1)
.LVL1172:
	addi 1,1,104
	.cfi_remember_state
.LCFI188:
	.cfi_def_cfa_offset 0
	.cfi_restore 31
	.cfi_restore 30
	.cfi_restore 29
	.cfi_restore 28
	.cfi_restore 27
	.cfi_restore 26
	.cfi_restore 25
	.cfi_restore 24
	.cfi_restore 23
	.cfi_restore 22
	.cfi_restore 21
	.cfi_restore 20
	.cfi_restore 19
	.cfi_restore 18
	.cfi_restore 17
	.cfi_restore 16
	.cfi_restore 15
	.cfi_restore 14
	blr
.LVL1173:
.L963:
.LCFI189:
	.cfi_restore_state
.LBB1440:
	.loc 2 3355 0
	cmpw 7,0,23
	beq- 7,.L960
	cmplw 7,0,23
	bgt- 7,.L964
	cmpw 7,0,18
	bne+ 7,.L976
	.loc 2 3392 0
	srwi 0,28,1
.LVL1174:
	.loc 2 3393 0
	slwi 11,0,1
	stw 0,20(1)
	mr 3,11
	stw 11,8(1)
	bl _Z16Mem_ClearedAlloci
.LVL1175:
	.loc 2 3394 0
	cmpwi 7,3,0
	.loc 2 3393 0
	stw 3,60(30)
	mr 11,3
	.loc 2 3394 0
	lwz 0,20(1)
	beq- 7,.L983
.LVL1176:
	.loc 2 3395 0 discriminator 1
	cmpwi 7,0,0
	.loc 2 3340 0 discriminator 1
	li 9,0
	.loc 2 3395 0 discriminator 1
	bne+ 7,.L985
	b .L970
.LVL1177:
.L989:
	.loc 2 3395 0 is_stmt 0
	lwz 11,60(30)
.L985:
	.loc 2 3396 0 is_stmt 1 discriminator 2
	mr 3,31
	stw 9,24(1)
	stw 11,20(1)
	bl _Z5getU2P6idFile
	lwz 9,24(1)
	lwz 11,20(1)
	.loc 2 3395 0 discriminator 2
	lwz 0,8(1)
	.loc 2 3396 0 discriminator 2
	sthx 3,11,9
	addi 9,9,2
	.loc 2 3395 0 discriminator 2
	cmpw 7,9,0
	bne+ 7,.L989
.L970:
	.loc 2 3395 0 is_stmt 0
	lwz 4,0(29)
	b .L965
.LVL1178:
.L964:
	.loc 2 3355 0 is_stmt 1
	cmpw 7,0,17
	beq- 7,.L961
	cmpw 7,0,14
	bne+ 7,.L976
	.loc 2 3357 0
	mr 3,31
	mr 4,28
	mr 5,15
	bl _Z9lwGetTMapP6idFileiP9st_lwTMap
.LVL1179:
	cmpwi 7,3,0
	beq- 7,.L983
	.loc 2 3395 0
	lwz 4,0(29)
	b .L965
.LVL1180:
.L987:
	.loc 2 3381 0
	srwi 0,28,2
.LVL1181:
	mulhwu 0,0,16
	rlwinm 0,0,0,0xffff
	.loc 2 3382 0
	mulli 3,0,28
	.loc 2 3381 0
	stw 0,16(1)
.LVL1182:
	.loc 2 3382 0
	bl _Z16Mem_ClearedAlloci
.LVL1183:
	.loc 2 3383 0
	cmpwi 7,3,0
	.loc 2 3382 0
	mr 0,3
	stw 3,56(30)
	.loc 2 3383 0
	beq- 7,.L983
.LVL1184:
	.loc 2 3384 0 discriminator 1
	lwz 9,16(1)
	li 11,0
	stw 11,8(1)
	cmpwi 7,9,0
	li 9,0
	stw 9,12(1)
	beq- 7,.L970
.LVL1185:
.L986:
	.loc 2 3385 0
	lwz 11,8(1)
	mr 3,31
	add 9,0,11
	stw 9,24(1)
	bl _Z5getF4P6idFile
	lwz 9,24(1)
	stfs 1,8(9)
.LVL1186:
	.loc 2 3386 0
	li 9,0
.LVL1187:
.L967:
	.loc 2 3387 0 discriminator 2
	lwz 0,56(30)
	mr 3,31
	lwz 11,8(1)
	stw 9,24(1)
	add 0,0,11
	stw 0,20(1)
	bl _Z5getF4P6idFile
.LVL1188:
	.loc 2 3386 0 discriminator 2
	lwz 9,24(1)
	.loc 2 3387 0 discriminator 2
	lwz 0,20(1)
	.loc 2 3386 0 discriminator 2
	cmpwi 7,9,3
	.loc 2 3387 0 discriminator 2
	slwi 11,9,2
	add 11,0,11
	.loc 2 3386 0 discriminator 2
	addi 9,9,1
	.loc 2 3387 0 discriminator 2
	stfs 1,12(11)
	.loc 2 3386 0 discriminator 2
	bne+ 7,.L967
	.loc 2 3384 0
	lwz 9,12(1)
	lwz 11,16(1)
	addi 9,9,1
	cmpw 7,11,9
	stw 9,12(1)
.LVL1189:
	lwz 9,8(1)
.LVL1190:
	addi 9,9,28
	stw 9,8(1)
	ble- 7,.L970
	lwz 0,56(30)
	b .L986
.LVL1191:
.L961:
	.loc 2 3361 0
	mr 3,31
	bl _Z5getS0P6idFile
.LVL1192:
	lwz 4,0(29)
	stw 3,36(30)
.L965:
	.loc 2 3406 0
	cmpwi 7,4,0
	bge+ 7,.L954
	.loc 2 3423 0
	li 9,0
	b .L953
.L988:
	.loc 2 3411 0
	lwz 9,0(31)
	mr 3,31
	subf 4,4,28
	li 5,0
	lwz 0,48(9)
	mtctr 0
	bctrl
	b .L972
.LVL1193:
.L957:
	.loc 2 3377 0
	mr 3,31
	bl _Z5getU2P6idFile
.LVL1194:
	lwz 4,0(29)
	stw 3,52(30)
	.loc 2 3378 0
	b .L965
.LVL1195:
.L960:
	.loc 2 3365 0
	mr 3,31
	bl _Z5getS0P6idFile
.LVL1196:
	lwz 4,0(29)
	stw 3,40(30)
	.loc 2 3366 0
	b .L965
.LVL1197:
.L956:
	.loc 2 3373 0
	mr 3,31
	bl _Z5getF4P6idFile
.LVL1198:
	lwz 4,0(29)
	stfs 1,48(30)
	.loc 2 3374 0
	b .L965
.LVL1199:
.L958:
	.loc 2 3369 0
	mr 3,31
	bl _Z5getF4P6idFile
.LVL1200:
	lwz 4,0(29)
	stfs 1,44(30)
	.loc 2 3370 0
	b .L965
.L973:
	.loc 2 3426 0
	lwz 9,0(31)
	mr 3,31
	lwz 0,36(9)
	mtctr 0
	bctrl
.LVL1201:
	.loc 2 3427 0
	li 9,1
	.loc 2 3426 0
	subf 3,25,3
.LVL1202:
.LBB1437:
.LBB1438:
	.loc 2 1002 0
	stw 3,.LANCHOR0@l(22)
.LBE1438:
.LBE1437:
	.loc 2 3427 0
	b .L953
.LBE1440:
	.cfi_endproc
.LFE2608:
	.size	_Z13lwGetGradientP6idFileiP12st_lwTexture, .-_Z13lwGetGradientP6idFileiP12st_lwTexture
	.align 2
	.globl _Z12lwGetTextureP6idFileij
	.type	_Z12lwGetTextureP6idFileij, @function
_Z12lwGetTextureP6idFileij:
.LFB2609:
	.loc 2 3439 0
	.cfi_startproc
.LVL1203:
	stwu 1,-32(1)
.LCFI190:
	.cfi_def_cfa_offset 32
	mflr 0
	stw 30,24(1)
	mr 30,3
	.cfi_offset 30, -8
	.cfi_register 65, 0
.LBB1441:
	.loc 2 3444 0
	li 3,180
.LVL1204:
.LBE1441:
	.loc 2 3439 0
	stw 27,12(1)
	stw 29,20(1)
	mr 27,4
	.cfi_offset 29, -12
	.cfi_offset 27, -20
	stw 31,28(1)
	mr 29,5
	stw 0,36(1)
	stw 28,16(1)
.LBB1444:
	.loc 2 3444 0
	.cfi_offset 28, -16
	.cfi_offset 65, 4
	.cfi_offset 31, -4
	bl _Z16Mem_ClearedAlloci
.LVL1205:
	.loc 2 3445 0
	mr. 31,3
	beq- 0,.L991
	.loc 2 3450 0
	lis 9,.LC0@ha
	.loc 2 3447 0
	stw 29,12(31)
	.loc 2 3450 0
	lwz 0,.LC0@l(9)
	.loc 2 3454 0
	mr 3,30
.LVL1206:
	.loc 2 3450 0
	stw 0,112(31)
	stw 0,108(31)
	stw 0,104(31)
	.loc 2 3451 0
	stw 0,20(31)
	.loc 2 3452 0
	li 0,1
	sth 0,30(31)
	.loc 2 3454 0
	bl _Z5getU2P6idFile
	.loc 2 3455 0
	mr 5,31
	.loc 2 3454 0
	mr 28,3
.LVL1207:
	.loc 2 3455 0
	mr 3,30
.LVL1208:
	mr 4,28
	bl _Z12lwGetTHeaderP6idFileiP12st_lwTexture
	cmpwi 7,3,0
	beq- 7,.L1000
	.loc 2 3461 0
	lis 0,0x494d
	.loc 2 3460 0
	addi 4,27,-6
	.loc 2 3461 0
	ori 0,0,16720
	.loc 2 3460 0
	subf 28,28,4
.LVL1209:
	.loc 2 3461 0
	cmpw 7,29,0
	.loc 2 3460 0
	rlwinm 4,28,0,0xffff
.LVL1210:
	.loc 2 3461 0
	beq- 7,.L995
	xoris 0,29,0x5052
	cmpwi 7,0,20291
	beq 7,.L996
	xoris 0,29,0x4752
	cmpwi 7,0,16708
	beq 7,.L1001
	.loc 2 3466 0
	lwz 9,0(30)
	mr 3,30
	li 5,0
	lwz 0,48(9)
	mtctr 0
	bctrl
.LVL1211:
	cntlzw 3,3
	srwi 3,3,5
.LVL1212:
.L997:
	.loc 2 3469 0
	cmpwi 7,3,0
	beq- 7,.L1002
.LVL1213:
.LBB1442:
.LBB1443:
	.loc 2 1002 0
	lis 9,.LANCHOR0@ha
	stw 27,.LANCHOR0@l(9)
.LVL1214:
.L991:
.LBE1443:
.LBE1442:
.LBE1444:
	.loc 2 3476 0
	lwz 0,36(1)
	mr 3,31
	lwz 27,12(1)
.LVL1215:
	mtlr 0
	lwz 28,16(1)
	lwz 29,20(1)
.LVL1216:
	lwz 30,24(1)
.LVL1217:
	lwz 31,28(1)
	addi 1,1,32
	.cfi_remember_state
.LCFI191:
	.cfi_def_cfa_offset 0
	.cfi_restore 31
	.cfi_restore 30
	.cfi_restore 29
	.cfi_restore 28
	.cfi_restore 27
	blr
.LVL1218:
.L996:
.LCFI192:
	.cfi_restore_state
.LBB1445:
	.loc 2 3463 0
	mr 3,30
	mr 5,31
	bl _Z15lwGetProceduralP6idFileiP12st_lwTexture
.LVL1219:
	b .L997
.LVL1220:
.L1001:
	.loc 2 3464 0
	mr 3,30
	mr 5,31
	bl _Z13lwGetGradientP6idFileiP12st_lwTexture
.LVL1221:
	b .L997
.LVL1222:
.L995:
	.loc 2 3462 0
	mr 3,30
	mr 5,31
	bl _Z13lwGetImageMapP6idFileiP12st_lwTexture
.LVL1223:
	b .L997
.LVL1224:
.L1000:
	.loc 2 3456 0
	mr 3,31
	.loc 2 3457 0
	li 31,0
.LVL1225:
	.loc 2 3456 0
	bl _Z8Mem_FreePv
.LVL1226:
	.loc 2 3457 0
	b .L991
.LVL1227:
.L1002:
	.loc 2 3470 0
	mr 3,31
.LVL1228:
	.loc 2 3471 0
	li 31,0
.LVL1229:
	.loc 2 3470 0
	bl _Z13lwFreeTextureP12st_lwTexture
.LVL1230:
	.loc 2 3471 0
	b .L991
.LBE1445:
	.cfi_endproc
.LFE2609:
	.size	_Z12lwGetTextureP6idFileij, .-_Z12lwGetTextureP6idFileij
	.align 2
	.globl _Z11lwGetShaderP6idFilei
	.type	_Z11lwGetShaderP6idFilei, @function
_Z11lwGetShaderP6idFilei:
.LFB2610:
	.loc 2 3487 0
	.cfi_startproc
.LVL1231:
	stwu 1,-48(1)
.LCFI193:
	.cfi_def_cfa_offset 48
	mflr 0
	stw 31,44(1)
	mr 31,3
	.cfi_offset 31, -4
	.cfi_register 65, 0
.LBB1446:
	.loc 2 3493 0
	li 3,24
.LVL1232:
.LBE1446:
	.loc 2 3487 0
	stw 25,20(1)
	stw 28,32(1)
	mr 25,4
	.cfi_offset 28, -16
	.cfi_offset 25, -28
	stw 0,52(1)
	stw 22,8(1)
	stw 23,12(1)
	stw 24,16(1)
	stw 26,24(1)
	stw 27,28(1)
	stw 29,36(1)
	stw 30,40(1)
.LBB1461:
	.loc 2 3493 0
	.cfi_offset 30, -8
	.cfi_offset 29, -12
	.cfi_offset 27, -20
	.cfi_offset 26, -24
	.cfi_offset 24, -32
	.cfi_offset 23, -36
	.cfi_offset 22, -40
	.cfi_offset 65, 4
	bl _Z16Mem_ClearedAlloci
.LVL1233:
	.loc 2 3494 0
	mr. 28,3
	beq- 0,.L1004
	.loc 2 3496 0
	lwz 9,0(31)
	mr 3,31
.LVL1234:
.LBB1447:
.LBB1448:
	.loc 2 1002 0
	lis 24,.LANCHOR0@ha
.LBE1448:
.LBE1447:
	.loc 2 3496 0
	lwz 0,36(9)
	mtctr 0
	bctrl
.LBB1451:
.LBB1449:
	.loc 2 1002 0
	li 0,0
.LBE1449:
.LBE1451:
	.loc 2 3496 0
	mr 26,3
.LVL1235:
	.loc 2 3498 0
	mr 3,31
.LVL1236:
.LBB1452:
.LBB1450:
	.loc 2 1002 0
	stw 0,.LANCHOR0@l(24)
.LBE1450:
.LBE1452:
	.loc 2 3498 0
	bl _Z5getU2P6idFile
	mr 30,3
.LVL1237:
	.loc 2 3499 0
	mr 3,31
.LVL1238:
	bl _Z5getS0P6idFile
	stw 3,8(28)
	.loc 2 3500 0
	mr 3,31
	bl _Z5getU4P6idFile
	mr 27,3
.LVL1239:
	.loc 2 3501 0
	mr 3,31
.LVL1240:
	bl _Z5getU2P6idFile
.LVL1241:
	.loc 2 3502 0
	lwz 0,.LANCHOR0@l(24)
	cmpwi 7,0,0
	blt- 7,.L1005
	.loc 2 3504 0 discriminator 1
	cmpwi 7,30,0
	beq- 7,.L1006
.LVL1242:
	.loc 2 3507 0
	lis 29,0x454e
	ori 29,29,16706
	cmpw 7,27,29
	beq- 7,.L1007
	.loc 2 3505 0
	rlwinm 4,3,0,31,31
	add 4,4,3
	.loc 2 3506 0
	rlwinm 4,4,0,0xffff
	subf 30,4,30
.LVL1243:
	b .L1009
.LVL1244:
.L1010:
	subf 30,4,30
.LVL1245:
	.loc 2 3507 0
	beq- 6,.L1007
.LVL1246:
.L1009:
	.loc 2 3512 0
	lwz 9,0(31)
	li 5,0
	mr 3,31
	lwz 0,48(9)
	mtctr 0
	bctrl
	.loc 2 3513 0
	mr 3,31
	bl _Z5getU4P6idFile
	mr 27,3
.LVL1247:
	.loc 2 3514 0
	mr 3,31
.LVL1248:
	bl _Z5getU2P6idFile
.LVL1249:
	.loc 2 3504 0
	cmpwi 7,30,0
	.loc 2 3505 0
	rlwinm 4,3,0,31,31
	.loc 2 3507 0
	cmpw 6,27,29
	.loc 2 3505 0
	add 4,4,3
	.loc 2 3506 0
	rlwinm 4,4,0,0xffff
	.loc 2 3504 0
	bgt+ 7,.L1010
.LVL1250:
.L1006:
	.loc 2 3518 0
	mr 3,31
	bl _Z5getU4P6idFile
	mr 22,3
.LVL1251:
	.loc 2 3519 0
	mr 3,31
.LVL1252:
	bl _Z5getU2P6idFile
.LVL1253:
	.loc 2 3520 0
	lwz 0,.LANCHOR0@l(24)
	cmpwi 7,0,0
	blt- 7,.L1005
	lis 30,.LANCHOR0@ha
	.loc 2 3526 0
	lis 27,0x4655
	la 30,.LANCHOR0@l(30)
.LBB1453:
.LBB1454:
	.loc 2 1002 0
	li 29,0
.LBE1454:
.LBE1453:
	.loc 2 3526 0
	ori 27,27,20035
	b .L1015
.LVL1254:
.L1011:
	.loc 2 3540 0 discriminator 1
	cmpw 7,23,4
	blt- 7,.L1005
	.loc 2 3544 0
	bgt- 7,.L1020
.L1013:
	.loc 2 3549 0
	lwz 9,0(31)
	mr 3,31
	lwz 0,36(9)
	mtctr 0
	bctrl
	subf 0,26,3
	.loc 2 3555 0
	mr 3,31
	.loc 2 3549 0
	cmpw 7,0,25
	bge- 7,.L1014
.LVL1255:
.LBB1456:
.LBB1457:
	.loc 2 1002 0
	stw 29,0(30)
.LBE1457:
.LBE1456:
	.loc 2 3555 0
	bl _Z5getU4P6idFile
	mr 22,3
.LVL1256:
	.loc 2 3556 0
	mr 3,31
.LVL1257:
	bl _Z5getU2P6idFile
.LVL1258:
	.loc 2 3557 0
	lwz 0,0(30)
	cmpwi 7,0,6
	bne- 7,.L1005
.LVL1259:
.L1015:
	.loc 2 3526 0
	cmpw 7,22,27
	.loc 2 3523 0
	rlwinm 23,3,0,31,31
	add 23,23,3
	.loc 2 3526 0
	li 4,0
	.loc 2 3523 0
	rlwinm 23,23,0,0xffff
.LVL1260:
.LBB1458:
.LBB1455:
	.loc 2 1002 0
	stw 29,0(30)
.LBE1455:
.LBE1458:
	.loc 2 3526 0
	bne+ 7,.L1011
	.loc 2 3528 0
	mr 3,31
	bl _Z5getS0P6idFile
	.loc 2 3530 0
	lwz 4,0(30)
	.loc 2 3528 0
	stw 3,12(28)
	.loc 2 3530 0
	mr 3,31
	subf 4,4,23
	bl _Z8getbytesP6idFilei
	lwz 4,0(30)
	stw 3,20(28)
	.loc 2 3540 0
	cmpwi 7,4,0
	bge+ 7,.L1011
.LVL1261:
.L1005:
	.loc 2 3564 0
	mr 3,28
	.loc 2 3565 0
	li 28,0
.LVL1262:
	.loc 2 3564 0
	bl _Z12lwFreePluginP11st_lwPlugin
.LVL1263:
.L1004:
.LBE1461:
	.loc 2 3566 0
	lwz 0,52(1)
	mr 3,28
	lwz 22,8(1)
	mtlr 0
	lwz 23,12(1)
	lwz 24,16(1)
	lwz 25,20(1)
.LVL1264:
	lwz 26,24(1)
	lwz 27,28(1)
	lwz 28,32(1)
	lwz 29,36(1)
	lwz 30,40(1)
	lwz 31,44(1)
.LVL1265:
	addi 1,1,48
	.cfi_remember_state
.LCFI194:
	.cfi_def_cfa_offset 0
	.cfi_restore 31
	.cfi_restore 30
	.cfi_restore 29
	.cfi_restore 28
	.cfi_restore 27
	.cfi_restore 26
	.cfi_restore 25
	.cfi_restore 24
	.cfi_restore 23
	.cfi_restore 22
	blr
.LVL1266:
.L1020:
.LCFI195:
	.cfi_restore_state
.LBB1462:
	.loc 2 3545 0
	lwz 9,0(31)
	subf 4,4,23
	li 5,0
	mr 3,31
	lwz 0,48(9)
	mtctr 0
	bctrl
	b .L1013
.LVL1267:
.L1007:
	.loc 2 3508 0
	mr 3,31
	bl _Z5getU2P6idFile
	stw 3,16(28)
	.loc 2 3509 0
	b .L1006
.LVL1268:
.L1014:
	.loc 2 3560 0
	lwz 9,0(31)
	mr 3,31
	lwz 0,36(9)
	mtctr 0
	bctrl
.LVL1269:
	subf 3,26,3
.LVL1270:
.LBB1459:
.LBB1460:
	.loc 2 1002 0
	stw 3,.LANCHOR0@l(24)
.LBE1460:
.LBE1459:
	.loc 2 3561 0
	b .L1004
.LBE1462:
	.cfi_endproc
.LFE2610:
	.size	_Z11lwGetShaderP6idFilei, .-_Z11lwGetShaderP6idFilei
	.align 2
	.globl _Z16lwDefaultSurfacev
	.type	_Z16lwDefaultSurfacev, @function
_Z16lwDefaultSurfacev:
.LFB2614:
	.loc 2 3629 0
	.cfi_startproc
	mflr 0
	stwu 1,-8(1)
.LCFI196:
	.cfi_def_cfa_offset 8
	.cfi_register 65, 0
.LBB1463:
	.loc 2 3632 0
	li 3,244
.LBE1463:
	.loc 2 3629 0
	stw 0,12(1)
.LBB1464:
	.loc 2 3632 0
	.cfi_offset 65, 4
	bl _Z16Mem_ClearedAlloci
.LVL1271:
	.loc 2 3633 0
	cmpwi 0,3,0
	beq- 0,.L1022
	.loc 2 3635 0
	lis 9,.LC21@ha
	.loc 2 3638 0
	lis 11,.LC0@ha
	.loc 2 3635 0
	lwz 9,.LC21@l(9)
	.loc 2 3638 0
	lwz 0,.LC0@l(11)
	.loc 2 3635 0
	stw 9,16(3)
	.loc 2 3636 0
	stw 9,20(3)
	.loc 2 3637 0
	stw 9,24(3)
	.loc 2 3639 0
	lis 9,.LC22@ha
	lwz 9,.LC22@l(9)
	.loc 2 3638 0
	stw 0,48(3)
	.loc 2 3640 0
	stw 0,156(3)
	.loc 2 3641 0
	stw 0,132(3)
	.loc 2 3642 0
	li 0,1
	.loc 2 3639 0
	stw 9,72(3)
	.loc 2 3642 0
	stw 0,172(3)
.L1022:
.LBE1464:
	.loc 2 3645 0
	lwz 0,12(1)
	addi 1,1,8
.LCFI197:
	.cfi_def_cfa_offset 0
	mtlr 0
	blr
	.cfi_endproc
.LFE2614:
	.size	_Z16lwDefaultSurfacev, .-_Z16lwDefaultSurfacev
	.align 2
	.globl _Z21lwResolvePolySurfacesP16st_lwPolygonListP12st_lwTagListPP12st_lwSurfacePi
	.type	_Z21lwResolvePolySurfacesP16st_lwPolygonListP12st_lwTagListPP12st_lwSurfacePi, @function
_Z21lwResolvePolySurfacesP16st_lwPolygonListP12st_lwTagListPP12st_lwSurfacePi:
.LFB2596:
	.loc 2 2678 0
	.cfi_startproc
.LVL1272:
	mflr 0
	stwu 1,-48(1)
.LCFI198:
	.cfi_def_cfa_offset 48
	.cfi_register 65, 0
	stw 23,12(1)
	mr 23,6
	.cfi_offset 23, -36
	stw 29,36(1)
	mr 29,5
	.cfi_offset 29, -12
	stw 30,40(1)
	mr 30,3
	.cfi_offset 30, -8
	stw 31,44(1)
.LBB1465:
	.loc 2 2682 0
	li 3,1
.LVL1273:
.LBE1465:
	.loc 2 2678 0
	stw 0,52(1)
	mr 31,4
	.cfi_offset 65, 4
	.cfi_offset 31, -4
	stw 22,8(1)
	stw 24,16(1)
	stw 25,20(1)
	stw 26,24(1)
	stw 27,28(1)
	stw 28,32(1)
.LBB1472:
	.loc 2 2682 0
	lwz 0,0(4)
	cmpwi 7,0,0
	bne- 7,.L1050
	.cfi_offset 28, -16
	.cfi_offset 27, -20
	.cfi_offset 26, -24
	.cfi_offset 25, -28
	.cfi_offset 24, -32
	.cfi_offset 22, -40
.LVL1274:
.L1024:
.LBE1472:
	.loc 2 2715 0
	lwz 0,52(1)
	lwz 22,8(1)
	mtlr 0
	lwz 23,12(1)
.LVL1275:
	lwz 24,16(1)
	lwz 25,20(1)
	lwz 26,24(1)
	lwz 27,28(1)
	lwz 28,32(1)
	lwz 29,36(1)
.LVL1276:
	lwz 30,40(1)
.LVL1277:
	lwz 31,44(1)
.LVL1278:
	addi 1,1,48
	.cfi_remember_state
.LCFI199:
	.cfi_def_cfa_offset 0
	.cfi_restore 31
	.cfi_restore 30
	.cfi_restore 29
	.cfi_restore 28
	.cfi_restore 27
	.cfi_restore 26
	.cfi_restore 25
	.cfi_restore 24
	.cfi_restore 23
	.cfi_restore 22
	blr
.LVL1279:
.L1050:
.LCFI200:
	.cfi_restore_state
.LBB1473:
	.loc 2 2684 0
	slwi 3,0,2
	bl _Z16Mem_ClearedAlloci
.LVL1280:
	.loc 2 2685 0
	mr. 24,3
	li 3,0
.LVL1281:
	beq- 0,.L1024
.LVL1282:
	.loc 2 2687 0 discriminator 1
	lwz 0,0(31)
	cmpwi 7,0,0
	ble- 7,.L1025
	.loc 2 2687 0 is_stmt 0
	li 27,0
	li 26,0
.LVL1283:
.L1029:
	.loc 2 2688 0 is_stmt 1
	lwz 28,0(29)
.LVL1284:
	.loc 2 2689 0
	cmpwi 7,28,0
	bne+ 7,.L1046
	b .L1026
.LVL1285:
.L1027:
	.loc 2 2694 0
	lwz 28,0(28)
.LVL1286:
	.loc 2 2689 0
	cmpwi 7,28,0
	beq- 7,.L1051
.L1046:
	.loc 2 2690 0
	lwz 9,8(31)
	lwz 3,8(28)
	lwzx 4,9,27
	bl _ZN5idStr3CmpEPKcS1_
	cmpwi 7,3,0
	bne+ 7,.L1027
	.loc 2 2691 0
	stwx 28,24,27
	lwz 0,0(31)
.L1026:
	.loc 2 2687 0
	addi 26,26,1
.LVL1287:
	addi 27,27,4
	cmpw 7,0,26
	bgt+ 7,.L1029
.LVL1288:
.L1025:
	.loc 2 2698 0 discriminator 1
	lwz 9,0(30)
	cmpwi 7,9,0
	ble- 7,.L1030
	.loc 2 2699 0
	lwz 9,16(30)
	.loc 2 2700 0
	li 3,0
	.loc 2 2699 0
	lwz 26,0(9)
.LVL1289:
	.loc 2 2700 0
	cmpwi 7,26,0
	blt- 7,.L1024
	cmpw 7,0,26
	blt- 7,.L1024
	li 28,40
	li 25,0
	li 27,0
	b .L1031
.LVL1290:
.L1032:
	.loc 2 2710 0
	stwx 0,9,25
	.loc 2 2698 0
	addi 27,27,1
.LVL1291:
	lwz 0,0(30)
	cmpw 7,0,27
	ble- 7,.L1030
.L1036:
	.loc 2 2699 0
	lwz 9,16(30)
	lwzx 26,9,28
.LVL1292:
	.loc 2 2700 0
	cmpwi 7,26,0
	blt- 7,.L1044
	.loc 2 2700 0 is_stmt 0 discriminator 2
	lwz 0,0(31)
	addi 11,28,40
	cmpw 7,26,0
	bgt- 7,.L1044
	.loc 2 2699 0 is_stmt 1
	mr 25,28
	.loc 2 2700 0
	mr 28,11
.LVL1293:
.L1031:
	.loc 2 2701 0
	slwi 26,26,2
.LVL1294:
	lwzx 0,24,26
	cmpwi 7,0,0
	bne+ 7,.L1032
	.loc 2 2702 0
	bl _Z16lwDefaultSurfacev
	.loc 2 2703 0
	cmpwi 7,3,0
	.loc 2 2702 0
	mr 22,3
	stwx 3,24,26
	.loc 2 2703 0
	beq- 7,.L1044
	.loc 2 2704 0
	lwz 9,8(31)
	lwzx 3,9,26
	bl strlen
	addi 3,3,1
	bl _Z16Mem_ClearedAlloci
	stw 3,8(22)
	.loc 2 2705 0
	lwzx 9,24,26
	lwz 3,8(9)
	cmpwi 7,3,0
	beq- 7,.L1044
	.loc 2 2706 0
	lwz 9,8(31)
	lwzx 4,9,26
	bl strcpy
.LBB1466:
.LBB1467:
	.loc 2 929 0
	lwz 9,0(29)
.LBE1467:
.LBE1466:
	.loc 2 2707 0
	lwzx 11,24,26
.LVL1295:
.LBB1470:
.LBB1468:
	.loc 2 930 0
	cmpwi 7,9,0
	bne+ 7,.L1049
	b .L1053
.LVL1296:
.L1045:
	.loc 2 936 0
	mr 9,0
.LVL1297:
.L1049:
	lwz 0,0(9)
.LVL1298:
	.loc 2 934 0
	cmpwi 7,0,0
	bne+ 7,.L1045
	.loc 2 938 0
	stw 11,0(9)
	.loc 2 939 0
	stw 9,4(11)
.LVL1299:
.L1034:
.LBE1468:
.LBE1470:
	.loc 2 2708 0
	lwz 9,0(23)
	.loc 2 2698 0
	addi 27,27,1
.LVL1300:
	.loc 2 2708 0
	addi 0,9,1
	stw 0,0(23)
	lwzx 0,24,26
	lwz 9,16(30)
	.loc 2 2710 0
	stwx 0,9,25
	.loc 2 2698 0
	lwz 0,0(30)
	cmpw 7,0,27
	bgt+ 7,.L1036
.LVL1301:
.L1030:
	.loc 2 2713 0
	mr 3,24
	bl _Z8Mem_FreePv
.LBE1473:
	.loc 2 2715 0
	lwz 0,52(1)
	lwz 22,8(1)
.LBB1474:
	.loc 2 2714 0
	li 3,1
.LBE1474:
	.loc 2 2715 0
	mtlr 0
	lwz 23,12(1)
.LVL1302:
	lwz 24,16(1)
.LVL1303:
	lwz 25,20(1)
	lwz 26,24(1)
	lwz 27,28(1)
	lwz 28,32(1)
	lwz 29,36(1)
.LVL1304:
	lwz 30,40(1)
.LVL1305:
	lwz 31,44(1)
.LVL1306:
	addi 1,1,48
	.cfi_remember_state
	.cfi_restore 22
	.cfi_restore 23
	.cfi_restore 24
	.cfi_restore 25
	.cfi_restore 26
	.cfi_restore 27
	.cfi_restore 28
	.cfi_restore 29
	.cfi_restore 30
	.cfi_restore 31
.LCFI201:
	.cfi_def_cfa_offset 0
	blr
.LVL1307:
.L1051:
.LCFI202:
	.cfi_restore_state
	lwz 0,0(31)
	b .L1026
.LVL1308:
.L1044:
	lwz 0,52(1)
.LBB1475:
	.loc 2 2705 0
	li 3,0
.LBE1475:
	.loc 2 2715 0
	lwz 22,8(1)
	mtlr 0
	lwz 23,12(1)
.LVL1309:
	lwz 24,16(1)
.LVL1310:
	lwz 25,20(1)
	lwz 26,24(1)
	lwz 27,28(1)
	lwz 28,32(1)
	lwz 29,36(1)
.LVL1311:
	lwz 30,40(1)
.LVL1312:
	lwz 31,44(1)
.LVL1313:
	addi 1,1,48
	.cfi_remember_state
	.cfi_restore 22
	.cfi_restore 23
	.cfi_restore 24
	.cfi_restore 25
	.cfi_restore 26
	.cfi_restore 27
	.cfi_restore 28
	.cfi_restore 29
	.cfi_restore 30
	.cfi_restore 31
.LCFI203:
	.cfi_def_cfa_offset 0
	blr
.LVL1314:
.L1053:
.LCFI204:
	.cfi_restore_state
.LBB1476:
.LBB1471:
.LBB1469:
	.loc 2 931 0
	stw 11,0(29)
	b .L1034
.LBE1469:
.LBE1471:
.LBE1476:
	.cfi_endproc
.LFE2596:
	.size	_Z21lwResolvePolySurfacesP16st_lwPolygonListP12st_lwTagListPP12st_lwSurfacePi, .-_Z21lwResolvePolySurfacesP16st_lwPolygonListP12st_lwTagListPP12st_lwSurfacePi
	.align 2
	.globl _Z12lwGetSurfaceP6idFilei
	.type	_Z12lwGetSurfaceP6idFilei, @function
_Z12lwGetSurfaceP6idFilei:
.LFB2615:
	.loc 2 3656 0
	.cfi_startproc
.LVL1315:
	stwu 1,-80(1)
.LCFI205:
	.cfi_def_cfa_offset 80
	mflr 0
	stw 31,76(1)
	mr 31,3
	.cfi_offset 31, -4
	.cfi_register 65, 0
.LBB1501:
	.loc 2 3667 0
	li 3,244
.LVL1316:
.LBE1501:
	.loc 2 3656 0
	stw 26,56(1)
	stw 30,72(1)
	mr 26,4
	.cfi_offset 30, -8
	.cfi_offset 26, -24
	stw 0,84(1)
	stw 14,8(1)
	stw 15,12(1)
	stw 16,16(1)
	stw 17,20(1)
	stw 18,24(1)
	stw 19,28(1)
	stw 20,32(1)
	stw 21,36(1)
	stw 22,40(1)
	stw 23,44(1)
	stw 24,48(1)
	stw 25,52(1)
	stw 27,60(1)
	stw 28,64(1)
	stw 29,68(1)
.LBB1526:
	.loc 2 3667 0
	.cfi_offset 29, -12
	.cfi_offset 28, -16
	.cfi_offset 27, -20
	.cfi_offset 25, -28
	.cfi_offset 24, -32
	.cfi_offset 23, -36
	.cfi_offset 22, -40
	.cfi_offset 21, -44
	.cfi_offset 20, -48
	.cfi_offset 19, -52
	.cfi_offset 18, -56
	.cfi_offset 17, -60
	.cfi_offset 16, -64
	.cfi_offset 15, -68
	.cfi_offset 14, -72
	.cfi_offset 65, 4
	bl _Z16Mem_ClearedAlloci
.LVL1317:
	.loc 2 3668 0
	mr. 30,3
	beq- 0,.L1055
	.loc 2 3672 0
	lis 9,.LC21@ha
	.loc 2 3675 0
	lis 11,.LC0@ha
	.loc 2 3672 0
	lwz 9,.LC21@l(9)
.LBB1502:
.LBB1503:
	.loc 2 1002 0
	lis 29,.LANCHOR0@ha
.LBE1503:
.LBE1502:
	.loc 2 3675 0
	lwz 0,.LC0@l(11)
	.loc 2 3684 0
	mr 3,31
.LVL1318:
	.loc 2 3672 0
	stw 9,16(30)
	.loc 2 3673 0
	stw 9,20(30)
	.loc 2 3674 0
	stw 9,24(30)
	.loc 2 3676 0
	lis 9,.LC22@ha
	lwz 9,.LC22@l(9)
	.loc 2 3675 0
	stw 0,48(30)
	.loc 2 3677 0
	stw 0,156(30)
	.loc 2 3678 0
	stw 0,132(30)
	.loc 2 3679 0
	li 0,1
	.loc 2 3676 0
	stw 9,72(30)
	.loc 2 3679 0
	stw 0,172(30)
.LVL1319:
	.loc 2 3684 0
	lwz 9,0(31)
	lwz 0,36(9)
.LBB1505:
.LBB1504:
	.loc 2 1002 0
	li 9,0
	stw 9,.LANCHOR0@l(29)
.LBE1504:
.LBE1505:
	.loc 2 3684 0
	mtctr 0
	bctrl
	mr 25,3
.LVL1320:
	.loc 2 3688 0
	mr 3,31
.LVL1321:
	bl _Z5getS0P6idFile
	stw 3,8(30)
	.loc 2 3689 0
	mr 3,31
	bl _Z5getS0P6idFile
	stw 3,12(30)
	.loc 2 3693 0
	mr 3,31
	bl _Z5getU4P6idFile
	mr 14,3
.LVL1322:
	.loc 2 3694 0
	mr 3,31
.LVL1323:
	bl _Z5getU2P6idFile
.LVL1324:
	.loc 2 3695 0
	lwz 0,.LANCHOR0@l(29)
	cmpwi 7,0,0
	blt- 7,.L1056
	.loc 2 3703 0
	lis 27,0x4c55
	lis 24,0x5349
	lis 22,0x5449
	lis 21,0x5452
	lis 18,0x5452
	lis 17,0x5452
	lis 20,0x534d
	lis 19,0x5350
	lis 23,0x5249
.LBB1506:
.LBB1507:
	.loc 2 3616 0
	lis 15,_ZL16compare_texturesP12st_lwTextureS0_@ha
.LBE1507:
.LBE1506:
	.loc 2 3841 0
	lis 16,_ZL15compare_shadersP11st_lwPluginS0_@ha
	la 29,.LANCHOR0@l(29)
	.loc 2 3703 0
	ori 27,27,19785
	ori 24,24,17477
	ori 22,22,19783
	ori 21,21,20044
	ori 18,18,20304
	ori 17,17,16718
	ori 20,20,16718
	ori 19,19,17731
	ori 23,23,19783
.LBB1511:
.LBB1508:
	.loc 2 3616 0
	la 15,_ZL16compare_texturesP12st_lwTextureS0_@l(15)
.LBE1508:
.LBE1511:
	.loc 2 3841 0
	la 16,_ZL15compare_shadersP11st_lwPluginS0_@l(16)
.LVL1325:
.L1116:
	.loc 2 3703 0
	cmpw 7,14,27
	.loc 2 3700 0
	rlwinm 28,3,0,31,31
	add 28,28,3
.LBB1512:
.LBB1513:
	.loc 2 1002 0
	li 0,0
.LBE1513:
.LBE1512:
	.loc 2 3700 0
	rlwinm 28,28,0,0xffff
.LVL1326:
.LBB1515:
.LBB1514:
	.loc 2 1002 0
	stw 0,0(29)
.LBE1514:
.LBE1515:
	.loc 2 3703 0
	beq- 7,.L1070
	cmplw 7,14,27
	bgt- 7,.L1084
	lis 0,0x434c
	ori 0,0,21062
	cmpw 7,14,0
	beq- 7,.L1063
	cmplw 7,14,0
	ble- 7,.L1120
	lis 0,0x4449
	ori 0,0,17990
	cmpw 7,14,0
	beq- 7,.L1066
	cmplw 7,14,0
	ble- 7,.L1121
	xoris 0,14,0x4756
	cmpwi 7,0,16716
	beq 7,.L1068
	xoris 0,14,0x4c49
	cmpwi 7,0,20037
	beq 7,.L1069
	xoris 0,14,0x474c
	cmpwi 7,0,20307
	beq 7,.L1122
.L1117:
	li 4,0
.L1057:
	.loc 2 3855 0 discriminator 1
	cmpw 7,28,4
	blt- 7,.L1056
	.loc 2 3859 0
	bgt- 7,.L1123
.L1115:
	.loc 2 3864 0
	lwz 9,0(31)
	mr 3,31
	lwz 0,36(9)
	mtctr 0
	bctrl
	subf 3,25,3
	cmpw 7,3,26
	bge- 7,.L1055
.LVL1327:
.LBB1516:
.LBB1517:
	.loc 2 1002 0
	li 0,0
.LBE1517:
.LBE1516:
	.loc 2 3870 0
	mr 3,31
.LBB1519:
.LBB1518:
	.loc 2 1002 0
	stw 0,0(29)
.LBE1518:
.LBE1519:
	.loc 2 3870 0
	bl _Z5getU4P6idFile
	mr 14,3
.LVL1328:
	.loc 2 3871 0
	mr 3,31
.LVL1329:
	bl _Z5getU2P6idFile
.LVL1330:
	.loc 2 3872 0
	lwz 0,0(29)
	cmpwi 7,0,6
	beq+ 7,.L1116
.LVL1331:
.L1056:
	.loc 2 3878 0
	mr 3,30
	.loc 2 3879 0
	li 30,0
.LVL1332:
	.loc 2 3878 0
	bl _Z13lwFreeSurfaceP12st_lwSurface
.LVL1333:
.L1055:
.LBE1526:
	.loc 2 3880 0
	lwz 0,84(1)
	mr 3,30
	lwz 14,8(1)
	mtlr 0
	lwz 15,12(1)
	lwz 16,16(1)
	lwz 17,20(1)
	lwz 18,24(1)
	lwz 19,28(1)
	lwz 20,32(1)
	lwz 21,36(1)
	lwz 22,40(1)
	lwz 23,44(1)
	lwz 24,48(1)
	lwz 25,52(1)
	lwz 26,56(1)
.LVL1334:
	lwz 27,60(1)
	lwz 28,64(1)
	lwz 29,68(1)
	lwz 30,72(1)
	lwz 31,76(1)
.LVL1335:
	addi 1,1,80
	.cfi_remember_state
.LCFI206:
	.cfi_def_cfa_offset 0
	.cfi_restore 31
	.cfi_restore 30
	.cfi_restore 29
	.cfi_restore 28
	.cfi_restore 27
	.cfi_restore 26
	.cfi_restore 25
	.cfi_restore 24
	.cfi_restore 23
	.cfi_restore 22
	.cfi_restore 21
	.cfi_restore 20
	.cfi_restore 19
	.cfi_restore 18
	.cfi_restore 17
	.cfi_restore 16
	.cfi_restore 15
	.cfi_restore 14
	blr
.LVL1336:
.L1084:
.LCFI207:
	.cfi_restore_state
.LBB1527:
	.loc 2 3703 0
	cmpw 7,14,24
	beq- 7,.L1077
	cmplw 7,14,24
	ble- 7,.L1124
	cmpw 7,14,22
	beq- 7,.L1080
	cmplw 7,14,22
	ble- 7,.L1125
	cmpw 7,14,21
	beq- 7,.L1082
	cmpw 7,14,18
	beq- 7,.L1083
	cmpw 7,14,17
	bne+ 7,.L1117
	.loc 2 3749 0
	mr 3,31
	bl _Z5getF4P6idFile
	.loc 2 3750 0
	mr 3,31
	.loc 2 3749 0
	stfs 1,108(30)
	.loc 2 3750 0
	bl _Z5getVXP6idFile
	lwz 4,0(29)
	stw 3,112(30)
	.loc 2 3751 0
	b .L1091
.L1124:
	.loc 2 3703 0
	cmpw 7,14,23
	beq- 7,.L1073
	cmplw 7,14,23
	ble- 7,.L1126
	xoris 0,14,0x5253
	cmpwi 7,0,16718
	beq 7,.L1075
	xoris 0,14,0x5348
	cmpwi 7,0,21072
	beq 7,.L1076
	xoris 0,14,0x5249
	cmpwi 7,0,20036
	bne 7,.L1117
	.loc 2 3762 0
	mr 3,31
	bl _Z5getF4P6idFile
	.loc 2 3763 0
	mr 3,31
	.loc 2 3762 0
	stfs 1,132(30)
	.loc 2 3763 0
	bl _Z5getVXP6idFile
	lwz 4,0(29)
	stw 3,136(30)
	.loc 2 3764 0
	b .L1091
.L1120:
	.loc 2 3703 0
	lis 0,0x4156
	ori 0,0,16716
	cmpw 7,14,0
	beq- 7,.L1060
	cmplw 7,14,0
	ble- 7,.L1127
	xoris 0,14,0x424c
	cmpwi 7,0,20299
	beq 7,.L1061
	xoris 0,14,0x4255
	cmpwi 7,0,19792
	bne 7,.L1117
	.loc 2 3772 0
	mr 3,31
	bl _Z5getF4P6idFile
	.loc 2 3773 0
	mr 3,31
	.loc 2 3772 0
	stfs 1,156(30)
	.loc 2 3773 0
	bl _Z5getVXP6idFile
	lwz 4,0(29)
	stw 3,160(30)
	.loc 2 3774 0
	b .L1091
.L1121:
	.loc 2 3703 0
	xoris 0,14,0x434c
	cmpwi 7,0,21064
	beq 7,.L1064
	xoris 0,14,0x434f
	cmpwi 7,0,19538
	bne 7,.L1117
	.loc 2 3705 0
	mr 3,31
	bl _Z5getF4P6idFile
	.loc 2 3706 0
	mr 3,31
	.loc 2 3705 0
	stfs 1,16(30)
	.loc 2 3706 0
	bl _Z5getF4P6idFile
	.loc 2 3707 0
	mr 3,31
	.loc 2 3706 0
	stfs 1,20(30)
	.loc 2 3707 0
	bl _Z5getF4P6idFile
	.loc 2 3708 0
	mr 3,31
	.loc 2 3707 0
	stfs 1,24(30)
	.loc 2 3708 0
	bl _Z5getVXP6idFile
	lwz 4,0(29)
	stw 3,28(30)
.L1091:
	.loc 2 3855 0
	cmpwi 7,4,0
	bge+ 7,.L1057
	b .L1056
.L1127:
	.loc 2 3703 0
	xoris 0,14,0x4144
	cmpwi 7,0,21586
	beq 7,.L1058
	xoris 0,14,0x414c
	cmpwi 7,0,20552
	bne 7,.L1117
	.loc 2 3817 0
	mr 3,31
	bl _Z5getU2P6idFile
	stw 3,180(30)
	.loc 2 3818 0
	mr 3,31
	bl _Z5getF4P6idFile
	lwz 4,0(29)
	stfs 1,176(30)
	.loc 2 3819 0
	b .L1091
.L1125:
	.loc 2 3703 0
	cmpw 7,14,20
	beq- 7,.L1078
	cmpw 7,14,19
	bne+ 7,.L1117
	.loc 2 3722 0
	mr 3,31
	bl _Z5getF4P6idFile
	.loc 2 3723 0
	mr 3,31
	.loc 2 3722 0
	stfs 1,60(30)
	.loc 2 3723 0
	bl _Z5getVXP6idFile
	lwz 4,0(29)
	stw 3,64(30)
	.loc 2 3724 0
	b .L1091
.L1126:
	.loc 2 3703 0
	xoris 0,14,0x5245
	cmpwi 7,0,17996
	beq 7,.L1071
	xoris 0,14,0x5246
	cmpwi 7,0,20304
	bne 7,.L1117
	.loc 2 3737 0
	mr 3,31
	bl _Z5getU2P6idFile
	lwz 4,0(29)
	stw 3,96(30)
	.loc 2 3738 0
	b .L1091
.L1122:
	.loc 2 3727 0
	mr 3,31
	bl _Z5getF4P6idFile
	.loc 2 3728 0
	mr 3,31
	.loc 2 3727 0
	stfs 1,72(30)
	.loc 2 3728 0
	bl _Z5getVXP6idFile
	lwz 4,0(29)
	stw 3,76(30)
	.loc 2 3729 0
	b .L1091
.L1123:
	.loc 2 3860 0
	lwz 9,0(31)
	mr 3,31
	subf 4,4,28
	li 5,0
	lwz 0,48(9)
	mtctr 0
	bctrl
	b .L1115
.L1076:
	.loc 2 3800 0
	mr 3,31
	bl _Z5getF4P6idFile
	.loc 2 3801 0
	mr 3,31
	.loc 2 3800 0
	stfs 1,208(30)
	.loc 2 3801 0
	bl _Z5getVXP6idFile
	lwz 4,0(29)
	stw 3,212(30)
	.loc 2 3802 0
	b .L1091
.L1075:
	.loc 2 3745 0
	mr 3,31
	bl _Z5getF4P6idFile
	lwz 4,0(29)
	stfs 1,104(30)
	.loc 2 3746 0
	b .L1091
.L1066:
	.loc 2 3717 0
	mr 3,31
	bl _Z5getF4P6idFile
	.loc 2 3718 0
	mr 3,31
	.loc 2 3717 0
	stfs 1,48(30)
	.loc 2 3718 0
	bl _Z5getVXP6idFile
	lwz 4,0(29)
	stw 3,52(30)
	.loc 2 3719 0
	b .L1091
.L1064:
	.loc 2 3785 0
	mr 3,31
	bl _Z5getF4P6idFile
	.loc 2 3786 0
	mr 3,31
	.loc 2 3785 0
	stfs 1,184(30)
	.loc 2 3786 0
	bl _Z5getVXP6idFile
	lwz 4,0(29)
	stw 3,188(30)
	.loc 2 3787 0
	b .L1091
.L1069:
	.loc 2 3811 0
	cmplwi 7,28,1
	.loc 2 3810 0
	li 0,1
	sth 0,224(30)
	.loc 2 3811 0
	ble- 7,.L1117
	.loc 2 3811 0 is_stmt 0 discriminator 1
	mr 3,31
	bl _Z5getU2P6idFile
	.loc 2 3812 0 is_stmt 1 discriminator 1
	cmplwi 7,28,5
	.loc 2 3811 0 discriminator 1
	sth 3,226(30)
	.loc 2 3812 0 discriminator 1
	ble- 7,.L1119
	mr 3,31
	bl _Z5getF4P6idFile
	.loc 2 3813 0 discriminator 1
	cmplwi 7,28,7
	.loc 2 3812 0 discriminator 1
	stfs 1,228(30)
	.loc 2 3813 0 discriminator 1
	ble- 7,.L1119
	mr 3,31
	bl _Z5getVXP6idFile
	stw 3,232(30)
.L1119:
	lwz 4,0(29)
	b .L1091
.L1068:
	.loc 2 3805 0
	mr 3,31
	bl _Z5getF4P6idFile
	.loc 2 3806 0
	mr 3,31
	.loc 2 3805 0
	stfs 1,216(30)
	.loc 2 3806 0
	bl _Z5getVXP6idFile
	lwz 4,0(29)
	stw 3,220(30)
	.loc 2 3807 0
	b .L1091
.L1071:
	.loc 2 3732 0
	mr 3,31
	bl _Z5getF4P6idFile
	.loc 2 3733 0
	mr 3,31
	.loc 2 3732 0
	stfs 1,84(30)
	.loc 2 3733 0
	bl _Z5getVXP6idFile
	lwz 4,0(29)
	stw 3,88(30)
	.loc 2 3734 0
	b .L1091
.L1058:
	.loc 2 3795 0
	mr 3,31
	bl _Z5getF4P6idFile
	.loc 2 3796 0
	mr 3,31
	.loc 2 3795 0
	stfs 1,200(30)
	.loc 2 3796 0
	bl _Z5getVXP6idFile
	lwz 4,0(29)
	stw 3,204(30)
	.loc 2 3797 0
	b .L1091
.L1060:
	.loc 2 3822 0
	mr 3,31
	bl _Z5getF4P6idFile
	lwz 4,0(29)
	stfs 1,176(30)
	.loc 2 3823 0
	b .L1091
.L1080:
	.loc 2 3758 0
	mr 3,31
	bl _Z5getVXP6idFile
	lwz 4,0(29)
	stw 3,124(30)
	.loc 2 3759 0
	b .L1091
.L1073:
	.loc 2 3741 0
	mr 3,31
	bl _Z5getVXP6idFile
	lwz 4,0(29)
	stw 3,100(30)
	.loc 2 3742 0
	b .L1091
.L1070:
	.loc 2 3712 0
	mr 3,31
	bl _Z5getF4P6idFile
	.loc 2 3713 0
	mr 3,31
	.loc 2 3712 0
	stfs 1,36(30)
	.loc 2 3713 0
	bl _Z5getVXP6idFile
	lwz 4,0(29)
	stw 3,40(30)
	.loc 2 3714 0
	b .L1091
.L1063:
	.loc 2 3790 0
	mr 3,31
	bl _Z5getF4P6idFile
	.loc 2 3791 0
	mr 3,31
	.loc 2 3790 0
	stfs 1,192(30)
	.loc 2 3791 0
	bl _Z5getVXP6idFile
	lwz 4,0(29)
	stw 3,196(30)
	.loc 2 3792 0
	b .L1091
.L1077:
	.loc 2 3781 0
	mr 3,31
	bl _Z5getU2P6idFile
	lwz 4,0(29)
	stw 3,172(30)
	.loc 2 3782 0
	b .L1091
.L1078:
	.loc 2 3777 0
	mr 3,31
	bl _Z5getF4P6idFile
	lwz 4,0(29)
	stfs 1,168(30)
	.loc 2 3778 0
	b .L1091
.L1061:
	.loc 2 3826 0
	mr 3,31
	bl _Z5getU4P6idFile
	.loc 2 3828 0
	lis 0,0x494d
	ori 0,0,16720
	.loc 2 3826 0
	mr 5,3
.LVL1337:
	.loc 2 3828 0
	cmpw 7,3,0
	beq- 7,.L1096
	cmplw 7,3,0
	bgt- 7,.L1098
	xoris 0,3,0x4752
	cmpwi 7,0,16708
	bne 7,.L1119
.L1096:
	.loc 2 3832 0
	addi 4,28,-4
	mr 3,31
.LVL1338:
	bl _Z12lwGetTextureP6idFileij
.LVL1339:
	.loc 2 3833 0
	mr. 4,3
	beq- 0,.L1056
.LVL1340:
.LBB1520:
.LBB1509:
	.loc 2 3602 0
	lwz 0,16(4)
	cmpw 7,0,27
	beq- 7,.L1104
	cmplw 7,0,27
	bgt- 7,.L1110
	lis 9,0x434f
	ori 9,9,19538
	cmpw 7,0,9
	beq- 7,.L1101
	cmplw 7,0,9
	bgt- 7,.L1111
	xoris 9,0,0x4255
	cmpwi 7,9,19792
	beq 7,.L1128
.L1099:
.LBE1509:
.LBE1520:
	.loc 2 3835 0
	mr 3,4
.LVL1341:
	bl _Z13lwFreeTextureP12st_lwTexture
.LVL1342:
.L1114:
	.loc 2 3836 0
	lwz 4,0(29)
	addi 4,4,4
.LVL1343:
.LBB1521:
.LBB1522:
	.loc 2 1002 0
	stw 4,0(29)
	b .L1091
.LVL1344:
.L1083:
.LBE1522:
.LBE1521:
	.loc 2 3754 0
	mr 3,31
	bl _Z5getU2P6idFile
	lwz 4,0(29)
	stw 3,120(30)
	.loc 2 3755 0
	b .L1091
.L1082:
	.loc 2 3767 0
	mr 3,31
	bl _Z5getF4P6idFile
	.loc 2 3768 0
	mr 3,31
	.loc 2 3767 0
	stfs 1,144(30)
	.loc 2 3768 0
	bl _Z5getVXP6idFile
	lwz 4,0(29)
	stw 3,148(30)
	.loc 2 3769 0
	b .L1091
.LVL1345:
.L1098:
	.loc 2 3828 0
	xoris 0,3,0x5052
	cmpwi 7,0,20291
	beq 7,.L1096
	xoris 0,3,0x5348
	cmpwi 7,0,17490
	bne 7,.L1119
	.loc 2 3839 0
	addi 4,28,-4
	mr 3,31
.LVL1346:
	bl _Z11lwGetShaderP6idFilei
.LVL1347:
	.loc 2 3840 0
	mr. 4,3
	beq- 0,.L1056
	.loc 2 3841 0
	addi 3,30,236
.LVL1348:
	mr 5,16
	bl _Z12lwListInsertPPvS_PFiS_S_E
.LVL1349:
	.loc 2 3842 0
	lwz 9,240(30)
	.loc 2 3843 0
	lwz 4,0(29)
	.loc 2 3842 0
	addi 0,9,1
	.loc 2 3843 0
	addi 4,4,4
.LVL1350:
	.loc 2 3842 0
	stw 0,240(30)
.LBB1523:
.LBB1524:
	.loc 2 1002 0
	stw 4,0(29)
	b .L1091
.LVL1351:
.L1110:
.LBE1524:
.LBE1523:
.LBB1525:
.LBB1510:
	.loc 2 3602 0
	cmpw 7,0,19
	beq- 7,.L1107
	cmplw 7,0,19
	bgt- 7,.L1112
	xoris 9,0,0x5245
	cmpwi 7,9,17996
	beq 7,.L1105
	xoris 9,0,0x5249
	cmpwi 7,9,20036
	bne 7,.L1099
	.loc 2 3610 0
	addi 3,30,140
.LVL1352:
.L1113:
	.loc 2 3616 0
	mr 5,15
	bl _Z12lwListInsertPPvS_PFiS_S_E
.LVL1353:
	b .L1114
.LVL1354:
.L1111:
	.loc 2 3602 0
	xoris 9,0,0x4449
	cmpwi 7,9,17990
	beq 7,.L1102
	xoris 9,0,0x474c
	cmpwi 7,9,20307
	bne 7,.L1099
	.loc 2 3607 0
	addi 3,30,80
.LVL1355:
	b .L1113
.LVL1356:
.L1112:
	.loc 2 3602 0
	cmpw 7,0,17
	beq- 7,.L1108
	cmpw 7,0,21
	bne+ 7,.L1099
	.loc 2 3611 0
	addi 3,30,152
.LVL1357:
	b .L1113
.LVL1358:
.L1128:
	.loc 2 3612 0
	addi 3,30,164
.LVL1359:
	b .L1113
.LVL1360:
.L1104:
	.loc 2 3604 0
	addi 3,30,44
.LVL1361:
	b .L1113
.LVL1362:
.L1108:
	.loc 2 3609 0
	addi 3,30,116
.LVL1363:
	b .L1113
.LVL1364:
.L1101:
	.loc 2 3603 0
	addi 3,30,32
.LVL1365:
	b .L1113
.LVL1366:
.L1105:
	.loc 2 3608 0
	addi 3,30,92
.LVL1367:
	b .L1113
.LVL1368:
.L1107:
	.loc 2 3606 0
	addi 3,30,68
.LVL1369:
	b .L1113
.LVL1370:
.L1102:
	.loc 2 3605 0
	addi 3,30,56
.LVL1371:
	b .L1113
.LBE1510:
.LBE1525:
.LBE1527:
	.cfi_endproc
.LFE2615:
	.size	_Z12lwGetSurfaceP6idFilei, .-_Z12lwGetSurfaceP6idFilei
	.align 2
	.globl _Z3dotPfS_
	.type	_Z3dotPfS_, @function
_Z3dotPfS_:
.LFB2616:
	.loc 2 3884 0
	.cfi_startproc
.LVL1372:
	.loc 2 3885 0
	lfs 0,4(4)
	.loc 2 3886 0
	.loc 2 3885 0
	lfs 13,4(3)
	lfs 12,0(3)
	fmuls 13,13,0
	lfs 0,0(4)
	lfs 1,8(3)
	fmadds 0,12,0,13
	lfs 13,8(4)
	.loc 2 3886 0
	fmadds 1,1,13,0
	blr
	.cfi_endproc
.LFE2616:
	.size	_Z3dotPfS_, .-_Z3dotPfS_
	.align 2
	.globl _Z5crossPfS_S_
	.type	_Z5crossPfS_S_, @function
_Z5crossPfS_S_:
.LFB2617:
	.loc 2 3890 0
	.cfi_startproc
.LVL1373:
	.loc 2 3891 0
	lfs 0,4(4)
	.loc 2 3894 0
	.loc 2 3891 0
	lfs 13,8(3)
	lfs 12,4(3)
	fmuls 13,13,0
	lfs 0,8(4)
	fmsubs 0,12,0,13
	stfs 0,0(5)
	.loc 2 3892 0
	lfs 0,8(4)
	lfs 13,0(3)
	lfs 12,8(3)
	fmuls 13,13,0
	lfs 0,0(4)
	fmsubs 0,12,0,13
	stfs 0,4(5)
	.loc 2 3893 0
	lfs 0,0(4)
	lfs 13,4(3)
	lfs 12,0(3)
	fmuls 13,13,0
	lfs 0,4(4)
	fmsubs 0,12,0,13
	stfs 0,8(5)
	.loc 2 3894 0
	blr
	.cfi_endproc
.LFE2617:
	.size	_Z5crossPfS_S_, .-_Z5crossPfS_S_
	.align 2
	.globl _Z9normalizePf
	.type	_Z9normalizePf, @function
_Z9normalizePf:
.LFB2618:
	.loc 2 3898 0
	.cfi_startproc
.LVL1374:
.LBB1528:
.LBB1529:
.LBB1530:
	.loc 2 3885 0
	lfs 11,4(3)
	lfs 10,0(3)
	fmuls 0,11,11
	lfs 12,8(3)
.LBE1530:
.LBE1529:
.LBE1528:
	.loc 2 3898 0
	stwu 1,-16(1)
.LCFI208:
	.cfi_def_cfa_offset 16
.LBB1543:
.LBB1532:
.LBB1531:
	.loc 2 3885 0
	fmadds 0,10,10,0
	fmadds 0,12,12,0
	stfs 0,8(1)
.LVL1375:
.LBE1531:
.LBE1532:
.LBB1533:
.LBB1534:
.LBB1535:
.LBB1536:
	.loc 3 270 0
	lwz 0,8(1)
.LVL1376:
	.loc 3 276 0
	rlwinm 11,0,9,24,31
	rlwinm 9,0,19,21,29
	subfic 0,11,380
	lis 11,_ZN6idMath5iSqrtE@ha
	la 11,_ZN6idMath5iSqrtE@l(11)
	rlwinm 0,0,22,0,8
	lwzx 9,11,9
	.loc 3 275 0
	lis 11,.LC9@ha
	lfs 8,.LC9@l(11)
	.loc 3 276 0
	or 0,0,9
	.loc 3 278 0
	lis 9,.LC32@ha
	.loc 3 277 0
	stw 0,12(1)
	.loc 3 275 0
	fmuls 8,0,8
.LVL1377:
	.loc 3 278 0
	lfs 9,.LC32@l(9)
.LBE1536:
.LBE1535:
.LBE1534:
.LBE1533:
	.loc 2 3902 0
	lis 9,.LC12@ha
.LBB1542:
.LBB1541:
.LBB1539:
.LBB1537:
	.loc 3 277 0
	lfs 0,12(1)
.LVL1378:
	.loc 2 3897 0
	fneg 8,8
.LVL1379:
	.loc 3 277 0
	fmr 13,0
.LVL1380:
	.loc 3 278 0
	fmul 0,13,13
.LVL1381:
	fmadd 0,8,0,9
	fmul 0,13,0
.LVL1382:
	.loc 3 279 0
	fmul 13,0,0
	fmadd 9,8,13,9
.LVL1383:
.LBE1537:
.LBE1539:
	.loc 3 303 0
	lfs 13,8(1)
.LBB1540:
.LBB1538:
	.loc 3 279 0
	fmul 0,0,9
.LVL1384:
	.loc 3 280 0
	frsp 0,0
.LVL1385:
.LBE1538:
.LBE1540:
	.loc 3 303 0
	fmuls 0,13,0
.LBE1541:
.LBE1542:
	.loc 2 3902 0
	lfs 13,.LC12@l(9)
	fcmpu 7,0,13
	bng- 7,.L1131
	.loc 2 3903 0
	fdivs 10,10,0
	.loc 2 3904 0
	fdivs 11,11,0
	.loc 2 3903 0
	stfs 10,0(3)
	.loc 2 3905 0
	fdivs 0,12,0
	.loc 2 3904 0
	stfs 11,4(3)
	.loc 2 3905 0
	stfs 0,8(3)
.L1131:
.LBE1543:
	.loc 2 3907 0
	addi 1,1,16
.LCFI209:
	.cfi_def_cfa_offset 0
	blr
	.cfi_endproc
.LFE2618:
	.size	_Z9normalizePf, .-_Z9normalizePf
	.align 2
	.globl _Z16lwGetVertNormalsP14st_lwPointListP16st_lwPolygonList
	.type	_Z16lwGetVertNormalsP14st_lwPointListP16st_lwPolygonList, @function
_Z16lwGetVertNormalsP14st_lwPointListP16st_lwPolygonList:
.LFB2597:
	.loc 2 2734 0
	.cfi_startproc
.LVL1386:
	mflr 0
	stwu 1,-64(1)
.LCFI210:
	.cfi_def_cfa_offset 64
	.cfi_register 65, 0
	stw 26,32(1)
	mr 26,3
	.cfi_offset 26, -32
	stw 0,68(1)
.LBB1544:
	.loc 2 2738 0
	lwz 0,0(4)
	.cfi_offset 65, 4
.LBE1544:
	.loc 2 2734 0
	stw 28,40(1)
	mr 28,4
	.cfi_offset 28, -24
.LBB1557:
	.loc 2 2738 0
	cmpwi 7,0,0
.LBE1557:
	.loc 2 2734 0
	stfd 31,56(1)
	stw 20,8(1)
	stw 21,12(1)
	stw 22,16(1)
	stw 23,20(1)
	stw 24,24(1)
	stw 25,28(1)
	stw 27,36(1)
	stw 29,44(1)
	stw 30,48(1)
	stw 31,52(1)
.LBB1558:
	.loc 2 2738 0
	ble- 7,.L1135
	.cfi_offset 31, -12
	.cfi_offset 30, -16
	.cfi_offset 29, -20
	.cfi_offset 27, -28
	.cfi_offset 25, -36
	.cfi_offset 24, -40
	.cfi_offset 23, -44
	.cfi_offset 22, -48
	.cfi_offset 21, -52
	.cfi_offset 20, -56
	.cfi_offset 63, -8
	.loc 2 2743 0
	lis 9,.LC12@ha
	lwz 10,16(4)
	lfs 31,.LC12@l(9)
	.loc 2 2738 0
	li 30,0
	li 29,0
.LBB1545:
.LBB1546:
	.loc 3 545 0
	lis 24,.LC33@ha
	.loc 3 548 0
	lis 23,.LC0@ha
	.loc 3 546 0
	lis 25,_ZN6idMath2PIE@ha
.LVL1387:
.L1136:
.LBE1546:
.LBE1545:
	.loc 2 2739 0 discriminator 1
	add 9,10,30
	li 31,0
	lwz 11,32(9)
	li 27,0
	cmpwi 7,11,0
	ble- 7,.L1150
.LVL1388:
.L1157:
.LBE1558:
	.loc 2 2734 0
	li 10,0
.LVL1389:
.LBB1559:
	.loc 2 2741 0
	lwz 8,36(9)
	addi 0,10,4
	slwi 11,10,2
	slwi 0,0,2
	.loc 2 2740 0
	cmpwi 7,10,2
	.loc 2 2741 0
	add 9,9,0
	.loc 2 2740 0
	addi 10,10,1
.LVL1390:
	.loc 2 2741 0
	lwz 0,4(9)
	add 9,8,31
	add 9,9,11
	stw 0,4(9)
	.loc 2 2738 0
	lwz 11,16(28)
	.loc 2 2740 0
	beq- 7,.L1161
.LVL1391:
.L1138:
	add 9,11,30
.LVL1392:
	.loc 2 2741 0
	addi 0,10,4
	lwz 8,36(9)
	slwi 0,0,2
	add 9,9,0
	slwi 11,10,2
	lwz 0,4(9)
	.loc 2 2740 0
	cmpwi 7,10,2
	.loc 2 2741 0
	add 9,8,31
	.loc 2 2740 0
	addi 10,10,1
.LVL1393:
	.loc 2 2741 0
	add 9,9,11
	stw 0,4(9)
	.loc 2 2738 0
	lwz 11,16(28)
	.loc 2 2740 0
	bne+ 7,.L1138
.L1161:
	.loc 2 2743 0
	lwzx 9,11,30
	mr 10,11
.LVL1394:
	lfs 0,168(9)
	add 9,11,30
	fcmpu 7,0,31
	cror 30,28,30
	beq- 7,.L1139
	.loc 2 2745 0
	lwz 10,36(9)
	.loc 2 2747 0
	lwz 7,8(26)
	lwzx 20,10,31
	.loc 2 2745 0
	add 3,10,31
.LVL1395:
	.loc 2 2747 0
	mulli 20,20,28
	add 10,7,20
	lwz 0,12(10)
	cmpwi 7,0,0
	ble- 7,.L1140
	li 22,0
	b .L1148
.LVL1396:
.L1142:
	add 10,7,20
	addi 22,22,1
.LVL1397:
	lwz 0,12(10)
	cmpw 7,0,22
	ble- 7,.L1162
.LVL1398:
.L1148:
	.loc 2 2748 0
	lwz 10,16(10)
	slwi 0,22,2
	lwzx 0,10,0
.LVL1399:
	.loc 2 2749 0
	cmpw 7,0,29
	beq- 7,.L1142
	.loc 2 2751 0
	mulli 21,0,40
	lwz 8,8(9)
	add 10,11,21
	lwz 0,8(10)
.LVL1400:
	cmpw 7,8,0
	bne+ 7,.L1142
.LVL1401:
.LBB1550:
.LBB1551:
	.loc 2 3885 0
	lfs 0,24(10)
	lfs 13,24(9)
.LBE1551:
.LBE1550:
	lfs 12,20(9)
.LBB1553:
.LBB1552:
	fmuls 13,13,0
.LBE1552:
.LBE1553:
	lfs 0,20(10)
	lfs 1,28(9)
	fmadds 0,12,0,13
	lfs 12,28(10)
.LBB1554:
.LBB1547:
	.loc 3 545 0
	lfs 13,.LC33@l(24)
.LBE1547:
.LBE1554:
	.loc 2 3885 0
	fmadds 1,1,12,0
.LVL1402:
.LBB1555:
.LBB1548:
	.loc 3 546 0
	lfs 0,_ZN6idMath2PIE@l(25)
	.loc 3 545 0
	fcmpu 7,1,13
	cror 30,28,30
	beq- 7,.L1145
	.loc 3 548 0
	lfs 13,.LC0@l(23)
	.loc 3 549 0
	lis 10,.LC12@ha
.LVL1403:
	lfs 0,.LC12@l(10)
	.loc 3 548 0
	fcmpu 7,1,13
	cror 30,29,30
	bne- 7,.L1163
.LVL1404:
.L1145:
.LBE1548:
.LBE1555:
	.loc 2 2754 0
	lwz 10,0(9)
	lfs 13,168(10)
	li 10,0
	fcmpu 7,13,0
	bnl- 7,.L1147
	lwz 7,8(26)
	.loc 2 2747 0
	addi 22,22,1
.LVL1405:
	add 10,7,20
	lwz 0,12(10)
	cmpw 7,0,22
	bgt+ 7,.L1148
.LVL1406:
.L1162:
	lwz 3,36(9)
	add 3,3,31
.LVL1407:
.L1140:
	.loc 2 2760 0
	addi 3,3,4
	bl _Z9normalizePf
	lwz 10,16(28)
	add 9,10,30
.L1139:
	.loc 2 2739 0
	lwz 0,32(9)
	addi 27,27,1
.LVL1408:
	addi 31,31,24
	cmpw 7,0,27
	bgt+ 7,.L1157
	lwz 0,0(28)
.LVL1409:
.L1150:
	.loc 2 2738 0
	addi 29,29,1
.LVL1410:
	addi 30,30,40
	cmpw 7,0,29
	bgt+ 7,.L1136
.LVL1411:
.L1135:
.LBE1559:
	.loc 2 2763 0
	lwz 0,68(1)
	lwz 20,8(1)
	mtlr 0
	lwz 21,12(1)
	lwz 22,16(1)
	lwz 23,20(1)
	lwz 24,24(1)
	lwz 25,28(1)
	lwz 26,32(1)
.LVL1412:
	lwz 27,36(1)
	lwz 28,40(1)
.LVL1413:
	lwz 29,44(1)
	lwz 30,48(1)
	lwz 31,52(1)
	lfd 31,56(1)
	addi 1,1,64
	.cfi_remember_state
.LCFI211:
	.cfi_def_cfa_offset 0
	.cfi_restore 63
	.cfi_restore 31
	.cfi_restore 30
	.cfi_restore 29
	.cfi_restore 28
	.cfi_restore 27
	.cfi_restore 26
	.cfi_restore 25
	.cfi_restore 24
	.cfi_restore 23
	.cfi_restore 22
	.cfi_restore 21
	.cfi_restore 20
	blr
.LVL1414:
.L1147:
.LCFI212:
	.cfi_restore_state
.LBB1560:
	.loc 2 2757 0 discriminator 2
	lwz 9,36(9)
	addi 0,10,4
	slwi 8,10,2
	add 11,11,21
	add 9,9,31
	slwi 0,0,2
	add 9,9,8
	add 11,11,0
	lfs 0,4(11)
.LVL1415:
	.loc 2 2756 0 discriminator 2
	cmpwi 7,10,2
	.loc 2 2757 0 discriminator 2
	lfs 13,4(9)
	.loc 2 2756 0 discriminator 2
	addi 10,10,1
.LVL1416:
	.loc 2 2757 0 discriminator 2
	fadds 0,13,0
	stfs 0,4(9)
	.loc 2 2756 0 discriminator 2
	lwz 11,16(28)
	beq- 7,.L1146
.LVL1417:
.L1164:
	add 9,11,30
.LVL1418:
	.loc 2 2757 0
	addi 0,10,4
	lwz 9,36(9)
	slwi 8,10,2
	add 11,11,21
	slwi 0,0,2
	add 9,9,31
	add 11,11,0
	add 9,9,8
	lfs 0,4(11)
	lfs 13,4(9)
	.loc 2 2756 0
	cmpwi 7,10,2
	addi 10,10,1
.LVL1419:
	.loc 2 2757 0
	fadds 0,13,0
	stfs 0,4(9)
	.loc 2 2756 0
	lwz 11,16(28)
	bne+ 7,.L1164
.L1146:
	lwz 7,8(26)
	add 9,11,30
	b .L1142
.LVL1420:
.L1163:
.LBB1556:
.LBB1549:
	.loc 3 551 0
	bl acosf
.LVL1421:
	lwz 11,16(28)
	fmr 0,1
	add 9,11,30
	b .L1145
.LBE1549:
.LBE1556:
.LBE1560:
	.cfi_endproc
.LFE2597:
	.size	_Z16lwGetVertNormalsP14st_lwPointListP16st_lwPolygonList, .-_Z16lwGetVertNormalsP14st_lwPointListP16st_lwPolygonList
	.align 2
	.globl _Z16lwGetPolyNormalsP14st_lwPointListP16st_lwPolygonList
	.type	_Z16lwGetPolyNormalsP14st_lwPointListP16st_lwPolygonList, @function
_Z16lwGetPolyNormalsP14st_lwPointListP16st_lwPolygonList:
.LFB2594:
	.loc 2 2600 0
	.cfi_startproc
.LVL1422:
	mflr 0
	stwu 1,-96(1)
.LCFI213:
	.cfi_def_cfa_offset 96
	.cfi_register 65, 0
	stw 26,72(1)
	mr 26,3
	.cfi_offset 26, -24
	stw 29,84(1)
	mr 29,4
	.cfi_offset 29, -12
	stw 0,100(1)
	stw 27,76(1)
	stw 28,80(1)
	stw 30,88(1)
	stw 31,92(1)
.LBB1561:
	.loc 2 2604 0
	lwz 0,0(4)
	.cfi_offset 31, -4
	.cfi_offset 30, -8
	.cfi_offset 28, -16
	.cfi_offset 27, -20
	.cfi_offset 65, 4
	cmpwi 7,0,0
	ble- 7,.L1165
	li 31,0
	li 30,0
	addi 27,1,20
	addi 28,1,8
.LVL1423:
.L1170:
	.loc 2 2605 0
	lwz 5,16(29)
	add 5,5,31
	lwz 9,32(5)
	cmpwi 7,9,2
	ble- 7,.L1167
	addi 9,9,-1
	lwz 11,36(5)
	mulli 9,9,24
	lwz 0,8(26)
	lwz 12,0(11)
	addi 8,1,56
	lwzx 4,11,9
	addi 10,1,32
	lwz 3,24(11)
	mulli 12,12,28
	mulli 4,4,28
	li 9,0
	mulli 3,3,28
	add 12,0,12
	add 4,0,4
	addi 11,1,44
	add 3,0,3
.L1168:
	.loc 2 2606 0 discriminator 2
	cmpwi 7,9,8
	.loc 2 2609 0 discriminator 2
	lwzx 6,12,9
	.loc 2 2610 0 discriminator 2
	lwzx 7,3,9
	.loc 2 2611 0 discriminator 2
	lwzx 0,4,9
	.loc 2 2609 0 discriminator 2
	stwx 6,8,9
	.loc 2 2610 0 discriminator 2
	stwx 7,11,9
	.loc 2 2611 0 discriminator 2
	stwx 0,10,9
	.loc 2 2606 0 discriminator 2
	addi 9,9,4
	bne+ 7,.L1168
	.loc 2 2606 0 is_stmt 0
	li 9,0
.LVL1424:
.L1169:
	.loc 2 2615 0 is_stmt 1 discriminator 2
	lfsx 0,8,9
	.loc 2 2614 0 discriminator 2
	cmpwi 7,9,8
	.loc 2 2615 0 discriminator 2
	lfsx 13,11,9
	.loc 2 2616 0 discriminator 2
	lfsx 12,10,9
	.loc 2 2615 0 discriminator 2
	fsubs 13,13,0
	.loc 2 2616 0 discriminator 2
	fsubs 0,12,0
	.loc 2 2615 0 discriminator 2
	stfsx 13,27,9
	.loc 2 2616 0 discriminator 2
	stfsx 0,28,9
	.loc 2 2614 0 discriminator 2
	addi 9,9,4
	bne+ 7,.L1169
	.loc 2 2619 0
	mr 3,27
	mr 4,28
	addi 5,5,20
	bl _Z5crossPfS_S_
	.loc 2 2620 0
	lwz 3,16(29)
	add 3,3,31
	addi 3,3,20
	bl _Z9normalizePf
	lwz 0,0(29)
.L1167:
	.loc 2 2604 0
	addi 30,30,1
.LVL1425:
	addi 31,31,40
	cmpw 7,0,30
	bgt+ 7,.L1170
.LVL1426:
.L1165:
.LBE1561:
	.loc 2 2622 0
	lwz 0,100(1)
	lwz 26,72(1)
.LVL1427:
	mtlr 0
	lwz 27,76(1)
	lwz 28,80(1)
	lwz 29,84(1)
.LVL1428:
	lwz 30,88(1)
	lwz 31,92(1)
	addi 1,1,96
.LCFI214:
	.cfi_def_cfa_offset 0
	.cfi_restore 31
	.cfi_restore 30
	.cfi_restore 29
	.cfi_restore 28
	.cfi_restore 27
	.cfi_restore 26
	blr
	.cfi_endproc
.LFE2594:
	.size	_Z16lwGetPolyNormalsP14st_lwPointListP16st_lwPolygonList, .-_Z16lwGetPolyNormalsP14st_lwPointListP16st_lwPolygonList
	.align 2
	.globl _Z10lwFreeVMapP9st_lwVMap
	.type	_Z10lwFreeVMapP9st_lwVMap, @function
_Z10lwFreeVMapP9st_lwVMap:
.LFB2619:
	.loc 2 3917 0
	.cfi_startproc
.LVL1429:
	stwu 1,-16(1)
.LCFI215:
	.cfi_def_cfa_offset 16
	mflr 0
	stw 31,12(1)
	.loc 2 3918 0
	mr. 31,3
	.cfi_offset 31, -4
	.cfi_register 65, 0
	.loc 2 3917 0
	stw 0,20(1)
	.loc 2 3918 0
	beq- 0,.L1174
	.cfi_offset 65, 4
	.loc 2 3919 0
	lwz 3,8(31)
.LVL1430:
	cmpwi 7,3,0
	beq- 7,.L1176
	.loc 2 3919 0 is_stmt 0 discriminator 1
	bl _Z8Mem_FreePv
.L1176:
	.loc 2 3920 0 is_stmt 1
	lwz 3,28(31)
	cmpwi 7,3,0
	beq- 7,.L1177
	.loc 2 3920 0 is_stmt 0 discriminator 1
	bl _Z8Mem_FreePv
.L1177:
	.loc 2 3921 0 is_stmt 1
	lwz 3,32(31)
	cmpwi 7,3,0
	beq- 7,.L1178
	.loc 2 3921 0 is_stmt 0 discriminator 1
	bl _Z8Mem_FreePv
.L1178:
	.loc 2 3922 0 is_stmt 1
	lwz 3,36(31)
	cmpwi 7,3,0
	beq- 7,.L1179
	.loc 2 3923 0
	lwz 0,0(3)
	cmpwi 7,0,0
	beq- 7,.L1180
	.loc 2 3923 0 is_stmt 0 discriminator 1
	mr 3,0
	bl _Z8Mem_FreePv
	lwz 3,36(31)
.L1180:
	.loc 2 3924 0 is_stmt 1
	bl _Z8Mem_FreePv
.L1179:
	.loc 2 3926 0
	mr 3,31
	bl _Z8Mem_FreePv
.L1174:
	.loc 2 3928 0
	lwz 0,20(1)
	lwz 31,12(1)
.LVL1431:
	mtlr 0
	addi 1,1,16
.LCFI216:
	.cfi_def_cfa_offset 0
	.cfi_restore 31
	blr
	.cfi_endproc
.LFE2619:
	.size	_Z10lwFreeVMapP9st_lwVMap, .-_Z10lwFreeVMapP9st_lwVMap
	.align 2
	.globl _Z11lwFreeLayerP10st_lwLayer
	.type	_Z11lwFreeLayerP10st_lwLayer, @function
_Z11lwFreeLayerP10st_lwLayer:
.LFB2579:
	.loc 2 1393 0
	.cfi_startproc
.LVL1432:
	stwu 1,-16(1)
.LCFI217:
	.cfi_def_cfa_offset 16
	mflr 0
	stw 30,8(1)
	.loc 2 1394 0
	mr. 30,3
	.cfi_offset 30, -8
	.cfi_register 65, 0
	.loc 2 1393 0
	stw 0,20(1)
	stw 31,12(1)
	.loc 2 1394 0
	beq- 0,.L1181
	.cfi_offset 31, -4
	.cfi_offset 65, 4
	.loc 2 1395 0
	lwz 3,8(30)
.LVL1433:
	cmpwi 7,3,0
	beq- 7,.L1183
	.loc 2 1395 0 is_stmt 0 discriminator 1
	bl _Z8Mem_FreePv
.L1183:
	.loc 2 1396 0 is_stmt 1
	addi 3,30,60
	bl _Z12lwFreePointsP14st_lwPointList
	.loc 2 1397 0
	addi 3,30,72
	bl _Z14lwFreePolygonsP16st_lwPolygonList
	.loc 2 1398 0
	lwz 3,96(30)
.LVL1434:
.LBB1562:
.LBB1563:
	.loc 2 910 0
	cmpwi 7,3,0
	beq- 7,.L1184
.LVL1435:
.L1187:
	.loc 2 911 0
	lwz 31,0(3)
.LVL1436:
	.loc 2 912 0
	bl _Z10lwFreeVMapP9st_lwVMap
.LVL1437:
	.loc 2 910 0
	cmpwi 7,31,0
	.loc 2 913 0
	mr 3,31
	.loc 2 910 0
	bne+ 7,.L1187
.LVL1438:
.L1184:
.LBE1563:
.LBE1562:
	.loc 2 1399 0
	mr 3,30
.LVL1439:
	bl _Z8Mem_FreePv
.LVL1440:
.L1181:
	.loc 2 1401 0
	lwz 0,20(1)
	lwz 30,8(1)
.LVL1441:
	mtlr 0
	lwz 31,12(1)
	addi 1,1,16
.LCFI218:
	.cfi_def_cfa_offset 0
	.cfi_restore 31
	.cfi_restore 30
	blr
	.cfi_endproc
.LFE2579:
	.size	_Z11lwFreeLayerP10st_lwLayer, .-_Z11lwFreeLayerP10st_lwLayer
	.align 2
	.globl _Z12lwFreeObjectP11st_lwObject
	.type	_Z12lwFreeObjectP11st_lwObject, @function
_Z12lwFreeObjectP11st_lwObject:
.LFB2580:
	.loc 2 1412 0
	.cfi_startproc
.LVL1442:
	stwu 1,-16(1)
.LCFI219:
	.cfi_def_cfa_offset 16
	mflr 0
	stw 30,8(1)
	.loc 2 1413 0
	mr. 30,3
	.cfi_offset 30, -8
	.cfi_register 65, 0
	.loc 2 1412 0
	stw 0,20(1)
	stw 31,12(1)
	.loc 2 1413 0
	beq- 0,.L1188
	.cfi_offset 31, -4
	.cfi_offset 65, 4
	.loc 2 1414 0
	lwz 3,4(30)
.LVL1443:
.LBB1564:
.LBB1565:
	.loc 2 910 0
	cmpwi 7,3,0
	beq- 7,.L1190
.LVL1444:
.L1202:
	.loc 2 911 0
	lwz 31,0(3)
.LVL1445:
	.loc 2 912 0
	bl _Z11lwFreeLayerP10st_lwLayer
.LVL1446:
	.loc 2 910 0
	cmpwi 7,31,0
	.loc 2 913 0
	mr 3,31
	.loc 2 910 0
	bne+ 7,.L1202
.LVL1447:
.L1190:
.LBE1565:
.LBE1564:
	.loc 2 1415 0
	lwz 3,8(30)
.LVL1448:
.LBB1566:
.LBB1567:
	.loc 2 910 0
	cmpwi 7,3,0
	beq- 7,.L1192
.LVL1449:
.L1203:
	.loc 2 911 0
	lwz 31,0(3)
.LVL1450:
	.loc 2 912 0
	bl _Z14lwFreeEnvelopeP13st_lwEnvelope
.LVL1451:
	.loc 2 910 0
	cmpwi 7,31,0
	.loc 2 913 0
	mr 3,31
	.loc 2 910 0
	bne+ 7,.L1203
.LVL1452:
.L1192:
.LBE1567:
.LBE1566:
	.loc 2 1416 0
	lwz 3,12(30)
.LVL1453:
.LBB1568:
.LBB1569:
	.loc 2 910 0
	cmpwi 7,3,0
	beq- 7,.L1194
.LVL1454:
.L1204:
	.loc 2 911 0
	lwz 31,0(3)
.LVL1455:
	.loc 2 912 0
	bl _Z10lwFreeClipP9st_lwClip
.LVL1456:
	.loc 2 910 0
	cmpwi 7,31,0
	.loc 2 913 0
	mr 3,31
	.loc 2 910 0
	bne+ 7,.L1204
.LVL1457:
.L1194:
.LBE1569:
.LBE1568:
	.loc 2 1417 0
	lwz 3,16(30)
.LVL1458:
.LBB1570:
.LBB1571:
	.loc 2 910 0
	cmpwi 7,3,0
	beq- 7,.L1196
.LVL1459:
.L1205:
	.loc 2 911 0
	lwz 31,0(3)
.LVL1460:
	.loc 2 912 0
	bl _Z13lwFreeSurfaceP12st_lwSurface
.LVL1461:
	.loc 2 910 0
	cmpwi 7,31,0
	.loc 2 913 0
	mr 3,31
	.loc 2 910 0
	bne+ 7,.L1205
.LVL1462:
.L1196:
.LBE1571:
.LBE1570:
	.loc 2 1418 0
	addi 3,30,20
.LVL1463:
	bl _Z10lwFreeTagsP12st_lwTagList
	.loc 2 1419 0
	mr 3,30
	bl _Z8Mem_FreePv
.LVL1464:
.L1188:
	.loc 2 1421 0
	lwz 0,20(1)
	lwz 30,8(1)
.LVL1465:
	mtlr 0
	lwz 31,12(1)
	addi 1,1,16
.LCFI220:
	.cfi_def_cfa_offset 0
	.cfi_restore 31
	.cfi_restore 30
	blr
	.cfi_endproc
.LFE2580:
	.size	_Z12lwFreeObjectP11st_lwObject, .-_Z12lwFreeObjectP11st_lwObject
	.align 2
	.globl _Z12lwGetObject5PKcPjPi
	.type	_Z12lwGetObject5PKcPjPi, @function
_Z12lwGetObject5PKcPjPi:
.LFB2587:
	.loc 2 2220 0
	.cfi_startproc
.LVL1466:
	stwu 1,-80(1)
.LCFI221:
	.cfi_def_cfa_offset 80
	mflr 0
	mfcr 12
	mr 11,3
	stw 28,64(1)
.LBB1572:
	.loc 2 2234 0
	lis 28,fileSystem@ha
	.cfi_offset 28, -16
	.cfi_register 70, 12
	.cfi_register 65, 0
.LBE1572:
	.loc 2 2220 0
	stw 25,52(1)
.LBB1583:
	.loc 2 2234 0
	li 6,0
.LBE1583:
	.loc 2 2220 0
	stw 27,60(1)
	mr 25,4
	.cfi_offset 27, -20
	.cfi_offset 25, -28
	stw 30,72(1)
	mr 27,5
	stw 31,76(1)
.LBB1584:
	.loc 2 2234 0
	mr 4,11
.LVL1467:
.LBE1584:
	.loc 2 2220 0
	stw 0,84(1)
.LBB1585:
	.loc 2 2234 0
	li 5,1
.LVL1468:
.LBE1585:
	.loc 2 2220 0
	stw 16,16(1)
.LBB1586:
	.loc 2 2236 0
	li 30,0
	.cfi_offset 16, -64
	.cfi_offset 65, 4
	.cfi_offset 31, -4
	.cfi_offset 30, -8
.LBE1586:
	.loc 2 2220 0
	stw 17,20(1)
	stw 18,24(1)
	stw 19,28(1)
	stw 20,32(1)
	stw 21,36(1)
	stw 22,40(1)
	stw 23,44(1)
	stw 24,48(1)
	stw 26,56(1)
	stw 29,68(1)
	stw 12,12(1)
.LBB1587:
	.loc 2 2234 0
	lwz 9,fileSystem@l(28)
	lwz 10,0(9)
	mr 3,9
.LVL1469:
	lwz 0,112(10)
	mtctr 0
	.cfi_offset 70, -68
	.cfi_offset 29, -12
	.cfi_offset 26, -24
	.cfi_offset 24, -32
	.cfi_offset 23, -36
	.cfi_offset 22, -40
	.cfi_offset 21, -44
	.cfi_offset 20, -48
	.cfi_offset 19, -52
	.cfi_offset 18, -56
	.cfi_offset 17, -60
	bctrl
.LVL1470:
	.loc 2 2235 0
	cmpwi 4,3,0
	mr 31,3
	beq- 4,.L1207
.LVL1471:
.LBB1573:
.LBB1574:
	.loc 2 1002 0
	lis 29,.LANCHOR0@ha
	stw 30,.LANCHOR0@l(29)
.LBE1574:
.LBE1573:
	.loc 2 2240 0
	bl _Z5getU4P6idFile
.LVL1472:
	mr 24,3
.LVL1473:
	.loc 2 2241 0
	mr 3,31
.LVL1474:
	bl _Z5getU4P6idFile
	mr 26,3
.LVL1475:
	.loc 2 2242 0
	mr 3,31
.LVL1476:
	bl _Z5getU4P6idFile
.LVL1477:
	.loc 2 2243 0
	lwz 0,.LANCHOR0@l(29)
	cmpwi 7,0,12
	bne- 7,.L1235
	.loc 2 2250 0
	xoris 0,24,0x464f
	cmpwi 7,0,21069
	beq 7,.L1236
.L1209:
	.loc 2 2251 0
	lwz 3,fileSystem@l(28)
.LVL1478:
	mr 4,31
	.loc 2 2253 0
	li 30,0
	.loc 2 2251 0
	lwz 9,0(3)
	lwz 0,136(9)
	mtctr 0
	bctrl
	.loc 2 2252 0
	cmpwi 7,27,0
	beq- 7,.L1207
	.loc 2 2252 0 is_stmt 0 discriminator 1
	li 0,12
	stw 0,0(27)
.LVL1479:
.L1207:
.LBE1587:
	.loc 2 2339 0 is_stmt 1
	lwz 0,84(1)
	mr 3,30
	lwz 12,12(1)
	mtlr 0
	lwz 16,16(1)
	lwz 17,20(1)
	mtcrf 8,12
	lwz 18,24(1)
	lwz 19,28(1)
	lwz 20,32(1)
	lwz 21,36(1)
	lwz 22,40(1)
	lwz 23,44(1)
	lwz 24,48(1)
	lwz 25,52(1)
.LVL1480:
	lwz 26,56(1)
	lwz 27,60(1)
.LVL1481:
	lwz 28,64(1)
	lwz 29,68(1)
	lwz 30,72(1)
	lwz 31,76(1)
	addi 1,1,80
	.cfi_remember_state
.LCFI222:
	.cfi_def_cfa_offset 0
	.cfi_restore 70
	.cfi_restore 31
	.cfi_restore 30
	.cfi_restore 29
	.cfi_restore 28
	.cfi_restore 27
	.cfi_restore 26
	.cfi_restore 25
	.cfi_restore 24
	.cfi_restore 23
	.cfi_restore 22
	.cfi_restore 21
	.cfi_restore 20
	.cfi_restore 19
	.cfi_restore 18
	.cfi_restore 17
	.cfi_restore 16
	blr
.LVL1482:
.L1236:
.LCFI223:
	.cfi_restore_state
.LBB1588:
	.loc 2 2250 0 discriminator 1
	xoris 0,3,0x4c57
	cmpwi 7,0,20290
	bne 7,.L1209
	.loc 2 2258 0
	li 3,48
.LVL1483:
	bl _Z16Mem_ClearedAlloci
.LVL1484:
	.loc 2 2259 0
	mr. 30,3
	beq- 0,.L1211
	.loc 2 2261 0
	li 3,100
.LVL1485:
	bl _Z16Mem_ClearedAlloci
.LVL1486:
	.loc 2 2262 0
	mr. 22,3
	beq- 0,.L1211
	.loc 2 2264 0
	li 0,1
	.loc 2 2263 0
	stw 22,4(30)
	.loc 2 2264 0
	stw 0,32(30)
	.loc 2 2268 0
	mr 3,31
.LVL1487:
	bl _Z5getU4P6idFile
	mr 24,3
.LVL1488:
	.loc 2 2269 0
	mr 3,31
.LVL1489:
	bl _Z5getU4P6idFile
.LVL1490:
	.loc 2 2270 0
	lwz 0,.LANCHOR0@l(29)
	cmpwi 7,0,0
	blt- 7,.L1211
	.loc 2 2277 0
	lis 23,0x504f
	lis 20,0x5352
	lis 19,0x5355
	lis 21,0x504e
	ori 23,23,19539
	.loc 2 2286 0
	addi 16,22,72
	.loc 2 2277 0
	ori 20,20,18003
	.loc 2 2291 0
	addi 17,30,20
	.loc 2 2277 0
	ori 19,19,21062
	ori 21,21,21587
	.loc 2 2280 0
	addi 18,22,60
	b .L1223
.LVL1491:
.L1238:
	.loc 2 2277 0
	cmpw 7,24,21
	beq- 7,.L1237
.L1212:
	.loc 2 2303 0
	lwz 9,0(31)
	mr 3,31
	li 5,0
	lwz 0,48(9)
	mtctr 0
	bctrl
.LVL1492:
.L1218:
	.loc 2 2309 0
	lwz 9,0(31)
	mr 3,31
	lwz 0,36(9)
	mtctr 0
	bctrl
	addi 3,3,-7
	cmpw 7,26,3
	blt- 7,.L1222
.LVL1493:
.LBB1575:
.LBB1576:
	.loc 2 1002 0
	li 0,0
.LBE1576:
.LBE1575:
	.loc 2 2314 0
	mr 3,31
.LBB1578:
.LBB1577:
	.loc 2 1002 0
	stw 0,.LANCHOR0@l(29)
.LBE1577:
.LBE1578:
	.loc 2 2314 0
	bl _Z5getU4P6idFile
	mr 24,3
.LVL1494:
	.loc 2 2315 0
	mr 3,31
.LVL1495:
	bl _Z5getU4P6idFile
.LVL1496:
	.loc 2 2316 0
	lwz 0,.LANCHOR0@l(29)
	cmpwi 7,0,8
	bne- 7,.L1211
.LVL1497:
.L1223:
	.loc 2 2277 0
	cmpw 7,24,23
	.loc 2 2275 0
	rlwinm 4,3,0,31,31
	add 4,4,3
.LVL1498:
	.loc 2 2277 0
	beq- 7,.L1214
	ble- 7,.L1238
	cmpw 7,24,20
	beq- 7,.L1215
	cmpw 7,24,19
	bne+ 7,.L1212
	.loc 2 2296 0
	mr 3,31
	mr 5,30
	bl _Z13lwGetSurface5P6idFileiP11st_lwObject
.LVL1499:
	.loc 2 2297 0
	cmpwi 0,3,0
	beq- 0,.L1211
.LVL1500:
.LBB1579:
.LBB1580:
	.loc 2 929 0
	lwz 9,16(30)
.LVL1501:
	.loc 2 930 0
	cmpwi 7,9,0
	bne+ 7,.L1234
	b .L1240
.LVL1502:
.L1231:
	.loc 2 936 0
	mr 9,0
.LVL1503:
.L1234:
	lwz 0,0(9)
.LVL1504:
	.loc 2 934 0
	cmpwi 7,0,0
	bne+ 7,.L1231
	.loc 2 938 0
	stw 3,0(9)
	.loc 2 939 0
	stw 9,4(3)
.LVL1505:
.L1220:
.LBE1580:
.LBE1579:
	.loc 2 2299 0
	lwz 9,44(30)
	addi 0,9,1
	stw 0,44(30)
	.loc 2 2300 0
	b .L1218
.LVL1506:
.L1233:
	.loc 2 2320 0
	li 31,0
.LVL1507:
.L1211:
	.loc 2 2332 0
	cmpwi 7,25,0
	beq- 7,.L1224
	.loc 2 2332 0 is_stmt 0 discriminator 1
	stw 24,0(25)
.L1224:
	.loc 2 2333 0 is_stmt 1
	beq- 4,.L1225
	.loc 2 2334 0
	cmpwi 7,27,0
	beq- 7,.L1226
	.loc 2 2334 0 is_stmt 0 discriminator 1
	lwz 9,0(31)
	mr 3,31
	lwz 0,36(9)
	mtctr 0
	bctrl
	stw 3,0(27)
.L1226:
	.loc 2 2335 0 is_stmt 1
	lwz 3,fileSystem@l(28)
	mr 4,31
	lwz 9,0(3)
	lwz 0,136(9)
	mtctr 0
	bctrl
.L1225:
	.loc 2 2337 0
	mr 3,30
	.loc 2 2338 0
	li 30,0
.LVL1508:
	.loc 2 2337 0
	bl _Z12lwFreeObjectP11st_lwObject
.LVL1509:
	.loc 2 2338 0
	b .L1207
.LVL1510:
.L1235:
	.loc 2 2244 0
	lwz 3,fileSystem@l(28)
.LVL1511:
	mr 4,31
	lwz 9,0(3)
	lwz 0,136(9)
	mtctr 0
	bctrl
	.loc 2 2245 0
	b .L1207
.LVL1512:
.L1214:
	.loc 2 2286 0
	lwz 6,64(22)
	mr 3,31
	mr 5,16
	bl _Z14lwGetPolygons5P6idFileiP16st_lwPolygonListi
.LVL1513:
	.loc 2 2285 0
	cmpwi 7,3,0
	bne+ 7,.L1218
	b .L1211
.LVL1514:
.L1237:
	.loc 2 2280 0
	mr 3,31
	mr 5,18
	bl _Z11lwGetPointsP6idFileiP14st_lwPointList
.LVL1515:
	cmpwi 7,3,0
	bne+ 7,.L1218
	b .L1211
.LVL1516:
.L1215:
	.loc 2 2291 0
	mr 3,31
	mr 5,17
	bl _Z9lwGetTagsP6idFileiP12st_lwTagList
.LVL1517:
	cmpwi 7,3,0
	bne+ 7,.L1218
	b .L1211
.LVL1518:
.L1240:
.LBB1582:
.LBB1581:
	.loc 2 931 0
	stw 3,16(30)
	b .L1220
.LVL1519:
.L1222:
.LBE1581:
.LBE1582:
	.loc 2 2319 0
	lwz 3,fileSystem@l(28)
	mr 4,31
	.loc 2 2322 0
	addi 31,22,60
.LVL1520:
	.loc 2 2323 0
	addi 29,22,72
	.loc 2 2319 0
	lwz 9,0(3)
	lwz 0,136(9)
	mtctr 0
	bctrl
.LVL1521:
	.loc 2 2322 0
	mr 3,31
	addi 4,22,36
	bl _Z16lwGetBoundingBoxP14st_lwPointListPf
	.loc 2 2323 0
	mr 3,31
	mr 4,29
	bl _Z16lwGetPolyNormalsP14st_lwPointListP16st_lwPolygonList
	.loc 2 2324 0
	mr 3,31
	mr 4,29
	bl _Z18lwGetPointPolygonsP14st_lwPointListP16st_lwPolygonList
	cmpwi 4,3,0
	beq- 4,.L1233
	.loc 2 2326 0
	mr 3,29
	addi 4,30,20
	addi 5,30,16
	addi 6,30,44
	bl _Z21lwResolvePolySurfacesP16st_lwPolygonListP12st_lwTagListPP12st_lwSurfacePi
	.loc 2 2325 0
	cmpwi 4,3,0
	beq- 4,.L1233
	.loc 2 2327 0
	mr 3,31
	mr 4,29
	bl _Z16lwGetVertNormalsP14st_lwPointListP16st_lwPolygonList
	.loc 2 2329 0
	b .L1207
.LBE1588:
	.cfi_endproc
.LFE2587:
	.size	_Z12lwGetObject5PKcPjPi, .-_Z12lwGetObject5PKcPjPi
	.align 2
	.globl _Z9lwGetVMapP6idFileiiii
	.type	_Z9lwGetVMapP6idFileiiii, @function
_Z9lwGetVMapP6idFileiiii:
.LFB2620:
	.loc 2 3940 0
	.cfi_startproc
.LVL1522:
	stwu 1,-64(1)
.LCFI224:
	.cfi_def_cfa_offset 64
	mflr 0
	mfcr 12
	stw 30,56(1)
.LBB1589:
.LBB1590:
.LBB1591:
	.loc 2 1002 0
	li 30,0
	.cfi_offset 30, -8
	.cfi_register 70, 12
	.cfi_register 65, 0
.LBE1591:
.LBE1590:
.LBE1589:
	.loc 2 3940 0
	stw 31,60(1)
.LBB1604:
.LBB1594:
.LBB1592:
	.loc 2 1002 0
	lis 31,.LANCHOR0@ha
	.cfi_offset 31, -4
.LBE1592:
.LBE1594:
.LBE1604:
	.loc 2 3940 0
	stw 23,28(1)
	stw 27,44(1)
.LBB1605:
	.loc 2 3951 0
	li 27,0
	.cfi_offset 27, -20
	.cfi_offset 23, -36
.LBE1605:
	.loc 2 3940 0
	stw 28,48(1)
	mr 28,7
	.cfi_offset 28, -16
	stw 29,52(1)
	mr 29,4
	.cfi_offset 29, -12
	stw 0,68(1)
	stw 24,32(1)
	stw 25,36(1)
	stw 26,40(1)
	stw 12,24(1)
.LBB1606:
.LBB1595:
.LBB1593:
	.loc 2 1002 0
	stw 30,.LANCHOR0@l(31)
.LBE1593:
.LBE1595:
	.loc 2 3950 0
	.cfi_offset 70, -40
	.cfi_offset 26, -24
	.cfi_offset 25, -28
	.cfi_offset 24, -32
	.cfi_offset 65, 4
	bl _Z8getbytesP6idFilei
.LVL1523:
	.loc 2 3951 0
	mr. 23,3
	beq- 0,.L1242
	.loc 2 3953 0
	li 3,44
.LVL1524:
	bl _Z16Mem_ClearedAlloci
.LVL1525:
	.loc 2 3954 0
	mr. 27,3
	beq- 0,.L1255
	.loc 2 3963 0
	mr 26,1
	.loc 2 3961 0
	stw 28,24(27)
	.loc 2 3963 0
	stwu 23,8(26)
.LVL1526:
.LBB1596:
.LBB1597:
	.loc 2 1002 0
	stw 30,.LANCHOR0@l(31)
.LBE1597:
.LBE1596:
	.loc 2 3965 0
	mr 3,26
.LVL1527:
	bl _Z6sgetU4PPh
.LBB1598:
.LBB1599:
	.loc 2 1299 0
	lwz 9,.LANCHOR0@l(31)
.LBE1599:
.LBE1598:
	.loc 2 3965 0
	stw 3,12(27)
.LVL1528:
.LBB1601:
.LBB1600:
	.loc 2 1299 0
	li 0,0
	cmpwi 7,9,-9999
	.loc 2 1296 0
	lwz 11,8(1)
.LVL1529:
	.loc 2 1299 0
	beq- 7,.L1244
	.loc 2 1300 0
	lbz 10,0(11)
	.loc 2 1301 0
	addi 9,9,2
	.loc 2 1300 0
	lbz 0,1(11)
	.loc 2 1302 0
	addi 11,11,2
	.loc 2 1300 0
	slwi 10,10,8
.LVL1530:
	.loc 2 1301 0
	stw 9,.LANCHOR0@l(31)
	.loc 2 1302 0
	stw 11,8(1)
.LVL1531:
	or 0,10,0
.LVL1532:
.L1244:
.LBE1600:
.LBE1601:
	.loc 2 3966 0
	stw 0,16(27)
	.loc 2 3967 0
	mr 3,26
	.loc 2 3973 0
	add 29,23,29
.LVL1533:
	.loc 2 3972 0
	li 24,0
	.loc 2 3967 0
	bl _Z6sgetS0PPh
.LVL1534:
	.loc 2 3973 0
	lwz 0,8(1)
.LBB1602:
.LBB1603:
	.loc 2 1004 0
	lwz 30,.LANCHOR0@l(31)
.LVL1535:
.LBE1603:
.LBE1602:
	.loc 2 3973 0
	li 31,0
	cmplw 7,29,0
	.loc 2 3967 0
	stw 3,8(27)
	.loc 2 3973 0
	ble- 7,.L1245
	cmpwi 4,28,0
	b .L1247
.LVL1536:
.L1246:
	.loc 2 3977 0
	lwz 0,16(27)
	.loc 2 3978 0
	addi 24,24,1
.LVL1537:
	.loc 2 3977 0
	lwz 9,8(1)
	slwi 0,0,2
	add 0,9,0
.LVL1538:
	.loc 2 3973 0
	cmplw 7,0,29
.LVL1539:
	.loc 2 3977 0
	stw 0,8(1)
	.loc 2 3973 0
	bge- 7,.L1268
.LVL1540:
.L1247:
	.loc 2 3974 0
	mr 3,26
	bl _Z6sgetVXPPh
.LVL1541:
	.loc 2 3975 0
	beq+ 4,.L1246
	.loc 2 3976 0
	mr 3,26
	.loc 2 3978 0
	addi 24,24,1
	.loc 2 3976 0
	bl _Z6sgetVXPPh
.LVL1542:
	.loc 2 3977 0
	lwz 0,16(27)
	lwz 9,8(1)
	slwi 0,0,2
	add 0,9,0
.LVL1543:
	.loc 2 3973 0
	cmplw 7,0,29
.LVL1544:
	.loc 2 3977 0
	stw 0,8(1)
	.loc 2 3973 0
	blt+ 7,.L1247
.L1268:
	slwi 31,24,2
.LVL1545:
.L1245:
	.loc 2 3983 0
	stw 24,20(27)
	.loc 2 3984 0
	mr 3,31
	bl _Z16Mem_ClearedAlloci
.LVL1546:
	.loc 2 3985 0
	cmpwi 7,3,0
	.loc 2 3984 0
	stw 3,28(27)
	.loc 2 3985 0
	beq- 7,.L1248
	.loc 2 3986 0
	cmpwi 4,28,0
	bne- 4,.L1269
.L1249:
	.loc 2 3991 0
	lwz 0,16(27)
	cmpwi 7,0,0
	ble- 7,.L1250
	.loc 2 3992 0
	mr 3,31
	bl _Z16Mem_ClearedAlloci
	.loc 2 3993 0
	cmpwi 7,3,0
	.loc 2 3992 0
	stw 3,36(27)
	.loc 2 3993 0
	beq- 7,.L1248
	.loc 2 3994 0
	lwz 3,16(27)
	mullw 3,24,3
	slwi 3,3,2
	bl _Z16Mem_ClearedAlloci
.LVL1547:
	.loc 2 3995 0
	cmpwi 0,3,0
	beq- 0,.L1248
.LVL1548:
	.loc 2 3996 0 discriminator 1
	cmpwi 7,24,0
	beq- 7,.L1251
	.loc 2 3996 0 is_stmt 0
	lwz 0,16(27)
	li 9,0
	mtctr 24
	b .L1253
.LVL1549:
.L1270:
	lwz 0,16(27)
.LVL1550:
.L1253:
	.loc 2 3997 0 is_stmt 1 discriminator 2
	mullw 0,9,0
	lwz 10,36(27)
	slwi 11,9,2
	.loc 2 3996 0 discriminator 2
	addi 9,9,1
.LVL1551:
	.loc 2 3997 0 discriminator 2
	slwi 0,0,2
	add 0,3,0
	stwx 0,10,11
	.loc 2 3996 0 discriminator 2
	bdnz .L1270
	.loc 2 4002 0
	add 30,23,30
	stw 30,8(1)
.LVL1552:
.L1254:
	.loc 2 3996 0
	li 25,0
.LVL1553:
.L1259:
	.loc 2 4004 0
	lwz 31,28(27)
	mr 3,26
	.loc 2 3938 0
	slwi 28,25,2
	.loc 2 4004 0
	bl _Z6sgetVXPPh
	stwx 3,31,28
	.loc 2 4005 0
	bne- 4,.L1271
.L1256:
.LVL1554:
	.loc 2 4007 0 discriminator 1
	lwz 0,16(27)
	cmpwi 7,0,0
	ble- 7,.L1257
	.loc 2 4007 0 is_stmt 0
	li 31,0
.LVL1555:
.L1258:
	.loc 2 4008 0 is_stmt 1 discriminator 2
	lwz 9,36(27)
	mr 3,26
	.loc 2 3938 0 discriminator 2
	slwi 30,31,2
	.loc 2 4007 0 discriminator 2
	addi 31,31,1
	.loc 2 4008 0 discriminator 2
	lwzx 29,9,28
	bl _Z6sgetF4PPh
.LVL1556:
	stfsx 1,29,30
	.loc 2 4007 0 discriminator 2
	lwz 0,16(27)
	cmpw 7,0,31
	bgt+ 7,.L1258
.LVL1557:
.L1257:
	.loc 2 4003 0
	addi 25,25,1
.LVL1558:
	cmpw 7,24,25
	bgt+ 7,.L1259
.LVL1559:
.L1255:
	.loc 2 4011 0
	mr 3,23
	bl _Z8Mem_FreePv
.LVL1560:
.L1242:
.LBE1606:
	.loc 2 4018 0
	lwz 0,68(1)
	mr 3,27
	lwz 12,24(1)
	mtlr 0
	lwz 23,28(1)
.LVL1561:
	lwz 24,32(1)
	mtcrf 8,12
	lwz 25,36(1)
	lwz 26,40(1)
	lwz 27,44(1)
	lwz 28,48(1)
	lwz 29,52(1)
	lwz 30,56(1)
	lwz 31,60(1)
	addi 1,1,64
	.cfi_remember_state
.LCFI225:
	.cfi_def_cfa_offset 0
	.cfi_restore 70
	.cfi_restore 31
	.cfi_restore 30
	.cfi_restore 29
	.cfi_restore 28
	.cfi_restore 27
	.cfi_restore 26
	.cfi_restore 25
	.cfi_restore 24
	.cfi_restore 23
	blr
.LVL1562:
.L1250:
.LCFI226:
	.cfi_restore_state
.LBB1607:
	.loc 2 4003 0
	cmpwi 7,24,0
	.loc 2 4002 0
	add 30,23,30
	stw 30,8(1)
.LVL1563:
	.loc 2 4003 0
	bne+ 7,.L1254
	b .L1255
.LVL1564:
.L1271:
	.loc 2 4006 0
	lwz 31,32(27)
	mr 3,26
	bl _Z6sgetVXPPh
	stwx 3,31,28
	b .L1256
.LVL1565:
.L1269:
	.loc 2 3987 0
	mr 3,31
	bl _Z16Mem_ClearedAlloci
	.loc 2 3988 0
	cmpwi 7,3,0
	.loc 2 3987 0
	stw 3,32(27)
	.loc 2 3988 0
	bne+ 7,.L1249
.L1248:
	.loc 2 4015 0
	mr 3,23
	bl _Z8Mem_FreePv
	.loc 2 4016 0
	mr 3,27
	bl _Z10lwFreeVMapP9st_lwVMap
	.loc 2 4017 0
	li 27,0
.LVL1566:
	b .L1242
.LVL1567:
.L1251:
	.loc 2 4002 0
	add 30,23,30
	stw 30,8(1)
	b .L1255
.LBE1607:
	.cfi_endproc
.LFE2620:
	.size	_Z9lwGetVMapP6idFileiiii, .-_Z9lwGetVMapP6idFileiiii
	.align 2
	.globl _Z15lwGetPointVMapsP14st_lwPointListP9st_lwVMap
	.type	_Z15lwGetPointVMapsP14st_lwPointListP9st_lwVMap, @function
_Z15lwGetPointVMapsP14st_lwPointListP9st_lwVMap:
.LFB2621:
	.loc 2 4029 0
	.cfi_startproc
.LVL1568:
	mfcr 12
.LBB1608:
	.loc 2 4036 0
	cmpwi 4,4,0
.LBE1608:
	.loc 2 4029 0
	mflr 0
	stwu 1,-40(1)
.LCFI227:
	.cfi_def_cfa_offset 40
	.cfi_register 65, 0
	.cfi_register 70, 12
	stw 26,16(1)
.LBB1609:
	.loc 2 4036 0
	mr 26,4
	.cfi_offset 26, -24
.LBE1609:
	.loc 2 4029 0
	stw 31,36(1)
	mr 31,3
	.cfi_offset 31, -4
	stw 0,44(1)
	stw 27,20(1)
	stw 28,24(1)
	stw 29,28(1)
	stw 30,32(1)
	stw 12,12(1)
.LBB1610:
	.loc 2 4036 0
	beq- 4,.L1273
	.cfi_offset 70, -28
	.cfi_offset 30, -8
	.cfi_offset 29, -12
	.cfi_offset 28, -16
	.cfi_offset 27, -20
	.cfi_offset 65, 4
	mr 10,4
.LVL1569:
.L1276:
	.loc 2 4037 0
	lwz 0,24(10)
	cmpwi 7,0,0
	bne- 7,.L1274
.LVL1570:
	.loc 2 4038 0 discriminator 1
	lwz 0,20(10)
	cmpwi 7,0,0
	ble- 7,.L1274
	.loc 2 4038 0 is_stmt 0
	li 9,0
.LVL1571:
.L1275:
	.loc 2 4039 0 is_stmt 1 discriminator 2
	lwz 11,28(10)
	slwi 0,9,2
	.loc 2 4038 0 discriminator 2
	addi 9,9,1
.LVL1572:
	.loc 2 4039 0 discriminator 2
	lwzx 11,11,0
	lwz 0,8(31)
	mulli 11,11,28
	add 11,0,11
	lwz 8,20(11)
	addi 0,8,1
	stw 0,20(11)
	.loc 2 4038 0 discriminator 2
	lwz 0,20(10)
	cmpw 7,0,9
	bgt+ 7,.L1275
.LVL1573:
.L1274:
	.loc 2 4040 0
	lwz 10,0(10)
.LVL1574:
	.loc 2 4036 0
	cmpwi 7,10,0
	bne+ 7,.L1276
.LVL1575:
.L1273:
	.loc 2 4045 0 discriminator 1
	lwz 0,0(31)
	cmpwi 7,0,0
	ble- 7,.L1277
	.loc 2 4045 0 is_stmt 0
	li 30,0
	li 29,0
	.loc 2 4049 0 is_stmt 1
	li 27,0
	b .L1280
.LVL1576:
.L1278:
	.loc 2 4045 0
	cmpw 7,0,29
	addi 30,30,28
	ble- 7,.L1277
.LVL1577:
.L1280:
	.loc 2 4046 0
	lwz 28,8(31)
	.loc 2 4045 0
	addi 29,29,1
	.loc 2 4046 0
	add 28,28,30
	lwz 3,20(28)
	cmpwi 7,3,0
	beq+ 7,.L1278
	.loc 2 4047 0
	slwi 3,3,3
	bl _Z16Mem_ClearedAlloci
	stw 3,24(28)
	.loc 2 4048 0
	lwz 9,8(31)
	add 9,9,30
	lwz 0,24(9)
	cmpwi 7,0,0
	beq- 7,.L1284
	.loc 2 4049 0
	stw 27,20(9)
	.loc 2 4045 0
	addi 30,30,28
	lwz 0,0(31)
.LVL1578:
	cmpw 7,0,29
	bgt+ 7,.L1280
.LVL1579:
.L1277:
	.loc 2 4056 0 discriminator 1
	beq- 4,.L1285
.LVL1580:
.L1283:
	.loc 2 4057 0
	lwz 0,24(26)
	cmpwi 7,0,0
	bne- 7,.L1281
.LVL1581:
	.loc 2 4058 0 discriminator 1
	lwz 0,20(26)
	cmpwi 7,0,0
	ble- 7,.L1281
	.loc 2 4058 0 is_stmt 0
	li 9,0
.LVL1582:
.L1282:
	.loc 2 4059 0 is_stmt 1 discriminator 2
	lwz 11,28(26)
	slwi 0,9,2
	.loc 2 4060 0 discriminator 2
	lwz 10,8(31)
	lwzx 0,11,0
	mulli 0,0,28
	add 10,10,0
.LVL1583:
	.loc 2 4061 0 discriminator 2
	lwz 11,20(10)
	lwz 10,24(10)
.LVL1584:
	slwi 11,11,3
.LVL1585:
	stwx 26,10,11
	.loc 2 4062 0 discriminator 2
	lwz 10,8(31)
	add 10,10,0
	lwz 10,24(10)
	add 11,10,11
	stw 9,4(11)
	.loc 2 4058 0 discriminator 2
	addi 9,9,1
.LVL1586:
	.loc 2 4063 0 discriminator 2
	lwz 11,8(31)
.LVL1587:
	add 11,11,0
	lwz 10,20(11)
	addi 0,10,1
	stw 0,20(11)
	.loc 2 4058 0 discriminator 2
	lwz 0,20(26)
	cmpw 7,0,9
	bgt+ 7,.L1282
.LVL1588:
.L1281:
	.loc 2 4066 0
	lwz 26,0(26)
.LVL1589:
	.loc 2 4056 0
	cmpwi 7,26,0
	bne+ 7,.L1283
.L1285:
.LBE1610:
	.loc 2 4070 0
	lwz 0,44(1)
.LBB1611:
	.loc 2 4069 0
	li 3,1
.LBE1611:
	.loc 2 4070 0
	lwz 12,12(1)
	mtlr 0
	lwz 26,16(1)
.LVL1590:
	lwz 27,20(1)
	mtcrf 8,12
	lwz 28,24(1)
	lwz 29,28(1)
	lwz 30,32(1)
	lwz 31,36(1)
.LVL1591:
	addi 1,1,40
	.cfi_remember_state
.LCFI228:
	.cfi_def_cfa_offset 0
	.cfi_restore 70
	.cfi_restore 31
	.cfi_restore 30
	.cfi_restore 29
	.cfi_restore 28
	.cfi_restore 27
	.cfi_restore 26
	blr
.LVL1592:
.L1284:
.LCFI229:
	.cfi_restore_state
	lwz 0,44(1)
.LBB1612:
	.loc 2 4048 0
	li 3,0
.LBE1612:
	.loc 2 4070 0
	lwz 12,12(1)
	mtlr 0
	lwz 26,16(1)
.LVL1593:
	lwz 27,20(1)
	mtcrf 8,12
	lwz 28,24(1)
	lwz 29,28(1)
	lwz 30,32(1)
	lwz 31,36(1)
.LVL1594:
	addi 1,1,40
	.cfi_restore 26
	.cfi_restore 27
	.cfi_restore 28
	.cfi_restore 29
	.cfi_restore 30
	.cfi_restore 31
	.cfi_restore 70
.LCFI230:
	.cfi_def_cfa_offset 0
	blr
	.cfi_endproc
.LFE2621:
	.size	_Z15lwGetPointVMapsP14st_lwPointListP9st_lwVMap, .-_Z15lwGetPointVMapsP14st_lwPointListP9st_lwVMap
	.align 2
	.globl _Z14lwGetPolyVMapsP16st_lwPolygonListP9st_lwVMap
	.type	_Z14lwGetPolyVMapsP16st_lwPolygonListP9st_lwVMap, @function
_Z14lwGetPolyVMapsP16st_lwPolygonListP9st_lwVMap:
.LFB2622:
	.loc 2 4081 0
	.cfi_startproc
.LVL1595:
	mfcr 12
.LBB1613:
	.loc 2 4089 0
	cmpwi 4,4,0
.LBE1613:
	.loc 2 4081 0
	mflr 0
	stwu 1,-48(1)
.LCFI231:
	.cfi_def_cfa_offset 48
	.cfi_register 65, 0
	.cfi_register 70, 12
	stw 24,16(1)
.LBB1614:
	.loc 2 4089 0
	mr 24,4
	.cfi_offset 24, -32
.LBE1614:
	.loc 2 4081 0
	stw 28,32(1)
	mr 28,3
	.cfi_offset 28, -16
	stw 0,52(1)
	stw 25,20(1)
	stw 26,24(1)
	stw 27,28(1)
	stw 29,36(1)
	stw 30,40(1)
	stw 31,44(1)
	stw 12,12(1)
.LBB1615:
	.loc 2 4089 0
	beq- 4,.L1292
	.cfi_offset 70, -36
	.cfi_offset 31, -4
	.cfi_offset 30, -8
	.cfi_offset 29, -12
	.cfi_offset 27, -20
	.cfi_offset 26, -24
	.cfi_offset 25, -28
	.cfi_offset 65, 4
	mr 7,4
.LVL1596:
.L1299:
	.loc 2 4090 0
	lwz 0,24(7)
	cmpwi 7,0,0
	beq- 7,.L1293
.LVL1597:
	.loc 2 4091 0 discriminator 1
	lwz 5,20(7)
	li 8,0
	cmpwi 7,5,0
	ble- 7,.L1293
.LVL1598:
.L1325:
	.loc 2 4092 0 discriminator 1
	lwz 11,32(7)
	.loc 2 4080 0 discriminator 1
	slwi 9,8,2
	.loc 2 4092 0 discriminator 1
	lwz 0,16(28)
	lwzx 11,11,9
	mulli 11,11,40
	add 11,0,11
	lwz 0,32(11)
	cmpwi 7,0,0
	ble- 7,.L1296
	.loc 2 4093 0
	lwz 11,36(11)
.LVL1599:
	.loc 2 4080 0
	mtctr 0
	.loc 2 4094 0
	lwz 10,28(7)
	lwz 6,0(11)
	lwzx 10,10,9
	.loc 2 4080 0
	addi 9,11,24
	.loc 2 4094 0
	cmpw 7,10,6
	bne+ 7,.L1295
	b .L1298
.LVL1600:
.L1297:
	lwz 0,-24(9)
	cmpw 7,0,10
	beq- 7,.L1298
.L1295:
	.loc 2 4093 0
	mr 11,9
	addi 9,9,24
	.loc 2 4092 0
	bdnz .L1297
.L1296:
	.loc 2 4091 0
	addi 8,8,1
.LVL1601:
	cmpw 7,5,8
	bgt+ 7,.L1325
.LVL1602:
.L1293:
	.loc 2 4101 0
	lwz 7,0(7)
.LVL1603:
	.loc 2 4089 0
	cmpwi 7,7,0
	bne+ 7,.L1299
.LVL1604:
.L1292:
	.loc 2 4106 0 discriminator 1
	lwz 10,0(28)
	cmpwi 7,10,0
	ble- 7,.L1301
	lwz 0,16(28)
	.loc 2 4106 0 is_stmt 0
	li 27,0
	li 25,0
	.loc 2 4107 0 is_stmt 1
	li 26,0
.LVL1605:
.L1300:
	.loc 2 4107 0 is_stmt 0 discriminator 1
	add 9,0,27
	li 31,0
	lwz 11,32(9)
	li 30,0
	cmpwi 7,11,0
	bgt+ 7,.L1319
	b .L1305
.LVL1606:
.L1302:
	.loc 2 4107 0
	add 9,0,27
	lwz 11,32(9)
	cmpw 7,11,30
	ble- 7,.L1327
.LVL1607:
.L1319:
	.loc 2 4108 0 is_stmt 1
	lwz 29,36(9)
	.loc 2 4107 0
	addi 30,30,1
	.loc 2 4108 0
	add 29,29,31
.LVL1608:
	.loc 2 4107 0
	addi 31,31,24
	.loc 2 4109 0
	lwz 3,16(29)
	cmpwi 7,3,0
	beq+ 7,.L1302
	.loc 2 4110 0
	slwi 3,3,3
	bl _Z16Mem_ClearedAlloci
	.loc 2 4111 0
	cmpwi 7,3,0
	.loc 2 4110 0
	stw 3,20(29)
	.loc 2 4111 0
	beq- 7,.L1315
	.loc 2 4112 0
	stw 26,16(29)
	lwz 0,16(28)
.LVL1609:
	.loc 2 4107 0
	add 9,0,27
	lwz 11,32(9)
	cmpw 7,11,30
	bgt+ 7,.L1319
.L1327:
	lwz 10,0(28)
.LVL1610:
.L1305:
	.loc 2 4106 0
	addi 25,25,1
.LVL1611:
	addi 27,27,40
	cmpw 7,10,25
	bgt+ 7,.L1300
.LVL1612:
.L1301:
	.loc 2 4120 0 discriminator 1
	beq- 4,.L1317
.LVL1613:
.L1312:
	.loc 2 4121 0
	lwz 0,24(24)
	cmpwi 7,0,0
	beq- 7,.L1306
.LVL1614:
	.loc 2 4122 0 discriminator 1
	lwz 6,20(24)
	li 8,0
	cmpwi 7,6,0
	ble- 7,.L1306
.LVL1615:
.L1326:
	.loc 2 4123 0 discriminator 1
	lwz 9,32(24)
	.loc 2 4080 0 discriminator 1
	slwi 0,8,2
	.loc 2 4123 0 discriminator 1
	lwz 11,16(28)
	lwzx 9,9,0
	mulli 9,9,40
	add 9,11,9
	lwz 7,32(9)
	cmpwi 7,7,0
	ble- 7,.L1309
	.loc 2 4124 0
	lwz 11,36(9)
.LVL1616:
	.loc 2 4125 0
	lwz 10,28(24)
	lwz 9,0(11)
.LVL1617:
	lwzx 10,10,0
	cmpw 7,10,9
	beq- 7,.L1311
	.loc 2 4080 0
	addi 9,11,24
	mtctr 7
	b .L1308
.LVL1618:
.L1310:
	.loc 2 4125 0
	lwz 0,-24(9)
	cmpw 7,0,10
	beq- 7,.L1311
.L1308:
	.loc 2 4124 0
	mr 11,9
	addi 9,9,24
	.loc 2 4123 0
	bdnz .L1310
.L1309:
	.loc 2 4122 0
	addi 8,8,1
.LVL1619:
	cmpw 7,6,8
	bgt+ 7,.L1326
.LVL1620:
.L1306:
	.loc 2 4134 0
	lwz 24,0(24)
.LVL1621:
	.loc 2 4120 0
	cmpwi 7,24,0
	bne+ 7,.L1312
.L1317:
.LBE1615:
	.loc 2 4138 0
	lwz 0,52(1)
.LBB1616:
	.loc 2 4137 0
	li 3,1
.LBE1616:
	.loc 2 4138 0
	lwz 12,12(1)
	mtlr 0
	lwz 24,16(1)
.LVL1622:
	lwz 25,20(1)
	mtcrf 8,12
	lwz 26,24(1)
	lwz 27,28(1)
	lwz 28,32(1)
.LVL1623:
	lwz 29,36(1)
	lwz 30,40(1)
	lwz 31,44(1)
	addi 1,1,48
	.cfi_remember_state
	.cfi_restore 24
	.cfi_restore 25
	.cfi_restore 26
	.cfi_restore 27
	.cfi_restore 28
	.cfi_restore 29
	.cfi_restore 30
	.cfi_restore 31
	.cfi_restore 70
.LCFI232:
	.cfi_def_cfa_offset 0
	blr
.LVL1624:
.L1298:
.LCFI233:
	.cfi_restore_state
.LBB1617:
	.loc 2 4095 0
	lwz 9,16(11)
	.loc 2 4091 0
	addi 8,8,1
.LVL1625:
	.loc 2 4095 0
	addi 0,9,1
	stw 0,16(11)
	lwz 5,20(7)
	.loc 2 4091 0
	cmpw 7,5,8
	bgt+ 7,.L1325
	b .L1293
.LVL1626:
.L1315:
.LBE1617:
	.loc 2 4138 0
	lwz 0,52(1)
.LBB1618:
	.loc 2 4111 0
	li 3,0
.LBE1618:
	.loc 2 4138 0
	lwz 12,12(1)
	mtlr 0
	lwz 24,16(1)
.LVL1627:
	lwz 25,20(1)
	mtcrf 8,12
	lwz 26,24(1)
	lwz 27,28(1)
	lwz 28,32(1)
.LVL1628:
	lwz 29,36(1)
.LVL1629:
	lwz 30,40(1)
	lwz 31,44(1)
	addi 1,1,48
	.cfi_remember_state
.LCFI234:
	.cfi_def_cfa_offset 0
	.cfi_restore 70
	.cfi_restore 31
	.cfi_restore 30
	.cfi_restore 29
	.cfi_restore 28
	.cfi_restore 27
	.cfi_restore 26
	.cfi_restore 25
	.cfi_restore 24
	blr
.LVL1630:
.L1311:
.LCFI235:
	.cfi_restore_state
.LBB1619:
	.loc 2 4126 0
	lwz 0,16(11)
	lwz 9,20(11)
	slwi 0,0,3
	stwx 24,9,0
	.loc 2 4127 0
	lwz 0,16(11)
	lwz 9,20(11)
	slwi 0,0,3
	add 9,9,0
	stw 8,4(9)
	.loc 2 4122 0
	addi 8,8,1
.LVL1631:
	.loc 2 4128 0
	lwz 9,16(11)
	addi 0,9,1
	stw 0,16(11)
	lwz 6,20(24)
	.loc 2 4122 0
	cmpw 7,6,8
	bgt+ 7,.L1326
	b .L1306
.LBE1619:
	.cfi_endproc
.LFE2622:
	.size	_Z14lwGetPolyVMapsP16st_lwPolygonListP9st_lwVMap, .-_Z14lwGetPolyVMapsP16st_lwPolygonListP9st_lwVMap
	.align 2
	.globl _Z11lwGetObjectPKcPjPi
	.type	_Z11lwGetObjectPKcPjPi, @function
_Z11lwGetObjectPKcPjPi:
.LFB2581:
	.loc 2 1446 0
	.cfi_startproc
.LVL1632:
	stwu 1,-104(1)
.LCFI236:
	.cfi_def_cfa_offset 104
	mflr 0
	mfcr 12
.LBB1620:
	.loc 2 1454 0
	li 6,0
.LBE1620:
	.loc 2 1446 0
	stw 28,88(1)
.LBB1651:
	.loc 2 1454 0
	lis 28,fileSystem@ha
	.cfi_offset 28, -16
	.cfi_register 70, 12
	.cfi_register 65, 0
.LBE1651:
	.loc 2 1446 0
	stw 24,72(1)
	mr 24,4
	.cfi_offset 24, -32
	stw 27,84(1)
	mr 27,5
	.cfi_offset 27, -20
	stw 29,92(1)
	mr 29,3
	.cfi_offset 29, -12
	stw 31,100(1)
.LBB1652:
	.loc 2 1454 0
	mr 4,29
.LVL1633:
.LBE1652:
	.loc 2 1446 0
	stw 0,108(1)
.LBB1653:
	.loc 2 1454 0
	li 5,1
.LVL1634:
.LBE1653:
	.loc 2 1446 0
	stw 14,32(1)
	stw 15,36(1)
	stw 16,40(1)
	stw 17,44(1)
	stw 18,48(1)
	stw 19,52(1)
	stw 20,56(1)
	stw 21,60(1)
	stw 22,64(1)
	stw 23,68(1)
	stw 25,76(1)
	stw 26,80(1)
	stw 30,96(1)
	stw 12,28(1)
.LBB1654:
	.loc 2 1454 0
