	.file	"ModelDecal.cpp"
	.section	".text"
.Ltext0:
	.section	.text._ZN14idFixedWinding5ClearEv,"axG",@progbits,_ZN14idFixedWinding5ClearEv,comdat
	.align 2
	.weak	_ZN14idFixedWinding5ClearEv
	.type	_ZN14idFixedWinding5ClearEv, @function
_ZN14idFixedWinding5ClearEv:
.LFB1502:
	.file 1 "d:/Data/Nintendo/DoomGX/src/renderer/../idlib/../idlib/geometry/Winding.h"
	.loc 1 398 0
	.cfi_startproc
.LVL0:
	.loc 1 399 0
	li 0,0
	.loc 1 400 0
	.loc 1 399 0
	stw 0,4(3)
	.loc 1 400 0
	blr
	.cfi_endproc
.LFE1502:
	.size	_ZN14idFixedWinding5ClearEv, .-_ZN14idFixedWinding5ClearEv
	.section	.text._ZN9idWinding5ClearEv,"axG",@progbits,_ZN9idWinding5ClearEv,comdat
	.align 2
	.weak	_ZN9idWinding5ClearEv
	.type	_ZN9idWinding5ClearEv, @function
_ZN9idWinding5ClearEv:
.LFB1473:
	.loc 1 249 0
	.cfi_startproc
.LVL1:
	mflr 0
	stwu 1,-16(1)
.LCFI0:
	.cfi_def_cfa_offset 16
	.cfi_register 65, 0
	stw 31,12(1)
	mr 31,3
	.cfi_offset 31, -4
	stw 0,20(1)
	.loc 1 250 0
	li 0,0
	.cfi_offset 65, 4
	.loc 1 251 0
	lwz 3,8(3)
.LVL2:
	.loc 1 250 0
	stw 0,4(31)
	.loc 1 251 0
	cmpwi 7,3,0
	beq- 7,.L3
	.loc 1 251 0 is_stmt 0 discriminator 1
	bl _ZdaPv
.L3:
	.loc 1 252 0 is_stmt 1
	li 0,0
	stw 0,8(31)
	.loc 1 253 0
	lwz 0,20(1)
	lwz 31,12(1)
.LVL3:
	mtlr 0
	addi 1,1,16
.LCFI1:
	.cfi_def_cfa_offset 0
	.cfi_restore 31
	blr
	.cfi_endproc
.LFE1473:
	.size	_ZN9idWinding5ClearEv, .-_ZN9idWinding5ClearEv
	.section	.text._ZN9idWindingD2Ev,"axG",@progbits,_ZN9idWindingD5Ev,comdat
	.align 2
	.weak	_ZN9idWindingD2Ev
	.type	_ZN9idWindingD2Ev, @function
_ZN9idWindingD2Ev:
.LFB1461:
	.loc 1 183 0
	.cfi_startproc
.LVL4:
	mflr 0
	stwu 1,-16(1)
.LCFI2:
	.cfi_def_cfa_offset 16
	.cfi_register 65, 0
.LBB1152:
	lis 9,_ZTV9idWinding+8@ha
.LBE1152:
	stw 31,12(1)
	mr 31,3
	.cfi_offset 31, -4
	stw 0,20(1)
.LBB1153:
	.loc 1 183 0
	la 0,_ZTV9idWinding+8@l(9)
	.cfi_offset 65, 4
	.loc 1 184 0
	lwz 3,8(3)
.LVL5:
	.loc 1 183 0
	stw 0,0(31)
	.loc 1 184 0
	cmpwi 7,3,0
	beq- 7,.L6
	.loc 1 184 0 is_stmt 0 discriminator 1
	bl _ZdaPv
.L6:
	.loc 1 185 0 is_stmt 1
	li 0,0
	stw 0,8(31)
.LBE1153:
	.loc 1 186 0
	lwz 0,20(1)
	lwz 31,12(1)
.LVL6:
	mtlr 0
	addi 1,1,16
.LCFI3:
	.cfi_def_cfa_offset 0
	.cfi_restore 31
	blr
	.cfi_endproc
.LFE1461:
	.size	_ZN9idWindingD2Ev, .-_ZN9idWindingD2Ev
	.section	.text._ZN14idFixedWindingD2Ev,"axG",@progbits,_ZN14idFixedWindingD5Ev,comdat
	.align 2
	.weak	_ZN14idFixedWindingD2Ev
	.type	_ZN14idFixedWindingD2Ev, @function
_ZN14idFixedWindingD2Ev:
.LFB1498:
	.loc 1 380 0
	.cfi_startproc
.LVL7:
.LBB1159:
	.loc 1 381 0
	li 0,0
.LBB1160:
.LBB1161:
.LBB1162:
	.loc 1 183 0
	lis 9,_ZTV9idWinding+8@ha
.LBE1162:
.LBE1161:
.LBE1160:
	.loc 1 381 0
	stw 0,8(3)
.LVL8:
.LBB1165:
.LBB1164:
.LBB1163:
	.loc 1 183 0
	la 0,_ZTV9idWinding+8@l(9)
	stw 0,0(3)
.LBE1163:
.LBE1164:
.LBE1165:
.LBE1159:
	.loc 1 382 0
	blr
	.cfi_endproc
.LFE1498:
	.size	_ZN14idFixedWindingD2Ev, .-_ZN14idFixedWindingD2Ev
	.section	.text._ZN9idWindingD0Ev,"axG",@progbits,_ZN9idWindingD5Ev,comdat
	.align 2
	.weak	_ZN9idWindingD0Ev
	.type	_ZN9idWindingD0Ev, @function
_ZN9idWindingD0Ev:
.LFB1463:
	.loc 1 183 0
	.cfi_startproc
.LVL9:
	mflr 0
	stwu 1,-16(1)
.LCFI4:
	.cfi_def_cfa_offset 16
	.cfi_register 65, 0
.LBB1169:
.LBB1170:
.LBB1171:
	lis 9,_ZTV9idWinding+8@ha
.LBE1171:
.LBE1170:
.LBE1169:
	stw 31,12(1)
	mr 31,3
	.cfi_offset 31, -4
.LVL10:
	stw 0,20(1)
.LBB1176:
.LBB1174:
.LBB1172:
	.loc 1 183 0
	la 0,_ZTV9idWinding+8@l(9)
	.cfi_offset 65, 4
	.loc 1 184 0
	lwz 3,8(3)
.LVL11:
	.loc 1 183 0
	stw 0,0(31)
	.loc 1 184 0
	cmpwi 7,3,0
	beq- 7,.L12
	bl _ZdaPv
.L12:
	.loc 1 185 0
	li 0,0
.LBE1172:
.LBE1174:
.LBE1176:
	.loc 1 186 0
	mr 3,31
.LBB1177:
.LBB1175:
.LBB1173:
	.loc 1 185 0
	stw 0,8(31)
.LBE1173:
.LBE1175:
.LBE1177:
	.loc 1 186 0
	bl _ZdlPv
	lwz 0,20(1)
	lwz 31,12(1)
.LVL12:
	mtlr 0
	addi 1,1,16
.LCFI5:
	.cfi_def_cfa_offset 0
	.cfi_restore 31
	blr
	.cfi_endproc
.LFE1463:
	.size	_ZN9idWindingD0Ev, .-_ZN9idWindingD0Ev
	.section	.text._ZN14idFixedWindingD0Ev,"axG",@progbits,_ZN14idFixedWindingD5Ev,comdat
	.align 2
	.weak	_ZN14idFixedWindingD0Ev
	.type	_ZN14idFixedWindingD0Ev, @function
_ZN14idFixedWindingD0Ev:
.LFB1500:
	.loc 1 380 0
	.cfi_startproc
.LVL13:
	mflr 0
	stwu 1,-8(1)
.LCFI6:
	.cfi_def_cfa_offset 8
	.cfi_register 65, 0
.LBB1184:
.LBB1185:
.LBB1186:
.LBB1187:
.LBB1188:
.LBB1189:
	.loc 1 183 0
	lis 11,_ZTV9idWinding+8@ha
.LBE1189:
.LBE1188:
.LBE1187:
.LBE1186:
.LBE1185:
.LBE1184:
	.loc 1 380 0
	stw 0,12(1)
.LBB1195:
.LBB1194:
.LBB1193:
	.loc 1 381 0
	li 0,0
	.cfi_offset 65, 4
	stw 0,8(3)
.LVL14:
.LBB1192:
.LBB1191:
.LBB1190:
	.loc 1 183 0
	la 0,_ZTV9idWinding+8@l(11)
	stw 0,0(3)
.LBE1190:
.LBE1191:
.LBE1192:
.LBE1193:
.LBE1194:
.LBE1195:
	.loc 1 382 0
	bl _ZdlPv
.LVL15:
	lwz 0,12(1)
	addi 1,1,8
.LCFI7:
	.cfi_def_cfa_offset 0
	mtlr 0
	blr
	.cfi_endproc
.LFE1500:
	.size	_ZN14idFixedWindingD0Ev, .-_ZN14idFixedWindingD0Ev
	.section	".text"
	.align 2
	.globl _ZN18idRenderModelDecalC2Ev
	.type	_ZN18idRenderModelDecalC2Ev, @function
_ZN18idRenderModelDecalC2Ev:
.LFB2574:
	.file 2 "d:/Data/Nintendo/DoomGX/src/renderer/ModelDecal.cpp"
	.loc 2 49 0
	.cfi_startproc
.LVL16:
	stwu 1,-16(1)
.LCFI8:
	.cfi_def_cfa_offset 16
	mflr 0
.LBB1196:
	.loc 2 51 0
	li 4,3176
.LBE1196:
	.loc 2 49 0
	stw 31,12(1)
	mr 31,3
	.cfi_offset 31, -4
	.cfi_register 65, 0
.LBB1197:
	.loc 2 51 0
	lis 3,.LC0@ha
.LVL17:
.LBE1197:
	.loc 2 49 0
	stw 0,20(1)
.LBB1198:
	.loc 2 51 0
	la 3,.LC0@l(3)
	.cfi_offset 65, 4
	crxor 6,6,6
	bl _Z15Sys_DebugPrintfPKcz
	.loc 2 54 0
	addi 3,31,4
	li 4,0
	li 5,128
	bl memset
	.loc 2 57 0
	li 0,0
	.loc 2 55 0
	addi 11,31,132
	.loc 2 56 0
	addi 9,31,2692
	.loc 2 55 0
	stw 11,44(31)
	.loc 2 56 0
	stw 9,52(31)
	.loc 2 57 0
	stw 0,0(31)
	.loc 2 58 0
	stw 0,3172(31)
.LBE1198:
	.loc 2 59 0
	lwz 0,20(1)
	lwz 31,12(1)
.LVL18:
	mtlr 0
	addi 1,1,16
.LCFI9:
	.cfi_def_cfa_offset 0
	.cfi_restore 31
	blr
	.cfi_endproc
.LFE2574:
	.size	_ZN18idRenderModelDecalC2Ev, .-_ZN18idRenderModelDecalC2Ev
	.align 2
	.globl _ZN18idRenderModelDecalD2Ev
	.type	_ZN18idRenderModelDecalD2Ev, @function
_ZN18idRenderModelDecalD2Ev:
.LFB2577:
	.loc 2 66 0
	.cfi_startproc
.LVL19:
	.loc 2 67 0
	blr
	.cfi_endproc
.LFE2577:
	.size	_ZN18idRenderModelDecalD2Ev, .-_ZN18idRenderModelDecalD2Ev
	.align 2
	.globl _ZN18idRenderModelDecal5AllocEv
	.type	_ZN18idRenderModelDecal5AllocEv, @function
_ZN18idRenderModelDecal5AllocEv:
.LFB2579:
	.loc 2 74 0
	.cfi_startproc
	.cfi_personality 0,__gxx_personality_v0
	.cfi_lsda 0,.LLSDA2579
	mflr 0
	stwu 1,-16(1)
.LCFI10:
	.cfi_def_cfa_offset 16
	.cfi_register 65, 0
	.loc 2 75 0
	li 3,3176
	.loc 2 74 0
	stw 31,12(1)
	stw 0,20(1)
	stw 30,8(1)
.LEHB0:
	.loc 2 75 0
	.cfi_offset 30, -8
	.cfi_offset 65, 4
	.cfi_offset 31, -4
	bl _Znwj
.LEHE0:
	mr 31,3
.LEHB1:
	bl _ZN18idRenderModelDecalC1Ev
.LEHE1:
	.loc 2 76 0 discriminator 1
	lwz 0,20(1)
	mr 3,31
	lwz 30,8(1)
	mtlr 0
	lwz 31,12(1)
	addi 1,1,16
	.cfi_remember_state
.LCFI11:
	.cfi_def_cfa_offset 0
	.cfi_restore 31
	.cfi_restore 30
	blr
.L24:
.LCFI12:
	.cfi_restore_state
	mr 30,3
	.loc 2 75 0
	mr 3,31
	bl _ZdlPv
	mr 3,30
.LEHB2:
	bl _Unwind_Resume
.LEHE2:
	.cfi_endproc
.LFE2579:
	.globl __gxx_personality_v0
	.section	.gcc_except_table,"a",@progbits
.LLSDA2579:
	.byte	0xff
	.byte	0xff
	.byte	0x1
	.uleb128 .LLSDACSE2579-.LLSDACSB2579
.LLSDACSB2579:
	.uleb128 .LEHB0-.LFB2579
	.uleb128 .LEHE0-.LEHB0
	.uleb128 0
	.uleb128 0
	.uleb128 .LEHB1-.LFB2579
	.uleb128 .LEHE1-.LEHB1
	.uleb128 .L24-.LFB2579
	.uleb128 0
	.uleb128 .LEHB2-.LFB2579
	.uleb128 .LEHE2-.LEHB2
	.uleb128 0
	.uleb128 0
.LLSDACSE2579:
	.section	".text"
	.size	_ZN18idRenderModelDecal5AllocEv, .-_ZN18idRenderModelDecal5AllocEv
	.align 2
	.globl _ZN18idRenderModelDecal4FreeEPS_
	.type	_ZN18idRenderModelDecal4FreeEPS_, @function
_ZN18idRenderModelDecal4FreeEPS_:
.LFB2580:
	.loc 2 83 0
	.cfi_startproc
.LVL20:
	.loc 2 84 0
	cmpwi 7,3,0
	.loc 2 83 0
	mflr 0
	stwu 1,-8(1)
.LCFI13:
	.cfi_def_cfa_offset 8
	.cfi_register 65, 0
	stw 0,12(1)
	.loc 2 84 0
	beq- 7,.L25
	.cfi_offset 65, 4
	.loc 2 84 0 is_stmt 0 discriminator 1
	bl _ZdlPv
.LVL21:
.L25:
	.loc 2 85 0 is_stmt 1
	lwz 0,12(1)
	addi 1,1,8
.LCFI14:
	.cfi_def_cfa_offset 0
	mtlr 0
	blr
	.cfi_endproc
.LFE2580:
	.size	_ZN18idRenderModelDecal4FreeEPS_, .-_ZN18idRenderModelDecal4FreeEPS_
	.align 2
	.globl _ZN18idRenderModelDecal20CreateProjectionInfoER21decalProjectionInfo_sRK14idFixedWindingRK6idVec3bfPK10idMateriali
	.type	_ZN18idRenderModelDecal20CreateProjectionInfoER21decalProjectionInfo_sRK14idFixedWindingRK6idVec3bfPK10idMateriali, @function
_ZN18idRenderModelDecal20CreateProjectionInfoER21decalProjectionInfo_sRK14idFixedWindingRK6idVec3bfPK10idMateriali:
.LFB2581:
	.loc 2 92 0
	.cfi_startproc
.LVL22:
	mflr 0
	stwu 1,-112(1)
.LCFI15:
	.cfi_def_cfa_offset 112
	.cfi_register 65, 0
	stw 29,76(1)
	mr 29,5
	.cfi_offset 29, -36
	stw 30,80(1)
	mr 30,4
	.cfi_offset 30, -32
	stw 31,84(1)
	mr 31,3
	.cfi_offset 31, -28
	stw 0,116(1)
	stfd 29,88(1)
	stfd 30,96(1)
	stfd 31,104(1)
	stw 27,68(1)
	stw 28,72(1)
.LBB1354:
	.loc 2 94 0
	lwz 0,4(4)
	.cfi_offset 28, -40
	.cfi_offset 27, -44
	.cfi_offset 63, -8
	.cfi_offset 62, -16
	.cfi_offset 61, -24
	.cfi_offset 65, 4
	cmpwi 7,0,4
	beq- 7,.L29
	.loc 2 95 0
	lis 9,common@ha
	lis 4,.LC3@ha
.LVL23:
	lwz 3,common@l(9)
.LVL24:
	la 4,.LC3@l(4)
	li 5,4
.LVL25:
	lwz 9,0(3)
	lwz 0,68(9)
	mtctr 0
	crxor 6,6,6
	bctrl
.LVL26:
.LBE1354:
	.loc 2 178 0
	lwz 0,116(1)
	lwz 27,68(1)
.LBB1773:
	.loc 2 96 0
	li 3,0
.LBE1773:
	.loc 2 178 0
	mtlr 0
	lwz 28,72(1)
	lwz 29,76(1)
.LVL27:
	lwz 30,80(1)
.LVL28:
	lwz 31,84(1)
.LVL29:
	lfd 29,88(1)
	lfd 30,96(1)
	lfd 31,104(1)
	addi 1,1,112
	.cfi_remember_state
.LCFI16:
	.cfi_def_cfa_offset 0
	.cfi_restore 63
	.cfi_restore 62
	.cfi_restore 61
	.cfi_restore 31
	.cfi_restore 30
	.cfi_restore 29
	.cfi_restore 28
	.cfi_restore 27
	blr
.LVL30:
.L29:
.LCFI17:
	.cfi_restore_state
.LBB1774:
.LBB1355:
.LBB1356:
	.file 3 "d:/Data/Nintendo/DoomGX/src/renderer/../idlib/../idlib/math/Vector.h"
	.loc 3 424 0
	lwz 0,0(5)
	stw 0,0(3)
.LBE1356:
.LBE1355:
	.loc 2 110 0
	mr 3,4
.LVL31:
	addi 4,1,8
.LVL32:
.LBB1359:
.LBB1357:
	.loc 3 425 0
	lwz 0,4(5)
	stw 0,4(31)
	.loc 3 426 0
	lwz 0,8(5)
.LBE1357:
.LBE1359:
	.loc 2 103 0
	stb 6,200(31)
.LBB1360:
.LBB1358:
	.loc 3 426 0
	stw 0,8(31)
.LBE1358:
.LBE1360:
	.loc 2 106 0
	li 0,0
	.loc 2 104 0
	stfs 1,204(31)
	.loc 2 102 0
	stw 7,196(31)
	.loc 2 105 0
	stw 8,208(31)
	.loc 2 106 0
	stb 0,212(31)
	.loc 2 110 0
	stw 6,40(1)
	stfd 1,48(1)
	bl _ZNK9idWinding8GetPlaneER7idPlane
.LVL33:
.LBB1361:
.LBB1362:
	.file 4 "d:/Data/Nintendo/DoomGX/src/renderer/../idlib/../idlib/math/Plane.h"
	.loc 4 325 0
	lfs 0,4(29)
.LBE1362:
.LBE1361:
	.loc 2 114 0
	mr 3,30
.LBB1365:
.LBB1363:
	.loc 4 325 0
	lfs 13,12(1)
.LBE1363:
.LBE1365:
	.loc 2 114 0
	addi 4,31,12
.LBB1366:
.LBB1364:
	.loc 4 325 0
	lfs 31,8(1)
	fmuls 13,13,0
	lfs 0,0(29)
	fmadds 0,31,0,13
	lfs 13,8(29)
	lfs 31,16(1)
	fmadds 31,31,13,0
	lfs 0,20(1)
	fadds 31,31,0
.LBE1364:
.LBE1366:
	.loc 2 114 0
	bl _ZNK9idWinding9GetBoundsER8idBounds
	.loc 2 115 0
	lwz 6,40(1)
	lfd 1,48(1)
	cmpwi 7,6,0
	bne- 7,.L105
.LVL34:
.LBB1367:
.LBB1368:
.LBB1369:
.LBB1370:
	.loc 3 402 0
	lfs 0,0(29)
.LVL35:
.LBE1370:
.LBE1369:
	.file 5 "d:/Data/Nintendo/DoomGX/src/renderer/../idlib/../idlib/bv/Bounds.h"
	.loc 5 228 0
	lfs 13,12(31)
	fcmpu 7,0,13
	bnl- 7,.L34
.LVL36:
	.loc 5 229 0
	stfs 0,12(31)
.LVL37:
	lfs 0,0(29)
.LVL38:
.L34:
	.loc 5 232 0
	lfs 13,24(31)
	fcmpu 7,13,0
	bnl- 7,.L36
.LVL39:
	.loc 5 233 0
	stfs 0,24(31)
.LVL40:
.L36:
.LBB1371:
.LBB1372:
	.loc 3 402 0
	lfs 0,4(29)
.LVL41:
.LBE1372:
.LBE1371:
	.loc 5 236 0
	lfs 13,16(31)
	fcmpu 7,0,13
	bnl- 7,.L38
.LVL42:
	.loc 5 237 0
	stfs 0,16(31)
.LVL43:
	lfs 0,4(29)
.LVL44:
.L38:
	.loc 5 240 0
	lfs 13,28(31)
	fcmpu 7,13,0
	bnl- 7,.L40
.LVL45:
	.loc 5 241 0
	stfs 0,28(31)
.LVL46:
.L40:
.LBB1373:
.LBB1374:
	.loc 3 402 0
	lfs 0,8(29)
.LVL47:
.LBE1374:
.LBE1373:
	.loc 5 244 0
	lfs 13,20(31)
	fcmpu 7,0,13
	bnl- 7,.L42
.LVL48:
	.loc 5 245 0
	stfs 0,20(31)
.LVL49:
	lfs 0,8(29)
.LVL50:
.L42:
	.loc 5 248 0
	lfs 13,32(31)
	fcmpu 7,13,0
	bnl- 7,.L44
.LVL51:
	.loc 5 249 0
	stfs 0,32(31)
.LVL52:
.L44:
.LBE1368:
.LBE1367:
.LBB1375:
.LBB1376:
.LBB1377:
	.loc 2 541 0
	lwz 0,4(30)
.LBE1377:
.LBE1376:
.LBE1375:
.LBB1504:
.LBB1505:
.LBB1506:
.LBB1507:
.LBB1508:
.LBB1509:
.LBB1510:
	.loc 3 588 0
	li 11,0
	lis 4,_ZN6idMath5iSqrtE@ha
.LBE1510:
.LBE1509:
.LBE1508:
.LBE1507:
.LBE1506:
.LBE1505:
.LBE1504:
.LBB1635:
.LBB1489:
.LBB1478:
.LBB1378:
.LBB1379:
.LBB1380:
.LBB1381:
.LBB1382:
	.loc 3 536 0
	lis 7,.LC7@ha
.LBE1382:
.LBE1381:
.LBE1380:
.LBE1379:
.LBE1378:
.LBE1478:
.LBE1489:
	.loc 2 130 0
	cmpw 7,11,0
.LBE1635:
.LBB1636:
.LBB1627:
.LBB1584:
.LBB1568:
.LBB1541:
.LBB1530:
.LBB1519:
	.loc 3 588 0
	li 6,0
	lis 12,.LC4@ha
	la 4,_ZN6idMath5iSqrtE@l(4)
	lis 3,.LC6@ha
	lis 28,.LC1@ha
.LBE1519:
.LBE1530:
.LBE1541:
.LBE1568:
.LBE1584:
.LBE1627:
.LBE1636:
.LBB1637:
.LBB1490:
.LBB1479:
.LBB1447:
.LBB1431:
.LBB1407:
.LBB1399:
.LBB1391:
	.loc 3 536 0
	lfs 0,.LC7@l(7)
	.loc 3 572 0
	lis 27,.LC2@ha
.LVL53:
.LBE1391:
.LBE1399:
.LBE1407:
.LBE1431:
.LBE1447:
.LBE1479:
.LBE1490:
	.loc 2 130 0
	bge- 7,.L33
.L77:
	.loc 2 131 0 discriminator 2
	addi 8,11,2
	addi 11,11,1
.LVL54:
	divw 5,11,0
	.loc 2 541 0 discriminator 2
	lwz 10,8(30)
.LBB1491:
.LBB1480:
.LBB1448:
.LBB1449:
	.loc 3 431 0 discriminator 2
	lfs 5,0(29)
.LBE1449:
.LBE1448:
.LBE1480:
.LBE1491:
	.loc 2 131 0 discriminator 2
	slwi 8,8,4
.LVL55:
.LBB1492:
.LBB1493:
	.loc 1 204 0 discriminator 2
	add 7,10,6
.LVL56:
.LBE1493:
.LBE1492:
.LBB1494:
.LBB1481:
.LBB1454:
.LBB1450:
	.loc 3 431 0 discriminator 2
	lfsx 4,10,6
	lfs 13,8(7)
.LBE1450:
.LBE1454:
.LBE1481:
.LBE1494:
	.loc 2 131 0 discriminator 2
	add 8,31,8
.LBB1495:
.LBB1482:
.LBB1455:
.LBB1451:
	.loc 3 431 0 discriminator 2
	lfs 3,8(29)
	fsubs 5,5,4
	lfs 12,4(7)
.LBE1451:
.LBE1455:
.LBE1482:
.LBE1495:
	.loc 2 131 0 discriminator 2
	addi 9,8,4
.LBB1496:
.LBB1483:
.LBB1456:
.LBB1452:
	.loc 3 431 0 discriminator 2
	fsubs 3,3,13
	lfs 9,4(29)
.LBE1452:
.LBE1456:
.LBB1457:
.LBB1432:
.LBB1408:
.LBB1409:
.LBB1410:
.LBB1411:
	.file 6 "d:/Data/Nintendo/DoomGX/src/renderer/../idlib/../idlib/math/Math.h"
	.loc 6 275 0 discriminator 2
	lfs 6,.LC4@l(12)
.LBE1411:
.LBE1410:
.LBE1409:
.LBE1408:
.LBE1432:
.LBE1457:
.LBB1458:
.LBB1453:
	.loc 3 431 0 discriminator 2
	fsubs 9,9,12
.LBE1453:
.LBE1458:
.LBB1459:
.LBB1433:
.LBB1420:
.LBB1416:
.LBB1414:
.LBB1412:
	.loc 6 278 0 discriminator 2
	lfs 7,.LC6@l(3)
.LBE1412:
.LBE1414:
.LBE1416:
.LBE1420:
.LBE1433:
.LBE1459:
.LBE1483:
.LBE1496:
	.loc 2 131 0 discriminator 2
	mullw 0,5,0
.LVL57:
	subf 0,0,11
.LBB1497:
.LBB1498:
	.loc 1 204 0 discriminator 2
	mulli 0,0,20
	add 5,10,0
.LVL58:
.LBE1498:
.LBE1497:
.LBB1499:
.LBB1484:
.LBB1460:
.LBB1461:
	.loc 3 431 0 discriminator 2
	lfsx 11,10,0
	lfs 10,8(5)
	lfs 8,4(5)
	fsubs 4,11,4
	fsubs 13,10,13
.LVL59:
	fsubs 8,8,12
.LVL60:
.LBE1461:
.LBE1460:
.LBB1463:
.LBB1464:
	.loc 3 620 0 discriminator 2
	fmuls 12,9,4
	fmuls 11,5,13
	fmuls 10,3,8
.LBE1464:
.LBE1463:
.LBB1465:
.LBB1462:
	fmsubs 12,5,8,12
	fmsubs 11,3,4,11
	fmsubs 10,9,13,10
.LVL61:
.LBE1462:
.LBE1465:
.LBB1466:
.LBB1434:
.LBB1421:
.LBB1417:
	.loc 3 649 0 discriminator 2
	fmuls 13,11,11
.LVL62:
.LBE1417:
.LBE1421:
.LBE1434:
.LBE1466:
.LBB1467:
.LBB1468:
	.loc 3 424 0 discriminator 2
	stfs 10,4(8)
	.loc 3 425 0 discriminator 2
	stfs 11,4(9)
	.loc 3 649 0 discriminator 2
	fmadds 13,10,10,13
	.loc 3 426 0 discriminator 2
	stfs 12,8(9)
.LVL63:
	.loc 3 649 0 discriminator 2
	fmadds 13,12,12,13
	stfs 13,24(1)
.LVL64:
.LBE1468:
.LBE1467:
.LBB1469:
.LBB1435:
.LBB1422:
.LBB1418:
.LBB1415:
.LBB1413:
	.loc 6 275 0 discriminator 2
	fmuls 6,13,6
	.loc 6 270 0 discriminator 2
	lwz 0,24(1)
.LVL65:
	.loc 2 92 0 discriminator 2
	fneg 6,6
	.loc 6 276 0 discriminator 2
	rlwinm 5,0,9,24,31
.LVL66:
	rlwinm 0,0,19,21,29
	lwzx 10,4,0
	subfic 0,5,380
	rlwinm 0,0,22,0,8
	or 0,0,10
	.loc 6 277 0 discriminator 2
	stw 0,56(1)
	lfs 13,56(1)
.LVL67:
	fmr 8,13
.LVL68:
	.loc 6 278 0 discriminator 2
	fmul 9,8,8
	fmadd 9,6,9,7
	fmul 9,8,9
.LVL69:
	.loc 6 279 0 discriminator 2
	fmul 13,9,9
	fmadd 13,6,13,7
.LVL70:
	fmul 13,9,13
.LVL71:
	.loc 6 280 0 discriminator 2
	frsp 13,13
.LVL72:
.LBE1413:
.LBE1415:
	.loc 3 651 0 discriminator 2
	fmuls 10,10,13
.LVL73:
	.loc 3 652 0 discriminator 2
	fmuls 11,11,13
.LVL74:
	.loc 3 653 0 discriminator 2
	fmuls 12,12,13
.LVL75:
	.loc 3 651 0 discriminator 2
	stfs 10,28(1)
.LBE1418:
.LBE1422:
.LBB1423:
.LBB1400:
.LBB1392:
	.loc 3 536 0 discriminator 2
	fcmpu 7,10,0
.LBE1392:
.LBE1400:
.LBE1423:
.LBB1424:
.LBB1419:
	.loc 3 652 0 discriminator 2
	stfs 11,32(1)
	.loc 3 651 0 discriminator 2
	lwz 0,28(1)
	.loc 3 653 0 discriminator 2
	stfs 12,36(1)
	.loc 3 651 0 discriminator 2
	stw 0,4(8)
	.loc 3 654 0 discriminator 2
	lfs 10,24(1)
	.loc 3 652 0 discriminator 2
	lwz 0,32(1)
	.loc 3 653 0 discriminator 2
	lwz 10,36(1)
	.loc 3 654 0 discriminator 2
	fmuls 13,10,13
.LVL76:
	.loc 3 652 0 discriminator 2
	stw 0,4(9)
	.loc 3 653 0 discriminator 2
	stw 10,8(9)
.LBE1419:
.LBE1424:
.LBB1425:
.LBB1401:
.LBB1393:
	.loc 3 536 0 discriminator 2
	bne- 7,.L61
	.loc 3 537 0
	fcmpu 7,11,0
	bne- 7,.L62
	.loc 3 538 0
	fcmpu 7,12,0
	fmr 11,12
	bng- 7,.L96
	.loc 3 539 0
	lfs 12,.LC1@l(28)
	fcmpu 7,11,12
	bne- 7,.L102
.L65:
.LBE1393:
.LBE1401:
.LBE1425:
.LBE1435:
.LBE1469:
	.loc 4 281 0
	fcmpu 7,13,0
	beq- 7,.L76
.LVL77:
.LBB1470:
.LBB1471:
	.loc 3 435 0
	lfs 13,4(7)
	lfs 10,4(9)
.LBE1471:
.LBE1470:
	lfs 12,4(8)
.LBB1473:
.LBB1472:
	fmuls 10,10,13
.LBE1472:
.LBE1473:
	lfs 13,0(7)
	lfs 11,8(7)
	fmadds 12,12,13,10
	lfs 13,8(9)
	.loc 4 284 0
	fnmadds 13,13,11,12
	stfs 13,12(9)
.LVL78:
.L76:
	.loc 2 541 0
	lwz 0,4(30)
	.loc 4 284 0
	addi 6,6,20
.LBE1484:
.LBE1499:
	.loc 2 130 0
	cmpw 7,11,0
	blt+ 7,.L77
.LVL79:
.L33:
.LBE1637:
	.loc 2 134 0
	lwz 0,20(1)
	.loc 2 142 0
	fsubs 9,31,1
.LBB1638:
.LBB1639:
	.loc 4 163 0
	lfs 11,20(1)
.LBE1639:
.LBE1638:
	.loc 2 134 0
	stw 0,112(31)
.LVL80:
	.loc 2 139 0
	stw 0,144(31)
	.loc 2 135 0
	lfs 10,112(31)
	.loc 2 140 0
	lfs 8,144(31)
.LBB1644:
.LBB1640:
	.loc 4 163 0
	lfs 12,8(1)
.LBE1640:
.LBE1644:
	.loc 2 135 0
	fsubs 31,10,31
.LBB1645:
.LBB1641:
	.loc 4 163 0
	lfs 13,12(1)
	fneg 10,11
	lfs 0,16(1)
	fneg 12,12
	fneg 13,13
.LBE1641:
.LBE1645:
	.loc 2 134 0
	lwz 11,8(1)
.LBB1646:
.LBB1642:
	.loc 4 163 0
	fneg 0,0
.LBE1642:
.LBE1646:
	.loc 2 134 0
	lwz 9,12(1)
	.loc 2 140 0
	fsubs 1,8,1
	.loc 2 134 0
	lwz 0,16(1)
	.loc 2 142 0
	fsubs 11,9,11
	.loc 2 134 0
	stw 11,100(31)
	stw 0,108(31)
	.loc 2 139 0
	stw 11,132(31)
	stw 0,140(31)
	.loc 2 134 0
	stw 9,104(31)
	.loc 2 135 0
	stfs 31,112(31)
.LVL81:
.LBB1647:
.LBB1643:
	.loc 2 136 0
	stfs 12,116(31)
	stfs 13,120(31)
	stfs 0,124(31)
.LVL82:
	stfs 10,128(31)
.LBE1643:
.LBE1647:
	.loc 2 139 0
	stw 9,136(31)
	.loc 2 140 0
	stfs 1,144(31)
.LVL83:
	.loc 2 141 0
	stfs 12,148(31)
	stfs 13,152(31)
	stfs 0,156(31)
.LVL84:
	.loc 2 142 0
	stfs 11,160(31)
	.loc 2 161 0
	lfs 8,.LC1@l(28)
	.loc 2 541 0
	lwz 9,8(30)
.LVL85:
.LBB1648:
.LBB1649:
.LBB1650:
.LBB1651:
	.loc 6 275 0
	lfs 2,.LC4@l(12)
.LBE1651:
.LBE1650:
.LBE1649:
.LBE1648:
	.loc 2 155 0
	lfs 0,16(9)
.LVL86:
	.loc 2 154 0
	lfs 13,12(9)
.LVL87:
	.loc 2 155 0
	lfs 9,36(9)
	.loc 2 157 0
	lfs 10,52(9)
.LVL88:
	.loc 2 155 0
	fsubs 9,9,0
	.loc 2 154 0
	lfs 12,32(9)
.LVL89:
	.loc 2 157 0
	fsubs 10,10,13
	.loc 2 158 0
	lfs 11,56(9)
	.loc 2 154 0
	fsubs 13,12,13
.LBB1687:
.LBB1688:
	.loc 3 431 0
	lfs 5,4(9)
.LBE1688:
.LBE1687:
	.loc 2 158 0
	fsubs 11,11,0
.LBB1695:
.LBB1696:
	.loc 3 431 0
	lfs 1,44(9)
.LBE1696:
.LBE1695:
	.loc 2 160 0
	fmuls 0,9,10
.LBB1701:
.LBB1689:
	.loc 3 431 0
	lfs 4,0(9)
.LBE1689:
.LBE1701:
.LBB1702:
.LBB1697:
	fsubs 1,1,5
.LBE1697:
.LBE1702:
.LBB1703:
.LBB1690:
	lfs 7,24(9)
.LBE1690:
.LBE1703:
.LBB1704:
.LBB1698:
	lfs 3,40(9)
.LBE1698:
.LBE1704:
	.loc 2 160 0
	fmsubs 0,13,11,0
.LBB1705:
.LBB1691:
	.loc 3 431 0
	lfs 30,8(9)
	fsubs 7,7,5
	lfs 6,20(9)
.LBE1691:
.LBE1705:
.LBB1706:
.LBB1699:
	fsubs 3,3,4
	lfs 31,48(9)
.LBE1699:
.LBE1706:
	.loc 2 161 0
	fdivs 0,8,0
.LBB1707:
.LBB1692:
	.loc 3 431 0
	lfs 29,28(9)
.LBE1692:
.LBE1707:
.LBB1708:
.LBB1674:
.LBB1663:
.LBB1652:
	.loc 6 278 0
	lfs 12,.LC6@l(3)
.LBE1652:
.LBE1663:
.LBE1674:
.LBE1708:
	.loc 2 177 0
	li 3,1
	.loc 2 164 0
	fmuls 5,9,1
.LBB1709:
.LBB1693:
	.loc 3 431 0
	fsubs 6,6,4
.LBE1693:
.LBE1709:
.LBB1710:
.LBB1700:
	fsubs 31,31,30
.LBE1700:
.LBE1710:
	.loc 2 163 0
	fmuls 4,9,3
	.loc 2 164 0
	fmsubs 5,11,7,5
.LBB1711:
.LBB1694:
	.loc 3 431 0
	fsubs 30,29,30
.LVL90:
.LBE1694:
.LBE1711:
	.loc 2 163 0
	fmsubs 4,11,6,4
	.loc 2 164 0
	fmuls 5,5,0
	.loc 2 165 0
	fmuls 9,9,31
.LVL91:
	.loc 2 163 0
	fmuls 4,4,0
.LVL92:
.LBB1712:
.LBB1675:
	.loc 3 649 0
	fmuls 29,5,5
.LBE1675:
.LBE1712:
	.loc 2 165 0
	fmsubs 9,11,30,9
	.loc 2 170 0
	fmuls 6,10,6
.LVL93:
	.loc 3 649 0
	fmadds 29,4,4,29
	.loc 2 165 0
	fmuls 9,9,0
.LVL94:
	.loc 2 171 0
	fmuls 7,10,7
.LVL95:
	.loc 2 170 0
	fmsubs 6,13,3,6
	.loc 3 649 0
	fmadds 29,9,9,29
	.loc 2 171 0
	fmsubs 7,13,1,7
	.loc 2 172 0
	fmuls 10,10,30
.LVL96:
	.loc 3 649 0
	stfs 29,24(1)
.LVL97:
.LBB1713:
.LBB1676:
.LBB1664:
.LBB1653:
	.loc 6 275 0
	fmuls 1,29,2
.LVL98:
	.loc 6 270 0
	lwz 0,24(1)
.LVL99:
.LBE1653:
.LBE1664:
.LBE1676:
.LBE1713:
	.loc 2 171 0
	fmuls 7,7,0
	.loc 2 172 0
	fmsubs 31,13,31,10
.LVL100:
.LBB1714:
.LBB1677:
.LBB1665:
.LBB1654:
	.loc 6 276 0
	rlwinm 11,0,9,24,31
.LVL101:
	rlwinm 0,0,19,21,29
	lwzx 9,4,0
	subfic 0,11,380
	rlwinm 0,0,22,0,8
	.loc 2 92 0
	fneg 1,1
.LVL102:
	.loc 6 276 0
	or 0,0,9
.LBE1654:
.LBE1665:
.LBE1677:
.LBE1714:
	.loc 2 170 0
	fmuls 6,6,0
.LBB1715:
.LBB1678:
.LBB1666:
.LBB1655:
	.loc 6 277 0
	stw 0,56(1)
.LBE1655:
.LBE1666:
.LBE1678:
.LBE1715:
.LBB1716:
.LBB1717:
	.loc 3 649 0
	fmuls 10,7,7
.LBE1717:
.LBE1716:
	.loc 2 172 0
	fmuls 0,31,0
.LVL103:
.LBB1733:
.LBB1679:
.LBB1667:
.LBB1656:
	.loc 6 277 0
	lfs 11,56(1)
.LBE1656:
.LBE1667:
.LBE1679:
.LBE1733:
	.loc 3 649 0
	fmadds 10,6,6,10
.LBB1734:
.LBB1680:
.LBB1668:
.LBB1657:
	.loc 6 277 0
	fmr 3,11
.LVL104:
.LBE1657:
.LBE1668:
.LBE1680:
.LBE1734:
	.loc 3 649 0
	fmadds 10,0,0,10
.LBB1735:
.LBB1681:
.LBB1669:
.LBB1658:
	.loc 6 278 0
	fmul 11,3,3
.LVL105:
.LBE1658:
.LBE1669:
.LBE1681:
.LBE1735:
	.loc 3 649 0
	stfs 10,28(1)
.LBB1736:
.LBB1682:
.LBB1670:
.LBB1659:
	.loc 6 278 0
	fmadd 11,1,11,12
.LBE1659:
.LBE1670:
.LBE1682:
.LBE1736:
.LBB1737:
.LBB1728:
.LBB1718:
.LBB1719:
	.loc 6 270 0
	lwz 0,28(1)
	.loc 6 276 0
	rlwinm 9,0,9,24,31
	rlwinm 11,0,19,21,29
.LBE1719:
.LBE1718:
.LBE1728:
.LBE1737:
.LBB1738:
.LBB1683:
.LBB1671:
.LBB1660:
	.loc 6 278 0
	fmul 13,3,11
.LVL106:
.LBE1660:
.LBE1671:
.LBE1683:
.LBE1738:
.LBB1739:
.LBB1729:
.LBB1724:
.LBB1720:
	.loc 6 276 0
	subfic 0,9,380
	rlwinm 0,0,22,0,8
	.loc 6 275 0
	fmuls 3,10,2
.LBE1720:
.LBE1724:
.LBE1729:
.LBE1739:
.LBB1740:
.LBB1684:
.LBB1672:
.LBB1661:
	.loc 6 279 0
	fmul 11,13,13
.LBE1661:
.LBE1672:
.LBE1684:
.LBE1740:
.LBB1741:
.LBB1730:
.LBB1725:
.LBB1721:
	.loc 2 92 0
	fneg 3,3
.LBE1721:
.LBE1725:
.LBE1730:
.LBE1741:
.LBB1742:
.LBB1685:
.LBB1673:
.LBB1662:
	.loc 6 279 0
	fmadd 11,1,11,12
.LVL107:
	fmul 11,13,11
.LVL108:
	.loc 6 280 0
	frsp 11,11
.LVL109:
.LBE1662:
.LBE1673:
	.loc 3 654 0
	fmuls 13,29,11
	.loc 3 651 0
	fmuls 4,4,11
	.loc 3 652 0
	fmuls 5,5,11
.LBE1685:
.LBE1742:
	.loc 2 167 0
	fdivs 13,8,13
.LVL110:
.LBB1743:
.LBB1686:
	.loc 3 653 0
	fmuls 11,9,11
.LBE1686:
.LBE1743:
.LBB1744:
.LBB1745:
	.loc 3 439 0
	fmuls 4,13,4
	fmuls 5,13,5
	fmuls 13,13,11
.LVL111:
.LBE1745:
.LBE1744:
.LBB1746:
.LBB1747:
	.loc 3 424 0
	stfs 4,164(31)
	.loc 3 425 0
	stfs 5,168(31)
	.loc 3 426 0
	stfs 13,172(31)
.LVL112:
	.loc 2 541 0
	lwz 9,8(30)
.LVL113:
.LBE1747:
.LBE1746:
.LBB1748:
.LBB1749:
	.loc 3 435 0
	lfs 11,4(9)
.LBE1749:
.LBE1748:
	lfs 9,0(9)
.LBB1751:
.LBB1750:
	fmuls 5,5,11
.LVL114:
.LBE1750:
.LBE1751:
	lfs 10,8(9)
	.loc 2 168 0
	lfs 11,12(9)
	.loc 3 435 0
	fmadds 4,4,9,5
.LVL115:
	fmadds 13,13,10,4
.LVL116:
	.loc 2 168 0
	fsubs 13,11,13
	stfs 13,176(31)
.LVL117:
.LBB1752:
.LBB1731:
.LBB1726:
.LBB1722:
	.loc 6 276 0
	lwzx 9,4,11
	or 0,0,9
	.loc 6 277 0
	stw 0,56(1)
	lfs 11,56(1)
	fmr 10,11
.LVL118:
	.loc 6 278 0
	fmul 11,10,10
.LVL119:
	fmadd 11,3,11,12
	fmul 11,10,11
.LVL120:
.LBE1722:
.LBE1726:
	.loc 3 654 0
	lfs 10,28(1)
.LBB1727:
.LBB1723:
	.loc 6 279 0
	fmul 13,11,11
	fmadd 13,3,13,12
.LVL121:
	fmul 13,11,13
.LVL122:
	.loc 6 280 0
	frsp 13,13
.LVL123:
.LBE1723:
.LBE1727:
	.loc 3 654 0
	fmuls 12,10,13
	.loc 3 653 0
	fmuls 0,0,13
	.loc 3 651 0
	fmuls 6,6,13
.LBE1731:
.LBE1752:
	.loc 2 174 0
	fdivs 12,8,12
.LVL124:
.LBB1753:
.LBB1732:
	.loc 3 652 0
	fmuls 7,7,13
.LBE1732:
.LBE1753:
.LBB1754:
.LBB1755:
	.loc 3 439 0
	fmuls 6,12,6
	fmuls 7,12,7
	fmuls 12,12,0
.LVL125:
.LBE1755:
.LBE1754:
.LBB1756:
.LBB1757:
	.loc 3 424 0
	stfs 6,180(31)
	.loc 3 425 0
	stfs 7,184(31)
	.loc 3 426 0
	stfs 12,188(31)
.LVL126:
	.loc 2 541 0
	lwz 9,8(30)
.LVL127:
.LBE1757:
.LBE1756:
.LBB1758:
.LBB1759:
	.loc 3 435 0
	lfs 0,4(9)
.LBE1759:
.LBE1758:
	lfs 11,0(9)
.LBB1761:
.LBB1760:
	fmuls 7,7,0
.LVL128:
.LBE1760:
.LBE1761:
	lfs 13,8(9)
.LVL129:
	.loc 2 175 0
	lfs 0,16(9)
	.loc 3 435 0
	fmadds 6,6,11,7
.LVL130:
	fmadds 12,12,13,6
.LVL131:
	.loc 2 175 0
	fsubs 12,0,12
	stfs 12,192(31)
.LBE1774:
	.loc 2 178 0
	lwz 0,116(1)
	lwz 27,68(1)
	mtlr 0
	lwz 28,72(1)
	lwz 29,76(1)
.LVL132:
	lwz 30,80(1)
.LVL133:
	lwz 31,84(1)
.LVL134:
	lfd 29,88(1)
.LVL135:
	lfd 30,96(1)
.LVL136:
	lfd 31,104(1)
	addi 1,1,112
	.cfi_remember_state
	.cfi_restore 27
	.cfi_restore 28
	.cfi_restore 29
	.cfi_restore 30
	.cfi_restore 31
	.cfi_restore 61
	.cfi_restore 62
	.cfi_restore 63
.LCFI18:
	.cfi_def_cfa_offset 0
	blr
.LVL137:
.L105:
.LCFI19:
	.cfi_restore_state
.LBB1775:
.LBB1762:
.LBB1763:
	.loc 5 323 0
	lfs 9,12(31)
	lis 12,.LC4@ha
	.loc 5 324 0
	lfs 10,16(31)
	lis 4,_ZN6idMath5iSqrtE@ha
	.loc 5 325 0
	lfs 11,20(31)
	.loc 5 323 0
	fsubs 9,9,31
	.loc 5 326 0
	lfs 12,24(31)
	.loc 5 324 0
	fsubs 10,10,31
	.loc 5 327 0
	lfs 13,28(31)
	.loc 5 325 0
	fsubs 11,11,31
	.loc 5 328 0
	lfs 0,32(31)
	.loc 5 326 0
	fadds 12,12,31
	.loc 5 327 0
	fadds 13,13,31
	.loc 5 323 0
	stfs 9,12(31)
.LVL138:
	.loc 5 328 0
	fadds 0,0,31
	.loc 5 324 0
	stfs 10,16(31)
.LVL139:
	.loc 5 325 0
	stfs 11,20(31)
.LVL140:
	.loc 5 326 0
	stfs 12,24(31)
.LVL141:
	.loc 5 327 0
	stfs 13,28(31)
.LVL142:
	.loc 5 328 0
	stfs 0,32(31)
.LVL143:
	.loc 2 541 0
	lwz 7,4(30)
.LBE1763:
.LBE1762:
.LBB1764:
	.loc 2 123 0
	cmpwi 7,7,0
	ble- 7,.L106
	lis 3,.LC6@ha
.LBB1628:
.LBB1585:
.LBB1569:
.LBB1542:
.LBB1531:
.LBB1520:
	.loc 3 536 0
	lis 9,.LC7@ha
.LBE1520:
.LBE1531:
.LBE1542:
.LBE1569:
.LBE1585:
.LBE1628:
	.loc 2 123 0
	li 11,0
	li 8,0
	la 4,_ZN6idMath5iSqrtE@l(4)
	lis 28,.LC1@ha
.LBB1629:
.LBB1586:
.LBB1570:
.LBB1543:
.LBB1544:
.LBB1545:
.LBB1546:
	.loc 6 275 0
	lfs 5,.LC4@l(12)
.LBE1546:
.LBE1545:
.LBE1544:
.LBE1543:
.LBB1555:
.LBB1532:
.LBB1521:
	.loc 3 572 0
	lis 5,.LC2@ha
.LBE1521:
.LBE1532:
.LBE1555:
.LBB1556:
.LBB1551:
.LBB1549:
.LBB1547:
	.loc 6 278 0
	lfs 6,.LC6@l(3)
.LBE1547:
.LBE1549:
.LBE1551:
.LBE1556:
.LBB1557:
.LBB1533:
.LBB1522:
	.loc 3 536 0
	lfs 11,.LC7@l(9)
	b .L32
.LVL144:
.L107:
	.loc 3 537 0
	fcmpu 7,13,11
	bne- 7,.L47
	.loc 3 538 0
	fcmpu 7,10,11
	bng- 7,.L93
	.loc 3 539 0
	lfs 0,.LC1@l(28)
	fcmpu 7,10,0
	beq- 7,.L50
.L99:
	.loc 3 545 0
	stfs 0,8(9)
	stfs 0,32(1)
.L50:
.LBE1522:
.LBE1533:
.LBE1557:
.LBE1570:
.LBE1586:
.LBB1587:
.LBB1588:
	.loc 1 204 0
	lwz 8,8(30)
.LBE1588:
.LBE1587:
.LBB1590:
.LBB1591:
.LBB1592:
.LBB1593:
	.loc 3 435 0
	lfs 10,28(1)
.LBE1593:
.LBE1592:
.LBE1591:
.LBE1590:
.LBB1599:
.LBB1589:
	.loc 1 204 0
	add 10,8,11
.LVL145:
.LBE1589:
.LBE1599:
.LBB1600:
.LBB1598:
	.loc 3 435 0
	lfsx 12,8,11
.LBB1596:
.LBB1594:
	lfs 0,4(10)
.LBE1594:
.LBE1596:
	.loc 2 541 0
	addi 11,11,20
	.loc 3 435 0
	lfs 13,8(10)
.LBB1597:
.LBB1595:
	fmuls 0,10,0
.LBE1595:
.LBE1597:
	lfs 10,24(1)
	fmadds 0,12,10,0
	.loc 4 298 0
	lfs 12,32(1)
	fnmadds 0,13,12,0
	stfs 0,12(9)
.LVL146:
	.loc 2 541 0
	lwz 7,4(30)
.LBE1598:
.LBE1600:
.LBE1629:
	.loc 2 123 0
	cmpw 7,7,0
	ble- 7,.L33
	mr 8,0
.LVL147:
.L32:
.LBB1630:
	.loc 2 124 0 discriminator 2
	addi 0,8,1
	.loc 2 541 0 discriminator 2
	lwz 10,8(30)
.LVL148:
	.loc 2 124 0 discriminator 2
	divw 6,0,7
	.loc 2 125 0 discriminator 2
	addi 8,8,2
.LBB1601:
.LBB1602:
	.loc 1 204 0 discriminator 2
	add 9,10,11
.LBE1602:
.LBE1601:
.LBB1603:
.LBB1604:
	.loc 3 431 0 discriminator 2
	lfsx 10,10,11
	lfs 0,4(9)
.LBE1604:
.LBE1603:
	.loc 2 125 0 discriminator 2
	slwi 8,8,4
.LBB1608:
.LBB1605:
	.loc 3 431 0 discriminator 2
	lfs 13,8(9)
.LBE1605:
.LBE1608:
	.loc 2 125 0 discriminator 2
	add 8,31,8
	addi 9,8,4
	.loc 2 124 0 discriminator 2
	mullw 7,6,7
.LVL149:
	subf 7,7,0
.LBB1609:
.LBB1610:
	.loc 1 204 0 discriminator 2
	mulli 7,7,20
	add 6,10,7
.LVL150:
.LBE1610:
.LBE1609:
.LBB1611:
.LBB1606:
	.loc 3 431 0 discriminator 2
	lfs 9,4(6)
	lfs 12,8(6)
	fsubs 9,9,0
	lfsx 0,10,7
	fsubs 13,12,13
.LVL151:
.LBE1606:
.LBE1611:
.LBB1612:
.LBB1613:
	.loc 3 624 0 discriminator 2
	lfs 12,16(1)
.LBE1613:
.LBE1612:
.LBB1617:
.LBB1607:
	.loc 3 431 0 discriminator 2
	fsubs 0,0,10
.LVL152:
.LBE1607:
.LBE1617:
	.loc 3 624 0 discriminator 2
	lfs 10,12(1)
.LBB1618:
.LBB1614:
	fmuls 12,9,12
.LBE1614:
.LBE1618:
	fmsubs 12,13,10,12
.LBB1619:
.LBB1615:
	stfs 12,4(8)
	.loc 3 625 0 discriminator 2
	lfs 10,8(1)
	lfs 8,16(1)
	fmuls 13,13,10
.LVL153:
	fmsubs 13,0,8,13
	stfs 13,4(9)
.LBE1615:
.LBE1619:
.LBB1620:
.LBB1571:
.LBB1558:
.LBB1552:
	.loc 3 649 0 discriminator 2
	fmuls 8,13,13
.LBE1552:
.LBE1558:
.LBE1571:
.LBE1620:
.LBB1621:
.LBB1616:
	.loc 3 626 0 discriminator 2
	lfs 7,12(1)
	.loc 3 649 0 discriminator 2
	fmadds 8,12,12,8
	.loc 3 626 0 discriminator 2
	fmuls 0,0,7
.LVL154:
	fmsubs 0,9,10,0
	.loc 3 649 0 discriminator 2
	fmadds 8,0,0,8
	.loc 3 626 0 discriminator 2
	stfs 0,8(9)
.LVL155:
	.loc 3 649 0 discriminator 2
	stfs 8,24(1)
.LBE1616:
.LBE1621:
.LBB1622:
.LBB1572:
.LBB1559:
.LBB1553:
.LBB1550:
.LBB1548:
	.loc 6 275 0 discriminator 2
	fmuls 7,8,5
	.loc 6 270 0 discriminator 2
	lwz 10,24(1)
.LVL156:
	.loc 2 92 0 discriminator 2
	fneg 7,7
	.loc 6 276 0 discriminator 2
	rlwinm 6,10,9,24,31
.LVL157:
	rlwinm 10,10,19,21,29
	lwzx 7,4,10
	subfic 10,6,380
	rlwinm 10,10,22,0,8
	or 10,10,7
	.loc 6 277 0 discriminator 2
	stw 10,56(1)
	lfs 10,56(1)
	fmr 8,10
.LVL158:
	.loc 6 278 0 discriminator 2
	fmul 9,8,8
.LVL159:
	fmadd 9,7,9,6
	fmul 9,8,9
.LVL160:
	.loc 6 279 0 discriminator 2
	fmul 10,9,9
	fmadd 10,7,10,6
.LVL161:
	fmul 10,9,10
.LVL162:
	.loc 6 280 0 discriminator 2
	frsp 10,10
.LVL163:
.LBE1548:
.LBE1550:
	.loc 3 651 0 discriminator 2
	fmuls 12,12,10
	.loc 3 652 0 discriminator 2
	fmuls 13,13,10
	.loc 3 653 0 discriminator 2
	fmuls 10,0,10
	.loc 3 651 0 discriminator 2
	stfs 12,24(1)
.LBE1553:
.LBE1559:
.LBB1560:
.LBB1534:
.LBB1523:
	.loc 3 536 0 discriminator 2
	fcmpu 7,12,11
.LBE1523:
.LBE1534:
.LBE1560:
.LBB1561:
.LBB1554:
	.loc 3 652 0 discriminator 2
	stfs 13,28(1)
	.loc 3 651 0 discriminator 2
	lwz 7,24(1)
	.loc 3 653 0 discriminator 2
	stfs 10,32(1)
	.loc 3 651 0 discriminator 2
	stw 7,4(8)
	.loc 3 652 0 discriminator 2
	lwz 10,28(1)
	.loc 3 653 0 discriminator 2
	lwz 7,32(1)
	.loc 3 652 0 discriminator 2
	stw 10,4(9)
	.loc 3 653 0 discriminator 2
	stw 7,8(9)
.LVL164:
.LBE1554:
.LBE1561:
.LBB1562:
.LBB1535:
.LBB1524:
	.loc 3 536 0 discriminator 2
	beq- 7,.L107
	.loc 3 564 0
	lfs 13,28(1)
	fcmpu 6,13,11
	bne- 6,.L51
	.loc 3 565 0
	lfs 0,32(1)
	fcmpu 6,0,11
	bne- 6,.L51
	.loc 3 566 0
	bng- 7,.L95
	.loc 3 567 0
	lfs 0,.LC1@l(28)
	lfs 10,24(1)
	fcmpu 7,10,0
	beq- 7,.L50
.L101:
	.loc 3 573 0
	stfs 0,4(8)
	stfs 0,24(1)
	b .L50
.LVL165:
.L96:
.LBE1524:
.LBE1535:
.LBE1562:
.LBE1572:
.LBE1622:
.LBE1630:
.LBE1764:
.LBB1765:
.LBB1500:
.LBB1485:
.LBB1474:
.LBB1436:
.LBB1426:
.LBB1402:
.LBB1394:
	.loc 3 544 0
	lfs 12,.LC2@l(27)
	lfs 11,36(1)
	fcmpu 7,11,12
	beq- 7,.L65
.L102:
	.loc 3 545 0
	stfs 12,8(9)
	b .L65
.LVL166:
.L51:
.LBE1394:
.LBE1402:
.LBE1426:
.LBE1436:
.LBE1474:
.LBE1485:
.LBE1500:
.LBE1765:
.LBB1766:
.LBB1631:
.LBB1623:
.LBB1573:
.LBB1563:
.LBB1536:
.LBB1525:
.LBB1511:
.LBB1512:
	.loc 6 781 0
	lwz 7,24(1)
.LBE1512:
.LBE1511:
	.loc 3 580 0
	lfs 0,.LC1@l(28)
.LBB1514:
.LBB1513:
	.loc 6 781 0
	rlwinm 10,7,0,1,31
.LBE1513:
.LBE1514:
	.loc 3 580 0
	stw 10,56(1)
	lfs 10,56(1)
	fcmpu 7,10,0
	bne- 7,.L56
	.loc 3 581 0
	lfs 12,28(1)
	fcmpu 7,12,11
	bne- 7,.L57
	lfs 13,32(1)
	fcmpu 7,13,11
	beq- 7,.L50
.L57:
	.loc 3 582 0
	li 7,0
	stfs 11,8(9)
	stw 7,32(1)
	stfs 11,4(9)
	stw 7,28(1)
	b .L50
.LVL167:
.L61:
.LBE1525:
.LBE1536:
.LBE1563:
.LBE1573:
.LBE1623:
.LBE1631:
.LBE1766:
.LBB1767:
.LBB1501:
.LBB1486:
.LBB1475:
.LBB1437:
.LBB1427:
.LBB1403:
.LBB1395:
	.loc 3 564 0
	lfs 12,32(1)
	fcmpu 6,12,0
	bne- 6,.L66
	.loc 3 565 0
	lfs 10,36(1)
.LVL168:
	fcmpu 6,10,0
	bne- 6,.L66
	.loc 3 566 0
	bng- 7,.L98
	.loc 3 567 0
	lfs 12,.LC1@l(28)
	lfs 11,28(1)
	fcmpu 7,11,12
	beq- 7,.L65
	.loc 3 573 0
	stfs 12,4(8)
	b .L65
.L66:
.LVL169:
.LBB1383:
.LBB1384:
	.loc 6 781 0
	lwz 10,28(1)
.LBE1384:
.LBE1383:
	.loc 3 580 0
	lfs 12,.LC1@l(28)
.LBB1386:
.LBB1385:
	.loc 6 781 0
	rlwinm 0,10,0,1,31
.LBE1385:
.LBE1386:
	.loc 3 580 0
	stw 0,56(1)
	lfs 10,56(1)
	fcmpu 7,10,12
	bne- 7,.L71
	.loc 3 581 0
	lfs 11,32(1)
	fcmpu 7,11,0
	bne- 7,.L72
	lfs 12,36(1)
	fcmpu 7,12,0
	beq- 7,.L65
.L72:
	.loc 3 582 0
	stfs 0,8(9)
	stfs 0,4(9)
	b .L65
.L71:
.LVL170:
.LBB1387:
.LBB1388:
	.loc 6 781 0
	lwz 10,32(1)
	rlwinm 0,10,0,1,31
.LBE1388:
.LBE1387:
	.loc 3 586 0
	stw 0,56(1)
	lfs 10,56(1)
	fcmpu 7,10,12
	bne- 7,.L73
	.loc 3 587 0
	lfs 11,28(1)
	fcmpu 7,11,0
	bne- 7,.L74
	lfs 12,36(1)
	fcmpu 7,12,0
	beq- 7,.L65
.L74:
	.loc 3 588 0
	stfs 0,8(9)
	stfs 0,4(8)
	b .L65
.LVL171:
.L62:
	.loc 3 550 0
	lfs 12,36(1)
	fcmpu 6,12,0
	bne- 6,.L66
	.loc 3 551 0
	bng- 7,.L97
.LVL172:
.LBE1395:
.LBE1403:
.LBE1427:
.LBE1437:
.LBB1438:
.LBB1439:
.LBB1440:
.LBB1441:
.LBB1442:
.LBB1443:
	.loc 3 552 0
	lfs 12,.LC1@l(28)
	lfs 10,32(1)
	fcmpu 7,10,12
	beq- 7,.L65
.LBE1443:
.LBE1442:
.LBE1441:
.LBE1440:
.LBE1439:
.LBE1438:
.LBB1444:
.LBB1428:
.LBB1404:
.LBB1396:
	.loc 3 558 0
	stfs 12,4(9)
	b .L65
.LVL173:
.L56:
.LBE1396:
.LBE1404:
.LBE1428:
.LBE1444:
.LBE1475:
.LBE1486:
.LBE1501:
.LBE1767:
.LBB1768:
.LBB1632:
.LBB1624:
.LBB1574:
.LBB1564:
.LBB1537:
.LBB1526:
.LBB1515:
.LBB1516:
	.loc 6 781 0
	lwz 7,28(1)
	rlwinm 10,7,0,1,31
.LVL174:
.LBE1516:
.LBE1515:
	.loc 3 586 0
	stw 10,56(1)
	lfs 10,56(1)
	fcmpu 7,10,0
	bne- 7,.L58
	.loc 3 587 0
	lfs 12,24(1)
	fcmpu 7,12,11
	bne- 7,.L59
	lfs 13,32(1)
	fcmpu 7,13,11
	beq- 7,.L50
.L59:
	.loc 3 588 0
	li 7,0
	stfs 11,8(9)
	stw 7,32(1)
	stw 7,24(1)
	stfs 11,4(8)
	b .L50
.LVL175:
.L47:
	.loc 3 550 0
	lfs 0,32(1)
	fcmpu 6,0,11
	bne- 6,.L51
	.loc 3 551 0
	bng- 7,.L94
.LVL176:
.LBE1526:
.LBE1537:
.LBE1564:
.LBE1574:
.LBB1575:
.LBB1576:
.LBB1577:
.LBB1578:
.LBB1579:
.LBB1580:
	.loc 3 552 0
	lfs 0,.LC1@l(28)
	lfs 10,28(1)
	fcmpu 7,10,0
	beq- 7,.L50
.LVL177:
.L100:
.LBE1580:
.LBE1579:
.LBE1578:
.LBE1577:
.LBE1576:
.LBE1575:
.LBB1581:
.LBB1565:
.LBB1538:
.LBB1527:
	.loc 3 558 0
	stfs 0,4(9)
	stfs 0,28(1)
	b .L50
.LVL178:
.L58:
.LBB1517:
.LBB1518:
	.loc 6 781 0
	lwz 7,32(1)
	rlwinm 10,7,0,1,31
.LVL179:
.LBE1518:
.LBE1517:
	.loc 3 592 0
	stw 10,56(1)
	lfs 10,56(1)
	fcmpu 7,10,0
	bne- 7,.L50
	.loc 3 593 0
	lfs 12,24(1)
	fcmpu 7,12,11
	bne- 7,.L60
	lfs 13,28(1)
	fcmpu 7,13,11
	beq- 7,.L50
.L60:
	.loc 3 594 0
	li 7,0
	stfs 11,4(9)
	stw 7,28(1)
	stfs 11,4(8)
	stw 7,24(1)
	b .L50
.LVL180:
.L93:
	.loc 3 544 0
	lfs 0,.LC2@l(5)
	lfs 13,32(1)
	fcmpu 7,13,0
	beq- 7,.L50
	b .L99
.LVL181:
.L73:
.LBE1527:
.LBE1538:
.LBE1565:
.LBE1581:
.LBE1624:
.LBE1632:
.LBE1768:
.LBB1769:
.LBB1502:
.LBB1487:
.LBB1476:
.LBB1445:
.LBB1429:
.LBB1405:
.LBB1397:
.LBB1389:
.LBB1390:
	.loc 6 781 0
	lwz 10,36(1)
	rlwinm 0,10,0,1,31
.LVL182:
.LBE1390:
.LBE1389:
	.loc 3 592 0
	stw 0,56(1)
	lfs 10,56(1)
	fcmpu 7,10,12
	bne- 7,.L65
	.loc 3 593 0
	lfs 11,28(1)
	fcmpu 7,11,0
	bne- 7,.L75
	lfs 12,32(1)
	fcmpu 7,12,0
	beq- 7,.L65
.L75:
	.loc 3 594 0
	stfs 0,4(9)
	stfs 0,4(8)
	b .L65
.LVL183:
.L97:
	.loc 3 557 0
	lfs 12,.LC2@l(27)
	lfs 11,32(1)
	fcmpu 7,11,12
	beq- 7,.L65
	.loc 3 558 0
	stfs 12,4(9)
	b .L65
.LVL184:
.L95:
.LBE1397:
.LBE1405:
.LBE1429:
.LBE1445:
.LBE1476:
.LBE1487:
.LBE1502:
.LBE1769:
.LBB1770:
.LBB1633:
.LBB1625:
.LBB1582:
.LBB1566:
.LBB1539:
.LBB1528:
	.loc 3 572 0
	lfs 0,.LC2@l(5)
	lfs 12,24(1)
	fcmpu 7,12,0
	beq- 7,.L50
	b .L101
.LVL185:
.L98:
.LBE1528:
.LBE1539:
.LBE1566:
.LBE1582:
.LBE1625:
.LBE1633:
.LBE1770:
.LBB1771:
.LBB1503:
.LBB1488:
.LBB1477:
.LBB1446:
.LBB1430:
.LBB1406:
.LBB1398:
	lfs 12,.LC2@l(27)
	lfs 10,28(1)
	fcmpu 7,10,12
	beq- 7,.L65
	.loc 3 573 0
	stfs 12,4(8)
	b .L65
.LVL186:
.L94:
.LBE1398:
.LBE1406:
.LBE1430:
.LBE1446:
.LBE1477:
.LBE1488:
.LBE1503:
.LBE1771:
.LBB1772:
.LBB1634:
.LBB1626:
.LBB1583:
.LBB1567:
.LBB1540:
.LBB1529:
	.loc 3 557 0
	lfs 0,.LC2@l(5)
	lfs 12,28(1)
	fcmpu 7,12,0
	beq- 7,.L50
	b .L100
.LVL187:
.L106:
	la 4,_ZN6idMath5iSqrtE@l(4)
	lis 3,.LC6@ha
	lis 28,.LC1@ha
	b .L33
.LBE1529:
.LBE1540:
.LBE1567:
.LBE1583:
.LBE1626:
.LBE1634:
.LBE1772:
.LBE1775:
	.cfi_endproc
.LFE2581:
	.size	_ZN18idRenderModelDecal20CreateProjectionInfoER21decalProjectionInfo_sRK14idFixedWindingRK6idVec3bfPK10idMateriali, .-_ZN18idRenderModelDecal20CreateProjectionInfoER21decalProjectionInfo_sRK14idFixedWindingRK6idVec3bfPK10idMateriali
	.align 2
	.globl _ZN18idRenderModelDecal27GlobalProjectionInfoToLocalER21decalProjectionInfo_sRKS0_RK6idVec3RK6idMat3
	.type	_ZN18idRenderModelDecal27GlobalProjectionInfoToLocalER21decalProjectionInfo_sRKS0_RK6idVec3RK6idMat3, @function
_ZN18idRenderModelDecal27GlobalProjectionInfoToLocalER21decalProjectionInfo_sRKS0_RK6idVec3RK6idMat3:
.LFB2582:
	.loc 2 185 0
	.cfi_startproc
.LVL188:
	stwu 1,-144(1)
.LCFI20:
	.cfi_def_cfa_offset 144
	mflr 0
	stw 28,128(1)
	mr 28,5
	.cfi_offset 28, -16
	.cfi_register 65, 0
	stw 30,136(1)
	mr 30,4
	.cfi_offset 30, -8
	stw 31,140(1)
.LBB1776:
	.loc 2 188 0
	mr 4,5
.LVL189:
.LBE1776:
	.loc 2 185 0
	mr 31,3
	.cfi_offset 31, -4
.LBB1833:
	.loc 2 188 0
	addi 5,1,44
.LVL190:
	mr 3,6
.LVL191:
.LBE1833:
	.loc 2 185 0
	stw 27,124(1)
	stw 29,132(1)
.LBB1834:
	.loc 2 190 0
	li 27,0
	.cfi_offset 29, -12
	.cfi_offset 27, -20
.LBE1834:
	.loc 2 185 0
	stw 0,148(1)
	.loc 2 185 0
	mr 29,6
.LBB1835:
	.loc 2 188 0
	.cfi_offset 65, 4
	bl _Z19R_AxisToModelMatrixRK6idMat3RK6idVec3Pf
.LVL192:
.L109:
.LBB1777:
	.loc 2 191 0 discriminator 2
	addi 5,27,2
	addi 3,1,44
	slwi 5,5,4
	add 4,30,5
	add 5,31,5
	addi 4,4,4
	addi 5,5,4
	bl _Z20R_GlobalPlaneToLocalPKfRK7idPlaneRS1_
.LVL193:
	.loc 2 190 0 discriminator 2
	cmpwi 7,27,5
	addi 27,27,1
.LVL194:
	bne+ 7,.L109
.LBE1777:
	.loc 2 193 0
	addi 4,30,132
	addi 5,31,132
	addi 3,1,44
	bl _Z20R_GlobalPlaneToLocalPKfRK7idPlaneRS1_
	.loc 2 194 0
	addi 3,1,44
	addi 4,30,148
	addi 5,31,148
	bl _Z20R_GlobalPlaneToLocalPKfRK7idPlaneRS1_
	.loc 2 195 0
	addi 3,1,44
	addi 4,30,164
	addi 5,31,164
	bl _Z20R_GlobalPlaneToLocalPKfRK7idPlaneRS1_
	.loc 2 196 0
	addi 3,1,44
	addi 4,30,180
	addi 5,31,180
	bl _Z20R_GlobalPlaneToLocalPKfRK7idPlaneRS1_
	.loc 2 197 0
	addi 3,1,44
	mr 4,30
	mr 5,31
	bl _Z20R_GlobalPointToLocalPKfRK6idVec3RS1_
.LVL195:
.LBB1778:
.LBB1779:
.LBB1780:
	.loc 3 424 0
	lfs 6,12(30)
.LBE1780:
.LBE1779:
.LBE1778:
	.loc 2 200 0
	addi 3,31,12
.LBB1785:
.LBB1786:
	.loc 5 349 0
	lis 5,vec3_origin@ha
.LBE1786:
.LBE1785:
.LBB1789:
.LBB1783:
.LBB1781:
	.loc 3 424 0
	stfs 6,12(31)
.LBE1781:
.LBE1783:
.LBE1789:
.LBB1790:
.LBB1787:
	.loc 5 349 0
	addi 6,1,8
	mr 4,3
	la 5,vec3_origin@l(5)
.LBE1787:
.LBE1790:
.LBB1791:
.LBB1784:
.LBB1782:
	.loc 3 425 0
	lfs 7,16(30)
	stfs 7,16(31)
	.loc 3 426 0
	lfs 8,20(30)
	stfs 8,20(31)
.LVL196:
	.loc 3 424 0
	lfs 9,24(30)
	stfs 9,24(31)
	.loc 3 425 0
	lfs 11,28(30)
	stfs 11,28(31)
	.loc 3 426 0
	lfs 13,32(30)
	stfs 13,32(31)
.LVL197:
.LBE1782:
.LBE1784:
.LBE1791:
.LBB1792:
.LBB1793:
	.loc 3 420 0
	lfs 10,0(28)
	lfs 12,4(28)
	lfs 0,8(28)
.LVL198:
.LBE1793:
.LBE1792:
.LBB1794:
.LBB1795:
.LBB1796:
	.loc 3 456 0
	fsubs 6,6,10
	.loc 3 457 0
	fsubs 7,7,12
	.loc 3 458 0
	fsubs 8,8,0
.LBE1796:
.LBE1795:
.LBB1800:
.LBB1801:
	.loc 3 456 0
	fsubs 10,9,10
.LBE1801:
.LBE1800:
.LBB1805:
.LBB1797:
	stfs 6,12(31)
.LBE1797:
.LBE1805:
.LBB1806:
.LBB1802:
	.loc 3 457 0
	fsubs 12,11,12
.LBE1802:
.LBE1806:
.LBB1807:
.LBB1798:
	stfs 7,16(31)
.LBE1798:
.LBE1807:
.LBB1808:
.LBB1803:
	.loc 3 458 0
	fsubs 0,13,0
.LBE1803:
.LBE1808:
.LBB1809:
.LBB1799:
	stfs 8,20(31)
.LVL199:
.LBE1799:
.LBE1809:
.LBB1810:
.LBB1804:
	.loc 3 456 0
	stfs 10,24(31)
	.loc 3 457 0
	stfs 12,28(31)
	.loc 3 458 0
	stfs 0,32(31)
.LBE1804:
.LBE1810:
.LBE1794:
.LBB1811:
.LBB1812:
.LBB1813:
	.loc 3 402 0
	lwz 0,32(29)
.LBE1813:
.LBE1812:
.LBB1814:
.LBB1815:
	lwz 12,12(29)
.LVL200:
.LBE1815:
.LBE1814:
.LBB1816:
.LBB1817:
	lwz 28,24(29)
.LVL201:
.LBE1817:
.LBE1816:
.LBB1818:
.LBB1819:
	lwz 8,16(29)
.LBE1819:
.LBE1818:
.LBB1820:
.LBB1821:
	lwz 10,28(29)
.LBE1821:
.LBE1820:
.LBB1822:
.LBB1823:
	lwz 11,8(29)
.LBE1823:
.LBE1822:
.LBB1824:
.LBB1825:
	lwz 9,20(29)
.LBE1825:
.LBE1824:
.LBB1826:
.LBB1827:
	.file 7 "d:/Data/Nintendo/DoomGX/src/renderer/../idlib/../idlib/math/Matrix.h"
	.loc 7 425 0
	lwz 27,0(29)
.LVL202:
.LBE1827:
.LBE1826:
.LBB1829:
.LBB1830:
	.loc 3 402 0
	lwz 7,4(29)
.LVL203:
.LBE1830:
.LBE1829:
.LBB1831:
.LBB1828:
	.loc 7 425 0
	stw 27,8(1)
	stw 12,12(1)
	stw 28,16(1)
	.loc 7 426 0
	stw 7,20(1)
	.loc 7 427 0
	stw 0,40(1)
.LVL204:
	.loc 7 426 0
	stw 8,24(1)
	stw 10,28(1)
	.loc 7 427 0
	stw 11,32(1)
	stw 9,36(1)
.LBE1828:
.LBE1831:
.LBE1811:
.LBB1832:
.LBB1788:
	.loc 5 349 0
	bl _ZN8idBounds21FromTransformedBoundsERKS_RK6idVec3RK6idMat3
.LVL205:
.LBE1788:
.LBE1832:
	.loc 2 201 0
	lwz 0,196(30)
	stw 0,196(31)
	.loc 2 202 0
	lbz 0,200(30)
	stb 0,200(31)
	.loc 2 203 0
	lwz 0,204(30)
	stw 0,204(31)
	.loc 2 204 0
	lwz 0,208(30)
	stw 0,208(31)
	.loc 2 205 0
	lbz 0,212(30)
	stb 0,212(31)
.LBE1835:
	.loc 2 206 0
	lwz 0,148(1)
	lwz 27,124(1)
	mtlr 0
	lwz 28,128(1)
.LVL206:
	lwz 29,132(1)
.LVL207:
	lwz 30,136(1)
.LVL208:
	lwz 31,140(1)
.LVL209:
	addi 1,1,144
.LCFI21:
	.cfi_def_cfa_offset 0
	.cfi_restore 31
	.cfi_restore 30
	.cfi_restore 29
	.cfi_restore 28
	.cfi_restore 27
	blr
	.cfi_endproc
.LFE2582:
	.size	_ZN18idRenderModelDecal27GlobalProjectionInfoToLocalER21decalProjectionInfo_sRKS0_RK6idVec3RK6idMat3, .-_ZN18idRenderModelDecal27GlobalProjectionInfoToLocalER21decalProjectionInfo_sRKS0_RK6idVec3RK6idMat3
	.align 2
	.globl _ZN18idRenderModelDecal10AddWindingERK9idWindingPK10idMaterialPK7idPlanefi
	.type	_ZN18idRenderModelDecal10AddWindingERK9idWindingPK10idMaterialPK7idPlanefi, @function
_ZN18idRenderModelDecal10AddWindingERK9idWindingPK10idMaterialPK7idPlanefi:
.LFB2583:
	.loc 2 213 0
	.cfi_startproc
.LVL210:
	mflr 0
	stwu 1,-128(1)
.LCFI22:
	.cfi_def_cfa_offset 128
	.cfi_register 65, 0
	stfd 31,120(1)
	fmr 31,1
	.cfi_offset 63, -8
	stw 26,96(1)
	mr 26,5
	.cfi_offset 26, -32
	stw 27,100(1)
	mr 27,7
	.cfi_offset 27, -28
	stw 29,108(1)
	mr 29,6
	.cfi_offset 29, -20
	stw 30,112(1)
	mr 30,4
	.cfi_offset 30, -16
	stw 31,116(1)
	mr 31,3
	.cfi_offset 31, -12
	stw 0,132(1)
	stw 28,104(1)
.LBB1836:
.LBB1837:
	.loc 2 218 0
	lwz 0,0(31)
	.cfi_offset 28, -24
	.cfi_offset 65, 4
	cmpwi 7,0,0
	cmpw 6,0,26
	beq- 7,.L112
.LVL211:
.L133:
	.loc 2 218 0 is_stmt 0 discriminator 2
	beq- 6,.L112
.L113:
.LBE1837:
	.loc 2 267 0 is_stmt 1
	lwz 3,3172(31)
	cmpwi 7,3,0
	beq- 7,.L132
	.loc 2 271 0
	mr 31,3
.L135:
.LBB1905:
	.loc 2 218 0
	lwz 0,0(31)
	cmpwi 7,0,0
	cmpw 6,0,26
	bne+ 7,.L133
.L112:
	.loc 2 541 0 discriminator 1
	lwz 0,4(30)
	.loc 2 218 0 discriminator 1
	lwz 28,40(31)
	mulli 9,0,3
	add 0,28,0
	cmpwi 7,0,39
	addi 9,9,-6
	bgt- 7,.L113
	.loc 2 218 0 is_stmt 0 discriminator 4
	lwz 0,48(31)
	add 9,9,0
	cmpwi 7,9,59
	bgt- 7,.L113
.LBB1838:
	.loc 2 222 0 is_stmt 1
	stw 26,0(31)
.LVL212:
.LBB1839:
.LBB1840:
	.file 8 "d:/Data/Nintendo/DoomGX/src/renderer/../idlib/../renderer/Material.h"
	.loc 8 537 0
	addi 4,26,108
	li 5,40
	addi 3,1,8
	bl memcpy
	.loc 2 225 0
	addi 3,1,48
	addi 4,1,8
	li 5,40
	bl memcpy
.LBE1840:
.LBE1839:
	.loc 2 541 0
	lwz 0,4(30)
	.loc 2 226 0
	lis 9,.LC2@ha
.LBB1841:
	.loc 2 228 0
	cmpwi 7,0,0
.LBE1841:
	.loc 2 226 0
	lfs 7,.LC2@l(9)
	fdivs 7,7,31
.LVL213:
.LBB1902:
	.loc 2 228 0
	ble- 7,.L114
.LBB1842:
.LBB1843:
.LBB1844:
	.loc 1 204 0
	lwz 10,8(30)
	lis 9,.LC9@ha
.LBE1844:
.LBE1843:
.LBE1842:
	.loc 2 228 0
	li 8,0
.LBB1898:
.LBB1848:
.LBB1849:
	.loc 2 244 0
	lfs 12,.LC9@l(9)
.LBE1849:
.LBE1848:
.LBB1859:
.LBB1845:
	.loc 1 204 0
	add 9,10,8
.LBE1845:
.LBE1859:
.LBB1860:
.LBB1861:
	.loc 4 325 0
	lfs 0,4(29)
	lfs 10,4(9)
.LBE1861:
.LBE1860:
	.loc 2 230 0
	lis 7,.LC7@ha
.LBB1870:
.LBB1862:
	.loc 4 325 0
	lfs 9,0(29)
.LBE1862:
.LBE1870:
.LBE1898:
	.loc 2 228 0
	li 11,0
.LBB1899:
.LBB1871:
.LBB1863:
	.loc 4 325 0
	fmuls 0,10,0
	lfsx 13,10,8
	lfs 11,8(9)
.LBE1863:
.LBE1871:
	.loc 2 235 0
	lis 3,.LC8@ha
.LBB1872:
.LBB1864:
	.loc 4 325 0
	lfs 8,8(29)
.LBE1864:
.LBE1872:
	.loc 2 235 0
	lis 4,.LC1@ha
.LVL214:
.LBB1873:
.LBB1865:
	.loc 4 325 0
	fmadds 0,9,13,0
	lfs 9,12(29)
.LBE1865:
.LBE1873:
	.loc 2 230 0
	lfs 6,.LC7@l(7)
.LBB1874:
.LBB1866:
	.loc 4 325 0
	fmadds 0,8,11,0
	fadds 0,0,9
.LBE1866:
.LBE1874:
	.loc 2 229 0
	fmuls 0,7,0
.LVL215:
	.loc 2 230 0
	fcmpu 7,0,6
	bnl- 7,.L115
.LVL216:
.L134:
.LBB1875:
.LBB1876:
	.loc 4 325 0
	lfs 0,20(29)
.LVL217:
	lfs 8,16(29)
	fmuls 10,10,0
	lfs 0,24(29)
	lfs 9,28(29)
	fmadds 10,13,8,10
.LBE1876:
.LBE1875:
	.loc 2 233 0
	lfs 13,.LC1@l(4)
.LBB1878:
.LBB1877:
	.loc 4 325 0
	fmadds 0,11,0,10
	fadds 0,0,9
.LBE1877:
.LBE1878:
	.loc 2 231 0
	fmuls 0,7,0
.LVL218:
	.loc 2 233 0
	fcmpu 7,0,6
	bnl- 7,.L115
.LVL219:
.L117:
	.loc 2 239 0
	add 9,11,28
	.loc 2 242 0
	addi 10,1,52
	.loc 2 239 0
	addi 9,9,632
	slwi 9,9,2
	add 9,31,9
	stfs 13,4(9)
	.loc 2 240 0
	lwz 7,40(31)
.LBB1879:
.LBB1880:
	.loc 1 204 0
	lwz 6,8(30)
.LBE1880:
.LBE1879:
	.loc 2 240 0
	add 7,11,7
	lwz 9,44(31)
.LBB1882:
.LBB1883:
	.loc 3 424 0
	lwzx 0,6,8
.LBE1883:
.LBE1882:
	.loc 2 240 0
	mulli 7,7,60
.LBB1887:
.LBB1881:
	.loc 1 204 0
	add 6,6,8
.LBE1881:
.LBE1887:
.LBB1888:
.LBB1884:
	.loc 3 424 0
	stwx 0,9,7
.LBE1884:
.LBE1888:
	.loc 2 240 0
	add 7,9,7
.LVL220:
	.loc 2 243 0
	li 9,0
.LBB1889:
.LBB1885:
	.loc 3 425 0
	lwz 0,4(6)
	stw 0,4(7)
.LBE1885:
.LBE1889:
.LBB1890:
.LBB1856:
.LBB1850:
.LBB1851:
	.loc 6 825 0
	li 0,4
	mtctr 0
.LBE1851:
.LBE1850:
.LBE1856:
.LBE1890:
.LBB1891:
.LBB1886:
	.loc 3 426 0
	lwz 0,8(6)
	stw 0,8(7)
.LVL221:
.LBE1886:
.LBE1891:
	.loc 2 241 0
	lwz 7,40(31)
.LVL222:
	lwz 5,8(30)
	add 7,11,7
	lwz 6,44(31)
	add 5,5,8
	mulli 7,7,60
	lwz 0,12(5)
	add 7,6,7
	stw 0,12(7)
.LVL223:
	.loc 2 242 0
	lwz 7,40(31)
	lwz 5,8(30)
	add 7,11,7
	lwz 6,44(31)
	add 5,5,8
	mulli 7,7,60
	lwz 0,16(5)
	add 7,6,7
	stw 0,16(7)
.LVL224:
.L120:
.LBB1892:
.LBB1857:
	.loc 2 244 0
	lfsu 0,4(10)
.LVL225:
.LBB1854:
.LBB1852:
	.loc 6 825 0
	addi 7,1,88
.LBE1852:
.LBE1854:
	.loc 2 244 0
	fmuls 0,13,0
	fmuls 0,0,12
.LBB1855:
.LBB1853:
	.loc 6 825 0
	fctiwz 0,0
	stfiwx 0,0,7
	lwz 0,88(1)
	cmpwi 7,0,255
	ble- 7,.L118
	li 0,255
.L118:
.LVL226:
.LBE1853:
.LBE1855:
	.loc 2 250 0
	lwz 7,40(31)
	nor 6,0,0
	lwz 5,44(31)
	srawi 6,6,31
	add 7,11,7
	and 0,0,6
.LVL227:
	mulli 7,7,60
	add 7,5,7
	add 7,7,9
.LBE1857:
	.loc 2 243 0
	addi 9,9,1
.LVL228:
.LBB1858:
	.loc 2 250 0
	stb 0,56(7)
.LBE1858:
	.loc 2 243 0
	bdnz .L120
.LBE1892:
.LBE1899:
	.loc 2 541 0
	lwz 0,4(30)
	.loc 2 228 0
	addi 11,11,1
.LVL229:
	.loc 2 541 0
	addi 8,8,20
.LVL230:
	.loc 2 228 0
	cmpw 7,0,11
	ble- 7,.L121
.LBB1900:
.LBB1893:
.LBB1846:
	.loc 1 204 0
	lwz 10,8(30)
.LVL231:
.LBE1846:
.LBE1893:
.LBB1894:
.LBB1867:
	.loc 4 325 0
	lfs 0,4(29)
.LBE1867:
.LBE1894:
.LBB1895:
.LBB1847:
	.loc 1 204 0
	add 9,10,8
.LVL232:
.LBE1847:
.LBE1895:
.LBB1896:
.LBB1868:
	.loc 4 325 0
	lfs 9,0(29)
	lfs 10,4(9)
	lfsx 13,10,8
.LVL233:
	fmuls 0,10,0
	lfs 11,8(9)
	lfs 8,8(29)
.LBE1868:
.LBE1896:
.LBE1900:
	.loc 2 228 0
	lwz 28,40(31)
.LVL234:
.LBB1901:
.LBB1897:
.LBB1869:
	.loc 4 325 0
	fmadds 0,9,13,0
	lfs 9,12(29)
	fmadds 0,8,11,0
	fadds 0,0,9
.LBE1869:
.LBE1897:
	.loc 2 229 0
	fmuls 0,7,0
.LVL235:
	.loc 2 230 0
	fcmpu 7,0,6
	blt- 7,.L134
.LVL236:
.L115:
	.loc 2 235 0
	lfs 11,.LC8@l(3)
	lis 9,.LC7@ha
.LVL237:
	lfs 13,.LC7@l(9)
	fcmpu 7,0,11
	bgt- 7,.L117
	lfs 13,.LC1@l(4)
	fsubs 13,13,0
	b .L117
.LVL238:
.L132:
.LBE1901:
.LBE1902:
.LBE1838:
.LBE1905:
	.loc 2 268 0
	bl _ZN18idRenderModelDecal5AllocEv
	stw 3,3172(31)
	.loc 2 271 0
	mr 31,3
	b .L135
.LVL239:
.L121:
.LBB1906:
.LBB1904:
	.loc 2 253 0
	cmpwi 7,0,2
.LBB1903:
	.loc 2 228 0
	lwz 28,40(31)
.LVL240:
.LBE1903:
	.loc 2 253 0
	ble- 7,.L114
	lwz 11,48(31)
.LVL241:
	li 9,2
.LVL242:
.L124:
	.loc 2 254 0 discriminator 2
	lwz 10,52(31)
	slwi 11,11,2
	stwx 28,10,11
	.loc 2 255 0 discriminator 2
	lwz 8,48(31)
	lwz 10,40(31)
	lwz 11,52(31)
	addi 0,8,1
	add 10,9,10
	slwi 0,0,2
	addi 10,10,-1
	stwx 10,11,0
	.loc 2 256 0 discriminator 2
	lwz 8,48(31)
	lwz 10,40(31)
	lwz 11,52(31)
	addi 0,8,2
	add 10,10,9
	slwi 0,0,2
	stwx 10,11,0
	.loc 2 253 0 discriminator 2
	addi 9,9,1
.LVL243:
	.loc 2 258 0 discriminator 2
	lwz 11,48(31)
	.loc 2 259 0 discriminator 2
	addi 7,11,734
	addi 8,11,733
	addi 10,11,732
	slwi 7,7,2
	slwi 8,8,2
	slwi 10,10,2
	add 7,31,7
	add 8,31,8
	add 10,31,10
	.loc 2 260 0 discriminator 2
	addi 11,11,3
	.loc 2 259 0 discriminator 2
	stw 27,4(7)
	stw 27,4(8)
	stw 27,4(10)
	.loc 2 260 0 discriminator 2
	stw 11,48(31)
	.loc 2 253 0 discriminator 2
	lwz 28,40(31)
	.loc 2 541 0 discriminator 2
	lwz 0,4(30)
	.loc 2 253 0 discriminator 2
	cmpw 7,0,9
	bgt+ 7,.L124
.LVL244:
.L114:
	.loc 2 262 0
	add 0,0,28
	stw 0,40(31)
.LBE1904:
.LBE1906:
.LBE1836:
	.loc 2 272 0
	lwz 0,132(1)
	lwz 26,96(1)
.LVL245:
	mtlr 0
	lwz 27,100(1)
.LVL246:
	lwz 28,104(1)
	lwz 29,108(1)
.LVL247:
	lwz 30,112(1)
.LVL248:
	lwz 31,116(1)
	lfd 31,120(1)
.LVL249:
	addi 1,1,128
.LCFI23:
	.cfi_def_cfa_offset 0
	.cfi_restore 63
	.cfi_restore 31
	.cfi_restore 30
	.cfi_restore 29
	.cfi_restore 28
	.cfi_restore 27
	.cfi_restore 26
	blr
	.cfi_endproc
.LFE2583:
	.size	_ZN18idRenderModelDecal10AddWindingERK9idWindingPK10idMaterialPK7idPlanefi, .-_ZN18idRenderModelDecal10AddWindingERK9idWindingPK10idMaterialPK7idPlanefi
	.align 2
	.globl _ZN18idRenderModelDecal20AddDepthFadedWindingERK9idWindingPK10idMaterialPK7idPlanefi
	.type	_ZN18idRenderModelDecal20AddDepthFadedWindingERK9idWindingPK10idMaterialPK7idPlanefi, @function
_ZN18idRenderModelDecal20AddDepthFadedWindingERK9idWindingPK10idMaterialPK7idPlanefi:
.LFB2584:
	.loc 2 279 0
	.cfi_startproc
	.cfi_personality 0,__gxx_personality_v0
	.cfi_lsda 0,.LLSDA2584
.LVL250:
	mflr 0
	stwu 1,-2640(1)
.LCFI24:
	.cfi_def_cfa_offset 2640
	.cfi_register 65, 0
.LVL251:
.LBB1936:
.LBB1937:
.LBB1938:
	.loc 1 307 0
	lis 9,_ZTV14idFixedWinding+8@ha
.LBB1939:
.LBB1940:
	.loc 1 133 0
	li 11,0
.LBE1940:
.LBE1939:
.LBE1938:
.LBE1937:
.LBE1936:
	.loc 2 279 0
	stfd 31,2632(1)
.LBB1980:
.LBB1949:
.LBB1943:
	.loc 1 307 0
	la 9,_ZTV14idFixedWinding+8@l(9)
.LBE1943:
.LBE1949:
.LBE1980:
	.loc 2 279 0
	stw 0,2644(1)
.LBB1981:
.LBB1950:
.LBB1944:
	.loc 1 309 0
	addi 10,1,1320
.LBE1944:
.LBE1950:
.LBE1981:
	.loc 2 279 0
	stw 25,2604(1)
.LBB1982:
.LBB1951:
.LBB1945:
	.loc 1 310 0
	li 0,64
	.cfi_offset 25, -36
	.cfi_offset 65, 4
	.cfi_offset 63, -8
.LBE1945:
.LBE1951:
.LBE1982:
	.loc 2 279 0
	stw 26,2608(1)
	mr 25,3
	stw 27,2612(1)
	mr 26,5
	.cfi_offset 27, -28
	.cfi_offset 26, -32
	stw 29,2620(1)
	fmr 31,1
	stw 30,2624(1)
.LBB1983:
.LBB1952:
.LBB1946:
	.loc 1 307 0
	mr 30,1
	.cfi_offset 30, -16
	.cfi_offset 29, -20
.LBE1946:
.LBE1952:
.LBE1983:
	.loc 2 279 0
	stw 31,2628(1)
	mr 31,4
	.cfi_offset 31, -12
	stw 28,2616(1)
	.loc 2 279 0
	mr 29,6
.LBB1984:
.LBB1953:
.LBB1947:
	.loc 1 307 0
	stwu 9,1304(30)
.LBE1947:
.LBE1953:
.LBE1984:
	.loc 2 279 0
	mr 27,7
.LBB1985:
.LBB1954:
	.loc 2 541 0
	lwz 4,4(4)
.LVL252:
.LBE1954:
.LBB1969:
.LBB1970:
	.loc 1 307 0
	stw 9,8(1)
	.loc 1 309 0
	addi 9,1,24
.LBE1970:
.LBE1969:
.LBB1974:
.LBB1955:
.LBB1956:
.LBB1957:
	.loc 1 260 0
	cmpwi 7,4,64
.LBE1957:
.LBE1956:
.LBE1955:
.LBE1974:
.LBB1975:
.LBB1948:
.LBB1942:
.LBB1941:
	.loc 1 133 0
	stw 11,1308(1)
.LBE1941:
.LBE1942:
	.loc 1 309 0
	stw 10,1312(1)
	.loc 1 310 0
	stw 0,1316(1)
.LVL253:
.LBE1948:
.LBE1975:
.LBB1976:
.LBB1973:
.LBB1971:
.LBB1972:
	.loc 1 133 0
	stw 11,12(1)
.LBE1972:
.LBE1971:
	.loc 1 309 0
	stw 9,16(1)
	.loc 1 310 0
	stw 0,20(1)
.LVL254:
.LBE1973:
.LBE1976:
.LBB1977:
.LBB1964:
.LBB1962:
.LBB1960:
	.loc 1 260 0
	bgt- 7,.L154
	.cfi_offset 28, -24
.LVL255:
.L137:
.LBE1960:
.LBE1962:
	.loc 1 391 0
	cmpwi 7,4,0
	li 10,0
	li 8,0
	ble- 7,.L140
.LVL256:
.L151:
	.loc 1 392 0
	lwz 9,8(31)
	.loc 1 391 0
	addi 8,8,1
.LVL257:
	.loc 1 392 0
	lwz 7,1312(1)
	lwzux 4,9,10
	add 11,7,10
	lwz 0,12(9)
	lwz 5,4(9)
	lwz 6,8(9)
	stwx 4,7,10
.LBE1964:
	.loc 2 541 0
	addi 10,10,20
.LBB1965:
	.loc 1 392 0
	stw 5,4(11)
	stw 6,8(11)
	stw 0,12(11)
	lwz 0,16(9)
	stw 0,16(11)
.LBE1965:
	.loc 2 541 0
	lwz 4,4(31)
.LBB1966:
	.loc 1 391 0
	cmpw 7,8,4
	blt+ 7,.L151
.LVL258:
.L140:
	.loc 1 394 0
	stw 4,1308(1)
.L141:
.LBE1966:
.LBE1977:
	.loc 2 283 0
	lis 31,.LC10@ha
.LVL259:
	addi 28,1,8
	lfs 1,.LC10@l(31)
	mr 3,30
	mr 4,28
	mr 5,29
.LEHB3:
	bl _ZN14idFixedWinding5SplitEPS_RK7idPlanef
	cmpwi 7,3,3
	beq- 7,.L155
.L142:
	.loc 2 287 0
	lfs 1,.LC10@l(31)
	mr 3,30
	mr 4,28
	addi 5,29,16
	bl _ZN14idFixedWinding5SplitEPS_RK7idPlanef
	cmpwi 7,3,3
	beq- 7,.L156
.L143:
	.loc 2 291 0
	fmr 1,31
	mr 3,25
	mr 4,30
	mr 5,26
	mr 6,29
	mr 7,27
	bl _ZN18idRenderModelDecal10AddWindingERK9idWindingPK10idMaterialPK7idPlanefi
.LBE1985:
	.loc 2 292 0
	lwz 0,2644(1)
	lwz 25,2604(1)
.LVL260:
	mtlr 0
	lwz 26,2608(1)
.LVL261:
	lwz 27,2612(1)
.LVL262:
	lwz 28,2616(1)
	lwz 29,2620(1)
.LVL263:
	lwz 30,2624(1)
	lwz 31,2628(1)
	lfd 31,2632(1)
.LVL264:
	addi 1,1,2640
	.cfi_remember_state
.LCFI25:
	.cfi_def_cfa_offset 0
	.cfi_restore 63
	.cfi_restore 31
	.cfi_restore 30
	.cfi_restore 29
	.cfi_restore 28
	.cfi_restore 27
	.cfi_restore 26
	.cfi_restore 25
	blr
.LVL265:
.L154:
.LCFI26:
	.cfi_restore_state
.LBB1986:
.LBB1978:
.LBB1967:
.LBB1963:
.LBB1961:
.LBB1958:
.LBB1959:
	.loc 1 261 0
	mr 3,30
.LVL266:
	li 5,0
.LVL267:
	addi 28,1,8
	bl _ZN14idFixedWinding10ReAllocateEib
.LVL268:
.LBE1959:
.LBE1958:
.LBE1961:
.LBE1963:
	.loc 1 387 0
	cmpwi 0,3,0
	bne- 0,.L157
	.loc 1 388 0
	stw 3,1308(1)
	b .L141
.LVL269:
.L156:
.LBE1967:
.LBE1978:
	.loc 2 288 0
	fmr 1,31
	mr 3,25
	mr 4,28
	mr 5,26
	mr 6,29
	mr 7,27
	bl _ZN18idRenderModelDecal10AddWindingERK9idWindingPK10idMaterialPK7idPlanefi
	b .L143
.L155:
	.loc 2 284 0
	fmr 1,31
	mr 3,25
	mr 4,28
	mr 5,26
	mr 6,29
	mr 7,27
	bl _ZN18idRenderModelDecal10AddWindingERK9idWindingPK10idMaterialPK7idPlanefi
.LEHE3:
	b .L142
.LVL270:
.L157:
.LBB1979:
.LBB1968:
	.loc 1 387 0
	lwz 4,4(31)
	b .L137
.LVL271:
.L150:
	mr 31,3
.LBE1968:
.LBE1979:
	.loc 2 291 0
	mr 3,28
	bl _ZN14idFixedWindingD1Ev
	mr 3,30
	bl _ZN14idFixedWindingD1Ev
	mr 3,31
.LEHB4:
	bl _Unwind_Resume
.LEHE4:
.LBE1986:
	.cfi_endproc
.LFE2584:
	.section	.gcc_except_table
.LLSDA2584:
	.byte	0xff
	.byte	0xff
	.byte	0x1
	.uleb128 .LLSDACSE2584-.LLSDACSB2584
.LLSDACSB2584:
	.uleb128 .LEHB3-.LFB2584
	.uleb128 .LEHE3-.LEHB3
	.uleb128 .L150-.LFB2584
	.uleb128 0
	.uleb128 .LEHB4-.LFB2584
	.uleb128 .LEHE4-.LEHB4
	.uleb128 0
	.uleb128 0
.LLSDACSE2584:
	.section	".text"
	.size	_ZN18idRenderModelDecal20AddDepthFadedWindingERK9idWindingPK10idMaterialPK7idPlanefi, .-_ZN18idRenderModelDecal20AddDepthFadedWindingERK9idWindingPK10idMaterialPK7idPlanefi
	.align 2
	.globl _ZN18idRenderModelDecal11CreateDecalEPK13idRenderModelRK21decalProjectionInfo_s
	.type	_ZN18idRenderModelDecal11CreateDecalEPK13idRenderModelRK21decalProjectionInfo_s, @function
_ZN18idRenderModelDecal11CreateDecalEPK13idRenderModelRK21decalProjectionInfo_s:
.LFB2585:
	.loc 2 299 0
	.cfi_startproc
	.cfi_personality 0,__gxx_personality_v0
	.cfi_lsda 0,.LLSDA2585
.LVL272:
	mflr 0
	stwu 1,-1424(1)
.LCFI27:
	.cfi_def_cfa_offset 1424
	.cfi_register 65, 0
	stfd 31,1416(1)
	stw 0,1428(1)
.LBB2096:
.LBB2097:
	.loc 2 326 0
	addi 0,5,36
	.cfi_offset 65, 4
	.cfi_offset 63, -8
.LBE2097:
.LBE2096:
	.loc 2 299 0
	stw 14,1336(1)
.LBB2273:
.LBB2260:
.LBB2098:
.LBB2099:
.LBB2100:
.LBB2101:
.LBB2102:
.LBB2103:
.LBB2104:
	.loc 1 183 0
	lis 14,_ZTV9idWinding+8@ha
	.cfi_offset 14, -88
.LBE2104:
.LBE2103:
.LBE2102:
.LBE2101:
.LBE2100:
.LBE2099:
.LBE2098:
.LBE2260:
.LBE2273:
	.loc 2 299 0
	stw 15,1340(1)
.LBB2274:
.LBB2261:
.LBB2247:
.LBB2233:
.LBB2113:
.LBB2114:
	.loc 1 307 0
	lis 15,_ZTV14idFixedWinding+8@ha
	.cfi_offset 15, -84
.LBE2114:
.LBE2113:
.LBE2233:
.LBE2247:
.LBE2261:
.LBE2274:
	.loc 2 299 0
	stw 16,1344(1)
.LBB2275:
.LBB2262:
.LBB2248:
.LBB2234:
.LBB2120:
.LBB2115:
	.loc 1 307 0
	la 15,_ZTV14idFixedWinding+8@l(15)
.LBE2115:
.LBE2120:
.LBE2234:
.LBE2248:
.LBE2262:
.LBE2275:
	.loc 2 299 0
	stw 19,1356(1)
.LBB2276:
.LBB2263:
.LBB2249:
.LBB2235:
.LBB2121:
	.loc 2 373 0
	lis 16,.LC10@ha
	.cfi_offset 19, -68
	.cfi_offset 16, -80
.LBE2121:
.LBE2235:
.LBE2249:
.LBE2263:
.LBE2276:
	.loc 2 299 0
	stw 20,1360(1)
.LBB2277:
	.loc 2 302 0
	li 20,0
	.cfi_offset 20, -64
.LVL273:
.LBE2277:
	.loc 2 299 0
	stw 21,1364(1)
	mr 21,4
	.cfi_offset 21, -60
	stw 30,1400(1)
	mr 30,5
	.cfi_offset 30, -24
	stw 31,1404(1)
.LBB2278:
.LBB2264:
.LBB2250:
.LBB2236:
	.loc 2 383 0
	addi 9,30,132
.LBE2236:
.LBE2250:
.LBE2264:
.LBE2278:
	.loc 2 299 0
	stfd 30,1408(1)
	mr 31,1
	.cfi_offset 62, -16
	.cfi_offset 31, -20
.LCFI28:
	.cfi_def_cfa_register 31
	stw 17,1348(1)
.LBB2279:
.LBB2265:
.LBB2251:
.LBB2237:
.LBB2128:
.LBB2129:
.LBB2130:
.LBB2131:
.LBB2132:
	.loc 3 1127 0
	lis 5,.LC7@ha
.LVL274:
.LBE2132:
.LBE2131:
.LBE2130:
.LBE2129:
.LBE2128:
.LBE2237:
.LBE2251:
.LBE2265:
.LBE2279:
	.loc 2 299 0
	stw 18,1352(1)
.LBB2280:
.LBB2266:
.LBB2252:
.LBB2238:
.LBB2203:
.LBB2116:
	.loc 1 309 0
	addi 19,31,40
.LBE2116:
.LBE2203:
.LBE2238:
.LBE2252:
.LBE2266:
.LBE2280:
	.loc 2 299 0
	stw 22,1368(1)
.LBB2281:
.LBB2267:
.LBB2253:
.LBB2239:
.LBB2204:
.LBB2111:
.LBB2109:
.LBB2107:
.LBB2105:
	.loc 1 183 0
	la 14,_ZTV9idWinding+8@l(14)
.LBE2105:
.LBE2107:
.LBE2109:
.LBE2111:
.LBE2204:
.LBE2239:
.LBE2253:
.LBE2267:
.LBE2281:
	.loc 2 299 0
	stw 23,1372(1)
	stw 24,1376(1)
	stw 25,1380(1)
	stw 26,1384(1)
	stw 27,1388(1)
	stw 28,1392(1)
	stw 29,1396(1)
.LBB2282:
.LBB2268:
.LBB2254:
.LBB2240:
	.loc 2 383 0
	stw 9,1324(31)
.LBE2240:
.LBE2254:
.LBE2268:
	.loc 2 302 0
	lwz 9,0(21)
.LBB2269:
	.loc 2 326 0
	stw 0,1328(31)
.LBE2269:
	.loc 2 302 0
	lwz 0,88(9)
.LBE2282:
	.loc 2 299 0
	stw 3,1320(31)
.LBB2283:
	.loc 2 302 0
	mr 3,21
.LVL275:
	mtctr 0
.LBB2270:
.LBB2255:
.LBB2241:
.LBB2205:
.LBB2183:
.LBB2179:
.LBB2136:
.LBB2133:
	.loc 3 1127 0
	lfs 31,.LC7@l(5)
.LEHB5:
.LBE2133:
.LBE2136:
.LBE2179:
.LBE2183:
.LBE2205:
.LBE2241:
.LBE2255:
.LBE2270:
	.loc 2 302 0
	.cfi_offset 29, -28
	.cfi_offset 28, -32
	.cfi_offset 27, -36
	.cfi_offset 26, -40
	.cfi_offset 25, -44
	.cfi_offset 24, -48
	.cfi_offset 23, -52
	.cfi_offset 22, -56
	.cfi_offset 18, -72
	.cfi_offset 17, -76
	bctrl
.LVL276:
	cmpw 7,20,3
	bge- 7,.L190
.L177:
.LBB2271:
	.loc 2 303 0
	lwz 9,0(21)
	mr 3,21
	mr 4,20
	lwz 0,96(9)
	mtctr 0
	bctrl
.LVL277:
	.loc 2 306 0
	lwz 28,8(3)
	cmpwi 7,28,0
	beq- 7,.L160
	.loc 2 306 0 is_stmt 0 discriminator 1
	lwz 9,4(3)
	cmpwi 7,9,0
	beq- 7,.L160
	.loc 2 311 0 is_stmt 1
	lbz 0,212(30)
	cmpwi 7,0,0
	bne- 7,.L161
	.loc 2 311 0 is_stmt 0 discriminator 1
	lbz 0,206(9)
	cmpwi 7,0,0
	beq- 7,.L160
.L161:
.LVL278:
.LBB2256:
.LBB2257:
	.loc 5 362 0 is_stmt 1
	lfs 13,12(28)
	lfs 0,12(30)
	fcmpu 7,13,0
	blt- 7,.L160
.LVL279:
	lfs 13,16(28)
	lfs 0,16(30)
	fcmpu 7,13,0
	blt- 7,.L160
.LVL280:
	lfs 13,20(28)
	lfs 0,20(30)
	fcmpu 7,13,0
	blt- 7,.L160
.LVL281:
	lfs 13,0(28)
	lfs 0,24(30)
	fcmpu 7,13,0
	bgt- 7,.L160
.LVL282:
	lfs 13,4(28)
	lfs 0,28(30)
	fcmpu 7,13,0
	bgt- 7,.L160
.LVL283:
	lfs 13,8(28)
	lfs 0,32(30)
	fcmpu 7,13,0
	bgt- 7,.L160
.LBE2257:
.LBE2256:
	.loc 2 323 0
	lwz 11,36(28)
	.loc 2 326 0
	lis 5,SIMDProcessor@ha
	.loc 2 323 0
	lwz 9,0(1)
	addi 0,11,45
	.loc 2 326 0
	lwz 3,SIMDProcessor@l(5)
.LVL284:
	.loc 2 323 0
	rlwinm 0,0,0,0,27
	.loc 2 326 0
	lwz 5,1328(31)
	.loc 2 323 0
	neg 0,0
	stwux 9,1,0
	.loc 2 326 0
	lwz 9,0(3)
	.loc 2 323 0
	addi 27,1,23
	rlwinm 27,27,0,0,27
.LVL285:
	.loc 2 326 0
	lwz 6,40(28)
	lwz 0,264(9)
	mr 4,27
	lwz 7,36(28)
	mtctr 0
	bctrl
.LEHE5:
.LVL286:
.LBB2258:
	.loc 2 329 0
	lwz 6,44(28)
	cmpwi 7,6,0
	ble- 7,.L160
	li 24,0
	li 25,0
	li 26,0
.LBB2242:
.LBB2206:
.LBB2117:
	.loc 1 310 0
	li 17,64
.LBE2117:
.LBE2206:
.LBB2207:
.LBB2208:
	.loc 1 246 0
	li 18,3
.LVL287:
.L176:
.LBE2208:
.LBE2207:
	.loc 2 330 0
	lwz 9,48(28)
.LVL288:
	.loc 2 335 0
	mr 11,9
	lwzux 0,11,25
	lwz 10,4(11)
	lwz 8,8(11)
	lbzx 5,27,10
	lbzx 7,27,8
	lbzx 11,27,0
	and 7,5,7
	and. 5,7,11
	bne- 0,.L175
	.loc 2 340 0
	lwz 11,80(28)
	cmpwi 7,11,0
	beq- 7,.L164
	.loc 2 340 0 is_stmt 0 discriminator 1
	lbz 7,30(28)
	cmpwi 7,7,0
	beq- 7,.L164
	.loc 2 341 0 is_stmt 1 discriminator 3
	add 7,11,24
.LVL289:
.LBB2210:
.LBB2211:
	.loc 3 435 0 discriminator 3
	lfs 0,104(30)
	lfs 13,4(7)
.LBE2211:
.LBE2210:
	lfsx 12,11,24
	.loc 2 340 0 discriminator 3
	lis 11,.LC11@ha
.LBB2213:
.LBB2212:
	.loc 3 435 0 discriminator 3
	fmuls 0,13,0
.LBE2212:
.LBE2213:
	lfs 13,100(30)
	lfs 11,8(7)
	fmadds 12,12,13,0
	lfs 13,108(30)
	.loc 2 340 0 discriminator 3
	lfs 0,.LC11@l(11)
	.loc 3 435 0 discriminator 3
	fmadds 13,11,13,12
	.loc 2 340 0 discriminator 3
	fcmpu 7,13,0
	blt- 7,.L175
.LVL290:
.L164:
.LBB2214:
	.loc 2 348 0
	lbz 11,200(30)
	mr 6,25
.LBE2214:
.LBB2215:
.LBB2118:
	.loc 1 307 0
	stw 15,24(31)
.LBE2118:
.LBE2215:
.LBB2216:
	.loc 1 309 0
	mr 7,19
	.loc 2 348 0
	cmpwi 7,11,0
	addi 23,31,24
.LBE2216:
.LBB2217:
.LBB2119:
	.loc 1 309 0
	stw 19,32(31)
	.loc 1 310 0
	stw 17,36(31)
.LVL291:
.LBE2119:
.LBE2217:
.LBB2218:
.LBB2209:
	.loc 1 246 0
	stw 18,28(31)
.LBE2209:
.LBE2218:
.LBB2219:
	.loc 2 348 0
	beq- 7,.L181
	li 11,0
	.loc 1 309 0
	mr 7,19
	addi 23,31,24
.L180:
.LBB2184:
	.loc 2 350 0 discriminator 2
	lwzx 5,9,6
.LBB2185:
.LBB2186:
	.loc 1 209 0 discriminator 2
	add 9,7,11
.LBE2186:
.LBE2185:
	.loc 2 350 0 discriminator 2
	lwz 3,40(28)
	.loc 2 349 0 discriminator 2
	cmpwi 7,11,40
	.loc 2 350 0 discriminator 2
	mulli 5,5,60
	.loc 2 352 0 discriminator 2
	addi 6,6,4
.LBB2187:
.LBB2188:
	.loc 3 1124 0 discriminator 2
	lwzx 4,3,5
.LBE2188:
.LBE2187:
	.loc 2 350 0 discriminator 2
	add 5,3,5
.LVL292:
.LBB2190:
.LBB2189:
	.loc 3 1124 0 discriminator 2
	stwx 4,7,11
	.loc 3 1125 0 discriminator 2
	lwz 7,4(5)
	stw 7,4(9)
	.loc 3 1126 0 discriminator 2
	lwz 7,8(5)
	.loc 3 1127 0 discriminator 2
	stfs 31,16(9)
	.loc 3 1126 0 discriminator 2
	stw 7,8(9)
	.loc 3 1127 0 discriminator 2
	stfs 31,12(9)
	.loc 2 351 0 discriminator 2
	lwz 7,8(23)
.LBE2189:
.LBE2190:
.LBB2191:
.LBB2192:
	.loc 4 325 0 discriminator 2
	lfs 11,168(30)
.LBE2192:
.LBE2191:
.LBB2195:
.LBB2196:
	.loc 1 209 0 discriminator 2
	add 9,7,11
.LVL293:
.LBE2196:
.LBE2195:
.LBB2197:
.LBB2193:
	.loc 4 325 0 discriminator 2
	lfsx 13,7,11
	lfs 12,4(9)
.LBE2193:
.LBE2197:
	.loc 2 349 0 discriminator 2
	addi 11,11,20
.LBB2198:
.LBB2194:
	.loc 4 325 0 discriminator 2
	lfs 0,164(30)
	fmuls 11,12,11
	lfs 9,172(30)
	lfs 10,176(30)
	fmadds 11,0,13,11
	lfs 0,8(9)
	fmadds 11,9,0,11
	fadds 11,11,10
.LBE2194:
.LBE2198:
	.loc 2 351 0 discriminator 2
	stfs 11,12(9)
.LVL294:
.LBB2199:
.LBB2200:
	.loc 4 325 0 discriminator 2
	lfs 11,184(30)
	lfs 9,180(30)
	fmuls 12,12,11
	lfs 10,188(30)
	lfs 11,192(30)
	fmadds 13,13,9,12
	fmadds 0,0,10,13
	fadds 0,0,11
.LBE2200:
.LBE2199:
	.loc 2 352 0 discriminator 2
	stfs 0,16(9)
	.loc 2 349 0 discriminator 2
	beq- 7,.L166
.LBE2184:
.LBE2219:
	.loc 2 340 0
	lwz 9,48(28)
.LVL295:
	b .L180
.LVL296:
.L172:
	.loc 2 383 0
	lwz 5,196(30)
	mr 4,23
	lfs 1,204(30)
	lwz 7,208(30)
	lwz 3,1320(31)
	lwz 6,1324(31)
.LEHB6:
	bl _ZN18idRenderModelDecal20AddDepthFadedWindingERK9idWindingPK10idMaterialPK7idPlanefi
.LEHE6:
.LVL297:
.LBB2220:
.LBB2112:
.LBB2110:
.LBB2108:
.LBB2106:
	.loc 1 185 0
	li 9,0
	.loc 1 183 0
	stw 14,24(31)
	.loc 1 185 0
	stw 9,32(31)
	lwz 6,44(28)
.LVL298:
.L175:
.LBE2106:
.LBE2108:
.LBE2110:
.LBE2112:
.LBE2220:
.LBE2242:
	.loc 2 329 0
	addi 26,26,3
.LVL299:
	addi 25,25,12
	cmpw 7,6,26
	addi 24,24,16
	bgt+ 7,.L176
.LVL300:
.L160:
.LBE2258:
.LBE2271:
	.loc 2 302 0
	lwz 9,0(21)
	mr 3,21
	addi 20,20,1
.LVL301:
	lwz 0,88(9)
	mtctr 0
.LEHB7:
	bctrl
.LEHE7:
	cmpw 7,20,3
	blt+ 7,.L177
.L190:
.LBE2283:
	.loc 2 386 0
	addi 11,31,1424
	lwz 0,4(11)
	lwz 14,-88(11)
	mtlr 0
	lwz 15,-84(11)
	lwz 16,-80(11)
	lwz 17,-76(11)
	lwz 18,-72(11)
	lwz 19,-68(11)
	lwz 20,-64(11)
.LVL302:
	lwz 21,-60(11)
.LVL303:
	lwz 22,-56(11)
	lwz 23,-52(11)
	lwz 24,-48(11)
	lwz 25,-44(11)
	lwz 26,-40(11)
	lwz 27,-36(11)
	lwz 28,-32(11)
	lwz 29,-28(11)
	lwz 30,-24(11)
.LVL304:
	lwz 31,-20(11)
	.cfi_remember_state
.LCFI29:
	.cfi_def_cfa 11, 0
	lfd 30,-16(11)
.LVL305:
	lfd 31,-8(11)
	mr 1,11
.LCFI30:
	.cfi_def_cfa_register 1
	.cfi_restore 63
	.cfi_restore 62
	.cfi_restore 31
	.cfi_restore 30
	.cfi_restore 29
	.cfi_restore 28
	.cfi_restore 27
	.cfi_restore 26
	.cfi_restore 25
	.cfi_restore 24
	.cfi_restore 23
	.cfi_restore 22
	.cfi_restore 21
	.cfi_restore 20
	.cfi_restore 19
	.cfi_restore 18
	.cfi_restore 17
	.cfi_restore 16
	.cfi_restore 15
	.cfi_restore 14
	blr
.LVL306:
.L181:
.LCFI31:
	.cfi_restore_state
.LBB2284:
.LBB2272:
.LBB2259:
.LBB2243:
.LBB2221:
.LBB2201:
.LBB2180:
	.loc 2 359 0 discriminator 2
	lwzx 5,9,6
.LBB2137:
.LBB2138:
	.loc 1 209 0 discriminator 2
	add 9,7,11
.LBE2138:
.LBE2137:
	.loc 2 359 0 discriminator 2
	lwz 3,40(28)
	mulli 5,5,60
.LBB2139:
.LBB2134:
	.loc 3 1124 0 discriminator 2
	lwzx 4,3,5
.LBE2134:
.LBE2139:
	.loc 2 359 0 discriminator 2
	add 5,3,5
.LVL307:
.LBB2140:
.LBB2135:
	.loc 3 1124 0 discriminator 2
	stwx 4,7,11
	.loc 3 1125 0 discriminator 2
	lwz 7,4(5)
	stw 7,4(9)
	.loc 3 1126 0 discriminator 2
	lwz 7,8(5)
	.loc 3 1127 0 discriminator 2
	stfs 31,16(9)
	.loc 3 1126 0 discriminator 2
	stw 7,8(9)
	.loc 3 1127 0 discriminator 2
	stfs 31,12(9)
	.loc 2 360 0 discriminator 2
	lwz 7,8(23)
.LBE2135:
.LBE2140:
.LBB2141:
.LBB2142:
	.loc 3 431 0 discriminator 2
	lfs 9,4(30)
.LBE2142:
.LBE2141:
.LBB2146:
.LBB2147:
	.loc 1 209 0 discriminator 2
	add 9,7,11
.LVL308:
.LBE2147:
.LBE2146:
.LBB2148:
.LBB2143:
	.loc 3 431 0 discriminator 2
	lfsx 13,7,11
	lfs 12,4(9)
	lfs 10,0(30)
	fsubs 9,12,9
.LBE2143:
.LBE2148:
.LBB2149:
.LBB2150:
.LBB2151:
.LBB2152:
	.loc 3 435 0 discriminator 2
	lfs 6,120(30)
.LBE2152:
.LBE2151:
.LBE2150:
.LBE2149:
.LBB2165:
.LBB2144:
	.loc 3 431 0 discriminator 2
	fsubs 10,13,10
	lfs 0,8(9)
	lfs 11,8(30)
.LBE2144:
.LBE2165:
.LBB2166:
.LBB2161:
.LBB2156:
.LBB2157:
	.loc 3 435 0 discriminator 2
	fmuls 8,9,6
.LBE2157:
.LBE2156:
.LBB2158:
.LBB2153:
	lfs 5,116(30)
.LBE2153:
.LBE2158:
.LBE2161:
.LBE2166:
.LBB2167:
.LBB2145:
	.loc 3 431 0 discriminator 2
	fsubs 11,0,11
.LVL309:
.LBE2145:
.LBE2167:
.LBB2168:
.LBB2162:
.LBB2159:
.LBB2154:
	.loc 3 435 0 discriminator 2
	lfs 7,124(30)
.LBE2154:
.LBE2159:
	.loc 4 362 0 discriminator 2
	lfs 4,128(30)
.LVL310:
	.loc 3 435 0 discriminator 2
	fmadds 8,10,5,8
	fmadds 8,11,7,8
	.loc 4 364 0 discriminator 2
	fcmpu 7,8,31
	beq- 7,.L167
.LBB2160:
.LBB2155:
	.loc 3 435 0
	fmuls 30,13,5
.LVL311:
.LBE2155:
.LBE2160:
	fmadds 30,12,6,30
	fmadds 30,0,7,30
	.loc 4 362 0
	fadds 30,30,4
	.loc 4 367 0
	fdivs 30,30,8
	fneg 30,30
.LVL312:
.L167:
	.loc 3 452 0
	fmadds 12,9,30,12
.LVL313:
.LBE2162:
.LBE2168:
.LBB2169:
.LBB2170:
	.loc 4 325 0
	lfs 9,168(30)
.LVL314:
.LBE2170:
.LBE2169:
.LBB2173:
.LBB2163:
	.loc 3 452 0
	fmadds 13,10,30,13
.LBE2163:
.LBE2173:
.LBE2180:
	.loc 2 355 0
	cmpwi 7,11,40
.LBB2181:
.LBB2174:
.LBB2164:
	.loc 3 452 0
	fmadds 0,11,30,0
.LVL315:
.LBE2164:
.LBE2174:
	.loc 2 364 0
	addi 6,6,4
.LBB2175:
.LBB2171:
	.loc 4 325 0
	fmuls 10,12,9
.LVL316:
	lfs 9,164(30)
.LBE2171:
.LBE2175:
.LBE2181:
	.loc 2 355 0
	addi 11,11,20
.LBB2182:
.LBB2176:
.LBB2172:
	.loc 4 325 0
	fmadds 11,13,9,10
.LVL317:
	lfs 9,172(30)
	lfs 10,176(30)
	fmadds 11,0,9,11
	fadds 11,11,10
.LBE2172:
.LBE2176:
	.loc 2 363 0
	stfs 11,12(9)
.LVL318:
.LBB2177:
.LBB2178:
	.loc 4 325 0
	lfs 11,184(30)
	lfs 9,180(30)
	fmuls 12,12,11
.LVL319:
	lfs 10,188(30)
	lfs 11,192(30)
	fmadds 13,13,9,12
.LVL320:
	fmadds 0,0,10,13
.LVL321:
	fadds 0,0,11
.LBE2178:
.LBE2177:
	.loc 2 364 0
	stfs 0,16(9)
.LBE2182:
	.loc 2 355 0
	beq- 7,.L166
.LBE2201:
.LBB2202:
	.loc 2 349 0
	lwz 9,48(28)
.LVL322:
	b .L181
.LVL323:
.L166:
.LBE2202:
.LBE2221:
	.loc 2 368 0
	lbzx 22,27,10
	.loc 2 371 0
	li 29,0
	.loc 2 368 0
	lbzx 9,27,8
	lbzx 0,27,0
.LVL324:
	or 22,22,9
	or 22,22,0
	rlwinm 22,22,0,0xff
.LVL325:
	b .L171
.LVL326:
.L169:
.LBB2222:
	.loc 2 371 0
	cmpwi 7,29,5
	addi 29,29,1
.LVL327:
	beq- 7,.L170
.LVL328:
.L171:
	.loc 2 372 0
	sraw 0,22,29
	andi. 5,0,1
	beq+ 0,.L169
	.loc 2 373 0
	addi 11,29,2
	lfs 1,.LC10@l(16)
	slwi 11,11,4
	mr 3,23
	add 11,30,11
	addi 4,31,8
	addi 9,11,4
.LVL329:
.LBB2122:
.LBB2123:
	.loc 4 163 0
	lfs 11,4(11)
	lfs 12,4(9)
.LBE2123:
.LBE2122:
	.loc 2 373 0
	li 5,0
.LBB2127:
.LBB2126:
	.loc 4 163 0
	lfs 13,8(9)
	fneg 11,11
	lfs 0,12(9)
	fneg 12,12
	fneg 13,13
	fneg 0,0
.LVL330:
.LBB2124:
.LBB2125:
	.loc 4 141 0
	stfs 11,8(31)
	.loc 4 142 0
	stfs 12,12(31)
	.loc 4 143 0
	stfs 13,16(31)
	.loc 4 144 0
	stfs 0,20(31)
.LEHB8:
.LBE2125:
.LBE2124:
.LBE2126:
.LBE2127:
	.loc 2 373 0
	bl _ZN9idWinding11ClipInPlaceERK7idPlanefb
.LEHE8:
.LVL331:
	cmpwi 7,3,0
	bne+ 7,.L169
.LVL332:
.L170:
.LBE2222:
	.loc 2 379 0
	lwz 0,4(23)
	cmpwi 7,0,0
	bne- 7,.L172
.LVL333:
	lwz 6,44(28)
.LBE2243:
	.loc 2 329 0
	addi 26,26,3
.LVL334:
.LBB2244:
.LBB2223:
.LBB2224:
.LBB2225:
.LBB2226:
.LBB2227:
	.loc 1 183 0
	stw 14,24(31)
.LBE2227:
.LBE2226:
.LBE2225:
.LBE2224:
.LBE2223:
.LBE2244:
	.loc 2 329 0
	addi 25,25,12
	cmpw 7,6,26
.LBB2245:
.LBB2232:
.LBB2231:
.LBB2230:
.LBB2229:
.LBB2228:
	.loc 1 185 0
	stw 0,32(31)
.LBE2228:
.LBE2229:
.LBE2230:
.LBE2231:
.LBE2232:
.LBE2245:
	.loc 2 329 0
	addi 24,24,16
	bgt+ 7,.L176
	b .L160
.LVL335:
.L184:
	mr 30,3
.LBB2246:
	.loc 2 384 0
	mr 3,23
	bl _ZN14idFixedWindingD1Ev
	mr 3,30
.LEHB9:
	bl _Unwind_Resume
.LEHE9:
.LBE2246:
.LBE2259:
.LBE2272:
.LBE2284:
	.cfi_endproc
.LFE2585:
	.section	.gcc_except_table
.LLSDA2585:
	.byte	0xff
	.byte	0xff
	.byte	0x1
	.uleb128 .LLSDACSE2585-.LLSDACSB2585
.LLSDACSB2585:
	.uleb128 .LEHB5-.LFB2585
	.uleb128 .LEHE5-.LEHB5
	.uleb128 0
	.uleb128 0
	.uleb128 .LEHB6-.LFB2585
	.uleb128 .LEHE6-.LEHB6
	.uleb128 .L184-.LFB2585
	.uleb128 0
	.uleb128 .LEHB7-.LFB2585
	.uleb128 .LEHE7-.LEHB7
	.uleb128 0
	.uleb128 0
	.uleb128 .LEHB8-.LFB2585
	.uleb128 .LEHE8-.LEHB8
	.uleb128 .L184-.LFB2585
	.uleb128 0
	.uleb128 .LEHB9-.LFB2585
	.uleb128 .LEHE9-.LEHB9
	.uleb128 0
	.uleb128 0
.LLSDACSE2585:
	.section	".text"
	.size	_ZN18idRenderModelDecal11CreateDecalEPK13idRenderModelRK21decalProjectionInfo_s, .-_ZN18idRenderModelDecal11CreateDecalEPK13idRenderModelRK21decalProjectionInfo_s
	.align 2
	.globl _ZN18idRenderModelDecal17RemoveFadedDecalsEPS_i
	.type	_ZN18idRenderModelDecal17RemoveFadedDecalsEPS_i, @function
_ZN18idRenderModelDecal17RemoveFadedDecalsEPS_i:
.LFB2586:
	.loc 2 393 0
	.cfi_startproc
.LVL336:
	stwu 1,-184(1)
.LCFI32:
	.cfi_def_cfa_offset 184
	mfcr 12
	mflr 0
	stw 31,180(1)
.LBB2285:
	.loc 2 399 0
	mr. 31,3
	.cfi_offset 31, -4
	.cfi_register 65, 0
	.cfi_register 70, 12
.LBE2285:
	.loc 2 393 0
	stw 29,172(1)
	mr 29,4
	.cfi_offset 29, -12
	stw 30,176(1)
.LBB2302:
	.loc 2 400 0
	li 30,0
	.cfi_offset 30, -8
.LBE2302:
	.loc 2 393 0
	stw 0,188(1)
	stw 12,168(1)
.LBB2303:
	.loc 2 399 0
	beq- 0,.L192
	.cfi_offset 70, -16
	.cfi_offset 65, 4
	.loc 2 404 0
	lwz 3,3172(31)
.LVL337:
	bl _ZN18idRenderModelDecal17RemoveFadedDecalsEPS_i
.LVL338:
	.loc 2 407 0
	lwz 11,0(31)
	.loc 2 404 0
	mr 30,3
	stw 3,3172(31)
	.loc 2 407 0
	cmpwi 7,11,0
	beq- 7,.L194
.LVL339:
	.loc 2 417 0
	lwz 9,48(31)
	.loc 2 414 0
	lwz 10,112(11)
	.loc 2 417 0
	cmpwi 7,9,0
	.loc 2 414 0
	lwz 0,108(11)
	add 0,10,0
	subf 29,0,29
.LVL340:
	.loc 2 417 0
	ble- 7,.L194
	mr 7,31
	.loc 2 416 0
	li 30,0
	.loc 2 417 0
	li 10,0
.LVL341:
.L198:
	.loc 2 418 0
	lwz 0,2932(7)
	cmpw 7,29,0
	bge- 7,.L195
	.loc 2 420 0
	cmpw 7,30,10
	beq- 7,.L196
	.loc 2 393 0
	li 0,3
	.loc 2 420 0
	slwi 11,30,2
	.loc 2 393 0
	mtctr 0
	slwi 9,10,2
.L197:
	.loc 2 422 0 discriminator 2
	lwz 8,52(31)
	.loc 2 393 0 discriminator 2
	add 5,31,9
	add 6,31,11
	.loc 2 422 0 discriminator 2
	lwzx 0,8,9
	.loc 2 423 0 discriminator 2
	addi 9,9,4
	.loc 2 422 0 discriminator 2
	stwx 0,8,11
	.loc 2 423 0 discriminator 2
	addi 11,11,4
	lwz 0,2932(5)
	stw 0,2932(6)
	.loc 2 421 0 discriminator 2
	bdnz .L197
	lwz 9,48(31)
.LVL342:
.L196:
	.loc 2 426 0
	addi 30,30,3
.LVL343:
.L195:
	.loc 2 417 0
	addi 10,10,3
.LVL344:
	addi 7,7,12
	cmpw 7,9,10
	bgt+ 7,.L198
	.loc 2 431 0
	cmpwi 4,30,0
	beq- 4,.L215
	.loc 2 437 0
	stw 30,48(31)
	.loc 2 439 0
	addi 29,1,8
.LVL345:
	mr 3,29
	li 4,0
	li 5,160
	bl memset
.LVL346:
	.loc 2 393 0
	lwz 11,52(31)
	.loc 2 441 0
	li 10,1
	mtctr 30
	.loc 2 393 0
	addi 9,11,-4
	ble- 4,.L216
.LVL347:
.L200:
	.loc 2 441 0 discriminator 2
	lwzu 0,4(9)
	slwi 0,0,2
	stwx 10,29,0
	.loc 2 440 0 discriminator 2
	bdnz .L200
.LVL348:
	.loc 2 445 0 discriminator 1
	lwz 10,40(31)
	cmpwi 7,10,0
	ble- 7,.L201
	.loc 2 445 0 is_stmt 0
	addi 3,1,4
	.loc 2 393 0 is_stmt 1
	addi 4,31,2532
	li 5,0
	li 7,0
	li 6,0
.LVL349:
.L203:
	.loc 2 446 0
	lwzu 11,4(3)
	.loc 2 450 0
	addi 9,7,632
	slwi 9,9,2
	.loc 2 449 0
	mulli 0,7,60
	.loc 2 446 0
	cmpwi 7,11,0
	.loc 2 445 0
	addi 6,6,1
	.loc 2 450 0
	add 30,31,9
	.loc 2 446 0
	beq- 7,.L202
	.loc 2 449 0
	lwz 9,44(31)
	.loc 2 451 0
	stw 7,0(3)
	.loc 2 452 0
	addi 7,7,1
.LBB2286:
.LBB2287:
.LBB2288:
.LBB2289:
	.loc 3 424 0
	lwzx 11,9,5
.LBE2289:
.LBE2288:
.LBE2287:
.LBE2286:
	.loc 2 449 0
	add 8,9,5
.LBB2300:
.LBB2298:
.LBB2292:
.LBB2290:
	.loc 3 424 0
	stwx 11,9,0
.LBE2290:
.LBE2292:
.LBE2298:
.LBE2300:
	.loc 2 449 0
	add 9,9,0
.LVL350:
.LBB2301:
.LBB2299:
.LBB2293:
.LBB2291:
	.loc 3 425 0
	lwz 0,4(8)
.LVL351:
	stw 0,4(9)
	.loc 3 426 0
	lwz 0,8(8)
	stw 0,8(9)
.LBE2291:
.LBE2293:
	.file 9 "d:/Data/Nintendo/DoomGX/src/renderer/../idlib/../idlib/geometry/DrawVert.h"
	.loc 9 40 0
	lwz 10,12(8)
	lwz 11,16(8)
	stw 10,12(9)
	stw 11,16(9)
.LVL352:
.LBB2294:
.LBB2295:
	.loc 3 424 0
	lwz 0,20(8)
	stw 0,20(9)
	.loc 3 425 0
	lwz 0,24(8)
	stw 0,24(9)
	.loc 3 426 0
	lwz 0,28(8)
	stw 0,28(9)
.LVL353:
.LBE2295:
.LBE2294:
.LBB2296:
.LBB2297:
	.loc 3 424 0
	lwz 0,32(8)
	stw 0,32(9)
	.loc 3 425 0
	lwz 0,36(8)
	stw 0,36(9)
	.loc 3 426 0
	lwz 0,40(8)
	stw 0,40(9)
.LVL354:
	.loc 3 424 0
	lwz 0,44(8)
	stw 0,44(9)
	.loc 3 425 0
	lwz 0,48(8)
	stw 0,48(9)
	.loc 3 426 0
	lwz 0,52(8)
	stw 0,52(9)
.LBE2297:
.LBE2296:
	.loc 9 40 0
	lwz 0,56(8)
	stw 0,56(9)
.LBE2299:
.LBE2301:
	.loc 2 450 0
	lwz 0,0(4)
	stw 0,4(30)
	lwz 10,40(31)
.LVL355:
.L202:
	.loc 2 445 0
	cmpw 7,10,6
	addi 5,5,60
	addi 4,4,4
	bgt+ 7,.L203
	lwz 0,48(31)
	.loc 2 456 0
	mr 30,31
	.loc 2 454 0
	stw 7,40(31)
.LVL356:
	.loc 2 456 0
	cmpwi 7,0,0
	ble- 7,.L192
	lwz 11,52(31)
.LVL357:
.L205:
	.loc 2 393 0 discriminator 2
	li 9,0
	b .L204
.LVL358:
.L217:
	lwz 11,52(31)
.LVL359:
.L204:
	slwi 0,9,2
	.loc 2 456 0 discriminator 2
	addi 9,9,1
.LVL360:
	.loc 2 457 0 discriminator 2
	lwzx 10,11,0
	slwi 10,10,2
	lwzx 10,29,10
	stwx 10,11,0
	.loc 2 456 0 discriminator 2
	lwz 0,48(31)
	cmpw 7,0,9
	bgt+ 7,.L217
	.loc 2 456 0 is_stmt 0
	mr 30,31
.LVL361:
.L192:
.LBE2303:
	.loc 2 461 0 is_stmt 1
	lwz 0,188(1)
	mr 3,30
	lwz 12,168(1)
	mtlr 0
	lwz 29,172(1)
	lwz 30,176(1)
	mtcrf 8,12
	lwz 31,180(1)
.LVL362:
	addi 1,1,184
	.cfi_remember_state
.LCFI33:
	.cfi_def_cfa_offset 0
	.cfi_restore 70
	.cfi_restore 31
	.cfi_restore 30
	.cfi_restore 29
	blr
.LVL363:
.L215:
.LCFI34:
	.cfi_restore_state
.LBB2304:
	.loc 2 431 0
	lwz 30,3172(31)
.LVL364:
.L194:
	.loc 2 433 0
	mr 3,31
	bl _ZN18idRenderModelDecal4FreeEPS_
.LBE2304:
	.loc 2 461 0
	lwz 0,188(1)
	lwz 12,168(1)
	mr 3,30
	mtlr 0
	lwz 29,172(1)
	lwz 30,176(1)
.LVL365:
	mtcrf 8,12
	lwz 31,180(1)
.LVL366:
	addi 1,1,184
	.cfi_remember_state
	.cfi_restore 29
	.cfi_restore 30
	.cfi_restore 31
	.cfi_restore 70
.LCFI35:
	.cfi_def_cfa_offset 0
	blr
.LVL367:
.L201:
.LCFI36:
	.cfi_restore_state
.LBB2305:
	.loc 2 454 0
	li 0,0
	stw 0,40(31)
	b .L205
.LVL368:
.L216:
	li 0,1
	mtctr 0
	b .L200
.LBE2305:
	.cfi_endproc
.LFE2586:
	.size	_ZN18idRenderModelDecal17RemoveFadedDecalsEPS_i, .-_ZN18idRenderModelDecal17RemoveFadedDecalsEPS_i
	.align 2
	.globl _ZN18idRenderModelDecal16AddDecalDrawSurfEP12viewEntity_s
	.type	_ZN18idRenderModelDecal16AddDecalDrawSurfEP12viewEntity_s, @function
_ZN18idRenderModelDecal16AddDecalDrawSurfEP12viewEntity_s:
.LFB2588:
	.loc 2 468 0
	.cfi_startproc
.LVL369:
	mflr 0
	stwu 1,-152(1)
.LCFI37:
	.cfi_def_cfa_offset 152
	.cfi_register 65, 0
	mfcr 12
	stw 28,136(1)
	mr 28,4
	.cfi_offset 28, -16
	.cfi_register 70, 12
	stw 30,144(1)
	mr 30,3
	.cfi_offset 30, -8
	stw 0,156(1)
	stw 23,116(1)
	stw 24,120(1)
	stw 25,124(1)
	stw 26,128(1)
	stw 27,132(1)
	stw 29,140(1)
	stw 31,148(1)
	stw 12,112(1)
.LBB2306:
	.loc 2 473 0
	lwz 0,48(3)
	.cfi_offset 70, -40
	.cfi_offset 31, -4
	.cfi_offset 29, -12
	.cfi_offset 27, -20
	.cfi_offset 26, -24
	.cfi_offset 25, -28
	.cfi_offset 24, -32
	.cfi_offset 23, -36
	.cfi_offset 65, 4
	cmpwi 4,0,0
	beq- 4,.L218
	.loc 2 478 0
	lwz 29,0(3)
.LVL370:
.LBB2307:
.LBB2308:
	.loc 8 537 0
	li 5,40
	addi 3,1,8
.LVL371:
	addi 4,29,108
.LVL372:
	bl memcpy
.LVL373:
	lwz 31,108(29)
	lwz 29,112(29)
.LVL374:
	.loc 2 478 0
	addi 3,1,48
	addi 4,1,8
	li 5,40
	bl memcpy
.LVL375:
.LBE2308:
.LBE2307:
	.loc 2 479 0
	add 12,29,31
.LVL376:
.LBB2309:
	.loc 2 482 0
	ble- 4,.L220
	lis 27,tr@ha
	mr 3,30
	li 5,0
	la 27,tr@l(27)
.LBB2310:
	.loc 2 494 0
	lis 26,0x4330
	lis 24,.LC13@ha
	lis 25,.LC9@ha
.LVL377:
.L226:
	.loc 2 483 0
	lwz 9,252(27)
	lwz 0,2932(3)
	lwz 9,80(9)
	subf 0,0,9
.LVL378:
	.loc 2 485 0
	cmpw 7,12,0
	blt- 7,.L221
	.loc 2 489 0
	cmpw 7,0,31
	ble- 7,.L221
.LVL379:
	.loc 2 493 0
	subf 0,31,0
.LVL380:
	.loc 2 494 0
	xoris 9,29,0x8000
	xoris 0,0,0x8000
.LVL381:
	stw 26,88(1)
	stw 0,92(1)
	li 4,0
	stw 9,100(1)
	slwi 23,5,2
	stw 26,96(1)
	lfs 0,.LC13@l(24)
	lfd 11,88(1)
	lfd 13,96(1)
	fsub 11,11,0
.LBB2311:
.LBB2312:
.LBB2313:
.LBB2314:
	.loc 2 501 0
	lfs 10,.LC9@l(25)
.LBE2314:
.LBE2313:
.LBE2312:
.LBE2311:
	.loc 2 494 0
	fsub 0,13,0
	frsp 11,11
	frsp 0,0
	fdivs 11,11,0
.LVL382:
.L225:
.LBB2329:
.LBB2328:
	.loc 2 497 0
	lwz 9,52(30)
	add 0,23,4
	.loc 2 499 0
	li 11,0
	.loc 2 497 0
	lwzx 6,9,0
.LVL383:
.LBB2325:
.LBB2321:
.LBB2315:
.LBB2316:
	.loc 6 825 0
	li 0,4
.LVL384:
	mtctr 0
.LBE2316:
.LBE2315:
.LBE2321:
.LBE2325:
	.loc 2 497 0
	addi 9,1,68
	addi 7,6,632
	mulli 6,6,60
.LVL385:
.LBB2326:
.LBB2322:
	.loc 2 501 0
	slwi 7,7,2
.LVL386:
	add 7,30,7
.LVL387:
.L224:
.LBE2322:
.LBE2326:
	.loc 2 497 0
	addi 9,9,4
.LBB2327:
.LBB2323:
	.loc 2 501 0
	lfs 13,4(7)
	.loc 2 500 0
	lfs 0,-16(9)
.LVL388:
.LBB2319:
.LBB2317:
	.loc 6 825 0
	addi 10,1,104
.LBE2317:
.LBE2319:
	.loc 2 500 0
	lfs 12,0(9)
	fsubs 12,12,0
	fmadds 0,12,11,0
	.loc 2 501 0
	fmuls 0,0,13
	fmuls 0,0,10
.LBB2320:
.LBB2318:
	.loc 6 825 0
	fctiwz 0,0
	stfiwx 0,0,10
	lwz 0,104(1)
	cmpwi 7,0,255
	ble- 7,.L222
	li 0,255
.L222:
.LVL389:
.LBE2318:
.LBE2320:
	.loc 2 507 0
	lwz 10,44(30)
	nor 8,0,0
	srawi 8,8,31
	add 10,10,11
	and 0,0,8
.LVL390:
	add 10,10,6
.LBE2323:
	.loc 2 499 0
	addi 11,11,1
.LVL391:
.LBB2324:
	.loc 2 507 0
	stb 0,56(10)
.LBE2324:
	.loc 2 499 0
	bdnz .L224
.LBE2327:
.LBE2328:
	.loc 2 496 0
	cmpwi 7,4,8
	addi 4,4,4
	bne+ 7,.L225
.LVL392:
.L221:
.LBE2329:
.LBE2310:
	.loc 2 482 0
	lwz 0,48(30)
	addi 5,5,3
.LVL393:
	addi 3,3,12
	cmpw 7,0,5
	bgt+ 7,.L226
.LVL394:
.L220:
.LBE2309:
	.loc 2 515 0
	li 3,128
	bl _Z12R_FrameAlloci
.LVL395:
.LBB2330:
.LBB2331:
.LBB2332:
.LBB2333:
.LBB2334:
	.loc 3 424 0
	lwz 0,4(30)
.LBE2334:
.LBE2333:
.LBE2332:
.LBE2331:
.LBE2330:
	.loc 2 515 0
	mr 31,3
.LVL396:
.LBB2343:
.LBB2341:
.LBB2339:
.LBB2337:
.LBB2335:
	.loc 3 424 0
	stw 0,0(3)
.LBE2335:
.LBE2337:
.LBE2339:
.LBE2341:
.LBE2343:
	.loc 2 519 0
	lis 3,vertexCache@ha
.LVL397:
	la 3,vertexCache@l(3)
.LBB2344:
.LBB2342:
.LBB2340:
.LBB2338:
.LBB2336:
	.loc 3 425 0
	lwz 0,8(30)
	stw 0,4(31)
	.loc 3 426 0
	lwz 0,12(30)
	stw 0,8(31)
.LVL398:
	.loc 3 424 0
	lwz 0,16(30)
	stw 0,12(31)
	.loc 3 425 0
	lwz 0,20(30)
	stw 0,16(31)
	.loc 3 426 0
	lwz 0,24(30)
	stw 0,20(31)
.LBE2336:
.LBE2338:
.LBE2340:
	.file 10 "d:/Data/Nintendo/DoomGX/src/renderer/../idlib/../renderer/Model.h"
	.loc 10 86 0
	lwz 0,28(30)
	stw 0,24(31)
	lbz 0,32(30)
	stb 0,28(31)
	lbz 0,33(30)
	stb 0,29(31)
	lbz 0,34(30)
	stb 0,30(31)
	lbz 0,35(30)
	stb 0,31(31)
	lbz 0,36(30)
	stb 0,32(31)
	lwz 0,40(30)
	stw 0,36(31)
	lwz 0,44(30)
	stw 0,40(31)
	lwz 0,48(30)
	stw 0,44(31)
	lwz 0,52(30)
	stw 0,48(31)
	lwz 0,56(30)
	stw 0,52(31)
	lwz 0,60(30)
	stw 0,56(31)
	lwz 0,64(30)
	stw 0,60(31)
	lwz 0,68(30)
	stw 0,64(31)
	lwz 0,72(30)
	stw 0,68(31)
	lwz 0,76(30)
	stw 0,72(31)
	lwz 0,80(30)
	stw 0,76(31)
	lwz 0,84(30)
	stw 0,80(31)
	lwz 0,88(30)
	stw 0,84(31)
	lwz 0,92(30)
	stw 0,88(31)
	lwz 0,96(30)
	stw 0,92(31)
	lwz 0,100(30)
	stw 0,96(31)
	lwz 0,104(30)
	stw 0,100(31)
	lwz 0,108(30)
	stw 0,104(31)
	lwz 0,112(30)
	stw 0,108(31)
	lwz 0,116(30)
	stw 0,112(31)
	lwz 0,120(30)
	stw 0,116(31)
	lwz 0,124(30)
	stw 0,120(31)
	lwz 0,128(30)
	stw 0,124(31)
.LBE2342:
.LBE2344:
	.loc 2 519 0
	lwz 5,40(30)
	lwz 4,44(30)
	mulli 5,5,60
	bl _ZN13idVertexCache14AllocFrameTempEPvi
	.loc 2 522 0
	mr 4,28
	.loc 2 519 0
	stw 3,116(31)
	.loc 2 522 0
	addi 7,28,8
	mr 3,31
	lwz 5,4(28)
	lwz 6,0(30)
	addi 5,5,4
	bl _Z13R_AddDrawSurfPK14srfTriangles_sPK12viewEntity_sPK14renderEntity_sPK10idMaterialRK12idScreenRect
.LVL399:
.L218:
.LBE2306:
	.loc 2 523 0
	lwz 0,156(1)
	lwz 12,112(1)
	mtlr 0
	lwz 23,116(1)
	lwz 24,120(1)
	mtcrf 8,12
	lwz 25,124(1)
	lwz 26,128(1)
	lwz 27,132(1)
	lwz 28,136(1)
.LVL400:
	lwz 29,140(1)
	lwz 30,144(1)
.LVL401:
	lwz 31,148(1)
	addi 1,1,152
.LCFI38:
	.cfi_def_cfa_offset 0
	.cfi_restore 70
	.cfi_restore 31
	.cfi_restore 30
	.cfi_restore 29
	.cfi_restore 28
	.cfi_restore 27
	.cfi_restore 26
	.cfi_restore 25
	.cfi_restore 24
	.cfi_restore 23
	blr
	.cfi_endproc
.LFE2588:
	.size	_ZN18idRenderModelDecal16AddDecalDrawSurfEP12viewEntity_s, .-_ZN18idRenderModelDecal16AddDecalDrawSurfEP12viewEntity_s
	.align 2
	.globl _ZN18idRenderModelDecal16ReadFromDemoFileEP10idDemoFile
	.type	_ZN18idRenderModelDecal16ReadFromDemoFileEP10idDemoFile, @function
_ZN18idRenderModelDecal16ReadFromDemoFileEP10idDemoFile:
.LFB2590:
	.loc 2 530 0
	.cfi_startproc
.LVL402:
	.loc 2 532 0
	blr
	.cfi_endproc
.LFE2590:
	.size	_ZN18idRenderModelDecal16ReadFromDemoFileEP10idDemoFile, .-_ZN18idRenderModelDecal16ReadFromDemoFileEP10idDemoFile
	.align 2
	.globl _ZNK18idRenderModelDecal15WriteToDemoFileEP10idDemoFile
	.type	_ZNK18idRenderModelDecal15WriteToDemoFileEP10idDemoFile, @function
_ZNK18idRenderModelDecal15WriteToDemoFileEP10idDemoFile:
.LFB2591:
	.loc 2 539 0
	.cfi_startproc
.LVL403:
	.loc 2 541 0
	blr
	.cfi_endproc
.LFE2591:
	.size	_ZNK18idRenderModelDecal15WriteToDemoFileEP10idDemoFile, .-_ZNK18idRenderModelDecal15WriteToDemoFileEP10idDemoFile
	.weak	_ZTS9idWinding
	.section	.rodata._ZTS9idWinding,"aG",@progbits,_ZTS9idWinding,comdat
	.align 2
	.type	_ZTS9idWinding, @object
	.size	_ZTS9idWinding, 11
_ZTS9idWinding:
	.string	"9idWinding"
	.weak	_ZTI9idWinding
	.section	.sdata._ZTI9idWinding,"awG",@progbits,_ZTI9idWinding,comdat
	.align 2
	.type	_ZTI9idWinding, @object
	.size	_ZTI9idWinding, 8
_ZTI9idWinding:
	.long	_ZTVN10__cxxabiv117__class_type_infoE+8
	.long	_ZTS9idWinding
	.weak	_ZTS14idFixedWinding
	.section	.rodata._ZTS14idFixedWinding,"aG",@progbits,_ZTS14idFixedWinding,comdat
	.align 2
	.type	_ZTS14idFixedWinding, @object
	.size	_ZTS14idFixedWinding, 17
_ZTS14idFixedWinding:
	.string	"14idFixedWinding"
	.weak	_ZTI14idFixedWinding
	.section	.rodata._ZTI14idFixedWinding,"aG",@progbits,_ZTI14idFixedWinding,comdat
	.align 2
	.type	_ZTI14idFixedWinding, @object
	.size	_ZTI14idFixedWinding, 12
_ZTI14idFixedWinding:
	.long	_ZTVN10__cxxabiv120__si_class_type_infoE+8
	.long	_ZTS14idFixedWinding
	.long	_ZTI9idWinding
	.weak	_ZTV9idWinding
	.section	.rodata._ZTV9idWinding,"aG",@progbits,_ZTV9idWinding,comdat
	.align 3
	.type	_ZTV9idWinding, @object
	.size	_ZTV9idWinding, 24
_ZTV9idWinding:
	.long	0
	.long	_ZTI9idWinding
	.long	_ZN9idWindingD1Ev
	.long	_ZN9idWindingD0Ev
	.long	_ZN9idWinding5ClearEv
	.long	_ZN9idWinding10ReAllocateEib
	.weak	_ZTV14idFixedWinding
	.section	.rodata._ZTV14idFixedWinding,"aG",@progbits,_ZTV14idFixedWinding,comdat
	.align 3
	.type	_ZTV14idFixedWinding, @object
	.size	_ZTV14idFixedWinding, 24
_ZTV14idFixedWinding:
	.long	0
	.long	_ZTI14idFixedWinding
	.long	_ZN14idFixedWindingD1Ev
	.long	_ZN14idFixedWindingD0Ev
	.long	_ZN14idFixedWinding5ClearEv
	.long	_ZN14idFixedWinding10ReAllocateEib
	.weak	_ZN9idWindingD1Ev
	.set	_ZN9idWindingD1Ev,_ZN9idWindingD2Ev
	.weak	_ZN14idFixedWindingD1Ev
	.set	_ZN14idFixedWindingD1Ev,_ZN14idFixedWindingD2Ev
	.globl _ZN18idRenderModelDecalC1Ev
	.set	_ZN18idRenderModelDecalC1Ev,_ZN18idRenderModelDecalC2Ev
	.globl _ZN18idRenderModelDecalD1Ev
	.set	_ZN18idRenderModelDecalD1Ev,_ZN18idRenderModelDecalD2Ev
	.section	.rodata.cst4,"aM",@progbits,4
	.align 2
.LC1:
	.4byte	1065353216
.LC2:
	.4byte	-1082130432
.LC4:
	.4byte	1056964608
.LC6:
	.4byte	1069547520
.LC7:
	.4byte	0
.LC8:
	.4byte	1065185444
.LC9:
	.4byte	1132396544
.LC10:
	.4byte	1036831949
.LC11:
	.4byte	-1110651699
.LC13:
	.4byte	1501560836
	.section	.rodata.str1.4,"aMS",@progbits,1
	.align 2
.LC0:
	.string	"idRenderModelDecal::idRenderModelDecal( void ) size %d\r\n"
	.zero	3
.LC3:
	.string	"idRenderModelDecal::CreateProjectionInfo: winding must have %d points\n"
	.section	".text"
.Letext0:
	.file 11 "<built-in>"
	.file 12 "c:\\utils\\devkitpro\\devkitppc\\bin\\../lib/gcc/powerpc-eabi/4.6.3/include/stddef.h"
	.file 13 "c:\\utils\\devkitpro\\devkitppc\\bin\\../lib/gcc/powerpc-eabi/4.6.3/../../../../powerpc-eabi/include/sys/types.h"
	.file 14 "d:/Data/Nintendo/DoomGX/src/renderer/../idlib/../sys/sys_public.h"
	.file 15 "d:/Data/Nintendo/DoomGX/src/renderer/../idlib/../framework/Common.h"
	.file 16 "d:/Data/Nintendo/DoomGX/src/renderer/../idlib/../framework/CVarSystem.h"
	.file 17 "d:/Data/Nintendo/DoomGX/src/renderer/../idlib/../framework/FileSystem.h"
	.file 18 "d:/Data/Nintendo/DoomGX/src/renderer/../idlib/../idlib/Lib.h"
	.file 19 "d:/Data/Nintendo/DoomGX/src/renderer/../idlib/../idlib/CmdArgs.h"
	.file 20 "d:/Data/Nintendo/DoomGX/src/renderer/../idlib/../idlib/math/Random.h"
	.file 21 "d:/Data/Nintendo/DoomGX/src/renderer/../idlib/../idlib/math/Angles.h"
	.file 22 "d:/Data/Nintendo/DoomGX/src/renderer/../idlib/../idlib/math/Quat.h"
	.file 23 "d:/Data/Nintendo/DoomGX/src/renderer/../idlib/../idlib/math/Rotation.h"
	.file 24 "d:/Data/Nintendo/DoomGX/src/renderer/../idlib/../idlib/containers/List.h"
	.file 25 "d:/Data/Nintendo/DoomGX/src/renderer/../idlib/../idlib/math/Ode.h"
	.file 26 "d:/Data/Nintendo/DoomGX/src/renderer/../idlib/../idlib/bv/Sphere.h"
	.file 27 "d:/Data/Nintendo/DoomGX/src/renderer/../idlib/../idlib/bv/Box.h"
	.file 28 "d:/Data/Nintendo/DoomGX/src/renderer/../idlib/../idlib/bv/Frustum.h"
	.file 29 "d:/Data/Nintendo/DoomGX/src/renderer/../idlib/../idlib/geometry/JointTransform.h"
	.file 30 "d:/Data/Nintendo/DoomGX/src/renderer/../idlib/../idlib/geometry/Surface.h"
	.file 31 "d:/Data/Nintendo/DoomGX/src/renderer/../idlib/../idlib/geometry/TraceModel.h"
	.file 32 "d:/Data/Nintendo/DoomGX/src/renderer/../idlib/../idlib/Str.h"
	.file 33 "d:/Data/Nintendo/DoomGX/src/renderer/../idlib/../idlib/Token.h"
	.file 34 "d:/Data/Nintendo/DoomGX/src/renderer/../idlib/../idlib/Lexer.h"
	.file 35 "d:/Data/Nintendo/DoomGX/src/renderer/../idlib/../framework/File.h"
	.file 36 "d:/Data/Nintendo/DoomGX/src/renderer/../idlib/../idlib/Parser.h"
	.file 37 "d:/Data/Nintendo/DoomGX/src/renderer/../idlib/../idlib/containers/HashIndex.h"
	.file 38 "d:/Data/Nintendo/DoomGX/src/renderer/../idlib/../idlib/containers/StrList.h"
	.file 39 "d:/Data/Nintendo/DoomGX/src/renderer/../idlib/../idlib/containers/StrPool.h"
	.file 40 "d:/Data/Nintendo/DoomGX/src/renderer/../idlib/../idlib/containers/PlaneSet.h"
	.file 41 "d:/Data/Nintendo/DoomGX/src/renderer/../idlib/../idlib/Dict.h"
	.file 42 "d:/Data/Nintendo/DoomGX/src/renderer/../idlib/../idlib/LangDict.h"
	.file 43 "d:/Data/Nintendo/DoomGX/src/renderer/../idlib/../idlib/BitMsg.h"
	.file 44 "d:/Data/Nintendo/DoomGX/src/renderer/../idlib/../idlib/MapFile.h"
	.file 45 "d:/Data/Nintendo/DoomGX/src/renderer/../idlib/../framework/CmdSystem.h"
	.file 46 "d:/Data/Nintendo/DoomGX/src/renderer/../idlib/../framework/UsercmdGen.h"
	.file 47 "d:/Data/Nintendo/DoomGX/src/renderer/../idlib/../framework/DeclManager.h"
	.file 48 "d:/Data/Nintendo/DoomGX/src/renderer/../idlib/../framework/DeclParticle.h"
	.file 49 "d:/Data/Nintendo/DoomGX/src/renderer/../idlib/../renderer/RenderWorld.h"
	.file 50 "d:/Data/Nintendo/DoomGX/gl2gx/include/GL/gl.h"
	.file 51 "d:/Data/Nintendo/DoomGX/src/renderer/../idlib/../renderer/Cinematic.h"
	.file 52 "d:/Data/Nintendo/DoomGX/src/renderer/Image.h"
	.file 53 "d:/Data/Nintendo/DoomGX/src/renderer/VertexCache.h"
	.file 54 "d:/Data/Nintendo/DoomGX/src/renderer/../idlib/../renderer/RenderSystem.h"
	.file 55 "d:/Data/Nintendo/DoomGX/src/renderer/../idlib/../sound/sound.h"
	.file 56 "d:/Data/Nintendo/DoomGX/src/renderer/../idlib/../ui/UserInterface.h"
	.file 57 "d:/Data/Nintendo/DoomGX/src/renderer/../idlib/../cm/CollisionModel.h"
	.file 58 "d:/Data/Nintendo/DoomGX/src/renderer/../idlib/../tools/compilers/aas/AASFile.h"
	.file 59 "d:/Data/Nintendo/DoomGX/src/renderer/../idlib/../game/Game.h"
	.file 60 "d:/Data/Nintendo/DoomGX/src/renderer/../idlib/../framework/async/NetworkSystem.h"
	.file 61 "d:/Data/Nintendo/DoomGX/src/renderer/../idlib/../renderer/ModelManager.h"
	.file 62 "d:/Data/Nintendo/DoomGX/src/renderer/../idlib/../tools/compilers/aas/AASFileManager.h"
	.file 63 "d:/Data/Nintendo/DoomGX/src/renderer/../idlib/../framework/Session.h"
	.file 64 "d:/Data/Nintendo/DoomGX/src/renderer/../idlib/../ui/ListGUI.h"
	.file 65 "d:/Data/Nintendo/DoomGX/src/renderer/tr_local.h"
	.file 66 "d:/Data/Nintendo/DoomGX/src/renderer/ModelDecal.h"
	.file 67 "d:/Data/Nintendo/DoomGX/src/renderer/../idlib/../idlib/Heap.h"
	.file 68 "d:/Data/Nintendo/DoomGX/src/renderer/../idlib/../framework/Console.h"
	.file 69 "d:/Data/Nintendo/DoomGX/src/renderer/../idlib/../idlib/math/Curve.h"
	.file 70 "d:/Data/Nintendo/DoomGX/src/renderer/../idlib/../idlib/math/Simd.h"
	.file 71 "d:/Data/Nintendo/DoomGX/src/renderer/../idlib/../framework/BuildVersion.h"
	.file 72 "d:/Data/Nintendo/DoomGX/src/renderer/../idlib/precompiled.h"
	.file 73 "d:/Data/Nintendo/DoomGX/src/renderer/../idlib/../framework/EventLoop.h"
	.file 74 "d:/Data/Nintendo/DoomGX/src/renderer/../idlib/../framework/EditField.h"
	.file 75 "d:/Data/Nintendo/DoomGX/src/renderer/../idlib/../framework/async/AsyncNetwork.h"
	.file 76 "d:/Data/Nintendo/DoomGX/src/renderer/../idlib/../framework/async/AsyncServer.h"
	.file 77 "d:/Data/Nintendo/DoomGX/src/renderer/MegaTexture.h"
	.file 78 "d:/Data/Nintendo/DoomGX/src/renderer/ModelOverlay.h"
	.file 79 "d:/Data/Nintendo/DoomGX/src/renderer/RenderWorld_local.h"