	.file	"Moveable.cpp"
	.section	".text"
.Ltext0:
	.section	.text._ZN14idFixedWinding5ClearEv,"axG",@progbits,_ZN14idFixedWinding5ClearEv,comdat
	.align 2
	.weak	_ZN14idFixedWinding5ClearEv
	.type	_ZN14idFixedWinding5ClearEv, @function
_ZN14idFixedWinding5ClearEv:
.LFB1502:
	.file 1 "d:/Data/Nintendo/DoomGX/src/game/../idlib/../idlib/geometry/Winding.h"
	.loc 1 398 0
	.cfi_startproc
.LVL0:
	.loc 1 399 0
	li 0,0
	.loc 1 400 0
	.loc 1 399 0
	stw 0,4(3)
	.loc 1 400 0
	blr
	.cfi_endproc
.LFE1502:
	.size	_ZN14idFixedWinding5ClearEv, .-_ZN14idFixedWinding5ClearEv
	.section	".text"
	.align 2
	.globl _ZNK10idMoveable7GetTypeEv
	.type	_ZNK10idMoveable7GetTypeEv, @function
_ZNK10idMoveable7GetTypeEv:
.LFB2811:
	.file 2 "d:/Data/Nintendo/DoomGX/src/game/Moveable.cpp"
	.loc 2 47 0
	.cfi_startproc
.LVL1:
	.loc 2 47 0
	lis 3,.LANCHOR0@ha
.LVL2:
	la 3,.LANCHOR0@l(3)
	blr
	.cfi_endproc
.LFE2811:
	.size	_ZNK10idMoveable7GetTypeEv, .-_ZNK10idMoveable7GetTypeEv
	.align 2
	.globl _ZN10idMoveable18Event_EnableDamageEf
	.type	_ZN10idMoveable18Event_EnableDamageEf, @function
_ZN10idMoveable18Event_EnableDamageEf:
.LFB2843:
	.loc 2 538 0
	.cfi_startproc
.LVL3:
	.loc 2 539 0
	lis 9,.LC0@ha
	lfs 0,.LC0@l(9)
	fcmpu 7,1,0
	crnot 30,30
	mfcr 0
	rlwinm 0,0,31,1
	stb 0,1307(3)
	.loc 2 540 0
	blr
	.cfi_endproc
.LFE2843:
	.size	_ZN10idMoveable18Event_EnableDamageEf, .-_ZN10idMoveable18Event_EnableDamageEf
	.align 2
	.globl _ZNK8idBarrel7GetTypeEv
	.type	_ZNK8idBarrel7GetTypeEv, @function
_ZNK8idBarrel7GetTypeEv:
.LFB2845:
	.loc 2 551 0
	.cfi_startproc
.LVL4:
	.loc 2 551 0
	lis 3,.LANCHOR0@ha
.LVL5:
	la 3,.LANCHOR0@l(3)
	addi 3,3,80
	blr
	.cfi_endproc
.LFE2845:
	.size	_ZNK8idBarrel7GetTypeEv, .-_ZNK8idBarrel7GetTypeEv
	.align 2
	.globl _ZN8idBarrel27GetPhysicsToVisualTransformER6idVec3R6idMat3
	.type	_ZN8idBarrel27GetPhysicsToVisualTransformER6idVec3R6idMat3, @function
_ZN8idBarrel27GetPhysicsToVisualTransformER6idVec3R6idMat3:
.LFB2853:
	.loc 2 693 0
	.cfi_startproc
.LVL6:
.LBB1410:
.LBB1411:
	.file 3 "d:/Data/Nintendo/DoomGX/src/game/../idlib/../idlib/math/Vector.h"
	.loc 3 424 0
	lis 9,vec3_origin@ha
.LBE1411:
.LBE1410:
.LBB1414:
.LBB1415:
	.file 4 "d:/Data/Nintendo/DoomGX/src/game/../idlib/../idlib/math/Matrix.h"
	.loc 4 333 0
	addi 3,3,1376
.LVL7:
.LBE1415:
.LBE1414:
.LBB1424:
.LBB1412:
	.loc 3 424 0
	lwz 0,vec3_origin@l(9)
.LVL8:
	la 9,vec3_origin@l(9)
.LBE1412:
.LBE1424:
.LBB1425:
.LBB1422:
	.loc 4 333 0
	li 10,0
.LBE1422:
.LBE1425:
.LBB1426:
.LBB1413:
	.loc 3 424 0
	stw 0,0(4)
	.loc 3 425 0
	lwz 0,4(9)
	stw 0,4(4)
	.loc 3 426 0
	lwz 0,8(9)
	stw 0,8(4)
.LVL9:
.L6:
.LBE1413:
.LBE1426:
.LBB1427:
.LBB1423:
.LBB1416:
.LBB1417:
	.loc 3 424 0
	mr 11,3
	mr 9,5
	lwzux 0,11,10
.LBE1417:
.LBE1416:
	.loc 4 333 0
	cmpwi 7,10,24
.LBB1420:
.LBB1418:
	.loc 3 424 0
	stwux 0,9,10
.LBE1418:
.LBE1420:
	.loc 4 333 0
	addi 10,10,12
.LBB1421:
.LBB1419:
	.loc 3 425 0
	lwz 0,4(11)
	stw 0,4(9)
	.loc 3 426 0
	lwz 0,8(11)
	stw 0,8(9)
.LBE1419:
.LBE1421:
	.loc 4 333 0
	bne+ 7,.L6
.LBE1423:
.LBE1427:
	.loc 2 697 0
	li 3,1
.LVL10:
	blr
	.cfi_endproc
.LFE2853:
	.size	_ZN8idBarrel27GetPhysicsToVisualTransformER6idVec3R6idMat3, .-_ZN8idBarrel27GetPhysicsToVisualTransformER6idVec3R6idMat3
	.align 2
	.globl _ZN8idBarrel21ClientPredictionThinkEv
	.type	_ZN8idBarrel21ClientPredictionThinkEv, @function
_ZN8idBarrel21ClientPredictionThinkEv:
.LFB2855:
	.loc 2 725 0
	.cfi_startproc
.LVL11:
	mflr 0
	stwu 1,-8(1)
.LCFI0:
	.cfi_def_cfa_offset 8
	.cfi_register 65, 0
	.loc 2 726 0
	lwz 9,0(3)
	.loc 2 725 0
	stw 0,12(1)
	.loc 2 726 0
	lwz 0,20(9)
	.cfi_offset 65, 4
	mtctr 0
	bctrl
.LVL12:
	.loc 2 727 0
	lwz 0,12(1)
	addi 1,1,8
.LCFI1:
	.cfi_def_cfa_offset 0
	mtlr 0
	blr
	.cfi_endproc
.LFE2855:
	.size	_ZN8idBarrel21ClientPredictionThinkEv, .-_ZN8idBarrel21ClientPredictionThinkEv
	.align 2
	.globl _ZNK17idExplodingBarrel7GetTypeEv
	.type	_ZNK17idExplodingBarrel7GetTypeEv, @function
_ZNK17idExplodingBarrel7GetTypeEv:
.LFB2857:
	.loc 2 740 0
	.cfi_startproc
.LVL13:
	.loc 2 740 0
	lis 3,.LANCHOR0@ha
.LVL14:
	la 3,.LANCHOR0@l(3)
	addi 3,3,160
	blr
	.cfi_endproc
.LFE2857:
	.size	_ZNK17idExplodingBarrel7GetTypeEv, .-_ZNK17idExplodingBarrel7GetTypeEv
	.align 2
	.globl _ZN17idExplodingBarrel14Event_ActivateEP8idEntity
	.type	_ZN17idExplodingBarrel14Event_ActivateEP8idEntity, @function
_ZN17idExplodingBarrel14Event_ActivateEP8idEntity:
.LFB2887:
	.loc 2 1157 0
	.cfi_startproc
.LVL15:
	mflr 0
	stwu 1,-8(1)
.LCFI2:
	.cfi_def_cfa_offset 8
	.cfi_register 65, 0
	.loc 2 1158 0
	lwz 9,0(3)
	lis 7,vec3_origin@ha
	mr 5,4
	li 6,0
	.loc 2 1157 0
	stw 0,12(1)
	.loc 2 1158 0
	la 7,vec3_origin@l(7)
	li 8,0
	lwz 0,180(9)
	.cfi_offset 65, 4
	mtctr 0
	bctrl
.LVL16:
	.loc 2 1159 0
	lwz 0,12(1)
	addi 1,1,8
.LCFI3:
	.cfi_def_cfa_offset 0
	mtlr 0
	blr
	.cfi_endproc
.LFE2887:
	.size	_ZN17idExplodingBarrel14Event_ActivateEP8idEntity, .-_ZN17idExplodingBarrel14Event_ActivateEP8idEntity
	.section	.text._ZN9idWinding5ClearEv,"axG",@progbits,_ZN9idWinding5ClearEv,comdat
	.align 2
	.weak	_ZN9idWinding5ClearEv
	.type	_ZN9idWinding5ClearEv, @function
_ZN9idWinding5ClearEv:
.LFB1473:
	.loc 1 249 0
	.cfi_startproc
.LVL17:
	mflr 0
	stwu 1,-16(1)
.LCFI4:
	.cfi_def_cfa_offset 16
	.cfi_register 65, 0
	stw 31,12(1)
	mr 31,3
	.cfi_offset 31, -4
	stw 0,20(1)
	.loc 1 250 0
	li 0,0
	.cfi_offset 65, 4
	.loc 1 251 0
	lwz 3,8(3)
.LVL18:
	.loc 1 250 0
	stw 0,4(31)
	.loc 1 251 0
	cmpwi 7,3,0
	beq- 7,.L13
	.loc 1 251 0 is_stmt 0 discriminator 1
	bl _ZdaPv
.L13:
	.loc 1 252 0 is_stmt 1
	li 0,0
	stw 0,8(31)
	.loc 1 253 0
	lwz 0,20(1)
	lwz 31,12(1)
.LVL19:
	mtlr 0
	addi 1,1,16
.LCFI5:
	.cfi_def_cfa_offset 0
	.cfi_restore 31
	blr
	.cfi_endproc
.LFE1473:
	.size	_ZN9idWinding5ClearEv, .-_ZN9idWinding5ClearEv
	.section	.text._ZN9idWindingD2Ev,"axG",@progbits,_ZN9idWindingD5Ev,comdat
	.align 2
	.weak	_ZN9idWindingD2Ev
	.type	_ZN9idWindingD2Ev, @function
_ZN9idWindingD2Ev:
.LFB1461:
	.loc 1 183 0
	.cfi_startproc
.LVL20:
	mflr 0
	stwu 1,-16(1)
.LCFI6:
	.cfi_def_cfa_offset 16
	.cfi_register 65, 0
.LBB1429:
	lis 9,_ZTV9idWinding+8@ha
.LBE1429:
	stw 31,12(1)
	mr 31,3
	.cfi_offset 31, -4
	stw 0,20(1)
.LBB1430:
	.loc 1 183 0
	la 0,_ZTV9idWinding+8@l(9)
	.cfi_offset 65, 4
	.loc 1 184 0
	lwz 3,8(3)
.LVL21:
	.loc 1 183 0
	stw 0,0(31)
	.loc 1 184 0
	cmpwi 7,3,0
	beq- 7,.L15
	.loc 1 184 0 is_stmt 0 discriminator 1
	bl _ZdaPv
.L15:
	.loc 1 185 0 is_stmt 1
	li 0,0
	stw 0,8(31)
.LBE1430:
	.loc 1 186 0
	lwz 0,20(1)
	lwz 31,12(1)
.LVL22:
	mtlr 0
	addi 1,1,16
.LCFI7:
	.cfi_def_cfa_offset 0
	.cfi_restore 31
	blr
	.cfi_endproc
.LFE1461:
	.size	_ZN9idWindingD2Ev, .-_ZN9idWindingD2Ev
	.section	".text"
	.align 2
	.globl _ZN8idBarrel5SpawnEv
	.type	_ZN8idBarrel5SpawnEv, @function
_ZN8idBarrel5SpawnEv:
.LFB2854:
	.loc 2 704 0
	.cfi_startproc
.LVL23:
	mflr 0
	stwu 1,-16(1)
.LCFI8:
	.cfi_def_cfa_offset 16
	.cfi_register 65, 0
	stw 31,12(1)
	mr 31,3
	.cfi_offset 31, -4
	stw 0,20(1)
.LBB1431:
	.loc 2 705 0
	.cfi_offset 65, 4
	bl _ZNK8idEntity10GetPhysicsEv
.LVL24:
	lwz 9,0(3)
	li 4,-1
	lwz 0,56(9)
	mtctr 0
	bctrl
.LVL25:
	.loc 2 708 0
	lis 9,.LC1@ha
	lfs 13,12(3)
	.loc 2 711 0
	li 0,2
	.loc 2 708 0
	lfs 0,0(3)
	.loc 2 713 0
	mr 3,31
.LVL26:
	.loc 2 711 0
	stw 0,1320(31)
	.loc 2 708 0
	fsubs 0,13,0
	lfs 13,.LC1@l(9)
	fmuls 0,0,13
	stfs 0,1316(31)
	.loc 2 713 0
	bl _ZNK8idEntity10GetPhysicsEv
	li 4,0
	lwz 9,0(3)
	lwz 0,132(9)
	mtctr 0
	bctrl
.LBB1432:
.LBB1433:
	.loc 3 424 0
	lwz 0,0(3)
.LBE1433:
.LBE1432:
	.loc 2 713 0
	mr 9,3
.LVL27:
	.loc 2 714 0
	mr 3,31
.LVL28:
.LBB1435:
.LBB1434:
	.loc 3 424 0
	stw 0,1324(31)
	.loc 3 425 0
	lwz 0,4(9)
	stw 0,1328(31)
	.loc 3 426 0
	lwz 0,8(9)
	stw 0,1332(31)
.LBE1434:
.LBE1435:
	.loc 2 714 0
	bl _ZNK8idEntity10GetPhysicsEv
.LVL29:
	li 4,0
	lwz 9,0(3)
	lwz 0,136(9)
	mtctr 0
	bctrl
.LVL30:
.LBB1436:
.LBB1437:
	.loc 4 333 0
	addi 8,31,1336
	li 10,0
.L18:
.LBB1438:
.LBB1439:
	.loc 3 424 0
	mr 11,3
	mr 9,8
	lwzux 0,11,10
.LBE1439:
.LBE1438:
	.loc 4 333 0
	cmpwi 7,10,24
.LBB1442:
.LBB1440:
	.loc 3 424 0
	stwux 0,9,10
.LBE1440:
.LBE1442:
	.loc 4 333 0
	addi 10,10,12
.LBB1443:
.LBB1441:
	.loc 3 425 0
	lwz 0,4(11)
	stw 0,4(9)
	.loc 3 426 0
	lwz 0,8(11)
	stw 0,8(9)
.LBE1441:
.LBE1443:
	.loc 4 333 0
	bne+ 7,.L18
.LBE1437:
.LBE1436:
	.loc 2 716 0
	li 0,0
	lis 8,mat3_identity@ha
	stw 0,1372(31)
.LVL31:
.LBB1444:
.LBB1445:
.LBB1446:
	.loc 4 333 0
	li 10,0
	addi 31,31,1376
.LVL32:
	la 8,mat3_identity@l(8)
.LVL33:
.L19:
.LBB1447:
.LBB1448:
	.loc 3 424 0
	mr 11,8
.LVL34:
	mr 9,31
	lwzux 0,11,10
.LBE1448:
.LBE1447:
	.loc 4 333 0
	cmpwi 7,10,24
.LBB1451:
.LBB1449:
	.loc 3 424 0
	stwux 0,9,10
.LBE1449:
.LBE1451:
	.loc 4 333 0
	addi 10,10,12
.LBB1452:
.LBB1450:
	.loc 3 425 0
	lwz 0,4(11)
	stw 0,4(9)
	.loc 3 426 0
	lwz 0,8(11)
	stw 0,8(9)
.LBE1450:
.LBE1452:
	.loc 4 333 0
	bne+ 7,.L19
.LBE1446:
.LBE1445:
.LBE1444:
.LBE1431:
	.loc 2 718 0
	lwz 0,20(1)
	lwz 31,12(1)
.LVL35:
	mtlr 0
	addi 1,1,16
.LCFI9:
	.cfi_def_cfa_offset 0
	.cfi_restore 31
	blr
	.cfi_endproc
.LFE2854:
	.size	_ZN8idBarrel5SpawnEv, .-_ZN8idBarrel5SpawnEv
	.align 2
	.globl _ZN17idExplodingBarrel20Event_TriggerTargetsEv
	.type	_ZN17idExplodingBarrel20Event_TriggerTargetsEv, @function
_ZN17idExplodingBarrel20Event_TriggerTargetsEv:
.LFB2884:
	.loc 2 1096 0
	.cfi_startproc
.LVL36:
	mflr 0
	stwu 1,-8(1)
.LCFI10:
	.cfi_def_cfa_offset 8
	.cfi_register 65, 0
	.loc 2 1097 0
	mr 4,3
	.loc 2 1096 0
	stw 0,12(1)
	.loc 2 1097 0
	.cfi_offset 65, 4
	bl _ZNK8idEntity15ActivateTargetsEPS_
.LVL37:
	.loc 2 1098 0
	lwz 0,12(1)
	addi 1,1,8
.LCFI11:
	.cfi_def_cfa_offset 0
	mtlr 0
	blr
	.cfi_endproc
.LFE2884:
	.size	_ZN17idExplodingBarrel20Event_TriggerTargetsEv, .-_ZN17idExplodingBarrel20Event_TriggerTargetsEv
	.align 2
	.globl _ZN17idExplodingBarrel6DamageEP8idEntityS1_RK6idVec3PKcfi
	.type	_ZN17idExplodingBarrel6DamageEP8idEntityS1_RK6idVec3PKcfi, @function
_ZN17idExplodingBarrel6DamageEP8idEntityS1_RK6idVec3PKcfi:
.LFB2883:
	.loc 2 1078 0
	.cfi_startproc
.LVL38:
	stwu 1,-48(1)
.LCFI12:
	.cfi_def_cfa_offset 48
	mflr 0
	stw 29,28(1)
.LBB1453:
	.loc 2 1080 0
	lis 29,gameLocal@ha
	.cfi_offset 29, -20
	.cfi_register 65, 0
	la 29,gameLocal@l(29)
.LBE1453:
	.loc 2 1078 0
	stw 26,16(1)
	stw 27,20(1)
	mr 26,4
	.cfi_offset 27, -28
	.cfi_offset 26, -32
	stw 30,32(1)
	mr 27,5
	mr 30,3
	.cfi_offset 30, -16
.LBB1454:
	.loc 2 1080 0
	mr 4,7
.LVL39:
	mr 3,29
.LVL40:
	li 5,1
.LVL41:
.LBE1454:
	.loc 2 1078 0
	stfd 31,40(1)
	fmr 31,1
	.cfi_offset 63, -8
	stw 24,8(1)
	stw 25,12(1)
	mr 25,6
	.cfi_offset 25, -36
	.cfi_offset 24, -40
	stw 28,24(1)
	mr 28,8
	.cfi_offset 28, -24
	stw 31,36(1)
	mr 31,7
	.cfi_offset 31, -12
	stw 0,52(1)
.LBB1455:
	.loc 2 1080 0
	.cfi_offset 65, 4
	bl _ZNK11idGameLocal17FindEntityDefDictEPKcb
.LVL42:
	.loc 2 1081 0
	mr. 24,3
	beq- 0,.L27
.LVL43:
.L24:
	.loc 2 1084 0
	lis 4,.LC3@ha
	mr 3,24
	la 4,.LC3@l(4)
	bl _ZNK6idDict7FindKeyEPKc
	cmpwi 7,3,0
	beq- 7,.L25
	.loc 2 1084 0 is_stmt 0 discriminator 1
	mr 3,30
	bl _ZNK8idEntity10GetPhysicsEv
	li 4,-1
	lwz 9,0(3)
	lwz 0,44(9)
	mtctr 0
	bctrl
	cmpwi 7,3,0
	bne- 7,.L28
.L25:
	.loc 2 1087 0 is_stmt 1
	fmr 1,31
	mr 3,30
	mr 4,26
	mr 5,27
	mr 6,25
	mr 7,31
	mr 8,28
	bl _ZN8idEntity6DamageEPS_S0_RK6idVec3PKcfi
.L23:
.LBE1455:
	.loc 2 1089 0
	lwz 0,52(1)
	lwz 24,8(1)
.LVL44:
	mtlr 0
	lwz 25,12(1)
.LVL45:
	lwz 26,16(1)
.LVL46:
	lwz 27,20(1)
.LVL47:
	lwz 28,24(1)
.LVL48:
	lwz 29,28(1)
	lwz 30,32(1)
.LVL49:
	lwz 31,36(1)
.LVL50:
	lfd 31,40(1)
.LVL51:
	addi 1,1,48
	.cfi_remember_state
.LCFI13:
	.cfi_def_cfa_offset 0
	.cfi_restore 63
	.cfi_restore 31
	.cfi_restore 30
	.cfi_restore 29
	.cfi_restore 28
	.cfi_restore 27
	.cfi_restore 26
	.cfi_restore 25
	.cfi_restore 24
	blr
.LVL52:
.L28:
.LCFI14:
	.cfi_restore_state
.LBB1456:
	.loc 2 1084 0 discriminator 3
	mr 3,30
	bl _ZNK8idEntity13GetBindMasterEv
	cmpwi 7,3,0
	bne+ 7,.L25
	.loc 2 1085 0 discriminator 5
	lis 4,EV_Explode@ha
	mr 3,30
	la 4,EV_Explode@l(4)
	li 5,400
	bl _ZN7idClass11PostEventMSEPK10idEventDefi
	b .L23
.L27:
	.loc 2 1082 0
	lis 4,.LC2@ha
	mr 3,29
	la 4,.LC2@l(4)
	mr 5,31
	crxor 6,6,6
	bl _ZNK11idGameLocal5ErrorEPKcz
	b .L24
.LBE1456:
	.cfi_endproc
.LFE2883:
	.size	_ZN17idExplodingBarrel6DamageEP8idEntityS1_RK6idVec3PKcfi, .-_ZN17idExplodingBarrel6DamageEP8idEntityS1_RK6idVec3PKcfi
	.align 2
	.globl _ZN17idExplodingBarrel7RestoreEP13idRestoreGame
	.type	_ZN17idExplodingBarrel7RestoreEP13idRestoreGame, @function
_ZN17idExplodingBarrel7RestoreEP13idRestoreGame:
.LFB2876:
	.loc 2 809 0
	.cfi_startproc
.LVL53:
	stwu 1,-16(1)
.LCFI15:
	.cfi_def_cfa_offset 16
	mflr 0
	stw 31,12(1)
	mr 31,3
	.cfi_offset 31, -4
	.cfi_register 65, 0
	stw 30,8(1)
	.loc 2 810 0
	mr 3,4
.LVL54:
	.loc 2 809 0
	mr 30,4
	.cfi_offset 30, -8
	.loc 2 810 0
	addi 4,31,1416
.LVL55:
	.loc 2 809 0
	stw 0,20(1)
	.loc 2 810 0
	.cfi_offset 65, 4
	bl _ZN13idRestoreGame8ReadVec3ER6idVec3
.LVL56:
	.loc 2 811 0
	mr 3,30
	addi 4,31,1428
	bl _ZN13idRestoreGame8ReadMat3ER6idMat3
	.loc 2 813 0
	mr 3,30
	addi 4,31,1412
	bl _ZN13idRestoreGame7ReadIntERi
	.loc 2 814 0
	mr 3,30
	addi 4,31,1464
	bl _ZN13idRestoreGame7ReadIntERi
	.loc 2 815 0
	mr 3,30
	addi 4,31,1468
	bl _ZN13idRestoreGame7ReadIntERi
	.loc 2 817 0
	mr 3,30
	addi 4,31,1472
	bl _ZN13idRestoreGame16ReadRenderEntityER14renderEntity_s
	.loc 2 818 0
	mr 3,30
	addi 4,31,1688
	bl _ZN13idRestoreGame15ReadRenderLightER13renderLight_s
	.loc 2 820 0
	mr 3,30
	addi 4,31,1896
	bl _ZN13idRestoreGame7ReadIntERi
	.loc 2 821 0
	mr 3,30
	addi 4,31,1900
	bl _ZN13idRestoreGame7ReadIntERi
	.loc 2 822 0
	mr 3,30
	addi 4,31,1904
	bl _ZN13idRestoreGame9ReadFloatERf
	.loc 2 823 0
	lwz 0,20(1)
	lwz 30,8(1)
.LVL57:
	mtlr 0
	lwz 31,12(1)
.LVL58:
	addi 1,1,16
.LCFI16:
	.cfi_def_cfa_offset 0
	.cfi_restore 31
	.cfi_restore 30
	blr
	.cfi_endproc
.LFE2876:
	.size	_ZN17idExplodingBarrel7RestoreEP13idRestoreGame, .-_ZN17idExplodingBarrel7RestoreEP13idRestoreGame
	.align 2
	.globl _ZN8idBarrel7RestoreEP13idRestoreGame
	.type	_ZN8idBarrel7RestoreEP13idRestoreGame, @function
_ZN8idBarrel7RestoreEP13idRestoreGame:
.LFB2850:
	.loc 2 592 0
	.cfi_startproc
.LVL59:
	stwu 1,-16(1)
.LCFI17:
	.cfi_def_cfa_offset 16
	mflr 0
	stw 31,12(1)
	mr 31,3
	.cfi_offset 31, -4
	.cfi_register 65, 0
	stw 30,8(1)
	.loc 2 593 0
	mr 3,4
.LVL60:
	.loc 2 592 0
	mr 30,4
	.cfi_offset 30, -8
	.loc 2 593 0
	addi 4,31,1316
.LVL61:
	.loc 2 592 0
	stw 0,20(1)
	.loc 2 593 0
	.cfi_offset 65, 4
	bl _ZN13idRestoreGame9ReadFloatERf
.LVL62:
	.loc 2 594 0
	mr 3,30
	addi 4,31,1320
	bl _ZN13idRestoreGame7ReadIntERi
	.loc 2 595 0
	mr 3,30
	addi 4,31,1324
	bl _ZN13idRestoreGame8ReadVec3ER6idVec3
	.loc 2 596 0
	mr 3,30
	addi 4,31,1336
	bl _ZN13idRestoreGame8ReadMat3ER6idMat3
	.loc 2 597 0
	mr 3,30
	addi 4,31,1372
	bl _ZN13idRestoreGame9ReadFloatERf
	.loc 2 598 0
	mr 3,30
	addi 4,31,1376
	bl _ZN13idRestoreGame8ReadMat3ER6idMat3
	.loc 2 599 0
	lwz 0,20(1)
	lwz 30,8(1)
.LVL63:
	mtlr 0
	lwz 31,12(1)
.LVL64:
	addi 1,1,16
.LCFI18:
	.cfi_def_cfa_offset 0
	.cfi_restore 31
	.cfi_restore 30
	blr
	.cfi_endproc
.LFE2850:
	.size	_ZN8idBarrel7RestoreEP13idRestoreGame, .-_ZN8idBarrel7RestoreEP13idRestoreGame
	.align 2
	.globl _ZNK17idExplodingBarrel4SaveEP10idSaveGame
	.type	_ZNK17idExplodingBarrel4SaveEP10idSaveGame, @function
_ZNK17idExplodingBarrel4SaveEP10idSaveGame:
.LFB2875:
	.loc 2 788 0
	.cfi_startproc
.LVL65:
	stwu 1,-16(1)
.LCFI19:
	.cfi_def_cfa_offset 16
	mflr 0
	stw 31,12(1)
	mr 31,3
	.cfi_offset 31, -4
	.cfi_register 65, 0
	stw 30,8(1)
	.loc 2 789 0
	mr 3,4
.LVL66:
	.loc 2 788 0
	mr 30,4
	.cfi_offset 30, -8
	.loc 2 789 0
	addi 4,31,1416
.LVL67:
	.loc 2 788 0
	stw 0,20(1)
	.loc 2 789 0
	.cfi_offset 65, 4
	bl _ZN10idSaveGame9WriteVec3ERK6idVec3
.LVL68:
	.loc 2 790 0
	mr 3,30
	addi 4,31,1428
	bl _ZN10idSaveGame9WriteMat3ERK6idMat3
	.loc 2 792 0
	lwz 4,1412(31)
	mr 3,30
	bl _ZN10idSaveGame8WriteIntEi
	.loc 2 793 0
	lwz 4,1464(31)
	mr 3,30
	bl _ZN10idSaveGame8WriteIntEi
	.loc 2 794 0
	lwz 4,1468(31)
	mr 3,30
	bl _ZN10idSaveGame8WriteIntEi
	.loc 2 796 0
	mr 3,30
	addi 4,31,1472
	bl _ZN10idSaveGame17WriteRenderEntityERK14renderEntity_s
	.loc 2 797 0
	mr 3,30
	addi 4,31,1688
	bl _ZN10idSaveGame16WriteRenderLightERK13renderLight_s
	.loc 2 799 0
	lwz 4,1896(31)
	mr 3,30
	bl _ZN10idSaveGame8WriteIntEi
	.loc 2 800 0
	lwz 4,1900(31)
	mr 3,30
	bl _ZN10idSaveGame8WriteIntEi
	.loc 2 801 0
	lfs 1,1904(31)
	mr 3,30
	bl _ZN10idSaveGame10WriteFloatEf
	.loc 2 802 0
	lwz 0,20(1)
	lwz 30,8(1)
.LVL69:
	mtlr 0
	lwz 31,12(1)
.LVL70:
	addi 1,1,16
.LCFI20:
	.cfi_def_cfa_offset 0
	.cfi_restore 31
	.cfi_restore 30
	blr
	.cfi_endproc
.LFE2875:
	.size	_ZNK17idExplodingBarrel4SaveEP10idSaveGame, .-_ZNK17idExplodingBarrel4SaveEP10idSaveGame
	.align 2
	.globl _ZNK8idBarrel4SaveEP10idSaveGame
	.type	_ZNK8idBarrel4SaveEP10idSaveGame, @function
_ZNK8idBarrel4SaveEP10idSaveGame:
.LFB2849:
	.loc 2 578 0
	.cfi_startproc
.LVL71:
	mflr 0
	stwu 1,-16(1)
.LCFI21:
	.cfi_def_cfa_offset 16
	.cfi_register 65, 0
	stw 30,8(1)
	mr 30,4
	.cfi_offset 30, -8
	stw 0,20(1)
	stw 31,12(1)
	.loc 2 578 0
	mr 31,3
	.cfi_offset 31, -4
	.cfi_offset 65, 4
	.loc 2 579 0
	lfs 1,1316(3)
	mr 3,4
.LVL72:
	bl _ZN10idSaveGame10WriteFloatEf
.LVL73:
	.loc 2 580 0
	lwz 4,1320(31)
	mr 3,30
	bl _ZN10idSaveGame8WriteIntEi
	.loc 2 581 0
	mr 3,30
	addi 4,31,1324
	bl _ZN10idSaveGame9WriteVec3ERK6idVec3
	.loc 2 582 0
	addi 4,31,1336
	mr 3,30
	bl _ZN10idSaveGame9WriteMat3ERK6idMat3
	.loc 2 583 0
	lfs 1,1372(31)
	mr 3,30
	bl _ZN10idSaveGame10WriteFloatEf
	.loc 2 584 0
	mr 3,30
	addi 4,31,1376
	bl _ZN10idSaveGame9WriteMat3ERK6idMat3
	.loc 2 585 0
	lwz 0,20(1)
	lwz 30,8(1)
.LVL74:
	mtlr 0
	lwz 31,12(1)
.LVL75:
	addi 1,1,16
.LCFI22:
	.cfi_def_cfa_offset 0
	.cfi_restore 31
	.cfi_restore 30
	blr
	.cfi_endproc
.LFE2849:
	.size	_ZNK8idBarrel4SaveEP10idSaveGame, .-_ZNK8idBarrel4SaveEP10idSaveGame
	.align 2
	.globl _ZN10idMoveable14Event_IsAtRestEv
	.type	_ZN10idMoveable14Event_IsAtRestEv, @function
_ZN10idMoveable14Event_IsAtRestEv:
.LFB2842:
	.loc 2 529 0
	.cfi_startproc
.LVL76:
	mflr 0
	stwu 1,-8(1)
.LCFI23:
	.cfi_def_cfa_offset 8
	.cfi_register 65, 0
	.loc 2 530 0
	addi 3,3,636
.LVL77:
	.loc 2 529 0
	stw 0,12(1)
	.loc 2 530 0
	.cfi_offset 65, 4
	bl _ZNK19idPhysics_RigidBody8IsAtRestEv
.LVL78:
	bl _ZN8idThread9ReturnIntEi
	.loc 2 531 0
	lwz 0,12(1)
	addi 1,1,8
.LCFI24:
	.cfi_def_cfa_offset 0
	mtlr 0
	blr
	.cfi_endproc
.LFE2842:
	.size	_ZN10idMoveable14Event_IsAtRestEv, .-_ZN10idMoveable14Event_IsAtRestEv
	.align 2
	.globl _ZN10idMoveable16ReadFromSnapshotERK13idBitMsgDelta
	.type	_ZN10idMoveable16ReadFromSnapshotERK13idBitMsgDelta, @function
_ZN10idMoveable16ReadFromSnapshotERK13idBitMsgDelta:
.LFB2838:
	.loc 2 458 0
	.cfi_startproc
.LVL79:
	stwu 1,-16(1)
.LCFI25:
	.cfi_def_cfa_offset 16
	mflr 0
	stw 30,8(1)
	mr 30,4
	.cfi_offset 30, -8
	.cfi_register 65, 0
	stw 31,12(1)
	mr 31,3
	.cfi_offset 31, -4
	.loc 2 459 0
	addi 3,3,636
.LVL80:
	.loc 2 458 0
	stw 0,20(1)
	.loc 2 459 0
	.cfi_offset 65, 4
	bl _ZN19idPhysics_RigidBody16ReadFromSnapshotERK13idBitMsgDelta
.LVL81:
	.loc 2 460 0
	lbz 0,16(30)
	cmpwi 7,0,0
	beq+ 7,.L34
	.loc 2 461 0
	mr 3,31
	bl _ZN8idEntity13UpdateVisualsEv
.L34:
	.loc 2 463 0
	lwz 0,20(1)
	lwz 30,8(1)
.LVL82:
	mtlr 0
	lwz 31,12(1)
.LVL83:
	addi 1,1,16
.LCFI26:
	.cfi_def_cfa_offset 0
	.cfi_restore 31
	.cfi_restore 30
	blr
	.cfi_endproc
.LFE2838:
	.size	_ZN10idMoveable16ReadFromSnapshotERK13idBitMsgDelta, .-_ZN10idMoveable16ReadFromSnapshotERK13idBitMsgDelta
	.align 2
	.globl _ZNK10idMoveable15WriteToSnapshotER13idBitMsgDelta
	.type	_ZNK10idMoveable15WriteToSnapshotER13idBitMsgDelta, @function
_ZNK10idMoveable15WriteToSnapshotER13idBitMsgDelta:
.LFB2837:
	.loc 2 449 0
	.cfi_startproc
.LVL84:
	mflr 0
	stwu 1,-8(1)
.LCFI27:
	.cfi_def_cfa_offset 8
	.cfi_register 65, 0
	.loc 2 450 0
	addi 3,3,636
.LVL85:
	.loc 2 449 0
	stw 0,12(1)
	.loc 2 450 0
	.cfi_offset 65, 4
	bl _ZNK19idPhysics_RigidBody15WriteToSnapshotER13idBitMsgDelta
.LVL86:
	.loc 2 451 0
	lwz 0,12(1)
	addi 1,1,8
.LCFI28:
	.cfi_def_cfa_offset 0
	mtlr 0
	blr
	.cfi_endproc
.LFE2837:
	.size	_ZNK10idMoveable15WriteToSnapshotER13idBitMsgDelta, .-_ZNK10idMoveable15WriteToSnapshotER13idBitMsgDelta
	.align 2
	.globl _ZNK17idExplodingBarrel15WriteToSnapshotER13idBitMsgDelta
	.type	_ZNK17idExplodingBarrel15WriteToSnapshotER13idBitMsgDelta, @function
_ZNK17idExplodingBarrel15WriteToSnapshotER13idBitMsgDelta:
.LFB2888:
	.loc 2 1166 0
	.cfi_startproc
.LVL87:
	stwu 1,-16(1)
.LCFI29:
	.cfi_def_cfa_offset 16
	mflr 0
	stw 31,12(1)
	mr 31,3
	.cfi_offset 31, -4
	.cfi_register 65, 0
.LVL88:
.LBB1457:
.LBB1458:
	.loc 2 450 0
	addi 3,3,636
.LVL89:
.LBE1458:
.LBE1457:
	.loc 2 1166 0
	stw 0,20(1)
	stw 30,8(1)
	.loc 2 1166 0
	mr 30,4
	.cfi_offset 30, -8
	.cfi_offset 65, 4
.LVL90:
.LBB1460:
.LBB1459:
	.loc 2 450 0
	bl _ZNK19idPhysics_RigidBody15WriteToSnapshotER13idBitMsgDelta
.LVL91:
.LBE1459:
.LBE1460:
	.loc 2 1168 0
	mr 3,31
	bl _ZNK8idEntity8IsHiddenEv
	li 5,1
	mr 4,3
	mr 3,30
	bl _ZN13idBitMsgDelta9WriteBitsEii
	.loc 2 1169 0
	lwz 0,20(1)
	lwz 30,8(1)
.LVL92:
	mtlr 0
	lwz 31,12(1)
.LVL93:
	addi 1,1,16
.LCFI30:
	.cfi_def_cfa_offset 0
	.cfi_restore 31
	.cfi_restore 30
	blr
	.cfi_endproc
.LFE2888:
	.size	_ZNK17idExplodingBarrel15WriteToSnapshotER13idBitMsgDelta, .-_ZNK17idExplodingBarrel15WriteToSnapshotER13idBitMsgDelta
	.align 2
	.globl _ZN10idMoveable6KilledEP8idEntityS1_iRK6idVec3i
	.type	_ZN10idMoveable6KilledEP8idEntityS1_iRK6idVec3i, @function
_ZN10idMoveable6KilledEP8idEntityS1_iRK6idVec3i:
.LFB2829:
	.loc 2 311 0
	.cfi_startproc
.LVL94:
	mflr 0
	stwu 1,-16(1)
.LCFI31:
	.cfi_def_cfa_offset 16
	.cfi_register 65, 0
	stw 31,12(1)
	mr 31,3
	.cfi_offset 31, -4
	stw 0,20(1)
	stw 30,8(1)
	.loc 2 312 0
	lbz 0,1305(3)
	.cfi_offset 30, -8
	.cfi_offset 65, 4
	cmpwi 7,0,0
	bne- 7,.L43
.LVL95:
.LBB1461:
.LBB1462:
.LBB1463:
	.file 5 "d:/Data/Nintendo/DoomGX/src/game/../idlib/../idlib/Str.h"
	.loc 5 653 0
	lis 30,.LC4@ha
	lwz 3,1184(31)
.LVL96:
	la 30,.LC4@l(30)
	mr 4,30
.LVL97:
	bl _ZN5idStr3CmpEPKcS1_
.LVL98:
.LBE1463:
.LBE1462:
.LBE1461:
	.loc 2 316 0
	cmpwi 7,3,0
	bne- 7,.L44
.LVL99:
.L40:
	.loc 2 320 0
	lbz 0,1304(31)
	cmpwi 7,0,0
	bne- 7,.L45
.L41:
	.loc 2 326 0
	lwz 0,368(31)
	cmpwi 7,0,0
	beq- 7,.L42
	.loc 2 327 0
	li 0,0
	stw 0,368(31)
.L42:
	.loc 2 330 0
	mr 3,31
	mr 4,31
	bl _ZNK8idEntity15ActivateTargetsEPS_
	.loc 2 332 0
	lwz 0,192(31)
	li 9,0
	rlwimi 0,9,29,2,2
	stw 0,192(31)
	.loc 2 333 0
	lwz 0,20(1)
	lwz 30,8(1)
	mtlr 0
	lwz 31,12(1)
.LVL100:
	addi 1,1,16
	.cfi_remember_state
.LCFI32:
	.cfi_def_cfa_offset 0
	.cfi_restore 31
	.cfi_restore 30
	blr
.LVL101:
.L43:
.LCFI33:
	.cfi_restore_state
.LBB1468:
.LBB1466:
.LBB1464:
	.loc 5 653 0
	lis 30,.LC4@ha
.LBE1464:
.LBE1466:
.LBE1468:
	.loc 2 313 0
	bl _ZN8idEntity6UnbindEv
.LVL102:
.LBB1469:
.LBB1467:
.LBB1465:
	.loc 5 653 0
	la 30,.LC4@l(30)
	lwz 3,1184(31)
	mr 4,30
	bl _ZN5idStr3CmpEPKcS1_
.LBE1465:
.LBE1467:
.LBE1469:
	.loc 2 316 0
	cmpwi 7,3,0
	beq+ 7,.L40
.LVL103:
.L44:
	.loc 2 317 0
	lwz 9,0(31)
	mr 3,31
	lwz 4,1184(31)
	lwz 0,44(9)
	mtctr 0
	bctrl
	.loc 2 320 0
	lbz 0,1304(31)
	cmpwi 7,0,0
	beq+ 7,.L41
.LVL104:
.L45:
.LBB1470:
.LBB1471:
	.loc 5 653 0
	lwz 3,1184(31)
	mr 4,30
	bl _ZN5idStr3CmpEPKcS1_
.LBE1471:
.LBE1470:
	.loc 2 321 0
	cmpwi 7,3,0
	bne+ 7,.L41
	.loc 2 322 0
	lis 4,EV_Remove@ha
	mr 3,31
	la 4,EV_Remove@l(4)
	li 5,1000
	bl _ZN7idClass11PostEventMSEPK10idEventDefi
	b .L41
	.cfi_endproc
.LFE2829:
	.size	_ZN10idMoveable6KilledEP8idEntityS1_iRK6idVec3i, .-_ZN10idMoveable6KilledEP8idEntityS1_iRK6idVec3i
	.align 2
	.globl _ZN10idMoveable4HideEv
	.type	_ZN10idMoveable4HideEv, @function
_ZN10idMoveable4HideEv:
.LFB2826:
	.loc 2 249 0
	.cfi_startproc
.LVL105:
	stwu 1,-16(1)
.LCFI34:
	.cfi_def_cfa_offset 16
	mflr 0
	stw 31,12(1)
	mr 31,3
	.cfi_offset 31, -4
	.cfi_register 65, 0
	stw 0,20(1)
	.loc 2 250 0
	.cfi_offset 65, 4
	bl _ZN8idEntity4HideEv
.LVL106:
	.loc 2 251 0
	addi 3,31,636
	li 4,0
	li 5,-1
	bl _ZN19idPhysics_RigidBody11SetContentsEii
	.loc 2 252 0
	lwz 0,20(1)
	lwz 31,12(1)
.LVL107:
	mtlr 0
	addi 1,1,16
.LCFI35:
	.cfi_def_cfa_offset 0
	.cfi_restore 31
	blr
	.cfi_endproc
.LFE2826:
	.size	_ZN10idMoveable4HideEv, .-_ZN10idMoveable4HideEv
	.align 2
	.globl _ZNK10idMoveable4SaveEP10idSaveGame
	.type	_ZNK10idMoveable4SaveEP10idSaveGame, @function
_ZNK10idMoveable4SaveEP10idSaveGame:
.LFB2824:
	.loc 2 191 0
	.cfi_startproc
.LVL108:
	mflr 0
	stwu 1,-24(1)
.LCFI36:
	.cfi_def_cfa_offset 24
	.cfi_register 65, 0
	stw 30,16(1)
	mr 30,4
	.cfi_offset 30, -8
	stw 0,28(1)
	stw 31,20(1)
	.loc 2 191 0
	mr 31,3
	.cfi_offset 31, -4
	.cfi_offset 65, 4
.LVL109:
	.loc 2 193 0
	lwz 4,1184(3)
.LVL110:
	mr 3,30
.LVL111:
	bl _ZN10idSaveGame11WriteStringEPKc
.LVL112:
	.loc 2 194 0
	lwz 4,1216(31)
	mr 3,30
	bl _ZN10idSaveGame11WriteStringEPKc
.LVL113:
	.loc 2 195 0
	lwz 4,1248(31)
	mr 3,30
	bl _ZN10idSaveGame11WriteStringEPKc
	.loc 2 196 0
	lwz 4,1276(31)
	mr 3,30
	bl _ZN10idSaveGame8WriteIntEi
	.loc 2 197 0
	lfs 1,1280(31)
	mr 3,30
	bl _ZN10idSaveGame10WriteFloatEf
	.loc 2 198 0
	lfs 1,1284(31)
	mr 3,30
	bl _ZN10idSaveGame10WriteFloatEf
	.loc 2 199 0
	lbz 4,1304(31)
	mr 3,30
	bl _ZN10idSaveGame9WriteBoolEb
	.loc 2 200 0
	lbz 4,1305(31)
	mr 3,30
	bl _ZN10idSaveGame9WriteBoolEb
	.loc 2 201 0
	lbz 4,1306(31)
	mr 3,30
	bl _ZN10idSaveGame9WriteBoolEb
	.loc 2 202 0
	lbz 4,1307(31)
	mr 3,30
	bl _ZN10idSaveGame9WriteBoolEb
	.loc 2 203 0
	lwz 4,1308(31)
	mr 3,30
	bl _ZN10idSaveGame8WriteIntEi
	.loc 2 204 0
	lwz 4,1312(31)
	mr 3,30
	bl _ZN10idSaveGame8WriteIntEi
	.loc 2 205 0
	lwz 9,1288(31)
	li 4,-1
	cmpwi 7,9,0
	beq- 7,.L48
.LVL114:
.LBB1472:
.LBB1473:
	.file 6 "d:/Data/Nintendo/DoomGX/src/game/../idlib/../idlib/math/Curve.h"
	.loc 6 60 0 discriminator 1
	lwz 9,16(9)
.LBE1473:
.LBE1472:
	.loc 2 205 0 discriminator 1
	lfs 0,0(9)
	addi 9,1,8
	fctiwz 0,0
	stfiwx 0,0,9
	lwz 4,8(1)
.LVL115:
.L48:
	.loc 2 205 0 is_stmt 0 discriminator 3
	mr 3,30
	bl _ZN10idSaveGame8WriteIntEi
	.loc 2 206 0 is_stmt 1 discriminator 3
	mr 3,30
	addi 4,31,1292
	bl _ZN10idSaveGame9WriteVec3ERK6idVec3
	.loc 2 208 0 discriminator 3
	mr 3,30
	addi 4,31,636
	bl _ZN10idSaveGame17WriteStaticObjectERK7idClass
	.loc 2 209 0 discriminator 3
	lwz 0,28(1)
	lwz 30,16(1)
.LVL116:
	mtlr 0
	lwz 31,20(1)
.LVL117:
	addi 1,1,24
.LCFI37:
	.cfi_def_cfa_offset 0
	.cfi_restore 31
	.cfi_restore 30
	blr
	.cfi_endproc
.LFE2824:
	.size	_ZNK10idMoveable4SaveEP10idSaveGame, .-_ZNK10idMoveable4SaveEP10idSaveGame
	.align 2
	.globl _ZN10idMoveableD2Ev
	.type	_ZN10idMoveableD2Ev, @function
_ZN10idMoveableD2Ev:
.LFB2820:
	.loc 2 87 0
	.cfi_startproc
	.cfi_personality 0,__gxx_personality_v0
	.cfi_lsda 0,.LLSDA2820
.LVL118:
	mflr 0
	stwu 1,-16(1)
.LCFI38:
	.cfi_def_cfa_offset 16
	.cfi_register 65, 0
.LBB1474:
	lis 9,_ZTV10idMoveable+8@ha
.LBE1474:
	stw 31,12(1)
	mr 31,3
	.cfi_offset 31, -4
	stw 0,20(1)
.LBB1496:
	la 0,_ZTV10idMoveable+8@l(9)
	.cfi_offset 65, 4
.LBE1496:
	stw 30,8(1)
.LBB1497:
	.loc 2 88 0
	lwz 3,1288(3)
.LVL119:
	.loc 2 87 0
	stw 0,0(31)
	.loc 2 88 0
	cmpwi 7,3,0
	beq- 7,.L51
	.cfi_offset 30, -8
	.loc 2 88 0 is_stmt 0 discriminator 1
	lwz 9,0(3)
	lwz 0,4(9)
	mtctr 0
.LEHB0:
	bctrl
.LEHE0:
.L51:
	.loc 2 89 0 is_stmt 1
	li 0,0
.LBB1475:
.LBB1476:
.LBB1477:
	.loc 5 501 0
	addi 3,31,1244
.LBE1477:
.LBE1476:
.LBE1475:
	.loc 2 89 0
	stw 0,1288(31)
.LVL120:
.LEHB1:
.LBB1480:
.LBB1479:
.LBB1478:
	.loc 5 501 0
	bl _ZN5idStr8FreeDataEv
.LEHE1:
.LVL121:
.LBE1478:
.LBE1479:
.LBE1480:
.LBB1481:
.LBB1482:
.LBB1483:
	.loc 5 501 0 is_stmt 0 discriminator 1
	addi 3,31,1212
.LEHB2:
	bl _ZN5idStr8FreeDataEv
.LEHE2:
.LVL122:
.LBE1483:
.LBE1482:
.LBE1481:
.LBB1484:
.LBB1485:
.LBB1486:
	.loc 5 501 0 discriminator 2
	addi 3,31,1180
.LEHB3:
	bl _ZN5idStr8FreeDataEv
.LEHE3:
.LBE1486:
.LBE1485:
.LBE1484:
	.loc 2 87 0 is_stmt 1 discriminator 3
	addi 3,31,636
.LEHB4:
	bl _ZN19idPhysics_RigidBodyD1Ev
.LEHE4:
	.loc 2 87 0 is_stmt 0 discriminator 4
	mr 3,31
.LEHB5:
	bl _ZN8idEntityD2Ev
.LEHE5:
.LBE1497:
	.loc 2 90 0 is_stmt 1 discriminator 4
	lwz 0,20(1)
	lwz 30,8(1)
	mtlr 0
	lwz 31,12(1)
.LVL123:
	addi 1,1,16
	.cfi_remember_state
.LCFI39:
	.cfi_def_cfa_offset 0
	.cfi_restore 31
	.cfi_restore 30
	blr
.LVL124:
.L64:
.LCFI40:
	.cfi_restore_state
	mr 30,3
.LVL125:
.LBB1498:
.LBB1487:
.LBB1488:
.LBB1489:
	.loc 5 501 0
	addi 3,31,1244
	bl _ZN5idStr8FreeDataEv
.LVL126:
.L58:
.LBE1489:
.LBE1488:
.LBE1487:
.LBB1490:
.LBB1491:
.LBB1492:
	addi 3,31,1212
	bl _ZN5idStr8FreeDataEv
.LVL127:
.L60:
.LBE1492:
.LBE1491:
.LBE1490:
.LBB1493:
.LBB1494:
.LBB1495:
	addi 3,31,1180
	bl _ZN5idStr8FreeDataEv
.LVL128:
.L62:
.LBE1495:
.LBE1494:
.LBE1493:
	.loc 2 87 0
	addi 3,31,636
	bl _ZN19idPhysics_RigidBodyD1Ev
.L63:
	mr 3,31
	bl _ZN8idEntityD2Ev
	mr 3,30
.LEHB6:
	bl _Unwind_Resume
.LEHE6:
.LVL129:
.L68:
	mr 30,3
	b .L63
.L67:
	mr 30,3
	b .L62
.LVL130:
.L66:
	mr 30,3
	b .L60
.LVL131:
.L65:
	mr 30,3
	b .L58
.LBE1498:
	.cfi_endproc
.LFE2820:
	.globl __gxx_personality_v0
	.section	.gcc_except_table,"a",@progbits
.LLSDA2820:
	.byte	0xff
	.byte	0xff
	.byte	0x1
	.uleb128 .LLSDACSE2820-.LLSDACSB2820
.LLSDACSB2820:
	.uleb128 .LEHB0-.LFB2820
	.uleb128 .LEHE0-.LEHB0
	.uleb128 .L64-.LFB2820
	.uleb128 0
	.uleb128 .LEHB1-.LFB2820
	.uleb128 .LEHE1-.LEHB1
	.uleb128 .L65-.LFB2820
	.uleb128 0
	.uleb128 .LEHB2-.LFB2820
	.uleb128 .LEHE2-.LEHB2
	.uleb128 .L66-.LFB2820
	.uleb128 0
	.uleb128 .LEHB3-.LFB2820
	.uleb128 .LEHE3-.LEHB3
	.uleb128 .L67-.LFB2820
	.uleb128 0
	.uleb128 .LEHB4-.LFB2820
	.uleb128 .LEHE4-.LEHB4
	.uleb128 .L68-.LFB2820
	.uleb128 0
	.uleb128 .LEHB5-.LFB2820
	.uleb128 .LEHE5-.LEHB5
	.uleb128 0
	.uleb128 0
	.uleb128 .LEHB6-.LFB2820
	.uleb128 .LEHE6-.LEHB6
	.uleb128 0
	.uleb128 0
.LLSDACSE2820:
	.section	".text"
	.size	_ZN10idMoveableD2Ev, .-_ZN10idMoveableD2Ev
	.section	.text._ZN8idBarrelD2Ev,"axG",@progbits,_ZN8idBarrelD5Ev,comdat
	.align 2
	.weak	_ZN8idBarrelD2Ev
	.type	_ZN8idBarrelD2Ev, @function
_ZN8idBarrelD2Ev:
.LFB2860:
	.file 7 "d:/Data/Nintendo/DoomGX/src/game/Moveable.h"
	.loc 7 106 0
	.cfi_startproc
.LVL132:
.LBB1500:
	.loc 7 106 0
	lis 9,_ZTV8idBarrel+8@ha
.LBE1500:
.LBB1501:
	la 0,_ZTV8idBarrel+8@l(9)
	stw 0,0(3)
	b _ZN10idMoveableD2Ev
.LVL133:
.LBE1501:
	.cfi_endproc
.LFE2860:
	.size	_ZN8idBarrelD2Ev, .-_ZN8idBarrelD2Ev
	.section	".text"
	.align 2
	.globl _ZN10idMoveableD0Ev
	.type	_ZN10idMoveableD0Ev, @function
_ZN10idMoveableD0Ev:
.LFB2822:
	.loc 2 87 0
	.cfi_startproc
.LVL134:
	stwu 1,-16(1)
.LCFI41:
	.cfi_def_cfa_offset 16
	mflr 0
	stw 31,12(1)
	mr 31,3
	.cfi_offset 31, -4
	.cfi_register 65, 0
	stw 0,20(1)
	.loc 2 90 0
	.cfi_offset 65, 4
	bl _ZN10idMoveableD1Ev
.LVL135:
	mr 3,31
	bl _ZN7idClassdlEPv
	lwz 0,20(1)
	lwz 31,12(1)
.LVL136:
	mtlr 0
	addi 1,1,16
.LCFI42:
	.cfi_def_cfa_offset 0
	.cfi_restore 31
	blr
	.cfi_endproc
.LFE2822:
	.size	_ZN10idMoveableD0Ev, .-_ZN10idMoveableD0Ev
	.align 2
	.globl _ZN17idExplodingBarrel13Event_ExplodeEv
	.type	_ZN17idExplodingBarrel13Event_ExplodeEv, @function
_ZN17idExplodingBarrel13Event_ExplodeEv:
.LFB2885:
	.loc 2 1105 0
	.cfi_startproc
.LVL137:
	mflr 0
	stwu 1,-8(1)
.LCFI43:
	.cfi_def_cfa_offset 8
	.cfi_register 65, 0
	stw 0,12(1)
	.loc 2 1106 0
	lwz 0,1412(3)
	.cfi_offset 65, 4
	cmplwi 7,0,1
	ble- 7,.L75
	.loc 2 1110 0
	lwz 0,12(1)
	addi 1,1,8
	.cfi_remember_state
.LCFI44:
	.cfi_def_cfa_offset 0
	mtlr 0
	blr
.L75:
.LCFI45:
	.cfi_restore_state
.LVL138:
.LBB1504:
.LBB1505:
	.loc 2 1107 0
	li 0,2
	.loc 2 1108 0
	lwz 9,0(3)
	.loc 2 1107 0
	stw 0,1412(3)
	.loc 2 1108 0
	lis 7,vec3_origin@ha
	li 4,0
	li 5,0
	lwz 0,180(9)
	li 6,0
	la 7,vec3_origin@l(7)
	li 8,0
	mtctr 0
	bctrl
.LVL139:
.LBE1505:
.LBE1504:
	.loc 2 1110 0
	lwz 0,12(1)
	addi 1,1,8
.LCFI46:
	.cfi_def_cfa_offset 0
	mtlr 0
	blr
	.cfi_endproc
.LFE2885:
	.size	_ZN17idExplodingBarrel13Event_ExplodeEv, .-_ZN17idExplodingBarrel13Event_ExplodeEv
	.align 2
	.globl _ZN17idExplodingBarrel16ReadFromSnapshotERK13idBitMsgDelta
	.type	_ZN17idExplodingBarrel16ReadFromSnapshotERK13idBitMsgDelta, @function
_ZN17idExplodingBarrel16ReadFromSnapshotERK13idBitMsgDelta:
.LFB2889:
	.loc 2 1176 0
	.cfi_startproc
.LVL140:
	stwu 1,-16(1)
.LCFI47:
	.cfi_def_cfa_offset 16
	mflr 0
	stw 30,8(1)
	mr 30,4
	.cfi_offset 30, -8
	.cfi_register 65, 0
	stw 0,20(1)
	stw 31,12(1)
	.loc 2 1176 0
	mr 31,3
	.cfi_offset 31, -4
	.cfi_offset 65, 4
	.loc 2 1178 0
	bl _ZN10idMoveable16ReadFromSnapshotERK13idBitMsgDelta
.LVL141:
	.loc 2 1179 0
	mr 3,30
	li 4,1
	bl _ZNK13idBitMsgDelta8ReadBitsEi
.LBB1508:
.LBB1509:
	.loc 2 1180 0
	lwz 9,0(31)
.LBE1509:
.LBE1508:
	.loc 2 1179 0
	cmpwi 7,3,0
.LBB1512:
.LBB1510:
	.loc 2 1180 0
	mr 3,31
.LBE1510:
.LBE1512:
	.loc 2 1179 0
	bne- 7,.L79
	.loc 2 1182 0
	lwz 0,80(9)
	mtctr 0
	bctrl
	.loc 2 1184 0
	lwz 0,20(1)
	lwz 30,8(1)
.LVL142:
	mtlr 0
	lwz 31,12(1)
.LVL143:
	addi 1,1,16
	.cfi_remember_state
.LCFI48:
	.cfi_def_cfa_offset 0
	.cfi_restore 31
	.cfi_restore 30
	blr
.LVL144:
.L79:
.LCFI49:
	.cfi_restore_state
.LBB1513:
.LBB1511:
	.loc 2 1180 0
	lwz 0,76(9)
	mtctr 0
	bctrl
.LVL145:
.LBE1511:
.LBE1513:
	.loc 2 1184 0
	lwz 0,20(1)
	lwz 30,8(1)
.LVL146:
	mtlr 0
	lwz 31,12(1)
.LVL147:
	addi 1,1,16
	.cfi_restore 30
	.cfi_restore 31
.LCFI50:
	.cfi_def_cfa_offset 0
	blr
	.cfi_endproc
.LFE2889:
	.size	_ZN17idExplodingBarrel16ReadFromSnapshotERK13idBitMsgDelta, .-_ZN17idExplodingBarrel16ReadFromSnapshotERK13idBitMsgDelta
	.align 2
	.type	_Z41__static_initialization_and_destruction_0ii.constprop.40, @function
_Z41__static_initialization_and_destruction_0ii.constprop.40:
.LFB3240:
	.loc 2 1205 0
	.cfi_startproc
.LVL148:
	cmpwi 7,3,1
	mflr 0
	stwu 1,-56(1)
.LCFI51:
	.cfi_def_cfa_offset 56
	.cfi_register 65, 0
	stw 0,60(1)
	stw 27,36(1)
	stw 28,40(1)
	stw 29,44(1)
	stw 30,48(1)
	stw 31,52(1)
	.loc 2 1205 0
	beq- 7,.L83
	.cfi_offset 31, -4
	.cfi_offset 30, -8
	.cfi_offset 29, -12
	.cfi_offset 28, -16
	.cfi_offset 27, -20
	.cfi_offset 65, 4
	.loc 2 740 0
	cmpwi 7,3,0
	bne- 7,.L80
	lis 31,.LANCHOR0@ha
	la 31,.LANCHOR0@l(31)
	addi 3,31,160
.LVL149:
	bl _ZN10idTypeInfoD1Ev
	.loc 2 551 0
	addi 3,31,80
	bl _ZN10idTypeInfoD1Ev
	.loc 2 47 0
	mr 3,31
	bl _ZN10idTypeInfoD1Ev
.L80:
	.loc 2 1205 0
	lwz 0,60(1)
	lwz 27,36(1)
	mtlr 0
	lwz 28,40(1)
	lwz 29,44(1)
	lwz 30,48(1)
	lwz 31,52(1)
	addi 1,1,56
	.cfi_remember_state
.LCFI52:
	.cfi_def_cfa_offset 0
	.cfi_restore 31
	.cfi_restore 30
	.cfi_restore 29
	.cfi_restore 28
	.cfi_restore 27
	blr
.LVL150:
.L83:
.LCFI53:
	.cfi_restore_state
	.file 8 "d:/Data/Nintendo/DoomGX/src/game/Game_local.h"
	.loc 8 694 0
	lis 9,_ZN6idMath8M_SEC2MSE@ha
	.loc 8 121 0
	lis 31,.LANCHOR0@ha
	.loc 8 694 0
	lfs 0,_ZN6idMath8M_SEC2MSE@l(9)
	.loc 8 121 0
	la 31,.LANCHOR0@l(31)
	li 11,3
.LBB1514:
.LBB1515:
	.loc 3 396 0
	li 0,0
.LBE1515:
.LBE1514:
	.loc 8 694 0
	fadds 0,0,0
	.loc 8 121 0
	stw 11,240(31)
.LVL151:
.LBB1519:
.LBB1516:
	.loc 3 398 0
	lis 11,.LC5@ha
	.loc 3 396 0
	stw 0,244(31)
	.loc 3 397 0
	stw 0,248(31)
.LBE1516:
.LBE1519:
.LBB1520:
.LBB1521:
	.file 9 "d:/Data/Nintendo/DoomGX/src/game/../idlib/../idlib/math/Math.h"
	.loc 9 825 0
	addi 9,31,256
	fctiwz 0,0
.LBE1521:
.LBE1520:
.LBB1523:
.LBB1517:
	.loc 3 398 0
	lwz 0,.LC5@l(11)
.LBE1517:
.LBE1523:
	.loc 2 42 0
	lis 4,.LC6@ha
	addi 3,31,264
.LVL152:
.LBB1524:
.LBB1518:
	.loc 3 398 0
	stw 0,252(31)
.LVL153:
.LBE1518:
.LBE1524:
	.file 10 "d:/Data/Nintendo/DoomGX/src/game/Player.h"
	.loc 10 69 0
	li 0,10
.LBB1525:
.LBB1522:
	.loc 9 825 0
	stfiwx 0,0,9
.LVL154:
.LBE1522:
.LBE1525:
	.loc 2 42 0
	la 4,.LC6@l(4)
	.loc 10 69 0
	stw 0,260(31)
	.loc 2 42 0
	li 5,0
	li 6,0
	.loc 2 47 0
	lis 27,.LC11@ha
	.loc 2 42 0
	bl _ZN10idEventDefC1EPKcS1_c
	.loc 2 43 0
	lis 4,.LC7@ha
	addi 3,31,328
	la 4,.LC7@l(4)
	li 5,0
	li 6,0
	bl _ZN10idEventDefC1EPKcS1_c
	.loc 2 44 0
	lis 4,.LC8@ha
	addi 3,31,392
	la 4,.LC8@l(4)
	li 5,0
	li 6,100
	bl _ZN10idEventDefC1EPKcS1_c
	.loc 2 45 0
	lis 4,.LC9@ha
	lis 5,.LC10@ha
	addi 3,31,456
	la 4,.LC9@l(4)
	la 5,.LC10@l(5)
	li 6,0
	.loc 2 47 0
	lis 29,.LANCHOR1@ha
	.loc 2 45 0
	bl _ZN10idEventDefC1EPKcS1_c
	.loc 2 47 0
	lis 11,_ZN10idMoveable5SpawnEv@ha
	la 0,_ZN10idMoveable5SpawnEv@l(11)
	lis 11,_ZNK10idMoveable4SaveEP10idSaveGame@ha
	la 27,.LC11@l(27)
	la 29,.LANCHOR1@l(29)
	stw 0,8(1)
	lis 5,.LC12@ha
	la 0,_ZNK10idMoveable4SaveEP10idSaveGame@l(11)
	lis 7,_ZN10idMoveable14CreateInstanceEv@ha
	lis 11,_ZN10idMoveable7RestoreEP13idRestoreGame@ha
	li 30,0
	mr 3,31
	mr 4,27
	mr 6,29
	addi 8,1,8
	addi 9,1,16
	addi 10,1,24
	stw 0,16(1)
	la 5,.LC12@l(5)
	la 0,_ZN10idMoveable7RestoreEP13idRestoreGame@l(11)
	la 7,_ZN10idMoveable14CreateInstanceEv@l(7)
	stw 0,24(1)
	.loc 2 551 0
	lis 28,.LC13@ha
	.loc 2 47 0
	stw 30,12(1)
	.loc 2 551 0
	la 28,.LC13@l(28)
	.loc 2 47 0
	stw 30,20(1)
	stw 30,28(1)
	bl _ZN10idTypeInfoC1EPKcS1_P11idEventFuncI7idClassEPFPS3_vEMS3_FvvEMS3_KFvP10idSaveGameEMS3_FvP13idRestoreGameE
	.loc 2 551 0
	lis 11,_ZN8idBarrel5SpawnEv@ha
	lis 7,_ZN8idBarrel14CreateInstanceEv@ha
	la 0,_ZN8idBarrel5SpawnEv@l(11)
	lis 11,_ZNK8idBarrel4SaveEP10idSaveGame@ha
	stw 0,8(1)
	la 0,_ZNK8idBarrel4SaveEP10idSaveGame@l(11)
	lis 11,_ZN8idBarrel7RestoreEP13idRestoreGame@ha
	addi 8,1,8
	addi 9,1,16
	addi 10,1,24
	la 7,_ZN8idBarrel14CreateInstanceEv@l(7)
	addi 3,31,80
	mr 4,28
	mr 5,27
	addi 6,31,520
	stw 0,16(1)
	la 0,_ZN8idBarrel7RestoreEP13idRestoreGame@l(11)
	stw 30,12(1)
	stw 0,24(1)
	stw 30,20(1)
	stw 30,28(1)
	bl _ZN10idTypeInfoC1EPKcS1_P11idEventFuncI7idClassEPFPS3_vEMS3_FvvEMS3_KFvP10idSaveGameEMS3_FvP13idRestoreGameE
	.loc 2 737 0
	lis 4,.LC14@ha
	addi 3,31,532
	la 4,.LC14@l(4)
	li 5,0
	li 6,0
	bl _ZN10idEventDefC1EPKcS1_c
	.loc 2 738 0
	lis 4,.LC15@ha
	addi 3,31,596
	la 4,.LC15@l(4)
	li 5,0
	li 6,0
	bl _ZN10idEventDefC1EPKcS1_c
	.loc 2 740 0
	lis 11,_ZN17idExplodingBarrel5SpawnEv@ha
	la 0,_ZN17idExplodingBarrel5SpawnEv@l(11)
	lis 11,_ZNK17idExplodingBarrel4SaveEP10idSaveGame@ha
	stw 0,8(1)
	lis 4,.LC16@ha
	la 0,_ZNK17idExplodingBarrel4SaveEP10idSaveGame@l(11)
	lis 7,_ZN17idExplodingBarrel14CreateInstanceEv@ha
	lis 11,_ZN17idExplodingBarrel7RestoreEP13idRestoreGame@ha
	stw 0,16(1)
	addi 3,31,160
	la 0,_ZN17idExplodingBarrel7RestoreEP13idRestoreGame@l(11)
	la 4,.LC16@l(4)
	mr 5,28
	addi 6,29,72
	la 7,_ZN17idExplodingBarrel14CreateInstanceEv@l(7)
	addi 8,1,8
	addi 9,1,16
	addi 10,1,24
	stw 30,12(1)
	stw 30,20(1)
	stw 0,24(1)
	stw 30,28(1)
	bl _ZN10idTypeInfoC1EPKcS1_P11idEventFuncI7idClassEPFPS3_vEMS3_FvvEMS3_KFvP10idSaveGameEMS3_FvP13idRestoreGameE
	b .L80
	.cfi_endproc
.LFE3240:
	.size	_Z41__static_initialization_and_destruction_0ii.constprop.40, .-_Z41__static_initialization_and_destruction_0ii.constprop.40
	.align 2
	.globl _ZN17idExplodingBarrelD2Ev
	.type	_ZN17idExplodingBarrelD2Ev, @function
_ZN17idExplodingBarrelD2Ev:
.LFB2872:
	.loc 2 774 0
	.cfi_startproc
	.cfi_personality 0,__gxx_personality_v0
	.cfi_lsda 0,.LLSDA2872
.LVL155:
	mflr 0
	stwu 1,-16(1)
.LCFI54:
	.cfi_def_cfa_offset 16
	.cfi_register 65, 0
.LBB1530:
	lis 9,_ZTV17idExplodingBarrel+8@ha
.LBE1530:
	stw 31,12(1)
	mr 31,3
	.cfi_offset 31, -4
	stw 0,20(1)
.LBB1537:
	la 0,_ZTV17idExplodingBarrel+8@l(9)
	.cfi_offset 65, 4
.LBE1537:
	stw 30,8(1)
.LBB1538:
	.loc 2 774 0
	stw 0,0(3)
	.loc 2 775 0
	lwz 4,1464(3)
	cmpwi 7,4,0
	blt- 7,.L85
	.cfi_offset 30, -8
	.loc 2 776 0
	lis 9,gameRenderWorld@ha
	lwz 3,gameRenderWorld@l(9)
.LVL156:
	lwz 9,0(3)
	lwz 0,24(9)
	mtctr 0
.LEHB7:
	bctrl
.L85:
	.loc 2 778 0
	lwz 4,1468(31)
	cmpwi 7,4,0
	blt- 7,.L86
	.loc 2 779 0
	lis 9,gameRenderWorld@ha
	lwz 3,gameRenderWorld@l(9)
	lwz 9,0(3)
	lwz 0,40(9)
	mtctr 0
	bctrl
.LEHE7:
.L86:
.LVL157:
.LBB1531:
.LBB1532:
.LBB1533:
	.loc 7 106 0
	lis 9,_ZTV8idBarrel+8@ha
	mr 3,31
	la 0,_ZTV8idBarrel+8@l(9)
	stw 0,0(31)
.LBE1533:
.LBE1532:
.LBE1531:
.LBE1538:
	.loc 2 781 0
	lwz 0,20(1)
	lwz 30,8(1)
	lwz 31,12(1)
.LVL158:
	mtlr 0
	addi 1,1,16
	.cfi_remember_state
.LCFI55:
	.cfi_def_cfa_offset 0
	.cfi_restore 31
	.cfi_restore 30
.LEHB8:
.LBB1539:
.LBB1536:
.LBB1535:
.LBB1534:
	.loc 7 106 0
	b _ZN10idMoveableD2Ev
.LEHE8:
.LVL159:
.L90:
.LCFI56:
	.cfi_restore_state
	mr 30,3
.LBE1534:
.LBE1535:
.LBE1536:
	.loc 2 774 0
	mr 3,31
	bl _ZN8idBarrelD2Ev
	mr 3,30
.LEHB9:
	bl _Unwind_Resume
.LEHE9:
.LBE1539:
	.cfi_endproc
.LFE2872:
	.section	.gcc_except_table
.LLSDA2872:
	.byte	0xff
	.byte	0xff
	.byte	0x1
	.uleb128 .LLSDACSE2872-.LLSDACSB2872
.LLSDACSB2872:
	.uleb128 .LEHB7-.LFB2872
	.uleb128 .LEHE7-.LEHB7
	.uleb128 .L90-.LFB2872
	.uleb128 0
	.uleb128 .LEHB8-.LFB2872
	.uleb128 .LEHE8-.LEHB8
	.uleb128 0
	.uleb128 0
	.uleb128 .LEHB9-.LFB2872
	.uleb128 .LEHE9-.LEHB9
	.uleb128 0
	.uleb128 0
.LLSDACSE2872:
	.section	".text"
	.size	_ZN17idExplodingBarrelD2Ev, .-_ZN17idExplodingBarrelD2Ev
	.align 2
	.globl _ZN17idExplodingBarrelD0Ev
	.type	_ZN17idExplodingBarrelD0Ev, @function
_ZN17idExplodingBarrelD0Ev:
.LFB2874:
	.loc 2 774 0
	.cfi_startproc
.LVL160:
	stwu 1,-16(1)
.LCFI57:
	.cfi_def_cfa_offset 16
	mflr 0
	stw 31,12(1)
	mr 31,3
	.cfi_offset 31, -4
	.cfi_register 65, 0
	stw 0,20(1)
	.loc 2 781 0
	.cfi_offset 65, 4
	bl _ZN17idExplodingBarrelD1Ev
.LVL161:
	mr 3,31
	bl _ZN7idClassdlEPv
	lwz 0,20(1)
	lwz 31,12(1)
.LVL162:
	mtlr 0
	addi 1,1,16
.LCFI58:
	.cfi_def_cfa_offset 0
	.cfi_restore 31
	blr
	.cfi_endproc
.LFE2874:
	.size	_ZN17idExplodingBarrelD0Ev, .-_ZN17idExplodingBarrelD0Ev
	.section	.text._ZN8idBarrelD0Ev,"axG",@progbits,_ZN8idBarrelD5Ev,comdat
	.align 2
	.weak	_ZN8idBarrelD0Ev
	.type	_ZN8idBarrelD0Ev, @function
_ZN8idBarrelD0Ev:
.LFB2862:
	.loc 7 106 0
	.cfi_startproc
.LVL163:
	mflr 0
	stwu 1,-16(1)
.LCFI59:
	.cfi_def_cfa_offset 16
	.cfi_register 65, 0
.LBB1543:
.LBB1544:
.LBB1545:
	lis 9,_ZTV8idBarrel+8@ha
.LBE1545:
.LBE1544:
.LBE1543:
	stw 31,12(1)
	mr 31,3
	.cfi_offset 31, -4
.LVL164:
	stw 0,20(1)
.LBB1548:
.LBB1547:
.LBB1546:
	.loc 7 106 0
	la 0,_ZTV8idBarrel+8@l(9)
	.cfi_offset 65, 4
	stw 0,0(3)
	bl _ZN10idMoveableD2Ev
.LVL165:
.LBE1546:
.LBE1547:
.LBE1548:
	mr 3,31
	bl _ZN7idClassdlEPv
	lwz 0,20(1)
	lwz 31,12(1)
.LVL166:
	mtlr 0
	addi 1,1,16
.LCFI60:
	.cfi_def_cfa_offset 0
	.cfi_restore 31
	blr
	.cfi_endproc
.LFE2862:
	.size	_ZN8idBarrelD0Ev, .-_ZN8idBarrelD0Ev
	.section	.text._ZN14idFixedWindingD0Ev,"axG",@progbits,_ZN14idFixedWindingD5Ev,comdat
	.align 2
	.weak	_ZN14idFixedWindingD0Ev
	.type	_ZN14idFixedWindingD0Ev, @function
_ZN14idFixedWindingD0Ev:
.LFB1500:
	.loc 1 380 0
	.cfi_startproc
.LVL167:
	mflr 0
	stwu 1,-8(1)
.LCFI61:
	.cfi_def_cfa_offset 8
	.cfi_register 65, 0
.LBB1555:
.LBB1556:
.LBB1557:
.LBB1558:
.LBB1559:
.LBB1560:
	.loc 1 183 0
	lis 11,_ZTV9idWinding+8@ha
.LBE1560:
.LBE1559:
.LBE1558:
.LBE1557:
.LBE1556:
.LBE1555:
	.loc 1 380 0
	stw 0,12(1)
.LBB1566:
.LBB1565:
.LBB1564:
	.loc 1 381 0
	li 0,0
	.cfi_offset 65, 4
	stw 0,8(3)
.LVL168:
.LBB1563:
.LBB1562:
.LBB1561:
	.loc 1 183 0
	la 0,_ZTV9idWinding+8@l(11)
	stw 0,0(3)
.LBE1561:
.LBE1562:
.LBE1563:
.LBE1564:
.LBE1565:
.LBE1566:
	.loc 1 382 0
	bl _ZdlPv
.LVL169:
	lwz 0,12(1)
	addi 1,1,8
.LCFI62:
	.cfi_def_cfa_offset 0
	mtlr 0
	blr
	.cfi_endproc
.LFE1500:
	.size	_ZN14idFixedWindingD0Ev, .-_ZN14idFixedWindingD0Ev
	.section	.text._ZN14idFixedWindingD2Ev,"axG",@progbits,_ZN14idFixedWindingD5Ev,comdat
	.align 2
	.weak	_ZN14idFixedWindingD2Ev
	.type	_ZN14idFixedWindingD2Ev, @function
_ZN14idFixedWindingD2Ev:
.LFB1498:
	.loc 1 380 0
	.cfi_startproc
.LVL170:
.LBB1571:
	.loc 1 381 0
	li 0,0
.LBB1572:
.LBB1573:
.LBB1574:
	.loc 1 183 0
	lis 9,_ZTV9idWinding+8@ha
.LBE1574:
.LBE1573:
.LBE1572:
	.loc 1 381 0
	stw 0,8(3)
.LVL171:
.LBB1577:
.LBB1576:
.LBB1575:
	.loc 1 183 0
	la 0,_ZTV9idWinding+8@l(9)
	stw 0,0(3)
.LBE1575:
.LBE1576:
.LBE1577:
.LBE1571:
	.loc 1 382 0
	blr
	.cfi_endproc
.LFE1498:
	.size	_ZN14idFixedWindingD2Ev, .-_ZN14idFixedWindingD2Ev
	.section	.text._ZN9idWindingD0Ev,"axG",@progbits,_ZN9idWindingD5Ev,comdat
	.align 2
	.weak	_ZN9idWindingD0Ev
	.type	_ZN9idWindingD0Ev, @function
_ZN9idWindingD0Ev:
.LFB1463:
	.loc 1 183 0
	.cfi_startproc
.LVL172:
	mflr 0
	stwu 1,-16(1)
.LCFI63:
	.cfi_def_cfa_offset 16
	.cfi_register 65, 0
.LBB1581:
.LBB1582:
.LBB1583:
	lis 9,_ZTV9idWinding+8@ha
.LBE1583:
.LBE1582:
.LBE1581:
	stw 31,12(1)
	mr 31,3
	.cfi_offset 31, -4
.LVL173:
	stw 0,20(1)
.LBB1588:
.LBB1586:
.LBB1584:
	.loc 1 183 0
	la 0,_ZTV9idWinding+8@l(9)
	.cfi_offset 65, 4
	.loc 1 184 0
	lwz 3,8(3)
.LVL174:
	.loc 1 183 0
	stw 0,0(31)
	.loc 1 184 0
	cmpwi 7,3,0
	beq- 7,.L104
	bl _ZdaPv
.L104:
	.loc 1 185 0
	li 0,0
.LBE1584:
.LBE1586:
.LBE1588:
	.loc 1 186 0
	mr 3,31
.LBB1589:
.LBB1587:
.LBB1585:
	.loc 1 185 0
	stw 0,8(31)
.LBE1585:
.LBE1587:
.LBE1589:
	.loc 1 186 0
	bl _ZdlPv
	lwz 0,20(1)
	lwz 31,12(1)
.LVL175:
	mtlr 0
	addi 1,1,16
.LCFI64:
	.cfi_def_cfa_offset 0
	.cfi_restore 31
	blr
	.cfi_endproc
.LFE1463:
	.size	_ZN9idWindingD0Ev, .-_ZN9idWindingD0Ev
	.section	".text"
	.align 2
	.globl _ZN10idMoveable27Event_SetOwnerFromSpawnArgsEv
	.type	_ZN10idMoveable27Event_SetOwnerFromSpawnArgsEv, @function
_ZN10idMoveable27Event_SetOwnerFromSpawnArgsEv:
.LFB2841:
	.loc 2 516 0
	.cfi_startproc
	.cfi_personality 0,__gxx_personality_v0
	.cfi_lsda 0,.LLSDA2841
.LVL176:
	mflr 0
	stwu 1,-64(1)
.LCFI65:
	.cfi_def_cfa_offset 64
	.cfi_register 65, 0
.LVL177:
.LBB1610:
.LBB1611:
.LBB1612:
.LBB1613:
	.loc 5 357 0
	li 9,20
.LBE1613:
.LBE1612:
.LBE1611:
.LBB1620:
.LBB1621:
	.file 11 "d:/Data/Nintendo/DoomGX/src/game/../idlib/../idlib/Dict.h"
	.loc 11 231 0
	lis 4,.LC17@ha
.LBE1621:
.LBE1620:
.LBE1610:
	.loc 2 516 0
	stw 29,52(1)
.LBB1659:
.LBB1644:
.LBB1637:
	.loc 11 231 0
	la 4,.LC17@l(4)
.LBE1637:
.LBE1644:
.LBE1659:
	.loc 2 516 0
	stw 0,68(1)
	mr 29,3
	.cfi_offset 65, 4
	.cfi_offset 29, -12
.LBB1660:
.LBB1645:
.LBB1617:
.LBB1614:
	.loc 5 356 0
	li 0,0
	.loc 5 357 0
	stw 9,16(1)
.LBE1614:
.LBE1617:
.LBE1645:
.LBB1646:
.LBB1638:
	.loc 11 231 0
	addi 3,3,100
.LVL178:
.LBE1638:
.LBE1646:
.LBB1647:
.LBB1618:
.LBB1615:
	.loc 5 358 0
	addi 9,1,20
.LBE1615:
.LBE1618:
.LBE1647:
.LBE1660:
	.loc 2 516 0
	stw 30,56(1)
	addi 30,1,8
	.cfi_offset 30, -8
	stw 28,48(1)
	stw 31,60(1)
.LBB1661:
.LBB1648:
.LBB1619:
.LBB1616:
	.loc 5 356 0
	stw 0,8(1)
	.loc 5 358 0
	stw 9,12(1)
	.loc 5 359 0
	stb 0,20(1)
.LVL179:
.LEHB10:
.LBE1616:
.LBE1619:
.LBE1648:
.LBB1649:
.LBB1639:
	.loc 11 231 0
	.cfi_offset 31, -4
	.cfi_offset 28, -16
	bl _ZNK6idDict7FindKeyEPKc
.LVL180:
	.loc 11 232 0
	cmpwi 0,3,0
	beq- 0,.L108
.LBE1639:
	.loc 2 1205 0
	lwz 28,4(3)
.LVL181:
	addi 30,1,8
.LBB1640:
.LBB1622:
.LBB1623:
.LBB1624:
.LBB1625:
	.loc 5 350 0
	lwz 0,16(1)
.LBE1625:
.LBE1624:
.LBE1623:
	.loc 2 1205 0
	lwz 31,0(28)
.LBB1630:
	.loc 5 534 0
	addi 4,31,1
.LVL182:
.LBB1628:
.LBB1626:
	.loc 5 350 0
	cmpw 7,4,0
	bgt- 7,.L117
.LVL183:
.L109:
.LBE1626:
.LBE1628:
	.loc 5 535 0
	lwz 4,4(28)
	mr 5,31
	lwz 3,12(1)
	bl memcpy
	.loc 5 536 0
	lwz 9,12(1)
	li 0,0
.LBE1630:
.LBE1622:
.LBE1640:
.LBE1649:
	.loc 2 520 0
	lis 3,gameLocal@ha
.LBB1650:
.LBB1641:
.LBB1634:
.LBB1631:
	.loc 5 536 0
	stbx 0,9,31
.LBE1631:
.LBE1634:
.LBE1641:
.LBE1650:
	.loc 2 520 0
	la 3,gameLocal@l(3)
.LBB1651:
.LBB1642:
.LBB1635:
.LBB1632:
	.loc 5 537 0
	stw 31,8(1)
.LVL184:
.LBE1632:
.LBE1635:
.LBE1642:
.LBE1651:
	.loc 2 520 0
	lwz 4,12(1)
	bl _ZNK11idGameLocal10FindEntityEPKc
.LVL185:
	lis 4,EV_SetOwner@ha
	stw 3,44(1)
	li 0,101
	la 4,EV_SetOwner@l(4)
	mr 3,29
.LVL186:
	addi 5,1,40
	stw 0,40(1)
	bl _ZN7idClass12ProcessEventEPK10idEventDef10idEventArg
.LEHE10:
.LVL187:
.L111:
.LBB1652:
.LBB1653:
.LBB1654:
	.loc 5 501 0
	mr 3,30
.LEHB11:
	bl _ZN5idStr8FreeDataEv
.LEHE11:
.LBE1654:
.LBE1653:
.LBE1652:
.LBE1661:
	.loc 2 522 0
	lwz 0,68(1)
	lwz 28,48(1)
	mtlr 0
	lwz 29,52(1)
.LVL188:
	lwz 30,56(1)
	lwz 31,60(1)
	addi 1,1,64
	.cfi_remember_state
.LCFI66:
	.cfi_def_cfa_offset 0
	.cfi_restore 31
	.cfi_restore 30
	.cfi_restore 29
	.cfi_restore 28
	blr
.LVL189:
.L117:
.LCFI67:
	.cfi_restore_state
.LBB1662:
.LBB1655:
.LBB1643:
.LBB1636:
.LBB1633:
.LBB1629:
.LBB1627:
	.loc 5 351 0
	mr 3,30
.LVL190:
	li 5,0
.LEHB12:
	bl _ZN5idStr10ReAllocateEib
.LVL191:
	b .L109
.LVL192:
.L108:
.LBE1627:
.LBE1629:
.LBE1633:
.LBE1636:
	.loc 11 236 0
	addi 30,1,8
	lis 4,.LC4@ha
	mr 3,30
.LVL193:
	la 4,.LC4@l(4)
	bl _ZN5idStraSEPKc
.LEHE12:
	b .L111
.L115:
	mr 31,3
.LVL194:
.LBE1643:
.LBE1655:
.LBB1656:
.LBB1657:
.LBB1658:
	.loc 5 501 0
	mr 3,30
	bl _ZN5idStr8FreeDataEv
	mr 3,31
.LEHB13:
	bl _Unwind_Resume
.LEHE13:
.LBE1658:
.LBE1657:
.LBE1656:
.LBE1662:
	.cfi_endproc
.LFE2841:
	.section	.gcc_except_table
.LLSDA2841:
	.byte	0xff
	.byte	0xff
	.byte	0x1
	.uleb128 .LLSDACSE2841-.LLSDACSB2841
.LLSDACSB2841:
	.uleb128 .LEHB10-.LFB2841
	.uleb128 .LEHE10-.LEHB10
	.uleb128 .L115-.LFB2841
	.uleb128 0
	.uleb128 .LEHB11-.LFB2841
	.uleb128 .LEHE11-.LEHB11
	.uleb128 0
	.uleb128 0
	.uleb128 .LEHB12-.LFB2841
	.uleb128 .LEHE12-.LEHB12
	.uleb128 .L115-.LFB2841
	.uleb128 0
	.uleb128 .LEHB13-.LFB2841
	.uleb128 .LEHE13-.LEHB13
	.uleb128 0
	.uleb128 0
.LLSDACSE2841:
	.section	".text"
	.size	_ZN10idMoveable27Event_SetOwnerFromSpawnArgsEv, .-_ZN10idMoveable27Event_SetOwnerFromSpawnArgsEv
	.align 2
	.globl _ZN17idExplodingBarrel5SpawnEv
	.type	_ZN17idExplodingBarrel5SpawnEv, @function
_ZN17idExplodingBarrel5SpawnEv:
.LFB2877:
	.loc 2 830 0
	.cfi_startproc
.LVL195:
	stwu 1,-16(1)
.LCFI68:
	.cfi_def_cfa_offset 16
	mflr 0
.LBB1681:
.LBB1682:
.LBB1683:
.LBB1684:
	.loc 11 241 0
	lis 4,.LC20@ha
.LBE1684:
.LBE1683:
.LBE1682:
.LBE1681:
	.loc 2 830 0
	stw 30,8(1)
	.loc 2 831 0
	addi 30,3,100
	.cfi_offset 30, -8
	.cfi_register 65, 0
.LVL196:
	.loc 2 830 0
	stw 31,12(1)
.LBB1698:
.LBB1694:
.LBB1690:
.LBB1686:
	.loc 11 241 0
	la 4,.LC20@l(4)
.LBE1686:
.LBE1690:
.LBE1694:
.LBE1698:
	.loc 2 830 0
	mr 31,3
	.cfi_offset 31, -4
.LBB1699:
.LBB1695:
.LBB1691:
.LBB1687:
	.loc 11 241 0
	mr 3,30
.LVL197:
.LBE1687:
.LBE1691:
.LBE1695:
.LBE1699:
	.loc 2 830 0
	stw 0,20(1)
.LBB1700:
.LBB1696:
.LBB1692:
.LBB1688:
	.loc 11 241 0
	.cfi_offset 65, 4
	bl _ZNK6idDict7FindKeyEPKc
.LVL198:
	.loc 11 242 0
	cmpwi 0,3,0
	beq- 0,.L122
.LVL199:
.LBB1685:
	.loc 2 1205 0
	lwz 9,4(3)
	lwz 3,4(9)
.LVL200:
.L119:
.LBE1685:
.LBE1688:
.LBE1692:
	.loc 11 253 0
	bl atoi
.LBE1696:
.LBE1700:
	.loc 2 832 0
	lwz 0,192(31)
	li 9,1
	.loc 2 831 0
	stw 3,188(31)
	.loc 2 832 0
	rlwimi 0,9,29,2,2
	.loc 2 833 0
	mr 3,31
	.loc 2 832 0
	stw 0,192(31)
	.loc 2 833 0
	bl _ZNK8idEntity10GetPhysicsEv
	li 4,0
	lwz 9,0(3)
	lwz 0,132(9)
	mtctr 0
	bctrl
.LBB1701:
.LBB1702:
	.loc 3 424 0
	lwz 0,0(3)
.LBE1702:
.LBE1701:
	.loc 2 833 0
	mr 9,3
.LVL201:
	.loc 2 834 0
	mr 3,31
.LVL202:
.LBB1704:
.LBB1703:
	.loc 3 424 0
	stw 0,1416(31)
	.loc 3 425 0
	lwz 0,4(9)
	stw 0,1420(31)
	.loc 3 426 0
	lwz 0,8(9)
	stw 0,1424(31)
.LBE1703:
.LBE1704:
	.loc 2 834 0
	bl _ZNK8idEntity10GetPhysicsEv
.LVL203:
	li 4,0
	lwz 9,0(3)
	lwz 0,136(9)
	mtctr 0
	bctrl
.LVL204:
.LBB1705:
.LBB1706:
	.loc 4 333 0
	addi 8,31,1428
	li 10,0
.L120:
.LBB1707:
.LBB1708:
	.loc 3 424 0
	mr 11,3
	mr 9,8
	lwzux 0,11,10
.LBE1708:
.LBE1707:
	.loc 4 333 0
	cmpwi 7,10,24
.LBB1711:
.LBB1709:
	.loc 3 424 0
	stwux 0,9,10
.LBE1709:
.LBE1711:
	.loc 4 333 0
	addi 10,10,12
.LBB1712:
.LBB1710:
	.loc 3 425 0
	lwz 0,4(11)
	stw 0,4(9)
	.loc 3 426 0
	lwz 0,8(11)
	stw 0,8(9)
.LBE1710:
.LBE1712:
	.loc 4 333 0
	bne+ 7,.L120
.LBE1706:
.LBE1705:
	.loc 2 835 0
	li 0,0
	.loc 2 836 0
	li 9,-1
	.loc 2 835 0
	stw 0,1412(31)
.LBB1713:
.LBB1714:
.LBB1715:
.LBB1716:
	.loc 11 241 0
	lis 4,.LC21@ha
.LBE1716:
.LBE1715:
.LBE1714:
.LBE1713:
	.loc 2 836 0
	stw 9,1464(31)
.LBB1732:
.LBB1726:
.LBB1722:
.LBB1718:
	.loc 11 241 0
	mr 3,30
.LVL205:
.LBE1718:
.LBE1722:
.LBE1726:
.LBE1732:
	.loc 2 837 0
	stw 9,1468(31)
.LBB1733:
.LBB1727:
.LBB1723:
.LBB1719:
	.loc 11 241 0
	la 4,.LC21@l(4)
.LBE1719:
.LBE1723:
.LBE1727:
.LBE1733:
	.loc 2 838 0
	stw 0,1900(31)
	.loc 2 839 0
	stw 0,1896(31)
.LVL206:
.LBB1734:
.LBB1728:
.LBB1724:
.LBB1720:
	.loc 11 241 0
	bl _ZNK6idDict7FindKeyEPKc
.LVL207:
	.loc 11 242 0
	cmpwi 0,3,0
	beq- 0,.L123
.LVL208:
.LBB1717:
	.loc 2 1205 0
	lwz 9,4(3)
	lwz 3,4(9)
.LVL209:
.L121:
.LBE1717:
.LBE1720:
.LBE1724:
	.loc 11 249 0
	bl atof
.LBE1728:
.LBE1734:
	.loc 2 841 0
	li 4,0
.LBB1735:
.LBB1729:
	.loc 11 249 0
	frsp 1,1
.LBE1729:
.LBE1735:
	.loc 2 841 0
	li 5,216
	addi 3,31,1472
.LBB1736:
.LBB1730:
	.loc 11 249 0
	stfs 1,1904(31)
.LBE1730:
.LBE1736:
	.loc 2 841 0
	bl memset
	.loc 2 842 0
	addi 3,31,1688
	li 4,0
	li 5,208
	bl memset
	.loc 2 843 0
	lwz 0,20(1)
	lwz 30,8(1)
.LVL210:
	mtlr 0
	lwz 31,12(1)
.LVL211:
	addi 1,1,16
	.cfi_remember_state
.LCFI69:
	.cfi_def_cfa_offset 0
	.cfi_restore 31
	.cfi_restore 30
	blr
.LVL212:
.L122:
.LCFI70:
	.cfi_restore_state
.LBB1737:
.LBB1697:
.LBB1693:
.LBB1689:
	.loc 11 245 0
	lis 3,.LC18@ha
.LVL213:
	la 3,.LC18@l(3)
	b .L119
.LVL214:
.L123:
.LBE1689:
.LBE1693:
.LBE1697:
.LBE1737:
.LBB1738:
.LBB1731:
.LBB1725:
.LBB1721:
	lis 3,.LC19@ha
.LVL215:
	la 3,.LC19@l(3)
	b .L121
.LBE1721:
.LBE1725:
.LBE1731:
.LBE1738:
	.cfi_endproc
.LFE2877:
	.size	_ZN17idExplodingBarrel5SpawnEv, .-_ZN17idExplodingBarrel5SpawnEv
	.align 2
	.globl _ZN10idMoveable4ShowEv
	.type	_ZN10idMoveable4ShowEv, @function
_ZN10idMoveable4ShowEv:
.LFB2827:
	.loc 2 259 0
	.cfi_startproc
.LVL216:
	mflr 0
	stwu 1,-16(1)
.LCFI71:
	.cfi_def_cfa_offset 16
	.cfi_register 65, 0
	stw 31,12(1)
	mr 31,3
	.cfi_offset 31, -4
	stw 0,20(1)
	.loc 2 260 0
	.cfi_offset 65, 4
	bl _ZN8idEntity4ShowEv
.LVL217:
.LBB1747:
.LBB1748:
.LBB1749:
.LBB1750:
	.loc 11 241 0
	lis 4,.LC22@ha
	addi 3,31,100
	la 4,.LC22@l(4)
	bl _ZNK6idDict7FindKeyEPKc
.LVL218:
	.loc 11 242 0
	cmpwi 0,3,0
	beq- 0,.L128
.LVL219:
.LBB1751:
	.loc 2 1205 0
	lwz 9,4(3)
	lwz 3,4(9)
.LVL220:
.L126:
.LBE1751:
.LBE1750:
.LBE1749:
	.loc 11 257 0
	bl atoi
.LBE1748:
.LBE1747:
	.loc 2 261 0
	cmpwi 7,3,0
	bne+ 7,.L125
.LVL221:
.LBB1755:
.LBB1756:
	.loc 2 262 0
	addi 3,31,636
	li 4,1
	li 5,-1
	bl _ZN19idPhysics_RigidBody11SetContentsEii
.LVL222:
.L125:
.LBE1756:
.LBE1755:
	.loc 2 264 0
	lwz 0,20(1)
	lwz 31,12(1)
.LVL223:
	mtlr 0
	addi 1,1,16
	.cfi_remember_state
.LCFI72:
	.cfi_def_cfa_offset 0
	.cfi_restore 31
	blr
.LVL224:
.L128:
.LCFI73:
	.cfi_restore_state
.LBB1757:
.LBB1754:
.LBB1753:
.LBB1752:
	.loc 11 245 0
	lis 3,.LC19@ha
.LVL225:
	la 3,.LC19@l(3)
	b .L126
.LBE1752:
.LBE1753:
.LBE1754:
.LBE1757:
	.cfi_endproc
.LFE2827:
	.size	_ZN10idMoveable4ShowEv, .-_ZN10idMoveable4ShowEv
	.align 2
	.globl _ZN17idExplodingBarrel13Event_RespawnEv
	.type	_ZN17idExplodingBarrel13Event_RespawnEv, @function
_ZN17idExplodingBarrel13Event_RespawnEv:
.LFB2886:
	.loc 2 1117 0
	.cfi_startproc
.LVL226:
	stwu 1,-96(1)
.LCFI74:
	.cfi_def_cfa_offset 96
	mflr 0
.LBB1800:
.LBB1801:
.LBB1802:
.LBB1803:
.LBB1804:
	.loc 11 241 0
	lis 4,.LC26@ha
.LBE1804:
.LBE1803:
.LBE1802:
.LBE1801:
.LBE1800:
	.loc 2 1117 0
	stw 22,40(1)
.LBB1906:
	.loc 2 1119 0
	addi 22,3,100
	.cfi_offset 22, -56
	.cfi_register 65, 0
.LVL227:
.LBE1906:
	.loc 2 1117 0
	stw 31,76(1)
.LBB1907:
.LBB1818:
.LBB1814:
.LBB1810:
.LBB1806:
	.loc 11 241 0
	la 4,.LC26@l(4)
.LBE1806:
.LBE1810:
.LBE1814:
.LBE1818:
.LBE1907:
	.loc 2 1117 0
	mr 31,3
	.cfi_offset 31, -20
.LBB1908:
.LBB1819:
.LBB1815:
.LBB1811:
.LBB1807:
	.loc 11 241 0
	mr 3,22
.LVL228:
.LBE1807:
.LBE1811:
.LBE1815:
.LBE1819:
.LBE1908:
	.loc 2 1117 0
	stw 0,100(1)
	stfd 30,80(1)
	stfd 31,88(1)
	stw 21,36(1)
	stw 23,44(1)
	stw 24,48(1)
	stw 25,52(1)
	stw 26,56(1)
	stw 27,60(1)
	stw 28,64(1)
	stw 29,68(1)
	stw 30,72(1)
.LBB1909:
.LBB1820:
.LBB1816:
.LBB1812:
.LBB1808:
	.loc 11 241 0
	.cfi_offset 30, -24
	.cfi_offset 29, -28
	.cfi_offset 28, -32
	.cfi_offset 27, -36
	.cfi_offset 26, -40
	.cfi_offset 25, -44
	.cfi_offset 24, -48
	.cfi_offset 23, -52
	.cfi_offset 21, -60
	.cfi_offset 63, -8
	.cfi_offset 62, -16
	.cfi_offset 65, 4
	bl _ZNK6idDict7FindKeyEPKc
.LVL229:
	.loc 11 242 0
	cmpwi 0,3,0
	beq- 0,.L144
.LVL230:
.LBB1805:
	.loc 2 1205 0
	lwz 9,4(3)
	lwz 3,4(9)
.LVL231:
.L130:
.LBE1805:
.LBE1808:
.LBE1812:
	.loc 11 253 0
	bl atoi
.LBE1816:
.LBE1820:
.LBB1821:
	.loc 2 1120 0
	mr. 21,3
	beq- 0,.L131
.LVL232:
.LBB1822:
.LBB1823:
	.loc 2 1122 0 discriminator 1
	lis 28,gameLocal@ha
	lis 9,.LC24@ha
	la 28,gameLocal@l(28)
	lfs 31,.LC24@l(9)
	lwz 0,48(28)
	cmpwi 7,0,0
	ble- 7,.L132
.LBB1824:
	.loc 2 1128 0
	lis 9,.LC0@ha
.LBB1825:
.LBB1826:
.LBB1827:
.LBB1828:
.LBB1829:
.LBB1830:
	.loc 9 276 0
	lis 24,_ZN6idMath5iSqrtE@ha
.LBE1830:
.LBE1829:
.LBE1828:
.LBE1827:
.LBE1826:
.LBE1825:
	.loc 2 1128 0
	lfs 30,.LC0@l(9)
.LBE1824:
	.loc 2 1122 0
	addi 29,28,528
	li 30,0
.LBB1873:
.LBB1853:
	.loc 2 1205 0
	lis 27,_ZN8idPlayer4TypeE@ha
.LBE1853:
.LBB1859:
.LBB1849:
.LBB1845:
.LBB1841:
.LBB1836:
.LBB1831:
	.loc 9 275 0
	lis 23,.LC1@ha
	.loc 9 276 0
	la 24,_ZN6idMath5iSqrtE@l(24)
	.loc 9 278 0
	lis 25,.LC32@ha
.LVL233:
.L136:
.LBE1831:
.LBE1836:
.LBE1841:
.LBE1845:
.LBE1849:
.LBE1859:
	.loc 2 1123 0
	lwzu 9,4(29)
	cmpwi 7,9,0
.LBB1860:
.LBB1854:
	.file 12 "d:/Data/Nintendo/DoomGX/src/game/gamesys/Class.h"
	.loc 12 340 0
	mr 3,9
.LBE1854:
.LBE1860:
	.loc 2 1123 0
	beq- 7,.L135
.LVL234:
.LBB1861:
.LBB1857:
	.loc 12 340 0 discriminator 2
	lwz 9,0(9)
	lwz 0,0(9)
	mtctr 0
	bctrl
.LVL235:
.LBE1857:
	.loc 2 1205 0 discriminator 2
	la 9,_ZN8idPlayer4TypeE@l(27)
	lwz 0,56(3)
.LBB1858:
.LBB1855:
.LBB1856:
	.loc 12 311 0 discriminator 2
	lwz 11,56(9)
	cmpw 7,0,11
	blt- 7,.L135
	.loc 12 311 0 is_stmt 0
	lwz 9,60(9)
	cmpw 7,0,9
	bgt- 7,.L135
.LBE1856:
.LBE1855:
.LBE1858:
.LBE1861:
	.loc 2 1126 0 is_stmt 1
	lwz 3,0(29)
.LVL236:
	bl _ZNK8idEntity10GetPhysicsEv
	li 4,0
	lwz 9,0(3)
	lwz 0,132(9)
	mtctr 0
	bctrl
	mr 26,3
	mr 3,31
	bl _ZNK8idEntity10GetPhysicsEv
	li 4,0
	lwz 9,0(3)
	lwz 0,132(9)
	mtctr 0
	bctrl
.LVL237:
.LBB1862:
.LBB1863:
	.loc 3 431 0
	lfs 12,4(26)
	lfs 0,4(3)
.LBE1863:
.LBE1862:
	.loc 2 1128 0
	fcmpu 7,31,30
.LBB1867:
.LBB1864:
	.loc 3 431 0
	lfs 13,0(26)
	fsubs 12,12,0
	lfs 0,0(3)
	lfs 10,8(26)
	fsubs 13,13,0
	lfs 0,8(3)
.LBE1864:
.LBE1867:
.LBB1868:
.LBB1850:
	.loc 3 632 0
	fmuls 12,12,12
.LBB1846:
.LBB1842:
.LBB1837:
.LBB1832:
	.loc 9 275 0
	lfs 11,.LC1@l(23)
.LBE1832:
.LBE1837:
.LBE1842:
.LBE1846:
.LBE1850:
.LBE1868:
.LBB1869:
.LBB1865:
	.loc 3 431 0
	fsubs 0,10,0
.LVL238:
	.loc 3 632 0
	fmadds 13,13,13,12
.LVL239:
.LBE1865:
.LBE1869:
.LBB1870:
.LBB1851:
.LBB1847:
.LBB1843:
.LBB1838:
.LBB1833:
	.loc 9 278 0
	lfs 12,.LC32@l(25)
.LBE1833:
.LBE1838:
.LBE1843:
.LBE1847:
.LBE1851:
.LBE1870:
.LBB1871:
.LBB1866:
	.loc 3 632 0
	fmadds 13,0,0,13
	stfs 13,24(1)
.LVL240:
.LBE1866:
.LBE1871:
.LBB1872:
.LBB1852:
.LBB1848:
.LBB1844:
.LBB1839:
.LBB1834:
	.loc 9 275 0
	fmuls 11,13,11
	.loc 9 270 0
	lwz 0,24(1)
.LVL241:
	.loc 2 1117 0
	fneg 11,11
	.loc 9 276 0
	rlwinm 9,0,19,21,29
	rlwinm 11,0,9,24,31
	subfic 0,11,380
	lwzx 9,24,9
	rlwinm 0,0,22,0,8
	or 0,0,9
	.loc 9 277 0
	stw 0,28(1)
	lfs 0,28(1)
.LVL242:
	fmr 13,0
.LVL243:
	.loc 9 278 0
	fmul 0,13,13
.LVL244:
	fmadd 0,11,0,12
	fmul 0,13,0
.LVL245:
	.loc 9 279 0
	fmul 13,0,0
	fmadd 12,11,13,12
.LVL246:
.LBE1834:
.LBE1839:
	.loc 9 303 0
	lfs 13,24(1)
.LBB1840:
.LBB1835:
	.loc 9 279 0
	fmul 0,0,12
.LVL247:
	.loc 9 280 0
	frsp 0,0
.LVL248:
.LBE1835:
.LBE1840:
	.loc 9 303 0
	fmuls 0,13,0
.LBE1844:
.LBE1848:
.LBE1852:
.LBE1872:
	.loc 2 1128 0
	bnl- 7,.L154
.L150:
	.loc 2 1129 0
	fmr 31,0
.LVL249:
.L135:
.LBE1873:
	.loc 2 1122 0
	lwz 0,48(28)
	addi 30,30,1
.LVL250:
	cmpw 7,0,30
	bgt+ 7,.L136
.LVL251:
.L132:
.LBE1823:
	.loc 2 1132 0
	xoris 21,21,0x8000
	lis 0,0x4330
	stw 21,12(1)
	lis 30,.LC28@ha
	stw 0,8(1)
	lfs 0,.LC28@l(30)
	lfd 13,8(1)
	fsub 0,13,0
	frsp 0,0
	fcmpu 7,0,31
	bgt- 7,.L155
.L131:
.LVL252:
.LBE1822:
.LBE1821:
.LBB1888:
.LBB1889:
	.loc 11 241 0
	lis 4,.LC30@ha
	mr 3,22
	la 4,.LC30@l(4)
	bl _ZNK6idDict7FindKeyEPKc
.LVL253:
	.loc 11 242 0
	cmpwi 0,3,0
	beq- 0,.L148
.LVL254:
.LBB1890:
	.loc 2 1205 0
	lwz 9,4(3)
	lwz 4,4(9)
.LBE1890:
.LBE1889:
.LBE1888:
	.loc 2 1138 0
	cmpwi 7,4,0
	beq- 7,.L141
.LVL255:
.L140:
	.loc 2 1138 0 is_stmt 0 discriminator 1
	lbz 0,0(4)
	cmpwi 7,0,0
	bne- 7,.L156
.LVL256:
.L141:
.LBB1892:
.LBB1893:
.LBB1894:
.LBB1895:
	.loc 11 241 0 is_stmt 1
	lis 4,.LC20@ha
	mr 3,22
	la 4,.LC20@l(4)
	bl _ZNK6idDict7FindKeyEPKc
.LVL257:
	.loc 11 242 0
	cmpwi 0,3,0
	beq- 0,.L149
.LVL258:
.LBB1896:
	.loc 2 1205 0
	lwz 9,4(3)
	lwz 3,4(9)
.LVL259:
.L142:
.LBE1896:
.LBE1895:
.LBE1894:
	.loc 11 253 0
	bl atoi
.LBE1893:
.LBE1892:
	.loc 2 1142 0
	lwz 0,192(31)
	li 9,1
	.loc 2 1143 0
	addi 30,31,636
	.loc 2 1142 0
	rlwimi 0,9,29,2,2
	.loc 2 1141 0
	stw 3,188(31)
	.loc 2 1142 0
	stw 0,192(31)
	.loc 2 1143 0
	addi 4,31,1416
	mr 3,30
	li 5,-1
	bl _ZN19idPhysics_RigidBody9SetOriginERK6idVec3i
	.loc 2 1144 0
	mr 3,30
	addi 4,31,1428
	li 5,-1
	bl _ZN19idPhysics_RigidBody7SetAxisERK6idMat3i
	.loc 2 1145 0
	li 4,1
	li 5,-1
	mr 3,30
	bl _ZN19idPhysics_RigidBody11SetContentsEii
	.loc 2 1146 0
	mr 3,30
	bl _ZN19idPhysics_RigidBody11DropToFloorEv
	.loc 2 1147 0
	li 0,0
	stw 0,1412(31)
	.loc 2 1148 0
	mr 3,31
	lwz 9,0(31)
	lwz 0,80(9)
	mtctr 0
	bctrl
	.loc 2 1149 0
	mr 3,31
	bl _ZN8idEntity13UpdateVisualsEv
.LVL260:
.L129:
.LBE1909:
	.loc 2 1150 0
	lwz 0,100(1)
	lwz 21,36(1)
	mtlr 0
	lwz 22,40(1)
.LVL261:
	lwz 23,44(1)
	lwz 24,48(1)
	lwz 25,52(1)
	lwz 26,56(1)
	lwz 27,60(1)
	lwz 28,64(1)
	lwz 29,68(1)
	lwz 30,72(1)
	lwz 31,76(1)
.LVL262:
	lfd 30,80(1)
	lfd 31,88(1)
	addi 1,1,96
	.cfi_remember_state
.LCFI75:
	.cfi_def_cfa_offset 0
	.cfi_restore 63
	.cfi_restore 62
	.cfi_restore 31
	.cfi_restore 30
	.cfi_restore 29
	.cfi_restore 28
	.cfi_restore 27
	.cfi_restore 26
	.cfi_restore 25
	.cfi_restore 24
	.cfi_restore 23
	.cfi_restore 22
	.cfi_restore 21
	blr
.LVL263:
.L154:
.LCFI76:
	.cfi_restore_state
.LBB1910:
.LBB1900:
.LBB1885:
.LBB1875:
.LBB1874:
	.loc 2 1128 0 discriminator 1
	fcmpu 7,31,0
	bng- 7,.L135
	b .L150
.LVL264:
.L156:
.LBE1874:
.LBE1875:
.LBE1885:
.LBE1900:
	.loc 2 1139 0
	lwz 9,0(31)
	mr 3,31
.LVL265:
	lwz 0,44(9)
	mtctr 0
	bctrl
	b .L141
.LVL266:
.L155:
.LBB1901:
.LBB1886:
.LBB1876:
.LBB1877:
.LBB1878:
.LBB1879:
	.loc 11 241 0
	lis 4,.LC29@ha
	mr 3,22
	la 4,.LC29@l(4)
	bl _ZNK6idDict7FindKeyEPKc
.LVL267:
	.loc 11 242 0
	cmpwi 0,3,0
	beq- 0,.L147
.LVL268:
.LBB1880:
	.loc 2 1205 0
	lwz 9,4(3)
	lwz 3,4(9)
.LVL269:
.L138:
.LBE1880:
.LBE1879:
.LBE1878:
	.loc 11 253 0
	bl atoi
.LBE1877:
.LBE1876:
	.loc 2 1133 0
	lis 0,0x4330
	xoris 3,3,0x8000
	stw 0,16(1)
	stw 3,20(1)
	lis 4,.LANCHOR0@ha
	lfs 0,.LC28@l(30)
	la 4,.LANCHOR0@l(4)
	lfd 1,16(1)
	mr 3,31
	addi 4,4,532
	fsub 1,1,0
	frsp 1,1
	bl _ZN7idClass12PostEventSecEPK10idEventDeff
	.loc 2 1134 0
	b .L129
.LVL270:
.L144:
.LBE1886:
.LBE1901:
.LBB1902:
.LBB1817:
.LBB1813:
.LBB1809:
	.loc 11 245 0
	lis 3,.LC23@ha
.LVL271:
	la 3,.LC23@l(3)
	b .L130
.LVL272:
.L149:
.LBE1809:
.LBE1813:
.LBE1817:
.LBE1902:
.LBB1903:
.LBB1899:
.LBB1898:
.LBB1897:
	lis 3,.LC18@ha
.LVL273:
	la 3,.LC18@l(3)
	b .L142
.LVL274:
.L148:
.LBE1897:
.LBE1898:
.LBE1899:
.LBE1903:
.LBB1904:
.LBB1891:
	lis 4,.LC4@ha
	la 4,.LC4@l(4)
	b .L140
.LVL275:
.L147:
.LBE1891:
.LBE1904:
.LBB1905:
.LBB1887:
.LBB1884:
.LBB1883:
.LBB1882:
.LBB1881:
	lis 3,.LC25@ha
.LVL276:
	la 3,.LC25@l(3)
	b .L138
.LBE1881:
.LBE1882:
.LBE1883:
.LBE1884:
.LBE1887:
.LBE1905:
.LBE1910:
	.cfi_endproc
.LFE2886:
	.size	_ZN17idExplodingBarrel13Event_RespawnEv, .-_ZN17idExplodingBarrel13Event_RespawnEv
	.align 2
	.globl _ZN10idMoveable7CollideERK7trace_sRK6idVec3
	.type	_ZN10idMoveable7CollideERK7trace_sRK6idVec3, @function
_ZN10idMoveable7CollideERK7trace_sRK6idVec3:
.LFB2828:
	.loc 2 271 0
	.cfi_startproc
.LVL277:
	mflr 0
	stwu 1,-80(1)
.LCFI77:
	.cfi_def_cfa_offset 80
	.cfi_register 65, 0
.LBB1942:
	.loc 2 277 0
	lis 9,.LC34@ha
.LBE1942:
	.loc 2 271 0
	stw 29,52(1)
	mr 29,4
	.cfi_offset 29, -28
	stw 30,56(1)
	mr 30,5
	.cfi_offset 30, -24
.LVL278:
	stw 31,60(1)
	mr 31,3
	.cfi_offset 31, -20
	stw 0,84(1)
	stfd 30,64(1)
	stfd 31,72(1)
	stw 27,44(1)
	stw 28,48(1)
.LBB2179:
.LBB1943:
.LBB1944:
	.loc 3 435 0
	lfs 0,72(4)
	lfs 13,4(5)
.LBE1944:
.LBE1943:
	lfs 12,0(5)
.LBB1946:
.LBB1945:
	fmuls 13,13,0
.LBE1945:
.LBE1946:
	lfs 0,68(4)
	lfs 31,8(5)
	.cfi_offset 28, -32
	.cfi_offset 27, -36
	.cfi_offset 63, -8
	.cfi_offset 62, -16
	.cfi_offset 65, 4
	fmadds 0,12,0,13
	lfs 13,76(4)
	.loc 2 276 0
	fnmadds 31,31,13,0
.LVL279:
	.loc 2 277 0
	lfs 0,.LC34@l(9)
	fcmpu 7,31,0
	bng- 7,.L158
.LVL280:
	.loc 2 277 0 is_stmt 0 discriminator 1
	lis 28,gameLocal@ha
	lwz 0,1312(3)
	la 28,gameLocal@l(28)
	addis 28,28,0x25
	lwz 9,2004(28)
	cmpw 7,9,0
	bgt- 7,.L170
.LVL281:
.L158:
	.loc 2 287 0 is_stmt 1
	lbz 0,1307(31)
	cmpwi 7,0,0
	beq- 7,.L162
	.loc 2 287 0 is_stmt 0 discriminator 1
	lwz 0,1212(31)
	cmpwi 7,0,0
	bne- 7,.L171
.LVL282:
.L162:
	.loc 2 298 0 is_stmt 1
	lwz 0,1244(31)
	cmpwi 7,0,0
	beq- 7,.L165
	.loc 2 298 0 is_stmt 0 discriminator 1
	lis 30,gameLocal@ha
	lwz 0,1276(31)
	la 30,gameLocal@l(30)
	addis 30,30,0x25
	lwz 9,2004(30)
	cmpw 7,9,0
	ble- 7,.L165
.LVL283:
	.loc 2 299 0 is_stmt 1 discriminator 4
	lwz 3,1248(31)
	addi 4,29,56
	li 5,0
	mr 6,31
	li 7,0
	bl _ZN10idEntityFx7StartFxEPKcPK6idVec3PK6idMat3P8idEntityb
	.loc 2 300 0 discriminator 4
	lwz 9,2004(30)
	addi 0,9,3500
	stw 0,1276(31)
.LVL284:
.L165:
.LBE2179:
	.loc 2 304 0
	lwz 0,84(1)
	li 3,0
	lwz 27,44(1)
	mtlr 0
	lwz 28,48(1)
	lwz 29,52(1)
.LVL285:
	lwz 30,56(1)
	lwz 31,60(1)
.LVL286:
	lfd 30,64(1)
	lfd 31,72(1)
	addi 1,1,80
	.cfi_remember_state
.LCFI78:
	.cfi_def_cfa_offset 0
	.cfi_restore 63
	.cfi_restore 62
	.cfi_restore 31
	.cfi_restore 30
	.cfi_restore 29
	.cfi_restore 28
	.cfi_restore 27
	blr
.LVL287:
.L171:
.LCFI79:
	.cfi_restore_state
.LBB2180:
	.loc 2 287 0 discriminator 3
	lis 28,gameLocal@ha
	lwz 0,1308(31)
	la 9,gameLocal@l(28)
	addis 28,9,0x25
	lwz 11,2004(28)
	cmpw 7,11,0
	ble- 7,.L162
	.loc 2 288 0 discriminator 5
	lwz 11,100(29)
	addi 0,11,132
	slwi 0,0,2
	add 9,9,0
	lwz 27,4(9)
.LVL288:
	.loc 2 289 0 discriminator 5
	cmpwi 7,27,0
	beq- 7,.L162
	.loc 2 289 0 is_stmt 0 discriminator 1
	lfs 0,1280(31)
	fcmpu 7,0,31
	bnl- 7,.L162
	.loc 2 290 0 is_stmt 1
	lfs 13,1284(31)
	fcmpu 7,13,31
	blt- 7,.L167
	.loc 2 290 0 is_stmt 0 discriminator 2
	fsubs 13,13,0
.LBB1947:
.LBB1948:
.LBB1949:
.LBB1950:
	.loc 9 276 0 is_stmt 1 discriminator 2
	lis 10,_ZN6idMath5iSqrtE@ha
	la 10,_ZN6idMath5iSqrtE@l(10)
	.loc 9 275 0 discriminator 2
	lis 11,.LC1@ha
	lfs 10,.LC1@l(11)
.LBE1950:
.LBE1949:
.LBE1948:
.LBE1947:
	.loc 2 290 0 discriminator 2
	fsubs 0,31,0
	stfs 13,28(1)
.LBB1993:
.LBB1994:
.LBB1995:
.LBB1996:
	.loc 9 275 0 discriminator 2
	fmuls 9,13,10
	.loc 9 270 0 discriminator 2
	lwz 0,28(1)
.LBE1996:
.LBE1995:
.LBE1994:
.LBE1993:
	.loc 2 290 0 discriminator 2
	stfs 0,24(1)
.LBB2028:
.LBB2017:
.LBB2007:
.LBB1997:
	.loc 9 276 0 discriminator 2
	rlwinm 8,0,9,24,31
	rlwinm 9,0,19,21,29
.LVL289:
	lwzx 9,10,9
	subfic 0,8,380
	rlwinm 0,0,22,0,8
	.loc 2 271 0 discriminator 2
	fneg 9,9
	.loc 9 276 0 discriminator 2
	or 0,0,9
.LBE1997:
.LBE2007:
.LBE2017:
.LBE2028:
.LBB2029:
.LBB1979:
.LBB1965:
.LBB1951:
	.loc 9 278 0 discriminator 2
	lis 9,.LC32@ha
.LBE1951:
.LBE1965:
.LBE1979:
.LBE2029:
.LBB2030:
.LBB2018:
.LBB2008:
.LBB1998:
	.loc 9 277 0 discriminator 2
	stw 0,32(1)
.LBE1998:
.LBE2008:
.LBE2018:
.LBE2030:
.LBB2031:
.LBB1980:
.LBB1966:
.LBB1952:
	.loc 9 270 0 discriminator 2
	lwz 0,24(1)
.LBE1952:
.LBE1966:
.LBE1980:
.LBE2031:
.LBB2032:
.LBB2019:
.LBB2009:
.LBB1999:
	.loc 9 277 0 discriminator 2
	lfs 13,32(1)
.LBE1999:
.LBE2009:
.LBE2019:
.LBE2032:
.LBB2033:
.LBB1981:
.LBB1967:
.LBB1953:
	.loc 9 276 0 discriminator 2
	rlwinm 8,0,19,21,29
	rlwinm 7,0,9,24,31
.LBE1953:
.LBE1967:
.LBE1981:
.LBE2033:
.LBB2034:
.LBB2020:
.LBB2010:
.LBB2000:
	.loc 9 277 0 discriminator 2
	fmr 12,13
.LBE2000:
.LBE2010:
.LBE2020:
.LBE2034:
.LBB2035:
.LBB1982:
.LBB1968:
.LBB1954:
	.loc 9 278 0 discriminator 2
	lfs 13,.LC32@l(9)
.LVL290:
	.loc 9 276 0 discriminator 2
	lwzx 10,10,8
	subfic 0,7,380
	rlwinm 0,0,22,0,8
	.loc 9 275 0 discriminator 2
	lfs 7,24(1)
.LBE1954:
.LBE1968:
.LBE1982:
.LBE2035:
.LBB2036:
.LBB2021:
.LBB2011:
.LBB2001:
	.loc 9 278 0 discriminator 2
	fmul 11,12,12
.LBE2001:
.LBE2011:
.LBE2021:
.LBE2036:
.LBB2037:
.LBB1983:
.LBB1969:
.LBB1955:
	.loc 9 276 0 discriminator 2
	or 0,0,10
	.loc 9 277 0 discriminator 2
	stw 0,32(1)
.LBE1955:
.LBE1969:
.LBE1983:
.LBE2037:
	.loc 2 290 0 discriminator 2
	lis 10,.LC33@ha
.LBB2038:
.LBB1984:
.LBB1970:
.LBB1956:
	.loc 9 275 0 discriminator 2
	fmuls 10,7,10
.LBE1956:
.LBE1970:
.LBE1984:
.LBE2038:
	.loc 2 290 0 discriminator 2
	lfs 31,.LC33@l(10)
.LVL291:
.LBB2039:
.LBB1985:
.LBB1971:
.LBB1957:
	.loc 9 277 0 discriminator 2
	lfs 8,32(1)
.LBE1957:
.LBE1971:
.LBE1985:
.LBE2039:
.LBB2040:
.LBB2022:
.LBB2012:
.LBB2002:
	.loc 9 278 0 discriminator 2
	fmadd 11,9,11,13
.LBE2002:
.LBE2012:
.LBE2022:
.LBE2040:
.LBB2041:
.LBB1986:
.LBB1972:
.LBB1958:
	.loc 2 271 0 discriminator 2
	fneg 10,10
.LBE1958:
.LBE1972:
.LBE1986:
.LBE2041:
.LBB2042:
.LBB2023:
.LBB2013:
.LBB2003:
	.loc 9 278 0 discriminator 2
	fmul 11,12,11
.LBE2003:
.LBE2013:
.LBE2023:
.LBE2042:
.LBB2043:
.LBB1987:
.LBB1973:
.LBB1959:
	.loc 9 277 0 discriminator 2
	fmr 12,8
.LVL292:
.LBE1959:
.LBE1973:
.LBE1987:
.LBE2043:
.LBB2044:
.LBB2024:
.LBB2014:
.LBB2004:
	.loc 9 279 0 discriminator 2
	fmul 0,11,11
.LVL293:
	fmadd 9,9,0,13
.LBE2004:
.LBE2014:
.LBE2024:
.LBE2044:
.LBB2045:
.LBB1988:
.LBB1974:
.LBB1960:
	.loc 9 278 0 discriminator 2
	fmul 0,12,12
.LBE1960:
.LBE1974:
.LBE1988:
.LBE2045:
.LBB2046:
.LBB2025:
.LBB2015:
.LBB2005:
	.loc 9 279 0 discriminator 2
	fmul 11,11,9
.LBE2005:
.LBE2015:
	.loc 9 303 0 discriminator 2
	lfs 9,28(1)
.LBE2025:
.LBE2046:
.LBB2047:
.LBB1989:
.LBB1975:
.LBB1961:
	.loc 9 278 0 discriminator 2
	fmadd 0,10,0,13
.LBE1961:
.LBE1975:
.LBE1989:
.LBE2047:
.LBB2048:
.LBB2026:
.LBB2016:
.LBB2006:
	.loc 9 280 0 discriminator 2
	frsp 11,11
.LBE2006:
.LBE2016:
.LBE2026:
.LBE2048:
.LBB2049:
.LBB1990:
.LBB1976:
.LBB1962:
	.loc 9 278 0 discriminator 2
	fmul 0,12,0
.LVL294:
.LBE1962:
.LBE1976:
.LBE1990:
.LBE2049:
.LBB2050:
.LBB2027:
	.loc 9 303 0 discriminator 2
	fmuls 11,9,11
.LBE2027:
.LBE2050:
.LBB2051:
.LBB1991:
.LBB1977:
.LBB1963:
	.loc 9 279 0 discriminator 2
	fmul 12,0,0
.LBE1963:
.LBE1977:
.LBE1991:
.LBE2051:
	.loc 2 290 0 discriminator 2
	fdivs 31,31,11
.LBB2052:
.LBB1992:
.LBB1978:
.LBB1964:
	.loc 9 279 0 discriminator 2
	fmadd 13,10,12,13
.LVL295:
	fmul 0,0,13
.LVL296:
	.loc 9 280 0 discriminator 2
	frsp 0,0
.LVL297:
.LBE1964:
.LBE1978:
	.loc 9 303 0 discriminator 2
	fmuls 0,7,0
.LBE1992:
.LBE2052:
	.loc 2 290 0 discriminator 2
	fmuls 31,31,0
.LVL298:
.L164:
.LBB2053:
.LBB2054:
	.loc 3 425 0 discriminator 3
	lfs 12,4(30)
.LBE2054:
.LBE2053:
	.loc 2 293 0 discriminator 3
	mr 3,31
.LBB2058:
.LBB2055:
	.loc 3 424 0 discriminator 3
	lfs 11,0(30)
.LBE2055:
.LBE2058:
.LBB2059:
.LBB2060:
	.loc 3 527 0 discriminator 3
	fmuls 10,12,12
.LBE2060:
.LBE2059:
.LBB2067:
.LBB2056:
	.loc 3 426 0 discriminator 3
	lfs 13,8(30)
.LVL299:
.LBE2056:
.LBE2067:
.LBB2068:
.LBB2065:
.LBB2061:
.LBB2062:
	.loc 9 246 0 discriminator 3
	lfs 0,.LC1@l(11)
.LBE2062:
.LBE2061:
.LBE2065:
.LBE2068:
.LBB2069:
.LBB2057:
	.loc 3 527 0 discriminator 3
	fmadds 10,11,11,10
	fmadds 10,13,13,10
	stfs 10,24(1)
.LVL300:
.LBE2057:
.LBE2069:
.LBB2070:
.LBB2066:
.LBB2064:
.LBB2063:
	.loc 9 250 0 discriminator 3
	lfs 10,.LC32@l(9)
.LVL301:
	.loc 9 248 0 discriminator 3
	lwz 9,24(1)
	.loc 9 246 0 discriminator 3
	lfs 7,24(1)
	.loc 9 248 0 discriminator 3
	srawi 0,9,1
	.loc 9 249 0 discriminator 3
	lis 9,0x5f37
	ori 9,9,23007
	.loc 9 246 0 discriminator 3
	fmuls 0,7,0
	.loc 9 249 0 discriminator 3
	subf 9,0,9
	stw 9,24(1)
.LVL302:
	.loc 2 271 0 discriminator 3
	fneg 0,0
	.loc 9 250 0 discriminator 3
	lfs 7,24(1)
	fmuls 9,7,7
	fmadds 0,0,9,10
	fmuls 0,7,0
.LVL303:
.LBE2063:
.LBE2064:
	.loc 3 529 0 discriminator 3
	fmuls 11,11,0
	.loc 3 530 0 discriminator 3
	fmuls 12,12,0
	.loc 3 531 0 discriminator 3
	fmuls 0,13,0
.LVL304:
	.loc 3 529 0 discriminator 3
	stfs 11,8(1)
	.loc 3 530 0 discriminator 3
	stfs 12,12(1)
	.loc 3 531 0 discriminator 3
	stfs 0,16(1)
.LBE2066:
.LBE2070:
	.loc 2 293 0 discriminator 3
	lwz 9,0(27)
	lwz 30,164(9)
.LVL305:
	bl _ZNK8idEntity10GetPhysicsEv
	lwz 9,0(3)
	li 4,0
	lwz 0,24(9)
	mtctr 0
	bctrl
.LVL306:
	mr 4,31
	lwz 5,12(3)
	addi 6,1,8
	mr 3,27
	lwz 7,1216(31)
	fmr 1,31
	li 8,-1
	mtctr 30
	bctrl
	.loc 2 294 0 discriminator 3
	lwz 9,2004(28)
	addi 0,9,1000
	stw 0,1308(31)
	b .L162
.LVL307:
.L170:
	.loc 2 278 0
	lis 9,.LC35@ha
	lfs 13,.LC35@l(9)
	fcmpu 7,31,13
	bgt- 7,.L166
.LBB2071:
.LBB2072:
.LBB2073:
.LBB2074:
	.loc 9 276 0 discriminator 2
	lis 10,_ZN6idMath5iSqrtE@ha
	.loc 9 278 0 discriminator 2
	lis 9,.LC32@ha
	.loc 9 276 0 discriminator 2
	la 10,_ZN6idMath5iSqrtE@l(10)
	.loc 9 278 0 discriminator 2
	lfs 13,.LC32@l(9)
.LBE2074:
.LBE2073:
.LBE2072:
.LBE2071:
.LBB2111:
.LBB2112:
.LBB2113:
.LBB2114:
	.loc 9 276 0 discriminator 2
	lwz 0,1920(10)
.LBE2114:
.LBE2113:
.LBE2112:
.LBE2111:
	.loc 2 278 0 discriminator 2
	fsubs 0,31,0
.LBB2153:
.LBB2139:
.LBB2127:
.LBB2115:
	.loc 9 278 0 discriminator 2
	lis 9,.LC38@ha
.LBE2115:
.LBE2127:
.LBE2139:
.LBE2153:
.LBB2154:
.LBB2099:
.LBB2087:
.LBB2075:
	.loc 9 275 0 discriminator 2
	lis 11,.LC1@ha
.LBE2075:
.LBE2087:
.LBE2099:
.LBE2154:
.LBB2155:
.LBB2140:
.LBB2128:
.LBB2116:
	.loc 9 276 0 discriminator 2
	oris 0,0,0x3d80
	.loc 9 278 0 discriminator 2
	lfs 9,.LC38@l(9)
	.loc 9 277 0 discriminator 2
	stw 0,32(1)
.LBE2116:
.LBE2128:
.LBE2140:
.LBE2155:
	.loc 2 278 0 discriminator 2
	stfs 0,24(1)
.LVL308:
.LBB2156:
.LBB2141:
.LBB2129:
.LBB2117:
	.loc 9 277 0 discriminator 2
	lfs 7,32(1)
.LBE2117:
.LBE2129:
.LBE2141:
.LBE2156:
.LBB2157:
.LBB2100:
.LBB2088:
.LBB2076:
	.loc 9 270 0 discriminator 2
	lwz 0,24(1)
.LVL309:
.LBE2076:
.LBE2088:
.LBE2100:
.LBE2157:
.LBB2158:
.LBB2142:
.LBB2130:
.LBB2118:
	.loc 9 277 0 discriminator 2
	fmr 12,7
.LBE2118:
.LBE2130:
.LBE2142:
.LBE2158:
.LBB2159:
.LBB2101:
.LBB2089:
.LBB2077:
	.loc 9 275 0 discriminator 2
	lfs 10,.LC1@l(11)
	.loc 9 276 0 discriminator 2
	rlwinm 9,0,19,21,29
	rlwinm 11,0,9,24,31
	lwzx 9,10,9
	subfic 0,11,380
.LBE2077:
.LBE2089:
.LBE2101:
.LBE2159:
.LBB2160:
.LBB2143:
.LBB2131:
.LBB2119:
	.loc 9 278 0 discriminator 2
	fmul 11,12,12
.LBE2119:
.LBE2131:
.LBE2143:
.LBE2160:
.LBB2161:
.LBB2102:
.LBB2090:
.LBB2078:
	.loc 9 276 0 discriminator 2
	rlwinm 0,0,22,0,8
	or 0,0,9
.LBE2078:
.LBE2090:
.LBE2102:
.LBE2161:
.LBB2162:
.LBB2144:
	.loc 9 303 0 discriminator 2
	lis 9,.LC36@ha
.LBE2144:
.LBE2162:
.LBB2163:
.LBB2103:
.LBB2091:
.LBB2079:
	.loc 9 277 0 discriminator 2
	stw 0,32(1)
	.loc 9 275 0 discriminator 2
	fmuls 10,0,10
.LVL310:
.LBE2079:
.LBE2091:
.LBE2103:
.LBE2163:
.LBB2164:
.LBB2145:
.LBB2132:
.LBB2120:
	.loc 2 271 0 discriminator 2
	fneg 11,11
.LBE2120:
.LBE2132:
.LBE2145:
.LBE2164:
.LBB2165:
.LBB2104:
.LBB2092:
.LBB2080:
	.loc 9 277 0 discriminator 2
	lfs 8,32(1)
	.loc 2 271 0 discriminator 2
	fneg 10,10
.LVL311:
.LBE2080:
.LBE2092:
.LBE2104:
.LBE2165:
.LBB2166:
.LBB2146:
.LBB2133:
.LBB2121:
	.loc 9 278 0 discriminator 2
	fmadd 11,11,9,13
	fmul 11,12,11
.LBE2121:
.LBE2133:
.LBE2146:
.LBE2166:
.LBB2167:
.LBB2105:
.LBB2093:
.LBB2081:
	.loc 9 277 0 discriminator 2
	fmr 12,8
.LVL312:
.LBE2081:
.LBE2093:
.LBE2105:
.LBE2167:
.LBB2168:
.LBB2147:
.LBB2134:
.LBB2122:
	.loc 9 279 0 discriminator 2
	fmul 30,11,11
.LBE2122:
.LBE2134:
.LBE2147:
.LBE2168:
.LBB2169:
.LBB2106:
.LBB2094:
.LBB2082:
	.loc 9 278 0 discriminator 2
	fmul 0,12,12
.LVL313:
.LBE2082:
.LBE2094:
.LBE2106:
.LBE2169:
.LBB2170:
.LBB2148:
.LBB2135:
.LBB2123:
	.loc 2 271 0 discriminator 2
	fneg 30,30
.LBE2123:
.LBE2135:
.LBE2148:
.LBE2170:
.LBB2171:
.LBB2107:
.LBB2095:
.LBB2083:
	.loc 9 278 0 discriminator 2
	fmadd 0,10,0,13
.LBE2083:
.LBE2095:
.LBE2107:
.LBE2171:
.LBB2172:
.LBB2149:
.LBB2136:
.LBB2124:
	.loc 9 279 0 discriminator 2
	fmadd 30,30,9,13
.LBE2124:
.LBE2136:
.LBE2149:
.LBE2172:
.LBB2173:
.LBB2108:
	.loc 9 303 0 discriminator 2
	lfs 9,24(1)
.LBB2096:
.LBB2084:
	.loc 9 278 0 discriminator 2
	fmul 0,12,0
.LVL314:
.LBE2084:
.LBE2096:
.LBE2108:
.LBE2173:
.LBB2174:
.LBB2150:
	.loc 9 303 0 discriminator 2
	lfs 12,.LC36@l(9)
.LBE2150:
.LBE2174:
	.loc 2 278 0 discriminator 2
	lis 9,.LC33@ha
.LBB2175:
.LBB2151:
.LBB2137:
.LBB2125:
	.loc 9 279 0 discriminator 2
	fmul 30,11,30
.LBE2125:
.LBE2137:
.LBE2151:
.LBE2175:
	.loc 2 278 0 discriminator 2
	lfs 11,.LC33@l(9)
.LBB2176:
.LBB2152:
.LBB2138:
.LBB2126:
	.loc 9 280 0 discriminator 2
	frsp 30,30
.LBE2126:
.LBE2138:
	.loc 9 303 0 discriminator 2
	fmuls 30,30,12
.LBE2152:
.LBE2176:
.LBB2177:
.LBB2109:
.LBB2097:
.LBB2085:
	.loc 9 279 0 discriminator 2
	fmul 12,0,0
.LBE2085:
.LBE2097:
.LBE2109:
.LBE2177:
	.loc 2 278 0 discriminator 2
	fdivs 30,11,30
.LBB2178:
.LBB2110:
.LBB2098:
.LBB2086:
	.loc 9 279 0 discriminator 2
	fmadd 13,10,12,13
.LVL315:
	fmul 0,0,13
.LVL316:
	.loc 9 280 0 discriminator 2
	frsp 0,0
.LVL317:
.LBE2086:
.LBE2098:
	.loc 9 303 0 discriminator 2
	fmuls 0,9,0
.LBE2110:
.LBE2178:
	.loc 2 278 0 discriminator 2
	fmuls 30,30,0
.LVL318:
.L160:
	.loc 2 279 0 discriminator 3
	lis 4,.LC39@ha
	mr 3,31
	la 4,.LC39@l(4)
	li 5,0
.LVL319:
	li 6,0
	li 7,0
	li 8,0
	bl _ZN8idEntity10StartSoundEPKciibPi
	cmpwi 7,3,0
	bne- 7,.L172
.L161:
	.loc 2 284 0
	lwz 9,2004(28)
	addi 0,9,500
	stw 0,1312(31)
	b .L158
.LVL320:
.L166:
	.loc 2 278 0
	lis 9,.LC33@ha
	lfs 30,.LC33@l(9)
	b .L160
.LVL321:
.L167:
	.loc 2 290 0
	lis 9,.LC33@ha
	lis 11,.LC1@ha
	lfs 31,.LC33@l(9)
.LVL322:
	lis 9,.LC32@ha
	b .L164
.LVL323:
.L172:
	.loc 2 282 0
	fmr 1,30
	mr 3,31
	bl _ZN8idEntity14SetSoundVolumeEf
	b .L161
.LBE2180:
	.cfi_endproc
.LFE2828:
	.size	_ZN10idMoveable7CollideERK7trace_sRK6idVec3, .-_ZN10idMoveable7CollideERK7trace_sRK6idVec3
	.align 2
	.globl _ZN10idMoveableC2Ev
	.type	_ZN10idMoveableC2Ev, @function
_ZN10idMoveableC2Ev:
.LFB2813:
	.loc 2 64 0
	.cfi_startproc
	.cfi_personality 0,__gxx_personality_v0
	.cfi_lsda 0,.LLSDA2813
.LVL324:
	mflr 0
	stwu 1,-24(1)
.LCFI80:
	.cfi_def_cfa_offset 24
	.cfi_register 65, 0
	stw 30,16(1)
	stw 0,28(1)
	stw 31,20(1)
	mr 31,3
	.cfi_offset 31, -4
	.cfi_offset 65, 4
	.cfi_offset 30, -8
	stw 29,12(1)
.LEHB14:
.LBB2181:
	.loc 2 64 0
	.cfi_offset 29, -12
	bl _ZN8idEntityC2Ev
.LEHE14:
.LVL325:
	lis 9,_ZTV10idMoveable+8@ha
	addi 30,31,636
	la 0,_ZTV10idMoveable+8@l(9)
	mr 3,30
	stw 0,0(31)
.LEHB15:
	bl _ZN19idPhysics_RigidBodyC1Ev
.LEHE15:
.LVL326:
.LBB2182:
.LBB2183:
.LBB2184:
	.loc 5 356 0 discriminator 1
	li 0,0
	.loc 5 357 0 discriminator 1
	li 9,20
	.loc 5 358 0 discriminator 1
	addi 8,31,1192
.LBE2184:
.LBE2183:
.LBE2182:
.LBB2191:
.LBB2192:
.LBB2193:
	addi 10,31,1224
.LBE2193:
.LBE2192:
.LBE2191:
.LBB2196:
.LBB2197:
.LBB2198:
	addi 11,31,1256
.LBE2198:
.LBE2197:
.LBE2196:
	.loc 2 66 0 discriminator 1
	lis 3,.LC40@ha
.LBB2201:
.LBB2188:
.LBB2185:
	.loc 5 356 0 discriminator 1
	stw 0,1180(31)
.LBE2185:
.LBE2188:
.LBE2201:
	.loc 2 66 0 discriminator 1
	la 3,.LC40@l(3)
.LBB2202:
.LBB2189:
.LBB2186:
	.loc 5 357 0 discriminator 1
	stw 9,1188(31)
.LBE2186:
.LBE2189:
.LBE2202:
	.loc 2 66 0 discriminator 1
	li 4,1316
.LBB2203:
.LBB2190:
.LBB2187:
	.loc 5 358 0 discriminator 1
	stw 8,1184(31)
	.loc 5 359 0 discriminator 1
	stb 0,1192(31)
.LVL327:
.LBE2187:
.LBE2190:
.LBE2203:
.LBB2204:
.LBB2195:
.LBB2194:
	.loc 5 356 0 discriminator 1
	stw 0,1212(31)
	.loc 5 357 0 discriminator 1
	stw 9,1220(31)
	.loc 5 358 0 discriminator 1
	stw 10,1216(31)
	.loc 5 359 0 discriminator 1
	stb 0,1224(31)
.LVL328:
.LBE2194:
.LBE2195:
.LBE2204:
.LBB2205:
.LBB2200:
.LBB2199:
	.loc 5 356 0 discriminator 1
	stw 0,1244(31)
	.loc 5 357 0 discriminator 1
	stw 9,1252(31)
	.loc 5 358 0 discriminator 1
	stw 11,1248(31)
	.loc 5 359 0 discriminator 1
	stb 0,1256(31)
.LEHB16:
.LBE2199:
.LBE2200:
.LBE2205:
	.loc 2 66 0 discriminator 1
	crxor 6,6,6
	bl _Z15Sys_DebugPrintfPKcz
.LEHE16:
	.loc 2 69 0
	lis 8,.LC41@ha
.LBB2206:
.LBB2207:
	.loc 3 424 0
	lis 11,vec3_origin@ha
.LBE2207:
.LBE2206:
	.loc 2 69 0
	lwz 8,.LC41@l(8)
.LBB2212:
.LBB2208:
	.loc 3 424 0
	la 9,vec3_origin@l(11)
	lwz 10,vec3_origin@l(11)
.LBE2208:
.LBE2212:
	.loc 2 71 0
	li 0,0
	.loc 2 69 0
	stw 8,1280(31)
	.loc 2 70 0
	lis 8,.LC35@ha
.LBB2213:
.LBB2209:
	.loc 3 425 0
	lwz 11,4(9)
.LBE2209:
.LBE2213:
	.loc 2 70 0
	lwz 8,.LC35@l(8)
.LBB2214:
.LBB2210:
	.loc 3 426 0
	lwz 9,8(9)
.LBE2210:
.LBE2214:
	.loc 2 70 0
	stw 8,1284(31)
	.loc 2 71 0
	stw 0,1276(31)
	.loc 2 72 0
	stw 0,1308(31)
	.loc 2 73 0
	stw 0,1312(31)
	.loc 2 74 0
	stw 0,1288(31)
.LVL329:
.LBB2215:
.LBB2211:
	.loc 3 424 0
	stw 10,1292(31)
	.loc 3 425 0
	stw 11,1296(31)
	.loc 3 426 0
	stw 9,1300(31)
.LBE2211:
.LBE2215:
	.loc 2 76 0
	stb 0,1304(31)
	.loc 2 77 0
	stb 0,1305(31)
	.loc 2 78 0
	stb 0,1306(31)
	.loc 2 79 0
	stb 0,1307(31)
.LBE2181:
	.loc 2 80 0
	lwz 0,28(1)
	lwz 29,12(1)
	mtlr 0
	lwz 30,16(1)
	lwz 31,20(1)
.LVL330:
	addi 1,1,24
	.cfi_remember_state
.LCFI81:
	.cfi_def_cfa_offset 0
	.cfi_restore 31
	.cfi_restore 30
	.cfi_restore 29
	blr
.LVL331:
.L179:
.LCFI82:
	.cfi_restore_state
	mr 30,3
.L178:
.LBB2225:
	.loc 2 64 0
	mr 3,31
	bl _ZN8idEntityD2Ev
	mr 3,30
.LEHB17:
	bl _Unwind_Resume
.LEHE17:
.LVL332:
.L180:
	mr 29,3
.LVL333:
.LBB2216:
.LBB2217:
.LBB2218:
	.loc 5 501 0
	addi 3,31,1244
	bl _ZN5idStr8FreeDataEv
.LVL334:
.LBE2218:
.LBE2217:
.LBE2216:
.LBB2219:
.LBB2220:
.LBB2221:
	addi 3,31,1212
	bl _ZN5idStr8FreeDataEv
.LVL335:
.LBE2221:
.LBE2220:
.LBE2219:
.LBB2222:
.LBB2223:
.LBB2224:
	addi 3,31,1180
	bl _ZN5idStr8FreeDataEv
.LBE2224:
.LBE2223:
.LBE2222:
	.loc 2 64 0
	mr 3,30
	bl _ZN19idPhysics_RigidBodyD1Ev
	mr 30,29
	b .L178
.LBE2225:
	.cfi_endproc
.LFE2813:
	.section	.gcc_except_table
.LLSDA2813:
	.byte	0xff
	.byte	0xff
	.byte	0x1
	.uleb128 .LLSDACSE2813-.LLSDACSB2813
.LLSDACSB2813:
	.uleb128 .LEHB14-.LFB2813
	.uleb128 .LEHE14-.LEHB14
	.uleb128 0
	.uleb128 0
	.uleb128 .LEHB15-.LFB2813
	.uleb128 .LEHE15-.LEHB15
	.uleb128 .L179-.LFB2813
	.uleb128 0
	.uleb128 .LEHB16-.LFB2813
	.uleb128 .LEHE16-.LEHB16
	.uleb128 .L180-.LFB2813
	.uleb128 0
	.uleb128 .LEHB17-.LFB2813
	.uleb128 .LEHE17-.LEHB17
	.uleb128 0
	.uleb128 0
.LLSDACSE2813:
	.section	".text"
	.size	_ZN10idMoveableC2Ev, .-_ZN10idMoveableC2Ev
	.align 2
	.globl _ZN10idMoveable14CreateInstanceEv
	.type	_ZN10idMoveable14CreateInstanceEv, @function
_ZN10idMoveable14CreateInstanceEv:
.LFB2810:
	.loc 2 47 0
	.cfi_startproc
	.cfi_personality 0,__gxx_personality_v0
	.cfi_lsda 0,.LLSDA2810
	mflr 0
	stwu 1,-24(1)
.LCFI83:
	.cfi_def_cfa_offset 24
	.cfi_register 65, 0
.LBB2226:
	li 3,1316
.LBE2226:
	stw 30,16(1)
	stw 0,28(1)
	stw 31,20(1)
.LEHB18:
.LBB2227:
	.loc 2 47 0
	.cfi_offset 31, -4
	.cfi_offset 65, 4
	.cfi_offset 30, -8
	bl _ZN7idClassnwEj
.LEHE18:
	mr 31,3
.LEHB19:
	bl _ZN10idMoveableC1Ev
.LEHE19:
.LVL336:
	.loc 2 47 0 is_stmt 0 discriminator 2
	mr 3,31
.LEHB20:
	bl _ZN7idClass23FindUninitializedMemoryEv
.LEHE20:
.LVL337:
.L186:
.LBE2227:
	.loc 2 47 0
	lwz 0,28(1)
	mr 3,31
	lwz 30,16(1)
	mtlr 0
	lwz 31,20(1)
	addi 1,1,24
	.cfi_remember_state
.LCFI84:
	.cfi_def_cfa_offset 0
	.cfi_restore 31
	.cfi_restore 30
	blr
.L187:
.L183:
.LCFI85:
	.cfi_restore_state
.LBB2228:
	cmpwi 7,4,1
	beq- 7,.L185
.LEHB21:
	bl _Unwind_Resume
.LEHE21:
.L188:
	mr 30,3
	mr 3,31
	stw 4,8(1)
	bl _ZN7idClassdlEPv
	mr 3,30
	lwz 4,8(1)
	b .L183
.L185:
.LBE2228:
.LBB2229:
	bl __cxa_begin_catch
	li 31,0
	bl __cxa_end_catch
	b .L186
.LBE2229:
	.cfi_endproc
.LFE2810:
	.section	.gcc_except_table
	.align 2
.LLSDA2810:
	.byte	0xff
	.byte	0
	.uleb128 .LLSDATT2810-.LLSDATTD2810
.LLSDATTD2810:
	.byte	0x1
	.uleb128 .LLSDACSE2810-.LLSDACSB2810
.LLSDACSB2810:
	.uleb128 .LEHB18-.LFB2810
	.uleb128 .LEHE18-.LEHB18
	.uleb128 .L187-.LFB2810
	.uleb128 0x1
	.uleb128 .LEHB19-.LFB2810
	.uleb128 .LEHE19-.LEHB19
	.uleb128 .L188-.LFB2810
	.uleb128 0x3
	.uleb128 .LEHB20-.LFB2810
	.uleb128 .LEHE20-.LEHB20
	.uleb128 .L187-.LFB2810
	.uleb128 0x1
	.uleb128 .LEHB21-.LFB2810
	.uleb128 .LEHE21-.LEHB21
	.uleb128 0
	.uleb128 0
.LLSDACSE2810:
	.byte	0x1
	.byte	0
	.byte	0
	.byte	0x7d
	.align 2
	.long	_ZTI12idAllocError
.LLSDATT2810:
	.section	".text"
	.size	_ZN10idMoveable14CreateInstanceEv, .-_ZN10idMoveable14CreateInstanceEv
	.align 2
	.globl _ZNK10idMoveable9AllowStepEv
	.type	_ZNK10idMoveable9AllowStepEv, @function
_ZNK10idMoveable9AllowStepEv:
.LFB2830:
	.loc 2 340 0 is_stmt 1
	.cfi_startproc
.LVL338:
	.loc 2 342 0
	lbz 3,1306(3)
.LVL339:
	blr
	.cfi_endproc
.LFE2830:
	.size	_ZNK10idMoveable9AllowStepEv, .-_ZNK10idMoveable9AllowStepEv
	.align 2
	.globl _ZN10idMoveable14BecomeNonSolidEv
	.type	_ZN10idMoveable14BecomeNonSolidEv, @function
_ZN10idMoveable14BecomeNonSolidEv:
.LFB2831:
	.loc 2 349 0
	.cfi_startproc
.LVL340:
	stwu 1,-16(1)
.LCFI86:
	.cfi_def_cfa_offset 16
	mflr 0
	.loc 2 351 0
	li 4,3072
	li 5,-1
	.loc 2 349 0
	stw 31,12(1)
	.loc 2 351 0
	addi 31,3,636
	.cfi_offset 31, -4
	.cfi_register 65, 0
	mr 3,31
.LVL341:
	.loc 2 349 0
	stw 0,20(1)
	.loc 2 351 0
	.cfi_offset 65, 4
	bl _ZN19idPhysics_RigidBody11SetContentsEii
	.loc 2 352 0
	mr 3,31
	li 4,1057
	li 5,-1
	bl _ZN14idPhysics_Base11SetClipMaskEii
	.loc 2 353 0
	lwz 0,20(1)
	lwz 31,12(1)
.LVL342:
	mtlr 0
	addi 1,1,16
.LCFI87:
	.cfi_def_cfa_offset 0
	.cfi_restore 31
	blr
	.cfi_endproc
.LFE2831:
	.size	_ZN10idMoveable14BecomeNonSolidEv, .-_ZN10idMoveable14BecomeNonSolidEv
	.align 2
	.globl _ZN10idMoveable20Event_BecomeNonSolidEv
	.type	_ZN10idMoveable20Event_BecomeNonSolidEv, @function
_ZN10idMoveable20Event_BecomeNonSolidEv:
.LFB2839:
	.loc 2 470 0
	.cfi_startproc
.LVL343:
	.loc 2 472 0
	.loc 2 471 0
	b _ZN10idMoveable14BecomeNonSolidEv
.LVL344:
	.cfi_endproc
.LFE2839:
	.size	_ZN10idMoveable20Event_BecomeNonSolidEv, .-_ZN10idMoveable20Event_BecomeNonSolidEv
	.align 2
	.globl _ZN10idMoveable12EnableDamageEbf
	.type	_ZN10idMoveable12EnableDamageEbf, @function
_ZN10idMoveable12EnableDamageEbf:
.LFB2832:
	.loc 2 360 0
	.cfi_startproc
.LVL345:
	.loc 2 362 0
	lis 9,.LC0@ha
	.loc 2 360 0
	mflr 0
	.loc 2 362 0
	lfs 0,.LC0@l(9)
	.loc 2 360 0
	stwu 1,-24(1)
.LCFI88:
	.cfi_def_cfa_offset 24
	.cfi_register 65, 0
	.loc 2 362 0
	fcmpu 7,1,0
	.loc 2 360 0
	stw 0,28(1)
	.loc 2 361 0
	stb 4,1307(3)
	.loc 2 362 0
	beq- 7,.L192
	.cfi_offset 65, 4
	.loc 2 363 0
	cmpwi 7,4,0
	beq- 7,.L196
	lis 9,.LC33@ha
	lwz 0,.LC33@l(9)
.L194:
.LVL346:
	.loc 2 363 0 is_stmt 0 discriminator 3
	lis 4,.LANCHOR0@ha
.LVL347:
	li 9,102
	la 4,.LANCHOR0@l(4)
	addi 5,1,8
	addi 4,4,456
	stw 9,8(1)
	stw 0,12(1)
	bl _ZN7idClass12PostEventSecEPK10idEventDeff10idEventArg
.LVL348:
.L192:
	.loc 2 365 0 is_stmt 1
	lwz 0,28(1)
	addi 1,1,24
	.cfi_remember_state
.LCFI89:
	.cfi_def_cfa_offset 0
	mtlr 0
	blr
.LVL349:
.L196:
.LCFI90:
	.cfi_restore_state
	.loc 2 363 0
	stfs 0,16(1)
	lwz 0,16(1)
	b .L194
	.cfi_endproc
.LFE2832:
	.size	_ZN10idMoveable12EnableDamageEbf, .-_ZN10idMoveable12EnableDamageEbf
	.align 2
	.globl _ZN10idMoveable17InitInitialSplineEi
	.type	_ZN10idMoveable17InitInitialSplineEi, @function
_ZN10idMoveable17InitInitialSplineEi:
.LFB2833:
	.loc 2 372 0
	.cfi_startproc
.LVL350:
	mflr 0
	stwu 1,-72(1)
.LCFI91:
	.cfi_def_cfa_offset 72
	.cfi_register 65, 0
	stw 30,64(1)
	mr 30,4
	.cfi_offset 30, -8
	stw 0,76(1)
	stw 31,68(1)
	.loc 2 372 0
	mr 31,3
	.cfi_offset 31, -4
	.cfi_offset 65, 4
.LBB2277:
	.loc 2 375 0
	bl _ZNK8idEntity9GetSplineEv
.LVL351:
.LBB2278:
.LBB2279:
.LBB2280:
.LBB2281:
	.loc 11 241 0
	lis 4,.LC43@ha
.LBE2281:
.LBE2280:
.LBE2279:
.LBE2278:
	.loc 2 375 0
	stw 3,1288(31)
.LVL352:
.LBB2289:
.LBB2287:
.LBB2285:
.LBB2283:
	.loc 11 241 0
	la 4,.LC43@l(4)
	addi 3,31,100
	bl _ZNK6idDict7FindKeyEPKc
.LVL353:
	.loc 11 242 0
	cmpwi 0,3,0
	beq- 0,.L204
.LVL354:
.LBB2282:
	.loc 2 1205 0
	lwz 9,4(3)
	lwz 3,4(9)
.LVL355:
.L198:
.LBE2282:
.LBE2283:
.LBE2285:
	.loc 11 253 0
	bl atoi
.LBE2287:
.LBE2289:
	.loc 2 378 0
	lwz 10,1288(31)
	cmpwi 7,10,0
	beq- 7,.L197
	.loc 2 379 0
	lis 9,0x4330
	lis 7,.LC28@ha
	xoris 3,3,0x8000
	stw 9,24(1)
	stw 3,28(1)
	lfs 11,.LC28@l(7)
.LBB2290:
	.loc 2 1205 0
	lwz 0,4(10)
.LBE2290:
	.loc 2 379 0
	fmr 0,11
	lfd 13,24(1)
.LBB2294:
.LBB2291:
	.loc 6 323 0
	addic. 11,0,-1
.LBE2291:
.LBE2294:
	.loc 2 379 0
	fsub 13,13,0
	frsp 13,13
.LVL356:
.LBB2295:
.LBB2292:
	.loc 6 323 0
	blt- 0,.L200
	xoris 11,11,0x8000
.LVL357:
	stw 9,32(1)
	stw 11,36(1)
	.loc 6 324 0
	mtctr 0
	.loc 6 323 0
	li 9,0
	.loc 6 324 0
	lis 8,0x4330
	.loc 6 323 0
	lfd 12,32(1)
	fsub 12,12,0
	frsp 12,12
.LVL358:
.L201:
	.loc 6 324 0
	xoris 0,9,0x8000
	lwz 11,16(10)
	stw 0,44(1)
	slwi 0,9,2
	stw 8,40(1)
	.loc 6 323 0
	addi 9,9,1
.LVL359:
	.loc 6 324 0
	lfd 0,40(1)
	fsub 0,0,11
	frsp 0,0
	fmuls 0,13,0
	fdivs 0,0,12
	stfsx 0,11,0
	.loc 6 323 0
	bdnz .L201
.LVL360:
.L200:
	.loc 6 326 0
	li 0,1
.LBE2292:
.LBE2295:
	.loc 2 380 0
	xoris 30,30,0x8000
.LVL361:
.LBB2296:
.LBB2293:
	.loc 6 326 0
	stb 0,40(10)
.LBE2293:
.LBE2296:
	.loc 2 380 0
	lis 0,0x4330
	stw 30,52(1)
	stw 0,48(1)
	lfs 0,.LC28@l(7)
	lwz 10,1288(31)
.LVL362:
	lfd 1,48(1)
.LBB2297:
.LBB2298:
.LBB2299:
	.loc 6 361 0
	lwz 0,4(10)
.LBE2299:
.LBE2298:
.LBE2297:
	.loc 2 380 0
	fsub 1,1,0
.LBB2307:
	.loc 2 1205 0
	lwz 11,16(10)
.LVL363:
.LBE2307:
.LBB2308:
.LBB2304:
.LBB2302:
	.loc 6 361 0
	cmpwi 7,0,0
.LBE2302:
.LBE2304:
.LBE2308:
	.loc 2 380 0
	lfs 13,0(11)
.LVL364:
	frsp 1,1
	fsubs 13,1,13
.LVL365:
.LBB2309:
.LBB2305:
.LBB2303:
	.loc 6 361 0
	ble- 7,.L202
	li 9,0
	b .L203
.LVL366:
.L206:
	lwz 11,16(10)
.LVL367:
.L203:
.LBB2300:
.LBB2301:
	.loc 2 372 0
	slwi 0,9,2
.LBE2301:
.LBE2300:
	.loc 6 361 0
	addi 9,9,1
.LVL368:
	.loc 6 362 0
	lfsx 0,11,0
	fadds 0,0,13
	stfsx 0,11,0
	.loc 6 361 0
	lwz 0,4(10)
	cmpw 7,9,0
	blt+ 7,.L206
.LVL369:
.L202:
.LBE2303:
	.loc 6 364 0
	li 0,1
.LBE2305:
.LBE2309:
	.loc 2 381 0
	addi 3,1,8
.LBB2310:
.LBB2306:
	.loc 6 364 0
	stb 0,40(10)
.LBE2306:
.LBE2310:
	.loc 2 381 0
	lwz 4,1288(31)
	lwz 9,0(4)
	lwz 0,24(9)
	mtctr 0
	bctrl
.LVL370:
.LBB2311:
.LBB2312:
	.loc 3 424 0
	lwz 0,8(1)
.LBE2312:
.LBE2311:
	.loc 2 382 0
	li 4,0
	addi 3,31,636
.LBB2314:
.LBB2313:
	.loc 3 424 0
	stw 0,1292(31)
	.loc 3 425 0
	lwz 0,12(1)
	stw 0,1296(31)
	.loc 3 426 0
	lwz 0,16(1)
	stw 0,1300(31)
.LBE2313:
.LBE2314:
	.loc 2 382 0
	bl _ZNK19idPhysics_RigidBody7GetAxisEi
.LVL371:
.LBB2315:
.LBB2316:
	.loc 4 553 0
	lfs 0,1296(31)
	.loc 4 554 0
	lfs 13,16(3)
.LBE2316:
.LBE2315:
.LBB2321:
.LBB2322:
.LBB2323:
.LBB2324:
	.loc 9 276 0
	lis 9,_ZN6idMath5iSqrtE@ha
.LBE2324:
.LBE2323:
.LBE2322:
.LBE2321:
.LBB2332:
.LBB2317:
	.loc 4 554 0
	lfs 11,12(3)
.LBE2317:
.LBE2332:
.LBB2333:
.LBB2329:
.LBB2327:
.LBB2325:
	.loc 9 276 0
	la 9,_ZN6idMath5iSqrtE@l(9)
.LBE2325:
.LBE2327:
.LBE2329:
.LBE2333:
.LBB2334:
.LBB2318:
	.loc 4 554 0
	fmuls 13,0,13
	.loc 4 553 0
	lfs 12,4(3)
	lfs 10,1292(31)
.LVL372:
.LBE2318:
.LBE2334:
	.loc 2 384 0
	li 4,1
.LBB2335:
.LBB2319:
	.loc 4 553 0
	fmuls 12,0,12
	lfs 7,0(3)
	.loc 4 554 0
	fmadds 13,11,10,13
	lfs 8,20(3)
	.loc 4 555 0
	lfs 9,28(3)
	.loc 4 553 0
	lfs 11,1300(31)
	fmadds 12,7,10,12
	.loc 4 555 0
	fmuls 0,0,9
	lfs 9,24(3)
	.loc 4 554 0
	fmadds 13,8,11,13
	.loc 4 553 0
	lfs 8,8(3)
	.loc 4 555 0
	fmadds 10,9,10,0
	lfs 0,32(3)
	.loc 4 553 0
	fmadds 12,8,11,12
.LVL373:
	.loc 4 557 0
	stfs 13,1296(31)
.LVL374:
.LBE2319:
.LBE2335:
.LBB2336:
.LBB2330:
	.loc 3 649 0
	fmuls 9,13,13
.LBE2330:
.LBE2336:
	.loc 2 384 0
	mr 3,31
.LVL375:
.LBB2337:
.LBB2320:
	.loc 4 555 0
	fmadds 0,0,11,10
.LVL376:
	.loc 4 556 0
	stfs 12,1292(31)
	.loc 3 649 0
	fmadds 11,12,12,9
	.loc 4 555 0
	stfs 0,1300(31)
	.loc 3 649 0
	fmadds 11,0,0,11
	stfs 11,56(1)
.LBE2320:
.LBE2337:
.LBB2338:
.LBB2331:
.LBB2328:
.LBB2326:
	.loc 9 270 0
	lwz 0,56(1)
.LVL377:
	.loc 9 276 0
	rlwinm 11,0,9,24,31
	rlwinm 0,0,19,21,29
	lwzx 9,9,0
	subfic 0,11,380
	rlwinm 0,0,22,0,8
	.loc 9 275 0
	lis 11,.LC1@ha
	.loc 9 276 0
	or 0,0,9
	.loc 9 275 0
	lfs 7,.LC1@l(11)
.LVL378:
	.loc 9 277 0
	stw 0,60(1)
	.loc 9 278 0
	lis 9,.LC32@ha
	.loc 9 275 0
	fmuls 7,11,7
.LVL379:
	.loc 9 278 0
	lfs 8,.LC32@l(9)
.LVL380:
	.loc 9 277 0
	lfs 11,60(1)
	fmr 9,11
.LVL381:
	.loc 2 372 0
	fneg 7,7
.LVL382:
	.loc 9 278 0
	fmul 10,9,9
	fmadd 10,7,10,8
	fmul 10,9,10
.LVL383:
	.loc 9 279 0
	fmul 11,10,10
	fmadd 11,7,11,8
.LVL384:
	fmul 11,10,11
.LVL385:
	.loc 9 280 0
	frsp 11,11
.LVL386:
.LBE2326:
.LBE2328:
	.loc 3 651 0
	fmuls 12,12,11
.LVL387:
	.loc 3 652 0
	fmuls 13,13,11
.LVL388:
	.loc 3 653 0
	fmuls 0,0,11
	.loc 3 651 0
	stfs 12,1292(31)
	.loc 3 652 0
	stfs 13,1296(31)
	.loc 3 653 0
	stfs 0,1300(31)
.LBE2331:
.LBE2338:
	.loc 2 384 0
	bl _ZN8idEntity12BecomeActiveEi
.LVL389:
.L197:
.LBE2277:
	.loc 2 386 0
	lwz 0,76(1)
	lwz 30,64(1)
	mtlr 0
	lwz 31,68(1)
.LVL390:
	addi 1,1,72
	.cfi_remember_state
.LCFI92:
	.cfi_def_cfa_offset 0
	.cfi_restore 31
	.cfi_restore 30
	blr
.LVL391:
.L204:
.LCFI93:
	.cfi_restore_state
.LBB2340:
.LBB2339:
.LBB2288:
.LBB2286:
.LBB2284:
	.loc 11 245 0
	lis 3,.LC42@ha
.LVL392:
	la 3,.LC42@l(3)
	b .L198
.LBE2284:
.LBE2286:
.LBE2288:
.LBE2339:
.LBE2340:
	.cfi_endproc
.LFE2833:
	.size	_ZN10idMoveable17InitInitialSplineEi, .-_ZN10idMoveable17InitInitialSplineEi
	.align 2
	.globl _ZN10idMoveable14Event_ActivateEP8idEntity
	.type	_ZN10idMoveable14Event_ActivateEP8idEntity, @function
_ZN10idMoveable14Event_ActivateEP8idEntity:
.LFB2840:
	.loc 2 479 0
	.cfi_startproc
.LVL393:
	mflr 0
	stwu 1,-64(1)
.LCFI94:
	.cfi_def_cfa_offset 64
	.cfi_register 65, 0
	stw 30,56(1)
.LBB2364:
	.loc 2 485 0
	addi 30,3,100
	.cfi_offset 30, -8
.LBE2364:
	.loc 2 479 0
	stw 31,60(1)
	mr 31,3
	.cfi_offset 31, -4
	stw 0,68(1)
	stw 28,48(1)
	stw 29,52(1)
.LBB2398:
	.loc 2 483 0
	lwz 9,0(3)
	lwz 0,80(9)
	.cfi_offset 29, -12
	.cfi_offset 28, -16
	.cfi_offset 65, 4
	mtctr 0
	bctrl
.LVL394:
.LBB2365:
.LBB2366:
.LBB2367:
.LBB2368:
	.loc 11 241 0
	lis 4,.LC44@ha
	mr 3,30
	la 4,.LC44@l(4)
	bl _ZNK6idDict7FindKeyEPKc
.LVL395:
	.loc 11 242 0
	cmpwi 0,3,0
	beq- 0,.L216
.LVL396:
.LBB2369:
	.loc 2 1205 0
	lwz 9,4(3)
	lwz 3,4(9)
.LVL397:
.L208:
.LBE2369:
.LBE2368:
.LBE2367:
	.loc 11 253 0
	bl atoi
	addi 29,31,636
.LBE2366:
.LBE2365:
	.loc 2 485 0
	cmpwi 7,3,0
	beq- 7,.L220
.L209:
	.loc 2 489 0
	mr 3,29
	.loc 2 491 0
	lis 28,.LC46@ha
	.loc 2 489 0
	bl _ZN19idPhysics_RigidBody8ActivateEv
	.loc 2 491 0
	la 28,.LC46@l(28)
	lis 4,.LC45@ha
	mr 5,28
	la 4,.LC45@l(4)
	addi 6,1,20
	mr 3,30
	bl _ZNK6idDict9GetVectorEPKcS1_R6idVec3
	.loc 2 492 0
	lis 4,.LC47@ha
	la 4,.LC47@l(4)
	mr 5,28
	addi 6,1,8
	mr 3,30
	bl _ZNK6idDict9GetVectorEPKcS1_R6idVec3
.LVL398:
.LBB2373:
.LBB2374:
.LBB2375:
.LBB2376:
	.loc 11 241 0
	lis 4,.LC48@ha
	mr 3,30
	la 4,.LC48@l(4)
	bl _ZNK6idDict7FindKeyEPKc
.LVL399:
	.loc 11 242 0
	cmpwi 0,3,0
	beq- 0,.L217
.LVL400:
.LBB2377:
	.loc 2 1205 0
	lwz 9,4(3)
	lwz 3,4(9)
.LVL401:
.L210:
.LBE2377:
.LBE2376:
.LBE2375:
	.loc 11 249 0
	bl atof
.LBE2374:
.LBE2373:
	.loc 2 495 0
	lis 9,.LC0@ha
.LBB2382:
.LBB2380:
	.loc 11 249 0
	frsp 1,1
.LBE2380:
.LBE2382:
	.loc 2 495 0
	lfs 0,.LC0@l(9)
	fcmpu 7,1,0
	bne- 7,.L211
	.loc 2 496 0
	mr 3,29
	addi 4,1,20
	li 5,0
	bl _ZN19idPhysics_RigidBody17SetLinearVelocityERK6idVec3i
.LVL402:
.LBB2383:
.LBB2384:
.LBB2385:
.LBB2386:
	.loc 11 241 0
	lis 4,.LC49@ha
	mr 3,30
	la 4,.LC49@l(4)
	bl _ZNK6idDict7FindKeyEPKc
.LVL403:
	.loc 11 242 0
	cmpwi 0,3,0
	beq- 0,.L218
.L222:
.LVL404:
.LBB2387:
	.loc 2 1205 0
	lwz 9,4(3)
	lwz 3,4(9)
.LVL405:
.LBE2387:
.LBE2386:
.LBE2385:
	.loc 11 249 0
	bl atof
.LVL406:
.LBE2384:
.LBE2383:
	.loc 2 502 0
	lis 9,.LC0@ha
.LBB2393:
.LBB2390:
	.loc 11 249 0
	frsp 1,1
.LBE2390:
.LBE2393:
	.loc 2 502 0
	lfs 0,.LC0@l(9)
	fcmpu 7,1,0
	beq- 7,.L221
.L214:
.LVL407:
	.loc 2 505 0
	li 0,118
	lis 4,EV_SetAngularVelocity@ha
	addi 5,1,40
	stw 0,40(1)
	mr 3,31
	addi 0,1,8
.LVL408:
	la 4,EV_SetAngularVelocity@l(4)
	stw 0,44(1)
	bl _ZN7idClass12PostEventSecEPK10idEventDeff10idEventArg
.LVL409:
	.loc 2 508 0
	lis 9,gameLocal+2426836@ha
	lwz 4,gameLocal+2426836@l(9)
	mr 3,31
	bl _ZN10idMoveable17InitInitialSplineEi
.LBE2398:
	.loc 2 509 0
	lwz 0,68(1)
	lwz 28,48(1)
	mtlr 0
	lwz 29,52(1)
	lwz 30,56(1)
.LVL410:
	lwz 31,60(1)
.LVL411:
	addi 1,1,64
	.cfi_remember_state
.LCFI95:
	.cfi_def_cfa_offset 0
	.cfi_restore 31
	.cfi_restore 30
	.cfi_restore 29
	.cfi_restore 28
	blr
.LVL412:
.L211:
.LCFI96:
	.cfi_restore_state
.LBB2399:
	.loc 2 498 0
	li 0,118
	lis 4,EV_SetLinearVelocity@ha
	la 4,EV_SetLinearVelocity@l(4)
	addi 5,1,40
	stw 0,40(1)
	mr 3,31
	addi 0,1,20
.LVL413:
	stw 0,44(1)
	bl _ZN7idClass12PostEventSecEPK10idEventDeff10idEventArg
.LVL414:
.LBB2394:
.LBB2391:
.LBB2389:
.LBB2388:
	.loc 11 241 0
	lis 4,.LC49@ha
	mr 3,30
	la 4,.LC49@l(4)
	bl _ZNK6idDict7FindKeyEPKc
.LVL415:
	.loc 11 242 0
	cmpwi 0,3,0
	bne+ 0,.L222
.LVL416:
.L218:
	.loc 11 245 0
	lis 3,.LC19@ha
.LVL417:
	la 3,.LC19@l(3)
.LBE2388:
.LBE2389:
	.loc 11 249 0
	bl atof
.LBE2391:
.LBE2394:
	.loc 2 502 0
	lis 9,.LC0@ha
.LBB2395:
.LBB2392:
	.loc 11 249 0
	frsp 1,1
.LBE2392:
.LBE2395:
	.loc 2 502 0
	lfs 0,.LC0@l(9)
	fcmpu 7,1,0
	bne+ 7,.L214
.L221:
	.loc 2 503 0
	mr 3,29
	addi 4,1,8
	li 5,0
	bl _ZN19idPhysics_RigidBody18SetAngularVelocityERK6idVec3i
	.loc 2 508 0
	lis 9,gameLocal+2426836@ha
	lwz 4,gameLocal+2426836@l(9)
	mr 3,31
	bl _ZN10idMoveable17InitInitialSplineEi
.LBE2399:
	.loc 2 509 0
	lwz 0,68(1)
	lwz 28,48(1)
	mtlr 0
	lwz 29,52(1)
	lwz 30,56(1)
.LVL418:
	lwz 31,60(1)
.LVL419:
	addi 1,1,64
	.cfi_remember_state
	.cfi_restore 28
	.cfi_restore 29
	.cfi_restore 30
	.cfi_restore 31
.LCFI97:
	.cfi_def_cfa_offset 0
	blr
.LVL420:
.L220:
.LCFI98:
	.cfi_restore_state
.LBB2400:
	.loc 2 486 0
	mr 3,29
	bl _ZN19idPhysics_RigidBody12EnableImpactEv
	b .L209
.LVL421:
.L216:
.LBB2396:
.LBB2372:
.LBB2371:
.LBB2370:
	.loc 11 245 0
	lis 3,.LC19@ha
.LVL422:
	la 3,.LC19@l(3)
	b .L208
.LVL423:
.L217:
.LBE2370:
.LBE2371:
.LBE2372:
.LBE2396:
.LBB2397:
.LBB2381:
.LBB2379:
.LBB2378:
	lis 3,.LC19@ha
.LVL424:
	la 3,.LC19@l(3)
	b .L210
.LBE2378:
.LBE2379:
.LBE2381:
.LBE2397:
.LBE2400:
	.cfi_endproc
.LFE2840:
	.size	_ZN10idMoveable14Event_ActivateEP8idEntity, .-_ZN10idMoveable14Event_ActivateEP8idEntity
	.align 2
	.globl _ZN10idMoveable7RestoreEP13idRestoreGame
	.type	_ZN10idMoveable7RestoreEP13idRestoreGame, @function
_ZN10idMoveable7RestoreEP13idRestoreGame:
.LFB2825:
	.loc 2 216 0
	.cfi_startproc
.LVL425:
	stwu 1,-40(1)
.LCFI99:
	.cfi_def_cfa_offset 40
	mflr 0
	stw 31,36(1)
	mr 31,3
	.cfi_offset 31, -4
	.cfi_register 65, 0
	stw 30,32(1)
.LBB2401:
	.loc 2 219 0
	mr 3,4
.LVL426:
.LBE2401:
	.loc 2 216 0
	mr 30,4
	.cfi_offset 30, -8
.LBB2402:
	.loc 2 219 0
	addi 4,31,1180
.LVL427:
.LBE2402:
	.loc 2 216 0
	stw 0,44(1)
	stw 29,28(1)
.LBB2403:
	.loc 2 219 0
	.cfi_offset 29, -12
	.cfi_offset 65, 4
	bl _ZN13idRestoreGame10ReadStringER5idStr
.LVL428:
	.loc 2 220 0
	mr 3,30
	addi 4,31,1212
	bl _ZN13idRestoreGame10ReadStringER5idStr
	.loc 2 221 0
	mr 3,30
	addi 4,31,1244
	bl _ZN13idRestoreGame10ReadStringER5idStr
	.loc 2 222 0
	mr 3,30
	addi 4,31,1276
	bl _ZN13idRestoreGame7ReadIntERi
	.loc 2 223 0
	mr 3,30
	addi 4,31,1280
	bl _ZN13idRestoreGame9ReadFloatERf
	.loc 2 224 0
	mr 3,30
	addi 4,31,1284
	bl _ZN13idRestoreGame9ReadFloatERf
	.loc 2 225 0
	mr 3,30
	addi 4,31,1304
	bl _ZN13idRestoreGame8ReadBoolERb
	.loc 2 226 0
	mr 3,30
	addi 4,31,1305
	bl _ZN13idRestoreGame8ReadBoolERb
	.loc 2 227 0
	mr 3,30
	addi 4,31,1306
	bl _ZN13idRestoreGame8ReadBoolERb
	.loc 2 228 0
	mr 3,30
	addi 4,31,1307
	bl _ZN13idRestoreGame8ReadBoolERb
	.loc 2 229 0
	mr 3,30
	addi 4,31,1308
	bl _ZN13idRestoreGame7ReadIntERi
	.loc 2 230 0
	mr 3,30
	addi 4,31,1312
	bl _ZN13idRestoreGame7ReadIntERi
	.loc 2 231 0
	mr 3,30
	addi 4,1,8
	bl _ZN13idRestoreGame7ReadIntERi
	.loc 2 232 0
	addi 4,31,1292
	mr 3,30
	bl _ZN13idRestoreGame8ReadVec3ER6idVec3
.LVL429:
	.loc 2 234 0
	lwz 4,8(1)
	cmpwi 7,4,-1
	bne- 7,.L226
	.loc 2 237 0
	li 0,0
	.loc 2 240 0
	addi 29,31,636
	.loc 2 237 0
	stw 0,1288(31)
	.loc 2 240 0
	mr 3,30
	mr 4,29
	bl _ZN13idRestoreGame16ReadStaticObjectER7idClass
	.loc 2 241 0
	mr 3,31
	mr 4,29
	bl _ZN8idEntity14RestorePhysicsEP9idPhysics
.LBE2403:
	.loc 2 242 0
	lwz 0,44(1)
	lwz 29,28(1)
	mtlr 0
	lwz 30,32(1)
.LVL430:
	lwz 31,36(1)
.LVL431:
	addi 1,1,40
	.cfi_remember_state
.LCFI100:
	.cfi_def_cfa_offset 0
	.cfi_restore 31
	.cfi_restore 30
	.cfi_restore 29
	blr
.LVL432:
.L226:
.LCFI101:
	.cfi_restore_state
.LBB2404:
	.loc 2 240 0
	addi 29,31,636
	.loc 2 235 0
	mr 3,31
	bl _ZN10idMoveable17InitInitialSplineEi
	.loc 2 240 0
	mr 3,30
	mr 4,29
	bl _ZN13idRestoreGame16ReadStaticObjectER7idClass
	.loc 2 241 0
	mr 3,31
	mr 4,29
	bl _ZN8idEntity14RestorePhysicsEP9idPhysics
.LBE2404:
	.loc 2 242 0
	lwz 0,44(1)
	lwz 29,28(1)
	mtlr 0
	lwz 30,32(1)
.LVL433:
	lwz 31,36(1)
.LVL434:
	addi 1,1,40
	.cfi_restore 29
	.cfi_restore 30
	.cfi_restore 31
.LCFI102:
	.cfi_def_cfa_offset 0
	blr
	.cfi_endproc
.LFE2825:
	.size	_ZN10idMoveable7RestoreEP13idRestoreGame, .-_ZN10idMoveable7RestoreEP13idRestoreGame
	.align 2
	.globl _ZN10idMoveable23FollowInitialSplinePathEv
	.type	_ZN10idMoveable23FollowInitialSplinePathEv, @function
_ZN10idMoveable23FollowInitialSplinePathEv:
.LFB2834:
	.loc 2 393 0
	.cfi_startproc
.LVL435:
	mflr 0
	stwu 1,-120(1)
.LCFI103:
	.cfi_def_cfa_offset 120
	.cfi_register 65, 0
	stw 28,96(1)
.LBB2455:
	.loc 2 412 0
	li 28,0
	.cfi_offset 28, -24
.LBE2455:
	.loc 2 393 0
	stw 31,108(1)
	mr 31,3
	.cfi_offset 31, -12
	stw 0,124(1)
	stfd 31,112(1)
	stw 27,92(1)
	stw 29,100(1)
	stw 30,104(1)
.LBB2466:
	.loc 2 394 0
	lwz 4,1288(3)
	cmpwi 7,4,0
	beq- 7,.L228
	.cfi_offset 30, -16
	.cfi_offset 29, -20
	.cfi_offset 27, -28
	.cfi_offset 63, -8
	.cfi_offset 65, 4
.LBB2456:
	.loc 2 395 0
	lis 29,gameLocal@ha
	lis 30,0x4330
	la 29,gameLocal@l(29)
	lis 9,.LC28@ha
	addis 29,29,0x25
	lfs 31,.LC28@l(9)
	lwz 0,2004(29)
	stw 30,56(1)
	xoris 0,0,0x8000
	stw 0,60(1)
	lfd 1,56(1)
.LBB2457:
.LBB2458:
.LBB2459:
.LBB2460:
	.file 13 "d:/Data/Nintendo/DoomGX/src/game/../idlib/../idlib/containers/List.h"
	.loc 13 573 0
	lwz 9,20(4)
.LBE2460:
.LBE2459:
.LBE2458:
.LBE2457:
	.loc 2 395 0
	fsub 1,1,31
.LBB2464:
.LBB2463:
.LBB2462:
.LBB2461:
	.loc 13 573 0
	addi 0,9,-1
.LBE2461:
.LBE2462:
	.loc 6 60 0
	lwz 9,16(4)
	slwi 0,0,2
.LBE2463:
.LBE2464:
	.loc 2 395 0
	frsp 1,1
.LVL436:
	lfsx 0,9,0
.LBE2456:
.LBE2466:
.LBB2467:
.LBB2468:
	.loc 2 396 0
	lwz 9,0(4)
.LBE2468:
.LBE2467:
.LBB2710:
.LBB2465:
	.loc 2 395 0
	fcmpu 7,1,0
	blt- 7,.L241
	.loc 2 408 0 discriminator 1
	lwz 0,4(9)
	mr 3,4
.LVL437:
	mtctr 0
	bctrl
.LVL438:
	.loc 2 409 0 discriminator 1
	stw 28,1288(31)
.LVL439:
.L228:
.LBE2465:
.LBE2710:
	.loc 2 413 0
	lwz 0,124(1)
	mr 3,28
	lwz 27,92(1)
	mtlr 0
	lwz 28,96(1)
	lwz 29,100(1)
	lwz 30,104(1)
	lwz 31,108(1)
.LVL440:
	lfd 31,112(1)
	addi 1,1,120
	.cfi_remember_state
.LCFI104:
	.cfi_def_cfa_offset 0
	.cfi_restore 63
	.cfi_restore 31
	.cfi_restore 30
	.cfi_restore 29
	.cfi_restore 28
	.cfi_restore 27
	blr
.LVL441:
.L241:
.LCFI105:
	.cfi_restore_state
.LBB2711:
.LBB2708:
	.loc 2 396 0
	lwz 0,20(9)
	addi 3,1,44
.LVL442:
	.loc 2 397 0
	addi 28,31,636
.LBB2469:
.LBB2470:
	.loc 3 439 0
	lis 27,.LC38@ha
.LBE2470:
.LBE2469:
	.loc 2 396 0
	mtctr 0
	bctrl
.LVL443:
	.loc 2 397 0
	li 4,0
	mr 3,28
	bl _ZNK19idPhysics_RigidBody9GetOriginEi
.LVL444:
.LBB2474:
.LBB2475:
	.loc 3 431 0
	lfs 11,48(1)
	lfs 12,4(3)
.LBE2475:
.LBE2474:
	.loc 2 398 0
	li 5,0
.LBB2479:
.LBB2476:
	.loc 3 431 0
	lfs 13,8(3)
.LBE2476:
.LBE2479:
	.loc 2 398 0
	addi 4,1,32
.LBB2480:
.LBB2477:
	.loc 3 431 0
	fsubs 12,11,12
	lfs 11,52(1)
	lfs 0,0(3)
.LBE2477:
.LBE2480:
	.loc 2 398 0
	mr 3,28
.LVL445:
.LBB2481:
.LBB2478:
	.loc 3 431 0
	fsubs 13,11,13
.LVL446:
	lfs 11,44(1)
	fsubs 11,11,0
.LBE2478:
.LBE2481:
.LBB2482:
.LBB2473:
	.loc 3 439 0
	lfs 0,.LC38@l(27)
.LVL447:
	fmuls 12,12,0
.LVL448:
	fmuls 13,13,0
.LVL449:
	fmuls 0,11,0
.LBB2471:
.LBB2472:
	.loc 3 397 0
	stfs 12,36(1)
	.loc 3 398 0
	stfs 13,40(1)
	.loc 3 396 0
	stfs 0,32(1)
.LBE2472:
.LBE2471:
.LBE2473:
.LBE2482:
	.loc 2 398 0
	bl _ZN19idPhysics_RigidBody17SetLinearVelocityERK6idVec3i
.LVL450:
	.loc 2 400 0
	lwz 0,2004(29)
	addi 3,1,20
	lwz 4,1288(31)
	xoris 0,0,0x8000
	lwz 9,0(4)
	stw 0,68(1)
	stw 30,64(1)
	lfd 0,64(1)
	lwz 0,24(9)
	fsub 31,0,31
	mtctr 0
	frsp 1,31
	bctrl
	.loc 2 401 0
	mr 3,28
	li 4,0
	bl _ZNK19idPhysics_RigidBody7GetAxisEi
.LVL451:
.LBB2483:
.LBB2484:
	.loc 3 620 0
	lfs 9,24(1)
	lfs 10,20(1)
.LBE2484:
.LBE2483:
.LBB2492:
.LBB2493:
.LBB2494:
.LBB2495:
	.loc 9 275 0
	lis 9,.LC1@ha
.LBE2495:
.LBE2494:
.LBE2493:
.LBE2492:
.LBB2538:
.LBB2539:
	.loc 3 632 0
	fmuls 13,9,9
.LBE2539:
.LBE2538:
.LBB2618:
.LBB2485:
	.loc 3 620 0
	lfs 11,28(1)
.LBE2485:
.LBE2618:
.LBB2619:
.LBB2620:
.LBB2621:
	.loc 4 454 0
	lfs 12,1296(31)
	lfs 4,12(3)
.LBE2621:
.LBE2620:
.LBE2619:
.LBB2646:
.LBB2522:
	.loc 3 632 0
	fmadds 13,10,10,13
.LBE2522:
.LBE2646:
.LBB2647:
.LBB2634:
.LBB2622:
	.loc 4 454 0
	lfs 0,0(3)
	fmuls 4,12,4
	lfs 5,20(3)
.LBE2622:
.LBE2634:
.LBE2647:
.LBB2648:
.LBB2523:
.LBB2509:
.LBB2496:
	.loc 9 275 0
	lfs 2,.LC1@l(9)
	.loc 9 276 0
	lis 9,_ZN6idMath5iSqrtE@ha
.LBE2496:
.LBE2509:
	.loc 3 632 0
	fmadds 13,11,11,13
.LBE2523:
.LBE2648:
.LBB2649:
.LBB2635:
.LBB2623:
	.loc 4 454 0
	lfs 6,16(3)
	fmuls 5,12,5
.LBE2623:
.LBE2635:
.LBE2649:
.LBB2650:
.LBB2524:
.LBB2510:
.LBB2497:
	.loc 9 276 0
	la 9,_ZN6idMath5iSqrtE@l(9)
.LBE2497:
.LBE2510:
.LBE2524:
.LBE2650:
.LBB2651:
.LBB2636:
.LBB2624:
	.loc 4 454 0
	lfs 8,8(3)
	fmuls 12,12,6
.LBE2624:
.LBE2636:
.LBE2651:
.LBB2652:
.LBB2525:
	.loc 3 632 0
	stfs 13,72(1)
.LBE2525:
.LBE2652:
.LBB2653:
.LBB2637:
.LBB2625:
	.loc 4 454 0
	lfs 13,1292(31)
.LBE2625:
.LBE2637:
.LBE2653:
.LBB2654:
.LBB2602:
.LBB2540:
.LBB2541:
.LBB2542:
.LBB2543:
	.loc 9 270 0
	lwz 0,72(1)
.LBE2543:
.LBE2542:
.LBE2541:
.LBE2540:
.LBE2602:
.LBE2654:
.LBB2655:
.LBB2638:
.LBB2626:
	.loc 4 454 0
	fmadds 4,0,13,4
	lfs 7,24(3)
.LBE2626:
.LBE2638:
.LBE2655:
.LBB2656:
.LBB2603:
.LBB2587:
.LBB2572:
.LBB2558:
.LBB2544:
	.loc 9 276 0
	rlwinm 10,0,9,24,31
	rlwinm 11,0,19,21,29
.LBE2544:
.LBE2558:
.LBE2572:
.LBE2587:
.LBE2603:
.LBE2656:
.LBB2657:
.LBB2639:
.LBB2627:
	.loc 4 454 0
	lfs 0,1300(31)
.LBE2627:
.LBE2639:
.LBE2657:
.LBB2658:
.LBB2604:
.LBB2588:
.LBB2573:
.LBB2559:
.LBB2545:
	.loc 9 276 0
	subfic 0,10,380
	lwzx 11,9,11
	rlwinm 0,0,22,0,8
	.loc 9 275 0
	lfs 6,72(1)
.LBE2545:
.LBE2559:
.LBE2573:
.LBE2588:
.LBE2604:
.LBE2658:
.LBB2659:
.LBB2640:
.LBB2628:
	.loc 4 454 0
	fmadds 4,7,0,4
	fmadds 5,13,8,5
.LBE2628:
.LBE2640:
.LBE2659:
.LBB2660:
.LBB2605:
.LBB2589:
.LBB2574:
.LBB2560:
.LBB2546:
	.loc 9 276 0
	or 0,0,11
.LBE2546:
.LBE2560:
.LBE2574:
.LBE2589:
.LBE2605:
.LBE2660:
.LBB2661:
.LBB2641:
.LBB2629:
	.loc 4 454 0
	lfs 8,32(3)
.LBE2629:
.LBE2641:
.LBE2661:
.LBB2662:
.LBB2606:
.LBB2590:
.LBB2575:
.LBB2561:
.LBB2547:
	.loc 9 275 0
	fmuls 1,6,2
.LBE2547:
.LBE2561:
.LBE2575:
.LBE2590:
.LBE2606:
.LBE2662:
.LBB2663:
.LBB2642:
.LBB2630:
	.loc 4 454 0
	lfs 6,4(3)
.LBE2630:
.LBE2642:
.LBE2663:
.LBB2664:
.LBB2526:
.LBB2511:
.LBB2498:
	.loc 9 278 0
	lis 11,.LC32@ha
.LBE2498:
.LBE2511:
.LBE2526:
.LBE2664:
.LBB2665:
.LBB2607:
.LBB2591:
.LBB2576:
.LBB2562:
.LBB2548:
	.loc 9 277 0
	stw 0,80(1)
.LBE2548:
.LBE2562:
.LBE2576:
.LBE2591:
.LBE2607:
.LBE2665:
.LBB2666:
.LBB2643:
.LBB2631:
	.loc 4 454 0
	fmadds 5,0,8,5
.LVL452:
	fmadds 12,13,6,12
.LBE2631:
.LBE2643:
.LBE2666:
.LBB2667:
.LBB2527:
.LBB2512:
.LBB2499:
	.loc 9 278 0
	lfs 8,.LC32@l(11)
.LBE2499:
.LBE2512:
.LBE2527:
.LBE2667:
.LBB2668:
.LBB2608:
.LBB2592:
.LBB2577:
.LBB2563:
.LBB2549:
	.loc 9 277 0
	lfs 7,80(1)
.LBE2549:
.LBE2563:
.LBE2577:
.LBE2592:
.LBE2608:
.LBE2668:
.LBB2669:
.LBB2486:
	.loc 3 620 0
	fmuls 13,4,11
.LBE2486:
.LBE2669:
.LBB2670:
.LBB2644:
.LBB2632:
	.loc 4 454 0
	lfs 6,28(3)
.LBE2632:
.LBE2644:
.LBE2670:
.LBB2671:
.LBB2609:
.LBB2593:
.LBB2578:
.LBB2564:
.LBB2550:
	.loc 2 393 0
	fneg 1,1
	.loc 9 277 0
	fmr 3,7
.LBE2550:
.LBE2564:
.LBE2578:
.LBE2593:
.LBE2609:
.LBE2671:
.LBB2672:
.LBB2645:
.LBB2633:
	.loc 4 454 0
	fmadds 6,0,6,12
.LVL453:
.LBE2633:
.LBE2645:
.LBE2672:
.LBB2673:
.LBB2487:
	.loc 3 620 0
	fmsubs 13,5,10,13
	fmuls 12,5,9
.LBE2487:
.LBE2673:
.LBB2674:
.LBB2610:
.LBB2594:
.LBB2579:
.LBB2565:
.LBB2551:
	.loc 9 278 0
	fmul 7,3,3
.LBE2551:
.LBE2565:
.LBE2579:
.LBE2594:
.LBE2610:
.LBE2674:
.LBB2675:
.LBB2488:
	.loc 3 620 0
	fmsubs 12,6,11,12
	fmuls 0,6,10
.LBE2488:
.LBE2675:
.LBB2676:
.LBB2528:
	.loc 3 649 0
	fmuls 31,13,13
.LBE2528:
.LBE2676:
.LBB2677:
.LBB2611:
.LBB2595:
.LBB2580:
.LBB2566:
.LBB2552:
	.loc 9 278 0
	fmadd 7,1,7,8
.LBE2552:
.LBE2566:
.LBE2580:
.LBE2595:
.LBE2611:
.LBE2677:
.LBB2678:
.LBB2489:
	.loc 3 620 0
	fmsubs 0,4,9,0
.LVL454:
	.loc 3 649 0
	fmadds 31,12,12,31
.LBE2489:
.LBE2678:
.LBB2679:
.LBB2612:
.LBB2596:
.LBB2581:
.LBB2567:
.LBB2553:
	.loc 9 278 0
	fmul 7,3,7
.LBE2553:
.LBE2567:
.LBE2581:
.LBE2596:
.LBE2612:
.LBE2679:
.LBB2680:
.LBB2490:
	.loc 3 649 0
	fmadds 31,0,0,31
.LBE2490:
.LBE2680:
.LBB2681:
.LBB2682:
	.loc 3 435 0
	fmuls 9,6,9
.LBE2682:
.LBE2681:
.LBB2683:
.LBB2613:
.LBB2597:
.LBB2582:
.LBB2568:
.LBB2554:
	.loc 9 279 0
	fmul 6,7,7
.LVL455:
.LBE2554:
.LBE2568:
.LBE2582:
.LBE2597:
.LBE2613:
.LBE2683:
.LBB2684:
.LBB2491:
	.loc 3 649 0
	stfs 31,76(1)
.LVL456:
.LBE2491:
.LBE2684:
.LBB2685:
.LBB2529:
.LBB2513:
.LBB2500:
	.loc 9 275 0
	fmuls 3,31,2
	.loc 9 270 0
	lwz 0,76(1)
.LVL457:
.LBE2500:
.LBE2513:
.LBE2529:
.LBE2685:
	.loc 3 435 0
	fmadds 10,4,10,9
.LBB2686:
.LBB2614:
.LBB2598:
.LBB2583:
.LBB2569:
.LBB2555:
	.loc 9 279 0
	fmadd 1,1,6,8
.LBE2555:
.LBE2569:
	.loc 9 303 0
	lfs 9,72(1)
.LBE2583:
.LBE2598:
.LBE2614:
.LBE2686:
.LBB2687:
.LBB2530:
.LBB2514:
.LBB2501:
	.loc 9 276 0
	rlwinm 11,0,19,21,29
	rlwinm 10,0,9,24,31
	lwzx 9,9,11
	subfic 0,10,380
	rlwinm 0,0,22,0,8
.LBE2501:
.LBE2514:
.LBE2530:
.LBE2687:
.LBB2688:
.LBB2615:
.LBB2599:
.LBB2584:
.LBB2570:
.LBB2556:
	.loc 9 279 0
	fmul 1,7,1
.LBE2556:
.LBE2570:
.LBE2584:
.LBE2599:
.LBE2615:
.LBE2688:
.LBB2689:
.LBB2531:
.LBB2515:
.LBB2502:
	.loc 9 276 0
	or 0,0,9
	.loc 9 277 0
	stw 0,80(1)
.LBE2502:
.LBE2515:
.LBE2531:
.LBE2689:
	.loc 3 435 0
	fmadds 11,5,11,10
.LBB2690:
.LBB2532:
.LBB2516:
.LBB2503:
	.loc 2 393 0
	fneg 3,3
	.loc 9 277 0
	lfs 2,80(1)
	fmr 6,2
.LVL458:
.LBE2503:
.LBE2516:
.LBE2532:
.LBE2690:
.LBB2691:
.LBB2616:
.LBB2600:
.LBB2585:
.LBB2571:
.LBB2557:
	.loc 9 280 0
	frsp 2,1
.LVL459:
.LBE2557:
.LBE2571:
.LBE2585:
.LBE2600:
.LBE2616:
.LBE2691:
.LBB2692:
.LBB2533:
.LBB2517:
.LBB2504:
	.loc 9 278 0
	fmul 7,6,6
.LBE2504:
.LBE2517:
.LBE2533:
.LBE2692:
.LBB2693:
.LBB2617:
.LBB2601:
.LBB2586:
	.loc 9 303 0
	fmuls 2,9,2
.LBE2586:
.LBE2601:
.LBE2617:
.LBE2693:
.LBB2694:
.LBB2534:
.LBB2518:
.LBB2505:
	.loc 9 278 0
	fmadd 7,3,7,8
.LBE2505:
.LBE2518:
.LBE2534:
.LBE2694:
	.loc 2 404 0
	fdivs 2,11,2
.LBB2695:
.LBB2535:
.LBB2519:
.LBB2506:
	.loc 9 278 0
	fmul 7,6,7
.LVL460:
.LBE2506:
.LBE2519:
.LBE2535:
.LBE2695:
	.loc 2 404 0
	stfs 2,72(1)
.LBB2696:
.LBB2697:
	.loc 9 555 0
	lwz 0,72(1)
.LBE2697:
.LBE2696:
.LBB2701:
.LBB2536:
.LBB2520:
.LBB2507:
	.loc 9 279 0
	fmul 11,7,7
.LBE2507:
.LBE2520:
.LBE2536:
.LBE2701:
.LBB2702:
.LBB2698:
	.loc 9 555 0
	cmpwi 7,0,0
.LBE2698:
.LBE2702:
.LBB2703:
.LBB2537:
.LBB2521:
.LBB2508:
	.loc 9 279 0
	fmadd 8,3,11,8
.LVL461:
	fmul 8,7,8
.LVL462:
	.loc 9 280 0
	frsp 8,8
.LBE2508:
.LBE2521:
	.loc 3 651 0
	fmuls 12,12,8
.LVL463:
	.loc 3 652 0
	fmuls 13,13,8
.LVL464:
	.loc 3 653 0
	fmuls 0,0,8
.LVL465:
	.loc 3 651 0
	stfs 12,8(1)
	.loc 3 652 0
	stfs 13,12(1)
	.loc 3 653 0
	stfs 0,16(1)
.LVL466:
.LBE2537:
.LBE2703:
.LBB2704:
.LBB2699:
	.loc 9 555 0
	blt- 7,.L242
	.loc 9 562 0
	lis 9,.LC33@ha
	lfs 2,72(1)
	lfs 10,.LC33@l(9)
	.loc 9 563 0
	lis 9,.LC0@ha
	lfs 11,.LC0@l(9)
.LVL467:
	.loc 9 562 0
	fcmpu 7,2,10
	cror 30,29,30
	beq+ 7,.L234
	.loc 9 565 0
	fsubs 10,10,2
	fmr 1,10
	bl sqrt
.LVL468:
	lis 9,.LC51@ha
	lfs 0,.LC51@l(9)
	lis 9,.LC50@ha
	lfs 6,72(1)
	lfs 11,.LC50@l(9)
	lis 9,.LC52@ha
	lfs 12,8(1)
	fmadds 11,6,11,0
	lfs 0,.LC52@l(9)
	lis 9,.LC53@ha
	lfs 13,12(1)
	fmsubs 11,6,11,0
	lfs 0,.LC53@l(9)
	fmadds 11,6,11,0
	lfs 0,16(1)
	fmul 11,11,1
	frsp 11,11
.LVL469:
.L234:
.LBE2699:
.LBE2704:
	.loc 2 404 0
	lfs 10,.LC38@l(27)
	.loc 2 405 0
	mr 3,28
	addi 4,1,8
	li 5,0
	.loc 2 404 0
	fmuls 11,11,10
.LVL470:
	.loc 2 405 0
	li 28,1
.LBB2705:
.LBB2706:
	.loc 3 489 0
	fmuls 12,11,12
	.loc 3 490 0
	fmuls 13,11,13
	.loc 3 491 0
	fmuls 0,0,11
	.loc 3 489 0
	stfs 12,8(1)
	.loc 3 490 0
	stfs 13,12(1)
	.loc 3 491 0
	stfs 0,16(1)
.LBE2706:
.LBE2705:
	.loc 2 405 0
	bl _ZN19idPhysics_RigidBody18SetAngularVelocityERK6idVec3i
.LVL471:
.LBE2708:
.LBE2711:
	.loc 2 413 0
	lwz 0,124(1)
	mr 3,28
	lwz 27,92(1)
	mtlr 0
	lwz 28,96(1)
	lwz 29,100(1)
	lwz 30,104(1)
	lwz 31,108(1)
.LVL472:
	lfd 31,112(1)
	addi 1,1,120
	.cfi_remember_state
	.cfi_restore 27
	.cfi_restore 28
	.cfi_restore 29
	.cfi_restore 30
	.cfi_restore 31
	.cfi_restore 63
.LCFI106:
	.cfi_def_cfa_offset 0
	blr
.LVL473:
.L242:
.LCFI107:
	.cfi_restore_state
.LBB2712:
.LBB2709:
.LBB2707:
.LBB2700:
	.loc 9 556 0
	lis 9,.LC24@ha
	lfs 11,.LC24@l(9)
.LVL474:
	fcmpu 7,2,11
	cror 30,28,30
	bne- 7,.L240
	.loc 9 557 0
	lis 9,_ZN6idMath2PIE@ha
	lfs 11,_ZN6idMath2PIE@l(9)
	b .L234
.L240:
	.loc 9 559 0
	lfs 0,72(1)
	.loc 9 560 0
	lis 9,.LC33@ha
	lfs 1,.LC33@l(9)
	.loc 9 559 0
	fabs 31,0
.LVL475:
	.loc 9 560 0
	fsubs 1,1,31
	bl sqrt
.LVL476:
	lis 9,.LC51@ha
	lfs 0,.LC51@l(9)
	lis 9,.LC50@ha
	lfs 10,.LC50@l(9)
	lis 9,.LC52@ha
	lfs 12,8(1)
	fmadds 10,31,10,0
	lfs 0,.LC52@l(9)
	lis 9,.LC53@ha
	lfs 13,12(1)
	fmsubs 10,31,10,0
	lfs 0,.LC53@l(9)
	lis 9,_ZN6idMath2PIE@ha
	lfs 11,_ZN6idMath2PIE@l(9)
	fmadds 10,31,10,0
	lfs 0,16(1)
	.loc 2 393 0
	fneg 10,10
	.loc 9 560 0
	fmadd 11,10,1,11
	frsp 11,11
	b .L234
.LBE2700:
.LBE2707:
.LBE2709:
.LBE2712:
	.cfi_endproc
.LFE2834:
	.size	_ZN10idMoveable23FollowInitialSplinePathEv, .-_ZN10idMoveable23FollowInitialSplinePathEv
	.align 2
	.globl _ZN10idMoveable5ThinkEv
	.type	_ZN10idMoveable5ThinkEv, @function
_ZN10idMoveable5ThinkEv:
.LFB2835:
	.loc 2 420 0
	.cfi_startproc
.LVL477:
	mflr 0
	stwu 1,-16(1)
.LCFI108:
	.cfi_def_cfa_offset 16
	.cfi_register 65, 0
	stw 31,12(1)
	mr 31,3
	.cfi_offset 31, -4
	stw 0,20(1)
	.loc 2 421 0
	lwz 0,152(3)
	.cfi_offset 65, 4
	andi. 9,0,1
	bne- 0,.L245
.LVL478:
.L244:
	.loc 2 426 0
	mr 3,31
	bl _ZN8idEntity5ThinkEv
	.loc 2 427 0
	lwz 0,20(1)
	lwz 31,12(1)
.LVL479:
	mtlr 0
	addi 1,1,16
	.cfi_remember_state
.LCFI109:
	.cfi_def_cfa_offset 0
	.cfi_restore 31
	blr
.LVL480:
.L245:
.LCFI110:
	.cfi_restore_state
	.loc 2 422 0
	bl _ZN10idMoveable23FollowInitialSplinePathEv
.LVL481:
	cmpwi 7,3,0
	bne+ 7,.L244
	.loc 2 423 0
	mr 3,31
	li 4,1
	bl _ZN8idEntity14BecomeInactiveEi
	.loc 2 426 0
	mr 3,31
	bl _ZN8idEntity5ThinkEv
	.loc 2 427 0
	lwz 0,20(1)
	lwz 31,12(1)
.LVL482:
	mtlr 0
	addi 1,1,16
	.cfi_restore 31
.LCFI111:
	.cfi_def_cfa_offset 0
	blr
	.cfi_endproc
.LFE2835:
	.size	_ZN10idMoveable5ThinkEv, .-_ZN10idMoveable5ThinkEv
	.align 2
	.globl _ZNK10idMoveable22GetRenderModelMaterialEv
	.type	_ZNK10idMoveable22GetRenderModelMaterialEv, @function
_ZNK10idMoveable22GetRenderModelMaterialEv:
.LFB2836:
	.loc 2 434 0
	.cfi_startproc
.LVL483:
	mflr 0
	stwu 1,-16(1)
.LCFI112:
	.cfi_def_cfa_offset 16
	.cfi_register 65, 0
	stw 30,8(1)
	mr 30,3
	.cfi_offset 30, -8
	stw 0,20(1)
	stw 31,12(1)
	.loc 2 435 0
	lwz 31,304(3)
	.cfi_offset 31, -4
	.cfi_offset 65, 4
	cmpwi 7,31,0
	beq- 7,.L248
.LVL484:
.L247:
	.loc 2 442 0
	lwz 0,20(1)
	mr 3,31
	lwz 30,8(1)
.LVL485:
	mtlr 0
	lwz 31,12(1)
	addi 1,1,16
	.cfi_remember_state
.LCFI113:
	.cfi_def_cfa_offset 0
	.cfi_restore 31
	.cfi_restore 30
	blr
.LVL486:
.L248:
.LCFI114:
	.cfi_restore_state
	.loc 2 438 0
	lwz 3,196(3)
.LVL487:
	cmpwi 7,3,0
	beq- 7,.L247
	.loc 2 438 0 is_stmt 0 discriminator 1
	lwz 9,0(3)
	lwz 0,88(9)
	mtctr 0
	bctrl
	cmpwi 7,3,0
	beq- 7,.L247
	.loc 2 439 0 is_stmt 1 discriminator 4
	lwz 3,196(30)
	li 4,0
	lwz 9,0(3)
	lwz 0,96(9)
	mtctr 0
	bctrl
	lwz 31,4(3)
	b .L247
	.cfi_endproc
.LFE2836:
	.size	_ZNK10idMoveable22GetRenderModelMaterialEv, .-_ZNK10idMoveable22GetRenderModelMaterialEv
	.align 2
	.globl _ZN10idMoveable5SpawnEv
	.type	_ZN10idMoveable5SpawnEv, @function
_ZN10idMoveable5SpawnEv:
.LFB2823:
	.loc 2 97 0
	.cfi_startproc
	.cfi_personality 0,__gxx_personality_v0
	.cfi_lsda 0,.LLSDA2823
.LVL488:
	stwu 1,-2920(1)
.LCFI115:
	.cfi_def_cfa_offset 2920
.LVL489:
	mflr 0
.LBB2841:
.LBB2842:
.LBB2843:
.LBB2844:
.LBB2845:
	.file 14 "d:/Data/Nintendo/DoomGX/src/game/../idlib/../idlib/bv/Bounds.h"
	.loc 14 208 0
	li 9,0
.LBE2845:
.LBE2844:
.LBE2843:
.LBE2842:
.LBB2854:
.LBB2855:
	.loc 11 231 0
	lis 4,.LC59@ha
.LBE2855:
.LBE2854:
.LBE2841:
	.loc 2 97 0
	stw 30,2912(1)
.LBB3141:
	.loc 2 104 0
	addi 30,3,100
	.cfi_offset 30, -8
	.cfi_register 65, 0
.LBB2873:
.LBB2850:
.LBB2848:
.LBB2846:
	.loc 14 208 0
	stw 9,2876(1)
.LBE2846:
.LBE2848:
.LBE2850:
.LBE2873:
.LBB2874:
.LBB2867:
	.loc 11 231 0
	la 4,.LC59@l(4)
.LBE2867:
.LBE2874:
.LBB2875:
.LBB2851:
.LBB2849:
.LBB2847:
	.loc 14 208 0
	stw 9,2872(1)
	stw 9,2868(1)
	stw 9,2864(1)
	stw 9,2860(1)
	stw 9,2856(1)
.LBE2847:
.LBE2849:
.LBE2851:
.LBE2875:
.LBB2876:
.LBB2877:
.LBB2878:
	.loc 5 357 0
	li 9,20
.LBE2878:
.LBE2877:
.LBE2876:
.LBE3141:
	.loc 2 97 0
	stw 0,2924(1)
.LBB3142:
.LBB2885:
.LBB2852:
	.file 15 "d:/Data/Nintendo/DoomGX/src/game/../idlib/../idlib/geometry/TraceModel.h"
	.loc 15 161 0
	li 0,0
	.cfi_offset 65, 4
.LBE2852:
.LBE2885:
.LBE3142:
	.loc 2 97 0
	stw 31,2916(1)
	mr 31,3
	.cfi_offset 31, -4
.LBB3143:
.LBB2886:
.LBB2882:
.LBB2879:
	.loc 5 357 0
	stw 9,32(1)
.LBE2879:
.LBE2882:
.LBE2886:
.LBB2887:
.LBB2868:
	.loc 11 231 0
	mr 3,30
.LVL490:
.LBE2868:
.LBE2887:
.LBB2888:
.LBB2883:
.LBB2880:
	.loc 5 358 0
	addi 9,1,36
.LBE2880:
.LBE2883:
.LBE2888:
.LBE3143:
	.loc 2 97 0
	stw 28,2904(1)
	stw 27,2900(1)
	addi 28,1,24
	.cfi_offset 27, -20
	.cfi_offset 28, -16
	stw 29,2908(1)
.LBB3144:
.LBB2889:
.LBB2853:
	.loc 15 161 0
	stw 0,56(1)
	.loc 15 162 0
	stw 0,1112(1)
	stw 0,448(1)
	stw 0,60(1)
.LVL491:
.LBE2853:
.LBE2889:
.LBB2890:
.LBB2884:
.LBB2881:
	.loc 5 356 0
	stw 0,24(1)
	.loc 5 358 0
	stw 9,28(1)
	.loc 5 359 0
	stb 0,36(1)
.LEHB22:
.LBE2881:
.LBE2884:
.LBE2890:
.LBB2891:
.LBB2869:
	.loc 11 231 0
	.cfi_offset 29, -12
	bl _ZNK6idDict7FindKeyEPKc
.LVL492:
	.loc 11 232 0
	cmpwi 0,3,0
	beq- 0,.L250
.LBE2869:
	.loc 2 1205 0
	lwz 27,4(3)
.LVL493:
	addi 28,1,24
.LBB2870:
.LBB2856:
.LBB2857:
.LBB2858:
.LBB2859:
	.loc 5 350 0
	lwz 0,32(1)
.LBE2859:
.LBE2858:
.LBE2857:
	.loc 2 1205 0
	lwz 29,0(27)
.LBB2864:
	.loc 5 534 0
	addi 4,29,1
.LVL494:
.LBB2862:
.LBB2860:
	.loc 5 350 0
	cmpw 7,4,0
	bgt- 7,.L319
.LVL495:
.L251:
.LBE2860:
.LBE2862:
	.loc 5 535 0
	lwz 3,28(1)
	mr 5,29
	lwz 4,4(27)
	bl memcpy
	.loc 5 536 0
	lwz 9,28(1)
	li 0,0
	stbx 0,9,29
	.loc 5 537 0
	stw 29,24(1)
.LVL496:
.L252:
.LBE2864:
.LBE2856:
	.loc 2 105 0
	lwz 4,4(28)
.LVL497:
.LBE2870:
.LBE2891:
	lbz 0,0(4)
	cmpwi 7,0,0
	bne- 7,.L253
.LVL498:
.LBB2892:
.LBB2893:
	.loc 11 241 0
	lis 4,.LC30@ha
	mr 3,30
	la 4,.LC30@l(4)
	bl _ZNK6idDict7FindKeyEPKc
.LVL499:
	.loc 11 242 0
	cmpwi 0,3,0
	beq- 0,.L294
.LVL500:
.LBB2894:
	.loc 2 1205 0
	lwz 9,4(3)
	lwz 4,4(9)
.LVL501:
.L254:
.LBE2894:
.LBE2893:
.LBE2892:
	.loc 2 106 0
	mr 3,28
.LVL502:
	bl _ZN5idStraSEPKc
	lwz 4,4(28)
.LVL503:
.L253:
	.loc 2 109 0
	lis 9,collisionModelManager@ha
	addi 5,1,56
	lwz 3,collisionModelManager@l(9)
.LVL504:
	lwz 9,0(3)
	lwz 0,28(9)
	mtctr 0
	bctrl
	cmpwi 7,3,0
	bne- 7,.L255
	.loc 2 110 0
	lis 3,gameLocal@ha
	lis 4,.LC60@ha
	lwz 5,72(31)
	la 3,gameLocal@l(3)
	lwz 6,4(28)
	la 4,.LC60@l(4)
	crxor 6,6,6
	bl _ZNK11idGameLocal5ErrorEPKcz
.LEHE22:
.LVL505:
.LBB2896:
.LBB2897:
.LBB2898:
	.loc 5 501 0
	mr 3,28
.LEHB23:
	bl _ZN5idStr8FreeDataEv
.LEHE23:
.LBE2898:
.LBE2897:
.LBE2896:
.LBE3144:
	.loc 2 184 0
	lwz 0,2924(1)
	lwz 27,2900(1)
	mtlr 0
	lwz 28,2904(1)
.LVL506:
	lwz 29,2908(1)
	lwz 30,2912(1)
.LVL507:
	lwz 31,2916(1)
.LVL508:
	addi 1,1,2920
	.cfi_remember_state
.LCFI116:
	.cfi_def_cfa_offset 0
	.cfi_restore 31
	.cfi_restore 30
	.cfi_restore 29
	.cfi_restore 28
	.cfi_restore 27
	blr
.LVL509:
.L255:
.LCFI117:
	.cfi_restore_state
.LBB3145:
.LBB2901:
.LBB2902:
.LBB2903:
.LBB2904:
	.loc 11 241 0
	lis 4,.LC61@ha
	mr 3,30
	la 4,.LC61@l(4)
.LEHB24:
	bl _ZNK6idDict7FindKeyEPKc
.LVL510:
	.loc 11 242 0
	cmpwi 0,3,0
	beq- 0,.L295
.LVL511:
.LBB2905:
	.loc 2 1205 0
	lwz 9,4(3)
	lwz 3,4(9)
.LVL512:
.L257:
.LBE2905:
.LBE2904:
.LBE2903:
	.loc 11 253 0
	bl atoi
.LBE2902:
.LBE2901:
	.loc 2 116 0
	cmpwi 0,3,0
	beq- 0,.L258
	.loc 2 117 0
	xoris 3,3,0x8000
	lis 0,0x4330
	stw 3,2892(1)
	lis 9,.LC28@ha
	stw 0,2888(1)
	addi 3,1,56
	lfs 0,.LC28@l(9)
	lis 9,.LC62@ha
	lfd 1,2888(1)
	fsub 1,1,0
	lfs 0,.LC62@l(9)
	frsp 1,1
	fmuls 1,1,0
	bl _ZN12idTraceModel6ShrinkEf
.L258:
	.loc 2 121 0
	lis 4,.LC63@ha
	lis 5,.LC64@ha
	mr 3,30
	la 4,.LC63@l(4)
	la 5,.LC64@l(5)
	addi 6,1,20
	bl _ZNK6idDict8GetFloatEPKcS1_Rf
.LBB2909:
.LBB2910:
	.loc 9 894 0
	lis 9,.LC54@ha
.LVL513:
.LBE2910:
.LBE2909:
	.loc 2 122 0
	lfs 0,20(1)
.LVL514:
.LBB2913:
.LBB2911:
	.loc 9 894 0
	lfs 13,.LC54@l(9)
	fcmpu 7,0,13
	blt- 7,.L296
	.loc 9 897 0
	lis 9,.LC55@ha
	lfs 13,.LC55@l(9)
	fcmpu 7,0,13
	bgt- 7,.L296
.L259:
.LBE2911:
.LBE2913:
	.loc 2 123 0
	lis 4,.LC65@ha
	lis 5,.LC66@ha
	mr 3,30
	la 4,.LC65@l(4)
	la 5,.LC66@l(5)
	addi 6,1,16
	.loc 2 122 0
	stfs 0,20(1)
	.loc 2 123 0
	bl _ZNK6idDict8GetFloatEPKcS1_Rf
.LVL515:
.LBB2914:
.LBB2915:
	.loc 9 894 0
	lis 9,.LC0@ha
.LVL516:
.LBE2915:
.LBE2914:
	.loc 2 124 0
	lfs 0,16(1)
.LVL517:
.LBB2918:
.LBB2916:
	.loc 9 894 0
	lfs 13,.LC0@l(9)
	fcmpu 7,0,13
	blt- 7,.L297
	.loc 9 897 0
	lis 9,.LC33@ha
	lfs 13,.LC33@l(9)
	fcmpu 7,0,13
	bgt- 7,.L297
.L261:
.LBE2916:
.LBE2918:
	.loc 2 125 0
	lis 4,.LC67@ha
	lis 5,.LC68@ha
	mr 3,30
	la 4,.LC67@l(4)
	la 5,.LC68@l(5)
	addi 6,1,12
	.loc 2 124 0
	stfs 0,16(1)
	.loc 2 125 0
	bl _ZNK6idDict8GetFloatEPKcS1_Rf
.LVL518:
.LBB2919:
.LBB2920:
	.loc 9 894 0
	lis 9,.LC0@ha
.LVL519:
.LBE2920:
.LBE2919:
	.loc 2 126 0
	lfs 0,12(1)
.LVL520:
.LBB2923:
.LBB2921:
	.loc 9 894 0
	lfs 13,.LC0@l(9)
	fcmpu 7,0,13
	blt- 7,.L298
	.loc 9 897 0
	lis 9,.LC33@ha
	lfs 13,.LC33@l(9)
	fcmpu 7,0,13
	bgt- 7,.L298
.L263:
.LBE2921:
.LBE2923:
.LBB2924:
.LBB2925:
.LBB2926:
.LBB2927:
	.loc 11 241 0
	lis 4,.LC69@ha
	mr 3,30
	la 4,.LC69@l(4)
.LBE2927:
.LBE2926:
.LBE2925:
.LBE2924:
	.loc 2 126 0
	stfs 0,12(1)
.LVL521:
.LBB2937:
.LBB2933:
.LBB2931:
.LBB2929:
	.loc 11 241 0
	bl _ZNK6idDict7FindKeyEPKc
.LVL522:
	.loc 11 242 0
	cmpwi 0,3,0
	beq- 0,.L299
.LVL523:
.LBB2928:
	.loc 2 1205 0
	lwz 9,4(3)
	lwz 3,4(9)
.LVL524:
.L265:
.LBE2928:
.LBE2929:
.LBE2931:
	.loc 11 257 0
	bl atoi
.LBE2933:
.LBE2937:
.LBB2938:
.LBB2939:
.LBB2940:
.LBB2941:
	.loc 11 241 0
	lis 4,.LC70@ha
.LBE2941:
.LBE2940:
.LBE2939:
.LBE2938:
.LBB2954:
.LBB2934:
	.loc 11 257 0
	cntlzw 3,3
.LBE2934:
.LBE2954:
.LBB2955:
.LBB2949:
.LBB2946:
.LBB2943:
	.loc 11 241 0
	la 4,.LC70@l(4)
.LBE2943:
.LBE2946:
.LBE2949:
.LBE2955:
.LBB2956:
.LBB2935:
	.loc 11 257 0
	srwi 3,3,5
	xori 3,3,1
.LBE2935:
.LBE2956:
	.loc 2 127 0
	stb 3,1304(31)
.LVL525:
.LBB2957:
.LBB2950:
.LBB2947:
.LBB2944:
	.loc 11 241 0
	mr 3,30
	bl _ZNK6idDict7FindKeyEPKc
.LVL526:
	.loc 11 242 0
	cmpwi 0,3,0
	beq- 0,.L300
.LVL527:
.LBB2942:
	.loc 2 1205 0
	lwz 9,4(3)
	lwz 3,4(9)
.LVL528:
.L266:
.LBE2942:
.LBE2944:
.LBE2947:
	.loc 11 257 0
	bl atoi
.LBE2950:
.LBE2957:
.LBB2958:
.LBB2959:
	.loc 11 241 0
	lis 4,.LC71@ha
.LBE2959:
.LBE2958:
.LBB2964:
.LBB2951:
	.loc 11 257 0
	cntlzw 3,3
.LBE2951:
.LBE2964:
.LBB2965:
.LBB2961:
	.loc 11 241 0
	la 4,.LC71@l(4)
.LBE2961:
.LBE2965:
.LBB2966:
.LBB2952:
	.loc 11 257 0
	srwi 3,3,5
	xori 3,3,1
.LBE2952:
.LBE2966:
	.loc 2 128 0
	stb 3,1305(31)
.LVL529:
.LBB2967:
.LBB2962:
	.loc 11 241 0
	mr 3,30
	bl _ZNK6idDict7FindKeyEPKc
.LVL530:
	.loc 11 242 0
	cmpwi 0,3,0
	beq- 0,.L301
.LVL531:
.LBB2960:
	.loc 2 1205 0
	lwz 9,4(3)
	lwz 4,4(9)
.LVL532:
.L267:
.LBE2960:
.LBE2962:
.LBE2967:
	.loc 2 130 0
	addi 3,31,1244
.LVL533:
	bl _ZN5idStraSEPKc
	.loc 2 133 0
	lwz 0,192(31)
	li 9,1
.LBB2968:
.LBB2969:
	.loc 11 241 0
	lis 4,.LC72@ha
	mr 3,30
.LBE2969:
.LBE2968:
	.loc 2 133 0
	rlwimi 0,9,29,2,2
	.loc 2 131 0
	li 9,0
	stw 9,1276(31)
.LBB2974:
.LBB2971:
	.loc 11 241 0
	la 4,.LC72@l(4)
.LBE2971:
.LBE2974:
	.loc 2 133 0
	stw 0,192(31)
.LVL534:
.LBB2975:
.LBB2972:
	.loc 11 241 0
	bl _ZNK6idDict7FindKeyEPKc
.LVL535:
	.loc 11 242 0
	cmpwi 0,3,0
	beq- 0,.L302
.LVL536:
.LBB2970:
	.loc 2 1205 0
	lwz 9,4(3)
	lwz 4,4(9)
.LVL537:
.L268:
.LBE2970:
.LBE2972:
.LBE2975:
	.loc 2 134 0
	addi 3,31,1212
.LVL538:
	bl _ZN5idStraSEPKc
.LVL539:
.LBB2976:
.LBB2977:
.LBB2978:
.LBB2979:
	.loc 11 241 0
	lis 4,.LC73@ha
	mr 3,30
	la 4,.LC73@l(4)
	bl _ZNK6idDict7FindKeyEPKc
.LVL540:
	.loc 11 242 0
	cmpwi 0,3,0
	beq- 0,.L303
.LVL541:
.LBB2980:
	.loc 2 1205 0
	lwz 9,4(3)
	lwz 3,4(9)
.LVL542:
.L269:
.LBE2980:
.LBE2979:
.LBE2978:
	.loc 11 257 0
	bl atoi
.LBE2977:
.LBE2976:
.LBB2984:
.LBB2985:
.LBB2986:
.LBB2987:
	.loc 11 241 0
	lis 4,.LC74@ha
.LBE2987:
.LBE2986:
.LBE2985:
.LBE2984:
	.loc 2 97 0
	cntlzw 3,3
.LBB3000:
.LBB2995:
.LBB2992:
.LBB2989:
	.loc 11 241 0
	la 4,.LC74@l(4)
.LBE2989:
.LBE2992:
.LBE2995:
.LBE3000:
	.loc 2 97 0
	srwi 3,3,5
	stb 3,1307(31)
.LVL543:
.LBB3001:
.LBB2996:
.LBB2993:
.LBB2990:
	.loc 11 241 0
	mr 3,30
	bl _ZNK6idDict7FindKeyEPKc
.LVL544:
	.loc 11 242 0
	cmpwi 0,3,0
	beq- 0,.L304
.LVL545:
.LBB2988:
	.loc 2 1205 0
	lwz 9,4(3)
	lwz 3,4(9)
.LVL546:
.L270:
.LBE2988:
.LBE2990:
.LBE2993:
	.loc 11 249 0
	bl atof
.LBE2996:
.LBE3001:
.LBB3002:
.LBB3003:
.LBB3004:
.LBB3005:
	.loc 11 241 0
	lis 4,.LC75@ha
.LBE3005:
.LBE3004:
.LBE3003:
.LBE3002:
.LBB3018:
.LBB2997:
	.loc 11 249 0
	frsp 1,1
.LBE2997:
.LBE3018:
.LBB3019:
.LBB3013:
.LBB3010:
.LBB3007:
	.loc 11 241 0
	mr 3,30
	la 4,.LC75@l(4)
.LBE3007:
.LBE3010:
.LBE3013:
.LBE3019:
.LBB3020:
.LBB2998:
	.loc 11 249 0
	stfs 1,1280(31)
.LVL547:
.LBE2998:
.LBE3020:
.LBB3021:
.LBB3014:
.LBB3011:
.LBB3008:
	.loc 11 241 0
	bl _ZNK6idDict7FindKeyEPKc
.LVL548:
	.loc 11 242 0
	cmpwi 0,3,0
	beq- 0,.L305
.LVL549:
.LBB3006:
	.loc 2 1205 0
	lwz 9,4(3)
	lwz 3,4(9)
.LVL550:
.L271:
.LBE3006:
.LBE3008:
.LBE3011:
	.loc 11 249 0
	bl atof
.LBE3014:
.LBE3021:
	.loc 2 138 0
	li 0,0
.LBB3022:
.LBB3015:
	.loc 11 249 0
	frsp 1,1
.LBE3015:
.LBE3022:
.LBB3023:
.LBB3024:
.LBB3025:
.LBB3026:
	.loc 11 241 0
	lis 4,.LC20@ha
.LBE3026:
.LBE3025:
.LBE3024:
.LBE3023:
	.loc 2 138 0
	stw 0,1308(31)
.LBB3040:
.LBB3036:
.LBB3032:
.LBB3028:
	.loc 11 241 0
	mr 3,30
.LBE3028:
.LBE3032:
.LBE3036:
.LBE3040:
	.loc 2 139 0
	stw 0,1312(31)
.LVL551:
.LBB3041:
.LBB3037:
.LBB3033:
.LBB3029:
	.loc 11 241 0
	la 4,.LC20@l(4)
.LBE3029:
.LBE3033:
.LBE3037:
.LBE3041:
.LBB3042:
.LBB3016:
	.loc 11 249 0
	stfs 1,1284(31)
.LBE3016:
.LBE3042:
.LBB3043:
.LBB3038:
.LBB3034:
.LBB3030:
	.loc 11 241 0
	bl _ZNK6idDict7FindKeyEPKc
.LVL552:
	.loc 11 242 0
	cmpwi 0,3,0
	beq- 0,.L306
.LVL553:
.LBB3027:
	.loc 2 1205 0
	lwz 9,4(3)
	lwz 3,4(9)
.LVL554:
.L272:
.LBE3027:
.LBE3030:
.LBE3034:
	.loc 11 253 0
	bl atoi
.LBE3038:
.LBE3043:
.LBB3044:
.LBB3045:
	.loc 11 231 0
	lis 4,.LC76@ha
.LBE3045:
.LBE3044:
	.loc 2 141 0
	stw 3,188(31)
.LVL555:
.LBB3062:
.LBB3057:
	.loc 11 231 0
	la 4,.LC76@l(4)
	mr 3,30
	bl _ZNK6idDict7FindKeyEPKc
	.loc 11 232 0
	mr. 9,3
.LBE3057:
.LBE3062:
	.loc 2 142 0
	addi 3,31,1180
.LVL556:
.LBB3063:
.LBB3058:
	.loc 11 232 0
	beq- 0,.L273
.LBE3058:
	.loc 2 1205 0
	lwz 27,4(9)
.LVL557:
.LBB3059:
.LBB3046:
.LBB3047:
.LBB3048:
.LBB3049:
	.loc 5 350 0
	lwz 0,1188(31)
.LBE3049:
.LBE3048:
.LBE3047:
	.loc 2 1205 0
	lwz 29,0(27)
.LBB3054:
	.loc 5 534 0
	addi 4,29,1
.LVL558:
.LBB3052:
.LBB3050:
	.loc 5 350 0
	cmpw 7,4,0
	bgt- 7,.L320
.LVL559:
.L274:
.LBE3050:
.LBE3052:
	.loc 5 535 0
	lwz 3,1184(31)
	mr 5,29
	lwz 4,4(27)
	bl memcpy
	.loc 5 536 0
	lwz 9,1184(31)
	li 0,0
	stbx 0,9,29
	.loc 5 537 0
	stw 29,1180(31)
.LVL560:
.L275:
.LBE3054:
.LBE3046:
.LBE3059:
.LBE3063:
	.loc 2 144 0
	lwz 0,188(31)
	cmpwi 7,0,0
	beq- 7,.L276
.LVL561:
.LBB3064:
.LBB3065:
.LBB3066:
	.loc 5 653 0
	lis 4,.LC4@ha
	lwz 3,1184(31)
	la 4,.LC4@l(4)
	bl _ZN5idStr3CmpEPKcS1_
.LBE3066:
.LBE3065:
.LBE3064:
	.loc 2 145 0
	cmpwi 7,3,0
	bne- 7,.L321
.LVL562:
.L276:
	.loc 2 151 0
	addi 29,31,636
	mr 4,31
	mr 3,29
	bl _ZN14idPhysics_Base7SetSelfEP8idEntity
	.loc 2 152 0
	li 3,140
	bl _Znwj
.LEHE24:
	addi 4,1,56
	mr 27,3
.LEHB25:
	bl _ZN11idClipModelC1ERK12idTraceModel
.LEHE25:
	.loc 2 152 0 is_stmt 0 discriminator 1
	lfs 1,20(1)
	mr 3,29
	mr 4,27
	li 5,0
	li 6,1
.LEHB26:
	bl _ZN19idPhysics_RigidBody12SetClipModelEP11idClipModelfib
	.loc 2 153 0 is_stmt 1
	mr 3,29
	li 4,0
	bl _ZNK19idPhysics_RigidBody12GetClipModelEi
	mr 27,3
	mr 3,31
	bl _ZNK10idMoveable22GetRenderModelMaterialEv
.LVL563:
.LBB3067:
.LBB3068:
	.file 16 "d:/Data/Nintendo/DoomGX/src/game/physics/Clip.h"
	.loc 16 159 0 discriminator 1
	stw 3,112(27)
.LBE3068:
.LBE3067:
	.loc 2 154 0 discriminator 1
	mr 3,31
.LVL564:
	bl _ZNK8idEntity10GetPhysicsEv
.LVL565:
	.loc 2 154 0 is_stmt 0 discriminator 2
	lwz 9,0(3)
	li 4,0
	lwz 0,132(9)
	mtctr 0
	bctrl
	.loc 2 154 0 discriminator 1
	mr 4,3
	li 5,-1
	mr 3,29
	bl _ZN19idPhysics_RigidBody9SetOriginERK6idVec3i
	.loc 2 155 0 is_stmt 1
	mr 3,31
	bl _ZNK8idEntity10GetPhysicsEv
	lwz 9,0(3)
	li 4,0
	lwz 0,136(9)
	mtctr 0
	bctrl
	.loc 2 155 0 is_stmt 0 discriminator 1
	mr 4,3
	li 5,-1
	mr 3,29
	bl _ZN19idPhysics_RigidBody7SetAxisERK6idMat3i
	.loc 2 156 0 is_stmt 1
	lfs 1,12(1)
	mr 3,29
	bl _ZN19idPhysics_RigidBody13SetBouncynessEf
	.loc 2 157 0
	lis 9,.LC78@ha
	lfs 3,16(1)
	lfs 1,.LC78@l(9)
	mr 3,29
	fmr 2,1
	bl _ZN19idPhysics_RigidBody11SetFrictionEfff
	.loc 2 158 0
	lis 3,gameLocal@ha
	la 3,gameLocal@l(3)
	bl _ZNK11idGameLocal10GetGravityEv
	mr 4,3
	mr 3,29
	bl _ZN14idPhysics_Base10SetGravityERK6idVec3
	.loc 2 159 0
	mr 3,29
	li 4,1
	li 5,-1
	bl _ZN19idPhysics_RigidBody11SetContentsEii
	.loc 2 160 0
	mr 3,29
	li 4,1313
	li 5,-1
	bl _ZN14idPhysics_Base11SetClipMaskEii
	.loc 2 161 0
	mr 3,31
	mr 4,29
	bl _ZN8idEntity10SetPhysicsEP9idPhysics
	.loc 2 163 0
	lis 4,.LC79@ha
	lis 5,.LC25@ha
	mr 3,30
	la 4,.LC79@l(4)
	la 5,.LC25@l(5)
	addi 6,1,8
	bl _ZNK6idDict8GetFloatEPKcS1_Rf
	cmpwi 7,3,0
	beq- 7,.L278
.LVL566:
	.loc 2 164 0
	lfs 1,8(1)
	mr 3,29
	li 4,-1
	bl _ZN19idPhysics_RigidBody7SetMassEfi
.L278:
.LVL567:
.LBB3069:
.LBB3070:
.LBB3071:
.LBB3072:
	.loc 11 241 0
	lis 4,.LC80@ha
	mr 3,30
	la 4,.LC80@l(4)
	bl _ZNK6idDict7FindKeyEPKc
.LVL568:
	.loc 11 242 0
	cmpwi 0,3,0
	beq- 0,.L307
.LVL569:
.LBB3073:
	.loc 2 1205 0
	lwz 9,4(3)
	lwz 3,4(9)
.LVL570:
.L279:
.LBE3073:
.LBE3072:
.LBE3071:
	.loc 11 257 0
	bl atoi
.LBE3070:
.LBE3069:
	.loc 2 167 0
	cmpwi 7,3,0
	.loc 2 168 0
	mr 3,29
	.loc 2 167 0
	beq- 7,.L280
	.loc 2 168 0
	bl _ZN19idPhysics_RigidBody9PutToRestEv
.L281:
.LVL571:
.LBB3077:
.LBB3078:
.LBB3079:
.LBB3080:
	.loc 11 241 0
	lis 4,.LC81@ha
	mr 3,30
	la 4,.LC81@l(4)
	bl _ZNK6idDict7FindKeyEPKc
.LVL572:
	.loc 11 242 0
	cmpwi 0,3,0
	beq- 0,.L308
.LVL573:
.LBB3081:
	.loc 2 1205 0
	lwz 9,4(3)
	lwz 3,4(9)
.LVL574:
.L282:
.LBE3081:
.LBE3080:
.LBE3079:
	.loc 11 257 0
	bl atoi
.LBE3078:
.LBE3077:
	.loc 2 173 0
	cmpwi 7,3,0
	beq- 7,.L322
.L283:
	.loc 2 174 0 discriminator 4
	mr 3,29
	bl _ZN19idPhysics_RigidBody13DisableImpactEv
.L285:
.LVL575:
.LBB3085:
.LBB3086:
.LBB3087:
.LBB3088:
	.loc 11 241 0
	lis 4,.LC22@ha
	mr 3,30
	la 4,.LC22@l(4)
	bl _ZNK6idDict7FindKeyEPKc
.LVL576:
	.loc 11 242 0
	cmpwi 0,3,0
	beq- 0,.L310
.LVL577:
.LBB3089:
	.loc 2 1205 0
	lwz 9,4(3)
	lwz 3,4(9)
.LVL578:
.L286:
.LBE3089:
.LBE3088:
.LBE3087:
	.loc 11 257 0
	bl atoi
.LBE3086:
.LBE3085:
	.loc 2 177 0
	cmpwi 7,3,0
	beq- 7,.L287
	.loc 2 178 0
	mr 3,31
	bl _ZN10idMoveable14BecomeNonSolidEv
.L287:
.LVL579:
.LBB3093:
.LBB3094:
.LBB3095:
.LBB3096:
	.loc 11 241 0
	lis 4,.LC82@ha
	mr 3,30
	la 4,.LC82@l(4)
	bl _ZNK6idDict7FindKeyEPKc
.LVL580:
	.loc 11 242 0
	cmpwi 0,3,0
	beq- 0,.L311
.LVL581:
.LBB3097:
	.loc 2 1205 0
	lwz 9,4(3)
	lwz 3,4(9)
.LVL582:
.L288:
.LBE3097:
.LBE3096:
.LBE3095:
	.loc 11 257 0
	bl atoi
.LBE3094:
.LBE3093:
	.loc 2 183 0
	lis 4,.LANCHOR0@ha
.LBB3104:
.LBB3100:
	.loc 11 257 0
	cntlzw 3,3
.LBE3100:
.LBE3104:
	.loc 2 183 0
	la 4,.LANCHOR0@l(4)
.LBB3105:
.LBB3101:
	.loc 11 257 0
	srwi 3,3,5
.LBE3101:
.LBE3105:
	.loc 2 183 0
	addi 4,4,328
.LBB3106:
.LBB3102:
	.loc 11 257 0
	xori 3,3,1
.LBE3102:
.LBE3106:
	.loc 2 183 0
	li 5,0
	.loc 2 181 0
	stb 3,1306(31)
	.loc 2 183 0
	mr 3,31
	bl _ZN7idClass11PostEventMSEPK10idEventDefi
.LEHE26:
.LVL583:
.LBB3107:
.LBB2900:
.LBB2899:
	.loc 5 501 0
	mr 3,28
.LEHB27:
	bl _ZN5idStr8FreeDataEv
.LEHE27:
.LBE2899:
.LBE2900:
.LBE3107:
.LBE3145:
	.loc 2 184 0
	lwz 0,2924(1)
	lwz 27,2900(1)
	mtlr 0
	lwz 28,2904(1)
.LVL584:
	lwz 29,2908(1)
	lwz 30,2912(1)
.LVL585:
	lwz 31,2916(1)
.LVL586:
	addi 1,1,2920
	.cfi_remember_state
	.cfi_restore 27
	.cfi_restore 28
	.cfi_restore 29
	.cfi_restore 30
	.cfi_restore 31
.LCFI118:
	.cfi_def_cfa_offset 0
	blr
.LVL587:
.L298:
.LCFI119:
	.cfi_restore_state
.LBB3146:
.LBB3108:
.LBB2922:
	.loc 9 895 0
	fmr 0,13
.LVL588:
	b .L263
.LVL589:
.L297:
.LBE2922:
.LBE3108:
.LBB3109:
.LBB2917:
	fmr 0,13
.LVL590:
	b .L261
.LVL591:
.L296:
.LBE2917:
.LBE3109:
.LBB3110:
.LBB2912:
	fmr 0,13
.LVL592:
	b .L259
.LVL593:
.L319:
.LBE2912:
.LBE3110:
.LBB3111:
.LBB2871:
.LBB2866:
.LBB2865:
.LBB2863:
.LBB2861:
	.loc 5 351 0
	mr 3,28
.LVL594:
	li 5,0
.LEHB28:
	bl _ZN5idStr10ReAllocateEib
.LVL595:
	b .L251
.LVL596:
.L280:
.LBE2861:
.LBE2863:
.LBE2865:
.LBE2866:
.LBE2871:
.LBE3111:
	.loc 2 170 0
	bl _ZN19idPhysics_RigidBody11DropToFloorEv
	b .L281
.LVL597:
.L321:
	.loc 2 145 0 discriminator 1
	lis 9,renderModelManager@ha
	lwz 4,1184(31)
	lwz 3,renderModelManager@l(9)
.LVL598:
	lwz 9,0(3)
	lwz 0,36(9)
	mtctr 0
	bctrl
	cmpwi 7,3,0
	bne+ 7,.L276
	.loc 2 146 0 discriminator 4
	mr 3,31
	.loc 2 1205 0 discriminator 4
	lwz 29,72(31)
	.loc 2 146 0 discriminator 4
	bl _ZNK8idEntity10GetPhysicsEv
	lwz 9,0(3)
	li 4,0
	lwz 0,132(9)
	mtctr 0
	bctrl
	.loc 2 146 0 is_stmt 0 discriminator 1
	li 4,0
	bl _ZNK6idVec38ToStringEi
	mr 6,3
	lis 4,.LC77@ha
	lis 3,gameLocal@ha
	lwz 7,1184(31)
	la 3,gameLocal@l(3)
	la 4,.LC77@l(4)
	mr 5,29
	crxor 6,6,6
	bl _ZNK11idGameLocal5ErrorEPKcz
	b .L276
.LVL599:
.L295:
.LBB3112:
.LBB2908:
.LBB2907:
.LBB2906:
	.loc 11 245 0 is_stmt 1
	lis 3,.LC19@ha
.LVL600:
	la 3,.LC19@l(3)
	b .L257
.LVL601:
.L294:
.LBE2906:
.LBE2907:
.LBE2908:
.LBE3112:
.LBB3113:
.LBB2895:
	lis 4,.LC4@ha
	la 4,.LC4@l(4)
	b .L254
.LVL602:
.L320:
.LBE2895:
.LBE3113:
.LBB3114:
.LBB3060:
.LBB3056:
.LBB3055:
.LBB3053:
.LBB3051:
	.loc 5 351 0
	li 5,0
	bl _ZN5idStr10ReAllocateEib
.LVL603:
	b .L274
.LVL604:
.L322:
.LBE3051:
.LBE3053:
.LBE3055:
.LBE3056:
.LBE3060:
.LBE3114:
.LBB3115:
.LBB3116:
.LBB3117:
.LBB3118:
	.loc 11 241 0 discriminator 2
	lis 4,.LC44@ha
	mr 3,30
	la 4,.LC44@l(4)
	bl _ZNK6idDict7FindKeyEPKc
.LVL605:
	.loc 11 242 0 discriminator 2
	cmpwi 0,3,0
	beq- 0,.L309
.LVL606:
.LBB3119:
	.loc 2 1205 0
	lwz 9,4(3)
	lwz 3,4(9)
.LVL607:
.L284:
.LBE3119:
.LBE3118:
.LBE3117:
	.loc 11 257 0
	bl atoi
.LBE3116:
.LBE3115:
	.loc 2 173 0
	cmpwi 7,3,0
	beq- 7,.L285
	b .L283
.LVL608:
.L250:
.LBB3123:
.LBB2872:
	.loc 11 236 0
	addi 28,1,24
	lis 4,.LC4@ha
	mr 3,28
.LVL609:
	la 4,.LC4@l(4)
	bl _ZN5idStraSEPKc
	b .L252
.LVL610:
.L300:
.LBE2872:
.LBE3123:
.LBB3124:
.LBB2953:
.LBB2948:
.LBB2945:
	.loc 11 245 0
	lis 3,.LC19@ha
.LVL611:
	la 3,.LC19@l(3)
	b .L266
.LVL612:
.L299:
.LBE2945:
.LBE2948:
.LBE2953:
.LBE3124:
.LBB3125:
.LBB2936:
.LBB2932:
.LBB2930:
	lis 3,.LC19@ha
.LVL613:
	la 3,.LC19@l(3)
	b .L265
.LVL614:
.L304:
.LBE2930:
.LBE2932:
.LBE2936:
.LBE3125:
.LBB3126:
.LBB2999:
.LBB2994:
.LBB2991:
	lis 3,.LC56@ha
.LVL615:
	la 3,.LC56@l(3)
	b .L270
.LVL616:
.L303:
.LBE2991:
.LBE2994:
.LBE2999:
.LBE3126:
.LBB3127:
.LBB2983:
.LBB2982:
.LBB2981:
	lis 3,.LC19@ha
.LVL617:
	la 3,.LC19@l(3)
	b .L269
.LVL618:
.L302:
.LBE2981:
.LBE2982:
.LBE2983:
.LBE3127:
.LBB3128:
.LBB2973:
	lis 4,.LC4@ha
	la 4,.LC4@l(4)
	b .L268
.LVL619:
.L301:
.LBE2973:
.LBE3128:
.LBB3129:
.LBB2963:
	lis 4,.LC4@ha
	la 4,.LC4@l(4)
	b .L267
.LVL620:
.L308:
.LBE2963:
.LBE3129:
.LBB3130:
.LBB3084:
.LBB3083:
.LBB3082:
	lis 3,.LC19@ha
.LVL621:
	la 3,.LC19@l(3)
	b .L282
.LVL622:
.L307:
.LBE3082:
.LBE3083:
.LBE3084:
.LBE3130:
.LBB3131:
.LBB3076:
.LBB3075:
.LBB3074:
	lis 3,.LC19@ha
.LVL623:
	la 3,.LC19@l(3)
	b .L279
.LVL624:
.L311:
.LBE3074:
.LBE3075:
.LBE3076:
.LBE3131:
.LBB3132:
.LBB3103:
.LBB3099:
.LBB3098:
	lis 3,.LC58@ha
.LVL625:
	la 3,.LC58@l(3)
	b .L288
.LVL626:
.L310:
.LBE3098:
.LBE3099:
.LBE3103:
.LBE3132:
.LBB3133:
.LBB3092:
.LBB3091:
.LBB3090:
	lis 3,.LC19@ha
.LVL627:
	la 3,.LC19@l(3)
	b .L286
.LVL628:
.L306:
.LBE3090:
.LBE3091:
.LBE3092:
.LBE3133:
.LBB3134:
.LBB3039:
.LBB3035:
.LBB3031:
	lis 3,.LC19@ha
.LVL629:
	la 3,.LC19@l(3)
	b .L272
.LVL630:
.L305:
.LBE3031:
.LBE3035:
.LBE3039:
.LBE3134:
.LBB3135:
.LBB3017:
.LBB3012:
.LBB3009:
	lis 3,.LC57@ha
.LVL631:
	la 3,.LC57@l(3)
	b .L271
.LVL632:
.L273:
.LBE3009:
.LBE3012:
.LBE3017:
.LBE3135:
.LBB3136:
.LBB3061:
	.loc 11 236 0
	lis 4,.LC4@ha
	la 4,.LC4@l(4)
	bl _ZN5idStraSEPKc
.LEHE28:
.LVL633:
	b .L275
.LVL634:
.L309:
.LBE3061:
.LBE3136:
.LBB3137:
.LBB3122:
.LBB3121:
.LBB3120:
	.loc 11 245 0
	lis 3,.LC19@ha
.LVL635:
	la 3,.LC19@l(3)
	b .L284
.LVL636:
.L312:
	mr 31,3
.LVL637:
.L292:
.LBE3120:
.LBE3121:
.LBE3122:
.LBE3137:
.LBB3138:
.LBB3139:
.LBB3140:
	.loc 5 501 0
	mr 3,28
	bl _ZN5idStr8FreeDataEv
	mr 3,31
.LEHB29:
	bl _Unwind_Resume
.LEHE29:
.LVL638:
.L313:
	mr 31,3
.LBE3140:
.LBE3139:
.LBE3138:
	.loc 2 152 0
	mr 3,27
	bl _ZdlPv
	b .L292
.LBE3146:
	.cfi_endproc
.LFE2823:
	.section	.gcc_except_table
.LLSDA2823:
	.byte	0xff
	.byte	0xff
	.byte	0x1
	.uleb128 .LLSDACSE2823-.LLSDACSB2823
.LLSDACSB2823:
	.uleb128 .LEHB22-.LFB2823
	.uleb128 .LEHE22-.LEHB22
	.uleb128 .L312-.LFB2823
	.uleb128 0
	.uleb128 .LEHB23-.LFB2823
	.uleb128 .LEHE23-.LEHB23
	.uleb128 0
	.uleb128 0
	.uleb128 .LEHB24-.LFB2823
	.uleb128 .LEHE24-.LEHB24
	.uleb128 .L312-.LFB2823
	.uleb128 0
	.uleb128 .LEHB25-.LFB2823
	.uleb128 .LEHE25-.LEHB25
	.uleb128 .L313-.LFB2823
	.uleb128 0
	.uleb128 .LEHB26-.LFB2823
	.uleb128 .LEHE26-.LEHB26
	.uleb128 .L312-.LFB2823
	.uleb128 0
	.uleb128 .LEHB27-.LFB2823
	.uleb128 .LEHE27-.LEHB27
	.uleb128 0
	.uleb128 0
	.uleb128 .LEHB28-.LFB2823
	.uleb128 .LEHE28-.LEHB28
	.uleb128 .L312-.LFB2823
	.uleb128 0
	.uleb128 .LEHB29-.LFB2823
	.uleb128 .LEHE29-.LEHB29
	.uleb128 0
	.uleb128 0
.LLSDACSE2823:
	.section	".text"
	.size	_ZN10idMoveable5SpawnEv, .-_ZN10idMoveable5SpawnEv
	.align 2
	.globl _ZN8idBarrelC2Ev
	.type	_ZN8idBarrelC2Ev, @function
_ZN8idBarrelC2Ev:
.LFB2847:
	.loc 2 559 0
	.cfi_startproc
	.cfi_personality 0,__gxx_personality_v0
	.cfi_lsda 0,.LLSDA2847
.LVL639:
	mflr 0
	stwu 1,-16(1)
.LCFI120:
	.cfi_def_cfa_offset 16
	.cfi_register 65, 0
	stw 31,12(1)
	mr 31,3
	.cfi_offset 31, -4
	stw 0,20(1)
	stw 30,8(1)
.LEHB30:
.LBB3147:
	.loc 2 559 0
	.cfi_offset 30, -8
	.cfi_offset 65, 4
	bl _ZN10idMoveableC2Ev
.LEHE30:
.LVL640:
	lis 9,_ZTV8idBarrel+8@ha
	.loc 2 561 0
	lis 3,.LC83@ha
	.loc 2 559 0
	la 0,_ZTV8idBarrel+8@l(9)
	.loc 2 561 0
	la 3,.LC83@l(3)
	.loc 2 559 0
	stw 0,0(31)
	.loc 2 561 0
	li 4,1412
.LEHB31:
	crxor 6,6,6
	bl _Z15Sys_DebugPrintfPKcz
.LEHE31:
	.loc 2 564 0
	lis 9,.LC33@ha
.LBB3148:
.LBB3149:
	.loc 3 416 0
	li 0,0
.LBE3149:
.LBE3148:
	.loc 2 564 0
	lwz 9,.LC33@l(9)
.LBB3152:
.LBB3153:
.LBB3154:
	.loc 4 333 0
	addi 7,31,1336
.LBE3154:
.LBE3153:
.LBE3152:
.LBB3165:
.LBB3150:
	.loc 3 416 0
	stw 0,1332(31)
.LBE3150:
.LBE3165:
.LBB3166:
.LBB3163:
.LBB3161:
	.loc 4 333 0
	li 10,0
.LBE3161:
.LBE3163:
.LBE3166:
	.loc 2 564 0
	stw 9,1316(31)
	.loc 2 565 0
	li 9,0
	stw 9,1320(31)
.LVL641:
	lis 9,mat3_identity@ha
.LBB3167:
.LBB3151:
	.loc 3 416 0
	stw 0,1328(31)
	stw 0,1324(31)
.LVL642:
	la 0,mat3_identity@l(9)
.L324:
.LBE3151:
.LBE3167:
.LBB3168:
.LBB3164:
.LBB3162:
.LBB3155:
.LBB3156:
	.loc 3 424 0
	mr 11,0
	mr 9,7
	lwzux 8,11,10
.LBE3156:
.LBE3155:
	.loc 4 333 0
	cmpwi 7,10,24
.LBB3159:
.LBB3157:
	.loc 3 424 0
	stwux 8,9,10
.LBE3157:
.LBE3159:
	.loc 4 333 0
	addi 10,10,12
.LBB3160:
.LBB3158:
	.loc 3 425 0
	lwz 8,4(11)
	stw 8,4(9)
	.loc 3 426 0
	lwz 11,8(11)
	stw 11,8(9)
.LBE3158:
.LBE3160:
	.loc 4 333 0
	bne+ 7,.L324
.LBE3162:
.LBE3164:
.LBE3168:
	.loc 2 568 0
	li 9,0
.LBB3169:
.LBB3170:
.LBB3171:
	.loc 4 333 0
	addi 7,31,1376
.LVL643:
.LBE3171:
.LBE3170:
.LBE3169:
	.loc 2 568 0
	stw 9,1372(31)
.LVL644:
.LBB3180:
.LBB3179:
.LBB3178:
	.loc 4 333 0
	li 10,0
.L325:
.LBB3172:
.LBB3173:
	.loc 3 424 0
	mr 11,0
	mr 9,7
	lwzux 8,11,10
.LBE3173:
.LBE3172:
	.loc 4 333 0
	cmpwi 7,10,24
.LBB3176:
.LBB3174:
	.loc 3 424 0
	stwux 8,9,10
.LBE3174:
.LBE3176:
	.loc 4 333 0
	addi 10,10,12
.LBB3177:
.LBB3175:
	.loc 3 425 0
	lwz 8,4(11)
	stw 8,4(9)
	.loc 3 426 0
	lwz 11,8(11)
	stw 11,8(9)
.LBE3175:
.LBE3177:
	.loc 4 333 0
	bne+ 7,.L325
.LBE3178:
.LBE3179:
.LBE3180:
	.loc 2 570 0
	lwz 0,192(31)
	li 9,1
	rlwimi 0,9,20,11,11
	stw 0,192(31)
.LBE3147:
	.loc 2 571 0
	lwz 0,20(1)
	lwz 30,8(1)
	mtlr 0
	lwz 31,12(1)
.LVL645:
	addi 1,1,16
	.cfi_remember_state
.LCFI121:
	.cfi_def_cfa_offset 0
	.cfi_restore 31
	.cfi_restore 30
	blr
.LVL646:
.L327:
.LCFI122:
	.cfi_restore_state
	mr 30,3
.LBB3181:
	.loc 2 559 0
	mr 3,31
	bl _ZN10idMoveableD2Ev
	mr 3,30
.LEHB32:
	bl _Unwind_Resume
.LEHE32:
.LBE3181:
	.cfi_endproc
.LFE2847:
	.section	.gcc_except_table
.LLSDA2847:
	.byte	0xff
	.byte	0xff
	.byte	0x1
	.uleb128 .LLSDACSE2847-.LLSDACSB2847
.LLSDACSB2847:
	.uleb128 .LEHB30-.LFB2847
	.uleb128 .LEHE30-.LEHB30
	.uleb128 0
	.uleb128 0
	.uleb128 .LEHB31-.LFB2847
	.uleb128 .LEHE31-.LEHB31
	.uleb128 .L327-.LFB2847
	.uleb128 0
	.uleb128 .LEHB32-.LFB2847
	.uleb128 .LEHE32-.LEHB32
	.uleb128 0
	.uleb128 0
.LLSDACSE2847:
	.section	".text"
	.size	_ZN8idBarrelC2Ev, .-_ZN8idBarrelC2Ev
	.align 2
	.globl _ZN8idBarrel14CreateInstanceEv
	.type	_ZN8idBarrel14CreateInstanceEv, @function
_ZN8idBarrel14CreateInstanceEv:
.LFB2844:
	.loc 2 551 0
	.cfi_startproc
	.cfi_personality 0,__gxx_personality_v0
	.cfi_lsda 0,.LLSDA2844
	mflr 0
	stwu 1,-24(1)
.LCFI123:
	.cfi_def_cfa_offset 24
	.cfi_register 65, 0
.LBB3182:
	li 3,1412
.LBE3182:
	stw 30,16(1)
	stw 0,28(1)
	stw 31,20(1)
.LEHB33:
.LBB3183:
	.loc 2 551 0
	.cfi_offset 31, -4
	.cfi_offset 65, 4
	.cfi_offset 30, -8
	bl _ZN7idClassnwEj
.LEHE33:
	mr 31,3
.LEHB34:
	bl _ZN8idBarrelC1Ev
.LEHE34:
.LVL647:
	.loc 2 551 0 is_stmt 0 discriminator 2
	mr 3,31
.LEHB35:
	bl _ZN7idClass23FindUninitializedMemoryEv
.LEHE35:
.LVL648:
.L335:
.LBE3183:
	.loc 2 551 0
	lwz 0,28(1)
	mr 3,31
	lwz 30,16(1)
	mtlr 0
	lwz 31,20(1)
	addi 1,1,24
	.cfi_remember_state
.LCFI124:
	.cfi_def_cfa_offset 0
	.cfi_restore 31
	.cfi_restore 30
	blr
.L336:
.L332:
.LCFI125:
	.cfi_restore_state
.LBB3184:
	cmpwi 7,4,1
	beq- 7,.L334
.LEHB36:
	bl _Unwind_Resume
.LEHE36:
.L337:
	mr 30,3
	mr 3,31
	stw 4,8(1)
	bl _ZN7idClassdlEPv
	mr 3,30
	lwz 4,8(1)
	b .L332
.L334:
.LBE3184:
.LBB3185:
	bl __cxa_begin_catch
	li 31,0
	bl __cxa_end_catch
	b .L335
.LBE3185:
	.cfi_endproc
.LFE2844:
	.section	.gcc_except_table
	.align 2
.LLSDA2844:
	.byte	0xff
	.byte	0
	.uleb128 .LLSDATT2844-.LLSDATTD2844
.LLSDATTD2844:
	.byte	0x1
	.uleb128 .LLSDACSE2844-.LLSDACSB2844
.LLSDACSB2844:
	.uleb128 .LEHB33-.LFB2844
	.uleb128 .LEHE33-.LEHB33
	.uleb128 .L336-.LFB2844
	.uleb128 0x1
	.uleb128 .LEHB34-.LFB2844
	.uleb128 .LEHE34-.LEHB34
	.uleb128 .L337-.LFB2844
	.uleb128 0x3
	.uleb128 .LEHB35-.LFB2844
	.uleb128 .LEHE35-.LEHB35
	.uleb128 .L336-.LFB2844
	.uleb128 0x1
	.uleb128 .LEHB36-.LFB2844
	.uleb128 .LEHE36-.LEHB36
	.uleb128 0
	.uleb128 0
.LLSDACSE2844:
	.byte	0x1
	.byte	0
	.byte	0
	.byte	0x7d
	.align 2
	.long	_ZTI12idAllocError
.LLSDATT2844:
	.section	".text"
	.size	_ZN8idBarrel14CreateInstanceEv, .-_ZN8idBarrel14CreateInstanceEv
	.align 2
	.globl _ZN8idBarrel11BarrelThinkEv
	.type	_ZN8idBarrel11BarrelThinkEv, @function
_ZN8idBarrel11BarrelThinkEv:
.LFB2851:
	.loc 2 606 0 is_stmt 1
	.cfi_startproc
.LVL649:
	mflr 0
	stwu 1,-216(1)
.LCFI126:
	.cfi_def_cfa_offset 216
	.cfi_register 65, 0
	stw 30,152(1)
	stw 31,156(1)
	mr 31,3
	.cfi_offset 31, -60
	.cfi_offset 30, -64
	stw 0,220(1)
	stfd 25,160(1)
	stfd 26,168(1)
	stfd 27,176(1)
	stfd 28,184(1)
	stfd 29,192(1)
	stfd 30,200(1)
	stfd 31,208(1)
	stw 29,148(1)
.LBB3250:
	.loc 2 612 0
	lwz 9,0(3)
	lwz 0,144(9)
	.cfi_offset 29, -68
	.cfi_offset 63, -8
	.cfi_offset 62, -16
	.cfi_offset 61, -24
	.cfi_offset 60, -32
	.cfi_offset 59, -40
	.cfi_offset 58, -48
	.cfi_offset 57, -56
	.cfi_offset 65, 4
	mtctr 0
	bctrl
.LVL650:
	mr 30,3
.LVL651:
	.loc 2 615 0
	mr 3,31
.LVL652:
	bl _ZN8idEntity10RunPhysicsEv
	.loc 2 618 0
	cmpwi 7,30,0
	beq- 7,.L365
.LVL653:
.L339:
	.loc 2 670 0
	lwz 9,0(31)
	mr 3,31
	lwz 0,32(9)
	mtctr 0
	bctrl
.LBE3250:
	.loc 2 671 0
	lwz 0,220(1)
	lwz 29,148(1)
	mtlr 0
	lwz 30,152(1)
	lwz 31,156(1)
.LVL654:
	lfd 25,160(1)
	lfd 26,168(1)
	lfd 27,176(1)
	lfd 28,184(1)
	lfd 29,192(1)
	lfd 30,200(1)
	lfd 31,208(1)
	addi 1,1,216
	.cfi_remember_state
.LCFI127:
	.cfi_def_cfa_offset 0
	.cfi_restore 63
	.cfi_restore 62
	.cfi_restore 61
	.cfi_restore 60
	.cfi_restore 59
	.cfi_restore 58
	.cfi_restore 57
	.cfi_restore 31
	.cfi_restore 30
	.cfi_restore 29
	blr
.LVL655:
.L365:
.LCFI128:
	.cfi_restore_state
.LBB3451:
	.loc 2 621 0
	mr 3,31
	bl _ZNK8idEntity10GetPhysicsEv
	lwz 9,0(3)
	lwz 0,220(9)
	mtctr 0
	bctrl
	mr 30,3
.LVL656:
	.loc 2 622 0
	mr 3,31
.LVL657:
	bl _ZNK8idEntity10GetPhysicsEv
	li 4,0
	lwz 9,0(3)
	lwz 0,132(9)
	mtctr 0
	bctrl
	mr 9,3
.LVL658:
	.loc 2 623 0
	mr 3,31
.LVL659:
.LBB3251:
.LBB3252:
	.loc 3 424 0
	lfs 29,0(9)
.LVL660:
	.loc 3 425 0
	lfs 30,4(9)
.LVL661:
	.loc 3 426 0
	lfs 31,8(9)
.LVL662:
.LBE3252:
.LBE3251:
	.loc 2 623 0
	bl _ZNK8idEntity10GetPhysicsEv
.LVL663:
	lwz 9,0(3)
	li 4,0
	lwz 0,136(9)
	mtctr 0
	bctrl
.LVL664:
.LBB3253:
.LBB3254:
	.loc 4 333 0
	li 10,0
.L340:
.LBB3255:
.LBB3256:
	.loc 3 424 0
	mr 11,3
	addi 9,1,20
	lwzux 0,11,10
.LBE3256:
.LBE3255:
	.loc 4 333 0
	cmpwi 7,10,24
.LBB3259:
.LBB3257:
	.loc 3 424 0
	stwux 0,9,10
.LBE3257:
.LBE3259:
	.loc 4 333 0
	addi 10,10,12
.LBB3260:
.LBB3258:
	.loc 3 425 0
	lwz 0,4(11)
	stw 0,4(9)
	.loc 3 426 0
	lwz 0,8(11)
	stw 0,8(9)
.LBE3258:
.LBE3260:
	.loc 4 333 0
	bne+ 7,.L340
.LBE3254:
.LBE3253:
	.loc 2 626 0
	cmpwi 7,30,0
	addi 30,31,1336
.LVL665:
	bne- 7,.L366
.L341:
.LVL666:
.LBB3261:
.LBB3262:
	.loc 3 424 0
	stfs 29,1324(31)
.LBE3262:
.LBE3261:
.LBB3264:
.LBB3265:
	.loc 4 333 0
	li 10,0
.LBE3265:
.LBE3264:
.LBB3273:
.LBB3263:
	.loc 3 425 0
	stfs 30,1328(31)
	.loc 3 426 0
	stfs 31,1332(31)
.LVL667:
.L352:
.LBE3263:
.LBE3273:
.LBB3274:
.LBB3272:
.LBB3266:
.LBB3267:
	.loc 3 424 0
	addi 11,1,20
	mr 9,30
	lwzux 0,11,10
.LBE3267:
.LBE3266:
	.loc 4 333 0
	cmpwi 7,10,24
.LBB3270:
.LBB3268:
	.loc 3 424 0
	stwux 0,9,10
.LBE3268:
.LBE3270:
	.loc 4 333 0
	addi 10,10,12
.LBB3271:
.LBB3269:
	.loc 3 425 0
	lwz 8,4(11)
	.loc 3 426 0
	lwz 0,8(11)
	.loc 3 425 0
	stw 8,4(9)
	.loc 3 426 0
	stw 0,8(9)
.LBE3269:
.LBE3271:
	.loc 4 333 0
	bne+ 7,.L352
	b .L339
.LVL668:
.L366:
.LBE3272:
.LBE3274:
	.loc 2 627 0
	mr 3,31
	bl _ZNK8idEntity10GetPhysicsEv
	lwz 9,0(3)
	lwz 0,164(9)
	mtctr 0
	bctrl
.LVL669:
.LBB3275:
.LBB3276:
	.loc 3 431 0
	lfs 12,1328(31)
.LBE3276:
.LBE3275:
.LBB3283:
.LBB3284:
	.loc 3 425 0
	lfs 27,4(3)
.LBE3284:
.LBE3283:
	.loc 2 634 0
	lis 9,.LC0@ha
.LBB3287:
.LBB3277:
	.loc 3 431 0
	fsubs 12,30,12
	lfs 13,1324(31)
.LBE3277:
.LBE3287:
.LBB3288:
.LBB3285:
	.loc 3 424 0
	lfs 28,0(3)
.LVL670:
.LBE3285:
.LBE3288:
.LBB3289:
.LBB3290:
	.loc 2 606 0
	fneg 7,27
.LBE3290:
.LBE3289:
.LBB3296:
.LBB3278:
	.loc 3 431 0
	fsubs 13,29,13
	lfs 10,1332(31)
.LBE3278:
.LBE3296:
.LBB3297:
.LBB3298:
	.loc 3 435 0
	fmuls 11,27,12
.LBE3298:
.LBE3297:
.LBB3299:
.LBB3286:
	.loc 3 426 0
	lfs 26,8(3)
.LVL671:
.LBE3286:
.LBE3299:
.LBB3300:
.LBB3279:
	.loc 3 431 0
	fsubs 10,31,10
.LVL672:
.LBE3279:
.LBE3300:
	.loc 2 634 0
	lfs 9,.LC0@l(9)
.LBB3301:
.LBB3280:
	.loc 2 606 0
	fneg 8,28
	.loc 3 435 0
	fmadds 11,28,13,11
.LBE3280:
.LBE3301:
.LBB3302:
.LBB3291:
	.loc 2 606 0
	fneg 0,26
.LBE3291:
.LBE3302:
.LBB3303:
.LBB3281:
	.loc 3 435 0
	fmadds 11,26,10,11
.LVL673:
.LBE3281:
.LBE3303:
.LBB3304:
.LBB3292:
	.loc 3 482 0
	fmadds 12,7,11,12
.LVL674:
.LBE3292:
.LBE3304:
.LBB3305:
.LBB3282:
	.loc 3 481 0
	fmadds 13,8,11,13
.LVL675:
.LBE3282:
.LBE3305:
.LBB3306:
.LBB3293:
	.loc 3 483 0
	fmadds 0,0,11,10
.LBE3293:
.LBE3306:
.LBB3307:
.LBB3308:
	.loc 3 636 0
	fmuls 11,12,12
.LVL676:
.LBE3308:
.LBE3307:
.LBB3309:
.LBB3294:
	.loc 3 482 0
	stfs 12,12(1)
	.loc 3 481 0
	stfs 13,8(1)
	.loc 3 483 0
	stfs 0,16(1)
.LVL677:
	.loc 3 636 0
	fmadds 11,13,13,11
	fmadds 11,0,0,11
.LBE3294:
.LBE3309:
	.loc 2 634 0
	fcmpu 7,11,9
.LBB3310:
.LBB3295:
	.loc 3 636 0
	stfs 11,136(1)
.LBE3295:
.LBE3310:
	.loc 2 634 0
	bng- 7,.L341
	.loc 2 634 0 is_stmt 0 discriminator 1
	lwz 11,1320(31)
.LVL678:
	addi 10,1,20
	mulli 0,11,12
	add 9,10,0
.LVL679:
.LBB3311:
.LBB3312:
	.loc 3 435 0 is_stmt 1 discriminator 1
	lfsx 10,10,0
.LVL680:
.LBE3312:
.LBE3311:
.LBB3316:
.LBB3317:
	lfs 8,4(9)
.LBE3317:
.LBE3316:
.LBB3319:
.LBB3313:
	lfs 11,8(9)
.LBE3313:
.LBE3319:
	.loc 2 634 0 discriminator 1
	lis 9,.LC84@ha
.LVL681:
.LBB3320:
.LBB3318:
	.loc 3 435 0 discriminator 1
	fmuls 7,27,8
.LBE3318:
.LBE3320:
.LBB3321:
.LBB3314:
	fmadds 7,28,10,7
	fmadds 7,26,11,7
	stfs 7,140(1)
.LBE3314:
.LBE3321:
	.loc 2 634 0 discriminator 1
	lfs 7,.LC84@l(9)
.LBB3322:
.LBB3315:
	.loc 3 435 0 discriminator 1
	lwz 0,140(1)
.LVL682:
	.loc 9 781 0 discriminator 1
	rlwinm 0,0,0,1,31
.LBE3315:
.LBE3322:
	.loc 2 634 0 discriminator 1
	stw 0,140(1)
	lfs 6,140(1)
	fcmpu 7,6,7
	bnl- 7,.L341
.LVL683:
.LBB3323:
.LBB3324:
.LBB3325:
.LBB3326:
	.loc 9 270 0 discriminator 4
	lwz 0,136(1)
.LVL684:
.LBE3326:
.LBE3325:
.LBE3324:
.LBE3323:
	.loc 2 638 0 discriminator 4
	lis 29,.LC33@ha
.LBB3364:
.LBB3351:
.LBB3339:
.LBB3327:
	.loc 9 275 0 discriminator 4
	lfs 7,136(1)
.LBE3327:
.LBE3339:
.LBE3351:
.LBE3364:
	.loc 2 642 0 discriminator 4
	addi 11,11,1
.LBB3365:
.LBB3352:
.LBB3340:
.LBB3328:
	.loc 9 276 0 discriminator 4
	rlwinm 10,0,9,24,31
	rlwinm 9,0,19,21,29
	subfic 0,10,380
	lis 10,_ZN6idMath5iSqrtE@ha
	la 10,_ZN6idMath5iSqrtE@l(10)
	rlwinm 0,0,22,0,8
	lwzx 9,10,9
	.loc 9 275 0 discriminator 4
	lis 10,.LC1@ha
	lfs 3,.LC1@l(10)
.LBE3328:
.LBE3340:
.LBE3352:
.LBE3365:
	.loc 2 642 0 discriminator 4
	addi 10,1,20
.LBB3366:
.LBB3353:
.LBB3341:
.LBB3329:
	.loc 9 276 0 discriminator 4
	or 0,0,9
	.loc 9 278 0 discriminator 4
	lis 9,.LC32@ha
	.loc 9 277 0 discriminator 4
	stw 0,140(1)
	.loc 9 275 0 discriminator 4
	fmuls 3,7,3
.LVL685:
	.loc 9 278 0 discriminator 4
	lfs 4,.LC32@l(9)
.LBE3329:
.LBE3341:
.LBE3353:
.LBE3366:
	.loc 2 642 0 discriminator 4
	lis 9,0x5555
.LBB3367:
.LBB3354:
.LBB3342:
.LBB3330:
	.loc 9 277 0 discriminator 4
	lfs 6,140(1)
.LBE3330:
.LBE3342:
.LBE3354:
.LBE3367:
	.loc 2 642 0 discriminator 4
	ori 9,9,21846
.LBB3368:
.LBB3355:
.LBB3343:
.LBB3331:
	.loc 2 606 0 discriminator 4
	fneg 3,3
.LVL686:
.LBE3331:
.LBE3343:
.LBE3355:
.LBE3368:
	.loc 2 638 0 discriminator 4
	lfs 7,.LC33@l(29)
.LBB3369:
.LBB3356:
.LBB3344:
.LBB3332:
	.loc 9 277 0 discriminator 4
	fmr 5,6
.LVL687:
.LBE3332:
.LBE3344:
.LBE3356:
.LBE3369:
	.loc 2 642 0 discriminator 4
	mulhw 9,11,9
	srawi 0,11,31
.LBB3370:
.LBB3357:
.LBB3345:
.LBB3333:
	.loc 9 278 0 discriminator 4
	fmul 6,5,5
.LVL688:
.LBE3333:
.LBE3345:
.LBE3357:
.LBE3370:
	.loc 2 642 0 discriminator 4
	subf 0,0,9
	mulli 0,0,3
.LBB3371:
.LBB3358:
.LBB3346:
.LBB3334:
	.loc 9 278 0 discriminator 4
	fmadd 6,3,6,4
.LBE3334:
.LBE3346:
.LBE3358:
.LBE3371:
	.loc 2 642 0 discriminator 4
	subf 0,0,11
	mulli 0,0,12
.LBB3372:
.LBB3359:
.LBB3347:
.LBB3335:
	.loc 9 278 0 discriminator 4
	fmul 6,5,6
.LVL689:
.LBE3335:
.LBE3347:
.LBE3359:
.LBE3372:
	.loc 2 642 0 discriminator 4
	add 9,10,0
	add 11,30,0
	.loc 3 435 0 discriminator 4
	lfsx 25,30,0
.LBB3373:
.LBB3374:
	lfs 2,4(11)
.LBE3374:
.LBE3373:
	lfs 1,8(11)
.LBB3377:
.LBB3360:
.LBB3348:
.LBB3336:
	.loc 9 279 0 discriminator 4
	fmul 5,6,6
	fmadd 5,3,5,4
.LVL690:
.LBE3336:
.LBE3348:
.LBE3360:
.LBE3377:
.LBB3378:
.LBB3375:
	.loc 3 435 0 discriminator 4
	lfs 4,4(9)
.LBE3375:
.LBE3378:
	lfs 3,8(9)
.LBB3379:
.LBB3380:
	.loc 9 545 0 discriminator 4
	lis 9,.LC24@ha
.LBE3380:
.LBE3379:
.LBB3385:
.LBB3376:
	.loc 3 435 0 discriminator 4
	fmuls 2,2,4
.LBE3376:
.LBE3385:
	lfsx 4,10,0
.LBB3386:
.LBB3361:
.LBB3349:
.LBB3337:
	.loc 9 279 0 discriminator 4
	fmul 5,6,5
.LVL691:
.LBE3337:
.LBE3349:
	.loc 9 303 0 discriminator 4
	lfs 6,136(1)
.LBE3361:
.LBE3386:
	.loc 3 435 0 discriminator 4
	fmadds 4,25,4,2
.LBB3387:
.LBB3362:
.LBB3350:
.LBB3338:
	.loc 9 280 0 discriminator 4
	frsp 5,5
.LVL692:
.LBE3338:
.LBE3350:
.LBE3362:
.LBE3387:
	.loc 3 435 0 discriminator 4
	fmadds 1,1,3,4
.LBB3388:
.LBB3363:
	.loc 9 303 0 discriminator 4
	fmuls 5,6,5
.LBE3363:
.LBE3388:
	.loc 2 638 0 discriminator 4
	fdivs 6,7,5
.LVL693:
.LBB3389:
.LBB3390:
	.loc 3 490 0 discriminator 4
	fmuls 12,6,12
	.loc 3 489 0 discriminator 4
	fmuls 13,6,13
	.loc 3 491 0 discriminator 4
	fmuls 0,6,0
.LBE3390:
.LBE3389:
.LBB3392:
.LBB3393:
	.loc 3 435 0 discriminator 4
	fmuls 8,12,8
.LBE3393:
.LBE3392:
.LBB3394:
.LBB3391:
	.loc 3 490 0 discriminator 4
	stfs 12,12(1)
	.loc 3 489 0 discriminator 4
	stfs 13,8(1)
	.loc 3 491 0 discriminator 4
	stfs 0,16(1)
.LVL694:
.LBE3391:
.LBE3394:
.LBB3395:
.LBB3396:
	.loc 3 435 0 discriminator 4
	fmadds 10,13,10,8
.LBE3396:
.LBE3395:
.LBB3399:
.LBB3381:
	.loc 9 545 0 discriminator 4
	lfs 13,.LC24@l(9)
	fcmpu 7,1,13
.LBE3381:
.LBE3399:
.LBB3400:
.LBB3397:
	.loc 3 435 0 discriminator 4
	fmadds 10,0,11,10
.LBE3397:
.LBE3400:
.LBB3401:
.LBB3382:
	.loc 9 545 0 discriminator 4
	cror 30,28,30
.LBE3382:
.LBE3401:
.LBB3402:
.LBB3398:
	.loc 3 435 0 discriminator 4
	stfs 10,140(1)
	lwz 0,140(1)
	.loc 9 781 0 discriminator 4
	rlwinm 0,0,0,1,31
.LBE3398:
.LBE3402:
	.loc 2 639 0 discriminator 4
	stw 0,140(1)
	lfs 11,140(1)
	fsubs 25,7,11
	fmuls 25,25,5
.LVL695:
.LBB3403:
.LBB3383:
	.loc 9 545 0 discriminator 4
	bne- 7,.L363
	.loc 9 546 0
	lis 9,_ZN6idMath2PIE@ha
	lfs 9,_ZN6idMath2PIE@l(9)
.LVL696:
.L346:
.LBE3383:
.LBE3403:
	.loc 2 645 0
	lfs 0,1316(31)
	fmuls 9,0,9
.LVL697:
	.loc 2 648 0
	fcmpu 7,25,9
	bng- 7,.L341
	.loc 2 653 0
	lwz 10,1320(31)
	addi 11,1,20
	.loc 2 652 0
	fsubs 9,25,9
.LVL698:
	.loc 2 653 0
	mulli 0,10,12
	add 9,11,0
.LBB3404:
.LBB3405:
	.loc 3 620 0
	lfsx 11,11,0
	lfs 12,8(9)
	lfs 13,4(9)
.LBE3405:
.LBE3404:
	.loc 2 653 0
	lis 9,.LC0@ha
.LBB3408:
.LBB3406:
	.loc 3 620 0
	fmuls 8,28,12
	fmuls 10,26,13
.LBE3406:
.LBE3408:
.LBB3409:
.LBB3410:
	fmsubs 26,26,11,8
.LVL699:
.LBE3410:
.LBE3409:
	fmsubs 12,27,12,10
.LBB3413:
.LBB3411:
	.loc 3 435 0
	lfs 10,12(1)
.LBE3411:
.LBE3413:
.LBB3414:
.LBB3407:
	.loc 3 620 0
	fmuls 11,27,11
.LBE3407:
.LBE3414:
.LBB3415:
.LBB3412:
	.loc 3 435 0
	fmuls 26,26,10
.LBE3412:
.LBE3415:
	lfs 10,16(1)
	.loc 3 620 0
	fmsubs 13,28,13,11
	.loc 3 435 0
	lfs 11,8(1)
	fmadds 12,12,11,26
	fmadds 13,13,10,12
	.loc 2 653 0
	lfs 12,.LC0@l(9)
	.loc 2 652 0
	lis 9,.LC85@ha
	.loc 2 653 0
	fcmpu 7,13,12
	.loc 2 652 0
	lfs 13,.LC85@l(9)
	lis 9,_ZN6idMath2PIE@ha
	fmuls 9,9,13
	lfs 13,_ZN6idMath2PIE@l(9)
	fmuls 0,0,13
	.loc 2 654 0
	lfs 13,1372(31)
	.loc 2 652 0
	fdivs 0,9,0
.LVL700:
	.loc 2 653 0
	bnl- 7,.L364
	.loc 2 654 0
	fadds 0,0,13
.LVL701:
	stfs 0,1372(31)
.L350:
.LVL702:
.LBB3416:
.LBB3417:
	.loc 3 424 0
	lis 9,vec3_origin@ha
.LBE3417:
.LBE3416:
	.loc 2 659 0
	lwz 7,.LC33@l(29)
.LBB3422:
.LBB3418:
	.loc 3 424 0
	la 8,vec3_origin@l(9)
	lwz 11,vec3_origin@l(9)
	.loc 3 426 0
	lwz 0,8(8)
.LBE3418:
.LBE3422:
	.loc 2 659 0
	slwi 10,10,2
.LBB3423:
.LBB3419:
	.loc 3 425 0
	lwz 9,4(8)
.LBE3419:
.LBE3423:
	.loc 2 659 0
	addi 8,1,8
.LBB3424:
.LBB3420:
	.loc 3 426 0
	stw 0,16(1)
.LVL703:
.LBE3420:
.LBE3424:
	.loc 2 660 0
	addi 3,1,56
.LBB3425:
.LBB3421:
	.loc 3 424 0
	stw 11,8(1)
	.loc 3 425 0
	stw 9,12(1)
.LBE3421:
.LBE3425:
	.loc 2 659 0
	stwx 7,8,10
.LVL704:
.LBB3426:
.LBB3427:
.LBB3428:
.LBB3429:
	.loc 3 426 0
	stw 0,64(1)
.LVL705:
.LBE3429:
.LBE3428:
.LBB3432:
.LBB3433:
	.loc 3 424 0
	lwz 0,8(1)
.LBE3433:
.LBE3432:
.LBB3437:
.LBB3430:
	stw 11,56(1)
.LBE3430:
.LBE3437:
.LBB3438:
.LBB3434:
	stw 0,68(1)
	.loc 3 425 0
	lwz 0,12(1)
.LBE3434:
.LBE3438:
.LBB3439:
.LBB3431:
	stw 9,60(1)
.LBE3431:
.LBE3439:
.LBB3440:
.LBB3435:
	stw 0,72(1)
	.loc 3 426 0
	lwz 0,16(1)
.LBE3435:
.LBE3440:
	.file 17 "d:/Data/Nintendo/DoomGX/src/game/../idlib/../idlib/math/Rotation.h"
	.loc 17 104 0
	stfs 0,80(1)
.LBB3441:
.LBB3436:
	.loc 3 426 0
	stw 0,76(1)
.LBE3436:
.LBE3441:
	.loc 17 105 0
	li 0,0
	stb 0,120(1)
.LBE3427:
.LBE3426:
	.loc 2 660 0
	bl _ZNK10idRotation6ToMat3Ev
.LVL706:
.LBB3442:
.LBB3443:
	.loc 4 333 0
	addi 8,31,1376
	li 10,0
.L351:
.LBB3444:
.LBB3445:
	.loc 3 424 0
	mr 11,3
	mr 9,8
	lwzux 0,11,10
.LBE3445:
.LBE3444:
	.loc 4 333 0
	cmpwi 7,10,24
.LBB3448:
.LBB3446:
	.loc 3 424 0
	stwux 0,9,10
.LBE3446:
.LBE3448:
	.loc 4 333 0
	addi 10,10,12
.LBB3449:
.LBB3447:
	.loc 3 425 0
	lwz 0,4(11)
	stw 0,4(9)
	.loc 3 426 0
	lwz 0,8(11)
	stw 0,8(9)
.LBE3447:
.LBE3449:
	.loc 4 333 0
	bne+ 7,.L351
	b .L341
.LVL707:
.L363:
.LBE3443:
.LBE3442:
.LBB3450:
.LBB3384:
	.loc 9 548 0
	fcmpu 7,1,7
	cror 30,29,30
	beq+ 7,.L346
	.loc 9 551 0
	bl acosf
.LVL708:
	fmr 9,1
	b .L346
.LVL709:
.L364:
.LBE3384:
.LBE3450:
	.loc 2 656 0
	fsubs 0,13,0
.LVL710:
	stfs 0,1372(31)
	b .L350
.LBE3451:
	.cfi_endproc
.LFE2851:
	.size	_ZN8idBarrel11BarrelThinkEv, .-_ZN8idBarrel11BarrelThinkEv
	.align 2
	.globl _ZN17idExplodingBarrel5ThinkEv
	.type	_ZN17idExplodingBarrel5ThinkEv, @function
_ZN17idExplodingBarrel5ThinkEv:
.LFB2878:
	.loc 2 850 0
	.cfi_startproc
.LVL711:
	stwu 1,-32(1)
.LCFI129:
	.cfi_def_cfa_offset 32
	mflr 0
	stw 31,20(1)
	mr 31,3
	.cfi_offset 31, -12
	.cfi_register 65, 0
	stw 0,36(1)
	stfd 31,24(1)
	stw 30,16(1)
.LBB3452:
	.loc 2 851 0
	.cfi_offset 30, -16
	.cfi_offset 63, -8
	.cfi_offset 65, 4
	bl _ZN8idBarrel11BarrelThinkEv
.LVL712:
.LBB3453:
	.loc 2 853 0
	lwz 4,1468(31)
	cmpwi 7,4,0
	blt- 7,.L380
.LBB3454:
	.loc 2 854 0
	lwz 0,1412(31)
	cmpwi 7,0,1
	beq- 7,.L381
	.loc 2 868 0
	lis 9,gameLocal+2426836@ha
	lwz 0,1900(31)
	lwz 9,gameLocal+2426836@l(9)
	subf 0,0,9
	cmpwi 7,0,250
	bgt- 7,.L382
.L367:
.LBE3454:
.LBE3453:
.LBE3452:
	.loc 2 886 0
	lwz 0,36(1)
	lwz 30,16(1)
	mtlr 0
	lwz 31,20(1)
.LVL713:
	lfd 31,24(1)
	addi 1,1,32
	.cfi_remember_state
.LCFI130:
	.cfi_def_cfa_offset 0
	.cfi_restore 63
	.cfi_restore 31
	.cfi_restore 30
	blr
.LVL714:
.L380:
.LCFI131:
	.cfi_restore_state
	lis 30,gameLocal+2424832@ha
	la 30,gameLocal+2424832@l(30)
.L368:
.LBB3501:
	.loc 2 876 0
	lbz 0,2018(30)
	cmpwi 7,0,0
	bne- 7,.L373
	.loc 2 876 0 is_stmt 0 discriminator 1
	lwz 0,1412(31)
	cmpwi 7,0,1
	beq- 7,.L373
	.loc 2 876 0 discriminator 2
	cmpwi 7,0,3
	beq+ 7,.L373
	.loc 2 877 0 is_stmt 1
	mr 3,31
	li 4,1
	bl _ZN8idEntity14BecomeInactiveEi
	.loc 2 878 0
	b .L367
.L373:
	.loc 2 881 0
	lwz 0,1464(31)
	cmpwi 7,0,0
	blt- 7,.L367
	.loc 2 882 0
	addi 3,31,636
	li 4,-1
	bl _ZNK19idPhysics_RigidBody12GetAbsBoundsEi
.LVL715:
.LBB3479:
.LBB3480:
	.loc 14 212 0
	lis 9,.LC1@ha
	lfs 0,0(3)
.LBE3480:
.LBE3479:
.LBB3483:
.LBB3484:
	.loc 4 333 0
	addi 7,31,1544
.LBE3484:
.LBE3483:
.LBB3493:
.LBB3481:
	.loc 14 212 0
	lfs 9,16(3)
.LBE3481:
.LBE3493:
.LBB3494:
.LBB3491:
	.loc 4 333 0
	li 10,0
.LBE3491:
.LBE3494:
.LBB3495:
.LBB3482:
	.loc 14 212 0
	lfs 12,4(3)
	lfs 10,20(3)
	lfs 13,8(3)
	fadds 12,9,12
	lfs 11,12(3)
	fadds 13,10,13
	fadds 11,11,0
	lfs 0,.LC1@l(9)
	lis 9,mat3_identity@ha
	fmuls 12,12,0
.LVL716:
	la 0,mat3_identity@l(9)
	fmuls 13,13,0
.LVL717:
	fmuls 0,11,0
.LBE3482:
.LBE3495:
.LBB3496:
.LBB3497:
	.loc 3 425 0
	stfs 12,1536(31)
	.loc 3 426 0
	stfs 13,1540(31)
.LVL718:
	.loc 3 424 0
	stfs 0,1532(31)
.L374:
.LBE3497:
.LBE3496:
.LBB3498:
.LBB3492:
.LBB3485:
.LBB3486:
	mr 11,0
	mr 9,7
	lwzux 8,11,10
.LBE3486:
.LBE3485:
	.loc 4 333 0
	cmpwi 7,10,24
.LBB3489:
.LBB3487:
	.loc 3 424 0
	stwux 8,9,10
.LBE3487:
.LBE3489:
	.loc 4 333 0
	addi 10,10,12
.LBB3490:
.LBB3488:
	.loc 3 425 0
	lwz 8,4(11)
	stw 8,4(9)
	.loc 3 426 0
	lwz 11,8(11)
	stw 11,8(9)
.LBE3488:
.LBE3490:
	.loc 4 333 0
	bne+ 7,.L374
.LBE3492:
.LBE3498:
	.loc 2 884 0
	lis 9,gameRenderWorld@ha
	lwz 4,1464(31)
	lwz 3,gameRenderWorld@l(9)
.LVL719:
	addi 5,31,1472
	lwz 9,0(3)
	lwz 0,20(9)
	mtctr 0
	bctrl
.LVL720:
.LBE3501:
	.loc 2 886 0
	lwz 0,36(1)
	lwz 30,16(1)
	mtlr 0
	lwz 31,20(1)
.LVL721:
	lfd 31,24(1)
	addi 1,1,32
	.cfi_remember_state
	.cfi_restore 30
	.cfi_restore 31
	.cfi_restore 63
.LCFI132:
	.cfi_def_cfa_offset 0
	blr
.LVL722:
.L381:
.LCFI133:
	.cfi_restore_state
.LBB3502:
.LBB3499:
.LBB3477:
.LBB3455:
	.loc 2 856 0
	lis 30,gameLocal@ha
	lwz 0,1900(31)
	la 30,gameLocal@l(30)
	addis 30,30,0x25
	lwz 9,2004(30)
	subf 0,0,9
	lis 9,.LC28@ha
	xoris 0,0,0x8000
	lfs 0,.LC28@l(9)
	stw 0,12(1)
	lis 0,0x4330
	stw 0,8(1)
	.loc 2 857 0
	lis 9,.LC33@ha
	.loc 2 856 0
	lfd 31,8(1)
	fsub 31,31,0
	.loc 2 857 0
	lfs 0,.LC33@l(9)
	.loc 2 856 0
	lis 9,.LC86@ha
	lfs 13,.LC86@l(9)
	frsp 31,31
	fdivs 31,31,13
.LVL723:
	.loc 2 857 0
	fcmpu 7,31,0
	bgt- 7,.L383
.LVL724:
.L370:
	.loc 2 860 0
	addi 3,31,636
	li 4,-1
	bl _ZNK19idPhysics_RigidBody12GetAbsBoundsEi
.LVL725:
.LBB3456:
.LBB3457:
	.loc 14 212 0
	lis 9,.LC1@ha
	lfs 0,0(3)
.LBE3457:
.LBE3456:
.LBB3460:
.LBB3461:
	.loc 4 333 0
	addi 5,31,1688
.LBE3461:
.LBE3460:
.LBB3470:
.LBB3458:
	.loc 14 212 0
	lfs 9,16(3)
.LBE3458:
.LBE3470:
.LBB3471:
.LBB3468:
	.loc 4 333 0
	li 10,0
.LBE3468:
.LBE3471:
.LBB3472:
.LBB3459:
	.loc 14 212 0
	lfs 12,4(3)
	lfs 10,20(3)
	lfs 13,8(3)
	fadds 12,9,12
	lfs 11,12(3)
	fadds 13,10,13
	fadds 11,11,0
	lfs 0,.LC1@l(9)
	lis 9,mat3_identity@ha
	fmuls 12,12,0
.LVL726:
	la 0,mat3_identity@l(9)
	fmuls 13,13,0
.LVL727:
	fmuls 0,11,0
.LBE3459:
.LBE3472:
.LBB3473:
.LBB3474:
	.loc 3 425 0
	stfs 12,1728(31)
	.loc 3 426 0
	stfs 13,1732(31)
.LVL728:
	.loc 3 424 0
	stfs 0,1724(31)
.L371:
.LBE3474:
.LBE3473:
.LBB3475:
.LBB3469:
.LBB3462:
.LBB3463:
	mr 11,0
	mr 9,5
	lwzux 8,11,10
.LBE3463:
.LBE3462:
	.loc 4 333 0
	cmpwi 7,10,24
.LBB3466:
.LBB3464:
	.loc 3 424 0
	stwux 8,9,10
.LBE3464:
.LBE3466:
	.loc 4 333 0
	addi 10,10,12
.LBB3467:
.LBB3465:
	.loc 3 425 0
	lwz 8,4(11)
	stw 8,4(9)
	.loc 3 426 0
	lwz 11,8(11)
	stw 11,8(9)
.LBE3465:
.LBE3467:
	.loc 4 333 0
	bne+ 7,.L371
.LBE3469:
.LBE3475:
	.loc 2 866 0
	lis 9,gameRenderWorld@ha
	.loc 2 862 0
	stfs 31,1844(31)
	.loc 2 863 0
	stfs 31,1848(31)
	.loc 2 864 0
	stfs 31,1852(31)
	.loc 2 865 0
	stfs 31,1856(31)
	.loc 2 866 0
	lwz 3,gameRenderWorld@l(9)
.LVL729:
	lwz 4,1468(31)
	lwz 9,0(3)
	lwz 0,36(9)
	mtctr 0
	bctrl
.LVL730:
	b .L368
.LVL731:
.L382:
.LBE3455:
	.loc 2 869 0
	lis 9,gameRenderWorld@ha
	lwz 3,gameRenderWorld@l(9)
	lwz 9,0(3)
	lwz 0,40(9)
	mtctr 0
	bctrl
	.loc 2 870 0
	li 0,-1
	stw 0,1468(31)
.LBE3477:
.LBE3499:
.LBE3502:
	.loc 2 886 0
	lwz 0,36(1)
	lwz 30,16(1)
	mtlr 0
	lwz 31,20(1)
.LVL732:
	lfd 31,24(1)
	addi 1,1,32
	.cfi_remember_state
	.cfi_restore 30
	.cfi_restore 31
	.cfi_restore 63
.LCFI134:
	.cfi_def_cfa_offset 0
	blr
.LVL733:
.L383:
.LCFI135:
	.cfi_restore_state
.LBB3503:
.LBB3500:
.LBB3478:
.LBB3476:
	.loc 2 858 0
	fmr 31,0
.LVL734:
	b .L370
.LBE3476:
.LBE3478:
.LBE3500:
.LBE3503:
	.cfi_endproc
.LFE2878:
	.size	_ZN17idExplodingBarrel5ThinkEv, .-_ZN17idExplodingBarrel5ThinkEv
	.align 2
	.globl _ZN8idBarrel5ThinkEv
	.type	_ZN8idBarrel5ThinkEv, @function
_ZN8idBarrel5ThinkEv:
.LFB2852:
	.loc 2 678 0
	.cfi_startproc
.LVL735:
	mflr 0
	stwu 1,-16(1)
.LCFI136:
	.cfi_def_cfa_offset 16
	.cfi_register 65, 0
	stw 31,12(1)
	mr 31,3
	.cfi_offset 31, -4
	stw 0,20(1)
	.loc 2 679 0
	lwz 0,152(3)
	.cfi_offset 65, 4
	andi. 9,0,1
	bne- 0,.L386
.LVL736:
.L385:
	.loc 2 686 0
	lwz 0,20(1)
	.loc 2 685 0
	mr 3,31
	.loc 2 686 0
	lwz 31,12(1)
.LVL737:
	mtlr 0
	addi 1,1,16
	.cfi_remember_state
.LCFI137:
	.cfi_def_cfa_offset 0
	.cfi_restore 31
	.loc 2 685 0
	b _ZN8idBarrel11BarrelThinkEv
.LVL738:
.L386:
.LCFI138:
	.cfi_restore_state
	.loc 2 680 0
	bl _ZN10idMoveable23FollowInitialSplinePathEv
.LVL739:
	cmpwi 7,3,0
	bne+ 7,.L385
	.loc 2 681 0
	mr 3,31
	li 4,1
	bl _ZN8idEntity14BecomeInactiveEi
	.loc 2 686 0
	lwz 0,20(1)
	.loc 2 685 0
	mr 3,31
	.loc 2 686 0
	lwz 31,12(1)
.LVL740:
	mtlr 0
	addi 1,1,16
	.cfi_restore 31
.LCFI139:
	.cfi_def_cfa_offset 0
	.loc 2 685 0
	b _ZN8idBarrel11BarrelThinkEv
.LVL741:
	.cfi_endproc
.LFE2852:
	.size	_ZN8idBarrel5ThinkEv, .-_ZN8idBarrel5ThinkEv
	.align 2
	.globl _ZN17idExplodingBarrelC2Ev
	.type	_ZN17idExplodingBarrelC2Ev, @function
_ZN17idExplodingBarrelC2Ev:
.LFB2869:
	.loc 2 752 0
	.cfi_startproc
	.cfi_personality 0,__gxx_personality_v0
	.cfi_lsda 0,.LLSDA2869
.LVL742:
	mflr 0
	stwu 1,-24(1)
.LCFI140:
	.cfi_def_cfa_offset 24
	.cfi_register 65, 0
	stw 31,20(1)
	mr 31,3
	.cfi_offset 31, -4
	stw 0,28(1)
	stw 29,12(1)
	stw 30,16(1)
.LEHB37:
.LBB3504:
	.loc 2 752 0
	.cfi_offset 30, -8
	.cfi_offset 29, -12
	.cfi_offset 65, 4
	bl _ZN8idBarrelC2Ev
.LEHE37:
.LVL743:
	lis 9,_ZTV17idExplodingBarrel+8@ha
	.loc 2 754 0
	lis 3,.LC87@ha
	.loc 2 752 0
	la 0,_ZTV17idExplodingBarrel+8@l(9)
	.loc 2 754 0
	la 3,.LC87@l(3)
	.loc 2 752 0
	stw 0,0(31)
	.loc 2 754 0
	li 4,1908
.LEHB38:
	crxor 6,6,6
	bl _Z15Sys_DebugPrintfPKcz
.LEHE38:
.LVL744:
.LBB3505:
.LBB3506:
	.loc 3 416 0
	li 30,0
.LBE3506:
.LBE3505:
.LBB3510:
.LBB3511:
	.loc 4 588 0
	li 4,0
.LBE3511:
.LBE3510:
.LBB3515:
.LBB3507:
	.loc 3 416 0
	stw 30,1424(31)
.LBE3507:
.LBE3515:
.LBB3516:
.LBB3512:
	.loc 4 588 0
	li 5,36
.LBE3512:
.LBE3516:
.LBB3517:
.LBB3508:
	.loc 3 416 0
	stw 30,1420(31)
.LBE3508:
.LBE3517:
.LBB3518:
.LBB3513:
	.loc 4 588 0
	addi 3,31,1428
.LBE3513:
.LBE3518:
.LBB3519:
.LBB3509:
	.loc 3 416 0
	stw 30,1416(31)
.LVL745:
.LBE3509:
.LBE3519:
	.loc 2 759 0
	li 29,0
.LBB3520:
.LBB3514:
	.loc 4 588 0
	bl memset
.LVL746:
.LBE3514:
.LBE3520:
	.loc 2 760 0
	li 0,-1
	stw 0,1464(31)
	.loc 2 762 0
	li 4,0
	.loc 2 761 0
	stw 0,1468(31)
	.loc 2 762 0
	li 5,216
	.loc 2 759 0
	stw 29,1412(31)
	.loc 2 762 0
	addi 3,31,1472
	bl memset
	.loc 2 763 0
	addi 3,31,1688
	li 4,0
	li 5,208
	bl memset
	.loc 2 764 0
	stw 29,1896(31)
	.loc 2 765 0
	stw 29,1900(31)
	.loc 2 766 0
	stw 30,1904(31)
.LBE3504:
	.loc 2 767 0
	lwz 0,28(1)
	lwz 29,12(1)
	mtlr 0
	lwz 30,16(1)
	lwz 31,20(1)
.LVL747:
	addi 1,1,24
	.cfi_remember_state
.LCFI141:
	.cfi_def_cfa_offset 0
	.cfi_restore 31
	.cfi_restore 30
	.cfi_restore 29
	blr
.LVL748:
.L389:
.LCFI142:
	.cfi_restore_state
	mr 30,3
.LBB3521:
	.loc 2 752 0
	mr 3,31
	bl _ZN8idBarrelD2Ev
	mr 3,30
.LEHB39:
	bl _Unwind_Resume
.LEHE39:
.LBE3521:
	.cfi_endproc
.LFE2869:
	.section	.gcc_except_table
.LLSDA2869:
	.byte	0xff
	.byte	0xff
	.byte	0x1
	.uleb128 .LLSDACSE2869-.LLSDACSB2869
.LLSDACSB2869:
	.uleb128 .LEHB37-.LFB2869
	.uleb128 .LEHE37-.LEHB37
	.uleb128 0
	.uleb128 0
	.uleb128 .LEHB38-.LFB2869
	.uleb128 .LEHE38-.LEHB38
	.uleb128 .L389-.LFB2869
	.uleb128 0
	.uleb128 .LEHB39-.LFB2869
	.uleb128 .LEHE39-.LEHB39
	.uleb128 0
	.uleb128 0
.LLSDACSE2869:
	.section	".text"
	.size	_ZN17idExplodingBarrelC2Ev, .-_ZN17idExplodingBarrelC2Ev
	.align 2
	.globl _ZN17idExplodingBarrel14CreateInstanceEv
	.type	_ZN17idExplodingBarrel14CreateInstanceEv, @function
_ZN17idExplodingBarrel14CreateInstanceEv:
.LFB2856:
	.loc 2 740 0
	.cfi_startproc
	.cfi_personality 0,__gxx_personality_v0
	.cfi_lsda 0,.LLSDA2856
	mflr 0
	stwu 1,-24(1)
.LCFI143:
	.cfi_def_cfa_offset 24
	.cfi_register 65, 0
.LBB3522:
	li 3,1908
.LBE3522:
	stw 30,16(1)
	stw 0,28(1)
	stw 31,20(1)
.LEHB40:
.LBB3523:
	.loc 2 740 0
	.cfi_offset 31, -4
	.cfi_offset 65, 4
	.cfi_offset 30, -8
	bl _ZN7idClassnwEj
.LEHE40:
	mr 31,3
.LEHB41:
	bl _ZN17idExplodingBarrelC1Ev
.LEHE41:
.LVL749:
	.loc 2 740 0 is_stmt 0 discriminator 2
	mr 3,31
.LEHB42:
	bl _ZN7idClass23FindUninitializedMemoryEv
.LEHE42:
.LVL750:
.L395:
.LBE3523:
	.loc 2 740 0
	lwz 0,28(1)
	mr 3,31
	lwz 30,16(1)
	mtlr 0
	lwz 31,20(1)
	addi 1,1,24
	.cfi_remember_state
.LCFI144:
	.cfi_def_cfa_offset 0
	.cfi_restore 31
	.cfi_restore 30
	blr
.L396:
.L392:
.LCFI145:
	.cfi_restore_state
.LBB3524:
	cmpwi 7,4,1
	beq- 7,.L394
.LEHB43:
	bl _Unwind_Resume
.LEHE43:
.L397:
	mr 30,3
	mr 3,31
	stw 4,8(1)
	bl _ZN7idClassdlEPv
	mr 3,30
	lwz 4,8(1)
	b .L392
.L394:
.LBE3524:
.LBB3525:
	bl __cxa_begin_catch
	li 31,0
	bl __cxa_end_catch
	b .L395
.LBE3525:
	.cfi_endproc
.LFE2856:
	.section	.gcc_except_table
	.align 2
.LLSDA2856:
	.byte	0xff
	.byte	0
	.uleb128 .LLSDATT2856-.LLSDATTD2856
.LLSDATTD2856:
	.byte	0x1
	.uleb128 .LLSDACSE2856-.LLSDACSB2856
.LLSDACSB2856:
	.uleb128 .LEHB40-.LFB2856
	.uleb128 .LEHE40-.LEHB40
	.uleb128 .L396-.LFB2856
	.uleb128 0x1
	.uleb128 .LEHB41-.LFB2856
	.uleb128 .LEHE41-.LEHB41
	.uleb128 .L397-.LFB2856
	.uleb128 0x3
	.uleb128 .LEHB42-.LFB2856
	.uleb128 .LEHE42-.LEHB42
	.uleb128 .L396-.LFB2856
	.uleb128 0x1
	.uleb128 .LEHB43-.LFB2856
	.uleb128 .LEHE43-.LEHB43
	.uleb128 0
	.uleb128 0
.LLSDACSE2856:
	.byte	0x1
	.byte	0
	.byte	0
	.byte	0x7d
	.align 2
	.long	_ZTI12idAllocError
.LLSDATT2856:
	.section	".text"
	.size	_ZN17idExplodingBarrel14CreateInstanceEv, .-_ZN17idExplodingBarrel14CreateInstanceEv
	.align 2
	.globl _ZN17idExplodingBarrel12AddParticlesEPKcb
	.type	_ZN17idExplodingBarrel12AddParticlesEPKcb, @function
_ZN17idExplodingBarrel12AddParticlesEPKcb:
.LFB2879:
	.loc 2 893 0 is_stmt 1
	.cfi_startproc
.LVL751:
	stwu 1,-56(1)
.LCFI146:
	.cfi_def_cfa_offset 56
	mfcr 12
	mflr 0
	stw 30,48(1)
.LBB3557:
	.loc 2 894 0
	mr. 30,4
	.cfi_offset 30, -8
	.cfi_register 65, 0
	.cfi_register 70, 12
.LBE3557:
	.loc 2 893 0
	stw 28,40(1)
	mr 28,5
	.cfi_offset 28, -16
	stw 31,52(1)
	mr 31,3
	.cfi_offset 31, -4
	stw 0,60(1)
	stw 27,36(1)
	stw 29,44(1)
	stw 12,32(1)
.LBB3558:
	.loc 2 894 0
	beq- 0,.L398
	.cfi_offset 70, -24
	.cfi_offset 29, -12
	.cfi_offset 27, -20
	.cfi_offset 65, 4
	.loc 2 894 0 is_stmt 0 discriminator 1
	lbz 0,0(30)
	cmpwi 7,0,0
	beq- 7,.L398
.LVL752:
.LBE3558:
.LBB3559:
.LBB3560:
	.loc 2 895 0 is_stmt 1
	lwz 4,1464(3)
.LVL753:
	cmpwi 7,4,0
	blt- 7,.L400
	.loc 2 896 0
	lis 9,gameRenderWorld@ha
	lwz 3,gameRenderWorld@l(9)
.LVL754:
	lwz 9,0(3)
	lwz 0,24(9)
	mtctr 0
	bctrl
.LVL755:
.L400:
	.loc 2 898 0
	addi 29,31,1472
	li 4,0
	li 5,216
	mr 3,29
	bl memset
	.loc 2 899 0
	lis 9,declManager@ha
	lwz 3,declManager@l(9)
	li 4,5
	mr 5,30
	li 6,1
	lwz 9,0(3)
	li 7,0
	lwz 0,60(9)
	mtctr 0
	bctrl
.LVL756:
.LBB3561:
	.loc 2 900 0
	mr. 27,3
	beq- 0,.L398
.LBB3562:
	.loc 2 901 0
	addi 3,31,636
.LVL757:
	li 4,-1
	bl _ZNK19idPhysics_RigidBody12GetAbsBoundsEi
.LVL758:
.LBB3563:
.LBB3564:
	.loc 14 212 0
	lis 9,.LC1@ha
	lfs 0,0(3)
	lis 8,mat3_identity@ha
	lfs 9,16(3)
.LBE3564:
.LBE3563:
.LBB3567:
.LBB3568:
	.loc 4 333 0
	addi 7,31,1544
.LBE3568:
.LBE3567:
.LBB3577:
.LBB3565:
	.loc 14 212 0
	lfs 12,4(3)
.LBE3565:
.LBE3577:
.LBB3578:
.LBB3575:
	.loc 4 333 0
	li 10,0
.LBE3575:
.LBE3578:
.LBB3579:
.LBB3566:
	.loc 14 212 0
	lfs 10,20(3)
	la 8,mat3_identity@l(8)
	lfs 13,8(3)
	fadds 12,9,12
	lfs 11,12(3)
	fadds 13,10,13
	fadds 11,11,0
	lfs 0,.LC1@l(9)
	fmuls 12,12,0
.LVL759:
	fmuls 13,13,0
.LVL760:
	fmuls 0,11,0
.LBE3566:
.LBE3579:
.LBB3580:
.LBB3581:
	.loc 3 425 0
	stfs 12,1536(31)
	.loc 3 426 0
	stfs 13,1540(31)
.LVL761:
	.loc 3 424 0
	stfs 0,1532(31)
.L401:
.LBE3581:
.LBE3580:
.LBB3582:
.LBB3576:
.LBB3569:
.LBB3570:
	mr 11,8
	mr 9,7
	lwzux 0,11,10
.LBE3570:
.LBE3569:
	.loc 4 333 0
	cmpwi 7,10,24
.LBB3573:
.LBB3571:
	.loc 3 424 0
	stwux 0,9,10
.LBE3571:
.LBE3573:
	.loc 4 333 0
	addi 10,10,12
.LBB3574:
.LBB3572:
	.loc 3 425 0
	lwz 0,4(11)
	stw 0,4(9)
	.loc 3 426 0
	lwz 0,8(11)
	stw 0,8(9)
.LBE3572:
.LBE3574:
	.loc 4 333 0
	bne+ 7,.L401
.LBE3576:
.LBE3582:
	.loc 2 904 0
	cmpwi 4,28,0
	.loc 2 903 0
	mr 3,27
.LVL762:
	bl _ZNK14idDeclModelDef11ModelHandleEv
.LVL763:
	stw 3,1472(31)
	.loc 2 904 0
	beq- 4,.L402
.LVL764:
	.loc 2 905 0
	li 0,0
	.loc 2 909 0
	lis 9,gameLocal@ha
	.loc 2 905 0
	stw 0,1596(31)
	.loc 2 909 0
	la 9,gameLocal@l(9)
	.loc 2 906 0
	stw 0,1600(31)
	.loc 2 909 0
	addis 28,9,0x25
.LVL765:
	.loc 2 907 0
	stw 0,1604(31)
	.loc 2 909 0
	lis 9,.LC28@ha
	.loc 2 908 0
	stw 0,1608(31)
	.loc 2 909 0
	lfs 0,.LC28@l(9)
	.loc 2 910 0
	lis 9,.LC33@ha
	.loc 2 909 0
	lwz 0,2040(28)
	xoris 0,0,0x8000
	stw 0,12(1)
	lis 0,0x4330
	stw 0,8(1)
	lfd 13,8(1)
	fsub 13,13,0
	.loc 2 910 0
	lfs 0,.LC33@l(9)
	.loc 2 909 0
	lis 9,_ZN6idMath8M_MS2SECE@ha
	lfs 12,_ZN6idMath8M_MS2SECE@l(9)
	frsp 13,13
	fmuls 13,13,12
	fneg 13,13
	stfs 13,1612(31)
.LVL766:
.L405:
	.loc 2 911 0
	cmpwi 7,3,0
	.loc 2 910 0
	stfs 0,1616(31)
	.loc 2 911 0
	beq- 7,.L407
.L403:
	.loc 2 914 0
	lis 9,gameRenderWorld@ha
	mr 4,29
	lwz 3,gameRenderWorld@l(9)
	lwz 9,0(3)
	lwz 0,16(9)
	mtctr 0
	bctrl
	stw 3,1464(31)
	.loc 2 915 0
	bne- 4,.L408
.L404:
	.loc 2 918 0
	lwz 0,2040(28)
	stw 0,1896(31)
.LVL767:
.L398:
.LBE3562:
.LBE3561:
.LBE3560:
.LBE3559:
	.loc 2 921 0
	lwz 0,60(1)
	lwz 12,32(1)
	mtlr 0
	lwz 27,36(1)
	lwz 28,40(1)
	mtcrf 8,12
	lwz 29,44(1)
	lwz 30,48(1)
.LVL768:
	lwz 31,52(1)
.LVL769:
	addi 1,1,56
	.cfi_remember_state
.LCFI147:
	.cfi_def_cfa_offset 0
	.cfi_restore 70
	.cfi_restore 31
	.cfi_restore 30
	.cfi_restore 29
	.cfi_restore 28
	.cfi_restore 27
	blr
.LVL770:
.L402:
.LCFI148:
	.cfi_restore_state
.LBB3608:
.LBB3607:
.LBB3606:
.LBB3605:
	.loc 2 905 0
	lis 9,.LC33@ha
.LBB3583:
.LBB3584:
	.file 18 "d:/Data/Nintendo/DoomGX/src/game/../idlib/../idlib/math/Random.h"
	.loc 18 79 0
	lis 10,0xb60b
.LBE3584:
.LBE3583:
	.loc 2 905 0
	lwz 0,.LC33@l(9)
	.loc 2 909 0
	lis 9,gameLocal@ha
	la 9,gameLocal@l(9)
.LBB3599:
.LBB3593:
	.loc 18 79 0
	ori 10,10,24759
.LBE3593:
.LBE3599:
	.loc 2 905 0
	stw 0,1596(31)
	.loc 2 909 0
	addis 28,9,0x25
.LVL771:
	.loc 2 906 0
	stw 0,1600(31)
.LBB3600:
.LBB3594:
.LBB3585:
.LBB3586:
	.loc 18 71 0
	addis 9,9,0x1
.LBE3586:
.LBE3585:
.LBE3594:
.LBE3600:
	.loc 2 907 0
	stw 0,1604(31)
	.loc 2 908 0
	stw 0,1608(31)
	.loc 2 909 0
	lis 0,0x4330
	lwz 11,2040(28)
	stw 0,16(1)
	xoris 11,11,0x8000
	.loc 2 910 0
	stw 0,24(1)
	.loc 2 909 0
	stw 11,20(1)
	lis 11,.LC28@ha
	lfs 0,.LC28@l(11)
	lis 11,_ZN6idMath8M_MS2SECE@ha
	lfd 13,16(1)
	lfs 12,_ZN6idMath8M_MS2SECE@l(11)
.LBB3601:
.LBB3595:
.LBB3590:
.LBB3587:
	.loc 18 71 0
	lis 11,0x1
.LBE3587:
.LBE3590:
.LBE3595:
.LBE3601:
	.loc 2 909 0
	fsub 13,13,0
.LBB3602:
.LBB3596:
.LBB3591:
.LBB3588:
	.loc 18 71 0
	ori 11,11,3533
.LBE3588:
.LBE3591:
.LBE3596:
.LBE3602:
	.loc 2 909 0
	frsp 13,13
	fmuls 13,13,12
	fneg 13,13
	stfs 13,1612(31)
.LVL772:
.LBB3603:
.LBB3597:
.LBB3592:
.LBB3589:
	.loc 18 71 0
	lwz 0,-32064(9)
	mullw 11,11,0
	addi 11,11,1
	.loc 18 72 0
	rlwinm 0,11,0,17,31
	.loc 18 71 0
	stw 11,-32064(9)
.LBE3589:
.LBE3592:
	.loc 18 79 0
	mulhw 10,0,10
.LBE3597:
.LBE3603:
	.loc 2 910 0
	lwz 3,1472(31)
.LBB3604:
.LBB3598:
	.loc 18 79 0
	add 9,10,0
	srawi 9,9,6
	mulli 9,9,90
	subf 0,9,0
.LBE3598:
.LBE3604:
	.loc 2 910 0
	xoris 0,0,0x8000
	stw 0,28(1)
	lfd 13,24(1)
	fsub 0,13,0
	frsp 0,0
	b .L405
.LVL773:
.L408:
	.loc 2 916 0
	mr 3,31
	li 4,1
	bl _ZN8idEntity12BecomeActiveEi
	b .L404
.L407:
	.loc 2 912 0
	lis 9,renderModelManager@ha
	mr 4,30
	lwz 3,renderModelManager@l(9)
	lwz 9,0(3)
	lwz 0,32(9)
	mtctr 0
	bctrl
	stw 3,1472(31)
	b .L403
.LBE3605:
.LBE3606:
.LBE3607:
.LBE3608:
	.cfi_endproc
.LFE2879:
	.size	_ZN17idExplodingBarrel12AddParticlesEPKcb, .-_ZN17idExplodingBarrel12AddParticlesEPKcb
	.align 2
	.globl _ZN17idExplodingBarrel8AddLightEPKcb
	.type	_ZN17idExplodingBarrel8AddLightEPKcb, @function
_ZN17idExplodingBarrel8AddLightEPKcb:
.LFB2880:
	.loc 2 928 0
	.cfi_startproc
.LVL774:
	mflr 0
	stwu 1,-24(1)
.LCFI149:
	.cfi_def_cfa_offset 24
	.cfi_register 65, 0
	stw 28,8(1)
	mr 28,4
	.cfi_offset 28, -16
	stw 29,12(1)
	lis 29,gameRenderWorld@ha
	.cfi_offset 29, -12
	stw 31,20(1)
	mr 31,3
	.cfi_offset 31, -4
	stw 0,28(1)
	stw 30,16(1)
	.loc 2 929 0
	lwz 0,1468(3)
	.cfi_offset 30, -8
	.cfi_offset 65, 4
	cmpwi 7,0,0
	blt- 7,.L410
	.loc 2 930 0
	lwz 3,gameRenderWorld@l(29)
.LVL775:
	mr 4,0
.LVL776:
	lwz 9,0(3)
	lwz 0,40(9)
	mtctr 0
	bctrl
.LVL777:
.L410:
	.loc 2 932 0
	addi 30,31,1688
	li 4,0
	mr 3,30
	li 5,208
	bl memset
.LVL778:
	lis 8,mat3_identity@ha
.LBB3621:
.LBB3622:
	.loc 4 333 0
	li 10,0
	la 8,mat3_identity@l(8)
.L411:
.LBB3623:
.LBB3624:
	.loc 3 424 0
	mr 11,8
	mr 9,30
	lwzux 0,11,10
.LBE3624:
.LBE3623:
	.loc 4 333 0
	cmpwi 7,10,24
.LBB3627:
.LBB3625:
	.loc 3 424 0
	stwux 0,9,10
.LBE3625:
.LBE3627:
	.loc 4 333 0
	addi 10,10,12
.LBB3628:
.LBB3626:
	.loc 3 425 0
	lwz 0,4(11)
	stw 0,4(9)
	.loc 3 426 0
	lwz 0,8(11)
	stw 0,8(9)
.LBE3626:
.LBE3628:
	.loc 4 333 0
	bne+ 7,.L411
.LVL779:
.LBE3622:
.LBE3621:
.LBB3629:
.LBB3630:
.LBB3631:
.LBB3632:
	.loc 11 241 0
	lis 4,.LC88@ha
	addi 3,31,100
	la 4,.LC88@l(4)
	bl _ZNK6idDict7FindKeyEPKc
.LVL780:
	.loc 11 242 0
	cmpwi 0,3,0
	beq- 0,.L413
.LVL781:
.LBB3633:
	.loc 2 1205 0
	lwz 9,4(3)
	lwz 3,4(9)
.LVL782:
.L412:
.LBE3633:
.LBE3632:
.LBE3631:
	.loc 11 249 0
	bl atof
.LBE3630:
.LBE3629:
	.loc 2 936 0
	li 4,0
.LBB3638:
.LBB3636:
	.loc 11 249 0
	frsp 1,1
.LBE3636:
.LBE3638:
	.loc 2 936 0
	addi 3,31,636
	.loc 2 934 0
	stfs 1,1748(31)
	.loc 2 935 0
	stfs 1,1756(31)
	stfs 1,1752(31)
	.loc 2 936 0
	bl _ZNK19idPhysics_RigidBody9GetOriginEi
.LVL783:
	.loc 2 939 0
	lis 9,declManager@ha
.LBB3639:
.LBB3640:
	.loc 3 424 0
	lwz 0,0(3)
.LBE3640:
.LBE3639:
	.loc 2 939 0
	mr 4,28
	li 5,1
	li 6,0
.LBB3643:
.LBB3641:
	.loc 3 424 0
	stw 0,1724(31)
	.loc 3 425 0
	lwz 0,4(3)
	stw 0,1728(31)
.LBE3641:
.LBE3643:
	.loc 2 938 0
	li 0,1
.LBB3644:
.LBB3642:
	.loc 3 426 0
	lfs 13,8(3)
.LBE3642:
.LBE3644:
	.loc 2 939 0
	lwz 3,declManager@l(9)
.LVL784:
	.loc 2 937 0
	lis 9,.LC89@ha
	lfs 0,.LC89@l(9)
	.loc 2 938 0
	stb 0,1746(31)
	.loc 2 937 0
	fadds 0,13,0
	stfs 0,1732(31)
	.loc 2 939 0
	lwz 9,0(3)
	lwz 0,104(9)
	mtctr 0
	bctrl
	.loc 2 940 0
	lis 9,.LC90@ha
	lwz 0,.LC90@l(9)
	.loc 2 944 0
	mr 4,30
	.loc 2 939 0
	stw 3,1840(31)
	.loc 2 940 0
	stw 0,1844(31)
	.loc 2 941 0
	stw 0,1848(31)
	.loc 2 942 0
	stw 0,1852(31)
	.loc 2 943 0
	stw 0,1856(31)
	.loc 2 944 0
	lwz 3,gameRenderWorld@l(29)
	lwz 9,0(3)
	lwz 0,32(9)
	mtctr 0
	bctrl
	.loc 2 945 0
	lis 9,gameLocal+2426872@ha
	.loc 2 944 0
	stw 3,1468(31)
	.loc 2 946 0
	li 4,1
	mr 3,31
	.loc 2 945 0
	lwz 0,gameLocal+2426872@l(9)
	stw 0,1900(31)
	.loc 2 946 0
	bl _ZN8idEntity12BecomeActiveEi
	.loc 2 947 0
	lwz 0,28(1)
	lwz 28,8(1)
.LVL785:
	mtlr 0
	lwz 29,12(1)
	lwz 30,16(1)
.LVL786:
	lwz 31,20(1)
.LVL787:
	addi 1,1,24
	.cfi_remember_state
.LCFI150:
	.cfi_def_cfa_offset 0
	.cfi_restore 31
	.cfi_restore 30
	.cfi_restore 29
	.cfi_restore 28
	blr
.LVL788:
.L413:
.LCFI151:
	.cfi_restore_state
.LBB3645:
.LBB3637:
.LBB3635:
.LBB3634:
	.loc 11 245 0
	lis 3,.LC19@ha
.LVL789:
	la 3,.LC19@l(3)
	b .L412
.LBE3634:
.LBE3635:
.LBE3637:
.LBE3645:
	.cfi_endproc
.LFE2880:
	.size	_ZN17idExplodingBarrel8AddLightEPKcb, .-_ZN17idExplodingBarrel8AddLightEPKcb
	.align 2
	.globl _ZN17idExplodingBarrel16ExplodingEffectsEv
	.type	_ZN17idExplodingBarrel16ExplodingEffectsEv, @function
_ZN17idExplodingBarrel16ExplodingEffectsEv:
.LFB2881:
	.loc 2 954 0
	.cfi_startproc
.LVL790:
	stwu 1,-24(1)
.LCFI152:
	.cfi_def_cfa_offset 24
	mflr 0
.LBB3663:
	.loc 2 957 0
	lis 4,.LC91@ha
	li 5,0
.LBE3663:
	.loc 2 954 0
	stw 31,20(1)
.LBB3684:
	.loc 2 957 0
	la 4,.LC91@l(4)
.LBE3684:
	.loc 2 954 0
	mr 31,3
	.cfi_offset 31, -4
	.cfi_register 65, 0
.LBB3685:
	.loc 2 957 0
	li 6,0
	li 7,0
	li 8,0
.LBE3685:
	.loc 2 954 0
	stw 0,28(1)
	stw 30,16(1)
.LBB3686:
	.loc 2 959 0
	addi 30,31,100
	.cfi_offset 30, -8
	.cfi_offset 65, 4
.LBE3686:
	.loc 2 954 0
	stw 29,12(1)
.LBB3687:
	.loc 2 957 0
	.cfi_offset 29, -12
	bl _ZN8idEntity10StartSoundEPKciibPi
.LVL791:
.LBB3664:
.LBB3665:
	.loc 11 241 0
	lis 4,.LC92@ha
	mr 3,30
	la 4,.LC92@l(4)
	bl _ZNK6idDict7FindKeyEPKc
.LVL792:
	.loc 11 242 0
	cmpwi 0,3,0
	beq- 0,.L425
.LVL793:
.LBB3666:
	.loc 2 1205 0
	lwz 9,4(3)
	lwz 4,4(9)
.LVL794:
.L417:
.LBE3666:
.LBE3665:
.LBE3664:
	.loc 2 960 0
	lbz 0,0(4)
	cmpwi 7,0,0
	bne- 7,.L429
.LVL795:
.LBB3668:
.LBB3669:
	.loc 11 241 0
	lis 4,.LC93@ha
	mr 3,30
.LVL796:
	la 4,.LC93@l(4)
	bl _ZNK6idDict7FindKeyEPKc
.LVL797:
	.loc 11 242 0
	cmpwi 0,3,0
	beq- 0,.L426
.L434:
.LVL798:
.LBB3670:
	.loc 2 1205 0
	lwz 9,4(3)
	lwz 4,4(9)
.LVL799:
.L419:
.LBE3670:
.LBE3669:
.LBE3668:
	.loc 2 966 0
	lbz 0,0(4)
	cmpwi 7,0,0
	bne- 7,.L430
.LVL800:
.LBB3672:
.LBB3673:
	.loc 11 241 0
	lis 4,.LC94@ha
	mr 3,30
.LVL801:
	la 4,.LC94@l(4)
	bl _ZNK6idDict7FindKeyEPKc
.LVL802:
	.loc 11 242 0
	cmpwi 0,3,0
	beq- 0,.L427
.L433:
.LVL803:
.LBB3674:
	.loc 2 1205 0
	lwz 9,4(3)
	lwz 4,4(9)
.LVL804:
.L421:
.LBE3674:
.LBE3673:
.LBE3672:
	.loc 2 971 0
	lbz 0,0(4)
	cmpwi 7,0,0
	bne- 7,.L431
.LVL805:
.LBB3676:
.LBB3677:
	.loc 11 241 0
	lis 4,.LC95@ha
	mr 3,30
.LVL806:
	la 4,.LC95@l(4)
	bl _ZNK6idDict7FindKeyEPKc
.LVL807:
	.loc 11 242 0
	cmpwi 0,3,0
	beq- 0,.L428
.L432:
.LVL808:
.LBB3678:
	.loc 2 1205 0
	lwz 9,4(3)
	lwz 30,4(9)
.LVL809:
.L423:
.LBE3678:
.LBE3677:
.LBE3676:
	.loc 2 976 0
	lbz 0,0(30)
	cmpwi 7,0,0
	beq+ 7,.L416
	.loc 2 977 0
	mr 3,31
.LVL810:
	bl _ZNK8idEntity10GetPhysicsEv
	li 4,0
	lwz 9,0(3)
	lwz 0,132(9)
	mtctr 0
	bctrl
	mr 29,3
	mr 3,31
	bl _ZNK8idEntity10GetPhysicsEv
	lwz 9,0(3)
	lwz 0,160(9)
	mtctr 0
	bctrl
	lis 9,.LC89@ha
	lfs 1,.LC89@l(9)
	lis 9,.LC96@ha
	lfs 2,.LC96@l(9)
	lis 9,.LC0@ha
	mr 5,3
	lfs 3,.LC0@l(9)
	lis 3,gameLocal@ha
	mr 4,29
	la 3,gameLocal@l(3)
	li 6,1
	mr 7,30
	bl _ZN11idGameLocal12ProjectDecalERK6idVec3S2_fbfPKcf
.L416:
.LBE3687:
	.loc 2 979 0
	lwz 0,28(1)
	lwz 29,12(1)
	mtlr 0
	lwz 30,16(1)
	lwz 31,20(1)
.LVL811:
	addi 1,1,24
	.cfi_remember_state
.LCFI153:
	.cfi_def_cfa_offset 0
	.cfi_restore 31
	.cfi_restore 30
	.cfi_restore 29
	blr
.LVL812:
.L431:
.LCFI154:
	.cfi_restore_state
.LBB3688:
	.loc 2 972 0
	mr 3,31
.LVL813:
	li 5,0
	bl _ZN17idExplodingBarrel8AddLightEPKcb
.LVL814:
.LBB3680:
.LBB3679:
	.loc 11 241 0
	lis 4,.LC95@ha
	mr 3,30
	la 4,.LC95@l(4)
	bl _ZNK6idDict7FindKeyEPKc
.LVL815:
	.loc 11 242 0
	cmpwi 0,3,0
	bne+ 0,.L432
.L428:
	.loc 11 245 0
	lis 30,.LC4@ha
.LVL816:
	la 30,.LC4@l(30)
	b .L423
.LVL817:
.L430:
.LBE3679:
.LBE3680:
	.loc 2 967 0
	mr 3,31
.LVL818:
	li 5,0
	bl _ZN17idExplodingBarrel12AddParticlesEPKcb
.LVL819:
.LBB3681:
.LBB3675:
	.loc 11 241 0
	lis 4,.LC94@ha
	mr 3,30
	la 4,.LC94@l(4)
	bl _ZNK6idDict7FindKeyEPKc
.LVL820:
	.loc 11 242 0
	cmpwi 0,3,0
	bne+ 0,.L433
.L427:
	.loc 11 245 0
	lis 4,.LC4@ha
	la 4,.LC4@l(4)
	b .L421
.LVL821:
.L429:
.LBE3675:
.LBE3681:
	.loc 2 961 0
	lwz 9,0(31)
	mr 3,31
.LVL822:
	lwz 0,44(9)
	mtctr 0
	bctrl
	.loc 2 962 0
	lwz 9,0(31)
	mr 3,31
	lwz 0,80(9)
	mtctr 0
	bctrl
.LVL823:
.LBB3682:
.LBB3671:
	.loc 11 241 0
	lis 4,.LC93@ha
	mr 3,30
	la 4,.LC93@l(4)
	bl _ZNK6idDict7FindKeyEPKc
.LVL824:
	.loc 11 242 0
	cmpwi 0,3,0
	bne+ 0,.L434
.L426:
	.loc 11 245 0
	lis 4,.LC4@ha
	la 4,.LC4@l(4)
	b .L419
.LVL825:
.L425:
.LBE3671:
.LBE3682:
.LBB3683:
.LBB3667:
	lis 4,.LC4@ha
	la 4,.LC4@l(4)
	b .L417
.LBE3667:
.LBE3683:
.LBE3688:
	.cfi_endproc
.LFE2881:
	.size	_ZN17idExplodingBarrel16ExplodingEffectsEv, .-_ZN17idExplodingBarrel16ExplodingEffectsEv
	.align 2
	.globl _ZN17idExplodingBarrel18ClientReceiveEventEiiRK8idBitMsg
	.type	_ZN17idExplodingBarrel18ClientReceiveEventEiiRK8idBitMsg, @function
_ZN17idExplodingBarrel18ClientReceiveEventEiiRK8idBitMsg:
.LFB2890:
	.loc 2 1191 0
	.cfi_startproc
.LVL826:
	.loc 2 1193 0
	cmpwi 7,4,2
	.loc 2 1191 0
	mflr 0
	stwu 1,-16(1)
.LCFI155:
	.cfi_def_cfa_offset 16
	.cfi_register 65, 0
	stw 31,12(1)
	mr 31,3
	.cfi_offset 31, -4
	stw 0,20(1)
	stw 30,8(1)
	.loc 2 1193 0
	beq- 7,.L443
	.cfi_offset 30, -8
	.cfi_offset 65, 4
	.loc 2 1201 0
	bl _ZN8idEntity18ClientReceiveEventEiiRK8idBitMsg
.LVL827:
	mr 30,3
.L439:
	.loc 2 1205 0
	lwz 0,20(1)
	mr 3,30
	lwz 31,12(1)
.LVL828:
	mtlr 0
	lwz 30,8(1)
	addi 1,1,16
	.cfi_remember_state
.LCFI156:
	.cfi_def_cfa_offset 0
	.cfi_restore 31
	.cfi_restore 30
	blr
.LVL829:
.L443:
.LCFI157:
	.cfi_restore_state
.LBB3699:
.LBB3700:
	.loc 2 1195 0
	lis 9,gameLocal+2426872@ha
.LBB3701:
.LBB3702:
	.file 19 "d:/Data/Nintendo/DoomGX/src/game/../idlib/../idlib/BitMsg.h"
	.loc 19 376 0
	li 4,32
.LVL830:
.LBE3702:
.LBE3701:
	.loc 2 1195 0
	lwz 30,gameLocal+2426872@l(9)
.LVL831:
.LBB3704:
.LBB3703:
	.loc 19 376 0
	mr 3,6
.LVL832:
	bl _ZNK8idBitMsg8ReadBitsEi
.LVL833:
.LBE3703:
.LBE3704:
.LBB3705:
.LBB3706:
.LBB3707:
.LBB3708:
	.loc 11 241 0
	lis 4,.LC98@ha
.LBE3708:
.LBE3707:
.LBE3706:
.LBE3705:
	.loc 2 1195 0
	subf 30,3,30
.LVL834:
.LBB3716:
.LBB3714:
.LBB3712:
.LBB3710:
	.loc 11 241 0
	la 4,.LC98@l(4)
	addi 3,31,100
	bl _ZNK6idDict7FindKeyEPKc
.LVL835:
	.loc 11 242 0
	cmpwi 0,3,0
	beq- 0,.L440
.LVL836:
.LBB3709:
	.loc 2 1205 0
	lwz 9,4(3)
	lwz 3,4(9)
.LVL837:
.L438:
.LBE3709:
.LBE3710:
.LBE3712:
	.loc 11 253 0
	bl atoi
.LBE3714:
.LBE3716:
	.loc 2 1195 0
	cmpw 7,30,3
	li 30,1
	bge+ 7,.L439
	.loc 2 1196 0
	mr 3,31
	bl _ZN17idExplodingBarrel16ExplodingEffectsEv
.LBE3700:
.LBE3699:
	.loc 2 1205 0
	lwz 0,20(1)
	mr 3,30
	lwz 31,12(1)
.LVL838:
	mtlr 0
	lwz 30,8(1)
	addi 1,1,16
	.cfi_remember_state
	.cfi_restore 30
	.cfi_restore 31
.LCFI158:
	.cfi_def_cfa_offset 0
	blr
.LVL839:
.L440:
.LCFI159:
	.cfi_restore_state
.LBB3719:
.LBB3718:
.LBB3717:
.LBB3715:
.LBB3713:
.LBB3711:
	.loc 11 245 0
	lis 3,.LC97@ha
.LVL840:
	la 3,.LC97@l(3)
	b .L438
.LBE3711:
.LBE3713:
.LBE3715:
.LBE3717:
.LBE3718:
.LBE3719:
	.cfi_endproc
.LFE2890:
	.size	_ZN17idExplodingBarrel18ClientReceiveEventEiiRK8idBitMsg, .-_ZN17idExplodingBarrel18ClientReceiveEventEiiRK8idBitMsg
	.align 2
	.globl _ZN17idExplodingBarrel6KilledEP8idEntityS1_iRK6idVec3i
	.type	_ZN17idExplodingBarrel6KilledEP8idEntityS1_iRK6idVec3i, @function
_ZN17idExplodingBarrel6KilledEP8idEntityS1_iRK6idVec3i:
.LFB2882:
	.loc 2 986 0
	.cfi_startproc
.LVL841:
	mflr 0
	stwu 1,-328(1)
.LCFI160:
	.cfi_def_cfa_offset 328
	.cfi_register 65, 0
	stw 25,300(1)
	mr 25,5
	.cfi_offset 25, -28
	stw 31,324(1)
	mr 31,3
	.cfi_offset 31, -4
	stw 0,332(1)
	stw 14,256(1)
	stw 15,260(1)
	stw 16,264(1)
	stw 17,268(1)
	stw 18,272(1)
	stw 19,276(1)
	stw 20,280(1)
	stw 21,284(1)
	stw 22,288(1)
	stw 23,292(1)
	stw 24,296(1)
	stw 26,304(1)
	stw 27,308(1)
	stw 28,312(1)
	stw 29,316(1)
	stw 30,320(1)
.LBB3788:
	.loc 2 988 0
	.cfi_offset 30, -8
	.cfi_offset 29, -12
	.cfi_offset 28, -16
	.cfi_offset 27, -20
	.cfi_offset 26, -24
	.cfi_offset 24, -32
	.cfi_offset 23, -36
	.cfi_offset 22, -40
	.cfi_offset 21, -44
	.cfi_offset 20, -48
	.cfi_offset 19, -52
	.cfi_offset 18, -56
	.cfi_offset 17, -60
	.cfi_offset 16, -64
	.cfi_offset 15, -68
	.cfi_offset 14, -72
	.cfi_offset 65, 4
	bl _ZNK8idEntity8IsHiddenEv
.LVL842:
	cmpwi 7,3,0
	bne- 7,.L444
	.loc 2 988 0 is_stmt 0 discriminator 2
	lwz 0,1412(31)
	cmpwi 7,0,3
	beq- 7,.L444
	.loc 2 988 0 discriminator 3
	cmpwi 7,0,1
	beq- 7,.L444
.LVL843:
.LBE3788:
.LBB3789:
.LBB3790:
.LBB3791:
	.loc 2 992 0 is_stmt 1
	addi 29,31,100
.LVL844:
.LBB3792:
.LBB3793:
.LBB3794:
.LBB3795:
	.loc 11 241 0
	lis 4,.LC109@ha
	mr 3,29
	la 4,.LC109@l(4)
	bl _ZNK6idDict7FindKeyEPKc
.LVL845:
	.loc 11 242 0
	cmpwi 0,3,0
	beq- 0,.L475
.LVL846:
.LBB3796:
	.loc 2 1205 0
	lwz 9,4(3)
	lwz 3,4(9)
.LVL847:
.L464:
.LBE3796:
.LBE3795:
.LBE3794:
	.loc 11 249 0
	bl atof
.LBE3793:
.LBE3792:
.LBB3801:
	.loc 2 993 0
	lis 9,.LC0@ha
.LBE3801:
.LBB3825:
.LBB3799:
	.loc 11 249 0
	frsp 1,1
.LBE3799:
.LBE3825:
.LBB3826:
	.loc 2 993 0
	lfs 0,.LC0@l(9)
	fcmpu 7,1,0
	bgt- 7,.L476
.L447:
.LBB3802:
	.loc 2 1000 0
	li 0,3
.LBB3803:
	.loc 2 1001 0
	lis 27,gameLocal@ha
.LBE3803:
	.loc 2 1000 0
	stw 0,1412(31)
.LBB3817:
	.loc 2 1001 0
	la 27,gameLocal@l(27)
	addis 28,27,0x25
	lbz 0,2017(28)
	cmpwi 7,0,0
	bne- 7,.L477
.L450:
.LBE3817:
.LBE3802:
.LBE3826:
	.loc 2 1012 0
	lwz 9,0(31)
	mr 3,31
	.loc 2 1013 0
	addi 30,31,636
	.loc 2 1012 0
	lwz 0,76(9)
	mtctr 0
	bctrl
	.loc 2 1013 0
	mr 3,30
	li 4,0
	li 5,-1
	bl _ZN19idPhysics_RigidBody11SetContentsEii
.LVL848:
.LBB3827:
.LBB3828:
	.loc 11 241 0
	lis 4,.LC102@ha
	mr 3,29
	la 4,.LC102@l(4)
	bl _ZNK6idDict7FindKeyEPKc
.LVL849:
	.loc 11 242 0
	cmpwi 0,3,0
	beq- 0,.L466
.LVL850:
.LBB3829:
	.loc 2 1205 0
	lwz 9,4(3)
	lwz 26,4(9)
.LBE3829:
.LBE3828:
.LBE3827:
	.loc 2 1016 0
	cmpwi 7,26,0
	beq- 7,.L452
.LVL851:
.L451:
	lbz 0,0(26)
	cmpwi 7,0,0
	bne- 7,.L478
.LVL852:
.L452:
	.loc 2 1023 0
	lis 22,.LC103@ha
	.loc 2 1020 0
	mr 3,31
	.loc 2 1023 0
	la 22,.LC103@l(22)
	.loc 2 1020 0
	bl _ZN17idExplodingBarrel16ExplodingEffectsEv
	.loc 2 1023 0
	mr 3,29
	mr 4,22
	li 5,0
	bl _ZNK6idDict11MatchPrefixEPKcPK10idKeyValue
.LVL853:
	.loc 2 1025 0
	mr. 25,3
.LVL854:
	beq- 0,.L453
.LBB3831:
.LBB3832:
.LBB3833:
.LBB3834:
.LBB3835:
.LBB3836:
.LBB3837:
	.loc 9 276 0
	lis 19,_ZN6idMath5iSqrtE@ha
.LBE3837:
.LBE3836:
.LBE3835:
.LBE3834:
	.loc 2 1043 0
	lis 14,.LC106@ha
.LBB3848:
.LBB3849:
.LBB3850:
.LBB3851:
.LBB3852:
.LBB3853:
	.loc 18 71 0
	addis 23,27,0x1
.LBE3853:
.LBE3852:
	.loc 18 83 0
	lis 24,.LC28@ha
.LBE3851:
.LBE3850:
	.loc 18 87 0
	lis 16,.LC104@ha
	lis 17,.LC1@ha
.LBB3884:
.LBB3872:
.LBB3863:
.LBB3854:
	.loc 2 1035 0
	lis 18,.LC105@ha
.LBE3854:
.LBE3863:
.LBE3872:
.LBE3884:
.LBE3849:
.LBE3848:
.LBB3910:
.LBB3844:
.LBB3841:
.LBB3838:
	.loc 9 276 0
	la 19,_ZN6idMath5iSqrtE@l(19)
	.loc 9 278 0
	lis 20,.LC32@ha
.LBE3838:
.LBE3841:
.LBE3844:
.LBE3910:
	.loc 2 1049 0
	lis 21,.LC54@ha
	.loc 2 1043 0
	la 14,.LC106@l(14)
.LBB3911:
	.loc 2 1205 0
	lis 15,_ZN8idDebris4TypeE@ha
	b .L471
.LVL855:
.L455:
.LBE3911:
	.loc 2 1043 0
	mr 3,27
	mr 4,14
	crxor 6,6,6
	bl _ZNK11idGameLocal5ErrorEPKcz
.L456:
	.loc 2 1047 0
	li 4,0
	mr 3,30
	.loc 2 1046 0
	lwz 26,8(1)
.LVL856:
	.loc 2 1047 0
	bl _ZNK19idPhysics_RigidBody9GetOriginEi
.LVL857:
	mr 5,3
	addi 4,1,12
.LVL858:
	addi 3,1,44
	stw 5,244(1)
	bl _ZNK6idVec36ToMat3Ev
.LVL859:
	lwz 5,244(1)
	mr 4,31
	addi 6,1,44
	mr 3,26
	bl _ZN8idDebris6CreateEP8idEntityRK6idVec3RK6idMat3
	.loc 2 1048 0
	mr 3,26
	bl _ZN8idDebris6LaunchEv
	.loc 2 1049 0
	lwz 9,0(26)
	mr 3,26
	lwz 0,36(9)
	mtctr 0
	bctrl
	lwz 9,2004(28)
	lfs 0,.LC28@l(24)
	addi 0,9,1500
	lfs 13,.LC54@l(21)
	xoris 0,0,0x8000
	stw 0,236(1)
	lis 0,0x4330
	stw 0,232(1)
	lfd 12,232(1)
	fsub 0,12,0
	frsp 0,0
	fmuls 0,0,13
	stfs 0,152(3)
	.loc 2 1050 0
	mr 3,26
	bl _ZN8idEntity13UpdateVisualsEv
.LVL860:
.L454:
.LBE3833:
.LBE3832:
	.loc 2 1053 0
	mr 5,25
	mr 3,29
	mr 4,22
	bl _ZNK6idDict11MatchPrefixEPKcPK10idKeyValue
.LVL861:
.LBE3831:
	.loc 2 1025 0
	mr. 25,3
	beq- 0,.L453
.LVL862:
.L471:
.LBB3989:
.LBB3987:
	.loc 2 1205 0
	lwz 9,4(25)
.LBE3987:
	.loc 2 1026 0
	mr 3,27
.LVL863:
	li 5,0
	lwz 4,4(9)
	bl _ZNK11idGameLocal17FindEntityDefDictEPKcb
.LVL864:
.LBB3988:
	.loc 2 1027 0
	mr. 26,3
	beq- 0,.L454
.LBB3986:
	.loc 2 1032 0
	li 4,0
	mr 3,30
.LVL865:
	bl _ZNK19idPhysics_RigidBody7GetAxisEi
.LVL866:
.LBB3916:
.LBB3896:
.LBB3885:
.LBB3873:
.LBB3864:
.LBB3855:
	.loc 18 71 0
	lwz 11,-32064(23)
	lis 0,0x1
.LBE3855:
.LBE3864:
	.loc 18 83 0
	lis 9,0x4330
.LBB3865:
.LBB3856:
	.loc 18 71 0
	ori 0,0,3533
.LBE3856:
.LBE3865:
.LBE3873:
.LBE3885:
.LBE3896:
.LBE3916:
.LBB3917:
.LBB3918:
	.loc 3 426 0
	lfs 13,20(3)
.LVL867:
.LBE3918:
.LBE3917:
.LBB3920:
.LBB3897:
.LBB3886:
.LBB3874:
.LBB3866:
.LBB3857:
	.loc 18 71 0
	mullw 11,0,11
.LBE3857:
.LBE3866:
.LBE3874:
.LBE3886:
.LBE3897:
.LBE3920:
.LBB3921:
.LBB3919:
	.loc 3 425 0
	lfs 5,16(3)
.LBE3919:
.LBE3921:
.LBB3922:
.LBB3898:
.LBB3887:
.LBB3875:
	.loc 18 83 0
	stw 9,216(1)
.LBE3875:
.LBE3887:
.LBE3898:
.LBE3922:
	.loc 2 1041 0
	mr 4,26
.LBB3923:
.LBB3899:
.LBB3888:
.LBB3876:
	.loc 18 83 0
	lfs 0,.LC28@l(24)
.LBE3876:
.LBE3888:
.LBE3899:
.LBE3923:
	.loc 2 1041 0
	addi 5,1,8
.LBB3924:
.LBB3900:
	.loc 18 87 0
	lfs 9,.LC1@l(17)
.LBE3900:
.LBE3924:
	.loc 2 1041 0
	li 6,0
.LBB3925:
.LBB3901:
.LBB3889:
.LBB3877:
.LBB3867:
.LBB3858:
	.loc 18 71 0
	addi 11,11,1
.LBE3858:
.LBE3867:
.LBE3877:
.LBE3889:
	.loc 18 87 0
	lfs 7,.LC104@l(16)
.LBE3901:
.LBE3925:
.LBB3926:
.LBB3927:
.LBB3928:
.LBB3929:
.LBB3930:
.LBB3931:
	.loc 18 71 0
	mullw 10,11,0
.LBE3931:
.LBE3930:
.LBE3929:
.LBE3928:
.LBE3927:
.LBE3926:
.LBB3965:
.LBB3902:
.LBB3890:
.LBB3878:
.LBB3868:
.LBB3859:
	.loc 18 72 0
	rlwinm 11,11,0,17,31
.LBE3859:
.LBE3868:
	.loc 18 83 0
	xoris 11,11,0x8000
	stw 11,220(1)
.LBE3878:
.LBE3890:
.LBE3902:
.LBE3965:
.LBB3966:
.LBB3956:
.LBB3949:
.LBB3942:
.LBB3937:
.LBB3932:
	.loc 18 71 0
	addi 0,10,1
.LBE3932:
.LBE3937:
.LBE3942:
.LBE3949:
.LBE3956:
.LBE3966:
.LBB3967:
.LBB3903:
.LBB3891:
.LBB3879:
.LBB3869:
.LBB3860:
	.loc 2 1035 0
	lfs 6,12(3)
.LBE3860:
.LBE3869:
.LBE3879:
.LBE3891:
.LBE3903:
.LBE3967:
.LBB3968:
.LBB3957:
.LBB3950:
.LBB3943:
.LBB3938:
.LBB3933:
	.loc 18 72 0
	rlwinm 11,0,0,17,31
.LBE3933:
.LBE3938:
	.loc 18 83 0
	stw 9,224(1)
	xoris 11,11,0x8000
.LBE3943:
.LBE3950:
.LBE3957:
.LBE3968:
.LBB3969:
.LBB3904:
.LBB3892:
.LBB3880:
	lfd 10,216(1)
.LBE3880:
.LBE3892:
.LBE3904:
.LBE3969:
.LBB3970:
.LBB3958:
.LBB3951:
.LBB3944:
	stw 11,228(1)
.LBE3944:
.LBE3951:
.LBE3958:
.LBE3970:
	.loc 2 1041 0
	mr 3,27
.LVL868:
.LBB3971:
.LBB3905:
.LBB3893:
.LBB3881:
	.loc 18 83 0
	fsub 10,10,0
.LBE3881:
.LBE3893:
.LBE3905:
.LBE3971:
.LBB3972:
.LBB3959:
.LBB3952:
.LBB3945:
	lfd 8,224(1)
.LBB3939:
.LBB3934:
	.loc 18 71 0
	stw 0,-32064(23)
.LBE3934:
.LBE3939:
	.loc 18 83 0
	fsub 8,8,0
.LBE3945:
.LBE3952:
.LBE3959:
.LBE3972:
.LBB3973:
.LBB3906:
.LBB3894:
.LBB3882:
.LBB3870:
.LBB3861:
	.loc 2 1035 0
	lfs 0,.LC105@l(18)
.LBE3861:
.LBE3870:
	.loc 18 83 0
	frsp 10,10
.LBE3882:
.LBE3894:
.LBE3906:
.LBE3973:
.LBB3974:
.LBB3960:
.LBB3953:
.LBB3946:
	frsp 8,8
.LBE3946:
.LBE3953:
.LBE3960:
.LBE3974:
.LBB3975:
.LBB3907:
	.loc 18 87 0
	fmsubs 10,10,7,9
.LBE3907:
.LBE3975:
.LBB3976:
.LBB3961:
	fmsubs 8,8,7,9
.LBE3961:
.LBE3976:
.LBB3977:
.LBB3908:
	fadds 10,10,10
.LBE3908:
.LBE3977:
.LBB3978:
.LBB3962:
	fadds 12,8,8
.LBE3962:
.LBE3978:
.LBB3979:
.LBB3845:
.LBB3842:
.LBB3839:
	.loc 9 278 0
	lfs 8,.LC32@l(20)
.LBE3839:
.LBE3842:
.LBE3845:
.LBE3979:
.LBB3980:
.LBB3909:
.LBB3895:
.LBB3883:
.LBB3871:
.LBB3862:
	.loc 2 1035 0
	fmadds 11,10,0,6
.LVL869:
.LBE3862:
.LBE3871:
.LBE3883:
.LBE3895:
.LBE3909:
.LBE3980:
.LBB3981:
.LBB3963:
.LBB3954:
.LBB3947:
.LBB3940:
.LBB3935:
	.loc 2 1036 0
	fmadds 12,12,0,5
.LBE3935:
.LBE3940:
.LBE3947:
.LBE3954:
.LBE3963:
.LBE3981:
.LBB3982:
.LBB3846:
	.loc 3 649 0
	fmuls 0,12,12
.LBE3846:
.LBE3982:
.LBB3983:
.LBB3964:
.LBB3955:
.LBB3948:
.LBB3941:
.LBB3936:
	fmadds 0,11,11,0
	fmadds 0,13,13,0
	stfs 0,240(1)
.LVL870:
.LBE3936:
.LBE3941:
.LBE3948:
.LBE3955:
.LBE3964:
.LBE3983:
.LBB3984:
.LBB3847:
.LBB3843:
.LBB3840:
	.loc 9 275 0
	fmuls 7,0,9
	.loc 9 270 0
	lwz 0,240(1)
.LVL871:
	.loc 2 986 0
	fneg 7,7
	.loc 9 276 0
	rlwinm 11,0,9,24,31
	rlwinm 9,0,19,21,29
	lwzx 9,19,9
	subfic 0,11,380
	rlwinm 0,0,22,0,8
	or 0,0,9
	.loc 9 277 0
	stw 0,248(1)
	lfs 0,248(1)
.LVL872:
	fmr 9,0
.LVL873:
	.loc 9 278 0
	fmul 10,9,9
	fmadd 10,7,10,8
	fmul 10,9,10
.LVL874:
	.loc 9 279 0
	fmul 0,10,10
	fmadd 0,7,0,8
.LVL875:
	fmul 0,10,0
.LVL876:
	.loc 9 280 0
	frsp 0,0
.LVL877:
.LBE3840:
.LBE3843:
	.loc 3 651 0
	fmuls 11,11,0
	.loc 3 652 0
	fmuls 12,12,0
	.loc 3 653 0
	fmuls 0,13,0
	.loc 3 651 0
	stfs 11,12(1)
	.loc 3 652 0
	stfs 12,16(1)
	.loc 3 653 0
	stfs 0,20(1)
.LBE3847:
.LBE3984:
	.loc 2 1041 0
	bl _ZN11idGameLocal14SpawnEntityDefERK6idDictPP8idEntityb
	.loc 2 1042 0
	lwz 3,8(1)
	cmpwi 7,3,0
	beq- 7,.L455
.LVL878:
.LBB3985:
.LBB3912:
	.loc 12 340 0
	lwz 9,0(3)
	lwz 0,0(9)
	mtctr 0
	bctrl
.LVL879:
.LBE3912:
	.loc 2 1205 0
	la 9,_ZN8idDebris4TypeE@l(15)
	lwz 0,56(3)
.LBB3915:
.LBB3913:
.LBB3914:
	.loc 12 311 0
	lwz 11,56(9)
	cmpw 7,0,11
	blt- 7,.L455
	lwz 9,60(9)
	cmpw 7,0,9
	ble- 7,.L456
	b .L455
.LVL880:
.L453:
.LBE3914:
.LBE3913:
.LBE3915:
.LBE3985:
.LBE3986:
.LBE3988:
.LBE3989:
	.loc 2 1056 0
	mr 3,30
.LVL881:
	bl _ZN19idPhysics_RigidBody9PutToRestEv
	.loc 2 1057 0
	lis 4,EV_Explode@ha
	mr 3,31
	la 4,EV_Explode@l(4)
	bl _ZN7idClass12CancelEventsEPK10idEventDef
	.loc 2 1058 0
	lis 4,EV_Activate@ha
	mr 3,31
	la 4,EV_Activate@l(4)
	bl _ZN7idClass12CancelEventsEPK10idEventDef
.LVL882:
.LBB3990:
.LBB3991:
.LBB3992:
.LBB3993:
	.loc 11 241 0
	lis 4,.LC107@ha
	mr 3,29
	la 4,.LC107@l(4)
	bl _ZNK6idDict7FindKeyEPKc
.LVL883:
	.loc 11 242 0
	cmpwi 0,3,0
	beq- 0,.L467
.LVL884:
.LBB3994:
	.loc 2 1205 0
	lwz 9,4(3)
	lwz 3,4(9)
.LVL885:
.L458:
.LBE3994:
.LBE3993:
.LBE3992:
	.loc 11 249 0
	bl atof
.LBE3991:
.LBE3990:
	.loc 2 1061 0
	lis 9,.LC0@ha
.LBB3999:
.LBB3997:
	.loc 11 249 0
	frsp 1,1
.LBE3997:
.LBE3999:
	.loc 2 1061 0
	lfs 0,.LC0@l(9)
	.loc 2 1062 0
	mr 3,31
	.loc 2 1061 0
	fcmpu 7,1,0
	bgt- 7,.L479
	.loc 2 1064 0
	lis 4,EV_Remove@ha
	li 5,5000
	la 4,EV_Remove@l(4)
	bl _ZN7idClass11PostEventMSEPK10idEventDefi
.L461:
.LVL886:
.LBB4000:
.LBB4001:
.LBB4002:
.LBB4003:
	.loc 11 241 0
	lis 4,.LC108@ha
	mr 3,29
	la 4,.LC108@l(4)
	bl _ZNK6idDict7FindKeyEPKc
.LVL887:
	.loc 11 242 0
	cmpwi 0,3,0
	beq- 0,.L468
.LVL888:
.LBB4004:
	.loc 2 1205 0
	lwz 9,4(3)
	lwz 3,4(9)
.LVL889:
.L462:
.LBE4004:
.LBE4003:
.LBE4002:
	.loc 11 257 0
	bl atoi
.LBE4001:
.LBE4000:
	.loc 2 1067 0
	cmpwi 7,3,0
	beq+ 7,.L444
	.loc 2 1068 0
	mr 3,31
	mr 4,31
	bl _ZNK8idEntity15ActivateTargetsEPS_
.LVL890:
.L444:
.LBE3791:
.LBE3790:
.LBE3789:
	.loc 2 1070 0
	lwz 0,332(1)
	lwz 14,256(1)
	mtlr 0
	lwz 15,260(1)
	lwz 16,264(1)
	lwz 17,268(1)
	lwz 18,272(1)
	lwz 19,276(1)
	lwz 20,280(1)
	lwz 21,284(1)
	lwz 22,288(1)
	lwz 23,292(1)
	lwz 24,296(1)
	lwz 25,300(1)
	lwz 26,304(1)
	lwz 27,308(1)
	lwz 28,312(1)
	lwz 29,316(1)
	lwz 30,320(1)
	lwz 31,324(1)
.LVL891:
	addi 1,1,328
	.cfi_remember_state
.LCFI161:
	.cfi_def_cfa_offset 0
	.cfi_restore 31
	.cfi_restore 30
	.cfi_restore 29
	.cfi_restore 28
	.cfi_restore 27
	.cfi_restore 26
	.cfi_restore 25
	.cfi_restore 24
	.cfi_restore 23
	.cfi_restore 22
	.cfi_restore 21
	.cfi_restore 20
	.cfi_restore 19
	.cfi_restore 18
	.cfi_restore 17
	.cfi_restore 16
	.cfi_restore 15
	.cfi_restore 14
	blr
.LVL892:
.L476:
.LCFI162:
	.cfi_restore_state
.LBB4017:
.LBB4016:
.LBB4015:
.LBB4008:
	.loc 2 993 0
	lwz 0,1412(31)
	cmpwi 7,0,0
	bne+ 7,.L447
	.loc 2 994 0
	li 0,1
	.loc 2 995 0
	lis 4,EV_Explode@ha
	.loc 2 994 0
	stw 0,1412(31)
	.loc 2 995 0
	la 4,EV_Explode@l(4)
	mr 3,31
	bl _ZN7idClass12PostEventSecEPK10idEventDeff
	.loc 2 996 0
	lis 4,.LC100@ha
	la 4,.LC100@l(4)
	li 5,0
	li 6,0
	li 7,0
	li 8,0
	mr 3,31
	bl _ZN8idEntity10StartSoundEPKciibPi
.LVL893:
.LBB3819:
.LBB3820:
	.loc 11 241 0
	lis 4,.LC101@ha
	mr 3,29
	la 4,.LC101@l(4)
	bl _ZNK6idDict7FindKeyEPKc
.LVL894:
	.loc 11 242 0
	cmpwi 0,3,0
	beq- 0,.L465
.LVL895:
.LBB3821:
	.loc 2 1205 0
	lwz 9,4(3)
	lwz 4,4(9)
.LVL896:
.L449:
.LBE3821:
.LBE3820:
.LBE3819:
	.loc 2 997 0
	mr 3,31
.LVL897:
	li 5,1
	bl _ZN17idExplodingBarrel12AddParticlesEPKcb
	b .L444
.LVL898:
.L479:
.LBE4008:
	.loc 2 1062 0
	lis 4,.LANCHOR0@ha
	la 4,.LANCHOR0@l(4)
	addi 4,4,532
	bl _ZN7idClass12PostEventSecEPK10idEventDeff
	b .L461
.LVL899:
.L477:
.LBB4009:
.LBB3823:
.LBB3818:
.LBB3804:
	.loc 2 1002 0
	addi 3,1,12
	bl _ZN8idBitMsgC1Ev
.LVL900:
.LBB3805:
.LBB3806:
	.loc 19 156 0
	addi 0,1,80
.LBE3806:
.LBE3805:
.LBB3809:
.LBB3810:
	.loc 19 296 0
	lwz 4,2004(28)
	addi 3,1,12
.LVL901:
.LBE3810:
.LBE3809:
.LBB3813:
.LBB3807:
	.loc 19 156 0
	stw 0,12(1)
.LBE3807:
.LBE3813:
.LBB3814:
.LBB3811:
	.loc 19 296 0
	li 5,32
.LBE3811:
.LBE3814:
.LBB3815:
.LBB3808:
	.loc 19 157 0
	stw 0,16(1)
	.loc 19 158 0
	li 0,128
	stw 0,20(1)
.LVL902:
.LBE3808:
.LBE3815:
.LBB3816:
.LBB3812:
	.loc 19 296 0
	bl _ZN8idBitMsg9WriteBitsEii
.LVL903:
.LBE3812:
.LBE3816:
	.loc 2 1007 0
	mr 3,31
	li 4,2
	addi 5,1,12
.LVL904:
	li 6,0
	li 7,-1
	bl _ZNK8idEntity15ServerSendEventEiPK8idBitMsgbi
.LVL905:
	b .L450
.LVL906:
.L478:
.LBE3804:
.LBE3818:
.LBE3823:
.LBE4009:
	.loc 2 1017 0
	mr 3,31
.LVL907:
	bl _ZNK8idEntity10GetPhysicsEv
	li 4,0
	lwz 9,0(3)
	lwz 0,132(9)
	mtctr 0
	bctrl
	lis 9,.LC33@ha
	lfs 1,.LC33@l(9)
	mr 4,3
	mr 5,31
	mr 3,27
	mr 6,25
	mr 7,31
	mr 8,31
	mr 9,26
	bl _ZN11idGameLocal12RadiusDamageERK6idVec3P8idEntityS4_S4_S4_PKcf
	b .L452
.LVL908:
.L466:
.LBB4010:
.LBB3830:
	.loc 11 245 0
	lis 26,.LC99@ha
	la 26,.LC99@l(26)
	b .L451
.LVL909:
.L467:
.LBE3830:
.LBE4010:
.LBB4011:
.LBB3998:
.LBB3996:
.LBB3995:
	lis 3,.LC19@ha
.LVL910:
	la 3,.LC19@l(3)
	b .L458
.LVL911:
.L468:
.LBE3995:
.LBE3996:
.LBE3998:
.LBE4011:
.LBB4012:
.LBB4007:
.LBB4006:
.LBB4005:
	lis 3,.LC19@ha
.LVL912:
	la 3,.LC19@l(3)
	b .L462
.LVL913:
.L475:
.LBE4005:
.LBE4006:
.LBE4007:
.LBE4012:
.LBB4013:
.LBB3800:
.LBB3798:
.LBB3797:
	lis 3,.LC19@ha
.LVL914:
	la 3,.LC19@l(3)
	b .L464
.LVL915:
.L465:
.LBE3797:
.LBE3798:
.LBE3800:
.LBE4013:
.LBB4014:
.LBB3824:
.LBB3822:
	lis 4,.LC4@ha
	la 4,.LC4@l(4)
	b .L449
.LBE3822:
.LBE3824:
.LBE4014:
.LBE4015:
.LBE4016:
.LBE4017:
	.cfi_endproc
.LFE2882:
	.size	_ZN17idExplodingBarrel6KilledEP8idEntityS1_iRK6idVec3i, .-_ZN17idExplodingBarrel6KilledEP8idEntityS1_iRK6idVec3i
	.section	.text.startup,"ax",@progbits
	.align 2
	.type	_GLOBAL__sub_I_EV_BecomeNonSolid, @function
_GLOBAL__sub_I_EV_BecomeNonSolid:
.LFB3198:
	.loc 2 1205 0
	.cfi_startproc
	.loc 2 1205 0
	li 3,1
	b _Z41__static_initialization_and_destruction_0ii.constprop.40
	.cfi_endproc
.LFE3198:
	.size	_GLOBAL__sub_I_EV_BecomeNonSolid, .-_GLOBAL__sub_I_EV_BecomeNonSolid
	.section	.ctors,"aw",@progbits
	.align 2
	.long	_GLOBAL__sub_I_EV_BecomeNonSolid
	.section	.text.exit,"ax",@progbits
	.align 2
	.type	_GLOBAL__sub_D_EV_BecomeNonSolid, @function
_GLOBAL__sub_D_EV_BecomeNonSolid:
.LFB3199:
	.loc 2 1205 0
	.cfi_startproc
	.loc 2 1205 0
	li 3,0
	b _Z41__static_initialization_and_destruction_0ii.constprop.40
	.cfi_endproc
.LFE3199:
	.size	_GLOBAL__sub_D_EV_BecomeNonSolid, .-_GLOBAL__sub_D_EV_BecomeNonSolid
	.section	.dtors,"aw",@progbits
	.align 2
	.long	_GLOBAL__sub_D_EV_BecomeNonSolid
	.weak	_ZTS9idWinding
	.section	.rodata._ZTS9idWinding,"aG",@progbits,_ZTS9idWinding,comdat
	.align 2
	.type	_ZTS9idWinding, @object
	.size	_ZTS9idWinding, 11
_ZTS9idWinding:
	.string	"9idWinding"
	.weak	_ZTI9idWinding
	.section	.sdata._ZTI9idWinding,"awG",@progbits,_ZTI9idWinding,comdat
	.align 2
	.type	_ZTI9idWinding, @object
	.size	_ZTI9idWinding, 8
_ZTI9idWinding:
	.long	_ZTVN10__cxxabiv117__class_type_infoE+8
	.long	_ZTS9idWinding
	.weak	_ZTS14idFixedWinding
	.section	.rodata._ZTS14idFixedWinding,"aG",@progbits,_ZTS14idFixedWinding,comdat
	.align 2
	.type	_ZTS14idFixedWinding, @object
	.size	_ZTS14idFixedWinding, 17
_ZTS14idFixedWinding:
	.string	"14idFixedWinding"
	.weak	_ZTI14idFixedWinding
	.section	.rodata._ZTI14idFixedWinding,"aG",@progbits,_ZTI14idFixedWinding,comdat
	.align 2
	.type	_ZTI14idFixedWinding, @object
	.size	_ZTI14idFixedWinding, 12
_ZTI14idFixedWinding:
	.long	_ZTVN10__cxxabiv120__si_class_type_infoE+8
	.long	_ZTS14idFixedWinding
	.long	_ZTI9idWinding
	.weak	_ZTS10idMoveable
	.section	.rodata._ZTS10idMoveable,"aG",@progbits,_ZTS10idMoveable,comdat
	.align 2
	.type	_ZTS10idMoveable, @object
	.size	_ZTS10idMoveable, 13
_ZTS10idMoveable:
	.string	"10idMoveable"
	.weak	_ZTI10idMoveable
	.section	.rodata._ZTI10idMoveable,"aG",@progbits,_ZTI10idMoveable,comdat
	.align 2
	.type	_ZTI10idMoveable, @object
	.size	_ZTI10idMoveable, 12
_ZTI10idMoveable:
	.long	_ZTVN10__cxxabiv120__si_class_type_infoE+8
	.long	_ZTS10idMoveable
	.long	_ZTI8idEntity
	.weak	_ZTS8idBarrel
	.section	.rodata._ZTS8idBarrel,"aG",@progbits,_ZTS8idBarrel,comdat
	.align 2
	.type	_ZTS8idBarrel, @object
	.size	_ZTS8idBarrel, 10
_ZTS8idBarrel:
	.string	"8idBarrel"
	.weak	_ZTI8idBarrel
	.section	.rodata._ZTI8idBarrel,"aG",@progbits,_ZTI8idBarrel,comdat
	.align 2
	.type	_ZTI8idBarrel, @object
	.size	_ZTI8idBarrel, 12
_ZTI8idBarrel:
	.long	_ZTVN10__cxxabiv120__si_class_type_infoE+8
	.long	_ZTS8idBarrel
	.long	_ZTI10idMoveable
	.weak	_ZTS17idExplodingBarrel
	.section	.rodata._ZTS17idExplodingBarrel,"aG",@progbits,_ZTS17idExplodingBarrel,comdat
	.align 2
	.type	_ZTS17idExplodingBarrel, @object
	.size	_ZTS17idExplodingBarrel, 20
_ZTS17idExplodingBarrel:
	.string	"17idExplodingBarrel"
	.weak	_ZTI17idExplodingBarrel
	.section	.rodata._ZTI17idExplodingBarrel,"aG",@progbits,_ZTI17idExplodingBarrel,comdat
	.align 2
	.type	_ZTI17idExplodingBarrel, @object
	.size	_ZTI17idExplodingBarrel, 12
_ZTI17idExplodingBarrel:
	.long	_ZTVN10__cxxabiv120__si_class_type_infoE+8
	.long	_ZTS17idExplodingBarrel
	.long	_ZTI8idBarrel
	.weak	_ZTV9idWinding
	.section	.rodata._ZTV9idWinding,"aG",@progbits,_ZTV9idWinding,comdat
	.align 3
	.type	_ZTV9idWinding, @object
	.size	_ZTV9idWinding, 24
_ZTV9idWinding:
	.long	0
	.long	_ZTI9idWinding
	.long	_ZN9idWindingD1Ev
	.long	_ZN9idWindingD0Ev
	.long	_ZN9idWinding5ClearEv
	.long	_ZN9idWinding10ReAllocateEib
	.weak	_ZTV14idFixedWinding
	.section	.rodata._ZTV14idFixedWinding,"aG",@progbits,_ZTV14idFixedWinding,comdat
	.align 3
	.type	_ZTV14idFixedWinding, @object
	.size	_ZTV14idFixedWinding, 24
_ZTV14idFixedWinding:
	.long	0
	.long	_ZTI14idFixedWinding
	.long	_ZN14idFixedWindingD1Ev
	.long	_ZN14idFixedWindingD0Ev
	.long	_ZN14idFixedWinding5ClearEv
	.long	_ZN14idFixedWinding10ReAllocateEib
	.weak	_ZTV10idMoveable
	.section	.rodata._ZTV10idMoveable,"aG",@progbits,_ZTV10idMoveable,comdat
	.align 3
	.type	_ZTV10idMoveable, @object
	.size	_ZTV10idMoveable, 236
_ZTV10idMoveable:
	.long	0
	.long	_ZTI10idMoveable
	.long	_ZNK10idMoveable7GetTypeEv
	.long	_ZN10idMoveableD1Ev
	.long	_ZN10idMoveableD0Ev
	.long	_ZN8idEntity25UpdateChangeableSpawnArgsEPK6idDict
	.long	_ZN8idEntity13GetRenderViewEv
	.long	_ZN10idMoveable5ThinkEv
	.long	_ZN8idEntity12DormantBeginEv
	.long	_ZN8idEntity10DormantEndEv
	.long	_ZN8idEntity7PresentEv
	.long	_ZN8idEntity15GetRenderEntityEv
	.long	_ZN8idEntity17GetModelDefHandleEv
	.long	_ZN8idEntity8SetModelEPKc
	.long	_ZN8idEntity8SetColorEfff
	.long	_ZN8idEntity8SetColorERK6idVec3
	.long	_ZNK8idEntity8GetColorER6idVec3
	.long	_ZN8idEntity8SetColorERK6idVec4
	.long	_ZNK8idEntity8GetColorER6idVec4
	.long	_ZN8idEntity12FreeModelDefEv
	.long	_ZN8idEntity12FreeLightDefEv
	.long	_ZN10idMoveable4HideEv
	.long	_ZN10idMoveable4ShowEv
	.long	_ZN8idEntity14ProjectOverlayERK6idVec3S2_fPKc
	.long	_ZN8idEntity26UpdateAnimationControllersEv
	.long	_ZN8idEntity11GetAnimatorEv
	.long	_ZNK8idEntity20CanPlayChatterSoundsEv
	.long	_ZN8idEntity7PreBindEv
	.long	_ZN8idEntity8PostBindEv
	.long	_ZN8idEntity9PreUnbindEv
	.long	_ZN8idEntity10PostUnbindEv
	.long	_ZN8idEntity27GetPhysicsToVisualTransformER6idVec3R6idMat3
	.long	_ZN8idEntity26GetPhysicsToSoundTransformER6idVec3R6idMat3
	.long	_ZN10idMoveable7CollideERK7trace_sRK6idVec3
	.long	_ZN8idEntity13GetImpactInfoEPS_iRK6idVec3P12impactInfo_s
	.long	_ZN8idEntity12ApplyImpulseEPS_iRK6idVec3S3_
	.long	_ZN8idEntity8AddForceEPS_iRK6idVec3S3_
	.long	_ZN8idEntity15ActivatePhysicsEPS_
	.long	_ZNK8idEntity8IsAtRestEv
	.long	_ZNK8idEntity16GetRestStartTimeEv
	.long	_ZN8idEntity16AddContactEntityEPS_
	.long	_ZN8idEntity19RemoveContactEntityEPS_
	.long	_ZNK8idEntity9CanDamageERK6idVec3RS0_
	.long	_ZN8idEntity6DamageEPS_S0_RK6idVec3PKcfi
	.long	_ZN8idEntity15AddDamageEffectERK7trace_sRK6idVec3PKc
	.long	_ZN8idEntity14DamageFeedbackEPS_S0_Ri
	.long	_ZN8idEntity4PainEPS_S0_iRK6idVec3i
	.long	_ZN10idMoveable6KilledEP8idEntityS1_iRK6idVec3i
	.long	_ZNK8idEntity34ShouldConstructScriptObjectAtSpawnEv
	.long	_ZN8idEntity21ConstructScriptObjectEv
	.long	_ZN8idEntity23DeconstructScriptObjectEv
	.long	_ZN8idEntity22HandleSingleGuiCommandEPS_P7idLexer
	.long	_ZN8idEntity8TeleportERK6idVec3RK8idAnglesPS_
	.long	_ZN8idEntity17ShowEditingDialogEv
	.long	_ZN8idEntity21ClientPredictionThinkEv
	.long	_ZNK10idMoveable15WriteToSnapshotER13idBitMsgDelta
	.long	_ZN10idMoveable16ReadFromSnapshotERK13idBitMsgDelta
	.long	_ZN8idEntity18ServerReceiveEventEiiRK8idBitMsg
	.long	_ZN8idEntity18ClientReceiveEventEiiRK8idBitMsg
	.weak	_ZTV8idBarrel
	.section	.rodata._ZTV8idBarrel,"aG",@progbits,_ZTV8idBarrel,comdat
	.align 3
	.type	_ZTV8idBarrel, @object
	.size	_ZTV8idBarrel, 236
_ZTV8idBarrel:
	.long	0
	.long	_ZTI8idBarrel
	.long	_ZNK8idBarrel7GetTypeEv
	.long	_ZN8idBarrelD1Ev
	.long	_ZN8idBarrelD0Ev
	.long	_ZN8idEntity25UpdateChangeableSpawnArgsEPK6idDict
	.long	_ZN8idEntity13GetRenderViewEv
	.long	_ZN8idBarrel5ThinkEv
	.long	_ZN8idEntity12DormantBeginEv
	.long	_ZN8idEntity10DormantEndEv
	.long	_ZN8idEntity7PresentEv
	.long	_ZN8idEntity15GetRenderEntityEv
	.long	_ZN8idEntity17GetModelDefHandleEv
	.long	_ZN8idEntity8SetModelEPKc
	.long	_ZN8idEntity8SetColorEfff
	.long	_ZN8idEntity8SetColorERK6idVec3
	.long	_ZNK8idEntity8GetColorER6idVec3
	.long	_ZN8idEntity8SetColorERK6idVec4
	.long	_ZNK8idEntity8GetColorER6idVec4
	.long	_ZN8idEntity12FreeModelDefEv
	.long	_ZN8idEntity12FreeLightDefEv
	.long	_ZN10idMoveable4HideEv
	.long	_ZN10idMoveable4ShowEv
	.long	_ZN8idEntity14ProjectOverlayERK6idVec3S2_fPKc
	.long	_ZN8idEntity26UpdateAnimationControllersEv
	.long	_ZN8idEntity11GetAnimatorEv
	.long	_ZNK8idEntity20CanPlayChatterSoundsEv
	.long	_ZN8idEntity7PreBindEv
	.long	_ZN8idEntity8PostBindEv
	.long	_ZN8idEntity9PreUnbindEv
	.long	_ZN8idEntity10PostUnbindEv
	.long	_ZN8idBarrel27GetPhysicsToVisualTransformER6idVec3R6idMat3
	.long	_ZN8idEntity26GetPhysicsToSoundTransformER6idVec3R6idMat3
	.long	_ZN10idMoveable7CollideERK7trace_sRK6idVec3
	.long	_ZN8idEntity13GetImpactInfoEPS_iRK6idVec3P12impactInfo_s
	.long	_ZN8idEntity12ApplyImpulseEPS_iRK6idVec3S3_
	.long	_ZN8idEntity8AddForceEPS_iRK6idVec3S3_
	.long	_ZN8idEntity15ActivatePhysicsEPS_
	.long	_ZNK8idEntity8IsAtRestEv
	.long	_ZNK8idEntity16GetRestStartTimeEv
	.long	_ZN8idEntity16AddContactEntityEPS_
	.long	_ZN8idEntity19RemoveContactEntityEPS_
	.long	_ZNK8idEntity9CanDamageERK6idVec3RS0_
	.long	_ZN8idEntity6DamageEPS_S0_RK6idVec3PKcfi
	.long	_ZN8idEntity15AddDamageEffectERK7trace_sRK6idVec3PKc
	.long	_ZN8idEntity14DamageFeedbackEPS_S0_Ri
	.long	_ZN8idEntity4PainEPS_S0_iRK6idVec3i
	.long	_ZN10idMoveable6KilledEP8idEntityS1_iRK6idVec3i
	.long	_ZNK8idEntity34ShouldConstructScriptObjectAtSpawnEv
	.long	_ZN8idEntity21ConstructScriptObjectEv
	.long	_ZN8idEntity23DeconstructScriptObjectEv
	.long	_ZN8idEntity22HandleSingleGuiCommandEPS_P7idLexer
	.long	_ZN8idEntity8TeleportERK6idVec3RK8idAnglesPS_
	.long	_ZN8idEntity17ShowEditingDialogEv
	.long	_ZN8idBarrel21ClientPredictionThinkEv
	.long	_ZNK10idMoveable15WriteToSnapshotER13idBitMsgDelta
	.long	_ZN10idMoveable16ReadFromSnapshotERK13idBitMsgDelta
	.long	_ZN8idEntity18ServerReceiveEventEiiRK8idBitMsg
	.long	_ZN8idEntity18ClientReceiveEventEiiRK8idBitMsg
	.weak	_ZTV17idExplodingBarrel
	.section	.rodata._ZTV17idExplodingBarrel,"aG",@progbits,_ZTV17idExplodingBarrel,comdat
	.align 3
	.type	_ZTV17idExplodingBarrel, @object
	.size	_ZTV17idExplodingBarrel, 236
_ZTV17idExplodingBarrel:
	.long	0
	.long	_ZTI17idExplodingBarrel
	.long	_ZNK17idExplodingBarrel7GetTypeEv
	.long	_ZN17idExplodingBarrelD1Ev
	.long	_ZN17idExplodingBarrelD0Ev
	.long	_ZN8idEntity25UpdateChangeableSpawnArgsEPK6idDict
	.long	_ZN8idEntity13GetRenderViewEv
	.long	_ZN17idExplodingBarrel5ThinkEv
	.long	_ZN8idEntity12DormantBeginEv
	.long	_ZN8idEntity10DormantEndEv
	.long	_ZN8idEntity7PresentEv
	.long	_ZN8idEntity15GetRenderEntityEv
	.long	_ZN8idEntity17GetModelDefHandleEv
	.long	_ZN8idEntity8SetModelEPKc
	.long	_ZN8idEntity8SetColorEfff
	.long	_ZN8idEntity8SetColorERK6idVec3
	.long	_ZNK8idEntity8GetColorER6idVec3
	.long	_ZN8idEntity8SetColorERK6idVec4
	.long	_ZNK8idEntity8GetColorER6idVec4
	.long	_ZN8idEntity12FreeModelDefEv
	.long	_ZN8idEntity12FreeLightDefEv
	.long	_ZN10idMoveable4HideEv
	.long	_ZN10idMoveable4ShowEv
	.long	_ZN8idEntity14ProjectOverlayERK6idVec3S2_fPKc
	.long	_ZN8idEntity26UpdateAnimationControllersEv
	.long	_ZN8idEntity11GetAnimatorEv
	.long	_ZNK8idEntity20CanPlayChatterSoundsEv
	.long	_ZN8idEntity7PreBindEv
	.long	_ZN8idEntity8PostBindEv
	.long	_ZN8idEntity9PreUnbindEv
	.long	_ZN8idEntity10PostUnbindEv
	.long	_ZN8idBarrel27GetPhysicsToVisualTransformER6idVec3R6idMat3
	.long	_ZN8idEntity26GetPhysicsToSoundTransformER6idVec3R6idMat3
	.long	_ZN10idMoveable7CollideERK7trace_sRK6idVec3
	.long	_ZN8idEntity13GetImpactInfoEPS_iRK6idVec3P12impactInfo_s
	.long	_ZN8idEntity12ApplyImpulseEPS_iRK6idVec3S3_
	.long	_ZN8idEntity8AddForceEPS_iRK6idVec3S3_
	.long	_ZN8idEntity15ActivatePhysicsEPS_
	.long	_ZNK8idEntity8IsAtRestEv
	.long	_ZNK8idEntity16GetRestStartTimeEv
	.long	_ZN8idEntity16AddContactEntityEPS_
	.long	_ZN8idEntity19RemoveContactEntityEPS_
	.long	_ZNK8idEntity9CanDamageERK6idVec3RS0_
	.long	_ZN17idExplodingBarrel6DamageEP8idEntityS1_RK6idVec3PKcfi
	.long	_ZN8idEntity15AddDamageEffectERK7trace_sRK6idVec3PKc
	.long	_ZN8idEntity14DamageFeedbackEPS_S0_Ri
	.long	_ZN8idEntity4PainEPS_S0_iRK6idVec3i
	.long	_ZN17idExplodingBarrel6KilledEP8idEntityS1_iRK6idVec3i
	.long	_ZNK8idEntity34ShouldConstructScriptObjectAtSpawnEv
	.long	_ZN8idEntity21ConstructScriptObjectEv
	.long	_ZN8idEntity23DeconstructScriptObjectEv
	.long	_ZN8idEntity22HandleSingleGuiCommandEPS_P7idLexer
	.long	_ZN8idEntity8TeleportERK6idVec3RK8idAnglesPS_
	.long	_ZN8idEntity17ShowEditingDialogEv
	.long	_ZN8idBarrel21ClientPredictionThinkEv
	.long	_ZNK17idExplodingBarrel15WriteToSnapshotER13idBitMsgDelta
	.long	_ZN17idExplodingBarrel16ReadFromSnapshotERK13idBitMsgDelta
	.long	_ZN8idEntity18ServerReceiveEventEiiRK8idBitMsg
	.long	_ZN17idExplodingBarrel18ClientReceiveEventEiiRK8idBitMsg
	.globl _ZN17idExplodingBarrel14eventCallbacksE
	.globl _ZN17idExplodingBarrel4TypeE
	.globl _ZN8idBarrel14eventCallbacksE
	.globl _ZN8idBarrel4TypeE
	.globl _ZN10idMoveable14eventCallbacksE
	.globl _ZN10idMoveable4TypeE
	.globl EV_IsAtRest
	.globl EV_BecomeNonSolid
	.weak	_ZTI12idAllocError
	.section	.rodata._ZTI12idAllocError,"aG",@progbits,_ZTI12idAllocError,comdat
	.align 2
	.type	_ZTI12idAllocError, @object
	.size	_ZTI12idAllocError, 12
_ZTI12idAllocError:
	.long	_ZTVN10__cxxabiv120__si_class_type_infoE+8
	.long	_ZTS12idAllocError
	.long	_ZTI11idException
	.weak	_ZTS12idAllocError
	.section	.rodata._ZTS12idAllocError,"aG",@progbits,_ZTS12idAllocError,comdat
	.align 2
	.type	_ZTS12idAllocError, @object
	.size	_ZTS12idAllocError, 15
_ZTS12idAllocError:
	.string	"12idAllocError"
	.weak	_ZTI11idException
	.section	.sdata._ZTI11idException,"awG",@progbits,_ZTI11idException,comdat
	.align 2
	.type	_ZTI11idException, @object
	.size	_ZTI11idException, 8
_ZTI11idException:
	.long	_ZTVN10__cxxabiv117__class_type_infoE+8
	.long	_ZTS11idException
	.weak	_ZTS11idException
	.section	.rodata._ZTS11idException,"aG",@progbits,_ZTS11idException,comdat
	.align 2
	.type	_ZTS11idException, @object
	.size	_ZTS11idException, 14
_ZTS11idException:
	.string	"11idException"
	.weak	_ZN9idWindingD1Ev
	.set	_ZN9idWindingD1Ev,_ZN9idWindingD2Ev
	.globl _ZN10idMoveableD1Ev
	.set	_ZN10idMoveableD1Ev,_ZN10idMoveableD2Ev
	.weak	_ZN8idBarrelD1Ev
	.set	_ZN8idBarrelD1Ev,_ZN8idBarrelD2Ev
	.globl _ZN17idExplodingBarrelD1Ev
	.set	_ZN17idExplodingBarrelD1Ev,_ZN17idExplodingBarrelD2Ev
	.weak	_ZN14idFixedWindingD1Ev
	.set	_ZN14idFixedWindingD1Ev,_ZN14idFixedWindingD2Ev
	.globl _ZN10idMoveableC1Ev
	.set	_ZN10idMoveableC1Ev,_ZN10idMoveableC2Ev
	.globl _ZN8idBarrelC1Ev
	.set	_ZN8idBarrelC1Ev,_ZN8idBarrelC2Ev
	.globl _ZN17idExplodingBarrelC1Ev
	.set	_ZN17idExplodingBarrelC1Ev,_ZN17idExplodingBarrelC2Ev
	.section	.rodata.cst4,"aM",@progbits,4
	.align 2
.LC0:
	.4byte	0
.LC1:
	.4byte	1056964608
.LC5:
	.4byte	-997900288
.LC24:
	.4byte	-1082130432
.LC28:
	.4byte	1501560836
.LC32:
	.4byte	1069547520
.LC33:
	.4byte	1065353216
.LC34:
	.4byte	1117782016
.LC35:
	.4byte	1128792064
.LC36:
	.4byte	1123024896
.LC38:
	.4byte	1114636288
.LC41:
	.4byte	1120403456
.LC50:
	.4byte	-1130795472
.LC51:
	.4byte	1033377319
.LC52:
	.4byte	1046033540
.LC53:
	.4byte	1070140836
.LC54:
	.4byte	981668463
.LC55:
	.4byte	1148846080
.LC62:
	.4byte	1048576000
.LC78:
	.4byte	1058642330
.LC84:
	.4byte	1060320051
.LC85:
	.4byte	1127481344
.LC86:
	.4byte	1132068864
.LC89:
	.4byte	1124073472
.LC90:
	.4byte	1073741824
.LC96:
	.4byte	1119879168
.LC104:
	.4byte	939524096
.LC105:
	.4byte	1082130432
	.section	".data"
	.align 2
	.set	.LANCHOR1,. + 0
	.type	_ZN10idMoveable14eventCallbacksE, @object
	.size	_ZN10idMoveable14eventCallbacksE, 72
_ZN10idMoveable14eventCallbacksE:
	.long	EV_Activate
	.long	_ZN10idMoveable14Event_ActivateEP8idEntity
	.long	0
	.long	EV_BecomeNonSolid
	.long	_ZN10idMoveable20Event_BecomeNonSolidEv
	.long	0
	.long	_ZL24EV_SetOwnerFromSpawnArgs
	.long	_ZN10idMoveable27Event_SetOwnerFromSpawnArgsEv
	.long	0
	.long	EV_IsAtRest
	.long	_ZN10idMoveable14Event_IsAtRestEv
	.long	0
	.long	_ZL15EV_EnableDamage
	.long	_ZN10idMoveable18Event_EnableDamageEf
	.long	0
	.long	0
	.long	0
	.long	0
	.type	_ZN17idExplodingBarrel14eventCallbacksE, @object
	.size	_ZN17idExplodingBarrel14eventCallbacksE, 60
_ZN17idExplodingBarrel14eventCallbacksE:
	.long	EV_Activate
	.long	_ZN17idExplodingBarrel14Event_ActivateEP8idEntity
	.long	0
	.long	_ZL10EV_Respawn
	.long	_ZN17idExplodingBarrel13Event_RespawnEv
	.long	0
	.long	EV_Explode
	.long	_ZN17idExplodingBarrel13Event_ExplodeEv
	.long	0
	.long	_ZL17EV_TriggerTargets
	.long	_ZN17idExplodingBarrel20Event_TriggerTargetsEv
	.long	0
	.long	0
	.long	0
	.long	0
	.section	.rodata.str1.4,"aMS",@progbits,1
	.align 2
.LC2:
	.string	"Unknown damageDef '%s'\n"
.LC3:
	.string	"radius"
	.zero	1
.LC4:
	.string	""
	.zero	3
.LC6:
	.string	"becomeNonSolid"
	.zero	1
.LC7:
	.string	"<setOwnerFromSpawnArgs>"
.LC8:
	.string	"isAtRest"
	.zero	3
.LC9:
	.string	"enableDamage"
	.zero	3
.LC10:
	.string	"f"
	.zero	2
.LC11:
	.string	"idMoveable"
	.zero	1
.LC12:
	.string	"idEntity"
	.zero	3
.LC13:
	.string	"idBarrel"
	.zero	3
.LC14:
	.string	"<respawn>"
	.zero	2
.LC15:
	.string	"<triggertargets>"
	.zero	3
.LC16:
	.string	"idExplodingBarrel"
	.zero	2
.LC17:
	.string	"owner"
	.zero	2
.LC18:
	.string	"5"
	.zero	2
.LC19:
	.string	"0"
	.zero	2
.LC20:
	.string	"health"
	.zero	1
.LC21:
	.string	"time"
	.zero	3
.LC22:
	.string	"nonsolid"
	.zero	3
.LC23:
	.string	"256"
.LC25:
	.string	"10"
	.zero	1
.LC26:
	.string	"respawn_range"
	.zero	2
.LC29:
	.string	"respawn_again"
	.zero	2
.LC30:
	.string	"model"
	.zero	2
.LC39:
	.string	"snd_bounce"
	.zero	1
.LC40:
	.string	"idMoveable::idMoveable( void ) size %d\r\n"
	.zero	3
.LC42:
	.string	"300"
.LC43:
	.string	"initialSplineTime"
	.zero	2
.LC44:
	.string	"notPushable"
.LC45:
	.string	"init_velocity"
	.zero	2
.LC46:
	.string	"0 0 0"
	.zero	2
.LC47:
	.string	"init_avelocity"
	.zero	1
.LC48:
	.string	"init_velocityDelay"
	.zero	1
.LC49:
	.string	"init_avelocityDelay"
.LC56:
	.string	"100"
.LC57:
	.string	"200"
.LC58:
	.string	"1"
	.zero	2
.LC59:
	.string	"clipmodel"
	.zero	2
.LC60:
	.string	"idMoveable '%s': cannot load collision model %s"
.LC61:
	.string	"clipshrink"
	.zero	1
.LC63:
	.string	"density"
.LC64:
	.string	"0.5"
.LC65:
	.string	"friction"
	.zero	3
.LC66:
	.string	"0.05"
	.zero	3
.LC67:
	.string	"bouncyness"
	.zero	1
.LC68:
	.string	"0.6"
.LC69:
	.string	"explode"
.LC70:
	.string	"unbindondeath"
	.zero	2
.LC71:
	.string	"fx_collide"
	.zero	1
.LC72:
	.string	"def_damage"
	.zero	1
.LC73:
	.string	"damageWhenActive"
	.zero	3
.LC74:
	.string	"minDamageVelocity"
	.zero	2
.LC75:
	.string	"maxDamageVelocity"
	.zero	2
.LC76:
	.string	"broken"
	.zero	1
.LC77:
	.string	"idMoveable '%s' at (%s): cannot load broken model '%s'"
	.zero	1
.LC79:
	.string	"mass"
	.zero	3
.LC80:
	.string	"nodrop"
	.zero	1
.LC81:
	.string	"noimpact"
	.zero	3
.LC82:
	.string	"allowStep"
	.zero	2
.LC83:
	.string	"idBarrel::idBarrel() size %d\r\n"
	.zero	1
.LC87:
	.string	"idExplodingBarrel::idExplodingBarrel() size %d\r\n"
	.zero	3
.LC88:
	.string	"light_radius"
	.zero	3
.LC91:
	.string	"snd_explode"
.LC92:
	.string	"model_damage"
	.zero	3
.LC93:
	.string	"model_detonate"
	.zero	1
.LC94:
	.string	"mtr_lightexplode"
	.zero	3
.LC95:
	.string	"mtr_burnmark"
	.zero	3
.LC97:
	.string	"1000"
	.zero	3
.LC98:
	.string	"explode_lapse"
	.zero	2
.LC99:
	.string	"damage_explosion"
	.zero	3
.LC100:
	.string	"snd_burn"
	.zero	3
.LC101:
	.string	"model_burn"
	.zero	1
.LC102:
	.string	"def_splash_damage"
	.zero	2
.LC103:
	.string	"def_debris"
	.zero	1
.LC106:
	.string	"'projectile_debris' is not an idDebris"
	.zero	1
.LC107:
	.string	"respawn"
.LC108:
	.string	"triggerTargets"
	.zero	1
.LC109:
	.string	"burn"
	.section	".bss"
	.align 2
	.set	.LANCHOR0,. + 0
	.type	_ZN10idMoveable4TypeE, @object
	.size	_ZN10idMoveable4TypeE, 80
_ZN10idMoveable4TypeE:
	.zero	80
	.type	_ZN8idBarrel4TypeE, @object
	.size	_ZN8idBarrel4TypeE, 80
_ZN8idBarrel4TypeE:
	.zero	80
	.type	_ZN17idExplodingBarrel4TypeE, @object
	.size	_ZN17idExplodingBarrel4TypeE, 80
_ZN17idExplodingBarrel4TypeE:
	.zero	80
	.type	_ZL22NUM_RENDER_PORTAL_BITS, @object
	.size	_ZL22NUM_RENDER_PORTAL_BITS, 4
_ZL22NUM_RENDER_PORTAL_BITS:
	.zero	4
	.type	_ZL20DEFAULT_GRAVITY_VEC3, @object
	.size	_ZL20DEFAULT_GRAVITY_VEC3, 12
_ZL20DEFAULT_GRAVITY_VEC3:
	.zero	12
	.type	_ZL20CINEMATIC_SKIP_DELAY, @object
	.size	_ZL20CINEMATIC_SKIP_DELAY, 4
_ZL20CINEMATIC_SKIP_DELAY:
	.zero	4
	.type	_ZL26ASYNC_PLAYER_INV_AMMO_BITS, @object
	.size	_ZL26ASYNC_PLAYER_INV_AMMO_BITS, 4
_ZL26ASYNC_PLAYER_INV_AMMO_BITS:
	.zero	4
	.type	EV_BecomeNonSolid, @object
	.size	EV_BecomeNonSolid, 64
EV_BecomeNonSolid:
	.zero	64
	.type	_ZL24EV_SetOwnerFromSpawnArgs, @object
	.size	_ZL24EV_SetOwnerFromSpawnArgs, 64
_ZL24EV_SetOwnerFromSpawnArgs:
	.zero	64
	.type	EV_IsAtRest, @object
	.size	EV_IsAtRest, 64
EV_IsAtRest:
	.zero	64
	.type	_ZL15EV_EnableDamage, @object
	.size	_ZL15EV_EnableDamage, 64
_ZL15EV_EnableDamage:
	.zero	64
	.type	_ZN8idBarrel14eventCallbacksE, @object
	.size	_ZN8idBarrel14eventCallbacksE, 12
_ZN8idBarrel14eventCallbacksE:
	.zero	12
	.type	_ZL10EV_Respawn, @object
	.size	_ZL10EV_Respawn, 64
_ZL10EV_Respawn:
	.zero	64
	.type	_ZL17EV_TriggerTargets, @object
	.size	_ZL17EV_TriggerTargets, 64
_ZL17EV_TriggerTargets:
	.zero	64
	.section	".text"
.Letext0:
	.file 20 "<built-in>"
	.file 21 "c:\\utils\\devkitpro\\devkitppc\\bin\\../lib/gcc/powerpc-eabi/4.6.3/include/stddef.h"
	.file 22 "c:\\utils\\devkitpro\\devkitppc\\bin\\../lib/gcc/powerpc-eabi/4.6.3/../../../../powerpc-eabi/include/sys/types.h"
	.file 23 "d:/Data/Nintendo/DoomGX/src/game/../idlib/../sys/sys_public.h"
	.file 24 "d:/Data/Nintendo/DoomGX/src/game/../idlib/../framework/Common.h"
	.file 25 "d:/Data/Nintendo/DoomGX/src/game/../idlib/../framework/CVarSystem.h"
	.file 26 "d:/Data/Nintendo/DoomGX/src/game/../idlib/../framework/FileSystem.h"
	.file 27 "d:/Data/Nintendo/DoomGX/src/game/../idlib/../idlib/Lib.h"
	.file 28 "d:/Data/Nintendo/DoomGX/src/game/../idlib/../idlib/CmdArgs.h"
	.file 29 "d:/Data/Nintendo/DoomGX/src/game/../idlib/../idlib/math/Angles.h"
	.file 30 "d:/Data/Nintendo/DoomGX/src/game/../idlib/../idlib/math/Quat.h"
	.file 31 "d:/Data/Nintendo/DoomGX/src/game/../idlib/../idlib/math/Plane.h"
	.file 32 "d:/Data/Nintendo/DoomGX/src/game/../idlib/../idlib/math/Ode.h"
	.file 33 "d:/Data/Nintendo/DoomGX/src/game/../idlib/../idlib/bv/Sphere.h"
	.file 34 "d:/Data/Nintendo/DoomGX/src/game/../idlib/../idlib/bv/Box.h"
	.file 35 "d:/Data/Nintendo/DoomGX/src/game/../idlib/../idlib/bv/Frustum.h"
	.file 36 "d:/Data/Nintendo/DoomGX/src/game/../idlib/../idlib/geometry/DrawVert.h"
	.file 37 "d:/Data/Nintendo/DoomGX/src/game/../idlib/../idlib/geometry/JointTransform.h"
	.file 38 "d:/Data/Nintendo/DoomGX/src/game/../idlib/../idlib/geometry/Surface.h"
	.file 39 "d:/Data/Nintendo/DoomGX/src/game/../idlib/../idlib/Token.h"
	.file 40 "d:/Data/Nintendo/DoomGX/src/game/../idlib/../idlib/Lexer.h"
	.file 41 "d:/Data/Nintendo/DoomGX/src/game/../idlib/../framework/File.h"
	.file 42 "d:/Data/Nintendo/DoomGX/src/game/../idlib/../idlib/Parser.h"
	.file 43 "d:/Data/Nintendo/DoomGX/src/game/../idlib/../idlib/containers/HashIndex.h"
	.file 44 "d:/Data/Nintendo/DoomGX/src/game/../idlib/../idlib/containers/StrList.h"
	.file 45 "d:/Data/Nintendo/DoomGX/src/game/../idlib/../idlib/containers/StrPool.h"
	.file 46 "d:/Data/Nintendo/DoomGX/src/game/../idlib/../idlib/containers/PlaneSet.h"
	.file 47 "d:/Data/Nintendo/DoomGX/src/game/../idlib/../idlib/LangDict.h"
	.file 48 "d:/Data/Nintendo/DoomGX/src/game/../idlib/../idlib/MapFile.h"
	.file 49 "d:/Data/Nintendo/DoomGX/src/game/../idlib/../framework/CmdSystem.h"
	.file 50 "d:/Data/Nintendo/DoomGX/src/game/../idlib/../framework/UsercmdGen.h"
	.file 51 "d:/Data/Nintendo/DoomGX/src/game/../idlib/../framework/DeclManager.h"
	.file 52 "d:/Data/Nintendo/DoomGX/src/game/../idlib/../framework/DeclParticle.h"
	.file 53 "d:/Data/Nintendo/DoomGX/src/game/../idlib/../renderer/RenderWorld.h"
	.file 54 "d:/Data/Nintendo/DoomGX/src/game/../idlib/../renderer/Cinematic.h"
	.file 55 "d:/Data/Nintendo/DoomGX/src/game/../idlib/../renderer/Material.h"
	.file 56 "d:/Data/Nintendo/DoomGX/src/game/../idlib/../renderer/Model.h"
	.file 57 "d:/Data/Nintendo/DoomGX/src/game/../idlib/../renderer/RenderSystem.h"
	.file 58 "d:/Data/Nintendo/DoomGX/src/game/../idlib/../sound/sound.h"
	.file 59 "d:/Data/Nintendo/DoomGX/src/game/../idlib/../ui/UserInterface.h"
	.file 60 "d:/Data/Nintendo/DoomGX/src/game/../idlib/../cm/CollisionModel.h"
	.file 61 "d:/Data/Nintendo/DoomGX/src/game/../idlib/../tools/compilers/aas/AASFile.h"
	.file 62 "d:/Data/Nintendo/DoomGX/src/game/../idlib/../game/Game.h"
	.file 63 "d:/Data/Nintendo/DoomGX/src/game/../idlib/../framework/async/NetworkSystem.h"
	.file 64 "d:/Data/Nintendo/DoomGX/src/game/../idlib/../renderer/ModelManager.h"
	.file 65 "d:/Data/Nintendo/DoomGX/src/game/../idlib/../tools/compilers/aas/AASFileManager.h"
	.file 66 "d:/Data/Nintendo/DoomGX/src/game/../idlib/../framework/Session.h"
	.file 67 "d:/Data/Nintendo/DoomGX/src/game/../idlib/../ui/ListGUI.h"
	.file 68 "d:/Data/Nintendo/DoomGX/src/game/gamesys/Event.h"
	.file 69 "d:/Data/Nintendo/DoomGX/src/game/gamesys/SaveGame.h"
	.file 70 "d:/Data/Nintendo/DoomGX/src/game/Entity.h"
	.file 71 "d:/Data/Nintendo/DoomGX/src/game/../idlib/../idlib/containers/Hierarchy.h"
	.file 72 "d:/Data/Nintendo/DoomGX/src/game/ai/AAS.h"
	.file 73 "d:/Data/Nintendo/DoomGX/src/game/../idlib/../framework/Console.h"
	.file 74 "d:/Data/Nintendo/DoomGX/src/game/../idlib/../idlib/math/Simd.h"
	.file 75 "d:/Data/Nintendo/DoomGX/src/game/Projectile.h"
	.file 76 "d:/Data/Nintendo/DoomGX/src/game/../idlib/../framework/BuildVersion.h"
	.file 77 "d:/Data/Nintendo/DoomGX/src/game/../idlib/precompiled.h"
	.file 78 "d:/Data/Nintendo/DoomGX/src/game/../idlib/../framework/EventLoop.h"
	.file 79 "d:/Data/Nintendo/DoomGX/src/game/../idlib/../framework/EditField.h"
	.file 80 "d:/Data/Nintendo/DoomGX/src/game/../idlib/../framework/async/AsyncNetwork.h"
	.file 81 "d:/Data/Nintendo/DoomGX/src/game/../idlib/../framework/async/AsyncServer.h"
	.file 82 "d:/Data/Nintendo/DoomGX/src/game/anim/Anim.h"
	.file 83 "d:/Data/Nintendo/DoomGX/src/game/MultiplayerGame.h"
	.file 84 "d:/Data/Nintendo/DoomGX/src/game/AFEntity.h"
	.file 85 "d:/Data/Nintendo/DoomGX/src/game/Weapon.h"
	.file 86 "d:/Data/Nintendo/DoomGX/src/game/ai/AI.h"
	.file 87 "d:/Data/Nintendo/DoomGX/src/game/script/Script_Compiler.h"
	.file 88 "d:/Data/Nintendo/DoomGX/src/game/script/Script_Thread.h"