	.file	"Physics_RigidBody.cpp"
	.section	".text"
.Ltext0:
	.section	.text._ZN14idFixedWinding5ClearEv,"axG",@progbits,_ZN14idFixedWinding5ClearEv,comdat
	.align 2
	.weak	_ZN14idFixedWinding5ClearEv
	.type	_ZN14idFixedWinding5ClearEv, @function
_ZN14idFixedWinding5ClearEv:
.LFB1502:
	.file 1 "d:/Data/Nintendo/DoomGX/src/game/physics/../../idlib/../idlib/geometry/Winding.h"
	.loc 1 398 0
	.cfi_startproc
.LVL0:
	.loc 1 399 0
	li 0,0
	.loc 1 400 0
	.loc 1 399 0
	stw 0,4(3)
	.loc 1 400 0
	blr
	.cfi_endproc
.LFE1502:
	.size	_ZN14idFixedWinding5ClearEv, .-_ZN14idFixedWinding5ClearEv
	.section	".text"
	.align 2
	.globl _ZNK19idPhysics_RigidBody7GetTypeEv
	.type	_ZNK19idPhysics_RigidBody7GetTypeEv, @function
_ZNK19idPhysics_RigidBody7GetTypeEv:
.LFB2811:
	.file 2 "d:/Data/Nintendo/DoomGX/src/game/physics/Physics_RigidBody.cpp"
	.loc 2 34 0
	.cfi_startproc
.LVL1:
	.loc 2 34 0
	lis 3,.LANCHOR0@ha
.LVL2:
	la 3,.LANCHOR0@l(3)
	blr
	.cfi_endproc
.LFE2811:
	.size	_ZNK19idPhysics_RigidBody7GetTypeEv, .-_ZNK19idPhysics_RigidBody7GetTypeEv
	.align 2
	.globl _ZNK19idPhysics_RigidBody12GetClipModelEi
	.type	_ZNK19idPhysics_RigidBody12GetClipModelEi, @function
_ZNK19idPhysics_RigidBody12GetClipModelEi:
.LFB2850:
	.loc 2 658 0
	.cfi_startproc
.LVL3:
	.loc 2 660 0
	lwz 3,436(3)
.LVL4:
	blr
	.cfi_endproc
.LFE2850:
	.size	_ZNK19idPhysics_RigidBody12GetClipModelEi, .-_ZNK19idPhysics_RigidBody12GetClipModelEi
	.align 2
	.globl _ZNK19idPhysics_RigidBody16GetNumClipModelsEv
	.type	_ZNK19idPhysics_RigidBody16GetNumClipModelsEv, @function
_ZNK19idPhysics_RigidBody16GetNumClipModelsEv:
.LFB2851:
	.loc 2 667 0
	.cfi_startproc
.LVL5:
	.loc 2 669 0
	li 3,1
.LVL6:
	blr
	.cfi_endproc
.LFE2851:
	.size	_ZNK19idPhysics_RigidBody16GetNumClipModelsEv, .-_ZNK19idPhysics_RigidBody16GetNumClipModelsEv
	.align 2
	.globl _ZNK19idPhysics_RigidBody7GetMassEi
	.type	_ZNK19idPhysics_RigidBody7GetMassEi, @function
_ZNK19idPhysics_RigidBody7GetMassEi:
.LFB2853:
	.loc 2 689 0
	.cfi_startproc
.LVL7:
	.loc 2 691 0
	lfs 1,440(3)
	blr
	.cfi_endproc
.LFE2853:
	.size	_ZNK19idPhysics_RigidBody7GetMassEi, .-_ZNK19idPhysics_RigidBody7GetMassEi
	.align 2
	.globl _ZN19idPhysics_RigidBody11SetContentsEii
	.type	_ZN19idPhysics_RigidBody11SetContentsEii, @function
_ZN19idPhysics_RigidBody11SetContentsEii:
.LFB2863:
	.loc 2 796 0
	.cfi_startproc
.LVL8:
	.loc 2 797 0
	lwz 9,436(3)
.LVL9:
.LBB2396:
.LBB2397:
	.file 3 "d:/Data/Nintendo/DoomGX/src/game/physics/../physics/Clip.h"
	.loc 3 167 0
	stw 4,116(9)
.LBE2397:
.LBE2396:
	.loc 2 798 0
	blr
	.cfi_endproc
.LFE2863:
	.size	_ZN19idPhysics_RigidBody11SetContentsEii, .-_ZN19idPhysics_RigidBody11SetContentsEii
	.align 2
	.globl _ZNK19idPhysics_RigidBody11GetContentsEi
	.type	_ZNK19idPhysics_RigidBody11GetContentsEi, @function
_ZNK19idPhysics_RigidBody11GetContentsEi:
.LFB2864:
	.loc 2 805 0
	.cfi_startproc
.LVL10:
	.loc 2 1542 0
	lwz 9,436(3)
	.loc 2 807 0
	lwz 3,116(9)
.LVL11:
	blr
	.cfi_endproc
.LFE2864:
	.size	_ZNK19idPhysics_RigidBody11GetContentsEi, .-_ZNK19idPhysics_RigidBody11GetContentsEi
	.align 2
	.globl _ZNK19idPhysics_RigidBody9GetBoundsEi
	.type	_ZNK19idPhysics_RigidBody9GetBoundsEi, @function
_ZNK19idPhysics_RigidBody9GetBoundsEi:
.LFB2865:
	.loc 2 814 0
	.cfi_startproc
.LVL12:
	.loc 2 815 0
	lwz 3,436(3)
.LVL13:
	.loc 2 816 0
	addi 3,3,64
.LVL14:
	blr
	.cfi_endproc
.LFE2865:
	.size	_ZNK19idPhysics_RigidBody9GetBoundsEi, .-_ZNK19idPhysics_RigidBody9GetBoundsEi
	.align 2
	.globl _ZNK19idPhysics_RigidBody12GetAbsBoundsEi
	.type	_ZNK19idPhysics_RigidBody12GetAbsBoundsEi, @function
_ZNK19idPhysics_RigidBody12GetAbsBoundsEi:
.LFB2866:
	.loc 2 823 0
	.cfi_startproc
.LVL15:
	.loc 2 824 0
	lwz 3,436(3)
.LVL16:
	.loc 2 825 0
	addi 3,3,88
.LVL17:
	blr
	.cfi_endproc
.LFE2866:
	.size	_ZNK19idPhysics_RigidBody12GetAbsBoundsEi, .-_ZNK19idPhysics_RigidBody12GetAbsBoundsEi
	.align 2
	.globl _ZN19idPhysics_RigidBody10UpdateTimeEi
	.type	_ZN19idPhysics_RigidBody10UpdateTimeEi, @function
_ZN19idPhysics_RigidBody10UpdateTimeEi:
.LFB2868:
	.loc 2 1009 0
	.cfi_startproc
.LVL18:
	.loc 2 1010 0
	blr
	.cfi_endproc
.LFE2868:
	.size	_ZN19idPhysics_RigidBody10UpdateTimeEi, .-_ZN19idPhysics_RigidBody10UpdateTimeEi
	.align 2
	.globl _ZNK19idPhysics_RigidBody7GetTimeEv
	.type	_ZNK19idPhysics_RigidBody7GetTimeEv, @function
_ZNK19idPhysics_RigidBody7GetTimeEv:
.LFB2869:
	.loc 2 1017 0
	.cfi_startproc
.LVL19:
	.loc 2 1018 0
	lis 9,gameLocal+2426836@ha
	.loc 2 1019 0
	lwz 3,gameLocal+2426836@l(9)
.LVL20:
	blr
	.cfi_endproc
.LFE2869:
	.size	_ZNK19idPhysics_RigidBody7GetTimeEv, .-_ZNK19idPhysics_RigidBody7GetTimeEv
	.align 2
	.globl _ZNK19idPhysics_RigidBody8IsAtRestEv
	.type	_ZNK19idPhysics_RigidBody8IsAtRestEv, @function
_ZNK19idPhysics_RigidBody8IsAtRestEv:
.LFB2873:
	.loc 2 1073 0
	.cfi_startproc
.LVL21:
	.loc 2 1074 0
	lwz 3,68(3)
.LVL22:
	.loc 2 1075 0
	.loc 2 1074 0
	nor 3,3,3
	.loc 2 1075 0
	srwi 3,3,31
	blr
	.cfi_endproc
.LFE2873:
	.size	_ZNK19idPhysics_RigidBody8IsAtRestEv, .-_ZNK19idPhysics_RigidBody8IsAtRestEv
	.align 2
	.globl _ZNK19idPhysics_RigidBody16GetRestStartTimeEv
	.type	_ZNK19idPhysics_RigidBody16GetRestStartTimeEv, @function
_ZNK19idPhysics_RigidBody16GetRestStartTimeEv:
.LFB2874:
	.loc 2 1082 0
	.cfi_startproc
.LVL23:
	.loc 2 1084 0
	lwz 3,68(3)
.LVL24:
	blr
	.cfi_endproc
.LFE2874:
	.size	_ZNK19idPhysics_RigidBody16GetRestStartTimeEv, .-_ZNK19idPhysics_RigidBody16GetRestStartTimeEv
	.align 2
	.globl _ZNK19idPhysics_RigidBody10IsPushableEv
	.type	_ZNK19idPhysics_RigidBody10IsPushableEv, @function
_ZNK19idPhysics_RigidBody10IsPushableEv:
.LFB2875:
	.loc 2 1091 0
	.cfi_startproc
.LVL25:
	.loc 2 1092 0
	lbz 0,538(3)
	.loc 2 1091 0
	mr 9,3
	.loc 2 1092 0
	li 3,0
.LVL26:
	cmpwi 7,0,0
	bnelr- 7
	.loc 2 1091 0 discriminator 1
	lbz 3,540(9)
	xori 3,3,1
	.loc 2 1093 0 discriminator 1
	blr
	.cfi_endproc
.LFE2875:
	.size	_ZNK19idPhysics_RigidBody10IsPushableEv, .-_ZNK19idPhysics_RigidBody10IsPushableEv
	.align 2
	.globl _ZNK19idPhysics_RigidBody9GetOriginEi
	.type	_ZNK19idPhysics_RigidBody9GetOriginEi, @function
_ZNK19idPhysics_RigidBody9GetOriginEi:
.LFB2882:
	.loc 2 1210 0
	.cfi_startproc
.LVL27:
	.loc 2 1212 0
	addi 3,3,172
.LVL28:
	blr
	.cfi_endproc
.LFE2882:
	.size	_ZNK19idPhysics_RigidBody9GetOriginEi, .-_ZNK19idPhysics_RigidBody9GetOriginEi
	.align 2
	.globl _ZNK19idPhysics_RigidBody7GetAxisEi
	.type	_ZNK19idPhysics_RigidBody7GetAxisEi, @function
_ZNK19idPhysics_RigidBody7GetAxisEi:
.LFB2883:
	.loc 2 1219 0
	.cfi_startproc
.LVL29:
	.loc 2 1221 0
	addi 3,3,184
.LVL30:
	blr
	.cfi_endproc
.LFE2883:
	.size	_ZNK19idPhysics_RigidBody7GetAxisEi, .-_ZNK19idPhysics_RigidBody7GetAxisEi
	.align 2
	.globl _ZN19idPhysics_RigidBody17SetLinearVelocityERK6idVec3i
	.type	_ZN19idPhysics_RigidBody17SetLinearVelocityERK6idVec3i, @function
_ZN19idPhysics_RigidBody17SetLinearVelocityERK6idVec3i:
.LFB2884:
	.loc 2 1228 0
	.cfi_startproc
.LVL31:
.LBB2398:
.LBB2399:
	.file 4 "d:/Data/Nintendo/DoomGX/src/game/physics/../../idlib/../idlib/math/Vector.h"
	.loc 4 439 0
	lfs 12,4(4)
.LBE2399:
.LBE2398:
	.loc 2 1228 0
	mflr 0
.LBB2404:
.LBB2400:
	.loc 4 439 0
	lfs 13,8(4)
	lfs 11,0(4)
.LBE2400:
.LBE2404:
	.loc 2 1229 0
	lfs 0,440(3)
.LVL32:
	.loc 2 1228 0
	stwu 1,-8(1)
.LCFI0:
	.cfi_def_cfa_offset 8
	.cfi_register 65, 0
.LBB2405:
.LBB2401:
	.loc 4 439 0
	fmuls 12,0,12
.LBE2401:
.LBE2405:
	.loc 2 1230 0
	lwz 11,0(3)
.LBB2406:
.LBB2402:
	.loc 4 439 0
	fmuls 13,0,13
.LVL33:
.LBE2402:
.LBE2406:
	.loc 2 1228 0
	stw 0,12(1)
.LBB2407:
.LBB2403:
	.loc 4 439 0
	fmuls 0,0,11
.LBE2403:
.LBE2407:
.LBB2408:
.LBB2409:
	.loc 4 425 0
	stfs 12,224(3)
	.loc 4 426 0
	stfs 13,228(3)
	.loc 4 424 0
	stfs 0,220(3)
.LBE2409:
.LBE2408:
	.loc 2 1230 0
	lwz 0,88(11)
	.cfi_offset 65, 4
	mtctr 0
	bctrl
.LVL34:
	.loc 2 1231 0
	lwz 0,12(1)
	addi 1,1,8
.LCFI1:
	.cfi_def_cfa_offset 0
	mtlr 0
	blr
	.cfi_endproc
.LFE2884:
	.size	_ZN19idPhysics_RigidBody17SetLinearVelocityERK6idVec3i, .-_ZN19idPhysics_RigidBody17SetLinearVelocityERK6idVec3i
	.align 2
	.globl _ZN19idPhysics_RigidBody11DisableClipEv
	.type	_ZN19idPhysics_RigidBody11DisableClipEv, @function
_ZN19idPhysics_RigidBody11DisableClipEv:
.LFB2891:
	.loc 2 1322 0
	.cfi_startproc
.LVL35:
	.loc 2 1323 0
	lwz 9,436(3)
.LBB2410:
.LBB2411:
	.loc 3 155 0
	li 0,0
	stb 0,0(9)
.LBE2411:
.LBE2410:
	.loc 2 1324 0
	blr
	.cfi_endproc
.LFE2891:
	.size	_ZN19idPhysics_RigidBody11DisableClipEv, .-_ZN19idPhysics_RigidBody11DisableClipEv
	.align 2
	.globl _ZN19idPhysics_RigidBody10EnableClipEv
	.type	_ZN19idPhysics_RigidBody10EnableClipEv, @function
_ZN19idPhysics_RigidBody10EnableClipEv:
.LFB2892:
	.loc 2 1331 0
	.cfi_startproc
.LVL36:
	.loc 2 1332 0
	lwz 9,436(3)
.LBB2412:
.LBB2413:
	.loc 3 151 0
	li 0,1
	stb 0,0(9)
.LBE2413:
.LBE2412:
	.loc 2 1333 0
	blr
	.cfi_endproc
.LFE2892:
	.size	_ZN19idPhysics_RigidBody10EnableClipEv, .-_ZN19idPhysics_RigidBody10EnableClipEv
	.align 2
	.globl _ZNK19idPhysics_RigidBody23GetPushedLinearVelocityEi
	.type	_ZNK19idPhysics_RigidBody23GetPushedLinearVelocityEi, @function
_ZNK19idPhysics_RigidBody23GetPushedLinearVelocityEi:
.LFB2897:
	.loc 2 1399 0
	.cfi_startproc
.LVL37:
	.loc 2 1401 0
	addi 3,3,124
.LVL38:
	blr
	.cfi_endproc
.LFE2897:
	.size	_ZNK19idPhysics_RigidBody23GetPushedLinearVelocityEi, .-_ZNK19idPhysics_RigidBody23GetPushedLinearVelocityEi
	.align 2
	.globl _ZNK19idPhysics_RigidBody24GetPushedAngularVelocityEi
	.type	_ZNK19idPhysics_RigidBody24GetPushedAngularVelocityEi, @function
_ZNK19idPhysics_RigidBody24GetPushedAngularVelocityEi:
.LFB2898:
	.loc 2 1408 0
	.cfi_startproc
.LVL39:
	.loc 2 1410 0
	addi 3,3,136
.LVL40:
	blr
	.cfi_endproc
.LFE2898:
	.size	_ZNK19idPhysics_RigidBody24GetPushedAngularVelocityEi, .-_ZNK19idPhysics_RigidBody24GetPushedAngularVelocityEi
	.section	.text._ZN9idWinding5ClearEv,"axG",@progbits,_ZN9idWinding5ClearEv,comdat
	.align 2
	.weak	_ZN9idWinding5ClearEv
	.type	_ZN9idWinding5ClearEv, @function
_ZN9idWinding5ClearEv:
.LFB1473:
	.loc 1 249 0
	.cfi_startproc
.LVL41:
	mflr 0
	stwu 1,-16(1)
.LCFI2:
	.cfi_def_cfa_offset 16
	.cfi_register 65, 0
	stw 31,12(1)
	mr 31,3
	.cfi_offset 31, -4
	stw 0,20(1)
	.loc 1 250 0
	li 0,0
	.cfi_offset 65, 4
	.loc 1 251 0
	lwz 3,8(3)
.LVL42:
	.loc 1 250 0
	stw 0,4(31)
	.loc 1 251 0
	cmpwi 7,3,0
	beq- 7,.L26
	.loc 1 251 0 is_stmt 0 discriminator 1
	bl _ZdaPv
.L26:
	.loc 1 252 0 is_stmt 1
	li 0,0
	stw 0,8(31)
	.loc 1 253 0
	lwz 0,20(1)
	lwz 31,12(1)
.LVL43:
	mtlr 0
	addi 1,1,16
.LCFI3:
	.cfi_def_cfa_offset 0
	.cfi_restore 31
	blr
	.cfi_endproc
.LFE1473:
	.size	_ZN9idWinding5ClearEv, .-_ZN9idWinding5ClearEv
	.section	.text._ZN9idWindingD2Ev,"axG",@progbits,_ZN9idWindingD5Ev,comdat
	.align 2
	.weak	_ZN9idWindingD2Ev
	.type	_ZN9idWindingD2Ev, @function
_ZN9idWindingD2Ev:
.LFB1461:
	.loc 1 183 0
	.cfi_startproc
.LVL44:
	mflr 0
	stwu 1,-16(1)
.LCFI4:
	.cfi_def_cfa_offset 16
	.cfi_register 65, 0
.LBB2415:
	lis 9,_ZTV9idWinding+8@ha
.LBE2415:
	stw 31,12(1)
	mr 31,3
	.cfi_offset 31, -4
	stw 0,20(1)
.LBB2416:
	.loc 1 183 0
	la 0,_ZTV9idWinding+8@l(9)
	.cfi_offset 65, 4
	.loc 1 184 0
	lwz 3,8(3)
.LVL45:
	.loc 1 183 0
	stw 0,0(31)
	.loc 1 184 0
	cmpwi 7,3,0
	beq- 7,.L28
	.loc 1 184 0 is_stmt 0 discriminator 1
	bl _ZdaPv
.L28:
	.loc 1 185 0 is_stmt 1
	li 0,0
	stw 0,8(31)
.LBE2416:
	.loc 1 186 0
	lwz 0,20(1)
	lwz 31,12(1)
.LVL46:
	mtlr 0
	addi 1,1,16
.LCFI5:
	.cfi_def_cfa_offset 0
	.cfi_restore 31
	blr
	.cfi_endproc
.LFE1461:
	.size	_ZN9idWindingD2Ev, .-_ZN9idWindingD2Ev
	.section	".text"
	.align 2
	.globl _ZN19idPhysics_RigidBody8LinkClipEv
	.type	_ZN19idPhysics_RigidBody8LinkClipEv, @function
_ZN19idPhysics_RigidBody8LinkClipEv:
.LFB2894:
	.loc 2 1349 0
	.cfi_startproc
.LVL47:
	mflr 0
	stwu 1,-8(1)
.LCFI6:
	.cfi_def_cfa_offset 8
	.cfi_register 65, 0
	mr 8,3
	.loc 2 1350 0
	lis 4,gameLocal+2311032@ha
	addi 7,8,172
	la 4,gameLocal+2311032@l(4)
	.loc 2 1349 0
	stw 0,12(1)
	.loc 2 1350 0
	li 9,-1
	lwz 3,436(3)
.LVL48:
	lwz 5,4(8)
	addi 8,8,184
.LVL49:
	lwz 6,8(3)
	.cfi_offset 65, 4
	bl _ZN11idClipModel4LinkER6idClipP8idEntityiRK6idVec3RK6idMat3i
.LVL50:
	.loc 2 1351 0
	lwz 0,12(1)
	addi 1,1,8
.LCFI7:
	.cfi_def_cfa_offset 0
	mtlr 0
	blr
	.cfi_endproc
.LFE2894:
	.size	_ZN19idPhysics_RigidBody8LinkClipEv, .-_ZN19idPhysics_RigidBody8LinkClipEv
	.align 2
	.globl _ZN19idPhysics_RigidBody9TranslateERK6idVec3i
	.type	_ZN19idPhysics_RigidBody9TranslateERK6idVec3i, @function
_ZN19idPhysics_RigidBody9TranslateERK6idVec3i:
.LFB2880:
	.loc 2 1168 0
	.cfi_startproc
.LVL51:
	mflr 0
	stwu 1,-16(1)
.LCFI8:
	.cfi_def_cfa_offset 16
	.cfi_register 65, 0
	mr 11,4
	.loc 2 1173 0
	li 9,-1
	.loc 2 1168 0
	stw 31,12(1)
	mr 31,3
	.cfi_offset 31, -4
.LVL52:
	stw 0,20(1)
	.loc 2 1173 0
	addi 7,31,172
.LBB2417:
.LBB2418:
	.loc 4 456 0
	lfs 13,76(3)
	lfs 0,0(4)
	.loc 4 457 0
	lfs 9,80(3)
	.loc 4 456 0
	fadds 0,13,0
	.loc 4 458 0
	lfs 10,84(3)
.LBE2418:
.LBE2417:
.LBB2424:
.LBB2425:
	.loc 4 456 0
	lfs 11,172(3)
	.loc 4 457 0
	lfs 12,176(3)
.LBE2425:
.LBE2424:
.LBB2428:
.LBB2419:
	.loc 4 456 0
	stfs 0,76(3)
.LBE2419:
.LBE2428:
.LBB2429:
.LBB2426:
	.loc 4 458 0
	lfs 13,180(3)
.LBE2426:
.LBE2429:
.LBB2430:
.LBB2420:
	.loc 4 457 0
	lfs 0,4(4)
.LBE2420:
.LBE2430:
	.loc 2 1173 0
	lwz 3,436(3)
.LVL53:
.LBB2431:
.LBB2421:
	.loc 4 457 0
	fadds 0,9,0
.LBE2421:
.LBE2431:
	.loc 2 1173 0
	lwz 5,4(31)
.LVL54:
	addi 8,3,28
.LBB2432:
.LBB2422:
	.loc 4 457 0
	stfs 0,80(31)
	.loc 4 458 0
	lfs 0,8(4)
.LBE2422:
.LBE2432:
	.loc 2 1173 0
	lis 4,gameLocal+2311032@ha
.LVL55:
	la 4,gameLocal+2311032@l(4)
.LBB2433:
.LBB2423:
	.loc 4 458 0
	fadds 0,10,0
	stfs 0,84(31)
.LVL56:
.LBE2423:
.LBE2433:
.LBB2434:
.LBB2427:
	.loc 4 456 0
	lfs 0,0(11)
	fadds 0,11,0
	stfs 0,172(31)
	.loc 4 457 0
	lfs 0,4(11)
	fadds 0,12,0
	stfs 0,176(31)
	.loc 4 458 0
	lfs 0,8(11)
	fadds 0,13,0
	stfs 0,180(31)
.LBE2427:
.LBE2434:
	.loc 2 1173 0
	lwz 6,8(3)
	.cfi_offset 65, 4
	bl _ZN11idClipModel4LinkER6idClipP8idEntityiRK6idVec3RK6idMat3i
.LVL57:
	.loc 2 1175 0
	lwz 9,0(31)
	mr 3,31
	lwz 0,88(9)
	mtctr 0
	bctrl
	.loc 2 1176 0
	lwz 0,20(1)
	lwz 31,12(1)
.LVL58:
	mtlr 0
	addi 1,1,16
.LCFI9:
	.cfi_def_cfa_offset 0
	.cfi_restore 31
	blr
	.cfi_endproc
.LFE2880:
	.size	_ZN19idPhysics_RigidBody9TranslateERK6idVec3i, .-_ZN19idPhysics_RigidBody9TranslateERK6idVec3i
	.align 2
	.globl _ZN19idPhysics_RigidBody10UnlinkClipEv
	.type	_ZN19idPhysics_RigidBody10UnlinkClipEv, @function
_ZN19idPhysics_RigidBody10UnlinkClipEv:
.LFB2893:
	.loc 2 1340 0
	.cfi_startproc
.LVL59:
	mflr 0
	stwu 1,-8(1)
.LCFI10:
	.cfi_def_cfa_offset 8
	.cfi_register 65, 0
	stw 0,12(1)
	.loc 2 1341 0
	lwz 3,436(3)
.LVL60:
	.cfi_offset 65, 4
	bl _ZN11idClipModel6UnlinkEv
	.loc 2 1342 0
	lwz 0,12(1)
	addi 1,1,8
.LCFI11:
	.cfi_def_cfa_offset 0
	mtlr 0
	blr
	.cfi_endproc
.LFE2893:
	.size	_ZN19idPhysics_RigidBody10UnlinkClipEv, .-_ZN19idPhysics_RigidBody10UnlinkClipEv
	.align 2
	.globl _ZNK19idPhysics_RigidBody15ClipTranslationER7trace_sRK6idVec3PK11idClipModel
	.type	_ZNK19idPhysics_RigidBody15ClipTranslationER7trace_sRK6idVec3PK11idClipModel, @function
_ZNK19idPhysics_RigidBody15ClipTranslationER7trace_sRK6idVec3PK11idClipModel:
.LFB2888:
	.loc 2 1273 0
	.cfi_startproc
.LVL61:
	stwu 1,-72(1)
.LCFI12:
	.cfi_def_cfa_offset 72
	mflr 0
	stw 30,64(1)
	.loc 2 1274 0
	mr. 30,6
	.cfi_offset 30, -8
	.cfi_register 65, 0
	.loc 2 1273 0
	stw 29,60(1)
	mr 29,4
	.cfi_offset 29, -12
	stw 0,76(1)
	stw 27,52(1)
	stw 28,56(1)
	stw 31,68(1)
	.loc 2 1274 0
	beq- 0,.L34
	.cfi_offset 31, -4
	.cfi_offset 28, -16
	.cfi_offset 27, -20
	.cfi_offset 65, 4
	.loc 2 1275 0
	lwz 27,436(3)
.LVL62:
.LBB2435:
.LBB2436:
	.loc 4 452 0
	lfs 13,4(5)
	mr 28,27
	lfs 9,20(27)
	lfsu 11,16(28)
	lfs 10,24(27)
	fadds 13,9,13
	lfs 0,8(5)
	lfs 12,0(5)
	fadds 0,10,0
.LVL63:
.LBE2436:
.LBE2435:
	.loc 2 1277 0
	lwz 31,8(3)
.LBB2441:
.LBB2439:
	.loc 4 452 0
	fadds 12,11,12
.LBE2439:
.LBE2441:
	.loc 2 1277 0
	mr 3,30
.LVL64:
.LBB2442:
.LBB2440:
.LBB2437:
.LBB2438:
	.loc 4 397 0
	stfs 13,32(1)
	.loc 4 398 0
	stfs 0,36(1)
.LVL65:
	.loc 4 396 0
	stfs 12,28(1)
.LBE2438:
.LBE2437:
.LBE2440:
.LBE2442:
	.loc 2 1277 0
	bl _ZNK11idClipModel6HandleEv
.LVL66:
	mr 10,3
.LVL67:
	lis 3,gameLocal+2311032@ha
	addi 0,30,28
	addi 11,30,16
	mr 7,27
	mr 4,29
	mr 5,28
	addi 6,1,28
	addi 8,27,28
	mr 9,31
	la 3,gameLocal+2311032@l(3)
	stw 0,12(1)
	stw 11,8(1)
	bl _ZN6idClip16TranslationModelER7trace_sRK6idVec3S4_PK11idClipModelRK6idMat3iiS4_SA_
	.loc 2 1283 0
	lwz 0,76(1)
	lwz 27,52(1)
.LVL68:
	mtlr 0
	lwz 28,56(1)
.LVL69:
	lwz 29,60(1)
.LVL70:
	lwz 30,64(1)
.LVL71:
	lwz 31,68(1)
	addi 1,1,72
	.cfi_remember_state
.LCFI13:
	.cfi_def_cfa_offset 0
	.cfi_restore 31
	.cfi_restore 30
	.cfi_restore 29
	.cfi_restore 28
	.cfi_restore 27
	blr
.LVL72:
.L34:
.LCFI14:
	.cfi_restore_state
	.loc 2 1280 0
	lwz 7,436(3)
.LVL73:
	.loc 2 1281 0
	addi 6,1,16
.LVL74:
.LBB2443:
.LBB2444:
	.loc 4 452 0
	lfs 13,4(5)
	mr 11,7
	lfs 0,8(5)
	lfsu 11,16(11)
.LBE2444:
.LBE2443:
	.loc 2 1281 0
	addi 8,7,28
.LBB2454:
.LBB2449:
	.loc 4 452 0
	lfs 12,0(5)
	lfs 9,20(7)
.LBE2449:
.LBE2454:
	.loc 2 1281 0
	mr 5,11
.LVL75:
.LBB2455:
.LBB2450:
	.loc 4 452 0
	lfs 10,24(7)
	fadds 12,11,12
	fadds 13,9,13
.LBE2450:
.LBE2455:
	.loc 2 1281 0
	lwz 9,8(3)
.LBB2456:
.LBB2451:
	.loc 4 452 0
	fadds 0,10,0
.LVL76:
.LBE2451:
.LBE2456:
	.loc 2 1281 0
	lwz 10,4(3)
	lis 3,gameLocal+2311032@ha
.LVL77:
.LBB2457:
.LBB2452:
.LBB2445:
.LBB2446:
	.loc 4 396 0
	stfs 12,16(1)
.LBE2446:
.LBE2445:
.LBE2452:
.LBE2457:
	.loc 2 1281 0
	la 3,gameLocal+2311032@l(3)
.LBB2458:
.LBB2453:
.LBB2448:
.LBB2447:
	.loc 4 397 0
	stfs 13,20(1)
	.loc 4 398 0
	stfs 0,24(1)
.LVL78:
.LBE2447:
.LBE2448:
.LBE2453:
.LBE2458:
	.loc 2 1281 0
	bl _ZN6idClip11TranslationER7trace_sRK6idVec3S4_PK11idClipModelRK6idMat3iPK8idEntity
.LVL79:
	.loc 2 1283 0
	lwz 0,76(1)
	lwz 27,52(1)
	mtlr 0
	lwz 28,56(1)
	lwz 29,60(1)
.LVL80:
	lwz 30,64(1)
.LVL81:
	lwz 31,68(1)
	addi 1,1,72
	.cfi_restore 27
	.cfi_restore 28
	.cfi_restore 29
	.cfi_restore 30
	.cfi_restore 31
.LCFI15:
	.cfi_def_cfa_offset 0
	blr
	.cfi_endproc
.LFE2888:
	.size	_ZNK19idPhysics_RigidBody15ClipTranslationER7trace_sRK6idVec3PK11idClipModel, .-_ZNK19idPhysics_RigidBody15ClipTranslationER7trace_sRK6idVec3PK11idClipModel
	.align 2
	.globl _ZNK19idPhysics_RigidBody17GetLinearVelocityEi
	.type	_ZNK19idPhysics_RigidBody17GetLinearVelocityEi, @function
_ZNK19idPhysics_RigidBody17GetLinearVelocityEi:
.LFB2886:
	.loc 2 1248 0
	.cfi_startproc
.LVL82:
	stwu 1,-24(1)
.LCFI16:
	.cfi_def_cfa_offset 24
	mflr 0
	stw 31,20(1)
.LBB2459:
	.loc 2 1249 0
	lis 31,.LANCHOR0@ha
	.cfi_offset 31, -4
	.cfi_register 65, 0
	la 31,.LANCHOR0@l(31)
.LBE2459:
	.loc 2 1248 0
	stw 29,12(1)
.LBB2464:
	.loc 2 1249 0
	addi 29,31,80
	.cfi_offset 29, -12
.LBE2464:
	.loc 2 1248 0
	stw 30,16(1)
	mr 30,3
	.cfi_offset 30, -8
.LBB2465:
	.loc 2 1249 0
	mr 3,29
.LVL83:
.LBE2465:
	.loc 2 1248 0
	stw 0,28(1)
.LBB2466:
	.loc 2 1249 0
	.cfi_offset 65, 4
	bl __cxa_guard_acquire
.LVL84:
	cmpwi 7,3,0
	beq+ 7,.L37
	.loc 2 1249 0 is_stmt 0 discriminator 1
	mr 3,29
	bl __cxa_guard_release
.L37:
	.loc 2 1250 0 is_stmt 1
	lfs 0,444(30)
.LVL85:
.LBE2466:
	.loc 2 1252 0
	addi 3,31,88
.LBB2467:
.LBB2460:
.LBB2461:
	.loc 4 439 0
	lfs 12,224(30)
	lfs 13,228(30)
	lfs 11,220(30)
	fmuls 12,0,12
	fmuls 13,0,13
.LVL86:
	fmuls 0,0,11
.LBE2461:
.LBE2460:
.LBB2462:
.LBB2463:
	.loc 4 425 0
	stfs 12,92(31)
	.loc 4 426 0
	stfs 13,96(31)
	.loc 4 424 0
	stfs 0,88(31)
.LBE2463:
.LBE2462:
.LBE2467:
	.loc 2 1252 0
	lwz 0,28(1)
	lwz 29,12(1)
	mtlr 0
	lwz 30,16(1)
.LVL87:
	lwz 31,20(1)
	addi 1,1,24
.LCFI17:
	.cfi_def_cfa_offset 0
	.cfi_restore 31
	.cfi_restore 30
	.cfi_restore 29
	blr
	.cfi_endproc
.LFE2886:
	.size	_ZNK19idPhysics_RigidBody17GetLinearVelocityEi, .-_ZNK19idPhysics_RigidBody17GetLinearVelocityEi
	.align 2
	.globl _ZN19idPhysics_RigidBody8ActivateEv
	.type	_ZN19idPhysics_RigidBody8ActivateEv, @function
_ZN19idPhysics_RigidBody8ActivateEv:
.LFB2859:
	.loc 2 757 0
	.cfi_startproc
.LVL88:
	mflr 0
	stwu 1,-8(1)
.LCFI18:
	.cfi_def_cfa_offset 8
	.cfi_register 65, 0
	.loc 2 759 0
	li 4,2
	.loc 2 757 0
	stw 0,12(1)
	.loc 2 758 0
	li 0,-1
	.cfi_offset 65, 4
	stw 0,68(3)
	.loc 2 759 0
	lwz 3,4(3)
.LVL89:
	bl _ZN8idEntity12BecomeActiveEi
	.loc 2 760 0
	lwz 0,12(1)
	addi 1,1,8
.LCFI19:
	.cfi_def_cfa_offset 0
	mtlr 0
	blr
	.cfi_endproc
.LFE2859:
	.size	_ZN19idPhysics_RigidBody8ActivateEv, .-_ZN19idPhysics_RigidBody8ActivateEv
	.align 2
	.globl _ZN19idPhysics_RigidBodyD2Ev
	.type	_ZN19idPhysics_RigidBodyD2Ev, @function
_ZN19idPhysics_RigidBodyD2Ev:
.LFB2842:
	.loc 2 486 0
	.cfi_startproc
	.cfi_personality 0,__gxx_personality_v0
	.cfi_lsda 0,.LLSDA2842
.LVL90:
	mflr 0
	stwu 1,-16(1)
.LCFI20:
	.cfi_def_cfa_offset 16
	.cfi_register 65, 0
.LBB2468:
	lis 9,_ZTV19idPhysics_RigidBody+8@ha
.LBE2468:
	stw 31,12(1)
	mr 31,3
	.cfi_offset 31, -4
	stw 0,20(1)
.LBB2469:
	la 0,_ZTV19idPhysics_RigidBody+8@l(9)
	.cfi_offset 65, 4
.LBE2469:
	stw 30,8(1)
.LBB2470:
	.loc 2 486 0
	stw 0,0(3)
	.loc 2 487 0
	lwz 30,436(3)
	.cfi_offset 30, -8
	cmpwi 7,30,0
	beq- 7,.L40
	.loc 2 488 0
	mr 3,30
.LVL91:
.LEHB0:
	bl _ZN11idClipModelD1Ev
	.loc 2 488 0 is_stmt 0 discriminator 1
	mr 3,30
	bl _ZdlPv
	.loc 2 489 0 is_stmt 1 discriminator 1
	li 0,0
	stw 0,436(31)
.L40:
	.loc 2 491 0
	lwz 3,532(31)
	cmpwi 7,3,0
	beq- 7,.L41
	.loc 2 491 0 is_stmt 0 discriminator 1
	lwz 9,0(3)
	lwz 0,4(9)
	mtctr 0
	bctrl
.LEHE0:
.L41:
	.loc 2 486 0 is_stmt 1
	mr 3,31
.LEHB1:
	bl _ZN14idPhysics_BaseD2Ev
.LEHE1:
.LBE2470:
	.loc 2 492 0
	lwz 0,20(1)
	lwz 30,8(1)
	mtlr 0
	lwz 31,12(1)
.LVL92:
	addi 1,1,16
	.cfi_remember_state
.LCFI21:
	.cfi_def_cfa_offset 0
	.cfi_restore 31
	.cfi_restore 30
	blr
.LVL93:
.L44:
.LCFI22:
	.cfi_restore_state
	mr 30,3
.LBB2471:
	.loc 2 486 0
	mr 3,31
	bl _ZN14idPhysics_BaseD2Ev
	mr 3,30
.LEHB2:
	bl _Unwind_Resume
.LEHE2:
.LBE2471:
	.cfi_endproc
.LFE2842:
	.globl __gxx_personality_v0
	.section	.gcc_except_table,"a",@progbits
.LLSDA2842:
	.byte	0xff
	.byte	0xff
	.byte	0x1
	.uleb128 .LLSDACSE2842-.LLSDACSB2842
.LLSDACSB2842:
	.uleb128 .LEHB0-.LFB2842
	.uleb128 .LEHE0-.LEHB0
	.uleb128 .L44-.LFB2842
	.uleb128 0
	.uleb128 .LEHB1-.LFB2842
	.uleb128 .LEHE1-.LEHB1
	.uleb128 0
	.uleb128 0
	.uleb128 .LEHB2-.LFB2842
	.uleb128 .LEHE2-.LEHB2
	.uleb128 0
	.uleb128 0
.LLSDACSE2842:
	.section	".text"
	.size	_ZN19idPhysics_RigidBodyD2Ev, .-_ZN19idPhysics_RigidBodyD2Ev
	.align 2
	.globl _ZN19idPhysics_RigidBodyD0Ev
	.type	_ZN19idPhysics_RigidBodyD0Ev, @function
_ZN19idPhysics_RigidBodyD0Ev:
.LFB2844:
	.loc 2 486 0
	.cfi_startproc
.LVL94:
	stwu 1,-16(1)
.LCFI23:
	.cfi_def_cfa_offset 16
	mflr 0
	stw 31,12(1)
	mr 31,3
	.cfi_offset 31, -4
	.cfi_register 65, 0
	stw 0,20(1)
	.loc 2 492 0
	.cfi_offset 65, 4
	bl _ZN19idPhysics_RigidBodyD1Ev
.LVL95:
	mr 3,31
	bl _ZN7idClassdlEPv
	lwz 0,20(1)
	lwz 31,12(1)
.LVL96:
	mtlr 0
	addi 1,1,16
.LCFI24:
	.cfi_def_cfa_offset 0
	.cfi_restore 31
	blr
	.cfi_endproc
.LFE2844:
	.size	_ZN19idPhysics_RigidBodyD0Ev, .-_ZN19idPhysics_RigidBodyD0Ev
	.align 2
	.globl _ZNK19idPhysics_RigidBody12ClipContentsEPK11idClipModel
	.type	_ZNK19idPhysics_RigidBody12ClipContentsEPK11idClipModel, @function
_ZNK19idPhysics_RigidBody12ClipContentsEPK11idClipModel:
.LFB2890:
	.loc 2 1307 0
	.cfi_startproc
.LVL97:
	stwu 1,-16(1)
.LCFI25:
	.cfi_def_cfa_offset 16
	mflr 0
	stw 31,12(1)
	.loc 2 1308 0
	mr. 31,4
	.cfi_offset 31, -4
	.cfi_register 65, 0
	.loc 2 1307 0
	stw 0,20(1)
	stw 30,8(1)
	.loc 2 1308 0
	beq- 0,.L48
	.cfi_offset 30, -8
	.cfi_offset 65, 4
	.loc 2 1309 0
	lwz 30,436(3)
.LVL98:
	.loc 2 1310 0
	mr 3,31
.LVL99:
	bl _ZNK11idClipModel6HandleEv
.LVL100:
	addi 9,31,16
	mr 8,3
.LVL101:
	lis 3,gameLocal+2311032@ha
	mr 5,30
	addi 4,30,16
	addi 6,30,28
	addi 10,31,28
	la 3,gameLocal+2311032@l(3)
	li 7,-1
	bl _ZN6idClip13ContentsModelERK6idVec3PK11idClipModelRK6idMat3iiS2_S8_
	.loc 2 1315 0
	lwz 0,20(1)
	lwz 30,8(1)
.LVL102:
	mtlr 0
	lwz 31,12(1)
.LVL103:
	addi 1,1,16
	.cfi_remember_state
.LCFI26:
	.cfi_def_cfa_offset 0
	.cfi_restore 31
	.cfi_restore 30
	blr
.LVL104:
.L48:
.LCFI27:
	.cfi_restore_state
.LBB2474:
.LBB2475:
	.loc 2 1313 0
	lwz 4,436(3)
.LVL105:
	lis 3,gameLocal+2311032@ha
.LVL106:
	la 3,gameLocal+2311032@l(3)
	li 7,-1
	mr 5,4
	li 8,0
	addi 4,4,16
.LVL107:
	addi 6,5,28
	bl _ZN6idClip8ContentsERK6idVec3PK11idClipModelRK6idMat3iPK8idEntity
.LVL108:
.LBE2475:
.LBE2474:
	.loc 2 1315 0
	lwz 0,20(1)
	lwz 30,8(1)
	mtlr 0
	lwz 31,12(1)
.LVL109:
	addi 1,1,16
	.cfi_restore 30
	.cfi_restore 31
.LCFI28:
	.cfi_def_cfa_offset 0
	blr
	.cfi_endproc
.LFE2890:
	.size	_ZNK19idPhysics_RigidBody12ClipContentsEPK11idClipModel, .-_ZNK19idPhysics_RigidBody12ClipContentsEPK11idClipModel
	.align 2
	.globl _ZNK19idPhysics_RigidBody12ClipRotationER7trace_sRK10idRotationPK11idClipModel
	.type	_ZNK19idPhysics_RigidBody12ClipRotationER7trace_sRK10idRotationPK11idClipModel, @function
_ZNK19idPhysics_RigidBody12ClipRotationER7trace_sRK10idRotationPK11idClipModel:
.LFB2889:
	.loc 2 1290 0
	.cfi_startproc
.LVL110:
	stwu 1,-40(1)
.LCFI29:
	.cfi_def_cfa_offset 40
	mflr 0
	stw 29,28(1)
	.loc 2 1291 0
	mr. 29,6
	.cfi_offset 29, -12
	.cfi_register 65, 0
	.loc 2 1290 0
	stw 28,24(1)
	mr 28,4
	.cfi_offset 28, -16
	stw 31,36(1)
	mr 31,5
	.cfi_offset 31, -4
	stw 0,44(1)
	stw 27,20(1)
	stw 30,32(1)
	.loc 2 1291 0
	beq- 0,.L51
	.cfi_offset 30, -8
	.cfi_offset 27, -20
	.cfi_offset 65, 4
	.loc 2 1292 0
	lwz 27,436(3)
.LVL111:
	.loc 2 1294 0
	lwz 30,8(3)
	mr 3,29
.LVL112:
	bl _ZNK11idClipModel6HandleEv
.LVL113:
	addi 0,29,28
	mr 10,3
.LVL114:
	lis 3,gameLocal+2311032@ha
	addi 11,29,16
	mr 7,27
	mr 4,28
	addi 5,27,16
	mr 6,31
	addi 8,27,28
	mr 9,30
	la 3,gameLocal+2311032@l(3)
	stw 0,12(1)
	stw 11,8(1)
	bl _ZN6idClip13RotationModelER7trace_sRK6idVec3RK10idRotationPK11idClipModelRK6idMat3iiS4_SD_
	.loc 2 1300 0
	lwz 0,44(1)
	lwz 27,20(1)
.LVL115:
	mtlr 0
	lwz 28,24(1)
.LVL116:
	lwz 29,28(1)
.LVL117:
	lwz 30,32(1)
	lwz 31,36(1)
.LVL118:
	addi 1,1,40
	.cfi_remember_state
.LCFI30:
	.cfi_def_cfa_offset 0
	.cfi_restore 31
	.cfi_restore 30
	.cfi_restore 29
	.cfi_restore 28
	.cfi_restore 27
	blr
.LVL119:
.L51:
.LCFI31:
	.cfi_restore_state
.LBB2478:
.LBB2479:
	.loc 2 1297 0
	lwz 5,436(3)
.LVL120:
	.loc 2 1298 0
	mr 6,31
.LVL121:
	lwz 9,8(3)
	mr 7,5
	lwz 10,4(3)
	lis 3,gameLocal+2311032@ha
.LVL122:
	addi 5,5,16
.LVL123:
	la 3,gameLocal+2311032@l(3)
	addi 8,7,28
	bl _ZN6idClip8RotationER7trace_sRK6idVec3RK10idRotationPK11idClipModelRK6idMat3iPK8idEntity
.LVL124:
.LBE2479:
.LBE2478:
	.loc 2 1300 0
	lwz 0,44(1)
	lwz 27,20(1)
	mtlr 0
	lwz 28,24(1)
.LVL125:
	lwz 29,28(1)
.LVL126:
	lwz 30,32(1)
	lwz 31,36(1)
.LVL127:
	addi 1,1,40
	.cfi_restore 27
	.cfi_restore 28
	.cfi_restore 29
	.cfi_restore 30
	.cfi_restore 31
.LCFI32:
	.cfi_def_cfa_offset 0
	blr
	.cfi_endproc
.LFE2889:
	.size	_ZNK19idPhysics_RigidBody12ClipRotationER7trace_sRK10idRotationPK11idClipModel, .-_ZNK19idPhysics_RigidBody12ClipRotationER7trace_sRK10idRotationPK11idClipModel
	.align 2
	.type	_Z41__static_initialization_and_destruction_0ii.constprop.38, @function
_Z41__static_initialization_and_destruction_0ii.constprop.38:
.LFB3232:
	.loc 2 1542 0
	.cfi_startproc
.LVL128:
	cmpwi 7,3,1
	mflr 0
	stwu 1,-48(1)
.LCFI33:
	.cfi_def_cfa_offset 48
	.cfi_register 65, 0
	stw 0,52(1)
	stw 29,36(1)
	stw 30,40(1)
	stw 31,44(1)
	.loc 2 1542 0
	beq- 7,.L56
	.cfi_offset 31, -4
	.cfi_offset 30, -8
	.cfi_offset 29, -12
	.cfi_offset 65, 4
	.loc 2 1456 0
	cmpwi 7,3,0
	bne- 7,.L53
	.loc 2 34 0
	lis 3,.LANCHOR0@ha
.LVL129:
	la 3,.LANCHOR0@l(3)
	bl _ZN10idTypeInfoD1Ev
.L53:
	.loc 2 1542 0
	lwz 0,52(1)
	lwz 29,36(1)
	mtlr 0
	lwz 30,40(1)
	lwz 31,44(1)
	addi 1,1,48
	.cfi_remember_state
.LCFI34:
	.cfi_def_cfa_offset 0
	.cfi_restore 31
	.cfi_restore 30
	.cfi_restore 29
	blr
.LVL130:
.L56:
.LCFI35:
	.cfi_restore_state
	.file 5 "d:/Data/Nintendo/DoomGX/src/game/physics/../Game_local.h"
	.loc 5 694 0
	lis 9,_ZN6idMath8M_SEC2MSE@ha
	.loc 5 121 0
	lis 31,.LANCHOR0@ha
	.loc 5 694 0
	lfs 0,_ZN6idMath8M_SEC2MSE@l(9)
	.loc 5 121 0
	la 31,.LANCHOR0@l(31)
.LBB2480:
.LBB2481:
	.loc 4 396 0
	li 11,0
.LBE2481:
.LBE2480:
	.file 6 "d:/Data/Nintendo/DoomGX/src/game/physics/../Player.h"
	.loc 6 69 0
	li 30,10
	.loc 5 694 0
	fadds 0,0,0
.LBB2484:
.LBB2482:
	.loc 4 396 0
	stw 11,104(31)
	.loc 4 397 0
	stw 11,108(31)
	.loc 4 398 0
	lis 11,.LC0@ha
	lwz 11,.LC0@l(11)
.LBE2482:
.LBE2484:
.LBB2485:
.LBB2486:
	.file 7 "d:/Data/Nintendo/DoomGX/src/game/physics/../../idlib/../idlib/math/Math.h"
	.loc 7 825 0
	addi 12,31,116
	fctiwz 0,0
.LBE2486:
.LBE2485:
	.loc 5 121 0
	li 29,3
.LBB2488:
.LBB2483:
	.loc 4 398 0
	stw 11,112(31)
.LBE2483:
.LBE2488:
	.loc 2 34 0
	lis 11,_ZN7idClass5SpawnEv@ha
	la 11,_ZN7idClass5SpawnEv@l(11)
	.loc 5 121 0
	stw 29,100(31)
.LVL131:
.LBB2489:
.LBB2487:
	.loc 7 825 0
	stfiwx 0,0,12
.LVL132:
.LBE2487:
.LBE2489:
	.loc 2 34 0
	lis 4,.LC1@ha
	.loc 6 69 0
	stw 30,120(31)
	.loc 2 34 0
	lis 5,.LC2@ha
	stw 11,8(1)
	lis 11,_ZNK19idPhysics_RigidBody4SaveEP10idSaveGame@ha
	la 11,_ZNK19idPhysics_RigidBody4SaveEP10idSaveGame@l(11)
	lis 7,_ZN19idPhysics_RigidBody14CreateInstanceEv@ha
	stw 11,16(1)
	lis 11,_ZN19idPhysics_RigidBody7RestoreEP13idRestoreGame@ha
	li 0,0
	la 11,_ZN19idPhysics_RigidBody7RestoreEP13idRestoreGame@l(11)
	addi 9,1,16
	addi 10,1,24
	mr 3,31
.LVL133:
	la 4,.LC1@l(4)
	la 5,.LC2@l(5)
	addi 6,31,124
	la 7,_ZN19idPhysics_RigidBody14CreateInstanceEv@l(7)
	addi 8,1,8
	stw 0,12(1)
	stw 0,20(1)
	stw 11,24(1)
	stw 0,28(1)
	bl _ZN10idTypeInfoC1EPKcS1_P11idEventFuncI7idClassEPFPS3_vEMS3_FvvEMS3_KFvP10idSaveGameEMS3_FvP13idRestoreGameE
.LVL134:
	.loc 2 1447 0
	lis 11,RB_VELOCITY_EXPONENT_BITS@ha
	li 10,5
	.loc 2 1451 0
	li 9,8
	.loc 2 1452 0
	li 0,7
	.loc 2 1447 0
	stw 10,RB_VELOCITY_EXPONENT_BITS@l(11)
	.loc 2 1448 0
	lis 11,RB_VELOCITY_MANTISSA_BITS@ha
	stw 30,RB_VELOCITY_MANTISSA_BITS@l(11)
.LVL135:
	.loc 2 1451 0
	stw 9,136(31)
	.loc 2 1452 0
	stw 0,140(31)
.LVL136:
	.loc 2 1455 0
	stw 9,144(31)
	.loc 2 1456 0
	stw 0,148(31)
	b .L53
	.cfi_endproc
.LFE3232:
	.size	_Z41__static_initialization_and_destruction_0ii.constprop.38, .-_Z41__static_initialization_and_destruction_0ii.constprop.38
	.section	.text._ZN14idFixedWindingD0Ev,"axG",@progbits,_ZN14idFixedWindingD5Ev,comdat
	.align 2
	.weak	_ZN14idFixedWindingD0Ev
	.type	_ZN14idFixedWindingD0Ev, @function
_ZN14idFixedWindingD0Ev:
.LFB1500:
	.loc 1 380 0
	.cfi_startproc
.LVL137:
	mflr 0
	stwu 1,-8(1)
.LCFI36:
	.cfi_def_cfa_offset 8
	.cfi_register 65, 0
.LBB2496:
.LBB2497:
.LBB2498:
.LBB2499:
.LBB2500:
.LBB2501:
	.loc 1 183 0
	lis 11,_ZTV9idWinding+8@ha
.LBE2501:
.LBE2500:
.LBE2499:
.LBE2498:
.LBE2497:
.LBE2496:
	.loc 1 380 0
	stw 0,12(1)
.LBB2507:
.LBB2506:
.LBB2505:
	.loc 1 381 0
	li 0,0
	.cfi_offset 65, 4
	stw 0,8(3)
.LVL138:
.LBB2504:
.LBB2503:
.LBB2502:
	.loc 1 183 0
	la 0,_ZTV9idWinding+8@l(11)
	stw 0,0(3)
.LBE2502:
.LBE2503:
.LBE2504:
.LBE2505:
.LBE2506:
.LBE2507:
	.loc 1 382 0
	bl _ZdlPv
.LVL139:
	lwz 0,12(1)
	addi 1,1,8
.LCFI37:
	.cfi_def_cfa_offset 0
	mtlr 0
	blr
	.cfi_endproc
.LFE1500:
	.size	_ZN14idFixedWindingD0Ev, .-_ZN14idFixedWindingD0Ev
	.section	.text._ZN14idFixedWindingD2Ev,"axG",@progbits,_ZN14idFixedWindingD5Ev,comdat
	.align 2
	.weak	_ZN14idFixedWindingD2Ev
	.type	_ZN14idFixedWindingD2Ev, @function
_ZN14idFixedWindingD2Ev:
.LFB1498:
	.loc 1 380 0
	.cfi_startproc
.LVL140:
.LBB2513:
	.loc 1 381 0
	li 0,0
.LBB2514:
.LBB2515:
.LBB2516:
	.loc 1 183 0
	lis 9,_ZTV9idWinding+8@ha
.LBE2516:
.LBE2515:
.LBE2514:
	.loc 1 381 0
	stw 0,8(3)
.LVL141:
.LBB2519:
.LBB2518:
.LBB2517:
	.loc 1 183 0
	la 0,_ZTV9idWinding+8@l(9)
	stw 0,0(3)
.LBE2517:
.LBE2518:
.LBE2519:
.LBE2513:
	.loc 1 382 0
	blr
	.cfi_endproc
.LFE1498:
	.size	_ZN14idFixedWindingD2Ev, .-_ZN14idFixedWindingD2Ev
	.section	.text._ZN9idWindingD0Ev,"axG",@progbits,_ZN9idWindingD5Ev,comdat
	.align 2
	.weak	_ZN9idWindingD0Ev
	.type	_ZN9idWindingD0Ev, @function
_ZN9idWindingD0Ev:
.LFB1463:
	.loc 1 183 0
	.cfi_startproc
.LVL142:
	mflr 0
	stwu 1,-16(1)
.LCFI38:
	.cfi_def_cfa_offset 16
	.cfi_register 65, 0
.LBB2523:
.LBB2524:
.LBB2525:
	lis 9,_ZTV9idWinding+8@ha
.LBE2525:
.LBE2524:
.LBE2523:
	stw 31,12(1)
	mr 31,3
	.cfi_offset 31, -4
.LVL143:
	stw 0,20(1)
.LBB2530:
.LBB2528:
.LBB2526:
	.loc 1 183 0
	la 0,_ZTV9idWinding+8@l(9)
	.cfi_offset 65, 4
	.loc 1 184 0
	lwz 3,8(3)
.LVL144:
	.loc 1 183 0
	stw 0,0(31)
	.loc 1 184 0
	cmpwi 7,3,0
	beq- 7,.L65
	bl _ZdaPv
.L65:
	.loc 1 185 0
	li 0,0
.LBE2526:
.LBE2528:
.LBE2530:
	.loc 1 186 0
	mr 3,31
.LBB2531:
.LBB2529:
.LBB2527:
	.loc 1 185 0
	stw 0,8(31)
.LBE2527:
.LBE2529:
.LBE2531:
	.loc 1 186 0
	bl _ZdlPv
	lwz 0,20(1)
	lwz 31,12(1)
.LVL145:
	mtlr 0
	addi 1,1,16
.LCFI39:
	.cfi_def_cfa_offset 0
	.cfi_restore 31
	blr
	.cfi_endproc
.LFE1463:
	.size	_ZN9idWindingD0Ev, .-_ZN9idWindingD0Ev
	.section	".text"
	.align 2
	.globl _ZN19idPhysics_RigidBody7SetMassEfi
	.type	_ZN19idPhysics_RigidBody7SetMassEfi, @function
_ZN19idPhysics_RigidBody7SetMassEfi:
.LFB2852:
	.loc 2 676 0
	.cfi_startproc
.LVL146:
	mflr 0
	stwu 1,-104(1)
.LCFI40:
	.cfi_def_cfa_offset 104
	.cfi_register 65, 0
.LBB2549:
.LBB2550:
.LBB2551:
.LBB2552:
	.file 8 "d:/Data/Nintendo/DoomGX/src/game/physics/../../idlib/../idlib/math/Matrix.h"
	.loc 8 333 0
	li 10,0
	.loc 2 676 0
	addi 7,3,472
.LBE2552:
.LBE2551:
.LBE2550:
.LBE2549:
	stfd 31,96(1)
.LBB2586:
.LBB2579:
.LBB2572:
.LBB2565:
	.loc 8 333 0
	cmpwi 7,10,24
.LBE2565:
.LBE2572:
.LBE2579:
.LBE2586:
	.loc 2 676 0
	stw 0,108(1)
.LBB2587:
.LBB2580:
.LBB2573:
.LBB2566:
.LBB2553:
.LBB2554:
	.loc 4 424 0
	addi 9,1,44
.LBE2554:
.LBE2553:
.LBE2566:
.LBE2573:
.LBE2580:
.LBE2587:
	.loc 2 676 0
	stw 31,92(1)
.LBB2588:
.LBB2581:
.LBB2574:
.LBB2567:
	.loc 8 333 0
	addi 0,3,460
	.cfi_offset 31, -12
	.cfi_offset 65, 4
	.cfi_offset 63, -8
	mr 8,0
.LBE2567:
.LBE2574:
.LBE2581:
.LBE2588:
	.loc 2 676 0
	mr 31,3
	.loc 2 678 0
	lfs 0,440(3)
	.loc 2 676 0
	fmr 31,1
.LBB2589:
.LBB2590:
	.loc 8 501 0
	lfs 11,460(3)
.LBE2590:
.LBE2589:
.LBB2594:
.LBB2582:
.LBB2575:
.LBB2568:
	.loc 2 676 0
	subf 11,0,8
.LBE2568:
.LBE2575:
.LBE2582:
.LBE2594:
	.loc 2 678 0
	fdivs 0,1,0
.LVL147:
.LBB2595:
.LBB2591:
	.loc 8 501 0
	lfs 12,464(3)
	lfs 13,468(3)
	.loc 8 502 0
	lfs 6,472(3)
	lfs 7,476(3)
	lfs 8,480(3)
	.loc 8 503 0
	lfs 9,484(3)
	lfs 10,488(3)
	lfs 5,492(3)
	.loc 8 501 0
	fmuls 11,0,11
	fmuls 12,0,12
	fmuls 13,0,13
	.loc 8 502 0
	fmuls 6,6,0
.LBE2591:
.LBE2595:
.LBB2596:
.LBB2583:
.LBB2576:
.LBB2569:
.LBB2560:
.LBB2555:
	.loc 4 424 0
	stfsux 11,9,10
.LBE2555:
.LBE2560:
.LBE2569:
.LBE2576:
.LBE2583:
.LBE2596:
.LBB2597:
.LBB2592:
	.loc 8 502 0
	fmuls 7,7,0
	.loc 8 501 0
	stfs 11,460(3)
	.loc 8 502 0
	fmuls 8,8,0
	.loc 8 501 0
	stfs 12,464(3)
	.loc 8 503 0
	fmuls 9,9,0
	.loc 8 501 0
	stfs 13,468(3)
	.loc 8 503 0
	fmuls 10,10,0
	.loc 8 502 0
	stfs 6,472(3)
	.loc 8 503 0
	fmuls 0,5,0
.LVL148:
	.loc 8 502 0
	stfs 7,476(3)
	stfs 8,480(3)
.LBE2592:
.LBE2597:
.LBB2598:
.LBB2584:
.LBB2577:
.LBB2570:
	.loc 8 333 0
	addi 10,10,12
.LBE2570:
.LBE2577:
.LBE2584:
.LBE2598:
.LBB2599:
.LBB2593:
	.loc 8 503 0
	stfs 9,484(3)
	stfs 10,488(3)
	stfs 0,492(3)
.LVL149:
.LBE2593:
.LBE2599:
.LBB2600:
.LBB2585:
.LBB2578:
.LBB2571:
.LBB2561:
.LBB2556:
	.loc 4 425 0
	stfs 12,4(9)
	.loc 4 426 0
	stfs 13,8(9)
.LBE2556:
.LBE2561:
	.loc 8 333 0
	beq- 7,.L69
.LVL150:
.L73:
	.loc 2 676 0
	lfsux 11,11,7
	.loc 8 333 0
	cmpwi 7,10,24
.LBB2562:
.LBB2557:
	.loc 4 424 0
	addi 9,1,44
.LVL151:
.LBE2557:
.LBE2562:
	.loc 2 676 0
	addi 8,8,12
.LBB2563:
.LBB2558:
	.loc 4 424 0
	stfsux 11,9,10
.LVL152:
.LBE2558:
.LBE2563:
	.loc 8 333 0
	addi 10,10,12
	.loc 2 676 0
	lfs 12,4(11)
	lfs 13,8(11)
	subf 11,0,8
.LBB2564:
.LBB2559:
	.loc 4 425 0
	stfs 12,4(9)
	.loc 4 426 0
	stfs 13,8(9)
.LBE2559:
.LBE2564:
	.loc 8 333 0
	bne+ 7,.L73
.L69:
.LBE2571:
.LBE2578:
	.loc 8 703 0
	addi 3,1,44
.LVL153:
	bl _ZN6idMat311InverseSelfEv
.LVL154:
.LBE2585:
.LBE2600:
.LBB2601:
.LBB2602:
	.loc 8 483 0
	lis 9,.LC3@ha
	lfs 0,.LC3@l(9)
.LBE2602:
.LBE2601:
.LBB2618:
.LBB2619:
	.loc 8 333 0
	li 10,0
.LBE2619:
.LBE2618:
.LBB2637:
.LBB2611:
	.loc 8 483 0
	lfs 11,44(1)
.LBE2611:
.LBE2637:
.LBB2638:
.LBB2630:
	.loc 8 333 0
	addi 0,31,496
.LBE2630:
.LBE2638:
.LBB2639:
.LBB2612:
	.loc 8 483 0
	lfs 12,48(1)
.LBE2612:
.LBE2639:
.LBB2640:
.LBB2631:
	.loc 8 333 0
	cmpwi 7,10,24
.LBE2631:
.LBE2640:
.LBB2641:
.LBB2613:
	.loc 8 483 0
	fmuls 11,11,0
	lfs 13,52(1)
	lfs 6,56(1)
	fmuls 12,12,0
	lfs 7,60(1)
	fmuls 13,13,0
	lfs 8,64(1)
.LBE2613:
.LBE2641:
.LBB2642:
.LBB2632:
.LBB2620:
.LBB2621:
	.loc 4 424 0
	mr 9,0
.LBE2621:
.LBE2620:
.LBE2632:
.LBE2642:
.LBB2643:
.LBB2614:
	.loc 8 483 0
	lfs 9,68(1)
	fmuls 6,6,0
	lfs 10,72(1)
	fmuls 7,7,0
	lfs 5,76(1)
	fmuls 8,8,0
	fmuls 9,9,0
.LBE2614:
.LBE2643:
.LBB2644:
.LBB2633:
.LBB2626:
.LBB2622:
	.loc 4 424 0
	stfsux 11,9,10
.LBE2622:
.LBE2626:
.LBE2633:
.LBE2644:
.LBB2645:
.LBB2615:
	.loc 8 483 0
	fmuls 10,10,0
.LBB2603:
.LBB2604:
	.loc 8 425 0
	stfs 11,8(1)
.LBE2604:
.LBE2603:
	.loc 8 483 0
	fmuls 0,5,0
.LVL155:
.LBB2608:
.LBB2605:
	.loc 8 425 0
	stfs 12,12(1)
	stfs 13,16(1)
.LBE2605:
.LBE2608:
.LBE2615:
.LBE2645:
.LBB2646:
.LBB2634:
	.loc 8 333 0
	addi 11,1,8
.LBE2634:
.LBE2646:
.LBB2647:
.LBB2616:
.LBB2609:
.LBB2606:
	.loc 8 426 0
	stfs 6,20(1)
.LBE2606:
.LBE2609:
.LBE2616:
.LBE2647:
.LBB2648:
.LBB2635:
	.loc 8 333 0
	addi 10,10,12
.LBE2635:
.LBE2648:
.LBB2649:
.LBB2617:
.LBB2610:
.LBB2607:
	.loc 8 426 0
	stfs 7,24(1)
	stfs 8,28(1)
	.loc 8 427 0
	stfs 9,32(1)
	stfs 10,36(1)
	stfs 0,40(1)
.LVL156:
.LBE2607:
.LBE2610:
.LBE2617:
.LBE2649:
.LBB2650:
.LBB2636:
.LBB2627:
.LBB2623:
	.loc 4 425 0
	stfs 12,4(9)
	.loc 4 426 0
	stfs 13,8(9)
.LBE2623:
.LBE2627:
	.loc 8 333 0
	beq- 7,.L71
.LVL157:
.L74:
	lfsux 11,11,10
	cmpwi 7,10,24
.LBB2628:
.LBB2624:
	.loc 4 424 0
	mr 9,0
	stfsux 11,9,10
.LBE2624:
.LBE2628:
	.loc 8 333 0
	addi 10,10,12
	.loc 2 676 0
	lfs 12,4(11)
	lfs 13,8(11)
	.loc 8 333 0
	addi 11,1,8
.LBB2629:
.LBB2625:
	.loc 4 425 0
	stfs 12,4(9)
	.loc 4 426 0
	stfs 13,8(9)
.LBE2625:
.LBE2629:
	.loc 8 333 0
	bne+ 7,.L74
.L71:
.LBE2636:
.LBE2650:
	.loc 2 681 0
	lis 9,.LC4@ha
	.loc 2 680 0
	stfs 31,440(31)
	.loc 2 681 0
	lfs 0,.LC4@l(9)
.LVL158:
	fdivs 31,0,31
.LVL159:
	stfs 31,444(31)
	.loc 2 682 0
	lwz 0,108(1)
.LVL160:
	lwz 31,92(1)
.LVL161:
	mtlr 0
	lfd 31,96(1)
	addi 1,1,104
.LCFI41:
	.cfi_def_cfa_offset 0
	.cfi_restore 63
	.cfi_restore 31
	blr
	.cfi_endproc
.LFE2852:
	.size	_ZN19idPhysics_RigidBody7SetMassEfi, .-_ZN19idPhysics_RigidBody7SetMassEfi
	.align 2
	.globl _ZN19idPhysics_RigidBody16ReadFromSnapshotERK13idBitMsgDelta
	.type	_ZN19idPhysics_RigidBody16ReadFromSnapshotERK13idBitMsgDelta, @function
_ZN19idPhysics_RigidBody16ReadFromSnapshotERK13idBitMsgDelta:
.LFB2901:
	.loc 2 1504 0
	.cfi_startproc
.LVL162:
	stwu 1,-136(1)
.LCFI42:
	.cfi_def_cfa_offset 136
	mflr 0
	stw 31,132(1)
	mr 31,4
	.cfi_offset 31, -4
	.cfi_register 65, 0
.LVL163:
	stw 30,128(1)
.LBB2745:
.LBB2746:
.LBB2747:
	.file 9 "d:/Data/Nintendo/DoomGX/src/game/physics/../../idlib/../idlib/BitMsg.h"
	.loc 9 622 0
	li 4,32
.LVL164:
.LBE2747:
.LBE2746:
.LBE2745:
	.loc 2 1504 0
	mr 30,3
	.cfi_offset 30, -8
.LBB2886:
.LBB2750:
.LBB2748:
	.loc 9 622 0
	mr 3,31
.LVL165:
.LBE2748:
.LBE2750:
.LBE2886:
	.loc 2 1504 0
	stw 0,140(1)
	stw 25,108(1)
	stw 26,112(1)
	stw 27,116(1)
	stw 28,120(1)
	stw 29,124(1)
.LBB2887:
.LBB2751:
.LBB2749:
	.loc 9 622 0
	.cfi_offset 29, -12
	.cfi_offset 28, -16
	.cfi_offset 27, -20
	.cfi_offset 26, -24
	.cfi_offset 25, -28
	.cfi_offset 65, 4
	bl _ZNK13idBitMsgDelta8ReadBitsEi
.LBE2749:
.LBE2751:
	.loc 2 1507 0
	stw 3,68(30)
.LVL166:
.LBB2752:
.LBB2753:
	.loc 9 627 0
	li 4,32
	mr 3,31
.LBE2753:
.LBE2752:
	.loc 2 1514 0
	lis 29,.LANCHOR0@ha
.LBB2755:
.LBB2754:
	.loc 9 627 0
	bl _ZNK13idBitMsgDelta8ReadBitsEi
.LVL167:
.LBE2754:
.LBE2755:
.LBB2756:
.LBB2757:
	li 4,32
.LBE2757:
.LBE2756:
	.loc 2 1508 0
	stw 3,172(30)
.LVL168:
.LBB2760:
.LBB2758:
	.loc 9 627 0
	mr 3,31
.LVL169:
.LBE2758:
.LBE2760:
	.loc 2 1514 0
	la 29,.LANCHOR0@l(29)
.LBB2761:
.LBB2759:
	.loc 9 627 0
	bl _ZNK13idBitMsgDelta8ReadBitsEi
.LVL170:
.LBE2759:
.LBE2761:
.LBB2762:
.LBB2763:
	li 4,32
.LBE2763:
.LBE2762:
	.loc 2 1509 0
	stw 3,176(30)
.LVL171:
.LBB2765:
.LBB2764:
	.loc 9 627 0
	mr 3,31
.LVL172:
	bl _ZNK13idBitMsgDelta8ReadBitsEi
.LVL173:
.LBE2764:
.LBE2765:
.LBB2766:
.LBB2767:
	li 4,32
.LBE2767:
.LBE2766:
	.loc 2 1510 0
	stw 3,180(30)
.LVL174:
.LBB2769:
.LBB2768:
	.loc 9 627 0
	mr 3,31
.LVL175:
	bl _ZNK13idBitMsgDelta8ReadBitsEi
.LVL176:
.LBE2768:
.LBE2769:
.LBB2770:
.LBB2771:
	li 4,32
.LBE2771:
.LBE2770:
	.loc 2 1511 0
	stw 3,20(1)
.LVL177:
.LBB2773:
.LBB2772:
	.loc 9 627 0
	mr 3,31
.LVL178:
	bl _ZNK13idBitMsgDelta8ReadBitsEi
.LVL179:
.LBE2772:
.LBE2773:
.LBB2774:
.LBB2775:
	li 4,32
.LBE2775:
.LBE2774:
	.loc 2 1512 0
	stw 3,24(1)
.LVL180:
.LBB2777:
.LBB2776:
	.loc 9 627 0
	mr 3,31
.LVL181:
	bl _ZNK13idBitMsgDelta8ReadBitsEi
.LVL182:
.LBE2776:
.LBE2777:
	.loc 2 1514 0
	lwz 27,136(29)
	lwz 28,140(29)
.LBB2778:
.LBB2779:
	.loc 9 632 0
	addi 4,27,1
.LBE2779:
.LBE2778:
	.loc 2 1513 0
	stw 3,28(1)
.LVL183:
.LBB2781:
.LBB2780:
	.loc 9 632 0
	add 4,28,4
	mr 3,31
.LVL184:
	bl _ZNK13idBitMsgDelta8ReadBitsEi
.LVL185:
	.loc 9 633 0
	mr 5,28
	mr 4,27
	bl _ZN6idMath11BitsToFloatEiii
.LBE2780:
.LBE2781:
	.loc 2 1515 0
	lwz 27,136(29)
.LVL186:
	lwz 28,140(29)
.LVL187:
.LBB2782:
.LBB2783:
	.loc 9 632 0
	mr 3,31
.LBE2783:
.LBE2782:
	.loc 2 1514 0
	stfs 1,220(30)
.LVL188:
.LBB2785:
.LBB2784:
	.loc 9 632 0
	addi 4,27,1
	add 4,28,4
	bl _ZNK13idBitMsgDelta8ReadBitsEi
.LVL189:
	.loc 9 633 0
	mr 5,28
	mr 4,27
	bl _ZN6idMath11BitsToFloatEiii
.LBE2784:
.LBE2785:
	.loc 2 1516 0
	lwz 27,136(29)
.LVL190:
	lwz 28,140(29)
.LVL191:
.LBB2786:
.LBB2787:
	.loc 9 632 0
	mr 3,31
.LBE2787:
.LBE2786:
	.loc 2 1515 0
	stfs 1,224(30)
.LVL192:
.LBB2789:
.LBB2788:
	.loc 9 632 0
	addi 4,27,1
	add 4,28,4
	bl _ZNK13idBitMsgDelta8ReadBitsEi
.LVL193:
	.loc 9 633 0
	mr 5,28
	mr 4,27
	bl _ZN6idMath11BitsToFloatEiii
.LBE2788:
.LBE2789:
	.loc 2 1517 0
	lwz 27,136(29)
.LVL194:
	lwz 28,140(29)
.LVL195:
.LBB2790:
.LBB2791:
	.loc 9 632 0
	mr 3,31
.LBE2791:
.LBE2790:
	.loc 2 1516 0
	stfs 1,228(30)
.LVL196:
.LBB2793:
.LBB2792:
	.loc 9 632 0
	addi 4,27,1
	add 4,28,4
	bl _ZNK13idBitMsgDelta8ReadBitsEi
.LVL197:
	.loc 9 633 0
	mr 5,28
	mr 4,27
	bl _ZN6idMath11BitsToFloatEiii
.LBE2792:
.LBE2793:
	.loc 2 1518 0
	lwz 27,136(29)
.LVL198:
	lwz 28,140(29)
.LVL199:
.LBB2794:
.LBB2795:
	.loc 9 632 0
	mr 3,31
.LBE2795:
.LBE2794:
	.loc 2 1517 0
	stfs 1,232(30)
.LVL200:
.LBB2797:
.LBB2796:
	.loc 9 632 0
	addi 4,27,1
	add 4,28,4
	bl _ZNK13idBitMsgDelta8ReadBitsEi
.LVL201:
	.loc 9 633 0
	mr 5,28
	mr 4,27
	bl _ZN6idMath11BitsToFloatEiii
.LBE2796:
.LBE2797:
	.loc 2 1519 0
	lwz 27,136(29)
.LVL202:
	lwz 28,140(29)
.LVL203:
.LBB2798:
.LBB2799:
	.loc 9 632 0
	mr 3,31
.LBE2799:
.LBE2798:
	.loc 2 1518 0
	stfs 1,236(30)
.LVL204:
.LBB2802:
.LBB2800:
	.loc 9 632 0
	addi 4,27,1
	add 4,28,4
	bl _ZNK13idBitMsgDelta8ReadBitsEi
.LVL205:
	.loc 9 633 0
	mr 4,27
	mr 5,28
.LBE2800:
.LBE2802:
	.loc 2 1526 0
	lis 27,RB_VELOCITY_EXPONENT_BITS@ha
.LVL206:
.LBB2803:
.LBB2801:
	.loc 9 633 0
	bl _ZN6idMath11BitsToFloatEiii
.LVL207:
.LBE2801:
.LBE2803:
.LBB2804:
.LBB2805:
	.loc 9 666 0
	lwz 4,172(30)
.LBE2805:
.LBE2804:
	.loc 2 1519 0
	stfs 1,240(30)
.LVL208:
.LBB2808:
.LBB2806:
	.loc 9 666 0
	li 5,32
	mr 3,31
.LBE2806:
.LBE2808:
	.loc 2 1526 0
	lis 28,RB_VELOCITY_MANTISSA_BITS@ha
.LVL209:
.LBB2809:
.LBB2807:
	.loc 9 666 0
	bl _ZNK13idBitMsgDelta9ReadDeltaEii
.LVL210:
.LBE2807:
.LBE2809:
.LBB2810:
.LBB2811:
	lwz 4,176(30)
.LBE2811:
.LBE2810:
	.loc 2 1520 0
	stw 3,76(30)
.LVL211:
.LBB2813:
.LBB2812:
	.loc 9 666 0
	li 5,32
	mr 3,31
.LVL212:
	bl _ZNK13idBitMsgDelta9ReadDeltaEii
.LVL213:
.LBE2812:
.LBE2813:
.LBB2814:
.LBB2815:
	lwz 4,180(30)
.LBE2815:
.LBE2814:
	.loc 2 1521 0
	stw 3,80(30)
.LVL214:
.LBB2817:
.LBB2816:
	.loc 9 666 0
	li 5,32
	mr 3,31
.LVL215:
	bl _ZNK13idBitMsgDelta9ReadDeltaEii
.LVL216:
.LBE2816:
.LBE2817:
.LBB2818:
.LBB2819:
	lwz 4,20(1)
.LBE2819:
.LBE2818:
	.loc 2 1522 0
	stw 3,84(30)
.LVL217:
.LBB2821:
.LBB2820:
	.loc 9 666 0
	li 5,32
	mr 3,31
.LVL218:
	bl _ZNK13idBitMsgDelta9ReadDeltaEii
.LVL219:
.LBE2820:
.LBE2821:
.LBB2822:
.LBB2823:
	lwz 4,24(1)
.LBE2823:
.LBE2822:
	.loc 2 1523 0
	stw 3,8(1)
.LVL220:
.LBB2825:
.LBB2824:
	.loc 9 666 0
	li 5,32
	mr 3,31
.LVL221:
	bl _ZNK13idBitMsgDelta9ReadDeltaEii
.LVL222:
.LBE2824:
.LBE2825:
.LBB2826:
.LBB2827:
	lwz 4,28(1)
	li 5,32
.LBE2827:
.LBE2826:
	.loc 2 1524 0
	stw 3,12(1)
.LVL223:
.LBB2829:
.LBB2828:
	.loc 9 666 0
	mr 3,31
.LVL224:
	bl _ZNK13idBitMsgDelta9ReadDeltaEii
.LVL225:
.LBE2828:
.LBE2829:
	.loc 2 1526 0
	lwz 25,RB_VELOCITY_EXPONENT_BITS@l(27)
	lwz 26,RB_VELOCITY_MANTISSA_BITS@l(28)
.LBB2830:
.LBB2831:
	.loc 9 671 0
	lis 9,.LC5@ha
	lfs 1,.LC5@l(9)
	mr 4,26
.LBE2831:
.LBE2830:
	.loc 2 1525 0
	stw 3,16(1)
.LVL226:
.LBB2833:
.LBB2832:
	.loc 9 671 0
	mr 3,25
.LVL227:
	bl _ZN6idMath11FloatToBitsEfii
.LVL228:
	.loc 9 672 0
	addi 5,25,1
	.loc 9 671 0
	mr 4,3
.LVL229:
	.loc 9 672 0
	add 5,26,5
	mr 3,31
.LVL230:
	bl _ZNK13idBitMsgDelta9ReadDeltaEii
.LVL231:
	.loc 9 673 0
	mr 5,26
	mr 4,25
	bl _ZN6idMath11BitsToFloatEiii
.LBE2832:
.LBE2833:
	.loc 2 1527 0
	lwz 25,RB_VELOCITY_EXPONENT_BITS@l(27)
.LVL232:
	lwz 26,RB_VELOCITY_MANTISSA_BITS@l(28)
.LVL233:
.LBB2834:
.LBB2835:
	.loc 9 671 0
	lis 9,.LC5@ha
.LBE2835:
.LBE2834:
	.loc 2 1526 0
	stfs 1,124(30)
.LVL234:
.LBB2837:
.LBB2836:
	.loc 9 671 0
	mr 3,25
	lfs 1,.LC5@l(9)
	mr 4,26
	bl _ZN6idMath11FloatToBitsEfii
.LVL235:
	.loc 9 672 0
	addi 5,25,1
	.loc 9 671 0
	mr 4,3
.LVL236:
	.loc 9 672 0
	add 5,26,5
	mr 3,31
.LVL237:
	bl _ZNK13idBitMsgDelta9ReadDeltaEii
.LVL238:
	.loc 9 673 0
	mr 5,26
	mr 4,25
	bl _ZN6idMath11BitsToFloatEiii
.LBE2836:
.LBE2837:
	.loc 2 1528 0
	lwz 27,RB_VELOCITY_EXPONENT_BITS@l(27)
	lwz 28,RB_VELOCITY_MANTISSA_BITS@l(28)
.LBB2838:
.LBB2839:
	.loc 9 671 0
	lis 9,.LC5@ha
.LBE2839:
.LBE2838:
	.loc 2 1527 0
	stfs 1,128(30)
.LVL239:
.LBB2841:
.LBB2840:
	.loc 9 671 0
	mr 3,27
	lfs 1,.LC5@l(9)
	mr 4,28
	bl _ZN6idMath11FloatToBitsEfii
.LVL240:
	.loc 9 672 0
	addi 5,27,1
	.loc 9 671 0
	mr 4,3
.LVL241:
	.loc 9 672 0
	add 5,28,5
	mr 3,31
.LVL242:
	bl _ZNK13idBitMsgDelta9ReadDeltaEii
.LVL243:
	.loc 9 673 0
	mr 5,28
	mr 4,27
	bl _ZN6idMath11BitsToFloatEiii
.LBE2840:
.LBE2841:
	.loc 2 1529 0
	lwz 27,144(29)
.LVL244:
	lwz 28,148(29)
.LVL245:
.LBB2842:
.LBB2843:
	.loc 9 671 0
	lis 9,.LC5@ha
.LBE2843:
.LBE2842:
	.loc 2 1528 0
	stfs 1,132(30)
.LVL246:
.LBB2845:
.LBB2844:
	.loc 9 671 0
	mr 3,27
	lfs 1,.LC5@l(9)
	mr 4,28
	bl _ZN6idMath11FloatToBitsEfii
.LVL247:
	.loc 9 672 0
	addi 5,27,1
	.loc 9 671 0
	mr 4,3
.LVL248:
	.loc 9 672 0
	add 5,28,5
	mr 3,31
.LVL249:
	bl _ZNK13idBitMsgDelta9ReadDeltaEii
.LVL250:
	.loc 9 673 0
	mr 5,28
	mr 4,27
	bl _ZN6idMath11BitsToFloatEiii
.LBE2844:
.LBE2845:
	.loc 2 1530 0
	lwz 27,144(29)
.LVL251:
	lwz 28,148(29)
.LVL252:
.LBB2846:
.LBB2847:
	.loc 9 671 0
	lis 9,.LC5@ha
.LBE2847:
.LBE2846:
	.loc 2 1529 0
	stfs 1,148(30)
.LVL253:
.LBB2849:
.LBB2848:
	.loc 9 671 0
	mr 3,27
	lfs 1,.LC5@l(9)
	mr 4,28
	bl _ZN6idMath11FloatToBitsEfii
.LVL254:
	.loc 9 672 0
	addi 5,27,1
	.loc 9 671 0
	mr 4,3
.LVL255:
	.loc 9 672 0
	add 5,28,5
	mr 3,31
.LVL256:
	bl _ZNK13idBitMsgDelta9ReadDeltaEii
.LVL257:
	.loc 9 673 0
	mr 5,28
	mr 4,27
	bl _ZN6idMath11BitsToFloatEiii
.LBE2848:
.LBE2849:
	.loc 2 1531 0
	lwz 27,144(29)
.LVL258:
	lwz 28,148(29)
.LVL259:
.LBB2850:
.LBB2851:
	.loc 9 671 0
	lis 9,.LC5@ha
.LBE2851:
.LBE2850:
	.loc 2 1530 0
	stfs 1,152(30)
.LVL260:
.LBB2853:
.LBB2852:
	.loc 9 671 0
	mr 3,27
	lfs 1,.LC5@l(9)
	mr 4,28
	bl _ZN6idMath11FloatToBitsEfii
.LVL261:
	.loc 9 672 0
	addi 5,27,1
	.loc 9 671 0
	mr 4,3
.LVL262:
	.loc 9 672 0
	add 5,28,5
	mr 3,31
.LVL263:
	bl _ZNK13idBitMsgDelta9ReadDeltaEii
.LVL264:
	.loc 9 673 0
	mr 5,28
	mr 4,27
	bl _ZN6idMath11BitsToFloatEiii
.LBE2852:
.LBE2853:
	.loc 2 1532 0
	lwz 27,144(29)
.LVL265:
	lwz 28,148(29)
.LVL266:
.LBB2854:
.LBB2855:
	.loc 9 671 0
	lis 9,.LC5@ha
.LBE2855:
.LBE2854:
	.loc 2 1531 0
	stfs 1,156(30)
.LVL267:
.LBB2857:
.LBB2856:
	.loc 9 671 0
	mr 3,27
	lfs 1,.LC5@l(9)
	mr 4,28
	bl _ZN6idMath11FloatToBitsEfii
.LVL268:
	.loc 9 672 0
	addi 5,27,1
	.loc 9 671 0
	mr 4,3
.LVL269:
	.loc 9 672 0
	add 5,28,5
	mr 3,31
.LVL270:
	bl _ZNK13idBitMsgDelta9ReadDeltaEii
.LVL271:
	.loc 9 673 0
	mr 5,28
	mr 4,27
	bl _ZN6idMath11BitsToFloatEiii
.LBE2856:
.LBE2857:
	.loc 2 1533 0
	lwz 28,148(29)
.LVL272:
	lwz 27,144(29)
.LVL273:
.LBB2858:
.LBB2859:
	.loc 9 671 0
	lis 9,.LC5@ha
.LBE2859:
.LBE2858:
	.loc 2 1532 0
	stfs 1,160(30)
.LVL274:
.LBB2861:
.LBB2860:
	.loc 9 671 0
	mr 4,28
	lfs 1,.LC5@l(9)
	mr 3,27
	bl _ZN6idMath11FloatToBitsEfii
.LVL275:
	.loc 9 672 0
	addi 5,27,1
	.loc 9 671 0
	mr 4,3
.LVL276:
	.loc 9 672 0
	add 5,28,5
	mr 3,31
.LVL277:
	bl _ZNK13idBitMsgDelta9ReadDeltaEii
.LVL278:
	.loc 9 673 0
	mr 5,28
	mr 4,27
	bl _ZN6idMath11BitsToFloatEiii
.LBE2860:
.LBE2861:
	.loc 2 1534 0
	lwz 28,144(29)
.LVL279:
.LBB2862:
.LBB2863:
	.loc 9 671 0
	lis 9,.LC5@ha
.LBE2863:
.LBE2862:
	.loc 2 1534 0
	lwz 29,148(29)
	.loc 2 1533 0
	stfs 1,164(30)
.LVL280:
.LBB2866:
.LBB2864:
	.loc 9 671 0
	mr 3,28
	lfs 1,.LC5@l(9)
	mr 4,29
	bl _ZN6idMath11FloatToBitsEfii
.LVL281:
	.loc 9 672 0
	addi 5,28,1
	.loc 9 671 0
	mr 4,3
.LVL282:
	.loc 9 672 0
	add 5,29,5
	mr 3,31
.LVL283:
.LBE2864:
.LBE2866:
.LBB2867:
.LBB2868:
	.loc 8 333 0
	addi 31,30,184
.LVL284:
.LBE2868:
.LBE2867:
.LBB2876:
.LBB2865:
	.loc 9 672 0
	bl _ZNK13idBitMsgDelta9ReadDeltaEii
.LVL285:
	.loc 9 673 0
	mr 4,28
	mr 5,29
	bl _ZN6idMath11BitsToFloatEiii
.LBE2865:
.LBE2876:
	.loc 2 1536 0
	addi 3,1,68
	.loc 2 1534 0
	stfs 1,168(30)
	.loc 2 1536 0
	addi 4,1,20
	bl _ZNK7idCQuat6ToMat3Ev
.LVL286:
.LBB2877:
.LBB2875:
	.loc 8 333 0
	li 10,0
.L76:
.LBB2869:
.LBB2870:
	.loc 4 424 0
	addi 11,1,68
.LVL287:
.LBE2870:
.LBE2869:
	.loc 8 333 0
	cmpwi 7,10,24
.LBB2873:
.LBB2871:
	.loc 4 424 0
	lwzux 0,11,10
.LVL288:
	mr 9,31
	stwux 0,9,10
.LBE2871:
.LBE2873:
	.loc 8 333 0
	addi 10,10,12
.LBB2874:
.LBB2872:
	.loc 4 425 0
	lwz 8,4(11)
	.loc 4 426 0
	lwz 0,8(11)
	.loc 4 425 0
	stw 8,4(9)
	.loc 4 426 0
	stw 0,8(9)
.LBE2872:
.LBE2874:
	.loc 8 333 0
	bne+ 7,.L76
.LBE2875:
.LBE2877:
	.loc 2 1537 0
	addi 3,1,32
	addi 4,1,8
	bl _ZNK7idCQuat6ToMat3Ev
.LVL289:
.LBB2878:
.LBB2879:
	.loc 8 333 0
	addi 7,30,88
	li 10,0
.L77:
.LBB2880:
.LBB2881:
	.loc 4 424 0
	addi 11,1,32
.LVL290:
.LBE2881:
.LBE2880:
	.loc 8 333 0
	cmpwi 7,10,24
.LBB2884:
.LBB2882:
	.loc 4 424 0
	lwzux 0,11,10
.LVL291:
	mr 9,7
	stwux 0,9,10
.LBE2882:
.LBE2884:
	.loc 8 333 0
	addi 10,10,12
.LBB2885:
.LBB2883:
	.loc 4 425 0
	lwz 8,4(11)
	.loc 4 426 0
	lwz 0,8(11)
	.loc 4 425 0
	stw 8,4(9)
	.loc 4 426 0
	stw 0,8(9)
.LBE2883:
.LBE2885:
	.loc 8 333 0
	bne+ 7,.L77
.LBE2879:
.LBE2878:
	.loc 2 1539 0
	lwz 3,436(30)
	cmpwi 7,3,0
	beq- 7,.L75
	.loc 2 1540 0
	lis 4,gameLocal+2311032@ha
	lwz 5,4(30)
	lwz 6,8(3)
	la 4,gameLocal+2311032@l(4)
	addi 7,30,172
	mr 8,31
	li 9,-1
	bl _ZN11idClipModel4LinkER6idClipP8idEntityiRK6idVec3RK6idMat3i
.L75:
.LBE2887:
	.loc 2 1542 0
	lwz 0,140(1)
	lwz 25,108(1)
.LVL292:
	mtlr 0
	lwz 26,112(1)
.LVL293:
	lwz 27,116(1)
.LVL294:
	lwz 28,120(1)
.LVL295:
	lwz 29,124(1)
.LVL296:
	lwz 30,128(1)
.LVL297:
	lwz 31,132(1)
.LVL298:
	addi 1,1,136
.LCFI43:
	.cfi_def_cfa_offset 0
	.cfi_restore 31
	.cfi_restore 30
	.cfi_restore 29
	.cfi_restore 28
	.cfi_restore 27
	.cfi_restore 26
	.cfi_restore 25
	blr
	.cfi_endproc
.LFE2901:
	.size	_ZN19idPhysics_RigidBody16ReadFromSnapshotERK13idBitMsgDelta, .-_ZN19idPhysics_RigidBody16ReadFromSnapshotERK13idBitMsgDelta
	.align 2
	.globl _ZNK19idPhysics_RigidBody15WriteToSnapshotER13idBitMsgDelta
	.type	_ZNK19idPhysics_RigidBody15WriteToSnapshotER13idBitMsgDelta, @function
_ZNK19idPhysics_RigidBody15WriteToSnapshotER13idBitMsgDelta:
.LFB2900:
	.loc 2 1463 0
	.cfi_startproc
.LVL299:
	stwu 1,-88(1)
.LCFI44:
	.cfi_def_cfa_offset 88
	mflr 0
	stw 30,64(1)
	mr 30,3
	.cfi_offset 30, -24
	.cfi_register 65, 0
	stw 31,68(1)
.LBB3008:
	.loc 2 1466 0
	addi 3,1,20
.LVL300:
.LBE3008:
	.loc 2 1463 0
	mr 31,4
	.cfi_offset 31, -20
.LBB3107:
	.loc 2 1466 0
	addi 4,30,184
.LVL301:
.LBE3107:
	.loc 2 1463 0
	stw 0,92(1)
	stfd 30,72(1)
	stfd 31,80(1)
	stw 24,40(1)
	stw 25,44(1)
	stw 26,48(1)
	stw 27,52(1)
	stw 28,56(1)
	stw 29,60(1)
.LBB3108:
	.loc 2 1466 0
	.cfi_offset 29, -28
	.cfi_offset 28, -32
	.cfi_offset 27, -36
	.cfi_offset 26, -40
	.cfi_offset 25, -44
	.cfi_offset 24, -48
	.cfi_offset 63, -8
	.cfi_offset 62, -16
	.cfi_offset 65, 4
	bl _ZNK6idMat37ToCQuatEv
	.loc 2 1467 0
	addi 4,30,88
	addi 3,1,8
	.loc 2 1466 0
	lwz 26,20(1)
.LVL302:
	.loc 2 1476 0
	lis 29,.LANCHOR0@ha
	.loc 2 1466 0
	lwz 27,24(1)
.LVL303:
	.loc 2 1476 0
	la 29,.LANCHOR0@l(29)
	.loc 2 1466 0
	lwz 28,28(1)
.LVL304:
	.loc 2 1467 0
	bl _ZNK6idMat37ToCQuatEv
.LVL305:
.LBB3009:
.LBB3010:
	.loc 9 555 0
	lwz 4,68(30)
	mr 3,31
	li 5,32
	bl _ZN13idBitMsgDelta9WriteBitsEii
.LVL306:
.LBE3010:
.LBE3009:
.LBB3011:
.LBB3012:
	.loc 9 559 0
	lwz 4,172(30)
	mr 3,31
	li 5,32
	bl _ZN13idBitMsgDelta9WriteBitsEii
.LVL307:
.LBE3012:
.LBE3011:
.LBB3013:
.LBB3014:
	lwz 4,176(30)
	mr 3,31
	li 5,32
	bl _ZN13idBitMsgDelta9WriteBitsEii
.LVL308:
.LBE3014:
.LBE3013:
.LBB3015:
.LBB3016:
	lwz 4,180(30)
	mr 3,31
	li 5,32
	bl _ZN13idBitMsgDelta9WriteBitsEii
.LVL309:
.LBE3016:
.LBE3015:
.LBB3017:
.LBB3018:
	mr 3,31
	mr 4,26
	li 5,32
	bl _ZN13idBitMsgDelta9WriteBitsEii
.LVL310:
.LBE3018:
.LBE3017:
.LBB3019:
.LBB3020:
	mr 3,31
	mr 4,27
	li 5,32
	bl _ZN13idBitMsgDelta9WriteBitsEii
.LVL311:
.LBE3020:
.LBE3019:
.LBB3021:
.LBB3022:
	li 5,32
	mr 3,31
	mr 4,28
	bl _ZN13idBitMsgDelta9WriteBitsEii
.LVL312:
.LBE3022:
.LBE3021:
	.loc 2 1476 0
	lwz 24,136(29)
	lwz 25,140(29)
.LVL313:
.LBB3023:
.LBB3024:
	.loc 9 563 0
	lfs 1,220(30)
	mr 3,24
	mr 4,25
	bl _ZN6idMath11FloatToBitsEfii
.LVL314:
	.loc 9 564 0
	addi 5,24,1
	add 5,25,5
	.loc 9 563 0
	mr 4,3
.LVL315:
	.loc 9 564 0
	mr 3,31
.LVL316:
	bl _ZN13idBitMsgDelta9WriteBitsEii
.LVL317:
.LBE3024:
.LBE3023:
	.loc 2 1477 0
	lwz 24,136(29)
.LVL318:
	lwz 25,140(29)
.LVL319:
.LBB3025:
.LBB3026:
	.loc 9 563 0
	lfs 1,224(30)
	mr 3,24
	mr 4,25
	bl _ZN6idMath11FloatToBitsEfii
.LVL320:
	.loc 9 564 0
	addi 5,24,1
	add 5,25,5
	.loc 9 563 0
	mr 4,3
.LVL321:
	.loc 9 564 0
	mr 3,31
.LVL322:
	bl _ZN13idBitMsgDelta9WriteBitsEii
.LVL323:
.LBE3026:
.LBE3025:
	.loc 2 1478 0
	lwz 24,136(29)
.LVL324:
	lwz 25,140(29)
.LVL325:
.LBB3027:
.LBB3028:
	.loc 9 563 0
	lfs 1,228(30)
	mr 3,24
	mr 4,25
	bl _ZN6idMath11FloatToBitsEfii
.LVL326:
	.loc 9 564 0
	addi 5,24,1
	add 5,25,5
	.loc 9 563 0
	mr 4,3
.LVL327:
	.loc 9 564 0
	mr 3,31
.LVL328:
	bl _ZN13idBitMsgDelta9WriteBitsEii
.LVL329:
.LBE3028:
.LBE3027:
	.loc 2 1479 0
	lwz 24,136(29)
.LVL330:
	lwz 25,140(29)
.LVL331:
.LBB3029:
.LBB3030:
	.loc 9 563 0
	lfs 1,232(30)
	mr 3,24
	mr 4,25
	bl _ZN6idMath11FloatToBitsEfii
.LVL332:
	.loc 9 564 0
	addi 5,24,1
	add 5,25,5
	.loc 9 563 0
	mr 4,3
.LVL333:
	.loc 9 564 0
	mr 3,31
.LVL334:
	bl _ZN13idBitMsgDelta9WriteBitsEii
.LVL335:
.LBE3030:
.LBE3029:
	.loc 2 1480 0
	lwz 24,136(29)
.LVL336:
	lwz 25,140(29)
.LVL337:
.LBB3031:
.LBB3032:
	.loc 9 563 0
	lfs 1,236(30)
	mr 3,24
	mr 4,25
	bl _ZN6idMath11FloatToBitsEfii
.LVL338:
	.loc 9 564 0
	addi 5,24,1
	add 5,25,5
	.loc 9 563 0
	mr 4,3
.LVL339:
	.loc 9 564 0
	mr 3,31
.LVL340:
	bl _ZN13idBitMsgDelta9WriteBitsEii
.LVL341:
.LBE3032:
.LBE3031:
	.loc 2 1481 0
	lwz 24,136(29)
.LVL342:
	lwz 25,140(29)
.LVL343:
.LBB3033:
.LBB3034:
	.loc 9 563 0
	lfs 1,240(30)
	mr 3,24
	mr 4,25
	bl _ZN6idMath11FloatToBitsEfii
.LVL344:
	.loc 9 564 0
	addi 5,24,1
	.loc 9 563 0
	mr 4,3
.LVL345:
	.loc 9 564 0
	add 5,25,5
	mr 3,31
.LVL346:
	bl _ZN13idBitMsgDelta9WriteBitsEii
.LVL347:
.LBE3034:
.LBE3033:
.LBB3035:
.LBB3036:
	.loc 9 596 0
	lwz 4,172(30)
	lwz 5,76(30)
	mr 3,31
	li 6,32
	bl _ZN13idBitMsgDelta10WriteDeltaEiii
.LVL348:
.LBE3036:
.LBE3035:
.LBB3037:
.LBB3038:
	lwz 4,176(30)
	lwz 5,80(30)
	mr 3,31
	li 6,32
	bl _ZN13idBitMsgDelta10WriteDeltaEiii
.LVL349:
.LBE3038:
.LBE3037:
.LBB3039:
.LBB3040:
	lwz 5,84(30)
	lwz 4,180(30)
	mr 3,31
	li 6,32
	bl _ZN13idBitMsgDelta10WriteDeltaEiii
.LVL350:
.LBE3040:
.LBE3039:
.LBB3041:
.LBB3042:
	lwz 5,8(1)
	mr 3,31
	mr 4,26
	li 6,32
	bl _ZN13idBitMsgDelta10WriteDeltaEiii
.LVL351:
.LBE3042:
.LBE3041:
.LBB3043:
.LBB3044:
	lwz 5,12(1)
	mr 3,31
	mr 4,27
	li 6,32
.LBE3044:
.LBE3043:
	.loc 2 1488 0
	lis 27,RB_VELOCITY_EXPONENT_BITS@ha
.LBB3046:
.LBB3045:
	.loc 9 596 0
	bl _ZN13idBitMsgDelta10WriteDeltaEiii
.LVL352:
.LBE3045:
.LBE3046:
.LBB3047:
.LBB3048:
	lwz 5,16(1)
	li 6,32
	mr 3,31
	mr 4,28
.LBE3048:
.LBE3047:
	.loc 2 1488 0
	lis 28,RB_VELOCITY_MANTISSA_BITS@ha
.LBB3050:
.LBB3049:
	.loc 9 596 0
	bl _ZN13idBitMsgDelta10WriteDeltaEiii
.LVL353:
.LBE3049:
.LBE3050:
.LBB3051:
.LBB3052:
	.loc 9 600 0
	lis 9,.LC5@ha
	lfs 31,.LC5@l(9)
.LBE3052:
.LBE3051:
	.loc 2 1488 0
	lwz 24,RB_VELOCITY_EXPONENT_BITS@l(27)
.LVL354:
	lwz 25,RB_VELOCITY_MANTISSA_BITS@l(28)
.LVL355:
.LBB3055:
.LBB3053:
	.loc 9 600 0
	fmr 1,31
.LBE3053:
.LBE3055:
.LBB3056:
.LBB3057:
	.loc 4 1229 0
	lfs 30,124(30)
.LVL356:
.LBE3057:
.LBE3056:
.LBB3058:
.LBB3054:
	.loc 9 600 0
	mr 3,24
	mr 4,25
	bl _ZN6idMath11FloatToBitsEfii
.LVL357:
	.loc 9 601 0
	fmr 1,30
	.loc 9 600 0
	mr 26,3
.LVL358:
	.loc 9 601 0
	mr 4,25
	mr 3,24
.LVL359:
	bl _ZN6idMath11FloatToBitsEfii
	.loc 9 602 0
	addi 6,24,1
	.loc 9 601 0
	mr 5,3
.LVL360:
	.loc 9 602 0
	add 6,25,6
	mr 3,31
.LVL361:
	mr 4,26
	bl _ZN13idBitMsgDelta10WriteDeltaEiii
.LVL362:
.LBE3054:
.LBE3058:
	.loc 2 1489 0
	lwz 24,RB_VELOCITY_EXPONENT_BITS@l(27)
.LVL363:
	lwz 25,RB_VELOCITY_MANTISSA_BITS@l(28)
.LVL364:
.LBB3059:
.LBB3060:
	.loc 9 600 0
	fmr 1,31
.LBE3060:
.LBE3059:
.LBB3062:
.LBB3063:
	.loc 4 1229 0
	lfs 30,128(30)
.LVL365:
.LBE3063:
.LBE3062:
.LBB3064:
.LBB3061:
	.loc 9 600 0
	mr 3,24
	mr 4,25
	bl _ZN6idMath11FloatToBitsEfii
.LVL366:
	.loc 9 601 0
	fmr 1,30
	.loc 9 600 0
	mr 26,3
.LVL367:
	.loc 9 601 0
	mr 4,25
	mr 3,24
.LVL368:
	bl _ZN6idMath11FloatToBitsEfii
	.loc 9 602 0
	addi 6,24,1
	.loc 9 601 0
	mr 5,3
.LVL369:
	.loc 9 602 0
	add 6,25,6
	mr 3,31
.LVL370:
	mr 4,26
	bl _ZN13idBitMsgDelta10WriteDeltaEiii
.LVL371:
.LBE3061:
.LBE3064:
	.loc 2 1490 0
	lwz 26,RB_VELOCITY_EXPONENT_BITS@l(27)
.LVL372:
.LBB3065:
.LBB3066:
	.loc 9 600 0
	fmr 1,31
.LBE3066:
.LBE3065:
	.loc 2 1490 0
	lwz 27,RB_VELOCITY_MANTISSA_BITS@l(28)
.LVL373:
.LBB3068:
.LBB3069:
	.loc 4 1229 0
	lfs 30,132(30)
.LVL374:
.LBE3069:
.LBE3068:
.LBB3070:
.LBB3067:
	.loc 9 600 0
	mr 3,26
	mr 4,27
	bl _ZN6idMath11FloatToBitsEfii
.LVL375:
	.loc 9 601 0
	fmr 1,30
	.loc 9 600 0
	mr 28,3
.LVL376:
	.loc 9 601 0
	mr 4,27
	mr 3,26
.LVL377:
	bl _ZN6idMath11FloatToBitsEfii
	.loc 9 602 0
	addi 6,26,1
	.loc 9 601 0
	mr 5,3
.LVL378:
	.loc 9 602 0
	add 6,27,6
	mr 3,31
.LVL379:
	mr 4,28
	bl _ZN13idBitMsgDelta10WriteDeltaEiii
.LVL380:
.LBE3067:
.LBE3070:
	.loc 2 1491 0
	lwz 26,144(29)
.LVL381:
	lwz 27,148(29)
.LVL382:
.LBB3071:
.LBB3072:
	.loc 9 600 0
	fmr 1,31
.LBE3072:
.LBE3071:
.LBB3074:
.LBB3075:
	.loc 4 402 0
	lfs 30,148(30)
.LVL383:
.LBE3075:
.LBE3074:
.LBB3076:
.LBB3073:
	.loc 9 600 0
	mr 3,26
	mr 4,27
	bl _ZN6idMath11FloatToBitsEfii
.LVL384:
	.loc 9 601 0
	fmr 1,30
	.loc 9 600 0
	mr 28,3
.LVL385:
	.loc 9 601 0
	mr 4,27
	mr 3,26
.LVL386:
	bl _ZN6idMath11FloatToBitsEfii
	.loc 9 602 0
	addi 6,26,1
	.loc 9 601 0
	mr 5,3
.LVL387:
	.loc 9 602 0
	add 6,27,6
	mr 3,31
.LVL388:
	mr 4,28
	bl _ZN13idBitMsgDelta10WriteDeltaEiii
.LVL389:
.LBE3073:
.LBE3076:
	.loc 2 1492 0
	lwz 26,144(29)
.LVL390:
	lwz 27,148(29)
.LVL391:
.LBB3077:
.LBB3078:
	.loc 9 600 0
	fmr 1,31
.LBE3078:
.LBE3077:
.LBB3080:
.LBB3081:
	.loc 4 402 0
	lfs 30,152(30)
.LVL392:
.LBE3081:
.LBE3080:
.LBB3082:
.LBB3079:
	.loc 9 600 0
	mr 3,26
	mr 4,27
	bl _ZN6idMath11FloatToBitsEfii
.LVL393:
	.loc 9 601 0
	fmr 1,30
	.loc 9 600 0
	mr 28,3
.LVL394:
	.loc 9 601 0
	mr 4,27
	mr 3,26
.LVL395:
	bl _ZN6idMath11FloatToBitsEfii
	.loc 9 602 0
	addi 6,26,1
	.loc 9 601 0
	mr 5,3
.LVL396:
	.loc 9 602 0
	add 6,27,6
	mr 3,31
.LVL397:
	mr 4,28
	bl _ZN13idBitMsgDelta10WriteDeltaEiii
.LVL398:
.LBE3079:
.LBE3082:
	.loc 2 1493 0
	lwz 26,144(29)
.LVL399:
	lwz 27,148(29)
.LVL400:
.LBB3083:
.LBB3084:
	.loc 9 600 0
	fmr 1,31
.LBE3084:
.LBE3083:
.LBB3086:
.LBB3087:
	.loc 4 402 0
	lfs 30,156(30)
.LVL401:
.LBE3087:
.LBE3086:
.LBB3088:
.LBB3085:
	.loc 9 600 0
	mr 3,26
	mr 4,27
	bl _ZN6idMath11FloatToBitsEfii
.LVL402:
	.loc 9 601 0
	fmr 1,30
	.loc 9 600 0
	mr 28,3
.LVL403:
	.loc 9 601 0
	mr 4,27
	mr 3,26
.LVL404:
	bl _ZN6idMath11FloatToBitsEfii
	.loc 9 602 0
	addi 6,26,1
	.loc 9 601 0
	mr 5,3
.LVL405:
	.loc 9 602 0
	add 6,27,6
	mr 3,31
.LVL406:
	mr 4,28
	bl _ZN13idBitMsgDelta10WriteDeltaEiii
.LVL407:
.LBE3085:
.LBE3088:
	.loc 2 1494 0
	lwz 26,144(29)
.LVL408:
	lwz 27,148(29)
.LVL409:
.LBB3089:
.LBB3090:
	.loc 9 600 0
	fmr 1,31
.LBE3090:
.LBE3089:
.LBB3092:
.LBB3093:
	.loc 4 402 0
	lfs 30,160(30)
.LVL410:
.LBE3093:
.LBE3092:
.LBB3094:
.LBB3091:
	.loc 9 600 0
	mr 3,26
	mr 4,27
	bl _ZN6idMath11FloatToBitsEfii
.LVL411:
	.loc 9 601 0
	fmr 1,30
	.loc 9 600 0
	mr 28,3
.LVL412:
	.loc 9 601 0
	mr 4,27
	mr 3,26
.LVL413:
	bl _ZN6idMath11FloatToBitsEfii
	.loc 9 602 0
	addi 6,26,1
	.loc 9 601 0
	mr 5,3
.LVL414:
	.loc 9 602 0
	add 6,27,6
	mr 3,31
.LVL415:
	mr 4,28
	bl _ZN13idBitMsgDelta10WriteDeltaEiii
.LVL416:
.LBE3091:
.LBE3094:
	.loc 2 1495 0
	lwz 26,144(29)
.LVL417:
	lwz 27,148(29)
.LVL418:
.LBB3095:
.LBB3096:
	.loc 9 600 0
	fmr 1,31
.LBE3096:
.LBE3095:
.LBB3098:
.LBB3099:
	.loc 4 402 0
	lfs 30,164(30)
.LVL419:
.LBE3099:
.LBE3098:
.LBB3100:
.LBB3097:
	.loc 9 600 0
	mr 3,26
	mr 4,27
	bl _ZN6idMath11FloatToBitsEfii
.LVL420:
	.loc 9 601 0
	fmr 1,30
	.loc 9 600 0
	mr 28,3
.LVL421:
	.loc 9 601 0
	mr 4,27
	mr 3,26
.LVL422:
	bl _ZN6idMath11FloatToBitsEfii
	.loc 9 602 0
	addi 6,26,1
	.loc 9 601 0
	mr 5,3
.LVL423:
	.loc 9 602 0
	add 6,27,6
	mr 3,31
.LVL424:
	mr 4,28
	bl _ZN13idBitMsgDelta10WriteDeltaEiii
.LVL425:
.LBE3097:
.LBE3100:
	.loc 2 1496 0
	lwz 28,144(29)
.LVL426:
.LBB3101:
.LBB3102:
	.loc 9 600 0
	fmr 1,31
.LBE3102:
.LBE3101:
	.loc 2 1496 0
	lwz 29,148(29)
.LVL427:
.LBB3104:
.LBB3105:
	.loc 4 402 0
	lfs 31,168(30)
.LVL428:
.LBE3105:
.LBE3104:
.LBB3106:
.LBB3103:
	.loc 9 600 0
	mr 3,28
	mr 4,29
	bl _ZN6idMath11FloatToBitsEfii
.LVL429:
	.loc 9 601 0
	fmr 1,31
	.loc 9 600 0
	mr 30,3
.LVL430:
	.loc 9 601 0
	mr 4,29
	mr 3,28
.LVL431:
	bl _ZN6idMath11FloatToBitsEfii
	.loc 9 602 0
	addi 6,28,1
	.loc 9 601 0
	mr 5,3
.LVL432:
	.loc 9 602 0
	mr 4,30
	mr 3,31
.LVL433:
	add 6,29,6
	bl _ZN13idBitMsgDelta10WriteDeltaEiii
.LVL434:
.LBE3103:
.LBE3106:
.LBE3108:
	.loc 2 1497 0
	lwz 0,92(1)
	lwz 24,40(1)
.LVL435:
	mtlr 0
	lwz 25,44(1)
.LVL436:
	lwz 26,48(1)
.LVL437:
	lwz 27,52(1)
.LVL438:
	lwz 28,56(1)
.LVL439:
	lwz 29,60(1)
.LVL440:
	lwz 30,64(1)
.LVL441:
	lwz 31,68(1)
.LVL442:
	lfd 30,72(1)
.LVL443:
	lfd 31,80(1)
.LVL444:
	addi 1,1,88
.LCFI45:
	.cfi_def_cfa_offset 0
	.cfi_restore 63
	.cfi_restore 62
	.cfi_restore 31
	.cfi_restore 30
	.cfi_restore 29
	.cfi_restore 28
	.cfi_restore 27
	.cfi_restore 26
	.cfi_restore 25
	.cfi_restore 24
	blr
	.cfi_endproc
.LFE2900:
	.size	_ZNK19idPhysics_RigidBody15WriteToSnapshotER13idBitMsgDelta, .-_ZNK19idPhysics_RigidBody15WriteToSnapshotER13idBitMsgDelta
	.align 2
	.globl _ZN19idPhysics_RigidBody12RestoreStateEv
	.type	_ZN19idPhysics_RigidBody12RestoreStateEv, @function
_ZN19idPhysics_RigidBody12RestoreStateEv:
.LFB2877:
	.loc 2 1109 0
	.cfi_startproc
.LVL445:
	mflr 0
	stwu 1,-32(1)
.LCFI46:
	.cfi_def_cfa_offset 32
	.cfi_register 65, 0
.LBB3134:
.LBB3135:
.LBB3136:
.LBB3137:
	.loc 8 333 0
	addi 7,3,88
.LBE3137:
.LBE3136:
.LBE3135:
.LBE3134:
	.loc 2 1109 0
	stw 31,28(1)
	mr 31,3
	.cfi_offset 31, -4
.LVL446:
	stw 0,36(1)
	stw 27,12(1)
	stw 28,16(1)
	stw 29,20(1)
	stw 30,24(1)
.LBB3214:
.LBB3208:
.LBB3146:
.LBB3147:
	.loc 4 424 0
	lwz 11,252(3)
	.loc 4 425 0
	lwz 9,256(3)
	.loc 4 426 0
	lwz 0,260(3)
	.cfi_offset 30, -8
	.cfi_offset 29, -12
	.cfi_offset 28, -16
	.cfi_offset 27, -20
	.cfi_offset 65, 4
.LBE3147:
.LBE3146:
	.file 10 "d:/Data/Nintendo/DoomGX/src/game/physics/../physics/Physics_RigidBody.h"
	.loc 10 55 0
	lwz 8,244(3)
	lwz 10,248(3)
.LBB3149:
.LBB3148:
	.loc 4 424 0
	stw 11,76(3)
	.loc 4 425 0
	stw 9,80(3)
	.loc 4 426 0
	stw 0,84(3)
.LBE3148:
.LBE3149:
	.loc 10 55 0
	stw 8,68(3)
.LBB3150:
.LBB3144:
	.loc 8 333 0
	addi 8,3,264
.LBE3144:
.LBE3150:
	.loc 10 55 0
	stw 10,72(3)
.LVL447:
.LBB3151:
.LBB3145:
	.loc 8 333 0
	li 10,0
.L83:
.LBB3138:
.LBB3139:
	.loc 4 424 0
	mr 11,8
	mr 9,7
	lwzux 0,11,10
.LBE3139:
.LBE3138:
	.loc 8 333 0
	cmpwi 7,10,24
.LBB3142:
.LBB3140:
	.loc 4 424 0
	stwux 0,9,10
.LBE3140:
.LBE3142:
	.loc 8 333 0
	addi 10,10,12
.LBB3143:
.LBB3141:
	.loc 4 425 0
	lwz 0,4(11)
	stw 0,4(9)
	.loc 4 426 0
	lwz 0,8(11)
	stw 0,8(9)
.LBE3141:
.LBE3143:
	.loc 8 333 0
	bne+ 7,.L83
.LBE3145:
.LBE3151:
	.loc 10 55 0
	lwz 27,300(31)
	lwz 28,304(31)
	lwz 29,308(31)
	lwz 30,312(31)
	lwz 12,316(31)
	lwz 3,320(31)
.LVL448:
.LBB3152:
.LBB3153:
	.loc 4 424 0
	lwz 4,324(31)
	.loc 4 425 0
	lwz 5,328(31)
	.loc 4 426 0
	lwz 6,332(31)
.LBE3153:
.LBE3152:
.LBB3155:
.LBB3156:
.LBB3157:
	.loc 4 424 0
	lwz 11,348(31)
	.loc 4 425 0
	lwz 9,352(31)
	.loc 4 426 0
	lwz 0,356(31)
.LBE3157:
.LBE3156:
.LBE3155:
.LBB3190:
.LBB3191:
	.loc 4 424 0
	lwz 7,336(31)
	.loc 4 425 0
	lwz 8,340(31)
	.loc 4 426 0
	lwz 10,344(31)
.LBE3191:
.LBE3190:
	.loc 10 55 0
	stw 27,124(31)
	stw 28,128(31)
	stw 29,132(31)
	stw 30,136(31)
	stw 12,140(31)
	stw 3,144(31)
.LVL449:
.LBB3195:
.LBB3154:
	.loc 4 424 0
	stw 4,148(31)
	.loc 4 425 0
	stw 5,152(31)
	.loc 4 426 0
	stw 6,156(31)
.LVL450:
.LBE3154:
.LBE3195:
.LBB3196:
.LBB3159:
.LBB3158:
	.loc 4 424 0
	stw 11,172(31)
	.loc 4 425 0
	stw 9,176(31)
	.loc 4 426 0
	stw 0,180(31)
.LBE3158:
.LBE3159:
.LBE3196:
.LBB3197:
.LBB3192:
	.loc 4 424 0
	stw 7,160(31)
.LBE3192:
.LBE3197:
.LBB3198:
.LBB3160:
.LBB3161:
	.loc 8 333 0
	addi 7,31,360
.LBE3161:
.LBE3160:
.LBE3198:
.LBB3199:
.LBB3193:
	.loc 4 425 0
	stw 8,164(31)
.LBE3193:
.LBE3199:
.LBB3200:
.LBB3170:
.LBB3168:
	.loc 8 333 0
	addi 8,31,184
.LBE3168:
.LBE3170:
.LBE3200:
.LBB3201:
.LBB3194:
	.loc 4 426 0
	stw 10,168(31)
.LVL451:
.LBE3194:
.LBE3201:
.LBB3202:
.LBB3171:
.LBB3169:
	.loc 8 333 0
	li 10,0
.L84:
.LBB3162:
.LBB3163:
	.loc 4 424 0
	mr 11,7
	mr 9,8
	lwzux 0,11,10
.LBE3163:
.LBE3162:
	.loc 8 333 0
	cmpwi 7,10,24
.LBB3166:
.LBB3164:
	.loc 4 424 0
	stwux 0,9,10
.LBE3164:
.LBE3166:
	.loc 8 333 0
	addi 10,10,12
.LBB3167:
.LBB3165:
	.loc 4 425 0
	lwz 0,4(11)
	stw 0,4(9)
	.loc 4 426 0
	lwz 0,8(11)
	stw 0,8(9)
.LBE3165:
.LBE3167:
	.loc 8 333 0
	bne+ 7,.L84
.LVL452:
.LBE3169:
.LBE3171:
.LBB3172:
.LBB3173:
	.loc 4 424 0
	lwz 6,396(31)
.LBE3173:
.LBE3172:
.LBE3202:
.LBE3208:
.LBE3214:
	.loc 2 1112 0
	lis 4,gameLocal+2311032@ha
.LBB3215:
.LBB3209:
.LBB3203:
.LBB3179:
.LBB3174:
	.loc 4 425 0
	lwz 7,400(31)
.LBE3174:
.LBE3179:
.LBE3203:
.LBE3209:
.LBE3215:
	.loc 2 1112 0
	la 4,gameLocal+2311032@l(4)
.LBB3216:
.LBB3210:
.LBB3204:
.LBB3180:
.LBB3175:
	.loc 4 426 0
	lwz 10,404(31)
.LBE3175:
.LBE3180:
.LBB3181:
.LBB3182:
	.loc 4 424 0
	lwz 11,408(31)
	.loc 4 425 0
	lwz 9,412(31)
	.loc 4 426 0
	lwz 0,416(31)
.LBE3182:
.LBE3181:
.LBE3204:
.LBE3210:
.LBE3216:
	.loc 2 1112 0
	lwz 3,436(31)
.LBB3217:
.LBB3211:
.LBB3205:
.LBB3185:
.LBB3176:
	.loc 4 425 0
	stw 7,224(31)
.LBE3176:
.LBE3185:
.LBE3205:
.LBE3211:
.LBE3217:
	.loc 2 1112 0
	addi 7,31,172
.LBB3218:
.LBB3212:
.LBB3206:
.LBB3186:
.LBB3177:
	.loc 4 426 0
	stw 10,228(31)
.LVL453:
.LBE3177:
.LBE3186:
.LBB3187:
.LBB3183:
	.loc 4 424 0
	stw 11,232(31)
	.loc 4 425 0
	stw 9,236(31)
.LBE3183:
.LBE3187:
.LBE3206:
.LBE3212:
.LBE3218:
	.loc 2 1112 0
	li 9,-1
.LBB3219:
.LBB3213:
.LBB3207:
.LBB3188:
.LBB3184:
	.loc 4 426 0
	stw 0,240(31)
.LBE3184:
.LBE3188:
.LBB3189:
.LBB3178:
	.loc 4 424 0
	stw 6,220(31)
.LBE3178:
.LBE3189:
.LBE3207:
.LBE3213:
.LBE3219:
	.loc 2 1112 0
	lwz 5,4(31)
	lwz 6,8(3)
	bl _ZN11idClipModel4LinkER6idClipP8idEntityiRK6idVec3RK6idMat3i
	.loc 2 1114 0
	lwz 9,0(31)
	mr 3,31
	lwz 0,196(9)
	mtctr 0
	bctrl
	.loc 2 1115 0
	lwz 0,36(1)
	lwz 27,12(1)
	mtlr 0
	lwz 28,16(1)
	lwz 29,20(1)
	lwz 30,24(1)
	lwz 31,28(1)
.LVL454:
	addi 1,1,32
.LCFI47:
	.cfi_def_cfa_offset 0
	.cfi_restore 31
	.cfi_restore 30
	.cfi_restore 29
	.cfi_restore 28
	.cfi_restore 27
	blr
	.cfi_endproc
.LFE2877:
	.size	_ZN19idPhysics_RigidBody12RestoreStateEv, .-_ZN19idPhysics_RigidBody12RestoreStateEv
	.align 2
	.globl _ZN19idPhysics_RigidBody9SaveStateEv
	.type	_ZN19idPhysics_RigidBody9SaveStateEv, @function
_ZN19idPhysics_RigidBody9SaveStateEv:
.LFB2876:
	.loc 2 1100 0
	.cfi_startproc
.LVL455:
	stwu 1,-32(1)
.LCFI48:
	.cfi_def_cfa_offset 32
.LBB3243:
.LBB3244:
.LBB3245:
.LBB3246:
	.loc 8 333 0
	addi 7,3,264
.LBE3246:
.LBE3245:
.LBB3255:
.LBB3256:
	.loc 4 424 0
	lwz 11,76(3)
	.loc 4 425 0
	lwz 9,80(3)
	.loc 4 426 0
	lwz 0,84(3)
.LBE3256:
.LBE3255:
	.loc 10 55 0
	lwz 8,68(3)
	lwz 10,72(3)
.LBE3244:
.LBE3243:
	.loc 2 1100 0
	stw 27,12(1)
	stw 28,16(1)
	stw 29,20(1)
	stw 30,24(1)
	stw 31,28(1)
.LBB3309:
.LBB3306:
.LBB3258:
.LBB3257:
	.loc 4 424 0
	stw 11,252(3)
	.loc 4 425 0
	stw 9,256(3)
	.loc 4 426 0
	stw 0,260(3)
.LBE3257:
.LBE3258:
	.loc 10 55 0
	stw 8,244(3)
.LBB3259:
.LBB3253:
	.loc 8 333 0
	addi 8,3,88
.LBE3253:
.LBE3259:
	.loc 10 55 0
	stw 10,248(3)
.LVL456:
.LBB3260:
.LBB3254:
	.loc 8 333 0
	li 10,0
.L88:
.LBB3247:
.LBB3248:
	.loc 4 424 0
	mr 11,8
	mr 9,7
	lwzux 0,11,10
.LBE3248:
.LBE3247:
	.loc 8 333 0
	cmpwi 7,10,24
.LBB3251:
.LBB3249:
	.loc 4 424 0
	stwux 0,9,10
.LBE3249:
.LBE3251:
	.loc 8 333 0
	addi 10,10,12
.LBB3252:
.LBB3250:
	.loc 4 425 0
	lwz 0,4(11)
	stw 0,4(9)
	.loc 4 426 0
	lwz 0,8(11)
	stw 0,8(9)
.LBE3250:
.LBE3252:
	.loc 8 333 0
	bne+ 7,.L88
	.cfi_offset 31, -4
	.cfi_offset 30, -8
	.cfi_offset 29, -12
	.cfi_offset 28, -16
	.cfi_offset 27, -20
.LBE3254:
.LBE3260:
	.loc 10 55 0
	lwz 27,124(3)
	lwz 28,128(3)
	lwz 29,132(3)
	lwz 30,136(3)
	lwz 31,140(3)
	lwz 12,144(3)
.LBB3261:
.LBB3262:
	.loc 4 424 0
	lwz 4,148(3)
	.loc 4 425 0
	lwz 5,152(3)
	.loc 4 426 0
	lwz 6,156(3)
.LBE3262:
.LBE3261:
.LBB3264:
.LBB3265:
.LBB3266:
	.loc 4 424 0
	lwz 11,172(3)
	.loc 4 425 0
	lwz 9,176(3)
	.loc 4 426 0
	lwz 0,180(3)
.LBE3266:
.LBE3265:
.LBE3264:
.LBB3291:
.LBB3292:
	.loc 4 424 0
	lwz 7,160(3)
	.loc 4 425 0
	lwz 8,164(3)
	.loc 4 426 0
	lwz 10,168(3)
.LBE3292:
.LBE3291:
	.loc 10 55 0
	stw 27,300(3)
	stw 28,304(3)
	stw 29,308(3)
	stw 30,312(3)
	stw 31,316(3)
	stw 12,320(3)
.LVL457:
.LBB3296:
.LBB3263:
	.loc 4 424 0
	stw 4,324(3)
	.loc 4 425 0
	stw 5,328(3)
	.loc 4 426 0
	stw 6,332(3)
.LVL458:
.LBE3263:
.LBE3296:
.LBB3297:
.LBB3268:
.LBB3267:
	.loc 4 424 0
	stw 11,348(3)
	.loc 4 425 0
	stw 9,352(3)
	.loc 4 426 0
	stw 0,356(3)
.LBE3267:
.LBE3268:
.LBE3297:
.LBB3298:
.LBB3293:
	.loc 4 424 0
	stw 7,336(3)
.LBE3293:
.LBE3298:
.LBB3299:
.LBB3269:
.LBB3270:
	.loc 8 333 0
	addi 7,3,360
.LBE3270:
.LBE3269:
.LBE3299:
.LBB3300:
.LBB3294:
	.loc 4 425 0
	stw 8,340(3)
.LBE3294:
.LBE3300:
.LBB3301:
.LBB3279:
.LBB3277:
	.loc 8 333 0
	addi 8,3,184
.LBE3277:
.LBE3279:
.LBE3301:
.LBB3302:
.LBB3295:
	.loc 4 426 0
	stw 10,344(3)
.LVL459:
.LBE3295:
.LBE3302:
.LBB3303:
.LBB3280:
.LBB3278:
	.loc 8 333 0
	li 10,0
.L89:
.LBB3271:
.LBB3272:
	.loc 4 424 0
	mr 11,8
	mr 9,7
	lwzux 0,11,10
.LBE3272:
.LBE3271:
	.loc 8 333 0
	cmpwi 7,10,24
.LBB3275:
.LBB3273:
	.loc 4 424 0
	stwux 0,9,10
.LBE3273:
.LBE3275:
	.loc 8 333 0
	addi 10,10,12
.LBB3276:
.LBB3274:
	.loc 4 425 0
	lwz 0,4(11)
	stw 0,4(9)
	.loc 4 426 0
	lwz 0,8(11)
	stw 0,8(9)
.LBE3274:
.LBE3276:
	.loc 8 333 0
	bne+ 7,.L89
.LVL460:
.LBE3278:
.LBE3280:
.LBB3281:
.LBB3282:
	.loc 4 424 0
	lwz 7,220(3)
	.loc 4 425 0
	lwz 8,224(3)
	.loc 4 426 0
	lwz 10,228(3)
.LBE3282:
.LBE3281:
.LBB3285:
.LBB3286:
	.loc 4 424 0
	lwz 11,232(3)
	.loc 4 425 0
	lwz 9,236(3)
	.loc 4 426 0
	lwz 0,240(3)
.LBE3286:
.LBE3285:
.LBE3303:
.LBE3306:
.LBE3309:
	.loc 2 1102 0
	lwz 27,12(1)
	lwz 28,16(1)
	lwz 29,20(1)
	lwz 30,24(1)
	lwz 31,28(1)
.LBB3310:
.LBB3307:
.LBB3304:
.LBB3288:
.LBB3283:
	.loc 4 424 0
	stw 7,396(3)
.LBE3283:
.LBE3288:
.LBE3304:
.LBE3307:
.LBE3310:
	.loc 2 1102 0
	addi 1,1,32
.LCFI49:
	.cfi_def_cfa_offset 0
	.cfi_restore 31
	.cfi_restore 30
	.cfi_restore 29
	.cfi_restore 28
	.cfi_restore 27
.LBB3311:
.LBB3308:
.LBB3305:
.LBB3289:
.LBB3284:
	.loc 4 425 0
	stw 8,400(3)
	.loc 4 426 0
	stw 10,404(3)
.LVL461:
.LBE3284:
.LBE3289:
.LBB3290:
.LBB3287:
	.loc 4 424 0
	stw 11,408(3)
	.loc 4 425 0
	stw 9,412(3)
	.loc 4 426 0
	stw 0,416(3)
.LBE3287:
.LBE3290:
.LBE3305:
.LBE3308:
.LBE3311:
	.loc 2 1102 0
	blr
	.cfi_endproc
.LFE2876:
	.size	_ZN19idPhysics_RigidBody9SaveStateEv, .-_ZN19idPhysics_RigidBody9SaveStateEv
	.align 2
	.globl _ZN19idPhysics_RigidBody18SetAngularVelocityERK6idVec3i
	.type	_ZN19idPhysics_RigidBody18SetAngularVelocityERK6idVec3i, @function
_ZN19idPhysics_RigidBody18SetAngularVelocityERK6idVec3i:
.LFB2885:
	.loc 2 1238 0
	.cfi_startproc
.LVL462:
.LBB3320:
.LBB3321:
.LBB3322:
	.loc 8 454 0
	lfs 0,4(4)
.LBE3322:
.LBE3321:
.LBE3320:
	.loc 2 1238 0
	mflr 0
.LBB3335:
.LBB3329:
.LBB3323:
	.loc 8 454 0
	lfs 13,472(3)
	lfs 11,476(3)
	lfs 12,480(3)
	fmuls 11,0,11
	lfs 8,464(3)
	fmuls 12,0,12
	lfs 9,468(3)
	fmuls 0,0,13
.LBE3323:
.LBE3329:
.LBE3335:
.LBB3336:
.LBB3337:
	lfs 10,460(3)
.LBE3337:
.LBE3336:
.LBB3341:
.LBB3330:
.LBB3324:
	lfs 13,0(4)
.LBE3324:
.LBE3330:
.LBE3341:
	.loc 2 1238 0
	stwu 1,-8(1)
.LCFI50:
	.cfi_def_cfa_offset 8
	.cfi_register 65, 0
.LBB3342:
.LBB3331:
.LBB3325:
	.loc 8 454 0
	fmadds 11,13,8,11
	lfs 8,488(3)
	fmadds 12,13,9,12
	lfs 9,492(3)
.LBE3325:
.LBE3331:
.LBE3342:
.LBB3343:
.LBB3338:
	fmadds 13,10,13,0
.LBE3338:
.LBE3343:
.LBB3344:
.LBB3332:
.LBB3326:
	lfs 0,8(4)
.LBE3326:
.LBE3332:
.LBE3344:
.LBB3345:
.LBB3339:
	lfs 10,484(3)
.LBE3339:
.LBE3345:
.LBB3346:
.LBB3333:
.LBB3327:
	fmadds 11,0,8,11
.LBE3327:
.LBE3333:
.LBE3346:
	.loc 2 1238 0
	stw 0,12(1)
.LBB3347:
.LBB3334:
.LBB3328:
	.loc 8 454 0
	fmadds 12,0,9,12
.LVL463:
.LBE3328:
.LBE3334:
.LBE3347:
	.loc 2 1240 0
	lwz 9,0(3)
.LBB3348:
.LBB3340:
	.loc 8 454 0
	fmadds 0,10,0,13
	.loc 4 425 0
	stfs 11,236(3)
	.loc 4 426 0
	stfs 12,240(3)
	.loc 4 424 0
	stfs 0,232(3)
.LBE3340:
.LBE3348:
	.loc 2 1240 0
	lwz 0,88(9)
	.cfi_offset 65, 4
	mtctr 0
	bctrl
.LVL464:
	.loc 2 1241 0
	lwz 0,12(1)
	addi 1,1,8
.LCFI51:
	.cfi_def_cfa_offset 0
	mtlr 0
	blr
	.cfi_endproc
.LFE2885:
	.size	_ZN19idPhysics_RigidBody18SetAngularVelocityERK6idVec3i, .-_ZN19idPhysics_RigidBody18SetAngularVelocityERK6idVec3i
	.align 2
	.globl _ZN19idPhysics_RigidBody8AddForceEiRK6idVec3S2_
	.type	_ZN19idPhysics_RigidBody8AddForceEiRK6idVec3S2_, @function
_ZN19idPhysics_RigidBody8AddForceEiRK6idVec3S2_:
.LFB2872:
	.loc 2 1059 0
	.cfi_startproc
.LVL465:
	mflr 0
	stwu 1,-8(1)
.LCFI52:
	.cfi_def_cfa_offset 8
	.cfi_register 65, 0
	stw 0,12(1)
	.loc 2 1060 0
	lbz 0,538(3)
	.cfi_offset 65, 4
	cmpwi 7,0,0
	bne+ 7,.L93
.LVL466:
.LBB3373:
.LBB3374:
.LBB3375:
.LBB3376:
	.loc 4 456 0
	lfs 0,0(6)
	lfs 13,148(3)
	.loc 4 457 0
	lfs 12,152(3)
	.loc 4 456 0
	fadds 13,13,0
.LBE3376:
.LBE3375:
.LBB3385:
.LBB3386:
.LBB3387:
	.loc 8 454 0
	lfs 11,196(3)
	lfs 0,452(3)
	lfs 9,204(3)
.LBE3387:
.LBE3386:
.LBE3385:
.LBB3398:
.LBB3377:
	.loc 4 456 0
	stfs 13,148(3)
.LBE3377:
.LBE3398:
.LBB3399:
.LBB3393:
.LBB3388:
	.loc 8 454 0
	fmuls 11,0,11
	fmuls 9,0,9
.LBE3388:
.LBE3393:
.LBE3399:
.LBB3400:
.LBB3401:
	lfs 8,184(3)
.LBE3401:
.LBE3400:
.LBB3409:
.LBB3378:
	.loc 4 457 0
	lfs 13,4(6)
.LBE3378:
.LBE3409:
.LBB3410:
.LBB3394:
.LBB3389:
	.loc 8 454 0
	lfs 10,200(3)
.LBE3389:
.LBE3394:
.LBE3410:
.LBB3411:
.LBB3379:
	.loc 4 457 0
	fadds 12,12,13
.LBE3379:
.LBE3411:
.LBB3412:
.LBB3395:
.LBB3390:
	.loc 8 454 0
	lfs 13,448(3)
.LBE3390:
.LBE3395:
.LBE3412:
.LBB3413:
.LBB3380:
	.loc 4 458 0
	lfs 5,156(3)
.LBE3380:
.LBE3413:
.LBB3414:
.LBB3396:
.LBB3391:
	.loc 8 454 0
	fmuls 10,0,10
.LBE3391:
.LBE3396:
.LBE3414:
.LBB3415:
.LBB3402:
	fmadds 11,8,13,11
.LBE3402:
.LBE3415:
.LBB3416:
.LBB3397:
.LBB3392:
	lfs 0,456(3)
.LBE3392:
.LBE3397:
.LBE3416:
.LBB3417:
.LBB3381:
	.loc 4 457 0
	stfs 12,152(3)
.LBE3381:
.LBE3417:
.LBB3418:
.LBB3403:
	.loc 8 454 0
	lfs 12,192(3)
.LBE3403:
.LBE3418:
.LBB3419:
.LBB3382:
	.loc 4 458 0
	lfs 7,8(6)
.LBE3382:
.LBE3419:
.LBB3420:
.LBB3404:
	.loc 8 454 0
	fmadds 9,13,12,9
	lfs 8,188(3)
	lfs 12,216(3)
.LBE3404:
.LBE3420:
.LBB3421:
.LBB3383:
	.loc 4 458 0
	fadds 7,5,7
.LBE3383:
.LBE3421:
.LBB3422:
.LBB3405:
	.loc 8 454 0
	lfs 6,208(3)
	fmadds 13,13,8,10
	fmadds 9,0,12,9
	lfs 8,212(3)
	fmadds 11,6,0,11
	.loc 4 452 0
	lfs 12,172(3)
	lfs 10,180(3)
	.loc 8 454 0
	fmadds 0,0,8,13
.LBE3405:
.LBE3422:
.LBB3423:
.LBB3384:
	.loc 4 458 0
	stfs 7,156(3)
.LVL467:
.LBE3384:
.LBE3423:
.LBB3424:
.LBB3406:
	.loc 4 452 0
	fadds 11,11,12
	fadds 9,9,10
.LBE3406:
.LBE3424:
.LBB3425:
.LBB3426:
	.loc 4 431 0
	lfs 12,0(5)
	lfs 13,8(5)
.LBE3426:
.LBE3425:
.LBB3430:
.LBB3407:
	.loc 4 452 0
	lfs 10,176(3)
.LBE3407:
.LBE3430:
.LBB3431:
.LBB3427:
	.loc 4 431 0
	fsubs 11,12,11
	fsubs 9,13,9
.LVL468:
.LBE3427:
.LBE3431:
.LBB3432:
.LBB3433:
	.loc 4 620 0
	lfs 8,8(6)
.LBE3433:
.LBE3432:
.LBB3438:
.LBB3408:
	.loc 4 452 0
	fadds 0,0,10
.LBE3408:
.LBE3438:
.LBB3439:
.LBB3434:
	.loc 4 620 0
	lfs 12,4(6)
.LBE3434:
.LBE3439:
.LBB3440:
.LBB3428:
	.loc 4 431 0
	lfs 10,4(5)
.LBE3428:
.LBE3440:
.LBB3441:
.LBB3435:
	.loc 4 620 0
	fmuls 13,11,8
	fmuls 7,9,12
.LBE3435:
.LBE3441:
.LBB3442:
.LBB3429:
	.loc 4 431 0
	fsubs 0,10,0
.LVL469:
.LBE3429:
.LBE3442:
.LBB3443:
.LBB3436:
	.loc 4 620 0
	lfs 10,0(6)
.LVL470:
.LBE3436:
.LBE3443:
.LBB3444:
.LBB3445:
	fmsubs 9,9,10,13
.LVL471:
	.loc 4 457 0
	lfs 13,164(3)
	.loc 4 620 0
	fmsubs 8,0,8,7
.LVL472:
	.loc 4 456 0
	lfs 7,160(3)
.LBE3445:
.LBE3444:
.LBB3448:
.LBB3437:
	.loc 4 620 0
	fmuls 10,0,10
.LBE3437:
.LBE3448:
.LBB3449:
.LBB3446:
	.loc 4 457 0
	fadds 9,13,9
.LVL473:
	.loc 4 456 0
	fadds 8,7,8
.LVL474:
	.loc 4 620 0
	fmsubs 12,11,12,10
	.loc 4 456 0
	stfs 8,160(3)
	.loc 4 457 0
	stfs 9,164(3)
	.loc 4 458 0
	lfs 11,168(3)
.LVL475:
.LBE3446:
.LBE3449:
	.loc 2 1065 0
	lwz 11,0(3)
.LBB3450:
.LBB3447:
	.loc 4 458 0
	fadds 12,11,12
.LVL476:
	stfs 12,168(3)
.LBE3447:
.LBE3450:
	.loc 2 1065 0
	lwz 0,88(11)
	mtctr 0
	bctrl
.LVL477:
.L93:
.LBE3374:
.LBE3373:
	.loc 2 1066 0
	lwz 0,12(1)
	addi 1,1,8
.LCFI53:
	.cfi_def_cfa_offset 0
	mtlr 0
	blr
	.cfi_endproc
.LFE2872:
	.size	_ZN19idPhysics_RigidBody8AddForceEiRK6idVec3S2_, .-_ZN19idPhysics_RigidBody8AddForceEiRK6idVec3S2_
	.align 2
	.globl _ZN19idPhysics_RigidBody12ApplyImpulseEiRK6idVec3S2_
	.type	_ZN19idPhysics_RigidBody12ApplyImpulseEiRK6idVec3S2_, @function
_ZN19idPhysics_RigidBody12ApplyImpulseEiRK6idVec3S2_:
.LFB2871:
	.loc 2 1045 0
	.cfi_startproc
.LVL478:
	mflr 0
	stwu 1,-8(1)
.LCFI54:
	.cfi_def_cfa_offset 8
	.cfi_register 65, 0
	stw 0,12(1)
	.loc 2 1046 0
	lbz 0,538(3)
	.cfi_offset 65, 4
	cmpwi 7,0,0
	bne+ 7,.L95
.LVL479:
.LBB3475:
.LBB3476:
.LBB3477:
.LBB3478:
	.loc 4 456 0
	lfs 0,0(6)
	lfs 13,220(3)
	.loc 4 457 0
	lfs 12,224(3)
	.loc 4 456 0
	fadds 13,13,0
.LBE3478:
.LBE3477:
.LBB3487:
.LBB3488:
.LBB3489:
	.loc 8 454 0
	lfs 11,196(3)
	lfs 0,452(3)
	lfs 9,204(3)
.LBE3489:
.LBE3488:
.LBE3487:
.LBB3500:
.LBB3479:
	.loc 4 456 0
	stfs 13,220(3)
.LBE3479:
.LBE3500:
.LBB3501:
.LBB3495:
.LBB3490:
	.loc 8 454 0
	fmuls 11,0,11
	fmuls 9,0,9
.LBE3490:
.LBE3495:
.LBE3501:
.LBB3502:
.LBB3503:
	lfs 8,184(3)
.LBE3503:
.LBE3502:
.LBB3511:
.LBB3480:
	.loc 4 457 0
	lfs 13,4(6)
.LBE3480:
.LBE3511:
.LBB3512:
.LBB3496:
.LBB3491:
	.loc 8 454 0
	lfs 10,200(3)
.LBE3491:
.LBE3496:
.LBE3512:
.LBB3513:
.LBB3481:
	.loc 4 457 0
	fadds 12,12,13
.LBE3481:
.LBE3513:
.LBB3514:
.LBB3497:
.LBB3492:
	.loc 8 454 0
	lfs 13,448(3)
.LBE3492:
.LBE3497:
.LBE3514:
.LBB3515:
.LBB3482:
	.loc 4 458 0
	lfs 5,228(3)
.LBE3482:
.LBE3515:
.LBB3516:
.LBB3498:
.LBB3493:
	.loc 8 454 0
	fmuls 10,0,10
.LBE3493:
.LBE3498:
.LBE3516:
.LBB3517:
.LBB3504:
	fmadds 11,8,13,11
.LBE3504:
.LBE3517:
.LBB3518:
.LBB3499:
.LBB3494:
	lfs 0,456(3)
.LBE3494:
.LBE3499:
.LBE3518:
.LBB3519:
.LBB3483:
	.loc 4 457 0
	stfs 12,224(3)
.LBE3483:
.LBE3519:
.LBB3520:
.LBB3505:
	.loc 8 454 0
	lfs 12,192(3)
.LBE3505:
.LBE3520:
.LBB3521:
.LBB3484:
	.loc 4 458 0
	lfs 7,8(6)
.LBE3484:
.LBE3521:
.LBB3522:
.LBB3506:
	.loc 8 454 0
	fmadds 9,13,12,9
	lfs 8,188(3)
	lfs 12,216(3)
.LBE3506:
.LBE3522:
.LBB3523:
.LBB3485:
	.loc 4 458 0
	fadds 7,5,7
.LBE3485:
.LBE3523:
.LBB3524:
.LBB3507:
	.loc 8 454 0
	lfs 6,208(3)
	fmadds 13,13,8,10
	fmadds 9,0,12,9
	lfs 8,212(3)
	fmadds 11,6,0,11
	.loc 4 452 0
	lfs 12,172(3)
	lfs 10,180(3)
	.loc 8 454 0
	fmadds 0,0,8,13
.LBE3507:
.LBE3524:
.LBB3525:
.LBB3486:
	.loc 4 458 0
	stfs 7,228(3)
.LVL480:
.LBE3486:
.LBE3525:
.LBB3526:
.LBB3508:
	.loc 4 452 0
	fadds 11,11,12
	fadds 9,9,10
.LBE3508:
.LBE3526:
.LBB3527:
.LBB3528:
	.loc 4 431 0
	lfs 12,0(5)
	lfs 13,8(5)
.LBE3528:
.LBE3527:
.LBB3532:
.LBB3509:
	.loc 4 452 0
	lfs 10,176(3)
.LBE3509:
.LBE3532:
.LBB3533:
.LBB3529:
	.loc 4 431 0
	fsubs 11,12,11
	fsubs 9,13,9
.LVL481:
.LBE3529:
.LBE3533:
.LBB3534:
.LBB3535:
	.loc 4 620 0
	lfs 8,8(6)
.LBE3535:
.LBE3534:
.LBB3540:
.LBB3510:
	.loc 4 452 0
	fadds 0,0,10
.LBE3510:
.LBE3540:
.LBB3541:
.LBB3536:
	.loc 4 620 0
	lfs 12,4(6)
.LBE3536:
.LBE3541:
.LBB3542:
.LBB3530:
	.loc 4 431 0
	lfs 10,4(5)
.LBE3530:
.LBE3542:
.LBB3543:
.LBB3537:
	.loc 4 620 0
	fmuls 13,11,8
	fmuls 7,9,12
.LBE3537:
.LBE3543:
.LBB3544:
.LBB3531:
	.loc 4 431 0
	fsubs 0,10,0
.LVL482:
.LBE3531:
.LBE3544:
.LBB3545:
.LBB3538:
	.loc 4 620 0
	lfs 10,0(6)
.LVL483:
.LBE3538:
.LBE3545:
.LBB3546:
.LBB3547:
	fmsubs 9,9,10,13
.LVL484:
	.loc 4 457 0
	lfs 13,236(3)
	.loc 4 620 0
	fmsubs 8,0,8,7
.LVL485:
	.loc 4 456 0
	lfs 7,232(3)
.LBE3547:
.LBE3546:
.LBB3550:
.LBB3539:
	.loc 4 620 0
	fmuls 10,0,10
.LBE3539:
.LBE3550:
.LBB3551:
.LBB3548:
	.loc 4 457 0
	fadds 9,13,9
.LVL486:
	.loc 4 456 0
	fadds 8,7,8
.LVL487:
	.loc 4 620 0
	fmsubs 12,11,12,10
	.loc 4 456 0
	stfs 8,232(3)
	.loc 4 457 0
	stfs 9,236(3)
	.loc 4 458 0
	lfs 11,240(3)
.LVL488:
.LBE3548:
.LBE3551:
	.loc 2 1051 0
	lwz 11,0(3)
.LBB3552:
.LBB3549:
	.loc 4 458 0
	fadds 12,11,12
.LVL489:
	stfs 12,240(3)
.LBE3549:
.LBE3552:
	.loc 2 1051 0
	lwz 0,88(11)
	mtctr 0
	bctrl
.LVL490:
.L95:
.LBE3476:
.LBE3475:
	.loc 2 1052 0
	lwz 0,12(1)
	addi 1,1,8
.LCFI55:
	.cfi_def_cfa_offset 0
	mtlr 0
	blr
	.cfi_endproc
.LFE2871:
	.size	_ZN19idPhysics_RigidBody12ApplyImpulseEiRK6idVec3S2_, .-_ZN19idPhysics_RigidBody12ApplyImpulseEiRK6idVec3S2_
	.align 2
	.globl _ZN19idPhysics_RigidBody9SetOriginERK6idVec3i
	.type	_ZN19idPhysics_RigidBody9SetOriginERK6idVec3i, @function
_ZN19idPhysics_RigidBody9SetOriginERK6idVec3i:
.LFB2878:
	.loc 2 1122 0
	.cfi_startproc
.LVL491:
	mflr 0
	stwu 1,-64(1)
.LCFI56:
	.cfi_def_cfa_offset 64
	.cfi_register 65, 0
	stw 30,56(1)
	mr 30,4
	.cfi_offset 30, -8
	stw 31,60(1)
	mr 31,3
	.cfi_offset 31, -4
.LVL492:
	stw 0,68(1)
.LBB3572:
.LBB3573:
.LBB3574:
	.loc 4 424 0
	lwz 0,0(4)
	.cfi_offset 65, 4
.LBE3574:
.LBE3573:
	.loc 2 1127 0
	lbz 9,540(3)
.LBB3577:
.LBB3575:
	.loc 4 424 0
	stw 0,76(3)
.LBE3575:
.LBE3577:
	.loc 2 1127 0
	cmpwi 7,9,0
.LBB3578:
.LBB3576:
	.loc 4 425 0
	lwz 0,4(4)
	stw 0,80(3)
	.loc 4 426 0
	lwz 0,8(4)
	stw 0,84(3)
.LBE3576:
.LBE3578:
	.loc 2 1127 0
	bne- 7,.L100
.LVL493:
.LBB3579:
.LBB3580:
	.loc 4 424 0
	lwz 0,0(4)
	stw 0,172(3)
	.loc 4 425 0
	lwz 0,4(4)
	stw 0,176(3)
	.loc 4 426 0
	lwz 0,8(4)
	stw 0,180(3)
.LVL494:
.L99:
.LBE3580:
.LBE3579:
	.loc 2 1135 0
	lwz 3,436(31)
.LVL495:
	lis 4,gameLocal+2311032@ha
	lwz 5,4(31)
	addi 7,31,172
	lwz 6,8(3)
	addi 8,3,28
	la 4,gameLocal+2311032@l(4)
	li 9,-1
	bl _ZN11idClipModel4LinkER6idClipP8idEntityiRK6idVec3RK6idMat3i
.LVL496:
	.loc 2 1137 0
	lwz 9,0(31)
	mr 3,31
	lwz 0,88(9)
	mtctr 0
	bctrl
.LBE3572:
	.loc 2 1138 0
	lwz 0,68(1)
	lwz 30,56(1)
.LVL497:
	mtlr 0
	lwz 31,60(1)
.LVL498:
	addi 1,1,64
	.cfi_remember_state
.LCFI57:
	.cfi_def_cfa_offset 0
	.cfi_restore 31
	.cfi_restore 30
	blr
.LVL499:
.L100:
.LCFI58:
	.cfi_restore_state
.LBB3602:
	.loc 2 1128 0
	lwz 3,4(3)
.LVL500:
	addi 4,1,8
.LVL501:
	addi 5,1,20
.LVL502:
	bl _ZNK8idEntity17GetMasterPositionER6idVec3R6idMat3
.LVL503:
.LBB3581:
.LBB3582:
.LBB3583:
	.loc 8 454 0
	lfs 0,4(30)
	lfs 11,36(1)
	lfs 13,32(1)
	lfs 12,40(1)
	fmuls 11,0,11
.LBE3583:
.LBE3582:
.LBE3581:
.LBB3588:
.LBB3589:
	lfs 10,24(1)
.LBE3589:
.LBE3588:
.LBB3593:
.LBB3586:
.LBB3584:
	fmuls 12,0,12
	fmuls 0,0,13
	lfs 13,0(30)
.LBE3584:
.LBE3586:
.LBE3593:
.LBB3594:
.LBB3590:
	fmadds 11,13,10,11
	lfs 10,28(1)
	fmadds 12,13,10,12
	lfs 10,20(1)
	fmadds 13,10,13,0
.LBE3590:
.LBE3594:
.LBB3595:
.LBB3587:
.LBB3585:
	lfs 0,8(30)
.LVL504:
.LBE3585:
.LBE3587:
.LBE3595:
.LBB3596:
.LBB3591:
	lfs 10,48(1)
	fmadds 11,0,10,11
	lfs 10,52(1)
	fmadds 12,0,10,12
	lfs 10,44(1)
	fmadds 0,10,0,13
	.loc 4 452 0
	lfs 13,12(1)
	fadds 11,11,13
	lfs 13,16(1)
	fadds 12,12,13
.LVL505:
	lfs 13,8(1)
.LBE3591:
.LBE3596:
.LBB3597:
.LBB3598:
	.loc 4 425 0
	stfs 11,176(31)
.LBE3598:
.LBE3597:
.LBB3600:
.LBB3592:
	.loc 4 452 0
	fadds 0,13,0
.LBE3592:
.LBE3600:
.LBB3601:
.LBB3599:
	.loc 4 426 0
	stfs 12,180(31)
	.loc 4 424 0
	stfs 0,172(31)
	b .L99
.LBE3599:
.LBE3601:
.LBE3602:
	.cfi_endproc
.LFE2878:
	.size	_ZN19idPhysics_RigidBody9SetOriginERK6idVec3i, .-_ZN19idPhysics_RigidBody9SetOriginERK6idVec3i
	.align 2
	.globl _ZN19idPhysics_RigidBody6RotateERK10idRotationi
	.type	_ZN19idPhysics_RigidBody6RotateERK10idRotationi, @function
_ZN19idPhysics_RigidBody6RotateERK10idRotationi:
.LFB2881:
	.loc 2 1183 0
	.cfi_startproc
.LVL506:
	stwu 1,-96(1)
.LCFI59:
	.cfi_def_cfa_offset 96
	mflr 0
	stw 31,92(1)
	mr 31,3
	.cfi_offset 31, -4
	.cfi_register 65, 0
.LBB3668:
	.loc 2 1187 0
	mr 3,4
.LVL507:
.LBE3668:
	.loc 2 1183 0
	stw 0,100(1)
	stw 29,84(1)
	addi 29,1,16
	.cfi_offset 29, -12
	.cfi_offset 65, 4
	stw 30,88(1)
	mr 30,4
	.cfi_offset 30, -8
	stw 28,80(1)
.LBB3785:
	.loc 2 1187 0
	.cfi_offset 28, -16
	bl _ZNK10idRotation6ToMat3Ev
.LVL508:
	addi 8,31,184
.LVL509:
	.loc 2 1183 0
	addi 0,31,220
.LBE3785:
	.loc 8 513 0
	mr 9,8
	addi 3,3,-4
.LVL510:
.L102:
.LBB3786:
.LBB3669:
.LBB3670:
	.loc 8 516 0
	lfs 9,0(9)
	.loc 2 1183 0
	mr 11,3
	.loc 8 516 0
	lfs 10,4(9)
	addi 10,1,4
	lfs 11,8(9)
.LVL511:
.L103:
.LBE3670:
.LBE3669:
	.loc 2 1183 0
	addi 11,11,4
.LBB3672:
.LBB3671:
	.loc 8 520 0
	lfs 0,12(11)
	lfs 12,0(11)
	fmuls 0,10,0
	lfs 13,24(11)
	fmadds 0,12,9,0
	fmadds 0,13,11,0
	stfsu 0,4(10)
	.loc 8 517 0
	cmpw 7,10,29
	bne+ 7,.L103
	.loc 8 522 0
	lwz 11,8(1)
	stw 11,0(9)
	lwz 11,12(1)
	stw 11,4(9)
	lwz 11,16(1)
	stw 11,8(9)
	.loc 8 523 0
	addi 9,9,12
.LVL512:
	.loc 8 516 0
	cmpw 7,9,0
	bne+ 7,.L102
.LVL513:
.LBE3671:
.LBE3672:
.LBB3673:
.LBB3674:
.LBB3675:
	.file 11 "d:/Data/Nintendo/DoomGX/src/game/physics/../../idlib/../idlib/math/Rotation.h"
	.loc 11 185 0
	lbz 0,64(30)
	cmpwi 7,0,0
	beq- 7,.L116
.LVL514:
.L105:
.LBB3676:
.LBB3677:
	.loc 4 431 0
	lfs 9,4(30)
.LBE3677:
.LBE3676:
.LBE3675:
.LBE3674:
.LBE3673:
.LBB3721:
.LBB3722:
	.loc 8 333 0
	addi 28,31,88
.LBE3722:
.LBE3721:
.LBB3731:
.LBB3714:
.LBB3709:
.LBB3684:
.LBB3678:
	.loc 4 431 0
	lfs 12,176(31)
.LBE3678:
.LBE3684:
.LBE3709:
.LBE3714:
.LBE3731:
.LBB3732:
.LBB3729:
	.loc 8 333 0
	li 10,0
.LBE3729:
.LBE3732:
.LBB3733:
.LBB3715:
.LBB3710:
.LBB3685:
.LBB3679:
	.loc 4 431 0
	lfs 11,0(30)
	fsubs 12,12,9
.LBE3679:
.LBE3685:
.LBB3686:
.LBB3687:
.LBB3688:
	.loc 8 454 0
	lfs 0,40(30)
	lfs 7,44(30)
	lfs 8,48(30)
.LBE3688:
.LBE3687:
.LBE3686:
.LBB3693:
.LBB3680:
	.loc 4 431 0
	lfs 13,172(31)
.LBE3680:
.LBE3693:
.LBB3694:
.LBB3691:
.LBB3689:
	.loc 8 454 0
	fmuls 7,12,7
	fmuls 8,12,8
.LBE3689:
.LBE3691:
.LBE3694:
.LBB3695:
.LBB3681:
	.loc 4 431 0
	lfs 10,8(30)
	fsubs 13,13,11
.LBE3681:
.LBE3695:
.LBB3696:
.LBB3697:
	.loc 8 454 0
	lfs 5,36(30)
.LBE3697:
.LBE3696:
.LBB3702:
.LBB3692:
.LBB3690:
	fmuls 12,12,0
.LBE3690:
.LBE3692:
.LBE3702:
.LBB3703:
.LBB3698:
	lfs 6,28(30)
	lfs 4,32(30)
.LBE3698:
.LBE3703:
.LBB3704:
.LBB3682:
	.loc 4 431 0
	lfs 0,180(31)
.LBE3682:
.LBE3704:
.LBB3705:
.LBB3699:
	.loc 8 454 0
	fmadds 8,13,5,8
	fmadds 7,13,4,7
	lfs 5,56(30)
.LBE3699:
.LBE3705:
.LBB3706:
.LBB3683:
	.loc 4 431 0
	fsubs 0,0,10
.LVL515:
.LBE3683:
.LBE3706:
.LBE3710:
.LBE3715:
.LBE3733:
	.loc 2 1190 0
	lbz 0,540(31)
.LBB3734:
.LBB3716:
.LBB3711:
.LBB3707:
.LBB3700:
	.loc 8 454 0
	fmadds 13,13,6,12
.LVL516:
	lfs 6,60(30)
	lfs 12,52(30)
.LBE3700:
.LBE3707:
.LBE3711:
.LBE3716:
.LBE3734:
	.loc 2 1190 0
	cmpwi 7,0,0
.LBB3735:
.LBB3717:
.LBB3712:
.LBB3708:
.LBB3701:
	.loc 8 454 0
	fmadds 7,0,5,7
	fmadds 8,0,6,8
	fmadds 0,0,12,13
.LVL517:
	.loc 4 452 0
	fadds 9,9,7
	fadds 10,10,8
.LVL518:
	fadds 11,11,0
.LBE3701:
.LBE3708:
.LBE3712:
.LBE3717:
.LBB3718:
.LBB3719:
	.loc 4 425 0
	stfs 9,176(31)
	.loc 4 426 0
	stfs 10,180(31)
	.loc 4 424 0
	stfs 11,172(31)
.LBE3719:
.LBE3718:
.LBE3735:
	.loc 2 1190 0
	bne- 7,.L117
.L112:
.LBB3736:
.LBB3730:
.LBB3723:
.LBB3724:
	.loc 4 424 0
	mr 11,8
	mr 9,28
	lwzux 0,11,10
.LBE3724:
.LBE3723:
	.loc 8 333 0
	cmpwi 7,10,24
.LBB3727:
.LBB3725:
	.loc 4 424 0
	stwux 0,9,10
.LBE3725:
.LBE3727:
	.loc 8 333 0
	addi 10,10,12
.LBB3728:
.LBB3726:
	.loc 4 425 0
	lwz 0,4(11)
	stw 0,4(9)
	.loc 4 426 0
	lwz 0,8(11)
	stw 0,8(9)
.LBE3726:
.LBE3728:
	.loc 8 333 0
	bne+ 7,.L112
.LVL519:
.LBE3730:
.LBE3736:
.LBB3737:
.LBB3738:
	.loc 4 424 0
	lwz 11,172(31)
	.loc 4 425 0
	lwz 9,176(31)
	.loc 4 426 0
	lwz 0,180(31)
	.loc 4 424 0
	stw 11,76(31)
	.loc 4 425 0
	stw 9,80(31)
	.loc 4 426 0
	stw 0,84(31)
.LVL520:
.L110:
.LBE3738:
.LBE3737:
	.loc 2 1200 0
	lwz 3,436(31)
	lis 4,gameLocal+2311032@ha
	lwz 5,4(31)
	addi 7,31,172
	lwz 6,8(3)
	la 4,gameLocal+2311032@l(4)
	li 9,-1
	bl _ZN11idClipModel4LinkER6idClipP8idEntityiRK6idVec3RK6idMat3i
	.loc 2 1202 0
	lwz 9,0(31)
	mr 3,31
	lwz 0,88(9)
	mtctr 0
	bctrl
.LBE3786:
	.loc 2 1203 0
	lwz 0,100(1)
	lwz 28,80(1)
	mtlr 0
	lwz 29,84(1)
	lwz 30,88(1)
.LVL521:
	lwz 31,92(1)
.LVL522:
	addi 1,1,96
	.cfi_remember_state
.LCFI60:
	.cfi_def_cfa_offset 0
	.cfi_restore 31
	.cfi_restore 30
	.cfi_restore 29
	.cfi_restore 28
	blr
.LVL523:
.L116:
.LCFI61:
	.cfi_restore_state
.LBB3787:
.LBB3739:
.LBB3720:
.LBB3713:
	.loc 11 186 0
	mr 3,30
.LVL524:
	stw 8,72(1)
	bl _ZNK10idRotation6ToMat3Ev
.LVL525:
	lwz 8,72(1)
	b .L105
.LVL526:
.L117:
.LBE3713:
.LBE3720:
.LBE3739:
	.loc 2 1191 0
	lwz 3,4(31)
	addi 4,1,20
	addi 5,1,32
	stw 8,72(1)
	bl _ZNK8idEntity17GetMasterPositionER6idVec3R6idMat3
.LVL527:
	.loc 2 1192 0
	mr 3,30
	bl _ZNK10idRotation6ToMat3Ev
.LVL528:
	lwz 8,72(1)
	addi 3,3,-4
.LVL529:
	.loc 2 1183 0
	addi 10,31,124
.LVL530:
.L107:
.LBB3740:
.LBB3741:
	.loc 8 516 0
	lfs 9,0(28)
	.loc 2 1183 0
	mr 9,3
	.loc 8 516 0
	lfs 10,4(28)
	addi 11,1,4
	lfs 11,8(28)
.LVL531:
.L108:
.LBE3741:
.LBE3740:
	.loc 2 1183 0
	addi 9,9,4
.LBB3743:
.LBB3742:
	.loc 8 520 0
	lfs 0,12(9)
	lfs 12,0(9)
	fmuls 0,10,0
	lfs 13,24(9)
	fmadds 0,12,9,0
	fmadds 0,13,11,0
	stfsu 0,4(11)
	.loc 8 517 0
	cmpw 7,11,29
	bne+ 7,.L108
	.loc 8 522 0
	lwz 0,8(1)
	stw 0,0(28)
	lwz 0,12(1)
	stw 0,4(28)
	lwz 0,16(1)
	stw 0,8(28)
	.loc 8 523 0
	addi 28,28,12
.LVL532:
	.loc 8 516 0
	cmpw 7,28,10
	bne+ 7,.L107
.LVL533:
.LBE3742:
.LBE3743:
.LBB3744:
.LBB3745:
	.loc 4 431 0
	lfs 13,176(31)
	lfs 0,24(1)
	lfs 9,172(31)
	fsubs 0,13,0
.LBE3745:
.LBE3744:
.LBB3754:
.LBB3755:
.LBB3756:
	.loc 8 454 0
	lfs 12,60(1)
.LBE3756:
.LBE3755:
.LBE3754:
.LBB3765:
.LBB3746:
	.loc 4 431 0
	lfs 13,20(1)
.LBE3746:
.LBE3765:
.LBB3766:
.LBB3761:
.LBB3757:
	.loc 8 454 0
	lfs 11,48(1)
.LBE3757:
.LBE3761:
.LBE3766:
.LBB3767:
.LBB3747:
	.loc 4 431 0
	fsubs 13,9,13
.LBE3747:
.LBE3767:
.LBB3768:
.LBB3762:
.LBB3758:
	.loc 8 454 0
	lfs 10,36(1)
	fmuls 12,0,12
.LBE3758:
.LBE3762:
.LBE3768:
.LBB3769:
.LBB3748:
	lfs 9,56(1)
.LBE3748:
.LBE3769:
.LBB3770:
.LBB3763:
.LBB3759:
	fmuls 10,0,10
.LBE3759:
.LBE3763:
.LBE3770:
.LBB3771:
.LBB3749:
	lfs 8,44(1)
.LBE3749:
.LBE3771:
.LBB3772:
.LBB3764:
.LBB3760:
	fmuls 11,0,11
.LBE3760:
.LBE3764:
.LBE3772:
.LBB3773:
.LBB3750:
	.loc 4 431 0
	lfs 7,180(31)
	.loc 8 454 0
	fmadds 12,13,9,12
	.loc 4 431 0
	lfs 0,28(1)
.LBE3750:
.LBE3773:
.LBB3774:
.LBB3775:
	.loc 8 454 0
	lfs 9,32(1)
.LBE3775:
.LBE3774:
.LBB3779:
.LBB3751:
	.loc 4 431 0
	fsubs 0,7,0
.LVL534:
	.loc 8 454 0
	fmadds 11,13,8,11
	lfs 8,52(1)
.LBE3751:
.LBE3779:
.LBB3780:
.LBB3776:
	fmadds 13,13,9,10
.LVL535:
.LBE3776:
.LBE3780:
.LBB3781:
.LBB3752:
	lfs 9,64(1)
.LBE3752:
.LBE3781:
.LBB3782:
.LBB3777:
	lfs 10,40(1)
.LBE3777:
.LBE3782:
.LBB3783:
.LBB3753:
	fmadds 11,0,8,11
	fmadds 12,0,9,12
.LVL536:
.LBE3753:
.LBE3783:
.LBB3784:
.LBB3778:
	fmadds 0,0,10,13
.LVL537:
	.loc 4 425 0
	stfs 11,80(31)
	.loc 4 426 0
	stfs 12,84(31)
	.loc 4 424 0
	stfs 0,76(31)
	b .L110
.LBE3778:
.LBE3784:
.LBE3787:
	.cfi_endproc
.LFE2881:
	.size	_ZN19idPhysics_RigidBody6RotateERK10idRotationi, .-_ZN19idPhysics_RigidBody6RotateERK10idRotationi
	.align 2
	.globl _ZN19idPhysics_RigidBody16EvaluateContactsEv
	.type	_ZN19idPhysics_RigidBody16EvaluateContactsEv, @function
_ZN19idPhysics_RigidBody16EvaluateContactsEv:
.LFB2895:
	.loc 2 1358 0
	.cfi_startproc
.LVL538:
	mflr 0
	stwu 1,-80(1)
.LCFI62:
	.cfi_def_cfa_offset 80
	.cfi_register 65, 0
	stw 30,72(1)
.LBB3835:
	.loc 2 1364 0
	addi 30,3,36
	.cfi_offset 30, -8
.LBE3835:
	.loc 2 1358 0
	stw 31,76(1)
	mr 31,3
	.cfi_offset 31, -4
	stw 0,84(1)
	stw 28,64(1)
	stw 29,68(1)
.LBB4092:
	.loc 2 1362 0
	lwz 9,0(3)
	lwz 0,208(9)
	.cfi_offset 29, -12
	.cfi_offset 28, -16
	.cfi_offset 65, 4
	mtctr 0
	bctrl
.LVL539:
.LBB3836:
.LBB3837:
	.file 12 "d:/Data/Nintendo/DoomGX/src/game/physics/../../idlib/../idlib/containers/List.h"
	.loc 12 299 0
	lwz 0,40(31)
	cmpwi 7,0,9
	bgt- 7,.L119
.LVL540:
.LBB3838:
.LBB3839:
	.loc 12 387 0
	lwz 9,36(31)
	.loc 12 386 0
	li 0,10
	.loc 12 385 0
	lwz 29,48(31)
.LVL541:
	.loc 12 387 0
	cmpwi 7,9,10
	.loc 12 386 0
	stw 0,40(31)
	.loc 12 387 0
	bgt- 7,.L129
.L120:
	.loc 12 392 0
	li 3,560
	bl _Znaj
.LVL542:
	.loc 12 393 0
	lwz 0,36(31)
	.loc 12 392 0
	stw 3,48(31)
.LVL543:
	.loc 12 393 0
	cmpwi 7,0,0
	ble- 7,.L121
	mr 9,29
	li 8,0
	li 7,0
	addi 5,29,4
	addi 6,29,16
	b .L122
.LVL544:
.L130:
	lwz 3,48(31)
.LVL545:
.L122:
.LBB3840:
.LBB3841:
	.file 13 "d:/Data/Nintendo/DoomGX/src/game/physics/../../idlib/../cm/CollisionModel.h"
	.loc 13 71 0
	lwz 0,0(9)
.LBB3842:
.LBB3843:
	.loc 4 424 0
	mr 10,5
.LBE3843:
.LBE3842:
.LBB3845:
.LBB3846:
	mr 11,6
.LBE3846:
.LBE3845:
.LBE3841:
.LBE3840:
	.loc 12 393 0
	addi 7,7,1
.LBB3856:
.LBB3852:
	.loc 13 71 0
	stwx 0,3,8
.LBE3852:
.LBE3856:
	.loc 12 394 0
	add 3,3,8
.LVL546:
.LBB3857:
.LBB3853:
.LBB3849:
.LBB3844:
	.loc 4 424 0
	lwzux 0,10,8
	stw 0,4(3)
	.loc 4 425 0
	lwz 0,4(10)
	stw 0,8(3)
	.loc 4 426 0
	lwz 0,8(10)
	stw 0,12(3)
.LVL547:
.LBE3844:
.LBE3849:
.LBB3850:
.LBB3847:
	.loc 4 424 0
	lwzux 0,11,8
.LBE3847:
.LBE3850:
.LBE3853:
.LBE3857:
	.loc 12 393 0
	addi 8,8,56
.LBB3858:
.LBB3854:
.LBB3851:
.LBB3848:
	.loc 4 424 0
	stw 0,16(3)
	.loc 4 425 0
	lwz 0,4(11)
	stw 0,20(3)
	.loc 4 426 0
	lwz 0,8(11)
	stw 0,24(3)
.LBE3848:
.LBE3851:
	.loc 13 71 0
	lwz 0,28(9)
	stw 0,28(3)
	lwz 0,32(9)
	stw 0,32(3)
	lwz 0,36(9)
	stw 0,36(3)
	lwz 0,40(9)
	stw 0,40(3)
	lwz 0,44(9)
	stw 0,44(3)
	lwz 0,48(9)
	stw 0,48(3)
	lwz 0,52(9)
.LBE3854:
.LBE3858:
	.loc 12 393 0
	addi 9,9,56
.LBB3859:
.LBB3855:
	.loc 13 71 0
	stw 0,52(3)
.LBE3855:
.LBE3859:
	.loc 12 393 0
	lwz 0,0(30)
	cmpw 7,7,0
	blt+ 7,.L130
.LVL548:
.L121:
	.loc 12 398 0
	cmpwi 7,29,0
	beq- 7,.L119
	.loc 12 399 0
	mr 3,29
	bl _ZdaPv
.LVL549:
.L119:
.LBE3839:
.LBE3838:
.LBE3837:
.LBE3836:
	.loc 2 1366 0
	lfs 13,72(31)
.LBB3865:
.LBB3862:
	.loc 12 302 0
	li 0,10
.LBE3862:
.LBE3865:
.LBB3866:
.LBB3867:
	.loc 4 448 0
	lfs 8,16(31)
.LBE3867:
.LBE3866:
.LBB3872:
.LBB3873:
.LBB3874:
.LBB3875:
	.loc 7 275 0
	lis 9,.LC6@ha
.LBE3875:
.LBE3874:
.LBE3873:
.LBE3872:
	.loc 2 1366 0
	lfs 0,440(31)
	.loc 2 1371 0
	lis 3,gameLocal+2311032@ha
.LBB3936:
.LBB3868:
	.loc 4 448 0
	fmuls 8,13,8
.LBE3868:
.LBE3936:
	.loc 4 452 0
	lfs 12,224(31)
.LBB3937:
.LBB3869:
	.loc 4 448 0
	lfs 7,12(31)
.LBE3869:
.LBE3937:
	.loc 2 1371 0
	la 3,gameLocal+2311032@l(3)
	.loc 4 452 0
	lfs 11,220(31)
	.loc 2 1371 0
	li 5,10
	.loc 4 452 0
	fmadds 8,0,8,12
.LBB3938:
.LBB3870:
	.loc 4 448 0
	lfs 9,20(31)
	fmuls 7,13,7
.LBE3870:
.LBE3938:
.LBB3939:
.LBB3940:
	.loc 4 425 0
	lfs 12,236(31)
.LBE3940:
.LBE3939:
.LBB3946:
.LBB3871:
	.loc 4 448 0
	fmuls 9,13,9
.LBE3871:
.LBE3946:
	.loc 4 452 0
	lfs 10,228(31)
.LBB3947:
.LBB3914:
	.loc 4 649 0
	fmuls 6,8,8
.LBE3914:
.LBE3947:
.LBB3948:
.LBB3941:
	.loc 4 426 0
	lfs 13,240(31)
.LBE3941:
.LBE3948:
	.loc 4 452 0
	fmadds 7,0,7,11
.LBB3949:
.LBB3942:
	.loc 4 424 0
	lfs 11,232(31)
.LBE3942:
.LBE3949:
.LBB3950:
.LBB3951:
	.loc 4 649 0
	fmuls 5,12,12
.LBE3951:
.LBE3950:
.LBB4004:
.LBB3863:
	.loc 12 302 0
	stw 0,36(31)
.LBE3863:
.LBE4004:
	.loc 4 452 0
	fmadds 9,0,9,10
.LBB4005:
.LBB3915:
.LBB3895:
.LBB3876:
	.loc 7 275 0
	lfs 4,.LC6@l(9)
.LBE3876:
.LBE3895:
.LBE3915:
.LBE4005:
.LBB4006:
.LBB3943:
	.loc 4 649 0
	fmadds 6,7,7,6
.LVL550:
.LBE3943:
.LBE4006:
.LBB4007:
.LBB3916:
.LBB3896:
.LBB3877:
	.loc 7 276 0
	lis 9,_ZN6idMath5iSqrtE@ha
.LBE3877:
.LBE3896:
	.loc 4 649 0
	fmadds 0,11,11,5
.LBB3897:
.LBB3878:
	.loc 7 276 0
	la 9,_ZN6idMath5iSqrtE@l(9)
.LBE3878:
.LBE3897:
.LBE3916:
.LBE4007:
.LBB4008:
.LBB3944:
	.loc 4 649 0
	fmadds 6,9,9,6
.LBE3944:
.LBE4008:
.LBB4009:
.LBB3917:
	fmadds 0,13,13,0
.LBE3917:
.LBE4009:
.LBB4010:
.LBB3945:
	stfs 6,48(1)
.LBE3945:
.LBE4010:
.LBB4011:
.LBB3918:
.LBB3898:
.LBB3879:
	.loc 7 275 0
	fmuls 10,6,4
.LBE3879:
.LBE3898:
	.loc 4 649 0
	stfs 0,52(1)
.LBB3899:
.LBB3880:
	.loc 7 270 0
	lwz 11,48(1)
.LVL551:
.LBE3880:
.LBE3899:
.LBE3918:
.LBE4011:
.LBB4012:
.LBB3984:
.LBB3952:
.LBB3953:
	lwz 0,52(1)
.LBE3953:
.LBE3952:
.LBE3984:
.LBE4012:
.LBB4013:
.LBB3919:
.LBB3900:
.LBB3881:
	.loc 2 1358 0
	fneg 10,10
	.loc 7 276 0
	rlwinm 8,11,9,24,31
	rlwinm 11,11,19,21,29
	lwzx 10,9,11
.LBE3881:
.LBE3900:
.LBE3919:
.LBE4013:
.LBB4014:
.LBB3985:
.LBB3969:
.LBB3954:
	rlwinm 7,0,19,21,29
.LBE3954:
.LBE3969:
.LBE3985:
.LBE4014:
.LBB4015:
.LBB3920:
.LBB3901:
.LBB3882:
	subfic 8,8,380
.LBE3882:
.LBE3901:
.LBE3920:
.LBE4015:
.LBB4016:
.LBB3986:
.LBB3970:
.LBB3955:
	lwzx 11,9,7
	rlwinm 6,0,9,24,31
.LBE3955:
.LBE3970:
.LBE3986:
.LBE4016:
.LBB4017:
.LBB3921:
.LBB3902:
.LBB3883:
	rlwinm 9,8,22,0,8
	or 9,9,10
.LBE3883:
.LBE3902:
.LBE3921:
.LBE4017:
.LBB4018:
.LBB3987:
.LBB3971:
.LBB3956:
	subfic 0,6,380
.LBE3956:
.LBE3971:
.LBE3987:
.LBE4018:
.LBB4019:
.LBB3922:
.LBB3903:
.LBB3884:
	.loc 7 277 0
	stw 9,56(1)
.LBE3884:
.LBE3903:
.LBE3922:
.LBE4019:
.LBB4020:
.LBB3988:
.LBB3972:
.LBB3957:
	.loc 7 276 0
	rlwinm 0,0,22,0,8
	.loc 7 275 0
	lfs 0,52(1)
	.loc 7 276 0
	or 0,0,11
.LBE3957:
.LBE3972:
.LBE3988:
.LBE4020:
.LBB4021:
.LBB3923:
.LBB3904:
.LBB3885:
	.loc 7 278 0
	lis 9,.LC8@ha
.LBE3885:
.LBE3904:
.LBE3923:
.LBE4021:
	.loc 2 1371 0
	addi 7,1,16
.LBB4022:
.LBB3989:
.LBB3973:
.LBB3958:
	.loc 7 275 0
	fmuls 4,0,4
.LBE3958:
.LBE3973:
.LBE3989:
.LBE4022:
.LBB4023:
.LBB3924:
.LBB3905:
.LBB3886:
	.loc 7 277 0
	lfs 0,56(1)
.LBE3886:
.LBE3905:
.LBE3924:
.LBE4023:
.LBB4024:
.LBB3990:
.LBB3974:
.LBB3959:
	stw 0,56(1)
.LBE3959:
.LBE3974:
.LBE3990:
.LBE4024:
.LBB4025:
.LBB3925:
.LBB3906:
.LBB3887:
	fmr 2,0
.LVL552:
.LBE3887:
.LBE3906:
.LBE3925:
.LBE4025:
.LBB4026:
.LBB3991:
.LBB3975:
.LBB3960:
	lfs 0,56(1)
.LVL553:
	.loc 2 1358 0
	fneg 4,4
.LBE3960:
.LBE3975:
.LBE3991:
.LBE4026:
	.loc 2 1370 0
	lwz 6,436(31)
.LBB4027:
.LBB3992:
.LBB3976:
.LBB3961:
	.loc 7 277 0
	fmr 3,0
.LBE3961:
.LBE3976:
.LBE3992:
.LBE4027:
.LBB4028:
.LBB3926:
.LBB3907:
.LBB3888:
	.loc 7 278 0
	lfs 0,.LC8@l(9)
	fmul 5,2,2
.LBE3888:
.LBE3907:
.LBE3926:
.LBE4028:
	.loc 2 1371 0
	lis 9,.LC9@ha
	lwz 0,4(31)
	mr 8,6
.LBB4029:
.LBB3993:
.LBB3977:
.LBB3962:
	.loc 7 278 0
	fmul 6,3,3
.LBE3962:
.LBE3977:
.LBE3993:
.LBE4029:
	.loc 2 1371 0
	lfs 1,.LC9@l(9)
	lwz 4,48(31)
	addi 6,6,16
.LBB4030:
.LBB3927:
.LBB3908:
.LBB3889:
	.loc 7 278 0
	fmadd 5,10,5,0
.LBE3889:
.LBE3908:
.LBE3927:
.LBE4030:
	.loc 2 1371 0
	lwz 10,8(31)
	addi 9,8,28
.LBB4031:
.LBB3994:
.LBB3978:
.LBB3963:
	.loc 7 278 0
	fmadd 6,4,6,0
.LBE3963:
.LBE3978:
.LBE3994:
.LBE4031:
.LBB4032:
.LBB3928:
.LBB3909:
.LBB3890:
	fmul 5,2,5
.LVL554:
.LBE3890:
.LBE3909:
.LBE3928:
.LBE4032:
.LBB4033:
.LBB3995:
.LBB3979:
.LBB3964:
	fmul 6,3,6
.LBE3964:
.LBE3979:
.LBE3995:
.LBE4033:
.LBB4034:
.LBB3929:
.LBB3910:
.LBB3891:
	.loc 7 279 0
	fmul 2,5,5
.LBE3891:
.LBE3910:
.LBE3929:
.LBE4034:
.LBB4035:
.LBB3996:
.LBB3980:
.LBB3965:
	fmul 3,6,6
.LBE3965:
.LBE3980:
.LBE3996:
.LBE4035:
.LBB4036:
.LBB3930:
.LBB3911:
.LBB3892:
	fmadd 10,10,2,0
.LVL555:
.LBE3892:
.LBE3911:
.LBE3930:
.LBE4036:
.LBB4037:
.LBB3997:
.LBB3981:
.LBB3966:
	fmadd 0,4,3,0
.LBE3966:
.LBE3981:
.LBE3997:
.LBE4037:
.LBB4038:
.LBB3931:
.LBB3912:
.LBB3893:
	fmul 10,5,10
.LVL556:
.LBE3893:
.LBE3912:
.LBE3931:
.LBE4038:
.LBB4039:
.LBB3998:
.LBB3982:
.LBB3967:
	fmul 0,6,0
.LBE3967:
.LBE3982:
.LBE3998:
.LBE4039:
.LBB4040:
.LBB3932:
.LBB3913:
.LBB3894:
	.loc 7 280 0
	frsp 10,10
.LVL557:
.LBE3894:
.LBE3913:
.LBE3932:
.LBE4040:
.LBB4041:
.LBB3999:
.LBB3983:
.LBB3968:
	frsp 0,0
.LBE3968:
.LBE3983:
.LBE3999:
.LBE4041:
.LBB4042:
.LBB3933:
	.loc 4 651 0
	fmuls 7,7,10
.LVL558:
	.loc 4 652 0
	fmuls 8,8,10
.LVL559:
.LBE3933:
.LBE4042:
.LBB4043:
.LBB4000:
	.loc 4 651 0
	fmuls 11,11,0
	.loc 4 652 0
	fmuls 12,12,0
.LBE4000:
.LBE4043:
.LBB4044:
.LBB3934:
	.loc 4 651 0
	stfs 7,16(1)
	.loc 4 653 0
	fmuls 10,9,10
	.loc 4 652 0
	stfs 8,20(1)
.LBE3934:
.LBE4044:
.LBB4045:
.LBB4001:
	.loc 4 653 0
	fmuls 0,13,0
.LBE4001:
.LBE4045:
.LBB4046:
.LBB3935:
	stfs 10,24(1)
.LVL560:
.LBE3935:
.LBE4046:
.LBB4047:
.LBB4002:
	.loc 4 651 0
	stfs 11,28(1)
.LBE4002:
.LBE4047:
	.loc 2 1371 0
	stw 0,8(1)
.LBB4048:
.LBB4003:
	.loc 4 652 0
	stfs 12,32(1)
	.loc 4 653 0
	stfs 0,36(1)
.LVL561:
.LBE4003:
.LBE4048:
	.loc 2 1371 0
	bl _ZN6idClip8ContactsEP13contactInfo_tiRK6idVec3RK6idVec6fPK11idClipModelRK6idMat3iPK8idEntity
.LVL562:
.LBB4049:
.LBB4050:
	.loc 12 299 0
	lwz 0,40(31)
.LBE4050:
.LBE4049:
	.loc 2 1371 0
	mr 29,3
.LVL563:
.LBB4088:
.LBB4085:
	.loc 12 299 0
	cmpw 7,3,0
	ble- 7,.L123
.LVL564:
.LBB4051:
.LBB4052:
	.loc 12 375 0
	cmpwi 7,3,0
	ble- 7,.L131
	.loc 12 387 0
	lwz 0,36(31)
	.loc 12 385 0
	lwz 28,48(31)
.LVL565:
	.loc 12 387 0
	cmpw 7,3,0
	.loc 12 386 0
	stw 3,40(31)
	.loc 12 387 0
	blt- 7,.L132
.L126:
	.loc 12 392 0
	mulli 3,29,56
.LVL566:
	bl _Znaj
.LVL567:
	.loc 12 393 0
	lwz 0,36(31)
	.loc 12 392 0
	stw 3,48(31)
.LVL568:
	.loc 12 393 0
	cmpwi 7,0,0
	ble- 7,.L127
	mr 9,28
	li 8,0
	li 7,0
	addi 5,28,4
	addi 6,28,16
	b .L128
.LVL569:
.L133:
	lwz 3,48(31)
.LVL570:
.L128:
.LBB4053:
.LBB4054:
	.loc 13 71 0
	lwz 0,0(9)
.LBB4055:
.LBB4056:
	.loc 4 424 0
	mr 10,5
.LBE4056:
.LBE4055:
.LBB4058:
.LBB4059:
	mr 11,6
.LBE4059:
.LBE4058:
.LBE4054:
.LBE4053:
	.loc 12 393 0
	addi 7,7,1
.LBB4069:
.LBB4065:
	.loc 13 71 0
	stwx 0,3,8
.LBE4065:
.LBE4069:
	.loc 12 394 0
	add 3,3,8
.LVL571:
.LBB4070:
.LBB4066:
.LBB4062:
.LBB4057:
	.loc 4 424 0
	lwzux 0,10,8
	stw 0,4(3)
	.loc 4 425 0
	lwz 0,4(10)
	stw 0,8(3)
	.loc 4 426 0
	lwz 0,8(10)
	stw 0,12(3)
.LVL572:
.LBE4057:
.LBE4062:
.LBB4063:
.LBB4060:
	.loc 4 424 0
	lwzux 0,11,8
.LBE4060:
.LBE4063:
.LBE4066:
.LBE4070:
	.loc 12 393 0
	addi 8,8,56
.LBB4071:
.LBB4067:
.LBB4064:
.LBB4061:
	.loc 4 424 0
	stw 0,16(3)
	.loc 4 425 0
	lwz 0,4(11)
	stw 0,20(3)
	.loc 4 426 0
	lwz 0,8(11)
	stw 0,24(3)
.LBE4061:
.LBE4064:
	.loc 13 71 0
	lwz 0,28(9)
	stw 0,28(3)
	lwz 0,32(9)
	stw 0,32(3)
	lwz 0,36(9)
	stw 0,36(3)
	lwz 0,40(9)
	stw 0,40(3)
	lwz 0,44(9)
	stw 0,44(3)
	lwz 0,48(9)
	stw 0,48(3)
	lwz 0,52(9)
.LBE4067:
.LBE4071:
	.loc 12 393 0
	addi 9,9,56
.LBB4072:
.LBB4068:
	.loc 13 71 0
	stw 0,52(3)
.LBE4068:
.LBE4072:
	.loc 12 393 0
	lwz 0,0(30)
	cmpw 7,7,0
	blt+ 7,.L133
.LVL573:
.L127:
	.loc 12 398 0
	cmpwi 7,28,0
	beq- 7,.L123
	.loc 12 399 0
	mr 3,28
	bl _ZdaPv
.LVL574:
.L123:
.LBE4052:
.LBE4051:
	.loc 12 302 0
	stw 29,36(31)
.LBE4085:
.LBE4088:
	.loc 2 1374 0
	mr 3,31
	bl _ZN14idPhysics_Base29AddContactEntitiesForContactsEv
.LBE4092:
	.loc 2 1377 0
	lwz 0,84(1)
.LBB4093:
	.loc 2 1376 0
	lwz 3,36(31)
.LBE4093:
	.loc 2 1377 0
	mtlr 0
	lwz 28,64(1)
.LBB4094:
	.loc 2 1376 0
	cntlzw 3,3
.LBE4094:
	.loc 2 1377 0
	lwz 29,68(1)
.LVL575:
.LBB4095:
	.loc 2 1376 0
	srwi 3,3,5
.LBE4095:
	.loc 2 1377 0
	lwz 30,72(1)
.LVL576:
	lwz 31,76(1)
.LVL577:
	xori 3,3,1
	addi 1,1,80
	.cfi_remember_state
.LCFI63:
	.cfi_def_cfa_offset 0
	.cfi_restore 31
	.cfi_restore 30
	.cfi_restore 29
	.cfi_restore 28
	blr
.LVL578:
.L129:
.LCFI64:
	.cfi_restore_state
.LBB4096:
.LBB4089:
.LBB3864:
.LBB3861:
.LBB3860:
	.loc 12 388 0
	stw 0,36(31)
	b .L120
.LVL579:
.L132:
.LBE3860:
.LBE3861:
.LBE3864:
.LBE4089:
.LBB4090:
.LBB4086:
.LBB4082:
.LBB4079:
	stw 3,36(31)
	b .L126
.LVL580:
.L131:
.LBB4073:
.LBB4074:
	.loc 12 193 0
	lwz 3,48(31)
.LVL581:
	cmpwi 7,3,0
	beq- 7,.L125
	.loc 12 194 0
	bl _ZdaPv
.L125:
	.loc 12 197 0
	li 0,0
.LBE4074:
.LBE4073:
.LBE4079:
.LBE4082:
	.loc 12 302 0
	stw 29,36(31)
.LBB4083:
.LBB4080:
.LBB4077:
.LBB4075:
	.loc 12 197 0
	stw 0,48(31)
.LBE4075:
.LBE4077:
.LBE4080:
.LBE4083:
.LBE4086:
.LBE4090:
	.loc 2 1374 0
	mr 3,31
.LBB4091:
.LBB4087:
.LBB4084:
.LBB4081:
.LBB4078:
.LBB4076:
	.loc 12 199 0
	stw 0,40(31)
.LBE4076:
.LBE4078:
.LBE4081:
.LBE4084:
.LBE4087:
.LBE4091:
	.loc 2 1374 0
	bl _ZN14idPhysics_Base29AddContactEntitiesForContactsEv
.LBE4096:
	.loc 2 1377 0
	lwz 0,84(1)
.LBB4097:
	.loc 2 1376 0
	lwz 3,36(31)
.LBE4097:
	.loc 2 1377 0
	mtlr 0
	lwz 28,64(1)
.LBB4098:
	.loc 2 1376 0
	cntlzw 3,3
.LBE4098:
	.loc 2 1377 0
	lwz 29,68(1)
.LVL582:
.LBB4099:
	.loc 2 1376 0
	srwi 3,3,5
.LBE4099:
	.loc 2 1377 0
	lwz 30,72(1)
.LVL583:
	lwz 31,76(1)
.LVL584:
	xori 3,3,1
	addi 1,1,80
	.cfi_restore 28
	.cfi_restore 29
	.cfi_restore 30
	.cfi_restore 31
.LCFI65:
	.cfi_def_cfa_offset 0
	blr
	.cfi_endproc
.LFE2895:
	.size	_ZN19idPhysics_RigidBody16EvaluateContactsEv, .-_ZN19idPhysics_RigidBody16EvaluateContactsEv
	.align 2
	.globl _ZNK19idPhysics_RigidBody18GetAngularVelocityEi
	.type	_ZNK19idPhysics_RigidBody18GetAngularVelocityEi, @function
_ZNK19idPhysics_RigidBody18GetAngularVelocityEi:
.LFB2887:
	.loc 2 1259 0
	.cfi_startproc
.LVL585:
	stwu 1,-168(1)
.LCFI66:
	.cfi_def_cfa_offset 168
	mflr 0
	stw 30,160(1)
.LBB4138:
	.loc 2 1260 0
	lis 30,.LANCHOR0@ha
	.cfi_offset 30, -8
	.cfi_register 65, 0
	la 30,.LANCHOR0@l(30)
.LBE4138:
	.loc 2 1259 0
	stw 29,156(1)
.LBB4199:
	.loc 2 1260 0
	addi 29,30,152
	.cfi_offset 29, -12
.LBE4199:
	.loc 2 1259 0
	stw 31,164(1)
	mr 31,3
	.cfi_offset 31, -4
.LBB4200:
	.loc 2 1260 0
	mr 3,29
.LVL586:
.LBE4200:
	.loc 2 1259 0
	stw 0,172(1)
.LBB4201:
	.loc 2 1260 0
	.cfi_offset 65, 4
	bl __cxa_guard_acquire
.LVL587:
	cmpwi 7,3,0
	bne- 7,.L146
.L135:
.LVL588:
.LBB4139:
.LBB4140:
.LBB4141:
	.loc 4 402 0
	lfs 9,184(31)
.LVL589:
.LBE4141:
.LBE4140:
.LBE4139:
	.loc 2 1263 0
	addi 8,1,80
.LBB4162:
.LBB4142:
.LBB4143:
	.loc 4 402 0
	lfs 10,196(31)
.LVL590:
.LBE4143:
.LBE4142:
.LBE4162:
	.loc 2 1259 0
	addi 0,1,44
.LBB4163:
.LBB4144:
.LBB4145:
	.loc 4 402 0
	lfs 11,208(31)
.LVL591:
.LBE4145:
.LBE4144:
.LBB4146:
.LBB4147:
	lwz 5,188(31)
.LVL592:
.LBE4147:
.LBE4146:
.LBB4148:
.LBB4149:
	lwz 11,204(31)
.LBE4149:
.LBE4148:
.LBB4150:
.LBB4151:
	lwz 9,216(31)
.LBE4151:
.LBE4150:
.LBB4152:
.LBB4153:
	lwz 6,200(31)
.LVL593:
.LBE4153:
.LBE4152:
.LBB4154:
.LBB4155:
	lwz 7,212(31)
.LVL594:
.LBE4155:
.LBE4154:
.LBB4156:
.LBB4157:
	lwz 10,192(31)
.LVL595:
.LBE4157:
.LBE4156:
.LBB4158:
.LBB4159:
	.loc 8 425 0
	stfs 9,80(1)
	stfs 10,84(1)
	stfs 11,88(1)
	.loc 8 426 0
	stw 5,92(1)
	.loc 8 427 0
	stw 11,108(1)
	stw 9,112(1)
.LVL596:
	.loc 8 426 0
	stw 6,96(1)
.LBE4159:
.LBE4158:
.LBE4163:
	.loc 2 1259 0
	mr 6,8
.LBB4164:
.LBB4161:
.LBB4160:
	.loc 8 426 0
	stw 7,100(1)
	addi 7,31,492
	.loc 8 427 0
	stw 10,104(1)
.LBE4160:
.LBE4161:
.LBE4164:
.LBE4201:
	.loc 8 465 0
	mr 10,0
.LVL597:
.L136:
.LBB4202:
.LBB4165:
.LBB4166:
	.loc 2 1259 0
	mr 9,7
.LBE4166:
.LBE4165:
.LBE4202:
	li 11,0
.LVL598:
.L137:
.LBB4203:
	addi 9,9,4
.LBB4168:
.LBB4167:
	.loc 8 468 0
	cmpwi 7,11,8
	.loc 8 471 0
	lfs 0,12(9)
	lfs 12,0(9)
	fmuls 0,10,0
	lfs 13,24(9)
	fmadds 0,12,9,0
	fmadds 0,13,11,0
	stfsx 0,10,11
	.loc 8 468 0
	addi 11,11,4
	bne+ 7,.L137
	addi 10,10,12
.LVL599:
	.loc 8 467 0
	cmpw 7,10,6
	beq- 7,.L138
	.loc 2 1259 0
	lfs 9,12(8)
	lfs 10,16(8)
	lfs 11,20(8)
	addi 8,8,12
	b .L136
.L138:
.LVL600:
.LBE4167:
.LBE4168:
.LBE4203:
	.loc 2 1263 0
	mr 8,0
	.loc 8 465 0
	addi 10,1,8
.LVL601:
	addi 7,31,180
.LVL602:
.L139:
.LBB4204:
.LBB4169:
.LBB4170:
	.loc 8 467 0
	lfs 9,0(8)
	.loc 2 1259 0
	mr 9,7
	.loc 8 467 0
	lfs 10,4(8)
.LBE4170:
.LBE4169:
.LBE4204:
	.loc 2 1259 0
	li 11,0
.LBB4205:
.LBB4173:
.LBB4171:
	.loc 8 467 0
	lfs 11,8(8)
.LVL603:
.L140:
.LBE4171:
.LBE4173:
	.loc 2 1259 0
	addi 9,9,4
.LBB4174:
.LBB4172:
	.loc 8 468 0
	cmpwi 7,11,8
	.loc 8 471 0
	lfs 0,12(9)
	lfs 12,0(9)
	fmuls 0,10,0
	lfs 13,24(9)
	fmadds 0,12,9,0
	fmadds 0,13,11,0
	stfsx 0,10,11
	.loc 8 468 0
	addi 11,11,4
	bne+ 7,.L140
	addi 10,10,12
	.loc 8 474 0
	addi 8,8,12
.LVL604:
	.loc 8 467 0
	cmpw 7,10,0
	bne+ 7,.L139
	li 10,0
.LVL605:
.L141:
.LBE4172:
.LBE4174:
.LBB4175:
.LBB4176:
.LBB4177:
.LBB4178:
	.loc 4 424 0
	addi 11,1,8
.LBE4178:
.LBE4177:
	.loc 8 333 0
	cmpwi 7,10,24
.LBB4181:
.LBB4179:
	.loc 4 424 0
	lwzux 0,11,10
	addi 9,1,116
	stwux 0,9,10
.LBE4179:
.LBE4181:
	.loc 8 333 0
	addi 10,10,12
.LBB4182:
.LBB4180:
	.loc 4 425 0
	lwz 8,4(11)
	.loc 4 426 0
	lwz 0,8(11)
	.loc 4 425 0
	stw 8,4(9)
	.loc 4 426 0
	stw 0,8(9)
.LBE4180:
.LBE4182:
	.loc 8 333 0
	bne+ 7,.L141
.LVL606:
.LBE4176:
.LBE4175:
.LBB4183:
.LBB4184:
	.loc 8 454 0
	lfs 0,236(31)
.LBE4184:
.LBE4183:
.LBE4205:
	.loc 2 1266 0
	addi 3,30,160
.LBB4206:
.LBB4190:
.LBB4185:
	.loc 8 454 0
	lfs 11,132(1)
	lfs 13,128(1)
	lfs 12,136(1)
	fmuls 11,0,11
	lfs 10,120(1)
	fmuls 12,0,12
.LBE4185:
.LBE4190:
.LBE4206:
	.loc 2 1266 0
	lwz 0,172(1)
.LBB4207:
.LBB4191:
.LBB4186:
	.loc 8 454 0
	fmuls 0,0,13
	lfs 13,232(31)
.LBE4186:
.LBE4191:
.LBE4207:
	.loc 2 1266 0
	mtlr 0
	lwz 29,156(1)
.LBB4208:
.LBB4192:
.LBB4187:
	.loc 8 454 0
	fmadds 11,13,10,11
	lfs 10,124(1)
	fmadds 12,13,10,12
.LBE4187:
.LBE4192:
.LBB4193:
.LBB4194:
	lfs 10,116(1)
	fmadds 13,10,13,0
.LBE4194:
.LBE4193:
.LBB4196:
.LBB4188:
	lfs 0,240(31)
	lfs 10,144(1)
.LBE4188:
.LBE4196:
.LBE4208:
	.loc 2 1266 0
	lwz 31,164(1)
.LVL607:
.LBB4209:
.LBB4197:
.LBB4189:
	.loc 8 454 0
	fmadds 11,0,10,11
	lfs 10,148(1)
	fmadds 12,0,10,12
.LVL608:
.LBE4189:
.LBE4197:
.LBB4198:
.LBB4195:
	lfs 10,140(1)
	.loc 4 425 0
	stfs 11,164(30)
	.loc 8 454 0
	fmadds 0,10,0,13
	.loc 4 426 0
	stfs 12,168(30)
	.loc 4 424 0
	stfs 0,160(30)
.LBE4195:
.LBE4198:
.LBE4209:
	.loc 2 1266 0
	lwz 30,160(1)
	addi 1,1,168
	.cfi_remember_state
.LCFI67:
	.cfi_def_cfa_offset 0
	.cfi_restore 31
	.cfi_restore 30
	.cfi_restore 29
	blr
.LVL609:
.L146:
.LCFI68:
	.cfi_restore_state
.LBB4210:
	.loc 2 1260 0 discriminator 1
	mr 3,29
	bl __cxa_guard_release
	b .L135
.LBE4210:
	.cfi_endproc
.LFE2887:
	.size	_ZNK19idPhysics_RigidBody18GetAngularVelocityEi, .-_ZNK19idPhysics_RigidBody18GetAngularVelocityEi
	.align 2
	.globl _ZNK19idPhysics_RigidBody13GetImpactInfoEiRK6idVec3P12impactInfo_s
	.type	_ZNK19idPhysics_RigidBody13GetImpactInfoEiRK6idVec3P12impactInfo_s, @function
_ZNK19idPhysics_RigidBody13GetImpactInfoEiRK6idVec3P12impactInfo_s:
.LFB2870:
	.loc 2 1026 0
	.cfi_startproc
.LVL610:
.LBB4273:
	.loc 2 1030 0
	lfs 8,444(3)
.LVL611:
.LBB4274:
.LBB4275:
	.loc 4 448 0
	lfs 6,220(3)
	lfs 7,224(3)
	lfs 5,228(3)
	fmuls 6,8,6
.LBE4275:
.LBE4274:
.LBE4273:
	.loc 2 1026 0
	stwu 1,-152(1)
.LCFI69:
	.cfi_def_cfa_offset 152
.LBB4421:
.LBB4278:
.LBB4276:
	.loc 4 448 0
	fmuls 7,8,7
.LBE4276:
.LBE4278:
.LBB4279:
.LBB4280:
.LBB4281:
	.loc 4 402 0
	lfs 9,184(3)
.LBE4281:
.LBE4280:
.LBE4279:
.LBB4302:
.LBB4277:
	.loc 4 448 0
	fmuls 5,8,5
.LVL612:
.LBE4277:
.LBE4302:
.LBB4303:
.LBB4282:
.LBB4283:
	.loc 4 402 0
	lfs 10,196(3)
.LVL613:
.LBE4283:
.LBE4282:
.LBE4303:
	.loc 2 1031 0
	addi 9,1,80
.LBB4304:
.LBB4284:
.LBB4285:
	.loc 4 402 0
	lfs 11,208(3)
.LVL614:
.LBE4285:
.LBE4284:
.LBE4304:
	.loc 2 1026 0
	addi 0,1,44
.LBB4305:
.LBB4286:
.LBB4287:
	.loc 4 402 0
	lwz 12,188(3)
.LVL615:
.LBE4287:
.LBE4286:
.LBB4288:
.LBB4289:
	lwz 10,204(3)
.LBE4289:
.LBE4288:
.LBB4290:
.LBB4291:
	lwz 11,216(3)
.LBE4291:
.LBE4290:
.LBB4292:
.LBB4293:
	lwz 4,200(3)
.LVL616:
.LBE4293:
.LBE4292:
.LBB4294:
.LBB4295:
	lwz 7,212(3)
.LVL617:
.LBE4295:
.LBE4294:
.LBB4296:
.LBB4297:
	lwz 8,192(3)
.LVL618:
.LBE4297:
.LBE4296:
.LBB4298:
.LBB4299:
	.loc 8 425 0
	stfs 9,80(1)
	stfs 10,84(1)
	stfs 11,88(1)
	.loc 8 426 0
	stw 12,92(1)
	.loc 8 427 0
	stw 10,108(1)
	stw 11,112(1)
.LVL619:
	.loc 8 426 0
	stw 4,96(1)
.LBE4299:
.LBE4298:
.LBE4305:
	.loc 2 1026 0
	mr 4,9
.LBB4306:
.LBB4301:
.LBB4300:
	.loc 8 426 0
	stw 7,100(1)
	addi 7,3,492
	.loc 8 427 0
	stw 8,104(1)
.LBE4300:
.LBE4301:
.LBE4306:
.LBE4421:
	.loc 8 465 0
	mr 8,0
.LVL620:
.L148:
.LBB4422:
.LBB4307:
.LBB4308:
	.loc 2 1026 0
	mr 11,7
.LBE4308:
.LBE4307:
.LBE4422:
	li 10,0
.LVL621:
.L149:
.LBB4423:
	addi 11,11,4
.LBB4310:
.LBB4309:
	.loc 8 468 0
	cmpwi 7,10,8
	.loc 8 471 0
	lfs 0,12(11)
	lfs 12,0(11)
	fmuls 0,10,0
	lfs 13,24(11)
	fmadds 0,12,9,0
	fmadds 0,13,11,0
	stfsx 0,8,10
	.loc 8 468 0
	addi 10,10,4
	bne+ 7,.L149
	addi 8,8,12
.LVL622:
	.loc 8 467 0
	cmpw 7,8,4
	beq- 7,.L150
	.loc 2 1026 0
	lfs 9,12(9)
	lfs 10,16(9)
	lfs 11,20(9)
	addi 9,9,12
	b .L148
.L150:
.LVL623:
.LBE4309:
.LBE4310:
.LBE4423:
	.loc 2 1031 0
	mr 8,0
.LVL624:
	.loc 8 465 0
	addi 10,1,8
	addi 7,3,180
.LVL625:
.L151:
.LBB4424:
.LBB4311:
.LBB4312:
	.loc 8 467 0
	lfs 9,0(8)
	.loc 2 1026 0
	mr 9,7
	.loc 8 467 0
	lfs 10,4(8)
.LBE4312:
.LBE4311:
.LBE4424:
	.loc 2 1026 0
	li 11,0
.LBB4425:
.LBB4315:
.LBB4313:
	.loc 8 467 0
	lfs 11,8(8)
.LVL626:
.L152:
.LBE4313:
.LBE4315:
	.loc 2 1026 0
	addi 9,9,4
.LBB4316:
.LBB4314:
	.loc 8 468 0
	cmpwi 7,11,8
	.loc 8 471 0
	lfs 0,12(9)
	lfs 12,0(9)
	fmuls 0,10,0
	lfs 13,24(9)
	fmadds 0,12,9,0
	fmadds 0,13,11,0
	stfsx 0,10,11
	.loc 8 468 0
	addi 11,11,4
	bne+ 7,.L152
	addi 10,10,12
	.loc 8 474 0
	addi 8,8,12
.LVL627:
	.loc 8 467 0
	cmpw 7,10,0
	bne+ 7,.L151
	li 10,0
.LVL628:
.L153:
.LBE4314:
.LBE4316:
.LBB4317:
.LBB4318:
.LBB4319:
.LBB4320:
	.loc 4 424 0
	addi 11,1,8
.LBE4320:
.LBE4319:
	.loc 8 333 0
	cmpwi 7,10,24
.LBB4323:
.LBB4321:
	.loc 4 424 0
	lwzux 0,11,10
	addi 9,1,116
	stwux 0,9,10
.LBE4321:
.LBE4323:
	.loc 8 333 0
	addi 10,10,12
.LBB4324:
.LBB4322:
	.loc 4 425 0
	lwz 8,4(11)
	.loc 4 426 0
	lwz 0,8(11)
	.loc 4 425 0
	stw 8,4(9)
	.loc 4 426 0
	stw 0,8(9)
.LBE4322:
.LBE4324:
	.loc 8 333 0
	bne+ 7,.L153
.LVL629:
.LBE4318:
.LBE4317:
.LBB4325:
.LBB4326:
	.loc 8 454 0
	lfs 0,236(3)
.LBE4326:
.LBE4325:
.LBB4334:
.LBB4335:
	.loc 8 333 0
	li 10,0
.LBE4335:
.LBE4334:
.LBB4355:
.LBB4327:
	.loc 8 454 0
	lfs 4,128(1)
.LBE4327:
.LBE4355:
.LBB4356:
.LBB4348:
	.loc 8 333 0
	addi 0,6,4
.LBE4348:
.LBE4356:
.LBB4357:
.LBB4328:
	.loc 8 454 0
	lfs 9,132(1)
.LBE4328:
.LBE4357:
.LBB4358:
.LBB4349:
	.loc 8 333 0
	cmpwi 7,10,24
.LBE4349:
.LBE4358:
.LBB4359:
.LBB4329:
	.loc 8 454 0
	lfs 10,136(1)
	fmuls 4,0,4
	lfs 11,232(3)
	fmuls 9,0,9
	fmuls 10,0,10
	lfs 12,116(1)
	lfs 13,120(1)
.LBE4329:
.LBE4359:
.LBB4360:
.LBB4350:
.LBB4336:
.LBB4337:
	.loc 4 424 0
	mr 9,0
.LBE4337:
.LBE4336:
.LBE4350:
.LBE4360:
.LBB4361:
.LBB4330:
	.loc 8 454 0
	lfs 0,124(1)
	fmadds 4,12,11,4
	fmadds 9,11,13,9
	lfs 3,140(1)
	fmadds 10,11,0,10
	lfs 11,240(3)
.LBE4330:
.LBE4361:
	.loc 2 1034 0
	stfs 8,0(6)
.LBB4362:
.LBB4351:
	.loc 8 333 0
	addi 11,1,116
.LVL630:
.LBE4351:
.LBE4362:
.LBB4363:
.LBB4331:
	.loc 8 454 0
	fmadds 4,3,11,4
	lfs 3,144(1)
.LBE4331:
.LBE4363:
.LBB4364:
.LBB4352:
.LBB4343:
.LBB4338:
	.loc 4 424 0
	stfsux 12,9,10
.LBE4338:
.LBE4343:
	.loc 8 333 0
	addi 10,10,12
.LBE4352:
.LBE4364:
.LBB4365:
.LBB4332:
	.loc 8 454 0
	fmadds 9,11,3,9
	lfs 3,148(1)
.LBE4332:
.LBE4365:
.LBB4366:
.LBB4353:
.LBB4344:
.LBB4339:
	.loc 4 425 0
	stfs 13,4(9)
.LBE4339:
.LBE4344:
.LBE4353:
.LBE4366:
.LBB4367:
.LBB4333:
	.loc 8 454 0
	fmadds 10,11,3,10
.LVL631:
.LBE4333:
.LBE4367:
.LBB4368:
.LBB4354:
.LBB4345:
.LBB4340:
	.loc 4 426 0
	stfs 0,8(9)
.LBE4340:
.LBE4345:
	.loc 8 333 0
	beq- 7,.L154
.L160:
	lfsux 12,11,10
.LVL632:
	cmpwi 7,10,24
.LBB4346:
.LBB4341:
	.loc 4 424 0
	mr 9,0
	stfsux 12,9,10
.LBE4341:
.LBE4346:
	.loc 8 333 0
	addi 10,10,12
	.loc 2 1026 0
	lfs 13,4(11)
	lfs 0,8(11)
	.loc 8 333 0
	addi 11,1,116
.LVL633:
.LBB4347:
.LBB4342:
	.loc 4 425 0
	stfs 13,4(9)
	.loc 4 426 0
	stfs 0,8(9)
.LBE4342:
.LBE4347:
	.loc 8 333 0
	bne+ 7,.L160
.L154:
.LVL634:
.LBE4354:
.LBE4368:
.LBB4369:
.LBB4370:
.LBB4371:
	.loc 8 454 0
	lfs 0,452(3)
.LBE4371:
.LBE4370:
.LBE4369:
.LBE4425:
	.loc 2 1038 0
.LBB4426:
.LBB4382:
.LBB4377:
.LBB4372:
	.loc 8 454 0
	lfs 12,196(3)
.LBE4372:
.LBE4377:
.LBE4382:
.LBE4426:
	.loc 2 1038 0
	addi 1,1,152
.LCFI70:
	.cfi_def_cfa_offset 0
.LBB4427:
.LBB4383:
.LBB4378:
.LBB4373:
	.loc 8 454 0
	lfs 13,200(3)
	lfs 11,204(3)
	fmuls 12,0,12
	fmuls 13,0,13
.LBE4373:
.LBE4378:
.LBE4383:
.LBB4384:
.LBB4385:
	lfs 2,184(3)
.LBE4385:
.LBE4384:
.LBB4391:
.LBB4379:
.LBB4374:
	fmuls 11,0,11
.LBE4374:
.LBE4379:
.LBE4391:
.LBB4392:
.LBB4386:
	lfs 3,188(3)
.LBE4386:
.LBE4392:
.LBB4393:
.LBB4380:
.LBB4375:
	lfs 0,448(3)
.LBE4375:
.LBE4380:
.LBE4393:
.LBB4394:
.LBB4387:
	lfs 8,192(3)
	fmadds 12,2,0,12
	lfs 2,208(3)
	fmadds 13,0,3,13
	lfs 3,212(3)
	fmadds 0,0,8,11
.LBE4387:
.LBE4394:
.LBB4395:
.LBB4381:
.LBB4376:
	lfs 11,456(3)
.LVL635:
.LBE4376:
.LBE4381:
.LBE4395:
.LBB4396:
.LBB4388:
	lfs 8,216(3)
	fmadds 13,11,3,13
	.loc 4 452 0
	lfs 3,172(3)
	.loc 8 454 0
	fmadds 12,2,11,12
	fmadds 11,11,8,0
	.loc 4 452 0
	lfs 0,176(3)
	lfs 8,180(3)
	fadds 12,12,3
.LBE4388:
.LBE4396:
.LBB4397:
.LBB4398:
	.loc 4 431 0
	lfs 3,0(5)
.LBE4398:
.LBE4397:
.LBB4401:
.LBB4389:
	.loc 4 452 0
	fadds 11,11,8
.LBE4389:
.LBE4401:
.LBB4402:
.LBB4399:
	.loc 4 431 0
	lfs 8,4(5)
.LBE4399:
.LBE4402:
.LBB4403:
.LBB4390:
	.loc 4 452 0
	fadds 13,13,0
.LBE4390:
.LBE4403:
.LBB4404:
.LBB4400:
	.loc 4 431 0
	lfs 0,8(5)
	fsubs 12,3,12
	fsubs 0,0,11
.LVL636:
	fsubs 13,8,13
.LVL637:
.LBE4400:
.LBE4404:
.LBB4405:
.LBB4406:
	.loc 4 620 0
	fmuls 3,12,9
.LBE4406:
.LBE4405:
.LBB4409:
.LBB4410:
	.loc 4 424 0
	stfs 12,40(6)
.LBE4410:
.LBE4409:
.LBB4413:
.LBB4407:
	.loc 4 620 0
	fmuls 11,0,4
.LBE4407:
.LBE4413:
.LBB4414:
.LBB4411:
	.loc 4 426 0
	stfs 0,48(6)
.LBE4411:
.LBE4414:
.LBB4415:
.LBB4408:
	.loc 4 620 0
	fmuls 8,13,10
.LBE4408:
.LBE4415:
.LBB4416:
.LBB4412:
	.loc 4 425 0
	stfs 13,44(6)
.LBE4412:
.LBE4416:
.LBB4417:
.LBB4418:
	.loc 4 620 0
	fmsubs 4,13,4,3
.LVL638:
	fmsubs 10,12,10,11
.LVL639:
	fmsubs 9,0,9,8
.LVL640:
	.loc 4 452 0
	fadds 5,5,4
.LVL641:
	fadds 7,7,10
.LVL642:
	fadds 6,6,9
.LVL643:
.LBE4418:
.LBE4417:
.LBB4419:
.LBB4420:
	.loc 4 426 0
	stfs 5,60(6)
	.loc 4 425 0
	stfs 7,56(6)
	.loc 4 424 0
	stfs 6,52(6)
.LBE4420:
.LBE4419:
.LBE4427:
	.loc 2 1038 0
	blr
	.cfi_endproc
.LFE2870:
	.size	_ZNK19idPhysics_RigidBody13GetImpactInfoEiRK6idVec3P12impactInfo_s, .-_ZNK19idPhysics_RigidBody13GetImpactInfoEiRK6idVec3P12impactInfo_s
	.align 2
	.globl _Z20RigidBodyDerivativesfPKvPKfPf
	.type	_Z20RigidBodyDerivativesfPKvPKfPf, @function
_Z20RigidBodyDerivativesfPKvPKfPf:
.LFB2812:
	.loc 2 54 0
	.cfi_startproc
.LVL644:
	stwu 1,-248(1)
.LCFI71:
	.cfi_def_cfa_offset 248
.LBB4493:
	.loc 2 67 0
	addi 9,4,12
.LVL645:
.LBE4493:
	.loc 8 463 0
	mr 7,9
	addi 6,3,492
	.loc 2 54 0
	stw 30,240(1)
.LBB4669:
	addi 0,1,188
.LBE4669:
	stw 31,244(1)
	.loc 8 465 0
	addi 8,1,152
.LVL646:
.L162:
.LBB4670:
.LBB4494:
.LBB4495:
	.loc 8 467 0
	lfs 9,0(7)
	.loc 2 54 0
	mr 11,6
	.loc 8 467 0
	lfs 10,4(7)
.LBE4495:
.LBE4494:
.LBE4670:
	.loc 2 54 0
	li 10,0
.LBB4671:
.LBB4498:
.LBB4496:
	.loc 8 467 0
	lfs 11,8(7)
.LVL647:
.L163:
.LBE4496:
.LBE4498:
	.loc 2 54 0
	addi 11,11,4
.LBB4499:
.LBB4497:
	.loc 8 468 0
	cmpwi 7,10,8
	.loc 8 471 0
	lfs 0,12(11)
	lfs 12,0(11)
	fmuls 0,10,0
	lfs 13,24(11)
	fmadds 0,12,9,0
	fmadds 0,13,11,0
	stfsx 0,8,10
	.loc 8 468 0
	addi 10,10,4
	bne+ 7,.L163
	.cfi_offset 31, -4
	.cfi_offset 30, -8
	addi 8,8,12
	.loc 8 474 0
	addi 7,7,12
.LVL648:
	.loc 8 467 0
	cmpw 7,8,0
	bne+ 7,.L162
.LVL649:
.LBE4497:
.LBE4499:
.LBB4500:
.LBB4501:
.LBB4502:
	.loc 4 402 0
	lfs 7,12(4)
.LVL650:
.LBE4502:
.LBE4501:
.LBB4503:
.LBB4504:
	lwz 30,24(4)
.LVL651:
.LBE4504:
.LBE4503:
.LBB4505:
.LBB4506:
	lwz 31,36(4)
.LVL652:
.LBE4506:
.LBE4505:
.LBB4507:
.LBB4508:
	lwz 12,16(4)
.LVL653:
.LBE4508:
.LBE4507:
.LBB4509:
.LBB4510:
	lwz 6,28(4)
.LVL654:
.LBE4510:
.LBE4509:
.LBB4511:
.LBB4512:
	lwz 7,40(4)
.LVL655:
.LBE4512:
.LBE4511:
.LBB4513:
.LBB4514:
	lwz 8,20(4)
.LVL656:
.LBE4514:
.LBE4513:
.LBB4515:
.LBB4516:
	lwz 10,32(4)
.LVL657:
.LBE4516:
.LBE4515:
.LBB4517:
.LBB4518:
	lwz 11,44(4)
.LVL658:
.LBE4518:
.LBE4517:
.LBB4519:
.LBB4520:
	.loc 8 425 0
	stfs 7,116(1)
	stw 30,120(1)
	stw 31,124(1)
	.loc 8 426 0
	stw 12,128(1)
	stw 6,132(1)
	stw 7,136(1)
	.loc 8 427 0
	stw 8,140(1)
.LBE4520:
.LBE4519:
.LBE4500:
.LBE4671:
	.loc 2 67 0
	addi 8,1,152
.LBB4672:
.LBB4529:
.LBB4525:
.LBB4521:
	.loc 8 427 0
	stw 10,144(1)
.LBE4521:
.LBE4525:
.LBE4529:
.LBE4672:
	.loc 8 465 0
	addi 10,1,80
.LBB4673:
.LBB4530:
.LBB4526:
.LBB4522:
	.loc 8 427 0
	stw 11,148(1)
.LVL659:
	.loc 2 54 0
	addi 11,1,116
.LVL660:
.L165:
	lfs 0,4(8)
.LBE4522:
.LBE4526:
.LBE4530:
.LBB4531:
.LBB4532:
	.loc 8 471 0
	lfs 13,20(11)
	lfs 11,12(11)
	lfs 12,16(11)
	fmuls 11,0,11
	lfs 9,4(11)
	fmuls 12,0,12
	lfs 10,8(11)
	fmuls 0,0,13
.LBE4532:
.LBE4531:
.LBB4539:
.LBB4527:
.LBB4523:
	.loc 2 54 0
	lfs 13,0(8)
.LBE4523:
.LBE4527:
.LBE4539:
.LBB4540:
.LBB4533:
	.loc 8 471 0
	lfs 8,24(11)
	fmadds 12,13,9,12
	lfs 9,28(11)
	fmadds 11,7,13,11
	fmadds 13,13,10,0
.LBE4533:
.LBE4540:
.LBB4541:
.LBB4528:
.LBB4524:
	.loc 2 54 0
	lfs 0,8(8)
.LBE4524:
.LBE4528:
.LBE4541:
.LBB4542:
.LBB4534:
	.loc 8 471 0
	lfs 10,32(11)
	.loc 8 474 0
	addi 8,8,12
.LVL661:
	.loc 8 471 0
	fmadds 11,8,0,11
	fmadds 12,9,0,12
	fmadds 0,10,0,13
	stfs 11,0(10)
.LVL662:
	stfs 12,4(10)
.LVL663:
	stfs 0,8(10)
.LVL664:
	addi 10,10,12
.LVL665:
	.loc 8 467 0
	cmpw 7,10,11
	bne+ 7,.L165
	li 8,0
.LVL666:
.L166:
.LBE4534:
.LBE4542:
.LBB4543:
.LBB4544:
.LBB4545:
.LBB4546:
	.loc 4 424 0
	addi 10,1,80
.LBE4546:
.LBE4545:
	.loc 8 333 0
	cmpwi 7,8,24
.LBB4549:
.LBB4547:
	.loc 4 424 0
	lwzux 7,10,8
	mr 11,0
	stwux 7,11,8
.LBE4547:
.LBE4549:
	.loc 8 333 0
	addi 8,8,12
.LBB4550:
.LBB4548:
	.loc 4 425 0
	lwz 7,4(10)
	.loc 4 426 0
	lwz 10,8(10)
	.loc 4 425 0
	stw 7,4(11)
	.loc 4 426 0
	stw 10,8(11)
.LBE4548:
.LBE4550:
	.loc 8 333 0
	bne+ 7,.L166
.LVL667:
.LBE4544:
.LBE4543:
.LBB4551:
.LBB4552:
	.loc 8 454 0
	lfs 0,64(4)
.LBE4552:
.LBE4551:
.LBB4564:
.LBB4565:
.LBB4566:
.LBB4567:
	.loc 8 425 0
	li 0,0
.LVL668:
.LBE4567:
.LBE4566:
.LBE4565:
.LBE4564:
.LBB4602:
.LBB4553:
	.loc 8 454 0
	lfs 12,200(1)
.LBE4553:
.LBE4602:
.LBB4603:
.LBB4590:
.LBB4579:
.LBB4568:
	.loc 2 71 0
	addi 7,1,44
.LBE4568:
.LBE4579:
.LBE4590:
.LBE4603:
.LBB4604:
.LBB4554:
	.loc 8 454 0
	lfs 13,208(1)
.LBE4554:
.LBE4604:
.LBB4605:
.LBB4591:
.LBB4580:
.LBB4569:
	.loc 2 54 0
	mr 6,7
.LBE4569:
.LBE4580:
.LBE4591:
.LBE4605:
.LBB4606:
.LBB4555:
	.loc 8 454 0
	lfs 11,204(1)
	fmuls 12,0,12
	lfs 10,188(1)
.LBE4555:
.LBE4606:
.LBB4607:
.LBB4535:
	.loc 8 465 0
	addi 8,1,8
.LBE4535:
.LBE4607:
.LBB4608:
.LBB4556:
	.loc 8 454 0
	fmuls 11,0,11
.LBE4556:
.LBE4608:
.LBB4609:
.LBB4610:
	.loc 4 448 0
	lfs 6,52(4)
.LBE4610:
.LBE4609:
.LBB4616:
.LBB4557:
	.loc 8 454 0
	fmuls 0,0,13
	lfs 13,60(4)
.LBE4557:
.LBE4616:
.LBB4617:
.LBB4611:
	.loc 4 448 0
	lfs 7,56(4)
	addi 9,9,-4
.LVL669:
.LBE4611:
.LBE4617:
.LBB4618:
.LBB4558:
	.loc 8 454 0
	fmadds 12,10,13,12
	lfs 10,192(1)
.LBE4558:
.LBE4618:
.LBB4619:
.LBB4536:
	.loc 2 54 0
	stw 0,232(1)
.LBE4536:
.LBE4619:
.LBB4620:
.LBB4559:
	.loc 8 454 0
	fmadds 11,13,10,11
	lfs 10,196(1)
.LBE4559:
.LBE4620:
.LBB4621:
.LBB4592:
.LBB4581:
.LBB4570:
	.loc 8 425 0
	stw 0,44(1)
.LBE4570:
.LBE4581:
.LBE4592:
.LBE4621:
.LBB4622:
.LBB4560:
	.loc 8 454 0
	fmadds 13,13,10,0
	lfs 0,68(4)
	lfs 10,212(1)
.LBE4560:
.LBE4622:
.LBB4623:
.LBB4593:
.LBB4582:
.LBB4571:
	.loc 8 426 0
	stw 0,60(1)
.LBE4571:
.LBE4582:
.LBE4593:
.LBE4623:
.LBB4624:
.LBB4561:
	.loc 8 454 0
	fmadds 12,10,0,12
	lfs 10,216(1)
.LBE4561:
.LBE4624:
.LBB4625:
.LBB4594:
.LBB4583:
.LBB4572:
	.loc 8 427 0
	stw 0,76(1)
.LBE4572:
.LBE4583:
.LBE4594:
.LBE4625:
.LBB4626:
.LBB4562:
	.loc 8 454 0
	fmadds 11,0,10,11
	lfs 10,220(1)
.LBE4562:
.LBE4626:
.LBB4627:
.LBB4595:
	.loc 8 742 0
	fneg 8,12
.LBB4584:
.LBB4573:
	.loc 8 427 0
	stfs 12,72(1)
.LBE4573:
.LBE4584:
.LBE4595:
.LBE4627:
.LBB4628:
.LBB4563:
	.loc 8 454 0
	fmadds 13,0,10,13
.LVL670:
.LBE4563:
.LBE4628:
	.loc 2 70 0
	lfs 0,444(3)
.LVL671:
.LBB4629:
.LBB4612:
	.loc 4 448 0
	lfs 10,48(4)
.LBE4612:
.LBE4629:
.LBB4630:
.LBB4596:
	.loc 8 742 0
	fneg 9,11
.LBE4596:
.LBE4630:
.LBB4631:
.LBB4613:
	.loc 4 448 0
	fmuls 6,0,6
.LBE4613:
.LBE4631:
.LBB4632:
.LBB4597:
.LBB4585:
.LBB4574:
	.loc 8 425 0
	stfs 11,52(1)
.LBE4574:
.LBE4585:
.LBE4597:
.LBE4632:
.LBB4633:
.LBB4614:
	.loc 4 448 0
	fmuls 7,0,7
.LVL672:
.LBE4614:
.LBE4633:
.LBB4634:
.LBB4598:
.LBB4586:
.LBB4575:
	.loc 8 426 0
	stfs 13,56(1)
.LBE4575:
.LBE4586:
.LBE4598:
.LBE4634:
.LBB4635:
.LBB4615:
	.loc 4 448 0
	fmuls 0,0,10
.LBE4615:
.LBE4635:
.LBB4636:
.LBB4599:
.LBB4587:
.LBB4576:
	.loc 8 427 0
	stfs 9,68(1)
.LBE4576:
.LBE4587:
	.loc 8 742 0
	fneg 10,13
.LBE4599:
.LBE4636:
.LBB4637:
.LBB4638:
	.loc 4 425 0
	stfs 6,4(5)
	.loc 4 426 0
	stfs 7,8(5)
.LVL673:
	.loc 4 424 0
	stfs 0,0(5)
.LBE4638:
.LBE4637:
.LBB4639:
.LBB4600:
.LBB4588:
.LBB4577:
	.loc 8 425 0
	stfs 10,48(1)
	.loc 8 426 0
	stfs 8,64(1)
.LBE4577:
.LBE4588:
.LBE4600:
.LBE4639:
.LBB4640:
.LBB4537:
	.loc 2 54 0
	lfs 9,232(1)
.LVL674:
.L167:
.LBE4537:
.LBE4640:
.LBB4641:
.LBB4642:
	mr 11,9
.LBE4642:
.LBE4641:
.LBB4644:
.LBB4538:
	li 10,0
.LVL675:
.L168:
.LBE4538:
.LBE4644:
.LBB4645:
.LBB4601:
.LBB4589:
.LBB4578:
	addi 11,11,4
.LBE4578:
.LBE4589:
.LBE4601:
.LBE4645:
.LBB4646:
.LBB4643:
	.loc 8 468 0
	cmpwi 7,10,8
	.loc 8 471 0
	lfs 0,12(11)
	lfs 12,0(11)
	fmuls 0,10,0
	lfs 13,24(11)
	fmadds 0,12,9,0
	fmadds 0,13,11,0
	stfsx 0,8,10
	.loc 8 468 0
	addi 10,10,4
	bne+ 7,.L168
	addi 8,8,12
.LVL676:
	.loc 8 467 0
	cmpw 7,8,6
	beq- 7,.L169
	.loc 2 54 0
	lfs 9,12(7)
	lfs 10,16(7)
	lfs 11,20(7)
	addi 7,7,12
	b .L167
.L169:
.LVL677:
.LBE4643:
.LBE4646:
.LBB4647:
.LBB4648:
	.loc 8 333 0
	addi 7,5,12
	li 10,0
.LVL678:
.L170:
.LBB4649:
.LBB4650:
	.loc 4 424 0
	addi 11,1,8
.LVL679:
.LBE4650:
.LBE4649:
	.loc 8 333 0
	cmpwi 7,10,24
.LBB4653:
.LBB4651:
	.loc 4 424 0
	lwzux 0,11,10
.LVL680:
	mr 9,7
	stwux 0,9,10
.LBE4651:
.LBE4653:
	.loc 8 333 0
	addi 10,10,12
.LBB4654:
.LBB4652:
	.loc 4 425 0
	lwz 8,4(11)
	.loc 4 426 0
	lwz 0,8(11)
	.loc 4 425 0
	stw 8,4(9)
	.loc 4 426 0
	stw 0,8(9)
.LBE4652:
.LBE4654:
	.loc 8 333 0
	bne+ 7,.L170
.LBE4648:
.LBE4647:
	.loc 2 72 0
	lfs 0,420(3)
	.loc 4 452 0
	lfs 8,52(4)
.LVL681:
	.loc 2 72 0
	fneg 0,0
.LVL682:
	.loc 4 452 0
	lfs 9,56(4)
.LBB4655:
.LBB4656:
	lfs 10,48(4)
	lfs 11,148(3)
.LBE4656:
.LBE4655:
	lfs 12,152(3)
	lfs 13,156(3)
	fmadds 12,0,8,12
.LBE4673:
	.loc 2 74 0
	lwz 30,240(1)
.LBB4674:
	.loc 4 452 0
	fmadds 13,0,9,13
.LVL683:
.LBE4674:
	.loc 2 74 0
	lwz 31,244(1)
.LBB4675:
.LBB4660:
.LBB4657:
	.loc 4 452 0
	fmadds 0,0,10,11
.LVL684:
.LBE4657:
.LBE4660:
.LBE4675:
	.loc 2 74 0
.LBB4676:
.LBB4661:
.LBB4658:
	.loc 4 425 0
	stfs 12,52(5)
.LBE4658:
.LBE4661:
.LBE4676:
	.loc 2 74 0
	addi 1,1,248
.LCFI72:
	.cfi_def_cfa_offset 0
	.cfi_restore 31
	.cfi_restore 30
.LBB4677:
.LBB4662:
.LBB4659:
	.loc 4 426 0
	stfs 13,56(5)
	.loc 4 424 0
	stfs 0,48(5)
.LBE4659:
.LBE4662:
	.loc 2 73 0
	lfs 0,424(3)
.LVL685:
	.loc 4 452 0
	lfs 8,64(4)
	.loc 2 73 0
	fneg 0,0
.LVL686:
	.loc 4 452 0
	lfs 12,164(3)
.LVL687:
	lfs 9,68(4)
	lfs 13,168(3)
.LVL688:
.LBB4663:
.LBB4664:
	lfs 10,60(4)
.LBE4664:
.LBE4663:
	fmadds 12,8,0,12
.LBB4667:
.LBB4665:
	lfs 11,160(3)
.LBE4665:
.LBE4667:
	fmadds 13,0,9,13
.LVL689:
.LBB4668:
.LBB4666:
	fmadds 0,0,10,11
.LVL690:
	.loc 4 425 0
	stfs 12,64(5)
	.loc 4 426 0
	stfs 13,68(5)
	.loc 4 424 0
	stfs 0,60(5)
.LBE4666:
.LBE4668:
.LBE4677:
	.loc 2 74 0
	blr
	.cfi_endproc
.LFE2812:
	.size	_Z20RigidBodyDerivativesfPKvPKfPf, .-_Z20RigidBodyDerivativesfPKvPKfPf
	.align 2
	.globl _ZN19idPhysics_RigidBody9SetPushedEi
	.type	_ZN19idPhysics_RigidBody9SetPushedEi, @function
_ZN19idPhysics_RigidBody9SetPushedEi:
.LFB2896:
	.loc 2 1384 0
	.cfi_startproc
.LVL691:
	stwu 1,-208(1)
.LCFI73:
	.cfi_def_cfa_offset 208
	mflr 0
.LBB4714:
	.loc 2 1387 0
	addi 10,3,360
.LVL692:
.LBE4714:
	.loc 2 1384 0
	stw 31,196(1)
	mr 31,3
	.cfi_offset 31, -12
	.cfi_register 65, 0
	stfd 31,200(1)
.LBB4779:
	addi 8,1,44
.LBE4779:
	stw 0,212(1)
	.loc 8 465 0
	addi 3,1,8
.LVL693:
	.loc 2 1384 0
	stw 30,192(1)
	addi 0,31,180
	.cfi_offset 30, -16
	.cfi_offset 65, 4
	.cfi_offset 63, -8
	.loc 2 1384 0
	mr 30,4
.LVL694:
.L177:
.LBB4780:
.LBB4715:
.LBB4716:
	.loc 8 467 0
	lfs 9,0(10)
	.loc 2 1384 0
	mr 9,0
	.loc 8 467 0
	lfs 10,4(10)
.LBE4716:
.LBE4715:
.LBE4780:
	.loc 2 1384 0
	li 11,0
.LBB4781:
.LBB4719:
.LBB4717:
	.loc 8 467 0
	lfs 11,8(10)
.LVL695:
.L178:
.LBE4717:
.LBE4719:
	.loc 2 1384 0
	addi 9,9,4
.LBB4720:
.LBB4718:
	.loc 8 468 0
	cmpwi 7,11,8
	.loc 8 471 0
	lfs 0,12(9)
	lfs 12,0(9)
	fmuls 0,10,0
	lfs 13,24(9)
	fmadds 0,12,9,0
	fmadds 0,13,11,0
	stfsx 0,3,11
	.loc 8 468 0
	addi 11,11,4
	bne+ 7,.L178
	addi 3,3,12
	.loc 8 474 0
	addi 10,10,12
.LVL696:
	.loc 8 467 0
	cmpw 7,3,8
	bne+ 7,.L177
.LBE4718:
.LBE4720:
	.loc 2 1387 0
	addi 4,1,8
.LVL697:
	bl _ZNK6idMat310ToRotationEv
.LVL698:
.LBB4721:
.LBB4722:
.LBB4723:
.LBB4724:
	.loc 4 424 0
	lwz 0,44(1)
.LBE4724:
.LBE4723:
	.loc 11 46 0
	addi 9,1,72
	addi 11,1,140
.LBB4727:
.LBB4725:
	.loc 4 424 0
	stw 0,112(1)
.LBE4725:
.LBE4727:
	.loc 2 1384 0
	addi 7,1,108
.LBB4728:
.LBB4726:
	.loc 4 425 0
	lwz 0,48(1)
	stw 0,116(1)
	.loc 4 426 0
	lwz 0,52(1)
	stw 0,120(1)
.LVL699:
.LBE4726:
.LBE4728:
.LBB4729:
.LBB4730:
	.loc 4 424 0
	lwz 0,56(1)
	stw 0,124(1)
	.loc 4 425 0
	lwz 0,60(1)
	stw 0,128(1)
	.loc 4 426 0
	lwz 0,64(1)
	stw 0,132(1)
.LBE4730:
.LBE4729:
	.loc 11 46 0
	lwz 0,68(1)
	stw 0,136(1)
.LVL700:
.L180:
.LBB4731:
.LBB4732:
.LBB4733:
.LBB4734:
	.loc 4 424 0
	lwz 8,0(9)
	.loc 4 425 0
	lwz 10,4(9)
	.loc 4 426 0
	lwz 0,8(9)
	addi 9,9,12
.LBE4734:
.LBE4733:
	.loc 8 333 0
	cmpw 7,9,7
.LBB4736:
.LBB4735:
	.loc 4 424 0
	stw 8,0(11)
	.loc 4 425 0
	stw 10,4(11)
	.loc 4 426 0
	stw 0,8(11)
	addi 11,11,12
.LBE4735:
.LBE4736:
	.loc 8 333 0
	bne+ 7,.L180
.LVL701:
.LBE4732:
.LBE4731:
.LBE4722:
.LBE4721:
	.loc 2 1390 0
	xoris 30,30,0x8000
.LVL702:
	lis 0,0x4330
	stw 30,188(1)
	lis 9,.LC11@ha
	stw 0,184(1)
	lfs 0,.LC11@l(9)
	lis 9,_ZN6idMath8M_MS2SECE@ha
	lfd 13,184(1)
	.loc 2 1391 0
	lfs 31,136(1)
	.loc 2 1390 0
	fsub 0,13,0
	lfs 13,_ZN6idMath8M_MS2SECE@l(9)
.LBB4737:
.LBB4738:
	.loc 4 443 0
	lis 9,.LC4@ha
.LBE4738:
.LBE4737:
.LBB4741:
.LBB4742:
	.loc 4 431 0
	lfs 1,176(31)
	lfs 10,352(31)
.LBE4742:
.LBE4741:
	.loc 2 1390 0
	frsp 0,0
.LBB4747:
.LBB4748:
	.loc 4 457 0
	lfs 12,128(31)
.LBE4748:
.LBE4747:
.LBB4754:
.LBB4743:
	.loc 4 431 0
	fsubs 10,1,10
	lfs 2,180(31)
	lfs 7,172(31)
.LBE4743:
.LBE4754:
	.loc 2 1390 0
	fmuls 0,0,13
.LBB4755:
.LBB4739:
	.loc 4 443 0
	lfs 13,.LC4@l(9)
.LBE4739:
.LBE4755:
	.loc 2 1391 0
	lis 9,_ZN6idMath9M_DEG2RADE@ha
.LBB4756:
.LBB4744:
	.loc 4 431 0
	lfs 11,356(31)
	lfs 9,348(31)
.LBE4744:
.LBE4756:
.LBB4757:
.LBB4740:
	.loc 4 443 0
	fdivs 0,13,0
.LBE4740:
.LBE4757:
	.loc 2 1391 0
	lfs 13,_ZN6idMath9M_DEG2RADE@l(9)
.LBB4758:
.LBB4749:
	.loc 4 456 0
	lfs 3,124(31)
	.loc 4 458 0
	lfs 4,132(31)
.LBE4749:
.LBE4758:
.LBB4759:
.LBB4760:
	.loc 4 456 0
	lfs 5,136(31)
	.loc 4 457 0
	lfs 6,140(31)
	.loc 4 458 0
	lfs 8,144(31)
.LBE4760:
.LBE4759:
	.loc 2 1391 0
	fmuls 13,31,13
.LBB4763:
.LBB4750:
	.loc 4 457 0
	fmadds 10,10,0,12
.LBE4750:
.LBE4763:
.LBB4764:
.LBB4765:
	.loc 4 439 0
	lfs 12,128(1)
.LBE4765:
.LBE4764:
.LBB4769:
.LBB4745:
	.loc 4 431 0
	fsubs 11,2,11
.LVL703:
.LBE4745:
.LBE4769:
.LBB4770:
.LBB4766:
	.loc 4 439 0
	lfs 2,124(1)
.LBE4766:
.LBE4770:
	.loc 2 1391 0
	fneg 13,13
.LBB4771:
.LBB4746:
	.loc 4 431 0
	fsubs 9,7,9
.LBE4746:
.LBE4771:
.LBB4772:
.LBB4767:
	.loc 4 439 0
	lfs 7,132(1)
.LBE4767:
.LBE4772:
.LBB4773:
.LBB4751:
	.loc 4 458 0
	fmadds 11,11,0,4
.LVL704:
	.loc 4 457 0
	stfs 10,128(31)
.LBE4751:
.LBE4773:
.LBB4774:
.LBB4768:
	.loc 4 439 0
	fmuls 12,13,12
	fmuls 7,13,7
	fmuls 13,13,2
.LBE4768:
.LBE4774:
.LBB4775:
.LBB4752:
	.loc 4 458 0
	stfs 11,132(31)
	.loc 4 456 0
	fmadds 9,9,0,3
.LBE4752:
.LBE4775:
.LBB4776:
.LBB4761:
	.loc 4 457 0
	fmadds 12,0,12,6
	.loc 4 456 0
	fmadds 13,0,13,5
.LVL705:
	.loc 4 458 0
	fmadds 0,0,7,8
.LVL706:
.LBE4761:
.LBE4776:
.LBB4777:
.LBB4753:
	.loc 4 456 0
	stfs 9,124(31)
.LBE4753:
.LBE4777:
.LBB4778:
.LBB4762:
	.loc 4 457 0
	stfs 12,140(31)
	.loc 4 456 0
	stfs 13,136(31)
	.loc 4 458 0
	stfs 0,144(31)
.LBE4762:
.LBE4778:
.LBE4781:
	.loc 2 1392 0
	lwz 0,212(1)
	lwz 30,192(1)
.LVL707:
	mtlr 0
	lwz 31,196(1)
.LVL708:
	lfd 31,200(1)
	addi 1,1,208
.LCFI74:
	.cfi_def_cfa_offset 0
	.cfi_restore 63
	.cfi_restore 31
	.cfi_restore 30
	blr
	.cfi_endproc
.LFE2896:
	.size	_ZN19idPhysics_RigidBody9SetPushedEi, .-_ZN19idPhysics_RigidBody9SetPushedEi
	.align 2
	.globl _ZN19idPhysics_RigidBody9SetMasterEP8idEntityb
	.type	_ZN19idPhysics_RigidBody9SetMasterEP8idEntityb, @function
_ZN19idPhysics_RigidBody9SetMasterEP8idEntityb:
.LFB2899:
	.loc 2 1417 0
	.cfi_startproc
.LVL709:
	mflr 0
	stwu 1,-144(1)
.LCFI75:
	.cfi_def_cfa_offset 144
	.cfi_register 65, 0
.LBB4851:
	.loc 2 1421 0
	cmpwi 0,4,0
.LBE4851:
	.loc 2 1417 0
	stw 30,136(1)
	mr 30,5
	.cfi_offset 30, -8
	stw 31,140(1)
	mr 31,3
	.cfi_offset 31, -4
	stw 0,148(1)
.LBB4852:
	.loc 2 1422 0
	lbz 0,540(3)
	.cfi_offset 65, 4
	cmpwi 7,0,0
	.loc 2 1421 0
	beq- 0,.L184
	.loc 2 1422 0
	beq- 7,.L194
.LVL710:
.L183:
.LBE4852:
	.loc 2 1443 0
	lwz 0,148(1)
	lwz 30,136(1)
	mtlr 0
	lwz 31,140(1)
.LVL711:
	addi 1,1,144
	.cfi_remember_state
.LCFI76:
	.cfi_def_cfa_offset 0
	.cfi_restore 31
	.cfi_restore 30
	blr
.LVL712:
.L194:
.LCFI77:
	.cfi_restore_state
.LBB4853:
.LBB4854:
.LBB4855:
	.loc 2 1424 0
	lwz 3,4(3)
.LVL713:
	addi 4,1,8
.LVL714:
	addi 5,1,92
.LVL715:
	bl _ZNK8idEntity17GetMasterPositionER6idVec3R6idMat3
.LVL716:
.LBB4856:
.LBB4857:
	.loc 4 431 0
	lfs 13,176(31)
	lfs 0,12(1)
.LBE4857:
.LBE4856:
	.loc 2 1426 0
	cmpwi 7,30,0
.LBB4863:
.LBB4858:
	.loc 4 431 0
	lfs 12,172(31)
	fsubs 0,13,0
.LBE4858:
.LBE4863:
.LBB4864:
.LBB4865:
.LBB4866:
	.loc 4 402 0
	lfs 6,96(1)
.LBE4866:
.LBE4865:
.LBB4867:
.LBB4868:
	lfs 7,108(1)
.LBE4868:
.LBE4867:
.LBB4869:
.LBB4870:
	lfs 8,120(1)
.LBE4870:
.LBE4869:
.LBE4864:
.LBB4883:
.LBB4859:
	.loc 4 431 0
	lfs 13,8(1)
.LBE4859:
.LBE4883:
.LBB4884:
.LBB4885:
.LBB4886:
	.loc 8 454 0
	fmuls 2,0,6
	fmuls 11,0,8
.LBE4886:
.LBE4885:
.LBE4884:
.LBB4889:
.LBB4860:
	.loc 4 431 0
	lfs 10,180(31)
	fsubs 13,12,13
.LBE4860:
.LBE4889:
.LBB4890:
.LBB4871:
.LBB4872:
	.loc 4 402 0
	lfs 4,104(1)
.LBE4872:
.LBE4871:
.LBE4890:
.LBB4891:
.LBB4888:
.LBB4887:
	.loc 8 454 0
	fmuls 3,0,7
.LBE4887:
.LBE4888:
.LBE4891:
.LBB4892:
.LBB4873:
.LBB4874:
	.loc 4 402 0
	lfs 12,92(1)
.LBE4874:
.LBE4873:
.LBB4875:
.LBB4876:
	lfs 5,116(1)
.LBE4876:
.LBE4875:
.LBE4892:
.LBB4893:
.LBB4861:
	.loc 4 431 0
	lfs 0,16(1)
.LBE4861:
.LBE4893:
.LBB4894:
.LBB4895:
	.loc 8 454 0
	fmadds 2,13,12,2
	fmadds 3,13,4,3
.LBE4895:
.LBE4894:
.LBB4898:
.LBB4877:
.LBB4878:
	.loc 4 402 0
	lfs 9,100(1)
.LBE4878:
.LBE4877:
.LBE4898:
.LBB4899:
.LBB4862:
	.loc 4 431 0
	fsubs 0,10,0
.LVL717:
.LBE4862:
.LBE4899:
.LBB4900:
.LBB4879:
.LBB4880:
	.loc 4 402 0
	lfs 10,112(1)
.LVL718:
.LBE4880:
.LBE4879:
.LBE4900:
.LBB4901:
.LBB4896:
	.loc 8 454 0
	fmadds 13,13,5,11
.LVL719:
.LBE4896:
.LBE4901:
.LBB4902:
.LBB4881:
.LBB4882:
	.loc 4 402 0
	lfs 11,124(1)
.LVL720:
.LBE4882:
.LBE4881:
.LBE4902:
.LBB4903:
.LBB4897:
	.loc 8 454 0
	fmadds 2,0,9,2
	fmadds 3,0,10,3
	fmadds 0,0,11,13
.LVL721:
	.loc 4 424 0
	stfs 2,76(31)
	.loc 4 425 0
	stfs 3,80(31)
	.loc 4 426 0
	stfs 0,84(31)
.LBE4897:
.LBE4903:
	.loc 2 1426 0
	beq- 7,.L186
.LBB4904:
.LBB4905:
.LBB4906:
	.loc 8 425 0
	stfs 12,20(1)
.LBE4906:
.LBE4905:
.LBE4904:
	.loc 2 1427 0
	addi 9,31,184
.LBB4915:
.LBB4911:
.LBB4907:
	.loc 8 425 0
	stfs 4,24(1)
	.loc 2 1417 0
	addi 0,31,220
	.loc 8 425 0
	stfs 5,28(1)
.LBE4907:
.LBE4911:
.LBE4915:
.LBE4855:
.LBE4854:
.LBE4853:
	.loc 8 465 0
	addi 11,1,56
.LBB4945:
.LBB4943:
.LBB4941:
.LBB4916:
.LBB4912:
.LBB4908:
	.loc 8 426 0
	stfs 6,32(1)
	stfs 7,36(1)
	stfs 8,40(1)
	.loc 8 427 0
	stfs 9,44(1)
	stfs 10,48(1)
.LVL722:
	stfs 11,52(1)
.LVL723:
.L187:
	.loc 2 1417 0
	lfs 0,4(9)
.LBE4908:
.LBE4912:
.LBE4916:
.LBB4917:
.LBB4918:
	.loc 8 471 0
	lfs 13,40(1)
	lfs 10,32(1)
	lfs 11,36(1)
	fmuls 10,0,10
	lfs 8,24(1)
	fmuls 11,0,11
	lfs 9,28(1)
	fmuls 0,0,13
.LBE4918:
.LBE4917:
.LBB4921:
.LBB4913:
.LBB4909:
	.loc 2 1417 0
	lfs 13,0(9)
.LBE4909:
.LBE4913:
.LBE4921:
.LBB4922:
.LBB4919:
	.loc 8 471 0
	lfs 7,44(1)
	fmadds 11,13,8,11
	lfs 8,48(1)
	fmadds 10,12,13,10
	fmadds 13,13,9,0
.LBE4919:
.LBE4922:
.LBB4923:
.LBB4914:
.LBB4910:
	.loc 2 1417 0
	lfs 0,8(9)
.LBE4910:
.LBE4914:
.LBE4923:
.LBB4924:
.LBB4920:
	.loc 8 471 0
	lfs 9,52(1)
	.loc 8 474 0
	addi 9,9,12
.LVL724:
	.loc 8 467 0
	cmpw 7,9,0
	.loc 8 471 0
	fmadds 10,7,0,10
	fmadds 11,8,0,11
	fmadds 0,9,0,13
	stfs 10,0(11)
.LVL725:
	stfs 11,4(11)
.LVL726:
	stfs 0,8(11)
.LVL727:
	addi 11,11,12
.LVL728:
	.loc 8 467 0
	bne+ 7,.L187
.LVL729:
.LBE4920:
.LBE4924:
.LBB4925:
.LBB4926:
	.loc 8 333 0
	addi 7,31,88
	li 10,0
.LVL730:
.L188:
.LBB4927:
.LBB4928:
	.loc 4 424 0
	addi 11,1,56
.LVL731:
.LBE4928:
.LBE4927:
	.loc 8 333 0
	cmpwi 7,10,24
.LBB4931:
.LBB4929:
	.loc 4 424 0
	lwzux 0,11,10
.LVL732:
	mr 9,7
	stwux 0,9,10
.LBE4929:
.LBE4931:
	.loc 8 333 0
	addi 10,10,12
.LBB4932:
.LBB4930:
	.loc 4 425 0
	lwz 8,4(11)
	.loc 4 426 0
	lwz 0,8(11)
	.loc 4 425 0
	stw 8,4(9)
	.loc 4 426 0
	stw 0,8(9)
.LBE4930:
.LBE4932:
	.loc 8 333 0
	bne+ 7,.L188
.LBE4926:
.LBE4925:
	.loc 2 1432 0
	li 0,1
	.loc 2 1433 0
	stb 30,541(31)
	.loc 2 1432 0
	stb 0,540(31)
	.loc 2 1434 0
	mr 3,31
	lwz 9,0(31)
	lwz 0,208(9)
	mtctr 0
	bctrl
.LVL733:
.L195:
.LBE4941:
.LBE4943:
.LBE4945:
	.loc 2 1443 0
	lwz 0,148(1)
	lwz 30,136(1)
.LVL734:
	mtlr 0
	lwz 31,140(1)
.LVL735:
	addi 1,1,144
	.cfi_remember_state
	.cfi_restore 30
	.cfi_restore 31
.LCFI78:
	.cfi_def_cfa_offset 0
	blr
.LVL736:
.L186:
.LCFI79:
	.cfi_restore_state
.LBB4946:
.LBB4944:
.LBB4942:
.LBB4933:
.LBB4934:
	.loc 8 333 0
	addi 7,31,88
	addi 8,31,184
	li 10,0
.L190:
.LBB4935:
.LBB4936:
	.loc 4 424 0
	mr 11,8
	mr 9,7
	lwzux 0,11,10
.LBE4936:
.LBE4935:
	.loc 8 333 0
	cmpwi 7,10,24
.LBB4939:
.LBB4937:
	.loc 4 424 0
	stwux 0,9,10
.LBE4937:
.LBE4939:
	.loc 8 333 0
	addi 10,10,12
.LBB4940:
.LBB4938:
	.loc 4 425 0
	lwz 0,4(11)
	stw 0,4(9)
	.loc 4 426 0
	lwz 0,8(11)
	stw 0,8(9)
.LBE4938:
.LBE4940:
	.loc 8 333 0
	bne+ 7,.L190
.LBE4934:
.LBE4933:
	.loc 2 1432 0
	li 0,1
	.loc 2 1433 0
	stb 30,541(31)
	.loc 2 1432 0
	stb 0,540(31)
	.loc 2 1434 0
	mr 3,31
	lwz 9,0(31)
	lwz 0,208(9)
	mtctr 0
	bctrl
.LVL737:
	b .L195
.LVL738:
.L184:
.LBE4942:
.LBE4944:
.LBE4946:
.LBB4947:
	.loc 2 1438 0
	beq+ 7,.L183
	.loc 2 1439 0
	stb 4,540(3)
	.loc 2 1440 0
	lwz 9,0(3)
	lwz 0,88(9)
	mtctr 0
	bctrl
.LVL739:
	b .L183
.LBE4947:
	.cfi_endproc
.LFE2899:
	.size	_ZN19idPhysics_RigidBody9SetMasterEP8idEntityb, .-_ZN19idPhysics_RigidBody9SetMasterEP8idEntityb
	.align 2
	.globl _ZN19idPhysics_RigidBody12SetClipModelEP11idClipModelfib
	.type	_ZN19idPhysics_RigidBody12SetClipModelEP11idClipModelfib, @function
_ZN19idPhysics_RigidBody12SetClipModelEP11idClipModelfib:
.LFB2849:
	.loc 2 603 0
	.cfi_startproc
.LVL740:
	mflr 0
	stwu 1,-184(1)
.LCFI80:
	.cfi_def_cfa_offset 184
	.cfi_register 65, 0
	stfd 31,176(1)
	fmr 31,1
	.cfi_offset 63, -8
	stw 31,172(1)
	mr 31,3
	.cfi_offset 31, -12
	stw 0,188(1)
	stw 24,144(1)
	stw 25,148(1)
	stw 26,152(1)
	stw 27,156(1)
	stw 28,160(1)
	stw 29,164(1)
	stw 30,168(1)
.LBB5003:
	.loc 2 612 0
	lwz 30,436(3)
	.cfi_offset 30, -16
	.cfi_offset 29, -20
	.cfi_offset 28, -24
	.cfi_offset 27, -28
	.cfi_offset 26, -32
	.cfi_offset 25, -36
	.cfi_offset 24, -40
	.cfi_offset 65, 4
	cmpwi 7,30,0
	beq- 7,.L197
	.loc 2 612 0 is_stmt 0 discriminator 1
	cmpw 7,30,4
	beq- 7,.L197
	.loc 2 612 0 discriminator 2
	cmpwi 7,6,0
	bne- 7,.L229
.LVL741:
.L197:
	.loc 2 616 0 is_stmt 1
	mr 3,4
	lwz 5,4(31)
	.loc 2 615 0
	stw 4,436(31)
	.loc 2 616 0
	lis 4,gameLocal+2311032@ha
	li 9,-1
	la 4,gameLocal+2311032@l(4)
	li 6,0
	addi 7,31,172
	addi 8,31,184
	.loc 2 619 0
	addi 29,31,460
	.loc 2 616 0
	bl _ZN11idClipModel4LinkER6idClipP8idEntityiRK6idVec3RK6idMat3i
	.loc 2 619 0
	fmr 1,31
	lwz 3,436(31)
	addi 4,31,440
	addi 5,31,448
	mr 6,29
	bl _ZNK11idClipModel17GetMassPropertiesEfRfR6idVec3R6idMat3
	.loc 2 622 0
	lwz 0,440(31)
	lis 9,.LC5@ha
	.loc 2 619 0
	mr 30,29
	.loc 2 622 0
	stw 0,140(1)
	lfs 0,.LC5@l(9)
	lfs 13,140(1)
	fcmpu 7,13,0
	cror 30,28,30
	beq- 7,.L198
	.loc 2 622 0 is_stmt 0 discriminator 1
	rlwinm 0,0,0,1,8
	lis 9,0x7f80
	cmpw 7,0,9
	beq- 7,.L198
	lis 7,mat3_identity@ha
	lis 27,.LC4@ha
	la 7,mat3_identity@l(7)
.L199:
.LVL742:
	.loc 2 631 0 is_stmt 1
	lfs 0,460(31)
.LVL743:
	lfs 12,476(31)
.LVL744:
	lfs 10,492(31)
.LVL745:
.LBB5004:
.LBB5005:
	.loc 7 101 0
	fcmpu 7,0,12
	bnl- 7,.L225
	fcmpu 7,0,10
	li 6,0
	li 28,0
	bnl- 7,.L227
.L203:
.LVL746:
	li 10,0
.L206:
.LBE5005:
.LBE5004:
.LBB5007:
.LBB5008:
.LBB5009:
.LBB5010:
.LBB5011:
	.loc 4 424 0
	mr 11,7
.LBE5011:
.LBE5010:
	.loc 8 333 0
	cmpwi 7,10,24
.LBB5014:
.LBB5012:
	.loc 4 424 0
	lwzux 0,11,10
	addi 9,1,92
	stwux 0,9,10
.LBE5012:
.LBE5014:
	.loc 8 333 0
	addi 10,10,12
.LBB5015:
.LBB5013:
	.loc 4 425 0
	lwz 8,4(11)
	.loc 4 426 0
	lwz 0,8(11)
	.loc 4 425 0
	stw 8,4(9)
	.loc 4 426 0
	stw 0,8(9)
.LBE5013:
.LBE5015:
	.loc 8 333 0
	bne+ 7,.L206
.LVL747:
.LBE5009:
.LBE5008:
.LBE5007:
.LBB5016:
.LBB5017:
	.loc 2 633 0
	mulli 25,28,12
.LBE5017:
.LBE5016:
.LBB5020:
	.loc 2 637 0
	lis 26,.LC13@ha
	lfs 9,.LC13@l(26)
.LBE5020:
.LBB5034:
.LBB5018:
	.loc 2 633 0
	add 25,29,25
.LBE5018:
.LBE5034:
	lfsx 13,25,6
.LBB5035:
.LBB5019:
	.loc 4 406 0
	add 25,25,6
.LBE5019:
.LBE5035:
	.loc 2 633 0
	fdivs 11,0,13
	.loc 2 634 0
	fdivs 12,12,13
	.loc 2 633 0
	stfs 11,92(1)
.LVL748:
	.loc 2 635 0
	fdivs 13,10,13
	.loc 2 634 0
	stfs 12,108(1)
.LVL749:
.LBB5036:
	.loc 2 637 0
	fcmpu 7,11,9
.LBE5036:
	.loc 2 635 0
	stfs 13,124(1)
.LVL750:
.LBB5037:
	.loc 2 637 0
	bng- 7,.L230
.L207:
.LBB5021:
	.loc 2 639 0 discriminator 5
	lwz 9,4(31)
	lwz 11,0(9)
	mr 3,9
	.loc 2 1542 0 discriminator 5
	lwz 24,72(9)
	.loc 2 639 0 discriminator 5
	lwz 0,0(11)
	mtctr 0
	bctrl
.LVL751:
	lis 4,.LC14@ha
	lwz 6,0(3)
	lis 3,gameLocal@ha
	mr 5,24
	la 3,gameLocal@l(3)
	la 4,.LC14@l(4)
	crxor 6,6,6
	bl _ZNK11idGameLocal8DWarningEPKcz
.LVL752:
	.loc 2 641 0 discriminator 5
	lis 11,0x5555
	addi 10,28,1
	ori 11,11,21846
	.loc 2 642 0 discriminator 5
	addi 28,28,2
.LVL753:
	.loc 2 641 0 discriminator 5
	mulhw 7,10,11
	srawi 9,10,31
	.loc 2 640 0 discriminator 5
	lfs 13,0(25)
	.loc 2 642 0 discriminator 5
	srawi 0,28,31
	.loc 2 640 0 discriminator 5
	lfs 0,.LC13@l(26)
	.loc 2 642 0 discriminator 5
	mulhw 8,28,11
	.loc 2 641 0 discriminator 5
	subf 9,9,7
	.loc 2 640 0 discriminator 5
	fmuls 0,13,0
	.loc 2 603 0 discriminator 5
	addi 11,29,36
	.loc 2 642 0 discriminator 5
	subf 0,0,8
	.loc 2 641 0 discriminator 5
	mulli 9,9,3
	.loc 2 642 0 discriminator 5
	mulli 0,0,3
	.loc 2 641 0 discriminator 5
	subf 9,9,10
	.loc 2 642 0 discriminator 5
	subf 0,0,28
.LBB5022:
.LBB5023:
	.loc 4 406 0 discriminator 5
	slwi 7,9,2
.LBE5023:
.LBE5022:
.LBB5025:
.LBB5026:
	slwi 8,0,2
.LVL754:
	.loc 2 642 0 discriminator 5
	mulli 10,0,12
.LVL755:
.LBE5026:
.LBE5025:
.LBB5027:
.LBB5024:
	.loc 2 641 0 discriminator 5
	mulli 9,9,12
.LVL756:
.LBE5024:
.LBE5027:
	add 5,29,7
	.loc 2 642 0 discriminator 5
	add 6,29,8
	.loc 2 641 0 discriminator 5
	addi 0,1,92
.LVL757:
	lfsx 13,5,9
	add 7,0,7
	.loc 2 642 0 discriminator 5
	lfsx 12,6,10
	add 8,0,8
	.loc 2 641 0 discriminator 5
	fdivs 13,0,13
	.loc 2 642 0 discriminator 5
	fdivs 0,0,12
.LVL758:
	.loc 2 641 0 discriminator 5
	stfsx 13,7,9
	.loc 2 642 0 discriminator 5
	stfsx 0,8,10
.LVL759:
.L210:
	.loc 2 603 0
	lfs 0,4(30)
.LBB5028:
.LBB5029:
	.loc 8 520 0
	lfs 13,112(1)
	lfs 11,104(1)
	lfs 12,108(1)
	fmuls 11,0,11
	lfs 8,92(1)
	fmuls 12,0,12
	lfs 9,96(1)
	fmuls 0,0,13
	lfs 10,100(1)
.LBE5029:
.LBE5028:
	.loc 2 603 0
	lfs 13,0(30)
.LBB5032:
.LBB5030:
	.loc 8 520 0
	fmadds 11,8,13,11
	lfs 8,116(1)
	fmadds 12,9,13,12
	lfs 9,120(1)
	fmadds 13,10,13,0
.LBE5030:
.LBE5032:
	.loc 2 603 0
	lfs 0,8(30)
.LBB5033:
.LBB5031:
	.loc 8 520 0
	lfs 10,124(1)
	fmadds 11,8,0,11
	fmadds 12,9,0,12
	fmadds 0,10,0,13
	.loc 8 522 0
	stfs 11,0(30)
	stfs 12,4(30)
	stfs 0,8(30)
	.loc 8 523 0
	addi 30,30,12
.LVL760:
	.loc 8 516 0
	cmpw 7,30,11
	.loc 8 520 0
	stfs 11,8(1)
.LVL761:
	stfs 12,12(1)
.LVL762:
	stfs 0,16(1)
.LVL763:
	.loc 8 516 0
	bne+ 7,.L210
.LBE5031:
.LBE5033:
	.loc 2 603 0
	lfs 0,460(31)
.LVL764:
.L208:
.LBE5021:
.LBE5037:
	.loc 2 646 0
	lfs 12,.LC4@l(27)
.LBB5038:
.LBB5039:
.LBB5040:
.LBB5041:
	.loc 8 333 0
	li 11,0
.LBE5041:
.LBE5040:
.LBE5039:
.LBE5038:
	.loc 2 646 0
	lfs 13,440(31)
.LBB5061:
.LBB5058:
.LBB5055:
.LBB5052:
	.loc 8 333 0
	cmpwi 7,11,24
.LBB5042:
.LBB5043:
	.loc 4 424 0
	addi 9,1,56
.LBE5043:
.LBE5042:
.LBE5052:
.LBE5055:
.LBE5058:
.LBE5061:
	.loc 2 646 0
	fdivs 13,12,13
.LBB5062:
.LBB5059:
.LBB5056:
.LBB5053:
.LBB5048:
.LBB5044:
	.loc 4 424 0
	stfsux 0,9,11
.LBE5044:
.LBE5048:
.LBE5053:
.LBE5056:
.LBE5059:
.LBE5062:
	.loc 2 646 0
	stfs 13,444(31)
.LVL765:
.LBB5063:
.LBB5060:
.LBB5057:
.LBB5054:
.LBB5049:
.LBB5045:
	.loc 4 425 0
	lwz 10,4(29)
	.loc 4 426 0
	lwz 0,8(29)
	.loc 4 425 0
	stw 10,4(9)
	.loc 4 426 0
	stw 0,8(9)
.LBE5045:
.LBE5049:
	.loc 8 333 0
	beq- 7,.L212
.LVL766:
.L231:
	addi 11,11,12
	lfs 0,12(29)
	cmpwi 7,11,24
.LBB5050:
.LBB5046:
	.loc 4 424 0
	addi 9,1,56
.LVL767:
.LBE5046:
.LBE5050:
	.loc 8 333 0
	addi 29,29,12
.LBB5051:
.LBB5047:
	.loc 4 424 0
	stfsux 0,9,11
.LVL768:
	.loc 4 425 0
	lwz 10,4(29)
	.loc 4 426 0
	lwz 0,8(29)
	.loc 4 425 0
	stw 10,4(9)
	.loc 4 426 0
	stw 0,8(9)
.LBE5047:
.LBE5051:
	.loc 8 333 0
	bne+ 7,.L231
.L212:
.LBE5054:
.LBE5057:
	.loc 8 703 0
	addi 3,1,56
.LVL769:
	bl _ZN6idMat311InverseSelfEv
.LVL770:
.LBE5060:
.LBE5063:
.LBB5064:
.LBB5065:
	.loc 8 483 0
	lis 9,.LC3@ha
	lfs 0,.LC3@l(9)
.LBE5065:
.LBE5064:
.LBB5081:
.LBB5082:
	.loc 8 333 0
	li 10,0
.LBE5082:
.LBE5081:
.LBB5100:
.LBB5074:
	.loc 8 483 0
	lfs 11,56(1)
.LBE5074:
.LBE5100:
.LBB5101:
.LBB5093:
	.loc 8 333 0
	addi 0,31,496
.LBE5093:
.LBE5101:
.LBB5102:
.LBB5075:
	.loc 8 483 0
	lfs 12,60(1)
.LBE5075:
.LBE5102:
.LBB5103:
.LBB5094:
	.loc 8 333 0
	cmpwi 7,10,24
.LBE5094:
.LBE5103:
.LBB5104:
.LBB5076:
	.loc 8 483 0
	fmuls 11,11,0
	lfs 13,64(1)
	lfs 6,68(1)
	fmuls 12,12,0
	lfs 7,72(1)
	fmuls 13,13,0
	lfs 8,76(1)
.LBE5076:
.LBE5104:
.LBB5105:
.LBB5095:
.LBB5083:
.LBB5084:
	.loc 4 424 0
	mr 9,0
.LBE5084:
.LBE5083:
.LBE5095:
.LBE5105:
.LBB5106:
.LBB5077:
	.loc 8 483 0
	lfs 9,80(1)
	fmuls 6,6,0
	lfs 10,84(1)
	fmuls 7,7,0
	lfs 5,88(1)
	fmuls 8,8,0
	fmuls 9,9,0
.LBE5077:
.LBE5106:
.LBB5107:
.LBB5096:
.LBB5089:
.LBB5085:
	.loc 4 424 0
	stfsux 11,9,10
.LBE5085:
.LBE5089:
.LBE5096:
.LBE5107:
.LBB5108:
.LBB5078:
	.loc 8 483 0
	fmuls 10,10,0
.LBB5066:
.LBB5067:
	.loc 8 425 0
	stfs 11,20(1)
.LBE5067:
.LBE5066:
	.loc 8 483 0
	fmuls 0,5,0
.LVL771:
.LBB5071:
.LBB5068:
	.loc 8 425 0
	stfs 12,24(1)
	stfs 13,28(1)
.LBE5068:
.LBE5071:
.LBE5078:
.LBE5108:
.LBB5109:
.LBB5097:
	.loc 8 333 0
	addi 11,1,20
.LBE5097:
.LBE5109:
.LBB5110:
.LBB5079:
.LBB5072:
.LBB5069:
	.loc 8 426 0
	stfs 6,32(1)
.LBE5069:
.LBE5072:
.LBE5079:
.LBE5110:
.LBB5111:
.LBB5098:
	.loc 8 333 0
	addi 10,10,12
.LBE5098:
.LBE5111:
.LBB5112:
.LBB5080:
.LBB5073:
.LBB5070:
	.loc 8 426 0
	stfs 7,36(1)
	stfs 8,40(1)
	.loc 8 427 0
	stfs 9,44(1)
	stfs 10,48(1)
	stfs 0,52(1)
.LVL772:
.LBE5070:
.LBE5073:
.LBE5080:
.LBE5112:
.LBB5113:
.LBB5099:
.LBB5090:
.LBB5086:
	.loc 4 425 0
	stfs 12,4(9)
	.loc 4 426 0
	stfs 13,8(9)
.LBE5086:
.LBE5090:
	.loc 8 333 0
	beq- 7,.L214
.LVL773:
.L232:
	lfsux 11,11,10
	cmpwi 7,10,24
.LBB5091:
.LBB5087:
	.loc 4 424 0
	mr 9,0
	stfsux 11,9,10
.LBE5087:
.LBE5091:
	.loc 8 333 0
	addi 10,10,12
	.loc 2 603 0
	lfs 12,4(11)
	lfs 13,8(11)
	.loc 8 333 0
	addi 11,1,20
.LBB5092:
.LBB5088:
	.loc 4 425 0
	stfs 12,4(9)
	.loc 4 426 0
	stfs 13,8(9)
.LBE5088:
.LBE5092:
	.loc 8 333 0
	bne+ 7,.L232
.L214:
.LVL774:
.LBE5099:
.LBE5113:
.LBB5114:
.LBB5115:
	.loc 4 416 0
	li 0,0
.LVL775:
	stw 0,228(31)
	stw 0,224(31)
	stw 0,220(31)
.LVL776:
.LBE5115:
.LBE5114:
.LBB5116:
.LBB5117:
	stw 0,240(31)
	stw 0,236(31)
	stw 0,232(31)
.LBE5117:
.LBE5116:
.LBE5003:
	.loc 2 651 0
	lwz 0,188(1)
	lwz 24,144(1)
	mtlr 0
	lwz 25,148(1)
	lwz 26,152(1)
	lwz 27,156(1)
	lwz 28,160(1)
	lwz 29,164(1)
	lwz 30,168(1)
	lwz 31,172(1)
.LVL777:
	lfd 31,176(1)
.LVL778:
	addi 1,1,184
	.cfi_remember_state
.LCFI81:
	.cfi_def_cfa_offset 0
	.cfi_restore 63
	.cfi_restore 31
	.cfi_restore 30
	.cfi_restore 29
	.cfi_restore 28
	.cfi_restore 27
	.cfi_restore 26
	.cfi_restore 25
	.cfi_restore 24
	blr
.LVL779:
.L225:
.LCFI82:
	.cfi_restore_state
.LBB5136:
.LBB5118:
.LBB5006:
	.loc 7 101 0
	fcmpu 7,12,10
	li 6,4
	li 28,1
	blt- 7,.L203
.L227:
	li 6,8
	li 28,2
	b .L203
.LVL780:
.L230:
.LBE5006:
.LBE5118:
.LBB5119:
	.loc 2 637 0
	fcmpu 7,12,9
	bgt- 7,.L207
.LVL781:
	fcmpu 7,13,9
	bng- 7,.L208
	b .L207
.LVL782:
.L229:
.LBE5119:
	.loc 2 613 0
	mr 3,30
	stw 4,136(1)
	bl _ZN11idClipModelD1Ev
.LVL783:
	mr 3,30
	bl _ZdlPv
	lwz 4,136(1)
	b .L197
.L198:
	.loc 2 624 0
	lwz 9,4(31)
	.loc 2 625 0
	lis 27,.LC4@ha
	.loc 2 624 0
	lwz 11,0(9)
	mr 3,9
	.loc 2 1542 0
	lwz 28,72(9)
	.loc 2 624 0
	lwz 0,0(11)
	mtctr 0
	bctrl
	lis 4,.LC12@ha
	lwz 6,0(3)
	lis 3,gameLocal@ha
	la 3,gameLocal@l(3)
	la 4,.LC12@l(4)
	mr 5,28
	crxor 6,6,6
	bl _ZNK11idGameLocal7WarningEPKcz
	.loc 2 625 0
	lwz 9,.LC4@l(27)
.LBB5120:
.LBB5121:
	.loc 4 416 0
	li 0,0
	lis 7,mat3_identity@ha
.LBE5121:
.LBE5120:
	.loc 2 625 0
	stw 9,440(31)
.LVL784:
.LBB5123:
.LBB5124:
.LBB5125:
	.loc 8 333 0
	li 10,0
.LBE5125:
.LBE5124:
.LBE5123:
.LBB5134:
.LBB5122:
	.loc 4 416 0
	stw 0,456(31)
	la 7,mat3_identity@l(7)
	stw 0,452(31)
	stw 0,448(31)
.LVL785:
.L200:
.LBE5122:
.LBE5134:
.LBB5135:
.LBB5133:
.LBB5132:
.LBB5126:
.LBB5127:
	.loc 4 424 0
	mr 11,7
	mr 9,29
	lwzux 0,11,10
.LBE5127:
.LBE5126:
	.loc 8 333 0
	cmpwi 7,10,24
.LBB5130:
.LBB5128:
	.loc 4 424 0
	stwux 0,9,10
.LBE5128:
.LBE5130:
	.loc 8 333 0
	addi 10,10,12
.LBB5131:
.LBB5129:
	.loc 4 425 0
	lwz 0,4(11)
	stw 0,4(9)
	.loc 4 426 0
	lwz 0,8(11)
	stw 0,8(9)
.LBE5129:
.LBE5131:
	.loc 8 333 0
	bne+ 7,.L200
	b .L199
.LBE5132:
.LBE5133:
.LBE5135:
.LBE5136:
	.cfi_endproc
.LFE2849:
	.size	_ZN19idPhysics_RigidBody12SetClipModelEP11idClipModelfib, .-_ZN19idPhysics_RigidBody12SetClipModelEP11idClipModelfib
	.align 2
	.globl _ZN19idPhysics_RigidBody7SetAxisERK6idMat3i
	.type	_ZN19idPhysics_RigidBody7SetAxisERK6idMat3i, @function
_ZN19idPhysics_RigidBody7SetAxisERK6idMat3i:
.LFB2879:
	.loc 2 1145 0
	.cfi_startproc
.LVL786:
	mflr 0
	stwu 1,-120(1)
.LCFI83:
	.cfi_def_cfa_offset 120
	.cfi_register 65, 0
.LBB5155:
.LBB5156:
.LBB5157:
	.loc 8 333 0
	addi 8,3,88
	li 10,0
.LBE5157:
.LBE5156:
.LBE5155:
	.loc 2 1145 0
	stw 29,108(1)
	stw 0,124(1)
	stw 30,112(1)
	mr 30,4
	.cfi_offset 30, -8
	.cfi_offset 65, 4
	.cfi_offset 29, -12
	stw 31,116(1)
	.loc 2 1145 0
	mr 31,3
	.cfi_offset 31, -4
.LVL787:
.L234:
.LBB5190:
.LBB5166:
.LBB5164:
.LBB5158:
.LBB5159:
	.loc 4 424 0
	mr 11,30
	mr 9,8
	lwzux 0,11,10
.LBE5159:
.LBE5158:
	.loc 8 333 0
	cmpwi 7,10,24
.LBB5162:
.LBB5160:
	.loc 4 424 0
	stwux 0,9,10
.LBE5160:
.LBE5162:
	.loc 8 333 0
	addi 10,10,12
.LBB5163:
.LBB5161:
	.loc 4 425 0
	lwz 0,4(11)
	stw 0,4(9)
	.loc 4 426 0
	lwz 0,8(11)
	stw 0,8(9)
.LBE5161:
.LBE5163:
	.loc 8 333 0
	bne+ 7,.L234
.LBE5164:
.LBE5166:
	.loc 2 1150 0
	lbz 0,540(31)
	cmpwi 7,0,0
	beq- 7,.L235
	.loc 2 1150 0 is_stmt 0 discriminator 1
	lbz 0,541(31)
	cmpwi 7,0,0
	bne- 7,.L244
.L235:
.LVL788:
.LBB5167:
.LBB5168:
	.loc 8 333 0 is_stmt 1
	addi 8,31,184
.LVL789:
	li 10,0
.L239:
.LBB5169:
.LBB5170:
	.loc 4 424 0
	mr 11,30
	mr 9,8
	lwzux 0,11,10
.LBE5170:
.LBE5169:
	.loc 8 333 0
	cmpwi 7,10,24
.LBB5173:
.LBB5171:
	.loc 4 424 0
	stwux 0,9,10
.LBE5171:
.LBE5173:
	.loc 8 333 0
	addi 10,10,12
.LBB5174:
.LBB5172:
	.loc 4 425 0
	lwz 0,4(11)
	stw 0,4(9)
	.loc 4 426 0
	lwz 0,8(11)
	stw 0,8(9)
.LBE5172:
.LBE5174:
	.loc 8 333 0
	bne+ 7,.L239
.LVL790:
.L238:
.LBE5168:
.LBE5167:
	.loc 2 1158 0
	lwz 3,436(31)
.LVL791:
	lis 4,gameLocal+2311032@ha
	lwz 5,4(31)
	la 4,gameLocal+2311032@l(4)
	lwz 6,8(3)
	addi 7,3,16
	li 9,-1
	bl _ZN11idClipModel4LinkER6idClipP8idEntityiRK6idVec3RK6idMat3i
.LVL792:
	.loc 2 1160 0
	lwz 9,0(31)
	mr 3,31
	lwz 0,88(9)
	mtctr 0
	bctrl
.LBE5190:
	.loc 2 1161 0
	lwz 0,124(1)
	lwz 29,108(1)
	mtlr 0
	lwz 30,112(1)
	lwz 31,116(1)
.LVL793:
	addi 1,1,120
	.cfi_remember_state
.LCFI84:
	.cfi_def_cfa_offset 0
	.cfi_restore 31
	.cfi_restore 30
	.cfi_restore 29
	blr
.LVL794:
.L244:
.LCFI85:
	.cfi_restore_state
.LBB5191:
	.loc 2 1151 0
	addi 29,1,56
	lwz 3,4(31)
.LVL795:
	addi 4,1,8
.LVL796:
	mr 5,29
.LVL797:
	bl _ZNK8idEntity17GetMasterPositionER6idVec3R6idMat3
.LVL798:
.LBB5175:
.LBB5165:
	.loc 8 465 0
	addi 9,1,20
.LVL799:
.L236:
.LBE5165:
.LBE5175:
	.loc 2 1145 0
	lfs 0,4(30)
.LBB5176:
.LBB5177:
	.loc 8 471 0
	lfs 13,20(29)
	lfs 11,12(29)
	lfs 12,16(29)
	fmuls 11,0,11
	lfs 8,0(29)
	fmuls 12,0,12
	lfs 9,4(29)
	fmuls 0,0,13
	lfs 10,8(29)
.LBE5177:
.LBE5176:
	.loc 2 1145 0
	lfs 13,0(30)
.LBB5180:
.LBB5178:
	.loc 8 471 0
	fmadds 11,8,13,11
	lfs 8,24(29)
	fmadds 12,9,13,12
	lfs 9,28(29)
	fmadds 13,10,13,0
.LBE5178:
.LBE5180:
	.loc 2 1145 0
	lfs 0,8(30)
.LBB5181:
.LBB5179:
	.loc 8 471 0
	lfs 10,32(29)
	.loc 8 474 0
	addi 30,30,12
.LVL800:
	.loc 8 471 0
	fmadds 11,8,0,11
	fmadds 12,9,0,12
	fmadds 0,10,0,13
	stfs 11,0(9)
.LVL801:
	stfs 12,4(9)
.LVL802:
	stfs 0,8(9)
.LVL803:
	addi 9,9,12
.LVL804:
	.loc 8 467 0
	cmpw 7,9,29
	bne+ 7,.L236
.LVL805:
.LBE5179:
.LBE5181:
.LBB5182:
.LBB5183:
	.loc 8 333 0
	addi 8,31,184
	li 10,0
.LVL806:
.L237:
.LBB5184:
.LBB5185:
	.loc 4 424 0
	addi 11,1,20
.LBE5185:
.LBE5184:
	.loc 8 333 0
	cmpwi 7,10,24
.LBB5188:
.LBB5186:
	.loc 4 424 0
	lwzux 0,11,10
	mr 9,8
	stwux 0,9,10
.LBE5186:
.LBE5188:
	.loc 8 333 0
	addi 10,10,12
.LBB5189:
.LBB5187:
	.loc 4 425 0
	lwz 7,4(11)
	.loc 4 426 0
	lwz 0,8(11)
	.loc 4 425 0
	stw 7,4(9)
	.loc 4 426 0
	stw 0,8(9)
.LBE5187:
.LBE5189:
	.loc 8 333 0
	bne+ 7,.L237
	b .L238
.LBE5183:
.LBE5182:
.LBE5191:
	.cfi_endproc
.LFE2879:
	.size	_ZN19idPhysics_RigidBody7SetAxisERK6idMat3i, .-_ZN19idPhysics_RigidBody7SetAxisERK6idMat3i
	.align 2
	.globl _ZN19idPhysics_RigidBody9IntegrateEfR17rigidBodyPState_s
	.type	_ZN19idPhysics_RigidBody9IntegrateEfR17rigidBodyPState_s, @function
_ZN19idPhysics_RigidBody9IntegrateEfR17rigidBodyPState_s:
.LFB2813:
	.loc 2 83 0
	.cfi_startproc
.LVL807:
	mflr 0
	stwu 1,-56(1)
.LCFI86:
	.cfi_def_cfa_offset 56
	.cfi_register 65, 0
	stfd 31,48(1)
	fmr 31,1
	.cfi_offset 63, -8
	stw 30,16(1)
	mr 30,3
	.cfi_offset 30, -40
.LVL808:
	stw 31,20(1)
	mr 31,4
	.cfi_offset 31, -36
	stw 0,60(1)
.LBB5249:
	.loc 2 91 0
	fmr 2,31
.LBE5249:
	.loc 2 83 0
	stfd 28,24(1)
.LBB5408:
	.loc 2 91 0
	addi 4,30,172
.LVL809:
.LBE5408:
	.loc 2 83 0
	stfd 29,32(1)
.LBB5409:
	.loc 2 91 0
	addi 5,31,104
.LBE5409:
	.loc 2 83 0
	stfd 30,40(1)
.LBB5410:
.LBB5250:
.LBB5251:
.LBB5252:
	.loc 8 454 0
	lfs 7,196(3)
	lfs 13,452(3)
	lfs 12,204(3)
	lfs 5,200(3)
	fmuls 0,7,13
	fmuls 6,13,12
	lfs 8,188(3)
	fmuls 5,13,5
	lfs 10,192(3)
	lfs 13,448(3)
.LBE5252:
.LBE5251:
.LBE5250:
.LBB5261:
.LBB5262:
	lfs 11,184(3)
.LBE5262:
.LBE5261:
.LBB5269:
.LBB5257:
.LBB5253:
	fmadds 5,13,8,5
	lfs 9,208(3)
	fmadds 6,13,10,6
	lfs 4,216(3)
.LBE5253:
.LBE5257:
.LBE5269:
.LBB5270:
.LBB5263:
	fmadds 13,11,13,0
.LBE5263:
.LBE5270:
.LBB5271:
.LBB5258:
.LBB5254:
	lfs 11,212(3)
	lfs 0,456(3)
.LBE5254:
.LBE5258:
.LBE5271:
.LBB5272:
.LBB5273:
	.loc 4 424 0
	lfs 28,172(3)
	.cfi_offset 62, -16
	.cfi_offset 61, -24
	.cfi_offset 60, -32
	.cfi_offset 65, 4
.LBE5273:
.LBE5272:
.LBB5276:
.LBB5259:
.LBB5255:
	.loc 8 454 0
	fmadds 5,0,11,5
.LBE5255:
.LBE5259:
.LBE5276:
.LBB5277:
.LBB5274:
	.loc 4 425 0
	lfs 29,176(3)
.LBE5274:
.LBE5277:
.LBB5278:
.LBB5260:
.LBB5256:
	.loc 8 454 0
	fmadds 6,0,4,6
.LVL810:
.LBE5256:
.LBE5260:
.LBE5278:
.LBB5279:
.LBB5275:
	.loc 4 426 0
	lfs 30,180(3)
.LVL811:
.LBE5275:
.LBE5279:
.LBB5280:
.LBB5264:
	.loc 8 454 0
	fmadds 0,9,0,13
.LBE5264:
.LBE5280:
.LBB5281:
.LBB5282:
	.loc 8 687 0
	stfs 7,188(3)
.LBE5282:
.LBE5281:
.LBB5287:
.LBB5265:
	.loc 4 457 0
	fadds 5,29,5
.LVL812:
.LBE5265:
.LBE5287:
.LBB5288:
.LBB5283:
	.loc 8 688 0
	stfs 8,196(3)
.LBE5283:
.LBE5288:
.LBB5289:
.LBB5266:
	.loc 4 458 0
	fadds 6,30,6
.LVL813:
.LBE5266:
.LBE5289:
.LBB5290:
.LBB5284:
	.loc 8 690 0
	stfs 9,192(3)
.LBE5284:
.LBE5290:
.LBB5291:
.LBB5267:
	.loc 4 456 0
	fadds 0,28,0
.LBE5267:
.LBE5291:
.LBB5292:
.LBB5285:
	.loc 8 691 0
	stfs 10,208(3)
.LBE5285:
.LBE5292:
.LBB5293:
.LBB5268:
	.loc 4 457 0
	stfs 5,176(3)
	.loc 4 458 0
	stfs 6,180(3)
.LVL814:
	.loc 4 456 0
	stfs 0,172(3)
.LBE5268:
.LBE5293:
.LBB5294:
.LBB5286:
	.loc 8 693 0
	stfs 11,204(3)
.LVL815:
	.loc 8 694 0
	stfs 12,212(3)
.LBE5286:
.LBE5294:
	.loc 2 91 0
	lwz 3,532(3)
.LVL816:
	lwz 9,0(3)
	lwz 0,8(9)
	lis 9,.LC5@ha
	lfs 1,.LC5@l(9)
.LVL817:
	mtctr 0
	bctrl
.LVL818:
.LBB5295:
.LBB5296:
.LBB5297:
	.loc 4 649 0
	lfs 6,120(31)
	lfs 11,116(31)
.LBB5298:
.LBB5299:
	.loc 7 275 0
	lis 9,.LC6@ha
.LBE5299:
.LBE5298:
	.loc 4 649 0
	fmuls 0,6,6
	lfs 12,124(31)
.LBB5305:
.LBB5300:
	.loc 7 275 0
	lfs 7,.LC6@l(9)
	.loc 7 276 0
	lis 9,_ZN6idMath5iSqrtE@ha
	la 9,_ZN6idMath5iSqrtE@l(9)
.LBE5300:
.LBE5305:
	.loc 4 649 0
	fmadds 0,11,11,0
	fmadds 0,12,12,0
	stfs 0,8(1)
.LVL819:
.LBB5306:
.LBB5301:
	.loc 7 275 0
	fmuls 1,0,7
	.loc 7 270 0
	lwz 0,8(1)
.LVL820:
	.loc 2 83 0
	fneg 1,1
	.loc 7 276 0
	rlwinm 10,0,9,24,31
	rlwinm 0,0,19,21,29
	lwzx 11,9,0
	subfic 0,10,380
	rlwinm 0,0,22,0,8
	or 0,0,11
	.loc 7 278 0
	lis 11,.LC8@ha
	.loc 7 277 0
	stw 0,12(1)
	lfs 0,12(1)
.LVL821:
.LBE5301:
.LBE5306:
.LBE5297:
.LBE5296:
.LBB5316:
.LBB5317:
	.loc 4 624 0
	lfs 8,136(31)
.LBE5317:
.LBE5316:
.LBB5324:
.LBB5310:
.LBB5307:
.LBB5302:
	.loc 7 277 0
	fmr 4,0
.LVL822:
	.loc 7 278 0
	lfs 0,.LC8@l(11)
.LVL823:
.LBE5302:
.LBE5307:
.LBE5310:
.LBE5324:
.LBB5325:
.LBB5318:
	.loc 4 624 0
	lfs 9,132(31)
	.loc 4 625 0
	lfs 10,128(31)
.LBE5318:
.LBE5325:
.LBB5326:
.LBB5311:
.LBB5308:
.LBB5303:
	.loc 7 278 0
	fmul 5,4,4
.LBE5303:
.LBE5308:
.LBE5311:
.LBE5326:
.LBE5295:
.LBB5368:
.LBB5369:
	.loc 4 456 0
	lfs 2,152(31)
	.loc 4 457 0
	lfs 3,156(31)
.LBE5369:
.LBE5368:
.LBB5371:
.LBB5327:
.LBB5312:
.LBB5309:
.LBB5304:
	.loc 7 278 0
	fmadd 5,1,5,0
	fmul 5,4,5
.LVL824:
	.loc 7 279 0
	fmul 13,5,5
	fmadd 13,1,13,0
.LVL825:
	fmul 13,5,13
.LVL826:
	.loc 7 280 0
	frsp 13,13
.LVL827:
.LBE5304:
.LBE5309:
	.loc 4 651 0
	fmuls 11,11,13
	.loc 4 653 0
	fmuls 12,12,13
	.loc 4 652 0
	fmuls 13,6,13
.LBE5312:
.LBE5327:
.LBB5328:
.LBB5319:
	.loc 4 625 0
	fmuls 4,8,11
.LBE5319:
.LBE5328:
.LBB5329:
.LBB5313:
	.loc 4 651 0
	stfs 11,116(31)
.LBE5313:
.LBE5329:
.LBB5330:
.LBB5320:
	.loc 4 624 0
	fmuls 5,9,12
.LBE5320:
.LBE5330:
.LBB5331:
.LBB5314:
	.loc 4 653 0
	stfs 12,124(31)
.LVL828:
.LBE5314:
.LBE5331:
.LBB5332:
.LBB5321:
	.loc 4 626 0
	fmuls 6,10,13
.LBE5321:
.LBE5332:
.LBB5333:
.LBB5315:
	.loc 4 652 0
	stfs 13,120(31)
.LBE5315:
.LBE5333:
.LBB5334:
.LBB5322:
	.loc 4 625 0
	fmsubs 10,10,12,4
	.loc 4 624 0
	fmsubs 8,8,13,5
	.loc 4 626 0
	fmsubs 9,9,11,6
.LBE5322:
.LBE5334:
.LBB5335:
.LBB5336:
	.loc 4 649 0
	fmuls 6,10,10
.LBE5336:
.LBE5335:
.LBB5344:
.LBB5323:
	.loc 4 625 0
	stfs 10,144(31)
	.loc 4 624 0
	stfs 8,140(31)
	.loc 4 626 0
	stfs 9,148(31)
	.loc 4 649 0
	fmadds 6,8,8,6
	fmadds 6,9,9,6
	stfs 6,8(1)
.LBE5323:
.LBE5344:
.LBB5345:
.LBB5339:
.LBB5337:
.LBB5338:
	.loc 7 275 0
	fmuls 1,6,7
	.loc 7 270 0
	lwz 0,8(1)
.LVL829:
	.loc 2 83 0
	fneg 1,1
	.loc 7 276 0
	rlwinm 10,0,9,24,31
	rlwinm 0,0,19,21,29
	lwzx 11,9,0
	subfic 0,10,380
	rlwinm 0,0,22,0,8
	or 0,0,11
	.loc 7 277 0
	stw 0,12(1)
	lfs 6,12(1)
	fmr 4,6
.LVL830:
	.loc 7 278 0
	fmul 5,4,4
	fmadd 5,1,5,0
	fmul 5,4,5
.LVL831:
	.loc 7 279 0
	fmul 6,5,5
	fmadd 6,1,6,0
.LVL832:
	fmul 6,5,6
.LVL833:
	.loc 7 280 0
	frsp 6,6
.LVL834:
.LBE5338:
.LBE5337:
	.loc 4 651 0
	fmuls 8,8,6
	.loc 4 653 0
	fmuls 9,9,6
	.loc 4 652 0
	fmuls 10,10,6
.LBE5339:
.LBE5345:
.LBB5346:
.LBB5347:
	.loc 4 625 0
	fmuls 4,12,8
.LBE5347:
.LBE5346:
.LBB5353:
.LBB5340:
	.loc 4 651 0
	stfs 8,140(31)
.LBE5340:
.LBE5353:
.LBB5354:
.LBB5348:
	.loc 4 624 0
	fmuls 5,13,9
.LBE5348:
.LBE5354:
.LBB5355:
.LBB5341:
	.loc 4 653 0
	stfs 9,148(31)
.LVL835:
.LBE5341:
.LBE5355:
.LBB5356:
.LBB5349:
	.loc 4 626 0
	fmuls 6,11,10
.LBE5349:
.LBE5356:
.LBB5357:
.LBB5342:
	.loc 4 652 0
	stfs 10,144(31)
.LBE5342:
.LBE5357:
.LBB5358:
.LBB5350:
	.loc 4 625 0
	fmsubs 11,11,9,4
.LBE5350:
.LBE5358:
.LBB5359:
.LBB5343:
	.loc 4 624 0
	fmsubs 12,12,10,5
.LBE5343:
.LBE5359:
.LBB5360:
.LBB5351:
	.loc 4 626 0
	fmsubs 13,13,8,6
.LBE5351:
.LBE5360:
.LBB5361:
.LBB5362:
	.loc 4 649 0
	fmuls 6,11,11
.LBE5362:
.LBE5361:
.LBB5366:
.LBB5352:
	.loc 4 625 0
	stfs 11,132(31)
	.loc 4 624 0
	stfs 12,128(31)
	.loc 4 626 0
	stfs 13,136(31)
	.loc 4 649 0
	fmadds 6,12,12,6
	fmadds 6,13,13,6
	stfs 6,8(1)
.LBE5352:
.LBE5366:
.LBB5367:
.LBB5365:
.LBB5363:
.LBB5364:
	.loc 7 275 0
	fmuls 7,6,7
	.loc 7 270 0
	lwz 0,8(1)
.LVL836:
	.loc 2 83 0
	fneg 7,7
	.loc 7 276 0
	rlwinm 11,0,9,24,31
	rlwinm 0,0,19,21,29
	lwzx 9,9,0
	subfic 0,11,380
	rlwinm 0,0,22,0,8
	or 0,0,9
	.loc 7 277 0
	stw 0,12(1)
	lfs 10,12(1)
	fmr 9,10
.LVL837:
	.loc 7 278 0
	fmul 10,9,9
.LVL838:
	fmadd 10,7,10,0
	fmul 10,9,10
.LVL839:
	.loc 7 279 0
	fmul 9,10,10
	fmadd 0,7,9,0
.LVL840:
	fmul 0,10,0
.LVL841:
	.loc 7 280 0
	frsp 0,0
.LVL842:
.LBE5364:
.LBE5363:
	.loc 4 651 0
	fmuls 12,12,0
	.loc 4 652 0
	fmuls 11,11,0
	.loc 4 653 0
	fmuls 13,13,0
	.loc 4 651 0
	stfs 12,128(31)
	.loc 4 652 0
	stfs 11,132(31)
	.loc 4 653 0
	stfs 13,136(31)
.LVL843:
.LBE5365:
.LBE5367:
.LBE5371:
.LBB5372:
.LBB5373:
	.loc 4 448 0
	lfs 13,20(30)
	lfs 12,16(30)
	lfs 11,12(30)
	fmuls 12,31,12
.LBE5373:
.LBE5372:
	.loc 2 95 0
	lfs 0,440(30)
.LBB5375:
.LBB5374:
	.loc 4 448 0
	fmuls 11,31,11
	fmuls 31,31,13
.LVL844:
.LBE5374:
.LBE5375:
.LBB5376:
.LBB5370:
	.loc 4 458 0
	lfs 13,160(31)
	.loc 4 457 0
	fmadds 3,0,12,3
	.loc 4 456 0
	fmadds 2,0,11,2
.LVL845:
	.loc 4 458 0
	fmadds 0,0,31,13
	.loc 4 457 0
	stfs 3,156(31)
	.loc 4 456 0
	stfs 2,152(31)
	.loc 4 458 0
	stfs 0,160(31)
.LVL846:
.LBE5370:
.LBE5376:
.LBB5377:
.LBB5378:
	.loc 8 686 0
	lwz 8,188(30)
.LVL847:
	.loc 8 687 0
	lwz 7,196(30)
	.loc 8 689 0
	lwz 11,192(30)
	.loc 8 690 0
	lwz 10,208(30)
	.loc 8 692 0
	lwz 0,204(30)
	.loc 8 693 0
	lwz 9,212(30)
	.loc 8 687 0
	stw 7,188(30)
	.loc 8 688 0
	stw 8,196(30)
.LVL848:
	.loc 8 690 0
	stw 10,192(30)
	.loc 8 691 0
	stw 11,208(30)
.LVL849:
	.loc 8 693 0
	stw 9,204(30)
	.loc 8 694 0
	stw 0,212(30)
.LVL850:
.LBE5378:
.LBE5377:
.LBB5379:
.LBB5380:
	.loc 8 686 0
	lwz 8,120(31)
.LVL851:
	.loc 8 687 0
	lwz 7,128(31)
	.loc 8 692 0
	lwz 0,136(31)
	.loc 8 689 0
	lwz 11,124(31)
	.loc 8 690 0
	lwz 10,140(31)
	.loc 8 693 0
	lwz 9,144(31)
	.loc 8 687 0
	stw 7,120(31)
.LVL852:
	.loc 8 688 0
	stw 8,128(31)
.LVL853:
	.loc 8 690 0
	stw 10,124(31)
.LVL854:
	.loc 8 691 0
	stw 11,140(31)
.LVL855:
	.loc 8 693 0
	stw 9,136(31)
.LVL856:
	.loc 8 694 0
	stw 0,144(31)
.LVL857:
.LBE5380:
.LBE5379:
.LBB5381:
.LBB5382:
	.loc 4 424 0
	stfs 28,172(30)
	.loc 4 425 0
	stfs 29,176(30)
	.loc 4 426 0
	stfs 30,180(30)
.LVL858:
.LBE5382:
.LBE5381:
.LBB5383:
.LBB5384:
.LBB5385:
	.loc 8 454 0
	lfs 12,452(30)
.LVL859:
	lfs 9,136(31)
	lfs 10,128(31)
	lfs 11,132(31)
	fmuls 10,12,10
	lfs 13,448(30)
	fmuls 11,12,11
.LBE5385:
.LBE5384:
.LBE5383:
.LBB5394:
.LBB5395:
	lfs 0,116(31)
.LBE5395:
.LBE5394:
.LBB5400:
.LBB5390:
.LBB5386:
	fmuls 12,12,9
	lfs 7,120(31)
	lfs 9,124(31)
.LBE5386:
.LBE5390:
.LBE5400:
.LBB5401:
.LBB5396:
	fmadds 10,0,13,10
.LBE5396:
.LBE5401:
.LBB5402:
.LBB5391:
.LBB5387:
	fmadds 11,13,7,11
	lfs 0,456(30)
	fmadds 13,13,9,12
.LBE5387:
.LBE5391:
.LBE5402:
.LBB5403:
.LBB5397:
	lfs 8,140(31)
.LBE5397:
.LBE5403:
.LBB5404:
.LBB5392:
.LBB5388:
	lfs 12,148(31)
	lfs 9,144(31)
.LBE5388:
.LBE5392:
.LBE5404:
.LBB5405:
.LBB5398:
	fmadds 10,8,0,10
	.loc 4 481 0
	lfs 8,104(31)
.LBE5398:
.LBE5405:
.LBB5406:
.LBB5393:
.LBB5389:
	.loc 8 454 0
	fmadds 11,0,9,11
	fmadds 0,0,12,13
.LVL860:
.LBE5389:
.LBE5393:
.LBE5406:
.LBB5407:
.LBB5399:
	.loc 4 482 0
	lfs 12,108(31)
	.loc 4 483 0
	lfs 13,112(31)
	.loc 4 481 0
	fsubs 10,8,10
	.loc 4 482 0
	fsubs 11,12,11
.LVL861:
	.loc 4 483 0
	fsubs 0,13,0
.LVL862:
	.loc 4 481 0
	stfs 10,104(31)
	.loc 4 482 0
	stfs 11,108(31)
	.loc 4 483 0
	stfs 0,112(31)
.LBE5399:
.LBE5407:
	.loc 2 103 0
	lwz 0,68(30)
	stw 0,0(31)
.LBE5410:
	.loc 2 104 0
	lwz 0,60(1)
	lwz 30,16(1)
.LVL863:
	mtlr 0
	lwz 31,20(1)
.LVL864:
	lfd 28,24(1)
.LVL865:
	lfd 29,32(1)
.LVL866:
	lfd 30,40(1)
.LVL867:
	lfd 31,48(1)
.LVL868:
	addi 1,1,56
.LCFI87:
	.cfi_def_cfa_offset 0
	.cfi_restore 63
	.cfi_restore 62
	.cfi_restore 61
	.cfi_restore 60
	.cfi_restore 31
	.cfi_restore 30
	blr
	.cfi_endproc
.LFE2813:
	.size	_ZN19idPhysics_RigidBody9IntegrateEfR17rigidBodyPState_s, .-_ZN19idPhysics_RigidBody9IntegrateEfR17rigidBodyPState_s
	.align 2
	.globl _ZN19idPhysics_RigidBody16CollisionImpulseERK7trace_sR6idVec3
	.type	_ZN19idPhysics_RigidBody16CollisionImpulseERK7trace_sR6idVec3, @function
_ZN19idPhysics_RigidBody16CollisionImpulseERK7trace_sR6idVec3:
.LFB2814:
	.loc 2 114 0
	.cfi_startproc
.LVL869:
	mflr 0
	stwu 1,-312(1)
.LCFI88:
	.cfi_def_cfa_offset 312
	.cfi_register 65, 0
	stfd 27,272(1)
.LBB5509:
	.loc 2 123 0
	addi 7,1,164
.LBE5509:
	.loc 2 114 0
	stw 0,316(1)
	stfd 28,280(1)
	stfd 29,288(1)
	stfd 30,296(1)
	stfd 31,304(1)
	stw 29,236(1)
	mr 29,5
	.cfi_offset 29, -76
	.cfi_offset 63, -8
	.cfi_offset 62, -16
	.cfi_offset 61, -24
	.cfi_offset 60, -32
	.cfi_offset 65, 4
	.cfi_offset 59, -40
	stw 30,240(1)
	mr 30,4
	.cfi_offset 30, -72
	stw 31,244(1)
	mr 31,3
	.cfi_offset 31, -68
	stfd 24,248(1)
.LBB5718:
	.loc 2 123 0
	addi 6,30,56
.LBE5718:
	.loc 2 114 0
	stfd 25,256(1)
	stfd 26,264(1)
.LBB5719:
	.loc 2 122 0
	lwz 9,100(4)
	.loc 2 123 0
	lwz 5,104(30)
.LVL870:
	.loc 2 122 0
	addi 0,9,132
	lis 9,gameLocal@ha
	slwi 0,0,2
	la 9,gameLocal@l(9)
	add 9,9,0
	.loc 2 123 0
	lwz 4,4(31)
.LVL871:
	.loc 2 122 0
	lwz 9,4(9)
.LVL872:
	.loc 2 123 0
	lwz 11,0(9)
	mr 3,9
.LVL873:
	lwz 0,128(11)
	mtctr 0
	.cfi_offset 58, -48
	.cfi_offset 57, -56
	.cfi_offset 56, -64
	bctrl
.LVL874:
.LBB5510:
.LBB5511:
.LBB5512:
	.loc 8 454 0
	lfs 0,452(31)
	lfs 10,196(31)
.LBE5512:
.LBE5511:
.LBE5510:
	.loc 2 129 0
	addi 8,1,92
.LBB5525:
.LBB5519:
.LBB5513:
	.loc 8 454 0
	lfs 31,200(31)
.LBE5513:
.LBE5519:
.LBE5525:
	.loc 2 114 0
	addi 0,1,56
.LBB5526:
.LBB5520:
.LBB5514:
	.loc 8 454 0
	lfs 12,204(31)
	fmuls 8,10,0
	fmuls 6,0,31
	lfs 9,184(31)
	fmuls 7,0,12
	lfs 30,188(31)
	lfs 0,448(31)
.LBE5514:
.LBE5520:
.LBE5526:
	.loc 2 114 0
	mr 6,8
.LBB5527:
.LBB5521:
.LBB5515:
	.loc 8 454 0
	lfs 2,192(31)
.LBE5515:
.LBE5521:
.LBE5527:
.LBE5719:
	.loc 8 465 0
	mr 10,0
.LBB5720:
.LBB5528:
.LBB5529:
	.loc 8 454 0
	fmadds 8,9,0,8
.LBE5529:
.LBE5528:
.LBB5536:
.LBB5522:
.LBB5516:
	lfs 11,208(31)
.LBE5516:
.LBE5522:
.LBE5536:
.LBB5537:
.LBB5530:
	fmadds 7,0,2,7
.LBE5530:
.LBE5537:
.LBB5538:
.LBB5523:
.LBB5517:
	lfs 1,212(31)
.LBE5517:
.LBE5523:
.LBE5538:
.LBB5539:
.LBB5531:
	fmadds 6,0,30,6
.LBE5531:
.LBE5539:
.LBB5540:
.LBB5524:
.LBB5518:
	lfs 13,216(31)
.LVL875:
	lfs 0,456(31)
.LVL876:
	addi 7,31,492
.LBE5518:
.LBE5524:
.LBE5540:
.LBB5541:
.LBB5532:
	.loc 4 452 0
	lfs 4,172(31)
	.loc 8 454 0
	fmadds 8,11,0,8
	.loc 4 452 0
	lfs 5,176(31)
	.loc 8 454 0
	fmadds 6,0,1,6
.LBE5532:
.LBE5541:
.LBB5542:
.LBB5543:
	.loc 4 431 0
	lfs 27,56(30)
.LBE5543:
.LBE5542:
.LBB5548:
.LBB5533:
	.loc 8 454 0
	fmadds 0,0,13,7
	.loc 4 452 0
	lfs 7,180(31)
	fadds 8,8,4
.LBE5533:
.LBE5548:
.LBB5549:
.LBB5544:
	.loc 4 431 0
	lfs 28,60(30)
.LBE5544:
.LBE5549:
.LBB5550:
.LBB5534:
	.loc 4 452 0
	fadds 6,6,5
.LBE5534:
.LBE5550:
.LBB5551:
.LBB5552:
	.loc 4 448 0
	lfs 3,220(31)
.LBE5552:
.LBE5551:
.LBB5558:
.LBB5535:
	.loc 4 452 0
	fadds 0,0,7
.LBE5535:
.LBE5558:
	.loc 2 128 0
	lfs 5,444(31)
.LBB5559:
.LBB5545:
	.loc 4 431 0
	lfs 7,64(30)
	fsubs 8,27,8
.LBE5545:
.LBE5559:
.LBB5560:
.LBB5553:
	.loc 4 448 0
	lfs 29,224(31)
.LBE5553:
.LBE5560:
.LBB5561:
.LBB5546:
	.loc 4 431 0
	fsubs 6,28,6
.LBE5546:
.LBE5561:
.LBB5562:
.LBB5554:
	.loc 4 448 0
	lfs 4,228(31)
.LBE5554:
.LBE5562:
.LBB5563:
.LBB5547:
	.loc 4 431 0
	fsubs 7,7,0
.LVL877:
.LBE5547:
.LBE5563:
.LBB5564:
.LBB5555:
	.loc 4 448 0
	fmuls 3,5,3
.LBE5555:
.LBE5564:
.LBB5565:
.LBB5566:
.LBB5567:
	.loc 8 425 0
	stfs 9,92(1)
.LBE5567:
.LBE5566:
.LBE5565:
.LBB5572:
.LBB5556:
	.loc 4 448 0
	fmuls 29,5,29
.LBE5556:
.LBE5572:
.LBB5573:
.LBB5570:
.LBB5568:
	.loc 8 425 0
	stfs 10,96(1)
.LBE5568:
.LBE5570:
.LBE5573:
.LBB5574:
.LBB5557:
	.loc 4 448 0
	fmuls 4,5,4
.LVL878:
.LBE5557:
.LBE5574:
.LBB5575:
.LBB5571:
.LBB5569:
	.loc 8 425 0
	stfs 11,100(1)
	.loc 8 426 0
	stfs 30,104(1)
	stfs 31,108(1)
	stfs 1,112(1)
	.loc 8 427 0
	stfs 2,116(1)
	stfs 12,120(1)
	stfs 13,124(1)
.LVL879:
.L247:
.LBE5569:
.LBE5571:
.LBE5575:
.LBB5576:
.LBB5577:
	.loc 2 114 0
	mr 9,7
.LBE5577:
.LBE5576:
.LBE5720:
	li 11,0
.LVL880:
.L248:
.LBB5721:
	addi 9,9,4
.LBB5579:
.LBB5578:
	.loc 8 468 0
	cmpwi 7,11,8
	.loc 8 471 0
	lfs 0,12(9)
	lfs 12,0(9)
	fmuls 0,10,0
	lfs 13,24(9)
	fmadds 0,12,9,0
	fmadds 0,13,11,0
	stfsx 0,10,11
	.loc 8 468 0
	addi 11,11,4
	bne+ 7,.L248
	addi 10,10,12
.LVL881:
	.loc 8 467 0
	cmpw 7,10,6
	beq- 7,.L249
	.loc 2 114 0
	lfs 9,12(8)
	lfs 10,16(8)
	lfs 11,20(8)
	addi 8,8,12
	b .L247
.L249:
.LVL882:
.LBE5578:
.LBE5579:
.LBE5721:
	.loc 2 129 0
	mr 8,0
	.loc 8 465 0
	addi 10,1,20
.LVL883:
	addi 7,31,180
.LVL884:
.L250:
.LBB5722:
.LBB5580:
.LBB5581:
	.loc 8 467 0
	lfs 9,0(8)
	.loc 2 114 0
	mr 9,7
	.loc 8 467 0
	lfs 10,4(8)
.LBE5581:
.LBE5580:
.LBE5722:
	.loc 2 114 0
	li 11,0
.LBB5723:
.LBB5584:
.LBB5582:
	.loc 8 467 0
	lfs 11,8(8)
.LVL885:
.L251:
.LBE5582:
.LBE5584:
	.loc 2 114 0
	addi 9,9,4
.LBB5585:
.LBB5583:
	.loc 8 468 0
	cmpwi 7,11,8
	.loc 8 471 0
	lfs 0,12(9)
	lfs 12,0(9)
	fmuls 0,10,0
	lfs 13,24(9)
	fmadds 0,9,12,0
	fmadds 0,13,11,0
	stfsx 0,10,11
	.loc 8 468 0
	addi 11,11,4
	bne+ 7,.L251
	addi 10,10,12
	.loc 8 474 0
	addi 8,8,12
.LVL886:
	.loc 8 467 0
	cmpw 7,10,0
	bne+ 7,.L250
	li 10,0
.LVL887:
.L252:
.LBE5583:
.LBE5585:
.LBB5586:
.LBB5587:
.LBB5588:
.LBB5589:
	.loc 4 424 0
	addi 11,1,20
.LBE5589:
.LBE5588:
	.loc 8 333 0
	cmpwi 7,10,24
.LBB5592:
.LBB5590:
	.loc 4 424 0
	lwzux 0,11,10
	addi 9,1,128
	stwux 0,9,10
.LBE5590:
.LBE5592:
	.loc 8 333 0
	addi 10,10,12
.LBB5593:
.LBB5591:
	.loc 4 425 0
	lwz 8,4(11)
	.loc 4 426 0
	lwz 0,8(11)
	.loc 4 425 0
	stw 8,4(9)
	.loc 4 426 0
	stw 0,8(9)
.LBE5591:
.LBE5593:
	.loc 8 333 0
	bne+ 7,.L252
.LVL888:
.LBE5587:
.LBE5586:
.LBB5594:
.LBB5595:
	.loc 8 454 0
	lfs 12,236(31)
.LBE5595:
.LBE5594:
	.loc 2 138 0
	lis 9,.LC15@ha
.LBB5598:
.LBB5596:
	.loc 8 454 0
	lfs 24,140(1)
	lfs 25,148(1)
	fmuls 11,24,12
	lfs 13,232(31)
	fmuls 10,12,25
	lfs 27,128(1)
	lfs 26,144(1)
	lfs 28,136(1)
	fmadds 11,27,13,11
	lfs 0,240(31)
	fmuls 12,12,26
	fmadds 10,13,28,10
	lfs 31,152(1)
	lfs 30,132(1)
	lfs 1,160(1)
	fmadds 11,31,0,11
	fmadds 13,13,30,12
	lfs 2,156(1)
	fmadds 10,0,1,10
.LVL889:
.LBE5596:
.LBE5598:
.LBB5599:
.LBB5600:
	.loc 4 620 0
	fmuls 12,7,11
.LBE5600:
.LBE5599:
.LBB5603:
.LBB5597:
	.loc 8 454 0
	fmadds 0,0,2,13
.LVL890:
.LBE5597:
.LBE5603:
.LBB5604:
.LBB5601:
	.loc 4 620 0
	fmuls 9,6,10
.LBE5601:
.LBE5604:
.LBB5605:
.LBB5606:
	fmsubs 10,8,10,12
.LVL891:
.LBE5606:
.LBE5605:
.LBB5611:
.LBB5612:
	.loc 4 435 0
	lfs 12,68(30)
.LBE5612:
.LBE5611:
.LBB5618:
.LBB5607:
	.loc 4 620 0
	fmsubs 13,7,0,9
.LVL892:
	.loc 4 452 0
	fadds 29,29,10
.LVL893:
.LBE5607:
.LBE5618:
.LBB5619:
.LBB5620:
	.loc 4 483 0
	lfs 10,224(1)
.LVL894:
.LBE5620:
.LBE5619:
.LBB5626:
.LBB5602:
	.loc 4 620 0
	fmuls 0,8,0
.LVL895:
.LBE5602:
.LBE5626:
.LBB5627:
.LBB5608:
	.loc 4 452 0
	fadds 3,3,13
.LVL896:
.LBE5608:
.LBE5627:
.LBB5628:
.LBB5621:
	.loc 4 482 0
	lfs 13,220(1)
.LVL897:
.LBE5621:
.LBE5628:
.LBB5629:
.LBB5609:
	.loc 4 620 0
	fmsubs 11,6,11,0
.LVL898:
.LBE5609:
.LBE5629:
.LBB5630:
.LBB5622:
	.loc 4 481 0
	lfs 0,216(1)
	.loc 4 482 0
	fsubs 29,29,13
.LVL899:
.LBE5622:
.LBE5630:
.LBB5631:
.LBB5613:
	.loc 4 435 0
	lfs 13,72(30)
.LBE5613:
.LBE5631:
.LBB5632:
.LBB5623:
	.loc 4 481 0
	fsubs 3,3,0
.LVL900:
.LBE5623:
.LBE5632:
.LBB5633:
.LBB5614:
	.loc 4 435 0
	lfs 0,76(30)
.LBE5614:
.LBE5633:
.LBB5634:
.LBB5610:
	.loc 4 452 0
	fadds 4,4,11
.LVL901:
.LBE5610:
.LBE5634:
.LBB5635:
.LBB5615:
	.loc 4 435 0
	fmuls 11,29,13
.LVL902:
.LBE5615:
.LBE5635:
.LBB5636:
.LBB5624:
	.loc 4 482 0
	stfs 29,12(1)
	.loc 4 481 0
	stfs 3,8(1)
	.loc 4 483 0
	fsubs 4,4,10
.LVL903:
.LBE5624:
.LBE5636:
	.loc 2 138 0
	lfs 10,.LC15@l(9)
.LBB5637:
.LBB5616:
	.loc 4 435 0
	fmadds 11,3,12,11
.LBE5616:
.LBE5637:
.LBB5638:
.LBB5625:
	.loc 4 483 0
	stfs 4,16(1)
.LVL904:
.LBE5625:
.LBE5638:
.LBB5639:
.LBB5617:
	.loc 4 435 0
	fmadds 11,4,0,11
.LBE5617:
.LBE5639:
	.loc 2 138 0
	fcmpu 7,11,10
	bgt- 7,.L258
	.loc 2 142 0
	lis 9,.LC4@ha
	lfs 29,432(31)
	lfs 10,.LC4@l(9)
	fadds 29,29,10
	fneg 29,29
	fmuls 29,29,11
.LVL905:
.L253:
.LBB5640:
.LBB5641:
	.loc 4 620 0
	fmuls 9,8,0
.LBE5641:
.LBE5640:
	.loc 2 145 0
	lis 9,.LC5@ha
.LBB5643:
.LBB5642:
	.loc 4 620 0
	fmuls 10,7,13
	fmuls 11,6,12
.LBE5642:
.LBE5643:
	fmsubs 9,7,12,9
	fmsubs 10,6,0,10
	fmsubs 11,8,13,11
.LVL906:
.LBB5644:
.LBB5645:
	.loc 8 454 0
	fmuls 4,9,24
	fmuls 3,9,25
	fmuls 9,9,26
.LVL907:
.LBE5645:
.LBE5644:
	fmadds 4,10,27,4
	fmadds 3,10,28,3
	fmadds 10,10,30,9
.LVL908:
	fmadds 4,11,31,4
	fmadds 3,11,1,3
.LVL909:
	fmadds 11,11,2,10
.LVL910:
.LBB5646:
.LBB5647:
	.loc 4 620 0
	fmuls 2,7,4
	fmuls 9,6,3
	fmuls 10,8,11
.LBE5647:
.LBE5646:
.LBB5648:
.LBB5649:
	fmsubs 3,8,3,2
.LVL911:
.LBE5649:
.LBE5648:
	fmsubs 11,7,11,9
.LVL912:
	.loc 2 145 0
	lfs 9,164(1)
	.loc 4 620 0
	fmsubs 4,6,4,10
.LVL913:
	.loc 2 145 0
	lfs 10,.LC5@l(9)
.LBB5651:
.LBB5650:
	.loc 4 435 0
	fmuls 3,13,3
.LVL914:
.LBE5650:
.LBE5651:
	.loc 2 145 0
	fcmpu 7,9,10
	.loc 4 435 0
	fmadds 3,12,11,3
	fmadds 4,0,4,3
.LVL915:
	.loc 2 144 0
	fadds 5,5,4
.LVL916:
	.loc 2 145 0
	beq- 7,.L254
.LVL917:
.LBB5652:
.LBB5653:
	.loc 4 620 0
	lfs 4,204(1)
	lfs 3,212(1)
	fmuls 1,0,4
	lfs 10,208(1)
	fmuls 2,13,3
.LBE5653:
.LBE5652:
.LBB5659:
.LBB5660:
	.loc 8 454 0
	lfs 31,180(1)
.LBE5660:
.LBE5659:
.LBB5664:
.LBB5654:
	.loc 4 620 0
	fmuls 11,12,10
.LVL918:
	.loc 8 454 0
	lfs 30,168(1)
	.loc 4 620 0
	fmsubs 1,12,3,1
	.loc 8 454 0
	lfs 28,192(1)
	.loc 4 620 0
	fmsubs 2,0,10,2
	fmsubs 11,13,4,11
.LVL919:
.LBE5654:
.LBE5664:
.LBB5665:
.LBB5661:
	.loc 8 454 0
	fmuls 31,1,31
.LBE5661:
.LBE5665:
.LBB5666:
.LBB5655:
	fmadds 31,2,30,31
.LBE5655:
.LBE5666:
.LBB5667:
.LBB5662:
	lfs 30,188(1)
	fmuls 30,1,30
.LBE5662:
.LBE5667:
.LBB5668:
.LBB5656:
	fmadds 31,11,28,31
.LBE5656:
.LBE5668:
.LBB5669:
.LBB5663:
	lfs 28,184(1)
	fmuls 1,1,28
.LVL920:
.LBE5663:
.LBE5669:
.LBB5670:
.LBB5657:
	lfs 28,176(1)
.LBE5657:
.LBE5670:
.LBB5671:
.LBB5672:
	.loc 4 620 0
	fmuls 27,3,31
.LBE5672:
.LBE5671:
.LBB5675:
.LBB5658:
	.loc 8 454 0
	fmadds 30,2,28,30
	lfs 28,172(1)
	fmadds 2,2,28,1
.LVL921:
	lfs 1,200(1)
	fmadds 30,11,1,30
.LVL922:
	lfs 1,196(1)
	fmadds 11,11,1,2
.LVL923:
.LBE5658:
.LBE5675:
.LBB5676:
.LBB5673:
	.loc 4 620 0
	fmuls 28,10,30
.LBE5673:
.LBE5676:
.LBB5677:
.LBB5678:
	fmsubs 30,4,30,27
.LVL924:
.LBE5678:
.LBE5677:
	fmsubs 3,3,11,28
.LVL925:
.LBB5680:
.LBB5679:
	.loc 4 435 0
	fmuls 30,13,30
.LVL926:
.LBE5679:
.LBE5680:
.LBB5681:
.LBB5674:
	.loc 4 620 0
	fmuls 11,4,11
.LVL927:
.LBE5674:
.LBE5681:
	.loc 4 435 0
	fmadds 3,12,3,30
.LVL928:
	.loc 4 620 0
	fmsubs 10,10,31,11
.LVL929:
	.loc 4 435 0
	fmadds 10,0,10,3
.LVL930:
	.loc 2 146 0
	fadds 9,9,10
	fadds 5,5,9
.LVL931:
.L254:
	.loc 2 148 0
	fdivs 5,29,5
.LVL932:
	.loc 2 155 0
	lis 9,.LC16@ha
.LBB5682:
.LBB5683:
	.loc 4 448 0
	fmuls 12,5,12
.LVL933:
	fmuls 13,5,13
	fmuls 0,5,0
.LBE5683:
.LBE5682:
.LBB5684:
.LBB5685:
	.loc 4 424 0
	stfs 12,0(29)
	.loc 4 425 0
	stfs 13,4(29)
	.loc 4 426 0
	stfs 0,8(29)
.LVL934:
.LBE5685:
.LBE5684:
.LBB5686:
.LBB5687:
	.loc 4 456 0
	lfs 0,220(31)
	.loc 4 457 0
	lfs 5,224(31)
.LVL935:
	.loc 4 456 0
	fadds 12,12,0
.LVL936:
	.loc 4 458 0
	lfs 9,228(31)
.LBE5687:
.LBE5686:
.LBB5690:
.LBB5691:
	lfs 0,240(31)
	.loc 4 456 0
	lfs 3,232(31)
.LBE5691:
.LBE5690:
.LBB5695:
.LBB5688:
	stfs 12,220(31)
.LBE5688:
.LBE5695:
.LBB5696:
.LBB5692:
	.loc 4 457 0
	lfs 4,236(31)
.LBE5692:
.LBE5696:
.LBB5697:
.LBB5689:
	lfs 13,4(29)
.LVL937:
	fadds 5,5,13
	stfs 5,224(31)
	.loc 4 458 0
	lfs 13,8(29)
	fadds 9,9,13
	stfs 9,228(31)
.LVL938:
.LBE5689:
.LBE5697:
.LBB5698:
.LBB5699:
	.loc 4 620 0
	lfs 10,8(29)
	lfs 13,4(29)
	lfs 11,0(29)
.LVL939:
	fmuls 1,8,10
	fmuls 31,7,13
	fmuls 2,6,11
.LBE5699:
.LBE5698:
.LBB5700:
.LBB5693:
	fmsubs 11,7,11,1
	fmsubs 10,6,10,31
	fmsubs 13,8,13,2
	.loc 4 457 0
	fadds 11,11,4
	.loc 4 456 0
	fadds 10,10,3
	.loc 4 458 0
	fadds 13,13,0
.LBE5693:
.LBE5700:
	.loc 2 155 0
	lfs 0,.LC16@l(9)
.LBB5701:
.LBB5694:
	.loc 4 457 0
	stfs 11,236(31)
	.loc 4 456 0
	stfs 10,232(31)
	.loc 4 458 0
	stfs 13,240(31)
.LBE5694:
.LBE5701:
	.loc 2 155 0
	lfs 8,0(30)
.LVL940:
	fcmpu 7,8,0
	bnl- 7,.L255
.LVL941:
.LBB5702:
.LBB5703:
	.loc 4 489 0
	lis 9,.LC6@ha
	lfs 0,.LC6@l(9)
	fmuls 12,12,0
	.loc 4 490 0
	fmuls 5,5,0
	.loc 4 491 0
	fmuls 9,9,0
.LBE5703:
.LBE5702:
.LBB5707:
.LBB5708:
	.loc 4 489 0
	fmuls 10,10,0
.LBE5708:
.LBE5707:
.LBB5712:
.LBB5704:
	stfs 12,220(31)
.LBE5704:
.LBE5712:
.LBB5713:
.LBB5709:
	.loc 4 490 0
	fmuls 11,11,0
.LBE5709:
.LBE5713:
.LBB5714:
.LBB5705:
	stfs 5,224(31)
.LBE5705:
.LBE5714:
.LBB5715:
.LBB5710:
	.loc 4 491 0
	fmuls 0,13,0
.LBE5710:
.LBE5715:
.LBB5716:
.LBB5706:
	stfs 9,228(31)
.LVL942:
.LBE5706:
.LBE5716:
.LBB5717:
.LBB5711:
	.loc 4 489 0
	stfs 10,232(31)
	.loc 4 490 0
	stfs 11,236(31)
	.loc 4 491 0
	stfs 0,240(31)
.LVL943:
.L255:
.LBE5711:
.LBE5717:
	.loc 2 161 0
	lwz 3,4(31)
	mr 4,30
	addi 5,1,8
	lwz 9,0(3)
	lwz 0,124(9)
	mtctr 0
	bctrl
.LVL944:
.LBE5723:
	.loc 2 162 0
	lwz 0,316(1)
	lwz 29,236(1)
.LVL945:
	mtlr 0
	lwz 30,240(1)
.LVL946:
	lwz 31,244(1)
.LVL947:
	lfd 24,248(1)
	lfd 25,256(1)
	lfd 26,264(1)
	lfd 27,272(1)
	lfd 28,280(1)
	lfd 29,288(1)
.LVL948:
	lfd 30,296(1)
	lfd 31,304(1)
	addi 1,1,312
	.cfi_remember_state
.LCFI89:
	.cfi_def_cfa_offset 0
	.cfi_restore 63
	.cfi_restore 62
	.cfi_restore 61
	.cfi_restore 60
	.cfi_restore 59
	.cfi_restore 58
	.cfi_restore 57
	.cfi_restore 56
	.cfi_restore 31
	.cfi_restore 30
	.cfi_restore 29
	blr
.LVL949:
.L258:
.LCFI90:
	.cfi_restore_state
.LBB5724:
	.loc 2 139 0
	lis 9,.LC13@ha
	lfs 29,.LC13@l(9)
	b .L253
.LBE5724:
	.cfi_endproc
.LFE2814:
	.size	_ZN19idPhysics_RigidBody16CollisionImpulseERK7trace_sR6idVec3, .-_ZN19idPhysics_RigidBody16CollisionImpulseERK7trace_sR6idVec3
	.align 2
	.globl _ZN19idPhysics_RigidBody18CheckForCollisionsEfR17rigidBodyPState_sR7trace_s
	.type	_ZN19idPhysics_RigidBody18CheckForCollisionsEfR17rigidBodyPState_sR7trace_s, @function
_ZN19idPhysics_RigidBody18CheckForCollisionsEfR17rigidBodyPState_sR7trace_s:
.LFB2818:
	.loc 2 172 0
	.cfi_startproc
.LVL950:
	mflr 0
	stwu 1,-224(1)
.LCFI91:
	.cfi_def_cfa_offset 224
	.cfi_register 65, 0
	stfd 31,216(1)
	stw 0,228(1)
	stw 29,204(1)
	mr 29,5
	.cfi_offset 29, -20
	.cfi_offset 65, 4
	.cfi_offset 63, -8
	stw 30,208(1)
	mr 30,4
	.cfi_offset 30, -16
	stw 31,212(1)
	mr 31,3
	.cfi_offset 31, -12
.LVL951:
	stw 27,196(1)
	stw 28,200(1)
.LBB5725:
.LBB5726:
.LBB5727:
	.loc 8 730 0
	lfs 9,196(3)
	lfs 11,128(4)
	.loc 8 731 0
	lfs 12,132(4)
	.loc 8 732 0
	lfs 8,136(4)
	.loc 8 730 0
	fmuls 4,9,11
	.loc 8 733 0
	lfs 10,200(3)
	.loc 8 731 0
	fmuls 5,9,12
	.loc 8 736 0
	lfs 0,204(3)
	.loc 8 732 0
	fmuls 31,9,8
	.loc 8 733 0
	fmuls 6,11,10
	.loc 8 730 0
	lfs 9,184(3)
.LVL952:
	.loc 8 738 0
	fmuls 13,8,0
	.loc 8 734 0
	fmuls 7,12,10
	.loc 8 735 0
	fmuls 1,8,10
.LVL953:
	.loc 8 733 0
	lfs 10,188(3)
	.loc 8 736 0
	fmuls 2,11,0
	lfs 8,192(3)
	.loc 8 737 0
	fmuls 3,12,0
	.loc 8 730 0
	lfs 11,116(4)
.LVL954:
	.loc 8 731 0
	lfs 12,120(4)
	.loc 8 732 0
	lfs 0,124(4)
	.loc 8 736 0
	fmadds 2,11,8,2
	.loc 8 737 0
	fmadds 3,12,8,3
	.loc 8 735 0
	fmadds 1,0,10,1
	.loc 8 738 0
	fmadds 8,0,8,13
	.loc 8 732 0
	lfs 13,148(4)
	.loc 8 730 0
	fmadds 4,9,11,4
	.loc 8 731 0
	fmadds 5,9,12,5
	.loc 8 732 0
	fmadds 31,9,0,31
	.loc 8 730 0
	lfs 9,208(3)
.LVL955:
	.loc 8 733 0
	fmadds 6,11,10,6
	.loc 8 736 0
	lfs 0,216(3)
	.loc 8 734 0
	fmadds 7,12,10,7
	.loc 8 730 0
	lfs 11,140(4)
	.loc 8 731 0
	lfs 12,144(4)
.LBE5727:
.LBE5726:
	.loc 2 186 0
	addi 4,1,16
.LVL956:
.LBB5730:
.LBB5728:
	.loc 8 733 0
	lfs 10,212(3)
	.loc 8 730 0
	fmadds 4,9,11,4
	.loc 8 731 0
	fmadds 5,9,12,5
.LBE5728:
.LBE5730:
	.loc 2 186 0
	addi 3,1,52
.LVL957:
.LBB5731:
.LBB5729:
	.loc 8 733 0
	fmadds 6,11,10,6
	.loc 8 734 0
	fmadds 7,12,10,7
	.loc 8 730 0
	stfs 4,16(1)
.LVL958:
	.loc 8 736 0
	fmadds 11,11,0,2
	.loc 8 731 0
	stfs 5,20(1)
.LVL959:
	.loc 8 737 0
	fmadds 12,12,0,3
	.loc 8 733 0
	stfs 6,28(1)
	.loc 8 732 0
	fmadds 9,9,13,31
	.loc 8 734 0
	stfs 7,32(1)
	.loc 8 735 0
	fmadds 10,13,10,1
	.loc 8 736 0
	stfs 11,40(1)
	.loc 8 738 0
	fmadds 0,13,0,8
	.loc 8 732 0
	stfs 9,24(1)
.LVL960:
	.loc 8 735 0
	stfs 10,36(1)
.LVL961:
	.loc 8 737 0
	stfs 12,44(1)
.LVL962:
	.loc 8 738 0
	stfs 0,48(1)
.LBE5729:
.LBE5731:
	.loc 2 186 0
	.cfi_offset 28, -24
	.cfi_offset 27, -28
	bl _ZNK6idMat310ToRotationEv
.LVL963:
.LBB5732:
.LBB5733:
.LBB5734:
.LBB5735:
	.loc 4 424 0
	lwz 0,52(1)
.LBE5735:
.LBE5734:
	.loc 11 46 0
	addi 9,1,80
	addi 11,1,148
	.loc 2 172 0
	addi 7,1,116
.LBB5737:
.LBB5736:
	.loc 4 424 0
	stw 0,120(1)
	.loc 4 425 0
	lwz 0,56(1)
	stw 0,124(1)
	.loc 4 426 0
	lwz 0,60(1)
	stw 0,128(1)
.LVL964:
.LBE5736:
.LBE5737:
.LBB5738:
.LBB5739:
	.loc 4 424 0
	lwz 0,64(1)
	stw 0,132(1)
	.loc 4 425 0
	lwz 0,68(1)
	stw 0,136(1)
	.loc 4 426 0
	lwz 0,72(1)
	stw 0,140(1)
.LBE5739:
.LBE5738:
	.loc 11 46 0
	lwz 0,76(1)
	stw 0,144(1)
.LVL965:
.L264:
.LBB5740:
.LBB5741:
.LBB5742:
.LBB5743:
	.loc 4 424 0
	lwz 8,0(9)
	.loc 4 425 0
	lwz 10,4(9)
	.loc 4 426 0
	lwz 0,8(9)
	addi 9,9,12
.LBE5743:
.LBE5742:
	.loc 8 333 0
	cmpw 7,9,7
.LBB5745:
.LBB5744:
	.loc 4 424 0
	stw 8,0(11)
	.loc 4 425 0
	stw 10,4(11)
	.loc 4 426 0
	stw 0,8(11)
	addi 11,11,12
.LBE5744:
.LBE5745:
	.loc 8 333 0
	bne+ 7,.L264
.LBE5741:
.LBE5740:
.LBE5733:
.LBE5732:
.LBB5748:
.LBB5749:
.LBB5750:
	.loc 4 424 0
	lwz 28,172(31)
.LBE5750:
.LBE5749:
.LBE5748:
	.loc 2 190 0
	lis 3,gameLocal+2311032@ha
.LBB5759:
.LBB5755:
.LBB5751:
	.loc 4 425 0
	lwz 12,176(31)
.LBE5751:
.LBE5755:
.LBE5759:
	.loc 2 190 0
	la 3,gameLocal+2311032@l(3)
.LBB5760:
.LBB5756:
.LBB5752:
	.loc 4 426 0
	lwz 11,180(31)
.LBE5752:
.LBE5756:
.LBE5760:
	.loc 2 190 0
	mr 4,29
	lwz 8,436(31)
	addi 5,31,172
	lwz 10,8(31)
	addi 6,30,104
	lwz 0,4(31)
	addi 7,1,120
.LBB5761:
.LBB5746:
	.loc 11 46 0
	lbz 27,116(1)
.LBE5746:
.LBE5761:
	.loc 2 190 0
	addi 9,31,184
.LBB5762:
.LBB5757:
.LBB5753:
	.loc 4 424 0
	stw 28,120(1)
.LBE5753:
.LBE5757:
.LBE5762:
.LBB5763:
.LBB5747:
	.loc 11 46 0
	stb 27,184(1)
.LVL966:
.LBE5747:
.LBE5763:
.LBB5764:
.LBB5758:
.LBB5754:
	.loc 4 425 0
	stw 12,124(1)
	.loc 4 426 0
	stw 11,128(1)
.LBE5754:
.LBE5758:
.LBE5764:
	.loc 2 190 0
	stw 0,8(1)
	bl _ZN6idClip6MotionER7trace_sRK6idVec3S4_RK10idRotationPK11idClipModelRK6idMat3iPK8idEntity
	cmpwi 7,3,0
	.loc 2 176 0
	li 3,0
	.loc 2 190 0
	beq- 7,.L265
.LVL967:
.LBB5765:
.LBB5766:
	.loc 4 424 0
	lwz 0,4(29)
.LBE5766:
.LBE5765:
.LBB5768:
.LBB5769:
	.loc 8 333 0
	addi 7,30,116
	addi 8,29,16
	li 10,0
.LBE5769:
.LBE5768:
.LBB5777:
.LBB5767:
	.loc 4 424 0
	stw 0,104(30)
	.loc 4 425 0
	lwz 0,8(29)
	stw 0,108(30)
	.loc 4 426 0
	lwz 0,12(29)
	stw 0,112(30)
.LVL968:
.L266:
.LBE5767:
.LBE5777:
.LBB5778:
.LBB5776:
.LBB5770:
.LBB5771:
	.loc 4 424 0
	mr 11,8
	mr 9,7
	lwzux 0,11,10
.LBE5771:
.LBE5770:
	.loc 8 333 0
	cmpwi 7,10,24
.LBB5774:
.LBB5772:
	.loc 4 424 0
	stwux 0,9,10
.LBE5772:
.LBE5774:
	.loc 8 333 0
	addi 10,10,12
.LBB5775:
.LBB5773:
	.loc 4 425 0
	lwz 0,4(11)
	stw 0,4(9)
	.loc 4 426 0
	lwz 0,8(11)
	stw 0,8(9)
.LBE5773:
.LBE5775:
	.loc 8 333 0
	bne+ 7,.L266
.LVL969:
.LBE5776:
.LBE5778:
.LBB5779:
.LBB5780:
	.loc 4 424 0
	lwz 0,220(31)
.LBE5780:
.LBE5779:
.LBB5782:
.LBB5783:
	.loc 2 196 0
	li 3,1
.LBE5783:
.LBE5782:
.LBB5785:
.LBB5781:
	.loc 4 424 0
	stw 0,152(30)
	.loc 4 425 0
	lwz 0,224(31)
	stw 0,156(30)
	.loc 4 426 0
	lwz 0,228(31)
	stw 0,160(30)
.LVL970:
.LBE5781:
.LBE5785:
.LBB5786:
.LBB5784:
	.loc 4 424 0
	lwz 0,232(31)
	stw 0,164(30)
	.loc 4 425 0
	lwz 0,236(31)
	stw 0,168(30)
	.loc 4 426 0
	lwz 0,240(31)
	stw 0,172(30)
.LVL971:
.L265:
.LBE5784:
.LBE5786:
.LBE5725:
	.loc 2 207 0
	lwz 0,228(1)
	lwz 27,196(1)
	mtlr 0
	lwz 28,200(1)
	lwz 29,204(1)
.LVL972:
	lwz 30,208(1)
.LVL973:
	lwz 31,212(1)
.LVL974:
	lfd 31,216(1)
	addi 1,1,224
.LCFI92:
	.cfi_def_cfa_offset 0
	.cfi_restore 63
	.cfi_restore 31
	.cfi_restore 30
	.cfi_restore 29
	.cfi_restore 28
	.cfi_restore 27
	blr
	.cfi_endproc
.LFE2818:
	.size	_ZN19idPhysics_RigidBody18CheckForCollisionsEfR17rigidBodyPState_sR7trace_s, .-_ZN19idPhysics_RigidBody18CheckForCollisionsEfR17rigidBodyPState_sR7trace_s
	.align 2
	.globl _ZN19idPhysics_RigidBody15ContactFrictionEf
	.type	_ZN19idPhysics_RigidBody15ContactFrictionEf, @function
_ZN19idPhysics_RigidBody15ContactFrictionEf:
.LFB2820:
	.loc 2 217 0
	.cfi_startproc
.LVL975:
	stwu 1,-320(1)
.LCFI93:
	.cfi_def_cfa_offset 320
.LBB5917:
.LBB5918:
.LBB5919:
.LBB5920:
	.loc 4 402 0
	lwz 6,200(3)
.LBE5920:
.LBE5919:
.LBB5921:
.LBB5922:
	lfs 12,184(3)
.LVL976:
.LBE5922:
.LBE5921:
.LBE5918:
	.loc 2 224 0
	addi 10,1,80
.LBB5943:
.LBB5923:
.LBB5924:
	.loc 4 402 0
	lfs 13,196(3)
.LVL977:
.LBE5924:
.LBE5923:
.LBE5943:
	.loc 2 217 0
	addi 0,1,44
.LBB5944:
.LBB5925:
.LBB5926:
	.loc 4 402 0
	lfs 0,208(3)
.LVL978:
.LBE5926:
.LBE5925:
.LBB5927:
.LBB5928:
	lwz 5,188(3)
.LVL979:
.LBE5928:
.LBE5927:
.LBB5929:
.LBB5930:
	lwz 7,212(3)
.LVL980:
.LBE5930:
.LBE5929:
.LBB5931:
.LBB5932:
	lwz 11,204(3)
.LBE5932:
.LBE5931:
.LBB5933:
.LBB5934:
	lwz 9,216(3)
.LBE5934:
.LBE5933:
.LBB5935:
.LBB5936:
	lwz 8,192(3)
.LVL981:
.LBE5936:
.LBE5935:
.LBB5937:
.LBB5938:
	.loc 8 426 0
	stw 6,96(1)
.LBE5938:
.LBE5937:
.LBE5944:
	.loc 2 224 0
	addi 6,3,496
.LBE5917:
	.loc 2 217 0
	stfd 14,176(1)
	stfd 15,184(1)
	stfd 16,192(1)
	stfd 17,200(1)
	stfd 18,208(1)
	stfd 19,216(1)
	stfd 20,224(1)
	stfd 21,232(1)
	stfd 22,240(1)
	stfd 23,248(1)
	stfd 24,256(1)
	stfd 25,264(1)
	stfd 26,272(1)
	stfd 27,280(1)
	stfd 28,288(1)
	stfd 29,296(1)
	stfd 30,304(1)
	stfd 31,312(1)
.LBB6182:
.LBB5945:
.LBB5941:
.LBB5939:
	.loc 8 425 0
	stfs 12,80(1)
	stfs 13,84(1)
	stfs 0,88(1)
	.loc 8 426 0
	stw 5,92(1)
	stw 7,100(1)
.LVL982:
.LBE5939:
.LBE5941:
.LBE5945:
	.loc 2 217 0
	mr 7,10
.LBB5946:
.LBB5942:
.LBB5940:
	.loc 8 427 0
	stw 11,108(1)
	stw 9,112(1)
	stw 8,104(1)
.LBE5940:
.LBE5942:
.LBE5946:
.LBE6182:
	.loc 8 465 0
	mr 8,0
.LVL983:
.L271:
.LBB6183:
.LBB5947:
.LBB5948:
	.loc 2 217 0
	mr 9,6
.LBE5948:
.LBE5947:
.LBE6183:
	li 11,0
.LBB6184:
.LBB5953:
.LBB5949:
	.loc 8 471 0
	lfs 11,12(9)
	.loc 8 468 0
	cmpwi 7,11,8
	.loc 8 471 0
	lfs 10,0(9)
	fmuls 13,13,11
	lfs 11,24(9)
	addi 9,9,4
	fmadds 12,10,12,13
	fmadds 0,11,0,12
	stfsx 0,8,11
.LVL984:
	.loc 8 468 0
	addi 11,11,4
	beq- 7,.L287
	.cfi_offset 63, -8
	.cfi_offset 62, -16
	.cfi_offset 61, -24
	.cfi_offset 60, -32
	.cfi_offset 59, -40
	.cfi_offset 58, -48
	.cfi_offset 57, -56
	.cfi_offset 56, -64
	.cfi_offset 55, -72
	.cfi_offset 54, -80
	.cfi_offset 53, -88
	.cfi_offset 52, -96
	.cfi_offset 51, -104
	.cfi_offset 50, -112
	.cfi_offset 49, -120
	.cfi_offset 48, -128
	.cfi_offset 47, -136
	.cfi_offset 46, -144
.L272:
	.loc 8 471 0
	lfs 11,12(9)
	.loc 8 468 0
	cmpwi 7,11,8
.LBE5949:
.LBE5953:
	.loc 2 217 0
	lfs 13,4(10)
.LBB5954:
.LBB5950:
	.loc 8 471 0
	lfs 10,0(9)
	fmuls 13,13,11
.LBE5950:
.LBE5954:
	.loc 2 217 0
	lfs 12,0(10)
.LBB5955:
.LBB5951:
	.loc 8 471 0
	lfs 11,24(9)
	addi 9,9,4
.LBE5951:
.LBE5955:
	.loc 2 217 0
	lfs 0,8(10)
.LBB5956:
.LBB5952:
	.loc 8 471 0
	fmadds 12,10,12,13
	fmadds 0,11,0,12
	stfsx 0,8,11
	.loc 8 468 0
	addi 11,11,4
	bne+ 7,.L272
.L287:
	addi 8,8,12
.LVL985:
	.loc 8 467 0
	cmpw 7,8,7
	beq- 7,.L273
	.loc 2 217 0
	lfs 12,12(10)
	lfs 13,16(10)
	lfs 0,20(10)
	addi 10,10,12
	b .L271
.L273:
.LVL986:
.LBE5952:
.LBE5956:
.LBE6184:
	.loc 2 224 0
	mr 10,0
	.loc 8 465 0
	addi 8,1,8
.LVL987:
	addi 7,3,180
.LVL988:
.L275:
.LBB6185:
.LBB5957:
.LBB5958:
	.loc 2 217 0
	mr 9,7
.LBE5958:
.LBE5957:
.LBE6185:
	li 11,0
.LVL989:
.L276:
.LBB6186:
	addi 9,9,4
.LBB5960:
.LBB5959:
	.loc 8 471 0
	lfs 11,4(10)
	lfs 0,12(9)
	.loc 8 468 0
	cmpwi 7,11,8
	.loc 8 471 0
	lfs 13,0(10)
	fmuls 11,11,0
	lfs 0,0(9)
	lfs 12,8(10)
	fmadds 13,13,0,11
	lfs 0,24(9)
	fmadds 0,12,0,13
	stfsx 0,8,11
	.loc 8 468 0
	addi 11,11,4
	bne+ 7,.L276
	addi 8,8,12
	.loc 8 474 0
	addi 10,10,12
.LVL990:
	.loc 8 467 0
	cmpw 7,8,0
	bne+ 7,.L275
	li 10,0
.LVL991:
.L277:
.LBE5959:
.LBE5960:
.LBB5961:
.LBB5962:
.LBB5963:
.LBB5964:
	.loc 4 424 0
	addi 11,1,8
	addi 9,1,116
	lwzux 0,11,10
.LBE5964:
.LBE5963:
	.loc 8 333 0
	cmpwi 7,10,24
.LBB5967:
.LBB5965:
	.loc 4 424 0
	stwux 0,9,10
.LBE5965:
.LBE5967:
	.loc 8 333 0
	addi 10,10,12
.LBB5968:
.LBB5966:
	.loc 4 425 0
	lwz 0,4(11)
	stw 0,4(9)
	.loc 4 426 0
	lwz 0,8(11)
	stw 0,8(9)
.LBE5966:
.LBE5968:
	.loc 8 333 0
	bne+ 7,.L277
.LVL992:
.LBE5962:
.LBE5961:
.LBB5969:
.LBB5970:
.LBB5971:
	.loc 8 454 0
	lfs 0,452(3)
	lfs 13,204(3)
	lfs 9,196(3)
	lfs 11,200(3)
	fmuls 9,0,9
.LBE5971:
.LBE5970:
.LBE5969:
.LBB5980:
.LBB5981:
	lfs 8,184(3)
.LBE5981:
.LBE5980:
.LBB5987:
.LBB5976:
.LBB5972:
	fmuls 11,0,11
.LBE5972:
.LBE5976:
.LBE5987:
.LBB5988:
.LBB5982:
	lfs 10,188(3)
.LBE5982:
.LBE5988:
.LBB5989:
.LBB5977:
.LBB5973:
	fmuls 0,0,13
.LBE5973:
.LBE5977:
.LBE5989:
.LBB5990:
.LBB5983:
	lfs 12,192(3)
.LBE5983:
.LBE5990:
.LBB5991:
.LBB5978:
.LBB5974:
	lfs 13,448(3)
.LBE5974:
.LBE5978:
.LBE5991:
.LBB5992:
.LBB5984:
	.loc 2 1542 0
	lwz 0,36(3)
	.loc 8 454 0
	fmadds 9,8,13,9
	lfs 8,208(3)
	fmadds 11,13,10,11
	lfs 10,212(3)
	fmadds 13,13,12,0
.LBE5984:
.LBE5992:
.LBB5993:
.LBB5979:
.LBB5975:
	lfs 0,456(3)
.LVL993:
.LBE5975:
.LBE5979:
.LBE5993:
.LBB5994:
.LBB5985:
	lfs 12,216(3)
.LBE5985:
.LBE5994:
	.loc 2 228 0
	cmpwi 7,0,0
.LBB5995:
.LBB5986:
	.loc 8 454 0
	fmadds 11,0,10,11
	.loc 4 452 0
	lfs 10,172(3)
	.loc 8 454 0
	fmadds 9,8,0,9
	fmadds 0,0,12,13
	.loc 4 452 0
	lfs 13,176(3)
	lfs 12,180(3)
	fadds 10,9,10
	fadds 13,11,13
	fadds 12,0,12
	stfs 10,156(1)
	stfs 13,160(1)
	stfs 12,164(1)
.LVL994:
.LBE5986:
.LBE5995:
	.loc 2 228 0
	ble- 7,.L270
	lis 7,_ZN6idMath5iSqrtE@ha
	lfs 0,428(3)
	la 7,_ZN6idMath5iSqrtE@l(7)
.LBB5996:
.LBB5997:
.LBB5998:
.LBB5999:
	.loc 7 278 0
	lis 9,.LC8@ha
.LBE5999:
.LBE5998:
.LBE5997:
.LBE5996:
	.loc 2 228 0
	lwz 6,48(3)
.LVL995:
	li 11,0
	lfs 4,444(3)
.LBB6017:
.LBB6008:
.LBB6004:
.LBB6000:
	.loc 7 276 0
	mr 5,7
.LBE6000:
.LBE6004:
.LBE6008:
.LBE6017:
	.loc 2 228 0
	stfs 0,168(1)
	.loc 2 252 0
	mtctr 0
	.loc 2 228 0
	lfs 17,116(1)
	lfs 18,128(1)
	lfs 19,140(1)
	lfs 20,120(1)
	lfs 21,132(1)
	lfs 22,144(1)
	lfs 23,124(1)
	lfs 24,136(1)
	lfs 25,148(1)
.LBB6018:
.LBB6009:
.LBB6005:
.LBB6001:
	.loc 7 278 0
	lfs 26,.LC8@l(9)
	b .L281
.LVL996:
.L279:
.LBE6001:
.LBE6005:
.LBE6009:
.LBE6018:
	.loc 2 228 0
	addi 11,11,56
	bdz .L270
.LVL997:
.L281:
.LBB6019:
.LBB6020:
	.loc 8 454 0
	lfs 10,236(3)
.LBE6020:
.LBE6019:
.LBB6031:
.LBB6032:
	.loc 12 589 0
	add 9,6,11
.LVL998:
.LBE6032:
.LBE6031:
.LBB6033:
.LBB6021:
	.loc 8 454 0
	lfs 9,232(3)
	fmuls 5,10,18
.LBE6021:
.LBE6033:
.LBB6034:
.LBB6035:
	.loc 4 431 0
	lfs 0,12(9)
.LBE6035:
.LBE6034:
.LBB6041:
.LBB6022:
	.loc 8 454 0
	fmuls 7,10,24
	lfs 11,240(3)
.LBE6022:
.LBE6041:
.LBB6042:
.LBB6036:
	.loc 4 431 0
	lfs 6,164(1)
.LBE6036:
.LBE6042:
.LBB6043:
.LBB6023:
	.loc 8 454 0
	fmuls 8,10,21
	fmadds 5,9,17,5
.LBE6023:
.LBE6043:
.LBB6044:
.LBB6037:
	.loc 4 431 0
	lfs 12,4(9)
	fsubs 0,0,6
.LVL999:
	lfs 13,8(9)
.LBE6037:
.LBE6044:
.LBB6045:
.LBB6024:
	.loc 8 454 0
	fmadds 7,9,23,7
.LBE6024:
.LBE6045:
.LBB6046:
.LBB6038:
	.loc 4 431 0
	lfs 16,156(1)
.LBE6038:
.LBE6046:
.LBB6047:
.LBB6025:
	.loc 8 454 0
	fmadds 5,11,19,5
.LBE6025:
.LBE6047:
.LBB6048:
.LBB6039:
	.loc 4 431 0
	lfs 27,160(1)
	fsubs 12,12,16
.LVL1000:
	lfs 31,224(3)
	fsubs 13,13,27
.LVL1001:
.LBE6039:
.LBE6048:
.LBB6049:
.LBB6050:
	.loc 4 435 0
	lfs 1,20(9)
.LBE6050:
.LBE6049:
.LBB6055:
.LBB6026:
	.loc 8 454 0
	fmadds 7,11,25,7
.LBE6026:
.LBE6055:
.LBB6056:
.LBB6040:
	.loc 4 431 0
	lfs 30,220(3)
.LBE6040:
.LBE6056:
.LBB6057:
.LBB6058:
	.loc 4 620 0
	fmuls 3,0,5
.LBE6058:
.LBE6057:
.LBB6061:
.LBB6051:
	.loc 4 435 0
	lfs 2,16(9)
.LBE6051:
.LBE6061:
.LBB6062:
.LBB6027:
	.loc 8 454 0
	fmadds 8,9,20,8
	.loc 4 452 0
	lfs 29,228(3)
.LBE6027:
.LBE6062:
.LBB6063:
.LBB6059:
	.loc 4 620 0
	fmuls 6,13,7
.LBE6059:
.LBE6063:
.LBB6064:
.LBB6028:
	fmsubs 7,12,7,3
	.loc 8 454 0
	fmadds 8,11,22,8
	.loc 4 452 0
	fmadds 7,31,4,7
.LVL1002:
	.loc 4 620 0
	fmsubs 6,0,8,6
.LBE6028:
.LBE6064:
.LBB6065:
.LBB6060:
	fmuls 8,12,8
.LVL1003:
.LBE6060:
.LBE6065:
.LBB6066:
.LBB6052:
	.loc 4 435 0
	fmuls 3,7,1
.LBE6052:
.LBE6066:
.LBB6067:
.LBB6029:
	.loc 4 452 0
	fmadds 6,30,4,6
	.loc 4 620 0
	fmsubs 8,13,5,8
.LBE6029:
.LBE6067:
.LBB6068:
.LBB6053:
	.loc 4 435 0
	lfs 5,24(9)
.LVL1004:
	fmadds 3,6,2,3
.LBE6053:
.LBE6068:
.LBB6069:
.LBB6030:
	.loc 4 452 0
	fmadds 8,29,4,8
.LVL1005:
.LBE6030:
.LBE6069:
.LBB6070:
.LBB6054:
	.loc 4 435 0
	fmadds 3,8,5,3
.LVL1006:
.LBE6054:
.LBE6070:
.LBB6071:
.LBB6072:
	.loc 4 448 0
	fmuls 1,1,3
	fmuls 2,2,3
	fmuls 3,5,3
.LVL1007:
.LBE6072:
.LBE6071:
.LBB6073:
.LBB6074:
	.loc 4 431 0
	fsubs 7,7,1
.LVL1008:
	fsubs 6,6,2
.LVL1009:
	fsubs 8,8,3
.LVL1010:
.LBE6074:
.LBE6073:
.LBB6075:
.LBB6076:
	.loc 4 420 0
	fneg 7,7
.LVL1011:
	fneg 6,6
.LVL1012:
	fneg 8,8
.LVL1013:
.LBE6076:
.LBE6075:
.LBB6078:
.LBB6010:
	.loc 4 649 0
	fmuls 5,7,7
.LBE6010:
.LBE6078:
.LBB6079:
.LBB6077:
	fmadds 5,6,6,5
	fmadds 5,8,8,5
	stfs 5,152(1)
.LVL1014:
.LBE6077:
.LBE6079:
.LBB6080:
.LBB6011:
.LBB6006:
.LBB6002:
	.loc 7 270 0
	lwz 0,152(1)
.LVL1015:
	.loc 7 276 0
	rlwinm 8,0,9,24,31
	rlwinm 0,0,19,21,29
	lwzx 10,7,0
	subfic 0,8,380
	rlwinm 0,0,22,0,8
	.loc 7 275 0
	lis 8,.LC6@ha
	.loc 7 276 0
	or 0,0,10
	.loc 7 275 0
	lfs 16,.LC6@l(8)
	.loc 7 277 0
	stw 0,172(1)
.LBE6002:
.LBE6006:
.LBE6011:
.LBE6080:
	.loc 2 252 0
	lis 8,.LC5@ha
.LBB6081:
.LBB6012:
.LBB6007:
.LBB6003:
	.loc 7 275 0
	fmuls 27,5,16
.LVL1016:
	.loc 7 277 0
	lfs 29,172(1)
	fmr 28,29
.LVL1017:
	.loc 2 217 0
	fneg 27,27
.LVL1018:
	.loc 7 278 0
	fmul 29,28,28
.LVL1019:
	fmadd 29,27,29,26
	fmul 29,28,29
.LVL1020:
	.loc 7 279 0
	fmul 5,29,29
.LVL1021:
	fmadd 5,27,5,26
.LVL1022:
	fmul 5,29,5
.LVL1023:
	.loc 7 280 0
	frsp 5,5
.LVL1024:
.LBE6003:
.LBE6007:
	.loc 4 653 0
	fmuls 8,8,5
.LVL1025:
	.loc 4 651 0
	fmuls 6,6,5
.LVL1026:
	.loc 4 652 0
	fmuls 7,7,5
.LVL1027:
.LBE6012:
.LBE6081:
.LBB6082:
.LBB6083:
	.loc 4 620 0
	fmuls 28,12,8
	fmuls 16,13,6
	fmuls 15,0,7
.LBE6083:
.LBE6082:
.LBB6084:
.LBB6013:
	fmsubs 28,0,6,28
	fmsubs 16,12,7,16
.LVL1028:
	fmsubs 15,13,8,15
.LVL1029:
.LBE6013:
.LBE6084:
.LBB6085:
.LBB6086:
	.loc 8 454 0
	fmuls 29,28,18
	fmuls 27,28,24
	fmuls 28,28,21
.LVL1030:
.LBE6086:
.LBE6085:
.LBB6087:
.LBB6014:
	fmadds 29,15,17,29
	fmadds 27,15,23,27
	fmadds 28,15,20,28
	fmadds 29,16,19,29
	fmadds 27,16,25,27
.LVL1031:
	fmadds 28,16,22,28
.LVL1032:
.LBE6014:
.LBE6087:
.LBB6088:
.LBB6089:
	.loc 4 620 0
	fmuls 14,0,29
	fmuls 15,13,27
	fmuls 16,12,28
.LVL1033:
.LBE6089:
.LBE6088:
.LBB6090:
.LBB6091:
	fmsubs 27,12,27,14
.LVL1034:
.LBE6091:
.LBE6090:
	fmsubs 28,0,28,15
.LVL1035:
	fmsubs 29,13,29,16
.LVL1036:
.LBB6093:
.LBB6015:
	.loc 4 654 0
	lfs 16,152(1)
.LBE6015:
.LBE6093:
.LBB6094:
.LBB6092:
	.loc 4 435 0
	fmuls 27,27,7
.LVL1037:
.LBE6092:
.LBE6094:
.LBB6095:
.LBB6016:
	.loc 4 654 0
	fmuls 5,16,5
.LVL1038:
.LBE6016:
.LBE6095:
	.loc 2 252 0
	lfs 16,.LC5@l(8)
	.loc 4 435 0
	fmadds 28,28,6,27
.LVL1039:
	.loc 2 243 0
	lfs 27,168(1)
	fmuls 5,5,27
.LVL1040:
	.loc 4 435 0
	fmadds 29,29,8,28
.LVL1041:
	.loc 2 244 0
	fadds 29,29,4
.LVL1042:
	.loc 2 245 0
	fdivs 5,5,29
.LVL1043:
.LBB6096:
.LBB6097:
	.loc 4 448 0
	fmuls 7,5,7
.LVL1044:
	fmuls 8,5,8
.LVL1045:
	fmuls 6,5,6
.LVL1046:
.LBE6097:
.LBE6096:
.LBB6098:
.LBB6099:
	.loc 4 620 0
	fmuls 28,0,7
	fmuls 29,12,8
.LVL1047:
	fmuls 5,13,6
.LVL1048:
.LBE6099:
.LBE6098:
.LBB6100:
.LBB6101:
	fmsubs 28,13,8,28
	fmsubs 29,0,6,29
	fmsubs 5,12,7,5
.LBE6101:
.LBE6100:
.LBB6106:
.LBB6107:
	.loc 4 457 0
	fadds 7,7,31
.LVL1049:
	.loc 4 458 0
	lfs 31,228(3)
	.loc 4 456 0
	fadds 6,6,30
.LVL1050:
	.loc 4 458 0
	fadds 8,8,31
.LVL1051:
.LBE6107:
.LBE6106:
.LBB6111:
.LBB6102:
	fadds 11,5,11
.LBE6102:
.LBE6111:
.LBB6112:
.LBB6108:
	.loc 4 457 0
	stfs 7,224(3)
.LBE6108:
.LBE6112:
.LBB6113:
.LBB6103:
	.loc 4 456 0
	fadds 9,28,9
.LBE6103:
.LBE6113:
.LBB6114:
.LBB6109:
	stfs 6,220(3)
.LBE6109:
.LBE6114:
.LBB6115:
.LBB6104:
	.loc 4 457 0
	fadds 10,29,10
.LBE6104:
.LBE6115:
.LBB6116:
.LBB6110:
	.loc 4 458 0
	stfs 8,228(3)
.LVL1052:
.LBE6110:
.LBE6116:
.LBB6117:
.LBB6105:
	stfs 11,240(3)
.LVL1053:
	.loc 4 456 0
	stfs 9,232(3)
	.loc 4 457 0
	stfs 10,236(3)
.LBE6105:
.LBE6117:
.LBB6118:
.LBB6119:
	.loc 4 435 0
	lfs 5,20(9)
.LBE6119:
.LBE6118:
	lfs 30,16(9)
.LBB6121:
.LBB6120:
	fmuls 5,1,5
.LBE6120:
.LBE6121:
	lfs 31,24(9)
	fmadds 5,2,30,5
	fmadds 5,3,31,5
	.loc 2 252 0
	fcmpu 7,5,16
	bnl+ 7,.L279
.LVL1054:
.LBB6122:
.LBB6123:
	.loc 4 420 0
	fneg 1,1
.LVL1055:
.LBE6123:
.LBE6122:
.LBB6127:
.LBB6128:
.LBB6129:
.LBB6130:
	.loc 7 275 0
	lis 8,.LC6@ha
.LBE6130:
.LBE6129:
.LBE6128:
.LBE6127:
.LBB6141:
.LBB6124:
	.loc 4 420 0
	fneg 2,2
.LVL1056:
.LBE6124:
.LBE6141:
.LBB6142:
.LBB6135:
.LBB6133:
.LBB6131:
	.loc 7 275 0
	lfs 16,.LC6@l(8)
.LBE6131:
.LBE6133:
.LBE6135:
.LBE6142:
.LBB6143:
.LBB6125:
	.loc 4 420 0
	fneg 3,3
.LVL1057:
.LBE6125:
.LBE6143:
	.loc 2 228 0
	addi 11,11,56
.LBB6144:
.LBB6136:
	.loc 4 649 0
	fmuls 5,1,1
.LBE6136:
.LBE6144:
.LBB6145:
.LBB6126:
	fmadds 5,2,2,5
	fmadds 5,3,3,5
	stfs 5,152(1)
.LVL1058:
.LBE6126:
.LBE6145:
.LBB6146:
.LBB6137:
.LBB6134:
.LBB6132:
	.loc 7 275 0
	fmuls 29,5,16
	.loc 7 270 0
	lwz 0,152(1)
.LVL1059:
	.loc 2 217 0
	fneg 29,29
	.loc 7 276 0
	rlwinm 10,0,9,24,31
	rlwinm 0,0,19,21,29
	lwzx 9,5,0
.LVL1060:
	subfic 0,10,380
	rlwinm 0,0,22,0,8
	or 0,0,9
	.loc 7 277 0
	stw 0,172(1)
	lfs 27,172(1)
	fmr 30,27
.LVL1061:
	.loc 7 278 0
	fmul 31,30,30
	fmadd 31,29,31,26
	fmul 31,30,31
.LVL1062:
	.loc 7 279 0
	fmul 5,31,31
.LVL1063:
	fmadd 5,29,5,26
.LVL1064:
	fmul 5,31,5
.LVL1065:
	.loc 7 280 0
	frsp 5,5
.LVL1066:
.LBE6132:
.LBE6134:
	.loc 4 653 0
	fmuls 3,3,5
.LVL1067:
	.loc 4 651 0
	fmuls 2,2,5
.LVL1068:
	.loc 4 652 0
	fmuls 1,1,5
.LVL1069:
.LBE6137:
.LBE6146:
.LBB6147:
.LBB6148:
	.loc 4 620 0
	fmuls 30,12,3
	fmuls 28,13,2
	fmuls 27,0,1
.LBE6148:
.LBE6147:
.LBB6149:
.LBB6138:
	fmsubs 30,0,2,30
	fmsubs 28,12,1,28
.LVL1070:
	fmsubs 27,13,3,27
.LVL1071:
.LBE6138:
.LBE6149:
.LBB6150:
.LBB6151:
	.loc 8 454 0
	fmuls 31,30,18
	fmuls 29,30,24
	fmuls 30,30,21
.LVL1072:
.LBE6151:
.LBE6150:
.LBB6152:
.LBB6139:
	fmadds 31,27,17,31
	fmadds 29,27,23,29
	fmadds 30,27,20,30
	fmadds 31,28,19,31
	fmadds 29,28,25,29
.LVL1073:
	fmadds 30,28,22,30
.LVL1074:
.LBE6139:
.LBE6152:
.LBB6153:
.LBB6154:
	.loc 4 620 0
	fmuls 16,0,31
	fmuls 27,13,29
	fmuls 28,12,30
.LVL1075:
.LBE6154:
.LBE6153:
.LBB6155:
.LBB6156:
	fmsubs 29,12,29,16
.LVL1076:
.LBE6156:
.LBE6155:
	fmsubs 30,0,30,27
.LVL1077:
	fmsubs 28,13,31,28
.LVL1078:
.LBB6158:
.LBB6157:
	.loc 4 435 0
	fmuls 31,29,1
.LVL1079:
.LBE6157:
.LBE6158:
.LBB6159:
.LBB6140:
	.loc 4 654 0
	lfs 29,152(1)
.LVL1080:
	fmuls 5,29,5
.LBE6140:
.LBE6159:
	.loc 4 435 0
	fmadds 31,30,2,31
	fmadds 31,28,3,31
	.loc 2 256 0
	fadds 31,31,4
.LVL1081:
	.loc 2 257 0
	fdivs 5,5,31
.LVL1082:
.LBB6160:
.LBB6161:
	.loc 4 448 0
	fmuls 2,5,2
.LVL1083:
	fmuls 1,5,1
.LVL1084:
	fmuls 3,5,3
.LVL1085:
.LBE6161:
.LBE6160:
.LBB6162:
.LBB6163:
	.loc 4 620 0
	fmuls 30,13,2
.LVL1086:
	fmuls 31,0,1
.LVL1087:
	fmuls 5,12,3
.LVL1088:
.LBE6163:
.LBE6162:
.LBB6164:
.LBB6165:
	fmsubs 12,12,1,30
.LVL1089:
	fmsubs 13,13,3,31
.LVL1090:
	fmsubs 0,0,2,5
.LVL1091:
.LBE6165:
.LBE6164:
.LBB6170:
.LBB6171:
	.loc 4 456 0
	fadds 6,6,2
	.loc 4 457 0
	fadds 7,7,1
	.loc 4 458 0
	fadds 8,8,3
.LBE6171:
.LBE6170:
.LBB6175:
.LBB6166:
	.loc 4 456 0
	fadds 9,9,13
.LBE6166:
.LBE6175:
.LBB6176:
.LBB6172:
	stfs 6,220(3)
.LBE6172:
.LBE6176:
.LBB6177:
.LBB6167:
	.loc 4 457 0
	fadds 10,10,0
.LBE6167:
.LBE6177:
.LBB6178:
.LBB6173:
	stfs 7,224(3)
.LBE6173:
.LBE6178:
.LBB6179:
.LBB6168:
	.loc 4 458 0
	fadds 11,11,12
.LBE6168:
.LBE6179:
.LBB6180:
.LBB6174:
	stfs 8,228(3)
.LVL1092:
.LBE6174:
.LBE6180:
.LBB6181:
.LBB6169:
	.loc 4 456 0
	stfs 9,232(3)
	.loc 4 457 0
	stfs 10,236(3)
	.loc 4 458 0
	stfs 11,240(3)
.LBE6169:
.LBE6181:
	.loc 2 228 0
	bdnz .L281
.LVL1093:
.L270:
.LBE6186:
	.loc 2 264 0
	lfd 14,176(1)
	lfd 15,184(1)
	lfd 16,192(1)
	lfd 17,200(1)
	lfd 18,208(1)
	lfd 19,216(1)
	lfd 20,224(1)
	lfd 21,232(1)
	lfd 22,240(1)
	lfd 23,248(1)
	lfd 24,256(1)
	lfd 25,264(1)
	lfd 26,272(1)
	lfd 27,280(1)
	lfd 28,288(1)
	lfd 29,296(1)
	lfd 30,304(1)
	lfd 31,312(1)
	addi 1,1,320
.LCFI94:
	.cfi_def_cfa_offset 0
	.cfi_restore 63
	.cfi_restore 62
	.cfi_restore 61
	.cfi_restore 60
	.cfi_restore 59
	.cfi_restore 58
	.cfi_restore 57
	.cfi_restore 56
	.cfi_restore 55
	.cfi_restore 54
	.cfi_restore 53
	.cfi_restore 52
	.cfi_restore 51
	.cfi_restore 50
	.cfi_restore 49
	.cfi_restore 48
	.cfi_restore 47
	.cfi_restore 46
	blr
	.cfi_endproc
.LFE2820:
	.size	_ZN19idPhysics_RigidBody15ContactFrictionEf, .-_ZN19idPhysics_RigidBody15ContactFrictionEf
	.align 2
	.globl _ZNK19idPhysics_RigidBody12TestIfAtRestEv
	.type	_ZNK19idPhysics_RigidBody12TestIfAtRestEv, @function
_ZNK19idPhysics_RigidBody12TestIfAtRestEv:
.LFB2821:
	.loc 2 274 0
	.cfi_startproc
	.cfi_personality 0,__gxx_personality_v0
	.cfi_lsda 0,.LLSDA2821
.LVL1094:
	mflr 0
	stwu 1,-1520(1)
.LCFI95:
	.cfi_def_cfa_offset 1520
	.cfi_register 65, 0
.LVL1095:
.LBB6298:
.LBB6299:
.LBB6300:
	.loc 1 307 0
	lis 9,_ZTV14idFixedWinding+8@ha
.LBE6300:
.LBE6299:
.LBE6298:
	.loc 2 274 0
	stw 31,1508(1)
	mr 31,3
	.cfi_offset 31, -12
	stw 0,1524(1)
	stfd 31,1512(1)
	stw 25,1484(1)
	stw 26,1488(1)
	stw 27,1492(1)
	stw 28,1496(1)
	stw 29,1500(1)
	stw 30,1504(1)
.LBB6517:
	.loc 2 281 0
	lwz 0,68(3)
	.cfi_offset 30, -16
	.cfi_offset 29, -20
	.cfi_offset 28, -24
	.cfi_offset 27, -28
	.cfi_offset 26, -32
	.cfi_offset 25, -36
	.cfi_offset 63, -8
	.cfi_offset 65, 4
	cmpwi 7,0,0
.LBB6304:
.LBB6303:
.LBB6301:
.LBB6302:
	.loc 1 133 0
	li 0,0
	stw 0,168(1)
.LBE6302:
.LBE6301:
	.loc 1 307 0
	la 0,_ZTV14idFixedWinding+8@l(9)
	stw 0,164(1)
	.loc 1 309 0
	addi 0,1,180
	stw 0,172(1)
	.loc 1 310 0
	li 0,64
	stw 0,176(1)
.LBE6303:
.LBE6304:
	.loc 2 281 0
	bge- 7,.L301
	.loc 2 1542 0
	lwz 0,36(3)
	.loc 2 286 0
	cmpwi 7,0,2
	ble- 7,.L303
	.loc 4 416 0
	lis 9,.LC5@ha
	.loc 2 292 0
	mtctr 0
	.loc 4 416 0
	lfs 0,.LC5@l(9)
	.loc 2 286 0
	li 10,0
	lwz 9,48(3)
	.loc 2 292 0
	li 8,0
	.loc 4 416 0
	fmr 9,0
	fmr 10,0
.L290:
.LVL1096:
.LBB6305:
.LBB6306:
	.loc 12 573 0 discriminator 2
	add 11,9,10
.LVL1097:
.LBE6306:
.LBE6305:
	.loc 2 292 0 discriminator 2
	addi 8,8,1
.LVL1098:
.LBB6307:
.LBB6308:
	.loc 4 456 0 discriminator 2
	lfs 11,16(11)
.LBE6308:
.LBE6307:
	.loc 2 292 0 discriminator 2
	addi 10,10,56
.LBB6310:
.LBB6309:
	.loc 4 457 0 discriminator 2
	lfs 12,20(11)
	.loc 4 458 0 discriminator 2
	lfs 13,24(11)
	.loc 4 456 0 discriminator 2
	fadds 0,0,11
.LVL1099:
	.loc 4 457 0 discriminator 2
	fadds 9,9,12
.LVL1100:
	.loc 4 458 0 discriminator 2
	fadds 10,10,13
.LVL1101:
.LBE6309:
.LBE6310:
	.loc 2 292 0 discriminator 2
	bdnz .L290
.LVL1102:
	.loc 2 295 0
	lis 0,0x4330
	xoris 8,8,0x8000
.LVL1103:
	stw 0,1464(1)
	lis 11,.LC11@ha
.LVL1104:
	stw 8,1468(1)
.LBB6311:
.LBB6312:
.LBB6313:
.LBB6314:
	.loc 7 276 0
	lis 27,_ZN6idMath5iSqrtE@ha
.LBE6314:
.LBE6313:
.LBE6312:
.LBE6311:
	.loc 2 295 0
	lfs 13,.LC11@l(11)
.LBB6331:
.LBB6332:
	.loc 4 472 0
	lis 11,.LC4@ha
.LBE6332:
.LBE6331:
	.loc 2 295 0
	lfd 8,1464(1)
.LBB6337:
.LBB6325:
.LBB6320:
.LBB6315:
	.loc 7 276 0
	la 27,_ZN6idMath5iSqrtE@l(27)
	.loc 7 275 0
	lis 25,.LC6@ha
.LBE6315:
.LBE6320:
.LBE6325:
.LBE6337:
.LBB6338:
.LBB6339:
	.loc 4 435 0
	lfs 12,28(31)
.LBE6339:
.LBE6338:
	.loc 2 295 0
	fsub 8,8,13
.LBB6343:
.LBB6333:
	.loc 4 472 0
	lfs 13,.LC4@l(11)
.LBE6333:
.LBE6343:
.LBB6344:
.LBB6340:
	.loc 4 435 0
	lfs 11,24(31)
.LBE6340:
.LBE6344:
.LBB6345:
.LBB6326:
.LBB6321:
.LBB6316:
	.loc 7 278 0
	lis 26,.LC8@ha
	.loc 7 275 0
	lfs 4,.LC6@l(25)
.LBE6316:
.LBE6321:
.LBE6326:
.LBE6345:
	.loc 2 295 0
	frsp 8,8
.LBB6346:
.LBB6327:
.LBB6322:
.LBB6317:
	.loc 7 278 0
	lfs 5,.LC8@l(26)
.LBE6317:
.LBE6322:
.LBE6327:
.LBE6346:
.LBB6347:
.LBB6334:
	.loc 4 472 0
	fdivs 8,13,8
.LVL1105:
.LBE6334:
.LBE6347:
.LBB6348:
.LBB6341:
	.loc 4 435 0
	lfs 13,32(31)
.LBE6341:
.LBE6348:
.LBB6349:
.LBB6335:
	.loc 4 474 0
	fmuls 9,8,9
.LVL1106:
	.loc 4 473 0
	fmuls 0,8,0
.LVL1107:
	.loc 4 475 0
	fmuls 10,8,10
.LVL1108:
.LBE6335:
.LBE6349:
.LBB6350:
.LBB6328:
	.loc 4 649 0
	fmuls 8,9,9
.LVL1109:
.LBE6328:
.LBE6350:
.LBB6351:
.LBB6336:
	fmadds 8,0,0,8
	fmadds 8,10,10,8
	stfs 8,1472(1)
.LVL1110:
.LBE6336:
.LBE6351:
.LBB6352:
.LBB6329:
.LBB6323:
.LBB6318:
	.loc 7 275 0
	fmuls 4,8,4
	.loc 7 270 0
	lwz 0,1472(1)
.LVL1111:
	.loc 2 274 0
	fneg 4,4
	.loc 7 276 0
	rlwinm 11,0,19,21,29
	rlwinm 10,0,9,24,31
	lwzx 11,27,11
	subfic 0,10,380
	rlwinm 0,0,22,0,8
	or 0,0,11
.LBE6318:
.LBE6323:
.LBE6329:
.LBE6352:
	.loc 2 299 0
	lis 11,.LC17@ha
.LBB6353:
.LBB6330:
.LBB6324:
.LBB6319:
	.loc 7 277 0
	stw 0,1476(1)
	lfs 8,1476(1)
.LVL1112:
	fmr 6,8
.LVL1113:
	.loc 7 278 0
	fmul 7,6,6
	fmadd 7,4,7,5
	fmul 7,6,7
.LVL1114:
	.loc 7 279 0
	fmul 8,7,7
	fmadd 8,4,8,5
.LVL1115:
	fmul 8,7,8
.LVL1116:
	.loc 7 280 0
	frsp 8,8
.LVL1117:
.LBE6319:
.LBE6324:
	.loc 4 652 0
	fmuls 9,9,8
	.loc 4 651 0
	fmuls 0,0,8
	.loc 4 653 0
	fmuls 10,10,8
.LBE6330:
.LBE6353:
.LBB6354:
.LBB6342:
	.loc 4 435 0
	fmuls 9,12,9
.LBE6342:
.LBE6354:
	fmadds 0,11,0,9
	.loc 2 299 0
	lfs 9,.LC17@l(11)
	.loc 4 435 0
	fmadds 10,13,10,0
	.loc 2 299 0
	fcmpu 7,10,9
	bgt- 7,.L303
	lis 11,.LC18@ha
	li 29,0
	.loc 2 308 0
	lfs 31,.LC18@l(11)
	.loc 2 299 0
	li 30,0
	addi 28,31,24
	b .L292
.LVL1118:
.L314:
	.loc 2 305 0
	lwz 9,48(31)
	lfs 11,24(31)
	lfs 12,28(31)
	lfs 13,32(31)
.LVL1119:
.L292:
.LBB6355:
.LBB6356:
	.loc 12 573 0
	add 9,9,29
.LVL1120:
.LBE6356:
.LBE6355:
	.loc 2 308 0
	fmr 1,31
.LBB6357:
.LBB6358:
	.loc 4 435 0
	lfs 9,8(9)
.LBE6358:
.LBE6357:
	.loc 2 308 0
	addi 3,1,164
.LBB6362:
.LBB6359:
	.loc 4 435 0
	lfs 8,4(9)
.LBE6359:
.LBE6362:
	.loc 2 308 0
	addi 4,1,8
.LBB6363:
.LBB6360:
	.loc 4 435 0
	fmuls 0,9,12
	lfs 10,12(9)
.LBE6360:
.LBE6363:
	.loc 2 308 0
	mr 5,28
.LBB6364:
.LBB6361:
	.loc 4 435 0
	fmadds 0,8,11,0
.LVL1121:
.LBE6361:
.LBE6364:
.LBB6365:
.LBB6366:
	.loc 2 274 0
	fnmadds 0,10,13,0
.LVL1122:
	.loc 4 431 0
	fmadds 11,0,11,8
.LVL1123:
	fmadds 12,0,12,9
.LVL1124:
	fmadds 0,0,13,10
.LVL1125:
	.loc 4 424 0
	stfs 11,8(1)
	.loc 4 425 0
	stfs 12,12(1)
	.loc 4 426 0
	stfs 0,16(1)
.LEHB3:
.LBE6366:
.LBE6365:
	.loc 2 308 0
	bl _ZN9idWinding15AddToConvexHullERK6idVec3S2_f
.LVL1126:
	.loc 2 305 0
	lwz 0,36(31)
	addi 30,30,1
.LVL1127:
	addi 29,29,56
	cmpw 7,0,30
	bgt+ 7,.L314
	.loc 2 312 0
	lwz 0,168(1)
	.loc 2 313 0
	li 3,0
	.loc 2 312 0
	cmpwi 7,0,2
	ble+ 7,.L299
.LVL1128:
.LBB6367:
.LBB6368:
.LBB6369:
	.loc 8 454 0
	lfs 12,452(31)
.LBE6369:
.LBE6368:
.LBE6367:
	.loc 2 321 0
	lis 9,.LC5@ha
.LBB6382:
.LBB6376:
.LBB6370:
	.loc 8 454 0
	lfs 0,200(31)
.LBE6370:
.LBE6376:
.LBE6382:
	.loc 2 321 0
	addi 3,1,164
.LBB6383:
.LBB6377:
.LBB6371:
	.loc 8 454 0
	lfs 11,448(31)
.LBE6371:
.LBE6377:
.LBE6383:
	.loc 2 321 0
	mr 4,28
.LBB6384:
.LBB6378:
.LBB6372:
	.loc 8 454 0
	fmuls 0,12,0
	lfs 8,196(31)
.LBE6372:
.LBE6378:
.LBE6384:
.LBB6385:
.LBB6386:
	lfs 10,188(31)
.LBE6386:
.LBE6385:
	.loc 2 321 0
	addi 5,1,8
.LVL1129:
.LBB6394:
.LBB6379:
.LBB6373:
	.loc 8 454 0
	fmuls 8,12,8
.LBE6373:
.LBE6379:
.LBE6394:
.LBB6395:
.LBB6387:
	lfs 7,184(31)
	fmadds 10,11,10,0
.LBE6387:
.LBE6395:
.LBB6396:
.LBB6380:
.LBB6374:
	lfs 13,204(31)
	lfs 0,456(31)
.LVL1130:
.LBE6374:
.LBE6380:
.LBE6396:
.LBB6397:
.LBB6388:
	lfs 9,212(31)
	fmadds 8,7,11,8
.LBE6388:
.LBE6397:
.LBB6398:
.LBB6381:
.LBB6375:
	fmuls 12,12,13
.LBE6375:
.LBE6381:
.LBE6398:
.LBB6399:
.LBB6389:
	lfs 7,208(31)
	fmadds 9,0,9,10
	.loc 4 452 0
	lfs 13,176(31)
	.loc 8 454 0
	lfs 10,192(31)
	fmadds 8,7,0,8
.LBE6389:
.LBE6399:
	.loc 2 321 0
	lfs 1,.LC5@l(9)
.LBB6400:
.LBB6390:
	.loc 8 454 0
	fmadds 11,11,10,12
	.loc 4 452 0
	lfs 12,172(31)
	fadds 9,9,13
	.loc 8 454 0
	lfs 10,216(31)
.LBE6390:
.LBE6400:
.LBB6401:
.LBB6402:
	.loc 4 435 0
	lfs 13,28(31)
.LBE6402:
.LBE6401:
.LBB6406:
.LBB6391:
	.loc 4 452 0
	fadds 8,8,12
	.loc 8 454 0
	fmadds 0,0,10,11
.LBE6391:
.LBE6406:
.LBB6407:
.LBB6403:
	.loc 4 435 0
	lfs 12,24(31)
	fmuls 11,9,13
.LBE6403:
.LBE6407:
.LBB6408:
.LBB6392:
	.loc 4 452 0
	lfs 10,180(31)
.LBE6392:
.LBE6408:
.LBB6409:
.LBB6410:
	.loc 2 274 0
	fneg 13,13
.LBE6410:
.LBE6409:
.LBB6413:
.LBB6393:
	.loc 4 452 0
	fadds 10,0,10
.LVL1131:
.LBE6393:
.LBE6413:
.LBB6414:
.LBB6404:
	.loc 4 435 0
	lfs 0,32(31)
	fmadds 11,8,12,11
.LBE6404:
.LBE6414:
.LBB6415:
.LBB6411:
	.loc 2 274 0
	fneg 12,12
.LBE6411:
.LBE6415:
.LBB6416:
.LBB6405:
	.loc 4 435 0
	fmadds 11,10,0,11
.LVL1132:
.LBE6405:
.LBE6416:
.LBB6417:
.LBB6412:
	.loc 2 274 0
	fneg 0,0
	.loc 4 481 0
	fmadds 12,12,11,8
	.loc 4 482 0
	fmadds 13,13,11,9
	.loc 4 483 0
	fmadds 0,0,11,10
	.loc 4 481 0
	stfs 12,8(1)
	.loc 4 482 0
	stfs 13,12(1)
	.loc 4 483 0
	stfs 0,16(1)
.LBE6412:
.LBE6417:
	.loc 2 321 0
	bl _ZNK9idWinding11PointInsideERK6idVec3S2_f
.LEHE3:
.LVL1133:
	cmpwi 7,3,0
	.loc 2 322 0
	li 3,0
	.loc 2 321 0
	beq- 7,.L299
	.loc 2 326 0
	lfs 0,444(31)
.LVL1134:
	.loc 2 333 0
	lis 7,.LC13@ha
.LBB6418:
.LBB6419:
	.loc 4 448 0
	lfs 12,224(31)
.LBE6419:
.LBE6418:
.LBB6423:
.LBB6424:
	.loc 4 435 0
	lfs 8,28(31)
.LBE6424:
.LBE6423:
.LBB6431:
.LBB6420:
	.loc 4 448 0
	fmuls 12,0,12
	lfs 11,220(31)
.LBE6420:
.LBE6431:
.LBB6432:
.LBB6425:
	.loc 4 435 0
	lfs 9,24(31)
.LBE6425:
.LBE6432:
.LBB6433:
.LBB6421:
	.loc 4 448 0
	fmuls 11,0,11
	lfs 13,228(31)
.LBE6421:
.LBE6433:
.LBB6434:
.LBB6426:
	.loc 4 435 0
	fmuls 7,12,8
	lfs 10,32(31)
.LBE6426:
.LBE6434:
.LBB6435:
.LBB6422:
	.loc 4 448 0
	fmuls 13,0,13
.LVL1135:
.LBE6422:
.LBE6435:
.LBB6436:
.LBB6427:
	.loc 2 274 0
	fneg 8,8
	.loc 4 435 0
	fmadds 0,11,9,7
.LBE6427:
.LBE6436:
.LBB6437:
.LBB6438:
.LBB6439:
.LBB6440:
.LBB6441:
.LBB6442:
	.loc 7 275 0
	lfs 7,.LC6@l(25)
.LBE6442:
.LBE6441:
.LBE6440:
.LBE6439:
.LBE6438:
.LBE6437:
.LBB6455:
.LBB6428:
	.loc 2 274 0
	fneg 9,9
	.loc 4 435 0
	fmadds 0,13,10,0
.LVL1136:
	.loc 2 274 0
	fneg 10,10
	.loc 4 482 0
	fmadds 12,8,0,12
.LVL1137:
	.loc 4 483 0
	fmadds 13,10,0,13
.LVL1138:
	.loc 4 481 0
	fmadds 11,9,0,11
.LVL1139:
.LBE6428:
.LBE6455:
.LBB6456:
.LBB6453:
	.loc 4 632 0
	fmuls 10,12,12
.LBB6451:
.LBB6449:
.LBB6446:
.LBB6443:
	.loc 7 278 0
	lfs 12,.LC8@l(26)
.LVL1140:
.LBE6443:
.LBE6446:
.LBE6449:
.LBE6451:
.LBE6453:
.LBE6456:
.LBB6457:
.LBB6429:
	.loc 4 632 0
	fmadds 11,11,11,10
.LVL1141:
.LBE6429:
.LBE6457:
	.loc 2 333 0
	lfs 10,.LC13@l(7)
.LBB6458:
.LBB6430:
	.loc 4 632 0
	fmadds 11,13,13,11
	stfs 11,1472(1)
.LVL1142:
.LBE6430:
.LBE6458:
.LBB6459:
.LBB6454:
.LBB6452:
.LBB6450:
.LBB6447:
.LBB6444:
	.loc 7 275 0
	fmuls 11,11,7
.LVL1143:
	.loc 7 270 0
	lwz 0,1472(1)
.LVL1144:
	.loc 2 274 0
	fneg 11,11
	.loc 7 276 0
	rlwinm 9,0,9,24,31
	rlwinm 0,0,19,21,29
	subfic 9,9,380
	lwzx 0,27,0
	rlwinm 9,9,22,0,8
	or 0,9,0
	.loc 7 277 0
	stw 0,1476(1)
	lfs 8,1476(1)
	fmr 13,8
.LVL1145:
	.loc 7 278 0
	fmul 9,13,13
	fmadd 9,11,9,12
	fmul 13,13,9
.LVL1146:
	.loc 7 279 0
	fmul 9,13,13
	fmadd 12,11,9,12
.LVL1147:
.LBE6444:
.LBE6447:
	.loc 7 303 0
	lfs 9,1472(1)
.LBB6448:
.LBB6445:
	.loc 7 279 0
	fmul 13,13,12
.LVL1148:
	.loc 7 280 0
	frsp 13,13
.LVL1149:
.LBE6445:
.LBE6448:
	.loc 7 303 0
	fmuls 13,9,13
.LBE6450:
.LBE6452:
.LBE6454:
.LBE6459:
	.loc 2 333 0
	fcmpu 7,13,10
	bgt- 7,.L299
	.loc 2 337 0
	lis 9,.LC19@ha
	lfs 13,.LC19@l(9)
	fcmpu 7,0,13
	bgt- 7,.L299
	.loc 2 337 0 is_stmt 0 discriminator 1
	lis 9,.LC20@ha
	lfs 13,.LC20@l(9)
	fcmpu 7,0,13
	blt- 7,.L299
	.loc 2 342 0 is_stmt 1
	addi 8,31,184
.LVL1150:
	.loc 2 274 0
	addi 0,1,128
	.loc 8 465 0
	addi 10,1,92
	addi 6,31,492
.LVL1151:
.L293:
.LBB6460:
.LBB6461:
	.loc 8 467 0
	lfs 9,0(8)
	.loc 2 274 0
	mr 9,6
	.loc 8 467 0
	lfs 10,4(8)
.LBE6461:
.LBE6460:
	.loc 2 274 0
	li 11,0
.LBB6464:
.LBB6462:
	.loc 8 467 0
	lfs 11,8(8)
.LVL1152:
.L294:
.LBE6462:
.LBE6464:
	.loc 2 274 0
	addi 9,9,4
.LBB6465:
.LBB6463:
	.loc 8 468 0
	cmpwi 7,11,8
	.loc 8 471 0
	lfs 0,12(9)
	lfs 12,0(9)
	fmuls 0,10,0
	lfs 13,24(9)
	fmadds 0,12,9,0
	fmadds 0,13,11,0
	stfsx 0,10,11
	.loc 8 468 0
	addi 11,11,4
	bne+ 7,.L294
	addi 10,10,12
	.loc 8 474 0
	addi 8,8,12
.LVL1153:
	.loc 8 467 0
	cmpw 7,10,0
	bne+ 7,.L293
.LVL1154:
.LBE6463:
.LBE6465:
.LBB6466:
.LBB6467:
.LBB6468:
	.loc 4 402 0
	lfs 7,184(31)
.LVL1155:
.LBE6468:
.LBE6467:
.LBB6469:
.LBB6470:
	lwz 3,196(31)
.LVL1156:
.LBE6470:
.LBE6469:
.LBB6471:
.LBB6472:
	lwz 4,208(31)
.LVL1157:
.LBE6472:
.LBE6471:
.LBB6473:
.LBB6474:
	lwz 5,188(31)
.LVL1158:
.LBE6474:
.LBE6473:
.LBB6475:
.LBB6476:
	lwz 6,200(31)
.LVL1159:
.LBE6476:
.LBE6475:
.LBB6477:
.LBB6478:
	lwz 8,212(31)
.LVL1160:
.LBE6478:
.LBE6477:
.LBB6479:
.LBB6480:
	lwz 10,192(31)
.LVL1161:
.LBE6480:
.LBE6479:
.LBB6481:
.LBB6482:
	lwz 11,204(31)
.LVL1162:
.LBE6482:
.LBE6481:
.LBB6483:
.LBB6484:
	lwz 9,216(31)
.LVL1163:
.LBE6484:
.LBE6483:
.LBB6485:
.LBB6486:
	.loc 8 425 0
	stfs 7,56(1)
	stw 3,60(1)
	stw 4,64(1)
	.loc 8 426 0
	stw 5,68(1)
	stw 6,72(1)
	stw 8,76(1)
	.loc 8 427 0
	stw 10,80(1)
	stw 11,84(1)
	.loc 8 465 0
	addi 11,1,20
	.loc 8 427 0
	stw 9,88(1)
.LVL1164:
	.loc 2 342 0
	addi 9,1,92
.LVL1165:
.L296:
	.loc 8 427 0
	lfs 0,4(9)
.LBE6486:
.LBE6485:
.LBE6466:
.LBB6491:
.LBB6492:
	.loc 8 471 0
	lfs 12,68(1)
	lfs 13,72(1)
	lfs 11,76(1)
	fmuls 12,0,12
	fmuls 13,0,13
	lfs 9,60(1)
	fmuls 11,0,11
	lfs 10,64(1)
.LBE6492:
.LBE6491:
.LBB6495:
.LBB6489:
.LBB6487:
	.loc 8 427 0
	lfs 0,0(9)
.LBE6487:
.LBE6489:
.LBE6495:
.LBB6496:
.LBB6493:
	.loc 8 471 0
	lfs 8,80(1)
	fmadds 13,9,0,13
	lfs 9,84(1)
	fmadds 11,0,10,11
	lfs 10,88(1)
	fmadds 12,7,0,12
.LBE6493:
.LBE6496:
.LBB6497:
.LBB6490:
.LBB6488:
	.loc 8 427 0
	lfs 0,8(9)
.LBE6488:
.LBE6490:
.LBE6497:
.LBB6498:
.LBB6494:
	.loc 8 474 0
	addi 9,9,12
.LVL1166:
	.loc 8 467 0
	cmpw 7,0,9
	.loc 8 471 0
	fmadds 13,9,0,13
	fmadds 12,8,0,12
	fmadds 0,10,0,11
	stfs 13,4(11)
	stfs 12,0(11)
.LVL1167:
	stfs 0,8(11)
.LVL1168:
	addi 11,11,12
.LVL1169:
	.loc 8 467 0
	bne+ 7,.L296
	li 10,0
.LVL1170:
.L297:
.LBE6494:
.LBE6498:
.LBB6499:
.LBB6500:
.LBB6501:
.LBB6502:
	.loc 4 424 0
	addi 11,1,20
.LBE6502:
.LBE6501:
	.loc 8 333 0
	cmpwi 7,10,24
.LBB6505:
.LBB6503:
	.loc 4 424 0
	lwzux 8,11,10
	mr 9,0
	stwux 8,9,10
.LBE6503:
.LBE6505:
	.loc 8 333 0
	addi 10,10,12
.LBB6506:
.LBB6504:
	.loc 4 425 0
	lwz 8,4(11)
	.loc 4 426 0
	lwz 11,8(11)
	.loc 4 425 0
	stw 8,4(9)
	.loc 4 426 0
	stw 11,8(9)
.LBE6504:
.LBE6506:
	.loc 8 333 0
	bne+ 7,.L297
.LVL1171:
.LBE6500:
.LBE6499:
.LBB6507:
.LBB6508:
	.loc 8 454 0
	lfs 12,236(31)
	lfs 0,144(1)
	lfs 11,140(1)
	fmuls 0,12,0
	lfs 13,232(31)
	fmuls 11,12,11
	lfs 10,132(1)
	lfs 9,128(1)
	fmadds 10,13,10,0
	lfs 0,240(31)
	fmadds 11,9,13,11
	lfs 9,156(1)
	fmadds 10,0,9,10
	lfs 9,148(1)
	fmuls 12,12,9
	lfs 9,152(1)
.LBE6508:
.LBE6507:
.LBB6512:
.LBB6513:
	.loc 4 636 0
	fmuls 10,10,10
.LBE6513:
.LBE6512:
.LBB6514:
.LBB6509:
	.loc 8 454 0
	fmadds 11,9,0,11
	lfs 9,136(1)
	fmadds 13,13,9,12
	lfs 9,160(1)
.LBE6509:
.LBE6514:
	.loc 4 636 0
	fmadds 11,11,11,10
	.loc 2 346 0
	lfs 12,.LC13@l(7)
.LBB6515:
.LBB6510:
	.loc 8 454 0
	fmadds 0,0,9,13
.LVL1172:
.LBE6510:
.LBE6515:
	.loc 4 636 0
	fmadds 0,0,0,11
.LVL1173:
	.loc 2 346 0
	fcmpu 7,0,12
	mfcr 3
	rlwinm 3,3,30,1
.LBB6516:
.LBB6511:
	.loc 2 274 0
	xori 3,3,1
	b .L299
.LVL1174:
.L303:
.LBE6511:
.LBE6516:
	.loc 2 300 0
	li 3,0
.L299:
.LBE6517:
	.loc 2 351 0
	lwz 0,1524(1)
	lwz 25,1484(1)
	mtlr 0
	lwz 26,1488(1)
	lwz 27,1492(1)
	lwz 28,1496(1)
	lwz 29,1500(1)
	lwz 30,1504(1)
	lwz 31,1508(1)
.LVL1175:
	lfd 31,1512(1)
	addi 1,1,1520
	.cfi_remember_state
.LCFI96:
	.cfi_def_cfa_offset 0
	.cfi_restore 63
	.cfi_restore 31
	.cfi_restore 30
	.cfi_restore 29
	.cfi_restore 28
	.cfi_restore 27
	.cfi_restore 26
	.cfi_restore 25
	blr
.LVL1176:
.L301:
.LCFI97:
	.cfi_restore_state
	lwz 0,1524(1)
.LBB6518:
	.loc 2 282 0
	li 3,1
.LVL1177:
.LBE6518:
	.loc 2 351 0
	lwz 25,1484(1)
	mtlr 0
	lwz 26,1488(1)
	lwz 27,1492(1)
	lwz 28,1496(1)
	lwz 29,1500(1)
	lwz 30,1504(1)
	lwz 31,1508(1)
.LVL1178:
	lfd 31,1512(1)
	addi 1,1,1520
	.cfi_remember_state
	.cfi_restore 25
	.cfi_restore 26
	.cfi_restore 27
	.cfi_restore 28
	.cfi_restore 29
	.cfi_restore 30
	.cfi_restore 31
	.cfi_restore 63
.LCFI98:
	.cfi_def_cfa_offset 0
	blr
.LVL1179:
.L309:
.LCFI99:
	.cfi_restore_state
	mr 31,3
.LVL1180:
.LBB6519:
	.loc 2 350 0
	addi 3,1,164
	bl _ZN14idFixedWindingD1Ev
	mr 3,31
.LEHB4:
	bl _Unwind_Resume
.LEHE4:
.LBE6519:
	.cfi_endproc
.LFE2821:
	.section	.gcc_except_table
.LLSDA2821:
	.byte	0xff
	.byte	0xff
	.byte	0x1
	.uleb128 .LLSDACSE2821-.LLSDACSB2821
.LLSDACSB2821:
	.uleb128 .LEHB3-.LFB2821
	.uleb128 .LEHE3-.LEHB3
	.uleb128 .L309-.LFB2821
	.uleb128 0
	.uleb128 .LEHB4-.LFB2821
	.uleb128 .LEHE4-.LEHB4
	.uleb128 0
	.uleb128 0
.LLSDACSE2821:
	.section	".text"
	.size	_ZNK19idPhysics_RigidBody12TestIfAtRestEv, .-_ZNK19idPhysics_RigidBody12TestIfAtRestEv
	.align 2
	.globl _ZN19idPhysics_RigidBody9DebugDrawEv
	.type	_ZN19idPhysics_RigidBody9DebugDrawEv, @function
_ZN19idPhysics_RigidBody9DebugDrawEv:
.LFB2829:
	.loc 2 406 0
	.cfi_startproc
.LVL1181:
	mflr 0
	stwu 1,-112(1)
.LCFI100:
	.cfi_def_cfa_offset 112
	.cfi_register 65, 0
.LBB6520:
.LBB6521:
.LBB6522:
	.loc 2 408 0
	lis 9,rb_showBodies+44@ha
.LBE6522:
.LBE6521:
.LBE6520:
	.loc 2 406 0
	stw 31,108(1)
	mr 31,3
	.cfi_offset 31, -4
	stw 0,116(1)
	stw 28,96(1)
	stw 29,100(1)
	stw 30,104(1)
.LBB6540:
.LBB6524:
.LBB6523:
	.file 14 "d:/Data/Nintendo/DoomGX/src/game/physics/../../idlib/../framework/CVarSystem.h"
	.loc 14 142 0
	lwz 9,rb_showBodies+44@l(9)
.LBE6523:
.LBE6524:
	.loc 2 408 0
	lwz 0,36(9)
	.cfi_offset 30, -8
	.cfi_offset 29, -12
	.cfi_offset 28, -16
	.cfi_offset 65, 4
	cmpwi 7,0,0
	beq- 7,.L322
.L316:
	.loc 2 409 0 discriminator 5
	lis 9,collisionModelManager@ha
	lwz 3,436(31)
.LVL1182:
	lwz 29,collisionModelManager@l(9)
	lwz 9,0(29)
	lwz 30,76(9)
	bl _ZNK11idClipModel6HandleEv
	lwz 6,436(31)
.LVL1183:
	lis 7,vec3_origin@ha
	lis 9,.LC5@ha
	mr 4,3
	addi 5,6,16
	mr 3,29
	addi 6,6,28
	la 7,vec3_origin@l(7)
	lfs 1,.LC5@l(9)
	mtctr 30
	bctrl
.LVL1184:
.L317:
.LBB6525:
.LBB6526:
	.loc 2 412 0
	lis 9,rb_showMass+44@ha
	.loc 14 142 0
	lwz 9,rb_showMass+44@l(9)
.LBE6526:
.LBE6525:
	.loc 2 412 0
	lwz 0,36(9)
	cmpwi 7,0,0
	bne- 7,.L323
.L318:
.LBB6528:
.LBB6529:
.LBB6530:
	.loc 2 416 0
	lis 9,rb_showInertia+44@ha
	.loc 14 142 0
	lwz 9,rb_showInertia+44@l(9)
.LBE6530:
.LBE6529:
	.loc 2 416 0
	lwz 0,36(9)
	cmpwi 7,0,0
	bne- 7,.L324
.L319:
.LBE6528:
.LBB6534:
.LBB6535:
	.loc 2 425 0
	lis 9,rb_showVelocity+44@ha
	.loc 14 142 0
	lwz 9,rb_showVelocity+44@l(9)
.LBE6535:
.LBE6534:
	.loc 2 425 0
	lwz 0,36(9)
	cmpwi 7,0,0
	beq+ 7,.L315
	.loc 2 1542 0
	lwz 9,436(31)
	.loc 2 426 0
	mr 3,31
	lwz 4,8(9)
	lis 9,.LC18@ha
	lfs 1,.LC18@l(9)
	lis 9,.LC25@ha
	lfs 2,.LC25@l(9)
	bl _ZNK14idPhysics_Base12DrawVelocityEiff
.L315:
.LBE6540:
	.loc 2 428 0
	lwz 0,116(1)
	lwz 28,96(1)
	mtlr 0
	lwz 29,100(1)
	lwz 30,104(1)
	lwz 31,108(1)
.LVL1185:
	addi 1,1,112
	.cfi_remember_state
.LCFI101:
	.cfi_def_cfa_offset 0
	.cfi_restore 31
	.cfi_restore 30
	.cfi_restore 29
	.cfi_restore 28
	blr
.LVL1186:
.L322:
.LCFI102:
	.cfi_restore_state
.LBB6541:
.LBB6536:
.LBB6537:
	.loc 2 408 0 discriminator 2
	lis 9,rb_showActive+44@ha
	.loc 14 142 0 discriminator 2
	lwz 9,rb_showActive+44@l(9)
.LBE6537:
.LBE6536:
	.loc 2 408 0 discriminator 2
	lwz 0,36(9)
	cmpwi 7,0,0
	beq- 7,.L317
	.loc 2 408 0 is_stmt 0 discriminator 3
	lwz 0,68(3)
	cmpwi 7,0,0
	blt- 7,.L316
.LBB6538:
.LBB6527:
	.loc 2 412 0 is_stmt 1
	lis 9,rb_showMass+44@ha
	.loc 14 142 0
	lwz 9,rb_showMass+44@l(9)
.LBE6527:
.LBE6538:
	.loc 2 412 0
	lwz 0,36(9)
	cmpwi 7,0,0
	beq+ 7,.L318
.LVL1187:
.L323:
	.loc 2 413 0
	lis 9,gameRenderWorld@ha
	lfs 1,440(31)
	lwz 29,gameRenderWorld@l(9)
	lis 3,.LC21@ha
	la 3,.LC21@l(3)
	lwz 9,0(29)
	lwz 30,204(9)
	creqv 6,6,6
	bl _Z2vaPKcz
	mr 28,3
	lis 3,gameLocal@ha
	la 3,gameLocal@l(3)
	bl _ZNK11idGameLocal14GetLocalPlayerEv
	addi 4,3,4644
	addi 3,1,52
	bl _ZNK8idAngles6ToMat3Ev
	lis 9,.LC22@ha
	lis 6,colorCyan@ha
	lfs 1,.LC22@l(9)
	mr 3,29
	li 9,0
	mr 4,28
	addi 5,31,172
	la 6,colorCyan@l(6)
	addi 7,1,52
	li 8,1
	li 10,0
	mtctr 30
	bctrl
.LBB6539:
.LBB6532:
.LBB6531:
	.loc 2 416 0
	lis 9,rb_showInertia+44@ha
	.loc 14 142 0
	lwz 9,rb_showInertia+44@l(9)
.LBE6531:
.LBE6532:
	.loc 2 416 0
	lwz 0,36(9)
	cmpwi 7,0,0
	beq+ 7,.L319
.L324:
.LVL1188:
.LBB6533:
	.loc 2 422 0
	lis 9,gameRenderWorld@ha
	.loc 2 421 0
	lfs 1,460(31)
	.loc 2 422 0
	lwz 29,gameRenderWorld@l(9)
	.loc 2 421 0
	lis 3,.LC23@ha
	lfs 2,464(31)
	la 3,.LC23@l(3)
	.loc 2 422 0
	lwz 9,0(29)
	.loc 2 421 0
	lfs 3,468(31)
	lfs 4,472(31)
	lfs 5,476(31)
	lfs 6,480(31)
	lfs 7,484(31)
	lfs 8,488(31)
	lfs 0,492(31)
	.loc 2 422 0
	lwz 30,204(9)
.LVL1189:
	.loc 2 421 0
	stfd 0,8(1)
	creqv 6,6,6
	bl _Z2vaPKcz
	mr 28,3
	.loc 2 422 0
	lis 3,gameLocal@ha
	la 3,gameLocal@l(3)
	bl _ZNK11idGameLocal14GetLocalPlayerEv
	addi 4,3,4644
	addi 3,1,16
	bl _ZNK8idAngles6ToMat3Ev
	lis 9,.LC24@ha
	lis 6,colorCyan@ha
	lfs 1,.LC24@l(9)
	mr 3,29
	mr 4,28
	addi 5,31,172
	la 6,colorCyan@l(6)
	addi 7,1,16
	li 8,1
	li 9,0
	li 10,0
	mtctr 30
	bctrl
	b .L319
.LBE6533:
.LBE6539:
.LBE6541:
	.cfi_endproc
.LFE2829:
	.size	_ZN19idPhysics_RigidBody9DebugDrawEv, .-_ZN19idPhysics_RigidBody9DebugDrawEv
	.align 2
	.globl _Z30idPhysics_RigidBody_SavePStateP10idSaveGameRK17rigidBodyPState_s
	.type	_Z30idPhysics_RigidBody_SavePStateP10idSaveGameRK17rigidBodyPState_s, @function
_Z30idPhysics_RigidBody_SavePStateP10idSaveGameRK17rigidBodyPState_s:
.LFB2845:
	.loc 2 499 0
	.cfi_startproc
.LVL1190:
	mflr 0
	stwu 1,-16(1)
.LCFI103:
	.cfi_def_cfa_offset 16
	.cfi_register 65, 0
	stw 30,8(1)
	mr 30,3
	.cfi_offset 30, -8
	stw 0,20(1)
	stw 31,12(1)
	.loc 2 499 0
	mr 31,4
	.cfi_offset 31, -4
	.cfi_offset 65, 4
	.loc 2 500 0
	lwz 4,0(4)
.LVL1191:
	bl _ZN10idSaveGame8WriteIntEi
.LVL1192:
	.loc 2 501 0
	lfs 1,4(31)
	mr 3,30
	bl _ZN10idSaveGame10WriteFloatEf
	.loc 2 502 0
	mr 3,30
	addi 4,31,8
	bl _ZN10idSaveGame9WriteVec3ERK6idVec3
	.loc 2 503 0
	mr 3,30
	addi 4,31,20
	bl _ZN10idSaveGame9WriteMat3ERK6idMat3
	.loc 2 504 0
	mr 3,30
	addi 4,31,56
	bl _ZN10idSaveGame9WriteVec6ERK6idVec6
	.loc 2 505 0
	mr 3,30
	addi 4,31,80
	bl _ZN10idSaveGame9WriteVec3ERK6idVec3
	.loc 2 506 0
	mr 3,30
	addi 4,31,92
	bl _ZN10idSaveGame9WriteVec3ERK6idVec3
	.loc 2 508 0
	mr 3,30
	addi 4,31,104
	bl _ZN10idSaveGame9WriteVec3ERK6idVec3
	.loc 2 509 0
	mr 3,30
	addi 4,31,116
	bl _ZN10idSaveGame9WriteMat3ERK6idMat3
	.loc 2 510 0
	mr 3,30
	addi 4,31,152
	bl _ZN10idSaveGame9WriteVec3ERK6idVec3
	.loc 2 511 0
	mr 3,30
	addi 4,31,164
	bl _ZN10idSaveGame9WriteVec3ERK6idVec3
	.loc 2 512 0
	lwz 0,20(1)
	lwz 30,8(1)
.LVL1193:
	mtlr 0
	lwz 31,12(1)
.LVL1194:
	addi 1,1,16
.LCFI104:
	.cfi_def_cfa_offset 0
	.cfi_restore 31
	.cfi_restore 30
	blr
	.cfi_endproc
.LFE2845:
	.size	_Z30idPhysics_RigidBody_SavePStateP10idSaveGameRK17rigidBodyPState_s, .-_Z30idPhysics_RigidBody_SavePStateP10idSaveGameRK17rigidBodyPState_s
	.align 2
	.globl _ZNK19idPhysics_RigidBody4SaveEP10idSaveGame
	.type	_ZNK19idPhysics_RigidBody4SaveEP10idSaveGame, @function
_ZNK19idPhysics_RigidBody4SaveEP10idSaveGame:
.LFB2847:
	.loc 2 539 0
	.cfi_startproc
.LVL1195:
	stwu 1,-16(1)
.LCFI105:
	.cfi_def_cfa_offset 16
	mflr 0
	stw 31,12(1)
	mr 31,3
	.cfi_offset 31, -4
	.cfi_register 65, 0
	stw 30,8(1)
	.loc 2 541 0
	mr 3,4
.LVL1196:
	.loc 2 539 0
	mr 30,4
	.cfi_offset 30, -8
	.loc 2 541 0
	addi 4,31,68
.LVL1197:
	.loc 2 539 0
	stw 0,20(1)
	.loc 2 541 0
	.cfi_offset 65, 4
	bl _Z30idPhysics_RigidBody_SavePStateP10idSaveGameRK17rigidBodyPState_s
.LVL1198:
	.loc 2 542 0
	addi 4,31,244
	mr 3,30
	bl _Z30idPhysics_RigidBody_SavePStateP10idSaveGameRK17rigidBodyPState_s
	.loc 2 544 0
	lfs 1,420(31)
	mr 3,30
	bl _ZN10idSaveGame10WriteFloatEf
	.loc 2 545 0
	lfs 1,424(31)
	mr 3,30
	bl _ZN10idSaveGame10WriteFloatEf
	.loc 2 546 0
	lfs 1,428(31)
	mr 3,30
	bl _ZN10idSaveGame10WriteFloatEf
	.loc 2 547 0
	lfs 1,432(31)
	mr 3,30
	bl _ZN10idSaveGame10WriteFloatEf
	.loc 2 548 0
	lwz 4,436(31)
	mr 3,30
	bl _ZN10idSaveGame14WriteClipModelEPK11idClipModel
	.loc 2 550 0
	lfs 1,440(31)
	mr 3,30
	bl _ZN10idSaveGame10WriteFloatEf
	.loc 2 551 0
	lfs 1,444(31)
	mr 3,30
	bl _ZN10idSaveGame10WriteFloatEf
	.loc 2 552 0
	mr 3,30
	addi 4,31,448
	bl _ZN10idSaveGame9WriteVec3ERK6idVec3
	.loc 2 553 0
	mr 3,30
	addi 4,31,460
	bl _ZN10idSaveGame9WriteMat3ERK6idMat3
	.loc 2 554 0
	mr 3,30
	addi 4,31,496
	bl _ZN10idSaveGame9WriteMat3ERK6idMat3
	.loc 2 556 0
	lbz 4,536(31)
	mr 3,30
	bl _ZN10idSaveGame9WriteBoolEb
	.loc 2 557 0
	lbz 4,537(31)
	mr 3,30
	bl _ZN10idSaveGame9WriteBoolEb
	.loc 2 558 0
	lbz 4,538(31)
	mr 3,30
	bl _ZN10idSaveGame9WriteBoolEb
	.loc 2 559 0
	lbz 4,539(31)
	mr 3,30
	bl _ZN10idSaveGame9WriteBoolEb
	.loc 2 561 0
	lbz 4,540(31)
	mr 3,30
	bl _ZN10idSaveGame9WriteBoolEb
	.loc 2 562 0
	lbz 4,541(31)
	mr 3,30
	bl _ZN10idSaveGame9WriteBoolEb
	.loc 2 563 0
	lwz 0,20(1)
	lwz 30,8(1)
.LVL1199:
	mtlr 0
	lwz 31,12(1)
.LVL1200:
	addi 1,1,16
.LCFI106:
	.cfi_def_cfa_offset 0
	.cfi_restore 31
	.cfi_restore 30
	blr
	.cfi_endproc
.LFE2847:
	.size	_ZNK19idPhysics_RigidBody4SaveEP10idSaveGame, .-_ZNK19idPhysics_RigidBody4SaveEP10idSaveGame
	.align 2
	.globl _Z33idPhysics_RigidBody_RestorePStateP13idRestoreGameR17rigidBodyPState_s
	.type	_Z33idPhysics_RigidBody_RestorePStateP13idRestoreGameR17rigidBodyPState_s, @function
_Z33idPhysics_RigidBody_RestorePStateP13idRestoreGameR17rigidBodyPState_s:
.LFB2846:
	.loc 2 519 0
	.cfi_startproc
.LVL1201:
	stwu 1,-16(1)
.LCFI107:
	.cfi_def_cfa_offset 16
	mflr 0
	stw 30,8(1)
	mr 30,3
	.cfi_offset 30, -8
	.cfi_register 65, 0
	stw 31,12(1)
	mr 31,4
	.cfi_offset 31, -4
	stw 0,20(1)
	.loc 2 520 0
	.cfi_offset 65, 4
	bl _ZN13idRestoreGame7ReadIntERi
.LVL1202:
	.loc 2 521 0
	mr 3,30
	addi 4,31,4
	bl _ZN13idRestoreGame9ReadFloatERf
	.loc 2 522 0
	mr 3,30
	addi 4,31,8
	bl _ZN13idRestoreGame8ReadVec3ER6idVec3
	.loc 2 523 0
	mr 3,30
	addi 4,31,20
	bl _ZN13idRestoreGame8ReadMat3ER6idMat3
	.loc 2 524 0
	mr 3,30
	addi 4,31,56
	bl _ZN13idRestoreGame8ReadVec6ER6idVec6
	.loc 2 525 0
	mr 3,30
	addi 4,31,80
	bl _ZN13idRestoreGame8ReadVec3ER6idVec3
	.loc 2 526 0
	mr 3,30
	addi 4,31,92
	bl _ZN13idRestoreGame8ReadVec3ER6idVec3
	.loc 2 528 0
	mr 3,30
	addi 4,31,104
	bl _ZN13idRestoreGame8ReadVec3ER6idVec3
	.loc 2 529 0
	mr 3,30
	addi 4,31,116
	bl _ZN13idRestoreGame8ReadMat3ER6idMat3
	.loc 2 530 0
	mr 3,30
	addi 4,31,152
	bl _ZN13idRestoreGame8ReadVec3ER6idVec3
	.loc 2 531 0
	mr 3,30
	addi 4,31,164
	bl _ZN13idRestoreGame8ReadVec3ER6idVec3
	.loc 2 532 0
	lwz 0,20(1)
	lwz 30,8(1)
.LVL1203:
	mtlr 0
	lwz 31,12(1)
.LVL1204:
	addi 1,1,16
.LCFI108:
	.cfi_def_cfa_offset 0
	.cfi_restore 31
	.cfi_restore 30
	blr
	.cfi_endproc
.LFE2846:
	.size	_Z33idPhysics_RigidBody_RestorePStateP13idRestoreGameR17rigidBodyPState_s, .-_Z33idPhysics_RigidBody_RestorePStateP13idRestoreGameR17rigidBodyPState_s
	.align 2
	.globl _ZN19idPhysics_RigidBody7RestoreEP13idRestoreGame
	.type	_ZN19idPhysics_RigidBody7RestoreEP13idRestoreGame, @function
_ZN19idPhysics_RigidBody7RestoreEP13idRestoreGame:
.LFB2848:
	.loc 2 570 0
	.cfi_startproc
.LVL1205:
	stwu 1,-16(1)
.LCFI109:
	.cfi_def_cfa_offset 16
	mflr 0
	stw 31,12(1)
	mr 31,3
	.cfi_offset 31, -4
	.cfi_register 65, 0
	stw 30,8(1)
	.loc 2 572 0
	mr 3,4
.LVL1206:
	.loc 2 570 0
	mr 30,4
	.cfi_offset 30, -8
	.loc 2 572 0
	addi 4,31,68
.LVL1207:
	.loc 2 570 0
	stw 0,20(1)
	.loc 2 572 0
	.cfi_offset 65, 4
	bl _Z33idPhysics_RigidBody_RestorePStateP13idRestoreGameR17rigidBodyPState_s
.LVL1208:
	.loc 2 573 0
	mr 3,30
	addi 4,31,244
	bl _Z33idPhysics_RigidBody_RestorePStateP13idRestoreGameR17rigidBodyPState_s
	.loc 2 575 0
	mr 3,30
	addi 4,31,420
	bl _ZN13idRestoreGame9ReadFloatERf
	.loc 2 576 0
	mr 3,30
	addi 4,31,424
	bl _ZN13idRestoreGame9ReadFloatERf
	.loc 2 577 0
	mr 3,30
	addi 4,31,428
	bl _ZN13idRestoreGame9ReadFloatERf
	.loc 2 578 0
	mr 3,30
	addi 4,31,432
	bl _ZN13idRestoreGame9ReadFloatERf
	.loc 2 579 0
	mr 3,30
	addi 4,31,436
	bl _ZN13idRestoreGame13ReadClipModelERP11idClipModel
	.loc 2 581 0
	mr 3,30
	addi 4,31,440
	bl _ZN13idRestoreGame9ReadFloatERf
	.loc 2 582 0
	mr 3,30
	addi 4,31,444
	bl _ZN13idRestoreGame9ReadFloatERf
	.loc 2 583 0
	mr 3,30
	addi 4,31,448
	bl _ZN13idRestoreGame8ReadVec3ER6idVec3
	.loc 2 584 0
	mr 3,30
	addi 4,31,460
	bl _ZN13idRestoreGame8ReadMat3ER6idMat3
	.loc 2 585 0
	mr 3,30
	addi 4,31,496
	bl _ZN13idRestoreGame8ReadMat3ER6idMat3
	.loc 2 587 0
	mr 3,30
	addi 4,31,536
	bl _ZN13idRestoreGame8ReadBoolERb
	.loc 2 588 0
	mr 3,30
	addi 4,31,537
	bl _ZN13idRestoreGame8ReadBoolERb
	.loc 2 589 0
	mr 3,30
	addi 4,31,538
	bl _ZN13idRestoreGame8ReadBoolERb
	.loc 2 590 0
	mr 3,30
	addi 4,31,539
	bl _ZN13idRestoreGame8ReadBoolERb
	.loc 2 592 0
	mr 3,30
	addi 4,31,540
	bl _ZN13idRestoreGame8ReadBoolERb
	.loc 2 593 0
	mr 3,30
	addi 4,31,541
	bl _ZN13idRestoreGame8ReadBoolERb
	.loc 2 594 0
	lwz 0,20(1)
	lwz 30,8(1)
.LVL1209:
	mtlr 0
	lwz 31,12(1)
.LVL1210:
	addi 1,1,16
.LCFI110:
	.cfi_def_cfa_offset 0
	.cfi_restore 31
	.cfi_restore 30
	blr
	.cfi_endproc
.LFE2848:
	.size	_ZN19idPhysics_RigidBody7RestoreEP13idRestoreGame, .-_ZN19idPhysics_RigidBody7RestoreEP13idRestoreGame
	.align 2
	.globl _ZN19idPhysics_RigidBody11SetFrictionEfff
	.type	_ZN19idPhysics_RigidBody11SetFrictionEfff, @function
_ZN19idPhysics_RigidBody11SetFrictionEfff:
.LFB2854:
	.loc 2 698 0
	.cfi_startproc
.LVL1211:
	.loc 2 699 0
	lis 9,.LC5@ha
	lfs 0,.LC5@l(9)
	fcmpu 7,1,0
	bltlr- 7
	.loc 2 699 0 is_stmt 0 discriminator 1
	lis 9,.LC4@ha
	lfs 13,.LC4@l(9)
	fcmpu 7,1,13
	bgtlr- 7
	.loc 2 699 0 discriminator 2
	fcmpu 7,2,0
	bltlr- 7
	.loc 2 699 0 discriminator 3
	fcmpu 7,2,13
	bgtlr- 7
	.loc 2 699 0 discriminator 4
	fcmpu 7,3,0
	bltlr- 7
	.loc 2 699 0 discriminator 5
	fcmpu 7,3,13
	bgtlr- 7
	.loc 2 704 0 is_stmt 1
	stfs 1,420(3)
	.loc 2 705 0
	stfs 2,424(3)
	.loc 2 706 0
	stfs 3,428(3)
	blr
	.cfi_endproc
.LFE2854:
	.size	_ZN19idPhysics_RigidBody11SetFrictionEfff, .-_ZN19idPhysics_RigidBody11SetFrictionEfff
	.align 2
	.globl _ZN19idPhysics_RigidBodyC2Ev
	.type	_ZN19idPhysics_RigidBodyC2Ev, @function
_ZN19idPhysics_RigidBodyC2Ev:
.LFB2839:
	.loc 2 435 0
	.cfi_startproc
	.cfi_personality 0,__gxx_personality_v0
	.cfi_lsda 0,.LLSDA2839
.LVL1212:
	mflr 0
	stwu 1,-40(1)
.LCFI111:
	.cfi_def_cfa_offset 40
	.cfi_register 65, 0
	stw 31,36(1)
	mr 31,3
	.cfi_offset 31, -4
	stw 0,44(1)
	stw 25,12(1)
	stw 26,16(1)
	stw 27,20(1)
	stw 28,24(1)
	stw 29,28(1)
	stw 30,32(1)
.LEHB5:
.LBB6591:
	.loc 2 435 0
	.cfi_offset 30, -8
	.cfi_offset 29, -12
	.cfi_offset 28, -16
	.cfi_offset 27, -20
	.cfi_offset 26, -24
	.cfi_offset 25, -28
	.cfi_offset 65, 4
	bl _ZN14idPhysics_BaseC2Ev
.LEHE5:
.LVL1213:
	lis 9,_ZTV19idPhysics_RigidBody+8@ha
	.loc 2 437 0
	lis 3,.LC26@ha
	.loc 2 435 0
	la 0,_ZTV19idPhysics_RigidBody+8@l(9)
	.loc 2 437 0
	la 3,.LC26@l(3)
	.loc 2 435 0
	stw 0,0(31)
	.loc 2 437 0
	li 4,544
.LEHB6:
	crxor 6,6,6
	bl _Z15Sys_DebugPrintfPKcz
	.loc 2 442 0
	mr 3,31
	li 4,1
	li 5,-1
	bl _ZN14idPhysics_Base11SetClipMaskEii
.LVL1214:
.LBB6592:
.LBB6593:
	.loc 2 718 0
	lis 9,.LC27@ha
.LBE6593:
.LBE6592:
	.loc 2 444 0
	mr 3,31
.LBB6596:
.LBB6594:
	.loc 2 718 0
	lfs 0,.LC27@l(9)
.LBE6594:
.LBE6596:
	.loc 2 444 0
	lis 9,.LC5@ha
	lfs 3,.LC5@l(9)
	fmr 1,0
.LBB6597:
.LBB6595:
	.loc 2 718 0
	stfs 0,432(31)
.LBE6595:
.LBE6597:
	.loc 2 444 0
	fmr 2,0
	bl _ZN19idPhysics_RigidBody11SetFrictionEfff
	.loc 2 445 0
	li 0,0
	stw 0,436(31)
	.loc 2 447 0
	addi 3,31,68
	li 4,0
	li 5,176
	bl memset
	.loc 2 449 0
	li 0,-1
	.loc 2 450 0
	lis 9,.LC28@ha
	.loc 2 449 0
	stw 0,68(31)
	.loc 2 450 0
	lwz 0,.LC28@l(9)
	lis 9,mat3_identity@ha
.LBB6598:
.LBB6599:
.LBB6600:
	.loc 8 333 0
	addi 8,31,184
	li 10,0
.LBE6600:
.LBE6599:
.LBE6598:
	.loc 2 450 0
	stw 0,72(31)
.LVL1215:
	la 0,mat3_identity@l(9)
.L332:
.LBB6609:
.LBB6608:
.LBB6607:
.LBB6601:
.LBB6602:
	.loc 4 424 0
	mr 11,0
	mr 9,8
	lwzux 7,11,10
.LBE6602:
.LBE6601:
	.loc 8 333 0
	cmpwi 7,10,24
.LBB6605:
.LBB6603:
	.loc 4 424 0
	stwux 7,9,10
.LBE6603:
.LBE6605:
	.loc 8 333 0
	addi 10,10,12
.LBB6606:
.LBB6604:
	.loc 4 425 0
	lwz 7,4(11)
	stw 7,4(9)
	.loc 4 426 0
	lwz 11,8(11)
	stw 11,8(9)
.LBE6604:
.LBE6606:
	.loc 8 333 0
	bne+ 7,.L332
.LVL1216:
.LBE6607:
.LBE6608:
.LBE6609:
.LBB6610:
.LBB6611:
.LBB6612:
.LBB6613:
	.loc 4 424 0
	lwz 7,76(31)
.LBE6613:
.LBE6612:
.LBE6611:
.LBE6610:
.LBB6692:
.LBB6693:
	.loc 4 416 0
	li 9,0
.LBE6693:
.LBE6692:
.LBB6695:
.LBB6686:
.LBB6618:
.LBB6614:
	.loc 4 426 0
	lwz 11,84(31)
.LBE6614:
.LBE6618:
	.loc 10 55 0
	lwz 5,68(31)
	lwz 6,72(31)
.LBB6619:
.LBB6615:
	.loc 4 425 0
	lwz 10,80(31)
.LBE6615:
.LBE6619:
.LBE6686:
.LBE6695:
.LBB6696:
.LBB6694:
	.loc 4 416 0
	stw 9,228(31)
	stw 9,224(31)
	stw 9,220(31)
.LVL1217:
.LBE6694:
.LBE6696:
.LBB6697:
.LBB6698:
	stw 9,240(31)
	stw 9,236(31)
	stw 9,232(31)
.LVL1218:
.LBE6698:
.LBE6697:
.LBB6699:
.LBB6687:
.LBB6620:
.LBB6616:
	.loc 4 424 0
	stw 7,252(31)
	.loc 4 426 0
	stw 11,260(31)
.LBE6616:
.LBE6620:
	.loc 10 55 0
	stw 5,244(31)
.LBB6621:
.LBB6622:
	.loc 8 333 0
	addi 5,31,264
.LBE6622:
.LBE6621:
	.loc 10 55 0
	stw 6,248(31)
.LVL1219:
.LBB6631:
.LBB6629:
	.loc 8 333 0
	addi 6,31,88
.LBE6629:
.LBE6631:
.LBB6632:
.LBB6617:
	.loc 4 425 0
	stw 10,256(31)
.LBE6617:
.LBE6632:
.LBB6633:
.LBB6630:
	.loc 8 333 0
	li 10,0
.L333:
.LBB6623:
.LBB6624:
	.loc 4 424 0
	mr 11,6
	mr 9,5
	lwzux 7,11,10
.LBE6624:
.LBE6623:
	.loc 8 333 0
	cmpwi 7,10,24
.LBB6627:
.LBB6625:
	.loc 4 424 0
	stwux 7,9,10
.LBE6625:
.LBE6627:
	.loc 8 333 0
	addi 10,10,12
.LBB6628:
.LBB6626:
	.loc 4 425 0
	lwz 7,4(11)
	stw 7,4(9)
	.loc 4 426 0
	lwz 11,8(11)
	stw 11,8(9)
.LBE6626:
.LBE6628:
	.loc 8 333 0
	bne+ 7,.L333
.LBE6630:
.LBE6633:
	.loc 10 55 0
	lwz 25,124(31)
	lwz 26,128(31)
	lwz 27,132(31)
	lwz 28,136(31)
	lwz 12,140(31)
	lwz 29,144(31)
.LBB6634:
.LBB6635:
	.loc 4 424 0
	lwz 30,148(31)
	.loc 4 425 0
	lwz 3,152(31)
	.loc 4 426 0
	lwz 4,156(31)
.LBE6635:
.LBE6634:
.LBB6637:
.LBB6638:
	.loc 4 424 0
	lwz 5,160(31)
	.loc 4 426 0
	lwz 7,168(31)
.LBE6638:
.LBE6637:
.LBB6642:
.LBB6643:
.LBB6644:
	.loc 4 425 0
	lwz 11,176(31)
	.loc 4 426 0
	lwz 9,180(31)
.LBE6644:
.LBE6643:
.LBE6642:
.LBB6675:
.LBB6639:
	.loc 4 425 0
	lwz 6,164(31)
.LBE6639:
.LBE6675:
.LBB6676:
.LBB6648:
.LBB6645:
	.loc 4 424 0
	lwz 10,172(31)
.LBE6645:
.LBE6648:
.LBE6676:
	.loc 10 55 0
	stw 25,300(31)
	stw 26,304(31)
	stw 27,308(31)
	stw 28,312(31)
	stw 12,316(31)
	stw 29,320(31)
.LVL1220:
.LBB6677:
.LBB6636:
	.loc 4 424 0
	stw 30,324(31)
	.loc 4 425 0
	stw 3,328(31)
	.loc 4 426 0
	stw 4,332(31)
.LVL1221:
.LBE6636:
.LBE6677:
.LBB6678:
.LBB6640:
	.loc 4 424 0
	stw 5,336(31)
	.loc 4 426 0
	stw 7,344(31)
.LVL1222:
.LBE6640:
.LBE6678:
.LBB6679:
.LBB6649:
.LBB6646:
	.loc 4 425 0
	stw 11,352(31)
	.loc 4 426 0
	stw 9,356(31)
.LVL1223:
.LBE6646:
.LBE6649:
.LBE6679:
.LBB6680:
.LBB6641:
	.loc 4 425 0
	stw 6,340(31)
.LBE6641:
.LBE6680:
.LBB6681:
.LBB6650:
.LBB6651:
	.loc 8 333 0
	addi 6,31,360
.LBE6651:
.LBE6650:
.LBB6659:
.LBB6647:
	.loc 4 424 0
	stw 10,348(31)
.LBE6647:
.LBE6659:
.LBB6660:
.LBB6658:
	.loc 8 333 0
	li 10,0
.L334:
.LBB6652:
.LBB6653:
	.loc 4 424 0
	mr 11,8
	mr 9,6
	lwzux 7,11,10
.LBE6653:
.LBE6652:
	.loc 8 333 0
	cmpwi 7,10,24
.LBB6656:
.LBB6654:
	.loc 4 424 0
	stwux 7,9,10
.LBE6654:
.LBE6656:
	.loc 8 333 0
	addi 10,10,12
.LBB6657:
.LBB6655:
	.loc 4 425 0
	lwz 7,4(11)
	stw 7,4(9)
	.loc 4 426 0
	lwz 11,8(11)
	stw 11,8(9)
.LBE6655:
.LBE6657:
	.loc 8 333 0
	bne+ 7,.L334
.LVL1224:
.LBE6658:
.LBE6660:
.LBE6681:
.LBE6687:
.LBE6699:
	.loc 2 460 0
	lis 9,.LC4@ha
.LBB6700:
.LBB6688:
.LBB6682:
.LBB6661:
.LBB6662:
	.loc 4 424 0
	lwz 4,220(31)
.LBE6662:
.LBE6661:
.LBE6682:
.LBE6688:
.LBE6700:
	.loc 2 460 0
	lwz 11,.LC4@l(9)
.LBB6701:
.LBB6702:
	.loc 4 416 0
	li 9,0
.LBE6702:
.LBE6701:
.LBB6704:
.LBB6689:
.LBB6683:
.LBB6665:
.LBB6663:
	.loc 4 425 0
	lwz 5,224(31)
	.loc 4 426 0
	lwz 6,228(31)
.LBE6663:
.LBE6665:
.LBB6666:
.LBB6667:
	.loc 4 425 0
	lwz 8,236(31)
.LVL1225:
	.loc 4 424 0
	lwz 7,232(31)
	.loc 4 426 0
	lwz 10,240(31)
.LBE6667:
.LBE6666:
.LBB6671:
.LBB6664:
	.loc 4 424 0
	stw 4,396(31)
	.loc 4 425 0
	stw 5,400(31)
	.loc 4 426 0
	stw 6,404(31)
.LVL1226:
.LBE6664:
.LBE6671:
.LBB6672:
.LBB6668:
	.loc 4 425 0
	stw 8,412(31)
.LBE6668:
.LBE6672:
.LBE6683:
.LBE6689:
.LBE6704:
	.loc 2 460 0
	stw 11,440(31)
	.loc 2 461 0
	stw 11,444(31)
.LVL1227:
.LBB6705:
.LBB6703:
	.loc 4 416 0
	stw 9,456(31)
	stw 9,452(31)
	stw 9,448(31)
.LVL1228:
.LBE6703:
.LBE6705:
.LBB6706:
.LBB6690:
.LBB6684:
.LBB6673:
.LBB6669:
	.loc 4 424 0
	stw 7,408(31)
.LBE6669:
.LBE6673:
.LBE6684:
.LBE6690:
.LBE6706:
.LBB6707:
.LBB6708:
.LBB6709:
	.loc 8 333 0
	addi 7,31,460
.LBE6709:
.LBE6708:
.LBE6707:
.LBB6718:
.LBB6691:
.LBB6685:
.LBB6674:
.LBB6670:
	.loc 4 426 0
	stw 10,416(31)
.LBE6670:
.LBE6674:
.LBE6685:
.LBE6691:
.LBE6718:
.LBB6719:
.LBB6717:
.LBB6716:
	.loc 8 333 0
	li 10,0
.L335:
.LBB6710:
.LBB6711:
	.loc 4 424 0
	mr 11,0
	mr 9,7
	lwzux 8,11,10
.LBE6711:
.LBE6710:
	.loc 8 333 0
	cmpwi 7,10,24
.LBB6714:
.LBB6712:
	.loc 4 424 0
	stwux 8,9,10
.LBE6712:
.LBE6714:
	.loc 8 333 0
	addi 10,10,12
.LBB6715:
.LBB6713:
	.loc 4 425 0
	lwz 8,4(11)
	stw 8,4(9)
	.loc 4 426 0
	lwz 11,8(11)
	stw 11,8(9)
.LBE6713:
.LBE6715:
	.loc 8 333 0
	bne+ 7,.L335
.LVL1229:
.LBE6716:
.LBE6717:
.LBE6719:
.LBB6720:
.LBB6721:
.LBB6722:
	addi 7,31,496
	li 10,0
.L336:
.LBB6723:
.LBB6724:
	.loc 4 424 0
	mr 11,0
	mr 9,7
	lwzux 8,11,10
.LBE6724:
.LBE6723:
	.loc 8 333 0
	cmpwi 7,10,24
.LBB6727:
.LBB6725:
	.loc 4 424 0
	stwux 8,9,10
.LBE6725:
.LBE6727:
	.loc 8 333 0
	addi 10,10,12
.LBB6728:
.LBB6726:
	.loc 4 425 0
	lwz 8,4(11)
	stw 8,4(9)
	.loc 4 426 0
	lwz 11,8(11)
	stw 11,8(9)
.LBE6726:
.LBE6728:
	.loc 8 333 0
	bne+ 7,.L336
.LBE6722:
.LBE6721:
.LBE6720:
	.loc 2 467 0
	li 3,20
	bl _Znwj
.LEHE6:
	lis 5,_Z20RigidBodyDerivativesfPKvPKfPf@ha
	li 4,18
	la 5,_Z20RigidBodyDerivativesfPKvPKfPf@l(5)
	mr 6,31
	mr 30,3
.LEHB7:
	bl _ZN11idODE_EulerC1EiPFvfPKvPKfPfES1_
.LEHE7:
	.loc 2 469 0 discriminator 1
	li 0,0
	.loc 2 467 0 discriminator 1
	stw 30,532(31)
	.loc 2 469 0 discriminator 1
	stb 0,536(31)
	.loc 2 470 0 discriminator 1
	stb 0,538(31)
	.loc 2 471 0 discriminator 1
	stb 0,539(31)
	.loc 2 473 0 discriminator 1
	stb 0,540(31)
	.loc 2 474 0 discriminator 1
	stb 0,541(31)
.LBE6591:
	.loc 2 479 0 discriminator 1
	lwz 0,44(1)
	lwz 25,12(1)
	mtlr 0
	lwz 26,16(1)
	lwz 27,20(1)
	lwz 28,24(1)
	lwz 29,28(1)
	lwz 30,32(1)
	lwz 31,36(1)
.LVL1230:
	addi 1,1,40
	.cfi_remember_state
.LCFI112:
	.cfi_def_cfa_offset 0
	.cfi_restore 31
	.cfi_restore 30
	.cfi_restore 29
	.cfi_restore 28
	.cfi_restore 27
	.cfi_restore 26
	.cfi_restore 25
	blr
.LVL1231:
.L339:
.LCFI113:
	.cfi_restore_state
	mr 30,3
.L338:
.LBB6729:
	.loc 2 435 0
	mr 3,31
	bl _ZN14idPhysics_BaseD2Ev
	mr 3,30
.LEHB8:
	bl _Unwind_Resume
.LEHE8:
.LVL1232:
.L340:
	mr 29,3
	.loc 2 467 0
	mr 3,30
	bl _ZdlPv
	mr 30,29
	b .L338
.LBE6729:
	.cfi_endproc
.LFE2839:
	.section	.gcc_except_table
.LLSDA2839:
	.byte	0xff
	.byte	0xff
	.byte	0x1
	.uleb128 .LLSDACSE2839-.LLSDACSB2839
.LLSDACSB2839:
	.uleb128 .LEHB5-.LFB2839
	.uleb128 .LEHE5-.LEHB5
	.uleb128 0
	.uleb128 0
	.uleb128 .LEHB6-.LFB2839
	.uleb128 .LEHE6-.LEHB6
	.uleb128 .L339-.LFB2839
	.uleb128 0
	.uleb128 .LEHB7-.LFB2839
	.uleb128 .LEHE7-.LEHB7
	.uleb128 .L340-.LFB2839
	.uleb128 0
	.uleb128 .LEHB8-.LFB2839
	.uleb128 .LEHE8-.LEHB8
	.uleb128 0
	.uleb128 0
.LLSDACSE2839:
	.section	".text"
	.size	_ZN19idPhysics_RigidBodyC2Ev, .-_ZN19idPhysics_RigidBodyC2Ev
	.align 2
	.globl _ZN19idPhysics_RigidBody14CreateInstanceEv
	.type	_ZN19idPhysics_RigidBody14CreateInstanceEv, @function
_ZN19idPhysics_RigidBody14CreateInstanceEv:
.LFB2810:
	.loc 2 34 0
	.cfi_startproc
	.cfi_personality 0,__gxx_personality_v0
	.cfi_lsda 0,.LLSDA2810
	mflr 0
	stwu 1,-24(1)
.LCFI114:
	.cfi_def_cfa_offset 24
	.cfi_register 65, 0
.LBB6730:
	li 3,544
.LBE6730:
	stw 30,16(1)
	stw 0,28(1)
	stw 31,20(1)
.LEHB9:
.LBB6731:
	.loc 2 34 0
	.cfi_offset 31, -4
	.cfi_offset 65, 4
	.cfi_offset 30, -8
	bl _ZN7idClassnwEj
.LEHE9:
	mr 31,3
.LEHB10:
	bl _ZN19idPhysics_RigidBodyC1Ev
.LEHE10:
.LVL1233:
	.loc 2 34 0 is_stmt 0 discriminator 2
	mr 3,31
.LEHB11:
	bl _ZN7idClass23FindUninitializedMemoryEv
.LEHE11:
.LVL1234:
.L351:
.LBE6731:
	.loc 2 34 0
	lwz 0,28(1)
	mr 3,31
	lwz 30,16(1)
	mtlr 0
	lwz 31,20(1)
	addi 1,1,24
	.cfi_remember_state
.LCFI115:
	.cfi_def_cfa_offset 0
	.cfi_restore 31
	.cfi_restore 30
	blr
.L352:
.L348:
.LCFI116:
	.cfi_restore_state
.LBB6732:
	cmpwi 7,4,1
	beq- 7,.L350
.LEHB12:
	bl _Unwind_Resume
.LEHE12:
.L353:
	mr 30,3
	mr 3,31
	stw 4,8(1)
	bl _ZN7idClassdlEPv
	mr 3,30
	lwz 4,8(1)
	b .L348
.L350:
.LBE6732:
.LBB6733:
	bl __cxa_begin_catch
	li 31,0
	bl __cxa_end_catch
	b .L351
.LBE6733:
	.cfi_endproc
.LFE2810:
	.section	.gcc_except_table
	.align 2
.LLSDA2810:
	.byte	0xff
	.byte	0
	.uleb128 .LLSDATT2810-.LLSDATTD2810
.LLSDATTD2810:
	.byte	0x1
	.uleb128 .LLSDACSE2810-.LLSDACSB2810
.LLSDACSB2810:
	.uleb128 .LEHB9-.LFB2810
	.uleb128 .LEHE9-.LEHB9
	.uleb128 .L352-.LFB2810
	.uleb128 0x1
	.uleb128 .LEHB10-.LFB2810
	.uleb128 .LEHE10-.LEHB10
	.uleb128 .L353-.LFB2810
	.uleb128 0x3
	.uleb128 .LEHB11-.LFB2810
	.uleb128 .LEHE11-.LEHB11
	.uleb128 .L352-.LFB2810
	.uleb128 0x1
	.uleb128 .LEHB12-.LFB2810
	.uleb128 .LEHE12-.LEHB12
	.uleb128 0
	.uleb128 0
.LLSDACSE2810:
	.byte	0x1
	.byte	0
	.byte	0
	.byte	0x7d
	.align 2
	.long	_ZTI12idAllocError
.LLSDATT2810:
	.section	".text"
	.size	_ZN19idPhysics_RigidBody14CreateInstanceEv, .-_ZN19idPhysics_RigidBody14CreateInstanceEv
	.align 2
	.globl _ZN19idPhysics_RigidBody13SetBouncynessEf
	.type	_ZN19idPhysics_RigidBody13SetBouncynessEf, @function
_ZN19idPhysics_RigidBody13SetBouncynessEf:
.LFB2855:
	.loc 2 714 0 is_stmt 1
	.cfi_startproc
.LVL1235:
	.loc 2 715 0
	lis 9,.LC5@ha
	lfs 0,.LC5@l(9)
	fcmpu 7,1,0
	bltlr- 7
	.loc 2 715 0 is_stmt 0 discriminator 1
	lis 9,.LC4@ha
	lfs 0,.LC4@l(9)
	fcmpu 7,1,0
	bgtlr- 7
	.loc 2 718 0 is_stmt 1
	stfs 1,432(3)
	blr
	.cfi_endproc
.LFE2855:
	.size	_ZN19idPhysics_RigidBody13SetBouncynessEf, .-_ZN19idPhysics_RigidBody13SetBouncynessEf
	.align 2
	.globl _ZN19idPhysics_RigidBody4RestEv
	.type	_ZN19idPhysics_RigidBody4RestEv, @function
_ZN19idPhysics_RigidBody4RestEv:
.LFB2856:
	.loc 2 726 0
	.cfi_startproc
.LVL1236:
	mflr 0
	stwu 1,-8(1)
.LCFI117:
	.cfi_def_cfa_offset 8
	.cfi_register 65, 0
	.loc 2 727 0
	lis 9,gameLocal+2426836@ha
	.loc 2 730 0
	li 4,2
	.loc 2 726 0
	stw 0,12(1)
	.loc 2 727 0
	lwz 0,gameLocal+2426836@l(9)
	.cfi_offset 65, 4
.LBB6734:
.LBB6735:
	.loc 4 416 0
	li 9,0
	stw 9,228(3)
.LBE6735:
.LBE6734:
	.loc 2 727 0
	stw 0,68(3)
.LVL1237:
.LBB6737:
.LBB6736:
	.loc 4 416 0
	stw 9,224(3)
	stw 9,220(3)
.LVL1238:
.LBE6736:
.LBE6737:
.LBB6738:
.LBB6739:
	stw 9,240(3)
	stw 9,236(3)
	stw 9,232(3)
.LBE6739:
.LBE6738:
	.loc 2 730 0
	lwz 3,4(3)
.LVL1239:
	bl _ZN8idEntity14BecomeInactiveEi
	.loc 2 731 0
	lwz 0,12(1)
	addi 1,1,8
.LCFI118:
	.cfi_def_cfa_offset 0
	mtlr 0
	blr
	.cfi_endproc
.LFE2856:
	.size	_ZN19idPhysics_RigidBody4RestEv, .-_ZN19idPhysics_RigidBody4RestEv
	.align 2
	.globl _ZN19idPhysics_RigidBody9PutToRestEv
	.type	_ZN19idPhysics_RigidBody9PutToRestEv, @function
_ZN19idPhysics_RigidBody9PutToRestEv:
.LFB2860:
	.loc 2 769 0
	.cfi_startproc
.LVL1240:
	.loc 2 771 0
	.loc 2 770 0
	b _ZN19idPhysics_RigidBody4RestEv
.LVL1241:
	.cfi_endproc
.LFE2860:
	.size	_ZN19idPhysics_RigidBody9PutToRestEv, .-_ZN19idPhysics_RigidBody9PutToRestEv
	.align 2
	.globl _ZN19idPhysics_RigidBody18DropToFloorAndRestEv
	.type	_ZN19idPhysics_RigidBody18DropToFloorAndRestEv, @function
_ZN19idPhysics_RigidBody18DropToFloorAndRestEv:
.LFB2822:
	.loc 2 360 0
	.cfi_startproc
.LVL1242:
	mflr 0
	stwu 1,-160(1)
.LCFI119:
	.cfi_def_cfa_offset 160
	.cfi_register 65, 0
	stw 31,156(1)
	mr 31,3
	.cfi_offset 31, -4
	stw 0,164(1)
	stw 27,140(1)
	stw 28,144(1)
	stw 29,148(1)
	stw 30,152(1)
.LBB6740:
	.loc 2 364 0
	lbz 0,537(3)
	.cfi_offset 30, -8
	.cfi_offset 29, -12
	.cfi_offset 28, -16
	.cfi_offset 27, -20
	.cfi_offset 65, 4
	cmpwi 7,0,0
	bne- 7,.L364
	lis 29,gameLocal+2311032@ha
	addi 28,3,172
	la 29,gameLocal+2311032@l(29)
	addi 30,3,184
.LVL1243:
.L359:
	.loc 4 452 0
	lis 9,.LC30@ha
	lfs 8,28(31)
	lfs 0,.LC30@l(9)
	.loc 2 379 0
	addi 4,1,20
	.loc 4 452 0
	lfs 9,32(31)
	.loc 2 379 0
	mr 5,28
.LBB6741:
.LBB6742:
	.loc 4 452 0
	lfs 10,24(31)
.LBE6742:
.LBE6741:
	.loc 2 379 0
	addi 6,1,8
.LBB6746:
.LBB6743:
	.loc 4 452 0
	lfs 11,172(31)
.LBE6743:
.LBE6746:
	.loc 2 379 0
	mr 8,30
	.loc 4 452 0
	lfs 12,176(31)
	.loc 2 379 0
	mr 3,29
	.loc 4 452 0
	lfs 13,180(31)
	fmadds 12,8,0,12
	.loc 2 379 0
	lwz 7,436(31)
	.loc 4 452 0
	fmadds 13,9,0,13
.LVL1244:
	.loc 2 379 0
	lwz 9,8(31)
.LBB6747:
.LBB6744:
	.loc 4 452 0
	fmadds 0,10,0,11
.LBE6744:
.LBE6747:
	.loc 2 379 0
	lwz 10,4(31)
.LBB6748:
.LBB6745:
	.loc 4 425 0
	stfs 12,12(1)
	.loc 4 426 0
	stfs 13,16(1)
	.loc 4 424 0
	stfs 0,8(1)
.LBE6745:
.LBE6748:
	.loc 2 379 0
	bl _ZN6idClip11TranslationER7trace_sRK6idVec3S4_PK11idClipModelRK6idMat3iPK8idEntity
.LVL1245:
.LBB6749:
.LBB6750:
	.loc 4 424 0
	lwz 0,24(1)
.LBE6750:
.LBE6749:
	.loc 2 381 0
	li 9,-1
	lwz 3,436(31)
	mr 4,29
.LBB6754:
.LBB6751:
	.loc 4 424 0
	stw 0,172(31)
.LBE6751:
.LBE6754:
	.loc 2 381 0
	addi 7,1,24
.LBB6755:
.LBB6752:
	.loc 4 425 0
	lwz 0,28(1)
.LBE6752:
.LBE6755:
	.loc 2 381 0
	mr 8,30
	lwz 5,4(31)
.LBB6756:
.LBB6753:
	.loc 4 425 0
	stw 0,176(31)
	.loc 4 426 0
	lwz 0,32(1)
	stw 0,180(31)
.LBE6753:
.LBE6756:
	.loc 2 381 0
	lwz 6,8(3)
	bl _ZN11idClipModel4LinkER6idClipP8idEntityiRK6idVec3RK6idMat3i
	.loc 2 384 0
	lis 9,.LC5@ha
	lfs 13,20(1)
	lfs 0,.LC5@l(9)
	fcmpu 7,13,0
	bne- 7,.L361
	.loc 2 386 0
	lwz 9,0(31)
	mr 3,31
	lwz 0,196(9)
	mtctr 0
	bctrl
	.loc 2 387 0
	mr 3,31
	bl _ZNK19idPhysics_RigidBody12TestIfAtRestEv
	cmpwi 7,3,0
	bne+ 7,.L365
	.loc 2 389 0
	lwz 9,4(31)
	lwz 11,0(9)
	mr 3,9
	.loc 2 1542 0
	lwz 29,72(9)
	.loc 2 389 0
	lwz 0,0(11)
	mtctr 0
	bctrl
	li 4,0
	lwz 30,0(3)
	mr 3,28
	bl _ZNK6idVec38ToStringEi
	lis 4,.LC31@ha
	mr 7,3
	lis 3,gameLocal@ha
	la 3,gameLocal@l(3)
	la 4,.LC31@l(4)
	mr 5,29
	mr 6,30
	crxor 6,6,6
	bl _ZNK11idGameLocal8DWarningEPKcz
.L365:
	.loc 2 396 0
	mr 3,31
	bl _ZN19idPhysics_RigidBody4RestEv
	.loc 2 397 0
	li 0,0
	stb 0,536(31)
.LBE6740:
	.loc 2 399 0
	lwz 0,164(1)
	lwz 27,140(1)
	mtlr 0
	lwz 28,144(1)
	lwz 29,148(1)
	lwz 30,152(1)
	lwz 31,156(1)
.LVL1246:
	addi 1,1,160
	.cfi_remember_state
	.cfi_restore 27
	.cfi_restore 28
	.cfi_restore 29
	.cfi_restore 30
	.cfi_restore 31
.LCFI120:
	.cfi_def_cfa_offset 0
	blr
.LVL1247:
.L364:
.LCFI121:
	.cfi_restore_state
.LBB6757:
	.loc 2 366 0
	li 27,0
	.loc 2 368 0
	lis 29,gameLocal+2311032@ha
	.loc 2 366 0
	stb 27,537(3)
	.loc 2 368 0
	addi 28,3,172
	addi 30,3,184
	lwz 5,436(3)
	lwz 7,8(3)
	la 29,gameLocal+2311032@l(29)
	lwz 8,4(3)
	mr 4,28
	mr 3,29
.LVL1248:
	mr 6,30
	bl _ZN6idClip8ContentsERK6idVec3PK11idClipModelRK6idMat3iPK8idEntity
	cmpwi 7,3,0
	beq+ 7,.L359
	.loc 2 370 0
	lwz 9,4(31)
	lwz 11,0(9)
	mr 3,9
	.loc 2 1542 0
	lwz 29,72(9)
	.loc 2 370 0
	lwz 0,0(11)
	mtctr 0
	bctrl
	li 4,0
	lwz 30,0(3)
	mr 3,28
	bl _ZNK6idVec38ToStringEi
	lis 4,.LC29@ha
	mr 7,3
	lis 3,gameLocal@ha
	mr 5,29
	mr 6,30
	la 4,.LC29@l(4)
	la 3,gameLocal@l(3)
	crxor 6,6,6
	bl _ZNK11idGameLocal8DWarningEPKcz
	.loc 2 371 0
	mr 3,31
	bl _ZN19idPhysics_RigidBody4RestEv
	.loc 2 372 0
	stb 27,536(31)
.LBE6757:
	.loc 2 399 0
	lwz 0,164(1)
	lwz 27,140(1)
	mtlr 0
	lwz 28,144(1)
	lwz 29,148(1)
	lwz 30,152(1)
	lwz 31,156(1)
.LVL1249:
	addi 1,1,160
	.cfi_remember_state
	.cfi_restore 27
	.cfi_restore 28
	.cfi_restore 29
	.cfi_restore 30
	.cfi_restore 31
.LCFI122:
	.cfi_def_cfa_offset 0
	blr
.LVL1250:
.L361:
.LCFI123:
	.cfi_restore_state
.LBB6758:
	.loc 2 393 0
	mr 3,31
	bl _ZNK14idPhysics_Base14IsOutsideWorldEv
	cmpwi 7,3,0
	bne- 7,.L366
.LBE6758:
	.loc 2 399 0
	lwz 0,164(1)
	lwz 27,140(1)
	mtlr 0
	lwz 28,144(1)
	lwz 29,148(1)
	lwz 30,152(1)
	lwz 31,156(1)
.LVL1251:
	addi 1,1,160
	.cfi_remember_state
.LCFI124:
	.cfi_def_cfa_offset 0
	.cfi_restore 31
	.cfi_restore 30
	.cfi_restore 29
	.cfi_restore 28
	.cfi_restore 27
	blr
.LVL1252:
.L366:
.LCFI125:
	.cfi_restore_state
.LBB6759:
	.loc 2 395 0
	lwz 9,4(31)
	lwz 11,0(9)
	mr 3,9
	.loc 2 1542 0
	lwz 29,72(9)
	.loc 2 395 0
	lwz 0,0(11)
	mtctr 0
	bctrl
	li 4,0
	lwz 30,0(3)
	mr 3,28
	bl _ZNK6idVec38ToStringEi
	lis 4,.LC32@ha
	mr 7,3
	lis 3,gameLocal@ha
	la 4,.LC32@l(4)
	mr 5,29
	mr 6,30
	la 3,gameLocal@l(3)
	crxor 6,6,6
	bl _ZNK11idGameLocal7WarningEPKcz
	b .L365
.LBE6759:
	.cfi_endproc
.LFE2822:
	.size	_ZN19idPhysics_RigidBody18DropToFloorAndRestEv, .-_ZN19idPhysics_RigidBody18DropToFloorAndRestEv
	.align 2
	.globl _ZN19idPhysics_RigidBody8EvaluateEii
	.type	_ZN19idPhysics_RigidBody8EvaluateEii, @function
_ZN19idPhysics_RigidBody8EvaluateEii:
.LFB2867:
	.loc 2 836 0
	.cfi_startproc
.LVL1253:
	mflr 0
	stwu 1,-672(1)
.LCFI126:
	.cfi_def_cfa_offset 672
	.cfi_register 65, 0
.LBB6906:
	.loc 2 847 0
	xoris 4,4,0x8000
.LVL1254:
	lis 9,.LC11@ha
	stw 4,524(1)
.LBE6906:
	.loc 2 836 0
	mfcr 12
	stw 0,676(1)
.LBB7295:
	.loc 2 847 0
	lis 0,0x4330
	.cfi_offset 65, 4
	.cfi_register 70, 12
	stw 0,520(1)
.LBE7295:
	.loc 2 836 0
	stfd 31,664(1)
.LBB7296:
	.loc 2 847 0
	lfs 0,.LC11@l(9)
	lis 9,_ZN6idMath8M_MS2SECE@ha
	lfd 31,520(1)
	.cfi_offset 63, -8
.LBE7296:
	.loc 2 836 0
	stw 31,564(1)
	mr 31,3
	.cfi_offset 31, -108
.LBB7297:
	.loc 2 847 0
	fsub 31,31,0
.LBE7297:
	.loc 2 836 0
	stfd 19,568(1)
	stfd 20,576(1)
	stfd 21,584(1)
	stfd 22,592(1)
.LBB7298:
	.loc 2 847 0
	frsp 31,31
.LBE7298:
	.loc 2 836 0
	stfd 23,600(1)
	stfd 24,608(1)
	stfd 25,616(1)
	stfd 26,624(1)
	stfd 27,632(1)
	stfd 28,640(1)
	stfd 29,648(1)
	stfd 30,656(1)
	stw 24,536(1)
	stw 25,540(1)
	stw 26,544(1)
	stw 27,548(1)
	stw 28,552(1)
	stw 29,556(1)
	stw 30,560(1)
	stw 12,532(1)
.LBB7299:
	.loc 2 847 0
	lfs 0,_ZN6idMath8M_MS2SECE@l(9)
	.loc 2 850 0
	lbz 0,540(3)
	.loc 2 847 0
	fmuls 31,31,0
.LVL1255:
	.loc 2 850 0
	cmpwi 7,0,0
	.loc 2 848 0
	stfs 31,72(3)
	.loc 2 850 0
	beq- 7,.L368
	.cfi_offset 70, -140
	.cfi_offset 30, -112
	.cfi_offset 29, -116
	.cfi_offset 28, -120
	.cfi_offset 27, -124
	.cfi_offset 26, -128
	.cfi_offset 25, -132
	.cfi_offset 24, -136
	.cfi_offset 62, -16
	.cfi_offset 61, -24
	.cfi_offset 60, -32
	.cfi_offset 59, -40
	.cfi_offset 58, -48
	.cfi_offset 57, -56
	.cfi_offset 56, -64
	.cfi_offset 55, -72
	.cfi_offset 54, -80
	.cfi_offset 53, -88
	.cfi_offset 52, -96
	.cfi_offset 51, -104
.LVL1256:
.LBB6907:
.LBB6908:
	.loc 4 424 0
	lfs 29,172(3)
.LVL1257:
.LBE6908:
.LBE6907:
.LBB6911:
.LBB6912:
	.loc 8 333 0
	addi 30,3,184
.LBE6912:
.LBE6911:
.LBB6922:
.LBB6909:
	.loc 4 425 0
	lfs 28,176(3)
.LVL1258:
.LBE6909:
.LBE6922:
.LBB6923:
.LBB6919:
	.loc 8 333 0
	li 10,0
.LBE6919:
.LBE6923:
.LBB6924:
.LBB6910:
	.loc 4 426 0
	lfs 26,180(3)
.LVL1259:
.L369:
.LBE6910:
.LBE6924:
.LBB6925:
.LBB6920:
.LBB6913:
.LBB6914:
	.loc 4 424 0
	mr 11,30
.LBE6914:
.LBE6913:
	.loc 8 333 0
	cmpwi 7,10,24
.LBB6917:
.LBB6915:
	.loc 4 424 0
	lwzux 0,11,10
	addi 9,1,200
	stwux 0,9,10
.LBE6915:
.LBE6917:
	.loc 8 333 0
	addi 10,10,12
.LBB6918:
.LBB6916:
	.loc 4 425 0
	lwz 8,4(11)
	.loc 4 426 0
	lwz 0,8(11)
	.loc 4 425 0
	stw 8,4(9)
	.loc 4 426 0
	stw 0,8(9)
.LBE6916:
.LBE6918:
	.loc 8 333 0
	bne+ 7,.L369
.LBE6920:
.LBE6925:
	.loc 2 853 0
	addi 29,1,164
	lwz 3,4(31)
.LVL1260:
	addi 4,1,32
.LVL1261:
	mr 5,29
.LVL1262:
	bl _ZNK8idEntity17GetMasterPositionER6idVec3R6idMat3
.LVL1263:
.LBB6926:
.LBB6927:
.LBB6928:
	.loc 8 454 0
	lfs 0,80(31)
	lfs 11,180(1)
.LBE6928:
.LBE6927:
.LBE6926:
.LBB6937:
.LBB6938:
	.loc 8 333 0
	addi 11,31,88
.LBE6938:
.LBE6937:
.LBB6956:
.LBB6933:
.LBB6929:
	.loc 8 454 0
	lfs 13,184(1)
.LBE6929:
.LBE6933:
.LBE6956:
.LBB6957:
.LBB6951:
	.loc 8 333 0
	li 8,0
.LBE6951:
.LBE6957:
.LBB6958:
.LBB6934:
.LBB6930:
	.loc 8 454 0
	lfs 10,176(1)
	fmuls 11,0,11
	fmuls 13,0,13
.LBE6930:
.LBE6934:
.LBE6958:
.LBB6959:
.LBB6960:
	lfs 9,168(1)
.LBE6960:
.LBE6959:
.LBB6966:
.LBB6935:
.LBB6931:
	fmuls 10,0,10
	lfs 0,76(31)
	lfs 12,164(1)
.LBE6931:
.LBE6935:
.LBE6966:
.LBB6967:
.LBB6961:
	fmadds 11,0,9,11
	lfs 9,172(1)
	fmadds 10,12,0,10
.LBE6961:
.LBE6967:
	.loc 2 855 0
	lbz 0,541(31)
.LBB6968:
.LBB6962:
	.loc 8 454 0
	fmadds 13,0,9,13
.LBE6962:
.LBE6968:
.LBB6969:
.LBB6936:
.LBB6932:
	lfs 0,84(31)
