	.file	"Physics_Parametric.cpp"
	.section	".text"
.Ltext0:
	.section	.text._ZN14idFixedWinding5ClearEv,"axG",@progbits,_ZN14idFixedWinding5ClearEv,comdat
	.align 2
	.weak	_ZN14idFixedWinding5ClearEv
	.type	_ZN14idFixedWinding5ClearEv, @function
_ZN14idFixedWinding5ClearEv:
.LFB1502:
	.file 1 "d:/Data/Nintendo/DoomGX/src/game/physics/../../idlib/../idlib/geometry/Winding.h"
	.loc 1 398 0
	.cfi_startproc
.LVL0:
	.loc 1 399 0
	li 0,0
	.loc 1 400 0
	.loc 1 399 0
	stw 0,4(3)
	.loc 1 400 0
	blr
	.cfi_endproc
.LFE1502:
	.size	_ZN14idFixedWinding5ClearEv, .-_ZN14idFixedWinding5ClearEv
	.section	".text"
	.align 2
	.globl _ZNK20idPhysics_Parametric7GetTypeEv
	.type	_ZNK20idPhysics_Parametric7GetTypeEv, @function
_ZNK20idPhysics_Parametric7GetTypeEv:
.LFB2811:
	.file 2 "d:/Data/Nintendo/DoomGX/src/game/physics/Physics_Parametric.cpp"
	.loc 2 34 0
	.cfi_startproc
.LVL1:
	.loc 2 34 0
	lis 3,.LANCHOR0@ha
.LVL2:
	la 3,.LANCHOR0@l(3)
	blr
	.cfi_endproc
.LFE2811:
	.size	_ZNK20idPhysics_Parametric7GetTypeEv, .-_ZNK20idPhysics_Parametric7GetTypeEv
	.align 2
	.globl _ZNK20idPhysics_Parametric12GetClipModelEi
	.type	_ZNK20idPhysics_Parametric12GetClipModelEi, @function
_ZNK20idPhysics_Parametric12GetClipModelEi:
.LFB2860:
	.loc 2 496 0
	.cfi_startproc
.LVL3:
	.loc 2 498 0
	lwz 3,1056(3)
.LVL4:
	blr
	.cfi_endproc
.LFE2860:
	.size	_ZNK20idPhysics_Parametric12GetClipModelEi, .-_ZNK20idPhysics_Parametric12GetClipModelEi
	.align 2
	.globl _ZNK20idPhysics_Parametric16GetNumClipModelsEv
	.type	_ZNK20idPhysics_Parametric16GetNumClipModelsEv, @function
_ZNK20idPhysics_Parametric16GetNumClipModelsEv:
.LFB2861:
	.loc 2 505 0
	.cfi_startproc
.LVL5:
	.loc 2 506 0
	lwz 3,1056(3)
.LVL6:
	.loc 2 507 0
	.loc 2 506 0
	cntlzw 3,3
	srwi 3,3,5
	.loc 2 507 0
	xori 3,3,1
	blr
	.cfi_endproc
.LFE2861:
	.size	_ZNK20idPhysics_Parametric16GetNumClipModelsEv, .-_ZNK20idPhysics_Parametric16GetNumClipModelsEv
	.align 2
	.globl _ZN20idPhysics_Parametric7SetMassEfi
	.type	_ZN20idPhysics_Parametric7SetMassEfi, @function
_ZN20idPhysics_Parametric7SetMassEfi:
.LFB2862:
	.loc 2 514 0
	.cfi_startproc
.LVL7:
	.loc 2 515 0
	blr
	.cfi_endproc
.LFE2862:
	.size	_ZN20idPhysics_Parametric7SetMassEfi, .-_ZN20idPhysics_Parametric7SetMassEfi
	.align 2
	.globl _ZNK20idPhysics_Parametric7GetMassEi
	.type	_ZNK20idPhysics_Parametric7GetMassEi, @function
_ZNK20idPhysics_Parametric7GetMassEi:
.LFB2863:
	.loc 2 522 0
	.cfi_startproc
.LVL8:
	.loc 2 524 0
	lis 9,.LC0@ha
	lfs 1,.LC0@l(9)
	blr
	.cfi_endproc
.LFE2863:
	.size	_ZNK20idPhysics_Parametric7GetMassEi, .-_ZNK20idPhysics_Parametric7GetMassEi
	.align 2
	.globl _ZN20idPhysics_Parametric11SetContentsEii
	.type	_ZN20idPhysics_Parametric11SetContentsEii, @function
_ZN20idPhysics_Parametric11SetContentsEii:
.LFB2864:
	.loc 2 531 0
	.cfi_startproc
.LVL9:
	.loc 2 532 0
	lwz 9,1056(3)
	cmpwi 7,9,0
	beqlr- 7
.LVL10:
.LBB3325:
.LBB3326:
	.file 3 "d:/Data/Nintendo/DoomGX/src/game/physics/../physics/Clip.h"
	.loc 3 167 0
	stw 4,116(9)
	blr
.LBE3326:
.LBE3325:
	.cfi_endproc
.LFE2864:
	.size	_ZN20idPhysics_Parametric11SetContentsEii, .-_ZN20idPhysics_Parametric11SetContentsEii
	.align 2
	.globl _ZNK20idPhysics_Parametric11GetContentsEi
	.type	_ZNK20idPhysics_Parametric11GetContentsEi, @function
_ZNK20idPhysics_Parametric11GetContentsEi:
.LFB2865:
	.loc 2 542 0
	.cfi_startproc
.LVL11:
	.loc 2 543 0
	lwz 9,1056(3)
	.loc 2 546 0
	li 3,0
.LVL12:
	.loc 2 543 0
	cmpwi 7,9,0
	beqlr- 7
	.loc 2 1185 0
	lwz 3,116(9)
	.loc 2 547 0
	blr
	.cfi_endproc
.LFE2865:
	.size	_ZNK20idPhysics_Parametric11GetContentsEi, .-_ZNK20idPhysics_Parametric11GetContentsEi
	.align 2
	.globl _ZN20idPhysics_Parametric10UpdateTimeEi
	.type	_ZN20idPhysics_Parametric10UpdateTimeEi, @function
_ZN20idPhysics_Parametric10UpdateTimeEi:
.LFB2869:
	.loc 2 666 0
	.cfi_startproc
.LVL13:
.LBB3327:
	.loc 2 667 0
	lwz 0,68(3)
	.loc 2 671 0
	lis 9,.LC2@ha
.LBE3327:
	.loc 2 666 0
	stwu 1,-24(1)
.LCFI0:
	.cfi_def_cfa_offset 24
.LBB3442:
.LBB3328:
.LBB3329:
	.file 4 "d:/Data/Nintendo/DoomGX/src/game/physics/../../idlib/../idlib/math/Extrapolate.h"
	.loc 4 59 0
	lis 8,.LC3@ha
.LBE3329:
.LBE3328:
	.loc 2 667 0
	subf 0,0,4
.LVL14:
	.loc 2 671 0
	lfs 0,.LC2@l(9)
	xoris 0,0,0x8000
.LVL15:
	lfs 10,164(3)
	stw 0,12(1)
	lis 0,0x4330
.LVL16:
	stw 0,8(1)
.LBB3332:
.LBB3333:
.LBB3334:
.LBB3335:
.LBB3336:
	.loc 4 104 0
	li 9,0
.LBE3336:
.LBE3335:
.LBE3334:
.LBE3333:
.LBE3332:
	.loc 2 672 0
	lfs 11,228(3)
.LBB3365:
.LBB3360:
.LBB3355:
.LBB3350:
.LBB3345:
	.loc 4 103 0
	li 11,1
.LBE3345:
.LBE3350:
.LBE3355:
.LBE3360:
.LBE3365:
	.loc 2 671 0
	lfd 13,8(1)
	.loc 2 673 0
	lfs 12,288(3)
	.loc 2 671 0
	fsub 13,13,0
	.loc 2 674 0
	lfs 0,392(3)
.LBB3366:
.LBB3330:
	.loc 4 59 0
	lwz 0,.LC3@l(8)
.LBE3330:
.LBE3366:
.LBB3367:
.LBB3361:
.LBB3356:
.LBB3351:
.LBB3346:
.LBB3337:
.LBB3338:
	.file 5 "d:/Data/Nintendo/DoomGX/src/game/physics/../../idlib/../idlib/math/Vector.h"
	.loc 5 426 0
	lwz 10,348(3)
.LBE3338:
.LBE3337:
.LBE3346:
.LBE3351:
.LBE3356:
.LBE3361:
.LBE3367:
	.loc 2 671 0
	frsp 13,13
.LVL17:
.LBE3442:
	.loc 2 666 0
	stw 31,20(1)
.LBB3443:
.LBB3368:
.LBB3362:
.LBB3357:
.LBB3352:
.LBB3347:
.LBB3340:
.LBB3339:
	.loc 5 425 0
	lwz 12,344(3)
	.loc 5 424 0
	lwz 31,340(3)
	.cfi_offset 31, -4
.LBE3339:
.LBE3340:
.LBE3347:
.LBE3352:
.LBE3357:
.LBE3362:
.LBE3368:
	.loc 2 671 0
	fadds 10,10,13
.LBB3369:
.LBB3370:
.LBB3371:
.LBB3372:
.LBB3373:
.LBB3374:
.LBB3375:
	.file 6 "d:/Data/Nintendo/DoomGX/src/game/physics/../../idlib/../idlib/math/Angles.h"
	.loc 6 146 0
	lwz 5,444(3)
.LBE3375:
.LBE3374:
.LBE3373:
.LBE3372:
.LBE3371:
.LBE3370:
.LBE3369:
	.loc 2 672 0
	fadds 11,11,13
.LBB3402:
.LBB3397:
.LBB3392:
.LBB3387:
.LBB3382:
.LBB3378:
.LBB3376:
	.loc 6 147 0
	lwz 6,448(3)
.LBE3376:
.LBE3378:
.LBE3382:
.LBE3387:
.LBE3392:
.LBE3397:
.LBE3402:
	.loc 2 673 0
	fadds 12,12,13
.LBB3403:
.LBB3398:
.LBB3393:
.LBB3388:
.LBB3383:
.LBB3379:
.LBB3377:
	.loc 6 148 0
	lwz 7,452(3)
.LBE3377:
.LBE3379:
.LBE3383:
.LBE3388:
.LBE3393:
.LBE3398:
.LBE3403:
	.loc 2 674 0
	fadds 0,0,13
.LBB3404:
.LBB3363:
.LBB3358:
.LBB3353:
.LBB3348:
.LBB3341:
.LBB3342:
	.loc 5 426 0
	stw 10,388(3)
.LBE3342:
.LBE3341:
.LBE3348:
.LBE3353:
.LBE3358:
.LBE3363:
.LBE3404:
	.loc 2 669 0
	stw 4,68(3)
.LBB3405:
.LBB3331:
	.loc 4 59 0
	stfs 10,164(3)
	stw 0,208(3)
.LVL18:
.LBE3331:
.LBE3405:
.LBB3406:
.LBB3407:
	stfs 11,228(3)
	stw 0,272(3)
.LVL19:
.LBE3407:
.LBE3406:
.LBB3408:
.LBB3364:
	.file 7 "d:/Data/Nintendo/DoomGX/src/game/physics/../../idlib/../idlib/math/Interpolate.h"
	.loc 7 135 0
	stfs 12,288(3)
.LVL20:
.LBB3359:
.LBB3354:
.LBB3349:
	.loc 4 103 0
	stw 11,328(3)
	.loc 4 104 0
	stw 9,332(3)
	.loc 4 105 0
	stw 9,336(3)
.LVL21:
	.loc 4 109 0
	stw 0,376(3)
.LVL22:
.LBB3344:
.LBB3343:
	.loc 5 424 0
	stw 31,380(3)
	.loc 5 425 0
	stw 12,384(3)
.LBE3343:
.LBE3344:
.LBE3349:
.LBE3354:
.LBE3359:
.LBE3364:
.LBE3408:
.LBB3409:
.LBB3399:
	.loc 7 135 0
	stfs 0,392(3)
.LVL23:
.LBB3394:
.LBB3389:
.LBB3384:
	.loc 4 103 0
	stw 11,432(3)
	.loc 4 104 0
	stw 9,436(3)
.LBE3384:
.LBE3389:
.LBE3394:
.LBE3399:
.LBE3409:
	.loc 2 675 0
	lwz 10,496(3)
.LBB3410:
.LBB3400:
.LBB3395:
.LBB3390:
.LBB3385:
	.loc 4 105 0
	stw 9,440(3)
.LVL24:
.LBE3385:
.LBE3390:
.LBE3395:
.LBE3400:
.LBE3410:
	.loc 2 675 0
	cmpwi 7,10,0
.LBB3411:
.LBB3401:
.LBB3396:
.LBB3391:
.LBB3386:
	.loc 4 109 0
	stw 0,480(3)
.LVL25:
.LBB3380:
.LBB3381:
	.loc 6 146 0
	stw 5,484(3)
	.loc 6 147 0
	stw 6,488(3)
	.loc 6 148 0
	stw 7,492(3)
.LBE3381:
.LBE3380:
.LBE3386:
.LBE3391:
.LBE3396:
.LBE3401:
.LBE3411:
	.loc 2 675 0
	beq- 7,.L13
.LVL26:
.LBB3412:
.LBB3413:
.LBB3414:
	.file 8 "d:/Data/Nintendo/DoomGX/src/game/physics/../../idlib/../idlib/math/Curve.h"
	.loc 8 361 0
	lwz 0,4(10)
	cmpwi 7,0,0
	ble- 7,.L15
	li 9,0
.LVL27:
.L16:
.LBB3415:
.LBB3416:
	.file 9 "d:/Data/Nintendo/DoomGX/src/game/physics/../../idlib/../idlib/containers/List.h"
	.loc 9 589 0
	lwz 11,16(10)
	.loc 2 666 0
	slwi 0,9,2
.LBE3416:
.LBE3415:
	.loc 8 361 0
	addi 9,9,1
.LVL28:
	.loc 8 362 0
	lfsx 0,11,0
	fadds 0,0,13
	stfsx 0,11,0
	.loc 8 361 0
	lwz 0,4(10)
	cmpw 7,9,0
	blt+ 7,.L16
.LVL29:
.L15:
.LBE3414:
	.loc 8 364 0
	li 0,1
.LBE3413:
.LBE3412:
.LBB3418:
.LBB3419:
.LBB3420:
.LBB3421:
.LBB3422:
	.loc 4 109 0
	lwz 11,.LC3@l(8)
.LBE3422:
.LBE3421:
.LBE3420:
.LBE3419:
.LBE3418:
.LBB3438:
.LBB3417:
	.loc 8 364 0
	stb 0,40(10)
.LVL30:
.LBE3417:
.LBE3438:
.LBB3439:
.LBB3435:
.LBB3431:
.LBB3427:
.LBB3423:
	.loc 4 104 0
	li 0,0
	.loc 4 103 0
	li 10,1
	.loc 4 104 0
	stw 0,528(3)
.LBE3423:
.LBE3427:
.LBE3431:
.LBE3435:
.LBE3439:
	.loc 2 677 0
	lfs 0,500(3)
.LBB3440:
.LBB3436:
.LBB3432:
.LBB3428:
.LBB3424:
	.loc 4 106 0
	lwz 9,536(3)
.LBE3424:
.LBE3428:
.LBE3432:
.LBE3436:
.LBE3440:
	.loc 2 677 0
	fadds 13,0,13
.LVL31:
.LBB3441:
.LBB3437:
.LBB3433:
.LBB3429:
.LBB3425:
	.loc 4 103 0
	stw 10,524(3)
	.loc 4 105 0
	stw 0,532(3)
	.loc 4 109 0
	stw 11,548(3)
.LBE3425:
.LBE3429:
.LBE3433:
	.loc 7 135 0
	stfs 13,500(3)
.LVL32:
.LBB3434:
.LBB3430:
.LBB3426:
	.loc 4 110 0
	stw 9,552(3)
.LVL33:
.L13:
.LBE3426:
.LBE3430:
.LBE3434:
.LBE3437:
.LBE3441:
.LBE3443:
	.loc 2 679 0
	lwz 31,20(1)
	addi 1,1,24
.LCFI1:
	.cfi_def_cfa_offset 0
	.cfi_restore 31
	blr
	.cfi_endproc
.LFE2869:
	.size	_ZN20idPhysics_Parametric10UpdateTimeEi, .-_ZN20idPhysics_Parametric10UpdateTimeEi
	.align 2
	.globl _ZNK20idPhysics_Parametric7GetTimeEv
	.type	_ZNK20idPhysics_Parametric7GetTimeEv, @function
_ZNK20idPhysics_Parametric7GetTimeEv:
.LFB2870:
	.loc 2 686 0
	.cfi_startproc
.LVL34:
	.loc 2 688 0
	lwz 3,68(3)
.LVL35:
	blr
	.cfi_endproc
.LFE2870:
	.size	_ZNK20idPhysics_Parametric7GetTimeEv, .-_ZNK20idPhysics_Parametric7GetTimeEv
	.align 2
	.globl _ZNK20idPhysics_Parametric8IsAtRestEv
	.type	_ZNK20idPhysics_Parametric8IsAtRestEv, @function
_ZNK20idPhysics_Parametric8IsAtRestEv:
.LFB2871:
	.loc 2 695 0
	.cfi_startproc
.LVL36:
	.loc 2 696 0
	lwz 3,72(3)
.LVL37:
	.loc 2 697 0
	.loc 2 696 0
	nor 3,3,3
	.loc 2 697 0
	srwi 3,3,31
	blr
	.cfi_endproc
.LFE2871:
	.size	_ZNK20idPhysics_Parametric8IsAtRestEv, .-_ZNK20idPhysics_Parametric8IsAtRestEv
	.align 2
	.globl _ZNK20idPhysics_Parametric16GetRestStartTimeEv
	.type	_ZNK20idPhysics_Parametric16GetRestStartTimeEv, @function
_ZNK20idPhysics_Parametric16GetRestStartTimeEv:
.LFB2872:
	.loc 2 704 0
	.cfi_startproc
.LVL38:
	.loc 2 706 0
	lwz 3,72(3)
.LVL39:
	blr
	.cfi_endproc
.LFE2872:
	.size	_ZNK20idPhysics_Parametric16GetRestStartTimeEv, .-_ZNK20idPhysics_Parametric16GetRestStartTimeEv
	.align 2
	.globl _ZNK20idPhysics_Parametric10IsPushableEv
	.type	_ZNK20idPhysics_Parametric10IsPushableEv, @function
_ZNK20idPhysics_Parametric10IsPushableEv:
.LFB2873:
	.loc 2 713 0
	.cfi_startproc
.LVL40:
	.loc 2 715 0
	li 3,0
.LVL41:
	blr
	.cfi_endproc
.LFE2873:
	.size	_ZNK20idPhysics_Parametric10IsPushableEv, .-_ZNK20idPhysics_Parametric10IsPushableEv
	.align 2
	.globl _ZN20idPhysics_Parametric9SaveStateEv
	.type	_ZN20idPhysics_Parametric9SaveStateEv, @function
_ZN20idPhysics_Parametric9SaveStateEv:
.LFB2874:
	.loc 2 722 0
	.cfi_startproc
.LVL42:
	mflr 0
	stwu 1,-40(1)
.LCFI2:
	.cfi_def_cfa_offset 40
	.cfi_register 65, 0
	stw 31,36(1)
	mr 31,3
	.cfi_offset 31, -4
.LVL43:
	stw 0,44(1)
	stw 25,12(1)
	stw 26,16(1)
	stw 27,20(1)
	stw 28,24(1)
	stw 29,28(1)
	stw 30,32(1)
.LBB3510:
.LBB3511:
	.file 10 "d:/Data/Nintendo/DoomGX/src/game/physics/../physics/Physics_Parametric.h"
	.loc 10 45 0
	lwz 5,68(3)
	lwz 6,72(3)
.LBB3512:
.LBB3513:
	.loc 6 146 0
	lwz 11,88(3)
	.loc 6 147 0
	lwz 9,92(3)
	.loc 6 148 0
	lwz 0,96(3)
	.cfi_offset 30, -8
	.cfi_offset 29, -12
	.cfi_offset 28, -16
	.cfi_offset 27, -20
	.cfi_offset 26, -24
	.cfi_offset 25, -28
	.cfi_offset 65, 4
.LBE3513:
.LBE3512:
.LBB3515:
.LBB3516:
	.loc 5 424 0
	lwz 7,76(3)
	.loc 5 425 0
	lwz 8,80(3)
	.loc 5 426 0
	lwz 10,84(3)
.LBE3516:
.LBE3515:
	.loc 10 45 0
	stw 5,560(3)
	stw 6,564(3)
.LVL44:
.LBB3520:
.LBB3514:
	.loc 6 146 0
	stw 11,580(3)
	.loc 6 147 0
	stw 9,584(3)
	.loc 6 148 0
	stw 0,588(3)
.LBE3514:
.LBE3520:
.LBB3521:
.LBB3517:
	.loc 5 424 0
	stw 7,568(3)
.LBE3517:
.LBE3521:
.LBB3522:
.LBB3523:
	.file 11 "d:/Data/Nintendo/DoomGX/src/game/physics/../../idlib/../idlib/math/Matrix.h"
	.loc 11 333 0
	addi 7,3,592
.LBE3523:
.LBE3522:
.LBB3532:
.LBB3518:
	.loc 5 425 0
	stw 8,572(3)
.LBE3518:
.LBE3532:
.LBB3533:
.LBB3530:
	.loc 11 333 0
	addi 8,3,100
.LBE3530:
.LBE3533:
.LBB3534:
.LBB3519:
	.loc 5 426 0
	stw 10,576(3)
.LVL45:
.LBE3519:
.LBE3534:
.LBB3535:
.LBB3531:
	.loc 11 333 0
	li 10,0
.L23:
.LBB3524:
.LBB3525:
	.loc 5 424 0
	mr 11,8
	mr 9,7
	lwzux 0,11,10
.LBE3525:
.LBE3524:
	.loc 11 333 0
	cmpwi 7,10,24
.LBB3528:
.LBB3526:
	.loc 5 424 0
	stwux 0,9,10
.LBE3526:
.LBE3528:
	.loc 11 333 0
	addi 10,10,12
.LBB3529:
.LBB3527:
	.loc 5 425 0
	lwz 0,4(11)
	stw 0,4(9)
	.loc 5 426 0
	lwz 0,8(11)
	stw 0,8(9)
.LBE3527:
.LBE3529:
	.loc 11 333 0
	bne+ 7,.L23
.LVL46:
.LBE3531:
.LBE3535:
.LBB3536:
.LBB3537:
	.loc 5 424 0
	lwz 12,136(31)
	.loc 5 425 0
	lwz 25,140(31)
	.loc 5 426 0
	lwz 26,144(31)
.LBE3537:
.LBE3536:
.LBB3539:
.LBB3540:
	.loc 6 146 0
	lwz 27,148(31)
	.loc 6 147 0
	lwz 28,152(31)
	.loc 6 148 0
	lwz 29,156(31)
.LBE3540:
.LBE3539:
.LBB3542:
.LBB3543:
	.loc 4 51 0
	lwz 30,160(31)
	lwz 3,164(31)
.LVL47:
	lwz 4,168(31)
.LBB3544:
.LBB3545:
	.loc 5 424 0
	lwz 5,172(31)
	.loc 5 425 0
	lwz 6,176(31)
	.loc 5 426 0
	lwz 7,180(31)
.LBE3545:
.LBE3544:
.LBB3547:
.LBB3548:
	.loc 5 424 0
	lwz 8,184(31)
	.loc 5 425 0
	lwz 10,188(31)
	.loc 5 426 0
	lwz 11,192(31)
.LBE3548:
.LBE3547:
.LBB3550:
.LBB3551:
	.loc 5 424 0
	lwz 9,196(31)
	.loc 5 425 0
	lwz 0,200(31)
.LBE3551:
.LBE3550:
.LBE3543:
.LBE3542:
.LBB3564:
.LBB3538:
	.loc 5 424 0
	stw 12,628(31)
	.loc 5 425 0
	stw 25,632(31)
	.loc 5 426 0
	stw 26,636(31)
.LVL48:
.LBE3538:
.LBE3564:
.LBB3565:
.LBB3541:
	.loc 6 146 0
	stw 27,640(31)
	.loc 6 147 0
	stw 28,644(31)
	.loc 6 148 0
	stw 29,648(31)
.LVL49:
.LBE3541:
.LBE3565:
.LBB3566:
.LBB3562:
	.loc 4 51 0
	stw 30,652(31)
	stw 3,656(31)
	stw 4,660(31)
.LVL50:
.LBB3554:
.LBB3546:
	.loc 5 424 0
	stw 5,664(31)
	.loc 5 425 0
	stw 6,668(31)
	.loc 5 426 0
	stw 7,672(31)
.LVL51:
.LBE3546:
.LBE3554:
.LBB3555:
.LBB3549:
	.loc 5 424 0
	stw 8,676(31)
	.loc 5 425 0
	stw 10,680(31)
	.loc 5 426 0
	stw 11,684(31)
.LVL52:
.LBE3549:
.LBE3555:
.LBB3556:
.LBB3552:
	.loc 5 424 0
	stw 9,688(31)
	.loc 5 425 0
	stw 0,692(31)
	.loc 5 426 0
	lwz 12,204(31)
.LBE3552:
.LBE3556:
	.loc 4 51 0
	lwz 25,208(31)
.LBB3557:
.LBB3558:
	.loc 5 424 0
	lwz 26,212(31)
	.loc 5 425 0
	lwz 27,216(31)
	.loc 5 426 0
	lwz 28,220(31)
.LBE3558:
.LBE3557:
.LBE3562:
.LBE3566:
.LBB3567:
.LBB3568:
	.loc 4 51 0
	lwz 29,224(31)
	lwz 30,228(31)
	lwz 3,232(31)
.LBB3569:
.LBB3570:
	.loc 6 146 0
	lwz 4,236(31)
	.loc 6 147 0
	lwz 5,240(31)
	.loc 6 148 0
	lwz 6,244(31)
.LBE3570:
.LBE3569:
.LBB3572:
.LBB3573:
	.loc 6 146 0
	lwz 7,248(31)
	.loc 6 147 0
	lwz 8,252(31)
	.loc 6 148 0
	lwz 10,256(31)
.LBE3573:
.LBE3572:
.LBB3575:
.LBB3576:
	.loc 6 146 0
	lwz 11,260(31)
	.loc 6 147 0
	lwz 9,264(31)
	.loc 6 148 0
	lwz 0,268(31)
.LBE3576:
.LBE3575:
.LBE3568:
.LBE3567:
.LBB3587:
.LBB3563:
.LBB3560:
.LBB3553:
	.loc 5 426 0
	stw 12,696(31)
.LBE3553:
.LBE3560:
	.loc 4 51 0
	stw 25,700(31)
.LVL53:
.LBB3561:
.LBB3559:
	.loc 5 424 0
	stw 26,704(31)
	.loc 5 425 0
	stw 27,708(31)
	.loc 5 426 0
	stw 28,712(31)
.LVL54:
.LBE3559:
.LBE3561:
.LBE3563:
.LBE3587:
.LBB3588:
.LBB3585:
	.loc 4 51 0
	stw 29,716(31)
	stw 30,720(31)
	stw 3,724(31)
.LVL55:
.LBB3578:
.LBB3571:
	.loc 6 146 0
	stw 4,728(31)
	.loc 6 147 0
	stw 5,732(31)
	.loc 6 148 0
	stw 6,736(31)
.LVL56:
.LBE3571:
.LBE3578:
.LBB3579:
.LBB3574:
	.loc 6 146 0
	stw 7,740(31)
	.loc 6 147 0
	stw 8,744(31)
	.loc 6 148 0
	stw 10,748(31)
.LVL57:
.LBE3574:
.LBE3579:
.LBB3580:
.LBB3577:
	.loc 6 146 0
	stw 11,752(31)
	.loc 6 147 0
	stw 9,756(31)
	.loc 6 148 0
	stw 0,760(31)
.LBE3577:
.LBE3580:
	.loc 4 51 0
	lwz 12,272(31)
.LBB3581:
.LBB3582:
	.loc 6 146 0
	lwz 25,276(31)
	.loc 6 147 0
	lwz 26,280(31)
	.loc 6 148 0
	lwz 27,284(31)
.LBE3582:
.LBE3581:
.LBE3585:
.LBE3588:
.LBB3589:
.LBB3590:
	.loc 7 130 0
	lwz 28,288(31)
	lwz 29,292(31)
	lwz 30,296(31)
	lwz 3,300(31)
.LBB3591:
.LBB3592:
	.loc 5 424 0
	lwz 4,304(31)
	.loc 5 425 0
	lwz 5,308(31)
	.loc 5 426 0
	lwz 6,312(31)
.LBE3592:
.LBE3591:
.LBB3594:
.LBB3595:
	.loc 5 424 0
	lwz 7,316(31)
	.loc 5 425 0
	lwz 8,320(31)
	.loc 5 426 0
	lwz 10,324(31)
.LBE3595:
.LBE3594:
.LBB3597:
.LBB3598:
	.loc 4 51 0
	lwz 11,328(31)
	lwz 9,332(31)
	lwz 0,336(31)
.LBE3598:
.LBE3597:
.LBE3590:
.LBE3589:
.LBB3623:
.LBB3586:
	stw 12,764(31)
.LVL58:
.LBB3584:
.LBB3583:
	.loc 6 146 0
	stw 25,768(31)
	.loc 6 147 0
	stw 26,772(31)
	.loc 6 148 0
	stw 27,776(31)
.LVL59:
.LBE3583:
.LBE3584:
.LBE3586:
.LBE3623:
.LBB3624:
.LBB3621:
	.loc 7 130 0
	stw 28,780(31)
	stw 29,784(31)
	stw 30,788(31)
	stw 3,792(31)
.LVL60:
.LBB3617:
.LBB3593:
	.loc 5 424 0
	stw 4,796(31)
	.loc 5 425 0
	stw 5,800(31)
	.loc 5 426 0
	stw 6,804(31)
.LVL61:
.LBE3593:
.LBE3617:
.LBB3618:
.LBB3596:
	.loc 5 424 0
	stw 7,808(31)
	.loc 5 425 0
	stw 8,812(31)
	.loc 5 426 0
	stw 10,816(31)
.LVL62:
.LBE3596:
.LBE3618:
.LBB3619:
.LBB3615:
	.loc 4 51 0
	stw 11,820(31)
	stw 9,824(31)
	stw 0,828(31)
.LVL63:
.LBB3599:
.LBB3600:
	.loc 5 424 0
	lwz 12,340(31)
	.loc 5 425 0
	lwz 25,344(31)
	.loc 5 426 0
	lwz 26,348(31)
.LBE3600:
.LBE3599:
.LBB3602:
.LBB3603:
	.loc 5 424 0
	lwz 27,352(31)
	.loc 5 425 0
	lwz 28,356(31)
	.loc 5 426 0
	lwz 29,360(31)
.LBE3603:
.LBE3602:
.LBB3605:
.LBB3606:
	.loc 5 424 0
	lwz 30,364(31)
	.loc 5 425 0
	lwz 3,368(31)
	.loc 5 426 0
	lwz 4,372(31)
.LBE3606:
.LBE3605:
	.loc 4 51 0
	lwz 5,376(31)
.LBB3608:
.LBB3609:
	.loc 5 424 0
	lwz 6,380(31)
	.loc 5 425 0
	lwz 7,384(31)
	.loc 5 426 0
	lwz 8,388(31)
.LBE3609:
.LBE3608:
.LBE3615:
.LBE3619:
.LBE3621:
.LBE3624:
.LBB3625:
.LBB3626:
	.loc 7 130 0
	lwz 10,392(31)
	lwz 11,396(31)
	lwz 9,400(31)
	lwz 0,404(31)
.LBE3626:
.LBE3625:
.LBB3677:
.LBB3622:
.LBB3620:
.LBB3616:
.LBB3611:
.LBB3601:
	.loc 5 424 0
	stw 12,832(31)
	.loc 5 425 0
	stw 25,836(31)
	.loc 5 426 0
	stw 26,840(31)
.LVL64:
.LBE3601:
.LBE3611:
.LBB3612:
.LBB3604:
	.loc 5 424 0
	stw 27,844(31)
	.loc 5 425 0
	stw 28,848(31)
	.loc 5 426 0
	stw 29,852(31)
.LVL65:
.LBE3604:
.LBE3612:
.LBB3613:
.LBB3607:
	.loc 5 424 0
	stw 30,856(31)
	.loc 5 425 0
	stw 3,860(31)
	.loc 5 426 0
	stw 4,864(31)
.LBE3607:
.LBE3613:
	.loc 4 51 0
	stw 5,868(31)
.LVL66:
.LBB3614:
.LBB3610:
	.loc 5 424 0
	stw 6,872(31)
	.loc 5 425 0
	stw 7,876(31)
	.loc 5 426 0
	stw 8,880(31)
.LVL67:
.LBE3610:
.LBE3614:
.LBE3616:
.LBE3620:
.LBE3622:
.LBE3677:
.LBB3678:
.LBB3671:
	.loc 7 130 0
	stw 10,884(31)
	stw 11,888(31)
	stw 9,892(31)
	stw 0,896(31)
.LVL68:
.LBB3627:
.LBB3628:
	.loc 6 146 0
	lwz 25,408(31)
	.loc 6 147 0
	lwz 26,412(31)
	.loc 6 148 0
	lwz 27,416(31)
.LBE3628:
.LBE3627:
.LBB3630:
.LBB3631:
	.loc 6 146 0
	lwz 28,420(31)
	.loc 6 147 0
	lwz 29,424(31)
	.loc 6 148 0
	lwz 30,428(31)
.LBE3631:
.LBE3630:
.LBB3633:
.LBB3634:
	.loc 4 51 0
	lwz 12,432(31)
	lwz 3,436(31)
	lwz 4,440(31)
.LBB3635:
.LBB3636:
	.loc 6 146 0
	lwz 5,444(31)
	.loc 6 147 0
	lwz 6,448(31)
	.loc 6 148 0
	lwz 7,452(31)
.LBE3636:
.LBE3635:
.LBB3639:
.LBB3640:
	.loc 6 146 0
	lwz 8,456(31)
	.loc 6 147 0
	lwz 10,460(31)
	.loc 6 148 0
	lwz 11,464(31)
.LBE3640:
.LBE3639:
.LBB3642:
.LBB3643:
	.loc 6 146 0
	lwz 9,468(31)
	.loc 6 147 0
	lwz 0,472(31)
.LBE3643:
.LBE3642:
.LBE3634:
.LBE3633:
.LBB3663:
.LBB3629:
	.loc 6 146 0
	stw 25,900(31)
	.loc 6 147 0
	stw 26,904(31)
	.loc 6 148 0
	stw 27,908(31)
.LVL69:
.LBE3629:
.LBE3663:
.LBB3664:
.LBB3632:
	.loc 6 146 0
	stw 28,912(31)
	.loc 6 147 0
	stw 29,916(31)
	.loc 6 148 0
	stw 30,920(31)
.LVL70:
.LBE3632:
.LBE3664:
.LBB3665:
.LBB3657:
	.loc 4 51 0
	stw 12,924(31)
	stw 3,928(31)
.LBE3657:
.LBE3665:
.LBE3671:
.LBE3678:
	.loc 10 45 0
	addi 3,31,992
.LBB3679:
.LBB3672:
.LBB3666:
.LBB3658:
	.loc 4 51 0
	stw 4,932(31)
.LVL71:
.LBE3658:
.LBE3666:
.LBE3672:
.LBE3679:
	.loc 10 45 0
	addi 4,31,500
.LBB3680:
.LBB3673:
.LBB3667:
.LBB3659:
.LBB3647:
.LBB3637:
	.loc 6 146 0
	stw 5,936(31)
.LBE3637:
.LBE3647:
.LBE3659:
.LBE3667:
.LBE3673:
.LBE3680:
	.loc 10 45 0
	li 5,56
.LBB3681:
.LBB3674:
.LBB3668:
.LBB3660:
.LBB3648:
.LBB3638:
	.loc 6 147 0
	stw 6,940(31)
	.loc 6 148 0
	stw 7,944(31)
.LVL72:
.LBE3638:
.LBE3648:
.LBB3649:
.LBB3641:
	.loc 6 146 0
	stw 8,948(31)
	.loc 6 147 0
	stw 10,952(31)
	.loc 6 148 0
	stw 11,956(31)
.LVL73:
.LBE3641:
.LBE3649:
.LBB3650:
.LBB3644:
	.loc 6 146 0
	stw 9,960(31)
	.loc 6 147 0
	stw 0,964(31)
.LBE3644:
.LBE3650:
.LBE3660:
.LBE3668:
.LBE3674:
.LBE3681:
	.loc 10 45 0
	lwz 0,496(31)
.LBB3682:
.LBB3675:
.LBB3669:
.LBB3661:
.LBB3651:
.LBB3645:
	.loc 6 148 0
	lwz 7,476(31)
.LBE3645:
.LBE3651:
	.loc 4 51 0
	lwz 8,480(31)
.LBB3652:
.LBB3653:
	.loc 6 146 0
	lwz 10,484(31)
	.loc 6 147 0
	lwz 11,488(31)
	.loc 6 148 0
	lwz 9,492(31)
.LBE3653:
.LBE3652:
.LBE3661:
.LBE3669:
.LBE3675:
.LBE3682:
	.loc 10 45 0
	stw 0,988(31)
.LBB3683:
.LBB3676:
.LBB3670:
.LBB3662:
.LBB3655:
.LBB3646:
	.loc 6 148 0
	stw 7,968(31)
.LBE3646:
.LBE3655:
	.loc 4 51 0
	stw 8,972(31)
.LVL74:
.LBB3656:
.LBB3654:
	.loc 6 146 0
	stw 10,976(31)
	.loc 6 147 0
	stw 11,980(31)
	.loc 6 148 0
	stw 9,984(31)
.LBE3654:
.LBE3656:
.LBE3662:
.LBE3670:
.LBE3676:
.LBE3683:
	.loc 10 45 0
	bl memcpy
	lbz 0,556(31)
	stb 0,1048(31)
.LBE3511:
.LBE3510:
	.loc 2 724 0
	lwz 0,44(1)
	lwz 25,12(1)
	mtlr 0
	lwz 26,16(1)
	lwz 27,20(1)
	lwz 28,24(1)
	lwz 29,28(1)
	lwz 30,32(1)
	lwz 31,36(1)
.LVL75:
	addi 1,1,40
.LCFI3:
	.cfi_def_cfa_offset 0
	.cfi_restore 31
	.cfi_restore 30
	.cfi_restore 29
	.cfi_restore 28
	.cfi_restore 27
	.cfi_restore 26
	.cfi_restore 25
	blr
	.cfi_endproc
.LFE2874:
	.size	_ZN20idPhysics_Parametric9SaveStateEv, .-_ZN20idPhysics_Parametric9SaveStateEv
	.align 2
	.globl _ZN20idPhysics_Parametric9TranslateERK6idVec3i
	.type	_ZN20idPhysics_Parametric9TranslateERK6idVec3i, @function
_ZN20idPhysics_Parametric9TranslateERK6idVec3i:
.LFB2878:
	.loc 2 801 0
	.cfi_startproc
.LVL76:
	.loc 2 802 0
	blr
	.cfi_endproc
.LFE2878:
	.size	_ZN20idPhysics_Parametric9TranslateERK6idVec3i, .-_ZN20idPhysics_Parametric9TranslateERK6idVec3i
	.align 2
	.globl _ZN20idPhysics_Parametric6RotateERK10idRotationi
	.type	_ZN20idPhysics_Parametric6RotateERK10idRotationi, @function
_ZN20idPhysics_Parametric6RotateERK10idRotationi:
.LFB2879:
	.loc 2 809 0
	.cfi_startproc
.LVL77:
	.loc 2 810 0
	blr
	.cfi_endproc
.LFE2879:
	.size	_ZN20idPhysics_Parametric6RotateERK10idRotationi, .-_ZN20idPhysics_Parametric6RotateERK10idRotationi
	.align 2
	.globl _ZNK20idPhysics_Parametric9GetOriginEi
	.type	_ZNK20idPhysics_Parametric9GetOriginEi, @function
_ZNK20idPhysics_Parametric9GetOriginEi:
.LFB2880:
	.loc 2 817 0
	.cfi_startproc
.LVL78:
	.loc 2 819 0
	addi 3,3,76
.LVL79:
	blr
	.cfi_endproc
.LFE2880:
	.size	_ZNK20idPhysics_Parametric9GetOriginEi, .-_ZNK20idPhysics_Parametric9GetOriginEi
	.align 2
	.globl _ZNK20idPhysics_Parametric7GetAxisEi
	.type	_ZNK20idPhysics_Parametric7GetAxisEi, @function
_ZNK20idPhysics_Parametric7GetAxisEi:
.LFB2881:
	.loc 2 826 0
	.cfi_startproc
.LVL80:
	.loc 2 828 0
	addi 3,3,100
.LVL81:
	blr
	.cfi_endproc
.LFE2881:
	.size	_ZNK20idPhysics_Parametric7GetAxisEi, .-_ZNK20idPhysics_Parametric7GetAxisEi
	.align 2
	.globl _ZN20idPhysics_Parametric11DisableClipEv
	.type	_ZN20idPhysics_Parametric11DisableClipEv, @function
_ZN20idPhysics_Parametric11DisableClipEv:
.LFB2887:
	.loc 2 900 0
	.cfi_startproc
.LVL82:
	.loc 2 901 0
	lwz 9,1056(3)
	cmpwi 7,9,0
	beqlr- 7
.LBB3684:
.LBB3685:
	.loc 3 155 0
	li 0,0
	stb 0,0(9)
	blr
.LBE3685:
.LBE3684:
	.cfi_endproc
.LFE2887:
	.size	_ZN20idPhysics_Parametric11DisableClipEv, .-_ZN20idPhysics_Parametric11DisableClipEv
	.align 2
	.globl _ZN20idPhysics_Parametric10EnableClipEv
	.type	_ZN20idPhysics_Parametric10EnableClipEv, @function
_ZN20idPhysics_Parametric10EnableClipEv:
.LFB2888:
	.loc 2 911 0
	.cfi_startproc
.LVL83:
	.loc 2 912 0
	lwz 9,1056(3)
	cmpwi 7,9,0
	beqlr- 7
.LBB3686:
.LBB3687:
	.loc 3 151 0
	li 0,1
	stb 0,0(9)
	blr
.LBE3687:
.LBE3686:
	.cfi_endproc
.LFE2888:
	.size	_ZN20idPhysics_Parametric10EnableClipEv, .-_ZN20idPhysics_Parametric10EnableClipEv
	.align 2
	.globl _ZNK20idPhysics_Parametric15GetBlockingInfoEv
	.type	_ZNK20idPhysics_Parametric15GetBlockingInfoEv, @function
_ZNK20idPhysics_Parametric15GetBlockingInfoEv:
.LFB2891:
	.loc 2 944 0
	.cfi_startproc
.LVL84:
	.loc 2 945 0
	lbz 9,1172(3)
	li 0,0
	cmpwi 7,9,0
	beq- 7,.L34
	.loc 2 945 0 is_stmt 0 discriminator 1
	addi 0,3,1064
.L34:
	.loc 2 946 0 is_stmt 1 discriminator 3
	mr 3,0
.LVL85:
	blr
	.cfi_endproc
.LFE2891:
	.size	_ZNK20idPhysics_Parametric15GetBlockingInfoEv, .-_ZNK20idPhysics_Parametric15GetBlockingInfoEv
	.align 2
	.globl _ZNK20idPhysics_Parametric17GetBlockingEntityEv
	.type	_ZNK20idPhysics_Parametric17GetBlockingEntityEv, @function
_ZNK20idPhysics_Parametric17GetBlockingEntityEv:
.LFB2892:
	.loc 2 953 0
	.cfi_startproc
.LVL86:
	.loc 2 954 0
	lbz 9,1172(3)
	.loc 2 957 0
	li 0,0
	.loc 2 954 0
	cmpwi 7,9,0
	beq- 7,.L37
	.loc 2 955 0
	lwz 9,1164(3)
	addi 0,9,132
	lis 9,gameLocal@ha
	slwi 0,0,2
	la 9,gameLocal@l(9)
	add 9,9,0
	lwz 0,4(9)
.L37:
	.loc 2 958 0
	mr 3,0
.LVL87:
	blr
	.cfi_endproc
.LFE2892:
	.size	_ZNK20idPhysics_Parametric17GetBlockingEntityEv, .-_ZNK20idPhysics_Parametric17GetBlockingEntityEv
	.section	.text._ZN9idWinding5ClearEv,"axG",@progbits,_ZN9idWinding5ClearEv,comdat
	.align 2
	.weak	_ZN9idWinding5ClearEv
	.type	_ZN9idWinding5ClearEv, @function
_ZN9idWinding5ClearEv:
.LFB1473:
	.loc 1 249 0
	.cfi_startproc
.LVL88:
	mflr 0
	stwu 1,-16(1)
.LCFI4:
	.cfi_def_cfa_offset 16
	.cfi_register 65, 0
	stw 31,12(1)
	mr 31,3
	.cfi_offset 31, -4
	stw 0,20(1)
	.loc 1 250 0
	li 0,0
	.cfi_offset 65, 4
	.loc 1 251 0
	lwz 3,8(3)
.LVL89:
	.loc 1 250 0
	stw 0,4(31)
	.loc 1 251 0
	cmpwi 7,3,0
	beq- 7,.L40
	.loc 1 251 0 is_stmt 0 discriminator 1
	bl _ZdaPv
.L40:
	.loc 1 252 0 is_stmt 1
	li 0,0
	stw 0,8(31)
	.loc 1 253 0
	lwz 0,20(1)
	lwz 31,12(1)
.LVL90:
	mtlr 0
	addi 1,1,16
.LCFI5:
	.cfi_def_cfa_offset 0
	.cfi_restore 31
	blr
	.cfi_endproc
.LFE1473:
	.size	_ZN9idWinding5ClearEv, .-_ZN9idWinding5ClearEv
	.section	.text._ZN9idWindingD2Ev,"axG",@progbits,_ZN9idWindingD5Ev,comdat
	.align 2
	.weak	_ZN9idWindingD2Ev
	.type	_ZN9idWindingD2Ev, @function
_ZN9idWindingD2Ev:
.LFB1461:
	.loc 1 183 0
	.cfi_startproc
.LVL91:
	mflr 0
	stwu 1,-16(1)
.LCFI6:
	.cfi_def_cfa_offset 16
	.cfi_register 65, 0
.LBB3689:
	lis 9,_ZTV9idWinding+8@ha
.LBE3689:
	stw 31,12(1)
	mr 31,3
	.cfi_offset 31, -4
	stw 0,20(1)
.LBB3690:
	.loc 1 183 0
	la 0,_ZTV9idWinding+8@l(9)
	.cfi_offset 65, 4
	.loc 1 184 0
	lwz 3,8(3)
.LVL92:
	.loc 1 183 0
	stw 0,0(31)
	.loc 1 184 0
	cmpwi 7,3,0
	beq- 7,.L42
	.loc 1 184 0 is_stmt 0 discriminator 1
	bl _ZdaPv
.L42:
	.loc 1 185 0 is_stmt 1
	li 0,0
	stw 0,8(31)
.LBE3690:
	.loc 1 186 0
	lwz 0,20(1)
	lwz 31,12(1)
.LVL93:
	mtlr 0
	addi 1,1,16
.LCFI7:
	.cfi_def_cfa_offset 0
	.cfi_restore 31
	blr
	.cfi_endproc
.LFE1461:
	.size	_ZN9idWindingD2Ev, .-_ZN9idWindingD2Ev
	.section	".text"
	.align 2
	.globl _ZN20idPhysics_Parametric8LinkClipEv
	.type	_ZN20idPhysics_Parametric8LinkClipEv, @function
_ZN20idPhysics_Parametric8LinkClipEv:
.LFB2890:
	.loc 2 933 0
	.cfi_startproc
.LVL94:
	mflr 0
	stwu 1,-8(1)
.LCFI8:
	.cfi_def_cfa_offset 8
	.cfi_register 65, 0
	mr 8,3
	stw 0,12(1)
	.loc 2 934 0
	lwz 3,1056(3)
.LVL95:
	cmpwi 7,3,0
	beq- 7,.L44
	.cfi_offset 65, 4
	.loc 2 935 0
	lwz 5,4(8)
	lis 4,gameLocal+2311032@ha
	addi 7,8,76
	la 4,gameLocal+2311032@l(4)
	li 6,0
	addi 8,8,100
.LVL96:
	li 9,-1
	bl _ZN11idClipModel4LinkER6idClipP8idEntityiRK6idVec3RK6idMat3i
.LVL97:
.L44:
	.loc 2 937 0
	lwz 0,12(1)
	addi 1,1,8
.LCFI9:
	.cfi_def_cfa_offset 0
	mtlr 0
	blr
	.cfi_endproc
.LFE2890:
	.size	_ZN20idPhysics_Parametric8LinkClipEv, .-_ZN20idPhysics_Parametric8LinkClipEv
	.align 2
	.globl _ZN20idPhysics_Parametric10UnlinkClipEv
	.type	_ZN20idPhysics_Parametric10UnlinkClipEv, @function
_ZN20idPhysics_Parametric10UnlinkClipEv:
.LFB2889:
	.loc 2 922 0
	.cfi_startproc
.LVL98:
	mflr 0
	stwu 1,-8(1)
.LCFI10:
	.cfi_def_cfa_offset 8
	.cfi_register 65, 0
	stw 0,12(1)
	.loc 2 923 0
	lwz 3,1056(3)
.LVL99:
	cmpwi 7,3,0
	beq- 7,.L46
	.cfi_offset 65, 4
	.loc 2 924 0
	bl _ZN11idClipModel6UnlinkEv
.L46:
	.loc 2 926 0
	lwz 0,12(1)
	addi 1,1,8
.LCFI11:
	.cfi_def_cfa_offset 0
	mtlr 0
	blr
	.cfi_endproc
.LFE2889:
	.size	_ZN20idPhysics_Parametric10UnlinkClipEv, .-_ZN20idPhysics_Parametric10UnlinkClipEv
	.align 2
	.globl _ZNK20idPhysics_Parametric17GetLinearVelocityEi
	.type	_ZNK20idPhysics_Parametric17GetLinearVelocityEi, @function
_ZNK20idPhysics_Parametric17GetLinearVelocityEi:
.LFB2885:
	.loc 2 874 0
	.cfi_startproc
.LVL100:
	stwu 1,-32(1)
.LCFI12:
	.cfi_def_cfa_offset 32
	mflr 0
	stw 30,24(1)
.LBB3691:
	.loc 2 875 0
	lis 30,.LANCHOR0@ha
	.cfi_offset 30, -8
	.cfi_register 65, 0
	la 30,.LANCHOR0@l(30)
.LBE3691:
	.loc 2 874 0
	stw 29,20(1)
.LBB3716:
	.loc 2 875 0
	addi 29,30,80
	.cfi_offset 29, -12
.LBE3716:
	.loc 2 874 0
	stw 31,28(1)
	mr 31,3
	.cfi_offset 31, -4
.LBB3717:
	.loc 2 875 0
	mr 3,29
.LVL101:
.LBE3717:
	.loc 2 874 0
	stw 0,36(1)
.LBB3718:
	.loc 2 875 0
	.cfi_offset 65, 4
	bl __cxa_guard_acquire
.LVL102:
	cmpwi 7,3,0
	bne- 7,.L66
.L49:
	.loc 2 877 0
	lis 9,gameLocal+2426836@ha
	lwz 0,gameLocal+2426836@l(9)
	lis 9,.LC2@ha
	lfs 13,.LC2@l(9)
	xoris 0,0,0x8000
	stw 0,12(1)
	lis 0,0x4330
	stw 0,8(1)
	lfd 12,8(1)
.LBB3692:
.LBB3693:
	.loc 4 200 0
	lfs 0,164(31)
.LBE3693:
.LBE3692:
	.loc 2 877 0
	fsub 13,12,13
	frsp 13,13
.LVL103:
.LBB3712:
.LBB3710:
	.loc 4 200 0
	fcmpu 7,13,0
	blt- 7,.L64
	lis 9,.LC0@ha
	lfs 12,168(31)
	lfs 11,.LC0@l(9)
	fcmpu 7,12,11
	beq- 7,.L64
	.loc 4 204 0
	lwz 0,160(31)
	andi. 9,0,64
	bne- 0,.L53
	fadds 11,0,12
	fcmpu 7,13,11
	bgt- 7,.L64
.L53:
	.loc 4 208 0
	rlwinm 0,0,0,26,24
	cmplwi 7,0,32
	ble- 7,.L67
.L55:
.LBB3694:
.LBB3695:
	.loc 4 236 0
	lfs 11,184(31)
	lfs 12,188(31)
	lfs 1,192(31)
	b .L52
.L64:
.LVL104:
.LBE3695:
.LBE3694:
.LBB3699:
.LBB3700:
	.loc 5 431 0
	lfs 11,172(31)
	lfs 12,176(31)
	lfs 1,180(31)
	fsubs 11,11,11
	fsubs 12,12,12
	fsubs 1,1,1
.LVL105:
.L52:
.LBE3700:
.LBE3699:
.LBE3710:
.LBE3712:
.LBE3718:
	.loc 2 879 0
	lwz 0,36(1)
	addi 3,30,88
	lwz 29,20(1)
	mtlr 0
	lwz 31,28(1)
.LVL106:
.LBB3719:
.LBB3713:
.LBB3714:
	.loc 5 424 0
	stfs 11,88(30)
	.loc 5 425 0
	stfs 12,92(30)
	.loc 5 426 0
	stfs 1,96(30)
.LBE3714:
.LBE3713:
.LBE3719:
	.loc 2 879 0
	lwz 30,24(1)
	addi 1,1,32
	.cfi_remember_state
.LCFI13:
	.cfi_def_cfa_offset 0
	.cfi_restore 31
	.cfi_restore 30
	.cfi_restore 29
	blr
.LVL107:
.L66:
.LCFI14:
	.cfi_restore_state
.LBB3720:
	.loc 2 875 0 discriminator 1
	mr 3,29
	bl __cxa_guard_release
	b .L49
.LVL108:
.L67:
.LBB3715:
.LBB3711:
	.loc 4 208 0
	lis 9,.L62@ha
	slwi 0,0,2
	la 9,.L62@l(9)
	lwzx 0,9,0
	add 9,0,9
	mtctr 9
	bctr
	.section	.rodata
	.align 2
	.align 2
.L62:
	.long .L55-.L62
	.long .L55-.L62
	.long .L57-.L62
	.long .L55-.L62
	.long .L58-.L62
	.long .L55-.L62
	.long .L55-.L62
	.long .L55-.L62
	.long .L59-.L62
	.long .L55-.L62
	.long .L55-.L62
	.long .L55-.L62
	.long .L55-.L62
	.long .L55-.L62
	.long .L55-.L62
	.long .L55-.L62
	.long .L60-.L62
	.long .L55-.L62
	.long .L55-.L62
	.long .L55-.L62
	.long .L55-.L62
	.long .L55-.L62
	.long .L55-.L62
	.long .L55-.L62
	.long .L55-.L62
	.long .L55-.L62
	.long .L55-.L62
	.long .L55-.L62
	.long .L55-.L62
	.long .L55-.L62
	.long .L55-.L62
	.long .L55-.L62
	.long .L61-.L62
	.section	".text"
.L60:
.LVL109:
	.loc 4 226 0
	fsubs 0,13,0
.LVL110:
.LBB3701:
.LBB3702:
	.file 12 "d:/Data/Nintendo/DoomGX/src/game/physics/../../idlib/../idlib/math/Math.h"
	.loc 12 311 0
	lis 9,_ZN6idMath7HALF_PIE@ha
	lfs 11,_ZN6idMath7HALF_PIE@l(9)
.LBE3702:
.LBE3701:
	.loc 4 226 0
	fdivs 12,0,12
.LVL111:
.LBB3704:
.LBB3703:
	.loc 12 311 0
	fmuls 1,12,11
	bl sinf
.LVL112:
.L65:
.LBE3703:
.LBE3704:
.LBB3705:
.LBB3696:
	.loc 5 452 0
	lfs 9,196(31)
	lfs 11,184(31)
	lfs 10,200(31)
	lfs 12,188(31)
	fmadds 11,1,9,11
	lfs 13,204(31)
	lfs 0,192(31)
	fmadds 12,1,10,12
	fmadds 1,1,13,0
.LVL113:
	b .L52
.LVL114:
.L59:
.LBE3696:
.LBE3705:
	.loc 4 221 0
	fsubs 0,13,0
.LVL115:
	.loc 4 222 0
	lis 9,.LC4@ha
	lfs 13,.LC4@l(9)
.LVL116:
	.loc 5 452 0
	lfs 8,196(31)
	.loc 4 221 0
	fdivs 0,0,12
.LVL117:
	.loc 5 452 0
	lfs 11,184(31)
	lfs 12,200(31)
	lfs 9,188(31)
	lfs 1,204(31)
	lfs 10,192(31)
	.loc 4 222 0
	fsubs 0,13,0
.LVL118:
	.loc 5 452 0
	fmadds 11,0,8,11
	fmadds 12,0,12,9
	fmadds 1,0,1,10
.LVL119:
	b .L52
.LVL120:
.L58:
	.loc 4 216 0
	fsubs 0,13,0
	.loc 5 452 0
	lfs 9,196(31)
	lfs 11,184(31)
	lfs 10,200(31)
	.loc 4 216 0
	fdivs 0,0,12
.LVL121:
	.loc 5 452 0
	lfs 1,204(31)
	lfs 12,188(31)
	lfs 13,192(31)
.LVL122:
	fmadds 11,0,9,11
	fmadds 12,0,10,12
	fmadds 1,0,1,13
.LVL123:
	b .L52
.LVL124:
.L57:
.LBB3706:
.LBB3707:
	lfs 10,184(31)
	lfs 11,196(31)
	lfs 12,188(31)
	lfs 13,200(31)
.LVL125:
	fadds 11,10,11
	lfs 1,192(31)
	lfs 0,204(31)
	fadds 12,12,13
	fadds 1,1,0
.LVL126:
	b .L52
.LVL127:
.L61:
.LBE3707:
.LBE3706:
	.loc 4 231 0
	fsubs 0,13,0
.LBB3708:
.LBB3697:
	.loc 12 347 0
	lis 9,_ZN6idMath7HALF_PIE@ha
	lfs 11,_ZN6idMath7HALF_PIE@l(9)
.LBE3697:
.LBE3708:
	.loc 4 231 0
	fdivs 12,0,12
.LBB3709:
.LBB3698:
	.loc 12 347 0
	fmuls 1,12,11
	bl cosf
.LVL128:
	b .L65
.LBE3698:
.LBE3709:
.LBE3711:
.LBE3715:
.LBE3720:
	.cfi_endproc
.LFE2885:
	.size	_ZNK20idPhysics_Parametric17GetLinearVelocityEi, .-_ZNK20idPhysics_Parametric17GetLinearVelocityEi
	.align 2
	.globl _ZNK20idPhysics_Parametric18GetAngularVelocityEi
	.type	_ZNK20idPhysics_Parametric18GetAngularVelocityEi, @function
_ZNK20idPhysics_Parametric18GetAngularVelocityEi:
.LFB2886:
	.loc 2 886 0
	.cfi_startproc
.LVL129:
	stwu 1,-64(1)
.LCFI15:
	.cfi_def_cfa_offset 64
	mflr 0
	stw 31,60(1)
.LBB3721:
	.loc 2 887 0
	lis 31,.LANCHOR0@ha
	.cfi_offset 31, -4
	.cfi_register 65, 0
	la 31,.LANCHOR0@l(31)
.LBE3721:
	.loc 2 886 0
	stw 29,52(1)
.LBB3750:
	.loc 2 887 0
	addi 29,31,104
	.cfi_offset 29, -12
.LBE3750:
	.loc 2 886 0
	stw 30,56(1)
	mr 30,3
	.cfi_offset 30, -8
.LBB3751:
	.loc 2 887 0
	mr 3,29
.LVL130:
.LBE3751:
	.loc 2 886 0
	stw 0,68(1)
.LBB3752:
	.loc 2 887 0
	.cfi_offset 65, 4
	bl __cxa_guard_acquire
.LVL131:
	cmpwi 7,3,0
	bne- 7,.L86
.L69:
	.loc 2 890 0
	lis 9,gameLocal+2426836@ha
	lwz 0,gameLocal+2426836@l(9)
	lis 9,.LC2@ha
	lfs 13,.LC2@l(9)
	xoris 0,0,0x8000
	stw 0,44(1)
	lis 0,0x4330
	stw 0,40(1)
	lfd 12,40(1)
.LBB3722:
.LBB3723:
	.loc 4 200 0
	lfs 0,228(30)
.LBE3723:
.LBE3722:
	.loc 2 890 0
	fsub 13,12,13
	frsp 13,13
.LVL132:
.LBB3742:
.LBB3740:
	.loc 4 200 0
	fcmpu 7,13,0
	blt- 7,.L84
	lis 9,.LC0@ha
	lfs 12,232(30)
	lfs 11,.LC0@l(9)
	fcmpu 7,12,11
	beq- 7,.L84
	.loc 4 204 0
	lwz 0,224(30)
	andi. 9,0,64
	bne- 0,.L73
	fadds 11,0,12
	fcmpu 7,13,11
	bgt- 7,.L84
.L73:
	.loc 4 208 0
	rlwinm 0,0,0,26,24
	cmplwi 7,0,32
	ble- 7,.L87
.L75:
.LBB3724:
.LBB3725:
	.loc 4 236 0
	lfs 11,248(30)
	lfs 12,252(30)
	lfs 1,256(30)
	b .L72
.L84:
.LVL133:
.LBE3725:
.LBE3724:
.LBB3729:
.LBB3730:
	.loc 6 165 0
	lfs 11,236(30)
	lfs 12,240(30)
	lfs 1,244(30)
	fsubs 11,11,11
	fsubs 12,12,12
	fsubs 1,1,1
.LVL134:
.L72:
.LBE3730:
.LBE3729:
.LBE3740:
.LBE3742:
	.loc 2 891 0
	addi 3,1,8
	addi 4,1,20
.LBB3743:
.LBB3744:
	.loc 6 146 0
	stfs 11,20(1)
	.loc 6 147 0
	stfs 12,24(1)
	.loc 6 148 0
	stfs 1,28(1)
.LBE3744:
.LBE3743:
	.loc 2 891 0
	bl _ZNK8idAngles17ToAngularVelocityEv
.LVL135:
.LBB3745:
.LBB3746:
	.loc 5 424 0
	lwz 0,8(1)
.LBE3746:
.LBE3745:
.LBE3752:
	.loc 2 893 0
	addi 3,31,112
.LBB3753:
.LBB3748:
.LBB3747:
	.loc 5 424 0
	stw 0,112(31)
	.loc 5 425 0
	lwz 0,12(1)
	stw 0,116(31)
	.loc 5 426 0
	lwz 0,16(1)
	stw 0,120(31)
.LBE3747:
.LBE3748:
.LBE3753:
	.loc 2 893 0
	lwz 0,68(1)
	lwz 29,52(1)
	mtlr 0
	lwz 30,56(1)
.LVL136:
	lwz 31,60(1)
	addi 1,1,64
	.cfi_remember_state
.LCFI16:
	.cfi_def_cfa_offset 0
	.cfi_restore 31
	.cfi_restore 30
	.cfi_restore 29
	blr
.LVL137:
.L86:
.LCFI17:
	.cfi_restore_state
.LBB3754:
	.loc 2 887 0 discriminator 1
	mr 3,29
	bl __cxa_guard_release
	b .L69
.LVL138:
.L87:
.LBB3749:
.LBB3741:
	.loc 4 208 0
	lis 9,.L82@ha
	slwi 0,0,2
	la 9,.L82@l(9)
	lwzx 0,9,0
	add 9,0,9
	mtctr 9
	bctr
	.section	.rodata
	.align 2
	.align 2
.L82:
	.long .L75-.L82
	.long .L75-.L82
	.long .L77-.L82
	.long .L75-.L82
	.long .L78-.L82
	.long .L75-.L82
	.long .L75-.L82
	.long .L75-.L82
	.long .L79-.L82
	.long .L75-.L82
	.long .L75-.L82
	.long .L75-.L82
	.long .L75-.L82
	.long .L75-.L82
	.long .L75-.L82
	.long .L75-.L82
	.long .L80-.L82
	.long .L75-.L82
	.long .L75-.L82
	.long .L75-.L82
	.long .L75-.L82
	.long .L75-.L82
	.long .L75-.L82
	.long .L75-.L82
	.long .L75-.L82
	.long .L75-.L82
	.long .L75-.L82
	.long .L75-.L82
	.long .L75-.L82
	.long .L75-.L82
	.long .L75-.L82
	.long .L75-.L82
	.long .L81-.L82
	.section	".text"
.L80:
.LVL139:
	.loc 4 226 0
	fsubs 0,13,0
.LVL140:
.LBB3731:
.LBB3732:
	.loc 12 311 0
	lis 9,_ZN6idMath7HALF_PIE@ha
	lfs 11,_ZN6idMath7HALF_PIE@l(9)
.LBE3732:
.LBE3731:
	.loc 4 226 0
	fdivs 12,0,12
.LVL141:
.LBB3734:
.LBB3733:
	.loc 12 311 0
	fmuls 1,12,11
	bl sinf
.LVL142:
.L85:
.LBE3733:
.LBE3734:
.LBB3735:
.LBB3726:
	.loc 6 153 0
	lfs 9,260(30)
	lfs 11,248(30)
	lfs 10,264(30)
	lfs 12,252(30)
	fmadds 11,1,9,11
	lfs 13,268(30)
	lfs 0,256(30)
	fmadds 12,1,10,12
	fmadds 1,1,13,0
.LVL143:
	b .L72
.LVL144:
.L79:
.LBE3726:
.LBE3735:
	.loc 4 221 0
	fsubs 0,13,0
.LVL145:
	.loc 4 222 0
	lis 9,.LC4@ha
	lfs 13,.LC4@l(9)
.LVL146:
	.loc 6 153 0
	lfs 8,260(30)
	.loc 4 221 0
	fdivs 0,0,12
.LVL147:
	.loc 6 153 0
	lfs 11,248(30)
	lfs 12,264(30)
	lfs 9,252(30)
	lfs 1,268(30)
	lfs 10,256(30)
	.loc 4 222 0
	fsubs 0,13,0
.LVL148:
	.loc 6 153 0
	fmadds 11,0,8,11
	fmadds 12,0,12,9
	fmadds 1,0,1,10
.LVL149:
	b .L72
.LVL150:
.L78:
	.loc 4 216 0
	fsubs 0,13,0
	.loc 6 153 0
	lfs 9,260(30)
	lfs 11,248(30)
	lfs 10,264(30)
	.loc 4 216 0
	fdivs 0,0,12
.LVL151:
	.loc 6 153 0
	lfs 1,268(30)
	lfs 12,252(30)
	lfs 13,256(30)
.LVL152:
	fmadds 11,0,9,11
	fmadds 12,0,10,12
	fmadds 1,0,1,13
.LVL153:
	b .L72
.LVL154:
.L77:
.LBB3736:
.LBB3737:
	lfs 10,248(30)
	lfs 11,260(30)
	lfs 12,252(30)
	lfs 13,264(30)
.LVL155:
	fadds 11,10,11
	lfs 1,256(30)
	lfs 0,268(30)
	fadds 12,12,13
	fadds 1,1,0
.LVL156:
	b .L72
.LVL157:
.L81:
.LBE3737:
.LBE3736:
	.loc 4 231 0
	fsubs 0,13,0
.LBB3738:
.LBB3727:
	.loc 12 347 0
	lis 9,_ZN6idMath7HALF_PIE@ha
	lfs 11,_ZN6idMath7HALF_PIE@l(9)
.LBE3727:
.LBE3738:
	.loc 4 231 0
	fdivs 12,0,12
.LBB3739:
.LBB3728:
	.loc 12 347 0
	fmuls 1,12,11
	bl cosf
.LVL158:
	b .L85
.LBE3728:
.LBE3739:
.LBE3741:
.LBE3749:
.LBE3754:
	.cfi_endproc
.LFE2886:
	.size	_ZNK20idPhysics_Parametric18GetAngularVelocityEi, .-_ZNK20idPhysics_Parametric18GetAngularVelocityEi
	.align 2
	.globl _ZN20idPhysics_Parametric12SetClipModelEP11idClipModelfib
	.type	_ZN20idPhysics_Parametric12SetClipModelEP11idClipModelfib, @function
_ZN20idPhysics_Parametric12SetClipModelEP11idClipModelfib:
.LFB2859:
	.loc 2 479 0
	.cfi_startproc
.LVL159:
	mflr 0
	stwu 1,-24(1)
.LCFI18:
	.cfi_def_cfa_offset 24
	.cfi_register 65, 0
	stw 31,20(1)
	mr 31,3
	.cfi_offset 31, -4
	stw 0,28(1)
	stw 30,16(1)
	.loc 2 484 0
	lwz 30,1056(3)
	.cfi_offset 30, -8
	.cfi_offset 65, 4
	cmpwi 7,30,0
	beq- 7,.L89
	.loc 2 484 0 is_stmt 0 discriminator 1
	cmpw 7,30,4
	beq- 7,.L89
	.loc 2 484 0 discriminator 2
	cmpwi 7,6,0
	beq- 7,.L89
	.loc 2 485 0 is_stmt 1
	mr 3,30
.LVL160:
	stw 4,8(1)
	bl _ZN11idClipModelD1Ev
.LVL161:
	mr 3,30
	bl _ZdlPv
	lwz 4,8(1)
.L89:
	.loc 2 487 0
	stw 4,1056(31)
	.loc 2 488 0
	mr 3,4
	lwz 5,4(31)
	lis 4,gameLocal+2311032@ha
	addi 7,31,76
	addi 8,31,100
	la 4,gameLocal+2311032@l(4)
	li 6,0
	li 9,-1
	bl _ZN11idClipModel4LinkER6idClipP8idEntityiRK6idVec3RK6idMat3i
	.loc 2 489 0
	lwz 0,28(1)
	lwz 30,16(1)
	mtlr 0
	lwz 31,20(1)
.LVL162:
	addi 1,1,24
.LCFI19:
	.cfi_def_cfa_offset 0
	.cfi_restore 31
	.cfi_restore 30
	blr
	.cfi_endproc
.LFE2859:
	.size	_ZN20idPhysics_Parametric12SetClipModelEP11idClipModelfib, .-_ZN20idPhysics_Parametric12SetClipModelEP11idClipModelfib
	.align 2
	.globl _ZN20idPhysics_ParametricD2Ev
	.type	_ZN20idPhysics_ParametricD2Ev, @function
_ZN20idPhysics_ParametricD2Ev:
.LFB2837:
	.loc 2 139 0
	.cfi_startproc
	.cfi_personality 0,__gxx_personality_v0
	.cfi_lsda 0,.LLSDA2837
.LVL163:
	mflr 0
	stwu 1,-16(1)
.LCFI20:
	.cfi_def_cfa_offset 16
	.cfi_register 65, 0
.LBB3755:
	lis 9,_ZTV20idPhysics_Parametric+8@ha
.LBE3755:
	stw 31,12(1)
	mr 31,3
	.cfi_offset 31, -4
	stw 0,20(1)
.LBB3756:
	la 0,_ZTV20idPhysics_Parametric+8@l(9)
	.cfi_offset 65, 4
.LBE3756:
	stw 30,8(1)
.LBB3757:
	.loc 2 139 0
	stw 0,0(3)
	.loc 2 140 0
	lwz 30,1056(3)
	.cfi_offset 30, -8
	cmpwi 7,30,0
	beq- 7,.L91
	.loc 2 141 0
	mr 3,30
.LVL164:
.LEHB0:
	bl _ZN11idClipModelD1Ev
	.loc 2 141 0 is_stmt 0 discriminator 1
	mr 3,30
	bl _ZdlPv
	.loc 2 142 0 is_stmt 1 discriminator 1
	li 0,0
	stw 0,1056(31)
.L91:
	.loc 2 144 0
	lwz 3,496(31)
	cmpwi 7,3,0
	beq- 7,.L92
	.loc 2 145 0 discriminator 1
	lwz 9,0(3)
	lwz 0,4(9)
	mtctr 0
	bctrl
.LEHE0:
	.loc 2 146 0
	li 0,0
	stw 0,496(31)
.L92:
	.loc 2 139 0
	mr 3,31
.LEHB1:
	bl _ZN14idPhysics_BaseD2Ev
.LEHE1:
.LBE3757:
	.loc 2 148 0
	lwz 0,20(1)
	lwz 30,8(1)
	mtlr 0
	lwz 31,12(1)
.LVL165:
	addi 1,1,16
	.cfi_remember_state
.LCFI21:
	.cfi_def_cfa_offset 0
	.cfi_restore 31
	.cfi_restore 30
	blr
.LVL166:
.L95:
.LCFI22:
	.cfi_restore_state
	mr 30,3
.LBB3758:
	.loc 2 139 0
	mr 3,31
	bl _ZN14idPhysics_BaseD2Ev
	mr 3,30
.LEHB2:
	bl _Unwind_Resume
.LEHE2:
.LBE3758:
	.cfi_endproc
.LFE2837:
	.globl __gxx_personality_v0
	.section	.gcc_except_table,"a",@progbits
.LLSDA2837:
	.byte	0xff
	.byte	0xff
	.byte	0x1
	.uleb128 .LLSDACSE2837-.LLSDACSB2837
.LLSDACSB2837:
	.uleb128 .LEHB0-.LFB2837
	.uleb128 .LEHE0-.LEHB0
	.uleb128 .L95-.LFB2837
	.uleb128 0
	.uleb128 .LEHB1-.LFB2837
	.uleb128 .LEHE1-.LEHB1
	.uleb128 0
	.uleb128 0
	.uleb128 .LEHB2-.LFB2837
	.uleb128 .LEHE2-.LEHB2
	.uleb128 0
	.uleb128 0
.LLSDACSE2837:
	.section	".text"
	.size	_ZN20idPhysics_ParametricD2Ev, .-_ZN20idPhysics_ParametricD2Ev
	.align 2
	.globl _ZN20idPhysics_ParametricD0Ev
	.type	_ZN20idPhysics_ParametricD0Ev, @function
_ZN20idPhysics_ParametricD0Ev:
.LFB2839:
	.loc 2 139 0
	.cfi_startproc
.LVL167:
	stwu 1,-16(1)
.LCFI23:
	.cfi_def_cfa_offset 16
	mflr 0
	stw 31,12(1)
	mr 31,3
	.cfi_offset 31, -4
	.cfi_register 65, 0
	stw 0,20(1)
	.loc 2 148 0
	.cfi_offset 65, 4
	bl _ZN20idPhysics_ParametricD1Ev
.LVL168:
	mr 3,31
	bl _ZN7idClassdlEPv
	lwz 0,20(1)
	lwz 31,12(1)
.LVL169:
	mtlr 0
	addi 1,1,16
.LCFI24:
	.cfi_def_cfa_offset 0
	.cfi_restore 31
	blr
	.cfi_endproc
.LFE2839:
	.size	_ZN20idPhysics_ParametricD0Ev, .-_ZN20idPhysics_ParametricD0Ev
	.align 2
	.globl _ZN20idPhysics_Parametric8ActivateEv
	.type	_ZN20idPhysics_Parametric8ActivateEv, @function
_ZN20idPhysics_Parametric8ActivateEv:
.LFB2812:
	.loc 2 43 0
	.cfi_startproc
.LVL170:
	mflr 0
	stwu 1,-8(1)
.LCFI25:
	.cfi_def_cfa_offset 8
	.cfi_register 65, 0
	.loc 2 45 0
	li 4,2
	.loc 2 43 0
	stw 0,12(1)
	.loc 2 44 0
	li 0,-1
	.cfi_offset 65, 4
	stw 0,72(3)
	.loc 2 45 0
	lwz 3,4(3)
.LVL171:
	bl _ZN8idEntity12BecomeActiveEi
	.loc 2 46 0
	lwz 0,12(1)
	addi 1,1,8
.LCFI26:
	.cfi_def_cfa_offset 0
	mtlr 0
	blr
	.cfi_endproc
.LFE2812:
	.size	_ZN20idPhysics_Parametric8ActivateEv, .-_ZN20idPhysics_Parametric8ActivateEv
	.align 2
	.globl _ZNK20idPhysics_Parametric9GetBoundsEi
	.type	_ZNK20idPhysics_Parametric9GetBoundsEi, @function
_ZNK20idPhysics_Parametric9GetBoundsEi:
.LFB2866:
	.loc 2 554 0
	.cfi_startproc
.LVL172:
	mflr 0
	stwu 1,-8(1)
.LCFI27:
	.cfi_def_cfa_offset 8
	.cfi_register 65, 0
	stw 0,12(1)
	.loc 2 555 0
	lwz 9,1056(3)
	cmpwi 7,9,0
	beq- 7,.L100
	.cfi_offset 65, 4
.LVL173:
	.loc 2 559 0
	lwz 0,12(1)
	.loc 2 556 0
	addi 3,9,64
.LVL174:
	.loc 2 559 0
	addi 1,1,8
	.cfi_remember_state
.LCFI28:
	.cfi_def_cfa_offset 0
	mtlr 0
	blr
.LVL175:
.L100:
.LCFI29:
	.cfi_restore_state
.LBB3761:
.LBB3762:
	.loc 2 558 0
	li 4,-1
.LVL176:
	bl _ZNK14idPhysics_Base9GetBoundsEi
.LVL177:
.LBE3762:
.LBE3761:
	.loc 2 559 0
	lwz 0,12(1)
	addi 1,1,8
.LCFI30:
	.cfi_def_cfa_offset 0
	mtlr 0
	blr
	.cfi_endproc
.LFE2866:
	.size	_ZNK20idPhysics_Parametric9GetBoundsEi, .-_ZNK20idPhysics_Parametric9GetBoundsEi
	.align 2
	.globl _ZNK20idPhysics_Parametric12GetAbsBoundsEi
	.type	_ZNK20idPhysics_Parametric12GetAbsBoundsEi, @function
_ZNK20idPhysics_Parametric12GetAbsBoundsEi:
.LFB2867:
	.loc 2 566 0
	.cfi_startproc
.LVL178:
	mflr 0
	stwu 1,-8(1)
.LCFI31:
	.cfi_def_cfa_offset 8
	.cfi_register 65, 0
	stw 0,12(1)
	.loc 2 567 0
	lwz 9,1056(3)
	cmpwi 7,9,0
	beq- 7,.L103
	.cfi_offset 65, 4
.LVL179:
	.loc 2 571 0
	lwz 0,12(1)
	.loc 2 568 0
	addi 3,9,88
.LVL180:
	.loc 2 571 0
	addi 1,1,8
	.cfi_remember_state
.LCFI32:
	.cfi_def_cfa_offset 0
	mtlr 0
	blr
.LVL181:
.L103:
.LCFI33:
	.cfi_restore_state
.LBB3765:
.LBB3766:
	.loc 2 570 0
	li 4,-1
.LVL182:
	bl _ZNK14idPhysics_Base12GetAbsBoundsEi
.LVL183:
.LBE3766:
.LBE3765:
	.loc 2 571 0
	lwz 0,12(1)
	addi 1,1,8
.LCFI34:
	.cfi_def_cfa_offset 0
	mtlr 0
	blr
	.cfi_endproc
.LFE2867:
	.size	_ZNK20idPhysics_Parametric12GetAbsBoundsEi, .-_ZNK20idPhysics_Parametric12GetAbsBoundsEi
	.align 2
	.globl _ZNK20idPhysics_Parametric17GetAngularEndTimeEv
	.type	_ZNK20idPhysics_Parametric17GetAngularEndTimeEv, @function
_ZNK20idPhysics_Parametric17GetAngularEndTimeEv:
.LFB2895:
	.loc 2 1024 0
	.cfi_startproc
.LVL184:
	stwu 1,-16(1)
.LCFI35:
	.cfi_def_cfa_offset 16
	.loc 2 1025 0
	lis 11,.LC0@ha
	lfs 11,.LC0@l(11)
	.loc 2 1024 0
	mr 9,3
.LVL185:
.LBB3779:
.LBB3780:
	.loc 7 145 0
	lfs 12,396(3)
	lfs 13,400(3)
	lfs 0,404(3)
	fadds 10,12,13
	fadds 10,10,0
.LBE3780:
.LBE3779:
	.loc 2 1025 0
	fcmpu 7,10,11
	bne- 7,.L113
.LVL186:
.LBB3781:
.LBB3782:
	.loc 4 61 0
	lwz 0,224(3)
	li 3,0
.LVL187:
	andi. 11,0,64
	bne- 0,.L107
	lfs 0,232(9)
	fcmpu 7,0,11
	bng- 7,.L107
	lfs 13,228(9)
	addi 9,1,8
.LVL188:
	fadds 0,0,13
	fctiwz 0,0
	stfiwx 0,0,9
	lwz 3,8(1)
.L107:
.LBE3782:
.LBE3781:
	.loc 2 1030 0
	addi 1,1,16
	.cfi_remember_state
.LCFI36:
	.cfi_def_cfa_offset 0
	blr
.LVL189:
.L113:
.LCFI37:
	.cfi_restore_state
.LBB3783:
.LBB3784:
.LBB3785:
.LBB3786:
	.loc 7 144 0
	lfs 11,392(3)
.LBE3786:
.LBE3785:
	.loc 2 1026 0
	addi 9,1,12
.LBB3788:
.LBB3787:
	.loc 7 144 0
	fadds 12,12,11
	fadds 13,13,12
	fadds 0,0,13
.LBE3787:
.LBE3788:
	.loc 2 1026 0
	fctiwz 0,0
	stfiwx 0,0,9
	lwz 3,12(1)
.LVL190:
.LBE3784:
.LBE3783:
	.loc 2 1030 0
	addi 1,1,16
.LCFI38:
	.cfi_def_cfa_offset 0
	blr
	.cfi_endproc
.LFE2895:
	.size	_ZNK20idPhysics_Parametric17GetAngularEndTimeEv, .-_ZNK20idPhysics_Parametric17GetAngularEndTimeEv
	.align 2
	.globl _ZNK20idPhysics_Parametric16GetLinearEndTimeEv
	.type	_ZNK20idPhysics_Parametric16GetLinearEndTimeEv, @function
_ZNK20idPhysics_Parametric16GetLinearEndTimeEv:
.LFB2894:
	.loc 2 1005 0
	.cfi_startproc
.LVL191:
	mflr 0
	stwu 1,-32(1)
.LCFI39:
	.cfi_def_cfa_offset 32
	.cfi_register 65, 0
	stw 31,28(1)
	mr 31,3
	.cfi_offset 31, -4
	stw 0,36(1)
	.loc 2 1006 0
	lwz 3,496(3)
.LVL192:
	cmpwi 7,3,0
	beq- 7,.L115
	.cfi_offset 65, 4
	.loc 2 1007 0
	lwz 9,0(3)
	lwz 0,40(9)
	mtctr 0
	bctrl
	cmpwi 7,3,2
	.loc 2 1010 0
	li 3,0
	.loc 2 1007 0
	beq- 7,.L116
	.loc 2 1008 0
	lwz 9,496(31)
.LVL193:
.LBB3811:
.LBB3812:
.LBB3813:
.LBB3814:
	.loc 9 573 0
	lwz 11,20(9)
.LBE3814:
.LBE3813:
	.loc 8 60 0
	lwz 9,16(9)
.LBB3816:
.LBB3815:
	.loc 9 573 0
	addi 0,11,-1
.LBE3815:
.LBE3816:
	.loc 8 60 0
	slwi 0,0,2
.LBE3812:
.LBE3811:
	.loc 2 1008 0
	lfsx 0,9,0
	addi 9,1,16
	fctiwz 0,0
	stfiwx 0,0,9
	lwz 3,16(1)
.LVL194:
.L116:
	.loc 2 1017 0
	lwz 0,36(1)
	lwz 31,28(1)
.LVL195:
	mtlr 0
	addi 1,1,32
	.cfi_remember_state
.LCFI40:
	.cfi_def_cfa_offset 0
	.cfi_restore 31
	blr
.LVL196:
.L115:
.LCFI41:
	.cfi_restore_state
.LBB3817:
.LBB3818:
	.loc 7 145 0
	lfs 12,292(31)
.LBE3818:
.LBE3817:
	.loc 2 1012 0
	lis 9,.LC0@ha
.LBB3821:
.LBB3819:
	.loc 7 145 0
	lfs 13,296(31)
	lfs 0,300(31)
	fadds 10,12,13
.LBE3819:
.LBE3821:
	.loc 2 1012 0
	lfs 11,.LC0@l(9)
.LBB3822:
.LBB3820:
	.loc 7 145 0
	fadds 10,10,0
.LBE3820:
.LBE3822:
	.loc 2 1012 0
	fcmpu 7,10,11
	bne- 7,.L124
.LVL197:
.LBB3823:
.LBB3824:
.LBB3825:
	.loc 4 61 0
	lwz 0,160(31)
	li 3,0
	andi. 9,0,64
	bne- 0,.L116
	lfs 0,168(31)
	fcmpu 7,0,11
	bng- 7,.L116
	lfs 13,164(31)
	addi 9,1,8
	fadds 0,0,13
	fctiwz 0,0
	stfiwx 0,0,9
	lwz 3,8(1)
	b .L116
.LVL198:
.L124:
.LBE3825:
.LBE3824:
.LBE3823:
.LBB3826:
.LBB3827:
	.loc 7 144 0
	lfs 11,288(31)
.LBE3827:
.LBE3826:
	.loc 2 1013 0
	addi 9,1,12
.LBB3829:
.LBB3828:
	.loc 7 144 0
	fadds 12,12,11
	fadds 13,13,12
	fadds 0,0,13
.LBE3828:
.LBE3829:
	.loc 2 1013 0
	fctiwz 0,0
	stfiwx 0,0,9
	.loc 2 1017 0
	lwz 0,36(1)
	.loc 2 1013 0
	lwz 3,12(1)
	.loc 2 1017 0
	mtlr 0
	lwz 31,28(1)
.LVL199:
	addi 1,1,32
	.cfi_restore 31
.LCFI42:
	.cfi_def_cfa_offset 0
	blr
	.cfi_endproc
.LFE2894:
	.size	_ZNK20idPhysics_Parametric16GetLinearEndTimeEv, .-_ZNK20idPhysics_Parametric16GetLinearEndTimeEv
	.align 2
	.type	_Z41__static_initialization_and_destruction_0ii.constprop.56, @function
_Z41__static_initialization_and_destruction_0ii.constprop.56:
.LFB3357:
	.loc 2 1185 0
	.cfi_startproc
.LVL200:
	cmpwi 7,3,1
	mflr 0
	stwu 1,-40(1)
.LCFI43:
	.cfi_def_cfa_offset 40
	.cfi_register 65, 0
	stw 0,44(1)
	stw 30,32(1)
	stw 31,36(1)
	.loc 2 1185 0
	beq- 7,.L128
	.cfi_offset 31, -4
	.cfi_offset 30, -8
	.cfi_offset 65, 4
	.loc 2 34 0
	cmpwi 7,3,0
	bne- 7,.L125
.LVL201:
.LBB3840:
.LBB3841:
	lis 3,.LANCHOR0@ha
.LVL202:
	la 3,.LANCHOR0@l(3)
	bl _ZN10idTypeInfoD1Ev
.LVL203:
.L125:
.LBE3841:
.LBE3840:
	.loc 2 1185 0
	lwz 0,44(1)
	lwz 30,32(1)
	mtlr 0
	lwz 31,36(1)
	addi 1,1,40
	.cfi_remember_state
.LCFI44:
	.cfi_def_cfa_offset 0
	.cfi_restore 31
	.cfi_restore 30
	blr
.LVL204:
.L128:
.LCFI45:
	.cfi_restore_state
	.file 13 "d:/Data/Nintendo/DoomGX/src/game/physics/../Game_local.h"
	.loc 13 694 0
	lis 9,_ZN6idMath8M_SEC2MSE@ha
	.loc 13 121 0
	lis 11,.LANCHOR0@ha
	.loc 13 694 0
	lfs 0,_ZN6idMath8M_SEC2MSE@l(9)
	.loc 13 121 0
	la 11,.LANCHOR0@l(11)
.LBB3842:
.LBB3843:
	.loc 5 396 0
	li 12,0
.LBE3843:
.LBE3842:
	.loc 13 121 0
	li 30,3
.LBB3847:
.LBB3844:
	.loc 5 396 0
	stw 12,128(11)
.LBE3844:
.LBE3847:
	.loc 13 694 0
	fadds 0,0,0
.LBB3848:
.LBB3845:
	.loc 5 397 0
	stw 12,132(11)
	.loc 5 398 0
	lis 12,.LC5@ha
	lwz 12,.LC5@l(12)
.LBE3845:
.LBE3848:
.LBB3849:
.LBB3850:
	.loc 12 825 0
	addi 31,11,140
	fctiwz 0,0
.LBE3850:
.LBE3849:
	.loc 13 121 0
	stw 30,124(11)
.LVL205:
.LBB3852:
.LBB3846:
	.loc 5 398 0
	stw 12,136(11)
.LVL206:
.LBE3846:
.LBE3852:
	.file 14 "d:/Data/Nintendo/DoomGX/src/game/physics/../Player.h"
	.loc 14 69 0
	li 12,10
	stw 12,144(11)
	.loc 2 34 0
	mr 3,11
.LVL207:
	addi 6,11,148
	lis 11,_ZN7idClass5SpawnEv@ha
	la 11,_ZN7idClass5SpawnEv@l(11)
.LBB3853:
.LBB3851:
	.loc 12 825 0
	stfiwx 0,0,31
.LVL208:
.LBE3851:
.LBE3853:
	.loc 2 34 0
	stw 11,8(1)
	lis 11,_ZNK20idPhysics_Parametric4SaveEP10idSaveGame@ha
	la 11,_ZNK20idPhysics_Parametric4SaveEP10idSaveGame@l(11)
	lis 4,.LC6@ha
	stw 11,16(1)
	lis 5,.LC7@ha
	lis 7,_ZN20idPhysics_Parametric14CreateInstanceEv@ha
	lis 11,_ZN20idPhysics_Parametric7RestoreEP13idRestoreGame@ha
	li 0,0
	la 11,_ZN20idPhysics_Parametric7RestoreEP13idRestoreGame@l(11)
	la 4,.LC6@l(4)
	la 5,.LC7@l(5)
	la 7,_ZN20idPhysics_Parametric14CreateInstanceEv@l(7)
	addi 8,1,8
	addi 9,1,16
	addi 10,1,24
	stw 0,12(1)
	stw 0,20(1)
	stw 11,24(1)
	stw 0,28(1)
	bl _ZN10idTypeInfoC1EPKcS1_P11idEventFuncI7idClassEPFPS3_vEMS3_FvvEMS3_KFvP10idSaveGameEMS3_FvP13idRestoreGameE
	b .L125
	.cfi_endproc
.LFE3357:
	.size	_Z41__static_initialization_and_destruction_0ii.constprop.56, .-_Z41__static_initialization_and_destruction_0ii.constprop.56
	.section	.text._ZN14idFixedWindingD2Ev,"axG",@progbits,_ZN14idFixedWindingD5Ev,comdat
	.align 2
	.weak	_ZN14idFixedWindingD2Ev
	.type	_ZN14idFixedWindingD2Ev, @function
_ZN14idFixedWindingD2Ev:
.LFB1498:
	.loc 1 380 0
	.cfi_startproc
.LVL209:
.LBB3859:
	.loc 1 381 0
	li 0,0
.LBB3860:
.LBB3861:
.LBB3862:
	.loc 1 183 0
	lis 9,_ZTV9idWinding+8@ha
.LBE3862:
.LBE3861:
.LBE3860:
	.loc 1 381 0
	stw 0,8(3)
.LVL210:
.LBB3865:
.LBB3864:
.LBB3863:
	.loc 1 183 0
	la 0,_ZTV9idWinding+8@l(9)
	stw 0,0(3)
.LBE3863:
.LBE3864:
.LBE3865:
.LBE3859:
	.loc 1 382 0
	blr
	.cfi_endproc
.LFE1498:
	.size	_ZN14idFixedWindingD2Ev, .-_ZN14idFixedWindingD2Ev
	.section	.text._ZN9idWindingD0Ev,"axG",@progbits,_ZN9idWindingD5Ev,comdat
	.align 2
	.weak	_ZN9idWindingD0Ev
	.type	_ZN9idWindingD0Ev, @function
_ZN9idWindingD0Ev:
.LFB1463:
	.loc 1 183 0
	.cfi_startproc
.LVL211:
	mflr 0
	stwu 1,-16(1)
.LCFI46:
	.cfi_def_cfa_offset 16
	.cfi_register 65, 0
.LBB3869:
.LBB3870:
.LBB3871:
	lis 9,_ZTV9idWinding+8@ha
.LBE3871:
.LBE3870:
.LBE3869:
	stw 31,12(1)
	mr 31,3
	.cfi_offset 31, -4
.LVL212:
	stw 0,20(1)
.LBB3876:
.LBB3874:
.LBB3872:
	.loc 1 183 0
	la 0,_ZTV9idWinding+8@l(9)
	.cfi_offset 65, 4
	.loc 1 184 0
	lwz 3,8(3)
.LVL213:
	.loc 1 183 0
	stw 0,0(31)
	.loc 1 184 0
	cmpwi 7,3,0
	beq- 7,.L133
	bl _ZdaPv
.LVL214:
.L133:
	.loc 1 185 0
	li 0,0
.LBE3872:
.LBE3874:
.LBE3876:
	.loc 1 186 0
	mr 3,31
.LBB3877:
.LBB3875:
.LBB3873:
	.loc 1 185 0
	stw 0,8(31)
.LBE3873:
.LBE3875:
.LBE3877:
	.loc 1 186 0
	bl _ZdlPv
	lwz 0,20(1)
	lwz 31,12(1)
.LVL215:
	mtlr 0
	addi 1,1,16
.LCFI47:
	.cfi_def_cfa_offset 0
	.cfi_restore 31
	blr
	.cfi_endproc
.LFE1463:
	.size	_ZN9idWindingD0Ev, .-_ZN9idWindingD0Ev
	.section	.text._ZN14idFixedWindingD0Ev,"axG",@progbits,_ZN14idFixedWindingD5Ev,comdat
	.align 2
	.weak	_ZN14idFixedWindingD0Ev
	.type	_ZN14idFixedWindingD0Ev, @function
_ZN14idFixedWindingD0Ev:
.LFB1500:
	.loc 1 380 0
	.cfi_startproc
.LVL216:
	mflr 0
	stwu 1,-8(1)
.LCFI48:
	.cfi_def_cfa_offset 8
	.cfi_register 65, 0
.LBB3884:
.LBB3885:
.LBB3886:
.LBB3887:
.LBB3888:
.LBB3889:
	.loc 1 183 0
	lis 11,_ZTV9idWinding+8@ha
.LBE3889:
.LBE3888:
.LBE3887:
.LBE3886:
.LBE3885:
.LBE3884:
	.loc 1 380 0
	stw 0,12(1)
.LBB3895:
.LBB3894:
.LBB3893:
	.loc 1 381 0
	li 0,0
	.cfi_offset 65, 4
	stw 0,8(3)
.LVL217:
.LBB3892:
.LBB3891:
.LBB3890:
	.loc 1 183 0
	la 0,_ZTV9idWinding+8@l(11)
	stw 0,0(3)
.LBE3890:
.LBE3891:
.LBE3892:
.LBE3893:
.LBE3894:
.LBE3895:
	.loc 1 382 0
	bl _ZdlPv
.LVL218:
	lwz 0,12(1)
	addi 1,1,8
.LCFI49:
	.cfi_def_cfa_offset 0
	mtlr 0
	blr
	.cfi_endproc
.LFE1500:
	.size	_ZN14idFixedWindingD0Ev, .-_ZN14idFixedWindingD0Ev
	.section	".text"
	.align 2
	.globl _ZNK20idPhysics_Parametric15WriteToSnapshotER13idBitMsgDelta
	.type	_ZNK20idPhysics_Parametric15WriteToSnapshotER13idBitMsgDelta, @function
_ZNK20idPhysics_Parametric15WriteToSnapshotER13idBitMsgDelta:
.LFB2896:
	.loc 2 1037 0
	.cfi_startproc
.LVL219:
	mflr 0
	stwu 1,-24(1)
.LCFI50:
	.cfi_def_cfa_offset 24
	.cfi_register 65, 0
.LBB4132:
.LBB4133:
	.file 15 "d:/Data/Nintendo/DoomGX/src/game/physics/../../idlib/../idlib/BitMsg.h"
	.loc 15 555 0
	li 5,32
.LBE4133:
.LBE4132:
	.loc 2 1037 0
	stw 30,16(1)
	mr 30,4
	.cfi_offset 30, -8
.LVL220:
	stw 0,28(1)
	stw 31,20(1)
	.loc 2 1037 0
	mr 31,3
	.cfi_offset 31, -4
	.cfi_offset 65, 4
.LBB4135:
.LBB4134:
	.loc 15 555 0
	lwz 4,68(3)
.LVL221:
	mr 3,30
.LVL222:
	bl _ZN13idBitMsgDelta9WriteBitsEii
.LVL223:
.LBE4134:
.LBE4135:
.LBB4136:
.LBB4137:
	lwz 4,72(31)
	mr 3,30
	li 5,32
	bl _ZN13idBitMsgDelta9WriteBitsEii
.LVL224:
.LBE4137:
.LBE4136:
.LBB4138:
.LBB4139:
	.loc 15 559 0
	lwz 4,76(31)
	mr 3,30
	li 5,32
	bl _ZN13idBitMsgDelta9WriteBitsEii
.LVL225:
.LBE4139:
.LBE4138:
.LBB4140:
.LBB4141:
	lwz 4,80(31)
	mr 3,30
	li 5,32
	bl _ZN13idBitMsgDelta9WriteBitsEii
.LVL226:
.LBE4141:
.LBE4140:
.LBB4142:
.LBB4143:
	lwz 4,84(31)
	mr 3,30
	li 5,32
	bl _ZN13idBitMsgDelta9WriteBitsEii
.LVL227:
.LBE4143:
.LBE4142:
.LBB4144:
.LBB4145:
	lwz 4,88(31)
	mr 3,30
	li 5,32
	bl _ZN13idBitMsgDelta9WriteBitsEii
.LVL228:
.LBE4145:
.LBE4144:
.LBB4146:
.LBB4147:
	lwz 4,92(31)
	mr 3,30
	li 5,32
	bl _ZN13idBitMsgDelta9WriteBitsEii
.LVL229:
.LBE4147:
.LBE4146:
.LBB4148:
.LBB4149:
	lwz 4,96(31)
	mr 3,30
	li 5,32
	bl _ZN13idBitMsgDelta9WriteBitsEii
.LVL230:
.LBE4149:
.LBE4148:
.LBB4150:
.LBB4151:
	.loc 15 596 0
	lwz 4,76(31)
	lwz 5,136(31)
	mr 3,30
	li 6,32
	bl _ZN13idBitMsgDelta10WriteDeltaEiii
.LVL231:
.LBE4151:
.LBE4150:
.LBB4152:
.LBB4153:
	lwz 4,80(31)
	lwz 5,140(31)
	mr 3,30
	li 6,32
	bl _ZN13idBitMsgDelta10WriteDeltaEiii
.LVL232:
.LBE4153:
.LBE4152:
.LBB4154:
.LBB4155:
	lwz 4,84(31)
	lwz 5,144(31)
	mr 3,30
	li 6,32
	bl _ZN13idBitMsgDelta10WriteDeltaEiii
.LVL233:
.LBE4155:
.LBE4154:
.LBB4156:
.LBB4157:
	lwz 4,88(31)
	lwz 5,148(31)
	mr 3,30
	li 6,32
	bl _ZN13idBitMsgDelta10WriteDeltaEiii
.LVL234:
.LBE4157:
.LBE4156:
.LBB4158:
.LBB4159:
	lwz 4,92(31)
	lwz 5,152(31)
	mr 3,30
	li 6,32
	bl _ZN13idBitMsgDelta10WriteDeltaEiii
.LVL235:
.LBE4159:
.LBE4158:
.LBB4160:
.LBB4161:
	lwz 4,96(31)
	lwz 5,156(31)
	mr 3,30
	li 6,32
	bl _ZN13idBitMsgDelta10WriteDeltaEiii
.LVL236:
.LBE4161:
.LBE4160:
	.loc 2 1053 0
	lwz 4,160(31)
	mr 3,30
	li 5,8
	bl _ZN13idBitMsgDelta9WriteBitsEii
.LVL237:
.LBB4162:
.LBB4163:
	.loc 15 596 0
	lwz 5,164(31)
	mr 3,30
	li 4,0
	li 6,32
	bl _ZN13idBitMsgDelta10WriteDeltaEiii
.LVL238:
.LBE4163:
.LBE4162:
.LBB4164:
.LBB4165:
	lwz 5,168(31)
	mr 3,30
	li 4,0
	li 6,32
	bl _ZN13idBitMsgDelta10WriteDeltaEiii
.LVL239:
.LBE4165:
.LBE4164:
.LBB4166:
.LBB4167:
	lwz 5,172(31)
	mr 3,30
	li 4,0
	li 6,32
	bl _ZN13idBitMsgDelta10WriteDeltaEiii
.LVL240:
.LBE4167:
.LBE4166:
.LBB4168:
.LBB4169:
	lwz 5,176(31)
	mr 3,30
	li 4,0
	li 6,32
	bl _ZN13idBitMsgDelta10WriteDeltaEiii
.LVL241:
.LBE4169:
.LBE4168:
.LBB4170:
.LBB4171:
	lwz 5,180(31)
	mr 3,30
	li 4,0
	li 6,32
	bl _ZN13idBitMsgDelta10WriteDeltaEiii
.LVL242:
.LBE4171:
.LBE4170:
.LBB4172:
.LBB4173:
	lwz 5,196(31)
	mr 3,30
	li 4,0
	li 6,32
	bl _ZN13idBitMsgDelta10WriteDeltaEiii
.LVL243:
.LBE4173:
.LBE4172:
.LBB4174:
.LBB4175:
	lwz 5,200(31)
	mr 3,30
	li 4,0
	li 6,32
	bl _ZN13idBitMsgDelta10WriteDeltaEiii
.LVL244:
.LBE4175:
.LBE4174:
.LBB4176:
.LBB4177:
	lwz 5,204(31)
	mr 3,30
	li 4,0
	li 6,32
	bl _ZN13idBitMsgDelta10WriteDeltaEiii
.LVL245:
.LBE4177:
.LBE4176:
.LBB4178:
.LBB4179:
	lwz 5,184(31)
	mr 3,30
	li 4,0
	li 6,32
	bl _ZN13idBitMsgDelta10WriteDeltaEiii
.LVL246:
.LBE4179:
.LBE4178:
.LBB4180:
.LBB4181:
	lwz 5,188(31)
	mr 3,30
	li 4,0
	li 6,32
	bl _ZN13idBitMsgDelta10WriteDeltaEiii
.LVL247:
.LBE4181:
.LBE4180:
.LBB4182:
.LBB4183:
	lwz 5,192(31)
	mr 3,30
	li 6,32
	li 4,0
	bl _ZN13idBitMsgDelta10WriteDeltaEiii
.LVL248:
.LBE4183:
.LBE4182:
	.loc 2 1066 0
	lwz 4,224(31)
	mr 3,30
	li 5,8
	bl _ZN13idBitMsgDelta9WriteBitsEii
.LVL249:
.LBB4184:
.LBB4185:
	.loc 15 596 0
	lwz 5,228(31)
	mr 3,30
	li 4,0
	li 6,32
	bl _ZN13idBitMsgDelta10WriteDeltaEiii
.LVL250:
.LBE4185:
.LBE4184:
.LBB4186:
.LBB4187:
	lwz 5,232(31)
	mr 3,30
	li 4,0
	li 6,32
	bl _ZN13idBitMsgDelta10WriteDeltaEiii
.LVL251:
.LBE4187:
.LBE4186:
.LBB4188:
.LBB4189:
	lwz 5,236(31)
	mr 3,30
	li 4,0
	li 6,32
	bl _ZN13idBitMsgDelta10WriteDeltaEiii
.LVL252:
.LBE4189:
.LBE4188:
.LBB4190:
.LBB4191:
	lwz 5,240(31)
	mr 3,30
	li 4,0
	li 6,32
	bl _ZN13idBitMsgDelta10WriteDeltaEiii
.LVL253:
.LBE4191:
.LBE4190:
.LBB4192:
.LBB4193:
	lwz 5,244(31)
	mr 3,30
	li 4,0
	li 6,32
	bl _ZN13idBitMsgDelta10WriteDeltaEiii
.LVL254:
.LBE4193:
.LBE4192:
.LBB4194:
.LBB4195:
	lwz 5,260(31)
	mr 3,30
	li 4,0
	li 6,32
	bl _ZN13idBitMsgDelta10WriteDeltaEiii
.LVL255:
.LBE4195:
.LBE4194:
.LBB4196:
.LBB4197:
	lwz 5,264(31)
	mr 3,30
	li 4,0
	li 6,32
	bl _ZN13idBitMsgDelta10WriteDeltaEiii
.LVL256:
.LBE4197:
.LBE4196:
.LBB4198:
.LBB4199:
	lwz 5,268(31)
	mr 3,30
	li 4,0
	li 6,32
	bl _ZN13idBitMsgDelta10WriteDeltaEiii
.LVL257:
.LBE4199:
.LBE4198:
.LBB4200:
.LBB4201:
	lwz 5,248(31)
	mr 3,30
	li 4,0
	li 6,32
	bl _ZN13idBitMsgDelta10WriteDeltaEiii
.LVL258:
.LBE4201:
.LBE4200:
.LBB4202:
.LBB4203:
	lwz 5,252(31)
	mr 3,30
	li 4,0
	li 6,32
	bl _ZN13idBitMsgDelta10WriteDeltaEiii
.LVL259:
.LBE4203:
.LBE4202:
.LBB4204:
.LBB4205:
	lwz 5,256(31)
	mr 3,30
	li 4,0
	li 6,32
	bl _ZN13idBitMsgDelta10WriteDeltaEiii
.LVL260:
.LBE4205:
.LBE4204:
.LBB4206:
.LBB4207:
	lwz 5,288(31)
	mr 3,30
	li 4,0
	li 6,32
	bl _ZN13idBitMsgDelta10WriteDeltaEiii
.LVL261:
.LBE4207:
.LBE4206:
.LBB4208:
.LBB4209:
	lwz 5,292(31)
	mr 3,30
	li 4,0
	li 6,32
	bl _ZN13idBitMsgDelta10WriteDeltaEiii
.LVL262:
.LBE4209:
.LBE4208:
.LBB4210:
.LBB4211:
	lwz 5,300(31)
	mr 3,30
	li 4,0
	li 6,32
	bl _ZN13idBitMsgDelta10WriteDeltaEiii
.LVL263:
.LBE4211:
.LBE4210:
.LBB4212:
.LBB4213:
	.loc 7 145 0
	lfs 12,292(31)
	lfs 13,296(31)
.LBE4213:
.LBE4212:
.LBB4216:
.LBB4217:
	.loc 15 596 0
	mr 3,30
.LBE4217:
.LBE4216:
.LBB4220:
.LBB4214:
	.loc 7 145 0
	lfs 0,300(31)
.LBE4214:
.LBE4220:
.LBB4221:
.LBB4218:
	.loc 15 596 0
	li 4,0
.LBE4218:
.LBE4221:
.LBB4222:
.LBB4215:
	.loc 7 145 0
	fadds 13,12,13
.LBE4215:
.LBE4222:
.LBB4223:
.LBB4219:
	.loc 15 596 0
	li 6,32
	fadds 0,13,0
	stfs 0,8(1)
	lwz 5,8(1)
	bl _ZN13idBitMsgDelta10WriteDeltaEiii
.LVL264:
.LBE4219:
.LBE4223:
.LBB4224:
.LBB4225:
	lwz 5,304(31)
	mr 3,30
	li 4,0
	li 6,32
	bl _ZN13idBitMsgDelta10WriteDeltaEiii
.LVL265:
.LBE4225:
.LBE4224:
.LBB4226:
.LBB4227:
	lwz 5,308(31)
	mr 3,30
	li 4,0
	li 6,32
	bl _ZN13idBitMsgDelta10WriteDeltaEiii
.LVL266:
.LBE4227:
.LBE4226:
.LBB4228:
.LBB4229:
	lwz 5,312(31)
	mr 3,30
	li 4,0
	li 6,32
	bl _ZN13idBitMsgDelta10WriteDeltaEiii
.LVL267:
.LBE4229:
.LBE4228:
.LBB4230:
.LBB4231:
	lwz 5,316(31)
	mr 3,30
	li 4,0
	li 6,32
	bl _ZN13idBitMsgDelta10WriteDeltaEiii
.LVL268:
.LBE4231:
.LBE4230:
.LBB4232:
.LBB4233:
	lwz 5,320(31)
	mr 3,30
	li 4,0
	li 6,32
	bl _ZN13idBitMsgDelta10WriteDeltaEiii
.LVL269:
.LBE4233:
.LBE4232:
.LBB4234:
.LBB4235:
	lwz 5,324(31)
	mr 3,30
	li 4,0
	li 6,32
	bl _ZN13idBitMsgDelta10WriteDeltaEiii
.LVL270:
.LBE4235:
.LBE4234:
.LBB4236:
.LBB4237:
	lwz 5,392(31)
	mr 3,30
	li 4,0
	li 6,32
	bl _ZN13idBitMsgDelta10WriteDeltaEiii
.LVL271:
.LBE4237:
.LBE4236:
.LBB4238:
.LBB4239:
	lwz 5,396(31)
	mr 3,30
	li 4,0
	li 6,32
	bl _ZN13idBitMsgDelta10WriteDeltaEiii
.LVL272:
.LBE4239:
.LBE4238:
.LBB4240:
.LBB4241:
	lwz 5,404(31)
	mr 3,30
	li 4,0
	li 6,32
	bl _ZN13idBitMsgDelta10WriteDeltaEiii
.LVL273:
.LBE4241:
.LBE4240:
.LBB4242:
.LBB4243:
	.loc 7 145 0
	lfs 12,396(31)
	lfs 13,400(31)
.LBE4243:
.LBE4242:
.LBB4246:
.LBB4247:
	.loc 15 596 0
	mr 3,30
.LBE4247:
.LBE4246:
.LBB4250:
.LBB4244:
	.loc 7 145 0
	lfs 0,404(31)
.LBE4244:
.LBE4250:
.LBB4251:
.LBB4248:
	.loc 15 596 0
	li 4,0
.LBE4248:
.LBE4251:
.LBB4252:
.LBB4245:
	.loc 7 145 0
	fadds 13,12,13
.LBE4245:
.LBE4252:
.LBB4253:
.LBB4249:
	.loc 15 596 0
	li 6,32
	fadds 0,13,0
	stfs 0,8(1)
	lwz 5,8(1)
	bl _ZN13idBitMsgDelta10WriteDeltaEiii
.LVL274:
.LBE4249:
.LBE4253:
.LBB4254:
.LBB4255:
	lwz 5,408(31)
	mr 3,30
	li 4,0
	li 6,32
	bl _ZN13idBitMsgDelta10WriteDeltaEiii
.LVL275:
.LBE4255:
.LBE4254:
.LBB4256:
.LBB4257:
	lwz 5,412(31)
	mr 3,30
	li 4,0
	li 6,32
	bl _ZN13idBitMsgDelta10WriteDeltaEiii
.LVL276:
.LBE4257:
.LBE4256:
.LBB4258:
.LBB4259:
	lwz 5,416(31)
	mr 3,30
	li 4,0
	li 6,32
	bl _ZN13idBitMsgDelta10WriteDeltaEiii
.LVL277:
.LBE4259:
.LBE4258:
.LBB4260:
.LBB4261:
	lwz 5,420(31)
	mr 3,30
	li 4,0
	li 6,32
	bl _ZN13idBitMsgDelta10WriteDeltaEiii
.LVL278:
.LBE4261:
.LBE4260:
.LBB4262:
.LBB4263:
	lwz 5,424(31)
	mr 3,30
	li 4,0
	li 6,32
	bl _ZN13idBitMsgDelta10WriteDeltaEiii
.LVL279:
.LBE4263:
.LBE4262:
.LBB4264:
.LBB4265:
	lwz 5,428(31)
	mr 3,30
	li 4,0
	li 6,32
	bl _ZN13idBitMsgDelta10WriteDeltaEiii
.LVL280:
.LBE4265:
.LBE4264:
	.loc 2 1100 0
	lwz 0,28(1)
	lwz 30,16(1)
.LVL281:
	mtlr 0
	lwz 31,20(1)
.LVL282:
	addi 1,1,24
.LCFI51:
	.cfi_def_cfa_offset 0
	.cfi_restore 31
	.cfi_restore 30
	blr
	.cfi_endproc
.LFE2896:
	.size	_ZNK20idPhysics_Parametric15WriteToSnapshotER13idBitMsgDelta, .-_ZNK20idPhysics_Parametric15WriteToSnapshotER13idBitMsgDelta
	.align 2
	.globl _ZN20idPhysics_Parametric12RestoreStateEv
	.type	_ZN20idPhysics_Parametric12RestoreStateEv, @function
_ZN20idPhysics_Parametric12RestoreStateEv:
.LFB2875:
	.loc 2 731 0
	.cfi_startproc
.LVL283:
	mflr 0
	stwu 1,-40(1)
.LCFI52:
	.cfi_def_cfa_offset 40
	.cfi_register 65, 0
	stw 30,32(1)
	mr 30,3
	.cfi_offset 30, -8
.LVL284:
	stw 31,36(1)
.LBB4332:
.LBB4333:
.LBB4334:
.LBB4335:
	.loc 11 333 0
	addi 31,3,100
	.cfi_offset 31, -4
.LBE4335:
.LBE4334:
.LBE4333:
.LBE4332:
	.loc 2 731 0
	stw 0,44(1)
	stw 24,8(1)
	stw 25,12(1)
	stw 26,16(1)
	stw 27,20(1)
	stw 28,24(1)
	stw 29,28(1)
.LBB4517:
.LBB4514:
	.loc 10 45 0
	lwz 5,560(3)
	lwz 6,564(3)
.LBB4344:
.LBB4345:
	.loc 5 424 0
	lwz 7,568(3)
.LBE4345:
.LBE4344:
.LBB4350:
.LBB4351:
	.loc 6 146 0
	lwz 11,580(3)
	.loc 6 147 0
	lwz 9,584(3)
	.loc 6 148 0
	lwz 0,588(3)
	.cfi_offset 29, -12
	.cfi_offset 28, -16
	.cfi_offset 27, -20
	.cfi_offset 26, -24
	.cfi_offset 25, -28
	.cfi_offset 24, -32
	.cfi_offset 65, 4
.LBE4351:
.LBE4350:
.LBB4353:
.LBB4346:
	.loc 5 425 0
	lwz 8,572(3)
	.loc 5 426 0
	lwz 10,576(3)
.LBE4346:
.LBE4353:
	.loc 10 45 0
	stw 5,68(3)
	stw 6,72(3)
.LVL285:
.LBB4354:
.LBB4347:
	.loc 5 424 0
	stw 7,76(3)
.LBE4347:
.LBE4354:
.LBB4355:
.LBB4352:
	.loc 6 146 0
	stw 11,88(3)
	.loc 6 147 0
	stw 9,92(3)
	.loc 6 148 0
	stw 0,96(3)
.LBE4352:
.LBE4355:
.LBB4356:
.LBB4348:
	.loc 5 425 0
	stw 8,80(3)
.LBE4348:
.LBE4356:
.LBB4357:
.LBB4342:
	.loc 11 333 0
	addi 8,3,592
.LBE4342:
.LBE4357:
.LBB4358:
.LBB4349:
	.loc 5 426 0
	stw 10,84(3)
.LVL286:
.LBE4349:
.LBE4358:
.LBB4359:
.LBB4343:
	.loc 11 333 0
	li 10,0
.L142:
.LBB4336:
.LBB4337:
	.loc 5 424 0
	mr 11,8
	mr 9,31
	lwzux 0,11,10
.LBE4337:
.LBE4336:
	.loc 11 333 0
	cmpwi 7,10,24
.LBB4340:
.LBB4338:
	.loc 5 424 0
	stwux 0,9,10
.LBE4338:
.LBE4340:
	.loc 11 333 0
	addi 10,10,12
.LBB4341:
.LBB4339:
	.loc 5 425 0
	lwz 0,4(11)
	stw 0,4(9)
	.loc 5 426 0
	lwz 0,8(11)
	stw 0,8(9)
.LBE4339:
.LBE4341:
	.loc 11 333 0
	bne+ 7,.L142
.LVL287:
.LBE4343:
.LBE4359:
.LBB4360:
.LBB4361:
	.loc 5 424 0
	lwz 12,628(30)
	.loc 5 425 0
	lwz 24,632(30)
	.loc 5 426 0
	lwz 25,636(30)
.LBE4361:
.LBE4360:
.LBB4363:
.LBB4364:
	.loc 6 146 0
	lwz 26,640(30)
	.loc 6 147 0
	lwz 27,644(30)
	.loc 6 148 0
	lwz 28,648(30)
.LBE4364:
.LBE4363:
.LBB4366:
.LBB4367:
	.loc 4 51 0
	lwz 29,652(30)
	lwz 3,656(30)
.LVL288:
	lwz 4,660(30)
.LBB4368:
.LBB4369:
	.loc 5 424 0
	lwz 5,664(30)
	.loc 5 425 0
	lwz 6,668(30)
	.loc 5 426 0
	lwz 7,672(30)
.LBE4369:
.LBE4368:
.LBB4371:
.LBB4372:
	.loc 5 424 0
	lwz 8,676(30)
	.loc 5 425 0
	lwz 10,680(30)
	.loc 5 426 0
	lwz 11,684(30)
.LBE4372:
.LBE4371:
.LBB4374:
.LBB4375:
	.loc 5 424 0
	lwz 9,688(30)
	.loc 5 425 0
	lwz 0,692(30)
.LBE4375:
.LBE4374:
.LBE4367:
.LBE4366:
.LBB4388:
.LBB4362:
	.loc 5 424 0
	stw 12,136(30)
	.loc 5 425 0
	stw 24,140(30)
	.loc 5 426 0
	stw 25,144(30)
.LVL289:
.LBE4362:
.LBE4388:
.LBB4389:
.LBB4365:
	.loc 6 146 0
	stw 26,148(30)
	.loc 6 147 0
	stw 27,152(30)
	.loc 6 148 0
	stw 28,156(30)
.LVL290:
.LBE4365:
.LBE4389:
.LBB4390:
.LBB4386:
	.loc 4 51 0
	stw 29,160(30)
	stw 3,164(30)
	stw 4,168(30)
.LVL291:
.LBB4378:
.LBB4370:
	.loc 5 424 0
	stw 5,172(30)
	.loc 5 425 0
	stw 6,176(30)
	.loc 5 426 0
	stw 7,180(30)
.LVL292:
.LBE4370:
.LBE4378:
.LBB4379:
.LBB4373:
	.loc 5 424 0
	stw 8,184(30)
	.loc 5 425 0
	stw 10,188(30)
	.loc 5 426 0
	stw 11,192(30)
.LVL293:
.LBE4373:
.LBE4379:
.LBB4380:
.LBB4376:
	.loc 5 424 0
	stw 9,196(30)
	.loc 5 425 0
	stw 0,200(30)
	.loc 5 426 0
	lwz 12,696(30)
.LBE4376:
.LBE4380:
	.loc 4 51 0
	lwz 24,700(30)
.LBB4381:
.LBB4382:
	.loc 5 424 0
	lwz 25,704(30)
	.loc 5 425 0
	lwz 26,708(30)
	.loc 5 426 0
	lwz 27,712(30)
.LBE4382:
.LBE4381:
.LBE4386:
.LBE4390:
.LBB4391:
.LBB4392:
	.loc 4 51 0
	lwz 28,716(30)
	lwz 29,720(30)
	lwz 3,724(30)
.LBB4393:
.LBB4394:
	.loc 6 146 0
	lwz 4,728(30)
	.loc 6 147 0
	lwz 5,732(30)
	.loc 6 148 0
	lwz 6,736(30)
.LBE4394:
.LBE4393:
.LBB4396:
.LBB4397:
	.loc 6 146 0
	lwz 7,740(30)
	.loc 6 147 0
	lwz 8,744(30)
	.loc 6 148 0
	lwz 10,748(30)
.LBE4397:
.LBE4396:
.LBB4399:
.LBB4400:
	.loc 6 146 0
	lwz 11,752(30)
	.loc 6 147 0
	lwz 9,756(30)
	.loc 6 148 0
	lwz 0,760(30)
.LBE4400:
.LBE4399:
.LBE4392:
.LBE4391:
.LBB4411:
.LBB4387:
.LBB4384:
.LBB4377:
	.loc 5 426 0
	stw 12,204(30)
.LBE4377:
.LBE4384:
	.loc 4 51 0
	stw 24,208(30)
.LVL294:
.LBB4385:
.LBB4383:
	.loc 5 424 0
	stw 25,212(30)
	.loc 5 425 0
	stw 26,216(30)
	.loc 5 426 0
	stw 27,220(30)
.LVL295:
.LBE4383:
.LBE4385:
.LBE4387:
.LBE4411:
.LBB4412:
.LBB4409:
	.loc 4 51 0
	stw 28,224(30)
	stw 29,228(30)
	stw 3,232(30)
.LVL296:
.LBB4402:
.LBB4395:
	.loc 6 146 0
	stw 4,236(30)
	.loc 6 147 0
	stw 5,240(30)
	.loc 6 148 0
	stw 6,244(30)
.LVL297:
.LBE4395:
.LBE4402:
.LBB4403:
.LBB4398:
	.loc 6 146 0
	stw 7,248(30)
	.loc 6 147 0
	stw 8,252(30)
	.loc 6 148 0
	stw 10,256(30)
.LVL298:
.LBE4398:
.LBE4403:
.LBB4404:
.LBB4401:
	.loc 6 146 0
	stw 11,260(30)
	.loc 6 147 0
	stw 9,264(30)
	.loc 6 148 0
	stw 0,268(30)
.LBE4401:
.LBE4404:
	.loc 4 51 0
	lwz 12,764(30)
.LBB4405:
.LBB4406:
	.loc 6 146 0
	lwz 24,768(30)
	.loc 6 147 0
	lwz 25,772(30)
	.loc 6 148 0
	lwz 26,776(30)
.LBE4406:
.LBE4405:
.LBE4409:
.LBE4412:
.LBB4413:
.LBB4414:
	.loc 7 130 0
	lwz 27,780(30)
	lwz 28,784(30)
	lwz 29,788(30)
	lwz 3,792(30)
.LBB4415:
.LBB4416:
	.loc 5 424 0
	lwz 4,796(30)
	.loc 5 425 0
	lwz 5,800(30)
	.loc 5 426 0
	lwz 6,804(30)
.LBE4416:
.LBE4415:
.LBB4418:
.LBB4419:
	.loc 5 424 0
	lwz 7,808(30)
	.loc 5 425 0
	lwz 8,812(30)
	.loc 5 426 0
	lwz 10,816(30)
.LBE4419:
.LBE4418:
.LBB4421:
.LBB4422:
	.loc 4 51 0
	lwz 11,820(30)
	lwz 9,824(30)
	lwz 0,828(30)
.LBE4422:
.LBE4421:
.LBE4414:
.LBE4413:
.LBB4447:
.LBB4410:
	stw 12,272(30)
.LVL299:
.LBB4408:
.LBB4407:
	.loc 6 146 0
	stw 24,276(30)
	.loc 6 147 0
	stw 25,280(30)
	.loc 6 148 0
	stw 26,284(30)
.LVL300:
.LBE4407:
.LBE4408:
.LBE4410:
.LBE4447:
.LBB4448:
.LBB4445:
	.loc 7 130 0
	stw 27,288(30)
	stw 28,292(30)
	stw 29,296(30)
	stw 3,300(30)
.LVL301:
.LBB4441:
.LBB4417:
	.loc 5 424 0
	stw 4,304(30)
	.loc 5 425 0
	stw 5,308(30)
	.loc 5 426 0
	stw 6,312(30)
.LVL302:
.LBE4417:
.LBE4441:
.LBB4442:
.LBB4420:
	.loc 5 424 0
	stw 7,316(30)
	.loc 5 425 0
	stw 8,320(30)
	.loc 5 426 0
	stw 10,324(30)
.LVL303:
.LBE4420:
.LBE4442:
.LBB4443:
.LBB4439:
	.loc 4 51 0
	stw 11,328(30)
	stw 9,332(30)
	stw 0,336(30)
.LVL304:
.LBB4423:
.LBB4424:
	.loc 5 424 0
	lwz 12,832(30)
	.loc 5 425 0
	lwz 24,836(30)
	.loc 5 426 0
	lwz 25,840(30)
.LBE4424:
.LBE4423:
.LBB4426:
.LBB4427:
	.loc 5 424 0
	lwz 26,844(30)
	.loc 5 425 0
	lwz 27,848(30)
	.loc 5 426 0
	lwz 28,852(30)
.LBE4427:
.LBE4426:
.LBB4429:
.LBB4430:
	.loc 5 424 0
	lwz 29,856(30)
	.loc 5 425 0
	lwz 3,860(30)
	.loc 5 426 0
	lwz 4,864(30)
.LBE4430:
.LBE4429:
	.loc 4 51 0
	lwz 5,868(30)
.LBB4432:
.LBB4433:
	.loc 5 424 0
	lwz 6,872(30)
	.loc 5 425 0
	lwz 7,876(30)
	.loc 5 426 0
	lwz 8,880(30)
.LBE4433:
.LBE4432:
.LBE4439:
.LBE4443:
.LBE4445:
.LBE4448:
.LBB4449:
.LBB4450:
	.loc 7 130 0
	lwz 10,884(30)
	lwz 11,888(30)
	lwz 9,892(30)
	lwz 0,896(30)
.LBE4450:
.LBE4449:
.LBB4507:
.LBB4446:
.LBB4444:
.LBB4440:
.LBB4435:
.LBB4425:
	.loc 5 424 0
	stw 12,340(30)
	.loc 5 425 0
	stw 24,344(30)
	.loc 5 426 0
	stw 25,348(30)
.LVL305:
.LBE4425:
.LBE4435:
.LBB4436:
.LBB4428:
	.loc 5 424 0
	stw 26,352(30)
	.loc 5 425 0
	stw 27,356(30)
	.loc 5 426 0
	stw 28,360(30)
.LVL306:
.LBE4428:
.LBE4436:
.LBB4437:
.LBB4431:
	.loc 5 424 0
	stw 29,364(30)
	.loc 5 425 0
	stw 3,368(30)
	.loc 5 426 0
	stw 4,372(30)
.LBE4431:
.LBE4437:
	.loc 4 51 0
	stw 5,376(30)
.LVL307:
.LBB4438:
.LBB4434:
	.loc 5 424 0
	stw 6,380(30)
	.loc 5 425 0
	stw 7,384(30)
	.loc 5 426 0
	stw 8,388(30)
.LVL308:
.LBE4434:
.LBE4438:
.LBE4440:
.LBE4444:
.LBE4446:
.LBE4507:
.LBB4508:
.LBB4501:
	.loc 7 130 0
	stw 10,392(30)
	stw 11,396(30)
	stw 9,400(30)
	stw 0,404(30)
.LVL309:
.LBB4451:
.LBB4452:
	.loc 4 51 0
	lwz 12,924(30)
	lwz 3,928(30)
	lwz 4,932(30)
.LBB4453:
.LBB4454:
	.loc 6 146 0
	lwz 5,936(30)
	.loc 6 147 0
	lwz 6,940(30)
	.loc 6 148 0
	lwz 7,944(30)
.LBE4454:
.LBE4453:
.LBB4457:
.LBB4458:
	.loc 6 146 0
	lwz 8,948(30)
	.loc 6 147 0
	lwz 10,952(30)
	.loc 6 148 0
	lwz 11,956(30)
.LBE4458:
.LBE4457:
.LBB4460:
.LBB4461:
	.loc 6 146 0
	lwz 9,960(30)
.LBE4461:
.LBE4460:
.LBE4452:
.LBE4451:
.LBB4486:
.LBB4487:
	lwz 24,900(30)
	.loc 6 147 0
	lwz 25,904(30)
	.loc 6 148 0
	lwz 26,908(30)
.LBE4487:
.LBE4486:
.LBB4489:
.LBB4490:
	.loc 6 146 0
	lwz 27,912(30)
	.loc 6 147 0
	lwz 28,916(30)
	.loc 6 148 0
	lwz 29,920(30)
.LBE4490:
.LBE4489:
.LBB4492:
.LBB4479:
.LBB4467:
.LBB4462:
	.loc 6 147 0
	lwz 0,964(30)
.LBE4462:
.LBE4467:
	.loc 4 51 0
	stw 12,432(30)
	stw 3,436(30)
.LBE4479:
.LBE4492:
.LBE4501:
.LBE4508:
	.loc 10 45 0
	addi 3,30,500
.LBB4509:
.LBB4502:
.LBB4493:
.LBB4480:
	.loc 4 51 0
	stw 4,440(30)
.LBE4480:
.LBE4493:
.LBE4502:
.LBE4509:
	.loc 10 45 0
	addi 4,30,992
.LBB4510:
.LBB4503:
.LBB4494:
.LBB4481:
.LBB4468:
.LBB4455:
	.loc 6 146 0
	stw 5,444(30)
.LBE4455:
.LBE4468:
.LBE4481:
.LBE4494:
.LBE4503:
.LBE4510:
	.loc 10 45 0
	li 5,56
.LBB4511:
.LBB4504:
.LBB4495:
.LBB4482:
.LBB4469:
.LBB4456:
	.loc 6 147 0
	stw 6,448(30)
	.loc 6 148 0
	stw 7,452(30)
.LBE4456:
.LBE4469:
.LBB4470:
.LBB4459:
	.loc 6 146 0
	stw 8,456(30)
	.loc 6 147 0
	stw 10,460(30)
	.loc 6 148 0
	stw 11,464(30)
.LBE4459:
.LBE4470:
.LBB4471:
.LBB4463:
	.loc 6 146 0
	stw 9,468(30)
.LBE4463:
.LBE4471:
.LBE4482:
.LBE4495:
.LBB4496:
.LBB4488:
	stw 24,408(30)
	.loc 6 147 0
	stw 25,412(30)
	.loc 6 148 0
	stw 26,416(30)
.LVL310:
.LBE4488:
.LBE4496:
.LBB4497:
.LBB4491:
	.loc 6 146 0
	stw 27,420(30)
	.loc 6 147 0
	stw 28,424(30)
	.loc 6 148 0
	stw 29,428(30)
.LVL311:
.LBE4491:
.LBE4497:
.LBB4498:
.LBB4483:
.LBB4472:
.LBB4464:
	.loc 6 147 0
	stw 0,472(30)
.LBE4464:
.LBE4472:
.LBE4483:
.LBE4498:
.LBE4504:
.LBE4511:
	.loc 10 45 0
	lwz 0,988(30)
.LBB4512:
.LBB4505:
.LBB4499:
.LBB4484:
.LBB4473:
.LBB4465:
	.loc 6 148 0
	lwz 7,968(30)
.LBE4465:
.LBE4473:
	.loc 4 51 0
	lwz 8,972(30)
.LBB4474:
.LBB4475:
	.loc 6 146 0
	lwz 10,976(30)
	.loc 6 147 0
	lwz 11,980(30)
	.loc 6 148 0
	lwz 9,984(30)
.LBE4475:
.LBE4474:
.LBE4484:
.LBE4499:
.LBE4505:
.LBE4512:
	.loc 10 45 0
	stw 0,496(30)
.LBB4513:
.LBB4506:
.LBB4500:
.LBB4485:
.LBB4477:
.LBB4466:
	.loc 6 148 0
	stw 7,476(30)
.LBE4466:
.LBE4477:
	.loc 4 51 0
	stw 8,480(30)
.LVL312:
.LBB4478:
.LBB4476:
	.loc 6 146 0
	stw 10,484(30)
	.loc 6 147 0
	stw 11,488(30)
	.loc 6 148 0
	stw 9,492(30)
.LBE4476:
.LBE4478:
.LBE4485:
.LBE4500:
.LBE4506:
.LBE4513:
	.loc 10 45 0
	bl memcpy
.LBE4514:
.LBE4517:
	.loc 2 735 0
	lwz 3,1056(30)
.LBB4518:
.LBB4515:
	.loc 10 45 0
	lbz 0,1048(30)
.LBE4515:
.LBE4518:
	.loc 2 735 0
	cmpwi 7,3,0
.LBB4519:
.LBB4516:
	.loc 10 45 0
	stb 0,556(30)
.LBE4516:
.LBE4519:
	.loc 2 735 0
	beq- 7,.L141
	.loc 2 736 0
	lis 4,gameLocal+2311032@ha
	lwz 5,4(30)
	la 4,gameLocal+2311032@l(4)
	li 6,0
	addi 7,30,76
	mr 8,31
	li 9,-1
	bl _ZN11idClipModel4LinkER6idClipP8idEntityiRK6idVec3RK6idMat3i
.L141:
	.loc 2 738 0
	lwz 0,44(1)
	lwz 24,8(1)
	mtlr 0
	lwz 25,12(1)
	lwz 26,16(1)
	lwz 27,20(1)
	lwz 28,24(1)
	lwz 29,28(1)
	lwz 30,32(1)
.LVL313:
	lwz 31,36(1)
.LVL314:
	addi 1,1,40
.LCFI53:
	.cfi_def_cfa_offset 0
	.cfi_restore 31
	.cfi_restore 30
	.cfi_restore 29
	.cfi_restore 28
	.cfi_restore 27
	.cfi_restore 26
	.cfi_restore 25
	.cfi_restore 24
	blr
	.cfi_endproc
.LFE2875:
	.size	_ZN20idPhysics_Parametric12RestoreStateEv, .-_ZN20idPhysics_Parametric12RestoreStateEv
	.align 2
	.globl _ZN20idPhysics_Parametric16ReadFromSnapshotERK13idBitMsgDelta
	.type	_ZN20idPhysics_Parametric16ReadFromSnapshotERK13idBitMsgDelta, @function
_ZN20idPhysics_Parametric16ReadFromSnapshotERK13idBitMsgDelta:
.LFB2897:
	.loc 2 1107 0
	.cfi_startproc
.LVL315:
	stwu 1,-176(1)
.LCFI54:
	.cfi_def_cfa_offset 176
	mflr 0
	stw 30,120(1)
	mr 30,4
	.cfi_offset 30, -56
	.cfi_register 65, 0
.LVL316:
	stw 31,124(1)
.LBB4843:
.LBB4844:
.LBB4845:
	.loc 15 622 0
	li 4,32
.LVL317:
.LBE4845:
.LBE4844:
.LBE4843:
	.loc 2 1107 0
	mr 31,3
	.cfi_offset 31, -52
.LBB5302:
.LBB4848:
.LBB4846:
	.loc 15 622 0
	mr 3,30
.LVL318:
.LBE4846:
.LBE4848:
.LBE5302:
	.loc 2 1107 0
	stw 0,180(1)
	stfd 26,128(1)
	stfd 27,136(1)
	stfd 28,144(1)
	stfd 29,152(1)
	stfd 30,160(1)
	stfd 31,168(1)
	stw 17,68(1)
	stw 18,72(1)
	stw 19,76(1)
	stw 20,80(1)
	stw 21,84(1)
	stw 22,88(1)
	stw 23,92(1)
	stw 24,96(1)
	stw 25,100(1)
	stw 26,104(1)
	stw 27,108(1)
	stw 28,112(1)
	stw 29,116(1)
.LBB5303:
.LBB4849:
.LBB4847:
	.loc 15 622 0
	.cfi_offset 29, -60
	.cfi_offset 28, -64
	.cfi_offset 27, -68
	.cfi_offset 26, -72
	.cfi_offset 25, -76
	.cfi_offset 24, -80
	.cfi_offset 23, -84
	.cfi_offset 22, -88
	.cfi_offset 21, -92
	.cfi_offset 20, -96
	.cfi_offset 19, -100
	.cfi_offset 18, -104
	.cfi_offset 17, -108
	.cfi_offset 63, -8
	.cfi_offset 62, -16
	.cfi_offset 61, -24
	.cfi_offset 60, -32
	.cfi_offset 59, -40
	.cfi_offset 58, -48
	.cfi_offset 65, 4
	bl _ZNK13idBitMsgDelta8ReadBitsEi
.LBE4847:
.LBE4849:
	.loc 2 1113 0
	stw 3,68(31)
.LVL319:
.LBB4850:
.LBB4851:
	.loc 15 622 0
	li 4,32
	mr 3,30
.LBE4851:
.LBE4850:
.LBB4853:
.LBB4854:
	.loc 4 109 0
	lis 29,.LC3@ha
.LBE4854:
.LBE4853:
.LBB4868:
.LBB4852:
	.loc 15 622 0
	bl _ZNK13idBitMsgDelta8ReadBitsEi
.LBE4852:
.LBE4868:
.LBB4869:
.LBB4870:
	.loc 15 627 0
	li 4,32
.LBE4870:
.LBE4869:
	.loc 2 1114 0
	stw 3,72(31)
.LVL320:
.LBB4872:
.LBB4871:
	.loc 15 627 0
	mr 3,30
	bl _ZNK13idBitMsgDelta8ReadBitsEi
.LVL321:
.LBE4871:
.LBE4872:
.LBB4873:
.LBB4874:
	li 4,32
.LBE4874:
.LBE4873:
	.loc 2 1115 0
	stw 3,76(31)
.LVL322:
.LBB4876:
.LBB4875:
	.loc 15 627 0
	mr 3,30
.LVL323:
	bl _ZNK13idBitMsgDelta8ReadBitsEi
.LVL324:
.LBE4875:
.LBE4876:
.LBB4877:
.LBB4878:
	li 4,32
.LBE4878:
.LBE4877:
	.loc 2 1116 0
	stw 3,80(31)
.LVL325:
.LBB4880:
.LBB4879:
	.loc 15 627 0
	mr 3,30
.LVL326:
	bl _ZNK13idBitMsgDelta8ReadBitsEi
.LVL327:
.LBE4879:
.LBE4880:
.LBB4881:
.LBB4882:
	li 4,32
.LBE4882:
.LBE4881:
	.loc 2 1117 0
	stw 3,84(31)
.LVL328:
.LBB4884:
.LBB4883:
	.loc 15 627 0
	mr 3,30
.LVL329:
	bl _ZNK13idBitMsgDelta8ReadBitsEi
.LVL330:
.LBE4883:
.LBE4884:
.LBB4885:
.LBB4886:
	li 4,32
.LBE4886:
.LBE4885:
	.loc 2 1118 0
	stw 3,88(31)
.LVL331:
.LBB4888:
.LBB4887:
	.loc 15 627 0
	mr 3,30
.LVL332:
	bl _ZNK13idBitMsgDelta8ReadBitsEi
.LVL333:
.LBE4887:
.LBE4888:
.LBB4889:
.LBB4890:
	li 4,32
.LBE4890:
.LBE4889:
	.loc 2 1119 0
	stw 3,92(31)
.LVL334:
.LBB4892:
.LBB4891:
	.loc 15 627 0
	mr 3,30
.LVL335:
	bl _ZNK13idBitMsgDelta8ReadBitsEi
.LVL336:
.LBE4891:
.LBE4892:
.LBB4893:
.LBB4894:
	.loc 15 666 0
	lwz 4,76(31)
.LBE4894:
.LBE4893:
	.loc 2 1120 0
	stw 3,96(31)
.LVL337:
.LBB4896:
.LBB4895:
	.loc 15 666 0
	li 5,32
	mr 3,30
.LVL338:
	bl _ZNK13idBitMsgDelta9ReadDeltaEii
.LVL339:
.LBE4895:
.LBE4896:
.LBB4897:
.LBB4898:
	lwz 4,80(31)
.LBE4898:
.LBE4897:
	.loc 2 1121 0
	stw 3,136(31)
.LVL340:
.LBB4900:
.LBB4899:
	.loc 15 666 0
	li 5,32
	mr 3,30
.LVL341:
	bl _ZNK13idBitMsgDelta9ReadDeltaEii
.LVL342:
.LBE4899:
.LBE4900:
.LBB4901:
.LBB4902:
	lwz 4,84(31)
.LBE4902:
.LBE4901:
	.loc 2 1122 0
	stw 3,140(31)
.LVL343:
.LBB4904:
.LBB4903:
	.loc 15 666 0
	li 5,32
	mr 3,30
.LVL344:
	bl _ZNK13idBitMsgDelta9ReadDeltaEii
.LVL345:
.LBE4903:
.LBE4904:
.LBB4905:
.LBB4906:
	lwz 4,88(31)
.LBE4906:
.LBE4905:
	.loc 2 1123 0
	stw 3,144(31)
.LVL346:
.LBB4908:
.LBB4907:
	.loc 15 666 0
	li 5,32
	mr 3,30
.LVL347:
	bl _ZNK13idBitMsgDelta9ReadDeltaEii
.LVL348:
.LBE4907:
.LBE4908:
.LBB4909:
.LBB4910:
	lwz 4,92(31)
.LBE4910:
.LBE4909:
	.loc 2 1124 0
	stw 3,148(31)
.LVL349:
.LBB4912:
.LBB4911:
	.loc 15 666 0
	li 5,32
	mr 3,30
.LVL350:
	bl _ZNK13idBitMsgDelta9ReadDeltaEii
.LVL351:
.LBE4911:
.LBE4912:
.LBB4913:
.LBB4914:
	lwz 4,96(31)
.LBE4914:
.LBE4913:
	.loc 2 1125 0
	stw 3,152(31)
.LVL352:
.LBB4916:
.LBB4915:
	.loc 15 666 0
	li 5,32
	mr 3,30
.LVL353:
	bl _ZNK13idBitMsgDelta9ReadDeltaEii
.LVL354:
.LBE4915:
.LBE4916:
	.loc 2 1128 0
	li 4,8
	.loc 2 1126 0
	stw 3,156(31)
	.loc 2 1128 0
	mr 3,30
.LVL355:
	bl _ZNK13idBitMsgDelta8ReadBitsEi
.LVL356:
.LBB4917:
.LBB4918:
	.loc 15 666 0
	li 4,0
.LBE4918:
.LBE4917:
	.loc 2 1128 0
	mr 17,3
.LVL357:
.LBB4921:
.LBB4919:
	.loc 15 666 0
	li 5,32
	mr 3,30
.LVL358:
	bl _ZNK13idBitMsgDelta9ReadDeltaEii
.LBE4919:
.LBE4921:
.LBB4922:
.LBB4923:
	li 4,0
.LBE4923:
.LBE4922:
.LBB4926:
.LBB4920:
	mr 18,3
.LVL359:
.LBE4920:
.LBE4926:
.LBB4927:
.LBB4924:
	li 5,32
	mr 3,30
.LVL360:
	bl _ZNK13idBitMsgDelta9ReadDeltaEii
.LBE4924:
.LBE4927:
.LBB4928:
.LBB4929:
	li 4,0
.LBE4929:
.LBE4928:
.LBB4932:
.LBB4925:
	mr 19,3
.LVL361:
.LBE4925:
.LBE4932:
.LBB4933:
.LBB4930:
	li 5,32
	mr 3,30
.LVL362:
	bl _ZNK13idBitMsgDelta9ReadDeltaEii
.LBE4930:
.LBE4933:
.LBB4934:
.LBB4935:
	li 4,0
.LBE4935:
.LBE4934:
.LBB4938:
.LBB4931:
	mr 26,3
.LVL363:
.LBE4931:
.LBE4938:
.LBB4939:
.LBB4936:
	li 5,32
	mr 3,30
.LVL364:
	bl _ZNK13idBitMsgDelta9ReadDeltaEii
.LBE4936:
.LBE4939:
.LBB4940:
.LBB4941:
	li 4,0
.LBE4941:
.LBE4940:
.LBB4944:
.LBB4937:
	mr 27,3
.LVL365:
.LBE4937:
.LBE4944:
.LBB4945:
.LBB4942:
	li 5,32
	mr 3,30
.LVL366:
	bl _ZNK13idBitMsgDelta9ReadDeltaEii
.LBE4942:
.LBE4945:
.LBB4946:
.LBB4947:
	li 4,0
.LBE4947:
.LBE4946:
.LBB4950:
.LBB4943:
	mr 28,3
.LVL367:
.LBE4943:
.LBE4950:
.LBB4951:
.LBB4948:
	li 5,32
	mr 3,30
.LVL368:
	bl _ZNK13idBitMsgDelta9ReadDeltaEii
.LBE4948:
.LBE4951:
.LBB4952:
.LBB4953:
	li 4,0
.LBE4953:
.LBE4952:
.LBB4956:
.LBB4949:
	mr 22,3
.LVL369:
.LBE4949:
.LBE4956:
.LBB4957:
.LBB4954:
	li 5,32
	mr 3,30
.LVL370:
	bl _ZNK13idBitMsgDelta9ReadDeltaEii
.LBE4954:
.LBE4957:
.LBB4958:
.LBB4959:
	li 4,0
.LBE4959:
.LBE4958:
.LBB4962:
.LBB4955:
	mr 23,3
.LVL371:
.LBE4955:
.LBE4962:
.LBB4963:
.LBB4960:
	li 5,32
	mr 3,30
.LVL372:
	bl _ZNK13idBitMsgDelta9ReadDeltaEii
.LBE4960:
.LBE4963:
.LBB4964:
.LBB4965:
	li 4,0
.LBE4965:
.LBE4964:
.LBB4968:
.LBB4961:
	mr 24,3
.LVL373:
.LBE4961:
.LBE4968:
.LBB4969:
.LBB4966:
	li 5,32
	mr 3,30
.LVL374:
	bl _ZNK13idBitMsgDelta9ReadDeltaEii
.LBE4966:
.LBE4969:
.LBB4970:
.LBB4971:
	li 4,0
.LBE4971:
.LBE4970:
.LBB4974:
.LBB4967:
	mr 20,3
.LVL375:
.LBE4967:
.LBE4974:
.LBB4975:
.LBB4972:
	li 5,32
	mr 3,30
.LVL376:
	bl _ZNK13idBitMsgDelta9ReadDeltaEii
.LBE4972:
.LBE4975:
.LBB4976:
.LBB4977:
	li 5,32
.LBE4977:
.LBE4976:
.LBB4979:
.LBB4973:
	mr 21,3
.LVL377:
.LBE4973:
.LBE4979:
.LBB4980:
.LBB4978:
	li 4,0
	mr 3,30
.LVL378:
	bl _ZNK13idBitMsgDelta9ReadDeltaEii
.LVL379:
.LBE4978:
.LBE4980:
.LBB4981:
.LBB4865:
	.loc 4 109 0
	lwz 25,.LC3@l(29)
.LBB4855:
.LBB4856:
	.loc 5 426 0
	stw 3,192(31)
.LBE4856:
.LBE4855:
.LBE4865:
.LBE4981:
	.loc 2 1142 0
	li 4,8
.LBB4982:
.LBB4866:
	.loc 4 103 0
	stw 17,160(31)
.LBE4866:
.LBE4982:
	.loc 2 1142 0
	mr 3,30
.LVL380:
.LBB4983:
.LBB4867:
	.loc 4 104 0
	stw 18,164(31)
	.loc 4 105 0
	stw 19,168(31)
.LVL381:
.LBB4858:
.LBB4859:
	.loc 5 424 0
	stw 26,172(31)
	.loc 5 425 0
	stw 27,176(31)
	.loc 5 426 0
	stw 28,180(31)
.LVL382:
.LBE4859:
.LBE4858:
.LBB4860:
.LBB4857:
	.loc 5 424 0
	stw 20,184(31)
	.loc 5 425 0
	stw 21,188(31)
.LBE4857:
.LBE4860:
.LBB4861:
.LBB4862:
	.loc 5 424 0
	stw 22,196(31)
	.loc 5 425 0
	stw 23,200(31)
	.loc 5 426 0
	stw 24,204(31)
.LBE4862:
.LBE4861:
.LBB4863:
.LBB4864:
	.loc 5 424 0
	stw 26,212(31)
	.loc 5 425 0
	stw 27,216(31)
	.loc 5 426 0
	stw 28,220(31)
.LBE4864:
.LBE4863:
	.loc 4 109 0
	stw 25,208(31)
.LVL383:
.LBE4867:
.LBE4983:
	.loc 2 1142 0
	bl _ZNK13idBitMsgDelta8ReadBitsEi
.LVL384:
.LBB4984:
.LBB4985:
	.loc 15 666 0
	li 4,0
.LBE4985:
.LBE4984:
	.loc 2 1142 0
	mr 17,3
.LVL385:
.LBB4988:
.LBB4986:
	.loc 15 666 0
	li 5,32
	mr 3,30
.LVL386:
	bl _ZNK13idBitMsgDelta9ReadDeltaEii
.LBE4986:
.LBE4988:
.LBB4989:
.LBB4990:
	li 4,0
.LBE4990:
.LBE4989:
.LBB4993:
.LBB4987:
	mr 18,3
.LVL387:
.LBE4987:
.LBE4993:
.LBB4994:
.LBB4991:
	li 5,32
	mr 3,30
.LVL388:
	bl _ZNK13idBitMsgDelta9ReadDeltaEii
.LBE4991:
.LBE4994:
.LBB4995:
.LBB4996:
	li 4,0
.LBE4996:
.LBE4995:
.LBB4999:
.LBB4992:
	mr 19,3
.LVL389:
.LBE4992:
.LBE4999:
.LBB5000:
.LBB4997:
	li 5,32
	mr 3,30
.LVL390:
	bl _ZNK13idBitMsgDelta9ReadDeltaEii
.LBE4997:
.LBE5000:
.LBB5001:
.LBB5002:
	li 4,0
.LBE5002:
.LBE5001:
.LBB5005:
.LBB4998:
	mr 26,3
.LVL391:
.LBE4998:
.LBE5005:
.LBB5006:
.LBB5003:
	li 5,32
	mr 3,30
.LVL392:
	bl _ZNK13idBitMsgDelta9ReadDeltaEii
.LBE5003:
.LBE5006:
.LBB5007:
.LBB5008:
	li 4,0
.LBE5008:
.LBE5007:
.LBB5011:
.LBB5004:
	mr 27,3
.LVL393:
.LBE5004:
.LBE5011:
.LBB5012:
.LBB5009:
	li 5,32
	mr 3,30
.LVL394:
	bl _ZNK13idBitMsgDelta9ReadDeltaEii
.LBE5009:
.LBE5012:
.LBB5013:
.LBB5014:
	li 4,0
.LBE5014:
.LBE5013:
.LBB5017:
.LBB5010:
	mr 28,3
.LVL395:
.LBE5010:
.LBE5017:
.LBB5018:
.LBB5015:
	li 5,32
	mr 3,30
.LVL396:
	bl _ZNK13idBitMsgDelta9ReadDeltaEii
.LBE5015:
.LBE5018:
.LBB5019:
.LBB5020:
	li 4,0
.LBE5020:
.LBE5019:
.LBB5023:
.LBB5016:
	mr 22,3
.LVL397:
.LBE5016:
.LBE5023:
.LBB5024:
.LBB5021:
	li 5,32
	mr 3,30
.LVL398:
	bl _ZNK13idBitMsgDelta9ReadDeltaEii
.LBE5021:
.LBE5024:
.LBB5025:
.LBB5026:
	li 4,0
.LBE5026:
.LBE5025:
.LBB5029:
.LBB5022:
	mr 23,3
.LVL399:
.LBE5022:
.LBE5029:
.LBB5030:
.LBB5027:
	li 5,32
	mr 3,30
.LVL400:
	bl _ZNK13idBitMsgDelta9ReadDeltaEii
.LBE5027:
.LBE5030:
.LBB5031:
.LBB5032:
	li 4,0
.LBE5032:
.LBE5031:
.LBB5035:
.LBB5028:
	mr 24,3
.LVL401:
.LBE5028:
.LBE5035:
.LBB5036:
.LBB5033:
	li 5,32
	mr 3,30
.LVL402:
	bl _ZNK13idBitMsgDelta9ReadDeltaEii
.LBE5033:
.LBE5036:
.LBB5037:
.LBB5038:
	li 4,0
.LBE5038:
.LBE5037:
.LBB5041:
.LBB5034:
	mr 20,3
.LVL403:
.LBE5034:
.LBE5041:
.LBB5042:
.LBB5039:
	li 5,32
	mr 3,30
.LVL404:
	bl _ZNK13idBitMsgDelta9ReadDeltaEii
.LBE5039:
.LBE5042:
.LBB5043:
.LBB5044:
	li 4,0
.LBE5044:
.LBE5043:
.LBB5046:
.LBB5040:
	mr 21,3
.LVL405:
.LBE5040:
.LBE5046:
.LBB5047:
.LBB5045:
	li 5,32
	mr 3,30
.LVL406:
	bl _ZNK13idBitMsgDelta9ReadDeltaEii
.LVL407:
.LBE5045:
.LBE5047:
.LBB5048:
.LBB5049:
.LBB5050:
.LBB5051:
	.loc 6 146 0
	stw 26,236(31)
.LBE5051:
.LBE5050:
.LBB5054:
.LBB5055:
	.loc 6 148 0
	stw 3,256(31)
.LBE5055:
.LBE5054:
.LBE5049:
.LBE5048:
.LBB5067:
.LBB5068:
	.loc 15 666 0
	li 4,0
.LBE5068:
.LBE5067:
.LBB5073:
.LBB5064:
.LBB5057:
.LBB5052:
	.loc 6 147 0
	stw 27,240(31)
.LBE5052:
.LBE5057:
.LBE5064:
.LBE5073:
.LBB5074:
.LBB5069:
	.loc 15 666 0
	li 5,32
.LBE5069:
.LBE5074:
.LBB5075:
.LBB5065:
.LBB5058:
.LBB5053:
	.loc 6 148 0
	stw 28,244(31)
.LBE5053:
.LBE5058:
.LBE5065:
.LBE5075:
.LBB5076:
.LBB5070:
	.loc 15 666 0
	mr 3,30
.LVL408:
.LBE5070:
.LBE5076:
.LBB5077:
.LBB5066:
.LBB5059:
.LBB5060:
	.loc 6 146 0
	stw 26,276(31)
	.loc 6 147 0
	stw 27,280(31)
	.loc 6 148 0
	stw 28,284(31)
.LBE5060:
.LBE5059:
	.loc 4 103 0
	stw 17,224(31)
	.loc 4 104 0
	stw 18,228(31)
	.loc 4 105 0
	stw 19,232(31)
.LVL409:
.LBB5061:
.LBB5056:
	.loc 6 146 0
	stw 20,248(31)
	.loc 6 147 0
	stw 21,252(31)
.LBE5056:
.LBE5061:
.LBB5062:
.LBB5063:
	.loc 6 146 0
	stw 22,260(31)
	.loc 6 147 0
	stw 23,264(31)
	.loc 6 148 0
	stw 24,268(31)
.LBE5063:
.LBE5062:
	.loc 4 109 0
	stw 25,272(31)
.LVL410:
.LBE5066:
.LBE5077:
.LBB5078:
.LBB5071:
	.loc 15 666 0
	bl _ZNK13idBitMsgDelta9ReadDeltaEii
.LVL411:
.LBE5071:
.LBE5078:
.LBB5079:
.LBB5080:
	li 4,0
.LBE5080:
.LBE5079:
.LBB5084:
.LBB5072:
	mr 26,3
.LVL412:
.LBE5072:
.LBE5084:
.LBB5085:
.LBB5081:
	li 5,32
	mr 3,30
.LVL413:
	bl _ZNK13idBitMsgDelta9ReadDeltaEii
.LBE5081:
.LBE5085:
.LBB5086:
.LBB5087:
	li 4,0
.LBE5087:
.LBE5086:
.LBB5091:
.LBB5082:
	stw 3,56(1)
.LBE5082:
.LBE5091:
.LBB5092:
.LBB5088:
	li 5,32
	mr 3,30
.LBE5088:
.LBE5092:
.LBB5093:
.LBB5083:
	lfs 31,56(1)
.LVL414:
.LBE5083:
.LBE5093:
.LBB5094:
.LBB5089:
	bl _ZNK13idBitMsgDelta9ReadDeltaEii
.LVL415:
	stw 3,56(1)
.LBE5089:
.LBE5094:
.LBB5095:
.LBB5096:
	li 4,0
	li 5,32
	mr 3,30
.LBE5096:
.LBE5095:
.LBB5099:
.LBB5090:
	lfs 27,56(1)
.LVL416:
.LBE5090:
.LBE5099:
.LBB5100:
.LBB5097:
	bl _ZNK13idBitMsgDelta9ReadDeltaEii
.LVL417:
	stw 3,56(1)
.LBE5097:
.LBE5100:
.LBB5101:
.LBB5102:
	li 4,0
	li 5,32
	mr 3,30
.LBE5102:
.LBE5101:
.LBB5105:
.LBB5098:
	lfs 26,56(1)
.LVL418:
.LBE5098:
.LBE5105:
.LBB5106:
.LBB5103:
	bl _ZNK13idBitMsgDelta9ReadDeltaEii
.LVL419:
	stw 3,56(1)
.LBE5103:
.LBE5106:
.LBB5107:
.LBB5108:
	li 4,0
	li 5,32
	mr 3,30
.LBE5108:
.LBE5107:
.LBB5111:
.LBB5104:
	lfs 28,56(1)
.LVL420:
.LBE5104:
.LBE5111:
.LBB5112:
.LBB5109:
	bl _ZNK13idBitMsgDelta9ReadDeltaEii
.LVL421:
	stw 3,56(1)
.LBE5109:
.LBE5112:
.LBB5113:
.LBB5114:
	li 4,0
	li 5,32
	mr 3,30
.LBE5114:
.LBE5113:
.LBB5117:
.LBB5110:
	lfs 29,56(1)
.LVL422:
.LBE5110:
.LBE5117:
.LBB5118:
.LBB5115:
	bl _ZNK13idBitMsgDelta9ReadDeltaEii
.LVL423:
	stw 3,56(1)
.LBE5115:
.LBE5118:
.LBB5119:
.LBB5120:
	li 4,0
	li 5,32
	mr 3,30
.LBE5120:
.LBE5119:
.LBB5122:
.LBB5116:
	lfs 30,56(1)
.LVL424:
.LBE5116:
.LBE5122:
.LBB5123:
.LBB5121:
	bl _ZNK13idBitMsgDelta9ReadDeltaEii
.LVL425:
	mr 27,3
.LVL426:
.LBE5121:
.LBE5123:
.LBB5124:
.LBB5125:
	li 4,0
	li 5,32
	mr 3,30
.LVL427:
	bl _ZNK13idBitMsgDelta9ReadDeltaEii
.LBE5125:
.LBE5124:
.LBB5127:
.LBB5128:
	li 4,0
.LBE5128:
.LBE5127:
.LBB5130:
.LBB5126:
	mr 28,3
.LVL428:
.LBE5126:
.LBE5130:
.LBB5131:
.LBB5129:
	li 5,32
	mr 3,30
.LVL429:
	bl _ZNK13idBitMsgDelta9ReadDeltaEii
.LVL430:
.LBE5129:
.LBE5131:
.LBB5132:
.LBB5133:
	.loc 7 191 0
	lis 9,.LC0@ha
	lfs 0,.LC0@l(9)
	.loc 7 185 0
	stw 26,288(31)
	.loc 7 191 0
	fcmpu 7,26,0
	.loc 7 186 0
	stfs 31,292(31)
	.loc 7 187 0
	stfs 27,300(31)
.LVL431:
	.loc 7 191 0
	cror 30,28,30
.LBB5134:
.LBB5135:
	.loc 5 424 0
	stfs 28,304(31)
	.loc 5 425 0
	stfs 29,308(31)
	.loc 5 426 0
	stfs 30,312(31)
.LVL432:
.LBE5135:
.LBE5134:
.LBB5136:
.LBB5137:
	.loc 5 424 0
	stw 27,316(31)
	.loc 5 425 0
	stw 28,320(31)
	.loc 5 426 0
	stw 3,324(31)
.LBE5137:
.LBE5136:
	.loc 7 191 0
	beq- 7,.L146
.LVL433:
.LBE5133:
.LBB5138:
.LBB5139:
.LBB5140:
	.loc 7 195 0
	fadds 0,31,27
	fcmpu 7,26,0
	blt- 7,.L147
	fsubs 26,26,31
.LVL434:
.L148:
	.loc 7 199 0
	fsubs 26,26,27
	.loc 7 200 0
	lis 9,.LC8@ha
	lfs 13,.LC8@l(9)
	.loc 7 202 0
	lis 9,.LC0@ha
	.loc 7 200 0
	fmadds 0,0,13,26
	.loc 7 202 0
	lfs 13,.LC0@l(9)
	.loc 7 200 0
	lis 9,.LC9@ha
	.loc 7 199 0
	stfs 26,296(31)
.LVL435:
	.loc 7 200 0
	lfs 12,.LC9@l(9)
	.loc 7 202 0
	fcmpu 7,31,13
.LBB5141:
.LBB5142:
	.loc 5 431 0
	stw 27,56(1)
.LBE5142:
.LBE5141:
	.loc 7 200 0
	fdivs 0,12,0
.LVL436:
.LBB5144:
.LBB5143:
	.loc 5 431 0
	lfs 9,56(1)
	stw 28,56(1)
	lfs 12,56(1)
	stw 3,56(1)
	fsubs 10,9,28
	lfs 9,56(1)
	fsubs 11,12,29
	fsubs 12,9,30
.LBE5143:
.LBE5144:
.LBB5145:
.LBB5146:
	.loc 5 439 0
	fmuls 10,10,0
	fmuls 11,11,0
	fmuls 0,12,0
.LVL437:
.LBE5146:
.LBE5145:
	.loc 7 202 0
	bne- 7,.L161
	.loc 7 204 0
	fcmpu 7,26,13
.LBB5147:
.LBB5148:
	.loc 4 109 0
	lwz 0,.LC3@l(29)
.LBE5148:
.LBE5147:
.LBB5150:
.LBB5151:
	.loc 5 431 0
	fsubs 9,28,28
	fsubs 12,29,29
	fsubs 13,30,30
.LBE5151:
.LBE5150:
	.loc 7 204 0
	bne- 7,.L162
.LVL438:
.LBB5152:
.LBB5153:
	.loc 4 103 0
	li 9,8
	.loc 4 104 0
	stw 26,332(31)
	.loc 4 103 0
	stw 9,328(31)
	.loc 4 105 0
	stfs 27,336(31)
.LVL439:
.L159:
.LBB5154:
.LBB5155:
	.loc 5 424 0
	stfs 28,340(31)
	.loc 5 425 0
	stfs 29,344(31)
	.loc 5 426 0
	stfs 30,348(31)
.LVL440:
.LBE5155:
.LBE5154:
.LBB5156:
.LBB5157:
	.loc 5 424 0
	stfs 9,352(31)
	.loc 5 425 0
	stfs 12,356(31)
	.loc 5 426 0
	stfs 13,360(31)
.LVL441:
.LBE5157:
.LBE5156:
.LBB5158:
.LBB5159:
	.loc 5 424 0
	stfs 10,364(31)
	.loc 5 425 0
	stfs 11,368(31)
	.loc 5 426 0
	stfs 0,372(31)
.LBE5159:
.LBE5158:
	.loc 4 109 0
	stw 0,376(31)
.LVL442:
.LBB5160:
.LBB5161:
	.loc 5 424 0
	stfs 28,380(31)
	.loc 5 425 0
	stfs 29,384(31)
	.loc 5 426 0
	stfs 30,388(31)
.LVL443:
.L146:
.LBE5161:
.LBE5160:
.LBE5153:
.LBE5152:
.LBE5140:
.LBE5139:
.LBE5138:
.LBE5132:
.LBB5182:
.LBB5183:
	.loc 15 666 0
	li 4,0
	li 5,32
	mr 3,30
.LVL444:
	bl _ZNK13idBitMsgDelta9ReadDeltaEii
.LVL445:
.LBE5183:
.LBE5182:
.LBB5185:
.LBB5186:
	li 4,0
.LBE5186:
.LBE5185:
.LBB5190:
.LBB5184:
	mr 26,3
.LVL446:
.LBE5184:
.LBE5190:
.LBB5191:
.LBB5187:
	li 5,32
	mr 3,30
.LVL447:
	bl _ZNK13idBitMsgDelta9ReadDeltaEii
.LBE5187:
.LBE5191:
.LBB5192:
.LBB5193:
	li 4,0
.LBE5193:
.LBE5192:
.LBB5197:
.LBB5188:
	stw 3,56(1)
.LBE5188:
.LBE5197:
.LBB5198:
.LBB5194:
	li 5,32
	mr 3,30
.LBE5194:
.LBE5198:
.LBB5199:
.LBB5189:
	lfs 31,56(1)
.LVL448:
.LBE5189:
.LBE5199:
.LBB5200:
.LBB5195:
	bl _ZNK13idBitMsgDelta9ReadDeltaEii
.LVL449:
	stw 3,56(1)
.LBE5195:
.LBE5200:
.LBB5201:
.LBB5202:
	li 4,0
	li 5,32
	mr 3,30
.LBE5202:
.LBE5201:
.LBB5205:
.LBB5196:
	lfs 27,56(1)
.LVL450:
.LBE5196:
.LBE5205:
.LBB5206:
.LBB5203:
	bl _ZNK13idBitMsgDelta9ReadDeltaEii
.LVL451:
	stw 3,56(1)
.LBE5203:
.LBE5206:
.LBB5207:
.LBB5208:
	li 4,0
	li 5,32
	mr 3,30
.LBE5208:
.LBE5207:
.LBB5211:
.LBB5204:
	lfs 26,56(1)
.LVL452:
.LBE5204:
.LBE5211:
.LBB5212:
.LBB5209:
	bl _ZNK13idBitMsgDelta9ReadDeltaEii
.LVL453:
	stw 3,56(1)
.LBE5209:
.LBE5212:
.LBB5213:
.LBB5214:
	li 4,0
	li 5,32
	mr 3,30
.LBE5214:
.LBE5213:
.LBB5217:
.LBB5210:
	lfs 28,56(1)
.LVL454:
.LBE5210:
.LBE5217:
.LBB5218:
.LBB5215:
	bl _ZNK13idBitMsgDelta9ReadDeltaEii
.LVL455:
	stw 3,56(1)
.LBE5215:
.LBE5218:
.LBB5219:
.LBB5220:
	li 4,0
	li 5,32
	mr 3,30
.LBE5220:
.LBE5219:
.LBB5223:
.LBB5216:
	lfs 29,56(1)
.LVL456:
.LBE5216:
.LBE5223:
.LBB5224:
.LBB5221:
	bl _ZNK13idBitMsgDelta9ReadDeltaEii
.LVL457:
	stw 3,56(1)
.LBE5221:
.LBE5224:
.LBB5225:
.LBB5226:
	li 4,0
	li 5,32
	mr 3,30
.LBE5226:
.LBE5225:
.LBB5228:
.LBB5222:
	lfs 30,56(1)
.LVL458:
.LBE5222:
.LBE5228:
.LBB5229:
.LBB5227:
	bl _ZNK13idBitMsgDelta9ReadDeltaEii
.LVL459:
	mr 27,3
.LVL460:
.LBE5227:
.LBE5229:
.LBB5230:
.LBB5231:
	li 4,0
	li 5,32
	mr 3,30
.LVL461:
	bl _ZNK13idBitMsgDelta9ReadDeltaEii
.LBE5231:
.LBE5230:
.LBB5233:
.LBB5234:
	li 4,0
.LBE5234:
.LBE5233:
.LBB5236:
.LBB5232:
	mr 28,3
.LVL462:
.LBE5232:
.LBE5236:
.LBB5237:
.LBB5235:
	li 5,32
	mr 3,30
.LVL463:
	bl _ZNK13idBitMsgDelta9ReadDeltaEii
.LVL464:
.LBE5235:
.LBE5237:
.LBB5238:
.LBB5239:
	.loc 7 191 0
	lis 9,.LC0@ha
	lfs 0,.LC0@l(9)
	.loc 7 185 0
	stw 26,392(31)
	.loc 7 191 0
	fcmpu 7,26,0
	.loc 7 186 0
	stfs 31,396(31)
	.loc 7 187 0
	stfs 27,404(31)
.LVL465:
	.loc 7 191 0
	cror 30,28,30
.LBB5240:
.LBB5241:
	.loc 6 146 0
	stfs 28,408(31)
	.loc 6 147 0
	stfs 29,412(31)
	.loc 6 148 0
	stfs 30,416(31)
.LVL466:
.LBE5241:
.LBE5240:
.LBB5242:
.LBB5243:
	.loc 6 146 0
	stw 27,420(31)
	.loc 6 147 0
	stw 28,424(31)
	.loc 6 148 0
	stw 3,428(31)
.LBE5243:
.LBE5242:
	.loc 7 191 0
	beq- 7,.L151
.LVL467:
.LBE5239:
.LBB5244:
.LBB5245:
.LBB5246:
	.loc 7 195 0
	fadds 0,31,27
	fcmpu 7,26,0
	blt- 7,.L152
	fsubs 26,26,31
.LVL468:
.L153:
	.loc 7 199 0
	fsubs 26,26,27
	.loc 7 200 0
	lis 9,.LC8@ha
	lfs 13,.LC8@l(9)
	.loc 7 202 0
	lis 9,.LC0@ha
	.loc 7 200 0
	fmadds 0,0,13,26
	.loc 7 202 0
	lfs 13,.LC0@l(9)
	.loc 7 200 0
	lis 9,.LC9@ha
	.loc 7 199 0
	stfs 26,400(31)
.LVL469:
	.loc 7 200 0
	lfs 12,.LC9@l(9)
	.loc 7 202 0
	fcmpu 7,31,13
.LBB5247:
.LBB5248:
	.loc 6 165 0
	stw 27,56(1)
.LBE5248:
.LBE5247:
	.loc 7 200 0
	fdivs 0,12,0
.LVL470:
.LBB5250:
.LBB5249:
	.loc 6 165 0
	lfs 9,56(1)
	stw 28,56(1)
	lfs 12,56(1)
	stw 3,56(1)
	fsubs 10,9,28
	lfs 9,56(1)
	fsubs 11,12,29
	fsubs 12,9,30
.LBE5249:
.LBE5250:
.LBB5251:
.LBB5252:
	.loc 6 177 0
	fmuls 10,10,0
	fmuls 11,11,0
	fmuls 0,12,0
.LVL471:
.LBE5252:
.LBE5251:
	.loc 7 202 0
	bne- 7,.L163
	.loc 7 204 0
	fcmpu 7,26,13
.LBB5253:
.LBB5254:
	.loc 4 109 0
	lwz 0,.LC3@l(29)
.LBE5254:
.LBE5253:
.LBB5256:
.LBB5257:
	.loc 6 165 0
	fsubs 9,28,28
	fsubs 12,29,29
	fsubs 13,30,30
.LBE5257:
.LBE5256:
	.loc 7 204 0
	bne- 7,.L164
.LVL472:
.LBB5258:
.LBB5259:
	.loc 4 103 0
	li 9,8
	.loc 4 104 0
	stw 26,436(31)
	.loc 4 103 0
	stw 9,432(31)
	.loc 4 105 0
	stfs 27,440(31)
.LVL473:
.L160:
.LBB5260:
.LBB5261:
	.loc 6 146 0
	stfs 28,444(31)
	.loc 6 147 0
	stfs 29,448(31)
	.loc 6 148 0
	stfs 30,452(31)
.LVL474:
.LBE5261:
.LBE5260:
.LBB5262:
.LBB5263:
	.loc 6 146 0
	stfs 9,456(31)
	.loc 6 147 0
	stfs 12,460(31)
	.loc 6 148 0
	stfs 13,464(31)
.LVL475:
.LBE5263:
.LBE5262:
.LBB5264:
.LBB5265:
	.loc 6 146 0
	stfs 10,468(31)
	.loc 6 147 0
	stfs 11,472(31)
	.loc 6 148 0
	stfs 0,476(31)
.LBE5265:
.LBE5264:
	.loc 4 109 0
	stw 0,480(31)
.LVL476:
.LBB5266:
.LBB5267:
	.loc 6 146 0
	stfs 28,484(31)
	.loc 6 147 0
	stfs 29,488(31)
	.loc 6 148 0
	stfs 30,492(31)
.LVL477:
.L151:
.LBE5267:
.LBE5266:
.LBE5259:
.LBE5258:
.LBE5246:
.LBE5245:
.LBE5244:
.LBE5238:
	.loc 2 1180 0
	addi 3,1,8
.LVL478:
	addi 4,31,88
	bl _ZNK8idAngles6ToMat3Ev
.LVL479:
.LBB5288:
.LBB5289:
	.loc 11 333 0
	addi 8,31,100
	li 10,0
.L156:
.LBB5290:
.LBB5291:
	.loc 5 424 0
	addi 11,1,8
.LVL480:
.LBE5291:
.LBE5290:
	.loc 11 333 0
	cmpwi 7,10,24
.LBB5294:
.LBB5292:
	.loc 5 424 0
	lwzux 0,11,10
.LVL481:
	mr 9,8
	stwux 0,9,10
.LBE5292:
.LBE5294:
	.loc 11 333 0
	addi 10,10,12
.LBB5295:
.LBB5293:
	.loc 5 425 0
	lwz 7,4(11)
	.loc 5 426 0
	lwz 0,8(11)
	.loc 5 425 0
	stw 7,4(9)
	.loc 5 426 0
	stw 0,8(9)
.LBE5293:
.LBE5295:
	.loc 11 333 0
	bne+ 7,.L156
.LBE5289:
.LBE5288:
	.loc 2 1182 0
	lwz 3,1056(31)
	cmpwi 7,3,0
	beq- 7,.L145
	.loc 2 1183 0
	lis 4,gameLocal+2311032@ha
	lwz 5,4(31)
	la 4,gameLocal+2311032@l(4)
	li 6,0
	addi 7,31,76
	li 9,-1
	bl _ZN11idClipModel4LinkER6idClipP8idEntityiRK6idVec3RK6idMat3i
.L145:
.LBE5303:
	.loc 2 1185 0
	lwz 0,180(1)
	lwz 17,68(1)
.LVL482:
	mtlr 0
	lwz 18,72(1)
.LVL483:
	lwz 19,76(1)
.LVL484:
	lwz 20,80(1)
.LVL485:
	lwz 21,84(1)
.LVL486:
	lwz 22,88(1)
.LVL487:
	lwz 23,92(1)
.LVL488:
	lwz 24,96(1)
.LVL489:
	lwz 25,100(1)
	lwz 26,104(1)
.LVL490:
	lwz 27,108(1)
.LVL491:
	lwz 28,112(1)
.LVL492:
	lwz 29,116(1)
	lwz 30,120(1)
.LVL493:
	lwz 31,124(1)
.LVL494:
	lfd 26,128(1)
	lfd 27,136(1)
	lfd 28,144(1)
.LVL495:
	lfd 29,152(1)
.LVL496:
	lfd 30,160(1)
.LVL497:
	lfd 31,168(1)
	addi 1,1,176
	.cfi_remember_state
.LCFI55:
	.cfi_def_cfa_offset 0
	.cfi_restore 63
	.cfi_restore 62
	.cfi_restore 61
	.cfi_restore 60
	.cfi_restore 59
	.cfi_restore 58
	.cfi_restore 31
	.cfi_restore 30
	.cfi_restore 29
	.cfi_restore 28
	.cfi_restore 27
	.cfi_restore 26
	.cfi_restore 25
	.cfi_restore 24
	.cfi_restore 23
	.cfi_restore 22
	.cfi_restore 21
	.cfi_restore 20
	.cfi_restore 19
	.cfi_restore 18
	.cfi_restore 17
	blr
.LVL498:
.L152:
.LCFI56:
	.cfi_restore_state
.LBB5304:
.LBB5296:
.LBB5285:
.LBB5282:
.LBB5279:
	.loc 7 196 0
	fmuls 31,31,26
.LVL499:
	fdivs 31,31,0
	.loc 7 197 0
	fsubs 26,26,31
.LVL500:
	.loc 7 196 0
	stfs 31,396(31)
	.loc 7 197 0
	fadds 0,31,26
	stfs 26,404(31)
	fmr 27,26
.LVL501:
	b .L153
.LVL502:
.L147:
.LBE5279:
.LBE5282:
.LBE5285:
.LBE5296:
.LBB5297:
.LBB5179:
.LBB5176:
.LBB5173:
	.loc 7 196 0
	fmuls 31,31,26
.LVL503:
	fdivs 31,31,0
	.loc 7 197 0
	fsubs 27,26,31
.LVL504:
	.loc 7 196 0
	stfs 31,292(31)
	.loc 7 197 0
	fadds 0,31,27
	stfs 27,300(31)
	fmr 26,27
.LVL505:
	b .L148
.LVL506:
.L163:
.LBE5173:
.LBE5176:
.LBE5179:
.LBE5297:
.LBB5298:
.LBB5286:
.LBB5283:
.LBB5280:
.LBB5268:
.LBB5269:
	.loc 4 103 0
	li 9,4
.LBE5269:
.LBE5268:
.LBB5272:
.LBB5273:
	.loc 6 165 0
	fsubs 9,28,28
	fsubs 12,29,29
.LVL507:
.LBE5273:
.LBE5272:
.LBB5275:
.LBB5270:
	.loc 4 109 0
	lwz 0,.LC3@l(29)
.LBE5270:
.LBE5275:
.LBB5276:
.LBB5274:
	.loc 6 165 0
	fsubs 13,30,30
.LBE5274:
.LBE5276:
.LBB5277:
.LBB5271:
	.loc 4 103 0
	stw 9,432(31)
	.loc 4 104 0
	stw 26,436(31)
	.loc 4 105 0
	stfs 31,440(31)
.LVL508:
	b .L160
.LVL509:
.L161:
.LBE5271:
.LBE5277:
.LBE5280:
.LBE5283:
.LBE5286:
.LBE5298:
.LBB5299:
.LBB5180:
.LBB5177:
.LBB5174:
.LBB5162:
.LBB5163:
	.loc 4 103 0
	li 9,4
.LBE5163:
.LBE5162:
.LBB5166:
.LBB5167:
	.loc 5 431 0
	fsubs 9,28,28
	fsubs 12,29,29
.LVL510:
.LBE5167:
.LBE5166:
.LBB5169:
.LBB5164:
	.loc 4 109 0
	lwz 0,.LC3@l(29)
.LBE5164:
.LBE5169:
.LBB5170:
.LBB5168:
	.loc 5 431 0
	fsubs 13,30,30
.LBE5168:
.LBE5170:
.LBB5171:
.LBB5165:
	.loc 4 103 0
	stw 9,328(31)
	.loc 4 104 0
	stw 26,332(31)
	.loc 4 105 0
	stfs 31,336(31)
.LVL511:
	b .L159
.LVL512:
.L164:
.LBE5165:
.LBE5171:
.LBE5174:
.LBE5177:
.LBE5180:
.LBE5299:
.LBB5300:
.LBB5287:
.LBB5284:
.LBB5281:
.LBB5278:
.LBB5255:
	.loc 4 103 0
	li 9,2
	.loc 4 104 0
	stw 26,436(31)
	.loc 4 103 0
	stw 9,432(31)
	.loc 4 105 0
	stfs 26,440(31)
.LVL513:
	b .L160
.LVL514:
.L162:
.LBE5255:
.LBE5278:
.LBE5281:
.LBE5284:
.LBE5287:
.LBE5300:
.LBB5301:
.LBB5181:
.LBB5178:
.LBB5175:
.LBB5172:
.LBB5149:
	.loc 4 103 0
	li 9,2
	.loc 4 104 0
	stw 26,332(31)
	.loc 4 103 0
	stw 9,328(31)
	.loc 4 105 0
	stfs 26,336(31)
.LVL515:
	b .L159
.LBE5149:
.LBE5172:
.LBE5175:
.LBE5178:
.LBE5181:
.LBE5301:
.LBE5304:
	.cfi_endproc
.LFE2897:
	.size	_ZN20idPhysics_Parametric16ReadFromSnapshotERK13idBitMsgDelta, .-_ZN20idPhysics_Parametric16ReadFromSnapshotERK13idBitMsgDelta
	.align 2
	.globl _ZN20idPhysics_Parametric9SetOriginERK6idVec3i
	.type	_ZN20idPhysics_Parametric9SetOriginERK6idVec3i, @function
_ZN20idPhysics_Parametric9SetOriginERK6idVec3i:
.LFB2876:
	.loc 2 745 0
	.cfi_startproc
.LVL516:
	mflr 0
	stwu 1,-112(1)
.LCFI57:
	.cfi_def_cfa_offset 112
	.cfi_register 65, 0
.LBB5478:
.LBB5479:
.LBB5480:
	.loc 4 63 0
	lis 9,.LC3@ha
.LBE5480:
.LBE5479:
.LBE5478:
	.loc 2 745 0
	stfd 27,72(1)
	stw 31,68(1)
	mr 31,3
	.cfi_offset 31, -44
	.cfi_offset 59, -40
.LVL517:
	stw 0,116(1)
	stfd 28,80(1)
	stfd 29,88(1)
	stfd 30,96(1)
	stfd 31,104(1)
.LBB5599:
.LBB5494:
.LBB5489:
	.loc 4 63 0
	lfs 0,.LC3@l(9)
.LBE5489:
.LBE5494:
	.loc 2 752 0
	lis 9,.LC2@ha
.LBB5495:
.LBB5490:
.LBB5481:
.LBB5482:
	.loc 5 424 0
	lfs 29,0(4)
	.cfi_offset 63, -8
	.cfi_offset 62, -16
	.cfi_offset 61, -24
	.cfi_offset 60, -32
	.cfi_offset 65, 4
.LBE5482:
.LBE5481:
.LBE5490:
.LBE5495:
	.loc 2 752 0
	lwz 0,68(3)
.LBB5496:
.LBB5491:
.LBB5486:
.LBB5483:
	.loc 5 424 0
	stfs 29,172(3)
.LBE5483:
.LBE5486:
.LBE5491:
.LBE5496:
	.loc 2 752 0
	xoris 0,0,0x8000
	lfs 13,.LC2@l(9)
.LBB5497:
.LBB5492:
.LBB5487:
.LBB5484:
	.loc 5 425 0
	lfs 30,4(4)
	stfs 30,176(3)
	.loc 5 426 0
	lfs 31,8(4)
.LBE5484:
.LBE5487:
.LBE5492:
.LBE5497:
	.loc 2 752 0
	stw 0,60(1)
	lis 0,0x4330
	stw 0,56(1)
.LBB5498:
.LBB5493:
.LBB5488:
.LBB5485:
	.loc 5 426 0
	stfs 31,180(3)
.LBE5485:
.LBE5488:
	.loc 4 63 0
	stfs 0,208(3)
.LVL518:
.LBE5493:
.LBE5498:
.LBB5499:
.LBB5500:
.LBB5501:
.LBB5502:
.LBB5503:
.LBB5504:
	.loc 5 424 0
	lwz 10,340(3)
.LBE5504:
.LBE5503:
.LBE5502:
.LBE5501:
.LBE5500:
.LBE5499:
	.loc 2 752 0
	lfd 27,56(1)
.LBB5538:
.LBB5521:
.LBB5522:
	.loc 5 424 0
	lwz 0,0(4)
.LBE5522:
.LBE5521:
.LBE5538:
	.loc 2 752 0
	fsub 27,27,13
.LBB5539:
.LBB5528:
.LBB5516:
.LBB5511:
.LBB5507:
.LBB5505:
	.loc 5 425 0
	lwz 11,344(3)
.LBE5505:
.LBE5507:
.LBE5511:
.LBE5516:
.LBE5528:
.LBB5529:
.LBB5523:
	.loc 5 424 0
	stw 0,304(3)
.LBE5523:
.LBE5529:
.LBB5530:
.LBB5517:
.LBB5512:
.LBB5508:
.LBB5506:
	.loc 5 426 0
	lwz 9,348(3)
.LBE5506:
.LBE5508:
.LBE5512:
.LBE5517:
.LBE5530:
.LBB5531:
.LBB5524:
	.loc 5 425 0
	lwz 0,4(4)
.LBE5524:
.LBE5531:
.LBE5539:
	.loc 2 752 0
	frsp 27,27
.LBB5540:
.LBB5532:
.LBB5525:
	.loc 5 425 0
	stw 0,308(3)
.LBE5525:
.LBE5532:
.LBB5533:
.LBB5518:
.LBB5513:
	.loc 4 104 0
	li 0,0
.LBE5513:
.LBE5518:
.LBE5533:
.LBE5540:
.LBB5541:
.LBB5542:
	.loc 4 122 0
	fcmpu 7,27,0
.LBE5542:
.LBE5541:
.LBB5565:
.LBB5534:
.LBB5526:
	.loc 5 426 0
	lwz 8,8(4)
.LBE5526:
.LBE5534:
.LBB5535:
.LBB5519:
.LBB5514:
	.loc 4 104 0
	stw 0,332(3)
.LBE5514:
.LBE5519:
.LBE5535:
.LBB5536:
.LBB5527:
	.loc 5 426 0
	stw 8,312(3)
.LVL519:
.LBE5527:
.LBE5536:
.LBB5537:
.LBB5520:
.LBB5515:
	.loc 4 103 0
	li 8,1
	stw 8,328(3)
	.loc 4 105 0
	stw 0,336(3)
.LVL520:
	.loc 4 109 0
	stfs 0,376(3)
.LVL521:
.LBB5509:
.LBB5510:
	.loc 5 424 0
	stw 10,380(3)
	.loc 5 425 0
	stw 11,384(3)
	.loc 5 426 0
	stw 9,388(3)
.LVL522:
.LBE5510:
.LBE5509:
.LBE5515:
.LBE5520:
.LBE5537:
.LBE5565:
.LBB5566:
.LBB5561:
	.loc 4 122 0
	beq- 7,.L190
.LVL523:
	.loc 4 128 0
	lfs 0,164(3)
	.loc 4 126 0
	stfs 27,208(3)
	.loc 4 128 0
	fcmpu 7,27,0
	blt- 7,.L167
	.loc 4 132 0
	lwz 0,160(3)
	andi. 9,0,64
	bne- 0,.L168
	lfs 13,168(3)
	fadds 13,0,13
	fcmpu 7,27,13
	bng- 7,.L168
	.loc 4 133 0
	fmr 27,13
.LVL524:
.L168:
	.loc 4 136 0
	rlwinm 0,0,0,26,24
	cmplwi 7,0,32
	ble- 7,.L191
.L169:
	lfs 30,216(31)
	lfs 29,212(31)
	lfs 31,220(31)
.LVL525:
.L167:
.LBE5561:
.LBE5566:
	.loc 2 753 0
	lbz 0,1173(31)
.LBB5567:
.LBB5568:
	.loc 5 424 0
	stfs 29,136(31)
.LBE5568:
.LBE5567:
	.loc 2 753 0
	cmpwi 7,0,0
.LBB5571:
.LBB5569:
	.loc 5 425 0
	stfs 30,140(31)
	.loc 5 426 0
	stfs 31,144(31)
.LBE5569:
.LBE5571:
	.loc 2 753 0
	bne- 7,.L192
.LVL526:
.L182:
.LBB5572:
.LBB5573:
	.loc 5 424 0
	stfs 29,76(31)
	.loc 5 425 0
	stfs 30,80(31)
	.loc 5 426 0
	stfs 31,84(31)
.LVL527:
.L183:
.LBE5573:
.LBE5572:
	.loc 2 760 0
	lwz 3,1056(31)
	cmpwi 7,3,0
	beq- 7,.L184
	.loc 2 761 0
	lis 4,gameLocal+2311032@ha
	lwz 5,4(31)
	la 4,gameLocal+2311032@l(4)
	li 6,0
	addi 7,31,76
	addi 8,31,100
	li 9,-1
	bl _ZN11idClipModel4LinkER6idClipP8idEntityiRK6idVec3RK6idMat3i
.L184:
	.loc 2 763 0
	lwz 9,0(31)
	mr 3,31
	lwz 0,88(9)
	mtctr 0
	bctrl
.LBE5599:
	.loc 2 764 0
	lwz 0,116(1)
	lwz 31,68(1)
.LVL528:
	mtlr 0
	lfd 27,72(1)
	lfd 28,80(1)
	lfd 29,88(1)
	lfd 30,96(1)
	lfd 31,104(1)
	addi 1,1,112
	.cfi_remember_state
.LCFI58:
	.cfi_def_cfa_offset 0
	.cfi_restore 63
	.cfi_restore 62
	.cfi_restore 61
	.cfi_restore 60
	.cfi_restore 59
	.cfi_restore 31
	blr
.LVL529:
.L190:
.LCFI59:
	.cfi_restore_state
.LBB5600:
	.loc 2 753 0
	lbz 0,1173(31)
.LBB5574:
.LBB5562:
	.loc 4 123 0
	lfs 29,212(3)
.LBE5562:
.LBE5574:
	.loc 2 753 0
	cmpwi 7,0,0
.LBB5575:
.LBB5563:
	.loc 4 123 0
	lfs 30,216(3)
	lfs 31,220(3)
.LVL530:
.LBE5563:
.LBE5575:
.LBB5576:
.LBB5570:
	.loc 5 424 0
	stfs 29,136(31)
	.loc 5 425 0
	stfs 30,140(31)
	.loc 5 426 0
	stfs 31,144(31)
.LBE5570:
.LBE5576:
	.loc 2 753 0
	beq+ 7,.L182
.LVL531:
.L192:
	.loc 2 754 0
	lwz 3,4(31)
	addi 4,1,8
	addi 5,1,20
	bl _ZNK8idEntity17GetMasterPositionER6idVec3R6idMat3
.LVL532:
.LBB5577:
.LBB5578:
.LBB5579:
	.loc 11 454 0
	lfs 0,140(31)
	lfs 11,36(1)
	lfs 13,32(1)
	lfs 12,40(1)
	fmuls 11,0,11
.LBE5579:
.LBE5578:
.LBE5577:
.LBB5584:
.LBB5585:
	lfs 10,24(1)
.LBE5585:
.LBE5584:
.LBB5589:
.LBB5582:
.LBB5580:
	fmuls 12,0,12
	fmuls 0,0,13
	lfs 13,136(31)
.LBE5580:
.LBE5582:
.LBE5589:
.LBB5590:
.LBB5586:
	fmadds 11,13,10,11
	lfs 10,28(1)
	fmadds 12,13,10,12
	lfs 10,20(1)
	fmadds 13,10,13,0
.LBE5586:
.LBE5590:
.LBB5591:
.LBB5583:
.LBB5581:
	lfs 0,144(31)
.LVL533:
.LBE5581:
.LBE5583:
.LBE5591:
.LBB5592:
.LBB5587:
	lfs 10,48(1)
	fmadds 11,0,10,11
	lfs 10,52(1)
	fmadds 12,0,10,12
	lfs 10,44(1)
	fmadds 0,10,0,13
	.loc 5 452 0
	lfs 13,12(1)
	fadds 11,11,13
	lfs 13,16(1)
	fadds 12,12,13
.LVL534:
	lfs 13,8(1)
.LBE5587:
.LBE5592:
.LBB5593:
.LBB5594:
	.loc 5 425 0
	stfs 11,80(31)
.LBE5594:
.LBE5593:
.LBB5596:
.LBB5588:
	.loc 5 452 0
	fadds 0,13,0
.LBE5588:
.LBE5596:
.LBB5597:
.LBB5595:
	.loc 5 426 0
	stfs 12,84(31)
	.loc 5 424 0
	stfs 0,76(31)
	b .L183
.LVL535:
.L191:
.LBE5595:
.LBE5597:
.LBB5598:
.LBB5564:
	.loc 4 136 0
	lis 9,.L176@ha
	slwi 0,0,2
	la 9,.L176@l(9)
	lwzx 0,9,0
	add 9,0,9
	mtctr 9
	bctr
	.section	.rodata
	.align 2
	.align 2
.L176:
	.long .L169-.L176
	.long .L170-.L176
	.long .L171-.L176
	.long .L169-.L176
	.long .L172-.L176
	.long .L169-.L176
	.long .L169-.L176
	.long .L169-.L176
	.long .L173-.L176
	.long .L169-.L176
	.long .L169-.L176
	.long .L169-.L176
	.long .L169-.L176
	.long .L169-.L176
	.long .L169-.L176
	.long .L169-.L176
	.long .L174-.L176
	.long .L169-.L176
	.long .L169-.L176
	.long .L169-.L176
	.long .L169-.L176
	.long .L169-.L176
	.long .L169-.L176
	.long .L169-.L176
	.long .L169-.L176
	.long .L169-.L176
	.long .L169-.L176
	.long .L169-.L176
	.long .L169-.L176
	.long .L169-.L176
	.long .L169-.L176
	.long .L169-.L176
	.long .L175-.L176
	.section	".text"
.L175:
	.loc 4 178 0
	lis 9,.LC0@ha
	lfs 28,168(31)
	lfs 13,.LC0@l(9)
	fcmpu 7,28,13
	bne- 7,.L181
.LVL536:
.L187:
.LBB5543:
.LBB5544:
	.loc 5 424 0
	stfs 29,212(31)
	.loc 5 425 0
	stfs 30,216(31)
	.loc 5 426 0
	stfs 31,220(31)
	b .L167
.LVL537:
.L174:
.LBE5544:
.LBE5543:
	.loc 4 168 0
	lis 9,.LC0@ha
	lfs 28,168(31)
	lfs 13,.LC0@l(9)
	fcmpu 7,28,13
	beq- 7,.L187
	.loc 4 171 0
	fsubs 27,27,0
.LVL538:
.LBB5545:
.LBB5546:
	.loc 12 347 0
	lis 9,_ZN6idMath7HALF_PIE@ha
	lfs 1,_ZN6idMath7HALF_PIE@l(9)
.LBE5546:
.LBE5545:
	.loc 4 171 0
	fdivs 27,27,28
.LVL539:
.LBB5548:
.LBB5547:
	.loc 12 347 0
	fmuls 1,27,1
	bl cosf
.LVL540:
.LBE5547:
.LBE5548:
	.loc 4 172 0
	lis 9,.LC4@ha
	lfs 0,.LC4@l(9)
	lis 9,.LC10@ha
	lfs 13,.LC10@l(9)
	fsubs 0,0,1
	.loc 5 452 0
	lfs 11,184(31)
	.loc 4 172 0
	fmuls 28,28,0
	fmuls 28,28,13
.LVL541:
.L186:
	.loc 4 182 0
	lis 9,_ZN6idMath11SQRT_1OVER2E@ha
	.loc 5 452 0
	lfs 12,188(31)
	lfs 13,192(31)
	fmadds 29,27,11,29
	.loc 4 182 0
	lfs 0,_ZN6idMath11SQRT_1OVER2E@l(9)
	.loc 5 452 0
	fmadds 30,27,12,30
	fmadds 31,27,13,31
	lfs 11,196(31)
	.loc 4 182 0
	fmuls 0,28,0
.LVL542:
	.loc 5 452 0
	lfs 12,200(31)
	lfs 13,204(31)
	fmadds 29,0,11,29
.LVL543:
	fmadds 30,0,12,30
.LVL544:
	fmadds 31,0,13,31
.LVL545:
	b .L187
.LVL546:
.L173:
	.loc 4 158 0
	lis 9,.LC0@ha
	lfs 13,168(31)
	lfs 12,.LC0@l(9)
	fcmpu 7,13,12
	beq- 7,.L187
	.loc 4 161 0
	fsubs 0,27,0
	.loc 4 162 0
	lis 9,.LC8@ha
	lfs 9,.LC8@l(9)
	lis 9,.LC10@ha
	.loc 5 452 0
	lfs 5,184(31)
	.loc 4 161 0
	fdivs 0,0,13
.LVL547:
	.loc 4 162 0
	lfs 4,.LC10@l(9)
	.loc 5 452 0
	lfs 7,188(31)
	lfs 8,192(31)
	lfs 10,196(31)
	lfs 11,200(31)
	lfs 12,204(31)
	.loc 2 745 0
	fneg 6,0
	.loc 4 162 0
	fmuls 9,0,9
	fmuls 13,13,4
	.loc 5 452 0
	fmadds 29,0,5,29
	.loc 4 162 0
	fmadds 9,6,9,0
	b .L189
.LVL548:
.L172:
	.loc 4 148 0
	lis 9,.LC0@ha
	lfs 13,168(31)
	lfs 12,.LC0@l(9)
	fcmpu 7,13,12
	beq- 7,.L187
	.loc 4 151 0
	fsubs 0,27,0
	.loc 4 152 0
	lis 9,.LC8@ha
	lfs 9,.LC8@l(9)
	lis 9,.LC10@ha
	.loc 5 452 0
	lfs 6,184(31)
	.loc 4 151 0
	fdivs 0,0,13
.LVL549:
	.loc 4 152 0
	lfs 5,.LC10@l(9)
	.loc 5 452 0
	lfs 7,188(31)
	lfs 8,192(31)
	lfs 10,196(31)
	lfs 11,200(31)
	lfs 12,204(31)
	.loc 4 152 0
	fmuls 9,0,9
	fmuls 13,13,5
	.loc 5 452 0
	fmadds 29,0,6,29
	.loc 4 152 0
	fmuls 9,0,9
.L189:
	.loc 4 162 0
	fmuls 13,9,13
	.loc 5 452 0
	fmadds 30,0,7,30
.LVL550:
	fmadds 31,0,8,31
.LVL551:
	fmadds 29,13,10,29
.LVL552:
	fmadds 30,13,11,30
.LVL553:
	fmadds 31,13,12,31
.LVL554:
.LBB5549:
.LBB5550:
	.loc 5 424 0
	stfs 29,212(31)
	.loc 5 425 0
	stfs 30,216(31)
	.loc 5 426 0
	stfs 31,220(31)
	b .L167
.LVL555:
.L171:
.LBE5550:
.LBE5549:
	.loc 4 143 0
	fsubs 0,27,0
	lis 9,.LC10@ha
.LBB5551:
.LBB5552:
	.loc 5 452 0
	lfs 8,184(31)
	lfs 11,196(31)
	lfs 9,188(31)
	lfs 12,200(31)
	fadds 11,8,11
	lfs 10,192(31)
	lfs 13,204(31)
	fadds 12,9,12
.LBE5552:
.LBE5551:
	.loc 4 143 0
	lfs 7,.LC10@l(9)
.LBB5554:
.LBB5553:
	.loc 5 452 0
	fadds 13,10,13
.LBE5553:
.LBE5554:
	.loc 4 143 0
	fmuls 0,0,7
.LVL556:
.L188:
	.loc 5 452 0
	fmadds 29,0,11,29
	fmadds 30,0,12,30
	fmadds 31,0,13,31
.LVL557:
.LBB5555:
.LBB5556:
	.loc 5 424 0
	stfs 29,212(31)
	.loc 5 425 0
	stfs 30,216(31)
	.loc 5 426 0
	stfs 31,220(31)
	b .L167
.LVL558:
.L170:
.LBE5556:
.LBE5555:
	.loc 4 138 0
	fsubs 0,27,0
	lis 9,.LC10@ha
	lfs 13,.LC10@l(9)
	.loc 5 452 0
	lfs 11,184(31)
	.loc 4 138 0
	fmuls 0,0,13
.LVL559:
	.loc 5 452 0
	lfs 12,188(31)
	lfs 13,192(31)
	b .L188
.LVL560:
.L181:
	.loc 4 181 0
	fsubs 27,27,0
.LVL561:
.LBB5557:
.LBB5558:
	.loc 12 311 0
	lis 9,_ZN6idMath7HALF_PIE@ha
	lfs 1,_ZN6idMath7HALF_PIE@l(9)
.LBE5558:
.LBE5557:
	.loc 4 181 0
	fdivs 27,27,28
.LVL562:
.LBB5560:
.LBB5559:
	.loc 12 311 0
	fmuls 1,27,1
	bl sinf
.LVL563:
.LBE5559:
.LBE5560:
	.loc 4 182 0
	lis 9,.LC10@ha
	fmuls 28,28,1
	lfs 0,.LC10@l(9)
	.loc 5 452 0
	lfs 11,184(31)
	.loc 4 182 0
	fmuls 28,28,0
	b .L186
.LBE5564:
.LBE5598:
.LBE5600:
	.cfi_endproc
.LFE2876:
	.size	_ZN20idPhysics_Parametric9SetOriginERK6idVec3i, .-_ZN20idPhysics_Parametric9SetOriginERK6idVec3i
	.align 2
	.globl _ZN20idPhysics_Parametric7SetAxisERK6idMat3i
	.type	_ZN20idPhysics_Parametric7SetAxisERK6idMat3i, @function
_ZN20idPhysics_Parametric7SetAxisERK6idMat3i:
.LFB2877:
	.loc 2 771 0
	.cfi_startproc
.LVL564:
	stwu 1,-264(1)
.LCFI60:
	.cfi_def_cfa_offset 264
	mflr 0
	stw 31,220(1)
	mr 31,3
	.cfi_offset 31, -44
	.cfi_register 65, 0
.LBB5819:
	.loc 2 775 0
	addi 3,1,20
.LVL565:
.LBE5819:
	.loc 2 771 0
	stw 0,268(1)
	stfd 29,240(1)
	stfd 30,248(1)
	stfd 31,256(1)
	stfd 27,224(1)
	stfd 28,232(1)
	stw 30,216(1)
.LBB5924:
	.loc 2 775 0
	.cfi_offset 30, -48
	.cfi_offset 60, -32
	.cfi_offset 59, -40
	.cfi_offset 63, -8
	.cfi_offset 62, -16
	.cfi_offset 61, -24
	.cfi_offset 65, 4
	bl _ZNK6idMat38ToAnglesEv
.LVL566:
	.loc 2 780 0
	lwz 0,68(31)
	lis 9,.LC2@ha
	lfs 0,.LC2@l(9)
.LBB5820:
.LBB5821:
	.loc 4 63 0
	lis 9,.LC3@ha
.LBE5821:
.LBE5820:
	.loc 2 780 0
	xoris 0,0,0x8000
.LBB5826:
.LBB5827:
	.loc 6 146 0
	lfs 29,20(1)
.LBE5827:
.LBE5826:
	.loc 2 780 0
	stw 0,204(1)
	lis 0,0x4330
	stw 0,200(1)
.LBB5832:
.LBB5833:
.LBB5834:
.LBB5835:
	.loc 4 103 0
	li 8,1
.LBE5835:
.LBE5834:
.LBE5833:
.LBE5832:
.LBB5856:
.LBB5828:
	.loc 6 147 0
	lfs 30,24(1)
.LBE5828:
.LBE5856:
.LBB5857:
.LBB5850:
.LBB5846:
.LBB5842:
	.loc 4 104 0
	li 0,0
.LBE5842:
.LBE5846:
.LBE5850:
.LBE5857:
	.loc 2 780 0
	lfd 13,200(1)
.LBB5858:
.LBB5829:
	.loc 6 148 0
	lfs 31,28(1)
.LBE5829:
.LBE5858:
	.loc 2 780 0
	fsub 13,13,0
.LBB5859:
.LBB5824:
	.loc 4 63 0
	lfs 0,.LC3@l(9)
.LBE5824:
.LBE5859:
.LBB5860:
.LBB5851:
.LBB5847:
.LBB5843:
.LBB5836:
.LBB5837:
	.loc 6 146 0
	lwz 10,444(31)
	.loc 6 147 0
	lwz 11,448(31)
.LBE5837:
.LBE5836:
.LBE5843:
.LBE5847:
.LBE5851:
.LBE5860:
	.loc 2 780 0
	frsp 13,13
.LBB5861:
.LBB5852:
.LBB5848:
.LBB5844:
.LBB5839:
.LBB5838:
	.loc 6 148 0
	lwz 9,452(31)
.LBE5838:
.LBE5839:
.LBE5844:
.LBE5848:
.LBE5852:
.LBE5861:
.LBB5862:
.LBB5830:
	.loc 6 146 0
	stfs 29,148(31)
	.loc 6 147 0
	stfs 30,152(31)
.LBE5830:
.LBE5862:
.LBB5863:
.LBB5864:
	.loc 4 122 0
	fcmpu 7,13,0
.LBE5864:
.LBE5863:
.LBB5887:
.LBB5831:
	.loc 6 148 0
	stfs 31,156(31)
.LVL567:
.LBE5831:
.LBE5887:
.LBB5888:
.LBB5825:
.LBB5822:
.LBB5823:
	.loc 6 146 0
	stfs 29,236(31)
	.loc 6 147 0
	stfs 30,240(31)
	.loc 6 148 0
	stfs 31,244(31)
.LBE5823:
.LBE5822:
	.loc 4 63 0
	stfs 0,272(31)
.LVL568:
.LBE5825:
.LBE5888:
.LBB5889:
.LBB5853:
.LBB5854:
	.loc 6 146 0
	stfs 29,408(31)
	.loc 6 147 0
	stfs 30,412(31)
	.loc 6 148 0
	stfs 31,416(31)
.LVL569:
.LBE5854:
.LBE5853:
.LBB5855:
.LBB5849:
.LBB5845:
	.loc 4 103 0
	stw 8,432(31)
	.loc 4 104 0
	stw 0,436(31)
	.loc 4 105 0
	stw 0,440(31)
.LVL570:
	.loc 4 109 0
	stfs 0,480(31)
.LVL571:
.LBB5840:
.LBB5841:
	.loc 6 146 0
	stw 10,484(31)
	.loc 6 147 0
	stw 11,488(31)
	.loc 6 148 0
	stw 9,492(31)
.LVL572:
.LBE5841:
.LBE5840:
.LBE5845:
.LBE5849:
.LBE5855:
.LBE5889:
.LBB5890:
.LBB5883:
	.loc 4 122 0
	beq- 7,.L224
	.loc 4 128 0
	lfs 0,228(31)
	.loc 4 126 0
	stfs 13,272(31)
	.loc 4 128 0
	fcmpu 7,13,0
	blt- 7,.L195
	.loc 4 132 0
	lwz 0,224(31)
	andi. 9,0,64
	bne- 0,.L196
	lfs 12,232(31)
	fadds 12,0,12
	fcmpu 7,13,12
	bng- 7,.L196
	.loc 4 133 0
	fmr 13,12
.LVL573:
.L196:
	.loc 4 136 0
	rlwinm 0,0,0,26,24
	cmplwi 7,0,32
	ble- 7,.L225
.L197:
	lfs 30,280(31)
	lfs 31,284(31)
	lfs 29,276(31)
.LVL574:
.L195:
.LBE5883:
.LBE5890:
	.loc 2 781 0
	lbz 0,1173(31)
.LBB5891:
.LBB5892:
	.loc 6 146 0
	stfs 29,148(31)
.LBE5892:
.LBE5891:
	.loc 2 781 0
	cmpwi 7,0,0
.LBB5894:
.LBB5893:
	.loc 6 147 0
	stfs 30,152(31)
	.loc 6 148 0
	stfs 31,156(31)
.LBE5893:
.LBE5894:
	.loc 2 781 0
	beq- 7,.L210
	.loc 2 781 0 is_stmt 0 discriminator 1
	lbz 0,1174(31)
	cmpwi 7,0,0
	bne- 7,.L226
.L210:
	.loc 2 787 0 is_stmt 1
	addi 3,1,44
	addi 4,31,148
	bl _ZNK8idAngles6ToMat3Ev
.LVL575:
.LBB5895:
.LBB5896:
	.loc 11 333 0
	addi 8,31,100
	li 10,0
.L214:
.LBB5897:
.LBB5898:
	.loc 5 424 0
	addi 11,1,44
.LVL576:
.LBE5898:
.LBE5897:
	.loc 11 333 0
	cmpwi 7,10,24
.LBB5901:
.LBB5899:
	.loc 5 424 0
	lwzux 0,11,10
.LVL577:
	mr 9,8
	stwux 0,9,10
.LBE5899:
.LBE5901:
	.loc 11 333 0
	addi 10,10,12
.LBB5902:
.LBB5900:
	.loc 5 425 0
	lwz 7,4(11)
	.loc 5 426 0
	lwz 0,8(11)
	.loc 5 425 0
	stw 7,4(9)
	.loc 5 426 0
	stw 0,8(9)
.LBE5900:
.LBE5902:
	.loc 11 333 0
	bne+ 7,.L214
.LVL578:
.LBE5896:
.LBE5895:
.LBB5903:
.LBB5904:
	.loc 6 146 0
	lwz 11,148(31)
	.loc 6 147 0
	lwz 9,152(31)
	.loc 6 148 0
	lwz 0,156(31)
	.loc 6 146 0
	stw 11,88(31)
	.loc 6 147 0
	stw 9,92(31)
	.loc 6 148 0
	stw 0,96(31)
.LVL579:
.L213:
.LBE5904:
.LBE5903:
	.loc 2 790 0
	lwz 3,1056(31)
	cmpwi 7,3,0
	beq- 7,.L215
	.loc 2 791 0
	lis 4,gameLocal+2311032@ha
	lwz 5,4(31)
	la 4,gameLocal+2311032@l(4)
	li 6,0
	addi 7,31,76
	li 9,-1
	bl _ZN11idClipModel4LinkER6idClipP8idEntityiRK6idVec3RK6idMat3i
.L215:
	.loc 2 793 0
	lwz 9,0(31)
	mr 3,31
	lwz 0,88(9)
	mtctr 0
	bctrl
.LBE5924:
	.loc 2 794 0
	lwz 0,268(1)
	lwz 30,216(1)
	mtlr 0
	lwz 31,220(1)
.LVL580:
	lfd 27,224(1)
	lfd 28,232(1)
	lfd 29,240(1)
	lfd 30,248(1)
	lfd 31,256(1)
	addi 1,1,264
	.cfi_remember_state
.LCFI61:
	.cfi_def_cfa_offset 0
	.cfi_restore 63
	.cfi_restore 62
	.cfi_restore 61
	.cfi_restore 60
	.cfi_restore 59
	.cfi_restore 31
	.cfi_restore 30
	blr
.LVL581:
.L224:
.LCFI62:
	.cfi_restore_state
.LBB5925:
.LBB5905:
.LBB5884:
	.loc 4 123 0
	lfs 29,276(31)
	lfs 30,280(31)
	lfs 31,284(31)
	b .L195
.LVL582:
.L226:
.LBE5884:
.LBE5905:
	.loc 2 782 0
	addi 30,1,152
	lwz 3,4(31)
	addi 4,1,32
	mr 5,30
	bl _ZNK8idEntity17GetMasterPositionER6idVec3R6idMat3
	.loc 2 783 0
	addi 3,1,116
	addi 4,31,148
	bl _ZNK8idAngles6ToMat3Ev
.LVL583:
.LBB5906:
.LBB5885:
	addi 9,1,116
.LVL584:
	.loc 11 465 0
	addi 11,1,80
.LVL585:
.L211:
.LBE5885:
.LBE5906:
	.loc 2 771 0
	lfs 0,4(9)
.LBB5907:
.LBB5908:
	.loc 11 471 0
	lfs 13,20(30)
	lfs 11,12(30)
	lfs 12,16(30)
	fmuls 11,0,11
	lfs 8,0(30)
	fmuls 12,0,12
	lfs 9,4(30)
	fmuls 0,0,13
	lfs 10,8(30)
.LBE5908:
.LBE5907:
	.loc 2 771 0
	lfs 13,0(9)
.LBB5911:
.LBB5909:
	.loc 11 471 0
	fmadds 11,13,8,11
	lfs 8,24(30)
	fmadds 12,13,9,12
	lfs 9,28(30)
	fmadds 13,13,10,0
.LBE5909:
.LBE5911:
	.loc 2 771 0
	lfs 0,8(9)
.LBB5912:
.LBB5910:
	.loc 11 471 0
	lfs 10,32(30)
	.loc 11 474 0
	addi 9,9,12
.LVL586:
	.loc 11 467 0
	cmpw 7,9,30
	.loc 11 471 0
	fmadds 11,0,8,11
	fmadds 12,0,9,12
	fmadds 0,0,10,13
	stfs 11,0(11)
.LVL587:
	stfs 12,4(11)
.LVL588:
	stfs 0,8(11)
.LVL589:
	addi 11,11,12
.LVL590:
	.loc 11 467 0
	bne+ 7,.L211
.LVL591:
.LBE5910:
.LBE5912:
.LBB5913:
.LBB5914:
	.loc 11 333 0
	addi 8,31,100
	li 10,0
.LVL592:
.L212:
.LBB5915:
.LBB5916:
	.loc 5 424 0
	addi 11,1,80
.LBE5916:
.LBE5915:
	.loc 11 333 0
	cmpwi 7,10,24
.LBB5919:
.LBB5917:
	.loc 5 424 0
	lwzux 0,11,10
	mr 9,8
	stwux 0,9,10
.LBE5917:
.LBE5919:
	.loc 11 333 0
	addi 10,10,12
.LBB5920:
.LBB5918:
	.loc 5 425 0
	lwz 7,4(11)
	.loc 5 426 0
	lwz 0,8(11)
	.loc 5 425 0
	stw 7,4(9)
	.loc 5 426 0
	stw 0,8(9)
.LBE5918:
.LBE5920:
	.loc 11 333 0
	bne+ 7,.L212
.LBE5914:
.LBE5913:
	.loc 2 784 0
	mr 4,8
	addi 3,1,8
	stw 8,208(1)
	bl _ZNK6idMat38ToAnglesEv
.LVL593:
.LBB5921:
.LBB5922:
	.loc 6 146 0
	lwz 0,8(1)
	stw 0,88(31)
	.loc 6 147 0
	lwz 0,12(1)
	stw 0,92(31)
	.loc 6 148 0
	lwz 0,16(1)
	stw 0,96(31)
	lwz 8,208(1)
	b .L213
.LVL594:
.L225:
.LBE5922:
.LBE5921:
.LBB5923:
.LBB5886:
	.loc 4 136 0
	lis 9,.L204@ha
	slwi 0,0,2
	la 9,.L204@l(9)
	lwzx 0,9,0
	add 9,0,9
	mtctr 9
	bctr
	.section	.rodata
	.align 2
	.align 2
.L204:
	.long .L197-.L204
	.long .L198-.L204
	.long .L199-.L204
	.long .L197-.L204
	.long .L200-.L204
	.long .L197-.L204
	.long .L197-.L204
	.long .L197-.L204
	.long .L201-.L204
	.long .L197-.L204
	.long .L197-.L204
	.long .L197-.L204
	.long .L197-.L204
	.long .L197-.L204
	.long .L197-.L204
	.long .L197-.L204
	.long .L202-.L204
	.long .L197-.L204
	.long .L197-.L204
	.long .L197-.L204
	.long .L197-.L204
	.long .L197-.L204
	.long .L197-.L204
	.long .L197-.L204
	.long .L197-.L204
	.long .L197-.L204
	.long .L197-.L204
	.long .L197-.L204
	.long .L197-.L204
	.long .L197-.L204
	.long .L197-.L204
	.long .L197-.L204
	.long .L203-.L204
	.section	".text"
.L203:
	.loc 4 178 0
	lis 9,.LC0@ha
	lfs 28,232(31)
	lfs 12,.LC0@l(9)
	fcmpu 7,28,12
	bne- 7,.L209
.LVL595:
.L221:
.LBB5865:
.LBB5866:
	.loc 6 146 0
	stfs 29,276(31)
	.loc 6 147 0
	stfs 30,280(31)
	.loc 6 148 0
	stfs 31,284(31)
	b .L195
.LVL596:
.L202:
.LBE5866:
.LBE5865:
	.loc 4 168 0
	lis 9,.LC0@ha
	lfs 28,232(31)
	lfs 12,.LC0@l(9)
	fcmpu 7,28,12
	beq- 7,.L221
	.loc 4 171 0
	fsubs 0,13,0
.LBB5867:
.LBB5868:
	.loc 12 347 0
	lis 9,_ZN6idMath7HALF_PIE@ha
	lfs 1,_ZN6idMath7HALF_PIE@l(9)
.LBE5868:
.LBE5867:
	.loc 4 171 0
	fdivs 27,0,28
.LVL597:
.LBB5870:
.LBB5869:
	.loc 12 347 0
	fmuls 1,27,1
	bl cosf
.LVL598:
.LBE5869:
.LBE5870:
	.loc 4 172 0
	lis 9,.LC4@ha
	lfs 0,.LC4@l(9)
	lis 9,.LC10@ha
	.loc 6 153 0
	lfs 11,248(31)
	.loc 4 172 0
	fsubs 0,0,1
	fmuls 10,28,0
	lfs 0,.LC10@l(9)
	fmuls 10,10,0
.LVL599:
.L220:
	.loc 4 182 0
	lis 9,_ZN6idMath11SQRT_1OVER2E@ha
	.loc 6 153 0
	lfs 12,252(31)
	lfs 13,256(31)
	fmadds 29,27,11,29
	.loc 4 182 0
	lfs 0,_ZN6idMath11SQRT_1OVER2E@l(9)
	.loc 6 153 0
	fmadds 30,27,12,30
	fmadds 31,27,13,31
	lfs 11,260(31)
	.loc 4 182 0
	fmuls 0,10,0
.LVL600:
	.loc 6 153 0
	lfs 12,264(31)
	lfs 13,268(31)
	fmadds 29,0,11,29
.LVL601:
	fmadds 30,0,12,30
.LVL602:
	fmadds 31,0,13,31
.LVL603:
	b .L221
.LVL604:
.L201:
	.loc 4 158 0
	lis 9,.LC0@ha
	lfs 12,232(31)
	lfs 11,.LC0@l(9)
	fcmpu 7,12,11
	beq- 7,.L221
	.loc 4 161 0
	fsubs 0,13,0
	.loc 4 162 0
	lis 9,.LC8@ha
	lfs 13,.LC8@l(9)
.LVL605:
	lis 9,.LC10@ha
	.loc 6 153 0
	lfs 5,248(31)
	.loc 4 161 0
	fdivs 0,0,12
.LVL606:
	.loc 4 162 0
	lfs 4,.LC10@l(9)
	.loc 6 153 0
	lfs 7,252(31)
	lfs 8,256(31)
	lfs 9,260(31)
	lfs 10,264(31)
	lfs 11,268(31)
	.loc 2 771 0
	fneg 6,0
	.loc 4 162 0
	fmuls 13,0,13
	fmuls 12,12,4
	.loc 6 153 0
	fmadds 29,0,5,29
	.loc 4 162 0
	fmadds 13,6,13,0
	b .L223
.LVL607:
.L200:
	.loc 4 148 0
	lis 9,.LC0@ha
	lfs 12,232(31)
	lfs 11,.LC0@l(9)
	fcmpu 7,12,11
	beq- 7,.L221
	.loc 4 151 0
	fsubs 0,13,0
	.loc 4 152 0
	lis 9,.LC8@ha
	lfs 13,.LC8@l(9)
.LVL608:
	lis 9,.LC10@ha
	.loc 6 153 0
	lfs 6,248(31)
	.loc 4 151 0
	fdivs 0,0,12
.LVL609:
	.loc 4 152 0
	lfs 5,.LC10@l(9)
	.loc 6 153 0
	lfs 7,252(31)
	lfs 8,256(31)
	lfs 9,260(31)
	lfs 10,264(31)
	lfs 11,268(31)
	.loc 4 152 0
	fmuls 13,0,13
	fmuls 12,12,5
	.loc 6 153 0
	fmadds 29,0,6,29
	.loc 4 152 0
	fmuls 13,0,13
.L223:
	.loc 4 162 0
	fmuls 13,13,12
	.loc 6 153 0
	fmadds 30,0,7,30
.LVL610:
	fmadds 31,0,8,31
.LVL611:
	fmadds 29,13,9,29
.LVL612:
	fmadds 30,13,10,30
.LVL613:
	fmadds 31,13,11,31
.LVL614:
.LBB5871:
.LBB5872:
	.loc 6 146 0
	stfs 29,276(31)
	.loc 6 147 0
	stfs 30,280(31)
	.loc 6 148 0
	stfs 31,284(31)
	b .L195
.LVL615:
.L199:
.LBE5872:
.LBE5871:
	.loc 4 143 0
	fsubs 0,13,0
	lis 9,.LC10@ha
.LBB5873:
.LBB5874:
	.loc 6 153 0
	lfs 8,248(31)
	lfs 11,260(31)
	lfs 9,252(31)
	lfs 12,264(31)
	fadds 11,8,11
	lfs 13,256(31)
.LVL616:
	lfs 10,268(31)
	fadds 12,9,12
.LBE5874:
.LBE5873:
	.loc 4 143 0
	lfs 7,.LC10@l(9)
.LBB5876:
.LBB5875:
	.loc 6 153 0
	fadds 13,13,10
.LBE5875:
.LBE5876:
	.loc 4 143 0
	fmuls 0,0,7
.LVL617:
.L222:
	.loc 6 153 0
	fmadds 29,0,11,29
	fmadds 30,0,12,30
	fmadds 31,0,13,31
.LVL618:
.LBB5877:
.LBB5878:
	.loc 6 146 0
	stfs 29,276(31)
	.loc 6 147 0
	stfs 30,280(31)
	.loc 6 148 0
	stfs 31,284(31)
	b .L195
.LVL619:
.L198:
.LBE5878:
.LBE5877:
	.loc 4 138 0
	fsubs 0,13,0
	lis 9,.LC10@ha
	lfs 12,.LC10@l(9)
	.loc 6 153 0
	lfs 11,248(31)
	.loc 4 138 0
	fmuls 0,0,12
.LVL620:
	.loc 6 153 0
	lfs 13,256(31)
.LVL621:
	lfs 12,252(31)
	b .L222
.LVL622:
.L209:
	.loc 4 181 0
	fsubs 0,13,0
.LBB5879:
.LBB5880:
	.loc 12 311 0
	lis 9,_ZN6idMath7HALF_PIE@ha
	lfs 1,_ZN6idMath7HALF_PIE@l(9)
.LBE5880:
.LBE5879:
	.loc 4 181 0
	fdivs 27,0,28
.LVL623:
.LBB5882:
.LBB5881:
	.loc 12 311 0
	fmuls 1,27,1
	bl sinf
.LVL624:
.LBE5881:
.LBE5882:
	.loc 4 182 0
	lis 9,.LC10@ha
	fmuls 10,28,1
	lfs 0,.LC10@l(9)
	.loc 6 153 0
	lfs 11,248(31)
	.loc 4 182 0
	fmuls 10,10,0
	b .L220
.LBE5886:
.LBE5923:
.LBE5925:
	.cfi_endproc
.LFE2877:
	.size	_ZN20idPhysics_Parametric7SetAxisERK6idMat3i, .-_ZN20idPhysics_Parametric7SetAxisERK6idMat3i
	.align 2
	.globl _ZNK20idPhysics_Parametric12TestIfAtRestEv
	.type	_ZNK20idPhysics_Parametric12TestIfAtRestEv, @function
_ZNK20idPhysics_Parametric12TestIfAtRestEv:
.LFB2813:
	.loc 2 53 0
	.cfi_startproc
.LVL625:
	mflr 0
	stwu 1,-16(1)
.LCFI63:
	.cfi_def_cfa_offset 16
	.cfi_register 65, 0
	mr 9,3
	stw 0,20(1)
	.loc 2 55 0
	lwz 0,160(3)
	.cfi_offset 65, 4
	rlwinm 11,0,0,26,24
	cmpwi 7,11,1
	beq- 7,.L243
.LVL626:
.L228:
.LBB5926:
.LBB5927:
	.loc 4 58 0
	andi. 11,0,64
.LBE5927:
.LBE5926:
	.loc 2 63 0
	lwz 0,68(9)
.LVL627:
.LBB5932:
.LBB5928:
	.loc 4 58 0
	beq- 0,.L232
.L242:
	.loc 2 64 0
	li 3,0
.LVL628:
.L229:
.LBE5928:
.LBE5932:
	.loc 2 84 0
	lwz 0,20(1)
	addi 1,1,16
	.cfi_remember_state
.LCFI64:
	.cfi_def_cfa_offset 0
	mtlr 0
	blr
.LVL629:
.L232:
.LCFI65:
	.cfi_restore_state
	.loc 2 63 0
	xoris 0,0,0x8000
.LVL630:
	lis 11,.LC2@ha
	stw 0,12(1)
	lis 0,0x4330
	stw 0,8(1)
	lfs 0,.LC2@l(11)
	lfd 1,8(1)
.LBB5933:
.LBB5929:
	.loc 4 58 0
	lfs 13,164(9)
.LBE5929:
.LBE5933:
	.loc 2 63 0
	fsub 1,1,0
.LBB5934:
.LBB5930:
	.loc 4 58 0
	lfs 0,168(9)
	fadds 0,13,0
.LBE5930:
.LBE5934:
	.loc 2 63 0
	frsp 1,1
.LBB5935:
.LBB5931:
	.loc 4 58 0
	fcmpu 7,1,0
	cror 30,29,30
	bne- 7,.L242
.LVL631:
.LBE5931:
.LBE5935:
.LBB5936:
.LBB5937:
	lwz 0,224(9)
	.loc 2 68 0
	li 3,0
	.loc 4 58 0
	andi. 11,0,64
	bne- 0,.L229
	lfs 13,228(9)
	lfs 0,232(9)
	fadds 0,13,0
	fcmpu 7,1,0
	cror 30,29,30
	bne- 7,.L229
.LVL632:
.LBE5937:
.LBE5936:
.LBB5938:
.LBB5939:
	.loc 7 141 0
	lfs 13,288(9)
	lfs 0,292(9)
	lfs 12,296(9)
	fadds 0,13,0
	lfs 13,300(9)
	fadds 0,0,12
	fadds 0,0,13
	fcmpu 7,1,0
	cror 30,29,30
.LBE5939:
.LBE5938:
	.loc 2 71 0
	bne- 7,.L229
.LVL633:
.LBB5940:
.LBB5941:
	.loc 7 141 0
	lfs 13,392(9)
	lfs 0,396(9)
	lfs 12,400(9)
	fadds 0,13,0
	lfs 13,404(9)
	fadds 0,0,12
	fadds 0,0,13
	fcmpu 7,1,0
	cror 30,29,30
.LBE5941:
.LBE5940:
	.loc 2 75 0
	bne- 7,.L229
	.loc 2 79 0
	lwz 11,496(9)
	.loc 2 83 0
	li 3,1
	.loc 2 79 0
	cmpwi 7,11,0
	beq- 7,.L229
	.loc 2 79 0 is_stmt 0 discriminator 1
	lwz 9,0(11)
.LVL634:
	mr 3,11
	lwz 0,32(9)
	mtctr 0
	bctrl
.LVL635:
	b .L229
.LVL636:
.L243:
	.loc 2 55 0 is_stmt 1 discriminator 1
	lwz 11,224(3)
	rlwinm 11,11,0,26,24
	cmpwi 7,11,1
	bne+ 7,.L228
.LVL637:
.LBB5942:
.LBB5943:
	.loc 7 145 0 discriminator 3
	lfs 0,296(3)
.LBE5943:
.LBE5942:
	.loc 2 55 0 discriminator 3
	lis 11,.LC0@ha
.LBB5946:
.LBB5944:
	.loc 7 145 0 discriminator 3
	lfs 13,292(3)
	lfs 12,300(3)
	fadds 13,13,0
.LBE5944:
.LBE5946:
	.loc 2 55 0 discriminator 3
	lfs 0,.LC0@l(11)
.LBB5947:
.LBB5945:
	.loc 7 145 0 discriminator 3
	fadds 13,13,12
.LBE5945:
.LBE5947:
	.loc 2 55 0 discriminator 3
	fcmpu 7,13,0
	bne- 7,.L228
.LVL638:
.LBB5948:
.LBB5949:
	.loc 7 145 0 discriminator 4
	lfs 11,396(3)
	lfs 13,400(3)
	lfs 12,404(3)
	fadds 13,11,13
	fadds 13,13,12
.LBE5949:
.LBE5948:
	.loc 2 55 0 discriminator 4
	fcmpu 7,13,0
	bne- 7,.L228
	.loc 2 55 0 is_stmt 0 discriminator 5
	lwz 11,496(3)
	.loc 2 60 0 is_stmt 1 discriminator 5
	li 3,1
.LVL639:
	.loc 2 55 0 discriminator 5
	cmpwi 7,11,0
	bne+ 7,.L228
	b .L229
	.cfi_endproc
.LFE2813:
	.size	_ZNK20idPhysics_Parametric12TestIfAtRestEv, .-_ZNK20idPhysics_Parametric12TestIfAtRestEv
	.align 2
	.globl _ZN20idPhysics_Parametric4RestEv
	.type	_ZN20idPhysics_Parametric4RestEv, @function
_ZN20idPhysics_Parametric4RestEv:
.LFB2814:
	.loc 2 91 0
	.cfi_startproc
.LVL640:
	mflr 0
	stwu 1,-8(1)
.LCFI66:
	.cfi_def_cfa_offset 8
	.cfi_register 65, 0
	.loc 2 92 0
	lis 9,gameLocal+2426836@ha
	.loc 2 93 0
	li 4,2
	.loc 2 91 0
	stw 0,12(1)
	.loc 2 92 0
	lwz 0,gameLocal+2426836@l(9)
	.cfi_offset 65, 4
	stw 0,72(3)
	.loc 2 93 0
	lwz 3,4(3)
.LVL641:
	bl _ZN8idEntity14BecomeInactiveEi
	.loc 2 94 0
	lwz 0,12(1)
	addi 1,1,8
.LCFI67:
	.cfi_def_cfa_offset 0
	mtlr 0
	blr
	.cfi_endproc
.LFE2814:
	.size	_ZN20idPhysics_Parametric4RestEv, .-_ZN20idPhysics_Parametric4RestEv
	.align 2
	.globl _ZN20idPhysics_ParametricC2Ev
	.type	_ZN20idPhysics_ParametricC2Ev, @function
_ZN20idPhysics_ParametricC2Ev:
.LFB2830:
	.loc 2 101 0
	.cfi_startproc
	.cfi_personality 0,__gxx_personality_v0
	.cfi_lsda 0,.LLSDA2830
.LVL642:
	stwu 1,-104(1)
.LCFI68:
	.cfi_def_cfa_offset 104
	mflr 0
	stw 31,100(1)
	mr 31,3
	.cfi_offset 31, -4
	.cfi_register 65, 0
	stw 14,32(1)
.LBB6263:
.LBB6264:
.LBB6265:
.LBB6266:
	.loc 7 172 0
	addi 14,31,796
	.cfi_offset 14, -72
.LBE6266:
.LBE6265:
.LBE6264:
.LBE6263:
	.loc 2 101 0
	stw 0,108(1)
	stw 17,44(1)
	stw 15,36(1)
	stw 16,40(1)
	stw 18,48(1)
	stw 19,52(1)
	stw 20,56(1)
	stw 21,60(1)
	stw 22,64(1)
	stw 23,68(1)
	stw 24,72(1)
	stw 25,76(1)
	stw 26,80(1)
	stw 27,84(1)
	stw 28,88(1)
	stw 29,92(1)
	stw 30,96(1)
.LEHB3:
.LBB6707:
	.loc 2 101 0
	.cfi_offset 30, -8
	.cfi_offset 29, -12
	.cfi_offset 28, -16
	.cfi_offset 27, -20
	.cfi_offset 26, -24
	.cfi_offset 25, -28
	.cfi_offset 24, -32
	.cfi_offset 23, -36
	.cfi_offset 22, -40
	.cfi_offset 21, -44
	.cfi_offset 20, -48
	.cfi_offset 19, -52
	.cfi_offset 18, -56
	.cfi_offset 16, -64
	.cfi_offset 15, -68
	.cfi_offset 17, -60
	.cfi_offset 65, 4
	bl _ZN14idPhysics_BaseC2Ev
.LEHE3:
.LVL643:
.LBB6327:
.LBB6276:
.LBB6273:
	.loc 7 172 0
	stw 14,8(1)
.LBE6273:
.LBE6276:
.LBB6277:
.LBB6278:
.LBB6279:
.LBB6280:
	.loc 4 89 0
	addi 14,31,936
	stw 14,12(1)
	.loc 4 90 0
	addi 14,31,948
	stw 14,16(1)
	.loc 4 91 0
	addi 14,31,960
.LBE6280:
.LBE6279:
.LBE6278:
.LBE6277:
.LBE6327:
.LBB6328:
.LBB6329:
.LBB6330:
	.loc 4 92 0
	lis 3,.LC3@ha
.LBE6330:
.LBE6329:
.LBE6328:
.LBB6365:
.LBB6303:
.LBB6297:
.LBB6289:
.LBB6283:
	.loc 4 91 0
	stw 14,20(1)
.LBE6283:
.LBE6289:
	.loc 7 172 0
	addi 14,31,900
.LBE6297:
.LBE6303:
.LBE6365:
.LBB6366:
.LBB6338:
.LBB6335:
	.loc 4 92 0
	lwz 11,.LC3@l(3)
.LBE6335:
.LBE6338:
.LBE6366:
.LBB6367:
.LBB6304:
.LBB6298:
	.loc 7 172 0
	stw 14,24(1)
.LBE6298:
.LBE6304:
.LBE6367:
	.loc 2 101 0
	lis 14,_ZTV20idPhysics_Parametric+8@ha
.LBB6368:
.LBB6339:
.LBB6336:
	.loc 4 89 0
	li 0,0
	.loc 4 88 0
	li 9,0
	.loc 4 87 0
	li 10,1
.LBE6336:
.LBE6339:
.LBE6368:
	.loc 2 101 0
	la 14,_ZTV20idPhysics_Parametric+8@l(14)
	stw 14,0(31)
.LVL644:
	.loc 2 103 0
	li 4,1176
.LBB6369:
.LBB6340:
.LBB6337:
	.loc 4 87 0
	stw 10,160(31)
.LBB6331:
.LBB6332:
	.loc 5 424 0
	mr 17,9
.LBE6332:
.LBE6331:
	.loc 4 88 0
	stw 9,168(31)
	stw 9,164(31)
	.loc 4 89 0
	stw 0,172(31)
	stw 0,176(31)
	stw 0,180(31)
	.loc 4 90 0
	stw 0,184(31)
	stw 0,188(31)
	stw 0,192(31)
	.loc 4 91 0
	stw 0,196(31)
	stw 0,200(31)
	stw 0,204(31)
	.loc 4 92 0
	stw 11,208(31)
.LVL645:
.LBB6334:
.LBB6333:
	.loc 5 424 0
	stw 9,212(31)
	.loc 5 425 0
	stw 9,216(31)
	.loc 5 426 0
	stw 9,220(31)
.LVL646:
.LBE6333:
.LBE6334:
.LBE6337:
.LBE6340:
.LBB6341:
.LBB6342:
	.loc 4 87 0
	stw 10,224(31)
	.loc 4 88 0
	stw 9,232(31)
	stw 9,228(31)
	.loc 4 89 0
	stw 0,236(31)
	stw 0,240(31)
	stw 0,244(31)
	.loc 4 90 0
	stw 0,248(31)
	stw 0,252(31)
	stw 0,256(31)
	.loc 4 91 0
	stw 0,260(31)
	stw 0,264(31)
	stw 0,268(31)
	.loc 4 92 0
	stw 11,272(31)
.LVL647:
.LBB6343:
.LBB6344:
	.loc 6 146 0
	stw 9,276(31)
	.loc 6 147 0
	stw 9,280(31)
	.loc 6 148 0
	stw 9,284(31)
.LVL648:
.LBE6344:
.LBE6343:
.LBE6342:
.LBE6341:
.LBB6345:
.LBB6346:
.LBB6347:
.LBB6348:
	.loc 4 87 0
	stw 10,328(31)
	.loc 4 88 0
	stw 9,336(31)
	stw 9,332(31)
	.loc 4 89 0
	stw 0,340(31)
	stw 0,344(31)
	stw 0,348(31)
	.loc 4 90 0
	stw 0,352(31)
	stw 0,356(31)
	stw 0,360(31)
	.loc 4 91 0
	stw 0,364(31)
	stw 0,368(31)
	stw 0,372(31)
	.loc 4 92 0
	stw 11,376(31)
.LVL649:
.LBB6349:
.LBB6350:
	.loc 5 424 0
	stw 9,380(31)
	.loc 5 425 0
	stw 9,384(31)
	.loc 5 426 0
	stw 9,388(31)
.LBE6350:
.LBE6349:
.LBE6348:
.LBE6347:
	.loc 7 171 0
	stw 9,300(31)
	stw 9,296(31)
	stw 9,292(31)
	stw 9,288(31)
	.loc 7 172 0
	stw 0,304(31)
	stw 0,308(31)
	stw 0,312(31)
.LVL650:
.LBB6351:
.LBB6352:
	.loc 5 424 0
	stw 9,316(31)
	.loc 5 425 0
	stw 9,320(31)
	.loc 5 426 0
	stw 9,324(31)
.LVL651:
.LBE6352:
.LBE6351:
.LBE6346:
.LBE6345:
.LBB6353:
.LBB6354:
.LBB6355:
.LBB6356:
	.loc 4 87 0
	stw 10,432(31)
	.loc 4 88 0
	stw 9,440(31)
	stw 9,436(31)
	.loc 4 89 0
	stw 0,444(31)
	stw 0,448(31)
	stw 0,452(31)
	.loc 4 90 0
	stw 0,456(31)
	stw 0,460(31)
	stw 0,464(31)
	.loc 4 91 0
	stw 0,468(31)
	stw 0,472(31)
	stw 0,476(31)
	.loc 4 92 0
	stw 11,480(31)
.LVL652:
.LBB6357:
.LBB6358:
	.loc 6 146 0
	stw 9,484(31)
	.loc 6 147 0
	stw 9,488(31)
	.loc 6 148 0
	stw 9,492(31)
.LBE6358:
.LBE6357:
.LBE6356:
.LBE6355:
	.loc 7 171 0
	stw 9,404(31)
	stw 9,400(31)
	stw 9,396(31)
	stw 9,392(31)
	.loc 7 172 0
	stw 0,408(31)
	stw 0,412(31)
	stw 0,416(31)
.LVL653:
.LBB6359:
.LBB6360:
	.loc 6 146 0
	stw 9,420(31)
	.loc 6 147 0
	stw 9,424(31)
	.loc 6 148 0
	stw 9,428(31)
.LVL654:
.LBE6360:
.LBE6359:
.LBE6354:
.LBE6353:
.LBB6361:
.LBB6362:
.LBB6363:
.LBB6364:
	.loc 4 87 0
	stw 10,524(31)
	.loc 4 88 0
	stw 9,532(31)
	stw 9,528(31)
	.loc 4 89 0
	stw 0,536(31)
	.loc 4 90 0
	stw 0,540(31)
	.loc 4 91 0
	stw 0,544(31)
	.loc 4 92 0
	stw 11,548(31)
	.loc 4 93 0
	stw 9,552(31)
.LBE6364:
.LBE6363:
	.loc 7 171 0
	stw 9,512(31)
	stw 9,508(31)
	stw 9,504(31)
	stw 9,500(31)
	.loc 7 172 0
	stw 0,516(31)
	.loc 7 173 0
	stw 9,520(31)
.LVL655:
.LBE6362:
.LBE6361:
.LBE6369:
.LBB6370:
.LBB6305:
.LBB6306:
	.loc 4 87 0
	stw 10,652(31)
	.loc 4 88 0
	stw 9,660(31)
	stw 9,656(31)
	.loc 4 89 0
	stw 0,664(31)
	stw 0,668(31)
	stw 0,672(31)
	.loc 4 90 0
	stw 0,676(31)
	stw 0,680(31)
	stw 0,684(31)
	.loc 4 91 0
	stw 0,688(31)
	stw 0,692(31)
	stw 0,696(31)
	.loc 4 92 0
	stw 11,700(31)
.LVL656:
.LBB6307:
.LBB6308:
	.loc 5 424 0
	stw 9,704(31)
	.loc 5 425 0
	stw 9,708(31)
	.loc 5 426 0
	stw 9,712(31)
.LVL657:
.LBE6308:
.LBE6307:
.LBE6306:
.LBE6305:
.LBB6309:
.LBB6310:
	.loc 4 87 0
	stw 10,716(31)
	.loc 4 88 0
	stw 9,724(31)
	stw 9,720(31)
	.loc 4 89 0
	stw 0,728(31)
	stw 0,732(31)
	stw 0,736(31)
	.loc 4 90 0
	stw 0,740(31)
	stw 0,744(31)
	stw 0,748(31)
	.loc 4 91 0
	stw 0,752(31)
	stw 0,756(31)
	stw 0,760(31)
	.loc 4 92 0
	stw 11,764(31)
.LVL658:
.LBB6311:
.LBB6312:
	.loc 6 146 0
	stw 9,768(31)
	.loc 6 147 0
	stw 9,772(31)
.LBE6312:
.LBE6311:
.LBE6310:
.LBE6309:
.LBB6316:
.LBB6274:
	.loc 7 172 0
	lwz 3,8(1)
.LBE6274:
.LBE6316:
.LBB6317:
.LBB6299:
.LBB6290:
.LBB6284:
	.loc 4 89 0
	lwz 8,12(1)
.LBE6284:
.LBE6290:
.LBE6299:
.LBE6317:
.LBB6318:
.LBB6315:
.LBB6314:
.LBB6313:
	.loc 6 148 0
	stw 9,776(31)
.LVL659:
.LBE6313:
.LBE6314:
.LBE6315:
.LBE6318:
.LBB6319:
.LBB6275:
.LBB6267:
.LBB6268:
	.loc 4 87 0
	stw 10,820(31)
	.loc 4 88 0
	stw 9,828(31)
	stw 9,824(31)
	.loc 4 89 0
	stw 0,832(31)
	stw 0,836(31)
	stw 0,840(31)
	.loc 4 90 0
	stw 0,844(31)
	stw 0,848(31)
	stw 0,852(31)
	.loc 4 91 0
	stw 0,856(31)
	stw 0,860(31)
	stw 0,864(31)
	.loc 4 92 0
	stw 11,868(31)
.LVL660:
.LBB6269:
.LBB6270:
	.loc 5 424 0
	stw 9,872(31)
	.loc 5 425 0
	stw 9,876(31)
	.loc 5 426 0
	stw 9,880(31)
.LBE6270:
.LBE6269:
.LBE6268:
.LBE6267:
	.loc 7 171 0
	stw 9,792(31)
	stw 9,788(31)
	stw 9,784(31)
	stw 9,780(31)
	.loc 7 172 0
	stw 0,796(31)
	stw 0,4(3)
	stw 0,8(3)
.LVL661:
.LBB6271:
.LBB6272:
	.loc 5 424 0
	stw 9,808(31)
	.loc 5 425 0
	stw 9,812(31)
	.loc 5 426 0
	stw 9,816(31)
.LVL662:
.LBE6272:
.LBE6271:
.LBE6275:
.LBE6319:
.LBB6320:
.LBB6300:
.LBB6291:
.LBB6285:
	.loc 4 87 0
	stw 10,924(31)
	.loc 4 88 0
	stw 9,932(31)
	stw 9,928(31)
	.loc 4 89 0
	stw 0,936(31)
	stw 0,4(8)
	stw 0,8(8)
	.loc 4 91 0
	lwz 3,20(1)
	.loc 4 90 0
	lwz 14,16(1)
.LBE6285:
.LBE6291:
	.loc 7 172 0
	lwz 8,24(1)
.LBB6292:
.LBB6286:
	.loc 4 90 0
	stw 0,948(31)
	stw 0,4(14)
	stw 0,8(14)
	.loc 4 91 0
	stw 0,960(31)
	stw 0,4(3)
	stw 0,8(3)
.LBE6286:
.LBE6292:
.LBE6300:
.LBE6320:
.LBE6370:
	.loc 2 103 0
	lis 3,.LC11@ha
.LBB6371:
.LBB6321:
.LBB6301:
.LBB6293:
.LBB6287:
	.loc 4 92 0
	stw 11,972(31)
.LVL663:
.LBE6287:
.LBE6293:
.LBE6301:
.LBE6321:
.LBE6371:
	.loc 2 103 0
	la 3,.LC11@l(3)
.LBB6372:
.LBB6322:
.LBB6302:
.LBB6294:
.LBB6288:
.LBB6281:
.LBB6282:
	.loc 6 146 0
	stw 9,976(31)
	.loc 6 147 0
	stw 9,980(31)
	.loc 6 148 0
	stw 9,984(31)
.LBE6282:
.LBE6281:
.LBE6288:
.LBE6294:
	.loc 7 171 0
	stw 9,896(31)
	stw 9,892(31)
	stw 9,888(31)
	stw 9,884(31)
	.loc 7 172 0
	stw 0,900(31)
	stw 0,4(8)
	stw 0,8(8)
.LVL664:
.LBB6295:
.LBB6296:
	.loc 6 146 0
	stw 9,912(31)
	.loc 6 147 0
	stw 9,916(31)
	.loc 6 148 0
	stw 9,920(31)
.LVL665:
.LBE6296:
.LBE6295:
.LBE6302:
.LBE6322:
.LBB6323:
.LBB6324:
.LBB6325:
.LBB6326:
	.loc 4 87 0
	stw 10,1016(31)
	.loc 4 88 0
	stw 9,1024(31)
	stw 9,1020(31)
	.loc 4 89 0
	stw 0,1028(31)
	.loc 4 90 0
	stw 0,1032(31)
	.loc 4 91 0
	stw 0,1036(31)
	.loc 4 92 0
	stw 11,1040(31)
	.loc 4 93 0
	stw 9,1044(31)
.LBE6326:
.LBE6325:
	.loc 7 171 0
	stw 9,1004(31)
	stw 9,1000(31)
	stw 9,996(31)
	stw 9,992(31)
	.loc 7 172 0
	stw 0,1008(31)
	.loc 7 173 0
	stw 9,1012(31)
.LEHB4:
.LBE6324:
.LBE6323:
.LBE6372:
	.loc 2 103 0
	crxor 6,6,6
	bl _Z15Sys_DebugPrintfPKcz
.LEHE4:
	.loc 2 107 0
	lis 9,gameLocal+2426836@ha
	lis 8,mat3_identity@ha
	lwz 9,gameLocal+2426836@l(9)
.LBB6373:
.LBB6374:
.LBB6375:
	.loc 11 333 0
	addi 5,31,100
.LBE6375:
.LBE6374:
.LBE6373:
.LBB6386:
.LBB6387:
	.loc 5 416 0
	stw 17,84(31)
.LBE6387:
.LBE6386:
.LBB6389:
.LBB6384:
.LBB6382:
	.loc 11 333 0
	li 10,0
.LBE6382:
.LBE6384:
.LBE6389:
	.loc 2 107 0
	stw 9,68(31)
	.loc 2 108 0
	li 9,-1
	stw 9,72(31)
	.loc 2 109 0
	li 9,0
	stb 9,556(31)
.LVL666:
	la 8,mat3_identity@l(8)
.LBB6390:
.LBB6388:
	.loc 5 416 0
	stw 17,80(31)
	stw 17,76(31)
.LVL667:
.LBE6388:
.LBE6390:
.LBB6391:
.LBB6392:
	.loc 6 127 0
	stw 17,96(31)
	stw 17,92(31)
	stw 17,88(31)
.LVL668:
.L246:
.LBE6392:
.LBE6391:
.LBB6393:
.LBB6385:
.LBB6383:
.LBB6376:
.LBB6377:
	.loc 5 424 0
	mr 11,8
	mr 9,5
	lwzux 0,11,10
.LBE6377:
.LBE6376:
	.loc 11 333 0
	cmpwi 7,10,24
.LBB6380:
.LBB6378:
	.loc 5 424 0
	stwux 0,9,10
.LBE6378:
.LBE6380:
	.loc 11 333 0
	addi 10,10,12
.LBB6381:
.LBB6379:
	.loc 5 425 0
	lwz 0,4(11)
	stw 0,4(9)
	.loc 5 426 0
	lwz 0,8(11)
	stw 0,8(9)
.LBE6379:
.LBE6381:
	.loc 11 333 0
	bne+ 7,.L246
.LVL669:
.LBE6383:
.LBE6385:
.LBE6393:
.LBB6394:
.LBB6395:
.LBB6396:
.LBB6397:
	.loc 5 424 0
	lis 8,vec3_origin@ha
.LBE6397:
.LBE6396:
.LBE6395:
.LBE6394:
.LBB6418:
.LBB6419:
.LBB6420:
.LBB6421:
	.loc 6 146 0
	lis 11,ang_zero@ha
.LBE6421:
.LBE6420:
.LBE6419:
.LBE6418:
.LBB6458:
.LBB6412:
.LBB6402:
.LBB6398:
	.loc 5 424 0
	la 10,vec3_origin@l(8)
.LBE6398:
.LBE6402:
.LBE6412:
.LBE6458:
.LBB6459:
.LBB6448:
.LBB6429:
.LBB6422:
	.loc 6 146 0
	la 9,ang_zero@l(11)
.LBE6422:
.LBE6429:
.LBE6448:
.LBE6459:
.LBB6460:
.LBB6413:
	.loc 4 109 0
	lis 14,.LC3@ha
.LBB6403:
.LBB6399:
	.loc 5 424 0
	lwz 6,vec3_origin@l(8)
	.loc 5 425 0
	lwz 7,4(10)
.LBE6399:
.LBE6403:
	.loc 4 103 0
	li 3,1
.LBB6404:
.LBB6400:
	.loc 5 426 0
	lwz 8,8(10)
.LBE6400:
.LBE6404:
.LBE6413:
.LBE6460:
.LBB6461:
.LBB6462:
	.loc 5 416 0
	li 0,0
.LBE6462:
.LBE6461:
.LBB6464:
.LBB6449:
.LBB6430:
.LBB6423:
	.loc 6 146 0
	lwz 10,ang_zero@l(11)
.LBE6423:
.LBE6430:
.LBE6449:
.LBE6464:
.LBB6465:
.LBB6466:
.LBB6467:
.LBB6468:
.LBB6469:
.LBB6470:
	.loc 4 103 0
	li 28,4
.LBE6470:
.LBE6469:
.LBE6468:
.LBE6467:
.LBE6466:
.LBE6465:
.LBB6480:
.LBB6450:
.LBB6431:
.LBB6424:
	.loc 6 147 0
	lwz 11,4(9)
.LBE6424:
.LBE6431:
.LBE6450:
.LBE6480:
.LBB6481:
.LBB6414:
	.loc 4 109 0
	lwz 4,.LC3@l(14)
.LBE6414:
.LBE6481:
.LBB6482:
.LBB6451:
.LBB6432:
.LBB6425:
	.loc 6 148 0
	lwz 9,8(9)
.LBE6425:
.LBE6432:
.LBE6451:
.LBE6482:
.LBB6483:
.LBB6415:
	.loc 4 103 0
	stw 3,160(31)
.LBE6415:
.LBE6483:
.LBB6484:
.LBB6452:
	stw 3,224(31)
.LBE6452:
.LBE6484:
.LBB6485:
.LBB6475:
	.loc 7 186 0
	lis 3,.LC4@ha
.LBE6475:
.LBE6485:
.LBB6486:
.LBB6416:
.LBB6405:
.LBB6401:
	.loc 5 424 0
	stw 6,172(31)
	.loc 5 425 0
	stw 7,176(31)
	.loc 5 426 0
	stw 8,180(31)
.LBE6401:
.LBE6405:
.LBB6406:
.LBB6407:
	.loc 5 424 0
	stw 6,184(31)
	.loc 5 425 0
	stw 7,188(31)
	.loc 5 426 0
	stw 8,192(31)
.LBE6407:
.LBE6406:
.LBB6408:
.LBB6409:
	.loc 5 424 0
	stw 6,196(31)
	.loc 5 425 0
	stw 7,200(31)
	.loc 5 426 0
	stw 8,204(31)
.LBE6409:
.LBE6408:
.LBB6410:
.LBB6411:
	.loc 5 424 0
	stw 6,212(31)
	.loc 5 425 0
	stw 7,216(31)
	.loc 5 426 0
	stw 8,220(31)
.LBE6411:
.LBE6410:
.LBE6416:
.LBE6486:
.LBB6487:
.LBB6453:
.LBB6433:
.LBB6426:
	.loc 6 146 0
	stw 10,236(31)
.LBE6426:
.LBE6433:
.LBE6453:
.LBE6487:
.LBB6488:
.LBB6463:
	.loc 5 416 0
	stw 0,144(31)
	stw 0,140(31)
	stw 0,136(31)
.LVL670:
.LBE6463:
.LBE6488:
.LBB6489:
.LBB6490:
	.loc 6 127 0
	stw 0,156(31)
	stw 0,152(31)
	stw 0,148(31)
.LVL671:
.LBE6490:
.LBE6489:
.LBB6491:
.LBB6417:
	.loc 4 104 0
	stw 0,164(31)
	.loc 4 105 0
	stw 0,168(31)
.LVL672:
	.loc 4 109 0
	stw 4,208(31)
.LVL673:
.LBE6417:
.LBE6491:
.LBB6492:
.LBB6454:
	.loc 4 104 0
	stw 0,228(31)
	.loc 4 105 0
	stw 0,232(31)
.LVL674:
.LBB6434:
.LBB6427:
	.loc 6 147 0
	stw 11,240(31)
.LBE6427:
.LBE6434:
.LBE6454:
.LBE6492:
.LBB6493:
.LBB6476:
	.loc 7 186 0
	lwz 3,.LC4@l(3)
.LBE6476:
.LBE6493:
.LBB6494:
.LBB6455:
.LBB6435:
.LBB6428:
	.loc 6 148 0
	stw 9,244(31)
.LVL675:
.LBE6428:
.LBE6435:
.LBB6436:
.LBB6437:
	stw 9,256(31)
.LVL676:
.LBE6437:
.LBE6436:
.LBB6439:
.LBB6440:
	stw 9,268(31)
.LBE6440:
.LBE6439:
.LBB6442:
.LBB6443:
	stw 9,284(31)
.LBE6443:
.LBE6442:
.LBE6455:
.LBE6494:
.LBB6495:
.LBB6496:
.LBB6497:
.LBB6498:
	stw 9,416(31)
.LBE6498:
.LBE6497:
.LBB6500:
.LBB6501:
	stw 9,428(31)
.LBE6501:
.LBE6500:
.LBE6496:
.LBE6495:
	.loc 2 119 0
	li 9,0
.LBB6507:
.LBB6456:
.LBB6445:
.LBB6438:
	.loc 6 146 0
	stw 10,248(31)
	.loc 6 147 0
	stw 11,252(31)
.LBE6438:
.LBE6445:
.LBB6446:
.LBB6441:
	.loc 6 146 0
	stw 10,260(31)
	.loc 6 147 0
	stw 11,264(31)
.LBE6441:
.LBE6446:
.LBB6447:
.LBB6444:
	.loc 6 146 0
	stw 10,276(31)
	.loc 6 147 0
	stw 11,280(31)
.LBE6444:
.LBE6447:
.LBE6456:
.LBE6507:
.LBB6508:
.LBB6509:
.LBB6510:
.LBB6511:
	.loc 5 424 0
	stw 6,304(31)
	.loc 5 425 0
	stw 7,308(31)
	.loc 5 426 0
	stw 8,312(31)
.LBE6511:
.LBE6510:
.LBB6512:
.LBB6513:
	.loc 5 424 0
	stw 6,316(31)
	.loc 5 425 0
	stw 7,320(31)
	.loc 5 426 0
	stw 8,324(31)
.LBE6513:
.LBE6512:
.LBE6509:
.LBE6508:
.LBB6515:
.LBB6505:
.LBB6503:
.LBB6499:
	.loc 6 146 0
	stw 10,408(31)
	.loc 6 147 0
	stw 11,412(31)
.LBE6499:
.LBE6503:
.LBB6504:
.LBB6502:
	.loc 6 146 0
	stw 10,420(31)
	.loc 6 147 0
	stw 11,424(31)
.LBE6502:
.LBE6504:
.LBE6505:
.LBE6515:
	.loc 2 119 0
	stw 9,496(31)
.LBB6516:
.LBB6457:
	.loc 4 109 0
	stw 4,272(31)
.LVL677:
.LBE6457:
.LBE6516:
.LBB6517:
.LBB6514:
	.loc 7 185 0
	stw 0,288(31)
	.loc 7 186 0
	stw 0,292(31)
	.loc 7 187 0
	stw 0,300(31)
.LVL678:
.LBE6514:
.LBE6517:
.LBB6518:
.LBB6506:
	.loc 7 185 0
	stw 0,392(31)
	.loc 7 186 0
	stw 0,396(31)
	.loc 7 187 0
	stw 0,404(31)
.LVL679:
.LBE6506:
.LBE6518:
.LBB6519:
.LBB6477:
	.loc 7 185 0
	stw 0,500(31)
	.loc 7 186 0
	stw 3,504(31)
	.loc 7 187 0
	stw 3,512(31)
.LBE6477:
.LBE6519:
.LBB6520:
.LBB6521:
	.loc 10 45 0
	lwz 29,68(31)
	lwz 30,72(31)
.LBB6522:
.LBB6523:
	.loc 5 424 0
	lwz 6,76(31)
	.loc 5 425 0
	lwz 7,80(31)
.LBE6523:
.LBE6522:
.LBB6527:
.LBB6528:
	.loc 6 147 0
	lwz 11,92(31)
	.loc 6 148 0
	lwz 9,96(31)
.LBE6528:
.LBE6527:
.LBB6532:
.LBB6524:
	.loc 5 426 0
	lwz 8,84(31)
.LBE6524:
.LBE6532:
.LBB6533:
.LBB6529:
	.loc 6 146 0
	lwz 10,88(31)
.LBE6529:
.LBE6533:
.LBE6521:
.LBE6520:
.LBB6703:
.LBB6478:
	.loc 7 188 0
	stw 0,516(31)
	.loc 7 189 0
	stw 0,520(31)
.LVL680:
.LBE6478:
.LBB6479:
.LBB6474:
.LBB6473:
	.loc 7 199 0
	stw 0,508(31)
.LVL681:
.LBB6472:
.LBB6471:
	.loc 4 103 0
	stw 28,524(31)
	.loc 4 104 0
	stw 0,528(31)
	.loc 4 105 0
	stw 3,532(31)
	.loc 4 106 0
	stw 0,536(31)
	.loc 4 107 0
	stw 0,540(31)
	.loc 4 108 0
	stw 0,544(31)
	.loc 4 109 0
	stw 4,548(31)
	.loc 4 110 0
	stw 0,552(31)
.LVL682:
.LBE6471:
.LBE6472:
.LBE6473:
.LBE6474:
.LBE6479:
.LBE6703:
.LBB6704:
.LBB6700:
	.loc 10 45 0
	stw 29,560(31)
	stw 30,564(31)
.LVL683:
.LBB6534:
.LBB6525:
	.loc 5 424 0
	stw 6,568(31)
	.loc 5 425 0
	stw 7,572(31)
.LBE6525:
.LBE6534:
.LBB6535:
.LBB6530:
	.loc 6 147 0
	stw 11,584(31)
	.loc 6 148 0
	stw 9,588(31)
.LBE6530:
.LBE6535:
.LBB6536:
.LBB6526:
	.loc 5 426 0
	stw 8,576(31)
.LVL684:
.LBE6526:
.LBE6536:
.LBB6537:
.LBB6538:
	.loc 11 333 0
	addi 8,31,592
.LBE6538:
.LBE6537:
.LBB6546:
.LBB6531:
	.loc 6 146 0
	stw 10,580(31)
.LBE6531:
.LBE6546:
.LBB6547:
.LBB6545:
	.loc 11 333 0
	li 10,0
.L247:
.LBB6539:
.LBB6540:
	.loc 5 424 0
	mr 11,5
	mr 9,8
	lwzux 0,11,10
.LBE6540:
.LBE6539:
	.loc 11 333 0
	cmpwi 7,10,24
.LBB6543:
.LBB6541:
	.loc 5 424 0
	stwux 0,9,10
.LBE6541:
.LBE6543:
	.loc 11 333 0
	addi 10,10,12
.LBB6544:
.LBB6542:
	.loc 5 425 0
	lwz 0,4(11)
	stw 0,4(9)
	.loc 5 426 0
	lwz 0,8(11)
	stw 0,8(9)
.LBE6542:
.LBE6544:
	.loc 11 333 0
	bne+ 7,.L247
.LVL685:
.LBE6545:
.LBE6547:
.LBB6548:
.LBB6549:
	.loc 5 424 0
	lwz 24,136(31)
	.loc 5 425 0
	lwz 25,140(31)
	.loc 5 426 0
	lwz 26,144(31)
.LBE6549:
.LBE6548:
.LBB6551:
.LBB6552:
	.loc 6 146 0
	lwz 27,148(31)
	.loc 6 147 0
	lwz 28,152(31)
	.loc 6 148 0
	lwz 29,156(31)
.LBE6552:
.LBE6551:
.LBB6554:
.LBB6555:
	.loc 4 51 0
	lwz 30,160(31)
	lwz 3,164(31)
	lwz 4,168(31)
.LBB6556:
.LBB6557:
	.loc 5 424 0
	lwz 5,172(31)
.LVL686:
	.loc 5 425 0
	lwz 6,176(31)
	.loc 5 426 0
	lwz 7,180(31)
.LBE6557:
.LBE6556:
.LBB6559:
.LBB6560:
	.loc 5 424 0
	lwz 8,184(31)
	.loc 5 425 0
	lwz 10,188(31)
	.loc 5 426 0
	lwz 11,192(31)
.LBE6560:
.LBE6559:
.LBB6562:
.LBB6563:
	.loc 5 424 0
	lwz 9,196(31)
	.loc 5 425 0
	lwz 0,200(31)
.LBE6563:
.LBE6562:
.LBE6555:
.LBE6554:
.LBB6576:
.LBB6550:
	.loc 5 424 0
	stw 24,628(31)
	.loc 5 425 0
	stw 25,632(31)
	.loc 5 426 0
	stw 26,636(31)
.LVL687:
.LBE6550:
.LBE6576:
.LBB6577:
.LBB6553:
	.loc 6 146 0
	stw 27,640(31)
	.loc 6 147 0
	stw 28,644(31)
	.loc 6 148 0
	stw 29,648(31)
.LVL688:
.LBE6553:
.LBE6577:
.LBB6578:
.LBB6574:
	.loc 4 51 0
	stw 30,652(31)
	stw 3,656(31)
	stw 4,660(31)
.LVL689:
.LBB6566:
.LBB6558:
	.loc 5 424 0
	stw 5,664(31)
	.loc 5 425 0
	stw 6,668(31)
	.loc 5 426 0
	stw 7,672(31)
.LVL690:
.LBE6558:
.LBE6566:
.LBB6567:
.LBB6561:
	.loc 5 424 0
	stw 8,676(31)
	.loc 5 425 0
	stw 10,680(31)
	.loc 5 426 0
	stw 11,684(31)
.LVL691:
.LBE6561:
.LBE6567:
.LBB6568:
.LBB6564:
	.loc 5 424 0
	stw 9,688(31)
	.loc 5 425 0
	stw 0,692(31)
	.loc 5 426 0
	lwz 24,204(31)
.LBE6564:
.LBE6568:
	.loc 4 51 0
	lwz 25,208(31)
.LBB6569:
.LBB6570:
	.loc 5 424 0
	lwz 26,212(31)
	.loc 5 425 0
	lwz 27,216(31)
	.loc 5 426 0
	lwz 28,220(31)
.LBE6570:
.LBE6569:
.LBE6574:
.LBE6578:
.LBB6579:
.LBB6580:
	.loc 4 51 0
	lwz 29,224(31)
	lwz 30,228(31)
	lwz 3,232(31)
.LBB6581:
.LBB6582:
	.loc 6 146 0
	lwz 4,236(31)
	.loc 6 147 0
	lwz 5,240(31)
	.loc 6 148 0
	lwz 6,244(31)
.LBE6582:
.LBE6581:
.LBB6584:
.LBB6585:
	.loc 6 146 0
	lwz 7,248(31)
	.loc 6 147 0
	lwz 8,252(31)
	.loc 6 148 0
	lwz 10,256(31)
.LBE6585:
.LBE6584:
.LBB6587:
.LBB6588:
	.loc 6 146 0
	lwz 11,260(31)
	.loc 6 147 0
	lwz 9,264(31)
	.loc 6 148 0
	lwz 0,268(31)
.LBE6588:
.LBE6587:
.LBE6580:
.LBE6579:
.LBB6599:
.LBB6575:
.LBB6572:
.LBB6565:
	.loc 5 426 0
	stw 24,696(31)
.LBE6565:
.LBE6572:
	.loc 4 51 0
	stw 25,700(31)
.LVL692:
.LBB6573:
.LBB6571:
	.loc 5 424 0
	stw 26,704(31)
	.loc 5 425 0
	stw 27,708(31)
	.loc 5 426 0
	stw 28,712(31)
.LVL693:
.LBE6571:
.LBE6573:
.LBE6575:
.LBE6599:
.LBB6600:
.LBB6597:
	.loc 4 51 0
	stw 29,716(31)
	stw 30,720(31)
	stw 3,724(31)
.LVL694:
.LBB6590:
.LBB6583:
	.loc 6 146 0
	stw 4,728(31)
	.loc 6 147 0
	stw 5,732(31)
	.loc 6 148 0
	stw 6,736(31)
.LVL695:
.LBE6583:
.LBE6590:
.LBB6591:
.LBB6586:
	.loc 6 146 0
	stw 7,740(31)
	.loc 6 147 0
	stw 8,744(31)
	.loc 6 148 0
	stw 10,748(31)
.LVL696:
.LBE6586:
.LBE6591:
.LBB6592:
.LBB6589:
	.loc 6 146 0
	stw 11,752(31)
	.loc 6 147 0
	stw 9,756(31)
	.loc 6 148 0
	stw 0,760(31)
.LBE6589:
.LBE6592:
	.loc 4 51 0
	lwz 24,272(31)
.LBB6593:
.LBB6594:
	.loc 6 146 0
	lwz 25,276(31)
	.loc 6 147 0
	lwz 26,280(31)
	.loc 6 148 0
	lwz 27,284(31)
.LBE6594:
.LBE6593:
.LBE6597:
.LBE6600:
.LBB6601:
.LBB6602:
	.loc 7 130 0
	lwz 28,288(31)
	lwz 29,292(31)
	lwz 30,296(31)
	lwz 3,300(31)
.LBB6603:
.LBB6604:
	.loc 5 424 0
	lwz 4,304(31)
	.loc 5 425 0
	lwz 5,308(31)
	.loc 5 426 0
	lwz 6,312(31)
.LBE6604:
.LBE6603:
.LBB6606:
.LBB6607:
	.loc 5 424 0
	lwz 7,316(31)
	.loc 5 425 0
	lwz 8,320(31)
	.loc 5 426 0
	lwz 10,324(31)
.LBE6607:
.LBE6606:
.LBB6609:
.LBB6610:
	.loc 4 51 0
	lwz 11,328(31)
	lwz 9,332(31)
	lwz 0,336(31)
.LBE6610:
.LBE6609:
.LBE6602:
.LBE6601:
.LBB6635:
.LBB6598:
	stw 24,764(31)
.LVL697:
.LBB6596:
.LBB6595:
	.loc 6 146 0
	stw 25,768(31)
	.loc 6 147 0
	stw 26,772(31)
	.loc 6 148 0
	stw 27,776(31)
.LVL698:
.LBE6595:
.LBE6596:
.LBE6598:
.LBE6635:
.LBB6636:
.LBB6633:
	.loc 7 130 0
	stw 28,780(31)
	stw 29,784(31)
	stw 30,788(31)
	stw 3,792(31)
.LVL699:
.LBB6629:
.LBB6605:
	.loc 5 424 0
	stw 4,796(31)
	.loc 5 425 0
	stw 5,800(31)
	.loc 5 426 0
	stw 6,804(31)
.LVL700:
.LBE6605:
.LBE6629:
.LBB6630:
.LBB6608:
	.loc 5 424 0
	stw 7,808(31)
	.loc 5 425 0
	stw 8,812(31)
	.loc 5 426 0
	stw 10,816(31)
.LVL701:
.LBE6608:
.LBE6630:
.LBB6631:
.LBB6627:
	.loc 4 51 0
	stw 11,820(31)
	stw 9,824(31)
	stw 0,828(31)
.LVL702:
.LBB6611:
.LBB6612:
	.loc 5 424 0
	lwz 24,340(31)
	.loc 5 425 0
	lwz 25,344(31)
	.loc 5 426 0
	lwz 26,348(31)
.LBE6612:
.LBE6611:
.LBB6614:
.LBB6615:
	.loc 5 424 0
	lwz 27,352(31)
	.loc 5 425 0
	lwz 28,356(31)
	.loc 5 426 0
	lwz 29,360(31)
.LBE6615:
.LBE6614:
.LBB6617:
.LBB6618:
	.loc 5 424 0
	lwz 30,364(31)
	.loc 5 425 0
	lwz 3,368(31)
	.loc 5 426 0
	lwz 4,372(31)
.LBE6618:
.LBE6617:
	.loc 4 51 0
	lwz 5,376(31)
.LBB6620:
.LBB6621:
	.loc 5 424 0
	lwz 6,380(31)
	.loc 5 425 0
	lwz 7,384(31)
	.loc 5 426 0
	lwz 8,388(31)
.LBE6621:
.LBE6620:
.LBE6627:
.LBE6631:
.LBE6633:
.LBE6636:
.LBB6637:
.LBB6638:
	.loc 7 130 0
	lwz 10,392(31)
	lwz 11,396(31)
	lwz 9,400(31)
	lwz 0,404(31)
.LBE6638:
.LBE6637:
.LBB6693:
.LBB6634:
.LBB6632:
.LBB6628:
.LBB6623:
.LBB6613:
	.loc 5 424 0
	stw 24,832(31)
	.loc 5 425 0
	stw 25,836(31)
	.loc 5 426 0
	stw 26,840(31)
.LVL703:
.LBE6613:
.LBE6623:
.LBB6624:
.LBB6616:
	.loc 5 424 0
	stw 27,844(31)
	.loc 5 425 0
	stw 28,848(31)
	.loc 5 426 0
	stw 29,852(31)
.LVL704:
.LBE6616:
.LBE6624:
.LBB6625:
.LBB6619:
	.loc 5 424 0
	stw 30,856(31)
	.loc 5 425 0
	stw 3,860(31)
	.loc 5 426 0
	stw 4,864(31)
.LBE6619:
.LBE6625:
	.loc 4 51 0
	stw 5,868(31)
.LVL705:
.LBB6626:
.LBB6622:
	.loc 5 424 0
	stw 6,872(31)
	.loc 5 425 0
	stw 7,876(31)
	.loc 5 426 0
	stw 8,880(31)
.LVL706:
.LBE6622:
.LBE6626:
.LBE6628:
.LBE6632:
.LBE6634:
.LBE6693:
.LBB6694:
.LBB6687:
	.loc 7 130 0
	stw 10,884(31)
	stw 11,888(31)
	stw 9,892(31)
	stw 0,896(31)
.LVL707:
.LBB6639:
.LBB6640:
.LBB6641:
.LBB6642:
	.loc 6 147 0
	lwz 6,448(31)
.LBE6642:
.LBE6641:
.LBE6640:
.LBE6639:
.LBB6672:
.LBB6673:
	.loc 6 146 0
	lwz 24,408(31)
	.loc 6 147 0
	lwz 25,412(31)
	.loc 6 148 0
	lwz 26,416(31)
.LBE6673:
.LBE6672:
.LBB6675:
.LBB6676:
	.loc 6 146 0
	lwz 27,420(31)
	.loc 6 147 0
	lwz 28,424(31)
	.loc 6 148 0
	lwz 29,428(31)
.LBE6676:
.LBE6675:
.LBB6678:
.LBB6665:
	.loc 4 51 0
	lwz 30,432(31)
	lwz 3,436(31)
	lwz 4,440(31)
.LBB6647:
.LBB6643:
	.loc 6 146 0
	lwz 5,444(31)
	.loc 6 148 0
	lwz 7,452(31)
.LBE6643:
.LBE6647:
.LBB6648:
.LBB6649:
	.loc 6 146 0
	lwz 8,456(31)
	.loc 6 147 0
	lwz 10,460(31)
	.loc 6 148 0
	lwz 11,464(31)
.LBE6649:
.LBE6648:
.LBB6651:
.LBB6652:
	.loc 6 146 0
	lwz 9,468(31)
	.loc 6 147 0
	lwz 0,472(31)
.LBE6652:
.LBE6651:
.LBB6655:
.LBB6644:
	stw 6,940(31)
.LBE6644:
.LBE6655:
.LBE6665:
.LBE6678:
.LBB6679:
.LBB6674:
	.loc 6 146 0
	stw 24,900(31)
	.loc 6 147 0
	stw 25,904(31)
	.loc 6 148 0
	stw 26,908(31)
.LVL708:
.LBE6674:
.LBE6679:
.LBB6680:
.LBB6677:
	.loc 6 146 0
	stw 27,912(31)
	.loc 6 147 0
	stw 28,916(31)
	.loc 6 148 0
	stw 29,920(31)
.LVL709:
.LBE6677:
.LBE6680:
.LBB6681:
.LBB6666:
	.loc 4 51 0
	stw 30,924(31)
.LBE6666:
.LBE6681:
.LBE6687:
.LBE6694:
.LBE6700:
.LBE6704:
	.loc 2 125 0
	li 30,0
.LBB6705:
.LBB6701:
.LBB6695:
.LBB6688:
.LBB6682:
.LBB6667:
	.loc 4 51 0
	stw 3,928(31)
.LBE6667:
.LBE6682:
.LBE6688:
.LBE6695:
	.loc 10 45 0
	addi 3,31,992
.LBB6696:
.LBB6689:
.LBB6683:
.LBB6668:
	.loc 4 51 0
	stw 4,932(31)
.LVL710:
.LBE6668:
.LBE6683:
.LBE6689:
.LBE6696:
	.loc 10 45 0
	addi 4,31,500
.LBB6697:
.LBB6690:
.LBB6684:
.LBB6669:
.LBB6656:
.LBB6645:
	.loc 6 146 0
	stw 5,936(31)
.LBE6645:
.LBE6656:
.LBE6669:
.LBE6684:
.LBE6690:
.LBE6697:
	.loc 10 45 0
	li 5,56
.LBB6698:
.LBB6691:
.LBB6685:
.LBB6670:
.LBB6657:
.LBB6646:
	.loc 6 148 0
	stw 7,944(31)
.LVL711:
.LBE6646:
.LBE6657:
.LBB6658:
.LBB6650:
	.loc 6 146 0
	stw 8,948(31)
	.loc 6 147 0
	stw 10,952(31)
	.loc 6 148 0
	stw 11,956(31)
.LVL712:
.LBE6650:
.LBE6658:
.LBB6659:
.LBB6653:
	.loc 6 146 0
	stw 9,960(31)
	.loc 6 147 0
	stw 0,964(31)
	.loc 6 148 0
	lwz 7,476(31)
.LBE6653:
.LBE6659:
	.loc 4 51 0
	lwz 8,480(31)
.LBB6660:
.LBB6661:
	.loc 6 146 0
	lwz 10,484(31)
	.loc 6 147 0
	lwz 11,488(31)
	.loc 6 148 0
	lwz 9,492(31)
.LBE6661:
.LBE6660:
.LBE6670:
.LBE6685:
.LBE6691:
.LBE6698:
	.loc 10 45 0
	lwz 0,496(31)
.LBB6699:
.LBB6692:
.LBB6686:
.LBB6671:
.LBB6663:
.LBB6654:
	.loc 6 148 0
	stw 7,968(31)
.LBE6654:
.LBE6663:
	.loc 4 51 0
	stw 8,972(31)
.LVL713:
.LBB6664:
.LBB6662:
	.loc 6 146 0
	stw 10,976(31)
	.loc 6 147 0
	stw 11,980(31)
	.loc 6 148 0
	stw 9,984(31)
.LBE6662:
.LBE6664:
.LBE6671:
.LBE6686:
.LBE6692:
.LBE6699:
	.loc 10 45 0
	stw 0,988(31)
	bl memcpy
	lbz 0,556(31)
.LBE6701:
.LBE6705:
	.loc 2 125 0
	stw 30,1060(31)
	.loc 2 128 0
	addi 3,31,1064
.LBB6706:
.LBB6702:
	.loc 10 45 0
	stb 0,1048(31)
.LBE6702:
.LBE6706:
	.loc 2 124 0
	li 0,0
	stb 0,1052(31)
	.loc 2 128 0
	li 4,0
	.loc 2 126 0
	stw 30,1056(31)
	.loc 2 128 0
	li 5,108
	.loc 2 127 0
	stb 30,1172(31)
	.loc 2 128 0
	bl memset
	.loc 2 130 0
	stb 30,1173(31)
	.loc 2 131 0
	stb 30,1174(31)
.LBE6707:
	.loc 2 132 0
	lwz 0,108(1)
	lwz 14,32(1)
	mtlr 0
	lwz 15,36(1)
	lwz 16,40(1)
	lwz 17,44(1)
	lwz 18,48(1)
	lwz 19,52(1)
	lwz 20,56(1)
	lwz 21,60(1)
	lwz 22,64(1)
	lwz 23,68(1)
	lwz 24,72(1)
	lwz 25,76(1)
	lwz 26,80(1)
	lwz 27,84(1)
	lwz 28,88(1)
	lwz 29,92(1)
	lwz 30,96(1)
	lwz 31,100(1)
.LVL714:
	addi 1,1,104
	.cfi_remember_state
.LCFI69:
	.cfi_def_cfa_offset 0
	.cfi_restore 31
	.cfi_restore 30
	.cfi_restore 29
	.cfi_restore 28
	.cfi_restore 27
	.cfi_restore 26
	.cfi_restore 25
	.cfi_restore 24
	.cfi_restore 23
	.cfi_restore 22
	.cfi_restore 21
	.cfi_restore 20
	.cfi_restore 19
	.cfi_restore 18
	.cfi_restore 17
	.cfi_restore 16
	.cfi_restore 15
	.cfi_restore 14
	blr
.LVL715:
.L249:
.LCFI70:
	.cfi_restore_state
	mr 30,3
.LBB6708:
	.loc 2 101 0
	mr 3,31
	bl _ZN14idPhysics_BaseD2Ev
	mr 3,30
.LEHB5:
	bl _Unwind_Resume
.LEHE5:
.LBE6708:
	.cfi_endproc
.LFE2830:
	.section	.gcc_except_table
.LLSDA2830:
	.byte	0xff
	.byte	0xff
	.byte	0x1
	.uleb128 .LLSDACSE2830-.LLSDACSB2830
.LLSDACSB2830:
	.uleb128 .LEHB3-.LFB2830
	.uleb128 .LEHE3-.LEHB3
	.uleb128 0
	.uleb128 0
	.uleb128 .LEHB4-.LFB2830
	.uleb128 .LEHE4-.LEHB4
	.uleb128 .L249-.LFB2830
	.uleb128 0
	.uleb128 .LEHB5-.LFB2830
	.uleb128 .LEHE5-.LEHB5
	.uleb128 0
	.uleb128 0
.LLSDACSE2830:
	.section	".text"
	.size	_ZN20idPhysics_ParametricC2Ev, .-_ZN20idPhysics_ParametricC2Ev
	.align 2
	.globl _ZN20idPhysics_Parametric14CreateInstanceEv
	.type	_ZN20idPhysics_Parametric14CreateInstanceEv, @function
_ZN20idPhysics_Parametric14CreateInstanceEv:
.LFB2810:
	.loc 2 34 0
	.cfi_startproc
	.cfi_personality 0,__gxx_personality_v0
	.cfi_lsda 0,.LLSDA2810
	mflr 0
	stwu 1,-24(1)
.LCFI71:
	.cfi_def_cfa_offset 24
	.cfi_register 65, 0
.LBB6709:
	li 3,1176
.LBE6709:
	stw 30,16(1)
	stw 0,28(1)
	stw 31,20(1)
.LEHB6:
.LBB6710:
	.loc 2 34 0
	.cfi_offset 31, -4
	.cfi_offset 65, 4
	.cfi_offset 30, -8
	bl _ZN7idClassnwEj
.LEHE6:
	mr 31,3
.LEHB7:
	bl _ZN20idPhysics_ParametricC1Ev
.LEHE7:
.LVL716:
	.loc 2 34 0 is_stmt 0 discriminator 2
	mr 3,31
.LEHB8:
	bl _ZN7idClass23FindUninitializedMemoryEv
.LEHE8:
.LVL717:
.L257:
.LBE6710:
	.loc 2 34 0
	lwz 0,28(1)
	mr 3,31
	lwz 30,16(1)
	mtlr 0
	lwz 31,20(1)
	addi 1,1,24
	.cfi_remember_state
.LCFI72:
	.cfi_def_cfa_offset 0
	.cfi_restore 31
	.cfi_restore 30
	blr
.L258:
.L254:
.LCFI73:
	.cfi_restore_state
.LBB6711:
	cmpwi 7,4,1
	beq- 7,.L256
.LEHB9:
	bl _Unwind_Resume
.LEHE9:
.L259:
	mr 30,3
	mr 3,31
	stw 4,8(1)
	bl _ZN7idClassdlEPv
	mr 3,30
	lwz 4,8(1)
	b .L254
.L256:
.LBE6711:
.LBB6712:
	bl __cxa_begin_catch
	li 31,0
	bl __cxa_end_catch
	b .L257
.LBE6712:
	.cfi_endproc
.LFE2810:
	.section	.gcc_except_table
	.align 2
.LLSDA2810:
	.byte	0xff
	.byte	0
	.uleb128 .LLSDATT2810-.LLSDATTD2810
.LLSDATTD2810:
	.byte	0x1
	.uleb128 .LLSDACSE2810-.LLSDACSB2810
.LLSDACSB2810:
	.uleb128 .LEHB6-.LFB2810
	.uleb128 .LEHE6-.LEHB6
	.uleb128 .L258-.LFB2810
	.uleb128 0x1
	.uleb128 .LEHB7-.LFB2810
	.uleb128 .LEHE7-.LEHB7
	.uleb128 .L259-.LFB2810
	.uleb128 0x3
	.uleb128 .LEHB8-.LFB2810
	.uleb128 .LEHE8-.LEHB8
	.uleb128 .L258-.LFB2810
	.uleb128 0x1
	.uleb128 .LEHB9-.LFB2810
	.uleb128 .LEHE9-.LEHB9
	.uleb128 0
	.uleb128 0
.LLSDACSE2810:
	.byte	0x1
	.byte	0
	.byte	0
	.byte	0x7d
	.align 2
	.long	_ZTI12idAllocError
.LLSDATT2810:
	.section	".text"
	.size	_ZN20idPhysics_Parametric14CreateInstanceEv, .-_ZN20idPhysics_Parametric14CreateInstanceEv
	.align 2
	.globl _Z31idPhysics_Parametric_SavePStateP10idSaveGameRK18parametricPState_s
	.type	_Z31idPhysics_Parametric_SavePStateP10idSaveGameRK18parametricPState_s, @function
_Z31idPhysics_Parametric_SavePStateP10idSaveGameRK18parametricPState_s:
.LFB2840:
	.loc 2 155 0 is_stmt 1
	.cfi_startproc
.LVL718:
	mflr 0
	stwu 1,-16(1)
.LCFI74:
	.cfi_def_cfa_offset 16
	.cfi_register 65, 0
	stw 30,8(1)
	mr 30,3
	.cfi_offset 30, -8
	stw 0,20(1)
	stw 31,12(1)
	.loc 2 155 0
	mr 31,4
	.cfi_offset 31, -4
	.cfi_offset 65, 4
	.loc 2 156 0
	lwz 4,0(4)
.LVL719:
	bl _ZN10idSaveGame8WriteIntEi
.LVL720:
	.loc 2 157 0
	lwz 4,4(31)
	mr 3,30
	bl _ZN10idSaveGame8WriteIntEi
	.loc 2 158 0
	lbz 4,488(31)
	mr 3,30
	bl _ZN10idSaveGame9WriteBoolEb
	.loc 2 159 0
	mr 3,30
	addi 4,31,8
	bl _ZN10idSaveGame9WriteVec3ERK6idVec3
	.loc 2 160 0
	mr 3,30
	addi 4,31,20
	bl _ZN10idSaveGame11WriteAnglesERK8idAngles
	.loc 2 161 0
	mr 3,30
	addi 4,31,32
	bl _ZN10idSaveGame9WriteMat3ERK6idMat3
	.loc 2 162 0
	mr 3,30
	addi 4,31,68
	bl _ZN10idSaveGame9WriteVec3ERK6idVec3
	.loc 2 163 0
	mr 3,30
	addi 4,31,80
	bl _ZN10idSaveGame11WriteAnglesERK8idAngles
	.loc 2 165 0
	lwz 4,92(31)
	mr 3,30
	bl _ZN10idSaveGame8WriteIntEi
	.loc 2 166 0
	lfs 1,96(31)
	mr 3,30
	bl _ZN10idSaveGame10WriteFloatEf
	.loc 2 167 0
	lfs 1,100(31)
	mr 3,30
	bl _ZN10idSaveGame10WriteFloatEf
.LVL721:
	.loc 2 168 0
	mr 3,30
	addi 4,31,104
	bl _ZN10idSaveGame9WriteVec3ERK6idVec3
.LVL722:
	.loc 2 169 0
	mr 3,30
	addi 4,31,116
	bl _ZN10idSaveGame9WriteVec3ERK6idVec3
.LVL723:
	.loc 2 170 0
	mr 3,30
	addi 4,31,128
	bl _ZN10idSaveGame9WriteVec3ERK6idVec3
	.loc 2 172 0
	lwz 4,156(31)
	mr 3,30
	bl _ZN10idSaveGame8WriteIntEi
	.loc 2 173 0
	lfs 1,160(31)
	mr 3,30
	bl _ZN10idSaveGame10WriteFloatEf
	.loc 2 174 0
	lfs 1,164(31)
	mr 3,30
	bl _ZN10idSaveGame10WriteFloatEf
.LVL724:
	.loc 2 175 0
	mr 3,30
	addi 4,31,168
	bl _ZN10idSaveGame11WriteAnglesERK8idAngles
.LVL725:
	.loc 2 176 0
	mr 3,30
	addi 4,31,180
	bl _ZN10idSaveGame11WriteAnglesERK8idAngles
.LVL726:
	.loc 2 177 0
	addi 4,31,192
	mr 3,30
	bl _ZN10idSaveGame11WriteAnglesERK8idAngles
	.loc 2 179 0
	lfs 1,220(31)
	mr 3,30
	bl _ZN10idSaveGame10WriteFloatEf
	.loc 2 180 0
	lfs 1,224(31)
	mr 3,30
	bl _ZN10idSaveGame10WriteFloatEf
	.loc 2 181 0
	lfs 1,232(31)
	mr 3,30
	bl _ZN10idSaveGame10WriteFloatEf
.LVL727:
.LBB6713:
.LBB6714:
	.loc 7 145 0
	lfs 13,228(31)
	lfs 1,224(31)
.LBE6714:
.LBE6713:
	.loc 2 182 0
	mr 3,30
.LBB6716:
.LBB6715:
	.loc 7 145 0
	lfs 0,232(31)
	fadds 1,1,13
.LBE6715:
.LBE6716:
	.loc 2 182 0
	fadds 1,1,0
	bl _ZN10idSaveGame10WriteFloatEf
.LVL728:
	.loc 2 183 0
	mr 3,30
	addi 4,31,236
	bl _ZN10idSaveGame9WriteVec3ERK6idVec3
.LVL729:
	.loc 2 184 0
	addi 4,31,248
	mr 3,30
	bl _ZN10idSaveGame9WriteVec3ERK6idVec3
	.loc 2 186 0
	lfs 1,324(31)
	mr 3,30
	bl _ZN10idSaveGame10WriteFloatEf
	.loc 2 187 0
	lfs 1,328(31)
	mr 3,30
	bl _ZN10idSaveGame10WriteFloatEf
	.loc 2 188 0
	lfs 1,336(31)
	mr 3,30
	bl _ZN10idSaveGame10WriteFloatEf
.LVL730:
.LBB6717:
.LBB6718:
	.loc 7 145 0
	lfs 13,332(31)
	lfs 1,328(31)
.LBE6718:
.LBE6717:
	.loc 2 189 0
	mr 3,30
.LBB6720:
.LBB6719:
	.loc 7 145 0
	lfs 0,336(31)
	fadds 1,1,13
.LBE6719:
.LBE6720:
	.loc 2 189 0
	fadds 1,1,0
	bl _ZN10idSaveGame10WriteFloatEf
.LVL731:
	.loc 2 190 0
	mr 3,30
	addi 4,31,340
	bl _ZN10idSaveGame11WriteAnglesERK8idAngles
.LVL732:
	.loc 2 191 0
	addi 4,31,352
	mr 3,30
	bl _ZN10idSaveGame11WriteAnglesERK8idAngles
	.loc 2 195 0
	lfs 1,432(31)
	mr 3,30
	bl _ZN10idSaveGame10WriteFloatEf
	.loc 2 196 0
	lfs 1,436(31)
	mr 3,30
	bl _ZN10idSaveGame10WriteFloatEf
.LVL733:
.LBB6721:
.LBB6722:
	.loc 7 145 0
	lfs 13,440(31)
	lfs 1,436(31)
.LBE6722:
.LBE6721:
	.loc 2 197 0
	mr 3,30
.LBB6724:
.LBB6723:
	.loc 7 145 0
	lfs 0,444(31)
	fadds 1,1,13
.LBE6723:
.LBE6724:
	.loc 2 197 0
	fadds 1,1,0
	bl _ZN10idSaveGame10WriteFloatEf
	.loc 2 198 0
	lfs 1,444(31)
	mr 3,30
	bl _ZN10idSaveGame10WriteFloatEf
.LVL734:
	.loc 2 199 0
	lfs 1,448(31)
	mr 3,30
	bl _ZN10idSaveGame10WriteFloatEf
.LVL735:
	.loc 2 200 0
	lfs 1,452(31)
	mr 3,30
	bl _ZN10idSaveGame10WriteFloatEf
	.loc 2 201 0
	lwz 0,20(1)
	lwz 30,8(1)
.LVL736:
	mtlr 0
	lwz 31,12(1)
.LVL737:
	addi 1,1,16
.LCFI75:
	.cfi_def_cfa_offset 0
	.cfi_restore 31
	.cfi_restore 30
	blr
	.cfi_endproc
.LFE2840:
	.size	_Z31idPhysics_Parametric_SavePStateP10idSaveGameRK18parametricPState_s, .-_Z31idPhysics_Parametric_SavePStateP10idSaveGameRK18parametricPState_s
	.align 2
	.globl _ZNK20idPhysics_Parametric4SaveEP10idSaveGame
	.type	_ZNK20idPhysics_Parametric4SaveEP10idSaveGame, @function
_ZNK20idPhysics_Parametric4SaveEP10idSaveGame:
.LFB2842:
	.loc 2 276 0
	.cfi_startproc
.LVL738:
	stwu 1,-16(1)
.LCFI76:
	.cfi_def_cfa_offset 16
	mflr 0
	stw 31,12(1)
	mr 31,3
	.cfi_offset 31, -4
	.cfi_register 65, 0
	stw 30,8(1)
	.loc 2 278 0
	mr 3,4
.LVL739:
	.loc 2 276 0
	mr 30,4
	.cfi_offset 30, -8
	.loc 2 278 0
	addi 4,31,68
.LVL740:
	.loc 2 276 0
	stw 0,20(1)
	.loc 2 278 0
	.cfi_offset 65, 4
	bl _Z31idPhysics_Parametric_SavePStateP10idSaveGameRK18parametricPState_s
.LVL741:
	.loc 2 279 0
	mr 3,30
	addi 4,31,560
	bl _Z31idPhysics_Parametric_SavePStateP10idSaveGameRK18parametricPState_s
	.loc 2 281 0
	lbz 4,1052(31)
	mr 3,30
	bl _ZN10idSaveGame9WriteBoolEb
	.loc 2 282 0
	lwz 4,1056(31)
	mr 3,30
	bl _ZN10idSaveGame14WriteClipModelEPK11idClipModel
	.loc 2 283 0
	lwz 4,1060(31)
	mr 3,30
	bl _ZN10idSaveGame8WriteIntEi
	.loc 2 285 0
	mr 3,30
	addi 4,31,1064
	bl _ZN10idSaveGame10WriteTraceERK7trace_s
	.loc 2 286 0
	lbz 4,1172(31)
	mr 3,30
	bl _ZN10idSaveGame9WriteBoolEb
	.loc 2 288 0
	lbz 4,1173(31)
	mr 3,30
	bl _ZN10idSaveGame9WriteBoolEb
	.loc 2 289 0
	lbz 4,1174(31)
	mr 3,30
	bl _ZN10idSaveGame9WriteBoolEb
	.loc 2 290 0
	lwz 0,20(1)
	lwz 30,8(1)
.LVL742:
	mtlr 0
	lwz 31,12(1)
.LVL743:
	addi 1,1,16
.LCFI77:
	.cfi_def_cfa_offset 0
	.cfi_restore 31
	.cfi_restore 30
	blr
	.cfi_endproc
.LFE2842:
	.size	_ZNK20idPhysics_Parametric4SaveEP10idSaveGame, .-_ZNK20idPhysics_Parametric4SaveEP10idSaveGame
	.align 2
	.globl _Z34idPhysics_Parametric_RestorePStateP13idRestoreGameR18parametricPState_s
	.type	_Z34idPhysics_Parametric_RestorePStateP13idRestoreGameR18parametricPState_s, @function
_Z34idPhysics_Parametric_RestorePStateP13idRestoreGameR18parametricPState_s:
.LFB2841:
	.loc 2 208 0
	.cfi_startproc
.LVL744:
	stwu 1,-184(1)
.LCFI78:
	.cfi_def_cfa_offset 184
	mflr 0
	stw 30,176(1)
	mr 30,3
	.cfi_offset 30, -8
	.cfi_register 65, 0
	stw 31,180(1)
	mr 31,4
	.cfi_offset 31, -4
	stw 0,188(1)
	stw 28,168(1)
	stw 29,172(1)
.LBB6889:
	.loc 2 214 0
	.cfi_offset 29, -12
	.cfi_offset 28, -16
	.cfi_offset 65, 4
	bl _ZN13idRestoreGame7ReadIntERi
.LVL745:
	.loc 2 215 0
	mr 3,30
	addi 4,31,4
	bl _ZN13idRestoreGame7ReadIntERi
	.loc 2 216 0
	mr 3,30
	addi 4,31,488
.LBB6890:
.LBB6891:
	.loc 4 109 0
	lis 29,.LC3@ha
.LBE6891:
.LBE6890:
	.loc 2 216 0
	bl _ZN13idRestoreGame8ReadBoolERb
	.loc 2 217 0
	mr 3,30
	addi 4,31,8
	bl _ZN13idRestoreGame8ReadVec3ER6idVec3
	.loc 2 218 0
	mr 3,30
	addi 4,31,20
	bl _ZN13idRestoreGame10ReadAnglesER8idAngles
	.loc 2 219 0
	mr 3,30
	addi 4,31,32
	bl _ZN13idRestoreGame8ReadMat3ER6idMat3
	.loc 2 220 0
	mr 3,30
	addi 4,31,68
	bl _ZN13idRestoreGame8ReadVec3ER6idVec3
	.loc 2 221 0
	mr 3,30
	addi 4,31,80
	bl _ZN13idRestoreGame10ReadAnglesER8idAngles
	.loc 2 223 0
	mr 3,30
	addi 4,1,32
	bl _ZN13idRestoreGame7ReadIntERi
	.loc 2 224 0
	mr 3,30
	addi 4,1,28
	bl _ZN13idRestoreGame9ReadFloatERf
	.loc 2 225 0
	addi 4,1,24
	mr 3,30
	bl _ZN13idRestoreGame9ReadFloatERf
	.loc 2 226 0
	mr 3,30
	addi 4,1,144
	bl _ZN13idRestoreGame8ReadVec3ER6idVec3
	.loc 2 227 0
	mr 3,30
	addi 4,1,132
	bl _ZN13idRestoreGame8ReadVec3ER6idVec3
	.loc 2 228 0
	mr 3,30
	addi 4,1,120
	bl _ZN13idRestoreGame8ReadVec3ER6idVec3
.LVL746:
.LBB6929:
.LBB6926:
	.loc 4 103 0
	lwz 10,32(1)
.LBB6892:
.LBB6893:
	.loc 5 424 0
	lwz 11,144(1)
.LBE6893:
.LBE6892:
.LBE6926:
.LBE6929:
	.loc 2 232 0
	mr 3,30
.LBB6930:
.LBB6927:
	.loc 4 103 0
	stw 10,92(31)
.LBE6927:
.LBE6930:
	.loc 2 232 0
	addi 4,1,32
.LVL747:
.LBB6931:
.LBB6928:
	.loc 4 104 0
	lwz 10,28(1)
.LBB6899:
.LBB6894:
	.loc 5 425 0
	lwz 9,148(1)
.LBE6894:
.LBE6899:
	.loc 4 104 0
	stw 10,96(31)
.LVL748:
	.loc 4 105 0
	lwz 10,24(1)
.LBB6900:
.LBB6895:
	.loc 5 426 0
	lwz 0,152(1)
.LBE6895:
.LBE6900:
	.loc 4 105 0
	stw 10,100(31)
.LBB6901:
.LBB6902:
	.loc 5 424 0
	lwz 10,132(1)
.LBE6902:
.LBE6901:
	.loc 4 109 0
	lwz 28,.LC3@l(29)
.LVL749:
.LBB6906:
.LBB6903:
	.loc 5 424 0
	stw 10,116(31)
	.loc 5 425 0
	lwz 10,136(1)
.LBE6903:
.LBE6906:
.LBB6907:
.LBB6896:
	.loc 5 424 0
	stw 11,104(31)
.LBE6896:
.LBE6907:
.LBB6908:
.LBB6904:
	.loc 5 425 0
	stw 10,120(31)
	.loc 5 426 0
	lwz 10,140(1)
.LBE6904:
.LBE6908:
.LBB6909:
.LBB6897:
	.loc 5 425 0
	stw 9,108(31)
.LBE6897:
.LBE6909:
.LBB6910:
.LBB6905:
	.loc 5 426 0
	stw 10,124(31)
.LBE6905:
.LBE6910:
.LBB6911:
.LBB6912:
	.loc 5 424 0
	lwz 10,120(1)
.LBE6912:
.LBE6911:
.LBB6916:
.LBB6898:
	.loc 5 426 0
	stw 0,112(31)
.LVL750:
.LBE6898:
.LBE6916:
.LBB6917:
.LBB6913:
	.loc 5 424 0
	stw 10,128(31)
	.loc 5 425 0
	lwz 10,124(1)
.LBE6913:
.LBE6917:
.LBB6918:
.LBB6919:
	.loc 5 424 0
	stw 11,144(31)
.LBE6919:
.LBE6918:
.LBB6922:
.LBB6914:
	.loc 5 425 0
	stw 10,132(31)
	.loc 5 426 0
	lwz 10,128(1)
.LBE6914:
.LBE6922:
.LBB6923:
.LBB6920:
	.loc 5 425 0
	stw 9,148(31)
.LBE6920:
.LBE6923:
.LBB6924:
.LBB6915:
	.loc 5 426 0
	stw 10,136(31)
.LBE6915:
.LBE6924:
.LBB6925:
.LBB6921:
	stw 0,152(31)
.LBE6921:
.LBE6925:
	.loc 4 109 0
	stw 28,140(31)
.LVL751:
.LBE6928:
.LBE6931:
	.loc 2 232 0
	bl _ZN13idRestoreGame7ReadIntERi
.LVL752:
	.loc 2 233 0
	mr 3,30
	addi 4,1,28
	bl _ZN13idRestoreGame9ReadFloatERf
	.loc 2 234 0
	mr 3,30
	addi 4,1,24
	bl _ZN13idRestoreGame9ReadFloatERf
	.loc 2 235 0
	mr 3,30
	addi 4,1,84
	bl _ZN13idRestoreGame10ReadAnglesER8idAngles
	.loc 2 236 0
	mr 3,30
	addi 4,1,72
	bl _ZN13idRestoreGame10ReadAnglesER8idAngles
	.loc 2 237 0
	mr 3,30
	addi 4,1,60
	bl _ZN13idRestoreGame10ReadAnglesER8idAngles
.LBB6932:
.LBB6933:
	.loc 4 103 0
	lwz 10,32(1)
.LBB6934:
.LBB6935:
	.loc 6 147 0
	lwz 9,88(1)
.LBE6935:
.LBE6934:
.LBE6933:
.LBE6932:
	.loc 2 241 0
	mr 3,30
.LBB6970:
.LBB6968:
	.loc 4 103 0
	stw 10,156(31)
.LBE6968:
.LBE6970:
	.loc 2 241 0
	addi 4,1,28
.LBB6971:
.LBB6969:
	.loc 4 104 0
	lwz 10,28(1)
.LBB6941:
.LBB6936:
	.loc 6 148 0
	lwz 0,92(1)
.LVL753:
.LBE6936:
.LBE6941:
	.loc 4 104 0
	stw 10,160(31)
	.loc 4 105 0
	lwz 10,24(1)
.LBB6942:
.LBB6937:
	.loc 6 146 0
	lwz 11,84(1)
.LBE6937:
.LBE6942:
	.loc 4 105 0
	stw 10,164(31)
.LVL754:
.LBB6943:
.LBB6944:
	.loc 6 146 0
	lwz 10,72(1)
.LBE6944:
.LBE6943:
.LBB6948:
.LBB6938:
	.loc 6 147 0
	stw 9,172(31)
.LBE6938:
.LBE6948:
.LBB6949:
.LBB6945:
	.loc 6 146 0
	stw 10,180(31)
	.loc 6 147 0
	lwz 10,76(1)
.LBE6945:
.LBE6949:
.LBB6950:
.LBB6939:
	.loc 6 148 0
	stw 0,176(31)
.LVL755:
.LBE6939:
.LBE6950:
.LBB6951:
.LBB6946:
	.loc 6 147 0
	stw 10,184(31)
	.loc 6 148 0
	lwz 10,80(1)
.LBE6946:
.LBE6951:
.LBB6952:
.LBB6953:
	.loc 6 147 0
	stw 9,212(31)
.LBE6953:
.LBE6952:
.LBB6956:
.LBB6947:
	.loc 6 148 0
	stw 10,188(31)
.LVL756:
.LBE6947:
.LBE6956:
.LBB6957:
.LBB6958:
	.loc 6 146 0
	lwz 10,60(1)
.LBE6958:
.LBE6957:
.LBB6962:
.LBB6954:
	.loc 6 148 0
	stw 0,216(31)
.LBE6954:
.LBE6962:
.LBB6963:
.LBB6959:
	.loc 6 146 0
	stw 10,192(31)
	.loc 6 147 0
	lwz 10,64(1)
.LBE6959:
.LBE6963:
.LBB6964:
.LBB6940:
	.loc 6 146 0
	stw 11,168(31)
.LBE6940:
.LBE6964:
.LBB6965:
.LBB6960:
	.loc 6 147 0
	stw 10,196(31)
	.loc 6 148 0
	lwz 10,68(1)
.LBE6960:
.LBE6965:
.LBB6966:
.LBB6955:
	.loc 6 146 0
	stw 11,208(31)
.LBE6955:
.LBE6966:
.LBB6967:
.LBB6961:
	.loc 6 148 0
	stw 10,200(31)
.LBE6961:
.LBE6967:
	.loc 4 109 0
	stw 28,204(31)
.LVL757:
.LBE6969:
.LBE6971:
	.loc 2 241 0
	bl _ZN13idRestoreGame9ReadFloatERf
.LVL758:
	.loc 2 242 0
	mr 3,30
	addi 4,1,20
	bl _ZN13idRestoreGame9ReadFloatERf
	.loc 2 243 0
	mr 3,30
	addi 4,1,16
	bl _ZN13idRestoreGame9ReadFloatERf
	.loc 2 244 0
	mr 3,30
	addi 4,1,24
	bl _ZN13idRestoreGame9ReadFloatERf
	.loc 2 245 0
	mr 3,30
	addi 4,1,108
	bl _ZN13idRestoreGame8ReadVec3ER6idVec3
	.loc 2 246 0
	mr 3,30
	addi 4,1,96
	bl _ZN13idRestoreGame8ReadVec3ER6idVec3
.LBB6972:
.LBB6973:
	.loc 7 191 0
	lis 9,.LC0@ha
	lfs 0,.LC0@l(9)
.LBE6973:
.LBE6972:
	.loc 2 248 0
	lfs 9,24(1)
.LVL759:
	lwz 0,28(1)
.LVL760:
.LBB7047:
.LBB6982:
	.loc 7 191 0
	fcmpu 7,9,0
.LVL761:
.LBE6982:
.LBE7047:
	.loc 2 248 0
	lfs 10,16(1)
.LVL762:
	lfs 0,20(1)
.LVL763:
.LBB7048:
.LBB6983:
	.loc 7 191 0
	cror 30,28,30
.LBB6974:
.LBB6975:
	.loc 5 424 0
	lfs 11,108(1)
	.loc 5 425 0
	lfs 12,112(1)
	.loc 5 426 0
	lfs 13,116(1)
.LBE6975:
.LBE6974:
.LBB6977:
.LBB6978:
	.loc 5 424 0
	lfs 6,96(1)
	.loc 5 425 0
	lfs 7,100(1)
	.loc 5 426 0
	lfs 8,104(1)
.LBE6978:
.LBE6977:
	.loc 7 185 0
	stw 0,220(31)
	.loc 7 186 0
	stfs 0,224(31)
	.loc 7 187 0
	stfs 10,232(31)
.LVL764:
.LBB6980:
.LBB6976:
	.loc 5 424 0
	stfs 11,236(31)
	.loc 5 425 0
	stfs 12,240(31)
	.loc 5 426 0
	stfs 13,244(31)
.LVL765:
.LBE6976:
.LBE6980:
.LBB6981:
.LBB6979:
	.loc 5 424 0
	stfs 6,248(31)
	.loc 5 425 0
	stfs 7,252(31)
	.loc 5 426 0
	stfs 8,256(31)
.LBE6979:
.LBE6981:
	.loc 7 191 0
	beq- 7,.L263
.LVL766:
.LBE6983:
.LBB6984:
.LBB6985:
.LBB6986:
	.loc 7 195 0
	fadds 5,0,10
	fcmpu 7,9,5
	blt- 7,.L264
	fsubs 9,9,0
.L265:
	.loc 7 199 0
	fsubs 9,9,10
	.loc 7 200 0
	lis 9,.LC8@ha
	lfs 4,.LC8@l(9)
	.loc 7 202 0
	lis 9,.LC0@ha
.LBB6987:
.LBB6988:
	.loc 5 431 0
	fsubs 6,6,11
.LBE6988:
.LBE6987:
	.loc 7 200 0
	fmadds 5,5,4,9
	.loc 7 202 0
	lfs 4,.LC0@l(9)
	.loc 7 200 0
	lis 9,.LC9@ha
.LBB6991:
.LBB6989:
	.loc 5 431 0
	fsubs 7,7,12
.LBE6989:
.LBE6991:
	.loc 7 200 0
	lfs 3,.LC9@l(9)
	.loc 7 202 0
	fcmpu 7,0,4
.LBB6992:
.LBB6990:
	.loc 5 431 0
	fsubs 8,8,13
.LBE6990:
.LBE6992:
	.loc 7 199 0
	stfs 9,228(31)
.LVL767:
	.loc 7 200 0
	fdivs 5,3,5
.LVL768:
.LBB6993:
.LBB6994:
	.loc 5 439 0
	fmuls 6,6,5
	fmuls 7,7,5
	fmuls 8,8,5
.LVL769:
.LBE6994:
.LBE6993:
	.loc 7 202 0
	bne- 7,.L281
	.loc 7 204 0
	fcmpu 7,9,4
.LBB6995:
.LBB6996:
	.loc 5 431 0
	fsubs 5,11,11
.LVL770:
.LBE6996:
.LBE6995:
	.loc 7 204 0
	bne- 7,.L282
.LVL771:
.LBB6999:
.LBB7000:
	.loc 5 431 0
	fsubs 9,12,12
.LBE7000:
.LBE6999:
.LBB7002:
.LBB7003:
	.loc 4 103 0
	li 11,8
.LBE7003:
.LBE7002:
.LBB7013:
.LBB7001:
	.loc 5 431 0
	fsubs 0,13,13
.LBE7001:
.LBE7013:
.LBB7014:
.LBB7012:
	.loc 4 109 0
	lwz 9,.LC3@l(29)
	.loc 4 103 0
	stw 11,260(31)
	.loc 4 104 0
	stw 0,264(31)
	.loc 4 105 0
	stfs 10,268(31)
.LVL772:
.LBB7004:
.LBB7005:
	.loc 5 424 0
	stfs 11,272(31)
	.loc 5 425 0
	stfs 12,276(31)
	.loc 5 426 0
	stfs 13,280(31)
.LVL773:
.LBE7005:
.LBE7004:
.LBB7006:
.LBB7007:
	.loc 5 424 0
	stfs 5,284(31)
	.loc 5 425 0
	stfs 9,288(31)
	.loc 5 426 0
	stfs 0,292(31)
.LVL774:
.L278:
.LBE7007:
.LBE7006:
.LBB7008:
.LBB7009:
	.loc 5 424 0
	stfs 6,296(31)
	.loc 5 425 0
	stfs 7,300(31)
	.loc 5 426 0
	stfs 8,304(31)
.LBE7009:
.LBE7008:
	.loc 4 109 0
	stw 9,308(31)
.LVL775:
.LBB7010:
.LBB7011:
	.loc 5 424 0
	stfs 11,312(31)
	.loc 5 425 0
	stfs 12,316(31)
	.loc 5 426 0
	stfs 13,320(31)
.LVL776:
.L263:
.LBE7011:
.LBE7010:
.LBE7012:
.LBE7014:
.LBE6986:
.LBE6985:
.LBE6984:
.LBE7048:
	.loc 2 250 0
	mr 3,30
	addi 4,1,28
.LVL777:
	bl _ZN13idRestoreGame9ReadFloatERf
.LVL778:
	.loc 2 251 0
	mr 3,30
	addi 4,1,20
	bl _ZN13idRestoreGame9ReadFloatERf
	.loc 2 252 0
	mr 3,30
	addi 4,1,16
	bl _ZN13idRestoreGame9ReadFloatERf
	.loc 2 253 0
	mr 3,30
	addi 4,1,24
	bl _ZN13idRestoreGame9ReadFloatERf
	.loc 2 254 0
	mr 3,30
	addi 4,1,48
	bl _ZN13idRestoreGame10ReadAnglesER8idAngles
	.loc 2 255 0
	mr 3,30
	addi 4,1,36
	bl _ZN13idRestoreGame10ReadAnglesER8idAngles
.LBB7049:
.LBB7050:
	.loc 7 191 0
	lis 9,.LC0@ha
	lfs 0,.LC0@l(9)
.LBE7050:
.LBE7049:
	.loc 2 257 0
	lfs 9,24(1)
.LVL779:
	lwz 0,28(1)
.LVL780:
.LBB7127:
.LBB7059:
	.loc 7 191 0
	fcmpu 7,9,0
.LBE7059:
.LBE7127:
	.loc 2 257 0
	lfs 10,16(1)
	lfs 0,20(1)
.LVL781:
.LBB7128:
.LBB7060:
	.loc 7 191 0
	cror 30,28,30
.LBB7051:
.LBB7052:
	.loc 6 146 0
	lfs 11,48(1)
	.loc 6 147 0
	lfs 12,52(1)
	.loc 6 148 0
	lfs 13,56(1)
.LBE7052:
.LBE7051:
.LBB7054:
.LBB7055:
	.loc 6 146 0
	lfs 6,36(1)
	.loc 6 147 0
	lfs 7,40(1)
	.loc 6 148 0
	lfs 8,44(1)
.LBE7055:
.LBE7054:
	.loc 7 185 0
	stw 0,324(31)
	.loc 7 186 0
	stfs 0,328(31)
	.loc 7 187 0
	stfs 10,336(31)
.LVL782:
.LBB7057:
.LBB7053:
	.loc 6 146 0
	stfs 11,340(31)
	.loc 6 147 0
	stfs 12,344(31)
	.loc 6 148 0
	stfs 13,348(31)
.LVL783:
.LBE7053:
.LBE7057:
.LBB7058:
.LBB7056:
	.loc 6 146 0
	stfs 6,352(31)
	.loc 6 147 0
	stfs 7,356(31)
	.loc 6 148 0
	stfs 8,360(31)
.LBE7056:
.LBE7058:
	.loc 7 191 0
	beq- 7,.L268
.LVL784:
.LBE7060:
.LBB7061:
.LBB7062:
.LBB7063:
	.loc 7 195 0
	fadds 5,0,10
	fcmpu 7,9,5
	blt- 7,.L269
	fsubs 9,9,0
.L270:
	.loc 7 199 0
	fsubs 9,9,10
	.loc 7 200 0
	lis 9,.LC8@ha
	lfs 4,.LC8@l(9)
	.loc 7 202 0
	lis 9,.LC0@ha
.LBB7064:
.LBB7065:
	.loc 6 165 0
	fsubs 6,6,11
.LBE7065:
.LBE7064:
	.loc 7 200 0
	fmadds 5,5,4,9
	.loc 7 202 0
	lfs 4,.LC0@l(9)
	.loc 7 200 0
	lis 9,.LC9@ha
.LBB7068:
.LBB7066:
	.loc 6 165 0
	fsubs 7,7,12
.LBE7066:
.LBE7068:
	.loc 7 200 0
	lfs 3,.LC9@l(9)
	.loc 7 202 0
	fcmpu 7,0,4
.LBB7069:
.LBB7067:
	.loc 6 165 0
	fsubs 8,8,13
.LBE7067:
.LBE7069:
	.loc 7 199 0
	stfs 9,332(31)
.LVL785:
	.loc 7 200 0
	fdivs 5,3,5
.LVL786:
.LBB7070:
.LBB7071:
	.loc 6 177 0
	fmuls 6,6,5
	fmuls 7,7,5
	fmuls 8,8,5
.LVL787:
.LBE7071:
.LBE7070:
	.loc 7 202 0
	bne- 7,.L283
	.loc 7 204 0
	fcmpu 7,9,4
.LBB7072:
.LBB7073:
	.loc 6 165 0
	fsubs 5,11,11
.LVL788:
.LBE7073:
.LBE7072:
	.loc 7 204 0
	bne- 7,.L284
.LVL789:
.LBB7076:
.LBB7077:
	.loc 6 165 0
	fsubs 9,12,12
.LBE7077:
.LBE7076:
.LBB7079:
.LBB7080:
	.loc 4 103 0
	li 11,8
.LBE7080:
.LBE7079:
.LBB7090:
.LBB7078:
	.loc 6 165 0
	fsubs 0,13,13
.LBE7078:
.LBE7090:
.LBB7091:
.LBB7089:
	.loc 4 109 0
	lwz 9,.LC3@l(29)
	.loc 4 103 0
	stw 11,364(31)
	.loc 4 104 0
	stw 0,368(31)
	.loc 4 105 0
	stfs 10,372(31)
.LVL790:
.LBB7081:
.LBB7082:
	.loc 6 146 0
	stfs 11,376(31)
	.loc 6 147 0
	stfs 12,380(31)
	.loc 6 148 0
	stfs 13,384(31)
.LVL791:
.LBE7082:
.LBE7081:
.LBB7083:
.LBB7084:
	.loc 6 146 0
	stfs 5,388(31)
	.loc 6 147 0
	stfs 9,392(31)
	.loc 6 148 0
	stfs 0,396(31)
.LVL792:
.L279:
.LBE7084:
.LBE7083:
.LBB7085:
.LBB7086:
	.loc 6 146 0
	stfs 6,400(31)
	.loc 6 147 0
	stfs 7,404(31)
	.loc 6 148 0
	stfs 8,408(31)
.LBE7086:
.LBE7085:
	.loc 4 109 0
	stw 9,412(31)
.LVL793:
.LBB7087:
.LBB7088:
	.loc 6 146 0
	stfs 11,416(31)
	.loc 6 147 0
	stfs 12,420(31)
	.loc 6 148 0
	stfs 13,424(31)
.LVL794:
.L268:
.LBE7088:
.LBE7087:
.LBE7089:
.LBE7091:
.LBE7063:
.LBE7062:
.LBE7061:
.LBE7128:
	.loc 2 261 0
	mr 3,30
	addi 4,1,28
.LVL795:
	bl _ZN13idRestoreGame9ReadFloatERf
.LVL796:
	.loc 2 262 0
	mr 3,30
	addi 4,1,20
	bl _ZN13idRestoreGame9ReadFloatERf
	.loc 2 263 0
	mr 3,30
	addi 4,1,24
	bl _ZN13idRestoreGame9ReadFloatERf
	.loc 2 264 0
	mr 3,30
	addi 4,1,16
	bl _ZN13idRestoreGame9ReadFloatERf
	.loc 2 265 0
	mr 3,30
	addi 4,1,12
	bl _ZN13idRestoreGame9ReadFloatERf
	.loc 2 266 0
	mr 3,30
	addi 4,1,8
	bl _ZN13idRestoreGame9ReadFloatERf
.LBB7129:
.LBB7130:
	.loc 7 191 0
	lis 9,.LC0@ha
	lfs 0,.LC0@l(9)
.LBE7130:
.LBE7129:
	.loc 2 268 0
	lfs 11,24(1)
.LVL797:
	lwz 0,28(1)
.LVL798:
.LBB7150:
.LBB7131:
	.loc 7 191 0
	fcmpu 7,11,0
.LBE7131:
.LBE7150:
	.loc 2 268 0
	lfs 12,16(1)
	lfs 0,20(1)
.LVL799:
.LBB7151:
.LBB7132:
	.loc 7 191 0
	cror 30,28,30
.LVL800:
	.loc 7 188 0
	lfs 13,12(1)
.LVL801:
	.loc 7 189 0
	lfs 10,8(1)
	.loc 7 185 0
	stw 0,432(31)
	.loc 7 186 0
	stfs 0,436(31)
	.loc 7 187 0
	stfs 12,444(31)
	.loc 7 188 0
	stfs 13,448(31)
	.loc 7 189 0
	stfs 10,452(31)
	.loc 7 191 0
	beq- 7,.L262
.LVL802:
.LBE7132:
.LBB7133:
.LBB7134:
.LBB7135:
	.loc 7 195 0
	fadds 9,0,12
	fcmpu 7,11,9
	blt- 7,.L274
	fsubs 11,11,0
	.loc 7 200 0
	lis 9,.LC8@ha
	lfs 8,.LC8@l(9)
	.loc 7 202 0
	lis 9,.LC0@ha
	.loc 7 200 0
	fsubs 10,10,13
	.loc 7 199 0
	fsubs 11,11,12
	.loc 7 200 0
	fmadds 9,9,8,11
	.loc 7 202 0
	lfs 8,.LC0@l(9)
	.loc 7 200 0
	lis 9,.LC9@ha
	.loc 7 199 0
	stfs 11,440(31)
	.loc 7 200 0
	lfs 7,.LC9@l(9)
	.loc 7 202 0
	fcmpu 7,0,8
	.loc 7 200 0
	fdivs 9,7,9
	fmuls 10,10,9
.LVL803:
	.loc 7 202 0
	bne- 7,.L285
.L276:
	.loc 7 204 0
	fcmpu 7,11,8
.LBB7136:
.LBB7137:
	.loc 4 109 0
	lwz 9,.LC3@l(29)
.LBE7137:
.LBE7136:
	.loc 7 205 0
	fsubs 0,13,13
	.loc 7 204 0
	bne- 7,.L286
.LVL804:
.LBB7139:
.LBB7140:
	.loc 4 103 0
	li 11,8
	.loc 4 104 0
	stw 0,460(31)
	.loc 4 103 0
	stw 11,456(31)
	.loc 4 105 0
	stfs 12,464(31)
.LVL805:
.L280:
	.loc 4 106 0
	stfs 13,468(31)
	.loc 4 107 0
	stfs 0,472(31)
	.loc 4 108 0
	stfs 10,476(31)
	.loc 4 109 0
	stw 9,480(31)
	.loc 4 110 0
	stfs 13,484(31)
.LVL806:
.L262:
.LBE7140:
.LBE7139:
.LBE7135:
.LBE7134:
.LBE7133:
.LBE7151:
.LBE6889:
	.loc 2 269 0
	lwz 0,188(1)
	lwz 28,168(1)
	mtlr 0
	lwz 29,172(1)
	lwz 30,176(1)
.LVL807:
	lwz 31,180(1)
.LVL808:
	addi 1,1,184
	.cfi_remember_state
.LCFI79:
	.cfi_def_cfa_offset 0
	.cfi_restore 31
	.cfi_restore 30
	.cfi_restore 29
	.cfi_restore 28
	blr
.LVL809:
.L274:
.LCFI80:
	.cfi_restore_state
.LBB7159:
.LBB7152:
.LBB7148:
.LBB7146:
.LBB7144:
	.loc 7 196 0
	fmuls 0,0,11
	.loc 7 200 0
	lis 9,.LC8@ha
	lfs 8,.LC8@l(9)
	.loc 7 202 0
	lis 9,.LC0@ha
	.loc 7 200 0
	fsubs 10,10,13
	.loc 7 196 0
	fdivs 0,0,9
	.loc 7 197 0
	fsubs 11,11,0
	.loc 7 196 0
	stfs 0,436(31)
	.loc 7 197 0
	fmr 12,11
	stfs 11,444(31)
	fadds 9,0,11
	.loc 7 199 0
	fsubs 11,11,12
	.loc 7 200 0
	fmadds 9,9,8,11
	.loc 7 202 0
	lfs 8,.LC0@l(9)
	.loc 7 200 0
	lis 9,.LC9@ha
	.loc 7 199 0
	stfs 11,440(31)
	.loc 7 200 0
	lfs 7,.LC9@l(9)
	.loc 7 202 0
	fcmpu 7,0,8
	.loc 7 200 0
	fdivs 9,7,9
	fmuls 10,10,9
.LVL810:
	.loc 7 202 0
	beq+ 7,.L276
.L285:
.LVL811:
	.loc 7 203 0
	fsubs 12,13,13
.LBB7141:
.LBB7142:
	.loc 4 109 0
	lwz 9,.LC3@l(29)
	.loc 4 103 0
	li 11,4
	.loc 4 104 0
	stw 0,460(31)
	.loc 4 103 0
	stw 11,456(31)
	.loc 4 105 0
	stfs 0,464(31)
	.loc 4 106 0
	stfs 13,468(31)
	.loc 4 107 0
	stfs 12,472(31)
	.loc 4 108 0
	stfs 10,476(31)
	.loc 4 109 0
	stw 9,480(31)
	.loc 4 110 0
	stfs 13,484(31)
.LBE7142:
.LBE7141:
.LBE7144:
.LBE7146:
.LBE7148:
.LBE7152:
.LBE7159:
	.loc 2 269 0
	lwz 0,188(1)
	lwz 28,168(1)
	mtlr 0
	lwz 29,172(1)
	lwz 30,176(1)
.LVL812:
	lwz 31,180(1)
.LVL813:
	addi 1,1,184
	.cfi_remember_state
	.cfi_restore 28
	.cfi_restore 29
	.cfi_restore 30
	.cfi_restore 31
.LCFI81:
	.cfi_def_cfa_offset 0
	blr
.LVL814:
.L269:
.LCFI82:
	.cfi_restore_state
.LBB7160:
.LBB7153:
.LBB7124:
.LBB7121:
.LBB7118:
	.loc 7 196 0
	fmuls 0,0,9
.LVL815:
	fdivs 0,0,5
	.loc 7 197 0
	fsubs 10,9,0
.LVL816:
	.loc 7 196 0
	stfs 0,328(31)
	.loc 7 197 0
	fadds 5,0,10
	stfs 10,336(31)
	fmr 9,10
.LVL817:
	b .L270
.LVL818:
.L264:
.LBE7118:
.LBE7121:
.LBE7124:
.LBE7153:
.LBB7154:
.LBB7045:
.LBB7043:
.LBB7041:
	.loc 7 196 0
	fmuls 0,0,9
.LVL819:
	fdivs 0,0,5
	.loc 7 197 0
	fsubs 9,9,0
.LVL820:
	.loc 7 196 0
	stfs 0,224(31)
	.loc 7 197 0
	fadds 5,0,9
	stfs 9,232(31)
	fmr 10,9
.LVL821:
	b .L265
.LVL822:
.L281:
.LBB7015:
.LBB7016:
	.loc 5 431 0
	fsubs 5,11,11
.LVL823:
.LBE7016:
.LBE7015:
.LBB7019:
.LBB7020:
	.loc 4 103 0
	li 11,4
.LBE7020:
.LBE7019:
.LBB7027:
.LBB7017:
	.loc 5 431 0
	fsubs 9,12,12
.LBE7017:
.LBE7027:
.LBB7028:
.LBB7025:
	.loc 4 109 0
	lwz 9,.LC3@l(29)
.LBE7025:
.LBE7028:
.LBB7029:
.LBB7018:
	.loc 5 431 0
	fsubs 10,13,13
.LBE7018:
.LBE7029:
.LBB7030:
.LBB7026:
	.loc 4 103 0
	stw 11,260(31)
	.loc 4 104 0
	stw 0,264(31)
	.loc 4 105 0
	stfs 0,268(31)
.LVL824:
.LBB7021:
.LBB7022:
	.loc 5 424 0
	stfs 11,272(31)
	.loc 5 425 0
	stfs 12,276(31)
	.loc 5 426 0
	stfs 13,280(31)
.LVL825:
.LBE7022:
.LBE7021:
.LBB7023:
.LBB7024:
	.loc 5 424 0
	stfs 5,284(31)
	.loc 5 425 0
	stfs 9,288(31)
	.loc 5 426 0
	stfs 10,292(31)
.LVL826:
	b .L278
.LVL827:
.L283:
.LBE7024:
.LBE7023:
.LBE7026:
.LBE7030:
.LBE7041:
.LBE7043:
.LBE7045:
.LBE7154:
.LBB7155:
.LBB7125:
.LBB7122:
.LBB7119:
.LBB7092:
.LBB7093:
	.loc 6 165 0
	fsubs 5,11,11
.LVL828:
.LBE7093:
.LBE7092:
.LBB7096:
.LBB7097:
	.loc 4 103 0
	li 11,4
.LBE7097:
.LBE7096:
.LBB7104:
.LBB7094:
	.loc 6 165 0
	fsubs 9,12,12
.LBE7094:
.LBE7104:
.LBB7105:
.LBB7102:
	.loc 4 109 0
	lwz 9,.LC3@l(29)
.LBE7102:
.LBE7105:
.LBB7106:
.LBB7095:
	.loc 6 165 0
	fsubs 10,13,13
.LBE7095:
.LBE7106:
.LBB7107:
.LBB7103:
	.loc 4 103 0
	stw 11,364(31)
	.loc 4 104 0
	stw 0,368(31)
	.loc 4 105 0
	stfs 0,372(31)
.LVL829:
.LBB7098:
.LBB7099:
	.loc 6 146 0
	stfs 11,376(31)
	.loc 6 147 0
	stfs 12,380(31)
	.loc 6 148 0
	stfs 13,384(31)
.LVL830:
.LBE7099:
.LBE7098:
.LBB7100:
.LBB7101:
	.loc 6 146 0
	stfs 5,388(31)
	.loc 6 147 0
	stfs 9,392(31)
	.loc 6 148 0
	stfs 10,396(31)
.LVL831:
	b .L279
.LVL832:
.L286:
.LBE7101:
.LBE7100:
.LBE7103:
.LBE7107:
.LBE7119:
.LBE7122:
.LBE7125:
.LBE7155:
.LBB7156:
.LBB7149:
.LBB7147:
.LBB7145:
.LBB7143:
.LBB7138:
	.loc 4 103 0
	li 11,2
	.loc 4 104 0
	stw 0,460(31)
	.loc 4 103 0
	stw 11,456(31)
	.loc 4 105 0
	stfs 11,464(31)
	b .L280
.LVL833:
.L282:
.LBE7138:
.LBE7143:
.LBE7145:
.LBE7147:
.LBE7149:
.LBE7156:
.LBB7157:
.LBB7046:
.LBB7044:
.LBB7042:
.LBB7031:
.LBB6997:
	.loc 5 431 0
	fsubs 10,12,12
.LBE6997:
.LBE7031:
.LBB7032:
.LBB7033:
	.loc 4 103 0
	li 11,2
.LBE7033:
.LBE7032:
.LBB7039:
.LBB6998:
	.loc 5 431 0
	fsubs 0,13,13
.LBE6998:
.LBE7039:
.LBB7040:
.LBB7038:
	.loc 4 109 0
	lwz 9,.LC3@l(29)
	.loc 4 103 0
	stw 11,260(31)
	.loc 4 104 0
	stw 0,264(31)
	.loc 4 105 0
	stfs 9,268(31)
.LVL834:
.LBB7034:
.LBB7035:
	.loc 5 424 0
	stfs 11,272(31)
	.loc 5 425 0
	stfs 12,276(31)
	.loc 5 426 0
	stfs 13,280(31)
.LVL835:
.LBE7035:
.LBE7034:
.LBB7036:
.LBB7037:
	.loc 5 424 0
	stfs 5,284(31)
	.loc 5 425 0
	stfs 10,288(31)
	.loc 5 426 0
	stfs 0,292(31)
.LVL836:
	b .L278
.LVL837:
.L284:
.LBE7037:
.LBE7036:
.LBE7038:
.LBE7040:
.LBE7042:
.LBE7044:
.LBE7046:
.LBE7157:
.LBB7158:
.LBB7126:
.LBB7123:
.LBB7120:
.LBB7108:
.LBB7074:
	.loc 6 165 0
	fsubs 10,12,12
.LBE7074:
.LBE7108:
.LBB7109:
.LBB7110:
	.loc 4 103 0
	li 11,2
.LBE7110:
.LBE7109:
.LBB7116:
.LBB7075:
	.loc 6 165 0
	fsubs 0,13,13
.LBE7075:
.LBE7116:
.LBB7117:
.LBB7115:
	.loc 4 109 0
	lwz 9,.LC3@l(29)
	.loc 4 103 0
	stw 11,364(31)
	.loc 4 104 0
	stw 0,368(31)
	.loc 4 105 0
	stfs 9,372(31)
.LVL838:
.LBB7111:
.LBB7112:
	.loc 6 146 0
	stfs 11,376(31)
	.loc 6 147 0
	stfs 12,380(31)
	.loc 6 148 0
	stfs 13,384(31)
.LVL839:
.LBE7112:
.LBE7111:
.LBB7113:
.LBB7114:
	.loc 6 146 0
	stfs 5,388(31)
	.loc 6 147 0
	stfs 10,392(31)
	.loc 6 148 0
	stfs 0,396(31)
.LVL840:
	b .L279
.LBE7114:
.LBE7113:
.LBE7115:
.LBE7117:
.LBE7120:
.LBE7123:
.LBE7126:
.LBE7158:
.LBE7160:
	.cfi_endproc
.LFE2841:
	.size	_Z34idPhysics_Parametric_RestorePStateP13idRestoreGameR18parametricPState_s, .-_Z34idPhysics_Parametric_RestorePStateP13idRestoreGameR18parametricPState_s
	.align 2
	.globl _ZN20idPhysics_Parametric7RestoreEP13idRestoreGame
	.type	_ZN20idPhysics_Parametric7RestoreEP13idRestoreGame, @function
_ZN20idPhysics_Parametric7RestoreEP13idRestoreGame:
.LFB2843:
	.loc 2 297 0
	.cfi_startproc
.LVL841:
	stwu 1,-16(1)
.LCFI83:
	.cfi_def_cfa_offset 16
	mflr 0
	stw 31,12(1)
	mr 31,3
	.cfi_offset 31, -4
	.cfi_register 65, 0
	stw 30,8(1)
	.loc 2 299 0
	mr 3,4
.LVL842:
	.loc 2 297 0
	mr 30,4
	.cfi_offset 30, -8
	.loc 2 299 0
	addi 4,31,68
.LVL843:
	.loc 2 297 0
	stw 0,20(1)
	.loc 2 299 0
	.cfi_offset 65, 4
	bl _Z34idPhysics_Parametric_RestorePStateP13idRestoreGameR18parametricPState_s
.LVL844:
	.loc 2 300 0
	mr 3,30
	addi 4,31,560
	bl _Z34idPhysics_Parametric_RestorePStateP13idRestoreGameR18parametricPState_s
	.loc 2 302 0
	mr 3,30
	addi 4,31,1052
	bl _ZN13idRestoreGame8ReadBoolERb
	.loc 2 303 0
	mr 3,30
	addi 4,31,1056
	bl _ZN13idRestoreGame13ReadClipModelERP11idClipModel
	.loc 2 304 0
	mr 3,30
	addi 4,31,1060
	bl _ZN13idRestoreGame7ReadIntERi
	.loc 2 306 0
	mr 3,30
	addi 4,31,1064
	bl _ZN13idRestoreGame9ReadTraceER7trace_s
	.loc 2 307 0
	mr 3,30
	addi 4,31,1172
	bl _ZN13idRestoreGame8ReadBoolERb
	.loc 2 309 0
	mr 3,30
	addi 4,31,1173
	bl _ZN13idRestoreGame8ReadBoolERb
	.loc 2 310 0
	mr 3,30
	addi 4,31,1174
	bl _ZN13idRestoreGame8ReadBoolERb
	.loc 2 311 0
	lwz 0,20(1)
	lwz 30,8(1)
.LVL845:
	mtlr 0
	lwz 31,12(1)
.LVL846:
	addi 1,1,16
.LCFI84:
	.cfi_def_cfa_offset 0
	.cfi_restore 31
	.cfi_restore 30
	blr
	.cfi_endproc
.LFE2843:
	.size	_ZN20idPhysics_Parametric7RestoreEP13idRestoreGame, .-_ZN20idPhysics_Parametric7RestoreEP13idRestoreGame
	.align 2
	.globl _ZN20idPhysics_Parametric9SetPusherEi
	.type	_ZN20idPhysics_Parametric9SetPusherEi, @function
_ZN20idPhysics_Parametric9SetPusherEi:
.LFB2844:
	.loc 2 318 0
	.cfi_startproc
.LVL847:
	.loc 2 320 0
	li 0,1
	.loc 2 321 0
	stw 4,1060(3)
	.loc 2 320 0
	stb 0,1052(3)
	.loc 2 322 0
	blr
	.cfi_endproc
.LFE2844:
	.size	_ZN20idPhysics_Parametric9SetPusherEi, .-_ZN20idPhysics_Parametric9SetPusherEi
	.align 2
	.globl _ZNK20idPhysics_Parametric8IsPusherEv
	.type	_ZNK20idPhysics_Parametric8IsPusherEv, @function
_ZNK20idPhysics_Parametric8IsPusherEv:
.LFB2845:
	.loc 2 329 0
	.cfi_startproc
.LVL848:
	.loc 2 331 0
	lbz 3,1052(3)
.LVL849:
	blr
	.cfi_endproc
.LFE2845:
	.size	_ZNK20idPhysics_Parametric8IsPusherEv, .-_ZNK20idPhysics_Parametric8IsPusherEv
	.align 2
	.globl _ZN20idPhysics_Parametric22SetLinearExtrapolationE15extrapolation_tiiRK6idVec3S3_S3_
	.type	_ZN20idPhysics_Parametric22SetLinearExtrapolationE15extrapolation_tiiRK6idVec3S3_S3_, @function
_ZN20idPhysics_Parametric22SetLinearExtrapolationE15extrapolation_tiiRK6idVec3S3_S3_:
.LFB2846:
	.loc 2 338 0
	.cfi_startproc
.LVL850:
	mflr 0
	stwu 1,-24(1)
.LCFI85:
	.cfi_def_cfa_offset 24
	.cfi_register 65, 0
	.loc 2 340 0
	xoris 5,5,0x8000
.LVL851:
	xoris 6,6,0x8000
.LVL852:
	stw 5,12(1)
	lis 11,.LC2@ha
	.loc 2 338 0
	stw 0,28(1)
	.loc 2 340 0
	lis 0,0x4330
	.cfi_offset 65, 4
	stw 0,8(1)
	stw 6,20(1)
	stw 0,16(1)
	lfs 0,.LC2@l(11)
	.loc 2 339 0
	lis 11,gameLocal+2426836@ha
	.loc 2 340 0
	lfd 12,16(1)
	lfd 13,8(1)
	.loc 2 339 0
	lwz 0,gameLocal+2426836@l(11)
	.loc 2 340 0
	fsub 13,13,0
.LBB7161:
.LBB7162:
	.loc 4 103 0
	stw 4,160(3)
.LBE7162:
.LBE7161:
	.loc 2 340 0
	fsub 0,12,0
	.loc 2 339 0
	stw 0,68(3)
.LVL853:
	.loc 2 340 0
	frsp 13,13
	frsp 0,0
	stfs 13,164(3)
	stfs 0,168(3)
.LVL854:
.LBB7179:
.LBB7177:
.LBB7163:
.LBB7164:
	.loc 5 424 0
	lwz 0,0(7)
.LVL855:
	stw 0,172(3)
.LVL856:
	.loc 5 425 0
	lwz 0,4(7)
	stw 0,176(3)
	.loc 5 426 0
	lwz 0,8(7)
	stw 0,180(3)
.LVL857:
.LBE7164:
.LBE7163:
.LBB7165:
.LBB7166:
	.loc 5 424 0
	lwz 0,0(9)
	stw 0,184(3)
	.loc 5 425 0
	lwz 0,4(9)
	stw 0,188(3)
	.loc 5 426 0
	lwz 0,8(9)
.LBE7166:
.LBE7165:
	.loc 4 109 0
	lis 9,.LC3@ha
.LVL858:
	lwz 9,.LC3@l(9)
.LBB7168:
.LBB7167:
	.loc 5 426 0
	stw 0,192(3)
.LVL859:
.LBE7167:
.LBE7168:
.LBB7169:
.LBB7170:
	.loc 5 424 0
	lwz 0,0(8)
	stw 0,196(3)
	.loc 5 425 0
	lwz 0,4(8)
	stw 0,200(3)
	.loc 5 426 0
	lwz 0,8(8)
.LBE7170:
.LBE7169:
	.loc 4 109 0
	stw 9,208(3)
.LVL860:
.LBB7172:
.LBB7171:
	.loc 5 426 0
	stw 0,204(3)
.LBE7171:
.LBE7172:
.LBB7173:
.LBB7174:
	.loc 5 424 0
	lwz 0,0(7)
.LBE7174:
.LBE7173:
.LBE7177:
.LBE7179:
	.loc 2 342 0
	lwz 9,0(3)
.LBB7180:
.LBB7178:
.LBB7176:
.LBB7175:
	.loc 5 424 0
	stw 0,212(3)
	.loc 5 425 0
	lwz 0,4(7)
	stw 0,216(3)
	.loc 5 426 0
	lwz 0,8(7)
	stw 0,220(3)
.LVL861:
.LBE7175:
.LBE7176:
.LBE7178:
.LBE7180:
.LBB7181:
.LBB7182:
	.loc 5 424 0
	lwz 0,0(7)
	stw 0,136(3)
	.loc 5 425 0
	lwz 0,4(7)
	stw 0,140(3)
	.loc 5 426 0
	lwz 0,8(7)
	stw 0,144(3)
.LBE7182:
.LBE7181:
	.loc 2 342 0
	lwz 0,88(9)
	mtctr 0
	bctrl
.LVL862:
	.loc 2 343 0
	lwz 0,28(1)
	addi 1,1,24
.LCFI86:
	.cfi_def_cfa_offset 0
	mtlr 0
	blr
	.cfi_endproc
.LFE2846:
	.size	_ZN20idPhysics_Parametric22SetLinearExtrapolationE15extrapolation_tiiRK6idVec3S3_S3_, .-_ZN20idPhysics_Parametric22SetLinearExtrapolationE15extrapolation_tiiRK6idVec3S3_S3_
	.align 2
	.globl _ZN20idPhysics_Parametric17SetLinearVelocityERK6idVec3i
	.type	_ZN20idPhysics_Parametric17SetLinearVelocityERK6idVec3i, @function
_ZN20idPhysics_Parametric17SetLinearVelocityERK6idVec3i:
.LFB2883:
	.loc 2 844 0
	.cfi_startproc
.LVL863:
	stwu 1,-24(1)
.LCFI87:
	.cfi_def_cfa_offset 24
	mflr 0
	.loc 2 845 0
	lis 9,gameLocal+2426836@ha
	.loc 2 844 0
	mr 8,4
	stw 29,12(1)
	.loc 2 845 0
	lis 29,vec3_origin@ha
	.cfi_offset 29, -12
	.cfi_register 65, 0
	.loc 2 844 0
	stw 30,16(1)
	.loc 2 845 0
	la 30,vec3_origin@l(29)
	.cfi_offset 30, -8
	lwz 5,gameLocal+2426836@l(9)
.LVL864:
	addi 7,3,76
	mr 9,30
	li 4,66
.LVL865:
	li 6,0
	.loc 2 844 0
	stw 0,28(1)
	stw 31,20(1)
	.loc 2 844 0
	mr 31,3
	.cfi_offset 31, -4
	.cfi_offset 65, 4
	.loc 2 845 0
	bl _ZN20idPhysics_Parametric22SetLinearExtrapolationE15extrapolation_tiiRK6idVec3S3_S3_
.LVL866:
.LBB7249:
.LBB7250:
.LBB7251:
.LBB7252:
	.loc 5 426 0
	lwz 9,8(30)
	.loc 5 424 0
	lwz 10,vec3_origin@l(29)
.LBE7252:
.LBE7251:
	.loc 7 185 0
	li 0,0
.LBB7256:
.LBB7253:
	.loc 5 425 0
	lwz 11,4(30)
.LBE7253:
.LBE7256:
.LBE7250:
.LBE7249:
	.loc 2 847 0
	mr 3,31
.LBB7264:
.LBB7263:
.LBB7257:
.LBB7254:
	.loc 5 426 0
	stw 9,312(31)
.LBE7254:
.LBE7257:
.LBB7258:
.LBB7259:
	stw 9,324(31)
.LBE7259:
.LBE7258:
	.loc 7 185 0
	stw 0,288(31)
	.loc 7 186 0
	stw 0,292(31)
	.loc 7 187 0
	stw 0,300(31)
.LVL867:
.LBB7261:
.LBB7255:
	.loc 5 424 0
	stw 10,304(31)
	.loc 5 425 0
	stw 11,308(31)
.LBE7255:
.LBE7261:
.LBB7262:
.LBB7260:
	.loc 5 424 0
	stw 10,316(31)
	.loc 5 425 0
	stw 11,320(31)
.LBE7260:
.LBE7262:
.LBE7263:
.LBE7264:
	.loc 2 847 0
	lwz 9,0(31)
	lwz 0,88(9)
	mtctr 0
	bctrl
	.loc 2 848 0
	lwz 0,28(1)
	lwz 29,12(1)
	mtlr 0
	lwz 30,16(1)
	lwz 31,20(1)
.LVL868:
	addi 1,1,24
.LCFI88:
	.cfi_def_cfa_offset 0
	.cfi_restore 31
	.cfi_restore 30
	.cfi_restore 29
	blr
	.cfi_endproc
.LFE2883:
	.size	_ZN20idPhysics_Parametric17SetLinearVelocityERK6idVec3i, .-_ZN20idPhysics_Parametric17SetLinearVelocityERK6idVec3i
	.align 2
	.globl _ZN20idPhysics_Parametric23SetAngularExtrapolationE15extrapolation_tiiRK8idAnglesS3_S3_
	.type	_ZN20idPhysics_Parametric23SetAngularExtrapolationE15extrapolation_tiiRK8idAnglesS3_S3_, @function
_ZN20idPhysics_Parametric23SetAngularExtrapolationE15extrapolation_tiiRK8idAnglesS3_S3_:
.LFB2847:
	.loc 2 350 0
	.cfi_startproc
.LVL869:
	mflr 0
	stwu 1,-24(1)
.LCFI89:
	.cfi_def_cfa_offset 24
	.cfi_register 65, 0
	.loc 2 352 0
	xoris 5,5,0x8000
.LVL870:
	xoris 6,6,0x8000
.LVL871:
	stw 5,12(1)
	lis 11,.LC2@ha
	.loc 2 350 0
	stw 0,28(1)
	.loc 2 352 0
	lis 0,0x4330
	.cfi_offset 65, 4
	stw 0,8(1)
	stw 6,20(1)
	stw 0,16(1)
	lfs 0,.LC2@l(11)
	.loc 2 351 0
	lis 11,gameLocal+2426836@ha
	.loc 2 352 0
	lfd 12,16(1)
	lfd 13,8(1)
	.loc 2 351 0
	lwz 0,gameLocal+2426836@l(11)
	.loc 2 352 0
	fsub 13,13,0
.LBB7265:
.LBB7266:
	.loc 4 103 0
	stw 4,224(3)
.LBE7266:
.LBE7265:
	.loc 2 352 0
	fsub 0,12,0
	.loc 2 351 0
	stw 0,68(3)
.LVL872:
	.loc 2 352 0
	frsp 13,13
	frsp 0,0
	stfs 13,228(3)
	stfs 0,232(3)
.LVL873:
.LBB7283:
.LBB7281:
.LBB7267:
.LBB7268:
	.loc 6 146 0
	lwz 0,0(7)
.LVL874:
	stw 0,236(3)
.LVL875:
	.loc 6 147 0
	lwz 0,4(7)
	stw 0,240(3)
	.loc 6 148 0
	lwz 0,8(7)
	stw 0,244(3)
.LVL876:
.LBE7268:
.LBE7267:
.LBB7269:
.LBB7270:
	.loc 6 146 0
	lwz 0,0(9)
	stw 0,248(3)
	.loc 6 147 0
	lwz 0,4(9)
	stw 0,252(3)
	.loc 6 148 0
	lwz 0,8(9)
.LBE7270:
.LBE7269:
	.loc 4 109 0
	lis 9,.LC3@ha
.LVL877:
	lwz 9,.LC3@l(9)
.LBB7272:
.LBB7271:
	.loc 6 148 0
	stw 0,256(3)
.LVL878:
.LBE7271:
.LBE7272:
.LBB7273:
.LBB7274:
	.loc 6 146 0
	lwz 0,0(8)
	stw 0,260(3)
	.loc 6 147 0
	lwz 0,4(8)
	stw 0,264(3)
	.loc 6 148 0
	lwz 0,8(8)
.LBE7274:
.LBE7273:
	.loc 4 109 0
	stw 9,272(3)
.LVL879:
.LBB7276:
.LBB7275:
	.loc 6 148 0
	stw 0,268(3)
.LBE7275:
.LBE7276:
.LBB7277:
.LBB7278:
	.loc 6 146 0
	lwz 0,0(7)
.LBE7278:
.LBE7277:
.LBE7281:
.LBE7283:
	.loc 2 354 0
	lwz 9,0(3)
.LBB7284:
.LBB7282:
.LBB7280:
.LBB7279:
	.loc 6 146 0
	stw 0,276(3)
	.loc 6 147 0
	lwz 0,4(7)
	stw 0,280(3)
	.loc 6 148 0
	lwz 0,8(7)
	stw 0,284(3)
.LVL880:
.LBE7279:
.LBE7280:
.LBE7282:
.LBE7284:
.LBB7285:
.LBB7286:
	.loc 6 146 0
	lwz 0,0(7)
	stw 0,148(3)
	.loc 6 147 0
	lwz 0,4(7)
	stw 0,152(3)
	.loc 6 148 0
	lwz 0,8(7)
	stw 0,156(3)
.LBE7286:
.LBE7285:
	.loc 2 354 0
	lwz 0,88(9)
	mtctr 0
	bctrl
.LVL881:
	.loc 2 355 0
	lwz 0,28(1)
	addi 1,1,24
.LCFI90:
	.cfi_def_cfa_offset 0
	mtlr 0
	blr
	.cfi_endproc
.LFE2847:
	.size	_ZN20idPhysics_Parametric23SetAngularExtrapolationE15extrapolation_tiiRK8idAnglesS3_S3_, .-_ZN20idPhysics_Parametric23SetAngularExtrapolationE15extrapolation_tiiRK8idAnglesS3_S3_
	.align 2
	.globl _ZN20idPhysics_Parametric18SetAngularVelocityERK6idVec3i
	.type	_ZN20idPhysics_Parametric18SetAngularVelocityERK6idVec3i, @function
_ZN20idPhysics_Parametric18SetAngularVelocityERK6idVec3i:
.LFB2884:
	.loc 2 855 0
	.cfi_startproc
.LVL882:
	mflr 0
	stwu 1,-112(1)
.LCFI91:
	.cfi_def_cfa_offset 112
	.cfi_register 65, 0
.LBB7367:
.LBB7368:
.LBB7369:
.LBB7370:
.LBB7371:
	.loc 12 276 0
	lis 9,_ZN6idMath5iSqrtE@ha
.LBE7371:
.LBE7370:
.LBE7369:
.LBE7368:
.LBE7367:
	.loc 2 855 0
	stw 28,96(1)
.LBB7462:
.LBB7397:
.LBB7388:
.LBB7380:
.LBB7372:
	.loc 12 276 0
	la 9,_ZN6idMath5iSqrtE@l(9)
.LBE7372:
.LBE7380:
.LBE7388:
.LBE7397:
.LBE7462:
	.loc 2 855 0
	stw 0,116(1)
	stw 29,100(1)
.LBB7463:
	.loc 2 864 0
	lis 29,ang_zero@ha
	.cfi_offset 29, -12
	.cfi_offset 65, 4
	.cfi_offset 28, -16
.LBE7463:
	.loc 2 855 0
	stw 30,104(1)
.LBB7464:
	.loc 2 864 0
	la 30,ang_zero@l(29)
	.cfi_offset 30, -8
.LBE7464:
	.loc 2 855 0
	stw 31,108(1)
	.loc 2 855 0
	mr 31,3
	.cfi_offset 31, -4
.LBB7465:
	.loc 2 864 0
	addi 3,1,8
.LVL883:
.LBB7398:
.LBB7399:
	.loc 5 425 0
	lfs 12,4(4)
	.loc 5 424 0
	lfs 11,0(4)
.LVL884:
.LBE7399:
.LBE7398:
.LBB7402:
.LBB7389:
	.loc 5 649 0
	fmuls 0,12,12
.LBE7389:
.LBE7402:
.LBB7403:
.LBB7400:
	.loc 5 426 0
	lfs 13,8(4)
.LVL885:
.LBE7400:
.LBE7403:
	.loc 2 864 0
	addi 4,1,20
.LVL886:
.LBB7404:
.LBB7401:
	.loc 5 649 0
	fmadds 0,11,11,0
	fmadds 0,13,13,0
	stfs 0,88(1)
.LVL887:
.LBE7401:
.LBE7404:
.LBB7405:
.LBB7390:
.LBB7381:
.LBB7373:
	.loc 12 270 0
	lwz 0,88(1)
.LVL888:
	.loc 12 276 0
	rlwinm 11,0,9,24,31
	rlwinm 0,0,19,21,29
	lwzx 9,9,0
	subfic 0,11,380
	rlwinm 0,0,22,0,8
	.loc 12 275 0
	lis 11,.LC8@ha
	.loc 12 276 0
	or 0,0,9
	.loc 12 275 0
	lfs 7,.LC8@l(11)
	.loc 12 277 0
	stw 0,92(1)
	.loc 12 278 0
	lis 9,.LC13@ha
	.loc 12 275 0
	fmuls 7,0,7
.LVL889:
	.loc 12 278 0
	lfs 8,.LC13@l(9)
	.loc 12 277 0
	lfs 0,92(1)
.LVL890:
.LBE7373:
.LBE7381:
.LBE7390:
.LBE7405:
	.loc 2 862 0
	lis 9,_ZN6idMath9M_RAD2DEGE@ha
	lfs 6,_ZN6idMath9M_RAD2DEGE@l(9)
.LBB7406:
.LBB7407:
.LBB7408:
.LBB7409:
	.loc 5 424 0
	lis 9,vec3_origin@ha
.LBE7409:
.LBE7408:
.LBE7407:
.LBE7406:
.LBB7433:
.LBB7391:
.LBB7382:
.LBB7374:
	.loc 12 277 0
	fmr 9,0
.LVL891:
.LBE7374:
.LBE7382:
.LBE7391:
.LBE7433:
.LBB7434:
.LBB7426:
.LBB7416:
.LBB7410:
	.loc 5 424 0
	la 10,vec3_origin@l(9)
.LBE7410:
.LBE7416:
.LBE7426:
.LBE7434:
.LBB7435:
.LBB7392:
.LBB7383:
.LBB7375:
	.loc 2 855 0
	fneg 7,7
.LVL892:
.LBE7375:
.LBE7383:
.LBE7392:
.LBE7435:
.LBB7436:
.LBB7427:
.LBB7417:
.LBB7411:
	.loc 5 424 0
	lwz 11,vec3_origin@l(9)
	.loc 5 426 0
	lwz 0,8(10)
.LBE7411:
.LBE7417:
.LBE7427:
.LBE7436:
.LBB7437:
.LBB7393:
.LBB7384:
.LBB7376:
	.loc 12 278 0
	fmul 10,9,9
.LBE7376:
.LBE7384:
.LBE7393:
.LBE7437:
.LBB7438:
.LBB7428:
.LBB7418:
.LBB7412:
	.loc 5 425 0
	lwz 9,4(10)
.LBE7412:
.LBE7418:
.LBE7428:
.LBE7438:
	.loc 2 864 0
	lis 10,gameLocal+2426836@ha
.LBB7439:
.LBB7429:
.LBB7419:
.LBB7413:
	.loc 5 426 0
	stw 0,28(1)
.LBE7413:
.LBE7419:
.LBE7429:
.LBE7439:
	.loc 2 864 0
	lwz 28,gameLocal+2426836@l(10)
.LBB7440:
.LBB7430:
	.file 16 "d:/Data/Nintendo/DoomGX/src/game/physics/../../idlib/../idlib/math/Rotation.h"
	.loc 16 112 0
	li 0,0
.LBB7420:
.LBB7414:
	.loc 5 424 0
	stw 11,20(1)
.LBE7414:
.LBE7420:
.LBE7430:
.LBE7440:
.LBB7441:
.LBB7394:
.LBB7385:
.LBB7377:
	.loc 12 278 0
	fmadd 10,7,10,8
.LBE7377:
.LBE7385:
.LBE7394:
.LBE7441:
.LBB7442:
.LBB7431:
	.loc 16 112 0
	stb 0,84(1)
.LBB7421:
.LBB7415:
	.loc 5 425 0
	stw 9,24(1)
.LBE7415:
.LBE7421:
.LBE7431:
.LBE7442:
.LBB7443:
.LBB7395:
.LBB7386:
.LBB7378:
	.loc 12 278 0
	fmul 10,9,10
.LVL893:
.LBE7378:
.LBE7386:
	.loc 5 654 0
	lfs 9,88(1)
.LBB7387:
.LBB7379:
	.loc 12 279 0
	fmul 0,10,10
	fmadd 0,7,0,8
.LVL894:
	fmul 0,10,0
.LVL895:
	.loc 12 280 0
	frsp 0,0
.LVL896:
.LBE7379:
.LBE7387:
	.loc 5 654 0
	fmuls 10,9,0
	.loc 5 651 0
	fmuls 11,11,0
.LVL897:
	.loc 5 652 0
	fmuls 12,12,0
.LVL898:
.LBE7395:
.LBE7443:
	.loc 2 862 0
	fmuls 10,10,6
.LVL899:
.LBB7444:
.LBB7396:
	.loc 5 653 0
	fmuls 0,13,0
.LVL900:
.LBE7396:
.LBE7444:
.LBB7445:
.LBB7432:
.LBB7422:
.LBB7423:
	.loc 5 424 0
	stfs 11,32(1)
	.loc 5 425 0
	stfs 12,36(1)
.LBE7423:
.LBE7422:
	.loc 16 111 0
	stfs 10,44(1)
.LBB7425:
.LBB7424:
	.loc 5 426 0
	stfs 0,40(1)
.LBE7424:
.LBE7425:
.LBE7432:
.LBE7445:
	.loc 2 864 0
	bl _ZNK10idRotation8ToAnglesEv
.LVL901:
	mr 3,31
	mr 5,28
	addi 7,31,88
	addi 8,1,8
	mr 9,30
	li 4,66
	li 6,0
	bl _ZN20idPhysics_Parametric23SetAngularExtrapolationE15extrapolation_tiiRK8idAnglesS3_S3_
.LVL902:
.LBB7446:
.LBB7447:
.LBB7448:
.LBB7449:
	.loc 6 148 0
	lwz 9,8(30)
	.loc 6 146 0
	lwz 10,ang_zero@l(29)
.LBE7449:
.LBE7448:
	.loc 7 185 0
	li 0,0
.LBB7453:
.LBB7450:
	.loc 6 147 0
	lwz 11,4(30)
.LBE7450:
.LBE7453:
.LBE7447:
.LBE7446:
	.loc 2 866 0
	mr 3,31
.LBB7461:
.LBB7460:
.LBB7454:
.LBB7451:
	.loc 6 148 0
	stw 9,416(31)
.LBE7451:
.LBE7454:
.LBB7455:
.LBB7456:
	stw 9,428(31)
.LBE7456:
.LBE7455:
	.loc 7 185 0
	stw 0,392(31)
	.loc 7 186 0
	stw 0,396(31)
	.loc 7 187 0
	stw 0,404(31)
.LVL903:
.LBB7458:
.LBB7452:
	.loc 6 146 0
	stw 10,408(31)
	.loc 6 147 0
	stw 11,412(31)
.LBE7452:
.LBE7458:
.LBB7459:
.LBB7457:
	.loc 6 146 0
	stw 10,420(31)
	.loc 6 147 0
	stw 11,424(31)
.LBE7457:
.LBE7459:
.LBE7460:
.LBE7461:
	.loc 2 866 0
	lwz 9,0(31)
	lwz 0,88(9)
	mtctr 0
	bctrl
.LBE7465:
	.loc 2 867 0
	lwz 0,116(1)
	lwz 28,96(1)
	mtlr 0
	lwz 29,100(1)
	lwz 30,104(1)
	lwz 31,108(1)
.LVL904:
	addi 1,1,112
.LCFI92:
	.cfi_def_cfa_offset 0
	.cfi_restore 31
	.cfi_restore 30
	.cfi_restore 29
	.cfi_restore 28
	blr
	.cfi_endproc
.LFE2884:
	.size	_ZN20idPhysics_Parametric18SetAngularVelocityERK6idVec3i, .-_ZN20idPhysics_Parametric18SetAngularVelocityERK6idVec3i
	.align 2
	.globl _ZN20idPhysics_Parametric9SetMasterEP8idEntityb
	.type	_ZN20idPhysics_Parametric9SetMasterEP8idEntityb, @function
_ZN20idPhysics_Parametric9SetMasterEP8idEntityb:
.LFB2893:
	.loc 2 965 0
	.cfi_startproc
.LVL905:
	mflr 0
	stwu 1,-168(1)
.LCFI93:
	.cfi_def_cfa_offset 168
	.cfi_register 65, 0
	stw 29,156(1)
	mr 29,5
	.cfi_offset 29, -12
	stw 30,160(1)
.LBB7540:
	.loc 2 969 0
	mr. 30,4
	.cfi_offset 30, -8
.LBE7540:
	.loc 2 965 0
	stw 31,164(1)
	mr 31,3
	.cfi_offset 31, -4
	stw 0,172(1)
.LBB7650:
	.loc 2 970 0
	lbz 0,1173(3)
	.cfi_offset 65, 4
	cmpwi 7,0,0
	.loc 2 969 0
	beq- 0,.L295
	.loc 2 970 0
	beq- 7,.L301
.LVL906:
.L294:
.LBE7650:
	.loc 2 998 0
	lwz 0,172(1)
	lwz 29,156(1)
	mtlr 0
	lwz 30,160(1)
.LVL907:
	lwz 31,164(1)
.LVL908:
	addi 1,1,168
	.cfi_remember_state
.LCFI94:
	.cfi_def_cfa_offset 0
	.cfi_restore 31
	.cfi_restore 30
	.cfi_restore 29
	blr
.LVL909:
.L301:
.LCFI95:
	.cfi_restore_state
.LBB7651:
	.loc 2 973 0
	lwz 3,4(3)
.LVL910:
	addi 4,1,32
.LVL911:
	addi 5,1,116
.LVL912:
	bl _ZNK8idEntity17GetMasterPositionER6idVec3R6idMat3
.LVL913:
.LBB7541:
.LBB7542:
	.loc 5 431 0
	lfs 13,80(31)
	lfs 0,36(1)
.LBE7542:
.LBE7541:
	.loc 2 975 0
	cmpwi 7,29,0
.LBB7548:
.LBB7543:
	.loc 5 431 0
	lfs 12,76(31)
	fsubs 0,13,0
.LBE7543:
.LBE7548:
.LBB7549:
.LBB7550:
.LBB7551:
	.loc 5 402 0
	lfs 6,120(1)
.LBE7551:
.LBE7550:
.LBB7552:
.LBB7553:
	lfs 7,132(1)
.LBE7553:
.LBE7552:
.LBB7554:
.LBB7555:
	lfs 8,144(1)
.LBE7555:
.LBE7554:
.LBE7549:
.LBB7568:
.LBB7544:
	.loc 5 431 0
	lfs 13,32(1)
.LBE7544:
.LBE7568:
.LBB7569:
.LBB7570:
.LBB7571:
	.loc 11 454 0
	fmuls 2,0,6
	fmuls 11,0,8
.LBE7571:
.LBE7570:
.LBE7569:
.LBB7574:
.LBB7545:
	.loc 5 431 0
	lfs 10,84(31)
	fsubs 13,12,13
.LBE7545:
.LBE7574:
.LBB7575:
.LBB7556:
.LBB7557:
	.loc 5 402 0
	lfs 4,128(1)
.LBE7557:
.LBE7556:
.LBE7575:
.LBB7576:
.LBB7573:
.LBB7572:
	.loc 11 454 0
	fmuls 3,0,7
.LBE7572:
.LBE7573:
.LBE7576:
.LBB7577:
.LBB7558:
.LBB7559:
	.loc 5 402 0
	lfs 12,116(1)
.LBE7559:
.LBE7558:
.LBB7560:
.LBB7561:
	lfs 5,140(1)
.LBE7561:
.LBE7560:
.LBE7577:
.LBB7578:
.LBB7546:
	.loc 5 431 0
	lfs 0,40(1)
.LBE7546:
.LBE7578:
.LBB7579:
.LBB7580:
	.loc 11 454 0
	fmadds 2,13,12,2
	fmadds 3,13,4,3
.LBE7580:
.LBE7579:
.LBB7583:
.LBB7562:
.LBB7563:
	.loc 5 402 0
	lfs 9,124(1)
.LBE7563:
.LBE7562:
.LBE7583:
.LBB7584:
.LBB7547:
	.loc 5 431 0
	fsubs 0,10,0
.LVL914:
.LBE7547:
.LBE7584:
.LBB7585:
.LBB7564:
.LBB7565:
	.loc 5 402 0
	lfs 10,136(1)
.LVL915:
.LBE7565:
.LBE7564:
.LBE7585:
.LBB7586:
.LBB7581:
	.loc 11 454 0
	fmadds 13,13,5,11
.LVL916:
.LBE7581:
.LBE7586:
.LBB7587:
.LBB7566:
.LBB7567:
	.loc 5 402 0
	lfs 11,148(1)
.LVL917:
.LBE7567:
.LBE7566:
.LBE7587:
.LBB7588:
.LBB7582:
	.loc 11 454 0
	fmadds 2,0,9,2
	fmadds 3,0,10,3
	fmadds 0,0,11,13
.LVL918:
	.loc 5 424 0
	stfs 2,136(31)
	.loc 5 425 0
	stfs 3,140(31)
	.loc 5 426 0
	stfs 0,144(31)
.LBE7582:
.LBE7588:
	.loc 2 975 0
	beq- 7,.L297
.LBB7589:
.LBB7590:
.LBB7591:
	.loc 11 425 0
	stfs 12,80(1)
.LBE7591:
.LBE7590:
.LBE7589:
	.loc 2 976 0
	addi 9,31,100
.LBB7600:
.LBB7596:
.LBB7592:
	.loc 11 425 0
	stfs 4,84(1)
	.loc 2 965 0
	addi 0,31,136
	.loc 11 425 0
	stfs 5,88(1)
.LBE7592:
.LBE7596:
.LBE7600:
.LBE7651:
	.loc 11 465 0
	addi 11,1,44
.LBB7652:
.LBB7601:
.LBB7597:
.LBB7593:
	.loc 11 426 0
	stfs 6,92(1)
	stfs 7,96(1)
	stfs 8,100(1)
	.loc 11 427 0
	stfs 9,104(1)
	stfs 10,108(1)
.LVL919:
	stfs 11,112(1)
.LVL920:
.L298:
	.loc 2 965 0
	lfs 0,4(9)
.LBE7593:
.LBE7597:
.LBE7601:
.LBB7602:
.LBB7603:
	.loc 11 471 0
	lfs 13,100(1)
	lfs 10,92(1)
	lfs 11,96(1)
	fmuls 10,0,10
	lfs 8,84(1)
	fmuls 11,0,11
	lfs 9,88(1)
	fmuls 0,0,13
.LBE7603:
.LBE7602:
.LBB7606:
.LBB7598:
.LBB7594:
	.loc 2 965 0
	lfs 13,0(9)
.LBE7594:
.LBE7598:
.LBE7606:
.LBB7607:
.LBB7604:
	.loc 11 471 0
	lfs 7,104(1)
	fmadds 11,13,8,11
	lfs 8,108(1)
	fmadds 10,12,13,10
	fmadds 13,13,9,0
.LBE7604:
.LBE7607:
.LBB7608:
.LBB7599:
.LBB7595:
	.loc 2 965 0
	lfs 0,8(9)
.LBE7595:
.LBE7599:
.LBE7608:
.LBB7609:
.LBB7605:
	.loc 11 471 0
	lfs 9,112(1)
	.loc 11 474 0
	addi 9,9,12
.LVL921:
	.loc 11 467 0
	cmpw 7,9,0
	.loc 11 471 0
	fmadds 10,7,0,10
	fmadds 11,8,0,11
	fmadds 0,9,0,13
	stfs 10,0(11)
.LVL922:
	stfs 11,4(11)
.LVL923:
	stfs 0,8(11)
.LVL924:
	addi 11,11,12
.LVL925:
	.loc 11 467 0
	bne+ 7,.L298
.LBE7605:
.LBE7609:
	.loc 2 976 0
	addi 3,1,20
	addi 4,1,44
	bl _ZNK6idMat38ToAnglesEv
.LVL926:
.LBB7610:
.LBB7611:
	.loc 6 146 0
	lwz 10,20(1)
	.loc 6 147 0
	lwz 11,24(1)
	.loc 6 148 0
	lwz 9,28(1)
	.loc 6 146 0
	stw 10,148(31)
	.loc 6 147 0
	stw 11,152(31)
	.loc 6 148 0
	stw 9,156(31)
	b .L299
.LVL927:
.L297:
.LBE7611:
.LBE7610:
	.loc 2 979 0
	addi 3,1,8
	addi 4,31,100
	bl _ZNK6idMat38ToAnglesEv
.LVL928:
.LBB7612:
.LBB7613:
	.loc 6 146 0
	lwz 10,8(1)
	.loc 6 147 0
	lwz 11,12(1)
	.loc 6 148 0
	lwz 9,16(1)
	.loc 6 146 0
	stw 10,148(31)
	.loc 6 147 0
	stw 11,152(31)
	.loc 6 148 0
	stw 9,156(31)
.LVL929:
.L299:
.LBE7613:
.LBE7612:
.LBB7614:
.LBB7615:
	.loc 4 63 0
	lis 8,.LC3@ha
.LBB7616:
.LBB7617:
	.loc 5 424 0
	lwz 6,136(31)
.LBE7617:
.LBE7616:
	.loc 4 63 0
	lwz 0,.LC3@l(8)
.LBB7620:
.LBB7618:
	.loc 5 425 0
	lwz 7,140(31)
	.loc 5 426 0
	lwz 8,144(31)
.LBE7618:
.LBE7620:
	.loc 4 63 0
	stw 0,208(31)
.LVL930:
.LBE7615:
.LBE7614:
.LBB7623:
.LBB7624:
	stw 0,272(31)
.LBE7624:
.LBE7623:
	.loc 2 984 0
	li 0,1
.LBB7628:
.LBB7622:
.LBB7621:
.LBB7619:
	.loc 5 424 0
	stw 6,172(31)
	.loc 5 425 0
	stw 7,176(31)
	.loc 5 426 0
	stw 8,180(31)
.LBE7619:
.LBE7621:
.LBE7622:
.LBE7628:
.LBB7629:
.LBB7627:
.LBB7625:
.LBB7626:
	.loc 6 146 0
	stw 10,236(31)
	.loc 6 147 0
	stw 11,240(31)
	.loc 6 148 0
	stw 9,244(31)
.LBE7626:
.LBE7625:
.LBE7627:
.LBE7629:
	.loc 2 984 0
	stb 0,1173(31)
	.loc 2 985 0
	stb 29,1174(31)
.LBE7652:
	.loc 2 998 0
	lwz 0,172(1)
	lwz 29,156(1)
	mtlr 0
	lwz 30,160(1)
.LVL931:
	lwz 31,164(1)
.LVL932:
	addi 1,1,168
	.cfi_remember_state
	.cfi_restore 29
	.cfi_restore 30
	.cfi_restore 31
.LCFI96:
	.cfi_def_cfa_offset 0
	blr
.LVL933:
.L295:
.LCFI97:
	.cfi_restore_state
.LBB7653:
	.loc 2 989 0
	beq+ 7,.L294
.LVL934:
.LBB7630:
.LBB7631:
	.loc 5 424 0
	lwz 6,76(3)
.LBE7631:
.LBE7630:
	.loc 2 993 0
	lis 8,vec3_origin@ha
.LBB7637:
.LBB7632:
	.loc 5 425 0
	lwz 7,80(3)
.LBE7632:
.LBE7637:
	.loc 2 993 0
	la 8,vec3_origin@l(8)
.LBB7638:
.LBB7633:
	.loc 5 426 0
	lwz 10,84(3)
.LBE7633:
.LBE7638:
	.loc 2 993 0
	li 4,1
.LVL935:
.LBB7639:
.LBB7640:
	.loc 6 146 0
	lwz 11,88(3)
.LBE7640:
.LBE7639:
	.loc 2 993 0
	li 5,0
.LVL936:
.LBB7644:
.LBB7641:
	.loc 6 147 0
	lwz 9,92(3)
	.loc 6 148 0
	lwz 0,96(3)
.LBE7641:
.LBE7644:
.LBB7645:
.LBB7634:
	.loc 5 424 0
	stw 6,136(3)
.LBE7634:
.LBE7645:
	.loc 2 993 0
	li 6,0
.LBB7646:
.LBB7635:
	.loc 5 425 0
	stw 7,140(3)
.LBE7635:
.LBE7646:
	.loc 2 993 0
	addi 7,3,76
.LBB7647:
.LBB7636:
	.loc 5 426 0
	stw 10,144(3)
.LVL937:
.LBE7636:
.LBE7647:
.LBB7648:
.LBB7642:
	.loc 6 146 0
	stw 11,148(3)
	.loc 6 147 0
	stw 9,152(3)
.LBE7642:
.LBE7648:
	.loc 2 993 0
	mr 9,8
.LBB7649:
.LBB7643:
	.loc 6 148 0
	stw 0,156(3)
.LBE7643:
.LBE7649:
	.loc 2 993 0
	bl _ZN20idPhysics_Parametric22SetLinearExtrapolationE15extrapolation_tiiRK6idVec3S3_S3_
.LVL938:
	.loc 2 994 0
	lis 8,ang_zero@ha
	la 8,ang_zero@l(8)
	mr 3,31
	li 4,1
	li 5,0
	li 6,0
	addi 7,31,88
	mr 9,8
	bl _ZN20idPhysics_Parametric23SetAngularExtrapolationE15extrapolation_tiiRK8idAnglesS3_S3_
	.loc 2 995 0
	stb 30,1173(31)
	b .L294
.LBE7653:
	.cfi_endproc
.LFE2893:
	.size	_ZN20idPhysics_Parametric9SetMasterEP8idEntityb, .-_ZN20idPhysics_Parametric9SetMasterEP8idEntityb
	.align 2
	.globl _ZNK20idPhysics_Parametric26GetLinearExtrapolationTypeEv
	.type	_ZNK20idPhysics_Parametric26GetLinearExtrapolationTypeEv, @function
_ZNK20idPhysics_Parametric26GetLinearExtrapolationTypeEv:
.LFB2848:
	.loc 2 362 0
	.cfi_startproc
.LVL939:
	.loc 2 364 0
	lwz 3,160(3)
.LVL940:
	blr
	.cfi_endproc
.LFE2848:
	.size	_ZNK20idPhysics_Parametric26GetLinearExtrapolationTypeEv, .-_ZNK20idPhysics_Parametric26GetLinearExtrapolationTypeEv
	.align 2
	.globl _ZNK20idPhysics_Parametric27GetAngularExtrapolationTypeEv
	.type	_ZNK20idPhysics_Parametric27GetAngularExtrapolationTypeEv, @function
_ZNK20idPhysics_Parametric27GetAngularExtrapolationTypeEv:
.LFB2849:
	.loc 2 371 0
	.cfi_startproc
.LVL941:
	.loc 2 373 0
	lwz 3,224(3)
.LVL942:
	blr
	.cfi_endproc
.LFE2849:
	.size	_ZNK20idPhysics_Parametric27GetAngularExtrapolationTypeEv, .-_ZNK20idPhysics_Parametric27GetAngularExtrapolationTypeEv
	.align 2
	.globl _ZN20idPhysics_Parametric22SetLinearInterpolationEiiiiRK6idVec3S2_
	.type	_ZN20idPhysics_Parametric22SetLinearInterpolationEiiiiRK6idVec3S2_, @function
_ZN20idPhysics_Parametric22SetLinearInterpolationEiiiiRK6idVec3S2_:
.LFB2850:
	.loc 2 380 0
	.cfi_startproc
.LVL943:
	mflr 0
	stwu 1,-40(1)
.LCFI98:
	.cfi_def_cfa_offset 40
	.cfi_register 65, 0
	.loc 2 382 0
	xoris 4,4,0x8000
.LVL944:
	xoris 5,5,0x8000
.LVL945:
	xoris 6,6,0x8000
.LVL946:
	stw 4,12(1)
	.loc 2 380 0
	stw 0,44(1)
	.loc 2 382 0
	lis 0,0x4330
	.cfi_offset 65, 4
	stw 0,8(1)
	lis 11,.LC2@ha
	stw 0,16(1)
	xoris 7,7,0x8000
.LVL947:
	stw 0,24(1)
	stw 5,20(1)
	stw 6,28(1)
	lfd 11,8(1)
	lfd 0,16(1)
	lfd 12,24(1)
	lfs 13,.LC2@l(11)
	.loc 2 381 0
	lis 11,gameLocal+2426836@ha
	lwz 10,gameLocal+2426836@l(11)
	.loc 2 380 0
	mr 11,3
	.loc 2 382 0
	fsub 11,11,13
	fsub 0,0,13
	.loc 2 381 0
	stw 10,68(3)
	.loc 2 382 0
	fsub 12,12,13
	frsp 11,11
	frsp 0,0
	frsp 12,12
.LBB7722:
.LBB7723:
	.loc 7 185 0
	stfs 11,288(3)
	.loc 7 186 0
	stfs 0,292(3)
	.loc 7 187 0
	stfs 12,300(3)
.LBB7724:
.LBB7725:
	.loc 5 424 0
	lwz 10,0(8)
	stw 10,304(3)
.LBE7725:
.LBE7724:
.LBE7723:
.LBE7722:
	.loc 2 382 0
	stw 0,32(1)
.LBB7789:
.LBB7740:
.LBB7730:
.LBB7726:
	.loc 5 425 0
	lwz 10,4(8)
.LBE7726:
.LBE7730:
.LBE7740:
.LBE7789:
	.loc 2 382 0
	stw 7,36(1)
.LBB7790:
.LBB7741:
.LBB7731:
.LBB7727:
	.loc 5 425 0
	stw 10,308(3)
.LBE7727:
.LBE7731:
	.loc 7 191 0
	lis 10,.LC0@ha
.LBE7741:
.LBE7790:
	.loc 2 382 0
	lfd 10,32(1)
.LBB7791:
.LBB7742:
.LBB7732:
.LBB7728:
	.loc 5 426 0
	lwz 0,8(8)
.LBE7728:
.LBE7732:
.LBE7742:
.LBE7791:
	.loc 2 382 0
	fsub 13,10,13
.LBB7792:
.LBB7743:
	.loc 7 191 0
	lfs 10,.LC0@l(10)
.LBB7733:
.LBB7729:
	.loc 5 426 0
	stw 0,312(3)
.LBE7729:
.LBE7733:
.LBE7743:
.LBE7792:
	.loc 2 382 0
	frsp 13,13
.LVL948:
.LBB7793:
.LBB7744:
.LBB7734:
.LBB7735:
	.loc 5 424 0
	lwz 0,0(9)
	stw 0,316(3)
.LBE7735:
.LBE7734:
	.loc 7 191 0
	fcmpu 7,13,10
.LBB7738:
.LBB7736:
	.loc 5 425 0
	lwz 0,4(9)
.LBE7736:
.LBE7738:
	.loc 7 191 0
	cror 30,28,30
.LBB7739:
.LBB7737:
	.loc 5 425 0
	stw 0,320(3)
	.loc 5 426 0
	lwz 0,8(9)
	stw 0,324(3)
.LBE7737:
.LBE7739:
	.loc 7 191 0
	beq- 7,.L305
.LVL949:
.LBE7744:
.LBB7745:
.LBB7746:
.LBB7747:
	.loc 7 195 0
	fadds 10,0,12
	fcmpu 7,13,10
	blt- 7,.L306
	fsubs 13,13,0
.LVL950:
.L307:
	.loc 7 199 0
	fsubs 13,13,12
	.loc 7 200 0
	lis 10,.LC8@ha
	lfs 9,.LC8@l(10)
	lis 10,.LC9@ha
	fmadds 10,10,9,13
	lfs 9,.LC9@l(10)
	.loc 7 199 0
	stfs 13,296(11)
.LVL951:
	.loc 7 200 0
	fdivs 10,9,10
.LBB7748:
.LBB7749:
	.loc 5 431 0
	lfs 3,0(9)
	lfs 4,4(9)
	lfs 5,8(9)
.LBE7749:
.LBE7748:
	.loc 7 202 0
	lis 9,.LC0@ha
.LVL952:
	lfs 6,.LC0@l(9)
.LBB7752:
.LBB7750:
	.loc 5 431 0
	lfs 7,0(8)
	lfs 8,4(8)
	lfs 9,8(8)
.LVL953:
.LBE7750:
.LBE7752:
	.loc 7 202 0
	fcmpu 7,0,6
.LBB7753:
.LBB7751:
	.loc 5 431 0
	fsubs 3,3,7
	fsubs 4,4,8
	fsubs 5,5,9
.LBE7751:
.LBE7753:
.LBB7754:
.LBB7755:
	.loc 5 439 0
	fmuls 3,3,10
	fmuls 4,4,10
	fmuls 10,5,10
.LVL954:
.LBE7755:
.LBE7754:
	.loc 7 202 0
	bne- 7,.L311
	.loc 7 204 0
	fcmpu 7,13,6
	bne- 7,.L312
.LVL955:
.LBB7756:
.LBB7757:
	.loc 4 103 0
	li 0,8
	.loc 4 104 0
	stfs 11,332(11)
	.loc 4 103 0
	stw 0,328(11)
	.loc 4 105 0
	stfs 12,336(11)
.LVL956:
.L310:
.LBB7758:
.LBB7759:
	.loc 5 424 0
	lwz 0,0(8)
.LBE7759:
.LBE7758:
.LBE7757:
.LBE7756:
.LBB7776:
.LBB7777:
	.loc 5 431 0
	fsubs 7,7,7
	fsubs 8,8,8
.LBE7777:
.LBE7776:
.LBB7779:
.LBB7774:
	.loc 4 109 0
	lis 9,.LC3@ha
.LBB7763:
.LBB7760:
	.loc 5 424 0
	stw 0,340(11)
.LBE7760:
.LBE7763:
.LBE7774:
.LBE7779:
.LBB7780:
.LBB7778:
	.loc 5 431 0
	fsubs 9,9,9
.LBE7778:
.LBE7780:
.LBB7781:
.LBB7775:
.LBB7764:
.LBB7761:
	.loc 5 425 0
	lwz 0,4(8)
	stw 0,344(11)
	.loc 5 426 0
	lwz 0,8(8)
.LBE7761:
.LBE7764:
.LBB7765:
.LBB7766:
	.loc 5 424 0
	stfs 7,352(11)
.LBE7766:
.LBE7765:
.LBB7768:
.LBB7762:
	.loc 5 426 0
	stw 0,348(11)
.LVL957:
.LBE7762:
.LBE7768:
	.loc 4 109 0
	lwz 0,.LC3@l(9)
.LBB7769:
.LBB7767:
	.loc 5 425 0
	stfs 8,356(11)
	.loc 5 426 0
	stfs 9,360(11)
.LVL958:
.LBE7767:
.LBE7769:
.LBB7770:
.LBB7771:
	.loc 5 424 0
	stfs 3,364(11)
	.loc 5 425 0
	stfs 4,368(11)
	.loc 5 426 0
	stfs 10,372(11)
.LBE7771:
.LBE7770:
	.loc 4 109 0
	stw 0,376(11)
.LVL959:
.LBB7772:
.LBB7773:
	.loc 5 424 0
	lwz 0,0(8)
	stw 0,380(11)
	.loc 5 425 0
	lwz 0,4(8)
	stw 0,384(11)
	.loc 5 426 0
	lwz 0,8(8)
	stw 0,388(11)
.LVL960:
.L305:
.LBE7773:
.LBE7772:
.LBE7775:
.LBE7781:
.LBE7747:
.LBE7746:
.LBE7745:
.LBE7793:
.LBB7794:
.LBB7795:
	.loc 5 424 0
	lwz 0,0(8)
.LBE7795:
.LBE7794:
	.loc 2 384 0
	mr 3,11
.LVL961:
	lwz 9,0(11)
.LBB7797:
.LBB7796:
	.loc 5 424 0
	stw 0,136(11)
	.loc 5 425 0
	lwz 0,4(8)
	stw 0,140(11)
	.loc 5 426 0
	lwz 0,8(8)
	stw 0,144(11)
.LBE7796:
.LBE7797:
	.loc 2 384 0
	lwz 0,88(9)
	mtctr 0
	bctrl
.LVL962:
	.loc 2 385 0
	lwz 0,44(1)
	addi 1,1,40
	.cfi_remember_state
.LCFI99:
	.cfi_def_cfa_offset 0
	mtlr 0
	blr
.LVL963:
.L306:
.LCFI100:
	.cfi_restore_state
.LBB7798:
.LBB7788:
.LBB7787:
.LBB7786:
	.loc 7 196 0
	fmuls 0,0,13
.LVL964:
	fdivs 0,0,10
	.loc 7 197 0
	fsubs 13,13,0
.LVL965:
	.loc 7 196 0
	stfs 0,292(3)
	.loc 7 197 0
	fadds 10,0,13
	stfs 13,300(3)
	fmr 12,13
.LVL966:
	b .L307
.LVL967:
.L311:
.LBB7782:
.LBB7783:
	.loc 4 103 0
	li 0,4
	.loc 4 104 0
	stfs 11,332(11)
	.loc 4 103 0
	stw 0,328(11)
	.loc 4 105 0
	stfs 0,336(11)
.LVL968:
	b .L310
.LVL969:
.L312:
.LBE7783:
.LBE7782:
.LBB7784:
.LBB7785:
	.loc 4 103 0
	li 0,2
	.loc 4 104 0
	stfs 11,332(11)
	.loc 4 103 0
	stw 0,328(11)
	.loc 4 105 0
	stfs 13,336(11)
.LVL970:
	b .L310
.LBE7785:
.LBE7784:
.LBE7786:
.LBE7787:
.LBE7788:
.LBE7798:
	.cfi_endproc
.LFE2850:
	.size	_ZN20idPhysics_Parametric22SetLinearInterpolationEiiiiRK6idVec3S2_, .-_ZN20idPhysics_Parametric22SetLinearInterpolationEiiiiRK6idVec3S2_
	.align 2
	.globl _ZN20idPhysics_Parametric23SetAngularInterpolationEiiiiRK8idAnglesS2_
	.type	_ZN20idPhysics_Parametric23SetAngularInterpolationEiiiiRK8idAnglesS2_, @function
_ZN20idPhysics_Parametric23SetAngularInterpolationEiiiiRK8idAnglesS2_:
.LFB2851:
	.loc 2 392 0
	.cfi_startproc
.LVL971:
	mflr 0
	stwu 1,-40(1)
.LCFI101:
	.cfi_def_cfa_offset 40
	.cfi_register 65, 0
	.loc 2 394 0
	xoris 4,4,0x8000
.LVL972:
	xoris 5,5,0x8000
.LVL973:
	xoris 6,6,0x8000
.LVL974:
	stw 4,12(1)
	.loc 2 392 0
	stw 0,44(1)
	.loc 2 394 0
	lis 0,0x4330
	.cfi_offset 65, 4
	stw 0,8(1)
	lis 11,.LC2@ha
	stw 0,16(1)
	xoris 7,7,0x8000
.LVL975:
	stw 0,24(1)
	stw 5,20(1)
	stw 6,28(1)
	lfd 11,8(1)
	lfd 0,16(1)
	lfd 12,24(1)
	lfs 13,.LC2@l(11)
	.loc 2 393 0
	lis 11,gameLocal+2426836@ha
	lwz 10,gameLocal+2426836@l(11)
	.loc 2 392 0
	mr 11,3
	.loc 2 394 0
	fsub 11,11,13
	fsub 0,0,13
	.loc 2 393 0
	stw 10,68(3)
	.loc 2 394 0
	fsub 12,12,13
	frsp 11,11
	frsp 0,0
	frsp 12,12
.LBB7867:
.LBB7868:
	.loc 7 185 0
	stfs 11,392(3)
	.loc 7 186 0
	stfs 0,396(3)
	.loc 7 187 0
	stfs 12,404(3)
.LBB7869:
.LBB7870:
	.loc 6 146 0
	lwz 10,0(8)
	stw 10,408(3)
.LBE7870:
.LBE7869:
.LBE7868:
.LBE7867:
	.loc 2 394 0
	stw 0,32(1)
.LBB7934:
.LBB7885:
.LBB7875:
.LBB7871:
	.loc 6 147 0
	lwz 10,4(8)
.LBE7871:
.LBE7875:
.LBE7885:
.LBE7934:
	.loc 2 394 0
	stw 7,36(1)
.LBB7935:
.LBB7886:
.LBB7876:
.LBB7872:
	.loc 6 147 0
	stw 10,412(3)
.LBE7872:
.LBE7876:
	.loc 7 191 0
	lis 10,.LC0@ha
.LBE7886:
.LBE7935:
	.loc 2 394 0
	lfd 10,32(1)
.LBB7936:
.LBB7887:
.LBB7877:
.LBB7873:
	.loc 6 148 0
	lwz 0,8(8)
.LBE7873:
.LBE7877:
.LBE7887:
.LBE7936:
	.loc 2 394 0
	fsub 13,10,13
.LBB7937:
.LBB7888:
	.loc 7 191 0
	lfs 10,.LC0@l(10)
.LBB7878:
.LBB7874:
	.loc 6 148 0
	stw 0,416(3)
.LBE7874:
.LBE7878:
.LBE7888:
.LBE7937:
	.loc 2 394 0
	frsp 13,13
.LVL976:
.LBB7938:
.LBB7889:
.LBB7879:
.LBB7880:
	.loc 6 146 0
	lwz 0,0(9)
	stw 0,420(3)
.LBE7880:
.LBE7879:
	.loc 7 191 0
	fcmpu 7,13,10
.LBB7883:
.LBB7881:
	.loc 6 147 0
	lwz 0,4(9)
.LBE7881:
.LBE7883:
	.loc 7 191 0
	cror 30,28,30
.LBB7884:
.LBB7882:
	.loc 6 147 0
	stw 0,424(3)
	.loc 6 148 0
	lwz 0,8(9)
	stw 0,428(3)
.LBE7882:
.LBE7884:
	.loc 7 191 0
	beq- 7,.L314
.LVL977:
.LBE7889:
.LBB7890:
.LBB7891:
.LBB7892:
	.loc 7 195 0
	fadds 10,0,12
	fcmpu 7,13,10
	blt- 7,.L315
	fsubs 13,13,0
.LVL978:
.L316:
	.loc 7 199 0
	fsubs 13,13,12
	.loc 7 200 0
	lis 10,.LC8@ha
	lfs 9,.LC8@l(10)
	lis 10,.LC9@ha
	fmadds 10,10,9,13
	lfs 9,.LC9@l(10)
	.loc 7 199 0
	stfs 13,400(11)
.LVL979:
	.loc 7 200 0
	fdivs 10,9,10
.LBB7893:
.LBB7894:
	.loc 6 165 0
	lfs 3,0(9)
	lfs 4,4(9)
	lfs 5,8(9)
.LBE7894:
.LBE7893:
	.loc 7 202 0
	lis 9,.LC0@ha
.LVL980:
	lfs 6,.LC0@l(9)
.LBB7897:
.LBB7895:
	.loc 6 165 0
	lfs 7,0(8)
	lfs 8,4(8)
	lfs 9,8(8)
.LVL981:
.LBE7895:
.LBE7897:
	.loc 7 202 0
	fcmpu 7,0,6
.LBB7898:
.LBB7896:
	.loc 6 165 0
	fsubs 3,3,7
	fsubs 4,4,8
	fsubs 5,5,9
.LBE7896:
.LBE7898:
.LBB7899:
.LBB7900:
	.loc 6 177 0
	fmuls 3,3,10
	fmuls 4,4,10
	fmuls 10,5,10
.LVL982:
.LBE7900:
.LBE7899:
	.loc 7 202 0
	bne- 7,.L320
	.loc 7 204 0
	fcmpu 7,13,6
	bne- 7,.L321
.LVL983:
.LBB7901:
.LBB7902:
	.loc 4 103 0
	li 0,8
	.loc 4 104 0
	stfs 11,436(11)
	.loc 4 103 0
	stw 0,432(11)
	.loc 4 105 0
	stfs 12,440(11)
.LVL984:
.L319:
.LBB7903:
.LBB7904:
	.loc 6 146 0
	lwz 0,0(8)
.LBE7904:
.LBE7903:
.LBE7902:
.LBE7901:
.LBB7921:
.LBB7922:
	.loc 6 165 0
	fsubs 7,7,7
	fsubs 8,8,8
.LBE7922:
.LBE7921:
.LBB7924:
.LBB7919:
	.loc 4 109 0
	lis 9,.LC3@ha
.LBB7908:
.LBB7905:
	.loc 6 146 0
	stw 0,444(11)
.LBE7905:
.LBE7908:
.LBE7919:
.LBE7924:
.LBB7925:
.LBB7923:
	.loc 6 165 0
	fsubs 9,9,9
.LBE7923:
.LBE7925:
.LBB7926:
.LBB7920:
.LBB7909:
.LBB7906:
	.loc 6 147 0
	lwz 0,4(8)
	stw 0,448(11)
	.loc 6 148 0
	lwz 0,8(8)
.LBE7906:
.LBE7909:
.LBB7910:
.LBB7911:
	.loc 6 146 0
	stfs 7,456(11)
.LBE7911:
.LBE7910:
.LBB7913:
.LBB7907:
	.loc 6 148 0
	stw 0,452(11)
.LVL985:
.LBE7907:
.LBE7913:
	.loc 4 109 0
	lwz 0,.LC3@l(9)
.LBB7914:
.LBB7912:
	.loc 6 147 0
	stfs 8,460(11)
	.loc 6 148 0
	stfs 9,464(11)
.LVL986:
.LBE7912:
.LBE7914:
.LBB7915:
.LBB7916:
	.loc 6 146 0
	stfs 3,468(11)
	.loc 6 147 0
	stfs 4,472(11)
	.loc 6 148 0
	stfs 10,476(11)
.LBE7916:
.LBE7915:
	.loc 4 109 0
	stw 0,480(11)
.LVL987:
.LBB7917:
.LBB7918:
	.loc 6 146 0
	lwz 0,0(8)
	stw 0,484(11)
	.loc 6 147 0
	lwz 0,4(8)
	stw 0,488(11)
	.loc 6 148 0
	lwz 0,8(8)
	stw 0,492(11)
.LVL988:
.L314:
.LBE7918:
.LBE7917:
.LBE7920:
.LBE7926:
.LBE7892:
.LBE7891:
.LBE7890:
.LBE7938:
.LBB7939:
.LBB7940:
	.loc 6 146 0
	lwz 0,0(8)
.LBE7940:
.LBE7939:
	.loc 2 396 0
	mr 3,11
.LVL989:
	lwz 9,0(11)
.LBB7942:
.LBB7941:
	.loc 6 146 0
	stw 0,148(11)
	.loc 6 147 0
	lwz 0,4(8)
	stw 0,152(11)
	.loc 6 148 0
	lwz 0,8(8)
	stw 0,156(11)
.LBE7941:
.LBE7942:
	.loc 2 396 0
	lwz 0,88(9)
	mtctr 0
	bctrl
.LVL990:
	.loc 2 397 0
	lwz 0,44(1)
	addi 1,1,40
	.cfi_remember_state
.LCFI102:
	.cfi_def_cfa_offset 0
	mtlr 0
	blr
.LVL991:
.L315:
.LCFI103:
	.cfi_restore_state
.LBB7943:
.LBB7933:
.LBB7932:
.LBB7931:
	.loc 7 196 0
	fmuls 0,0,13
.LVL992:
	fdivs 0,0,10
	.loc 7 197 0
	fsubs 13,13,0
.LVL993:
	.loc 7 196 0
	stfs 0,396(3)
	.loc 7 197 0
	fadds 10,0,13
	stfs 13,404(3)
	fmr 12,13
.LVL994:
	b .L316
.LVL995:
.L320:
.LBB7927:
.LBB7928:
	.loc 4 103 0
	li 0,4
	.loc 4 104 0
	stfs 11,436(11)
	.loc 4 103 0
	stw 0,432(11)
	.loc 4 105 0
	stfs 0,440(11)
.LVL996:
	b .L319
.LVL997:
.L321:
.LBE7928:
.LBE7927:
.LBB7929:
.LBB7930:
	.loc 4 103 0
	li 0,2
	.loc 4 104 0
	stfs 11,436(11)
	.loc 4 103 0
	stw 0,432(11)
	.loc 4 105 0
	stfs 13,440(11)
.LVL998:
	b .L319
.LBE7930:
.LBE7929:
.LBE7931:
.LBE7932:
.LBE7933:
.LBE7943:
	.cfi_endproc
.LFE2851:
	.size	_ZN20idPhysics_Parametric23SetAngularInterpolationEiiiiRK8idAnglesS2_, .-_ZN20idPhysics_Parametric23SetAngularInterpolationEiiiiRK8idAnglesS2_
	.align 2
	.globl _ZNK20idPhysics_Parametric9GetSplineEv
	.type	_ZNK20idPhysics_Parametric9GetSplineEv, @function
_ZNK20idPhysics_Parametric9GetSplineEv:
.LFB2853:
	.loc 2 425 0
	.cfi_startproc
.LVL999:
	.loc 2 427 0
	lwz 3,496(3)
.LVL1000:
	blr
	.cfi_endproc
.LFE2853:
	.size	_ZNK20idPhysics_Parametric9GetSplineEv, .-_ZNK20idPhysics_Parametric9GetSplineEv
	.align 2
	.globl _ZNK20idPhysics_Parametric21GetSplineAccelerationEv
	.type	_ZNK20idPhysics_Parametric21GetSplineAccelerationEv, @function
_ZNK20idPhysics_Parametric21GetSplineAccelerationEv:
.LFB2854:
	.loc 2 434 0
	.cfi_startproc
.LVL1001:
	stwu 1,-16(1)
.LCFI104:
	.cfi_def_cfa_offset 16
	.loc 2 435 0
	lfs 0,504(3)
	.loc 2 436 0
	addi 9,1,8
	fctiwz 0,0
	stfiwx 0,0,9
	lwz 3,8(1)
.LVL1002:
	addi 1,1,16
.LCFI105:
	.cfi_def_cfa_offset 0
	blr
	.cfi_endproc
.LFE2854:
	.size	_ZNK20idPhysics_Parametric21GetSplineAccelerationEv, .-_ZNK20idPhysics_Parametric21GetSplineAccelerationEv
	.align 2
	.globl _ZNK20idPhysics_Parametric21GetSplineDecelerationEv
	.type	_ZNK20idPhysics_Parametric21GetSplineDecelerationEv, @function
_ZNK20idPhysics_Parametric21GetSplineDecelerationEv:
.LFB2855:
	.loc 2 443 0
	.cfi_startproc
.LVL1003:
	stwu 1,-16(1)
.LCFI106:
	.cfi_def_cfa_offset 16
	.loc 2 444 0
	lfs 0,512(3)
	.loc 2 445 0
	addi 9,1,8
	fctiwz 0,0
	stfiwx 0,0,9
	lwz 3,8(1)
.LVL1004:
	addi 1,1,16
.LCFI107:
	.cfi_def_cfa_offset 0
	blr
	.cfi_endproc
.LFE2855:
	.size	_ZNK20idPhysics_Parametric21GetSplineDecelerationEv, .-_ZNK20idPhysics_Parametric21GetSplineDecelerationEv
	.align 2
	.globl _ZNK20idPhysics_Parametric17UsingSplineAnglesEv
	.type	_ZNK20idPhysics_Parametric17UsingSplineAnglesEv, @function
_ZNK20idPhysics_Parametric17UsingSplineAnglesEv:
.LFB2856:
	.loc 2 452 0
	.cfi_startproc
.LVL1005:
	.loc 2 454 0
	lbz 3,556(3)
.LVL1006:
	blr
	.cfi_endproc
.LFE2856:
	.size	_ZNK20idPhysics_Parametric17UsingSplineAnglesEv, .-_ZNK20idPhysics_Parametric17UsingSplineAnglesEv
	.align 2
	.globl _ZNK20idPhysics_Parametric14GetLocalOriginER6idVec3
	.type	_ZNK20idPhysics_Parametric14GetLocalOriginER6idVec3, @function
_ZNK20idPhysics_Parametric14GetLocalOriginER6idVec3:
.LFB2857:
	.loc 2 461 0
	.cfi_startproc
.LVL1007:
.LBB7944:
.LBB7945:
	.loc 5 424 0
	lwz 0,136(3)
.LVL1008:
.LBE7945:
.LBE7944:
	.loc 2 463 0
.LBB7947:
.LBB7946:
	.loc 5 424 0
	stw 0,0(4)
	.loc 5 425 0
	lwz 0,140(3)
	stw 0,4(4)
	.loc 5 426 0
	lwz 0,144(3)
	stw 0,8(4)
.LBE7946:
.LBE7947:
	.loc 2 463 0
	blr
	.cfi_endproc
.LFE2857:
	.size	_ZNK20idPhysics_Parametric14GetLocalOriginER6idVec3, .-_ZNK20idPhysics_Parametric14GetLocalOriginER6idVec3
	.align 2
	.globl _ZNK20idPhysics_Parametric14GetLocalAnglesER8idAngles
	.type	_ZNK20idPhysics_Parametric14GetLocalAnglesER8idAngles, @function
_ZNK20idPhysics_Parametric14GetLocalAnglesER8idAngles:
.LFB2858:
	.loc 2 470 0
	.cfi_startproc
.LVL1009:
.LBB7948:
.LBB7949:
	.loc 6 146 0
	lwz 0,148(3)
.LVL1010:
.LBE7949:
.LBE7948:
	.loc 2 472 0
.LBB7951:
.LBB7950:
	.loc 6 146 0
	stw 0,0(4)
	.loc 6 147 0
	lwz 0,152(3)
	stw 0,4(4)
	.loc 6 148 0
	lwz 0,156(3)
	stw 0,8(4)
.LBE7950:
.LBE7951:
	.loc 2 472 0
	blr
	.cfi_endproc
.LFE2858:
	.size	_ZNK20idPhysics_Parametric14GetLocalAnglesER8idAngles, .-_ZNK20idPhysics_Parametric14GetLocalAnglesER8idAngles
	.align 2
	.globl _ZNK20idPhysics_Parametric9GetAnglesER8idAngles
	.type	_ZNK20idPhysics_Parametric9GetAnglesER8idAngles, @function
_ZNK20idPhysics_Parametric9GetAnglesER8idAngles:
.LFB2882:
	.loc 2 835 0
	.cfi_startproc
.LVL1011:
.LBB7952:
.LBB7953:
	.loc 6 146 0
	lwz 0,88(3)
.LVL1012:
.LBE7953:
.LBE7952:
	.loc 2 837 0
.LBB7955:
.LBB7954:
	.loc 6 146 0
	stw 0,0(4)
	.loc 6 147 0
	lwz 0,92(3)
	stw 0,4(4)
	.loc 6 148 0
	lwz 0,96(3)
	stw 0,8(4)
.LBE7954:
.LBE7955:
	.loc 2 837 0
	blr
	.cfi_endproc
.LFE2882:
	.size	_ZNK20idPhysics_Parametric9GetAnglesER8idAngles, .-_ZNK20idPhysics_Parametric9GetAnglesER8idAngles
	.section	.text._ZNK7idCurveI6idVec3E15RombergIntegralEffi,"axG",@progbits,_ZNK7idCurveI6idVec3E15RombergIntegralEffi,comdat
	.align 2
	.weak	_ZNK7idCurveI6idVec3E15RombergIntegralEffi
	.type	_ZNK7idCurveI6idVec3E15RombergIntegralEffi, @function
_ZNK7idCurveI6idVec3E15RombergIntegralEffi:
.LFB3248:
	.loc 8 203 0
	.cfi_startproc
.LVL1013:
	mflr 0
	stwu 1,-216(1)
.LCFI108:
	.cfi_def_cfa_offset 216
	.cfi_register 65, 0
.LBB7999:
	.loc 8 208 0
	slwi 9,4,2
.LBE7999:
	.loc 8 203 0
	stfd 25,160(1)
	stw 0,220(1)
.LBB8146:
	.loc 8 208 0
	addi 0,9,45
	.cfi_offset 65, 4
	.cfi_offset 57, -56
	rlwinm 0,0,0,0,27
	lwz 9,0(1)
	neg 0,0
.LBE8146:
	.loc 8 203 0
	stfd 26,168(1)
	stfd 27,176(1)
.LBB8147:
	.loc 8 209 0
	mr 11,9
.LBE8147:
	.loc 8 203 0
	stfd 28,184(1)
	fmr 28,2
	.cfi_offset 60, -32
	.cfi_offset 59, -40
	.cfi_offset 58, -48
	stfd 29,192(1)
	stfd 30,200(1)
	stfd 31,208(1)
	fmr 31,1
	.cfi_offset 63, -8
	.cfi_offset 62, -16
	.cfi_offset 61, -24
	stw 17,100(1)
.LBB8148:
.LBB8000:
.LBB8001:
.LBB8002:
.LBB8003:
.LBB8004:
	.loc 12 275 0
	lis 17,.LC8@ha
	.cfi_offset 17, -116
.LBE8004:
.LBE8003:
.LBE8002:
.LBE8001:
.LBE8000:
.LBE8148:
	.loc 8 203 0
	stw 20,112(1)
	mr 20,4
	.cfi_offset 20, -104
	stw 21,116(1)
	stw 22,120(1)
	stw 24,128(1)
.LBB8149:
.LBB8065:
.LBB8048:
.LBB8027:
.LBB8016:
.LBB8005:
	.loc 12 278 0
	lis 24,.LC13@ha
	.cfi_offset 24, -88
	.cfi_offset 22, -96
	.cfi_offset 21, -100
.LBE8005:
.LBE8016:
.LBE8027:
.LBE8048:
.LBE8065:
.LBE8149:
	.loc 8 203 0
	stw 25,132(1)
.LBB8150:
.LBB8066:
.LBB8049:
.LBB8028:
.LBB8017:
.LBB8006:
	.loc 12 276 0
	lis 25,_ZN6idMath5iSqrtE@ha
	.cfi_offset 25, -84
.LBE8006:
.LBE8017:
.LBE8028:
.LBE8049:
.LBE8066:
.LBE8150:
	.loc 8 203 0
	stw 28,144(1)
	mr 28,3
	.cfi_offset 28, -72
	stw 31,156(1)
	mr 31,1
	.cfi_offset 31, -60
.LCFI109:
	.cfi_def_cfa_register 31
	stw 18,104(1)
.LBB8151:
.LBB8067:
.LBB8050:
	.loc 8 190 0
	mr 4,28
.LVL1014:
.LBE8050:
.LBE8067:
.LBE8151:
	.loc 8 203 0
	stw 19,108(1)
.LBB8152:
.LBB8068:
.LBB8051:
.LBB8029:
.LBB8018:
.LBB8007:
	.loc 12 276 0
	la 25,_ZN6idMath5iSqrtE@l(25)
.LBE8007:
.LBE8018:
.LBE8029:
.LBE8051:
.LBE8068:
.LBE8152:
	.loc 8 203 0
	stw 23,124(1)
	stw 26,136(1)
	stw 27,140(1)
	stw 29,148(1)
	stw 30,152(1)
.LBB8153:
	.loc 8 208 0
	stwux 9,1,0
.LBB8069:
.LBB8052:
	.loc 8 190 0
	lwz 9,0(3)
.LBE8052:
.LBE8069:
	.loc 8 208 0
	addi 21,1,23
	.loc 8 209 0
	stwux 11,1,0
.LBB8070:
.LBB8053:
	.loc 8 190 0
	addi 3,31,32
.LVL1015:
.LBE8053:
.LBE8070:
	.loc 8 208 0
	rlwinm 21,21,0,0,27
.LVL1016:
.LBB8071:
.LBB8054:
	.loc 8 190 0
	lwz 0,24(9)
.LBE8054:
.LBE8071:
	.loc 8 209 0
	addi 22,1,23
	rlwinm 22,22,0,0,27
.LVL1017:
.LBB8072:
.LBB8055:
	.loc 8 190 0
	mtctr 0
	.cfi_offset 30, -64
	.cfi_offset 29, -68
	.cfi_offset 27, -76
	.cfi_offset 26, -80
	.cfi_offset 23, -92
	.cfi_offset 19, -108
	.cfi_offset 18, -112
	bctrl
.LVL1018:
.LBB8030:
.LBB8031:
	.loc 8 192 0
	lis 9,.LC0@ha
	lfs 27,.LC0@l(9)
.LBE8031:
.LBE8030:
.LBE8055:
.LBE8072:
.LBB8073:
.LBB8074:
	.loc 8 190 0
	fmr 1,28
.LBE8074:
.LBE8073:
.LBB8103:
.LBB8056:
.LBB8036:
.LBB8032:
	.loc 5 424 0
	lfs 0,32(31)
.LBE8032:
.LBE8036:
.LBE8056:
.LBE8103:
.LBB8104:
.LBB8093:
	.loc 8 190 0
	addi 3,31,20
.LBE8093:
.LBE8104:
.LBB8105:
.LBB8057:
.LBB8037:
.LBB8033:
	.loc 5 425 0
	lfs 13,36(31)
.LBE8033:
.LBE8037:
.LBE8057:
.LBE8105:
.LBB8106:
.LBB8094:
	.loc 8 190 0
	mr 4,28
.LBE8094:
.LBE8106:
.LBB8107:
.LBB8058:
.LBB8038:
.LBB8034:
	.loc 8 192 0
	fmadds 12,0,0,27
	.loc 5 426 0
	lfs 0,40(31)
.LBE8034:
.LBE8038:
.LBB8039:
.LBB8019:
.LBB8008:
	.loc 12 275 0
	lfs 29,.LC8@l(17)
.LBE8008:
.LBE8019:
.LBE8039:
.LBE8058:
.LBE8107:
	.loc 8 211 0
	fsubs 28,28,31
.LVL1019:
.LBB8108:
.LBB8059:
.LBB8040:
.LBB8020:
.LBB8009:
	.loc 12 278 0
	lfs 30,.LC13@l(24)
.LBE8009:
.LBE8020:
.LBE8040:
.LBB8041:
.LBB8035:
	.loc 8 192 0
	fmadds 13,13,13,12
	fmadds 13,0,0,13
	stfs 13,80(31)
.LBE8035:
.LBE8041:
.LBB8042:
.LBB8021:
.LBB8010:
	.loc 12 275 0
	fmuls 0,13,29
	.loc 12 270 0
	lwz 0,80(31)
	.loc 8 203 0
	fneg 0,0
	.loc 12 276 0
	rlwinm 9,0,9,24,31
	rlwinm 0,0,19,21,29
	lwzx 0,25,0
	subfic 9,9,380
	rlwinm 9,9,22,0,8
	or 0,9,0
	.loc 12 277 0
	stw 0,88(31)
	lfs 10,88(31)
.LBE8010:
.LBE8021:
.LBE8042:
.LBE8059:
.LBE8108:
.LBB8109:
.LBB8095:
	.loc 8 190 0
	lwz 9,0(28)
.LBE8095:
.LBE8109:
.LBB8110:
.LBB8060:
.LBB8043:
.LBB8022:
.LBB8011:
	.loc 12 277 0
	fmr 13,10
.LVL1020:
.LBE8011:
.LBE8022:
.LBE8043:
.LBE8060:
.LBE8110:
.LBB8111:
.LBB8096:
	.loc 8 190 0
	lwz 0,24(9)
.LBE8096:
.LBE8111:
.LBB8112:
.LBB8061:
.LBB8044:
.LBB8023:
.LBB8012:
	.loc 12 278 0
	fmul 26,13,13
.LBE8012:
.LBE8023:
.LBE8044:
.LBE8061:
.LBE8112:
.LBB8113:
.LBB8097:
	.loc 8 190 0
	mtctr 0
.LBE8097:
.LBE8113:
.LBB8114:
.LBB8062:
.LBB8045:
.LBB8024:
.LBB8013:
	.loc 12 278 0
	fmadd 26,0,26,30
	fmul 26,13,26
.LVL1021:
	.loc 12 279 0
	fmul 25,26,26
	fmadd 25,0,25,30
.LVL1022:
.LBE8013:
.LBE8024:
.LBE8045:
.LBE8062:
.LBE8114:
.LBB8115:
.LBB8098:
	.loc 8 190 0
	bctrl
.LVL1023:
.LBB8075:
.LBB8076:
	.loc 5 424 0
	lfs 0,20(31)
.LBE8076:
.LBE8075:
.LBE8098:
.LBE8115:
	.loc 8 214 0
	cmpwi 7,20,1
.LBB8116:
.LBB8099:
.LBB8080:
.LBB8077:
	.loc 5 425 0
	lfs 13,24(31)
	.loc 8 192 0
	fmadds 12,0,0,27
	.loc 5 426 0
	lfs 0,28(31)
.LVL1024:
.LBE8077:
.LBE8080:
.LBE8099:
.LBE8116:
.LBB8117:
.LBB8063:
.LBB8046:
.LBB8025:
.LBB8014:
	.loc 12 279 0
	fmul 11,26,25
.LBE8014:
.LBE8025:
.LBE8046:
.LBE8063:
.LBE8117:
.LBB8118:
.LBB8100:
.LBB8081:
.LBB8078:
	.loc 8 192 0
	fmadds 13,13,13,12
.LVL1025:
.LBE8078:
.LBE8081:
.LBE8100:
.LBE8118:
	.loc 8 212 0
	fmuls 12,28,29
.LBB8119:
.LBB8064:
.LBB8047:
.LBB8026:
.LBB8015:
	.loc 12 280 0
	frsp 11,11
.LBE8015:
.LBE8026:
.LBE8047:
.LBE8064:
.LBE8119:
.LBB8120:
.LBB8101:
.LBB8082:
.LBB8079:
	.loc 8 192 0
	fmadds 13,0,0,13
.LVL1026:
	stfs 13,84(31)
.LVL1027:
.LBE8079:
.LBE8082:
.LBB8083:
.LBB8084:
.LBB8085:
.LBB8086:
	.loc 12 275 0
	fmuls 13,13,29
.LVL1028:
	.loc 12 270 0
	lwz 0,84(31)
.LVL1029:
	.loc 8 203 0
	fneg 13,13
	.loc 12 276 0
	rlwinm 9,0,9,24,31
	rlwinm 0,0,19,21,29
	lwzx 0,25,0
	subfic 9,9,380
	rlwinm 9,9,22,0,8
	or 0,9,0
	.loc 12 277 0
	stw 0,88(31)
	lfs 10,88(31)
	fmr 0,10
.LVL1030:
	.loc 12 278 0
	fmul 10,0,0
.LVL1031:
	fmadd 10,13,10,30
	fmul 0,0,10
.LVL1032:
	.loc 12 279 0
	fmul 10,0,0
	fmadd 13,13,10,30
.LVL1033:
.LBE8086:
.LBE8085:
.LBE8084:
.LBE8083:
.LBE8101:
.LBE8120:
	.loc 8 212 0
	lfs 10,80(31)
.LBB8121:
.LBB8102:
.LBB8092:
.LBB8091:
.LBB8089:
.LBB8087:
	.loc 12 279 0
	fmul 0,0,13
.LVL1034:
.LBE8087:
.LBE8089:
	.loc 12 303 0
	lfs 13,84(31)
.LBB8090:
.LBB8088:
	.loc 12 280 0
	frsp 0,0
.LVL1035:
.LBE8088:
.LBE8090:
	.loc 12 303 0
	fmuls 0,0,13
.LBE8091:
.LBE8092:
.LBE8102:
.LBE8121:
	.loc 8 212 0
	fmadds 0,11,10,0
	fmuls 0,12,0
	stfs 0,0(21)
.LVL1036:
	.loc 8 214 0
	ble- 7,.L331
	lis 19,.LC2@ha
	.loc 8 219 0
	fmr 25,29
.LVL1037:
	la 19,.LC2@l(19)
	.loc 8 214 0
	li 26,1
	.loc 8 219 0
	lfs 26,0(19)
	.loc 8 214 0
	li 23,2
	la 17,.LC8@l(17)
	la 24,.LC13@l(24)
	subf 27,22,21
	addi 18,22,-4
	.loc 8 219 0
	lis 29,0x4330
.LVL1038:
.L330:
.LBE8153:
	.loc 8 203 0 discriminator 1
	lis 9,.LC0@ha
	li 30,1
	lfs 30,.LC0@l(9)
.LVL1039:
.L332:
.LBB8154:
	.loc 8 219 0 discriminator 2
	xoris 0,30,0x8000
	stw 29,56(31)
	stw 0,60(31)
.LBB8122:
.LBB8123:
	.loc 8 190 0 discriminator 2
	addi 3,31,8
	mr 4,28
.LBE8123:
.LBE8122:
	.loc 8 218 0 discriminator 2
	addi 30,30,1
.LVL1040:
	.loc 8 219 0 discriminator 2
	lfd 1,56(31)
.LBB8141:
.LBB8136:
	.loc 8 190 0 discriminator 2
	lwz 9,0(28)
.LBE8136:
.LBE8141:
	.loc 8 219 0 discriminator 2
	fsub 1,1,26
.LBB8142:
.LBB8137:
	.loc 8 190 0 discriminator 2
	lwz 0,24(9)
.LVL1041:
.LBE8137:
.LBE8142:
	.loc 8 219 0 discriminator 2
	frsp 1,1
.LBB8143:
.LBB8138:
	.loc 8 190 0 discriminator 2
	mtctr 0
.LBE8138:
.LBE8143:
	.loc 8 219 0 discriminator 2
	fsubs 1,1,29
.LBB8144:
.LBB8139:
	.loc 8 190 0 discriminator 2
	fmadds 1,1,28,31
	bctrl
.LVL1042:
.LBB8124:
.LBB8125:
	.loc 5 424 0 discriminator 2
	lfs 0,8(31)
	.loc 5 425 0 discriminator 2
	lfs 13,12(31)
.LBE8125:
.LBE8124:
.LBE8139:
.LBE8144:
	.loc 8 218 0 discriminator 2
	cmpw 7,30,26
.LBB8145:
.LBB8140:
.LBB8128:
.LBB8126:
	.loc 8 192 0 discriminator 2
	fmadds 11,0,0,27
	.loc 5 426 0 discriminator 2
	lfs 0,16(31)
.LVL1043:
.LBE8126:
.LBE8128:
.LBB8129:
.LBB8130:
.LBB8131:
	.loc 12 278 0 discriminator 2
	lfs 12,0(24)
.LBE8131:
.LBE8130:
.LBE8129:
.LBB8134:
.LBB8127:
	.loc 8 192 0 discriminator 2
	fmadds 13,13,13,11
.LVL1044:
	fmadds 13,0,0,13
.LVL1045:
	stfs 13,80(31)
.LVL1046:
.LBE8127:
.LBE8134:
.LBB8135:
.LBB8133:
.LBB8132:
	.loc 12 275 0 discriminator 2
	fmuls 11,13,29
	.loc 12 270 0 discriminator 2
	lwz 0,80(31)
.LVL1047:
	.loc 8 203 0 discriminator 2
	fneg 11,11
	.loc 8 219 0 discriminator 2
	lfs 10,80(31)
	.loc 12 276 0 discriminator 2
	rlwinm 9,0,19,21,29
	rlwinm 11,0,9,24,31
	subfic 0,11,380
	lwzx 9,25,9
	rlwinm 0,0,22,0,8
	or 0,0,9
	.loc 12 277 0 discriminator 2
	stw 0,88(31)
	lfs 0,88(31)
	fmr 13,0
.LVL1048:
	.loc 12 278 0 discriminator 2
	fmul 0,13,13
.LVL1049:
	fmadd 0,11,0,12
	fmul 0,13,0
.LVL1050:
	.loc 12 279 0 discriminator 2
	fmul 13,0,0
	fmadd 12,11,13,12
.LVL1051:
	fmul 0,0,12
.LVL1052:
	.loc 12 280 0 discriminator 2
	frsp 0,0
.LVL1053:
	.loc 8 219 0 discriminator 2
	fmadds 30,0,10,30
.LVL1054:
.LBE8132:
.LBE8133:
.LBE8135:
.LBE8140:
.LBE8145:
	.loc 8 218 0 discriminator 2
	ble+ 7,.L332
.LVL1055:
	.loc 8 223 0
	lfs 13,0(21)
	.loc 8 225 0
	addi 0,23,-1
	lfs 0,0(19)
	mtctr 0
	.loc 8 223 0
	fmadds 30,28,30,13
.LVL1056:
	mr 11,22
	.loc 8 224 0
	li 9,4
	.loc 8 223 0
	fmuls 30,30,25
	stfs 30,0(22)
.LVL1057:
.L333:
	.loc 8 225 0 discriminator 2
	xoris 0,9,0x8000
	stw 29,64(31)
	stw 0,68(31)
	addi 0,9,-1
	xoris 0,0,0x8000
	stw 29,72(31)
	lfd 13,64(31)
	.loc 8 224 0 discriminator 2
	slwi 9,9,2
	.loc 8 225 0 discriminator 2
	stw 0,76(31)
	fsub 13,13,0
	lfd 12,72(31)
	lfs 10,0(11)
	frsp 13,13
	lfsx 11,27,11
	fsub 12,12,0
	fmsubs 13,13,10,11
	frsp 12,12
	fdivs 13,13,12
	stfsu 13,4(11)
.LVL1058:
	.loc 8 224 0 discriminator 2
	bdnz .L333
.LVL1059:
	.loc 8 224 0 is_stmt 0
	mtctr 23
	mr 9,18
.LVL1060:
.L334:
	.loc 8 229 0 is_stmt 1 discriminator 2
	lwzu 0,4(9)
	stwx 0,27,9
	.loc 8 228 0 discriminator 2
	bdnz .L334
	.loc 8 214 0
	addi 23,23,1
.LVL1061:
	lfs 0,0(17)
	cmpw 7,20,23
	slwi 26,26,1
.LVL1062:
	fmuls 28,28,0
.LVL1063:
	bge+ 7,.L330
.LVL1064:
.L331:
.LBE8154:
	.loc 8 233 0
	addi 11,31,216
.LBB8155:
	.loc 8 232 0
	addi 9,20,-1
.LBE8155:
	.loc 8 233 0
	lwz 0,4(11)
.LBB8156:
	.loc 8 232 0
	slwi 9,9,2
.LBE8156:
	.loc 8 233 0
	lfsx 1,21,9
	mtlr 0
	lwz 17,-116(11)
	lwz 18,-112(11)
	lwz 19,-108(11)
	lwz 20,-104(11)
.LVL1065:
	lwz 21,-100(11)
.LVL1066:
	lwz 22,-96(11)
.LVL1067:
	lwz 23,-92(11)
	lwz 24,-88(11)
	lwz 25,-84(11)
	lwz 26,-80(11)
	lwz 27,-76(11)
	lwz 28,-72(11)
.LVL1068:
	lwz 29,-68(11)
	lwz 30,-64(11)
	lwz 31,-60(11)
.LCFI110:
	.cfi_def_cfa 11, 0
	lfd 25,-56(11)
	lfd 26,-48(11)
	lfd 27,-40(11)
	lfd 28,-32(11)
.LVL1069:
	lfd 29,-24(11)
	lfd 30,-16(11)
	lfd 31,-8(11)
.LVL1070:
	mr 1,11
.LCFI111:
	.cfi_def_cfa_register 1
	.cfi_restore 63
	.cfi_restore 62
	.cfi_restore 61
	.cfi_restore 60
	.cfi_restore 59
	.cfi_restore 58
	.cfi_restore 57
	.cfi_restore 31
	.cfi_restore 30
	.cfi_restore 29
	.cfi_restore 28
	.cfi_restore 27
	.cfi_restore 26
	.cfi_restore 25
	.cfi_restore 24
	.cfi_restore 23
	.cfi_restore 22
	.cfi_restore 21
	.cfi_restore 20
	.cfi_restore 19
	.cfi_restore 18
	.cfi_restore 17
.LVL1071:
	blr
	.cfi_endproc
.LFE3248:
	.size	_ZNK7idCurveI6idVec3E15RombergIntegralEffi, .-_ZNK7idCurveI6idVec3E15RombergIntegralEffi
	.section	.text._ZNK7idCurveI6idVec3E16GetTimeForLengthEff,"axG",@progbits,_ZNK7idCurveI6idVec3E16GetTimeForLengthEff,comdat
	.align 2
	.weak	_ZNK7idCurveI6idVec3E16GetTimeForLengthEff
	.type	_ZNK7idCurveI6idVec3E16GetTimeForLengthEff, @function
_ZNK7idCurveI6idVec3E16GetTimeForLengthEff:
.LFB3167:
	.loc 8 271 0
	.cfi_startproc
.LVL1072:
	stwu 1,-104(1)
.LCFI112:
	.cfi_def_cfa_offset 104
.LBB8197:
	.loc 8 275 0
	lis 9,.LC0@ha
.LBE8197:
	.loc 8 271 0
	mflr 0
	stfd 31,96(1)
.LBB8297:
	.loc 8 275 0
	lfs 31,.LC0@l(9)
	.cfi_offset 63, -8
	.cfi_register 65, 0
.LBE8297:
	.loc 8 271 0
	stfd 28,72(1)
	fmr 28,2
	.cfi_offset 60, -32
.LBB8298:
	.loc 8 275 0
	fcmpu 7,1,31
.LBE8298:
	.loc 8 271 0
	stfd 30,88(1)
	stw 30,64(1)
	fmr 30,1
	.cfi_offset 30, -40
	.cfi_offset 62, -16
.LBB8299:
	.loc 8 275 0
	cror 30,28,30
.LBE8299:
	.loc 8 271 0
	stw 31,68(1)
	stw 0,108(1)
	mr 31,1
	.cfi_offset 65, 4
	.cfi_offset 31, -36
.LCFI113:
	.cfi_def_cfa_register 31
	stfd 29,80(1)
	mr 30,3
	stw 25,44(1)
	stw 26,48(1)
	stw 27,52(1)
	stw 28,56(1)
	stw 29,60(1)
.LBB8300:
	.loc 8 275 0
	bne- 7,.L357
	.cfi_offset 29, -44
	.cfi_offset 28, -48
	.cfi_offset 27, -52
	.cfi_offset 26, -56
	.cfi_offset 25, -60
	.cfi_offset 61, -24
.LVL1073:
	.loc 8 276 0
	lwz 9,16(3)
	lfs 1,0(9)
.LVL1074:
.L342:
.LBE8300:
	.loc 8 311 0
	addi 11,31,104
	lwz 0,4(11)
	lwz 25,-60(11)
	mtlr 0
	lwz 26,-56(11)
	lwz 27,-52(11)
	lwz 28,-48(11)
	lwz 29,-44(11)
	lwz 30,-40(11)
.LVL1075:
	lwz 31,-36(11)
	.cfi_remember_state
.LCFI114:
	.cfi_def_cfa 11, 0
	lfd 28,-32(11)
.LVL1076:
	lfd 29,-24(11)
	lfd 30,-16(11)
	lfd 31,-8(11)
	mr 1,11
.LCFI115:
	.cfi_def_cfa_register 1
	.cfi_restore 63
	.cfi_restore 62
	.cfi_restore 61
	.cfi_restore 60
	.cfi_restore 31
	.cfi_restore 30
	.cfi_restore 29
	.cfi_restore 28
	.cfi_restore 27
	.cfi_restore 26
	.cfi_restore 25
	blr
.LVL1077:
.L357:
.LCFI116:
	.cfi_restore_state
.LBB8301:
	.loc 8 279 0
	lwz 9,20(3)
	.loc 8 281 0
	li 29,0
	.loc 8 279 0
	lwz 11,0(1)
	.loc 8 281 0
	li 28,0
	.loc 8 279 0
	slwi 10,9,2
.LBB8198:
.LBB8199:
.LBB8200:
	.loc 8 244 0
	fmr 29,31
.LBE8200:
.LBE8199:
.LBE8198:
	.loc 8 279 0
	addi 0,10,45
	rlwinm 0,0,0,0,27
	neg 0,0
	stwux 11,1,0
	addi 25,1,23
	rlwinm 25,25,0,0,27
.LVL1078:
	.loc 8 281 0
	b .L344
.LVL1079:
.L361:
.LBB8209:
	.loc 2 1185 0
	lwz 9,16(30)
.LVL1080:
.LBB8205:
.LBB8201:
	.loc 8 244 0
	lfsx 1,9,29
	lfsx 2,9,26
	bl _ZNK7idCurveI6idVec3E15RombergIntegralEffi
.LVL1081:
.LBE8201:
.LBE8205:
.LBE8209:
	.loc 8 283 0
	addi 0,29,4
.LBB8210:
.LBB8206:
.LBB8202:
	.loc 8 244 0
	fadds 1,1,29
.LVL1082:
.LBE8202:
.LBE8206:
.LBE8210:
	.loc 8 282 0
	fadds 31,31,1
.LVL1083:
	.loc 8 284 0
	fcmpu 7,30,31
	.loc 8 283 0
	stfsx 31,29,25
	.loc 8 289 0
	lwz 9,20(30)
	.loc 8 284 0
	blt- 7,.L360
	mr 29,0
	.loc 8 244 0
	mr 28,27
.LVL1084:
.L344:
	.loc 8 281 0 discriminator 1
	addi 9,9,-1
.LBB8211:
.LBB8207:
.LBB8203:
	.loc 8 244 0 discriminator 1
	addi 27,28,1
.LBE8203:
.LBE8207:
.LBE8211:
	.loc 8 281 0 discriminator 1
	cmpw 7,28,9
.LBB8212:
.LBB8208:
.LBB8204:
	.loc 8 271 0 discriminator 1
	slwi 26,27,2
	.loc 8 244 0 discriminator 1
	mr 3,30
	li 4,5
.LBE8204:
.LBE8208:
.LBE8212:
	.loc 8 281 0 discriminator 1
	blt+ 7,.L361
.L343:
.LVL1085:
.LBB8213:
.LBB8214:
	.loc 9 573 0
	lwz 11,4(30)
.LBE8214:
.LBE8213:
	.loc 8 290 0
	lwz 9,16(30)
.LBB8216:
.LBB8215:
	.loc 9 573 0
	addi 0,11,-1
.LBE8215:
.LBE8216:
.LBE8301:
	.loc 8 311 0
	addi 11,31,104
.LBB8302:
	.loc 8 290 0
	slwi 0,0,2
.LBE8302:
	.loc 8 311 0
	lwz 25,-60(11)
.LVL1086:
.LBB8303:
	.loc 8 290 0
	lfsx 1,9,0
.LBE8303:
	.loc 8 311 0
	lwz 0,4(11)
	lwz 26,-56(11)
	mtlr 0
	lwz 27,-52(11)
	lwz 28,-48(11)
.LVL1087:
	lwz 29,-44(11)
	lwz 30,-40(11)
.LVL1088:
	lwz 31,-36(11)
	.cfi_remember_state
.LCFI117:
	.cfi_def_cfa 11, 0
	lfd 28,-32(11)
.LVL1089:
	lfd 29,-24(11)
	lfd 30,-16(11)
.LVL1090:
	lfd 31,-8(11)
.LVL1091:
	mr 1,11
	.cfi_restore 25
	.cfi_restore 26
	.cfi_restore 27
	.cfi_restore 28
	.cfi_restore 29
	.cfi_restore 30
	.cfi_restore 31
	.cfi_restore 60
	.cfi_restore 61
	.cfi_restore 62
	.cfi_restore 63
.LCFI118:
	.cfi_def_cfa_register 1
	blr
.LVL1092:
.L360:
.LCFI119:
	.cfi_restore_state
.LBB8304:
	.loc 8 289 0
	addi 0,9,-1
	cmpw 7,0,28
	ble- 7,.L343
	.loc 8 293 0
	cmpwi 7,28,0
	bne- 7,.L347
.LVL1093:
	.loc 8 295 0
	lfs 31,0(25)
.LVL1094:
.L348:
	.loc 2 1185 0
	lwz 9,16(30)
	.loc 8 302 0
	li 0,32
.LBB8217:
.LBB8218:
.LBB8219:
.LBB8220:
.LBB8221:
.LBB8222:
	.loc 12 276 0
	lis 27,_ZN6idMath5iSqrtE@ha
.LVL1095:
.LBE8222:
.LBE8221:
.LBE8220:
.LBE8219:
.LBE8218:
.LBE8217:
	.loc 8 302 0
	stw 0,32(31)
	lfsx 0,9,26
.LBB8284:
.LBB8273:
.LBB8255:
.LBB8245:
.LBB8234:
.LBB8223:
	.loc 12 276 0
	la 27,_ZN6idMath5iSqrtE@l(27)
.LBE8223:
.LBE8234:
.LBE8245:
.LBE8255:
.LBE8273:
.LBE8284:
	.loc 8 302 0
	lfsx 1,9,29
.LBB8285:
.LBB8274:
.LBB8256:
.LBB8257:
	.loc 8 192 0
	lis 9,.LC0@ha
	lfs 29,.LC0@l(9)
.LBE8257:
.LBE8256:
.LBB8261:
.LBB8246:
.LBB8235:
.LBB8224:
	.loc 12 275 0
	lis 26,.LC8@ha
.LBE8224:
.LBE8235:
.LBE8246:
.LBE8261:
.LBE8274:
.LBE8285:
	.loc 8 302 0
	fsubs 0,0,1
.LBB8286:
.LBB8275:
.LBB8262:
.LBB8247:
.LBB8236:
.LBB8225:
	.loc 12 278 0
	lis 28,.LC13@ha
.LVL1096:
.LBE8225:
.LBE8236:
.LBE8247:
.LBE8262:
.LBE8275:
.LBE8286:
	.loc 8 302 0
	fmuls 0,0,30
	fdivs 31,0,31
.LVL1097:
	b .L352
.LVL1098:
.L359:
	.loc 8 308 0
	lwz 11,16(30)
.LBB8287:
.LBB8276:
	.loc 8 190 0
	lwz 9,0(30)
.LBE8276:
.LBE8287:
	.loc 8 308 0
	lfsx 1,11,29
.LVL1099:
.LBB8288:
.LBB8277:
	.loc 8 190 0
	lwz 0,24(9)
.LVL1100:
	fadds 1,31,1
	mtctr 0
	bctrl
.LVL1101:
.LBB8263:
.LBB8258:
	.loc 5 424 0
	lfs 0,8(31)
	.loc 5 425 0
	lfs 13,12(31)
	.loc 8 192 0
	fmadds 12,0,0,29
	.loc 5 426 0
	lfs 0,16(31)
.LVL1102:
.LBE8258:
.LBE8263:
.LBB8264:
.LBB8248:
.LBB8237:
.LBB8226:
	.loc 12 275 0
	lfs 11,.LC8@l(26)
.LBE8226:
.LBE8237:
.LBE8248:
.LBE8264:
.LBB8265:
.LBB8259:
	.loc 8 192 0
	fmadds 13,13,13,12
.LVL1103:
.LBE8259:
.LBE8265:
.LBB8266:
.LBB8249:
.LBB8238:
.LBB8227:
	.loc 12 278 0
	lfs 12,.LC13@l(28)
.LBE8227:
.LBE8238:
.LBE8249:
.LBE8266:
.LBB8267:
.LBB8260:
	.loc 8 192 0
	fmadds 13,0,0,13
.LVL1104:
	stfs 13,24(31)
.LVL1105:
.LBE8260:
.LBE8267:
.LBB8268:
.LBB8250:
.LBB8239:
.LBB8228:
	.loc 12 275 0
	fmuls 11,13,11
	.loc 12 270 0
	lwz 0,24(31)
.LVL1106:
	.loc 8 271 0
	fneg 11,11
	.loc 12 276 0
	rlwinm 9,0,19,21,29
	rlwinm 11,0,9,24,31
	lwzx 9,27,9
	subfic 0,11,380
	rlwinm 0,0,22,0,8
	or 0,0,9
	.loc 12 277 0
	stw 0,36(31)
.LBE8228:
.LBE8239:
.LBE8250:
.LBE8268:
.LBE8277:
.LBE8288:
	.loc 8 303 0
	lwz 0,32(31)
.LBB8289:
.LBB8278:
.LBB8269:
.LBB8251:
.LBB8240:
.LBB8229:
	.loc 12 277 0
	lfs 0,36(31)
.LBE8229:
.LBE8240:
.LBE8251:
.LBE8269:
.LBE8278:
.LBE8289:
	.loc 8 303 0
	addic. 9,0,-1
.LBB8290:
.LBB8279:
.LBB8270:
.LBB8252:
.LBB8241:
.LBB8230:
	.loc 12 277 0
	fmr 13,0
.LVL1107:
.LBE8230:
.LBE8241:
.LBE8252:
.LBE8270:
.LBE8279:
.LBE8290:
	.loc 8 303 0
	stw 9,32(31)
	lwz 9,16(30)
.LBB8291:
.LBB8280:
.LBB8271:
.LBB8253:
.LBB8242:
.LBB8231:
	.loc 12 278 0
	fmul 0,13,13
.LVL1108:
.LBE8231:
.LBE8242:
.LBE8253:
.LBE8271:
.LBE8280:
.LBE8291:
	.loc 8 303 0
	lfsx 1,9,29
.LBB8292:
.LBB8281:
.LBB8272:
.LBB8254:
.LBB8243:
.LBB8232:
	.loc 12 278 0
	fmadd 0,11,0,12
	fmul 0,13,0
.LVL1109:
	.loc 12 279 0
	fmul 13,0,0
	fmadd 12,11,13,12
.LVL1110:
.LBE8232:
.LBE8243:
	.loc 12 303 0
	lfs 13,24(31)
.LBB8244:
.LBB8233:
	.loc 12 279 0
	fmul 0,0,12
.LVL1111:
	.loc 12 280 0
	frsp 0,0
.LVL1112:
.LBE8233:
.LBE8244:
	.loc 12 303 0
	fmuls 0,0,13
.LBE8254:
.LBE8272:
.LBE8281:
.LBE8292:
	.loc 8 308 0
	lfs 13,28(31)
	fdivs 0,13,0
	fsubs 31,31,0
.LVL1113:
	.loc 8 303 0
	beq- 0,.L351
.LVL1114:
.L352:
	.loc 8 304 0
	fadds 2,1,31
	mr 3,30
	li 4,5
	bl _ZNK7idCurveI6idVec3E15RombergIntegralEffi
.LBB8293:
.LBB8282:
	.loc 8 190 0
	addi 3,31,8
.LBE8282:
.LBE8293:
	.loc 8 304 0
	fsubs 1,1,30
.LBB8294:
.LBB8283:
	.loc 8 190 0
	mr 4,30
.LBE8283:
.LBE8294:
	.loc 8 304 0
	stfs 1,28(31)
.LVL1115:
.LBB8295:
.LBB8296:
	.loc 12 781 0
	lwz 9,28(31)
	rlwinm 0,9,0,1,31
.LBE8296:
.LBE8295:
	.loc 8 305 0
	stw 0,36(31)
	lfs 0,36(31)
	fcmpu 7,28,0
	cror 30,29,30
	bne+ 7,.L359
.LBE8304:
	.loc 8 311 0
	addi 11,31,104
.LBB8305:
	.loc 8 306 0
	lwz 9,16(30)
.LBE8305:
	.loc 8 311 0
	lwz 0,4(11)
.LBB8306:
	.loc 8 306 0
	lfsx 1,9,29
.LVL1116:
.LBE8306:
	.loc 8 311 0
	mtlr 0
	lwz 25,-60(11)
.LVL1117:
.LBB8307:
	.loc 8 306 0
	fadds 1,31,1
.LBE8307:
	.loc 8 311 0
	lwz 26,-56(11)
	lwz 27,-52(11)
	lwz 28,-48(11)
	lwz 29,-44(11)
	lwz 30,-40(11)
.LVL1118:
	lwz 31,-36(11)
	.cfi_remember_state
.LCFI120:
	.cfi_def_cfa 11, 0
	lfd 28,-32(11)
.LVL1119:
	lfd 29,-24(11)
	lfd 30,-16(11)
.LVL1120:
	lfd 31,-8(11)
.LVL1121:
	mr 1,11
	.cfi_restore 25
	.cfi_restore 26
	.cfi_restore 27
	.cfi_restore 28
	.cfi_restore 29
	.cfi_restore 30
	.cfi_restore 31
	.cfi_restore 60
	.cfi_restore 61
	.cfi_restore 62
	.cfi_restore 63
.LCFI121:
	.cfi_def_cfa_register 1
	blr
.LVL1122:
.L347:
.LCFI122:
	.cfi_restore_state
.LBB8308:
	.loc 8 297 0
	addi 9,28,-1
	slwi 9,9,2
	lfsx 0,25,9
	fsubs 30,30,0
.LVL1123:
	.loc 8 298 0
	fsubs 31,31,0
.LVL1124:
	b .L348
.LVL1125:
.L351:
	.loc 8 310 0
	fadds 1,31,1
	b .L342
.LBE8308:
	.cfi_endproc
.LFE3167:
	.size	_ZNK7idCurveI6idVec3E16GetTimeForLengthEff, .-_ZNK7idCurveI6idVec3E16GetTimeForLengthEff
	.section	".text"
	.align 2
	.globl _ZN20idPhysics_Parametric8EvaluateEii
	.type	_ZN20idPhysics_Parametric8EvaluateEii, @function
_ZN20idPhysics_Parametric8EvaluateEii:
.LFB2868:
	.loc 2 578 0
	.cfi_startproc
.LVL1126:
	mflr 0
	stwu 1,-328(1)
.LCFI123:
	.cfi_def_cfa_offset 328
	.cfi_register 65, 0
.LBB9140:
	.loc 2 583 0
	li 10,0
.LBE9140:
	.loc 2 578 0
	stw 29,292(1)
	mr 29,5
	.cfi_offset 29, -36
	stw 30,296(1)
.LBB9646:
.LBB9141:
.LBB9142:
	.loc 11 333 0
	addi 30,3,100
	.cfi_offset 30, -32
.LBE9142:
.LBE9141:
.LBE9646:
	.loc 2 578 0
	stw 31,300(1)
	mr 31,3
	.cfi_offset 31, -28
	stw 0,332(1)
	stfd 29,304(1)
	stfd 30,312(1)
	stfd 31,320(1)
	stw 19,252(1)
	stw 20,256(1)
	stw 21,260(1)
	stw 22,264(1)
	stw 23,268(1)
	stw 24,272(1)
	stw 25,276(1)
	stw 26,280(1)
	stw 27,284(1)
	stw 28,288(1)
.LBB9647:
	.loc 2 583 0
	stb 10,1172(3)
.LVL1127:
.LBB9151:
.LBB9149:
	.loc 11 333 0
	li 10,0
.LBE9149:
.LBE9151:
.LBB9152:
.LBB9153:
	.loc 5 424 0
	lwz 11,76(3)
	.loc 5 425 0
	lwz 9,80(3)
	.loc 5 426 0
	lwz 0,84(3)
	.cfi_offset 28, -40
	.cfi_offset 27, -44
	.cfi_offset 26, -48
	.cfi_offset 25, -52
	.cfi_offset 24, -56
	.cfi_offset 23, -60
	.cfi_offset 22, -64
	.cfi_offset 21, -68
	.cfi_offset 20, -72
	.cfi_offset 19, -76
	.cfi_offset 63, -8
	.cfi_offset 62, -16
	.cfi_offset 61, -24
	.cfi_offset 65, 4
.LBE9153:
.LBE9152:
.LBB9155:
.LBB9156:
	.loc 5 424 0
	lwz 28,136(3)
.LVL1128:
	.loc 5 425 0
	lwz 27,140(3)
.LVL1129:
	.loc 5 426 0
	lwz 26,144(3)
.LVL1130:
.LBE9156:
.LBE9155:
.LBB9157:
.LBB9154:
	.loc 5 424 0
	stw 11,92(1)
	.loc 5 425 0
	stw 9,96(1)
	.loc 5 426 0
	stw 0,100(1)
.LVL1131:
.LBE9154:
.LBE9157:
.LBB9158:
.LBB9159:
	.loc 6 146 0
	lwz 25,148(3)
.LVL1132:
	.loc 6 147 0
	lwz 24,152(3)
.LVL1133:
	.loc 6 148 0
	lwz 23,156(3)
.LVL1134:
.LBE9159:
.LBE9158:
.LBB9160:
.LBB9161:
	.loc 6 146 0
	lwz 22,88(3)
.LVL1135:
	.loc 6 147 0
	lwz 21,92(3)
.LVL1136:
	.loc 6 148 0
	lwz 20,96(3)
.LVL1137:
.L363:
.LBE9161:
.LBE9160:
.LBB9162:
.LBB9150:
.LBB9143:
.LBB9144:
	.loc 5 424 0
	mr 11,30
.LBE9144:
.LBE9143:
	.loc 11 333 0
	cmpwi 7,10,24
.LBB9147:
.LBB9145:
	.loc 5 424 0
	lwzux 0,11,10
	addi 9,1,176
	stwux 0,9,10
.LBE9145:
.LBE9147:
	.loc 11 333 0
	addi 10,10,12
.LBB9148:
.LBB9146:
	.loc 5 425 0
	lwz 8,4(11)
	.loc 5 426 0
	lwz 0,8(11)
	.loc 5 425 0
	stw 8,4(9)
	.loc 5 426 0
	stw 0,8(9)
.LBE9146:
.LBE9148:
	.loc 11 333 0
	bne+ 7,.L363
.LVL1138:
.LBE9150:
.LBE9162:
.LBB9163:
	.loc 2 593 0
	lwz 3,496(31)
.LVL1139:
.LBE9163:
.LBB9370:
.LBB9371:
	.loc 5 416 0
	li 0,0
	stw 0,144(31)
.LBE9371:
.LBE9370:
.LBB9373:
	.loc 2 593 0
	cmpwi 7,3,0
.LBE9373:
.LBB9374:
.LBB9372:
	.loc 5 416 0
	stw 0,140(31)
	stw 0,136(31)
.LVL1140:
.LBE9372:
.LBE9374:
.LBB9375:
.LBB9376:
	.loc 6 127 0
	stw 0,156(31)
	stw 0,152(31)
	stw 0,148(31)
.LBE9376:
.LBE9375:
.LBB9377:
	.loc 2 593 0
	beq- 7,.L364
.LBB9164:
	.loc 2 594 0
	xoris 0,29,0x8000
	lis 9,.LC2@ha
	stw 0,220(1)
	lis 0,0x4330
	stw 0,216(1)
	lfs 0,.LC2@l(9)
	lfd 31,216(1)
.LBB9165:
.LBB9166:
.LBB9167:
	.loc 7 230 0
	lfs 13,500(31)
.LBE9167:
.LBE9166:
.LBE9165:
	.loc 2 594 0
	fsub 31,31,0
.LBB9230:
.LBB9191:
.LBB9186:
	.loc 7 231 0
	lfs 0,504(31)
.LBE9186:
.LBE9191:
.LBE9230:
	.loc 2 594 0
	frsp 31,31
.LVL1141:
.LBB9231:
.LBB9192:
.LBB9187:
	.loc 7 230 0
	fsubs 12,31,13
.LVL1142:
	.loc 7 231 0
	fcmpu 7,12,0
	bnl- 7,.L536
	.loc 7 232 0
	lwz 0,524(31)
	cmpwi 7,0,4
	beq- 7,.L549
.LVL1143:
.LBB9168:
.LBB9169:
	.loc 4 109 0
	lis 11,.LC3@ha
	.loc 4 106 0
	lwz 9,516(31)
	.loc 4 109 0
	lwz 0,.LC3@l(11)
	.loc 4 103 0
	li 11,4
	stw 11,524(31)
	.loc 4 104 0
	stfs 13,528(31)
	.loc 4 105 0
	stfs 0,532(31)
	.loc 4 106 0
	stw 9,536(31)
	.loc 4 109 0
	stw 0,548(31)
	.loc 4 110 0
	stw 9,552(31)
	stw 0,244(1)
	lfs 0,244(1)
.LVL1144:
.L368:
.LBE9169:
.LBE9168:
.LBE9187:
.LBE9192:
.LBB9193:
.LBB9194:
	.loc 4 122 0
	fcmpu 7,31,0
	beq- 7,.L378
.LVL1145:
.L373:
	.loc 4 128 0
	lfs 0,528(31)
	.loc 4 126 0
	stfs 31,548(31)
	.loc 4 128 0
	fcmpu 7,31,0
	bnl- 7,.L538
	.loc 4 129 0
	lfs 1,536(31)
.LVL1146:
.L374:
.LBE9194:
.LBE9193:
.LBE9231:
	.loc 2 595 0
	lis 9,.LC14@ha
	lfs 2,.LC14@l(9)
	bl _ZNK7idCurveI6idVec3E16GetTimeForLengthEff
.LVL1147:
	.loc 2 596 0
	lwz 4,496(31)
	addi 3,1,68
	.loc 2 595 0
	fmr 30,1
.LVL1148:
	.loc 2 596 0
	lwz 9,0(4)
	lwz 0,20(9)
	mtctr 0
	bctrl
.LVL1149:
	.loc 2 597 0
	lbz 0,556(31)
	cmpwi 7,0,0
.LBB9232:
.LBB9233:
	.loc 5 424 0
	lwz 0,68(1)
	stw 0,136(31)
	.loc 5 425 0
	lwz 0,72(1)
	stw 0,140(31)
	.loc 5 426 0
	lwz 0,76(1)
	stw 0,144(31)
.LBE9233:
.LBE9232:
	.loc 2 597 0
	bne- 7,.L573
.LVL1150:
.L391:
.LBE9164:
.LBE9377:
.LBB9378:
.LBB9379:
	.loc 7 145 0
	lfs 0,396(31)
.LBE9379:
.LBE9378:
	.loc 2 606 0
	lis 9,.LC0@ha
.LBB9382:
.LBB9380:
	.loc 7 145 0
	lfs 11,400(31)
	lfs 12,404(31)
	fadds 13,0,11
.LBE9380:
.LBE9382:
	.loc 2 606 0
	lfs 10,.LC0@l(9)
.LBB9383:
.LBB9381:
	.loc 7 145 0
	fadds 9,13,12
.LBE9381:
.LBE9383:
	.loc 2 606 0
	fcmpu 7,9,10
	beq- 7,.L437
.LVL1151:
.LBB9384:
.LBB9385:
.LBB9386:
	.loc 7 230 0
	lfs 10,392(31)
	fsubs 9,31,10
.LVL1152:
	.loc 7 231 0
	fcmpu 7,0,9
	bng- 7,.L543
	.loc 7 232 0
	lwz 0,432(31)
	cmpwi 7,0,4
	beq- 7,.L563
.LVL1153:
.LBB9387:
.LBB9388:
	.loc 4 109 0
	lis 8,.LC3@ha
.LBB9389:
.LBB9390:
	.loc 6 146 0
	lwz 10,408(31)
	.loc 6 147 0
	lwz 11,412(31)
	.loc 6 148 0
	lwz 9,416(31)
.LBE9390:
.LBE9389:
	.loc 4 109 0
	lwz 0,.LC3@l(8)
	.loc 4 103 0
	li 8,4
	stw 8,432(31)
	.loc 4 104 0
	stfs 10,436(31)
	.loc 4 105 0
	stfs 0,440(31)
.LVL1154:
.LBB9392:
.LBB9391:
	.loc 6 146 0
	stw 10,444(31)
	.loc 6 147 0
	stw 11,448(31)
	.loc 6 148 0
	stw 9,452(31)
.LVL1155:
.LBE9391:
.LBE9392:
	.loc 4 109 0
	stw 0,480(31)
.LVL1156:
.LBB9393:
.LBB9394:
	.loc 6 146 0
	stw 10,484(31)
	.loc 6 147 0
	stw 11,488(31)
	.loc 6 148 0
	stw 9,492(31)
	stw 0,244(1)
	lfs 0,244(1)
.LVL1157:
.L441:
.LBE9394:
.LBE9393:
.LBE9388:
.LBE9387:
.LBE9386:
.LBE9385:
.LBB9426:
.LBB9427:
	.loc 4 122 0
	fcmpu 7,31,0
	beq- 7,.L574
.LVL1158:
.L446:
	.loc 4 128 0
	lfs 0,436(31)
	.loc 4 126 0
	stfs 31,480(31)
	.loc 4 128 0
	fcmpu 7,0,31
	bgt- 7,.L575
	.loc 4 132 0
	lwz 0,432(31)
	andi. 9,0,64
	bne- 0,.L450
	lfs 13,440(31)
	fadds 13,0,13
	fcmpu 7,13,31
	bnl- 7,.L450
	.loc 4 133 0
	fmr 31,13
.LVL1159:
.L450:
	.loc 4 136 0
	rlwinm 0,0,0,26,24
	cmplwi 7,0,32
	ble- 7,.L576
.L451:
	lfs 0,492(31)
	lfs 13,488(31)
	lfs 12,484(31)
	b .L466
.LVL1160:
.L536:
.LBE9427:
.LBE9426:
.LBE9384:
.LBB9467:
.LBB9241:
.LBB9234:
.LBB9223:
.LBB9188:
	.loc 7 235 0
	lfs 11,508(31)
	.loc 7 236 0
	lwz 0,524(31)
	.loc 7 235 0
	fadds 10,0,11
	fcmpu 7,12,10
	bnl- 7,.L537
	.loc 7 236 0
	cmpwi 7,0,2
	beq- 7,.L549
.LVL1161:
	.loc 7 237 0
	lis 9,.LC10@ha
	lfs 9,544(31)
	lfs 10,.LC10@l(9)
	lis 9,.LC8@ha
	lfs 12,.LC8@l(9)
.LVL1162:
.LBB9170:
.LBB9171:
	.loc 4 109 0
	lis 9,.LC3@ha
.LBE9171:
.LBE9170:
	.loc 7 237 0
	fmuls 10,0,10
.LBB9175:
.LBB9172:
	.loc 4 109 0
	lwz 0,.LC3@l(9)
.LBE9172:
.LBE9175:
	.loc 7 237 0
	fadds 0,13,0
.LBB9176:
.LBB9173:
	.loc 4 103 0
	li 9,2
	stw 9,524(31)
.LBE9173:
.LBE9176:
	.loc 7 237 0
	fmuls 12,10,12
	lfs 10,516(31)
.LBB9177:
.LBB9174:
	.loc 4 104 0
	stfs 0,528(31)
	.loc 4 105 0
	stfs 11,532(31)
.LBE9174:
.LBE9177:
	.loc 7 237 0
	fmadds 12,9,12,10
.LVL1163:
.L550:
.LBB9178:
.LBB9179:
	.loc 4 106 0
	stfs 12,536(31)
	.loc 4 109 0
	stw 0,548(31)
	.loc 4 110 0
	stfs 12,552(31)
	stw 0,244(1)
	lfs 0,244(1)
.LVL1164:
.LBE9179:
.LBE9178:
.LBE9188:
.LBE9223:
.LBB9224:
.LBB9219:
	.loc 4 122 0
	fcmpu 7,31,0
	bne- 7,.L373
.LVL1165:
.L378:
	.loc 4 136 0
	lfs 1,552(31)
	b .L374
.LVL1166:
.L537:
.LBE9219:
.LBE9224:
.LBB9225:
.LBB9189:
	.loc 7 240 0
	cmpwi 7,0,8
	bne+ 7,.L372
.L549:
	lfs 0,548(31)
	b .L368
.LVL1167:
.L543:
.LBE9189:
.LBE9225:
.LBE9234:
.LBE9241:
.LBE9467:
.LBB9468:
.LBB9459:
.LBB9423:
	.loc 7 235 0
	fcmpu 7,13,9
	.loc 7 236 0
	lwz 0,432(31)
	.loc 7 235 0
	bng- 7,.L544
	.loc 7 236 0
	cmpwi 7,0,2
	beq- 7,.L563
.LVL1168:
	.loc 7 237 0
	lis 9,.LC10@ha
	.loc 6 153 0
	lfs 5,468(31)
	.loc 7 237 0
	lfs 12,.LC10@l(9)
	lis 9,.LC8@ha
	lfs 13,.LC8@l(9)
.LBB9395:
.LBB9396:
	.loc 4 109 0
	lis 9,.LC3@ha
.LBE9396:
.LBE9395:
	.loc 7 237 0
	fmuls 12,0,12
	.loc 6 153 0
	lfs 9,408(31)
.LVL1169:
	lfs 6,472(31)
	.loc 7 237 0
	fadds 0,0,10
	.loc 6 153 0
	lfs 7,476(31)
	.loc 7 237 0
	fmuls 13,12,13
.LVL1170:
	.loc 6 153 0
	lfs 8,416(31)
	lfs 12,412(31)
.LBB9405:
.LBB9401:
	.loc 4 109 0
	lwz 0,.LC3@l(9)
	.loc 4 103 0
	li 9,2
.LBE9401:
.LBE9405:
	.loc 6 153 0
	fmadds 9,13,5,9
.LBB9406:
.LBB9402:
	.loc 4 103 0
	stw 9,432(31)
.LBE9402:
.LBE9406:
	.loc 6 153 0
	fmadds 12,13,6,12
.LBB9407:
.LBB9403:
	.loc 4 104 0
	stfs 0,436(31)
.LBE9403:
.LBE9407:
	.loc 6 153 0
	fmadds 13,13,7,8
.LVL1171:
.LBB9408:
.LBB9404:
	.loc 4 105 0
	stfs 11,440(31)
.LVL1172:
.LBB9397:
.LBB9398:
	.loc 6 146 0
	stfs 9,444(31)
	.loc 6 147 0
	stfs 12,448(31)
	.loc 6 148 0
	stfs 13,452(31)
.LVL1173:
.LBE9398:
.LBE9397:
	.loc 4 109 0
	stw 0,480(31)
.LVL1174:
.LBB9399:
.LBB9400:
	.loc 6 146 0
	stfs 9,484(31)
	.loc 6 147 0
	stfs 12,488(31)
	.loc 6 148 0
	stfs 13,492(31)
	stw 0,244(1)
	lfs 0,244(1)
.LVL1175:
.LBE9400:
.LBE9399:
.LBE9404:
.LBE9408:
.LBE9423:
.LBE9459:
.LBB9460:
.LBB9454:
	.loc 4 122 0
	fcmpu 7,31,0
	bne+ 7,.L446
.LVL1176:
.L574:
	.loc 4 123 0
	lfs 12,484(31)
	lfs 13,488(31)
	lfs 0,492(31)
.LVL1177:
.L466:
.LBE9454:
.LBE9460:
.LBE9468:
.LBB9469:
.LBB9470:
	.loc 6 157 0
	lfs 9,148(31)
.LBE9470:
.LBE9469:
	.loc 2 612 0
	addi 19,31,148
.LBB9473:
.LBB9471:
	.loc 6 158 0
	lfs 10,152(31)
.LBE9471:
.LBE9473:
	.loc 2 612 0
	mr 3,19
.LBB9474:
.LBB9472:
	.loc 6 159 0
	lfs 11,156(31)
	.loc 6 157 0
	fadds 12,9,12
	.loc 6 158 0
	fadds 13,10,13
	.loc 6 159 0
	fadds 0,11,0
	.loc 6 157 0
	stfs 12,148(31)
	.loc 6 158 0
	stfs 13,152(31)
	.loc 6 159 0
	stfs 0,156(31)
.LBE9472:
.LBE9474:
	.loc 2 612 0
	bl _ZN8idAngles12Normalize360Ev
.LVL1178:
.LBB9475:
.LBB9476:
	.loc 5 426 0
	lwz 10,144(31)
	.loc 5 424 0
	lwz 7,136(31)
.LBE9476:
.LBE9475:
	.loc 2 615 0
	addi 3,1,104
.LBB9479:
.LBB9477:
	.loc 5 425 0
	lwz 8,140(31)
.LBE9477:
.LBE9479:
	.loc 2 615 0
	mr 4,19
.LBB9480:
.LBB9481:
	.loc 6 146 0
	lwz 11,148(31)
	.loc 6 147 0
	lwz 9,152(31)
	.loc 6 148 0
	lwz 0,156(31)
.LBE9481:
.LBE9480:
.LBB9483:
.LBB9478:
	.loc 5 426 0
	stw 10,84(31)
.LVL1179:
	.loc 5 424 0
	stw 7,76(31)
	.loc 5 425 0
	stw 8,80(31)
.LBE9478:
.LBE9483:
.LBB9484:
.LBB9482:
	.loc 6 146 0
	stw 11,88(31)
	.loc 6 147 0
	stw 9,92(31)
	.loc 6 148 0
	stw 0,96(31)
.LBE9482:
.LBE9484:
	.loc 2 615 0
	bl _ZNK8idAngles6ToMat3Ev
.LVL1180:
.LBB9485:
.LBB9486:
	.loc 11 333 0
	li 10,0
.L483:
.LBB9487:
.LBB9488:
	.loc 5 424 0
	addi 11,1,104
.LVL1181:
.LBE9488:
.LBE9487:
	.loc 11 333 0
	cmpwi 7,10,24
.LBB9491:
.LBB9489:
	.loc 5 424 0
	lwzux 0,11,10
.LVL1182:
	mr 9,30
	stwux 0,9,10
.LBE9489:
.LBE9491:
	.loc 11 333 0
	addi 10,10,12
.LBB9492:
.LBB9490:
	.loc 5 425 0
	lwz 8,4(11)
	.loc 5 426 0
	lwz 0,8(11)
	.loc 5 425 0
	stw 8,4(9)
	.loc 5 426 0
	stw 0,8(9)
.LBE9490:
.LBE9492:
	.loc 11 333 0
	bne+ 7,.L483
.LBE9486:
.LBE9485:
	.loc 2 617 0
	lbz 0,1173(31)
	cmpwi 7,0,0
	bne- 7,.L577
.L484:
	.loc 2 631 0
	lbz 0,1052(31)
	cmpwi 7,0,0
	bne- 7,.L578
.L495:
	.loc 2 648 0
	lwz 3,1056(31)
	cmpwi 7,3,0
	beq- 7,.L500
	.loc 2 649 0
	lis 4,gameLocal+2311032@ha
	lwz 5,4(31)
	la 4,gameLocal+2311032@l(4)
	li 6,0
	addi 7,31,76
	mr 8,30
	li 9,-1
	bl _ZN11idClipModel4LinkER6idClipP8idEntityiRK6idVec3RK6idMat3i
.L500:
	.loc 2 652 0
	stw 29,68(31)
	.loc 2 654 0
	mr 3,31
	bl _ZNK20idPhysics_Parametric12TestIfAtRestEv
	cmpwi 7,3,0
	bne- 7,.L579
.L501:
.LVL1183:
.LBB9494:
.LBB9495:
.LBB9496:
	.loc 5 497 0
	lfs 13,76(31)
	.loc 2 658 0
	li 3,1
	.loc 5 497 0
	lfs 0,92(1)
	fcmpu 7,13,0
	bne- 7,.L499
	lfs 13,80(31)
	lfs 0,96(1)
	fcmpu 7,13,0
	bne- 7,.L499
	lfs 13,84(31)
	lfs 0,100(1)
	fcmpu 7,13,0
	bne- 7,.L499
.LVL1184:
.LBE9496:
.LBE9495:
.LBE9494:
.LBB9497:
.LBB9498:
.LBB9499:
.LBB9500:
	lfs 13,100(31)
	lfs 0,176(1)
