	.file	"PlayerView.cpp"
	.section	".text"
.Ltext0:
	.section	.text._ZN14idFixedWinding5ClearEv,"axG",@progbits,_ZN14idFixedWinding5ClearEv,comdat
	.align 2
	.weak	_ZN14idFixedWinding5ClearEv
	.type	_ZN14idFixedWinding5ClearEv, @function
_ZN14idFixedWinding5ClearEv:
.LFB1502:
	.file 1 "d:/Data/Nintendo/DoomGX/src/game/../idlib/../idlib/geometry/Winding.h"
	.loc 1 398 0
	.cfi_startproc
.LVL0:
	.loc 1 399 0
	li 0,0
	.loc 1 400 0
	.loc 1 399 0
	stw 0,4(3)
	.loc 1 400 0
	blr
	.cfi_endproc
.LFE1502:
	.size	_ZN14idFixedWinding5ClearEv, .-_ZN14idFixedWinding5ClearEv
	.section	.text._ZN9idWinding5ClearEv,"axG",@progbits,_ZN9idWinding5ClearEv,comdat
	.align 2
	.weak	_ZN9idWinding5ClearEv
	.type	_ZN9idWinding5ClearEv, @function
_ZN9idWinding5ClearEv:
.LFB1473:
	.loc 1 249 0
	.cfi_startproc
.LVL1:
	mflr 0
	stwu 1,-16(1)
.LCFI0:
	.cfi_def_cfa_offset 16
	.cfi_register 65, 0
	stw 31,12(1)
	mr 31,3
	.cfi_offset 31, -4
	stw 0,20(1)
	.loc 1 250 0
	li 0,0
	.cfi_offset 65, 4
	.loc 1 251 0
	lwz 3,8(3)
.LVL2:
	.loc 1 250 0
	stw 0,4(31)
	.loc 1 251 0
	cmpwi 7,3,0
	beq- 7,.L3
	.loc 1 251 0 is_stmt 0 discriminator 1
	bl _ZdaPv
.L3:
	.loc 1 252 0 is_stmt 1
	li 0,0
	stw 0,8(31)
	.loc 1 253 0
	lwz 0,20(1)
	lwz 31,12(1)
.LVL3:
	mtlr 0
	addi 1,1,16
.LCFI1:
	.cfi_def_cfa_offset 0
	.cfi_restore 31
	blr
	.cfi_endproc
.LFE1473:
	.size	_ZN9idWinding5ClearEv, .-_ZN9idWinding5ClearEv
	.section	.text._ZN9idWindingD2Ev,"axG",@progbits,_ZN9idWindingD5Ev,comdat
	.align 2
	.weak	_ZN9idWindingD2Ev
	.type	_ZN9idWindingD2Ev, @function
_ZN9idWindingD2Ev:
.LFB1461:
	.loc 1 183 0
	.cfi_startproc
.LVL4:
	mflr 0
	stwu 1,-16(1)
.LCFI2:
	.cfi_def_cfa_offset 16
	.cfi_register 65, 0
.LBB695:
	lis 9,_ZTV9idWinding+8@ha
.LBE695:
	stw 31,12(1)
	mr 31,3
	.cfi_offset 31, -4
	stw 0,20(1)
.LBB696:
	.loc 1 183 0
	la 0,_ZTV9idWinding+8@l(9)
	.cfi_offset 65, 4
	.loc 1 184 0
	lwz 3,8(3)
.LVL5:
	.loc 1 183 0
	stw 0,0(31)
	.loc 1 184 0
	cmpwi 7,3,0
	beq- 7,.L6
	.loc 1 184 0 is_stmt 0 discriminator 1
	bl _ZdaPv
.L6:
	.loc 1 185 0 is_stmt 1
	li 0,0
	stw 0,8(31)
.LBE696:
	.loc 1 186 0
	lwz 0,20(1)
	lwz 31,12(1)
.LVL6:
	mtlr 0
	addi 1,1,16
.LCFI3:
	.cfi_def_cfa_offset 0
	.cfi_restore 31
	blr
	.cfi_endproc
.LFE1461:
	.size	_ZN9idWindingD2Ev, .-_ZN9idWindingD2Ev
	.section	.text._ZN14idFixedWindingD2Ev,"axG",@progbits,_ZN14idFixedWindingD5Ev,comdat
	.align 2
	.weak	_ZN14idFixedWindingD2Ev
	.type	_ZN14idFixedWindingD2Ev, @function
_ZN14idFixedWindingD2Ev:
.LFB1498:
	.loc 1 380 0
	.cfi_startproc
.LVL7:
.LBB702:
	.loc 1 381 0
	li 0,0
.LBB703:
.LBB704:
.LBB705:
	.loc 1 183 0
	lis 9,_ZTV9idWinding+8@ha
.LBE705:
.LBE704:
.LBE703:
	.loc 1 381 0
	stw 0,8(3)
.LVL8:
.LBB708:
.LBB707:
.LBB706:
	.loc 1 183 0
	la 0,_ZTV9idWinding+8@l(9)
	stw 0,0(3)
.LBE706:
.LBE707:
.LBE708:
.LBE702:
	.loc 1 382 0
	blr
	.cfi_endproc
.LFE1498:
	.size	_ZN14idFixedWindingD2Ev, .-_ZN14idFixedWindingD2Ev
	.section	.text._ZN9idWindingD0Ev,"axG",@progbits,_ZN9idWindingD5Ev,comdat
	.align 2
	.weak	_ZN9idWindingD0Ev
	.type	_ZN9idWindingD0Ev, @function
_ZN9idWindingD0Ev:
.LFB1463:
	.loc 1 183 0
	.cfi_startproc
.LVL9:
	mflr 0
	stwu 1,-16(1)
.LCFI4:
	.cfi_def_cfa_offset 16
	.cfi_register 65, 0
.LBB712:
.LBB713:
.LBB714:
	lis 9,_ZTV9idWinding+8@ha
.LBE714:
.LBE713:
.LBE712:
	stw 31,12(1)
	mr 31,3
	.cfi_offset 31, -4
.LVL10:
	stw 0,20(1)
.LBB719:
.LBB717:
.LBB715:
	.loc 1 183 0
	la 0,_ZTV9idWinding+8@l(9)
	.cfi_offset 65, 4
	.loc 1 184 0
	lwz 3,8(3)
.LVL11:
	.loc 1 183 0
	stw 0,0(31)
	.loc 1 184 0
	cmpwi 7,3,0
	beq- 7,.L12
	bl _ZdaPv
.LVL12:
.L12:
	.loc 1 185 0
	li 0,0
.LBE715:
.LBE717:
.LBE719:
	.loc 1 186 0
	mr 3,31
.LBB720:
.LBB718:
.LBB716:
	.loc 1 185 0
	stw 0,8(31)
.LBE716:
.LBE718:
.LBE720:
	.loc 1 186 0
	bl _ZdlPv
	lwz 0,20(1)
	lwz 31,12(1)
.LVL13:
	mtlr 0
	addi 1,1,16
.LCFI5:
	.cfi_def_cfa_offset 0
	.cfi_restore 31
	blr
	.cfi_endproc
.LFE1463:
	.size	_ZN9idWindingD0Ev, .-_ZN9idWindingD0Ev
	.section	.text._ZN14idFixedWindingD0Ev,"axG",@progbits,_ZN14idFixedWindingD5Ev,comdat
	.align 2
	.weak	_ZN14idFixedWindingD0Ev
	.type	_ZN14idFixedWindingD0Ev, @function
_ZN14idFixedWindingD0Ev:
.LFB1500:
	.loc 1 380 0
	.cfi_startproc
.LVL14:
	mflr 0
	stwu 1,-8(1)
.LCFI6:
	.cfi_def_cfa_offset 8
	.cfi_register 65, 0
.LBB727:
.LBB728:
.LBB729:
.LBB730:
.LBB731:
.LBB732:
	.loc 1 183 0
	lis 11,_ZTV9idWinding+8@ha
.LBE732:
.LBE731:
.LBE730:
.LBE729:
.LBE728:
.LBE727:
	.loc 1 380 0
	stw 0,12(1)
.LBB738:
.LBB737:
.LBB736:
	.loc 1 381 0
	li 0,0
	.cfi_offset 65, 4
	stw 0,8(3)
.LVL15:
.LBB735:
.LBB734:
.LBB733:
	.loc 1 183 0
	la 0,_ZTV9idWinding+8@l(11)
	stw 0,0(3)
.LBE733:
.LBE734:
.LBE735:
.LBE736:
.LBE737:
.LBE738:
	.loc 1 382 0
	bl _ZdlPv
.LVL16:
	lwz 0,12(1)
	addi 1,1,8
.LCFI7:
	.cfi_def_cfa_offset 0
	mtlr 0
	blr
	.cfi_endproc
.LFE1500:
	.size	_ZN14idFixedWindingD0Ev, .-_ZN14idFixedWindingD0Ev
	.section	".text"
	.align 2
	.globl _ZNK12idPlayerView4SaveEP10idSaveGame
	.type	_ZNK12idPlayerView4SaveEP10idSaveGame, @function
_ZNK12idPlayerView4SaveEP10idSaveGame:
.LFB2816:
	.file 2 "d:/Data/Nintendo/DoomGX/src/game/PlayerView.cpp"
	.loc 2 76 0
	.cfi_startproc
.LVL17:
	mflr 0
	stwu 1,-24(1)
.LCFI8:
	.cfi_def_cfa_offset 24
	.cfi_register 65, 0
	stw 28,8(1)
.LBB739:
	addi 28,3,384
	.cfi_offset 28, -16
.LBE739:
	stw 0,28(1)
	stw 29,12(1)
	mr 29,3
	.cfi_offset 29, -12
	.cfi_offset 65, 4
	stw 30,16(1)
	mr 30,4
	.cfi_offset 30, -8
	stw 31,20(1)
.LBB740:
	.loc 2 80 0
	mr 31,3
	.cfi_offset 31, -4
.LVL18:
.L20:
	.loc 2 82 0 discriminator 2
	lwz 4,0(31)
	mr 3,30
	bl _ZN10idSaveGame13WriteMaterialEPK10idMaterial
	.loc 2 83 0 discriminator 2
	lfs 1,4(31)
	mr 3,30
	bl _ZN10idSaveGame10WriteFloatEf
	.loc 2 84 0 discriminator 2
	lfs 1,8(31)
	mr 3,30
	bl _ZN10idSaveGame10WriteFloatEf
	.loc 2 85 0 discriminator 2
	lfs 1,12(31)
	mr 3,30
	bl _ZN10idSaveGame10WriteFloatEf
	.loc 2 86 0 discriminator 2
	lfs 1,16(31)
	mr 3,30
	bl _ZN10idSaveGame10WriteFloatEf
	.loc 2 87 0 discriminator 2
	lfs 1,20(31)
	mr 3,30
	bl _ZN10idSaveGame10WriteFloatEf
	.loc 2 88 0 discriminator 2
	lfs 1,24(31)
	mr 3,30
	bl _ZN10idSaveGame10WriteFloatEf
	.loc 2 89 0 discriminator 2
	lfs 1,28(31)
	mr 3,30
	bl _ZN10idSaveGame10WriteFloatEf
	.loc 2 90 0 discriminator 2
	lfs 1,32(31)
	mr 3,30
	bl _ZN10idSaveGame10WriteFloatEf
	.loc 2 91 0 discriminator 2
	lwz 4,36(31)
	mr 3,30
	bl _ZN10idSaveGame8WriteIntEi
	.loc 2 92 0 discriminator 2
	lwz 4,40(31)
	mr 3,30
	bl _ZN10idSaveGame8WriteIntEi
	.loc 2 93 0 discriminator 2
	lfs 1,44(31)
	mr 3,30
	.loc 2 81 0 discriminator 2
	addi 31,31,48
.LVL19:
	.loc 2 93 0 discriminator 2
	bl _ZN10idSaveGame10WriteFloatEf
.LVL20:
	.loc 2 81 0 discriminator 2
	cmpw 7,31,28
	bne+ 7,.L20
	.loc 2 96 0
	lwz 4,384(29)
	mr 3,30
	bl _ZN10idSaveGame8WriteIntEi
	.loc 2 97 0
	lwz 4,388(29)
	mr 3,30
	bl _ZN10idSaveGame13WriteMaterialEPK10idMaterial
	.loc 2 98 0
	lwz 4,392(29)
	mr 3,30
	bl _ZN10idSaveGame8WriteIntEi
	.loc 2 99 0
	mr 3,30
	addi 4,29,396
	bl _ZN10idSaveGame11WriteAnglesERK8idAngles
	.loc 2 100 0
	lbz 4,408(29)
	mr 3,30
	bl _ZN10idSaveGame9WriteBoolEb
	.loc 2 102 0
	lwz 4,412(29)
	mr 3,30
	bl _ZN10idSaveGame13WriteMaterialEPK10idMaterial
	.loc 2 103 0
	lwz 4,416(29)
	mr 3,30
	bl _ZN10idSaveGame13WriteMaterialEPK10idMaterial
	.loc 2 104 0
	lwz 4,420(29)
	mr 3,30
	bl _ZN10idSaveGame13WriteMaterialEPK10idMaterial
	.loc 2 105 0
	lwz 4,424(29)
	mr 3,30
	bl _ZN10idSaveGame13WriteMaterialEPK10idMaterial
	.loc 2 106 0
	lwz 4,428(29)
	mr 3,30
	bl _ZN10idSaveGame13WriteMaterialEPK10idMaterial
	.loc 2 107 0
	lwz 4,432(29)
	mr 3,30
	bl _ZN10idSaveGame13WriteMaterialEPK10idMaterial
	.loc 2 108 0
	lfs 1,440(29)
	mr 3,30
	bl _ZN10idSaveGame10WriteFloatEf
	.loc 2 110 0
	mr 3,30
	addi 4,29,444
	bl _ZN10idSaveGame9WriteVec4ERK6idVec4
	.loc 2 111 0
	mr 3,30
	addi 4,29,460
	bl _ZN10idSaveGame9WriteVec4ERK6idVec4
	.loc 2 112 0
	addi 4,29,476
	mr 3,30
	bl _ZN10idSaveGame9WriteVec4ERK6idVec4
	.loc 2 113 0
	lfs 1,492(29)
	mr 3,30
	bl _ZN10idSaveGame10WriteFloatEf
	.loc 2 114 0
	lwz 4,496(29)
	mr 3,30
	bl _ZN10idSaveGame8WriteIntEi
	.loc 2 116 0
	mr 3,30
	addi 4,29,500
	bl _ZN10idSaveGame11WriteAnglesERK8idAngles
	.loc 2 118 0
	lwz 4,512(29)
	mr 3,30
	bl _ZN10idSaveGame11WriteObjectEPK7idClass
	.loc 2 119 0
	mr 3,30
	addi 4,29,516
	bl _ZN10idSaveGame15WriteRenderViewERK12renderView_s
.LBE740:
	.loc 2 120 0
	lwz 0,28(1)
	lwz 28,8(1)
	mtlr 0
	lwz 29,12(1)
.LVL21:
	lwz 30,16(1)
.LVL22:
	lwz 31,20(1)
.LVL23:
	addi 1,1,24
.LCFI9:
	.cfi_def_cfa_offset 0
	.cfi_restore 31
	.cfi_restore 30
	.cfi_restore 29
	.cfi_restore 28
	blr
	.cfi_endproc
.LFE2816:
	.size	_ZNK12idPlayerView4SaveEP10idSaveGame, .-_ZNK12idPlayerView4SaveEP10idSaveGame
	.align 2
	.globl _ZN12idPlayerView7RestoreEP13idRestoreGame
	.type	_ZN12idPlayerView7RestoreEP13idRestoreGame, @function
_ZN12idPlayerView7RestoreEP13idRestoreGame:
.LFB2817:
	.loc 2 127 0
	.cfi_startproc
.LVL24:
	mflr 0
	stwu 1,-24(1)
.LCFI10:
	.cfi_def_cfa_offset 24
	.cfi_register 65, 0
	stw 28,8(1)
.LBB741:
	addi 28,3,384
	.cfi_offset 28, -16
.LBE741:
	stw 0,28(1)
	stw 29,12(1)
	mr 29,3
	.cfi_offset 29, -12
	.cfi_offset 65, 4
	stw 30,16(1)
	mr 30,4
	.cfi_offset 30, -8
	stw 31,20(1)
.LBB742:
	.loc 2 131 0
	mr 31,3
	.cfi_offset 31, -4
.LVL25:
.L23:
	.loc 2 133 0 discriminator 2
	mr 4,31
	mr 3,30
	bl _ZN13idRestoreGame12ReadMaterialERPK10idMaterial
	.loc 2 134 0 discriminator 2
	addi 4,31,4
	mr 3,30
	bl _ZN13idRestoreGame9ReadFloatERf
	.loc 2 135 0 discriminator 2
	addi 4,31,8
	mr 3,30
	bl _ZN13idRestoreGame9ReadFloatERf
	.loc 2 136 0 discriminator 2
	addi 4,31,12
	mr 3,30
	bl _ZN13idRestoreGame9ReadFloatERf
	.loc 2 137 0 discriminator 2
	addi 4,31,16
	mr 3,30
	bl _ZN13idRestoreGame9ReadFloatERf
	.loc 2 138 0 discriminator 2
	addi 4,31,20
	mr 3,30
	bl _ZN13idRestoreGame9ReadFloatERf
	.loc 2 139 0 discriminator 2
	addi 4,31,24
	mr 3,30
	bl _ZN13idRestoreGame9ReadFloatERf
	.loc 2 140 0 discriminator 2
	addi 4,31,28
	mr 3,30
	bl _ZN13idRestoreGame9ReadFloatERf
	.loc 2 141 0 discriminator 2
	addi 4,31,32
	mr 3,30
	bl _ZN13idRestoreGame9ReadFloatERf
	.loc 2 142 0 discriminator 2
	addi 4,31,36
	mr 3,30
	bl _ZN13idRestoreGame7ReadIntERi
	.loc 2 143 0 discriminator 2
	addi 4,31,40
	mr 3,30
	bl _ZN13idRestoreGame7ReadIntERi
	.loc 2 144 0 discriminator 2
	addi 4,31,44
	mr 3,30
	.loc 2 132 0 discriminator 2
	addi 31,31,48
.LVL26:
	.loc 2 144 0 discriminator 2
	bl _ZN13idRestoreGame9ReadFloatERf
.LVL27:
	.loc 2 132 0 discriminator 2
	cmpw 7,31,28
	bne+ 7,.L23
	.loc 2 147 0
	mr 4,31
	mr 3,30
	bl _ZN13idRestoreGame7ReadIntERi
	.loc 2 148 0
	mr 3,30
	addi 4,29,388
	bl _ZN13idRestoreGame12ReadMaterialERPK10idMaterial
	.loc 2 149 0
	mr 3,30
	addi 4,29,392
	bl _ZN13idRestoreGame7ReadIntERi
	.loc 2 150 0
	mr 3,30
	addi 4,29,396
	bl _ZN13idRestoreGame10ReadAnglesER8idAngles
	.loc 2 151 0
	mr 3,30
	addi 4,29,408
	bl _ZN13idRestoreGame8ReadBoolERb
	.loc 2 153 0
	mr 3,30
	addi 4,29,412
	bl _ZN13idRestoreGame12ReadMaterialERPK10idMaterial
	.loc 2 154 0
	mr 3,30
	addi 4,29,416
	bl _ZN13idRestoreGame12ReadMaterialERPK10idMaterial
	.loc 2 155 0
	mr 3,30
	addi 4,29,420
	bl _ZN13idRestoreGame12ReadMaterialERPK10idMaterial
	.loc 2 156 0
	mr 3,30
	addi 4,29,424
	bl _ZN13idRestoreGame12ReadMaterialERPK10idMaterial
	.loc 2 157 0
	mr 3,30
	addi 4,29,428
	bl _ZN13idRestoreGame12ReadMaterialERPK10idMaterial
	.loc 2 158 0
	mr 3,30
	addi 4,29,432
	bl _ZN13idRestoreGame12ReadMaterialERPK10idMaterial
	.loc 2 159 0
	mr 3,30
	addi 4,29,440
	bl _ZN13idRestoreGame9ReadFloatERf
	.loc 2 161 0
	mr 3,30
	addi 4,29,444
	bl _ZN13idRestoreGame8ReadVec4ER6idVec4
	.loc 2 162 0
	mr 3,30
	addi 4,29,460
	bl _ZN13idRestoreGame8ReadVec4ER6idVec4
	.loc 2 163 0
	mr 3,30
	addi 4,29,476
	bl _ZN13idRestoreGame8ReadVec4ER6idVec4
	.loc 2 164 0
	mr 3,30
	addi 4,29,492
	bl _ZN13idRestoreGame9ReadFloatERf
	.loc 2 165 0
	mr 3,30
	addi 4,29,496
	bl _ZN13idRestoreGame7ReadIntERi
	.loc 2 167 0
	mr 3,30
	addi 4,29,500
	bl _ZN13idRestoreGame10ReadAnglesER8idAngles
	.loc 2 169 0
	mr 3,30
	addi 4,29,512
	bl _ZN13idRestoreGame10ReadObjectERP7idClass
	.loc 2 170 0
	mr 3,30
	addi 4,29,516
	bl _ZN13idRestoreGame14ReadRenderViewER12renderView_s
.LBE742:
	.loc 2 171 0
	lwz 0,28(1)
	lwz 28,8(1)
	mtlr 0
	lwz 29,12(1)
.LVL28:
	lwz 30,16(1)
.LVL29:
	lwz 31,20(1)
.LVL30:
	addi 1,1,24
.LCFI11:
	.cfi_def_cfa_offset 0
	.cfi_restore 31
	.cfi_restore 30
	.cfi_restore 29
	.cfi_restore 28
	blr
	.cfi_endproc
.LFE2817:
	.size	_ZN12idPlayerView7RestoreEP13idRestoreGame, .-_ZN12idPlayerView7RestoreEP13idRestoreGame
	.align 2
	.globl _ZN12idPlayerView15SetPlayerEntityEP8idPlayer
	.type	_ZN12idPlayerView15SetPlayerEntityEP8idPlayer, @function
_ZN12idPlayerView15SetPlayerEntityEP8idPlayer:
.LFB2818:
	.loc 2 178 0
	.cfi_startproc
.LVL31:
	.loc 2 179 0
	stw 4,512(3)
	.loc 2 180 0
	blr
	.cfi_endproc
.LFE2818:
	.size	_ZN12idPlayerView15SetPlayerEntityEP8idPlayer, .-_ZN12idPlayerView15SetPlayerEntityEP8idPlayer
	.align 2
	.globl _ZN12idPlayerView12ClearEffectsEv
	.type	_ZN12idPlayerView12ClearEffectsEv, @function
_ZN12idPlayerView12ClearEffectsEv:
.LFB2819:
	.loc 2 187 0
	.cfi_startproc
.LVL32:
.LBB743:
	.loc 2 188 0
	lis 9,gameLocal@ha
.LBE743:
	.loc 2 187 0
	stwu 1,-16(1)
.LCFI12:
	.cfi_def_cfa_offset 16
.LBB745:
	.loc 2 188 0
	la 9,gameLocal@l(9)
	lis 10,_ZN6idMath8M_MS2SECE@ha
	addis 9,9,0x25
	lwz 11,2004(9)
	addis 11,11,0xfffe
	addi 0,11,31073
	lis 11,.LC1@ha
	xoris 0,0,0x8000
	lfs 0,.LC1@l(11)
	stw 0,12(1)
	lis 0,0x4330
	stw 0,8(1)
	.loc 2 191 0
	li 0,8
	mtctr 0
	li 11,0
	.loc 2 188 0
	lfd 13,8(1)
	fsub 0,13,0
	lfs 13,_ZN6idMath8M_MS2SECE@l(10)
	frsp 0,0
	fmuls 0,0,13
	stfs 0,440(3)
	.loc 2 190 0
	lwz 10,2004(9)
	addis 10,10,0xfffe
	addi 0,10,31073
	stw 0,384(3)
	.loc 2 191 0
	lwz 10,2004(9)
	addis 10,10,0xfffe
	addi 0,10,31073
	stw 0,392(3)
.LVL33:
.L27:
.LBB744:
	.loc 2 194 0 discriminator 2
	lwz 0,2004(9)
	.loc 2 187 0 discriminator 2
	add 10,3,11
	.loc 2 194 0 discriminator 2
	addi 11,11,48
	stw 0,36(10)
	.loc 2 193 0 discriminator 2
	bdnz .L27
.LBE744:
	.loc 2 197 0
	li 0,0
.LBE745:
	.loc 2 199 0
.LBB746:
	.loc 2 197 0
	stw 0,496(3)
.LBE746:
	.loc 2 199 0
	addi 1,1,16
.LCFI13:
	.cfi_def_cfa_offset 0
.LBB747:
	.loc 2 198 0
	stb 0,408(3)
.LBE747:
	.loc 2 199 0
	blr
	.cfi_endproc
.LFE2819:
	.size	_ZN12idPlayerView12ClearEffectsEv, .-_ZN12idPlayerView12ClearEffectsEv
	.align 2
	.globl _ZN12idPlayerViewC2Ev
	.type	_ZN12idPlayerViewC2Ev, @function
_ZN12idPlayerViewC2Ev:
.LFB2814:
	.loc 2 40 0
	.cfi_startproc
.LVL34:
	stwu 1,-24(1)
.LCFI14:
	.cfi_def_cfa_offset 24
	mflr 0
.LBB748:
	.loc 2 42 0
	li 4,652
.LBE748:
	.loc 2 40 0
	stw 31,20(1)
	mr 31,3
	.cfi_offset 31, -4
	.cfi_register 65, 0
.LBB761:
	.loc 2 42 0
	lis 3,.LC2@ha
.LVL35:
.LBE761:
	.loc 2 40 0
	stw 0,28(1)
.LBB762:
	.loc 2 42 0
	la 3,.LC2@l(3)
.LBE762:
	.loc 2 40 0
	stw 29,12(1)
	stw 30,16(1)
.LBB763:
	.loc 2 42 0
	.cfi_offset 30, -8
	.cfi_offset 29, -12
	.cfi_offset 65, 4
	crxor 6,6,6
	bl _Z15Sys_DebugPrintfPKcz
	.loc 2 45 0
	mr 3,31
	li 4,0
	li 5,384
	.loc 2 48 0
	lis 30,declManager@ha
	.loc 2 45 0
	bl memset
	.loc 2 47 0
	li 29,0
	.loc 2 46 0
	li 4,0
	li 5,136
	addi 3,31,516
	bl memset
	.loc 2 47 0
	stw 29,512(31)
	.loc 2 48 0
	lwz 3,declManager@l(30)
	lis 4,.LC3@ha
	la 4,.LC3@l(4)
	li 5,1
	lwz 9,0(3)
	li 6,0
	lwz 0,104(9)
	mtctr 0
	bctrl
	.loc 2 49 0
	lis 4,.LC4@ha
	.loc 2 48 0
	stw 3,388(31)
	.loc 2 49 0
	la 4,.LC4@l(4)
	lwz 3,declManager@l(30)
	li 5,1
	li 6,0
	lwz 9,0(3)
	lwz 0,104(9)
	mtctr 0
	bctrl
	.loc 2 50 0
	lis 4,.LC5@ha
	.loc 2 49 0
	stw 3,412(31)
	.loc 2 50 0
	la 4,.LC5@l(4)
	lwz 3,declManager@l(30)
	li 5,1
	li 6,0
	lwz 9,0(3)
	lwz 0,104(9)
	mtctr 0
	bctrl
	.loc 2 51 0
	lis 4,.LC6@ha
	.loc 2 50 0
	stw 3,416(31)
	.loc 2 51 0
	la 4,.LC6@l(4)
	lwz 3,declManager@l(30)
	li 5,1
	li 6,0
	lwz 9,0(3)
	lwz 0,104(9)
	mtctr 0
	bctrl
	.loc 2 52 0
	lis 4,.LC7@ha
	.loc 2 51 0
	stw 3,420(31)
	.loc 2 52 0
	la 4,.LC7@l(4)
	lwz 3,declManager@l(30)
	li 5,1
	li 6,0
	lwz 9,0(3)
	lwz 0,104(9)
	mtctr 0
	bctrl
	.loc 2 53 0
	lis 4,.LC8@ha
	.loc 2 52 0
	stw 3,424(31)
	.loc 2 53 0
	la 4,.LC8@l(4)
	lwz 3,declManager@l(30)
	li 5,1
	li 6,0
	lwz 9,0(3)
	lwz 0,104(9)
	mtctr 0
	bctrl
	.loc 2 54 0
	lis 4,.LC9@ha
	.loc 2 53 0
	stw 3,428(31)
	.loc 2 54 0
	la 4,.LC9@l(4)
	lwz 3,declManager@l(30)
	li 5,1
	li 6,0
	lwz 9,0(3)
	lwz 0,104(9)
	mtctr 0
	bctrl
	.loc 2 55 0
	lis 4,.LC10@ha
	.loc 2 54 0
	stw 3,432(31)
	.loc 2 55 0
	la 4,.LC10@l(4)
	lwz 3,declManager@l(30)
	li 5,0
	li 6,0
	lwz 9,0(3)
	lwz 0,104(9)
	mtctr 0
	bctrl
.LBB749:
.LBB750:
	.file 3 "d:/Data/Nintendo/DoomGX/src/game/../idlib/../idlib/math/Angles.h"
	.loc 3 127 0
	li 0,0
.LBE750:
.LBE749:
	.loc 2 55 0
	stw 3,436(31)
	.loc 2 68 0
	mr 3,31
	.loc 2 56 0
	stb 29,408(31)
	.loc 2 57 0
	stw 29,384(31)
	.loc 2 58 0
	stw 29,392(31)
.LVL36:
.LBB752:
.LBB751:
	.loc 3 127 0
	stw 0,404(31)
	stw 0,400(31)
	stw 0,396(31)
.LBE751:
.LBE752:
	.loc 2 60 0
	stw 0,440(31)
	.loc 2 61 0
	stw 29,496(31)
	.loc 2 62 0
	stw 0,492(31)
.LVL37:
.LBB753:
.LBB754:
	.file 4 "d:/Data/Nintendo/DoomGX/src/game/../idlib/../idlib/math/Vector.h"
	.loc 4 881 0
	stw 0,488(31)
	stw 0,484(31)
	stw 0,480(31)
	stw 0,476(31)
.LVL38:
.LBE754:
.LBE753:
.LBB755:
.LBB756:
	stw 0,472(31)
	stw 0,468(31)
	stw 0,464(31)
	stw 0,460(31)
.LVL39:
.LBE756:
.LBE755:
.LBB757:
.LBB758:
	stw 0,456(31)
	stw 0,452(31)
	stw 0,448(31)
	stw 0,444(31)
.LVL40:
.LBE758:
.LBE757:
.LBB759:
.LBB760:
	.loc 3 127 0
	stw 0,508(31)
	stw 0,504(31)
	stw 0,500(31)
.LBE760:
.LBE759:
.LBE763:
	.loc 2 69 0
	lwz 0,28(1)
	lwz 29,12(1)
	lwz 30,16(1)
	mtlr 0
	lwz 31,20(1)
.LVL41:
	addi 1,1,24
.LCFI15:
	.cfi_def_cfa_offset 0
	.cfi_restore 31
	.cfi_restore 30
	.cfi_restore 29
.LBB764:
	.loc 2 68 0
	b _ZN12idPlayerView12ClearEffectsEv
.LVL42:
.LVL43:
.LVL44:
.LVL45:
.LVL46:
.LVL47:
.LBE764:
	.cfi_endproc
.LFE2814:
	.size	_ZN12idPlayerViewC2Ev, .-_ZN12idPlayerViewC2Ev
	.align 2
	.globl _ZN12idPlayerView13GetScreenBlobEv
	.type	_ZN12idPlayerView13GetScreenBlobEv, @function
_ZN12idPlayerView13GetScreenBlobEv:
.LFB2820:
	.loc 2 206 0
	.cfi_startproc
.LVL48:
.LBB765:
	.loc 2 209 0
	li 0,7
	.loc 2 207 0
	mr 8,3
.LVL49:
	.loc 2 209 0
	mtctr 0
	.loc 2 207 0
	mr 11,3
	.loc 2 209 0
	li 9,1
.LVL50:
.L32:
.LBB766:
	.loc 2 210 0
	lwz 10,84(11)
	.loc 2 211 0
	mulli 7,9,48
	.loc 2 210 0
	lwz 0,36(8)
	.loc 2 209 0
	addi 9,9,1
	addi 11,11,48
	.loc 2 210 0
	cmpw 7,10,0
	bge- 7,.L31
	.loc 2 211 0
	add 8,3,7
.LVL51:
.L31:
	.loc 2 209 0
	bdnz .L32
.LBE766:
.LBE765:
	.loc 2 215 0
	mr 3,8
.LVL52:
	blr
	.cfi_endproc
.LFE2820:
	.size	_ZN12idPlayerView13GetScreenBlobEv, .-_ZN12idPlayerView13GetScreenBlobEv
	.align 2
	.globl _ZN12idPlayerView13DamageImpulseE6idVec3PK6idDict
	.type	_ZN12idPlayerView13DamageImpulseE6idVec3PK6idDict, @function
_ZN12idPlayerView13DamageImpulseE6idVec3PK6idDict:
.LFB2821:
	.loc 2 225 0
	.cfi_startproc
.LVL53:
	mflr 0
	stwu 1,-104(1)
.LCFI16:
	.cfi_def_cfa_offset 104
	.cfi_register 65, 0
.LBB847:
	.loc 2 229 0
	lis 9,.LC25@ha
.LBE847:
	.loc 2 225 0
	stw 29,84(1)
	mr 29,5
	.cfi_offset 29, -20
	stw 30,88(1)
	mr 30,4
	.cfi_offset 30, -16
	stw 31,92(1)
	mr 31,3
	.cfi_offset 31, -12
	stw 0,108(1)
	stfd 31,96(1)
	stw 26,72(1)
	stw 27,76(1)
	stw 28,80(1)
.LBB1053:
	.loc 2 229 0
	lfs 13,.LC25@l(9)
	lfs 0,440(3)
.LBB848:
.LBB849:
.LBB850:
.LBB851:
.LBB852:
.LBB853:
	.file 5 "d:/Data/Nintendo/DoomGX/src/game/../idlib/../idlib/Dict.h"
	.loc 5 245 0
	lfs 31,4(4)
	.cfi_offset 28, -24
	.cfi_offset 27, -28
	.cfi_offset 26, -32
	.cfi_offset 63, -8
	.cfi_offset 65, 4
.LBE853:
.LBE852:
.LBE851:
.LBE850:
.LBE849:
.LBE848:
	.loc 2 229 0
	fcmpu 7,0,13
	bgt- 7,.L62
	lis 27,gameLocal@ha
	la 27,gameLocal@l(27)
	addis 28,27,0x25
.L35:
.LVL54:
.LBB978:
.LBB979:
.LBB980:
.LBB981:
	.loc 5 241 0
	lis 4,.LC24@ha
	mr 3,29
.LVL55:
	la 4,.LC24@l(4)
	bl _ZNK6idDict7FindKeyEPKc
.LVL56:
	.loc 5 242 0
	cmpwi 0,3,0
	beq- 0,.L66
.LVL57:
.LBB982:
	.loc 2 725 0
	lwz 9,4(3)
	lwz 3,4(9)
.LVL58:
.L53:
.LBE982:
.LBE981:
.LBE980:
	.loc 5 249 0
	bl atof
.LBE979:
.LBE978:
	.loc 2 235 0
	lis 9,.LC25@ha
.LBB987:
.LBB985:
	.loc 5 249 0
	frsp 1,1
.LBE985:
.LBE987:
	.loc 2 235 0
	lfs 0,.LC25@l(9)
	lis 26,.LC1@ha
	fcmpu 7,1,0
	bne- 7,.L67
.L38:
.LVL59:
.LBB988:
.LBB989:
.LBB990:
.LBB991:
	.loc 5 241 0
	lis 4,.LC13@ha
	mr 3,29
	la 4,.LC13@l(4)
	bl _ZNK6idDict7FindKeyEPKc
.LVL60:
	.loc 5 242 0
	cmpwi 0,3,0
	beq- 0,.L54
.LVL61:
.LBB992:
	.loc 2 725 0
	lwz 9,4(3)
	lwz 3,4(9)
.LVL62:
.L40:
.LBE992:
.LBE991:
.LBE990:
	.loc 5 249 0
	bl atof
.LBE989:
.LBE988:
.LBB997:
	.loc 2 250 0
	lis 9,.LC25@ha
.LBE997:
.LBB1025:
.LBB995:
	.loc 5 249 0
	frsp 1,1
.LBE995:
.LBE1025:
.LBB1026:
	.loc 2 250 0
	lfs 0,.LC25@l(9)
	fcmpu 7,1,0
	bne- 7,.L68
.L41:
.LVL63:
.LBE1026:
.LBB1027:
.LBB1028:
.LBB1029:
.LBB1030:
	.loc 5 241 0
	lis 4,.LC16@ha
	mr 3,29
	la 4,.LC16@l(4)
	bl _ZNK6idDict7FindKeyEPKc
.LVL64:
	.loc 5 242 0
	cmpwi 0,3,0
	beq- 0,.L56
.LVL65:
.LBB1031:
	.loc 2 725 0
	lwz 9,4(3)
	lwz 3,4(9)
.LVL66:
.L43:
.LBE1031:
.LBE1030:
.LBE1029:
	.loc 5 249 0
	bl atof
.LBE1028:
.LBE1027:
.LBB1036:
	.loc 2 275 0
	lis 9,.LC25@ha
.LBE1036:
.LBB1037:
.LBB1034:
	.loc 5 249 0
	frsp 1,1
.LBE1034:
.LBE1037:
.LBB1038:
	.loc 2 275 0
	lfs 0,.LC25@l(9)
	fcmpu 7,1,0
	beq- 7,.L44
.LVL67:
.LBB976:
.LBB865:
.LBB866:
	.loc 2 209 0
	li 0,7
	.loc 2 207 0
	mr 30,31
.LVL68:
	.loc 2 209 0
	mtctr 0
	.loc 2 207 0
	mr 11,31
	.loc 2 209 0
	li 9,1
.LVL69:
.L46:
.LBB867:
	.loc 2 210 0
	lwz 10,84(11)
	.loc 2 211 0
	mulli 8,9,48
	.loc 2 210 0
	lwz 0,36(30)
	.loc 2 209 0
	addi 9,9,1
	addi 11,11,48
	.loc 2 210 0
	cmpw 7,10,0
	bge- 7,.L45
	.loc 2 211 0
	add 30,31,8
.LVL70:
.L45:
	.loc 2 209 0
	bdnz .L46
.LBE867:
.LBE866:
.LBE865:
	.loc 2 277 0
	lwz 0,2004(28)
.LBB868:
.LBB869:
	.loc 2 278 0
	lis 9,g_blobTime+44@ha
.LVL71:
.LBE869:
.LBE868:
	lfs 0,.LC1@l(26)
.LBB871:
.LBB872:
	.loc 5 241 0
	lis 4,.LC17@ha
.LBE872:
.LBE871:
	.loc 2 277 0
	stw 0,40(30)
	.loc 2 278 0
	lis 0,0x4330
	stw 0,24(1)
.LBB878:
.LBB874:
	.loc 5 241 0
	mr 3,29
.LBE874:
.LBE878:
.LBB879:
.LBB870:
	.file 6 "d:/Data/Nintendo/DoomGX/src/game/../idlib/../framework/CVarSystem.h"
	.loc 6 144 0
	lwz 9,g_blobTime+44@l(9)
.LBE870:
.LBE879:
.LBB880:
.LBB875:
	.loc 5 241 0
	la 4,.LC17@l(4)
.LBE875:
.LBE880:
	.loc 2 278 0
	lwz 0,2004(28)
	xoris 0,0,0x8000
	stw 0,28(1)
	lfd 13,24(1)
	fsub 0,13,0
	lfs 13,40(9)
	addi 9,30,36
	frsp 0,0
	fmadds 1,13,1,0
	fctiwz 1,1
	stfiwx 1,0,9
.LVL72:
.LBB881:
.LBB876:
	.loc 5 241 0
	bl _ZNK6idDict7FindKeyEPKc
.LVL73:
	.loc 5 242 0
	cmpwi 0,3,0
	beq- 0,.L57
.LVL74:
.LBB873:
	.loc 2 725 0
	lwz 9,4(3)
	lwz 4,4(9)
.LVL75:
.L47:
.LBE873:
.LBE876:
.LBE881:
	.loc 2 281 0
	lis 9,declManager@ha
	li 5,1
	lwz 3,declManager@l(9)
.LVL76:
	li 6,0
	lwz 9,0(3)
	lwz 0,104(9)
	mtctr 0
	bctrl
.LBB882:
.LBB883:
.LBB884:
.LBB885:
	.loc 5 241 0
	lis 4,.LC18@ha
.LBE885:
.LBE884:
.LBE883:
.LBE882:
	.loc 2 281 0
	stw 3,0(30)
.LVL77:
.LBB894:
.LBB891:
.LBB889:
.LBB887:
	.loc 5 241 0
	la 4,.LC18@l(4)
	mr 3,29
	bl _ZNK6idDict7FindKeyEPKc
.LVL78:
	.loc 5 242 0
	cmpwi 0,3,0
	beq- 0,.L58
.LVL79:
.LBB886:
	.loc 2 725 0
	lwz 9,4(3)
	lwz 3,4(9)
.LVL80:
.L48:
.LBE886:
.LBE887:
.LBE889:
	.loc 5 249 0
	bl atof
.LBE891:
.LBE894:
.LBB895:
.LBB896:
	.file 7 "d:/Data/Nintendo/DoomGX/src/game/../idlib/../idlib/math/Random.h"
	.loc 7 71 0
	addis 27,27,0x1
.LBE896:
.LBE895:
.LBB901:
.LBB892:
	.loc 5 249 0
	frsp 1,1
.LBE892:
.LBE901:
.LBB902:
.LBB897:
	.loc 7 71 0
	lis 9,0x1
	ori 9,9,3533
.LBE897:
.LBE902:
	.loc 2 283 0
	lis 0,0x4330
	lfs 0,.LC1@l(26)
.LBB903:
.LBB904:
.LBB905:
.LBB906:
	.loc 5 241 0
	lis 4,.LC19@ha
.LBE906:
.LBE905:
.LBE904:
.LBE903:
	.loc 2 282 0
	stfs 1,4(30)
.LVL81:
.LBB918:
.LBB914:
.LBB911:
.LBB908:
	.loc 5 241 0
	mr 3,29
	la 4,.LC19@l(4)
.LBE908:
.LBE911:
.LBE914:
.LBE918:
.LBB919:
.LBB898:
	.loc 7 71 0
	lwz 11,-32064(27)
.LBE898:
.LBE919:
	.loc 2 283 0
	stw 0,32(1)
.LBB920:
.LBB899:
	.loc 7 71 0
	mullw 9,9,11
	addi 0,9,1
.LBE899:
.LBE920:
	.loc 2 283 0
	rlwinm 9,0,0,26,31
	addi 9,9,-32
	xoris 9,9,0x8000
	stw 9,36(1)
.LBB921:
.LBB900:
	.loc 7 71 0
	stw 0,-32064(27)
.LBE900:
.LBE921:
	.loc 2 283 0
	lfd 13,32(1)
	fsub 0,13,0
	frsp 0,0
	fadds 1,0,1
	stfs 1,4(30)
.LVL82:
.LBB922:
.LBB915:
.LBB912:
.LBB909:
	.loc 5 241 0
	bl _ZNK6idDict7FindKeyEPKc
.LVL83:
	.loc 5 242 0
	cmpwi 0,3,0
	beq- 0,.L59
.LVL84:
.LBB907:
	.loc 2 725 0
	lwz 9,4(3)
	lwz 3,4(9)
.LVL85:
.L49:
.LBE907:
.LBE909:
.LBE912:
	.loc 5 249 0
	bl atof
.LBE915:
.LBE922:
.LBB923:
.LBB924:
	.loc 7 71 0
	lis 0,0x1
.LBE924:
.LBE923:
.LBB930:
.LBB916:
	.loc 5 249 0
	frsp 1,1
.LBE916:
.LBE930:
.LBB931:
.LBB925:
	.loc 7 71 0
	ori 0,0,3533
.LBE925:
.LBE931:
	.loc 2 285 0
	lis 11,0x4330
	lfs 0,.LC1@l(26)
.LBB932:
.LBB933:
.LBB934:
.LBB935:
	.loc 5 241 0
	lis 4,.LC21@ha
	mr 3,29
.LBE935:
.LBE934:
.LBE933:
.LBE932:
	.loc 2 284 0
	stfs 1,8(30)
.LVL86:
.LBB948:
.LBB943:
.LBB940:
.LBB937:
	.loc 5 241 0
	la 4,.LC21@l(4)
.LBE937:
.LBE940:
.LBE943:
.LBE948:
.LBB949:
.LBB926:
	.loc 7 71 0
	lwz 9,-32064(27)
.LBE926:
.LBE949:
	.loc 2 285 0
	stw 11,40(1)
.LBB950:
.LBB927:
	.loc 7 71 0
	mullw 9,0,9
.LBE927:
.LBE950:
	.loc 2 287 0
	stw 11,48(1)
.LBB951:
.LBB928:
	.loc 7 71 0
	addi 9,9,1
.LBE928:
.LBE951:
	.loc 2 285 0
	rlwinm 11,9,0,26,31
	addi 11,11,-32
	xoris 11,11,0x8000
	stw 11,44(1)
.LBB952:
.LBB929:
	.loc 7 71 0
	stw 9,-32064(27)
.LBE929:
.LBE952:
	.loc 2 285 0
	lfd 13,40(1)
	fsub 13,13,0
	frsp 13,13
	fadds 1,13,1
	stfs 1,8(30)
.LVL87:
.LBB953:
.LBB954:
	.loc 7 71 0
	lwz 9,-32064(27)
	mullw 9,0,9
	addi 0,9,1
.LBE954:
.LBE953:
	.loc 2 287 0
	rlwinm 9,0,0,26,31
	addi 9,9,224
	xoris 9,9,0x8000
	stw 9,52(1)
	lis 9,.LC20@ha
.LBB956:
.LBB955:
	.loc 7 71 0
	stw 0,-32064(27)
.LBE955:
.LBE956:
	.loc 2 287 0
	lfs 13,.LC20@l(9)
	lfd 31,48(1)
	fsub 31,31,0
	frsp 31,31
	fmuls 31,31,13
.LVL88:
.LBB957:
.LBB944:
.LBB941:
.LBB938:
	.loc 5 241 0
	bl _ZNK6idDict7FindKeyEPKc
.LVL89:
	.loc 5 242 0
	cmpwi 0,3,0
	beq- 0,.L60
.LVL90:
.LBB936:
	.loc 2 725 0
	lwz 9,4(3)
	lwz 3,4(9)
.LVL91:
.L50:
.LBE936:
.LBE938:
.LBE941:
.LBE944:
.LBE957:
.LBB958:
.LBB959:
	.loc 2 288 0
	lis 27,g_blobSize@ha
.LBE959:
.LBE958:
.LBB962:
.LBB945:
	.loc 5 249 0
	bl atof
.LBE945:
.LBE962:
.LBB963:
.LBB960:
	.loc 2 288 0
	la 27,g_blobSize@l(27)
.LBE960:
.LBE963:
.LBB964:
.LBB946:
	.loc 5 249 0
	frsp 1,1
.LBE946:
.LBE964:
.LBB965:
.LBB961:
	.loc 6 144 0
	lwz 9,44(27)
.LBE961:
.LBE965:
.LBB966:
.LBB861:
.LBB858:
.LBB855:
	.loc 5 241 0
	lis 4,.LC22@ha
	mr 3,29
	la 4,.LC22@l(4)
.LBE855:
.LBE858:
.LBE861:
.LBE966:
	.loc 2 288 0
	lfs 0,40(9)
	fmuls 0,1,0
	fmuls 0,0,31
	stfs 0,12(30)
.LVL92:
.LBB967:
.LBB862:
.LBB859:
.LBB856:
	.loc 5 241 0
	bl _ZNK6idDict7FindKeyEPKc
.LVL93:
	.loc 5 242 0
	cmpwi 0,3,0
	beq- 0,.L61
.LVL94:
.LBB854:
	.loc 2 725 0
	lwz 9,4(3)
	lwz 3,4(9)
.LVL95:
.L51:
.LBE854:
.LBE856:
.LBE859:
	.loc 5 249 0
	bl atof
.LBE862:
.LBE967:
.LBB968:
.LBB969:
	.loc 6 144 0
	lwz 9,44(27)
.LBE969:
.LBE968:
.LBB970:
.LBB863:
	.loc 5 249 0
	frsp 1,1
.LBE863:
.LBE970:
	.loc 2 289 0
	lfs 0,40(9)
	.loc 2 292 0
	lis 9,.LC23@ha
	lwz 0,.LC23@l(9)
	.loc 2 290 0
	li 9,0
	.loc 2 289 0
	fmuls 0,1,0
	.loc 2 290 0
	stw 9,20(30)
	.loc 2 291 0
	stw 9,24(30)
	.loc 2 292 0
	stw 0,28(30)
	.loc 2 289 0
	fmuls 31,0,31
.LVL96:
	.loc 2 293 0
	stw 0,32(30)
	.loc 2 289 0
	stfs 31,16(30)
.LVL97:
.L44:
.LBE976:
.LBE1038:
	.loc 2 299 0
	lwz 0,2004(28)
	lis 9,_ZN6idMath8M_MS2SECE@ha
	lfs 0,.LC1@l(26)
	xoris 0,0,0x8000
	stw 0,60(1)
	lis 0,0x4330
	stw 0,56(1)
	lfd 13,56(1)
	fsub 0,13,0
	lfs 13,_ZN6idMath8M_MS2SECE@l(9)
	frsp 0,0
	fmuls 0,0,13
	stfs 0,440(31)
.LBE1053:
	.loc 2 301 0
	lwz 0,108(1)
	lwz 26,72(1)
	mtlr 0
	lwz 27,76(1)
	lwz 28,80(1)
	lwz 29,84(1)
.LVL98:
	lwz 30,88(1)
	lwz 31,92(1)
.LVL99:
	lfd 31,96(1)
	addi 1,1,104
	.cfi_remember_state
.LCFI17:
	.cfi_def_cfa_offset 0
	.cfi_restore 63
	.cfi_restore 31
	.cfi_restore 30
	.cfi_restore 29
	.cfi_restore 28
	.cfi_restore 27
	.cfi_restore 26
	blr
.LVL100:
.L62:
.LCFI18:
	.cfi_restore_state
.LBB1054:
	.loc 2 229 0 discriminator 1
	lis 9,_ZN6idMath8M_SEC2MSE@ha
	lis 27,gameLocal@ha
	lfs 13,_ZN6idMath8M_SEC2MSE@l(9)
	la 27,gameLocal@l(27)
.LBB1039:
.LBB1040:
	.file 8 "d:/Data/Nintendo/DoomGX/src/game/../idlib/../idlib/math/Math.h"
	.loc 8 825 0 discriminator 1
	addi 9,1,68
.LBE1040:
.LBE1039:
	.loc 2 229 0 discriminator 1
	addis 28,27,0x25
	fmuls 0,0,13
.LVL101:
	lwz 0,2004(28)
.LBB1042:
.LBB1041:
	.loc 8 825 0 discriminator 1
	fctiwz 0,0
	stfiwx 0,0,9
	lwz 9,68(1)
.LBE1041:
.LBE1042:
	.loc 2 229 0 discriminator 1
	addi 9,9,149
	cmpw 7,9,0
	blt- 7,.L35
.LBE1054:
	.loc 2 301 0
	lwz 0,108(1)
	lwz 26,72(1)
	mtlr 0
	lwz 27,76(1)
	lwz 28,80(1)
	lwz 29,84(1)
	lwz 30,88(1)
	lwz 31,92(1)
	lfd 31,96(1)
	addi 1,1,104
	.cfi_remember_state
	.cfi_restore 26
	.cfi_restore 27
	.cfi_restore 28
	.cfi_restore 29
	.cfi_restore 30
	.cfi_restore 31
	.cfi_restore 63
.LCFI19:
	.cfi_def_cfa_offset 0
	blr
.LVL102:
.L67:
.LCFI20:
	.cfi_restore_state
.LBB1055:
	.loc 2 236 0
	lwz 0,384(31)
	lwz 9,2004(28)
	cmpw 7,0,9
	bge- 7,.L39
	.loc 2 237 0
	stw 9,384(31)
	mr 0,9
.L39:
	.loc 2 239 0
	xoris 0,0,0x8000
	lis 26,.LC1@ha
	stw 0,12(1)
	lis 0,0x4330
	stw 0,8(1)
.LBB1043:
.LBB1044:
	.loc 6 144 0
	lis 9,g_dvTime+44@ha
.LBE1044:
.LBE1043:
	.loc 2 239 0
	lfs 0,.LC1@l(26)
	lfd 13,8(1)
.LBB1046:
.LBB1045:
	.loc 6 144 0
	lwz 9,g_dvTime+44@l(9)
.LBE1045:
.LBE1046:
	.loc 2 239 0
	fsub 0,13,0
	lfs 13,40(9)
	addi 9,1,64
	frsp 0,0
	fmadds 1,13,1,0
	fctiwz 1,1
	stfiwx 1,0,9
	lwz 0,64(1)
	stw 0,384(31)
	.loc 2 241 0
	lwz 9,2004(28)
	addi 9,9,5000
	cmpw 7,0,9
	ble- 7,.L38
	.loc 2 242 0
	stw 9,384(31)
	b .L38
.LVL103:
.L68:
.LBB1047:
.LBB998:
	.loc 2 251 0
	lwz 0,2004(28)
.LBB999:
.LBB1000:
	.loc 6 144 0
	lis 9,g_kickTime+44@ha
.LBE1000:
.LBE999:
	.loc 2 251 0
	lfs 0,.LC1@l(26)
.LBB1002:
.LBB1003:
.LBB1004:
.LBB1005:
	.loc 5 241 0
	lis 4,.LC15@ha
.LBE1005:
.LBE1004:
.LBE1003:
.LBE1002:
	.loc 2 251 0
	xoris 0,0,0x8000
.LBB1017:
.LBB1001:
	.loc 6 144 0
	lwz 9,g_kickTime+44@l(9)
.LBE1001:
.LBE1017:
	.loc 2 251 0
	stw 0,20(1)
	lis 0,0x4330
	stw 0,16(1)
.LBB1018:
.LBB1013:
.LBB1010:
.LBB1007:
	.loc 5 241 0
	mr 3,29
	la 4,.LC15@l(4)
.LBE1007:
.LBE1010:
.LBE1013:
.LBE1018:
	.loc 2 251 0
	lfd 13,16(1)
	.loc 2 254 0
	lfs 12,0(30)
	.loc 2 251 0
	fsub 0,13,0
	lfs 13,40(9)
	.loc 2 257 0
	lis 9,.LC14@ha
	.loc 2 251 0
	frsp 0,0
	fmadds 1,13,1,0
	.loc 2 257 0
	lfs 13,.LC14@l(9)
	.loc 2 260 0
	lfs 0,8(30)
	.loc 2 251 0
	addi 9,31,392
	.loc 2 257 0
	fmuls 13,31,13
	.loc 2 251 0
	fctiwz 1,1
	.loc 2 260 0
	fadds 0,12,0
	.loc 2 251 0
	stfiwx 1,0,9
.LVL104:
	.loc 2 257 0
	stfs 13,400(31)
.LVL105:
	.loc 2 260 0
	stfs 0,396(31)
.LVL106:
	.loc 2 263 0
	stfs 31,404(31)
.LVL107:
.LBB1019:
.LBB1014:
.LBB1011:
.LBB1008:
	.loc 5 241 0
	bl _ZNK6idDict7FindKeyEPKc
.LVL108:
	.loc 5 242 0
	cmpwi 0,3,0
	beq- 0,.L55
.LVL109:
.LBB1006:
	.loc 2 725 0
	lwz 9,4(3)
	lwz 3,4(9)
.LVL110:
.L42:
.LBE1006:
.LBE1008:
.LBE1011:
	.loc 5 249 0
	bl atof
.LBE1014:
.LBE1019:
	.loc 2 266 0
	lis 9,.LC25@ha
.LBB1020:
.LBB1015:
	.loc 5 249 0
	frsp 1,1
.LBE1015:
.LBE1020:
	.loc 2 266 0
	lfs 0,.LC25@l(9)
	fcmpu 7,1,0
	beq- 7,.L41
.LVL111:
.LBB1021:
.LBB1022:
	.loc 3 181 0
	lfs 13,396(31)
	.loc 3 182 0
	lfs 0,400(31)
	.loc 3 183 0
	lfs 12,404(31)
	.loc 3 181 0
	fmuls 13,13,1
	.loc 3 182 0
	fmuls 0,0,1
	.loc 3 183 0
	fmuls 1,12,1
	.loc 3 181 0
	stfs 13,396(31)
	.loc 3 182 0
	stfs 0,400(31)
	.loc 3 183 0
	stfs 1,404(31)
	b .L41
.LVL112:
.L66:
.LBE1022:
.LBE1021:
.LBE998:
.LBE1047:
.LBB1048:
.LBB986:
.LBB984:
.LBB983:
	.loc 5 245 0
	lis 3,.LC11@ha
.LVL113:
	la 3,.LC11@l(3)
	b .L53
.LVL114:
.L54:
.LBE983:
.LBE984:
.LBE986:
.LBE1048:
.LBB1049:
.LBB996:
.LBB994:
.LBB993:
	lis 3,.LC11@ha
.LVL115:
	la 3,.LC11@l(3)
	b .L40
.LVL116:
.L56:
.LBE993:
.LBE994:
.LBE996:
.LBE1049:
.LBB1050:
.LBB1035:
.LBB1033:
.LBB1032:
	lis 3,.LC11@ha
.LVL117:
	la 3,.LC11@l(3)
	b .L43
.LVL118:
.L61:
.LBE1032:
.LBE1033:
.LBE1035:
.LBE1050:
.LBB1051:
.LBB977:
.LBB971:
.LBB864:
.LBB860:
.LBB857:
	lis 3,.LC11@ha
.LVL119:
	la 3,.LC11@l(3)
	b .L51
.LVL120:
.L60:
.LBE857:
.LBE860:
.LBE864:
.LBE971:
.LBB972:
.LBB947:
.LBB942:
.LBB939:
	lis 3,.LC11@ha
.LVL121:
	la 3,.LC11@l(3)
	b .L50
.LVL122:
.L57:
.LBE939:
.LBE942:
.LBE947:
.LBE972:
.LBB973:
.LBB877:
	lis 4,.LC12@ha
	la 4,.LC12@l(4)
	b .L47
.LVL123:
.L59:
.LBE877:
.LBE973:
.LBB974:
.LBB917:
.LBB913:
.LBB910:
	lis 3,.LC11@ha
.LVL124:
	la 3,.LC11@l(3)
	b .L49
.LVL125:
.L58:
.LBE910:
.LBE913:
.LBE917:
.LBE974:
.LBB975:
.LBB893:
.LBB890:
.LBB888:
	lis 3,.LC11@ha
.LVL126:
	la 3,.LC11@l(3)
	b .L48
.LVL127:
.L55:
.LBE888:
.LBE890:
.LBE893:
.LBE975:
.LBE977:
.LBE1051:
.LBB1052:
.LBB1024:
.LBB1023:
.LBB1016:
.LBB1012:
.LBB1009:
	lis 3,.LC11@ha
.LVL128:
	la 3,.LC11@l(3)
	b .L42
.LBE1009:
.LBE1012:
.LBE1016:
.LBE1023:
.LBE1024:
.LBE1052:
.LBE1055:
	.cfi_endproc
.LFE2821:
	.size	_ZN12idPlayerView13DamageImpulseE6idVec3PK6idDict, .-_ZN12idPlayerView13DamageImpulseE6idVec3PK6idDict
	.align 2
	.globl _ZN12idPlayerView13AddBloodSprayEf
	.type	_ZN12idPlayerView13AddBloodSprayEf, @function
_ZN12idPlayerView13AddBloodSprayEf:
.LFB2822:
	.loc 2 311 0
	.cfi_startproc
.LVL129:
	.loc 2 348 0
	blr
	.cfi_endproc
.LFE2822:
	.size	_ZN12idPlayerView13AddBloodSprayEf, .-_ZN12idPlayerView13AddBloodSprayEf
	.align 2
	.globl _ZN12idPlayerView18WeaponFireFeedbackEPK6idDict
	.type	_ZN12idPlayerView18WeaponFireFeedbackEPK6idDict, @function
_ZN12idPlayerView18WeaponFireFeedbackEPK6idDict:
.LFB2823:
	.loc 2 357 0
	.cfi_startproc
.LVL130:
	stwu 1,-56(1)
.LCFI21:
	.cfi_def_cfa_offset 56
	mflr 0
	stw 28,40(1)
	mr 28,4
	.cfi_offset 28, -16
	.cfi_register 65, 0
.LVL131:
.LBB1069:
.LBB1070:
.LBB1071:
.LBB1072:
.LBB1073:
	.loc 5 241 0
	lis 4,.LC26@ha
.LVL132:
.LBE1073:
.LBE1072:
.LBE1071:
.LBE1070:
.LBE1069:
	.loc 2 357 0
	stw 31,52(1)
.LBB1100:
.LBB1087:
.LBB1083:
.LBB1079:
.LBB1075:
	.loc 5 241 0
	la 4,.LC26@l(4)
.LBE1075:
.LBE1079:
.LBE1083:
.LBE1087:
.LBE1100:
	.loc 2 357 0
	mr 31,3
	.cfi_offset 31, -4
.LBB1101:
.LBB1088:
.LBB1084:
.LBB1080:
.LBB1076:
	.loc 5 241 0
	mr 3,28
.LVL133:
.LBE1076:
.LBE1080:
.LBE1084:
.LBE1088:
.LBE1101:
	.loc 2 357 0
	stw 0,60(1)
	stw 29,44(1)
	stw 30,48(1)
.LBB1102:
.LBB1089:
.LBB1085:
.LBB1081:
.LBB1077:
	.loc 5 241 0
	.cfi_offset 30, -8
	.cfi_offset 29, -12
	.cfi_offset 65, 4
	bl _ZNK6idDict7FindKeyEPKc
.LVL134:
	.loc 5 242 0
	cmpwi 0,3,0
	beq- 0,.L73
.LVL135:
.LBB1074:
	.loc 2 725 0
	lwz 9,4(3)
	lwz 3,4(9)
.LVL136:
.L71:
.LBE1074:
.LBE1077:
.LBE1081:
	.loc 5 253 0
	bl atoi
.LVL137:
.LBE1085:
.LBE1089:
.LBB1090:
	.loc 2 362 0
	mr. 29,3
	beq- 0,.L70
	.loc 2 362 0 is_stmt 0 discriminator 1
	lis 30,gameLocal@ha
	lwz 9,392(31)
	la 30,gameLocal@l(30)
	addis 30,30,0x25
	lwz 0,2004(30)
	cmpw 7,9,0
	blt- 7,.L74
.L70:
.LBE1090:
.LBE1102:
	.loc 2 370 0 is_stmt 1
	lwz 0,60(1)
	lwz 28,40(1)
.LVL138:
	mtlr 0
	lwz 29,44(1)
	lwz 30,48(1)
	lwz 31,52(1)
.LVL139:
	addi 1,1,56
	.cfi_remember_state
.LCFI22:
	.cfi_def_cfa_offset 0
	.cfi_restore 31
	.cfi_restore 30
	.cfi_restore 29
	.cfi_restore 28
	blr
.LVL140:
.L74:
.LCFI23:
	.cfi_restore_state
.LBB1103:
.LBB1098:
.LBB1091:
	.loc 2 364 0
	lis 4,.LC27@ha
	lis 5,.LC28@ha
	mr 3,28
.LVL141:
	addi 6,1,8
	la 4,.LC27@l(4)
	la 5,.LC28@l(5)
	bl _ZNK6idDict9GetAnglesEPKcS1_R8idAngles
.LVL142:
.LBB1092:
.LBB1093:
	.loc 3 146 0
	lwz 0,8(1)
.LBE1093:
.LBE1092:
	.loc 2 366 0
	xoris 29,29,0x8000
.LVL143:
.LBB1095:
.LBB1094:
	.loc 3 146 0
	stw 0,396(31)
	.loc 3 147 0
	lwz 0,12(1)
	stw 0,400(31)
	.loc 3 148 0
	lwz 0,16(1)
	stw 0,404(31)
.LBE1094:
.LBE1095:
	.loc 2 366 0
	lis 0,0x4330
	addi 31,31,392
.LVL144:
	lwz 9,2004(30)
	stw 29,28(1)
	xoris 9,9,0x8000
	stw 0,24(1)
	stw 9,36(1)
	lis 9,.LC1@ha
	stw 0,32(1)
	lfd 11,24(1)
	lfd 13,32(1)
	lfs 0,.LC1@l(9)
.LBB1096:
.LBB1097:
	lis 9,g_kickTime+44@ha
	.loc 6 144 0
	lwz 9,g_kickTime+44@l(9)
.LBE1097:
.LBE1096:
	.loc 2 366 0
	fsub 11,11,0
	fsub 0,13,0
	lfs 12,40(9)
	frsp 11,11
	frsp 13,0
	fmadds 0,11,12,13
	fctiwz 0,0
	stfiwx 0,0,31
.LBE1091:
.LBE1098:
.LBE1103:
	.loc 2 370 0
	lwz 0,60(1)
	lwz 28,40(1)
.LVL145:
	mtlr 0
	lwz 29,44(1)
.LVL146:
	lwz 30,48(1)
	lwz 31,52(1)
.LVL147:
	addi 1,1,56
	.cfi_remember_state
	.cfi_restore 28
	.cfi_restore 29
	.cfi_restore 30
	.cfi_restore 31
.LCFI24:
	.cfi_def_cfa_offset 0
	blr
.LVL148:
.L73:
.LCFI25:
	.cfi_restore_state
.LBB1104:
.LBB1099:
.LBB1086:
.LBB1082:
.LBB1078:
	.loc 5 245 0
	lis 3,.LC11@ha
.LVL149:
	la 3,.LC11@l(3)
	b .L71
.LBE1078:
.LBE1082:
.LBE1086:
.LBE1099:
.LBE1104:
	.cfi_endproc
.LFE2823:
	.size	_ZN12idPlayerView18WeaponFireFeedbackEPK6idDict, .-_ZN12idPlayerView18WeaponFireFeedbackEPK6idDict
	.align 2
	.globl _ZN12idPlayerView14CalculateShakeEv
	.type	_ZN12idPlayerView14CalculateShakeEv, @function
_ZN12idPlayerView14CalculateShakeEv:
.LFB2824:
	.loc 2 377 0
	.cfi_startproc
.LVL150:
	mflr 0
	stwu 1,-40(1)
.LCFI26:
	.cfi_def_cfa_offset 40
	.cfi_register 65, 0
.LBB1105:
	.loc 2 380 0
	lis 9,gameSoundWorld@ha
.LBE1105:
	.loc 2 377 0
	stw 30,32(1)
.LBB1160:
	.loc 2 380 0
	lis 30,gameLocal@ha
	.cfi_offset 30, -8
.LBE1160:
	.loc 2 377 0
	stw 31,36(1)
.LBB1161:
	.loc 2 380 0
	la 30,gameLocal@l(30)
.LBE1161:
	.loc 2 377 0
	stw 0,44(1)
.LBB1162:
	.loc 2 380 0
	addis 11,30,0x25
	lwz 9,gameSoundWorld@l(9)
.LBE1162:
	.loc 2 377 0
	mr 31,3
	.cfi_offset 65, 4
	.cfi_offset 31, -4
.LBB1163:
	.loc 2 380 0
	lwz 5,512(3)
.LBB1106:
.LBB1107:
.LBB1108:
.LBB1109:
.LBB1110:
.LBB1111:
	.loc 7 71 0
	addis 30,30,0x1
.LBE1111:
.LBE1110:
.LBE1109:
.LBE1108:
.LBE1107:
.LBE1106:
	.loc 2 380 0
	lwz 10,0(9)
	mr 3,9
.LVL151:
	lwz 4,2004(11)
	addi 5,5,5320
	lwz 0,24(10)
	mtctr 0
	bctrl
.LVL152:
.LBB1133:
.LBB1130:
.LBB1125:
.LBB1120:
.LBB1116:
.LBB1112:
	.loc 7 71 0
	lwz 11,-32064(30)
	lis 0,0x1
.LBE1112:
.LBE1116:
	.loc 7 83 0
	lis 9,0x4330
.LBB1117:
.LBB1113:
	.loc 7 71 0
	ori 0,0,3533
.LBE1113:
.LBE1117:
	.loc 7 83 0
	stw 9,8(1)
.LBB1118:
.LBB1114:
	.loc 7 71 0
	mullw 11,0,11
	addi 11,11,1
	.loc 7 72 0
	rlwinm 10,11,0,17,31
.LBE1114:
.LBE1118:
	.loc 7 83 0
	xoris 10,10,0x8000
	stw 10,12(1)
	lis 10,.LC1@ha
	lfs 12,.LC1@l(10)
.LBE1120:
.LBE1125:
	.loc 7 87 0
	lis 10,.LC29@ha
.LBB1126:
.LBB1121:
	.loc 7 83 0
	lfd 11,8(1)
.LBE1121:
.LBE1126:
	.loc 7 87 0
	lfs 13,.LC29@l(10)
	lis 10,.LC14@ha
.LBB1127:
.LBB1122:
	.loc 7 83 0
	fsub 11,11,12
.LBE1122:
.LBE1127:
	.loc 7 87 0
	lfs 0,.LC14@l(10)
.LBB1128:
.LBB1123:
.LBB1119:
.LBB1115:
	.loc 7 71 0
	stw 11,-32064(30)
.LBE1115:
.LBE1119:
.LBE1123:
.LBE1128:
.LBE1130:
.LBE1133:
.LBB1134:
.LBB1135:
.LBB1136:
.LBB1137:
	.loc 7 83 0
	stw 9,16(1)
.LBE1137:
.LBE1136:
.LBE1135:
.LBE1134:
.LBB1145:
.LBB1131:
.LBB1129:
.LBB1124:
	frsp 11,11
.LBE1124:
.LBE1129:
.LBE1131:
.LBE1145:
.LBB1146:
.LBB1147:
.LBB1148:
.LBB1149:
	stw 9,24(1)
.LBE1149:
.LBE1148:
.LBE1147:
.LBE1146:
.LBB1157:
.LBB1132:
	.loc 7 87 0
	fmsubs 11,11,13,0
	fadds 11,11,11
.LBE1132:
.LBE1157:
	.loc 2 387 0
	fmuls 11,1,11
	stfs 11,500(31)
.LVL153:
.LBB1158:
.LBB1144:
.LBB1143:
.LBB1142:
.LBB1138:
.LBB1139:
	.loc 7 71 0
	lwz 9,-32064(30)
	mullw 9,0,9
	addi 9,9,1
	.loc 7 72 0
	rlwinm 11,9,0,17,31
.LBE1139:
.LBE1138:
	.loc 7 83 0
	xoris 11,11,0x8000
	stw 11,20(1)
.LBB1141:
.LBB1140:
	.loc 7 71 0
	stw 9,-32064(30)
.LBE1140:
.LBE1141:
	.loc 7 83 0
	lfd 11,16(1)
	fsub 11,11,12
	frsp 11,11
.LBE1142:
.LBE1143:
	.loc 7 87 0
	fmsubs 11,11,13,0
	fadds 11,11,11
.LBE1144:
.LBE1158:
	.loc 2 388 0
	fmuls 11,1,11
	stfs 11,504(31)
.LVL154:
.LBB1159:
.LBB1156:
.LBB1155:
.LBB1154:
.LBB1150:
.LBB1151:
	.loc 7 71 0
	lwz 9,-32064(30)
	mullw 9,0,9
	addi 0,9,1
	.loc 7 72 0
	rlwinm 9,0,0,17,31
.LBE1151:
.LBE1150:
	.loc 7 83 0
	xoris 9,9,0x8000
	stw 9,28(1)
.LBB1153:
.LBB1152:
	.loc 7 71 0
	stw 0,-32064(30)
.LBE1152:
.LBE1153:
	.loc 7 83 0
	lfd 11,24(1)
	fsub 12,11,12
	frsp 12,12
.LBE1154:
.LBE1155:
	.loc 7 87 0
	fmsubs 0,12,13,0
	fadds 0,0,0
.LBE1156:
.LBE1159:
	.loc 2 389 0
	fmuls 1,1,0
.LVL155:
	stfs 1,508(31)
.LBE1163:
	.loc 2 390 0
	lwz 0,44(1)
	lwz 30,32(1)
	mtlr 0
	lwz 31,36(1)
.LVL156:
	addi 1,1,40
.LCFI27:
	.cfi_def_cfa_offset 0
	.cfi_restore 31
	.cfi_restore 30
	blr
	.cfi_endproc
.LFE2824:
	.size	_ZN12idPlayerView14CalculateShakeEv, .-_ZN12idPlayerView14CalculateShakeEv
	.align 2
	.globl _ZNK12idPlayerView9ShakeAxisEv
	.type	_ZNK12idPlayerView9ShakeAxisEv, @function
_ZNK12idPlayerView9ShakeAxisEv:
.LFB2825:
	.loc 2 397 0
	.cfi_startproc
.LVL157:
	mflr 0
	stwu 1,-16(1)
.LCFI28:
	.cfi_def_cfa_offset 16
	.cfi_register 65, 0
	.loc 2 398 0
	addi 4,4,500
.LVL158:
	.loc 2 397 0
	stw 31,12(1)
	mr 31,3
	.cfi_offset 31, -4
	stw 0,20(1)
	.loc 2 398 0
	.cfi_offset 65, 4
	bl _ZNK8idAngles6ToMat3Ev
.LVL159:
	.loc 2 399 0
	lwz 0,20(1)
	mr 3,31
	lwz 31,12(1)
.LVL160:
	mtlr 0
	addi 1,1,16
.LCFI29:
	.cfi_def_cfa_offset 0
	.cfi_restore 31
	blr
	.cfi_endproc
.LFE2825:
	.size	_ZNK12idPlayerView9ShakeAxisEv, .-_ZNK12idPlayerView9ShakeAxisEv
	.align 2
	.globl _ZNK12idPlayerView11AngleOffsetEv
	.type	_ZNK12idPlayerView11AngleOffsetEv, @function
_ZNK12idPlayerView11AngleOffsetEv:
.LFB2826:
	.loc 2 408 0
	.cfi_startproc
.LVL161:
.LBB1164:
.LBB1165:
	.loc 2 413 0
	lis 9,gameLocal+2426836@ha
.LBE1165:
.LBB1191:
.LBB1192:
	.loc 3 127 0
	li 11,0
.LBE1192:
.LBE1191:
.LBB1194:
	.loc 2 413 0
	lwz 0,gameLocal+2426836@l(9)
	lwz 9,392(4)
.LVL162:
.LBE1194:
.LBE1164:
	.loc 2 408 0
	stwu 1,-16(1)
.LCFI30:
	.cfi_def_cfa_offset 16
.LBB1199:
.LBB1195:
	.loc 2 413 0
	cmpw 7,0,9
.LBE1195:
.LBB1196:
.LBB1193:
	.loc 3 127 0
	stw 11,8(3)
	stw 11,4(3)
	stw 11,0(3)
.LBE1193:
.LBE1196:
.LBB1197:
	.loc 2 413 0
	bge- 7,.L77
.LVL163:
.LBB1166:
	.loc 2 414 0
	subf 0,0,9
	lis 9,.LC1@ha
	xoris 0,0,0x8000
	lfs 0,.LC1@l(9)
	stw 0,12(1)
	lis 0,0x4330
	stw 0,8(1)
.LBB1167:
.LBB1168:
	.loc 2 416 0
	lis 9,g_kickAmplitude+44@ha
.LBE1168:
.LBE1167:
.LBB1171:
.LBB1172:
	.loc 3 177 0
	lfs 11,396(4)
.LBE1172:
.LBE1171:
	.loc 2 414 0
	lfd 13,8(1)
.LBB1175:
.LBB1169:
	.loc 6 144 0
	lwz 9,g_kickAmplitude+44@l(9)
.LBE1169:
.LBE1175:
	.loc 2 414 0
	fsub 0,13,0
.LBB1176:
.LBB1173:
	.loc 3 177 0
	lfs 12,400(4)
	lfs 10,404(4)
.LBE1173:
.LBE1176:
.LBB1177:
.LBB1170:
	.loc 6 144 0
	lfs 13,40(9)
.LBE1170:
.LBE1177:
.LBB1178:
	.loc 2 419 0
	lis 9,.LC30@ha
.LBE1178:
	.loc 2 414 0
	frsp 0,0
.LVL164:
.LBB1179:
.LBB1174:
	.loc 3 177 0
	fmuls 11,0,11
	fmuls 12,0,12
	fmuls 10,0,10
.LBE1174:
.LBE1179:
.LBB1180:
.LBB1181:
	fmuls 11,0,11
	fmuls 12,0,12
	fmuls 0,0,10
.LVL165:
.LBE1181:
.LBE1180:
.LBB1182:
	.loc 2 419 0
	lfs 10,.LC30@l(9)
.LVL166:
.LBE1182:
.LBB1183:
.LBB1184:
	.loc 3 177 0
	fmuls 11,11,13
.LVL167:
	fmuls 12,12,13
.LVL168:
	fmuls 13,0,13
.LVL169:
.LBE1184:
.LBE1183:
.LBB1185:
	.loc 2 419 0
	fcmpu 7,11,10
.LBE1185:
.LBB1186:
.LBB1187:
	.loc 3 146 0
	stfs 11,0(3)
	.loc 3 147 0
	stfs 12,4(3)
	.loc 3 148 0
	stfs 13,8(3)
.LVL170:
.LBE1187:
.LBE1186:
.LBB1188:
	.loc 2 419 0
	bng- 7,.L90
.LVL171:
	.loc 2 420 0
	stfs 10,0(3)
.LVL172:
.L80:
	.loc 2 419 0
	lfs 0,.LC30@l(9)
	fcmpu 7,12,0
	bgt- 7,.L82
.L91:
.LVL173:
	.loc 2 421 0
	lis 11,.LC31@ha
	lfs 0,.LC31@l(11)
	fcmpu 7,12,0
	blt- 7,.L82
.LVL174:
.L83:
	.loc 2 419 0
	lfs 13,8(3)
.LVL175:
	lfs 0,.LC30@l(9)
	fcmpu 7,13,0
	bgt- 7,.L85
.LVL176:
	.loc 2 421 0
	lis 9,.LC31@ha
	lfs 0,.LC31@l(9)
	fcmpu 7,13,0
	bnl- 7,.L77
.LVL177:
.L85:
	.loc 2 420 0
	stfs 0,8(3)
.LVL178:
.L77:
.LBE1188:
.LBE1166:
.LBE1197:
.LBE1199:
	.loc 2 427 0
	addi 1,1,16
	.cfi_remember_state
.LCFI31:
	.cfi_def_cfa_offset 0
	blr
.LVL179:
.L90:
.LCFI32:
	.cfi_restore_state
.LBB1200:
.LBB1198:
.LBB1190:
.LBB1189:
	.loc 2 421 0
	lis 11,.LC31@ha
	lfs 0,.LC31@l(11)
.LVL180:
	fcmpu 7,11,0
	bnl- 7,.L80
.LVL181:
	.loc 2 422 0
	stfs 0,0(3)
.LVL182:
	.loc 2 419 0
	lfs 0,.LC30@l(9)
	fcmpu 7,12,0
	bng- 7,.L91
.LVL183:
.L82:
	.loc 2 420 0
	stfs 0,4(3)
	b .L83
.LBE1189:
.LBE1190:
.LBE1198:
.LBE1200:
	.cfi_endproc
.LFE2826:
	.size	_ZNK12idPlayerView11AngleOffsetEv, .-_ZNK12idPlayerView11AngleOffsetEv
	.align 2
	.globl _ZN12idPlayerView10SingleViewEP15idUserInterfacePK12renderView_s
	.type	_ZN12idPlayerView10SingleViewEP15idUserInterfacePK12renderView_s, @function
_ZN12idPlayerView10SingleViewEP15idUserInterfacePK12renderView_s:
.LFB2827:
	.loc 2 434 0
	.cfi_startproc
	.cfi_personality 0,__gxx_personality_v0
	.cfi_lsda 0,.LLSDA2827
.LVL184:
	stwu 1,-376(1)
.LCFI33:
	.cfi_def_cfa_offset 376
	mflr 0
	stw 28,344(1)
.LBB1248:
	.loc 2 437 0
	mr. 28,5
	.cfi_offset 28, -32
	.cfi_register 65, 0
.LBE1248:
	.loc 2 434 0
	stw 29,348(1)
	mr 29,4
	.cfi_offset 29, -28
	stw 31,356(1)
	mr 31,3
	.cfi_offset 31, -20
	stw 0,380(1)
	stfd 30,360(1)
	stfd 31,368(1)
	stw 19,308(1)
	stw 20,312(1)
	stw 21,316(1)
	stw 22,320(1)
	stw 23,324(1)
	stw 24,328(1)
	stw 25,332(1)
	stw 26,336(1)
	stw 27,340(1)
	stw 30,352(1)
.LBB1340:
	.loc 2 437 0
	beq- 0,.L92
	.cfi_offset 30, -24
	.cfi_offset 27, -36
	.cfi_offset 26, -40
	.cfi_offset 25, -44
	.cfi_offset 24, -48
	.cfi_offset 23, -52
	.cfi_offset 22, -56
	.cfi_offset 21, -60
	.cfi_offset 20, -64
	.cfi_offset 19, -68
	.cfi_offset 63, -8
	.cfi_offset 62, -16
	.cfi_offset 65, 4
	.loc 2 442 0
	lis 9,gameSoundWorld@ha
	lwz 11,512(3)
	lwz 23,gameSoundWorld@l(9)
	cmpwi 7,4,0
	lis 30,gameLocal@ha
	lwz 19,4(11)
	lwz 9,0(23)
	la 30,gameLocal@l(30)
	addis 30,30,0x25
	addi 21,28,28
	lwz 26,28(9)
	addi 20,28,40
	addi 19,19,1
	lwz 25,2004(30)
	beq- 7,.L94
	.loc 2 442 0 is_stmt 0 discriminator 1
	lwz 9,0(4)
	mr 3,4
.LVL185:
	lwz 0,48(9)
	mtctr 0
.LEHB0:
	bctrl
.LVL186:
.LBB1249:
.LBB1250:
	.loc 5 241 0 is_stmt 1 discriminator 1
	lis 4,.LC33@ha
	la 4,.LC33@l(4)
	bl _ZNK6idDict7FindKeyEPKc
.LVL187:
	.loc 5 242 0 discriminator 1
	cmpwi 0,3,0
	beq- 0,.L95
.LVL188:
.LBB1251:
	.loc 2 725 0
	lwz 9,4(3)
.LBE1251:
.LBE1250:
.LBE1249:
.LBB1254:
.LBB1255:
.LBB1256:
.LBB1257:
	.file 9 "d:/Data/Nintendo/DoomGX/src/game/../idlib/../idlib/Str.h"
	.loc 9 356 0
	li 0,0
	stw 0,8(1)
	addi 27,1,8
.LBE1257:
.LBE1256:
.LBE1255:
.LBE1254:
.LBB1274:
.LBB1253:
.LBB1252:
	.loc 2 725 0
	lwz 24,4(9)
.LVL189:
.LBE1252:
.LBE1253:
.LBE1274:
.LBB1275:
.LBB1270:
.LBB1263:
.LBB1258:
	.loc 9 357 0
	li 9,20
	stw 9,16(1)
	.loc 9 358 0
	addi 9,1,20
.LBE1258:
.LBE1263:
	.loc 9 412 0
	cmpwi 7,24,0
.LBB1264:
.LBB1259:
	.loc 9 358 0
	stw 9,12(1)
	.loc 9 359 0
	stb 0,20(1)
.LBE1259:
.LBE1264:
	.loc 9 412 0
	beq- 7,.L96
.LVL190:
.L121:
	.loc 2 434 0
	mr 3,24
.LVL191:
	addi 27,1,8
.LVL192:
	bl strlen
	addi 4,3,1
	mr 22,3
.LVL193:
.LBB1265:
.LBB1266:
	.loc 9 350 0
	cmpwi 7,4,20
	ble+ 7,.L97
	.loc 9 351 0
	mr 3,27
.LVL194:
	li 5,1
	bl _ZN5idStr10ReAllocateEib
.LEHE0:
.LVL195:
.L97:
.LBE1266:
.LBE1265:
	.loc 9 415 0
	lwz 3,12(1)
	mr 4,24
	bl strcpy
	.loc 9 416 0
	stw 22,8(1)
.LVL196:
.L96:
.LBE1270:
.LBE1275:
	.loc 2 442 0 discriminator 3
	mr 3,23
	mr 4,21
	mr 5,20
	mr 6,19
	mr 7,25
	mr 8,27
	mtctr 26
.LEHB1:
	bctrl
.LEHE1:
.LVL197:
.LBB1276:
.LBB1277:
.LBB1278:
	.loc 9 501 0
	mr 3,27
.LEHB2:
	bl _ZN5idStr8FreeDataEv
.LBE1278:
.LBE1277:
.LBE1276:
	.loc 2 445 0
	lwz 9,512(31)
	lbz 0,5148(9)
	cmpwi 7,0,0
	bne- 7,.L135
	.loc 2 451 0
	mr 4,28
	li 5,136
	addi 3,1,112
	bl memcpy
.LVL198:
.LBB1279:
.LBB1280:
	.loc 2 398 0
	addi 3,1,76
	addi 4,31,500
	bl _ZNK8idAngles6ToMat3Ev
.LVL199:
	.loc 2 434 0
	addi 0,1,188
.LBE1280:
.LBE1279:
.LBB1284:
.LBB1271:
.LBB1267:
.LBB1260:
	.loc 2 452 0
	addi 9,1,152
	.file 10 "d:/Data/Nintendo/DoomGX/src/game/../idlib/../idlib/math/Matrix.h"
	.loc 10 465 0
	addi 11,1,40
.LVL200:
.L100:
.LBE1260:
.LBE1267:
.LBE1271:
.LBE1284:
.LBB1285:
.LBB1281:
	.loc 2 434 0
	lfs 0,4(9)
.LBE1281:
.LBE1285:
.LBB1286:
.LBB1287:
	.loc 10 471 0
	lfs 13,96(1)
	lfs 11,88(1)
	lfs 12,92(1)
	fmuls 11,0,11
	lfs 8,76(1)
	fmuls 12,0,12
	lfs 9,80(1)
	fmuls 0,0,13
	lfs 10,84(1)
.LBE1287:
.LBE1286:
.LBB1290:
.LBB1282:
	.loc 2 434 0
	lfs 13,0(9)
.LBE1282:
.LBE1290:
.LBB1291:
.LBB1288:
	.loc 10 471 0
	fmadds 11,8,13,11
	lfs 8,100(1)
	fmadds 12,9,13,12
	lfs 9,104(1)
	fmadds 13,10,13,0
.LBE1288:
.LBE1291:
.LBB1292:
.LBB1283:
	.loc 2 434 0
	lfs 0,8(9)
.LBE1283:
.LBE1292:
.LBB1293:
.LBB1289:
	.loc 10 471 0
	lfs 10,108(1)
	.loc 10 474 0
	addi 9,9,12
.LVL201:
	.loc 10 467 0
	cmpw 7,9,0
	.loc 10 471 0
	fmadds 11,8,0,11
	fmadds 12,9,0,12
	fmadds 0,10,0,13
	stfs 11,0(11)
.LVL202:
	stfs 12,4(11)
.LVL203:
	stfs 0,8(11)
.LVL204:
	addi 11,11,12
.LVL205:
	.loc 10 467 0
	bne+ 7,.L100
	addi 9,1,152
.LVL206:
	li 10,0
.LVL207:
.L101:
.LBE1289:
.LBE1293:
.LBB1294:
.LBB1295:
.LBB1296:
.LBB1297:
	.loc 4 424 0
	addi 11,1,40
.LBE1297:
.LBE1296:
	.loc 10 333 0
	cmpwi 7,10,24
.LBB1300:
.LBB1298:
	.loc 4 424 0
	lwzux 7,11,10
.LBE1298:
.LBE1300:
	.loc 10 333 0
	addi 10,10,12
.LBB1301:
.LBB1299:
	.loc 4 425 0
	lwz 8,4(11)
	.loc 4 426 0
	lwz 0,8(11)
	.loc 4 424 0
	stw 7,0(9)
	.loc 4 425 0
	stw 8,4(9)
	.loc 4 426 0
	stw 0,8(9)
	addi 9,9,12
.LBE1299:
.LBE1301:
	.loc 10 333 0
	bne+ 7,.L101
.LBE1295:
.LBE1294:
	.loc 2 454 0
	lis 9,gameRenderWorld@ha
	addi 4,1,112
	lwz 3,gameRenderWorld@l(9)
	lwz 9,0(3)
	lwz 0,76(9)
	mtctr 0
	bctrl
	.loc 2 456 0
	lwz 9,512(31)
	lbz 0,5267(9)
	cmpwi 7,0,0
	bne- 7,.L92
.LBB1302:
.LBB1303:
.LBB1304:
	.loc 2 461 0
	lis 9,pm_thirdPerson+44@ha
	.loc 6 142 0
	lwz 9,pm_thirdPerson+44@l(9)
.LBE1304:
.LBE1303:
	.loc 2 461 0
	lwz 0,36(9)
	cmpwi 7,0,0
	bne- 7,.L102
.LBB1305:
.LBB1306:
	.loc 2 461 0 is_stmt 0 discriminator 1
	lis 9,g_skipViewEffects+44@ha
	.loc 6 142 0 is_stmt 1 discriminator 1
	lwz 9,g_skipViewEffects+44@l(9)
.LBE1306:
.LBE1305:
	.loc 2 461 0 discriminator 1
	lwz 0,36(9)
	cmpwi 7,0,0
	bne- 7,.L102
.LBB1307:
.LBB1308:
.LBB1309:
	.loc 2 474 0
	lis 9,.LC25@ha
.LBE1309:
.LBE1308:
.LBE1307:
	.loc 2 461 0
	li 28,0
.LVL208:
	lis 25,.LC1@ha
	lis 26,.LC23@ha
.LBB1319:
.LBB1312:
.LBB1310:
	.loc 2 470 0
	lis 27,0x4330
.LVL209:
	.loc 2 475 0
	lis 24,renderSystem@ha
	.loc 2 474 0
	lfs 31,.LC25@l(9)
	b .L105
.LVL210:
.L137:
	fcmpu 7,4,31
	bne- 7,.L104
.LVL211:
.L103:
.LBE1310:
	.loc 2 462 0
	cmpwi 7,28,7
	addi 28,28,1
.LVL212:
	beq- 7,.L136
.LVL213:
.L105:
.LBB1311:
	.loc 2 463 0
	mulli 22,28,48
	.loc 2 464 0
	lwz 9,2004(30)
	.loc 2 463 0
	add 23,31,22
.LVL214:
	.loc 2 464 0
	lwz 0,36(23)
	cmpw 7,0,9
	ble- 7,.L103
	.loc 2 468 0
	lfs 13,8(23)
	lfs 0,44(23)
	.loc 2 470 0
	lwz 11,40(23)
	.loc 2 468 0
	fadds 0,13,0
	.loc 2 470 0
	subf 11,11,0
	xoris 11,11,0x8000
	.loc 2 468 0
	stfs 0,8(23)
	.loc 2 470 0
	stw 27,248(1)
	lfs 0,.LC1@l(25)
	lwz 9,2004(30)
	stw 11,260(1)
	subf 0,9,0
	stw 27,256(1)
	xoris 0,0,0x8000
	stw 0,252(1)
	lfd 13,256(1)
	lfd 4,248(1)
	fsub 4,4,0
	fsub 0,13,0
	.loc 2 471 0
	lfs 13,.LC23@l(26)
	.loc 2 470 0
	frsp 4,4
	frsp 0,0
	fdivs 4,4,0
.LVL215:
	.loc 2 471 0
	fcmpu 7,4,13
	bng- 7,.L137
	.loc 2 472 0
	fmr 4,13
.LVL216:
.L104:
	.loc 2 475 0
	lwz 3,renderSystem@l(24)
	lfs 1,.LC23@l(26)
	lwz 9,0(3)
	fmr 2,1
	lwz 0,64(9)
	fmr 3,1
	mtctr 0
	bctrl
	.loc 2 476 0
	lwz 3,renderSystem@l(24)
	lfs 1,4(23)
	lwz 9,0(3)
	lfs 2,8(23)
	lwz 0,72(9)
	lfs 3,12(23)
	lfs 4,16(23)
	mtctr 0
	lfs 5,20(23)
	lfs 6,24(23)
	lfs 7,28(23)
	lfs 8,32(23)
	lwzx 4,31,22
	bctrl
.LVL217:
.LBE1311:
	.loc 2 462 0
	cmpwi 7,28,7
	addi 28,28,1
.LVL218:
	bne+ 7,.L105
.L136:
.LBE1312:
	.loc 2 479 0
	lwz 3,512(31)
	mr 4,29
	bl _ZN8idPlayer7DrawHUDEP15idUserInterface
	.loc 2 482 0
	lwz 3,512(31)
	lwz 9,2004(30)
	lwz 0,5212(3)
	lfs 0,.LC1@l(25)
	subf 0,0,9
	.loc 2 484 0
	lis 9,.LC25@ha
	.loc 2 482 0
	xoris 0,0,0x8000
	.loc 2 484 0
	lfs 31,.LC25@l(9)
	.loc 2 482 0
	stw 0,268(1)
	lis 0,0x4330
	stw 0,264(1)
	lis 9,.LC34@ha
	lfd 4,264(1)
	fsub 4,4,0
	lfs 0,.LC34@l(9)
	frsp 4,4
	fdivs 4,4,0
.LVL219:
	.loc 2 484 0
	fcmpu 7,4,31
	bng- 7,.L106
	.loc 2 484 0 is_stmt 0 discriminator 1
	lfs 30,.LC23@l(26)
	fcmpu 7,4,30
	blt- 7,.L138
.LVL220:
.L106:
.LBB1313:
.LBB1314:
	.loc 2 492 0 is_stmt 1
	lis 9,g_testHealthVision+44@ha
	.loc 6 144 0
	lwz 9,g_testHealthVision+44@l(9)
	lfs 0,40(9)
.LBE1314:
.LBE1313:
	.loc 2 492 0
	lis 9,.LC25@ha
	lfs 13,.LC25@l(9)
	fcmpu 7,0,13
	bne- 7,.L109
	.loc 2 495 0
	lwz 0,188(3)
	lfs 0,.LC1@l(25)
	xoris 0,0,0x8000
	stw 0,276(1)
	lis 0,0x4330
	stw 0,272(1)
	lfd 13,272(1)
	fsub 0,13,0
	frsp 0,0
.LVL221:
.L109:
	.loc 2 497 0
	lis 9,.LC37@ha
	.loc 2 498 0
	lis 10,.LC25@ha
	.loc 2 497 0
	lfs 4,.LC37@l(9)
	.loc 2 498 0
	lfs 13,.LC25@l(10)
	.loc 2 497 0
	fdivs 4,0,4
.LVL222:
	.loc 2 498 0
	fcmpu 7,4,13
	blt- 7,.L123
	.loc 2 501 0
	lfs 0,.LC23@l(26)
.LVL223:
	fcmpu 7,4,0
	bng- 7,.L139
.LVL224:
.L111:
.LBB1315:
	.loc 2 510 0
	li 4,0
	bl _ZNK8idPlayer13PowerUpActiveEi
	cmpwi 7,3,0
	beq- 7,.L116
.LBB1316:
	.loc 2 511 0
	lwz 9,512(31)
	lwz 0,2004(30)
	lwz 9,4916(9)
.LVL225:
	.loc 2 512 0
	subf. 0,0,9
	ble- 0,.L116
	.loc 2 514 0
	cmpwi 7,0,9999
	lfs 4,.LC23@l(26)
	ble- 7,.L140
.L117:
.LVL226:
	.loc 2 515 0 discriminator 3
	lis 30,renderSystem@ha
.LVL227:
	lfs 31,.LC23@l(26)
	lwz 3,renderSystem@l(30)
	fmr 1,31
	lwz 9,0(3)
	fmr 2,31
	fmr 3,31
	lwz 0,64(9)
	mtctr 0
	bctrl
.LVL228:
	.loc 2 516 0 discriminator 3
	lwz 3,renderSystem@l(30)
	lis 10,.LC25@ha
	fmr 7,31
	lwz 9,0(3)
	fmr 8,31
	lfs 1,.LC25@l(10)
	lwz 0,72(9)
	lis 9,.LC35@ha
	lfs 3,.LC35@l(9)
	lis 9,.LC36@ha
	fmr 2,1
	lfs 4,.LC36@l(9)
	fmr 5,1
	lwz 4,420(31)
	fmr 6,1
	mtctr 0
	bctrl
.L116:
.LBE1316:
.LBE1315:
	.loc 2 520 0
	lbz 0,408(31)
	cmpwi 7,0,0
	bne- 7,.L141
.LVL229:
.L102:
.LBE1319:
.LBE1302:
.LBB1323:
.LBB1324:
.LBB1325:
	.loc 2 528 0
	lis 31,g_testPostProcess@ha
.LVL230:
	la 31,g_testPostProcess@l(31)
	.loc 6 141 0
	lwz 9,44(31)
	lwz 4,8(9)
.LBE1325:
.LBE1324:
	.loc 2 528 0
	lbz 0,0(4)
	cmpwi 7,0,0
	bne- 7,.L142
.LVL231:
.L92:
.LBE1323:
.LBE1340:
	.loc 2 538 0
	lwz 0,380(1)
	lwz 19,308(1)
	mtlr 0
	lwz 20,312(1)
	lwz 21,316(1)
	lwz 22,320(1)
	lwz 23,324(1)
	lwz 24,328(1)
	lwz 25,332(1)
	lwz 26,336(1)
	lwz 27,340(1)
	lwz 28,344(1)
	lwz 29,348(1)
	lwz 30,352(1)
	lwz 31,356(1)
	lfd 30,360(1)
	lfd 31,368(1)
	addi 1,1,376
	.cfi_remember_state
.LCFI34:
	.cfi_def_cfa_offset 0
	.cfi_restore 63
	.cfi_restore 62
	.cfi_restore 31
	.cfi_restore 30
	.cfi_restore 29
	.cfi_restore 28
	.cfi_restore 27
	.cfi_restore 26
	.cfi_restore 25
	.cfi_restore 24
	.cfi_restore 23
	.cfi_restore 22
	.cfi_restore 21
	.cfi_restore 20
	.cfi_restore 19
	blr
.LVL232:
.L135:
.LCFI35:
	.cfi_restore_state
.LBB1341:
	.loc 2 446 0
	lwz 3,5144(9)
	lwz 4,2004(30)
	lwz 9,0(3)
	lwz 0,40(9)
	mtctr 0
	bctrl
	.loc 2 447 0
	b .L92
.LVL233:
.L94:
.LBB1330:
.LBB1272:
.LBB1268:
.LBB1261:
	.loc 9 357 0
	li 0,20
	.loc 2 442 0
	lis 24,.LC32@ha
	.loc 9 357 0
	stw 0,16(1)
	.loc 9 358 0
	addi 0,1,20
	.loc 9 356 0
	stw 4,8(1)
	.loc 9 359 0
	li 22,9
	.loc 9 358 0
	stw 0,12(1)
	.loc 2 442 0
	la 24,.LC32@l(24)
	.loc 9 359 0
	stb 4,20(1)
.LVL234:
	addi 27,1,8
.LVL235:
	b .L97
.LVL236:
.L142:
.LBE1261:
.LBE1268:
.LBE1272:
.LBE1330:
.LBB1331:
.LBB1326:
	.loc 2 529 0
	lis 9,declManager@ha
	li 5,0
	lwz 3,declManager@l(9)
	li 6,0
	lwz 9,0(3)
	lwz 0,104(9)
	mtctr 0
	bctrl
.LVL237:
	.loc 2 530 0
	mr. 30,3
	beq- 0,.L143
	.loc 2 534 0
	lis 31,renderSystem@ha
	lis 9,.LC23@ha
	lwz 3,renderSystem@l(31)
.LVL238:
	lfs 31,.LC23@l(9)
	lwz 9,0(3)
	fmr 1,31
	lwz 0,64(9)
	fmr 2,31
	fmr 3,31
	fmr 4,31
	mtctr 0
	bctrl
	.loc 2 535 0
	lwz 3,renderSystem@l(31)
	lis 10,.LC25@ha
	fmr 7,31
	lwz 9,0(3)
	fmr 8,31
	lfs 1,.LC25@l(10)
	mr 4,30
	lwz 0,72(9)
	lis 9,.LC35@ha
	lfs 3,.LC35@l(9)
	lis 9,.LC36@ha
	fmr 2,1
	lfs 4,.LC36@l(9)
	fmr 5,1
	mtctr 0
	fmr 6,1
	bctrl
	b .L92
.LVL239:
.L123:
.LBE1326:
.LBE1331:
.LBB1332:
.LBB1320:
	.loc 2 499 0
	fmr 4,13
.LVL240:
.L110:
	.loc 2 506 0
	lis 29,renderSystem@ha
	lwz 10,188(3)
	lwz 9,renderSystem@l(29)
	lis 11,0x4330
	xoris 10,10,0x8000
	lfs 13,.LC1@l(25)
	lwz 8,0(9)
	lwz 0,64(8)
	stw 10,284(1)
	lis 10,.LC25@ha
	stw 11,280(1)
	lfs 0,.LC25@l(10)
	lfd 12,280(1)
	fsub 12,12,13
	frsp 12,12
	fcmpu 7,12,0
	cror 30,28,30
	beq- 7,.L144
	.loc 2 506 0 is_stmt 0 discriminator 2
	lfs 1,440(31)
.L115:
	.loc 2 506 0 discriminator 6
	lfs 31,.LC23@l(26)
	mr 3,9
	mtctr 0
	fmr 2,31
	fmr 3,31
	bctrl
	.loc 2 507 0 is_stmt 1 discriminator 6
	lwz 3,renderSystem@l(29)
	lis 10,.LC25@ha
	fmr 7,31
	lwz 9,0(3)
	fmr 8,31
	lfs 1,.LC25@l(10)
	lwz 0,72(9)
	lis 9,.LC35@ha
	lfs 3,.LC35@l(9)
	lis 9,.LC36@ha
	fmr 2,1
	lfs 4,.LC36@l(9)
	fmr 5,1
	lwz 4,412(31)
	fmr 6,1
	mtctr 0
	bctrl
	lwz 3,512(31)
	b .L111
.LVL241:
.L95:
.LBE1320:
.LBE1332:
.LBB1333:
.LBB1273:
.LBB1269:
.LBB1262:
	.loc 9 357 0
	li 0,20
	.loc 5 245 0
	lis 24,.LC12@ha
	.loc 9 357 0
	stw 0,16(1)
	.loc 9 358 0
	addi 0,1,20
	.loc 9 356 0
	stw 3,8(1)
	.loc 5 245 0
	la 24,.LC12@l(24)
	.loc 9 358 0
	stw 0,12(1)
	.loc 9 359 0
	stb 3,20(1)
	b .L121
.LVL242:
.L141:
.LBE1262:
.LBE1269:
.LBE1273:
.LBE1333:
.LBB1334:
.LBB1321:
	.loc 2 521 0
	lis 30,renderSystem@ha
	lfs 31,.LC23@l(26)
	lwz 3,renderSystem@l(30)
	fmr 1,31
	lwz 9,0(3)
	fmr 2,31
	fmr 3,31
	lwz 0,64(9)
	fmr 4,31
	mtctr 0
	bctrl
	.loc 2 522 0
	lwz 3,renderSystem@l(30)
	lis 10,.LC25@ha
	fmr 7,31
	lwz 9,0(3)
	fmr 8,31
	lfs 1,.LC25@l(10)
	lwz 0,72(9)
	lis 9,.LC35@ha
	lfs 3,.LC35@l(9)
	lis 9,.LC36@ha
	fmr 2,1
	lfs 4,.LC36@l(9)
	fmr 5,1
	lwz 4,432(31)
	fmr 6,1
	mtctr 0
	bctrl
	b .L102
.L144:
	.loc 2 506 0 discriminator 1
	lwz 10,2004(30)
	fmr 4,0
	stw 11,288(1)
	xoris 11,10,0x8000
	stw 11,292(1)
	lis 11,_ZN6idMath8M_MS2SECE@ha
	lfs 0,_ZN6idMath8M_MS2SECE@l(11)
	lfd 12,288(1)
	fsub 13,12,13
	frsp 1,13
	fmuls 1,1,0
	b .L115
.LVL243:
.L140:
.LBB1318:
.LBB1317:
	.loc 2 514 0 discriminator 1
	xoris 0,0,0x8000
.LVL244:
	lfs 0,.LC1@l(25)
	stw 0,300(1)
	lis 0,0x4330
.LVL245:
	stw 0,296(1)
	lis 9,.LC38@ha
	lfd 4,296(1)
	fsub 4,4,0
	lfs 0,.LC38@l(9)
	frsp 4,4
	fdivs 4,4,0
	b .L117
.LVL246:
.L138:
.LBE1317:
.LBE1318:
	.loc 2 485 0
	lis 29,renderSystem@ha
.LVL247:
	fmr 1,30
	lwz 3,renderSystem@l(29)
	fmr 2,30
	fmr 3,30
	lwz 9,0(3)
	fsubs 4,30,4
.LVL248:
	lwz 0,64(9)
	mtctr 0
	bctrl
	.loc 2 486 0
	lwz 3,renderSystem@l(29)
	fmr 1,31
	lwz 4,416(31)
	lwz 9,0(3)
	fmr 7,30
	fmr 2,31
	lwz 0,72(9)
	lis 9,.LC35@ha
	lfs 3,.LC35@l(9)
	lis 9,.LC36@ha
	lfs 4,.LC36@l(9)
	fmr 5,31
	fmr 6,31
	mtctr 0
	fmr 8,30
	bctrl
	lwz 3,512(31)
	b .L106
.LVL249:
.L143:
.LBE1321:
.LBE1334:
.LBB1335:
.LBB1329:
	.loc 2 531 0
	lis 9,common@ha
	lis 4,.LC39@ha
	lwz 3,common@l(9)
.LVL250:
	la 4,.LC39@l(4)
	lwz 9,0(3)
	lwz 0,68(9)
	mtctr 0
	crxor 6,6,6
	bctrl
	.loc 2 532 0
	lwz 3,44(31)
.LVL251:
.LBB1327:
.LBB1328:
	.loc 6 146 0
	lis 4,.LC12@ha
	lwz 9,0(3)
	la 4,.LC12@l(4)
	lwz 0,8(9)
	mtctr 0
	bctrl
.LEHE2:
	b .L92
.LVL252:
.L139:
.LBE1328:
.LBE1327:
.LBE1329:
.LBE1335:
.LBB1336:
.LBB1322:
	.loc 2 505 0
	blt+ 7,.L110
	b .L111
.LVL253:
.L125:
	mr 31,3
.LVL254:
.LBE1322:
.LBE1336:
.LBB1337:
.LBB1338:
.LBB1339:
	.loc 9 501 0
	mr 3,27
	bl _ZN5idStr8FreeDataEv
	mr 3,31
.LEHB3:
	bl _Unwind_Resume
.LEHE3:
.LBE1339:
.LBE1338:
.LBE1337:
.LBE1341:
	.cfi_endproc
.LFE2827:
	.globl __gxx_personality_v0
	.section	.gcc_except_table,"a",@progbits
.LLSDA2827:
	.byte	0xff
	.byte	0xff
	.byte	0x1
	.uleb128 .LLSDACSE2827-.LLSDACSB2827
.LLSDACSB2827:
	.uleb128 .LEHB0-.LFB2827
	.uleb128 .LEHE0-.LEHB0
	.uleb128 0
	.uleb128 0
	.uleb128 .LEHB1-.LFB2827
	.uleb128 .LEHE1-.LEHB1
	.uleb128 .L125-.LFB2827
	.uleb128 0
	.uleb128 .LEHB2-.LFB2827
	.uleb128 .LEHE2-.LEHB2
	.uleb128 0
	.uleb128 0
	.uleb128 .LEHB3-.LFB2827
	.uleb128 .LEHE3-.LEHB3
	.uleb128 0
	.uleb128 0
.LLSDACSE2827:
	.section	".text"
	.size	_ZN12idPlayerView10SingleViewEP15idUserInterfacePK12renderView_s, .-_ZN12idPlayerView10SingleViewEP15idUserInterfacePK12renderView_s
	.align 2
	.globl _ZN12idPlayerView12DoubleVisionEP15idUserInterfacePK12renderView_si
	.type	_ZN12idPlayerView12DoubleVisionEP15idUserInterfacePK12renderView_si, @function
_ZN12idPlayerView12DoubleVisionEP15idUserInterfacePK12renderView_si:
.LFB2828:
	.loc 2 545 0
	.cfi_startproc
.LVL255:
	mflr 0
	stwu 1,-80(1)
.LCFI36:
	.cfi_def_cfa_offset 80
	.cfi_register 65, 0
.LBB1342:
.LBB1343:
.LBB1344:
	.loc 2 547 0
	lis 9,g_doubleVision+44@ha
.LBE1344:
.LBE1343:
.LBE1342:
	.loc 2 545 0
	stw 27,20(1)
	mr 27,4
	.cfi_offset 27, -60
	stw 28,24(1)
	mr 28,5
	.cfi_offset 28, -56
	stw 30,32(1)
	mr 30,3
	.cfi_offset 30, -48
	stw 0,84(1)
	stfd 27,40(1)
	stfd 28,48(1)
	stfd 29,56(1)
	stfd 30,64(1)
	stfd 31,72(1)
	stw 29,28(1)
	stw 31,36(1)
.LBB1353:
.LBB1346:
.LBB1345:
	.loc 6 142 0
	lwz 9,g_doubleVision+44@l(9)
.LBE1345:
.LBE1346:
	.loc 2 547 0
	lwz 0,36(9)
	.cfi_offset 31, -44
	.cfi_offset 29, -52
	.cfi_offset 63, -8
	.cfi_offset 62, -16
	.cfi_offset 61, -24
	.cfi_offset 60, -32
	.cfi_offset 59, -40
	.cfi_offset 65, 4
	cmpwi 7,0,0
	beq- 7,.L151
	.loc 2 552 0
	xoris 6,6,0x8000
.LVL256:
	lis 0,0x4330
	stw 6,12(1)
	lis 9,.LC1@ha
	stw 0,8(1)
	.loc 2 553 0
	lis 29,.LC14@ha
	.loc 2 552 0
	lfs 0,.LC1@l(9)
.LBB1347:
.LBB1348:
	.loc 6 144 0
	lis 9,g_dvAmplitude+44@ha
.LBE1348:
.LBE1347:
	.loc 2 552 0
	lfd 1,8(1)
.LBB1350:
.LBB1349:
	.loc 6 144 0
	lwz 9,g_dvAmplitude+44@l(9)
.LBE1349:
.LBE1350:
	.loc 2 552 0
	fsub 1,1,0
	.loc 2 553 0
	lfs 0,.LC14@l(29)
	.loc 2 552 0
	lfs 29,40(9)
	frsp 1,1
	fmuls 29,1,29
.LVL257:
	.loc 2 553 0
	fcmpu 7,29,0
	bng- 7,.L147
	.loc 2 554 0
	fmr 29,0
.LVL258:
.L147:
	.loc 2 556 0
	bl sqrtf
.LVL259:
.LBB1351:
.LBB1352:
	lis 9,g_dvFrequency+44@ha
	.loc 6 144 0
	lwz 9,g_dvFrequency+44@l(9)
.LBE1352:
.LBE1351:
	.loc 2 560 0
	lis 31,renderSystem@ha
	.loc 2 556 0
	lfs 0,40(9)
	fmuls 1,1,0
	bl sin
	.loc 2 560 0
	lwz 3,renderSystem@l(31)
	li 6,1
	li 7,0
	lwz 9,0(3)
	li 4,512
	li 5,256
	.loc 2 556 0
	fmul 29,29,1
.LVL260:
	.loc 2 560 0
	lwz 0,128(9)
	mtctr 0
	.loc 2 556 0
	frsp 29,29
.LVL261:
	.loc 2 560 0
	bctrl
	.loc 2 561 0
	mr 5,28
	mr 3,30
	mr 4,27
	bl _ZN12idPlayerView10SingleViewEP15idUserInterfacePK12renderView_s
	.loc 2 562 0
	lwz 3,renderSystem@l(31)
	lis 4,.LC3@ha
	.loc 2 557 0
	fabs 29,29
.LVL262:
	.loc 2 562 0
	lwz 9,0(3)
	la 4,.LC3@l(4)
	lwz 0,132(9)
	mtctr 0
	bctrl
	.loc 2 563 0
	lwz 3,renderSystem@l(31)
	lwz 9,0(3)
	lwz 0,140(9)
	mtctr 0
	bctrl
.LVL263:
	.loc 2 567 0
	lwz 11,512(30)
	lis 9,gameLocal+2426836@ha
	lwz 9,gameLocal+2426836@l(9)
	lwz 0,4916(11)
	cmpw 7,9,0
	blt- 7,.L150
	.loc 4 868 0
	lis 9,.LC23@ha
	lfs 30,.LC23@l(9)
.L148:
.LVL264:
	.loc 2 572 0
	lwz 3,renderSystem@l(31)
	fmr 2,30
	lfs 31,.LC23@l(9)
	fmr 3,30
	lwz 9,0(3)
	fmr 1,31
	lwz 0,64(9)
	fmr 4,31
	mtctr 0
	bctrl
	.loc 2 573 0
	lwz 3,renderSystem@l(31)
	lis 9,.LC35@ha
	lis 11,.LC25@ha
	lfs 27,.LC35@l(9)
	lis 9,.LC36@ha
	lfs 28,.LC36@l(9)
	fmr 5,29
	lwz 9,0(3)
	fmr 6,31
	lfs 1,.LC25@l(11)
	fmr 7,31
	lwz 0,72(9)
	fmr 3,27
	fmr 8,1
	lwz 4,388(30)
	fmr 2,1
	mtctr 0
	fmr 4,28
	bctrl
	.loc 2 574 0
	lwz 3,renderSystem@l(31)
	fmr 2,30
	lfs 4,.LC14@l(29)
	lwz 9,0(3)
	fmr 3,30
	fmr 1,31
	lwz 0,64(9)
	mtctr 0
	bctrl
	.loc 2 575 0
	lwz 3,renderSystem@l(31)
	lis 11,.LC25@ha
	fsubs 7,31,29
	lwz 9,0(3)
	fmr 6,31
	lfs 1,.LC25@l(11)
	fmr 3,27
	lwz 0,72(9)
	fmr 4,28
	lwz 4,388(30)
	fmr 2,1
	mtctr 0
	fmr 5,1
	fmr 8,1
	bctrl
.LBE1353:
	.loc 2 576 0
	lwz 0,84(1)
	lwz 27,20(1)
.LVL265:
	mtlr 0
	lwz 28,24(1)
.LVL266:
	lwz 29,28(1)
	lwz 30,32(1)
.LVL267:
	lwz 31,36(1)
	lfd 27,40(1)
	lfd 28,48(1)
	lfd 29,56(1)
.LVL268:
	lfd 30,64(1)
.LVL269:
	lfd 31,72(1)
	addi 1,1,80
	.cfi_remember_state
.LCFI37:
	.cfi_def_cfa_offset 0
	.cfi_restore 63
	.cfi_restore 62
	.cfi_restore 61
	.cfi_restore 60
	.cfi_restore 59
	.cfi_restore 31
	.cfi_restore 30
	.cfi_restore 29
	.cfi_restore 28
	.cfi_restore 27
	blr
.LVL270:
.L150:
.LCFI38:
	.cfi_restore_state
.LBB1354:
	.loc 2 568 0
	lis 9,.LC25@ha
	lfs 30,.LC25@l(9)
	lis 9,.LC23@ha
	b .L148
.LVL271:
.L151:
.LBE1354:
	.loc 2 576 0
	lwz 0,84(1)
	lwz 27,20(1)
.LVL272:
	lwz 28,24(1)
.LVL273:
	mtlr 0
	lwz 29,28(1)
	lwz 30,32(1)
.LVL274:
	lwz 31,36(1)
	lfd 27,40(1)
	lfd 28,48(1)
	lfd 29,56(1)
	lfd 30,64(1)
	lfd 31,72(1)
	addi 1,1,80
.LCFI39:
	.cfi_def_cfa_offset 0
	.cfi_restore 63
	.cfi_restore 62
	.cfi_restore 61
	.cfi_restore 60
	.cfi_restore 59
	.cfi_restore 31
	.cfi_restore 30
	.cfi_restore 29
	.cfi_restore 28
	.cfi_restore 27
.LBB1355:
	.loc 2 548 0
	b _ZN12idPlayerView10SingleViewEP15idUserInterfacePK12renderView_s
.LVL275:
.LVL276:
.LVL277:
.LVL278:
.LBE1355:
	.cfi_endproc
.LFE2828:
	.size	_ZN12idPlayerView12DoubleVisionEP15idUserInterfacePK12renderView_si, .-_ZN12idPlayerView12DoubleVisionEP15idUserInterfacePK12renderView_si
	.align 2
	.globl _ZN12idPlayerView13BerserkVisionEP15idUserInterfacePK12renderView_s
	.type	_ZN12idPlayerView13BerserkVisionEP15idUserInterfacePK12renderView_s, @function
_ZN12idPlayerView13BerserkVisionEP15idUserInterfacePK12renderView_s:
.LFB2829:
	.loc 2 583 0
	.cfi_startproc
.LVL279:
	stwu 1,-32(1)
.LCFI40:
	.cfi_def_cfa_offset 32
	mflr 0
	.loc 2 584 0
	li 6,1
	li 7,0
	.loc 2 583 0
	stw 31,20(1)
	.loc 2 584 0
	lis 31,renderSystem@ha
	.cfi_offset 31, -12
	.cfi_register 65, 0
	lwz 9,renderSystem@l(31)
	.loc 2 583 0
	stfd 31,24(1)
	stw 28,8(1)
	mr 28,4
	.cfi_offset 28, -24
	.cfi_offset 63, -8
	stw 29,12(1)
	.loc 2 584 0
	li 4,512
.LVL280:
	.loc 2 583 0
	stw 30,16(1)
	mr 29,5
	.cfi_offset 30, -16
	.cfi_offset 29, -20
	stw 0,36(1)
	.loc 2 583 0
	mr 30,3
	.loc 2 584 0
	li 5,256
.LVL281:
	mr 3,9
.LVL282:
	lwz 11,0(9)
	lwz 0,128(11)
	.cfi_offset 65, 4
	mtctr 0
	bctrl
	.loc 2 585 0
	mr 5,29
	mr 3,30
	mr 4,28
	bl _ZN12idPlayerView10SingleViewEP15idUserInterfacePK12renderView_s
	.loc 2 586 0
	lwz 3,renderSystem@l(31)
	lis 4,.LC3@ha
	lwz 9,0(3)
	la 4,.LC3@l(4)
	lwz 0,132(9)
	mtctr 0
	bctrl
	.loc 2 587 0
	lwz 3,renderSystem@l(31)
	lwz 9,0(3)
	lwz 0,140(9)
	mtctr 0
	bctrl
	.loc 2 588 0
	lwz 3,renderSystem@l(31)
	lis 9,.LC23@ha
	lfs 31,.LC23@l(9)
	lwz 9,0(3)
	fmr 1,31
	lwz 0,64(9)
	fmr 2,31
	fmr 3,31
	fmr 4,31
	mtctr 0
	bctrl
	.loc 2 589 0
	lwz 3,renderSystem@l(31)
	lis 9,.LC25@ha
	fmr 6,31
	lfs 1,.LC25@l(9)
	fmr 7,31
	lwz 9,0(3)
	lwz 4,388(30)
	fmr 2,1
	lwz 0,72(9)
	lis 9,.LC35@ha
	lfs 3,.LC35@l(9)
	lis 9,.LC36@ha
	mtctr 0
	lfs 4,.LC36@l(9)
	fmr 5,1
	fmr 8,1
	bctrl
	.loc 2 590 0
	lwz 0,36(1)
	lwz 28,8(1)
.LVL283:
	mtlr 0
	lwz 29,12(1)
.LVL284:
	lwz 30,16(1)
.LVL285:
	lwz 31,20(1)
	lfd 31,24(1)
	addi 1,1,32
.LCFI41:
	.cfi_def_cfa_offset 0
	.cfi_restore 63
	.cfi_restore 31
	.cfi_restore 30
	.cfi_restore 29
	.cfi_restore 28
	blr
	.cfi_endproc
.LFE2829:
	.size	_ZN12idPlayerView13BerserkVisionEP15idUserInterfacePK12renderView_s, .-_ZN12idPlayerView13BerserkVisionEP15idUserInterfacePK12renderView_s
	.align 2
	.globl _ZN12idPlayerView4FadeE6idVec4i
	.type	_ZN12idPlayerView4FadeE6idVec4i, @function
_ZN12idPlayerView4FadeE6idVec4i:
.LFB2831:
	.loc 2 613 0
	.cfi_startproc
.LVL286:
	.loc 2 615 0
	lwz 0,496(3)
	.loc 2 613 0
	stwu 1,-16(1)
.LCFI42:
	.cfi_def_cfa_offset 16
	.loc 2 615 0
	cmpwi 7,0,0
	bne- 7,.L154
.LVL287:
	.loc 2 616 0
	lis 9,.LC23@ha
	lfs 0,12(4)
	lfs 13,.LC23@l(9)
	.loc 2 622 0
	cmpwi 7,5,0
.LBB1356:
.LBB1357:
	.loc 4 874 0
	li 0,0
.LBE1357:
.LBE1356:
	.loc 2 620 0
	lwz 10,0(4)
	.loc 2 616 0
	fsubs 0,13,0
.LVL288:
.LBB1360:
.LBB1358:
	.loc 4 874 0
	stw 0,476(3)
	.loc 4 875 0
	stw 0,480(3)
	.loc 4 876 0
	stw 0,484(3)
.LBE1358:
.LBE1360:
	.loc 2 620 0
	lwz 11,4(4)
	lwz 9,8(4)
	lwz 0,12(4)
.LBB1361:
.LBB1359:
	.loc 4 877 0
	stfs 0,488(3)
.LBE1359:
.LBE1361:
	.loc 2 620 0
	stw 10,460(3)
	stw 11,464(3)
	stw 9,468(3)
	stw 0,472(3)
	.loc 2 622 0
	ble- 7,.L160
.LVL289:
.L156:
	.loc 2 627 0
	xoris 0,5,0x8000
	lis 9,.LC1@ha
	stw 0,12(1)
	lis 0,0x4330
	stw 0,8(1)
	lfs 0,.LC1@l(9)
	lis 9,.LC23@ha
	lfd 13,8(1)
	fsub 0,13,0
	lfs 13,.LC23@l(9)
	.loc 2 630 0
	lis 9,gameLocal+2426872@ha
	.loc 2 627 0
	frsp 0,0
	fdivs 0,13,0
	stfs 0,492(3)
	.loc 2 630 0
	lwz 0,gameLocal+2426872@l(9)
	or. 9,5,0
	beq- 0,.L161
.L158:
	.loc 2 633 0
	add 5,5,0
.LVL290:
	.loc 2 635 0
	.loc 2 633 0
	stw 5,496(3)
	.loc 2 635 0
	addi 1,1,16
	.cfi_remember_state
.LCFI43:
	.cfi_def_cfa_offset 0
	blr
.LVL291:
.L154:
.LCFI44:
	.cfi_restore_state
	.loc 2 618 0
	lwz 10,444(3)
	.loc 2 622 0
	cmpwi 7,5,0
	.loc 2 618 0
	lwz 11,448(3)
	lwz 9,452(3)
	lwz 0,456(3)
	stw 10,476(3)
	stw 11,480(3)
	stw 9,484(3)
	stw 0,488(3)
	.loc 2 620 0
	lwz 10,0(4)
	lwz 11,4(4)
	lwz 9,8(4)
	lwz 0,12(4)
	stw 10,460(3)
	stw 11,464(3)
	stw 9,468(3)
	stw 0,472(3)
	.loc 2 622 0
	bgt+ 7,.L156
.L160:
	.loc 2 623 0
	li 8,0
	.loc 2 625 0
	stw 9,452(3)
	.loc 2 623 0
	stw 8,492(3)
.LVL292:
	.loc 2 630 0
	lis 9,gameLocal+2426872@ha
	.loc 2 625 0
	stw 10,444(3)
	.loc 2 624 0
	li 5,0
.LVL293:
	.loc 2 625 0
	stw 11,448(3)
	stw 0,456(3)
	.loc 2 630 0
	lwz 0,gameLocal+2426872@l(9)
	or. 9,5,0
	bne+ 0,.L158
.LVL294:
.L161:
	.loc 2 631 0
	li 0,1
	.loc 2 635 0
	.loc 2 631 0
	stw 0,496(3)
	.loc 2 635 0
	addi 1,1,16
.LCFI45:
	.cfi_def_cfa_offset 0
	blr
	.cfi_endproc
.LFE2831:
	.size	_ZN12idPlayerView4FadeE6idVec4i, .-_ZN12idPlayerView4FadeE6idVec4i
	.align 2
	.globl _ZN12idPlayerView5FlashE6idVec4i
	.type	_ZN12idPlayerView5FlashE6idVec4i, @function
_ZN12idPlayerView5FlashE6idVec4i:
.LFB2830:
	.loc 2 600 0
	.cfi_startproc
.LVL295:
	mflr 0
	stwu 1,-56(1)
.LCFI46:
	.cfi_def_cfa_offset 56
	.cfi_register 65, 0
.LVL296:
	.loc 2 601 0
	addi 4,1,32
	.loc 2 600 0
	stw 31,52(1)
	stw 0,60(1)
.LBB1362:
.LBB1363:
	.loc 4 867 0
	li 0,0
	.cfi_offset 65, 4
	.cfi_offset 31, -4
	stw 0,8(1)
.LBE1363:
.LBE1362:
	.loc 2 600 0
	mr 31,3
.LBB1365:
.LBB1364:
	.loc 4 868 0
	stw 0,12(1)
	.loc 4 869 0
	stw 0,16(1)
	.loc 4 870 0
	stw 0,20(1)
.LBE1364:
.LBE1365:
	.loc 2 601 0
	li 0,0
	stw 0,32(1)
	stw 0,36(1)
	stw 0,40(1)
	stw 0,44(1)
	bl _ZN12idPlayerView4FadeE6idVec4i
.LVL297:
	.loc 2 602 0
	lis 11,colorWhite@ha
	la 9,colorWhite@l(11)
	lwz 8,colorWhite@l(11)
	lwz 0,12(9)
	lwz 10,4(9)
	lwz 11,8(9)
	stw 8,476(31)
	stw 10,480(31)
	stw 11,484(31)
	stw 0,488(31)
	.loc 2 603 0
	lwz 0,60(1)
	lwz 31,52(1)
.LVL298:
	mtlr 0
	addi 1,1,56
.LCFI47:
	.cfi_def_cfa_offset 0
	.cfi_restore 31
	blr
	.cfi_endproc
.LFE2830:
	.size	_ZN12idPlayerView5FlashE6idVec4i, .-_ZN12idPlayerView5FlashE6idVec4i
	.align 2
	.globl _ZN12idPlayerView10ScreenFadeEv
	.type	_ZN12idPlayerView10ScreenFadeEv, @function
_ZN12idPlayerView10ScreenFadeEv:
.LFB2832:
	.loc 2 642 0
	.cfi_startproc
.LVL299:
	mflr 0
	stwu 1,-32(1)
.LCFI48:
	.cfi_def_cfa_offset 32
	.cfi_register 65, 0
	stfd 31,24(1)
	stw 0,36(1)
	stw 30,16(1)
	stw 31,20(1)
.LBB1366:
	.loc 2 646 0
	lwz 0,496(3)
	.cfi_offset 31, -12
	.cfi_offset 30, -16
	.cfi_offset 65, 4
	.cfi_offset 63, -8
	cmpwi 7,0,0
	beq- 7,.L163
	.loc 2 650 0
	lis 9,gameLocal+2426872@ha
	lwz 9,gameLocal+2426872@l(9)
.LVL300:
	.loc 2 652 0
	subf. 0,9,0
	ble- 0,.L167
	.loc 2 658 0
	xoris 0,0,0x8000
	lis 9,.LC1@ha
	stw 0,12(1)
	lis 0,0x4330
	stw 0,8(1)
	lfs 0,.LC1@l(9)
	.loc 2 659 0
	lis 9,.LC23@ha
	.loc 2 658 0
	lfd 12,8(1)
	lfs 13,492(3)
	fsub 0,12,0
.LBB1367:
.LBB1368:
	.loc 4 905 0
	lfs 10,460(3)
	lfs 11,464(3)
	lfs 12,468(3)
.LBE1368:
.LBE1367:
	.loc 2 658 0
	frsp 0,0
.LBB1371:
.LBB1369:
	.loc 4 905 0
	lfs 4,472(3)
.LBE1369:
.LBE1371:
	.loc 4 918 0
	lfs 7,480(3)
	lfs 8,484(3)
	.loc 2 658 0
	fmuls 0,0,13
.LVL301:
	.loc 2 659 0
	lfs 13,.LC23@l(9)
	.loc 4 918 0
	lfs 9,488(3)
	.loc 2 659 0
	fsubs 13,13,0
.LVL302:
.LBB1372:
.LBB1370:
	.loc 4 905 0
	fmuls 11,13,11
	fmuls 12,13,12
	fmuls 4,13,4
	fmuls 13,13,10
.LVL303:
.LBE1370:
.LBE1372:
	.loc 4 918 0
	lfs 10,476(3)
	fmadds 11,0,7,11
.LVL304:
	fmadds 12,0,8,12
.LVL305:
	fmadds 4,0,9,4
.LVL306:
	fmadds 0,0,10,13
.LVL307:
	.loc 2 659 0
	stfs 11,448(3)
	stfs 12,452(3)
	stfs 4,456(3)
	stfs 0,444(3)
.LVL308:
.L166:
	.loc 2 662 0
	lis 9,.LC25@ha
	lfs 31,.LC25@l(9)
	fcmpu 7,4,31
	beq+ 7,.L163
	.loc 2 663 0
	lis 31,renderSystem@ha
	lfs 1,444(3)
	lwz 9,renderSystem@l(31)
.LVL309:
	lfs 2,448(3)
	lwz 11,0(9)
	lfs 3,452(3)
	mr 3,9
.LVL310:
	lwz 0,64(11)
	mtctr 0
	bctrl
	.loc 2 664 0
	lis 9,declManager@ha
	lwz 3,declManager@l(9)
	lis 4,.LC40@ha
	lwz 31,renderSystem@l(31)
	la 4,.LC40@l(4)
	lwz 9,0(3)
	li 5,1
	li 6,0
	lwz 0,104(9)
	lwz 9,0(31)
	mtctr 0
	lwz 30,72(9)
	bctrl
	lis 9,.LC23@ha
	lfs 7,.LC23@l(9)
	lis 9,.LC35@ha
	lfs 3,.LC35@l(9)
	lis 9,.LC36@ha
	mr 4,3
	fmr 1,31
	mr 3,31
	fmr 2,31
	lfs 4,.LC36@l(9)
	fmr 5,31
	fmr 6,31
	mtctr 30
	fmr 8,7
	bctrl
.LVL311:
.L163:
.LBE1366:
	.loc 2 666 0
	lwz 0,36(1)
	lwz 30,16(1)
	mtlr 0
	lwz 31,20(1)
	lfd 31,24(1)
	addi 1,1,32
	.cfi_remember_state
.LCFI49:
	.cfi_def_cfa_offset 0
	.cfi_restore 63
	.cfi_restore 31
	.cfi_restore 30
	blr
.LVL312:
.L167:
.LCFI50:
	.cfi_restore_state
.LBB1373:
	.loc 2 653 0
	lwz 0,472(3)
.LVL313:
	.loc 2 654 0
	lis 10,.LC25@ha
	lfs 0,.LC25@l(10)
	.loc 2 653 0
	stw 0,456(3)
.LVL314:
	lwz 11,460(3)
	.loc 2 654 0
	lfs 4,456(3)
	.loc 2 653 0
	lwz 9,464(3)
.LVL315:
	.loc 2 654 0
	fcmpu 7,4,0
	.loc 2 653 0
	lwz 0,468(3)
	stw 11,444(3)
	stw 9,448(3)
	stw 0,452(3)
	.loc 2 654 0
	bne- 7,.L166
	.loc 2 655 0
	li 0,0
	stw 0,496(3)
	b .L166
.LBE1373:
	.cfi_endproc
.LFE2832:
	.size	_ZN12idPlayerView10ScreenFadeEv, .-_ZN12idPlayerView10ScreenFadeEv
	.align 2
	.globl _ZN12idPlayerView15InfluenceVisionEP15idUserInterfacePK12renderView_s
	.type	_ZN12idPlayerView15InfluenceVisionEP15idUserInterfacePK12renderView_s, @function
_ZN12idPlayerView15InfluenceVisionEP15idUserInterfacePK12renderView_s:
.LFB2833:
	.loc 2 673 0
	.cfi_startproc
.LVL316:
	mflr 0
	stwu 1,-72(1)
.LCFI51:
	.cfi_def_cfa_offset 72
	.cfi_register 65, 0
	stw 28,40(1)
	mr 28,4
	.cfi_offset 28, -32
	stw 29,44(1)
	mr 29,5
	.cfi_offset 29, -28
	stw 31,52(1)
	mr 31,3
	.cfi_offset 31, -20
	stw 0,76(1)
	stfd 30,56(1)
	stfd 31,64(1)
	stw 30,48(1)
.LBB1374:
	.loc 2 677 0
	lwz 9,512(3)
	.loc 2 725 0
	lwz 3,6204(9)
.LVL317:
	.loc 2 677 0
	cmpwi 7,3,0
	beq- 7,.L176
	.cfi_offset 30, -24
	.cfi_offset 63, -8
	.cfi_offset 62, -16
	.cfi_offset 65, 4
	.loc 2 678 0
	bl _ZNK8idEntity10GetPhysicsEv
.LVL318:
	li 4,0
	lwz 9,0(3)
	lwz 0,132(9)
	mtctr 0
	bctrl
	mr 30,3
	lwz 3,512(31)
	bl _ZNK8idEntity10GetPhysicsEv
	li 4,0
	lwz 9,0(3)
	lwz 0,132(9)
	mtctr 0
	bctrl
.LVL319:
.LBB1375:
.LBB1376:
	.loc 4 431 0
	lfs 12,4(30)
	lfs 0,4(3)
.LBE1376:
.LBE1375:
	.loc 2 679 0
	lis 10,.LC25@ha
.LBB1381:
.LBB1377:
	.loc 4 431 0
	lfs 13,0(30)
	fsubs 12,12,0
	lfs 0,0(3)
	lfs 11,8(30)
	fsubs 13,13,0
	lfs 0,8(3)
.LBE1377:
.LBE1381:
.LBB1382:
.LBB1383:
	.loc 4 632 0
	fmuls 12,12,12
.LBE1383:
.LBE1382:
	.loc 2 679 0
	lwz 9,512(31)
.LBB1411:
.LBB1378:
	.loc 4 431 0
	fsubs 0,11,0
.LVL320:
.LBE1378:
.LBE1411:
	.loc 2 679 0
	lfs 30,.LC25@l(10)
	.loc 2 725 0
	lfs 11,6212(9)
.LBB1412:
.LBB1406:
.LBB1384:
.LBB1385:
.LBB1386:
.LBB1387:
	.loc 8 276 0
	lis 10,_ZN6idMath5iSqrtE@ha
.LBE1387:
.LBE1386:
.LBE1385:
.LBE1384:
.LBE1406:
.LBE1412:
.LBB1413:
.LBB1379:
	.loc 4 632 0
	fmadds 13,13,13,12
.LVL321:
.LBE1379:
.LBE1413:
.LBB1414:
.LBB1407:
.LBB1402:
.LBB1398:
.LBB1393:
.LBB1388:
	.loc 8 276 0
	la 10,_ZN6idMath5iSqrtE@l(10)
.LBE1388:
.LBE1393:
.LBE1398:
.LBE1402:
.LBE1407:
.LBE1414:
	.loc 2 679 0
	fcmpu 7,11,30
.LBB1415:
.LBB1380:
	.loc 4 632 0
	fmadds 13,0,0,13
	stfs 13,32(1)
.LVL322:
.LBE1380:
.LBE1415:
.LBB1416:
.LBB1408:
.LBB1403:
.LBB1399:
.LBB1394:
.LBB1389:
	.loc 8 270 0
	lwz 0,32(1)
.LVL323:
	.loc 8 276 0
	rlwinm 11,0,19,21,29
	lwzx 11,10,11
.LVL324:
.LBE1389:
.LBE1394:
.LBE1399:
.LBE1403:
.LBE1408:
.LBE1416:
	.loc 2 679 0
	bne- 7,.L183
.LVL325:
.L176:
	.loc 2 676 0
	lis 30,.LC23@ha
	lfs 30,.LC23@l(30)
.LVL326:
.L169:
.LBB1417:
	.loc 2 684 0
	lwz 0,6208(9)
	cmpwi 7,0,0
	beq- 7,.L172
.L184:
	.loc 2 685 0
	mr 5,29
	mr 3,31
	.loc 2 686 0
	lis 29,renderSystem@ha
.LVL327:
	.loc 2 685 0
	mr 4,28
	bl _ZN12idPlayerView10SingleViewEP15idUserInterfacePK12renderView_s
.LVL328:
	.loc 2 686 0
	lwz 3,renderSystem@l(29)
	lis 4,.LC43@ha
	lwz 9,0(3)
	la 4,.LC43@l(4)
	lwz 0,132(9)
	mtctr 0
	bctrl
	.loc 2 687 0
	lwz 3,renderSystem@l(29)
	lfs 31,.LC23@l(30)
	fmr 4,30
	lwz 9,0(3)
	fmr 1,31
	lwz 0,64(9)
	fmr 2,31
	fmr 3,31
	mtctr 0
	bctrl
	.loc 2 688 0
	lwz 3,renderSystem@l(29)
	lis 10,.LC25@ha
	.loc 2 725 0
	lwz 9,512(31)
	.loc 2 688 0
	lwz 11,0(3)
	fmr 7,31
	lfs 1,.LC25@l(10)
	fmr 8,31
	lwz 0,72(11)
	lis 11,.LC35@ha
	lfs 3,.LC35@l(11)
	lis 11,.LC36@ha
	mtctr 0
	fmr 2,1
	lfs 4,.LC36@l(11)
	fmr 5,1
	fmr 6,1
	lwz 4,6208(9)
	bctrl
.LBE1417:
.LBE1374:
	.loc 2 696 0
	lwz 0,76(1)
	lwz 28,40(1)
.LVL329:
	mtlr 0
	lwz 29,44(1)
	lwz 30,48(1)
	lwz 31,52(1)
.LVL330:
	lfd 30,56(1)
.LVL331:
	lfd 31,64(1)
	addi 1,1,72
	.cfi_remember_state
.LCFI52:
	.cfi_def_cfa_offset 0
	.cfi_restore 63
	.cfi_restore 62
	.cfi_restore 31
	.cfi_restore 30
	.cfi_restore 29
	.cfi_restore 28
	blr
.LVL332:
.L183:
.LCFI53:
	.cfi_restore_state
.LBB1440:
.LBB1428:
.LBB1409:
.LBB1404:
.LBB1400:
.LBB1395:
.LBB1390:
	.loc 8 276 0 discriminator 1
	rlwinm 0,0,9,24,31
.LVL333:
	.loc 8 275 0 discriminator 1
	lis 10,.LC14@ha
	.loc 8 276 0 discriminator 1
	subfic 0,0,380
	.loc 8 275 0 discriminator 1
	lfs 10,.LC14@l(10)
	.loc 8 276 0 discriminator 1
	rlwinm 0,0,22,0,8
.LBE1390:
.LBE1395:
.LBE1400:
.LBE1404:
.LBE1409:
.LBE1428:
	.loc 2 676 0 discriminator 1
	lis 30,.LC23@ha
.LVL334:
.LBB1429:
.LBB1410:
.LBB1405:
.LBB1401:
.LBB1396:
.LBB1391:
	.loc 8 276 0 discriminator 1
	or 11,0,11
	.loc 8 275 0 discriminator 1
	fmuls 10,13,10
	.loc 8 277 0 discriminator 1
	stw 11,36(1)
	.loc 8 278 0 discriminator 1
	lis 11,.LC42@ha
	lfs 12,.LC42@l(11)
	.loc 8 277 0 discriminator 1
	lfs 0,36(1)
.LVL335:
	.loc 2 673 0 discriminator 1
	fneg 10,10
	.loc 8 277 0 discriminator 1
	fmr 13,0
.LVL336:
	.loc 8 278 0 discriminator 1
	fmul 0,13,13
	fmadd 0,10,0,12
	fmul 0,13,0
	.loc 8 279 0 discriminator 1
	fmul 13,0,0
	fmadd 12,10,13,12
.LBE1391:
.LBE1396:
	.loc 8 303 0 discriminator 1
	lfs 13,32(1)
.LBB1397:
.LBB1392:
	.loc 8 279 0 discriminator 1
	fmul 0,0,12
	.loc 8 280 0 discriminator 1
	frsp 0,0
.LBE1392:
.LBE1397:
	.loc 8 303 0 discriminator 1
	fmuls 0,13,0
.LBE1401:
.LBE1405:
.LBE1410:
.LBE1429:
	.loc 2 679 0 discriminator 1
	fcmpu 7,11,0
	bng- 7,.L182
	.loc 2 680 0 discriminator 4
	fdivs 11,0,11
.LVL337:
.LBB1430:
.LBB1431:
	.loc 8 894 0 discriminator 4
	lis 30,.LC23@ha
	fcmpu 7,11,30
	blt- 7,.L182
	.loc 8 897 0
	lfs 0,.LC23@l(30)
	fcmpu 7,11,0
	bgt- 7,.L169
	fsubs 30,0,11
	b .L169
.LVL338:
.L182:
.LBE1431:
.LBE1430:
.LBB1432:
	.loc 2 684 0
	lwz 0,6208(9)
.LBE1432:
	.loc 2 676 0
	lfs 30,.LC23@l(30)
.LVL339:
.LBB1433:
	.loc 2 684 0
	cmpwi 7,0,0
	bne+ 7,.L184
.LVL340:
.L172:
.LBB1418:
	.loc 2 689 0
	lwz 0,6204(9)
	cmpwi 7,0,0
	beq- 7,.L185
.LBB1419:
	.loc 2 693 0
	lis 9,gameLocal+2426836@ha
	lis 30,0x4330
	lwz 0,gameLocal+2426836@l(9)
	lis 9,.LC1@ha
	stw 30,8(1)
	xoris 0,0,0x8000
	lfs 31,.LC1@l(9)
	stw 0,12(1)
	lfd 1,8(1)
	fsub 1,1,31
	frsp 1,1
	bl sinf
.LVL341:
	lis 9,.LC44@ha
	lfs 0,.LC44@l(9)
	addi 9,1,24
	.loc 2 694 0
	stw 30,16(1)
	addi 10,1,28
	.loc 2 693 0
	fadds 0,1,0
	.loc 2 694 0
	mr 3,31
	mr 4,28
	mr 5,29
	.loc 2 693 0
	fctiwz 0,0
	stfiwx 0,0,9
	lwz 0,24(1)
	.loc 2 694 0
	xoris 0,0,0x8000
	stw 0,20(1)
	lfd 0,16(1)
	fsub 31,0,31
	frsp 31,31
	fmuls 30,31,30
.LVL342:
	fctiwz 30,30
	stfiwx 30,0,10
.LBE1419:
.LBE1418:
.LBE1433:
.LBE1440:
	.loc 2 696 0
	lwz 0,76(1)
.LBB1441:
.LBB1434:
.LBB1422:
.LBB1420:
	.loc 2 694 0
	lwz 6,28(1)
.LBE1420:
.LBE1422:
.LBE1434:
.LBE1441:
	.loc 2 696 0
	lwz 28,40(1)
.LVL343:
	mtlr 0
	lwz 29,44(1)
.LVL344:
	lwz 30,48(1)
	lwz 31,52(1)
.LVL345:
	lfd 30,56(1)
	lfd 31,64(1)
	addi 1,1,72
	.cfi_remember_state
.LCFI54:
	.cfi_def_cfa_offset 0
	.cfi_restore 63
	.cfi_restore 62
	.cfi_restore 31
	.cfi_restore 30
	.cfi_restore 29
	.cfi_restore 28
.LBB1442:
.LBB1435:
.LBB1423:
.LBB1421:
	.loc 2 694 0
	b _ZN12idPlayerView12DoubleVisionEP15idUserInterfacePK12renderView_si
.LVL346:
.L185:
.LCFI55:
	.cfi_restore_state
.LBE1421:
.LBE1423:
.LBE1435:
.LBE1442:
	.loc 2 696 0
	lwz 0,76(1)
.LBB1443:
.LBB1436:
.LBB1424:
	.loc 2 690 0
	mr 3,31
.LBE1424:
.LBE1436:
.LBE1443:
	.loc 2 696 0
	lwz 30,48(1)
.LBB1444:
.LBB1437:
.LBB1425:
	.loc 2 690 0
	mr 4,28
.LBE1425:
.LBE1437:
.LBE1444:
	.loc 2 696 0
	lwz 31,52(1)
.LVL347:
.LBB1445:
.LBB1438:
.LBB1426:
	.loc 2 690 0
	mr 5,29
.LBE1426:
.LBE1438:
.LBE1445:
	.loc 2 696 0
	lwz 28,40(1)
.LVL348:
	mtlr 0
	lwz 29,44(1)
.LVL349:
	lfd 30,56(1)
.LVL350:
	lfd 31,64(1)
	addi 1,1,72
.LCFI56:
	.cfi_def_cfa_offset 0
	.cfi_restore 63
	.cfi_restore 62
	.cfi_restore 31
	.cfi_restore 30
	.cfi_restore 29
	.cfi_restore 28
.LBB1446:
.LBB1439:
.LBB1427:
	.loc 2 690 0
	b _ZN12idPlayerView10SingleViewEP15idUserInterfacePK12renderView_s
.LVL351:
.LVL352:
.LVL353:
.LBE1427:
.LBE1439:
.LBE1446:
	.cfi_endproc
.LFE2833:
	.size	_ZN12idPlayerView15InfluenceVisionEP15idUserInterfacePK12renderView_s, .-_ZN12idPlayerView15InfluenceVisionEP15idUserInterfacePK12renderView_s
	.align 2
	.globl _ZN12idPlayerView16RenderPlayerViewEP15idUserInterface
	.type	_ZN12idPlayerView16RenderPlayerViewEP15idUserInterface, @function
_ZN12idPlayerView16RenderPlayerViewEP15idUserInterface:
.LFB2834:
	.loc 2 703 0
	.cfi_startproc
.LVL354:
	mflr 0
	stwu 1,-32(1)
.LCFI57:
	.cfi_def_cfa_offset 32
	.cfi_register 65, 0
	stw 30,16(1)
	mr 30,4
	.cfi_offset 30, -16
	stw 31,20(1)
	mr 31,3
	.cfi_offset 31, -12
	stw 0,36(1)
	stfd 31,24(1)
.LBB1447:
	.loc 2 704 0
	lwz 3,512(3)
.LVL355:
	lwz 9,0(3)
	lwz 0,16(9)
	.cfi_offset 63, -8
	.cfi_offset 65, 4
	mtctr 0
	bctrl
.LVL356:
.LBB1448:
.LBB1449:
	.loc 2 706 0
	lis 9,g_skipViewEffects+44@ha
	.loc 6 142 0
	lwz 9,g_skipViewEffects+44@l(9)
.LBE1449:
.LBE1448:
	.loc 2 704 0
	mr 5,3
.LVL357:
	.loc 2 706 0
	lwz 0,36(9)
	cmpwi 7,0,0
	bne- 7,.L197
	.loc 2 709 0
	lwz 3,512(31)
.LVL358:
	lwz 0,6208(3)
	cmpwi 7,0,0
	beq- 7,.L198
.L189:
	.loc 2 710 0 discriminator 4
	mr 3,31
	mr 4,30
	bl _ZN12idPlayerView15InfluenceVisionEP15idUserInterfacePK12renderView_s
.LVL359:
.L191:
	.loc 2 718 0
	mr 3,31
	bl _ZN12idPlayerView10ScreenFadeEv
.L188:
.LBB1450:
.LBB1451:
	.loc 2 721 0
	lis 9,net_clientLagOMeter+44@ha
	.loc 6 142 0
	lwz 9,net_clientLagOMeter+44@l(9)
.LBE1451:
.LBE1450:
	.loc 2 721 0
	lwz 0,36(9)
	cmpwi 7,0,0
	beq- 7,.L186
	.loc 2 721 0 is_stmt 0 discriminator 1
	lwz 0,436(31)
	cmpwi 7,0,0
	beq- 7,.L186
	.loc 2 721 0 discriminator 3
	lis 9,gameLocal+2426850@ha
	lbz 0,gameLocal+2426850@l(9)
	cmpwi 7,0,0
	beq- 7,.L186
	.loc 2 722 0 is_stmt 1 discriminator 5
	lis 30,renderSystem@ha
.LVL360:
	lis 9,.LC23@ha
	lwz 3,renderSystem@l(30)
	lfs 31,.LC23@l(9)
	lwz 9,0(3)
	fmr 1,31
	lwz 0,64(9)
	fmr 2,31
	fmr 3,31
	mtctr 0
	fmr 4,31
	bctrl
	.loc 2 723 0 discriminator 5
	lwz 3,renderSystem@l(30)
	lis 9,.LC47@ha
	lis 11,.LC25@ha
	lfs 3,.LC47@l(9)
	fmr 7,31
	lwz 9,0(3)
	fmr 8,31
	lfs 5,.LC25@l(11)
	fmr 4,3
	lwz 0,72(9)
	lis 9,.LC45@ha
	lfs 1,.LC45@l(9)
	lis 9,.LC46@ha
	lfs 2,.LC46@l(9)
	fmr 6,5
	lwz 4,436(31)
	mtctr 0
	bctrl
.L186:
.LBE1447:
	.loc 2 725 0
	lwz 0,36(1)
	lwz 30,16(1)
	mtlr 0
	lwz 31,20(1)
.LVL361:
	lfd 31,24(1)
	addi 1,1,32
	.cfi_remember_state
.LCFI58:
	.cfi_def_cfa_offset 0
	.cfi_restore 63
	.cfi_restore 31
	.cfi_restore 30
	blr
.LVL362:
.L197:
.LCFI59:
	.cfi_restore_state
.LBB1452:
	.loc 2 707 0
	mr 3,31
.LVL363:
	mr 4,30
	bl _ZN12idPlayerView10SingleViewEP15idUserInterfacePK12renderView_s
.LVL364:
	b .L188
.LVL365:
.L198:
	.loc 2 709 0 discriminator 2
	lwz 0,6204(3)
	cmpwi 7,0,0
	bne+ 7,.L189
	.loc 2 711 0
	lis 9,gameLocal+2426836@ha
	lwz 0,384(31)
	lwz 6,gameLocal+2426836@l(9)
	cmpw 7,6,0
	bge- 7,.L199
	.loc 2 712 0
	mr 3,31
	mr 4,30
	subf 6,6,0
	bl _ZN12idPlayerView12DoubleVisionEP15idUserInterfacePK12renderView_si
.LVL366:
	b .L191
.LVL367:
.L199:
	.loc 2 713 0
	li 4,0
	stw 5,8(1)
	bl _ZNK8idPlayer13PowerUpActiveEi
.LVL368:
	lwz 5,8(1)
	cmpwi 7,3,0
	.loc 2 714 0
	mr 4,30
	mr 3,31
	.loc 2 713 0
	beq- 7,.L192
	.loc 2 714 0
	bl _ZN12idPlayerView13BerserkVisionEP15idUserInterfacePK12renderView_s
	b .L191
.L192:
	.loc 2 716 0
	bl _ZN12idPlayerView10SingleViewEP15idUserInterfacePK12renderView_s
	b .L191
.LBE1452:
	.cfi_endproc
.LFE2834:
	.size	_ZN12idPlayerView16RenderPlayerViewEP15idUserInterface, .-_ZN12idPlayerView16RenderPlayerViewEP15idUserInterface
	.section	.text.startup,"ax",@progbits
	.align 2
	.type	_GLOBAL__sub_I__ZN12idPlayerViewC2Ev, @function
_GLOBAL__sub_I__ZN12idPlayerViewC2Ev:
.LFB3117:
	.loc 2 725 0
	.cfi_startproc
.LVL369:
.LBB1453:
.LBB1454:
	.file 11 "d:/Data/Nintendo/DoomGX/src/game/Game_local.h"
	.loc 11 694 0
	lis 9,_ZN6idMath8M_SEC2MSE@ha
	.loc 11 121 0
	lis 11,.LANCHOR0@ha
	.loc 11 694 0
	lfs 0,_ZN6idMath8M_SEC2MSE@l(9)
	.loc 11 121 0
	li 8,3
	la 9,.LANCHOR0@l(11)
.LBB1455:
.LBB1456:
	.loc 4 396 0
	li 0,0
.LBE1456:
.LBE1455:
	.loc 11 694 0
	fadds 0,0,0
	.loc 11 121 0
	stw 8,.LANCHOR0@l(11)
.LVL370:
.LBB1460:
.LBB1457:
	.loc 4 398 0
	lis 11,.LC48@ha
	.loc 4 396 0
	stw 0,4(9)
	.loc 4 397 0
	stw 0,8(9)
.LBE1457:
.LBE1460:
.LBB1461:
.LBB1462:
	.loc 8 825 0
	addi 10,9,16
.LBE1462:
.LBE1461:
.LBB1465:
.LBB1458:
	.loc 4 398 0
	lwz 0,.LC48@l(11)
.LBE1458:
.LBE1465:
.LBB1466:
.LBB1463:
	.loc 8 825 0
	fctiwz 0,0
.LBE1463:
.LBE1466:
.LBB1467:
.LBB1459:
	.loc 4 398 0
	stw 0,12(9)
.LVL371:
.LBE1459:
.LBE1467:
	.file 12 "d:/Data/Nintendo/DoomGX/src/game/Player.h"
	.loc 12 69 0
	li 0,10
.LBB1468:
.LBB1464:
	.loc 8 825 0
	stfiwx 0,0,10
.LVL372:
.LBE1464:
.LBE1468:
	.loc 12 69 0
	stw 0,20(9)
.LBE1454:
.LBE1453:
	.loc 2 725 0
	blr
	.cfi_endproc
.LFE3117:
	.size	_GLOBAL__sub_I__ZN12idPlayerViewC2Ev, .-_GLOBAL__sub_I__ZN12idPlayerViewC2Ev
	.section	.ctors,"aw",@progbits
	.align 2
	.long	_GLOBAL__sub_I__ZN12idPlayerViewC2Ev
	.weak	_ZTS9idWinding
	.section	.rodata._ZTS9idWinding,"aG",@progbits,_ZTS9idWinding,comdat
	.align 2
	.type	_ZTS9idWinding, @object
	.size	_ZTS9idWinding, 11
_ZTS9idWinding:
	.string	"9idWinding"
	.weak	_ZTI9idWinding
	.section	.sdata._ZTI9idWinding,"awG",@progbits,_ZTI9idWinding,comdat
	.align 2
	.type	_ZTI9idWinding, @object
	.size	_ZTI9idWinding, 8
_ZTI9idWinding:
	.long	_ZTVN10__cxxabiv117__class_type_infoE+8
	.long	_ZTS9idWinding
	.weak	_ZTS14idFixedWinding
	.section	.rodata._ZTS14idFixedWinding,"aG",@progbits,_ZTS14idFixedWinding,comdat
	.align 2
	.type	_ZTS14idFixedWinding, @object
	.size	_ZTS14idFixedWinding, 17
_ZTS14idFixedWinding:
	.string	"14idFixedWinding"
	.weak	_ZTI14idFixedWinding
	.section	.rodata._ZTI14idFixedWinding,"aG",@progbits,_ZTI14idFixedWinding,comdat
	.align 2
	.type	_ZTI14idFixedWinding, @object
	.size	_ZTI14idFixedWinding, 12
_ZTI14idFixedWinding:
	.long	_ZTVN10__cxxabiv120__si_class_type_infoE+8
	.long	_ZTS14idFixedWinding
	.long	_ZTI9idWinding
	.weak	_ZTV9idWinding
	.section	.rodata._ZTV9idWinding,"aG",@progbits,_ZTV9idWinding,comdat
	.align 3
	.type	_ZTV9idWinding, @object
	.size	_ZTV9idWinding, 24
_ZTV9idWinding:
	.long	0
	.long	_ZTI9idWinding
	.long	_ZN9idWindingD1Ev
	.long	_ZN9idWindingD0Ev
	.long	_ZN9idWinding5ClearEv
	.long	_ZN9idWinding10ReAllocateEib
	.weak	_ZTV14idFixedWinding
	.section	.rodata._ZTV14idFixedWinding,"aG",@progbits,_ZTV14idFixedWinding,comdat
	.align 3
	.type	_ZTV14idFixedWinding, @object
	.size	_ZTV14idFixedWinding, 24
_ZTV14idFixedWinding:
	.long	0
	.long	_ZTI14idFixedWinding
	.long	_ZN14idFixedWindingD1Ev
	.long	_ZN14idFixedWindingD0Ev
	.long	_ZN14idFixedWinding5ClearEv
	.long	_ZN14idFixedWinding10ReAllocateEib
	.weak	_ZN9idWindingD1Ev
	.set	_ZN9idWindingD1Ev,_ZN9idWindingD2Ev
	.weak	_ZN14idFixedWindingD1Ev
	.set	_ZN14idFixedWindingD1Ev,_ZN14idFixedWindingD2Ev
	.globl _ZN12idPlayerViewC1Ev
	.set	_ZN12idPlayerViewC1Ev,_ZN12idPlayerViewC2Ev
	.section	.rodata.cst4,"aM",@progbits,4
	.align 2
.LC1:
	.4byte	1501560836
.LC14:
	.4byte	1056964608
.LC20:
	.4byte	998244352
.LC23:
	.4byte	1065353216
.LC25:
	.4byte	0
.LC29:
	.4byte	939524096
.LC30:
	.4byte	1116471296
.LC31:
	.4byte	-1031012352
.LC34:
	.4byte	1132068864
.LC35:
	.4byte	1142947840
.LC36:
	.4byte	1139802112
.LC37:
	.4byte	1120403456
.LC38:
	.4byte	1176256512
.LC42:
	.4byte	1069547520
.LC44:
	.4byte	1103626240
.LC45:
	.4byte	1092616192
.LC46:
	.4byte	1136525312
.LC47:
	.4byte	1115684864
.LC48:
	.4byte	-997900288
	.section	.rodata.str1.4,"aMS",@progbits,1
	.align 2
.LC2:
	.string	"idPlayerView::idPlayerView() size %d\r\n"
	.zero	1
.LC3:
	.string	"_scratch"
	.zero	3
.LC4:
	.string	"textures/decals/tunnel"
	.zero	1
.LC5:
	.string	"armorViewEffect"
.LC6:
	.string	"textures/decals/berserk"
.LC7:
	.string	"textures/decals/irblend"
.LC8:
	.string	"textures/decals/bloodspray"
	.zero	1
.LC9:
	.string	"textures/decals/bfgvision"
	.zero	2
.LC10:
	.string	"textures/sfx/lagometer"
	.zero	1
.LC11:
	.string	"0"
	.zero	2
.LC12:
	.string	""
	.zero	3
.LC13:
	.string	"kick_time"
	.zero	2
.LC15:
	.string	"kick_amplitude"
	.zero	1
.LC16:
	.string	"blob_time"
	.zero	2
.LC17:
	.string	"mtr_blob"
	.zero	3
.LC18:
	.string	"blob_x"
	.zero	1
.LC19:
	.string	"blob_y"
	.zero	1
.LC21:
	.string	"blob_width"
	.zero	1
.LC22:
	.string	"blob_height"
.LC24:
	.string	"dv_time"
.LC26:
	.string	"recoilTime"
	.zero	1
.LC27:
	.string	"recoilAngles"
	.zero	3
.LC28:
	.string	"5 0 0"
	.zero	2
.LC32:
	.string	"Undefined"
	.zero	2
.LC33:
	.string	"location"
	.zero	3
.LC39:
	.string	"Material not found.\n"
	.zero	3
.LC40:
	.string	"_white"
	.zero	1
.LC43:
	.string	"_currentRender"
	.section	".bss"
	.align 2
	.set	.LANCHOR0,. + 0
	.type	_ZL22NUM_RENDER_PORTAL_BITS, @object
	.size	_ZL22NUM_RENDER_PORTAL_BITS, 4
_ZL22NUM_RENDER_PORTAL_BITS:
	.zero	4
	.type	_ZL20DEFAULT_GRAVITY_VEC3, @object
	.size	_ZL20DEFAULT_GRAVITY_VEC3, 12
_ZL20DEFAULT_GRAVITY_VEC3:
	.zero	12
	.type	_ZL20CINEMATIC_SKIP_DELAY, @object
	.size	_ZL20CINEMATIC_SKIP_DELAY, 4
_ZL20CINEMATIC_SKIP_DELAY:
	.zero	4
	.type	_ZL26ASYNC_PLAYER_INV_AMMO_BITS, @object
	.size	_ZL26ASYNC_PLAYER_INV_AMMO_BITS, 4
_ZL26ASYNC_PLAYER_INV_AMMO_BITS:
	.zero	4
	.section	".text"
.Letext0:
	.file 13 "<built-in>"
	.file 14 "c:\\utils\\devkitpro\\devkitppc\\bin\\../lib/gcc/powerpc-eabi/4.6.3/include/stddef.h"
	.file 15 "c:\\utils\\devkitpro\\devkitppc\\bin\\../lib/gcc/powerpc-eabi/4.6.3/../../../../powerpc-eabi/include/sys/types.h"
	.file 16 "d:/Data/Nintendo/DoomGX/src/game/../idlib/../sys/sys_public.h"
	.file 17 "d:/Data/Nintendo/DoomGX/src/game/../idlib/../framework/Common.h"
	.file 18 "d:/Data/Nintendo/DoomGX/src/game/../idlib/../framework/FileSystem.h"
	.file 19 "d:/Data/Nintendo/DoomGX/src/game/../idlib/../idlib/Lib.h"
	.file 20 "d:/Data/Nintendo/DoomGX/src/game/../idlib/../idlib/CmdArgs.h"
	.file 21 "d:/Data/Nintendo/DoomGX/src/game/../idlib/../idlib/math/Quat.h"
	.file 22 "d:/Data/Nintendo/DoomGX/src/game/../idlib/../idlib/math/Rotation.h"
	.file 23 "d:/Data/Nintendo/DoomGX/src/game/../idlib/../idlib/math/Plane.h"
	.file 24 "d:/Data/Nintendo/DoomGX/src/game/../idlib/../idlib/containers/List.h"
	.file 25 "d:/Data/Nintendo/DoomGX/src/game/../idlib/../idlib/math/Ode.h"
	.file 26 "d:/Data/Nintendo/DoomGX/src/game/../idlib/../idlib/bv/Sphere.h"
	.file 27 "d:/Data/Nintendo/DoomGX/src/game/../idlib/../idlib/bv/Bounds.h"
	.file 28 "d:/Data/Nintendo/DoomGX/src/game/../idlib/../idlib/bv/Box.h"
	.file 29 "d:/Data/Nintendo/DoomGX/src/game/../idlib/../idlib/bv/Frustum.h"
	.file 30 "d:/Data/Nintendo/DoomGX/src/game/../idlib/../idlib/geometry/DrawVert.h"
	.file 31 "d:/Data/Nintendo/DoomGX/src/game/../idlib/../idlib/geometry/JointTransform.h"
	.file 32 "d:/Data/Nintendo/DoomGX/src/game/../idlib/../idlib/geometry/Surface.h"
	.file 33 "d:/Data/Nintendo/DoomGX/src/game/../idlib/../idlib/geometry/TraceModel.h"
	.file 34 "d:/Data/Nintendo/DoomGX/src/game/../idlib/../idlib/Token.h"
	.file 35 "d:/Data/Nintendo/DoomGX/src/game/../idlib/../idlib/Lexer.h"
	.file 36 "d:/Data/Nintendo/DoomGX/src/game/../idlib/../framework/File.h"
	.file 37 "d:/Data/Nintendo/DoomGX/src/game/../idlib/../idlib/Parser.h"
	.file 38 "d:/Data/Nintendo/DoomGX/src/game/../idlib/../idlib/containers/HashIndex.h"
	.file 39 "d:/Data/Nintendo/DoomGX/src/game/../idlib/../idlib/containers/StrList.h"
	.file 40 "d:/Data/Nintendo/DoomGX/src/game/../idlib/../idlib/containers/StrPool.h"
	.file 41 "d:/Data/Nintendo/DoomGX/src/game/../idlib/../idlib/containers/PlaneSet.h"
	.file 42 "d:/Data/Nintendo/DoomGX/src/game/../idlib/../idlib/LangDict.h"
	.file 43 "d:/Data/Nintendo/DoomGX/src/game/../idlib/../idlib/BitMsg.h"
	.file 44 "d:/Data/Nintendo/DoomGX/src/game/../idlib/../idlib/MapFile.h"
	.file 45 "d:/Data/Nintendo/DoomGX/src/game/../idlib/../framework/CmdSystem.h"
	.file 46 "d:/Data/Nintendo/DoomGX/src/game/../idlib/../framework/UsercmdGen.h"
	.file 47 "d:/Data/Nintendo/DoomGX/src/game/../idlib/../framework/DeclManager.h"
	.file 48 "d:/Data/Nintendo/DoomGX/src/game/../idlib/../framework/DeclParticle.h"
	.file 49 "d:/Data/Nintendo/DoomGX/src/game/../idlib/../renderer/RenderWorld.h"
	.file 50 "d:/Data/Nintendo/DoomGX/src/game/../idlib/../renderer/Cinematic.h"
	.file 51 "d:/Data/Nintendo/DoomGX/src/game/../idlib/../renderer/Model.h"
	.file 52 "d:/Data/Nintendo/DoomGX/src/game/../idlib/../renderer/RenderSystem.h"
	.file 53 "d:/Data/Nintendo/DoomGX/src/game/../idlib/../sound/sound.h"
	.file 54 "d:/Data/Nintendo/DoomGX/src/game/../idlib/../ui/UserInterface.h"
	.file 55 "d:/Data/Nintendo/DoomGX/src/game/../idlib/../cm/CollisionModel.h"
	.file 56 "d:/Data/Nintendo/DoomGX/src/game/../idlib/../tools/compilers/aas/AASFile.h"
	.file 57 "d:/Data/Nintendo/DoomGX/src/game/../idlib/../game/Game.h"
	.file 58 "d:/Data/Nintendo/DoomGX/src/game/../idlib/../framework/async/NetworkSystem.h"
	.file 59 "d:/Data/Nintendo/DoomGX/src/game/../idlib/../renderer/ModelManager.h"
	.file 60 "d:/Data/Nintendo/DoomGX/src/game/../idlib/../tools/compilers/aas/AASFileManager.h"
	.file 61 "d:/Data/Nintendo/DoomGX/src/game/../idlib/../framework/Session.h"
	.file 62 "d:/Data/Nintendo/DoomGX/src/game/../idlib/../ui/ListGUI.h"
	.file 63 "d:/Data/Nintendo/DoomGX/src/game/gamesys/Event.h"
	.file 64 "d:/Data/Nintendo/DoomGX/src/game/gamesys/Class.h"
	.file 65 "d:/Data/Nintendo/DoomGX/src/game/gamesys/SaveGame.h"
	.file 66 "d:/Data/Nintendo/DoomGX/src/game/Entity.h"
	.file 67 "d:/Data/Nintendo/DoomGX/src/game/../idlib/../idlib/containers/Hierarchy.h"
	.file 68 "d:/Data/Nintendo/DoomGX/src/game/physics/Clip.h"
	.file 69 "d:/Data/Nintendo/DoomGX/src/game/PlayerView.h"
	.file 70 "d:/Data/Nintendo/DoomGX/src/game/ai/AAS.h"
	.file 71 "d:/Data/Nintendo/DoomGX/src/game/../idlib/../framework/Console.h"
	.file 72 "d:/Data/Nintendo/DoomGX/src/game/../idlib/../idlib/math/Curve.h"
	.file 73 "d:/Data/Nintendo/DoomGX/src/game/../idlib/../idlib/math/Simd.h"
	.file 74 "d:/Data/Nintendo/DoomGX/src/game/../idlib/../framework/BuildVersion.h"
	.file 75 "d:/Data/Nintendo/DoomGX/src/game/../idlib/precompiled.h"
	.file 76 "d:/Data/Nintendo/DoomGX/src/game/../idlib/../renderer/Material.h"
	.file 77 "d:/Data/Nintendo/DoomGX/src/game/../idlib/../framework/EventLoop.h"
	.file 78 "d:/Data/Nintendo/DoomGX/src/game/../idlib/../framework/EditField.h"
	.file 79 "d:/Data/Nintendo/DoomGX/src/game/../idlib/../framework/async/AsyncNetwork.h"
	.file 80 "d:/Data/Nintendo/DoomGX/src/game/../idlib/../framework/async/AsyncServer.h"
	.file 81 "d:/Data/Nintendo/DoomGX/src/game/gamesys/SysCvar.h"
	.file 82 "d:/Data/Nintendo/DoomGX/src/game/anim/Anim.h"
	.file 83 "d:/Data/Nintendo/DoomGX/src/game/MultiplayerGame.h"
	.file 84 "d:/Data/Nintendo/DoomGX/src/game/AFEntity.h"
	.file 85 "d:/Data/Nintendo/DoomGX/src/game/Weapon.h"
	.file 86 "d:/Data/Nintendo/DoomGX/src/game/ai/AI.h"
	.file 87 "d:/Data/Nintendo/DoomGX/src/game/script/Script_Compiler.h"
	.file 88 "d:/Data/Nintendo/DoomGX/src/game/script/Script_Thread.h"